	.file	"clustal.c"
# GNU C (Ubuntu/Linaro 4.8.1-10ubuntu9) version 4.8.1 (x86_64-linux-gnu)
#	compiled by GNU C version 4.8.1, GMP version 5.1.2, MPFR version 3.1.1-p2, MPC version 1.0.1
# GGC heuristics: --param ggc-min-expand=100 --param ggc-min-heapsize=131072
# options passed:  -imultiarch x86_64-linux-gnu -D SPEC_CPU -D NDEBUG
# -D SPEC_CPU_LP64 clustal.c -mtune=generic -march=x86-64 -g -fverbose-asm
# -fno-strict-aliasing -fstack-protector -Wformat -Wformat-security
# options enabled:  -faggressive-loop-optimizations
# -fasynchronous-unwind-tables -fauto-inc-dec -fbranch-count-reg -fcommon
# -fdelete-null-pointer-checks -fdwarf2-cfi-asm -fearly-inlining
# -feliminate-unused-debug-types -ffunction-cse -fgcse-lm -fgnu-runtime
# -fident -finline-atomics -fira-hoist-pressure -fira-share-save-slots
# -fira-share-spill-slots -fivopts -fkeep-static-consts
# -fleading-underscore -fmath-errno -fmerge-debug-strings
# -fmove-loop-invariants -fpeephole -fprefetch-loop-arrays
# -freg-struct-return -fsched-critical-path-heuristic
# -fsched-dep-count-heuristic -fsched-group-heuristic -fsched-interblock
# -fsched-last-insn-heuristic -fsched-rank-heuristic -fsched-spec
# -fsched-spec-insn-heuristic -fsched-stalled-insns-dep -fshow-column
# -fsigned-zeros -fsplit-ivs-in-unroller -fstack-protector
# -fstrict-volatile-bitfields -fsync-libcalls -ftrapping-math
# -ftree-coalesce-vars -ftree-cselim -ftree-forwprop -ftree-loop-if-convert
# -ftree-loop-im -ftree-loop-ivcanon -ftree-loop-optimize
# -ftree-parallelize-loops= -ftree-phiprop -ftree-pta -ftree-reassoc
# -ftree-scev-cprop -ftree-slp-vectorize -ftree-vect-loop-version
# -funit-at-a-time -funwind-tables -fverbose-asm -fzero-initialized-in-bss
# -m128bit-long-double -m64 -m80387 -maccumulate-outgoing-args
# -malign-stringops -mfancy-math-387 -mfp-ret-in-387 -mfxsr -mglibc
# -mieee-fp -mlong-double-80 -mmmx -mno-sse4 -mpush-args -mred-zone -msse
# -msse2 -mtls-direct-seg-refs

	.text
.Ltext0:
	.section	.rodata
.LC0:
	.string	"CLUSTAL"
.LC1:
	.string	"multiple sequence alignment"
.LC2:
	.string	" \t\n"
.LC3:
	.string	"\n"
.LC4:
	.string	".*:"
	.align 8
.LC5:
	.string	"Parse failed at line %d, file %s: possibly using spaces as gaps"
	.text
	.globl	ReadClustal
	.type	ReadClustal, @function
ReadClustal:
.LFB2:
	.file 1 "clustal.c"
	.loc 1 80 0
	.cfi_startproc
	pushq	%rbp	#
	.cfi_def_cfa_offset 16
	.cfi_offset 6, -16
	movq	%rsp, %rbp	#,
	.cfi_def_cfa_register 6
	pushq	%rbx	#
	subq	$72, %rsp	#,
	.cfi_offset 3, -24
	movq	%rdi, -72(%rbp)	# afp, afp
	.loc 1 89 0
	movq	-72(%rbp), %rax	# afp, tmp93
	movq	(%rax), %rax	# afp_2(D)->f, D.5789
	movq	%rax, %rdi	# D.5789,
	call	feof	#
	testl	%eax, %eax	# D.5790
	je	.L2	#,
	.loc 1 89 0 is_stmt 0 discriminator 1
	movl	$0, %eax	#, D.5788
	jmp	.L14	#
.L2:
	.loc 1 93 0 is_stmt 1
	jmp	.L4	#
.L6:
	.loc 1 95 0
	movq	-56(%rbp), %rax	# s, s.0
	movl	$7, %edx	#,
	movl	$.LC0, %esi	#,
	movq	%rax, %rdi	# s.0,
	call	strncmp	#
	testl	%eax, %eax	# D.5790
	jne	.L4	#,
	.loc 1 96 0 discriminator 1
	movq	-56(%rbp), %rax	# s, s.1
	movl	$.LC1, %esi	#,
	movq	%rax, %rdi	# s.1,
	call	strstr	#
	.loc 1 95 0 discriminator 1
	testq	%rax, %rax	# D.5791
	je	.L4	#,
	.loc 1 97 0
	jmp	.L5	#
.L4:
	.loc 1 93 0 discriminator 1
	movq	-72(%rbp), %rax	# afp, tmp94
	movq	%rax, %rdi	# tmp94,
	call	MSAFileGetLine	#
	movq	%rax, -56(%rbp)	# s.2, s
	movq	-56(%rbp), %rax	# s, s.3
	testq	%rax, %rax	# s.3
	jne	.L6	#,
.L5:
	.loc 1 99 0
	movq	-56(%rbp), %rax	# s, s.4
	testq	%rax, %rax	# s.4
	jne	.L7	#,
	.loc 1 99 0 is_stmt 0 discriminator 1
	movl	$0, %eax	#, D.5788
	jmp	.L14	#
.L7:
	.loc 1 101 0 is_stmt 1
	movl	$0, %esi	#,
	movl	$10, %edi	#,
	call	MSAAlloc	#
	movq	%rax, -48(%rbp)	# tmp95, msa
	.loc 1 108 0
	jmp	.L8	#
.L13:
	.loc 1 110 0
	leaq	-56(%rbp), %rax	#, tmp96
	movl	$0, %edx	#,
	movl	$.LC2, %esi	#,
	movq	%rax, %rdi	# tmp96,
	call	sre_strtok	#
	movq	%rax, -40(%rbp)	# tmp97, name
	cmpq	$0, -40(%rbp)	#, name
	jne	.L9	#,
	.loc 1 110 0 is_stmt 0 discriminator 1
	jmp	.L8	#
.L9:
	.loc 1 111 0 is_stmt 1
	leaq	-64(%rbp), %rdx	#, tmp98
	leaq	-56(%rbp), %rax	#, tmp99
	movl	$.LC2, %esi	#,
	movq	%rax, %rdi	# tmp99,
	call	sre_strtok	#
	movq	%rax, -32(%rbp)	# tmp100, seq
	cmpq	$0, -32(%rbp)	#, seq
	jne	.L10	#,
	.loc 1 111 0 is_stmt 0 discriminator 1
	jmp	.L8	#
.L10:
	.loc 1 112 0 is_stmt 1
	leaq	-56(%rbp), %rax	#, tmp101
	movl	$0, %edx	#,
	movl	$.LC3, %esi	#,
	movq	%rax, %rdi	# tmp101,
	call	sre_strtok	#
	movq	%rax, -24(%rbp)	# tmp102, s2
	.loc 1 116 0
	movq	-40(%rbp), %rax	# name, tmp103
	movl	$.LC4, %esi	#,
	movq	%rax, %rdi	# tmp103,
	call	strpbrk	#
	testq	%rax, %rax	# D.5791
	je	.L11	#,
	.loc 1 116 0 is_stmt 0 discriminator 1
	movq	-32(%rbp), %rax	# seq, tmp104
	movl	$.LC4, %esi	#,
	movq	%rax, %rdi	# tmp104,
	call	strpbrk	#
	testq	%rax, %rax	# D.5791
	je	.L11	#,
	.loc 1 117 0 is_stmt 1
	jmp	.L8	#
.L11:
	.loc 1 118 0
	cmpq	$0, -24(%rbp)	#, s2
	je	.L12	#,
	.loc 1 119 0
	movq	-72(%rbp), %rax	# afp, tmp105
	movq	8(%rax), %rdx	# afp_2(D)->fname, D.5791
	movq	-72(%rbp), %rax	# afp, tmp106
	movl	16(%rax), %eax	# afp_2(D)->linenumber, D.5790
	movl	%eax, %esi	# D.5790,
	movl	$.LC5, %edi	#,
	movl	$0, %eax	#,
	call	Die	#
.L12:
	.loc 1 124 0
	movq	-48(%rbp), %rax	# msa, tmp107
	movl	352(%rax), %eax	# msa_14->lastidx, D.5790
	leal	1(%rax), %edx	#, D.5790
	movq	-40(%rbp), %rcx	# name, tmp108
	movq	-48(%rbp), %rax	# msa, tmp109
	movq	%rcx, %rsi	# tmp108,
	movq	%rax, %rdi	# tmp109,
	call	MSAGetSeqidx	#
	movl	%eax, -60(%rbp)	# tmp110, sqidx
	.loc 1 125 0
	movq	-48(%rbp), %rax	# msa, tmp111
	movl	-60(%rbp), %edx	# sqidx, tmp112
	movl	%edx, 352(%rax)	# tmp112, msa_14->lastidx
	.loc 1 126 0
	movq	-48(%rbp), %rax	# msa, tmp113
	movq	328(%rax), %rax	# msa_14->sqlen, D.5792
	movl	-60(%rbp), %edx	# sqidx, tmp114
	movslq	%edx, %rdx	# tmp114, D.5793
	salq	$2, %rdx	#, D.5793
	leaq	(%rax,%rdx), %rbx	#, D.5792
	movl	-64(%rbp), %ecx	# slen, slen.5
	movq	-48(%rbp), %rax	# msa, tmp115
	movq	328(%rax), %rax	# msa_14->sqlen, D.5792
	movl	-60(%rbp), %edx	# sqidx, tmp116
	movslq	%edx, %rdx	# tmp116, D.5793
	salq	$2, %rdx	#, D.5793
	addq	%rdx, %rax	# D.5793, D.5792
	movl	(%rax), %eax	# *_35, D.5790
	movq	-48(%rbp), %rdx	# msa, tmp117
	movq	(%rdx), %rdx	# msa_14->aseq, D.5794
	movl	-60(%rbp), %esi	# sqidx, tmp118
	movslq	%esi, %rsi	# tmp118, D.5793
	salq	$3, %rsi	#, D.5793
	leaq	(%rdx,%rsi), %rdi	#, D.5794
	movq	-32(%rbp), %rdx	# seq, tmp119
	movl	%eax, %esi	# D.5790,
	call	sre_strcat	#
	movl	%eax, (%rbx)	# D.5790, *_30
.L8:
	.loc 1 108 0 discriminator 1
	movq	-72(%rbp), %rax	# afp, tmp120
	movq	%rax, %rdi	# tmp120,
	call	MSAFileGetLine	#
	movq	%rax, -56(%rbp)	# s.6, s
	movq	-56(%rbp), %rax	# s, s.7
	testq	%rax, %rax	# s.7
	jne	.L13	#,
	.loc 1 129 0
	movq	-48(%rbp), %rax	# msa, tmp121
	movq	%rax, %rdi	# tmp121,
	call	MSAVerifyParse	#
	.loc 1 130 0
	movq	-48(%rbp), %rax	# msa, D.5788
.L14:
	.loc 1 131 0
	addq	$72, %rsp	#,
	popq	%rbx	#
	popq	%rbp	#
	.cfi_def_cfa 7, 8
	ret
	.cfi_endproc
.LFE2:
	.size	ReadClustal, .-ReadClustal
	.section	.rodata
	.align 8
.LC6:
	.string	"CLUSTAL W(1.5) multiple sequence alignment\n"
.LC7:
	.string	"%*s %s\n"
	.text
	.globl	WriteClustal
	.type	WriteClustal, @function
WriteClustal:
.LFB3:
	.loc 1 146 0
	.cfi_startproc
	pushq	%rbp	#
	.cfi_def_cfa_offset 16
	.cfi_offset 6, -16
	movq	%rsp, %rbp	#,
	.cfi_def_cfa_register 6
	addq	$-128, %rsp	#,
	movq	%rdi, -120(%rbp)	# fp, fp
	movq	%rsi, -128(%rbp)	# msa, msa
	.loc 1 146 0
	movq	%fs:40, %rax	#, tmp103
	movq	%rax, -8(%rbp)	# tmp103, D.5806
	xorl	%eax, %eax	# tmp103
	.loc 1 152 0
	movl	$50, -88(%rbp)	#, cpl
	.loc 1 155 0
	movl	$0, -96(%rbp)	#, namelen
	.loc 1 156 0
	movl	$0, -100(%rbp)	#, idx
	jmp	.L16	#
.L18:
	.loc 1 157 0
	movq	-128(%rbp), %rax	# msa, tmp81
	movq	8(%rax), %rax	# msa_9(D)->sqname, D.5802
	movl	-100(%rbp), %edx	# idx, tmp82
	movslq	%edx, %rdx	# tmp82, D.5803
	salq	$3, %rdx	#, D.5803
	addq	%rdx, %rax	# D.5803, D.5802
	movq	(%rax), %rax	# *_14, D.5804
	movq	%rax, %rdi	# D.5804,
	call	strlen	#
	movl	%eax, -84(%rbp)	# D.5803, len
	movl	-84(%rbp), %eax	# len, tmp83
	cmpl	-96(%rbp), %eax	# namelen, tmp83
	jle	.L17	#,
	.loc 1 158 0
	movl	-84(%rbp), %eax	# len, tmp84
	movl	%eax, -96(%rbp)	# tmp84, namelen
.L17:
	.loc 1 156 0
	addl	$1, -100(%rbp)	#, idx
.L16:
	.loc 1 156 0 is_stmt 0 discriminator 1
	movq	-128(%rbp), %rax	# msa, tmp85
	movl	28(%rax), %eax	# msa_9(D)->nseq, D.5801
	cmpl	-100(%rbp), %eax	# idx, D.5801
	jg	.L18	#,
	.loc 1 160 0 is_stmt 1
	movq	-120(%rbp), %rax	# fp, tmp86
	movq	%rax, %rcx	# tmp86,
	movl	$43, %edx	#,
	movl	$1, %esi	#,
	movl	$.LC6, %edi	#,
	call	fwrite	#
	.loc 1 166 0
	movl	$0, -92(%rbp)	#, pos
	jmp	.L19	#
.L22:
	.loc 1 168 0
	movq	-120(%rbp), %rax	# fp, tmp87
	movq	%rax, %rsi	# tmp87,
	movl	$10, %edi	#,
	call	fputc	#
	.loc 1 169 0
	movl	$0, -100(%rbp)	#, idx
	jmp	.L20	#
.L21:
	.loc 1 171 0 discriminator 2
	movl	-88(%rbp), %eax	# cpl, tmp88
	movslq	%eax, %rdx	# tmp88, D.5803
	movq	-128(%rbp), %rax	# msa, tmp89
	movq	(%rax), %rax	# msa_9(D)->aseq, D.5802
	movl	-100(%rbp), %ecx	# idx, tmp90
	movslq	%ecx, %rcx	# tmp90, D.5803
	salq	$3, %rcx	#, D.5803
	addq	%rcx, %rax	# D.5803, D.5802
	movq	(%rax), %rcx	# *_29, D.5804
	movl	-92(%rbp), %eax	# pos, tmp91
	cltq
	addq	%rax, %rcx	# D.5805, D.5804
	leaq	-80(%rbp), %rax	#, tmp92
	movq	%rcx, %rsi	# D.5804,
	movq	%rax, %rdi	# tmp92,
	call	strncpy	#
	.loc 1 172 0 discriminator 2
	movl	-88(%rbp), %eax	# cpl, tmp94
	cltq
	movb	$0, -80(%rbp,%rax)	#, buf
	.loc 1 173 0 discriminator 2
	movq	-128(%rbp), %rax	# msa, tmp95
	movq	8(%rax), %rax	# msa_9(D)->sqname, D.5802
	movl	-100(%rbp), %edx	# idx, tmp96
	movslq	%edx, %rdx	# tmp96, D.5803
	salq	$3, %rdx	#, D.5803
	addq	%rdx, %rax	# D.5803, D.5802
	movq	(%rax), %rcx	# *_36, D.5804
	leaq	-80(%rbp), %rsi	#, tmp97
	movl	-96(%rbp), %edx	# namelen, tmp98
	movq	-120(%rbp), %rax	# fp, tmp99
	movq	%rsi, %r8	# tmp97,
	movl	$.LC7, %esi	#,
	movq	%rax, %rdi	# tmp99,
	movl	$0, %eax	#,
	call	fprintf	#
	.loc 1 169 0 discriminator 2
	addl	$1, -100(%rbp)	#, idx
.L20:
	.loc 1 169 0 is_stmt 0 discriminator 1
	movq	-128(%rbp), %rax	# msa, tmp100
	movl	28(%rax), %eax	# msa_9(D)->nseq, D.5801
	cmpl	-100(%rbp), %eax	# idx, D.5801
	jg	.L21	#,
	.loc 1 166 0 is_stmt 1
	movl	-88(%rbp), %eax	# cpl, tmp101
	addl	%eax, -92(%rbp)	# tmp101, pos
.L19:
	.loc 1 166 0 is_stmt 0 discriminator 1
	movq	-128(%rbp), %rax	# msa, tmp102
	movl	24(%rax), %eax	# msa_9(D)->alen, D.5801
	cmpl	-92(%rbp), %eax	# pos, D.5801
	jg	.L22	#,
	.loc 1 177 0 is_stmt 1
	nop
	.loc 1 178 0
	movq	-8(%rbp), %rax	# D.5806, tmp104
	xorq	%fs:40, %rax	#, tmp104
	je	.L24	#,
	call	__stack_chk_fail	#
.L24:
	leave
	.cfi_def_cfa 7, 8
	ret
	.cfi_endproc
.LFE3:
	.size	WriteClustal, .-WriteClustal
.Letext0:
	.file 2 "/usr/lib/gcc/x86_64-linux-gnu/4.8/include/stddef.h"
	.file 3 "/usr/include/x86_64-linux-gnu/bits/types.h"
	.file 4 "/usr/include/stdio.h"
	.file 5 "/usr/include/libio.h"
	.file 6 "squid.h"
	.file 7 "gki.h"
	.file 8 "ssi.h"
	.file 9 "msa.h"
	.section	.note.GNU-stack,"",@progbits
