	.file	"core_algorithms.c"
# GNU C (Ubuntu/Linaro 4.8.1-10ubuntu9) version 4.8.1 (x86_64-linux-gnu)
#	compiled by GNU C version 4.8.1, GMP version 5.1.2, MPFR version 3.1.1-p2, MPC version 1.0.1
# GGC heuristics: --param ggc-min-expand=100 --param ggc-min-heapsize=131072
# options passed:  -imultiarch x86_64-linux-gnu -D SPEC_CPU -D NDEBUG
# -D SPEC_CPU_LP64 core_algorithms.c -mtune=generic -march=x86-64 -g
# -fverbose-asm -fno-strict-aliasing -fstack-protector -Wformat
# -Wformat-security
# options enabled:  -faggressive-loop-optimizations
# -fasynchronous-unwind-tables -fauto-inc-dec -fbranch-count-reg -fcommon
# -fdelete-null-pointer-checks -fdwarf2-cfi-asm -fearly-inlining
# -feliminate-unused-debug-types -ffunction-cse -fgcse-lm -fgnu-runtime
# -fident -finline-atomics -fira-hoist-pressure -fira-share-save-slots
# -fira-share-spill-slots -fivopts -fkeep-static-consts
# -fleading-underscore -fmath-errno -fmerge-debug-strings
# -fmove-loop-invariants -fpeephole -fprefetch-loop-arrays
# -freg-struct-return -fsched-critical-path-heuristic
# -fsched-dep-count-heuristic -fsched-group-heuristic -fsched-interblock
# -fsched-last-insn-heuristic -fsched-rank-heuristic -fsched-spec
# -fsched-spec-insn-heuristic -fsched-stalled-insns-dep -fshow-column
# -fsigned-zeros -fsplit-ivs-in-unroller -fstack-protector
# -fstrict-volatile-bitfields -fsync-libcalls -ftrapping-math
# -ftree-coalesce-vars -ftree-cselim -ftree-forwprop -ftree-loop-if-convert
# -ftree-loop-im -ftree-loop-ivcanon -ftree-loop-optimize
# -ftree-parallelize-loops= -ftree-phiprop -ftree-pta -ftree-reassoc
# -ftree-scev-cprop -ftree-slp-vectorize -ftree-vect-loop-version
# -funit-at-a-time -funwind-tables -fverbose-asm -fzero-initialized-in-bss
# -m128bit-long-double -m64 -m80387 -maccumulate-outgoing-args
# -malign-stringops -mfancy-math-387 -mfp-ret-in-387 -mfxsr -mglibc
# -mieee-fp -mlong-double-80 -mmmx -mno-sse4 -mpush-args -mred-zone -msse
# -msse2 -mtls-direct-seg-refs

	.text
.Ltext0:
	.section	.rodata
.LC0:
	.string	"core_algorithms.c"
	.align 8
.LC1:
	.string	"there's trouble with RAMLIMIT if you grow in both M and N."
	.text
	.globl	CreatePlan7Matrix
	.type	CreatePlan7Matrix, @function
CreatePlan7Matrix:
.LFB2:
	.file 1 "core_algorithms.c"
	.loc 1 62 0
	.cfi_startproc
	pushq	%rbp	#
	.cfi_def_cfa_offset 16
	.cfi_offset 6, -16
	movq	%rsp, %rbp	#,
	.cfi_def_cfa_register 6
	subq	$32, %rsp	#,
	movl	%edi, -20(%rbp)	# N, N
	movl	%esi, -24(%rbp)	# M, M
	movl	%edx, -28(%rbp)	# padN, padN
	movl	%ecx, -32(%rbp)	# padM, padM
	.loc 1 66 0
	movl	$80, %edx	#,
	movl	$66, %esi	#,
	movl	$.LC0, %edi	#,
	call	sre_malloc	#
	movq	%rax, -8(%rbp)	# tmp149, mx
	.loc 1 67 0
	movl	-20(%rbp), %eax	# N, tmp150
	addl	$1, %eax	#, D.14885
	cltq
	salq	$3, %rax	#, D.14886
	movq	%rax, %rdx	# D.14886,
	movl	$67, %esi	#,
	movl	$.LC0, %edi	#,
	call	sre_malloc	#
	movq	-8(%rbp), %rdx	# mx, tmp151
	movq	%rax, (%rdx)	# D.14887, mx_2->xmx
	.loc 1 68 0
	movl	-20(%rbp), %eax	# N, tmp152
	addl	$1, %eax	#, D.14885
	cltq
	salq	$3, %rax	#, D.14886
	movq	%rax, %rdx	# D.14886,
	movl	$68, %esi	#,
	movl	$.LC0, %edi	#,
	call	sre_malloc	#
	movq	-8(%rbp), %rdx	# mx, tmp153
	movq	%rax, 8(%rdx)	# D.14887, mx_2->mmx
	.loc 1 69 0
	movl	-20(%rbp), %eax	# N, tmp154
	addl	$1, %eax	#, D.14885
	cltq
	salq	$3, %rax	#, D.14886
	movq	%rax, %rdx	# D.14886,
	movl	$69, %esi	#,
	movl	$.LC0, %edi	#,
	call	sre_malloc	#
	movq	-8(%rbp), %rdx	# mx, tmp155
	movq	%rax, 16(%rdx)	# D.14887, mx_2->imx
	.loc 1 70 0
	movl	-20(%rbp), %eax	# N, tmp156
	addl	$1, %eax	#, D.14885
	cltq
	salq	$3, %rax	#, D.14886
	movq	%rax, %rdx	# D.14886,
	movl	$70, %esi	#,
	movl	$.LC0, %edi	#,
	call	sre_malloc	#
	movq	-8(%rbp), %rdx	# mx, tmp157
	movq	%rax, 24(%rdx)	# D.14887, mx_2->dmx
	.loc 1 71 0
	movl	-20(%rbp), %eax	# N, tmp158
	addl	$1, %eax	#, D.14885
	movslq	%eax, %rdx	# D.14885, D.14886
	movq	%rdx, %rax	# D.14886, tmp159
	salq	$2, %rax	#, tmp159
	addq	%rdx, %rax	# D.14886, tmp159
	salq	$2, %rax	#, tmp160
	movq	%rax, %rdx	# D.14886,
	movl	$71, %esi	#,
	movl	$.LC0, %edi	#,
	call	sre_malloc	#
	movq	-8(%rbp), %rdx	# mx, tmp161
	movq	%rax, 32(%rdx)	# D.14887, mx_2->xmx_mem
	.loc 1 72 0
	movl	-20(%rbp), %eax	# N, tmp162
	leal	1(%rax), %edx	#, D.14885
	movl	-24(%rbp), %eax	# M, tmp163
	addl	$2, %eax	#, D.14885
	imull	%edx, %eax	# D.14885, D.14885
	cltq
	salq	$2, %rax	#, D.14886
	movq	%rax, %rdx	# D.14886,
	movl	$72, %esi	#,
	movl	$.LC0, %edi	#,
	call	sre_malloc	#
	movq	-8(%rbp), %rdx	# mx, tmp164
	movq	%rax, 40(%rdx)	# D.14887, mx_2->mmx_mem
	.loc 1 73 0
	movl	-20(%rbp), %eax	# N, tmp165
	leal	1(%rax), %edx	#, D.14885
	movl	-24(%rbp), %eax	# M, tmp166
	addl	$2, %eax	#, D.14885
	imull	%edx, %eax	# D.14885, D.14885
	cltq
	salq	$2, %rax	#, D.14886
	movq	%rax, %rdx	# D.14886,
	movl	$73, %esi	#,
	movl	$.LC0, %edi	#,
	call	sre_malloc	#
	movq	-8(%rbp), %rdx	# mx, tmp167
	movq	%rax, 48(%rdx)	# D.14887, mx_2->imx_mem
	.loc 1 74 0
	movl	-20(%rbp), %eax	# N, tmp168
	leal	1(%rax), %edx	#, D.14885
	movl	-24(%rbp), %eax	# M, tmp169
	addl	$2, %eax	#, D.14885
	imull	%edx, %eax	# D.14885, D.14885
	cltq
	salq	$2, %rax	#, D.14886
	movq	%rax, %rdx	# D.14886,
	movl	$74, %esi	#,
	movl	$.LC0, %edi	#,
	call	sre_malloc	#
	movq	-8(%rbp), %rdx	# mx, tmp170
	movq	%rax, 56(%rdx)	# D.14887, mx_2->dmx_mem
	.loc 1 80 0
	movq	-8(%rbp), %rax	# mx, tmp171
	movq	(%rax), %rax	# mx_2->xmx, D.14888
	movq	-8(%rbp), %rdx	# mx, tmp172
	movq	32(%rdx), %rdx	# mx_2->xmx_mem, D.14887
	movq	%rdx, (%rax)	# D.14887, *_43
	.loc 1 81 0
	movq	-8(%rbp), %rax	# mx, tmp173
	movq	8(%rax), %rax	# mx_2->mmx, D.14888
	movq	-8(%rbp), %rdx	# mx, tmp174
	movq	40(%rdx), %rdx	# mx_2->mmx_mem, D.14887
	movq	%rdx, (%rax)	# D.14887, *_45
	.loc 1 82 0
	movq	-8(%rbp), %rax	# mx, tmp175
	movq	16(%rax), %rax	# mx_2->imx, D.14888
	movq	-8(%rbp), %rdx	# mx, tmp176
	movq	48(%rdx), %rdx	# mx_2->imx_mem, D.14887
	movq	%rdx, (%rax)	# D.14887, *_47
	.loc 1 83 0
	movq	-8(%rbp), %rax	# mx, tmp177
	movq	24(%rax), %rax	# mx_2->dmx, D.14888
	movq	-8(%rbp), %rdx	# mx, tmp178
	movq	56(%rdx), %rdx	# mx_2->dmx_mem, D.14887
	movq	%rdx, (%rax)	# D.14887, *_49
	.loc 1 84 0
	movl	$1, -12(%rbp)	#, i
	jmp	.L2	#
.L3:
	.loc 1 86 0 discriminator 2
	movq	-8(%rbp), %rax	# mx, tmp179
	movq	(%rax), %rax	# mx_2->xmx, D.14888
	movl	-12(%rbp), %edx	# i, tmp180
	movslq	%edx, %rdx	# tmp180, D.14886
	salq	$3, %rdx	#, D.14886
	leaq	(%rax,%rdx), %rcx	#, D.14888
	movq	-8(%rbp), %rax	# mx, tmp181
	movq	(%rax), %rax	# mx_2->xmx, D.14888
	movq	(%rax), %rsi	# *_56, D.14889
	movl	-12(%rbp), %eax	# i, tmp182
	movslq	%eax, %rdx	# tmp182, D.14886
	movq	%rdx, %rax	# D.14886, tmp183
	salq	$2, %rax	#, tmp183
	addq	%rdx, %rax	# D.14886, tmp183
	salq	$2, %rax	#, tmp184
	addq	%rsi, %rax	# D.14889, D.14889
	movq	%rax, (%rcx)	# D.14889, *_55
	.loc 1 87 0 discriminator 2
	movq	-8(%rbp), %rax	# mx, tmp185
	movq	8(%rax), %rax	# mx_2->mmx, D.14888
	movl	-12(%rbp), %edx	# i, tmp186
	movslq	%edx, %rdx	# tmp186, D.14886
	salq	$3, %rdx	#, D.14886
	addq	%rax, %rdx	# D.14888, D.14888
	movq	-8(%rbp), %rax	# mx, tmp187
	movq	8(%rax), %rax	# mx_2->mmx, D.14888
	movq	(%rax), %rax	# *_65, D.14889
	movl	-24(%rbp), %ecx	# M, tmp188
	addl	$2, %ecx	#, D.14885
	imull	-12(%rbp), %ecx	# i, D.14885
	movslq	%ecx, %rcx	# D.14885, D.14886
	salq	$2, %rcx	#, D.14886
	addq	%rcx, %rax	# D.14886, D.14889
	movq	%rax, (%rdx)	# D.14889, *_64
	.loc 1 88 0 discriminator 2
	movq	-8(%rbp), %rax	# mx, tmp189
	movq	16(%rax), %rax	# mx_2->imx, D.14888
	movl	-12(%rbp), %edx	# i, tmp190
	movslq	%edx, %rdx	# tmp190, D.14886
	salq	$3, %rdx	#, D.14886
	addq	%rax, %rdx	# D.14888, D.14888
	movq	-8(%rbp), %rax	# mx, tmp191
	movq	16(%rax), %rax	# mx_2->imx, D.14888
	movq	(%rax), %rax	# *_76, D.14889
	movl	-24(%rbp), %ecx	# M, tmp192
	addl	$2, %ecx	#, D.14885
	imull	-12(%rbp), %ecx	# i, D.14885
	movslq	%ecx, %rcx	# D.14885, D.14886
	salq	$2, %rcx	#, D.14886
	addq	%rcx, %rax	# D.14886, D.14889
	movq	%rax, (%rdx)	# D.14889, *_75
	.loc 1 89 0 discriminator 2
	movq	-8(%rbp), %rax	# mx, tmp193
	movq	24(%rax), %rax	# mx_2->dmx, D.14888
	movl	-12(%rbp), %edx	# i, tmp194
	movslq	%edx, %rdx	# tmp194, D.14886
	salq	$3, %rdx	#, D.14886
	addq	%rax, %rdx	# D.14888, D.14888
	movq	-8(%rbp), %rax	# mx, tmp195
	movq	24(%rax), %rax	# mx_2->dmx, D.14888
	movq	(%rax), %rax	# *_87, D.14889
	movl	-24(%rbp), %ecx	# M, tmp196
	addl	$2, %ecx	#, D.14885
	imull	-12(%rbp), %ecx	# i, D.14885
	movslq	%ecx, %rcx	# D.14885, D.14886
	salq	$2, %rcx	#, D.14886
	addq	%rcx, %rax	# D.14886, D.14889
	movq	%rax, (%rdx)	# D.14889, *_86
	.loc 1 84 0 discriminator 2
	addl	$1, -12(%rbp)	#, i
.L2:
	.loc 1 84 0 is_stmt 0 discriminator 1
	movl	-12(%rbp), %eax	# i, tmp197
	cmpl	-20(%rbp), %eax	# N, tmp197
	jle	.L3	#,
	.loc 1 92 0 is_stmt 1
	cmpl	$0, -32(%rbp)	#, padM
	jle	.L4	#,
	.loc 1 92 0 is_stmt 0 discriminator 1
	cmpl	$0, -28(%rbp)	#, padN
	jle	.L4	#,
	movl	$.LC1, %edi	#,
	movl	$0, %eax	#,
	call	Die	#
.L4:
	.loc 1 93 0 is_stmt 1
	movq	-8(%rbp), %rax	# mx, tmp198
	movl	-20(%rbp), %edx	# N, tmp199
	movl	%edx, 64(%rax)	# tmp199, mx_2->maxN
	.loc 1 94 0
	movq	-8(%rbp), %rax	# mx, tmp200
	movl	-24(%rbp), %edx	# M, tmp201
	movl	%edx, 68(%rax)	# tmp201, mx_2->maxM
	.loc 1 95 0
	movq	-8(%rbp), %rax	# mx, tmp202
	movl	-28(%rbp), %edx	# padN, tmp203
	movl	%edx, 72(%rax)	# tmp203, mx_2->padN
	.loc 1 96 0
	movq	-8(%rbp), %rax	# mx, tmp204
	movl	-32(%rbp), %edx	# padM, tmp205
	movl	%edx, 76(%rax)	# tmp205, mx_2->padM
	.loc 1 98 0
	movq	-8(%rbp), %rax	# mx, D.14890
	.loc 1 99 0
	leave
	.cfi_def_cfa 7, 8
	ret
	.cfi_endproc
.LFE2:
	.size	CreatePlan7Matrix, .-CreatePlan7Matrix
	.globl	ResizePlan7Matrix
	.type	ResizePlan7Matrix, @function
ResizePlan7Matrix:
.LFB3:
	.loc 1 125 0
	.cfi_startproc
	pushq	%rbp	#
	.cfi_def_cfa_offset 16
	.cfi_offset 6, -16
	movq	%rsp, %rbp	#,
	.cfi_def_cfa_register 6
	subq	$64, %rsp	#,
	movq	%rdi, -24(%rbp)	# mx, mx
	movl	%esi, -28(%rbp)	# N, N
	movl	%edx, -32(%rbp)	# M, M
	movq	%rcx, -40(%rbp)	# xmx, xmx
	movq	%r8, -48(%rbp)	# mmx, mmx
	movq	%r9, -56(%rbp)	# imx, imx
	.loc 1 128 0
	movq	-24(%rbp), %rax	# mx, tmp165
	movl	64(%rax), %eax	# mx_4(D)->maxN, D.14893
	cmpl	-28(%rbp), %eax	# N, D.14893
	jl	.L7	#,
	.loc 1 128 0 is_stmt 0 discriminator 1
	movq	-24(%rbp), %rax	# mx, tmp166
	movl	68(%rax), %eax	# mx_4(D)->maxM, D.14893
	cmpl	-32(%rbp), %eax	# M, D.14893
	jl	.L7	#,
	jmp	.L8	#
.L7:
	.loc 1 130 0 is_stmt 1
	movq	-24(%rbp), %rax	# mx, tmp167
	movl	64(%rax), %eax	# mx_4(D)->maxN, D.14893
	cmpl	-28(%rbp), %eax	# N, D.14893
	jge	.L9	#,
	.loc 1 131 0
	movq	-24(%rbp), %rax	# mx, tmp168
	movl	72(%rax), %eax	# mx_4(D)->padN, D.14893
	addl	%eax, -28(%rbp)	# D.14893, N
	.loc 1 132 0
	movq	-24(%rbp), %rax	# mx, tmp169
	movl	-28(%rbp), %edx	# N, tmp170
	movl	%edx, 64(%rax)	# tmp170, mx_4(D)->maxN
	.loc 1 133 0
	movl	-28(%rbp), %eax	# N, tmp171
	addl	$1, %eax	#, D.14893
	cltq
	leaq	0(,%rax,8), %rdx	#, D.14894
	movq	-24(%rbp), %rax	# mx, tmp172
	movq	(%rax), %rax	# mx_4(D)->xmx, D.14895
	movq	%rdx, %rcx	# D.14894,
	movq	%rax, %rdx	# D.14895,
	movl	$133, %esi	#,
	movl	$.LC0, %edi	#,
	call	sre_realloc	#
	movq	-24(%rbp), %rdx	# mx, tmp173
	movq	%rax, (%rdx)	# D.14896, mx_4(D)->xmx
	.loc 1 134 0
	movl	-28(%rbp), %eax	# N, tmp174
	addl	$1, %eax	#, D.14893
	cltq
	leaq	0(,%rax,8), %rdx	#, D.14894
	movq	-24(%rbp), %rax	# mx, tmp175
	movq	8(%rax), %rax	# mx_4(D)->mmx, D.14895
	movq	%rdx, %rcx	# D.14894,
	movq	%rax, %rdx	# D.14895,
	movl	$134, %esi	#,
	movl	$.LC0, %edi	#,
	call	sre_realloc	#
	movq	-24(%rbp), %rdx	# mx, tmp176
	movq	%rax, 8(%rdx)	# D.14896, mx_4(D)->mmx
	.loc 1 135 0
	movl	-28(%rbp), %eax	# N, tmp177
	addl	$1, %eax	#, D.14893
	cltq
	leaq	0(,%rax,8), %rdx	#, D.14894
	movq	-24(%rbp), %rax	# mx, tmp178
	movq	16(%rax), %rax	# mx_4(D)->imx, D.14895
	movq	%rdx, %rcx	# D.14894,
	movq	%rax, %rdx	# D.14895,
	movl	$135, %esi	#,
	movl	$.LC0, %edi	#,
	call	sre_realloc	#
	movq	-24(%rbp), %rdx	# mx, tmp179
	movq	%rax, 16(%rdx)	# D.14896, mx_4(D)->imx
	.loc 1 136 0
	movl	-28(%rbp), %eax	# N, tmp180
	addl	$1, %eax	#, D.14893
	cltq
	leaq	0(,%rax,8), %rdx	#, D.14894
	movq	-24(%rbp), %rax	# mx, tmp181
	movq	24(%rax), %rax	# mx_4(D)->dmx, D.14895
	movq	%rdx, %rcx	# D.14894,
	movq	%rax, %rdx	# D.14895,
	movl	$136, %esi	#,
	movl	$.LC0, %edi	#,
	call	sre_realloc	#
	movq	-24(%rbp), %rdx	# mx, tmp182
	movq	%rax, 24(%rdx)	# D.14896, mx_4(D)->dmx
.L9:
	.loc 1 139 0
	movq	-24(%rbp), %rax	# mx, tmp183
	movl	68(%rax), %eax	# mx_4(D)->maxM, D.14893
	cmpl	-32(%rbp), %eax	# M, D.14893
	jge	.L10	#,
	.loc 1 140 0
	movq	-24(%rbp), %rax	# mx, tmp184
	movl	76(%rax), %eax	# mx_4(D)->padM, D.14893
	addl	%eax, -32(%rbp)	# D.14893, M
	.loc 1 141 0
	movq	-24(%rbp), %rax	# mx, tmp185
	movl	-32(%rbp), %edx	# M, tmp186
	movl	%edx, 68(%rax)	# tmp186, mx_4(D)->maxM
.L10:
	.loc 1 144 0
	movl	-28(%rbp), %eax	# N, tmp187
	addl	$1, %eax	#, D.14893
	movslq	%eax, %rdx	# D.14893, D.14894
	movq	%rdx, %rax	# D.14894, tmp188
	salq	$2, %rax	#, tmp188
	addq	%rdx, %rax	# D.14894, tmp188
	salq	$2, %rax	#, tmp189
	movq	%rax, %rdx	# tmp188, D.14894
	movq	-24(%rbp), %rax	# mx, tmp190
	movq	32(%rax), %rax	# mx_4(D)->xmx_mem, D.14896
	movq	%rdx, %rcx	# D.14894,
	movq	%rax, %rdx	# D.14896,
	movl	$144, %esi	#,
	movl	$.LC0, %edi	#,
	call	sre_realloc	#
	movq	-24(%rbp), %rdx	# mx, tmp191
	movq	%rax, 32(%rdx)	# D.14896, mx_4(D)->xmx_mem
	.loc 1 145 0
	movl	-28(%rbp), %eax	# N, tmp192
	leal	1(%rax), %edx	#, D.14893
	movl	-32(%rbp), %eax	# M, tmp193
	addl	$2, %eax	#, D.14893
	imull	%edx, %eax	# D.14893, D.14893
	cltq
	leaq	0(,%rax,4), %rdx	#, D.14894
	movq	-24(%rbp), %rax	# mx, tmp194
	movq	40(%rax), %rax	# mx_4(D)->mmx_mem, D.14896
	movq	%rdx, %rcx	# D.14894,
	movq	%rax, %rdx	# D.14896,
	movl	$145, %esi	#,
	movl	$.LC0, %edi	#,
	call	sre_realloc	#
	movq	-24(%rbp), %rdx	# mx, tmp195
	movq	%rax, 40(%rdx)	# D.14896, mx_4(D)->mmx_mem
	.loc 1 146 0
	movl	-28(%rbp), %eax	# N, tmp196
	leal	1(%rax), %edx	#, D.14893
	movl	-32(%rbp), %eax	# M, tmp197
	addl	$2, %eax	#, D.14893
	imull	%edx, %eax	# D.14893, D.14893
	cltq
	leaq	0(,%rax,4), %rdx	#, D.14894
	movq	-24(%rbp), %rax	# mx, tmp198
	movq	48(%rax), %rax	# mx_4(D)->imx_mem, D.14896
	movq	%rdx, %rcx	# D.14894,
	movq	%rax, %rdx	# D.14896,
	movl	$146, %esi	#,
	movl	$.LC0, %edi	#,
	call	sre_realloc	#
	movq	-24(%rbp), %rdx	# mx, tmp199
	movq	%rax, 48(%rdx)	# D.14896, mx_4(D)->imx_mem
	.loc 1 147 0
	movl	-28(%rbp), %eax	# N, tmp200
	leal	1(%rax), %edx	#, D.14893
	movl	-32(%rbp), %eax	# M, tmp201
	addl	$2, %eax	#, D.14893
	imull	%edx, %eax	# D.14893, D.14893
	cltq
	leaq	0(,%rax,4), %rdx	#, D.14894
	movq	-24(%rbp), %rax	# mx, tmp202
	movq	56(%rax), %rax	# mx_4(D)->dmx_mem, D.14896
	movq	%rdx, %rcx	# D.14894,
	movq	%rax, %rdx	# D.14896,
	movl	$147, %esi	#,
	movl	$.LC0, %edi	#,
	call	sre_realloc	#
	movq	-24(%rbp), %rdx	# mx, tmp203
	movq	%rax, 56(%rdx)	# D.14896, mx_4(D)->dmx_mem
	.loc 1 149 0
	movq	-24(%rbp), %rax	# mx, tmp204
	movq	(%rax), %rax	# mx_4(D)->xmx, D.14895
	movq	-24(%rbp), %rdx	# mx, tmp205
	movq	32(%rdx), %rdx	# mx_4(D)->xmx_mem, D.14896
	movq	%rdx, (%rax)	# D.14896, *_61
	.loc 1 150 0
	movq	-24(%rbp), %rax	# mx, tmp206
	movq	8(%rax), %rax	# mx_4(D)->mmx, D.14895
	movq	-24(%rbp), %rdx	# mx, tmp207
	movq	40(%rdx), %rdx	# mx_4(D)->mmx_mem, D.14896
	movq	%rdx, (%rax)	# D.14896, *_63
	.loc 1 151 0
	movq	-24(%rbp), %rax	# mx, tmp208
	movq	16(%rax), %rax	# mx_4(D)->imx, D.14895
	movq	-24(%rbp), %rdx	# mx, tmp209
	movq	48(%rdx), %rdx	# mx_4(D)->imx_mem, D.14896
	movq	%rdx, (%rax)	# D.14896, *_65
	.loc 1 152 0
	movq	-24(%rbp), %rax	# mx, tmp210
	movq	24(%rax), %rax	# mx_4(D)->dmx, D.14895
	movq	-24(%rbp), %rdx	# mx, tmp211
	movq	56(%rdx), %rdx	# mx_4(D)->dmx_mem, D.14896
	movq	%rdx, (%rax)	# D.14896, *_67
	.loc 1 154 0
	movl	$1, -4(%rbp)	#, i
	jmp	.L11	#
.L12:
	.loc 1 156 0 discriminator 2
	movq	-24(%rbp), %rax	# mx, tmp212
	movq	(%rax), %rax	# mx_4(D)->xmx, D.14895
	movl	-4(%rbp), %edx	# i, tmp213
	movslq	%edx, %rdx	# tmp213, D.14894
	salq	$3, %rdx	#, D.14894
	leaq	(%rax,%rdx), %rcx	#, D.14895
	movq	-24(%rbp), %rax	# mx, tmp214
	movq	(%rax), %rax	# mx_4(D)->xmx, D.14895
	movq	(%rax), %rsi	# *_74, D.14897
	movl	-4(%rbp), %eax	# i, tmp215
	movslq	%eax, %rdx	# tmp215, D.14894
	movq	%rdx, %rax	# D.14894, tmp216
	salq	$2, %rax	#, tmp216
	addq	%rdx, %rax	# D.14894, tmp216
	salq	$2, %rax	#, tmp217
	addq	%rsi, %rax	# D.14897, D.14897
	movq	%rax, (%rcx)	# D.14897, *_73
	.loc 1 157 0 discriminator 2
	movq	-24(%rbp), %rax	# mx, tmp218
	movq	8(%rax), %rax	# mx_4(D)->mmx, D.14895
	movl	-4(%rbp), %edx	# i, tmp219
	movslq	%edx, %rdx	# tmp219, D.14894
	salq	$3, %rdx	#, D.14894
	addq	%rax, %rdx	# D.14895, D.14895
	movq	-24(%rbp), %rax	# mx, tmp220
	movq	8(%rax), %rax	# mx_4(D)->mmx, D.14895
	movq	(%rax), %rax	# *_83, D.14897
	movl	-32(%rbp), %ecx	# M, tmp221
	addl	$2, %ecx	#, D.14893
	imull	-4(%rbp), %ecx	# i, D.14893
	movslq	%ecx, %rcx	# D.14893, D.14894
	salq	$2, %rcx	#, D.14894
	addq	%rcx, %rax	# D.14894, D.14897
	movq	%rax, (%rdx)	# D.14897, *_82
	.loc 1 158 0 discriminator 2
	movq	-24(%rbp), %rax	# mx, tmp222
	movq	16(%rax), %rax	# mx_4(D)->imx, D.14895
	movl	-4(%rbp), %edx	# i, tmp223
	movslq	%edx, %rdx	# tmp223, D.14894
	salq	$3, %rdx	#, D.14894
	addq	%rax, %rdx	# D.14895, D.14895
	movq	-24(%rbp), %rax	# mx, tmp224
	movq	16(%rax), %rax	# mx_4(D)->imx, D.14895
	movq	(%rax), %rax	# *_94, D.14897
	movl	-32(%rbp), %ecx	# M, tmp225
	addl	$2, %ecx	#, D.14893
	imull	-4(%rbp), %ecx	# i, D.14893
	movslq	%ecx, %rcx	# D.14893, D.14894
	salq	$2, %rcx	#, D.14894
	addq	%rcx, %rax	# D.14894, D.14897
	movq	%rax, (%rdx)	# D.14897, *_93
	.loc 1 159 0 discriminator 2
	movq	-24(%rbp), %rax	# mx, tmp226
	movq	24(%rax), %rax	# mx_4(D)->dmx, D.14895
	movl	-4(%rbp), %edx	# i, tmp227
	movslq	%edx, %rdx	# tmp227, D.14894
	salq	$3, %rdx	#, D.14894
	addq	%rax, %rdx	# D.14895, D.14895
	movq	-24(%rbp), %rax	# mx, tmp228
	movq	24(%rax), %rax	# mx_4(D)->dmx, D.14895
	movq	(%rax), %rax	# *_105, D.14897
	movl	-32(%rbp), %ecx	# M, tmp229
	addl	$2, %ecx	#, D.14893
	imull	-4(%rbp), %ecx	# i, D.14893
	movslq	%ecx, %rcx	# D.14893, D.14894
	salq	$2, %rcx	#, D.14894
	addq	%rcx, %rax	# D.14894, D.14897
	movq	%rax, (%rdx)	# D.14897, *_104
	.loc 1 154 0 discriminator 2
	addl	$1, -4(%rbp)	#, i
.L11:
	.loc 1 154 0 is_stmt 0 discriminator 1
	movl	-4(%rbp), %eax	# i, tmp230
	cmpl	-28(%rbp), %eax	# N, tmp230
	jle	.L12	#,
.L8:
	.loc 1 163 0 is_stmt 1
	cmpq	$0, -40(%rbp)	#, xmx
	je	.L13	#,
	.loc 1 163 0 is_stmt 0 discriminator 1
	movq	-24(%rbp), %rax	# mx, tmp231
	movq	(%rax), %rdx	# mx_4(D)->xmx, D.14895
	movq	-40(%rbp), %rax	# xmx, tmp232
	movq	%rdx, (%rax)	# D.14895, *xmx_113(D)
.L13:
	.loc 1 164 0 is_stmt 1
	cmpq	$0, -48(%rbp)	#, mmx
	je	.L14	#,
	.loc 1 164 0 is_stmt 0 discriminator 1
	movq	-24(%rbp), %rax	# mx, tmp233
	movq	8(%rax), %rdx	# mx_4(D)->mmx, D.14895
	movq	-48(%rbp), %rax	# mmx, tmp234
	movq	%rdx, (%rax)	# D.14895, *mmx_115(D)
.L14:
	.loc 1 165 0 is_stmt 1
	cmpq	$0, -56(%rbp)	#, imx
	je	.L15	#,
	.loc 1 165 0 is_stmt 0 discriminator 1
	movq	-24(%rbp), %rax	# mx, tmp235
	movq	16(%rax), %rdx	# mx_4(D)->imx, D.14895
	movq	-56(%rbp), %rax	# imx, tmp236
	movq	%rdx, (%rax)	# D.14895, *imx_117(D)
.L15:
	.loc 1 166 0 is_stmt 1
	cmpq	$0, 16(%rbp)	#, dmx
	je	.L6	#,
	.loc 1 166 0 is_stmt 0 discriminator 1
	movq	-24(%rbp), %rax	# mx, tmp237
	movq	24(%rax), %rdx	# mx_4(D)->dmx, D.14895
	movq	16(%rbp), %rax	# dmx, tmp238
	movq	%rdx, (%rax)	# D.14895, *dmx_119(D)
.L6:
	.loc 1 167 0 is_stmt 1
	leave
	.cfi_def_cfa 7, 8
	ret
	.cfi_endproc
.LFE3:
	.size	ResizePlan7Matrix, .-ResizePlan7Matrix
	.globl	AllocPlan7Matrix
	.type	AllocPlan7Matrix, @function
AllocPlan7Matrix:
.LFB4:
	.loc 1 193 0
	.cfi_startproc
	pushq	%rbp	#
	.cfi_def_cfa_offset 16
	.cfi_offset 6, -16
	movq	%rsp, %rbp	#,
	.cfi_def_cfa_register 6
	subq	$64, %rsp	#,
	movl	%edi, -20(%rbp)	# rows, rows
	movl	%esi, -24(%rbp)	# M, M
	movq	%rdx, -32(%rbp)	# xmx, xmx
	movq	%rcx, -40(%rbp)	# mmx, mmx
	movq	%r8, -48(%rbp)	# imx, imx
	movq	%r9, -56(%rbp)	# dmx, dmx
	.loc 1 195 0
	movl	-20(%rbp), %eax	# rows, tmp66
	leal	-1(%rax), %edi	#, D.14898
	movl	-24(%rbp), %eax	# M, tmp67
	movl	$0, %ecx	#,
	movl	$0, %edx	#,
	movl	%eax, %esi	# tmp67,
	call	CreatePlan7Matrix	#
	movq	%rax, -8(%rbp)	# tmp68, mx
	.loc 1 196 0
	cmpq	$0, -32(%rbp)	#, xmx
	je	.L18	#,
	.loc 1 196 0 is_stmt 0 discriminator 1
	movq	-8(%rbp), %rax	# mx, tmp69
	movq	(%rax), %rdx	# mx_4->xmx, D.14899
	movq	-32(%rbp), %rax	# xmx, tmp70
	movq	%rdx, (%rax)	# D.14899, *xmx_5(D)
.L18:
	.loc 1 197 0 is_stmt 1
	cmpq	$0, -40(%rbp)	#, mmx
	je	.L19	#,
	.loc 1 197 0 is_stmt 0 discriminator 1
	movq	-8(%rbp), %rax	# mx, tmp71
	movq	8(%rax), %rdx	# mx_4->mmx, D.14899
	movq	-40(%rbp), %rax	# mmx, tmp72
	movq	%rdx, (%rax)	# D.14899, *mmx_7(D)
.L19:
	.loc 1 198 0 is_stmt 1
	cmpq	$0, -48(%rbp)	#, imx
	je	.L20	#,
	.loc 1 198 0 is_stmt 0 discriminator 1
	movq	-8(%rbp), %rax	# mx, tmp73
	movq	16(%rax), %rdx	# mx_4->imx, D.14899
	movq	-48(%rbp), %rax	# imx, tmp74
	movq	%rdx, (%rax)	# D.14899, *imx_9(D)
.L20:
	.loc 1 199 0 is_stmt 1
	cmpq	$0, -56(%rbp)	#, dmx
	je	.L21	#,
	.loc 1 199 0 is_stmt 0 discriminator 1
	movq	-8(%rbp), %rax	# mx, tmp75
	movq	24(%rax), %rdx	# mx_4->dmx, D.14899
	movq	-56(%rbp), %rax	# dmx, tmp76
	movq	%rdx, (%rax)	# D.14899, *dmx_11(D)
.L21:
	.loc 1 200 0 is_stmt 1
	movq	-8(%rbp), %rax	# mx, D.14900
	.loc 1 201 0
	leave
	.cfi_def_cfa 7, 8
	ret
	.cfi_endproc
.LFE4:
	.size	AllocPlan7Matrix, .-AllocPlan7Matrix
	.globl	FreePlan7Matrix
	.type	FreePlan7Matrix, @function
FreePlan7Matrix:
.LFB5:
	.loc 1 212 0
	.cfi_startproc
	pushq	%rbp	#
	.cfi_def_cfa_offset 16
	.cfi_offset 6, -16
	movq	%rsp, %rbp	#,
	.cfi_def_cfa_register 6
	subq	$16, %rsp	#,
	movq	%rdi, -8(%rbp)	# mx, mx
	.loc 1 213 0
	movq	-8(%rbp), %rax	# mx, tmp67
	movq	32(%rax), %rax	# mx_1(D)->xmx_mem, D.14901
	movq	%rax, %rdi	# D.14901,
	call	free	#
	.loc 1 214 0
	movq	-8(%rbp), %rax	# mx, tmp68
	movq	40(%rax), %rax	# mx_1(D)->mmx_mem, D.14901
	movq	%rax, %rdi	# D.14901,
	call	free	#
	.loc 1 215 0
	movq	-8(%rbp), %rax	# mx, tmp69
	movq	48(%rax), %rax	# mx_1(D)->imx_mem, D.14901
	movq	%rax, %rdi	# D.14901,
	call	free	#
	.loc 1 216 0
	movq	-8(%rbp), %rax	# mx, tmp70
	movq	56(%rax), %rax	# mx_1(D)->dmx_mem, D.14901
	movq	%rax, %rdi	# D.14901,
	call	free	#
	.loc 1 217 0
	movq	-8(%rbp), %rax	# mx, tmp71
	movq	(%rax), %rax	# mx_1(D)->xmx, D.14902
	movq	%rax, %rdi	# D.14902,
	call	free	#
	.loc 1 218 0
	movq	-8(%rbp), %rax	# mx, tmp72
	movq	8(%rax), %rax	# mx_1(D)->mmx, D.14902
	movq	%rax, %rdi	# D.14902,
	call	free	#
	.loc 1 219 0
	movq	-8(%rbp), %rax	# mx, tmp73
	movq	16(%rax), %rax	# mx_1(D)->imx, D.14902
	movq	%rax, %rdi	# D.14902,
	call	free	#
	.loc 1 220 0
	movq	-8(%rbp), %rax	# mx, tmp74
	movq	24(%rax), %rax	# mx_1(D)->dmx, D.14902
	movq	%rax, %rdi	# D.14902,
	call	free	#
	.loc 1 221 0
	movq	-8(%rbp), %rax	# mx, tmp75
	movq	%rax, %rdi	# tmp75,
	call	free	#
	.loc 1 222 0
	leave
	.cfi_def_cfa 7, 8
	ret
	.cfi_endproc
.LFE5:
	.size	FreePlan7Matrix, .-FreePlan7Matrix
	.globl	AllocShadowMatrix
	.type	AllocShadowMatrix, @function
AllocShadowMatrix:
.LFB6:
	.loc 1 240 0
	.cfi_startproc
	pushq	%rbp	#
	.cfi_def_cfa_offset 16
	.cfi_offset 6, -16
	movq	%rsp, %rbp	#,
	.cfi_def_cfa_register 6
	pushq	%rbx	#
	subq	$72, %rsp	#,
	.cfi_offset 3, -24
	movl	%edi, -36(%rbp)	# rows, rows
	movl	%esi, -40(%rbp)	# M, M
	movq	%rdx, -48(%rbp)	# xtb, xtb
	movq	%rcx, -56(%rbp)	# mtb, mtb
	movq	%r8, -64(%rbp)	# itb, itb
	movq	%r9, -72(%rbp)	# dtb, dtb
	.loc 1 244 0
	movl	$40, %edx	#,
	movl	$244, %esi	#,
	movl	$.LC0, %edi	#,
	call	sre_malloc	#
	movq	%rax, -24(%rbp)	# tmp138, tb
	.loc 1 245 0
	movl	-36(%rbp), %eax	# rows, tmp139
	cltq
	salq	$3, %rax	#, D.14903
	movq	%rax, %rdx	# D.14903,
	movl	$245, %esi	#,
	movl	$.LC0, %edi	#,
	call	sre_malloc	#
	movq	-24(%rbp), %rdx	# tb, tmp140
	movq	%rax, (%rdx)	# D.14904, tb_2->xtb
	.loc 1 246 0
	movl	-36(%rbp), %eax	# rows, tmp141
	cltq
	salq	$3, %rax	#, D.14903
	movq	%rax, %rdx	# D.14903,
	movl	$246, %esi	#,
	movl	$.LC0, %edi	#,
	call	sre_malloc	#
	movq	-24(%rbp), %rdx	# tb, tmp142
	movq	%rax, 8(%rdx)	# D.14904, tb_2->mtb
	.loc 1 247 0
	movl	-36(%rbp), %eax	# rows, tmp143
	cltq
	salq	$3, %rax	#, D.14903
	movq	%rax, %rdx	# D.14903,
	movl	$247, %esi	#,
	movl	$.LC0, %edi	#,
	call	sre_malloc	#
	movq	-24(%rbp), %rdx	# tb, tmp144
	movq	%rax, 16(%rdx)	# D.14904, tb_2->itb
	.loc 1 248 0
	movl	-36(%rbp), %eax	# rows, tmp145
	cltq
	salq	$3, %rax	#, D.14903
	movq	%rax, %rdx	# D.14903,
	movl	$248, %esi	#,
	movl	$.LC0, %edi	#,
	call	sre_malloc	#
	movq	-24(%rbp), %rdx	# tb, tmp146
	movq	%rax, 24(%rdx)	# D.14904, tb_2->dtb
	.loc 1 249 0
	movl	-36(%rbp), %eax	# rows, tmp147
	cltq
	salq	$2, %rax	#, D.14903
	movq	%rax, %rdx	# D.14903,
	movl	$249, %esi	#,
	movl	$.LC0, %edi	#,
	call	sre_malloc	#
	movq	-24(%rbp), %rdx	# tb, tmp148
	movq	%rax, 32(%rdx)	# D.14904, tb_2->esrc
	.loc 1 250 0
	movq	-24(%rbp), %rax	# tb, tmp149
	movq	(%rax), %rbx	# tb_2->xtb, D.14905
	movl	-36(%rbp), %edx	# rows, tmp150
	movl	%edx, %eax	# tmp150, tmp151
	sall	$2, %eax	#, tmp151
	addl	%edx, %eax	# tmp150, D.14906
	cltq
	movq	%rax, %rdx	# D.14903,
	movl	$250, %esi	#,
	movl	$.LC0, %edi	#,
	call	sre_malloc	#
	movq	%rax, (%rbx)	# D.14904, *_19
	.loc 1 251 0
	movq	-24(%rbp), %rax	# tb, tmp152
	movq	8(%rax), %rbx	# tb_2->mtb, D.14905
	movl	-40(%rbp), %eax	# M, tmp153
	addl	$2, %eax	#, D.14906
	imull	-36(%rbp), %eax	# rows, D.14906
	cltq
	movq	%rax, %rdx	# D.14903,
	movl	$251, %esi	#,
	movl	$.LC0, %edi	#,
	call	sre_malloc	#
	movq	%rax, (%rbx)	# D.14904, *_23
	.loc 1 252 0
	movq	-24(%rbp), %rax	# tb, tmp154
	movq	16(%rax), %rbx	# tb_2->itb, D.14905
	movl	-40(%rbp), %eax	# M, tmp155
	addl	$2, %eax	#, D.14906
	imull	-36(%rbp), %eax	# rows, D.14906
	cltq
	movq	%rax, %rdx	# D.14903,
	movl	$252, %esi	#,
	movl	$.LC0, %edi	#,
	call	sre_malloc	#
	movq	%rax, (%rbx)	# D.14904, *_29
	.loc 1 253 0
	movq	-24(%rbp), %rax	# tb, tmp156
	movq	24(%rax), %rbx	# tb_2->dtb, D.14905
	movl	-40(%rbp), %eax	# M, tmp157
	addl	$2, %eax	#, D.14906
	imull	-36(%rbp), %eax	# rows, D.14906
	cltq
	movq	%rax, %rdx	# D.14903,
	movl	$253, %esi	#,
	movl	$.LC0, %edi	#,
	call	sre_malloc	#
	movq	%rax, (%rbx)	# D.14904, *_34
	.loc 1 254 0
	movl	$1, -28(%rbp)	#, i
	jmp	.L25	#
.L26:
	.loc 1 256 0 discriminator 2
	movq	-24(%rbp), %rax	# tb, tmp158
	movq	(%rax), %rax	# tb_2->xtb, D.14905
	movl	-28(%rbp), %edx	# i, tmp159
	movslq	%edx, %rdx	# tmp159, D.14903
	salq	$3, %rdx	#, D.14903
	leaq	(%rax,%rdx), %rcx	#, D.14905
	movq	-24(%rbp), %rax	# tb, tmp160
	movq	(%rax), %rax	# tb_2->xtb, D.14905
	movq	(%rax), %rsi	# *_44, D.14907
	movl	-28(%rbp), %edx	# i, tmp161
	movl	%edx, %eax	# tmp161, tmp162
	sall	$2, %eax	#, tmp162
	addl	%edx, %eax	# tmp161, D.14906
	cltq
	addq	%rsi, %rax	# D.14907, D.14907
	movq	%rax, (%rcx)	# D.14907, *_43
	.loc 1 257 0 discriminator 2
	movq	-24(%rbp), %rax	# tb, tmp163
	movq	8(%rax), %rax	# tb_2->mtb, D.14905
	movl	-28(%rbp), %edx	# i, tmp164
	movslq	%edx, %rdx	# tmp164, D.14903
	salq	$3, %rdx	#, D.14903
	addq	%rax, %rdx	# D.14905, D.14905
	movq	-24(%rbp), %rax	# tb, tmp165
	movq	8(%rax), %rax	# tb_2->mtb, D.14905
	movq	(%rax), %rcx	# *_53, D.14907
	movl	-40(%rbp), %eax	# M, tmp166
	addl	$2, %eax	#, D.14906
	imull	-28(%rbp), %eax	# i, D.14906
	cltq
	addq	%rcx, %rax	# D.14907, D.14907
	movq	%rax, (%rdx)	# D.14907, *_52
	.loc 1 258 0 discriminator 2
	movq	-24(%rbp), %rax	# tb, tmp167
	movq	16(%rax), %rax	# tb_2->itb, D.14905
	movl	-28(%rbp), %edx	# i, tmp168
	movslq	%edx, %rdx	# tmp168, D.14903
	salq	$3, %rdx	#, D.14903
	addq	%rax, %rdx	# D.14905, D.14905
	movq	-24(%rbp), %rax	# tb, tmp169
	movq	16(%rax), %rax	# tb_2->itb, D.14905
	movq	(%rax), %rcx	# *_63, D.14907
	movl	-40(%rbp), %eax	# M, tmp170
	addl	$2, %eax	#, D.14906
	imull	-28(%rbp), %eax	# i, D.14906
	cltq
	addq	%rcx, %rax	# D.14907, D.14907
	movq	%rax, (%rdx)	# D.14907, *_62
	.loc 1 259 0 discriminator 2
	movq	-24(%rbp), %rax	# tb, tmp171
	movq	24(%rax), %rax	# tb_2->dtb, D.14905
	movl	-28(%rbp), %edx	# i, tmp172
	movslq	%edx, %rdx	# tmp172, D.14903
	salq	$3, %rdx	#, D.14903
	addq	%rax, %rdx	# D.14905, D.14905
	movq	-24(%rbp), %rax	# tb, tmp173
	movq	24(%rax), %rax	# tb_2->dtb, D.14905
	movq	(%rax), %rcx	# *_73, D.14907
	movl	-40(%rbp), %eax	# M, tmp174
	addl	$2, %eax	#, D.14906
	imull	-28(%rbp), %eax	# i, D.14906
	cltq
	addq	%rcx, %rax	# D.14907, D.14907
	movq	%rax, (%rdx)	# D.14907, *_72
	.loc 1 254 0 discriminator 2
	addl	$1, -28(%rbp)	#, i
.L25:
	.loc 1 254 0 is_stmt 0 discriminator 1
	movl	-28(%rbp), %eax	# i, tmp175
	cmpl	-36(%rbp), %eax	# rows, tmp175
	jl	.L26	#,
	.loc 1 262 0 is_stmt 1
	cmpq	$0, -48(%rbp)	#, xtb
	je	.L27	#,
	.loc 1 262 0 is_stmt 0 discriminator 1
	movq	-24(%rbp), %rax	# tb, tmp176
	movq	(%rax), %rdx	# tb_2->xtb, D.14905
	movq	-48(%rbp), %rax	# xtb, tmp177
	movq	%rdx, (%rax)	# D.14905, *xtb_80(D)
.L27:
	.loc 1 263 0 is_stmt 1
	cmpq	$0, -56(%rbp)	#, mtb
	je	.L28	#,
	.loc 1 263 0 is_stmt 0 discriminator 1
	movq	-24(%rbp), %rax	# tb, tmp178
	movq	8(%rax), %rdx	# tb_2->mtb, D.14905
	movq	-56(%rbp), %rax	# mtb, tmp179
	movq	%rdx, (%rax)	# D.14905, *mtb_82(D)
.L28:
	.loc 1 264 0 is_stmt 1
	cmpq	$0, -64(%rbp)	#, itb
	je	.L29	#,
	.loc 1 264 0 is_stmt 0 discriminator 1
	movq	-24(%rbp), %rax	# tb, tmp180
	movq	16(%rax), %rdx	# tb_2->itb, D.14905
	movq	-64(%rbp), %rax	# itb, tmp181
	movq	%rdx, (%rax)	# D.14905, *itb_84(D)
.L29:
	.loc 1 265 0 is_stmt 1
	cmpq	$0, -72(%rbp)	#, dtb
	je	.L30	#,
	.loc 1 265 0 is_stmt 0 discriminator 1
	movq	-24(%rbp), %rax	# tb, tmp182
	movq	24(%rax), %rdx	# tb_2->dtb, D.14905
	movq	-72(%rbp), %rax	# dtb, tmp183
	movq	%rdx, (%rax)	# D.14905, *dtb_86(D)
.L30:
	.loc 1 266 0 is_stmt 1
	movq	-24(%rbp), %rax	# tb, D.14909
	.loc 1 267 0
	addq	$72, %rsp	#,
	popq	%rbx	#
	popq	%rbp	#
	.cfi_def_cfa 7, 8
	ret
	.cfi_endproc
.LFE6:
	.size	AllocShadowMatrix, .-AllocShadowMatrix
	.globl	FreeShadowMatrix
	.type	FreeShadowMatrix, @function
FreeShadowMatrix:
.LFB7:
	.loc 1 277 0
	.cfi_startproc
	pushq	%rbp	#
	.cfi_def_cfa_offset 16
	.cfi_offset 6, -16
	movq	%rsp, %rbp	#,
	.cfi_def_cfa_register 6
	subq	$16, %rsp	#,
	movq	%rdi, -8(%rbp)	# tb, tb
	.loc 1 278 0
	movq	-8(%rbp), %rax	# tb, tmp72
	movq	(%rax), %rax	# tb_1(D)->xtb, D.14910
	movq	(%rax), %rax	# *_2, D.14911
	movq	%rax, %rdi	# D.14911,
	call	free	#
	.loc 1 279 0
	movq	-8(%rbp), %rax	# tb, tmp73
	movq	8(%rax), %rax	# tb_1(D)->mtb, D.14910
	movq	(%rax), %rax	# *_4, D.14911
	movq	%rax, %rdi	# D.14911,
	call	free	#
	.loc 1 280 0
	movq	-8(%rbp), %rax	# tb, tmp74
	movq	16(%rax), %rax	# tb_1(D)->itb, D.14910
	movq	(%rax), %rax	# *_6, D.14911
	movq	%rax, %rdi	# D.14911,
	call	free	#
	.loc 1 281 0
	movq	-8(%rbp), %rax	# tb, tmp75
	movq	24(%rax), %rax	# tb_1(D)->dtb, D.14910
	movq	(%rax), %rax	# *_8, D.14911
	movq	%rax, %rdi	# D.14911,
	call	free	#
	.loc 1 282 0
	movq	-8(%rbp), %rax	# tb, tmp76
	movq	32(%rax), %rax	# tb_1(D)->esrc, D.14912
	movq	%rax, %rdi	# D.14912,
	call	free	#
	.loc 1 283 0
	movq	-8(%rbp), %rax	# tb, tmp77
	movq	(%rax), %rax	# tb_1(D)->xtb, D.14910
	movq	%rax, %rdi	# D.14910,
	call	free	#
	.loc 1 284 0
	movq	-8(%rbp), %rax	# tb, tmp78
	movq	8(%rax), %rax	# tb_1(D)->mtb, D.14910
	movq	%rax, %rdi	# D.14910,
	call	free	#
	.loc 1 285 0
	movq	-8(%rbp), %rax	# tb, tmp79
	movq	16(%rax), %rax	# tb_1(D)->itb, D.14910
	movq	%rax, %rdi	# D.14910,
	call	free	#
	.loc 1 286 0
	movq	-8(%rbp), %rax	# tb, tmp80
	movq	24(%rax), %rax	# tb_1(D)->dtb, D.14910
	movq	%rax, %rdi	# D.14910,
	call	free	#
	.loc 1 287 0
	movq	-8(%rbp), %rax	# tb, tmp81
	movq	%rax, %rdi	# tmp81,
	call	free	#
	.loc 1 288 0
	leave
	.cfi_def_cfa 7, 8
	ret
	.cfi_endproc
.LFE7:
	.size	FreeShadowMatrix, .-FreeShadowMatrix
	.globl	P7ViterbiSize
	.type	P7ViterbiSize, @function
P7ViterbiSize:
.LFB8:
	.loc 1 308 0
	.cfi_startproc
	pushq	%rbp	#
	.cfi_def_cfa_offset 16
	.cfi_offset 6, -16
	movq	%rsp, %rbp	#,
	.cfi_def_cfa_register 6
	movl	%edi, -20(%rbp)	# L, L
	movl	%esi, -24(%rbp)	# M, M
	.loc 1 318 0
	movl	.LC2(%rip), %eax	#, tmp86
	movl	%eax, -4(%rbp)	# tmp86, Mbytes
	.loc 1 319 0
	movss	-4(%rbp), %xmm1	# Mbytes, D.14913
	cvtps2pd	%xmm1, %xmm1	# D.14913, D.14913
	movl	-20(%rbp), %eax	# L, tmp87
	addl	$1, %eax	#, D.14914
	cvtsi2ss	%eax, %xmm0	# D.14914, D.14915
	unpcklps	%xmm0, %xmm0	# D.14915, D.14915
	cvtps2pd	%xmm0, %xmm0	# D.14915, D.14913
	movsd	.LC3(%rip), %xmm2	#, tmp88
	mulsd	%xmm0, %xmm2	# D.14913, D.14913
	movl	-24(%rbp), %eax	# M, tmp89
	addl	$2, %eax	#, D.14914
	cvtsi2ss	%eax, %xmm0	# D.14914, D.14915
	unpcklps	%xmm0, %xmm0	# D.14915, D.14915
	cvtps2pd	%xmm0, %xmm0	# D.14915, D.14913
	mulsd	%xmm2, %xmm0	# D.14913, D.14913
	movsd	.LC4(%rip), %xmm2	#, tmp90
	mulsd	%xmm2, %xmm0	# tmp90, D.14913
	addsd	%xmm1, %xmm0	# D.14913, D.14913
	unpcklpd	%xmm0, %xmm0	# D.14913
	cvtpd2ps	%xmm0, %xmm3	# D.14913, tmp102
	movss	%xmm3, -4(%rbp)	# tmp102, Mbytes
	.loc 1 320 0
	movss	-4(%rbp), %xmm1	# Mbytes, D.14913
	cvtps2pd	%xmm1, %xmm1	# D.14913, D.14913
	movl	-20(%rbp), %eax	# L, tmp91
	addl	$1, %eax	#, D.14914
	cvtsi2ss	%eax, %xmm0	# D.14914, D.14915
	unpcklps	%xmm0, %xmm0	# D.14915, D.14915
	cvtps2pd	%xmm0, %xmm0	# D.14915, D.14913
	movsd	.LC4(%rip), %xmm2	#, tmp92
	mulsd	%xmm2, %xmm0	# tmp92, D.14913
	movsd	.LC5(%rip), %xmm2	#, tmp93
	mulsd	%xmm2, %xmm0	# tmp93, D.14913
	addsd	%xmm1, %xmm0	# D.14913, D.14913
	unpcklpd	%xmm0, %xmm0	# D.14913
	cvtpd2ps	%xmm0, %xmm4	# D.14913, tmp103
	movss	%xmm4, -4(%rbp)	# tmp103, Mbytes
	.loc 1 321 0
	movss	-4(%rbp), %xmm1	# Mbytes, D.14913
	cvtps2pd	%xmm1, %xmm1	# D.14913, D.14913
	movl	-20(%rbp), %eax	# L, tmp94
	addl	$1, %eax	#, D.14914
	cvtsi2ss	%eax, %xmm0	# D.14914, D.14915
	unpcklps	%xmm0, %xmm0	# D.14915, D.14915
	cvtps2pd	%xmm0, %xmm0	# D.14915, D.14913
	movsd	.LC6(%rip), %xmm2	#, tmp95
	mulsd	%xmm2, %xmm0	# tmp95, D.14913
	movsd	.LC4(%rip), %xmm2	#, tmp96
	mulsd	%xmm2, %xmm0	# tmp96, D.14913
	addsd	%xmm1, %xmm0	# D.14913, D.14913
	unpcklpd	%xmm0, %xmm0	# D.14913
	cvtpd2ps	%xmm0, %xmm5	# D.14913, tmp104
	movss	%xmm5, -4(%rbp)	# tmp104, Mbytes
	.loc 1 322 0
	movss	-4(%rbp), %xmm0	# Mbytes, tmp98
	movss	.LC7(%rip), %xmm1	#, tmp99
	divss	%xmm1, %xmm0	# tmp99, tmp97
	movss	%xmm0, -4(%rbp)	# tmp97, Mbytes
	.loc 1 323 0
	movss	-4(%rbp), %xmm0	# Mbytes, tmp100
	cvttss2si	%xmm0, %eax	# tmp100, D.14914
	.loc 1 324 0
	popq	%rbp	#
	.cfi_def_cfa 7, 8
	ret
	.cfi_endproc
.LFE8:
	.size	P7ViterbiSize, .-P7ViterbiSize
	.globl	P7SmallViterbiSize
	.type	P7SmallViterbiSize, @function
P7SmallViterbiSize:
.LFB9:
	.loc 1 348 0
	.cfi_startproc
	pushq	%rbp	#
	.cfi_def_cfa_offset 16
	.cfi_offset 6, -16
	movq	%rsp, %rbp	#,
	.cfi_def_cfa_register 6
	movl	%edi, -4(%rbp)	# L, L
	movl	%esi, -8(%rbp)	# M, M
	.loc 1 350 0
	movl	-8(%rbp), %eax	# M, tmp70
	addl	$2, %eax	#, D.14916
	.loc 1 352 0
	movslq	%eax, %rdx	# D.14916, D.14917
	movq	%rdx, %rax	# D.14917, tmp71
	addq	%rax, %rax	# tmp71
	addq	%rdx, %rax	# D.14917, tmp71
	addq	%rax, %rax	# tmp72
	movq	%rax, %rdx	# tmp71, D.14917
	.loc 1 353 0
	movl	-4(%rbp), %eax	# L, tmp73
	addl	$1, %eax	#, D.14916
	.loc 1 352 0
	cltq
	addq	%rdx, %rax	# D.14917, D.14917
	addq	$46, %rax	#, D.14917
	salq	$3, %rax	#, D.14917
	.loc 1 354 0
	movabsq	$4835703278458516699, %rdx	#, tmp75
	mulq	%rdx	# tmp75
	movq	%rdx, %rax	# tmp74, D.14917
	shrq	$18, %rax	#, D.14917
	.loc 1 355 0
	popq	%rbp	#
	.cfi_def_cfa 7, 8
	ret
	.cfi_endproc
.LFE9:
	.size	P7SmallViterbiSize, .-P7SmallViterbiSize
	.globl	P7WeeViterbiSize
	.type	P7WeeViterbiSize, @function
P7WeeViterbiSize:
.LFB10:
	.loc 1 371 0
	.cfi_startproc
	pushq	%rbp	#
	.cfi_def_cfa_offset 16
	.cfi_offset 6, -16
	movq	%rsp, %rbp	#,
	.cfi_def_cfa_register 6
	movl	%edi, -4(%rbp)	# L, L
	movl	%esi, -8(%rbp)	# M, M
	.loc 1 373 0
	movl	-8(%rbp), %eax	# M, tmp77
	addl	$2, %eax	#, D.14918
	.loc 1 375 0
	movslq	%eax, %rdx	# D.14918, D.14919
	movq	%rdx, %rax	# D.14919, tmp78
	addq	%rax, %rax	# tmp78
	addq	%rdx, %rax	# D.14919, tmp78
	addq	%rax, %rax	# tmp79
	movq	%rax, %rdx	# tmp78, D.14919
	.loc 1 376 0
	movl	-4(%rbp), %eax	# L, tmp80
	addl	$2, %eax	#, D.14918
	.loc 1 375 0
	cltq
	addq	%rdx, %rax	# D.14919, D.14919
	.loc 1 376 0
	addq	$46, %rax	#, D.14919
	leaq	(%rax,%rax), %rdx	#, D.14919
	.loc 1 377 0
	movl	-4(%rbp), %eax	# L, tmp81
	addl	$2, %eax	#, D.14918
	.loc 1 376 0
	cltq
	addq	%rdx, %rax	# D.14919, D.14919
	leaq	0(,%rax,4), %rdx	#, D.14919
	.loc 1 378 0
	movl	-4(%rbp), %eax	# L, tmp82
	addl	$2, %eax	#, D.14918
	cltq
	.loc 1 377 0
	addq	%rdx, %rax	# D.14919, D.14919
	.loc 1 379 0
	movabsq	$4835703278458516699, %rdx	#, tmp84
	mulq	%rdx	# tmp84
	movq	%rdx, %rax	# tmp83, D.14919
	shrq	$18, %rax	#, D.14919
	.loc 1 380 0
	popq	%rbp	#
	.cfi_def_cfa 7, 8
	ret
	.cfi_endproc
.LFE10:
	.size	P7WeeViterbiSize, .-P7WeeViterbiSize
	.globl	P7Forward
	.type	P7Forward, @function
P7Forward:
.LFB11:
	.loc 1 398 0
	.cfi_startproc
	pushq	%rbp	#
	.cfi_def_cfa_offset 16
	.cfi_offset 6, -16
	movq	%rsp, %rbp	#,
	.cfi_def_cfa_register 6
	pushq	%r12	#
	pushq	%rbx	#
	subq	$96, %rsp	#,
	.cfi_offset 12, -24
	.cfi_offset 3, -32
	movq	%rdi, -88(%rbp)	# dsq, dsq
	movl	%esi, -92(%rbp)	# L, L
	movq	%rdx, -104(%rbp)	# hmm, hmm
	movq	%rcx, -112(%rbp)	# ret_mx, ret_mx
	.loc 1 409 0
	movq	-104(%rbp), %rax	# hmm, tmp612
	movl	136(%rax), %eax	# hmm_5(D)->M, D.14920
	movl	-92(%rbp), %edx	# L, tmp613
	leal	1(%rdx), %edi	#, D.14920
	leaq	-32(%rbp), %r8	#, tmp614
	leaq	-40(%rbp), %rsi	#, tmp615
	leaq	-48(%rbp), %rcx	#, tmp616
	leaq	-56(%rbp), %rdx	#, tmp617
	movq	%r8, %r9	# tmp614,
	movq	%rsi, %r8	# tmp615,
	movl	%eax, %esi	# D.14920,
	call	AllocPlan7Matrix	#
	movq	%rax, -24(%rbp)	# tmp618, mx
	.loc 1 416 0
	movq	-56(%rbp), %rax	# xmx, xmx.0
	movq	(%rax), %rax	# *xmx.0_10, D.14921
	addq	$16, %rax	#, D.14921
	movl	$0, (%rax)	#, *_12
	.loc 1 417 0
	movq	-56(%rbp), %rax	# xmx, xmx.1
	movq	(%rax), %rax	# *xmx.1_13, D.14921
	movq	-104(%rbp), %rdx	# hmm, tmp619
	movl	336(%rdx), %edx	# hmm_5(D)->xsc, D.14920
	movl	%edx, (%rax)	# D.14920, *_14
	.loc 1 418 0
	movq	-56(%rbp), %rax	# xmx, xmx.2
	movq	(%rax), %rax	# *xmx.2_16, D.14921
	leaq	4(%rax), %rcx	#, D.14921
	movq	-56(%rbp), %rax	# xmx, xmx.3
	movq	(%rax), %rax	# *xmx.3_19, D.14921
	addq	$8, %rax	#, D.14921
	movq	-56(%rbp), %rdx	# xmx, xmx.4
	movq	(%rdx), %rdx	# *xmx.4_22, D.14921
	addq	$12, %rdx	#, D.14921
	movl	$-987654321, (%rdx)	#, *_24
	movl	(%rdx), %edx	# *_24, D.14920
	movl	%edx, (%rax)	# D.14920, *_21
	movl	(%rax), %eax	# *_21, D.14920
	movl	%eax, (%rcx)	# D.14920, *_18
	.loc 1 419 0
	movl	$0, -64(%rbp)	#, k
	jmp	.L40	#
.L41:
	.loc 1 420 0 discriminator 2
	movq	-48(%rbp), %rax	# mmx, mmx.5
	movq	(%rax), %rax	# *mmx.5_29, D.14921
	movl	-64(%rbp), %edx	# k, tmp620
	movslq	%edx, %rdx	# tmp620, D.14922
	salq	$2, %rdx	#, D.14922
	leaq	(%rax,%rdx), %rcx	#, D.14921
	movq	-40(%rbp), %rax	# imx, imx.6
	movq	(%rax), %rax	# *imx.6_34, D.14921
	movl	-64(%rbp), %edx	# k, tmp621
	movslq	%edx, %rdx	# tmp621, D.14922
	salq	$2, %rdx	#, D.14922
	addq	%rdx, %rax	# D.14922, D.14921
	movq	-32(%rbp), %rdx	# dmx, dmx.7
	movq	(%rdx), %rdx	# *dmx.7_39, D.14921
	movl	-64(%rbp), %esi	# k, tmp622
	movslq	%esi, %rsi	# tmp622, D.14922
	salq	$2, %rsi	#, D.14922
	addq	%rsi, %rdx	# D.14922, D.14921
	movl	$-987654321, (%rdx)	#, *_43
	movl	(%rdx), %edx	# *_43, D.14920
	movl	%edx, (%rax)	# D.14920, *_38
	movl	(%rax), %eax	# *_38, D.14920
	movl	%eax, (%rcx)	# D.14920, *_33
	.loc 1 419 0 discriminator 2
	addl	$1, -64(%rbp)	#, k
.L40:
	.loc 1 419 0 is_stmt 0 discriminator 1
	movq	-104(%rbp), %rax	# hmm, tmp623
	movl	136(%rax), %eax	# hmm_5(D)->M, D.14920
	cmpl	-64(%rbp), %eax	# k, D.14920
	jge	.L41	#,
	.loc 1 427 0 is_stmt 1
	movl	$1, -68(%rbp)	#, i
	jmp	.L42	#
.L47:
	.loc 1 429 0
	movq	-48(%rbp), %rax	# mmx, mmx.8
	movl	-68(%rbp), %edx	# i, tmp624
	movslq	%edx, %rdx	# tmp624, D.14922
	salq	$3, %rdx	#, D.14922
	addq	%rdx, %rax	# D.14922, D.14923
	movq	(%rax), %rcx	# *_51, D.14921
	movq	-40(%rbp), %rax	# imx, imx.9
	movl	-68(%rbp), %edx	# i, tmp625
	movslq	%edx, %rdx	# tmp625, D.14922
	salq	$3, %rdx	#, D.14922
	addq	%rdx, %rax	# D.14922, D.14923
	movq	(%rax), %rax	# *_56, D.14921
	movq	-32(%rbp), %rdx	# dmx, dmx.10
	movl	-68(%rbp), %esi	# i, tmp626
	movslq	%esi, %rsi	# tmp626, D.14922
	salq	$3, %rsi	#, D.14922
	addq	%rsi, %rdx	# D.14922, D.14923
	movq	(%rdx), %rdx	# *_61, D.14921
	movl	$-987654321, (%rdx)	#, *_62
	movl	(%rdx), %edx	# *_62, D.14920
	movl	%edx, (%rax)	# D.14920, *_57
	movl	(%rax), %eax	# *_57, D.14920
	movl	%eax, (%rcx)	# D.14920, *_52
	.loc 1 430 0
	movl	$1, -64(%rbp)	#, k
	jmp	.L43	#
.L44:
	.loc 1 432 0 discriminator 2
	movq	-48(%rbp), %rax	# mmx, mmx.11
	movl	-68(%rbp), %edx	# i, tmp627
	movslq	%edx, %rdx	# tmp627, D.14922
	salq	$3, %rdx	#, D.14922
	addq	%rdx, %rax	# D.14922, D.14923
	movq	(%rax), %rax	# *_70, D.14921
	movl	-64(%rbp), %edx	# k, tmp628
	movslq	%edx, %rdx	# tmp628, D.14922
	salq	$2, %rdx	#, D.14922
	leaq	(%rax,%rdx), %r12	#, D.14921
	.loc 1 435 0 discriminator 2
	movq	-32(%rbp), %rax	# dmx, dmx.12
	movl	-68(%rbp), %edx	# i, tmp629
	movslq	%edx, %rdx	# tmp629, D.14922
	salq	$3, %rdx	#, D.14922
	subq	$8, %rdx	#, D.14924
	addq	%rdx, %rax	# D.14924, D.14923
	movq	(%rax), %rax	# *_79, D.14921
	movl	-64(%rbp), %edx	# k, tmp630
	movslq	%edx, %rdx	# tmp630, D.14922
	salq	$2, %rdx	#, D.14922
	subq	$4, %rdx	#, D.14924
	addq	%rdx, %rax	# D.14924, D.14921
	movl	(%rax), %edx	# *_84, D.14920
	movq	-104(%rbp), %rax	# hmm, tmp631
	movq	312(%rax), %rax	# hmm_5(D)->tsc, D.14923
	addq	$40, %rax	#, D.14923
	movq	(%rax), %rax	# *_87, D.14921
	movl	-64(%rbp), %ecx	# k, tmp632
	movslq	%ecx, %rcx	# tmp632, D.14922
	salq	$2, %rcx	#, D.14922
	subq	$4, %rcx	#, D.14924
	addq	%rcx, %rax	# D.14924, D.14921
	movl	(%rax), %eax	# *_92, D.14920
	.loc 1 432 0 discriminator 2
	addl	%eax, %edx	# D.14920, D.14920
	.loc 1 434 0 discriminator 2
	movq	-56(%rbp), %rax	# xmx, xmx.13
	movl	-68(%rbp), %ecx	# i, tmp633
	movslq	%ecx, %rcx	# tmp633, D.14922
	salq	$3, %rcx	#, D.14922
	subq	$8, %rcx	#, D.14924
	addq	%rcx, %rax	# D.14924, D.14923
	movq	(%rax), %rax	# *_99, D.14921
	movl	(%rax), %ecx	# *_100, D.14920
	movq	-104(%rbp), %rax	# hmm, tmp634
	movq	368(%rax), %rax	# hmm_5(D)->bsc, D.14921
	movl	-64(%rbp), %esi	# k, tmp635
	movslq	%esi, %rsi	# tmp635, D.14922
	salq	$2, %rsi	#, D.14922
	addq	%rsi, %rax	# D.14922, D.14921
	movl	(%rax), %eax	# *_105, D.14920
	.loc 1 432 0 discriminator 2
	addl	%ecx, %eax	# D.14920, D.14920
	movl	%edx, %esi	# D.14920,
	movl	%eax, %edi	# D.14920,
	call	ILogsum	#
	movl	%eax, %ebx	#, D.14920
	.loc 1 433 0 discriminator 2
	movq	-40(%rbp), %rax	# imx, imx.14
	movl	-68(%rbp), %edx	# i, tmp636
	movslq	%edx, %rdx	# tmp636, D.14922
	salq	$3, %rdx	#, D.14922
	subq	$8, %rdx	#, D.14924
	addq	%rdx, %rax	# D.14924, D.14923
	movq	(%rax), %rax	# *_113, D.14921
	movl	-64(%rbp), %edx	# k, tmp637
	movslq	%edx, %rdx	# tmp637, D.14922
	salq	$2, %rdx	#, D.14922
	subq	$4, %rdx	#, D.14924
	addq	%rdx, %rax	# D.14924, D.14921
	movl	(%rax), %edx	# *_118, D.14920
	movq	-104(%rbp), %rax	# hmm, tmp638
	movq	312(%rax), %rax	# hmm_5(D)->tsc, D.14923
	addq	$24, %rax	#, D.14923
	movq	(%rax), %rax	# *_121, D.14921
	movl	-64(%rbp), %ecx	# k, tmp639
	movslq	%ecx, %rcx	# tmp639, D.14922
	salq	$2, %rcx	#, D.14922
	subq	$4, %rcx	#, D.14924
	addq	%rcx, %rax	# D.14924, D.14921
	movl	(%rax), %eax	# *_126, D.14920
	.loc 1 432 0 discriminator 2
	addl	%eax, %edx	# D.14920, D.14920
	movq	-48(%rbp), %rax	# mmx, mmx.15
	movl	-68(%rbp), %ecx	# i, tmp640
	movslq	%ecx, %rcx	# tmp640, D.14922
	salq	$3, %rcx	#, D.14922
	subq	$8, %rcx	#, D.14924
	addq	%rcx, %rax	# D.14924, D.14923
	movq	(%rax), %rax	# *_133, D.14921
	movl	-64(%rbp), %ecx	# k, tmp641
	movslq	%ecx, %rcx	# tmp641, D.14922
	salq	$2, %rcx	#, D.14922
	subq	$4, %rcx	#, D.14924
	addq	%rcx, %rax	# D.14924, D.14921
	movl	(%rax), %ecx	# *_138, D.14920
	movq	-104(%rbp), %rax	# hmm, tmp642
	movq	312(%rax), %rax	# hmm_5(D)->tsc, D.14923
	movq	(%rax), %rax	# *_140, D.14921
	movl	-64(%rbp), %esi	# k, tmp643
	movslq	%esi, %rsi	# tmp643, D.14922
	salq	$2, %rsi	#, D.14922
	subq	$4, %rsi	#, D.14924
	addq	%rsi, %rax	# D.14924, D.14921
	movl	(%rax), %eax	# *_145, D.14920
	addl	%ecx, %eax	# D.14920, D.14920
	movl	%edx, %esi	# D.14920,
	movl	%eax, %edi	# D.14920,
	call	ILogsum	#
	movl	%ebx, %esi	# D.14920,
	movl	%eax, %edi	# D.14920,
	call	ILogsum	#
	movl	%eax, (%r12)	# D.14920, *_74
	.loc 1 436 0 discriminator 2
	movq	-48(%rbp), %rax	# mmx, mmx.16
	movl	-68(%rbp), %edx	# i, tmp644
	movslq	%edx, %rdx	# tmp644, D.14922
	salq	$3, %rdx	#, D.14922
	addq	%rdx, %rax	# D.14922, D.14923
	movq	(%rax), %rax	# *_153, D.14921
	movl	-64(%rbp), %edx	# k, tmp645
	movslq	%edx, %rdx	# tmp645, D.14922
	salq	$2, %rdx	#, D.14922
	addq	%rax, %rdx	# D.14921, D.14921
	movq	-48(%rbp), %rax	# mmx, mmx.17
	movl	-68(%rbp), %ecx	# i, tmp646
	movslq	%ecx, %rcx	# tmp646, D.14922
	salq	$3, %rcx	#, D.14922
	addq	%rcx, %rax	# D.14922, D.14923
	movq	(%rax), %rax	# *_161, D.14921
	movl	-64(%rbp), %ecx	# k, tmp647
	movslq	%ecx, %rcx	# tmp647, D.14922
	salq	$2, %rcx	#, D.14922
	addq	%rcx, %rax	# D.14922, D.14921
	movl	(%rax), %ecx	# *_165, D.14920
	movq	-104(%rbp), %rax	# hmm, tmp648
	movq	320(%rax), %rax	# hmm_5(D)->msc, D.14923
	movl	-68(%rbp), %esi	# i, tmp649
	movslq	%esi, %rdi	# tmp649, D.14924
	movq	-88(%rbp), %rsi	# dsq, tmp650
	addq	%rdi, %rsi	# D.14924, D.14925
	movzbl	(%rsi), %esi	# *_170, D.14926
	movsbq	%sil, %rsi	# D.14926, D.14922
	salq	$3, %rsi	#, D.14922
	addq	%rsi, %rax	# D.14922, D.14923
	movq	(%rax), %rax	# *_174, D.14921
	movl	-64(%rbp), %esi	# k, tmp651
	movslq	%esi, %rsi	# tmp651, D.14922
	salq	$2, %rsi	#, D.14922
	addq	%rsi, %rax	# D.14922, D.14921
	movl	(%rax), %eax	# *_178, D.14920
	addl	%ecx, %eax	# D.14920, D.14920
	movl	%eax, (%rdx)	# D.14920, *_157
	.loc 1 438 0 discriminator 2
	movq	-32(%rbp), %rax	# dmx, dmx.18
	movl	-68(%rbp), %edx	# i, tmp652
	movslq	%edx, %rdx	# tmp652, D.14922
	salq	$3, %rdx	#, D.14922
	addq	%rdx, %rax	# D.14922, D.14923
	movq	(%rax), %rax	# *_184, D.14921
	movl	-64(%rbp), %edx	# k, tmp653
	movslq	%edx, %rdx	# tmp653, D.14922
	salq	$2, %rdx	#, D.14922
	leaq	(%rax,%rdx), %rbx	#, D.14921
	.loc 1 439 0 discriminator 2
	movq	-32(%rbp), %rax	# dmx, dmx.19
	movl	-68(%rbp), %edx	# i, tmp654
	movslq	%edx, %rdx	# tmp654, D.14922
	salq	$3, %rdx	#, D.14922
	addq	%rdx, %rax	# D.14922, D.14923
	movq	(%rax), %rax	# *_192, D.14921
	movl	-64(%rbp), %edx	# k, tmp655
	movslq	%edx, %rdx	# tmp655, D.14922
	salq	$2, %rdx	#, D.14922
	subq	$4, %rdx	#, D.14924
	addq	%rdx, %rax	# D.14924, D.14921
	movl	(%rax), %edx	# *_197, D.14920
	movq	-104(%rbp), %rax	# hmm, tmp656
	movq	312(%rax), %rax	# hmm_5(D)->tsc, D.14923
	addq	$48, %rax	#, D.14923
	movq	(%rax), %rax	# *_200, D.14921
	movl	-64(%rbp), %ecx	# k, tmp657
	movslq	%ecx, %rcx	# tmp657, D.14922
	salq	$2, %rcx	#, D.14922
	subq	$4, %rcx	#, D.14924
	addq	%rcx, %rax	# D.14924, D.14921
	movl	(%rax), %eax	# *_205, D.14920
	.loc 1 438 0 discriminator 2
	addl	%eax, %edx	# D.14920, D.14920
	movq	-48(%rbp), %rax	# mmx, mmx.20
	movl	-68(%rbp), %ecx	# i, tmp658
	movslq	%ecx, %rcx	# tmp658, D.14922
	salq	$3, %rcx	#, D.14922
	addq	%rcx, %rax	# D.14922, D.14923
	movq	(%rax), %rax	# *_211, D.14921
	movl	-64(%rbp), %ecx	# k, tmp659
	movslq	%ecx, %rcx	# tmp659, D.14922
	salq	$2, %rcx	#, D.14922
	subq	$4, %rcx	#, D.14924
	addq	%rcx, %rax	# D.14924, D.14921
	movl	(%rax), %ecx	# *_216, D.14920
	movq	-104(%rbp), %rax	# hmm, tmp660
	movq	312(%rax), %rax	# hmm_5(D)->tsc, D.14923
	addq	$16, %rax	#, D.14923
	movq	(%rax), %rax	# *_219, D.14921
	movl	-64(%rbp), %esi	# k, tmp661
	movslq	%esi, %rsi	# tmp661, D.14922
	salq	$2, %rsi	#, D.14922
	subq	$4, %rsi	#, D.14924
	addq	%rsi, %rax	# D.14924, D.14921
	movl	(%rax), %eax	# *_224, D.14920
	addl	%ecx, %eax	# D.14920, D.14920
	movl	%edx, %esi	# D.14920,
	movl	%eax, %edi	# D.14920,
	call	ILogsum	#
	movl	%eax, (%rbx)	# D.14920, *_188
	.loc 1 440 0 discriminator 2
	movq	-40(%rbp), %rax	# imx, imx.21
	movl	-68(%rbp), %edx	# i, tmp662
	movslq	%edx, %rdx	# tmp662, D.14922
	salq	$3, %rdx	#, D.14922
	addq	%rdx, %rax	# D.14922, D.14923
	movq	(%rax), %rax	# *_231, D.14921
	movl	-64(%rbp), %edx	# k, tmp663
	movslq	%edx, %rdx	# tmp663, D.14922
	salq	$2, %rdx	#, D.14922
	leaq	(%rax,%rdx), %rbx	#, D.14921
	.loc 1 441 0 discriminator 2
	movq	-40(%rbp), %rax	# imx, imx.22
	movl	-68(%rbp), %edx	# i, tmp664
	movslq	%edx, %rdx	# tmp664, D.14922
	salq	$3, %rdx	#, D.14922
	subq	$8, %rdx	#, D.14924
	addq	%rdx, %rax	# D.14924, D.14923
	movq	(%rax), %rax	# *_240, D.14921
	movl	-64(%rbp), %edx	# k, tmp665
	movslq	%edx, %rdx	# tmp665, D.14922
	salq	$2, %rdx	#, D.14922
	addq	%rdx, %rax	# D.14922, D.14921
	movl	(%rax), %edx	# *_244, D.14920
	movq	-104(%rbp), %rax	# hmm, tmp666
	movq	312(%rax), %rax	# hmm_5(D)->tsc, D.14923
	addq	$32, %rax	#, D.14923
	movq	(%rax), %rax	# *_247, D.14921
	movl	-64(%rbp), %ecx	# k, tmp667
	movslq	%ecx, %rcx	# tmp667, D.14922
	salq	$2, %rcx	#, D.14922
	addq	%rcx, %rax	# D.14922, D.14921
	movl	(%rax), %eax	# *_251, D.14920
	.loc 1 440 0 discriminator 2
	addl	%eax, %edx	# D.14920, D.14920
	movq	-48(%rbp), %rax	# mmx, mmx.23
	movl	-68(%rbp), %ecx	# i, tmp668
	movslq	%ecx, %rcx	# tmp668, D.14922
	salq	$3, %rcx	#, D.14922
	subq	$8, %rcx	#, D.14924
	addq	%rcx, %rax	# D.14924, D.14923
	movq	(%rax), %rax	# *_258, D.14921
	movl	-64(%rbp), %ecx	# k, tmp669
	movslq	%ecx, %rcx	# tmp669, D.14922
	salq	$2, %rcx	#, D.14922
	addq	%rcx, %rax	# D.14922, D.14921
	movl	(%rax), %ecx	# *_262, D.14920
	movq	-104(%rbp), %rax	# hmm, tmp670
	movq	312(%rax), %rax	# hmm_5(D)->tsc, D.14923
	addq	$8, %rax	#, D.14923
	movq	(%rax), %rax	# *_265, D.14921
	movl	-64(%rbp), %esi	# k, tmp671
	movslq	%esi, %rsi	# tmp671, D.14922
	salq	$2, %rsi	#, D.14922
	addq	%rsi, %rax	# D.14922, D.14921
	movl	(%rax), %eax	# *_269, D.14920
	addl	%ecx, %eax	# D.14920, D.14920
	movl	%edx, %esi	# D.14920,
	movl	%eax, %edi	# D.14920,
	call	ILogsum	#
	movl	%eax, (%rbx)	# D.14920, *_235
	.loc 1 442 0 discriminator 2
	movq	-40(%rbp), %rax	# imx, imx.24
	movl	-68(%rbp), %edx	# i, tmp672
	movslq	%edx, %rdx	# tmp672, D.14922
	salq	$3, %rdx	#, D.14922
	addq	%rdx, %rax	# D.14922, D.14923
	movq	(%rax), %rax	# *_276, D.14921
	movl	-64(%rbp), %edx	# k, tmp673
	movslq	%edx, %rdx	# tmp673, D.14922
	salq	$2, %rdx	#, D.14922
	addq	%rax, %rdx	# D.14921, D.14921
	movq	-40(%rbp), %rax	# imx, imx.25
	movl	-68(%rbp), %ecx	# i, tmp674
	movslq	%ecx, %rcx	# tmp674, D.14922
	salq	$3, %rcx	#, D.14922
	addq	%rcx, %rax	# D.14922, D.14923
	movq	(%rax), %rax	# *_284, D.14921
	movl	-64(%rbp), %ecx	# k, tmp675
	movslq	%ecx, %rcx	# tmp675, D.14922
	salq	$2, %rcx	#, D.14922
	addq	%rcx, %rax	# D.14922, D.14921
	movl	(%rax), %ecx	# *_288, D.14920
	movq	-104(%rbp), %rax	# hmm, tmp676
	movq	328(%rax), %rax	# hmm_5(D)->isc, D.14923
	movl	-68(%rbp), %esi	# i, tmp677
	movslq	%esi, %rdi	# tmp677, D.14924
	movq	-88(%rbp), %rsi	# dsq, tmp678
	addq	%rdi, %rsi	# D.14924, D.14925
	movzbl	(%rsi), %esi	# *_292, D.14926
	movsbq	%sil, %rsi	# D.14926, D.14922
	salq	$3, %rsi	#, D.14922
	addq	%rsi, %rax	# D.14922, D.14923
	movq	(%rax), %rax	# *_296, D.14921
	movl	-64(%rbp), %esi	# k, tmp679
	movslq	%esi, %rsi	# tmp679, D.14922
	salq	$2, %rsi	#, D.14922
	addq	%rsi, %rax	# D.14922, D.14921
	movl	(%rax), %eax	# *_300, D.14920
	addl	%ecx, %eax	# D.14920, D.14920
	movl	%eax, (%rdx)	# D.14920, *_280
	.loc 1 430 0 discriminator 2
	addl	$1, -64(%rbp)	#, k
.L43:
	.loc 1 430 0 is_stmt 0 discriminator 1
	movq	-104(%rbp), %rax	# hmm, tmp680
	movl	136(%rax), %eax	# hmm_5(D)->M, D.14920
	cmpl	-64(%rbp), %eax	# k, D.14920
	jg	.L44	#,
	.loc 1 444 0 is_stmt 1
	movq	-48(%rbp), %rax	# mmx, mmx.26
	movl	-68(%rbp), %edx	# i, tmp681
	movslq	%edx, %rdx	# tmp681, D.14922
	salq	$3, %rdx	#, D.14922
	addq	%rdx, %rax	# D.14922, D.14923
	movq	(%rax), %rdx	# *_307, D.14921
	movq	-104(%rbp), %rax	# hmm, tmp682
	movl	136(%rax), %eax	# hmm_5(D)->M, D.14920
	cltq
	salq	$2, %rax	#, D.14922
	leaq	(%rdx,%rax), %r12	#, D.14921
	.loc 1 447 0
	movq	-32(%rbp), %rax	# dmx, dmx.27
	movl	-68(%rbp), %edx	# i, tmp683
	movslq	%edx, %rdx	# tmp683, D.14922
	salq	$3, %rdx	#, D.14922
	subq	$8, %rdx	#, D.14924
	addq	%rdx, %rax	# D.14924, D.14923
	movq	(%rax), %rdx	# *_317, D.14921
	movq	-104(%rbp), %rax	# hmm, tmp684
	movl	136(%rax), %eax	# hmm_5(D)->M, D.14920
	cltq
	salq	$2, %rax	#, D.14922
	subq	$4, %rax	#, D.14924
	addq	%rdx, %rax	# D.14921, D.14921
	movl	(%rax), %edx	# *_323, D.14920
	movq	-104(%rbp), %rax	# hmm, tmp685
	movq	312(%rax), %rax	# hmm_5(D)->tsc, D.14923
	addq	$40, %rax	#, D.14923
	movq	(%rax), %rcx	# *_326, D.14921
	movq	-104(%rbp), %rax	# hmm, tmp686
	movl	136(%rax), %eax	# hmm_5(D)->M, D.14920
	cltq
	salq	$2, %rax	#, D.14922
	subq	$4, %rax	#, D.14924
	addq	%rcx, %rax	# D.14921, D.14921
	movl	(%rax), %eax	# *_332, D.14920
	.loc 1 444 0
	addl	%eax, %edx	# D.14920, D.14920
	.loc 1 446 0
	movq	-56(%rbp), %rax	# xmx, xmx.28
	movl	-68(%rbp), %ecx	# i, tmp687
	movslq	%ecx, %rcx	# tmp687, D.14922
	salq	$3, %rcx	#, D.14922
	subq	$8, %rcx	#, D.14924
	addq	%rcx, %rax	# D.14924, D.14923
	movq	(%rax), %rax	# *_339, D.14921
	movl	(%rax), %ecx	# *_340, D.14920
	movq	-104(%rbp), %rax	# hmm, tmp688
	movq	368(%rax), %rsi	# hmm_5(D)->bsc, D.14921
	movq	-104(%rbp), %rax	# hmm, tmp689
	movl	136(%rax), %eax	# hmm_5(D)->M, D.14920
	cltq
	salq	$2, %rax	#, D.14922
	subq	$4, %rax	#, D.14924
	addq	%rsi, %rax	# D.14921, D.14921
	movl	(%rax), %eax	# *_347, D.14920
	.loc 1 444 0
	addl	%ecx, %eax	# D.14920, D.14920
	movl	%edx, %esi	# D.14920,
	movl	%eax, %edi	# D.14920,
	call	ILogsum	#
	movl	%eax, %ebx	#, D.14920
	.loc 1 445 0
	movq	-40(%rbp), %rax	# imx, imx.29
	movl	-68(%rbp), %edx	# i, tmp690
	movslq	%edx, %rdx	# tmp690, D.14922
	salq	$3, %rdx	#, D.14922
	subq	$8, %rdx	#, D.14924
	addq	%rdx, %rax	# D.14924, D.14923
	movq	(%rax), %rdx	# *_355, D.14921
	movq	-104(%rbp), %rax	# hmm, tmp691
	movl	136(%rax), %eax	# hmm_5(D)->M, D.14920
	cltq
	salq	$2, %rax	#, D.14922
	subq	$4, %rax	#, D.14924
	addq	%rdx, %rax	# D.14921, D.14921
	movl	(%rax), %edx	# *_361, D.14920
	movq	-104(%rbp), %rax	# hmm, tmp692
	movq	312(%rax), %rax	# hmm_5(D)->tsc, D.14923
	addq	$24, %rax	#, D.14923
	movq	(%rax), %rcx	# *_364, D.14921
	movq	-104(%rbp), %rax	# hmm, tmp693
	movl	136(%rax), %eax	# hmm_5(D)->M, D.14920
	cltq
	salq	$2, %rax	#, D.14922
	subq	$4, %rax	#, D.14924
	addq	%rcx, %rax	# D.14921, D.14921
	movl	(%rax), %eax	# *_370, D.14920
	.loc 1 444 0
	addl	%eax, %edx	# D.14920, D.14920
	movq	-48(%rbp), %rax	# mmx, mmx.30
	movl	-68(%rbp), %ecx	# i, tmp694
	movslq	%ecx, %rcx	# tmp694, D.14922
	salq	$3, %rcx	#, D.14922
	subq	$8, %rcx	#, D.14924
	addq	%rcx, %rax	# D.14924, D.14923
	movq	(%rax), %rcx	# *_377, D.14921
	movq	-104(%rbp), %rax	# hmm, tmp695
	movl	136(%rax), %eax	# hmm_5(D)->M, D.14920
	cltq
	salq	$2, %rax	#, D.14922
	subq	$4, %rax	#, D.14924
	addq	%rcx, %rax	# D.14921, D.14921
	movl	(%rax), %ecx	# *_383, D.14920
	movq	-104(%rbp), %rax	# hmm, tmp696
	movq	312(%rax), %rax	# hmm_5(D)->tsc, D.14923
	movq	(%rax), %rsi	# *_385, D.14921
	movq	-104(%rbp), %rax	# hmm, tmp697
	movl	136(%rax), %eax	# hmm_5(D)->M, D.14920
	cltq
	salq	$2, %rax	#, D.14922
	subq	$4, %rax	#, D.14924
	addq	%rsi, %rax	# D.14921, D.14921
	movl	(%rax), %eax	# *_391, D.14920
	addl	%ecx, %eax	# D.14920, D.14920
	movl	%edx, %esi	# D.14920,
	movl	%eax, %edi	# D.14920,
	call	ILogsum	#
	movl	%ebx, %esi	# D.14920,
	movl	%eax, %edi	# D.14920,
	call	ILogsum	#
	movl	%eax, (%r12)	# D.14920, *_312
	.loc 1 448 0
	movq	-48(%rbp), %rax	# mmx, mmx.31
	movl	-68(%rbp), %edx	# i, tmp698
	movslq	%edx, %rdx	# tmp698, D.14922
	salq	$3, %rdx	#, D.14922
	addq	%rdx, %rax	# D.14922, D.14923
	movq	(%rax), %rdx	# *_399, D.14921
	movq	-104(%rbp), %rax	# hmm, tmp699
	movl	136(%rax), %eax	# hmm_5(D)->M, D.14920
	cltq
	salq	$2, %rax	#, D.14922
	addq	%rax, %rdx	# D.14922, D.14921
	movq	-48(%rbp), %rax	# mmx, mmx.32
	movl	-68(%rbp), %ecx	# i, tmp700
	movslq	%ecx, %rcx	# tmp700, D.14922
	salq	$3, %rcx	#, D.14922
	addq	%rcx, %rax	# D.14922, D.14923
	movq	(%rax), %rcx	# *_408, D.14921
	movq	-104(%rbp), %rax	# hmm, tmp701
	movl	136(%rax), %eax	# hmm_5(D)->M, D.14920
	cltq
	salq	$2, %rax	#, D.14922
	addq	%rcx, %rax	# D.14921, D.14921
	movl	(%rax), %ecx	# *_413, D.14920
	movq	-104(%rbp), %rax	# hmm, tmp702
	movq	320(%rax), %rax	# hmm_5(D)->msc, D.14923
	movl	-68(%rbp), %esi	# i, tmp703
	movslq	%esi, %rdi	# tmp703, D.14924
	movq	-88(%rbp), %rsi	# dsq, tmp704
	addq	%rdi, %rsi	# D.14924, D.14925
	movzbl	(%rsi), %esi	# *_417, D.14926
	movsbq	%sil, %rsi	# D.14926, D.14922
	salq	$3, %rsi	#, D.14922
	addq	%rsi, %rax	# D.14922, D.14923
	movq	(%rax), %rsi	# *_421, D.14921
	movq	-104(%rbp), %rax	# hmm, tmp705
	movl	136(%rax), %eax	# hmm_5(D)->M, D.14920
	cltq
	salq	$2, %rax	#, D.14922
	addq	%rsi, %rax	# D.14921, D.14921
	movl	(%rax), %eax	# *_426, D.14920
	addl	%ecx, %eax	# D.14920, D.14920
	movl	%eax, (%rdx)	# D.14920, *_404
	.loc 1 453 0
	movq	-56(%rbp), %rax	# xmx, xmx.33
	movl	-68(%rbp), %edx	# i, tmp706
	movslq	%edx, %rdx	# tmp706, D.14922
	salq	$3, %rdx	#, D.14922
	addq	%rdx, %rax	# D.14922, D.14923
	movq	(%rax), %rax	# *_432, D.14921
	leaq	16(%rax), %rdx	#, D.14921
	movq	-56(%rbp), %rax	# xmx, xmx.34
	movl	-68(%rbp), %ecx	# i, tmp707
	movslq	%ecx, %rcx	# tmp707, D.14922
	salq	$3, %rcx	#, D.14922
	subq	$8, %rcx	#, D.14924
	addq	%rcx, %rax	# D.14924, D.14923
	movq	(%rax), %rax	# *_439, D.14921
	addq	$16, %rax	#, D.14921
	movl	(%rax), %ecx	# *_441, D.14920
	movq	-104(%rbp), %rax	# hmm, tmp708
	movl	340(%rax), %eax	# hmm_5(D)->xsc, D.14920
	addl	%ecx, %eax	# D.14920, D.14920
	movl	%eax, (%rdx)	# D.14920, *_434
	.loc 1 455 0
	movq	-56(%rbp), %rax	# xmx, xmx.35
	movl	-68(%rbp), %edx	# i, tmp709
	movslq	%edx, %rdx	# tmp709, D.14922
	salq	$3, %rdx	#, D.14922
	addq	%rdx, %rax	# D.14922, D.14923
	movq	(%rax), %rax	# *_448, D.14921
	addq	$4, %rax	#, D.14921
	movl	$-987654321, (%rax)	#, *_450
	.loc 1 456 0
	movl	$1, -64(%rbp)	#, k
	jmp	.L45	#
.L46:
	.loc 1 457 0 discriminator 2
	movq	-56(%rbp), %rax	# xmx, xmx.36
	movl	-68(%rbp), %edx	# i, tmp710
	movslq	%edx, %rdx	# tmp710, D.14922
	salq	$3, %rdx	#, D.14922
	addq	%rdx, %rax	# D.14922, D.14923
	movq	(%rax), %rax	# *_456, D.14921
	leaq	4(%rax), %rbx	#, D.14921
	movq	-48(%rbp), %rax	# mmx, mmx.37
	movl	-68(%rbp), %edx	# i, tmp711
	movslq	%edx, %rdx	# tmp711, D.14922
	salq	$3, %rdx	#, D.14922
	addq	%rdx, %rax	# D.14922, D.14923
	movq	(%rax), %rax	# *_462, D.14921
	movl	-64(%rbp), %edx	# k, tmp712
	movslq	%edx, %rdx	# tmp712, D.14922
	salq	$2, %rdx	#, D.14922
	addq	%rdx, %rax	# D.14922, D.14921
	movl	(%rax), %edx	# *_466, D.14920
	movq	-104(%rbp), %rax	# hmm, tmp713
	movq	376(%rax), %rax	# hmm_5(D)->esc, D.14921
	movl	-64(%rbp), %ecx	# k, tmp714
	movslq	%ecx, %rcx	# tmp714, D.14922
	salq	$2, %rcx	#, D.14922
	addq	%rcx, %rax	# D.14922, D.14921
	movl	(%rax), %eax	# *_471, D.14920
	addl	%eax, %edx	# D.14920, D.14920
	movq	-56(%rbp), %rax	# xmx, xmx.38
	movl	-68(%rbp), %ecx	# i, tmp715
	movslq	%ecx, %rcx	# tmp715, D.14922
	salq	$3, %rcx	#, D.14922
	addq	%rcx, %rax	# D.14922, D.14923
	movq	(%rax), %rax	# *_477, D.14921
	addq	$4, %rax	#, D.14921
	movl	(%rax), %eax	# *_479, D.14920
	movl	%edx, %esi	# D.14920,
	movl	%eax, %edi	# D.14920,
	call	ILogsum	#
	movl	%eax, (%rbx)	# D.14920, *_458
	.loc 1 456 0 discriminator 2
	addl	$1, -64(%rbp)	#, k
.L45:
	.loc 1 456 0 is_stmt 0 discriminator 1
	movq	-104(%rbp), %rax	# hmm, tmp716
	movl	136(%rax), %eax	# hmm_5(D)->M, D.14920
	cmpl	-64(%rbp), %eax	# k, D.14920
	jge	.L46	#,
	.loc 1 459 0 is_stmt 1
	movq	-56(%rbp), %rax	# xmx, xmx.39
	movl	-68(%rbp), %edx	# i, tmp717
	movslq	%edx, %rdx	# tmp717, D.14922
	salq	$3, %rdx	#, D.14922
	addq	%rdx, %rax	# D.14922, D.14923
	movq	(%rax), %rax	# *_486, D.14921
	leaq	12(%rax), %rbx	#, D.14921
	.loc 1 460 0
	movq	-56(%rbp), %rax	# xmx, xmx.40
	movl	-68(%rbp), %edx	# i, tmp718
	movslq	%edx, %rdx	# tmp718, D.14922
	salq	$3, %rdx	#, D.14922
	addq	%rdx, %rax	# D.14922, D.14923
	movq	(%rax), %rax	# *_492, D.14921
	addq	$4, %rax	#, D.14921
	movl	(%rax), %edx	# *_494, D.14920
	movq	-104(%rbp), %rax	# hmm, tmp719
	movl	348(%rax), %eax	# hmm_5(D)->xsc, D.14920
	.loc 1 459 0
	addl	%eax, %edx	# D.14920, D.14920
	movq	-56(%rbp), %rax	# xmx, xmx.41
	movl	-68(%rbp), %ecx	# i, tmp720
	movslq	%ecx, %rcx	# tmp720, D.14922
	salq	$3, %rcx	#, D.14922
	subq	$8, %rcx	#, D.14924
	addq	%rcx, %rax	# D.14924, D.14923
	movq	(%rax), %rax	# *_502, D.14921
	addq	$12, %rax	#, D.14921
	movl	(%rax), %ecx	# *_504, D.14920
	movq	-104(%rbp), %rax	# hmm, tmp721
	movl	364(%rax), %eax	# hmm_5(D)->xsc, D.14920
	addl	%ecx, %eax	# D.14920, D.14920
	movl	%edx, %esi	# D.14920,
	movl	%eax, %edi	# D.14920,
	call	ILogsum	#
	movl	%eax, (%rbx)	# D.14920, *_488
	.loc 1 462 0
	movq	-56(%rbp), %rax	# xmx, xmx.42
	movl	-68(%rbp), %edx	# i, tmp722
	movslq	%edx, %rdx	# tmp722, D.14922
	salq	$3, %rdx	#, D.14922
	addq	%rdx, %rax	# D.14922, D.14923
	movq	(%rax), %rbx	# *_512, D.14921
	.loc 1 463 0
	movq	-56(%rbp), %rax	# xmx, xmx.43
	movl	-68(%rbp), %edx	# i, tmp723
	movslq	%edx, %rdx	# tmp723, D.14922
	salq	$3, %rdx	#, D.14922
	addq	%rdx, %rax	# D.14922, D.14923
	movq	(%rax), %rax	# *_517, D.14921
	addq	$12, %rax	#, D.14921
	movl	(%rax), %edx	# *_519, D.14920
	movq	-104(%rbp), %rax	# hmm, tmp724
	movl	360(%rax), %eax	# hmm_5(D)->xsc, D.14920
	.loc 1 462 0
	addl	%eax, %edx	# D.14920, D.14920
	movq	-56(%rbp), %rax	# xmx, xmx.44
	movl	-68(%rbp), %ecx	# i, tmp725
	movslq	%ecx, %rcx	# tmp725, D.14922
	salq	$3, %rcx	#, D.14922
	addq	%rcx, %rax	# D.14922, D.14923
	movq	(%rax), %rax	# *_526, D.14921
	addq	$16, %rax	#, D.14921
	movl	(%rax), %ecx	# *_528, D.14920
	movq	-104(%rbp), %rax	# hmm, tmp726
	movl	336(%rax), %eax	# hmm_5(D)->xsc, D.14920
	addl	%ecx, %eax	# D.14920, D.14920
	movl	%edx, %esi	# D.14920,
	movl	%eax, %edi	# D.14920,
	call	ILogsum	#
	movl	%eax, (%rbx)	# D.14920, *_513
	.loc 1 465 0
	movq	-56(%rbp), %rax	# xmx, xmx.45
	movl	-68(%rbp), %edx	# i, tmp727
	movslq	%edx, %rdx	# tmp727, D.14922
	salq	$3, %rdx	#, D.14922
	addq	%rdx, %rax	# D.14922, D.14923
	movq	(%rax), %rax	# *_536, D.14921
	leaq	8(%rax), %rbx	#, D.14921
	.loc 1 466 0
	movq	-56(%rbp), %rax	# xmx, xmx.46
	movl	-68(%rbp), %edx	# i, tmp728
	movslq	%edx, %rdx	# tmp728, D.14922
	salq	$3, %rdx	#, D.14922
	addq	%rdx, %rax	# D.14922, D.14923
	movq	(%rax), %rax	# *_542, D.14921
	addq	$4, %rax	#, D.14921
	movl	(%rax), %edx	# *_544, D.14920
	movq	-104(%rbp), %rax	# hmm, tmp729
	movl	344(%rax), %eax	# hmm_5(D)->xsc, D.14920
	.loc 1 465 0
	addl	%eax, %edx	# D.14920, D.14920
	movq	-56(%rbp), %rax	# xmx, xmx.47
	movl	-68(%rbp), %ecx	# i, tmp730
	movslq	%ecx, %rcx	# tmp730, D.14922
	salq	$3, %rcx	#, D.14922
	subq	$8, %rcx	#, D.14924
	addq	%rcx, %rax	# D.14924, D.14923
	movq	(%rax), %rax	# *_552, D.14921
	addq	$8, %rax	#, D.14921
	movl	(%rax), %ecx	# *_554, D.14920
	movq	-104(%rbp), %rax	# hmm, tmp731
	movl	356(%rax), %eax	# hmm_5(D)->xsc, D.14920
	addl	%ecx, %eax	# D.14920, D.14920
	movl	%edx, %esi	# D.14920,
	movl	%eax, %edi	# D.14920,
	call	ILogsum	#
	movl	%eax, (%rbx)	# D.14920, *_538
	.loc 1 427 0
	addl	$1, -68(%rbp)	#, i
.L42:
	.loc 1 427 0 is_stmt 0 discriminator 1
	movl	-68(%rbp), %eax	# i, tmp732
	cmpl	-92(%rbp), %eax	# L, tmp732
	jle	.L47	#,
	.loc 1 469 0 is_stmt 1
	movq	-56(%rbp), %rax	# xmx, xmx.48
	movl	-92(%rbp), %edx	# L, tmp733
	movslq	%edx, %rdx	# tmp733, D.14922
	salq	$3, %rdx	#, D.14922
	addq	%rdx, %rax	# D.14922, D.14923
	movq	(%rax), %rax	# *_563, D.14921
	addq	$8, %rax	#, D.14921
	movl	(%rax), %edx	# *_565, D.14920
	movq	-104(%rbp), %rax	# hmm, tmp734
	movl	352(%rax), %eax	# hmm_5(D)->xsc, D.14920
	addl	%edx, %eax	# D.14920, tmp735
	movl	%eax, -60(%rbp)	# tmp735, sc
	.loc 1 471 0
	cmpq	$0, -112(%rbp)	#, ret_mx
	je	.L48	#,
	.loc 1 471 0 is_stmt 0 discriminator 1
	movq	-112(%rbp), %rax	# ret_mx, tmp736
	movq	-24(%rbp), %rdx	# mx, tmp737
	movq	%rdx, (%rax)	# tmp737, *ret_mx_569(D)
	jmp	.L49	#
.L48:
	.loc 1 472 0 is_stmt 1
	movq	-24(%rbp), %rax	# mx, tmp738
	movq	%rax, %rdi	# tmp738,
	call	FreePlan7Matrix	#
.L49:
	.loc 1 474 0
	movl	-60(%rbp), %eax	# sc, tmp739
	movl	%eax, %edi	# tmp739,
	call	Scorify	#
	movss	%xmm0, -96(%rbp)	#, %sfp
	movl	-96(%rbp), %eax	# %sfp, D.14927
	.loc 1 475 0
	movl	%eax, -96(%rbp)	# <retval>, %sfp
	movss	-96(%rbp), %xmm0	# %sfp,
	addq	$96, %rsp	#,
	popq	%rbx	#
	popq	%r12	#
	popq	%rbp	#
	.cfi_def_cfa 7, 8
	ret
	.cfi_endproc
.LFE11:
	.size	P7Forward, .-P7Forward
	.section	.rodata
.LC9:
	.string	"traceback failed"
.LC11:
	.string	"Traceback failed."
	.text
	.globl	P7ViterbiTrace
	.type	P7ViterbiTrace, @function
P7ViterbiTrace:
.LFB12:
	.loc 1 630 0
	.cfi_startproc
	pushq	%rbp	#
	.cfi_def_cfa_offset 16
	.cfi_offset 6, -16
	movq	%rsp, %rbp	#,
	.cfi_def_cfa_register 6
	subq	$112, %rsp	#,
	movq	%rdi, -72(%rbp)	# hmm, hmm
	movq	%rsi, -80(%rbp)	# dsq, dsq
	movl	%edx, -84(%rbp)	# N, N
	movq	%rcx, -96(%rbp)	# mx, mx
	movq	%r8, -104(%rbp)	# ret_tr, ret_tr
	.loc 1 643 0
	movl	-84(%rbp), %eax	# N, tmp776
	addl	$3, %eax	#, D.14929
	addl	%eax, %eax	# tmp777
	movl	%eax, -64(%rbp)	# tmp777, curralloc
	.loc 1 644 0
	leaq	-40(%rbp), %rdx	#, tmp778
	movl	-64(%rbp), %eax	# curralloc, tmp779
	movq	%rdx, %rsi	# tmp778,
	movl	%eax, %edi	# tmp779,
	call	P7AllocTrace	#
	.loc 1 646 0
	movq	-96(%rbp), %rax	# mx, tmp780
	movq	(%rax), %rax	# mx_40(D)->xmx, tmp781
	movq	%rax, -32(%rbp)	# tmp781, xmx
	.loc 1 647 0
	movq	-96(%rbp), %rax	# mx, tmp782
	movq	8(%rax), %rax	# mx_40(D)->mmx, tmp783
	movq	%rax, -24(%rbp)	# tmp783, mmx
	.loc 1 648 0
	movq	-96(%rbp), %rax	# mx, tmp784
	movq	16(%rax), %rax	# mx_40(D)->imx, tmp785
	movq	%rax, -16(%rbp)	# tmp785, imx
	.loc 1 649 0
	movq	-96(%rbp), %rax	# mx, tmp786
	movq	24(%rax), %rax	# mx_40(D)->dmx, tmp787
	movq	%rax, -8(%rbp)	# tmp787, dmx
	.loc 1 654 0
	movq	-40(%rbp), %rax	# tr, tr.49
	movq	8(%rax), %rax	# tr.49_45->statetype, D.14930
	movb	$9, (%rax)	#, *_46
	.loc 1 655 0
	movq	-40(%rbp), %rax	# tr, tr.50
	movq	16(%rax), %rax	# tr.50_47->nodeidx, D.14931
	movl	$0, (%rax)	#, *_48
	.loc 1 656 0
	movq	-40(%rbp), %rax	# tr, tr.51
	movq	24(%rax), %rax	# tr.51_49->pos, D.14931
	movl	$0, (%rax)	#, *_50
	.loc 1 657 0
	movq	-40(%rbp), %rax	# tr, tr.52
	movq	8(%rax), %rax	# tr.52_51->statetype, D.14930
	addq	$1, %rax	#, D.14930
	movb	$8, (%rax)	#, *_53
	.loc 1 658 0
	movq	-40(%rbp), %rax	# tr, tr.53
	movq	16(%rax), %rax	# tr.53_54->nodeidx, D.14931
	addq	$4, %rax	#, D.14931
	movl	$0, (%rax)	#, *_56
	.loc 1 659 0
	movq	-40(%rbp), %rax	# tr, tr.54
	movq	24(%rax), %rax	# tr.54_57->pos, D.14931
	addq	$4, %rax	#, D.14931
	movl	$0, (%rax)	#, *_59
	.loc 1 660 0
	movl	$2, -60(%rbp)	#, tpos
	.loc 1 661 0
	movl	-84(%rbp), %eax	# N, tmp788
	movl	%eax, -56(%rbp)	# tmp788, i
	.loc 1 665 0
	jmp	.L52	#
.L109:
	.loc 1 666 0
	movq	-40(%rbp), %rax	# tr, tr.55
	movq	8(%rax), %rax	# tr.55_69->statetype, D.14930
	movl	-60(%rbp), %edx	# tpos, tmp789
	movslq	%edx, %rdx	# tmp789, D.14932
	subq	$1, %rdx	#, D.14932
	addq	%rdx, %rax	# D.14932, D.14930
	movzbl	(%rax), %eax	# *_73, D.14933
	movsbl	%al, %eax	# D.14933, D.14929
	cmpl	$10, %eax	#, D.14929
	ja	.L53	#,
	movl	%eax, %eax	# D.14929, tmp790
	movq	.L55(,%rax,8), %rax	#, tmp791
	jmp	*%rax	# tmp791
	.section	.rodata
	.align 8
	.align 4
.L55:
	.quad	.L53
	.quad	.L54
	.quad	.L56
	.quad	.L57
	.quad	.L53
	.quad	.L58
	.quad	.L59
	.quad	.L60
	.quad	.L61
	.quad	.L53
	.quad	.L62
	.text
.L54:
	.loc 1 668 0
	movl	-56(%rbp), %eax	# i, tmp792
	cltq
	addq	$1, %rax	#, D.14932
	leaq	0(,%rax,8), %rdx	#, D.14932
	movq	-24(%rbp), %rax	# mmx, tmp793
	addq	%rdx, %rax	# D.14932, D.14934
	movq	(%rax), %rax	# *_79, D.14931
	movl	-52(%rbp), %edx	# k, tmp794
	movslq	%edx, %rdx	# tmp794, D.14932
	addq	$1, %rdx	#, D.14932
	salq	$2, %rdx	#, D.14932
	addq	%rdx, %rax	# D.14932, D.14931
	movl	(%rax), %edx	# *_84, D.14929
	movq	-72(%rbp), %rax	# hmm, tmp795
	movq	320(%rax), %rax	# hmm_86(D)->msc, D.14934
	movl	-56(%rbp), %ecx	# i, tmp796
	movslq	%ecx, %rcx	# tmp796, D.14932
	leaq	1(%rcx), %rsi	#, D.14932
	movq	-80(%rbp), %rcx	# dsq, tmp797
	addq	%rsi, %rcx	# D.14932, D.14930
	movzbl	(%rcx), %ecx	# *_91, D.14933
	movsbq	%cl, %rcx	# D.14933, D.14935
	salq	$3, %rcx	#, D.14935
	addq	%rcx, %rax	# D.14935, D.14934
	movq	(%rax), %rax	# *_95, D.14931
	movl	-52(%rbp), %ecx	# k, tmp798
	movslq	%ecx, %rcx	# tmp798, D.14932
	addq	$1, %rcx	#, D.14932
	salq	$2, %rcx	#, D.14932
	addq	%rcx, %rax	# D.14932, D.14931
	movl	(%rax), %eax	# *_100, D.14929
	subl	%eax, %edx	# D.14929, tmp799
	movl	%edx, %eax	# tmp799, tmp799
	movl	%eax, -44(%rbp)	# tmp799, sc
	.loc 1 669 0
	cmpl	$-987654320, -44(%rbp)	#, sc
	jge	.L63	#,
	.loc 1 669 0 is_stmt 0 discriminator 1
	movq	-40(%rbp), %rax	# tr, tr.56
	movq	%rax, %rdi	# tr.56,
	call	P7FreeTrace	#
	movq	-104(%rbp), %rax	# ret_tr, tmp800
	movq	$0, (%rax)	#, *ret_tr_104(D)
	jmp	.L51	#
.L63:
	.loc 1 670 0 is_stmt 1
	movl	-56(%rbp), %eax	# i, tmp801
	cltq
	leaq	0(,%rax,8), %rdx	#, D.14935
	movq	-32(%rbp), %rax	# xmx, tmp802
	addq	%rdx, %rax	# D.14935, D.14934
	movq	(%rax), %rax	# *_107, D.14931
	movl	(%rax), %edx	# *_108, D.14929
	movq	-72(%rbp), %rax	# hmm, tmp803
	movq	368(%rax), %rax	# hmm_86(D)->bsc, D.14931
	movl	-52(%rbp), %ecx	# k, tmp804
	movslq	%ecx, %rcx	# tmp804, D.14932
	addq	$1, %rcx	#, D.14932
	salq	$2, %rcx	#, D.14932
	addq	%rcx, %rax	# D.14932, D.14931
	movl	(%rax), %eax	# *_114, D.14929
	addl	%edx, %eax	# D.14929, D.14929
	cmpl	-44(%rbp), %eax	# sc, D.14929
	jne	.L65	#,
	.loc 1 673 0
	movq	-72(%rbp), %rax	# hmm, tmp805
	movl	304(%rax), %edx	# hmm_86(D)->p1, D.14936
	movq	-72(%rbp), %rax	# hmm, tmp806
	movq	208(%rax), %rax	# hmm_86(D)->begin, D.14937
	movl	-52(%rbp), %ecx	# k, tmp807
	movslq	%ecx, %rcx	# tmp807, D.14932
	addq	$1, %rcx	#, D.14932
	salq	$2, %rcx	#, D.14932
	addq	%rcx, %rax	# D.14932, D.14937
	movl	(%rax), %eax	# *_122, D.14936
	movl	%edx, -88(%rbp)	# D.14936, %sfp
	movss	-88(%rbp), %xmm1	# %sfp,
	movl	%eax, -88(%rbp)	# D.14936, %sfp
	movss	-88(%rbp), %xmm0	# %sfp,
	call	Prob2Score	#
	cvtsi2sd	%eax, %xmm0	# D.14929, D.14938
	movsd	.LC8(%rip), %xmm1	#, tmp808
	addsd	%xmm0, %xmm1	# D.14938, D.14938
	movq	-72(%rbp), %rax	# hmm, tmp809
	movq	368(%rax), %rax	# hmm_86(D)->bsc, D.14931
	movl	-52(%rbp), %edx	# k, tmp810
	movslq	%edx, %rdx	# tmp810, D.14932
	addq	$1, %rdx	#, D.14932
	salq	$2, %rdx	#, D.14932
	addq	%rdx, %rax	# D.14932, D.14931
	movl	(%rax), %eax	# *_131, D.14929
	cvtsi2sd	%eax, %xmm0	# D.14929, D.14938
	ucomisd	%xmm1, %xmm0	# D.14938, D.14938
	jb	.L66	#,
	.loc 1 674 0
	jmp	.L68	#
.L69:
	.loc 1 676 0
	movq	-40(%rbp), %rax	# tr, tr.57
	movq	8(%rax), %rdx	# tr.57_134->statetype, D.14930
	movl	-60(%rbp), %eax	# tpos, tmp811
	cltq
	addq	%rdx, %rax	# D.14930, D.14930
	movb	$2, (%rax)	#, *_137
	.loc 1 677 0
	movq	-40(%rbp), %rax	# tr, tr.58
	movq	16(%rax), %rax	# tr.58_138->nodeidx, D.14931
	movl	-60(%rbp), %edx	# tpos, tmp812
	movslq	%edx, %rdx	# tmp812, D.14935
	salq	$2, %rdx	#, D.14935
	leaq	(%rax,%rdx), %rcx	#, D.14931
	movl	-52(%rbp), %eax	# k, k.59
	leal	-1(%rax), %edx	#, tmp813
	movl	%edx, -52(%rbp)	# tmp813, k
	movl	%eax, (%rcx)	# k.59, *_142
	.loc 1 678 0
	movq	-40(%rbp), %rax	# tr, tr.60
	movq	24(%rax), %rax	# tr.60_145->pos, D.14931
	movl	-60(%rbp), %edx	# tpos, tmp814
	movslq	%edx, %rdx	# tmp814, D.14935
	salq	$2, %rdx	#, D.14935
	addq	%rdx, %rax	# D.14935, D.14931
	movl	$0, (%rax)	#, *_149
	.loc 1 679 0
	addl	$1, -60(%rbp)	#, tpos
	.loc 1 680 0
	movl	-60(%rbp), %eax	# tpos, tmp815
	cmpl	-64(%rbp), %eax	# curralloc, tmp815
	jne	.L68	#,
	.loc 1 682 0
	movl	-84(%rbp), %eax	# N, tmp816
	addl	%eax, -64(%rbp)	# tmp816, curralloc
	.loc 1 683 0
	movq	-40(%rbp), %rax	# tr, tr.61
	movl	-64(%rbp), %edx	# curralloc, tmp817
	movl	%edx, %esi	# tmp817,
	movq	%rax, %rdi	# tr.61,
	call	P7ReallocTrace	#
.L68:
	.loc 1 674 0 discriminator 1
	cmpl	$0, -52(%rbp)	#, k
	jg	.L69	#,
.L66:
	.loc 1 687 0
	movq	-40(%rbp), %rax	# tr, tr.62
	movq	8(%rax), %rdx	# tr.62_153->statetype, D.14930
	movl	-60(%rbp), %eax	# tpos, tmp818
	cltq
	addq	%rdx, %rax	# D.14930, D.14930
	movb	$6, (%rax)	#, *_156
	.loc 1 688 0
	movq	-40(%rbp), %rax	# tr, tr.63
	movq	16(%rax), %rax	# tr.63_157->nodeidx, D.14931
	movl	-60(%rbp), %edx	# tpos, tmp819
	movslq	%edx, %rdx	# tmp819, D.14935
	salq	$2, %rdx	#, D.14935
	addq	%rdx, %rax	# D.14935, D.14931
	movl	$0, (%rax)	#, *_161
	.loc 1 689 0
	movq	-40(%rbp), %rax	# tr, tr.64
	movq	24(%rax), %rax	# tr.64_162->pos, D.14931
	movl	-60(%rbp), %edx	# tpos, tmp820
	movslq	%edx, %rdx	# tmp820, D.14935
	salq	$2, %rdx	#, D.14935
	addq	%rdx, %rax	# D.14935, D.14931
	movl	$0, (%rax)	#, *_166
	jmp	.L70	#
.L65:
	.loc 1 691 0
	movl	-56(%rbp), %eax	# i, tmp821
	cltq
	leaq	0(,%rax,8), %rdx	#, D.14935
	movq	-24(%rbp), %rax	# mmx, tmp822
	addq	%rdx, %rax	# D.14935, D.14934
	movq	(%rax), %rax	# *_169, D.14931
	movl	-52(%rbp), %edx	# k, tmp823
	movslq	%edx, %rdx	# tmp823, D.14935
	salq	$2, %rdx	#, D.14935
	addq	%rdx, %rax	# D.14935, D.14931
	movl	(%rax), %edx	# *_173, D.14929
	movq	-72(%rbp), %rax	# hmm, tmp824
	movq	312(%rax), %rax	# hmm_86(D)->tsc, D.14934
	movq	(%rax), %rax	# *_175, D.14931
	movl	-52(%rbp), %ecx	# k, tmp825
	movslq	%ecx, %rcx	# tmp825, D.14935
	salq	$2, %rcx	#, D.14935
	addq	%rcx, %rax	# D.14935, D.14931
	movl	(%rax), %eax	# *_179, D.14929
	addl	%edx, %eax	# D.14929, D.14929
	cmpl	-44(%rbp), %eax	# sc, D.14929
	jne	.L71	#,
	.loc 1 693 0
	movq	-40(%rbp), %rax	# tr, tr.65
	movq	8(%rax), %rdx	# tr.65_182->statetype, D.14930
	movl	-60(%rbp), %eax	# tpos, tmp826
	cltq
	addq	%rdx, %rax	# D.14930, D.14930
	movb	$1, (%rax)	#, *_185
	.loc 1 694 0
	movq	-40(%rbp), %rax	# tr, tr.66
	movq	16(%rax), %rax	# tr.66_186->nodeidx, D.14931
	movl	-60(%rbp), %edx	# tpos, tmp827
	movslq	%edx, %rdx	# tmp827, D.14935
	salq	$2, %rdx	#, D.14935
	leaq	(%rax,%rdx), %rcx	#, D.14931
	movl	-52(%rbp), %eax	# k, k.67
	leal	-1(%rax), %edx	#, tmp828
	movl	%edx, -52(%rbp)	# tmp828, k
	movl	%eax, (%rcx)	# k.67, *_190
	.loc 1 695 0
	movq	-40(%rbp), %rax	# tr, tr.68
	movq	24(%rax), %rax	# tr.68_193->pos, D.14931
	movl	-60(%rbp), %edx	# tpos, tmp829
	movslq	%edx, %rdx	# tmp829, D.14935
	salq	$2, %rdx	#, D.14935
	leaq	(%rax,%rdx), %rcx	#, D.14931
	movl	-56(%rbp), %eax	# i, i.69
	leal	-1(%rax), %edx	#, tmp830
	movl	%edx, -56(%rbp)	# tmp830, i
	movl	%eax, (%rcx)	# i.69, *_197
	jmp	.L70	#
.L71:
	.loc 1 697 0
	movl	-56(%rbp), %eax	# i, tmp831
	cltq
	leaq	0(,%rax,8), %rdx	#, D.14935
	movq	-16(%rbp), %rax	# imx, tmp832
	addq	%rdx, %rax	# D.14935, D.14934
	movq	(%rax), %rax	# *_202, D.14931
	movl	-52(%rbp), %edx	# k, tmp833
	movslq	%edx, %rdx	# tmp833, D.14935
	salq	$2, %rdx	#, D.14935
	addq	%rdx, %rax	# D.14935, D.14931
	movl	(%rax), %edx	# *_206, D.14929
	movq	-72(%rbp), %rax	# hmm, tmp834
	movq	312(%rax), %rax	# hmm_86(D)->tsc, D.14934
	addq	$24, %rax	#, D.14934
	movq	(%rax), %rax	# *_209, D.14931
	movl	-52(%rbp), %ecx	# k, tmp835
	movslq	%ecx, %rcx	# tmp835, D.14935
	salq	$2, %rcx	#, D.14935
	addq	%rcx, %rax	# D.14935, D.14931
	movl	(%rax), %eax	# *_213, D.14929
	addl	%edx, %eax	# D.14929, D.14929
	cmpl	-44(%rbp), %eax	# sc, D.14929
	jne	.L72	#,
	.loc 1 699 0
	movq	-40(%rbp), %rax	# tr, tr.70
	movq	8(%rax), %rdx	# tr.70_216->statetype, D.14930
	movl	-60(%rbp), %eax	# tpos, tmp836
	cltq
	addq	%rdx, %rax	# D.14930, D.14930
	movb	$3, (%rax)	#, *_219
	.loc 1 700 0
	movq	-40(%rbp), %rax	# tr, tr.71
	movq	16(%rax), %rax	# tr.71_220->nodeidx, D.14931
	movl	-60(%rbp), %edx	# tpos, tmp837
	movslq	%edx, %rdx	# tmp837, D.14935
	salq	$2, %rdx	#, D.14935
	addq	%rax, %rdx	# D.14931, D.14931
	movl	-52(%rbp), %eax	# k, tmp838
	movl	%eax, (%rdx)	# tmp838, *_224
	.loc 1 701 0
	movq	-40(%rbp), %rax	# tr, tr.72
	movq	24(%rax), %rax	# tr.72_225->pos, D.14931
	movl	-60(%rbp), %edx	# tpos, tmp839
	movslq	%edx, %rdx	# tmp839, D.14935
	salq	$2, %rdx	#, D.14935
	leaq	(%rax,%rdx), %rcx	#, D.14931
	movl	-56(%rbp), %eax	# i, i.73
	leal	-1(%rax), %edx	#, tmp840
	movl	%edx, -56(%rbp)	# tmp840, i
	movl	%eax, (%rcx)	# i.73, *_229
	jmp	.L70	#
.L72:
	.loc 1 703 0
	movl	-56(%rbp), %eax	# i, tmp841
	cltq
	leaq	0(,%rax,8), %rdx	#, D.14935
	movq	-8(%rbp), %rax	# dmx, tmp842
	addq	%rdx, %rax	# D.14935, D.14934
	movq	(%rax), %rax	# *_234, D.14931
	movl	-52(%rbp), %edx	# k, tmp843
	movslq	%edx, %rdx	# tmp843, D.14935
	salq	$2, %rdx	#, D.14935
	addq	%rdx, %rax	# D.14935, D.14931
	movl	(%rax), %edx	# *_238, D.14929
	movq	-72(%rbp), %rax	# hmm, tmp844
	movq	312(%rax), %rax	# hmm_86(D)->tsc, D.14934
	addq	$40, %rax	#, D.14934
	movq	(%rax), %rax	# *_241, D.14931
	movl	-52(%rbp), %ecx	# k, tmp845
	movslq	%ecx, %rcx	# tmp845, D.14935
	salq	$2, %rcx	#, D.14935
	addq	%rcx, %rax	# D.14935, D.14931
	movl	(%rax), %eax	# *_245, D.14929
	addl	%edx, %eax	# D.14929, D.14929
	cmpl	-44(%rbp), %eax	# sc, D.14929
	jne	.L73	#,
	.loc 1 705 0
	movq	-40(%rbp), %rax	# tr, tr.74
	movq	8(%rax), %rdx	# tr.74_248->statetype, D.14930
	movl	-60(%rbp), %eax	# tpos, tmp846
	cltq
	addq	%rdx, %rax	# D.14930, D.14930
	movb	$2, (%rax)	#, *_251
	.loc 1 706 0
	movq	-40(%rbp), %rax	# tr, tr.75
	movq	16(%rax), %rax	# tr.75_252->nodeidx, D.14931
	movl	-60(%rbp), %edx	# tpos, tmp847
	movslq	%edx, %rdx	# tmp847, D.14935
	salq	$2, %rdx	#, D.14935
	leaq	(%rax,%rdx), %rcx	#, D.14931
	movl	-52(%rbp), %eax	# k, k.76
	leal	-1(%rax), %edx	#, tmp848
	movl	%edx, -52(%rbp)	# tmp848, k
	movl	%eax, (%rcx)	# k.76, *_256
	.loc 1 707 0
	movq	-40(%rbp), %rax	# tr, tr.77
	movq	24(%rax), %rax	# tr.77_259->pos, D.14931
	movl	-60(%rbp), %edx	# tpos, tmp849
	movslq	%edx, %rdx	# tmp849, D.14935
	salq	$2, %rdx	#, D.14935
	addq	%rdx, %rax	# D.14935, D.14931
	movl	$0, (%rax)	#, *_263
	jmp	.L70	#
.L73:
	.loc 1 710 0
	movl	$.LC9, %edi	#,
	movl	$0, %eax	#,
	call	Die	#
	.loc 1 711 0
	jmp	.L74	#
.L70:
	jmp	.L74	#
.L56:
	.loc 1 714 0
	movl	-56(%rbp), %eax	# i, tmp850
	cltq
	leaq	0(,%rax,8), %rdx	#, D.14935
	movq	-8(%rbp), %rax	# dmx, tmp851
	addq	%rdx, %rax	# D.14935, D.14934
	movq	(%rax), %rax	# *_266, D.14931
	movl	-52(%rbp), %edx	# k, tmp852
	movslq	%edx, %rdx	# tmp852, D.14932
	addq	$1, %rdx	#, D.14932
	salq	$2, %rdx	#, D.14932
	addq	%rdx, %rax	# D.14932, D.14931
	movl	(%rax), %eax	# *_271, D.14929
	cmpl	$-987654320, %eax	#, D.14929
	jge	.L75	#,
	.loc 1 714 0 is_stmt 0 discriminator 1
	movq	-40(%rbp), %rax	# tr, tr.78
	movq	%rax, %rdi	# tr.78,
	call	P7FreeTrace	#
	movq	-104(%rbp), %rax	# ret_tr, tmp853
	movq	$0, (%rax)	#, *ret_tr_104(D)
	jmp	.L51	#
.L75:
	.loc 1 715 0 is_stmt 1
	movl	-56(%rbp), %eax	# i, tmp854
	cltq
	leaq	0(,%rax,8), %rdx	#, D.14935
	movq	-8(%rbp), %rax	# dmx, tmp855
	addq	%rdx, %rax	# D.14935, D.14934
	movq	(%rax), %rax	# *_276, D.14931
	movl	-52(%rbp), %edx	# k, tmp856
	movslq	%edx, %rdx	# tmp856, D.14932
	addq	$1, %rdx	#, D.14932
	salq	$2, %rdx	#, D.14932
	addq	%rdx, %rax	# D.14932, D.14931
	movl	(%rax), %edx	# *_281, D.14929
	movl	-56(%rbp), %eax	# i, tmp857
	cltq
	leaq	0(,%rax,8), %rcx	#, D.14935
	movq	-24(%rbp), %rax	# mmx, tmp858
	addq	%rcx, %rax	# D.14935, D.14934
	movq	(%rax), %rax	# *_285, D.14931
	movl	-52(%rbp), %ecx	# k, tmp859
	movslq	%ecx, %rcx	# tmp859, D.14935
	salq	$2, %rcx	#, D.14935
	addq	%rcx, %rax	# D.14935, D.14931
	movl	(%rax), %ecx	# *_289, D.14929
	movq	-72(%rbp), %rax	# hmm, tmp860
	movq	312(%rax), %rax	# hmm_86(D)->tsc, D.14934
	addq	$16, %rax	#, D.14934
	movq	(%rax), %rax	# *_292, D.14931
	movl	-52(%rbp), %esi	# k, tmp861
	movslq	%esi, %rsi	# tmp861, D.14935
	salq	$2, %rsi	#, D.14935
	addq	%rsi, %rax	# D.14935, D.14931
	movl	(%rax), %eax	# *_296, D.14929
	addl	%ecx, %eax	# D.14929, D.14929
	cmpl	%eax, %edx	# D.14929, D.14929
	jne	.L76	#,
	.loc 1 717 0
	movq	-40(%rbp), %rax	# tr, tr.79
	movq	8(%rax), %rdx	# tr.79_299->statetype, D.14930
	movl	-60(%rbp), %eax	# tpos, tmp862
	cltq
	addq	%rdx, %rax	# D.14930, D.14930
	movb	$1, (%rax)	#, *_302
	.loc 1 718 0
	movq	-40(%rbp), %rax	# tr, tr.80
	movq	16(%rax), %rax	# tr.80_303->nodeidx, D.14931
	movl	-60(%rbp), %edx	# tpos, tmp863
	movslq	%edx, %rdx	# tmp863, D.14935
	salq	$2, %rdx	#, D.14935
	leaq	(%rax,%rdx), %rcx	#, D.14931
	movl	-52(%rbp), %eax	# k, k.81
	leal	-1(%rax), %edx	#, tmp864
	movl	%edx, -52(%rbp)	# tmp864, k
	movl	%eax, (%rcx)	# k.81, *_307
	.loc 1 719 0
	movq	-40(%rbp), %rax	# tr, tr.82
	movq	24(%rax), %rax	# tr.82_310->pos, D.14931
	movl	-60(%rbp), %edx	# tpos, tmp865
	movslq	%edx, %rdx	# tmp865, D.14935
	salq	$2, %rdx	#, D.14935
	leaq	(%rax,%rdx), %rcx	#, D.14931
	movl	-56(%rbp), %eax	# i, i.83
	leal	-1(%rax), %edx	#, tmp866
	movl	%edx, -56(%rbp)	# tmp866, i
	movl	%eax, (%rcx)	# i.83, *_314
	jmp	.L77	#
.L76:
	.loc 1 721 0
	movl	-56(%rbp), %eax	# i, tmp867
	cltq
	leaq	0(,%rax,8), %rdx	#, D.14935
	movq	-8(%rbp), %rax	# dmx, tmp868
	addq	%rdx, %rax	# D.14935, D.14934
	movq	(%rax), %rax	# *_319, D.14931
	movl	-52(%rbp), %edx	# k, tmp869
	movslq	%edx, %rdx	# tmp869, D.14932
	addq	$1, %rdx	#, D.14932
	salq	$2, %rdx	#, D.14932
	addq	%rdx, %rax	# D.14932, D.14931
	movl	(%rax), %edx	# *_324, D.14929
	movl	-56(%rbp), %eax	# i, tmp870
	cltq
	leaq	0(,%rax,8), %rcx	#, D.14935
	movq	-8(%rbp), %rax	# dmx, tmp871
	addq	%rcx, %rax	# D.14935, D.14934
	movq	(%rax), %rax	# *_328, D.14931
	movl	-52(%rbp), %ecx	# k, tmp872
	movslq	%ecx, %rcx	# tmp872, D.14935
	salq	$2, %rcx	#, D.14935
	addq	%rcx, %rax	# D.14935, D.14931
	movl	(%rax), %ecx	# *_332, D.14929
	movq	-72(%rbp), %rax	# hmm, tmp873
	movq	312(%rax), %rax	# hmm_86(D)->tsc, D.14934
	addq	$48, %rax	#, D.14934
	movq	(%rax), %rax	# *_335, D.14931
	movl	-52(%rbp), %esi	# k, tmp874
	movslq	%esi, %rsi	# tmp874, D.14935
	salq	$2, %rsi	#, D.14935
	addq	%rsi, %rax	# D.14935, D.14931
	movl	(%rax), %eax	# *_339, D.14929
	addl	%ecx, %eax	# D.14929, D.14929
	cmpl	%eax, %edx	# D.14929, D.14929
	jne	.L78	#,
	.loc 1 723 0
	movq	-40(%rbp), %rax	# tr, tr.84
	movq	8(%rax), %rdx	# tr.84_342->statetype, D.14930
	movl	-60(%rbp), %eax	# tpos, tmp875
	cltq
	addq	%rdx, %rax	# D.14930, D.14930
	movb	$2, (%rax)	#, *_345
	.loc 1 724 0
	movq	-40(%rbp), %rax	# tr, tr.85
	movq	16(%rax), %rax	# tr.85_346->nodeidx, D.14931
	movl	-60(%rbp), %edx	# tpos, tmp876
	movslq	%edx, %rdx	# tmp876, D.14935
	salq	$2, %rdx	#, D.14935
	leaq	(%rax,%rdx), %rcx	#, D.14931
	movl	-52(%rbp), %eax	# k, k.86
	leal	-1(%rax), %edx	#, tmp877
	movl	%edx, -52(%rbp)	# tmp877, k
	movl	%eax, (%rcx)	# k.86, *_350
	.loc 1 725 0
	movq	-40(%rbp), %rax	# tr, tr.87
	movq	24(%rax), %rax	# tr.87_353->pos, D.14931
	movl	-60(%rbp), %edx	# tpos, tmp878
	movslq	%edx, %rdx	# tmp878, D.14935
	salq	$2, %rdx	#, D.14935
	addq	%rdx, %rax	# D.14935, D.14931
	movl	$0, (%rax)	#, *_357
	jmp	.L77	#
.L78:
	.loc 1 727 0
	movl	$.LC9, %edi	#,
	movl	$0, %eax	#,
	call	Die	#
	.loc 1 728 0
	jmp	.L74	#
.L77:
	jmp	.L74	#
.L57:
	.loc 1 731 0
	movl	-56(%rbp), %eax	# i, tmp879
	cltq
	addq	$1, %rax	#, D.14932
	leaq	0(,%rax,8), %rdx	#, D.14932
	movq	-16(%rbp), %rax	# imx, tmp880
	addq	%rdx, %rax	# D.14932, D.14934
	movq	(%rax), %rax	# *_361, D.14931
	movl	-52(%rbp), %edx	# k, tmp881
	movslq	%edx, %rdx	# tmp881, D.14935
	salq	$2, %rdx	#, D.14935
	addq	%rdx, %rax	# D.14935, D.14931
	movl	(%rax), %edx	# *_365, D.14929
	movq	-72(%rbp), %rax	# hmm, tmp882
	movq	328(%rax), %rax	# hmm_86(D)->isc, D.14934
	movl	-56(%rbp), %ecx	# i, tmp883
	movslq	%ecx, %rcx	# tmp883, D.14932
	leaq	1(%rcx), %rsi	#, D.14932
	movq	-80(%rbp), %rcx	# dsq, tmp884
	addq	%rsi, %rcx	# D.14932, D.14930
	movzbl	(%rcx), %ecx	# *_370, D.14933
	movsbq	%cl, %rcx	# D.14933, D.14935
	salq	$3, %rcx	#, D.14935
	addq	%rcx, %rax	# D.14935, D.14934
	movq	(%rax), %rax	# *_374, D.14931
	movl	-52(%rbp), %ecx	# k, tmp885
	movslq	%ecx, %rcx	# tmp885, D.14935
	salq	$2, %rcx	#, D.14935
	addq	%rcx, %rax	# D.14935, D.14931
	movl	(%rax), %eax	# *_378, D.14929
	subl	%eax, %edx	# D.14929, tmp886
	movl	%edx, %eax	# tmp886, tmp886
	movl	%eax, -44(%rbp)	# tmp886, sc
	.loc 1 732 0
	cmpl	$-987654320, -44(%rbp)	#, sc
	jge	.L79	#,
	.loc 1 732 0 is_stmt 0 discriminator 1
	movq	-40(%rbp), %rax	# tr, tr.88
	movq	%rax, %rdi	# tr.88,
	call	P7FreeTrace	#
	movq	-104(%rbp), %rax	# ret_tr, tmp887
	movq	$0, (%rax)	#, *ret_tr_104(D)
	jmp	.L51	#
.L79:
	.loc 1 733 0 is_stmt 1
	movl	-56(%rbp), %eax	# i, tmp888
	cltq
	leaq	0(,%rax,8), %rdx	#, D.14935
	movq	-24(%rbp), %rax	# mmx, tmp889
	addq	%rdx, %rax	# D.14935, D.14934
	movq	(%rax), %rax	# *_384, D.14931
	movl	-52(%rbp), %edx	# k, tmp890
	movslq	%edx, %rdx	# tmp890, D.14935
	salq	$2, %rdx	#, D.14935
	addq	%rdx, %rax	# D.14935, D.14931
	movl	(%rax), %edx	# *_388, D.14929
	movq	-72(%rbp), %rax	# hmm, tmp891
	movq	312(%rax), %rax	# hmm_86(D)->tsc, D.14934
	addq	$8, %rax	#, D.14934
	movq	(%rax), %rax	# *_391, D.14931
	movl	-52(%rbp), %ecx	# k, tmp892
	movslq	%ecx, %rcx	# tmp892, D.14935
	salq	$2, %rcx	#, D.14935
	addq	%rcx, %rax	# D.14935, D.14931
	movl	(%rax), %eax	# *_395, D.14929
	addl	%edx, %eax	# D.14929, D.14929
	cmpl	-44(%rbp), %eax	# sc, D.14929
	jne	.L80	#,
	.loc 1 735 0
	movq	-40(%rbp), %rax	# tr, tr.89
	movq	8(%rax), %rdx	# tr.89_398->statetype, D.14930
	movl	-60(%rbp), %eax	# tpos, tmp893
	cltq
	addq	%rdx, %rax	# D.14930, D.14930
	movb	$1, (%rax)	#, *_401
	.loc 1 736 0
	movq	-40(%rbp), %rax	# tr, tr.90
	movq	16(%rax), %rax	# tr.90_402->nodeidx, D.14931
	movl	-60(%rbp), %edx	# tpos, tmp894
	movslq	%edx, %rdx	# tmp894, D.14935
	salq	$2, %rdx	#, D.14935
	leaq	(%rax,%rdx), %rcx	#, D.14931
	movl	-52(%rbp), %eax	# k, k.91
	leal	-1(%rax), %edx	#, tmp895
	movl	%edx, -52(%rbp)	# tmp895, k
	movl	%eax, (%rcx)	# k.91, *_406
	.loc 1 737 0
	movq	-40(%rbp), %rax	# tr, tr.92
	movq	24(%rax), %rax	# tr.92_409->pos, D.14931
	movl	-60(%rbp), %edx	# tpos, tmp896
	movslq	%edx, %rdx	# tmp896, D.14935
	salq	$2, %rdx	#, D.14935
	leaq	(%rax,%rdx), %rcx	#, D.14931
	movl	-56(%rbp), %eax	# i, i.93
	leal	-1(%rax), %edx	#, tmp897
	movl	%edx, -56(%rbp)	# tmp897, i
	movl	%eax, (%rcx)	# i.93, *_413
	jmp	.L81	#
.L80:
	.loc 1 739 0
	movl	-56(%rbp), %eax	# i, tmp898
	cltq
	leaq	0(,%rax,8), %rdx	#, D.14935
	movq	-16(%rbp), %rax	# imx, tmp899
	addq	%rdx, %rax	# D.14935, D.14934
	movq	(%rax), %rax	# *_418, D.14931
	movl	-52(%rbp), %edx	# k, tmp900
	movslq	%edx, %rdx	# tmp900, D.14935
	salq	$2, %rdx	#, D.14935
	addq	%rdx, %rax	# D.14935, D.14931
	movl	(%rax), %edx	# *_422, D.14929
	movq	-72(%rbp), %rax	# hmm, tmp901
	movq	312(%rax), %rax	# hmm_86(D)->tsc, D.14934
	addq	$32, %rax	#, D.14934
	movq	(%rax), %rax	# *_425, D.14931
	movl	-52(%rbp), %ecx	# k, tmp902
	movslq	%ecx, %rcx	# tmp902, D.14935
	salq	$2, %rcx	#, D.14935
	addq	%rcx, %rax	# D.14935, D.14931
	movl	(%rax), %eax	# *_429, D.14929
	addl	%edx, %eax	# D.14929, D.14929
	cmpl	-44(%rbp), %eax	# sc, D.14929
	jne	.L82	#,
	.loc 1 741 0
	movq	-40(%rbp), %rax	# tr, tr.94
	movq	8(%rax), %rdx	# tr.94_432->statetype, D.14930
	movl	-60(%rbp), %eax	# tpos, tmp903
	cltq
	addq	%rdx, %rax	# D.14930, D.14930
	movb	$3, (%rax)	#, *_435
	.loc 1 742 0
	movq	-40(%rbp), %rax	# tr, tr.95
	movq	16(%rax), %rax	# tr.95_436->nodeidx, D.14931
	movl	-60(%rbp), %edx	# tpos, tmp904
	movslq	%edx, %rdx	# tmp904, D.14935
	salq	$2, %rdx	#, D.14935
	addq	%rax, %rdx	# D.14931, D.14931
	movl	-52(%rbp), %eax	# k, tmp905
	movl	%eax, (%rdx)	# tmp905, *_440
	.loc 1 743 0
	movq	-40(%rbp), %rax	# tr, tr.96
	movq	24(%rax), %rax	# tr.96_441->pos, D.14931
	movl	-60(%rbp), %edx	# tpos, tmp906
	movslq	%edx, %rdx	# tmp906, D.14935
	salq	$2, %rdx	#, D.14935
	leaq	(%rax,%rdx), %rcx	#, D.14931
	movl	-56(%rbp), %eax	# i, i.97
	leal	-1(%rax), %edx	#, tmp907
	movl	%edx, -56(%rbp)	# tmp907, i
	movl	%eax, (%rcx)	# i.97, *_445
	jmp	.L81	#
.L82:
	.loc 1 745 0
	movl	$.LC9, %edi	#,
	movl	$0, %eax	#,
	call	Die	#
	.loc 1 746 0
	jmp	.L74	#
.L81:
	jmp	.L74	#
.L58:
	.loc 1 749 0
	cmpl	$0, -56(%rbp)	#, i
	jne	.L83	#,
	.loc 1 749 0 is_stmt 0 discriminator 1
	movl	-56(%rbp), %eax	# i, tmp908
	cltq
	leaq	0(,%rax,8), %rdx	#, D.14935
	movq	-32(%rbp), %rax	# xmx, tmp909
	addq	%rdx, %rax	# D.14935, D.14934
	movq	(%rax), %rax	# *_450, D.14931
	addq	$16, %rax	#, D.14931
	movl	(%rax), %eax	# *_452, D.14929
	testl	%eax, %eax	# D.14929
	jne	.L83	#,
	.loc 1 751 0 is_stmt 1
	movq	-40(%rbp), %rax	# tr, tr.98
	movq	8(%rax), %rdx	# tr.98_454->statetype, D.14930
	movl	-60(%rbp), %eax	# tpos, tmp910
	cltq
	addq	%rdx, %rax	# D.14930, D.14930
	movb	$4, (%rax)	#, *_457
	.loc 1 752 0
	movq	-40(%rbp), %rax	# tr, tr.99
	movq	16(%rax), %rax	# tr.99_458->nodeidx, D.14931
	movl	-60(%rbp), %edx	# tpos, tmp911
	movslq	%edx, %rdx	# tmp911, D.14935
	salq	$2, %rdx	#, D.14935
	addq	%rdx, %rax	# D.14935, D.14931
	movl	$0, (%rax)	#, *_462
	.loc 1 753 0
	movq	-40(%rbp), %rax	# tr, tr.100
	movq	24(%rax), %rax	# tr.100_463->pos, D.14931
	movl	-60(%rbp), %edx	# tpos, tmp912
	movslq	%edx, %rdx	# tmp912, D.14935
	salq	$2, %rdx	#, D.14935
	addq	%rdx, %rax	# D.14935, D.14931
	movl	$0, (%rax)	#, *_467
	jmp	.L84	#
.L83:
	.loc 1 755 0
	cmpl	$0, -56(%rbp)	#, i
	jle	.L85	#,
	.loc 1 755 0 is_stmt 0 discriminator 1
	movl	-56(%rbp), %eax	# i, tmp913
	cltq
	addq	$1, %rax	#, D.14932
	leaq	0(,%rax,8), %rdx	#, D.14932
	movq	-32(%rbp), %rax	# xmx, tmp914
	addq	%rdx, %rax	# D.14932, D.14934
	movq	(%rax), %rax	# *_471, D.14931
	addq	$16, %rax	#, D.14931
	movl	(%rax), %edx	# *_473, D.14929
	movl	-56(%rbp), %eax	# i, tmp915
	cltq
	leaq	0(,%rax,8), %rcx	#, D.14935
	movq	-32(%rbp), %rax	# xmx, tmp916
	addq	%rcx, %rax	# D.14935, D.14934
	movq	(%rax), %rax	# *_477, D.14931
	addq	$16, %rax	#, D.14931
	movl	(%rax), %ecx	# *_479, D.14929
	movq	-72(%rbp), %rax	# hmm, tmp917
	movl	340(%rax), %eax	# hmm_86(D)->xsc, D.14929
	addl	%ecx, %eax	# D.14929, D.14929
	cmpl	%eax, %edx	# D.14929, D.14929
	jne	.L85	#,
	.loc 1 757 0 is_stmt 1
	movq	-40(%rbp), %rax	# tr, tr.101
	movq	8(%rax), %rdx	# tr.101_483->statetype, D.14930
	movl	-60(%rbp), %eax	# tpos, tmp918
	cltq
	addq	%rdx, %rax	# D.14930, D.14930
	movb	$5, (%rax)	#, *_486
	.loc 1 758 0
	movq	-40(%rbp), %rax	# tr, tr.102
	movq	16(%rax), %rax	# tr.102_487->nodeidx, D.14931
	movl	-60(%rbp), %edx	# tpos, tmp919
	movslq	%edx, %rdx	# tmp919, D.14935
	salq	$2, %rdx	#, D.14935
	addq	%rdx, %rax	# D.14935, D.14931
	movl	$0, (%rax)	#, *_491
	.loc 1 759 0
	movq	-40(%rbp), %rax	# tr, tr.103
	movq	24(%rax), %rax	# tr.103_492->pos, D.14931
	movl	-60(%rbp), %edx	# tpos, tmp920
	movslq	%edx, %rdx	# tmp920, D.14935
	salq	$2, %rdx	#, D.14935
	addq	%rdx, %rax	# D.14935, D.14931
	movl	$0, (%rax)	#, *_496
	.loc 1 760 0
	movq	-40(%rbp), %rax	# tr, tr.104
	movq	24(%rax), %rax	# tr.104_497->pos, D.14931
	movl	-60(%rbp), %edx	# tpos, tmp921
	movslq	%edx, %rdx	# tmp921, D.14935
	salq	$2, %rdx	#, D.14935
	subq	$4, %rdx	#, D.14932
	leaq	(%rax,%rdx), %rcx	#, D.14931
	movl	-56(%rbp), %eax	# i, i.105
	leal	-1(%rax), %edx	#, tmp922
	movl	%edx, -56(%rbp)	# tmp922, i
	movl	%eax, (%rcx)	# i.105, *_502
	jmp	.L84	#
.L85:
	.loc 1 762 0
	movl	$.LC9, %edi	#,
	movl	$0, %eax	#,
	call	Die	#
	.loc 1 763 0
	jmp	.L74	#
.L84:
	jmp	.L74	#
.L59:
	.loc 1 766 0
	movl	-56(%rbp), %eax	# i, tmp923
	cltq
	leaq	0(,%rax,8), %rdx	#, D.14935
	movq	-32(%rbp), %rax	# xmx, tmp924
	addq	%rdx, %rax	# D.14935, D.14934
	movq	(%rax), %rax	# *_507, D.14931
	movl	(%rax), %eax	# *_508, D.14929
	cmpl	$-987654320, %eax	#, D.14929
	jge	.L86	#,
	.loc 1 766 0 is_stmt 0 discriminator 1
	movq	-40(%rbp), %rax	# tr, tr.106
	movq	%rax, %rdi	# tr.106,
	call	P7FreeTrace	#
	movq	-104(%rbp), %rax	# ret_tr, tmp925
	movq	$0, (%rax)	#, *ret_tr_104(D)
	jmp	.L51	#
.L86:
	.loc 1 767 0 is_stmt 1
	movl	-56(%rbp), %eax	# i, tmp926
	cltq
	leaq	0(,%rax,8), %rdx	#, D.14935
	movq	-32(%rbp), %rax	# xmx, tmp927
	addq	%rdx, %rax	# D.14935, D.14934
	movq	(%rax), %rax	# *_513, D.14931
	movl	(%rax), %edx	# *_514, D.14929
	movl	-56(%rbp), %eax	# i, tmp928
	cltq
	leaq	0(,%rax,8), %rcx	#, D.14935
	movq	-32(%rbp), %rax	# xmx, tmp929
	addq	%rcx, %rax	# D.14935, D.14934
	movq	(%rax), %rax	# *_518, D.14931
	addq	$16, %rax	#, D.14931
	movl	(%rax), %ecx	# *_520, D.14929
	movq	-72(%rbp), %rax	# hmm, tmp930
	movl	336(%rax), %eax	# hmm_86(D)->xsc, D.14929
	addl	%ecx, %eax	# D.14929, D.14929
	cmpl	%eax, %edx	# D.14929, D.14929
	jne	.L87	#,
	.loc 1 769 0
	movq	-40(%rbp), %rax	# tr, tr.107
	movq	8(%rax), %rdx	# tr.107_524->statetype, D.14930
	movl	-60(%rbp), %eax	# tpos, tmp931
	cltq
	addq	%rdx, %rax	# D.14930, D.14930
	movb	$5, (%rax)	#, *_527
	.loc 1 770 0
	movq	-40(%rbp), %rax	# tr, tr.108
	movq	16(%rax), %rax	# tr.108_528->nodeidx, D.14931
	movl	-60(%rbp), %edx	# tpos, tmp932
	movslq	%edx, %rdx	# tmp932, D.14935
	salq	$2, %rdx	#, D.14935
	addq	%rdx, %rax	# D.14935, D.14931
	movl	$0, (%rax)	#, *_532
	.loc 1 771 0
	movq	-40(%rbp), %rax	# tr, tr.109
	movq	24(%rax), %rax	# tr.109_533->pos, D.14931
	movl	-60(%rbp), %edx	# tpos, tmp933
	movslq	%edx, %rdx	# tmp933, D.14935
	salq	$2, %rdx	#, D.14935
	addq	%rdx, %rax	# D.14935, D.14931
	movl	$0, (%rax)	#, *_537
	jmp	.L88	#
.L87:
	.loc 1 773 0
	movl	-56(%rbp), %eax	# i, tmp934
	cltq
	leaq	0(,%rax,8), %rdx	#, D.14935
	movq	-32(%rbp), %rax	# xmx, tmp935
	addq	%rdx, %rax	# D.14935, D.14934
	movq	(%rax), %rax	# *_540, D.14931
	movl	(%rax), %edx	# *_541, D.14929
	movl	-56(%rbp), %eax	# i, tmp936
	cltq
	leaq	0(,%rax,8), %rcx	#, D.14935
	movq	-32(%rbp), %rax	# xmx, tmp937
	addq	%rcx, %rax	# D.14935, D.14934
	movq	(%rax), %rax	# *_545, D.14931
	addq	$12, %rax	#, D.14931
	movl	(%rax), %ecx	# *_547, D.14929
	movq	-72(%rbp), %rax	# hmm, tmp938
	movl	360(%rax), %eax	# hmm_86(D)->xsc, D.14929
	addl	%ecx, %eax	# D.14929, D.14929
	cmpl	%eax, %edx	# D.14929, D.14929
	jne	.L89	#,
	.loc 1 775 0
	movq	-40(%rbp), %rax	# tr, tr.110
	movq	8(%rax), %rdx	# tr.110_551->statetype, D.14930
	movl	-60(%rbp), %eax	# tpos, tmp939
	cltq
	addq	%rdx, %rax	# D.14930, D.14930
	movb	$10, (%rax)	#, *_554
	.loc 1 776 0
	movq	-40(%rbp), %rax	# tr, tr.111
	movq	16(%rax), %rax	# tr.111_555->nodeidx, D.14931
	movl	-60(%rbp), %edx	# tpos, tmp940
	movslq	%edx, %rdx	# tmp940, D.14935
	salq	$2, %rdx	#, D.14935
	addq	%rdx, %rax	# D.14935, D.14931
	movl	$0, (%rax)	#, *_559
	.loc 1 777 0
	movq	-40(%rbp), %rax	# tr, tr.112
	movq	24(%rax), %rax	# tr.112_560->pos, D.14931
	movl	-60(%rbp), %edx	# tpos, tmp941
	movslq	%edx, %rdx	# tmp941, D.14935
	salq	$2, %rdx	#, D.14935
	addq	%rdx, %rax	# D.14935, D.14931
	movl	$0, (%rax)	#, *_564
	jmp	.L88	#
.L89:
	.loc 1 780 0
	movl	$.LC9, %edi	#,
	movl	$0, %eax	#,
	call	Die	#
	.loc 1 781 0
	jmp	.L74	#
.L88:
	jmp	.L74	#
.L60:
	.loc 1 784 0
	movl	-56(%rbp), %eax	# i, tmp942
	cltq
	leaq	0(,%rax,8), %rdx	#, D.14935
	movq	-32(%rbp), %rax	# xmx, tmp943
	addq	%rdx, %rax	# D.14935, D.14934
	movq	(%rax), %rax	# *_567, D.14931
	addq	$4, %rax	#, D.14931
	movl	(%rax), %eax	# *_569, D.14929
	cmpl	$-987654320, %eax	#, D.14929
	jge	.L90	#,
	.loc 1 784 0 is_stmt 0 discriminator 1
	movq	-40(%rbp), %rax	# tr, tr.113
	movq	%rax, %rdi	# tr.113,
	call	P7FreeTrace	#
	movq	-104(%rbp), %rax	# ret_tr, tmp944
	movq	$0, (%rax)	#, *ret_tr_104(D)
	jmp	.L51	#
.L90:
	.loc 1 785 0 is_stmt 1
	movq	-72(%rbp), %rax	# hmm, tmp945
	movl	136(%rax), %eax	# hmm_86(D)->M, tmp946
	movl	%eax, -52(%rbp)	# tmp946, k
	jmp	.L91	#
.L99:
	.loc 1 786 0
	movl	-56(%rbp), %eax	# i, tmp947
	cltq
	leaq	0(,%rax,8), %rdx	#, D.14935
	movq	-32(%rbp), %rax	# xmx, tmp948
	addq	%rdx, %rax	# D.14935, D.14934
	movq	(%rax), %rax	# *_575, D.14931
	addq	$4, %rax	#, D.14931
	movl	(%rax), %edx	# *_577, D.14929
	movl	-56(%rbp), %eax	# i, tmp949
	cltq
	leaq	0(,%rax,8), %rcx	#, D.14935
	movq	-24(%rbp), %rax	# mmx, tmp950
	addq	%rcx, %rax	# D.14935, D.14934
	movq	(%rax), %rax	# *_581, D.14931
	movl	-52(%rbp), %ecx	# k, tmp951
	movslq	%ecx, %rcx	# tmp951, D.14935
	salq	$2, %rcx	#, D.14935
	addq	%rcx, %rax	# D.14935, D.14931
	movl	(%rax), %ecx	# *_585, D.14929
	movq	-72(%rbp), %rax	# hmm, tmp952
	movq	376(%rax), %rax	# hmm_86(D)->esc, D.14931
	movl	-52(%rbp), %esi	# k, tmp953
	movslq	%esi, %rsi	# tmp953, D.14935
	salq	$2, %rsi	#, D.14935
	addq	%rsi, %rax	# D.14935, D.14931
	movl	(%rax), %eax	# *_590, D.14929
	addl	%ecx, %eax	# D.14929, D.14929
	cmpl	%eax, %edx	# D.14929, D.14929
	jne	.L92	#,
	.loc 1 789 0
	movq	-72(%rbp), %rax	# hmm, tmp954
	movq	216(%rax), %rax	# hmm_86(D)->end, D.14937
	movl	-52(%rbp), %edx	# k, tmp955
	movslq	%edx, %rdx	# tmp955, D.14935
	salq	$2, %rdx	#, D.14935
	addq	%rdx, %rax	# D.14935, D.14937
	movl	(%rax), %eax	# *_596, D.14936
	movss	.LC10(%rip), %xmm1	#,
	movl	%eax, -88(%rbp)	# D.14936, %sfp
	movss	-88(%rbp), %xmm0	# %sfp,
	call	Prob2Score	#
	cvtsi2sd	%eax, %xmm0	# D.14929, D.14938
	movsd	.LC8(%rip), %xmm1	#, tmp956
	addsd	%xmm0, %xmm1	# D.14938, D.14938
	movq	-72(%rbp), %rax	# hmm, tmp957
	movq	376(%rax), %rax	# hmm_86(D)->esc, D.14931
	movl	-52(%rbp), %edx	# k, tmp958
	movslq	%edx, %rdx	# tmp958, D.14935
	salq	$2, %rdx	#, D.14935
	addq	%rdx, %rax	# D.14935, D.14931
	movl	(%rax), %eax	# *_604, D.14929
	cvtsi2sd	%eax, %xmm0	# D.14929, D.14938
	ucomisd	%xmm1, %xmm0	# D.14938, D.14938
	jb	.L93	#,
.LBB2:
	.loc 1 792 0
	movq	-72(%rbp), %rax	# hmm, tmp959
	movl	136(%rax), %eax	# hmm_86(D)->M, tmp960
	movl	%eax, -48(%rbp)	# tmp960, dk
	jmp	.L95	#
.L97:
	.loc 1 794 0
	movq	-40(%rbp), %rax	# tr, tr.114
	movq	8(%rax), %rdx	# tr.114_608->statetype, D.14930
	movl	-60(%rbp), %eax	# tpos, tmp961
	cltq
	addq	%rdx, %rax	# D.14930, D.14930
	movb	$2, (%rax)	#, *_611
	.loc 1 795 0
	movq	-40(%rbp), %rax	# tr, tr.115
	movq	16(%rax), %rax	# tr.115_612->nodeidx, D.14931
	movl	-60(%rbp), %edx	# tpos, tmp962
	movslq	%edx, %rdx	# tmp962, D.14935
	salq	$2, %rdx	#, D.14935
	addq	%rax, %rdx	# D.14931, D.14931
	movl	-48(%rbp), %eax	# dk, tmp963
	movl	%eax, (%rdx)	# tmp963, *_616
	.loc 1 796 0
	movq	-40(%rbp), %rax	# tr, tr.116
	movq	24(%rax), %rax	# tr.116_617->pos, D.14931
	movl	-60(%rbp), %edx	# tpos, tmp964
	movslq	%edx, %rdx	# tmp964, D.14935
	salq	$2, %rdx	#, D.14935
	addq	%rdx, %rax	# D.14935, D.14931
	movl	$0, (%rax)	#, *_621
	.loc 1 797 0
	addl	$1, -60(%rbp)	#, tpos
	.loc 1 798 0
	movl	-60(%rbp), %eax	# tpos, tmp965
	cmpl	-64(%rbp), %eax	# curralloc, tmp965
	jne	.L96	#,
	.loc 1 800 0
	movl	-84(%rbp), %eax	# N, tmp966
	addl	%eax, -64(%rbp)	# tmp966, curralloc
	.loc 1 801 0
	movq	-40(%rbp), %rax	# tr, tr.117
	movl	-64(%rbp), %edx	# curralloc, tmp967
	movl	%edx, %esi	# tmp967,
	movq	%rax, %rdi	# tr.117,
	call	P7ReallocTrace	#
.L96:
	.loc 1 792 0
	subl	$1, -48(%rbp)	#, dk
.L95:
	.loc 1 792 0 is_stmt 0 discriminator 1
	movl	-48(%rbp), %eax	# dk, tmp968
	cmpl	-52(%rbp), %eax	# k, tmp968
	jg	.L97	#,
.L93:
.LBE2:
	.loc 1 806 0 is_stmt 1
	movq	-40(%rbp), %rax	# tr, tr.118
	movq	8(%rax), %rdx	# tr.118_626->statetype, D.14930
	movl	-60(%rbp), %eax	# tpos, tmp969
	cltq
	addq	%rdx, %rax	# D.14930, D.14930
	movb	$1, (%rax)	#, *_629
	.loc 1 807 0
	movq	-40(%rbp), %rax	# tr, tr.119
	movq	16(%rax), %rax	# tr.119_630->nodeidx, D.14931
	movl	-60(%rbp), %edx	# tpos, tmp970
	movslq	%edx, %rdx	# tmp970, D.14935
	salq	$2, %rdx	#, D.14935
	leaq	(%rax,%rdx), %rcx	#, D.14931
	movl	-52(%rbp), %eax	# k, k.120
	leal	-1(%rax), %edx	#, tmp971
	movl	%edx, -52(%rbp)	# tmp971, k
	movl	%eax, (%rcx)	# k.120, *_634
	.loc 1 808 0
	movq	-40(%rbp), %rax	# tr, tr.121
	movq	24(%rax), %rax	# tr.121_637->pos, D.14931
	movl	-60(%rbp), %edx	# tpos, tmp972
	movslq	%edx, %rdx	# tmp972, D.14935
	salq	$2, %rdx	#, D.14935
	leaq	(%rax,%rdx), %rcx	#, D.14931
	movl	-56(%rbp), %eax	# i, i.122
	leal	-1(%rax), %edx	#, tmp973
	movl	%edx, -56(%rbp)	# tmp973, i
	movl	%eax, (%rcx)	# i.122, *_641
	.loc 1 809 0
	jmp	.L98	#
.L92:
	.loc 1 785 0
	subl	$1, -52(%rbp)	#, k
.L91:
	.loc 1 785 0 is_stmt 0 discriminator 1
	cmpl	$0, -52(%rbp)	#, k
	jg	.L99	#,
.L98:
	.loc 1 811 0 is_stmt 1
	cmpl	$0, -52(%rbp)	#, k
	jns	.L100	#,
	.loc 1 811 0 is_stmt 0 discriminator 1
	movl	$.LC9, %edi	#,
	movl	$0, %eax	#,
	call	Die	#
	.loc 1 812 0 is_stmt 1 discriminator 1
	jmp	.L74	#
.L100:
	.loc 1 812 0 is_stmt 0
	jmp	.L74	#
.L61:
	.loc 1 815 0 is_stmt 1
	movl	-56(%rbp), %eax	# i, tmp974
	cltq
	leaq	0(,%rax,8), %rdx	#, D.14935
	movq	-32(%rbp), %rax	# xmx, tmp975
	addq	%rdx, %rax	# D.14935, D.14934
	movq	(%rax), %rax	# *_647, D.14931
	addq	$8, %rax	#, D.14931
	movl	(%rax), %eax	# *_649, D.14929
	cmpl	$-987654320, %eax	#, D.14929
	jge	.L101	#,
	.loc 1 815 0 is_stmt 0 discriminator 1
	movq	-40(%rbp), %rax	# tr, tr.123
	movq	%rax, %rdi	# tr.123,
	call	P7FreeTrace	#
	movq	-104(%rbp), %rax	# ret_tr, tmp976
	movq	$0, (%rax)	#, *ret_tr_104(D)
	jmp	.L51	#
.L101:
	.loc 1 816 0 is_stmt 1
	movl	-56(%rbp), %eax	# i, tmp977
	cltq
	leaq	0(,%rax,8), %rdx	#, D.14935
	movq	-32(%rbp), %rax	# xmx, tmp978
	addq	%rdx, %rax	# D.14935, D.14934
	movq	(%rax), %rax	# *_654, D.14931
	addq	$8, %rax	#, D.14931
	movl	(%rax), %edx	# *_656, D.14929
	movl	-56(%rbp), %eax	# i, tmp979
	cltq
	salq	$3, %rax	#, D.14935
	leaq	-8(%rax), %rcx	#, D.14932
	movq	-32(%rbp), %rax	# xmx, tmp980
	addq	%rcx, %rax	# D.14932, D.14934
	movq	(%rax), %rax	# *_661, D.14931
	addq	$8, %rax	#, D.14931
	movl	(%rax), %ecx	# *_663, D.14929
	movq	-72(%rbp), %rax	# hmm, tmp981
	movl	356(%rax), %eax	# hmm_86(D)->xsc, D.14929
	addl	%ecx, %eax	# D.14929, D.14929
	cmpl	%eax, %edx	# D.14929, D.14929
	jne	.L102	#,
	.loc 1 818 0
	movq	-40(%rbp), %rax	# tr, tr.124
	movq	8(%rax), %rdx	# tr.124_667->statetype, D.14930
	movl	-60(%rbp), %eax	# tpos, tmp982
	cltq
	addq	%rdx, %rax	# D.14930, D.14930
	movb	$8, (%rax)	#, *_670
	.loc 1 819 0
	movq	-40(%rbp), %rax	# tr, tr.125
	movq	16(%rax), %rax	# tr.125_671->nodeidx, D.14931
	movl	-60(%rbp), %edx	# tpos, tmp983
	movslq	%edx, %rdx	# tmp983, D.14935
	salq	$2, %rdx	#, D.14935
	addq	%rdx, %rax	# D.14935, D.14931
	movl	$0, (%rax)	#, *_675
	.loc 1 820 0
	movq	-40(%rbp), %rax	# tr, tr.126
	movq	24(%rax), %rax	# tr.126_676->pos, D.14931
	movl	-60(%rbp), %edx	# tpos, tmp984
	movslq	%edx, %rdx	# tmp984, D.14935
	salq	$2, %rdx	#, D.14935
	addq	%rdx, %rax	# D.14935, D.14931
	movl	$0, (%rax)	#, *_680
	.loc 1 821 0
	movq	-40(%rbp), %rax	# tr, tr.127
	movq	24(%rax), %rax	# tr.127_681->pos, D.14931
	movl	-60(%rbp), %edx	# tpos, tmp985
	movslq	%edx, %rdx	# tmp985, D.14935
	salq	$2, %rdx	#, D.14935
	subq	$4, %rdx	#, D.14932
	leaq	(%rax,%rdx), %rcx	#, D.14931
	movl	-56(%rbp), %eax	# i, i.128
	leal	-1(%rax), %edx	#, tmp986
	movl	%edx, -56(%rbp)	# tmp986, i
	movl	%eax, (%rcx)	# i.128, *_686
	jmp	.L103	#
.L102:
	.loc 1 823 0
	movl	-56(%rbp), %eax	# i, tmp987
	cltq
	leaq	0(,%rax,8), %rdx	#, D.14935
	movq	-32(%rbp), %rax	# xmx, tmp988
	addq	%rdx, %rax	# D.14935, D.14934
	movq	(%rax), %rax	# *_691, D.14931
	addq	$8, %rax	#, D.14931
	movl	(%rax), %edx	# *_693, D.14929
	movl	-56(%rbp), %eax	# i, tmp989
	cltq
	leaq	0(,%rax,8), %rcx	#, D.14935
	movq	-32(%rbp), %rax	# xmx, tmp990
	addq	%rcx, %rax	# D.14935, D.14934
	movq	(%rax), %rax	# *_697, D.14931
	addq	$4, %rax	#, D.14931
	movl	(%rax), %ecx	# *_699, D.14929
	movq	-72(%rbp), %rax	# hmm, tmp991
	movl	344(%rax), %eax	# hmm_86(D)->xsc, D.14929
	addl	%ecx, %eax	# D.14929, D.14929
	cmpl	%eax, %edx	# D.14929, D.14929
	jne	.L104	#,
	.loc 1 825 0
	movq	-40(%rbp), %rax	# tr, tr.129
	movq	8(%rax), %rdx	# tr.129_703->statetype, D.14930
	movl	-60(%rbp), %eax	# tpos, tmp992
	cltq
	addq	%rdx, %rax	# D.14930, D.14930
	movb	$7, (%rax)	#, *_706
	.loc 1 826 0
	movq	-40(%rbp), %rax	# tr, tr.130
	movq	16(%rax), %rax	# tr.130_707->nodeidx, D.14931
	movl	-60(%rbp), %edx	# tpos, tmp993
	movslq	%edx, %rdx	# tmp993, D.14935
	salq	$2, %rdx	#, D.14935
	addq	%rdx, %rax	# D.14935, D.14931
	movl	$0, (%rax)	#, *_711
	.loc 1 827 0
	movq	-40(%rbp), %rax	# tr, tr.131
	movq	24(%rax), %rax	# tr.131_712->pos, D.14931
	movl	-60(%rbp), %edx	# tpos, tmp994
	movslq	%edx, %rdx	# tmp994, D.14935
	salq	$2, %rdx	#, D.14935
	addq	%rdx, %rax	# D.14935, D.14931
	movl	$0, (%rax)	#, *_716
	jmp	.L103	#
.L104:
	.loc 1 830 0
	movl	$.LC11, %edi	#,
	movl	$0, %eax	#,
	call	Die	#
	.loc 1 831 0
	jmp	.L74	#
.L103:
	jmp	.L74	#
.L62:
	.loc 1 834 0
	movl	-56(%rbp), %eax	# i, tmp995
	cltq
	leaq	0(,%rax,8), %rdx	#, D.14935
	movq	-32(%rbp), %rax	# xmx, tmp996
	addq	%rdx, %rax	# D.14935, D.14934
	movq	(%rax), %rax	# *_719, D.14931
	addq	$12, %rax	#, D.14931
	movl	(%rax), %eax	# *_721, D.14929
	cmpl	$-987654320, %eax	#, D.14929
	jge	.L105	#,
	.loc 1 834 0 is_stmt 0 discriminator 1
	movq	-40(%rbp), %rax	# tr, tr.132
	movq	%rax, %rdi	# tr.132,
	call	P7FreeTrace	#
	movq	-104(%rbp), %rax	# ret_tr, tmp997
	movq	$0, (%rax)	#, *ret_tr_104(D)
	jmp	.L51	#
.L105:
	.loc 1 835 0 is_stmt 1
	movl	-56(%rbp), %eax	# i, tmp998
	cltq
	leaq	0(,%rax,8), %rdx	#, D.14935
	movq	-32(%rbp), %rax	# xmx, tmp999
	addq	%rdx, %rax	# D.14935, D.14934
	movq	(%rax), %rax	# *_726, D.14931
	addq	$12, %rax	#, D.14931
	movl	(%rax), %edx	# *_728, D.14929
	movl	-56(%rbp), %eax	# i, tmp1000
	cltq
	salq	$3, %rax	#, D.14935
	leaq	-8(%rax), %rcx	#, D.14932
	movq	-32(%rbp), %rax	# xmx, tmp1001
	addq	%rcx, %rax	# D.14932, D.14934
	movq	(%rax), %rax	# *_733, D.14931
	addq	$12, %rax	#, D.14931
	movl	(%rax), %ecx	# *_735, D.14929
	movq	-72(%rbp), %rax	# hmm, tmp1002
	movl	364(%rax), %eax	# hmm_86(D)->xsc, D.14929
	addl	%ecx, %eax	# D.14929, D.14929
	cmpl	%eax, %edx	# D.14929, D.14929
	jne	.L106	#,
	.loc 1 837 0
	movq	-40(%rbp), %rax	# tr, tr.133
	movq	8(%rax), %rdx	# tr.133_739->statetype, D.14930
	movl	-60(%rbp), %eax	# tpos, tmp1003
	cltq
	addq	%rdx, %rax	# D.14930, D.14930
	movb	$10, (%rax)	#, *_742
	.loc 1 838 0
	movq	-40(%rbp), %rax	# tr, tr.134
	movq	16(%rax), %rax	# tr.134_743->nodeidx, D.14931
	movl	-60(%rbp), %edx	# tpos, tmp1004
	movslq	%edx, %rdx	# tmp1004, D.14935
	salq	$2, %rdx	#, D.14935
	addq	%rdx, %rax	# D.14935, D.14931
	movl	$0, (%rax)	#, *_747
	.loc 1 839 0
	movq	-40(%rbp), %rax	# tr, tr.135
	movq	24(%rax), %rax	# tr.135_748->pos, D.14931
	movl	-60(%rbp), %edx	# tpos, tmp1005
	movslq	%edx, %rdx	# tmp1005, D.14935
	salq	$2, %rdx	#, D.14935
	addq	%rdx, %rax	# D.14935, D.14931
	movl	$0, (%rax)	#, *_752
	.loc 1 840 0
	movq	-40(%rbp), %rax	# tr, tr.136
	movq	24(%rax), %rax	# tr.136_753->pos, D.14931
	movl	-60(%rbp), %edx	# tpos, tmp1006
	movslq	%edx, %rdx	# tmp1006, D.14935
	salq	$2, %rdx	#, D.14935
	subq	$4, %rdx	#, D.14932
	leaq	(%rax,%rdx), %rcx	#, D.14931
	movl	-56(%rbp), %eax	# i, i.137
	leal	-1(%rax), %edx	#, tmp1007
	movl	%edx, -56(%rbp)	# tmp1007, i
	movl	%eax, (%rcx)	# i.137, *_758
	jmp	.L107	#
.L106:
	.loc 1 842 0
	movl	-56(%rbp), %eax	# i, tmp1008
	cltq
	leaq	0(,%rax,8), %rdx	#, D.14935
	movq	-32(%rbp), %rax	# xmx, tmp1009
	addq	%rdx, %rax	# D.14935, D.14934
	movq	(%rax), %rax	# *_763, D.14931
	addq	$12, %rax	#, D.14931
	movl	(%rax), %edx	# *_765, D.14929
	movl	-56(%rbp), %eax	# i, tmp1010
	cltq
	leaq	0(,%rax,8), %rcx	#, D.14935
	movq	-32(%rbp), %rax	# xmx, tmp1011
	addq	%rcx, %rax	# D.14935, D.14934
	movq	(%rax), %rax	# *_769, D.14931
	addq	$4, %rax	#, D.14931
	movl	(%rax), %ecx	# *_771, D.14929
	movq	-72(%rbp), %rax	# hmm, tmp1012
	movl	348(%rax), %eax	# hmm_86(D)->xsc, D.14929
	addl	%ecx, %eax	# D.14929, D.14929
	cmpl	%eax, %edx	# D.14929, D.14929
	jne	.L108	#,
	.loc 1 844 0
	movq	-40(%rbp), %rax	# tr, tr.138
	movq	8(%rax), %rdx	# tr.138_775->statetype, D.14930
	movl	-60(%rbp), %eax	# tpos, tmp1013
	cltq
	addq	%rdx, %rax	# D.14930, D.14930
	movb	$7, (%rax)	#, *_778
	.loc 1 845 0
	movq	-40(%rbp), %rax	# tr, tr.139
	movq	16(%rax), %rax	# tr.139_779->nodeidx, D.14931
	movl	-60(%rbp), %edx	# tpos, tmp1014
	movslq	%edx, %rdx	# tmp1014, D.14935
	salq	$2, %rdx	#, D.14935
	addq	%rdx, %rax	# D.14935, D.14931
	movl	$0, (%rax)	#, *_783
	.loc 1 846 0
	movq	-40(%rbp), %rax	# tr, tr.140
	movq	24(%rax), %rax	# tr.140_784->pos, D.14931
	movl	-60(%rbp), %edx	# tpos, tmp1015
	movslq	%edx, %rdx	# tmp1015, D.14935
	salq	$2, %rdx	#, D.14935
	addq	%rdx, %rax	# D.14935, D.14931
	movl	$0, (%rax)	#, *_788
	jmp	.L107	#
.L108:
	.loc 1 849 0
	movl	$.LC11, %edi	#,
	movl	$0, %eax	#,
	call	Die	#
	.loc 1 850 0
	jmp	.L74	#
.L107:
	jmp	.L74	#
.L53:
	.loc 1 853 0
	movl	$.LC9, %edi	#,
	movl	$0, %eax	#,
	call	Die	#
.L74:
	.loc 1 857 0
	addl	$1, -60(%rbp)	#, tpos
	.loc 1 858 0
	movl	-60(%rbp), %eax	# tpos, tmp1016
	cmpl	-64(%rbp), %eax	# curralloc, tmp1016
	jne	.L52	#,
	.loc 1 860 0
	movl	-84(%rbp), %eax	# N, tmp1017
	addl	%eax, -64(%rbp)	# tmp1017, curralloc
	.loc 1 861 0
	movq	-40(%rbp), %rax	# tr, tr.141
	movl	-64(%rbp), %edx	# curralloc, tmp1018
	movl	%edx, %esi	# tmp1018,
	movq	%rax, %rdi	# tr.141,
	call	P7ReallocTrace	#
.L52:
	.loc 1 665 0 discriminator 1
	movq	-40(%rbp), %rax	# tr, tr.142
	movq	8(%rax), %rax	# tr.142_63->statetype, D.14930
	movl	-60(%rbp), %edx	# tpos, tmp1019
	movslq	%edx, %rdx	# tmp1019, D.14932
	subq	$1, %rdx	#, D.14932
	addq	%rdx, %rax	# D.14932, D.14930
	movzbl	(%rax), %eax	# *_67, D.14933
	cmpb	$4, %al	#, D.14933
	jne	.L109	#,
	.loc 1 865 0
	movq	-40(%rbp), %rax	# tr, tr.143
	movl	-60(%rbp), %edx	# tpos, tmp1020
	movl	%edx, (%rax)	# tmp1020, tr.143_792->tlen
	.loc 1 866 0
	movq	-40(%rbp), %rax	# tr, tr.144
	movq	%rax, %rdi	# tr.144,
	call	P7ReverseTrace	#
	.loc 1 867 0
	movq	-40(%rbp), %rdx	# tr, tr.145
	movq	-104(%rbp), %rax	# ret_tr, tmp1021
	movq	%rdx, (%rax)	# tr.145, *ret_tr_104(D)
.L51:
	.loc 1 868 0
	leave
	.cfi_def_cfa 7, 8
	ret
	.cfi_endproc
.LFE12:
	.size	P7ViterbiTrace, .-P7ViterbiTrace
	.globl	P7SmallViterbi
	.type	P7SmallViterbi, @function
P7SmallViterbi:
.LFB13:
	.loc 1 897 0
	.cfi_startproc
	pushq	%rbp	#
	.cfi_def_cfa_offset 16
	.cfi_offset 6, -16
	movq	%rsp, %rbp	#,
	.cfi_def_cfa_register 6
	subq	$112, %rsp	#,
	movq	%rdi, -72(%rbp)	# dsq, dsq
	movl	%esi, -76(%rbp)	# L, L
	movq	%rdx, -88(%rbp)	# hmm, hmm
	movq	%rcx, -96(%rbp)	# mx, mx
	movq	%r8, -104(%rbp)	# ret_tr, ret_tr
	.loc 1 915 0
	leaq	-24(%rbp), %rcx	#, tmp305
	movq	-88(%rbp), %rdx	# hmm, tmp306
	movl	-76(%rbp), %esi	# L, tmp307
	movq	-72(%rbp), %rax	# dsq, tmp308
	movq	%rax, %rdi	# tmp308,
	call	P7ParsingViterbi	#
	movss	%xmm0, -80(%rbp)	#, %sfp
	movl	-80(%rbp), %eax	# %sfp, tmp309
	movl	%eax, -36(%rbp)	# tmp309, sc
	.loc 1 919 0
	movq	-24(%rbp), %rax	# ctr, ctr.146
	testq	%rax, %rax	# ctr.146
	je	.L114	#,
	.loc 1 919 0 is_stmt 0 discriminator 1
	cmpq	$0, -104(%rbp)	#, ret_tr
	jne	.L115	#,
.L114:
	.loc 1 921 0 is_stmt 1
	movq	-24(%rbp), %rax	# ctr, ctr.147
	movq	%rax, %rdi	# ctr.147,
	call	P7FreeTrace	#
	.loc 1 922 0
	movl	-36(%rbp), %eax	# sc, D.14941
	jmp	.L138	#
.L115:
	.loc 1 929 0
	movq	-24(%rbp), %rax	# ctr, ctr.148
	movl	(%rax), %eax	# ctr.148_24->tlen, D.14942
	movl	%eax, %edx	# D.14942, tmp310
	shrl	$31, %edx	#, tmp310
	addl	%edx, %eax	# tmp310, tmp311
	sarl	%eax	# tmp312
	subl	$1, %eax	#, tmp313
	movl	%eax, -32(%rbp)	# tmp313, ndom
	.loc 1 930 0
	movl	-32(%rbp), %eax	# ndom, tmp314
	cltq
	salq	$3, %rax	#, D.14943
	movq	%rax, %rdx	# D.14943,
	movl	$930, %esi	#,
	movl	$.LC0, %edi	#,
	call	sre_malloc	#
	movq	%rax, -8(%rbp)	# tmp315, tarr
	.loc 1 931 0
	movl	$0, -44(%rbp)	#, totlen
	movl	-44(%rbp), %eax	# totlen, tmp316
	movl	%eax, -48(%rbp)	# tmp316, tlen
	.loc 1 932 0
	movl	$0, -60(%rbp)	#, i
	jmp	.L117	#
.L120:
	.loc 1 934 0
	movq	-24(%rbp), %rax	# ctr, ctr.149
	movq	24(%rax), %rax	# ctr.149_34->pos, D.14944
	movl	-60(%rbp), %edx	# i, tmp317
	movslq	%edx, %rdx	# tmp317, D.14945
	addq	$1, %rdx	#, D.14945
	salq	$3, %rdx	#, D.14945
	addq	%rdx, %rax	# D.14945, D.14944
	movl	(%rax), %edx	# *_39, D.14942
	movq	-24(%rbp), %rax	# ctr, ctr.150
	movq	24(%rax), %rax	# ctr.150_41->pos, D.14944
	movl	-60(%rbp), %ecx	# i, tmp318
	movslq	%ecx, %rcx	# tmp318, D.14945
	salq	$3, %rcx	#, D.14945
	addq	$4, %rcx	#, D.14945
	addq	%rcx, %rax	# D.14945, D.14944
	movl	(%rax), %eax	# *_46, D.14942
	subl	%eax, %edx	# D.14942, tmp319
	movl	%edx, %eax	# tmp319, tmp319
	movl	%eax, -28(%rbp)	# tmp319, sqlen
	.loc 1 936 0
	movq	-88(%rbp), %rax	# hmm, tmp320
	movl	136(%rax), %edx	# hmm_20(D)->M, D.14942
	movl	-28(%rbp), %eax	# sqlen, tmp321
	movl	%edx, %esi	# D.14942,
	movl	%eax, %edi	# tmp321,
	call	P7ViterbiSize	#
	cmpl	$1000, %eax	#, D.14942
	jle	.L118	#,
	.loc 1 937 0
	movl	-60(%rbp), %eax	# i, tmp322
	cltq
	leaq	0(,%rax,8), %rdx	#, D.14943
	movq	-8(%rbp), %rax	# tarr, tmp323
	leaq	(%rdx,%rax), %rcx	#, D.14946
	movq	-24(%rbp), %rax	# ctr, ctr.151
	movq	24(%rax), %rax	# ctr.151_54->pos, D.14944
	movl	-60(%rbp), %edx	# i, tmp324
	movslq	%edx, %rdx	# tmp324, D.14945
	salq	$3, %rdx	#, D.14945
	addq	$4, %rdx	#, D.14945
	addq	%rdx, %rax	# D.14945, D.14944
	movl	(%rax), %eax	# *_59, D.14942
	movslq	%eax, %rdx	# D.14942, D.14945
	movq	-72(%rbp), %rax	# dsq, tmp325
	leaq	(%rdx,%rax), %rdi	#, D.14947
	movq	-88(%rbp), %rdx	# hmm, tmp326
	movl	-28(%rbp), %eax	# sqlen, tmp327
	movl	%eax, %esi	# tmp327,
	call	P7WeeViterbi	#
	jmp	.L119	#
.L118:
	.loc 1 939 0
	movl	-60(%rbp), %eax	# i, tmp328
	cltq
	leaq	0(,%rax,8), %rdx	#, D.14943
	movq	-8(%rbp), %rax	# tarr, tmp329
	leaq	(%rdx,%rax), %rsi	#, D.14946
	movq	-24(%rbp), %rax	# ctr, ctr.152
	movq	24(%rax), %rax	# ctr.152_66->pos, D.14944
	movl	-60(%rbp), %edx	# i, tmp330
	movslq	%edx, %rdx	# tmp330, D.14945
	salq	$3, %rdx	#, D.14945
	addq	$4, %rdx	#, D.14945
	addq	%rdx, %rax	# D.14945, D.14944
	movl	(%rax), %eax	# *_71, D.14942
	movslq	%eax, %rdx	# D.14942, D.14945
	movq	-72(%rbp), %rax	# dsq, tmp331
	leaq	(%rdx,%rax), %rdi	#, D.14947
	movq	-96(%rbp), %rcx	# mx, tmp332
	movq	-88(%rbp), %rdx	# hmm, tmp333
	movl	-28(%rbp), %eax	# sqlen, tmp334
	movq	%rsi, %r8	# D.14946,
	movl	%eax, %esi	# tmp334,
	call	P7Viterbi	#
.L119:
	.loc 1 941 0
	movl	-60(%rbp), %eax	# i, tmp335
	cltq
	leaq	0(,%rax,8), %rdx	#, D.14943
	movq	-8(%rbp), %rax	# tarr, tmp336
	addq	%rdx, %rax	# D.14943, D.14946
	movq	(%rax), %rax	# *_78, D.14948
	movl	(%rax), %eax	# _79->tlen, D.14942
	subl	$4, %eax	#, D.14942
	addl	%eax, -48(%rbp)	# D.14942, tlen
	.loc 1 942 0
	movl	-28(%rbp), %eax	# sqlen, tmp337
	addl	%eax, -44(%rbp)	# tmp337, totlen
	.loc 1 932 0
	addl	$1, -60(%rbp)	#, i
.L117:
	.loc 1 932 0 is_stmt 0 discriminator 1
	movl	-60(%rbp), %eax	# i, tmp338
	cmpl	-32(%rbp), %eax	# ndom, tmp338
	jl	.L120	#,
	.loc 1 957 0 is_stmt 1
	movl	-32(%rbp), %eax	# ndom, tmp339
	leal	3(%rax), %ecx	#, D.14942
	movl	-44(%rbp), %eax	# totlen, tmp340
	movl	-76(%rbp), %edx	# L, tmp341
	subl	%eax, %edx	# tmp340, D.14942
	movl	%edx, %eax	# D.14942, D.14942
	addl	%ecx, %eax	# D.14942, D.14942
	addl	%eax, -48(%rbp)	# D.14942, tlen
	.loc 1 958 0
	leaq	-16(%rbp), %rdx	#, tmp342
	movl	-48(%rbp), %eax	# tlen, tmp343
	movq	%rdx, %rsi	# tmp342,
	movl	%eax, %edi	# tmp343,
	call	P7AllocTrace	#
	.loc 1 959 0
	movq	-16(%rbp), %rax	# tr, tr.153
	movl	-48(%rbp), %edx	# tlen, tmp344
	movl	%edx, (%rax)	# tmp344, tr.153_89->tlen
	.loc 1 963 0
	movq	-16(%rbp), %rax	# tr, tr.154
	movq	8(%rax), %rax	# tr.154_90->statetype, D.14947
	movb	$4, (%rax)	#, *_91
	.loc 1 964 0
	movq	-16(%rbp), %rax	# tr, tr.155
	movq	16(%rax), %rax	# tr.155_92->nodeidx, D.14944
	movl	$0, (%rax)	#, *_93
	.loc 1 965 0
	movq	-16(%rbp), %rax	# tr, tr.156
	movq	24(%rax), %rax	# tr.156_94->pos, D.14944
	movl	$0, (%rax)	#, *_95
	.loc 1 966 0
	movq	-16(%rbp), %rax	# tr, tr.157
	movq	8(%rax), %rax	# tr.157_96->statetype, D.14947
	addq	$1, %rax	#, D.14947
	movb	$5, (%rax)	#, *_98
	.loc 1 967 0
	movq	-16(%rbp), %rax	# tr, tr.158
	movq	16(%rax), %rax	# tr.158_99->nodeidx, D.14944
	addq	$4, %rax	#, D.14944
	movl	$0, (%rax)	#, *_101
	.loc 1 968 0
	movq	-16(%rbp), %rax	# tr, tr.159
	movq	24(%rax), %rax	# tr.159_102->pos, D.14944
	addq	$4, %rax	#, D.14944
	movl	$0, (%rax)	#, *_104
	.loc 1 969 0
	movl	$2, -52(%rbp)	#, tpos
	.loc 1 971 0
	movl	$1, -56(%rbp)	#, pos
	jmp	.L121	#
.L122:
	.loc 1 973 0 discriminator 2
	movq	-16(%rbp), %rax	# tr, tr.160
	movq	8(%rax), %rdx	# tr.160_111->statetype, D.14947
	movl	-52(%rbp), %eax	# tpos, tmp345
	cltq
	addq	%rdx, %rax	# D.14947, D.14947
	movb	$5, (%rax)	#, *_114
	.loc 1 974 0 discriminator 2
	movq	-16(%rbp), %rax	# tr, tr.161
	movq	16(%rax), %rax	# tr.161_115->nodeidx, D.14944
	movl	-52(%rbp), %edx	# tpos, tmp346
	movslq	%edx, %rdx	# tmp346, D.14943
	salq	$2, %rdx	#, D.14943
	addq	%rdx, %rax	# D.14943, D.14944
	movl	$0, (%rax)	#, *_119
	.loc 1 975 0 discriminator 2
	movq	-16(%rbp), %rax	# tr, tr.162
	movq	24(%rax), %rax	# tr.162_120->pos, D.14944
	movl	-52(%rbp), %edx	# tpos, tmp347
	movslq	%edx, %rdx	# tmp347, D.14943
	salq	$2, %rdx	#, D.14943
	addq	%rax, %rdx	# D.14944, D.14944
	movl	-56(%rbp), %eax	# pos, tmp348
	movl	%eax, (%rdx)	# tmp348, *_124
	.loc 1 976 0 discriminator 2
	addl	$1, -52(%rbp)	#, tpos
	.loc 1 971 0 discriminator 2
	addl	$1, -56(%rbp)	#, pos
.L121:
	.loc 1 971 0 is_stmt 0 discriminator 1
	movq	-24(%rbp), %rax	# ctr, ctr.163
	movq	24(%rax), %rax	# ctr.163_107->pos, D.14944
	addq	$4, %rax	#, D.14944
	movl	(%rax), %eax	# *_109, D.14942
	cmpl	-56(%rbp), %eax	# pos, D.14942
	jge	.L122	#,
	.loc 1 982 0 is_stmt 1
	movl	$0, -60(%rbp)	#, i
	jmp	.L123	#
.L133:
	.loc 1 984 0
	movl	$2, -40(%rbp)	#, t2
	jmp	.L124	#
.L127:
	.loc 1 986 0
	movq	-16(%rbp), %rax	# tr, tr.164
	movq	8(%rax), %rdx	# tr.164_135->statetype, D.14947
	movl	-52(%rbp), %eax	# tpos, tmp349
	cltq
	addq	%rax, %rdx	# D.14945, D.14947
	movl	-60(%rbp), %eax	# i, tmp350
	cltq
	leaq	0(,%rax,8), %rcx	#, D.14943
	movq	-8(%rbp), %rax	# tarr, tmp351
	addq	%rcx, %rax	# D.14943, D.14946
	movq	(%rax), %rax	# *_141, D.14948
	movq	8(%rax), %rcx	# _142->statetype, D.14947
	movl	-40(%rbp), %eax	# t2, tmp352
	cltq
	addq	%rcx, %rax	# D.14947, D.14947
	movzbl	(%rax), %eax	# *_145, D.14949
	movb	%al, (%rdx)	# D.14949, *_138
	.loc 1 987 0
	movq	-16(%rbp), %rax	# tr, tr.165
	movq	16(%rax), %rax	# tr.165_147->nodeidx, D.14944
	movl	-52(%rbp), %edx	# tpos, tmp353
	movslq	%edx, %rdx	# tmp353, D.14943
	salq	$2, %rdx	#, D.14943
	addq	%rax, %rdx	# D.14944, D.14944
	movl	-60(%rbp), %eax	# i, tmp354
	cltq
	leaq	0(,%rax,8), %rcx	#, D.14943
	movq	-8(%rbp), %rax	# tarr, tmp355
	addq	%rcx, %rax	# D.14943, D.14946
	movq	(%rax), %rax	# *_154, D.14948
	movq	16(%rax), %rax	# _155->nodeidx, D.14944
	movl	-40(%rbp), %ecx	# t2, tmp356
	movslq	%ecx, %rcx	# tmp356, D.14943
	salq	$2, %rcx	#, D.14943
	addq	%rcx, %rax	# D.14943, D.14944
	movl	(%rax), %eax	# *_159, D.14942
	movl	%eax, (%rdx)	# D.14942, *_151
	.loc 1 988 0
	movl	-60(%rbp), %eax	# i, tmp357
	cltq
	leaq	0(,%rax,8), %rdx	#, D.14943
	movq	-8(%rbp), %rax	# tarr, tmp358
	addq	%rdx, %rax	# D.14943, D.14946
	movq	(%rax), %rax	# *_163, D.14948
	movq	24(%rax), %rax	# _164->pos, D.14944
	movl	-40(%rbp), %edx	# t2, tmp359
	movslq	%edx, %rdx	# tmp359, D.14943
	salq	$2, %rdx	#, D.14943
	addq	%rdx, %rax	# D.14943, D.14944
	movl	(%rax), %eax	# *_168, D.14942
	testl	%eax, %eax	# D.14942
	jle	.L125	#,
	.loc 1 989 0
	movq	-16(%rbp), %rax	# tr, tr.166
	movq	24(%rax), %rax	# tr.166_170->pos, D.14944
	movl	-52(%rbp), %edx	# tpos, tmp360
	movslq	%edx, %rdx	# tmp360, D.14943
	salq	$2, %rdx	#, D.14943
	addq	%rax, %rdx	# D.14944, D.14944
	movl	-60(%rbp), %eax	# i, tmp361
	cltq
	leaq	0(,%rax,8), %rcx	#, D.14943
	movq	-8(%rbp), %rax	# tarr, tmp362
	addq	%rcx, %rax	# D.14943, D.14946
	movq	(%rax), %rax	# *_177, D.14948
	movq	24(%rax), %rax	# _178->pos, D.14944
	movl	-40(%rbp), %ecx	# t2, tmp363
	movslq	%ecx, %rcx	# tmp363, D.14943
	salq	$2, %rcx	#, D.14943
	addq	%rcx, %rax	# D.14943, D.14944
	movl	(%rax), %ecx	# *_182, D.14942
	movq	-24(%rbp), %rax	# ctr, ctr.167
	movq	24(%rax), %rax	# ctr.167_184->pos, D.14944
	movl	-60(%rbp), %esi	# i, tmp364
	movslq	%esi, %rsi	# tmp364, D.14945
	salq	$3, %rsi	#, D.14945
	addq	$4, %rsi	#, D.14945
	addq	%rsi, %rax	# D.14945, D.14944
	movl	(%rax), %eax	# *_189, D.14942
	addl	%ecx, %eax	# D.14942, D.14942
	movl	%eax, (%rdx)	# D.14942, *_174
	jmp	.L126	#
.L125:
	.loc 1 991 0
	movq	-16(%rbp), %rax	# tr, tr.168
	movq	24(%rax), %rax	# tr.168_192->pos, D.14944
	movl	-52(%rbp), %edx	# tpos, tmp365
	movslq	%edx, %rdx	# tmp365, D.14943
	salq	$2, %rdx	#, D.14943
	addq	%rdx, %rax	# D.14943, D.14944
	movl	$0, (%rax)	#, *_196
.L126:
	.loc 1 992 0
	addl	$1, -52(%rbp)	#, tpos
	.loc 1 984 0
	addl	$1, -40(%rbp)	#, t2
.L124:
	.loc 1 984 0 is_stmt 0 discriminator 1
	movl	-60(%rbp), %eax	# i, tmp366
	cltq
	leaq	0(,%rax,8), %rdx	#, D.14943
	movq	-8(%rbp), %rax	# tarr, tmp367
	addq	%rdx, %rax	# D.14943, D.14946
	movq	(%rax), %rax	# *_131, D.14948
	movl	(%rax), %eax	# _132->tlen, D.14942
	subl	$2, %eax	#, D.14942
	cmpl	-40(%rbp), %eax	# t2, D.14942
	jg	.L127	#,
	.loc 1 995 0 is_stmt 1
	movq	-16(%rbp), %rax	# tr, tr.169
	movq	8(%rax), %rdx	# tr.169_199->statetype, D.14947
	movl	-52(%rbp), %eax	# tpos, tmp368
	cltq
	addq	%rax, %rdx	# D.14945, D.14947
	movl	-32(%rbp), %eax	# ndom, tmp369
	subl	$1, %eax	#, D.14942
	cmpl	-60(%rbp), %eax	# i, D.14942
	jne	.L128	#,
	.loc 1 995 0 is_stmt 0 discriminator 1
	movl	$8, %eax	#, iftmp.170
	jmp	.L129	#
.L128:
	.loc 1 995 0 discriminator 2
	movl	$10, %eax	#, iftmp.170
.L129:
	.loc 1 995 0 discriminator 3
	movb	%al, (%rdx)	# iftmp.170, *_202
	.loc 1 996 0 is_stmt 1 discriminator 3
	movq	-16(%rbp), %rax	# tr, tr.171
	movq	16(%rax), %rax	# tr.171_206->nodeidx, D.14944
	movl	-52(%rbp), %edx	# tpos, tmp370
	movslq	%edx, %rdx	# tmp370, D.14943
	salq	$2, %rdx	#, D.14943
	addq	%rdx, %rax	# D.14943, D.14944
	movl	$0, (%rax)	#, *_210
	.loc 1 997 0 discriminator 3
	movq	-16(%rbp), %rax	# tr, tr.172
	movq	24(%rax), %rax	# tr.172_211->pos, D.14944
	movl	-52(%rbp), %edx	# tpos, tmp371
	movslq	%edx, %rdx	# tmp371, D.14943
	salq	$2, %rdx	#, D.14943
	addq	%rdx, %rax	# D.14943, D.14944
	movl	$0, (%rax)	#, *_215
	.loc 1 998 0 discriminator 3
	addl	$1, -52(%rbp)	#, tpos
	.loc 1 1000 0 discriminator 3
	movl	-32(%rbp), %eax	# ndom, tmp372
	subl	$1, %eax	#, D.14942
	cmpl	-60(%rbp), %eax	# i, D.14942
	je	.L130	#,
	.loc 1 1001 0
	movq	-24(%rbp), %rax	# ctr, ctr.173
	movq	24(%rax), %rax	# ctr.173_218->pos, D.14944
	movl	-60(%rbp), %edx	# i, tmp373
	movslq	%edx, %rdx	# tmp373, D.14945
	addq	$1, %rdx	#, D.14945
	salq	$3, %rdx	#, D.14945
	addq	%rdx, %rax	# D.14945, D.14944
	movl	(%rax), %eax	# *_223, D.14942
	addl	$1, %eax	#, tmp374
	movl	%eax, -56(%rbp)	# tmp374, pos
	jmp	.L131	#
.L132:
	.loc 1 1003 0 discriminator 2
	movq	-16(%rbp), %rax	# tr, tr.174
	movq	8(%rax), %rdx	# tr.174_234->statetype, D.14947
	movl	-52(%rbp), %eax	# tpos, tmp375
	cltq
	addq	%rdx, %rax	# D.14947, D.14947
	movb	$10, (%rax)	#, *_237
	.loc 1 1004 0 discriminator 2
	movq	-16(%rbp), %rax	# tr, tr.175
	movq	16(%rax), %rax	# tr.175_238->nodeidx, D.14944
	movl	-52(%rbp), %edx	# tpos, tmp376
	movslq	%edx, %rdx	# tmp376, D.14943
	salq	$2, %rdx	#, D.14943
	addq	%rdx, %rax	# D.14943, D.14944
	movl	$0, (%rax)	#, *_242
	.loc 1 1005 0 discriminator 2
	movq	-16(%rbp), %rax	# tr, tr.176
	movq	24(%rax), %rax	# tr.176_243->pos, D.14944
	movl	-52(%rbp), %edx	# tpos, tmp377
	movslq	%edx, %rdx	# tmp377, D.14943
	salq	$2, %rdx	#, D.14943
	addq	%rax, %rdx	# D.14944, D.14944
	movl	-56(%rbp), %eax	# pos, tmp378
	movl	%eax, (%rdx)	# tmp378, *_247
	.loc 1 1006 0 discriminator 2
	addl	$1, -52(%rbp)	#, tpos
	.loc 1 1001 0 discriminator 2
	addl	$1, -56(%rbp)	#, pos
.L131:
	.loc 1 1001 0 is_stmt 0 discriminator 1
	movq	-24(%rbp), %rax	# ctr, ctr.177
	movq	24(%rax), %rax	# ctr.177_226->pos, D.14944
	movl	-60(%rbp), %edx	# i, tmp379
	addl	$1, %edx	#, D.14942
	movslq	%edx, %rdx	# D.14942, D.14945
	salq	$3, %rdx	#, D.14945
	addq	$4, %rdx	#, D.14945
	addq	%rdx, %rax	# D.14945, D.14944
	movl	(%rax), %eax	# *_232, D.14942
	cmpl	-56(%rbp), %eax	# pos, D.14942
	jge	.L132	#,
.L130:
	.loc 1 982 0 is_stmt 1
	addl	$1, -60(%rbp)	#, i
.L123:
	.loc 1 982 0 is_stmt 0 discriminator 1
	movl	-60(%rbp), %eax	# i, tmp380
	cmpl	-32(%rbp), %eax	# ndom, tmp380
	jl	.L133	#,
	.loc 1 1011 0 is_stmt 1
	movq	-24(%rbp), %rax	# ctr, ctr.178
	movq	24(%rax), %rax	# ctr.178_251->pos, D.14944
	movl	-32(%rbp), %edx	# ndom, tmp381
	movslq	%edx, %rdx	# tmp381, D.14943
	salq	$3, %rdx	#, D.14943
	addq	%rdx, %rax	# D.14943, D.14944
	movl	(%rax), %eax	# *_255, D.14942
	addl	$1, %eax	#, tmp382
	movl	%eax, -56(%rbp)	# tmp382, pos
	jmp	.L134	#
.L135:
	.loc 1 1013 0 discriminator 2
	movq	-16(%rbp), %rax	# tr, tr.179
	movq	8(%rax), %rdx	# tr.179_258->statetype, D.14947
	movl	-52(%rbp), %eax	# tpos, tmp383
	cltq
	addq	%rdx, %rax	# D.14947, D.14947
	movb	$8, (%rax)	#, *_261
	.loc 1 1014 0 discriminator 2
	movq	-16(%rbp), %rax	# tr, tr.180
	movq	16(%rax), %rax	# tr.180_262->nodeidx, D.14944
	movl	-52(%rbp), %edx	# tpos, tmp384
	movslq	%edx, %rdx	# tmp384, D.14943
	salq	$2, %rdx	#, D.14943
	addq	%rdx, %rax	# D.14943, D.14944
	movl	$0, (%rax)	#, *_266
	.loc 1 1015 0 discriminator 2
	movq	-16(%rbp), %rax	# tr, tr.181
	movq	24(%rax), %rax	# tr.181_267->pos, D.14944
	movl	-52(%rbp), %edx	# tpos, tmp385
	movslq	%edx, %rdx	# tmp385, D.14943
	salq	$2, %rdx	#, D.14943
	addq	%rax, %rdx	# D.14944, D.14944
	movl	-56(%rbp), %eax	# pos, tmp386
	movl	%eax, (%rdx)	# tmp386, *_271
	.loc 1 1016 0 discriminator 2
	addl	$1, -52(%rbp)	#, tpos
	.loc 1 1011 0 discriminator 2
	addl	$1, -56(%rbp)	#, pos
.L134:
	.loc 1 1011 0 is_stmt 0 discriminator 1
	movl	-56(%rbp), %eax	# pos, tmp387
	cmpl	-76(%rbp), %eax	# L, tmp387
	jle	.L135	#,
	.loc 1 1019 0 is_stmt 1
	movq	-16(%rbp), %rax	# tr, tr.182
	movq	8(%rax), %rdx	# tr.182_274->statetype, D.14947
	movl	-52(%rbp), %eax	# tpos, tmp388
	cltq
	addq	%rdx, %rax	# D.14947, D.14947
	movb	$9, (%rax)	#, *_277
	.loc 1 1020 0
	movq	-16(%rbp), %rax	# tr, tr.183
	movq	16(%rax), %rax	# tr.183_278->nodeidx, D.14944
	movl	-52(%rbp), %edx	# tpos, tmp389
	movslq	%edx, %rdx	# tmp389, D.14943
	salq	$2, %rdx	#, D.14943
	addq	%rdx, %rax	# D.14943, D.14944
	movl	$0, (%rax)	#, *_282
	.loc 1 1021 0
	movq	-16(%rbp), %rax	# tr, tr.184
	movq	24(%rax), %rax	# tr.184_283->pos, D.14944
	movl	-52(%rbp), %edx	# tpos, tmp390
	movslq	%edx, %rdx	# tmp390, D.14943
	salq	$2, %rdx	#, D.14943
	addq	%rdx, %rax	# D.14943, D.14944
	movl	$0, (%rax)	#, *_287
	.loc 1 1022 0
	addl	$1, -52(%rbp)	#, tpos
	.loc 1 1024 0
	movl	$0, -60(%rbp)	#, i
	jmp	.L136	#
.L137:
	.loc 1 1024 0 is_stmt 0 discriminator 2
	movl	-60(%rbp), %eax	# i, tmp391
	cltq
	leaq	0(,%rax,8), %rdx	#, D.14943
	movq	-8(%rbp), %rax	# tarr, tmp392
	addq	%rdx, %rax	# D.14943, D.14946
	movq	(%rax), %rax	# *_292, D.14948
	movq	%rax, %rdi	# D.14948,
	call	P7FreeTrace	#
	addl	$1, -60(%rbp)	#, i
.L136:
	.loc 1 1024 0 discriminator 1
	movl	-60(%rbp), %eax	# i, tmp393
	cmpl	-32(%rbp), %eax	# ndom, tmp393
	jl	.L137	#,
	.loc 1 1025 0 is_stmt 1
	movq	-8(%rbp), %rax	# tarr, tmp394
	movq	%rax, %rdi	# tmp394,
	call	free	#
	.loc 1 1026 0
	movq	-24(%rbp), %rax	# ctr, ctr.185
	movq	%rax, %rdi	# ctr.185,
	call	P7FreeTrace	#
	.loc 1 1028 0
	movq	-16(%rbp), %rdx	# tr, tr.186
	movq	-104(%rbp), %rax	# ret_tr, tmp395
	movq	%rdx, (%rax)	# tr.186, *ret_tr_23(D)
	.loc 1 1029 0
	movl	-36(%rbp), %eax	# sc, D.14941
.L138:
	.loc 1 1030 0
	movl	%eax, -80(%rbp)	# <retval>, %sfp
	movss	-80(%rbp), %xmm0	# %sfp,
	leave
	.cfi_def_cfa 7, 8
	ret
	.cfi_endproc
.LFE13:
	.size	P7SmallViterbi, .-P7SmallViterbi
	.globl	P7ParsingViterbi
	.type	P7ParsingViterbi, @function
P7ParsingViterbi:
.LFB14:
	.loc 1 1065 0
	.cfi_startproc
	pushq	%rbp	#
	.cfi_def_cfa_offset 16
	.cfi_offset 6, -16
	movq	%rsp, %rbp	#,
	.cfi_def_cfa_register 6
	subq	$176, %rsp	#,
	movq	%rdi, -152(%rbp)	# dsq, dsq
	movl	%esi, -156(%rbp)	# L, L
	movq	%rdx, -168(%rbp)	# hmm, hmm
	movq	%rcx, -176(%rbp)	# ret_tr, ret_tr
	.loc 1 1081 0
	movq	-168(%rbp), %rax	# hmm, tmp916
	movl	136(%rax), %eax	# hmm_9(D)->M, D.14950
	leaq	-80(%rbp), %rdi	#, tmp917
	leaq	-72(%rbp), %rsi	#, tmp918
	leaq	-88(%rbp), %rcx	#, tmp919
	leaq	-96(%rbp), %rdx	#, tmp920
	movq	%rdi, %r9	# tmp917,
	movq	%rsi, %r8	# tmp918,
	movl	%eax, %esi	# D.14950,
	movl	$2, %edi	#,
	call	AllocPlan7Matrix	#
	movq	%rax, -32(%rbp)	# tmp921, mx
	.loc 1 1082 0
	movq	-168(%rbp), %rax	# hmm, tmp922
	movl	136(%rax), %eax	# hmm_9(D)->M, D.14950
	leaq	-48(%rbp), %rdi	#, tmp923
	leaq	-40(%rbp), %rsi	#, tmp924
	leaq	-56(%rbp), %rcx	#, tmp925
	leaq	-64(%rbp), %rdx	#, tmp926
	movq	%rdi, %r9	# tmp923,
	movq	%rsi, %r8	# tmp924,
	movl	%eax, %esi	# D.14950,
	movl	$2, %edi	#,
	call	AllocPlan7Matrix	#
	movq	%rax, -24(%rbp)	# tmp927, tmx
	.loc 1 1083 0
	movl	-156(%rbp), %eax	# L, tmp928
	addl	$1, %eax	#, D.14950
	cltq
	salq	$2, %rax	#, D.14951
	movq	%rax, %rdx	# D.14951,
	movl	$1083, %esi	#,
	movl	$.LC0, %edi	#,
	call	sre_malloc	#
	movq	%rax, -16(%rbp)	# tmp929, btr
	.loc 1 1084 0
	movl	-156(%rbp), %eax	# L, tmp930
	addl	$1, %eax	#, D.14950
	cltq
	salq	$2, %rax	#, D.14951
	movq	%rax, %rdx	# D.14951,
	movl	$1084, %esi	#,
	movl	$.LC0, %edi	#,
	call	sre_malloc	#
	movq	%rax, -8(%rbp)	# tmp931, etr
	.loc 1 1088 0
	movq	-96(%rbp), %rax	# xmx, xmx.187
	movq	(%rax), %rax	# *xmx.187_23, D.14952
	addq	$16, %rax	#, D.14952
	movl	$0, (%rax)	#, *_25
	.loc 1 1089 0
	movq	-96(%rbp), %rax	# xmx, xmx.188
	movq	(%rax), %rax	# *xmx.188_26, D.14952
	movq	-168(%rbp), %rdx	# hmm, tmp932
	movl	336(%rdx), %edx	# hmm_9(D)->xsc, D.14950
	movl	%edx, (%rax)	# D.14950, *_27
	.loc 1 1090 0
	movq	-16(%rbp), %rax	# btr, tmp933
	movl	$0, (%rax)	#, *btr_18
	.loc 1 1091 0
	movq	-96(%rbp), %rax	# xmx, xmx.189
	movq	(%rax), %rax	# *xmx.189_29, D.14952
	leaq	4(%rax), %rcx	#, D.14952
	movq	-96(%rbp), %rax	# xmx, xmx.190
	movq	(%rax), %rax	# *xmx.190_32, D.14952
	addq	$8, %rax	#, D.14952
	movq	-96(%rbp), %rdx	# xmx, xmx.191
	movq	(%rdx), %rdx	# *xmx.191_35, D.14952
	addq	$12, %rdx	#, D.14952
	movl	$-987654321, (%rdx)	#, *_37
	movl	(%rdx), %edx	# *_37, D.14950
	movl	%edx, (%rax)	# D.14950, *_34
	movl	(%rax), %eax	# *_34, D.14950
	movl	%eax, (%rcx)	# D.14950, *_31
	.loc 1 1092 0
	movq	-8(%rbp), %rax	# etr, tmp934
	movl	$-1, (%rax)	#, *etr_22
	.loc 1 1093 0
	movl	$0, -128(%rbp)	#, k
	jmp	.L140	#
.L141:
	.loc 1 1094 0 discriminator 2
	movq	-88(%rbp), %rax	# mmx, mmx.192
	movq	(%rax), %rax	# *mmx.192_42, D.14952
	movl	-128(%rbp), %edx	# k, tmp935
	movslq	%edx, %rdx	# tmp935, D.14951
	salq	$2, %rdx	#, D.14951
	leaq	(%rax,%rdx), %rcx	#, D.14952
	movq	-72(%rbp), %rax	# imx, imx.193
	movq	(%rax), %rax	# *imx.193_47, D.14952
	movl	-128(%rbp), %edx	# k, tmp936
	movslq	%edx, %rdx	# tmp936, D.14951
	salq	$2, %rdx	#, D.14951
	addq	%rdx, %rax	# D.14951, D.14952
	movq	-80(%rbp), %rdx	# dmx, dmx.194
	movq	(%rdx), %rdx	# *dmx.194_52, D.14952
	movl	-128(%rbp), %esi	# k, tmp937
	movslq	%esi, %rsi	# tmp937, D.14951
	salq	$2, %rsi	#, D.14951
	addq	%rsi, %rdx	# D.14951, D.14952
	movl	$-987654321, (%rdx)	#, *_56
	movl	(%rdx), %edx	# *_56, D.14950
	movl	%edx, (%rax)	# D.14950, *_51
	movl	(%rax), %eax	# *_51, D.14950
	movl	%eax, (%rcx)	# D.14950, *_46
	.loc 1 1093 0 discriminator 2
	addl	$1, -128(%rbp)	#, k
.L140:
	.loc 1 1093 0 is_stmt 0 discriminator 1
	movq	-168(%rbp), %rax	# hmm, tmp938
	movl	136(%rax), %eax	# hmm_9(D)->M, D.14950
	cmpl	-128(%rbp), %eax	# k, D.14950
	jge	.L141	#,
	.loc 1 1111 0 is_stmt 1
	movl	$1, -132(%rbp)	#, i
	jmp	.L142	#
.L167:
	.loc 1 1112 0
	movl	-132(%rbp), %eax	# i, tmp940
	cltd
	shrl	$31, %edx	#, tmp942
	addl	%edx, %eax	# tmp942, tmp943
	andl	$1, %eax	#, tmp944
	subl	%edx, %eax	# tmp942, tmp945
	movl	%eax, -120(%rbp)	# tmp945, cur
	.loc 1 1113 0
	cmpl	$0, -120(%rbp)	#, cur
	sete	%al	#, D.14953
	movzbl	%al, %eax	# D.14953, tmp946
	movl	%eax, -112(%rbp)	# tmp946, prv
	.loc 1 1115 0
	movq	-88(%rbp), %rax	# mmx, mmx.195
	movl	-120(%rbp), %edx	# cur, tmp947
	movslq	%edx, %rdx	# tmp947, D.14951
	salq	$3, %rdx	#, D.14951
	addq	%rdx, %rax	# D.14951, D.14954
	movq	(%rax), %rcx	# *_68, D.14952
	movq	-72(%rbp), %rax	# imx, imx.196
	movl	-120(%rbp), %edx	# cur, tmp948
	movslq	%edx, %rdx	# tmp948, D.14951
	salq	$3, %rdx	#, D.14951
	addq	%rdx, %rax	# D.14951, D.14954
	movq	(%rax), %rax	# *_73, D.14952
	movq	-80(%rbp), %rdx	# dmx, dmx.197
	movl	-120(%rbp), %esi	# cur, tmp949
	movslq	%esi, %rsi	# tmp949, D.14951
	salq	$3, %rsi	#, D.14951
	addq	%rsi, %rdx	# D.14951, D.14954
	movq	(%rdx), %rdx	# *_78, D.14952
	movl	$-987654321, (%rdx)	#, *_79
	movl	(%rdx), %edx	# *_79, D.14950
	movl	%edx, (%rax)	# D.14950, *_74
	movl	(%rax), %eax	# *_74, D.14950
	movl	%eax, (%rcx)	# D.14950, *_69
	.loc 1 1117 0
	movl	$1, -128(%rbp)	#, k
	jmp	.L143	#
.L156:
	.loc 1 1119 0
	movq	-88(%rbp), %rax	# mmx, mmx.198
	movl	-120(%rbp), %edx	# cur, tmp950
	movslq	%edx, %rdx	# tmp950, D.14951
	salq	$3, %rdx	#, D.14951
	addq	%rdx, %rax	# D.14951, D.14954
	movq	(%rax), %rax	# *_87, D.14952
	movl	-128(%rbp), %edx	# k, tmp951
	movslq	%edx, %rdx	# tmp951, D.14951
	salq	$2, %rdx	#, D.14951
	addq	%rdx, %rax	# D.14951, D.14952
	movl	$-987654321, (%rax)	#, *_91
	.loc 1 1120 0
	movq	-88(%rbp), %rax	# mmx, mmx.199
	movl	-112(%rbp), %edx	# prv, tmp952
	movslq	%edx, %rdx	# tmp952, D.14951
	salq	$3, %rdx	#, D.14951
	addq	%rdx, %rax	# D.14951, D.14954
	movq	(%rax), %rax	# *_95, D.14952
	movl	-128(%rbp), %edx	# k, tmp953
	movslq	%edx, %rdx	# tmp953, D.14951
	salq	$2, %rdx	#, D.14951
	subq	$4, %rdx	#, D.14955
	addq	%rdx, %rax	# D.14955, D.14952
	movl	(%rax), %edx	# *_100, D.14950
	movq	-168(%rbp), %rax	# hmm, tmp954
	movq	312(%rax), %rax	# hmm_9(D)->tsc, D.14954
	movq	(%rax), %rax	# *_102, D.14952
	movl	-128(%rbp), %ecx	# k, tmp955
	movslq	%ecx, %rcx	# tmp955, D.14951
	salq	$2, %rcx	#, D.14951
	subq	$4, %rcx	#, D.14955
	addq	%rcx, %rax	# D.14955, D.14952
	movl	(%rax), %eax	# *_107, D.14950
	addl	%edx, %eax	# D.14950, tmp956
	movl	%eax, -108(%rbp)	# tmp956, sc
	cmpl	$-987654320, -108(%rbp)	#, sc
	jl	.L144	#,
	.loc 1 1121 0
	movq	-88(%rbp), %rax	# mmx, mmx.200
	movl	-120(%rbp), %edx	# cur, tmp957
	movslq	%edx, %rdx	# tmp957, D.14951
	salq	$3, %rdx	#, D.14951
	addq	%rdx, %rax	# D.14951, D.14954
	movq	(%rax), %rax	# *_113, D.14952
	movl	-128(%rbp), %edx	# k, tmp958
	movslq	%edx, %rdx	# tmp958, D.14951
	salq	$2, %rdx	#, D.14951
	addq	%rax, %rdx	# D.14952, D.14952
	movl	-108(%rbp), %eax	# sc, tmp959
	movl	%eax, (%rdx)	# tmp959, *_117
	movq	-56(%rbp), %rax	# mtr, mtr.201
	movl	-120(%rbp), %edx	# cur, tmp960
	movslq	%edx, %rdx	# tmp960, D.14951
	salq	$3, %rdx	#, D.14951
	addq	%rdx, %rax	# D.14951, D.14954
	movq	(%rax), %rax	# *_121, D.14952
	movl	-128(%rbp), %edx	# k, tmp961
	movslq	%edx, %rdx	# tmp961, D.14951
	salq	$2, %rdx	#, D.14951
	addq	%rax, %rdx	# D.14952, D.14952
	movq	-56(%rbp), %rax	# mtr, mtr.202
	movl	-112(%rbp), %ecx	# prv, tmp962
	movslq	%ecx, %rcx	# tmp962, D.14951
	salq	$3, %rcx	#, D.14951
	addq	%rcx, %rax	# D.14951, D.14954
	movq	(%rax), %rax	# *_129, D.14952
	movl	-128(%rbp), %ecx	# k, tmp963
	movslq	%ecx, %rcx	# tmp963, D.14951
	salq	$2, %rcx	#, D.14951
	subq	$4, %rcx	#, D.14955
	addq	%rcx, %rax	# D.14955, D.14952
	movl	(%rax), %eax	# *_134, D.14950
	movl	%eax, (%rdx)	# D.14950, *_125
.L144:
	.loc 1 1122 0
	movq	-72(%rbp), %rax	# imx, imx.203
	movl	-112(%rbp), %edx	# prv, tmp964
	movslq	%edx, %rdx	# tmp964, D.14951
	salq	$3, %rdx	#, D.14951
	addq	%rdx, %rax	# D.14951, D.14954
	movq	(%rax), %rax	# *_139, D.14952
	movl	-128(%rbp), %edx	# k, tmp965
	movslq	%edx, %rdx	# tmp965, D.14951
	salq	$2, %rdx	#, D.14951
	subq	$4, %rdx	#, D.14955
	addq	%rdx, %rax	# D.14955, D.14952
	movl	(%rax), %edx	# *_144, D.14950
	movq	-168(%rbp), %rax	# hmm, tmp966
	movq	312(%rax), %rax	# hmm_9(D)->tsc, D.14954
	addq	$24, %rax	#, D.14954
	movq	(%rax), %rax	# *_147, D.14952
	movl	-128(%rbp), %ecx	# k, tmp967
	movslq	%ecx, %rcx	# tmp967, D.14951
	salq	$2, %rcx	#, D.14951
	subq	$4, %rcx	#, D.14955
	addq	%rcx, %rax	# D.14955, D.14952
	movl	(%rax), %eax	# *_152, D.14950
	addl	%edx, %eax	# D.14950, tmp968
	movl	%eax, -108(%rbp)	# tmp968, sc
	movq	-88(%rbp), %rax	# mmx, mmx.204
	movl	-120(%rbp), %edx	# cur, tmp969
	movslq	%edx, %rdx	# tmp969, D.14951
	salq	$3, %rdx	#, D.14951
	addq	%rdx, %rax	# D.14951, D.14954
	movq	(%rax), %rax	# *_158, D.14952
	movl	-128(%rbp), %edx	# k, tmp970
	movslq	%edx, %rdx	# tmp970, D.14951
	salq	$2, %rdx	#, D.14951
	addq	%rdx, %rax	# D.14951, D.14952
	movl	(%rax), %eax	# *_162, D.14950
	cmpl	%eax, -108(%rbp)	# D.14950, sc
	jle	.L145	#,
	.loc 1 1123 0
	movq	-88(%rbp), %rax	# mmx, mmx.205
	movl	-120(%rbp), %edx	# cur, tmp971
	movslq	%edx, %rdx	# tmp971, D.14951
	salq	$3, %rdx	#, D.14951
	addq	%rdx, %rax	# D.14951, D.14954
	movq	(%rax), %rax	# *_167, D.14952
	movl	-128(%rbp), %edx	# k, tmp972
	movslq	%edx, %rdx	# tmp972, D.14951
	salq	$2, %rdx	#, D.14951
	addq	%rax, %rdx	# D.14952, D.14952
	movl	-108(%rbp), %eax	# sc, tmp973
	movl	%eax, (%rdx)	# tmp973, *_171
	movq	-56(%rbp), %rax	# mtr, mtr.206
	movl	-120(%rbp), %edx	# cur, tmp974
	movslq	%edx, %rdx	# tmp974, D.14951
	salq	$3, %rdx	#, D.14951
	addq	%rdx, %rax	# D.14951, D.14954
	movq	(%rax), %rax	# *_175, D.14952
	movl	-128(%rbp), %edx	# k, tmp975
	movslq	%edx, %rdx	# tmp975, D.14951
	salq	$2, %rdx	#, D.14951
	addq	%rax, %rdx	# D.14952, D.14952
	movq	-40(%rbp), %rax	# itr, itr.207
	movl	-112(%rbp), %ecx	# prv, tmp976
	movslq	%ecx, %rcx	# tmp976, D.14951
	salq	$3, %rcx	#, D.14951
	addq	%rcx, %rax	# D.14951, D.14954
	movq	(%rax), %rax	# *_183, D.14952
	movl	-128(%rbp), %ecx	# k, tmp977
	movslq	%ecx, %rcx	# tmp977, D.14951
	salq	$2, %rcx	#, D.14951
	subq	$4, %rcx	#, D.14955
	addq	%rcx, %rax	# D.14955, D.14952
	movl	(%rax), %eax	# *_188, D.14950
	movl	%eax, (%rdx)	# D.14950, *_179
.L145:
	.loc 1 1124 0
	movq	-96(%rbp), %rax	# xmx, xmx.208
	movl	-112(%rbp), %edx	# prv, tmp978
	movslq	%edx, %rdx	# tmp978, D.14951
	salq	$3, %rdx	#, D.14951
	addq	%rdx, %rax	# D.14951, D.14954
	movq	(%rax), %rax	# *_193, D.14952
	movl	(%rax), %edx	# *_194, D.14950
	movq	-168(%rbp), %rax	# hmm, tmp979
	movq	368(%rax), %rax	# hmm_9(D)->bsc, D.14952
	movl	-128(%rbp), %ecx	# k, tmp980
	movslq	%ecx, %rcx	# tmp980, D.14951
	salq	$2, %rcx	#, D.14951
	addq	%rcx, %rax	# D.14951, D.14952
	movl	(%rax), %eax	# *_199, D.14950
	addl	%edx, %eax	# D.14950, tmp981
	movl	%eax, -108(%rbp)	# tmp981, sc
	movq	-88(%rbp), %rax	# mmx, mmx.209
	movl	-120(%rbp), %edx	# cur, tmp982
	movslq	%edx, %rdx	# tmp982, D.14951
	salq	$3, %rdx	#, D.14951
	addq	%rdx, %rax	# D.14951, D.14954
	movq	(%rax), %rax	# *_205, D.14952
	movl	-128(%rbp), %edx	# k, tmp983
	movslq	%edx, %rdx	# tmp983, D.14951
	salq	$2, %rdx	#, D.14951
	addq	%rdx, %rax	# D.14951, D.14952
	movl	(%rax), %eax	# *_209, D.14950
	cmpl	%eax, -108(%rbp)	# D.14950, sc
	jle	.L146	#,
	.loc 1 1125 0
	movq	-88(%rbp), %rax	# mmx, mmx.210
	movl	-120(%rbp), %edx	# cur, tmp984
	movslq	%edx, %rdx	# tmp984, D.14951
	salq	$3, %rdx	#, D.14951
	addq	%rdx, %rax	# D.14951, D.14954
	movq	(%rax), %rax	# *_214, D.14952
	movl	-128(%rbp), %edx	# k, tmp985
	movslq	%edx, %rdx	# tmp985, D.14951
	salq	$2, %rdx	#, D.14951
	addq	%rax, %rdx	# D.14952, D.14952
	movl	-108(%rbp), %eax	# sc, tmp986
	movl	%eax, (%rdx)	# tmp986, *_218
	movq	-56(%rbp), %rax	# mtr, mtr.211
	movl	-120(%rbp), %edx	# cur, tmp987
	movslq	%edx, %rdx	# tmp987, D.14951
	salq	$3, %rdx	#, D.14951
	addq	%rdx, %rax	# D.14951, D.14954
	movq	(%rax), %rax	# *_222, D.14952
	movl	-128(%rbp), %edx	# k, tmp988
	movslq	%edx, %rdx	# tmp988, D.14951
	salq	$2, %rdx	#, D.14951
	addq	%rdx, %rax	# D.14951, D.14952
	movl	-132(%rbp), %edx	# i, tmp989
	subl	$1, %edx	#, D.14950
	movl	%edx, (%rax)	# D.14950, *_226
.L146:
	.loc 1 1126 0
	movq	-80(%rbp), %rax	# dmx, dmx.212
	movl	-112(%rbp), %edx	# prv, tmp990
	movslq	%edx, %rdx	# tmp990, D.14951
	salq	$3, %rdx	#, D.14951
	addq	%rdx, %rax	# D.14951, D.14954
	movq	(%rax), %rax	# *_231, D.14952
	movl	-128(%rbp), %edx	# k, tmp991
	movslq	%edx, %rdx	# tmp991, D.14951
	salq	$2, %rdx	#, D.14951
	subq	$4, %rdx	#, D.14955
	addq	%rdx, %rax	# D.14955, D.14952
	movl	(%rax), %edx	# *_236, D.14950
	movq	-168(%rbp), %rax	# hmm, tmp992
	movq	312(%rax), %rax	# hmm_9(D)->tsc, D.14954
	addq	$40, %rax	#, D.14954
	movq	(%rax), %rax	# *_239, D.14952
	movl	-128(%rbp), %ecx	# k, tmp993
	movslq	%ecx, %rcx	# tmp993, D.14951
	salq	$2, %rcx	#, D.14951
	subq	$4, %rcx	#, D.14955
	addq	%rcx, %rax	# D.14955, D.14952
	movl	(%rax), %eax	# *_244, D.14950
	addl	%edx, %eax	# D.14950, tmp994
	movl	%eax, -108(%rbp)	# tmp994, sc
	movq	-88(%rbp), %rax	# mmx, mmx.213
	movl	-120(%rbp), %edx	# cur, tmp995
	movslq	%edx, %rdx	# tmp995, D.14951
	salq	$3, %rdx	#, D.14951
	addq	%rdx, %rax	# D.14951, D.14954
	movq	(%rax), %rax	# *_250, D.14952
	movl	-128(%rbp), %edx	# k, tmp996
	movslq	%edx, %rdx	# tmp996, D.14951
	salq	$2, %rdx	#, D.14951
	addq	%rdx, %rax	# D.14951, D.14952
	movl	(%rax), %eax	# *_254, D.14950
	cmpl	%eax, -108(%rbp)	# D.14950, sc
	jle	.L147	#,
	.loc 1 1127 0
	movq	-88(%rbp), %rax	# mmx, mmx.214
	movl	-120(%rbp), %edx	# cur, tmp997
	movslq	%edx, %rdx	# tmp997, D.14951
	salq	$3, %rdx	#, D.14951
	addq	%rdx, %rax	# D.14951, D.14954
	movq	(%rax), %rax	# *_259, D.14952
	movl	-128(%rbp), %edx	# k, tmp998
	movslq	%edx, %rdx	# tmp998, D.14951
	salq	$2, %rdx	#, D.14951
	addq	%rax, %rdx	# D.14952, D.14952
	movl	-108(%rbp), %eax	# sc, tmp999
	movl	%eax, (%rdx)	# tmp999, *_263
	movq	-56(%rbp), %rax	# mtr, mtr.215
	movl	-120(%rbp), %edx	# cur, tmp1000
	movslq	%edx, %rdx	# tmp1000, D.14951
	salq	$3, %rdx	#, D.14951
	addq	%rdx, %rax	# D.14951, D.14954
	movq	(%rax), %rax	# *_267, D.14952
	movl	-128(%rbp), %edx	# k, tmp1001
	movslq	%edx, %rdx	# tmp1001, D.14951
	salq	$2, %rdx	#, D.14951
	addq	%rax, %rdx	# D.14952, D.14952
	movq	-48(%rbp), %rax	# dtr, dtr.216
	movl	-112(%rbp), %ecx	# prv, tmp1002
	movslq	%ecx, %rcx	# tmp1002, D.14951
	salq	$3, %rcx	#, D.14951
	addq	%rcx, %rax	# D.14951, D.14954
	movq	(%rax), %rax	# *_275, D.14952
	movl	-128(%rbp), %ecx	# k, tmp1003
	movslq	%ecx, %rcx	# tmp1003, D.14951
	salq	$2, %rcx	#, D.14951
	subq	$4, %rcx	#, D.14955
	addq	%rcx, %rax	# D.14955, D.14952
	movl	(%rax), %eax	# *_280, D.14950
	movl	%eax, (%rdx)	# D.14950, *_271
.L147:
	.loc 1 1128 0
	movq	-168(%rbp), %rax	# hmm, tmp1004
	movq	320(%rax), %rax	# hmm_9(D)->msc, D.14954
	movl	-132(%rbp), %edx	# i, tmp1005
	movslq	%edx, %rcx	# tmp1005, D.14955
	movq	-152(%rbp), %rdx	# dsq, tmp1006
	addq	%rcx, %rdx	# D.14955, D.14956
	movzbl	(%rdx), %edx	# *_285, D.14957
	movsbq	%dl, %rdx	# D.14957, D.14951
	salq	$3, %rdx	#, D.14951
	addq	%rdx, %rax	# D.14951, D.14954
	movq	(%rax), %rax	# *_289, D.14952
	movl	-128(%rbp), %edx	# k, tmp1007
	movslq	%edx, %rdx	# tmp1007, D.14951
	salq	$2, %rdx	#, D.14951
	addq	%rdx, %rax	# D.14951, D.14952
	movl	(%rax), %eax	# *_293, D.14950
	cmpl	$-987654321, %eax	#, D.14950
	je	.L148	#,
	.loc 1 1129 0
	movq	-88(%rbp), %rax	# mmx, mmx.217
	movl	-120(%rbp), %edx	# cur, tmp1008
	movslq	%edx, %rdx	# tmp1008, D.14951
	salq	$3, %rdx	#, D.14951
	addq	%rdx, %rax	# D.14951, D.14954
	movq	(%rax), %rax	# *_298, D.14952
	movl	-128(%rbp), %edx	# k, tmp1009
	movslq	%edx, %rdx	# tmp1009, D.14951
	salq	$2, %rdx	#, D.14951
	addq	%rax, %rdx	# D.14952, D.14952
	movq	-88(%rbp), %rax	# mmx, mmx.218
	movl	-120(%rbp), %ecx	# cur, tmp1010
	movslq	%ecx, %rcx	# tmp1010, D.14951
	salq	$3, %rcx	#, D.14951
	addq	%rcx, %rax	# D.14951, D.14954
	movq	(%rax), %rax	# *_306, D.14952
	movl	-128(%rbp), %ecx	# k, tmp1011
	movslq	%ecx, %rcx	# tmp1011, D.14951
	salq	$2, %rcx	#, D.14951
	addq	%rcx, %rax	# D.14951, D.14952
	movl	(%rax), %ecx	# *_310, D.14950
	movq	-168(%rbp), %rax	# hmm, tmp1012
	movq	320(%rax), %rax	# hmm_9(D)->msc, D.14954
	movl	-132(%rbp), %esi	# i, tmp1013
	movslq	%esi, %rdi	# tmp1013, D.14955
	movq	-152(%rbp), %rsi	# dsq, tmp1014
	addq	%rdi, %rsi	# D.14955, D.14956
	movzbl	(%rsi), %esi	# *_314, D.14957
	movsbq	%sil, %rsi	# D.14957, D.14951
	salq	$3, %rsi	#, D.14951
	addq	%rsi, %rax	# D.14951, D.14954
	movq	(%rax), %rax	# *_318, D.14952
	movl	-128(%rbp), %esi	# k, tmp1015
	movslq	%esi, %rsi	# tmp1015, D.14951
	salq	$2, %rsi	#, D.14951
	addq	%rsi, %rax	# D.14951, D.14952
	movl	(%rax), %eax	# *_322, D.14950
	addl	%ecx, %eax	# D.14950, D.14950
	movl	%eax, (%rdx)	# D.14950, *_302
	jmp	.L149	#
.L148:
	.loc 1 1131 0
	movq	-88(%rbp), %rax	# mmx, mmx.219
	movl	-120(%rbp), %edx	# cur, tmp1016
	movslq	%edx, %rdx	# tmp1016, D.14951
	salq	$3, %rdx	#, D.14951
	addq	%rdx, %rax	# D.14951, D.14954
	movq	(%rax), %rax	# *_328, D.14952
	movl	-128(%rbp), %edx	# k, tmp1017
	movslq	%edx, %rdx	# tmp1017, D.14951
	salq	$2, %rdx	#, D.14951
	addq	%rdx, %rax	# D.14951, D.14952
	movl	$-987654321, (%rax)	#, *_332
.L149:
	.loc 1 1134 0
	movq	-80(%rbp), %rax	# dmx, dmx.220
	movl	-120(%rbp), %edx	# cur, tmp1018
	movslq	%edx, %rdx	# tmp1018, D.14951
	salq	$3, %rdx	#, D.14951
	addq	%rdx, %rax	# D.14951, D.14954
	movq	(%rax), %rax	# *_336, D.14952
	movl	-128(%rbp), %edx	# k, tmp1019
	movslq	%edx, %rdx	# tmp1019, D.14951
	salq	$2, %rdx	#, D.14951
	addq	%rdx, %rax	# D.14951, D.14952
	movl	$-987654321, (%rax)	#, *_340
	.loc 1 1135 0
	movq	-88(%rbp), %rax	# mmx, mmx.221
	movl	-120(%rbp), %edx	# cur, tmp1020
	movslq	%edx, %rdx	# tmp1020, D.14951
	salq	$3, %rdx	#, D.14951
	addq	%rdx, %rax	# D.14951, D.14954
	movq	(%rax), %rax	# *_344, D.14952
	movl	-128(%rbp), %edx	# k, tmp1021
	movslq	%edx, %rdx	# tmp1021, D.14951
	salq	$2, %rdx	#, D.14951
	subq	$4, %rdx	#, D.14955
	addq	%rdx, %rax	# D.14955, D.14952
	movl	(%rax), %edx	# *_349, D.14950
	movq	-168(%rbp), %rax	# hmm, tmp1022
	movq	312(%rax), %rax	# hmm_9(D)->tsc, D.14954
	addq	$16, %rax	#, D.14954
	movq	(%rax), %rax	# *_352, D.14952
	movl	-128(%rbp), %ecx	# k, tmp1023
	movslq	%ecx, %rcx	# tmp1023, D.14951
	salq	$2, %rcx	#, D.14951
	subq	$4, %rcx	#, D.14955
	addq	%rcx, %rax	# D.14955, D.14952
	movl	(%rax), %eax	# *_357, D.14950
	addl	%edx, %eax	# D.14950, tmp1024
	movl	%eax, -108(%rbp)	# tmp1024, sc
	cmpl	$-987654320, -108(%rbp)	#, sc
	jl	.L150	#,
	.loc 1 1136 0
	movq	-80(%rbp), %rax	# dmx, dmx.222
	movl	-120(%rbp), %edx	# cur, tmp1025
	movslq	%edx, %rdx	# tmp1025, D.14951
	salq	$3, %rdx	#, D.14951
	addq	%rdx, %rax	# D.14951, D.14954
	movq	(%rax), %rax	# *_363, D.14952
	movl	-128(%rbp), %edx	# k, tmp1026
	movslq	%edx, %rdx	# tmp1026, D.14951
	salq	$2, %rdx	#, D.14951
	addq	%rax, %rdx	# D.14952, D.14952
	movl	-108(%rbp), %eax	# sc, tmp1027
	movl	%eax, (%rdx)	# tmp1027, *_367
	movq	-48(%rbp), %rax	# dtr, dtr.223
	movl	-120(%rbp), %edx	# cur, tmp1028
	movslq	%edx, %rdx	# tmp1028, D.14951
	salq	$3, %rdx	#, D.14951
	addq	%rdx, %rax	# D.14951, D.14954
	movq	(%rax), %rax	# *_371, D.14952
	movl	-128(%rbp), %edx	# k, tmp1029
	movslq	%edx, %rdx	# tmp1029, D.14951
	salq	$2, %rdx	#, D.14951
	addq	%rax, %rdx	# D.14952, D.14952
	movq	-56(%rbp), %rax	# mtr, mtr.224
	movl	-120(%rbp), %ecx	# cur, tmp1030
	movslq	%ecx, %rcx	# tmp1030, D.14951
	salq	$3, %rcx	#, D.14951
	addq	%rcx, %rax	# D.14951, D.14954
	movq	(%rax), %rax	# *_379, D.14952
	movl	-128(%rbp), %ecx	# k, tmp1031
	movslq	%ecx, %rcx	# tmp1031, D.14951
	salq	$2, %rcx	#, D.14951
	subq	$4, %rcx	#, D.14955
	addq	%rcx, %rax	# D.14955, D.14952
	movl	(%rax), %eax	# *_384, D.14950
	movl	%eax, (%rdx)	# D.14950, *_375
.L150:
	.loc 1 1137 0
	movq	-80(%rbp), %rax	# dmx, dmx.225
	movl	-120(%rbp), %edx	# cur, tmp1032
	movslq	%edx, %rdx	# tmp1032, D.14951
	salq	$3, %rdx	#, D.14951
	addq	%rdx, %rax	# D.14951, D.14954
	movq	(%rax), %rax	# *_389, D.14952
	movl	-128(%rbp), %edx	# k, tmp1033
	movslq	%edx, %rdx	# tmp1033, D.14951
	salq	$2, %rdx	#, D.14951
	subq	$4, %rdx	#, D.14955
	addq	%rdx, %rax	# D.14955, D.14952
	movl	(%rax), %edx	# *_394, D.14950
	movq	-168(%rbp), %rax	# hmm, tmp1034
	movq	312(%rax), %rax	# hmm_9(D)->tsc, D.14954
	addq	$48, %rax	#, D.14954
	movq	(%rax), %rax	# *_397, D.14952
	movl	-128(%rbp), %ecx	# k, tmp1035
	movslq	%ecx, %rcx	# tmp1035, D.14951
	salq	$2, %rcx	#, D.14951
	subq	$4, %rcx	#, D.14955
	addq	%rcx, %rax	# D.14955, D.14952
	movl	(%rax), %eax	# *_402, D.14950
	addl	%edx, %eax	# D.14950, tmp1036
	movl	%eax, -108(%rbp)	# tmp1036, sc
	movq	-80(%rbp), %rax	# dmx, dmx.226
	movl	-120(%rbp), %edx	# cur, tmp1037
	movslq	%edx, %rdx	# tmp1037, D.14951
	salq	$3, %rdx	#, D.14951
	addq	%rdx, %rax	# D.14951, D.14954
	movq	(%rax), %rax	# *_408, D.14952
	movl	-128(%rbp), %edx	# k, tmp1038
	movslq	%edx, %rdx	# tmp1038, D.14951
	salq	$2, %rdx	#, D.14951
	addq	%rdx, %rax	# D.14951, D.14952
	movl	(%rax), %eax	# *_412, D.14950
	cmpl	%eax, -108(%rbp)	# D.14950, sc
	jle	.L151	#,
	.loc 1 1138 0
	movq	-80(%rbp), %rax	# dmx, dmx.227
	movl	-120(%rbp), %edx	# cur, tmp1039
	movslq	%edx, %rdx	# tmp1039, D.14951
	salq	$3, %rdx	#, D.14951
	addq	%rdx, %rax	# D.14951, D.14954
	movq	(%rax), %rax	# *_417, D.14952
	movl	-128(%rbp), %edx	# k, tmp1040
	movslq	%edx, %rdx	# tmp1040, D.14951
	salq	$2, %rdx	#, D.14951
	addq	%rax, %rdx	# D.14952, D.14952
	movl	-108(%rbp), %eax	# sc, tmp1041
	movl	%eax, (%rdx)	# tmp1041, *_421
	movq	-48(%rbp), %rax	# dtr, dtr.228
	movl	-120(%rbp), %edx	# cur, tmp1042
	movslq	%edx, %rdx	# tmp1042, D.14951
	salq	$3, %rdx	#, D.14951
	addq	%rdx, %rax	# D.14951, D.14954
	movq	(%rax), %rax	# *_425, D.14952
	movl	-128(%rbp), %edx	# k, tmp1043
	movslq	%edx, %rdx	# tmp1043, D.14951
	salq	$2, %rdx	#, D.14951
	addq	%rax, %rdx	# D.14952, D.14952
	movq	-48(%rbp), %rax	# dtr, dtr.229
	movl	-120(%rbp), %ecx	# cur, tmp1044
	movslq	%ecx, %rcx	# tmp1044, D.14951
	salq	$3, %rcx	#, D.14951
	addq	%rcx, %rax	# D.14951, D.14954
	movq	(%rax), %rax	# *_433, D.14952
	movl	-128(%rbp), %ecx	# k, tmp1045
	movslq	%ecx, %rcx	# tmp1045, D.14951
	salq	$2, %rcx	#, D.14951
	subq	$4, %rcx	#, D.14955
	addq	%rcx, %rax	# D.14955, D.14952
	movl	(%rax), %eax	# *_438, D.14950
	movl	%eax, (%rdx)	# D.14950, *_429
.L151:
	.loc 1 1141 0
	movq	-168(%rbp), %rax	# hmm, tmp1046
	movl	136(%rax), %eax	# hmm_9(D)->M, D.14950
	cmpl	-128(%rbp), %eax	# k, D.14950
	jle	.L152	#,
	.loc 1 1142 0
	movq	-72(%rbp), %rax	# imx, imx.230
	movl	-120(%rbp), %edx	# cur, tmp1047
	movslq	%edx, %rdx	# tmp1047, D.14951
	salq	$3, %rdx	#, D.14951
	addq	%rdx, %rax	# D.14951, D.14954
	movq	(%rax), %rax	# *_444, D.14952
	movl	-128(%rbp), %edx	# k, tmp1048
	movslq	%edx, %rdx	# tmp1048, D.14951
	salq	$2, %rdx	#, D.14951
	addq	%rdx, %rax	# D.14951, D.14952
	movl	$-987654321, (%rax)	#, *_448
	.loc 1 1143 0
	movq	-88(%rbp), %rax	# mmx, mmx.231
	movl	-112(%rbp), %edx	# prv, tmp1049
	movslq	%edx, %rdx	# tmp1049, D.14951
	salq	$3, %rdx	#, D.14951
	addq	%rdx, %rax	# D.14951, D.14954
	movq	(%rax), %rax	# *_452, D.14952
	movl	-128(%rbp), %edx	# k, tmp1050
	movslq	%edx, %rdx	# tmp1050, D.14951
	salq	$2, %rdx	#, D.14951
	addq	%rdx, %rax	# D.14951, D.14952
	movl	(%rax), %edx	# *_456, D.14950
	movq	-168(%rbp), %rax	# hmm, tmp1051
	movq	312(%rax), %rax	# hmm_9(D)->tsc, D.14954
	addq	$8, %rax	#, D.14954
	movq	(%rax), %rax	# *_459, D.14952
	movl	-128(%rbp), %ecx	# k, tmp1052
	movslq	%ecx, %rcx	# tmp1052, D.14951
	salq	$2, %rcx	#, D.14951
	addq	%rcx, %rax	# D.14951, D.14952
	movl	(%rax), %eax	# *_463, D.14950
	addl	%edx, %eax	# D.14950, tmp1053
	movl	%eax, -108(%rbp)	# tmp1053, sc
	cmpl	$-987654320, -108(%rbp)	#, sc
	jl	.L153	#,
	.loc 1 1144 0
	movq	-72(%rbp), %rax	# imx, imx.232
	movl	-120(%rbp), %edx	# cur, tmp1054
	movslq	%edx, %rdx	# tmp1054, D.14951
	salq	$3, %rdx	#, D.14951
	addq	%rdx, %rax	# D.14951, D.14954
	movq	(%rax), %rax	# *_469, D.14952
	movl	-128(%rbp), %edx	# k, tmp1055
	movslq	%edx, %rdx	# tmp1055, D.14951
	salq	$2, %rdx	#, D.14951
	addq	%rax, %rdx	# D.14952, D.14952
	movl	-108(%rbp), %eax	# sc, tmp1056
	movl	%eax, (%rdx)	# tmp1056, *_473
	movq	-40(%rbp), %rax	# itr, itr.233
	movl	-120(%rbp), %edx	# cur, tmp1057
	movslq	%edx, %rdx	# tmp1057, D.14951
	salq	$3, %rdx	#, D.14951
	addq	%rdx, %rax	# D.14951, D.14954
	movq	(%rax), %rax	# *_477, D.14952
	movl	-128(%rbp), %edx	# k, tmp1058
	movslq	%edx, %rdx	# tmp1058, D.14951
	salq	$2, %rdx	#, D.14951
	addq	%rax, %rdx	# D.14952, D.14952
	movq	-56(%rbp), %rax	# mtr, mtr.234
	movl	-112(%rbp), %ecx	# prv, tmp1059
	movslq	%ecx, %rcx	# tmp1059, D.14951
	salq	$3, %rcx	#, D.14951
	addq	%rcx, %rax	# D.14951, D.14954
	movq	(%rax), %rax	# *_485, D.14952
	movl	-128(%rbp), %ecx	# k, tmp1060
	movslq	%ecx, %rcx	# tmp1060, D.14951
	salq	$2, %rcx	#, D.14951
	addq	%rcx, %rax	# D.14951, D.14952
	movl	(%rax), %eax	# *_489, D.14950
	movl	%eax, (%rdx)	# D.14950, *_481
.L153:
	.loc 1 1145 0
	movq	-72(%rbp), %rax	# imx, imx.235
	movl	-112(%rbp), %edx	# prv, tmp1061
	movslq	%edx, %rdx	# tmp1061, D.14951
	salq	$3, %rdx	#, D.14951
	addq	%rdx, %rax	# D.14951, D.14954
	movq	(%rax), %rax	# *_494, D.14952
	movl	-128(%rbp), %edx	# k, tmp1062
	movslq	%edx, %rdx	# tmp1062, D.14951
	salq	$2, %rdx	#, D.14951
	addq	%rdx, %rax	# D.14951, D.14952
	movl	(%rax), %edx	# *_498, D.14950
	movq	-168(%rbp), %rax	# hmm, tmp1063
	movq	312(%rax), %rax	# hmm_9(D)->tsc, D.14954
	addq	$32, %rax	#, D.14954
	movq	(%rax), %rax	# *_501, D.14952
	movl	-128(%rbp), %ecx	# k, tmp1064
	movslq	%ecx, %rcx	# tmp1064, D.14951
	salq	$2, %rcx	#, D.14951
	addq	%rcx, %rax	# D.14951, D.14952
	movl	(%rax), %eax	# *_505, D.14950
	addl	%edx, %eax	# D.14950, tmp1065
	movl	%eax, -108(%rbp)	# tmp1065, sc
	movq	-72(%rbp), %rax	# imx, imx.236
	movl	-120(%rbp), %edx	# cur, tmp1066
	movslq	%edx, %rdx	# tmp1066, D.14951
	salq	$3, %rdx	#, D.14951
	addq	%rdx, %rax	# D.14951, D.14954
	movq	(%rax), %rax	# *_511, D.14952
	movl	-128(%rbp), %edx	# k, tmp1067
	movslq	%edx, %rdx	# tmp1067, D.14951
	salq	$2, %rdx	#, D.14951
	addq	%rdx, %rax	# D.14951, D.14952
	movl	(%rax), %eax	# *_515, D.14950
	cmpl	%eax, -108(%rbp)	# D.14950, sc
	jle	.L154	#,
	.loc 1 1146 0
	movq	-72(%rbp), %rax	# imx, imx.237
	movl	-120(%rbp), %edx	# cur, tmp1068
	movslq	%edx, %rdx	# tmp1068, D.14951
	salq	$3, %rdx	#, D.14951
	addq	%rdx, %rax	# D.14951, D.14954
	movq	(%rax), %rax	# *_520, D.14952
	movl	-128(%rbp), %edx	# k, tmp1069
	movslq	%edx, %rdx	# tmp1069, D.14951
	salq	$2, %rdx	#, D.14951
	addq	%rax, %rdx	# D.14952, D.14952
	movl	-108(%rbp), %eax	# sc, tmp1070
	movl	%eax, (%rdx)	# tmp1070, *_524
	movq	-40(%rbp), %rax	# itr, itr.238
	movl	-120(%rbp), %edx	# cur, tmp1071
	movslq	%edx, %rdx	# tmp1071, D.14951
	salq	$3, %rdx	#, D.14951
	addq	%rdx, %rax	# D.14951, D.14954
	movq	(%rax), %rax	# *_528, D.14952
	movl	-128(%rbp), %edx	# k, tmp1072
	movslq	%edx, %rdx	# tmp1072, D.14951
	salq	$2, %rdx	#, D.14951
	addq	%rax, %rdx	# D.14952, D.14952
	movq	-40(%rbp), %rax	# itr, itr.239
	movl	-112(%rbp), %ecx	# prv, tmp1073
	movslq	%ecx, %rcx	# tmp1073, D.14951
	salq	$3, %rcx	#, D.14951
	addq	%rcx, %rax	# D.14951, D.14954
	movq	(%rax), %rax	# *_536, D.14952
	movl	-128(%rbp), %ecx	# k, tmp1074
	movslq	%ecx, %rcx	# tmp1074, D.14951
	salq	$2, %rcx	#, D.14951
	addq	%rcx, %rax	# D.14951, D.14952
	movl	(%rax), %eax	# *_540, D.14950
	movl	%eax, (%rdx)	# D.14950, *_532
.L154:
	.loc 1 1147 0
	movq	-168(%rbp), %rax	# hmm, tmp1075
	movq	328(%rax), %rax	# hmm_9(D)->isc, D.14954
	movl	-132(%rbp), %edx	# i, tmp1076
	movslq	%edx, %rcx	# tmp1076, D.14955
	movq	-152(%rbp), %rdx	# dsq, tmp1077
	addq	%rcx, %rdx	# D.14955, D.14956
	movzbl	(%rdx), %edx	# *_544, D.14957
	movsbq	%dl, %rdx	# D.14957, D.14951
	salq	$3, %rdx	#, D.14951
	addq	%rdx, %rax	# D.14951, D.14954
	movq	(%rax), %rax	# *_548, D.14952
	movl	-128(%rbp), %edx	# k, tmp1078
	movslq	%edx, %rdx	# tmp1078, D.14951
	salq	$2, %rdx	#, D.14951
	addq	%rdx, %rax	# D.14951, D.14952
	movl	(%rax), %eax	# *_552, D.14950
	cmpl	$-987654321, %eax	#, D.14950
	je	.L155	#,
	.loc 1 1148 0
	movq	-72(%rbp), %rax	# imx, imx.240
	movl	-120(%rbp), %edx	# cur, tmp1079
	movslq	%edx, %rdx	# tmp1079, D.14951
	salq	$3, %rdx	#, D.14951
	addq	%rdx, %rax	# D.14951, D.14954
	movq	(%rax), %rax	# *_557, D.14952
	movl	-128(%rbp), %edx	# k, tmp1080
	movslq	%edx, %rdx	# tmp1080, D.14951
	salq	$2, %rdx	#, D.14951
	addq	%rax, %rdx	# D.14952, D.14952
	movq	-72(%rbp), %rax	# imx, imx.241
	movl	-120(%rbp), %ecx	# cur, tmp1081
	movslq	%ecx, %rcx	# tmp1081, D.14951
	salq	$3, %rcx	#, D.14951
	addq	%rcx, %rax	# D.14951, D.14954
	movq	(%rax), %rax	# *_565, D.14952
	movl	-128(%rbp), %ecx	# k, tmp1082
	movslq	%ecx, %rcx	# tmp1082, D.14951
	salq	$2, %rcx	#, D.14951
	addq	%rcx, %rax	# D.14951, D.14952
	movl	(%rax), %ecx	# *_569, D.14950
	movq	-168(%rbp), %rax	# hmm, tmp1083
	movq	328(%rax), %rax	# hmm_9(D)->isc, D.14954
	movl	-132(%rbp), %esi	# i, tmp1084
	movslq	%esi, %rdi	# tmp1084, D.14955
	movq	-152(%rbp), %rsi	# dsq, tmp1085
	addq	%rdi, %rsi	# D.14955, D.14956
	movzbl	(%rsi), %esi	# *_573, D.14957
	movsbq	%sil, %rsi	# D.14957, D.14951
	salq	$3, %rsi	#, D.14951
	addq	%rsi, %rax	# D.14951, D.14954
	movq	(%rax), %rax	# *_577, D.14952
	movl	-128(%rbp), %esi	# k, tmp1086
	movslq	%esi, %rsi	# tmp1086, D.14951
	salq	$2, %rsi	#, D.14951
	addq	%rsi, %rax	# D.14951, D.14952
	movl	(%rax), %eax	# *_581, D.14950
	addl	%ecx, %eax	# D.14950, D.14950
	movl	%eax, (%rdx)	# D.14950, *_561
	jmp	.L152	#
.L155:
	.loc 1 1150 0
	movq	-72(%rbp), %rax	# imx, imx.242
	movl	-120(%rbp), %edx	# cur, tmp1087
	movslq	%edx, %rdx	# tmp1087, D.14951
	salq	$3, %rdx	#, D.14951
	addq	%rdx, %rax	# D.14951, D.14954
	movq	(%rax), %rax	# *_587, D.14952
	movl	-128(%rbp), %edx	# k, tmp1088
	movslq	%edx, %rdx	# tmp1088, D.14951
	salq	$2, %rdx	#, D.14951
	addq	%rdx, %rax	# D.14951, D.14952
	movl	$-987654321, (%rax)	#, *_591
.L152:
	.loc 1 1117 0
	addl	$1, -128(%rbp)	#, k
.L143:
	.loc 1 1117 0 is_stmt 0 discriminator 1
	movq	-168(%rbp), %rax	# hmm, tmp1089
	movl	136(%rax), %eax	# hmm_9(D)->M, D.14950
	cmpl	-128(%rbp), %eax	# k, D.14950
	jge	.L156	#,
	.loc 1 1158 0 is_stmt 1
	movq	-96(%rbp), %rax	# xmx, xmx.243
	movl	-120(%rbp), %edx	# cur, tmp1090
	movslq	%edx, %rdx	# tmp1090, D.14951
	salq	$3, %rdx	#, D.14951
	addq	%rdx, %rax	# D.14951, D.14954
	movq	(%rax), %rax	# *_596, D.14952
	addq	$16, %rax	#, D.14952
	movl	$-987654321, (%rax)	#, *_598
	.loc 1 1159 0
	movq	-96(%rbp), %rax	# xmx, xmx.244
	movl	-112(%rbp), %edx	# prv, tmp1091
	movslq	%edx, %rdx	# tmp1091, D.14951
	salq	$3, %rdx	#, D.14951
	addq	%rdx, %rax	# D.14951, D.14954
	movq	(%rax), %rax	# *_602, D.14952
	addq	$16, %rax	#, D.14952
	movl	(%rax), %edx	# *_604, D.14950
	movq	-168(%rbp), %rax	# hmm, tmp1092
	movl	340(%rax), %eax	# hmm_9(D)->xsc, D.14950
	addl	%edx, %eax	# D.14950, tmp1093
	movl	%eax, -108(%rbp)	# tmp1093, sc
	cmpl	$-987654320, -108(%rbp)	#, sc
	jl	.L157	#,
	.loc 1 1160 0
	movq	-96(%rbp), %rax	# xmx, xmx.245
	movl	-120(%rbp), %edx	# cur, tmp1094
	movslq	%edx, %rdx	# tmp1094, D.14951
	salq	$3, %rdx	#, D.14951
	addq	%rdx, %rax	# D.14951, D.14954
	movq	(%rax), %rax	# *_611, D.14952
	leaq	16(%rax), %rdx	#, D.14952
	movl	-108(%rbp), %eax	# sc, tmp1095
	movl	%eax, (%rdx)	# tmp1095, *_613
.L157:
	.loc 1 1162 0
	movq	-96(%rbp), %rax	# xmx, xmx.246
	movl	-120(%rbp), %edx	# cur, tmp1096
	movslq	%edx, %rdx	# tmp1096, D.14951
	salq	$3, %rdx	#, D.14951
	addq	%rdx, %rax	# D.14951, D.14954
	movq	(%rax), %rax	# *_617, D.14952
	addq	$4, %rax	#, D.14952
	movl	$-987654321, (%rax)	#, *_619
	.loc 1 1163 0
	movl	$1, -128(%rbp)	#, k
	jmp	.L158	#
.L160:
	.loc 1 1164 0
	movq	-88(%rbp), %rax	# mmx, mmx.247
	movl	-120(%rbp), %edx	# cur, tmp1097
	movslq	%edx, %rdx	# tmp1097, D.14951
	salq	$3, %rdx	#, D.14951
	addq	%rdx, %rax	# D.14951, D.14954
	movq	(%rax), %rax	# *_625, D.14952
	movl	-128(%rbp), %edx	# k, tmp1098
	movslq	%edx, %rdx	# tmp1098, D.14951
	salq	$2, %rdx	#, D.14951
	addq	%rdx, %rax	# D.14951, D.14952
	movl	(%rax), %edx	# *_629, D.14950
	movq	-168(%rbp), %rax	# hmm, tmp1099
	movq	376(%rax), %rax	# hmm_9(D)->esc, D.14952
	movl	-128(%rbp), %ecx	# k, tmp1100
	movslq	%ecx, %rcx	# tmp1100, D.14951
	salq	$2, %rcx	#, D.14951
	addq	%rcx, %rax	# D.14951, D.14952
	movl	(%rax), %eax	# *_634, D.14950
	addl	%edx, %eax	# D.14950, tmp1101
	movl	%eax, -108(%rbp)	# tmp1101, sc
	movq	-96(%rbp), %rax	# xmx, xmx.248
	movl	-120(%rbp), %edx	# cur, tmp1102
	movslq	%edx, %rdx	# tmp1102, D.14951
	salq	$3, %rdx	#, D.14951
	addq	%rdx, %rax	# D.14951, D.14954
	movq	(%rax), %rax	# *_640, D.14952
	addq	$4, %rax	#, D.14952
	movl	(%rax), %eax	# *_642, D.14950
	cmpl	%eax, -108(%rbp)	# D.14950, sc
	jle	.L159	#,
	.loc 1 1165 0
	movq	-96(%rbp), %rax	# xmx, xmx.249
	movl	-120(%rbp), %edx	# cur, tmp1103
	movslq	%edx, %rdx	# tmp1103, D.14951
	salq	$3, %rdx	#, D.14951
	addq	%rdx, %rax	# D.14951, D.14954
	movq	(%rax), %rax	# *_647, D.14952
	leaq	4(%rax), %rdx	#, D.14952
	movl	-108(%rbp), %eax	# sc, tmp1104
	movl	%eax, (%rdx)	# tmp1104, *_649
	movl	-132(%rbp), %eax	# i, tmp1105
	cltq
	leaq	0(,%rax,4), %rdx	#, D.14951
	movq	-8(%rbp), %rax	# etr, tmp1106
	addq	%rax, %rdx	# tmp1106, D.14952
	movq	-56(%rbp), %rax	# mtr, mtr.250
	movl	-120(%rbp), %ecx	# cur, tmp1107
	movslq	%ecx, %rcx	# tmp1107, D.14951
	salq	$3, %rcx	#, D.14951
	addq	%rcx, %rax	# D.14951, D.14954
	movq	(%rax), %rax	# *_656, D.14952
	movl	-128(%rbp), %ecx	# k, tmp1108
	movslq	%ecx, %rcx	# tmp1108, D.14951
	salq	$2, %rcx	#, D.14951
	addq	%rcx, %rax	# D.14951, D.14952
	movl	(%rax), %eax	# *_660, D.14950
	movl	%eax, (%rdx)	# D.14950, *_652
.L159:
	.loc 1 1163 0
	addl	$1, -128(%rbp)	#, k
.L158:
	.loc 1 1163 0 is_stmt 0 discriminator 1
	movq	-168(%rbp), %rax	# hmm, tmp1109
	movl	136(%rax), %eax	# hmm_9(D)->M, D.14950
	cmpl	-128(%rbp), %eax	# k, D.14950
	jge	.L160	#,
	.loc 1 1167 0 is_stmt 1
	movq	-96(%rbp), %rax	# xmx, xmx.251
	movl	-120(%rbp), %edx	# cur, tmp1110
	movslq	%edx, %rdx	# tmp1110, D.14951
	salq	$3, %rdx	#, D.14951
	addq	%rdx, %rax	# D.14951, D.14954
	movq	(%rax), %rax	# *_666, D.14952
	addq	$12, %rax	#, D.14952
	movl	$-987654321, (%rax)	#, *_668
	.loc 1 1168 0
	movq	-96(%rbp), %rax	# xmx, xmx.252
	movl	-112(%rbp), %edx	# prv, tmp1111
	movslq	%edx, %rdx	# tmp1111, D.14951
	salq	$3, %rdx	#, D.14951
	addq	%rdx, %rax	# D.14951, D.14954
	movq	(%rax), %rax	# *_672, D.14952
	addq	$12, %rax	#, D.14952
	movl	(%rax), %edx	# *_674, D.14950
	movq	-168(%rbp), %rax	# hmm, tmp1112
	movl	364(%rax), %eax	# hmm_9(D)->xsc, D.14950
	addl	%edx, %eax	# D.14950, tmp1113
	movl	%eax, -108(%rbp)	# tmp1113, sc
	cmpl	$-987654320, -108(%rbp)	#, sc
	jl	.L161	#,
	.loc 1 1169 0
	movq	-96(%rbp), %rax	# xmx, xmx.253
	movl	-120(%rbp), %edx	# cur, tmp1114
	movslq	%edx, %rdx	# tmp1114, D.14951
	salq	$3, %rdx	#, D.14951
	addq	%rdx, %rax	# D.14951, D.14954
	movq	(%rax), %rax	# *_681, D.14952
	leaq	12(%rax), %rdx	#, D.14952
	movl	-108(%rbp), %eax	# sc, tmp1115
	movl	%eax, (%rdx)	# tmp1115, *_683
	movq	-64(%rbp), %rax	# xtr, xtr.254
	movl	-120(%rbp), %edx	# cur, tmp1116
	movslq	%edx, %rdx	# tmp1116, D.14951
	salq	$3, %rdx	#, D.14951
	addq	%rdx, %rax	# D.14951, D.14954
	movq	(%rax), %rax	# *_687, D.14952
	leaq	12(%rax), %rdx	#, D.14952
	movq	-64(%rbp), %rax	# xtr, xtr.255
	movl	-112(%rbp), %ecx	# prv, tmp1117
	movslq	%ecx, %rcx	# tmp1117, D.14951
	salq	$3, %rcx	#, D.14951
	addq	%rcx, %rax	# D.14951, D.14954
	movq	(%rax), %rax	# *_693, D.14952
	movl	12(%rax), %eax	# MEM[(int *)_694 + 12B], D.14950
	movl	%eax, (%rdx)	# D.14950, *_689
.L161:
	.loc 1 1170 0
	movq	-96(%rbp), %rax	# xmx, xmx.256
	movl	-120(%rbp), %edx	# cur, tmp1118
	movslq	%edx, %rdx	# tmp1118, D.14951
	salq	$3, %rdx	#, D.14951
	addq	%rdx, %rax	# D.14951, D.14954
	movq	(%rax), %rax	# *_699, D.14952
	addq	$4, %rax	#, D.14952
	movl	(%rax), %edx	# *_701, D.14950
	movq	-168(%rbp), %rax	# hmm, tmp1119
	movl	348(%rax), %eax	# hmm_9(D)->xsc, D.14950
	addl	%edx, %eax	# D.14950, tmp1120
	movl	%eax, -108(%rbp)	# tmp1120, sc
	movq	-96(%rbp), %rax	# xmx, xmx.257
	movl	-120(%rbp), %edx	# cur, tmp1121
	movslq	%edx, %rdx	# tmp1121, D.14951
	salq	$3, %rdx	#, D.14951
	addq	%rdx, %rax	# D.14951, D.14954
	movq	(%rax), %rax	# *_708, D.14952
	addq	$12, %rax	#, D.14952
	movl	(%rax), %eax	# *_710, D.14950
	cmpl	%eax, -108(%rbp)	# D.14950, sc
	jle	.L162	#,
	.loc 1 1171 0
	movq	-96(%rbp), %rax	# xmx, xmx.258
	movl	-120(%rbp), %edx	# cur, tmp1122
	movslq	%edx, %rdx	# tmp1122, D.14951
	salq	$3, %rdx	#, D.14951
	addq	%rdx, %rax	# D.14951, D.14954
	movq	(%rax), %rax	# *_715, D.14952
	leaq	12(%rax), %rdx	#, D.14952
	movl	-108(%rbp), %eax	# sc, tmp1123
	movl	%eax, (%rdx)	# tmp1123, *_717
	movq	-64(%rbp), %rax	# xtr, xtr.259
	movl	-120(%rbp), %edx	# cur, tmp1124
	movslq	%edx, %rdx	# tmp1124, D.14951
	salq	$3, %rdx	#, D.14951
	addq	%rdx, %rax	# D.14951, D.14954
	movq	(%rax), %rax	# *_721, D.14952
	leaq	12(%rax), %rdx	#, D.14952
	movl	-132(%rbp), %eax	# i, tmp1125
	movl	%eax, (%rdx)	# tmp1125, *_723
.L162:
	.loc 1 1173 0
	movq	-96(%rbp), %rax	# xmx, xmx.260
	movl	-120(%rbp), %edx	# cur, tmp1126
	movslq	%edx, %rdx	# tmp1126, D.14951
	salq	$3, %rdx	#, D.14951
	addq	%rdx, %rax	# D.14951, D.14954
	movq	(%rax), %rax	# *_727, D.14952
	movl	$-987654321, (%rax)	#, *_728
	.loc 1 1174 0
	movq	-96(%rbp), %rax	# xmx, xmx.261
	movl	-120(%rbp), %edx	# cur, tmp1127
	movslq	%edx, %rdx	# tmp1127, D.14951
	salq	$3, %rdx	#, D.14951
	addq	%rdx, %rax	# D.14951, D.14954
	movq	(%rax), %rax	# *_732, D.14952
	addq	$16, %rax	#, D.14952
	movl	(%rax), %edx	# *_734, D.14950
	movq	-168(%rbp), %rax	# hmm, tmp1128
	movl	336(%rax), %eax	# hmm_9(D)->xsc, D.14950
	addl	%edx, %eax	# D.14950, tmp1129
	movl	%eax, -108(%rbp)	# tmp1129, sc
	cmpl	$-987654320, -108(%rbp)	#, sc
	jl	.L163	#,
	.loc 1 1175 0
	movq	-96(%rbp), %rax	# xmx, xmx.262
	movl	-120(%rbp), %edx	# cur, tmp1130
	movslq	%edx, %rdx	# tmp1130, D.14951
	salq	$3, %rdx	#, D.14951
	addq	%rdx, %rax	# D.14951, D.14954
	movq	(%rax), %rax	# *_741, D.14952
	movl	-108(%rbp), %edx	# sc, tmp1131
	movl	%edx, (%rax)	# tmp1131, *_742
	movl	-132(%rbp), %eax	# i, tmp1132
	cltq
	leaq	0(,%rax,4), %rdx	#, D.14951
	movq	-16(%rbp), %rax	# btr, tmp1133
	addq	%rdx, %rax	# D.14951, D.14952
	movl	$0, (%rax)	#, *_745
.L163:
	.loc 1 1176 0
	movq	-96(%rbp), %rax	# xmx, xmx.263
	movl	-120(%rbp), %edx	# cur, tmp1134
	movslq	%edx, %rdx	# tmp1134, D.14951
	salq	$3, %rdx	#, D.14951
	addq	%rdx, %rax	# D.14951, D.14954
	movq	(%rax), %rax	# *_749, D.14952
	addq	$12, %rax	#, D.14952
	movl	(%rax), %edx	# *_751, D.14950
	movq	-168(%rbp), %rax	# hmm, tmp1135
	movl	360(%rax), %eax	# hmm_9(D)->xsc, D.14950
	addl	%edx, %eax	# D.14950, tmp1136
	movl	%eax, -108(%rbp)	# tmp1136, sc
	movq	-96(%rbp), %rax	# xmx, xmx.264
	movl	-120(%rbp), %edx	# cur, tmp1137
	movslq	%edx, %rdx	# tmp1137, D.14951
	salq	$3, %rdx	#, D.14951
	addq	%rdx, %rax	# D.14951, D.14954
	movq	(%rax), %rax	# *_758, D.14952
	movl	(%rax), %eax	# *_759, D.14950
	cmpl	%eax, -108(%rbp)	# D.14950, sc
	jle	.L164	#,
	.loc 1 1177 0
	movq	-96(%rbp), %rax	# xmx, xmx.265
	movl	-120(%rbp), %edx	# cur, tmp1138
	movslq	%edx, %rdx	# tmp1138, D.14951
	salq	$3, %rdx	#, D.14951
	addq	%rdx, %rax	# D.14951, D.14954
	movq	(%rax), %rax	# *_764, D.14952
	movl	-108(%rbp), %edx	# sc, tmp1139
	movl	%edx, (%rax)	# tmp1139, *_765
	movl	-132(%rbp), %eax	# i, tmp1140
	cltq
	leaq	0(,%rax,4), %rdx	#, D.14951
	movq	-16(%rbp), %rax	# btr, tmp1141
	addq	%rax, %rdx	# tmp1141, D.14952
	movq	-64(%rbp), %rax	# xtr, xtr.266
	movl	-120(%rbp), %ecx	# cur, tmp1142
	movslq	%ecx, %rcx	# tmp1142, D.14951
	salq	$3, %rcx	#, D.14951
	addq	%rcx, %rax	# D.14951, D.14954
	movq	(%rax), %rax	# *_772, D.14952
	movl	12(%rax), %eax	# MEM[(int *)_773 + 12B], D.14950
	movl	%eax, (%rdx)	# D.14950, *_768
.L164:
	.loc 1 1179 0
	movq	-96(%rbp), %rax	# xmx, xmx.267
	movl	-120(%rbp), %edx	# cur, tmp1143
	movslq	%edx, %rdx	# tmp1143, D.14951
	salq	$3, %rdx	#, D.14951
	addq	%rdx, %rax	# D.14951, D.14954
	movq	(%rax), %rax	# *_778, D.14952
	addq	$8, %rax	#, D.14952
	movl	$-987654321, (%rax)	#, *_780
	.loc 1 1180 0
	movq	-96(%rbp), %rax	# xmx, xmx.268
	movl	-112(%rbp), %edx	# prv, tmp1144
	movslq	%edx, %rdx	# tmp1144, D.14951
	salq	$3, %rdx	#, D.14951
	addq	%rdx, %rax	# D.14951, D.14954
	movq	(%rax), %rax	# *_784, D.14952
	addq	$8, %rax	#, D.14952
	movl	(%rax), %edx	# *_786, D.14950
	movq	-168(%rbp), %rax	# hmm, tmp1145
	movl	356(%rax), %eax	# hmm_9(D)->xsc, D.14950
	addl	%edx, %eax	# D.14950, tmp1146
	movl	%eax, -108(%rbp)	# tmp1146, sc
	cmpl	$-987654320, -108(%rbp)	#, sc
	jl	.L165	#,
	.loc 1 1181 0
	movq	-96(%rbp), %rax	# xmx, xmx.269
	movl	-120(%rbp), %edx	# cur, tmp1147
	movslq	%edx, %rdx	# tmp1147, D.14951
	salq	$3, %rdx	#, D.14951
	addq	%rdx, %rax	# D.14951, D.14954
	movq	(%rax), %rax	# *_793, D.14952
	leaq	8(%rax), %rdx	#, D.14952
	movl	-108(%rbp), %eax	# sc, tmp1148
	movl	%eax, (%rdx)	# tmp1148, *_795
	movq	-64(%rbp), %rax	# xtr, xtr.270
	movl	-120(%rbp), %edx	# cur, tmp1149
	movslq	%edx, %rdx	# tmp1149, D.14951
	salq	$3, %rdx	#, D.14951
	addq	%rdx, %rax	# D.14951, D.14954
	movq	(%rax), %rax	# *_799, D.14952
	leaq	8(%rax), %rdx	#, D.14952
	movq	-64(%rbp), %rax	# xtr, xtr.271
	movl	-112(%rbp), %ecx	# prv, tmp1150
	movslq	%ecx, %rcx	# tmp1150, D.14951
	salq	$3, %rcx	#, D.14951
	addq	%rcx, %rax	# D.14951, D.14954
	movq	(%rax), %rax	# *_805, D.14952
	movl	8(%rax), %eax	# MEM[(int *)_806 + 8B], D.14950
	movl	%eax, (%rdx)	# D.14950, *_801
.L165:
	.loc 1 1182 0
	movq	-96(%rbp), %rax	# xmx, xmx.272
	movl	-120(%rbp), %edx	# cur, tmp1151
	movslq	%edx, %rdx	# tmp1151, D.14951
	salq	$3, %rdx	#, D.14951
	addq	%rdx, %rax	# D.14951, D.14954
	movq	(%rax), %rax	# *_811, D.14952
	addq	$4, %rax	#, D.14952
	movl	(%rax), %edx	# *_813, D.14950
	movq	-168(%rbp), %rax	# hmm, tmp1152
	movl	344(%rax), %eax	# hmm_9(D)->xsc, D.14950
	addl	%edx, %eax	# D.14950, tmp1153
	movl	%eax, -108(%rbp)	# tmp1153, sc
	movq	-96(%rbp), %rax	# xmx, xmx.273
	movl	-120(%rbp), %edx	# cur, tmp1154
	movslq	%edx, %rdx	# tmp1154, D.14951
	salq	$3, %rdx	#, D.14951
	addq	%rdx, %rax	# D.14951, D.14954
	movq	(%rax), %rax	# *_820, D.14952
	addq	$8, %rax	#, D.14952
	movl	(%rax), %eax	# *_822, D.14950
	cmpl	%eax, -108(%rbp)	# D.14950, sc
	jle	.L166	#,
	.loc 1 1183 0
	movq	-96(%rbp), %rax	# xmx, xmx.274
	movl	-120(%rbp), %edx	# cur, tmp1155
	movslq	%edx, %rdx	# tmp1155, D.14951
	salq	$3, %rdx	#, D.14951
	addq	%rdx, %rax	# D.14951, D.14954
	movq	(%rax), %rax	# *_827, D.14952
	leaq	8(%rax), %rdx	#, D.14952
	movl	-108(%rbp), %eax	# sc, tmp1156
	movl	%eax, (%rdx)	# tmp1156, *_829
	movq	-64(%rbp), %rax	# xtr, xtr.275
	movl	-120(%rbp), %edx	# cur, tmp1157
	movslq	%edx, %rdx	# tmp1157, D.14951
	salq	$3, %rdx	#, D.14951
	addq	%rdx, %rax	# D.14951, D.14954
	movq	(%rax), %rax	# *_833, D.14952
	leaq	8(%rax), %rdx	#, D.14952
	movl	-132(%rbp), %eax	# i, tmp1158
	movl	%eax, (%rdx)	# tmp1158, *_835
.L166:
	.loc 1 1111 0
	addl	$1, -132(%rbp)	#, i
.L142:
	.loc 1 1111 0 is_stmt 0 discriminator 1
	movl	-132(%rbp), %eax	# i, tmp1159
	cmpl	-156(%rbp), %eax	# L, tmp1159
	jle	.L167	#,
	.loc 1 1186 0 is_stmt 1
	movq	-96(%rbp), %rax	# xmx, xmx.276
	movl	-120(%rbp), %edx	# cur, tmp1160
	movslq	%edx, %rdx	# tmp1160, D.14951
	salq	$3, %rdx	#, D.14951
	addq	%rdx, %rax	# D.14951, D.14954
	movq	(%rax), %rax	# *_840, D.14952
	addq	$8, %rax	#, D.14952
	movl	(%rax), %edx	# *_842, D.14950
	movq	-168(%rbp), %rax	# hmm, tmp1161
	movl	352(%rax), %eax	# hmm_9(D)->xsc, D.14950
	addl	%edx, %eax	# D.14950, tmp1162
	movl	%eax, -108(%rbp)	# tmp1162, sc
	.loc 1 1196 0
	movl	$2, -116(%rbp)	#, curralloc
	.loc 1 1197 0
	leaq	-104(%rbp), %rdx	#, tmp1163
	movl	-116(%rbp), %eax	# curralloc, tmp1164
	movq	%rdx, %rsi	# tmp1163,
	movl	%eax, %edi	# tmp1164,
	call	P7AllocTrace	#
	.loc 1 1201 0
	movl	$0, -124(%rbp)	#, tpos
	.loc 1 1202 0
	movq	-104(%rbp), %rax	# tr, tr.277
	movq	8(%rax), %rdx	# tr.277_848->statetype, D.14956
	movl	-124(%rbp), %eax	# tpos, tmp1165
	cltq
	addq	%rdx, %rax	# D.14956, D.14956
	movb	$9, (%rax)	#, *_851
	.loc 1 1203 0
	movq	-104(%rbp), %rax	# tr, tr.278
	movq	24(%rax), %rax	# tr.278_852->pos, D.14952
	movl	-124(%rbp), %edx	# tpos, tmp1166
	movslq	%edx, %rdx	# tmp1166, D.14951
	salq	$2, %rdx	#, D.14951
	addq	%rdx, %rax	# D.14951, D.14952
	movl	$0, (%rax)	#, *_856
	.loc 1 1204 0
	movq	-64(%rbp), %rcx	# xtr, xtr.279
	movl	-156(%rbp), %eax	# L, tmp1167
	cltd
	shrl	$31, %edx	#, tmp1169
	addl	%edx, %eax	# tmp1169, tmp1170
	andl	$1, %eax	#, tmp1171
	subl	%edx, %eax	# tmp1169, tmp1172
	cltq
	salq	$3, %rax	#, D.14951
	addq	%rcx, %rax	# xtr.279, D.14954
	movq	(%rax), %rax	# *_861, D.14952
	movl	8(%rax), %eax	# MEM[(int *)_862 + 8B], tmp1173
	movl	%eax, -132(%rbp)	# tmp1173, i
	.loc 1 1205 0
	jmp	.L168	#
.L169:
	.loc 1 1207 0
	addl	$2, -116(%rbp)	#, curralloc
	.loc 1 1208 0
	movq	-104(%rbp), %rax	# tr, tr.280
	movl	-116(%rbp), %edx	# curralloc, tmp1174
	movl	%edx, %esi	# tmp1174,
	movq	%rax, %rdi	# tr.280,
	call	P7ReallocTrace	#
	.loc 1 1210 0
	addl	$1, -124(%rbp)	#, tpos
	.loc 1 1211 0
	movq	-104(%rbp), %rax	# tr, tr.281
	movq	8(%rax), %rdx	# tr.281_867->statetype, D.14956
	movl	-124(%rbp), %eax	# tpos, tmp1175
	cltq
	addq	%rdx, %rax	# D.14956, D.14956
	movb	$7, (%rax)	#, *_870
	.loc 1 1212 0
	movq	-104(%rbp), %rax	# tr, tr.282
	movq	24(%rax), %rax	# tr.282_871->pos, D.14952
	movl	-124(%rbp), %edx	# tpos, tmp1176
	movslq	%edx, %rdx	# tmp1176, D.14951
	salq	$2, %rdx	#, D.14951
	addq	%rax, %rdx	# D.14952, D.14952
	movl	-132(%rbp), %eax	# i, tmp1177
	movl	%eax, (%rdx)	# tmp1177, *_875
	.loc 1 1213 0
	movl	-132(%rbp), %eax	# i, tmp1178
	cltq
	leaq	0(,%rax,4), %rdx	#, D.14951
	movq	-8(%rbp), %rax	# etr, tmp1179
	addq	%rdx, %rax	# D.14951, D.14952
	movl	(%rax), %eax	# *_878, tmp1180
	movl	%eax, -132(%rbp)	# tmp1180, i
	.loc 1 1215 0
	addl	$1, -124(%rbp)	#, tpos
	.loc 1 1216 0
	movq	-104(%rbp), %rax	# tr, tr.283
	movq	8(%rax), %rdx	# tr.283_881->statetype, D.14956
	movl	-124(%rbp), %eax	# tpos, tmp1181
	cltq
	addq	%rdx, %rax	# D.14956, D.14956
	movb	$6, (%rax)	#, *_884
	.loc 1 1217 0
	movq	-104(%rbp), %rax	# tr, tr.284
	movq	24(%rax), %rax	# tr.284_885->pos, D.14952
	movl	-124(%rbp), %edx	# tpos, tmp1182
	movslq	%edx, %rdx	# tmp1182, D.14951
	salq	$2, %rdx	#, D.14951
	addq	%rax, %rdx	# D.14952, D.14952
	movl	-132(%rbp), %eax	# i, tmp1183
	movl	%eax, (%rdx)	# tmp1183, *_889
	.loc 1 1218 0
	movl	-132(%rbp), %eax	# i, tmp1184
	cltq
	leaq	0(,%rax,4), %rdx	#, D.14951
	movq	-16(%rbp), %rax	# btr, tmp1185
	addq	%rdx, %rax	# D.14951, D.14952
	movl	(%rax), %eax	# *_892, tmp1186
	movl	%eax, -132(%rbp)	# tmp1186, i
.L168:
	.loc 1 1205 0 discriminator 1
	cmpl	$0, -132(%rbp)	#, i
	jg	.L169	#,
	.loc 1 1221 0
	addl	$1, -124(%rbp)	#, tpos
	.loc 1 1222 0
	movq	-104(%rbp), %rax	# tr, tr.285
	movq	8(%rax), %rdx	# tr.285_895->statetype, D.14956
	movl	-124(%rbp), %eax	# tpos, tmp1187
	cltq
	addq	%rdx, %rax	# D.14956, D.14956
	movb	$4, (%rax)	#, *_898
	.loc 1 1223 0
	movq	-104(%rbp), %rax	# tr, tr.286
	movq	24(%rax), %rax	# tr.286_899->pos, D.14952
	movl	-124(%rbp), %edx	# tpos, tmp1188
	movslq	%edx, %rdx	# tmp1188, D.14951
	salq	$2, %rdx	#, D.14951
	addq	%rdx, %rax	# D.14951, D.14952
	movl	$0, (%rax)	#, *_903
	.loc 1 1224 0
	movq	-104(%rbp), %rax	# tr, tr.287
	movl	-124(%rbp), %edx	# tpos, tmp1189
	addl	$1, %edx	#, D.14950
	movl	%edx, (%rax)	# D.14950, tr.287_904->tlen
	.loc 1 1225 0
	movq	-104(%rbp), %rax	# tr, tr.288
	movq	%rax, %rdi	# tr.288,
	call	P7ReverseTrace	#
	.loc 1 1227 0
	movq	-32(%rbp), %rax	# mx, tmp1190
	movq	%rax, %rdi	# tmp1190,
	call	FreePlan7Matrix	#
	.loc 1 1228 0
	movq	-24(%rbp), %rax	# tmx, tmp1191
	movq	%rax, %rdi	# tmp1191,
	call	FreePlan7Matrix	#
	.loc 1 1229 0
	movq	-16(%rbp), %rax	# btr, tmp1192
	movq	%rax, %rdi	# tmp1192,
	call	free	#
	.loc 1 1230 0
	movq	-8(%rbp), %rax	# etr, tmp1193
	movq	%rax, %rdi	# tmp1193,
	call	free	#
	.loc 1 1232 0
	movq	-104(%rbp), %rdx	# tr, tr.289
	movq	-176(%rbp), %rax	# ret_tr, tmp1194
	movq	%rdx, (%rax)	# tr.289, *ret_tr_908(D)
	.loc 1 1233 0
	movl	-108(%rbp), %eax	# sc, tmp1195
	movl	%eax, %edi	# tmp1195,
	call	Scorify	#
	movss	%xmm0, -160(%rbp)	#, %sfp
	movl	-160(%rbp), %eax	# %sfp, D.14958
	.loc 1 1234 0
	movl	%eax, -160(%rbp)	# <retval>, %sfp
	movss	-160(%rbp), %xmm0	# %sfp,
	leave
	.cfi_def_cfa 7, 8
	ret
	.cfi_endproc
.LFE14:
	.size	P7ParsingViterbi, .-P7ParsingViterbi
	.section	.rodata
.LC12:
	.string	"Bogus state %s"
	.text
	.globl	P7WeeViterbi
	.type	P7WeeViterbi, @function
P7WeeViterbi:
.LFB15:
	.loc 1 1264 0
	.cfi_startproc
	pushq	%rbp	#
	.cfi_def_cfa_offset 16
	.cfi_offset 6, -16
	movq	%rsp, %rbp	#,
	.cfi_def_cfa_register 6
	subq	$176, %rsp	#,
	movq	%rdi, -104(%rbp)	# dsq, dsq
	movl	%esi, -108(%rbp)	# L, L
	movq	%rdx, -120(%rbp)	# hmm, hmm
	movq	%rcx, -128(%rbp)	# ret_tr, ret_tr
	.loc 1 1282 0
	movl	-108(%rbp), %eax	# L, tmp496
	addl	$1, %eax	#, D.14959
	cltq
	salq	$2, %rax	#, D.14960
	movq	%rax, %rdx	# D.14960,
	movl	$1282, %esi	#,
	movl	$.LC0, %edi	#,
	call	sre_malloc	#
	movq	%rax, -32(%rbp)	# tmp497, kassign
	.loc 1 1283 0
	movl	-108(%rbp), %eax	# L, tmp498
	addl	$1, %eax	#, D.14959
	cltq
	movq	%rax, %rdx	# D.14960,
	movl	$1283, %esi	#,
	movl	$.LC0, %edi	#,
	call	sre_malloc	#
	movq	%rax, -24(%rbp)	# tmp499, tassign
	.loc 1 1284 0
	movl	-108(%rbp), %eax	# L, tmp500
	addl	$1, %eax	#, D.14959
	cltq
	salq	$2, %rax	#, D.14960
	movq	%rax, %rdx	# D.14960,
	movl	$1284, %esi	#,
	movl	$.LC0, %edi	#,
	call	sre_malloc	#
	movq	%rax, -16(%rbp)	# tmp501, endlist
	.loc 1 1285 0
	movl	-108(%rbp), %eax	# L, tmp502
	addl	$1, %eax	#, D.14959
	cltq
	salq	$2, %rax	#, D.14960
	movq	%rax, %rdx	# D.14960,
	movl	$1285, %esi	#,
	movl	$.LC0, %edi	#,
	call	sre_malloc	#
	movq	%rax, -8(%rbp)	# tmp503, startlist
	.loc 1 1287 0
	movl	$0, -84(%rbp)	#, lpos
	.loc 1 1288 0
	movl	-84(%rbp), %eax	# lpos, tmp504
	cltq
	leaq	0(,%rax,4), %rdx	#, D.14960
	movq	-8(%rbp), %rax	# startlist, tmp505
	addq	%rdx, %rax	# D.14960, D.14961
	movl	$1, (%rax)	#, *_45
	.loc 1 1289 0
	movl	-84(%rbp), %eax	# lpos, tmp506
	cltq
	leaq	0(,%rax,4), %rdx	#, D.14960
	movq	-16(%rbp), %rax	# endlist, tmp507
	addq	%rax, %rdx	# tmp507, D.14961
	movl	-108(%rbp), %eax	# L, tmp508
	movl	%eax, (%rdx)	# tmp508, *_48
	.loc 1 1290 0
	movq	-32(%rbp), %rax	# kassign, tmp509
	addq	$4, %rax	#, D.14961
	movl	$1, (%rax)	#, *_49
	.loc 1 1291 0
	movl	-108(%rbp), %eax	# L, tmp510
	cltq
	leaq	0(,%rax,4), %rdx	#, D.14960
	movq	-32(%rbp), %rax	# kassign, tmp511
	addq	%rax, %rdx	# tmp511, D.14961
	movq	-120(%rbp), %rax	# hmm, tmp512
	movl	136(%rax), %eax	# hmm_53(D)->M, D.14959
	movl	%eax, (%rdx)	# D.14959, *_52
	.loc 1 1292 0
	movq	-24(%rbp), %rax	# tassign, tmp513
	addq	$1, %rax	#, D.14962
	movb	$4, (%rax)	#, *_55
	.loc 1 1293 0
	movl	-108(%rbp), %eax	# L, tmp514
	movslq	%eax, %rdx	# tmp514, D.14963
	movq	-24(%rbp), %rax	# tassign, tmp515
	addq	%rdx, %rax	# D.14963, D.14962
	movb	$9, (%rax)	#, *_57
	.loc 1 1297 0
	jmp	.L172	#
.L183:
	.loc 1 1300 0
	movl	-84(%rbp), %eax	# lpos, tmp516
	cltq
	leaq	0(,%rax,4), %rdx	#, D.14960
	movq	-8(%rbp), %rax	# startlist, tmp517
	addq	%rdx, %rax	# D.14960, D.14961
	movl	(%rax), %eax	# *_61, tmp518
	movl	%eax, -60(%rbp)	# tmp518, s1
	.loc 1 1301 0
	movl	-60(%rbp), %eax	# s1, tmp519
	cltq
	leaq	0(,%rax,4), %rdx	#, D.14960
	movq	-32(%rbp), %rax	# kassign, tmp520
	addq	%rdx, %rax	# D.14960, D.14961
	movl	(%rax), %eax	# *_65, tmp521
	movl	%eax, -56(%rbp)	# tmp521, k1
	.loc 1 1302 0
	movl	-60(%rbp), %eax	# s1, tmp522
	movslq	%eax, %rdx	# tmp522, D.14963
	movq	-24(%rbp), %rax	# tassign, tmp523
	addq	%rdx, %rax	# D.14963, D.14962
	movzbl	(%rax), %eax	# *_68, tmp524
	movb	%al, -94(%rbp)	# tmp524, t1
	.loc 1 1303 0
	movl	-84(%rbp), %eax	# lpos, tmp525
	cltq
	leaq	0(,%rax,4), %rdx	#, D.14960
	movq	-16(%rbp), %rax	# endlist, tmp526
	addq	%rdx, %rax	# D.14960, D.14961
	movl	(%rax), %eax	# *_72, tmp527
	movl	%eax, -52(%rbp)	# tmp527, s3
	.loc 1 1304 0
	movl	-52(%rbp), %eax	# s3, tmp528
	cltq
	leaq	0(,%rax,4), %rdx	#, D.14960
	movq	-32(%rbp), %rax	# kassign, tmp529
	addq	%rdx, %rax	# D.14960, D.14961
	movl	(%rax), %eax	# *_76, tmp530
	movl	%eax, -48(%rbp)	# tmp530, k3
	.loc 1 1305 0
	movl	-52(%rbp), %eax	# s3, tmp531
	movslq	%eax, %rdx	# tmp531, D.14963
	movq	-24(%rbp), %rax	# tassign, tmp532
	addq	%rdx, %rax	# D.14963, D.14962
	movzbl	(%rax), %eax	# *_79, tmp533
	movb	%al, -93(%rbp)	# tmp533, t3
	.loc 1 1306 0
	subl	$1, -84(%rbp)	#, lpos
	.loc 1 1308 0
	movsbl	-93(%rbp), %edi	# t3, D.14959
	movsbl	-94(%rbp), %r10d	# t1, D.14959
	movl	-60(%rbp), %r9d	# s1, tmp534
	movl	-56(%rbp), %ecx	# k1, tmp535
	movl	-108(%rbp), %edx	# L, tmp536
	movq	-104(%rbp), %rsi	# dsq, tmp537
	movq	-120(%rbp), %rax	# hmm, tmp538
	leaq	-88(%rbp), %r8	#, tmp539
	movq	%r8, 40(%rsp)	# tmp539,
	leaq	-95(%rbp), %r8	#, tmp540
	movq	%r8, 32(%rsp)	# tmp540,
	leaq	-92(%rbp), %r8	#, tmp541
	movq	%r8, 24(%rsp)	# tmp541,
	movl	-52(%rbp), %r8d	# s3, tmp542
	movl	%r8d, 16(%rsp)	# tmp542,
	movl	%edi, 8(%rsp)	# D.14959,
	movl	-48(%rbp), %edi	# k3, tmp543
	movl	%edi, (%rsp)	# tmp543,
	movl	%r10d, %r8d	# D.14959,
	movq	%rax, %rdi	# tmp538,
	call	get_wee_midpt	#
	movss	%xmm0, -112(%rbp)	#, %sfp
	movl	-112(%rbp), %eax	# %sfp, tmp544
	movl	%eax, -44(%rbp)	# tmp544, sc
	.loc 1 1309 0
	movl	-88(%rbp), %eax	# s2, s2.290
	cltq
	leaq	0(,%rax,4), %rdx	#, D.14960
	movq	-32(%rbp), %rax	# kassign, tmp545
	addq	%rax, %rdx	# tmp545, D.14961
	movl	-92(%rbp), %eax	# k2, k2.291
	movl	%eax, (%rdx)	# k2.291, *_89
	.loc 1 1310 0
	movl	-88(%rbp), %eax	# s2, s2.292
	movslq	%eax, %rdx	# s2.292, D.14963
	movq	-24(%rbp), %rax	# tassign, tmp546
	addq	%rax, %rdx	# tmp546, D.14962
	movzbl	-95(%rbp), %eax	# t2, t2.293
	movb	%al, (%rdx)	# t2.293, *_93
	.loc 1 1312 0
	cmpb	$4, -94(%rbp)	#, t1
	jne	.L173	#,
	.loc 1 1312 0 is_stmt 0 discriminator 1
	cmpb	$9, -93(%rbp)	#, t3
	jne	.L173	#,
	movl	-44(%rbp), %eax	# sc, tmp547
	movl	%eax, -80(%rbp)	# tmp547, ret_sc
.L173:
	.loc 1 1315 0 is_stmt 1
	movzbl	-95(%rbp), %eax	# t2, t2.294
	cmpb	$5, %al	#, t2.294
	je	.L174	#,
	.loc 1 1315 0 is_stmt 0 discriminator 1
	movl	-88(%rbp), %eax	# s2, s2.295
	subl	-60(%rbp), %eax	# s1, D.14959
	cmpl	$1, %eax	#, D.14959
	jg	.L175	#,
	movl	-88(%rbp), %eax	# s2, s2.296
	subl	-60(%rbp), %eax	# s1, D.14959
	cmpl	$1, %eax	#, D.14959
	jne	.L174	#,
	cmpb	$4, -94(%rbp)	#, t1
	jne	.L174	#,
.L175:
	.loc 1 1317 0 is_stmt 1
	addl	$1, -84(%rbp)	#, lpos
	.loc 1 1318 0
	movl	-84(%rbp), %eax	# lpos, tmp548
	cltq
	leaq	0(,%rax,4), %rdx	#, D.14960
	movq	-8(%rbp), %rax	# startlist, tmp549
	addq	%rax, %rdx	# tmp549, D.14961
	movl	-60(%rbp), %eax	# s1, tmp550
	movl	%eax, (%rdx)	# tmp550, *_104
	.loc 1 1319 0
	movl	-84(%rbp), %eax	# lpos, tmp551
	cltq
	leaq	0(,%rax,4), %rdx	#, D.14960
	movq	-16(%rbp), %rax	# endlist, tmp552
	addq	%rax, %rdx	# tmp552, D.14961
	movl	-88(%rbp), %eax	# s2, s2.297
	movl	%eax, (%rdx)	# s2.297, *_107
.L174:
	.loc 1 1322 0
	movzbl	-95(%rbp), %eax	# t2, t2.298
	cmpb	$8, %al	#, t2.298
	je	.L176	#,
	.loc 1 1322 0 is_stmt 0 discriminator 1
	movl	-88(%rbp), %eax	# s2, s2.299
	movl	-52(%rbp), %edx	# s3, tmp553
	subl	%eax, %edx	# s2.299, D.14959
	movl	%edx, %eax	# D.14959, D.14959
	cmpl	$1, %eax	#, D.14959
	jg	.L177	#,
	movl	-88(%rbp), %eax	# s2, s2.300
	movl	-52(%rbp), %edx	# s3, tmp554
	subl	%eax, %edx	# s2.300, D.14959
	movl	%edx, %eax	# D.14959, D.14959
	cmpl	$1, %eax	#, D.14959
	jne	.L176	#,
	cmpb	$9, -93(%rbp)	#, t3
	jne	.L176	#,
.L177:
	.loc 1 1324 0 is_stmt 1
	addl	$1, -84(%rbp)	#, lpos
	.loc 1 1325 0
	movl	-84(%rbp), %eax	# lpos, tmp555
	cltq
	leaq	0(,%rax,4), %rdx	#, D.14960
	movq	-8(%rbp), %rax	# startlist, tmp556
	addq	%rax, %rdx	# tmp556, D.14961
	movl	-88(%rbp), %eax	# s2, s2.301
	movl	%eax, (%rdx)	# s2.301, *_117
	.loc 1 1326 0
	movl	-84(%rbp), %eax	# lpos, tmp557
	cltq
	leaq	0(,%rax,4), %rdx	#, D.14960
	movq	-16(%rbp), %rax	# endlist, tmp558
	addq	%rax, %rdx	# tmp558, D.14961
	movl	-52(%rbp), %eax	# s3, tmp559
	movl	%eax, (%rdx)	# tmp559, *_121
.L176:
	.loc 1 1329 0
	movzbl	-95(%rbp), %eax	# t2, t2.302
	cmpb	$5, %al	#, t2.302
	jne	.L178	#,
	.loc 1 1331 0
	jmp	.L179	#
.L180:
	.loc 1 1332 0 discriminator 2
	movl	-88(%rbp), %eax	# s2, s2.303
	cltq
	leaq	0(,%rax,4), %rdx	#, D.14960
	movq	-32(%rbp), %rax	# kassign, tmp560
	addq	%rdx, %rax	# D.14960, D.14961
	movl	$1, (%rax)	#, *_127
	.loc 1 1333 0 discriminator 2
	movl	-88(%rbp), %eax	# s2, s2.304
	movslq	%eax, %rdx	# s2.304, D.14963
	movq	-24(%rbp), %rax	# tassign, tmp561
	addq	%rdx, %rax	# D.14963, D.14962
	movb	$5, (%rax)	#, *_130
	.loc 1 1331 0 discriminator 2
	movl	-88(%rbp), %eax	# s2, s2.305
	subl	$1, %eax	#, s2.306
	movl	%eax, -88(%rbp)	# s2.306, s2
.L179:
	.loc 1 1331 0 is_stmt 0 discriminator 1
	movl	-88(%rbp), %eax	# s2, s2.307
	cmpl	-60(%rbp), %eax	# s1, s2.307
	jge	.L180	#,
.L178:
	.loc 1 1336 0 is_stmt 1
	movzbl	-95(%rbp), %eax	# t2, t2.308
	cmpb	$8, %al	#, t2.308
	jne	.L172	#,
	.loc 1 1338 0
	jmp	.L181	#
.L182:
	.loc 1 1339 0 discriminator 2
	movl	-88(%rbp), %eax	# s2, s2.309
	cltq
	leaq	0(,%rax,4), %rdx	#, D.14960
	movq	-32(%rbp), %rax	# kassign, tmp562
	addq	%rax, %rdx	# tmp562, D.14961
	movq	-120(%rbp), %rax	# hmm, tmp563
	movl	136(%rax), %eax	# hmm_53(D)->M, D.14959
	movl	%eax, (%rdx)	# D.14959, *_138
	.loc 1 1340 0 discriminator 2
	movl	-88(%rbp), %eax	# s2, s2.310
	movslq	%eax, %rdx	# s2.310, D.14963
	movq	-24(%rbp), %rax	# tassign, tmp564
	addq	%rdx, %rax	# D.14963, D.14962
	movb	$8, (%rax)	#, *_142
	.loc 1 1338 0 discriminator 2
	movl	-88(%rbp), %eax	# s2, s2.311
	addl	$1, %eax	#, s2.312
	movl	%eax, -88(%rbp)	# s2.312, s2
.L181:
	.loc 1 1338 0 is_stmt 0 discriminator 1
	movl	-88(%rbp), %eax	# s2, s2.313
	cmpl	-52(%rbp), %eax	# s3, s2.313
	jle	.L182	#,
.L172:
	.loc 1 1297 0 is_stmt 1 discriminator 1
	cmpl	$0, -84(%rbp)	#, lpos
	jns	.L183	#,
	.loc 1 1357 0
	movl	-108(%rbp), %eax	# L, tmp568
	addl	$6, %eax	#, tmp567
	movl	%eax, -76(%rbp)	# tmp567, tlen
	.loc 1 1358 0
	movl	$1, -72(%rbp)	#, i
	jmp	.L184	#
.L188:
	.loc 1 1360 0
	movl	-72(%rbp), %eax	# i, tmp569
	movslq	%eax, %rdx	# tmp569, D.14963
	movq	-24(%rbp), %rax	# tassign, tmp570
	addq	%rdx, %rax	# D.14963, D.14962
	movzbl	(%rax), %eax	# *_148, D.14964
	cmpb	$1, %al	#, D.14964
	jne	.L185	#,
	.loc 1 1360 0 is_stmt 0 discriminator 1
	movl	-72(%rbp), %eax	# i, tmp571
	cltq
	leaq	1(%rax), %rdx	#, D.14963
	movq	-24(%rbp), %rax	# tassign, tmp572
	addq	%rdx, %rax	# D.14963, D.14962
	movzbl	(%rax), %eax	# *_152, D.14964
	cmpb	$1, %al	#, D.14964
	jne	.L185	#,
	.loc 1 1361 0 is_stmt 1
	movl	-72(%rbp), %eax	# i, tmp573
	cltq
	addq	$1, %rax	#, D.14963
	leaq	0(,%rax,4), %rdx	#, D.14963
	movq	-32(%rbp), %rax	# kassign, tmp574
	addq	%rdx, %rax	# D.14963, D.14961
	movl	(%rax), %edx	# *_157, D.14959
	movl	-72(%rbp), %eax	# i, tmp575
	cltq
	leaq	0(,%rax,4), %rcx	#, D.14960
	movq	-32(%rbp), %rax	# kassign, tmp576
	addq	%rcx, %rax	# D.14960, D.14961
	movl	(%rax), %eax	# *_161, D.14959
	subl	%eax, %edx	# D.14959, D.14959
	movl	%edx, %eax	# D.14959, D.14959
	subl	$1, %eax	#, D.14959
	addl	%eax, -76(%rbp)	# D.14959, tlen
.L185:
	.loc 1 1362 0
	movl	-72(%rbp), %eax	# i, tmp577
	movslq	%eax, %rdx	# tmp577, D.14963
	movq	-24(%rbp), %rax	# tassign, tmp578
	addq	%rdx, %rax	# D.14963, D.14962
	movzbl	(%rax), %eax	# *_167, D.14964
	cmpb	$5, %al	#, D.14964
	jne	.L186	#,
	.loc 1 1362 0 is_stmt 0 discriminator 1
	movl	-72(%rbp), %eax	# i, tmp579
	cltq
	leaq	1(%rax), %rdx	#, D.14963
	movq	-24(%rbp), %rax	# tassign, tmp580
	addq	%rdx, %rax	# D.14963, D.14962
	movzbl	(%rax), %eax	# *_171, D.14964
	cmpb	$1, %al	#, D.14964
	jne	.L186	#,
	.loc 1 1363 0 is_stmt 1
	movl	-72(%rbp), %eax	# i, tmp581
	cltq
	addq	$1, %rax	#, D.14963
	leaq	0(,%rax,4), %rdx	#, D.14963
	movq	-32(%rbp), %rax	# kassign, tmp582
	addq	%rdx, %rax	# D.14963, D.14961
	movl	(%rax), %eax	# *_176, D.14959
	subl	$1, %eax	#, D.14959
	addl	%eax, -76(%rbp)	# D.14959, tlen
.L186:
	.loc 1 1364 0
	movl	-72(%rbp), %eax	# i, tmp583
	movslq	%eax, %rdx	# tmp583, D.14963
	movq	-24(%rbp), %rax	# tassign, tmp584
	addq	%rdx, %rax	# D.14963, D.14962
	movzbl	(%rax), %eax	# *_181, D.14964
	cmpb	$1, %al	#, D.14964
	jne	.L187	#,
	.loc 1 1364 0 is_stmt 0 discriminator 1
	movl	-72(%rbp), %eax	# i, tmp585
	cltq
	leaq	1(%rax), %rdx	#, D.14963
	movq	-24(%rbp), %rax	# tassign, tmp586
	addq	%rdx, %rax	# D.14963, D.14962
	movzbl	(%rax), %eax	# *_185, D.14964
	cmpb	$8, %al	#, D.14964
	jne	.L187	#,
	.loc 1 1365 0 is_stmt 1
	movq	-120(%rbp), %rax	# hmm, tmp587
	movl	136(%rax), %edx	# hmm_53(D)->M, D.14959
	movl	-72(%rbp), %eax	# i, tmp588
	cltq
	leaq	0(,%rax,4), %rcx	#, D.14960
	movq	-32(%rbp), %rax	# kassign, tmp589
	addq	%rcx, %rax	# D.14960, D.14961
	movl	(%rax), %eax	# *_190, D.14959
	subl	%eax, %edx	# D.14959, D.14959
	movl	%edx, %eax	# D.14959, D.14959
	addl	%eax, -76(%rbp)	# D.14959, tlen
.L187:
	.loc 1 1358 0
	addl	$1, -72(%rbp)	#, i
.L184:
	.loc 1 1358 0 is_stmt 0 discriminator 1
	movl	-72(%rbp), %eax	# i, tmp590
	cmpl	-108(%rbp), %eax	# L, tmp590
	jl	.L188	#,
	.loc 1 1367 0 is_stmt 1
	movq	-24(%rbp), %rax	# tassign, tmp591
	addq	$1, %rax	#, D.14962
	movzbl	(%rax), %eax	# *_195, D.14964
	cmpb	$1, %al	#, D.14964
	jne	.L189	#,
	.loc 1 1367 0 is_stmt 0 discriminator 1
	movq	-32(%rbp), %rax	# kassign, tmp592
	addq	$4, %rax	#, D.14961
	movl	(%rax), %eax	# *_197, D.14959
	subl	$1, %eax	#, D.14959
	addl	%eax, -76(%rbp)	# D.14959, tlen
.L189:
	.loc 1 1368 0 is_stmt 1
	movl	-108(%rbp), %eax	# L, tmp593
	movslq	%eax, %rdx	# tmp593, D.14963
	movq	-24(%rbp), %rax	# tassign, tmp594
	addq	%rdx, %rax	# D.14963, D.14962
	movzbl	(%rax), %eax	# *_202, D.14964
	cmpb	$1, %al	#, D.14964
	jne	.L190	#,
	.loc 1 1368 0 is_stmt 0 discriminator 1
	movq	-120(%rbp), %rax	# hmm, tmp595
	movl	136(%rax), %edx	# hmm_53(D)->M, D.14959
	movl	-108(%rbp), %eax	# L, tmp596
	cltq
	leaq	0(,%rax,4), %rcx	#, D.14960
	movq	-32(%rbp), %rax	# kassign, tmp597
	addq	%rcx, %rax	# D.14960, D.14961
	movl	(%rax), %eax	# *_207, D.14959
	subl	%eax, %edx	# D.14959, D.14959
	movl	%edx, %eax	# D.14959, D.14959
	addl	%eax, -76(%rbp)	# D.14959, tlen
.L190:
	.loc 1 1369 0 is_stmt 1
	leaq	-40(%rbp), %rdx	#, tmp598
	movl	-76(%rbp), %eax	# tlen, tmp599
	movq	%rdx, %rsi	# tmp598,
	movl	%eax, %edi	# tmp599,
	call	P7AllocTrace	#
	.loc 1 1371 0
	movq	-40(%rbp), %rax	# tr, tr.314
	movq	8(%rax), %rax	# tr.314_211->statetype, D.14962
	movb	$4, (%rax)	#, *_212
	.loc 1 1372 0
	movq	-40(%rbp), %rax	# tr, tr.315
	movq	16(%rax), %rax	# tr.315_213->nodeidx, D.14961
	movl	$0, (%rax)	#, *_214
	.loc 1 1373 0
	movq	-40(%rbp), %rax	# tr, tr.316
	movq	24(%rax), %rax	# tr.316_215->pos, D.14961
	movl	$0, (%rax)	#, *_216
	.loc 1 1374 0
	movq	-40(%rbp), %rax	# tr, tr.317
	movq	8(%rax), %rax	# tr.317_217->statetype, D.14962
	addq	$1, %rax	#, D.14962
	movb	$5, (%rax)	#, *_219
	.loc 1 1375 0
	movq	-40(%rbp), %rax	# tr, tr.318
	movq	16(%rax), %rax	# tr.318_220->nodeidx, D.14961
	addq	$4, %rax	#, D.14961
	movl	$0, (%rax)	#, *_222
	.loc 1 1376 0
	movq	-40(%rbp), %rax	# tr, tr.319
	movq	24(%rax), %rax	# tr.319_223->pos, D.14961
	addq	$4, %rax	#, D.14961
	movl	$0, (%rax)	#, *_225
	.loc 1 1377 0
	movl	$2, -64(%rbp)	#, tpos
	.loc 1 1379 0
	movl	$1, -72(%rbp)	#, i
	jmp	.L191	#
.L212:
	.loc 1 1381 0
	movl	-72(%rbp), %eax	# i, tmp600
	movslq	%eax, %rdx	# tmp600, D.14963
	movq	-24(%rbp), %rax	# tassign, tmp601
	addq	%rdx, %rax	# D.14963, D.14962
	movzbl	(%rax), %eax	# *_229, D.14964
	movsbl	%al, %eax	# D.14964, D.14959
	cmpl	$3, %eax	#, D.14959
	je	.L193	#,
	cmpl	$3, %eax	#, D.14959
	jg	.L194	#,
	cmpl	$1, %eax	#, D.14959
	je	.L195	#,
	jmp	.L192	#
.L194:
	cmpl	$5, %eax	#, D.14959
	je	.L196	#,
	cmpl	$8, %eax	#, D.14959
	je	.L197	#,
	jmp	.L192	#
.L195:
	.loc 1 1384 0
	movq	-40(%rbp), %rax	# tr, tr.320
	movq	8(%rax), %rax	# tr.320_232->statetype, D.14962
	movl	-64(%rbp), %edx	# tpos, tmp602
	movslq	%edx, %rdx	# tmp602, D.14963
	subq	$1, %rdx	#, D.14963
	addq	%rdx, %rax	# D.14963, D.14962
	movzbl	(%rax), %eax	# *_236, D.14964
	cmpb	$5, %al	#, D.14964
	jne	.L198	#,
	.loc 1 1385 0
	movq	-40(%rbp), %rax	# tr, tr.321
	movq	8(%rax), %rdx	# tr.321_238->statetype, D.14962
	movl	-64(%rbp), %eax	# tpos, tmp603
	cltq
	addq	%rdx, %rax	# D.14962, D.14962
	movb	$6, (%rax)	#, *_241
	.loc 1 1386 0
	movq	-40(%rbp), %rax	# tr, tr.322
	movq	16(%rax), %rax	# tr.322_242->nodeidx, D.14961
	movl	-64(%rbp), %edx	# tpos, tmp604
	movslq	%edx, %rdx	# tmp604, D.14960
	salq	$2, %rdx	#, D.14960
	addq	%rdx, %rax	# D.14960, D.14961
	movl	$0, (%rax)	#, *_246
	.loc 1 1387 0
	movq	-40(%rbp), %rax	# tr, tr.323
	movq	24(%rax), %rax	# tr.323_247->pos, D.14961
	movl	-64(%rbp), %edx	# tpos, tmp605
	movslq	%edx, %rdx	# tmp605, D.14960
	salq	$2, %rdx	#, D.14960
	addq	%rdx, %rax	# D.14960, D.14961
	movl	$0, (%rax)	#, *_251
	.loc 1 1388 0
	addl	$1, -64(%rbp)	#, tpos
	.loc 1 1390 0
	movq	-120(%rbp), %rax	# hmm, tmp606
	movl	304(%rax), %edx	# hmm_53(D)->p1, D.14965
	movq	-120(%rbp), %rax	# hmm, tmp607
	movq	208(%rax), %rax	# hmm_53(D)->begin, D.14966
	movl	-72(%rbp), %ecx	# i, tmp608
	movslq	%ecx, %rcx	# tmp608, D.14960
	leaq	0(,%rcx,4), %rsi	#, D.14960
	movq	-32(%rbp), %rcx	# kassign, tmp609
	addq	%rsi, %rcx	# D.14960, D.14961
	movl	(%rcx), %ecx	# *_257, D.14959
	movslq	%ecx, %rcx	# D.14959, D.14960
	salq	$2, %rcx	#, D.14960
	addq	%rcx, %rax	# D.14960, D.14966
	movl	(%rax), %eax	# *_261, D.14965
	movl	%edx, -112(%rbp)	# D.14965, %sfp
	movss	-112(%rbp), %xmm1	# %sfp,
	movl	%eax, -112(%rbp)	# D.14965, %sfp
	movss	-112(%rbp), %xmm0	# %sfp,
	call	Prob2Score	#
	cvtsi2sd	%eax, %xmm0	# D.14959, D.14967
	movsd	.LC8(%rip), %xmm1	#, tmp610
	addsd	%xmm0, %xmm1	# D.14967, D.14967
	movq	-120(%rbp), %rax	# hmm, tmp611
	movq	368(%rax), %rax	# hmm_53(D)->bsc, D.14961
	movl	-72(%rbp), %edx	# i, tmp612
	movslq	%edx, %rdx	# tmp612, D.14960
	leaq	0(,%rdx,4), %rcx	#, D.14960
	movq	-32(%rbp), %rdx	# kassign, tmp613
	addq	%rcx, %rdx	# D.14960, D.14961
	movl	(%rdx), %edx	# *_269, D.14959
	movslq	%edx, %rdx	# D.14959, D.14960
	salq	$2, %rdx	#, D.14960
	addq	%rdx, %rax	# D.14960, D.14961
	movl	(%rax), %eax	# *_273, D.14959
	cvtsi2sd	%eax, %xmm0	# D.14959, D.14967
	ucomisd	%xmm1, %xmm0	# D.14967, D.14967
	jb	.L198	#,
	.loc 1 1391 0
	movl	$1, -68(%rbp)	#, k
	jmp	.L200	#
.L201:
	.loc 1 1392 0 discriminator 2
	movq	-40(%rbp), %rax	# tr, tr.324
	movq	8(%rax), %rdx	# tr.324_281->statetype, D.14962
	movl	-64(%rbp), %eax	# tpos, tmp614
	cltq
	addq	%rdx, %rax	# D.14962, D.14962
	movb	$2, (%rax)	#, *_284
	.loc 1 1393 0 discriminator 2
	movq	-40(%rbp), %rax	# tr, tr.325
	movq	16(%rax), %rax	# tr.325_285->nodeidx, D.14961
	movl	-64(%rbp), %edx	# tpos, tmp615
	movslq	%edx, %rdx	# tmp615, D.14960
	salq	$2, %rdx	#, D.14960
	addq	%rax, %rdx	# D.14961, D.14961
	movl	-68(%rbp), %eax	# k, tmp616
	movl	%eax, (%rdx)	# tmp616, *_289
	.loc 1 1394 0 discriminator 2
	movq	-40(%rbp), %rax	# tr, tr.326
	movq	24(%rax), %rax	# tr.326_290->pos, D.14961
	movl	-64(%rbp), %edx	# tpos, tmp617
	movslq	%edx, %rdx	# tmp617, D.14960
	salq	$2, %rdx	#, D.14960
	addq	%rdx, %rax	# D.14960, D.14961
	movl	$0, (%rax)	#, *_294
	.loc 1 1395 0 discriminator 2
	addl	$1, -64(%rbp)	#, tpos
	.loc 1 1391 0 discriminator 2
	addl	$1, -68(%rbp)	#, k
.L200:
	.loc 1 1391 0 is_stmt 0 discriminator 1
	movl	-72(%rbp), %eax	# i, tmp618
	cltq
	leaq	0(,%rax,4), %rdx	#, D.14960
	movq	-32(%rbp), %rax	# kassign, tmp619
	addq	%rdx, %rax	# D.14960, D.14961
	movl	(%rax), %eax	# *_279, D.14959
	cmpl	-68(%rbp), %eax	# k, D.14959
	jg	.L201	#,
.L198:
	.loc 1 1399 0 is_stmt 1
	movq	-40(%rbp), %rax	# tr, tr.327
	movq	8(%rax), %rdx	# tr.327_297->statetype, D.14962
	movl	-64(%rbp), %eax	# tpos, tmp620
	cltq
	addq	%rdx, %rax	# D.14962, D.14962
	movb	$1, (%rax)	#, *_300
	.loc 1 1400 0
	movq	-40(%rbp), %rax	# tr, tr.328
	movq	16(%rax), %rax	# tr.328_301->nodeidx, D.14961
	movl	-64(%rbp), %edx	# tpos, tmp621
	movslq	%edx, %rdx	# tmp621, D.14960
	salq	$2, %rdx	#, D.14960
	addq	%rax, %rdx	# D.14961, D.14961
	movl	-72(%rbp), %eax	# i, tmp622
	cltq
	leaq	0(,%rax,4), %rcx	#, D.14960
	movq	-32(%rbp), %rax	# kassign, tmp623
	addq	%rcx, %rax	# D.14960, D.14961
	movl	(%rax), %eax	# *_308, D.14959
	movl	%eax, (%rdx)	# D.14959, *_305
	.loc 1 1401 0
	movq	-40(%rbp), %rax	# tr, tr.329
	movq	24(%rax), %rax	# tr.329_310->pos, D.14961
	movl	-64(%rbp), %edx	# tpos, tmp624
	movslq	%edx, %rdx	# tmp624, D.14960
	salq	$2, %rdx	#, D.14960
	addq	%rax, %rdx	# D.14961, D.14961
	movl	-72(%rbp), %eax	# i, tmp625
	movl	%eax, (%rdx)	# tmp625, *_314
	.loc 1 1402 0
	addl	$1, -64(%rbp)	#, tpos
	.loc 1 1404 0
	movl	-72(%rbp), %eax	# i, tmp626
	cmpl	-108(%rbp), %eax	# L, tmp626
	jge	.L202	#,
	.loc 1 1404 0 is_stmt 0 discriminator 1
	movl	-72(%rbp), %eax	# i, tmp627
	cltq
	leaq	1(%rax), %rdx	#, D.14963
	movq	-24(%rbp), %rax	# tassign, tmp628
	addq	%rdx, %rax	# D.14963, D.14962
	movzbl	(%rax), %eax	# *_318, D.14964
	cmpb	$1, %al	#, D.14964
	jne	.L202	#,
	movl	-72(%rbp), %eax	# i, tmp629
	cltq
	addq	$1, %rax	#, D.14963
	leaq	0(,%rax,4), %rdx	#, D.14963
	movq	-32(%rbp), %rax	# kassign, tmp630
	addq	%rdx, %rax	# D.14963, D.14961
	movl	(%rax), %edx	# *_323, D.14959
	movl	-72(%rbp), %eax	# i, tmp631
	cltq
	leaq	0(,%rax,4), %rcx	#, D.14960
	movq	-32(%rbp), %rax	# kassign, tmp632
	addq	%rcx, %rax	# D.14960, D.14961
	movl	(%rax), %eax	# *_327, D.14959
	subl	%eax, %edx	# D.14959, D.14959
	movl	%edx, %eax	# D.14959, D.14959
	cmpl	$1, %eax	#, D.14959
	jle	.L202	#,
	.loc 1 1405 0 is_stmt 1
	movl	-72(%rbp), %eax	# i, tmp633
	cltq
	leaq	0(,%rax,4), %rdx	#, D.14960
	movq	-32(%rbp), %rax	# kassign, tmp634
	addq	%rdx, %rax	# D.14960, D.14961
	movl	(%rax), %eax	# *_332, D.14959
	addl	$1, %eax	#, tmp635
	movl	%eax, -68(%rbp)	# tmp635, k
	jmp	.L203	#
.L204:
	.loc 1 1407 0 discriminator 2
	movq	-40(%rbp), %rax	# tr, tr.330
	movq	8(%rax), %rdx	# tr.330_340->statetype, D.14962
	movl	-64(%rbp), %eax	# tpos, tmp636
	cltq
	addq	%rdx, %rax	# D.14962, D.14962
	movb	$2, (%rax)	#, *_343
	.loc 1 1408 0 discriminator 2
	movq	-40(%rbp), %rax	# tr, tr.331
	movq	16(%rax), %rax	# tr.331_344->nodeidx, D.14961
	movl	-64(%rbp), %edx	# tpos, tmp637
	movslq	%edx, %rdx	# tmp637, D.14960
	salq	$2, %rdx	#, D.14960
	addq	%rax, %rdx	# D.14961, D.14961
	movl	-68(%rbp), %eax	# k, tmp638
	movl	%eax, (%rdx)	# tmp638, *_348
	.loc 1 1409 0 discriminator 2
	movq	-40(%rbp), %rax	# tr, tr.332
	movq	24(%rax), %rax	# tr.332_349->pos, D.14961
	movl	-64(%rbp), %edx	# tpos, tmp639
	movslq	%edx, %rdx	# tmp639, D.14960
	salq	$2, %rdx	#, D.14960
	addq	%rdx, %rax	# D.14960, D.14961
	movl	$0, (%rax)	#, *_353
	.loc 1 1410 0 discriminator 2
	addl	$1, -64(%rbp)	#, tpos
	.loc 1 1405 0 discriminator 2
	addl	$1, -68(%rbp)	#, k
.L203:
	.loc 1 1405 0 is_stmt 0 discriminator 1
	movl	-72(%rbp), %eax	# i, tmp640
	cltq
	addq	$1, %rax	#, D.14963
	leaq	0(,%rax,4), %rdx	#, D.14963
	movq	-32(%rbp), %rax	# kassign, tmp641
	addq	%rdx, %rax	# D.14963, D.14961
	movl	(%rax), %eax	# *_338, D.14959
	cmpl	-68(%rbp), %eax	# k, D.14959
	jg	.L204	#,
.L202:
	.loc 1 1413 0 is_stmt 1
	movl	-72(%rbp), %eax	# i, tmp642
	cmpl	-108(%rbp), %eax	# L, tmp642
	je	.L205	#,
	.loc 1 1413 0 is_stmt 0 discriminator 1
	movl	-72(%rbp), %eax	# i, tmp643
	cltq
	leaq	1(%rax), %rdx	#, D.14963
	movq	-24(%rbp), %rax	# tassign, tmp644
	addq	%rdx, %rax	# D.14963, D.14962
	movzbl	(%rax), %eax	# *_358, D.14964
	cmpb	$8, %al	#, D.14964
	jne	.L206	#,
.L205:
	.loc 1 1415 0 is_stmt 1
	movq	-120(%rbp), %rax	# hmm, tmp645
	movq	216(%rax), %rax	# hmm_53(D)->end, D.14966
	movl	-72(%rbp), %edx	# i, tmp646
	movslq	%edx, %rdx	# tmp646, D.14960
	salq	$2, %rdx	#, D.14960
	leaq	-4(%rdx), %rcx	#, D.14963
	movq	-32(%rbp), %rdx	# kassign, tmp647
	addq	%rcx, %rdx	# D.14963, D.14961
	movl	(%rdx), %edx	# *_364, D.14959
	movslq	%edx, %rdx	# D.14959, D.14960
	salq	$2, %rdx	#, D.14960
	addq	%rdx, %rax	# D.14960, D.14966
	movl	(%rax), %eax	# *_368, D.14965
	movss	.LC10(%rip), %xmm1	#,
	movl	%eax, -112(%rbp)	# D.14965, %sfp
	movss	-112(%rbp), %xmm0	# %sfp,
	call	Prob2Score	#
	cvtsi2sd	%eax, %xmm0	# D.14959, D.14967
	movsd	.LC8(%rip), %xmm1	#, tmp648
	addsd	%xmm0, %xmm1	# D.14967, D.14967
	movq	-120(%rbp), %rax	# hmm, tmp649
	movq	376(%rax), %rax	# hmm_53(D)->esc, D.14961
	movl	-72(%rbp), %edx	# i, tmp650
	movslq	%edx, %rdx	# tmp650, D.14960
	salq	$2, %rdx	#, D.14960
	leaq	-4(%rdx), %rcx	#, D.14963
	movq	-32(%rbp), %rdx	# kassign, tmp651
	addq	%rcx, %rdx	# D.14963, D.14961
	movl	(%rdx), %edx	# *_377, D.14959
	movslq	%edx, %rdx	# D.14959, D.14960
	salq	$2, %rdx	#, D.14960
	addq	%rdx, %rax	# D.14960, D.14961
	movl	(%rax), %eax	# *_381, D.14959
	cvtsi2sd	%eax, %xmm0	# D.14959, D.14967
	ucomisd	%xmm1, %xmm0	# D.14967, D.14967
	jb	.L207	#,
	.loc 1 1416 0
	movl	-72(%rbp), %eax	# i, tmp652
	cltq
	leaq	0(,%rax,4), %rdx	#, D.14960
	movq	-32(%rbp), %rax	# kassign, tmp653
	addq	%rdx, %rax	# D.14960, D.14961
	movl	(%rax), %eax	# *_386, D.14959
	addl	$1, %eax	#, tmp654
	movl	%eax, -68(%rbp)	# tmp654, k
	jmp	.L209	#
.L210:
	.loc 1 1418 0 discriminator 2
	movq	-40(%rbp), %rax	# tr, tr.333
	movq	8(%rax), %rdx	# tr.333_390->statetype, D.14962
	movl	-64(%rbp), %eax	# tpos, tmp655
	cltq
	addq	%rdx, %rax	# D.14962, D.14962
	movb	$2, (%rax)	#, *_393
	.loc 1 1419 0 discriminator 2
	movq	-40(%rbp), %rax	# tr, tr.334
	movq	16(%rax), %rax	# tr.334_394->nodeidx, D.14961
	movl	-64(%rbp), %edx	# tpos, tmp656
	movslq	%edx, %rdx	# tmp656, D.14960
	salq	$2, %rdx	#, D.14960
	addq	%rax, %rdx	# D.14961, D.14961
	movl	-68(%rbp), %eax	# k, tmp657
	movl	%eax, (%rdx)	# tmp657, *_398
	.loc 1 1420 0 discriminator 2
	movq	-40(%rbp), %rax	# tr, tr.335
	movq	24(%rax), %rax	# tr.335_399->pos, D.14961
	movl	-64(%rbp), %edx	# tpos, tmp658
	movslq	%edx, %rdx	# tmp658, D.14960
	salq	$2, %rdx	#, D.14960
	addq	%rdx, %rax	# D.14960, D.14961
	movl	$0, (%rax)	#, *_403
	.loc 1 1421 0 discriminator 2
	addl	$1, -64(%rbp)	#, tpos
	.loc 1 1416 0 discriminator 2
	addl	$1, -68(%rbp)	#, k
.L209:
	.loc 1 1416 0 is_stmt 0 discriminator 1
	movq	-120(%rbp), %rax	# hmm, tmp659
	movl	136(%rax), %eax	# hmm_53(D)->M, D.14959
	cmpl	-68(%rbp), %eax	# k, D.14959
	jge	.L210	#,
.L207:
	.loc 1 1424 0 is_stmt 1
	movq	-40(%rbp), %rax	# tr, tr.336
	movq	8(%rax), %rdx	# tr.336_406->statetype, D.14962
	movl	-64(%rbp), %eax	# tpos, tmp660
	cltq
	addq	%rdx, %rax	# D.14962, D.14962
	movb	$7, (%rax)	#, *_409
	.loc 1 1425 0
	movq	-40(%rbp), %rax	# tr, tr.337
	movq	16(%rax), %rax	# tr.337_410->nodeidx, D.14961
	movl	-64(%rbp), %edx	# tpos, tmp661
	movslq	%edx, %rdx	# tmp661, D.14960
	salq	$2, %rdx	#, D.14960
	addq	%rdx, %rax	# D.14960, D.14961
	movl	$0, (%rax)	#, *_414
	.loc 1 1426 0
	movq	-40(%rbp), %rax	# tr, tr.338
	movq	24(%rax), %rax	# tr.338_415->pos, D.14961
	movl	-64(%rbp), %edx	# tpos, tmp662
	movslq	%edx, %rdx	# tmp662, D.14960
	salq	$2, %rdx	#, D.14960
	addq	%rdx, %rax	# D.14960, D.14961
	movl	$0, (%rax)	#, *_419
	.loc 1 1427 0
	addl	$1, -64(%rbp)	#, tpos
	.loc 1 1429 0
	movq	-40(%rbp), %rax	# tr, tr.339
	movq	8(%rax), %rdx	# tr.339_421->statetype, D.14962
	movl	-64(%rbp), %eax	# tpos, tmp663
	cltq
	addq	%rdx, %rax	# D.14962, D.14962
	movb	$8, (%rax)	#, *_424
	.loc 1 1430 0
	movq	-40(%rbp), %rax	# tr, tr.340
	movq	16(%rax), %rax	# tr.340_425->nodeidx, D.14961
	movl	-64(%rbp), %edx	# tpos, tmp664
	movslq	%edx, %rdx	# tmp664, D.14960
	salq	$2, %rdx	#, D.14960
	addq	%rdx, %rax	# D.14960, D.14961
	movl	$0, (%rax)	#, *_429
	.loc 1 1431 0
	movq	-40(%rbp), %rax	# tr, tr.341
	movq	24(%rax), %rax	# tr.341_430->pos, D.14961
	movl	-64(%rbp), %edx	# tpos, tmp665
	movslq	%edx, %rdx	# tmp665, D.14960
	salq	$2, %rdx	#, D.14960
	addq	%rdx, %rax	# D.14960, D.14961
	movl	$0, (%rax)	#, *_434
	.loc 1 1432 0
	addl	$1, -64(%rbp)	#, tpos
	.loc 1 1434 0
	jmp	.L211	#
.L206:
	jmp	.L211	#
.L193:
	.loc 1 1437 0
	movq	-40(%rbp), %rax	# tr, tr.342
	movq	8(%rax), %rdx	# tr.342_436->statetype, D.14962
	movl	-64(%rbp), %eax	# tpos, tmp666
	cltq
	addq	%rdx, %rax	# D.14962, D.14962
	movb	$3, (%rax)	#, *_439
	.loc 1 1438 0
	movq	-40(%rbp), %rax	# tr, tr.343
	movq	16(%rax), %rax	# tr.343_440->nodeidx, D.14961
	movl	-64(%rbp), %edx	# tpos, tmp667
	movslq	%edx, %rdx	# tmp667, D.14960
	salq	$2, %rdx	#, D.14960
	addq	%rax, %rdx	# D.14961, D.14961
	movl	-72(%rbp), %eax	# i, tmp668
	cltq
	leaq	0(,%rax,4), %rcx	#, D.14960
	movq	-32(%rbp), %rax	# kassign, tmp669
	addq	%rcx, %rax	# D.14960, D.14961
	movl	(%rax), %eax	# *_447, D.14959
	movl	%eax, (%rdx)	# D.14959, *_444
	.loc 1 1439 0
	movq	-40(%rbp), %rax	# tr, tr.344
	movq	24(%rax), %rax	# tr.344_449->pos, D.14961
	movl	-64(%rbp), %edx	# tpos, tmp670
	movslq	%edx, %rdx	# tmp670, D.14960
	salq	$2, %rdx	#, D.14960
	addq	%rax, %rdx	# D.14961, D.14961
	movl	-72(%rbp), %eax	# i, tmp671
	movl	%eax, (%rdx)	# tmp671, *_453
	.loc 1 1440 0
	addl	$1, -64(%rbp)	#, tpos
	.loc 1 1441 0
	jmp	.L211	#
.L196:
	.loc 1 1444 0
	movq	-40(%rbp), %rax	# tr, tr.345
	movq	8(%rax), %rdx	# tr.345_455->statetype, D.14962
	movl	-64(%rbp), %eax	# tpos, tmp672
	cltq
	addq	%rdx, %rax	# D.14962, D.14962
	movb	$5, (%rax)	#, *_458
	.loc 1 1445 0
	movq	-40(%rbp), %rax	# tr, tr.346
	movq	16(%rax), %rax	# tr.346_459->nodeidx, D.14961
	movl	-64(%rbp), %edx	# tpos, tmp673
	movslq	%edx, %rdx	# tmp673, D.14960
	salq	$2, %rdx	#, D.14960
	addq	%rdx, %rax	# D.14960, D.14961
	movl	$0, (%rax)	#, *_463
	.loc 1 1446 0
	movq	-40(%rbp), %rax	# tr, tr.347
	movq	24(%rax), %rax	# tr.347_464->pos, D.14961
	movl	-64(%rbp), %edx	# tpos, tmp674
	movslq	%edx, %rdx	# tmp674, D.14960
	salq	$2, %rdx	#, D.14960
	addq	%rax, %rdx	# D.14961, D.14961
	movl	-72(%rbp), %eax	# i, tmp675
	movl	%eax, (%rdx)	# tmp675, *_468
	.loc 1 1447 0
	addl	$1, -64(%rbp)	#, tpos
	.loc 1 1448 0
	jmp	.L211	#
.L197:
	.loc 1 1451 0
	movq	-40(%rbp), %rax	# tr, tr.348
	movq	8(%rax), %rdx	# tr.348_470->statetype, D.14962
	movl	-64(%rbp), %eax	# tpos, tmp676
	cltq
	addq	%rdx, %rax	# D.14962, D.14962
	movb	$8, (%rax)	#, *_473
	.loc 1 1452 0
	movq	-40(%rbp), %rax	# tr, tr.349
	movq	16(%rax), %rax	# tr.349_474->nodeidx, D.14961
	movl	-64(%rbp), %edx	# tpos, tmp677
	movslq	%edx, %rdx	# tmp677, D.14960
	salq	$2, %rdx	#, D.14960
	addq	%rdx, %rax	# D.14960, D.14961
	movl	$0, (%rax)	#, *_478
	.loc 1 1453 0
	movq	-40(%rbp), %rax	# tr, tr.350
	movq	24(%rax), %rax	# tr.350_479->pos, D.14961
	movl	-64(%rbp), %edx	# tpos, tmp678
	movslq	%edx, %rdx	# tmp678, D.14960
	salq	$2, %rdx	#, D.14960
	addq	%rax, %rdx	# D.14961, D.14961
	movl	-72(%rbp), %eax	# i, tmp679
	movl	%eax, (%rdx)	# tmp679, *_483
	.loc 1 1454 0
	addl	$1, -64(%rbp)	#, tpos
	.loc 1 1455 0
	jmp	.L211	#
.L192:
	.loc 1 1457 0
	movl	-72(%rbp), %eax	# i, tmp680
	movslq	%eax, %rdx	# tmp680, D.14963
	movq	-24(%rbp), %rax	# tassign, tmp681
	addq	%rdx, %rax	# D.14963, D.14962
	movzbl	(%rax), %eax	# *_486, D.14964
	movsbl	%al, %eax	# D.14964, D.14959
	movl	%eax, %edi	# D.14959,
	call	Statetype	#
	movq	%rax, %rsi	# D.14962,
	movl	$.LC12, %edi	#,
	movl	$0, %eax	#,
	call	Die	#
.L211:
	.loc 1 1379 0
	addl	$1, -72(%rbp)	#, i
.L191:
	.loc 1 1379 0 is_stmt 0 discriminator 1
	movl	-72(%rbp), %eax	# i, tmp682
	cmpl	-108(%rbp), %eax	# L, tmp682
	jle	.L212	#,
	.loc 1 1461 0 is_stmt 1
	movq	-40(%rbp), %rax	# tr, tr.351
	movq	8(%rax), %rdx	# tr.351_491->statetype, D.14962
	movl	-64(%rbp), %eax	# tpos, tmp683
	cltq
	addq	%rdx, %rax	# D.14962, D.14962
	movb	$9, (%rax)	#, *_494
	.loc 1 1462 0
	movq	-40(%rbp), %rax	# tr, tr.352
	movq	16(%rax), %rax	# tr.352_495->nodeidx, D.14961
	movl	-64(%rbp), %edx	# tpos, tmp684
	movslq	%edx, %rdx	# tmp684, D.14960
	salq	$2, %rdx	#, D.14960
	addq	%rdx, %rax	# D.14960, D.14961
	movl	$0, (%rax)	#, *_499
	.loc 1 1463 0
	movq	-40(%rbp), %rax	# tr, tr.353
	movq	24(%rax), %rax	# tr.353_500->pos, D.14961
	movl	-64(%rbp), %edx	# tpos, tmp685
	movslq	%edx, %rdx	# tmp685, D.14960
	salq	$2, %rdx	#, D.14960
	addq	%rdx, %rax	# D.14960, D.14961
	movl	$0, (%rax)	#, *_504
	.loc 1 1464 0
	movq	-40(%rbp), %rax	# tr, tr.354
	movl	-64(%rbp), %edx	# tpos, tmp686
	addl	$1, %edx	#, D.14959
	movl	%edx, (%rax)	# D.14959, tr.354_505->tlen
	.loc 1 1466 0
	movq	-40(%rbp), %rdx	# tr, tr.355
	movq	-128(%rbp), %rax	# ret_tr, tmp687
	movq	%rdx, (%rax)	# tr.355, *ret_tr_508(D)
	.loc 1 1468 0
	movq	-32(%rbp), %rax	# kassign, tmp688
	movq	%rax, %rdi	# tmp688,
	call	free	#
	.loc 1 1469 0
	movq	-24(%rbp), %rax	# tassign, tmp689
	movq	%rax, %rdi	# tmp689,
	call	free	#
	.loc 1 1470 0
	movq	-8(%rbp), %rax	# startlist, tmp690
	movq	%rax, %rdi	# tmp690,
	call	free	#
	.loc 1 1471 0
	movq	-16(%rbp), %rax	# endlist, tmp691
	movq	%rax, %rdi	# tmp691,
	call	free	#
	.loc 1 1472 0
	movl	-80(%rbp), %eax	# ret_sc, D.14965
	.loc 1 1473 0
	movl	%eax, -112(%rbp)	# <retval>, %sfp
	movss	-112(%rbp), %xmm0	# %sfp,
	leave
	.cfi_def_cfa 7, 8
	ret
	.cfi_endproc
.LFE15:
	.size	P7WeeViterbi, .-P7WeeViterbi
	.globl	Plan7ESTViterbi
	.type	Plan7ESTViterbi, @function
Plan7ESTViterbi:
.LFB16:
	.loc 1 1484 0
	.cfi_startproc
	pushq	%rbp	#
	.cfi_def_cfa_offset 16
	.cfi_offset 6, -16
	movq	%rsp, %rbp	#,
	.cfi_def_cfa_register 6
	subq	$96, %rsp	#,
	movq	%rdi, -72(%rbp)	# dsq, dsq
	movl	%esi, -76(%rbp)	# L, L
	movq	%rdx, -88(%rbp)	# hmm, hmm
	movq	%rcx, -96(%rbp)	# ret_mx, ret_mx
	.loc 1 1496 0
	movq	-88(%rbp), %rax	# hmm, tmp1104
	movl	136(%rax), %eax	# hmm_8(D)->M, D.14970
	movl	-76(%rbp), %edx	# L, tmp1105
	leal	1(%rdx), %edi	#, D.14970
	leaq	-16(%rbp), %r8	#, tmp1106
	leaq	-24(%rbp), %rsi	#, tmp1107
	leaq	-32(%rbp), %rcx	#, tmp1108
	leaq	-40(%rbp), %rdx	#, tmp1109
	movq	%r8, %r9	# tmp1106,
	movq	%rsi, %r8	# tmp1107,
	movl	%eax, %esi	# D.14970,
	call	AllocPlan7Matrix	#
	movq	%rax, -8(%rbp)	# tmp1110, mx
	.loc 1 1503 0
	movq	-40(%rbp), %rax	# xmx, xmx.356
	movq	(%rax), %rax	# *xmx.356_13, D.14971
	addq	$16, %rax	#, D.14971
	movl	$0, (%rax)	#, *_15
	.loc 1 1504 0
	movq	-40(%rbp), %rax	# xmx, xmx.357
	movq	(%rax), %rax	# *xmx.357_16, D.14971
	movq	-88(%rbp), %rdx	# hmm, tmp1111
	movl	336(%rdx), %edx	# hmm_8(D)->xsc, D.14970
	movl	%edx, (%rax)	# D.14970, *_17
	.loc 1 1505 0
	movq	-40(%rbp), %rax	# xmx, xmx.358
	movq	(%rax), %rax	# *xmx.358_19, D.14971
	leaq	4(%rax), %rcx	#, D.14971
	movq	-40(%rbp), %rax	# xmx, xmx.359
	movq	(%rax), %rax	# *xmx.359_22, D.14971
	addq	$8, %rax	#, D.14971
	movq	-40(%rbp), %rdx	# xmx, xmx.360
	movq	(%rdx), %rdx	# *xmx.360_25, D.14971
	addq	$12, %rdx	#, D.14971
	movl	$-987654321, (%rdx)	#, *_27
	movl	(%rdx), %edx	# *_27, D.14970
	movl	%edx, (%rax)	# D.14970, *_24
	movl	(%rax), %eax	# *_24, D.14970
	movl	%eax, (%rcx)	# D.14970, *_21
	.loc 1 1506 0
	movl	$0, -52(%rbp)	#, k
	jmp	.L217	#
.L218:
	.loc 1 1507 0 discriminator 2
	movq	-32(%rbp), %rax	# mmx, mmx.361
	movq	(%rax), %rax	# *mmx.361_32, D.14971
	movl	-52(%rbp), %edx	# k, tmp1112
	movslq	%edx, %rdx	# tmp1112, D.14972
	salq	$2, %rdx	#, D.14972
	leaq	(%rax,%rdx), %rcx	#, D.14971
	movq	-24(%rbp), %rax	# imx, imx.362
	movq	(%rax), %rax	# *imx.362_37, D.14971
	movl	-52(%rbp), %edx	# k, tmp1113
	movslq	%edx, %rdx	# tmp1113, D.14972
	salq	$2, %rdx	#, D.14972
	addq	%rdx, %rax	# D.14972, D.14971
	movq	-16(%rbp), %rdx	# dmx, dmx.363
	movq	(%rdx), %rdx	# *dmx.363_42, D.14971
	movl	-52(%rbp), %esi	# k, tmp1114
	movslq	%esi, %rsi	# tmp1114, D.14972
	salq	$2, %rsi	#, D.14972
	addq	%rsi, %rdx	# D.14972, D.14971
	movl	$-987654321, (%rdx)	#, *_46
	movl	(%rdx), %edx	# *_46, D.14970
	movl	%edx, (%rax)	# D.14970, *_41
	movl	(%rax), %eax	# *_41, D.14970
	movl	%eax, (%rcx)	# D.14970, *_36
	.loc 1 1506 0 discriminator 2
	addl	$1, -52(%rbp)	#, k
.L217:
	.loc 1 1506 0 is_stmt 0 discriminator 1
	movq	-88(%rbp), %rax	# hmm, tmp1115
	movl	136(%rax), %eax	# hmm_8(D)->M, D.14970
	cmpl	-52(%rbp), %eax	# k, D.14970
	jge	.L218	#,
	.loc 1 1512 0 is_stmt 1
	movq	-40(%rbp), %rax	# xmx, xmx.364
	addq	$8, %rax	#, D.14973
	movq	(%rax), %rax	# *_51, D.14971
	leaq	16(%rax), %rdx	#, D.14971
	movq	-40(%rbp), %rax	# xmx, xmx.365
	movq	(%rax), %rax	# *xmx.365_54, D.14971
	addq	$16, %rax	#, D.14971
	movl	(%rax), %ecx	# *_56, D.14970
	movq	-88(%rbp), %rax	# hmm, tmp1116
	movl	340(%rax), %eax	# hmm_8(D)->xsc, D.14970
	addl	%ecx, %eax	# D.14970, D.14970
	movl	%eax, (%rdx)	# D.14970, *_53
	.loc 1 1513 0
	movq	-40(%rbp), %rax	# xmx, xmx.366
	addq	$8, %rax	#, D.14973
	movq	(%rax), %rax	# *_61, D.14971
	movq	-40(%rbp), %rdx	# xmx, xmx.367
	addq	$8, %rdx	#, D.14973
	movq	(%rdx), %rdx	# *_64, D.14971
	addq	$16, %rdx	#, D.14971
	movl	(%rdx), %ecx	# *_66, D.14970
	movq	-88(%rbp), %rdx	# hmm, tmp1117
	movl	336(%rdx), %edx	# hmm_8(D)->xsc, D.14970
	addl	%ecx, %edx	# D.14970, D.14970
	movl	%edx, (%rax)	# D.14970, *_62
	.loc 1 1514 0
	movq	-40(%rbp), %rax	# xmx, xmx.368
	movq	(%rax), %rax	# *xmx.368_70, D.14971
	leaq	4(%rax), %rcx	#, D.14971
	movq	-40(%rbp), %rax	# xmx, xmx.369
	movq	(%rax), %rax	# *xmx.369_73, D.14971
	addq	$8, %rax	#, D.14971
	movq	-40(%rbp), %rdx	# xmx, xmx.370
	movq	(%rdx), %rdx	# *xmx.370_76, D.14971
	addq	$12, %rdx	#, D.14971
	movl	$-987654321, (%rdx)	#, *_78
	movl	(%rdx), %edx	# *_78, D.14970
	movl	%edx, (%rax)	# D.14970, *_75
	movl	(%rax), %eax	# *_75, D.14970
	movl	%eax, (%rcx)	# D.14970, *_72
	.loc 1 1515 0
	movl	$0, -52(%rbp)	#, k
	jmp	.L219	#
.L220:
	.loc 1 1516 0 discriminator 2
	movq	-32(%rbp), %rax	# mmx, mmx.371
	movq	(%rax), %rax	# *mmx.371_83, D.14971
	movl	-52(%rbp), %edx	# k, tmp1118
	movslq	%edx, %rdx	# tmp1118, D.14972
	salq	$2, %rdx	#, D.14972
	leaq	(%rax,%rdx), %rcx	#, D.14971
	movq	-24(%rbp), %rax	# imx, imx.372
	movq	(%rax), %rax	# *imx.372_88, D.14971
	movl	-52(%rbp), %edx	# k, tmp1119
	movslq	%edx, %rdx	# tmp1119, D.14972
	salq	$2, %rdx	#, D.14972
	addq	%rdx, %rax	# D.14972, D.14971
	movq	-16(%rbp), %rdx	# dmx, dmx.373
	movq	(%rdx), %rdx	# *dmx.373_93, D.14971
	movl	-52(%rbp), %esi	# k, tmp1120
	movslq	%esi, %rsi	# tmp1120, D.14972
	salq	$2, %rsi	#, D.14972
	addq	%rsi, %rdx	# D.14972, D.14971
	movl	$-987654321, (%rdx)	#, *_97
	movl	(%rdx), %edx	# *_97, D.14970
	movl	%edx, (%rax)	# D.14970, *_92
	movl	(%rax), %eax	# *_92, D.14970
	movl	%eax, (%rcx)	# D.14970, *_87
	.loc 1 1515 0 discriminator 2
	addl	$1, -52(%rbp)	#, k
.L219:
	.loc 1 1515 0 is_stmt 0 discriminator 1
	movq	-88(%rbp), %rax	# hmm, tmp1121
	movl	136(%rax), %eax	# hmm_8(D)->M, D.14970
	cmpl	-52(%rbp), %eax	# k, D.14970
	jge	.L220	#,
	.loc 1 1523 0 is_stmt 1
	movl	$2, -56(%rbp)	#, i
	jmp	.L221	#
.L251:
	.loc 1 1524 0
	movq	-32(%rbp), %rax	# mmx, mmx.374
	movl	-56(%rbp), %edx	# i, tmp1122
	movslq	%edx, %rdx	# tmp1122, D.14972
	salq	$3, %rdx	#, D.14972
	addq	%rdx, %rax	# D.14972, D.14973
	movq	(%rax), %rcx	# *_106, D.14971
	movq	-24(%rbp), %rax	# imx, imx.375
	movl	-56(%rbp), %edx	# i, tmp1123
	movslq	%edx, %rdx	# tmp1123, D.14972
	salq	$3, %rdx	#, D.14972
	addq	%rdx, %rax	# D.14972, D.14973
	movq	(%rax), %rax	# *_111, D.14971
	movq	-16(%rbp), %rdx	# dmx, dmx.376
	movl	-56(%rbp), %esi	# i, tmp1124
	movslq	%esi, %rsi	# tmp1124, D.14972
	salq	$3, %rsi	#, D.14972
	addq	%rsi, %rdx	# D.14972, D.14973
	movq	(%rdx), %rdx	# *_116, D.14971
	movl	$-987654321, (%rdx)	#, *_117
	movl	(%rdx), %edx	# *_117, D.14970
	movl	%edx, (%rax)	# D.14970, *_112
	movl	(%rax), %eax	# *_112, D.14970
	movl	%eax, (%rcx)	# D.14970, *_107
	.loc 1 1527 0
	cmpl	$2, -56(%rbp)	#, i
	jle	.L222	#,
	.loc 1 1528 0
	movl	-56(%rbp), %eax	# i, tmp1125
	cltq
	leaq	-2(%rax), %rdx	#, D.14974
	movq	-72(%rbp), %rax	# dsq, tmp1126
	addq	%rdx, %rax	# D.14974, D.14975
	movzbl	(%rax), %eax	# *_123, D.14976
	cmpb	$3, %al	#, D.14976
	jg	.L223	#,
	.loc 1 1528 0 is_stmt 0 discriminator 1
	movl	-56(%rbp), %eax	# i, tmp1127
	cltq
	leaq	-1(%rax), %rdx	#, D.14974
	movq	-72(%rbp), %rax	# dsq, tmp1128
	addq	%rdx, %rax	# D.14974, D.14975
	movzbl	(%rax), %eax	# *_127, D.14976
	cmpb	$3, %al	#, D.14976
	jg	.L223	#,
	movl	-56(%rbp), %eax	# i, tmp1129
	movslq	%eax, %rdx	# tmp1129, D.14974
	movq	-72(%rbp), %rax	# dsq, tmp1130
	addq	%rdx, %rax	# D.14974, D.14975
	movzbl	(%rax), %eax	# *_130, D.14976
	cmpb	$3, %al	#, D.14976
	jg	.L223	#,
	.loc 1 1529 0 is_stmt 1
	movl	-56(%rbp), %eax	# i, tmp1131
	cltq
	leaq	-2(%rax), %rdx	#, D.14974
	movq	-72(%rbp), %rax	# dsq, tmp1132
	addq	%rdx, %rax	# D.14974, D.14975
	movzbl	(%rax), %eax	# *_134, D.14976
	movsbl	%al, %eax	# D.14976, D.14970
	leal	0(,%rax,4), %edx	#, D.14970
	movl	-56(%rbp), %eax	# i, tmp1133
	cltq
	leaq	-1(%rax), %rcx	#, D.14974
	movq	-72(%rbp), %rax	# dsq, tmp1134
	addq	%rcx, %rax	# D.14974, D.14975
	movzbl	(%rax), %eax	# *_140, D.14976
	movsbl	%al, %eax	# D.14976, D.14970
	addl	%edx, %eax	# D.14970, D.14970
	leal	0(,%rax,4), %ecx	#, D.14970
	movl	-56(%rbp), %eax	# i, tmp1135
	movslq	%eax, %rdx	# tmp1135, D.14974
	movq	-72(%rbp), %rax	# dsq, tmp1136
	addq	%rdx, %rax	# D.14974, D.14975
	movzbl	(%rax), %eax	# *_146, D.14976
	movsbl	%al, %eax	# D.14976, D.14970
	addl	%ecx, %eax	# D.14970, tmp1137
	movl	%eax, -48(%rbp)	# tmp1137, codon
	jmp	.L222	#
.L223:
	.loc 1 1531 0
	movl	$64, -48(%rbp)	#, codon
.L222:
	.loc 1 1534 0
	movl	$1, -52(%rbp)	#, k
	jmp	.L224	#
.L244:
	.loc 1 1536 0
	cmpl	$2, -56(%rbp)	#, i
	jle	.L225	#,
	.loc 1 1537 0
	movq	-32(%rbp), %rax	# mmx, mmx.377
	movl	-56(%rbp), %edx	# i, tmp1138
	movslq	%edx, %rdx	# tmp1138, D.14972
	salq	$3, %rdx	#, D.14972
	addq	%rdx, %rax	# D.14972, D.14973
	movq	(%rax), %rax	# *_156, D.14971
	movl	-52(%rbp), %edx	# k, tmp1139
	movslq	%edx, %rdx	# tmp1139, D.14972
	salq	$2, %rdx	#, D.14972
	addq	%rax, %rdx	# D.14971, D.14971
	movq	-32(%rbp), %rax	# mmx, mmx.378
	movl	-56(%rbp), %ecx	# i, tmp1140
	movslq	%ecx, %rcx	# tmp1140, D.14972
	salq	$3, %rcx	#, D.14972
	subq	$24, %rcx	#, D.14974
	addq	%rcx, %rax	# D.14974, D.14973
	movq	(%rax), %rax	# *_165, D.14971
	movl	-52(%rbp), %ecx	# k, tmp1141
	movslq	%ecx, %rcx	# tmp1141, D.14972
	salq	$2, %rcx	#, D.14972
	subq	$4, %rcx	#, D.14974
	addq	%rcx, %rax	# D.14974, D.14971
	movl	(%rax), %ecx	# *_170, D.14970
	movq	-88(%rbp), %rax	# hmm, tmp1142
	movq	312(%rax), %rax	# hmm_8(D)->tsc, D.14973
	movq	(%rax), %rax	# *_172, D.14971
	movl	-52(%rbp), %esi	# k, tmp1143
	movslq	%esi, %rsi	# tmp1143, D.14972
	salq	$2, %rsi	#, D.14972
	subq	$4, %rsi	#, D.14974
	addq	%rsi, %rax	# D.14974, D.14971
	movl	(%rax), %eax	# *_177, D.14970
	addl	%ecx, %eax	# D.14970, D.14970
	movl	%eax, (%rdx)	# D.14970, *_160
	.loc 1 1538 0
	movq	-24(%rbp), %rax	# imx, imx.379
	movl	-56(%rbp), %edx	# i, tmp1144
	movslq	%edx, %rdx	# tmp1144, D.14972
	salq	$3, %rdx	#, D.14972
	subq	$24, %rdx	#, D.14974
	addq	%rdx, %rax	# D.14974, D.14973
	movq	(%rax), %rax	# *_184, D.14971
	movl	-52(%rbp), %edx	# k, tmp1145
	movslq	%edx, %rdx	# tmp1145, D.14972
	salq	$2, %rdx	#, D.14972
	subq	$4, %rdx	#, D.14974
	addq	%rdx, %rax	# D.14974, D.14971
	movl	(%rax), %edx	# *_189, D.14970
	movq	-88(%rbp), %rax	# hmm, tmp1146
	movq	312(%rax), %rax	# hmm_8(D)->tsc, D.14973
	addq	$24, %rax	#, D.14973
	movq	(%rax), %rax	# *_192, D.14971
	movl	-52(%rbp), %ecx	# k, tmp1147
	movslq	%ecx, %rcx	# tmp1147, D.14972
	salq	$2, %rcx	#, D.14972
	subq	$4, %rcx	#, D.14974
	addq	%rcx, %rax	# D.14974, D.14971
	movl	(%rax), %eax	# *_197, D.14970
	addl	%edx, %eax	# D.14970, tmp1148
	movl	%eax, -44(%rbp)	# tmp1148, sc
	movq	-32(%rbp), %rax	# mmx, mmx.380
	movl	-56(%rbp), %edx	# i, tmp1149
	movslq	%edx, %rdx	# tmp1149, D.14972
	salq	$3, %rdx	#, D.14972
	addq	%rdx, %rax	# D.14972, D.14973
	movq	(%rax), %rax	# *_203, D.14971
	movl	-52(%rbp), %edx	# k, tmp1150
	movslq	%edx, %rdx	# tmp1150, D.14972
	salq	$2, %rdx	#, D.14972
	addq	%rdx, %rax	# D.14972, D.14971
	movl	(%rax), %eax	# *_207, D.14970
	cmpl	%eax, -44(%rbp)	# D.14970, sc
	jle	.L226	#,
	.loc 1 1539 0
	movq	-32(%rbp), %rax	# mmx, mmx.381
	movl	-56(%rbp), %edx	# i, tmp1151
	movslq	%edx, %rdx	# tmp1151, D.14972
	salq	$3, %rdx	#, D.14972
	addq	%rdx, %rax	# D.14972, D.14973
	movq	(%rax), %rax	# *_212, D.14971
	movl	-52(%rbp), %edx	# k, tmp1152
	movslq	%edx, %rdx	# tmp1152, D.14972
	salq	$2, %rdx	#, D.14972
	addq	%rax, %rdx	# D.14971, D.14971
	movl	-44(%rbp), %eax	# sc, tmp1153
	movl	%eax, (%rdx)	# tmp1153, *_216
.L226:
	.loc 1 1540 0
	movq	-40(%rbp), %rax	# xmx, xmx.382
	movl	-56(%rbp), %edx	# i, tmp1154
	movslq	%edx, %rdx	# tmp1154, D.14972
	salq	$3, %rdx	#, D.14972
	subq	$24, %rdx	#, D.14974
	addq	%rdx, %rax	# D.14974, D.14973
	movq	(%rax), %rax	# *_221, D.14971
	movl	(%rax), %edx	# *_222, D.14970
	movq	-88(%rbp), %rax	# hmm, tmp1155
	movq	368(%rax), %rax	# hmm_8(D)->bsc, D.14971
	movl	-52(%rbp), %ecx	# k, tmp1156
	movslq	%ecx, %rcx	# tmp1156, D.14972
	salq	$2, %rcx	#, D.14972
	addq	%rcx, %rax	# D.14972, D.14971
	movl	(%rax), %eax	# *_227, D.14970
	addl	%edx, %eax	# D.14970, tmp1157
	movl	%eax, -44(%rbp)	# tmp1157, sc
	movq	-32(%rbp), %rax	# mmx, mmx.383
	movl	-56(%rbp), %edx	# i, tmp1158
	movslq	%edx, %rdx	# tmp1158, D.14972
	salq	$3, %rdx	#, D.14972
	addq	%rdx, %rax	# D.14972, D.14973
	movq	(%rax), %rax	# *_233, D.14971
	movl	-52(%rbp), %edx	# k, tmp1159
	movslq	%edx, %rdx	# tmp1159, D.14972
	salq	$2, %rdx	#, D.14972
	addq	%rdx, %rax	# D.14972, D.14971
	movl	(%rax), %eax	# *_237, D.14970
	cmpl	%eax, -44(%rbp)	# D.14970, sc
	jle	.L227	#,
	.loc 1 1541 0
	movq	-32(%rbp), %rax	# mmx, mmx.384
	movl	-56(%rbp), %edx	# i, tmp1160
	movslq	%edx, %rdx	# tmp1160, D.14972
	salq	$3, %rdx	#, D.14972
	addq	%rdx, %rax	# D.14972, D.14973
	movq	(%rax), %rax	# *_242, D.14971
	movl	-52(%rbp), %edx	# k, tmp1161
	movslq	%edx, %rdx	# tmp1161, D.14972
	salq	$2, %rdx	#, D.14972
	addq	%rax, %rdx	# D.14971, D.14971
	movl	-44(%rbp), %eax	# sc, tmp1162
	movl	%eax, (%rdx)	# tmp1162, *_246
.L227:
	.loc 1 1542 0
	movq	-16(%rbp), %rax	# dmx, dmx.385
	movl	-56(%rbp), %edx	# i, tmp1163
	movslq	%edx, %rdx	# tmp1163, D.14972
	salq	$3, %rdx	#, D.14972
	subq	$24, %rdx	#, D.14974
	addq	%rdx, %rax	# D.14974, D.14973
	movq	(%rax), %rax	# *_251, D.14971
	movl	-52(%rbp), %edx	# k, tmp1164
	movslq	%edx, %rdx	# tmp1164, D.14972
	salq	$2, %rdx	#, D.14972
	subq	$4, %rdx	#, D.14974
	addq	%rdx, %rax	# D.14974, D.14971
	movl	(%rax), %edx	# *_256, D.14970
	movq	-88(%rbp), %rax	# hmm, tmp1165
	movq	312(%rax), %rax	# hmm_8(D)->tsc, D.14973
	addq	$40, %rax	#, D.14973
	movq	(%rax), %rax	# *_259, D.14971
	movl	-52(%rbp), %ecx	# k, tmp1166
	movslq	%ecx, %rcx	# tmp1166, D.14972
	salq	$2, %rcx	#, D.14972
	subq	$4, %rcx	#, D.14974
	addq	%rcx, %rax	# D.14974, D.14971
	movl	(%rax), %eax	# *_264, D.14970
	addl	%edx, %eax	# D.14970, tmp1167
	movl	%eax, -44(%rbp)	# tmp1167, sc
	movq	-32(%rbp), %rax	# mmx, mmx.386
	movl	-56(%rbp), %edx	# i, tmp1168
	movslq	%edx, %rdx	# tmp1168, D.14972
	salq	$3, %rdx	#, D.14972
	addq	%rdx, %rax	# D.14972, D.14973
	movq	(%rax), %rax	# *_270, D.14971
	movl	-52(%rbp), %edx	# k, tmp1169
	movslq	%edx, %rdx	# tmp1169, D.14972
	salq	$2, %rdx	#, D.14972
	addq	%rdx, %rax	# D.14972, D.14971
	movl	(%rax), %eax	# *_274, D.14970
	cmpl	%eax, -44(%rbp)	# D.14970, sc
	jle	.L228	#,
	.loc 1 1543 0
	movq	-32(%rbp), %rax	# mmx, mmx.387
	movl	-56(%rbp), %edx	# i, tmp1170
	movslq	%edx, %rdx	# tmp1170, D.14972
	salq	$3, %rdx	#, D.14972
	addq	%rdx, %rax	# D.14972, D.14973
	movq	(%rax), %rax	# *_279, D.14971
	movl	-52(%rbp), %edx	# k, tmp1171
	movslq	%edx, %rdx	# tmp1171, D.14972
	salq	$2, %rdx	#, D.14972
	addq	%rax, %rdx	# D.14971, D.14971
	movl	-44(%rbp), %eax	# sc, tmp1172
	movl	%eax, (%rdx)	# tmp1172, *_283
.L228:
	.loc 1 1544 0
	movq	-32(%rbp), %rax	# mmx, mmx.388
	movl	-56(%rbp), %edx	# i, tmp1173
	movslq	%edx, %rdx	# tmp1173, D.14972
	salq	$3, %rdx	#, D.14972
	addq	%rdx, %rax	# D.14972, D.14973
	movq	(%rax), %rax	# *_287, D.14971
	movl	-52(%rbp), %edx	# k, tmp1174
	movslq	%edx, %rdx	# tmp1174, D.14972
	salq	$2, %rdx	#, D.14972
	addq	%rax, %rdx	# D.14971, D.14971
	movq	-32(%rbp), %rax	# mmx, mmx.389
	movl	-56(%rbp), %ecx	# i, tmp1175
	movslq	%ecx, %rcx	# tmp1175, D.14972
	salq	$3, %rcx	#, D.14972
	addq	%rcx, %rax	# D.14972, D.14973
	movq	(%rax), %rax	# *_295, D.14971
	movl	-52(%rbp), %ecx	# k, tmp1176
	movslq	%ecx, %rcx	# tmp1176, D.14972
	salq	$2, %rcx	#, D.14972
	addq	%rcx, %rax	# D.14972, D.14971
	movl	(%rax), %ecx	# *_299, D.14970
	movq	-88(%rbp), %rax	# hmm, tmp1177
	movq	424(%rax), %rax	# hmm_8(D)->dnam, D.14973
	movl	-48(%rbp), %esi	# codon, tmp1178
	movslq	%esi, %rsi	# tmp1178, D.14972
	salq	$3, %rsi	#, D.14972
	addq	%rsi, %rax	# D.14972, D.14973
	movq	(%rax), %rax	# *_304, D.14971
	movl	-52(%rbp), %esi	# k, tmp1179
	movslq	%esi, %rsi	# tmp1179, D.14972
	salq	$2, %rsi	#, D.14972
	addq	%rsi, %rax	# D.14972, D.14971
	movl	(%rax), %eax	# *_308, D.14970
	addl	%ecx, %eax	# D.14970, D.14970
	movl	%eax, (%rdx)	# D.14970, *_291
.L225:
	.loc 1 1547 0
	movq	-32(%rbp), %rax	# mmx, mmx.390
	movl	-56(%rbp), %edx	# i, tmp1180
	movslq	%edx, %rdx	# tmp1180, D.14972
	salq	$3, %rdx	#, D.14972
	subq	$16, %rdx	#, D.14974
	addq	%rdx, %rax	# D.14974, D.14973
	movq	(%rax), %rax	# *_315, D.14971
	movl	-52(%rbp), %edx	# k, tmp1181
	movslq	%edx, %rdx	# tmp1181, D.14972
	salq	$2, %rdx	#, D.14972
	subq	$4, %rdx	#, D.14974
	addq	%rdx, %rax	# D.14974, D.14971
	movl	(%rax), %edx	# *_320, D.14970
	movq	-88(%rbp), %rax	# hmm, tmp1182
	movq	312(%rax), %rax	# hmm_8(D)->tsc, D.14973
	movq	(%rax), %rax	# *_322, D.14971
	movl	-52(%rbp), %ecx	# k, tmp1183
	movslq	%ecx, %rcx	# tmp1183, D.14972
	salq	$2, %rcx	#, D.14972
	subq	$4, %rcx	#, D.14974
	addq	%rcx, %rax	# D.14974, D.14971
	movl	(%rax), %eax	# *_327, D.14970
	addl	%eax, %edx	# D.14970, D.14970
	movq	-88(%rbp), %rax	# hmm, tmp1184
	movl	440(%rax), %eax	# hmm_8(D)->dna2, D.14970
	addl	%edx, %eax	# D.14970, tmp1185
	movl	%eax, -44(%rbp)	# tmp1185, sc
	movq	-32(%rbp), %rax	# mmx, mmx.391
	movl	-56(%rbp), %edx	# i, tmp1186
	movslq	%edx, %rdx	# tmp1186, D.14972
	salq	$3, %rdx	#, D.14972
	addq	%rdx, %rax	# D.14972, D.14973
	movq	(%rax), %rax	# *_335, D.14971
	movl	-52(%rbp), %edx	# k, tmp1187
	movslq	%edx, %rdx	# tmp1187, D.14972
	salq	$2, %rdx	#, D.14972
	addq	%rdx, %rax	# D.14972, D.14971
	movl	(%rax), %eax	# *_339, D.14970
	cmpl	%eax, -44(%rbp)	# D.14970, sc
	jle	.L229	#,
	.loc 1 1548 0
	movq	-32(%rbp), %rax	# mmx, mmx.392
	movl	-56(%rbp), %edx	# i, tmp1188
	movslq	%edx, %rdx	# tmp1188, D.14972
	salq	$3, %rdx	#, D.14972
	addq	%rdx, %rax	# D.14972, D.14973
	movq	(%rax), %rax	# *_344, D.14971
	movl	-52(%rbp), %edx	# k, tmp1189
	movslq	%edx, %rdx	# tmp1189, D.14972
	salq	$2, %rdx	#, D.14972
	addq	%rax, %rdx	# D.14971, D.14971
	movl	-44(%rbp), %eax	# sc, tmp1190
	movl	%eax, (%rdx)	# tmp1190, *_348
.L229:
	.loc 1 1549 0
	movq	-24(%rbp), %rax	# imx, imx.393
	movl	-56(%rbp), %edx	# i, tmp1191
	movslq	%edx, %rdx	# tmp1191, D.14972
	salq	$3, %rdx	#, D.14972
	subq	$16, %rdx	#, D.14974
	addq	%rdx, %rax	# D.14974, D.14973
	movq	(%rax), %rax	# *_353, D.14971
	movl	-52(%rbp), %edx	# k, tmp1192
	movslq	%edx, %rdx	# tmp1192, D.14972
	salq	$2, %rdx	#, D.14972
	subq	$4, %rdx	#, D.14974
	addq	%rdx, %rax	# D.14974, D.14971
	movl	(%rax), %edx	# *_358, D.14970
	movq	-88(%rbp), %rax	# hmm, tmp1193
	movq	312(%rax), %rax	# hmm_8(D)->tsc, D.14973
	addq	$24, %rax	#, D.14973
	movq	(%rax), %rax	# *_361, D.14971
	movl	-52(%rbp), %ecx	# k, tmp1194
	movslq	%ecx, %rcx	# tmp1194, D.14972
	salq	$2, %rcx	#, D.14972
	subq	$4, %rcx	#, D.14974
	addq	%rcx, %rax	# D.14974, D.14971
	movl	(%rax), %eax	# *_366, D.14970
	addl	%eax, %edx	# D.14970, D.14970
	movq	-88(%rbp), %rax	# hmm, tmp1195
	movl	440(%rax), %eax	# hmm_8(D)->dna2, D.14970
	addl	%edx, %eax	# D.14970, tmp1196
	movl	%eax, -44(%rbp)	# tmp1196, sc
	movq	-32(%rbp), %rax	# mmx, mmx.394
	movl	-56(%rbp), %edx	# i, tmp1197
	movslq	%edx, %rdx	# tmp1197, D.14972
	salq	$3, %rdx	#, D.14972
	addq	%rdx, %rax	# D.14972, D.14973
	movq	(%rax), %rax	# *_374, D.14971
	movl	-52(%rbp), %edx	# k, tmp1198
	movslq	%edx, %rdx	# tmp1198, D.14972
	salq	$2, %rdx	#, D.14972
	addq	%rdx, %rax	# D.14972, D.14971
	movl	(%rax), %eax	# *_378, D.14970
	cmpl	%eax, -44(%rbp)	# D.14970, sc
	jle	.L230	#,
	.loc 1 1550 0
	movq	-32(%rbp), %rax	# mmx, mmx.395
	movl	-56(%rbp), %edx	# i, tmp1199
	movslq	%edx, %rdx	# tmp1199, D.14972
	salq	$3, %rdx	#, D.14972
	addq	%rdx, %rax	# D.14972, D.14973
	movq	(%rax), %rax	# *_383, D.14971
	movl	-52(%rbp), %edx	# k, tmp1200
	movslq	%edx, %rdx	# tmp1200, D.14972
	salq	$2, %rdx	#, D.14972
	addq	%rax, %rdx	# D.14971, D.14971
	movl	-44(%rbp), %eax	# sc, tmp1201
	movl	%eax, (%rdx)	# tmp1201, *_387
.L230:
	.loc 1 1551 0
	movq	-40(%rbp), %rax	# xmx, xmx.396
	movl	-56(%rbp), %edx	# i, tmp1202
	movslq	%edx, %rdx	# tmp1202, D.14972
	salq	$3, %rdx	#, D.14972
	subq	$16, %rdx	#, D.14974
	addq	%rdx, %rax	# D.14974, D.14973
	movq	(%rax), %rax	# *_392, D.14971
	movl	(%rax), %edx	# *_393, D.14970
	movq	-88(%rbp), %rax	# hmm, tmp1203
	movq	368(%rax), %rax	# hmm_8(D)->bsc, D.14971
	movl	-52(%rbp), %ecx	# k, tmp1204
	movslq	%ecx, %rcx	# tmp1204, D.14972
	salq	$2, %rcx	#, D.14972
	addq	%rcx, %rax	# D.14972, D.14971
	movl	(%rax), %eax	# *_398, D.14970
	addl	%eax, %edx	# D.14970, D.14970
	movq	-88(%rbp), %rax	# hmm, tmp1205
	movl	440(%rax), %eax	# hmm_8(D)->dna2, D.14970
	addl	%edx, %eax	# D.14970, tmp1206
	movl	%eax, -44(%rbp)	# tmp1206, sc
	movq	-32(%rbp), %rax	# mmx, mmx.397
	movl	-56(%rbp), %edx	# i, tmp1207
	movslq	%edx, %rdx	# tmp1207, D.14972
	salq	$3, %rdx	#, D.14972
	addq	%rdx, %rax	# D.14972, D.14973
	movq	(%rax), %rax	# *_406, D.14971
	movl	-52(%rbp), %edx	# k, tmp1208
	movslq	%edx, %rdx	# tmp1208, D.14972
	salq	$2, %rdx	#, D.14972
	addq	%rdx, %rax	# D.14972, D.14971
	movl	(%rax), %eax	# *_410, D.14970
	cmpl	%eax, -44(%rbp)	# D.14970, sc
	jle	.L231	#,
	.loc 1 1552 0
	movq	-32(%rbp), %rax	# mmx, mmx.398
	movl	-56(%rbp), %edx	# i, tmp1209
	movslq	%edx, %rdx	# tmp1209, D.14972
	salq	$3, %rdx	#, D.14972
	addq	%rdx, %rax	# D.14972, D.14973
	movq	(%rax), %rax	# *_415, D.14971
	movl	-52(%rbp), %edx	# k, tmp1210
	movslq	%edx, %rdx	# tmp1210, D.14972
	salq	$2, %rdx	#, D.14972
	addq	%rax, %rdx	# D.14971, D.14971
	movl	-44(%rbp), %eax	# sc, tmp1211
	movl	%eax, (%rdx)	# tmp1211, *_419
.L231:
	.loc 1 1553 0
	movq	-16(%rbp), %rax	# dmx, dmx.399
	movl	-56(%rbp), %edx	# i, tmp1212
	movslq	%edx, %rdx	# tmp1212, D.14972
	salq	$3, %rdx	#, D.14972
	subq	$16, %rdx	#, D.14974
	addq	%rdx, %rax	# D.14974, D.14973
	movq	(%rax), %rax	# *_424, D.14971
	movl	-52(%rbp), %edx	# k, tmp1213
	movslq	%edx, %rdx	# tmp1213, D.14972
	salq	$2, %rdx	#, D.14972
	subq	$4, %rdx	#, D.14974
	addq	%rdx, %rax	# D.14974, D.14971
	movl	(%rax), %edx	# *_429, D.14970
	movq	-88(%rbp), %rax	# hmm, tmp1214
	movq	312(%rax), %rax	# hmm_8(D)->tsc, D.14973
	addq	$40, %rax	#, D.14973
	movq	(%rax), %rax	# *_432, D.14971
	movl	-52(%rbp), %ecx	# k, tmp1215
	movslq	%ecx, %rcx	# tmp1215, D.14972
	salq	$2, %rcx	#, D.14972
	subq	$4, %rcx	#, D.14974
	addq	%rcx, %rax	# D.14974, D.14971
	movl	(%rax), %eax	# *_437, D.14970
	addl	%eax, %edx	# D.14970, D.14970
	movq	-88(%rbp), %rax	# hmm, tmp1216
	movl	440(%rax), %eax	# hmm_8(D)->dna2, D.14970
	addl	%edx, %eax	# D.14970, tmp1217
	movl	%eax, -44(%rbp)	# tmp1217, sc
	movq	-32(%rbp), %rax	# mmx, mmx.400
	movl	-56(%rbp), %edx	# i, tmp1218
	movslq	%edx, %rdx	# tmp1218, D.14972
	salq	$3, %rdx	#, D.14972
	addq	%rdx, %rax	# D.14972, D.14973
	movq	(%rax), %rax	# *_445, D.14971
	movl	-52(%rbp), %edx	# k, tmp1219
	movslq	%edx, %rdx	# tmp1219, D.14972
	salq	$2, %rdx	#, D.14972
	addq	%rdx, %rax	# D.14972, D.14971
	movl	(%rax), %eax	# *_449, D.14970
	cmpl	%eax, -44(%rbp)	# D.14970, sc
	jle	.L232	#,
	.loc 1 1554 0
	movq	-32(%rbp), %rax	# mmx, mmx.401
	movl	-56(%rbp), %edx	# i, tmp1220
	movslq	%edx, %rdx	# tmp1220, D.14972
	salq	$3, %rdx	#, D.14972
	addq	%rdx, %rax	# D.14972, D.14973
	movq	(%rax), %rax	# *_454, D.14971
	movl	-52(%rbp), %edx	# k, tmp1221
	movslq	%edx, %rdx	# tmp1221, D.14972
	salq	$2, %rdx	#, D.14972
	addq	%rax, %rdx	# D.14971, D.14971
	movl	-44(%rbp), %eax	# sc, tmp1222
	movl	%eax, (%rdx)	# tmp1222, *_458
.L232:
	.loc 1 1557 0
	cmpl	$3, -56(%rbp)	#, i
	jle	.L233	#,
	.loc 1 1558 0
	movq	-32(%rbp), %rax	# mmx, mmx.402
	movl	-56(%rbp), %edx	# i, tmp1223
	movslq	%edx, %rdx	# tmp1223, D.14972
	salq	$3, %rdx	#, D.14972
	subq	$32, %rdx	#, D.14974
	addq	%rdx, %rax	# D.14974, D.14973
	movq	(%rax), %rax	# *_463, D.14971
	movl	-52(%rbp), %edx	# k, tmp1224
	movslq	%edx, %rdx	# tmp1224, D.14972
	salq	$2, %rdx	#, D.14972
	subq	$4, %rdx	#, D.14974
	addq	%rdx, %rax	# D.14974, D.14971
	movl	(%rax), %edx	# *_468, D.14970
	movq	-88(%rbp), %rax	# hmm, tmp1225
	movq	312(%rax), %rax	# hmm_8(D)->tsc, D.14973
	movq	(%rax), %rax	# *_470, D.14971
	movl	-52(%rbp), %ecx	# k, tmp1226
	movslq	%ecx, %rcx	# tmp1226, D.14972
	salq	$2, %rcx	#, D.14972
	subq	$4, %rcx	#, D.14974
	addq	%rcx, %rax	# D.14974, D.14971
	movl	(%rax), %eax	# *_475, D.14970
	addl	%eax, %edx	# D.14970, D.14970
	movq	-88(%rbp), %rax	# hmm, tmp1227
	movl	444(%rax), %eax	# hmm_8(D)->dna4, D.14970
	addl	%edx, %eax	# D.14970, tmp1228
	movl	%eax, -44(%rbp)	# tmp1228, sc
	movq	-32(%rbp), %rax	# mmx, mmx.403
	movl	-56(%rbp), %edx	# i, tmp1229
	movslq	%edx, %rdx	# tmp1229, D.14972
	salq	$3, %rdx	#, D.14972
	addq	%rdx, %rax	# D.14972, D.14973
	movq	(%rax), %rax	# *_483, D.14971
	movl	-52(%rbp), %edx	# k, tmp1230
	movslq	%edx, %rdx	# tmp1230, D.14972
	salq	$2, %rdx	#, D.14972
	addq	%rdx, %rax	# D.14972, D.14971
	movl	(%rax), %eax	# *_487, D.14970
	cmpl	%eax, -44(%rbp)	# D.14970, sc
	jle	.L234	#,
	.loc 1 1559 0
	movq	-32(%rbp), %rax	# mmx, mmx.404
	movl	-56(%rbp), %edx	# i, tmp1231
	movslq	%edx, %rdx	# tmp1231, D.14972
	salq	$3, %rdx	#, D.14972
	addq	%rdx, %rax	# D.14972, D.14973
	movq	(%rax), %rax	# *_492, D.14971
	movl	-52(%rbp), %edx	# k, tmp1232
	movslq	%edx, %rdx	# tmp1232, D.14972
	salq	$2, %rdx	#, D.14972
	addq	%rax, %rdx	# D.14971, D.14971
	movl	-44(%rbp), %eax	# sc, tmp1233
	movl	%eax, (%rdx)	# tmp1233, *_496
.L234:
	.loc 1 1560 0
	movq	-24(%rbp), %rax	# imx, imx.405
	movl	-56(%rbp), %edx	# i, tmp1234
	movslq	%edx, %rdx	# tmp1234, D.14972
	salq	$3, %rdx	#, D.14972
	subq	$32, %rdx	#, D.14974
	addq	%rdx, %rax	# D.14974, D.14973
	movq	(%rax), %rax	# *_501, D.14971
	movl	-52(%rbp), %edx	# k, tmp1235
	movslq	%edx, %rdx	# tmp1235, D.14972
	salq	$2, %rdx	#, D.14972
	subq	$4, %rdx	#, D.14974
	addq	%rdx, %rax	# D.14974, D.14971
	movl	(%rax), %edx	# *_506, D.14970
	movq	-88(%rbp), %rax	# hmm, tmp1236
	movq	312(%rax), %rax	# hmm_8(D)->tsc, D.14973
	addq	$24, %rax	#, D.14973
	movq	(%rax), %rax	# *_509, D.14971
	movl	-52(%rbp), %ecx	# k, tmp1237
	movslq	%ecx, %rcx	# tmp1237, D.14972
	salq	$2, %rcx	#, D.14972
	subq	$4, %rcx	#, D.14974
	addq	%rcx, %rax	# D.14974, D.14971
	movl	(%rax), %eax	# *_514, D.14970
	addl	%eax, %edx	# D.14970, D.14970
	movq	-88(%rbp), %rax	# hmm, tmp1238
	movl	444(%rax), %eax	# hmm_8(D)->dna4, D.14970
	addl	%edx, %eax	# D.14970, tmp1239
	movl	%eax, -44(%rbp)	# tmp1239, sc
	movq	-32(%rbp), %rax	# mmx, mmx.406
	movl	-56(%rbp), %edx	# i, tmp1240
	movslq	%edx, %rdx	# tmp1240, D.14972
	salq	$3, %rdx	#, D.14972
	addq	%rdx, %rax	# D.14972, D.14973
	movq	(%rax), %rax	# *_522, D.14971
	movl	-52(%rbp), %edx	# k, tmp1241
	movslq	%edx, %rdx	# tmp1241, D.14972
	salq	$2, %rdx	#, D.14972
	addq	%rdx, %rax	# D.14972, D.14971
	movl	(%rax), %eax	# *_526, D.14970
	cmpl	%eax, -44(%rbp)	# D.14970, sc
	jle	.L235	#,
	.loc 1 1561 0
	movq	-32(%rbp), %rax	# mmx, mmx.407
	movl	-56(%rbp), %edx	# i, tmp1242
	movslq	%edx, %rdx	# tmp1242, D.14972
	salq	$3, %rdx	#, D.14972
	addq	%rdx, %rax	# D.14972, D.14973
	movq	(%rax), %rax	# *_531, D.14971
	movl	-52(%rbp), %edx	# k, tmp1243
	movslq	%edx, %rdx	# tmp1243, D.14972
	salq	$2, %rdx	#, D.14972
	addq	%rax, %rdx	# D.14971, D.14971
	movl	-44(%rbp), %eax	# sc, tmp1244
	movl	%eax, (%rdx)	# tmp1244, *_535
.L235:
	.loc 1 1562 0
	movq	-40(%rbp), %rax	# xmx, xmx.408
	movl	-56(%rbp), %edx	# i, tmp1245
	movslq	%edx, %rdx	# tmp1245, D.14972
	salq	$3, %rdx	#, D.14972
	subq	$32, %rdx	#, D.14974
	addq	%rdx, %rax	# D.14974, D.14973
	movq	(%rax), %rax	# *_540, D.14971
	movl	(%rax), %edx	# *_541, D.14970
	movq	-88(%rbp), %rax	# hmm, tmp1246
	movq	368(%rax), %rax	# hmm_8(D)->bsc, D.14971
	movl	-52(%rbp), %ecx	# k, tmp1247
	movslq	%ecx, %rcx	# tmp1247, D.14972
	salq	$2, %rcx	#, D.14972
	addq	%rcx, %rax	# D.14972, D.14971
	movl	(%rax), %eax	# *_546, D.14970
	addl	%eax, %edx	# D.14970, D.14970
	movq	-88(%rbp), %rax	# hmm, tmp1248
	movl	444(%rax), %eax	# hmm_8(D)->dna4, D.14970
	addl	%edx, %eax	# D.14970, tmp1249
	movl	%eax, -44(%rbp)	# tmp1249, sc
	movq	-32(%rbp), %rax	# mmx, mmx.409
	movl	-56(%rbp), %edx	# i, tmp1250
	movslq	%edx, %rdx	# tmp1250, D.14972
	salq	$3, %rdx	#, D.14972
	addq	%rdx, %rax	# D.14972, D.14973
	movq	(%rax), %rax	# *_554, D.14971
	movl	-52(%rbp), %edx	# k, tmp1251
	movslq	%edx, %rdx	# tmp1251, D.14972
	salq	$2, %rdx	#, D.14972
	addq	%rdx, %rax	# D.14972, D.14971
	movl	(%rax), %eax	# *_558, D.14970
	cmpl	%eax, -44(%rbp)	# D.14970, sc
	jle	.L236	#,
	.loc 1 1563 0
	movq	-32(%rbp), %rax	# mmx, mmx.410
	movl	-56(%rbp), %edx	# i, tmp1252
	movslq	%edx, %rdx	# tmp1252, D.14972
	salq	$3, %rdx	#, D.14972
	addq	%rdx, %rax	# D.14972, D.14973
	movq	(%rax), %rax	# *_563, D.14971
	movl	-52(%rbp), %edx	# k, tmp1253
	movslq	%edx, %rdx	# tmp1253, D.14972
	salq	$2, %rdx	#, D.14972
	addq	%rax, %rdx	# D.14971, D.14971
	movl	-44(%rbp), %eax	# sc, tmp1254
	movl	%eax, (%rdx)	# tmp1254, *_567
.L236:
	.loc 1 1564 0
	movq	-16(%rbp), %rax	# dmx, dmx.411
	movl	-56(%rbp), %edx	# i, tmp1255
	movslq	%edx, %rdx	# tmp1255, D.14972
	salq	$3, %rdx	#, D.14972
	subq	$32, %rdx	#, D.14974
	addq	%rdx, %rax	# D.14974, D.14973
	movq	(%rax), %rax	# *_572, D.14971
	movl	-52(%rbp), %edx	# k, tmp1256
	movslq	%edx, %rdx	# tmp1256, D.14972
	salq	$2, %rdx	#, D.14972
	subq	$4, %rdx	#, D.14974
	addq	%rdx, %rax	# D.14974, D.14971
	movl	(%rax), %edx	# *_577, D.14970
	movq	-88(%rbp), %rax	# hmm, tmp1257
	movq	312(%rax), %rax	# hmm_8(D)->tsc, D.14973
	addq	$40, %rax	#, D.14973
	movq	(%rax), %rax	# *_580, D.14971
	movl	-52(%rbp), %ecx	# k, tmp1258
	movslq	%ecx, %rcx	# tmp1258, D.14972
	salq	$2, %rcx	#, D.14972
	subq	$4, %rcx	#, D.14974
	addq	%rcx, %rax	# D.14974, D.14971
	movl	(%rax), %eax	# *_585, D.14970
	addl	%eax, %edx	# D.14970, D.14970
	movq	-88(%rbp), %rax	# hmm, tmp1259
	movl	444(%rax), %eax	# hmm_8(D)->dna4, D.14970
	addl	%edx, %eax	# D.14970, tmp1260
	movl	%eax, -44(%rbp)	# tmp1260, sc
	movq	-32(%rbp), %rax	# mmx, mmx.412
	movl	-56(%rbp), %edx	# i, tmp1261
	movslq	%edx, %rdx	# tmp1261, D.14972
	salq	$3, %rdx	#, D.14972
	addq	%rdx, %rax	# D.14972, D.14973
	movq	(%rax), %rax	# *_593, D.14971
	movl	-52(%rbp), %edx	# k, tmp1262
	movslq	%edx, %rdx	# tmp1262, D.14972
	salq	$2, %rdx	#, D.14972
	addq	%rdx, %rax	# D.14972, D.14971
	movl	(%rax), %eax	# *_597, D.14970
	cmpl	%eax, -44(%rbp)	# D.14970, sc
	jle	.L233	#,
	.loc 1 1565 0
	movq	-32(%rbp), %rax	# mmx, mmx.413
	movl	-56(%rbp), %edx	# i, tmp1263
	movslq	%edx, %rdx	# tmp1263, D.14972
	salq	$3, %rdx	#, D.14972
	addq	%rdx, %rax	# D.14972, D.14973
	movq	(%rax), %rax	# *_602, D.14971
	movl	-52(%rbp), %edx	# k, tmp1264
	movslq	%edx, %rdx	# tmp1264, D.14972
	salq	$2, %rdx	#, D.14972
	addq	%rax, %rdx	# D.14971, D.14971
	movl	-44(%rbp), %eax	# sc, tmp1265
	movl	%eax, (%rdx)	# tmp1265, *_606
.L233:
	.loc 1 1568 0
	movq	-16(%rbp), %rax	# dmx, dmx.414
	movl	-56(%rbp), %edx	# i, tmp1266
	movslq	%edx, %rdx	# tmp1266, D.14972
	salq	$3, %rdx	#, D.14972
	addq	%rdx, %rax	# D.14972, D.14973
	movq	(%rax), %rax	# *_610, D.14971
	movl	-52(%rbp), %edx	# k, tmp1267
	movslq	%edx, %rdx	# tmp1267, D.14972
	salq	$2, %rdx	#, D.14972
	addq	%rax, %rdx	# D.14971, D.14971
	movq	-32(%rbp), %rax	# mmx, mmx.415
	movl	-56(%rbp), %ecx	# i, tmp1268
	movslq	%ecx, %rcx	# tmp1268, D.14972
	salq	$3, %rcx	#, D.14972
	addq	%rcx, %rax	# D.14972, D.14973
	movq	(%rax), %rax	# *_618, D.14971
	movl	-52(%rbp), %ecx	# k, tmp1269
	movslq	%ecx, %rcx	# tmp1269, D.14972
	salq	$2, %rcx	#, D.14972
	subq	$4, %rcx	#, D.14974
	addq	%rcx, %rax	# D.14974, D.14971
	movl	(%rax), %ecx	# *_623, D.14970
	movq	-88(%rbp), %rax	# hmm, tmp1270
	movq	312(%rax), %rax	# hmm_8(D)->tsc, D.14973
	addq	$16, %rax	#, D.14973
	movq	(%rax), %rax	# *_626, D.14971
	movl	-52(%rbp), %esi	# k, tmp1271
	movslq	%esi, %rsi	# tmp1271, D.14972
	salq	$2, %rsi	#, D.14972
	subq	$4, %rsi	#, D.14974
	addq	%rsi, %rax	# D.14974, D.14971
	movl	(%rax), %eax	# *_631, D.14970
	addl	%ecx, %eax	# D.14970, D.14970
	movl	%eax, (%rdx)	# D.14970, *_614
	.loc 1 1569 0
	movq	-16(%rbp), %rax	# dmx, dmx.416
	movl	-56(%rbp), %edx	# i, tmp1272
	movslq	%edx, %rdx	# tmp1272, D.14972
	salq	$3, %rdx	#, D.14972
	addq	%rdx, %rax	# D.14972, D.14973
	movq	(%rax), %rax	# *_637, D.14971
	movl	-52(%rbp), %edx	# k, tmp1273
	movslq	%edx, %rdx	# tmp1273, D.14972
	salq	$2, %rdx	#, D.14972
	subq	$4, %rdx	#, D.14974
	addq	%rdx, %rax	# D.14974, D.14971
	movl	(%rax), %edx	# *_642, D.14970
	movq	-88(%rbp), %rax	# hmm, tmp1274
	movq	312(%rax), %rax	# hmm_8(D)->tsc, D.14973
	addq	$48, %rax	#, D.14973
	movq	(%rax), %rax	# *_645, D.14971
	movl	-52(%rbp), %ecx	# k, tmp1275
	movslq	%ecx, %rcx	# tmp1275, D.14972
	salq	$2, %rcx	#, D.14972
	subq	$4, %rcx	#, D.14974
	addq	%rcx, %rax	# D.14974, D.14971
	movl	(%rax), %eax	# *_650, D.14970
	addl	%edx, %eax	# D.14970, tmp1276
	movl	%eax, -44(%rbp)	# tmp1276, sc
	movq	-16(%rbp), %rax	# dmx, dmx.417
	movl	-56(%rbp), %edx	# i, tmp1277
	movslq	%edx, %rdx	# tmp1277, D.14972
	salq	$3, %rdx	#, D.14972
	addq	%rdx, %rax	# D.14972, D.14973
	movq	(%rax), %rax	# *_656, D.14971
	movl	-52(%rbp), %edx	# k, tmp1278
	movslq	%edx, %rdx	# tmp1278, D.14972
	salq	$2, %rdx	#, D.14972
	addq	%rdx, %rax	# D.14972, D.14971
	movl	(%rax), %eax	# *_660, D.14970
	cmpl	%eax, -44(%rbp)	# D.14970, sc
	jle	.L237	#,
	.loc 1 1570 0
	movq	-16(%rbp), %rax	# dmx, dmx.418
	movl	-56(%rbp), %edx	# i, tmp1279
	movslq	%edx, %rdx	# tmp1279, D.14972
	salq	$3, %rdx	#, D.14972
	addq	%rdx, %rax	# D.14972, D.14973
	movq	(%rax), %rax	# *_665, D.14971
	movl	-52(%rbp), %edx	# k, tmp1280
	movslq	%edx, %rdx	# tmp1280, D.14972
	salq	$2, %rdx	#, D.14972
	addq	%rax, %rdx	# D.14971, D.14971
	movl	-44(%rbp), %eax	# sc, tmp1281
	movl	%eax, (%rdx)	# tmp1281, *_669
.L237:
	.loc 1 1573 0
	cmpl	$2, -56(%rbp)	#, i
	jle	.L238	#,
	.loc 1 1574 0
	movq	-24(%rbp), %rax	# imx, imx.419
	movl	-56(%rbp), %edx	# i, tmp1282
	movslq	%edx, %rdx	# tmp1282, D.14972
	salq	$3, %rdx	#, D.14972
	addq	%rdx, %rax	# D.14972, D.14973
	movq	(%rax), %rax	# *_673, D.14971
	movl	-52(%rbp), %edx	# k, tmp1283
	movslq	%edx, %rdx	# tmp1283, D.14972
	salq	$2, %rdx	#, D.14972
	addq	%rax, %rdx	# D.14971, D.14971
	movq	-32(%rbp), %rax	# mmx, mmx.420
	movl	-56(%rbp), %ecx	# i, tmp1284
	movslq	%ecx, %rcx	# tmp1284, D.14972
	salq	$3, %rcx	#, D.14972
	subq	$24, %rcx	#, D.14974
	addq	%rcx, %rax	# D.14974, D.14973
	movq	(%rax), %rax	# *_682, D.14971
	movl	-52(%rbp), %ecx	# k, tmp1285
	movslq	%ecx, %rcx	# tmp1285, D.14972
	salq	$2, %rcx	#, D.14972
	addq	%rcx, %rax	# D.14972, D.14971
	movl	(%rax), %ecx	# *_686, D.14970
	movq	-88(%rbp), %rax	# hmm, tmp1286
	movq	312(%rax), %rax	# hmm_8(D)->tsc, D.14973
	addq	$8, %rax	#, D.14973
	movq	(%rax), %rax	# *_689, D.14971
	movl	-52(%rbp), %esi	# k, tmp1287
	movslq	%esi, %rsi	# tmp1287, D.14972
	salq	$2, %rsi	#, D.14972
	addq	%rsi, %rax	# D.14972, D.14971
	movl	(%rax), %eax	# *_693, D.14970
	addl	%ecx, %eax	# D.14970, D.14970
	movl	%eax, (%rdx)	# D.14970, *_677
	.loc 1 1575 0
	movq	-24(%rbp), %rax	# imx, imx.421
	movl	-56(%rbp), %edx	# i, tmp1288
	movslq	%edx, %rdx	# tmp1288, D.14972
	salq	$3, %rdx	#, D.14972
	subq	$24, %rdx	#, D.14974
	addq	%rdx, %rax	# D.14974, D.14973
	movq	(%rax), %rax	# *_700, D.14971
	movl	-52(%rbp), %edx	# k, tmp1289
	movslq	%edx, %rdx	# tmp1289, D.14972
	salq	$2, %rdx	#, D.14972
	addq	%rdx, %rax	# D.14972, D.14971
	movl	(%rax), %edx	# *_704, D.14970
	movq	-88(%rbp), %rax	# hmm, tmp1290
	movq	312(%rax), %rax	# hmm_8(D)->tsc, D.14973
	addq	$32, %rax	#, D.14973
	movq	(%rax), %rax	# *_707, D.14971
	movl	-52(%rbp), %ecx	# k, tmp1291
	movslq	%ecx, %rcx	# tmp1291, D.14972
	salq	$2, %rcx	#, D.14972
	addq	%rcx, %rax	# D.14972, D.14971
	movl	(%rax), %eax	# *_711, D.14970
	addl	%edx, %eax	# D.14970, tmp1292
	movl	%eax, -44(%rbp)	# tmp1292, sc
	movq	-24(%rbp), %rax	# imx, imx.422
	movl	-56(%rbp), %edx	# i, tmp1293
	movslq	%edx, %rdx	# tmp1293, D.14972
	salq	$3, %rdx	#, D.14972
	addq	%rdx, %rax	# D.14972, D.14973
	movq	(%rax), %rax	# *_717, D.14971
	movl	-52(%rbp), %edx	# k, tmp1294
	movslq	%edx, %rdx	# tmp1294, D.14972
	salq	$2, %rdx	#, D.14972
	addq	%rdx, %rax	# D.14972, D.14971
	movl	(%rax), %eax	# *_721, D.14970
	cmpl	%eax, -44(%rbp)	# D.14970, sc
	jle	.L239	#,
	.loc 1 1576 0
	movq	-24(%rbp), %rax	# imx, imx.423
	movl	-56(%rbp), %edx	# i, tmp1295
	movslq	%edx, %rdx	# tmp1295, D.14972
	salq	$3, %rdx	#, D.14972
	addq	%rdx, %rax	# D.14972, D.14973
	movq	(%rax), %rax	# *_726, D.14971
	movl	-52(%rbp), %edx	# k, tmp1296
	movslq	%edx, %rdx	# tmp1296, D.14972
	salq	$2, %rdx	#, D.14972
	addq	%rax, %rdx	# D.14971, D.14971
	movl	-44(%rbp), %eax	# sc, tmp1297
	movl	%eax, (%rdx)	# tmp1297, *_730
.L239:
	.loc 1 1577 0
	movq	-24(%rbp), %rax	# imx, imx.424
	movl	-56(%rbp), %edx	# i, tmp1298
	movslq	%edx, %rdx	# tmp1298, D.14972
	salq	$3, %rdx	#, D.14972
	addq	%rdx, %rax	# D.14972, D.14973
	movq	(%rax), %rax	# *_734, D.14971
	movl	-52(%rbp), %edx	# k, tmp1299
	movslq	%edx, %rdx	# tmp1299, D.14972
	salq	$2, %rdx	#, D.14972
	addq	%rax, %rdx	# D.14971, D.14971
	movq	-24(%rbp), %rax	# imx, imx.425
	movl	-56(%rbp), %ecx	# i, tmp1300
	movslq	%ecx, %rcx	# tmp1300, D.14972
	salq	$3, %rcx	#, D.14972
	addq	%rcx, %rax	# D.14972, D.14973
	movq	(%rax), %rax	# *_742, D.14971
	movl	-52(%rbp), %ecx	# k, tmp1301
	movslq	%ecx, %rcx	# tmp1301, D.14972
	salq	$2, %rcx	#, D.14972
	addq	%rcx, %rax	# D.14972, D.14971
	movl	(%rax), %ecx	# *_746, D.14970
	movq	-88(%rbp), %rax	# hmm, tmp1302
	movq	432(%rax), %rax	# hmm_8(D)->dnai, D.14973
	movl	-48(%rbp), %esi	# codon, tmp1303
	movslq	%esi, %rsi	# tmp1303, D.14972
	salq	$3, %rsi	#, D.14972
	addq	%rsi, %rax	# D.14972, D.14973
	movq	(%rax), %rax	# *_751, D.14971
	movl	-52(%rbp), %esi	# k, tmp1304
	movslq	%esi, %rsi	# tmp1304, D.14972
	salq	$2, %rsi	#, D.14972
	addq	%rsi, %rax	# D.14972, D.14971
	movl	(%rax), %eax	# *_755, D.14970
	addl	%ecx, %eax	# D.14970, D.14970
	movl	%eax, (%rdx)	# D.14970, *_738
.L238:
	.loc 1 1581 0
	movq	-32(%rbp), %rax	# mmx, mmx.426
	movl	-56(%rbp), %edx	# i, tmp1305
	movslq	%edx, %rdx	# tmp1305, D.14972
	salq	$3, %rdx	#, D.14972
	subq	$16, %rdx	#, D.14974
	addq	%rdx, %rax	# D.14974, D.14973
	movq	(%rax), %rax	# *_762, D.14971
	movl	-52(%rbp), %edx	# k, tmp1306
	movslq	%edx, %rdx	# tmp1306, D.14972
	salq	$2, %rdx	#, D.14972
	addq	%rdx, %rax	# D.14972, D.14971
	movl	(%rax), %edx	# *_766, D.14970
	movq	-88(%rbp), %rax	# hmm, tmp1307
	movq	312(%rax), %rax	# hmm_8(D)->tsc, D.14973
	addq	$8, %rax	#, D.14973
	movq	(%rax), %rax	# *_769, D.14971
	movl	-52(%rbp), %ecx	# k, tmp1308
	movslq	%ecx, %rcx	# tmp1308, D.14972
	salq	$2, %rcx	#, D.14972
	addq	%rcx, %rax	# D.14972, D.14971
	movl	(%rax), %eax	# *_773, D.14970
	addl	%eax, %edx	# D.14970, D.14970
	movq	-88(%rbp), %rax	# hmm, tmp1309
	movl	440(%rax), %eax	# hmm_8(D)->dna2, D.14970
	addl	%edx, %eax	# D.14970, tmp1310
	movl	%eax, -44(%rbp)	# tmp1310, sc
	movq	-24(%rbp), %rax	# imx, imx.427
	movl	-56(%rbp), %edx	# i, tmp1311
	movslq	%edx, %rdx	# tmp1311, D.14972
	salq	$3, %rdx	#, D.14972
	addq	%rdx, %rax	# D.14972, D.14973
	movq	(%rax), %rax	# *_781, D.14971
	movl	-52(%rbp), %edx	# k, tmp1312
	movslq	%edx, %rdx	# tmp1312, D.14972
	salq	$2, %rdx	#, D.14972
	addq	%rdx, %rax	# D.14972, D.14971
	movl	(%rax), %eax	# *_785, D.14970
	cmpl	%eax, -44(%rbp)	# D.14970, sc
	jle	.L240	#,
	.loc 1 1582 0
	movq	-24(%rbp), %rax	# imx, imx.428
	movl	-56(%rbp), %edx	# i, tmp1313
	movslq	%edx, %rdx	# tmp1313, D.14972
	salq	$3, %rdx	#, D.14972
	addq	%rdx, %rax	# D.14972, D.14973
	movq	(%rax), %rax	# *_790, D.14971
	movl	-52(%rbp), %edx	# k, tmp1314
	movslq	%edx, %rdx	# tmp1314, D.14972
	salq	$2, %rdx	#, D.14972
	addq	%rax, %rdx	# D.14971, D.14971
	movl	-44(%rbp), %eax	# sc, tmp1315
	movl	%eax, (%rdx)	# tmp1315, *_794
.L240:
	.loc 1 1583 0
	movq	-24(%rbp), %rax	# imx, imx.429
	movl	-56(%rbp), %edx	# i, tmp1316
	movslq	%edx, %rdx	# tmp1316, D.14972
	salq	$3, %rdx	#, D.14972
	subq	$16, %rdx	#, D.14974
	addq	%rdx, %rax	# D.14974, D.14973
	movq	(%rax), %rax	# *_799, D.14971
	movl	-52(%rbp), %edx	# k, tmp1317
	movslq	%edx, %rdx	# tmp1317, D.14972
	salq	$2, %rdx	#, D.14972
	addq	%rdx, %rax	# D.14972, D.14971
	movl	(%rax), %edx	# *_803, D.14970
	movq	-88(%rbp), %rax	# hmm, tmp1318
	movq	312(%rax), %rax	# hmm_8(D)->tsc, D.14973
	addq	$32, %rax	#, D.14973
	movq	(%rax), %rax	# *_806, D.14971
	movl	-52(%rbp), %ecx	# k, tmp1319
	movslq	%ecx, %rcx	# tmp1319, D.14972
	salq	$2, %rcx	#, D.14972
	addq	%rcx, %rax	# D.14972, D.14971
	movl	(%rax), %eax	# *_810, D.14970
	addl	%eax, %edx	# D.14970, D.14970
	movq	-88(%rbp), %rax	# hmm, tmp1320
	movl	440(%rax), %eax	# hmm_8(D)->dna2, D.14970
	addl	%edx, %eax	# D.14970, tmp1321
	movl	%eax, -44(%rbp)	# tmp1321, sc
	movq	-24(%rbp), %rax	# imx, imx.430
	movl	-56(%rbp), %edx	# i, tmp1322
	movslq	%edx, %rdx	# tmp1322, D.14972
	salq	$3, %rdx	#, D.14972
	addq	%rdx, %rax	# D.14972, D.14973
	movq	(%rax), %rax	# *_818, D.14971
	movl	-52(%rbp), %edx	# k, tmp1323
	movslq	%edx, %rdx	# tmp1323, D.14972
	salq	$2, %rdx	#, D.14972
	addq	%rdx, %rax	# D.14972, D.14971
	movl	(%rax), %eax	# *_822, D.14970
	cmpl	%eax, -44(%rbp)	# D.14970, sc
	jle	.L241	#,
	.loc 1 1584 0
	movq	-24(%rbp), %rax	# imx, imx.431
	movl	-56(%rbp), %edx	# i, tmp1324
	movslq	%edx, %rdx	# tmp1324, D.14972
	salq	$3, %rdx	#, D.14972
	addq	%rdx, %rax	# D.14972, D.14973
	movq	(%rax), %rax	# *_827, D.14971
	movl	-52(%rbp), %edx	# k, tmp1325
	movslq	%edx, %rdx	# tmp1325, D.14972
	salq	$2, %rdx	#, D.14972
	addq	%rax, %rdx	# D.14971, D.14971
	movl	-44(%rbp), %eax	# sc, tmp1326
	movl	%eax, (%rdx)	# tmp1326, *_831
.L241:
	.loc 1 1587 0
	cmpl	$4, -56(%rbp)	#, i
	jle	.L242	#,
	.loc 1 1588 0
	movq	-32(%rbp), %rax	# mmx, mmx.432
	movl	-56(%rbp), %edx	# i, tmp1327
	movslq	%edx, %rdx	# tmp1327, D.14972
	salq	$3, %rdx	#, D.14972
	subq	$32, %rdx	#, D.14974
	addq	%rdx, %rax	# D.14974, D.14973
	movq	(%rax), %rax	# *_836, D.14971
	movl	-52(%rbp), %edx	# k, tmp1328
	movslq	%edx, %rdx	# tmp1328, D.14972
	salq	$2, %rdx	#, D.14972
	addq	%rdx, %rax	# D.14972, D.14971
	movl	(%rax), %edx	# *_840, D.14970
	movq	-88(%rbp), %rax	# hmm, tmp1329
	movq	312(%rax), %rax	# hmm_8(D)->tsc, D.14973
	addq	$8, %rax	#, D.14973
	movq	(%rax), %rax	# *_843, D.14971
	movl	-52(%rbp), %ecx	# k, tmp1330
	movslq	%ecx, %rcx	# tmp1330, D.14972
	salq	$2, %rcx	#, D.14972
	addq	%rcx, %rax	# D.14972, D.14971
	movl	(%rax), %eax	# *_847, D.14970
	addl	%eax, %edx	# D.14970, D.14970
	movq	-88(%rbp), %rax	# hmm, tmp1331
	movl	444(%rax), %eax	# hmm_8(D)->dna4, D.14970
	addl	%edx, %eax	# D.14970, tmp1332
	movl	%eax, -44(%rbp)	# tmp1332, sc
	movq	-24(%rbp), %rax	# imx, imx.433
	movl	-56(%rbp), %edx	# i, tmp1333
	movslq	%edx, %rdx	# tmp1333, D.14972
	salq	$3, %rdx	#, D.14972
	addq	%rdx, %rax	# D.14972, D.14973
	movq	(%rax), %rax	# *_855, D.14971
	movl	-52(%rbp), %edx	# k, tmp1334
	movslq	%edx, %rdx	# tmp1334, D.14972
	salq	$2, %rdx	#, D.14972
	addq	%rdx, %rax	# D.14972, D.14971
	movl	(%rax), %eax	# *_859, D.14970
	cmpl	%eax, -44(%rbp)	# D.14970, sc
	jle	.L243	#,
	.loc 1 1589 0
	movq	-24(%rbp), %rax	# imx, imx.434
	movl	-56(%rbp), %edx	# i, tmp1335
	movslq	%edx, %rdx	# tmp1335, D.14972
	salq	$3, %rdx	#, D.14972
	addq	%rdx, %rax	# D.14972, D.14973
	movq	(%rax), %rax	# *_864, D.14971
	movl	-52(%rbp), %edx	# k, tmp1336
	movslq	%edx, %rdx	# tmp1336, D.14972
	salq	$2, %rdx	#, D.14972
	addq	%rax, %rdx	# D.14971, D.14971
	movl	-44(%rbp), %eax	# sc, tmp1337
	movl	%eax, (%rdx)	# tmp1337, *_868
.L243:
	.loc 1 1590 0
	movq	-24(%rbp), %rax	# imx, imx.435
	movl	-56(%rbp), %edx	# i, tmp1338
	movslq	%edx, %rdx	# tmp1338, D.14972
	salq	$3, %rdx	#, D.14972
	subq	$32, %rdx	#, D.14974
	addq	%rdx, %rax	# D.14974, D.14973
	movq	(%rax), %rax	# *_873, D.14971
	movl	-52(%rbp), %edx	# k, tmp1339
	movslq	%edx, %rdx	# tmp1339, D.14972
	salq	$2, %rdx	#, D.14972
	addq	%rdx, %rax	# D.14972, D.14971
	movl	(%rax), %edx	# *_877, D.14970
	movq	-88(%rbp), %rax	# hmm, tmp1340
	movq	312(%rax), %rax	# hmm_8(D)->tsc, D.14973
	addq	$32, %rax	#, D.14973
	movq	(%rax), %rax	# *_880, D.14971
	movl	-52(%rbp), %ecx	# k, tmp1341
	movslq	%ecx, %rcx	# tmp1341, D.14972
	salq	$2, %rcx	#, D.14972
	addq	%rcx, %rax	# D.14972, D.14971
	movl	(%rax), %eax	# *_884, D.14970
	addl	%eax, %edx	# D.14970, D.14970
	movq	-88(%rbp), %rax	# hmm, tmp1342
	movl	444(%rax), %eax	# hmm_8(D)->dna4, D.14970
	addl	%edx, %eax	# D.14970, tmp1343
	movl	%eax, -44(%rbp)	# tmp1343, sc
	movq	-24(%rbp), %rax	# imx, imx.436
	movl	-56(%rbp), %edx	# i, tmp1344
	movslq	%edx, %rdx	# tmp1344, D.14972
	salq	$3, %rdx	#, D.14972
	addq	%rdx, %rax	# D.14972, D.14973
	movq	(%rax), %rax	# *_892, D.14971
	movl	-52(%rbp), %edx	# k, tmp1345
	movslq	%edx, %rdx	# tmp1345, D.14972
	salq	$2, %rdx	#, D.14972
	addq	%rdx, %rax	# D.14972, D.14971
	movl	(%rax), %eax	# *_896, D.14970
	cmpl	%eax, -44(%rbp)	# D.14970, sc
	jle	.L242	#,
	.loc 1 1591 0
	movq	-24(%rbp), %rax	# imx, imx.437
	movl	-56(%rbp), %edx	# i, tmp1346
	movslq	%edx, %rdx	# tmp1346, D.14972
	salq	$3, %rdx	#, D.14972
	addq	%rdx, %rax	# D.14972, D.14973
	movq	(%rax), %rax	# *_901, D.14971
	movl	-52(%rbp), %edx	# k, tmp1347
	movslq	%edx, %rdx	# tmp1347, D.14972
	salq	$2, %rdx	#, D.14972
	addq	%rax, %rdx	# D.14971, D.14971
	movl	-44(%rbp), %eax	# sc, tmp1348
	movl	%eax, (%rdx)	# tmp1348, *_905
.L242:
	.loc 1 1534 0
	addl	$1, -52(%rbp)	#, k
.L224:
	.loc 1 1534 0 is_stmt 0 discriminator 1
	movq	-88(%rbp), %rax	# hmm, tmp1349
	movl	136(%rax), %eax	# hmm_8(D)->M, D.14970
	cmpl	-52(%rbp), %eax	# k, D.14970
	jge	.L244	#,
	.loc 1 1598 0 is_stmt 1
	movq	-40(%rbp), %rax	# xmx, xmx.438
	movl	-56(%rbp), %edx	# i, tmp1350
	movslq	%edx, %rdx	# tmp1350, D.14972
	salq	$3, %rdx	#, D.14972
	addq	%rdx, %rax	# D.14972, D.14973
	movq	(%rax), %rax	# *_910, D.14971
	leaq	16(%rax), %rdx	#, D.14971
	movq	-40(%rbp), %rax	# xmx, xmx.439
	movl	-56(%rbp), %ecx	# i, tmp1351
	movslq	%ecx, %rcx	# tmp1351, D.14972
	salq	$3, %rcx	#, D.14972
	subq	$8, %rcx	#, D.14974
	addq	%rcx, %rax	# D.14974, D.14973
	movq	(%rax), %rax	# *_917, D.14971
	addq	$16, %rax	#, D.14971
	movl	(%rax), %ecx	# *_919, D.14970
	movq	-88(%rbp), %rax	# hmm, tmp1352
	movl	340(%rax), %eax	# hmm_8(D)->xsc, D.14970
	addl	%ecx, %eax	# D.14970, D.14970
	movl	%eax, (%rdx)	# D.14970, *_912
	.loc 1 1600 0
	movq	-40(%rbp), %rax	# xmx, xmx.440
	movl	-56(%rbp), %edx	# i, tmp1353
	movslq	%edx, %rdx	# tmp1353, D.14972
	salq	$3, %rdx	#, D.14972
	addq	%rdx, %rax	# D.14972, D.14973
	movq	(%rax), %rax	# *_926, D.14971
	leaq	4(%rax), %rdx	#, D.14971
	movq	-16(%rbp), %rax	# dmx, dmx.441
	movl	-56(%rbp), %ecx	# i, tmp1354
	movslq	%ecx, %rcx	# tmp1354, D.14972
	salq	$3, %rcx	#, D.14972
	addq	%rcx, %rax	# D.14972, D.14973
	movq	(%rax), %rcx	# *_932, D.14971
	movq	-88(%rbp), %rax	# hmm, tmp1355
	movl	136(%rax), %eax	# hmm_8(D)->M, D.14970
	cltq
	salq	$2, %rax	#, D.14972
	addq	%rcx, %rax	# D.14971, D.14971
	movl	(%rax), %eax	# *_937, D.14970
	movl	%eax, (%rdx)	# D.14970, *_928
	.loc 1 1601 0
	movl	$1, -52(%rbp)	#, k
	jmp	.L245	#
.L247:
	.loc 1 1602 0
	movq	-32(%rbp), %rax	# mmx, mmx.442
	movl	-56(%rbp), %edx	# i, tmp1356
	movslq	%edx, %rdx	# tmp1356, D.14972
