	.file	"dayhoff.c"
# GNU C (Ubuntu/Linaro 4.8.1-10ubuntu9) version 4.8.1 (x86_64-linux-gnu)
#	compiled by GNU C version 4.8.1, GMP version 5.1.2, MPFR version 3.1.1-p2, MPC version 1.0.1
# GGC heuristics: --param ggc-min-expand=100 --param ggc-min-heapsize=131072
# options passed:  -imultiarch x86_64-linux-gnu -D SPEC_CPU -D NDEBUG
# -D SPEC_CPU_LP64 dayhoff.c -mtune=generic -march=x86-64 -g -fverbose-asm
# -fno-strict-aliasing -fstack-protector -Wformat -Wformat-security
# options enabled:  -faggressive-loop-optimizations
# -fasynchronous-unwind-tables -fauto-inc-dec -fbranch-count-reg -fcommon
# -fdelete-null-pointer-checks -fdwarf2-cfi-asm -fearly-inlining
# -feliminate-unused-debug-types -ffunction-cse -fgcse-lm -fgnu-runtime
# -fident -finline-atomics -fira-hoist-pressure -fira-share-save-slots
# -fira-share-spill-slots -fivopts -fkeep-static-consts
# -fleading-underscore -fmath-errno -fmerge-debug-strings
# -fmove-loop-invariants -fpeephole -fprefetch-loop-arrays
# -freg-struct-return -fsched-critical-path-heuristic
# -fsched-dep-count-heuristic -fsched-group-heuristic -fsched-interblock
# -fsched-last-insn-heuristic -fsched-rank-heuristic -fsched-spec
# -fsched-spec-insn-heuristic -fsched-stalled-insns-dep -fshow-column
# -fsigned-zeros -fsplit-ivs-in-unroller -fstack-protector
# -fstrict-volatile-bitfields -fsync-libcalls -ftrapping-math
# -ftree-coalesce-vars -ftree-cselim -ftree-forwprop -ftree-loop-if-convert
# -ftree-loop-im -ftree-loop-ivcanon -ftree-loop-optimize
# -ftree-parallelize-loops= -ftree-phiprop -ftree-pta -ftree-reassoc
# -ftree-scev-cprop -ftree-slp-vectorize -ftree-vect-loop-version
# -funit-at-a-time -funwind-tables -fverbose-asm -fzero-initialized-in-bss
# -m128bit-long-double -m64 -m80387 -maccumulate-outgoing-args
# -malign-stringops -mfancy-math-387 -mfp-ret-in-387 -mfxsr -mglibc
# -mieee-fp -mlong-double-80 -mmmx -mno-sse4 -mpush-args -mred-zone -msse
# -msse2 -mtls-direct-seg-refs

	.text
.Ltext0:
	.section	.rodata
	.align 8
.LC1:
	.string	"BLOSUM Clustered Scoring Matrix"
.LC3:
	.string	"substitution matrix,"
.LC4:
	.string	" \t\n"
.LC5:
	.string	"calloc failed"
	.align 8
.LC6:
	.string	"Failed to parse PAM matrix scale factor. Defaulting to ln(2)/2!"
	.text
	.globl	ParsePAMFile
	.type	ParsePAMFile, @function
ParsePAMFile:
.LFB2:
	.file 1 "dayhoff.c"
	.loc 1 65 0
	.cfi_startproc
	pushq	%rbp	#
	.cfi_def_cfa_offset 16
	.cfi_offset 6, -16
	movq	%rsp, %rbp	#,
	.cfi_def_cfa_register 6
	pushq	%rbx	#
	subq	$728, %rsp	#,
	.cfi_offset 3, -24
	movq	%rdi, -712(%rbp)	# fp, fp
	movq	%rsi, -720(%rbp)	# ret_pam, ret_pam
	movq	%rdx, -728(%rbp)	# ret_scale, ret_scale
	.loc 1 65 0
	movq	%fs:40, %rax	#, tmp163
	movq	%rax, -24(%rbp)	# tmp163, D.5803
	xorl	%eax, %eax	# tmp163
	.loc 1 74 0
	movl	$0, -680(%rbp)	#, gotscale
	.loc 1 76 0
	movl	.LC0(%rip), %eax	#, tmp109
	movl	%eax, -684(%rbp)	# tmp109, scale
	.loc 1 77 0
	cmpq	$0, -712(%rbp)	#, fp
	jne	.L2	#,
	.loc 1 77 0 is_stmt 0 discriminator 1
	movl	$2, squid_errno(%rip)	#, squid_errno
	movl	$0, %eax	#, D.5792
	jmp	.L29	#
.L2:
	.loc 1 84 0 is_stmt 1
	movq	-712(%rbp), %rdx	# fp, tmp110
	leaq	-544(%rbp), %rax	#, tmp111
	movl	$512, %esi	#,
	movq	%rax, %rdi	# tmp111,
	call	fgets	#
	testq	%rax, %rax	# D.5793
	jne	.L4	#,
	.loc 1 85 0
	movl	$2, squid_errno(%rip)	#, squid_errno
	movl	$0, %eax	#, D.5792
	jmp	.L29	#
.L4:
	.loc 1 96 0
	leaq	-544(%rbp), %rax	#, tmp112
	movl	$.LC1, %esi	#,
	movq	%rax, %rdi	# tmp112,
	call	strstr	#
	testq	%rax, %rax	# D.5793
	je	.L5	#,
	.loc 1 96 0 is_stmt 0 discriminator 1
	leaq	-544(%rbp), %rax	#, tmp113
	movl	$47, %esi	#,
	movq	%rax, %rdi	# tmp113,
	call	strchr	#
	movq	%rax, -672(%rbp)	# tmp114, sptr
	cmpq	$0, -672(%rbp)	#, sptr
	je	.L5	#,
	.loc 1 99 0 is_stmt 1
	addq	$1, -672(%rbp)	#, sptr
	.loc 1 100 0
	call	__ctype_b_loc	#
	movq	(%rax), %rdx	# *_22, D.5795
	movq	-672(%rbp), %rax	# sptr, tmp115
	movzbl	(%rax), %eax	# *sptr_21, D.5796
	movsbq	%al, %rax	# D.5796, D.5797
	addq	%rax, %rax	# D.5797
	addq	%rdx, %rax	# D.5795, D.5795
	movzwl	(%rax), %eax	# *_27, D.5798
	movzwl	%ax, %eax	# D.5798, D.5792
	andl	$2048, %eax	#, D.5792
	testl	%eax, %eax	# D.5792
	jne	.L6	#,
	.loc 1 100 0 is_stmt 0 discriminator 1
	movl	$5, squid_errno(%rip)	#, squid_errno
	movl	$0, %eax	#, D.5792
	jmp	.L29	#
.L6:
	.loc 1 101 0 is_stmt 1
	movq	-672(%rbp), %rax	# sptr, tmp116
	movq	%rax, %rdi	# tmp116,
	call	atof	#
	movsd	.LC2(%rip), %xmm1	#, tmp117
	divsd	%xmm0, %xmm1	# D.5799, D.5799
	movapd	%xmm1, %xmm0	# D.5799, D.5799
	unpcklpd	%xmm0, %xmm0	# D.5799
	cvtpd2ps	%xmm0, %xmm2	# D.5799, tmp166
	movss	%xmm2, -684(%rbp)	# tmp166, scale
	.loc 1 102 0
	movl	$1, -680(%rbp)	#, gotscale
	jmp	.L7	#
.L5:
	.loc 1 104 0
	leaq	-544(%rbp), %rax	#, tmp118
	movl	$.LC3, %esi	#,
	movq	%rax, %rdi	# tmp118,
	call	strstr	#
	testq	%rax, %rax	# D.5793
	je	.L7	#,
	.loc 1 106 0
	jmp	.L8	#
.L9:
	.loc 1 107 0
	addq	$2, -672(%rbp)	#, sptr
	.loc 1 108 0
	movq	-672(%rbp), %rax	# sptr, tmp119
	movq	%rax, %rdi	# tmp119,
	call	IsReal	#
	testl	%eax, %eax	# D.5792
	je	.L8	#,
	.loc 1 109 0
	movq	-672(%rbp), %rax	# sptr, tmp120
	movq	%rax, %rdi	# tmp120,
	call	atof	#
	unpcklpd	%xmm0, %xmm0	# D.5799
	cvtpd2ps	%xmm0, %xmm3	# D.5799, tmp167
	movss	%xmm3, -684(%rbp)	# tmp167, scale
	.loc 1 110 0
	movl	$1, -680(%rbp)	#, gotscale
	.loc 1 111 0
	jmp	.L7	#
.L8:
	.loc 1 106 0 discriminator 1
	leaq	-544(%rbp), %rax	#, tmp121
	movl	$61, %esi	#,
	movq	%rax, %rdi	# tmp121,
	call	strrchr	#
	movq	%rax, -672(%rbp)	# tmp122, sptr
	cmpq	$0, -672(%rbp)	#, sptr
	jne	.L9	#,
.L7:
	.loc 1 115 0
	leaq	-544(%rbp), %rax	#, tmp123
	movl	$.LC4, %esi	#,
	movq	%rax, %rdi	# tmp123,
	call	strtok	#
	movq	%rax, -672(%rbp)	# tmp124, sptr
	cmpq	$0, -672(%rbp)	#, sptr
	je	.L2	#,
	.loc 1 115 0 is_stmt 0 discriminator 1
	movq	-672(%rbp), %rax	# sptr, tmp125
	movzbl	(%rax), %eax	# *sptr_43, D.5796
	cmpb	$35, %al	#, D.5796
	je	.L2	#,
	.loc 1 117 0 is_stmt 1
	movl	$0, -696(%rbp)	#, idx
.L12:
	.loc 1 119 0
	movq	-672(%rbp), %rax	# sptr, tmp126
	movzbl	(%rax), %eax	# *sptr_1, D.5796
	movsbl	%al, %eax	# D.5796, D.5792
	leal	-65(%rax), %edx	#, D.5792
	movl	-696(%rbp), %eax	# idx, tmp128
	cltq
	movl	%edx, -656(%rbp,%rax,4)	# D.5792, order
	.loc 1 120 0
	movl	-696(%rbp), %eax	# idx, tmp130
	cltq
	movl	-656(%rbp,%rax,4), %eax	# order, D.5792
	testl	%eax, %eax	# D.5792
	js	.L10	#,
	.loc 1 120 0 is_stmt 0 discriminator 2
	movl	-696(%rbp), %eax	# idx, tmp132
	cltq
	movl	-656(%rbp,%rax,4), %eax	# order, D.5792
	cmpl	$25, %eax	#, D.5792
	jle	.L11	#,
.L10:
	.loc 1 120 0 discriminator 1
	movl	-696(%rbp), %eax	# idx, tmp134
	cltq
	movl	$26, -656(%rbp,%rax,4)	#, order
.L11:
	.loc 1 121 0 is_stmt 1
	addl	$1, -696(%rbp)	#, idx
	.loc 1 122 0
	movl	$.LC4, %esi	#,
	movl	$0, %edi	#,
	call	strtok	#
	movq	%rax, -672(%rbp)	# tmp135, sptr
	cmpq	$0, -672(%rbp)	#, sptr
	jne	.L12	#,
	.loc 1 123 0
	movl	-696(%rbp), %eax	# idx, tmp136
	movl	%eax, -676(%rbp)	# tmp136, nsymbols
	.loc 1 130 0
	movl	$8, %esi	#,
	movl	$27, %edi	#,
	call	calloc	#
	movq	%rax, -664(%rbp)	# tmp137, pam
	cmpq	$0, -664(%rbp)	#, pam
	jne	.L13	#,
	.loc 1 131 0
	movl	$.LC5, %edi	#,
	movl	$0, %eax	#,
	call	Die	#
.L13:
	.loc 1 132 0
	movl	$0, -696(%rbp)	#, idx
	jmp	.L14	#
.L16:
	.loc 1 133 0
	movl	-696(%rbp), %eax	# idx, tmp138
	cltq
	leaq	0(,%rax,8), %rdx	#, D.5797
	movq	-664(%rbp), %rax	# pam, tmp139
	leaq	(%rdx,%rax), %rbx	#, D.5800
	movl	$4, %esi	#,
	movl	$27, %edi	#,
	call	calloc	#
	movq	%rax, (%rbx)	# D.5801, *_58
	movq	(%rbx), %rax	# *_58, D.5802
	testq	%rax, %rax	# D.5802
	jne	.L15	#,
	.loc 1 134 0
	movl	$.LC5, %edi	#,
	movl	$0, %eax	#,
	call	Die	#
.L15:
	.loc 1 132 0
	addl	$1, -696(%rbp)	#, idx
.L14:
	.loc 1 132 0 is_stmt 0 discriminator 1
	cmpl	$26, -696(%rbp)	#, idx
	jle	.L16	#,
	.loc 1 138 0 is_stmt 1
	movl	$0, -692(%rbp)	#, row
	jmp	.L17	#
.L26:
	.loc 1 140 0
	movq	-712(%rbp), %rdx	# fp, tmp141
	leaq	-544(%rbp), %rax	#, tmp142
	movl	$512, %esi	#,
	movq	%rax, %rdi	# tmp142,
	call	fgets	#
	testq	%rax, %rax	# D.5793
	jne	.L18	#,
	.loc 1 141 0
	movl	$2, squid_errno(%rip)	#, squid_errno
	movl	$0, %eax	#, D.5792
	jmp	.L29	#
.L18:
	.loc 1 143 0
	leaq	-544(%rbp), %rax	#, tmp143
	movl	$.LC4, %esi	#,
	movq	%rax, %rdi	# tmp143,
	call	strtok	#
	movq	%rax, -672(%rbp)	# tmp144, sptr
	cmpq	$0, -672(%rbp)	#, sptr
	jne	.L19	#,
	.loc 1 144 0
	movl	$2, squid_errno(%rip)	#, squid_errno
	movl	$0, %eax	#, D.5792
	jmp	.L29	#
.L19:
	.loc 1 145 0
	movl	$0, -688(%rbp)	#, col
	jmp	.L20	#
.L25:
	.loc 1 147 0
	cmpq	$0, -672(%rbp)	#, sptr
	jne	.L21	#,
	.loc 1 147 0 is_stmt 0 discriminator 1
	movl	$2, squid_errno(%rip)	#, squid_errno
	movl	$0, %eax	#, D.5792
	jmp	.L29	#
.L21:
	.loc 1 151 0 is_stmt 1
	movq	-672(%rbp), %rax	# sptr, tmp145
	movzbl	(%rax), %eax	# *sptr_2, D.5796
	cmpb	$42, %al	#, D.5796
	je	.L22	#,
	.loc 1 151 0 is_stmt 0 discriminator 1
	call	__ctype_b_loc	#
	movq	(%rax), %rdx	# *_70, D.5795
	movq	-672(%rbp), %rax	# sptr, tmp146
	movzbl	(%rax), %eax	# *sptr_2, D.5796
	movsbq	%al, %rax	# D.5796, D.5797
	addq	%rax, %rax	# D.5797
	addq	%rdx, %rax	# D.5795, D.5795
	movzwl	(%rax), %eax	# *_75, D.5798
	movzwl	%ax, %eax	# D.5798, D.5792
	andl	$1024, %eax	#, D.5792
	testl	%eax, %eax	# D.5792
	je	.L23	#,
.L22:
	.loc 1 152 0 is_stmt 1
	subl	$1, -688(%rbp)	#, col
	jmp	.L24	#
.L23:
	.loc 1 154 0
	movl	-692(%rbp), %eax	# row, tmp148
	cltq
	movl	-656(%rbp,%rax,4), %eax	# order, D.5792
	cltq
	leaq	0(,%rax,8), %rdx	#, D.5797
	movq	-664(%rbp), %rax	# pam, tmp149
	addq	%rdx, %rax	# D.5797, D.5800
	movq	(%rax), %rdx	# *_82, D.5802
	movl	-688(%rbp), %eax	# col, tmp151
	cltq
	movl	-656(%rbp,%rax,4), %eax	# order, D.5792
	cltq
	salq	$2, %rax	#, D.5797
	leaq	(%rdx,%rax), %rbx	#, D.5802
	movq	-672(%rbp), %rax	# sptr, tmp152
	movq	%rax, %rdi	# tmp152,
	call	atoi	#
	movl	%eax, (%rbx)	# D.5792, *_87
.L24:
	.loc 1 156 0
	movl	$.LC4, %esi	#,
	movl	$0, %edi	#,
	call	strtok	#
	movq	%rax, -672(%rbp)	# tmp153, sptr
	.loc 1 145 0
	addl	$1, -688(%rbp)	#, col
.L20:
	.loc 1 145 0 is_stmt 0 discriminator 1
	movl	-688(%rbp), %eax	# col, tmp154
	cmpl	-676(%rbp), %eax	# nsymbols, tmp154
	jl	.L25	#,
	.loc 1 138 0 is_stmt 1
	addl	$1, -692(%rbp)	#, row
.L17:
	.loc 1 138 0 is_stmt 0 discriminator 1
	movl	-692(%rbp), %eax	# row, tmp155
	cmpl	-676(%rbp), %eax	# nsymbols, tmp155
	jl	.L26	#,
	.loc 1 162 0 is_stmt 1
	cmpq	$0, -728(%rbp)	#, ret_scale
	je	.L27	#,
	.loc 1 164 0
	cmpl	$0, -680(%rbp)	#, gotscale
	je	.L28	#,
	.loc 1 164 0 is_stmt 0 discriminator 1
	movq	-728(%rbp), %rdx	# ret_scale, tmp156
	movl	-684(%rbp), %eax	# scale, tmp157
	movl	%eax, (%rdx)	# tmp157, *ret_scale_93(D)
	jmp	.L27	#
.L28:
	.loc 1 167 0 is_stmt 1
	movl	$.LC6, %edi	#,
	movl	$0, %eax	#,
	call	Warn	#
	.loc 1 168 0
	movq	-728(%rbp), %rdx	# ret_scale, tmp158
	movl	.LC7(%rip), %eax	#, tmp159
	movl	%eax, (%rdx)	# tmp159, *ret_scale_93(D)
.L27:
	.loc 1 171 0
	movq	-720(%rbp), %rax	# ret_pam, tmp160
	movq	-664(%rbp), %rdx	# pam, tmp161
	movq	%rdx, (%rax)	# tmp161, *ret_pam_94(D)
	.loc 1 172 0
	movl	$1, %eax	#, D.5792
.L29:
	.loc 1 173 0
	movq	-24(%rbp), %rcx	# D.5803, tmp164
	xorq	%fs:40, %rcx	#, tmp164
	je	.L30	#,
	call	__stack_chk_fail	#
.L30:
	addq	$728, %rsp	#,
	popq	%rbx	#
	popq	%rbp	#
	.cfi_def_cfa 7, 8
	ret
	.cfi_endproc
.LFE2:
	.size	ParsePAMFile, .-ParsePAMFile
	.section	.rodata
	.align 4
.LC0:
	.long	0
	.align 8
.LC2:
	.long	4277811695
	.long	1072049730
	.align 4
.LC7:
	.long	1051816472
	.text
.Letext0:
	.file 2 "/usr/lib/gcc/x86_64-linux-gnu/4.8/include/stddef.h"
	.file 3 "/usr/include/x86_64-linux-gnu/bits/types.h"
	.file 4 "/usr/include/stdio.h"
	.file 5 "/usr/include/libio.h"
	.file 6 "/usr/include/ctype.h"
	.file 7 "squid.h"
	.section	.note.GNU-stack,"",@progbits
