	.file	"file.c"
# GNU C (Ubuntu/Linaro 4.8.1-10ubuntu9) version 4.8.1 (x86_64-linux-gnu)
#	compiled by GNU C version 4.8.1, GMP version 5.1.2, MPFR version 3.1.1-p2, MPC version 1.0.1
# GGC heuristics: --param ggc-min-expand=100 --param ggc-min-heapsize=131072
# options passed:  -imultiarch x86_64-linux-gnu -D SPEC_CPU -D NDEBUG
# -D SPEC_CPU_LP64 file.c -mtune=generic -march=x86-64 -g -fverbose-asm
# -fno-strict-aliasing -fstack-protector -Wformat -Wformat-security
# options enabled:  -faggressive-loop-optimizations
# -fasynchronous-unwind-tables -fauto-inc-dec -fbranch-count-reg -fcommon
# -fdelete-null-pointer-checks -fdwarf2-cfi-asm -fearly-inlining
# -feliminate-unused-debug-types -ffunction-cse -fgcse-lm -fgnu-runtime
# -fident -finline-atomics -fira-hoist-pressure -fira-share-save-slots
# -fira-share-spill-slots -fivopts -fkeep-static-consts
# -fleading-underscore -fmath-errno -fmerge-debug-strings
# -fmove-loop-invariants -fpeephole -fprefetch-loop-arrays
# -freg-struct-return -fsched-critical-path-heuristic
# -fsched-dep-count-heuristic -fsched-group-heuristic -fsched-interblock
# -fsched-last-insn-heuristic -fsched-rank-heuristic -fsched-spec
# -fsched-spec-insn-heuristic -fsched-stalled-insns-dep -fshow-column
# -fsigned-zeros -fsplit-ivs-in-unroller -fstack-protector
# -fstrict-volatile-bitfields -fsync-libcalls -ftrapping-math
# -ftree-coalesce-vars -ftree-cselim -ftree-forwprop -ftree-loop-if-convert
# -ftree-loop-im -ftree-loop-ivcanon -ftree-loop-optimize
# -ftree-parallelize-loops= -ftree-phiprop -ftree-pta -ftree-reassoc
# -ftree-scev-cprop -ftree-slp-vectorize -ftree-vect-loop-version
# -funit-at-a-time -funwind-tables -fverbose-asm -fzero-initialized-in-bss
# -m128bit-long-double -m64 -m80387 -maccumulate-outgoing-args
# -malign-stringops -mfancy-math-387 -mfp-ret-in-387 -mfxsr -mglibc
# -mieee-fp -mlong-double-80 -mmmx -mno-sse4 -mpush-args -mred-zone -msse
# -msse2 -mtls-direct-seg-refs

	.text
.Ltext0:
	.section	.rodata
.LC0:
	.string	"file.c"
	.text
	.globl	FileDirname
	.type	FileDirname, @function
FileDirname:
.LFB2:
	.file 1 "file.c"
	.loc 1 66 0
	.cfi_startproc
	pushq	%rbp	#
	.cfi_def_cfa_offset 16
	.cfi_offset 6, -16
	movq	%rsp, %rbp	#,
	.cfi_def_cfa_register 6
	subq	$48, %rsp	#,
	movq	%rdi, -40(%rbp)	# file, file
	.loc 1 71 0
	movq	-40(%rbp), %rax	# file, tmp71
	movl	$47, %esi	#,
	movq	%rax, %rdi	# tmp71,
	call	strrchr	#
	movq	%rax, -16(%rbp)	# tmp72, lastslash
	.loc 1 72 0
	cmpq	$0, -16(%rbp)	#, lastslash
	je	.L2	#,
	.loc 1 72 0 is_stmt 0 discriminator 1
	movq	-16(%rbp), %rdx	# lastslash, lastslash.1
	movq	-40(%rbp), %rax	# file, file.2
	subq	%rax, %rdx	# file.2, D.5707
	movq	%rdx, %rax	# D.5707, D.5707
	jmp	.L3	#
.L2:
	.loc 1 72 0 discriminator 2
	movl	$0, %eax	#, iftmp.0
.L3:
	.loc 1 72 0 discriminator 3
	movl	%eax, -20(%rbp)	# iftmp.0, len
	.loc 1 73 0 is_stmt 1 discriminator 3
	movl	-20(%rbp), %eax	# len, tmp73
	addl	$2, %eax	#, D.5708
	cltq
	movq	%rax, %rdx	# D.5709,
	movl	$73, %esi	#,
	movl	$.LC0, %edi	#,
	call	sre_malloc	#
	movq	%rax, -8(%rbp)	# tmp74, dirname
	.loc 1 74 0 discriminator 3
	cmpl	$0, -20(%rbp)	#, len
	jle	.L4	#,
	.loc 1 74 0 is_stmt 0 discriminator 1
	movl	-20(%rbp), %eax	# len, tmp75
	movslq	%eax, %rdx	# tmp75, D.5709
	movq	-40(%rbp), %rcx	# file, tmp76
	movq	-8(%rbp), %rax	# dirname, tmp77
	movq	%rcx, %rsi	# tmp76,
	movq	%rax, %rdi	# tmp77,
	call	strncpy	#
	jmp	.L5	#
.L4:
	.loc 1 75 0 is_stmt 1
	movq	-40(%rbp), %rax	# file, tmp78
	movzbl	(%rax), %eax	# *file_3(D), D.5710
	cmpb	$47, %al	#, D.5710
	je	.L6	#,
	.loc 1 75 0 is_stmt 0 discriminator 1
	movq	-8(%rbp), %rax	# dirname, tmp79
	movb	$46, (%rax)	#, *dirname_13
	movl	$1, -20(%rbp)	#, len
	jmp	.L5	#
.L6:
	.loc 1 76 0 is_stmt 1
	movq	-8(%rbp), %rax	# dirname, tmp80
	movb	$47, (%rax)	#, *dirname_13
	movl	$1, -20(%rbp)	#, len
.L5:
	.loc 1 77 0
	movl	-20(%rbp), %eax	# len, tmp81
	movslq	%eax, %rdx	# tmp81, D.5711
	movq	-8(%rbp), %rax	# dirname, tmp82
	addq	%rdx, %rax	# D.5711, D.5712
	movb	$0, (%rax)	#, *_19
	.loc 1 78 0
	movq	-8(%rbp), %rax	# dirname, D.5712
	.loc 1 79 0
	leave
	.cfi_def_cfa 7, 8
	ret
	.cfi_endproc
.LFE2:
	.size	FileDirname, .-FileDirname
	.globl	FileTail
	.type	FileTail, @function
FileTail:
.LFB3:
	.loc 1 99 0
	.cfi_startproc
	pushq	%rbp	#
	.cfi_def_cfa_offset 16
	.cfi_offset 6, -16
	movq	%rsp, %rbp	#,
	.cfi_def_cfa_register 6
	subq	$48, %rsp	#,
	movq	%rdi, -40(%rbp)	# file, file
	movl	%esi, -44(%rbp)	# noextension, noextension
	.loc 1 104 0
	movq	-40(%rbp), %rax	# file, tmp64
	movl	$47, %esi	#,
	movq	%rax, %rdi	# tmp64,
	call	strrchr	#
	movq	%rax, -24(%rbp)	# tmp65, lastslash
	.loc 1 105 0
	movq	-40(%rbp), %rax	# file, tmp66
	movq	%rax, %rdi	# tmp66,
	call	strlen	#
	addq	$1, %rax	#, D.5714
	movq	%rax, %rdx	# D.5714,
	movl	$105, %esi	#,
	movl	$.LC0, %edi	#,
	call	sre_malloc	#
	movq	%rax, -16(%rbp)	# tmp67, tail
	.loc 1 106 0
	cmpq	$0, -24(%rbp)	#, lastslash
	jne	.L9	#,
	.loc 1 106 0 is_stmt 0 discriminator 1
	movq	-40(%rbp), %rdx	# file, tmp68
	movq	-16(%rbp), %rax	# tail, tmp69
	movq	%rdx, %rsi	# tmp68,
	movq	%rax, %rdi	# tmp69,
	call	strcpy	#
	jmp	.L10	#
.L9:
	.loc 1 107 0 is_stmt 1
	movq	-24(%rbp), %rax	# lastslash, tmp70
	leaq	1(%rax), %rdx	#, D.5715
	movq	-16(%rbp), %rax	# tail, tmp71
	movq	%rdx, %rsi	# D.5715,
	movq	%rax, %rdi	# tmp71,
	call	strcpy	#
.L10:
	.loc 1 109 0
	cmpl	$0, -44(%rbp)	#, noextension
	je	.L11	#,
	.loc 1 110 0
	movq	-16(%rbp), %rax	# tail, tmp72
	movl	$46, %esi	#,
	movq	%rax, %rdi	# tmp72,
	call	strrchr	#
	movq	%rax, -8(%rbp)	# tmp73, lastdot
	cmpq	$0, -8(%rbp)	#, lastdot
	je	.L11	#,
	.loc 1 111 0
	movq	-8(%rbp), %rax	# lastdot, tmp74
	movb	$0, (%rax)	#, *lastdot_8
.L11:
	.loc 1 114 0
	movq	-16(%rbp), %rax	# tail, D.5715
	.loc 1 115 0
	leave
	.cfi_def_cfa 7, 8
	ret
	.cfi_endproc
.LFE3:
	.size	FileTail, .-FileTail
	.globl	FileSameDirectory
	.type	FileSameDirectory, @function
FileSameDirectory:
.LFB4:
	.loc 1 140 0
	.cfi_startproc
	pushq	%rbp	#
	.cfi_def_cfa_offset 16
	.cfi_offset 6, -16
	movq	%rsp, %rbp	#,
	.cfi_def_cfa_register 6
	subq	$48, %rsp	#,
	movq	%rdi, -40(%rbp)	# file1, file1
	movq	%rsi, -48(%rbp)	# file2, file2
	.loc 1 144 0
	movl	$1, -28(%rbp)	#, seems_ok
	.loc 1 146 0
	movq	-40(%rbp), %rax	# file1, tmp63
	movq	%rax, %rdi	# tmp63,
	call	FileDirname	#
	movq	%rax, -16(%rbp)	# tmp64, path
	.loc 1 147 0
	movq	-48(%rbp), %rax	# file2, tmp65
	movl	$0, %esi	#,
	movq	%rax, %rdi	# tmp65,
	call	FileTail	#
	movq	%rax, -8(%rbp)	# tmp66, tail
	.loc 1 148 0
	movq	-8(%rbp), %rdx	# tail, tmp67
	movq	-48(%rbp), %rax	# file2, tmp68
	movq	%rdx, %rsi	# tmp67,
	movq	%rax, %rdi	# tmp68,
	call	strcmp	#
	testl	%eax, %eax	# D.5716
	je	.L14	#,
	.loc 1 148 0 is_stmt 0 discriminator 1
	movl	$0, -28(%rbp)	#, seems_ok
.L14:
	.loc 1 149 0 is_stmt 1
	movq	-8(%rbp), %rdx	# tail, tmp69
	movq	-16(%rbp), %rax	# path, tmp70
	movq	%rdx, %rsi	# tmp69,
	movq	%rax, %rdi	# tmp70,
	call	FileConcat	#
	movq	%rax, -24(%rbp)	# tmp71, result
	.loc 1 150 0
	cmpl	$0, -28(%rbp)	#, seems_ok
	jne	.L15	#,
	.loc 1 150 0 is_stmt 0 discriminator 1
	movq	-48(%rbp), %rdx	# file2, tmp72
	movq	-24(%rbp), %rax	# result, tmp73
	movq	%rdx, %rsi	# tmp72,
	movq	%rax, %rdi	# tmp73,
	call	strcmp	#
	testl	%eax, %eax	# D.5716
	je	.L15	#,
	.loc 1 151 0 is_stmt 1
	movq	-24(%rbp), %rax	# result, tmp74
	movq	%rax, %rdi	# tmp74,
	call	free	#
	movq	$0, -24(%rbp)	#, result
.L15:
	.loc 1 153 0
	movq	-16(%rbp), %rax	# path, tmp75
	movq	%rax, %rdi	# tmp75,
	call	free	#
	.loc 1 154 0
	movq	-8(%rbp), %rax	# tail, tmp76
	movq	%rax, %rdi	# tmp76,
	call	free	#
	.loc 1 155 0
	movq	-24(%rbp), %rax	# result, D.5717
	.loc 1 156 0
	leave
	.cfi_def_cfa 7, 8
	ret
	.cfi_endproc
.LFE4:
	.size	FileSameDirectory, .-FileSameDirectory
	.section	.rodata
.LC1:
	.string	"%s%c%s"
	.text
	.globl	FileConcat
	.type	FileConcat, @function
FileConcat:
.LFB5:
	.loc 1 167 0
	.cfi_startproc
	pushq	%rbp	#
	.cfi_def_cfa_offset 16
	.cfi_offset 6, -16
	movq	%rsp, %rbp	#,
	.cfi_def_cfa_register 6
	pushq	%rbx	#
	subq	$40, %rsp	#,
	.cfi_offset 3, -24
	movq	%rdi, -40(%rbp)	# dir, dir
	movq	%rsi, -48(%rbp)	# file, file
	.loc 1 170 0
	movq	-40(%rbp), %rax	# dir, tmp66
	movq	%rax, %rdi	# tmp66,
	call	strlen	#
	movq	%rax, %rbx	#, D.5718
	movq	-48(%rbp), %rax	# file, tmp67
	movq	%rax, %rdi	# tmp67,
	call	strlen	#
	addq	%rbx, %rax	# D.5718, D.5718
	addq	$2, %rax	#, D.5718
	movq	%rax, %rdx	# D.5718,
	movl	$170, %esi	#,
	movl	$.LC0, %edi	#,
	call	sre_malloc	#
	movq	%rax, -24(%rbp)	# tmp68, full
	.loc 1 171 0
	movq	-48(%rbp), %rax	# file, tmp69
	movzbl	(%rax), %eax	# *file_3(D), D.5719
	cmpb	$47, %al	#, D.5719
	jne	.L18	#,
	.loc 1 171 0 is_stmt 0 discriminator 1
	movq	-48(%rbp), %rdx	# file, tmp70
	movq	-24(%rbp), %rax	# full, tmp71
	movq	%rdx, %rsi	# tmp70,
	movq	%rax, %rdi	# tmp71,
	call	strcpy	#
	jmp	.L19	#
.L18:
	.loc 1 172 0 is_stmt 1
	movq	-48(%rbp), %rcx	# file, tmp72
	movq	-40(%rbp), %rdx	# dir, tmp73
	movq	-24(%rbp), %rax	# full, tmp74
	movq	%rcx, %r8	# tmp72,
	movl	$47, %ecx	#,
	movl	$.LC1, %esi	#,
	movq	%rax, %rdi	# tmp74,
	movl	$0, %eax	#,
	call	sprintf	#
.L19:
	.loc 1 173 0
	movq	-24(%rbp), %rax	# full, D.5720
	.loc 1 174 0
	addq	$40, %rsp	#,
	popq	%rbx	#
	popq	%rbp	#
	.cfi_def_cfa 7, 8
	ret
	.cfi_endproc
.LFE5:
	.size	FileConcat, .-FileConcat
	.section	.rodata
.LC2:
	.string	"%s.%s"
	.text
	.globl	FileAddSuffix
	.type	FileAddSuffix, @function
FileAddSuffix:
.LFB6:
	.loc 1 188 0
	.cfi_startproc
	pushq	%rbp	#
	.cfi_def_cfa_offset 16
	.cfi_offset 6, -16
	movq	%rsp, %rbp	#,
	.cfi_def_cfa_register 6
	pushq	%rbx	#
	subq	$40, %rsp	#,
	.cfi_offset 3, -24
	movq	%rdi, -40(%rbp)	# filename, filename
	movq	%rsi, -48(%rbp)	# sfx, sfx
	.loc 1 190 0
	movq	-40(%rbp), %rax	# filename, tmp65
	movq	%rax, %rdi	# tmp65,
	call	strlen	#
	movq	%rax, %rbx	#, D.5722
	movq	-48(%rbp), %rax	# sfx, tmp66
	movq	%rax, %rdi	# tmp66,
	call	strlen	#
	addq	%rbx, %rax	# D.5722, D.5722
	addq	$2, %rax	#, D.5722
	movq	%rax, %rdx	# D.5722,
	movl	$190, %esi	#,
	movl	$.LC0, %edi	#,
	call	sre_malloc	#
	movq	%rax, -24(%rbp)	# tmp67, new
	.loc 1 191 0
	movq	-48(%rbp), %rcx	# sfx, tmp68
	movq	-40(%rbp), %rdx	# filename, tmp69
	movq	-24(%rbp), %rax	# new, tmp70
	movl	$.LC2, %esi	#,
	movq	%rax, %rdi	# tmp70,
	movl	$0, %eax	#,
	call	sprintf	#
	.loc 1 192 0
	movq	-24(%rbp), %rax	# new, D.5723
	.loc 1 193 0
	addq	$40, %rsp	#,
	popq	%rbx	#
	popq	%rbp	#
	.cfi_def_cfa 7, 8
	ret
	.cfi_endproc
.LFE6:
	.size	FileAddSuffix, .-FileAddSuffix
	.section	.rodata
.LC3:
	.string	":"
.LC4:
	.string	"r"
	.text
	.globl	EnvFileOpen
	.type	EnvFileOpen, @function
EnvFileOpen:
.LFB7:
	.loc 1 231 0
	.cfi_startproc
	pushq	%rbp	#
	.cfi_def_cfa_offset 16
	.cfi_offset 6, -16
	movq	%rsp, %rbp	#,
	.cfi_def_cfa_register 6
	pushq	%rbx	#
	subq	$1112, %rsp	#,
	.cfi_offset 3, -24
	movq	%rdi, -1096(%rbp)	# fname, fname
	movq	%rsi, -1104(%rbp)	# env, env
	movq	%rdx, -1112(%rbp)	# ret_dir, ret_dir
	.loc 1 231 0
	movq	%fs:40, %rax	#, tmp86
	movq	%rax, -24(%rbp)	# tmp86, D.5729
	xorl	%eax, %eax	# tmp86
	.loc 1 237 0
	cmpq	$0, -1104(%rbp)	#, env
	jne	.L24	#,
	.loc 1 237 0 is_stmt 0 discriminator 1
	movl	$0, %eax	#, D.5725
	jmp	.L33	#
.L24:
	.loc 1 238 0 is_stmt 1
	movq	-1104(%rbp), %rax	# env, tmp69
	movq	%rax, %rdi	# tmp69,
	call	getenv	#
	movq	%rax, %rdi	# D.5726,
	call	Strdup	#
	movq	%rax, -1064(%rbp)	# tmp70, path
	cmpq	$0, -1064(%rbp)	#, path
	jne	.L26	#,
	.loc 1 238 0 is_stmt 0 discriminator 1
	movl	$0, %eax	#, D.5725
	jmp	.L33	#
.L26:
	.loc 1 240 0 is_stmt 1
	movq	$0, -1080(%rbp)	#, fp
	.loc 1 241 0
	movq	-1064(%rbp), %rax	# path, tmp71
	movl	$.LC3, %esi	#,
	movq	%rax, %rdi	# tmp71,
	call	strtok	#
	movq	%rax, -1072(%rbp)	# tmp72, s
	.loc 1 242 0
	jmp	.L27	#
.L31:
	.loc 1 244 0
	movq	-1096(%rbp), %rax	# fname, tmp73
	movq	%rax, %rdi	# tmp73,
	call	strlen	#
	movl	%eax, %ebx	# D.5727, D.5728
	movq	-1072(%rbp), %rax	# s, tmp74
	movq	%rax, %rdi	# tmp74,
	call	strlen	#
	addl	%ebx, %eax	# D.5728, D.5728
	addl	$2, %eax	#, D.5728
	cmpl	$1024, %eax	#, D.5728
	jle	.L28	#,
	.loc 1 245 0
	movq	-1064(%rbp), %rax	# path, tmp75
	movq	%rax, %rdi	# tmp75,
	call	free	#
	movl	$0, %eax	#, D.5725
	jmp	.L33	#
.L28:
	.loc 1 246 0
	movq	-1096(%rbp), %rcx	# fname, tmp76
	movq	-1072(%rbp), %rdx	# s, tmp77
	leaq	-1056(%rbp), %rax	#, tmp78
	movq	%rcx, %r8	# tmp76,
	movl	$47, %ecx	#,
	movl	$.LC1, %esi	#,
	movq	%rax, %rdi	# tmp78,
	movl	$0, %eax	#,
	call	sprintf	#
	.loc 1 247 0
	leaq	-1056(%rbp), %rax	#, tmp79
	movl	$.LC4, %esi	#,
	movq	%rax, %rdi	# tmp79,
	call	fopen	#
	movq	%rax, -1080(%rbp)	# tmp80, fp
	cmpq	$0, -1080(%rbp)	#, fp
	je	.L29	#,
	.loc 1 247 0 is_stmt 0 discriminator 1
	jmp	.L30	#
.L29:
	.loc 1 248 0 is_stmt 1
	movl	$.LC3, %esi	#,
	movl	$0, %edi	#,
	call	strtok	#
	movq	%rax, -1072(%rbp)	# tmp81, s
.L27:
	.loc 1 242 0 discriminator 1
	cmpq	$0, -1072(%rbp)	#, s
	jne	.L31	#,
.L30:
	.loc 1 253 0
	cmpq	$0, -1112(%rbp)	#, ret_dir
	je	.L32	#,
	.loc 1 253 0 is_stmt 0 discriminator 1
	movq	-1072(%rbp), %rax	# s, tmp82
	movq	%rax, %rdi	# tmp82,
	call	Strdup	#
	movq	-1112(%rbp), %rdx	# ret_dir, tmp83
	movq	%rax, (%rdx)	# D.5726, *ret_dir_22(D)
.L32:
	.loc 1 254 0 is_stmt 1
	movq	-1064(%rbp), %rax	# path, tmp84
	movq	%rax, %rdi	# tmp84,
	call	free	#
	.loc 1 256 0
	movq	-1080(%rbp), %rax	# fp, D.5725
.L33:
	.loc 1 257 0
	movq	-24(%rbp), %rbx	# D.5729, tmp87
	xorq	%fs:40, %rbx	#, tmp87
	je	.L34	#,
	call	__stack_chk_fail	#
.L34:
	addq	$1112, %rsp	#,
	popq	%rbx	#
	popq	%rbp	#
	.cfi_def_cfa 7, 8
	ret
	.cfi_endproc
.LFE7:
	.size	EnvFileOpen, .-EnvFileOpen
	.globl	FileExists
	.type	FileExists, @function
FileExists:
.LFB8:
	.loc 1 268 0
	.cfi_startproc
	pushq	%rbp	#
	.cfi_def_cfa_offset 16
	.cfi_offset 6, -16
	movq	%rsp, %rbp	#,
	.cfi_def_cfa_register 6
	subq	$32, %rsp	#,
	movq	%rdi, -24(%rbp)	# filename, filename
	.loc 1 270 0
	movq	-24(%rbp), %rax	# filename, tmp61
	movl	$.LC4, %esi	#,
	movq	%rax, %rdi	# tmp61,
	call	fopen	#
	movq	%rax, -8(%rbp)	# tmp62, fp
	cmpq	$0, -8(%rbp)	#, fp
	je	.L36	#,
	.loc 1 270 0 is_stmt 0 discriminator 1
	movq	-8(%rbp), %rax	# fp, tmp63
	movq	%rax, %rdi	# tmp63,
	call	fclose	#
	movl	$1, %eax	#, D.5734
	jmp	.L37	#
.L36:
	.loc 1 271 0 is_stmt 1
	movl	$0, %eax	#, D.5734
.L37:
	.loc 1 272 0
	leave
	.cfi_def_cfa 7, 8
	ret
	.cfi_endproc
.LFE8:
	.size	FileExists, .-FileExists
.Letext0:
	.file 2 "/usr/lib/gcc/x86_64-linux-gnu/4.8/include/stddef.h"
	.file 3 "/usr/include/x86_64-linux-gnu/bits/types.h"
	.file 4 "/usr/include/stdio.h"
	.file 5 "/usr/include/libio.h"
	.section	.note.GNU-stack,"",@progbits
