	.file	"hmmsearch.c"
# GNU C (Ubuntu/Linaro 4.8.1-10ubuntu9) version 4.8.1 (x86_64-linux-gnu)
#	compiled by GNU C version 4.8.1, GMP version 5.1.2, MPFR version 3.1.1-p2, MPC version 1.0.1
# GGC heuristics: --param ggc-min-expand=100 --param ggc-min-heapsize=131072
# options passed:  -imultiarch x86_64-linux-gnu -D SPEC_CPU -D NDEBUG
# -D SPEC_CPU_LP64 hmmsearch.c -mtune=generic -march=x86-64 -g
# -fverbose-asm -fno-strict-aliasing -fstack-protector -Wformat
# -Wformat-security
# options enabled:  -faggressive-loop-optimizations
# -fasynchronous-unwind-tables -fauto-inc-dec -fbranch-count-reg -fcommon
# -fdelete-null-pointer-checks -fdwarf2-cfi-asm -fearly-inlining
# -feliminate-unused-debug-types -ffunction-cse -fgcse-lm -fgnu-runtime
# -fident -finline-atomics -fira-hoist-pressure -fira-share-save-slots
# -fira-share-spill-slots -fivopts -fkeep-static-consts
# -fleading-underscore -fmath-errno -fmerge-debug-strings
# -fmove-loop-invariants -fpeephole -fprefetch-loop-arrays
# -freg-struct-return -fsched-critical-path-heuristic
# -fsched-dep-count-heuristic -fsched-group-heuristic -fsched-interblock
# -fsched-last-insn-heuristic -fsched-rank-heuristic -fsched-spec
# -fsched-spec-insn-heuristic -fsched-stalled-insns-dep -fshow-column
# -fsigned-zeros -fsplit-ivs-in-unroller -fstack-protector
# -fstrict-volatile-bitfields -fsync-libcalls -ftrapping-math
# -ftree-coalesce-vars -ftree-cselim -ftree-forwprop -ftree-loop-if-convert
# -ftree-loop-im -ftree-loop-ivcanon -ftree-loop-optimize
# -ftree-parallelize-loops= -ftree-phiprop -ftree-pta -ftree-reassoc
# -ftree-scev-cprop -ftree-slp-vectorize -ftree-vect-loop-version
# -funit-at-a-time -funwind-tables -fverbose-asm -fzero-initialized-in-bss
# -m128bit-long-double -m64 -m80387 -maccumulate-outgoing-args
# -malign-stringops -mfancy-math-387 -mfp-ret-in-387 -mfxsr -mglibc
# -mieee-fp -mlong-double-80 -mmmx -mno-sse4 -mpush-args -mred-zone -msse
# -msse2 -mtls-direct-seg-refs

	.text
.Ltext0:
	.comm	Alphabet,25,16
	.comm	Alphabet_type,4,4
	.comm	Alphabet_size,4,4
	.comm	Alphabet_iupac,4,4
	.comm	Degenerate,480,32
	.comm	DegenCount,96,32
	.data
	.align 32
	.type	banner, @object
	.size	banner, 58
banner:
	.string	"hmmsearch - search a sequence database with a profile HMM"
	.align 32
	.type	usage, @object
	.size	usage, 382
usage:
	.ascii	"Usage: hmmsearch [-options] <hmmfile> <sequence file or data"
	.ascii	"base>\n  Available options are:\n   -h        : help; print "
	.ascii	"brief h"
	.string	"elp on version and usage\n   -A <n>    : sets alignment output limit to <n> best domain alignments\n   -E <x>    : sets E value cutoff (globE) to <= x\n   -T <x>    : sets T bit threshold (globT) to >= x\n   -Z <n>    : sets Z (# seqs) for E-value calculation\n"
	.align 32
	.type	experts, @object
	.size	experts, 759
experts:
	.ascii	"   --compat       : make best effort to use last version's o"
	.ascii	"utput style\n   --cpu <n>      : run <n> threads in parallel"
	.ascii	" (if threaded)\n   --cut_ga       : use Pfam GA gathering th"
	.ascii	"reshold cutoffs\n   --cut_nc       : use Pfam NC noise thres"
	.ascii	"hold cutoffs\n   --cut_tc       : use Pfam TC trusted thresh"
	.ascii	"old cutoffs\n   --domE <x>     : sets domain Eval cutoff (2n"
	.ascii	"d threshold) to <= x\n   --domT <x>     : sets domain T bit "
	.ascii	"thresh (2nd threshold) to >= x\n   --forward      : use the "
	.ascii	"full Forward() algorithm inst"
	.string	"ead of Viterbi\n   --informat <s> : sequence file is in format <s>\n   --null2        : turn OFF the post hoc second null model\n   --pvm          : run on a Parallel Virtual Machine (PVM)\n   --xnu          : turn ON XNU filtering of target protein sequences\n"
	.section	.rodata
.LC0:
	.string	"-h"
.LC1:
	.string	"-A"
.LC2:
	.string	"-E"
.LC3:
	.string	"-T"
.LC4:
	.string	"-Z"
.LC5:
	.string	"--compat"
.LC6:
	.string	"--cpu"
.LC7:
	.string	"--cut_ga"
.LC8:
	.string	"--cut_nc"
.LC9:
	.string	"--cut_tc"
.LC10:
	.string	"--domE"
.LC11:
	.string	"--domT"
.LC12:
	.string	"--forward"
.LC13:
	.string	"--informat"
.LC14:
	.string	"--null2"
.LC15:
	.string	"--pvm"
.LC16:
	.string	"--xnu"
	.data
	.align 32
	.type	OPTIONS, @object
	.size	OPTIONS, 272
OPTIONS:
# name:
	.quad	.LC0
# single:
	.long	1
# argtype:
	.long	0
# name:
	.quad	.LC1
# single:
	.long	1
# argtype:
	.long	1
# name:
	.quad	.LC2
# single:
	.long	1
# argtype:
	.long	2
# name:
	.quad	.LC3
# single:
	.long	1
# argtype:
	.long	2
# name:
	.quad	.LC4
# single:
	.long	1
# argtype:
	.long	1
# name:
	.quad	.LC5
# single:
	.long	0
# argtype:
	.long	0
# name:
	.quad	.LC6
# single:
	.long	0
# argtype:
	.long	1
# name:
	.quad	.LC7
# single:
	.long	0
# argtype:
	.long	0
# name:
	.quad	.LC8
# single:
	.long	0
# argtype:
	.long	0
# name:
	.quad	.LC9
# single:
	.long	0
# argtype:
	.long	0
# name:
	.quad	.LC10
# single:
	.long	0
# argtype:
	.long	2
# name:
	.quad	.LC11
# single:
	.long	0
# argtype:
	.long	2
# name:
	.quad	.LC12
# single:
	.long	0
# argtype:
	.long	0
# name:
	.quad	.LC13
# single:
	.long	0
# argtype:
	.long	4
# name:
	.quad	.LC14
# single:
	.long	0
# argtype:
	.long	0
# name:
	.quad	.LC15
# single:
	.long	0
# argtype:
	.long	0
# name:
	.quad	.LC16
# single:
	.long	0
# argtype:
	.long	0
	.section	.rodata
	.align 8
.LC20:
	.string	"unrecognized sequence file format \"%s\""
	.align 8
.LC21:
	.string	"Incorrect number of arguments.\n%s\n"
	.align 8
.LC22:
	.string	"PVM support is not compiled into your HMMER software; --pvm doesn't work."
	.align 8
.LC23:
	.string	"POSIX threads support is not compiled into HMMER; --cpu doesn't have any effect"
.LC24:
	.string	"^.*\\.gz$"
.LC25:
	.string	"-"
.LC26:
	.string	"BLASTDB"
	.align 8
.LC27:
	.string	"Failed to open sequence database file %s\n%s\n"
.LC28:
	.string	"HMMERDB"
.LC29:
	.string	"Failed to open HMM file %s\n%s"
	.align 8
.LC30:
	.string	"Failed to read any HMMs from %s\n"
	.align 8
.LC31:
	.string	"HMM file %s corrupt or in incorrect format? Parse failed"
	.align 8
.LC32:
	.string	"The HMM is a DNA model, and you can't use the --xnu filter on DNA data"
	.align 8
.LC33:
	.string	"HMM %s did not contain the GA, TC, or NC cutoffs you needed"
	.align 8
.LC34:
	.string	"HMM file:                   %s [%s]\n"
	.align 8
.LC35:
	.string	"Sequence database:          %s\n"
	.align 8
.LC36:
	.string	"PVM:                        ACTIVE"
.LC37:
	.string	"per-sequence score cutoff:  "
.LC38:
	.string	"[none]"
.LC39:
	.string	">= %.1f"
.LC40:
	.string	" [GA1]"
.LC41:
	.string	" [NC1]"
.LC42:
	.string	" [TC1]"
.LC43:
	.string	"per-domain score cutoff:    "
.LC44:
	.string	" [GA2]"
.LC45:
	.string	" [NC2]"
.LC46:
	.string	" [TC2]"
.LC47:
	.string	"per-sequence Eval cutoff:   "
.LC48:
	.string	"<= %-10.2g\n"
.LC49:
	.string	"per-domain Eval cutoff:     "
.LC50:
	.string	"<= %10.2g\n"
	.align 8
.LC51:
	.string	"- - - - - - - - - - - - - - - - - - - - - - - - - - - - - - - -"
.LC52:
	.string	""
.LC53:
	.string	"\nQuery HMM: %s|%s|%s\n"
.LC54:
	.string	"\nQuery HMM:   %s\n"
.LC55:
	.string	"Accession:   %s\n"
.LC56:
	.string	"Description: %s\n"
	.align 8
.LC57:
	.string	"  [HMM has been calibrated; E-values are empirical estimates]"
	.align 8
.LC58:
	.string	"  [No calibration for HMM; E-values are upper bounds]"
	.align 8
.LC59:
	.string	"\nAlignments of top-scoring domains:"
	.align 8
.LC60:
	.string	"%s: domain %d of %d, from %d to %d: score %.1f, E = %.2g\n"
.LC61:
	.string	"\t[no hits above thresholds]"
	.align 8
.LC62:
	.string	"\t[output cut off at A = %d top alignments]\n"
	.align 8
.LC63:
	.string	"\nTotal sequences searched: %d\n"
	.text
	.globl	main
	.type	main, @function
main:
.LFB2:
	.file 1 "hmmsearch.c"
	.loc 1 155 0
	.cfi_startproc
	pushq	%rbp	#
	.cfi_def_cfa_offset 16
	.cfi_offset 6, -16
	movq	%rsp, %rbp	#,
	.cfi_def_cfa_register 6
	subq	$400, %rsp	#,
	movl	%edi, -276(%rbp)	# argc, argc
	movq	%rsi, -288(%rbp)	# argv, argv
	.loc 1 201 0
	cmpl	$3, -276(%rbp)	#, argc
	je	.L2	#,
	.loc 1 202 0
	movq	-288(%rbp), %rdx	# argv, tmp231
	movl	-276(%rbp), %eax	# argc, tmp232
	movq	%rdx, %rsi	# tmp231,
	movl	%eax, %edi	# tmp232,
	call	hmmcalibrate	#
	jmp	.L86	#
.L2:
	.loc 1 210 0
	movl	$0, -228(%rbp)	#, format
	.loc 1 211 0
	movl	$0, -208(%rbp)	#, do_forward
	.loc 1 212 0
	movl	$1, -212(%rbp)	#, do_null2
	.loc 1 213 0
	movl	$0, -204(%rbp)	#, do_xnu
	.loc 1 214 0
	movl	$0, -200(%rbp)	#, do_pvm
	.loc 1 215 0
	movl	$0, -188(%rbp)	#, Z
	.loc 1 216 0
	movl	$0, -196(%rbp)	#, be_backwards
	.loc 1 218 0
	movl	$0, -184(%rbp)	#, pvm_support
	.loc 1 219 0
	movl	$0, -180(%rbp)	#, threads_support
	.loc 1 220 0
	movl	$0, -192(%rbp)	#, num_threads
	.loc 1 229 0
	movl	$2147483647, -216(%rbp)	#, Alimit
	.loc 1 230 0
	movabsq	$4621819117588971520, %rax	#, tmp233
	movq	%rax, -40(%rbp)	# tmp233, thresh.globE
	.loc 1 231 0
	movl	.LC18(%rip), %eax	#, tmp234
	movl	%eax, -48(%rbp)	# tmp234, thresh.globT
	.loc 1 232 0
	movl	.LC18(%rip), %eax	#, tmp235
	movl	%eax, -32(%rbp)	# tmp235, thresh.domT
	.loc 1 233 0
	movabsq	$5183643170566569984, %rax	#, tmp236
	movq	%rax, -24(%rbp)	# tmp236, thresh.domE
	.loc 1 234 0
	movl	$0, -16(%rbp)	#, thresh.autocut
	.loc 1 235 0
	movl	$0, -12(%rbp)	#, thresh.Z
	.loc 1 237 0
	jmp	.L4	#
.L22:
	.loc 1 239 0
	movq	-128(%rbp), %rax	# optname, optname.0
	movl	$.LC1, %esi	#,
	movq	%rax, %rdi	# optname.0,
	call	strcmp	#
	testl	%eax, %eax	# D.6979
	jne	.L5	#,
	.loc 1 239 0 is_stmt 0 discriminator 1
	movq	-120(%rbp), %rax	# optarg, optarg.1
	movq	%rax, %rdi	# optarg.1,
	call	atoi	#
	movl	%eax, -216(%rbp)	# tmp237, Alimit
	jmp	.L4	#
.L5:
	.loc 1 240 0 is_stmt 1
	movq	-128(%rbp), %rax	# optname, optname.2
	movl	$.LC2, %esi	#,
	movq	%rax, %rdi	# optname.2,
	call	strcmp	#
	testl	%eax, %eax	# D.6979
	jne	.L6	#,
	.loc 1 240 0 is_stmt 0 discriminator 1
	movq	-120(%rbp), %rax	# optarg, optarg.3
	movq	%rax, %rdi	# optarg.3,
	call	atof	#
	movsd	%xmm0, -296(%rbp)	#, %sfp
	movq	-296(%rbp), %rax	# %sfp, D.6980
	movq	%rax, -40(%rbp)	# D.6980, thresh.globE
	jmp	.L4	#
.L6:
	.loc 1 241 0 is_stmt 1
	movq	-128(%rbp), %rax	# optname, optname.4
	movl	$.LC3, %esi	#,
	movq	%rax, %rdi	# optname.4,
	call	strcmp	#
	testl	%eax, %eax	# D.6979
	jne	.L7	#,
	.loc 1 241 0 is_stmt 0 discriminator 1
	movq	-120(%rbp), %rax	# optarg, optarg.5
	movq	%rax, %rdi	# optarg.5,
	call	atof	#
	unpcklpd	%xmm0, %xmm0	# D.6980
	cvtpd2ps	%xmm0, %xmm0	# D.6980, D.6981
	movss	%xmm0, -48(%rbp)	# D.6981, thresh.globT
	jmp	.L4	#
.L7:
	.loc 1 242 0 is_stmt 1
	movq	-128(%rbp), %rax	# optname, optname.6
	movl	$.LC4, %esi	#,
	movq	%rax, %rdi	# optname.6,
	call	strcmp	#
	testl	%eax, %eax	# D.6979
	jne	.L8	#,
	.loc 1 242 0 is_stmt 0 discriminator 1
	movq	-120(%rbp), %rax	# optarg, optarg.7
	movq	%rax, %rdi	# optarg.7,
	call	atoi	#
	movl	%eax, -12(%rbp)	# D.6979, thresh.Z
	jmp	.L4	#
.L8:
	.loc 1 243 0 is_stmt 1
	movq	-128(%rbp), %rax	# optname, optname.8
	movl	$.LC5, %esi	#,
	movq	%rax, %rdi	# optname.8,
	call	strcmp	#
	testl	%eax, %eax	# D.6979
	jne	.L9	#,
	.loc 1 243 0 is_stmt 0 discriminator 1
	movl	$1, -196(%rbp)	#, be_backwards
	jmp	.L4	#
.L9:
	.loc 1 244 0 is_stmt 1
	movq	-128(%rbp), %rax	# optname, optname.9
	movl	$.LC6, %esi	#,
	movq	%rax, %rdi	# optname.9,
	call	strcmp	#
	testl	%eax, %eax	# D.6979
	jne	.L10	#,
	.loc 1 244 0 is_stmt 0 discriminator 1
	movq	-120(%rbp), %rax	# optarg, optarg.10
	movq	%rax, %rdi	# optarg.10,
	call	atoi	#
	movl	%eax, -192(%rbp)	# tmp238, num_threads
	jmp	.L4	#
.L10:
	.loc 1 245 0 is_stmt 1
	movq	-128(%rbp), %rax	# optname, optname.11
	movl	$.LC7, %esi	#,
	movq	%rax, %rdi	# optname.11,
	call	strcmp	#
	testl	%eax, %eax	# D.6979
	jne	.L11	#,
	.loc 1 245 0 is_stmt 0 discriminator 1
	movl	$1, -16(%rbp)	#, thresh.autocut
	jmp	.L4	#
.L11:
	.loc 1 246 0 is_stmt 1
	movq	-128(%rbp), %rax	# optname, optname.12
	movl	$.LC8, %esi	#,
	movq	%rax, %rdi	# optname.12,
	call	strcmp	#
	testl	%eax, %eax	# D.6979
	jne	.L12	#,
	.loc 1 246 0 is_stmt 0 discriminator 1
	movl	$2, -16(%rbp)	#, thresh.autocut
	jmp	.L4	#
.L12:
	.loc 1 247 0 is_stmt 1
	movq	-128(%rbp), %rax	# optname, optname.13
	movl	$.LC9, %esi	#,
	movq	%rax, %rdi	# optname.13,
	call	strcmp	#
	testl	%eax, %eax	# D.6979
	jne	.L13	#,
	.loc 1 247 0 is_stmt 0 discriminator 1
	movl	$3, -16(%rbp)	#, thresh.autocut
	jmp	.L4	#
.L13:
	.loc 1 248 0 is_stmt 1
	movq	-128(%rbp), %rax	# optname, optname.14
	movl	$.LC10, %esi	#,
	movq	%rax, %rdi	# optname.14,
	call	strcmp	#
	testl	%eax, %eax	# D.6979
	jne	.L14	#,
	.loc 1 248 0 is_stmt 0 discriminator 1
	movq	-120(%rbp), %rax	# optarg, optarg.15
	movq	%rax, %rdi	# optarg.15,
	call	atof	#
	movsd	%xmm0, -296(%rbp)	#, %sfp
	movq	-296(%rbp), %rax	# %sfp, D.6980
	movq	%rax, -24(%rbp)	# D.6980, thresh.domE
	jmp	.L4	#
.L14:
	.loc 1 249 0 is_stmt 1
	movq	-128(%rbp), %rax	# optname, optname.16
	movl	$.LC11, %esi	#,
	movq	%rax, %rdi	# optname.16,
	call	strcmp	#
	testl	%eax, %eax	# D.6979
	jne	.L15	#,
	.loc 1 249 0 is_stmt 0 discriminator 1
	movq	-120(%rbp), %rax	# optarg, optarg.17
	movq	%rax, %rdi	# optarg.17,
	call	atof	#
	unpcklpd	%xmm0, %xmm0	# D.6980
	cvtpd2ps	%xmm0, %xmm0	# D.6980, D.6981
	movss	%xmm0, -32(%rbp)	# D.6981, thresh.domT
	jmp	.L4	#
.L15:
	.loc 1 250 0 is_stmt 1
	movq	-128(%rbp), %rax	# optname, optname.18
	movl	$.LC12, %esi	#,
	movq	%rax, %rdi	# optname.18,
	call	strcmp	#
	testl	%eax, %eax	# D.6979
	jne	.L16	#,
	.loc 1 250 0 is_stmt 0 discriminator 1
	movl	$1, -208(%rbp)	#, do_forward
	jmp	.L4	#
.L16:
	.loc 1 251 0 is_stmt 1
	movq	-128(%rbp), %rax	# optname, optname.19
	movl	$.LC14, %esi	#,
	movq	%rax, %rdi	# optname.19,
	call	strcmp	#
	testl	%eax, %eax	# D.6979
	jne	.L17	#,
	.loc 1 251 0 is_stmt 0 discriminator 1
	movl	$0, -212(%rbp)	#, do_null2
	jmp	.L4	#
.L17:
	.loc 1 252 0 is_stmt 1
	movq	-128(%rbp), %rax	# optname, optname.20
	movl	$.LC15, %esi	#,
	movq	%rax, %rdi	# optname.20,
	call	strcmp	#
	testl	%eax, %eax	# D.6979
	jne	.L18	#,
	.loc 1 252 0 is_stmt 0 discriminator 1
	movl	$1, -200(%rbp)	#, do_pvm
	jmp	.L4	#
.L18:
	.loc 1 253 0 is_stmt 1
	movq	-128(%rbp), %rax	# optname, optname.21
	movl	$.LC16, %esi	#,
	movq	%rax, %rdi	# optname.21,
	call	strcmp	#
	testl	%eax, %eax	# D.6979
	jne	.L19	#,
	.loc 1 253 0 is_stmt 0 discriminator 1
	movl	$1, -204(%rbp)	#, do_xnu
	jmp	.L4	#
.L19:
	.loc 1 254 0 is_stmt 1
	movq	-128(%rbp), %rax	# optname, optname.22
	movl	$.LC13, %esi	#,
	movq	%rax, %rdi	# optname.22,
	call	strcmp	#
	testl	%eax, %eax	# D.6979
	jne	.L20	#,
	.loc 1 255 0
	movq	-120(%rbp), %rax	# optarg, optarg.23
	movq	%rax, %rdi	# optarg.23,
	call	String2SeqfileFormat	#
	movl	%eax, -228(%rbp)	# tmp239, format
	.loc 1 256 0
	cmpl	$0, -228(%rbp)	#, format
	jne	.L4	#,
	.loc 1 257 0
	movq	-120(%rbp), %rax	# optarg, optarg.24
	movq	%rax, %rsi	# optarg.24,
	movl	$.LC20, %edi	#,
	movl	$0, %eax	#,
	call	Die	#
	jmp	.L4	#
.L20:
	.loc 1 259 0
	movq	-128(%rbp), %rax	# optname, optname.25
	movl	$.LC0, %esi	#,
	movq	%rax, %rdi	# optname.25,
	call	strcmp	#
	testl	%eax, %eax	# D.6979
	jne	.L4	#,
	.loc 1 260 0
	movq	stdout(%rip), %rax	# stdout, stdout.26
	movl	$banner, %esi	#,
	movq	%rax, %rdi	# stdout.26,
	call	HMMERBanner	#
	.loc 1 261 0
	movl	$usage, %edi	#,
	call	puts	#
	.loc 1 262 0
	movl	$experts, %edi	#,
	call	puts	#
	.loc 1 263 0
	movl	$0, %edi	#,
	call	exit	#
.L4:
	.loc 1 237 0 discriminator 1
	leaq	-232(%rbp), %rcx	#, tmp240
	movq	-288(%rbp), %rsi	# argv, tmp241
	movl	-276(%rbp), %eax	# argc, tmp242
	leaq	-120(%rbp), %rdx	#, tmp243
	movq	%rdx, 8(%rsp)	# tmp243,
	leaq	-128(%rbp), %rdx	#, tmp244
	movq	%rdx, (%rsp)	# tmp244,
	movq	%rcx, %r9	# tmp240,
	movl	$usage, %r8d	#,
	movl	$17, %ecx	#,
	movl	$OPTIONS, %edx	#,
	movl	%eax, %edi	# tmp242,
	call	Getopt	#
	testl	%eax, %eax	# D.6979
	jne	.L22	#,
	.loc 1 266 0
	movl	-232(%rbp), %eax	# optind, optind.27
	movl	-276(%rbp), %edx	# argc, tmp245
	subl	%eax, %edx	# optind.27, D.6979
	movl	%edx, %eax	# D.6979, D.6979
	cmpl	$2, %eax	#, D.6979
	je	.L23	#,
	.loc 1 267 0
	movl	$usage, %esi	#,
	movl	$.LC21, %edi	#,
	movl	$0, %eax	#,
	call	Die	#
.L23:
	.loc 1 269 0
	movl	-232(%rbp), %eax	# optind, optind.28
	leal	1(%rax), %edx	#, optind.30
	movl	%edx, -232(%rbp)	# optind.30, optind
	cltq
	leaq	0(,%rax,8), %rdx	#, D.6982
	movq	-288(%rbp), %rax	# argv, tmp246
	addq	%rdx, %rax	# D.6982, D.6983
	movq	(%rax), %rax	# *_101, tmp247
	movq	%rax, -112(%rbp)	# tmp247, hmmfile
	.loc 1 270 0
	movl	-232(%rbp), %eax	# optind, optind.31
	leal	1(%rax), %edx	#, optind.33
	movl	%edx, -232(%rbp)	# optind.33, optind
	cltq
	leaq	0(,%rax,8), %rdx	#, D.6982
	movq	-288(%rbp), %rax	# argv, tmp248
	addq	%rdx, %rax	# D.6982, D.6983
	movq	(%rax), %rax	# *_108, tmp249
	movq	%rax, -104(%rbp)	# tmp249, seqfile
	.loc 1 272 0
	cmpl	$0, -200(%rbp)	#, do_pvm
	je	.L24	#,
	.loc 1 272 0 is_stmt 0 discriminator 1
	cmpl	$0, -184(%rbp)	#, pvm_support
	jne	.L24	#,
	.loc 1 273 0 is_stmt 1
	movl	$.LC22, %edi	#,
	movl	$0, %eax	#,
	call	Die	#
.L24:
	.loc 1 274 0
	cmpl	$0, -192(%rbp)	#, num_threads
	je	.L25	#,
	.loc 1 274 0 is_stmt 0 discriminator 1
	cmpl	$0, -180(%rbp)	#, threads_support
	jne	.L25	#,
	.loc 1 275 0 is_stmt 1
	movl	$.LC23, %edi	#,
	movl	$0, %eax	#,
	call	Die	#
.L25:
	.loc 1 280 0
	cmpl	$0, -228(%rbp)	#, format
	jne	.L26	#,
	.loc 1 281 0 discriminator 1
	movq	-104(%rbp), %rax	# seqfile, tmp250
	movl	$0, %edx	#,
	movq	%rax, %rsi	# tmp250,
	movl	$.LC24, %edi	#,
	call	Strparse	#
	.loc 1 280 0 discriminator 1
	testl	%eax, %eax	# D.6979
	jne	.L27	#,
	.loc 1 281 0
	movq	-104(%rbp), %rax	# seqfile, tmp251
	movl	$.LC25, %esi	#,
	movq	%rax, %rdi	# tmp251,
	call	strcmp	#
	testl	%eax, %eax	# D.6979
	jne	.L26	#,
.L27:
	.loc 1 282 0
	movl	$7, -228(%rbp)	#, format
.L26:
	.loc 1 288 0
	movl	-228(%rbp), %ecx	# format, tmp252
	movq	-104(%rbp), %rax	# seqfile, tmp253
	movl	$.LC26, %edx	#,
	movl	%ecx, %esi	# tmp252,
	movq	%rax, %rdi	# tmp253,
	call	SeqfileOpen	#
	movq	%rax, -96(%rbp)	# tmp254, sqfp
	cmpq	$0, -96(%rbp)	#, sqfp
	jne	.L28	#,
	.loc 1 289 0
	movq	-104(%rbp), %rax	# seqfile, tmp255
	movl	$usage, %edx	#,
	movq	%rax, %rsi	# tmp255,
	movl	$.LC27, %edi	#,
	movl	$0, %eax	#,
	call	Die	#
.L28:
	.loc 1 297 0
	movq	-112(%rbp), %rax	# hmmfile, tmp256
	movl	$.LC28, %esi	#,
	movq	%rax, %rdi	# tmp256,
	call	HMMFileOpen	#
	movq	%rax, -88(%rbp)	# tmp257, hmmfp
	cmpq	$0, -88(%rbp)	#, hmmfp
	jne	.L29	#,
	.loc 1 298 0
	movq	-112(%rbp), %rax	# hmmfile, tmp258
	movl	$usage, %edx	#,
	movq	%rax, %rsi	# tmp258,
	movl	$.LC29, %edi	#,
	movl	$0, %eax	#,
	call	Die	#
.L29:
	.loc 1 299 0
	leaq	-168(%rbp), %rdx	#, tmp259
	movq	-88(%rbp), %rax	# hmmfp, tmp260
	movq	%rdx, %rsi	# tmp259,
	movq	%rax, %rdi	# tmp260,
	call	HMMFileRead	#
	testl	%eax, %eax	# D.6979
	jne	.L30	#,
	.loc 1 300 0
	movq	-112(%rbp), %rax	# hmmfile, tmp261
	movq	%rax, %rsi	# tmp261,
	movl	$.LC30, %edi	#,
	movl	$0, %eax	#,
	call	Die	#
.L30:
	.loc 1 301 0
	movq	-168(%rbp), %rax	# hmm, hmm.34
	testq	%rax, %rax	# hmm.34
	jne	.L31	#,
	.loc 1 302 0
	movq	-112(%rbp), %rax	# hmmfile, tmp262
	movq	%rax, %rsi	# tmp262,
	movl	$.LC31, %edi	#,
	movl	$0, %eax	#,
	call	Die	#
.L31:
	.loc 1 303 0
	cmpl	$0, -208(%rbp)	#, do_forward
	sete	%al	#, D.6984
	movzbl	%al, %edx	# D.6984, D.6979
	movq	-168(%rbp), %rax	# hmm, hmm.35
	movl	%edx, %esi	# D.6979,
	movq	%rax, %rdi	# hmm.35,
	call	P7Logoddsify	#
	.loc 1 305 0
	cmpl	$0, -204(%rbp)	#, do_xnu
	je	.L32	#,
	.loc 1 305 0 is_stmt 0 discriminator 1
	movl	Alphabet_type(%rip), %eax	# Alphabet_type, Alphabet_type.36
	cmpl	$2, %eax	#, Alphabet_type.36
	jne	.L32	#,
	.loc 1 306 0 is_stmt 1
	movl	$.LC32, %edi	#,
	movl	$0, %eax	#,
	call	Die	#
.L32:
	.loc 1 313 0
	movq	-168(%rbp), %rdx	# hmm, hmm.37
	leaq	-48(%rbp), %rax	#, tmp263
	movq	%rdx, %rsi	# hmm.37,
	movq	%rax, %rdi	# tmp263,
	call	SetAutocuts	#
	testl	%eax, %eax	# D.6979
	jne	.L33	#,
	.loc 1 315 0
	movq	-168(%rbp), %rax	# hmm, hmm.38
	.loc 1 314 0
	movq	(%rax), %rax	# hmm.38_123->name, D.6985
	movq	%rax, %rsi	# D.6985,
	movl	$.LC33, %edi	#,
	movl	$0, %eax	#,
	call	Die	#
.L33:
	.loc 1 321 0
	movq	stdout(%rip), %rax	# stdout, stdout.39
	movl	$banner, %esi	#,
	movq	%rax, %rdi	# stdout.39,
	call	HMMERBanner	#
	.loc 1 322 0
	movq	-168(%rbp), %rax	# hmm, hmm.40
	movq	(%rax), %rdx	# hmm.40_126->name, D.6985
	movq	-112(%rbp), %rax	# hmmfile, tmp264
	movq	%rax, %rsi	# tmp264,
	movl	$.LC34, %edi	#,
	movl	$0, %eax	#,
	call	printf	#
	.loc 1 323 0
	movq	-104(%rbp), %rax	# seqfile, tmp265
	movq	%rax, %rsi	# tmp265,
	movl	$.LC35, %edi	#,
	movl	$0, %eax	#,
	call	printf	#
	.loc 1 324 0
	cmpl	$0, -200(%rbp)	#, do_pvm
	je	.L34	#,
	.loc 1 325 0
	movl	$.LC36, %edi	#,
	call	puts	#
.L34:
	.loc 1 326 0
	movl	$.LC37, %edi	#,
	movl	$0, %eax	#,
	call	printf	#
	.loc 1 327 0
	movss	-48(%rbp), %xmm0	# thresh.globT, D.6981
	ucomiss	.LC18(%rip), %xmm0	#, D.6981
	jp	.L35	#,
	ucomiss	.LC18(%rip), %xmm0	#, D.6981
	jne	.L35	#,
	.loc 1 327 0 is_stmt 0 discriminator 1
	movl	$.LC38, %edi	#,
	call	puts	#
	jmp	.L37	#
.L35:
	.loc 1 329 0 is_stmt 1
	movss	-48(%rbp), %xmm0	# thresh.globT, D.6981
	unpcklps	%xmm0, %xmm0	# D.6981, D.6981
	cvtps2pd	%xmm0, %xmm0	# D.6981, D.6980
	movl	$.LC39, %edi	#,
	movl	$1, %eax	#,
	call	printf	#
	.loc 1 330 0
	movl	-16(%rbp), %eax	# thresh.autocut, D.6986
	cmpl	$1, %eax	#, D.6986
	jne	.L38	#,
	.loc 1 330 0 is_stmt 0 discriminator 1
	movl	$.LC40, %edi	#,
	call	puts	#
	jmp	.L37	#
.L38:
	.loc 1 331 0 is_stmt 1
	movl	-16(%rbp), %eax	# thresh.autocut, D.6986
	cmpl	$2, %eax	#, D.6986
	jne	.L39	#,
	.loc 1 331 0 is_stmt 0 discriminator 1
	movl	$.LC41, %edi	#,
	call	puts	#
	jmp	.L37	#
.L39:
	.loc 1 332 0 is_stmt 1
	movl	-16(%rbp), %eax	# thresh.autocut, D.6986
	cmpl	$3, %eax	#, D.6986
	jne	.L40	#,
	.loc 1 332 0 is_stmt 0 discriminator 1
	movl	$.LC42, %edi	#,
	call	puts	#
	jmp	.L37	#
.L40:
	.loc 1 333 0 is_stmt 1
	movl	$10, %edi	#,
	call	putchar	#
.L37:
	.loc 1 335 0
	movl	$.LC43, %edi	#,
	movl	$0, %eax	#,
	call	printf	#
	.loc 1 336 0
	movss	-32(%rbp), %xmm0	# thresh.domT, D.6981
	ucomiss	.LC18(%rip), %xmm0	#, D.6981
	jp	.L41	#,
	ucomiss	.LC18(%rip), %xmm0	#, D.6981
	jne	.L41	#,
	.loc 1 336 0 is_stmt 0 discriminator 1
	movl	$.LC38, %edi	#,
	call	puts	#
	jmp	.L43	#
.L41:
	.loc 1 338 0 is_stmt 1
	movss	-32(%rbp), %xmm0	# thresh.domT, D.6981
	unpcklps	%xmm0, %xmm0	# D.6981, D.6981
	cvtps2pd	%xmm0, %xmm0	# D.6981, D.6980
	movl	$.LC39, %edi	#,
	movl	$1, %eax	#,
	call	printf	#
	.loc 1 339 0
	movl	-16(%rbp), %eax	# thresh.autocut, D.6986
	cmpl	$1, %eax	#, D.6986
	jne	.L44	#,
	.loc 1 339 0 is_stmt 0 discriminator 1
	movl	$.LC44, %edi	#,
	call	puts	#
	jmp	.L43	#
.L44:
	.loc 1 340 0 is_stmt 1
	movl	-16(%rbp), %eax	# thresh.autocut, D.6986
	cmpl	$2, %eax	#, D.6986
	jne	.L45	#,
	.loc 1 340 0 is_stmt 0 discriminator 1
	movl	$.LC45, %edi	#,
	call	puts	#
	jmp	.L43	#
.L45:
	.loc 1 341 0 is_stmt 1
	movl	-16(%rbp), %eax	# thresh.autocut, D.6986
	cmpl	$3, %eax	#, D.6986
	jne	.L46	#,
	.loc 1 341 0 is_stmt 0 discriminator 1
	movl	$.LC46, %edi	#,
	call	puts	#
	jmp	.L43	#
.L46:
	.loc 1 342 0 is_stmt 1
	movl	$10, %edi	#,
	call	putchar	#
.L43:
	.loc 1 344 0
	movl	$.LC47, %edi	#,
	movl	$0, %eax	#,
	call	printf	#
	.loc 1 345 0
	movsd	-40(%rbp), %xmm0	# thresh.globE, D.6980
	ucomisd	.LC19(%rip), %xmm0	#, D.6980
	jp	.L47	#,
	ucomisd	.LC19(%rip), %xmm0	#, D.6980
	jne	.L47	#,
	.loc 1 345 0 is_stmt 0 discriminator 1
	movl	$.LC38, %edi	#,
	call	puts	#
	jmp	.L49	#
.L47:
	.loc 1 346 0 is_stmt 1
	movq	-40(%rbp), %rax	# thresh.globE, D.6980
	movq	%rax, -296(%rbp)	# D.6980, %sfp
	movsd	-296(%rbp), %xmm0	# %sfp,
	movl	$.LC48, %edi	#,
	movl	$1, %eax	#,
	call	printf	#
.L49:
	.loc 1 348 0
	movl	$.LC49, %edi	#,
	movl	$0, %eax	#,
	call	printf	#
	.loc 1 349 0
	movsd	-24(%rbp), %xmm0	# thresh.domE, D.6980
	ucomisd	.LC19(%rip), %xmm0	#, D.6980
	jp	.L50	#,
	ucomisd	.LC19(%rip), %xmm0	#, D.6980
	jne	.L50	#,
	.loc 1 349 0 is_stmt 0 discriminator 1
	movl	$.LC38, %edi	#,
	call	puts	#
	jmp	.L52	#
.L50:
	.loc 1 350 0 is_stmt 1
	movq	-24(%rbp), %rax	# thresh.domE, D.6980
	movq	%rax, -296(%rbp)	# D.6980, %sfp
	movsd	-296(%rbp), %xmm0	# %sfp,
	movl	$.LC50, %edi	#,
	movl	$1, %eax	#,
	call	printf	#
.L52:
	.loc 1 351 0
	movl	$.LC51, %edi	#,
	call	puts	#
	.loc 1 358 0
	movl	$100, %edx	#,
	movl	$200, %esi	#,
	movl	$-200, %edi	#,
	call	AllocHistogram	#
	movq	%rax, -80(%rbp)	# tmp266, histogram
	.loc 1 359 0
	movl	$200, %edi	#,
	call	AllocTophits	#
	movq	%rax, -72(%rbp)	# tmp267, ghit
	.loc 1 360 0
	movl	$200, %edi	#,
	call	AllocTophits	#
	movq	%rax, -64(%rbp)	# tmp268, dhit
	.loc 1 362 0
	cmpl	$0, -184(%rbp)	#, pvm_support
	je	.L53	#,
	.loc 1 362 0 is_stmt 0 discriminator 1
	cmpl	$0, -200(%rbp)	#, do_pvm
	je	.L53	#,
	.loc 1 363 0 is_stmt 1
	movq	-168(%rbp), %rax	# hmm, hmm.41
	movl	-204(%rbp), %r9d	# do_xnu, tmp269
	movl	-212(%rbp), %r8d	# do_null2, tmp270
	movl	-208(%rbp), %ecx	# do_forward, tmp271
	leaq	-48(%rbp), %rdx	#, tmp272
	movq	-96(%rbp), %rsi	# sqfp, tmp273
	leaq	-244(%rbp), %rdi	#, tmp274
	movq	%rdi, 24(%rsp)	# tmp274,
	movq	-64(%rbp), %rdi	# dhit, tmp275
	movq	%rdi, 16(%rsp)	# tmp275,
	movq	-72(%rbp), %rdi	# ghit, tmp276
	movq	%rdi, 8(%rsp)	# tmp276,
	movq	-80(%rbp), %rdi	# histogram, tmp277
	movq	%rdi, (%rsp)	# tmp277,
	movq	%rax, %rdi	# hmm.41,
	call	main_loop_pvm	#
	jmp	.L54	#
.L53:
	.loc 1 365 0
	cmpl	$0, -180(%rbp)	#, threads_support
	je	.L55	#,
	.loc 1 365 0 is_stmt 0 discriminator 1
	cmpl	$0, -192(%rbp)	#, num_threads
	je	.L55	#,
	.loc 1 366 0 is_stmt 1
	movq	-168(%rbp), %rax	# hmm, hmm.42
	movl	-204(%rbp), %r9d	# do_xnu, tmp278
	movl	-212(%rbp), %r8d	# do_null2, tmp279
	movl	-208(%rbp), %ecx	# do_forward, tmp280
	leaq	-48(%rbp), %rdx	#, tmp281
	movq	-96(%rbp), %rsi	# sqfp, tmp282
	leaq	-244(%rbp), %rdi	#, tmp283
	movq	%rdi, 32(%rsp)	# tmp283,
	movq	-64(%rbp), %rdi	# dhit, tmp284
	movq	%rdi, 24(%rsp)	# tmp284,
	movq	-72(%rbp), %rdi	# ghit, tmp285
	movq	%rdi, 16(%rsp)	# tmp285,
	movq	-80(%rbp), %rdi	# histogram, tmp286
	movq	%rdi, 8(%rsp)	# tmp286,
	movl	-192(%rbp), %edi	# num_threads, tmp287
	movl	%edi, (%rsp)	# tmp287,
	movq	%rax, %rdi	# hmm.42,
	call	main_loop_threaded	#
	jmp	.L54	#
.L55:
	.loc 1 369 0
	movq	-168(%rbp), %rax	# hmm, hmm.43
	movl	-204(%rbp), %r9d	# do_xnu, tmp288
	movl	-212(%rbp), %r8d	# do_null2, tmp289
	movl	-208(%rbp), %ecx	# do_forward, tmp290
	leaq	-48(%rbp), %rdx	#, tmp291
	movq	-96(%rbp), %rsi	# sqfp, tmp292
	leaq	-244(%rbp), %rdi	#, tmp293
	movq	%rdi, 24(%rsp)	# tmp293,
	movq	-64(%rbp), %rdi	# dhit, tmp294
	movq	%rdi, 16(%rsp)	# tmp294,
	movq	-72(%rbp), %rdi	# ghit, tmp295
	movq	%rdi, 8(%rsp)	# tmp295,
	movq	-80(%rbp), %rdi	# histogram, tmp296
	movq	%rdi, (%rsp)	# tmp296,
	movq	%rax, %rdi	# hmm.43,
	call	main_loop_serial	#
.L54:
	.loc 1 379 0
	movq	-168(%rbp), %rax	# hmm, hmm.44
	movl	456(%rax), %eax	# hmm.44_150->flags, D.6979
	andl	$128, %eax	#, D.6979
	testl	%eax, %eax	# D.6979
	je	.L56	#,
	.loc 1 381 0
	movq	-80(%rbp), %rax	# histogram, tmp297
	movl	16(%rax), %eax	# histogram_144->highscore, D.6979
	.loc 1 380 0
	cvtsi2ss	%eax, %xmm1	# D.6979, D.6981
	.loc 1 381 0
	movq	-80(%rbp), %rax	# histogram, tmp298
	movl	20(%rax), %eax	# histogram_144->lowscore, D.6979
	.loc 1 380 0
	cvtsi2ss	%eax, %xmm0	# D.6979, D.6981
	movq	-168(%rbp), %rax	# hmm, hmm.45
	movl	452(%rax), %edx	# hmm.45_157->lambda, D.6981
	movq	-168(%rbp), %rax	# hmm, hmm.46
	movl	448(%rax), %eax	# hmm.46_159->mu, D.6981
	movq	-80(%rbp), %rcx	# histogram, tmp299
	movl	$0, %esi	#,
	movaps	%xmm1, %xmm3	# D.6981,
	movaps	%xmm0, %xmm2	# D.6981,
	movl	%edx, -296(%rbp)	# D.6981, %sfp
	movss	-296(%rbp), %xmm1	# %sfp,
	movl	%eax, -296(%rbp)	# D.6981, %sfp
	movss	-296(%rbp), %xmm0	# %sfp,
	movq	%rcx, %rdi	# tmp299,
	call	ExtremeValueSetHistogram	#
.L56:
	.loc 1 382 0
	movl	-12(%rbp), %eax	# thresh.Z, D.6979
	testl	%eax, %eax	# D.6979
	jne	.L57	#,
	.loc 1 382 0 is_stmt 0 discriminator 1
	movl	-244(%rbp), %eax	# nseq, nseq.47
	movl	%eax, -12(%rbp)	# nseq.47, thresh.Z
.L57:
	.loc 1 387 0 is_stmt 1
	cmpl	$0, -196(%rbp)	#, be_backwards
	je	.L58	#,
	.loc 1 392 0
	movq	-168(%rbp), %rax	# hmm, hmm.49
	movl	456(%rax), %eax	# hmm.49_163->flags, D.6979
	andl	$2, %eax	#, D.6979
	.loc 1 389 0
	testl	%eax, %eax	# D.6979
	je	.L59	#,
	.loc 1 392 0
	movq	-168(%rbp), %rax	# hmm, hmm.50
	.loc 1 389 0
	movq	16(%rax), %rdx	# hmm.50_166->desc, iftmp.48
	jmp	.L60	#
.L59:
	.loc 1 389 0 is_stmt 0 discriminator 1
	movl	$.LC52, %edx	#, iftmp.48
.L60:
	.loc 1 391 0 is_stmt 1 discriminator 2
	movq	-168(%rbp), %rax	# hmm, hmm.52
	movl	456(%rax), %eax	# hmm.52_169->flags, D.6979
	andl	$512, %eax	#, D.6979
	.loc 1 389 0 discriminator 2
	testl	%eax, %eax	# D.6979
	je	.L61	#,
	.loc 1 391 0
	movq	-168(%rbp), %rax	# hmm, hmm.53
	.loc 1 389 0
	movq	8(%rax), %rax	# hmm.53_172->acc, iftmp.51
	jmp	.L62	#
.L61:
	.loc 1 389 0 is_stmt 0 discriminator 3
	movl	$.LC52, %eax	#, iftmp.51
.L62:
	.loc 1 390 0 is_stmt 1 discriminator 1
	movq	-168(%rbp), %rcx	# hmm, hmm.54
	.loc 1 389 0 discriminator 1
	movq	(%rcx), %rsi	# hmm.54_175->name, D.6985
	movq	%rdx, %rcx	# iftmp.48,
	movq	%rax, %rdx	# iftmp.51,
	movl	$.LC53, %edi	#,
	movl	$0, %eax	#,
	call	printf	#
	jmp	.L63	#
.L58:
	.loc 1 396 0
	movq	-168(%rbp), %rax	# hmm, hmm.55
	movq	(%rax), %rax	# hmm.55_177->name, D.6985
	movq	%rax, %rsi	# D.6985,
	movl	$.LC54, %edi	#,
	movl	$0, %eax	#,
	call	printf	#
	.loc 1 397 0
	movq	-168(%rbp), %rax	# hmm, hmm.57
	movl	456(%rax), %eax	# hmm.57_179->flags, D.6979
	andl	$512, %eax	#, D.6979
	testl	%eax, %eax	# D.6979
	je	.L64	#,
	.loc 1 397 0 is_stmt 0 discriminator 1
	movq	-168(%rbp), %rax	# hmm, hmm.58
	movq	8(%rax), %rax	# hmm.58_182->acc, iftmp.56
	jmp	.L65	#
.L64:
	.loc 1 397 0 discriminator 2
	movl	$.LC38, %eax	#, iftmp.56
.L65:
	.loc 1 397 0 discriminator 3
	movq	%rax, %rsi	# iftmp.56,
	movl	$.LC55, %edi	#,
	movl	$0, %eax	#,
	call	printf	#
	.loc 1 398 0 is_stmt 1 discriminator 3
	movq	-168(%rbp), %rax	# hmm, hmm.60
	movl	456(%rax), %eax	# hmm.60_185->flags, D.6979
	andl	$2, %eax	#, D.6979
	testl	%eax, %eax	# D.6979
	je	.L66	#,
	.loc 1 398 0 is_stmt 0 discriminator 1
	movq	-168(%rbp), %rax	# hmm, hmm.61
	movq	16(%rax), %rax	# hmm.61_188->desc, iftmp.59
	jmp	.L67	#
.L66:
	.loc 1 398 0 discriminator 2
	movl	$.LC38, %eax	#, iftmp.59
.L67:
	.loc 1 398 0 discriminator 3
	movq	%rax, %rsi	# iftmp.59,
	movl	$.LC56, %edi	#,
	movl	$0, %eax	#,
	call	printf	#
.L63:
	.loc 1 401 0 is_stmt 1
	movq	-168(%rbp), %rax	# hmm, hmm.62
	movl	456(%rax), %eax	# hmm.62_191->flags, D.6979
	andl	$128, %eax	#, D.6979
	testl	%eax, %eax	# D.6979
	je	.L68	#,
	.loc 1 402 0
	movl	$.LC57, %edi	#,
	call	puts	#
	jmp	.L69	#
.L68:
	.loc 1 404 0
	movl	$.LC58, %edi	#,
	call	puts	#
.L69:
	.loc 1 406 0
	movq	-72(%rbp), %rax	# ghit, tmp300
	movq	%rax, %rdi	# tmp300,
	call	FullSortTophits	#
	.loc 1 407 0
	movq	-72(%rbp), %rax	# ghit, tmp301
	movq	%rax, %rdi	# tmp301,
	call	TophitsMaxName	#
	cmpl	$7, %eax	#, D.6979
	jle	.L70	#,
	.loc 1 407 0 is_stmt 0 discriminator 1
	movq	-72(%rbp), %rax	# ghit, tmp302
	movq	%rax, %rdi	# tmp302,
	call	TophitsMaxName	#
	jmp	.L71	#
.L70:
	.loc 1 407 0 discriminator 2
	movl	$8, %eax	#, iftmp.63
.L71:
	.loc 1 407 0 discriminator 3
	movl	%eax, -176(%rbp)	# iftmp.63, namewidth
	.loc 1 408 0 is_stmt 1 discriminator 3
	movl	$52, %eax	#, tmp303
	subl	-176(%rbp), %eax	# namewidth, D.6979
	movl	$11, %edx	#, tmp305
	cmpl	$11, %eax	#, D.6979
	cmovl	%edx, %eax	# D.6979,, tmp305, tmp304
	movl	%eax, -172(%rbp)	# tmp304, descwidth
	.loc 1 456 0 discriminator 3
	movq	-64(%rbp), %rax	# dhit, tmp306
	movq	%rax, %rdi	# tmp306,
	call	FullSortTophits	#
	.loc 1 457 0 discriminator 3
	movq	-64(%rbp), %rax	# dhit, tmp307
	movq	%rax, %rdi	# tmp307,
	call	TophitsMaxName	#
	cmpl	$7, %eax	#, D.6979
	jle	.L72	#,
	.loc 1 457 0 is_stmt 0 discriminator 1
	movq	-64(%rbp), %rax	# dhit, tmp308
	movq	%rax, %rdi	# tmp308,
	call	TophitsMaxName	#
	jmp	.L73	#
.L72:
	.loc 1 457 0 discriminator 2
	movl	$8, %eax	#, iftmp.64
.L73:
	.loc 1 457 0 discriminator 3
	movl	%eax, -176(%rbp)	# iftmp.64, namewidth
	.loc 1 503 0 is_stmt 1 discriminator 3
	cmpl	$0, -216(%rbp)	#, Alimit
	je	.L74	#,
	.loc 1 505 0
	movl	$.LC59, %edi	#,
	call	puts	#
	.loc 1 506 0
	movl	$0, -224(%rbp)	#, i
	movl	$0, -220(%rbp)	#, nreported
	jmp	.L75	#
.L84:
	.loc 1 508 0
	movl	-220(%rbp), %eax	# nreported, tmp309
	cmpl	-216(%rbp), %eax	# Alimit, tmp309
	jne	.L76	#,
	.loc 1 508 0 is_stmt 0 discriminator 1
	jmp	.L77	#
.L76:
	.loc 1 509 0 is_stmt 1
	leaq	-268(%rbp), %r9	#, tmp310
	leaq	-144(%rbp), %r8	#, tmp311
	leaq	-272(%rbp), %rcx	#, tmp312
	leaq	-152(%rbp), %rdx	#, tmp313
	movl	-224(%rbp), %esi	# i, tmp314
	movq	-64(%rbp), %rax	# dhit, tmp315
	leaq	-160(%rbp), %rdi	#, tmp316
	movq	%rdi, 88(%rsp)	# tmp316,
	leaq	-236(%rbp), %rdi	#, tmp317
	movq	%rdi, 80(%rsp)	# tmp317,
	leaq	-240(%rbp), %rdi	#, tmp318
	movq	%rdi, 72(%rsp)	# tmp318,
	movq	$0, 64(%rsp)	#,
	leaq	-252(%rbp), %rdi	#, tmp319
	movq	%rdi, 56(%rsp)	# tmp319,
	leaq	-256(%rbp), %rdi	#, tmp320
	movq	%rdi, 48(%rsp)	# tmp320,
	leaq	-248(%rbp), %rdi	#, tmp321
	movq	%rdi, 40(%rsp)	# tmp321,
	leaq	-260(%rbp), %rdi	#, tmp322
	movq	%rdi, 32(%rsp)	# tmp322,
	leaq	-264(%rbp), %rdi	#, tmp323
	movq	%rdi, 24(%rsp)	# tmp323,
	movq	$0, 16(%rsp)	#,
	movq	$0, 8(%rsp)	#,
	leaq	-136(%rbp), %rdi	#, tmp324
	movq	%rdi, (%rsp)	# tmp324,
	movq	%rax, %rdi	# tmp315,
	call	GetRankedHit	#
	.loc 1 516 0
	movl	-12(%rbp), %eax	# thresh.Z, D.6979
	cvtsi2sd	%eax, %xmm0	# D.6979, D.6980
	movsd	-152(%rbp), %xmm1	# pvalue, pvalue.65
	mulsd	%xmm1, %xmm0	# pvalue.65, tmp325
	movsd	%xmm0, -56(%rbp)	# tmp325, evalue
	.loc 1 518 0
	movl	-12(%rbp), %eax	# thresh.Z, D.6979
	cvtsi2sd	%eax, %xmm0	# D.6979, D.6980
	movsd	-144(%rbp), %xmm1	# motherp, motherp.66
	mulsd	%xmm1, %xmm0	# motherp.66, D.6980
	movsd	-40(%rbp), %xmm1	# thresh.globE, D.6980
	ucomisd	%xmm1, %xmm0	# D.6980, D.6980
	ja	.L78	#,
	.loc 1 518 0 is_stmt 0 discriminator 1
	movss	-48(%rbp), %xmm0	# thresh.globT, D.6981
	movss	-268(%rbp), %xmm1	# mothersc, mothersc.67
	ucomiss	%xmm1, %xmm0	# mothersc.67, D.6981
	jbe	.L93	#,
.L78:
	.loc 1 519 0 is_stmt 1
	jmp	.L81	#
.L93:
	.loc 1 520 0
	movsd	-24(%rbp), %xmm0	# thresh.domE, D.6980
	ucomisd	-56(%rbp), %xmm0	# evalue, D.6980
	jb	.L81	#,
	.loc 1 520 0 is_stmt 0 discriminator 1
	movss	-32(%rbp), %xmm1	# thresh.domT, D.6981
	movss	-272(%rbp), %xmm0	# sc, sc.68
	ucomiss	%xmm1, %xmm0	# D.6981, sc.68
	jb	.L81	#,
	.loc 1 522 0 is_stmt 1
	movss	-272(%rbp), %xmm0	# sc, sc.69
	unpcklps	%xmm0, %xmm0	# sc.69, sc.69
	cvtps2pd	%xmm0, %xmm0	# sc.69, D.6980
	movl	-260(%rbp), %r8d	# sqto, sqto.70
	movl	-264(%rbp), %edi	# sqfrom, sqfrom.71
	movl	-236(%rbp), %ecx	# ndom, ndom.72
	movl	-240(%rbp), %edx	# domidx, domidx.73
	movq	-136(%rbp), %rsi	# name, name.74
	movq	-56(%rbp), %rax	# evalue, tmp326
	movq	%rax, -296(%rbp)	# tmp326, %sfp
	movsd	-296(%rbp), %xmm1	# %sfp,
	movl	%r8d, %r9d	# sqto.70,
	movl	%edi, %r8d	# sqfrom.71,
	movl	$.LC60, %edi	#,
	movl	$2, %eax	#,
	call	printf	#
	.loc 1 524 0
	movq	-160(%rbp), %rdx	# ali, ali.75
	movq	stdout(%rip), %rax	# stdout, stdout.76
	movq	%rdx, %rsi	# ali.75,
	movq	%rax, %rdi	# stdout.76,
	call	PrintFancyAli	#
	.loc 1 525 0
	addl	$1, -220(%rbp)	#, nreported
.L81:
	.loc 1 506 0
	addl	$1, -224(%rbp)	#, i
.L75:
	.loc 1 506 0 is_stmt 0 discriminator 1
	movq	-64(%rbp), %rax	# dhit, tmp327
	movl	20(%rax), %eax	# dhit_146->num, D.6979
	cmpl	-224(%rbp), %eax	# i, D.6979
	jg	.L84	#,
.L77:
	.loc 1 528 0 is_stmt 1
	cmpl	$0, -220(%rbp)	#, nreported
	jne	.L85	#,
	.loc 1 528 0 is_stmt 0 discriminator 1
	movl	$.LC61, %edi	#,
	call	puts	#
.L85:
	.loc 1 529 0 is_stmt 1
	movl	-220(%rbp), %eax	# nreported, tmp328
	cmpl	-216(%rbp), %eax	# Alimit, tmp328
	jne	.L74	#,
	.loc 1 529 0 is_stmt 0 discriminator 1
	movl	-216(%rbp), %eax	# Alimit, tmp329
	movl	%eax, %esi	# tmp329,
	movl	$.LC62, %edi	#,
	movl	$0, %eax	#,
	call	printf	#
.L74:
	.loc 1 557 0 is_stmt 1
	movl	-244(%rbp), %eax	# nseq, nseq.77
	movl	%eax, %esi	# nseq.77,
	movl	$.LC63, %edi	#,
	movl	$0, %eax	#,
	call	printf	#
	.loc 1 562 0
	movq	-80(%rbp), %rax	# histogram, tmp330
	movq	%rax, %rdi	# tmp330,
	call	FreeHistogram	#
	.loc 1 563 0
	movq	-88(%rbp), %rax	# hmmfp, tmp331
	movq	%rax, %rdi	# tmp331,
	call	HMMFileClose	#
	.loc 1 564 0
	movq	-96(%rbp), %rax	# sqfp, tmp332
	movq	%rax, %rdi	# tmp332,
	call	SeqfileClose	#
	.loc 1 565 0
	movq	-72(%rbp), %rax	# ghit, tmp333
	movq	%rax, %rdi	# tmp333,
	call	FreeTophits	#
	.loc 1 566 0
	movq	-64(%rbp), %rax	# dhit, tmp334
	movq	%rax, %rdi	# tmp334,
	call	FreeTophits	#
	.loc 1 567 0
	movq	-168(%rbp), %rax	# hmm, hmm.78
	movq	%rax, %rdi	# hmm.78,
	call	FreePlan7	#
	.loc 1 568 0
	call	SqdClean	#
	.loc 1 570 0
	movl	$0, %eax	#, D.6979
.L86:
	.loc 1 571 0
	leave
	.cfi_def_cfa 7, 8
	ret
	.cfi_endproc
.LFE2:
	.size	main, .-main
	.type	main_loop_serial, @function
main_loop_serial:
.LFB3:
	.loc 1 602 0
	.cfi_startproc
	pushq	%rbp	#
	.cfi_def_cfa_offset 16
	.cfi_offset 6, -16
	movq	%rsp, %rbp	#,
	.cfi_def_cfa_register 6
	pushq	%rbx	#
	subq	$584, %rsp	#,
	.cfi_offset 3, -24
	movq	%rdi, -456(%rbp)	# hmm, hmm
	movq	%rsi, -464(%rbp)	# sqfp, sqfp
	movq	%rdx, -472(%rbp)	# thresh, thresh
	movl	%ecx, -476(%rbp)	# do_forward, do_forward
	movl	%r8d, -480(%rbp)	# do_null2, do_null2
	movl	%r9d, -484(%rbp)	# do_xnu, do_xnu
	movq	16(%rbp), %rax	# histogram, tmp92
	movq	%rax, -496(%rbp)	# tmp92, histogram
	movq	24(%rbp), %rax	# ghit, tmp93
	movq	%rax, -504(%rbp)	# tmp93, ghit
	movq	32(%rbp), %rax	# dhit, tmp94
	movq	%rax, -512(%rbp)	# tmp94, dhit
	movq	40(%rbp), %rax	# ret_nseq, tmp95
	movq	%rax, -520(%rbp)	# tmp95, ret_nseq
	.loc 1 602 0
	movq	%fs:40, %rax	#, tmp150
	movq	%rax, -24(%rbp)	# tmp150, D.7035
	xorl	%eax, %eax	# tmp150
	.loc 1 617 0
	movq	-456(%rbp), %rax	# hmm, tmp96
	movl	136(%rax), %eax	# hmm_8(D)->M, D.7032
	movl	$0, %ecx	#,
	movl	$25, %edx	#,
	movl	%eax, %esi	# D.7032,
	movl	$1, %edi	#,
	call	CreatePlan7Matrix	#
	movq	%rax, -416(%rbp)	# tmp97, mx
	.loc 1 619 0
	movl	$0, -436(%rbp)	#, nseq
	.loc 1 620 0
	jmp	.L95	#
.L110:
	.loc 1 626 0
	movl	-60(%rbp), %eax	# sqinfo.len, D.7032
	testl	%eax, %eax	# D.7032
	jne	.L96	#,
	.loc 1 626 0 is_stmt 0 discriminator 1
	jmp	.L95	#
.L96:
	.loc 1 628 0 is_stmt 1
	addl	$1, -436(%rbp)	#, nseq
	.loc 1 629 0
	movl	-60(%rbp), %edx	# sqinfo.len, D.7032
	movq	-424(%rbp), %rax	# seq, seq.79
	movl	%edx, %esi	# D.7032,
	movq	%rax, %rdi	# seq.79,
	call	DigitizeSequence	#
	movq	%rax, -408(%rbp)	# tmp98, dsq
	.loc 1 631 0
	cmpl	$0, -484(%rbp)	#, do_xnu
	je	.L97	#,
	.loc 1 631 0 is_stmt 0 discriminator 1
	movl	Alphabet_type(%rip), %eax	# Alphabet_type, Alphabet_type.80
	cmpl	$3, %eax	#, Alphabet_type.80
	jne	.L97	#,
	movl	-60(%rbp), %edx	# sqinfo.len, D.7032
	movq	-408(%rbp), %rax	# dsq, tmp99
	movl	%edx, %esi	# D.7032,
	movq	%rax, %rdi	# tmp99,
	call	XNU	#
.L97:
	.loc 1 639 0 is_stmt 1
	movq	-456(%rbp), %rax	# hmm, tmp100
	movl	136(%rax), %edx	# hmm_8(D)->M, D.7032
	movl	-60(%rbp), %eax	# sqinfo.len, D.7032
	movl	%edx, %esi	# D.7032,
	movl	%eax, %edi	# D.7032,
	call	P7ViterbiSize	#
	cmpl	$1000, %eax	#, D.7032
	jg	.L98	#,
	.loc 1 640 0
	movl	-60(%rbp), %esi	# sqinfo.len, D.7032
	leaq	-432(%rbp), %rdi	#, tmp101
	movq	-416(%rbp), %rcx	# mx, tmp102
	movq	-456(%rbp), %rdx	# hmm, tmp103
	movq	-408(%rbp), %rax	# dsq, tmp104
	movq	%rdi, %r8	# tmp101,
	movq	%rax, %rdi	# tmp104,
	call	P7Viterbi	#
	movss	%xmm0, -528(%rbp)	#, %sfp
	movl	-528(%rbp), %eax	# %sfp, tmp105
	movl	%eax, -440(%rbp)	# tmp105, sc
	jmp	.L99	#
.L98:
	.loc 1 642 0
	movl	-60(%rbp), %esi	# sqinfo.len, D.7032
	leaq	-432(%rbp), %rdi	#, tmp106
	movq	-416(%rbp), %rcx	# mx, tmp107
	movq	-456(%rbp), %rdx	# hmm, tmp108
	movq	-408(%rbp), %rax	# dsq, tmp109
	movq	%rdi, %r8	# tmp106,
	movq	%rax, %rdi	# tmp109,
	call	P7SmallViterbi	#
	movss	%xmm0, -528(%rbp)	#, %sfp
	movl	-528(%rbp), %eax	# %sfp, tmp110
	movl	%eax, -440(%rbp)	# tmp110, sc
.L99:
	.loc 1 648 0
	cmpl	$0, -476(%rbp)	#, do_forward
	je	.L100	#,
	.loc 1 649 0
	movl	-60(%rbp), %esi	# sqinfo.len, D.7032
	movq	-456(%rbp), %rdx	# hmm, tmp111
	movq	-408(%rbp), %rax	# dsq, tmp112
	movl	$0, %ecx	#,
	movq	%rax, %rdi	# tmp112,
	call	P7Forward	#
	movss	%xmm0, -528(%rbp)	#, %sfp
	movl	-528(%rbp), %eax	# %sfp, tmp113
	movl	%eax, -440(%rbp)	# tmp113, sc
	.loc 1 650 0
	cmpl	$0, -480(%rbp)	#, do_null2
	je	.L100	#,
	.loc 1 650 0 is_stmt 0 discriminator 1
	movq	-432(%rbp), %rcx	# tr, tr.81
	movq	-408(%rbp), %rdx	# dsq, tmp114
	movq	-456(%rbp), %rax	# hmm, tmp115
	movq	%rcx, %rsi	# tr.81,
	movq	%rax, %rdi	# tmp115,
	call	TraceScoreCorrection	#
	movss	-440(%rbp), %xmm1	# sc, tmp117
	subss	%xmm0, %xmm1	# D.7033, tmp116
	movaps	%xmm1, %xmm0	# tmp116, tmp116
	movss	%xmm0, -440(%rbp)	# tmp116, sc
.L100:
	.loc 1 665 0 is_stmt 1
	movl	-440(%rbp), %eax	# sc, tmp118
	movq	-456(%rbp), %rdx	# hmm, tmp119
	movl	%eax, -528(%rbp)	# tmp118, %sfp
	movss	-528(%rbp), %xmm0	# %sfp,
	movq	%rdx, %rdi	# tmp119,
	call	PValue	#
	movsd	%xmm0, -528(%rbp)	#, %sfp
	movq	-528(%rbp), %rax	# %sfp, tmp120
	movq	%rax, -400(%rbp)	# tmp120, pvalue
	.loc 1 666 0
	movq	-472(%rbp), %rax	# thresh, tmp121
	movl	36(%rax), %eax	# thresh_38(D)->Z, D.7032
	testl	%eax, %eax	# D.7032
	je	.L101	#,
	.loc 1 666 0 is_stmt 0 discriminator 1
	movq	-472(%rbp), %rax	# thresh, tmp122
	movl	36(%rax), %eax	# thresh_38(D)->Z, D.7032
	cvtsi2sd	%eax, %xmm0	# D.7032, D.7034
	mulsd	-400(%rbp), %xmm0	# pvalue, iftmp.82
	jmp	.L102	#
.L101:
	.loc 1 666 0 discriminator 2
	cvtsi2sd	-436(%rbp), %xmm0	# nseq, D.7034
	mulsd	-400(%rbp), %xmm0	# pvalue, iftmp.82
.L102:
	.loc 1 666 0 discriminator 3
	movsd	%xmm0, -392(%rbp)	# iftmp.82, evalue
	.loc 1 667 0 is_stmt 1 discriminator 3
	movq	-472(%rbp), %rax	# thresh, tmp123
	movss	(%rax), %xmm1	# thresh_38(D)->globT, D.7033
	movss	-440(%rbp), %xmm0	# sc, tmp124
	ucomiss	%xmm1, %xmm0	# D.7033, tmp124
	jb	.L103	#,
	.loc 1 667 0 is_stmt 0 discriminator 1
	movq	-472(%rbp), %rax	# thresh, tmp125
	movsd	8(%rax), %xmm0	# thresh_38(D)->globE, D.7034
	ucomisd	-392(%rbp), %xmm0	# evalue, D.7034
	jb	.L103	#,
	.loc 1 673 0 is_stmt 1
	movl	-384(%rbp), %eax	# sqinfo.flags, D.7032
	andl	$8, %eax	#, D.7032
	.loc 1 669 0
	testl	%eax, %eax	# D.7032
	je	.L106	#,
	.loc 1 669 0 is_stmt 0 discriminator 1
	leaq	-384(%rbp), %rax	#, tmp126
	leaq	196(%rax), %rcx	#, iftmp.83
	jmp	.L107	#
.L106:
	.loc 1 669 0 discriminator 2
	movl	$0, %ecx	#, iftmp.83
.L107:
	.loc 1 672 0 is_stmt 1 discriminator 3
	movl	-384(%rbp), %eax	# sqinfo.flags, D.7032
	andl	$4, %eax	#, D.7032
	.loc 1 669 0 discriminator 3
	testl	%eax, %eax	# D.7032
	je	.L108	#,
	.loc 1 669 0 is_stmt 0 discriminator 4
	leaq	-384(%rbp), %rax	#, tmp127
	leaq	132(%rax), %rdx	#, iftmp.84
	jmp	.L109	#
.L108:
	.loc 1 669 0 discriminator 5
	movl	$0, %edx	#, iftmp.84
.L109:
	.loc 1 669 0 discriminator 6
	movl	-60(%rbp), %r9d	# sqinfo.len, D.7032
	movq	-432(%rbp), %r10	# tr, tr.85
	movl	-440(%rbp), %eax	# sc, tmp128
	movq	-408(%rbp), %rbx	# dsq, tmp129
	movq	-456(%rbp), %r11	# hmm, tmp130
	movq	-512(%rbp), %rsi	# dhit, tmp131
	movq	-504(%rbp), %rdi	# ghit, tmp132
	movl	$0, 48(%rsp)	#,
	movq	-472(%rbp), %r8	# thresh, tmp133
	movq	%r8, 40(%rsp)	# tmp133,
	movl	-480(%rbp), %r8d	# do_null2, tmp134
	movl	%r8d, 32(%rsp)	# tmp134,
	movl	-476(%rbp), %r8d	# do_forward, tmp135
	movl	%r8d, 24(%rsp)	# tmp135,
	movq	%rcx, 16(%rsp)	# iftmp.83,
	movq	%rdx, 8(%rsp)	# iftmp.84,
	leaq	-384(%rbp), %rdx	#, tmp136
	addq	$4, %rdx	#, tmp137
	movq	%rdx, (%rsp)	# tmp137,
	movl	%eax, -528(%rbp)	# tmp128, %sfp
	movss	-528(%rbp), %xmm0	# %sfp,
	movq	%rbx, %r8	# tmp129,
	movq	%r11, %rcx	# tmp130,
	movq	%r10, %rdx	# tr.85,
	call	PostprocessSignificantHit	#
	movss	%xmm0, -528(%rbp)	#, %sfp
	movl	-528(%rbp), %eax	# %sfp, tmp138
	movl	%eax, -440(%rbp)	# tmp138, sc
.L103:
	.loc 1 680 0 is_stmt 1
	movl	-440(%rbp), %eax	# sc, tmp139
	movq	-496(%rbp), %rdx	# histogram, tmp140
	movl	%eax, -528(%rbp)	# tmp139, %sfp
	movss	-528(%rbp), %xmm0	# %sfp,
	movq	%rdx, %rdi	# tmp140,
	call	AddToHistogram	#
	.loc 1 681 0
	movq	-424(%rbp), %rax	# seq, seq.86
	leaq	-384(%rbp), %rdx	#, tmp141
	movq	%rdx, %rsi	# tmp141,
	movq	%rax, %rdi	# seq.86,
	call	FreeSequence	#
	.loc 1 682 0
	movq	-432(%rbp), %rax	# tr, tr.87
	movq	%rax, %rdi	# tr.87,
	call	P7FreeTrace	#
	.loc 1 683 0
	movq	-408(%rbp), %rax	# dsq, tmp142
	movq	%rax, %rdi	# tmp142,
	call	free	#
.L95:
	.loc 1 620 0 discriminator 1
	movq	-464(%rbp), %rax	# sqfp, tmp143
	movl	144(%rax), %esi	# sqfp_12(D)->format, D.7032
	leaq	-384(%rbp), %rcx	#, tmp144
	leaq	-424(%rbp), %rdx	#, tmp145
	movq	-464(%rbp), %rax	# sqfp, tmp146
	movq	%rax, %rdi	# tmp146,
	call	ReadSeq	#
	testl	%eax, %eax	# D.7032
	jne	.L110	#,
	.loc 1 686 0
	movq	-416(%rbp), %rax	# mx, tmp147
	movq	%rax, %rdi	# tmp147,
	call	FreePlan7Matrix	#
	.loc 1 687 0
	movq	-520(%rbp), %rax	# ret_nseq, tmp148
	movl	-436(%rbp), %edx	# nseq, tmp149
	movl	%edx, (%rax)	# tmp149, *ret_nseq_64(D)
	.loc 1 688 0
	nop
	.loc 1 689 0
	movq	-24(%rbp), %rax	# D.7035, tmp151
	xorq	%fs:40, %rax	#, tmp151
	je	.L112	#,
	call	__stack_chk_fail	#
.L112:
	addq	$584, %rsp	#,
	popq	%rbx	#
	popq	%rbp	#
	.cfi_def_cfa 7, 8
	ret
	.cfi_endproc
.LFE3:
	.size	main_loop_serial, .-main_loop_serial
	.section	.rodata
.LC64:
	.string	"No PVM support"
	.text
	.type	main_loop_pvm, @function
main_loop_pvm:
.LFB4:
	.loc 1 935 0
	.cfi_startproc
	pushq	%rbp	#
	.cfi_def_cfa_offset 16
	.cfi_offset 6, -16
	movq	%rsp, %rbp	#,
	.cfi_def_cfa_register 6
	subq	$48, %rsp	#,
	movq	%rdi, -8(%rbp)	# hmm, hmm
	movq	%rsi, -16(%rbp)	# sqfp, sqfp
	movq	%rdx, -24(%rbp)	# thresh, thresh
	movl	%ecx, -28(%rbp)	# do_forward, do_forward
	movl	%r8d, -32(%rbp)	# do_null2, do_null2
	movl	%r9d, -36(%rbp)	# do_xnu, do_xnu
	.loc 1 936 0
	movl	$.LC64, %edi	#,
	movl	$0, %eax	#,
	call	Die	#
	.loc 1 937 0
	leave
	.cfi_def_cfa 7, 8
	ret
	.cfi_endproc
.LFE4:
	.size	main_loop_pvm, .-main_loop_pvm
	.section	.rodata
.LC65:
	.string	"No threads support"
	.text
	.type	main_loop_threaded, @function
main_loop_threaded:
.LFB5:
	.loc 1 1215 0
	.cfi_startproc
	pushq	%rbp	#
	.cfi_def_cfa_offset 16
	.cfi_offset 6, -16
	movq	%rsp, %rbp	#,
	.cfi_def_cfa_register 6
	subq	$48, %rsp	#,
	movq	%rdi, -8(%rbp)	# hmm, hmm
	movq	%rsi, -16(%rbp)	# sqfp, sqfp
	movq	%rdx, -24(%rbp)	# thresh, thresh
	movl	%ecx, -28(%rbp)	# do_forward, do_forward
	movl	%r8d, -32(%rbp)	# do_null2, do_null2
	movl	%r9d, -36(%rbp)	# do_xnu, do_xnu
	.loc 1 1216 0
	movl	$.LC65, %edi	#,
	movl	$0, %eax	#,
	call	Die	#
	.loc 1 1217 0
	leave
	.cfi_def_cfa 7, 8
	ret
	.cfi_endproc
.LFE5:
	.size	main_loop_threaded, .-main_loop_threaded
	.section	.rodata
	.align 4
.LC18:
	.long	4286578687
	.align 8
.LC19:
	.long	3758096384
	.long	1206910975
	.text
.Letext0:
	.file 2 "/usr/lib/gcc/x86_64-linux-gnu/4.8/include/stddef.h"
	.file 3 "/usr/include/x86_64-linux-gnu/bits/types.h"
	.file 4 "/usr/include/stdio.h"
	.file 5 "/usr/include/libio.h"
	.file 6 "squid.h"
	.file 7 "gki.h"
	.file 8 "ssi.h"
	.file 9 "msa.h"
	.file 10 "structs.h"
	.file 11 "globals.h"
	.section	.note.GNU-stack,"",@progbits
