	.file	"types.c"
# GNU C (Ubuntu/Linaro 4.8.1-10ubuntu9) version 4.8.1 (x86_64-linux-gnu)
#	compiled by GNU C version 4.8.1, GMP version 5.1.2, MPFR version 3.1.1-p2, MPC version 1.0.1
# GGC heuristics: --param ggc-min-expand=100 --param ggc-min-heapsize=131072
# options passed:  -imultiarch x86_64-linux-gnu -D SPEC_CPU -D NDEBUG
# -D SPEC_CPU_LP64 types.c -mtune=generic -march=x86-64 -g -fverbose-asm
# -fno-strict-aliasing -fstack-protector -Wformat -Wformat-security
# options enabled:  -faggressive-loop-optimizations
# -fasynchronous-unwind-tables -fauto-inc-dec -fbranch-count-reg -fcommon
# -fdelete-null-pointer-checks -fdwarf2-cfi-asm -fearly-inlining
# -feliminate-unused-debug-types -ffunction-cse -fgcse-lm -fgnu-runtime
# -fident -finline-atomics -fira-hoist-pressure -fira-share-save-slots
# -fira-share-spill-slots -fivopts -fkeep-static-consts
# -fleading-underscore -fmath-errno -fmerge-debug-strings
# -fmove-loop-invariants -fpeephole -fprefetch-loop-arrays
# -freg-struct-return -fsched-critical-path-heuristic
# -fsched-dep-count-heuristic -fsched-group-heuristic -fsched-interblock
# -fsched-last-insn-heuristic -fsched-rank-heuristic -fsched-spec
# -fsched-spec-insn-heuristic -fsched-stalled-insns-dep -fshow-column
# -fsigned-zeros -fsplit-ivs-in-unroller -fstack-protector
# -fstrict-volatile-bitfields -fsync-libcalls -ftrapping-math
# -ftree-coalesce-vars -ftree-cselim -ftree-forwprop -ftree-loop-if-convert
# -ftree-loop-im -ftree-loop-ivcanon -ftree-loop-optimize
# -ftree-parallelize-loops= -ftree-phiprop -ftree-pta -ftree-reassoc
# -ftree-scev-cprop -ftree-slp-vectorize -ftree-vect-loop-version
# -funit-at-a-time -funwind-tables -fverbose-asm -fzero-initialized-in-bss
# -m128bit-long-double -m64 -m80387 -maccumulate-outgoing-args
# -malign-stringops -mfancy-math-387 -mfp-ret-in-387 -mfxsr -mglibc
# -mieee-fp -mlong-double-80 -mmmx -mno-sse4 -mpush-args -mred-zone -msse
# -msse2 -mtls-direct-seg-refs

	.text
.Ltext0:
	.section	.rodata
.LC0:
	.string	"0x"
.LC1:
	.string	"0X"
	.text
	.globl	IsInt
	.type	IsInt, @function
IsInt:
.LFB2:
	.file 1 "types.c"
	.loc 1 32 0
	.cfi_startproc
	pushq	%rbp	#
	.cfi_def_cfa_offset 16
	.cfi_offset 6, -16
	movq	%rsp, %rbp	#,
	.cfi_def_cfa_register 6
	subq	$32, %rsp	#,
	movq	%rdi, -24(%rbp)	# s, s
	.loc 1 33 0
	movl	$0, -4(%rbp)	#, hex
	.loc 1 35 0
	cmpq	$0, -24(%rbp)	#, s
	jne	.L2	#,
	.loc 1 35 0 is_stmt 0 discriminator 1
	movl	$6, squid_errno(%rip)	#, squid_errno
	movl	$0, %eax	#, D.5897
	jmp	.L3	#
.L2:
	.loc 1 38 0 is_stmt 1
	jmp	.L4	#
.L5:
	.loc 1 38 0 is_stmt 0 discriminator 2
	addq	$1, -24(%rbp)	#, s
.L4:
	.loc 1 38 0 discriminator 1
	call	__ctype_b_loc	#
	movq	(%rax), %rdx	# *_11, D.5899
	movq	-24(%rbp), %rax	# s, tmp101
	movzbl	(%rax), %eax	# *s_1, D.5900
	movsbq	%al, %rax	# D.5900, D.5901
	addq	%rax, %rax	# D.5901
	addq	%rdx, %rax	# D.5899, D.5899
	movzwl	(%rax), %eax	# *_16, D.5902
	movzwl	%ax, %eax	# D.5902, D.5897
	andl	$8192, %eax	#, D.5897
	testl	%eax, %eax	# D.5897
	jne	.L5	#,
	.loc 1 40 0 is_stmt 1
	movq	-24(%rbp), %rax	# s, tmp102
	movzbl	(%rax), %eax	# *s_1, D.5900
	cmpb	$45, %al	#, D.5900
	je	.L6	#,
	.loc 1 40 0 is_stmt 0 discriminator 2
	movq	-24(%rbp), %rax	# s, tmp103
	movzbl	(%rax), %eax	# *s_1, D.5900
	cmpb	$43, %al	#, D.5900
	jne	.L7	#,
.L6:
	.loc 1 40 0 discriminator 1
	addq	$1, -24(%rbp)	#, s
.L7:
	.loc 1 42 0 is_stmt 1
	movq	-24(%rbp), %rax	# s, tmp104
	movl	$2, %edx	#,
	movl	$.LC0, %esi	#,
	movq	%rax, %rdi	# tmp104,
	call	strncmp	#
	testl	%eax, %eax	# D.5897
	jne	.L8	#,
	.loc 1 42 0 is_stmt 0 discriminator 1
	movq	-24(%rbp), %rax	# s, tmp105
	movq	%rax, %rdi	# tmp105,
	call	strlen	#
	cmpl	$2, %eax	#, D.5897
	jg	.L9	#,
.L8:
	.loc 1 43 0 is_stmt 1 discriminator 2
	movq	-24(%rbp), %rax	# s, tmp106
	movl	$2, %edx	#,
	movl	$.LC1, %esi	#,
	movq	%rax, %rdi	# tmp106,
	call	strncmp	#
	.loc 1 42 0 discriminator 2
	testl	%eax, %eax	# D.5897
	jne	.L10	#,
	.loc 1 43 0
	movq	-24(%rbp), %rax	# s, tmp107
	movq	%rax, %rdi	# tmp107,
	call	strlen	#
	cmpl	$2, %eax	#, D.5897
	jle	.L10	#,
.L9:
	.loc 1 45 0
	addq	$2, -24(%rbp)	#, s
	.loc 1 46 0
	movl	$1, -4(%rbp)	#, hex
	jmp	.L11	#
.L10:
	.loc 1 48 0
	movq	-24(%rbp), %rax	# s, tmp108
	movzbl	(%rax), %eax	# *s_2, D.5900
	cmpb	$48, %al	#, D.5900
	jne	.L11	#,
	.loc 1 48 0 is_stmt 0 discriminator 1
	movq	-24(%rbp), %rax	# s, tmp109
	movq	%rax, %rdi	# tmp109,
	call	strlen	#
	cmpl	$1, %eax	#, D.5897
	jle	.L11	#,
	.loc 1 49 0 is_stmt 1
	addq	$1, -24(%rbp)	#, s
.L11:
	.loc 1 51 0
	cmpl	$0, -4(%rbp)	#, hex
	jne	.L12	#,
	.loc 1 52 0
	jmp	.L13	#
.L15:
	.loc 1 54 0
	call	__ctype_b_loc	#
	movq	(%rax), %rdx	# *_37, D.5899
	movq	-24(%rbp), %rax	# s, tmp110
	movzbl	(%rax), %eax	# *s_4, D.5900
	movsbq	%al, %rax	# D.5900, D.5901
	addq	%rax, %rax	# D.5901
	addq	%rdx, %rax	# D.5899, D.5899
	movzwl	(%rax), %eax	# *_42, D.5902
	movzwl	%ax, %eax	# D.5902, D.5897
	andl	$2048, %eax	#, D.5897
	testl	%eax, %eax	# D.5897
	jne	.L14	#,
	.loc 1 54 0 is_stmt 0 discriminator 1
	movl	$0, %eax	#, D.5897
	jmp	.L3	#
.L14:
	.loc 1 55 0 is_stmt 1
	addq	$1, -24(%rbp)	#, s
.L13:
	.loc 1 52 0 discriminator 1
	movq	-24(%rbp), %rax	# s, tmp111
	movzbl	(%rax), %eax	# *s_4, D.5900
	testb	%al, %al	# D.5900
	jne	.L15	#,
	jmp	.L16	#
.L12:
	.loc 1 58 0
	jmp	.L17	#
.L19:
	.loc 1 60 0
	call	__ctype_b_loc	#
	movq	(%rax), %rdx	# *_49, D.5899
	movq	-24(%rbp), %rax	# s, tmp112
	movzbl	(%rax), %eax	# *s_5, D.5900
	movsbq	%al, %rax	# D.5900, D.5901
	addq	%rax, %rax	# D.5901
	addq	%rdx, %rax	# D.5899, D.5899
	movzwl	(%rax), %eax	# *_54, D.5902
	movzwl	%ax, %eax	# D.5902, D.5897
	andl	$4096, %eax	#, D.5897
	testl	%eax, %eax	# D.5897
	jne	.L18	#,
	.loc 1 60 0 is_stmt 0 discriminator 1
	movl	$0, %eax	#, D.5897
	jmp	.L3	#
.L18:
	.loc 1 61 0 is_stmt 1
	addq	$1, -24(%rbp)	#, s
.L17:
	.loc 1 58 0 discriminator 1
	movq	-24(%rbp), %rax	# s, tmp113
	movzbl	(%rax), %eax	# *s_5, D.5900
	testb	%al, %al	# D.5900
	jne	.L19	#,
.L16:
	.loc 1 64 0
	movl	$1, %eax	#, D.5897
.L3:
	.loc 1 65 0
	leave
	.cfi_def_cfa 7, 8
	ret
	.cfi_endproc
.LFE2:
	.size	IsInt, .-IsInt
	.globl	IsReal
	.type	IsReal, @function
IsReal:
.LFB3:
	.loc 1 75 0
	.cfi_startproc
	pushq	%rbp	#
	.cfi_def_cfa_offset 16
	.cfi_offset 6, -16
	movq	%rsp, %rbp	#,
	.cfi_def_cfa_register 6
	subq	$32, %rsp	#,
	movq	%rdi, -24(%rbp)	# s, s
	.loc 1 76 0
	movl	$0, -12(%rbp)	#, gotdecimal
	.loc 1 77 0
	movl	$0, -8(%rbp)	#, gotexp
	.loc 1 78 0
	movl	$0, -4(%rbp)	#, gotreal
	.loc 1 80 0
	cmpq	$0, -24(%rbp)	#, s
	jne	.L21	#,
	.loc 1 80 0 is_stmt 0 discriminator 1
	movl	$0, %eax	#, D.5905
	jmp	.L22	#
.L21:
	.loc 1 82 0 is_stmt 1
	jmp	.L23	#
.L24:
	.loc 1 82 0 is_stmt 0 discriminator 2
	addq	$1, -24(%rbp)	#, s
.L23:
	.loc 1 82 0 discriminator 1
	call	__ctype_b_loc	#
	movq	(%rax), %rdx	# *_17, D.5907
	movq	-24(%rbp), %rax	# s, tmp104
	movzbl	(%rax), %eax	# *s_1, D.5908
	movsbq	%al, %rax	# D.5908, D.5909
	addq	%rax, %rax	# D.5909
	addq	%rdx, %rax	# D.5907, D.5907
	movzwl	(%rax), %eax	# *_22, D.5910
	movzwl	%ax, %eax	# D.5910, D.5905
	andl	$8192, %eax	#, D.5905
	testl	%eax, %eax	# D.5905
	jne	.L24	#,
	.loc 1 83 0 is_stmt 1
	movq	-24(%rbp), %rax	# s, tmp105
	movzbl	(%rax), %eax	# *s_1, D.5908
	cmpb	$45, %al	#, D.5908
	je	.L25	#,
	.loc 1 83 0 is_stmt 0 discriminator 2
	movq	-24(%rbp), %rax	# s, tmp106
	movzbl	(%rax), %eax	# *s_1, D.5908
	cmpb	$43, %al	#, D.5908
	jne	.L26	#,
.L25:
	.loc 1 83 0 discriminator 1
	addq	$1, -24(%rbp)	#, s
	.loc 1 89 0 is_stmt 1 discriminator 1
	jmp	.L27	#
.L26:
	.loc 1 89 0 is_stmt 0
	jmp	.L27	#
.L37:
	.loc 1 91 0 is_stmt 1
	call	__ctype_b_loc	#
	movq	(%rax), %rdx	# *_31, D.5907
	movq	-24(%rbp), %rax	# s, tmp107
	movzbl	(%rax), %eax	# *s_3, D.5908
	movsbq	%al, %rax	# D.5908, D.5909
	addq	%rax, %rax	# D.5909
	addq	%rdx, %rax	# D.5907, D.5907
	movzwl	(%rax), %eax	# *_36, D.5910
	movzwl	%ax, %eax	# D.5910, D.5905
	andl	$2048, %eax	#, D.5905
	testl	%eax, %eax	# D.5905
	je	.L28	#,
	.loc 1 92 0
	addl	$1, -4(%rbp)	#, gotreal
	jmp	.L29	#
.L28:
	.loc 1 93 0
	movq	-24(%rbp), %rax	# s, tmp108
	movzbl	(%rax), %eax	# *s_3, D.5908
	cmpb	$46, %al	#, D.5908
	jne	.L30	#,
	.loc 1 95 0
	cmpl	$0, -12(%rbp)	#, gotdecimal
	je	.L31	#,
	.loc 1 95 0 is_stmt 0 discriminator 1
	movl	$0, %eax	#, D.5905
	jmp	.L22	#
.L31:
	.loc 1 96 0 is_stmt 1
	cmpl	$0, -8(%rbp)	#, gotexp
	je	.L32	#,
	.loc 1 96 0 is_stmt 0 discriminator 1
	movl	$0, %eax	#, D.5905
	jmp	.L22	#
.L32:
	.loc 1 97 0 is_stmt 1
	addl	$1, -12(%rbp)	#, gotdecimal
	jmp	.L29	#
.L30:
	.loc 1 99 0
	movq	-24(%rbp), %rax	# s, tmp109
	movzbl	(%rax), %eax	# *s_3, D.5908
	cmpb	$101, %al	#, D.5908
	je	.L33	#,
	.loc 1 99 0 is_stmt 0 discriminator 1
	movq	-24(%rbp), %rax	# s, tmp110
	movzbl	(%rax), %eax	# *s_3, D.5908
	cmpb	$69, %al	#, D.5908
	jne	.L34	#,
.L33:
	.loc 1 101 0 is_stmt 1
	cmpl	$0, -8(%rbp)	#, gotexp
	je	.L35	#,
	.loc 1 101 0 is_stmt 0 discriminator 1
	movl	$0, %eax	#, D.5905
	jmp	.L22	#
.L35:
	.loc 1 102 0 is_stmt 1 discriminator 2
	addl	$1, -8(%rbp)	#, gotexp
	.loc 1 101 0 discriminator 2
	jmp	.L29	#
.L34:
	.loc 1 104 0
	call	__ctype_b_loc	#
	movq	(%rax), %rdx	# *_47, D.5907
	movq	-24(%rbp), %rax	# s, tmp111
	movzbl	(%rax), %eax	# *s_3, D.5908
	movsbq	%al, %rax	# D.5908, D.5909
	addq	%rax, %rax	# D.5909
	addq	%rdx, %rax	# D.5907, D.5907
	movzwl	(%rax), %eax	# *_52, D.5910
	movzwl	%ax, %eax	# D.5910, D.5905
	andl	$8192, %eax	#, D.5905
	testl	%eax, %eax	# D.5905
	je	.L29	#,
	.loc 1 105 0
	jmp	.L36	#
.L29:
	.loc 1 107 0
	addq	$1, -24(%rbp)	#, s
.L27:
	.loc 1 89 0 discriminator 1
	movq	-24(%rbp), %rax	# s, tmp112
	movzbl	(%rax), %eax	# *s_3, D.5908
	testb	%al, %al	# D.5908
	jne	.L37	#,
.L36:
	.loc 1 110 0
	jmp	.L38	#
.L39:
	.loc 1 110 0 is_stmt 0 discriminator 2
	addq	$1, -24(%rbp)	#, s
.L38:
	.loc 1 110 0 discriminator 1
	call	__ctype_b_loc	#
	movq	(%rax), %rdx	# *_59, D.5907
	movq	-24(%rbp), %rax	# s, tmp113
	movzbl	(%rax), %eax	# *s_4, D.5908
	movsbq	%al, %rax	# D.5908, D.5909
	addq	%rax, %rax	# D.5909
	addq	%rdx, %rax	# D.5907, D.5907
	movzwl	(%rax), %eax	# *_64, D.5910
	movzwl	%ax, %eax	# D.5910, D.5905
	andl	$8192, %eax	#, D.5905
	testl	%eax, %eax	# D.5905
	jne	.L39	#,
	.loc 1 111 0 is_stmt 1
	movq	-24(%rbp), %rax	# s, tmp114
	movzbl	(%rax), %eax	# *s_4, D.5908
	testb	%al, %al	# D.5908
	jne	.L40	#,
	.loc 1 111 0 is_stmt 0 discriminator 1
	cmpl	$0, -4(%rbp)	#, gotreal
	je	.L40	#,
	movl	$1, %eax	#, D.5905
	jmp	.L22	#
.L40:
	.loc 1 112 0 is_stmt 1
	movl	$0, %eax	#, D.5905
.L22:
	.loc 1 113 0
	leave
	.cfi_def_cfa 7, 8
	ret
	.cfi_endproc
.LFE3:
	.size	IsReal, .-IsReal
	.globl	Byteswap
	.type	Byteswap, @function
Byteswap:
.LFB4:
	.loc 1 134 0
	.cfi_startproc
	pushq	%rbp	#
	.cfi_def_cfa_offset 16
	.cfi_offset 6, -16
	movq	%rsp, %rbp	#,
	.cfi_def_cfa_register 6
	movq	%rdi, -24(%rbp)	# swap, swap
	movl	%esi, -28(%rbp)	# nbytes, nbytes
	.loc 1 138 0
	movl	$0, -4(%rbp)	#, x
	jmp	.L42	#
.L43:
	.loc 1 140 0 discriminator 2
	movl	-4(%rbp), %eax	# x, tmp73
	movl	-28(%rbp), %edx	# nbytes, tmp74
	subl	%eax, %edx	# tmp73, D.5911
	movl	%edx, %eax	# D.5911, D.5911
	cltq
	leaq	-1(%rax), %rdx	#, D.5912
	movq	-24(%rbp), %rax	# swap, tmp75
	addq	%rdx, %rax	# D.5912, D.5913
	movzbl	(%rax), %eax	# *_9, tmp76
	movb	%al, -5(%rbp)	# tmp76, byte
	.loc 1 141 0 discriminator 2
	movl	-4(%rbp), %eax	# x, tmp77
	movl	-28(%rbp), %edx	# nbytes, tmp78
	subl	%eax, %edx	# tmp77, D.5911
	movl	%edx, %eax	# D.5911, D.5911
	cltq
	leaq	-1(%rax), %rdx	#, D.5912
	movq	-24(%rbp), %rax	# swap, tmp79
	addq	%rax, %rdx	# tmp79, D.5913
	movl	-4(%rbp), %eax	# x, tmp80
	movslq	%eax, %rcx	# tmp80, D.5912
	movq	-24(%rbp), %rax	# swap, tmp81
	addq	%rcx, %rax	# D.5912, D.5913
	movzbl	(%rax), %eax	# *_16, D.5914
	movb	%al, (%rdx)	# D.5914, *_14
	.loc 1 142 0 discriminator 2
	movl	-4(%rbp), %eax	# x, tmp82
	movslq	%eax, %rdx	# tmp82, D.5912
	movq	-24(%rbp), %rax	# swap, tmp83
	addq	%rax, %rdx	# tmp83, D.5913
	movzbl	-5(%rbp), %eax	# byte, tmp84
	movb	%al, (%rdx)	# tmp84, *_19
	.loc 1 138 0 discriminator 2
	addl	$1, -4(%rbp)	#, x
.L42:
	.loc 1 138 0 is_stmt 0 discriminator 1
	movl	-28(%rbp), %eax	# nbytes, tmp85
	movl	%eax, %edx	# tmp85, tmp86
	shrl	$31, %edx	#, tmp86
	addl	%edx, %eax	# tmp86, tmp87
	sarl	%eax	# tmp88
	cmpl	-4(%rbp), %eax	# x, D.5911
	jg	.L43	#,
	.loc 1 144 0 is_stmt 1
	popq	%rbp	#
	.cfi_def_cfa 7, 8
	ret
	.cfi_endproc
.LFE4:
	.size	Byteswap, .-Byteswap
	.globl	sre_ntoh16
	.type	sre_ntoh16, @function
sre_ntoh16:
.LFB5:
	.loc 1 167 0
	.cfi_startproc
	pushq	%rbp	#
	.cfi_def_cfa_offset 16
	.cfi_offset 6, -16
	movq	%rsp, %rbp	#,
	.cfi_def_cfa_register 6
	movl	%edi, %eax	# netshort, tmp61
	movw	%ax, -4(%rbp)	# tmp61, netshort
	.loc 1 169 0
	movzwl	-4(%rbp), %eax	# netshort, D.5915
	.loc 1 174 0
	popq	%rbp	#
	.cfi_def_cfa 7, 8
	ret
	.cfi_endproc
.LFE5:
	.size	sre_ntoh16, .-sre_ntoh16
	.globl	sre_ntoh32
	.type	sre_ntoh32, @function
sre_ntoh32:
.LFB6:
	.loc 1 177 0
	.cfi_startproc
	pushq	%rbp	#
	.cfi_def_cfa_offset 16
	.cfi_offset 6, -16
	movq	%rsp, %rbp	#,
	.cfi_def_cfa_register 6
	movl	%edi, -4(%rbp)	# netlong, netlong
	.loc 1 179 0
	movl	-4(%rbp), %eax	# netlong, D.5916
	.loc 1 184 0
	popq	%rbp	#
	.cfi_def_cfa 7, 8
	ret
	.cfi_endproc
.LFE6:
	.size	sre_ntoh32, .-sre_ntoh32
	.globl	sre_hton16
	.type	sre_hton16, @function
sre_hton16:
.LFB7:
	.loc 1 187 0
	.cfi_startproc
	pushq	%rbp	#
	.cfi_def_cfa_offset 16
	.cfi_offset 6, -16
	movq	%rsp, %rbp	#,
	.cfi_def_cfa_register 6
	movl	%edi, %eax	# hostshort, tmp61
	movw	%ax, -4(%rbp)	# tmp61, hostshort
	.loc 1 189 0
	movzwl	-4(%rbp), %eax	# hostshort, D.5917
	.loc 1 194 0
	popq	%rbp	#
	.cfi_def_cfa 7, 8
	ret
	.cfi_endproc
.LFE7:
	.size	sre_hton16, .-sre_hton16
	.globl	sre_hton32
	.type	sre_hton32, @function
sre_hton32:
.LFB8:
	.loc 1 197 0
	.cfi_startproc
	pushq	%rbp	#
	.cfi_def_cfa_offset 16
	.cfi_offset 6, -16
	movq	%rsp, %rbp	#,
	.cfi_def_cfa_register 6
	movl	%edi, -4(%rbp)	# hostlong, hostlong
	.loc 1 199 0
	movl	-4(%rbp), %eax	# hostlong, D.5918
	.loc 1 204 0
	popq	%rbp	#
	.cfi_def_cfa 7, 8
	ret
	.cfi_endproc
.LFE8:
	.size	sre_hton32, .-sre_hton32
	.globl	sre_ntoh64
	.type	sre_ntoh64, @function
sre_ntoh64:
.LFB9:
	.loc 1 209 0
	.cfi_startproc
	pushq	%rbp	#
	.cfi_def_cfa_offset 16
	.cfi_offset 6, -16
	movq	%rsp, %rbp	#,
	.cfi_def_cfa_register 6
	movq	%rdi, -8(%rbp)	# net_int64, net_int64
	.loc 1 211 0
	movq	-8(%rbp), %rax	# net_int64, D.5919
	.loc 1 216 0
	popq	%rbp	#
	.cfi_def_cfa 7, 8
	ret
	.cfi_endproc
.LFE9:
	.size	sre_ntoh64, .-sre_ntoh64
	.globl	sre_hton64
	.type	sre_hton64, @function
sre_hton64:
.LFB10:
	.loc 1 219 0
	.cfi_startproc
	pushq	%rbp	#
	.cfi_def_cfa_offset 16
	.cfi_offset 6, -16
	movq	%rsp, %rbp	#,
	.cfi_def_cfa_register 6
	movq	%rdi, -8(%rbp)	# host_int64, host_int64
	.loc 1 221 0
	movq	-8(%rbp), %rax	# host_int64, D.5920
	.loc 1 226 0
	popq	%rbp	#
	.cfi_def_cfa 7, 8
	ret
	.cfi_endproc
.LFE10:
	.size	sre_hton64, .-sre_hton64
.Letext0:
	.file 2 "squid.h"
	.file 3 "/usr/include/ctype.h"
	.section	.note.GNU-stack,"",@progbits
