	.file	"gauge_stuff.c"
# GNU C (Ubuntu/Linaro 4.8.1-10ubuntu9) version 4.8.1 (x86_64-linux-gnu)
#	compiled by GNU C version 4.8.1, GMP version 5.1.2, MPFR version 3.1.1-p2, MPC version 1.0.1
# GGC heuristics: --param ggc-min-expand=100 --param ggc-min-heapsize=131072
# options passed:  -I . -imultiarch x86_64-linux-gnu -D SPEC_CPU -D NDEBUG
# -D FN -D FAST -D CONGRAD_TMP_VECTORS -D DSLASH_TMP_LINKS -D SPEC_CPU_LP64
# gauge_stuff.c -mtune=generic -march=x86-64 -g -fverbose-asm
# -fno-strict-aliasing -fstack-protector -Wformat -Wformat-security
# options enabled:  -faggressive-loop-optimizations
# -fasynchronous-unwind-tables -fauto-inc-dec -fbranch-count-reg -fcommon
# -fdelete-null-pointer-checks -fdwarf2-cfi-asm -fearly-inlining
# -feliminate-unused-debug-types -ffunction-cse -fgcse-lm -fgnu-runtime
# -fident -finline-atomics -fira-hoist-pressure -fira-share-save-slots
# -fira-share-spill-slots -fivopts -fkeep-static-consts
# -fleading-underscore -fmath-errno -fmerge-debug-strings
# -fmove-loop-invariants -fpeephole -fprefetch-loop-arrays
# -freg-struct-return -fsched-critical-path-heuristic
# -fsched-dep-count-heuristic -fsched-group-heuristic -fsched-interblock
# -fsched-last-insn-heuristic -fsched-rank-heuristic -fsched-spec
# -fsched-spec-insn-heuristic -fsched-stalled-insns-dep -fshow-column
# -fsigned-zeros -fsplit-ivs-in-unroller -fstack-protector
# -fstrict-volatile-bitfields -fsync-libcalls -ftrapping-math
# -ftree-coalesce-vars -ftree-cselim -ftree-forwprop -ftree-loop-if-convert
# -ftree-loop-im -ftree-loop-ivcanon -ftree-loop-optimize
# -ftree-parallelize-loops= -ftree-phiprop -ftree-pta -ftree-reassoc
# -ftree-scev-cprop -ftree-slp-vectorize -ftree-vect-loop-version
# -funit-at-a-time -funwind-tables -fverbose-asm -fzero-initialized-in-bss
# -m128bit-long-double -m64 -m80387 -maccumulate-outgoing-args
# -malign-stringops -mfancy-math-387 -mfp-ret-in-387 -mfxsr -mglibc
# -mieee-fp -mlong-double-80 -mmmx -mno-sse4 -mpush-args -mred-zone -msse
# -msse2 -mtls-direct-seg-refs

	.text
.Ltext0:
	.comm	gauge_action_description,128,32
	.globl	gauge_action_nloops
	.data
	.align 4
	.type	gauge_action_nloops, @object
	.size	gauge_action_nloops, 4
gauge_action_nloops:
	.long	3
	.globl	gauge_action_nreps
	.align 4
	.type	gauge_action_nreps, @object
	.size	gauge_action_nreps, 4
gauge_action_nreps:
	.long	1
	.comm	loop_length,12,4
	.comm	loop_num,12,4
	.comm	loop_ind,72,32
	.comm	loop_table,1152,32
	.comm	loop_coeff,24,16
	.comm	loop_char,64,32
	.comm	loop_expect,384,32
	.section	.rodata
	.align 8
.LC6:
	.string	"Symanzik 1x1 + 1x2 + 1x1x1 action"
.LC7:
	.string	"OOPS: MAX_NUM too small"
	.align 8
.LC8:
	.string	"loop coefficients: nloop rep loop_coeff  multiplicity"
	.align 8
.LC9:
	.string	"                    %d %d      %e     %d\n"
	.text
	.globl	make_loop_table
	.type	make_loop_table, @function
make_loop_table:
.LFB2:
	.file 1 "gauge_stuff.c"
	.loc 1 54 0
	.cfi_startproc
	pushq	%rbp	#
	.cfi_def_cfa_offset 16
	.cfi_offset 6, -16
	movq	%rsp, %rbp	#,
	.cfi_def_cfa_register 6
	subq	$160, %rsp	#,
	.file 2 "./gauge_action.h"
	.loc 2 18 0
	movl	$0, -128(%rbp)	#, j
	jmp	.L2	#
.L5:
	.loc 2 19 0
	movl	-128(%rbp), %eax	# j, tmp134
	cltq
	movl	$0, loop_num(,%rax,4)	#, loop_num
	.loc 2 20 0
	movl	-128(%rbp), %eax	# j, tmp136
	cltq
	movl	loop_length_in.5006(,%rax,4), %edx	# loop_length_in, D.5526
	movl	-128(%rbp), %eax	# j, tmp138
	cltq
	movl	%edx, loop_length(,%rax,4)	# D.5526, loop_length
	.loc 2 21 0
	movl	$0, -132(%rbp)	#, i
	jmp	.L3	#
.L4:
	.loc 2 22 0 discriminator 2
	movl	-132(%rbp), %eax	# i, tmp140
	movslq	%eax, %rdx	# tmp140, tmp139
	movl	-128(%rbp), %eax	# j, tmp142
	cltq
	addq	%rax, %rdx	# tmp141, tmp143
	movl	$0, %eax	#, tmp144
	movq	%rax, loop_coeff(,%rdx,8)	# tmp144, loop_coeff
	.loc 2 21 0 discriminator 2
	addl	$1, -132(%rbp)	#, i
.L3:
	.loc 2 21 0 is_stmt 0 discriminator 1
	cmpl	$0, -132(%rbp)	#, i
	jle	.L4	#,
	.loc 2 18 0 is_stmt 1
	addl	$1, -128(%rbp)	#, j
.L2:
	.loc 2 18 0 is_stmt 0 discriminator 1
	cmpl	$2, -128(%rbp)	#, j
	jle	.L5	#,
	.loc 2 27 0 is_stmt 1
	movabsq	$4607182418800017408, %rax	#, tmp145
	movq	%rax, loop_coeff(%rip)	# tmp145, loop_coeff
	.loc 2 28 0
	movsd	u0(%rip), %xmm1	# u0, u0.0
	movsd	.LC2(%rip), %xmm0	#, tmp146
	mulsd	%xmm1, %xmm0	# u0.0, D.5527
	movsd	u0(%rip), %xmm1	# u0, u0.1
	mulsd	%xmm1, %xmm0	# u0.1, D.5527
	movsd	.LC3(%rip), %xmm1	#, tmp147
	divsd	%xmm0, %xmm1	# D.5527, D.5527
	movsd	%xmm1, -152(%rbp)	# D.5527, %sfp
	movq	u0(%rip), %rax	# u0, u0.2
	movq	%rax, -160(%rbp)	# u0.2, %sfp
	movsd	-160(%rbp), %xmm0	# %sfp,
	call	log	#
	movsd	.LC4(%rip), %xmm1	#, tmp148
	mulsd	%xmm1, %xmm0	# tmp148, D.5527
	movsd	.LC1(%rip), %xmm1	#, tmp149
	movapd	%xmm1, %xmm2	# tmp149, D.5527
	subsd	%xmm0, %xmm2	# D.5527, D.5527
	movapd	%xmm2, %xmm0	# D.5527, D.5527
	mulsd	-152(%rbp), %xmm0	# %sfp, D.5527
	movsd	%xmm0, loop_coeff+8(%rip)	# D.5527, loop_coeff
	.loc 2 29 0
	movsd	u0(%rip), %xmm1	# u0, u0.3
	movsd	u0(%rip), %xmm0	# u0, u0.4
	mulsd	%xmm1, %xmm0	# u0.3, D.5527
	movsd	.LC1(%rip), %xmm1	#, tmp150
	divsd	%xmm0, %xmm1	# D.5527, D.5527
	movapd	%xmm1, %xmm0	# D.5527, D.5527
	movsd	.LC5(%rip), %xmm1	#, tmp151
	mulsd	%xmm1, %xmm0	# tmp151, D.5527
	movsd	%xmm0, -152(%rbp)	# D.5527, %sfp
	movq	u0(%rip), %rax	# u0, u0.5
	movq	%rax, -160(%rbp)	# u0.5, %sfp
	movsd	-160(%rbp), %xmm0	# %sfp,
	call	log	#
	mulsd	-152(%rbp), %xmm0	# %sfp, D.5527
	movsd	%xmm0, loop_coeff+16(%rip)	# D.5527, loop_coeff
	.loc 2 30 0
	movabsq	$7600508685868684066, %rax	#, tmp224
	movq	%rax, gauge_action_description(%rip)	# tmp224, MEM[(void *)&gauge_action_description]
	movabsq	$2317981830054223979, %rax	#, tmp225
	movq	%rax, gauge_action_description+8(%rip)	# tmp225, MEM[(void *)&gauge_action_description]
	movabsq	$8660738928006035505, %rax	#, tmp226
	movq	%rax, gauge_action_description+16(%rip)	# tmp226, MEM[(void *)&gauge_action_description]
	movabsq	$7598807740083959857, %rax	#, tmp227
	movq	%rax, gauge_action_description+24(%rip)	# tmp227, MEM[(void *)&gauge_action_description]
	movl	$2256495, gauge_action_description+32(%rip)	#, MEM[(void *)&gauge_action_description]
	.loc 2 31 0
	movl	this_node(%rip), %eax	# this_node, this_node.6
	testl	%eax, %eax	# this_node.6
	jne	.L6	#,
	.loc 2 31 0 is_stmt 0 discriminator 1
	movl	$.LC6, %edi	#,
	call	puts	#
.L6:
	.loc 1 67 0 is_stmt 1
	movl	$0, -136(%rbp)	#, iloop
	jmp	.L7	#
.L38:
	.loc 1 68 0
	movl	-136(%rbp), %eax	# iloop, tmp154
	cltq
	movl	loop_length(,%rax,4), %eax	# loop_length, tmp155
	movl	%eax, -116(%rbp)	# tmp155, length
	.loc 1 69 0
	movl	$0, -124(%rbp)	#, count
	.loc 1 71 0
	movl	$0, -64(%rbp)	#, perm
	jmp	.L8	#
.L37:
	.loc 1 72 0
	movl	$0, -60(%rbp)	#, perm
	jmp	.L9	#
.L36:
	.loc 1 73 0
	movl	$0, -56(%rbp)	#, perm
	jmp	.L10	#
.L35:
	.loc 1 74 0
	movl	$0, -52(%rbp)	#, perm
	jmp	.L11	#
.L34:
	.loc 1 75 0
	movl	-64(%rbp), %edx	# perm, D.5526
	movl	-60(%rbp), %eax	# perm, D.5526
	cmpl	%eax, %edx	# D.5526, D.5526
	je	.L12	#,
	.loc 1 75 0 is_stmt 0 discriminator 1
	movl	-64(%rbp), %edx	# perm, D.5526
	movl	-56(%rbp), %eax	# perm, D.5526
	cmpl	%eax, %edx	# D.5526, D.5526
	je	.L12	#,
	.loc 1 76 0 is_stmt 1
	movl	-64(%rbp), %edx	# perm, D.5526
	movl	-52(%rbp), %eax	# perm, D.5526
	cmpl	%eax, %edx	# D.5526, D.5526
	je	.L12	#,
	.loc 1 76 0 is_stmt 0 discriminator 1
	movl	-60(%rbp), %edx	# perm, D.5526
	movl	-56(%rbp), %eax	# perm, D.5526
	cmpl	%eax, %edx	# D.5526, D.5526
	je	.L12	#,
	.loc 1 77 0 is_stmt 1
	movl	-60(%rbp), %edx	# perm, D.5526
	movl	-52(%rbp), %eax	# perm, D.5526
	cmpl	%eax, %edx	# D.5526, D.5526
	je	.L12	#,
	.loc 1 77 0 is_stmt 0 discriminator 1
	movl	-56(%rbp), %edx	# perm, D.5526
	movl	-52(%rbp), %eax	# perm, D.5526
	cmpl	%eax, %edx	# D.5526, D.5526
	je	.L12	#,
	.loc 1 79 0 is_stmt 1
	movl	$0, -112(%rbp)	#, ir
	jmp	.L13	#
.L33:
	.loc 1 80 0
	movl	$0, -108(%rbp)	#, ir
	jmp	.L14	#
.L32:
	.loc 1 81 0
	movl	$0, -104(%rbp)	#, ir
	jmp	.L15	#
.L31:
	.loc 1 82 0
	movl	$0, -100(%rbp)	#, ir
	jmp	.L16	#
.L30:
	.loc 1 83 0
	movl	$0, -128(%rbp)	#, j
	jmp	.L17	#
.L19:
	.loc 1 84 0
	movl	-128(%rbp), %eax	# j, tmp157
	cltq
	movl	-64(%rbp,%rax,4), %edx	# perm, D.5526
	movl	-128(%rbp), %eax	# j, tmp159
	cltq
	movl	%edx, -32(%rbp,%rax,4)	# D.5526, pp
	.loc 1 86 0
	movl	-128(%rbp), %eax	# j, tmp161
	cltq
	movl	-112(%rbp,%rax,4), %eax	# ir, D.5526
	cmpl	$1, %eax	#, D.5526
	jne	.L18	#,
	.loc 1 86 0 is_stmt 0 discriminator 1
	movl	-128(%rbp), %eax	# j, tmp163
	cltq
	movl	-32(%rbp,%rax,4), %eax	# pp, D.5526
	movl	$7, %edx	#, tmp164
	subl	%eax, %edx	# D.5526, D.5526
	movl	-128(%rbp), %eax	# j, tmp166
	cltq
	movl	%edx, -32(%rbp,%rax,4)	# D.5526, pp
.L18:
	.loc 1 87 0 is_stmt 1
	movl	$7, %eax	#, tmp167
	subl	-128(%rbp), %eax	# j, D.5526
	movl	%eax, %ecx	# D.5526, D.5526
	movl	-128(%rbp), %eax	# j, tmp169
	cltq
	movl	-32(%rbp,%rax,4), %eax	# pp, D.5526
	movl	$7, %edx	#, tmp170
	subl	%eax, %edx	# D.5526, D.5526
	movslq	%ecx, %rax	# D.5526, tmp171
	movl	%edx, -32(%rbp,%rax,4)	# D.5526, pp
	.loc 1 83 0
	addl	$1, -128(%rbp)	#, j
.L17:
	.loc 1 83 0 is_stmt 0 discriminator 1
	cmpl	$3, -128(%rbp)	#, j
	jle	.L19	#,
	.loc 1 90 0 is_stmt 1
	movl	$0, -128(%rbp)	#, j
	jmp	.L20	#
.L21:
	.loc 1 90 0 is_stmt 0 discriminator 2
	movl	-128(%rbp), %eax	# j, tmp173
	movslq	%eax, %rcx	# tmp173, tmp172
	movl	-136(%rbp), %eax	# iloop, tmp175
	movslq	%eax, %rdx	# tmp175, tmp174
	movq	%rdx, %rax	# tmp174, tmp176
	addq	%rax, %rax	# tmp176
	addq	%rdx, %rax	# tmp174, tmp176
	addq	%rax, %rax	# tmp177
	addq	%rcx, %rax	# tmp172, tmp178
	movl	loop_ind.5005(,%rax,4), %eax	# loop_ind, D.5526
	cltq
	movl	-32(%rbp,%rax,4), %edx	# pp, D.5526
	movl	-128(%rbp), %eax	# j, tmp181
	cltq
	movl	%edx, -96(%rbp,%rax,4)	# D.5526, vec
	addl	$1, -128(%rbp)	#, j
.L20:
	.loc 1 90 0 discriminator 1
	movl	-128(%rbp), %eax	# j, tmp182
	cmpl	-116(%rbp), %eax	# length, tmp182
	jl	.L21	#,
	.loc 1 92 0 is_stmt 1
	movl	-116(%rbp), %edx	# length, tmp183
	leaq	-140(%rbp), %rcx	#, tmp184
	leaq	-96(%rbp), %rax	#, tmp185
	movq	%rcx, %rsi	# tmp184,
	movq	%rax, %rdi	# tmp185,
	call	char_num	#
	.loc 1 93 0
	movl	$0, -120(%rbp)	#, flag
	.loc 1 95 0
	movl	$0, -128(%rbp)	#, j
	jmp	.L22	#
.L24:
	.loc 1 95 0 is_stmt 0 discriminator 2
	movl	-128(%rbp), %eax	# j, tmp187
	cltq
	movl	loop_char(,%rax,4), %edx	# loop_char, D.5526
	movl	-140(%rbp), %eax	# chr, chr.7
	cmpl	%eax, %edx	# chr.7, D.5526
	jne	.L23	#,
	.loc 1 95 0 discriminator 1
	movl	$1, -120(%rbp)	#, flag
.L23:
	.loc 1 95 0 discriminator 2
	addl	$1, -128(%rbp)	#, j
.L22:
	.loc 1 95 0 discriminator 1
	movl	-128(%rbp), %eax	# j, tmp188
	cmpl	-124(%rbp), %eax	# count, tmp188
	jl	.L24	#,
	.loc 1 96 0 is_stmt 1
	cmpl	$0, -120(%rbp)	#, flag
	jne	.L25	#,
	.loc 1 97 0
	movl	-140(%rbp), %edx	# chr, chr.8
	movl	-124(%rbp), %eax	# count, tmp190
	cltq
	movl	%edx, loop_char(,%rax,4)	# chr.8, loop_char
	.loc 1 98 0
	movl	$0, -128(%rbp)	#, j
	jmp	.L26	#
.L27:
	.loc 1 99 0 discriminator 2
	movl	-128(%rbp), %eax	# j, tmp192
	cltq
	movl	-96(%rbp,%rax,4), %esi	# vec, D.5526
	movl	-128(%rbp), %eax	# j, tmp194
	movslq	%eax, %rdi	# tmp194, tmp193
	movl	-136(%rbp), %eax	# iloop, tmp196
	cltq
	movl	-124(%rbp), %edx	# count, tmp198
	movslq	%edx, %rcx	# tmp198, tmp197
	movq	%rax, %rdx	# tmp195, tmp199
	addq	%rdx, %rdx	# tmp199
	addq	%rax, %rdx	# tmp195, tmp199
	movq	%rdx, %rax	# tmp199, tmp200
	salq	$5, %rax	#, tmp200
	movq	%rax, %rdx	# tmp200, tmp199
	movq	%rcx, %rax	# tmp197, tmp201
	addq	%rax, %rax	# tmp201
	addq	%rcx, %rax	# tmp197, tmp201
	addq	%rax, %rax	# tmp202
	addq	%rdx, %rax	# tmp199, tmp203
	addq	%rdi, %rax	# tmp193, tmp204
	movl	%esi, loop_table(,%rax,4)	# D.5526, loop_table
	.loc 1 98 0 discriminator 2
	addl	$1, -128(%rbp)	#, j
.L26:
	.loc 1 98 0 is_stmt 0 discriminator 1
	movl	-128(%rbp), %eax	# j, tmp205
	cmpl	-116(%rbp), %eax	# length, tmp205
	jl	.L27	#,
	.loc 1 100 0 is_stmt 1
	addl	$1, -124(%rbp)	#, count
.L25:
	.loc 1 103 0
	cmpl	$16, -124(%rbp)	#, count
	jle	.L28	#,
	.loc 1 104 0
	movl	this_node(%rip), %eax	# this_node, this_node.9
	testl	%eax, %eax	# this_node.9
	jne	.L29	#,
	.loc 1 104 0 is_stmt 0 discriminator 1
	movl	$.LC7, %edi	#,
	call	puts	#
.L29:
	.loc 1 105 0 is_stmt 1
	movl	$0, %edi	#,
	call	exit	#
.L28:
	.loc 1 107 0
	movl	-136(%rbp), %eax	# iloop, tmp207
	cltq
	movl	-124(%rbp), %edx	# count, tmp208
	movl	%edx, loop_num(,%rax,4)	# tmp208, loop_num
	.loc 1 82 0
	movl	-100(%rbp), %eax	# ir, D.5526
	addl	$1, %eax	#, D.5526
	movl	%eax, -100(%rbp)	# D.5526, ir
.L16:
	.loc 1 82 0 is_stmt 0 discriminator 1
	movl	-100(%rbp), %eax	# ir, D.5526
	cmpl	$1, %eax	#, D.5526
	jle	.L30	#,
	.loc 1 81 0 is_stmt 1
	movl	-104(%rbp), %eax	# ir, D.5526
	addl	$1, %eax	#, D.5526
	movl	%eax, -104(%rbp)	# D.5526, ir
.L15:
	.loc 1 81 0 is_stmt 0 discriminator 1
	movl	-104(%rbp), %eax	# ir, D.5526
	cmpl	$1, %eax	#, D.5526
	jle	.L31	#,
	.loc 1 80 0 is_stmt 1
	movl	-108(%rbp), %eax	# ir, D.5526
	addl	$1, %eax	#, D.5526
	movl	%eax, -108(%rbp)	# D.5526, ir
.L14:
	.loc 1 80 0 is_stmt 0 discriminator 1
	movl	-108(%rbp), %eax	# ir, D.5526
	cmpl	$1, %eax	#, D.5526
	jle	.L32	#,
	.loc 1 79 0 is_stmt 1
	movl	-112(%rbp), %eax	# ir, D.5526
	addl	$1, %eax	#, D.5526
	movl	%eax, -112(%rbp)	# D.5526, ir
.L13:
	.loc 1 79 0 is_stmt 0 discriminator 1
	movl	-112(%rbp), %eax	# ir, D.5526
	cmpl	$1, %eax	#, D.5526
	jle	.L33	#,
.L12:
	.loc 1 74 0 is_stmt 1
	movl	-52(%rbp), %eax	# perm, D.5526
	addl	$1, %eax	#, D.5526
	movl	%eax, -52(%rbp)	# D.5526, perm
.L11:
	.loc 1 74 0 is_stmt 0 discriminator 1
	movl	-52(%rbp), %eax	# perm, D.5526
	cmpl	$3, %eax	#, D.5526
	jle	.L34	#,
	.loc 1 73 0 is_stmt 1
	movl	-56(%rbp), %eax	# perm, D.5526
	addl	$1, %eax	#, D.5526
	movl	%eax, -56(%rbp)	# D.5526, perm
.L10:
	.loc 1 73 0 is_stmt 0 discriminator 1
	movl	-56(%rbp), %eax	# perm, D.5526
	cmpl	$3, %eax	#, D.5526
	jle	.L35	#,
	.loc 1 72 0 is_stmt 1
	movl	-60(%rbp), %eax	# perm, D.5526
	addl	$1, %eax	#, D.5526
	movl	%eax, -60(%rbp)	# D.5526, perm
.L9:
	.loc 1 72 0 is_stmt 0 discriminator 1
	movl	-60(%rbp), %eax	# perm, D.5526
	cmpl	$3, %eax	#, D.5526
	jle	.L36	#,
	.loc 1 71 0 is_stmt 1
	movl	-64(%rbp), %eax	# perm, D.5526
	addl	$1, %eax	#, D.5526
	movl	%eax, -64(%rbp)	# D.5526, perm
.L8:
	.loc 1 71 0 is_stmt 0 discriminator 1
	movl	-64(%rbp), %eax	# perm, D.5526
	cmpl	$3, %eax	#, D.5526
	jle	.L37	#,
	.loc 1 67 0 is_stmt 1
	addl	$1, -136(%rbp)	#, iloop
.L7:
	.loc 1 67 0 is_stmt 0 discriminator 1
	cmpl	$2, -136(%rbp)	#, iloop
	jle	.L38	#,
	.loc 1 115 0 is_stmt 1
	movl	this_node(%rip), %eax	# this_node, this_node.10
	testl	%eax, %eax	# this_node.10
	jne	.L39	#,
	.loc 1 115 0 is_stmt 0 discriminator 1
	movl	$.LC8, %edi	#,
	call	puts	#
.L39:
	.loc 1 116 0 is_stmt 1
	movl	$0, -132(%rbp)	#, i
	jmp	.L40	#
.L44:
	.loc 1 116 0 is_stmt 0 discriminator 2
	movl	$0, -128(%rbp)	#, j
	jmp	.L41	#
.L43:
	.loc 1 117 0 is_stmt 1
	movl	this_node(%rip), %eax	# this_node, this_node.11
	testl	%eax, %eax	# this_node.11
	jne	.L42	#,
	.loc 1 117 0 is_stmt 0 discriminator 1
	movl	-128(%rbp), %eax	# j, tmp210
	cltq
	movl	loop_num(,%rax,4), %ecx	# loop_num, D.5526
	movl	-132(%rbp), %eax	# i, tmp212
	movslq	%eax, %rdx	# tmp212, tmp211
	movl	-128(%rbp), %eax	# j, tmp214
	cltq
	addq	%rdx, %rax	# tmp211, tmp215
	movq	loop_coeff(,%rax,8), %rax	# loop_coeff, D.5527
	movl	-132(%rbp), %edx	# i, tmp216
	movl	-128(%rbp), %esi	# j, tmp217
	movq	%rax, -152(%rbp)	# D.5527, %sfp
	movsd	-152(%rbp), %xmm0	# %sfp,
	movl	$.LC9, %edi	#,
	movl	$1, %eax	#,
	call	printf	#
.L42:
	.loc 1 116 0 is_stmt 1
	addl	$1, -128(%rbp)	#, j
.L41:
	.loc 1 116 0 is_stmt 0 discriminator 1
	cmpl	$2, -128(%rbp)	#, j
	jle	.L43	#,
	.loc 1 116 0 discriminator 2
	addl	$1, -132(%rbp)	#, i
.L40:
	.loc 1 116 0 discriminator 1
	cmpl	$0, -132(%rbp)	#, i
	jle	.L44	#,
	.loc 1 121 0 is_stmt 1
	leave
	.cfi_def_cfa 7, 8
	ret
	.cfi_endproc
.LFE2:
	.size	make_loop_table, .-make_loop_table
	.globl	char_num
	.type	char_num, @function
char_num:
.LFB3:
	.loc 1 127 0
	.cfi_startproc
	pushq	%rbp	#
	.cfi_def_cfa_offset 16
	.cfi_offset 6, -16
	movq	%rsp, %rbp	#,
	.cfi_def_cfa_register 6
	movq	%rdi, -56(%rbp)	# dig, dig
	movq	%rsi, -64(%rbp)	# chr, chr
	movl	%edx, -68(%rbp)	# length, length
	.loc 1 133 0
	movl	$1, -44(%rbp)	#, tenl
	.loc 1 134 0
	movl	$0, -48(%rbp)	#, j
	jmp	.L46	#
.L47:
	.loc 1 134 0 is_stmt 0 discriminator 2
	movl	-44(%rbp), %edx	# tenl, tmp99
	movl	%edx, %eax	# tmp99, tmp100
	sall	$2, %eax	#, tmp100
	addl	%edx, %eax	# tmp99, tmp100
	addl	%eax, %eax	# tmp101
	movl	%eax, -44(%rbp)	# tmp100, tenl
	addl	$1, -48(%rbp)	#, j
.L46:
	.loc 1 134 0 discriminator 1
	movl	-68(%rbp), %eax	# length, tmp102
	subl	$1, %eax	#, D.5533
	cmpl	-48(%rbp), %eax	# j, D.5533
	jg	.L47	#,
	.loc 1 136 0 is_stmt 1
	movl	-68(%rbp), %eax	# length, tmp103
	cltq
	salq	$2, %rax	#, D.5534
	leaq	-4(%rax), %rdx	#, D.5535
	movq	-56(%rbp), %rax	# dig, tmp104
	addq	%rdx, %rax	# D.5535, D.5536
	movl	(%rax), %edx	# *_21, D.5533
	movq	-64(%rbp), %rax	# chr, tmp105
	movl	%edx, (%rax)	# D.5533, *chr_23(D)
	.loc 1 137 0
	movl	-68(%rbp), %eax	# length, tmp109
	subl	$2, %eax	#, tmp108
	movl	%eax, -48(%rbp)	# tmp108, j
	jmp	.L48	#
.L49:
	.loc 1 137 0 is_stmt 0 discriminator 2
	movq	-64(%rbp), %rax	# chr, tmp110
	movl	(%rax), %edx	# *chr_23(D), D.5533
	movl	%edx, %eax	# D.5533, tmp111
	sall	$2, %eax	#, tmp111
	addl	%edx, %eax	# D.5533, tmp111
	addl	%eax, %eax	# tmp112
	movl	%eax, %edx	# tmp111, D.5533
	movl	-48(%rbp), %eax	# j, tmp113
	cltq
	leaq	0(,%rax,4), %rcx	#, D.5534
	movq	-56(%rbp), %rax	# dig, tmp114
	addq	%rcx, %rax	# D.5534, D.5536
	movl	(%rax), %eax	# *_29, D.5533
	addl	%eax, %edx	# D.5533, D.5533
	movq	-64(%rbp), %rax	# chr, tmp115
	movl	%edx, (%rax)	# D.5533, *chr_23(D)
	subl	$1, -48(%rbp)	#, j
.L48:
	.loc 1 137 0 discriminator 1
	cmpl	$0, -48(%rbp)	#, j
	jns	.L49	#,
	.loc 1 140 0 is_stmt 1
	movq	-64(%rbp), %rax	# chr, tmp116
	movl	(%rax), %eax	# *chr_23(D), tmp117
	movl	%eax, -40(%rbp)	# tmp117, old
	.loc 1 141 0
	movl	-68(%rbp), %eax	# length, tmp121
	subl	$1, %eax	#, tmp120
	movl	%eax, -48(%rbp)	# tmp120, j
	jmp	.L50	#
.L52:
	.loc 1 142 0
	movl	-48(%rbp), %eax	# j, tmp122
	cltq
	leaq	0(,%rax,4), %rdx	#, D.5534
	movq	-56(%rbp), %rax	# dig, tmp123
	addq	%rdx, %rax	# D.5534, D.5536
	movl	(%rax), %eax	# *_37, D.5533
	imull	-44(%rbp), %eax	# tenl, D.5533
	movl	-40(%rbp), %edx	# old, tmp127
	subl	%eax, %edx	# D.5533, tmp126
	movl	%edx, %eax	# tmp126, tmp126
	movl	%eax, -36(%rbp)	# tmp126, newv
	.loc 1 143 0
	movl	-36(%rbp), %edx	# newv, tmp128
	movl	%edx, %eax	# tmp128, tmp129
	sall	$2, %eax	#, tmp129
	addl	%edx, %eax	# tmp128, tmp129
	addl	%eax, %eax	# tmp130
	movl	%eax, %edx	# tmp129, D.5533
	movl	-48(%rbp), %eax	# j, tmp131
	cltq
	leaq	0(,%rax,4), %rcx	#, D.5534
	movq	-56(%rbp), %rax	# dig, tmp132
	addq	%rcx, %rax	# D.5534, D.5536
	movl	(%rax), %eax	# *_44, D.5533
	addl	%edx, %eax	# D.5533, tmp133
	movl	%eax, -36(%rbp)	# tmp133, newv
	.loc 1 144 0
	movq	-64(%rbp), %rax	# chr, tmp134
	movl	(%rax), %eax	# *chr_23(D), D.5533
	cmpl	-36(%rbp), %eax	# newv, D.5533
	jle	.L51	#,
	.loc 1 144 0 is_stmt 0 discriminator 1
	movq	-64(%rbp), %rax	# chr, tmp135
	movl	-36(%rbp), %edx	# newv, tmp136
	movl	%edx, (%rax)	# tmp136, *chr_23(D)
.L51:
	.loc 1 145 0 is_stmt 1
	movl	-36(%rbp), %eax	# newv, tmp137
	movl	%eax, -40(%rbp)	# tmp137, old
	.loc 1 141 0
	subl	$1, -48(%rbp)	#, j
.L50:
	.loc 1 141 0 is_stmt 0 discriminator 1
	cmpl	$0, -48(%rbp)	#, j
	jg	.L52	#,
	.loc 1 148 0 is_stmt 1
	movl	$0, -48(%rbp)	#, j
	jmp	.L53	#
.L54:
	.loc 1 148 0 is_stmt 0 discriminator 2
	movl	-48(%rbp), %eax	# j, tmp138
	movl	-68(%rbp), %edx	# length, tmp139
	subl	%eax, %edx	# tmp138, D.5533
	movl	%edx, %eax	# D.5533, D.5533
	cltq
	salq	$2, %rax	#, D.5534
	leaq	-4(%rax), %rdx	#, D.5535
	movq	-56(%rbp), %rax	# dig, tmp140
	addq	%rdx, %rax	# D.5535, D.5536
	movl	(%rax), %eax	# *_55, D.5533
	movl	$7, %edx	#, tmp141
	subl	%eax, %edx	# D.5533, D.5533
	movl	-48(%rbp), %eax	# j, tmp143
	cltq
	movl	%edx, -32(%rbp,%rax,4)	# D.5533, bdig
	addl	$1, -48(%rbp)	#, j
.L53:
	.loc 1 148 0 discriminator 1
	movl	-48(%rbp), %eax	# j, tmp144
	cmpl	-68(%rbp), %eax	# length, tmp144
	jl	.L54	#,
	.loc 1 149 0 is_stmt 1
	movl	-68(%rbp), %eax	# length, tmp145
	subl	$1, %eax	#, D.5533
	cltq
	movl	-32(%rbp,%rax,4), %eax	# bdig, tmp147
	movl	%eax, -40(%rbp)	# tmp147, old
	.loc 1 150 0
	movl	-68(%rbp), %eax	# length, tmp151
	subl	$2, %eax	#, tmp150
	movl	%eax, -48(%rbp)	# tmp150, j
	jmp	.L55	#
.L56:
	.loc 1 150 0 is_stmt 0 discriminator 2
	movl	-40(%rbp), %edx	# old, tmp152
	movl	%edx, %eax	# tmp152, tmp153
	sall	$2, %eax	#, tmp153
	addl	%edx, %eax	# tmp152, tmp153
	addl	%eax, %eax	# tmp154
	movl	%eax, %edx	# tmp153, D.5533
	movl	-48(%rbp), %eax	# j, tmp156
	cltq
	movl	-32(%rbp,%rax,4), %eax	# bdig, D.5533
	addl	%edx, %eax	# D.5533, tmp157
	movl	%eax, -40(%rbp)	# tmp157, old
	subl	$1, -48(%rbp)	#, j
.L55:
	.loc 1 150 0 discriminator 1
	cmpl	$0, -48(%rbp)	#, j
	jns	.L56	#,
	.loc 1 151 0 is_stmt 1
	movq	-64(%rbp), %rax	# chr, tmp158
	movl	(%rax), %eax	# *chr_23(D), D.5533
	cmpl	-40(%rbp), %eax	# old, D.5533
	jle	.L57	#,
	.loc 1 151 0 is_stmt 0 discriminator 1
	movq	-64(%rbp), %rax	# chr, tmp159
	movl	-40(%rbp), %edx	# old, tmp160
	movl	%edx, (%rax)	# tmp160, *chr_23(D)
.L57:
	.loc 1 152 0 is_stmt 1
	movl	-68(%rbp), %eax	# length, tmp164
	subl	$1, %eax	#, tmp163
	movl	%eax, -48(%rbp)	# tmp163, j
	jmp	.L58	#
.L60:
	.loc 1 153 0
	movl	-48(%rbp), %eax	# j, tmp166
	cltq
	movl	-32(%rbp,%rax,4), %eax	# bdig, D.5533
	imull	-44(%rbp), %eax	# tenl, D.5533
	movl	-40(%rbp), %edx	# old, tmp170
	subl	%eax, %edx	# D.5533, tmp169
	movl	%edx, %eax	# tmp169, tmp169
	movl	%eax, -36(%rbp)	# tmp169, newv
	.loc 1 154 0
	movl	-36(%rbp), %edx	# newv, tmp171
	movl	%edx, %eax	# tmp171, tmp172
	sall	$2, %eax	#, tmp172
	addl	%edx, %eax	# tmp171, tmp172
	addl	%eax, %eax	# tmp173
	movl	%eax, %edx	# tmp172, D.5533
	movl	-48(%rbp), %eax	# j, tmp175
	cltq
	movl	-32(%rbp,%rax,4), %eax	# bdig, D.5533
	addl	%edx, %eax	# D.5533, tmp176
	movl	%eax, -36(%rbp)	# tmp176, newv
	.loc 1 155 0
	movq	-64(%rbp), %rax	# chr, tmp177
	movl	(%rax), %eax	# *chr_23(D), D.5533
	cmpl	-36(%rbp), %eax	# newv, D.5533
	jle	.L59	#,
	.loc 1 155 0 is_stmt 0 discriminator 1
	movq	-64(%rbp), %rax	# chr, tmp178
	movl	-36(%rbp), %edx	# newv, tmp179
	movl	%edx, (%rax)	# tmp179, *chr_23(D)
.L59:
	.loc 1 156 0 is_stmt 1
	movl	-36(%rbp), %eax	# newv, tmp180
	movl	%eax, -40(%rbp)	# tmp180, old
	.loc 1 152 0
	subl	$1, -48(%rbp)	#, j
.L58:
	.loc 1 152 0 is_stmt 0 discriminator 1
	cmpl	$0, -48(%rbp)	#, j
	jg	.L60	#,
	.loc 1 158 0 is_stmt 1
	popq	%rbp	#
	.cfi_def_cfa 7, 8
	ret
	.cfi_endproc
.LFE3:
	.size	char_num, .-char_num
	.globl	imp_gauge_action
	.type	imp_gauge_action, @function
imp_gauge_action:
.LFB4:
	.loc 1 160 0
	.cfi_startproc
	pushq	%rbp	#
	.cfi_def_cfa_offset 16
	.cfi_offset 6, -16
	movq	%rsp, %rbp	#,
	.cfi_def_cfa_register 6
	pushq	%r12	#
	pushq	%rbx	#
	subq	$80, %rsp	#,
	.cfi_offset 12, -24
	.cfi_offset 3, -32
	.loc 1 172 0
	movl	$0, %eax	#, tmp73
	movq	%rax, -64(%rbp)	# tmp73, g_action
	.loc 1 175 0
	movl	$0, -72(%rbp)	#, iloop
	jmp	.L62	#
.L69:
	.loc 1 176 0
	movl	-72(%rbp), %eax	# iloop, tmp75
	cltq
	movl	loop_length(,%rax,4), %eax	# loop_length, tmp76
	movl	%eax, -68(%rbp)	# tmp76, length
	.loc 1 178 0
	movl	$0, -76(%rbp)	#, ln
	jmp	.L63	#
.L68:
	.loc 1 180 0
	movl	-76(%rbp), %eax	# ln, tmp78
	cltq
	movq	%rax, %rdx	# tmp77, tmp79
	addq	%rdx, %rdx	# tmp79
	addq	%rax, %rdx	# tmp77, tmp79
	leaq	0(,%rdx,8), %rax	#, tmp80
	movq	%rax, %rdx	# tmp80, tmp79
	movl	-72(%rbp), %eax	# iloop, tmp82
	movslq	%eax, %rcx	# tmp82, tmp81
	movq	%rcx, %rax	# tmp81, tmp83
	addq	%rax, %rax	# tmp83
	addq	%rcx, %rax	# tmp81, tmp83
	salq	$7, %rax	#, tmp84
	addq	%rdx, %rax	# tmp79, tmp85
	leaq	loop_table(%rax), %rdx	#, D.5538
	movl	-68(%rbp), %eax	# length, tmp86
	movl	%eax, %esi	# tmp86,
	movq	%rdx, %rdi	# D.5538,
	call	path_product	#
	.loc 1 182 0
	movl	$0, %r12d	#, i
	movq	lattice(%rip), %rbx	# lattice, s
	jmp	.L64	#
.L67:
	.loc 1 183 0
	leaq	1760(%rbx), %rax	#, D.5539
	movq	%rax, %rdi	# D.5539,
	call	trace_su3	#
	movsd	%xmm0, -88(%rbp)	#, %sfp
	movq	-88(%rbp), %rax	# %sfp, tmp87
	movsd	%xmm1, -88(%rbp)	#, %sfp
	movq	-88(%rbp), %rdx	# %sfp, tmp88
	movq	%rax, -32(%rbp)	# tmp87, trace
	movq	%rdx, -24(%rbp)	# tmp88, trace
	.loc 1 184 0
	movsd	-32(%rbp), %xmm1	# trace.real, D.5540
	movsd	.LC10(%rip), %xmm0	#, tmp90
	subsd	%xmm1, %xmm0	# D.5540, tmp89
	movsd	%xmm0, -40(%rbp)	# tmp89, action
	.loc 1 186 0
	movl	-72(%rbp), %eax	# iloop, tmp92
	cltq
	movsd	loop_coeff(,%rax,8), %xmm0	# loop_coeff, D.5540
	mulsd	-40(%rbp), %xmm0	# action, tmp93
	movsd	%xmm0, -48(%rbp)	# tmp93, total_action
	.loc 1 187 0
	movq	-40(%rbp), %rax	# action, tmp94
	movq	%rax, -56(%rbp)	# tmp94, act2
	.loc 1 188 0
	movl	$1, -80(%rbp)	#, rep
	jmp	.L65	#
.L66:
	.loc 1 189 0 discriminator 2
	movsd	-56(%rbp), %xmm0	# act2, tmp96
	mulsd	-40(%rbp), %xmm0	# action, tmp95
	movsd	%xmm0, -56(%rbp)	# tmp95, act2
	.loc 1 190 0 discriminator 2
	movl	-80(%rbp), %eax	# rep, tmp98
	movslq	%eax, %rdx	# tmp98, tmp97
	movl	-72(%rbp), %eax	# iloop, tmp100
	cltq
	addq	%rdx, %rax	# tmp97, tmp101
	movsd	loop_coeff(,%rax,8), %xmm0	# loop_coeff, D.5540
	mulsd	-56(%rbp), %xmm0	# act2, D.5540
	movsd	-48(%rbp), %xmm1	# total_action, tmp103
	addsd	%xmm1, %xmm0	# tmp103, tmp102
	movsd	%xmm0, -48(%rbp)	# tmp102, total_action
	.loc 1 188 0 discriminator 2
	addl	$1, -80(%rbp)	#, rep
.L65:
	.loc 1 188 0 is_stmt 0 discriminator 1
	cmpl	$0, -80(%rbp)	#, rep
	jle	.L66	#,
	.loc 1 193 0 is_stmt 1
	movsd	-64(%rbp), %xmm0	# g_action, g_action.12
	addsd	-48(%rbp), %xmm0	# total_action, g_action.13
	movsd	%xmm0, -64(%rbp)	# g_action.13, g_action
	.loc 1 182 0
	addl	$1, %r12d	#, i
	addq	$2048, %rbx	#, s
.L64:
	.loc 1 182 0 is_stmt 0 discriminator 1
	movl	sites_on_node(%rip), %eax	# sites_on_node, sites_on_node.14
	cmpl	%eax, %r12d	# sites_on_node.14, i
	jl	.L67	#,
	.loc 1 178 0 is_stmt 1
	addl	$1, -76(%rbp)	#, ln
.L63:
	.loc 1 178 0 is_stmt 0 discriminator 1
	movl	-72(%rbp), %eax	# iloop, tmp105
	cltq
	movl	loop_num(,%rax,4), %eax	# loop_num, D.5537
	cmpl	-76(%rbp), %eax	# ln, D.5537
	jg	.L68	#,
	.loc 1 175 0 is_stmt 1
	addl	$1, -72(%rbp)	#, iloop
.L62:
	.loc 1 175 0 is_stmt 0 discriminator 1
	cmpl	$2, -72(%rbp)	#, iloop
	jle	.L69	#,
	.loc 1 199 0 is_stmt 1
	leaq	-64(%rbp), %rax	#, tmp106
	movq	%rax, %rdi	# tmp106,
	call	g_doublesum	#
	.loc 1 200 0
	movq	-64(%rbp), %rax	# g_action, D.5540
	.loc 1 201 0
	movq	%rax, -88(%rbp)	# <retval>, %sfp
	movsd	-88(%rbp), %xmm0	# %sfp,
	addq	$80, %rsp	#,
	popq	%rbx	#
	popq	%r12	#
	popq	%rbp	#
	.cfi_def_cfa 7, 8
	ret
	.cfi_endproc
.LFE4:
	.size	imp_gauge_action, .-imp_gauge_action
	.globl	imp_gauge_force
	.type	imp_gauge_force, @function
imp_gauge_force:
.LFB5:
	.loc 1 205 0
	.cfi_startproc
	pushq	%rbp	#
	.cfi_def_cfa_offset 16
	.cfi_offset 6, -16
	movq	%rsp, %rbp	#,
	.cfi_def_cfa_register 6
	pushq	%r14	#
	pushq	%r13	#
	pushq	%r12	#
	pushq	%rbx	#
	subq	$432, %rsp	#,
	.cfi_offset 14, -24
	.cfi_offset 13, -32
	.cfi_offset 12, -40
	.cfi_offset 3, -48
	movsd	%xmm0, -440(%rbp)	# eps, eps
	movl	%edi, -444(%rbp)	# mom_off, mom_off
	.loc 1 227 0
	movsd	beta(%rip), %xmm0	# beta, beta.15
	mulsd	-440(%rbp), %xmm0	# eps, D.5541
	movsd	.LC10(%rip), %xmm1	#, tmp109
	divsd	%xmm1, %xmm0	# tmp109, eb3
	movsd	%xmm0, -456(%rbp)	# eb3, %sfp
	.loc 1 230 0
	movl	$0, %r13d	#, dir
	jmp	.L72	#
.L101:
	.loc 1 232 0
	movl	$0, %r12d	#, i
	movq	lattice(%rip), %rbx	# lattice, st
	jmp	.L73	#
.L78:
	.loc 1 232 0 is_stmt 0 discriminator 2
	movl	$0, -420(%rbp)	#, j
	jmp	.L74	#
.L77:
	movl	$0, -416(%rbp)	#, k
	jmp	.L75	#
.L76:
	.loc 1 233 0 is_stmt 1 discriminator 2
	movl	-416(%rbp), %eax	# k, tmp111
	movslq	%eax, %rcx	# tmp111, tmp110
	movl	-420(%rbp), %eax	# j, tmp113
	movslq	%eax, %rdx	# tmp113, tmp112
	movq	%rdx, %rax	# tmp112, tmp114
	addq	%rax, %rax	# tmp114
	addq	%rdx, %rax	# tmp112, tmp114
	addq	%rcx, %rax	# tmp110, tmp115
	addq	$119, %rax	#, tmp116
	salq	$4, %rax	#, tmp117
	leaq	(%rbx,%rax), %r14	#, tmp118
	xorpd	%xmm1, %xmm1	#
	xorpd	%xmm0, %xmm0	#
	call	cmplx	#
	movsd	%xmm0, -464(%rbp)	#, %sfp
	movq	-464(%rbp), %rax	# %sfp, tmp119
	movsd	%xmm1, -464(%rbp)	#, %sfp
	movq	-464(%rbp), %rdx	# %sfp, tmp120
	movq	%rax, (%r14)	# tmp119, st_5->staple.e
	movq	%rdx, 8(%r14)	# tmp120, st_5->staple.e
	.loc 1 232 0 discriminator 2
	addl	$1, -416(%rbp)	#, k
.L75:
	.loc 1 232 0 is_stmt 0 discriminator 1
	cmpl	$2, -416(%rbp)	#, k
	jle	.L76	#,
	.loc 1 232 0 discriminator 3
	addl	$1, -420(%rbp)	#, j
.L74:
	.loc 1 232 0 discriminator 1
	cmpl	$2, -420(%rbp)	#, j
	jle	.L77	#,
	.loc 1 232 0 discriminator 3
	addl	$1, %r12d	#, i
	addq	$2048, %rbx	#, st
.L73:
	.loc 1 232 0 discriminator 1
	movl	sites_on_node(%rip), %eax	# sites_on_node, sites_on_node.16
	cmpl	%eax, %r12d	# sites_on_node.16, i
	jl	.L78	#,
	.loc 1 236 0 is_stmt 1
	movl	$0, -404(%rbp)	#, ncount
	.loc 1 237 0
	movl	$0, -408(%rbp)	#, iloop
	jmp	.L79	#
.L98:
	.loc 1 238 0
	movl	-408(%rbp), %eax	# iloop, tmp122
	cltq
	movl	loop_length(,%rax,4), %eax	# loop_length, tmp123
	movl	%eax, -400(%rbp)	# tmp123, length
	.loc 1 239 0
	movl	$0, -412(%rbp)	#, ln
	jmp	.L80	#
.L97:
	.loc 1 243 0
	movl	$0, -416(%rbp)	#, k
	jmp	.L81	#
.L84:
	.loc 1 244 0
	movl	-416(%rbp), %eax	# k, tmp125
	movslq	%eax, %rsi	# tmp125, tmp124
	movl	-408(%rbp), %eax	# iloop, tmp127
	cltq
	movl	-412(%rbp), %edx	# ln, tmp129
	movslq	%edx, %rcx	# tmp129, tmp128
	movq	%rax, %rdx	# tmp126, tmp130
	addq	%rdx, %rdx	# tmp130
	addq	%rax, %rdx	# tmp126, tmp130
	movq	%rdx, %rax	# tmp130, tmp131
	salq	$5, %rax	#, tmp131
	movq	%rax, %rdx	# tmp131, tmp130
	movq	%rcx, %rax	# tmp128, tmp132
	addq	%rax, %rax	# tmp132
	addq	%rcx, %rax	# tmp128, tmp132
	addq	%rax, %rax	# tmp133
	addq	%rdx, %rax	# tmp130, tmp134
	addq	%rsi, %rax	# tmp124, tmp135
	movl	loop_table(,%rax,4), %eax	# loop_table, D.5542
	cmpl	$3, %eax	#, D.5542
	jg	.L82	#,
	.loc 1 245 0
	movl	-416(%rbp), %eax	# k, tmp137
	movslq	%eax, %rsi	# tmp137, tmp136
	movl	-408(%rbp), %eax	# iloop, tmp139
	cltq
	movl	-412(%rbp), %edx	# ln, tmp141
	movslq	%edx, %rcx	# tmp141, tmp140
	movq	%rax, %rdx	# tmp138, tmp142
	addq	%rdx, %rdx	# tmp142
	addq	%rax, %rdx	# tmp138, tmp142
	movq	%rdx, %rax	# tmp142, tmp143
	salq	$5, %rax	#, tmp143
	movq	%rax, %rdx	# tmp143, tmp142
	movq	%rcx, %rax	# tmp140, tmp144
	addq	%rax, %rax	# tmp144
	addq	%rcx, %rax	# tmp140, tmp144
	addq	%rax, %rax	# tmp145
	addq	%rdx, %rax	# tmp142, tmp146
	addq	%rsi, %rax	# tmp136, tmp147
	movl	loop_table(,%rax,4), %eax	# loop_table, D.5542
	leal	(%rax,%r13), %edx	#, D.5542
	movl	%edx, %eax	# D.5542, tmp148
	sarl	$31, %eax	#, tmp148
	shrl	$30, %eax	#, tmp149
	addl	%eax, %edx	# tmp149, tmp150
	andl	$3, %edx	#, tmp151
	subl	%eax, %edx	# tmp149, tmp152
	movl	%edx, %eax	# tmp152, tmp152
	movl	%eax, %edx	# tmp152, D.5542
	movl	-416(%rbp), %eax	# k, tmp154
	cltq
	movl	%edx, -384(%rbp,%rax,4)	# D.5542, dirs
	jmp	.L83	#
.L82:
	.loc 1 248 0
	movl	-416(%rbp), %eax	# k, tmp156
	movslq	%eax, %rsi	# tmp156, tmp155
	movl	-408(%rbp), %eax	# iloop, tmp158
	cltq
	movl	-412(%rbp), %edx	# ln, tmp160
	movslq	%edx, %rcx	# tmp160, tmp159
	movq	%rax, %rdx	# tmp157, tmp161
	addq	%rdx, %rdx	# tmp161
	addq	%rax, %rdx	# tmp157, tmp161
	movq	%rdx, %rax	# tmp161, tmp162
	salq	$5, %rax	#, tmp162
	movq	%rax, %rdx	# tmp162, tmp161
	movq	%rcx, %rax	# tmp159, tmp163
	addq	%rax, %rax	# tmp163
	addq	%rcx, %rax	# tmp159, tmp163
	addq	%rax, %rax	# tmp164
	addq	%rdx, %rax	# tmp161, tmp165
	addq	%rsi, %rax	# tmp155, tmp166
	movl	loop_table(,%rax,4), %eax	# loop_table, D.5542
	movl	$7, %edx	#, tmp167
	subl	%eax, %edx	# D.5542, D.5542
	movl	%edx, %eax	# D.5542, D.5542
	leal	(%rax,%r13), %edx	#, D.5542
	movl	%edx, %eax	# D.5542, tmp168
	sarl	$31, %eax	#, tmp168
	shrl	$30, %eax	#, tmp169
	addl	%eax, %edx	# tmp169, tmp170
	andl	$3, %edx	#, tmp171
	subl	%eax, %edx	# tmp169, tmp172
	movl	%edx, %eax	# tmp172, tmp172
	movl	$7, %edx	#, tmp173
	subl	%eax, %edx	# D.5542, D.5542
	movl	-416(%rbp), %eax	# k, tmp175
	cltq
	movl	%edx, -384(%rbp,%rax,4)	# D.5542, dirs
.L83:
	.loc 1 243 0
	addl	$1, -416(%rbp)	#, k
.L81:
	.loc 1 243 0 is_stmt 0 discriminator 1
	movl	-416(%rbp), %eax	# k, tmp176
	cmpl	-400(%rbp), %eax	# length, tmp176
	jl	.L84	#,
	.loc 1 253 0 is_stmt 1
	movl	-400(%rbp), %eax	# length, tmp180
	subl	$1, %eax	#, tmp179
	movl	%eax, -396(%rbp)	# tmp179, path_length
	.loc 1 258 0
	movl	$0, -416(%rbp)	#, k
	jmp	.L85	#
.L96:
	.loc 1 258 0 is_stmt 0 discriminator 2
	movl	-416(%rbp), %eax	# k, tmp182
	cltq
	movl	-384(%rbp,%rax,4), %eax	# dirs, D.5542
	cmpl	%r13d, %eax	# dir, D.5542
	je	.L86	#,
	.loc 1 258 0 discriminator 1
	movl	-416(%rbp), %eax	# k, tmp184
	cltq
	movl	-384(%rbp,%rax,4), %eax	# dirs, D.5542
	movl	$7, %edx	#, tmp185
	subl	%r13d, %edx	# dir, D.5542
	cmpl	%edx, %eax	# D.5542, D.5542
	jne	.L87	#,
.L86:
	.loc 1 259 0 is_stmt 1
	movl	-416(%rbp), %eax	# k, tmp187
	cltq
	movl	-384(%rbp,%rax,4), %eax	# dirs, D.5542
	cmpl	$3, %eax	#, D.5542
	jg	.L88	#,
	.loc 1 259 0 is_stmt 0 discriminator 1
	movl	$0, -420(%rbp)	#, j
	jmp	.L89	#
.L90:
	.loc 1 260 0 is_stmt 1 discriminator 2
	movl	-420(%rbp), %eax	# j, tmp188
	movl	-416(%rbp), %edx	# k, tmp189
	addl	%edx, %eax	# tmp189, D.5542
	addl	$1, %eax	#, D.5542
	cltd
	idivl	-400(%rbp)	# length
	movl	%edx, %eax	# tmp190, D.5542
	cltq
	movl	-384(%rbp,%rax,4), %edx	# dirs, D.5542
	movl	-420(%rbp), %eax	# j, tmp194
	cltq
	movl	%edx, -352(%rbp,%rax,4)	# D.5542, path_dir
	.loc 1 259 0 discriminator 2
	addl	$1, -420(%rbp)	#, j
.L89:
	.loc 1 259 0 is_stmt 0 discriminator 1
	movl	-420(%rbp), %eax	# j, tmp195
	cmpl	-396(%rbp), %eax	# path_length, tmp195
	jl	.L90	#,
.L88:
	.loc 1 262 0 is_stmt 1
	movl	-416(%rbp), %eax	# k, tmp197
	cltq
	movl	-384(%rbp,%rax,4), %eax	# dirs, D.5542
	cmpl	$3, %eax	#, D.5542
	jle	.L91	#,
	.loc 1 262 0 is_stmt 0 discriminator 1
	movl	$0, -420(%rbp)	#, j
	jmp	.L92	#
.L93:
	.loc 1 263 0 is_stmt 1 discriminator 2
	movl	-396(%rbp), %eax	# path_length, tmp198
	subl	$1, %eax	#, D.5542
	subl	-420(%rbp), %eax	# j, D.5542
	movl	%eax, %ecx	# D.5542, D.5542
	.loc 1 264 0 discriminator 2
	movl	-420(%rbp), %eax	# j, tmp199
	movl	-416(%rbp), %edx	# k, tmp200
	addl	%edx, %eax	# tmp200, D.5542
	addl	$1, %eax	#, D.5542
	cltd
	idivl	-400(%rbp)	# length
	movl	%edx, %eax	# tmp201, D.5542
	cltq
	movl	-384(%rbp,%rax,4), %eax	# dirs, D.5542
	movl	$7, %edx	#, tmp204
	subl	%eax, %edx	# D.5542, D.5542
	.loc 1 263 0 discriminator 2
	movslq	%ecx, %rax	# D.5542, tmp205
	movl	%edx, -352(%rbp,%rax,4)	# D.5542, path_dir
	.loc 1 262 0 discriminator 2
	addl	$1, -420(%rbp)	#, j
.L92:
	.loc 1 262 0 is_stmt 0 discriminator 1
	movl	-420(%rbp), %eax	# j, tmp206
	cmpl	-396(%rbp), %eax	# path_length, tmp206
	jl	.L93	#,
.L91:
	.loc 1 267 0 is_stmt 1
	movl	-396(%rbp), %edx	# path_length, tmp207
	leaq	-352(%rbp), %rax	#, tmp208
	movl	%edx, %esi	# tmp207,
	movq	%rax, %rdi	# tmp208,
	call	path_product	#
	.loc 1 274 0
	movl	$0, %r12d	#, i
	movq	lattice(%rip), %rbx	# lattice, st
	jmp	.L94	#
.L95:
	.loc 1 275 0
	leaq	1760(%rbx), %rax	#, D.5543
	leaq	-320(%rbp), %rdx	#, tmp209
	movq	%rdx, %rsi	# tmp209,
	movq	%rax, %rdi	# D.5543,
	call	su3_adjoint	#
	.loc 1 277 0
	movl	-408(%rbp), %eax	# iloop, tmp211
	cltq
	movq	loop_coeff(,%rax,8), %rax	# loop_coeff, tmp212
	movq	%rax, -392(%rbp)	# tmp212, new_term
	.loc 1 293 0
	leaq	1904(%rbx), %rdx	#, D.5543
	leaq	1904(%rbx), %rcx	#, D.5543
	movq	-392(%rbp), %rax	# new_term, tmp213
	leaq	-320(%rbp), %rsi	#, tmp214
	movq	%rax, -464(%rbp)	# tmp213, %sfp
	movsd	-464(%rbp), %xmm0	# %sfp,
	movq	%rcx, %rdi	# D.5543,
	call	scalar_mult_add_su3_matrix	#
	.loc 1 274 0
	addl	$1, %r12d	#, i
	addq	$2048, %rbx	#, st
.L94:
	.loc 1 274 0 is_stmt 0 discriminator 1
	movl	sites_on_node(%rip), %eax	# sites_on_node, sites_on_node.18
	cmpl	%eax, %r12d	# sites_on_node.18, i
	jl	.L95	#,
	.loc 1 298 0 is_stmt 1
	addl	$1, -404(%rbp)	#, ncount
.L87:
	.loc 1 258 0 discriminator 1
	addl	$1, -416(%rbp)	#, k
.L85:
	movl	-416(%rbp), %eax	# k, tmp215
	cmpl	-400(%rbp), %eax	# length, tmp215
	jl	.L96	#,
	.loc 1 239 0
	addl	$1, -412(%rbp)	#, ln
.L80:
	.loc 1 239 0 is_stmt 0 discriminator 1
	movl	-408(%rbp), %eax	# iloop, tmp217
	cltq
	movl	loop_num(,%rax,4), %eax	# loop_num, D.5542
	cmpl	-412(%rbp), %eax	# ln, D.5542
	jg	.L97	#,
	.loc 1 237 0 is_stmt 1
	addl	$1, -408(%rbp)	#, iloop
.L79:
	.loc 1 237 0 is_stmt 0 discriminator 1
	cmpl	$2, -408(%rbp)	#, iloop
	jle	.L98	#,
	.loc 1 305 0 is_stmt 1
	movl	$0, %r12d	#, i
	movq	lattice(%rip), %rbx	# lattice, st
	jmp	.L99	#
.L100:
	.loc 1 306 0 discriminator 2
	leaq	1904(%rbx), %rcx	#, D.5543
	movslq	%r13d, %rdx	# dir, tmp218
	movq	%rdx, %rax	# tmp218, tmp219
	salq	$3, %rax	#, tmp219
	addq	%rdx, %rax	# tmp218, tmp219
	salq	$4, %rax	#, tmp220
	addq	$112, %rax	#, tmp221
	leaq	(%rbx,%rax), %rdi	#, D.5543
	leaq	-320(%rbp), %rax	#, tmp222
	movq	%rax, %rdx	# tmp222,
	movq	%rcx, %rsi	# D.5543,
	call	mult_su3_na	#
	.loc 1 307 0 discriminator 2
	movl	-444(%rbp), %eax	# mom_off, tmp223
	cltq
	leaq	(%rbx,%rax), %r14	#, momentum
	.loc 1 308 0 discriminator 2
	movslq	%r13d, %rdx	# dir, D.5545
	movq	%rdx, %rax	# D.5545, tmp224
	salq	$2, %rax	#, tmp224
	addq	%rdx, %rax	# D.5545, tmp224
	salq	$4, %rax	#, tmp225
	leaq	(%r14,%rax), %rdx	#, D.5546
	leaq	-176(%rbp), %rax	#, tmp226
	movq	%rax, %rsi	# tmp226,
	movq	%rdx, %rdi	# D.5546,
	call	uncompress_anti_hermitian	#
	.loc 1 309 0 discriminator 2
	leaq	1904(%rbx), %rdx	#, D.5543
	leaq	-320(%rbp), %rcx	#, tmp227
	leaq	-176(%rbp), %rax	#, tmp228
	movsd	-456(%rbp), %xmm0	# %sfp,
	movq	%rcx, %rsi	# tmp227,
	movq	%rax, %rdi	# tmp228,
	call	scalar_mult_sub_su3_matrix	#
	.loc 1 311 0 discriminator 2
	movslq	%r13d, %rdx	# dir, D.5545
	movq	%rdx, %rax	# D.5545, tmp229
	salq	$2, %rax	#, tmp229
	addq	%rdx, %rax	# D.5545, tmp229
	salq	$4, %rax	#, tmp230
	leaq	(%r14,%rax), %rdx	#, D.5546
	leaq	1904(%rbx), %rax	#, D.5543
	movq	%rdx, %rsi	# D.5546,
	movq	%rax, %rdi	# D.5543,
	call	make_anti_hermitian	#
	.loc 1 305 0 discriminator 2
	addl	$1, %r12d	#, i
	addq	$2048, %rbx	#, st
.L99:
	.loc 1 305 0 is_stmt 0 discriminator 1
	movl	sites_on_node(%rip), %eax	# sites_on_node, sites_on_node.19
	cmpl	%eax, %r12d	# sites_on_node.19, i
	jl	.L100	#,
	.loc 1 230 0 is_stmt 1
	addl	$1, %r13d	#, dir
.L72:
	.loc 1 230 0 is_stmt 0 discriminator 1
	cmpl	$3, %r13d	#, dir
	jle	.L101	#,
	.loc 1 318 0 is_stmt 1
	addq	$432, %rsp	#,
	popq	%rbx	#
	popq	%r12	#
	popq	%r13	#
	popq	%r14	#
	popq	%rbp	#
	.cfi_def_cfa 7, 8
	ret
	.cfi_endproc
.LFE5:
	.size	imp_gauge_force, .-imp_gauge_force
	.section	.rodata
.LC11:
	.string	"PLAQ:\t%f\t%f\n"
.LC12:
	.string	"P_LOOP:\t%e\t%e\n"
.LC13:
	.string	"G_LOOP:  %d  %d  %d   "
.LC14:
	.string	"\t%e"
.LC15:
	.string	"\t( "
.LC16:
	.string	"%d "
.LC17:
	.string	" )"
.LC18:
	.string	"GACTION: %e\n"
	.text
	.globl	g_measure
	.type	g_measure, @function
g_measure:
.LFB6:
	.loc 1 325 0
	.cfi_startproc
	pushq	%rbp	#
	.cfi_def_cfa_offset 16
	.cfi_offset 6, -16
	movq	%rsp, %rbp	#,
	.cfi_def_cfa_register 6
	pushq	%r12	#
	pushq	%rbx	#
	subq	$112, %rsp	#,
	.cfi_offset 12, -24
	.cfi_offset 3, -32
	.loc 1 337 0
	leaq	-80(%rbp), %rdx	#, tmp102
	leaq	-88(%rbp), %rax	#, tmp103
	movq	%rdx, %rsi	# tmp102,
	movq	%rax, %rdi	# tmp103,
	call	d_plaquette	#
	.loc 1 338 0
	movl	this_node(%rip), %eax	# this_node, this_node.20
	testl	%eax, %eax	# this_node.20
	jne	.L103	#,
	.loc 1 338 0 is_stmt 0 discriminator 1
	movq	-80(%rbp), %rdx	# st_plaquette, st_plaquette.21
	movq	-88(%rbp), %rax	# ss_plaquette, ss_plaquette.22
	movq	%rdx, -120(%rbp)	# st_plaquette.21, %sfp
	movsd	-120(%rbp), %xmm1	# %sfp,
	movq	%rax, -120(%rbp)	# ss_plaquette.22, %sfp
	movsd	-120(%rbp), %xmm0	# %sfp,
	movl	$.LC11, %edi	#,
	movl	$2, %eax	#,
	call	printf	#
.L103:
	.loc 1 340 0 is_stmt 1
	call	ploop	#
	movsd	%xmm0, -120(%rbp)	#, %sfp
	movq	-120(%rbp), %rax	# %sfp, tmp104
	movsd	%xmm1, -120(%rbp)	#, %sfp
	movq	-120(%rbp), %rdx	# %sfp, tmp105
	movq	%rax, -48(%rbp)	# tmp104, p_loop
	movq	%rdx, -40(%rbp)	# tmp105, p_loop
	.loc 1 341 0
	movl	this_node(%rip), %eax	# this_node, this_node.23
	testl	%eax, %eax	# this_node.23
	jne	.L104	#,
	.loc 1 341 0 is_stmt 0 discriminator 1
	movq	-40(%rbp), %rdx	# p_loop.imag, D.5547
	movq	-48(%rbp), %rax	# p_loop.real, D.5547
	movq	%rdx, -120(%rbp)	# D.5547, %sfp
	movsd	-120(%rbp), %xmm1	# %sfp,
	movq	%rax, -120(%rbp)	# D.5547, %sfp
	movsd	-120(%rbp), %xmm0	# %sfp,
	movl	$.LC12, %edi	#,
	movl	$2, %eax	#,
	call	printf	#
.L104:
	.loc 1 344 0 is_stmt 1
	movl	$0, %eax	#, tmp106
	movq	%rax, -72(%rbp)	# tmp106, total_action
	.loc 1 345 0
	movl	$0, -108(%rbp)	#, iloop
	jmp	.L105	#
.L123:
	.loc 1 346 0
	movl	-108(%rbp), %eax	# iloop, tmp108
	cltq
	movl	loop_length(,%rax,4), %eax	# loop_length, tmp109
	movl	%eax, -100(%rbp)	# tmp109, length
	.loc 1 348 0
	movl	$0, -112(%rbp)	#, ln
	jmp	.L106	#
.L122:
	.loc 1 350 0
	movl	-112(%rbp), %eax	# ln, tmp111
	cltq
	movq	%rax, %rdx	# tmp110, tmp112
	addq	%rdx, %rdx	# tmp112
	addq	%rax, %rdx	# tmp110, tmp112
	leaq	0(,%rdx,8), %rax	#, tmp113
	movq	%rax, %rdx	# tmp113, tmp112
	movl	-108(%rbp), %eax	# iloop, tmp115
	movslq	%eax, %rcx	# tmp115, tmp114
	movq	%rcx, %rax	# tmp114, tmp116
	addq	%rax, %rax	# tmp116
	addq	%rcx, %rax	# tmp114, tmp116
	salq	$7, %rax	#, tmp117
	addq	%rdx, %rax	# tmp112, tmp118
	leaq	loop_table(%rax), %rdx	#, D.5549
	movl	-100(%rbp), %eax	# length, tmp119
	movl	%eax, %esi	# tmp119,
	movq	%rdx, %rdi	# D.5549,
	call	path_product	#
	.loc 1 352 0
	movl	$0, -104(%rbp)	#, rep
	jmp	.L107	#
.L108:
	.loc 1 352 0 is_stmt 0 discriminator 2
	movl	-104(%rbp), %eax	# rep, tmp121
	movslq	%eax, %rdx	# tmp121, tmp120
	movl	$0, %eax	#, tmp122
	movq	%rax, -96(%rbp,%rdx,8)	# tmp122, average
	addl	$1, -104(%rbp)	#, rep
.L107:
	.loc 1 352 0 discriminator 1
	cmpl	$0, -104(%rbp)	#, rep
	jle	.L108	#,
	.loc 1 353 0 is_stmt 1
	movl	$0, %ebx	#, i
	movq	lattice(%rip), %r12	# lattice, s
	jmp	.L109	#
.L112:
	.loc 1 354 0
	leaq	1760(%r12), %rax	#, D.5550
	movq	%rax, %rdi	# D.5550,
	call	trace_su3	#
	movsd	%xmm0, -120(%rbp)	#, %sfp
	movq	-120(%rbp), %rax	# %sfp, tmp123
	movsd	%xmm1, -120(%rbp)	#, %sfp
	movq	-120(%rbp), %rdx	# %sfp, tmp124
	movq	%rax, -32(%rbp)	# tmp123, trace
	movq	%rdx, -24(%rbp)	# tmp124, trace
	.loc 1 355 0
	movsd	-96(%rbp), %xmm1	# average, D.5547
	movsd	-32(%rbp), %xmm0	# trace.real, D.5547
	addsd	%xmm1, %xmm0	# D.5547, D.5547
	movsd	%xmm0, -96(%rbp)	# D.5547, average
	.loc 1 356 0
	movsd	-32(%rbp), %xmm1	# trace.real, D.5547
	movsd	.LC10(%rip), %xmm0	#, tmp126
	subsd	%xmm1, %xmm0	# D.5547, tmp125
	movsd	%xmm0, -56(%rbp)	# tmp125, action
	.loc 1 357 0
	movl	-108(%rbp), %eax	# iloop, tmp128
	cltq
	movsd	loop_coeff(,%rax,8), %xmm0	# loop_coeff, D.5547
	mulsd	-56(%rbp), %xmm0	# action, D.5547
	movsd	-72(%rbp), %xmm1	# total_action, total_action.24
	addsd	%xmm1, %xmm0	# total_action.24, total_action.25
	movsd	%xmm0, -72(%rbp)	# total_action.25, total_action
	.loc 1 359 0
	movq	-56(%rbp), %rax	# action, tmp129
	movq	%rax, -64(%rbp)	# tmp129, act2
	.loc 1 360 0
	movl	$1, -104(%rbp)	#, rep
	jmp	.L110	#
.L111:
	.loc 1 361 0 discriminator 2
	movsd	-64(%rbp), %xmm0	# act2, tmp131
	mulsd	-56(%rbp), %xmm0	# action, tmp130
	movsd	%xmm0, -64(%rbp)	# tmp130, act2
	.loc 1 362 0 discriminator 2
	movl	-104(%rbp), %eax	# rep, tmp133
	cltq
	movsd	-96(%rbp,%rax,8), %xmm0	# average, D.5547
	addsd	-64(%rbp), %xmm0	# act2, D.5547
	movl	-104(%rbp), %eax	# rep, tmp135
	cltq
	movsd	%xmm0, -96(%rbp,%rax,8)	# D.5547, average
	.loc 1 363 0 discriminator 2
	movl	-104(%rbp), %eax	# rep, tmp137
	movslq	%eax, %rdx	# tmp137, tmp136
	movl	-108(%rbp), %eax	# iloop, tmp139
	cltq
	addq	%rdx, %rax	# tmp136, tmp140
	movsd	loop_coeff(,%rax,8), %xmm0	# loop_coeff, D.5547
	mulsd	-64(%rbp), %xmm0	# act2, D.5547
	movsd	-72(%rbp), %xmm1	# total_action, total_action.26
	addsd	%xmm1, %xmm0	# total_action.26, total_action.27
	movsd	%xmm0, -72(%rbp)	# total_action.27, total_action
	.loc 1 360 0 discriminator 2
	addl	$1, -104(%rbp)	#, rep
.L110:
	.loc 1 360 0 is_stmt 0 discriminator 1
	cmpl	$0, -104(%rbp)	#, rep
	jle	.L111	#,
	.loc 1 353 0 is_stmt 1
	addl	$1, %ebx	#, i
	addq	$2048, %r12	#, s
.L109:
	.loc 1 353 0 is_stmt 0 discriminator 1
	movl	sites_on_node(%rip), %eax	# sites_on_node, sites_on_node.28
	cmpl	%eax, %ebx	# sites_on_node.28, i
	jl	.L112	#,
	.loc 1 366 0 is_stmt 1
	leaq	-96(%rbp), %rax	#, tmp141
	movl	$1, %esi	#,
	movq	%rax, %rdi	# tmp141,
	call	g_vecdoublesum	#
	.loc 1 368 0
	movl	this_node(%rip), %eax	# this_node, this_node.29
	testl	%eax, %eax	# this_node.29
	jne	.L113	#,
	.loc 1 368 0 is_stmt 0 discriminator 1
	movl	-100(%rbp), %ecx	# length, tmp142
	movl	-112(%rbp), %edx	# ln, tmp143
	movl	-108(%rbp), %eax	# iloop, tmp144
	movl	%eax, %esi	# tmp144,
	movl	$.LC13, %edi	#,
	movl	$0, %eax	#,
	call	printf	#
.L113:
	.loc 1 369 0 is_stmt 1
	movl	$0, -104(%rbp)	#, rep
	jmp	.L114	#
.L116:
	.loc 1 369 0 is_stmt 0 discriminator 2
	movl	this_node(%rip), %eax	# this_node, this_node.30
	testl	%eax, %eax	# this_node.30
	jne	.L115	#,
	.loc 1 369 0 discriminator 1
	movl	-104(%rbp), %eax	# rep, tmp146
	cltq
	movsd	-96(%rbp,%rax,8), %xmm1	# average, D.5547
	movl	volume(%rip), %eax	# volume, volume.31
	cvtsi2sd	%eax, %xmm0	# volume.31, D.5547
	divsd	%xmm0, %xmm1	# D.5547, D.5547
	movapd	%xmm1, %xmm0	# D.5547, D.5547
	movl	$.LC14, %edi	#,
	movl	$1, %eax	#,
	call	printf	#
.L115:
	.loc 1 369 0 discriminator 2
	addl	$1, -104(%rbp)	#, rep
.L114:
	.loc 1 369 0 discriminator 1
	cmpl	$0, -104(%rbp)	#, rep
	jle	.L116	#,
	.loc 1 370 0 is_stmt 1
	movl	this_node(%rip), %eax	# this_node, this_node.32
	testl	%eax, %eax	# this_node.32
	jne	.L117	#,
	.loc 1 370 0 is_stmt 0 discriminator 1
	movl	$.LC15, %edi	#,
	movl	$0, %eax	#,
	call	printf	#
.L117:
	.loc 1 371 0 is_stmt 1
	movl	$0, %ebx	#, i
	jmp	.L118	#
.L120:
	.loc 1 371 0 is_stmt 0 discriminator 2
	movl	this_node(%rip), %eax	# this_node, this_node.33
	testl	%eax, %eax	# this_node.33
	jne	.L119	#,
	.loc 1 371 0 discriminator 1
	movslq	%ebx, %rsi	# i, tmp147
	movl	-108(%rbp), %eax	# iloop, tmp149
	cltq
	movl	-112(%rbp), %edx	# ln, tmp151
	movslq	%edx, %rcx	# tmp151, tmp150
	movq	%rax, %rdx	# tmp148, tmp152
	addq	%rdx, %rdx	# tmp152
	addq	%rax, %rdx	# tmp148, tmp152
	movq	%rdx, %rax	# tmp152, tmp153
	salq	$5, %rax	#, tmp153
	movq	%rax, %rdx	# tmp153, tmp152
	movq	%rcx, %rax	# tmp150, tmp154
	addq	%rax, %rax	# tmp154
	addq	%rcx, %rax	# tmp150, tmp154
	addq	%rax, %rax	# tmp155
	addq	%rdx, %rax	# tmp152, tmp156
	addq	%rsi, %rax	# tmp147, tmp157
	movl	loop_table(,%rax,4), %eax	# loop_table, D.5548
	movl	%eax, %esi	# D.5548,
	movl	$.LC16, %edi	#,
	movl	$0, %eax	#,
	call	printf	#
.L119:
	.loc 1 371 0 discriminator 2
	addl	$1, %ebx	#, i
.L118:
	.loc 1 371 0 discriminator 1
	cmpl	-100(%rbp), %ebx	# length, i
	jl	.L120	#,
	.loc 1 372 0 is_stmt 1
	movl	this_node(%rip), %eax	# this_node, this_node.34
	testl	%eax, %eax	# this_node.34
	jne	.L121	#,
	.loc 1 372 0 is_stmt 0 discriminator 1
	movl	$.LC17, %edi	#,
	call	puts	#
.L121:
	.loc 1 348 0 is_stmt 1
	addl	$1, -112(%rbp)	#, ln
.L106:
	.loc 1 348 0 is_stmt 0 discriminator 1
	movl	-108(%rbp), %eax	# iloop, tmp159
	cltq
	movl	loop_num(,%rax,4), %eax	# loop_num, D.5548
	cmpl	-112(%rbp), %eax	# ln, D.5548
	jg	.L122	#,
	.loc 1 345 0 is_stmt 1
	addl	$1, -108(%rbp)	#, iloop
.L105:
	.loc 1 345 0 is_stmt 0 discriminator 1
	cmpl	$2, -108(%rbp)	#, iloop
	jle	.L123	#,
	.loc 1 375 0 is_stmt 1
	leaq	-72(%rbp), %rax	#, tmp160
	movq	%rax, %rdi	# tmp160,
	call	g_doublesum	#
	.loc 1 376 0
	movl	this_node(%rip), %eax	# this_node, this_node.35
	testl	%eax, %eax	# this_node.35
	jne	.L124	#,
	.loc 1 376 0 is_stmt 0 discriminator 1
	movsd	-72(%rbp), %xmm1	# total_action, total_action.36
	movl	volume(%rip), %eax	# volume, volume.37
	cvtsi2sd	%eax, %xmm0	# volume.37, D.5547
	divsd	%xmm0, %xmm1	# D.5547, D.5547
	movapd	%xmm1, %xmm0	# D.5547, D.5547
	movl	$.LC18, %edi	#,
	movl	$1, %eax	#,
	call	printf	#
.L124:
	.loc 1 379 0 is_stmt 1
	movl	this_node(%rip), %eax	# this_node, this_node.38
	testl	%eax, %eax	# this_node.38
	jne	.L102	#,
	.loc 1 379 0 is_stmt 0 discriminator 1
	movq	stdout(%rip), %rax	# stdout, stdout.39
	movq	%rax, %rdi	# stdout.39,
	call	fflush	#
.L102:
	.loc 1 381 0 is_stmt 1
	addq	$112, %rsp	#,
	popq	%rbx	#
	popq	%r12	#
	popq	%rbp	#
	.cfi_def_cfa 7, 8
	ret
	.cfi_endproc
.LFE6:
	.size	g_measure, .-g_measure
	.section	.rodata
.LC19:
	.string	",  L = %d )\n"
	.text
	.globl	printpath
	.type	printpath, @function
printpath:
.LFB7:
	.loc 1 383 0
	.cfi_startproc
	pushq	%rbp	#
	.cfi_def_cfa_offset 16
	.cfi_offset 6, -16
	movq	%rsp, %rbp	#,
	.cfi_def_cfa_register 6
	pushq	%rbx	#
	subq	$24, %rsp	#,
	.cfi_offset 3, -24
	movq	%rdi, -24(%rbp)	# path, path
	movl	%esi, -28(%rbp)	# length, length
	.loc 1 385 0
	movl	this_node(%rip), %eax	# this_node, this_node.40
	testl	%eax, %eax	# this_node.40
	jne	.L127	#,
	.loc 1 385 0 is_stmt 0 discriminator 1
	movl	$.LC15, %edi	#,
	movl	$0, %eax	#,
	call	printf	#
.L127:
	.loc 1 386 0 is_stmt 1
	movl	$0, %ebx	#, i
	jmp	.L128	#
.L130:
	.loc 1 386 0 is_stmt 0 discriminator 2
	movl	this_node(%rip), %eax	# this_node, this_node.41
	testl	%eax, %eax	# this_node.41
	jne	.L129	#,
	.loc 1 386 0 discriminator 1
	movslq	%ebx, %rax	# i, D.5559
	leaq	0(,%rax,4), %rdx	#, D.5559
	movq	-24(%rbp), %rax	# path, tmp67
	addq	%rdx, %rax	# D.5559, D.5560
	movl	(%rax), %eax	# *_9, D.5561
	movl	%eax, %esi	# D.5561,
	movl	$.LC16, %edi	#,
	movl	$0, %eax	#,
	call	printf	#
.L129:
	.loc 1 386 0 discriminator 2
	addl	$1, %ebx	#, i
.L128:
	.loc 1 386 0 discriminator 1
	cmpl	-28(%rbp), %ebx	# length, i
	jl	.L130	#,
	.loc 1 387 0 is_stmt 1
	movl	this_node(%rip), %eax	# this_node, this_node.42
	testl	%eax, %eax	# this_node.42
	jne	.L126	#,
	.loc 1 387 0 is_stmt 0 discriminator 1
	movl	-28(%rbp), %eax	# length, tmp68
	movl	%eax, %esi	# tmp68,
	movl	$.LC19, %edi	#,
	movl	$0, %eax	#,
	call	printf	#
.L126:
	.loc 1 388 0 is_stmt 1
	addq	$24, %rsp	#,
	popq	%rbx	#
	popq	%rbp	#
	.cfi_def_cfa 7, 8
	ret
	.cfi_endproc
.LFE7:
	.size	printpath, .-printpath
	.data
	.align 4
	.type	loop_length_in.5006, @object
	.size	loop_length_in.5006, 12
loop_length_in.5006:
	.long	4
	.long	6
	.long	6
	.align 32
	.type	loop_ind.5005, @object
	.size	loop_ind.5005, 72
loop_ind.5005:
	.long	0
	.long	1
	.long	7
	.long	6
	.long	-1
	.long	-1
	.long	0
	.long	0
	.long	1
	.long	7
	.long	7
	.long	6
	.long	0
	.long	1
	.long	2
	.long	7
	.long	6
	.long	5
	.section	.rodata
	.align 8
.LC1:
	.long	0
	.long	1072693248
	.align 8
.LC2:
	.long	0
	.long	1077149696
	.align 8
.LC3:
	.long	0
	.long	-1074790400
	.align 8
.LC4:
	.long	54975581
	.long	1071909752
	.align 8
.LC5:
	.long	2693803488
	.long	1067856376
	.align 8
.LC10:
	.long	0
	.long	1074266112
	.text
.Letext0:
	.file 3 "/usr/lib/gcc/x86_64-linux-gnu/4.8/include/stddef.h"
	.file 4 "/usr/include/x86_64-linux-gnu/bits/types.h"
	.file 5 "/usr/include/libio.h"
	.file 6 "complex.h"
	.file 7 "random.h"
	.file 8 "su3.h"
	.file 9 "macros.h"
	.file 10 "./lattice.h"
	.file 11 "/usr/include/stdio.h"
	.section	.note.GNU-stack,"",@progbits
