	.file	"grsource_imp.c"
# GNU C (Ubuntu/Linaro 4.8.1-10ubuntu9) version 4.8.1 (x86_64-linux-gnu)
#	compiled by GNU C version 4.8.1, GMP version 5.1.2, MPFR version 3.1.1-p2, MPC version 1.0.1
# GGC heuristics: --param ggc-min-expand=100 --param ggc-min-heapsize=131072
# options passed:  -I . -imultiarch x86_64-linux-gnu -D SPEC_CPU -D NDEBUG
# -D FN -D FAST -D CONGRAD_TMP_VECTORS -D DSLASH_TMP_LINKS -D SPEC_CPU_LP64
# grsource_imp.c -mtune=generic -march=x86-64 -g -fverbose-asm
# -fno-strict-aliasing -fstack-protector -Wformat -Wformat-security
# options enabled:  -faggressive-loop-optimizations
# -fasynchronous-unwind-tables -fauto-inc-dec -fbranch-count-reg -fcommon
# -fdelete-null-pointer-checks -fdwarf2-cfi-asm -fearly-inlining
# -feliminate-unused-debug-types -ffunction-cse -fgcse-lm -fgnu-runtime
# -fident -finline-atomics -fira-hoist-pressure -fira-share-save-slots
# -fira-share-spill-slots -fivopts -fkeep-static-consts
# -fleading-underscore -fmath-errno -fmerge-debug-strings
# -fmove-loop-invariants -fpeephole -fprefetch-loop-arrays
# -freg-struct-return -fsched-critical-path-heuristic
# -fsched-dep-count-heuristic -fsched-group-heuristic -fsched-interblock
# -fsched-last-insn-heuristic -fsched-rank-heuristic -fsched-spec
# -fsched-spec-insn-heuristic -fsched-stalled-insns-dep -fshow-column
# -fsigned-zeros -fsplit-ivs-in-unroller -fstack-protector
# -fstrict-volatile-bitfields -fsync-libcalls -ftrapping-math
# -ftree-coalesce-vars -ftree-cselim -ftree-forwprop -ftree-loop-if-convert
# -ftree-loop-im -ftree-loop-ivcanon -ftree-loop-optimize
# -ftree-parallelize-loops= -ftree-phiprop -ftree-pta -ftree-reassoc
# -ftree-scev-cprop -ftree-slp-vectorize -ftree-vect-loop-version
# -funit-at-a-time -funwind-tables -fverbose-asm -fzero-initialized-in-bss
# -m128bit-long-double -m64 -m80387 -maccumulate-outgoing-args
# -malign-stringops -mfancy-math-387 -mfp-ret-in-387 -mfxsr -mglibc
# -mieee-fp -mlong-double-80 -mmmx -mno-sse4 -mpush-args -mred-zone -msse
# -msse2 -mtls-direct-seg-refs

	.text
.Ltext0:
	.globl	grsource_imp
	.type	grsource_imp, @function
grsource_imp:
.LFB2:
	.file 1 "grsource_imp.c"
	.loc 1 20 0
	.cfi_startproc
	pushq	%rbp	#
	.cfi_def_cfa_offset 16
	.cfi_offset 6, -16
	movq	%rsp, %rbp	#,
	.cfi_def_cfa_register 6
	pushq	%r13	#
	pushq	%r12	#
	pushq	%rbx	#
	subq	$40, %rsp	#,
	.cfi_offset 13, -24
	.cfi_offset 12, -32
	.cfi_offset 3, -40
	movl	%edi, -36(%rbp)	# dest, dest
	movsd	%xmm0, -48(%rbp)	# mass, mass
	movl	%esi, -40(%rbp)	# parity, parity
	.loc 1 23 0
	movl	$0, %r13d	#, i
	movq	lattice(%rip), %rbx	# lattice, s
	jmp	.L2	#
.L5:
	.loc 1 24 0
	movl	$0, %r12d	#, j
	jmp	.L3	#
.L4:
	.loc 1 26 0 discriminator 2
	leaq	16(%rbx), %rax	#, D.4999
	movq	%rax, %rdi	# D.4999,
	call	gaussian_rand_no	#
	movsd	%xmm0, -56(%rbp)	#, %sfp
	movq	-56(%rbp), %rax	# %sfp, D.5000
	movslq	%r12d, %rdx	# j, tmp70
	addq	$80, %rdx	#, tmp71
	salq	$4, %rdx	#, tmp72
	addq	%rbx, %rdx	# s, tmp73
	movq	%rax, (%rdx)	# D.5000, s_3->g_rand.c[j_2].real
	.loc 1 27 0 discriminator 2
	leaq	16(%rbx), %rax	#, D.4999
	movq	%rax, %rdi	# D.4999,
	call	gaussian_rand_no	#
	movsd	%xmm0, -56(%rbp)	#, %sfp
	movq	-56(%rbp), %rax	# %sfp, D.5000
	movslq	%r12d, %rdx	# j, tmp74
	addq	$80, %rdx	#, tmp75
	salq	$4, %rdx	#, tmp76
	addq	%rbx, %rdx	# s, tmp77
	addq	$8, %rdx	#, tmp78
	movq	%rax, (%rdx)	# D.5000, s_3->g_rand.c[j_2].imag
	.loc 1 24 0 discriminator 2
	addl	$1, %r12d	#, j
.L3:
	.loc 1 24 0 is_stmt 0 discriminator 1
	cmpl	$2, %r12d	#, j
	jle	.L4	#,
	.loc 1 23 0 is_stmt 1
	addl	$1, %r13d	#, i
	addq	$2048, %rbx	#, s
.L2:
	.loc 1 23 0 is_stmt 0 discriminator 1
	movl	sites_on_node(%rip), %eax	# sites_on_node, sites_on_node.0
	cmpl	%eax, %r13d	# sites_on_node.0, i
	jl	.L5	#,
	.loc 1 35 0 is_stmt 1
	movl	valid_longlinks(%rip), %eax	# valid_longlinks, valid_longlinks.1
	testl	%eax, %eax	# valid_longlinks.1
	jne	.L6	#,
	.loc 1 35 0 is_stmt 0 discriminator 1
	movl	$0, %eax	#,
	call	load_longlinks	#
.L6:
	.loc 1 36 0 is_stmt 1
	movl	valid_fatlinks(%rip), %eax	# valid_fatlinks, valid_fatlinks.2
	testl	%eax, %eax	# valid_fatlinks.2
	jne	.L7	#,
	.loc 1 36 0 is_stmt 0 discriminator 1
	movl	$0, %eax	#,
	call	load_fatlinks	#
.L7:
	.loc 1 38 0 is_stmt 1
	movl	-40(%rbp), %edx	# parity, tmp79
	movl	-36(%rbp), %eax	# dest, tmp80
	movl	%eax, %esi	# tmp80,
	movl	$1280, %edi	#,
	call	dslash_fn	#
	.loc 1 39 0
	movl	-40(%rbp), %edx	# parity, tmp81
	movl	-36(%rbp), %ecx	# dest, tmp82
	movl	-36(%rbp), %eax	# dest, tmp83
	movl	%ecx, %esi	# tmp82,
	movsd	.LC0(%rip), %xmm0	#,
	movl	%eax, %edi	# tmp83,
	call	scalar_mult_latvec	#
	.loc 1 40 0
	movsd	-48(%rbp), %xmm0	# mass, tmp84
	addsd	%xmm0, %xmm0	# tmp84, D.5000
	movl	-40(%rbp), %ecx	# parity, tmp85
	movl	-36(%rbp), %edx	# dest, tmp86
	movl	-36(%rbp), %eax	# dest, tmp87
	movl	$1280, %esi	#,
	movl	%eax, %edi	# tmp87,
	call	scalar_mult_add_latvec	#
	.loc 1 42 0
	addq	$40, %rsp	#,
	popq	%rbx	#
	popq	%r12	#
	popq	%r13	#
	popq	%rbp	#
	.cfi_def_cfa 7, 8
	ret
	.cfi_endproc
.LFE2:
	.size	grsource_imp, .-grsource_imp
	.section	.rodata
.LC1:
	.string	"Site %d %d %d %d\n"
.LC2:
	.string	"%d %d\t%e\t%e\t%e\n"
	.text
	.globl	checkmul_imp
	.type	checkmul_imp, @function
checkmul_imp:
.LFB3:
	.loc 1 48 0
	.cfi_startproc
	pushq	%rbp	#
	.cfi_def_cfa_offset 16
	.cfi_offset 6, -16
	movq	%rsp, %rbp	#,
	.cfi_def_cfa_register 6
	pushq	%r13	#
	pushq	%r12	#
	pushq	%rbx	#
	subq	$40, %rsp	#,
	.cfi_offset 13, -24
	.cfi_offset 12, -32
	.cfi_offset 3, -40
	movl	%edi, -36(%rbp)	# src, src
	movsd	%xmm0, -48(%rbp)	# mass, mass
	.loc 1 51 0
	movl	-36(%rbp), %eax	# src, tmp82
	movl	$3, %edx	#,
	movl	$1232, %esi	#,
	movl	%eax, %edi	# tmp82,
	call	dslash_fn	#
	.loc 1 52 0
	movsd	-48(%rbp), %xmm0	# mass, tmp83
	addsd	%xmm0, %xmm0	# tmp83, D.5002
	movl	-36(%rbp), %eax	# src, tmp84
	movl	$3, %ecx	#,
	movl	$1232, %edx	#,
	movl	%eax, %esi	# tmp84,
	movl	$1232, %edi	#,
	call	scalar_mult_add_latvec	#
	.loc 1 54 0
	movl	$0, %r13d	#, i
	movq	lattice(%rip), %rbx	# lattice, s
	jmp	.L9	#
.L12:
	.loc 1 55 0
	movzwl	6(%rbx), %eax	# s_3->t, D.5003
	movswl	%ax, %esi	# D.5003, D.5004
	movzwl	4(%rbx), %eax	# s_3->z, D.5003
	movswl	%ax, %ecx	# D.5003, D.5004
	movzwl	2(%rbx), %eax	# s_3->y, D.5003
	movswl	%ax, %edx	# D.5003, D.5004
	movzwl	(%rbx), %eax	# s_3->x, D.5003
	cwtl
	movl	%esi, %r8d	# D.5004,
	movl	%eax, %esi	# D.5004,
	movl	$.LC1, %edi	#,
	movl	$0, %eax	#,
	call	printf	#
	.loc 1 56 0
	movl	$0, %r12d	#, j
	jmp	.L10	#
.L11:
	.loc 1 58 0 discriminator 2
	movslq	%r12d, %rax	# j, tmp85
	addq	$80, %rax	#, tmp86
	salq	$4, %rax	#, tmp87
	addq	%rbx, %rax	# s, tmp88
	movsd	(%rax), %xmm0	# s_3->g_rand.c[j_2].real, D.5002
	movslq	%r12d, %rax	# j, tmp89
	addq	$77, %rax	#, tmp90
	salq	$4, %rax	#, tmp91
	addq	%rbx, %rax	# s, tmp92
	movsd	(%rax), %xmm1	# s_3->ttt.c[j_2].real, D.5002
	.loc 1 57 0 discriminator 2
	subsd	%xmm1, %xmm0	# D.5002, D.5002
	movslq	%r12d, %rax	# j, tmp93
	addq	$77, %rax	#, tmp94
	salq	$4, %rax	#, tmp95
	addq	%rbx, %rax	# s, tmp96
	movq	(%rax), %rdx	# s_3->ttt.c[j_2].real, D.5002
	movslq	%r12d, %rax	# j, tmp97
	addq	$80, %rax	#, tmp98
	salq	$4, %rax	#, tmp99
	addq	%rbx, %rax	# s, tmp100
	movq	(%rax), %rax	# s_3->g_rand.c[j_2].real, D.5002
	movapd	%xmm0, %xmm2	# D.5002,
	movq	%rdx, -56(%rbp)	# D.5002, %sfp
	movsd	-56(%rbp), %xmm1	# %sfp,
	movq	%rax, -56(%rbp)	# D.5002, %sfp
	movsd	-56(%rbp), %xmm0	# %sfp,
	movl	%r12d, %edx	# j,
	movl	%r13d, %esi	# i,
	movl	$.LC2, %edi	#,
	movl	$3, %eax	#,
	call	printf	#
	.loc 1 60 0 discriminator 2
	movslq	%r12d, %rax	# j, tmp101
	addq	$80, %rax	#, tmp102
	salq	$4, %rax	#, tmp103
	addq	%rbx, %rax	# s, tmp104
	addq	$8, %rax	#, tmp105
	movsd	(%rax), %xmm0	# s_3->g_rand.c[j_2].imag, D.5002
	movslq	%r12d, %rax	# j, tmp106
	addq	$77, %rax	#, tmp107
	salq	$4, %rax	#, tmp108
	addq	%rbx, %rax	# s, tmp109
	addq	$8, %rax	#, tmp110
	movsd	(%rax), %xmm1	# s_3->ttt.c[j_2].imag, D.5002
	.loc 1 59 0 discriminator 2
	subsd	%xmm1, %xmm0	# D.5002, D.5002
	movslq	%r12d, %rax	# j, tmp111
	addq	$77, %rax	#, tmp112
	salq	$4, %rax	#, tmp113
	addq	%rbx, %rax	# s, tmp114
	addq	$8, %rax	#, tmp115
	movq	(%rax), %rdx	# s_3->ttt.c[j_2].imag, D.5002
	movslq	%r12d, %rax	# j, tmp116
	addq	$80, %rax	#, tmp117
	salq	$4, %rax	#, tmp118
	addq	%rbx, %rax	# s, tmp119
	addq	$8, %rax	#, tmp120
	movq	(%rax), %rax	# s_3->g_rand.c[j_2].imag, D.5002
	movapd	%xmm0, %xmm2	# D.5002,
	movq	%rdx, -56(%rbp)	# D.5002, %sfp
	movsd	-56(%rbp), %xmm1	# %sfp,
	movq	%rax, -56(%rbp)	# D.5002, %sfp
	movsd	-56(%rbp), %xmm0	# %sfp,
	movl	%r12d, %edx	# j,
	movl	%r13d, %esi	# i,
	movl	$.LC2, %edi	#,
	movl	$3, %eax	#,
	call	printf	#
	.loc 1 56 0 discriminator 2
	addl	$1, %r12d	#, j
.L10:
	.loc 1 56 0 is_stmt 0 discriminator 1
	cmpl	$2, %r12d	#, j
	jle	.L11	#,
	.loc 1 62 0 is_stmt 1
	movl	$10, %edi	#,
	call	putchar	#
	.loc 1 54 0
	addl	$1, %r13d	#, i
	addq	$2048, %rbx	#, s
.L9:
	.loc 1 54 0 is_stmt 0 discriminator 1
	movl	sites_on_node(%rip), %eax	# sites_on_node, sites_on_node.3
	cmpl	%eax, %r13d	# sites_on_node.3, i
	jl	.L12	#,
	.loc 1 65 0 is_stmt 1
	addq	$40, %rsp	#,
	popq	%rbx	#
	popq	%r12	#
	popq	%r13	#
	popq	%rbp	#
	.cfi_def_cfa 7, 8
	ret
	.cfi_endproc
.LFE3:
	.size	checkmul_imp, .-checkmul_imp
	.section	.rodata
	.align 8
.LC0:
	.long	0
	.long	-1074790400
	.text
.Letext0:
	.file 2 "random.h"
	.file 3 "./macros.h"
	.file 4 "./complex.h"
	.file 5 "./su3.h"
	.file 6 "./lattice.h"
	.section	.note.GNU-stack,"",@progbits
