	.file	"m_amv_4dir.c"
# GNU C (Ubuntu/Linaro 4.8.1-10ubuntu9) version 4.8.1 (x86_64-linux-gnu)
#	compiled by GNU C version 4.8.1, GMP version 5.1.2, MPFR version 3.1.1-p2, MPC version 1.0.1
# GGC heuristics: --param ggc-min-expand=100 --param ggc-min-heapsize=131072
# options passed:  -I . -imultiarch x86_64-linux-gnu -D SPEC_CPU -D NDEBUG
# -D FN -D FAST -D CONGRAD_TMP_VECTORS -D DSLASH_TMP_LINKS -D SPEC_CPU_LP64
# m_amv_4dir.c -mtune=generic -march=x86-64 -g -fverbose-asm
# -fno-strict-aliasing -fstack-protector -Wformat -Wformat-security
# options enabled:  -faggressive-loop-optimizations
# -fasynchronous-unwind-tables -fauto-inc-dec -fbranch-count-reg -fcommon
# -fdelete-null-pointer-checks -fdwarf2-cfi-asm -fearly-inlining
# -feliminate-unused-debug-types -ffunction-cse -fgcse-lm -fgnu-runtime
# -fident -finline-atomics -fira-hoist-pressure -fira-share-save-slots
# -fira-share-spill-slots -fivopts -fkeep-static-consts
# -fleading-underscore -fmath-errno -fmerge-debug-strings
# -fmove-loop-invariants -fpeephole -fprefetch-loop-arrays
# -freg-struct-return -fsched-critical-path-heuristic
# -fsched-dep-count-heuristic -fsched-group-heuristic -fsched-interblock
# -fsched-last-insn-heuristic -fsched-rank-heuristic -fsched-spec
# -fsched-spec-insn-heuristic -fsched-stalled-insns-dep -fshow-column
# -fsigned-zeros -fsplit-ivs-in-unroller -fstack-protector
# -fstrict-volatile-bitfields -fsync-libcalls -ftrapping-math
# -ftree-coalesce-vars -ftree-cselim -ftree-forwprop -ftree-loop-if-convert
# -ftree-loop-im -ftree-loop-ivcanon -ftree-loop-optimize
# -ftree-parallelize-loops= -ftree-phiprop -ftree-pta -ftree-reassoc
# -ftree-scev-cprop -ftree-slp-vectorize -ftree-vect-loop-version
# -funit-at-a-time -funwind-tables -fverbose-asm -fzero-initialized-in-bss
# -m128bit-long-double -m64 -m80387 -maccumulate-outgoing-args
# -malign-stringops -mfancy-math-387 -mfp-ret-in-387 -mfxsr -mglibc
# -mieee-fp -mlong-double-80 -mmmx -mno-sse4 -mpush-args -mred-zone -msse
# -msse2 -mtls-direct-seg-refs

	.text
.Ltext0:
	.globl	mult_adj_su3_mat_vec_4dir
	.type	mult_adj_su3_mat_vec_4dir, @function
mult_adj_su3_mat_vec_4dir:
.LFB0:
	.file 1 "m_amv_4dir.c"
	.loc 1 26 0
	.cfi_startproc
	pushq	%rbp	#
	.cfi_def_cfa_offset 16
	.cfi_offset 6, -16
	movq	%rsp, %rbp	#,
	.cfi_def_cfa_register 6
	pushq	%r14	#
	pushq	%r13	#
	pushq	%r12	#
	pushq	%rbx	#
	.cfi_offset 14, -24
	.cfi_offset 13, -32
	.cfi_offset 12, -40
	.cfi_offset 3, -48
	movq	%rdi, -40(%rbp)	# mat, mat
	movq	%rsi, -48(%rbp)	# src, src
	movq	%rdx, -56(%rbp)	# dest, dest
	.loc 1 38 0
	movq	-40(%rbp), %rbx	# mat, a
	movq	-56(%rbp), %r12	# dest, c
	movq	-48(%rbp), %r13	# src, b
	.loc 1 39 0
	movl	$0, %r14d	#, n
	jmp	.L2	#
.L3:
	.loc 1 41 0 discriminator 2
	movsd	0(%r13), %xmm4	# b_9->c[0].real, br
	movsd	8(%r13), %xmm1	# b_9->c[0].imag, bi
	.loc 1 42 0 discriminator 2
	movsd	(%rbx), %xmm7	# a_2->e[0][0].real, a0
	movapd	%xmm7, %xmm3	# a0, a0
	.loc 1 43 0 discriminator 2
	movsd	16(%rbx), %xmm5	# a_2->e[0][1].real, a1
	.loc 1 44 0 discriminator 2
	movsd	32(%rbx), %xmm2	# a_2->e[0][2].real, a2
	movapd	%xmm2, %xmm0	# a2, a2
	.loc 1 46 0 discriminator 2
	movapd	%xmm3, %xmm7	# a0, c0r
	mulsd	%xmm4, %xmm7	# br, c0r
	movapd	%xmm7, %xmm2	# c0r, c0r
	.loc 1 47 0 discriminator 2
	movapd	%xmm5, %xmm7	# a1, c1r
	mulsd	%xmm4, %xmm7	# br, c1r
	movapd	%xmm7, %xmm8	# c1r, c1r
	.loc 1 48 0 discriminator 2
	movapd	%xmm0, %xmm7	# a2, c2r
	mulsd	%xmm4, %xmm7	# br, c2r
	movapd	%xmm7, %xmm9	# c2r, c2r
	.loc 1 49 0 discriminator 2
	movapd	%xmm3, %xmm7	# a0, c0i
	mulsd	%xmm1, %xmm7	# bi, c0i
	.loc 1 50 0 discriminator 2
	movapd	%xmm5, %xmm6	# a1, c1i
	mulsd	%xmm1, %xmm6	# bi, c1i
	movapd	%xmm6, %xmm5	# c1i, c1i
	.loc 1 51 0 discriminator 2
	movapd	%xmm0, %xmm3	# a2, c2i
	mulsd	%xmm1, %xmm3	# bi, c2i
	movapd	%xmm3, %xmm6	# c2i, c2i
	.loc 1 53 0 discriminator 2
	movsd	8(%rbx), %xmm3	# a_2->e[0][0].imag, a0
	.loc 1 54 0 discriminator 2
	movsd	24(%rbx), %xmm0	# a_2->e[0][1].imag, a1
	movapd	%xmm0, %xmm10	# a1, a1
	.loc 1 55 0 discriminator 2
	movsd	40(%rbx), %xmm0	# a_2->e[0][2].imag, a2
	movapd	%xmm0, %xmm12	# a2, a2
	.loc 1 57 0 discriminator 2
	movapd	%xmm3, %xmm0	# a0, D.2216
	mulsd	%xmm1, %xmm0	# bi, D.2216
	addsd	%xmm2, %xmm0	# c0r, c0r
	movapd	%xmm0, %xmm13	# c0r, c0r
	.loc 1 58 0 discriminator 2
	movapd	%xmm10, %xmm2	# a1, a1
	movapd	%xmm2, %xmm0	# a1, D.2216
	mulsd	%xmm1, %xmm0	# bi, D.2216
	addsd	%xmm8, %xmm0	# c1r, c1r
	movapd	%xmm0, %xmm10	# c1r, c1r
	.loc 1 59 0 discriminator 2
	movapd	%xmm1, %xmm0	# bi, D.2216
	mulsd	%xmm12, %xmm0	# a2, D.2216
	addsd	%xmm9, %xmm0	# c2r, c2r
	movapd	%xmm0, %xmm9	# c2r, c2r
	.loc 1 60 0 discriminator 2
	movapd	%xmm3, %xmm0	# a0, D.2216
	mulsd	%xmm4, %xmm0	# br, D.2216
	subsd	%xmm0, %xmm7	# D.2216, c0i
	.loc 1 61 0 discriminator 2
	movapd	%xmm2, %xmm0	# a1, D.2216
	mulsd	%xmm4, %xmm0	# br, D.2216
	subsd	%xmm0, %xmm5	# D.2216, c1i
	movapd	%xmm5, %xmm1	# c1i, c1i
	.loc 1 62 0 discriminator 2
	movapd	%xmm12, %xmm0	# a2, D.2216
	mulsd	%xmm4, %xmm0	# br, D.2216
	movapd	%xmm6, %xmm2	# c2i, c2i
	subsd	%xmm0, %xmm2	# D.2216, c2i
	movapd	%xmm2, %xmm4	# c2i, c2i
	.loc 1 64 0 discriminator 2
	movsd	16(%r13), %xmm5	# b_9->c[1].real, br
	movsd	24(%r13), %xmm2	# b_9->c[1].imag, bi
	.loc 1 65 0 discriminator 2
	movsd	48(%rbx), %xmm6	# a_2->e[1][0].real, a0
	.loc 1 66 0 discriminator 2
	movsd	64(%rbx), %xmm3	# a_2->e[1][1].real, a1
	.loc 1 67 0 discriminator 2
	movsd	80(%rbx), %xmm0	# a_2->e[1][2].real, a2
	movapd	%xmm0, %xmm11	# a2, a2
	.loc 1 69 0 discriminator 2
	movapd	%xmm6, %xmm0	# a0, D.2216
	mulsd	%xmm5, %xmm0	# br, D.2216
	addsd	%xmm13, %xmm0	# c0r, c0r
	movapd	%xmm0, %xmm15	# c0r, c0r
	.loc 1 70 0 discriminator 2
	movapd	%xmm3, %xmm0	# a1, D.2216
	mulsd	%xmm5, %xmm0	# br, D.2216
	addsd	%xmm10, %xmm0	# c1r, c1r
	movapd	%xmm0, %xmm8	# c1r, c1r
	.loc 1 71 0 discriminator 2
	movapd	%xmm11, %xmm0	# a2, D.2216
	mulsd	%xmm5, %xmm0	# br, D.2216
	addsd	%xmm9, %xmm0	# c2r, c2r
	movapd	%xmm0, %xmm9	# c2r, c2r
	.loc 1 72 0 discriminator 2
	movapd	%xmm6, %xmm0	# a0, D.2216
	mulsd	%xmm2, %xmm0	# bi, D.2216
	addsd	%xmm7, %xmm0	# c0i, c0i
	movapd	%xmm0, %xmm6	# c0i, c0i
	.loc 1 73 0 discriminator 2
	movapd	%xmm3, %xmm0	# a1, D.2216
	mulsd	%xmm2, %xmm0	# bi, D.2216
	addsd	%xmm1, %xmm0	# c1i, c1i
	movapd	%xmm0, %xmm7	# c1i, c1i
	.loc 1 74 0 discriminator 2
	movapd	%xmm11, %xmm0	# a2, D.2216
	mulsd	%xmm2, %xmm0	# bi, D.2216
	addsd	%xmm4, %xmm0	# c2i, c2i
	movapd	%xmm0, %xmm3	# c2i, c2i
	.loc 1 76 0 discriminator 2
	movsd	56(%rbx), %xmm1	# a_2->e[1][0].imag, a0
	.loc 1 77 0 discriminator 2
	movsd	72(%rbx), %xmm4	# a_2->e[1][1].imag, a1
	.loc 1 78 0 discriminator 2
	movsd	88(%rbx), %xmm0	# a_2->e[1][2].imag, a2
	movapd	%xmm0, %xmm14	# a2, a2
	.loc 1 80 0 discriminator 2
	movapd	%xmm1, %xmm0	# a0, D.2216
	mulsd	%xmm2, %xmm0	# bi, D.2216
	addsd	%xmm15, %xmm0	# c0r, c0r
	movapd	%xmm0, %xmm10	# c0r, c0r
	.loc 1 81 0 discriminator 2
	movapd	%xmm4, %xmm0	# a1, D.2216
	mulsd	%xmm2, %xmm0	# bi, D.2216
	addsd	%xmm8, %xmm0	# c1r, c1r
	movapd	%xmm0, %xmm15	# c1r, c1r
	.loc 1 82 0 discriminator 2
	movapd	%xmm2, %xmm0	# bi, D.2216
	mulsd	%xmm14, %xmm0	# a2, D.2216
	addsd	%xmm9, %xmm0	# c2r, c2r
	movapd	%xmm0, %xmm11	# c2r, c2r
	.loc 1 83 0 discriminator 2
	movapd	%xmm1, %xmm0	# a0, D.2216
	mulsd	%xmm5, %xmm0	# br, D.2216
	subsd	%xmm0, %xmm6	# D.2216, c0i
	movapd	%xmm6, %xmm2	# c0i, c0i
	.loc 1 84 0 discriminator 2
	movapd	%xmm4, %xmm0	# a1, D.2216
	mulsd	%xmm5, %xmm0	# br, D.2216
	movapd	%xmm7, %xmm1	# c1i, c1i
	subsd	%xmm0, %xmm1	# D.2216, c1i
	movapd	%xmm1, %xmm13	# c1i, c1i
	.loc 1 85 0 discriminator 2
	movapd	%xmm14, %xmm0	# a2, D.2216
	mulsd	%xmm5, %xmm0	# br, D.2216
	movapd	%xmm3, %xmm5	# c2i, c2i
	subsd	%xmm0, %xmm5	# D.2216, c2i
	.loc 1 87 0 discriminator 2
	movsd	32(%r13), %xmm6	# b_9->c[2].real, br
	movsd	40(%r13), %xmm3	# b_9->c[2].imag, bi
	.loc 1 88 0 discriminator 2
	movsd	96(%rbx), %xmm7	# a_2->e[2][0].real, a0
	.loc 1 89 0 discriminator 2
	movsd	112(%rbx), %xmm1	# a_2->e[2][1].real, a1
	.loc 1 90 0 discriminator 2
	movsd	128(%rbx), %xmm4	# a_2->e[2][2].real, a2
	.loc 1 92 0 discriminator 2
	movapd	%xmm7, %xmm0	# a0, D.2216
	mulsd	%xmm6, %xmm0	# br, D.2216
	addsd	%xmm10, %xmm0	# c0r, c0r
	movapd	%xmm0, %xmm12	# c0r, c0r
	.loc 1 93 0 discriminator 2
	movapd	%xmm1, %xmm0	# a1, D.2216
	mulsd	%xmm6, %xmm0	# br, D.2216
	addsd	%xmm15, %xmm0	# c1r, c1r
	movapd	%xmm0, %xmm14	# c1r, c1r
	.loc 1 94 0 discriminator 2
	movapd	%xmm4, %xmm0	# a2, D.2216
	mulsd	%xmm6, %xmm0	# br, D.2216
	addsd	%xmm11, %xmm0	# c2r, c2r
	movapd	%xmm0, %xmm9	# c2r, c2r
	.loc 1 95 0 discriminator 2
	movapd	%xmm7, %xmm0	# a0, D.2216
	mulsd	%xmm3, %xmm0	# bi, D.2216
	addsd	%xmm2, %xmm0	# c0i, c0i
	movapd	%xmm0, %xmm15	# c0i, c0i
	.loc 1 96 0 discriminator 2
	movapd	%xmm1, %xmm0	# a1, D.2216
	mulsd	%xmm3, %xmm0	# bi, D.2216
	addsd	%xmm13, %xmm0	# c1i, c1i
	movapd	%xmm0, %xmm1	# c1i, c1i
	.loc 1 97 0 discriminator 2
	movapd	%xmm4, %xmm0	# a2, D.2216
	mulsd	%xmm3, %xmm0	# bi, D.2216
	addsd	%xmm5, %xmm0	# c2i, c2i
	movapd	%xmm0, %xmm8	# c2i, c2i
	.loc 1 99 0 discriminator 2
	movsd	104(%rbx), %xmm2	# a_2->e[2][0].imag, a0
	.loc 1 100 0 discriminator 2
	movsd	120(%rbx), %xmm7	# a_2->e[2][1].imag, a1
	.loc 1 101 0 discriminator 2
	movsd	136(%rbx), %xmm4	# a_2->e[2][2].imag, a2
	.loc 1 103 0 discriminator 2
	movapd	%xmm2, %xmm0	# a0, D.2216
	mulsd	%xmm3, %xmm0	# bi, D.2216
	addsd	%xmm12, %xmm0	# c0r, c0r
	movapd	%xmm0, %xmm13	# c0r, c0r
	.loc 1 104 0 discriminator 2
	movapd	%xmm7, %xmm0	# a1, D.2216
	mulsd	%xmm3, %xmm0	# bi, D.2216
	addsd	%xmm14, %xmm0	# c1r, c1r
	movapd	%xmm0, %xmm10	# c1r, c1r
	.loc 1 105 0 discriminator 2
	movapd	%xmm3, %xmm0	# bi, D.2216
	movapd	%xmm4, %xmm3	# a2, a2
	mulsd	%xmm3, %xmm0	# a2, D.2216
	addsd	%xmm9, %xmm0	# c2r, c2r
	movapd	%xmm0, %xmm11	# c2r, c2r
	.loc 1 106 0 discriminator 2
	movapd	%xmm2, %xmm0	# a0, D.2216
	mulsd	%xmm6, %xmm0	# br, D.2216
	movapd	%xmm15, %xmm4	# c0i, c0i
	subsd	%xmm0, %xmm4	# D.2216, c0i
	.loc 1 107 0 discriminator 2
	movapd	%xmm7, %xmm0	# a1, D.2216
	mulsd	%xmm6, %xmm0	# br, D.2216
	movapd	%xmm1, %xmm5	# c1i, c1i
	subsd	%xmm0, %xmm5	# D.2216, c1i
	.loc 1 108 0 discriminator 2
	movapd	%xmm3, %xmm0	# a2, D.2216
	mulsd	%xmm6, %xmm0	# br, D.2216
	movapd	%xmm8, %xmm2	# c2i, c2i
	subsd	%xmm0, %xmm2	# D.2216, c2i
	.loc 1 110 0 discriminator 2
	movapd	%xmm13, %xmm0	# c0r, c0r
	movsd	%xmm0, (%r12)	# c0r, c_3->c[0].real
	.loc 1 111 0 discriminator 2
	movsd	%xmm4, 8(%r12)	# c0i, c_3->c[0].imag
	.loc 1 112 0 discriminator 2
	movapd	%xmm10, %xmm0	# c1r, c1r
	movsd	%xmm0, 16(%r12)	# c1r, c_3->c[1].real
	.loc 1 113 0 discriminator 2
	movsd	%xmm5, 24(%r12)	# c1i, c_3->c[1].imag
	.loc 1 114 0 discriminator 2
	movapd	%xmm11, %xmm0	# c2r, c2r
	movsd	%xmm0, 32(%r12)	# c2r, c_3->c[2].real
	.loc 1 115 0 discriminator 2
	movsd	%xmm2, 40(%r12)	# c2i, c_3->c[2].imag
	.loc 1 39 0 discriminator 2
	addl	$1, %r14d	#, n
	addq	$144, %rbx	#, a
	addq	$48, %r12	#, c
.L2:
	.loc 1 39 0 is_stmt 0 discriminator 1
	cmpl	$3, %r14d	#, n
	jle	.L3	#,
	.loc 1 117 0 is_stmt 1
	popq	%rbx	#
	popq	%r12	#
	popq	%r13	#
	popq	%r14	#
	popq	%rbp	#
	.cfi_def_cfa 7, 8
	ret
	.cfi_endproc
.LFE0:
	.size	mult_adj_su3_mat_vec_4dir, .-mult_adj_su3_mat_vec_4dir
.Letext0:
	.file 2 "complex.h"
	.file 3 "su3.h"
	.section	.note.GNU-stack,"",@progbits
