	.file	"ploop3.c"
# GNU C (Ubuntu/Linaro 4.8.1-10ubuntu9) version 4.8.1 (x86_64-linux-gnu)
#	compiled by GNU C version 4.8.1, GMP version 5.1.2, MPFR version 3.1.1-p2, MPC version 1.0.1
# GGC heuristics: --param ggc-min-expand=100 --param ggc-min-heapsize=131072
# options passed:  -I . -imultiarch x86_64-linux-gnu -D SPEC_CPU -D NDEBUG
# -D FN -D FAST -D CONGRAD_TMP_VECTORS -D DSLASH_TMP_LINKS -D SPEC_CPU_LP64
# ploop3.c -mtune=generic -march=x86-64 -g -fverbose-asm
# -fno-strict-aliasing -fstack-protector -Wformat -Wformat-security
# options enabled:  -faggressive-loop-optimizations
# -fasynchronous-unwind-tables -fauto-inc-dec -fbranch-count-reg -fcommon
# -fdelete-null-pointer-checks -fdwarf2-cfi-asm -fearly-inlining
# -feliminate-unused-debug-types -ffunction-cse -fgcse-lm -fgnu-runtime
# -fident -finline-atomics -fira-hoist-pressure -fira-share-save-slots
# -fira-share-spill-slots -fivopts -fkeep-static-consts
# -fleading-underscore -fmath-errno -fmerge-debug-strings
# -fmove-loop-invariants -fpeephole -fprefetch-loop-arrays
# -freg-struct-return -fsched-critical-path-heuristic
# -fsched-dep-count-heuristic -fsched-group-heuristic -fsched-interblock
# -fsched-last-insn-heuristic -fsched-rank-heuristic -fsched-spec
# -fsched-spec-insn-heuristic -fsched-stalled-insns-dep -fshow-column
# -fsigned-zeros -fsplit-ivs-in-unroller -fstack-protector
# -fstrict-volatile-bitfields -fsync-libcalls -ftrapping-math
# -ftree-coalesce-vars -ftree-cselim -ftree-forwprop -ftree-loop-if-convert
# -ftree-loop-im -ftree-loop-ivcanon -ftree-loop-optimize
# -ftree-parallelize-loops= -ftree-phiprop -ftree-pta -ftree-reassoc
# -ftree-scev-cprop -ftree-slp-vectorize -ftree-vect-loop-version
# -funit-at-a-time -funwind-tables -fverbose-asm -fzero-initialized-in-bss
# -m128bit-long-double -m64 -m80387 -maccumulate-outgoing-args
# -malign-stringops -mfancy-math-387 -mfp-ret-in-387 -mfxsr -mglibc
# -mieee-fp -mlong-double-80 -mmmx -mno-sse4 -mpush-args -mred-zone -msse
# -msse2 -mtls-direct-seg-refs

	.text
.Ltext0:
	.globl	ploop
	.type	ploop, @function
ploop:
.LFB2:
	.file 1 "ploop3.c"
	.loc 1 18 0
	.cfi_startproc
	pushq	%rbp	#
	.cfi_def_cfa_offset 16
	.cfi_offset 6, -16
	movq	%rsp, %rbp	#,
	.cfi_def_cfa_register 6
	pushq	%r13	#
	pushq	%r12	#
	pushq	%rbx	#
	subq	$232, %rsp	#,
	.cfi_offset 13, -24
	.cfi_offset 12, -32
	.cfi_offset 3, -40
	.loc 1 27 0
	xorpd	%xmm1, %xmm1	#
	xorpd	%xmm0, %xmm0	#
	call	cmplx	#
	movsd	%xmm0, -248(%rbp)	#, %sfp
	movq	-248(%rbp), %rax	# %sfp, tmp115
	movsd	%xmm1, -248(%rbp)	#, %sfp
	movq	-248(%rbp), %rdx	# %sfp, tmp116
	movq	%rax, -224(%rbp)	# tmp115, sum
	movq	%rdx, -216(%rbp)	# tmp116, sum
	.loc 1 28 0
	movl	$0, -184(%rbp)	#, d
	movl	-184(%rbp), %eax	# d, D.5058
	movl	%eax, -188(%rbp)	# D.5058, d
	movl	-188(%rbp), %eax	# d, D.5058
	movl	%eax, -192(%rbp)	# D.5058, d
	.loc 1 32 0
	movq	gen_pt(%rip), %rax	# gen_pt, D.5059
	movq	%rax, %r8	# D.5059,
	movl	$2, %ecx	#,
	movl	$3, %edx	#,
	movl	$144, %esi	#,
	movl	$544, %edi	#,
	call	start_gather	#
	movq	%rax, -232(%rbp)	# tmp117, tag
	.loc 1 34 0
	movq	-232(%rbp), %rax	# tag, tmp118
	movq	%rax, %rdi	# tmp118,
	call	wait_gather	#
	.loc 1 35 0
	movl	$0, %r12d	#, i
	movq	lattice(%rip), %rbx	# lattice, st
	jmp	.L2	#
.L3:
	.loc 1 36 0 discriminator 2
	leaq	1760(%rbx), %rdx	#, D.5060
	movq	gen_pt(%rip), %rax	# gen_pt, D.5059
	movslq	%r12d, %rcx	# i, D.5061
	salq	$3, %rcx	#, D.5061
	addq	%rcx, %rax	# D.5061, D.5059
	movq	(%rax), %rcx	# *_19, D.5062
	leaq	544(%rbx), %rax	#, D.5060
	movq	%rcx, %rsi	# D.5062,
	movq	%rax, %rdi	# D.5060,
	call	mult_su3_nn	#
	.loc 1 35 0 discriminator 2
	addl	$1, %r12d	#, i
	addq	$2048, %rbx	#, st
.L2:
	.loc 1 35 0 is_stmt 0 discriminator 1
	movl	even_sites_on_node(%rip), %eax	# even_sites_on_node, even_sites_on_node.0
	cmpl	%eax, %r12d	# even_sites_on_node.0, i
	jl	.L3	#,
	.loc 1 39 0 is_stmt 1
	movq	-232(%rbp), %rax	# tag, tmp119
	movq	%rax, %rdi	# tmp119,
	call	cleanup_gather	#
	.loc 1 41 0
	movl	$2, %r13d	#, t
	jmp	.L4	#
.L9:
	.loc 1 42 0
	movl	%r13d, -180(%rbp)	# t, d
	.loc 1 43 0
	movq	gen_pt(%rip), %rdx	# gen_pt, D.5059
	leaq	-192(%rbp), %rax	#, tmp120
	movq	%rdx, %r8	# D.5059,
	movl	$2, %ecx	#,
	movq	%rax, %rdx	# tmp120,
	movl	$144, %esi	#,
	movl	$1760, %edi	#,
	call	start_general_gather	#
	movq	%rax, -232(%rbp)	# tmp121, tag
	.loc 1 45 0
	movq	-232(%rbp), %rax	# tag, tmp122
	movq	%rax, %rdi	# tmp122,
	call	wait_general_gather	#
	.loc 1 46 0
	movl	$0, %r12d	#, i
	movq	lattice(%rip), %rbx	# lattice, st
	jmp	.L5	#
.L8:
	.loc 1 47 0
	movzwl	6(%rbx), %eax	# st_6->t, D.5063
	cmpw	$1, %ax	#, D.5063
	jle	.L6	#,
	.loc 1 47 0 is_stmt 0 discriminator 1
	jmp	.L7	#
.L6:
	.loc 1 48 0 is_stmt 1
	movq	gen_pt(%rip), %rax	# gen_pt, D.5059
	movslq	%r12d, %rdx	# i, D.5061
	salq	$3, %rdx	#, D.5061
	addq	%rdx, %rax	# D.5061, D.5059
	movq	(%rax), %rcx	# *_35, D.5062
	leaq	1760(%rbx), %rax	#, D.5060
	leaq	-176(%rbp), %rdx	#, tmp123
	movq	%rcx, %rsi	# D.5062,
	movq	%rax, %rdi	# D.5060,
	call	mult_su3_nn	#
	.loc 1 49 0
	movq	lattice(%rip), %rax	# lattice, lattice.1
	movslq	%r12d, %rdx	# i, D.5061
	salq	$11, %rdx	#, D.5061
	addq	%rdx, %rax	# D.5061, D.5064
	leaq	1760(%rax), %rdi	#, tmp124
	leaq	-176(%rbp), %rdx	#, tmp125
	movl	$18, %eax	#, tmp126
	movq	%rdx, %rsi	# tmp125, tmp125
	movq	%rax, %rcx	# tmp126, tmp126
	rep movsq
.L7:
	.loc 1 46 0
	addl	$1, %r12d	#, i
	addq	$2048, %rbx	#, st
.L5:
	.loc 1 46 0 is_stmt 0 discriminator 1
	movl	even_sites_on_node(%rip), %eax	# even_sites_on_node, even_sites_on_node.2
	cmpl	%eax, %r12d	# even_sites_on_node.2, i
	jl	.L8	#,
	.loc 1 54 0 is_stmt 1
	movq	-232(%rbp), %rax	# tag, tmp127
	movq	%rax, %rdi	# tmp127,
	call	cleanup_general_gather	#
	.loc 1 41 0
	addl	$2, %r13d	#, t
.L4:
	.loc 1 41 0 is_stmt 0 discriminator 1
	movl	nt(%rip), %eax	# nt, nt.3
	cmpl	%eax, %r13d	# nt.3, t
	jl	.L9	#,
	.loc 1 56 0 is_stmt 1
	movl	$0, %r12d	#, i
	movq	lattice(%rip), %rbx	# lattice, st
	jmp	.L10	#
.L13:
	.loc 1 57 0
	movzwl	6(%rbx), %eax	# st_7->t, D.5063
	cmpw	$1, %ax	#, D.5063
	jle	.L11	#,
	.loc 1 57 0 is_stmt 0 discriminator 1
	jmp	.L12	#
.L11:
	.loc 1 58 0 is_stmt 1
	leaq	1760(%rbx), %rax	#, D.5060
	movq	%rax, %rdi	# D.5060,
	call	trace_su3	#
	movsd	%xmm0, -248(%rbp)	#, %sfp
	movq	-248(%rbp), %rax	# %sfp, tmp128
	movsd	%xmm1, -248(%rbp)	#, %sfp
	movq	-248(%rbp), %rdx	# %sfp, tmp129
	movq	%rax, -208(%rbp)	# tmp128, plp
	movq	%rdx, -200(%rbp)	# tmp129, plp
	.loc 1 60 0
	movsd	-224(%rbp), %xmm1	# sum.real, D.5065
	movsd	-208(%rbp), %xmm0	# plp.real, D.5065
	addsd	%xmm1, %xmm0	# D.5065, D.5065
	movsd	%xmm0, -224(%rbp)	# D.5065, sum.real
	movsd	-216(%rbp), %xmm1	# sum.imag, D.5065
	movsd	-200(%rbp), %xmm0	# plp.imag, D.5065
	addsd	%xmm1, %xmm0	# D.5065, D.5065
	movsd	%xmm0, -216(%rbp)	# D.5065, sum.imag
.L12:
	.loc 1 56 0
	addl	$1, %r12d	#, i
	addq	$2048, %rbx	#, st
.L10:
	.loc 1 56 0 is_stmt 0 discriminator 1
	movl	even_sites_on_node(%rip), %eax	# even_sites_on_node, even_sites_on_node.4
	cmpl	%eax, %r12d	# even_sites_on_node.4, i
	jl	.L13	#,
	.loc 1 68 0 is_stmt 1
	leaq	-224(%rbp), %rax	#, tmp130
	movq	%rax, %rdi	# tmp130,
	call	g_complexsum	#
	.loc 1 69 0
	movsd	-224(%rbp), %xmm1	# sum.real, D.5065
	movl	nx(%rip), %edx	# nx, nx.5
	movl	ny(%rip), %eax	# ny, ny.6
	imull	%eax, %edx	# ny.6, D.5058
	movl	nz(%rip), %eax	# nz, nz.7
	imull	%edx, %eax	# D.5058, D.5058
	cvtsi2sd	%eax, %xmm0	# D.5058, D.5065
	divsd	%xmm0, %xmm1	# D.5065, D.5065
	movapd	%xmm1, %xmm0	# D.5065, D.5065
	movsd	%xmm0, -208(%rbp)	# D.5065, plp.real
	.loc 1 70 0
	movsd	-216(%rbp), %xmm1	# sum.imag, D.5065
	movl	nx(%rip), %edx	# nx, nx.8
	movl	ny(%rip), %eax	# ny, ny.9
	imull	%eax, %edx	# ny.9, D.5058
	movl	nz(%rip), %eax	# nz, nz.10
	imull	%edx, %eax	# D.5058, D.5058
	cvtsi2sd	%eax, %xmm0	# D.5058, D.5065
	divsd	%xmm0, %xmm1	# D.5065, D.5065
	movapd	%xmm1, %xmm0	# D.5065, D.5065
	movsd	%xmm0, -200(%rbp)	# D.5065, plp.imag
	.loc 1 71 0
	movq	-208(%rbp), %rax	# plp, D.5054
	movq	-200(%rbp), %rdx	# plp, D.5054
	movq	%rax, %rcx	# D.5054, tmp132
	movq	%rdx, %rbx	# D.5054,
	movq	%rdx, %rax	#, <retval>
	.loc 1 72 0
	movq	%rcx, -248(%rbp)	# <retval>, %sfp
	movsd	-248(%rbp), %xmm0	# %sfp,
	movq	%rax, -248(%rbp)	# <retval>, %sfp
	movsd	-248(%rbp), %xmm1	# %sfp,
	addq	$232, %rsp	#,
	popq	%rbx	#
	popq	%r12	#
	popq	%r13	#
	popq	%rbp	#
	.cfi_def_cfa 7, 8
	ret
	.cfi_endproc
.LFE2:
	.size	ploop, .-ploop
.Letext0:
	.file 2 "complex.h"
	.file 3 "random.h"
	.file 4 "su3.h"
	.file 5 "macros.h"
	.file 6 "./lattice.h"
	.file 7 "comdefs.h"
	.section	.note.GNU-stack,"",@progbits
