	.file	"reunitarize2.c"
# GNU C (Ubuntu/Linaro 4.8.1-10ubuntu9) version 4.8.1 (x86_64-linux-gnu)
#	compiled by GNU C version 4.8.1, GMP version 5.1.2, MPFR version 3.1.1-p2, MPC version 1.0.1
# GGC heuristics: --param ggc-min-expand=100 --param ggc-min-heapsize=131072
# options passed:  -I . -imultiarch x86_64-linux-gnu -D SPEC_CPU -D NDEBUG
# -D FN -D FAST -D CONGRAD_TMP_VECTORS -D DSLASH_TMP_LINKS -D SPEC_CPU_LP64
# reunitarize2.c -mtune=generic -march=x86-64 -g -fverbose-asm
# -fno-strict-aliasing -fstack-protector -Wformat -Wformat-security
# options enabled:  -faggressive-loop-optimizations
# -fasynchronous-unwind-tables -fauto-inc-dec -fbranch-count-reg -fcommon
# -fdelete-null-pointer-checks -fdwarf2-cfi-asm -fearly-inlining
# -feliminate-unused-debug-types -ffunction-cse -fgcse-lm -fgnu-runtime
# -fident -finline-atomics -fira-hoist-pressure -fira-share-save-slots
# -fira-share-spill-slots -fivopts -fkeep-static-consts
# -fleading-underscore -fmath-errno -fmerge-debug-strings
# -fmove-loop-invariants -fpeephole -fprefetch-loop-arrays
# -freg-struct-return -fsched-critical-path-heuristic
# -fsched-dep-count-heuristic -fsched-group-heuristic -fsched-interblock
# -fsched-last-insn-heuristic -fsched-rank-heuristic -fsched-spec
# -fsched-spec-insn-heuristic -fsched-stalled-insns-dep -fshow-column
# -fsigned-zeros -fsplit-ivs-in-unroller -fstack-protector
# -fstrict-volatile-bitfields -fsync-libcalls -ftrapping-math
# -ftree-coalesce-vars -ftree-cselim -ftree-forwprop -ftree-loop-if-convert
# -ftree-loop-im -ftree-loop-ivcanon -ftree-loop-optimize
# -ftree-parallelize-loops= -ftree-phiprop -ftree-pta -ftree-reassoc
# -ftree-scev-cprop -ftree-slp-vectorize -ftree-vect-loop-version
# -funit-at-a-time -funwind-tables -fverbose-asm -fzero-initialized-in-bss
# -m128bit-long-double -m64 -m80387 -maccumulate-outgoing-args
# -malign-stringops -mfancy-math-387 -mfp-ret-in-387 -mfxsr -mglibc
# -mieee-fp -mlong-double-80 -mmmx -mno-sse4 -mpush-args -mred-zone -msse
# -msse2 -mtls-direct-seg-refs

	.text
.Ltext0:
	.comm	max_deviation,8,8
	.comm	av_deviation,8,8
	.globl	check_deviation
	.type	check_deviation, @function
check_deviation:
.LFB2:
	.file 1 "reunitarize2.c"
	.loc 1 64 0
	.cfi_startproc
	pushq	%rbp	#
	.cfi_def_cfa_offset 16
	.cfi_offset 6, -16
	movq	%rsp, %rbp	#,
	.cfi_def_cfa_register 6
	movsd	%xmm0, -8(%rbp)	# deviation, deviation
	.loc 1 66 0
	movsd	max_deviation(%rip), %xmm1	# max_deviation, max_deviation.0
	movsd	-8(%rbp), %xmm0	# deviation, tmp65
	ucomisd	%xmm1, %xmm0	# max_deviation.0, tmp65
	jbe	.L2	#,
	.loc 1 66 0 is_stmt 0 discriminator 1
	movq	-8(%rbp), %rax	# deviation, tmp66
	movq	%rax, max_deviation(%rip)	# tmp66, max_deviation
.L2:
	.loc 1 67 0 is_stmt 1
	movsd	-8(%rbp), %xmm0	# deviation, tmp67
	mulsd	-8(%rbp), %xmm0	# deviation, D.5307
	movsd	av_deviation(%rip), %xmm1	# av_deviation, av_deviation.1
	addsd	%xmm1, %xmm0	# av_deviation.1, av_deviation.2
	movsd	%xmm0, av_deviation(%rip)	# av_deviation.2, av_deviation
	.loc 1 69 0
	movsd	-8(%rbp), %xmm0	# deviation, tmp68
	ucomisd	.LC0(%rip), %xmm0	#, tmp68
	jbe	.L9	#,
	.loc 1 70 0
	movl	$1, %eax	#, D.5306
	jmp	.L6	#
.L9:
	.loc 1 72 0
	movl	$0, %eax	#, D.5306
.L6:
	.loc 1 73 0
	popq	%rbp	#
	.cfi_def_cfa 7, 8
	ret
	.cfi_endproc
.LFE2:
	.size	check_deviation, .-check_deviation
	.section	.rodata
	.align 8
.LC1:
	.string	"Unitarity problem on node %d, site %d, dir %d tolerance=%e\n"
.LC2:
	.string	"SU3 matrix:"
.LC3:
	.string	"%f "
.LC4:
	.string	"repeat in hex:"
.LC5:
	.string	"%08x "
.LC6:
	.string	"  \n "
	.text
	.globl	reunit_report_problem_matrix
	.type	reunit_report_problem_matrix, @function
reunit_report_problem_matrix:
.LFB3:
	.loc 1 76 0
	.cfi_startproc
	pushq	%rbp	#
	.cfi_def_cfa_offset 16
	.cfi_offset 6, -16
	movq	%rsp, %rbp	#,
	.cfi_def_cfa_register 6
	subq	$64, %rsp	#,
	movq	%rdi, -40(%rbp)	# mat, mat
	movl	%esi, -44(%rbp)	# i, i
	movl	%edx, -48(%rbp)	# dir, dir
	.loc 1 83 0
	movl	$0, %eax	#,
	call	mynode	#
	movl	%eax, %esi	#, D.5308
	movabsq	$4547007122018943789, %rax	#, tmp67
	movl	-48(%rbp), %ecx	# dir, tmp68
	movl	-44(%rbp), %edx	# i, tmp69
	movq	%rax, -56(%rbp)	# tmp67, %sfp
	movsd	-56(%rbp), %xmm0	# %sfp,
	movl	$.LC1, %edi	#,
	movl	$1, %eax	#,
	call	printf	#
	.loc 1 85 0
	movl	$.LC2, %edi	#,
	call	puts	#
	.loc 1 86 0
	movl	$0, -24(%rbp)	#, ii
	jmp	.L11	#
.L14:
	.loc 1 87 0
	movl	$0, -20(%rbp)	#, jj
	jmp	.L12	#
.L13:
	.loc 1 88 0 discriminator 2
	movq	-40(%rbp), %rcx	# mat, tmp70
	movl	-20(%rbp), %eax	# jj, tmp72
	movslq	%eax, %rsi	# tmp72, tmp71
	movl	-24(%rbp), %eax	# ii, tmp74
	movslq	%eax, %rdx	# tmp74, tmp73
	movq	%rdx, %rax	# tmp73, tmp75
	addq	%rax, %rax	# tmp75
	addq	%rdx, %rax	# tmp73, tmp75
	addq	%rsi, %rax	# tmp71, tmp76
	salq	$4, %rax	#, tmp77
	addq	%rcx, %rax	# tmp70, tmp78
	movq	(%rax), %rax	# mat_10(D)->e[ii_1][jj_3].real, D.5309
	movq	%rax, -56(%rbp)	# D.5309, %sfp
	movsd	-56(%rbp), %xmm0	# %sfp,
	movl	$.LC3, %edi	#,
	movl	$1, %eax	#,
	call	printf	#
	.loc 1 89 0 discriminator 2
	movq	-40(%rbp), %rcx	# mat, tmp79
	movl	-20(%rbp), %eax	# jj, tmp81
	movslq	%eax, %rsi	# tmp81, tmp80
	movl	-24(%rbp), %eax	# ii, tmp83
	movslq	%eax, %rdx	# tmp83, tmp82
	movq	%rdx, %rax	# tmp82, tmp84
	addq	%rax, %rax	# tmp84
	addq	%rdx, %rax	# tmp82, tmp84
	addq	%rsi, %rax	# tmp80, tmp85
	salq	$4, %rax	#, tmp86
	addq	%rcx, %rax	# tmp79, tmp87
	addq	$8, %rax	#, tmp88
	movq	(%rax), %rax	# mat_10(D)->e[ii_1][jj_3].imag, D.5309
	movq	%rax, -56(%rbp)	# D.5309, %sfp
	movsd	-56(%rbp), %xmm0	# %sfp,
	movl	$.LC3, %edi	#,
	movl	$1, %eax	#,
	call	printf	#
	.loc 1 87 0 discriminator 2
	addl	$1, -20(%rbp)	#, jj
.L12:
	.loc 1 87 0 is_stmt 0 discriminator 1
	cmpl	$2, -20(%rbp)	#, jj
	jle	.L13	#,
	.loc 1 91 0 is_stmt 1
	movl	$10, %edi	#,
	call	putchar	#
	.loc 1 86 0
	addl	$1, -24(%rbp)	#, ii
.L11:
	.loc 1 86 0 is_stmt 0 discriminator 1
	cmpl	$2, -24(%rbp)	#, ii
	jle	.L14	#,
	.loc 1 93 0 is_stmt 1
	movl	$.LC4, %edi	#,
	call	puts	#
	.loc 1 94 0
	movl	$0, -24(%rbp)	#, ii
	jmp	.L15	#
.L18:
	.loc 1 95 0
	movl	$0, -20(%rbp)	#, jj
	jmp	.L16	#
.L17:
	.loc 1 96 0 discriminator 2
	movq	-40(%rbp), %rcx	# mat, tmp89
	movl	-20(%rbp), %eax	# jj, tmp91
	movslq	%eax, %rsi	# tmp91, tmp90
	movl	-24(%rbp), %eax	# ii, tmp93
	movslq	%eax, %rdx	# tmp93, tmp92
	movq	%rdx, %rax	# tmp92, tmp94
	addq	%rax, %rax	# tmp94
	addq	%rdx, %rax	# tmp92, tmp94
	addq	%rsi, %rax	# tmp90, tmp95
	salq	$4, %rax	#, tmp96
	addq	%rcx, %rax	# tmp89, tmp97
	movq	(%rax), %rax	# mat_10(D)->e[ii_2][jj_4].real, D.5309
	movq	%rax, -16(%rbp)	# D.5309, ifval.fval
	.loc 1 97 0 discriminator 2
	movl	-16(%rbp), %eax	# ifval.ival, D.5308
	movl	%eax, %esi	# D.5308,
	movl	$.LC5, %edi	#,
	movl	$0, %eax	#,
	call	printf	#
	.loc 1 98 0 discriminator 2
	movq	-40(%rbp), %rcx	# mat, tmp98
	movl	-20(%rbp), %eax	# jj, tmp100
	movslq	%eax, %rsi	# tmp100, tmp99
	movl	-24(%rbp), %eax	# ii, tmp102
	movslq	%eax, %rdx	# tmp102, tmp101
	movq	%rdx, %rax	# tmp101, tmp103
	addq	%rax, %rax	# tmp103
	addq	%rdx, %rax	# tmp101, tmp103
	addq	%rsi, %rax	# tmp99, tmp104
	salq	$4, %rax	#, tmp105
	addq	%rcx, %rax	# tmp98, tmp106
	addq	$8, %rax	#, tmp107
	movq	(%rax), %rax	# mat_10(D)->e[ii_2][jj_4].imag, D.5309
	movq	%rax, -16(%rbp)	# D.5309, ifval.fval
	.loc 1 99 0 discriminator 2
	movl	-16(%rbp), %eax	# ifval.ival, D.5308
	movl	%eax, %esi	# D.5308,
	movl	$.LC5, %edi	#,
	movl	$0, %eax	#,
	call	printf	#
	.loc 1 95 0 discriminator 2
	addl	$1, -20(%rbp)	#, jj
.L16:
	.loc 1 95 0 is_stmt 0 discriminator 1
	cmpl	$2, -20(%rbp)	#, jj
	jle	.L17	#,
	.loc 1 101 0 is_stmt 1
	movl	$10, %edi	#,
	call	putchar	#
	.loc 1 94 0
	addl	$1, -24(%rbp)	#, ii
.L15:
	.loc 1 94 0 is_stmt 0 discriminator 1
	cmpl	$2, -24(%rbp)	#, ii
	jle	.L18	#,
	.loc 1 103 0 is_stmt 1
	movl	$.LC6, %edi	#,
	call	puts	#
	.loc 1 104 0
	movq	stdout(%rip), %rax	# stdout, stdout.3
	movq	%rax, %rdi	# stdout.3,
	call	fflush	#
	.loc 1 105 0
	leave
	.cfi_def_cfa 7, 8
	ret
	.cfi_endproc
.LFE3:
	.size	reunit_report_problem_matrix, .-reunit_report_problem_matrix
	.globl	reunit_su3
	.type	reunit_su3, @function
reunit_su3:
.LFB4:
	.loc 1 108 0
	.cfi_startproc
	pushq	%rbp	#
	.cfi_def_cfa_offset 16
	.cfi_offset 6, -16
	movq	%rsp, %rbp	#,
	.cfi_def_cfa_register 6
	subq	$48, %rsp	#,
	movq	%rdi, -24(%rbp)	# c, c
	.loc 1 115 0
	movl	$0, -12(%rbp)	#, errors
	.loc 1 117 0
	movq	-24(%rbp), %rax	# c, tmp308
	movsd	(%rax), %xmm1	# c_2(D)->e[0][0].real, D.5317
	movq	-24(%rbp), %rax	# c, tmp309
	movsd	(%rax), %xmm0	# c_2(D)->e[0][0].real, D.5317
	mulsd	%xmm0, %xmm1	# D.5317, D.5317
	.loc 1 118 0
	movq	-24(%rbp), %rax	# c, tmp310
	movsd	8(%rax), %xmm2	# c_2(D)->e[0][0].imag, D.5317
	movq	-24(%rbp), %rax	# c, tmp311
	movsd	8(%rax), %xmm0	# c_2(D)->e[0][0].imag, D.5317
	mulsd	%xmm2, %xmm0	# D.5317, D.5317
	.loc 1 117 0
	addsd	%xmm0, %xmm1	# D.5317, D.5317
	.loc 1 119 0
	movq	-24(%rbp), %rax	# c, tmp312
	movsd	16(%rax), %xmm2	# c_2(D)->e[0][1].real, D.5317
	movq	-24(%rbp), %rax	# c, tmp313
	movsd	16(%rax), %xmm0	# c_2(D)->e[0][1].real, D.5317
	mulsd	%xmm2, %xmm0	# D.5317, D.5317
	.loc 1 118 0
	addsd	%xmm0, %xmm1	# D.5317, D.5317
	.loc 1 120 0
	movq	-24(%rbp), %rax	# c, tmp314
	movsd	24(%rax), %xmm2	# c_2(D)->e[0][1].imag, D.5317
	movq	-24(%rbp), %rax	# c, tmp315
	movsd	24(%rax), %xmm0	# c_2(D)->e[0][1].imag, D.5317
	mulsd	%xmm2, %xmm0	# D.5317, D.5317
	.loc 1 119 0
	addsd	%xmm0, %xmm1	# D.5317, D.5317
	.loc 1 121 0
	movq	-24(%rbp), %rax	# c, tmp316
	movsd	32(%rax), %xmm2	# c_2(D)->e[0][2].real, D.5317
	movq	-24(%rbp), %rax	# c, tmp317
	movsd	32(%rax), %xmm0	# c_2(D)->e[0][2].real, D.5317
	mulsd	%xmm2, %xmm0	# D.5317, D.5317
	.loc 1 120 0
	addsd	%xmm0, %xmm1	# D.5317, D.5317
	.loc 1 122 0
	movq	-24(%rbp), %rax	# c, tmp318
	movsd	40(%rax), %xmm2	# c_2(D)->e[0][2].imag, D.5317
	movq	-24(%rbp), %rax	# c, tmp319
	movsd	40(%rax), %xmm0	# c_2(D)->e[0][2].imag, D.5317
	mulsd	%xmm2, %xmm0	# D.5317, D.5317
	.loc 1 117 0
	addsd	%xmm0, %xmm1	# D.5317, ar
	movapd	%xmm1, %xmm4	# ar, ar
	.loc 1 124 0
	movsd	.LC7(%rip), %xmm0	#, tmp320
	movsd	%xmm4, -40(%rbp)	# ar, %sfp
	subsd	%xmm0, %xmm4	# tmp320, D.5317
	movapd	%xmm4, %xmm0	# D.5317, D.5317
	movsd	.LC8(%rip), %xmm1	#, tmp322
	andpd	%xmm1, %xmm0	# tmp322, tmp321
	movsd	%xmm0, -8(%rbp)	# tmp321, deviation
	.loc 1 125 0
	movq	-8(%rbp), %rax	# deviation, tmp323
	movq	%rax, -32(%rbp)	# tmp323, %sfp
	movsd	-32(%rbp), %xmm0	# %sfp,
	call	check_deviation	#
	addl	%eax, -12(%rbp)	# D.5318, errors
	.loc 1 127 0
	movsd	-40(%rbp), %xmm0	# %sfp,
	call	sqrt	#
	movsd	.LC7(%rip), %xmm1	#, tmp324
	divsd	%xmm0, %xmm1	# D.5317, ar
	.loc 1 128 0
	movq	-24(%rbp), %rax	# c, tmp325
	movsd	(%rax), %xmm0	# c_2(D)->e[0][0].real, D.5317
	mulsd	%xmm1, %xmm0	# ar, D.5317
	movq	-24(%rbp), %rax	# c, tmp326
	movsd	%xmm0, (%rax)	# D.5317, c_2(D)->e[0][0].real
	.loc 1 129 0
	movq	-24(%rbp), %rax	# c, tmp327
	movsd	8(%rax), %xmm0	# c_2(D)->e[0][0].imag, D.5317
	mulsd	%xmm1, %xmm0	# ar, D.5317
	movq	-24(%rbp), %rax	# c, tmp328
	movsd	%xmm0, 8(%rax)	# D.5317, c_2(D)->e[0][0].imag
	.loc 1 130 0
	movq	-24(%rbp), %rax	# c, tmp329
	movsd	16(%rax), %xmm0	# c_2(D)->e[0][1].real, D.5317
	mulsd	%xmm1, %xmm0	# ar, D.5317
	movq	-24(%rbp), %rax	# c, tmp330
	movsd	%xmm0, 16(%rax)	# D.5317, c_2(D)->e[0][1].real
	.loc 1 131 0
	movq	-24(%rbp), %rax	# c, tmp331
	movsd	24(%rax), %xmm0	# c_2(D)->e[0][1].imag, D.5317
	mulsd	%xmm1, %xmm0	# ar, D.5317
	movq	-24(%rbp), %rax	# c, tmp332
	movsd	%xmm0, 24(%rax)	# D.5317, c_2(D)->e[0][1].imag
	.loc 1 132 0
	movq	-24(%rbp), %rax	# c, tmp333
	movsd	32(%rax), %xmm0	# c_2(D)->e[0][2].real, D.5317
	mulsd	%xmm1, %xmm0	# ar, D.5317
	movq	-24(%rbp), %rax	# c, tmp334
	movsd	%xmm0, 32(%rax)	# D.5317, c_2(D)->e[0][2].real
	.loc 1 133 0
	movq	-24(%rbp), %rax	# c, tmp335
	movsd	40(%rax), %xmm0	# c_2(D)->e[0][2].imag, D.5317
	mulsd	%xmm1, %xmm0	# ar, D.5317
	movq	-24(%rbp), %rax	# c, tmp336
	movsd	%xmm0, 40(%rax)	# D.5317, c_2(D)->e[0][2].imag
	.loc 1 136 0
	movq	-24(%rbp), %rax	# c, tmp337
	movsd	(%rax), %xmm1	# c_2(D)->e[0][0].real, D.5317
	movq	-24(%rbp), %rax	# c, tmp338
	movsd	48(%rax), %xmm0	# c_2(D)->e[1][0].real, D.5317
	mulsd	%xmm0, %xmm1	# D.5317, D.5317
	.loc 1 137 0
	movq	-24(%rbp), %rax	# c, tmp339
	movsd	8(%rax), %xmm2	# c_2(D)->e[0][0].imag, D.5317
	movq	-24(%rbp), %rax	# c, tmp340
	movsd	56(%rax), %xmm0	# c_2(D)->e[1][0].imag, D.5317
	mulsd	%xmm2, %xmm0	# D.5317, D.5317
	.loc 1 136 0
	addsd	%xmm0, %xmm1	# D.5317, D.5317
	.loc 1 138 0
	movq	-24(%rbp), %rax	# c, tmp341
	movsd	16(%rax), %xmm2	# c_2(D)->e[0][1].real, D.5317
	movq	-24(%rbp), %rax	# c, tmp342
	movsd	64(%rax), %xmm0	# c_2(D)->e[1][1].real, D.5317
	mulsd	%xmm2, %xmm0	# D.5317, D.5317
	.loc 1 137 0
	addsd	%xmm0, %xmm1	# D.5317, D.5317
	.loc 1 139 0
	movq	-24(%rbp), %rax	# c, tmp343
	movsd	24(%rax), %xmm2	# c_2(D)->e[0][1].imag, D.5317
	movq	-24(%rbp), %rax	# c, tmp344
	movsd	72(%rax), %xmm0	# c_2(D)->e[1][1].imag, D.5317
	mulsd	%xmm2, %xmm0	# D.5317, D.5317
	.loc 1 138 0
	addsd	%xmm0, %xmm1	# D.5317, D.5317
	.loc 1 140 0
	movq	-24(%rbp), %rax	# c, tmp345
	movsd	32(%rax), %xmm2	# c_2(D)->e[0][2].real, D.5317
	movq	-24(%rbp), %rax	# c, tmp346
	movsd	80(%rax), %xmm0	# c_2(D)->e[1][2].real, D.5317
	mulsd	%xmm2, %xmm0	# D.5317, D.5317
	.loc 1 139 0
	addsd	%xmm0, %xmm1	# D.5317, D.5317
	.loc 1 141 0
	movq	-24(%rbp), %rax	# c, tmp347
	movsd	40(%rax), %xmm2	# c_2(D)->e[0][2].imag, D.5317
	movq	-24(%rbp), %rax	# c, tmp348
	movsd	88(%rax), %xmm0	# c_2(D)->e[1][2].imag, D.5317
	mulsd	%xmm2, %xmm0	# D.5317, D.5317
	.loc 1 136 0
	addsd	%xmm0, %xmm1	# D.5317, ar
	movapd	%xmm1, %xmm3	# ar, ar
	.loc 1 142 0
	movq	-24(%rbp), %rax	# c, tmp349
	movsd	(%rax), %xmm1	# c_2(D)->e[0][0].real, D.5317
	movq	-24(%rbp), %rax	# c, tmp350
	movsd	56(%rax), %xmm0	# c_2(D)->e[1][0].imag, D.5317
	mulsd	%xmm1, %xmm0	# D.5317, D.5317
	.loc 1 143 0
	movq	-24(%rbp), %rax	# c, tmp351
	movsd	8(%rax), %xmm2	# c_2(D)->e[0][0].imag, D.5317
	movq	-24(%rbp), %rax	# c, tmp352
	movsd	48(%rax), %xmm1	# c_2(D)->e[1][0].real, D.5317
	mulsd	%xmm2, %xmm1	# D.5317, D.5317
	.loc 1 142 0
	subsd	%xmm1, %xmm0	# D.5317, D.5317
	movapd	%xmm0, %xmm1	# D.5317, D.5317
	.loc 1 144 0
	movq	-24(%rbp), %rax	# c, tmp353
	movsd	16(%rax), %xmm2	# c_2(D)->e[0][1].real, D.5317
	movq	-24(%rbp), %rax	# c, tmp354
	movsd	72(%rax), %xmm0	# c_2(D)->e[1][1].imag, D.5317
	mulsd	%xmm2, %xmm0	# D.5317, D.5317
	.loc 1 143 0
	addsd	%xmm1, %xmm0	# D.5317, D.5317
	.loc 1 145 0
	movq	-24(%rbp), %rax	# c, tmp355
	movsd	24(%rax), %xmm2	# c_2(D)->e[0][1].imag, D.5317
	movq	-24(%rbp), %rax	# c, tmp356
	movsd	64(%rax), %xmm1	# c_2(D)->e[1][1].real, D.5317
	mulsd	%xmm2, %xmm1	# D.5317, D.5317
	.loc 1 144 0
	subsd	%xmm1, %xmm0	# D.5317, D.5317
	movapd	%xmm0, %xmm1	# D.5317, D.5317
	.loc 1 146 0
	movq	-24(%rbp), %rax	# c, tmp357
	movsd	32(%rax), %xmm2	# c_2(D)->e[0][2].real, D.5317
	movq	-24(%rbp), %rax	# c, tmp358
	movsd	88(%rax), %xmm0	# c_2(D)->e[1][2].imag, D.5317
	mulsd	%xmm2, %xmm0	# D.5317, D.5317
	.loc 1 145 0
	addsd	%xmm1, %xmm0	# D.5317, D.5317
	.loc 1 147 0
	movq	-24(%rbp), %rax	# c, tmp359
	movsd	40(%rax), %xmm2	# c_2(D)->e[0][2].imag, D.5317
	movq	-24(%rbp), %rax	# c, tmp360
	movsd	80(%rax), %xmm1	# c_2(D)->e[1][2].real, D.5317
	mulsd	%xmm2, %xmm1	# D.5317, D.5317
	.loc 1 142 0
	subsd	%xmm1, %xmm0	# D.5317, ai
	.loc 1 149 0
	movapd	%xmm3, %xmm1	# ar, ar
	movapd	%xmm1, %xmm3	# ar, D.5317
	movsd	%xmm1, -40(%rbp)	# ar, %sfp
	mulsd	-40(%rbp), %xmm3	# %sfp, D.5317
	movapd	%xmm3, %xmm1	# D.5317, D.5317
	movapd	%xmm0, %xmm5	# ai, D.5317
	movsd	%xmm0, -32(%rbp)	# ai, %sfp
	mulsd	-32(%rbp), %xmm5	# %sfp, D.5317
	movapd	%xmm5, %xmm0	# D.5317, D.5317
	addsd	%xmm1, %xmm0	# D.5317, tmp361
	movsd	%xmm0, -8(%rbp)	# tmp361, deviation
	.loc 1 150 0
	movq	-8(%rbp), %rax	# deviation, tmp362
	movq	%rax, -48(%rbp)	# tmp362, %sfp
	movsd	-48(%rbp), %xmm0	# %sfp,
	call	check_deviation	#
	addl	%eax, -12(%rbp)	# D.5318, errors
	.loc 1 153 0
	movq	-24(%rbp), %rax	# c, tmp363
	movsd	48(%rax), %xmm2	# c_2(D)->e[1][0].real, D.5317
	movq	-24(%rbp), %rax	# c, tmp364
	movsd	(%rax), %xmm0	# c_2(D)->e[0][0].real, D.5317
	movsd	-40(%rbp), %xmm4	# %sfp, ar
	mulsd	%xmm4, %xmm0	# ar, D.5317
	movq	-24(%rbp), %rax	# c, tmp365
	movsd	8(%rax), %xmm1	# c_2(D)->e[0][0].imag, D.5317
	movsd	-32(%rbp), %xmm6	# %sfp, ai
	mulsd	%xmm6, %xmm1	# ai, D.5317
	subsd	%xmm1, %xmm0	# D.5317, D.5317
	subsd	%xmm0, %xmm2	# D.5317, D.5317
	movapd	%xmm2, %xmm0	# D.5317, D.5317
	movq	-24(%rbp), %rax	# c, tmp366
	movsd	%xmm0, 48(%rax)	# D.5317, c_2(D)->e[1][0].real
	.loc 1 154 0
	movq	-24(%rbp), %rax	# c, tmp367
	movsd	56(%rax), %xmm2	# c_2(D)->e[1][0].imag, D.5317
	movq	-24(%rbp), %rax	# c, tmp368
	movsd	8(%rax), %xmm0	# c_2(D)->e[0][0].imag, D.5317
	movapd	%xmm0, %xmm1	# D.5317, D.5317
	mulsd	%xmm4, %xmm1	# ar, D.5317
	movq	-24(%rbp), %rax	# c, tmp369
	movsd	(%rax), %xmm0	# c_2(D)->e[0][0].real, D.5317
	mulsd	%xmm6, %xmm0	# ai, D.5317
	addsd	%xmm1, %xmm0	# D.5317, D.5317
	subsd	%xmm0, %xmm2	# D.5317, D.5317
	movapd	%xmm2, %xmm0	# D.5317, D.5317
	movq	-24(%rbp), %rax	# c, tmp370
	movsd	%xmm0, 56(%rax)	# D.5317, c_2(D)->e[1][0].imag
	.loc 1 155 0
	movq	-24(%rbp), %rax	# c, tmp371
	movsd	64(%rax), %xmm2	# c_2(D)->e[1][1].real, D.5317
	movq	-24(%rbp), %rax	# c, tmp372
	movsd	16(%rax), %xmm0	# c_2(D)->e[0][1].real, D.5317
	mulsd	%xmm4, %xmm0	# ar, D.5317
	movq	-24(%rbp), %rax	# c, tmp373
	movsd	24(%rax), %xmm1	# c_2(D)->e[0][1].imag, D.5317
	mulsd	%xmm6, %xmm1	# ai, D.5317
	subsd	%xmm1, %xmm0	# D.5317, D.5317
	subsd	%xmm0, %xmm2	# D.5317, D.5317
	movapd	%xmm2, %xmm0	# D.5317, D.5317
	movq	-24(%rbp), %rax	# c, tmp374
	movsd	%xmm0, 64(%rax)	# D.5317, c_2(D)->e[1][1].real
	.loc 1 156 0
	movq	-24(%rbp), %rax	# c, tmp375
	movsd	72(%rax), %xmm2	# c_2(D)->e[1][1].imag, D.5317
	movq	-24(%rbp), %rax	# c, tmp376
	movsd	24(%rax), %xmm0	# c_2(D)->e[0][1].imag, D.5317
	movapd	%xmm0, %xmm1	# D.5317, D.5317
	mulsd	%xmm4, %xmm1	# ar, D.5317
	movq	-24(%rbp), %rax	# c, tmp377
	movsd	16(%rax), %xmm0	# c_2(D)->e[0][1].real, D.5317
	mulsd	%xmm6, %xmm0	# ai, D.5317
	addsd	%xmm1, %xmm0	# D.5317, D.5317
	subsd	%xmm0, %xmm2	# D.5317, D.5317
	movapd	%xmm2, %xmm0	# D.5317, D.5317
	movq	-24(%rbp), %rax	# c, tmp378
	movsd	%xmm0, 72(%rax)	# D.5317, c_2(D)->e[1][1].imag
	.loc 1 157 0
	movq	-24(%rbp), %rax	# c, tmp379
	movsd	80(%rax), %xmm2	# c_2(D)->e[1][2].real, D.5317
	movq	-24(%rbp), %rax	# c, tmp380
	movsd	32(%rax), %xmm0	# c_2(D)->e[0][2].real, D.5317
	mulsd	%xmm4, %xmm0	# ar, D.5317
	movq	-24(%rbp), %rax	# c, tmp381
	movsd	40(%rax), %xmm1	# c_2(D)->e[0][2].imag, D.5317
	mulsd	%xmm6, %xmm1	# ai, D.5317
	subsd	%xmm1, %xmm0	# D.5317, D.5317
	subsd	%xmm0, %xmm2	# D.5317, D.5317
	movapd	%xmm2, %xmm0	# D.5317, D.5317
	movq	-24(%rbp), %rax	# c, tmp382
	movsd	%xmm0, 80(%rax)	# D.5317, c_2(D)->e[1][2].real
	.loc 1 158 0
	movq	-24(%rbp), %rax	# c, tmp383
	movsd	88(%rax), %xmm2	# c_2(D)->e[1][2].imag, D.5317
	movq	-24(%rbp), %rax	# c, tmp384
	movsd	40(%rax), %xmm0	# c_2(D)->e[0][2].imag, D.5317
	movapd	%xmm4, %xmm1	# ar, D.5317
	mulsd	%xmm0, %xmm1	# D.5317, D.5317
	movq	-24(%rbp), %rax	# c, tmp385
	movsd	32(%rax), %xmm0	# c_2(D)->e[0][2].real, D.5317
	mulsd	%xmm6, %xmm0	# ai, D.5317
	addsd	%xmm1, %xmm0	# D.5317, D.5317
	subsd	%xmm0, %xmm2	# D.5317, D.5317
	movapd	%xmm2, %xmm0	# D.5317, D.5317
	movq	-24(%rbp), %rax	# c, tmp386
	movsd	%xmm0, 88(%rax)	# D.5317, c_2(D)->e[1][2].imag
	.loc 1 161 0
	movq	-24(%rbp), %rax	# c, tmp387
	movsd	48(%rax), %xmm1	# c_2(D)->e[1][0].real, D.5317
	movq	-24(%rbp), %rax	# c, tmp388
	movsd	48(%rax), %xmm0	# c_2(D)->e[1][0].real, D.5317
	mulsd	%xmm0, %xmm1	# D.5317, D.5317
	.loc 1 162 0
	movq	-24(%rbp), %rax	# c, tmp389
	movsd	56(%rax), %xmm2	# c_2(D)->e[1][0].imag, D.5317
	movq	-24(%rbp), %rax	# c, tmp390
	movsd	56(%rax), %xmm0	# c_2(D)->e[1][0].imag, D.5317
	mulsd	%xmm2, %xmm0	# D.5317, D.5317
	.loc 1 161 0
	addsd	%xmm0, %xmm1	# D.5317, D.5317
	.loc 1 163 0
	movq	-24(%rbp), %rax	# c, tmp391
	movsd	64(%rax), %xmm2	# c_2(D)->e[1][1].real, D.5317
	movq	-24(%rbp), %rax	# c, tmp392
	movsd	64(%rax), %xmm0	# c_2(D)->e[1][1].real, D.5317
	mulsd	%xmm2, %xmm0	# D.5317, D.5317
	.loc 1 162 0
	addsd	%xmm0, %xmm1	# D.5317, D.5317
	.loc 1 164 0
	movq	-24(%rbp), %rax	# c, tmp393
	movsd	72(%rax), %xmm2	# c_2(D)->e[1][1].imag, D.5317
	movq	-24(%rbp), %rax	# c, tmp394
	movsd	72(%rax), %xmm0	# c_2(D)->e[1][1].imag, D.5317
	mulsd	%xmm2, %xmm0	# D.5317, D.5317
	.loc 1 163 0
	addsd	%xmm0, %xmm1	# D.5317, D.5317
	.loc 1 165 0
	movq	-24(%rbp), %rax	# c, tmp395
	movsd	80(%rax), %xmm2	# c_2(D)->e[1][2].real, D.5317
	movq	-24(%rbp), %rax	# c, tmp396
	movsd	80(%rax), %xmm0	# c_2(D)->e[1][2].real, D.5317
	mulsd	%xmm2, %xmm0	# D.5317, D.5317
	.loc 1 164 0
	addsd	%xmm0, %xmm1	# D.5317, D.5317
	.loc 1 166 0
	movq	-24(%rbp), %rax	# c, tmp397
	movsd	88(%rax), %xmm2	# c_2(D)->e[1][2].imag, D.5317
	movq	-24(%rbp), %rax	# c, tmp398
	movsd	88(%rax), %xmm0	# c_2(D)->e[1][2].imag, D.5317
	mulsd	%xmm2, %xmm0	# D.5317, D.5317
	.loc 1 161 0
	addsd	%xmm0, %xmm1	# D.5317, ar
	movapd	%xmm1, %xmm6	# ar, ar
	.loc 1 168 0
	movsd	.LC7(%rip), %xmm0	#, tmp399
	movsd	%xmm6, -40(%rbp)	# ar, %sfp
	subsd	%xmm0, %xmm6	# tmp399, D.5317
	movapd	%xmm6, %xmm0	# D.5317, D.5317
	movsd	.LC8(%rip), %xmm1	#, tmp401
	andpd	%xmm1, %xmm0	# tmp401, tmp400
	movsd	%xmm0, -8(%rbp)	# tmp400, deviation
	.loc 1 169 0
	movq	-8(%rbp), %rax	# deviation, tmp402
	movq	%rax, -32(%rbp)	# tmp402, %sfp
	movsd	-32(%rbp), %xmm0	# %sfp,
	call	check_deviation	#
	addl	%eax, -12(%rbp)	# D.5318, errors
	.loc 1 171 0
	movsd	-40(%rbp), %xmm0	# %sfp,
	call	sqrt	#
	movsd	.LC7(%rip), %xmm1	#, tmp403
	divsd	%xmm0, %xmm1	# D.5317, ar
	.loc 1 172 0
	movq	-24(%rbp), %rax	# c, tmp404
	movsd	48(%rax), %xmm0	# c_2(D)->e[1][0].real, D.5317
	mulsd	%xmm1, %xmm0	# ar, D.5317
	movq	-24(%rbp), %rax	# c, tmp405
	movsd	%xmm0, 48(%rax)	# D.5317, c_2(D)->e[1][0].real
	.loc 1 173 0
	movq	-24(%rbp), %rax	# c, tmp406
	movsd	56(%rax), %xmm0	# c_2(D)->e[1][0].imag, D.5317
	mulsd	%xmm1, %xmm0	# ar, D.5317
	movq	-24(%rbp), %rax	# c, tmp407
	movsd	%xmm0, 56(%rax)	# D.5317, c_2(D)->e[1][0].imag
	.loc 1 174 0
	movq	-24(%rbp), %rax	# c, tmp408
	movsd	64(%rax), %xmm0	# c_2(D)->e[1][1].real, D.5317
	mulsd	%xmm1, %xmm0	# ar, D.5317
	movq	-24(%rbp), %rax	# c, tmp409
	movsd	%xmm0, 64(%rax)	# D.5317, c_2(D)->e[1][1].real
	.loc 1 175 0
	movq	-24(%rbp), %rax	# c, tmp410
	movsd	72(%rax), %xmm0	# c_2(D)->e[1][1].imag, D.5317
	mulsd	%xmm1, %xmm0	# ar, D.5317
	movq	-24(%rbp), %rax	# c, tmp411
	movsd	%xmm0, 72(%rax)	# D.5317, c_2(D)->e[1][1].imag
	.loc 1 176 0
	movq	-24(%rbp), %rax	# c, tmp412
	movsd	80(%rax), %xmm0	# c_2(D)->e[1][2].real, D.5317
	mulsd	%xmm1, %xmm0	# ar, D.5317
	movq	-24(%rbp), %rax	# c, tmp413
	movsd	%xmm0, 80(%rax)	# D.5317, c_2(D)->e[1][2].real
	.loc 1 177 0
	movq	-24(%rbp), %rax	# c, tmp414
	movsd	88(%rax), %xmm0	# c_2(D)->e[1][2].imag, D.5317
	mulsd	%xmm1, %xmm0	# ar, D.5317
	movq	-24(%rbp), %rax	# c, tmp415
	movsd	%xmm0, 88(%rax)	# D.5317, c_2(D)->e[1][2].imag
	.loc 1 180 0
	movq	-24(%rbp), %rax	# c, tmp416
	movsd	96(%rax), %xmm7	# c_2(D)->e[2][0].real, c0r
	movapd	%xmm7, %xmm8	# c0r, c0r
	.loc 1 181 0
	movq	-24(%rbp), %rax	# c, tmp417
	movsd	104(%rax), %xmm4	# c_2(D)->e[2][0].imag, c0i
	movapd	%xmm4, %xmm9	# c0i, c0i
	.loc 1 182 0
	movq	-24(%rbp), %rax	# c, tmp418
	movsd	112(%rax), %xmm6	# c_2(D)->e[2][1].real, c1r
	movapd	%xmm6, %xmm10	# c1r, c1r
	.loc 1 183 0
	movq	-24(%rbp), %rax	# c, tmp419
	movsd	120(%rax), %xmm7	# c_2(D)->e[2][1].imag, c1i
	movapd	%xmm7, %xmm11	# c1i, c1i
	.loc 1 184 0
	movq	-24(%rbp), %rax	# c, tmp420
	movsd	128(%rax), %xmm4	# c_2(D)->e[2][2].real, c2r
	movapd	%xmm4, %xmm12	# c2r, c2r
	.loc 1 185 0
	movq	-24(%rbp), %rax	# c, tmp421
	movsd	136(%rax), %xmm6	# c_2(D)->e[2][2].imag, c2i
	movapd	%xmm6, %xmm13	# c2i, c2i
	.loc 1 187 0
	movq	-24(%rbp), %rax	# c, tmp422
	movsd	(%rax), %xmm7	# c_2(D)->e[0][0].real, bj0r
	movq	-24(%rbp), %rax	# c, tmp423
	movsd	8(%rax), %xmm4	# c_2(D)->e[0][0].imag, bj0i
	movq	-24(%rbp), %rax	# c, tmp424
	movsd	16(%rax), %xmm6	# c_2(D)->e[0][1].real, bj1r
	movq	-24(%rbp), %rax	# c, tmp425
	movsd	24(%rax), %xmm3	# c_2(D)->e[0][1].imag, bj1i
	movq	-24(%rbp), %rax	# c, tmp426
	movsd	32(%rax), %xmm5	# c_2(D)->e[0][2].real, bj2r
	movq	-24(%rbp), %rax	# c, tmp427
	movsd	40(%rax), %xmm2	# c_2(D)->e[0][2].imag, bj2i
	movq	-24(%rbp), %rax	# c, tmp428
	movsd	80(%rax), %xmm1	# c_2(D)->e[1][2].real, ar
	movapd	%xmm1, %xmm14	# ar, ar
	movq	-24(%rbp), %rax	# c, tmp429
	movsd	88(%rax), %xmm0	# c_2(D)->e[1][2].imag, ai
	movapd	%xmm0, %xmm15	# ai, ai
	movapd	%xmm6, %xmm0	# bj1r, D.5317
	mulsd	%xmm14, %xmm0	# ar, D.5317
	movapd	%xmm3, %xmm1	# bj1i, D.5317
	mulsd	%xmm15, %xmm1	# ai, D.5317
	subsd	%xmm1, %xmm0	# D.5317, tr
	movsd	%xmm0, -40(%rbp)	# tr, %sfp
	movapd	%xmm15, %xmm1	# ai, D.5317
	mulsd	%xmm6, %xmm1	# bj1r, D.5317
	movapd	%xmm14, %xmm0	# ar, D.5317
	mulsd	%xmm3, %xmm0	# bj1i, D.5317
	addsd	%xmm0, %xmm1	# D.5317, ti
	movapd	%xmm1, %xmm14	# ti, ti
	movq	-24(%rbp), %rax	# c, tmp430
	movsd	64(%rax), %xmm15	# c_2(D)->e[1][1].real, ar
	movq	-24(%rbp), %rax	# c, tmp431
	movsd	72(%rax), %xmm1	# c_2(D)->e[1][1].imag, ai
	movsd	%xmm1, -32(%rbp)	# ai, %sfp
	movapd	%xmm5, %xmm0	# bj2r, D.5317
	mulsd	%xmm15, %xmm0	# ar, D.5317
	movsd	-40(%rbp), %xmm1	# %sfp, D.5317
	subsd	%xmm0, %xmm1	# D.5317, D.5317
	movapd	%xmm2, %xmm0	# bj2i, D.5317
	mulsd	-32(%rbp), %xmm0	# %sfp, D.5317
	addsd	%xmm0, %xmm1	# D.5317, tr
	movsd	%xmm1, -40(%rbp)	# tr, %sfp
	movsd	-32(%rbp), %xmm1	# %sfp, D.5317
	mulsd	%xmm5, %xmm1	# bj2r, D.5317
	movapd	%xmm1, %xmm0	# D.5317, D.5317
	movapd	%xmm14, %xmm1	# ti, D.5317
	subsd	%xmm0, %xmm1	# D.5317, D.5317
	movapd	%xmm1, %xmm0	# D.5317, D.5317
	movapd	%xmm15, %xmm1	# ar, D.5317
	mulsd	%xmm2, %xmm1	# bj2i, D.5317
	subsd	%xmm1, %xmm0	# D.5317, ti
	movapd	%xmm0, %xmm14	# ti, ti
	movq	-24(%rbp), %rax	# c, tmp432
	movsd	-40(%rbp), %xmm1	# %sfp, tr
	movsd	%xmm1, 96(%rax)	# tr, c_2(D)->e[2][0].real
	movsd	.LC9(%rip), %xmm0	#, tmp433
	movapd	%xmm14, %xmm1	# ti, ti
	xorpd	%xmm1, %xmm0	# ti, D.5317
	movq	-24(%rbp), %rax	# c, tmp434
	movsd	%xmm0, 104(%rax)	# D.5317, c_2(D)->e[2][0].imag
	movq	-24(%rbp), %rax	# c, tmp435
	movsd	48(%rax), %xmm1	# c_2(D)->e[1][0].real, ar
	movapd	%xmm1, %xmm15	# ar, ar
	movq	-24(%rbp), %rax	# c, tmp436
	movsd	56(%rax), %xmm0	# c_2(D)->e[1][0].imag, ai
	movapd	%xmm0, %xmm14	# ai, ai
	movapd	%xmm5, %xmm0	# bj2r, D.5317
	mulsd	%xmm15, %xmm0	# ar, D.5317
	movapd	%xmm2, %xmm1	# bj2i, D.5317
	movsd	%xmm14, -32(%rbp)	# ai, %sfp
	mulsd	-32(%rbp), %xmm1	# %sfp, D.5317
	subsd	%xmm1, %xmm0	# D.5317, tr
	movapd	%xmm0, %xmm14	# tr, tr
	mulsd	-32(%rbp), %xmm5	# %sfp, D.5317
	movapd	%xmm5, %xmm1	# D.5317, D.5317
	movapd	%xmm2, %xmm0	# bj2i, D.5317
	mulsd	%xmm15, %xmm0	# ar, D.5317
	addsd	%xmm0, %xmm1	# D.5317, ti
	movapd	%xmm1, %xmm5	# ti, ti
	movq	-24(%rbp), %rax	# c, tmp437
	movsd	80(%rax), %xmm2	# c_2(D)->e[1][2].real, ar
	movq	-24(%rbp), %rax	# c, tmp438
	movsd	88(%rax), %xmm1	# c_2(D)->e[1][2].imag, ai
	movapd	%xmm1, %xmm15	# ai, ai
	movapd	%xmm7, %xmm0	# bj0r, D.5317
	mulsd	%xmm2, %xmm0	# ar, D.5317
	movapd	%xmm14, %xmm1	# tr, D.5317
	subsd	%xmm0, %xmm1	# D.5317, D.5317
	movapd	%xmm4, %xmm0	# bj0i, D.5317
	movapd	%xmm15, %xmm14	# ai, ai
	mulsd	%xmm14, %xmm0	# ai, D.5317
	addsd	%xmm0, %xmm1	# D.5317, tr
	movapd	%xmm1, %xmm15	# tr, tr
	movapd	%xmm14, %xmm1	# ai, D.5317
	mulsd	%xmm7, %xmm1	# bj0r, D.5317
	movapd	%xmm1, %xmm0	# D.5317, D.5317
	movapd	%xmm5, %xmm1	# ti, D.5317
	subsd	%xmm0, %xmm1	# D.5317, D.5317
	movapd	%xmm1, %xmm0	# D.5317, D.5317
	mulsd	%xmm4, %xmm2	# bj0i, D.5317
	movapd	%xmm2, %xmm1	# D.5317, D.5317
	subsd	%xmm1, %xmm0	# D.5317, ti
	movapd	%xmm0, %xmm5	# ti, ti
	movq	-24(%rbp), %rax	# c, tmp439
	movapd	%xmm15, %xmm1	# tr, tr
	movsd	%xmm1, 112(%rax)	# tr, c_2(D)->e[2][1].real
	movsd	.LC9(%rip), %xmm0	#, tmp440
	xorpd	%xmm5, %xmm0	# ti, D.5317
	movq	-24(%rbp), %rax	# c, tmp441
	movsd	%xmm0, 120(%rax)	# D.5317, c_2(D)->e[2][1].imag
	movq	-24(%rbp), %rax	# c, tmp442
	movsd	64(%rax), %xmm5	# c_2(D)->e[1][1].real, ar
	movq	-24(%rbp), %rax	# c, tmp443
	movsd	72(%rax), %xmm2	# c_2(D)->e[1][1].imag, ai
	movapd	%xmm2, %xmm14	# ai, ai
	movapd	%xmm7, %xmm0	# bj0r, D.5317
	movapd	%xmm5, %xmm2	# ar, ar
	mulsd	%xmm2, %xmm0	# ar, D.5317
	movapd	%xmm4, %xmm1	# bj0i, D.5317
	mulsd	%xmm14, %xmm1	# ai, D.5317
	subsd	%xmm1, %xmm0	# D.5317, tr
	movapd	%xmm0, %xmm5	# tr, tr
	mulsd	%xmm14, %xmm7	# ai, D.5317
	movapd	%xmm7, %xmm1	# D.5317, D.5317
	movapd	%xmm4, %xmm0	# bj0i, D.5317
	mulsd	%xmm2, %xmm0	# ar, D.5317
	addsd	%xmm0, %xmm1	# D.5317, ti
	movapd	%xmm1, %xmm7	# ti, ti
	movq	-24(%rbp), %rax	# c, tmp444
	movsd	48(%rax), %xmm4	# c_2(D)->e[1][0].real, ar
	movq	-24(%rbp), %rax	# c, tmp445
	movsd	56(%rax), %xmm2	# c_2(D)->e[1][0].imag, ai
	movapd	%xmm6, %xmm0	# bj1r, D.5317
	mulsd	%xmm4, %xmm0	# ar, D.5317
	movapd	%xmm5, %xmm1	# tr, D.5317
	subsd	%xmm0, %xmm1	# D.5317, D.5317
	movapd	%xmm3, %xmm0	# bj1i, D.5317
	mulsd	%xmm2, %xmm0	# ai, D.5317
	addsd	%xmm0, %xmm1	# D.5317, tr
	movapd	%xmm1, %xmm5	# tr, tr
	movapd	%xmm6, %xmm0	# bj1r, D.5317
	mulsd	%xmm2, %xmm0	# ai, D.5317
	movapd	%xmm7, %xmm1	# ti, D.5317
	subsd	%xmm0, %xmm1	# D.5317, D.5317
	movapd	%xmm1, %xmm0	# D.5317, D.5317
	movapd	%xmm3, %xmm1	# bj1i, D.5317
	mulsd	%xmm4, %xmm1	# ar, D.5317
	subsd	%xmm1, %xmm0	# D.5317, ti
	movapd	%xmm0, %xmm3	# ti, ti
	movq	-24(%rbp), %rax	# c, tmp446
	movapd	%xmm5, %xmm1	# tr, tr
	movsd	%xmm1, 128(%rax)	# tr, c_2(D)->e[2][2].real
	movsd	.LC9(%rip), %xmm0	#, tmp447
	xorpd	%xmm3, %xmm0	# ti, D.5317
	movq	-24(%rbp), %rax	# c, tmp448
	movsd	%xmm0, 136(%rax)	# D.5317, c_2(D)->e[2][2].imag
	.loc 1 190 0
	movq	-24(%rbp), %rax	# c, tmp449
	movsd	96(%rax), %xmm0	# c_2(D)->e[2][0].real, D.5317
	movapd	%xmm8, %xmm1	# c0r, D.5317
	subsd	%xmm0, %xmm1	# D.5317, D.5317
	movq	-24(%rbp), %rax	# c, tmp450
	movsd	96(%rax), %xmm0	# c_2(D)->e[2][0].real, D.5317
	movapd	%xmm8, %xmm7	# c0r, D.5317
	subsd	%xmm0, %xmm7	# D.5317, D.5317
	movapd	%xmm7, %xmm0	# D.5317, D.5317
	mulsd	%xmm0, %xmm1	# D.5317, D.5317
	.loc 1 191 0
	movq	-24(%rbp), %rax	# c, tmp451
	movsd	104(%rax), %xmm0	# c_2(D)->e[2][0].imag, D.5317
	movapd	%xmm9, %xmm2	# c0i, D.5317
	subsd	%xmm0, %xmm2	# D.5317, D.5317
	movq	-24(%rbp), %rax	# c, tmp452
	movsd	104(%rax), %xmm0	# c_2(D)->e[2][0].imag, D.5317
	movapd	%xmm9, %xmm4	# c0i, D.5317
	subsd	%xmm0, %xmm4	# D.5317, D.5317
	movapd	%xmm4, %xmm0	# D.5317, D.5317
	mulsd	%xmm2, %xmm0	# D.5317, D.5317
	.loc 1 190 0
	addsd	%xmm0, %xmm1	# D.5317, D.5317
	.loc 1 192 0
	movq	-24(%rbp), %rax	# c, tmp453
	movsd	112(%rax), %xmm0	# c_2(D)->e[2][1].real, D.5317
	movapd	%xmm10, %xmm2	# c1r, D.5317
	subsd	%xmm0, %xmm2	# D.5317, D.5317
	movq	-24(%rbp), %rax	# c, tmp454
	movsd	112(%rax), %xmm0	# c_2(D)->e[2][1].real, D.5317
	movapd	%xmm10, %xmm6	# c1r, D.5317
	subsd	%xmm0, %xmm6	# D.5317, D.5317
	movapd	%xmm6, %xmm0	# D.5317, D.5317
	mulsd	%xmm2, %xmm0	# D.5317, D.5317
	.loc 1 191 0
	addsd	%xmm0, %xmm1	# D.5317, D.5317
	.loc 1 193 0
	movq	-24(%rbp), %rax	# c, tmp455
	movsd	120(%rax), %xmm0	# c_2(D)->e[2][1].imag, D.5317
	movapd	%xmm11, %xmm2	# c1i, D.5317
	subsd	%xmm0, %xmm2	# D.5317, D.5317
	movq	-24(%rbp), %rax	# c, tmp456
	movsd	120(%rax), %xmm0	# c_2(D)->e[2][1].imag, D.5317
	movapd	%xmm11, %xmm7	# c1i, D.5317
	subsd	%xmm0, %xmm7	# D.5317, D.5317
	movapd	%xmm7, %xmm0	# D.5317, D.5317
	mulsd	%xmm2, %xmm0	# D.5317, D.5317
	.loc 1 192 0
	addsd	%xmm0, %xmm1	# D.5317, D.5317
	.loc 1 194 0
	movq	-24(%rbp), %rax	# c, tmp457
	movsd	128(%rax), %xmm0	# c_2(D)->e[2][2].real, D.5317
	movapd	%xmm12, %xmm2	# c2r, D.5317
	subsd	%xmm0, %xmm2	# D.5317, D.5317
	movq	-24(%rbp), %rax	# c, tmp458
	movsd	128(%rax), %xmm0	# c_2(D)->e[2][2].real, D.5317
	movapd	%xmm12, %xmm4	# c2r, D.5317
	subsd	%xmm0, %xmm4	# D.5317, D.5317
	movapd	%xmm4, %xmm0	# D.5317, D.5317
	mulsd	%xmm2, %xmm0	# D.5317, D.5317
	.loc 1 193 0
	addsd	%xmm0, %xmm1	# D.5317, D.5317
	.loc 1 195 0
	movq	-24(%rbp), %rax	# c, tmp459
	movsd	136(%rax), %xmm0	# c_2(D)->e[2][2].imag, D.5317
	movapd	%xmm13, %xmm2	# c2i, D.5317
	subsd	%xmm0, %xmm2	# D.5317, D.5317
	movq	-24(%rbp), %rax	# c, tmp460
	movsd	136(%rax), %xmm0	# c_2(D)->e[2][2].imag, D.5317
	movapd	%xmm13, %xmm6	# c2i, D.5317
	subsd	%xmm0, %xmm6	# D.5317, D.5317
	movapd	%xmm6, %xmm0	# D.5317, D.5317
	mulsd	%xmm2, %xmm0	# D.5317, D.5317
	.loc 1 190 0
	addsd	%xmm0, %xmm1	# D.5317, ar
	.loc 1 196 0
	movsd	%xmm1, -8(%rbp)	# ar, deviation
	.loc 1 197 0
	movq	-8(%rbp), %rax	# deviation, tmp461
	movq	%rax, -32(%rbp)	# tmp461, %sfp
	movsd	-32(%rbp), %xmm0	# %sfp,
	call	check_deviation	#
	addl	%eax, -12(%rbp)	# D.5318, errors
	.loc 1 199 0
	movl	-12(%rbp), %eax	# errors, D.5318
	.loc 1 201 0
	leave
	.cfi_def_cfa 7, 8
	ret
	.cfi_endproc
.LFE4:
	.size	reunit_su3, .-reunit_su3
	.section	.rodata
	.align 8
.LC11:
	.string	"Unitarity error count exceeded."
	.align 8
.LC12:
	.string	"reunitarize: Node %d unitarity problem, maximum deviation=%e\n"
	.text
	.globl	reunitarize
	.type	reunitarize, @function
reunitarize:
.LFB5:
	.loc 1 203 0
	.cfi_startproc
	pushq	%rbp	#
	.cfi_def_cfa_offset 16
	.cfi_offset 6, -16
	movq	%rsp, %rbp	#,
	.cfi_def_cfa_register 6
	pushq	%r14	#
	pushq	%r13	#
	pushq	%r12	#
	pushq	%rbx	#
	subq	$32, %rsp	#,
	.cfi_offset 14, -24
	.cfi_offset 13, -32
	.cfi_offset 12, -40
	.cfi_offset 3, -48
	.loc 1 207 0
	movl	$0, -40(%rbp)	#, errcount
	.loc 1 210 0
	movl	$0, %eax	#, tmp67
	movq	%rax, max_deviation(%rip)	# tmp67, max_deviation
	.loc 1 211 0
	movl	$0, %eax	#, tmp68
	movq	%rax, av_deviation(%rip)	# tmp68, av_deviation
	.loc 1 213 0
	movl	$0, %r12d	#, i
	movq	lattice(%rip), %r13	# lattice, s
	jmp	.L22	#
.L27:
	.loc 1 217 0
	movl	$0, %ebx	#, dir
	jmp	.L23	#
.L26:
	.loc 1 219 0
	movslq	%ebx, %rdx	# dir, tmp69
	movq	%rdx, %rax	# tmp69, tmp70
	salq	$3, %rax	#, tmp70
	addq	%rdx, %rax	# tmp69, tmp70
	salq	$4, %rax	#, tmp71
	addq	$112, %rax	#, tmp72
	leaq	0(%r13,%rax), %r14	#, mat
	.loc 1 220 0
	movq	%r14, %rdi	# mat,
	call	reunit_su3	#
	movl	%eax, -36(%rbp)	# tmp73, errors
	.loc 1 221 0
	movl	-36(%rbp), %eax	# errors, tmp74
	addl	%eax, -40(%rbp)	# tmp74, errcount
	.loc 1 222 0
	cmpl	$0, -36(%rbp)	#, errors
	je	.L24	#,
	.loc 1 222 0 is_stmt 0 discriminator 1
	movl	%ebx, %edx	# dir,
	movl	%r12d, %esi	# i,
	movq	%r14, %rdi	# mat,
	call	reunit_report_problem_matrix	#
.L24:
	.loc 1 223 0 is_stmt 1
	cmpl	$100, -40(%rbp)	#, errcount
	jle	.L25	#,
	.loc 1 225 0
	movl	$.LC11, %edi	#,
	call	puts	#
	.loc 1 226 0
	movl	$1, %edi	#,
	call	terminate	#
.L25:
	.loc 1 217 0
	addl	$1, %ebx	#, dir
.L23:
	.loc 1 217 0 is_stmt 0 discriminator 1
	cmpl	$3, %ebx	#, dir
	jle	.L26	#,
	.loc 1 213 0 is_stmt 1
	addl	$1, %r12d	#, i
	addq	$2048, %r13	#, s
.L22:
	.loc 1 213 0 is_stmt 0 discriminator 1
	movl	sites_on_node(%rip), %eax	# sites_on_node, sites_on_node.4
	cmpl	%eax, %r12d	# sites_on_node.4, i
	jl	.L27	#,
	.loc 1 235 0 is_stmt 1
	movsd	max_deviation(%rip), %xmm0	# max_deviation, max_deviation.5
	ucomisd	.LC0(%rip), %xmm0	#, max_deviation.5
	jbe	.L21	#,
	.loc 1 237 0
	movq	max_deviation(%rip), %rbx	# max_deviation, max_deviation.6
	movl	$0, %eax	#,
	call	mynode	#
	movq	%rbx, -56(%rbp)	# max_deviation.6, %sfp
	movsd	-56(%rbp), %xmm0	# %sfp,
	movl	%eax, %esi	# D.5319,
	movl	$.LC12, %edi	#,
	movl	$1, %eax	#,
	call	printf	#
	.loc 1 239 0
	addl	$1, -40(%rbp)	#, errcount
	.loc 1 240 0
	cmpl	$100, -40(%rbp)	#, errcount
	jle	.L21	#,
	.loc 1 242 0
	movl	$.LC11, %edi	#,
	call	puts	#
	.loc 1 243 0
	movl	$1, %edi	#,
	call	terminate	#
.L21:
	.loc 1 247 0
	addq	$32, %rsp	#,
	popq	%rbx	#
	popq	%r12	#
	popq	%r13	#
	popq	%r14	#
	popq	%rbp	#
	.cfi_def_cfa 7, 8
	ret
	.cfi_endproc
.LFE5:
	.size	reunitarize, .-reunitarize
	.section	.rodata
	.align 8
.LC0:
	.long	3944497965
	.long	1058682594
	.align 8
.LC7:
	.long	0
	.long	1072693248
	.align 16
.LC8:
	.long	4294967295
	.long	2147483647
	.long	0
	.long	0
	.align 16
.LC9:
	.long	0
	.long	-2147483648
	.long	0
	.long	0
	.text
.Letext0:
	.file 2 "/usr/lib/gcc/x86_64-linux-gnu/4.8/include/stddef.h"
	.file 3 "/usr/include/x86_64-linux-gnu/bits/types.h"
	.file 4 "/usr/include/libio.h"
	.file 5 "complex.h"
	.file 6 "random.h"
	.file 7 "su3.h"
	.file 8 "./lattice.h"
	.file 9 "/usr/include/stdio.h"
	.section	.note.GNU-stack,"",@progbits
