	.file	"su3_proj.c"
# GNU C (Ubuntu/Linaro 4.8.1-10ubuntu9) version 4.8.1 (x86_64-linux-gnu)
#	compiled by GNU C version 4.8.1, GMP version 5.1.2, MPFR version 3.1.1-p2, MPC version 1.0.1
# GGC heuristics: --param ggc-min-expand=100 --param ggc-min-heapsize=131072
# options passed:  -I . -imultiarch x86_64-linux-gnu -D SPEC_CPU -D NDEBUG
# -D FN -D FAST -D CONGRAD_TMP_VECTORS -D DSLASH_TMP_LINKS -D SPEC_CPU_LP64
# su3_proj.c -mtune=generic -march=x86-64 -g -fverbose-asm
# -fno-strict-aliasing -fstack-protector -Wformat -Wformat-security
# options enabled:  -faggressive-loop-optimizations
# -fasynchronous-unwind-tables -fauto-inc-dec -fbranch-count-reg -fcommon
# -fdelete-null-pointer-checks -fdwarf2-cfi-asm -fearly-inlining
# -feliminate-unused-debug-types -ffunction-cse -fgcse-lm -fgnu-runtime
# -fident -finline-atomics -fira-hoist-pressure -fira-share-save-slots
# -fira-share-spill-slots -fivopts -fkeep-static-consts
# -fleading-underscore -fmath-errno -fmerge-debug-strings
# -fmove-loop-invariants -fpeephole -fprefetch-loop-arrays
# -freg-struct-return -fsched-critical-path-heuristic
# -fsched-dep-count-heuristic -fsched-group-heuristic -fsched-interblock
# -fsched-last-insn-heuristic -fsched-rank-heuristic -fsched-spec
# -fsched-spec-insn-heuristic -fsched-stalled-insns-dep -fshow-column
# -fsigned-zeros -fsplit-ivs-in-unroller -fstack-protector
# -fstrict-volatile-bitfields -fsync-libcalls -ftrapping-math
# -ftree-coalesce-vars -ftree-cselim -ftree-forwprop -ftree-loop-if-convert
# -ftree-loop-im -ftree-loop-ivcanon -ftree-loop-optimize
# -ftree-parallelize-loops= -ftree-phiprop -ftree-pta -ftree-reassoc
# -ftree-scev-cprop -ftree-slp-vectorize -ftree-vect-loop-version
# -funit-at-a-time -funwind-tables -fverbose-asm -fzero-initialized-in-bss
# -m128bit-long-double -m64 -m80387 -maccumulate-outgoing-args
# -malign-stringops -mfancy-math-387 -mfp-ret-in-387 -mfxsr -mglibc
# -mieee-fp -mlong-double-80 -mmmx -mno-sse4 -mpush-args -mred-zone -msse
# -msse2 -mtls-direct-seg-refs

	.text
.Ltext0:
	.globl	su3_projector
	.type	su3_projector, @function
su3_projector:
.LFB0:
	.file 1 "su3_proj.c"
	.loc 1 38 0
	.cfi_startproc
	pushq	%rbp	#
	.cfi_def_cfa_offset 16
	.cfi_offset 6, -16
	movq	%rsp, %rbp	#,
	.cfi_def_cfa_register 6
	pushq	%r12	#
	pushq	%rbx	#
	.cfi_offset 12, -24
	.cfi_offset 3, -32
	movq	%rdi, -24(%rbp)	# a, a
	movq	%rsi, -32(%rbp)	# b, b
	movq	%rdx, -40(%rbp)	# c, c
	.loc 1 41 0
	movl	$0, %ebx	#, i
	jmp	.L2	#
.L5:
	.loc 1 41 0 is_stmt 0 discriminator 2
	movl	$0, %r12d	#, j
	jmp	.L3	#
.L4:
	.loc 1 42 0 is_stmt 1 discriminator 2
	movq	-24(%rbp), %rax	# a, tmp73
	movslq	%ebx, %rdx	# i, tmp74
	salq	$4, %rdx	#, tmp75
	addq	%rdx, %rax	# tmp75, tmp76
	movsd	(%rax), %xmm1	# a_5(D)->c[i_1].real, D.2188
	movq	-32(%rbp), %rax	# b, tmp77
	movslq	%r12d, %rdx	# j, tmp78
	salq	$4, %rdx	#, tmp79
	addq	%rdx, %rax	# tmp79, tmp80
	movsd	(%rax), %xmm0	# b_7(D)->c[j_2].real, D.2188
	mulsd	%xmm0, %xmm1	# D.2188, tmp2
	movapd	%xmm1, %xmm2	# tmp2, tmp2
	.loc 1 43 0 discriminator 2
	movq	-24(%rbp), %rax	# a, tmp81
	movslq	%ebx, %rdx	# i, tmp82
	salq	$4, %rdx	#, tmp83
	addq	%rdx, %rax	# tmp83, tmp84
	addq	$8, %rax	#, tmp85
	movsd	(%rax), %xmm1	# a_5(D)->c[i_1].imag, D.2188
	movq	-32(%rbp), %rax	# b, tmp86
	movslq	%r12d, %rdx	# j, tmp87
	salq	$4, %rdx	#, tmp88
	addq	%rdx, %rax	# tmp88, tmp89
	addq	$8, %rax	#, tmp90
	movsd	(%rax), %xmm0	# b_7(D)->c[j_2].imag, D.2188
	mulsd	%xmm0, %xmm1	# D.2188, tmp
	.loc 1 44 0 discriminator 2
	addsd	%xmm2, %xmm1	# tmp2, D.2188
	movapd	%xmm1, %xmm0	# D.2188, D.2188
	movq	-40(%rbp), %rcx	# c, tmp91
	movslq	%r12d, %rsi	# j, tmp92
	movslq	%ebx, %rdx	# i, tmp93
	movq	%rdx, %rax	# tmp93, tmp94
	addq	%rax, %rax	# tmp94
	addq	%rdx, %rax	# tmp93, tmp94
	addq	%rsi, %rax	# tmp92, tmp95
	salq	$4, %rax	#, tmp96
	addq	%rcx, %rax	# tmp91, tmp97
	movsd	%xmm0, (%rax)	# D.2188, c_14(D)->e[i_1][j_2].real
	.loc 1 45 0 discriminator 2
	movq	-24(%rbp), %rax	# a, tmp98
	movslq	%ebx, %rdx	# i, tmp99
	salq	$4, %rdx	#, tmp100
	addq	%rdx, %rax	# tmp100, tmp101
	movsd	(%rax), %xmm1	# a_5(D)->c[i_1].real, D.2188
	movq	-32(%rbp), %rax	# b, tmp102
	movslq	%r12d, %rdx	# j, tmp103
	salq	$4, %rdx	#, tmp104
	addq	%rdx, %rax	# tmp104, tmp105
	addq	$8, %rax	#, tmp106
	movsd	(%rax), %xmm0	# b_7(D)->c[j_2].imag, D.2188
	mulsd	%xmm0, %xmm1	# D.2188, tmp2
	movapd	%xmm1, %xmm3	# tmp2, tmp2
	.loc 1 46 0 discriminator 2
	movq	-24(%rbp), %rax	# a, tmp107
	movslq	%ebx, %rdx	# i, tmp108
	salq	$4, %rdx	#, tmp109
	addq	%rdx, %rax	# tmp109, tmp110
	addq	$8, %rax	#, tmp111
	movsd	(%rax), %xmm1	# a_5(D)->c[i_1].imag, D.2188
	movq	-32(%rbp), %rax	# b, tmp112
	movslq	%r12d, %rdx	# j, tmp113
	salq	$4, %rdx	#, tmp114
	addq	%rdx, %rax	# tmp114, tmp115
	movsd	(%rax), %xmm0	# b_7(D)->c[j_2].real, D.2188
	mulsd	%xmm0, %xmm1	# D.2188, tmp
	movapd	%xmm1, %xmm0	# tmp, tmp
	.loc 1 47 0 discriminator 2
	subsd	%xmm3, %xmm0	# tmp2, D.2188
	movq	-40(%rbp), %rcx	# c, tmp116
	movslq	%r12d, %rsi	# j, tmp117
	movslq	%ebx, %rdx	# i, tmp118
	movq	%rdx, %rax	# tmp118, tmp119
	addq	%rax, %rax	# tmp119
	addq	%rdx, %rax	# tmp118, tmp119
	addq	%rsi, %rax	# tmp117, tmp120
	salq	$4, %rax	#, tmp121
	addq	%rcx, %rax	# tmp116, tmp122
	addq	$8, %rax	#, tmp123
	movsd	%xmm0, (%rax)	# D.2188, c_14(D)->e[i_1][j_2].imag
	.loc 1 41 0 discriminator 2
	addl	$1, %r12d	#, j
.L3:
	.loc 1 41 0 is_stmt 0 discriminator 1
	cmpl	$2, %r12d	#, j
	jle	.L4	#,
	.loc 1 41 0 discriminator 3
	addl	$1, %ebx	#, i
.L2:
	.loc 1 41 0 discriminator 1
	cmpl	$2, %ebx	#, i
	jle	.L5	#,
	.loc 1 49 0 is_stmt 1
	popq	%rbx	#
	popq	%r12	#
	popq	%rbp	#
	.cfi_def_cfa 7, 8
	ret
	.cfi_endproc
.LFE0:
	.size	su3_projector, .-su3_projector
.Letext0:
	.file 2 "complex.h"
	.file 3 "su3.h"
	.section	.note.GNU-stack,"",@progbits
