	.file	"update_u.c"
# GNU C (Ubuntu/Linaro 4.8.1-10ubuntu9) version 4.8.1 (x86_64-linux-gnu)
#	compiled by GNU C version 4.8.1, GMP version 5.1.2, MPFR version 3.1.1-p2, MPC version 1.0.1
# GGC heuristics: --param ggc-min-expand=100 --param ggc-min-heapsize=131072
# options passed:  -I . -imultiarch x86_64-linux-gnu -D SPEC_CPU -D NDEBUG
# -D FN -D FAST -D CONGRAD_TMP_VECTORS -D DSLASH_TMP_LINKS -D SPEC_CPU_LP64
# update_u.c -mtune=generic -march=x86-64 -g -fverbose-asm
# -fno-strict-aliasing -fstack-protector -Wformat -Wformat-security
# options enabled:  -faggressive-loop-optimizations
# -fasynchronous-unwind-tables -fauto-inc-dec -fbranch-count-reg -fcommon
# -fdelete-null-pointer-checks -fdwarf2-cfi-asm -fearly-inlining
# -feliminate-unused-debug-types -ffunction-cse -fgcse-lm -fgnu-runtime
# -fident -finline-atomics -fira-hoist-pressure -fira-share-save-slots
# -fira-share-spill-slots -fivopts -fkeep-static-consts
# -fleading-underscore -fmath-errno -fmerge-debug-strings
# -fmove-loop-invariants -fpeephole -fprefetch-loop-arrays
# -freg-struct-return -fsched-critical-path-heuristic
# -fsched-dep-count-heuristic -fsched-group-heuristic -fsched-interblock
# -fsched-last-insn-heuristic -fsched-rank-heuristic -fsched-spec
# -fsched-spec-insn-heuristic -fsched-stalled-insns-dep -fshow-column
# -fsigned-zeros -fsplit-ivs-in-unroller -fstack-protector
# -fstrict-volatile-bitfields -fsync-libcalls -ftrapping-math
# -ftree-coalesce-vars -ftree-cselim -ftree-forwprop -ftree-loop-if-convert
# -ftree-loop-im -ftree-loop-ivcanon -ftree-loop-optimize
# -ftree-parallelize-loops= -ftree-phiprop -ftree-pta -ftree-reassoc
# -ftree-scev-cprop -ftree-slp-vectorize -ftree-vect-loop-version
# -funit-at-a-time -funwind-tables -fverbose-asm -fzero-initialized-in-bss
# -m128bit-long-double -m64 -m80387 -maccumulate-outgoing-args
# -malign-stringops -mfancy-math-387 -mfp-ret-in-387 -mfxsr -mglibc
# -mieee-fp -mlong-double-80 -mmmx -mno-sse4 -mpush-args -mred-zone -msse
# -msse2 -mtls-direct-seg-refs

	.text
.Ltext0:
	.globl	update_u
	.type	update_u, @function
update_u:
.LFB2:
	.file 1 "update_u.c"
	.loc 1 16 0
	.cfi_startproc
	pushq	%rbp	#
	.cfi_def_cfa_offset 16
	.cfi_offset 6, -16
	movq	%rsp, %rbp	#,
	.cfi_def_cfa_register 6
	pushq	%r13	#
	pushq	%r12	#
	pushq	%rbx	#
	subq	$520, %rsp	#,
	.cfi_offset 13, -24
	.cfi_offset 12, -32
	.cfi_offset 3, -40
	movsd	%xmm0, -488(%rbp)	# eps, eps
	.loc 1 31 0
	movsd	-488(%rbp), %xmm0	# eps, tmp69
	movsd	.LC0(%rip), %xmm1	#, tmp70
	divsd	%xmm1, %xmm0	# tmp70, t2
	movsd	%xmm0, -496(%rbp)	# t2, %sfp
	.loc 1 32 0
	movsd	-488(%rbp), %xmm0	# eps, tmp71
	movsd	.LC1(%rip), %xmm1	#, tmp72
	divsd	%xmm1, %xmm0	# tmp72, t3
	movsd	%xmm0, -504(%rbp)	# t3, %sfp
	.loc 1 33 0
	movsd	-488(%rbp), %xmm0	# eps, tmp73
	movsd	.LC2(%rip), %xmm1	#, tmp74
	divsd	%xmm1, %xmm0	# tmp74, t4
	movsd	%xmm0, -512(%rbp)	# t4, %sfp
	.loc 1 34 0
	movsd	-488(%rbp), %xmm0	# eps, tmp75
	movsd	.LC3(%rip), %xmm1	#, tmp76
	divsd	%xmm1, %xmm0	# tmp76, t5
	movsd	%xmm0, -520(%rbp)	# t5, %sfp
	.loc 1 35 0
	movsd	-488(%rbp), %xmm0	# eps, tmp77
	movsd	.LC4(%rip), %xmm1	#, tmp78
	divsd	%xmm1, %xmm0	# tmp78, t6
	movsd	%xmm0, -528(%rbp)	# t6, %sfp
	.loc 1 40 0
	movl	$0, %r13d	#, i
	movq	lattice(%rip), %r12	# lattice, s
	jmp	.L2	#
.L5:
	.loc 1 41 0
	movl	$0, %ebx	#, dir
	jmp	.L3	#
.L4:
	.loc 1 42 0 discriminator 2
	movslq	%ebx, %rdx	# dir, tmp79
	movq	%rdx, %rax	# tmp79, tmp80
	salq	$2, %rax	#, tmp80
	addq	%rdx, %rax	# tmp79, tmp80
	salq	$4, %rax	#, tmp81
	addq	$688, %rax	#, tmp82
	leaq	(%r12,%rax), %rdx	#, D.4977
	leaq	-176(%rbp), %rax	#, tmp83
	movq	%rax, %rsi	# tmp83,
	movq	%rdx, %rdi	# D.4977,
	call	uncompress_anti_hermitian	#
	.loc 1 43 0 discriminator 2
	movslq	%ebx, %rdx	# dir, tmp84
	movq	%rdx, %rax	# tmp84, tmp85
	salq	$3, %rax	#, tmp85
	addq	%rdx, %rax	# tmp84, tmp85
	salq	$4, %rax	#, tmp86
	addq	$112, %rax	#, tmp87
	addq	%r12, %rax	# s, tmp88
	movq	%rax, -472(%rbp)	# tmp88, link
	.loc 1 44 0 discriminator 2
	leaq	-464(%rbp), %rdx	#, tmp89
	movq	-472(%rbp), %rcx	# link, tmp90
	leaq	-176(%rbp), %rax	#, tmp91
	movq	%rcx, %rsi	# tmp90,
	movq	%rax, %rdi	# tmp91,
	call	mult_su3_nn	#
	.loc 1 46 0 discriminator 2
	leaq	-320(%rbp), %rdx	#, tmp92
	leaq	-464(%rbp), %rcx	#, tmp93
	movq	-472(%rbp), %rax	# link, tmp94
	movsd	-528(%rbp), %xmm0	# %sfp,
	movq	%rcx, %rsi	# tmp93,
	movq	%rax, %rdi	# tmp94,
	call	scalar_mult_add_su3_matrix	#
	.loc 1 47 0 discriminator 2
	leaq	-464(%rbp), %rdx	#, tmp95
	leaq	-320(%rbp), %rcx	#, tmp96
	leaq	-176(%rbp), %rax	#, tmp97
	movq	%rcx, %rsi	# tmp96,
	movq	%rax, %rdi	# tmp97,
	call	mult_su3_nn	#
	.loc 1 49 0 discriminator 2
	leaq	-320(%rbp), %rdx	#, tmp98
	leaq	-464(%rbp), %rcx	#, tmp99
	movq	-472(%rbp), %rax	# link, tmp100
	movsd	-520(%rbp), %xmm0	# %sfp,
	movq	%rcx, %rsi	# tmp99,
	movq	%rax, %rdi	# tmp100,
	call	scalar_mult_add_su3_matrix	#
	.loc 1 50 0 discriminator 2
	leaq	-464(%rbp), %rdx	#, tmp101
	leaq	-320(%rbp), %rcx	#, tmp102
	leaq	-176(%rbp), %rax	#, tmp103
	movq	%rcx, %rsi	# tmp102,
	movq	%rax, %rdi	# tmp103,
	call	mult_su3_nn	#
	.loc 1 52 0 discriminator 2
	leaq	-320(%rbp), %rdx	#, tmp104
	leaq	-464(%rbp), %rcx	#, tmp105
	movq	-472(%rbp), %rax	# link, tmp106
	movsd	-512(%rbp), %xmm0	# %sfp,
	movq	%rcx, %rsi	# tmp105,
	movq	%rax, %rdi	# tmp106,
	call	scalar_mult_add_su3_matrix	#
	.loc 1 53 0 discriminator 2
	leaq	-464(%rbp), %rdx	#, tmp107
	leaq	-320(%rbp), %rcx	#, tmp108
	leaq	-176(%rbp), %rax	#, tmp109
	movq	%rcx, %rsi	# tmp108,
	movq	%rax, %rdi	# tmp109,
	call	mult_su3_nn	#
	.loc 1 55 0 discriminator 2
	leaq	-320(%rbp), %rdx	#, tmp110
	leaq	-464(%rbp), %rcx	#, tmp111
	movq	-472(%rbp), %rax	# link, tmp112
	movsd	-504(%rbp), %xmm0	# %sfp,
	movq	%rcx, %rsi	# tmp111,
	movq	%rax, %rdi	# tmp112,
	call	scalar_mult_add_su3_matrix	#
	.loc 1 56 0 discriminator 2
	leaq	-464(%rbp), %rdx	#, tmp113
	leaq	-320(%rbp), %rcx	#, tmp114
	leaq	-176(%rbp), %rax	#, tmp115
	movq	%rcx, %rsi	# tmp114,
	movq	%rax, %rdi	# tmp115,
	call	mult_su3_nn	#
	.loc 1 58 0 discriminator 2
	leaq	-320(%rbp), %rdx	#, tmp116
	leaq	-464(%rbp), %rcx	#, tmp117
	movq	-472(%rbp), %rax	# link, tmp118
	movsd	-496(%rbp), %xmm0	# %sfp,
	movq	%rcx, %rsi	# tmp117,
	movq	%rax, %rdi	# tmp118,
	call	scalar_mult_add_su3_matrix	#
	.loc 1 59 0 discriminator 2
	leaq	-464(%rbp), %rdx	#, tmp119
	leaq	-320(%rbp), %rcx	#, tmp120
	leaq	-176(%rbp), %rax	#, tmp121
	movq	%rcx, %rsi	# tmp120,
	movq	%rax, %rdi	# tmp121,
	call	mult_su3_nn	#
	.loc 1 60 0 discriminator 2
	leaq	-320(%rbp), %rdx	#, tmp122
	movq	-488(%rbp), %rax	# eps, tmp123
	leaq	-464(%rbp), %rsi	#, tmp124
	movq	-472(%rbp), %rcx	# link, tmp125
	movq	%rax, -536(%rbp)	# tmp123, %sfp
	movsd	-536(%rbp), %xmm0	# %sfp,
	movq	%rcx, %rdi	# tmp125,
	call	scalar_mult_add_su3_matrix	#
	.loc 1 61 0 discriminator 2
	movq	-472(%rbp), %rdx	# link, tmp126
	leaq	-320(%rbp), %rax	#, tmp127
	movq	%rdx, %rsi	# tmp126,
	movq	%rax, %rdi	# tmp127,
	call	su3mat_copy	#
	.loc 1 41 0 discriminator 2
	addl	$1, %ebx	#, dir
.L3:
	.loc 1 41 0 is_stmt 0 discriminator 1
	cmpl	$3, %ebx	#, dir
	jle	.L4	#,
	.loc 1 40 0 is_stmt 1
	addl	$1, %r13d	#, i
	addq	$2048, %r12	#, s
.L2:
	.loc 1 40 0 is_stmt 0 discriminator 1
	movl	sites_on_node(%rip), %eax	# sites_on_node, sites_on_node.0
	cmpl	%eax, %r13d	# sites_on_node.0, i
	jl	.L5	#,
	.loc 1 65 0 is_stmt 1
	movl	$0, valid_longlinks(%rip)	#, valid_longlinks
	.loc 1 66 0
	movl	$0, valid_fatlinks(%rip)	#, valid_fatlinks
	.loc 1 71 0
	addq	$520, %rsp	#,
	popq	%rbx	#
	popq	%r12	#
	popq	%r13	#
	popq	%rbp	#
	.cfi_def_cfa 7, 8
	ret
	.cfi_endproc
.LFE2:
	.size	update_u, .-update_u
	.section	.rodata
	.align 8
.LC0:
	.long	0
	.long	1073741824
	.align 8
.LC1:
	.long	0
	.long	1074266112
	.align 8
.LC2:
	.long	0
	.long	1074790400
	.align 8
.LC3:
	.long	0
	.long	1075052544
	.align 8
.LC4:
	.long	0
	.long	1075314688
	.text
.Letext0:
	.file 2 "complex.h"
	.file 3 "random.h"
	.file 4 "su3.h"
	.file 5 "lattice.h"
	.section	.note.GNU-stack,"",@progbits
