	.file	"io.c"
# GNU C (Ubuntu/Linaro 4.8.1-10ubuntu9) version 4.8.1 (x86_64-linux-gnu)
#	compiled by GNU C version 4.8.1, GMP version 5.1.2, MPFR version 3.1.1-p2, MPC version 1.0.1
# GGC heuristics: --param ggc-min-expand=100 --param ggc-min-heapsize=131072
# options passed:  -I . -I . -I libutil -imultiarch x86_64-linux-gnu
# -D SPEC_CPU -D NDEBUG -D SPEC_CPU -D HAVE_CONFIG_H -D SPEC_CPU_LP64 io.c
# -mtune=generic -march=x86-64 -g -fverbose-asm -fno-strict-aliasing
# -fstack-protector -Wformat -Wformat-security
# options enabled:  -faggressive-loop-optimizations
# -fasynchronous-unwind-tables -fauto-inc-dec -fbranch-count-reg -fcommon
# -fdelete-null-pointer-checks -fdwarf2-cfi-asm -fearly-inlining
# -feliminate-unused-debug-types -ffunction-cse -fgcse-lm -fgnu-runtime
# -fident -finline-atomics -fira-hoist-pressure -fira-share-save-slots
# -fira-share-spill-slots -fivopts -fkeep-static-consts
# -fleading-underscore -fmath-errno -fmerge-debug-strings
# -fmove-loop-invariants -fpeephole -fprefetch-loop-arrays
# -freg-struct-return -fsched-critical-path-heuristic
# -fsched-dep-count-heuristic -fsched-group-heuristic -fsched-interblock
# -fsched-last-insn-heuristic -fsched-rank-heuristic -fsched-spec
# -fsched-spec-insn-heuristic -fsched-stalled-insns-dep -fshow-column
# -fsigned-zeros -fsplit-ivs-in-unroller -fstack-protector
# -fstrict-volatile-bitfields -fsync-libcalls -ftrapping-math
# -ftree-coalesce-vars -ftree-cselim -ftree-forwprop -ftree-loop-if-convert
# -ftree-loop-im -ftree-loop-ivcanon -ftree-loop-optimize
# -ftree-parallelize-loops= -ftree-phiprop -ftree-pta -ftree-reassoc
# -ftree-scev-cprop -ftree-slp-vectorize -ftree-vect-loop-version
# -funit-at-a-time -funwind-tables -fverbose-asm -fzero-initialized-in-bss
# -m128bit-long-double -m64 -m80387 -maccumulate-outgoing-args
# -malign-stringops -mfancy-math-387 -mfp-ret-in-387 -mfxsr -mglibc
# -mieee-fp -mlong-double-80 -mmmx -mno-sse4 -mpush-args -mred-zone -msse
# -msse2 -mtls-direct-seg-refs

	.text
.Ltext0:
	.section	.rodata
.LC0:
	.string	".Z"
.LC1:
	.string	".z"
.LC2:
	.string	".gz"
.LC3:
	.string	".GZ"
.LC4:
	.string	"r"
.LC5:
	.string	"gunzip -c %s"
.LC6:
	.string	"zcat %s"
.LC7:
	.string	"SYSTEM_ERROR"
.LC8:
	.string	"io.c"
.LC9:
	.string	"popen (%s,%s) failed\n"
.LC10:
	.string	"w"
.LC11:
	.string	"gzip > %s"
.LC12:
	.string	"compress -c > %s"
.LC13:
	.string	"ERROR"
	.align 8
.LC14:
	.string	"fopen_comp not implemented for mode = %s\n"
	.text
	.globl	fopen_comp
	.type	fopen_comp, @function
fopen_comp:
.LFB2:
	.file 1 "io.c"
	.loc 1 72 0
	.cfi_startproc
	pushq	%rbp	#
	.cfi_def_cfa_offset 16
	.cfi_offset 6, -16
	movq	%rsp, %rbp	#,
	.cfi_def_cfa_register 6
	subq	$16448, %rsp	#,
	movq	%rdi, -16424(%rbp)	# file, file
	movq	%rsi, -16432(%rbp)	# mode, mode
	movq	%rdx, -16440(%rbp)	# ispipe, ispipe
	.loc 1 72 0
	movq	%fs:40, %rax	#, tmp119
	movq	%rax, -8(%rbp)	# tmp119, D.3828
	xorl	%eax, %eax	# tmp119
	.loc 1 77 0
	movq	-16424(%rbp), %rax	# file, tmp81
	movq	%rax, %rdi	# tmp81,
	call	strlen	#
	movl	%eax, -16412(%rbp)	# D.3824, k
	.loc 1 84 0
	movq	-16440(%rbp), %rax	# ispipe, tmp82
	movl	$0, (%rax)	#, *ispipe_7(D)
	.loc 1 85 0
	movl	$0, -16416(%rbp)	#, isgz
	.loc 1 86 0
	cmpl	$2, -16412(%rbp)	#, k
	jle	.L2	#,
	.loc 1 86 0 is_stmt 0 discriminator 1
	movl	-16412(%rbp), %eax	# k, tmp83
	cltq
	leaq	-2(%rax), %rdx	#, D.3825
	movq	-16424(%rbp), %rax	# file, tmp84
	addq	%rdx, %rax	# D.3825, D.3826
	movl	$.LC0, %esi	#,
	movq	%rax, %rdi	# D.3826,
	call	strcmp	#
	testl	%eax, %eax	# D.3827
	je	.L3	#,
	movl	-16412(%rbp), %eax	# k, tmp85
	cltq
	leaq	-2(%rax), %rdx	#, D.3825
	movq	-16424(%rbp), %rax	# file, tmp86
	addq	%rdx, %rax	# D.3825, D.3826
	movl	$.LC1, %esi	#,
	movq	%rax, %rdi	# D.3826,
	call	strcmp	#
	testl	%eax, %eax	# D.3827
	jne	.L2	#,
.L3:
	.loc 1 87 0 is_stmt 1
	movq	-16440(%rbp), %rax	# ispipe, tmp87
	movl	$1, (%rax)	#, *ispipe_7(D)
	jmp	.L4	#
.L2:
	.loc 1 89 0
	cmpl	$3, -16412(%rbp)	#, k
	jle	.L4	#,
	.loc 1 90 0 discriminator 1
	movl	-16412(%rbp), %eax	# k, tmp88
	cltq
	leaq	-3(%rax), %rdx	#, D.3825
	movq	-16424(%rbp), %rax	# file, tmp89
	addq	%rdx, %rax	# D.3825, D.3826
	movl	$.LC2, %esi	#,
	movq	%rax, %rdi	# D.3826,
	call	strcmp	#
	.loc 1 89 0 discriminator 1
	testl	%eax, %eax	# D.3827
	je	.L5	#,
	.loc 1 90 0
	movl	-16412(%rbp), %eax	# k, tmp90
	cltq
	leaq	-3(%rax), %rdx	#, D.3825
	movq	-16424(%rbp), %rax	# file, tmp91
	addq	%rdx, %rax	# D.3825, D.3826
	movl	$.LC3, %esi	#,
	movq	%rax, %rdi	# D.3826,
	call	strcmp	#
	testl	%eax, %eax	# D.3827
	jne	.L4	#,
.L5:
	.loc 1 91 0
	movq	-16440(%rbp), %rax	# ispipe, tmp92
	movl	$1, (%rax)	#, *ispipe_7(D)
	.loc 1 92 0
	movl	$1, -16416(%rbp)	#, isgz
.L4:
	.loc 1 97 0
	movq	-16440(%rbp), %rax	# ispipe, tmp93
	movl	(%rax), %eax	# *ispipe_7(D), D.3827
	testl	%eax, %eax	# D.3827
	je	.L6	#,
	.loc 1 110 0
	movq	-16432(%rbp), %rax	# mode, tmp94
	movl	$.LC4, %esi	#,
	movq	%rax, %rdi	# tmp94,
	call	strcmp	#
	testl	%eax, %eax	# D.3827
	jne	.L7	#,
	.loc 1 111 0
	cmpl	$0, -16416(%rbp)	#, isgz
	je	.L8	#,
	.loc 1 112 0
	movq	-16424(%rbp), %rdx	# file, tmp95
	leaq	-16400(%rbp), %rax	#, tmp96
	movl	$.LC5, %esi	#,
	movq	%rax, %rdi	# tmp96,
	movl	$0, %eax	#,
	call	sprintf	#
	jmp	.L9	#
.L8:
	.loc 1 114 0
	movq	-16424(%rbp), %rdx	# file, tmp97
	leaq	-16400(%rbp), %rax	#, tmp98
	movl	$.LC6, %esi	#,
	movq	%rax, %rdi	# tmp98,
	movl	$0, %eax	#,
	call	sprintf	#
.L9:
	.loc 1 116 0
	movq	-16432(%rbp), %rdx	# mode, tmp99
	leaq	-16400(%rbp), %rax	#, tmp100
	movq	%rdx, %rsi	# tmp99,
	movq	%rax, %rdi	# tmp100,
	call	popen	#
	movq	%rax, -16408(%rbp)	# tmp101, fp
	cmpq	$0, -16408(%rbp)	#, fp
	jne	.L10	#,
	.loc 1 117 0
	movl	$.LC7, %edx	#,
	movl	$117, %esi	#,
	movl	$.LC8, %edi	#,
	call	_E__pr_header	#
	movq	-16432(%rbp), %rdx	# mode, tmp102
	leaq	-16400(%rbp), %rax	#, tmp103
	movq	%rax, %rsi	# tmp103,
	movl	$.LC9, %edi	#,
	movl	$0, %eax	#,
	call	_E__sys_error	#
	.loc 1 118 0
	movl	$0, %eax	#, D.3823
	jmp	.L15	#
.L7:
	.loc 1 120 0
	movq	-16432(%rbp), %rax	# mode, tmp104
	movl	$.LC10, %esi	#,
	movq	%rax, %rdi	# tmp104,
	call	strcmp	#
	testl	%eax, %eax	# D.3827
	jne	.L12	#,
	.loc 1 121 0
	cmpl	$0, -16416(%rbp)	#, isgz
	je	.L13	#,
	.loc 1 122 0
	movq	-16424(%rbp), %rdx	# file, tmp105
	leaq	-16400(%rbp), %rax	#, tmp106
	movl	$.LC11, %esi	#,
	movq	%rax, %rdi	# tmp106,
	movl	$0, %eax	#,
	call	sprintf	#
	jmp	.L14	#
.L13:
	.loc 1 124 0
	movq	-16424(%rbp), %rdx	# file, tmp107
	leaq	-16400(%rbp), %rax	#, tmp108
	movl	$.LC12, %esi	#,
	movq	%rax, %rdi	# tmp108,
	movl	$0, %eax	#,
	call	sprintf	#
.L14:
	.loc 1 126 0
	movq	-16432(%rbp), %rdx	# mode, tmp109
	leaq	-16400(%rbp), %rax	#, tmp110
	movq	%rdx, %rsi	# tmp109,
	movq	%rax, %rdi	# tmp110,
	call	popen	#
	movq	%rax, -16408(%rbp)	# tmp111, fp
	cmpq	$0, -16408(%rbp)	#, fp
	jne	.L10	#,
	.loc 1 127 0
	movl	$.LC7, %edx	#,
	movl	$127, %esi	#,
	movl	$.LC8, %edi	#,
	call	_E__pr_header	#
	movq	-16432(%rbp), %rdx	# mode, tmp112
	leaq	-16400(%rbp), %rax	#, tmp113
	movq	%rax, %rsi	# tmp113,
	movl	$.LC9, %edi	#,
	movl	$0, %eax	#,
	call	_E__sys_error	#
	.loc 1 128 0
	movl	$0, %eax	#, D.3823
	jmp	.L15	#
.L12:
	.loc 1 131 0
	movl	$.LC13, %edx	#,
	movl	$131, %esi	#,
	movl	$.LC8, %edi	#,
	call	_E__pr_header	#
	movq	-16432(%rbp), %rax	# mode, tmp114
	movq	%rax, %rsi	# tmp114,
	movl	$.LC14, %edi	#,
	movl	$0, %eax	#,
	call	_E__pr_warn	#
	.loc 1 132 0
	movl	$0, %eax	#, D.3823
	jmp	.L15	#
.L6:
	.loc 1 136 0
	movq	-16432(%rbp), %rdx	# mode, tmp115
	movq	-16424(%rbp), %rax	# file, tmp116
	movq	%rdx, %rsi	# tmp115,
	movq	%rax, %rdi	# tmp116,
	call	fopen	#
	movq	%rax, -16408(%rbp)	# tmp117, fp
.L10:
	.loc 1 139 0
	movq	-16408(%rbp), %rax	# fp, D.3823
.L15:
	.loc 1 140 0
	movq	-8(%rbp), %rcx	# D.3828, tmp120
	xorq	%fs:40, %rcx	#, tmp120
	je	.L16	#,
	call	__stack_chk_fail	#
.L16:
	leave
	.cfi_def_cfa 7, 8
	ret
	.cfi_endproc
.LFE2:
	.size	fopen_comp, .-fopen_comp
	.globl	fclose_comp
	.type	fclose_comp, @function
fclose_comp:
.LFB3:
	.loc 1 144 0
	.cfi_startproc
	pushq	%rbp	#
	.cfi_def_cfa_offset 16
	.cfi_offset 6, -16
	movq	%rsp, %rbp	#,
	.cfi_def_cfa_register 6
	subq	$16, %rsp	#,
	movq	%rdi, -8(%rbp)	# fp, fp
	movl	%esi, -12(%rbp)	# ispipe, ispipe
	.loc 1 145 0
	cmpl	$0, -12(%rbp)	#, ispipe
	je	.L18	#,
	.loc 1 149 0
	movq	-8(%rbp), %rax	# fp, tmp59
	movq	%rax, %rdi	# tmp59,
	call	pclose	#
	jmp	.L17	#
.L18:
	.loc 1 152 0
	movq	-8(%rbp), %rax	# fp, tmp60
	movq	%rax, %rdi	# tmp60,
	call	fclose	#
.L17:
	.loc 1 153 0
	leave
	.cfi_def_cfa 7, 8
	ret
	.cfi_endproc
.LFE3:
	.size	fclose_comp, .-fclose_comp
	.section	.rodata
.LC15:
	.string	"stat(%s) failed\n"
.LC16:
	.string	"WARNING"
.LC17:
	.string	"Using %s instead of %s\n"
	.text
	.globl	fopen_compchk
	.type	fopen_compchk, @function
fopen_compchk:
.LFB4:
	.loc 1 157 0
	.cfi_startproc
	pushq	%rbp	#
	.cfi_def_cfa_offset 16
	.cfi_offset 6, -16
	movq	%rsp, %rbp	#,
	.cfi_def_cfa_register 6
	subq	$16576, %rsp	#,
	movq	%rdi, -16568(%rbp)	# file, file
	movq	%rsi, -16576(%rbp)	# ispipe, ispipe
	.loc 1 157 0
	movq	%fs:40, %rax	#, tmp126
	movq	%rax, -8(%rbp)	# tmp126, D.3851
	xorl	%eax, %eax	# tmp126
	.loc 1 162 0
	movq	-16568(%rbp), %rax	# file, tmp89
	movq	%rax, %rdi	# tmp89,
	call	strlen	#
	movl	%eax, -16548(%rbp)	# D.3847, k
	.loc 1 169 0
	movq	-16576(%rbp), %rax	# ispipe, tmp90
	movl	$0, (%rax)	#, *ispipe_6(D)
	.loc 1 170 0
	movl	$0, -16552(%rbp)	#, isgz
	.loc 1 171 0
	cmpl	$2, -16548(%rbp)	#, k
	jle	.L21	#,
	.loc 1 171 0 is_stmt 0 discriminator 1
	movl	-16548(%rbp), %eax	# k, tmp91
	cltq
	leaq	-2(%rax), %rdx	#, D.3848
	movq	-16568(%rbp), %rax	# file, tmp92
	addq	%rdx, %rax	# D.3848, D.3849
	movl	$.LC0, %esi	#,
	movq	%rax, %rdi	# D.3849,
	call	strcmp	#
	testl	%eax, %eax	# D.3850
	je	.L22	#,
	movl	-16548(%rbp), %eax	# k, tmp93
	cltq
	leaq	-2(%rax), %rdx	#, D.3848
	movq	-16568(%rbp), %rax	# file, tmp94
	addq	%rdx, %rax	# D.3848, D.3849
	movl	$.LC1, %esi	#,
	movq	%rax, %rdi	# D.3849,
	call	strcmp	#
	testl	%eax, %eax	# D.3850
	jne	.L21	#,
.L22:
	.loc 1 172 0 is_stmt 1
	movq	-16576(%rbp), %rax	# ispipe, tmp95
	movl	$1, (%rax)	#, *ispipe_6(D)
	jmp	.L23	#
.L21:
	.loc 1 174 0
	cmpl	$3, -16548(%rbp)	#, k
	jle	.L23	#,
	.loc 1 175 0 discriminator 1
	movl	-16548(%rbp), %eax	# k, tmp96
	cltq
	leaq	-3(%rax), %rdx	#, D.3848
	movq	-16568(%rbp), %rax	# file, tmp97
	addq	%rdx, %rax	# D.3848, D.3849
	movl	$.LC2, %esi	#,
	movq	%rax, %rdi	# D.3849,
	call	strcmp	#
	.loc 1 174 0 discriminator 1
	testl	%eax, %eax	# D.3850
	je	.L24	#,
	.loc 1 175 0
	movl	-16548(%rbp), %eax	# k, tmp98
	cltq
	leaq	-3(%rax), %rdx	#, D.3848
	movq	-16568(%rbp), %rax	# file, tmp99
	addq	%rdx, %rax	# D.3848, D.3849
	movl	$.LC3, %esi	#,
	movq	%rax, %rdi	# D.3849,
	call	strcmp	#
	testl	%eax, %eax	# D.3850
	jne	.L23	#,
.L24:
	.loc 1 176 0
	movq	-16576(%rbp), %rax	# ispipe, tmp100
	movl	$1, (%rax)	#, *ispipe_6(D)
	.loc 1 177 0
	movl	$1, -16552(%rbp)	#, isgz
.L23:
	.loc 1 182 0
	movq	-16568(%rbp), %rdx	# file, tmp101
	leaq	-16400(%rbp), %rax	#, tmp102
	movq	%rdx, %rsi	# tmp101,
	movq	%rax, %rdi	# tmp102,
	call	strcpy	#
	.loc 1 183 0
	leaq	-16544(%rbp), %rdx	#, tmp103
	leaq	-16400(%rbp), %rax	#, tmp104
	movq	%rdx, %rsi	# tmp103,
	movq	%rax, %rdi	# tmp104,
	call	stat	#
	testl	%eax, %eax	# D.3850
	je	.L25	#,
	.loc 1 185 0
	movl	$.LC7, %edx	#,
	movl	$185, %esi	#,
	movl	$.LC8, %edi	#,
	call	_E__pr_header	#
	leaq	-16400(%rbp), %rax	#, tmp105
	movq	%rax, %rsi	# tmp105,
	movl	$.LC15, %edi	#,
	movl	$0, %eax	#,
	call	_E__sys_error	#
	.loc 1 187 0
	movq	-16576(%rbp), %rax	# ispipe, tmp106
	movl	(%rax), %eax	# *ispipe_6(D), D.3850
	testl	%eax, %eax	# D.3850
	je	.L26	#,
	.loc 1 188 0
	cmpl	$0, -16552(%rbp)	#, isgz
	je	.L27	#,
	.loc 1 189 0
	movl	-16548(%rbp), %eax	# k, tmp107
	subl	$3, %eax	#, D.3850
	cltq
	movb	$0, -16400(%rbp,%rax)	#, tmpfile
	jmp	.L28	#
.L27:
	.loc 1 191 0
	movl	-16548(%rbp), %eax	# k, tmp109
	subl	$2, %eax	#, D.3850
	cltq
	movb	$0, -16400(%rbp,%rax)	#, tmpfile
.L28:
	.loc 1 193 0
	leaq	-16544(%rbp), %rdx	#, tmp111
	leaq	-16400(%rbp), %rax	#, tmp112
	movq	%rdx, %rsi	# tmp111,
	movq	%rax, %rdi	# tmp112,
	call	stat	#
	testl	%eax, %eax	# D.3850
	je	.L29	#,
	.loc 1 194 0
	movl	$0, %eax	#, D.3846
	jmp	.L31	#
.L26:
	.loc 1 196 0
	movl	-16548(%rbp), %eax	# k, tmp113
	cltq
	leaq	-16400(%rbp), %rdx	#, tmp114
	addq	%rdx, %rax	# tmp114, D.3849
	movl	$8021806, (%rax)	#, MEM[(void *)_32]
	.loc 1 197 0
	leaq	-16544(%rbp), %rdx	#, tmp115
	leaq	-16400(%rbp), %rax	#, tmp116
	movq	%rdx, %rsi	# tmp115,
	movq	%rax, %rdi	# tmp116,
	call	stat	#
	testl	%eax, %eax	# D.3850
	je	.L29	#,
	.loc 1 199 0
	movl	-16548(%rbp), %eax	# k, tmp117
	cltq
	leaq	-16400(%rbp), %rdx	#, tmp118
	addq	%rdx, %rax	# tmp118, D.3849
	movw	$23086, (%rax)	#, MEM[(void *)_35]
	movb	$0, 2(%rax)	#, MEM[(void *)_35]
	.loc 1 200 0
	leaq	-16544(%rbp), %rdx	#, tmp119
	leaq	-16400(%rbp), %rax	#, tmp120
	movq	%rdx, %rsi	# tmp119,
	movq	%rax, %rdi	# tmp120,
	call	stat	#
	testl	%eax, %eax	# D.3850
	je	.L29	#,
	.loc 1 201 0
	movl	$0, %eax	#, D.3846
	jmp	.L31	#
.L29:
	.loc 1 208 0
	movl	$.LC16, %edx	#,
	movl	$208, %esi	#,
	movl	$.LC8, %edi	#,
	call	_E__pr_header	#
	movq	-16568(%rbp), %rdx	# file, tmp121
	leaq	-16400(%rbp), %rax	#, tmp122
	movq	%rax, %rsi	# tmp122,
	movl	$.LC17, %edi	#,
	movl	$0, %eax	#,
	call	_E__pr_warn	#
.L25:
	.loc 1 211 0
	movq	-16576(%rbp), %rdx	# ispipe, tmp123
	leaq	-16400(%rbp), %rax	#, tmp124
	movl	$.LC4, %esi	#,
	movq	%rax, %rdi	# tmp124,
	call	fopen_comp	#
.L31:
	.loc 1 212 0
	movq	-8(%rbp), %rcx	# D.3851, tmp127
	xorq	%fs:40, %rcx	#, tmp127
	je	.L32	#,
	call	__stack_chk_fail	#
.L32:
	leave
	.cfi_def_cfa 7, 8
	ret
	.cfi_endproc
.LFE4:
	.size	fopen_compchk, .-fopen_compchk
	.section	.rodata
.LC18:
	.string	"fread() failed; retrying...\n"
	.text
	.globl	fread_retry
	.type	fread_retry, @function
fread_retry:
.LFB5:
	.loc 1 218 0
	.cfi_startproc
	pushq	%rbp	#
	.cfi_def_cfa_offset 16
	.cfi_offset 6, -16
	movq	%rsp, %rbp	#,
	.cfi_def_cfa_register 6
	subq	$64, %rsp	#,
	movq	%rdi, -40(%rbp)	# pointer, pointer
	movl	%esi, -44(%rbp)	# size, size
	movl	%edx, -48(%rbp)	# num_items, num_items
	movq	%rcx, -56(%rbp)	# stream, stream
	.loc 1 225 0
	movl	$60, -20(%rbp)	#, n_retry_rem
	.loc 1 227 0
	movq	-40(%rbp), %rax	# pointer, tmp70
	movq	%rax, -8(%rbp)	# tmp70, data
	.loc 1 228 0
	movl	$0, -16(%rbp)	#, loc
	.loc 1 229 0
	movl	-48(%rbp), %eax	# num_items, tmp71
	movl	%eax, -24(%rbp)	# tmp71, n_items_rem
.L38:
	.loc 1 232 0
	movl	-24(%rbp), %edx	# n_items_rem, D.3856
	movl	-44(%rbp), %eax	# size, tmp72
	cltq
	movl	-16(%rbp), %ecx	# loc, tmp73
	movslq	%ecx, %rsi	# tmp73, D.3857
	movq	-8(%rbp), %rcx	# data, tmp74
	leaq	(%rsi,%rcx), %rdi	#, D.3858
	movq	-56(%rbp), %rcx	# stream, tmp75
	movq	%rax, %rsi	# D.3856,
	call	fread	#
	movl	%eax, -12(%rbp)	# D.3856, n_items_read
	.loc 1 234 0
	movl	-12(%rbp), %eax	# n_items_read, tmp76
	subl	%eax, -24(%rbp)	# tmp76, n_items_rem
	.loc 1 236 0
	cmpl	$0, -24(%rbp)	#, n_items_rem
	je	.L34	#,
	.loc 1 239 0
	cmpl	$0, -20(%rbp)	#, n_retry_rem
	jne	.L35	#,
	.loc 1 240 0
	movl	$-1, %eax	#, D.3855
	jmp	.L36	#
.L35:
	.loc 1 242 0
	cmpl	$60, -20(%rbp)	#, n_retry_rem
	jne	.L37	#,
	.loc 1 243 0
	movl	$.LC7, %edx	#,
	movl	$243, %esi	#,
	movl	$.LC8, %edi	#,
	call	_E__pr_header	#
	movl	$.LC18, %edi	#,
	movl	$0, %eax	#,
	call	_E__sys_error	#
.L37:
	.loc 1 246 0
	subl	$1, -20(%rbp)	#, n_retry_rem
	.loc 1 248 0
	movl	-44(%rbp), %eax	# size, size.0
	imull	-12(%rbp), %eax	# n_items_read, D.3859
	movl	%eax, %edx	# D.3859, D.3859
	movl	-16(%rbp), %eax	# loc, loc.1
	addl	%edx, %eax	# D.3859, D.3859
	movl	%eax, -16(%rbp)	# D.3859, loc
	.loc 1 250 0
	movl	$1, %edi	#,
	call	sleep	#
.L34:
	.loc 1 253 0
	cmpl	$0, -24(%rbp)	#, n_items_rem
	jne	.L38	#,
	.loc 1 255 0
	movl	-48(%rbp), %eax	# num_items, D.3855
.L36:
	.loc 1 256 0
	leave
	.cfi_def_cfa 7, 8
	ret
	.cfi_endproc
.LFE5:
	.size	fread_retry, .-fread_retry
	.section	.rodata
.LC19:
	.string	"stat(%s) failed; retrying...\n"
	.text
	.globl	stat_retry
	.type	stat_retry, @function
stat_retry:
.LFB6:
	.loc 1 262 0
	.cfi_startproc
	pushq	%rbp	#
	.cfi_def_cfa_offset 16
	.cfi_offset 6, -16
	movq	%rsp, %rbp	#,
	.cfi_def_cfa_register 6
	subq	$32, %rsp	#,
	movq	%rdi, -24(%rbp)	# file, file
	movq	%rsi, -32(%rbp)	# statbuf, statbuf
	.loc 1 265 0
	movl	$0, -4(%rbp)	#, i
	jmp	.L40	#
.L44:
	.loc 1 266 0
	movq	-32(%rbp), %rdx	# statbuf, tmp62
	movq	-24(%rbp), %rax	# file, tmp63
	movq	%rdx, %rsi	# tmp62,
	movq	%rax, %rdi	# tmp63,
	call	stat	#
	testl	%eax, %eax	# D.3862
	jne	.L41	#,
	.loc 1 267 0
	movl	$0, %eax	#, D.3861
	jmp	.L42	#
.L41:
	.loc 1 269 0
	cmpl	$0, -4(%rbp)	#, i
	jne	.L43	#,
	.loc 1 270 0
	movl	$.LC7, %edx	#,
	movl	$270, %esi	#,
	movl	$.LC8, %edi	#,
	call	_E__pr_header	#
	movq	-24(%rbp), %rax	# file, tmp64
	movq	%rax, %rsi	# tmp64,
	movl	$.LC19, %edi	#,
	movl	$0, %eax	#,
	call	_E__sys_error	#
.L43:
	.loc 1 273 0
	movl	$10, %edi	#,
	call	sleep	#
	.loc 1 265 0
	addl	$1, -4(%rbp)	#, i
.L40:
	.loc 1 265 0 is_stmt 0 discriminator 1
	cmpl	$9, -4(%rbp)	#, i
	jle	.L44	#,
	.loc 1 277 0 is_stmt 1
	movl	$-1, %eax	#, D.3861
.L42:
	.loc 1 278 0
	leave
	.cfi_def_cfa 7, 8
	ret
	.cfi_endproc
.LFE6:
	.size	stat_retry, .-stat_retry
	.globl	stat_mtime
	.type	stat_mtime, @function
stat_mtime:
.LFB7:
	.loc 1 282 0
	.cfi_startproc
	pushq	%rbp	#
	.cfi_def_cfa_offset 16
	.cfi_offset 6, -16
	movq	%rsp, %rbp	#,
	.cfi_def_cfa_register 6
	subq	$160, %rsp	#,
	movq	%rdi, -152(%rbp)	# file, file
	.loc 1 285 0
	leaq	-144(%rbp), %rdx	#, tmp63
	movq	-152(%rbp), %rax	# file, tmp64
	movq	%rdx, %rsi	# tmp63,
	movq	%rax, %rdi	# tmp64,
	call	stat	#
	testl	%eax, %eax	# D.3865
	je	.L46	#,
	.loc 1 286 0
	movl	$-1, %eax	#, D.3864
	jmp	.L48	#
.L46:
	.loc 1 288 0
	movq	-56(%rbp), %rax	# statbuf.st_mtim.tv_sec, D.3866
.L48:
	.loc 1 289 0
	leave
	.cfi_def_cfa 7, 8
	ret
	.cfi_endproc
.LFE7:
	.size	stat_mtime, .-stat_mtime
	.section	.rodata
	.align 8
.LC20:
	.string	"FATAL_ERROR: \"%s\", line %d: fopen(%s,%s) failed; "
.LC21:
	.string	""
	.text
	.globl	_myfopen
	.type	_myfopen, @function
_myfopen:
.LFB8:
	.loc 1 293 0
	.cfi_startproc
	pushq	%rbp	#
	.cfi_def_cfa_offset 16
	.cfi_offset 6, -16
	movq	%rsp, %rbp	#,
	.cfi_def_cfa_register 6
	subq	$48, %rsp	#,
	movq	%rdi, -24(%rbp)	# file, file
	movq	%rsi, -32(%rbp)	# mode, mode
	movq	%rdx, -40(%rbp)	# pgm, pgm
	movl	%ecx, -44(%rbp)	# line, line
	.loc 1 296 0
	movq	-32(%rbp), %rdx	# mode, tmp66
	movq	-24(%rbp), %rax	# file, tmp67
	movq	%rdx, %rsi	# tmp66,
	movq	%rax, %rdi	# tmp67,
	call	fopen	#
	movq	%rax, -8(%rbp)	# tmp68, fp
	cmpq	$0, -8(%rbp)	#, fp
	jne	.L50	#,
	.loc 1 297 0
	movq	stdout(%rip), %rax	# stdout, stdout.2
	movq	%rax, %rdi	# stdout.2,
	call	fflush	#
	.loc 1 298 0
	movq	stderr(%rip), %rax	# stderr, stderr.3
	movq	-32(%rbp), %rdi	# mode, tmp69
	movq	-24(%rbp), %rsi	# file, tmp70
	movl	-44(%rbp), %ecx	# line, tmp71
	movq	-40(%rbp), %rdx	# pgm, tmp72
	movq	%rdi, %r9	# tmp69,
	movq	%rsi, %r8	# tmp70,
	movl	$.LC20, %esi	#,
	movq	%rax, %rdi	# stderr.3,
	movl	$0, %eax	#,
	call	fprintf	#
	.loc 1 300 0
	movl	$.LC21, %edi	#,
	call	perror	#
	.loc 1 301 0
	movq	stderr(%rip), %rax	# stderr, stderr.4
	movq	%rax, %rdi	# stderr.4,
	call	fflush	#
	.loc 1 303 0
	call	__errno_location	#
	movl	(%rax), %eax	# *_9, D.3868
	movl	%eax, %edi	# D.3868,
	call	exit	#
.L50:
	.loc 1 306 0
	movq	-8(%rbp), %rax	# fp, D.3869
	.loc 1 307 0
	leave
	.cfi_def_cfa 7, 8
	ret
	.cfi_endproc
.LFE8:
	.size	_myfopen, .-_myfopen
.Letext0:
	.file 2 "/usr/lib/gcc/x86_64-linux-gnu/4.8/include/stddef.h"
	.file 3 "/usr/include/x86_64-linux-gnu/bits/types.h"
	.file 4 "/usr/include/stdio.h"
	.file 5 "/usr/include/libio.h"
	.file 6 "/usr/include/time.h"
	.file 7 "/usr/include/x86_64-linux-gnu/bits/stat.h"
	.file 8 "libutil/prim_type.h"
	.section	.note.GNU-stack,"",@progbits
