	.file	"profile.c"
# GNU C (Ubuntu/Linaro 4.8.1-10ubuntu9) version 4.8.1 (x86_64-linux-gnu)
#	compiled by GNU C version 4.8.1, GMP version 5.1.2, MPFR version 3.1.1-p2, MPC version 1.0.1
# GGC heuristics: --param ggc-min-expand=100 --param ggc-min-heapsize=131072
# options passed:  -I . -I . -I libutil -imultiarch x86_64-linux-gnu
# -D SPEC_CPU -D NDEBUG -D SPEC_CPU -D HAVE_CONFIG_H -D SPEC_CPU_LP64
# profile.c -mtune=generic -march=x86-64 -g -fverbose-asm
# -fno-strict-aliasing -fstack-protector -Wformat -Wformat-security
# options enabled:  -faggressive-loop-optimizations
# -fasynchronous-unwind-tables -fauto-inc-dec -fbranch-count-reg -fcommon
# -fdelete-null-pointer-checks -fdwarf2-cfi-asm -fearly-inlining
# -feliminate-unused-debug-types -ffunction-cse -fgcse-lm -fgnu-runtime
# -fident -finline-atomics -fira-hoist-pressure -fira-share-save-slots
# -fira-share-spill-slots -fivopts -fkeep-static-consts
# -fleading-underscore -fmath-errno -fmerge-debug-strings
# -fmove-loop-invariants -fpeephole -fprefetch-loop-arrays
# -freg-struct-return -fsched-critical-path-heuristic
# -fsched-dep-count-heuristic -fsched-group-heuristic -fsched-interblock
# -fsched-last-insn-heuristic -fsched-rank-heuristic -fsched-spec
# -fsched-spec-insn-heuristic -fsched-stalled-insns-dep -fshow-column
# -fsigned-zeros -fsplit-ivs-in-unroller -fstack-protector
# -fstrict-volatile-bitfields -fsync-libcalls -ftrapping-math
# -ftree-coalesce-vars -ftree-cselim -ftree-forwprop -ftree-loop-if-convert
# -ftree-loop-im -ftree-loop-ivcanon -ftree-loop-optimize
# -ftree-parallelize-loops= -ftree-phiprop -ftree-pta -ftree-reassoc
# -ftree-scev-cprop -ftree-slp-vectorize -ftree-vect-loop-version
# -funit-at-a-time -funwind-tables -fverbose-asm -fzero-initialized-in-bss
# -m128bit-long-double -m64 -m80387 -maccumulate-outgoing-args
# -malign-stringops -mfancy-math-387 -mfp-ret-in-387 -mfxsr -mglibc
# -mieee-fp -mlong-double-80 -mmmx -mno-sse4 -mpush-args -mred-zone -msse
# -msse2 -mtls-direct-seg-refs

	.text
.Ltext0:
	.globl	pctr_reset
	.type	pctr_reset, @function
pctr_reset:
.LFB2:
	.file 1 "profile.c"
	.loc 1 79 0
	.cfi_startproc
	pushq	%rbp	#
	.cfi_def_cfa_offset 16
	.cfi_offset 6, -16
	movq	%rsp, %rbp	#,
	.cfi_def_cfa_register 6
	movq	%rdi, -8(%rbp)	# ctr, ctr
	.loc 1 80 0
	movq	-8(%rbp), %rax	# ctr, tmp59
	movl	$0, 8(%rax)	#, ctr_1(D)->count
	.loc 1 81 0
	popq	%rbp	#
	.cfi_def_cfa 7, 8
	ret
	.cfi_endproc
.LFE2:
	.size	pctr_reset, .-pctr_reset
	.globl	pctr_reset_all
	.type	pctr_reset_all, @function
pctr_reset_all:
.LFB3:
	.loc 1 85 0
	.cfi_startproc
	pushq	%rbp	#
	.cfi_def_cfa_offset 16
	.cfi_offset 6, -16
	movq	%rsp, %rbp	#,
	.cfi_def_cfa_register 6
	subq	$8, %rsp	#,
	movq	%rdi, -8(%rbp)	# ctr, ctr
	.loc 1 86 0
	jmp	.L3	#
.L4:
	.loc 1 87 0 discriminator 2
	movq	-8(%rbp), %rax	# ctr, tmp60
	movq	%rax, %rdi	# tmp60,
	call	pctr_reset	#
	.loc 1 86 0 discriminator 2
	addq	$16, -8(%rbp)	#, ctr
.L3:
	.loc 1 86 0 is_stmt 0 discriminator 1
	movq	-8(%rbp), %rax	# ctr, tmp61
	movq	(%rax), %rax	# ctr_1->name, D.3777
	testq	%rax, %rax	# D.3777
	jne	.L4	#,
	.loc 1 88 0 is_stmt 1
	leave
	.cfi_def_cfa 7, 8
	ret
	.cfi_endproc
.LFE3:
	.size	pctr_reset_all, .-pctr_reset_all
	.section	.rodata
.LC0:
	.string	"CTR:"
.LC1:
	.string	"  %d %s"
	.text
	.globl	pctr_print_all
	.type	pctr_print_all, @function
pctr_print_all:
.LFB4:
	.loc 1 92 0
	.cfi_startproc
	pushq	%rbp	#
	.cfi_def_cfa_offset 16
	.cfi_offset 6, -16
	movq	%rsp, %rbp	#,
	.cfi_def_cfa_register 6
	subq	$16, %rsp	#,
	movq	%rdi, -8(%rbp)	# fp, fp
	movq	%rsi, -16(%rbp)	# ctr, ctr
	.loc 1 93 0
	movq	-16(%rbp), %rax	# ctr, tmp63
	movq	(%rax), %rax	# ctr_2(D)->name, D.3778
	testq	%rax, %rax	# D.3778
	jne	.L6	#,
	.loc 1 94 0
	jmp	.L5	#
.L6:
	.loc 1 96 0
	movq	-8(%rbp), %rax	# fp, tmp64
	movq	%rax, %rcx	# tmp64,
	movl	$4, %edx	#,
	movl	$1, %esi	#,
	movl	$.LC0, %edi	#,
	call	fwrite	#
	.loc 1 97 0
	jmp	.L8	#
.L9:
	.loc 1 98 0 discriminator 2
	movq	-16(%rbp), %rax	# ctr, tmp65
	movq	(%rax), %rcx	# ctr_1->name, D.3778
	movq	-16(%rbp), %rax	# ctr, tmp66
	movl	8(%rax), %edx	# ctr_1->count, D.3779
	movq	-8(%rbp), %rax	# fp, tmp67
	movl	$.LC1, %esi	#,
	movq	%rax, %rdi	# tmp67,
	movl	$0, %eax	#,
	call	fprintf	#
	.loc 1 97 0 discriminator 2
	addq	$16, -16(%rbp)	#, ctr
.L8:
	.loc 1 97 0 is_stmt 0 discriminator 1
	movq	-16(%rbp), %rax	# ctr, tmp68
	movq	(%rax), %rax	# ctr_1->name, D.3778
	testq	%rax, %rax	# D.3778
	jne	.L9	#,
	.loc 1 99 0 is_stmt 1
	movq	-8(%rbp), %rax	# fp, tmp69
	movq	%rax, %rsi	# tmp69,
	movl	$10, %edi	#,
	call	fputc	#
.L5:
	.loc 1 100 0
	leave
	.cfi_def_cfa 7, 8
	ret
	.cfi_endproc
.LFE4:
	.size	pctr_print_all, .-pctr_print_all
	.globl	host_pclk
	.type	host_pclk, @function
host_pclk:
.LFB5:
	.loc 1 104 0
	.cfi_startproc
	pushq	%rbp	#
	.cfi_def_cfa_offset 16
	.cfi_offset 6, -16
	movq	%rsp, %rbp	#,
	.cfi_def_cfa_register 6
	movl	%edi, -20(%rbp)	# dummy, dummy
	.loc 1 105 0
	movl	$0, -4(%rbp)	#, mhz
	.loc 1 147 0
	movl	-4(%rbp), %eax	# mhz, D.3782
	.loc 1 148 0
	popq	%rbp	#
	.cfi_def_cfa 7, 8
	ret
	.cfi_endproc
.LFE5:
	.size	host_pclk, .-host_pclk
	.type	make_sec, @function
make_sec:
.LFB6:
	.loc 1 169 0
	.cfi_startproc
	pushq	%rbp	#
	.cfi_def_cfa_offset 16
	.cfi_offset 6, -16
	movq	%rsp, %rbp	#,
	.cfi_def_cfa_register 6
	movq	%rdi, -8(%rbp)	# s, s
	.loc 1 170 0
	movq	-8(%rbp), %rax	# s, tmp66
	movq	(%rax), %rax	# s_1(D)->tv_sec, D.3783
	cvtsi2sdq	%rax, %xmm1	# D.3783, D.3784
	movq	-8(%rbp), %rax	# s, tmp67
	movq	8(%rax), %rax	# s_1(D)->tv_usec, D.3783
	cvtsi2sdq	%rax, %xmm0	# D.3783, D.3784
	movsd	.LC2(%rip), %xmm2	#, tmp68
	mulsd	%xmm2, %xmm0	# tmp68, D.3784
	addsd	%xmm1, %xmm0	# D.3784, D.3785
	movsd	%xmm0, -16(%rbp)	# D.3785, %sfp
	movq	-16(%rbp), %rax	# %sfp, <retval>
	.loc 1 171 0
	movq	%rax, -16(%rbp)	# <retval>, %sfp
	movsd	-16(%rbp), %xmm0	# %sfp,
	popq	%rbp	#
	.cfi_def_cfa 7, 8
	ret
	.cfi_endproc
.LFE6:
	.size	make_sec, .-make_sec
	.globl	ptmr_start
	.type	ptmr_start, @function
ptmr_start:
.LFB7:
	.loc 1 177 0
	.cfi_startproc
	pushq	%rbp	#
	.cfi_def_cfa_offset 16
	.cfi_offset 6, -16
	movq	%rsp, %rbp	#,
	.cfi_def_cfa_register 6
	movq	%rdi, -8(%rbp)	# tm, tm
	.loc 1 204 0
	popq	%rbp	#
	.cfi_def_cfa 7, 8
	ret
	.cfi_endproc
.LFE7:
	.size	ptmr_start, .-ptmr_start
	.globl	ptmr_stop
	.type	ptmr_stop, @function
ptmr_stop:
.LFB8:
	.loc 1 208 0
	.cfi_startproc
	pushq	%rbp	#
	.cfi_def_cfa_offset 16
	.cfi_offset 6, -16
	movq	%rsp, %rbp	#,
	.cfi_def_cfa_register 6
	movq	%rdi, -8(%rbp)	# tm, tm
	.loc 1 244 0
	popq	%rbp	#
	.cfi_def_cfa 7, 8
	ret
	.cfi_endproc
.LFE8:
	.size	ptmr_stop, .-ptmr_stop
	.globl	ptmr_reset
	.type	ptmr_reset, @function
ptmr_reset:
.LFB9:
	.loc 1 248 0
	.cfi_startproc
	pushq	%rbp	#
	.cfi_def_cfa_offset 16
	.cfi_offset 6, -16
	movq	%rsp, %rbp	#,
	.cfi_def_cfa_register 6
	movq	%rdi, -8(%rbp)	# tm, tm
	.loc 1 249 0
	movq	-8(%rbp), %rdx	# tm, tmp59
	movl	$0, %eax	#, tmp60
	movq	%rax, 8(%rdx)	# tmp60, tm_1(D)->t_cpu
	.loc 1 250 0
	movq	-8(%rbp), %rdx	# tm, tmp61
	movl	$0, %eax	#, tmp62
	movq	%rax, 16(%rdx)	# tmp62, tm_1(D)->t_elapsed
	.loc 1 251 0
	popq	%rbp	#
	.cfi_def_cfa 7, 8
	ret
	.cfi_endproc
.LFE9:
	.size	ptmr_reset, .-ptmr_reset
	.globl	ptmr_init
	.type	ptmr_init, @function
ptmr_init:
.LFB10:
	.loc 1 255 0
	.cfi_startproc
	pushq	%rbp	#
	.cfi_def_cfa_offset 16
	.cfi_offset 6, -16
	movq	%rsp, %rbp	#,
	.cfi_def_cfa_register 6
	movq	%rdi, -8(%rbp)	# tm, tm
	.loc 1 256 0
	movq	-8(%rbp), %rdx	# tm, tmp59
	movl	$0, %eax	#, tmp60
	movq	%rax, 8(%rdx)	# tmp60, tm_1(D)->t_cpu
	.loc 1 257 0
	movq	-8(%rbp), %rdx	# tm, tmp61
	movl	$0, %eax	#, tmp62
	movq	%rax, 16(%rdx)	# tmp62, tm_1(D)->t_elapsed
	.loc 1 258 0
	movq	-8(%rbp), %rdx	# tm, tmp63
	movl	$0, %eax	#, tmp64
	movq	%rax, 24(%rdx)	# tmp64, tm_1(D)->t_tot_cpu
	.loc 1 259 0
	movq	-8(%rbp), %rdx	# tm, tmp65
	movl	$0, %eax	#, tmp66
	movq	%rax, 32(%rdx)	# tmp66, tm_1(D)->t_tot_elapsed
	.loc 1 260 0
	popq	%rbp	#
	.cfi_def_cfa 7, 8
	ret
	.cfi_endproc
.LFE10:
	.size	ptmr_init, .-ptmr_init
	.globl	ptmr_reset_all
	.type	ptmr_reset_all, @function
ptmr_reset_all:
.LFB11:
	.loc 1 264 0
	.cfi_startproc
	pushq	%rbp	#
	.cfi_def_cfa_offset 16
	.cfi_offset 6, -16
	movq	%rsp, %rbp	#,
	.cfi_def_cfa_register 6
	subq	$8, %rsp	#,
	movq	%rdi, -8(%rbp)	# tm, tm
	.loc 1 265 0
	jmp	.L19	#
.L20:
	.loc 1 266 0 discriminator 2
	movq	-8(%rbp), %rax	# tm, tmp60
	movq	%rax, %rdi	# tmp60,
	call	ptmr_reset	#
	.loc 1 265 0 discriminator 2
	addq	$56, -8(%rbp)	#, tm
.L19:
	.loc 1 265 0 is_stmt 0 discriminator 1
	movq	-8(%rbp), %rax	# tm, tmp61
	movq	(%rax), %rax	# tm_1->name, D.3787
	testq	%rax, %rax	# D.3787
	jne	.L20	#,
	.loc 1 267 0 is_stmt 1
	leave
	.cfi_def_cfa 7, 8
	ret
	.cfi_endproc
.LFE11:
	.size	ptmr_reset_all, .-ptmr_reset_all
	.section	.rodata
.LC5:
	.string	"  %6.2fx %s"
	.text
	.globl	ptmr_print_all
	.type	ptmr_print_all, @function
ptmr_print_all:
.LFB12:
	.loc 1 271 0
	.cfi_startproc
	pushq	%rbp	#
	.cfi_def_cfa_offset 16
	.cfi_offset 6, -16
	movq	%rsp, %rbp	#,
	.cfi_def_cfa_register 6
	subq	$32, %rsp	#,
	movq	%rdi, -8(%rbp)	# fp, fp
	movq	%rsi, -16(%rbp)	# tm, tm
	movsd	%xmm0, -24(%rbp)	# norm, norm
	.loc 1 272 0
	xorpd	%xmm0, %xmm0	# tmp63
	ucomisd	-24(%rbp), %xmm0	# norm, tmp63
	jp	.L26	#,
	xorpd	%xmm0, %xmm0	# tmp64
	ucomisd	-24(%rbp), %xmm0	# norm, tmp64
	je	.L21	#,
.L26:
	.loc 1 273 0
	movsd	.LC4(%rip), %xmm0	#, tmp66
	divsd	-24(%rbp), %xmm0	# norm, tmp65
	movsd	%xmm0, -24(%rbp)	# tmp65, norm
	.loc 1 274 0
	jmp	.L24	#
.L25:
	.loc 1 275 0 discriminator 2
	movq	-16(%rbp), %rax	# tm, tmp67
	movq	(%rax), %rdx	# tm_1->name, D.3788
	movq	-16(%rbp), %rax	# tm, tmp68
	movsd	8(%rax), %xmm0	# tm_1->t_cpu, D.3789
	mulsd	-24(%rbp), %xmm0	# norm, D.3789
	movq	-8(%rbp), %rax	# fp, tmp69
	movl	$.LC5, %esi	#,
	movq	%rax, %rdi	# tmp69,
	movl	$1, %eax	#,
	call	fprintf	#
	.loc 1 274 0 discriminator 2
	addq	$56, -16(%rbp)	#, tm
.L24:
	.loc 1 274 0 is_stmt 0 discriminator 1
	movq	-16(%rbp), %rax	# tm, tmp70
	movq	(%rax), %rax	# tm_1->name, D.3788
	testq	%rax, %rax	# D.3788
	jne	.L25	#,
.L21:
	.loc 1 277 0 is_stmt 1
	leave
	.cfi_def_cfa 7, 8
	ret
	.cfi_endproc
.LFE12:
	.size	ptmr_print_all, .-ptmr_print_all
	.section	.rodata
.LC6:
	.string	"/tmp/__EnDiAn_TeSt__"
.LC7:
	.string	"wb"
.LC8:
	.string	"ERROR"
.LC9:
	.string	"profile.c"
.LC10:
	.string	"fopen(%s,wb) failed\n"
.LC11:
	.string	"fwrite(%s) failed\n"
.LC12:
	.string	"rb"
.LC13:
	.string	"fopen(%s,rb) failed\n"
.LC14:
	.string	"fread(%s) failed\n"
	.text
	.globl	host_endian
	.type	host_endian, @function
host_endian:
.LFB13:
	.loc 1 281 0
	.cfi_startproc
	pushq	%rbp	#
	.cfi_def_cfa_offset 16
	.cfi_offset 6, -16
	movq	%rsp, %rbp	#,
	.cfi_def_cfa_register 6
	pushq	%rbx	#
	subq	$56, %rsp	#,
	.cfi_offset 3, -24
	.loc 1 281 0
	movq	%fs:40, %rax	#, tmp91
	movq	%rax, -24(%rbp)	# tmp91, D.3796
	xorl	%eax, %eax	# tmp91
	.loc 1 288 0
	movq	$.LC6, -48(%rbp)	#, file
	.loc 1 290 0
	movq	-48(%rbp), %rax	# file, tmp67
	movl	$.LC7, %esi	#,
	movq	%rax, %rdi	# tmp67,
	call	fopen	#
	movq	%rax, -40(%rbp)	# tmp68, fp
	cmpq	$0, -40(%rbp)	#, fp
	jne	.L28	#,
	.loc 1 291 0
	movl	$.LC8, %edx	#,
	movl	$291, %esi	#,
	movl	$.LC9, %edi	#,
	call	_E__pr_header	#
	movq	-48(%rbp), %rax	# file, tmp69
	movq	%rax, %rsi	# tmp69,
	movl	$.LC10, %edi	#,
	movl	$0, %eax	#,
	call	_E__pr_warn	#
	.loc 1 292 0
	movl	$-1, %eax	#, D.3791
	jmp	.L33	#
.L28:
	.loc 1 295 0
	movl	$287454020, -56(%rbp)	#, BYTE_ORDER_MAGIC
	.loc 1 297 0
	movl	-56(%rbp), %eax	# BYTE_ORDER_MAGIC, tmp70
	movl	%eax, -60(%rbp)	# tmp70, k
	.loc 1 298 0
	movq	-40(%rbp), %rdx	# fp, tmp71
	leaq	-60(%rbp), %rax	#, tmp72
	movq	%rdx, %rcx	# tmp71,
	movl	$1, %edx	#,
	movl	$4, %esi	#,
	movq	%rax, %rdi	# tmp72,
	call	fwrite	#
	cmpq	$1, %rax	#, D.3792
	je	.L30	#,
	.loc 1 299 0
	movl	$.LC8, %edx	#,
	movl	$299, %esi	#,
	movl	$.LC9, %edi	#,
	call	_E__pr_header	#
	movq	-48(%rbp), %rax	# file, tmp73
	movq	%rax, %rsi	# tmp73,
	movl	$.LC11, %edi	#,
	movl	$0, %eax	#,
	call	_E__pr_warn	#
	.loc 1 300 0
	movq	-40(%rbp), %rax	# fp, tmp74
	movq	%rax, %rdi	# tmp74,
	call	fclose	#
	.loc 1 301 0
	movq	-48(%rbp), %rax	# file, tmp75
	movq	%rax, %rdi	# tmp75,
	call	unlink	#
	.loc 1 302 0
	movl	$-1, %eax	#, D.3791
	jmp	.L33	#
.L30:
	.loc 1 305 0
	movq	-40(%rbp), %rax	# fp, tmp76
	movq	%rax, %rdi	# tmp76,
	call	fclose	#
	.loc 1 306 0
	movq	-48(%rbp), %rax	# file, tmp77
	movl	$.LC12, %esi	#,
	movq	%rax, %rdi	# tmp77,
	call	fopen	#
	movq	%rax, -40(%rbp)	# tmp78, fp
	cmpq	$0, -40(%rbp)	#, fp
	jne	.L31	#,
	.loc 1 307 0
	movl	$.LC8, %edx	#,
	movl	$307, %esi	#,
	movl	$.LC9, %edi	#,
	call	_E__pr_header	#
	movq	-48(%rbp), %rax	# file, tmp79
	movq	%rax, %rsi	# tmp79,
	movl	$.LC13, %edi	#,
	movl	$0, %eax	#,
	call	_E__pr_warn	#
	.loc 1 308 0
	movq	-48(%rbp), %rax	# file, tmp80
	movq	%rax, %rdi	# tmp80,
	call	unlink	#
	.loc 1 309 0
	movl	$-1, %eax	#, D.3791
	jmp	.L33	#
.L31:
	.loc 1 311 0
	movq	-40(%rbp), %rdx	# fp, tmp81
	leaq	-32(%rbp), %rax	#, tmp82
	movq	%rdx, %rcx	# tmp81,
	movl	$4, %edx	#,
	movl	$1, %esi	#,
	movq	%rax, %rdi	# tmp82,
	call	fread	#
	cmpq	$4, %rax	#, D.3792
	je	.L32	#,
	.loc 1 312 0
	movl	$.LC8, %edx	#,
	movl	$312, %esi	#,
	movl	$.LC9, %edi	#,
	call	_E__pr_header	#
	movq	-48(%rbp), %rax	# file, tmp83
	movq	%rax, %rsi	# tmp83,
	movl	$.LC14, %edi	#,
	movl	$0, %eax	#,
	call	_E__pr_warn	#
	.loc 1 313 0
	movq	-40(%rbp), %rax	# fp, tmp84
	movq	%rax, %rdi	# tmp84,
	call	fclose	#
	.loc 1 314 0
	movq	-48(%rbp), %rax	# file, tmp85
	movq	%rax, %rdi	# tmp85,
	call	unlink	#
	.loc 1 315 0
	movl	$-1, %eax	#, D.3791
	jmp	.L33	#
.L32:
	.loc 1 317 0
	movq	-40(%rbp), %rax	# fp, tmp86
	movq	%rax, %rdi	# tmp86,
	call	fclose	#
	.loc 1 318 0
	movq	-48(%rbp), %rax	# file, tmp87
	movq	%rax, %rdi	# tmp87,
	call	unlink	#
	.loc 1 321 0
	movzbl	-32(%rbp), %eax	# buf, D.3793
	movsbl	%al, %edx	# D.3793, D.3794
	movl	-56(%rbp), %eax	# BYTE_ORDER_MAGIC, tmp88
	movzbl	%al, %eax	# tmp88, D.3794
	cmpl	%eax, %edx	# D.3794, D.3794
	sete	%al	#, D.3795
	movzbl	%al, %eax	# D.3795, tmp89
	movl	%eax, -52(%rbp)	# tmp89, endian
	.loc 1 323 0
	movl	-52(%rbp), %eax	# endian, D.3791
.L33:
	.loc 1 324 0
	movq	-24(%rbp), %rbx	# D.3796, tmp92
	xorq	%fs:40, %rbx	#, tmp92
	je	.L34	#,
	call	__stack_chk_fail	#
.L34:
	addq	$56, %rsp	#,
	popq	%rbx	#
	popq	%rbp	#
	.cfi_def_cfa 7, 8
	ret
	.cfi_endproc
.LFE13:
	.size	host_endian, .-host_endian
	.section	.rodata
	.align 8
.LC2:
	.long	2696277389
	.long	1051772663
	.align 8
.LC4:
	.long	0
	.long	1072693248
	.text
.Letext0:
	.file 2 "/usr/lib/gcc/x86_64-linux-gnu/4.8/include/stddef.h"
	.file 3 "/usr/include/x86_64-linux-gnu/bits/types.h"
	.file 4 "/usr/include/stdio.h"
	.file 5 "/usr/include/libio.h"
	.file 6 "/usr/include/x86_64-linux-gnu/bits/time.h"
	.file 7 "libutil/prim_type.h"
	.file 8 "libutil/profile.h"
	.section	.note.GNU-stack,"",@progbits
