	.file	"block.c"
# GNU C (Ubuntu/Linaro 4.8.1-10ubuntu9) version 4.8.1 (x86_64-linux-gnu)
#	compiled by GNU C version 4.8.1, GMP version 5.1.2, MPFR version 3.1.1-p2, MPC version 1.0.1
# GGC heuristics: --param ggc-min-expand=100 --param ggc-min-heapsize=131072
# options passed:  -imultiarch x86_64-linux-gnu -D SPEC_CPU -D NDEBUG
# -D SPEC_CPU_LP64 block.c -mtune=generic -march=x86-64 -g -fverbose-asm
# -fno-strict-aliasing -fstack-protector -Wformat -Wformat-security
# options enabled:  -faggressive-loop-optimizations
# -fasynchronous-unwind-tables -fauto-inc-dec -fbranch-count-reg -fcommon
# -fdelete-null-pointer-checks -fdwarf2-cfi-asm -fearly-inlining
# -feliminate-unused-debug-types -ffunction-cse -fgcse-lm -fgnu-runtime
# -fident -finline-atomics -fira-hoist-pressure -fira-share-save-slots
# -fira-share-spill-slots -fivopts -fkeep-static-consts
# -fleading-underscore -fmath-errno -fmerge-debug-strings
# -fmove-loop-invariants -fpeephole -fprefetch-loop-arrays
# -freg-struct-return -fsched-critical-path-heuristic
# -fsched-dep-count-heuristic -fsched-group-heuristic -fsched-interblock
# -fsched-last-insn-heuristic -fsched-rank-heuristic -fsched-spec
# -fsched-spec-insn-heuristic -fsched-stalled-insns-dep -fshow-column
# -fsigned-zeros -fsplit-ivs-in-unroller -fstack-protector
# -fstrict-volatile-bitfields -fsync-libcalls -ftrapping-math
# -ftree-coalesce-vars -ftree-cselim -ftree-forwprop -ftree-loop-if-convert
# -ftree-loop-im -ftree-loop-ivcanon -ftree-loop-optimize
# -ftree-parallelize-loops= -ftree-phiprop -ftree-pta -ftree-reassoc
# -ftree-scev-cprop -ftree-slp-vectorize -ftree-vect-loop-version
# -funit-at-a-time -funwind-tables -fverbose-asm -fzero-initialized-in-bss
# -m128bit-long-double -m64 -m80387 -maccumulate-outgoing-args
# -malign-stringops -mfancy-math-387 -mfp-ret-in-387 -mfxsr -mglibc
# -mieee-fp -mlong-double-80 -mmmx -mno-sse4 -mpush-args -mred-zone -msse
# -msse2 -mtls-direct-seg-refs

	.text
.Ltext0:
	.globl	QP_SCALE_CR
	.section	.rodata
	.align 32
	.type	QP_SCALE_CR, @object
	.size	QP_SCALE_CR, 52
QP_SCALE_CR:
	.byte	0
	.byte	1
	.byte	2
	.byte	3
	.byte	4
	.byte	5
	.byte	6
	.byte	7
	.byte	8
	.byte	9
	.byte	10
	.byte	11
	.byte	12
	.byte	13
	.byte	14
	.byte	15
	.byte	16
	.byte	17
	.byte	18
	.byte	19
	.byte	20
	.byte	21
	.byte	22
	.byte	23
	.byte	24
	.byte	25
	.byte	26
	.byte	27
	.byte	28
	.byte	29
	.byte	29
	.byte	30
	.byte	31
	.byte	32
	.byte	32
	.byte	33
	.byte	34
	.byte	34
	.byte	35
	.byte	35
	.byte	36
	.byte	36
	.byte	37
	.byte	37
	.byte	37
	.byte	38
	.byte	38
	.byte	38
	.byte	39
	.byte	39
	.byte	39
	.byte	39
	.globl	SNGL_SCAN
	.align 32
	.type	SNGL_SCAN, @object
	.size	SNGL_SCAN, 32
SNGL_SCAN:
	.byte	0
	.byte	0
	.byte	1
	.byte	0
	.byte	0
	.byte	1
	.byte	0
	.byte	2
	.byte	1
	.byte	1
	.byte	2
	.byte	0
	.byte	3
	.byte	0
	.byte	2
	.byte	1
	.byte	1
	.byte	2
	.byte	0
	.byte	3
	.byte	1
	.byte	3
	.byte	2
	.byte	2
	.byte	3
	.byte	1
	.byte	3
	.byte	2
	.byte	2
	.byte	3
	.byte	3
	.byte	3
	.globl	FIELD_SCAN
	.align 32
	.type	FIELD_SCAN, @object
	.size	FIELD_SCAN, 32
FIELD_SCAN:
	.byte	0
	.byte	0
	.byte	0
	.byte	1
	.byte	1
	.byte	0
	.byte	0
	.byte	2
	.byte	0
	.byte	3
	.byte	1
	.byte	1
	.byte	1
	.byte	2
	.byte	1
	.byte	3
	.byte	2
	.byte	0
	.byte	2
	.byte	1
	.byte	2
	.byte	2
	.byte	2
	.byte	3
	.byte	3
	.byte	0
	.byte	3
	.byte	1
	.byte	3
	.byte	2
	.byte	3
	.byte	3
	.globl	COEFF_COST
	.align 32
	.type	COEFF_COST, @object
	.size	COEFF_COST, 32
COEFF_COST:
	.byte	3
	.byte	2
	.byte	2
	.byte	1
	.byte	1
	.byte	1
	.byte	0
	.byte	0
	.byte	0
	.byte	0
	.byte	0
	.byte	0
	.byte	0
	.byte	0
	.byte	0
	.byte	0
	.byte	9
	.byte	9
	.byte	9
	.byte	9
	.byte	9
	.byte	9
	.byte	9
	.byte	9
	.byte	9
	.byte	9
	.byte	9
	.byte	9
	.byte	9
	.byte	9
	.byte	9
	.byte	9
	.globl	COEFF_BIT_COST
	.align 32
	.type	COEFF_BIT_COST, @object
	.size	COEFF_BIT_COST, 768
COEFF_BIT_COST:
	.byte	3
	.byte	5
	.byte	7
	.byte	9
	.byte	9
	.byte	11
	.byte	11
	.byte	11
	.byte	11
	.byte	13
	.byte	13
	.byte	13
	.byte	13
	.byte	13
	.byte	13
	.byte	13
	.byte	5
	.byte	7
	.byte	9
	.byte	9
	.byte	11
	.byte	11
	.byte	11
	.byte	11
	.byte	13
	.byte	13
	.byte	13
	.byte	13
	.byte	13
	.byte	13
	.byte	13
	.byte	13
	.byte	7
	.byte	9
	.byte	9
	.byte	11
	.byte	11
	.byte	11
	.byte	11
	.byte	13
	.byte	13
	.byte	13
	.byte	13
	.byte	13
	.byte	13
	.byte	13
	.byte	13
	.byte	15
	.byte	7
	.byte	9
	.byte	9
	.byte	11
	.byte	11
	.byte	11
	.byte	11
	.byte	13
	.byte	13
	.byte	13
	.byte	13
	.byte	13
	.byte	13
	.byte	13
	.byte	13
	.byte	15
	.byte	7
	.byte	7
	.byte	9
	.byte	9
	.byte	9
	.byte	9
	.byte	11
	.byte	11
	.byte	11
	.byte	11
	.byte	11
	.byte	11
	.byte	11
	.byte	11
	.byte	13
	.byte	13
	.byte	7
	.byte	7
	.byte	9
	.byte	9
	.byte	9
	.byte	9
	.byte	11
	.byte	11
	.byte	11
	.byte	11
	.byte	11
	.byte	11
	.byte	11
	.byte	11
	.byte	13
	.byte	13
	.byte	7
	.byte	7
	.byte	9
	.byte	9
	.byte	9
	.byte	9
	.byte	11
	.byte	11
	.byte	11
	.byte	11
	.byte	11
	.byte	11
	.byte	11
	.byte	11
	.byte	13
	.byte	13
	.byte	7
	.byte	7
	.byte	9
	.byte	9
	.byte	9
	.byte	9
	.byte	11
	.byte	11
	.byte	11
	.byte	11
	.byte	11
	.byte	11
	.byte	11
	.byte	11
	.byte	13
	.byte	13
	.byte	7
	.byte	7
	.byte	9
	.byte	9
	.byte	9
	.byte	9
	.byte	11
	.byte	11
	.byte	11
	.byte	11
	.byte	11
	.byte	11
	.byte	11
	.byte	11
	.byte	13
	.byte	13
	.byte	7
	.byte	7
	.byte	9
	.byte	9
	.byte	9
	.byte	9
	.byte	11
	.byte	11
	.byte	11
	.byte	11
	.byte	11
	.byte	11
	.byte	11
	.byte	11
	.byte	13
	.byte	13
	.byte	7
	.byte	7
	.byte	9
	.byte	9
	.byte	9
	.byte	9
	.byte	11
	.byte	11
	.byte	11
	.byte	11
	.byte	11
	.byte	11
	.byte	11
	.byte	11
	.byte	13
	.byte	13
	.byte	7
	.byte	7
	.byte	9
	.byte	9
	.byte	9
	.byte	9
	.byte	11
	.byte	11
	.byte	11
	.byte	11
	.byte	11
	.byte	11
	.byte	11
	.byte	11
	.byte	13
	.byte	13
	.byte	7
	.byte	7
	.byte	9
	.byte	9
	.byte	9
	.byte	9
	.byte	11
	.byte	11
	.byte	11
	.byte	11
	.byte	11
	.byte	11
	.byte	11
	.byte	11
	.byte	13
	.byte	13
	.byte	7
	.byte	7
	.byte	9
	.byte	9
	.byte	9
	.byte	9
	.byte	11
	.byte	11
	.byte	11
	.byte	11
	.byte	11
	.byte	11
	.byte	11
	.byte	11
	.byte	13
	.byte	13
	.byte	7
	.byte	7
	.byte	9
	.byte	9
	.byte	9
	.byte	9
	.byte	11
	.byte	11
	.byte	11
	.byte	11
	.byte	11
	.byte	11
	.byte	11
	.byte	11
	.byte	13
	.byte	13
	.byte	7
	.byte	7
	.byte	9
	.byte	9
	.byte	9
	.byte	9
	.byte	11
	.byte	11
	.byte	11
	.byte	11
	.byte	11
	.byte	11
	.byte	11
	.byte	11
	.byte	13
	.byte	13
	.byte	3
	.byte	5
	.byte	7
	.byte	7
	.byte	7
	.byte	9
	.byte	9
	.byte	9
	.byte	9
	.byte	11
	.byte	11
	.byte	13
	.byte	13
	.byte	13
	.byte	13
	.byte	15
	.byte	5
	.byte	9
	.byte	9
	.byte	11
	.byte	11
	.byte	13
	.byte	13
	.byte	13
	.byte	13
	.byte	15
	.byte	15
	.byte	15
	.byte	15
	.byte	15
	.byte	15
	.byte	15
	.byte	7
	.byte	11
	.byte	11
	.byte	13
	.byte	13
	.byte	13
	.byte	13
	.byte	15
	.byte	15
	.byte	15
	.byte	15
	.byte	15
	.byte	15
	.byte	15
	.byte	15
	.byte	17
	.byte	9
	.byte	11
	.byte	11
	.byte	13
	.byte	13
	.byte	13
	.byte	13
	.byte	15
	.byte	15
	.byte	15
	.byte	15
	.byte	15
	.byte	15
	.byte	15
	.byte	15
	.byte	17
	.byte	9
	.byte	11
	.byte	11
	.byte	13
	.byte	13
	.byte	13
	.byte	13
	.byte	15
	.byte	15
	.byte	15
	.byte	15
	.byte	15
	.byte	15
	.byte	15
	.byte	15
	.byte	17
	.byte	11
	.byte	11
	.byte	13
	.byte	13
	.byte	13
	.byte	13
	.byte	15
	.byte	15
	.byte	15
	.byte	15
	.byte	15
	.byte	15
	.byte	15
	.byte	15
	.byte	17
	.byte	17
	.byte	11
	.byte	11
	.byte	13
	.byte	13
	.byte	13
	.byte	13
	.byte	15
	.byte	15
	.byte	15
	.byte	15
	.byte	15
	.byte	15
	.byte	15
	.byte	15
	.byte	17
	.byte	17
	.byte	11
	.byte	11
	.byte	13
	.byte	13
	.byte	13
	.byte	13
	.byte	15
	.byte	15
	.byte	15
	.byte	15
	.byte	15
	.byte	15
	.byte	15
	.byte	15
	.byte	17
	.byte	17
	.byte	11
	.byte	11
	.byte	13
	.byte	13
	.byte	13
	.byte	13
	.byte	15
	.byte	15
	.byte	15
	.byte	15
	.byte	15
	.byte	15
	.byte	15
	.byte	15
	.byte	17
	.byte	17
	.byte	11
	.byte	11
	.byte	13
	.byte	13
	.byte	13
	.byte	13
	.byte	15
	.byte	15
	.byte	15
	.byte	15
	.byte	15
	.byte	15
	.byte	15
	.byte	15
	.byte	17
	.byte	17
	.byte	11
	.byte	11
	.byte	13
	.byte	13
	.byte	13
	.byte	13
	.byte	15
	.byte	15
	.byte	15
	.byte	15
	.byte	15
	.byte	15
	.byte	15
	.byte	15
	.byte	17
	.byte	17
	.byte	11
	.byte	11
	.byte	13
	.byte	13
	.byte	13
	.byte	13
	.byte	15
	.byte	15
	.byte	15
	.byte	15
	.byte	15
	.byte	15
	.byte	15
	.byte	15
	.byte	17
	.byte	17
	.byte	11
	.byte	11
	.byte	13
	.byte	13
	.byte	13
	.byte	13
	.byte	15
	.byte	15
	.byte	15
	.byte	15
	.byte	15
	.byte	15
	.byte	15
	.byte	15
	.byte	17
	.byte	17
	.byte	11
	.byte	11
	.byte	13
	.byte	13
	.byte	13
	.byte	13
	.byte	15
	.byte	15
	.byte	15
	.byte	15
	.byte	15
	.byte	15
	.byte	15
	.byte	15
	.byte	17
	.byte	17
	.zero	32
	.byte	3
	.byte	7
	.byte	9
	.byte	9
	.byte	11
	.byte	13
	.byte	13
	.byte	15
	.byte	15
	.byte	15
	.byte	15
	.byte	17
	.byte	17
	.byte	17
	.byte	17
	.byte	17
	.byte	5
	.byte	9
	.byte	11
	.byte	13
	.byte	13
	.byte	15
	.byte	15
	.byte	15
	.byte	15
	.byte	17
	.byte	17
	.byte	17
	.byte	17
	.byte	17
	.byte	17
	.byte	17
	.byte	5
	.byte	9
	.byte	11
	.byte	13
	.byte	13
	.byte	15
	.byte	15
	.byte	15
	.byte	15
	.byte	17
	.byte	17
	.byte	17
	.byte	17
	.byte	17
	.byte	17
	.byte	17
	.byte	7
	.byte	11
	.byte	13
	.byte	13
	.byte	15
	.byte	15
	.byte	15
	.byte	15
	.byte	17
	.byte	17
	.byte	17
	.byte	17
	.byte	17
	.byte	17
	.byte	17
	.byte	17
	.byte	7
	.byte	11
	.byte	13
	.byte	13
	.byte	15
	.byte	15
	.byte	15
	.byte	15
	.byte	17
	.byte	17
	.byte	17
	.byte	17
	.byte	17
	.byte	17
	.byte	17
	.byte	17
	.byte	7
	.byte	11
	.byte	13
	.byte	13
	.byte	15
	.byte	15
	.byte	15
	.byte	15
	.byte	17
	.byte	17
	.byte	17
	.byte	17
	.byte	17
	.byte	17
	.byte	17
	.byte	17
	.byte	9
	.byte	11
	.byte	13
	.byte	13
	.byte	15
	.byte	15
	.byte	15
	.byte	15
	.byte	17
	.byte	17
	.byte	17
	.byte	17
	.byte	17
	.byte	17
	.byte	17
	.byte	17
	.byte	9
	.byte	11
	.byte	13
	.byte	13
	.byte	15
	.byte	15
	.byte	15
	.byte	15
	.byte	17
	.byte	17
	.byte	17
	.byte	17
	.byte	17
	.byte	17
	.byte	17
	.byte	17
	.byte	9
	.byte	11
	.byte	13
	.byte	13
	.byte	15
	.byte	15
	.byte	15
	.byte	15
	.byte	17
	.byte	17
	.byte	17
	.byte	17
	.byte	17
	.byte	17
	.byte	17
	.byte	17
	.byte	9
	.byte	11
	.byte	13
	.byte	13
	.byte	15
	.byte	15
	.byte	15
	.byte	15
	.byte	17
	.byte	17
	.byte	17
	.byte	17
	.byte	17
	.byte	17
	.byte	17
	.byte	17
	.byte	11
	.byte	13
	.byte	13
	.byte	15
	.byte	15
	.byte	15
	.byte	15
	.byte	17
	.byte	17
	.byte	17
	.byte	17
	.byte	17
	.byte	17
	.byte	17
	.byte	17
	.byte	19
	.byte	11
	.byte	13
	.byte	13
	.byte	15
	.byte	15
	.byte	15
	.byte	15
	.byte	17
	.byte	17
	.byte	17
	.byte	17
	.byte	17
	.byte	17
	.byte	17
	.byte	17
	.byte	19
	.byte	11
	.byte	13
	.byte	13
	.byte	15
	.byte	15
	.byte	15
	.byte	15
	.byte	17
	.byte	17
	.byte	17
	.byte	17
	.byte	17
	.byte	17
	.byte	17
	.byte	17
	.byte	19
	.byte	11
	.byte	13
	.byte	13
	.byte	15
	.byte	15
	.byte	15
	.byte	15
	.byte	17
	.byte	17
	.byte	17
	.byte	17
	.byte	17
	.byte	17
	.byte	17
	.byte	17
	.byte	19
	.byte	11
	.byte	13
	.byte	13
	.byte	15
	.byte	15
	.byte	15
	.byte	15
	.byte	17
	.byte	17
	.byte	17
	.byte	17
	.byte	17
	.byte	17
	.byte	17
	.byte	17
	.byte	19
	.byte	11
	.byte	13
	.byte	13
	.byte	15
	.byte	15
	.byte	15
	.byte	15
	.byte	17
	.byte	17
	.byte	17
	.byte	17
	.byte	17
	.byte	17
	.byte	17
	.byte	17
	.byte	19
	.globl	SCAN_YUV422
	.align 16
	.type	SCAN_YUV422, @object
	.size	SCAN_YUV422, 16
SCAN_YUV422:
	.byte	0
	.byte	0
	.byte	0
	.byte	1
	.byte	1
	.byte	0
	.byte	0
	.byte	2
	.byte	0
	.byte	3
	.byte	1
	.byte	1
	.byte	1
	.byte	2
	.byte	1
	.byte	3
	.globl	hor_offset
	.align 32
	.type	hor_offset, @object
	.size	hor_offset, 64
hor_offset:
	.byte	0
	.byte	0
	.byte	0
	.byte	0
	.byte	0
	.byte	0
	.byte	0
	.byte	0
	.byte	0
	.byte	0
	.byte	0
	.byte	0
	.byte	0
	.byte	0
	.byte	0
	.byte	0
	.byte	0
	.byte	4
	.byte	0
	.byte	4
	.byte	0
	.byte	0
	.byte	0
	.byte	0
	.byte	0
	.byte	0
	.byte	0
	.byte	0
	.byte	0
	.byte	0
	.byte	0
	.byte	0
	.byte	0
	.byte	4
	.byte	0
	.byte	4
	.byte	0
	.byte	4
	.byte	0
	.byte	4
	.byte	0
	.byte	0
	.byte	0
	.byte	0
	.byte	0
	.byte	0
	.byte	0
	.byte	0
	.byte	0
	.byte	4
	.byte	0
	.byte	4
	.byte	8
	.byte	12
	.byte	8
	.byte	12
	.byte	0
	.byte	4
	.byte	0
	.byte	4
	.byte	8
	.byte	12
	.byte	8
	.byte	12
	.globl	ver_offset
	.align 32
	.type	ver_offset, @object
	.size	ver_offset, 64
ver_offset:
	.byte	0
	.byte	0
	.byte	0
	.byte	0
	.byte	0
	.byte	0
	.byte	0
	.byte	0
	.byte	0
	.byte	0
	.byte	0
	.byte	0
	.byte	0
	.byte	0
	.byte	0
	.byte	0
	.byte	0
	.byte	0
	.byte	4
	.byte	4
	.byte	0
	.byte	0
	.byte	0
	.byte	0
	.byte	0
	.byte	0
	.byte	0
	.byte	0
	.byte	0
	.byte	0
	.byte	0
	.byte	0
	.byte	0
	.byte	0
	.byte	4
	.byte	4
	.byte	8
	.byte	8
	.byte	12
	.byte	12
	.byte	0
	.byte	0
	.byte	0
	.byte	0
	.byte	0
	.byte	0
	.byte	0
	.byte	0
	.byte	0
	.byte	0
	.byte	4
	.byte	4
	.byte	0
	.byte	0
	.byte	4
	.byte	4
	.byte	8
	.byte	8
	.byte	12
	.byte	12
	.byte	8
	.byte	8
	.byte	12
	.byte	12
	.data
	.align 32
	.type	cbp_blk_chroma, @object
	.size	cbp_blk_chroma, 32
cbp_blk_chroma:
	.byte	16
	.byte	17
	.byte	18
	.byte	19
	.byte	20
	.byte	21
	.byte	22
	.byte	23
	.byte	24
	.byte	25
	.byte	26
	.byte	27
	.byte	28
	.byte	29
	.byte	30
	.byte	31
	.byte	32
	.byte	33
	.byte	34
	.byte	35
	.byte	36
	.byte	37
	.byte	38
	.byte	39
	.byte	40
	.byte	41
	.byte	42
	.byte	43
	.byte	44
	.byte	45
	.byte	46
	.byte	47
	.globl	quant_coef
	.section	.rodata
	.align 32
	.type	quant_coef, @object
	.size	quant_coef, 384
quant_coef:
	.long	13107
	.long	8066
	.long	13107
	.long	8066
	.long	8066
	.long	5243
	.long	8066
	.long	5243
	.long	13107
	.long	8066
	.long	13107
	.long	8066
	.long	8066
	.long	5243
	.long	8066
	.long	5243
	.long	11916
	.long	7490
	.long	11916
	.long	7490
	.long	7490
	.long	4660
	.long	7490
	.long	4660
	.long	11916
	.long	7490
	.long	11916
	.long	7490
	.long	7490
	.long	4660
	.long	7490
	.long	4660
	.long	10082
	.long	6554
	.long	10082
	.long	6554
	.long	6554
	.long	4194
	.long	6554
	.long	4194
	.long	10082
	.long	6554
	.long	10082
	.long	6554
	.long	6554
	.long	4194
	.long	6554
	.long	4194
	.long	9362
	.long	5825
	.long	9362
	.long	5825
	.long	5825
	.long	3647
	.long	5825
	.long	3647
	.long	9362
	.long	5825
	.long	9362
	.long	5825
	.long	5825
	.long	3647
	.long	5825
	.long	3647
	.long	8192
	.long	5243
	.long	8192
	.long	5243
	.long	5243
	.long	3355
	.long	5243
	.long	3355
	.long	8192
	.long	5243
	.long	8192
	.long	5243
	.long	5243
	.long	3355
	.long	5243
	.long	3355
	.long	7282
	.long	4559
	.long	7282
	.long	4559
	.long	4559
	.long	2893
	.long	4559
	.long	2893
	.long	7282
	.long	4559
	.long	7282
	.long	4559
	.long	4559
	.long	2893
	.long	4559
	.long	2893
	.globl	dequant_coef
	.align 32
	.type	dequant_coef, @object
	.size	dequant_coef, 384
dequant_coef:
	.long	10
	.long	13
	.long	10
	.long	13
	.long	13
	.long	16
	.long	13
	.long	16
	.long	10
	.long	13
	.long	10
	.long	13
	.long	13
	.long	16
	.long	13
	.long	16
	.long	11
	.long	14
	.long	11
	.long	14
	.long	14
	.long	18
	.long	14
	.long	18
	.long	11
	.long	14
	.long	11
	.long	14
	.long	14
	.long	18
	.long	14
	.long	18
	.long	13
	.long	16
	.long	13
	.long	16
	.long	16
	.long	20
	.long	16
	.long	20
	.long	13
	.long	16
	.long	13
	.long	16
	.long	16
	.long	20
	.long	16
	.long	20
	.long	14
	.long	18
	.long	14
	.long	18
	.long	18
	.long	23
	.long	18
	.long	23
	.long	14
	.long	18
	.long	14
	.long	18
	.long	18
	.long	23
	.long	18
	.long	23
	.long	16
	.long	20
	.long	16
	.long	20
	.long	20
	.long	25
	.long	20
	.long	25
	.long	16
	.long	20
	.long	16
	.long	20
	.long	20
	.long	25
	.long	20
	.long	25
	.long	18
	.long	23
	.long	18
	.long	23
	.long	23
	.long	29
	.long	23
	.long	29
	.long	18
	.long	23
	.long	18
	.long	23
	.long	23
	.long	29
	.long	23
	.long	29
	.align 32
	.type	A, @object
	.size	A, 64
A:
	.long	16
	.long	20
	.long	16
	.long	20
	.long	20
	.long	25
	.long	20
	.long	25
	.long	16
	.long	20
	.long	16
	.long	20
	.long	20
	.long	25
	.long	20
	.long	25
	.text
	.globl	intrapred_luma
	.type	intrapred_luma, @function
intrapred_luma:
.LFB2:
	.file 1 "block.c"
	.loc 1 107 0
	.cfi_startproc
	pushq	%rbp	#
	.cfi_def_cfa_offset 16
	.cfi_offset 6, -16
	movq	%rsp, %rbp	#,
	.cfi_def_cfa_register 6
	subq	$336, %rsp	#,
	movl	%edi, -308(%rbp)	# img_x, img_x
	movl	%esi, -312(%rbp)	# img_y, img_y
	movq	%rdx, -320(%rbp)	# left_available, left_available
	movq	%rcx, -328(%rbp)	# up_available, up_available
	movq	%r8, -336(%rbp)	# all_available, all_available
	.loc 1 111 0
	movq	enc_picture(%rip), %rax	# enc_picture, enc_picture.0
	movq	6424(%rax), %rax	# enc_picture.0_19->imgY, tmp878
	movq	%rax, -264(%rbp)	# tmp878, imgY
	.loc 1 113 0
	movl	-308(%rbp), %eax	# img_x, tmp882
	andl	$15, %eax	#, tmp881
	movl	%eax, -276(%rbp)	# tmp881, ioff
	.loc 1 114 0
	movl	-312(%rbp), %eax	# img_y, tmp886
	andl	$15, %eax	#, tmp885
	movl	%eax, -272(%rbp)	# tmp885, joff
	.loc 1 115 0
	movq	img(%rip), %rax	# img, img.1
	movl	12(%rax), %eax	# img.1_25->current_mb_nr, tmp887
	movl	%eax, -268(%rbp)	# tmp887, mb_nr
	.loc 1 125 0
	movl	$0, -304(%rbp)	#, i
	jmp	.L2	#
.L3:
	.loc 1 127 0 discriminator 2
	leaq	-96(%rbp), %rcx	#, tmp888
	movl	-304(%rbp), %eax	# i, tmp890
	movslq	%eax, %rdx	# tmp890, tmp889
	movq	%rdx, %rax	# tmp889, tmp891
	addq	%rax, %rax	# tmp891
	addq	%rdx, %rax	# tmp889, tmp891
	salq	$3, %rax	#, tmp892
	addq	%rax, %rcx	# tmp891, D.11341
	movl	-304(%rbp), %eax	# i, tmp893
	movl	-272(%rbp), %edx	# joff, tmp894
	addl	%eax, %edx	# tmp893, D.11342
	movl	-276(%rbp), %eax	# ioff, tmp895
	leal	-1(%rax), %esi	#, D.11342
	movl	-268(%rbp), %eax	# mb_nr, tmp896
	movq	%rcx, %r8	# D.11341,
	movl	$1, %ecx	#,
	movl	%eax, %edi	# tmp896,
	call	getNeighbour	#
	.loc 1 125 0 discriminator 2
	addl	$1, -304(%rbp)	#, i
.L2:
	.loc 1 125 0 is_stmt 0 discriminator 1
	cmpl	$3, -304(%rbp)	#, i
	jle	.L3	#,
	.loc 1 131 0 is_stmt 1
	movl	-272(%rbp), %eax	# joff, tmp897
	leal	-1(%rax), %edx	#, D.11342
	leaq	-256(%rbp), %rcx	#, tmp898
	movl	-276(%rbp), %esi	# ioff, tmp899
	movl	-268(%rbp), %eax	# mb_nr, tmp900
	movq	%rcx, %r8	# tmp898,
	movl	$1, %ecx	#,
	movl	%eax, %edi	# tmp900,
	call	getNeighbour	#
	.loc 1 132 0
	movl	-272(%rbp), %eax	# joff, tmp901
	leal	-1(%rax), %edx	#, D.11342
	movl	-276(%rbp), %eax	# ioff, tmp902
	leal	4(%rax), %esi	#, D.11342
	leaq	-224(%rbp), %rcx	#, tmp903
	movl	-268(%rbp), %eax	# mb_nr, tmp904
	movq	%rcx, %r8	# tmp903,
	movl	$1, %ecx	#,
	movl	%eax, %edi	# tmp904,
	call	getNeighbour	#
	.loc 1 133 0
	movl	-272(%rbp), %eax	# joff, tmp905
	leal	-1(%rax), %edx	#, D.11342
	movl	-276(%rbp), %eax	# ioff, tmp906
	leal	-1(%rax), %esi	#, D.11342
	leaq	-192(%rbp), %rcx	#, tmp907
	movl	-268(%rbp), %eax	# mb_nr, tmp908
	movq	%rcx, %r8	# tmp907,
	movl	$1, %ecx	#,
	movl	%eax, %edi	# tmp908,
	call	getNeighbour	#
	.loc 1 135 0
	movl	-224(%rbp), %eax	# pix_c.available, D.11342
	testl	%eax, %eax	# D.11342
	je	.L4	#,
	.loc 1 135 0 is_stmt 0 discriminator 1
	cmpl	$4, -276(%rbp)	#, ioff
	je	.L5	#,
	.loc 1 135 0 discriminator 3
	cmpl	$12, -276(%rbp)	#, ioff
	jne	.L6	#,
.L5:
	.loc 1 135 0 discriminator 4
	cmpl	$4, -272(%rbp)	#, joff
	je	.L4	#,
	.loc 1 135 0 discriminator 1
	cmpl	$12, -272(%rbp)	#, joff
	je	.L4	#,
.L6:
	movl	$1, %eax	#, iftmp.2
	jmp	.L7	#
.L4:
	.loc 1 135 0 discriminator 2
	movl	$0, %eax	#, iftmp.2
.L7:
	.loc 1 135 0 discriminator 5
	movl	%eax, -224(%rbp)	# iftmp.2, pix_c.available
	.loc 1 137 0 is_stmt 1 discriminator 5
	movq	input(%rip), %rax	# input, input.3
	movl	216(%rax), %eax	# input.3_40->UseConstrainedIntraPred, D.11342
	testl	%eax, %eax	# D.11342
	je	.L8	#,
	.loc 1 139 0
	movl	$0, -304(%rbp)	#, i
	movl	$1, -288(%rbp)	#, block_available_left
	jmp	.L9	#
.L12:
	.loc 1 140 0
	movl	-304(%rbp), %eax	# i, tmp910
	movslq	%eax, %rdx	# tmp910, tmp909
	movq	%rdx, %rax	# tmp909, tmp911
	addq	%rax, %rax	# tmp911
	addq	%rdx, %rax	# tmp909, tmp911
	salq	$3, %rax	#, tmp912
	addq	%rbp, %rax	#, tmp913
	subq	$96, %rax	#, tmp914
	movl	(%rax), %eax	# pix_a[i_2].available, D.11342
	testl	%eax, %eax	# D.11342
	je	.L10	#,
	.loc 1 140 0 is_stmt 0 discriminator 1
	movq	img(%rip), %rax	# img, img.5
	movq	71784(%rax), %rcx	# img.5_45->intra_block, D.11343
	movl	-304(%rbp), %eax	# i, tmp916
	movslq	%eax, %rdx	# tmp916, tmp915
	movq	%rdx, %rax	# tmp915, tmp917
	addq	%rax, %rax	# tmp917
	addq	%rdx, %rax	# tmp915, tmp917
	salq	$3, %rax	#, tmp918
	addq	%rbp, %rax	#, tmp919
	subq	$96, %rax	#, tmp920
	movl	4(%rax), %eax	# pix_a[i_2].mb_addr, D.11342
	cltq
	salq	$2, %rax	#, D.11344
	addq	%rcx, %rax	# D.11343, D.11343
	movl	(%rax), %eax	# *_50, iftmp.4
	jmp	.L11	#
.L10:
	.loc 1 140 0 discriminator 2
	movl	$0, %eax	#, iftmp.4
.L11:
	.loc 1 140 0 discriminator 3
	andl	%eax, -288(%rbp)	# iftmp.4, block_available_left
	.loc 1 139 0 is_stmt 1 discriminator 3
	addl	$1, -304(%rbp)	#, i
.L9:
	.loc 1 139 0 is_stmt 0 discriminator 1
	cmpl	$3, -304(%rbp)	#, i
	jle	.L12	#,
	.loc 1 141 0 is_stmt 1
	movl	-256(%rbp), %eax	# pix_b.available, D.11342
	testl	%eax, %eax	# D.11342
	je	.L13	#,
	.loc 1 141 0 is_stmt 0 discriminator 1
	movq	img(%rip), %rax	# img, img.7
	movq	71784(%rax), %rax	# img.7_56->intra_block, D.11343
	movl	-252(%rbp), %edx	# pix_b.mb_addr, D.11342
	movslq	%edx, %rdx	# D.11342, D.11344
	salq	$2, %rdx	#, D.11344
	addq	%rdx, %rax	# D.11344, D.11343
	movl	(%rax), %eax	# *_61, iftmp.6
	jmp	.L14	#
.L13:
	.loc 1 141 0 discriminator 2
	movl	$0, %eax	#, iftmp.6
.L14:
	.loc 1 141 0 discriminator 3
	movl	%eax, -292(%rbp)	# iftmp.6, block_available_up
	.loc 1 142 0 is_stmt 1 discriminator 3
	movl	-224(%rbp), %eax	# pix_c.available, D.11342
	testl	%eax, %eax	# D.11342
	je	.L15	#,
	.loc 1 142 0 is_stmt 0 discriminator 1
	movq	img(%rip), %rax	# img, img.9
	movq	71784(%rax), %rax	# img.9_66->intra_block, D.11343
	movl	-220(%rbp), %edx	# pix_c.mb_addr, D.11342
	movslq	%edx, %rdx	# D.11342, D.11344
	salq	$2, %rdx	#, D.11344
	addq	%rdx, %rax	# D.11344, D.11343
	movl	(%rax), %eax	# *_71, iftmp.8
	jmp	.L16	#
.L15:
	.loc 1 142 0 discriminator 2
	movl	$0, %eax	#, iftmp.8
.L16:
	.loc 1 142 0 discriminator 3
	movl	%eax, -280(%rbp)	# iftmp.8, block_available_up_right
	.loc 1 143 0 is_stmt 1 discriminator 3
	movl	-192(%rbp), %eax	# pix_d.available, D.11342
	testl	%eax, %eax	# D.11342
	je	.L17	#,
	.loc 1 143 0 is_stmt 0 discriminator 1
	movq	img(%rip), %rax	# img, img.11
	movq	71784(%rax), %rax	# img.11_76->intra_block, D.11343
	movl	-188(%rbp), %edx	# pix_d.mb_addr, D.11342
	movslq	%edx, %rdx	# D.11342, D.11344
	salq	$2, %rdx	#, D.11344
	addq	%rdx, %rax	# D.11344, D.11343
	movl	(%rax), %eax	# *_81, iftmp.10
	jmp	.L18	#
.L17:
	.loc 1 143 0 discriminator 2
	movl	$0, %eax	#, iftmp.10
.L18:
	.loc 1 143 0 discriminator 1
	movl	%eax, -284(%rbp)	# iftmp.10, block_available_up_left
	jmp	.L19	#
.L8:
	.loc 1 147 0 is_stmt 1
	movl	-96(%rbp), %eax	# pix_a[0].available, tmp921
	movl	%eax, -288(%rbp)	# tmp921, block_available_left
	.loc 1 148 0
	movl	-256(%rbp), %eax	# pix_b.available, tmp922
	movl	%eax, -292(%rbp)	# tmp922, block_available_up
	.loc 1 149 0
	movl	-224(%rbp), %eax	# pix_c.available, tmp923
	movl	%eax, -280(%rbp)	# tmp923, block_available_up_right
	.loc 1 150 0
	movl	-192(%rbp), %eax	# pix_d.available, tmp924
	movl	%eax, -284(%rbp)	# tmp924, block_available_up_left
.L19:
	.loc 1 153 0
	movq	-320(%rbp), %rax	# left_available, tmp925
	movl	-288(%rbp), %edx	# block_available_left, tmp926
	movl	%edx, (%rax)	# tmp926, *left_available_89(D)
	.loc 1 154 0
	movq	-328(%rbp), %rax	# up_available, tmp927
	movl	-292(%rbp), %edx	# block_available_up, tmp928
	movl	%edx, (%rax)	# tmp928, *up_available_90(D)
	.loc 1 155 0
	cmpl	$0, -292(%rbp)	#, block_available_up
	je	.L20	#,
	.loc 1 155 0 is_stmt 0 discriminator 1
	cmpl	$0, -288(%rbp)	#, block_available_left
	je	.L20	#,
	cmpl	$0, -284(%rbp)	#, block_available_up_left
	je	.L20	#,
	.loc 1 155 0 discriminator 3
	movl	$1, %eax	#, iftmp.12
	jmp	.L21	#
.L20:
	.loc 1 155 0 discriminator 2
	movl	$0, %eax	#, iftmp.12
.L21:
	.loc 1 155 0 discriminator 4
	movq	-336(%rbp), %rdx	# all_available, tmp929
	movl	%eax, (%rdx)	# iftmp.12, *all_available_93(D)
	.loc 1 157 0 is_stmt 1 discriminator 4
	movl	-308(%rbp), %eax	# img_x, tmp933
	andl	$15, %eax	#, tmp932
	movl	%eax, -304(%rbp)	# tmp932, i
	.loc 1 158 0 discriminator 4
	movl	-312(%rbp), %eax	# img_y, tmp937
	andl	$15, %eax	#, tmp936
	movl	%eax, -300(%rbp)	# tmp936, j
	.loc 1 161 0 discriminator 4
	cmpl	$0, -292(%rbp)	#, block_available_up
	je	.L22	#,
	.loc 1 163 0
	movl	-236(%rbp), %eax	# pix_b.pos_y, D.11342
	cltq
	leaq	0(,%rax,8), %rdx	#, D.11344
	movq	-264(%rbp), %rax	# imgY, tmp938
	addq	%rdx, %rax	# D.11344, D.11345
	movq	(%rax), %rax	# *_99, D.11346
	movl	-240(%rbp), %edx	# pix_b.pos_x, D.11342
	movslq	%edx, %rdx	# D.11342, D.11344
	addq	%rdx, %rdx	# D.11344
	addq	%rdx, %rax	# D.11344, D.11346
	movzwl	(%rax), %eax	# *_104, D.11347
	movzwl	%ax, %eax	# D.11347, D.11342
	movl	%eax, -156(%rbp)	# D.11342, PredPel
	.loc 1 164 0
	movl	-236(%rbp), %eax	# pix_b.pos_y, D.11342
	cltq
	leaq	0(,%rax,8), %rdx	#, D.11344
	movq	-264(%rbp), %rax	# imgY, tmp939
	addq	%rdx, %rax	# D.11344, D.11345
	movq	(%rax), %rax	# *_110, D.11346
	movl	-240(%rbp), %edx	# pix_b.pos_x, D.11342
	movslq	%edx, %rdx	# D.11342, D.11348
	addq	$1, %rdx	#, D.11348
	addq	%rdx, %rdx	# D.11348
	addq	%rdx, %rax	# D.11348, D.11346
	movzwl	(%rax), %eax	# *_116, D.11347
	movzwl	%ax, %eax	# D.11347, D.11342
	movl	%eax, -152(%rbp)	# D.11342, PredPel
	.loc 1 165 0
	movl	-236(%rbp), %eax	# pix_b.pos_y, D.11342
	cltq
	leaq	0(,%rax,8), %rdx	#, D.11344
	movq	-264(%rbp), %rax	# imgY, tmp940
	addq	%rdx, %rax	# D.11344, D.11345
	movq	(%rax), %rax	# *_122, D.11346
	movl	-240(%rbp), %edx	# pix_b.pos_x, D.11342
	movslq	%edx, %rdx	# D.11342, D.11348
	addq	$2, %rdx	#, D.11348
	addq	%rdx, %rdx	# D.11348
	addq	%rdx, %rax	# D.11348, D.11346
	movzwl	(%rax), %eax	# *_128, D.11347
	movzwl	%ax, %eax	# D.11347, D.11342
	movl	%eax, -148(%rbp)	# D.11342, PredPel
	.loc 1 166 0
	movl	-236(%rbp), %eax	# pix_b.pos_y, D.11342
	cltq
	leaq	0(,%rax,8), %rdx	#, D.11344
	movq	-264(%rbp), %rax	# imgY, tmp941
	addq	%rdx, %rax	# D.11344, D.11345
	movq	(%rax), %rax	# *_134, D.11346
	movl	-240(%rbp), %edx	# pix_b.pos_x, D.11342
	movslq	%edx, %rdx	# D.11342, D.11348
	addq	$3, %rdx	#, D.11348
	addq	%rdx, %rdx	# D.11348
	addq	%rdx, %rax	# D.11348, D.11346
	movzwl	(%rax), %eax	# *_140, D.11347
	movzwl	%ax, %eax	# D.11347, D.11342
	movl	%eax, -144(%rbp)	# D.11342, PredPel
	jmp	.L23	#
.L22:
	.loc 1 171 0
	movq	img(%rip), %rax	# img, img.13
	movl	72680(%rax), %eax	# img.13_143->dc_pred_value, D.11349
	movl	%eax, -144(%rbp)	# D.11342, PredPel
	movl	-144(%rbp), %eax	# PredPel, D.11342
	movl	%eax, -148(%rbp)	# D.11342, PredPel
	movl	-148(%rbp), %eax	# PredPel, D.11342
	movl	%eax, -152(%rbp)	# D.11342, PredPel
	movl	-152(%rbp), %eax	# PredPel, D.11342
	movl	%eax, -156(%rbp)	# D.11342, PredPel
.L23:
	.loc 1 174 0
	cmpl	$0, -280(%rbp)	#, block_available_up_right
	je	.L24	#,
	.loc 1 176 0
	movl	-204(%rbp), %eax	# pix_c.pos_y, D.11342
	cltq
	leaq	0(,%rax,8), %rdx	#, D.11344
	movq	-264(%rbp), %rax	# imgY, tmp942
	addq	%rdx, %rax	# D.11344, D.11345
	movq	(%rax), %rax	# *_152, D.11346
	movl	-208(%rbp), %edx	# pix_c.pos_x, D.11342
	movslq	%edx, %rdx	# D.11342, D.11344
	addq	%rdx, %rdx	# D.11344
	addq	%rdx, %rax	# D.11344, D.11346
	movzwl	(%rax), %eax	# *_157, D.11347
	movzwl	%ax, %eax	# D.11347, D.11342
	movl	%eax, -140(%rbp)	# D.11342, PredPel
	.loc 1 177 0
	movl	-204(%rbp), %eax	# pix_c.pos_y, D.11342
	cltq
	leaq	0(,%rax,8), %rdx	#, D.11344
	movq	-264(%rbp), %rax	# imgY, tmp943
	addq	%rdx, %rax	# D.11344, D.11345
	movq	(%rax), %rax	# *_163, D.11346
	movl	-208(%rbp), %edx	# pix_c.pos_x, D.11342
	movslq	%edx, %rdx	# D.11342, D.11348
	addq	$1, %rdx	#, D.11348
	addq	%rdx, %rdx	# D.11348
	addq	%rdx, %rax	# D.11348, D.11346
	movzwl	(%rax), %eax	# *_169, D.11347
	movzwl	%ax, %eax	# D.11347, D.11342
	movl	%eax, -136(%rbp)	# D.11342, PredPel
	.loc 1 178 0
	movl	-204(%rbp), %eax	# pix_c.pos_y, D.11342
	cltq
	leaq	0(,%rax,8), %rdx	#, D.11344
	movq	-264(%rbp), %rax	# imgY, tmp944
	addq	%rdx, %rax	# D.11344, D.11345
	movq	(%rax), %rax	# *_175, D.11346
	movl	-208(%rbp), %edx	# pix_c.pos_x, D.11342
	movslq	%edx, %rdx	# D.11342, D.11348
	addq	$2, %rdx	#, D.11348
	addq	%rdx, %rdx	# D.11348
	addq	%rdx, %rax	# D.11348, D.11346
	movzwl	(%rax), %eax	# *_181, D.11347
	movzwl	%ax, %eax	# D.11347, D.11342
	movl	%eax, -132(%rbp)	# D.11342, PredPel
	.loc 1 179 0
	movl	-204(%rbp), %eax	# pix_c.pos_y, D.11342
	cltq
	leaq	0(,%rax,8), %rdx	#, D.11344
	movq	-264(%rbp), %rax	# imgY, tmp945
	addq	%rdx, %rax	# D.11344, D.11345
	movq	(%rax), %rax	# *_187, D.11346
	movl	-208(%rbp), %edx	# pix_c.pos_x, D.11342
	movslq	%edx, %rdx	# D.11342, D.11348
	addq	$3, %rdx	#, D.11348
	addq	%rdx, %rdx	# D.11348
	addq	%rdx, %rax	# D.11348, D.11346
	movzwl	(%rax), %eax	# *_193, D.11347
	movzwl	%ax, %eax	# D.11347, D.11342
	movl	%eax, -128(%rbp)	# D.11342, PredPel
	jmp	.L25	#
.L24:
	.loc 1 183 0
	movl	-144(%rbp), %eax	# PredPel, D.11342
	movl	%eax, -128(%rbp)	# D.11342, PredPel
	movl	-128(%rbp), %eax	# PredPel, D.11342
	movl	%eax, -132(%rbp)	# D.11342, PredPel
	movl	-132(%rbp), %eax	# PredPel, D.11342
	movl	%eax, -136(%rbp)	# D.11342, PredPel
	movl	-136(%rbp), %eax	# PredPel, D.11342
	movl	%eax, -140(%rbp)	# D.11342, PredPel
.L25:
	.loc 1 186 0
	cmpl	$0, -288(%rbp)	#, block_available_left
	je	.L26	#,
	.loc 1 188 0
	movl	-76(%rbp), %eax	# pix_a[0].pos_y, D.11342
	cltq
	leaq	0(,%rax,8), %rdx	#, D.11344
	movq	-264(%rbp), %rax	# imgY, tmp946
	addq	%rdx, %rax	# D.11344, D.11345
	movq	(%rax), %rax	# *_203, D.11346
	movl	-80(%rbp), %edx	# pix_a[0].pos_x, D.11342
	movslq	%edx, %rdx	# D.11342, D.11344
	addq	%rdx, %rdx	# D.11344
	addq	%rdx, %rax	# D.11344, D.11346
	movzwl	(%rax), %eax	# *_208, D.11347
	movzwl	%ax, %eax	# D.11347, D.11342
	movl	%eax, -124(%rbp)	# D.11342, PredPel
	.loc 1 189 0
	movl	-52(%rbp), %eax	# pix_a[1].pos_y, D.11342
	cltq
	leaq	0(,%rax,8), %rdx	#, D.11344
	movq	-264(%rbp), %rax	# imgY, tmp947
	addq	%rdx, %rax	# D.11344, D.11345
	movq	(%rax), %rax	# *_214, D.11346
	movl	-56(%rbp), %edx	# pix_a[1].pos_x, D.11342
	movslq	%edx, %rdx	# D.11342, D.11344
	addq	%rdx, %rdx	# D.11344
	addq	%rdx, %rax	# D.11344, D.11346
	movzwl	(%rax), %eax	# *_219, D.11347
	movzwl	%ax, %eax	# D.11347, D.11342
	movl	%eax, -120(%rbp)	# D.11342, PredPel
	.loc 1 190 0
	movl	-28(%rbp), %eax	# pix_a[2].pos_y, D.11342
	cltq
	leaq	0(,%rax,8), %rdx	#, D.11344
	movq	-264(%rbp), %rax	# imgY, tmp948
	addq	%rdx, %rax	# D.11344, D.11345
	movq	(%rax), %rax	# *_225, D.11346
	movl	-32(%rbp), %edx	# pix_a[2].pos_x, D.11342
	movslq	%edx, %rdx	# D.11342, D.11344
	addq	%rdx, %rdx	# D.11344
	addq	%rdx, %rax	# D.11344, D.11346
	movzwl	(%rax), %eax	# *_230, D.11347
	movzwl	%ax, %eax	# D.11347, D.11342
	movl	%eax, -116(%rbp)	# D.11342, PredPel
	.loc 1 191 0
	movl	-4(%rbp), %eax	# pix_a[3].pos_y, D.11342
	cltq
	leaq	0(,%rax,8), %rdx	#, D.11344
	movq	-264(%rbp), %rax	# imgY, tmp949
	addq	%rdx, %rax	# D.11344, D.11345
	movq	(%rax), %rax	# *_236, D.11346
	movl	-8(%rbp), %edx	# pix_a[3].pos_x, D.11342
	movslq	%edx, %rdx	# D.11342, D.11344
	addq	%rdx, %rdx	# D.11344
	addq	%rdx, %rax	# D.11344, D.11346
	movzwl	(%rax), %eax	# *_241, D.11347
	movzwl	%ax, %eax	# D.11347, D.11342
	movl	%eax, -112(%rbp)	# D.11342, PredPel
	jmp	.L27	#
.L26:
	.loc 1 195 0
	movq	img(%rip), %rax	# img, img.14
	movl	72680(%rax), %eax	# img.14_244->dc_pred_value, D.11349
	movl	%eax, -112(%rbp)	# D.11342, PredPel
	movl	-112(%rbp), %eax	# PredPel, D.11342
	movl	%eax, -116(%rbp)	# D.11342, PredPel
	movl	-116(%rbp), %eax	# PredPel, D.11342
	movl	%eax, -120(%rbp)	# D.11342, PredPel
	movl	-120(%rbp), %eax	# PredPel, D.11342
	movl	%eax, -124(%rbp)	# D.11342, PredPel
.L27:
	.loc 1 198 0
	cmpl	$0, -284(%rbp)	#, block_available_up_left
	je	.L28	#,
	.loc 1 200 0
	movl	-172(%rbp), %eax	# pix_d.pos_y, D.11342
	cltq
	leaq	0(,%rax,8), %rdx	#, D.11344
	movq	-264(%rbp), %rax	# imgY, tmp950
	addq	%rdx, %rax	# D.11344, D.11345
	movq	(%rax), %rax	# *_253, D.11346
	movl	-176(%rbp), %edx	# pix_d.pos_x, D.11342
	movslq	%edx, %rdx	# D.11342, D.11344
	addq	%rdx, %rdx	# D.11344
	addq	%rdx, %rax	# D.11344, D.11346
	movzwl	(%rax), %eax	# *_258, D.11347
	movzwl	%ax, %eax	# D.11347, D.11342
	movl	%eax, -160(%rbp)	# D.11342, PredPel
	jmp	.L29	#
.L28:
	.loc 1 204 0
	movq	img(%rip), %rax	# img, img.15
	movl	72680(%rax), %eax	# img.15_261->dc_pred_value, D.11349
	movl	%eax, -160(%rbp)	# D.11342, PredPel
.L29:
	.loc 1 207 0
	movl	$0, -304(%rbp)	#, i
	jmp	.L30	#
.L31:
	.loc 1 208 0 discriminator 2
	movq	img(%rip), %rax	# img, img.16
	movl	-304(%rbp), %edx	# i, tmp952
	movslq	%edx, %rdx	# tmp952, tmp951
	salq	$9, %rdx	#, tmp953
	addq	%rdx, %rax	# tmp953, tmp954
	addq	$176, %rax	#, tmp955
	movw	$-1, 8(%rax)	#, img.16_265->mprr
	.loc 1 207 0 discriminator 2
	addl	$1, -304(%rbp)	#, i
.L30:
	.loc 1 207 0 is_stmt 0 discriminator 1
	cmpl	$8, -304(%rbp)	#, i
	jle	.L31	#,
	.loc 1 213 0 is_stmt 1
	movl	$0, -296(%rbp)	#, s0
	.loc 1 214 0
	cmpl	$0, -292(%rbp)	#, block_available_up
	je	.L32	#,
	.loc 1 214 0 is_stmt 0 discriminator 1
	cmpl	$0, -288(%rbp)	#, block_available_left
	je	.L32	#,
	.loc 1 217 0 is_stmt 1
	movl	-156(%rbp), %edx	# PredPel, D.11342
	movl	-152(%rbp), %eax	# PredPel, D.11342
	addl	%eax, %edx	# D.11342, D.11342
	movl	-148(%rbp), %eax	# PredPel, D.11342
	addl	%eax, %edx	# D.11342, D.11342
	movl	-144(%rbp), %eax	# PredPel, D.11342
	addl	%eax, %edx	# D.11342, D.11342
	movl	-124(%rbp), %eax	# PredPel, D.11342
	addl	%eax, %edx	# D.11342, D.11342
	movl	-120(%rbp), %eax	# PredPel, D.11342
	addl	%eax, %edx	# D.11342, D.11342
	movl	-116(%rbp), %eax	# PredPel, D.11342
	addl	%eax, %edx	# D.11342, D.11342
	movl	-112(%rbp), %eax	# PredPel, D.11342
	addl	%edx, %eax	# D.11342, D.11342
	addl	$4, %eax	#, D.11342
	leal	7(%rax), %edx	#, tmp957
	testl	%eax, %eax	# tmp956
	cmovs	%edx, %eax	# tmp957,, tmp956
	sarl	$3, %eax	#, tmp958
	movl	%eax, -296(%rbp)	# tmp958, s0
	jmp	.L33	#
.L32:
	.loc 1 219 0
	cmpl	$0, -292(%rbp)	#, block_available_up
	jne	.L34	#,
	.loc 1 219 0 is_stmt 0 discriminator 1
	cmpl	$0, -288(%rbp)	#, block_available_left
	je	.L34	#,
	.loc 1 222 0 is_stmt 1
	movl	-124(%rbp), %edx	# PredPel, D.11342
	movl	-120(%rbp), %eax	# PredPel, D.11342
	addl	%eax, %edx	# D.11342, D.11342
	movl	-116(%rbp), %eax	# PredPel, D.11342
	addl	%eax, %edx	# D.11342, D.11342
	movl	-112(%rbp), %eax	# PredPel, D.11342
	addl	%edx, %eax	# D.11342, D.11342
	addl	$2, %eax	#, D.11342
	leal	3(%rax), %edx	#, tmp960
	testl	%eax, %eax	# tmp959
	cmovs	%edx, %eax	# tmp960,, tmp959
	sarl	$2, %eax	#, tmp961
	movl	%eax, -296(%rbp)	# tmp961, s0
	jmp	.L33	#
.L34:
	.loc 1 224 0
	cmpl	$0, -292(%rbp)	#, block_available_up
	je	.L35	#,
	.loc 1 224 0 is_stmt 0 discriminator 1
	cmpl	$0, -288(%rbp)	#, block_available_left
	jne	.L35	#,
	.loc 1 227 0 is_stmt 1
	movl	-156(%rbp), %edx	# PredPel, D.11342
	movl	-152(%rbp), %eax	# PredPel, D.11342
	addl	%eax, %edx	# D.11342, D.11342
	movl	-148(%rbp), %eax	# PredPel, D.11342
	addl	%eax, %edx	# D.11342, D.11342
	movl	-144(%rbp), %eax	# PredPel, D.11342
	addl	%edx, %eax	# D.11342, D.11342
	addl	$2, %eax	#, D.11342
	leal	3(%rax), %edx	#, tmp963
	testl	%eax, %eax	# tmp962
	cmovs	%edx, %eax	# tmp963,, tmp962
	sarl	$2, %eax	#, tmp964
	movl	%eax, -296(%rbp)	# tmp964, s0
	jmp	.L33	#
.L35:
	.loc 1 232 0
	movq	img(%rip), %rax	# img, img.17
	movl	72680(%rax), %eax	# img.17_303->dc_pred_value, D.11349
	movl	%eax, -296(%rbp)	# D.11349, s0
.L33:
	.loc 1 235 0
	movl	$0, -300(%rbp)	#, j
	jmp	.L36	#
.L39:
	.loc 1 237 0
	movl	$0, -304(%rbp)	#, i
	jmp	.L37	#
.L38:
	.loc 1 240 0 discriminator 2
	movq	img(%rip), %rax	# img, img.18
	movl	-296(%rbp), %edx	# s0, tmp965
	movl	-300(%rbp), %ecx	# j, tmp967
	movslq	%ecx, %rcx	# tmp967, tmp966
	movl	-304(%rbp), %esi	# i, tmp969
	movslq	%esi, %rsi	# tmp969, tmp968
	salq	$4, %rsi	#, tmp970
	addq	%rsi, %rcx	# tmp970, tmp971
	addq	$600, %rcx	#, tmp972
	movw	%dx, 8(%rax,%rcx,2)	# D.11347, img.18_308->mprr
	.loc 1 237 0 discriminator 2
	addl	$1, -304(%rbp)	#, i
.L37:
	.loc 1 237 0 is_stmt 0 discriminator 1
	cmpl	$3, -304(%rbp)	#, i
	jle	.L38	#,
	.loc 1 235 0 is_stmt 1
	addl	$1, -300(%rbp)	#, j
.L36:
	.loc 1 235 0 is_stmt 0 discriminator 1
	cmpl	$3, -300(%rbp)	#, j
	jle	.L39	#,
	.loc 1 248 0 is_stmt 1
	movl	$0, -304(%rbp)	#, i
	jmp	.L40	#
.L41:
	.loc 1 250 0 discriminator 2
	movq	img(%rip), %rsi	# img, img.19
	.loc 1 251 0 discriminator 2
	movq	img(%rip), %rax	# img, img.20
	.loc 1 252 0 discriminator 2
	movq	img(%rip), %rdx	# img, img.21
	.loc 1 253 0 discriminator 2
	movq	img(%rip), %rcx	# img, img.22
	movl	-304(%rbp), %edi	# i, tmp973
	movslq	%edi, %rdi	# tmp973, D.11348
	addq	$1, %rdi	#, D.11348
	movl	-160(%rbp,%rdi,4), %edi	# PredPel, D.11342
	movl	-304(%rbp), %r8d	# i, tmp975
	movslq	%r8d, %r8	# tmp975, tmp974
	addq	$136, %r8	#, tmp976
	movw	%di, 8(%rcx,%r8,2)	# D.11347, img.22_316->mprr
	movl	-304(%rbp), %edi	# i, tmp978
	movslq	%edi, %rdi	# tmp978, tmp977
	addq	$136, %rdi	#, tmp979
	movzwl	8(%rcx,%rdi,2), %ecx	# img.22_316->mprr, D.11347
	.loc 1 252 0 discriminator 2
	movl	-304(%rbp), %edi	# i, tmp981
	movslq	%edi, %rdi	# tmp981, tmp980
	addq	$120, %rdi	#, tmp982
	movw	%cx, 8(%rdx,%rdi,2)	# D.11347, img.21_315->mprr
	movl	-304(%rbp), %ecx	# i, tmp984
	movslq	%ecx, %rcx	# tmp984, tmp983
	addq	$120, %rcx	#, tmp985
	movzwl	8(%rdx,%rcx,2), %edx	# img.21_315->mprr, D.11347
	.loc 1 251 0 discriminator 2
	movl	-304(%rbp), %ecx	# i, tmp987
	movslq	%ecx, %rcx	# tmp987, tmp986
	addq	$104, %rcx	#, tmp988
	movw	%dx, 8(%rax,%rcx,2)	# D.11347, img.20_314->mprr
	movl	-304(%rbp), %edx	# i, tmp990
	movslq	%edx, %rdx	# tmp990, tmp989
	addq	$104, %rdx	#, tmp991
	movzwl	8(%rax,%rdx,2), %eax	# img.20_314->mprr, D.11347
	.loc 1 250 0 discriminator 2
	movl	-304(%rbp), %edx	# i, tmp993
	movslq	%edx, %rdx	# tmp993, tmp992
	addq	$88, %rdx	#, tmp994
	movw	%ax, 8(%rsi,%rdx,2)	# D.11347, img.19_313->mprr
	.loc 1 254 0 discriminator 2
	movq	img(%rip), %rdi	# img, img.23
	.loc 1 255 0 discriminator 2
	movq	img(%rip), %rax	# img, img.24
	.loc 1 256 0 discriminator 2
	movq	img(%rip), %rdx	# img, img.25
	.loc 1 257 0 discriminator 2
	movq	img(%rip), %rcx	# img, img.26
	movl	-304(%rbp), %esi	# i, tmp995
	movslq	%esi, %rsi	# tmp995, D.11348
	addq	$9, %rsi	#, D.11348
	movl	-160(%rbp,%rsi,4), %esi	# PredPel, D.11342
	movl	-304(%rbp), %r8d	# i, tmp997
	movslq	%r8d, %r8	# tmp997, tmp996
	salq	$5, %r8	#, tmp998
	addq	%rcx, %r8	# img.26, tmp999
	addq	$694, %r8	#, tmp1000
	movw	%si, 8(%r8)	# D.11347, img.26_327->mprr
	movl	-304(%rbp), %esi	# i, tmp1002
	movslq	%esi, %rsi	# tmp1002, tmp1001
	salq	$5, %rsi	#, tmp1003
	addq	%rsi, %rcx	# tmp1003, tmp1004
	addq	$694, %rcx	#, tmp1005
	movzwl	8(%rcx), %ecx	# img.26_327->mprr, D.11347
	.loc 1 256 0 discriminator 2
	movl	-304(%rbp), %esi	# i, tmp1007
	movslq	%esi, %rsi	# tmp1007, tmp1006
	salq	$5, %rsi	#, tmp1008
	addq	%rdx, %rsi	# img.25, tmp1009
	addq	$692, %rsi	#, tmp1010
	movw	%cx, 8(%rsi)	# D.11347, img.25_326->mprr
	movl	-304(%rbp), %ecx	# i, tmp1012
	movslq	%ecx, %rcx	# tmp1012, tmp1011
	salq	$5, %rcx	#, tmp1013
	addq	%rcx, %rdx	# tmp1013, tmp1014
	addq	$692, %rdx	#, tmp1015
	movzwl	8(%rdx), %edx	# img.25_326->mprr, D.11347
	.loc 1 255 0 discriminator 2
	movl	-304(%rbp), %ecx	# i, tmp1017
	movslq	%ecx, %rcx	# tmp1017, tmp1016
	salq	$5, %rcx	#, tmp1018
	addq	%rax, %rcx	# img.24, tmp1019
	addq	$690, %rcx	#, tmp1020
	movw	%dx, 8(%rcx)	# D.11347, img.24_325->mprr
	movl	-304(%rbp), %edx	# i, tmp1022
	movslq	%edx, %rdx	# tmp1022, tmp1021
	salq	$5, %rdx	#, tmp1023
	addq	%rdx, %rax	# tmp1023, tmp1024
	addq	$690, %rax	#, tmp1025
	movzwl	8(%rax), %eax	# img.24_325->mprr, D.11347
	.loc 1 254 0 discriminator 2
	movl	-304(%rbp), %edx	# i, tmp1027
	movslq	%edx, %rdx	# tmp1027, tmp1026
	addq	$16, %rdx	#, tmp1028
	salq	$5, %rdx	#, tmp1029
	addq	%rdi, %rdx	# img.23, tmp1030
	addq	$176, %rdx	#, tmp1031
	movw	%ax, 8(%rdx)	# D.11347, img.23_324->mprr
	.loc 1 248 0 discriminator 2
	addl	$1, -304(%rbp)	#, i
.L40:
	.loc 1 248 0 is_stmt 0 discriminator 1
	cmpl	$3, -304(%rbp)	#, i
	jle	.L41	#,
	.loc 1 260 0 is_stmt 1
	cmpl	$0, -292(%rbp)	#, block_available_up
	jne	.L42	#,
	.loc 1 260 0 is_stmt 0 discriminator 1
	movq	img(%rip), %rax	# img, img.27
	movw	$-1, 184(%rax)	#, img.27_336->mprr
.L42:
	.loc 1 261 0 is_stmt 1
	cmpl	$0, -288(%rbp)	#, block_available_left
	jne	.L43	#,
	.loc 1 261 0 is_stmt 0 discriminator 1
	movq	img(%rip), %rax	# img, img.28
	movw	$-1, 696(%rax)	#, img.28_337->mprr
.L43:
	.loc 1 263 0 is_stmt 1
	cmpl	$0, -292(%rbp)	#, block_available_up
	je	.L44	#,
	.loc 1 266 0
	movq	img(%rip), %rdx	# img, img.29
	movl	-156(%rbp), %ecx	# PredPel, D.11342
	movl	-148(%rbp), %eax	# PredPel, D.11342
	addl	%eax, %ecx	# D.11342, D.11342
	movl	-152(%rbp), %eax	# PredPel, D.11342
	addl	%eax, %eax	# D.11342
	addl	%ecx, %eax	# D.11342, D.11342
	addl	$2, %eax	#, D.11342
	leal	3(%rax), %ecx	#, tmp1033
	testl	%eax, %eax	# tmp1032
	cmovs	%ecx, %eax	# tmp1033,, tmp1032
	sarl	$2, %eax	#, tmp1034
	movw	%ax, 1720(%rdx)	# D.11347, img.29_338->mprr
	.loc 1 267 0
	movq	img(%rip), %rcx	# img, img.30
	.loc 1 268 0
	movq	img(%rip), %rdx	# img, img.31
	movl	-152(%rbp), %esi	# PredPel, D.11342
	movl	-144(%rbp), %eax	# PredPel, D.11342
	addl	%eax, %esi	# D.11342, D.11342
	movl	-148(%rbp), %eax	# PredPel, D.11342
	addl	%eax, %eax	# D.11342
	addl	%esi, %eax	# D.11342, D.11342
	addl	$2, %eax	#, D.11342
	leal	3(%rax), %esi	#, tmp1036
	testl	%eax, %eax	# tmp1035
	cmovs	%esi, %eax	# tmp1036,, tmp1035
	sarl	$2, %eax	#, tmp1037
	movw	%ax, 1752(%rdx)	# D.11347, img.31_349->mprr
	movzwl	1752(%rdx), %eax	# img.31_349->mprr, D.11347
	.loc 1 267 0
	movw	%ax, 1722(%rcx)	# D.11347, img.30_348->mprr
	.loc 1 269 0
	movq	img(%rip), %rsi	# img, img.32
	.loc 1 270 0
	movq	img(%rip), %rdx	# img, img.33
	.loc 1 271 0
	movq	img(%rip), %rcx	# img, img.34
	movl	-148(%rbp), %edi	# PredPel, D.11342
	movl	-140(%rbp), %eax	# PredPel, D.11342
	addl	%eax, %edi	# D.11342, D.11342
	movl	-144(%rbp), %eax	# PredPel, D.11342
	addl	%eax, %eax	# D.11342
	addl	%edi, %eax	# D.11342, D.11342
	addl	$2, %eax	#, D.11342
	leal	3(%rax), %edi	#, tmp1039
	testl	%eax, %eax	# tmp1038
	cmovs	%edi, %eax	# tmp1039,, tmp1038
	sarl	$2, %eax	#, tmp1040
	movw	%ax, 1784(%rcx)	# D.11347, img.34_362->mprr
	movzwl	1784(%rcx), %eax	# img.34_362->mprr, D.11347
	.loc 1 270 0
	movw	%ax, 1754(%rdx)	# D.11347, img.33_361->mprr
	movzwl	1754(%rdx), %eax	# img.33_361->mprr, D.11347
	.loc 1 269 0
	movw	%ax, 1724(%rsi)	# D.11347, img.32_360->mprr
	.loc 1 272 0
	movq	img(%rip), %rdi	# img, img.35
	.loc 1 273 0
	movq	img(%rip), %rdx	# img, img.36
	.loc 1 274 0
	movq	img(%rip), %rcx	# img, img.37
	.loc 1 275 0
	movq	img(%rip), %rsi	# img, img.38
	movl	-144(%rbp), %r8d	# PredPel, D.11342
	movl	-136(%rbp), %eax	# PredPel, D.11342
	addl	%eax, %r8d	# D.11342, D.11342
	movl	-140(%rbp), %eax	# PredPel, D.11342
	addl	%eax, %eax	# D.11342
	addl	%r8d, %eax	# D.11342, D.11342
	addl	$2, %eax	#, D.11342
	leal	3(%rax), %r8d	#, tmp1042
	testl	%eax, %eax	# tmp1041
	cmovs	%r8d, %eax	# tmp1042,, tmp1041
	sarl	$2, %eax	#, tmp1043
	movw	%ax, 1816(%rsi)	# D.11347, img.38_377->mprr
	movzwl	1816(%rsi), %eax	# img.38_377->mprr, D.11347
	.loc 1 274 0
	movw	%ax, 1786(%rcx)	# D.11347, img.37_376->mprr
	movzwl	1786(%rcx), %eax	# img.37_376->mprr, D.11347
	.loc 1 273 0
	movw	%ax, 1756(%rdx)	# D.11347, img.36_375->mprr
	movzwl	1756(%rdx), %eax	# img.36_375->mprr, D.11347
	.loc 1 272 0
	movw	%ax, 1726(%rdi)	# D.11347, img.35_374->mprr
	.loc 1 276 0
	movq	img(%rip), %rsi	# img, img.39
	.loc 1 277 0
	movq	img(%rip), %rdx	# img, img.40
	.loc 1 278 0
	movq	img(%rip), %rcx	# img, img.41
	movl	-140(%rbp), %edi	# PredPel, D.11342
	movl	-132(%rbp), %eax	# PredPel, D.11342
	addl	%eax, %edi	# D.11342, D.11342
	movl	-136(%rbp), %eax	# PredPel, D.11342
	addl	%eax, %eax	# D.11342
	addl	%edi, %eax	# D.11342, D.11342
	addl	$2, %eax	#, D.11342
	leal	3(%rax), %edi	#, tmp1045
	testl	%eax, %eax	# tmp1044
	cmovs	%edi, %eax	# tmp1045,, tmp1044
	sarl	$2, %eax	#, tmp1046
	movw	%ax, 1818(%rcx)	# D.11347, img.41_392->mprr
	movzwl	1818(%rcx), %eax	# img.41_392->mprr, D.11347
	.loc 1 277 0
	movw	%ax, 1788(%rdx)	# D.11347, img.40_391->mprr
	movzwl	1788(%rdx), %eax	# img.40_391->mprr, D.11347
	.loc 1 276 0
	movw	%ax, 1758(%rsi)	# D.11347, img.39_390->mprr
	.loc 1 279 0
	movq	img(%rip), %rcx	# img, img.42
	.loc 1 280 0
	movq	img(%rip), %rdx	# img, img.43
	movl	-136(%rbp), %esi	# PredPel, D.11342
	movl	-128(%rbp), %eax	# PredPel, D.11342
	addl	%eax, %esi	# D.11342, D.11342
	movl	-132(%rbp), %eax	# PredPel, D.11342
	addl	%eax, %eax	# D.11342
	addl	%esi, %eax	# D.11342, D.11342
	addl	$2, %eax	#, D.11342
	leal	3(%rax), %esi	#, tmp1048
	testl	%eax, %eax	# tmp1047
	cmovs	%esi, %eax	# tmp1048,, tmp1047
	sarl	$2, %eax	#, tmp1049
	movw	%ax, 1820(%rdx)	# D.11347, img.43_405->mprr
	movzwl	1820(%rdx), %eax	# img.43_405->mprr, D.11347
	.loc 1 279 0
	movw	%ax, 1790(%rcx)	# D.11347, img.42_404->mprr
	.loc 1 281 0
	movq	img(%rip), %rcx	# img, img.44
	movl	-132(%rbp), %esi	# PredPel, D.11342
	movl	-128(%rbp), %edx	# PredPel, D.11342
	movl	%edx, %eax	# D.11342, tmp1050
	addl	%eax, %eax	# tmp1050
	addl	%edx, %eax	# D.11342, D.11342
	addl	%esi, %eax	# D.11342, D.11342
	addl	$2, %eax	#, D.11342
	leal	3(%rax), %edx	#, tmp1052
	testl	%eax, %eax	# tmp1051
	cmovs	%edx, %eax	# tmp1052,, tmp1051
	sarl	$2, %eax	#, tmp1053
	movw	%ax, 1822(%rcx)	# D.11347, img.44_416->mprr
	.loc 1 284 0
	movq	img(%rip), %rdx	# img, img.45
	movl	-156(%rbp), %ecx	# PredPel, D.11342
	movl	-152(%rbp), %eax	# PredPel, D.11342
	addl	%ecx, %eax	# D.11342, D.11342
	addl	$1, %eax	#, D.11342
	movl	%eax, %ecx	# D.11342, tmp1054
	shrl	$31, %ecx	#, tmp1054
	addl	%ecx, %eax	# tmp1054, tmp1055
	sarl	%eax	# tmp1056
	movw	%ax, 3768(%rdx)	# D.11347, img.45_424->mprr
	.loc 1 285 0
	movq	img(%rip), %rcx	# img, img.46
	.loc 1 286 0
	movq	img(%rip), %rax	# img, img.47
	movl	-152(%rbp), %esi	# PredPel, D.11342
	movl	-148(%rbp), %edx	# PredPel, D.11342
	addl	%esi, %edx	# D.11342, D.11342
	addl	$1, %edx	#, D.11342
	movl	%edx, %esi	# D.11342, tmp1057
	shrl	$31, %esi	#, tmp1057
	addl	%esi, %edx	# tmp1057, tmp1058
	sarl	%edx	# tmp1059
	movw	%dx, 3832(%rax)	# D.11347, img.47_432->mprr
	movzwl	3832(%rax), %eax	# img.47_432->mprr, D.11347
	.loc 1 285 0
	movw	%ax, 3770(%rcx)	# D.11347, img.46_431->mprr
	.loc 1 287 0
	movq	img(%rip), %rcx	# img, img.48
	.loc 1 288 0
	movq	img(%rip), %rax	# img, img.49
	movl	-148(%rbp), %esi	# PredPel, D.11342
	movl	-144(%rbp), %edx	# PredPel, D.11342
	addl	%esi, %edx	# D.11342, D.11342
	addl	$1, %edx	#, D.11342
	movl	%edx, %esi	# D.11342, tmp1060
	shrl	$31, %esi	#, tmp1060
	addl	%esi, %edx	# tmp1060, tmp1061
	sarl	%edx	# tmp1062
	movw	%dx, 3834(%rax)	# D.11347, img.49_441->mprr
	movzwl	3834(%rax), %eax	# img.49_441->mprr, D.11347
	.loc 1 287 0
	movw	%ax, 3772(%rcx)	# D.11347, img.48_440->mprr
	.loc 1 289 0
	movq	img(%rip), %rcx	# img, img.50
	.loc 1 290 0
	movq	img(%rip), %rax	# img, img.51
	movl	-144(%rbp), %esi	# PredPel, D.11342
	movl	-140(%rbp), %edx	# PredPel, D.11342
	addl	%esi, %edx	# D.11342, D.11342
	addl	$1, %edx	#, D.11342
	movl	%edx, %esi	# D.11342, tmp1063
	shrl	$31, %esi	#, tmp1063
	addl	%esi, %edx	# tmp1063, tmp1064
	sarl	%edx	# tmp1065
	movw	%dx, 3836(%rax)	# D.11347, img.51_450->mprr
	movzwl	3836(%rax), %eax	# img.51_450->mprr, D.11347
	.loc 1 289 0
	movw	%ax, 3774(%rcx)	# D.11347, img.50_449->mprr
	.loc 1 291 0
	movq	img(%rip), %rdx	# img, img.52
	movl	-140(%rbp), %ecx	# PredPel, D.11342
	movl	-136(%rbp), %eax	# PredPel, D.11342
	addl	%ecx, %eax	# D.11342, D.11342
	addl	$1, %eax	#, D.11342
	movl	%eax, %ecx	# D.11342, tmp1066
	shrl	$31, %ecx	#, tmp1066
	addl	%ecx, %eax	# tmp1066, tmp1067
	sarl	%eax	# tmp1068
	movw	%ax, 3838(%rdx)	# D.11347, img.52_458->mprr
	.loc 1 292 0
	movq	img(%rip), %rdx	# img, img.53
	movl	-156(%rbp), %eax	# PredPel, D.11342
	movl	-152(%rbp), %ecx	# PredPel, D.11342
	addl	%ecx, %ecx	# D.11342
	addl	%eax, %ecx	# D.11342, D.11342
	movl	-148(%rbp), %eax	# PredPel, D.11342
	addl	%ecx, %eax	# D.11342, D.11342
	addl	$2, %eax	#, D.11342
	leal	3(%rax), %ecx	#, tmp1070
	testl	%eax, %eax	# tmp1069
	cmovs	%ecx, %eax	# tmp1070,, tmp1069
	sarl	$2, %eax	#, tmp1071
	movw	%ax, 3800(%rdx)	# D.11347, img.53_465->mprr
	.loc 1 293 0
	movq	img(%rip), %rcx	# img, img.54
	.loc 1 294 0
	movq	img(%rip), %rdx	# img, img.55
	movl	-152(%rbp), %eax	# PredPel, D.11342
	movl	-148(%rbp), %esi	# PredPel, D.11342
	addl	%esi, %esi	# D.11342
	addl	%eax, %esi	# D.11342, D.11342
	movl	-144(%rbp), %eax	# PredPel, D.11342
	addl	%esi, %eax	# D.11342, D.11342
	addl	$2, %eax	#, D.11342
	leal	3(%rax), %esi	#, tmp1073
	testl	%eax, %eax	# tmp1072
	cmovs	%esi, %eax	# tmp1073,, tmp1072
	sarl	$2, %eax	#, tmp1074
	movw	%ax, 3864(%rdx)	# D.11347, img.55_476->mprr
	movzwl	3864(%rdx), %eax	# img.55_476->mprr, D.11347
	.loc 1 293 0
	movw	%ax, 3802(%rcx)	# D.11347, img.54_475->mprr
	.loc 1 295 0
	movq	img(%rip), %rcx	# img, img.56
	.loc 1 296 0
	movq	img(%rip), %rdx	# img, img.57
	movl	-148(%rbp), %eax	# PredPel, D.11342
	movl	-144(%rbp), %esi	# PredPel, D.11342
	addl	%esi, %esi	# D.11342
	addl	%eax, %esi	# D.11342, D.11342
	movl	-140(%rbp), %eax	# PredPel, D.11342
	addl	%esi, %eax	# D.11342, D.11342
	addl	$2, %eax	#, D.11342
	leal	3(%rax), %esi	#, tmp1076
	testl	%eax, %eax	# tmp1075
	cmovs	%esi, %eax	# tmp1076,, tmp1075
	sarl	$2, %eax	#, tmp1077
	movw	%ax, 3866(%rdx)	# D.11347, img.57_488->mprr
	movzwl	3866(%rdx), %eax	# img.57_488->mprr, D.11347
	.loc 1 295 0
	movw	%ax, 3804(%rcx)	# D.11347, img.56_487->mprr
	.loc 1 297 0
	movq	img(%rip), %rcx	# img, img.58
	.loc 1 298 0
	movq	img(%rip), %rdx	# img, img.59
	movl	-144(%rbp), %eax	# PredPel, D.11342
	movl	-140(%rbp), %esi	# PredPel, D.11342
	addl	%esi, %esi	# D.11342
	addl	%eax, %esi	# D.11342, D.11342
	movl	-136(%rbp), %eax	# PredPel, D.11342
	addl	%esi, %eax	# D.11342, D.11342
	addl	$2, %eax	#, D.11342
	leal	3(%rax), %esi	#, tmp1079
	testl	%eax, %eax	# tmp1078
	cmovs	%esi, %eax	# tmp1079,, tmp1078
	sarl	$2, %eax	#, tmp1080
	movw	%ax, 3868(%rdx)	# D.11347, img.59_500->mprr
	movzwl	3868(%rdx), %eax	# img.59_500->mprr, D.11347
	.loc 1 297 0
	movw	%ax, 3806(%rcx)	# D.11347, img.58_499->mprr
	.loc 1 299 0
	movq	img(%rip), %rdx	# img, img.60
	movl	-140(%rbp), %eax	# PredPel, D.11342
	movl	-136(%rbp), %ecx	# PredPel, D.11342
	addl	%ecx, %ecx	# D.11342
	addl	%eax, %ecx	# D.11342, D.11342
	movl	-132(%rbp), %eax	# PredPel, D.11342
	addl	%ecx, %eax	# D.11342, D.11342
	addl	$2, %eax	#, D.11342
	leal	3(%rax), %ecx	#, tmp1082
	testl	%eax, %eax	# tmp1081
	cmovs	%ecx, %eax	# tmp1082,, tmp1081
	sarl	$2, %eax	#, tmp1083
	movw	%ax, 3870(%rdx)	# D.11347, img.60_511->mprr
.L44:
	.loc 1 304 0
	cmpl	$0, -288(%rbp)	#, block_available_left
	je	.L45	#,
	.loc 1 307 0
	movq	img(%rip), %rdx	# img, img.61
	movl	-124(%rbp), %ecx	# PredPel, D.11342
	movl	-120(%rbp), %eax	# PredPel, D.11342
	addl	%ecx, %eax	# D.11342, D.11342
	addl	$1, %eax	#, D.11342
	movl	%eax, %ecx	# D.11342, tmp1084
	shrl	$31, %ecx	#, tmp1084
	addl	%ecx, %eax	# tmp1084, tmp1085
	sarl	%eax	# tmp1086
	movw	%ax, 4280(%rdx)	# D.11347, img.61_521->mprr
	.loc 1 308 0
	movq	img(%rip), %rdx	# img, img.62
	movl	-124(%rbp), %eax	# PredPel, D.11342
	movl	-120(%rbp), %ecx	# PredPel, D.11342
	addl	%ecx, %ecx	# D.11342
	addl	%eax, %ecx	# D.11342, D.11342
	movl	-116(%rbp), %eax	# PredPel, D.11342
	addl	%ecx, %eax	# D.11342, D.11342
	addl	$2, %eax	#, D.11342
	leal	3(%rax), %ecx	#, tmp1088
	testl	%eax, %eax	# tmp1087
	cmovs	%ecx, %eax	# tmp1088,, tmp1087
	sarl	$2, %eax	#, tmp1089
	movw	%ax, 4282(%rdx)	# D.11347, img.62_528->mprr
	.loc 1 309 0
	movq	img(%rip), %rcx	# img, img.63
	.loc 1 310 0
	movq	img(%rip), %rax	# img, img.64
	movl	-120(%rbp), %esi	# PredPel, D.11342
	movl	-116(%rbp), %edx	# PredPel, D.11342
	addl	%esi, %edx	# D.11342, D.11342
	addl	$1, %edx	#, D.11342
	movl	%edx, %esi	# D.11342, tmp1090
	shrl	$31, %esi	#, tmp1090
	addl	%esi, %edx	# tmp1090, tmp1091
	sarl	%edx	# tmp1092
	movw	%dx, 4312(%rax)	# D.11347, img.64_539->mprr
	movzwl	4312(%rax), %eax	# img.64_539->mprr, D.11347
	.loc 1 309 0
	movw	%ax, 4284(%rcx)	# D.11347, img.63_538->mprr
	.loc 1 311 0
	movq	img(%rip), %rcx	# img, img.65
	.loc 1 312 0
	movq	img(%rip), %rdx	# img, img.66
	movl	-120(%rbp), %eax	# PredPel, D.11342
	movl	-116(%rbp), %esi	# PredPel, D.11342
	addl	%esi, %esi	# D.11342
	addl	%eax, %esi	# D.11342, D.11342
	movl	-112(%rbp), %eax	# PredPel, D.11342
	addl	%esi, %eax	# D.11342, D.11342
	addl	$2, %eax	#, D.11342
	leal	3(%rax), %esi	#, tmp1094
	testl	%eax, %eax	# tmp1093
	cmovs	%esi, %eax	# tmp1094,, tmp1093
	sarl	$2, %eax	#, tmp1095
	movw	%ax, 4314(%rdx)	# D.11347, img.66_548->mprr
	movzwl	4314(%rdx), %eax	# img.66_548->mprr, D.11347
	.loc 1 311 0
	movw	%ax, 4286(%rcx)	# D.11347, img.65_547->mprr
	.loc 1 313 0
	movq	img(%rip), %rcx	# img, img.67
	.loc 1 314 0
	movq	img(%rip), %rax	# img, img.68
	movl	-116(%rbp), %esi	# PredPel, D.11342
	movl	-112(%rbp), %edx	# PredPel, D.11342
	addl	%esi, %edx	# D.11342, D.11342
	addl	$1, %edx	#, D.11342
	movl	%edx, %esi	# D.11342, tmp1096
	shrl	$31, %esi	#, tmp1096
	addl	%esi, %edx	# tmp1096, tmp1097
	sarl	%edx	# tmp1098
	movw	%dx, 4344(%rax)	# D.11347, img.68_560->mprr
	movzwl	4344(%rax), %eax	# img.68_560->mprr, D.11347
	.loc 1 313 0
	movw	%ax, 4316(%rcx)	# D.11347, img.67_559->mprr
	.loc 1 315 0
	movq	img(%rip), %rcx	# img, img.69
	.loc 1 316 0
	movq	img(%rip), %rdx	# img, img.70
	movl	-116(%rbp), %eax	# PredPel, D.11342
	movl	-112(%rbp), %esi	# PredPel, D.11342
	addl	%esi, %esi	# D.11342
	addl	%eax, %esi	# D.11342, D.11342
	movl	-112(%rbp), %eax	# PredPel, D.11342
	addl	%esi, %eax	# D.11342, D.11342
	addl	$2, %eax	#, D.11342
	leal	3(%rax), %esi	#, tmp1100
	testl	%eax, %eax	# tmp1099
	cmovs	%esi, %eax	# tmp1100,, tmp1099
	sarl	$2, %eax	#, tmp1101
	movw	%ax, 4346(%rdx)	# D.11347, img.70_569->mprr
	movzwl	4346(%rdx), %eax	# img.70_569->mprr, D.11347
	.loc 1 315 0
	movw	%ax, 4318(%rcx)	# D.11347, img.69_568->mprr
	.loc 1 317 0
	movq	img(%rip), %r8	# img, img.71
	.loc 1 318 0
	movq	img(%rip), %rax	# img, img.72
	.loc 1 319 0
	movq	img(%rip), %rdx	# img, img.73
	.loc 1 320 0
	movq	img(%rip), %rcx	# img, img.74
	.loc 1 321 0
	movq	img(%rip), %rsi	# img, img.75
	.loc 1 322 0
	movq	img(%rip), %rdi	# img, img.76
	movl	-112(%rbp), %r9d	# PredPel, D.11342
	movw	%r9w, 4382(%rdi)	# D.11347, img.76_585->mprr
	movzwl	4382(%rdi), %edi	# img.76_585->mprr, D.11347
	.loc 1 321 0
	movw	%di, 4380(%rsi)	# D.11347, img.75_584->mprr
	movzwl	4380(%rsi), %esi	# img.75_584->mprr, D.11347
	.loc 1 320 0
	movw	%si, 4378(%rcx)	# D.11347, img.74_583->mprr
	movzwl	4378(%rcx), %ecx	# img.74_583->mprr, D.11347
	.loc 1 319 0
	movw	%cx, 4350(%rdx)	# D.11347, img.73_582->mprr
	movzwl	4350(%rdx), %edx	# img.73_582->mprr, D.11347
	.loc 1 318 0
	movw	%dx, 4348(%rax)	# D.11347, img.72_581->mprr
	movzwl	4348(%rax), %eax	# img.72_581->mprr, D.11347
	.loc 1 317 0
	movw	%ax, 4376(%r8)	# D.11347, img.71_580->mprr
.L45:
	.loc 1 326 0
	cmpl	$0, -292(%rbp)	#, block_available_up
	je	.L1	#,
	.loc 1 326 0 is_stmt 0 discriminator 1
	cmpl	$0, -288(%rbp)	#, block_available_left
	je	.L1	#,
	cmpl	$0, -284(%rbp)	#, block_available_up_left
	je	.L1	#,
	.loc 1 329 0 is_stmt 1
	movq	img(%rip), %rdx	# img, img.77
	movl	-112(%rbp), %eax	# PredPel, D.11342
	movl	-116(%rbp), %ecx	# PredPel, D.11342
	addl	%ecx, %ecx	# D.11342
	addl	%eax, %ecx	# D.11342, D.11342
	movl	-120(%rbp), %eax	# PredPel, D.11342
	addl	%ecx, %eax	# D.11342, D.11342
	addl	$2, %eax	#, D.11342
	leal	3(%rax), %ecx	#, tmp1103
	testl	%eax, %eax	# tmp1102
	cmovs	%ecx, %eax	# tmp1103,, tmp1102
	sarl	$2, %eax	#, tmp1104
	movw	%ax, 2328(%rdx)	# D.11347, img.77_593->mprr
	.loc 1 330 0
	movq	img(%rip), %rcx	# img, img.78
	.loc 1 331 0
	movq	img(%rip), %rdx	# img, img.79
	movl	-116(%rbp), %eax	# PredPel, D.11342
	movl	-120(%rbp), %esi	# PredPel, D.11342
	addl	%esi, %esi	# D.11342
	addl	%eax, %esi	# D.11342, D.11342
	movl	-124(%rbp), %eax	# PredPel, D.11342
	addl	%esi, %eax	# D.11342, D.11342
	addl	$2, %eax	#, D.11342
	leal	3(%rax), %esi	#, tmp1106
	testl	%eax, %eax	# tmp1105
	cmovs	%esi, %eax	# tmp1106,, tmp1105
	sarl	$2, %eax	#, tmp1107
	movw	%ax, 2330(%rdx)	# D.11347, img.79_604->mprr
	movzwl	2330(%rdx), %eax	# img.79_604->mprr, D.11347
	.loc 1 330 0
	movw	%ax, 2296(%rcx)	# D.11347, img.78_603->mprr
	.loc 1 332 0
	movq	img(%rip), %rsi	# img, img.80
	.loc 1 333 0
	movq	img(%rip), %rdx	# img, img.81
	.loc 1 334 0
	movq	img(%rip), %rcx	# img, img.82
	movl	-120(%rbp), %eax	# PredPel, D.11342
	movl	-124(%rbp), %edi	# PredPel, D.11342
	addl	%edi, %edi	# D.11342
	addl	%eax, %edi	# D.11342, D.11342
	movl	-160(%rbp), %eax	# PredPel, D.11342
	addl	%edi, %eax	# D.11342, D.11342
	addl	$2, %eax	#, D.11342
	leal	3(%rax), %edi	#, tmp1109
	testl	%eax, %eax	# tmp1108
	cmovs	%edi, %eax	# tmp1109,, tmp1108
	sarl	$2, %eax	#, tmp1110
	movw	%ax, 2332(%rcx)	# D.11347, img.82_617->mprr
	movzwl	2332(%rcx), %eax	# img.82_617->mprr, D.11347
	.loc 1 333 0
	movw	%ax, 2298(%rdx)	# D.11347, img.81_616->mprr
	movzwl	2298(%rdx), %eax	# img.81_616->mprr, D.11347
	.loc 1 332 0
	movw	%ax, 2264(%rsi)	# D.11347, img.80_615->mprr
	.loc 1 335 0
	movq	img(%rip), %rdi	# img, img.83
	.loc 1 336 0
	movq	img(%rip), %rdx	# img, img.84
	.loc 1 337 0
	movq	img(%rip), %rcx	# img, img.85
	.loc 1 338 0
	movq	img(%rip), %rsi	# img, img.86
	movl	-124(%rbp), %eax	# PredPel, D.11342
	movl	-160(%rbp), %r8d	# PredPel, D.11342
	addl	%r8d, %r8d	# D.11342
	addl	%eax, %r8d	# D.11342, D.11342
	movl	-156(%rbp), %eax	# PredPel, D.11342
	addl	%r8d, %eax	# D.11342, D.11342
	addl	$2, %eax	#, D.11342
	leal	3(%rax), %r8d	#, tmp1112
	testl	%eax, %eax	# tmp1111
	cmovs	%r8d, %eax	# tmp1112,, tmp1111
	sarl	$2, %eax	#, tmp1113
	movw	%ax, 2334(%rsi)	# D.11347, img.86_632->mprr
	movzwl	2334(%rsi), %eax	# img.86_632->mprr, D.11347
	.loc 1 337 0
	movw	%ax, 2300(%rcx)	# D.11347, img.85_631->mprr
	movzwl	2300(%rcx), %eax	# img.85_631->mprr, D.11347
	.loc 1 336 0
	movw	%ax, 2266(%rdx)	# D.11347, img.84_630->mprr
	movzwl	2266(%rdx), %eax	# img.84_630->mprr, D.11347
	.loc 1 335 0
	movw	%ax, 2232(%rdi)	# D.11347, img.83_629->mprr
	.loc 1 339 0
	movq	img(%rip), %rsi	# img, img.87
	.loc 1 340 0
	movq	img(%rip), %rdx	# img, img.88
	.loc 1 341 0
	movq	img(%rip), %rcx	# img, img.89
	movl	-160(%rbp), %eax	# PredPel, D.11342
	movl	-156(%rbp), %edi	# PredPel, D.11342
	addl	%edi, %edi	# D.11342
	addl	%eax, %edi	# D.11342, D.11342
	movl	-152(%rbp), %eax	# PredPel, D.11342
	addl	%edi, %eax	# D.11342, D.11342
	addl	$2, %eax	#, D.11342
	leal	3(%rax), %edi	#, tmp1115
	testl	%eax, %eax	# tmp1114
	cmovs	%edi, %eax	# tmp1115,, tmp1114
	sarl	$2, %eax	#, tmp1116
	movw	%ax, 2302(%rcx)	# D.11347, img.89_647->mprr
	movzwl	2302(%rcx), %eax	# img.89_647->mprr, D.11347
	.loc 1 340 0
	movw	%ax, 2268(%rdx)	# D.11347, img.88_646->mprr
	movzwl	2268(%rdx), %eax	# img.88_646->mprr, D.11347
	.loc 1 339 0
	movw	%ax, 2234(%rsi)	# D.11347, img.87_645->mprr
	.loc 1 342 0
	movq	img(%rip), %rcx	# img, img.90
	.loc 1 343 0
	movq	img(%rip), %rdx	# img, img.91
	movl	-156(%rbp), %eax	# PredPel, D.11342
	movl	-152(%rbp), %esi	# PredPel, D.11342
	addl	%esi, %esi	# D.11342
	addl	%eax, %esi	# D.11342, D.11342
	movl	-148(%rbp), %eax	# PredPel, D.11342
	addl	%esi, %eax	# D.11342, D.11342
	addl	$2, %eax	#, D.11342
	leal	3(%rax), %esi	#, tmp1118
	testl	%eax, %eax	# tmp1117
	cmovs	%esi, %eax	# tmp1118,, tmp1117
	sarl	$2, %eax	#, tmp1119
	movw	%ax, 2270(%rdx)	# D.11347, img.91_660->mprr
	movzwl	2270(%rdx), %eax	# img.91_660->mprr, D.11347
	.loc 1 342 0
	movw	%ax, 2236(%rcx)	# D.11347, img.90_659->mprr
	.loc 1 344 0
	movq	img(%rip), %rdx	# img, img.92
	movl	-152(%rbp), %eax	# PredPel, D.11342
	movl	-148(%rbp), %ecx	# PredPel, D.11342
	addl	%ecx, %ecx	# D.11342
	addl	%eax, %ecx	# D.11342, D.11342
	movl	-144(%rbp), %eax	# PredPel, D.11342
	addl	%ecx, %eax	# D.11342, D.11342
	addl	$2, %eax	#, D.11342
	leal	3(%rax), %ecx	#, tmp1121
	testl	%eax, %eax	# tmp1120
	cmovs	%ecx, %eax	# tmp1121,, tmp1120
	sarl	$2, %eax	#, tmp1122
	movw	%ax, 2238(%rdx)	# D.11347, img.92_671->mprr
	.loc 1 347 0
	movq	img(%rip), %rcx	# img, img.93
	.loc 1 348 0
	movq	img(%rip), %rax	# img, img.94
	movl	-160(%rbp), %esi	# PredPel, D.11342
	movl	-156(%rbp), %edx	# PredPel, D.11342
	addl	%esi, %edx	# D.11342, D.11342
	addl	$1, %edx	#, D.11342
	movl	%edx, %esi	# D.11342, tmp1123
	shrl	$31, %esi	#, tmp1123
	addl	%esi, %edx	# tmp1123, tmp1124
	sarl	%edx	# tmp1125
	movw	%dx, 2810(%rax)	# D.11347, img.94_682->mprr
	movzwl	2810(%rax), %eax	# img.94_682->mprr, D.11347
	.loc 1 347 0
	movw	%ax, 2744(%rcx)	# D.11347, img.93_681->mprr
	.loc 1 349 0
	movq	img(%rip), %rcx	# img, img.95
	.loc 1 350 0
	movq	img(%rip), %rax	# img, img.96
	movl	-156(%rbp), %esi	# PredPel, D.11342
	movl	-152(%rbp), %edx	# PredPel, D.11342
	addl	%esi, %edx	# D.11342, D.11342
	addl	$1, %edx	#, D.11342
	movl	%edx, %esi	# D.11342, tmp1126
	shrl	$31, %esi	#, tmp1126
	addl	%esi, %edx	# tmp1126, tmp1127
	sarl	%edx	# tmp1128
	movw	%dx, 2812(%rax)	# D.11347, img.96_691->mprr
	movzwl	2812(%rax), %eax	# img.96_691->mprr, D.11347
	.loc 1 349 0
	movw	%ax, 2746(%rcx)	# D.11347, img.95_690->mprr
	.loc 1 351 0
	movq	img(%rip), %rcx	# img, img.97
	.loc 1 352 0
	movq	img(%rip), %rax	# img, img.98
	movl	-152(%rbp), %esi	# PredPel, D.11342
	movl	-148(%rbp), %edx	# PredPel, D.11342
	addl	%esi, %edx	# D.11342, D.11342
	addl	$1, %edx	#, D.11342
	movl	%edx, %esi	# D.11342, tmp1129
	shrl	$31, %esi	#, tmp1129
	addl	%esi, %edx	# tmp1129, tmp1130
	sarl	%edx	# tmp1131
	movw	%dx, 2814(%rax)	# D.11347, img.98_700->mprr
	movzwl	2814(%rax), %eax	# img.98_700->mprr, D.11347
	.loc 1 351 0
	movw	%ax, 2748(%rcx)	# D.11347, img.97_699->mprr
	.loc 1 353 0
	movq	img(%rip), %rdx	# img, img.99
	movl	-148(%rbp), %ecx	# PredPel, D.11342
	movl	-144(%rbp), %eax	# PredPel, D.11342
	addl	%ecx, %eax	# D.11342, D.11342
	addl	$1, %eax	#, D.11342
	movl	%eax, %ecx	# D.11342, tmp1132
	shrl	$31, %ecx	#, tmp1132
	addl	%ecx, %eax	# tmp1132, tmp1133
	sarl	%eax	# tmp1134
	movw	%ax, 2750(%rdx)	# D.11347, img.99_708->mprr
	.loc 1 354 0
	movq	img(%rip), %rcx	# img, img.100
	.loc 1 355 0
	movq	img(%rip), %rdx	# img, img.101
	movl	-124(%rbp), %eax	# PredPel, D.11342
	movl	-160(%rbp), %esi	# PredPel, D.11342
	addl	%esi, %esi	# D.11342
	addl	%eax, %esi	# D.11342, D.11342
	movl	-156(%rbp), %eax	# PredPel, D.11342
	addl	%esi, %eax	# D.11342, D.11342
	addl	$2, %eax	#, D.11342
	leal	3(%rax), %esi	#, tmp1136
	testl	%eax, %eax	# tmp1135
	cmovs	%esi, %eax	# tmp1136,, tmp1135
	sarl	$2, %eax	#, tmp1137
	movw	%ax, 2842(%rdx)	# D.11347, img.101_716->mprr
	movzwl	2842(%rdx), %eax	# img.101_716->mprr, D.11347
	.loc 1 354 0
	movw	%ax, 2776(%rcx)	# D.11347, img.100_715->mprr
	.loc 1 356 0
	movq	img(%rip), %rcx	# img, img.102
	.loc 1 357 0
	movq	img(%rip), %rdx	# img, img.103
	movl	-160(%rbp), %eax	# PredPel, D.11342
	movl	-156(%rbp), %esi	# PredPel, D.11342
	addl	%esi, %esi	# D.11342
	addl	%eax, %esi	# D.11342, D.11342
	movl	-152(%rbp), %eax	# PredPel, D.11342
	addl	%esi, %eax	# D.11342, D.11342
	addl	$2, %eax	#, D.11342
	leal	3(%rax), %esi	#, tmp1139
	testl	%eax, %eax	# tmp1138
	cmovs	%esi, %eax	# tmp1139,, tmp1138
	sarl	$2, %eax	#, tmp1140
	movw	%ax, 2844(%rdx)	# D.11347, img.103_728->mprr
	movzwl	2844(%rdx), %eax	# img.103_728->mprr, D.11347
	.loc 1 356 0
	movw	%ax, 2778(%rcx)	# D.11347, img.102_727->mprr
	.loc 1 358 0
	movq	img(%rip), %rcx	# img, img.104
	.loc 1 359 0
	movq	img(%rip), %rdx	# img, img.105
	movl	-156(%rbp), %eax	# PredPel, D.11342
	movl	-152(%rbp), %esi	# PredPel, D.11342
	addl	%esi, %esi	# D.11342
	addl	%eax, %esi	# D.11342, D.11342
	movl	-148(%rbp), %eax	# PredPel, D.11342
	addl	%esi, %eax	# D.11342, D.11342
	addl	$2, %eax	#, D.11342
	leal	3(%rax), %esi	#, tmp1142
	testl	%eax, %eax	# tmp1141
	cmovs	%esi, %eax	# tmp1142,, tmp1141
	sarl	$2, %eax	#, tmp1143
	movw	%ax, 2846(%rdx)	# D.11347, img.105_740->mprr
	movzwl	2846(%rdx), %eax	# img.105_740->mprr, D.11347
	.loc 1 358 0
	movw	%ax, 2780(%rcx)	# D.11347, img.104_739->mprr
	.loc 1 360 0
	movq	img(%rip), %rdx	# img, img.106
	movl	-152(%rbp), %eax	# PredPel, D.11342
	movl	-148(%rbp), %ecx	# PredPel, D.11342
	addl	%ecx, %ecx	# D.11342
	addl	%eax, %ecx	# D.11342, D.11342
	movl	-144(%rbp), %eax	# PredPel, D.11342
	addl	%ecx, %eax	# D.11342, D.11342
	addl	$2, %eax	#, D.11342
	leal	3(%rax), %ecx	#, tmp1145
	testl	%eax, %eax	# tmp1144
	cmovs	%ecx, %eax	# tmp1145,, tmp1144
	sarl	$2, %eax	#, tmp1146
	movw	%ax, 2782(%rdx)	# D.11347, img.106_751->mprr
	.loc 1 361 0
	movq	img(%rip), %rdx	# img, img.107
	movl	-160(%rbp), %eax	# PredPel, D.11342
	movl	-124(%rbp), %ecx	# PredPel, D.11342
	addl	%ecx, %ecx	# D.11342
	addl	%eax, %ecx	# D.11342, D.11342
	movl	-120(%rbp), %eax	# PredPel, D.11342
	addl	%ecx, %eax	# D.11342, D.11342
	addl	$2, %eax	#, D.11342
	leal	3(%rax), %ecx	#, tmp1148
	testl	%eax, %eax	# tmp1147
	cmovs	%ecx, %eax	# tmp1148,, tmp1147
	sarl	$2, %eax	#, tmp1149
	movw	%ax, 2808(%rdx)	# D.11347, img.107_761->mprr
	.loc 1 362 0
	movq	img(%rip), %rdx	# img, img.108
	movl	-124(%rbp), %eax	# PredPel, D.11342
	movl	-120(%rbp), %ecx	# PredPel, D.11342
	addl	%ecx, %ecx	# D.11342
	addl	%eax, %ecx	# D.11342, D.11342
	movl	-116(%rbp), %eax	# PredPel, D.11342
	addl	%ecx, %eax	# D.11342, D.11342
	addl	$2, %eax	#, D.11342
	leal	3(%rax), %ecx	#, tmp1151
	testl	%eax, %eax	# tmp1150
	cmovs	%ecx, %eax	# tmp1151,, tmp1150
	sarl	$2, %eax	#, tmp1152
	movw	%ax, 2840(%rdx)	# D.11347, img.108_771->mprr
	.loc 1 365 0
	movq	img(%rip), %rcx	# img, img.109
	.loc 1 366 0
	movq	img(%rip), %rax	# img, img.110
	movl	-160(%rbp), %esi	# PredPel, D.11342
	movl	-124(%rbp), %edx	# PredPel, D.11342
	addl	%esi, %edx	# D.11342, D.11342
	addl	$1, %edx	#, D.11342
	movl	%edx, %esi	# D.11342, tmp1153
	shrl	$31, %esi	#, tmp1153
	addl	%esi, %edx	# tmp1153, tmp1154
	sarl	%edx	# tmp1155
	movw	%dx, 3292(%rax)	# D.11347, img.110_782->mprr
	movzwl	3292(%rax), %eax	# img.110_782->mprr, D.11347
	.loc 1 365 0
	movw	%ax, 3256(%rcx)	# D.11347, img.109_781->mprr
	.loc 1 367 0
	movq	img(%rip), %rcx	# img, img.111
	.loc 1 368 0
	movq	img(%rip), %rdx	# img, img.112
	movl	-124(%rbp), %eax	# PredPel, D.11342
	movl	-160(%rbp), %esi	# PredPel, D.11342
	addl	%esi, %esi	# D.11342
	addl	%eax, %esi	# D.11342, D.11342
	movl	-156(%rbp), %eax	# PredPel, D.11342
	addl	%esi, %eax	# D.11342, D.11342
	addl	$2, %eax	#, D.11342
	leal	3(%rax), %esi	#, tmp1157
	testl	%eax, %eax	# tmp1156
	cmovs	%esi, %eax	# tmp1157,, tmp1156
	sarl	$2, %eax	#, tmp1158
	movw	%ax, 3294(%rdx)	# D.11347, img.112_791->mprr
	movzwl	3294(%rdx), %eax	# img.112_791->mprr, D.11347
	.loc 1 367 0
	movw	%ax, 3258(%rcx)	# D.11347, img.111_790->mprr
	.loc 1 369 0
	movq	img(%rip), %rdx	# img, img.113
	movl	-160(%rbp), %eax	# PredPel, D.11342
	movl	-156(%rbp), %ecx	# PredPel, D.11342
	addl	%ecx, %ecx	# D.11342
	addl	%eax, %ecx	# D.11342, D.11342
	movl	-152(%rbp), %eax	# PredPel, D.11342
	addl	%ecx, %eax	# D.11342, D.11342
	addl	$2, %eax	#, D.11342
	leal	3(%rax), %ecx	#, tmp1160
	testl	%eax, %eax	# tmp1159
	cmovs	%ecx, %eax	# tmp1160,, tmp1159
	sarl	$2, %eax	#, tmp1161
	movw	%ax, 3260(%rdx)	# D.11347, img.113_802->mprr
	.loc 1 370 0
	movq	img(%rip), %rdx	# img, img.114
	movl	-156(%rbp), %eax	# PredPel, D.11342
	movl	-152(%rbp), %ecx	# PredPel, D.11342
	addl	%ecx, %ecx	# D.11342
	addl	%eax, %ecx	# D.11342, D.11342
	movl	-148(%rbp), %eax	# PredPel, D.11342
	addl	%ecx, %eax	# D.11342, D.11342
	addl	$2, %eax	#, D.11342
	leal	3(%rax), %ecx	#, tmp1163
	testl	%eax, %eax	# tmp1162
	cmovs	%ecx, %eax	# tmp1163,, tmp1162
	sarl	$2, %eax	#, tmp1164
	movw	%ax, 3262(%rdx)	# D.11347, img.114_812->mprr
	.loc 1 371 0
	movq	img(%rip), %rcx	# img, img.115
	.loc 1 372 0
	movq	img(%rip), %rax	# img, img.116
	movl	-124(%rbp), %esi	# PredPel, D.11342
	movl	-120(%rbp), %edx	# PredPel, D.11342
	addl	%esi, %edx	# D.11342, D.11342
	addl	$1, %edx	#, D.11342
	movl	%edx, %esi	# D.11342, tmp1165
	shrl	$31, %esi	#, tmp1165
	addl	%esi, %edx	# tmp1165, tmp1166
	sarl	%edx	# tmp1167
	movw	%dx, 3324(%rax)	# D.11347, img.116_823->mprr
	movzwl	3324(%rax), %eax	# img.116_823->mprr, D.11347
	.loc 1 371 0
	movw	%ax, 3288(%rcx)	# D.11347, img.115_822->mprr
	.loc 1 373 0
	movq	img(%rip), %rcx	# img, img.117
	.loc 1 374 0
	movq	img(%rip), %rdx	# img, img.118
	movl	-160(%rbp), %eax	# PredPel, D.11342
	movl	-124(%rbp), %esi	# PredPel, D.11342
	addl	%esi, %esi	# D.11342
	addl	%eax, %esi	# D.11342, D.11342
	movl	-120(%rbp), %eax	# PredPel, D.11342
	addl	%esi, %eax	# D.11342, D.11342
	addl	$2, %eax	#, D.11342
	leal	3(%rax), %esi	#, tmp1169
	testl	%eax, %eax	# tmp1168
	cmovs	%esi, %eax	# tmp1169,, tmp1168
	sarl	$2, %eax	#, tmp1170
	movw	%ax, 3326(%rdx)	# D.11347, img.118_832->mprr
	movzwl	3326(%rdx), %eax	# img.118_832->mprr, D.11347
	.loc 1 373 0
	movw	%ax, 3290(%rcx)	# D.11347, img.117_831->mprr
	.loc 1 375 0
	movq	img(%rip), %rcx	# img, img.119
	.loc 1 376 0
	movq	img(%rip), %rax	# img, img.120
	movl	-120(%rbp), %esi	# PredPel, D.11342
	movl	-116(%rbp), %edx	# PredPel, D.11342
	addl	%esi, %edx	# D.11342, D.11342
	addl	$1, %edx	#, D.11342
	movl	%edx, %esi	# D.11342, tmp1171
	shrl	$31, %esi	#, tmp1171
	addl	%esi, %edx	# tmp1171, tmp1172
	sarl	%edx	# tmp1173
	movw	%dx, 3356(%rax)	# D.11347, img.120_844->mprr
	movzwl	3356(%rax), %eax	# img.120_844->mprr, D.11347
	.loc 1 375 0
	movw	%ax, 3320(%rcx)	# D.11347, img.119_843->mprr
	.loc 1 377 0
	movq	img(%rip), %rcx	# img, img.121
	.loc 1 378 0
	movq	img(%rip), %rdx	# img, img.122
	movl	-124(%rbp), %eax	# PredPel, D.11342
	movl	-120(%rbp), %esi	# PredPel, D.11342
	addl	%esi, %esi	# D.11342
	addl	%eax, %esi	# D.11342, D.11342
	movl	-116(%rbp), %eax	# PredPel, D.11342
	addl	%esi, %eax	# D.11342, D.11342
	addl	$2, %eax	#, D.11342
	leal	3(%rax), %esi	#, tmp1175
	testl	%eax, %eax	# tmp1174
	cmovs	%esi, %eax	# tmp1175,, tmp1174
	sarl	$2, %eax	#, tmp1176
	movw	%ax, 3358(%rdx)	# D.11347, img.122_853->mprr
	movzwl	3358(%rdx), %eax	# img.122_853->mprr, D.11347
	.loc 1 377 0
	movw	%ax, 3322(%rcx)	# D.11347, img.121_852->mprr
	.loc 1 379 0
	movq	img(%rip), %rdx	# img, img.123
	movl	-116(%rbp), %ecx	# PredPel, D.11342
	movl	-112(%rbp), %eax	# PredPel, D.11342
	addl	%ecx, %eax	# D.11342, D.11342
	addl	$1, %eax	#, D.11342
	movl	%eax, %ecx	# D.11342, tmp1177
	shrl	$31, %ecx	#, tmp1177
	addl	%ecx, %eax	# tmp1177, tmp1178
	sarl	%eax	# tmp1179
	movw	%ax, 3352(%rdx)	# D.11347, img.123_864->mprr
	.loc 1 380 0
	movq	img(%rip), %rdx	# img, img.124
	movl	-120(%rbp), %eax	# PredPel, D.11342
	movl	-116(%rbp), %ecx	# PredPel, D.11342
	addl	%ecx, %ecx	# D.11342
	addl	%eax, %ecx	# D.11342, D.11342
	movl	-112(%rbp), %eax	# PredPel, D.11342
	addl	%ecx, %eax	# D.11342, D.11342
	addl	$2, %eax	#, D.11342
	leal	3(%rax), %ecx	#, tmp1181
	testl	%eax, %eax	# tmp1180
	cmovs	%ecx, %eax	# tmp1181,, tmp1180
	sarl	$2, %eax	#, tmp1182
	movw	%ax, 3354(%rdx)	# D.11347, img.124_871->mprr
.L1:
	.loc 1 382 0
	leave
	.cfi_def_cfa 7, 8
	ret
	.cfi_endproc
.LFE2:
	.size	intrapred_luma, .-intrapred_luma
	.globl	intrapred_luma_16x16
	.type	intrapred_luma_16x16, @function
intrapred_luma_16x16:
.LFB3:
	.loc 1 397 0
	.cfi_startproc
	pushq	%rbp	#
	.cfi_def_cfa_offset 16
	.cfi_offset 6, -16
	movq	%rsp, %rbp	#,
	.cfi_def_cfa_register 6
	subq	$640, %rsp	#,
	.loc 1 398 0
	movl	$0, -640(%rbp)	#, s0
	.loc 1 405 0
	movq	enc_picture(%rip), %rax	# enc_picture, enc_picture.125
	movq	6424(%rax), %rax	# enc_picture.125_29->imgY, tmp277
	movq	%rax, -584(%rbp)	# tmp277, imgY_pred
	.loc 1 406 0
	movq	img(%rip), %rax	# img, img.126
	movl	12(%rax), %eax	# img.126_31->current_mb_nr, tmp278
	movl	%eax, -600(%rbp)	# tmp278, mb_nr
	.loc 1 413 0
	movl	$0, -628(%rbp)	#, i
	jmp	.L48	#
.L49:
	.loc 1 415 0 discriminator 2
	leaq	-416(%rbp), %rcx	#, tmp279
	movl	-628(%rbp), %eax	# i, tmp281
	movslq	%eax, %rdx	# tmp281, tmp280
	movq	%rdx, %rax	# tmp280, tmp282
	addq	%rax, %rax	# tmp282
	addq	%rdx, %rax	# tmp280, tmp282
	salq	$3, %rax	#, tmp283
	addq	%rax, %rcx	# tmp282, D.11350
	movl	-628(%rbp), %eax	# i, tmp284
	leal	-1(%rax), %edx	#, D.11351
	movl	-600(%rbp), %eax	# mb_nr, tmp285
	movq	%rcx, %r8	# D.11350,
	movl	$1, %ecx	#,
	movl	$-1, %esi	#,
	movl	%eax, %edi	# tmp285,
	call	getNeighbour	#
	.loc 1 413 0 discriminator 2
	addl	$1, -628(%rbp)	#, i
.L48:
	.loc 1 413 0 is_stmt 0 discriminator 1
	cmpl	$16, -628(%rbp)	#, i
	jle	.L49	#,
	.loc 1 418 0 is_stmt 1
	leaq	-576(%rbp), %rdx	#, tmp286
	movl	-600(%rbp), %eax	# mb_nr, tmp287
	movq	%rdx, %r8	# tmp286,
	movl	$1, %ecx	#,
	movl	$-1, %edx	#,
	movl	$0, %esi	#,
	movl	%eax, %edi	# tmp287,
	call	getNeighbour	#
	.loc 1 420 0
	movq	input(%rip), %rax	# input, input.127
	movl	216(%rax), %eax	# input.127_37->UseConstrainedIntraPred, D.11351
	testl	%eax, %eax	# D.11351
	jne	.L50	#,
	.loc 1 422 0
	movl	-576(%rbp), %eax	# up.available, tmp288
	movl	%eax, -612(%rbp)	# tmp288, up_avail
	.loc 1 423 0
	movl	-392(%rbp), %eax	# left[1].available, tmp289
	movl	%eax, -608(%rbp)	# tmp289, left_avail
	.loc 1 424 0
	movl	-416(%rbp), %eax	# left[0].available, tmp290
	movl	%eax, -604(%rbp)	# tmp290, left_up_avail
	jmp	.L51	#
.L50:
	.loc 1 428 0
	movl	-576(%rbp), %eax	# up.available, D.11351
	testl	%eax, %eax	# D.11351
	je	.L52	#,
	.loc 1 428 0 is_stmt 0 discriminator 1
	movq	img(%rip), %rax	# img, img.129
	movq	71784(%rax), %rax	# img.129_43->intra_block, D.11352
	movl	-572(%rbp), %edx	# up.mb_addr, D.11351
	movslq	%edx, %rdx	# D.11351, D.11353
	salq	$2, %rdx	#, D.11353
	addq	%rdx, %rax	# D.11353, D.11352
	movl	(%rax), %eax	# *_48, iftmp.128
	jmp	.L53	#
.L52:
	.loc 1 428 0 discriminator 2
	movl	$0, %eax	#, iftmp.128
.L53:
	.loc 1 428 0 discriminator 3
	movl	%eax, -612(%rbp)	# iftmp.128, up_avail
	.loc 1 429 0 is_stmt 1 discriminator 3
	movl	$1, -628(%rbp)	#, i
	movl	$1, -608(%rbp)	#, left_avail
	jmp	.L54	#
.L57:
	.loc 1 430 0
	movl	-628(%rbp), %eax	# i, tmp292
	movslq	%eax, %rdx	# tmp292, tmp291
	movq	%rdx, %rax	# tmp291, tmp293
	addq	%rax, %rax	# tmp293
	addq	%rdx, %rax	# tmp291, tmp293
	salq	$3, %rax	#, tmp294
	addq	%rbp, %rax	#, tmp295
	subq	$416, %rax	#, tmp296
	movl	(%rax), %eax	# left[i_10].available, D.11351
	testl	%eax, %eax	# D.11351
	je	.L55	#,
	.loc 1 430 0 is_stmt 0 discriminator 1
	movq	img(%rip), %rax	# img, img.131
	movq	71784(%rax), %rcx	# img.131_55->intra_block, D.11352
	movl	-628(%rbp), %eax	# i, tmp298
	movslq	%eax, %rdx	# tmp298, tmp297
	movq	%rdx, %rax	# tmp297, tmp299
	addq	%rax, %rax	# tmp299
	addq	%rdx, %rax	# tmp297, tmp299
	salq	$3, %rax	#, tmp300
	addq	%rbp, %rax	#, tmp301
	subq	$416, %rax	#, tmp302
	movl	4(%rax), %eax	# left[i_10].mb_addr, D.11351
	cltq
	salq	$2, %rax	#, D.11353
	addq	%rcx, %rax	# D.11352, D.11352
	movl	(%rax), %eax	# *_60, iftmp.130
	jmp	.L56	#
.L55:
	.loc 1 430 0 discriminator 2
	movl	$0, %eax	#, iftmp.130
.L56:
	.loc 1 430 0 discriminator 3
	andl	%eax, -608(%rbp)	# iftmp.130, left_avail
	.loc 1 429 0 is_stmt 1 discriminator 3
	addl	$1, -628(%rbp)	#, i
.L54:
	.loc 1 429 0 is_stmt 0 discriminator 1
	cmpl	$16, -628(%rbp)	#, i
	jle	.L57	#,
	.loc 1 431 0 is_stmt 1
	movl	-416(%rbp), %eax	# left[0].available, D.11351
	testl	%eax, %eax	# D.11351
	je	.L58	#,
	.loc 1 431 0 is_stmt 0 discriminator 1
	movq	img(%rip), %rax	# img, img.133
	movq	71784(%rax), %rax	# img.133_66->intra_block, D.11352
	movl	-412(%rbp), %edx	# left[0].mb_addr, D.11351
	movslq	%edx, %rdx	# D.11351, D.11353
	salq	$2, %rdx	#, D.11353
	addq	%rdx, %rax	# D.11353, D.11352
	movl	(%rax), %eax	# *_71, iftmp.132
	jmp	.L59	#
.L58:
	.loc 1 431 0 discriminator 2
	movl	$0, %eax	#, iftmp.132
.L59:
	.loc 1 431 0 discriminator 3
	movl	%eax, -604(%rbp)	# iftmp.132, left_up_avail
.L51:
	.loc 1 434 0 is_stmt 1
	movl	$0, -632(%rbp)	#, s2
	movl	-632(%rbp), %eax	# s2, tmp303
	movl	%eax, -636(%rbp)	# tmp303, s1
	.loc 1 436 0
	movl	$0, -628(%rbp)	#, i
	jmp	.L60	#
.L63:
	.loc 1 438 0
	cmpl	$0, -612(%rbp)	#, up_avail
	je	.L61	#,
	.loc 1 439 0
	movl	-556(%rbp), %eax	# up.pos_y, D.11351
	cltq
	leaq	0(,%rax,8), %rdx	#, D.11353
	movq	-584(%rbp), %rax	# imgY_pred, tmp304
	addq	%rdx, %rax	# D.11353, D.11354
	movq	(%rax), %rax	# *_81, D.11355
	movl	-560(%rbp), %ecx	# up.pos_x, D.11351
	movl	-628(%rbp), %edx	# i, tmp305
	addl	%ecx, %edx	# D.11351, D.11351
	movslq	%edx, %rdx	# D.11351, D.11353
	addq	%rdx, %rdx	# D.11353
	addq	%rdx, %rax	# D.11353, D.11355
	movzwl	(%rax), %eax	# *_87, D.11356
	movzwl	%ax, %eax	# D.11356, D.11351
	addl	%eax, -636(%rbp)	# D.11351, s1
.L61:
	.loc 1 440 0
	cmpl	$0, -608(%rbp)	#, left_avail
	je	.L62	#,
	.loc 1 441 0
	movl	-628(%rbp), %eax	# i, tmp306
	addl	$1, %eax	#, D.11351
	movslq	%eax, %rdx	# D.11351, tmp307
	movq	%rdx, %rax	# tmp307, tmp308
	addq	%rax, %rax	# tmp308
	addq	%rdx, %rax	# tmp307, tmp308
	salq	$3, %rax	#, tmp309
	addq	%rbp, %rax	#, tmp310
	subq	$400, %rax	#, tmp311
	movl	4(%rax), %eax	# left[_91].pos_y, D.11351
	cltq
	leaq	0(,%rax,8), %rdx	#, D.11353
	movq	-584(%rbp), %rax	# imgY_pred, tmp312
	addq	%rdx, %rax	# D.11353, D.11354
	movq	(%rax), %rcx	# *_95, D.11355
	movl	-628(%rbp), %eax	# i, tmp313
	addl	$1, %eax	#, D.11351
	movslq	%eax, %rdx	# D.11351, tmp314
	movq	%rdx, %rax	# tmp314, tmp315
	addq	%rax, %rax	# tmp315
	addq	%rdx, %rax	# tmp314, tmp315
	salq	$3, %rax	#, tmp316
	addq	%rbp, %rax	#, tmp317
	subq	$400, %rax	#, tmp318
	movl	(%rax), %eax	# left[_97].pos_x, D.11351
	cltq
	addq	%rax, %rax	# D.11353
	addq	%rcx, %rax	# D.11355, D.11355
	movzwl	(%rax), %eax	# *_101, D.11356
	movzwl	%ax, %eax	# D.11356, D.11351
	addl	%eax, -632(%rbp)	# D.11351, s2
.L62:
	.loc 1 436 0
	addl	$1, -628(%rbp)	#, i
.L60:
	.loc 1 436 0 is_stmt 0 discriminator 1
	cmpl	$15, -628(%rbp)	#, i
	jle	.L63	#,
	.loc 1 443 0 is_stmt 1
	cmpl	$0, -612(%rbp)	#, up_avail
	je	.L64	#,
	.loc 1 443 0 is_stmt 0 discriminator 1
	cmpl	$0, -608(%rbp)	#, left_avail
	je	.L64	#,
	.loc 1 444 0 is_stmt 1
	movl	-632(%rbp), %eax	# s2, tmp319
	movl	-636(%rbp), %edx	# s1, tmp320
	addl	%edx, %eax	# tmp320, D.11351
	addl	$16, %eax	#, D.11351
	leal	31(%rax), %edx	#, tmp322
	testl	%eax, %eax	# tmp321
	cmovs	%edx, %eax	# tmp322,, tmp321
	sarl	$5, %eax	#, tmp323
	movl	%eax, -640(%rbp)	# tmp323, s0
.L64:
	.loc 1 445 0
	cmpl	$0, -612(%rbp)	#, up_avail
	jne	.L65	#,
	.loc 1 445 0 is_stmt 0 discriminator 1
	cmpl	$0, -608(%rbp)	#, left_avail
	je	.L65	#,
	.loc 1 446 0 is_stmt 1
	movl	-632(%rbp), %eax	# s2, tmp324
	addl	$8, %eax	#, D.11351
	leal	15(%rax), %edx	#, tmp326
	testl	%eax, %eax	# tmp325
	cmovs	%edx, %eax	# tmp326,, tmp325
	sarl	$4, %eax	#, tmp327
	movl	%eax, -640(%rbp)	# tmp327, s0
.L65:
	.loc 1 447 0
	cmpl	$0, -612(%rbp)	#, up_avail
	je	.L66	#,
	.loc 1 447 0 is_stmt 0 discriminator 1
	cmpl	$0, -608(%rbp)	#, left_avail
	jne	.L66	#,
	.loc 1 448 0 is_stmt 1
	movl	-636(%rbp), %eax	# s1, tmp328
	addl	$8, %eax	#, D.11351
	leal	15(%rax), %edx	#, tmp330
	testl	%eax, %eax	# tmp329
	cmovs	%edx, %eax	# tmp330,, tmp329
	sarl	$4, %eax	#, tmp331
	movl	%eax, -640(%rbp)	# tmp331, s0
.L66:
	.loc 1 449 0
	cmpl	$0, -612(%rbp)	#, up_avail
	jne	.L67	#,
	.loc 1 449 0 is_stmt 0 discriminator 1
	cmpl	$0, -608(%rbp)	#, left_avail
	jne	.L67	#,
	.loc 1 450 0 is_stmt 1
	movq	img(%rip), %rax	# img, img.134
	movl	72680(%rax), %eax	# img.134_113->dc_pred_value, D.11357
	movl	%eax, -640(%rbp)	# D.11357, s0
.L67:
	.loc 1 452 0
	movl	$0, -628(%rbp)	#, i
	jmp	.L68	#
.L71:
	.loc 1 455 0
	cmpl	$0, -612(%rbp)	#, up_avail
	je	.L69	#,
	.loc 1 456 0
	movl	-556(%rbp), %eax	# up.pos_y, D.11351
	cltq
	leaq	0(,%rax,8), %rdx	#, D.11353
	movq	-584(%rbp), %rax	# imgY_pred, tmp332
	addq	%rdx, %rax	# D.11353, D.11354
	movq	(%rax), %rax	# *_120, D.11355
	movl	-560(%rbp), %ecx	# up.pos_x, D.11351
	movl	-628(%rbp), %edx	# i, tmp333
	addl	%ecx, %edx	# D.11351, D.11351
	movslq	%edx, %rdx	# D.11351, D.11353
	addq	%rdx, %rdx	# D.11353
	addq	%rdx, %rax	# D.11353, D.11355
	movzwl	(%rax), %eax	# *_126, D.11356
	movzwl	%ax, %edx	# D.11356, D.11351
	movl	-628(%rbp), %eax	# i, tmp335
	cltq
	movl	%edx, -544(%rbp,%rax,8)	# D.11351, s
.L69:
	.loc 1 458 0
	cmpl	$0, -608(%rbp)	#, left_avail
	je	.L70	#,
	.loc 1 459 0
	movl	-628(%rbp), %eax	# i, tmp336
	addl	$1, %eax	#, D.11351
	movslq	%eax, %rdx	# D.11351, tmp337
	movq	%rdx, %rax	# tmp337, tmp338
	addq	%rax, %rax	# tmp338
	addq	%rdx, %rax	# tmp337, tmp338
	salq	$3, %rax	#, tmp339
	addq	%rbp, %rax	#, tmp340
	subq	$400, %rax	#, tmp341
	movl	4(%rax), %eax	# left[_129].pos_y, D.11351
	cltq
	leaq	0(,%rax,8), %rdx	#, D.11353
	movq	-584(%rbp), %rax	# imgY_pred, tmp342
	addq	%rdx, %rax	# D.11353, D.11354
	movq	(%rax), %rcx	# *_133, D.11355
	movl	-628(%rbp), %eax	# i, tmp343
	addl	$1, %eax	#, D.11351
	movslq	%eax, %rdx	# D.11351, tmp344
	movq	%rdx, %rax	# tmp344, tmp345
	addq	%rax, %rax	# tmp345
	addq	%rdx, %rax	# tmp344, tmp345
	salq	$3, %rax	#, tmp346
	addq	%rbp, %rax	#, tmp347
	subq	$400, %rax	#, tmp348
	movl	(%rax), %eax	# left[_135].pos_x, D.11351
	cltq
	addq	%rax, %rax	# D.11353
	addq	%rcx, %rax	# D.11355, D.11355
	movzwl	(%rax), %eax	# *_139, D.11356
	movzwl	%ax, %edx	# D.11356, D.11351
	movl	-628(%rbp), %eax	# i, tmp350
	cltq
	movl	%edx, -540(%rbp,%rax,8)	# D.11351, s
.L70:
	.loc 1 452 0
	addl	$1, -628(%rbp)	#, i
.L68:
	.loc 1 452 0 is_stmt 0 discriminator 1
	cmpl	$15, -628(%rbp)	#, i
	jle	.L71	#,
	.loc 1 462 0 is_stmt 1
	movl	$0, -624(%rbp)	#, j
	jmp	.L72	#
.L75:
	.loc 1 464 0
	movl	$0, -628(%rbp)	#, i
	jmp	.L73	#
.L74:
	.loc 1 466 0 discriminator 2
	movq	img(%rip), %rax	# img, img.135
	movl	-628(%rbp), %edx	# i, tmp352
	movslq	%edx, %rdx	# tmp352, tmp351
	movl	-544(%rbp,%rdx,8), %edx	# s, D.11351
	movl	-628(%rbp), %ecx	# i, tmp354
	movslq	%ecx, %rcx	# tmp354, tmp353
	movl	-624(%rbp), %esi	# j, tmp356
	movslq	%esi, %rsi	# tmp356, tmp355
	salq	$4, %rsi	#, tmp357
	addq	%rsi, %rcx	# tmp357, tmp358
	addq	$2392, %rcx	#, tmp359
	movw	%dx, 8(%rax,%rcx,2)	# D.11356, img.135_145->mprr_2
	.loc 1 467 0 discriminator 2
	movq	img(%rip), %rax	# img, img.136
	movl	-624(%rbp), %edx	# j, tmp361
	movslq	%edx, %rdx	# tmp361, tmp360
	movl	-540(%rbp,%rdx,8), %edx	# s, D.11351
	movl	-628(%rbp), %ecx	# i, tmp363
	movslq	%ecx, %rcx	# tmp363, tmp362
	movl	-624(%rbp), %esi	# j, tmp365
	movslq	%esi, %rsi	# tmp365, tmp364
	salq	$4, %rsi	#, tmp366
	addq	%rsi, %rcx	# tmp366, tmp367
	addq	$2648, %rcx	#, tmp368
	movw	%dx, 8(%rax,%rcx,2)	# D.11356, img.136_148->mprr_2
	.loc 1 468 0 discriminator 2
	movq	img(%rip), %rax	# img, img.137
	movl	-640(%rbp), %edx	# s0, tmp369
	movl	-628(%rbp), %ecx	# i, tmp371
	movslq	%ecx, %rcx	# tmp371, tmp370
	movl	-624(%rbp), %esi	# j, tmp373
	movslq	%esi, %rsi	# tmp373, tmp372
	salq	$4, %rsi	#, tmp374
	addq	%rsi, %rcx	# tmp374, tmp375
	addq	$2904, %rcx	#, tmp376
	movw	%dx, 8(%rax,%rcx,2)	# D.11356, img.137_151->mprr_2
	.loc 1 464 0 discriminator 2
	addl	$1, -628(%rbp)	#, i
.L73:
	.loc 1 464 0 is_stmt 0 discriminator 1
	cmpl	$15, -628(%rbp)	#, i
	jle	.L74	#,
	.loc 1 462 0 is_stmt 1
	addl	$1, -624(%rbp)	#, j
.L72:
	.loc 1 462 0 is_stmt 0 discriminator 1
	cmpl	$15, -624(%rbp)	#, j
	jle	.L75	#,
	.loc 1 471 0 is_stmt 1
	cmpl	$0, -612(%rbp)	#, up_avail
	je	.L47	#,
	.loc 1 471 0 is_stmt 0 discriminator 1
	cmpl	$0, -608(%rbp)	#, left_avail
	je	.L47	#,
	cmpl	$0, -604(%rbp)	#, left_up_avail
	je	.L47	#,
	.loc 1 476 0 is_stmt 1
	movl	$0, -620(%rbp)	#, ih
	.loc 1 477 0
	movl	$0, -616(%rbp)	#, iv
	.loc 1 478 0
	movl	$1, -628(%rbp)	#, i
	jmp	.L79	#
.L82:
	.loc 1 480 0
	cmpl	$7, -628(%rbp)	#, i
	jg	.L80	#,
	.loc 1 481 0
	movl	-556(%rbp), %eax	# up.pos_y, D.11351
	cltq
	leaq	0(,%rax,8), %rdx	#, D.11353
	movq	-584(%rbp), %rax	# imgY_pred, tmp377
	addq	%rdx, %rax	# D.11353, D.11354
	movq	(%rax), %rax	# *_161, D.11355
	movl	-560(%rbp), %edx	# up.pos_x, D.11351
	leal	7(%rdx), %ecx	#, D.11351
	movl	-628(%rbp), %edx	# i, tmp378
	addl	%ecx, %edx	# D.11351, D.11351
	movslq	%edx, %rdx	# D.11351, D.11353
	addq	%rdx, %rdx	# D.11353
	addq	%rdx, %rax	# D.11353, D.11355
	movzwl	(%rax), %eax	# *_168, D.11356
	movzwl	%ax, %edx	# D.11356, D.11351
	movl	-556(%rbp), %eax	# up.pos_y, D.11351
	cltq
	leaq	0(,%rax,8), %rcx	#, D.11353
	movq	-584(%rbp), %rax	# imgY_pred, tmp379
	addq	%rcx, %rax	# D.11353, D.11354
	movq	(%rax), %rax	# *_174, D.11355
	movl	-560(%rbp), %ecx	# up.pos_x, D.11351
	addl	$7, %ecx	#, D.11351
	subl	-628(%rbp), %ecx	# i, D.11351
	movslq	%ecx, %rcx	# D.11351, D.11353
	addq	%rcx, %rcx	# D.11353
	addq	%rcx, %rax	# D.11353, D.11355
	movzwl	(%rax), %eax	# *_181, D.11356
	movzwl	%ax, %eax	# D.11356, D.11351
	subl	%eax, %edx	# D.11351, D.11351
	movl	%edx, %eax	# D.11351, D.11351
	imull	-628(%rbp), %eax	# i, D.11351
	addl	%eax, -620(%rbp)	# D.11351, ih
	jmp	.L81	#
.L80:
	.loc 1 483 0
	movl	-556(%rbp), %eax	# up.pos_y, D.11351
	cltq
	leaq	0(,%rax,8), %rdx	#, D.11353
	movq	-584(%rbp), %rax	# imgY_pred, tmp380
	addq	%rdx, %rax	# D.11353, D.11354
	movq	(%rax), %rax	# *_190, D.11355
	movl	-560(%rbp), %edx	# up.pos_x, D.11351
	leal	7(%rdx), %ecx	#, D.11351
	movl	-628(%rbp), %edx	# i, tmp381
	addl	%ecx, %edx	# D.11351, D.11351
	movslq	%edx, %rdx	# D.11351, D.11353
	addq	%rdx, %rdx	# D.11353
	addq	%rdx, %rax	# D.11353, D.11355
	movzwl	(%rax), %eax	# *_197, D.11356
	movzwl	%ax, %edx	# D.11356, D.11351
	movl	-396(%rbp), %eax	# left[0].pos_y, D.11351
	cltq
	leaq	0(,%rax,8), %rcx	#, D.11353
	movq	-584(%rbp), %rax	# imgY_pred, tmp382
	addq	%rcx, %rax	# D.11353, D.11354
	movq	(%rax), %rax	# *_203, D.11355
	movl	-400(%rbp), %ecx	# left[0].pos_x, D.11351
	movslq	%ecx, %rcx	# D.11351, D.11353
	addq	%rcx, %rcx	# D.11353
	addq	%rcx, %rax	# D.11353, D.11355
	movzwl	(%rax), %eax	# *_208, D.11356
	movzwl	%ax, %eax	# D.11356, D.11351
	subl	%eax, %edx	# D.11351, D.11351
	movl	%edx, %eax	# D.11351, D.11351
	imull	-628(%rbp), %eax	# i, D.11351
	addl	%eax, -620(%rbp)	# D.11351, ih
.L81:
	.loc 1 485 0
	movl	-628(%rbp), %eax	# i, tmp383
	addl	$8, %eax	#, D.11351
	movslq	%eax, %rdx	# D.11351, tmp384
	movq	%rdx, %rax	# tmp384, tmp385
	addq	%rax, %rax	# tmp385
	addq	%rdx, %rax	# tmp384, tmp385
	salq	$3, %rax	#, tmp386
	addq	%rbp, %rax	#, tmp387
	subq	$400, %rax	#, tmp388
	movl	4(%rax), %eax	# left[_214].pos_y, D.11351
	cltq
	leaq	0(,%rax,8), %rdx	#, D.11353
	movq	-584(%rbp), %rax	# imgY_pred, tmp389
	addq	%rdx, %rax	# D.11353, D.11354
	movq	(%rax), %rcx	# *_218, D.11355
	movl	-628(%rbp), %eax	# i, tmp390
	addl	$8, %eax	#, D.11351
	movslq	%eax, %rdx	# D.11351, tmp391
	movq	%rdx, %rax	# tmp391, tmp392
	addq	%rax, %rax	# tmp392
	addq	%rdx, %rax	# tmp391, tmp392
	salq	$3, %rax	#, tmp393
	addq	%rbp, %rax	#, tmp394
	subq	$400, %rax	#, tmp395
	movl	(%rax), %eax	# left[_220].pos_x, D.11351
	cltq
	addq	%rax, %rax	# D.11353
	addq	%rcx, %rax	# D.11355, D.11355
	movzwl	(%rax), %eax	# *_224, D.11356
	movzwl	%ax, %ecx	# D.11356, D.11351
	movl	$8, %eax	#, tmp396
	subl	-628(%rbp), %eax	# i, D.11351
	movslq	%eax, %rdx	# D.11351, tmp397
	movq	%rdx, %rax	# tmp397, tmp398
	addq	%rax, %rax	# tmp398
	addq	%rdx, %rax	# tmp397, tmp398
	salq	$3, %rax	#, tmp399
	addq	%rbp, %rax	#, tmp400
	subq	$400, %rax	#, tmp401
	movl	4(%rax), %eax	# left[_227].pos_y, D.11351
	cltq
	leaq	0(,%rax,8), %rdx	#, D.11353
	movq	-584(%rbp), %rax	# imgY_pred, tmp402
	addq	%rdx, %rax	# D.11353, D.11354
	movq	(%rax), %rsi	# *_231, D.11355
	movl	$8, %eax	#, tmp403
	subl	-628(%rbp), %eax	# i, D.11351
	movslq	%eax, %rdx	# D.11351, tmp404
	movq	%rdx, %rax	# tmp404, tmp405
	addq	%rax, %rax	# tmp405
	addq	%rdx, %rax	# tmp404, tmp405
	salq	$3, %rax	#, tmp406
	addq	%rbp, %rax	#, tmp407
	subq	$400, %rax	#, tmp408
	movl	(%rax), %eax	# left[_233].pos_x, D.11351
	cltq
	addq	%rax, %rax	# D.11353
	addq	%rsi, %rax	# D.11355, D.11355
	movzwl	(%rax), %eax	# *_237, D.11356
	movzwl	%ax, %eax	# D.11356, D.11351
	subl	%eax, %ecx	# D.11351, D.11351
	movl	%ecx, %eax	# D.11351, D.11351
	imull	-628(%rbp), %eax	# i, D.11351
	addl	%eax, -616(%rbp)	# D.11351, iv
	.loc 1 478 0
	addl	$1, -628(%rbp)	#, i
.L79:
	.loc 1 478 0 is_stmt 0 discriminator 1
	cmpl	$8, -628(%rbp)	#, i
	jle	.L82	#,
	.loc 1 487 0 is_stmt 1
	movl	-620(%rbp), %edx	# ih, tmp409
	movl	%edx, %eax	# tmp409, tmp410
	sall	$2, %eax	#, tmp410
	addl	%edx, %eax	# tmp409, D.11351
	addl	$32, %eax	#, D.11351
	sarl	$6, %eax	#, tmp411
	movl	%eax, -596(%rbp)	# tmp411, ib
	.loc 1 488 0
	movl	-616(%rbp), %edx	# iv, tmp412
	movl	%edx, %eax	# tmp412, tmp413
	sall	$2, %eax	#, tmp413
	addl	%edx, %eax	# tmp412, D.11351
	addl	$32, %eax	#, D.11351
	sarl	$6, %eax	#, tmp414
	movl	%eax, -592(%rbp)	# tmp414, ic
	.loc 1 490 0
	movl	-556(%rbp), %eax	# up.pos_y, D.11351
	cltq
	leaq	0(,%rax,8), %rdx	#, D.11353
	movq	-584(%rbp), %rax	# imgY_pred, tmp415
	addq	%rdx, %rax	# D.11353, D.11354
	movq	(%rax), %rax	# *_253, D.11355
	movl	-560(%rbp), %edx	# up.pos_x, D.11351
	movslq	%edx, %rdx	# D.11351, D.11358
	addq	$15, %rdx	#, D.11358
	addq	%rdx, %rdx	# D.11358
	addq	%rdx, %rax	# D.11358, D.11355
	movzwl	(%rax), %eax	# *_259, D.11356
	movzwl	%ax, %edx	# D.11356, D.11351
	movl	-12(%rbp), %eax	# left[16].pos_y, D.11351
	cltq
	leaq	0(,%rax,8), %rcx	#, D.11353
	movq	-584(%rbp), %rax	# imgY_pred, tmp416
	addq	%rcx, %rax	# D.11353, D.11354
	movq	(%rax), %rax	# *_265, D.11355
	movl	-16(%rbp), %ecx	# left[16].pos_x, D.11351
	movslq	%ecx, %rcx	# D.11351, D.11353
	addq	%rcx, %rcx	# D.11353
	addq	%rcx, %rax	# D.11353, D.11355
	movzwl	(%rax), %eax	# *_270, D.11356
	movzwl	%ax, %eax	# D.11356, D.11351
	addl	%edx, %eax	# D.11351, D.11351
	sall	$4, %eax	#, tmp417
	movl	%eax, -588(%rbp)	# tmp417, iaa
	.loc 1 492 0
	movl	$0, -624(%rbp)	#, j
	jmp	.L83	#
.L86:
	.loc 1 494 0
	movl	$0, -628(%rbp)	#, i
	jmp	.L84	#
.L85:
	.loc 1 496 0 discriminator 2
	movq	img(%rip), %rcx	# img, img.138
	movl	-628(%rbp), %eax	# i, tmp418
	subl	$7, %eax	#, D.11351
	imull	-596(%rbp), %eax	# ib, D.11351
	movl	%eax, %edx	# D.11351, D.11351
	movl	-588(%rbp), %eax	# iaa, tmp419
	addl	%eax, %edx	# tmp419, D.11351
	movl	-624(%rbp), %eax	# j, tmp420
	subl	$7, %eax	#, D.11351
	imull	-592(%rbp), %eax	# ic, D.11351
	addl	%edx, %eax	# D.11351, D.11351
	addl	$16, %eax	#, D.11351
	leal	31(%rax), %edx	#, tmp422
	testl	%eax, %eax	# tmp421
	cmovs	%edx, %eax	# tmp422,, tmp421
	sarl	$5, %eax	#, tmp423
	movl	%eax, %edx	# tmp423, D.11351
	movq	img(%rip), %rax	# img, img.139
	movl	72684(%rax), %eax	# img.139_286->max_imgpel_value, D.11351
	cmpl	%eax, %edx	# D.11351, D.11351
	cmovle	%edx, %eax	# D.11351,, D.11351
	movl	$0, %edx	#, tmp424
	testl	%eax, %eax	# D.11351
	cmovs	%edx, %eax	# D.11351,, tmp424, D.11351
	movl	-628(%rbp), %edx	# i, tmp426
	movslq	%edx, %rdx	# tmp426, tmp425
	movl	-624(%rbp), %esi	# j, tmp428
	movslq	%esi, %rsi	# tmp428, tmp427
	salq	$4, %rsi	#, tmp429
	addq	%rsi, %rdx	# tmp429, tmp430
	addq	$3160, %rdx	#, tmp431
	movw	%ax, 8(%rcx,%rdx,2)	# D.11356, img.138_277->mprr_2
	.loc 1 494 0 discriminator 2
	addl	$1, -628(%rbp)	#, i
.L84:
	.loc 1 494 0 is_stmt 0 discriminator 1
	cmpl	$15, -628(%rbp)	#, i
	jle	.L85	#,
	.loc 1 492 0 is_stmt 1
	addl	$1, -624(%rbp)	#, j
.L83:
	.loc 1 492 0 is_stmt 0 discriminator 1
	cmpl	$15, -624(%rbp)	#, j
	jle	.L86	#,
.L47:
	.loc 1 499 0 is_stmt 1
	leave
	.cfi_def_cfa 7, 8
	ret
	.cfi_endproc
.LFE3:
	.size	intrapred_luma_16x16, .-intrapred_luma_16x16
	.globl	dct_luma_16x16
	.type	dct_luma_16x16, @function
dct_luma_16x16:
.LFB4:
	.loc 1 515 0
	.cfi_startproc
	pushq	%rbp	#
	.cfi_def_cfa_offset 16
	.cfi_offset 6, -16
	movq	%rsp, %rbp	#,
	.cfi_def_cfa_register 6
	pushq	%rbx	#
	subq	$2280, %rsp	#,
	.cfi_offset 3, -24
	movl	%edi, -2276(%rbp)	# new_intra_mode, new_intra_mode
	.loc 1 526 0
	movl	$0, -2236(%rbp)	#, ac_coef
	.loc 1 528 0
	movq	img(%rip), %rax	# img, img.140
	movq	14168(%rax), %rdx	# img.140_60->mb_data, D.11359
	movq	img(%rip), %rax	# img, img.141
	movl	12(%rax), %eax	# img.141_62->current_mb_nr, D.11360
	cltq
	imulq	$632, %rax, %rax	#, D.11361, D.11361
	addq	%rdx, %rax	# D.11359, tmp499
	movq	%rax, -2200(%rbp)	# tmp499, currMB
	.loc 1 531 0
	movq	img(%rip), %rax	# img, img.142
	movq	14144(%rax), %rax	# img.142_67->cofDC, D.11362
	movq	(%rax), %rax	# *_68, D.11363
	movq	(%rax), %rax	# *_69, tmp500
	movq	%rax, -2192(%rbp)	# tmp500, DCLevel
	.loc 1 532 0
	movq	img(%rip), %rax	# img, img.143
	movq	14144(%rax), %rax	# img.143_71->cofDC, D.11362
	movq	(%rax), %rax	# *_72, D.11363
	movq	8(%rax), %rax	# MEM[(int * *)_73 + 8B], tmp501
	movq	%rax, -2184(%rbp)	# tmp501, DCRun
	.loc 1 536 0
	movq	-2200(%rbp), %rax	# currMB, tmp502
	movl	12(%rax), %edx	# currMB_66->qp, D.11360
	movq	img(%rip), %rax	# img, img.145
	movl	72668(%rax), %eax	# img.145_76->bitdepth_luma_qp_scale, D.11360
	addl	%edx, %eax	# D.11360, D.11360
	testl	%eax, %eax	# D.11360
	jne	.L88	#,
	.loc 1 536 0 is_stmt 0 discriminator 1
	movq	img(%rip), %rax	# img, img.146
	movl	72704(%rax), %eax	# img.146_79->lossless_qpprime_flag, D.11360
	cmpl	$1, %eax	#, D.11360
	jne	.L88	#,
	.loc 1 536 0 discriminator 3
	movl	$1, %eax	#, iftmp.144
	jmp	.L89	#
.L88:
	.loc 1 536 0 discriminator 2
	movl	$0, %eax	#, iftmp.144
.L89:
	.loc 1 536 0 discriminator 4
	movl	%eax, -2232(%rbp)	# iftmp.144, lossless_qpprime
	.loc 1 538 0 is_stmt 1 discriminator 4
	movq	-2200(%rbp), %rax	# currMB, tmp503
	movl	12(%rax), %edx	# currMB_66->qp, D.11360
	movq	img(%rip), %rax	# img, img.147
	movl	72668(%rax), %eax	# img.147_85->bitdepth_luma_qp_scale, D.11360
	leal	(%rdx,%rax), %ecx	#, D.11360
	movl	$715827883, %edx	#, tmp505
	movl	%ecx, %eax	# D.11360, tmp1565
	imull	%edx	# tmp505
	movl	%ecx, %eax	# D.11360, tmp506
	sarl	$31, %eax	#, tmp506
	subl	%eax, %edx	# tmp506, tmp507
	movl	%edx, %eax	# tmp507, tmp507
	movl	%eax, -2228(%rbp)	# tmp507, qp_per
	.loc 1 539 0 discriminator 4
	movq	-2200(%rbp), %rax	# currMB, tmp508
	movl	12(%rax), %edx	# currMB_66->qp, D.11360
	movq	img(%rip), %rax	# img, img.148
	movl	72668(%rax), %eax	# img.148_90->bitdepth_luma_qp_scale, D.11360
	leal	(%rdx,%rax), %ecx	#, D.11360
	movl	$715827883, %edx	#, tmp510
	movl	%ecx, %eax	# D.11360, tmp1566
	imull	%edx	# tmp510
	movl	%ecx, %eax	# D.11360, tmp511
	sarl	$31, %eax	#, tmp511
	subl	%eax, %edx	# tmp511, tmp512
	movl	%edx, %eax	# tmp512, tmp512
	movl	%eax, -2224(%rbp)	# tmp512, qp_rem
	movl	-2224(%rbp), %edx	# qp_rem, tmp513
	movl	%edx, %eax	# tmp513, tmp514
	addl	%eax, %eax	# tmp514
	addl	%edx, %eax	# tmp513, tmp514
	addl	%eax, %eax	# tmp515
	subl	%eax, %ecx	# tmp514, tmp516
	movl	%ecx, %eax	# tmp516, tmp516
	movl	%eax, -2224(%rbp)	# tmp516, qp_rem
	.loc 1 540 0 discriminator 4
	movl	-2228(%rbp), %eax	# qp_per, tmp520
	addl	$15, %eax	#, tmp519
	movl	%eax, -2220(%rbp)	# tmp519, q_bits
	.loc 1 543 0 discriminator 4
	movl	$0, -2264(%rbp)	#, j
	jmp	.L90	#
.L95:
	.loc 1 545 0
	movl	$0, -2268(%rbp)	#, i
	jmp	.L91	#
.L94:
	.loc 1 548 0
	movq	img(%rip), %rax	# img, img.149
	movl	72724(%rax), %eax	# img.149_97->residue_transform_flag, D.11360
	testl	%eax, %eax	# D.11360
	jne	.L92	#,
	.loc 1 549 0
	movq	imgY_org(%rip), %rdx	# imgY_org, imgY_org.150
	movq	img(%rip), %rax	# img, img.151
	movl	172(%rax), %ecx	# img.151_100->opix_y, D.11360
	movl	-2264(%rbp), %eax	# j, tmp521
	addl	%ecx, %eax	# D.11360, D.11360
	cltq
	salq	$3, %rax	#, D.11361
	addq	%rdx, %rax	# imgY_org.150, D.11364
	movq	(%rax), %rdx	# *_105, D.11365
	movq	img(%rip), %rax	# img, img.152
	movl	168(%rax), %ecx	# img.152_107->opix_x, D.11360
	movl	-2268(%rbp), %eax	# i, tmp522
	addl	%ecx, %eax	# D.11360, D.11360
	cltq
	addq	%rax, %rax	# D.11361
	addq	%rdx, %rax	# D.11365, D.11365
	movzwl	(%rax), %eax	# *_112, D.11366
	movzwl	%ax, %edx	# D.11366, D.11360
	movq	img(%rip), %rax	# img, img.153
	movl	-2268(%rbp), %ecx	# i, tmp524
	movslq	%ecx, %rcx	# tmp524, tmp523
	movl	-2276(%rbp), %esi	# new_intra_mode, tmp526
	movslq	%esi, %rdi	# tmp526, tmp525
	movl	-2264(%rbp), %esi	# j, tmp528
	movslq	%esi, %rsi	# tmp528, tmp527
	salq	$4, %rdi	#, tmp529
	addq	%rdi, %rsi	# tmp529, tmp530
	salq	$4, %rsi	#, tmp531
	addq	%rsi, %rcx	# tmp531, tmp532
	addq	$2392, %rcx	#, tmp533
	movzwl	8(%rax,%rcx,2), %eax	# img.153_115->mprr_2, D.11366
	movzwl	%ax, %eax	# D.11366, D.11360
	subl	%eax, %edx	# D.11360, D.11360
	movl	-2264(%rbp), %eax	# j, tmp535
	cltq
	movl	-2268(%rbp), %ecx	# i, tmp537
	movslq	%ecx, %rcx	# tmp537, tmp536
	salq	$4, %rcx	#, tmp538
	addq	%rcx, %rax	# tmp538, tmp539
	movl	%edx, -2064(%rbp,%rax,4)	# D.11360, M1
	jmp	.L93	#
.L92:
	.loc 1 551 0
	movq	img(%rip), %rax	# img, img.154
	movl	-2264(%rbp), %edx	# j, tmp541
	movslq	%edx, %rdx	# tmp541, tmp540
	movl	-2268(%rbp), %ecx	# i, tmp543
	movslq	%ecx, %rcx	# tmp543, tmp542
	salq	$4, %rcx	#, tmp544
	addq	%rcx, %rdx	# tmp544, tmp545
	addq	$3276, %rdx	#, tmp546
	movl	8(%rax,%rdx,4), %eax	# img.154_120->m7, D.11360
	movl	-2264(%rbp), %edx	# j, tmp548
	movslq	%edx, %rdx	# tmp548, tmp547
	movl	-2268(%rbp), %ecx	# i, tmp550
	movslq	%ecx, %rcx	# tmp550, tmp549
	salq	$4, %rcx	#, tmp551
	addq	%rcx, %rdx	# tmp551, tmp552
	movl	%eax, -2064(%rbp,%rdx,4)	# D.11360, M1
.L93:
	.loc 1 553 0
	movl	-2268(%rbp), %eax	# i, tmp553
	cltd
	shrl	$30, %edx	#, tmp555
	addl	%edx, %eax	# tmp555, tmp556
	andl	$3, %eax	#, tmp557
	subl	%edx, %eax	# tmp555, tmp558
	movl	%eax, %edi	# tmp558, D.11360
	movl	-2268(%rbp), %eax	# i, tmp559
	leal	3(%rax), %edx	#, tmp561
	testl	%eax, %eax	# tmp560
	cmovs	%edx, %eax	# tmp561,, tmp560
	sarl	$2, %eax	#, tmp562
	movl	%eax, %esi	# tmp562, D.11360
	movl	-2264(%rbp), %eax	# j, tmp563
	cltd
	shrl	$30, %edx	#, tmp565
	addl	%edx, %eax	# tmp565, tmp566
	andl	$3, %eax	#, tmp567
	subl	%edx, %eax	# tmp565, tmp568
	movl	%eax, %ecx	# tmp568, D.11360
	movl	-2264(%rbp), %eax	# j, tmp569
	leal	3(%rax), %edx	#, tmp571
	testl	%eax, %eax	# tmp570
	cmovs	%edx, %eax	# tmp571,, tmp570
	sarl	$2, %eax	#, tmp572
	movl	%eax, %edx	# tmp572, D.11360
	movl	-2264(%rbp), %eax	# j, tmp574
	cltq
	movl	-2268(%rbp), %r8d	# i, tmp576
	movslq	%r8d, %r8	# tmp576, tmp575
	salq	$4, %r8	#, tmp577
	addq	%r8, %rax	# tmp577, tmp578
	movl	-2064(%rbp,%rax,4), %eax	# M1, D.11360
	movslq	%edx, %rdx	# D.11360, tmp579
	movslq	%esi, %rsi	# D.11360, tmp580
	movslq	%edi, %rdi	# D.11360, tmp581
	salq	$2, %rdi	#, tmp582
	addq	%rdi, %rsi	# tmp582, tmp583
	movslq	%ecx, %rcx	# D.11360, tmp584
	salq	$2, %rsi	#, tmp585
	addq	%rsi, %rcx	# tmp585, tmp586
	salq	$2, %rcx	#, tmp587
	addq	%rcx, %rdx	# tmp587, tmp588
	movl	%eax, -1040(%rbp,%rdx,4)	# D.11360, M0
	.loc 1 545 0
	addl	$1, -2268(%rbp)	#, i
.L91:
	.loc 1 545 0 is_stmt 0 discriminator 1
	cmpl	$15, -2268(%rbp)	#, i
	jle	.L94	#,
	.loc 1 543 0 is_stmt 1
	addl	$1, -2264(%rbp)	#, j
.L90:
	.loc 1 543 0 is_stmt 0 discriminator 1
	cmpl	$15, -2264(%rbp)	#, j
	jle	.L95	#,
	.loc 1 557 0 is_stmt 1
	movl	$0, -2256(%rbp)	#, jj
	jmp	.L96	#
.L108:
	.loc 1 559 0
	movl	$0, -2260(%rbp)	#, ii
	jmp	.L97	#
.L106:
	.loc 1 561 0
	movl	$0, -2264(%rbp)	#, j
	jmp	.L98	#
.L101:
	.loc 1 563 0
	movl	$0, -2268(%rbp)	#, i
	jmp	.L99	#
.L100:
	.loc 1 565 0 discriminator 2
	movl	$3, %eax	#, tmp592
	subl	-2268(%rbp), %eax	# i, tmp591
	movl	%eax, -2216(%rbp)	# tmp591, i1
	.loc 1 566 0 discriminator 2
	movl	-2256(%rbp), %eax	# jj, tmp594
	cltq
	movl	-2260(%rbp), %edx	# ii, tmp596
	movslq	%edx, %rdx	# tmp596, tmp595
	movl	-2268(%rbp), %ecx	# i, tmp598
	movslq	%ecx, %rcx	# tmp598, tmp597
	salq	$2, %rcx	#, tmp599
	addq	%rdx, %rcx	# tmp595, tmp600
	movl	-2264(%rbp), %edx	# j, tmp602
	movslq	%edx, %rdx	# tmp602, tmp601
	salq	$2, %rcx	#, tmp603
	addq	%rcx, %rdx	# tmp603, tmp604
	salq	$2, %rdx	#, tmp605
	addq	%rdx, %rax	# tmp605, tmp606
	movl	-1040(%rbp,%rax,4), %edx	# M0, D.11360
	movl	-2256(%rbp), %eax	# jj, tmp608
	cltq
	movl	-2260(%rbp), %ecx	# ii, tmp610
	movslq	%ecx, %rcx	# tmp610, tmp609
	movl	-2216(%rbp), %esi	# i1, tmp612
	movslq	%esi, %rsi	# tmp612, tmp611
	salq	$2, %rsi	#, tmp613
	addq	%rcx, %rsi	# tmp609, tmp614
	movl	-2264(%rbp), %ecx	# j, tmp616
	movslq	%ecx, %rcx	# tmp616, tmp615
	salq	$2, %rsi	#, tmp617
	addq	%rsi, %rcx	# tmp617, tmp618
	salq	$2, %rcx	#, tmp619
	addq	%rcx, %rax	# tmp619, tmp620
	movl	-1040(%rbp,%rax,4), %eax	# M0, D.11360
	addl	%eax, %edx	# D.11360, D.11360
	movl	-2268(%rbp), %eax	# i, tmp622
	cltq
	movl	%edx, -2160(%rbp,%rax,4)	# D.11360, M5
	.loc 1 567 0 discriminator 2
	movl	-2256(%rbp), %eax	# jj, tmp624
	cltq
	movl	-2260(%rbp), %edx	# ii, tmp626
	movslq	%edx, %rdx	# tmp626, tmp625
	movl	-2268(%rbp), %ecx	# i, tmp628
	movslq	%ecx, %rcx	# tmp628, tmp627
	salq	$2, %rcx	#, tmp629
	addq	%rdx, %rcx	# tmp625, tmp630
	movl	-2264(%rbp), %edx	# j, tmp632
	movslq	%edx, %rdx	# tmp632, tmp631
	salq	$2, %rcx	#, tmp633
	addq	%rcx, %rdx	# tmp633, tmp634
	salq	$2, %rdx	#, tmp635
	addq	%rdx, %rax	# tmp635, tmp636
	movl	-1040(%rbp,%rax,4), %edx	# M0, D.11360
	movl	-2256(%rbp), %eax	# jj, tmp638
	cltq
	movl	-2260(%rbp), %ecx	# ii, tmp640
	movslq	%ecx, %rcx	# tmp640, tmp639
	movl	-2216(%rbp), %esi	# i1, tmp642
	movslq	%esi, %rsi	# tmp642, tmp641
	salq	$2, %rsi	#, tmp643
	addq	%rcx, %rsi	# tmp639, tmp644
	movl	-2264(%rbp), %ecx	# j, tmp646
	movslq	%ecx, %rcx	# tmp646, tmp645
	salq	$2, %rsi	#, tmp647
	addq	%rsi, %rcx	# tmp647, tmp648
	salq	$2, %rcx	#, tmp649
	addq	%rcx, %rax	# tmp649, tmp650
	movl	-1040(%rbp,%rax,4), %eax	# M0, D.11360
	subl	%eax, %edx	# D.11360, D.11360
	movl	-2216(%rbp), %eax	# i1, tmp652
	cltq
	movl	%edx, -2160(%rbp,%rax,4)	# D.11360, M5
	.loc 1 563 0 discriminator 2
	addl	$1, -2268(%rbp)	#, i
.L99:
	.loc 1 563 0 is_stmt 0 discriminator 1
	cmpl	$1, -2268(%rbp)	#, i
	jle	.L100	#,
	.loc 1 569 0 is_stmt 1
	movl	-2160(%rbp), %edx	# M5, D.11360
	movl	-2156(%rbp), %eax	# M5, D.11360
	addl	%eax, %edx	# D.11360, D.11360
	movl	-2256(%rbp), %eax	# jj, tmp654
	cltq
	movl	-2260(%rbp), %ecx	# ii, tmp656
	movslq	%ecx, %rsi	# tmp656, tmp655
	movl	-2264(%rbp), %ecx	# j, tmp658
	movslq	%ecx, %rcx	# tmp658, tmp657
	salq	$2, %rsi	#, tmp659
	addq	%rsi, %rcx	# tmp659, tmp660
	salq	$2, %rcx	#, tmp661
	addq	%rcx, %rax	# tmp661, tmp662
	movl	%edx, -1040(%rbp,%rax,4)	# D.11360, M0
	.loc 1 570 0
	movl	-2160(%rbp), %edx	# M5, D.11360
	movl	-2156(%rbp), %eax	# M5, D.11360
	subl	%eax, %edx	# D.11360, D.11360
	movl	-2256(%rbp), %eax	# jj, tmp664
	cltq
	movl	-2260(%rbp), %ecx	# ii, tmp666
	movslq	%ecx, %rsi	# tmp666, tmp665
	movl	-2264(%rbp), %ecx	# j, tmp668
	movslq	%ecx, %rcx	# tmp668, tmp667
	salq	$2, %rsi	#, tmp669
	addq	%rsi, %rcx	# tmp669, tmp670
	salq	$2, %rcx	#, tmp671
	addq	%rcx, %rax	# tmp671, tmp672
	subq	$-128, %rax	#, tmp673
	movl	%edx, -1040(%rbp,%rax,4)	# D.11360, M0
	.loc 1 571 0
	movl	-2148(%rbp), %eax	# M5, D.11360
	leal	(%rax,%rax), %edx	#, D.11360
	movl	-2152(%rbp), %eax	# M5, D.11360
	addl	%eax, %edx	# D.11360, D.11360
	movl	-2256(%rbp), %eax	# jj, tmp675
	cltq
	movl	-2260(%rbp), %ecx	# ii, tmp677
	movslq	%ecx, %rsi	# tmp677, tmp676
	movl	-2264(%rbp), %ecx	# j, tmp679
	movslq	%ecx, %rcx	# tmp679, tmp678
	salq	$2, %rsi	#, tmp680
	addq	%rsi, %rcx	# tmp680, tmp681
	salq	$2, %rcx	#, tmp682
	addq	%rcx, %rax	# tmp682, tmp683
	addq	$64, %rax	#, tmp684
	movl	%edx, -1040(%rbp,%rax,4)	# D.11360, M0
	.loc 1 572 0
	movl	-2148(%rbp), %edx	# M5, D.11360
	movl	-2152(%rbp), %ecx	# M5, D.11360
	movl	$0, %eax	#, tmp685
	subl	%ecx, %eax	# D.11360, tmp685
	addl	%eax, %eax	# tmp686
	addl	%eax, %edx	# D.11360, D.11360
	movl	-2256(%rbp), %eax	# jj, tmp688
	cltq
	movl	-2260(%rbp), %ecx	# ii, tmp690
	movslq	%ecx, %rsi	# tmp690, tmp689
	movl	-2264(%rbp), %ecx	# j, tmp692
	movslq	%ecx, %rcx	# tmp692, tmp691
	salq	$2, %rsi	#, tmp693
	addq	%rsi, %rcx	# tmp693, tmp694
	salq	$2, %rcx	#, tmp695
	addq	%rcx, %rax	# tmp695, tmp696
	addq	$192, %rax	#, tmp697
	movl	%edx, -1040(%rbp,%rax,4)	# D.11360, M0
	.loc 1 561 0
	addl	$1, -2264(%rbp)	#, j
.L98:
	.loc 1 561 0 is_stmt 0 discriminator 1
	cmpl	$3, -2264(%rbp)	#, j
	jle	.L101	#,
	.loc 1 575 0 is_stmt 1
	movl	$0, -2268(%rbp)	#, i
	jmp	.L102	#
.L105:
	.loc 1 577 0
	movl	$0, -2264(%rbp)	#, j
	jmp	.L103	#
.L104:
	.loc 1 579 0 discriminator 2
	movl	$3, %eax	#, tmp701
	subl	-2264(%rbp), %eax	# j, tmp700
	movl	%eax, -2212(%rbp)	# tmp700, j1
	.loc 1 580 0 discriminator 2
	movl	-2256(%rbp), %eax	# jj, tmp703
	cltq
	movl	-2260(%rbp), %edx	# ii, tmp705
	movslq	%edx, %rdx	# tmp705, tmp704
	movl	-2268(%rbp), %ecx	# i, tmp707
	movslq	%ecx, %rcx	# tmp707, tmp706
	salq	$2, %rcx	#, tmp708
	addq	%rdx, %rcx	# tmp704, tmp709
	movl	-2264(%rbp), %edx	# j, tmp711
	movslq	%edx, %rdx	# tmp711, tmp710
	salq	$2, %rcx	#, tmp712
	addq	%rcx, %rdx	# tmp712, tmp713
	salq	$2, %rdx	#, tmp714
	addq	%rdx, %rax	# tmp714, tmp715
	movl	-1040(%rbp,%rax,4), %edx	# M0, D.11360
	movl	-2256(%rbp), %eax	# jj, tmp717
	cltq
	movl	-2260(%rbp), %ecx	# ii, tmp719
	movslq	%ecx, %rcx	# tmp719, tmp718
	movl	-2268(%rbp), %esi	# i, tmp721
	movslq	%esi, %rsi	# tmp721, tmp720
	salq	$2, %rsi	#, tmp722
	addq	%rcx, %rsi	# tmp718, tmp723
	movl	-2212(%rbp), %ecx	# j1, tmp725
	movslq	%ecx, %rcx	# tmp725, tmp724
	salq	$2, %rsi	#, tmp726
	addq	%rsi, %rcx	# tmp726, tmp727
	salq	$2, %rcx	#, tmp728
	addq	%rcx, %rax	# tmp728, tmp729
	movl	-1040(%rbp,%rax,4), %eax	# M0, D.11360
	addl	%eax, %edx	# D.11360, D.11360
	movl	-2264(%rbp), %eax	# j, tmp731
	cltq
	movl	%edx, -2160(%rbp,%rax,4)	# D.11360, M5
	.loc 1 581 0 discriminator 2
	movl	-2256(%rbp), %eax	# jj, tmp733
	cltq
	movl	-2260(%rbp), %edx	# ii, tmp735
	movslq	%edx, %rdx	# tmp735, tmp734
	movl	-2268(%rbp), %ecx	# i, tmp737
	movslq	%ecx, %rcx	# tmp737, tmp736
	salq	$2, %rcx	#, tmp738
	addq	%rdx, %rcx	# tmp734, tmp739
	movl	-2264(%rbp), %edx	# j, tmp741
	movslq	%edx, %rdx	# tmp741, tmp740
	salq	$2, %rcx	#, tmp742
	addq	%rcx, %rdx	# tmp742, tmp743
	salq	$2, %rdx	#, tmp744
	addq	%rdx, %rax	# tmp744, tmp745
	movl	-1040(%rbp,%rax,4), %edx	# M0, D.11360
	movl	-2256(%rbp), %eax	# jj, tmp747
	cltq
	movl	-2260(%rbp), %ecx	# ii, tmp749
	movslq	%ecx, %rcx	# tmp749, tmp748
	movl	-2268(%rbp), %esi	# i, tmp751
	movslq	%esi, %rsi	# tmp751, tmp750
	salq	$2, %rsi	#, tmp752
	addq	%rcx, %rsi	# tmp748, tmp753
	movl	-2212(%rbp), %ecx	# j1, tmp755
	movslq	%ecx, %rcx	# tmp755, tmp754
	salq	$2, %rsi	#, tmp756
	addq	%rsi, %rcx	# tmp756, tmp757
	salq	$2, %rcx	#, tmp758
	addq	%rcx, %rax	# tmp758, tmp759
	movl	-1040(%rbp,%rax,4), %eax	# M0, D.11360
	subl	%eax, %edx	# D.11360, D.11360
	movl	-2212(%rbp), %eax	# j1, tmp761
	cltq
	movl	%edx, -2160(%rbp,%rax,4)	# D.11360, M5
	.loc 1 577 0 discriminator 2
	addl	$1, -2264(%rbp)	#, j
.L103:
	.loc 1 577 0 is_stmt 0 discriminator 1
	cmpl	$1, -2264(%rbp)	#, j
	jle	.L104	#,
	.loc 1 583 0 is_stmt 1
	movl	-2160(%rbp), %edx	# M5, D.11360
	movl	-2156(%rbp), %eax	# M5, D.11360
	addl	%eax, %edx	# D.11360, D.11360
	movl	-2256(%rbp), %eax	# jj, tmp763
	cltq
	movl	-2268(%rbp), %ecx	# i, tmp765
	movslq	%ecx, %rsi	# tmp765, tmp764
	movl	-2260(%rbp), %ecx	# ii, tmp767
	movslq	%ecx, %rcx	# tmp767, tmp766
	salq	$2, %rsi	#, tmp768
	addq	%rsi, %rcx	# tmp768, tmp769
	salq	$4, %rcx	#, tmp770
	addq	%rcx, %rax	# tmp770, tmp771
	movl	%edx, -1040(%rbp,%rax,4)	# D.11360, M0
	.loc 1 584 0
	movl	-2160(%rbp), %edx	# M5, D.11360
	movl	-2156(%rbp), %eax	# M5, D.11360
	subl	%eax, %edx	# D.11360, D.11360
	movl	-2256(%rbp), %eax	# jj, tmp773
	cltq
	movl	-2260(%rbp), %ecx	# ii, tmp775
	movslq	%ecx, %rsi	# tmp775, tmp774
	movl	-2268(%rbp), %ecx	# i, tmp777
	movslq	%ecx, %rcx	# tmp777, tmp776
	salq	$4, %rsi	#, tmp778
	salq	$6, %rcx	#, tmp779
	addq	%rsi, %rcx	# tmp778, tmp780
	addq	%rcx, %rax	# tmp780, tmp781
	addq	$8, %rax	#, tmp782
	movl	%edx, -1040(%rbp,%rax,4)	# D.11360, M0
	.loc 1 585 0
	movl	-2148(%rbp), %eax	# M5, D.11360
	leal	(%rax,%rax), %edx	#, D.11360
	movl	-2152(%rbp), %eax	# M5, D.11360
	addl	%eax, %edx	# D.11360, D.11360
	movl	-2256(%rbp), %eax	# jj, tmp784
	cltq
	movl	-2260(%rbp), %ecx	# ii, tmp786
	movslq	%ecx, %rsi	# tmp786, tmp785
	movl	-2268(%rbp), %ecx	# i, tmp788
	movslq	%ecx, %rcx	# tmp788, tmp787
	salq	$4, %rsi	#, tmp789
	salq	$6, %rcx	#, tmp790
	addq	%rsi, %rcx	# tmp789, tmp791
	addq	%rcx, %rax	# tmp791, tmp792
	addq	$4, %rax	#, tmp793
	movl	%edx, -1040(%rbp,%rax,4)	# D.11360, M0
	.loc 1 586 0
	movl	-2148(%rbp), %edx	# M5, D.11360
	movl	-2152(%rbp), %ecx	# M5, D.11360
	movl	$0, %eax	#, tmp794
	subl	%ecx, %eax	# D.11360, tmp794
	addl	%eax, %eax	# tmp795
	addl	%eax, %edx	# D.11360, D.11360
	movl	-2256(%rbp), %eax	# jj, tmp797
	cltq
	movl	-2260(%rbp), %ecx	# ii, tmp799
	movslq	%ecx, %rsi	# tmp799, tmp798
	movl	-2268(%rbp), %ecx	# i, tmp801
	movslq	%ecx, %rcx	# tmp801, tmp800
	salq	$4, %rsi	#, tmp802
	salq	$6, %rcx	#, tmp803
	addq	%rsi, %rcx	# tmp802, tmp804
	addq	%rcx, %rax	# tmp804, tmp805
	addq	$12, %rax	#, tmp806
	movl	%edx, -1040(%rbp,%rax,4)	# D.11360, M0
	.loc 1 575 0
	addl	$1, -2268(%rbp)	#, i
.L102:
	.loc 1 575 0 is_stmt 0 discriminator 1
	cmpl	$3, -2268(%rbp)	#, i
	jle	.L105	#,
	.loc 1 559 0 is_stmt 1
	addl	$1, -2260(%rbp)	#, ii
.L97:
	.loc 1 559 0 is_stmt 0 discriminator 1
	cmpl	$3, -2260(%rbp)	#, ii
	jle	.L106	#,
	.loc 1 557 0 is_stmt 1
	addl	$1, -2256(%rbp)	#, jj
.L96:
	.loc 1 557 0 is_stmt 0 discriminator 1
	cmpl	$3, -2256(%rbp)	#, jj
	jg	.L107	#,
	.loc 1 557 0 discriminator 2
	cmpl	$0, -2232(%rbp)	#, lossless_qpprime
	je	.L108	#,
.L107:
	.loc 1 593 0 is_stmt 1
	movl	$0, -2264(%rbp)	#, j
	jmp	.L109	#
.L112:
	.loc 1 594 0
	movl	$0, -2268(%rbp)	#, i
	jmp	.L110	#
.L111:
	.loc 1 595 0 discriminator 2
	movl	-2264(%rbp), %eax	# j, tmp808
	cltq
	movl	-2268(%rbp), %edx	# i, tmp810
	movslq	%edx, %rdx	# tmp810, tmp809
	salq	$4, %rdx	#, tmp811
	addq	%rdx, %rax	# tmp811, tmp812
	movl	-1040(%rbp,%rax,4), %eax	# M0, D.11360
	movl	-2264(%rbp), %edx	# j, tmp814
	movslq	%edx, %rdx	# tmp814, tmp813
	movl	-2268(%rbp), %ecx	# i, tmp816
	movslq	%ecx, %rcx	# tmp816, tmp815
	salq	$2, %rcx	#, tmp817
	addq	%rcx, %rdx	# tmp817, tmp818
	movl	%eax, -2128(%rbp,%rdx,4)	# D.11360, M4
	.loc 1 594 0 discriminator 2
	addl	$1, -2268(%rbp)	#, i
.L110:
	.loc 1 594 0 is_stmt 0 discriminator 1
	cmpl	$3, -2268(%rbp)	#, i
	jle	.L111	#,
	.loc 1 593 0 is_stmt 1
	addl	$1, -2264(%rbp)	#, j
.L109:
	.loc 1 593 0 is_stmt 0 discriminator 1
	cmpl	$3, -2264(%rbp)	#, j
	jle	.L112	#,
	.loc 1 597 0 is_stmt 1
	movl	$0, -2264(%rbp)	#, j
	jmp	.L113	#
.L117:
	.loc 1 599 0
	movl	$0, -2268(%rbp)	#, i
	jmp	.L114	#
.L115:
	.loc 1 601 0 discriminator 2
	movl	$3, %eax	#, tmp822
	subl	-2268(%rbp), %eax	# i, tmp821
	movl	%eax, -2216(%rbp)	# tmp821, i1
	.loc 1 602 0 discriminator 2
	movl	-2264(%rbp), %eax	# j, tmp824
	cltq
	movl	-2268(%rbp), %edx	# i, tmp826
	movslq	%edx, %rdx	# tmp826, tmp825
	salq	$2, %rdx	#, tmp827
	addq	%rdx, %rax	# tmp827, tmp828
	movl	-2128(%rbp,%rax,4), %edx	# M4, D.11360
	movl	-2264(%rbp), %eax	# j, tmp830
	cltq
	movl	-2216(%rbp), %ecx	# i1, tmp832
	movslq	%ecx, %rcx	# tmp832, tmp831
	salq	$2, %rcx	#, tmp833
	addq	%rcx, %rax	# tmp833, tmp834
	movl	-2128(%rbp,%rax,4), %eax	# M4, D.11360
	addl	%eax, %edx	# D.11360, D.11360
	movl	-2268(%rbp), %eax	# i, tmp836
	cltq
	movl	%edx, -2160(%rbp,%rax,4)	# D.11360, M5
	.loc 1 603 0 discriminator 2
	movl	-2264(%rbp), %eax	# j, tmp838
	cltq
	movl	-2268(%rbp), %edx	# i, tmp840
	movslq	%edx, %rdx	# tmp840, tmp839
	salq	$2, %rdx	#, tmp841
	addq	%rdx, %rax	# tmp841, tmp842
	movl	-2128(%rbp,%rax,4), %edx	# M4, D.11360
	movl	-2264(%rbp), %eax	# j, tmp844
	cltq
	movl	-2216(%rbp), %ecx	# i1, tmp846
	movslq	%ecx, %rcx	# tmp846, tmp845
	salq	$2, %rcx	#, tmp847
	addq	%rcx, %rax	# tmp847, tmp848
	movl	-2128(%rbp,%rax,4), %eax	# M4, D.11360
	subl	%eax, %edx	# D.11360, D.11360
	movl	-2216(%rbp), %eax	# i1, tmp850
	cltq
	movl	%edx, -2160(%rbp,%rax,4)	# D.11360, M5
	.loc 1 599 0 discriminator 2
	addl	$1, -2268(%rbp)	#, i
.L114:
	.loc 1 599 0 is_stmt 0 discriminator 1
	cmpl	$1, -2268(%rbp)	#, i
	jle	.L115	#,
	.loc 1 605 0 is_stmt 1
	movl	-2160(%rbp), %edx	# M5, D.11360
	movl	-2156(%rbp), %eax	# M5, D.11360
	addl	%eax, %edx	# D.11360, D.11360
	movl	-2264(%rbp), %eax	# j, tmp852
	cltq
	movl	%edx, -2128(%rbp,%rax,4)	# D.11360, M4
	.loc 1 606 0
	movl	-2160(%rbp), %edx	# M5, D.11360
	movl	-2156(%rbp), %eax	# M5, D.11360
	subl	%eax, %edx	# D.11360, D.11360
	movl	-2264(%rbp), %eax	# j, tmp854
	cltq
	addq	$8, %rax	#, tmp855
	movl	%edx, -2128(%rbp,%rax,4)	# D.11360, M4
	.loc 1 607 0
	movl	-2148(%rbp), %edx	# M5, D.11360
	movl	-2152(%rbp), %eax	# M5, D.11360
	addl	%eax, %edx	# D.11360, D.11360
	movl	-2264(%rbp), %eax	# j, tmp857
	cltq
	addq	$4, %rax	#, tmp858
	movl	%edx, -2128(%rbp,%rax,4)	# D.11360, M4
	.loc 1 608 0
	movl	-2148(%rbp), %edx	# M5, D.11360
	movl	-2152(%rbp), %eax	# M5, D.11360
	subl	%eax, %edx	# D.11360, D.11360
	movl	-2264(%rbp), %eax	# j, tmp860
	cltq
	addq	$12, %rax	#, tmp861
	movl	%edx, -2128(%rbp,%rax,4)	# D.11360, M4
	.loc 1 597 0
	addl	$1, -2264(%rbp)	#, j
.L113:
	.loc 1 597 0 is_stmt 0 discriminator 1
	cmpl	$3, -2264(%rbp)	#, j
	jg	.L116	#,
	.loc 1 597 0 discriminator 2
	cmpl	$0, -2232(%rbp)	#, lossless_qpprime
	je	.L117	#,
.L116:
	.loc 1 613 0 is_stmt 1
	movl	$0, -2268(%rbp)	#, i
	jmp	.L118	#
.L122:
	.loc 1 615 0
	movl	$0, -2264(%rbp)	#, j
	jmp	.L119	#
.L120:
	.loc 1 617 0 discriminator 2
	movl	$3, %eax	#, tmp865
	subl	-2264(%rbp), %eax	# j, tmp864
	movl	%eax, -2212(%rbp)	# tmp864, j1
	.loc 1 618 0 discriminator 2
	movl	-2264(%rbp), %eax	# j, tmp867
	cltq
	movl	-2268(%rbp), %edx	# i, tmp869
	movslq	%edx, %rdx	# tmp869, tmp868
	salq	$2, %rdx	#, tmp870
	addq	%rdx, %rax	# tmp870, tmp871
	movl	-2128(%rbp,%rax,4), %edx	# M4, D.11360
	movl	-2212(%rbp), %eax	# j1, tmp873
	cltq
	movl	-2268(%rbp), %ecx	# i, tmp875
	movslq	%ecx, %rcx	# tmp875, tmp874
	salq	$2, %rcx	#, tmp876
	addq	%rcx, %rax	# tmp876, tmp877
	movl	-2128(%rbp,%rax,4), %eax	# M4, D.11360
	addl	%eax, %edx	# D.11360, D.11360
	movl	-2264(%rbp), %eax	# j, tmp879
	cltq
	movl	%edx, -2160(%rbp,%rax,4)	# D.11360, M5
	.loc 1 619 0 discriminator 2
	movl	-2264(%rbp), %eax	# j, tmp881
	cltq
	movl	-2268(%rbp), %edx	# i, tmp883
	movslq	%edx, %rdx	# tmp883, tmp882
	salq	$2, %rdx	#, tmp884
	addq	%rdx, %rax	# tmp884, tmp885
	movl	-2128(%rbp,%rax,4), %edx	# M4, D.11360
	movl	-2212(%rbp), %eax	# j1, tmp887
	cltq
	movl	-2268(%rbp), %ecx	# i, tmp889
	movslq	%ecx, %rcx	# tmp889, tmp888
	salq	$2, %rcx	#, tmp890
	addq	%rcx, %rax	# tmp890, tmp891
	movl	-2128(%rbp,%rax,4), %eax	# M4, D.11360
	subl	%eax, %edx	# D.11360, D.11360
	movl	-2212(%rbp), %eax	# j1, tmp893
	cltq
	movl	%edx, -2160(%rbp,%rax,4)	# D.11360, M5
	.loc 1 615 0 discriminator 2
	addl	$1, -2264(%rbp)	#, j
.L119:
	.loc 1 615 0 is_stmt 0 discriminator 1
	cmpl	$1, -2264(%rbp)	#, j
	jle	.L120	#,
	.loc 1 621 0 is_stmt 1
	movl	-2160(%rbp), %edx	# M5, D.11360
	movl	-2156(%rbp), %eax	# M5, D.11360
	addl	%edx, %eax	# D.11360, D.11360
	sarl	%eax	# D.11360
	movl	%eax, %edx	# D.11360, D.11360
	movl	-2268(%rbp), %eax	# i, tmp895
	cltq
	salq	$4, %rax	#, tmp896
	leaq	-16(%rbp), %rbx	#, tmp1575
	addq	%rbx, %rax	# tmp1575, tmp897
	subq	$2112, %rax	#, tmp898
	movl	%edx, (%rax)	# D.11360, M4
	.loc 1 622 0
	movl	-2160(%rbp), %edx	# M5, D.11360
	movl	-2156(%rbp), %eax	# M5, D.11360
	subl	%eax, %edx	# D.11360, D.11360
	movl	%edx, %eax	# D.11360, D.11360
	sarl	%eax	# D.11360
	movl	%eax, %edx	# D.11360, D.11360
	movl	-2268(%rbp), %eax	# i, tmp900
	cltq
	salq	$4, %rax	#, tmp901
	leaq	-16(%rbp), %rbx	#, tmp1578
	addq	%rbx, %rax	# tmp1578, tmp902
	subq	$2104, %rax	#, tmp903
	movl	%edx, (%rax)	# D.11360, M4
	.loc 1 623 0
	movl	-2148(%rbp), %edx	# M5, D.11360
	movl	-2152(%rbp), %eax	# M5, D.11360
	addl	%edx, %eax	# D.11360, D.11360
	sarl	%eax	# D.11360
	movl	%eax, %edx	# D.11360, D.11360
	movl	-2268(%rbp), %eax	# i, tmp905
	cltq
	salq	$4, %rax	#, tmp906
	leaq	-16(%rbp), %rbx	#, tmp1580
	addq	%rbx, %rax	# tmp1580, tmp907
	subq	$2108, %rax	#, tmp908
	movl	%edx, (%rax)	# D.11360, M4
	.loc 1 624 0
	movl	-2148(%rbp), %edx	# M5, D.11360
	movl	-2152(%rbp), %eax	# M5, D.11360
	subl	%eax, %edx	# D.11360, D.11360
	movl	%edx, %eax	# D.11360, D.11360
	sarl	%eax	# D.11360
	movl	%eax, %edx	# D.11360, D.11360
	movl	-2268(%rbp), %eax	# i, tmp910
	cltq
	salq	$4, %rax	#, tmp911
	leaq	-16(%rbp), %rbx	#, tmp1583
	addq	%rbx, %rax	# tmp1583, tmp912
	subq	$2100, %rax	#, tmp913
	movl	%edx, (%rax)	# D.11360, M4
	.loc 1 613 0
	addl	$1, -2268(%rbp)	#, i
.L118:
	.loc 1 613 0 is_stmt 0 discriminator 1
	cmpl	$3, -2268(%rbp)	#, i
	jg	.L121	#,
	.loc 1 613 0 discriminator 2
	cmpl	$0, -2232(%rbp)	#, lossless_qpprime
	je	.L122	#,
.L121:
	.loc 1 629 0 is_stmt 1
	movl	$-1, -2252(%rbp)	#, run
	.loc 1 630 0
	movl	$0, -2248(%rbp)	#, scan_pos
	.loc 1 632 0
	movl	$0, -2244(%rbp)	#, coeff_ctr
	jmp	.L123	#
.L132:
	.loc 1 634 0
	movq	img(%rip), %rax	# img, img.155
	movl	72444(%rax), %eax	# img.155_241->field_picture, D.11367
	testl	%eax, %eax	# D.11367
	jne	.L124	#,
	.loc 1 634 0 is_stmt 0 discriminator 1
	movl	mb_adaptive(%rip), %eax	# mb_adaptive, mb_adaptive.156
	testl	%eax, %eax	# mb_adaptive.156
	je	.L125	#,
	movq	img(%rip), %rax	# img, img.157
	movl	72008(%rax), %eax	# img.157_244->field_mode, D.11360
	testl	%eax, %eax	# D.11360
	je	.L125	#,
.L124:
	.loc 1 636 0 is_stmt 1
	movl	-2244(%rbp), %eax	# coeff_ctr, tmp915
	cltq
	movzbl	FIELD_SCAN(%rax,%rax), %eax	# FIELD_SCAN, D.11368
	movzbl	%al, %eax	# D.11368, tmp916
	movl	%eax, -2268(%rbp)	# tmp916, i
	.loc 1 637 0
	movl	-2244(%rbp), %eax	# coeff_ctr, tmp918
	cltq
	movzbl	FIELD_SCAN+1(%rax,%rax), %eax	# FIELD_SCAN, D.11368
	movzbl	%al, %eax	# D.11368, tmp919
	movl	%eax, -2264(%rbp)	# tmp919, j
	jmp	.L126	#
.L125:
	.loc 1 641 0
	movl	-2244(%rbp), %eax	# coeff_ctr, tmp921
	cltq
	movzbl	SNGL_SCAN(%rax,%rax), %eax	# SNGL_SCAN, D.11368
	movzbl	%al, %eax	# D.11368, tmp922
	movl	%eax, -2268(%rbp)	# tmp922, i
	.loc 1 642 0
	movl	-2244(%rbp), %eax	# coeff_ctr, tmp924
	cltq
	movzbl	SNGL_SCAN+1(%rax,%rax), %eax	# SNGL_SCAN, D.11368
	movzbl	%al, %eax	# D.11368, tmp925
	movl	%eax, -2264(%rbp)	# tmp925, j
.L126:
	.loc 1 645 0
	addl	$1, -2252(%rbp)	#, run
	.loc 1 647 0
	cmpl	$0, -2232(%rbp)	#, lossless_qpprime
	je	.L127	#,
	.loc 1 648 0
	movl	-2264(%rbp), %eax	# j, tmp927
	cltq
	movl	-2268(%rbp), %edx	# i, tmp929
	movslq	%edx, %rdx	# tmp929, tmp928
	salq	$2, %rdx	#, tmp930
	addq	%rdx, %rax	# tmp930, tmp931
	movl	-2128(%rbp,%rax,4), %edx	# M4, D.11360
	movl	%edx, %eax	# D.11360, tmp932
	sarl	$31, %eax	#, tmp932
	xorl	%eax, %edx	# tmp932, tmp933
	movl	%edx, -2240(%rbp)	# tmp933, level
	subl	%eax, -2240(%rbp)	# tmp932, level
	jmp	.L128	#
.L127:
	.loc 1 650 0
	movl	-2264(%rbp), %eax	# j, tmp935
	cltq
	movl	-2268(%rbp), %edx	# i, tmp937
	movslq	%edx, %rdx	# tmp937, tmp936
	salq	$2, %rdx	#, tmp938
	addq	%rdx, %rax	# tmp938, tmp939
	movl	-2128(%rbp,%rax,4), %eax	# M4, D.11360
	cltd
	xorl	%edx, %eax	# tmp940, D.11360
	subl	%edx, %eax	# tmp940, D.11360
	movl	-2224(%rbp), %edx	# qp_rem, tmp942
	movslq	%edx, %rdx	# tmp942, tmp941
	salq	$6, %rdx	#, tmp943
	addq	$LevelScale4x4Luma_Intra, %rdx	#, tmp944
	movl	(%rdx), %edx	# LevelScale4x4Luma_Intra, D.11360
	imull	%edx, %eax	# D.11360, D.11360
	movl	-2228(%rbp), %edx	# qp_per, tmp946
	movslq	%edx, %rdx	# tmp946, tmp945
	salq	$6, %rdx	#, tmp947
	addq	$LevelOffset4x4Luma_Intra, %rdx	#, tmp948
	movl	(%rdx), %edx	# LevelOffset4x4Luma_Intra, D.11360
	addl	%edx, %edx	# D.11360
	addl	%eax, %edx	# D.11360, D.11360
	movl	-2220(%rbp), %eax	# q_bits, tmp949
	addl	$1, %eax	#, D.11360
	movl	%eax, %ecx	# D.11360, tmp1586
	sarl	%cl, %edx	# tmp1586, tmp950
	movl	%edx, %eax	# tmp950, tmp950
	movl	%eax, -2240(%rbp)	# tmp950, level
.L128:
	.loc 1 653 0
	movq	input(%rip), %rax	# input, input.158
	movl	2356(%rax), %eax	# input.158_266->symbol_mode, D.11360
	testl	%eax, %eax	# D.11360
	jne	.L129	#,
	.loc 1 653 0 is_stmt 0 discriminator 1
	movq	img(%rip), %rax	# img, img.159
	movl	40(%rax), %eax	# img.159_268->qp, D.11360
	cmpl	$9, %eax	#, D.11360
	jg	.L129	#,
	.loc 1 655 0 is_stmt 1
	cmpl	$2063, -2240(%rbp)	#, level
	jle	.L129	#,
	.loc 1 657 0
	movl	$2063, -2240(%rbp)	#, level
.L129:
	.loc 1 661 0
	cmpl	$0, -2240(%rbp)	#, level
	je	.L130	#,
	.loc 1 663 0
	movl	-2248(%rbp), %eax	# scan_pos, tmp951
	cltq
	leaq	0(,%rax,4), %rdx	#, D.11361
	movq	-2192(%rbp), %rax	# DCLevel, tmp952
	leaq	(%rdx,%rax), %rbx	#, D.11369
	movl	-2264(%rbp), %eax	# j, tmp954
	cltq
	movl	-2268(%rbp), %edx	# i, tmp956
	movslq	%edx, %rdx	# tmp956, tmp955
	salq	$2, %rdx	#, tmp957
	addq	%rdx, %rax	# tmp957, tmp958
	movl	-2128(%rbp,%rax,4), %edx	# M4, D.11360
	movl	-2240(%rbp), %eax	# level, tmp959
	movl	%edx, %esi	# D.11360,
	movl	%eax, %edi	# tmp959,
	call	sign	#
	movl	%eax, (%rbx)	# D.11360, *_273
	.loc 1 664 0
	movl	-2248(%rbp), %eax	# scan_pos, tmp960
	cltq
	leaq	0(,%rax,4), %rdx	#, D.11361
	movq	-2184(%rbp), %rax	# DCRun, tmp961
	addq	%rax, %rdx	# tmp961, D.11369
	movl	-2252(%rbp), %eax	# run, tmp962
	movl	%eax, (%rdx)	# tmp962, *_278
	.loc 1 665 0
	addl	$1, -2248(%rbp)	#, scan_pos
	.loc 1 666 0
	movl	$-1, -2252(%rbp)	#, run
.L130:
	.loc 1 668 0
	cmpl	$0, -2232(%rbp)	#, lossless_qpprime
	jne	.L131	#,
	.loc 1 669 0
	movl	-2264(%rbp), %eax	# j, tmp964
	cltq
	movl	-2268(%rbp), %edx	# i, tmp966
	movslq	%edx, %rdx	# tmp966, tmp965
	salq	$2, %rdx	#, tmp967
	addq	%rdx, %rax	# tmp967, tmp968
	movl	-2128(%rbp,%rax,4), %edx	# M4, D.11360
	movl	-2240(%rbp), %eax	# level, tmp969
	movl	%edx, %esi	# D.11360,
	movl	%eax, %edi	# tmp969,
	call	sign	#
	movl	-2264(%rbp), %edx	# j, tmp971
	movslq	%edx, %rdx	# tmp971, tmp970
	movl	-2268(%rbp), %ecx	# i, tmp973
	movslq	%ecx, %rcx	# tmp973, tmp972
	salq	$2, %rcx	#, tmp974
	addq	%rcx, %rdx	# tmp974, tmp975
	movl	%eax, -2128(%rbp,%rdx,4)	# D.11360, M4
.L131:
	.loc 1 632 0
	addl	$1, -2244(%rbp)	#, coeff_ctr
.L123:
	.loc 1 632 0 is_stmt 0 discriminator 1
	cmpl	$15, -2244(%rbp)	#, coeff_ctr
	jle	.L132	#,
	.loc 1 671 0 is_stmt 1
	movl	-2248(%rbp), %eax	# scan_pos, tmp976
	cltq
	leaq	0(,%rax,4), %rdx	#, D.11361
	movq	-2192(%rbp), %rax	# DCLevel, tmp977
	addq	%rdx, %rax	# D.11361, D.11369
	movl	$0, (%rax)	#, *_286
	.loc 1 674 0
	movl	$0, -2264(%rbp)	#, j
	jmp	.L133	#
.L139:
	.loc 1 676 0
	movl	$0, -2268(%rbp)	#, i
	jmp	.L134	#
.L135:
	.loc 1 677 0 discriminator 2
	movl	-2264(%rbp), %eax	# j, tmp979
	cltq
	movl	-2268(%rbp), %edx	# i, tmp981
	movslq	%edx, %rdx	# tmp981, tmp980
	salq	$2, %rdx	#, tmp982
	addq	%rdx, %rax	# tmp982, tmp983
	movl	-2128(%rbp,%rax,4), %edx	# M4, D.11360
	movl	-2268(%rbp), %eax	# i, tmp985
	cltq
	movl	%edx, -2160(%rbp,%rax,4)	# D.11360, M5
	.loc 1 676 0 discriminator 2
	addl	$1, -2268(%rbp)	#, i
.L134:
	.loc 1 676 0 is_stmt 0 discriminator 1
	cmpl	$3, -2268(%rbp)	#, i
	jle	.L135	#,
	.loc 1 679 0 is_stmt 1
	movl	-2160(%rbp), %edx	# M5, D.11360
	movl	-2152(%rbp), %eax	# M5, D.11360
	addl	%edx, %eax	# D.11360, D.11360
	movl	%eax, -2144(%rbp)	# D.11360, M6
	.loc 1 680 0
	movl	-2160(%rbp), %edx	# M5, D.11360
	movl	-2152(%rbp), %eax	# M5, D.11360
	subl	%eax, %edx	# D.11360, D.11360
	movl	%edx, %eax	# D.11360, D.11360
	movl	%eax, -2140(%rbp)	# D.11360, M6
	.loc 1 681 0
	movl	-2156(%rbp), %edx	# M5, D.11360
	movl	-2148(%rbp), %eax	# M5, D.11360
	subl	%eax, %edx	# D.11360, D.11360
	movl	%edx, %eax	# D.11360, D.11360
	movl	%eax, -2136(%rbp)	# D.11360, M6
	.loc 1 682 0
	movl	-2156(%rbp), %edx	# M5, D.11360
	movl	-2148(%rbp), %eax	# M5, D.11360
	addl	%edx, %eax	# D.11360, D.11360
	movl	%eax, -2132(%rbp)	# D.11360, M6
	.loc 1 684 0
	movl	$0, -2268(%rbp)	#, i
	jmp	.L136	#
.L137:
	.loc 1 686 0 discriminator 2
	movl	$3, %eax	#, tmp989
	subl	-2268(%rbp), %eax	# i, tmp988
	movl	%eax, -2216(%rbp)	# tmp988, i1
	.loc 1 687 0 discriminator 2
	movl	-2268(%rbp), %eax	# i, tmp991
	cltq
	movl	-2144(%rbp,%rax,4), %edx	# M6, D.11360
	movl	-2216(%rbp), %eax	# i1, tmp993
	cltq
	movl	-2144(%rbp,%rax,4), %eax	# M6, D.11360
	addl	%eax, %edx	# D.11360, D.11360
	movl	-2264(%rbp), %eax	# j, tmp995
	cltq
	movl	-2268(%rbp), %ecx	# i, tmp997
	movslq	%ecx, %rcx	# tmp997, tmp996
	salq	$2, %rcx	#, tmp998
	addq	%rcx, %rax	# tmp998, tmp999
	movl	%edx, -2128(%rbp,%rax,4)	# D.11360, M4
	.loc 1 688 0 discriminator 2
	movl	-2268(%rbp), %eax	# i, tmp1001
	cltq
	movl	-2144(%rbp,%rax,4), %edx	# M6, D.11360
	movl	-2216(%rbp), %eax	# i1, tmp1003
	cltq
	movl	-2144(%rbp,%rax,4), %eax	# M6, D.11360
	subl	%eax, %edx	# D.11360, D.11360
	movl	-2264(%rbp), %eax	# j, tmp1005
	cltq
	movl	-2216(%rbp), %ecx	# i1, tmp1007
	movslq	%ecx, %rcx	# tmp1007, tmp1006
	salq	$2, %rcx	#, tmp1008
	addq	%rcx, %rax	# tmp1008, tmp1009
	movl	%edx, -2128(%rbp,%rax,4)	# D.11360, M4
	.loc 1 684 0 discriminator 2
	addl	$1, -2268(%rbp)	#, i
.L136:
	.loc 1 684 0 is_stmt 0 discriminator 1
	cmpl	$1, -2268(%rbp)	#, i
	jle	.L137	#,
	.loc 1 674 0 is_stmt 1
	addl	$1, -2264(%rbp)	#, j
.L133:
	.loc 1 674 0 is_stmt 0 discriminator 1
	cmpl	$3, -2264(%rbp)	#, j
	jg	.L138	#,
	.loc 1 674 0 discriminator 2
	cmpl	$0, -2232(%rbp)	#, lossless_qpprime
	je	.L139	#,
.L138:
	.loc 1 692 0 is_stmt 1
	movl	$0, -2268(%rbp)	#, i
	jmp	.L140	#
.L148:
	.loc 1 694 0
	movl	$0, -2264(%rbp)	#, j
	jmp	.L141	#
.L142:
	.loc 1 695 0 discriminator 2
	movl	-2264(%rbp), %eax	# j, tmp1011
	cltq
	movl	-2268(%rbp), %edx	# i, tmp1013
	movslq	%edx, %rdx	# tmp1013, tmp1012
	salq	$2, %rdx	#, tmp1014
	addq	%rdx, %rax	# tmp1014, tmp1015
	movl	-2128(%rbp,%rax,4), %edx	# M4, D.11360
	movl	-2264(%rbp), %eax	# j, tmp1017
	cltq
	movl	%edx, -2160(%rbp,%rax,4)	# D.11360, M5
	.loc 1 694 0 discriminator 2
	addl	$1, -2264(%rbp)	#, j
.L141:
	.loc 1 694 0 is_stmt 0 discriminator 1
	cmpl	$3, -2264(%rbp)	#, j
	jle	.L142	#,
	.loc 1 697 0 is_stmt 1
	movl	-2160(%rbp), %edx	# M5, D.11360
	movl	-2152(%rbp), %eax	# M5, D.11360
	addl	%edx, %eax	# D.11360, D.11360
	movl	%eax, -2144(%rbp)	# D.11360, M6
	.loc 1 698 0
	movl	-2160(%rbp), %edx	# M5, D.11360
	movl	-2152(%rbp), %eax	# M5, D.11360
	subl	%eax, %edx	# D.11360, D.11360
	movl	%edx, %eax	# D.11360, D.11360
	movl	%eax, -2140(%rbp)	# D.11360, M6
	.loc 1 699 0
	movl	-2156(%rbp), %edx	# M5, D.11360
	movl	-2148(%rbp), %eax	# M5, D.11360
	subl	%eax, %edx	# D.11360, D.11360
	movl	%edx, %eax	# D.11360, D.11360
	movl	%eax, -2136(%rbp)	# D.11360, M6
	.loc 1 700 0
	movl	-2156(%rbp), %edx	# M5, D.11360
	movl	-2148(%rbp), %eax	# M5, D.11360
	addl	%edx, %eax	# D.11360, D.11360
	movl	%eax, -2132(%rbp)	# D.11360, M6
	.loc 1 702 0
	movl	$0, -2264(%rbp)	#, j
	jmp	.L143	#
.L146:
	.loc 1 704 0
	movl	$3, %eax	#, tmp1021
	subl	-2264(%rbp), %eax	# j, tmp1020
	movl	%eax, -2212(%rbp)	# tmp1020, j1
	.loc 1 706 0
	cmpl	$5, -2228(%rbp)	#, qp_per
	jg	.L144	#,
	.loc 1 708 0
	movl	-2264(%rbp), %eax	# j, tmp1023
	cltq
	movl	-2144(%rbp,%rax,4), %edx	# M6, D.11360
	movl	-2212(%rbp), %eax	# j1, tmp1025
	cltq
	movl	-2144(%rbp,%rax,4), %eax	# M6, D.11360
	addl	%eax, %edx	# D.11360, D.11360
	movl	-2224(%rbp), %eax	# qp_rem, tmp1027
	cltq
	salq	$6, %rax	#, tmp1028
	addq	$InvLevelScale4x4Luma_Intra, %rax	#, tmp1029
	movl	(%rax), %eax	# InvLevelScale4x4Luma_Intra, D.11360
	imull	%eax, %edx	# D.11360, D.11360
	movl	$5, %eax	#, tmp1030
	subl	-2228(%rbp), %eax	# qp_per, D.11360
	movl	$1, %esi	#, tmp1031
	movl	%eax, %ecx	# D.11360, tmp1592
	sall	%cl, %esi	# tmp1592, D.11360
	movl	%esi, %eax	# D.11360, D.11360
	addl	%eax, %edx	# D.11360, D.11360
	movl	$6, %eax	#, tmp1032
	subl	-2228(%rbp), %eax	# qp_per, D.11360
	movl	%eax, %ecx	# D.11360, tmp1593
	sarl	%cl, %edx	# tmp1593, D.11360
	movl	-2264(%rbp), %eax	# j, tmp1034
	cltq
	movl	-2268(%rbp), %ecx	# i, tmp1036
	movslq	%ecx, %rcx	# tmp1036, tmp1035
	salq	$4, %rcx	#, tmp1037
	addq	%rcx, %rax	# tmp1037, tmp1038
	movl	%edx, -1040(%rbp,%rax,4)	# D.11360, M0
	.loc 1 709 0
	movl	-2264(%rbp), %eax	# j, tmp1040
	cltq
	movl	-2144(%rbp,%rax,4), %edx	# M6, D.11360
	movl	-2212(%rbp), %eax	# j1, tmp1042
	cltq
	movl	-2144(%rbp,%rax,4), %eax	# M6, D.11360
	subl	%eax, %edx	# D.11360, D.11360
	movl	-2224(%rbp), %eax	# qp_rem, tmp1044
	cltq
	salq	$6, %rax	#, tmp1045
	addq	$InvLevelScale4x4Luma_Intra, %rax	#, tmp1046
	movl	(%rax), %eax	# InvLevelScale4x4Luma_Intra, D.11360
	imull	%eax, %edx	# D.11360, D.11360
	movl	$5, %eax	#, tmp1047
	subl	-2228(%rbp), %eax	# qp_per, D.11360
	movl	$1, %esi	#, tmp1048
	movl	%eax, %ecx	# D.11360, tmp1595
	sall	%cl, %esi	# tmp1595, D.11360
	movl	%esi, %eax	# D.11360, D.11360
	addl	%eax, %edx	# D.11360, D.11360
	movl	$6, %eax	#, tmp1049
	subl	-2228(%rbp), %eax	# qp_per, D.11360
	movl	%eax, %ecx	# D.11360, tmp1596
	sarl	%cl, %edx	# tmp1596, D.11360
	movl	-2212(%rbp), %eax	# j1, tmp1051
	cltq
	movl	-2268(%rbp), %ecx	# i, tmp1053
	movslq	%ecx, %rcx	# tmp1053, tmp1052
	salq	$4, %rcx	#, tmp1054
	addq	%rcx, %rax	# tmp1054, tmp1055
	movl	%edx, -1040(%rbp,%rax,4)	# D.11360, M0
	jmp	.L145	#
.L144:
	.loc 1 713 0
	movl	-2264(%rbp), %eax	# j, tmp1057
	cltq
	movl	-2144(%rbp,%rax,4), %edx	# M6, D.11360
	movl	-2212(%rbp), %eax	# j1, tmp1059
	cltq
	movl	-2144(%rbp,%rax,4), %eax	# M6, D.11360
	addl	%eax, %edx	# D.11360, D.11360
	movl	-2224(%rbp), %eax	# qp_rem, tmp1061
	cltq
	salq	$6, %rax	#, tmp1062
	addq	$InvLevelScale4x4Luma_Intra, %rax	#, tmp1063
	movl	(%rax), %eax	# InvLevelScale4x4Luma_Intra, D.11360
	imull	%eax, %edx	# D.11360, D.11360
	movl	-2228(%rbp), %eax	# qp_per, tmp1064
	subl	$6, %eax	#, D.11360
	movl	%eax, %ecx	# D.11360, tmp1597
	sall	%cl, %edx	# tmp1597, D.11360
	movl	-2264(%rbp), %eax	# j, tmp1066
	cltq
	movl	-2268(%rbp), %ecx	# i, tmp1068
	movslq	%ecx, %rcx	# tmp1068, tmp1067
	salq	$4, %rcx	#, tmp1069
	addq	%rcx, %rax	# tmp1069, tmp1070
	movl	%edx, -1040(%rbp,%rax,4)	# D.11360, M0
	.loc 1 714 0
	movl	-2264(%rbp), %eax	# j, tmp1072
	cltq
	movl	-2144(%rbp,%rax,4), %edx	# M6, D.11360
	movl	-2212(%rbp), %eax	# j1, tmp1074
	cltq
	movl	-2144(%rbp,%rax,4), %eax	# M6, D.11360
	subl	%eax, %edx	# D.11360, D.11360
	movl	-2224(%rbp), %eax	# qp_rem, tmp1076
	cltq
	salq	$6, %rax	#, tmp1077
	addq	$InvLevelScale4x4Luma_Intra, %rax	#, tmp1078
	movl	(%rax), %eax	# InvLevelScale4x4Luma_Intra, D.11360
	imull	%eax, %edx	# D.11360, D.11360
	movl	-2228(%rbp), %eax	# qp_per, tmp1079
	subl	$6, %eax	#, D.11360
	movl	%eax, %ecx	# D.11360, tmp1598
	sall	%cl, %edx	# tmp1598, D.11360
	movl	-2212(%rbp), %eax	# j1, tmp1081
	cltq
	movl	-2268(%rbp), %ecx	# i, tmp1083
	movslq	%ecx, %rcx	# tmp1083, tmp1082
	salq	$4, %rcx	#, tmp1084
	addq	%rcx, %rax	# tmp1084, tmp1085
	movl	%edx, -1040(%rbp,%rax,4)	# D.11360, M0
.L145:
	.loc 1 702 0
	addl	$1, -2264(%rbp)	#, j
.L143:
	.loc 1 702 0 is_stmt 0 discriminator 1
	cmpl	$1, -2264(%rbp)	#, j
	jle	.L146	#,
	.loc 1 692 0 is_stmt 1
	addl	$1, -2268(%rbp)	#, i
.L140:
	.loc 1 692 0 is_stmt 0 discriminator 1
	cmpl	$3, -2268(%rbp)	#, i
	jg	.L147	#,
	.loc 1 692 0 discriminator 2
	cmpl	$0, -2232(%rbp)	#, lossless_qpprime
	je	.L148	#,
.L147:
	.loc 1 720 0 is_stmt 1
	movl	$0, -2256(%rbp)	#, jj
	jmp	.L149	#
.L176:
	.loc 1 722 0
	movl	$0, -2260(%rbp)	#, ii
	jmp	.L150	#
.L175:
	.loc 1 724 0
	movl	$-1, -2252(%rbp)	#, run
	.loc 1 725 0
	movl	$0, -2248(%rbp)	#, scan_pos
	.loc 1 726 0
	movl	-2256(%rbp), %eax	# jj, tmp1086
	movl	%eax, %edx	# tmp1086, tmp1087
	shrl	$31, %edx	#, tmp1087
	addl	%edx, %eax	# tmp1087, tmp1088
	sarl	%eax	# tmp1089
	leal	(%rax,%rax), %edx	#, D.11360
	movl	-2260(%rbp), %eax	# ii, tmp1090
	movl	%eax, %ecx	# tmp1090, tmp1091
	shrl	$31, %ecx	#, tmp1091
	addl	%ecx, %eax	# tmp1091, tmp1092
	sarl	%eax	# tmp1093
	addl	%edx, %eax	# D.11360, tmp1094
	movl	%eax, -2208(%rbp)	# tmp1094, b8
	.loc 1 727 0
	movl	-2256(%rbp), %eax	# jj, tmp1095
	cltd
	shrl	$31, %edx	#, tmp1097
	addl	%edx, %eax	# tmp1097, tmp1098
	andl	$1, %eax	#, tmp1099
	subl	%edx, %eax	# tmp1097, tmp1100
	leal	(%rax,%rax), %ecx	#, D.11360
	movl	-2260(%rbp), %eax	# ii, tmp1101
	cltd
	shrl	$31, %edx	#, tmp1103
	addl	%edx, %eax	# tmp1103, tmp1104
	andl	$1, %eax	#, tmp1105
	subl	%edx, %eax	# tmp1103, tmp1106
	addl	%ecx, %eax	# D.11360, tmp1107
	movl	%eax, -2204(%rbp)	# tmp1107, b4
	.loc 1 728 0
	movq	img(%rip), %rax	# img, img.160
	movq	14136(%rax), %rax	# img.160_379->cofAC, D.11370
	movl	-2208(%rbp), %edx	# b8, tmp1108
	movslq	%edx, %rdx	# tmp1108, D.11361
	salq	$3, %rdx	#, D.11361
	addq	%rdx, %rax	# D.11361, D.11370
	movq	(%rax), %rax	# *_383, D.11362
	movl	-2204(%rbp), %edx	# b4, tmp1109
	movslq	%edx, %rdx	# tmp1109, D.11361
	salq	$3, %rdx	#, D.11361
	addq	%rdx, %rax	# D.11361, D.11362
	movq	(%rax), %rax	# *_387, D.11363
	movq	(%rax), %rax	# *_388, tmp1110
	movq	%rax, -2176(%rbp)	# tmp1110, ACLevel
	.loc 1 729 0
	movq	img(%rip), %rax	# img, img.161
	movq	14136(%rax), %rax	# img.161_390->cofAC, D.11370
	movl	-2208(%rbp), %edx	# b8, tmp1111
	movslq	%edx, %rdx	# tmp1111, D.11361
	salq	$3, %rdx	#, D.11361
	addq	%rdx, %rax	# D.11361, D.11370
	movq	(%rax), %rax	# *_394, D.11362
	movl	-2204(%rbp), %edx	# b4, tmp1112
	movslq	%edx, %rdx	# tmp1112, D.11361
	salq	$3, %rdx	#, D.11361
	addq	%rdx, %rax	# D.11361, D.11362
	movq	(%rax), %rax	# *_398, D.11363
	movq	8(%rax), %rax	# MEM[(int * *)_399 + 8B], tmp1113
	movq	%rax, -2168(%rbp)	# tmp1113, ACRun
	.loc 1 731 0
	movl	$1, -2244(%rbp)	#, coeff_ctr
	jmp	.L151	#
.L160:
	.loc 1 734 0
	movq	img(%rip), %rax	# img, img.162
	movl	72444(%rax), %eax	# img.162_402->field_picture, D.11367
	testl	%eax, %eax	# D.11367
	jne	.L152	#,
	.loc 1 734 0 is_stmt 0 discriminator 1
	movl	mb_adaptive(%rip), %eax	# mb_adaptive, mb_adaptive.163
	testl	%eax, %eax	# mb_adaptive.163
	je	.L153	#,
	movq	img(%rip), %rax	# img, img.164
	movl	72008(%rax), %eax	# img.164_405->field_mode, D.11360
	testl	%eax, %eax	# D.11360
	je	.L153	#,
.L152:
	.loc 1 736 0 is_stmt 1
	movl	-2244(%rbp), %eax	# coeff_ctr, tmp1115
	cltq
	movzbl	FIELD_SCAN(%rax,%rax), %eax	# FIELD_SCAN, D.11368
	movzbl	%al, %eax	# D.11368, tmp1116
	movl	%eax, -2268(%rbp)	# tmp1116, i
	.loc 1 737 0
	movl	-2244(%rbp), %eax	# coeff_ctr, tmp1118
	cltq
	movzbl	FIELD_SCAN+1(%rax,%rax), %eax	# FIELD_SCAN, D.11368
	movzbl	%al, %eax	# D.11368, tmp1119
	movl	%eax, -2264(%rbp)	# tmp1119, j
	jmp	.L154	#
.L153:
	.loc 1 741 0
	movl	-2244(%rbp), %eax	# coeff_ctr, tmp1121
	cltq
	movzbl	SNGL_SCAN(%rax,%rax), %eax	# SNGL_SCAN, D.11368
	movzbl	%al, %eax	# D.11368, tmp1122
	movl	%eax, -2268(%rbp)	# tmp1122, i
	.loc 1 742 0
	movl	-2244(%rbp), %eax	# coeff_ctr, tmp1124
	cltq
	movzbl	SNGL_SCAN+1(%rax,%rax), %eax	# SNGL_SCAN, D.11368
	movzbl	%al, %eax	# D.11368, tmp1125
	movl	%eax, -2264(%rbp)	# tmp1125, j
.L154:
	.loc 1 744 0
	addl	$1, -2252(%rbp)	#, run
	.loc 1 746 0
	cmpl	$0, -2232(%rbp)	#, lossless_qpprime
	je	.L155	#,
	.loc 1 747 0
	movl	-2256(%rbp), %eax	# jj, tmp1127
	cltq
	movl	-2260(%rbp), %edx	# ii, tmp1129
	movslq	%edx, %rdx	# tmp1129, tmp1128
	movl	-2268(%rbp), %ecx	# i, tmp1131
	movslq	%ecx, %rcx	# tmp1131, tmp1130
	salq	$2, %rcx	#, tmp1132
	addq	%rdx, %rcx	# tmp1128, tmp1133
	movl	-2264(%rbp), %edx	# j, tmp1135
	movslq	%edx, %rdx	# tmp1135, tmp1134
	salq	$2, %rcx	#, tmp1136
	addq	%rcx, %rdx	# tmp1136, tmp1137
	salq	$2, %rdx	#, tmp1138
	addq	%rdx, %rax	# tmp1138, tmp1139
	movl	-1040(%rbp,%rax,4), %edx	# M0, D.11360
	movl	%edx, %eax	# D.11360, tmp1140
	sarl	$31, %eax	#, tmp1140
	xorl	%eax, %edx	# tmp1140, tmp1141
	movl	%edx, -2240(%rbp)	# tmp1141, level
	subl	%eax, -2240(%rbp)	# tmp1140, level
	jmp	.L156	#
.L155:
	.loc 1 749 0
	movl	-2256(%rbp), %eax	# jj, tmp1143
	cltq
	movl	-2260(%rbp), %edx	# ii, tmp1145
	movslq	%edx, %rdx	# tmp1145, tmp1144
	movl	-2268(%rbp), %ecx	# i, tmp1147
	movslq	%ecx, %rcx	# tmp1147, tmp1146
	salq	$2, %rcx	#, tmp1148
	addq	%rdx, %rcx	# tmp1144, tmp1149
	movl	-2264(%rbp), %edx	# j, tmp1151
	movslq	%edx, %rdx	# tmp1151, tmp1150
	salq	$2, %rcx	#, tmp1152
	addq	%rcx, %rdx	# tmp1152, tmp1153
	salq	$2, %rdx	#, tmp1154
	addq	%rdx, %rax	# tmp1154, tmp1155
	movl	-1040(%rbp,%rax,4), %eax	# M0, D.11360
	cltd
	xorl	%edx, %eax	# tmp1156, D.11360
	subl	%edx, %eax	# tmp1156, D.11360
	movl	-2264(%rbp), %edx	# j, tmp1158
	movslq	%edx, %rdx	# tmp1158, tmp1157
	movl	-2224(%rbp), %ecx	# qp_rem, tmp1160
	movslq	%ecx, %rsi	# tmp1160, tmp1159
	movl	-2268(%rbp), %ecx	# i, tmp1162
	movslq	%ecx, %rcx	# tmp1162, tmp1161
	salq	$2, %rsi	#, tmp1163
	addq	%rsi, %rcx	# tmp1163, tmp1164
	salq	$2, %rcx	#, tmp1165
	addq	%rcx, %rdx	# tmp1165, tmp1166
	movl	LevelScale4x4Luma_Intra(,%rdx,4), %edx	# LevelScale4x4Luma_Intra, D.11360
	imull	%eax, %edx	# D.11360, D.11360
	movl	-2264(%rbp), %eax	# j, tmp1168
	cltq
	movl	-2228(%rbp), %ecx	# qp_per, tmp1170
	movslq	%ecx, %rsi	# tmp1170, tmp1169
	movl	-2268(%rbp), %ecx	# i, tmp1172
	movslq	%ecx, %rcx	# tmp1172, tmp1171
	salq	$2, %rsi	#, tmp1173
	addq	%rsi, %rcx	# tmp1173, tmp1174
	salq	$2, %rcx	#, tmp1175
	addq	%rcx, %rax	# tmp1175, tmp1176
	movl	LevelOffset4x4Luma_Intra(,%rax,4), %eax	# LevelOffset4x4Luma_Intra, D.11360
	addl	%eax, %edx	# D.11360, D.11360
	movl	-2220(%rbp), %eax	# q_bits, tmp1177
	movl	%eax, %ecx	# tmp1177, tmp1603
	sarl	%cl, %edx	# tmp1603, tmp1178
	movl	%edx, %eax	# tmp1178, tmp1178
	movl	%eax, -2240(%rbp)	# tmp1178, level
.L156:
	.loc 1 752 0
	cmpl	$0, -2240(%rbp)	#, level
	je	.L157	#,
	.loc 1 754 0
	movl	$15, -2236(%rbp)	#, ac_coef
	.loc 1 755 0
	movl	-2248(%rbp), %eax	# scan_pos, tmp1179
	cltq
	leaq	0(,%rax,4), %rdx	#, D.11361
	movq	-2176(%rbp), %rax	# ACLevel, tmp1180
	leaq	(%rdx,%rax), %rbx	#, D.11369
	movl	-2256(%rbp), %eax	# jj, tmp1182
	cltq
	movl	-2260(%rbp), %edx	# ii, tmp1184
	movslq	%edx, %rdx	# tmp1184, tmp1183
	movl	-2268(%rbp), %ecx	# i, tmp1186
	movslq	%ecx, %rcx	# tmp1186, tmp1185
	salq	$2, %rcx	#, tmp1187
	addq	%rdx, %rcx	# tmp1183, tmp1188
	movl	-2264(%rbp), %edx	# j, tmp1190
	movslq	%edx, %rdx	# tmp1190, tmp1189
	salq	$2, %rcx	#, tmp1191
	addq	%rcx, %rdx	# tmp1191, tmp1192
	salq	$2, %rdx	#, tmp1193
	addq	%rdx, %rax	# tmp1193, tmp1194
	movl	-1040(%rbp,%rax,4), %edx	# M0, D.11360
	movl	-2240(%rbp), %eax	# level, tmp1195
	movl	%edx, %esi	# D.11360,
	movl	%eax, %edi	# tmp1195,
	call	sign	#
	movl	%eax, (%rbx)	# D.11360, *_428
	.loc 1 756 0
	movl	-2248(%rbp), %eax	# scan_pos, tmp1196
	cltq
	leaq	0(,%rax,4), %rdx	#, D.11361
	movq	-2168(%rbp), %rax	# ACRun, tmp1197
	addq	%rax, %rdx	# tmp1197, D.11369
	movl	-2252(%rbp), %eax	# run, tmp1198
	movl	%eax, (%rdx)	# tmp1198, *_433
	.loc 1 757 0
	addl	$1, -2248(%rbp)	#, scan_pos
	.loc 1 758 0
	movl	$-1, -2252(%rbp)	#, run
.L157:
	.loc 1 761 0
	cmpl	$0, -2232(%rbp)	#, lossless_qpprime
	jne	.L158	#,
	.loc 1 763 0
	movl	-2256(%rbp), %eax	# jj, tmp1200
	cltq
	movl	-2260(%rbp), %edx	# ii, tmp1202
	movslq	%edx, %rdx	# tmp1202, tmp1201
	movl	-2268(%rbp), %ecx	# i, tmp1204
	movslq	%ecx, %rcx	# tmp1204, tmp1203
	salq	$2, %rcx	#, tmp1205
	addq	%rdx, %rcx	# tmp1201, tmp1206
	movl	-2264(%rbp), %edx	# j, tmp1208
	movslq	%edx, %rdx	# tmp1208, tmp1207
	salq	$2, %rcx	#, tmp1209
	addq	%rcx, %rdx	# tmp1209, tmp1210
	salq	$2, %rdx	#, tmp1211
	addq	%rdx, %rax	# tmp1211, tmp1212
	movl	-1040(%rbp,%rax,4), %edx	# M0, D.11360
	movl	-2240(%rbp), %eax	# level, tmp1213
	movl	%edx, %esi	# D.11360,
	movl	%eax, %edi	# tmp1213,
	call	sign	#
	movl	%eax, -2240(%rbp)	# tmp1214, level
	.loc 1 764 0
	cmpl	$3, -2228(%rbp)	#, qp_per
	jg	.L159	#,
	.loc 1 765 0
	movl	-2264(%rbp), %eax	# j, tmp1216
	cltq
	movl	-2224(%rbp), %edx	# qp_rem, tmp1218
	movslq	%edx, %rcx	# tmp1218, tmp1217
	movl	-2268(%rbp), %edx	# i, tmp1220
	movslq	%edx, %rdx	# tmp1220, tmp1219
	salq	$2, %rcx	#, tmp1221
	addq	%rcx, %rdx	# tmp1221, tmp1222
	salq	$2, %rdx	#, tmp1223
	addq	%rdx, %rax	# tmp1223, tmp1224
	movl	InvLevelScale4x4Luma_Intra(,%rax,4), %eax	# InvLevelScale4x4Luma_Intra, D.11360
	imull	-2240(%rbp), %eax	# level, D.11360
	movl	%eax, %edx	# D.11360, D.11360
	movl	$3, %eax	#, tmp1225
	subl	-2228(%rbp), %eax	# qp_per, D.11360
	movl	$1, %esi	#, tmp1226
	movl	%eax, %ecx	# D.11360, tmp1606
	sall	%cl, %esi	# tmp1606, D.11360
	movl	%esi, %eax	# D.11360, D.11360
	addl	%eax, %edx	# D.11360, D.11360
	movl	$4, %eax	#, tmp1227
	subl	-2228(%rbp), %eax	# qp_per, D.11360
	movl	%eax, %ecx	# D.11360, tmp1607
	sarl	%cl, %edx	# tmp1607, D.11360
	movl	-2256(%rbp), %eax	# jj, tmp1229
	cltq
	movl	-2260(%rbp), %ecx	# ii, tmp1231
	movslq	%ecx, %rcx	# tmp1231, tmp1230
	movl	-2268(%rbp), %esi	# i, tmp1233
	movslq	%esi, %rsi	# tmp1233, tmp1232
	salq	$2, %rsi	#, tmp1234
	addq	%rcx, %rsi	# tmp1230, tmp1235
	movl	-2264(%rbp), %ecx	# j, tmp1237
	movslq	%ecx, %rcx	# tmp1237, tmp1236
	salq	$2, %rsi	#, tmp1238
	addq	%rsi, %rcx	# tmp1238, tmp1239
	salq	$2, %rcx	#, tmp1240
	addq	%rcx, %rax	# tmp1240, tmp1241
	movl	%edx, -1040(%rbp,%rax,4)	# D.11360, M0
	jmp	.L158	#
.L159:
	.loc 1 767 0
	movl	-2264(%rbp), %eax	# j, tmp1243
	cltq
	movl	-2224(%rbp), %edx	# qp_rem, tmp1245
	movslq	%edx, %rcx	# tmp1245, tmp1244
	movl	-2268(%rbp), %edx	# i, tmp1247
	movslq	%edx, %rdx	# tmp1247, tmp1246
	salq	$2, %rcx	#, tmp1248
	addq	%rcx, %rdx	# tmp1248, tmp1249
	salq	$2, %rdx	#, tmp1250
	addq	%rdx, %rax	# tmp1250, tmp1251
	movl	InvLevelScale4x4Luma_Intra(,%rax,4), %eax	# InvLevelScale4x4Luma_Intra, D.11360
	imull	-2240(%rbp), %eax	# level, D.11360
	movl	%eax, %edx	# D.11360, D.11360
	movl	-2228(%rbp), %eax	# qp_per, tmp1252
	subl	$4, %eax	#, D.11360
	movl	%eax, %ecx	# D.11360, tmp1609
	sall	%cl, %edx	# tmp1609, D.11360
	movl	-2256(%rbp), %eax	# jj, tmp1254
	cltq
	movl	-2260(%rbp), %ecx	# ii, tmp1256
	movslq	%ecx, %rcx	# tmp1256, tmp1255
	movl	-2268(%rbp), %esi	# i, tmp1258
	movslq	%esi, %rsi	# tmp1258, tmp1257
	salq	$2, %rsi	#, tmp1259
	addq	%rcx, %rsi	# tmp1255, tmp1260
	movl	-2264(%rbp), %ecx	# j, tmp1262
	movslq	%ecx, %rcx	# tmp1262, tmp1261
	salq	$2, %rsi	#, tmp1263
	addq	%rsi, %rcx	# tmp1263, tmp1264
	salq	$2, %rcx	#, tmp1265
	addq	%rcx, %rax	# tmp1265, tmp1266
	movl	%edx, -1040(%rbp,%rax,4)	# D.11360, M0
.L158:
	.loc 1 731 0
	addl	$1, -2244(%rbp)	#, coeff_ctr
.L151:
	.loc 1 731 0 is_stmt 0 discriminator 1
	cmpl	$15, -2244(%rbp)	#, coeff_ctr
	jle	.L160	#,
	.loc 1 770 0 is_stmt 1
	movl	-2248(%rbp), %eax	# scan_pos, tmp1267
	cltq
	leaq	0(,%rax,4), %rdx	#, D.11361
	movq	-2176(%rbp), %rax	# ACLevel, tmp1268
	addq	%rdx, %rax	# D.11361, D.11369
	movl	$0, (%rax)	#, *_452
	.loc 1 775 0
	movl	$0, -2264(%rbp)	#, j
	jmp	.L161	#
.L167:
	.loc 1 777 0
	movl	$0, -2268(%rbp)	#, i
	jmp	.L162	#
.L163:
	.loc 1 779 0 discriminator 2
	movl	-2256(%rbp), %eax	# jj, tmp1270
	cltq
	movl	-2260(%rbp), %edx	# ii, tmp1272
	movslq	%edx, %rdx	# tmp1272, tmp1271
	movl	-2268(%rbp), %ecx	# i, tmp1274
	movslq	%ecx, %rcx	# tmp1274, tmp1273
	salq	$2, %rcx	#, tmp1275
	addq	%rdx, %rcx	# tmp1271, tmp1276
	movl	-2264(%rbp), %edx	# j, tmp1278
	movslq	%edx, %rdx	# tmp1278, tmp1277
	salq	$2, %rcx	#, tmp1279
	addq	%rcx, %rdx	# tmp1279, tmp1280
	salq	$2, %rdx	#, tmp1281
	addq	%rdx, %rax	# tmp1281, tmp1282
	movl	-1040(%rbp,%rax,4), %edx	# M0, D.11360
	movl	-2268(%rbp), %eax	# i, tmp1284
	cltq
	movl	%edx, -2160(%rbp,%rax,4)	# D.11360, M5
	.loc 1 777 0 discriminator 2
	addl	$1, -2268(%rbp)	#, i
.L162:
	.loc 1 777 0 is_stmt 0 discriminator 1
	cmpl	$3, -2268(%rbp)	#, i
	jle	.L163	#,
	.loc 1 782 0 is_stmt 1
	movl	-2160(%rbp), %edx	# M5, D.11360
	movl	-2152(%rbp), %eax	# M5, D.11360
	addl	%edx, %eax	# D.11360, D.11360
	movl	%eax, -2144(%rbp)	# D.11360, M6
	.loc 1 783 0
	movl	-2160(%rbp), %edx	# M5, D.11360
	movl	-2152(%rbp), %eax	# M5, D.11360
	subl	%eax, %edx	# D.11360, D.11360
	movl	%edx, %eax	# D.11360, D.11360
	movl	%eax, -2140(%rbp)	# D.11360, M6
	.loc 1 784 0
	movl	-2156(%rbp), %eax	# M5, D.11360
	sarl	%eax	# D.11360
	movl	%eax, %edx	# D.11360, D.11360
	movl	-2148(%rbp), %eax	# M5, D.11360
	subl	%eax, %edx	# D.11360, D.11360
	movl	%edx, %eax	# D.11360, D.11360
	movl	%eax, -2136(%rbp)	# D.11360, M6
	.loc 1 785 0
	movl	-2156(%rbp), %eax	# M5, D.11360
	movl	-2148(%rbp), %edx	# M5, D.11360
	sarl	%edx	# D.11360
	addl	%edx, %eax	# D.11360, D.11360
	movl	%eax, -2132(%rbp)	# D.11360, M6
	.loc 1 787 0
	movl	$0, -2268(%rbp)	#, i
	jmp	.L164	#
.L165:
	.loc 1 789 0 discriminator 2
	movl	$3, %eax	#, tmp1288
	subl	-2268(%rbp), %eax	# i, tmp1287
	movl	%eax, -2216(%rbp)	# tmp1287, i1
	.loc 1 790 0 discriminator 2
	movl	-2268(%rbp), %eax	# i, tmp1290
	cltq
	movl	-2144(%rbp,%rax,4), %edx	# M6, D.11360
	movl	-2216(%rbp), %eax	# i1, tmp1292
	cltq
	movl	-2144(%rbp,%rax,4), %eax	# M6, D.11360
	addl	%eax, %edx	# D.11360, D.11360
	movl	-2256(%rbp), %eax	# jj, tmp1294
	cltq
	movl	-2260(%rbp), %ecx	# ii, tmp1296
	movslq	%ecx, %rcx	# tmp1296, tmp1295
	movl	-2268(%rbp), %esi	# i, tmp1298
	movslq	%esi, %rsi	# tmp1298, tmp1297
	salq	$2, %rsi	#, tmp1299
	addq	%rcx, %rsi	# tmp1295, tmp1300
	movl	-2264(%rbp), %ecx	# j, tmp1302
	movslq	%ecx, %rcx	# tmp1302, tmp1301
	salq	$2, %rsi	#, tmp1303
	addq	%rsi, %rcx	# tmp1303, tmp1304
	salq	$2, %rcx	#, tmp1305
	addq	%rcx, %rax	# tmp1305, tmp1306
	movl	%edx, -1040(%rbp,%rax,4)	# D.11360, M0
	.loc 1 791 0 discriminator 2
	movl	-2268(%rbp), %eax	# i, tmp1308
	cltq
	movl	-2144(%rbp,%rax,4), %edx	# M6, D.11360
	movl	-2216(%rbp), %eax	# i1, tmp1310
	cltq
	movl	-2144(%rbp,%rax,4), %eax	# M6, D.11360
	subl	%eax, %edx	# D.11360, D.11360
	movl	-2256(%rbp), %eax	# jj, tmp1312
	cltq
	movl	-2260(%rbp), %ecx	# ii, tmp1314
	movslq	%ecx, %rcx	# tmp1314, tmp1313
	movl	-2216(%rbp), %esi	# i1, tmp1316
	movslq	%esi, %rsi	# tmp1316, tmp1315
	salq	$2, %rsi	#, tmp1317
	addq	%rcx, %rsi	# tmp1313, tmp1318
	movl	-2264(%rbp), %ecx	# j, tmp1320
	movslq	%ecx, %rcx	# tmp1320, tmp1319
	salq	$2, %rsi	#, tmp1321
	addq	%rsi, %rcx	# tmp1321, tmp1322
	salq	$2, %rcx	#, tmp1323
	addq	%rcx, %rax	# tmp1323, tmp1324
	movl	%edx, -1040(%rbp,%rax,4)	# D.11360, M0
	.loc 1 787 0 discriminator 2
	addl	$1, -2268(%rbp)	#, i
.L164:
	.loc 1 787 0 is_stmt 0 discriminator 1
	cmpl	$1, -2268(%rbp)	#, i
	jle	.L165	#,
	.loc 1 775 0 is_stmt 1
	addl	$1, -2264(%rbp)	#, j
.L161:
	.loc 1 775 0 is_stmt 0 discriminator 1
	cmpl	$3, -2264(%rbp)	#, j
	jg	.L166	#,
	.loc 1 775 0 discriminator 2
	cmpl	$0, -2232(%rbp)	#, lossless_qpprime
	je	.L167	#,
.L166:
	.loc 1 796 0 is_stmt 1
	movl	$0, -2268(%rbp)	#, i
	jmp	.L168	#
.L174:
	.loc 1 798 0
	movl	$0, -2264(%rbp)	#, j
	jmp	.L169	#
.L170:
	.loc 1 799 0 discriminator 2
	movl	-2256(%rbp), %eax	# jj, tmp1326
	cltq
	movl	-2260(%rbp), %edx	# ii, tmp1328
	movslq	%edx, %rdx	# tmp1328, tmp1327
	movl	-2268(%rbp), %ecx	# i, tmp1330
	movslq	%ecx, %rcx	# tmp1330, tmp1329
	salq	$2, %rcx	#, tmp1331
	addq	%rdx, %rcx	# tmp1327, tmp1332
	movl	-2264(%rbp), %edx	# j, tmp1334
	movslq	%edx, %rdx	# tmp1334, tmp1333
	salq	$2, %rcx	#, tmp1335
	addq	%rcx, %rdx	# tmp1335, tmp1336
	salq	$2, %rdx	#, tmp1337
	addq	%rdx, %rax	# tmp1337, tmp1338
	movl	-1040(%rbp,%rax,4), %edx	# M0, D.11360
	movl	-2264(%rbp), %eax	# j, tmp1340
	cltq
	movl	%edx, -2160(%rbp,%rax,4)	# D.11360, M5
	.loc 1 798 0 discriminator 2
	addl	$1, -2264(%rbp)	#, j
.L169:
	.loc 1 798 0 is_stmt 0 discriminator 1
	cmpl	$3, -2264(%rbp)	#, j
	jle	.L170	#,
	.loc 1 801 0 is_stmt 1
	movl	-2160(%rbp), %edx	# M5, D.11360
	movl	-2152(%rbp), %eax	# M5, D.11360
	addl	%edx, %eax	# D.11360, D.11360
	movl	%eax, -2144(%rbp)	# D.11360, M6
	.loc 1 802 0
	movl	-2160(%rbp), %edx	# M5, D.11360
	movl	-2152(%rbp), %eax	# M5, D.11360
	subl	%eax, %edx	# D.11360, D.11360
	movl	%edx, %eax	# D.11360, D.11360
	movl	%eax, -2140(%rbp)	# D.11360, M6
	.loc 1 803 0
	movl	-2156(%rbp), %eax	# M5, D.11360
	sarl	%eax	# D.11360
	movl	%eax, %edx	# D.11360, D.11360
	movl	-2148(%rbp), %eax	# M5, D.11360
	subl	%eax, %edx	# D.11360, D.11360
	movl	%edx, %eax	# D.11360, D.11360
	movl	%eax, -2136(%rbp)	# D.11360, M6
	.loc 1 804 0
	movl	-2156(%rbp), %eax	# M5, D.11360
	movl	-2148(%rbp), %edx	# M5, D.11360
	sarl	%edx	# D.11360
	addl	%edx, %eax	# D.11360, D.11360
	movl	%eax, -2132(%rbp)	# D.11360, M6
	.loc 1 806 0
	movl	$0, -2264(%rbp)	#, j
	jmp	.L171	#
.L172:
	.loc 1 808 0 discriminator 2
	movl	$3, %eax	#, tmp1344
	subl	-2264(%rbp), %eax	# j, tmp1343
	movl	%eax, -2212(%rbp)	# tmp1343, j1
	.loc 1 809 0 discriminator 2
	movl	-2264(%rbp), %eax	# j, tmp1346
	cltq
	movl	-2144(%rbp,%rax,4), %edx	# M6, D.11360
	movl	-2212(%rbp), %eax	# j1, tmp1348
	cltq
	movl	-2144(%rbp,%rax,4), %eax	# M6, D.11360
	addl	%eax, %edx	# D.11360, D.11360
	movl	-2256(%rbp), %eax	# jj, tmp1350
	cltq
	movl	-2260(%rbp), %ecx	# ii, tmp1352
	movslq	%ecx, %rcx	# tmp1352, tmp1351
	movl	-2268(%rbp), %esi	# i, tmp1354
	movslq	%esi, %rsi	# tmp1354, tmp1353
	salq	$2, %rsi	#, tmp1355
	addq	%rcx, %rsi	# tmp1351, tmp1356
	movl	-2264(%rbp), %ecx	# j, tmp1358
	movslq	%ecx, %rcx	# tmp1358, tmp1357
	salq	$2, %rsi	#, tmp1359
	addq	%rsi, %rcx	# tmp1359, tmp1360
	salq	$2, %rcx	#, tmp1361
	addq	%rcx, %rax	# tmp1361, tmp1362
	movl	%edx, -1040(%rbp,%rax,4)	# D.11360, M0
	.loc 1 810 0 discriminator 2
	movl	-2264(%rbp), %eax	# j, tmp1364
	cltq
	movl	-2144(%rbp,%rax,4), %edx	# M6, D.11360
	movl	-2212(%rbp), %eax	# j1, tmp1366
	cltq
	movl	-2144(%rbp,%rax,4), %eax	# M6, D.11360
	subl	%eax, %edx	# D.11360, D.11360
	movl	-2256(%rbp), %eax	# jj, tmp1368
	cltq
	movl	-2260(%rbp), %ecx	# ii, tmp1370
	movslq	%ecx, %rcx	# tmp1370, tmp1369
	movl	-2268(%rbp), %esi	# i, tmp1372
	movslq	%esi, %rsi	# tmp1372, tmp1371
	salq	$2, %rsi	#, tmp1373
	addq	%rcx, %rsi	# tmp1369, tmp1374
	movl	-2212(%rbp), %ecx	# j1, tmp1376
	movslq	%ecx, %rcx	# tmp1376, tmp1375
	salq	$2, %rsi	#, tmp1377
	addq	%rsi, %rcx	# tmp1377, tmp1378
	salq	$2, %rcx	#, tmp1379
	addq	%rcx, %rax	# tmp1379, tmp1380
	movl	%edx, -1040(%rbp,%rax,4)	# D.11360, M0
	.loc 1 806 0 discriminator 2
	addl	$1, -2264(%rbp)	#, j
.L171:
	.loc 1 806 0 is_stmt 0 discriminator 1
	cmpl	$1, -2264(%rbp)	#, j
	jle	.L172	#,
	.loc 1 796 0 is_stmt 1
	addl	$1, -2268(%rbp)	#, i
.L168:
	.loc 1 796 0 is_stmt 0 discriminator 1
	cmpl	$3, -2268(%rbp)	#, i
	jg	.L173	#,
	.loc 1 796 0 discriminator 2
	cmpl	$0, -2232(%rbp)	#, lossless_qpprime
	je	.L174	#,
.L173:
	.loc 1 722 0 is_stmt 1
	addl	$1, -2260(%rbp)	#, ii
.L150:
	.loc 1 722 0 is_stmt 0 discriminator 1
	cmpl	$3, -2260(%rbp)	#, ii
	jle	.L175	#,
	.loc 1 720 0 is_stmt 1
	addl	$1, -2256(%rbp)	#, jj
.L149:
	.loc 1 720 0 is_stmt 0 discriminator 1
	cmpl	$3, -2256(%rbp)	#, jj
	jle	.L176	#,
	.loc 1 819 0 is_stmt 1
	movq	img(%rip), %rax	# img, img.165
	movl	72724(%rax), %eax	# img.165_511->residue_transform_flag, D.11360
	testl	%eax, %eax	# D.11360
	jne	.L177	#,
	.loc 1 821 0
	movl	$0, -2264(%rbp)	#, j
	jmp	.L178	#
.L181:
	.loc 1 823 0
	movl	$0, -2268(%rbp)	#, i
	jmp	.L179	#
.L180:
	.loc 1 825 0 discriminator 2
	movl	-2268(%rbp), %eax	# i, tmp1381
	cltd
	shrl	$30, %edx	#, tmp1383
	addl	%edx, %eax	# tmp1383, tmp1384
	andl	$3, %eax	#, tmp1385
	subl	%edx, %eax	# tmp1383, tmp1386
	movl	%eax, %esi	# tmp1386, D.11360
	movl	-2268(%rbp), %eax	# i, tmp1387
	leal	3(%rax), %edx	#, tmp1389
	testl	%eax, %eax	# tmp1388
	cmovs	%edx, %eax	# tmp1389,, tmp1388
	sarl	$2, %eax	#, tmp1390
	movl	%eax, %ecx	# tmp1390, D.11360
	movl	-2264(%rbp), %eax	# j, tmp1391
	cltd
	shrl	$30, %edx	#, tmp1393
	addl	%edx, %eax	# tmp1393, tmp1394
	andl	$3, %eax	#, tmp1395
	subl	%edx, %eax	# tmp1393, tmp1396
	movl	%eax, %edx	# tmp1396, D.11360
	movl	-2264(%rbp), %eax	# j, tmp1397
	leal	3(%rax), %edi	#, tmp1399
	testl	%eax, %eax	# tmp1398
	cmovs	%edi, %eax	# tmp1399,, tmp1398
	sarl	$2, %eax	#, tmp1400
	cltq
	movslq	%ecx, %rcx	# D.11360, tmp1402
	movslq	%esi, %rsi	# D.11360, tmp1403
	salq	$2, %rsi	#, tmp1404
	addq	%rsi, %rcx	# tmp1404, tmp1405
	movslq	%edx, %rdx	# D.11360, tmp1406
	salq	$2, %rcx	#, tmp1407
	addq	%rcx, %rdx	# tmp1407, tmp1408
	salq	$2, %rdx	#, tmp1409
	addq	%rdx, %rax	# tmp1409, tmp1410
	movl	-1040(%rbp,%rax,4), %eax	# M0, D.11360
	movl	-2264(%rbp), %edx	# j, tmp1412
	movslq	%edx, %rdx	# tmp1412, tmp1411
	movl	-2268(%rbp), %ecx	# i, tmp1414
	movslq	%ecx, %rcx	# tmp1414, tmp1413
	salq	$4, %rcx	#, tmp1415
	addq	%rcx, %rdx	# tmp1415, tmp1416
	movl	%eax, -2064(%rbp,%rdx,4)	# D.11360, M1
	.loc 1 823 0 discriminator 2
	addl	$1, -2268(%rbp)	#, i
.L179:
	.loc 1 823 0 is_stmt 0 discriminator 1
	cmpl	$15, -2268(%rbp)	#, i
	jle	.L180	#,
	.loc 1 821 0 is_stmt 1
	addl	$1, -2264(%rbp)	#, j
.L178:
	.loc 1 821 0 is_stmt 0 discriminator 1
	cmpl	$15, -2264(%rbp)	#, j
	jle	.L181	#,
	jmp	.L182	#
.L177:
	.loc 1 831 0 is_stmt 1
	movl	$0, -2264(%rbp)	#, j
	jmp	.L183	#
.L188:
	.loc 1 833 0
	movl	$0, -2268(%rbp)	#, i
	jmp	.L184	#
.L187:
	.loc 1 835 0
	cmpl	$0, -2232(%rbp)	#, lossless_qpprime
	je	.L185	#,
	.loc 1 836 0
	movq	img(%rip), %rcx	# img, img.166
	movl	-2268(%rbp), %eax	# i, tmp1417
	cltd
	shrl	$30, %edx	#, tmp1419
	addl	%edx, %eax	# tmp1419, tmp1420
	andl	$3, %eax	#, tmp1421
	subl	%edx, %eax	# tmp1419, tmp1422
	movl	%eax, %edi	# tmp1422, D.11360
	movl	-2268(%rbp), %eax	# i, tmp1423
	leal	3(%rax), %edx	#, tmp1425
	testl	%eax, %eax	# tmp1424
	cmovs	%edx, %eax	# tmp1425,, tmp1424
	sarl	$2, %eax	#, tmp1426
	movl	%eax, %esi	# tmp1426, D.11360
	movl	-2264(%rbp), %eax	# j, tmp1427
	cltd
	shrl	$30, %edx	#, tmp1429
	addl	%edx, %eax	# tmp1429, tmp1430
	andl	$3, %eax	#, tmp1431
	subl	%edx, %eax	# tmp1429, tmp1432
	movl	%eax, %edx	# tmp1432, D.11360
	movl	-2264(%rbp), %eax	# j, tmp1433
	leal	3(%rax), %r8d	#, tmp1435
	testl	%eax, %eax	# tmp1434
	cmovs	%r8d, %eax	# tmp1435,, tmp1434
	sarl	$2, %eax	#, tmp1436
	cltq
	movslq	%esi, %rsi	# D.11360, tmp1438
	movslq	%edi, %rdi	# D.11360, tmp1439
	salq	$2, %rdi	#, tmp1440
	addq	%rdi, %rsi	# tmp1440, tmp1441
	movslq	%edx, %rdx	# D.11360, tmp1442
	salq	$2, %rsi	#, tmp1443
	addq	%rsi, %rdx	# tmp1443, tmp1444
	salq	$2, %rdx	#, tmp1445
	addq	%rdx, %rax	# tmp1445, tmp1446
	movl	-1040(%rbp,%rax,4), %eax	# M0, D.11360
	movl	-2264(%rbp), %edx	# j, tmp1448
	movslq	%edx, %rdx	# tmp1448, tmp1447
	movl	-2268(%rbp), %esi	# i, tmp1450
	movslq	%esi, %rsi	# tmp1450, tmp1449
	salq	$4, %rsi	#, tmp1451
	addq	%rsi, %rdx	# tmp1451, tmp1452
	addq	$3276, %rdx	#, tmp1453
	movl	%eax, 8(%rcx,%rdx,4)	# D.11360, img.166_524->m7
	jmp	.L186	#
.L185:
	.loc 1 838 0
	movq	img(%rip), %rcx	# img, img.167
	movl	-2268(%rbp), %eax	# i, tmp1454
	cltd
	shrl	$30, %edx	#, tmp1456
	addl	%edx, %eax	# tmp1456, tmp1457
	andl	$3, %eax	#, tmp1458
	subl	%edx, %eax	# tmp1456, tmp1459
	movl	%eax, %edi	# tmp1459, D.11360
	movl	-2268(%rbp), %eax	# i, tmp1460
	leal	3(%rax), %edx	#, tmp1462
	testl	%eax, %eax	# tmp1461
	cmovs	%edx, %eax	# tmp1462,, tmp1461
	sarl	$2, %eax	#, tmp1463
	movl	%eax, %esi	# tmp1463, D.11360
	movl	-2264(%rbp), %eax	# j, tmp1464
	cltd
	shrl	$30, %edx	#, tmp1466
	addl	%edx, %eax	# tmp1466, tmp1467
	andl	$3, %eax	#, tmp1468
	subl	%edx, %eax	# tmp1466, tmp1469
	movl	%eax, %edx	# tmp1469, D.11360
	movl	-2264(%rbp), %eax	# j, tmp1470
	leal	3(%rax), %r8d	#, tmp1472
	testl	%eax, %eax	# tmp1471
	cmovs	%r8d, %eax	# tmp1472,, tmp1471
	sarl	$2, %eax	#, tmp1473
	cltq
	movslq	%esi, %rsi	# D.11360, tmp1475
	movslq	%edi, %rdi	# D.11360, tmp1476
	salq	$2, %rdi	#, tmp1477
	addq	%rdi, %rsi	# tmp1477, tmp1478
	movslq	%edx, %rdx	# D.11360, tmp1479
	salq	$2, %rsi	#, tmp1480
	addq	%rsi, %rdx	# tmp1480, tmp1481
	salq	$2, %rdx	#, tmp1482
	addq	%rdx, %rax	# tmp1482, tmp1483
	movl	-1040(%rbp,%rax,4), %eax	# M0, D.11360
	addl	$32, %eax	#, D.11360
	sarl	$6, %eax	#, D.11360
	movl	%eax, %edx	# D.11360, D.11360
	movl	-2264(%rbp), %eax	# j, tmp1485
	cltq
	movl	-2268(%rbp), %esi	# i, tmp1487
	movslq	%esi, %rsi	# tmp1487, tmp1486
	salq	$4, %rsi	#, tmp1488
	addq	%rsi, %rax	# tmp1488, tmp1489
	addq	$3276, %rax	#, tmp1490
	movl	%edx, 8(%rcx,%rax,4)	# D.11360, img.167_530->m7
.L186:
	.loc 1 833 0
	addl	$1, -2268(%rbp)	#, i
.L184:
	.loc 1 833 0 is_stmt 0 discriminator 1
	cmpl	$15, -2268(%rbp)	#, i
	jle	.L187	#,
	.loc 1 831 0 is_stmt 1
	addl	$1, -2264(%rbp)	#, j
.L183:
	.loc 1 831 0 is_stmt 0 discriminator 1
	cmpl	$15, -2264(%rbp)	#, j
	jle	.L188	#,
.L182:
	.loc 1 843 0 is_stmt 1
	movq	img(%rip), %rax	# img, img.168
	movl	72724(%rax), %eax	# img.168_540->residue_transform_flag, D.11360
	testl	%eax, %eax	# D.11360
	jne	.L189	#,
	.loc 1 845 0
	movl	$0, -2264(%rbp)	#, j
	jmp	.L190	#
.L199:
	.loc 1 847 0
	movl	$0, -2268(%rbp)	#, i
	jmp	.L191	#
.L198:
	.loc 1 849 0
	cmpl	$0, -2232(%rbp)	#, lossless_qpprime
	je	.L192	#,
	.loc 1 850 0
	movq	enc_picture(%rip), %rax	# enc_picture, enc_picture.169
	movq	6424(%rax), %rdx	# enc_picture.169_544->imgY, D.11364
	movq	img(%rip), %rax	# img, img.170
	movl	156(%rax), %ecx	# img.170_546->pix_y, D.11360
	movl	-2264(%rbp), %eax	# j, tmp1491
	addl	%ecx, %eax	# D.11360, D.11360
	cltq
	salq	$3, %rax	#, D.11361
	addq	%rdx, %rax	# D.11364, D.11364
	movq	(%rax), %rdx	# *_551, D.11365
	movq	img(%rip), %rax	# img, img.171
	movl	152(%rax), %ecx	# img.171_553->pix_x, D.11360
	movl	-2268(%rbp), %eax	# i, tmp1492
	addl	%ecx, %eax	# D.11360, D.11360
	cltq
	addq	%rax, %rax	# D.11361
	addq	%rax, %rdx	# D.11361, D.11365
	movl	-2264(%rbp), %eax	# j, tmp1494
	cltq
	movl	-2268(%rbp), %ecx	# i, tmp1496
	movslq	%ecx, %rcx	# tmp1496, tmp1495
	salq	$4, %rcx	#, tmp1497
	addq	%rcx, %rax	# tmp1497, tmp1498
	movl	-2064(%rbp,%rax,4), %eax	# M1, D.11360
	movl	%eax, %ecx	# D.11360, D.11366
	movq	img(%rip), %rax	# img, img.172
	movl	-2268(%rbp), %esi	# i, tmp1500
	movslq	%esi, %rsi	# tmp1500, tmp1499
	movl	-2276(%rbp), %edi	# new_intra_mode, tmp1502
	movslq	%edi, %r8	# tmp1502, tmp1501
	movl	-2264(%rbp), %edi	# j, tmp1504
	movslq	%edi, %rdi	# tmp1504, tmp1503
	salq	$4, %r8	#, tmp1505
	addq	%r8, %rdi	# tmp1505, tmp1506
	salq	$4, %rdi	#, tmp1507
	addq	%rdi, %rsi	# tmp1507, tmp1508
	addq	$2392, %rsi	#, tmp1509
	movzwl	8(%rax,%rsi,2), %eax	# img.172_561->mprr_2, D.11366
	addl	%ecx, %eax	# D.11366, D.11366
	movw	%ax, (%rdx)	# D.11366, *_558
	jmp	.L193	#
.L192:
	.loc 1 852 0
	movq	enc_picture(%rip), %rax	# enc_picture, enc_picture.173
	movq	6424(%rax), %rdx	# enc_picture.173_564->imgY, D.11364
	movq	img(%rip), %rax	# img, img.174
	movl	156(%rax), %ecx	# img.174_566->pix_y, D.11360
	movl	-2264(%rbp), %eax	# j, tmp1510
	addl	%ecx, %eax	# D.11360, D.11360
	cltq
	salq	$3, %rax	#, D.11361
	addq	%rdx, %rax	# D.11364, D.11364
	movq	(%rax), %rdx	# *_571, D.11365
	movq	img(%rip), %rax	# img, img.175
	movl	152(%rax), %ecx	# img.175_573->pix_x, D.11360
	movl	-2268(%rbp), %eax	# i, tmp1511
	addl	%ecx, %eax	# D.11360, D.11360
	cltq
	addq	%rax, %rax	# D.11361
	addq	%rax, %rdx	# D.11361, D.11365
	movq	img(%rip), %rax	# img, img.177
	movl	72684(%rax), %eax	# img.177_579->max_imgpel_value, D.11360
	movslq	%eax, %rcx	# D.11360, D.11371
	movl	-2264(%rbp), %eax	# j, tmp1513
	cltq
	movl	-2268(%rbp), %esi	# i, tmp1515
	movslq	%esi, %rsi	# tmp1515, tmp1514
	salq	$4, %rsi	#, tmp1516
	addq	%rsi, %rax	# tmp1516, tmp1517
	movl	-2064(%rbp,%rax,4), %eax	# M1, D.11360
	movslq	%eax, %rsi	# D.11360, D.11371
	movq	img(%rip), %rax	# img, img.178
	movl	-2268(%rbp), %edi	# i, tmp1519
	movslq	%edi, %rdi	# tmp1519, tmp1518
	movl	-2276(%rbp), %r8d	# new_intra_mode, tmp1521
	movslq	%r8d, %r9	# tmp1521, tmp1520
	movl	-2264(%rbp), %r8d	# j, tmp1523
	movslq	%r8d, %r8	# tmp1523, tmp1522
	salq	$4, %r9	#, tmp1524
	addq	%r9, %r8	# tmp1524, tmp1525
	salq	$4, %r8	#, tmp1526
	addq	%r8, %rdi	# tmp1526, tmp1527
	addq	$2392, %rdi	#, tmp1528
	movzwl	8(%rax,%rdi,2), %eax	# img.178_584->mprr_2, D.11366
	movzwl	%ax, %eax	# D.11366, D.11371
	salq	$6, %rax	#, D.11371
	addq	%rsi, %rax	# D.11371, D.11371
	addq	$32, %rax	#, D.11371
	sarq	$6, %rax	#, D.11371
	movl	$0, %esi	#, tmp1529
	testq	%rax, %rax	# D.11371
	cmovs	%rsi, %rax	# D.11371,, tmp1529, D.11371
	cmpq	%rax, %rcx	# D.11371, D.11371
	jge	.L194	#,
	.loc 1 852 0 is_stmt 0 discriminator 1
	movq	img(%rip), %rax	# img, img.179
	movl	72684(%rax), %eax	# img.179_592->max_imgpel_value, D.11360
	jmp	.L195	#
.L194:
	.loc 1 852 0 discriminator 2
	movl	-2264(%rbp), %eax	# j, tmp1531
	cltq
	movl	-2268(%rbp), %ecx	# i, tmp1533
	movslq	%ecx, %rcx	# tmp1533, tmp1532
	salq	$4, %rcx	#, tmp1534
	addq	%rcx, %rax	# tmp1534, tmp1535
	movl	-2064(%rbp,%rax,4), %eax	# M1, D.11360
	movslq	%eax, %rcx	# D.11360, D.11371
	movq	img(%rip), %rax	# img, img.181
	movl	-2268(%rbp), %esi	# i, tmp1537
	movslq	%esi, %rsi	# tmp1537, tmp1536
	movl	-2276(%rbp), %edi	# new_intra_mode, tmp1539
	movslq	%edi, %r8	# tmp1539, tmp1538
	movl	-2264(%rbp), %edi	# j, tmp1541
	movslq	%edi, %rdi	# tmp1541, tmp1540
	salq	$4, %r8	#, tmp1542
	addq	%r8, %rdi	# tmp1542, tmp1543
	salq	$4, %rdi	#, tmp1544
	addq	%rdi, %rsi	# tmp1544, tmp1545
	addq	$2392, %rsi	#, tmp1546
	movzwl	8(%rax,%rsi,2), %eax	# img.181_597->mprr_2, D.11366
	movzwl	%ax, %eax	# D.11366, D.11371
	salq	$6, %rax	#, D.11371
	addq	%rcx, %rax	# D.11371, D.11371
	addq	$32, %rax	#, D.11371
	sarq	$6, %rax	#, D.11371
	testq	%rax, %rax	# D.11371
	js	.L196	#,
	.loc 1 852 0 discriminator 3
	movl	-2264(%rbp), %eax	# j, tmp1548
	cltq
	movl	-2268(%rbp), %ecx	# i, tmp1550
	movslq	%ecx, %rcx	# tmp1550, tmp1549
	salq	$4, %rcx	#, tmp1551
	addq	%rcx, %rax	# tmp1551, tmp1552
	movl	-2064(%rbp,%rax,4), %eax	# M1, D.11360
	movslq	%eax, %rcx	# D.11360, D.11371
	movq	img(%rip), %rax	# img, img.182
	movl	-2268(%rbp), %esi	# i, tmp1554
	movslq	%esi, %rsi	# tmp1554, tmp1553
	movl	-2276(%rbp), %edi	# new_intra_mode, tmp1556
	movslq	%edi, %r8	# tmp1556, tmp1555
	movl	-2264(%rbp), %edi	# j, tmp1558
	movslq	%edi, %rdi	# tmp1558, tmp1557
	salq	$4, %r8	#, tmp1559
	addq	%r8, %rdi	# tmp1559, tmp1560
	salq	$4, %rdi	#, tmp1561
	addq	%rdi, %rsi	# tmp1561, tmp1562
	addq	$2392, %rsi	#, tmp1563
	movzwl	8(%rax,%rsi,2), %eax	# img.182_606->mprr_2, D.11366
	movzwl	%ax, %eax	# D.11366, D.11371
	salq	$6, %rax	#, D.11371
	addq	%rcx, %rax	# D.11371, D.11371
	addq	$32, %rax	#, D.11371
	sarq	$6, %rax	#, D.11371
	jmp	.L195	#
.L196:
	.loc 1 852 0 discriminator 4
	movl	$0, %eax	#, iftmp.180
.L195:
	.loc 1 852 0 discriminator 6
	movw	%ax, (%rdx)	# iftmp.176, *_578
.L193:
	.loc 1 847 0 is_stmt 1
	addl	$1, -2268(%rbp)	#, i
.L191:
	.loc 1 847 0 is_stmt 0 discriminator 1
	cmpl	$15, -2268(%rbp)	#, i
	jle	.L198	#,
	.loc 1 845 0 is_stmt 1
	addl	$1, -2264(%rbp)	#, j
.L190:
	.loc 1 845 0 is_stmt 0 discriminator 1
	cmpl	$15, -2264(%rbp)	#, j
	jle	.L199	#,
.L189:
	.loc 1 856 0 is_stmt 1
	movl	-2236(%rbp), %eax	# ac_coef, D.11360
	.loc 1 857 0
	addq	$2280, %rsp	#,
	popq	%rbx	#
	popq	%rbp	#
	.cfi_def_cfa 7, 8
	ret
	.cfi_endproc
.LFE4:
	.size	dct_luma_16x16, .-dct_luma_16x16
	.globl	dct_luma
	.type	dct_luma, @function
dct_luma:
.LFB5:
	.loc 1 876 0
	.cfi_startproc
	pushq	%rbp	#
	.cfi_def_cfa_offset 16
	.cfi_offset 6, -16
	movq	%rsp, %rbp	#,
	.cfi_def_cfa_register 6
	pushq	%rbx	#
	subq	$168, %rsp	#,
	.cfi_offset 3, -24
	movl	%edi, -148(%rbp)	# block_x, block_x
	movl	%esi, -152(%rbp)	# block_y, block_y
	movq	%rdx, -160(%rbp)	# coeff_cost, coeff_cost
	movl	%ecx, -164(%rbp)	# intra, intra
	.loc 1 885 0
	movl	-148(%rbp), %eax	# block_x, tmp380
	leal	3(%rax), %edx	#, tmp382
	testl	%eax, %eax	# tmp381
	cmovs	%edx, %eax	# tmp382,, tmp381
	sarl	$2, %eax	#, tmp383
	movl	%eax, -112(%rbp)	# tmp383, pos_x
	.loc 1 886 0
	movl	-152(%rbp), %eax	# block_y, tmp385
	leal	3(%rax), %edx	#, tmp387
	testl	%eax, %eax	# tmp386
	cmovs	%edx, %eax	# tmp387,, tmp386
	sarl	$2, %eax	#, tmp388
	movl	%eax, -108(%rbp)	# tmp388, pos_y
	.loc 1 887 0
	movl	-108(%rbp), %eax	# pos_y, tmp389
	movl	%eax, %edx	# tmp389, tmp390
	shrl	$31, %edx	#, tmp390
	addl	%edx, %eax	# tmp390, tmp391
	sarl	%eax	# tmp392
	leal	(%rax,%rax), %edx	#, D.11373
	movl	-112(%rbp), %eax	# pos_x, tmp393
	movl	%eax, %ecx	# tmp393, tmp394
	shrl	$31, %ecx	#, tmp394
	addl	%ecx, %eax	# tmp394, tmp395
	sarl	%eax	# tmp396
	addl	%edx, %eax	# D.11373, tmp397
	movl	%eax, -104(%rbp)	# tmp397, b8
	.loc 1 888 0
	movl	-108(%rbp), %eax	# pos_y, tmp398
	cltd
	shrl	$31, %edx	#, tmp400
	addl	%edx, %eax	# tmp400, tmp401
	andl	$1, %eax	#, tmp402
	subl	%edx, %eax	# tmp400, tmp403
	leal	(%rax,%rax), %ecx	#, D.11373
	movl	-112(%rbp), %eax	# pos_x, tmp404
	cltd
	shrl	$31, %edx	#, tmp406
	addl	%edx, %eax	# tmp406, tmp407
	andl	$1, %eax	#, tmp408
	subl	%edx, %eax	# tmp406, tmp409
	addl	%ecx, %eax	# D.11373, tmp410
	movl	%eax, -100(%rbp)	# tmp410, b4
	.loc 1 889 0
	movq	img(%rip), %rax	# img, img.183
	movq	14136(%rax), %rax	# img.183_38->cofAC, D.11374
	movl	-104(%rbp), %edx	# b8, tmp411
	movslq	%edx, %rdx	# tmp411, D.11375
	salq	$3, %rdx	#, D.11375
	addq	%rdx, %rax	# D.11375, D.11374
	movq	(%rax), %rax	# *_42, D.11376
	movl	-100(%rbp), %edx	# b4, tmp412
	movslq	%edx, %rdx	# tmp412, D.11375
	salq	$3, %rdx	#, D.11375
	addq	%rdx, %rax	# D.11375, D.11376
	movq	(%rax), %rax	# *_46, D.11377
	movq	(%rax), %rax	# *_47, tmp413
	movq	%rax, -72(%rbp)	# tmp413, ACLevel
	.loc 1 890 0
	movq	img(%rip), %rax	# img, img.184
	movq	14136(%rax), %rax	# img.184_49->cofAC, D.11374
	movl	-104(%rbp), %edx	# b8, tmp414
	movslq	%edx, %rdx	# tmp414, D.11375
	salq	$3, %rdx	#, D.11375
	addq	%rdx, %rax	# D.11375, D.11374
	movq	(%rax), %rax	# *_53, D.11376
	movl	-100(%rbp), %edx	# b4, tmp415
	movslq	%edx, %rdx	# tmp415, D.11375
	salq	$3, %rdx	#, D.11375
	addq	%rdx, %rax	# D.11375, D.11376
	movq	(%rax), %rax	# *_57, D.11377
	movq	8(%rax), %rax	# MEM[(int * *)_58 + 8B], tmp416
	movq	%rax, -64(%rbp)	# tmp416, ACRun
	.loc 1 892 0
	movq	img(%rip), %rax	# img, img.185
	movq	14168(%rax), %rdx	# img.185_60->mb_data, D.11378
	movq	img(%rip), %rax	# img, img.186
	movl	12(%rax), %eax	# img.186_62->current_mb_nr, D.11373
	cltq
	imulq	$632, %rax, %rax	#, D.11375, D.11375
	addq	%rdx, %rax	# D.11378, tmp417
	movq	%rax, -56(%rbp)	# tmp417, currMB
	.loc 1 893 0
	movq	-56(%rbp), %rax	# currMB, tmp418
	movl	12(%rax), %edx	# currMB_66->qp, D.11373
	movq	img(%rip), %rax	# img, img.188
	movl	72668(%rax), %eax	# img.188_68->bitdepth_luma_qp_scale, D.11373
	addl	%edx, %eax	# D.11373, D.11373
	testl	%eax, %eax	# D.11373
	jne	.L202	#,
	.loc 1 893 0 is_stmt 0 discriminator 1
	movq	img(%rip), %rax	# img, img.189
	movl	72704(%rax), %eax	# img.189_71->lossless_qpprime_flag, D.11373
	cmpl	$1, %eax	#, D.11373
	jne	.L202	#,
	.loc 1 893 0 discriminator 3
	movl	$1, %eax	#, iftmp.187
	jmp	.L203	#
.L202:
	.loc 1 893 0 discriminator 2
	movl	$0, %eax	#, iftmp.187
.L203:
	.loc 1 893 0 discriminator 4
	movl	%eax, -96(%rbp)	# iftmp.187, lossless_qpprime
	.loc 1 895 0 is_stmt 1 discriminator 4
	movq	-56(%rbp), %rax	# currMB, tmp419
	movl	12(%rax), %edx	# currMB_66->qp, D.11373
	movq	img(%rip), %rax	# img, img.190
	movl	72668(%rax), %eax	# img.190_77->bitdepth_luma_qp_scale, D.11373
	leal	(%rdx,%rax), %ecx	#, D.11373
	movl	$715827883, %edx	#, tmp421
	movl	%ecx, %eax	# D.11373, tmp888
	imull	%edx	# tmp421
	movl	%ecx, %eax	# D.11373, tmp422
	sarl	$31, %eax	#, tmp422
	subl	%eax, %edx	# tmp422, tmp423
	movl	%edx, %eax	# tmp423, tmp423
	movl	%eax, -92(%rbp)	# tmp423, qp_per
	.loc 1 896 0 discriminator 4
	movq	-56(%rbp), %rax	# currMB, tmp424
	movl	12(%rax), %edx	# currMB_66->qp, D.11373
	movq	img(%rip), %rax	# img, img.191
	movl	72668(%rax), %eax	# img.191_82->bitdepth_luma_qp_scale, D.11373
	leal	(%rdx,%rax), %ecx	#, D.11373
	movl	$715827883, %edx	#, tmp426
	movl	%ecx, %eax	# D.11373, tmp889
	imull	%edx	# tmp426
	movl	%ecx, %eax	# D.11373, tmp427
	sarl	$31, %eax	#, tmp427
	subl	%eax, %edx	# tmp427, tmp428
	movl	%edx, %eax	# tmp428, tmp428
	movl	%eax, -88(%rbp)	# tmp428, qp_rem
	movl	-88(%rbp), %edx	# qp_rem, tmp429
	movl	%edx, %eax	# tmp429, tmp430
	addl	%eax, %eax	# tmp430
	addl	%edx, %eax	# tmp429, tmp430
	addl	%eax, %eax	# tmp431
	subl	%eax, %ecx	# tmp430, tmp432
	movl	%ecx, %eax	# tmp432, tmp432
	movl	%eax, -88(%rbp)	# tmp432, qp_rem
	.loc 1 897 0 discriminator 4
	movl	-92(%rbp), %eax	# qp_per, tmp436
	addl	$15, %eax	#, tmp435
	movl	%eax, -84(%rbp)	# tmp435, q_bits
	.loc 1 906 0 discriminator 4
	movl	$0, -140(%rbp)	#, j
	jmp	.L204	#
.L208:
	.loc 1 908 0
	movl	$0, -144(%rbp)	#, i
	jmp	.L205	#
.L206:
	.loc 1 910 0 discriminator 2
	movl	$3, %eax	#, tmp440
	subl	-144(%rbp), %eax	# i, tmp439
	movl	%eax, -80(%rbp)	# tmp439, i1
	.loc 1 911 0 discriminator 2
	movq	img(%rip), %rax	# img, img.192
	movl	-140(%rbp), %edx	# j, tmp442
	movslq	%edx, %rdx	# tmp442, tmp441
	movl	-144(%rbp), %ecx	# i, tmp444
	movslq	%ecx, %rcx	# tmp444, tmp443
	salq	$4, %rcx	#, tmp445
	addq	%rcx, %rdx	# tmp445, tmp446
	addq	$3276, %rdx	#, tmp447
	movl	8(%rax,%rdx,4), %edx	# img.192_90->m7, D.11373
	movq	img(%rip), %rax	# img, img.193
	movl	-140(%rbp), %ecx	# j, tmp449
	movslq	%ecx, %rcx	# tmp449, tmp448
	movl	-80(%rbp), %esi	# i1, tmp451
	movslq	%esi, %rsi	# tmp451, tmp450
	salq	$4, %rsi	#, tmp452
	addq	%rsi, %rcx	# tmp452, tmp453
	addq	$3276, %rcx	#, tmp454
	movl	8(%rax,%rcx,4), %eax	# img.193_92->m7, D.11373
	addl	%eax, %edx	# D.11373, D.11373
	movl	-144(%rbp), %eax	# i, tmp456
	cltq
	movl	%edx, -48(%rbp,%rax,4)	# D.11373, m5
	.loc 1 912 0 discriminator 2
	movq	img(%rip), %rax	# img, img.194
	movl	-140(%rbp), %edx	# j, tmp458
	movslq	%edx, %rdx	# tmp458, tmp457
	movl	-144(%rbp), %ecx	# i, tmp460
	movslq	%ecx, %rcx	# tmp460, tmp459
	salq	$4, %rcx	#, tmp461
	addq	%rcx, %rdx	# tmp461, tmp462
	addq	$3276, %rdx	#, tmp463
	movl	8(%rax,%rdx,4), %edx	# img.194_95->m7, D.11373
	movq	img(%rip), %rax	# img, img.195
	movl	-140(%rbp), %ecx	# j, tmp465
	movslq	%ecx, %rcx	# tmp465, tmp464
	movl	-80(%rbp), %esi	# i1, tmp467
	movslq	%esi, %rsi	# tmp467, tmp466
	salq	$4, %rsi	#, tmp468
	addq	%rsi, %rcx	# tmp468, tmp469
	addq	$3276, %rcx	#, tmp470
	movl	8(%rax,%rcx,4), %eax	# img.195_97->m7, D.11373
	subl	%eax, %edx	# D.11373, D.11373
	movl	-80(%rbp), %eax	# i1, tmp472
	cltq
	movl	%edx, -48(%rbp,%rax,4)	# D.11373, m5
	.loc 1 908 0 discriminator 2
	addl	$1, -144(%rbp)	#, i
.L205:
	.loc 1 908 0 is_stmt 0 discriminator 1
	cmpl	$1, -144(%rbp)	#, i
	jle	.L206	#,
	.loc 1 914 0 is_stmt 1
	movq	img(%rip), %rax	# img, img.196
	movl	-48(%rbp), %ecx	# m5, D.11373
	movl	-44(%rbp), %edx	# m5, D.11373
	addl	%edx, %ecx	# D.11373, D.11373
	movl	-140(%rbp), %edx	# j, tmp474
	movslq	%edx, %rdx	# tmp474, tmp473
	addq	$3276, %rdx	#, tmp475
	movl	%ecx, 8(%rax,%rdx,4)	# D.11373, img.196_101->m7
	.loc 1 915 0
	movq	img(%rip), %rax	# img, img.197
	movl	-48(%rbp), %ecx	# m5, D.11373
	movl	-44(%rbp), %edx	# m5, D.11373
	subl	%edx, %ecx	# D.11373, D.11373
	movl	-140(%rbp), %edx	# j, tmp477
	movslq	%edx, %rdx	# tmp477, tmp476
	addq	$3308, %rdx	#, tmp478
	movl	%ecx, 8(%rax,%rdx,4)	# D.11373, img.197_105->m7
	.loc 1 916 0
	movq	img(%rip), %rax	# img, img.198
	movl	-36(%rbp), %edx	# m5, D.11373
	leal	(%rdx,%rdx), %ecx	#, D.11373
	movl	-40(%rbp), %edx	# m5, D.11373
	addl	%edx, %ecx	# D.11373, D.11373
	movl	-140(%rbp), %edx	# j, tmp480
	movslq	%edx, %rdx	# tmp480, tmp479
	addq	$3292, %rdx	#, tmp481
	movl	%ecx, 8(%rax,%rdx,4)	# D.11373, img.198_109->m7
	.loc 1 917 0
	movq	img(%rip), %rdx	# img, img.199
	movl	-36(%rbp), %ecx	# m5, D.11373
	movl	-40(%rbp), %esi	# m5, D.11373
	movl	$0, %eax	#, tmp482
	subl	%esi, %eax	# D.11373, tmp482
	addl	%eax, %eax	# tmp483
	addl	%eax, %ecx	# D.11373, D.11373
	movl	-140(%rbp), %eax	# j, tmp485
	cltq
	addq	$3324, %rax	#, tmp486
	movl	%ecx, 8(%rdx,%rax,4)	# D.11373, img.199_114->m7
	.loc 1 906 0
	addl	$1, -140(%rbp)	#, j
.L204:
	.loc 1 906 0 is_stmt 0 discriminator 1
	cmpl	$3, -140(%rbp)	#, j
	jg	.L207	#,
	.loc 1 906 0 discriminator 2
	cmpl	$0, -96(%rbp)	#, lossless_qpprime
	je	.L208	#,
.L207:
	.loc 1 921 0 is_stmt 1
	movl	$0, -144(%rbp)	#, i
	jmp	.L209	#
.L213:
	.loc 1 923 0
	movl	$0, -140(%rbp)	#, j
	jmp	.L210	#
.L211:
	.loc 1 925 0 discriminator 2
	movl	$3, %eax	#, tmp490
	subl	-140(%rbp), %eax	# j, tmp489
	movl	%eax, -76(%rbp)	# tmp489, j1
	.loc 1 926 0 discriminator 2
	movq	img(%rip), %rax	# img, img.200
	movl	-140(%rbp), %edx	# j, tmp492
	movslq	%edx, %rdx	# tmp492, tmp491
	movl	-144(%rbp), %ecx	# i, tmp494
	movslq	%ecx, %rcx	# tmp494, tmp493
	salq	$4, %rcx	#, tmp495
	addq	%rcx, %rdx	# tmp495, tmp496
	addq	$3276, %rdx	#, tmp497
	movl	8(%rax,%rdx,4), %edx	# img.200_123->m7, D.11373
	movq	img(%rip), %rax	# img, img.201
	movl	-76(%rbp), %ecx	# j1, tmp499
	movslq	%ecx, %rcx	# tmp499, tmp498
	movl	-144(%rbp), %esi	# i, tmp501
	movslq	%esi, %rsi	# tmp501, tmp500
	salq	$4, %rsi	#, tmp502
	addq	%rsi, %rcx	# tmp502, tmp503
	addq	$3276, %rcx	#, tmp504
	movl	8(%rax,%rcx,4), %eax	# img.201_125->m7, D.11373
	addl	%eax, %edx	# D.11373, D.11373
	movl	-140(%rbp), %eax	# j, tmp506
	cltq
	movl	%edx, -48(%rbp,%rax,4)	# D.11373, m5
	.loc 1 927 0 discriminator 2
	movq	img(%rip), %rax	# img, img.202
	movl	-140(%rbp), %edx	# j, tmp508
	movslq	%edx, %rdx	# tmp508, tmp507
	movl	-144(%rbp), %ecx	# i, tmp510
	movslq	%ecx, %rcx	# tmp510, tmp509
	salq	$4, %rcx	#, tmp511
	addq	%rcx, %rdx	# tmp511, tmp512
	addq	$3276, %rdx	#, tmp513
	movl	8(%rax,%rdx,4), %edx	# img.202_128->m7, D.11373
	movq	img(%rip), %rax	# img, img.203
	movl	-76(%rbp), %ecx	# j1, tmp515
	movslq	%ecx, %rcx	# tmp515, tmp514
	movl	-144(%rbp), %esi	# i, tmp517
	movslq	%esi, %rsi	# tmp517, tmp516
	salq	$4, %rsi	#, tmp518
	addq	%rsi, %rcx	# tmp518, tmp519
	addq	$3276, %rcx	#, tmp520
	movl	8(%rax,%rcx,4), %eax	# img.203_130->m7, D.11373
	subl	%eax, %edx	# D.11373, D.11373
	movl	-76(%rbp), %eax	# j1, tmp522
	cltq
	movl	%edx, -48(%rbp,%rax,4)	# D.11373, m5
	.loc 1 923 0 discriminator 2
	addl	$1, -140(%rbp)	#, j
.L210:
	.loc 1 923 0 is_stmt 0 discriminator 1
	cmpl	$1, -140(%rbp)	#, j
	jle	.L211	#,
	.loc 1 929 0 is_stmt 1
	movq	img(%rip), %rax	# img, img.204
	movl	-48(%rbp), %ecx	# m5, D.11373
	movl	-44(%rbp), %edx	# m5, D.11373
	addl	%ecx, %edx	# D.11373, D.11373
	movl	-144(%rbp), %ecx	# i, tmp524
	movslq	%ecx, %rcx	# tmp524, tmp523
	salq	$6, %rcx	#, tmp525
	addq	%rcx, %rax	# tmp525, tmp526
	addq	$13104, %rax	#, tmp527
	movl	%edx, 8(%rax)	# D.11373, img.204_134->m7
	.loc 1 930 0
	movq	img(%rip), %rax	# img, img.205
	movl	-48(%rbp), %ecx	# m5, D.11373
	movl	-44(%rbp), %edx	# m5, D.11373
	subl	%edx, %ecx	# D.11373, D.11373
	movl	%ecx, %edx	# D.11373, D.11373
	movl	-144(%rbp), %ecx	# i, tmp529
	movslq	%ecx, %rcx	# tmp529, tmp528
	salq	$6, %rcx	#, tmp530
	addq	%rcx, %rax	# tmp530, tmp531
	addq	$13112, %rax	#, tmp532
	movl	%edx, 8(%rax)	# D.11373, img.205_138->m7
	.loc 1 931 0
	movq	img(%rip), %rax	# img, img.206
	movl	-36(%rbp), %edx	# m5, D.11373
	leal	(%rdx,%rdx), %ecx	#, D.11373
	movl	-40(%rbp), %edx	# m5, D.11373
	addl	%ecx, %edx	# D.11373, D.11373
	movl	-144(%rbp), %ecx	# i, tmp534
	movslq	%ecx, %rcx	# tmp534, tmp533
	salq	$6, %rcx	#, tmp535
	addq	%rcx, %rax	# tmp535, tmp536
	addq	$13108, %rax	#, tmp537
	movl	%edx, 8(%rax)	# D.11373, img.206_142->m7
	.loc 1 932 0
	movq	img(%rip), %rcx	# img, img.207
	movl	-36(%rbp), %edx	# m5, D.11373
	movl	-40(%rbp), %esi	# m5, D.11373
	movl	$0, %eax	#, tmp538
	subl	%esi, %eax	# D.11373, tmp538
	addl	%eax, %eax	# tmp539
	addl	%eax, %edx	# D.11373, D.11373
	movl	-144(%rbp), %eax	# i, tmp541
	cltq
	salq	$6, %rax	#, tmp542
	addq	%rcx, %rax	# img.207, tmp543
	addq	$13116, %rax	#, tmp544
	movl	%edx, 8(%rax)	# D.11373, img.207_147->m7
	.loc 1 921 0
	addl	$1, -144(%rbp)	#, i
.L209:
	.loc 1 921 0 is_stmt 0 discriminator 1
	cmpl	$3, -144(%rbp)	#, i
	jg	.L212	#,
	.loc 1 921 0 discriminator 2
	cmpl	$0, -96(%rbp)	#, lossless_qpprime
	je	.L213	#,
.L212:
	.loc 1 937 0 is_stmt 1
	movl	$0, -116(%rbp)	#, nonzero
	.loc 1 939 0
	movl	$-1, -120(%rbp)	#, run
	.loc 1 940 0
	movl	$0, -124(%rbp)	#, scan_pos
	.loc 1 942 0
	movl	$0, -132(%rbp)	#, coeff_ctr
	jmp	.L214	#
.L231:
	.loc 1 945 0
	movq	img(%rip), %rax	# img, img.208
	movl	72444(%rax), %eax	# img.208_157->field_picture, D.11379
	testl	%eax, %eax	# D.11379
	jne	.L215	#,
	.loc 1 945 0 is_stmt 0 discriminator 1
	movq	img(%rip), %rax	# img, img.209
	movl	72400(%rax), %eax	# img.209_159->MbaffFrameFlag, D.11373
	testl	%eax, %eax	# D.11373
	je	.L216	#,
	movq	-56(%rbp), %rax	# currMB, tmp545
	movl	532(%rax), %eax	# currMB_66->mb_field, D.11373
	testl	%eax, %eax	# D.11373
	je	.L216	#,
.L215:
	.loc 1 947 0 is_stmt 1
	movl	-132(%rbp), %eax	# coeff_ctr, tmp547
	cltq
	movzbl	FIELD_SCAN(%rax,%rax), %eax	# FIELD_SCAN, D.11380
	movzbl	%al, %eax	# D.11380, tmp548
	movl	%eax, -144(%rbp)	# tmp548, i
	.loc 1 948 0
	movl	-132(%rbp), %eax	# coeff_ctr, tmp550
	cltq
	movzbl	FIELD_SCAN+1(%rax,%rax), %eax	# FIELD_SCAN, D.11380
	movzbl	%al, %eax	# D.11380, tmp551
	movl	%eax, -140(%rbp)	# tmp551, j
	jmp	.L217	#
.L216:
	.loc 1 952 0
	movl	-132(%rbp), %eax	# coeff_ctr, tmp553
	cltq
	movzbl	SNGL_SCAN(%rax,%rax), %eax	# SNGL_SCAN, D.11380
	movzbl	%al, %eax	# D.11380, tmp554
	movl	%eax, -144(%rbp)	# tmp554, i
	.loc 1 953 0
	movl	-132(%rbp), %eax	# coeff_ctr, tmp556
	cltq
	movzbl	SNGL_SCAN+1(%rax,%rax), %eax	# SNGL_SCAN, D.11380
	movzbl	%al, %eax	# D.11380, tmp557
	movl	%eax, -140(%rbp)	# tmp557, j
.L217:
	.loc 1 956 0
	addl	$1, -120(%rbp)	#, run
	.loc 1 957 0
	movl	$0, -136(%rbp)	#, ilev
	.loc 1 959 0
	cmpl	$0, -96(%rbp)	#, lossless_qpprime
	je	.L218	#,
	.loc 1 960 0
	movq	img(%rip), %rax	# img, img.210
	movl	-140(%rbp), %edx	# j, tmp559
	movslq	%edx, %rdx	# tmp559, tmp558
	movl	-144(%rbp), %ecx	# i, tmp561
	movslq	%ecx, %rcx	# tmp561, tmp560
	salq	$4, %rcx	#, tmp562
	addq	%rcx, %rdx	# tmp562, tmp563
	addq	$3276, %rdx	#, tmp564
	movl	8(%rax,%rdx,4), %edx	# img.210_172->m7, D.11373
	movl	%edx, %eax	# D.11373, tmp565
	sarl	$31, %eax	#, tmp565
	xorl	%eax, %edx	# tmp565, tmp566
	movl	%edx, -128(%rbp)	# tmp566, level
	subl	%eax, -128(%rbp)	# tmp565, level
	jmp	.L219	#
.L218:
	.loc 1 961 0
	cmpl	$1, -164(%rbp)	#, intra
	jne	.L220	#,
	.loc 1 962 0
	movq	img(%rip), %rax	# img, img.211
	movl	-140(%rbp), %edx	# j, tmp568
	movslq	%edx, %rdx	# tmp568, tmp567
	movl	-144(%rbp), %ecx	# i, tmp570
	movslq	%ecx, %rcx	# tmp570, tmp569
	salq	$4, %rcx	#, tmp571
	addq	%rcx, %rdx	# tmp571, tmp572
	addq	$3276, %rdx	#, tmp573
	movl	8(%rax,%rdx,4), %eax	# img.211_176->m7, D.11373
	cltd
	xorl	%edx, %eax	# tmp574, D.11373
	subl	%edx, %eax	# tmp574, D.11373
	movl	-140(%rbp), %edx	# j, tmp576
	movslq	%edx, %rdx	# tmp576, tmp575
	movl	-88(%rbp), %ecx	# qp_rem, tmp578
	movslq	%ecx, %rsi	# tmp578, tmp577
	movl	-144(%rbp), %ecx	# i, tmp580
	movslq	%ecx, %rcx	# tmp580, tmp579
	salq	$2, %rsi	#, tmp581
	addq	%rsi, %rcx	# tmp581, tmp582
	salq	$2, %rcx	#, tmp583
	addq	%rcx, %rdx	# tmp583, tmp584
	movl	LevelScale4x4Luma_Intra(,%rdx,4), %edx	# LevelScale4x4Luma_Intra, D.11373
	imull	%eax, %edx	# D.11373, D.11373
	movl	-140(%rbp), %eax	# j, tmp586
	cltq
	movl	-92(%rbp), %ecx	# qp_per, tmp588
	movslq	%ecx, %rsi	# tmp588, tmp587
	movl	-144(%rbp), %ecx	# i, tmp590
	movslq	%ecx, %rcx	# tmp590, tmp589
	salq	$2, %rsi	#, tmp591
	addq	%rsi, %rcx	# tmp591, tmp592
	salq	$2, %rcx	#, tmp593
	addq	%rcx, %rax	# tmp593, tmp594
	movl	LevelOffset4x4Luma_Intra(,%rax,4), %eax	# LevelOffset4x4Luma_Intra, D.11373
	addl	%eax, %edx	# D.11373, D.11373
	movl	-84(%rbp), %eax	# q_bits, tmp595
	movl	%eax, %ecx	# tmp595, tmp902
	sarl	%cl, %edx	# tmp902, tmp596
	movl	%edx, %eax	# tmp596, tmp596
	movl	%eax, -128(%rbp)	# tmp596, level
	jmp	.L219	#
.L220:
	.loc 1 965 0
	movq	img(%rip), %rax	# img, img.212
	movl	-140(%rbp), %edx	# j, tmp598
	movslq	%edx, %rdx	# tmp598, tmp597
	movl	-144(%rbp), %ecx	# i, tmp600
	movslq	%ecx, %rcx	# tmp600, tmp599
	salq	$4, %rcx	#, tmp601
	addq	%rcx, %rdx	# tmp601, tmp602
	addq	$3276, %rdx	#, tmp603
	movl	8(%rax,%rdx,4), %eax	# img.212_184->m7, D.11373
	cltd
	xorl	%edx, %eax	# tmp604, D.11373
	subl	%edx, %eax	# tmp604, D.11373
	movl	-140(%rbp), %edx	# j, tmp606
	movslq	%edx, %rdx	# tmp606, tmp605
	movl	-88(%rbp), %ecx	# qp_rem, tmp608
	movslq	%ecx, %rsi	# tmp608, tmp607
	movl	-144(%rbp), %ecx	# i, tmp610
	movslq	%ecx, %rcx	# tmp610, tmp609
	salq	$2, %rsi	#, tmp611
	addq	%rsi, %rcx	# tmp611, tmp612
	salq	$2, %rcx	#, tmp613
	addq	%rcx, %rdx	# tmp613, tmp614
	movl	LevelScale4x4Luma_Inter(,%rdx,4), %edx	# LevelScale4x4Luma_Inter, D.11373
	imull	%eax, %edx	# D.11373, D.11373
	movl	-140(%rbp), %eax	# j, tmp616
	cltq
	movl	-92(%rbp), %ecx	# qp_per, tmp618
	movslq	%ecx, %rsi	# tmp618, tmp617
	movl	-144(%rbp), %ecx	# i, tmp620
	movslq	%ecx, %rcx	# tmp620, tmp619
	salq	$2, %rsi	#, tmp621
	addq	%rsi, %rcx	# tmp621, tmp622
	salq	$2, %rcx	#, tmp623
	addq	%rcx, %rax	# tmp623, tmp624
	movl	LevelOffset4x4Luma_Inter(,%rax,4), %eax	# LevelOffset4x4Luma_Inter, D.11373
	addl	%eax, %edx	# D.11373, D.11373
	movl	-84(%rbp), %eax	# q_bits, tmp625
	movl	%eax, %ecx	# tmp625, tmp904
	sarl	%cl, %edx	# tmp904, tmp626
	movl	%edx, %eax	# tmp626, tmp626
	movl	%eax, -128(%rbp)	# tmp626, level
.L219:
	.loc 1 968 0
	cmpl	$0, -128(%rbp)	#, level
	je	.L221	#,
	.loc 1 970 0
	movl	$1, -116(%rbp)	#, nonzero
	.loc 1 971 0
	cmpl	$1, -128(%rbp)	#, level
	jg	.L222	#,
	.loc 1 971 0 is_stmt 0 discriminator 1
	cmpl	$0, -96(%rbp)	#, lossless_qpprime
	je	.L223	#,
.L222:
	.loc 1 972 0 is_stmt 1
	movq	-160(%rbp), %rax	# coeff_cost, tmp627
	movl	(%rax), %eax	# *coeff_cost_193(D), D.11373
	leal	999999(%rax), %edx	#, D.11373
	movq	-160(%rbp), %rax	# coeff_cost, tmp628
	movl	%edx, (%rax)	# D.11373, *coeff_cost_193(D)
	jmp	.L224	#
.L223:
	.loc 1 974 0
	movq	-160(%rbp), %rax	# coeff_cost, tmp629
	movl	(%rax), %edx	# *coeff_cost_193(D), D.11373
	movq	input(%rip), %rax	# input, input.213
	movl	2468(%rax), %ecx	# input.213_195->disthres, D.11373
	movl	-120(%rbp), %eax	# run, tmp631
	cltq
	movslq	%ecx, %rcx	# D.11373, tmp632
	salq	$4, %rcx	#, tmp633
	addq	%rcx, %rax	# tmp633, tmp634
	addq	$COEFF_COST, %rax	#, tmp635
	movzbl	(%rax), %eax	# COEFF_COST, D.11380
	movzbl	%al, %eax	# D.11380, D.11373
	addl	%eax, %edx	# D.11373, D.11373
	movq	-160(%rbp), %rax	# coeff_cost, tmp636
	movl	%edx, (%rax)	# D.11373, *coeff_cost_193(D)
.L224:
	.loc 1 975 0
	movl	-124(%rbp), %eax	# scan_pos, tmp637
	cltq
	leaq	0(,%rax,4), %rdx	#, D.11375
	movq	-72(%rbp), %rax	# ACLevel, tmp638
	leaq	(%rdx,%rax), %rbx	#, D.11381
	movq	img(%rip), %rax	# img, img.214
	movl	-140(%rbp), %edx	# j, tmp640
	movslq	%edx, %rdx	# tmp640, tmp639
	movl	-144(%rbp), %ecx	# i, tmp642
	movslq	%ecx, %rcx	# tmp642, tmp641
	salq	$4, %rcx	#, tmp643
	addq	%rcx, %rdx	# tmp643, tmp644
	addq	$3276, %rdx	#, tmp645
	movl	8(%rax,%rdx,4), %edx	# img.214_205->m7, D.11373
	movl	-128(%rbp), %eax	# level, tmp646
	movl	%edx, %esi	# D.11373,
	movl	%eax, %edi	# tmp646,
	call	sign	#
	movl	%eax, (%rbx)	# D.11373, *_204
	.loc 1 976 0
	movl	-124(%rbp), %eax	# scan_pos, tmp647
	cltq
	leaq	0(,%rax,4), %rdx	#, D.11375
	movq	-64(%rbp), %rax	# ACRun, tmp648
	addq	%rax, %rdx	# tmp648, D.11381
	movl	-120(%rbp), %eax	# run, tmp649
	movl	%eax, (%rdx)	# tmp649, *_210
	.loc 1 977 0
	addl	$1, -124(%rbp)	#, scan_pos
	.loc 1 978 0
	movl	$-1, -120(%rbp)	#, run
	.loc 1 980 0
	movq	img(%rip), %rax	# img, img.215
	movl	-140(%rbp), %edx	# j, tmp651
	movslq	%edx, %rdx	# tmp651, tmp650
	movl	-144(%rbp), %ecx	# i, tmp653
	movslq	%ecx, %rcx	# tmp653, tmp652
	salq	$4, %rcx	#, tmp654
	addq	%rcx, %rdx	# tmp654, tmp655
	addq	$3276, %rdx	#, tmp656
	movl	8(%rax,%rdx,4), %edx	# img.215_213->m7, D.11373
	movl	-128(%rbp), %eax	# level, tmp657
	movl	%edx, %esi	# D.11373,
	movl	%eax, %edi	# tmp657,
	call	sign	#
	movl	%eax, -128(%rbp)	# tmp658, level
	.loc 1 981 0
	cmpl	$0, -96(%rbp)	#, lossless_qpprime
	je	.L225	#,
	.loc 1 983 0
	movl	-128(%rbp), %eax	# level, tmp659
	movl	%eax, -136(%rbp)	# tmp659, ilev
	jmp	.L221	#
.L225:
	.loc 1 985 0
	cmpl	$3, -92(%rbp)	#, qp_per
	jg	.L226	#,
	.loc 1 987 0
	cmpl	$1, -164(%rbp)	#, intra
	jne	.L227	#,
	.loc 1 988 0
	movl	-140(%rbp), %eax	# j, tmp661
	cltq
	movl	-88(%rbp), %edx	# qp_rem, tmp663
	movslq	%edx, %rcx	# tmp663, tmp662
	movl	-144(%rbp), %edx	# i, tmp665
	movslq	%edx, %rdx	# tmp665, tmp664
	salq	$2, %rcx	#, tmp666
	addq	%rcx, %rdx	# tmp666, tmp667
	salq	$2, %rdx	#, tmp668
	addq	%rdx, %rax	# tmp668, tmp669
	movl	InvLevelScale4x4Luma_Intra(,%rax,4), %eax	# InvLevelScale4x4Luma_Intra, D.11373
	imull	-128(%rbp), %eax	# level, D.11373
	movl	%eax, %edx	# D.11373, D.11373
	movl	$3, %eax	#, tmp670
	subl	-92(%rbp), %eax	# qp_per, D.11373
	movl	$1, %esi	#, tmp671
	movl	%eax, %ecx	# D.11373, tmp907
	sall	%cl, %esi	# tmp907, D.11373
	movl	%esi, %eax	# D.11373, D.11373
	addl	%eax, %edx	# D.11373, D.11373
	movl	$4, %eax	#, tmp672
	subl	-92(%rbp), %eax	# qp_per, D.11373
	movl	%eax, %ecx	# D.11373, tmp909
	sarl	%cl, %edx	# tmp909, tmp673
	movl	%edx, %eax	# tmp673, tmp673
	movl	%eax, -136(%rbp)	# tmp673, ilev
	jmp	.L221	#
.L227:
	.loc 1 990 0
	movl	-140(%rbp), %eax	# j, tmp675
	cltq
	movl	-88(%rbp), %edx	# qp_rem, tmp677
	movslq	%edx, %rcx	# tmp677, tmp676
	movl	-144(%rbp), %edx	# i, tmp679
	movslq	%edx, %rdx	# tmp679, tmp678
	salq	$2, %rcx	#, tmp680
	addq	%rcx, %rdx	# tmp680, tmp681
	salq	$2, %rdx	#, tmp682
	addq	%rdx, %rax	# tmp682, tmp683
	movl	InvLevelScale4x4Luma_Inter(,%rax,4), %eax	# InvLevelScale4x4Luma_Inter, D.11373
	imull	-128(%rbp), %eax	# level, D.11373
	movl	%eax, %edx	# D.11373, D.11373
	movl	$3, %eax	#, tmp684
	subl	-92(%rbp), %eax	# qp_per, D.11373
	movl	$1, %esi	#, tmp685
	movl	%eax, %ecx	# D.11373, tmp912
	sall	%cl, %esi	# tmp912, D.11373
	movl	%esi, %eax	# D.11373, D.11373
	addl	%eax, %edx	# D.11373, D.11373
	movl	$4, %eax	#, tmp686
	subl	-92(%rbp), %eax	# qp_per, D.11373
	movl	%eax, %ecx	# D.11373, tmp914
	sarl	%cl, %edx	# tmp914, tmp687
	movl	%edx, %eax	# tmp687, tmp687
	movl	%eax, -136(%rbp)	# tmp687, ilev
	jmp	.L221	#
.L226:
	.loc 1 994 0
	cmpl	$1, -164(%rbp)	#, intra
	jne	.L229	#,
	.loc 1 995 0
	movl	-140(%rbp), %eax	# j, tmp689
	cltq
	movl	-88(%rbp), %edx	# qp_rem, tmp691
	movslq	%edx, %rcx	# tmp691, tmp690
	movl	-144(%rbp), %edx	# i, tmp693
	movslq	%edx, %rdx	# tmp693, tmp692
	salq	$2, %rcx	#, tmp694
	addq	%rcx, %rdx	# tmp694, tmp695
	salq	$2, %rdx	#, tmp696
	addq	%rdx, %rax	# tmp696, tmp697
	movl	InvLevelScale4x4Luma_Intra(,%rax,4), %eax	# InvLevelScale4x4Luma_Intra, D.11373
	imull	-128(%rbp), %eax	# level, D.11373
	movl	%eax, %edx	# D.11373, D.11373
	movl	-92(%rbp), %eax	# qp_per, tmp698
	subl	$4, %eax	#, D.11373
	movl	%eax, %ecx	# D.11373, tmp917
	sall	%cl, %edx	# tmp917, tmp699
	movl	%edx, %eax	# tmp699, tmp699
	movl	%eax, -136(%rbp)	# tmp699, ilev
	jmp	.L221	#
.L229:
	.loc 1 997 0
	movl	-140(%rbp), %eax	# j, tmp701
	cltq
	movl	-88(%rbp), %edx	# qp_rem, tmp703
	movslq	%edx, %rcx	# tmp703, tmp702
	movl	-144(%rbp), %edx	# i, tmp705
	movslq	%edx, %rdx	# tmp705, tmp704
	salq	$2, %rcx	#, tmp706
	addq	%rcx, %rdx	# tmp706, tmp707
	salq	$2, %rdx	#, tmp708
	addq	%rdx, %rax	# tmp708, tmp709
	movl	InvLevelScale4x4Luma_Inter(,%rax,4), %eax	# InvLevelScale4x4Luma_Inter, D.11373
	imull	-128(%rbp), %eax	# level, D.11373
	movl	%eax, %edx	# D.11373, D.11373
	movl	-92(%rbp), %eax	# qp_per, tmp710
	subl	$4, %eax	#, D.11373
	movl	%eax, %ecx	# D.11373, tmp920
	sall	%cl, %edx	# tmp920, tmp711
	movl	%edx, %eax	# tmp711, tmp711
	movl	%eax, -136(%rbp)	# tmp711, ilev
.L221:
	.loc 1 1000 0
	cmpl	$0, -96(%rbp)	#, lossless_qpprime
	jne	.L230	#,
	.loc 1 1001 0
	movq	img(%rip), %rax	# img, img.216
	movl	-140(%rbp), %edx	# j, tmp713
	movslq	%edx, %rdx	# tmp713, tmp712
	movl	-144(%rbp), %ecx	# i, tmp715
	movslq	%ecx, %rcx	# tmp715, tmp714
	salq	$4, %rcx	#, tmp716
	addq	%rcx, %rdx	# tmp716, tmp717
	leaq	3276(%rdx), %rcx	#, tmp718
	movl	-136(%rbp), %edx	# ilev, tmp719
	movl	%edx, 8(%rax,%rcx,4)	# tmp719, img.216_239->m7
.L230:
	.loc 1 942 0
	addl	$1, -132(%rbp)	#, coeff_ctr
.L214:
	.loc 1 942 0 is_stmt 0 discriminator 1
	cmpl	$15, -132(%rbp)	#, coeff_ctr
	jle	.L231	#,
	.loc 1 1003 0 is_stmt 1
	movl	-124(%rbp), %eax	# scan_pos, tmp720
	cltq
	leaq	0(,%rax,4), %rdx	#, D.11375
	movq	-72(%rbp), %rax	# ACLevel, tmp721
	addq	%rdx, %rax	# D.11375, D.11381
	movl	$0, (%rax)	#, *_243
	.loc 1 1008 0
	movl	$0, -140(%rbp)	#, j
	jmp	.L232	#
.L238:
	.loc 1 1010 0
	movl	$0, -144(%rbp)	#, i
	jmp	.L233	#
.L234:
	.loc 1 1012 0 discriminator 2
	movq	img(%rip), %rax	# img, img.217
	movl	-140(%rbp), %edx	# j, tmp723
	movslq	%edx, %rdx	# tmp723, tmp722
	movl	-144(%rbp), %ecx	# i, tmp725
	movslq	%ecx, %rcx	# tmp725, tmp724
	salq	$4, %rcx	#, tmp726
	addq	%rcx, %rdx	# tmp726, tmp727
	addq	$3276, %rdx	#, tmp728
	movl	8(%rax,%rdx,4), %edx	# img.217_246->m7, D.11373
	movl	-144(%rbp), %eax	# i, tmp730
	cltq
	movl	%edx, -48(%rbp,%rax,4)	# D.11373, m5
	.loc 1 1010 0 discriminator 2
	addl	$1, -144(%rbp)	#, i
.L233:
	.loc 1 1010 0 is_stmt 0 discriminator 1
	cmpl	$3, -144(%rbp)	#, i
	jle	.L234	#,
	.loc 1 1014 0 is_stmt 1
	movl	-48(%rbp), %edx	# m5, D.11373
	movl	-40(%rbp), %eax	# m5, D.11373
	addl	%edx, %eax	# D.11373, D.11373
	movl	%eax, -32(%rbp)	# D.11373, m6
	.loc 1 1015 0
	movl	-48(%rbp), %edx	# m5, D.11373
	movl	-40(%rbp), %eax	# m5, D.11373
	subl	%eax, %edx	# D.11373, D.11373
	movl	%edx, %eax	# D.11373, D.11373
	movl	%eax, -28(%rbp)	# D.11373, m6
	.loc 1 1016 0
	movl	-44(%rbp), %eax	# m5, D.11373
	sarl	%eax	# D.11373
	movl	%eax, %edx	# D.11373, D.11373
	movl	-36(%rbp), %eax	# m5, D.11373
	subl	%eax, %edx	# D.11373, D.11373
	movl	%edx, %eax	# D.11373, D.11373
	movl	%eax, -24(%rbp)	# D.11373, m6
	.loc 1 1017 0
	movl	-44(%rbp), %eax	# m5, D.11373
	movl	-36(%rbp), %edx	# m5, D.11373
	sarl	%edx	# D.11373
	addl	%edx, %eax	# D.11373, D.11373
	movl	%eax, -20(%rbp)	# D.11373, m6
	.loc 1 1019 0
	movl	$0, -144(%rbp)	#, i
	jmp	.L235	#
.L236:
	.loc 1 1021 0 discriminator 2
	movl	$3, %eax	#, tmp734
	subl	-144(%rbp), %eax	# i, tmp733
	movl	%eax, -80(%rbp)	# tmp733, i1
	.loc 1 1022 0 discriminator 2
	movq	img(%rip), %rax	# img, img.218
	movl	-144(%rbp), %edx	# i, tmp736
	movslq	%edx, %rdx	# tmp736, tmp735
	movl	-32(%rbp,%rdx,4), %ecx	# m6, D.11373
	movl	-80(%rbp), %edx	# i1, tmp738
	movslq	%edx, %rdx	# tmp738, tmp737
	movl	-32(%rbp,%rdx,4), %edx	# m6, D.11373
	addl	%edx, %ecx	# D.11373, D.11373
	movl	-140(%rbp), %edx	# j, tmp740
	movslq	%edx, %rdx	# tmp740, tmp739
	movl	-144(%rbp), %esi	# i, tmp742
	movslq	%esi, %rsi	# tmp742, tmp741
	salq	$4, %rsi	#, tmp743
	addq	%rsi, %rdx	# tmp743, tmp744
	addq	$3276, %rdx	#, tmp745
	movl	%ecx, 8(%rax,%rdx,4)	# D.11373, img.218_265->m7
	.loc 1 1023 0 discriminator 2
	movq	img(%rip), %rax	# img, img.219
	movl	-144(%rbp), %edx	# i, tmp747
	movslq	%edx, %rdx	# tmp747, tmp746
	movl	-32(%rbp,%rdx,4), %ecx	# m6, D.11373
	movl	-80(%rbp), %edx	# i1, tmp749
	movslq	%edx, %rdx	# tmp749, tmp748
	movl	-32(%rbp,%rdx,4), %edx	# m6, D.11373
	subl	%edx, %ecx	# D.11373, D.11373
	movl	-140(%rbp), %edx	# j, tmp751
	movslq	%edx, %rdx	# tmp751, tmp750
	movl	-80(%rbp), %esi	# i1, tmp753
	movslq	%esi, %rsi	# tmp753, tmp752
	salq	$4, %rsi	#, tmp754
	addq	%rsi, %rdx	# tmp754, tmp755
	addq	$3276, %rdx	#, tmp756
	movl	%ecx, 8(%rax,%rdx,4)	# D.11373, img.219_269->m7
	.loc 1 1019 0 discriminator 2
	addl	$1, -144(%rbp)	#, i
.L235:
	.loc 1 1019 0 is_stmt 0 discriminator 1
	cmpl	$1, -144(%rbp)	#, i
	jle	.L236	#,
	.loc 1 1008 0 is_stmt 1
	addl	$1, -140(%rbp)	#, j
.L232:
	.loc 1 1008 0 is_stmt 0 discriminator 1
	cmpl	$3, -140(%rbp)	#, j
	jg	.L237	#,
	.loc 1 1008 0 discriminator 2
	cmpl	$0, -96(%rbp)	#, lossless_qpprime
	je	.L238	#,
.L237:
	.loc 1 1028 0 is_stmt 1
	movl	$0, -144(%rbp)	#, i
	jmp	.L239	#
.L248:
	.loc 1 1030 0
	movl	$0, -140(%rbp)	#, j
	jmp	.L240	#
.L241:
	.loc 1 1032 0 discriminator 2
	movq	img(%rip), %rax	# img, img.220
	movl	-140(%rbp), %edx	# j, tmp758
	movslq	%edx, %rdx	# tmp758, tmp757
	movl	-144(%rbp), %ecx	# i, tmp760
	movslq	%ecx, %rcx	# tmp760, tmp759
	salq	$4, %rcx	#, tmp761
	addq	%rcx, %rdx	# tmp761, tmp762
	addq	$3276, %rdx	#, tmp763
	movl	8(%rax,%rdx,4), %edx	# img.220_277->m7, D.11373
	movl	-140(%rbp), %eax	# j, tmp765
	cltq
	movl	%edx, -48(%rbp,%rax,4)	# D.11373, m5
	.loc 1 1030 0 discriminator 2
	addl	$1, -140(%rbp)	#, j
.L240:
	.loc 1 1030 0 is_stmt 0 discriminator 1
	cmpl	$3, -140(%rbp)	#, j
	jle	.L241	#,
	.loc 1 1034 0 is_stmt 1
	movl	-48(%rbp), %edx	# m5, D.11373
	movl	-40(%rbp), %eax	# m5, D.11373
	addl	%edx, %eax	# D.11373, D.11373
	movl	%eax, -32(%rbp)	# D.11373, m6
	.loc 1 1035 0
	movl	-48(%rbp), %edx	# m5, D.11373
	movl	-40(%rbp), %eax	# m5, D.11373
	subl	%eax, %edx	# D.11373, D.11373
	movl	%edx, %eax	# D.11373, D.11373
	movl	%eax, -28(%rbp)	# D.11373, m6
	.loc 1 1036 0
	movl	-44(%rbp), %eax	# m5, D.11373
	sarl	%eax	# D.11373
	movl	%eax, %edx	# D.11373, D.11373
	movl	-36(%rbp), %eax	# m5, D.11373
	subl	%eax, %edx	# D.11373, D.11373
	movl	%edx, %eax	# D.11373, D.11373
	movl	%eax, -24(%rbp)	# D.11373, m6
	.loc 1 1037 0
	movl	-44(%rbp), %eax	# m5, D.11373
	movl	-36(%rbp), %edx	# m5, D.11373
	sarl	%edx	# D.11373
	addl	%edx, %eax	# D.11373, D.11373
	movl	%eax, -20(%rbp)	# D.11373, m6
	.loc 1 1039 0
	movl	$0, -140(%rbp)	#, j
	jmp	.L242	#
.L246:
	.loc 1 1041 0
	movl	$3, %eax	#, tmp769
	subl	-140(%rbp), %eax	# j, tmp768
	movl	%eax, -76(%rbp)	# tmp768, j1
	.loc 1 1043 0
	movq	img(%rip), %rax	# img, img.221
	movl	72724(%rax), %eax	# img.221_296->residue_transform_flag, D.11373
	testl	%eax, %eax	# D.11373
	jne	.L243	#,
	.loc 1 1045 0
	movq	img(%rip), %rcx	# img, img.222
	movl	-140(%rbp), %eax	# j, tmp771
	cltq
	movl	-32(%rbp,%rax,4), %edx	# m6, D.11373
	movl	-76(%rbp), %eax	# j1, tmp773
	cltq
	movl	-32(%rbp,%rax,4), %eax	# m6, D.11373
	addl	%edx, %eax	# D.11373, D.11373
	movslq	%eax, %rdx	# D.11373, D.11382
	movq	img(%rip), %rax	# img, img.223
	movl	-148(%rbp), %esi	# block_x, tmp774
	movl	-144(%rbp), %edi	# i, tmp775
	leal	(%rdi,%rsi), %r8d	#, D.11373
	movl	-152(%rbp), %esi	# block_y, tmp776
	movl	-140(%rbp), %edi	# j, tmp777
	addl	%edi, %esi	# tmp777, D.11373
	movslq	%esi, %rsi	# D.11373, tmp778
	movslq	%r8d, %rdi	# D.11373, tmp779
	salq	$4, %rdi	#, tmp780
	addq	%rdi, %rsi	# tmp780, tmp781
	addq	$6296, %rsi	#, tmp782
	movzwl	8(%rax,%rsi,2), %eax	# img.223_303->mpr, D.11383
	movzwl	%ax, %eax	# D.11383, D.11382
	salq	$6, %rax	#, D.11382
	addq	%rdx, %rax	# D.11382, D.11382
	addq	$32, %rax	#, D.11382
	sarq	$6, %rax	#, D.11382
	movl	$0, %edx	#, tmp783
	testq	%rax, %rax	# D.11382
	cmovns	%rax, %rdx	# D.11382,, D.11382
	movq	img(%rip), %rax	# img, img.224
	movl	72684(%rax), %eax	# img.224_313->max_imgpel_value, D.11373
	cltq
	cmpq	%rax, %rdx	# D.11382, D.11382
	cmovle	%rdx, %rax	# D.11382,, D.11382
	movl	-140(%rbp), %edx	# j, tmp785
	movslq	%edx, %rdx	# tmp785, tmp784
	movl	-144(%rbp), %esi	# i, tmp787
	movslq	%esi, %rsi	# tmp787, tmp786
	salq	$4, %rsi	#, tmp788
	addq	%rsi, %rdx	# tmp788, tmp789
	addq	$3276, %rdx	#, tmp790
	movl	%eax, 8(%rcx,%rdx,4)	# D.11373, img.222_298->m7
	.loc 1 1046 0
	movq	img(%rip), %rcx	# img, img.225
	movl	-140(%rbp), %eax	# j, tmp792
	cltq
	movl	-32(%rbp,%rax,4), %edx	# m6, D.11373
	movl	-76(%rbp), %eax	# j1, tmp794
	cltq
	movl	-32(%rbp,%rax,4), %eax	# m6, D.11373
	subl	%eax, %edx	# D.11373, D.11373
	movl	%edx, %eax	# D.11373, D.11373
	movslq	%eax, %rdx	# D.11373, D.11382
	movq	img(%rip), %rax	# img, img.226
	movl	-148(%rbp), %esi	# block_x, tmp795
	movl	-144(%rbp), %edi	# i, tmp796
	leal	(%rdi,%rsi), %r8d	#, D.11373
	movl	-152(%rbp), %esi	# block_y, tmp797
	movl	-76(%rbp), %edi	# j1, tmp798
	addl	%edi, %esi	# tmp798, D.11373
	movslq	%esi, %rsi	# D.11373, tmp799
	movslq	%r8d, %rdi	# D.11373, tmp800
	salq	$4, %rdi	#, tmp801
	addq	%rdi, %rsi	# tmp801, tmp802
	addq	$6296, %rsi	#, tmp803
	movzwl	8(%rax,%rsi,2), %eax	# img.226_323->mpr, D.11383
	movzwl	%ax, %eax	# D.11383, D.11382
	salq	$6, %rax	#, D.11382
	addq	%rdx, %rax	# D.11382, D.11382
	addq	$32, %rax	#, D.11382
	sarq	$6, %rax	#, D.11382
	movl	$0, %edx	#, tmp804
	testq	%rax, %rax	# D.11382
	cmovns	%rax, %rdx	# D.11382,, D.11382
	movq	img(%rip), %rax	# img, img.227
	movl	72684(%rax), %eax	# img.227_333->max_imgpel_value, D.11373
	cltq
	cmpq	%rax, %rdx	# D.11382, D.11382
	cmovle	%rdx, %rax	# D.11382,, D.11382
	movl	-76(%rbp), %edx	# j1, tmp806
	movslq	%edx, %rdx	# tmp806, tmp805
	movl	-144(%rbp), %esi	# i, tmp808
	movslq	%esi, %rsi	# tmp808, tmp807
	salq	$4, %rsi	#, tmp809
	addq	%rsi, %rdx	# tmp809, tmp810
	addq	$3276, %rdx	#, tmp811
	movl	%eax, 8(%rcx,%rdx,4)	# D.11373, img.225_318->m7
	jmp	.L244	#
.L243:
	.loc 1 1050 0
	cmpl	$0, -96(%rbp)	#, lossless_qpprime
	je	.L245	#,
	.loc 1 1052 0
	movq	img(%rip), %rax	# img, img.228
	movl	-140(%rbp), %edx	# j, tmp813
	movslq	%edx, %rdx	# tmp813, tmp812
	movl	-32(%rbp,%rdx,4), %ecx	# m6, D.11373
	movl	-76(%rbp), %edx	# j1, tmp815
	movslq	%edx, %rdx	# tmp815, tmp814
	movl	-32(%rbp,%rdx,4), %edx	# m6, D.11373
	addl	%edx, %ecx	# D.11373, D.11373
	movl	-140(%rbp), %edx	# j, tmp817
	movslq	%edx, %rdx	# tmp817, tmp816
	movl	-144(%rbp), %esi	# i, tmp819
	movslq	%esi, %rsi	# tmp819, tmp818
	salq	$4, %rsi	#, tmp820
	addq	%rsi, %rdx	# tmp820, tmp821
	addq	$3276, %rdx	#, tmp822
	movl	%ecx, 8(%rax,%rdx,4)	# D.11373, img.228_338->m7
	.loc 1 1053 0
	movq	img(%rip), %rax	# img, img.229
	movl	-140(%rbp), %edx	# j, tmp824
	movslq	%edx, %rdx	# tmp824, tmp823
	movl	-32(%rbp,%rdx,4), %ecx	# m6, D.11373
	movl	-76(%rbp), %edx	# j1, tmp826
	movslq	%edx, %rdx	# tmp826, tmp825
	movl	-32(%rbp,%rdx,4), %edx	# m6, D.11373
	subl	%edx, %ecx	# D.11373, D.11373
	movl	-76(%rbp), %edx	# j1, tmp828
	movslq	%edx, %rdx	# tmp828, tmp827
	movl	-144(%rbp), %esi	# i, tmp830
	movslq	%esi, %rsi	# tmp830, tmp829
	salq	$4, %rsi	#, tmp831
	addq	%rsi, %rdx	# tmp831, tmp832
	addq	$3276, %rdx	#, tmp833
	movl	%ecx, 8(%rax,%rdx,4)	# D.11373, img.229_342->m7
	jmp	.L244	#
.L245:
	.loc 1 1057 0
	movq	img(%rip), %rax	# img, img.230
	movl	-140(%rbp), %edx	# j, tmp835
	movslq	%edx, %rdx	# tmp835, tmp834
	movl	-32(%rbp,%rdx,4), %ecx	# m6, D.11373
	movl	-76(%rbp), %edx	# j1, tmp837
	movslq	%edx, %rdx	# tmp837, tmp836
	movl	-32(%rbp,%rdx,4), %edx	# m6, D.11373
	addl	%ecx, %edx	# D.11373, D.11373
	addl	$32, %edx	#, D.11373
	movl	%edx, %ecx	# D.11373, D.11373
	sarl	$6, %ecx	#, D.11373
	movl	-140(%rbp), %edx	# j, tmp839
	movslq	%edx, %rdx	# tmp839, tmp838
	movl	-144(%rbp), %esi	# i, tmp841
	movslq	%esi, %rsi	# tmp841, tmp840
	salq	$4, %rsi	#, tmp842
	addq	%rsi, %rdx	# tmp842, tmp843
	addq	$3276, %rdx	#, tmp844
	movl	%ecx, 8(%rax,%rdx,4)	# D.11373, img.230_346->m7
	.loc 1 1058 0
	movq	img(%rip), %rax	# img, img.231
	movl	-140(%rbp), %edx	# j, tmp846
	movslq	%edx, %rdx	# tmp846, tmp845
	movl	-32(%rbp,%rdx,4), %ecx	# m6, D.11373
	movl	-76(%rbp), %edx	# j1, tmp848
	movslq	%edx, %rdx	# tmp848, tmp847
	movl	-32(%rbp,%rdx,4), %edx	# m6, D.11373
	subl	%edx, %ecx	# D.11373, D.11373
	movl	%ecx, %edx	# D.11373, D.11373
	addl	$32, %edx	#, D.11373
	movl	%edx, %ecx	# D.11373, D.11373
	sarl	$6, %ecx	#, D.11373
	movl	-76(%rbp), %edx	# j1, tmp850
	movslq	%edx, %rdx	# tmp850, tmp849
	movl	-144(%rbp), %esi	# i, tmp852
	movslq	%esi, %rsi	# tmp852, tmp851
	salq	$4, %rsi	#, tmp853
	addq	%rsi, %rdx	# tmp853, tmp854
	addq	$3276, %rdx	#, tmp855
	movl	%ecx, 8(%rax,%rdx,4)	# D.11373, img.231_352->m7
.L244:
	.loc 1 1039 0
	addl	$1, -140(%rbp)	#, j
.L242:
	.loc 1 1039 0 is_stmt 0 discriminator 1
	cmpl	$1, -140(%rbp)	#, j
	jle	.L246	#,
	.loc 1 1028 0 is_stmt 1
	addl	$1, -144(%rbp)	#, i
.L239:
	.loc 1 1028 0 is_stmt 0 discriminator 1
	cmpl	$3, -144(%rbp)	#, i
	jg	.L247	#,
	.loc 1 1028 0 discriminator 2
	cmpl	$0, -96(%rbp)	#, lossless_qpprime
	je	.L248	#,
.L247:
	.loc 1 1065 0 is_stmt 1
	movq	img(%rip), %rax	# img, img.232
	movl	72724(%rax), %eax	# img.232_360->residue_transform_flag, D.11373
	testl	%eax, %eax	# D.11373
	jne	.L249	#,
	.loc 1 1067 0
	movl	$0, -140(%rbp)	#, j
	jmp	.L250	#
.L255:
	.loc 1 1069 0
	movl	$0, -144(%rbp)	#, i
	jmp	.L251	#
.L254:
	.loc 1 1071 0
	cmpl	$0, -96(%rbp)	#, lossless_qpprime
	je	.L252	#,
	.loc 1 1072 0
	movq	enc_picture(%rip), %rax	# enc_picture, enc_picture.233
	movq	6424(%rax), %rdx	# enc_picture.233_364->imgY, D.11384
	movq	img(%rip), %rax	# img, img.234
	movl	156(%rax), %ecx	# img.234_366->pix_y, D.11373
	movl	-152(%rbp), %eax	# block_y, tmp856
	addl	%eax, %ecx	# tmp856, D.11373
	movl	-140(%rbp), %eax	# j, tmp857
	addl	%ecx, %eax	# D.11373, D.11373
	cltq
	salq	$3, %rax	#, D.11375
	addq	%rdx, %rax	# D.11384, D.11384
	movq	(%rax), %rdx	# *_372, D.11385
	movq	img(%rip), %rax	# img, img.235
	movl	152(%rax), %ecx	# img.235_374->pix_x, D.11373
	movl	-148(%rbp), %eax	# block_x, tmp858
	addl	%eax, %ecx	# tmp858, D.11373
	movl	-144(%rbp), %eax	# i, tmp859
	addl	%ecx, %eax	# D.11373, D.11373
	cltq
	addq	%rax, %rax	# D.11375
	addq	%rax, %rdx	# D.11375, D.11385
	movq	img(%rip), %rax	# img, img.236
	movl	-140(%rbp), %ecx	# j, tmp861
	movslq	%ecx, %rcx	# tmp861, tmp860
	movl	-144(%rbp), %esi	# i, tmp863
	movslq	%esi, %rsi	# tmp863, tmp862
	salq	$4, %rsi	#, tmp864
	addq	%rsi, %rcx	# tmp864, tmp865
	addq	$3276, %rcx	#, tmp866
	movl	8(%rax,%rcx,4), %eax	# img.236_381->m7, D.11373
	movl	%eax, %ecx	# D.11373, D.11383
	movq	img(%rip), %rax	# img, img.237
	movl	-148(%rbp), %esi	# block_x, tmp867
	movl	-144(%rbp), %edi	# i, tmp868
	leal	(%rdi,%rsi), %r8d	#, D.11373
	movl	-152(%rbp), %esi	# block_y, tmp869
	movl	-140(%rbp), %edi	# j, tmp870
	addl	%edi, %esi	# tmp870, D.11373
	movslq	%esi, %rsi	# D.11373, tmp871
	movslq	%r8d, %rdi	# D.11373, tmp872
	salq	$4, %rdi	#, tmp873
	addq	%rdi, %rsi	# tmp873, tmp874
	addq	$6296, %rsi	#, tmp875
	movzwl	8(%rax,%rsi,2), %eax	# img.237_384->mpr, D.11383
	addl	%ecx, %eax	# D.11383, D.11383
	movw	%ax, (%rdx)	# D.11383, *_380
	jmp	.L253	#
.L252:
	.loc 1 1074 0
	movq	enc_picture(%rip), %rax	# enc_picture, enc_picture.238
	movq	6424(%rax), %rdx	# enc_picture.238_389->imgY, D.11384
	movq	img(%rip), %rax	# img, img.239
	movl	156(%rax), %ecx	# img.239_391->pix_y, D.11373
	movl	-152(%rbp), %eax	# block_y, tmp876
	addl	%eax, %ecx	# tmp876, D.11373
	movl	-140(%rbp), %eax	# j, tmp877
	addl	%ecx, %eax	# D.11373, D.11373
	cltq
	salq	$3, %rax	#, D.11375
	addq	%rdx, %rax	# D.11384, D.11384
	movq	(%rax), %rdx	# *_397, D.11385
	movq	img(%rip), %rax	# img, img.240
	movl	152(%rax), %ecx	# img.240_399->pix_x, D.11373
	movl	-148(%rbp), %eax	# block_x, tmp878
	addl	%eax, %ecx	# tmp878, D.11373
	movl	-144(%rbp), %eax	# i, tmp879
	addl	%ecx, %eax	# D.11373, D.11373
	cltq
	addq	%rax, %rax	# D.11375
	addq	%rax, %rdx	# D.11375, D.11385
	movq	img(%rip), %rax	# img, img.241
	movl	-140(%rbp), %ecx	# j, tmp881
	movslq	%ecx, %rcx	# tmp881, tmp880
	movl	-144(%rbp), %esi	# i, tmp883
	movslq	%esi, %rsi	# tmp883, tmp882
	salq	$4, %rsi	#, tmp884
	addq	%rsi, %rcx	# tmp884, tmp885
	addq	$3276, %rcx	#, tmp886
	movl	8(%rax,%rcx,4), %eax	# img.241_406->m7, D.11373
	movw	%ax, (%rdx)	# D.11383, *_405
.L253:
	.loc 1 1069 0
	addl	$1, -144(%rbp)	#, i
.L251:
	.loc 1 1069 0 is_stmt 0 discriminator 1
	cmpl	$3, -144(%rbp)	#, i
	jle	.L254	#,
	.loc 1 1067 0 is_stmt 1
	addl	$1, -140(%rbp)	#, j
.L250:
	.loc 1 1067 0 is_stmt 0 discriminator 1
	cmpl	$3, -140(%rbp)	#, j
	jle	.L255	#,
.L249:
	.loc 1 1078 0 is_stmt 1
	movl	-116(%rbp), %eax	# nonzero, D.11373
	.loc 1 1079 0
	addq	$168, %rsp	#,
	popq	%rbx	#
	popq	%rbp	#
	.cfi_def_cfa 7, 8
	ret
	.cfi_endproc
.LFE5:
	.size	dct_luma, .-dct_luma
	.globl	dct_chroma
	.type	dct_chroma, @function
dct_chroma:
.LFB6:
	.loc 1 1099 0
	.cfi_startproc
	pushq	%rbp	#
	.cfi_def_cfa_offset 16
	.cfi_offset 6, -16
	movq	%rsp, %rbp	#,
	.cfi_def_cfa_register 6
	pushq	%rbx	#
	subq	$392, %rsp	#,
	.cfi_offset 3, -24
	movl	%edi, -388(%rbp)	# uv, uv
	movl	%esi, -392(%rbp)	# cr_cbp, cr_cbp
	.loc 1 1104 0
	movl	$0, -336(%rbp)	#, DCcoded
	.loc 1 1105 0
	movq	img(%rip), %rax	# img, img.242
	movq	14168(%rax), %rdx	# img.242_107->mb_data, D.11387
	movq	img(%rip), %rax	# img, img.243
	movl	12(%rax), %eax	# img.243_109->current_mb_nr, D.11388
	cltq
	imulq	$632, %rax, %rax	#, D.11389, D.11389
	addq	%rdx, %rax	# D.11387, tmp1128
	movq	%rax, -264(%rbp)	# tmp1128, currMB
	.loc 1 1111 0
	movq	img(%rip), %rax	# img, img.244
	movq	14144(%rax), %rax	# img.244_114->cofDC, D.11390
	movl	-388(%rbp), %edx	# uv, tmp1129
	movslq	%edx, %rdx	# tmp1129, D.11391
	addq	$1, %rdx	#, D.11391
	salq	$3, %rdx	#, D.11391
	addq	%rdx, %rax	# D.11391, D.11390
	movq	(%rax), %rax	# *_120, D.11392
	movq	(%rax), %rax	# *_121, tmp1130
	movq	%rax, -256(%rbp)	# tmp1130, DCLevel
	.loc 1 1112 0
	movq	img(%rip), %rax	# img, img.245
	movq	14144(%rax), %rax	# img.245_123->cofDC, D.11390
	movl	-388(%rbp), %edx	# uv, tmp1131
	movslq	%edx, %rdx	# tmp1131, D.11391
	addq	$1, %rdx	#, D.11391
	salq	$3, %rdx	#, D.11391
	addq	%rdx, %rax	# D.11391, D.11390
	movq	(%rax), %rax	# *_128, D.11392
	movq	8(%rax), %rax	# MEM[(int * *)_129 + 8B], tmp1132
	movq	%rax, -248(%rbp)	# tmp1132, DCRun
	.loc 1 1115 0
	movq	-264(%rbp), %rax	# currMB, tmp1133
	movl	72(%rax), %eax	# currMB_113->mb_type, D.11388
	cmpl	$9, %eax	#, D.11388
	je	.L258	#,
	.loc 1 1115 0 is_stmt 0 discriminator 2
	movq	-264(%rbp), %rax	# currMB, tmp1134
	movl	72(%rax), %eax	# currMB_113->mb_type, D.11388
	cmpl	$10, %eax	#, D.11388
	je	.L258	#,
	.loc 1 1115 0 discriminator 1
	movq	-264(%rbp), %rax	# currMB, tmp1135
	movl	72(%rax), %eax	# currMB_113->mb_type, D.11388
	cmpl	$13, %eax	#, D.11388
	jne	.L259	#,
.L258:
	movl	$1, %eax	#, iftmp.246
	jmp	.L260	#
.L259:
	.loc 1 1115 0 discriminator 3
	movl	$0, %eax	#, iftmp.246
.L260:
	.loc 1 1115 0 discriminator 4
	movl	%eax, -312(%rbp)	# iftmp.246, intra
	.loc 1 1116 0 is_stmt 1 discriminator 4
	movq	img(%rip), %rax	# img, img.247
	movl	72692(%rax), %eax	# img.247_137->num_blk8x8_uv, D.11388
	movl	%eax, %edx	# D.11388, tmp1136
	shrl	$31, %edx	#, tmp1136
	addl	%edx, %eax	# tmp1136, tmp1137
	sarl	%eax	# tmp1138
	imull	-388(%rbp), %eax	# uv, tmp1139
	movl	%eax, -308(%rbp)	# tmp1139, uv_scale
	.loc 1 1119 0 discriminator 4
	movq	$0, -176(%rbp)	#, cbpblk_pattern
	movq	$983040, -168(%rbp)	#, cbpblk_pattern
	movq	$16711680, -160(%rbp)	#, cbpblk_pattern
	movl	$4294901760, %eax	#, tmp2739
	movq	%rax, -152(%rbp)	# tmp2739, cbpblk_pattern
	.loc 1 1120 0 discriminator 4
	movq	img(%rip), %rax	# img, img.248
	movl	72700(%rax), %eax	# img.248_141->yuv_format, tmp1140
	movl	%eax, -304(%rbp)	# tmp1140, yuv
	.loc 1 1124 0 discriminator 4
	movl	$0, -324(%rbp)	#, qp_per_dc
	.loc 1 1125 0 discriminator 4
	movl	$0, -320(%rbp)	#, qp_rem_dc
	.loc 1 1126 0 discriminator 4
	movl	$0, -316(%rbp)	#, q_bits_422
	.loc 1 1127 0 discriminator 4
	movq	-264(%rbp), %rax	# currMB, tmp1141
	movl	12(%rax), %edx	# currMB_113->qp, D.11388
	movq	img(%rip), %rax	# img, img.250
	movl	72668(%rax), %eax	# img.250_147->bitdepth_luma_qp_scale, D.11388
	addl	%edx, %eax	# D.11388, D.11388
	testl	%eax, %eax	# D.11388
	jne	.L261	#,
	.loc 1 1127 0 is_stmt 0 discriminator 1
	movq	img(%rip), %rax	# img, img.251
	movl	72704(%rax), %eax	# img.251_150->lossless_qpprime_flag, D.11388
	cmpl	$1, %eax	#, D.11388
	jne	.L261	#,
	.loc 1 1127 0 discriminator 3
	movl	$1, %eax	#, iftmp.249
	jmp	.L262	#
.L261:
	.loc 1 1127 0 discriminator 2
	movl	$0, %eax	#, iftmp.249
.L262:
	.loc 1 1127 0 discriminator 4
	movl	%eax, -300(%rbp)	# iftmp.249, lossless_qpprime
	.loc 1 1129 0 is_stmt 1 discriminator 4
	movq	-264(%rbp), %rax	# currMB, tmp1142
	movl	12(%rax), %edx	# currMB_113->qp, D.11388
	movq	img(%rip), %rax	# img, img.252
	movl	-388(%rbp), %ecx	# uv, tmp1144
	movslq	%ecx, %rcx	# tmp1144, tmp1143
	addq	$18176, %rcx	#, tmp1145
	movl	12(%rax,%rcx,4), %eax	# img.252_156->chroma_qp_offset, D.11388
	addl	%edx, %eax	# D.11388, tmp1146
	movl	%eax, -296(%rbp)	# tmp1146, qp_c
	.loc 1 1130 0 discriminator 4
	movq	img(%rip), %rax	# img, img.254
	movl	72672(%rax), %eax	# img.254_159->bitdepth_chroma_qp_scale, D.11388
	negl	%eax	# D.11388
	cmpl	-296(%rbp), %eax	# qp_c, D.11388
	jle	.L263	#,
	.loc 1 1130 0 is_stmt 0 discriminator 1
	movq	img(%rip), %rax	# img, img.255
	movl	72672(%rax), %eax	# img.255_162->bitdepth_chroma_qp_scale, D.11388
	negl	%eax	# iftmp.253
	jmp	.L264	#
.L263:
	.loc 1 1130 0 discriminator 2
	movl	$51, %eax	#, tmp1147
	cmpl	$51, -296(%rbp)	#, qp_c
	cmovle	-296(%rbp), %eax	# qp_c,, iftmp.253
.L264:
	.loc 1 1130 0 discriminator 3
	movl	%eax, -296(%rbp)	# iftmp.253, qp_c
	.loc 1 1131 0 is_stmt 1 discriminator 3
	cmpl	$0, -296(%rbp)	#, qp_c
	js	.L265	#,
	.loc 1 1131 0 is_stmt 0 discriminator 1
	movl	-296(%rbp), %eax	# qp_c, tmp1149
	cltq
	movzbl	QP_SCALE_CR(%rax), %eax	# QP_SCALE_CR, D.11393
	movzbl	%al, %eax	# D.11393, iftmp.256
	jmp	.L266	#
.L265:
	.loc 1 1131 0 discriminator 2
	movl	-296(%rbp), %eax	# qp_c, iftmp.256
.L266:
	.loc 1 1131 0 discriminator 3
	movl	%eax, -296(%rbp)	# iftmp.256, qp_c
	.loc 1 1133 0 is_stmt 1 discriminator 3
	movq	img(%rip), %rax	# img, img.257
	movl	72672(%rax), %edx	# img.257_171->bitdepth_chroma_qp_scale, D.11388
	movl	-296(%rbp), %eax	# qp_c, tmp1150
	leal	(%rdx,%rax), %ecx	#, D.11388
	movl	$715827883, %edx	#, tmp1152
	movl	%ecx, %eax	# D.11388, tmp2734
	imull	%edx	# tmp1152
	movl	%ecx, %eax	# D.11388, tmp1153
	sarl	$31, %eax	#, tmp1153
	subl	%eax, %edx	# tmp1153, tmp1154
	movl	%edx, %eax	# tmp1154, tmp1154
	movl	%eax, -292(%rbp)	# tmp1154, qp_per
	.loc 1 1134 0 discriminator 3
	movq	img(%rip), %rax	# img, img.258
	movl	72672(%rax), %edx	# img.258_175->bitdepth_chroma_qp_scale, D.11388
	movl	-296(%rbp), %eax	# qp_c, tmp1155
	leal	(%rdx,%rax), %ecx	#, D.11388
	movl	$715827883, %edx	#, tmp1157
	movl	%ecx, %eax	# D.11388, tmp2735
	imull	%edx	# tmp1157
	movl	%ecx, %eax	# D.11388, tmp1158
	sarl	$31, %eax	#, tmp1158
	subl	%eax, %edx	# tmp1158, tmp1159
	movl	%edx, %eax	# tmp1159, tmp1159
	movl	%eax, -288(%rbp)	# tmp1159, qp_rem
	movl	-288(%rbp), %edx	# qp_rem, tmp1160
	movl	%edx, %eax	# tmp1160, tmp1161
	addl	%eax, %eax	# tmp1161
	addl	%edx, %eax	# tmp1160, tmp1161
	addl	%eax, %eax	# tmp1162
	subl	%eax, %ecx	# tmp1161, tmp1163
	movl	%ecx, %eax	# tmp1163, tmp1163
	movl	%eax, -288(%rbp)	# tmp1163, qp_rem
	.loc 1 1135 0 discriminator 3
	movl	-292(%rbp), %eax	# qp_per, tmp1167
	addl	$15, %eax	#, tmp1166
	movl	%eax, -284(%rbp)	# tmp1166, q_bits
	.loc 1 1137 0 discriminator 3
	movq	img(%rip), %rax	# img, img.259
	movl	72700(%rax), %eax	# img.259_180->yuv_format, D.11388
	cmpl	$2, %eax	#, D.11388
	jne	.L267	#,
	.loc 1 1140 0
	movl	-296(%rbp), %eax	# qp_c, tmp1168
	leal	3(%rax), %edx	#, D.11388
	movq	img(%rip), %rax	# img, img.260
	movl	72672(%rax), %eax	# img.260_183->bitdepth_chroma_qp_scale, D.11388
	leal	(%rdx,%rax), %ecx	#, D.11388
	movl	$715827883, %edx	#, tmp1170
	movl	%ecx, %eax	# D.11388, tmp2736
	imull	%edx	# tmp1170
	movl	%ecx, %eax	# D.11388, tmp1171
	sarl	$31, %eax	#, tmp1171
	subl	%eax, %edx	# tmp1171, tmp1172
	movl	%edx, %eax	# tmp1172, tmp1172
	movl	%eax, -324(%rbp)	# tmp1172, qp_per_dc
	.loc 1 1141 0
	movl	-296(%rbp), %eax	# qp_c, tmp1173
	leal	3(%rax), %edx	#, D.11388
	movq	img(%rip), %rax	# img, img.261
	movl	72672(%rax), %eax	# img.261_188->bitdepth_chroma_qp_scale, D.11388
	leal	(%rdx,%rax), %ecx	#, D.11388
	movl	$715827883, %edx	#, tmp1175
	movl	%ecx, %eax	# D.11388, tmp2737
	imull	%edx	# tmp1175
	movl	%ecx, %eax	# D.11388, tmp1176
	sarl	$31, %eax	#, tmp1176
	subl	%eax, %edx	# tmp1176, tmp1177
	movl	%edx, %eax	# tmp1177, tmp1177
	movl	%eax, -320(%rbp)	# tmp1177, qp_rem_dc
	movl	-320(%rbp), %edx	# qp_rem_dc, tmp1178
	movl	%edx, %eax	# tmp1178, tmp1179
	addl	%eax, %eax	# tmp1179
	addl	%edx, %eax	# tmp1178, tmp1179
	addl	%eax, %eax	# tmp1180
	subl	%eax, %ecx	# tmp1179, tmp1181
	movl	%ecx, %eax	# tmp1181, tmp1181
	movl	%eax, -320(%rbp)	# tmp1181, qp_rem_dc
	.loc 1 1143 0
	movl	-324(%rbp), %eax	# qp_per_dc, tmp1185
	addl	$15, %eax	#, tmp1184
	movl	%eax, -316(%rbp)	# tmp1184, q_bits_422
.L267:
	.loc 1 1149 0
	movl	$0, -368(%rbp)	#, n2
	jmp	.L268	#
.L281:
	.loc 1 1151 0
	movl	$0, -364(%rbp)	#, n1
	jmp	.L269	#
.L280:
	.loc 1 1155 0
	movl	$0, -376(%rbp)	#, j
	jmp	.L270	#
.L274:
	.loc 1 1157 0
	movl	-376(%rbp), %eax	# j, tmp1190
	movl	-368(%rbp), %edx	# n2, tmp1191
	addl	%edx, %eax	# tmp1191, tmp1189
	movl	%eax, -280(%rbp)	# tmp1189, mb_y
	.loc 1 1158 0
	movl	$0, -380(%rbp)	#, i
	jmp	.L271	#
.L272:
	.loc 1 1160 0 discriminator 2
	movl	$3, %eax	#, tmp1195
	subl	-380(%rbp), %eax	# i, tmp1194
	movl	%eax, -276(%rbp)	# tmp1194, i1
	.loc 1 1161 0 discriminator 2
	movq	img(%rip), %rax	# img, img.262
	movl	-364(%rbp), %edx	# n1, tmp1196
	movl	-380(%rbp), %ecx	# i, tmp1197
	addl	%edx, %ecx	# tmp1196, D.11388
	movl	-280(%rbp), %edx	# mb_y, tmp1199
	movslq	%edx, %rdx	# tmp1199, tmp1198
	movslq	%ecx, %rcx	# D.11388, tmp1200
	salq	$4, %rcx	#, tmp1201
	addq	%rcx, %rdx	# tmp1201, tmp1202
	addq	$3276, %rdx	#, tmp1203
	movl	8(%rax,%rdx,4), %edx	# img.262_203->m7, D.11388
	movq	img(%rip), %rax	# img, img.263
	movl	-364(%rbp), %ecx	# n1, tmp1204
	movl	-276(%rbp), %esi	# i1, tmp1205
	addl	%ecx, %esi	# tmp1204, D.11388
	movl	-280(%rbp), %ecx	# mb_y, tmp1207
	movslq	%ecx, %rcx	# tmp1207, tmp1206
	movslq	%esi, %rsi	# D.11388, tmp1208
	salq	$4, %rsi	#, tmp1209
	addq	%rsi, %rcx	# tmp1209, tmp1210
	addq	$3276, %rcx	#, tmp1211
	movl	8(%rax,%rcx,4), %eax	# img.263_206->m7, D.11388
	addl	%eax, %edx	# D.11388, D.11388
	movl	-380(%rbp), %eax	# i, tmp1213
	cltq
	movl	%edx, -208(%rbp,%rax,4)	# D.11388, m5
	.loc 1 1162 0 discriminator 2
	movq	img(%rip), %rax	# img, img.264
	movl	-364(%rbp), %edx	# n1, tmp1214
	movl	-380(%rbp), %ecx	# i, tmp1215
	addl	%edx, %ecx	# tmp1214, D.11388
	movl	-280(%rbp), %edx	# mb_y, tmp1217
	movslq	%edx, %rdx	# tmp1217, tmp1216
	movslq	%ecx, %rcx	# D.11388, tmp1218
	salq	$4, %rcx	#, tmp1219
	addq	%rcx, %rdx	# tmp1219, tmp1220
	addq	$3276, %rdx	#, tmp1221
	movl	8(%rax,%rdx,4), %edx	# img.264_210->m7, D.11388
	movq	img(%rip), %rax	# img, img.265
	movl	-364(%rbp), %ecx	# n1, tmp1222
	movl	-276(%rbp), %esi	# i1, tmp1223
	addl	%ecx, %esi	# tmp1222, D.11388
	movl	-280(%rbp), %ecx	# mb_y, tmp1225
	movslq	%ecx, %rcx	# tmp1225, tmp1224
	movslq	%esi, %rsi	# D.11388, tmp1226
	salq	$4, %rsi	#, tmp1227
	addq	%rsi, %rcx	# tmp1227, tmp1228
	addq	$3276, %rcx	#, tmp1229
	movl	8(%rax,%rcx,4), %eax	# img.265_213->m7, D.11388
	subl	%eax, %edx	# D.11388, D.11388
	movl	-276(%rbp), %eax	# i1, tmp1231
	cltq
	movl	%edx, -208(%rbp,%rax,4)	# D.11388, m5
	.loc 1 1158 0 discriminator 2
	addl	$1, -380(%rbp)	#, i
.L271:
	.loc 1 1158 0 is_stmt 0 discriminator 1
	cmpl	$1, -380(%rbp)	#, i
	jle	.L272	#,
	.loc 1 1164 0 is_stmt 1
	movq	img(%rip), %rax	# img, img.266
	movl	-208(%rbp), %ecx	# m5, D.11388
	movl	-204(%rbp), %edx	# m5, D.11388
	addl	%edx, %ecx	# D.11388, D.11388
	movl	-280(%rbp), %edx	# mb_y, tmp1233
	movslq	%edx, %rdx	# tmp1233, tmp1232
	movl	-364(%rbp), %esi	# n1, tmp1235
	movslq	%esi, %rsi	# tmp1235, tmp1234
	salq	$4, %rsi	#, tmp1236
	addq	%rsi, %rdx	# tmp1236, tmp1237
	addq	$3276, %rdx	#, tmp1238
	movl	%ecx, 8(%rax,%rdx,4)	# D.11388, img.266_218->m7
	.loc 1 1165 0
	movq	img(%rip), %rax	# img, img.267
	movl	-364(%rbp), %edx	# n1, tmp1239
	leal	2(%rdx), %esi	#, D.11388
	movl	-208(%rbp), %ecx	# m5, D.11388
	movl	-204(%rbp), %edx	# m5, D.11388
	subl	%edx, %ecx	# D.11388, D.11388
	movl	-280(%rbp), %edx	# mb_y, tmp1241
	movslq	%edx, %rdx	# tmp1241, tmp1240
	movslq	%esi, %rsi	# D.11388, tmp1242
	salq	$4, %rsi	#, tmp1243
	addq	%rsi, %rdx	# tmp1243, tmp1244
	addq	$3276, %rdx	#, tmp1245
	movl	%ecx, 8(%rax,%rdx,4)	# D.11388, img.267_222->m7
	.loc 1 1166 0
	movq	img(%rip), %rax	# img, img.268
	movl	-364(%rbp), %edx	# n1, tmp1246
	leal	1(%rdx), %esi	#, D.11388
	movl	-196(%rbp), %edx	# m5, D.11388
	leal	(%rdx,%rdx), %ecx	#, D.11388
	movl	-200(%rbp), %edx	# m5, D.11388
	addl	%edx, %ecx	# D.11388, D.11388
	movl	-280(%rbp), %edx	# mb_y, tmp1248
	movslq	%edx, %rdx	# tmp1248, tmp1247
	movslq	%esi, %rsi	# D.11388, tmp1249
	salq	$4, %rsi	#, tmp1250
	addq	%rsi, %rdx	# tmp1250, tmp1251
	addq	$3276, %rdx	#, tmp1252
	movl	%ecx, 8(%rax,%rdx,4)	# D.11388, img.268_227->m7
	.loc 1 1167 0
	movq	img(%rip), %rdx	# img, img.269
	movl	-364(%rbp), %eax	# n1, tmp1253
	leal	3(%rax), %edi	#, D.11388
	movl	-196(%rbp), %ecx	# m5, D.11388
	movl	-200(%rbp), %esi	# m5, D.11388
	movl	$0, %eax	#, tmp1254
	subl	%esi, %eax	# D.11388, tmp1254
	addl	%eax, %eax	# tmp1255
	addl	%eax, %ecx	# D.11388, D.11388
	movl	-280(%rbp), %eax	# mb_y, tmp1257
	cltq
	movslq	%edi, %rsi	# D.11388, tmp1258
	salq	$4, %rsi	#, tmp1259
	addq	%rsi, %rax	# tmp1259, tmp1260
	addq	$3276, %rax	#, tmp1261
	movl	%ecx, 8(%rdx,%rax,4)	# D.11388, img.269_233->m7
	.loc 1 1155 0
	addl	$1, -376(%rbp)	#, j
.L270:
	.loc 1 1155 0 is_stmt 0 discriminator 1
	cmpl	$3, -376(%rbp)	#, j
	jg	.L273	#,
	.loc 1 1155 0 discriminator 2
	cmpl	$0, -300(%rbp)	#, lossless_qpprime
	je	.L274	#,
.L273:
	.loc 1 1172 0 is_stmt 1
	movl	$0, -380(%rbp)	#, i
	jmp	.L275	#
.L279:
	.loc 1 1174 0
	movl	-380(%rbp), %eax	# i, tmp1266
	movl	-364(%rbp), %edx	# n1, tmp1267
	addl	%edx, %eax	# tmp1267, tmp1265
	movl	%eax, -272(%rbp)	# tmp1265, j1
	.loc 1 1175 0
	movl	$0, -376(%rbp)	#, j
	jmp	.L276	#
.L277:
	.loc 1 1177 0 discriminator 2
	movl	$3, %eax	#, tmp1271
	subl	-376(%rbp), %eax	# j, tmp1270
	movl	%eax, -268(%rbp)	# tmp1270, j2
	.loc 1 1178 0 discriminator 2
	movq	img(%rip), %rax	# img, img.270
	movl	-376(%rbp), %edx	# j, tmp1272
	movl	-368(%rbp), %ecx	# n2, tmp1273
	addl	%ecx, %edx	# tmp1273, D.11388
	movslq	%edx, %rdx	# D.11388, tmp1274
	movl	-272(%rbp), %ecx	# j1, tmp1276
	movslq	%ecx, %rcx	# tmp1276, tmp1275
	salq	$4, %rcx	#, tmp1277
	addq	%rcx, %rdx	# tmp1277, tmp1278
	addq	$3276, %rdx	#, tmp1279
	movl	8(%rax,%rdx,4), %edx	# img.270_244->m7, D.11388
	movq	img(%rip), %rax	# img, img.271
	movl	-268(%rbp), %ecx	# j2, tmp1280
	movl	-368(%rbp), %esi	# n2, tmp1281
	addl	%esi, %ecx	# tmp1281, D.11388
	movslq	%ecx, %rcx	# D.11388, tmp1282
	movl	-272(%rbp), %esi	# j1, tmp1284
	movslq	%esi, %rsi	# tmp1284, tmp1283
	salq	$4, %rsi	#, tmp1285
	addq	%rsi, %rcx	# tmp1285, tmp1286
	addq	$3276, %rcx	#, tmp1287
	movl	8(%rax,%rcx,4), %eax	# img.271_247->m7, D.11388
	addl	%eax, %edx	# D.11388, D.11388
	movl	-376(%rbp), %eax	# j, tmp1289
	cltq
	movl	%edx, -208(%rbp,%rax,4)	# D.11388, m5
	.loc 1 1179 0 discriminator 2
	movq	img(%rip), %rax	# img, img.272
	movl	-376(%rbp), %edx	# j, tmp1290
	movl	-368(%rbp), %ecx	# n2, tmp1291
	addl	%ecx, %edx	# tmp1291, D.11388
	movslq	%edx, %rdx	# D.11388, tmp1292
	movl	-272(%rbp), %ecx	# j1, tmp1294
	movslq	%ecx, %rcx	# tmp1294, tmp1293
	salq	$4, %rcx	#, tmp1295
	addq	%rcx, %rdx	# tmp1295, tmp1296
	addq	$3276, %rdx	#, tmp1297
	movl	8(%rax,%rdx,4), %edx	# img.272_251->m7, D.11388
	movq	img(%rip), %rax	# img, img.273
	movl	-268(%rbp), %ecx	# j2, tmp1298
	movl	-368(%rbp), %esi	# n2, tmp1299
	addl	%esi, %ecx	# tmp1299, D.11388
	movslq	%ecx, %rcx	# D.11388, tmp1300
	movl	-272(%rbp), %esi	# j1, tmp1302
	movslq	%esi, %rsi	# tmp1302, tmp1301
	salq	$4, %rsi	#, tmp1303
	addq	%rsi, %rcx	# tmp1303, tmp1304
	addq	$3276, %rcx	#, tmp1305
	movl	8(%rax,%rcx,4), %eax	# img.273_254->m7, D.11388
	subl	%eax, %edx	# D.11388, D.11388
	movl	-268(%rbp), %eax	# j2, tmp1307
	cltq
	movl	%edx, -208(%rbp,%rax,4)	# D.11388, m5
	.loc 1 1175 0 discriminator 2
	addl	$1, -376(%rbp)	#, j
.L276:
	.loc 1 1175 0 is_stmt 0 discriminator 1
	cmpl	$1, -376(%rbp)	#, j
	jle	.L277	#,
	.loc 1 1181 0 is_stmt 1
	movq	img(%rip), %rax	# img, img.274
	movl	-208(%rbp), %ecx	# m5, D.11388
	movl	-204(%rbp), %edx	# m5, D.11388
	addl	%edx, %ecx	# D.11388, D.11388
	movl	-368(%rbp), %edx	# n2, tmp1309
	movslq	%edx, %rdx	# tmp1309, tmp1308
	movl	-272(%rbp), %esi	# j1, tmp1311
	movslq	%esi, %rsi	# tmp1311, tmp1310
	salq	$4, %rsi	#, tmp1312
	addq	%rsi, %rdx	# tmp1312, tmp1313
	addq	$3276, %rdx	#, tmp1314
	movl	%ecx, 8(%rax,%rdx,4)	# D.11388, img.274_259->m7
	.loc 1 1182 0
	movq	img(%rip), %rax	# img, img.275
	movl	-368(%rbp), %edx	# n2, tmp1315
	leal	2(%rdx), %esi	#, D.11388
	movl	-208(%rbp), %ecx	# m5, D.11388
	movl	-204(%rbp), %edx	# m5, D.11388
	subl	%edx, %ecx	# D.11388, D.11388
	movslq	%esi, %rdx	# D.11388, tmp1316
	movl	-272(%rbp), %esi	# j1, tmp1318
	movslq	%esi, %rsi	# tmp1318, tmp1317
	salq	$4, %rsi	#, tmp1319
	addq	%rsi, %rdx	# tmp1319, tmp1320
	addq	$3276, %rdx	#, tmp1321
	movl	%ecx, 8(%rax,%rdx,4)	# D.11388, img.275_263->m7
	.loc 1 1183 0
	movq	img(%rip), %rax	# img, img.276
	movl	-368(%rbp), %edx	# n2, tmp1322
	leal	1(%rdx), %esi	#, D.11388
	movl	-196(%rbp), %edx	# m5, D.11388
	leal	(%rdx,%rdx), %ecx	#, D.11388
	movl	-200(%rbp), %edx	# m5, D.11388
	addl	%edx, %ecx	# D.11388, D.11388
	movslq	%esi, %rdx	# D.11388, tmp1323
	movl	-272(%rbp), %esi	# j1, tmp1325
	movslq	%esi, %rsi	# tmp1325, tmp1324
	salq	$4, %rsi	#, tmp1326
	addq	%rsi, %rdx	# tmp1326, tmp1327
	addq	$3276, %rdx	#, tmp1328
	movl	%ecx, 8(%rax,%rdx,4)	# D.11388, img.276_268->m7
	.loc 1 1184 0
	movq	img(%rip), %rdx	# img, img.277
	movl	-368(%rbp), %eax	# n2, tmp1329
	leal	3(%rax), %edi	#, D.11388
	movl	-196(%rbp), %ecx	# m5, D.11388
	movl	-200(%rbp), %esi	# m5, D.11388
	movl	$0, %eax	#, tmp1330
	subl	%esi, %eax	# D.11388, tmp1330
	addl	%eax, %eax	# tmp1331
	addl	%eax, %ecx	# D.11388, D.11388
	movslq	%edi, %rax	# D.11388, tmp1332
	movl	-272(%rbp), %esi	# j1, tmp1334
	movslq	%esi, %rsi	# tmp1334, tmp1333
	salq	$4, %rsi	#, tmp1335
	addq	%rsi, %rax	# tmp1335, tmp1336
	addq	$3276, %rax	#, tmp1337
	movl	%ecx, 8(%rdx,%rax,4)	# D.11388, img.277_274->m7
	.loc 1 1172 0
	addl	$1, -380(%rbp)	#, i
.L275:
	.loc 1 1172 0 is_stmt 0 discriminator 1
	cmpl	$3, -380(%rbp)	#, i
	jg	.L278	#,
	.loc 1 1172 0 discriminator 2
	cmpl	$0, -300(%rbp)	#, lossless_qpprime
	je	.L279	#,
.L278:
	.loc 1 1151 0 is_stmt 1
	addl	$4, -364(%rbp)	#, n1
.L269:
	.loc 1 1151 0 is_stmt 0 discriminator 1
	movq	img(%rip), %rax	# img, img.278
	movl	72708(%rax), %eax	# img.278_197->mb_cr_size_x, D.11388
	cmpl	-364(%rbp), %eax	# n1, D.11388
	jg	.L280	#,
	.loc 1 1149 0 is_stmt 1
	addl	$4, -368(%rbp)	#, n2
.L268:
	.loc 1 1149 0 is_stmt 0 discriminator 1
	movq	img(%rip), %rax	# img, img.279
	movl	72712(%rax), %eax	# img.279_194->mb_cr_size_y, D.11388
	cmpl	-368(%rbp), %eax	# n2, D.11388
	jg	.L281	#,
	.loc 1 1189 0 is_stmt 1
	cmpl	$1, -304(%rbp)	#, yuv
	jne	.L282	#,
	.loc 1 1193 0
	movq	img(%rip), %rax	# img, img.280
	movl	13112(%rax), %edx	# img.280_283->m7, D.11388
	movq	img(%rip), %rax	# img, img.281
	movl	13368(%rax), %eax	# img.281_285->m7, D.11388
	addl	%eax, %edx	# D.11388, D.11388
	movq	img(%rip), %rax	# img, img.282
	movl	13128(%rax), %eax	# img.282_288->m7, D.11388
	addl	%eax, %edx	# D.11388, D.11388
	movq	img(%rip), %rax	# img, img.283
	movl	13384(%rax), %eax	# img.283_291->m7, D.11388
	addl	%edx, %eax	# D.11388, D.11388
	movl	%eax, -224(%rbp)	# D.11388, m1
	.loc 1 1194 0
	movq	img(%rip), %rax	# img, img.284
	movl	13112(%rax), %edx	# img.284_294->m7, D.11388
	movq	img(%rip), %rax	# img, img.285
	movl	13368(%rax), %eax	# img.285_296->m7, D.11388
	subl	%eax, %edx	# D.11388, D.11388
	movq	img(%rip), %rax	# img, img.286
	movl	13128(%rax), %eax	# img.286_299->m7, D.11388
	addl	%eax, %edx	# D.11388, D.11388
	movq	img(%rip), %rax	# img, img.287
	movl	13384(%rax), %eax	# img.287_302->m7, D.11388
	subl	%eax, %edx	# D.11388, D.11388
	movl	%edx, %eax	# D.11388, D.11388
	movl	%eax, -220(%rbp)	# D.11388, m1
	.loc 1 1195 0
	movq	img(%rip), %rax	# img, img.288
	movl	13112(%rax), %edx	# img.288_305->m7, D.11388
	movq	img(%rip), %rax	# img, img.289
	movl	13368(%rax), %eax	# img.289_307->m7, D.11388
	addl	%eax, %edx	# D.11388, D.11388
	movq	img(%rip), %rax	# img, img.290
	movl	13128(%rax), %eax	# img.290_310->m7, D.11388
	subl	%eax, %edx	# D.11388, D.11388
	movq	img(%rip), %rax	# img, img.291
	movl	13384(%rax), %eax	# img.291_313->m7, D.11388
	subl	%eax, %edx	# D.11388, D.11388
	movl	%edx, %eax	# D.11388, D.11388
	movl	%eax, -216(%rbp)	# D.11388, m1
	.loc 1 1196 0
	movq	img(%rip), %rax	# img, img.292
	movl	13112(%rax), %edx	# img.292_316->m7, D.11388
	movq	img(%rip), %rax	# img, img.293
	movl	13368(%rax), %eax	# img.293_318->m7, D.11388
	subl	%eax, %edx	# D.11388, D.11388
	movq	img(%rip), %rax	# img, img.294
	movl	13128(%rax), %eax	# img.294_321->m7, D.11388
	subl	%eax, %edx	# D.11388, D.11388
	movq	img(%rip), %rax	# img, img.295
	movl	13384(%rax), %eax	# img.295_324->m7, D.11388
	addl	%edx, %eax	# D.11388, D.11388
	movl	%eax, -212(%rbp)	# D.11388, m1
	.loc 1 1199 0
	movl	$-1, -348(%rbp)	#, run
	.loc 1 1200 0
	movl	$0, -352(%rbp)	#, scan_pos
	.loc 1 1202 0
	movl	$0, -360(%rbp)	#, coeff_ctr
	jmp	.L283	#
.L288:
	.loc 1 1204 0
	addl	$1, -348(%rbp)	#, run
	.loc 1 1205 0
	movl	$0, -372(%rbp)	#, ilev
	.loc 1 1207 0
	cmpl	$1, -312(%rbp)	#, intra
	jne	.L284	#,
	.loc 1 1208 0
	movl	-360(%rbp), %eax	# coeff_ctr, tmp1339
	cltq
	movl	-224(%rbp,%rax,4), %eax	# m1, D.11388
	movl	%eax, %ecx	# D.11388, tmp1340
	sarl	$31, %ecx	#, tmp1340
	xorl	%ecx, %eax	# tmp1340, D.11388
	movl	%eax, %edx	# D.11388, D.11388
	subl	%ecx, %edx	# tmp1340, D.11388
	movl	-288(%rbp), %eax	# qp_rem, tmp1342
	movslq	%eax, %rsi	# tmp1342, tmp1341
	movl	-388(%rbp), %eax	# uv, tmp1344
	movslq	%eax, %rcx	# tmp1344, tmp1343
	movq	%rcx, %rax	# tmp1343, tmp1345
	addq	%rax, %rax	# tmp1345
	addq	%rcx, %rax	# tmp1343, tmp1345
	addq	%rax, %rax	# tmp1346
	addq	%rsi, %rax	# tmp1341, tmp1347
	salq	$6, %rax	#, tmp1348
	addq	$LevelScale4x4Chroma_Intra, %rax	#, tmp1349
	movl	(%rax), %eax	# LevelScale4x4Chroma_Intra, D.11388
	movl	%edx, %ecx	# D.11388, D.11388
	imull	%eax, %ecx	# D.11388, D.11388
	movl	-292(%rbp), %eax	# qp_per, tmp1351
	movslq	%eax, %rsi	# tmp1351, tmp1350
	movl	-388(%rbp), %eax	# uv, tmp1353
	movslq	%eax, %rdx	# tmp1353, tmp1352
	movq	%rdx, %rax	# tmp1352, tmp1354
	addq	%rax, %rax	# tmp1354
	addq	%rdx, %rax	# tmp1352, tmp1354
	salq	$2, %rax	#, tmp1354
	addq	%rdx, %rax	# tmp1352, tmp1354
	addq	%rsi, %rax	# tmp1350, tmp1355
	salq	$6, %rax	#, tmp1356
	addq	$LevelOffset4x4Chroma_Intra, %rax	#, tmp1357
	movl	(%rax), %eax	# LevelOffset4x4Chroma_Intra, D.11388
	addl	%eax, %eax	# D.11388
	leal	(%rcx,%rax), %edx	#, D.11388
	movl	-284(%rbp), %eax	# q_bits, tmp1358
	addl	$1, %eax	#, D.11388
	movl	%eax, %ecx	# D.11388, tmp2760
	sarl	%cl, %edx	# tmp2760, tmp1359
	movl	%edx, %eax	# tmp1359, tmp1359
	movl	%eax, -356(%rbp)	# tmp1359, level
	jmp	.L285	#
.L284:
	.loc 1 1210 0
	movl	-360(%rbp), %eax	# coeff_ctr, tmp1361
	cltq
	movl	-224(%rbp,%rax,4), %eax	# m1, D.11388
	movl	%eax, %ecx	# D.11388, tmp1362
	sarl	$31, %ecx	#, tmp1362
	xorl	%ecx, %eax	# tmp1362, D.11388
	movl	%eax, %edx	# D.11388, D.11388
	subl	%ecx, %edx	# tmp1362, D.11388
	movl	-288(%rbp), %eax	# qp_rem, tmp1364
	movslq	%eax, %rsi	# tmp1364, tmp1363
	movl	-388(%rbp), %eax	# uv, tmp1366
	movslq	%eax, %rcx	# tmp1366, tmp1365
	movq	%rcx, %rax	# tmp1365, tmp1367
	addq	%rax, %rax	# tmp1367
	addq	%rcx, %rax	# tmp1365, tmp1367
	addq	%rax, %rax	# tmp1368
	addq	%rsi, %rax	# tmp1363, tmp1369
	salq	$6, %rax	#, tmp1370
	addq	$LevelScale4x4Chroma_Inter, %rax	#, tmp1371
	movl	(%rax), %eax	# LevelScale4x4Chroma_Inter, D.11388
	movl	%edx, %ecx	# D.11388, D.11388
	imull	%eax, %ecx	# D.11388, D.11388
	movl	-292(%rbp), %eax	# qp_per, tmp1373
	movslq	%eax, %rsi	# tmp1373, tmp1372
	movl	-388(%rbp), %eax	# uv, tmp1375
	movslq	%eax, %rdx	# tmp1375, tmp1374
	movq	%rdx, %rax	# tmp1374, tmp1376
	addq	%rax, %rax	# tmp1376
	addq	%rdx, %rax	# tmp1374, tmp1376
	salq	$2, %rax	#, tmp1376
	addq	%rdx, %rax	# tmp1374, tmp1376
	addq	%rsi, %rax	# tmp1372, tmp1377
	salq	$6, %rax	#, tmp1378
	addq	$LevelOffset4x4Chroma_Inter, %rax	#, tmp1379
	movl	(%rax), %eax	# LevelOffset4x4Chroma_Inter, D.11388
	addl	%eax, %eax	# D.11388
	leal	(%rcx,%rax), %edx	#, D.11388
	movl	-284(%rbp), %eax	# q_bits, tmp1380
	addl	$1, %eax	#, D.11388
	movl	%eax, %ecx	# D.11388, tmp2765
	sarl	%cl, %edx	# tmp2765, tmp1381
	movl	%edx, %eax	# tmp1381, tmp1381
	movl	%eax, -356(%rbp)	# tmp1381, level
.L285:
	.loc 1 1212 0
	movq	input(%rip), %rax	# input, input.296
	movl	2356(%rax), %eax	# input.296_351->symbol_mode, D.11388
	testl	%eax, %eax	# D.11388
	jne	.L286	#,
	.loc 1 1212 0 is_stmt 0 discriminator 1
	movq	img(%rip), %rax	# img, img.297
	movl	40(%rax), %eax	# img.297_353->qp, D.11388
	cmpl	$3, %eax	#, D.11388
	jg	.L286	#,
	.loc 1 1214 0 is_stmt 1
	cmpl	$2063, -356(%rbp)	#, level
	jle	.L286	#,
	.loc 1 1216 0
	movl	$2063, -356(%rbp)	#, level
.L286:
	.loc 1 1220 0
	cmpl	$0, -356(%rbp)	#, level
	je	.L287	#,
	.loc 1 1222 0
	movq	-264(%rbp), %rax	# currMB, tmp1382
	movq	464(%rax), %rdx	# currMB_113->cbp_blk, D.11394
	movl	-388(%rbp), %eax	# uv, tmp1383
	sall	$2, %eax	#, D.11388
	movl	$983040, %esi	#, tmp1384
	movl	%eax, %ecx	# D.11388, tmp2767
	sall	%cl, %esi	# tmp2767, D.11388
	movl	%esi, %eax	# D.11388, D.11388
	cltq
	orq	%rax, %rdx	# D.11394, D.11394
	movq	-264(%rbp), %rax	# currMB, tmp1385
	movq	%rdx, 464(%rax)	# D.11394, currMB_113->cbp_blk
	.loc 1 1223 0
	movl	$1, %eax	#, tmp1387
	cmpl	$0, -392(%rbp)	#, cr_cbp
	cmovg	-392(%rbp), %eax	# cr_cbp,, tmp1386
	movl	%eax, -392(%rbp)	# tmp1386, cr_cbp
	.loc 1 1224 0
	movl	$1, -336(%rbp)	#, DCcoded
	.loc 1 1225 0
	movl	-352(%rbp), %eax	# scan_pos, tmp1388
	cltq
	leaq	0(,%rax,4), %rdx	#, D.11389
	movq	-256(%rbp), %rax	# DCLevel, tmp1389
	leaq	(%rdx,%rax), %rbx	#, D.11395
	movl	-360(%rbp), %eax	# coeff_ctr, tmp1391
	cltq
	movl	-224(%rbp,%rax,4), %edx	# m1, D.11388
	movl	-356(%rbp), %eax	# level, tmp1392
	movl	%edx, %esi	# D.11388,
	movl	%eax, %edi	# tmp1392,
	call	sign	#
	movl	%eax, (%rbx)	# D.11388, *_365
	.loc 1 1226 0
	movl	-352(%rbp), %eax	# scan_pos, tmp1393
	cltq
	leaq	0(,%rax,4), %rdx	#, D.11389
	movq	-248(%rbp), %rax	# DCRun, tmp1394
	addq	%rax, %rdx	# tmp1394, D.11395
	movl	-348(%rbp), %eax	# run, tmp1395
	movl	%eax, (%rdx)	# tmp1395, *_370
	.loc 1 1227 0
	addl	$1, -352(%rbp)	#, scan_pos
	.loc 1 1228 0
	movl	$-1, -348(%rbp)	#, run
	.loc 1 1230 0
	movl	-360(%rbp), %eax	# coeff_ctr, tmp1397
	cltq
	movl	-224(%rbp,%rax,4), %edx	# m1, D.11388
	movl	-356(%rbp), %eax	# level, tmp1398
	movl	%edx, %esi	# D.11388,
	movl	%eax, %edi	# tmp1398,
	call	sign	#
	movl	%eax, -372(%rbp)	# tmp1399, ilev
.L287:
	.loc 1 1232 0
	movl	-360(%rbp), %eax	# coeff_ctr, tmp1401
	cltq
	movl	-372(%rbp), %edx	# ilev, tmp1402
	movl	%edx, -224(%rbp,%rax,4)	# tmp1402, m1
	.loc 1 1202 0
	addl	$1, -360(%rbp)	#, coeff_ctr
.L283:
	.loc 1 1202 0 is_stmt 0 discriminator 1
	cmpl	$3, -360(%rbp)	#, coeff_ctr
	jle	.L288	#,
	.loc 1 1234 0 is_stmt 1
	movl	-352(%rbp), %eax	# scan_pos, tmp1403
	cltq
	leaq	0(,%rax,4), %rdx	#, D.11389
	movq	-256(%rbp), %rax	# DCLevel, tmp1404
	addq	%rdx, %rax	# D.11389, D.11395
	movl	$0, (%rax)	#, *_378
	.loc 1 1237 0
	movl	-224(%rbp), %edx	# m1, D.11388
	movl	-220(%rbp), %eax	# m1, D.11388
	addl	%eax, %edx	# D.11388, D.11388
	movl	-216(%rbp), %eax	# m1, D.11388
	addl	%eax, %edx	# D.11388, D.11388
	movl	-212(%rbp), %eax	# m1, D.11388
	addl	%edx, %eax	# D.11388, D.11388
	movl	%eax, -208(%rbp)	# D.11388, m5
	.loc 1 1238 0
	movl	-224(%rbp), %edx	# m1, D.11388
	movl	-220(%rbp), %eax	# m1, D.11388
	subl	%eax, %edx	# D.11388, D.11388
	movl	-216(%rbp), %eax	# m1, D.11388
	addl	%eax, %edx	# D.11388, D.11388
	movl	-212(%rbp), %eax	# m1, D.11388
	subl	%eax, %edx	# D.11388, D.11388
	movl	%edx, %eax	# D.11388, D.11388
	movl	%eax, -204(%rbp)	# D.11388, m5
	.loc 1 1239 0
	movl	-224(%rbp), %edx	# m1, D.11388
	movl	-220(%rbp), %eax	# m1, D.11388
	addl	%eax, %edx	# D.11388, D.11388
	movl	-216(%rbp), %eax	# m1, D.11388
	subl	%eax, %edx	# D.11388, D.11388
	movl	-212(%rbp), %eax	# m1, D.11388
	subl	%eax, %edx	# D.11388, D.11388
	movl	%edx, %eax	# D.11388, D.11388
	movl	%eax, -200(%rbp)	# D.11388, m5
	.loc 1 1240 0
	movl	-224(%rbp), %edx	# m1, D.11388
	movl	-220(%rbp), %eax	# m1, D.11388
	subl	%eax, %edx	# D.11388, D.11388
	movl	-216(%rbp), %eax	# m1, D.11388
	subl	%eax, %edx	# D.11388, D.11388
	movl	-212(%rbp), %eax	# m1, D.11388
	addl	%edx, %eax	# D.11388, D.11388
	movl	%eax, -196(%rbp)	# D.11388, m5
	.loc 1 1241 0
	movl	$0, -380(%rbp)	#, i
	jmp	.L289	#
.L295:
	.loc 1 1243 0
	cmpl	$4, -292(%rbp)	#, qp_per
	jg	.L290	#,
	.loc 1 1245 0
	cmpl	$1, -312(%rbp)	#, intra
	jne	.L291	#,
	.loc 1 1246 0
	movl	-380(%rbp), %eax	# i, tmp1406
	cltq
	movl	-208(%rbp,%rax,4), %ecx	# m5, D.11388
	movl	-288(%rbp), %eax	# qp_rem, tmp1408
	movslq	%eax, %rsi	# tmp1408, tmp1407
	movl	-388(%rbp), %eax	# uv, tmp1410
	movslq	%eax, %rdx	# tmp1410, tmp1409
	movq	%rdx, %rax	# tmp1409, tmp1411
	addq	%rax, %rax	# tmp1411
	addq	%rdx, %rax	# tmp1409, tmp1411
	addq	%rax, %rax	# tmp1412
	addq	%rsi, %rax	# tmp1407, tmp1413
	salq	$6, %rax	#, tmp1414
	addq	$InvLevelScale4x4Chroma_Intra, %rax	#, tmp1415
	movl	(%rax), %eax	# InvLevelScale4x4Chroma_Intra, D.11388
	imull	%eax, %ecx	# D.11388, D.11388
	movl	%ecx, %edx	# D.11388, D.11388
	movl	$5, %eax	#, tmp1416
	subl	-292(%rbp), %eax	# qp_per, D.11388
	movl	%eax, %ecx	# D.11388, tmp2771
	sarl	%cl, %edx	# tmp2771, D.11388
	movl	-380(%rbp), %eax	# i, tmp1418
	cltq
	movl	%edx, -224(%rbp,%rax,4)	# D.11388, m1
	jmp	.L293	#
.L291:
	.loc 1 1248 0
	movl	-380(%rbp), %eax	# i, tmp1420
	cltq
	movl	-208(%rbp,%rax,4), %ecx	# m5, D.11388
	movl	-288(%rbp), %eax	# qp_rem, tmp1422
	movslq	%eax, %rsi	# tmp1422, tmp1421
	movl	-388(%rbp), %eax	# uv, tmp1424
	movslq	%eax, %rdx	# tmp1424, tmp1423
	movq	%rdx, %rax	# tmp1423, tmp1425
	addq	%rax, %rax	# tmp1425
	addq	%rdx, %rax	# tmp1423, tmp1425
	addq	%rax, %rax	# tmp1426
	addq	%rsi, %rax	# tmp1421, tmp1427
	salq	$6, %rax	#, tmp1428
	addq	$InvLevelScale4x4Chroma_Inter, %rax	#, tmp1429
	movl	(%rax), %eax	# InvLevelScale4x4Chroma_Inter, D.11388
	imull	%eax, %ecx	# D.11388, D.11388
	movl	%ecx, %edx	# D.11388, D.11388
	movl	$5, %eax	#, tmp1430
	subl	-292(%rbp), %eax	# qp_per, D.11388
	movl	%eax, %ecx	# D.11388, tmp2773
	sarl	%cl, %edx	# tmp2773, D.11388
	movl	-380(%rbp), %eax	# i, tmp1432
	cltq
	movl	%edx, -224(%rbp,%rax,4)	# D.11388, m1
	jmp	.L293	#
.L290:
	.loc 1 1252 0
	cmpl	$1, -312(%rbp)	#, intra
	jne	.L294	#,
	.loc 1 1253 0
	movl	-380(%rbp), %eax	# i, tmp1434
	cltq
	movl	-208(%rbp,%rax,4), %ecx	# m5, D.11388
	movl	-288(%rbp), %eax	# qp_rem, tmp1436
	movslq	%eax, %rsi	# tmp1436, tmp1435
	movl	-388(%rbp), %eax	# uv, tmp1438
	movslq	%eax, %rdx	# tmp1438, tmp1437
	movq	%rdx, %rax	# tmp1437, tmp1439
	addq	%rax, %rax	# tmp1439
	addq	%rdx, %rax	# tmp1437, tmp1439
	addq	%rax, %rax	# tmp1440
	addq	%rsi, %rax	# tmp1435, tmp1441
	salq	$6, %rax	#, tmp1442
	addq	$InvLevelScale4x4Chroma_Intra, %rax	#, tmp1443
	movl	(%rax), %eax	# InvLevelScale4x4Chroma_Intra, D.11388
	imull	%eax, %ecx	# D.11388, D.11388
	movl	%ecx, %edx	# D.11388, D.11388
	movl	-292(%rbp), %eax	# qp_per, tmp1444
	subl	$5, %eax	#, D.11388
	movl	%eax, %ecx	# D.11388, tmp2775
	sall	%cl, %edx	# tmp2775, D.11388
	movl	-380(%rbp), %eax	# i, tmp1446
	cltq
	movl	%edx, -224(%rbp,%rax,4)	# D.11388, m1
	jmp	.L293	#
.L294:
	.loc 1 1255 0
	movl	-380(%rbp), %eax	# i, tmp1448
	cltq
	movl	-208(%rbp,%rax,4), %ecx	# m5, D.11388
	movl	-288(%rbp), %eax	# qp_rem, tmp1450
	movslq	%eax, %rsi	# tmp1450, tmp1449
	movl	-388(%rbp), %eax	# uv, tmp1452
	movslq	%eax, %rdx	# tmp1452, tmp1451
	movq	%rdx, %rax	# tmp1451, tmp1453
	addq	%rax, %rax	# tmp1453
	addq	%rdx, %rax	# tmp1451, tmp1453
	addq	%rax, %rax	# tmp1454
	addq	%rsi, %rax	# tmp1449, tmp1455
	salq	$6, %rax	#, tmp1456
	addq	$InvLevelScale4x4Chroma_Inter, %rax	#, tmp1457
	movl	(%rax), %eax	# InvLevelScale4x4Chroma_Inter, D.11388
	imull	%eax, %ecx	# D.11388, D.11388
	movl	%ecx, %edx	# D.11388, D.11388
	movl	-292(%rbp), %eax	# qp_per, tmp1458
	subl	$5, %eax	#, D.11388
	movl	%eax, %ecx	# D.11388, tmp2777
	sall	%cl, %edx	# tmp2777, D.11388
	movl	-380(%rbp), %eax	# i, tmp1460
	cltq
	movl	%edx, -224(%rbp,%rax,4)	# D.11388, m1
.L293:
	.loc 1 1241 0
	addl	$1, -380(%rbp)	#, i
.L289:
	.loc 1 1241 0 is_stmt 0 discriminator 1
	cmpl	$3, -380(%rbp)	#, i
	jle	.L295	#,
	.loc 1 1258 0 is_stmt 1
	movq	img(%rip), %rax	# img, img.298
	movl	-224(%rbp), %edx	# m1, D.11388
	movl	%edx, 13112(%rax)	# D.11388, img.298_429->m7
	.loc 1 1259 0
	movq	img(%rip), %rax	# img, img.299
	movl	-220(%rbp), %edx	# m1, D.11388
	movl	%edx, 13368(%rax)	# D.11388, img.299_431->m7
	.loc 1 1260 0
	movq	img(%rip), %rax	# img, img.300
	movl	-216(%rbp), %edx	# m1, D.11388
	movl	%edx, 13128(%rax)	# D.11388, img.300_433->m7
	.loc 1 1261 0
	movq	img(%rip), %rax	# img, img.301
	movl	-212(%rbp), %edx	# m1, D.11388
	movl	%edx, 13384(%rax)	# D.11388, img.301_435->m7
	jmp	.L296	#
.L282:
	.loc 1 1263 0
	cmpl	$2, -304(%rbp)	#, yuv
	jne	.L297	#,
	.loc 1 1270 0
	movl	$0, -376(%rbp)	#, j
	jmp	.L298	#
.L301:
	.loc 1 1271 0
	movl	$0, -380(%rbp)	#, i
	jmp	.L299	#
.L300:
	.loc 1 1272 0 discriminator 2
	movl	-380(%rbp), %eax	# i, tmp1461
	sarl	$2, %eax	#, D.11388
	movl	%eax, %esi	# D.11388, D.11388
	movl	-376(%rbp), %eax	# j, tmp1462
	sarl	$2, %eax	#, D.11388
	movl	%eax, %edi	# D.11388, D.11388
	movq	img(%rip), %rax	# img, img.302
	movl	-376(%rbp), %edx	# j, tmp1464
	movslq	%edx, %rdx	# tmp1464, tmp1463
	movl	-380(%rbp), %ecx	# i, tmp1466
	movslq	%ecx, %rcx	# tmp1466, tmp1465
	salq	$4, %rcx	#, tmp1467
	addq	%rcx, %rdx	# tmp1467, tmp1468
	addq	$3276, %rdx	#, tmp1469
	movl	8(%rax,%rdx,4), %eax	# img.302_445->m7, D.11388
	movslq	%edi, %rdx	# D.11388, tmp1470
	movslq	%esi, %rcx	# D.11388, tmp1471
	salq	$2, %rcx	#, tmp1472
	addq	%rcx, %rdx	# tmp1472, tmp1473
	movl	%eax, -144(%rbp,%rdx,4)	# D.11388, m3
	.loc 1 1271 0 discriminator 2
	addl	$4, -380(%rbp)	#, i
.L299:
	.loc 1 1271 0 is_stmt 0 discriminator 1
	movq	img(%rip), %rax	# img, img.303
	movl	72708(%rax), %eax	# img.303_441->mb_cr_size_x, D.11388
	cmpl	-380(%rbp), %eax	# i, D.11388
	jg	.L300	#,
	.loc 1 1270 0 is_stmt 1
	addl	$4, -376(%rbp)	#, j
.L298:
	.loc 1 1270 0 is_stmt 0 discriminator 1
	movq	img(%rip), %rax	# img, img.304
	movl	72712(%rax), %eax	# img.304_438->mb_cr_size_y, D.11388
	cmpl	-376(%rbp), %eax	# j, D.11388
	jg	.L301	#,
	.loc 1 1275 0 is_stmt 1
	movl	-144(%rbp), %edx	# m3, D.11388
	movl	-128(%rbp), %eax	# m3, D.11388
	addl	%edx, %eax	# D.11388, D.11388
	movl	%eax, -80(%rbp)	# D.11388, m4
	.loc 1 1276 0
	movl	-140(%rbp), %edx	# m3, D.11388
	movl	-124(%rbp), %eax	# m3, D.11388
	addl	%edx, %eax	# D.11388, D.11388
	movl	%eax, -76(%rbp)	# D.11388, m4
	.loc 1 1277 0
	movl	-136(%rbp), %edx	# m3, D.11388
	movl	-120(%rbp), %eax	# m3, D.11388
	addl	%edx, %eax	# D.11388, D.11388
	movl	%eax, -72(%rbp)	# D.11388, m4
	.loc 1 1278 0
	movl	-132(%rbp), %edx	# m3, D.11388
	movl	-116(%rbp), %eax	# m3, D.11388
	addl	%edx, %eax	# D.11388, D.11388
	movl	%eax, -68(%rbp)	# D.11388, m4
	.loc 1 1280 0
	movl	-144(%rbp), %edx	# m3, D.11388
	movl	-128(%rbp), %eax	# m3, D.11388
	subl	%eax, %edx	# D.11388, D.11388
	movl	%edx, %eax	# D.11388, D.11388
	movl	%eax, -64(%rbp)	# D.11388, m4
	.loc 1 1281 0
	movl	-140(%rbp), %edx	# m3, D.11388
	movl	-124(%rbp), %eax	# m3, D.11388
	subl	%eax, %edx	# D.11388, D.11388
	movl	%edx, %eax	# D.11388, D.11388
	movl	%eax, -60(%rbp)	# D.11388, m4
	.loc 1 1282 0
	movl	-136(%rbp), %edx	# m3, D.11388
	movl	-120(%rbp), %eax	# m3, D.11388
	subl	%eax, %edx	# D.11388, D.11388
	movl	%edx, %eax	# D.11388, D.11388
	movl	%eax, -56(%rbp)	# D.11388, m4
	.loc 1 1283 0
	movl	-132(%rbp), %edx	# m3, D.11388
	movl	-116(%rbp), %eax	# m3, D.11388
	subl	%eax, %edx	# D.11388, D.11388
	movl	%edx, %eax	# D.11388, D.11388
	movl	%eax, -52(%rbp)	# D.11388, m4
	.loc 1 1286 0
	movl	$0, -380(%rbp)	#, i
	jmp	.L302	#
.L305:
	.loc 1 1288 0
	movl	$0, -376(%rbp)	#, j
	jmp	.L303	#
.L304:
	.loc 1 1290 0 discriminator 2
	movl	$3, %eax	#, tmp1477
	subl	-376(%rbp), %eax	# j, tmp1476
	movl	%eax, -272(%rbp)	# tmp1476, j1
	.loc 1 1291 0 discriminator 2
	movl	-376(%rbp), %eax	# j, tmp1479
	cltq
	movl	-380(%rbp), %edx	# i, tmp1481
	movslq	%edx, %rdx	# tmp1481, tmp1480
	salq	$2, %rdx	#, tmp1482
	addq	%rdx, %rax	# tmp1482, tmp1483
	movl	-80(%rbp,%rax,4), %edx	# m4, D.11388
	movl	-272(%rbp), %eax	# j1, tmp1485
	cltq
	movl	-380(%rbp), %ecx	# i, tmp1487
	movslq	%ecx, %rcx	# tmp1487, tmp1486
	salq	$2, %rcx	#, tmp1488
	addq	%rcx, %rax	# tmp1488, tmp1489
	movl	-80(%rbp,%rax,4), %eax	# m4, D.11388
	addl	%eax, %edx	# D.11388, D.11388
	movl	-376(%rbp), %eax	# j, tmp1491
	cltq
	movl	%edx, -208(%rbp,%rax,4)	# D.11388, m5
	.loc 1 1292 0 discriminator 2
	movl	-376(%rbp), %eax	# j, tmp1493
	cltq
	movl	-380(%rbp), %edx	# i, tmp1495
	movslq	%edx, %rdx	# tmp1495, tmp1494
	salq	$2, %rdx	#, tmp1496
	addq	%rdx, %rax	# tmp1496, tmp1497
	movl	-80(%rbp,%rax,4), %edx	# m4, D.11388
	movl	-272(%rbp), %eax	# j1, tmp1499
	cltq
	movl	-380(%rbp), %ecx	# i, tmp1501
	movslq	%ecx, %rcx	# tmp1501, tmp1500
	salq	$2, %rcx	#, tmp1502
	addq	%rcx, %rax	# tmp1502, tmp1503
	movl	-80(%rbp,%rax,4), %eax	# m4, D.11388
	subl	%eax, %edx	# D.11388, D.11388
	movl	-272(%rbp), %eax	# j1, tmp1505
	cltq
	movl	%edx, -208(%rbp,%rax,4)	# D.11388, m5
	.loc 1 1288 0 discriminator 2
	addl	$1, -376(%rbp)	#, j
.L303:
	.loc 1 1288 0 is_stmt 0 discriminator 1
	cmpl	$1, -376(%rbp)	#, j
	jle	.L304	#,
	.loc 1 1294 0 is_stmt 1
	movl	-208(%rbp), %edx	# m5, D.11388
	movl	-204(%rbp), %eax	# m5, D.11388
	addl	%eax, %edx	# D.11388, D.11388
	movl	-380(%rbp), %eax	# i, tmp1507
	cltq
	salq	$4, %rax	#, tmp1508
	leaq	-16(%rbp), %rbx	#, tmp2784
	addq	%rbx, %rax	# tmp2784, tmp1509
	subq	$64, %rax	#, tmp1510
	movl	%edx, (%rax)	# D.11388, m4
	.loc 1 1295 0
	movl	-208(%rbp), %edx	# m5, D.11388
	movl	-204(%rbp), %eax	# m5, D.11388
	subl	%eax, %edx	# D.11388, D.11388
	movl	-380(%rbp), %eax	# i, tmp1512
	cltq
	salq	$4, %rax	#, tmp1513
	leaq	-16(%rbp), %rbx	#, tmp2785
	addq	%rbx, %rax	# tmp2785, tmp1514
	subq	$56, %rax	#, tmp1515
	movl	%edx, (%rax)	# D.11388, m4
	.loc 1 1296 0
	movl	-196(%rbp), %edx	# m5, D.11388
	movl	-200(%rbp), %eax	# m5, D.11388
	addl	%eax, %edx	# D.11388, D.11388
	movl	-380(%rbp), %eax	# i, tmp1517
	cltq
	salq	$4, %rax	#, tmp1518
	leaq	-16(%rbp), %rbx	#, tmp2786
	addq	%rbx, %rax	# tmp2786, tmp1519
	subq	$60, %rax	#, tmp1520
	movl	%edx, (%rax)	# D.11388, m4
	.loc 1 1297 0
	movl	-196(%rbp), %edx	# m5, D.11388
	movl	-200(%rbp), %eax	# m5, D.11388
	subl	%eax, %edx	# D.11388, D.11388
	movl	-380(%rbp), %eax	# i, tmp1522
	cltq
	salq	$4, %rax	#, tmp1523
	leaq	-16(%rbp), %rbx	#, tmp2787
	addq	%rbx, %rax	# tmp2787, tmp1524
	subq	$52, %rax	#, tmp1525
	movl	%edx, (%rax)	# D.11388, m4
	.loc 1 1286 0
	addl	$1, -380(%rbp)	#, i
.L302:
	.loc 1 1286 0 is_stmt 0 discriminator 1
	cmpl	$1, -380(%rbp)	#, i
	jle	.L305	#,
	.loc 1 1300 0 is_stmt 1
	movl	$-1, -348(%rbp)	#, run
	.loc 1 1301 0
	movl	$0, -352(%rbp)	#, scan_pos
	.loc 1 1304 0
	movl	$0, -360(%rbp)	#, coeff_ctr
	jmp	.L306	#
.L310:
	.loc 1 1306 0
	movl	-360(%rbp), %eax	# coeff_ctr, tmp1527
	cltq
	movzbl	SCAN_YUV422(%rax,%rax), %eax	# SCAN_YUV422, D.11393
	movzbl	%al, %eax	# D.11393, tmp1528
	movl	%eax, -380(%rbp)	# tmp1528, i
	.loc 1 1307 0
	movl	-360(%rbp), %eax	# coeff_ctr, tmp1530
	cltq
	movzbl	SCAN_YUV422+1(%rax,%rax), %eax	# SCAN_YUV422, D.11393
	movzbl	%al, %eax	# D.11393, tmp1531
	movl	%eax, -376(%rbp)	# tmp1531, j
	.loc 1 1309 0
	addl	$1, -348(%rbp)	#, run
	.loc 1 1311 0
	cmpl	$1, -312(%rbp)	#, intra
	jne	.L307	#,
	.loc 1 1312 0
	movl	-376(%rbp), %eax	# j, tmp1533
	cltq
	movl	-380(%rbp), %edx	# i, tmp1535
	movslq	%edx, %rdx	# tmp1535, tmp1534
	salq	$2, %rdx	#, tmp1536
	addq	%rdx, %rax	# tmp1536, tmp1537
	movl	-80(%rbp,%rax,4), %eax	# m4, D.11388
	movl	%eax, %ecx	# D.11388, tmp1538
	sarl	$31, %ecx	#, tmp1538
	xorl	%ecx, %eax	# tmp1538, D.11388
	movl	%eax, %edx	# D.11388, D.11388
	subl	%ecx, %edx	# tmp1538, D.11388
	movl	-320(%rbp), %eax	# qp_rem_dc, tmp1540
	movslq	%eax, %rsi	# tmp1540, tmp1539
	movl	-388(%rbp), %eax	# uv, tmp1542
	movslq	%eax, %rcx	# tmp1542, tmp1541
	movq	%rcx, %rax	# tmp1541, tmp1543
	addq	%rax, %rax	# tmp1543
	addq	%rcx, %rax	# tmp1541, tmp1543
	addq	%rax, %rax	# tmp1544
	addq	%rsi, %rax	# tmp1539, tmp1545
	salq	$6, %rax	#, tmp1546
	addq	$LevelScale4x4Chroma_Intra, %rax	#, tmp1547
	movl	(%rax), %eax	# LevelScale4x4Chroma_Intra, D.11388
	movl	%edx, %ecx	# D.11388, D.11388
	imull	%eax, %ecx	# D.11388, D.11388
	movl	-324(%rbp), %eax	# qp_per_dc, tmp1549
	movslq	%eax, %rsi	# tmp1549, tmp1548
	movl	-388(%rbp), %eax	# uv, tmp1551
	movslq	%eax, %rdx	# tmp1551, tmp1550
	movq	%rdx, %rax	# tmp1550, tmp1552
	addq	%rax, %rax	# tmp1552
	addq	%rdx, %rax	# tmp1550, tmp1552
	salq	$2, %rax	#, tmp1552
	addq	%rdx, %rax	# tmp1550, tmp1552
	addq	%rsi, %rax	# tmp1548, tmp1553
	salq	$6, %rax	#, tmp1554
	addq	$LevelOffset4x4Chroma_Intra, %rax	#, tmp1555
	movl	(%rax), %eax	# LevelOffset4x4Chroma_Intra, D.11388
	addl	%eax, %eax	# D.11388
	leal	(%rcx,%rax), %edx	#, D.11388
	movl	-316(%rbp), %eax	# q_bits_422, tmp1556
	addl	$1, %eax	#, D.11388
	movl	%eax, %ecx	# D.11388, tmp2792
	sarl	%cl, %edx	# tmp2792, tmp1557
	movl	%edx, %eax	# tmp1557, tmp1557
	movl	%eax, -356(%rbp)	# tmp1557, level
	jmp	.L308	#
.L307:
	.loc 1 1314 0
	movl	-376(%rbp), %eax	# j, tmp1559
	cltq
	movl	-380(%rbp), %edx	# i, tmp1561
	movslq	%edx, %rdx	# tmp1561, tmp1560
	salq	$2, %rdx	#, tmp1562
	addq	%rdx, %rax	# tmp1562, tmp1563
	movl	-80(%rbp,%rax,4), %eax	# m4, D.11388
	movl	%eax, %ecx	# D.11388, tmp1564
	sarl	$31, %ecx	#, tmp1564
	xorl	%ecx, %eax	# tmp1564, D.11388
	movl	%eax, %edx	# D.11388, D.11388
	subl	%ecx, %edx	# tmp1564, D.11388
	movl	-320(%rbp), %eax	# qp_rem_dc, tmp1566
	movslq	%eax, %rsi	# tmp1566, tmp1565
	movl	-388(%rbp), %eax	# uv, tmp1568
	movslq	%eax, %rcx	# tmp1568, tmp1567
	movq	%rcx, %rax	# tmp1567, tmp1569
	addq	%rax, %rax	# tmp1569
	addq	%rcx, %rax	# tmp1567, tmp1569
	addq	%rax, %rax	# tmp1570
	addq	%rsi, %rax	# tmp1565, tmp1571
	salq	$6, %rax	#, tmp1572
	addq	$LevelScale4x4Chroma_Inter, %rax	#, tmp1573
	movl	(%rax), %eax	# LevelScale4x4Chroma_Inter, D.11388
	movl	%edx, %ecx	# D.11388, D.11388
	imull	%eax, %ecx	# D.11388, D.11388
	movl	-324(%rbp), %eax	# qp_per_dc, tmp1575
	movslq	%eax, %rsi	# tmp1575, tmp1574
	movl	-388(%rbp), %eax	# uv, tmp1577
	movslq	%eax, %rdx	# tmp1577, tmp1576
	movq	%rdx, %rax	# tmp1576, tmp1578
	addq	%rax, %rax	# tmp1578
	addq	%rdx, %rax	# tmp1576, tmp1578
	salq	$2, %rax	#, tmp1578
	addq	%rdx, %rax	# tmp1576, tmp1578
	addq	%rsi, %rax	# tmp1574, tmp1579
	salq	$6, %rax	#, tmp1580
	addq	$LevelOffset4x4Chroma_Inter, %rax	#, tmp1581
	movl	(%rax), %eax	# LevelOffset4x4Chroma_Inter, D.11388
	addl	%eax, %eax	# D.11388
	leal	(%rcx,%rax), %edx	#, D.11388
	movl	-316(%rbp), %eax	# q_bits_422, tmp1582
	addl	$1, %eax	#, D.11388
	movl	%eax, %ecx	# D.11388, tmp2797
	sarl	%cl, %edx	# tmp2797, tmp1583
	movl	%edx, %eax	# tmp1583, tmp1583
	movl	%eax, -356(%rbp)	# tmp1583, level
.L308:
	.loc 1 1316 0
	cmpl	$0, -356(%rbp)	#, level
	je	.L309	#,
	.loc 1 1319 0
	movq	-264(%rbp), %rax	# currMB, tmp1584
	movq	464(%rax), %rdx	# currMB_113->cbp_blk, D.11394
	movl	-388(%rbp), %eax	# uv, tmp1585
	sall	$3, %eax	#, D.11388
	movl	$16711680, %esi	#, tmp1586
	movl	%eax, %ecx	# D.11388, tmp2799
	sall	%cl, %esi	# tmp2799, D.11388
	movl	%esi, %eax	# D.11388, D.11388
	cltq
	orq	%rax, %rdx	# D.11394, D.11394
	movq	-264(%rbp), %rax	# currMB, tmp1587
	movq	%rdx, 464(%rax)	# D.11394, currMB_113->cbp_blk
	.loc 1 1320 0
	movl	$1, %eax	#, tmp1589
	cmpl	$0, -392(%rbp)	#, cr_cbp
	cmovg	-392(%rbp), %eax	# cr_cbp,, tmp1588
	movl	%eax, -392(%rbp)	# tmp1588, cr_cbp
	.loc 1 1321 0
	movl	$1, -336(%rbp)	#, DCcoded
	.loc 1 1323 0
	movl	-352(%rbp), %eax	# scan_pos, tmp1590
	cltq
	leaq	0(,%rax,4), %rdx	#, D.11389
	movq	-256(%rbp), %rax	# DCLevel, tmp1591
	leaq	(%rdx,%rax), %rbx	#, D.11395
	movl	-376(%rbp), %eax	# j, tmp1593
	cltq
	movl	-380(%rbp), %edx	# i, tmp1595
	movslq	%edx, %rdx	# tmp1595, tmp1594
	salq	$2, %rdx	#, tmp1596
	addq	%rdx, %rax	# tmp1596, tmp1597
	movl	-80(%rbp,%rax,4), %edx	# m4, D.11388
	movl	-356(%rbp), %eax	# level, tmp1598
	movl	%edx, %esi	# D.11388,
	movl	%eax, %edi	# tmp1598,
	call	sign	#
	movl	%eax, (%rbx)	# D.11388, *_531
	.loc 1 1324 0
	movl	-352(%rbp), %eax	# scan_pos, tmp1599
	cltq
	leaq	0(,%rax,4), %rdx	#, D.11389
	movq	-248(%rbp), %rax	# DCRun, tmp1600
	addq	%rax, %rdx	# tmp1600, D.11395
	movl	-348(%rbp), %eax	# run, tmp1601
	movl	%eax, (%rdx)	# tmp1601, *_536
	.loc 1 1325 0
	addl	$1, -352(%rbp)	#, scan_pos
	.loc 1 1326 0
	movl	$-1, -348(%rbp)	#, run
.L309:
	.loc 1 1328 0
	movl	-376(%rbp), %eax	# j, tmp1603
	cltq
	movl	-380(%rbp), %edx	# i, tmp1605
	movslq	%edx, %rdx	# tmp1605, tmp1604
	salq	$2, %rdx	#, tmp1606
	addq	%rdx, %rax	# tmp1606, tmp1607
	movl	-80(%rbp,%rax,4), %edx	# m4, D.11388
	movl	-356(%rbp), %eax	# level, tmp1608
	movl	%edx, %esi	# D.11388,
	movl	%eax, %edi	# tmp1608,
	call	sign	#
	movl	-376(%rbp), %edx	# j, tmp1610
	movslq	%edx, %rdx	# tmp1610, tmp1609
	movl	-380(%rbp), %ecx	# i, tmp1612
	movslq	%ecx, %rcx	# tmp1612, tmp1611
	salq	$2, %rcx	#, tmp1613
	addq	%rcx, %rdx	# tmp1613, tmp1614
	movl	%eax, -144(%rbp,%rdx,4)	# D.11388, m3
	.loc 1 1304 0
	addl	$1, -360(%rbp)	#, coeff_ctr
.L306:
	.loc 1 1304 0 is_stmt 0 discriminator 1
	cmpl	$7, -360(%rbp)	#, coeff_ctr
	jle	.L310	#,
	.loc 1 1330 0 is_stmt 1
	movl	-352(%rbp), %eax	# scan_pos, tmp1615
	cltq
	leaq	0(,%rax,4), %rdx	#, D.11389
	movq	-256(%rbp), %rax	# DCLevel, tmp1616
	addq	%rdx, %rax	# D.11389, D.11395
	movl	$0, (%rax)	#, *_544
	.loc 1 1334 0
	movl	-144(%rbp), %edx	# m3, D.11388
	movl	-128(%rbp), %eax	# m3, D.11388
	addl	%edx, %eax	# D.11388, D.11388
	movl	%eax, -80(%rbp)	# D.11388, m4
	.loc 1 1335 0
	movl	-140(%rbp), %edx	# m3, D.11388
	movl	-124(%rbp), %eax	# m3, D.11388
	addl	%edx, %eax	# D.11388, D.11388
	movl	%eax, -76(%rbp)	# D.11388, m4
	.loc 1 1336 0
	movl	-136(%rbp), %edx	# m3, D.11388
	movl	-120(%rbp), %eax	# m3, D.11388
	addl	%edx, %eax	# D.11388, D.11388
	movl	%eax, -72(%rbp)	# D.11388, m4
	.loc 1 1337 0
	movl	-132(%rbp), %edx	# m3, D.11388
	movl	-116(%rbp), %eax	# m3, D.11388
	addl	%edx, %eax	# D.11388, D.11388
	movl	%eax, -68(%rbp)	# D.11388, m4
	.loc 1 1339 0
	movl	-144(%rbp), %edx	# m3, D.11388
	movl	-128(%rbp), %eax	# m3, D.11388
	subl	%eax, %edx	# D.11388, D.11388
	movl	%edx, %eax	# D.11388, D.11388
	movl	%eax, -64(%rbp)	# D.11388, m4
	.loc 1 1340 0
	movl	-140(%rbp), %edx	# m3, D.11388
	movl	-124(%rbp), %eax	# m3, D.11388
	subl	%eax, %edx	# D.11388, D.11388
	movl	%edx, %eax	# D.11388, D.11388
	movl	%eax, -60(%rbp)	# D.11388, m4
	.loc 1 1341 0
	movl	-136(%rbp), %edx	# m3, D.11388
	movl	-120(%rbp), %eax	# m3, D.11388
	subl	%eax, %edx	# D.11388, D.11388
	movl	%edx, %eax	# D.11388, D.11388
	movl	%eax, -56(%rbp)	# D.11388, m4
	.loc 1 1342 0
	movl	-132(%rbp), %edx	# m3, D.11388
	movl	-116(%rbp), %eax	# m3, D.11388
	subl	%eax, %edx	# D.11388, D.11388
	movl	%edx, %eax	# D.11388, D.11388
	movl	%eax, -52(%rbp)	# D.11388, m4
	.loc 1 1346 0
	movl	$0, -380(%rbp)	#, i
	jmp	.L311	#
.L321:
	.loc 1 1348 0
	movl	$0, -376(%rbp)	#, j
	jmp	.L312	#
.L313:
	.loc 1 1349 0 discriminator 2
	movl	-376(%rbp), %eax	# j, tmp1618
	cltq
	movl	-380(%rbp), %edx	# i, tmp1620
	movslq	%edx, %rdx	# tmp1620, tmp1619
	salq	$2, %rdx	#, tmp1621
	addq	%rdx, %rax	# tmp1621, tmp1622
	movl	-80(%rbp,%rax,4), %edx	# m4, D.11388
	movl	-376(%rbp), %eax	# j, tmp1624
	cltq
	movl	%edx, -208(%rbp,%rax,4)	# D.11388, m5
	.loc 1 1348 0 discriminator 2
	addl	$1, -376(%rbp)	#, j
.L312:
	.loc 1 1348 0 is_stmt 0 discriminator 1
	cmpl	$3, -376(%rbp)	#, j
	jle	.L313	#,
	.loc 1 1351 0 is_stmt 1
	movl	-208(%rbp), %edx	# m5, D.11388
	movl	-200(%rbp), %eax	# m5, D.11388
	addl	%edx, %eax	# D.11388, D.11388
	movl	%eax, -192(%rbp)	# D.11388, m6
	.loc 1 1352 0
	movl	-208(%rbp), %edx	# m5, D.11388
	movl	-200(%rbp), %eax	# m5, D.11388
	subl	%eax, %edx	# D.11388, D.11388
	movl	%edx, %eax	# D.11388, D.11388
	movl	%eax, -188(%rbp)	# D.11388, m6
	.loc 1 1353 0
	movl	-204(%rbp), %edx	# m5, D.11388
	movl	-196(%rbp), %eax	# m5, D.11388
	subl	%eax, %edx	# D.11388, D.11388
	movl	%edx, %eax	# D.11388, D.11388
	movl	%eax, -184(%rbp)	# D.11388, m6
	.loc 1 1354 0
	movl	-204(%rbp), %edx	# m5, D.11388
	movl	-196(%rbp), %eax	# m5, D.11388
	addl	%edx, %eax	# D.11388, D.11388
	movl	%eax, -180(%rbp)	# D.11388, m6
	.loc 1 1356 0
	movl	$0, -376(%rbp)	#, j
	jmp	.L314	#
.L320:
	.loc 1 1358 0
	movl	$3, %eax	#, tmp1628
	subl	-376(%rbp), %eax	# j, tmp1627
	movl	%eax, -272(%rbp)	# tmp1627, j1
	.loc 1 1360 0
	cmpl	$3, -324(%rbp)	#, qp_per_dc
	jg	.L315	#,
	.loc 1 1362 0
	cmpl	$1, -312(%rbp)	#, intra
	jne	.L316	#,
	.loc 1 1364 0
	movq	img(%rip), %rsi	# img, img.305
	movl	-380(%rbp), %eax	# i, tmp1629
	leal	0(,%rax,4), %r8d	#, D.11388
	movl	-376(%rbp), %eax	# j, tmp1630
	leal	0(,%rax,4), %r9d	#, D.11388
	movl	-376(%rbp), %eax	# j, tmp1632
	cltq
	movl	-192(%rbp,%rax,4), %edx	# m6, D.11388
	movl	-272(%rbp), %eax	# j1, tmp1634
	cltq
	movl	-192(%rbp,%rax,4), %eax	# m6, D.11388
	leal	(%rdx,%rax), %edi	#, D.11388
	movl	-320(%rbp), %eax	# qp_rem_dc, tmp1636
	movslq	%eax, %rcx	# tmp1636, tmp1635
	movl	-388(%rbp), %eax	# uv, tmp1638
	movslq	%eax, %rdx	# tmp1638, tmp1637
	movq	%rdx, %rax	# tmp1637, tmp1639
	addq	%rax, %rax	# tmp1639
	addq	%rdx, %rax	# tmp1637, tmp1639
	addq	%rax, %rax	# tmp1640
	addq	%rcx, %rax	# tmp1635, tmp1641
	salq	$6, %rax	#, tmp1642
	addq	$InvLevelScale4x4Chroma_Intra, %rax	#, tmp1643
	movl	(%rax), %eax	# InvLevelScale4x4Chroma_Intra, D.11388
	imull	%eax, %edi	# D.11388, D.11388
	movl	%edi, %edx	# D.11388, D.11388
	movl	$3, %eax	#, tmp1644
	subl	-324(%rbp), %eax	# qp_per_dc, D.11388
	movl	$1, %edi	#, tmp1645
	movl	%eax, %ecx	# D.11388, tmp2808
	sall	%cl, %edi	# tmp2808, D.11388
	movl	%edi, %eax	# D.11388, D.11388
	addl	%eax, %edx	# D.11388, D.11388
	movl	$4, %eax	#, tmp1646
	subl	-324(%rbp), %eax	# qp_per_dc, D.11388
	movl	%eax, %ecx	# D.11388, tmp2810
	sarl	%cl, %edx	# tmp2810, D.11388
	movl	%edx, %eax	# D.11388, D.11388
	addl	$2, %eax	#, D.11388
	sarl	$2, %eax	#, D.11388
	movl	%eax, %edx	# D.11388, D.11388
	movslq	%r9d, %rax	# D.11388, tmp1647
	movslq	%r8d, %rcx	# D.11388, tmp1648
	salq	$4, %rcx	#, tmp1649
	addq	%rcx, %rax	# tmp1649, tmp1650
	addq	$3276, %rax	#, tmp1651
	movl	%edx, 8(%rsi,%rax,4)	# D.11388, img.305_587->m7
	.loc 1 1365 0
	movq	img(%rip), %rsi	# img, img.306
	movl	-380(%rbp), %eax	# i, tmp1652
	leal	0(,%rax,4), %r8d	#, D.11388
	movl	-272(%rbp), %eax	# j1, tmp1653
	leal	0(,%rax,4), %r9d	#, D.11388
	movl	-376(%rbp), %eax	# j, tmp1655
	cltq
	movl	-192(%rbp,%rax,4), %edx	# m6, D.11388
	movl	-272(%rbp), %eax	# j1, tmp1657
	cltq
	movl	-192(%rbp,%rax,4), %eax	# m6, D.11388
	movl	%edx, %edi	# D.11388, D.11388
	subl	%eax, %edi	# D.11388, D.11388
	movl	-320(%rbp), %eax	# qp_rem_dc, tmp1659
	movslq	%eax, %rcx	# tmp1659, tmp1658
	movl	-388(%rbp), %eax	# uv, tmp1661
	movslq	%eax, %rdx	# tmp1661, tmp1660
	movq	%rdx, %rax	# tmp1660, tmp1662
	addq	%rax, %rax	# tmp1662
	addq	%rdx, %rax	# tmp1660, tmp1662
	addq	%rax, %rax	# tmp1663
	addq	%rcx, %rax	# tmp1658, tmp1664
	salq	$6, %rax	#, tmp1665
	addq	$InvLevelScale4x4Chroma_Intra, %rax	#, tmp1666
	movl	(%rax), %eax	# InvLevelScale4x4Chroma_Intra, D.11388
	imull	%eax, %edi	# D.11388, D.11388
	movl	%edi, %edx	# D.11388, D.11388
	movl	$3, %eax	#, tmp1667
	subl	-324(%rbp), %eax	# qp_per_dc, D.11388
	movl	$1, %edi	#, tmp1668
	movl	%eax, %ecx	# D.11388, tmp2815
	sall	%cl, %edi	# tmp2815, D.11388
	movl	%edi, %eax	# D.11388, D.11388
	addl	%eax, %edx	# D.11388, D.11388
	movl	$4, %eax	#, tmp1669
	subl	-324(%rbp), %eax	# qp_per_dc, D.11388
	movl	%eax, %ecx	# D.11388, tmp2817
	sarl	%cl, %edx	# tmp2817, D.11388
	movl	%edx, %eax	# D.11388, D.11388
	addl	$2, %eax	#, D.11388
	sarl	$2, %eax	#, D.11388
	movl	%eax, %edx	# D.11388, D.11388
	movslq	%r9d, %rax	# D.11388, tmp1670
	movslq	%r8d, %rcx	# D.11388, tmp1671
	salq	$4, %rcx	#, tmp1672
