	.file	"explicit_gop.c"
# GNU C (Ubuntu/Linaro 4.8.1-10ubuntu9) version 4.8.1 (x86_64-linux-gnu)
#	compiled by GNU C version 4.8.1, GMP version 5.1.2, MPFR version 3.1.1-p2, MPC version 1.0.1
# GGC heuristics: --param ggc-min-expand=100 --param ggc-min-heapsize=131072
# options passed:  -imultiarch x86_64-linux-gnu -D SPEC_CPU -D NDEBUG
# -D SPEC_CPU_LP64 explicit_gop.c -mtune=generic -march=x86-64 -g
# -fverbose-asm -fno-strict-aliasing -fstack-protector -Wformat
# -Wformat-security
# options enabled:  -faggressive-loop-optimizations
# -fasynchronous-unwind-tables -fauto-inc-dec -fbranch-count-reg -fcommon
# -fdelete-null-pointer-checks -fdwarf2-cfi-asm -fearly-inlining
# -feliminate-unused-debug-types -ffunction-cse -fgcse-lm -fgnu-runtime
# -fident -finline-atomics -fira-hoist-pressure -fira-share-save-slots
# -fira-share-spill-slots -fivopts -fkeep-static-consts
# -fleading-underscore -fmath-errno -fmerge-debug-strings
# -fmove-loop-invariants -fpeephole -fprefetch-loop-arrays
# -freg-struct-return -fsched-critical-path-heuristic
# -fsched-dep-count-heuristic -fsched-group-heuristic -fsched-interblock
# -fsched-last-insn-heuristic -fsched-rank-heuristic -fsched-spec
# -fsched-spec-insn-heuristic -fsched-stalled-insns-dep -fshow-column
# -fsigned-zeros -fsplit-ivs-in-unroller -fstack-protector
# -fstrict-volatile-bitfields -fsync-libcalls -ftrapping-math
# -ftree-coalesce-vars -ftree-cselim -ftree-forwprop -ftree-loop-if-convert
# -ftree-loop-im -ftree-loop-ivcanon -ftree-loop-optimize
# -ftree-parallelize-loops= -ftree-phiprop -ftree-pta -ftree-reassoc
# -ftree-scev-cprop -ftree-slp-vectorize -ftree-vect-loop-version
# -funit-at-a-time -funwind-tables -fverbose-asm -fzero-initialized-in-bss
# -m128bit-long-double -m64 -m80387 -maccumulate-outgoing-args
# -malign-stringops -mfancy-math-387 -mfp-ret-in-387 -mfxsr -mglibc
# -mieee-fp -mlong-double-80 -mmmx -mno-sse4 -mpush-args -mred-zone -msse
# -msse2 -mtls-direct-seg-refs

	.text
.Ltext0:
	.section	.rodata
.LC0:
	.string	"create_pyramid:curGOPLevelfrm"
	.align 8
.LC1:
	.string	"create_pyramid:curGOPLeveldist"
	.text
	.globl	create_pyramid
	.type	create_pyramid, @function
create_pyramid:
.LFB2:
	.file 1 "explicit_gop.c"
	.loc 1 33 0
	.cfi_startproc
	pushq	%rbp	#
	.cfi_def_cfa_offset 16
	.cfi_offset 6, -16
	movq	%rsp, %rbp	#,
	.cfi_def_cfa_register 6
	subq	$64, %rsp	#,
	.loc 1 35 0
	movq	input(%rip), %rax	# input, input.0
	movl	1236(%rax), %eax	# input.0_11->successive_Bframe, D.5509
	movl	%eax, %edx	# D.5509, tmp269
	shrl	$31, %edx	#, tmp269
	addl	%edx, %eax	# tmp269, tmp270
	sarl	%eax	# tmp271
	movl	%eax, -24(%rbp)	# tmp271, centerB
	.loc 1 37 0
	movq	input(%rip), %rax	# input, input.1
	movl	1320(%rax), %eax	# input.1_14->PyramidCoding, D.5509
	cmpl	$1, %eax	#, D.5509
	jne	.L2	#,
	.loc 1 39 0
	movl	$0, -56(%rbp)	#, i
	jmp	.L3	#
.L6:
	.loc 1 41 0
	movl	-56(%rbp), %eax	# i, tmp272
	cmpl	-24(%rbp), %eax	# centerB, tmp272
	jge	.L4	#,
	.loc 1 43 0
	movq	gop_structure(%rip), %rcx	# gop_structure, gop_structure.2
	movl	-56(%rbp), %eax	# i, tmp273
	movslq	%eax, %rdx	# tmp273, D.5510
	movq	%rdx, %rax	# D.5510, tmp274
	addq	%rax, %rax	# tmp274
	addq	%rdx, %rax	# D.5510, tmp274
	salq	$3, %rax	#, tmp275
	addq	%rcx, %rax	# gop_structure.2, D.5511
	movl	$1, (%rax)	#, _22->slice_type
	.loc 1 44 0
	movq	gop_structure(%rip), %rcx	# gop_structure, gop_structure.3
	movl	-56(%rbp), %eax	# i, tmp276
	movslq	%eax, %rdx	# tmp276, D.5510
	movq	%rdx, %rax	# D.5510, tmp277
	addq	%rax, %rax	# tmp277
	addq	%rdx, %rax	# D.5510, tmp277
	salq	$3, %rax	#, tmp278
	addq	%rcx, %rax	# gop_structure.3, D.5511
	movl	-56(%rbp), %edx	# i, tmp279
	addl	%edx, %edx	# D.5509
	addl	$1, %edx	#, D.5509
	movl	%edx, 4(%rax)	# D.5509, _26->display_no
	.loc 1 45 0
	movq	gop_structure(%rip), %rcx	# gop_structure, gop_structure.4
	movl	-56(%rbp), %eax	# i, tmp280
	movslq	%eax, %rdx	# tmp280, D.5510
	movq	%rdx, %rax	# D.5510, tmp281
	addq	%rax, %rax	# tmp281
	addq	%rdx, %rax	# D.5510, tmp281
	salq	$3, %rax	#, tmp282
	addq	%rcx, %rax	# gop_structure.4, D.5511
	movl	$0, 16(%rax)	#, _32->pyramid_layer
	.loc 1 46 0
	movq	gop_structure(%rip), %rcx	# gop_structure, gop_structure.5
	movl	-56(%rbp), %eax	# i, tmp283
	movslq	%eax, %rdx	# tmp283, D.5510
	movq	%rdx, %rax	# D.5510, tmp284
	addq	%rax, %rax	# tmp284
	addq	%rdx, %rax	# D.5510, tmp284
	salq	$3, %rax	#, tmp285
	addq	%rcx, %rax	# gop_structure.5, D.5511
	movl	$2, 8(%rax)	#, _36->reference_idc
	jmp	.L5	#
.L4:
	.loc 1 50 0
	movq	gop_structure(%rip), %rcx	# gop_structure, gop_structure.6
	movl	-56(%rbp), %eax	# i, tmp286
	movslq	%eax, %rdx	# tmp286, D.5510
	movq	%rdx, %rax	# D.5510, tmp287
	addq	%rax, %rax	# tmp287
	addq	%rdx, %rax	# D.5510, tmp287
	salq	$3, %rax	#, tmp288
	addq	%rcx, %rax	# gop_structure.6, D.5511
	movl	$1, (%rax)	#, _40->slice_type
	.loc 1 51 0
	movq	gop_structure(%rip), %rcx	# gop_structure, gop_structure.7
	movl	-56(%rbp), %eax	# i, tmp289
	movslq	%eax, %rdx	# tmp289, D.5510
	movq	%rdx, %rax	# D.5510, tmp290
	addq	%rax, %rax	# tmp290
	addq	%rdx, %rax	# D.5510, tmp290
	salq	$3, %rax	#, tmp291
	addq	%rcx, %rax	# gop_structure.7, D.5511
	movl	-24(%rbp), %edx	# centerB, tmp292
	movl	-56(%rbp), %ecx	# i, tmp293
	subl	%edx, %ecx	# tmp292, D.5509
	movl	%ecx, %edx	# D.5509, D.5509
	addl	%edx, %edx	# D.5509
	movl	%edx, 4(%rax)	# D.5509, _44->display_no
	.loc 1 52 0
	movq	gop_structure(%rip), %rcx	# gop_structure, gop_structure.8
	movl	-56(%rbp), %eax	# i, tmp294
	movslq	%eax, %rdx	# tmp294, D.5510
	movq	%rdx, %rax	# D.5510, tmp295
	addq	%rax, %rax	# tmp295
	addq	%rdx, %rax	# D.5510, tmp295
	salq	$3, %rax	#, tmp296
	addq	%rcx, %rax	# gop_structure.8, D.5511
	movl	$1, 16(%rax)	#, _50->pyramid_layer
	.loc 1 53 0
	movq	gop_structure(%rip), %rcx	# gop_structure, gop_structure.9
	movl	-56(%rbp), %eax	# i, tmp297
	movslq	%eax, %rdx	# tmp297, D.5510
	movq	%rdx, %rax	# D.5510, tmp298
	addq	%rax, %rax	# tmp298
	addq	%rdx, %rax	# D.5510, tmp298
	salq	$3, %rax	#, tmp299
	addq	%rcx, %rax	# gop_structure.9, D.5511
	movl	$0, 8(%rax)	#, _54->reference_idc
.L5:
	.loc 1 39 0
	addl	$1, -56(%rbp)	#, i
.L3:
	.loc 1 39 0 is_stmt 0 discriminator 1
	movq	input(%rip), %rax	# input, input.10
	movl	1236(%rax), %eax	# input.10_17->successive_Bframe, D.5509
	cmpl	-56(%rbp), %eax	# i, D.5509
	jg	.L6	#,
	jmp	.L1	#
.L2:
.LBB2:
	.loc 1 61 0 is_stmt 1
	movl	$0, -48(%rbp)	#, GOPlevels
	.loc 1 62 0
	movq	input(%rip), %rax	# input, input.11
	movl	1236(%rax), %eax	# input.11_57->successive_Bframe, tmp300
	movl	%eax, -44(%rbp)	# tmp300, Bframes
	.loc 1 64 0
	movl	-48(%rbp), %eax	# GOPlevels, tmp301
	movl	%eax, -40(%rbp)	# tmp301, curlevel
	.loc 1 65 0
	movq	input(%rip), %rax	# input, input.12
	movl	1236(%rax), %eax	# input.12_60->successive_Bframe, tmp302
	movl	%eax, -36(%rbp)	# tmp302, prvlevelrefs
	.loc 1 66 0
	movq	input(%rip), %rax	# input, input.13
	movl	1236(%rax), %eax	# input.13_62->successive_Bframe, tmp303
	movl	%eax, -32(%rbp)	# tmp303, levelrefs
	.loc 1 69 0
	jmp	.L8	#
.L9:
	.loc 1 71 0
	movl	-44(%rbp), %eax	# Bframes, tmp305
	movl	%eax, %edx	# tmp305, tmp306
	shrl	$31, %edx	#, tmp306
	addl	%edx, %eax	# tmp306, tmp307
	sarl	%eax	# tmp308
	movl	%eax, -44(%rbp)	# tmp308, Bframes
	.loc 1 72 0
	addl	$1, -48(%rbp)	#, GOPlevels
.L8:
	.loc 1 69 0 discriminator 1
	cmpl	$2, -44(%rbp)	#, Bframes
	jg	.L9	#,
	.loc 1 75 0
	movl	-48(%rbp), %eax	# GOPlevels, tmp309
	movl	%eax, -40(%rbp)	# tmp309, curlevel
	.loc 1 76 0
	movl	-48(%rbp), %eax	# GOPlevels, tmp310
	addl	$1, %eax	#, D.5509
	cltq
	salq	$2, %rax	#, D.5510
	movq	%rax, %rdi	# D.5510,
	call	malloc	#
	movq	%rax, -16(%rbp)	# tmp311, curGOPLevelfrm
	cmpq	$0, -16(%rbp)	#, curGOPLevelfrm
	jne	.L10	#,
	.loc 1 76 0 is_stmt 0 discriminator 1
	movl	$.LC0, %edi	#,
	call	no_mem_exit	#
.L10:
	.loc 1 77 0 is_stmt 1
	movl	-48(%rbp), %eax	# GOPlevels, tmp312
	addl	$1, %eax	#, D.5509
	cltq
	salq	$2, %rax	#, D.5510
	movq	%rax, %rdi	# D.5510,
	call	malloc	#
	movq	%rax, -8(%rbp)	# tmp313, curGOPLeveldist
	cmpq	$0, -8(%rbp)	#, curGOPLeveldist
	jne	.L11	#,
	.loc 1 77 0 is_stmt 0 discriminator 1
	movl	$.LC1, %edi	#,
	call	no_mem_exit	#
.L11:
	.loc 1 79 0 is_stmt 1
	movl	$0, -28(%rbp)	#, i
	jmp	.L12	#
.L13:
	.loc 1 81 0 discriminator 2
	movq	gop_structure(%rip), %rcx	# gop_structure, gop_structure.14
	movl	-28(%rbp), %eax	# i, tmp314
	movslq	%eax, %rdx	# tmp314, D.5510
	movq	%rdx, %rax	# D.5510, tmp315
	addq	%rax, %rax	# tmp315
	addq	%rdx, %rax	# D.5510, tmp315
	salq	$3, %rax	#, tmp316
	addq	%rcx, %rax	# gop_structure.14, D.5511
	movl	$0, 4(%rax)	#, _81->display_no
	.loc 1 82 0 discriminator 2
	movq	gop_structure(%rip), %rcx	# gop_structure, gop_structure.15
	movl	-28(%rbp), %eax	# i, tmp317
	movslq	%eax, %rdx	# tmp317, D.5510
	movq	%rdx, %rax	# D.5510, tmp318
	addq	%rax, %rax	# tmp318
	addq	%rdx, %rax	# D.5510, tmp318
	salq	$3, %rax	#, tmp319
	addq	%rcx, %rax	# gop_structure.15, D.5511
	movl	$1, (%rax)	#, _85->slice_type
	.loc 1 79 0 discriminator 2
	addl	$1, -28(%rbp)	#, i
.L12:
	.loc 1 79 0 is_stmt 0 discriminator 1
	movq	input(%rip), %rax	# input, input.16
	movl	1236(%rax), %eax	# input.16_76->successive_Bframe, D.5509
	cmpl	-28(%rbp), %eax	# i, D.5509
	jg	.L13	#,
	.loc 1 85 0 is_stmt 1
	jmp	.L14	#
.L15:
	.loc 1 87 0
	movl	-32(%rbp), %eax	# levelrefs, tmp321
	movl	%eax, %edx	# tmp321, tmp322
	shrl	$31, %edx	#, tmp322
	addl	%edx, %eax	# tmp322, tmp323
	sarl	%eax	# tmp324
	movl	%eax, -32(%rbp)	# tmp324, levelrefs
	.loc 1 88 0
	movl	-40(%rbp), %eax	# curlevel, tmp325
	cltq
	leaq	0(,%rax,4), %rdx	#, D.5510
	movq	-16(%rbp), %rax	# curGOPLevelfrm, tmp326
	addq	%rdx, %rax	# D.5510, D.5512
	movl	-32(%rbp), %edx	# levelrefs, tmp327
	movl	-36(%rbp), %ecx	# prvlevelrefs, tmp328
	subl	%edx, %ecx	# tmp327, D.5509
	movl	%ecx, %edx	# D.5509, D.5509
	movl	%edx, (%rax)	# D.5509, *_90
	.loc 1 89 0
	movl	-40(%rbp), %eax	# curlevel, tmp329
	movl	-48(%rbp), %edx	# GOPlevels, tmp330
	subl	%eax, %edx	# tmp329, D.5509
	movl	%edx, %eax	# D.5509, D.5509
	cltq
	leaq	0(,%rax,4), %rdx	#, D.5510
	movq	-8(%rbp), %rax	# curGOPLeveldist, tmp331
	leaq	(%rdx,%rax), %rcx	#, D.5512
	movl	-32(%rbp), %eax	# levelrefs, tmp332
	cltd
	shrl	$31, %edx	#, tmp334
	addl	%edx, %eax	# tmp334, tmp335
	andl	$1, %eax	#, tmp336
	subl	%edx, %eax	# tmp334, tmp337
	movl	%eax, %edx	# tmp337, D.5509
	movl	-32(%rbp), %eax	# levelrefs, tmp338
	addl	%edx, %eax	# D.5509, D.5509
	movl	%eax, (%rcx)	# D.5509, *_95
	.loc 1 91 0
	movl	-32(%rbp), %eax	# levelrefs, tmp339
	movl	%eax, -36(%rbp)	# tmp339, prvlevelrefs
	.loc 1 92 0
	subl	$1, -40(%rbp)	#, curlevel
.L14:
	.loc 1 85 0 discriminator 1
	cmpl	$2, -32(%rbp)	#, levelrefs
	jg	.L15	#,
	.loc 1 95 0
	movq	-16(%rbp), %rax	# curGOPLevelfrm, tmp340
	movl	-32(%rbp), %edx	# levelrefs, tmp341
	movl	%edx, (%rax)	# tmp341, *curGOPLevelfrm_70
	.loc 1 96 0
	movl	-48(%rbp), %eax	# GOPlevels, tmp342
	cltq
	leaq	0(,%rax,4), %rdx	#, D.5510
	movq	-8(%rbp), %rax	# curGOPLeveldist, tmp343
	leaq	(%rdx,%rax), %rcx	#, D.5512
	movl	-32(%rbp), %eax	# levelrefs, tmp344
	cltd
	shrl	$31, %edx	#, tmp346
	addl	%edx, %eax	# tmp346, tmp347
	andl	$1, %eax	#, tmp348
	subl	%edx, %eax	# tmp346, tmp349
	movl	%eax, %edx	# tmp349, D.5509
	movl	-32(%rbp), %eax	# levelrefs, tmp350
	addl	%edx, %eax	# D.5509, D.5509
	movl	%eax, (%rcx)	# D.5509, *_102
	.loc 1 99 0
	movl	$0, -52(%rbp)	#, j
	jmp	.L16	#
.L17:
	.loc 1 101 0 discriminator 2
	movq	gop_structure(%rip), %rdx	# gop_structure, gop_structure.17
	movq	-8(%rbp), %rax	# curGOPLeveldist, tmp351
	movl	(%rax), %eax	# *curGOPLeveldist_74, D.5509
	leal	-1(%rax), %edi	#, D.5509
	movl	-52(%rbp), %eax	# j, tmp352
	leal	1(%rax), %ecx	#, D.5509
	movq	-8(%rbp), %rax	# curGOPLeveldist, tmp353
	movl	(%rax), %eax	# *curGOPLeveldist_74, D.5509
	imull	%ecx, %eax	# D.5509, D.5509
	leal	-1(%rax), %esi	#, D.5509
	movl	-48(%rbp), %eax	# GOPlevels, tmp354
	movq	%rdx, %rcx	# gop_structure.17,
	movl	%edi, %edx	# D.5509,
	movl	%eax, %edi	# tmp354,
	call	gop_pyramid	#
	.loc 1 99 0 discriminator 2
	addl	$1, -52(%rbp)	#, j
.L16:
	.loc 1 99 0 is_stmt 0 discriminator 1
	movq	-16(%rbp), %rax	# curGOPLevelfrm, tmp355
	movl	(%rax), %eax	# *curGOPLevelfrm_70, D.5509
	cmpl	-52(%rbp), %eax	# j, D.5509
	jg	.L17	#,
	.loc 1 106 0 is_stmt 1
	movq	input(%rip), %rax	# input, input.18
	movl	1236(%rax), %eax	# input.18_115->successive_Bframe, tmp356
	movl	%eax, -52(%rbp)	# tmp356, j
	jmp	.L18	#
.L22:
	.loc 1 108 0
	movl	$1, -28(%rbp)	#, i
	jmp	.L19	#
.L21:
.LBB3:
	.loc 1 112 0
	movq	gop_structure(%rip), %rcx	# gop_structure, gop_structure.19
	movl	-28(%rbp), %eax	# i, tmp357
	movslq	%eax, %rdx	# tmp357, D.5510
	movq	%rdx, %rax	# D.5510, tmp358
	addq	%rax, %rax	# tmp358
	addq	%rdx, %rax	# D.5510, tmp358
	salq	$3, %rax	#, tmp359
	addq	%rcx, %rax	# gop_structure.19, D.5511
	movl	16(%rax), %ecx	# _121->pyramid_layer, D.5509
	movq	gop_structure(%rip), %rsi	# gop_structure, gop_structure.20
	movl	-28(%rbp), %eax	# i, tmp360
	movslq	%eax, %rdx	# tmp360, D.5510
	movq	%rdx, %rax	# D.5510, tmp361
	addq	%rax, %rax	# tmp361
	addq	%rdx, %rax	# D.5510, tmp361
	salq	$3, %rax	#, tmp362
	subq	$24, %rax	#, D.5513
	addq	%rsi, %rax	# gop_structure.20, D.5511
	movl	16(%rax), %eax	# _127->pyramid_layer, D.5509
	cmpl	%eax, %ecx	# D.5509, D.5509
	jle	.L20	#,
	.loc 1 114 0
	movq	gop_structure(%rip), %rcx	# gop_structure, gop_structure.21
	movl	-28(%rbp), %eax	# i, tmp363
	movslq	%eax, %rdx	# tmp363, D.5510
	movq	%rdx, %rax	# D.5510, tmp364
	addq	%rax, %rax	# tmp364
	addq	%rdx, %rax	# D.5510, tmp364
	salq	$3, %rax	#, tmp365
	subq	$24, %rax	#, D.5513
	addq	%rcx, %rax	# gop_structure.21, D.5511
	movl	4(%rax), %eax	# _133->display_no, tmp366
	movl	%eax, -20(%rbp)	# tmp366, tempnum
	.loc 1 115 0
	movq	gop_structure(%rip), %rcx	# gop_structure, gop_structure.22
	movl	-28(%rbp), %eax	# i, tmp367
	movslq	%eax, %rdx	# tmp367, D.5510
	movq	%rdx, %rax	# D.5510, tmp368
	addq	%rax, %rax	# tmp368
	addq	%rdx, %rax	# D.5510, tmp368
	salq	$3, %rax	#, tmp369
	subq	$24, %rax	#, D.5513
	addq	%rax, %rcx	# D.5513, D.5511
	movq	gop_structure(%rip), %rsi	# gop_structure, gop_structure.23
	movl	-28(%rbp), %eax	# i, tmp370
	movslq	%eax, %rdx	# tmp370, D.5510
	movq	%rdx, %rax	# D.5510, tmp371
	addq	%rax, %rax	# tmp371
	addq	%rdx, %rax	# D.5510, tmp371
	salq	$3, %rax	#, tmp372
	addq	%rsi, %rax	# gop_structure.23, D.5511
	movl	4(%rax), %eax	# _143->display_no, D.5509
	movl	%eax, 4(%rcx)	# D.5509, _139->display_no
	.loc 1 116 0
	movq	gop_structure(%rip), %rcx	# gop_structure, gop_structure.24
	movl	-28(%rbp), %eax	# i, tmp373
	movslq	%eax, %rdx	# tmp373, D.5510
	movq	%rdx, %rax	# D.5510, tmp374
	addq	%rax, %rax	# tmp374
	addq	%rdx, %rax	# D.5510, tmp374
	salq	$3, %rax	#, tmp375
	leaq	(%rcx,%rax), %rdx	#, D.5511
	movl	-20(%rbp), %eax	# tempnum, tmp376
	movl	%eax, 4(%rdx)	# tmp376, _148->display_no
	.loc 1 118 0
	movq	gop_structure(%rip), %rcx	# gop_structure, gop_structure.25
	movl	-28(%rbp), %eax	# i, tmp377
	movslq	%eax, %rdx	# tmp377, D.5510
	movq	%rdx, %rax	# D.5510, tmp378
	addq	%rax, %rax	# tmp378
	addq	%rdx, %rax	# D.5510, tmp378
	salq	$3, %rax	#, tmp379
	subq	$24, %rax	#, D.5513
	addq	%rcx, %rax	# gop_structure.25, D.5511
	movl	16(%rax), %eax	# _153->pyramid_layer, tmp380
	movl	%eax, -20(%rbp)	# tmp380, tempnum
	.loc 1 119 0
	movq	gop_structure(%rip), %rcx	# gop_structure, gop_structure.26
	movl	-28(%rbp), %eax	# i, tmp381
	movslq	%eax, %rdx	# tmp381, D.5510
	movq	%rdx, %rax	# D.5510, tmp382
	addq	%rax, %rax	# tmp382
	addq	%rdx, %rax	# D.5510, tmp382
	salq	$3, %rax	#, tmp383
	subq	$24, %rax	#, D.5513
	addq	%rax, %rcx	# D.5513, D.5511
	movq	gop_structure(%rip), %rsi	# gop_structure, gop_structure.27
	movl	-28(%rbp), %eax	# i, tmp384
	movslq	%eax, %rdx	# tmp384, D.5510
	movq	%rdx, %rax	# D.5510, tmp385
	addq	%rax, %rax	# tmp385
	addq	%rdx, %rax	# D.5510, tmp385
	salq	$3, %rax	#, tmp386
	addq	%rsi, %rax	# gop_structure.27, D.5511
	movl	16(%rax), %eax	# _163->pyramid_layer, D.5509
	movl	%eax, 16(%rcx)	# D.5509, _159->pyramid_layer
	.loc 1 120 0
	movq	gop_structure(%rip), %rcx	# gop_structure, gop_structure.28
	movl	-28(%rbp), %eax	# i, tmp387
	movslq	%eax, %rdx	# tmp387, D.5510
	movq	%rdx, %rax	# D.5510, tmp388
	addq	%rax, %rax	# tmp388
	addq	%rdx, %rax	# D.5510, tmp388
	salq	$3, %rax	#, tmp389
	leaq	(%rcx,%rax), %rdx	#, D.5511
	movl	-20(%rbp), %eax	# tempnum, tmp390
	movl	%eax, 16(%rdx)	# tmp390, _168->pyramid_layer
	.loc 1 122 0
	movq	gop_structure(%rip), %rcx	# gop_structure, gop_structure.29
	movl	-28(%rbp), %eax	# i, tmp391
	movslq	%eax, %rdx	# tmp391, D.5510
	movq	%rdx, %rax	# D.5510, tmp392
	addq	%rax, %rax	# tmp392
	addq	%rdx, %rax	# D.5510, tmp392
	salq	$3, %rax	#, tmp393
	subq	$24, %rax	#, D.5513
	addq	%rcx, %rax	# gop_structure.29, D.5511
	movl	8(%rax), %eax	# _173->reference_idc, tmp394
	movl	%eax, -20(%rbp)	# tmp394, tempnum
	.loc 1 123 0
	movq	gop_structure(%rip), %rcx	# gop_structure, gop_structure.30
	movl	-28(%rbp), %eax	# i, tmp395
	movslq	%eax, %rdx	# tmp395, D.5510
	movq	%rdx, %rax	# D.5510, tmp396
	addq	%rax, %rax	# tmp396
	addq	%rdx, %rax	# D.5510, tmp396
	salq	$3, %rax	#, tmp397
	subq	$24, %rax	#, D.5513
	addq	%rax, %rcx	# D.5513, D.5511
	movq	gop_structure(%rip), %rsi	# gop_structure, gop_structure.31
	movl	-28(%rbp), %eax	# i, tmp398
	movslq	%eax, %rdx	# tmp398, D.5510
	movq	%rdx, %rax	# D.5510, tmp399
	addq	%rax, %rax	# tmp399
	addq	%rdx, %rax	# D.5510, tmp399
	salq	$3, %rax	#, tmp400
	addq	%rsi, %rax	# gop_structure.31, D.5511
	movl	8(%rax), %eax	# _183->reference_idc, D.5509
	movl	%eax, 8(%rcx)	# D.5509, _179->reference_idc
	.loc 1 124 0
	movq	gop_structure(%rip), %rcx	# gop_structure, gop_structure.32
	movl	-28(%rbp), %eax	# i, tmp401
	movslq	%eax, %rdx	# tmp401, D.5510
	movq	%rdx, %rax	# D.5510, tmp402
	addq	%rax, %rax	# tmp402
	addq	%rdx, %rax	# D.5510, tmp402
	salq	$3, %rax	#, tmp403
	leaq	(%rcx,%rax), %rdx	#, D.5511
	movl	-20(%rbp), %eax	# tempnum, tmp404
	movl	%eax, 8(%rdx)	# tmp404, _188->reference_idc
	.loc 1 126 0
	movq	gop_structure(%rip), %rcx	# gop_structure, gop_structure.33
	movl	-28(%rbp), %eax	# i, tmp405
	movslq	%eax, %rdx	# tmp405, D.5510
	movq	%rdx, %rax	# D.5510, tmp406
	addq	%rax, %rax	# tmp406
	addq	%rdx, %rax	# D.5510, tmp406
	salq	$3, %rax	#, tmp407
	subq	$24, %rax	#, D.5513
	addq	%rcx, %rax	# gop_structure.33, D.5511
	movl	(%rax), %eax	# _193->slice_type, tmp408
	movl	%eax, -20(%rbp)	# tmp408, tempnum
	.loc 1 127 0
	movq	gop_structure(%rip), %rcx	# gop_structure, gop_structure.34
	movl	-28(%rbp), %eax	# i, tmp409
	movslq	%eax, %rdx	# tmp409, D.5510
	movq	%rdx, %rax	# D.5510, tmp410
	addq	%rax, %rax	# tmp410
	addq	%rdx, %rax	# D.5510, tmp410
	salq	$3, %rax	#, tmp411
	subq	$24, %rax	#, D.5513
	addq	%rax, %rcx	# D.5513, D.5511
	movq	gop_structure(%rip), %rsi	# gop_structure, gop_structure.35
	movl	-28(%rbp), %eax	# i, tmp412
	movslq	%eax, %rdx	# tmp412, D.5510
	movq	%rdx, %rax	# D.5510, tmp413
	addq	%rax, %rax	# tmp413
	addq	%rdx, %rax	# D.5510, tmp413
	salq	$3, %rax	#, tmp414
	addq	%rsi, %rax	# gop_structure.35, D.5511
	movl	(%rax), %eax	# _203->slice_type, D.5509
	movl	%eax, (%rcx)	# D.5509, _199->slice_type
	.loc 1 128 0
	movq	gop_structure(%rip), %rcx	# gop_structure, gop_structure.36
	movl	-28(%rbp), %eax	# i, tmp415
	movslq	%eax, %rdx	# tmp415, D.5510
	movq	%rdx, %rax	# D.5510, tmp416
	addq	%rax, %rax	# tmp416
	addq	%rdx, %rax	# D.5510, tmp416
	salq	$3, %rax	#, tmp417
	leaq	(%rcx,%rax), %rdx	#, D.5511
	movl	-20(%rbp), %eax	# tempnum, tmp418
	movl	%eax, (%rdx)	# tmp418, _208->slice_type
	.loc 1 130 0
	movq	gop_structure(%rip), %rcx	# gop_structure, gop_structure.37
	movl	-28(%rbp), %eax	# i, tmp419
	movslq	%eax, %rdx	# tmp419, D.5510
	movq	%rdx, %rax	# D.5510, tmp420
	addq	%rax, %rax	# tmp420
	addq	%rdx, %rax	# D.5510, tmp420
	salq	$3, %rax	#, tmp421
	subq	$24, %rax	#, D.5513
	addq	%rcx, %rax	# gop_structure.37, D.5511
	movl	12(%rax), %eax	# _213->slice_qp, tmp422
	movl	%eax, -20(%rbp)	# tmp422, tempnum
	.loc 1 131 0
	movq	gop_structure(%rip), %rcx	# gop_structure, gop_structure.38
	movl	-28(%rbp), %eax	# i, tmp423
	movslq	%eax, %rdx	# tmp423, D.5510
	movq	%rdx, %rax	# D.5510, tmp424
	addq	%rax, %rax	# tmp424
	addq	%rdx, %rax	# D.5510, tmp424
	salq	$3, %rax	#, tmp425
	subq	$24, %rax	#, D.5513
	addq	%rax, %rcx	# D.5513, D.5511
	movq	gop_structure(%rip), %rsi	# gop_structure, gop_structure.39
	movl	-28(%rbp), %eax	# i, tmp426
	movslq	%eax, %rdx	# tmp426, D.5510
	movq	%rdx, %rax	# D.5510, tmp427
	addq	%rax, %rax	# tmp427
	addq	%rdx, %rax	# D.5510, tmp427
	salq	$3, %rax	#, tmp428
	addq	%rsi, %rax	# gop_structure.39, D.5511
	movl	12(%rax), %eax	# _223->slice_qp, D.5509
	movl	%eax, 12(%rcx)	# D.5509, _219->slice_qp
	.loc 1 132 0
	movq	gop_structure(%rip), %rcx	# gop_structure, gop_structure.40
	movl	-28(%rbp), %eax	# i, tmp429
	movslq	%eax, %rdx	# tmp429, D.5510
	movq	%rdx, %rax	# D.5510, tmp430
	addq	%rax, %rax	# tmp430
	addq	%rdx, %rax	# D.5510, tmp430
	salq	$3, %rax	#, tmp431
	leaq	(%rcx,%rax), %rdx	#, D.5511
	movl	-20(%rbp), %eax	# tempnum, tmp432
	movl	%eax, 12(%rdx)	# tmp432, _228->slice_qp
	.loc 1 134 0
	movq	gop_structure(%rip), %rcx	# gop_structure, gop_structure.41
	movl	-28(%rbp), %eax	# i, tmp433
	movslq	%eax, %rdx	# tmp433, D.5510
	movq	%rdx, %rax	# D.5510, tmp434
	addq	%rax, %rax	# tmp434
	addq	%rdx, %rax	# D.5510, tmp434
	salq	$3, %rax	#, tmp435
	subq	$24, %rax	#, D.5513
	addq	%rcx, %rax	# gop_structure.41, D.5511
	movl	20(%rax), %eax	# _233->pyramidPocDelta, tmp436
	movl	%eax, -20(%rbp)	# tmp436, tempnum
	.loc 1 135 0
	movq	gop_structure(%rip), %rcx	# gop_structure, gop_structure.42
	movl	-28(%rbp), %eax	# i, tmp437
	movslq	%eax, %rdx	# tmp437, D.5510
	movq	%rdx, %rax	# D.5510, tmp438
	addq	%rax, %rax	# tmp438
	addq	%rdx, %rax	# D.5510, tmp438
	salq	$3, %rax	#, tmp439
	subq	$24, %rax	#, D.5513
	addq	%rax, %rcx	# D.5513, D.5511
	movq	gop_structure(%rip), %rsi	# gop_structure, gop_structure.43
	movl	-28(%rbp), %eax	# i, tmp440
	movslq	%eax, %rdx	# tmp440, D.5510
	movq	%rdx, %rax	# D.5510, tmp441
	addq	%rax, %rax	# tmp441
	addq	%rdx, %rax	# D.5510, tmp441
	salq	$3, %rax	#, tmp442
	addq	%rsi, %rax	# gop_structure.43, D.5511
	movl	20(%rax), %eax	# _243->pyramidPocDelta, D.5509
	movl	%eax, 20(%rcx)	# D.5509, _239->pyramidPocDelta
	.loc 1 136 0
	movq	gop_structure(%rip), %rcx	# gop_structure, gop_structure.44
	movl	-28(%rbp), %eax	# i, tmp443
	movslq	%eax, %rdx	# tmp443, D.5510
	movq	%rdx, %rax	# D.5510, tmp444
	addq	%rax, %rax	# tmp444
	addq	%rdx, %rax	# D.5510, tmp444
	salq	$3, %rax	#, tmp445
	leaq	(%rcx,%rax), %rdx	#, D.5511
	movl	-20(%rbp), %eax	# tempnum, tmp446
	movl	%eax, 20(%rdx)	# tmp446, _248->pyramidPocDelta
.L20:
.LBE3:
	.loc 1 108 0
	addl	$1, -28(%rbp)	#, i
.L19:
	.loc 1 108 0 is_stmt 0 discriminator 1
	movl	-28(%rbp), %eax	# i, tmp447
	cmpl	-52(%rbp), %eax	# j, tmp447
	jl	.L21	#,
	.loc 1 106 0 is_stmt 1
	subl	$1, -52(%rbp)	#, j
.L18:
	.loc 1 106 0 is_stmt 0 discriminator 1
	cmpl	$0, -52(%rbp)	#, j
	jg	.L22	#,
.L1:
.LBE2:
	.loc 1 144 0 is_stmt 1
	leave
	.cfi_def_cfa 7, 8
	ret
	.cfi_endproc
.LFE2:
	.size	create_pyramid, .-create_pyramid
	.globl	gop_pyramid
	.type	gop_pyramid, @function
gop_pyramid:
.LFB3:
	.loc 1 154 0
	.cfi_startproc
	pushq	%rbp	#
	.cfi_def_cfa_offset 16
	.cfi_offset 6, -16
	movq	%rsp, %rbp	#,
	.cfi_def_cfa_register 6
	subq	$32, %rsp	#,
	movl	%edi, -4(%rbp)	# level, level
	movl	%esi, -8(%rbp)	# frm_no, frm_no
	movl	%edx, -12(%rbp)	# frames, frames
	movq	%rcx, -24(%rbp)	# pyramid_structure, pyramid_structure
	.loc 1 156 0
	cmpl	$0, -4(%rbp)	#, level
	jne	.L24	#,
	.loc 1 158 0
	cmpl	$0, -8(%rbp)	#, frm_no
	js	.L23	#,
	.loc 1 158 0 is_stmt 0 discriminator 1
	movq	input(%rip), %rax	# input, input.45
	movl	1236(%rax), %eax	# input.45_3->successive_Bframe, D.5516
	cmpl	-8(%rbp), %eax	# frm_no, D.5516
	jle	.L23	#,
	movl	-8(%rbp), %eax	# frm_no, tmp103
	movslq	%eax, %rdx	# tmp103, D.5517
	movq	%rdx, %rax	# D.5517, tmp104
	addq	%rax, %rax	# tmp104
	addq	%rdx, %rax	# D.5517, tmp104
	salq	$3, %rax	#, tmp105
	movq	%rax, %rdx	# tmp104, D.5517
	movq	-24(%rbp), %rax	# pyramid_structure, tmp106
	addq	%rdx, %rax	# D.5517, D.5518
	movl	4(%rax), %eax	# _8->display_no, D.5516
	testl	%eax, %eax	# D.5516
	jne	.L23	#,
	.loc 1 160 0 is_stmt 1
	movl	-8(%rbp), %eax	# frm_no, tmp107
	movslq	%eax, %rdx	# tmp107, D.5517
	movq	%rdx, %rax	# D.5517, tmp108
	addq	%rax, %rax	# tmp108
	addq	%rdx, %rax	# D.5517, tmp108
	salq	$3, %rax	#, tmp109
	movq	%rax, %rdx	# tmp108, D.5517
	movq	-24(%rbp), %rax	# pyramid_structure, tmp110
	addq	%rdx, %rax	# D.5517, D.5518
	movl	$1, (%rax)	#, _12->slice_type
	.loc 1 161 0
	movl	-8(%rbp), %eax	# frm_no, tmp111
	movslq	%eax, %rdx	# tmp111, D.5517
	movq	%rdx, %rax	# D.5517, tmp112
	addq	%rax, %rax	# tmp112
	addq	%rdx, %rax	# D.5517, tmp112
	salq	$3, %rax	#, tmp113
	movq	%rax, %rdx	# tmp112, D.5517
	movq	-24(%rbp), %rax	# pyramid_structure, tmp114
	addq	%rax, %rdx	# tmp114, D.5518
	movl	-8(%rbp), %eax	# frm_no, tmp115
	movl	%eax, 4(%rdx)	# tmp115, _15->display_no
	.loc 1 162 0
	movl	-8(%rbp), %eax	# frm_no, tmp116
	movslq	%eax, %rdx	# tmp116, D.5517
	movq	%rdx, %rax	# D.5517, tmp117
	addq	%rax, %rax	# tmp117
	addq	%rdx, %rax	# D.5517, tmp117
	salq	$3, %rax	#, tmp118
	movq	%rax, %rdx	# tmp117, D.5517
	movq	-24(%rbp), %rax	# pyramid_structure, tmp119
	addq	%rdx, %rax	# D.5517, D.5518
	movl	$0, 16(%rax)	#, _18->pyramid_layer
	.loc 1 163 0
	movl	-8(%rbp), %eax	# frm_no, tmp120
	movslq	%eax, %rdx	# tmp120, D.5517
	movq	%rdx, %rax	# D.5517, tmp121
	addq	%rax, %rax	# tmp121
	addq	%rdx, %rax	# D.5517, tmp121
	salq	$3, %rax	#, tmp122
	movq	%rax, %rdx	# tmp121, D.5517
	movq	-24(%rbp), %rax	# pyramid_structure, tmp123
	addq	%rdx, %rax	# D.5517, D.5518
	movl	$0, 8(%rax)	#, _21->reference_idc
	jmp	.L23	#
.L24:
	.loc 1 168 0
	cmpl	$0, -8(%rbp)	#, frm_no
	js	.L27	#,
	.loc 1 168 0 is_stmt 0 discriminator 1
	movq	input(%rip), %rax	# input, input.46
	movl	1236(%rax), %eax	# input.46_22->successive_Bframe, D.5516
	cmpl	-8(%rbp), %eax	# frm_no, D.5516
	jle	.L27	#,
	.loc 1 170 0 is_stmt 1
	movl	-8(%rbp), %eax	# frm_no, tmp124
	movslq	%eax, %rdx	# tmp124, D.5517
	movq	%rdx, %rax	# D.5517, tmp125
	addq	%rax, %rax	# tmp125
	addq	%rdx, %rax	# D.5517, tmp125
	salq	$3, %rax	#, tmp126
	movq	%rax, %rdx	# tmp125, D.5517
	movq	-24(%rbp), %rax	# pyramid_structure, tmp127
	addq	%rdx, %rax	# D.5517, D.5518
	movl	$1, (%rax)	#, _26->slice_type
	.loc 1 171 0
	movl	-8(%rbp), %eax	# frm_no, tmp128
	movslq	%eax, %rdx	# tmp128, D.5517
	movq	%rdx, %rax	# D.5517, tmp129
	addq	%rax, %rax	# tmp129
	addq	%rdx, %rax	# D.5517, tmp129
	salq	$3, %rax	#, tmp130
	movq	%rax, %rdx	# tmp129, D.5517
	movq	-24(%rbp), %rax	# pyramid_structure, tmp131
	addq	%rax, %rdx	# tmp131, D.5518
	movl	-8(%rbp), %eax	# frm_no, tmp132
	movl	%eax, 4(%rdx)	# tmp132, _29->display_no
	.loc 1 172 0
	movl	-8(%rbp), %eax	# frm_no, tmp133
	movslq	%eax, %rdx	# tmp133, D.5517
	movq	%rdx, %rax	# D.5517, tmp134
	addq	%rax, %rax	# tmp134
	addq	%rdx, %rax	# D.5517, tmp134
	salq	$3, %rax	#, tmp135
	movq	%rax, %rdx	# tmp134, D.5517
	movq	-24(%rbp), %rax	# pyramid_structure, tmp136
	addq	%rax, %rdx	# tmp136, D.5518
	movl	-4(%rbp), %eax	# level, tmp137
	movl	%eax, 16(%rdx)	# tmp137, _32->pyramid_layer
	.loc 1 173 0
	movl	-8(%rbp), %eax	# frm_no, tmp138
	movslq	%eax, %rdx	# tmp138, D.5517
	movq	%rdx, %rax	# D.5517, tmp139
	addq	%rax, %rax	# tmp139
	addq	%rdx, %rax	# D.5517, tmp139
	salq	$3, %rax	#, tmp140
	movq	%rax, %rdx	# tmp139, D.5517
	movq	-24(%rbp), %rax	# pyramid_structure, tmp141
	addq	%rdx, %rax	# D.5517, D.5518
	movl	$2, 8(%rax)	#, _35->reference_idc
.L27:
	.loc 1 177 0
	movl	-12(%rbp), %eax	# frames, tmp142
	addl	$1, %eax	#, D.5516
	movl	%eax, %edx	# D.5516, tmp143
	shrl	$31, %edx	#, tmp143
	addl	%edx, %eax	# tmp143, tmp144
	sarl	%eax	# tmp145
	movl	%eax, %edx	# tmp145, D.5516
	movl	-12(%rbp), %eax	# frames, tmp146
	addl	$1, %eax	#, D.5516
	movl	%eax, %ecx	# D.5516, tmp147
	shrl	$31, %ecx	#, tmp147
	addl	%ecx, %eax	# tmp147, tmp148
	sarl	%eax	# tmp149
	movl	-8(%rbp), %ecx	# frm_no, tmp150
	movl	%ecx, %esi	# tmp150, D.5516
	subl	%eax, %esi	# D.5516, D.5516
	movl	-4(%rbp), %eax	# level, tmp151
	leal	-1(%rax), %edi	#, D.5516
	movq	-24(%rbp), %rax	# pyramid_structure, tmp152
	movq	%rax, %rcx	# tmp152,
	call	gop_pyramid	#
	.loc 1 178 0
	movl	-12(%rbp), %eax	# frames, tmp153
	addl	$1, %eax	#, D.5516
	movl	%eax, %edx	# D.5516, tmp154
	shrl	$31, %edx	#, tmp154
	addl	%edx, %eax	# tmp154, tmp155
	sarl	%eax	# tmp156
	movl	%eax, %edx	# tmp156, D.5516
	movl	-12(%rbp), %eax	# frames, tmp157
	addl	$1, %eax	#, D.5516
	movl	%eax, %ecx	# D.5516, tmp158
	shrl	$31, %ecx	#, tmp158
	addl	%ecx, %eax	# tmp158, tmp159
	sarl	%eax	# tmp160
	movl	%eax, %ecx	# tmp160, D.5516
	movl	-8(%rbp), %eax	# frm_no, tmp161
	leal	(%rcx,%rax), %esi	#, D.5516
	movl	-4(%rbp), %eax	# level, tmp162
	leal	-1(%rax), %edi	#, D.5516
	movq	-24(%rbp), %rax	# pyramid_structure, tmp163
	movq	%rax, %rcx	# tmp163,
	call	gop_pyramid	#
.L23:
	.loc 1 180 0
	leave
	.cfi_def_cfa 7, 8
	ret
	.cfi_endproc
.LFE3:
	.size	gop_pyramid, .-gop_pyramid
	.section	.rodata
	.align 8
.LC2:
	.string	"init_gop_structure: gop_structure"
	.text
	.globl	init_gop_structure
	.type	init_gop_structure, @function
init_gop_structure:
.LFB4:
	.loc 1 191 0
	.cfi_startproc
	pushq	%rbp	#
	.cfi_def_cfa_offset 16
	.cfi_offset 6, -16
	movq	%rsp, %rbp	#,
	.cfi_def_cfa_register 6
	subq	$16, %rsp	#,
	.loc 1 192 0
	movq	input(%rip), %rax	# input, input.48
	movl	1320(%rax), %eax	# input.48_2->PyramidCoding, D.5519
	cmpl	$3, %eax	#, D.5519
	je	.L29	#,
	.loc 1 192 0 is_stmt 0 discriminator 1
	movq	input(%rip), %rax	# input, input.49
	movl	1236(%rax), %eax	# input.49_4->successive_Bframe, iftmp.47
	jmp	.L30	#
.L29:
	.loc 1 192 0 discriminator 2
	movq	input(%rip), %rax	# input, input.50
	movl	20(%rax), %eax	# input.50_6->jumpd, iftmp.47
.L30:
	.loc 1 192 0 discriminator 3
	movl	%eax, -4(%rbp)	# iftmp.47, max_gopsize
	.loc 1 194 0 is_stmt 1 discriminator 3
	movl	$10, %eax	#, tmp68
	cmpl	$10, -4(%rbp)	#, max_gopsize
	cmovge	-4(%rbp), %eax	# max_gopsize,, D.5519
	cltq
	movl	$24, %esi	#,
	movq	%rax, %rdi	# D.5520,
	call	calloc	#
	movq	%rax, gop_structure(%rip)	# gop_structure.51, gop_structure
	.loc 1 195 0 discriminator 3
	movq	gop_structure(%rip), %rax	# gop_structure, gop_structure.52
	testq	%rax, %rax	# gop_structure.52
	jne	.L28	#,
	.loc 1 196 0
	movl	$.LC2, %edi	#,
	call	no_mem_exit	#
.L28:
	.loc 1 197 0
	leave
	.cfi_def_cfa 7, 8
	ret
	.cfi_endproc
.LFE4:
	.size	init_gop_structure, .-init_gop_structure
	.globl	clear_gop_structure
	.type	clear_gop_structure, @function
clear_gop_structure:
.LFB5:
	.loc 1 207 0
	.cfi_startproc
	pushq	%rbp	#
	.cfi_def_cfa_offset 16
	.cfi_offset 6, -16
	movq	%rsp, %rbp	#,
	.cfi_def_cfa_register 6
	.loc 1 208 0
	movq	gop_structure(%rip), %rax	# gop_structure, gop_structure.53
	testq	%rax, %rax	# gop_structure.53
	je	.L32	#,
	.loc 1 209 0
	movq	gop_structure(%rip), %rax	# gop_structure, gop_structure.54
	movq	%rax, %rdi	# gop_structure.54,
	call	free	#
.L32:
	.loc 1 210 0
	popq	%rbp	#
	.cfi_def_cfa 7, 8
	ret
	.cfi_endproc
.LFE5:
	.size	clear_gop_structure, .-clear_gop_structure
	.section	.rodata
.LC3:
	.string	"%d"
	.align 8
.LC4:
	.string	"Invalid Frame Order value. Frame position needs to be in [0,%d] range."
	.align 8
.LC5:
	.string	"Frame Order value %d in frame %d already used for enhancement frame %d."
	.text
	.globl	interpret_gop_structure
	.type	interpret_gop_structure, @function
interpret_gop_structure:
.LFB6:
	.loc 1 220 0
	.cfi_startproc
	pushq	%rbp	#
	.cfi_def_cfa_offset 16
	.cfi_offset 6, -16
	movq	%rsp, %rbp	#,
	.cfi_def_cfa_register 6
	subq	$48, %rsp	#,
	.loc 1 222 0
	movq	input(%rip), %rax	# input, input.55
	addq	$1324, %rax	#, D.5522
	movq	%rax, %rdi	# D.5522,
	call	strlen	#
	movl	%eax, -4(%rbp)	# D.5523, nLength
	.loc 1 223 0
	movl	$0, -32(%rbp)	#, i
	.loc 1 224 0
	movl	$0, -24(%rbp)	#, slice_read
	movl	$0, -20(%rbp)	#, order_read
	movl	$0, -16(%rbp)	#, stored_read
	movl	$0, -12(%rbp)	#, qp_read
	.loc 1 225 0
	movl	$0, -8(%rbp)	#, coded_frame
	.loc 1 228 0
	cmpl	$0, -4(%rbp)	#, nLength
	jle	.L35	#,
	.loc 1 231 0
	movl	$0, -32(%rbp)	#, i
	jmp	.L36	#
.L64:
	.loc 1 234 0
	cmpl	$0, -24(%rbp)	#, slice_read
	jne	.L37	#,
	.loc 1 236 0
	movq	input(%rip), %rdx	# input, input.56
	movl	-32(%rbp), %eax	# i, tmp170
	cltq
	movzbl	1324(%rdx,%rax), %eax	# input.56_28->ExplicitPyramidFormat, D.5524
	movsbl	%al, %eax	# D.5524, D.5525
	subl	$66, %eax	#, tmp171
	cmpl	$46, %eax	#, tmp171
	ja	.L38	#,
	movl	%eax, %eax	# tmp171, tmp172
	movq	.L40(,%rax,8), %rax	#, tmp173
	jmp	*%rax	# tmp173
	.section	.rodata
	.align 8
	.align 4
.L40:
	.quad	.L39
	.quad	.L38
	.quad	.L38
	.quad	.L38
	.quad	.L38
	.quad	.L38
	.quad	.L38
	.quad	.L41
	.quad	.L38
	.quad	.L38
	.quad	.L38
	.quad	.L38
	.quad	.L38
	.quad	.L38
	.quad	.L42
	.quad	.L38
	.quad	.L38
	.quad	.L38
	.quad	.L38
	.quad	.L38
	.quad	.L38
	.quad	.L38
	.quad	.L38
	.quad	.L38
	.quad	.L38
	.quad	.L38
	.quad	.L38
	.quad	.L38
	.quad	.L38
	.quad	.L38
	.quad	.L38
	.quad	.L38
	.quad	.L39
	.quad	.L38
	.quad	.L38
	.quad	.L38
	.quad	.L38
	.quad	.L38
	.quad	.L38
	.quad	.L41
	.quad	.L38
	.quad	.L38
	.quad	.L38
	.quad	.L38
	.quad	.L38
	.quad	.L38
	.quad	.L42
	.text
.L42:
	.loc 1 240 0
	movq	gop_structure(%rip), %rcx	# gop_structure, gop_structure.57
	movl	-8(%rbp), %eax	# coded_frame, tmp174
	movslq	%eax, %rdx	# tmp174, D.5523
	movq	%rdx, %rax	# D.5523, tmp175
	addq	%rax, %rax	# tmp175
	addq	%rdx, %rax	# D.5523, tmp175
	salq	$3, %rax	#, tmp176
	addq	%rcx, %rax	# gop_structure.57, D.5526
	movl	$0, (%rax)	#, _34->slice_type
	.loc 1 241 0
	jmp	.L43	#
.L39:
	.loc 1 244 0
	movq	gop_structure(%rip), %rcx	# gop_structure, gop_structure.58
	movl	-8(%rbp), %eax	# coded_frame, tmp177
	movslq	%eax, %rdx	# tmp177, D.5523
	movq	%rdx, %rax	# D.5523, tmp178
	addq	%rax, %rax	# tmp178
	addq	%rdx, %rax	# D.5523, tmp178
	salq	$3, %rax	#, tmp179
	addq	%rcx, %rax	# gop_structure.58, D.5526
	movl	$1, (%rax)	#, _38->slice_type
	.loc 1 245 0
	jmp	.L43	#
.L41:
	.loc 1 248 0
	movq	gop_structure(%rip), %rcx	# gop_structure, gop_structure.59
	movl	-8(%rbp), %eax	# coded_frame, tmp180
	movslq	%eax, %rdx	# tmp180, D.5523
	movq	%rdx, %rax	# D.5523, tmp181
	addq	%rax, %rax	# tmp181
	addq	%rdx, %rax	# D.5523, tmp181
	salq	$3, %rax	#, tmp182
	addq	%rcx, %rax	# gop_structure.59, D.5526
	movl	$2, (%rax)	#, _42->slice_type
	.loc 1 249 0
	jmp	.L43	#
.L38:
	.loc 1 251 0
	movabsq	$8742648396464614483, %rax	#, tmp225
	movq	%rax, errortext(%rip)	# tmp225, MEM[(void *)&errortext]
	movabsq	$7809653445419361648, %rax	#, tmp226
	movq	%rax, errortext+8(%rip)	# tmp226, MEM[(void *)&errortext]
	movabsq	$8666368716526609513, %rax	#, tmp227
	movq	%rax, errortext+16(%rip)	# tmp227, MEM[(void *)&errortext]
	movabsq	$8741614872714374256, %rax	#, tmp228
	movq	%rax, errortext+24(%rip)	# tmp228, MEM[(void *)&errortext]
	movabsq	$8245886839818117490, %rax	#, tmp229
	movq	%rax, errortext+32(%rip)	# tmp229, MEM[(void *)&errortext]
	movabsq	$7021781903232754029, %rax	#, tmp230
	movq	%rax, errortext+40(%rip)	# tmp230, MEM[(void *)&errortext]
	movabsq	$8314037902977805933, %rax	#, tmp231
	movq	%rax, errortext+48(%rip)	# tmp231, MEM[(void *)&errortext]
	movabsq	$2336070118915907685, %rax	#, tmp232
	movq	%rax, errortext+56(%rip)	# tmp232, MEM[(void *)&errortext]
	movabsq	$8247611994986671971, %rax	#, tmp233
	movq	%rax, errortext+64(%rip)	# tmp233, MEM[(void *)&errortext]
	movabsq	$7594793480294593633, %rax	#, tmp234
	movq	%rax, errortext+72(%rip)	# tmp234, MEM[(void *)&errortext]
	movl	$3040620, errortext+80(%rip)	#, MEM[(void *)&errortext]
	.loc 1 252 0
	movl	$400, %esi	#,
	movl	$errortext, %edi	#,
	call	error	#
	.loc 1 253 0
	nop
.L43:
	.loc 1 255 0
	movl	$1, -24(%rbp)	#, slice_read
	jmp	.L44	#
.L37:
	.loc 1 260 0
	cmpl	$0, -20(%rbp)	#, order_read
	jne	.L45	#,
	.loc 1 262 0
	call	__ctype_b_loc	#
	movq	(%rax), %rcx	# *_44, D.5528
	movq	input(%rip), %rdx	# input, input.60
	movl	-32(%rbp), %eax	# i, tmp184
	cltq
	movzbl	1324(%rdx,%rax), %eax	# input.60_46->ExplicitPyramidFormat, D.5524
	movsbq	%al, %rax	# D.5524, D.5523
	addq	%rax, %rax	# D.5523
	addq	%rcx, %rax	# D.5528, D.5528
	movzwl	(%rax), %eax	# *_51, D.5530
	movzwl	%ax, %eax	# D.5530, D.5525
	andl	$2048, %eax	#, D.5525
	testl	%eax, %eax	# D.5525
	je	.L46	#,
	.loc 1 264 0
	movq	input(%rip), %rax	# input, input.61
	movl	-32(%rbp), %edx	# i, tmp185
	movslq	%edx, %rdx	# tmp185, D.5529
	addq	$1312, %rdx	#, tmp186
	addq	%rdx, %rax	# tmp186, tmp187
	leaq	12(%rax), %rcx	#, D.5531
	leaq	-36(%rbp), %rax	#, tmp188
	movq	%rax, %rdx	# tmp188,
	movl	$.LC3, %esi	#,
	movq	%rcx, %rdi	# D.5531,
	movl	$0, %eax	#,
	call	__isoc99_sscanf	#
	.loc 1 265 0
	movq	gop_structure(%rip), %rcx	# gop_structure, gop_structure.62
	movl	-8(%rbp), %eax	# coded_frame, tmp189
	movslq	%eax, %rdx	# tmp189, D.5523
	movq	%rdx, %rax	# D.5523, tmp190
	addq	%rax, %rax	# tmp190
	addq	%rdx, %rax	# D.5523, tmp190
	salq	$3, %rax	#, tmp191
	leaq	(%rcx,%rax), %rdx	#, D.5526
	movl	-36(%rbp), %eax	# display_no, display_no.63
	movl	%eax, 4(%rdx)	# display_no.63, _61->display_no
	.loc 1 266 0
	movl	$1, -20(%rbp)	#, order_read
	.loc 1 267 0
	movl	-36(%rbp), %eax	# display_no, display_no.64
	testl	%eax, %eax	# display_no.64
	js	.L47	#,
	.loc 1 267 0 is_stmt 0 discriminator 1
	movq	input(%rip), %rax	# input, input.65
	movl	20(%rax), %edx	# input.65_65->jumpd, D.5525
	movl	-36(%rbp), %eax	# display_no, display_no.66
	cmpl	%eax, %edx	# display_no.66, D.5525
	jg	.L48	#,
.L47:
	.loc 1 269 0 is_stmt 1
	movq	input(%rip), %rax	# input, input.67
	movl	20(%rax), %eax	# input.67_68->jumpd, D.5525
	subl	$1, %eax	#, D.5525
	movl	%eax, %ecx	# D.5525,
	movl	$.LC4, %edx	#,
	movl	$300, %esi	#,
	movl	$errortext, %edi	#,
	movl	$0, %eax	#,
	call	snprintf	#
	.loc 1 270 0
	movl	$400, %esi	#,
	movl	$errortext, %edi	#,
	call	error	#
.L48:
	.loc 1 272 0
	movl	$0, -28(%rbp)	#, k
	jmp	.L49	#
.L51:
	.loc 1 274 0
	movq	gop_structure(%rip), %rcx	# gop_structure, gop_structure.68
	movl	-28(%rbp), %eax	# k, tmp192
	movslq	%eax, %rdx	# tmp192, D.5523
	movq	%rdx, %rax	# D.5523, tmp193
	addq	%rax, %rax	# tmp193
	addq	%rdx, %rax	# D.5523, tmp193
	salq	$3, %rax	#, tmp194
	addq	%rcx, %rax	# gop_structure.68, D.5526
	movl	4(%rax), %edx	# _75->display_no, D.5525
	movl	-36(%rbp), %eax	# display_no, display_no.69
	cmpl	%eax, %edx	# display_no.69, D.5525
	jne	.L50	#,
	.loc 1 276 0
	movl	-36(%rbp), %eax	# display_no, display_no.70
	movl	-28(%rbp), %ecx	# k, tmp195
	movl	-8(%rbp), %edx	# coded_frame, tmp196
	movl	%ecx, %r9d	# tmp195,
	movl	%edx, %r8d	# tmp196,
	movl	%eax, %ecx	# display_no.70,
	movl	$.LC5, %edx	#,
	movl	$300, %esi	#,
	movl	$errortext, %edi	#,
	movl	$0, %eax	#,
	call	snprintf	#
	.loc 1 277 0
	movl	$400, %esi	#,
	movl	$errortext, %edi	#,
	call	error	#
.L50:
	.loc 1 272 0
	addl	$1, -28(%rbp)	#, k
.L49:
	.loc 1 272 0 is_stmt 0 discriminator 1
	movl	-28(%rbp), %eax	# k, tmp197
	cmpl	-8(%rbp), %eax	# coded_frame, tmp197
	jl	.L51	#,
	jmp	.L44	#
.L46:
	.loc 1 283 0 is_stmt 1
	movabsq	$8742648396464614483, %rax	#, tmp235
	movq	%rax, errortext(%rip)	# tmp235, MEM[(void *)&errortext]
	movabsq	$8314882298346497392, %rax	#, tmp236
	movq	%rax, errortext+8(%rip)	# tmp236, MEM[(void *)&errortext]
	movabsq	$7358993263248765984, %rax	#, tmp237
	movq	%rax, errortext+16(%rip)	# tmp237, MEM[(void *)&errortext]
	movabsq	$2334102070529649775, %rax	#, tmp238
	movq	%rax, errortext+24(%rip)	# tmp238, MEM[(void *)&errortext]
	movabsq	$7813872249439549794, %rax	#, tmp239
	movq	%rax, errortext+32(%rip)	# tmp239, MEM[(void *)&errortext]
	movabsq	$8243105135088138593, %rax	#, tmp240
	movq	%rax, errortext+40(%rip)	# tmp240, MEM[(void *)&errortext]
	movabsq	$7310293708389228590, %rax	#, tmp241
	movq	%rax, errortext+48(%rip)	# tmp241, MEM[(void *)&errortext]
	movabsq	$7142827083656880928, %rax	#, tmp242
	movq	%rax, errortext+56(%rip)	# tmp242, MEM[(void *)&errortext]
	movabsq	$7021803856034426479, %rax	#, tmp243
	movq	%rax, errortext+64(%rip)	# tmp243, MEM[(void *)&errortext]
	movabsq	$7811887318128617844, %rax	#, tmp244
	movq	%rax, errortext+72(%rip)	# tmp244, MEM[(void *)&errortext]
	movw	$11877, errortext+80(%rip)	#, MEM[(void *)&errortext]
	movb	$0, errortext+82(%rip)	#, MEM[(void *)&errortext]
	.loc 1 284 0
	movl	$400, %esi	#,
	movl	$errortext, %edi	#,
	call	error	#
	jmp	.L44	#
.L45:
	.loc 1 287 0
	cmpl	$1, -20(%rbp)	#, order_read
	jne	.L44	#,
	.loc 1 289 0
	cmpl	$0, -16(%rbp)	#, stored_read
	jne	.L53	#,
	.loc 1 289 0 is_stmt 0 discriminator 1
	call	__ctype_b_loc	#
	movq	(%rax), %rcx	# *_80, D.5528
	movq	input(%rip), %rdx	# input, input.71
	movl	-32(%rbp), %eax	# i, tmp199
	cltq
	movzbl	1324(%rdx,%rax), %eax	# input.71_82->ExplicitPyramidFormat, D.5524
	movsbq	%al, %rax	# D.5524, D.5523
	addq	%rax, %rax	# D.5523
	addq	%rcx, %rax	# D.5528, D.5528
	movzwl	(%rax), %eax	# *_87, D.5530
	movzwl	%ax, %eax	# D.5530, D.5525
	andl	$2048, %eax	#, D.5525
	testl	%eax, %eax	# D.5525
	jne	.L53	#,
	.loc 1 291 0 is_stmt 1
	movq	input(%rip), %rdx	# input, input.72
	movl	-32(%rbp), %eax	# i, tmp201
	cltq
	movzbl	1324(%rdx,%rax), %eax	# input.72_91->ExplicitPyramidFormat, D.5524
	movsbl	%al, %eax	# D.5524, D.5525
	cmpl	$82, %eax	#, D.5525
	je	.L55	#,
	cmpl	$82, %eax	#, D.5525
	jg	.L56	#,
	cmpl	$69, %eax	#, D.5525
	je	.L57	#,
	jmp	.L54	#
.L56:
	cmpl	$101, %eax	#, D.5525
	je	.L57	#,
	cmpl	$114, %eax	#, D.5525
	je	.L55	#,
	jmp	.L54	#
.L57:
	.loc 1 295 0
	movq	gop_structure(%rip), %rcx	# gop_structure, gop_structure.73
	movl	-8(%rbp), %eax	# coded_frame, tmp202
	movslq	%eax, %rdx	# tmp202, D.5523
	movq	%rdx, %rax	# D.5523, tmp203
	addq	%rax, %rax	# tmp203
	addq	%rdx, %rax	# D.5523, tmp203
	salq	$3, %rax	#, tmp204
	addq	%rcx, %rax	# gop_structure.73, D.5526
	movl	$0, 8(%rax)	#, _97->reference_idc
	.loc 1 296 0
	jmp	.L58	#
.L55:
	.loc 1 299 0
	movq	gop_structure(%rip), %rcx	# gop_structure, gop_structure.74
	movl	-8(%rbp), %eax	# coded_frame, tmp205
	movslq	%eax, %rdx	# tmp205, D.5523
	movq	%rdx, %rax	# D.5523, tmp206
	addq	%rax, %rax	# tmp206
	addq	%rdx, %rax	# D.5523, tmp206
	salq	$3, %rax	#, tmp207
	addq	%rcx, %rax	# gop_structure.74, D.5526
	movl	$2, 8(%rax)	#, _101->reference_idc
	.loc 1 300 0
	jmp	.L58	#
.L54:
	.loc 1 302 0
	movabsq	$7164775599194924370, %rax	#, tmp245
	movq	%rax, errortext(%rip)	# tmp245, MEM[(void *)&errortext]
	movabsq	$7955925690007248741, %rax	#, tmp246
	movq	%rax, errortext+8(%rip)	# tmp246, MEM[(void *)&errortext]
	movabsq	$7955925832364220790, %rax	#, tmp247
	movq	%rax, errortext+16(%rip)	# tmp247, MEM[(void *)&errortext]
	movabsq	$7594029311141102880, %rax	#, tmp248
	movq	%rax, errortext+24(%rip)	# tmp248, MEM[(void *)&errortext]
	movabsq	$7235434541647220852, %rax	#, tmp249
	movq	%rax, errortext+32(%rip)	# tmp249, MEM[(void *)&errortext]
	movabsq	$8079585693299535686, %rax	#, tmp250
	movq	%rax, errortext+40(%rip)	# tmp250, MEM[(void *)&errortext]
	movabsq	$7804773538008756833, %rax	#, tmp251
	movq	%rax, errortext+48(%rip)	# tmp251, MEM[(void *)&errortext]
	movabsq	$7307199386200793445, %rax	#, tmp252
	movq	%rax, errortext+56(%rip)	# tmp252, MEM[(void *)&errortext]
	movabsq	$7594879246290414435, %rax	#, tmp253
	movq	%rax, errortext+64(%rip)	# tmp253, MEM[(void *)&errortext]
	movabsq	$7957695015158969703, %rax	#, tmp254
	movq	%rax, errortext+72(%rip)	# tmp254, MEM[(void *)&errortext]
	movl	$1818846752, errortext+80(%rip)	#, MEM[(void *)&errortext]
	movw	$11877, errortext+84(%rip)	#, MEM[(void *)&errortext]
	movb	$0, errortext+86(%rip)	#, MEM[(void *)&errortext]
	.loc 1 303 0
	movl	$400, %esi	#,
	movl	$errortext, %edi	#,
	call	error	#
	.loc 1 304 0
	nop
.L58:
	.loc 1 306 0
	movl	$1, -16(%rbp)	#, stored_read
	jmp	.L44	#
.L53:
	.loc 1 308 0
	cmpl	$1, -16(%rbp)	#, stored_read
	jne	.L59	#,
	.loc 1 308 0 is_stmt 0 discriminator 1
	cmpl	$0, -12(%rbp)	#, qp_read
	jne	.L59	#,
	.loc 1 310 0 is_stmt 1
	call	__ctype_b_loc	#
	movq	(%rax), %rcx	# *_103, D.5528
	movq	input(%rip), %rdx	# input, input.75
	movl	-32(%rbp), %eax	# i, tmp209
	cltq
	movzbl	1324(%rdx,%rax), %eax	# input.75_105->ExplicitPyramidFormat, D.5524
	movsbq	%al, %rax	# D.5524, D.5523
	addq	%rax, %rax	# D.5523
	addq	%rcx, %rax	# D.5528, D.5528
	movzwl	(%rax), %eax	# *_110, D.5530
	movzwl	%ax, %eax	# D.5530, D.5525
	andl	$2048, %eax	#, D.5525
	testl	%eax, %eax	# D.5525
	je	.L60	#,
	.loc 1 312 0
	movq	input(%rip), %rax	# input, input.76
	movl	-32(%rbp), %edx	# i, tmp210
	movslq	%edx, %rdx	# tmp210, D.5529
	addq	$1312, %rdx	#, tmp211
	addq	%rdx, %rax	# tmp211, tmp212
	leaq	12(%rax), %rcx	#, D.5531
	leaq	-40(%rbp), %rax	#, tmp213
	movq	%rax, %rdx	# tmp213,
	movl	$.LC3, %esi	#,
	movq	%rcx, %rdi	# D.5531,
	movl	$0, %eax	#,
	call	__isoc99_sscanf	#
	.loc 1 313 0
	movq	gop_structure(%rip), %rcx	# gop_structure, gop_structure.77
	movl	-8(%rbp), %eax	# coded_frame, tmp214
	movslq	%eax, %rdx	# tmp214, D.5523
	movq	%rdx, %rax	# D.5523, tmp215
	addq	%rax, %rax	# tmp215
	addq	%rdx, %rax	# D.5523, tmp215
	salq	$3, %rax	#, tmp216
	leaq	(%rcx,%rax), %rdx	#, D.5526
	movl	-40(%rbp), %eax	# qp, qp.78
	movl	%eax, 12(%rdx)	# qp.78, _120->slice_qp
	.loc 1 314 0
	movl	$1, -12(%rbp)	#, qp_read
	.loc 1 315 0
	movl	-40(%rbp), %eax	# qp, qp.79
	testl	%eax, %eax	# qp.79
	js	.L61	#,
	.loc 1 315 0 is_stmt 0 discriminator 1
	movl	-40(%rbp), %eax	# qp, qp.80
	cmpl	$51, %eax	#, qp.80
	jle	.L63	#,
.L61:
	.loc 1 317 0 is_stmt 1
	movabsq	$2334106421097295433, %rax	#, tmp255
	movq	%rax, errortext(%rip)	# tmp255, MEM[(void *)&errortext]
	movabsq	$7310868735955325009, %rax	#, tmp256
	movq	%rax, errortext+8(%rip)	# tmp256, MEM[(void *)&errortext]
	movabsq	$7310293708389228590, %rax	#, tmp257
	movq	%rax, errortext+16(%rip)	# tmp257, MEM[(void *)&errortext]
	movabsq	$7142827083656880928, %rax	#, tmp258
	movq	%rax, errortext+24(%rip)	# tmp258, MEM[(void *)&errortext]
	movabsq	$7021803856034426479, %rax	#, tmp259
	movq	%rax, errortext+32(%rip)	# tmp259, MEM[(void *)&errortext]
	movabsq	$7811887318128617844, %rax	#, tmp260
	movq	%rax, errortext+40(%rip)	# tmp260, MEM[(void *)&errortext]
	movw	$11877, errortext+48(%rip)	#, MEM[(void *)&errortext]
	movb	$0, errortext+50(%rip)	#, MEM[(void *)&errortext]
	.loc 1 318 0
	movl	$400, %esi	#,
	movl	$errortext, %edi	#,
	call	error	#
	.loc 1 310 0
	jmp	.L44	#
.L60:
	.loc 1 323 0
	movabsq	$7164775599194924370, %rax	#, tmp261
	movq	%rax, errortext(%rip)	# tmp261, MEM[(void *)&errortext]
	movabsq	$7308814718549450597, %rax	#, tmp262
	movq	%rax, errortext+8(%rip)	# tmp262, MEM[(void *)&errortext]
	movabsq	$7070773959523001445, %rax	#, tmp263
	movq	%rax, errortext+16(%rip)	# tmp263, MEM[(void *)&errortext]
	movabsq	$8606216625909538917, %rax	#, tmp264
	movq	%rax, errortext+24(%rip)	# tmp264, MEM[(void *)&errortext]
	movabsq	$5787442701857219685, %rax	#, tmp265
	movq	%rax, errortext+32(%rip)	# tmp265, MEM[(void *)&errortext]
	movabsq	$7310293708389228590, %rax	#, tmp266
	movq	%rax, errortext+40(%rip)	# tmp266, MEM[(void *)&errortext]
	movabsq	$7142827083656880928, %rax	#, tmp267
	movq	%rax, errortext+48(%rip)	# tmp267, MEM[(void *)&errortext]
	movabsq	$7021803856034426479, %rax	#, tmp268
	movq	%rax, errortext+56(%rip)	# tmp268, MEM[(void *)&errortext]
	movabsq	$7811887318128617844, %rax	#, tmp269
	movq	%rax, errortext+64(%rip)	# tmp269, MEM[(void *)&errortext]
	movw	$11877, errortext+72(%rip)	#, MEM[(void *)&errortext]
	movb	$0, errortext+74(%rip)	#, MEM[(void *)&errortext]
	.loc 1 324 0
	movl	$400, %esi	#,
	movl	$errortext, %edi	#,
	call	error	#
	.loc 1 310 0
	jmp	.L44	#
.L63:
	jmp	.L44	#
.L59:
	.loc 1 327 0
	cmpl	$1, -16(%rbp)	#, stored_read
	jne	.L44	#,
	.loc 1 327 0 is_stmt 0 discriminator 1
	cmpl	$1, -12(%rbp)	#, qp_read
	jne	.L44	#,
	call	__ctype_b_loc	#
	movq	(%rax), %rcx	# *_125, D.5528
	movq	input(%rip), %rdx	# input, input.81
	movl	-32(%rbp), %eax	# i, tmp219
	cltq
	movzbl	1324(%rdx,%rax), %eax	# input.81_127->ExplicitPyramidFormat, D.5524
	movsbq	%al, %rax	# D.5524, D.5523
	addq	%rax, %rax	# D.5523
	addq	%rcx, %rax	# D.5528, D.5528
	movzwl	(%rax), %eax	# *_132, D.5530
	movzwl	%ax, %eax	# D.5530, D.5525
	andl	$2048, %eax	#, D.5525
	testl	%eax, %eax	# D.5525
	jne	.L44	#,
	movl	-4(%rbp), %eax	# nLength, tmp220
	subl	$2, %eax	#, D.5525
	cmpl	-32(%rbp), %eax	# i, D.5525
	jle	.L44	#,
	.loc 1 329 0 is_stmt 1
	movl	$0, -16(%rbp)	#, stored_read
	.loc 1 330 0
	movl	$0, -12(%rbp)	#, qp_read
	.loc 1 331 0
	movl	$0, -20(%rbp)	#, order_read
	.loc 1 332 0
	movl	$0, -24(%rbp)	#, slice_read
	.loc 1 333 0
	subl	$1, -32(%rbp)	#, i
	.loc 1 334 0
	addl	$1, -8(%rbp)	#, coded_frame
	.loc 1 335 0
	movq	input(%rip), %rax	# input, input.82
	movl	20(%rax), %eax	# input.82_143->jumpd, D.5525
	cmpl	-8(%rbp), %eax	# coded_frame, D.5525
	jg	.L44	#,
	.loc 1 337 0
	movabsq	$8461736399739318100, %rax	#, tmp270
	movq	%rax, errortext(%rip)	# tmp270, MEM[(void *)&errortext]
	movabsq	$2334675641987064429, %rax	#, tmp271
	movq	%rax, errortext+8(%rip)	# tmp271, MEM[(void *)&errortext]
	movabsq	$7575181452701168230, %rax	#, tmp272
	movq	%rax, errortext+16(%rip)	# tmp272, MEM[(void *)&errortext]
	movabsq	$7164771158347554926, %rax	#, tmp273
	movq	%rax, errortext+24(%rip)	# tmp273, MEM[(void *)&errortext]
	movabsq	$5712570336783199589, %rax	#, tmp274
	movq	%rax, errortext+32(%rip)	# tmp274, MEM[(void *)&errortext]
	movabsq	$8367798494310572112, %rax	#, tmp275
	movq	%rax, errortext+40(%rip)	# tmp275, MEM[(void *)&errortext]
	movabsq	$8603394952487116911, %rax	#, tmp276
	movq	%rax, errortext+48(%rip)	# tmp276, MEM[(void *)&errortext]
	movabsq	$8170972774796391013, %rax	#, tmp277
	movq	%rax, errortext+56(%rip)	# tmp277, MEM[(void *)&errortext]
	movabsq	$5053161326460559733, %rax	#, tmp278
	movq	%rax, errortext+64(%rip)	# tmp278, MEM[(void *)&errortext]
	movabsq	$8100123410730672498, %rax	#, tmp279
	movq	%rax, errortext+72(%rip)	# tmp279, MEM[(void *)&errortext]
	movabsq	$8387230146345660448, %rax	#, tmp280
	movq	%rax, errortext+80(%rip)	# tmp280, MEM[(void *)&errortext]
	movl	$3043941, errortext+88(%rip)	#, MEM[(void *)&errortext]
	.loc 1 338 0
	movl	$400, %esi	#,
	movl	$errortext, %edi	#,
	call	error	#
.L44:
	.loc 1 231 0
	addl	$1, -32(%rbp)	#, i
.L36:
	.loc 1 231 0 is_stmt 0 discriminator 1
	movl	-32(%rbp), %eax	# i, tmp222
	cmpl	-4(%rbp), %eax	# nLength, tmp222
	jl	.L64	#,
	jmp	.L65	#
.L35:
	.loc 1 349 0 is_stmt 1
	movabsq	$8388345085396285509, %rax	#, tmp281
	movq	%rax, errortext(%rip)	# tmp281, MEM[(void *)&errortext]
	movabsq	$5072294998833264976, %rax	#, tmp282
	movq	%rax, errortext+8(%rip)	# tmp282, MEM[(void *)&errortext]
	movabsq	$8316213871139189359, %rax	#, tmp283
	movq	%rax, errortext+16(%rip)	# tmp283, MEM[(void *)&errortext]
	movabsq	$2318924399151768864, %rax	#, tmp284
	movq	%rax, errortext+24(%rip)	# tmp284, MEM[(void *)&errortext]
	movabsq	$7142820555239287888, %rax	#, tmp285
	movq	%rax, errortext+32(%rip)	# tmp285, MEM[(void *)&errortext]
	movabsq	$7957688057478735208, %rax	#, tmp286
	movq	%rax, errortext+40(%rip)	# tmp286, MEM[(void *)&errortext]
	movabsq	$7598805615504746854, %rax	#, tmp287
	movq	%rax, errortext+48(%rip)	# tmp287, MEM[(void *)&errortext]
	movabsq	$3343197498333228655, %rax	#, tmp288
	movq	%rax, errortext+56(%rip)	# tmp288, MEM[(void *)&errortext]
	movb	$0, errortext+64(%rip)	#, MEM[(void *)&errortext]
	.loc 1 350 0
	movl	$400, %esi	#,
	movl	$errortext, %edi	#,
	call	error	#
.L65:
	.loc 1 353 0
	movq	input(%rip), %rax	# input, input.83
	movl	-8(%rbp), %edx	# coded_frame, tmp224
	addl	$1, %edx	#, D.5525
	movl	%edx, 1236(%rax)	# D.5525, input.83_146->successive_Bframe
	.loc 1 354 0
	leave
	.cfi_def_cfa 7, 8
	ret
	.cfi_endproc
.LFE6:
	.size	interpret_gop_structure, .-interpret_gop_structure
	.globl	encode_enhancement_layer
	.type	encode_enhancement_layer, @function
encode_enhancement_layer:
.LFB7:
	.loc 1 364 0
	.cfi_startproc
	pushq	%rbp	#
	.cfi_def_cfa_offset 16
	.cfi_offset 6, -16
	movq	%rsp, %rbp	#,
	.cfi_def_cfa_register 6
	.loc 1 365 0
	movq	input(%rip), %rax	# input, input.84
	movl	1236(%rax), %eax	# input.84_1->successive_Bframe, D.5536
	testl	%eax, %eax	# D.5536
	je	.L67	#,
	.loc 1 365 0 is_stmt 0 discriminator 1
	movq	img(%rip), %rax	# img, img.85
	movl	(%rax), %edx	# img.85_3->number, D.5536
	movl	start_frame_no_in_this_IGOP(%rip), %eax	# start_frame_no_in_this_IGOP, start_frame_no_in_this_IGOP.86
	subl	%eax, %edx	# start_frame_no_in_this_IGOP.86, D.5536
	movl	%edx, %eax	# D.5536, D.5536
	testl	%eax, %eax	# D.5536
	jle	.L67	#,
	.loc 1 367 0 is_stmt 1
	movq	img(%rip), %rax	# img, img.87
	movl	$1, 24(%rax)	#, img.87_7->type
	.loc 1 369 0
	movq	input(%rip), %rax	# input, input.88
	movl	2912(%rax), %eax	# input.88_8->NumFramesInELSubSeq, D.5536
	testl	%eax, %eax	# D.5536
	jne	.L68	#,
	.loc 1 370 0
	movq	img(%rip), %rax	# img, img.89
	movl	$0, 72384(%rax)	#, img.89_10->layer
	jmp	.L69	#
.L68:
	.loc 1 372 0
	movq	img(%rip), %rax	# img, img.90
	movl	$1, 72384(%rax)	#, img.90_11->layer
.L69:
	.loc 1 374 0
	movq	input(%rip), %rax	# input, input.91
	movl	1316(%rax), %eax	# input.91_12->BRefPictures, D.5536
	testl	%eax, %eax	# D.5536
	jne	.L70	#,
	.loc 1 374 0 is_stmt 0 discriminator 1
	movq	input(%rip), %rax	# input, input.92
	movl	1320(%rax), %eax	# input.92_14->PyramidCoding, D.5536
	testl	%eax, %eax	# D.5536
	jne	.L70	#,
	.loc 1 376 0 is_stmt 1
	movq	img(%rip), %rax	# img, img.93
	movl	72464(%rax), %edx	# img.93_16->frame_num, D.5537
	addl	$1, %edx	#, D.5537
	movl	%edx, 72464(%rax)	# D.5537, img.93_16->frame_num
	.loc 1 377 0
	movq	img(%rip), %rax	# img, img.94
	movq	img(%rip), %rdx	# img, img.95
	movl	72464(%rdx), %esi	# img.95_20->frame_num, D.5537
	movl	log2_max_frame_num_minus4(%rip), %edx	# log2_max_frame_num_minus4, log2_max_frame_num_minus4.96
	addl	$4, %edx	#, D.5537
	movl	$1, %edi	#, tmp384
	movl	%edx, %ecx	# D.5536, tmp407
	sall	%cl, %edi	# tmp407, D.5536
	movl	%edi, %edx	# D.5536, D.5536
	subl	$1, %edx	#, D.5536
	andl	%esi, %edx	# D.5537, D.5537
	movl	%edx, 72464(%rax)	# D.5537, img.94_19->frame_num
.L70:
	.loc 1 379 0
	movq	img(%rip), %rax	# img, img.97
	movl	$0, 72496(%rax)	#, img.97_29->nal_reference_idc
	.loc 1 382 0
	movq	input(%rip), %rax	# input, input.98
	movl	1320(%rax), %eax	# input.98_30->PyramidCoding, D.5536
	testl	%eax, %eax	# D.5536
	je	.L71	#,
	.loc 1 384 0
	movq	img(%rip), %rax	# img, img.99
	movl	$1, 71908(%rax)	#, img.99_32->b_frame_to_code
	jmp	.L72	#
.L82:
	.loc 1 387 0
	movq	img(%rip), %rax	# img, img.100
	movl	$0, 72496(%rax)	#, img.100_37->nal_reference_idc
	.loc 1 389 0
	movq	img(%rip), %rcx	# img, img.101
	movq	gop_structure(%rip), %rsi	# gop_structure, gop_structure.102
	movq	img(%rip), %rax	# img, img.103
	movl	71908(%rax), %eax	# img.103_40->b_frame_to_code, D.5536
	movslq	%eax, %rdx	# D.5536, D.5538
	movq	%rdx, %rax	# D.5538, tmp385
	addq	%rax, %rax	# tmp385
	addq	%rdx, %rax	# D.5538, tmp385
	salq	$3, %rax	#, tmp386
	subq	$24, %rax	#, D.5539
	addq	%rsi, %rax	# gop_structure.102, D.5540
	movl	(%rax), %eax	# _45->slice_type, D.5536
	movl	%eax, 24(%rcx)	# D.5536, img.101_38->type
	.loc 1 391 0
	movq	gop_structure(%rip), %rcx	# gop_structure, gop_structure.104
	movq	img(%rip), %rax	# img, img.105
	movl	71908(%rax), %eax	# img.105_48->b_frame_to_code, D.5536
	movslq	%eax, %rdx	# D.5536, D.5538
	movq	%rdx, %rax	# D.5538, tmp387
	addq	%rax, %rax	# tmp387
	addq	%rdx, %rax	# D.5538, tmp387
	salq	$3, %rax	#, tmp388
	subq	$24, %rax	#, D.5539
	addq	%rcx, %rax	# gop_structure.104, D.5540
	movl	8(%rax), %eax	# _53->reference_idc, D.5536
	cmpl	$2, %eax	#, D.5536
	jne	.L73	#,
	.loc 1 393 0
	movq	img(%rip), %rax	# img, img.106
	movl	$1, 72496(%rax)	#, img.106_55->nal_reference_idc
	.loc 1 394 0
	movq	img(%rip), %rax	# img, img.107
	movl	72464(%rax), %edx	# img.107_56->frame_num, D.5537
	addl	$1, %edx	#, D.5537
	movl	%edx, 72464(%rax)	# D.5537, img.107_56->frame_num
	.loc 1 395 0
	movq	img(%rip), %rax	# img, img.108
	movq	img(%rip), %rdx	# img, img.109
	movl	72464(%rdx), %esi	# img.109_60->frame_num, D.5537
	movl	log2_max_frame_num_minus4(%rip), %edx	# log2_max_frame_num_minus4, log2_max_frame_num_minus4.110
	addl	$4, %edx	#, D.5537
	movl	$1, %edi	#, tmp389
	movl	%edx, %ecx	# D.5536, tmp409
	sall	%cl, %edi	# tmp409, D.5536
	movl	%edi, %edx	# D.5536, D.5536
	subl	$1, %edx	#, D.5536
	andl	%esi, %edx	# D.5537, D.5537
	movl	%edx, 72464(%rax)	# D.5537, img.108_59->frame_num
.L73:
	.loc 1 398 0
	movq	img(%rip), %rax	# img, img.111
	.loc 1 399 0
	movq	input(%rip), %rdx	# input, input.112
	movl	20(%rdx), %edx	# input.112_70->jumpd, D.5536
	addl	$1, %edx	#, D.5536
	cvtsi2sd	%edx, %xmm0	# D.5536, D.5541
	movq	input(%rip), %rdx	# input, input.113
	movl	1236(%rdx), %edx	# input.113_74->successive_Bframe, D.5536
	cvtsi2sd	%edx, %xmm1	# D.5536, D.5541
	movsd	.LC6(%rip), %xmm2	#, tmp390
	addsd	%xmm2, %xmm1	# tmp390, D.5541
	divsd	%xmm1, %xmm0	# D.5541, D.5541
	.loc 1 398 0
	movsd	%xmm0, 71896(%rax)	# D.5541, img.111_69->b_interval
	.loc 1 401 0
	movq	input(%rip), %rax	# input, input.114
	movl	1320(%rax), %eax	# input.114_79->PyramidCoding, D.5536
	cmpl	$3, %eax	#, D.5536
	jne	.L74	#,
	.loc 1 402 0
	movq	img(%rip), %rdx	# img, img.115
	movabsq	$4607182418800017408, %rax	#, tmp391
	movq	%rax, 71896(%rdx)	# tmp391, img.115_81->b_interval
.L74:
	.loc 1 404 0
	movq	input(%rip), %rax	# input, input.116
	movl	1224(%rax), %eax	# input.116_82->intra_period, D.5536
	testl	%eax, %eax	# D.5536
	je	.L75	#,
	.loc 1 404 0 is_stmt 0 discriminator 1
	movq	input(%rip), %rax	# input, input.117
	movl	1228(%rax), %eax	# input.117_84->idr_enable, D.5536
	testl	%eax, %eax	# D.5536
	je	.L75	#,
	.loc 1 405 0 is_stmt 1
	movq	img(%rip), %rcx	# img, img.118
	movq	img(%rip), %rax	# img, img.119
	movl	(%rax), %edx	# img.119_87->number, D.5536
	movl	start_frame_no_in_this_IGOP(%rip), %eax	# start_frame_no_in_this_IGOP, start_frame_no_in_this_IGOP.120
	subl	%eax, %edx	# start_frame_no_in_this_IGOP.120, D.5536
	movq	input(%rip), %rax	# input, input.121
	movl	1224(%rax), %esi	# input.121_91->intra_period, D.5536
	movl	%edx, %eax	# D.5536, tmp393
	cltd
	idivl	%esi	# D.5536
	movl	%edx, %eax	# tmp392, D.5536
	leal	-1(%rax), %edx	#, D.5536
	movq	input(%rip), %rax	# input, input.122
	movl	20(%rax), %eax	# input.122_95->jumpd, D.5536
	addl	$1, %eax	#, D.5536
	movl	%edx, %esi	# D.5536, D.5536
	imull	%eax, %esi	# D.5536, D.5536
	movq	img(%rip), %rax	# img, img.123
	movsd	71896(%rax), %xmm1	# img.123_99->b_interval, D.5541
	movq	gop_structure(%rip), %rdi	# gop_structure, gop_structure.124
	movq	img(%rip), %rax	# img, img.125
	movl	71908(%rax), %eax	# img.125_102->b_frame_to_code, D.5536
	movslq	%eax, %rdx	# D.5536, D.5538
	movq	%rdx, %rax	# D.5538, tmp394
	addq	%rax, %rax	# tmp394
	addq	%rdx, %rax	# D.5538, tmp394
	salq	$3, %rax	#, tmp395
	subq	$24, %rax	#, D.5539
	addq	%rdi, %rax	# gop_structure.124, D.5540
	movl	4(%rax), %eax	# _107->display_no, D.5536
	addl	$1, %eax	#, D.5536
	cvtsi2sd	%eax, %xmm0	# D.5536, D.5541
	mulsd	%xmm1, %xmm0	# D.5541, D.5541
	cvttsd2si	%xmm0, %eax	# D.5541, D.5536
	addl	%esi, %eax	# D.5536, D.5536
	addl	%eax, %eax	# D.5536
	movl	%eax, 72448(%rcx)	# D.5536, img.118_86->toppoc
	jmp	.L76	#
.L75:
	.loc 1 407 0
	movq	img(%rip), %rcx	# img, img.126
	movq	img(%rip), %rax	# img, img.127
	movl	(%rax), %edx	# img.127_116->number, D.5536
	movl	start_frame_no_in_this_IGOP(%rip), %eax	# start_frame_no_in_this_IGOP, start_frame_no_in_this_IGOP.128
	subl	%eax, %edx	# start_frame_no_in_this_IGOP.128, D.5536
	movl	%edx, %eax	# D.5536, D.5536
	leal	-1(%rax), %edx	#, D.5536
	movq	input(%rip), %rax	# input, input.129
	movl	20(%rax), %eax	# input.129_121->jumpd, D.5536
	addl	$1, %eax	#, D.5536
	movl	%edx, %esi	# D.5536, D.5536
	imull	%eax, %esi	# D.5536, D.5536
	movq	img(%rip), %rax	# img, img.130
	movsd	71896(%rax), %xmm1	# img.130_125->b_interval, D.5541
	movq	gop_structure(%rip), %rdi	# gop_structure, gop_structure.131
	movq	img(%rip), %rax	# img, img.132
	movl	71908(%rax), %eax	# img.132_128->b_frame_to_code, D.5536
	movslq	%eax, %rdx	# D.5536, D.5538
	movq	%rdx, %rax	# D.5538, tmp396
	addq	%rax, %rax	# tmp396
	addq	%rdx, %rax	# D.5538, tmp396
	salq	$3, %rax	#, tmp397
	subq	$24, %rax	#, D.5539
	addq	%rdi, %rax	# gop_structure.131, D.5540
	movl	4(%rax), %eax	# _133->display_no, D.5536
	addl	$1, %eax	#, D.5536
	cvtsi2sd	%eax, %xmm0	# D.5536, D.5541
	mulsd	%xmm1, %xmm0	# D.5541, D.5541
	cvttsd2si	%xmm0, %eax	# D.5541, D.5536
	addl	%esi, %eax	# D.5536, D.5536
	addl	%eax, %eax	# D.5536
	movl	%eax, 72448(%rcx)	# D.5536, img.126_115->toppoc
.L76:
	.loc 1 409 0
	movq	img(%rip), %rax	# img, img.133
	movl	71908(%rax), %eax	# img.133_141->b_frame_to_code, D.5536
	cmpl	$1, %eax	#, D.5536
	jne	.L77	#,
	.loc 1 410 0
	movq	img(%rip), %rax	# img, img.134
	movq	img(%rip), %rdx	# img, img.135
	movl	72448(%rdx), %ecx	# img.135_144->toppoc, D.5536
	movq	img(%rip), %rdx	# img, img.136
	movl	(%rdx), %esi	# img.136_146->number, D.5536
	movl	start_frame_no_in_this_IGOP(%rip), %edx	# start_frame_no_in_this_IGOP, start_frame_no_in_this_IGOP.137
	subl	%edx, %esi	# start_frame_no_in_this_IGOP.137, D.5536
	movq	input(%rip), %rdx	# input, input.138
	movl	20(%rdx), %edx	# input.138_150->jumpd, D.5536
	notl	%edx	# D.5536
	imull	%edx, %esi	# D.5536, D.5536
	movl	start_tr_in_this_IGOP(%rip), %edx	# start_tr_in_this_IGOP, start_tr_in_this_IGOP.139
	subl	%edx, %esi	# start_tr_in_this_IGOP.139, D.5536
	movl	%esi, %edx	# D.5536, D.5536
	addl	%edx, %edx	# D.5536
	addl	%ecx, %edx	# D.5536, D.5536
	movl	%edx, 72436(%rax)	# D.5536, img.134_143->delta_pic_order_cnt
	jmp	.L78	#
.L77:
	.loc 1 412 0
	movq	img(%rip), %rcx	# img, img.140
	movq	img(%rip), %rax	# img, img.141
	movl	72448(%rax), %esi	# img.141_159->toppoc, D.5536
	movq	img(%rip), %rax	# img, img.142
	movl	(%rax), %edx	# img.142_161->number, D.5536
	movl	start_frame_no_in_this_IGOP(%rip), %eax	# start_frame_no_in_this_IGOP, start_frame_no_in_this_IGOP.143
	subl	%eax, %edx	# start_frame_no_in_this_IGOP.143, D.5536
	movl	%edx, %eax	# D.5536, D.5536
	leal	-1(%rax), %edx	#, D.5536
	movq	input(%rip), %rax	# input, input.144
	movl	20(%rax), %eax	# input.144_166->jumpd, D.5536
	notl	%eax	# D.5536
	imull	%eax, %edx	# D.5536, D.5536
	movl	start_tr_in_this_IGOP(%rip), %eax	# start_tr_in_this_IGOP, start_tr_in_this_IGOP.145
	subl	%eax, %edx	# start_tr_in_this_IGOP.145, D.5536
	movl	%edx, %r8d	# D.5536, D.5536
	movq	img(%rip), %rax	# img, img.146
	movsd	71896(%rax), %xmm0	# img.146_172->b_interval, D.5541
	movapd	%xmm0, %xmm1	# D.5541, D.5541
	addsd	%xmm0, %xmm1	# D.5541, D.5541
	movq	gop_structure(%rip), %rdi	# gop_structure, gop_structure.147
	movq	img(%rip), %rax	# img, img.148
	movl	71908(%rax), %eax	# img.148_176->b_frame_to_code, D.5536
	movslq	%eax, %rdx	# D.5536, D.5538
	movq	%rdx, %rax	# D.5538, tmp398
	addq	%rax, %rax	# tmp398
	addq	%rdx, %rax	# D.5538, tmp398
	salq	$3, %rax	#, tmp399
	subq	$48, %rax	#, D.5539
	addq	%rdi, %rax	# gop_structure.147, D.5540
	movl	4(%rax), %eax	# _181->display_no, D.5536
	addl	$1, %eax	#, D.5536
	cvtsi2sd	%eax, %xmm0	# D.5536, D.5541
	mulsd	%xmm1, %xmm0	# D.5541, D.5541
	cvttsd2si	%xmm0, %eax	# D.5541, D.5536
	subl	%eax, %r8d	# D.5536, D.5536
	movl	%r8d, %eax	# D.5536, D.5536
	addl	%eax, %eax	# D.5536
	addl	%esi, %eax	# D.5536, D.5536
	movl	%eax, 72436(%rcx)	# D.5536, img.140_158->delta_pic_order_cnt
.L78:
	.loc 1 414 0
	movq	input(%rip), %rax	# input, input.149
	movl	2880(%rax), %eax	# input.149_190->PicInterlace, D.5536
	testl	%eax, %eax	# D.5536
	jne	.L79	#,
	.loc 1 414 0 is_stmt 0 discriminator 1
	movq	input(%rip), %rax	# input, input.150
	movl	2884(%rax), %eax	# input.150_192->MbInterlace, D.5536
	testl	%eax, %eax	# D.5536
	jne	.L79	#,
	.loc 1 415 0 is_stmt 1
	movq	img(%rip), %rax	# img, img.151
	movq	img(%rip), %rdx	# img, img.152
	movl	72448(%rdx), %edx	# img.152_195->toppoc, D.5536
	movl	%edx, 72452(%rax)	# D.5536, img.151_194->bottompoc
	jmp	.L80	#
.L79:
	.loc 1 417 0
	movq	img(%rip), %rax	# img, img.153
	movq	img(%rip), %rdx	# img, img.154
	movl	72448(%rdx), %edx	# img.154_198->toppoc, D.5536
	addl	$1, %edx	#, D.5536
	movl	%edx, 72452(%rax)	# D.5536, img.153_197->bottompoc
.L80:
	.loc 1 419 0
	movq	img(%rip), %rcx	# img, img.155
	movq	img(%rip), %rax	# img, img.156
	movl	72452(%rax), %edx	# img.156_202->bottompoc, D.5536
	movq	img(%rip), %rax	# img, img.157
	movl	72448(%rax), %eax	# img.157_204->toppoc, D.5536
	cmpl	%eax, %edx	# D.5536, D.5536
	cmovle	%edx, %eax	# D.5536,, D.5536
	movl	%eax, 72456(%rcx)	# D.5536, img.155_201->framepoc
	.loc 1 421 0
	movq	img(%rip), %rax	# img, img.158
	movl	$0, 72440(%rax)	#, img.158_207->delta_pic_order_cnt
	.loc 1 423 0
	movl	$0, %eax	#,
	call	encode_one_frame	#
	.loc 1 424 0
	movq	input(%rip), %rax	# input, input.159
	movl	3228(%rax), %eax	# input.159_208->ReportFrameStats, D.5536
	testl	%eax, %eax	# D.5536
	je	.L81	#,
	.loc 1 425 0
	movl	$0, %eax	#,
	call	report_frame_statistic	#
.L81:
	.loc 1 384 0
	movq	img(%rip), %rax	# img, img.160
	movl	71908(%rax), %edx	# img.160_210->b_frame_to_code, D.5536
	addl	$1, %edx	#, D.5536
	movl	%edx, 71908(%rax)	# D.5536, img.160_210->b_frame_to_code
.L72:
	.loc 1 384 0 is_stmt 0 discriminator 1
	movq	img(%rip), %rax	# img, img.161
	movl	71908(%rax), %edx	# img.161_33->b_frame_to_code, D.5536
	movq	input(%rip), %rax	# input, input.162
	movl	1236(%rax), %eax	# input.162_35->successive_Bframe, D.5536
	cmpl	%eax, %edx	# D.5536, D.5536
	jle	.L82	#,
	.loc 1 427 0 is_stmt 1
	movq	img(%rip), %rax	# img, img.163
	movl	$0, 71908(%rax)	#, img.163_213->b_frame_to_code
	jmp	.L67	#
.L71:
	.loc 1 431 0
	movq	img(%rip), %rax	# img, img.164
	movl	$1, 71908(%rax)	#, img.164_214->b_frame_to_code
	jmp	.L83	#
.L93:
	.loc 1 434 0
	movq	img(%rip), %rax	# img, img.165
	movl	$0, 72496(%rax)	#, img.165_219->nal_reference_idc
	.loc 1 435 0
	movq	input(%rip), %rax	# input, input.166
	movl	1316(%rax), %eax	# input.166_220->BRefPictures, D.5536
	cmpl	$1, %eax	#, D.5536
	jne	.L84	#,
	.loc 1 437 0
	movq	img(%rip), %rax	# img, img.167
	movl	$1, 72496(%rax)	#, img.167_222->nal_reference_idc
	.loc 1 438 0
	movq	img(%rip), %rax	# img, img.168
	movl	72464(%rax), %edx	# img.168_223->frame_num, D.5537
	addl	$1, %edx	#, D.5537
	movl	%edx, 72464(%rax)	# D.5537, img.168_223->frame_num
	.loc 1 439 0
	movq	img(%rip), %rax	# img, img.169
	movq	img(%rip), %rdx	# img, img.170
	movl	72464(%rdx), %esi	# img.170_227->frame_num, D.5537
	movl	log2_max_frame_num_minus4(%rip), %edx	# log2_max_frame_num_minus4, log2_max_frame_num_minus4.171
	addl	$4, %edx	#, D.5537
	movl	$1, %edi	#, tmp400
	movl	%edx, %ecx	# D.5536, tmp420
	sall	%cl, %edi	# tmp420, D.5536
	movl	%edi, %edx	# D.5536, D.5536
	subl	$1, %edx	#, D.5536
	andl	%esi, %edx	# D.5537, D.5537
	movl	%edx, 72464(%rax)	# D.5537, img.169_226->frame_num
.L84:
	.loc 1 442 0
	movq	img(%rip), %rax	# img, img.172
	.loc 1 443 0
	movq	input(%rip), %rdx	# input, input.173
	movl	20(%rdx), %edx	# input.173_237->jumpd, D.5536
	addl	$1, %edx	#, D.5536
	cvtsi2sd	%edx, %xmm0	# D.5536, D.5541
	movq	input(%rip), %rdx	# input, input.174
	movl	1236(%rdx), %edx	# input.174_241->successive_Bframe, D.5536
	cvtsi2sd	%edx, %xmm1	# D.5536, D.5541
	movsd	.LC6(%rip), %xmm2	#, tmp401
	addsd	%xmm2, %xmm1	# tmp401, D.5541
	divsd	%xmm1, %xmm0	# D.5541, D.5541
	.loc 1 442 0
	movsd	%xmm0, 71896(%rax)	# D.5541, img.172_236->b_interval
	.loc 1 445 0
	movq	input(%rip), %rax	# input, input.175
	movl	1320(%rax), %eax	# input.175_246->PyramidCoding, D.5536
	cmpl	$3, %eax	#, D.5536
	jne	.L85	#,
	.loc 1 446 0
	movq	img(%rip), %rdx	# img, img.176
	movabsq	$4607182418800017408, %rax	#, tmp402
	movq	%rax, 71896(%rdx)	# tmp402, img.176_248->b_interval
.L85:
	.loc 1 448 0
	movq	input(%rip), %rax	# input, input.177
	movl	1224(%rax), %eax	# input.177_249->intra_period, D.5536
	testl	%eax, %eax	# D.5536
	je	.L86	#,
	.loc 1 448 0 is_stmt 0 discriminator 1
	movq	input(%rip), %rax	# input, input.178
	movl	1228(%rax), %eax	# input.178_251->idr_enable, D.5536
	testl	%eax, %eax	# D.5536
	je	.L86	#,
	.loc 1 449 0 is_stmt 1
	movq	img(%rip), %rcx	# img, img.179
	movq	img(%rip), %rax	# img, img.180
	movl	(%rax), %edx	# img.180_254->number, D.5536
	movl	start_frame_no_in_this_IGOP(%rip), %eax	# start_frame_no_in_this_IGOP, start_frame_no_in_this_IGOP.181
	subl	%eax, %edx	# start_frame_no_in_this_IGOP.181, D.5536
	movq	input(%rip), %rax	# input, input.182
	movl	1224(%rax), %esi	# input.182_258->intra_period, D.5536
	movl	%edx, %eax	# D.5536, tmp404
	cltd
	idivl	%esi	# D.5536
	movl	%edx, %eax	# tmp403, D.5536
	leal	-1(%rax), %edx	#, D.5536
	movq	input(%rip), %rax	# input, input.183
	movl	20(%rax), %eax	# input.183_262->jumpd, D.5536
	addl	$1, %eax	#, D.5536
	imull	%eax, %edx	# D.5536, D.5536
	movq	img(%rip), %rax	# img, img.184
	movsd	71896(%rax), %xmm1	# img.184_266->b_interval, D.5541
	movq	img(%rip), %rax	# img, img.185
	movl	71908(%rax), %eax	# img.185_268->b_frame_to_code, D.5536
	cvtsi2sd	%eax, %xmm0	# D.5536, D.5541
	mulsd	%xmm1, %xmm0	# D.5541, D.5541
	cvttsd2si	%xmm0, %eax	# D.5541, D.5536
	addl	%edx, %eax	# D.5536, D.5536
	addl	%eax, %eax	# D.5536
	movl	%eax, 72448(%rcx)	# D.5536, img.179_253->toppoc
	jmp	.L87	#
.L86:
	.loc 1 451 0
	movq	img(%rip), %rax	# img, img.186
	movq	img(%rip), %rdx	# img, img.187
	movl	(%rdx), %ecx	# img.187_276->number, D.5536
	movl	start_frame_no_in_this_IGOP(%rip), %edx	# start_frame_no_in_this_IGOP, start_frame_no_in_this_IGOP.188
	subl	%edx, %ecx	# start_frame_no_in_this_IGOP.188, D.5536
	movl	%ecx, %edx	# D.5536, D.5536
	leal	-1(%rdx), %ecx	#, D.5536
	movq	input(%rip), %rdx	# input, input.189
	movl	20(%rdx), %edx	# input.189_281->jumpd, D.5536
	addl	$1, %edx	#, D.5536
	imull	%edx, %ecx	# D.5536, D.5536
	movq	img(%rip), %rdx	# img, img.190
	movsd	71896(%rdx), %xmm1	# img.190_285->b_interval, D.5541
	movq	img(%rip), %rdx	# img, img.191
	movl	71908(%rdx), %edx	# img.191_287->b_frame_to_code, D.5536
	cvtsi2sd	%edx, %xmm0	# D.5536, D.5541
	mulsd	%xmm1, %xmm0	# D.5541, D.5541
	cvttsd2si	%xmm0, %edx	# D.5541, D.5536
	addl	%ecx, %edx	# D.5536, D.5536
	addl	%edx, %edx	# D.5536
	movl	%edx, 72448(%rax)	# D.5536, img.186_275->toppoc
.L87:
	.loc 1 453 0
	movq	input(%rip), %rax	# input, input.192
	movl	2880(%rax), %eax	# input.192_294->PicInterlace, D.5536
	testl	%eax, %eax	# D.5536
	jne	.L88	#,
	.loc 1 453 0 is_stmt 0 discriminator 1
	movq	input(%rip), %rax	# input, input.193
	movl	2884(%rax), %eax	# input.193_296->MbInterlace, D.5536
	testl	%eax, %eax	# D.5536
	jne	.L88	#,
	.loc 1 454 0 is_stmt 1
	movq	img(%rip), %rax	# img, img.194
	movq	img(%rip), %rdx	# img, img.195
	movl	72448(%rdx), %edx	# img.195_299->toppoc, D.5536
	movl	%edx, 72452(%rax)	# D.5536, img.194_298->bottompoc
	jmp	.L89	#
.L88:
	.loc 1 456 0
	movq	img(%rip), %rax	# img, img.196
	movq	img(%rip), %rdx	# img, img.197
	movl	72448(%rdx), %edx	# img.197_302->toppoc, D.5536
	addl	$1, %edx	#, D.5536
	movl	%edx, 72452(%rax)	# D.5536, img.196_301->bottompoc
.L89:
	.loc 1 458 0
	movq	img(%rip), %rcx	# img, img.198
	movq	img(%rip), %rax	# img, img.199
	movl	72452(%rax), %edx	# img.199_306->bottompoc, D.5536
	movq	img(%rip), %rax	# img, img.200
	movl	72448(%rax), %eax	# img.200_308->toppoc, D.5536
	cmpl	%eax, %edx	# D.5536, D.5536
	cmovle	%edx, %eax	# D.5536,, D.5536
	movl	%eax, 72456(%rcx)	# D.5536, img.198_305->framepoc
	.loc 1 461 0
	movq	input(%rip), %rax	# input, input.201
	movl	1316(%rax), %eax	# input.201_311->BRefPictures, D.5536
	testl	%eax, %eax	# D.5536
	jne	.L90	#,
	.loc 1 463 0
	movq	img(%rip), %rax	# img, img.202
	movq	img(%rip), %rdx	# img, img.203
	movl	71908(%rdx), %edx	# img.203_314->b_frame_to_code, D.5536
	subl	$1, %edx	#, D.5536
	addl	%edx, %edx	# D.5536
	movl	%edx, 72436(%rax)	# D.5536, img.202_313->delta_pic_order_cnt
	jmp	.L91	#
.L90:
	.loc 1 467 0
	movq	img(%rip), %rax	# img, img.204
	movl	$-2, 72436(%rax)	#, img.204_318->delta_pic_order_cnt
.L91:
	.loc 1 470 0
	movq	img(%rip), %rax	# img, img.205
	movl	$0, 72440(%rax)	#, img.205_319->delta_pic_order_cnt
	.loc 1 472 0
	movl	$0, %eax	#,
	call	encode_one_frame	#
	.loc 1 473 0
	movq	input(%rip), %rax	# input, input.206
	movl	3228(%rax), %eax	# input.206_320->ReportFrameStats, D.5536
	testl	%eax, %eax	# D.5536
	je	.L92	#,
	.loc 1 474 0
	movl	$0, %eax	#,
	call	report_frame_statistic	#
.L92:
	.loc 1 431 0
	movq	img(%rip), %rax	# img, img.207
	movl	71908(%rax), %edx	# img.207_322->b_frame_to_code, D.5536
	addl	$1, %edx	#, D.5536
	movl	%edx, 71908(%rax)	# D.5536, img.207_322->b_frame_to_code
.L83:
	.loc 1 431 0 is_stmt 0 discriminator 1
	movq	img(%rip), %rax	# img, img.208
	movl	71908(%rax), %edx	# img.208_215->b_frame_to_code, D.5536
	movq	input(%rip), %rax	# input, input.209
	movl	1236(%rax), %eax	# input.209_217->successive_Bframe, D.5536
	cmpl	%eax, %edx	# D.5536, D.5536
	jle	.L93	#,
.L67:
	.loc 1 478 0 is_stmt 1
	movq	img(%rip), %rax	# img, img.210
	movl	$0, 71908(%rax)	#, img.210_325->b_frame_to_code
	.loc 1 479 0
	popq	%rbp	#
	.cfi_def_cfa 7, 8
	ret
	.cfi_endproc
.LFE7:
	.size	encode_enhancement_layer, .-encode_enhancement_layer
	.section	.rodata
	.align 8
.LC7:
	.string	"poc_based_ref_management: tmp_drpm"
	.align 8
.LC8:
	.string	"poc_based_ref_management: tmp_drpm2"
	.text
	.globl	poc_based_ref_management
	.type	poc_based_ref_management, @function
poc_based_ref_management:
.LFB8:
	.loc 1 483 0
	.cfi_startproc
	pushq	%rbp	#
	.cfi_def_cfa_offset 16
	.cfi_offset 6, -16
	movq	%rsp, %rbp	#,
	.cfi_def_cfa_register 6
	subq	$48, %rsp	#,
	movl	%edi, -36(%rbp)	# current_pic_num, current_pic_num
	.loc 1 484 0
	movl	$0, -24(%rbp)	#, pic_num
	.loc 1 486 0
	movl	$2147483647, -20(%rbp)	#, min_poc
	.loc 1 489 0
	movq	img(%rip), %rax	# img, img.211
	movq	72512(%rax), %rax	# img.211_8->dec_ref_pic_marking_buffer, D.5542
	testq	%rax, %rax	# D.5542
	je	.L95	#,
	.loc 1 490 0
	jmp	.L94	#
.L95:
	.loc 1 492 0
	movl	dpb+32(%rip), %edx	# dpb.ref_frames_in_buffer, D.5543
	movl	dpb+36(%rip), %eax	# dpb.ltref_frames_in_buffer, D.5543
	addl	%edx, %eax	# D.5543, D.5543
	testl	%eax, %eax	# D.5543
	jne	.L97	#,
	.loc 1 493 0
	jmp	.L94	#
.L97:
	.loc 1 495 0
	movl	$0, -28(%rbp)	#, i
	jmp	.L98	#
.L100:
	.loc 1 497 0
	movq	dpb(%rip), %rax	# dpb.fs, D.5544
	movl	-28(%rbp), %edx	# i, D.5545
	salq	$3, %rdx	#, D.5545
	addq	%rdx, %rax	# D.5545, D.5544
	movq	(%rax), %rax	# *_18, D.5546
	movl	4(%rax), %eax	# _19->is_reference, D.5547
	testl	%eax, %eax	# D.5547
	je	.L99	#,
	.loc 1 497 0 is_stmt 0 discriminator 1
	movq	dpb(%rip), %rax	# dpb.fs, D.5544
	movl	-28(%rbp), %edx	# i, D.5545
	salq	$3, %rdx	#, D.5545
	addq	%rdx, %rax	# D.5545, D.5544
	movq	(%rax), %rax	# *_24, D.5546
	movl	8(%rax), %eax	# _25->is_long_term, D.5547
	testl	%eax, %eax	# D.5547
	jne	.L99	#,
	movq	dpb(%rip), %rax	# dpb.fs, D.5544
	movl	-28(%rbp), %edx	# i, D.5545
	salq	$3, %rdx	#, D.5545
	addq	%rdx, %rax	# D.5545, D.5544
	movq	(%rax), %rax	# *_30, D.5546
	movl	36(%rax), %eax	# _31->poc, D.5547
	cmpl	-20(%rbp), %eax	# min_poc, D.5547
	jge	.L99	#,
	.loc 1 499 0 is_stmt 1
	movq	dpb(%rip), %rax	# dpb.fs, D.5544
	movl	-28(%rbp), %edx	# i, D.5545
	salq	$3, %rdx	#, D.5545
	addq	%rdx, %rax	# D.5545, D.5544
	movq	(%rax), %rax	# *_36, D.5546
	movq	40(%rax), %rax	# _37->frame, D.5548
	movl	4(%rax), %eax	# _38->poc, tmp101
	movl	%eax, -20(%rbp)	# tmp101, min_poc
	.loc 1 500 0
	movq	dpb(%rip), %rax	# dpb.fs, D.5544
	movl	-28(%rbp), %edx	# i, D.5545
	salq	$3, %rdx	#, D.5545
	addq	%rdx, %rax	# D.5545, D.5544
	movq	(%rax), %rax	# *_43, D.5546
	movq	40(%rax), %rax	# _44->frame, D.5548
	movl	6364(%rax), %eax	# _45->pic_num, D.5547
	movl	%eax, -24(%rbp)	# D.5547, pic_num
.L99:
	.loc 1 495 0
	addl	$1, -28(%rbp)	#, i
.L98:
	.loc 1 495 0 is_stmt 0 discriminator 1
	movl	dpb+28(%rip), %eax	# dpb.used_size, D.5543
	cmpl	-28(%rbp), %eax	# i, D.5543
	ja	.L100	#,
	.loc 1 504 0 is_stmt 1
	movl	$32, %esi	#,
	movl	$1, %edi	#,
	call	calloc	#
	movq	%rax, -16(%rbp)	# tmp102, tmp_drpm
	cmpq	$0, -16(%rbp)	#, tmp_drpm
	jne	.L101	#,
	.loc 1 504 0 is_stmt 0 discriminator 1
	movl	$.LC7, %edi	#,
	call	no_mem_exit	#
.L101:
	.loc 1 505 0 is_stmt 1
	movq	-16(%rbp), %rax	# tmp_drpm, tmp103
	movq	$0, 24(%rax)	#, tmp_drpm_49->Next
	.loc 1 507 0
	movq	-16(%rbp), %rax	# tmp_drpm, tmp104
	movl	$0, (%rax)	#, tmp_drpm_49->memory_management_control_operation
	.loc 1 509 0
	movl	$32, %esi	#,
	movl	$1, %edi	#,
	call	calloc	#
	movq	%rax, -8(%rbp)	# tmp105, tmp_drpm2
	cmpq	$0, -8(%rbp)	#, tmp_drpm2
	jne	.L102	#,
	.loc 1 509 0 is_stmt 0 discriminator 1
	movl	$.LC8, %edi	#,
	call	no_mem_exit	#
.L102:
	.loc 1 510 0 is_stmt 1
	movq	-8(%rbp), %rax	# tmp_drpm2, tmp106
	movq	-16(%rbp), %rdx	# tmp_drpm, tmp107
	movq	%rdx, 24(%rax)	# tmp107, tmp_drpm2_50->Next
	.loc 1 512 0
	movq	-8(%rbp), %rax	# tmp_drpm2, tmp108
	movl	$1, (%rax)	#, tmp_drpm2_50->memory_management_control_operation
	.loc 1 513 0
	movl	-36(%rbp), %eax	# current_pic_num, current_pic_num.212
	subl	-24(%rbp), %eax	# pic_num, D.5543
	subl	$1, %eax	#, D.5543
	movl	%eax, %edx	# D.5543, D.5547
	movq	-8(%rbp), %rax	# tmp_drpm2, tmp109
	movl	%edx, 4(%rax)	# D.5547, tmp_drpm2_50->difference_of_pic_nums_minus1
	.loc 1 514 0
	movq	img(%rip), %rax	# img, img.213
	movq	-8(%rbp), %rdx	# tmp_drpm2, tmp110
	movq	%rdx, 72512(%rax)	# tmp110, img.213_56->dec_ref_pic_marking_buffer
.L94:
	.loc 1 516 0
	leave
	.cfi_def_cfa 7, 8
	ret
	.cfi_endproc
.LFE8:
	.size	poc_based_ref_management, .-poc_based_ref_management
	.section	.rodata
	.align 8
.LC6:
	.long	0
	.long	1072693248
	.text
.Letext0:
	.file 2 "/usr/include/x86_64-linux-gnu/sys/types.h"
	.file 3 "defines.h"
	.file 4 "/usr/include/ctype.h"
	.file 5 "parsetcommon.h"
	.file 6 "global.h"
	.file 7 "mbuffer.h"
	.section	.note.GNU-stack,"",@progbits
