	.file	"macroblock.c"
# GNU C (Ubuntu/Linaro 4.8.1-10ubuntu9) version 4.8.1 (x86_64-linux-gnu)
#	compiled by GNU C version 4.8.1, GMP version 5.1.2, MPFR version 3.1.1-p2, MPC version 1.0.1
# GGC heuristics: --param ggc-min-expand=100 --param ggc-min-heapsize=131072
# options passed:  -imultiarch x86_64-linux-gnu -D SPEC_CPU -D NDEBUG
# -D SPEC_CPU_LP64 macroblock.c -mtune=generic -march=x86-64 -g
# -fverbose-asm -fno-strict-aliasing -fstack-protector -Wformat
# -Wformat-security
# options enabled:  -faggressive-loop-optimizations
# -fasynchronous-unwind-tables -fauto-inc-dec -fbranch-count-reg -fcommon
# -fdelete-null-pointer-checks -fdwarf2-cfi-asm -fearly-inlining
# -feliminate-unused-debug-types -ffunction-cse -fgcse-lm -fgnu-runtime
# -fident -finline-atomics -fira-hoist-pressure -fira-share-save-slots
# -fira-share-spill-slots -fivopts -fkeep-static-consts
# -fleading-underscore -fmath-errno -fmerge-debug-strings
# -fmove-loop-invariants -fpeephole -fprefetch-loop-arrays
# -freg-struct-return -fsched-critical-path-heuristic
# -fsched-dep-count-heuristic -fsched-group-heuristic -fsched-interblock
# -fsched-last-insn-heuristic -fsched-rank-heuristic -fsched-spec
# -fsched-spec-insn-heuristic -fsched-stalled-insns-dep -fshow-column
# -fsigned-zeros -fsplit-ivs-in-unroller -fstack-protector
# -fstrict-volatile-bitfields -fsync-libcalls -ftrapping-math
# -ftree-coalesce-vars -ftree-cselim -ftree-forwprop -ftree-loop-if-convert
# -ftree-loop-im -ftree-loop-ivcanon -ftree-loop-optimize
# -ftree-parallelize-loops= -ftree-phiprop -ftree-pta -ftree-reassoc
# -ftree-scev-cprop -ftree-slp-vectorize -ftree-vect-loop-version
# -funit-at-a-time -funwind-tables -fverbose-asm -fzero-initialized-in-bss
# -m128bit-long-double -m64 -m80387 -maccumulate-outgoing-args
# -malign-stringops -mfancy-math-387 -mfp-ret-in-387 -mfxsr -mglibc
# -mieee-fp -mlong-double-80 -mmmx -mno-sse4 -mpush-args -mred-zone -msse
# -msse2 -mtls-direct-seg-refs

	.text
.Ltext0:
	.globl	MODTAB
	.section	.rodata
	.align 16
	.type	MODTAB, @object
	.size	MODTAB, 24
MODTAB:
	.long	0
	.long	4
	.long	16
	.long	12
	.long	8
	.long	20
	.globl	NCBP
	.align 32
	.type	NCBP, @object
	.size	NCBP, 192
NCBP:
	.byte	1
	.byte	0
	.byte	10
	.byte	1
	.byte	11
	.byte	2
	.byte	6
	.byte	5
	.byte	12
	.byte	3
	.byte	7
	.byte	6
	.byte	14
	.byte	14
	.byte	2
	.byte	10
	.byte	13
	.byte	4
	.byte	15
	.byte	15
	.byte	8
	.byte	7
	.byte	3
	.byte	11
	.byte	9
	.byte	8
	.byte	4
	.byte	12
	.byte	5
	.byte	13
	.byte	0
	.byte	9
	.byte	0
	.byte	0
	.byte	0
	.byte	0
	.byte	0
	.byte	0
	.byte	0
	.byte	0
	.byte	0
	.byte	0
	.byte	0
	.byte	0
	.byte	0
	.byte	0
	.byte	0
	.byte	0
	.byte	0
	.byte	0
	.byte	0
	.byte	0
	.byte	0
	.byte	0
	.byte	0
	.byte	0
	.byte	0
	.byte	0
	.byte	0
	.byte	0
	.byte	0
	.byte	0
	.byte	0
	.byte	0
	.byte	0
	.byte	0
	.byte	0
	.byte	0
	.byte	0
	.byte	0
	.byte	0
	.byte	0
	.byte	0
	.byte	0
	.byte	0
	.byte	0
	.byte	0
	.byte	0
	.byte	0
	.byte	0
	.byte	0
	.byte	0
	.byte	0
	.byte	0
	.byte	0
	.byte	0
	.byte	0
	.byte	0
	.byte	0
	.byte	0
	.byte	0
	.byte	0
	.byte	0
	.byte	0
	.byte	0
	.byte	0
	.byte	3
	.byte	0
	.byte	29
	.byte	2
	.byte	30
	.byte	3
	.byte	17
	.byte	7
	.byte	31
	.byte	4
	.byte	18
	.byte	8
	.byte	37
	.byte	17
	.byte	8
	.byte	13
	.byte	32
	.byte	5
	.byte	38
	.byte	18
	.byte	19
	.byte	9
	.byte	9
	.byte	14
	.byte	20
	.byte	10
	.byte	10
	.byte	15
	.byte	11
	.byte	16
	.byte	2
	.byte	11
	.byte	16
	.byte	1
	.byte	33
	.byte	32
	.byte	34
	.byte	33
	.byte	21
	.byte	36
	.byte	35
	.byte	34
	.byte	22
	.byte	37
	.byte	39
	.byte	44
	.byte	4
	.byte	40
	.byte	36
	.byte	35
	.byte	40
	.byte	45
	.byte	23
	.byte	38
	.byte	5
	.byte	41
	.byte	24
	.byte	39
	.byte	6
	.byte	42
	.byte	7
	.byte	43
	.byte	1
	.byte	19
	.byte	41
	.byte	6
	.byte	42
	.byte	24
	.byte	43
	.byte	25
	.byte	25
	.byte	20
	.byte	44
	.byte	26
	.byte	26
	.byte	21
	.byte	46
	.byte	46
	.byte	12
	.byte	28
	.byte	45
	.byte	27
	.byte	47
	.byte	47
	.byte	27
	.byte	22
	.byte	13
	.byte	29
	.byte	28
	.byte	23
	.byte	14
	.byte	30
	.byte	15
	.byte	31
	.byte	0
	.byte	12
	.globl	subblk_offset_x
	.align 32
	.type	subblk_offset_x, @object
	.size	subblk_offset_x, 96
subblk_offset_x:
	.byte	0
	.byte	4
	.byte	0
	.byte	4
	.byte	0
	.byte	4
	.byte	0
	.byte	4
	.byte	0
	.byte	0
	.byte	0
	.byte	0
	.byte	0
	.byte	0
	.byte	0
	.byte	0
	.byte	0
	.byte	0
	.byte	0
	.byte	0
	.byte	0
	.byte	0
	.byte	0
	.byte	0
	.byte	0
	.byte	0
	.byte	0
	.byte	0
	.byte	0
	.byte	0
	.byte	0
	.byte	0
	.byte	0
	.byte	4
	.byte	0
	.byte	4
	.byte	0
	.byte	4
	.byte	0
	.byte	4
	.byte	0
	.byte	4
	.byte	0
	.byte	4
	.byte	0
	.byte	4
	.byte	0
	.byte	4
	.byte	0
	.byte	0
	.byte	0
	.byte	0
	.byte	0
	.byte	0
	.byte	0
	.byte	0
	.byte	0
	.byte	0
	.byte	0
	.byte	0
	.byte	0
	.byte	0
	.byte	0
	.byte	0
	.byte	0
	.byte	4
	.byte	0
	.byte	4
	.byte	8
	.byte	12
	.byte	8
	.byte	12
	.byte	0
	.byte	4
	.byte	0
	.byte	4
	.byte	8
	.byte	12
	.byte	8
	.byte	12
	.byte	0
	.byte	4
	.byte	0
	.byte	4
	.byte	8
	.byte	12
	.byte	8
	.byte	12
	.byte	0
	.byte	4
	.byte	0
	.byte	4
	.byte	8
	.byte	12
	.byte	8
	.byte	12
	.globl	subblk_offset_y
	.align 32
	.type	subblk_offset_y, @object
	.size	subblk_offset_y, 96
subblk_offset_y:
	.byte	0
	.byte	0
	.byte	4
	.byte	4
	.byte	0
	.byte	0
	.byte	4
	.byte	4
	.byte	0
	.byte	0
	.byte	0
	.byte	0
	.byte	0
	.byte	0
	.byte	0
	.byte	0
	.byte	0
	.byte	0
	.byte	0
	.byte	0
	.byte	0
	.byte	0
	.byte	0
	.byte	0
	.byte	0
	.byte	0
	.byte	0
	.byte	0
	.byte	0
	.byte	0
	.byte	0
	.byte	0
	.byte	0
	.byte	0
	.byte	4
	.byte	4
	.byte	8
	.byte	8
	.byte	12
	.byte	12
	.byte	0
	.byte	0
	.byte	4
	.byte	4
	.byte	8
	.byte	8
	.byte	12
	.byte	12
	.byte	0
	.byte	0
	.byte	0
	.byte	0
	.byte	0
	.byte	0
	.byte	0
	.byte	0
	.byte	0
	.byte	0
	.byte	0
	.byte	0
	.byte	0
	.byte	0
	.byte	0
	.byte	0
	.byte	0
	.byte	0
	.byte	4
	.byte	4
	.byte	0
	.byte	0
	.byte	4
	.byte	4
	.byte	8
	.byte	8
	.byte	12
	.byte	12
	.byte	8
	.byte	8
	.byte	12
	.byte	12
	.byte	0
	.byte	0
	.byte	4
	.byte	4
	.byte	0
	.byte	0
	.byte	4
	.byte	4
	.byte	8
	.byte	8
	.byte	12
	.byte	12
	.byte	8
	.byte	8
	.byte	12
	.byte	12
	.comm	predict_error,4,4
	.comm	dq,4,4
	.text
	.globl	set_MB_parameters
	.type	set_MB_parameters, @function
set_MB_parameters:
.LFB2:
	.file 1 "macroblock.c"
	.loc 1 57 0
	.cfi_startproc
	pushq	%rbp	#
	.cfi_def_cfa_offset 16
	.cfi_offset 6, -16
	movq	%rsp, %rbp	#,
	.cfi_def_cfa_register 6
	pushq	%rbx	#
	subq	$24, %rsp	#,
	.cfi_offset 3, -24
	movl	%edi, -20(%rbp)	# mb_addr, mb_addr
	.loc 1 58 0
	movq	img(%rip), %rax	# img, img.0
	movl	-20(%rbp), %edx	# mb_addr, tmp142
	movl	%edx, 12(%rax)	# tmp142, img.0_3->current_mb_nr
	.loc 1 60 0
	movq	img(%rip), %rax	# img, img.1
	leaq	140(%rax), %rdx	#, D.12145
	movq	img(%rip), %rax	# img, img.2
	leaq	136(%rax), %rcx	#, D.12145
	movl	-20(%rbp), %eax	# mb_addr, tmp143
	movq	%rcx, %rsi	# D.12145,
	movl	%eax, %edi	# tmp143,
	call	get_mb_block_pos	#
	.loc 1 62 0
	movq	img(%rip), %rax	# img, img.3
	movq	img(%rip), %rdx	# img, img.4
	movl	136(%rdx), %edx	# img.4_10->mb_x, D.12146
	sall	$2, %edx	#, D.12146
	movl	%edx, 144(%rax)	# D.12146, img.3_9->block_x
	.loc 1 63 0
	movq	img(%rip), %rax	# img, img.5
	movq	img(%rip), %rdx	# img, img.6
	movl	140(%rdx), %edx	# img.6_14->mb_y, D.12146
	sall	$2, %edx	#, D.12146
	movl	%edx, 148(%rax)	# D.12146, img.5_13->block_y
	.loc 1 65 0
	movq	img(%rip), %rax	# img, img.7
	movq	img(%rip), %rdx	# img, img.8
	movl	144(%rdx), %edx	# img.8_18->block_x, D.12146
	sall	$2, %edx	#, D.12146
	movl	%edx, 152(%rax)	# D.12146, img.7_17->pix_x
	.loc 1 66 0
	movq	img(%rip), %rax	# img, img.9
	movq	img(%rip), %rdx	# img, img.10
	movl	148(%rdx), %edx	# img.10_22->block_y, D.12146
	sall	$2, %edx	#, D.12146
	movl	%edx, 156(%rax)	# D.12146, img.9_21->pix_y
	.loc 1 68 0
	movq	img(%rip), %rax	# img, img.11
	movq	img(%rip), %rdx	# img, img.12
	movl	152(%rdx), %edx	# img.12_26->pix_x, D.12146
	movl	%edx, 168(%rax)	# D.12146, img.11_25->opix_x
	.loc 1 70 0
	movq	img(%rip), %rax	# img, img.13
	movl	72400(%rax), %eax	# img.13_28->MbaffFrameFlag, D.12146
	testl	%eax, %eax	# D.12146
	je	.L2	#,
	.loc 1 72 0
	movq	img(%rip), %rax	# img, img.14
	movq	14168(%rax), %rdx	# img.14_30->mb_data, D.12147
	movl	-20(%rbp), %eax	# mb_addr, tmp144
	cltq
	imulq	$632, %rax, %rax	#, D.12148, D.12148
	addq	%rdx, %rax	# D.12147, D.12147
	movl	532(%rax), %eax	# _34->mb_field, D.12146
	testl	%eax, %eax	# D.12146
	je	.L3	#,
	.loc 1 75 0
	movl	-20(%rbp), %eax	# mb_addr, mb_addr.16
	andl	$1, %eax	#, D.12149
	testl	%eax, %eax	# D.12149
	je	.L4	#,
	.loc 1 75 0 is_stmt 0 discriminator 1
	movq	imgY_org_bot(%rip), %rax	# imgY_org_bot, iftmp.15
	jmp	.L5	#
.L4:
	.loc 1 75 0 discriminator 2
	movq	imgY_org_top(%rip), %rax	# imgY_org_top, iftmp.15
.L5:
	.loc 1 75 0 discriminator 3
	movq	%rax, imgY_org(%rip)	# iftmp.15, imgY_org
	.loc 1 76 0 is_stmt 1 discriminator 3
	movl	-20(%rbp), %eax	# mb_addr, mb_addr.18
	andl	$1, %eax	#, D.12149
	testl	%eax, %eax	# D.12149
	je	.L6	#,
	.loc 1 76 0 is_stmt 0 discriminator 1
	movq	imgUV_org_bot(%rip), %rax	# imgUV_org_bot, iftmp.17
	jmp	.L7	#
.L6:
	.loc 1 76 0 discriminator 2
	movq	imgUV_org_top(%rip), %rax	# imgUV_org_top, iftmp.17
.L7:
	.loc 1 76 0 discriminator 1
	movq	%rax, imgUV_org(%rip)	# iftmp.17, imgUV_org
	.loc 1 77 0 is_stmt 1 discriminator 1
	movq	img(%rip), %rax	# img, img.19
	movq	img(%rip), %rdx	# img, img.20
	movl	140(%rdx), %edx	# img.20_45->mb_y, D.12146
	sarl	%edx	# D.12146
	sall	$4, %edx	#, D.12146
	movl	%edx, 172(%rax)	# D.12146, img.19_44->opix_y
	jmp	.L9	#
.L3:
	.loc 1 81 0
	movq	imgY_org_frm(%rip), %rax	# imgY_org_frm, imgY_org_frm.21
	movq	%rax, imgY_org(%rip)	# imgY_org_frm.21, imgY_org
	.loc 1 82 0
	movq	imgUV_org_frm(%rip), %rax	# imgUV_org_frm, imgUV_org_frm.22
	movq	%rax, imgUV_org(%rip)	# imgUV_org_frm.22, imgUV_org
	.loc 1 83 0
	movq	img(%rip), %rax	# img, img.23
	movq	img(%rip), %rdx	# img, img.24
	movl	148(%rdx), %edx	# img.24_52->block_y, D.12146
	sall	$2, %edx	#, D.12146
	movl	%edx, 172(%rax)	# D.12146, img.23_51->opix_y
	jmp	.L9	#
.L2:
	.loc 1 88 0
	movq	img(%rip), %rax	# img, img.25
	movq	img(%rip), %rdx	# img, img.26
	movl	148(%rdx), %edx	# img.26_56->block_y, D.12146
	sall	$2, %edx	#, D.12146
	movl	%edx, 172(%rax)	# D.12146, img.25_55->opix_y
.L9:
	.loc 1 91 0
	movq	img(%rip), %rax	# img, img.27
	movl	72700(%rax), %eax	# img.27_59->yuv_format, D.12146
	testl	%eax, %eax	# D.12146
	je	.L1	#,
	.loc 1 93 0
	movq	img(%rip), %rcx	# img, img.28
	movq	img(%rip), %rax	# img, img.29
	movl	152(%rax), %esi	# img.29_62->pix_x, D.12146
	movq	img(%rip), %rax	# img, img.30
	movl	72708(%rax), %ebx	# img.30_64->mb_cr_size_x, D.12146
	movl	$16, %eax	#, tmp147
	cltd
	idivl	%ebx	# D.12146
	movl	%eax, %edi	# tmp145, D.12146
	movl	%esi, %eax	# D.12146, tmp148
	cltd
	idivl	%edi	# D.12146
	movl	%eax, 160(%rcx)	# D.12146, img.28_61->pix_c_x
	.loc 1 94 0
	movq	img(%rip), %rcx	# img, img.31
	movq	img(%rip), %rax	# img, img.32
	movl	156(%rax), %esi	# img.32_69->pix_y, D.12146
	movq	img(%rip), %rax	# img, img.33
	movl	72712(%rax), %ebx	# img.33_71->mb_cr_size_y, D.12146
	movl	$16, %eax	#, tmp152
	cltd
	idivl	%ebx	# D.12146
	movl	%eax, %edi	# tmp150, D.12146
	movl	%esi, %eax	# D.12146, tmp153
	cltd
	idivl	%edi	# D.12146
	movl	%eax, 164(%rcx)	# D.12146, img.31_68->pix_c_y
	.loc 1 96 0
	movq	img(%rip), %rcx	# img, img.34
	movq	img(%rip), %rax	# img, img.35
	movl	168(%rax), %esi	# img.35_76->opix_x, D.12146
	movq	img(%rip), %rax	# img, img.36
	movl	72708(%rax), %ebx	# img.36_78->mb_cr_size_x, D.12146
	movl	$16, %eax	#, tmp157
	cltd
	idivl	%ebx	# D.12146
	movl	%eax, %edi	# tmp155, D.12146
	movl	%esi, %eax	# D.12146, tmp158
	cltd
	idivl	%edi	# D.12146
	movl	%eax, 176(%rcx)	# D.12146, img.34_75->opix_c_x
	.loc 1 97 0
	movq	img(%rip), %rcx	# img, img.37
	movq	img(%rip), %rax	# img, img.38
	movl	172(%rax), %esi	# img.38_83->opix_y, D.12146
	movq	img(%rip), %rax	# img, img.39
	movl	72712(%rax), %ebx	# img.39_85->mb_cr_size_y, D.12146
	movl	$16, %eax	#, tmp162
	cltd
	idivl	%ebx	# D.12146
	movl	%eax, %edi	# tmp160, D.12146
	movl	%esi, %eax	# D.12146, tmp163
	cltd
	idivl	%edi	# D.12146
	movl	%eax, 180(%rcx)	# D.12146, img.37_82->opix_c_y
.L1:
	.loc 1 102 0
	addq	$24, %rsp	#,
	popq	%rbx	#
	popq	%rbp	#
	.cfi_def_cfa 7, 8
	ret
	.cfi_endproc
.LFE2:
	.size	set_MB_parameters, .-set_MB_parameters
	.globl	clip1a
	.type	clip1a, @function
clip1a:
.LFB3:
	.loc 1 106 0
	.cfi_startproc
	pushq	%rbp	#
	.cfi_def_cfa_offset 16
	.cfi_offset 6, -16
	movq	%rsp, %rbp	#,
	.cfi_def_cfa_register 6
	movl	%edi, -4(%rbp)	# a, a
	.loc 1 107 0
	movq	img(%rip), %rax	# img, img.41
	movl	72684(%rax), %eax	# img.41_2->max_imgpel_value, D.12150
	cmpl	-4(%rbp), %eax	# a, D.12150
	jge	.L12	#,
	.loc 1 107 0 is_stmt 0 discriminator 1
	movq	img(%rip), %rax	# img, img.42
	movl	72684(%rax), %eax	# img.42_5->max_imgpel_value, iftmp.40
	jmp	.L13	#
.L12:
	.loc 1 107 0 discriminator 2
	movl	$0, %eax	#, tmp65
	cmpl	$0, -4(%rbp)	#, a
	cmovns	-4(%rbp), %eax	# a,, iftmp.40
.L13:
	.loc 1 108 0 is_stmt 1 discriminator 3
	popq	%rbp	#
	.cfi_def_cfa 7, 8
	ret
	.cfi_endproc
.LFE3:
	.size	clip1a, .-clip1a
	.globl	clip1a_chr
	.type	clip1a_chr, @function
clip1a_chr:
.LFB4:
	.loc 1 111 0
	.cfi_startproc
	pushq	%rbp	#
	.cfi_def_cfa_offset 16
	.cfi_offset 6, -16
	movq	%rsp, %rbp	#,
	.cfi_def_cfa_register 6
	movl	%edi, -4(%rbp)	# a, a
	.loc 1 112 0
	movq	img(%rip), %rax	# img, img.44
	movl	72688(%rax), %eax	# img.44_2->max_imgpel_value_uv, D.12151
	cmpl	-4(%rbp), %eax	# a, D.12151
	jge	.L16	#,
	.loc 1 112 0 is_stmt 0 discriminator 1
	movq	img(%rip), %rax	# img, img.45
	movl	72688(%rax), %eax	# img.45_5->max_imgpel_value_uv, iftmp.43
	jmp	.L17	#
.L16:
	.loc 1 112 0 discriminator 2
	movl	$0, %eax	#, tmp65
	cmpl	$0, -4(%rbp)	#, a
	cmovns	-4(%rbp), %eax	# a,, iftmp.43
.L17:
	.loc 1 113 0 is_stmt 1 discriminator 3
	popq	%rbp	#
	.cfi_def_cfa 7, 8
	ret
	.cfi_endproc
.LFE4:
	.size	clip1a_chr, .-clip1a_chr
	.globl	proceed2nextMacroblock
	.type	proceed2nextMacroblock, @function
proceed2nextMacroblock:
.LFB5:
	.loc 1 123 0
	.cfi_startproc
	pushq	%rbp	#
	.cfi_def_cfa_offset 16
	.cfi_offset 6, -16
	movq	%rsp, %rbp	#,
	.cfi_def_cfa_register 6
	.loc 1 127 0
	movq	img(%rip), %rax	# img, img.46
	movq	14168(%rax), %rdx	# img.46_2->mb_data, D.12152
	movq	img(%rip), %rax	# img, img.47
	movl	12(%rax), %eax	# img.47_4->current_mb_nr, D.12153
	cltq
	imulq	$632, %rax, %rax	#, D.12154, D.12154
	addq	%rdx, %rax	# D.12152, tmp216
	movq	%rax, -16(%rbp)	# tmp216, currMB
	.loc 1 128 0
	movq	-16(%rbp), %rax	# currMB, tmp220
	addq	$20, %rax	#, tmp219
	movq	%rax, -8(%rbp)	# tmp219, bitCount
	.loc 1 145 0
	movq	stats(%rip), %rax	# stats, stats.48
	movq	img(%rip), %rdx	# img, img.49
	movl	24(%rdx), %esi	# img.49_11->type, D.12153
	movq	stats(%rip), %rdx	# stats, stats.50
	movq	img(%rip), %rcx	# img, img.51
	movl	24(%rcx), %ecx	# img.51_14->type, D.12153
	movslq	%ecx, %rcx	# D.12153, tmp221
	addq	$336, %rcx	#, tmp222
	movl	4(%rdx,%rcx,4), %ecx	# stats.50_13->bit_use_mb_type, D.12153
	movq	-8(%rbp), %rdx	# bitCount, tmp223
	addq	$8, %rdx	#, D.12155
	movl	(%rdx), %edx	# *_17, D.12153
	addl	%edx, %ecx	# D.12153, D.12153
	movslq	%esi, %rdx	# D.12153, tmp224
	addq	$336, %rdx	#, tmp225
	movl	%ecx, 4(%rax,%rdx,4)	# D.12153, stats.48_10->bit_use_mb_type
	.loc 1 146 0
	movq	stats(%rip), %rax	# stats, stats.52
	movq	img(%rip), %rdx	# img, img.53
	movl	24(%rdx), %esi	# img.53_21->type, D.12153
	movq	stats(%rip), %rdx	# stats, stats.54
	movq	img(%rip), %rcx	# img, img.55
	movl	24(%rcx), %ecx	# img.55_24->type, D.12153
	movslq	%ecx, %rcx	# D.12153, tmp226
	addq	$352, %rcx	#, tmp227
	movl	(%rdx,%rcx,4), %ecx	# stats.54_23->bit_use_coeffY, D.12153
	movq	-8(%rbp), %rdx	# bitCount, tmp228
	addq	$20, %rdx	#, D.12155
	movl	(%rdx), %edx	# *_27, D.12153
	addl	%edx, %ecx	# D.12153, D.12153
	movslq	%esi, %rdx	# D.12153, tmp229
	addq	$352, %rdx	#, tmp230
	movl	%ecx, (%rax,%rdx,4)	# D.12153, stats.52_20->bit_use_coeffY
	.loc 1 147 0
	movq	stats(%rip), %rax	# stats, stats.56
	movq	img(%rip), %rdx	# img, img.57
	movl	24(%rdx), %esi	# img.57_31->type, D.12153
	movq	stats(%rip), %rdx	# stats, stats.58
	movq	img(%rip), %rcx	# img, img.59
	movl	24(%rcx), %ecx	# img.59_34->type, D.12153
	movslq	%ecx, %rcx	# D.12153, tmp231
	addq	$344, %rcx	#, tmp232
	movl	12(%rdx,%rcx,4), %ecx	# stats.58_33->tmp_bit_use_cbp, D.12153
	movq	-8(%rbp), %rdx	# bitCount, tmp233
	addq	$16, %rdx	#, D.12155
	movl	(%rdx), %edx	# *_37, D.12153
	addl	%edx, %ecx	# D.12153, D.12153
	movslq	%esi, %rdx	# D.12153, tmp234
	addq	$344, %rdx	#, tmp235
	movl	%ecx, 12(%rax,%rdx,4)	# D.12153, stats.56_30->tmp_bit_use_cbp
	.loc 1 148 0
	movq	stats(%rip), %rax	# stats, stats.60
	movq	img(%rip), %rdx	# img, img.61
	movl	24(%rdx), %esi	# img.61_41->type, D.12153
	movq	stats(%rip), %rdx	# stats, stats.62
	movq	img(%rip), %rcx	# img, img.63
	movl	24(%rcx), %ecx	# img.63_44->type, D.12153
	movslq	%ecx, %rcx	# D.12153, tmp236
	addq	$356, %rcx	#, tmp237
	movl	4(%rdx,%rcx,4), %ecx	# stats.62_43->bit_use_coeffC, D.12153
	movq	-8(%rbp), %rdx	# bitCount, tmp238
	addq	$24, %rdx	#, D.12155
	movl	(%rdx), %edx	# *_47, D.12153
	addl	%edx, %ecx	# D.12153, D.12153
	movslq	%esi, %rdx	# D.12153, tmp239
	addq	$356, %rdx	#, tmp240
	movl	%ecx, 4(%rax,%rdx,4)	# D.12153, stats.60_40->bit_use_coeffC
	.loc 1 149 0
	movq	stats(%rip), %rax	# stats, stats.64
	movq	img(%rip), %rdx	# img, img.65
	movl	24(%rdx), %esi	# img.65_51->type, D.12153
	movq	stats(%rip), %rdx	# stats, stats.66
	movq	img(%rip), %rcx	# img, img.67
	movl	24(%rcx), %ecx	# img.67_54->type, D.12153
	movslq	%ecx, %rcx	# D.12153, tmp241
	addq	$360, %rcx	#, tmp242
	movl	8(%rdx,%rcx,4), %ecx	# stats.66_53->bit_use_delta_quant, D.12153
	movq	-8(%rbp), %rdx	# bitCount, tmp243
	addq	$28, %rdx	#, D.12155
	movl	(%rdx), %edx	# *_57, D.12153
	addl	%edx, %ecx	# D.12153, D.12153
	movslq	%esi, %rdx	# D.12153, tmp244
	addq	$360, %rdx	#, tmp245
	movl	%ecx, 8(%rax,%rdx,4)	# D.12153, stats.64_50->bit_use_delta_quant
	.loc 1 151 0
	movq	-16(%rbp), %rax	# currMB, tmp246
	movl	72(%rax), %eax	# currMB_8->mb_type, D.12153
	cmpl	$9, %eax	#, D.12153
	je	.L20	#,
	.loc 1 151 0 is_stmt 0 discriminator 1
	movq	-16(%rbp), %rax	# currMB, tmp247
	movl	72(%rax), %eax	# currMB_8->mb_type, D.12153
	cmpl	$10, %eax	#, D.12153
	je	.L20	#,
	movq	-16(%rbp), %rax	# currMB, tmp248
	movl	72(%rax), %eax	# currMB_8->mb_type, D.12153
	cmpl	$13, %eax	#, D.12153
	jne	.L21	#,
.L20:
	.loc 1 153 0 is_stmt 1
	movq	stats(%rip), %rax	# stats, stats.68
	movq	-16(%rbp), %rdx	# currMB, tmp249
	movl	524(%rdx), %edx	# currMB_8->c_ipred_mode, D.12153
	movslq	%edx, %rcx	# D.12153, tmp250
	addq	$168, %rcx	#, tmp251
	movl	(%rax,%rcx,4), %ecx	# stats.68_63->intra_chroma_mode, D.12153
	addl	$1, %ecx	#, D.12153
	movslq	%edx, %rdx	# D.12153, tmp252
	addq	$168, %rdx	#, tmp253
	movl	%ecx, (%rax,%rdx,4)	# D.12153, stats.68_63->intra_chroma_mode
	.loc 1 155 0
	movq	-16(%rbp), %rax	# currMB, tmp254
	movl	460(%rax), %eax	# currMB_8->cbp, D.12153
	andl	$15, %eax	#, D.12153
	testl	%eax, %eax	# D.12153
	je	.L21	#,
	.loc 1 157 0
	movq	-16(%rbp), %rax	# currMB, tmp255
	movl	572(%rax), %eax	# currMB_8->luma_transform_size_8x8_flag, D.12153
	testl	%eax, %eax	# D.12153
	je	.L22	#,
	.loc 1 158 0
	movq	stats(%rip), %rdx	# stats, stats.69
	movq	img(%rip), %rax	# img, img.70
	movl	24(%rax), %ecx	# img.70_71->type, D.12153
	movq	-16(%rbp), %rax	# currMB, tmp256
	movl	72(%rax), %esi	# currMB_8->mb_type, D.12153
	movslq	%esi, %r8	# D.12153, tmp257
	movslq	%ecx, %rdi	# D.12153, tmp258
	movq	%rdi, %rax	# tmp258, tmp259
	salq	$4, %rax	#, tmp260
	subq	%rdi, %rax	# tmp258, tmp259
	addq	%r8, %rax	# tmp257, tmp261
	addq	$16, %rax	#, tmp262
	movl	8(%rdx,%rax,4), %eax	# stats.69_70->mode_use_transform_8x8, D.12153
	leal	1(%rax), %edi	#, D.12153
	movslq	%esi, %rsi	# D.12153, tmp263
	movslq	%ecx, %rcx	# D.12153, tmp264
	movq	%rcx, %rax	# tmp264, tmp265
	salq	$4, %rax	#, tmp266
	subq	%rcx, %rax	# tmp264, tmp265
	addq	%rsi, %rax	# tmp263, tmp267
	addq	$16, %rax	#, tmp268
	movl	%edi, 8(%rdx,%rax,4)	# D.12153, stats.69_70->mode_use_transform_8x8
	jmp	.L21	#
.L22:
	.loc 1 160 0
	movq	stats(%rip), %rdx	# stats, stats.71
	movq	img(%rip), %rax	# img, img.72
	movl	24(%rax), %ecx	# img.72_77->type, D.12153
	movq	-16(%rbp), %rax	# currMB, tmp269
	movl	72(%rax), %esi	# currMB_8->mb_type, D.12153
	movslq	%esi, %r8	# D.12153, tmp270
	movslq	%ecx, %rdi	# D.12153, tmp271
	movq	%rdi, %rax	# tmp271, tmp272
	salq	$4, %rax	#, tmp273
	subq	%rdi, %rax	# tmp271, tmp272
	addq	%r8, %rax	# tmp270, tmp274
	addq	$92, %rax	#, tmp275
	movl	4(%rdx,%rax,4), %eax	# stats.71_76->mode_use_transform_4x4, D.12153
	leal	1(%rax), %edi	#, D.12153
	movslq	%esi, %rsi	# D.12153, tmp276
	movslq	%ecx, %rcx	# D.12153, tmp277
	movq	%rcx, %rax	# tmp277, tmp278
	salq	$4, %rax	#, tmp279
	subq	%rcx, %rax	# tmp277, tmp278
	addq	%rsi, %rax	# tmp276, tmp280
	addq	$92, %rax	#, tmp281
	movl	%edi, 4(%rdx,%rax,4)	# D.12153, stats.71_76->mode_use_transform_4x4
.L21:
	.loc 1 164 0
	movq	stats(%rip), %rdx	# stats, stats.73
	movq	img(%rip), %rax	# img, img.74
	movl	24(%rax), %ecx	# img.74_83->type, D.12153
	movq	-16(%rbp), %rax	# currMB, tmp282
	movl	72(%rax), %esi	# currMB_8->mb_type, D.12153
	movslq	%esi, %r8	# D.12153, tmp283
	movslq	%ecx, %rdi	# D.12153, tmp284
	movq	%rdi, %rax	# tmp284, tmp285
	salq	$4, %rax	#, tmp286
	subq	%rdi, %rax	# tmp284, tmp285
	addq	%r8, %rax	# tmp283, tmp287
	addq	$180, %rax	#, tmp288
	movl	8(%rdx,%rax,4), %eax	# stats.73_82->mode_use, D.12153
	leal	1(%rax), %edi	#, D.12153
	movslq	%esi, %rsi	# D.12153, tmp289
	movslq	%ecx, %rcx	# D.12153, tmp290
	movq	%rcx, %rax	# tmp290, tmp291
	salq	$4, %rax	#, tmp292
	subq	%rcx, %rax	# tmp290, tmp291
	addq	%rsi, %rax	# tmp289, tmp293
	addq	$180, %rax	#, tmp294
	movl	%edi, 8(%rdx,%rax,4)	# D.12153, stats.73_82->mode_use
	.loc 1 165 0
	movq	stats(%rip), %rcx	# stats, stats.75
	movq	img(%rip), %rax	# img, img.76
	movl	24(%rax), %r8d	# img.76_89->type, D.12153
	movq	-16(%rbp), %rax	# currMB, tmp295
	movl	72(%rax), %edi	# currMB_8->mb_type, D.12153
	movq	stats(%rip), %rsi	# stats, stats.77
	movq	img(%rip), %rax	# img, img.78
	movl	24(%rax), %edx	# img.78_93->type, D.12153
	movq	-16(%rbp), %rax	# currMB, tmp296
	movl	72(%rax), %eax	# currMB_8->mb_type, D.12153
	movslq	%eax, %r9	# D.12153, tmp297
	movslq	%edx, %rdx	# D.12153, tmp298
	movq	%rdx, %rax	# tmp298, tmp299
	salq	$4, %rax	#, tmp300
	subq	%rdx, %rax	# tmp298, tmp299
	addq	%r9, %rax	# tmp297, tmp301
	addq	$256, %rax	#, tmp302
	movl	4(%rsi,%rax,4), %edx	# stats.77_92->bit_use_mode, D.12153
	movq	-8(%rbp), %rax	# bitCount, tmp303
	addq	$12, %rax	#, D.12155
	movl	(%rax), %eax	# *_97, D.12153
	leal	(%rdx,%rax), %esi	#, D.12153
	movslq	%edi, %rdi	# D.12153, tmp304
	movslq	%r8d, %rdx	# D.12153, tmp305
	movq	%rdx, %rax	# tmp305, tmp306
	salq	$4, %rax	#, tmp307
	subq	%rdx, %rax	# tmp305, tmp306
	addq	%rdi, %rax	# tmp304, tmp308
	addq	$256, %rax	#, tmp309
	movl	%esi, 4(%rcx,%rax,4)	# D.12153, stats.75_88->bit_use_mode
	.loc 1 167 0
	movq	img(%rip), %rax	# img, img.79
	movl	24(%rax), %eax	# img.79_100->type, D.12153
	cmpl	$2, %eax	#, D.12153
	je	.L23	#,
	.loc 1 169 0
	movq	-16(%rbp), %rax	# currMB, tmp310
	movl	72(%rax), %eax	# currMB_8->mb_type, D.12153
	cmpl	$8, %eax	#, D.12153
	jne	.L24	#,
	.loc 1 171 0
	movl	$0, -20(%rbp)	#, i
	jmp	.L25	#
.L32:
	.loc 1 173 0
	movq	-16(%rbp), %rax	# currMB, tmp311
	movl	-20(%rbp), %edx	# i, tmp313
	movslq	%edx, %rdx	# tmp313, tmp312
	addq	$116, %rdx	#, tmp314
	movl	8(%rax,%rdx,4), %eax	# currMB_8->b8mode, D.12153
	testl	%eax, %eax	# D.12153
	jle	.L26	#,
	.loc 1 174 0
	movq	stats(%rip), %rdx	# stats, stats.80
	movq	img(%rip), %rax	# img, img.81
	movl	24(%rax), %ecx	# img.81_106->type, D.12153
	movq	-16(%rbp), %rax	# currMB, tmp315
	movl	-20(%rbp), %esi	# i, tmp317
	movslq	%esi, %rsi	# tmp317, tmp316
	addq	$116, %rsi	#, tmp318
	movl	8(%rax,%rsi,4), %esi	# currMB_8->b8mode, D.12153
	movslq	%esi, %r8	# D.12153, tmp319
	movslq	%ecx, %rdi	# D.12153, tmp320
	movq	%rdi, %rax	# tmp320, tmp321
	salq	$4, %rax	#, tmp322
	subq	%rdi, %rax	# tmp320, tmp321
	addq	%r8, %rax	# tmp319, tmp323
	addq	$180, %rax	#, tmp324
	movl	8(%rdx,%rax,4), %eax	# stats.80_105->mode_use, D.12153
	leal	1(%rax), %edi	#, D.12153
	movslq	%esi, %rsi	# D.12153, tmp325
	movslq	%ecx, %rcx	# D.12153, tmp326
	movq	%rcx, %rax	# tmp326, tmp327
	salq	$4, %rax	#, tmp328
	subq	%rcx, %rax	# tmp326, tmp327
	addq	%rsi, %rax	# tmp325, tmp329
	addq	$180, %rax	#, tmp330
	movl	%edi, 8(%rdx,%rax,4)	# D.12153, stats.80_105->mode_use
	jmp	.L27	#
.L26:
	.loc 1 176 0
	movq	stats(%rip), %rax	# stats, stats.82
	movq	img(%rip), %rdx	# img, img.83
	movl	24(%rdx), %edx	# img.83_112->type, D.12153
	movq	-16(%rbp), %rcx	# currMB, tmp331
	movl	572(%rcx), %ecx	# currMB_8->luma_transform_size_8x8_flag, D.12153
	movslq	%ecx, %rsi	# D.12153, tmp332
	movslq	%edx, %rdi	# D.12153, tmp333
	addq	%rdi, %rdi	# tmp334
	addq	%rdi, %rsi	# tmp334, tmp335
	addq	$8, %rsi	#, tmp336
	movl	(%rax,%rsi,4), %esi	# stats.82_111->b8_mode_0_use, D.12153
	addl	$1, %esi	#, D.12153
	movslq	%ecx, %rcx	# D.12153, tmp337
	movslq	%edx, %rdx	# D.12153, tmp338
	addq	%rdx, %rdx	# tmp339
	addq	%rcx, %rdx	# tmp337, tmp340
	addq	$8, %rdx	#, tmp341
	movl	%esi, (%rax,%rdx,4)	# D.12153, stats.82_111->b8_mode_0_use
.L27:
	.loc 1 178 0
	movq	-16(%rbp), %rax	# currMB, tmp342
	movl	-20(%rbp), %edx	# i, tmp344
	movslq	%edx, %rdx	# tmp344, tmp343
	addq	$116, %rdx	#, tmp345
	movl	8(%rax,%rdx,4), %eax	# currMB_8->b8mode, D.12153
	cmpl	$4, %eax	#, D.12153
	jne	.L28	#,
	.loc 1 180 0
	movq	-16(%rbp), %rax	# currMB, tmp346
	movl	572(%rax), %eax	# currMB_8->luma_transform_size_8x8_flag, D.12153
	testl	%eax, %eax	# D.12153
	je	.L29	#,
	.loc 1 180 0 is_stmt 0 discriminator 1
	movq	-16(%rbp), %rax	# currMB, tmp347
	movl	460(%rax), %eax	# currMB_8->cbp, D.12153
	andl	$15, %eax	#, D.12153
	testl	%eax, %eax	# D.12153
	jne	.L30	#,
.L29:
	.loc 1 180 0 discriminator 2
	movq	input(%rip), %rax	# input, input.84
	movl	3220(%rax), %eax	# input.84_121->AllowTransform8x8, D.12153
	cmpl	$2, %eax	#, D.12153
	jne	.L31	#,
.L30:
	.loc 1 181 0 is_stmt 1
	movq	stats(%rip), %rcx	# stats, stats.85
	movq	img(%rip), %rax	# img, img.86
	movl	24(%rax), %esi	# img.86_129->type, D.12153
	movslq	%esi, %rax	# D.12153, tmp348
	salq	$2, %rax	#, tmp350
	movq	%rax, %rdx	# tmp349, tmp351
	salq	$4, %rdx	#, tmp351
	subq	%rax, %rdx	# tmp349, tmp351
	leaq	(%rcx,%rdx), %rax	#, tmp352
	addq	$80, %rax	#, tmp353
	movl	8(%rax), %eax	# stats.85_128->mode_use_transform_8x8, D.12153
	leal	1(%rax), %edi	#, D.12153
	movslq	%esi, %rax	# D.12153, tmp354
	salq	$2, %rax	#, tmp356
	movq	%rax, %rdx	# tmp355, tmp357
	salq	$4, %rdx	#, tmp357
	subq	%rax, %rdx	# tmp355, tmp357
	leaq	(%rcx,%rdx), %rax	#, tmp358
	addq	$80, %rax	#, tmp359
	movl	%edi, 8(%rax)	# D.12153, stats.85_128->mode_use_transform_8x8
	jmp	.L28	#
.L31:
	.loc 1 183 0
	movq	stats(%rip), %rcx	# stats, stats.87
	movq	img(%rip), %rax	# img, img.88
	movl	24(%rax), %esi	# img.88_124->type, D.12153
	movslq	%esi, %rax	# D.12153, tmp360
	salq	$2, %rax	#, tmp362
	movq	%rax, %rdx	# tmp361, tmp363
	salq	$4, %rdx	#, tmp363
	subq	%rax, %rdx	# tmp361, tmp363
	leaq	(%rcx,%rdx), %rax	#, tmp364
	addq	$384, %rax	#, tmp365
	movl	4(%rax), %eax	# stats.87_123->mode_use_transform_4x4, D.12153
	leal	1(%rax), %edi	#, D.12153
	movslq	%esi, %rax	# D.12153, tmp366
	salq	$2, %rax	#, tmp368
	movq	%rax, %rdx	# tmp367, tmp369
	salq	$4, %rdx	#, tmp369
	subq	%rax, %rdx	# tmp367, tmp369
	leaq	(%rcx,%rdx), %rax	#, tmp370
	addq	$384, %rax	#, tmp371
	movl	%edi, 4(%rax)	# D.12153, stats.87_123->mode_use_transform_4x4
.L28:
	.loc 1 171 0
	addl	$1, -20(%rbp)	#, i
.L25:
	.loc 1 171 0 is_stmt 0 discriminator 1
	cmpl	$3, -20(%rbp)	#, i
	jle	.L32	#,
	jmp	.L23	#
.L24:
	.loc 1 187 0 is_stmt 1
	movq	-16(%rbp), %rax	# currMB, tmp372
	movl	72(%rax), %eax	# currMB_8->mb_type, D.12153
	testl	%eax, %eax	# D.12153
	js	.L23	#,
	.loc 1 187 0 is_stmt 0 discriminator 1
	movq	-16(%rbp), %rax	# currMB, tmp373
	movl	72(%rax), %eax	# currMB_8->mb_type, D.12153
	cmpl	$3, %eax	#, D.12153
	jg	.L23	#,
	movq	-16(%rbp), %rax	# currMB, tmp374
	movl	460(%rax), %eax	# currMB_8->cbp, D.12153
	andl	$15, %eax	#, D.12153
	testl	%eax, %eax	# D.12153
	je	.L23	#,
	.loc 1 189 0 is_stmt 1
	movq	-16(%rbp), %rax	# currMB, tmp375
	movl	572(%rax), %eax	# currMB_8->luma_transform_size_8x8_flag, D.12153
	testl	%eax, %eax	# D.12153
	je	.L33	#,
	.loc 1 190 0
	movq	stats(%rip), %rdx	# stats, stats.89
	movq	img(%rip), %rax	# img, img.90
	movl	24(%rax), %ecx	# img.90_140->type, D.12153
	movq	-16(%rbp), %rax	# currMB, tmp376
	movl	72(%rax), %esi	# currMB_8->mb_type, D.12153
	movslq	%esi, %r8	# D.12153, tmp377
	movslq	%ecx, %rdi	# D.12153, tmp378
	movq	%rdi, %rax	# tmp378, tmp379
	salq	$4, %rax	#, tmp380
	subq	%rdi, %rax	# tmp378, tmp379
	addq	%r8, %rax	# tmp377, tmp381
	addq	$16, %rax	#, tmp382
	movl	8(%rdx,%rax,4), %eax	# stats.89_139->mode_use_transform_8x8, D.12153
	leal	1(%rax), %edi	#, D.12153
	movslq	%esi, %rsi	# D.12153, tmp383
	movslq	%ecx, %rcx	# D.12153, tmp384
	movq	%rcx, %rax	# tmp384, tmp385
	salq	$4, %rax	#, tmp386
	subq	%rcx, %rax	# tmp384, tmp385
	addq	%rsi, %rax	# tmp383, tmp387
	addq	$16, %rax	#, tmp388
	movl	%edi, 8(%rdx,%rax,4)	# D.12153, stats.89_139->mode_use_transform_8x8
	jmp	.L23	#
.L33:
	.loc 1 192 0
	movq	stats(%rip), %rdx	# stats, stats.91
	movq	img(%rip), %rax	# img, img.92
	movl	24(%rax), %ecx	# img.92_146->type, D.12153
	movq	-16(%rbp), %rax	# currMB, tmp389
	movl	72(%rax), %esi	# currMB_8->mb_type, D.12153
	movslq	%esi, %r8	# D.12153, tmp390
	movslq	%ecx, %rdi	# D.12153, tmp391
	movq	%rdi, %rax	# tmp391, tmp392
	salq	$4, %rax	#, tmp393
	subq	%rdi, %rax	# tmp391, tmp392
	addq	%r8, %rax	# tmp390, tmp394
	addq	$92, %rax	#, tmp395
	movl	4(%rdx,%rax,4), %eax	# stats.91_145->mode_use_transform_4x4, D.12153
	leal	1(%rax), %edi	#, D.12153
	movslq	%esi, %rsi	# D.12153, tmp396
	movslq	%ecx, %rcx	# D.12153, tmp397
	movq	%rcx, %rax	# tmp397, tmp398
	salq	$4, %rax	#, tmp399
	subq	%rcx, %rax	# tmp397, tmp398
	addq	%rsi, %rax	# tmp396, tmp400
	addq	$92, %rax	#, tmp401
	movl	%edi, 4(%rdx,%rax,4)	# D.12153, stats.91_145->mode_use_transform_4x4
.L23:
	.loc 1 197 0
	movq	img(%rip), %rax	# img, img.93
	movl	24(%rax), %eax	# img.93_151->type, D.12153
	testl	%eax, %eax	# D.12153
	je	.L34	#,
	.loc 1 197 0 is_stmt 0 discriminator 1
	movq	img(%rip), %rax	# img, img.94
	movl	24(%rax), %eax	# img.94_153->type, D.12153
	cmpl	$3, %eax	#, D.12153
	jne	.L19	#,
.L34:
	.loc 1 199 0 is_stmt 1
	movq	stats(%rip), %rax	# stats, stats.95
	movl	(%rax), %edx	# stats.95_155->quant0, D.12153
	addl	$1, %edx	#, D.12153
	movl	%edx, (%rax)	# D.12153, stats.95_155->quant0
	.loc 1 200 0
	movq	stats(%rip), %rax	# stats, stats.96
	movq	stats(%rip), %rdx	# stats, stats.97
	movl	4(%rdx), %ecx	# stats.97_159->quant1, D.12153
	movq	-16(%rbp), %rdx	# currMB, tmp402
	movl	12(%rdx), %edx	# currMB_8->qp, D.12153
	addl	%ecx, %edx	# D.12153, D.12153
	movl	%edx, 4(%rax)	# D.12153, stats.96_158->quant1
.L19:
	.loc 1 202 0
	popq	%rbp	#
	.cfi_def_cfa 7, 8
	ret
	.cfi_endproc
.LFE5:
	.size	proceed2nextMacroblock, .-proceed2nextMacroblock
	.globl	start_macroblock
	.type	start_macroblock, @function
start_macroblock:
.LFB6:
	.loc 1 211 0
	.cfi_startproc
	pushq	%rbp	#
	.cfi_def_cfa_offset 16
	.cfi_offset 6, -16
	movq	%rsp, %rbp	#,
	.cfi_def_cfa_register 6
	pushq	%rbx	#
	subq	$120, %rsp	#,
	.cfi_offset 3, -24
	movl	%edi, -116(%rbp)	# mb_addr, mb_addr
	movl	%esi, -120(%rbp)	# mb_field, mb_field
	.loc 1 213 0
	movq	input(%rip), %rax	# input, input.99
	movl	208(%rax), %eax	# input.99_16->slice_mode, D.12156
	cmpl	$2, %eax	#, D.12156
	je	.L37	#,
	.loc 1 213 0 is_stmt 0 discriminator 2
	movq	input(%rip), %rax	# input, input.100
	movl	208(%rax), %eax	# input.100_18->slice_mode, D.12156
	cmpl	$3, %eax	#, D.12156
	jne	.L38	#,
.L37:
	.loc 1 213 0 discriminator 1
	movl	$1, %eax	#, iftmp.98
	jmp	.L39	#
.L38:
	.loc 1 213 0 discriminator 3
	movl	$0, %eax	#, iftmp.98
.L39:
	.loc 1 213 0 discriminator 4
	movl	%eax, -84(%rbp)	# iftmp.98, use_bitstream_backing
	.loc 1 214 0 is_stmt 1 discriminator 4
	movq	img(%rip), %rax	# img, img.101
	movq	14168(%rax), %rdx	# img.101_23->mb_data, D.12157
	movl	-116(%rbp), %eax	# mb_addr, tmp456
	cltq
	imulq	$632, %rax, %rax	#, D.12158, D.12158
	addq	%rdx, %rax	# D.12157, tmp457
	movq	%rax, -64(%rbp)	# tmp457, currMB
	.loc 1 215 0 discriminator 4
	movq	img(%rip), %rax	# img, img.102
	movq	14160(%rax), %rax	# img.102_29->currentSlice, tmp458
	movq	%rax, -56(%rbp)	# tmp458, curr_slice
	.loc 1 219 0 discriminator 4
	movq	img(%rip), %rax	# img, img.103
	movl	72668(%rax), %eax	# img.103_31->bitdepth_luma_qp_scale, D.12156
	movl	%eax, %edx	# D.12156, tmp459
	shrl	$31, %edx	#, tmp459
	addl	%edx, %eax	# tmp459, tmp460
	sarl	%eax	# tmp461
	addl	$25, %eax	#, tmp462
	movl	%eax, -80(%rbp)	# tmp462, max_qp_delta
	.loc 1 220 0 discriminator 4
	movq	img(%rip), %rax	# img, img.104
	movl	72668(%rax), %eax	# img.104_35->bitdepth_luma_qp_scale, D.12156
	movl	%eax, %edx	# D.12156, tmp463
	shrl	$31, %edx	#, tmp463
	addl	%edx, %eax	# tmp463, tmp464
	sarl	%eax	# tmp465
	addl	$26, %eax	#, tmp466
	movl	%eax, -76(%rbp)	# tmp466, min_qp_delta
	.loc 1 222 0 discriminator 4
	movq	-64(%rbp), %rax	# currMB, tmp467
	movl	-120(%rbp), %edx	# mb_field, tmp468
	movl	%edx, 532(%rax)	# tmp468, currMB_28->mb_field
	.loc 1 224 0 discriminator 4
	movq	enc_picture(%rip), %rax	# enc_picture, enc_picture.105
	movq	6472(%rax), %rdx	# enc_picture.105_40->mb_field, D.12159
	movl	-116(%rbp), %eax	# mb_addr, tmp469
	cltq
	addq	%rax, %rdx	# D.12160, D.12159
	movl	-120(%rbp), %eax	# mb_field, tmp470
	movb	%al, (%rdx)	# D.12161, *_43
	.loc 1 226 0 discriminator 4
	movl	-116(%rbp), %eax	# mb_addr, tmp471
	movl	%eax, %edi	# tmp471,
	call	set_MB_parameters	#
	.loc 1 228 0 discriminator 4
	cmpl	$0, -84(%rbp)	#, use_bitstream_backing
	je	.L40	#,
	.loc 1 231 0
	movq	img(%rip), %rax	# img, img.106
	movl	120(%rax), %eax	# img.106_45->cod_counter, D.12156
	testl	%eax, %eax	# D.12156
	jne	.L40	#,
	.loc 1 232 0
	movl	$0, -100(%rbp)	#, i
	jmp	.L41	#
.L43:
	.loc 1 234 0
	movq	-56(%rbp), %rax	# curr_slice, tmp472
	movq	24(%rax), %rdx	# curr_slice_30->partArr, D.12162
	movl	-100(%rbp), %eax	# i, tmp473
	cltq
	salq	$3, %rax	#, tmp475
	movq	%rax, %rcx	# tmp474, tmp476
	salq	$4, %rcx	#, tmp476
	subq	%rax, %rcx	# tmp474, D.12158
	movq	%rcx, %rax	# D.12158, D.12158
	addq	%rdx, %rax	# D.12162, tmp477
	movq	%rax, -48(%rbp)	# tmp477, dataPart
	.loc 1 235 0
	movq	-48(%rbp), %rax	# dataPart, tmp478
	movq	(%rax), %rax	# dataPart_52->bitstream, tmp479
	movq	%rax, -40(%rbp)	# tmp479, currStream
	.loc 1 236 0
	movq	-40(%rbp), %rax	# currStream, tmp480
	movl	4(%rax), %edx	# currStream_53->bits_to_go, D.12156
	movq	-40(%rbp), %rax	# currStream, tmp481
	movl	%edx, 16(%rax)	# D.12156, currStream_53->stored_bits_to_go
	.loc 1 237 0
	movq	-40(%rbp), %rax	# currStream, tmp482
	movl	(%rax), %edx	# currStream_53->byte_pos, D.12156
	movq	-40(%rbp), %rax	# currStream, tmp483
	movl	%edx, 12(%rax)	# D.12156, currStream_53->stored_byte_pos
	.loc 1 238 0
	movq	-40(%rbp), %rax	# currStream, tmp484
	movzbl	8(%rax), %edx	# currStream_53->byte_buf, D.12161
	movq	-40(%rbp), %rax	# currStream, tmp485
	movb	%dl, 20(%rax)	# D.12161, currStream_53->stored_byte_buf
	.loc 1 240 0
	movq	input(%rip), %rax	# input, input.107
	movl	2356(%rax), %eax	# input.107_57->symbol_mode, D.12156
	cmpl	$1, %eax	#, D.12156
	jne	.L42	#,
	.loc 1 242 0
	movq	-48(%rbp), %rax	# dataPart, tmp489
	addq	$8, %rax	#, tmp488
	movq	%rax, -32(%rbp)	# tmp488, eep
	.loc 1 243 0
	movq	-32(%rbp), %rax	# eep, tmp490
	movl	(%rax), %edx	# eep_59->Elow, D.12163
	movq	-32(%rbp), %rax	# eep, tmp491
	movl	%edx, 40(%rax)	# D.12163, eep_59->ElowS
	.loc 1 244 0
	movq	-32(%rbp), %rax	# eep, tmp492
	movl	4(%rax), %edx	# eep_59->Erange, D.12163
	movq	-32(%rbp), %rax	# eep, tmp493
	movl	%edx, 44(%rax)	# D.12163, eep_59->ErangeS
	.loc 1 245 0
	movq	-32(%rbp), %rax	# eep, tmp494
	movl	8(%rax), %edx	# eep_59->Ebuffer, D.12163
	movq	-32(%rbp), %rax	# eep, tmp495
	movl	%edx, 48(%rax)	# D.12163, eep_59->EbufferS
	.loc 1 246 0
	movq	-32(%rbp), %rax	# eep, tmp496
	movl	12(%rax), %edx	# eep_59->Ebits_to_go, D.12163
	movq	-32(%rbp), %rax	# eep, tmp497
	movl	%edx, 52(%rax)	# D.12163, eep_59->Ebits_to_goS
	.loc 1 247 0
	movq	-32(%rbp), %rax	# eep, tmp498
	movl	16(%rax), %edx	# eep_59->Ebits_to_follow, D.12163
	movq	-32(%rbp), %rax	# eep, tmp499
	movl	%edx, 56(%rax)	# D.12163, eep_59->Ebits_to_followS
	.loc 1 248 0
	movq	-32(%rbp), %rax	# eep, tmp500
	movq	24(%rax), %rdx	# eep_59->Ecodestrm, D.12159
	movq	-32(%rbp), %rax	# eep, tmp501
	movq	%rdx, 64(%rax)	# D.12159, eep_59->EcodestrmS
	.loc 1 249 0
	movq	-32(%rbp), %rax	# eep, tmp502
	movq	32(%rax), %rdx	# eep_59->Ecodestrm_len, D.12164
	movq	-32(%rbp), %rax	# eep, tmp503
	movq	%rdx, 72(%rax)	# D.12164, eep_59->Ecodestrm_lenS
	.loc 1 250 0
	movq	-32(%rbp), %rax	# eep, tmp504
	movl	80(%rax), %edx	# eep_59->C, D.12156
	movq	-32(%rbp), %rax	# eep, tmp505
	movl	%edx, 84(%rax)	# D.12156, eep_59->CS
	.loc 1 251 0
	movq	-32(%rbp), %rax	# eep, tmp506
	movl	96(%rax), %edx	# eep_59->B, D.12156
	movq	-32(%rbp), %rax	# eep, tmp507
	movl	%edx, 100(%rax)	# D.12156, eep_59->BS
	.loc 1 252 0
	movq	-32(%rbp), %rax	# eep, tmp508
	movl	88(%rax), %edx	# eep_59->E, D.12156
	movq	-32(%rbp), %rax	# eep, tmp509
	movl	%edx, 92(%rax)	# D.12156, eep_59->ES
.L42:
	.loc 1 232 0
	addl	$1, -100(%rbp)	#, i
.L41:
	.loc 1 232 0 is_stmt 0 discriminator 1
	movq	-56(%rbp), %rax	# curr_slice, tmp510
	movl	16(%rax), %eax	# curr_slice_30->max_part_nr, D.12156
	cmpl	-100(%rbp), %eax	# i, D.12156
	jg	.L43	#,
.L40:
	.loc 1 259 0 is_stmt 1
	movq	img(%rip), %rax	# img, img.108
	movl	20(%rax), %edx	# img.108_71->current_slice_nr, D.12156
	movq	-64(%rbp), %rax	# currMB, tmp511
	movl	%edx, 4(%rax)	# D.12156, currMB_28->slice_nr
	.loc 1 263 0
	movq	img(%rip), %rax	# img, img.109
	movl	44(%rax), %edx	# img.109_73->qpsp, D.12156
	movq	-64(%rbp), %rax	# currMB, tmp512
	movl	%edx, 16(%rax)	# D.12156, currMB_28->qpsp
	.loc 1 264 0
	movq	input(%rip), %rax	# input, input.110
	movl	3236(%rax), %eax	# input.110_75->RCEnable, D.12156
	testl	%eax, %eax	# D.12156
	je	.L44	#,
.LBB2:
	.loc 1 266 0
	movq	img(%rip), %rax	# img, img.111
	movl	12(%rax), %eax	# img.111_77->current_mb_nr, D.12156
	movl	%eax, %edi	# D.12156,
	call	FmoGetPreviousMBNr	#
	movl	%eax, -72(%rbp)	# tmp513, prev_mb
	.loc 1 267 0
	cmpl	$0, -72(%rbp)	#, prev_mb
	js	.L45	#,
	.loc 1 269 0
	movq	img(%rip), %rax	# img, img.112
	movq	14168(%rax), %rdx	# img.112_80->mb_data, D.12157
	movl	-72(%rbp), %eax	# prev_mb, tmp514
	cltq
	imulq	$632, %rax, %rax	#, D.12158, D.12158
	addq	%rdx, %rax	# D.12157, D.12157
	movl	12(%rax), %edx	# _84->qp, D.12156
	movq	-64(%rbp), %rax	# currMB, tmp515
	movl	%edx, 592(%rax)	# D.12156, currMB_28->prev_qp
	.loc 1 270 0
	movq	img(%rip), %rax	# img, img.113
	movq	14168(%rax), %rdx	# img.113_86->mb_data, D.12157
	movl	-72(%rbp), %eax	# prev_mb, tmp516
	cltq
	imulq	$632, %rax, %rax	#, D.12158, D.12158
	addq	%rdx, %rax	# D.12157, D.12157
	movl	8(%rax), %edx	# _90->delta_qp, D.12156
	movq	-64(%rbp), %rax	# currMB, tmp517
	movl	%edx, 596(%rax)	# D.12156, currMB_28->prev_delta_qp
	jmp	.L46	#
.L45:
	.loc 1 274 0
	movq	-56(%rbp), %rax	# curr_slice, tmp518
	movl	4(%rax), %edx	# curr_slice_30->qp, D.12156
	movq	-64(%rbp), %rax	# currMB, tmp519
	movl	%edx, 592(%rax)	# D.12156, currMB_28->prev_qp
	.loc 1 275 0
	movq	-64(%rbp), %rax	# currMB, tmp520
	movl	$0, 596(%rax)	#, currMB_28->prev_delta_qp
.L46:
	.loc 1 278 0
	movq	input(%rip), %rax	# input, input.114
	movl	3248(%rax), %edx	# input.114_93->basicunit, D.12156
	movq	img(%rip), %rax	# img, img.115
	movl	72608(%rax), %eax	# img.115_95->Frame_Total_Number_MB, D.12156
	cmpl	%eax, %edx	# D.12156, D.12156
	jne	.L47	#,
	.loc 1 280 0
	movq	-64(%rbp), %rax	# currMB, tmp521
	movl	$0, 8(%rax)	#, currMB_28->delta_qp
	.loc 1 281 0
	movq	img(%rip), %rax	# img, img.116
	movl	40(%rax), %edx	# img.116_97->qp, D.12156
	movq	-64(%rbp), %rax	# currMB, tmp522
	movl	%edx, 12(%rax)	# D.12156, currMB_28->qp
	jmp	.L48	#
.L47:
	.loc 1 287 0
	movq	img(%rip), %rax	# img, img.117
	movl	24(%rax), %eax	# img.117_99->type, D.12156
	cmpl	$2, %eax	#, D.12156
	je	.L49	#,
	.loc 1 287 0 is_stmt 0 discriminator 1
	movq	img(%rip), %rax	# img, img.118
	movl	24(%rax), %eax	# img.118_101->type, D.12156
	cmpl	$1, %eax	#, D.12156
	jne	.L50	#,
.L49:
	.loc 1 289 0 is_stmt 1
	movq	-64(%rbp), %rax	# currMB, tmp523
	movl	$0, 8(%rax)	#, currMB_28->delta_qp
	.loc 1 290 0
	movq	img(%rip), %rax	# img, img.119
	movl	40(%rax), %edx	# img.119_301->qp, D.12156
	movq	-64(%rbp), %rax	# currMB, tmp524
	movl	%edx, 12(%rax)	# D.12156, currMB_28->qp
	jmp	.L48	#
.L50:
	.loc 1 292 0
	movq	img(%rip), %rax	# img, img.120
	movl	24(%rax), %eax	# img.120_103->type, D.12156
	testl	%eax, %eax	# D.12156
	jne	.L48	#,
	.loc 1 295 0
	movq	img(%rip), %rax	# img, img.121
	movl	72624(%rax), %eax	# img.121_105->write_macroblock, D.12156
	testl	%eax, %eax	# D.12156
	jne	.L51	#,
	.loc 1 297 0
	movq	-64(%rbp), %rax	# currMB, tmp525
	movl	532(%rax), %eax	# currMB_28->mb_field, D.12156
	testl	%eax, %eax	# D.12156
	jne	.L52	#,
	.loc 1 299 0
	movq	img(%rip), %rax	# img, img.122
	movl	12(%rax), %eax	# img.122_108->current_mb_nr, D.12156
	testl	%eax, %eax	# D.12156
	jne	.L53	#,
	.loc 1 302 0
	movq	-64(%rbp), %rax	# currMB, tmp526
	movl	$0, 8(%rax)	#, currMB_28->delta_qp
	.loc 1 303 0
	movq	img(%rip), %rax	# img, img.123
	movl	40(%rax), %edx	# img.123_110->qp, D.12156
	movq	-64(%rbp), %rax	# currMB, tmp527
	movl	%edx, 12(%rax)	# D.12156, currMB_28->qp
	.loc 1 304 0
	movq	-64(%rbp), %rax	# currMB, tmp528
	movl	8(%rax), %eax	# currMB_28->delta_qp, DELTA_QP2.124
	movl	%eax, DELTA_QP2(%rip)	# DELTA_QP2.124, DELTA_QP2
	movl	DELTA_QP2(%rip), %eax	# DELTA_QP2, DELTA_QP2.125
	movl	%eax, DELTA_QP(%rip)	# DELTA_QP2.125, DELTA_QP
	.loc 1 305 0
	movq	-64(%rbp), %rax	# currMB, tmp529
	movl	12(%rax), %eax	# currMB_28->qp, QP2.126
	movl	%eax, QP2(%rip)	# QP2.126, QP2
	movl	QP2(%rip), %eax	# QP2, QP2.127
	movl	%eax, QP(%rip)	# QP2.127, QP
	jmp	.L61	#
.L53:
	.loc 1 309 0
	movq	input(%rip), %rax	# input, input.128
	movl	2884(%rax), %eax	# input.128_116->MbInterlace, D.12156
	testl	%eax, %eax	# D.12156
	je	.L55	#,
	.loc 1 309 0 is_stmt 0 discriminator 1
	movq	img(%rip), %rax	# img, img.129
	movl	72628(%rax), %eax	# img.129_118->bot_MB, D.12156
	testl	%eax, %eax	# D.12156
	jne	.L56	#,
.L55:
	.loc 1 311 0 is_stmt 1
	movq	img(%rip), %rax	# img, img.130
	movq	14168(%rax), %rdx	# img.130_122->mb_data, D.12157
	movq	img(%rip), %rax	# img, img.131
	movl	12(%rax), %eax	# img.131_124->current_mb_nr, D.12156
	cltq
	imulq	$632, %rax, %rax	#, D.12158, D.12158
	subq	$632, %rax	#, D.12160
	addq	%rdx, %rax	# D.12157, D.12157
	movl	600(%rax), %eax	# _129->prev_cbp, D.12156
	cmpl	$1, %eax	#, D.12156
	jne	.L57	#,
	.loc 1 313 0
	movq	-64(%rbp), %rax	# currMB, tmp530
	movl	$0, 8(%rax)	#, currMB_28->delta_qp
	.loc 1 314 0
	movq	img(%rip), %rax	# img, img.132
	movl	40(%rax), %edx	# img.132_131->qp, D.12156
	movq	-64(%rbp), %rax	# currMB, tmp531
	movl	%edx, 12(%rax)	# D.12156, currMB_28->qp
	jmp	.L58	#
.L57:
	.loc 1 318 0
	movq	img(%rip), %rax	# img, img.133
	movq	14168(%rax), %rdx	# img.133_133->mb_data, D.12157
	movq	img(%rip), %rax	# img, img.134
	movl	12(%rax), %eax	# img.134_135->current_mb_nr, D.12156
	cltq
	imulq	$632, %rax, %rax	#, D.12158, D.12158
	subq	$632, %rax	#, D.12160
	addq	%rdx, %rax	# D.12157, D.12157
	movl	592(%rax), %edx	# _140->prev_qp, D.12156
	movq	-64(%rbp), %rax	# currMB, tmp532
	movl	%edx, 12(%rax)	# D.12156, currMB_28->qp
	.loc 1 319 0
	movq	-64(%rbp), %rax	# currMB, tmp533
	movl	12(%rax), %edx	# currMB_28->qp, D.12156
	movq	img(%rip), %rax	# img, img.135
	movq	14168(%rax), %rcx	# img.135_143->mb_data, D.12157
	movq	img(%rip), %rax	# img, img.136
	movl	12(%rax), %eax	# img.136_145->current_mb_nr, D.12156
	cltq
	imulq	$632, %rax, %rax	#, D.12158, D.12158
	subq	$632, %rax	#, D.12160
	addq	%rcx, %rax	# D.12157, D.12157
	movl	12(%rax), %eax	# _150->qp, D.12156
	subl	%eax, %edx	# D.12156, D.12156
	movq	-64(%rbp), %rax	# currMB, tmp534
	movl	%edx, 8(%rax)	# D.12156, currMB_28->delta_qp
	.loc 1 320 0
	movq	img(%rip), %rax	# img, img.137
	movq	-64(%rbp), %rdx	# currMB, tmp535
	movl	12(%rdx), %edx	# currMB_28->qp, D.12156
	movl	%edx, 40(%rax)	# D.12156, img.137_153->qp
.L58:
	.loc 1 322 0
	movq	-64(%rbp), %rax	# currMB, tmp536
	movl	8(%rax), %eax	# currMB_28->delta_qp, DELTA_QP2.138
	movl	%eax, DELTA_QP2(%rip)	# DELTA_QP2.138, DELTA_QP2
	movl	DELTA_QP2(%rip), %eax	# DELTA_QP2, DELTA_QP2.139
	movl	%eax, DELTA_QP(%rip)	# DELTA_QP2.139, DELTA_QP
	.loc 1 323 0
	movq	-64(%rbp), %rax	# currMB, tmp537
	movl	12(%rax), %eax	# currMB_28->qp, QP2.140
	movl	%eax, QP2(%rip)	# QP2.140, QP2
	movl	QP2(%rip), %eax	# QP2, QP2.141
	movl	%eax, QP(%rip)	# QP2.141, QP
	jmp	.L61	#
.L56:
	.loc 1 328 0
	movq	-64(%rbp), %rax	# currMB, tmp538
	movl	$0, 8(%rax)	#, currMB_28->delta_qp
	.loc 1 329 0
	movq	img(%rip), %rax	# img, img.142
	movl	40(%rax), %edx	# img.142_120->qp, D.12156
	movq	-64(%rbp), %rax	# currMB, tmp539
	movl	%edx, 12(%rax)	# D.12156, currMB_28->qp
	jmp	.L61	#
.L52:
	.loc 1 335 0
	movq	img(%rip), %rax	# img, img.143
	movl	72628(%rax), %eax	# img.143_159->bot_MB, D.12156
	testl	%eax, %eax	# D.12156
	jne	.L60	#,
	.loc 1 337 0
	movl	DELTA_QP2(%rip), %edx	# DELTA_QP2, DELTA_QP2.144
	movq	-64(%rbp), %rax	# currMB, tmp540
	movl	%edx, 8(%rax)	# DELTA_QP2.144, currMB_28->delta_qp
	.loc 1 338 0
	movq	img(%rip), %rax	# img, img.145
	movl	QP2(%rip), %edx	# QP2, QP2.146
	movl	%edx, 40(%rax)	# QP2.146, img.145_162->qp
	movl	40(%rax), %edx	# img.145_162->qp, D.12156
	movq	-64(%rbp), %rax	# currMB, tmp541
	movl	%edx, 12(%rax)	# D.12156, currMB_28->qp
	jmp	.L61	#
.L60:
	.loc 1 342 0
	movq	img(%rip), %rax	# img, img.147
	movl	40(%rax), %edx	# img.147_165->qp, D.12156
	movq	-64(%rbp), %rax	# currMB, tmp542
	movl	%edx, 12(%rax)	# D.12156, currMB_28->qp
	.loc 1 343 0
	movq	-64(%rbp), %rax	# currMB, tmp543
	movl	$0, 8(%rax)	#, currMB_28->delta_qp
	jmp	.L61	#
.L51:
	.loc 1 351 0
	movq	img(%rip), %rax	# img, img.148
	movl	72628(%rax), %eax	# img.148_167->bot_MB, D.12156
	testl	%eax, %eax	# D.12156
	jne	.L62	#,
	.loc 1 353 0
	movq	img(%rip), %rax	# img, img.149
	movl	72632(%rax), %eax	# img.149_169->write_macroblock_frame, D.12156
	testl	%eax, %eax	# D.12156
	je	.L63	#,
	.loc 1 355 0
	movl	DELTA_QP(%rip), %edx	# DELTA_QP, DELTA_QP.150
	movq	-64(%rbp), %rax	# currMB, tmp544
	movl	%edx, 8(%rax)	# DELTA_QP.150, currMB_28->delta_qp
	.loc 1 356 0
	movq	img(%rip), %rax	# img, img.151
	movl	QP(%rip), %ecx	# QP, QP.152
	movq	-64(%rbp), %rdx	# currMB, tmp545
	movl	%ecx, 12(%rdx)	# QP.152, currMB_28->qp
	movq	-64(%rbp), %rdx	# currMB, tmp546
	movl	12(%rdx), %edx	# currMB_28->qp, D.12156
	movl	%edx, 40(%rax)	# D.12156, img.151_172->qp
	jmp	.L61	#
.L63:
	.loc 1 360 0
	movl	DELTA_QP2(%rip), %edx	# DELTA_QP2, DELTA_QP2.153
	movq	-64(%rbp), %rax	# currMB, tmp547
	movl	%edx, 8(%rax)	# DELTA_QP2.153, currMB_28->delta_qp
	.loc 1 361 0
	movq	img(%rip), %rax	# img, img.154
	movl	QP2(%rip), %ecx	# QP2, QP2.155
	movq	-64(%rbp), %rdx	# currMB, tmp548
	movl	%ecx, 12(%rdx)	# QP2.155, currMB_28->qp
	movq	-64(%rbp), %rdx	# currMB, tmp549
	movl	12(%rdx), %edx	# currMB_28->qp, D.12156
	movl	%edx, 40(%rax)	# D.12156, img.154_176->qp
	jmp	.L61	#
.L62:
	.loc 1 366 0
	movq	-64(%rbp), %rax	# currMB, tmp550
	movl	$0, 8(%rax)	#, currMB_28->delta_qp
	.loc 1 367 0
	movq	img(%rip), %rax	# img, img.156
	movl	40(%rax), %edx	# img.156_179->qp, D.12156
	movq	-64(%rbp), %rax	# currMB, tmp551
	movl	%edx, 12(%rax)	# D.12156, currMB_28->qp
.L61:
	.loc 1 373 0
	movq	input(%rip), %rax	# input, input.157
	movl	2884(%rax), %eax	# input.157_181->MbInterlace, D.12156
	testl	%eax, %eax	# D.12156
	je	.L65	#,
	.loc 1 373 0 is_stmt 0 discriminator 1
	movq	img(%rip), %rax	# img, img.158
	movl	72628(%rax), %eax	# img.158_183->bot_MB, D.12156
	testl	%eax, %eax	# D.12156
	jne	.L66	#,
.L65:
	.loc 1 375 0 is_stmt 1
	movq	-64(%rbp), %rax	# currMB, tmp552
	movl	532(%rax), %eax	# currMB_28->mb_field, D.12156
	testl	%eax, %eax	# D.12156
	jne	.L67	#,
	.loc 1 378 0
	movq	img(%rip), %rax	# img, img.159
	movl	72616(%rax), %eax	# img.159_188->NumberofCodedMacroBlocks, D.12156
	testl	%eax, %eax	# D.12156
	jle	.L68	#,
	.loc 1 379 0
	movq	img(%rip), %rax	# img, img.160
	movl	72616(%rax), %eax	# img.160_190->NumberofCodedMacroBlocks, D.12156
	movq	img(%rip), %rdx	# img, img.161
	movl	72620(%rdx), %ecx	# img.161_192->BasicUnit, D.12156
	cltd
	idivl	%ecx	# D.12156
	movl	%edx, %eax	# tmp553, D.12156
	testl	%eax, %eax	# D.12156
	jne	.L68	#,
	.loc 1 383 0
	movq	active_sps(%rip), %rax	# active_sps, active_sps.162
	movl	1148(%rax), %eax	# active_sps.162_195->frame_mbs_only_flag, D.12165
	testl	%eax, %eax	# D.12165
	je	.L69	#,
	.loc 1 385 0
	movl	$0, %eax	#,
	call	updateRCModel	#
	.loc 1 386 0
	movq	img(%rip), %rbx	# img, img.163
	movq	img(%rip), %rax	# img, img.164
	movl	72596(%rax), %eax	# img.164_198->TopFieldFlag, D.12156
	movl	%eax, %edi	# D.12156,
	call	updateQuantizationParameter	#
	movl	%eax, 72592(%rbx)	# D.12156, img.163_197->BasicUnitQP
	jmp	.L68	#
.L69:
	.loc 1 389 0
	movq	input(%rip), %rax	# input, input.165
	movl	2880(%rax), %eax	# input.165_201->PicInterlace, D.12156
	cmpl	$2, %eax	#, D.12156
	jne	.L70	#,
	.loc 1 389 0 is_stmt 0 discriminator 1
	movq	input(%rip), %rax	# input, input.166
	movl	2884(%rax), %eax	# input.166_203->MbInterlace, D.12156
	testl	%eax, %eax	# D.12156
	jne	.L70	#,
	movq	img(%rip), %rax	# img, img.167
	movl	72612(%rax), %eax	# img.167_205->IFLAG, D.12156
	testl	%eax, %eax	# D.12156
	jne	.L70	#,
	.loc 1 391 0 is_stmt 1
	movl	$0, %eax	#,
	call	updateRCModel	#
	.loc 1 392 0
	movq	img(%rip), %rbx	# img, img.168
	movq	img(%rip), %rax	# img, img.169
	movl	72596(%rax), %eax	# img.169_208->TopFieldFlag, D.12156
	movl	%eax, %edi	# D.12156,
	call	updateQuantizationParameter	#
	movl	%eax, 72592(%rbx)	# D.12156, img.168_207->BasicUnitQP
	jmp	.L68	#
.L70:
	.loc 1 395 0
	movq	input(%rip), %rax	# input, input.170
	movl	2880(%rax), %eax	# input.170_211->PicInterlace, D.12156
	cmpl	$1, %eax	#, D.12156
	jne	.L71	#,
	.loc 1 395 0 is_stmt 0 discriminator 1
	movq	input(%rip), %rax	# input, input.171
	movl	2884(%rax), %eax	# input.171_213->MbInterlace, D.12156
	testl	%eax, %eax	# D.12156
	jne	.L71	#,
	movq	img(%rip), %rax	# img, img.172
	movl	72612(%rax), %eax	# img.172_215->IFLAG, D.12156
	testl	%eax, %eax	# D.12156
	jne	.L71	#,
	.loc 1 397 0 is_stmt 1
	movl	$0, %eax	#,
	call	updateRCModel	#
	.loc 1 398 0
	movq	img(%rip), %rbx	# img, img.173
	movq	img(%rip), %rax	# img, img.174
	movl	72596(%rax), %eax	# img.174_218->TopFieldFlag, D.12156
	movl	%eax, %edi	# D.12156,
	call	updateQuantizationParameter	#
	movl	%eax, 72592(%rbx)	# D.12156, img.173_217->BasicUnitQP
	jmp	.L68	#
.L71:
	.loc 1 401 0
	movq	input(%rip), %rax	# input, input.175
	movl	2884(%rax), %eax	# input.175_221->MbInterlace, D.12156
	testl	%eax, %eax	# D.12156
	je	.L72	#,
	.loc 1 401 0 is_stmt 0 discriminator 1
	movq	img(%rip), %rax	# img, img.176
	movl	72612(%rax), %eax	# img.176_223->IFLAG, D.12156
	testl	%eax, %eax	# D.12156
	jne	.L72	#,
	movq	img(%rip), %rax	# img, img.177
	movl	72600(%rax), %eax	# img.177_225->FieldControl, D.12156
	cmpl	$1, %eax	#, D.12156
	jne	.L72	#,
	.loc 1 403 0 is_stmt 1
	movl	$0, %eax	#,
	call	updateRCModel	#
	.loc 1 404 0
	movq	img(%rip), %rbx	# img, img.178
	movq	img(%rip), %rax	# img, img.179
	movl	72596(%rax), %eax	# img.179_228->TopFieldFlag, D.12156
	movl	%eax, %edi	# D.12156,
	call	updateQuantizationParameter	#
	movl	%eax, 72592(%rbx)	# D.12156, img.178_227->BasicUnitQP
	jmp	.L68	#
.L72:
	.loc 1 407 0
	movq	input(%rip), %rax	# input, input.180
	movl	2884(%rax), %eax	# input.180_231->MbInterlace, D.12156
	testl	%eax, %eax	# D.12156
	je	.L68	#,
	.loc 1 407 0 is_stmt 0 discriminator 1
	movq	img(%rip), %rax	# img, img.181
	movl	72612(%rax), %eax	# img.181_233->IFLAG, D.12156
	testl	%eax, %eax	# D.12156
	jne	.L68	#,
	movq	img(%rip), %rax	# img, img.182
	movl	72600(%rax), %eax	# img.182_235->FieldControl, D.12156
	testl	%eax, %eax	# D.12156
	jne	.L68	#,
	.loc 1 409 0 is_stmt 1
	movl	$0, %eax	#,
	call	updateRCModel	#
	.loc 1 410 0
	movq	img(%rip), %rbx	# img, img.183
	movq	img(%rip), %rax	# img, img.184
	movl	72596(%rax), %eax	# img.184_238->TopFieldFlag, D.12156
	movl	%eax, %edi	# D.12156,
	call	updateQuantizationParameter	#
	movl	%eax, 72592(%rbx)	# D.12156, img.183_237->BasicUnitQP
.L68:
	.loc 1 417 0
	movq	img(%rip), %rax	# img, img.185
	movl	12(%rax), %eax	# img.185_241->current_mb_nr, D.12156
	testl	%eax, %eax	# D.12156
	jne	.L73	#,
	.loc 1 418 0
	movq	img(%rip), %rax	# img, img.186
	movq	img(%rip), %rdx	# img, img.187
	movl	40(%rdx), %edx	# img.187_244->qp, D.12156
	movl	%edx, 72592(%rax)	# D.12156, img.186_243->BasicUnitQP
.L73:
	.loc 1 420 0
	movq	img(%rip), %rax	# img, img.188
	movl	72592(%rax), %edx	# img.188_246->BasicUnitQP, D.12156
	movq	-64(%rbp), %rax	# currMB, tmp555
	movl	%edx, 604(%rax)	# D.12156, currMB_28->predict_qp
	.loc 1 422 0
	movq	-64(%rbp), %rax	# currMB, tmp556
	movl	604(%rax), %edx	# currMB_28->predict_qp, D.12156
	movq	-64(%rbp), %rax	# currMB, tmp557
	movl	12(%rax), %ecx	# currMB_28->qp, D.12156
	movl	-80(%rbp), %eax	# max_qp_delta, tmp558
	addl	%ecx, %eax	# D.12156, D.12156
	cmpl	%eax, %edx	# D.12156, D.12156
	jle	.L74	#,
	.loc 1 423 0
	movq	-64(%rbp), %rax	# currMB, tmp559
	movl	12(%rax), %edx	# currMB_28->qp, D.12156
	movl	-80(%rbp), %eax	# max_qp_delta, tmp560
	addl	%eax, %edx	# tmp560, D.12156
	movq	-64(%rbp), %rax	# currMB, tmp561
	movl	%edx, 604(%rax)	# D.12156, currMB_28->predict_qp
	jmp	.L75	#
.L74:
	.loc 1 424 0
	movq	-64(%rbp), %rax	# currMB, tmp562
	movl	604(%rax), %edx	# currMB_28->predict_qp, D.12156
	movq	-64(%rbp), %rax	# currMB, tmp563
	movl	12(%rax), %eax	# currMB_28->qp, D.12156
	subl	-76(%rbp), %eax	# min_qp_delta, D.12156
	cmpl	%eax, %edx	# D.12156, D.12156
	jge	.L75	#,
	.loc 1 425 0
	movq	-64(%rbp), %rax	# currMB, tmp564
	movl	12(%rax), %eax	# currMB_28->qp, D.12156
	subl	-76(%rbp), %eax	# min_qp_delta, D.12156
	movl	%eax, %edx	# D.12156, D.12156
	movq	-64(%rbp), %rax	# currMB, tmp565
	movl	%edx, 604(%rax)	# D.12156, currMB_28->predict_qp
.L75:
	.loc 1 429 0
	movq	-64(%rbp), %rax	# currMB, tmp566
	movl	8(%rax), %edx	# currMB_28->delta_qp, D.12156
	movq	-64(%rbp), %rax	# currMB, tmp567
	movl	604(%rax), %eax	# currMB_28->predict_qp, D.12156
	addl	%eax, %edx	# D.12156, D.12156
	movq	-64(%rbp), %rax	# currMB, tmp568
	movl	12(%rax), %eax	# currMB_28->qp, D.12156
	subl	%eax, %edx	# D.12156, dq.189
	movl	%edx, %eax	# dq.189, dq.189
	movl	%eax, dq(%rip)	# dq.189, dq
	.loc 1 430 0
	movl	-76(%rbp), %eax	# min_qp_delta, tmp569
	negl	%eax	# D.12156
	movl	%eax, %edx	# D.12156, D.12156
	movl	dq(%rip), %eax	# dq, dq.190
	cmpl	%eax, %edx	# dq.190, D.12156
	jle	.L76	#,
	.loc 1 432 0
	movl	-76(%rbp), %eax	# min_qp_delta, tmp570
	negl	%eax	# dq.191
	movl	%eax, dq(%rip)	# dq.191, dq
	.loc 1 433 0
	movl	dq(%rip), %edx	# dq, dq.192
	movq	-64(%rbp), %rax	# currMB, tmp571
	movl	8(%rax), %eax	# currMB_28->delta_qp, D.12156
	subl	%eax, %edx	# D.12156, predict_error.193
	movl	%edx, %eax	# predict_error.193, predict_error.193
	movl	%eax, predict_error(%rip)	# predict_error.193, predict_error
	.loc 1 434 0
	movq	img(%rip), %rax	# img, img.194
	movq	img(%rip), %rdx	# img, img.195
	movl	40(%rdx), %ecx	# img.195_270->qp, D.12156
	movl	predict_error(%rip), %edx	# predict_error, predict_error.196
	addl	%ecx, %edx	# D.12156, D.12156
	movl	%edx, 40(%rax)	# D.12156, img.194_269->qp
	.loc 1 435 0
	movl	-76(%rbp), %eax	# min_qp_delta, tmp572
	negl	%eax	# D.12156
	movl	%eax, %edx	# D.12156, D.12156
	movq	-64(%rbp), %rax	# currMB, tmp573
	movl	%edx, 8(%rax)	# D.12156, currMB_28->delta_qp
	jmp	.L77	#
.L76:
	.loc 1 437 0
	movl	dq(%rip), %eax	# dq, dq.197
	cmpl	-80(%rbp), %eax	# max_qp_delta, dq.197
	jle	.L78	#,
	.loc 1 439 0
	movl	-80(%rbp), %eax	# max_qp_delta, tmp574
	movl	%eax, dq(%rip)	# tmp574, dq
	.loc 1 440 0
	movl	dq(%rip), %edx	# dq, dq.198
	movq	-64(%rbp), %rax	# currMB, tmp575
	movl	8(%rax), %eax	# currMB_28->delta_qp, D.12156
	subl	%eax, %edx	# D.12156, predict_error.199
	movl	%edx, %eax	# predict_error.199, predict_error.199
	movl	%eax, predict_error(%rip)	# predict_error.199, predict_error
	.loc 1 441 0
	movq	img(%rip), %rax	# img, img.200
	movq	img(%rip), %rdx	# img, img.201
	movl	40(%rdx), %ecx	# img.201_280->qp, D.12156
	movl	predict_error(%rip), %edx	# predict_error, predict_error.202
	addl	%ecx, %edx	# D.12156, D.12156
	movl	%edx, 40(%rax)	# D.12156, img.200_279->qp
	.loc 1 442 0
	movq	-64(%rbp), %rax	# currMB, tmp576
	movl	-80(%rbp), %edx	# max_qp_delta, tmp577
	movl	%edx, 8(%rax)	# tmp577, currMB_28->delta_qp
	jmp	.L77	#
.L78:
	.loc 1 446 0
	movl	dq(%rip), %edx	# dq, dq.203
	movq	-64(%rbp), %rax	# currMB, tmp578
	movl	%edx, 8(%rax)	# dq.203, currMB_28->delta_qp
	.loc 1 447 0
	movq	-64(%rbp), %rax	# currMB, tmp579
	movl	604(%rax), %edx	# currMB_28->predict_qp, D.12156
	movq	-64(%rbp), %rax	# currMB, tmp580
	movl	12(%rax), %eax	# currMB_28->qp, D.12156
	subl	%eax, %edx	# D.12156, predict_error.204
	movl	%edx, %eax	# predict_error.204, predict_error.204
	movl	%eax, predict_error(%rip)	# predict_error.204, predict_error
	.loc 1 448 0
	movq	img(%rip), %rax	# img, img.205
	movq	-64(%rbp), %rdx	# currMB, tmp581
	movl	604(%rdx), %edx	# currMB_28->predict_qp, D.12156
	movl	%edx, 40(%rax)	# D.12156, img.205_288->qp
.L77:
	.loc 1 450 0
	movq	img(%rip), %rax	# img, img.206
	movl	40(%rax), %edx	# img.206_290->qp, D.12156
	movq	-64(%rbp), %rax	# currMB, tmp582
	movl	%edx, 12(%rax)	# D.12156, currMB_28->qp
	.loc 1 451 0
	movq	input(%rip), %rax	# input, input.207
	movl	2884(%rax), %eax	# input.207_292->MbInterlace, D.12156
	testl	%eax, %eax	# D.12156
	je	.L79	#,
	.loc 1 453 0
	movq	-64(%rbp), %rax	# currMB, tmp583
	movl	8(%rax), %eax	# currMB_28->delta_qp, DELTA_QP2.208
	movl	%eax, DELTA_QP2(%rip)	# DELTA_QP2.208, DELTA_QP2
	movl	DELTA_QP2(%rip), %eax	# DELTA_QP2, DELTA_QP2.209
	movl	%eax, DELTA_QP(%rip)	# DELTA_QP2.209, DELTA_QP
	.loc 1 454 0
	movq	-64(%rbp), %rax	# currMB, tmp584
	movl	12(%rax), %eax	# currMB_28->qp, QP2.210
	movl	%eax, QP2(%rip)	# QP2.210, QP2
	movl	QP2(%rip), %eax	# QP2, QP2.211
	movl	%eax, QP(%rip)	# QP2.211, QP
	.loc 1 455 0
	movq	-64(%rbp), %rax	# currMB, tmp585
	movl	8(%rax), %eax	# currMB_28->delta_qp, DELTA_QP2.212
	movl	%eax, DELTA_QP2(%rip)	# DELTA_QP2.212, DELTA_QP2
.L79:
	.loc 1 457 0
	movl	predict_error(%rip), %edx	# predict_error, predict_error.213
	movq	-64(%rbp), %rax	# currMB, tmp586
	movl	%edx, 608(%rax)	# predict_error.213, currMB_28->predict_error
	.loc 1 375 0
	jmp	.L48	#
.L67:
	.loc 1 460 0
	movq	-64(%rbp), %rax	# currMB, tmp587
	movl	608(%rax), %eax	# currMB_28->predict_error, predict_error.214
	movl	%eax, predict_error(%rip)	# predict_error.214, predict_error
	.loc 1 375 0
	jmp	.L48	#
.L66:
	.loc 1 463 0
	movq	img(%rip), %rax	# img, img.215
	movl	40(%rax), %edx	# img.215_185->qp, D.12156
	movq	-64(%rbp), %rax	# currMB, tmp588
	movl	%edx, 592(%rax)	# D.12156, currMB_28->prev_qp
.LBE2:
	jmp	.L81	#
.L48:
	jmp	.L81	#
.L44:
.LBB3:
	.loc 1 469 0
	movq	img(%rip), %rax	# img, img.216
	movq	14160(%rax), %rax	# img.216_303->currentSlice, tmp589
	movq	%rax, -24(%rbp)	# tmp589, currSlice
	.loc 1 471 0
	movq	img(%rip), %rax	# img, img.217
	movl	12(%rax), %eax	# img.217_305->current_mb_nr, D.12156
	movl	%eax, %edi	# D.12156,
	call	FmoGetPreviousMBNr	#
	movl	%eax, -68(%rbp)	# tmp590, prev_mb
	.loc 1 472 0
	cmpl	$0, -68(%rbp)	#, prev_mb
	js	.L82	#,
	.loc 1 474 0
	movq	img(%rip), %rax	# img, img.218
	movq	14168(%rax), %rdx	# img.218_308->mb_data, D.12157
	movl	-68(%rbp), %eax	# prev_mb, tmp591
	cltq
	imulq	$632, %rax, %rax	#, D.12158, D.12158
	addq	%rdx, %rax	# D.12157, D.12157
	movl	12(%rax), %edx	# _312->qp, D.12156
	movq	-64(%rbp), %rax	# currMB, tmp592
	movl	%edx, 592(%rax)	# D.12156, currMB_28->prev_qp
	.loc 1 475 0
	movq	img(%rip), %rax	# img, img.219
	movq	14168(%rax), %rdx	# img.219_314->mb_data, D.12157
	movl	-68(%rbp), %eax	# prev_mb, tmp593
	cltq
	imulq	$632, %rax, %rax	#, D.12158, D.12158
	addq	%rdx, %rax	# D.12157, D.12157
	movl	8(%rax), %edx	# _318->delta_qp, D.12156
	movq	-64(%rbp), %rax	# currMB, tmp594
	movl	%edx, 596(%rax)	# D.12156, currMB_28->prev_delta_qp
	jmp	.L83	#
.L82:
	.loc 1 479 0
	movq	-24(%rbp), %rax	# currSlice, tmp595
	movl	4(%rax), %edx	# currSlice_304->qp, D.12156
	movq	-64(%rbp), %rax	# currMB, tmp596
	movl	%edx, 592(%rax)	# D.12156, currMB_28->prev_qp
	.loc 1 480 0
	movq	-64(%rbp), %rax	# currMB, tmp597
	movl	$0, 596(%rax)	#, currMB_28->prev_delta_qp
.L83:
	.loc 1 483 0
	movq	-24(%rbp), %rax	# currSlice, tmp598
	movl	4(%rax), %edx	# currSlice_304->qp, D.12156
	movq	-64(%rbp), %rax	# currMB, tmp599
	movl	%edx, 12(%rax)	# D.12156, currMB_28->qp
	.loc 1 485 0
	movq	-64(%rbp), %rax	# currMB, tmp600
	movl	12(%rax), %edx	# currMB_28->qp, D.12156
	movq	-64(%rbp), %rax	# currMB, tmp601
	movl	592(%rax), %eax	# currMB_28->prev_qp, D.12156
	subl	%eax, %edx	# D.12156, D.12156
	movq	-64(%rbp), %rax	# currMB, tmp602
	movl	%edx, 8(%rax)	# D.12156, currMB_28->delta_qp
	.loc 1 486 0
	movq	-64(%rbp), %rax	# currMB, tmp603
	movl	8(%rax), %eax	# currMB_28->delta_qp, DELTA_QP2.220
	movl	%eax, DELTA_QP2(%rip)	# DELTA_QP2.220, DELTA_QP2
	movl	DELTA_QP2(%rip), %eax	# DELTA_QP2, DELTA_QP2.221
	movl	%eax, DELTA_QP(%rip)	# DELTA_QP2.221, DELTA_QP
	.loc 1 487 0
	movq	-64(%rbp), %rax	# currMB, tmp604
	movl	12(%rax), %eax	# currMB_28->qp, QP2.222
	movl	%eax, QP2(%rip)	# QP2.222, QP2
	movl	QP2(%rip), %eax	# QP2, QP2.223
	movl	%eax, QP(%rip)	# QP2.223, QP
.L81:
.LBE3:
	.loc 1 491 0
	movq	-64(%rbp), %rax	# currMB, tmp605
	movl	$0, (%rax)	#, currMB_28->currSEnr
	.loc 1 494 0
	movq	active_pps(%rip), %rax	# active_pps, active_pps.224
	movl	220(%rax), %eax	# active_pps.224_329->deblocking_filter_control_present_flag, D.12165
	testl	%eax, %eax	# D.12165
	je	.L84	#,
	.loc 1 496 0
	movq	img(%rip), %rax	# img, img.225
	movl	71984(%rax), %edx	# img.225_331->LFDisableIdc, D.12156
	movq	-64(%rbp), %rax	# currMB, tmp606
	movl	%edx, 612(%rax)	# D.12156, currMB_28->LFDisableIdc
	.loc 1 497 0
	movq	img(%rip), %rax	# img, img.226
	movl	71988(%rax), %edx	# img.226_333->LFAlphaC0Offset, D.12156
	movq	-64(%rbp), %rax	# currMB, tmp607
	movl	%edx, 616(%rax)	# D.12156, currMB_28->LFAlphaC0Offset
	.loc 1 498 0
	movq	img(%rip), %rax	# img, img.227
	movl	71992(%rax), %edx	# img.227_335->LFBetaOffset, D.12156
	movq	-64(%rbp), %rax	# currMB, tmp608
	movl	%edx, 620(%rax)	# D.12156, currMB_28->LFBetaOffset
	jmp	.L85	#
.L84:
	.loc 1 502 0
	movq	-64(%rbp), %rax	# currMB, tmp609
	movl	$0, 612(%rax)	#, currMB_28->LFDisableIdc
	.loc 1 503 0
	movq	-64(%rbp), %rax	# currMB, tmp610
	movl	$0, 616(%rax)	#, currMB_28->LFAlphaC0Offset
	.loc 1 504 0
	movq	-64(%rbp), %rax	# currMB, tmp611
	movl	$0, 620(%rax)	#, currMB_28->LFBetaOffset
.L85:
	.loc 1 508 0
	movl	$0, %eax	#,
	call	CheckAvailabilityOfNeighbors	#
	.loc 1 510 0
	movq	input(%rip), %rax	# input, input.228
	movl	2356(%rax), %eax	# input.228_337->symbol_mode, D.12156
	cmpl	$1, %eax	#, D.12156
	jne	.L86	#,
	.loc 1 511 0
	movl	$0, %eax	#,
	call	CheckAvailabilityOfNeighborsCABAC	#
.L86:
	.loc 1 515 0
	movl	$0, -88(%rbp)	#, l
	jmp	.L87	#
.L94:
	.loc 1 517 0
	movl	$0, -96(%rbp)	#, j
	jmp	.L88	#
.L93:
	.loc 1 518 0
	movl	$0, -100(%rbp)	#, i
	jmp	.L89	#
.L92:
	.loc 1 519 0
	movl	$0, -92(%rbp)	#, k
	jmp	.L90	#
.L91:
	.loc 1 520 0 discriminator 2
	movq	enc_picture(%rip), %rax	# enc_picture, enc_picture.229
	movq	6504(%rax), %rax	# enc_picture.229_343->mv, D.12166
	movl	-88(%rbp), %edx	# l, tmp612
	movslq	%edx, %rdx	# tmp612, D.12158
	salq	$3, %rdx	#, D.12158
	addq	%rdx, %rax	# D.12158, D.12166
	movq	(%rax), %rdx	# *_347, D.12167
	movq	img(%rip), %rax	# img, img.230
	movl	144(%rax), %ecx	# img.230_349->block_x, D.12156
	movl	-100(%rbp), %eax	# i, tmp613
	addl	%ecx, %eax	# D.12156, D.12156
	cltq
	salq	$3, %rax	#, D.12158
	addq	%rdx, %rax	# D.12167, D.12167
	movq	(%rax), %rdx	# *_354, D.12168
	movq	img(%rip), %rax	# img, img.231
	movl	148(%rax), %ecx	# img.231_356->block_y, D.12156
	movl	-96(%rbp), %eax	# j, tmp614
	addl	%ecx, %eax	# D.12156, D.12156
	cltq
	salq	$3, %rax	#, D.12158
	addq	%rdx, %rax	# D.12168, D.12168
	movq	(%rax), %rax	# *_361, D.12169
	movl	-92(%rbp), %edx	# k, tmp615
	movslq	%edx, %rdx	# tmp615, D.12158
	addq	%rdx, %rdx	# D.12158
	addq	%rdx, %rax	# D.12158, D.12169
	movw	$0, (%rax)	#, *_365
	.loc 1 519 0 discriminator 2
	addl	$1, -92(%rbp)	#, k
.L90:
	.loc 1 519 0 is_stmt 0 discriminator 1
	cmpl	$1, -92(%rbp)	#, k
	jle	.L91	#,
	.loc 1 518 0 is_stmt 1
	addl	$1, -100(%rbp)	#, i
.L89:
	.loc 1 518 0 is_stmt 0 discriminator 1
	cmpl	$3, -100(%rbp)	#, i
	jle	.L92	#,
	.loc 1 517 0 is_stmt 1
	addl	$1, -96(%rbp)	#, j
.L88:
	.loc 1 517 0 is_stmt 0 discriminator 1
	cmpl	$3, -96(%rbp)	#, j
	jle	.L93	#,
	.loc 1 515 0 is_stmt 1
	addl	$1, -88(%rbp)	#, l
.L87:
	.loc 1 515 0 is_stmt 0 discriminator 1
	cmpl	$1, -88(%rbp)	#, l
	jle	.L94	#,
	.loc 1 524 0 is_stmt 1
	movl	$0, -96(%rbp)	#, j
	jmp	.L95	#
.L100:
	.loc 1 526 0
	movl	$0, -100(%rbp)	#, i
	jmp	.L96	#
.L99:
	.loc 1 527 0
	movl	$0, -88(%rbp)	#, l
	jmp	.L97	#
.L98:
	.loc 1 529 0 discriminator 2
	movq	enc_picture(%rip), %rax	# enc_picture, enc_picture.232
	movq	6480(%rax), %rax	# enc_picture.232_373->ref_idx, D.12167
	movl	-88(%rbp), %edx	# l, tmp616
	movslq	%edx, %rdx	# tmp616, D.12158
	salq	$3, %rdx	#, D.12158
	addq	%rdx, %rax	# D.12158, D.12167
	movq	(%rax), %rdx	# *_377, D.12168
	movq	img(%rip), %rax	# img, img.233
	movl	144(%rax), %ecx	# img.233_379->block_x, D.12156
	movl	-100(%rbp), %eax	# i, tmp617
	addl	%ecx, %eax	# D.12156, D.12156
	cltq
	salq	$3, %rax	#, D.12158
	addq	%rdx, %rax	# D.12168, D.12168
	movq	(%rax), %rdx	# *_384, D.12169
	movq	img(%rip), %rax	# img, img.234
	movl	148(%rax), %ecx	# img.234_386->block_y, D.12156
	movl	-96(%rbp), %eax	# j, tmp618
	addl	%ecx, %eax	# D.12156, D.12156
	cltq
	addq	%rax, %rax	# D.12158
	addq	%rdx, %rax	# D.12169, D.12169
	movw	$-1, (%rax)	#, *_391
	.loc 1 530 0 discriminator 2
	movq	enc_picture(%rip), %rax	# enc_picture, enc_picture.235
	movq	6488(%rax), %rax	# enc_picture.235_392->ref_pic_id, D.12170
	movl	-88(%rbp), %edx	# l, tmp619
	movslq	%edx, %rdx	# tmp619, D.12158
	salq	$3, %rdx	#, D.12158
	addq	%rdx, %rax	# D.12158, D.12170
	movq	(%rax), %rdx	# *_396, D.12171
	movq	img(%rip), %rax	# img, img.236
	movl	144(%rax), %ecx	# img.236_398->block_x, D.12156
	movl	-100(%rbp), %eax	# i, tmp620
	addl	%ecx, %eax	# D.12156, D.12156
	cltq
	salq	$3, %rax	#, D.12158
	addq	%rdx, %rax	# D.12171, D.12171
	movq	(%rax), %rdx	# *_403, D.12172
	movq	img(%rip), %rax	# img, img.237
	movl	148(%rax), %ecx	# img.237_405->block_y, D.12156
	movl	-96(%rbp), %eax	# j, tmp621
	addl	%ecx, %eax	# D.12156, D.12156
	cltq
	salq	$3, %rax	#, D.12158
	addq	%rdx, %rax	# D.12172, D.12172
	movq	$-1, (%rax)	#, *_410
	.loc 1 527 0 discriminator 2
	addl	$1, -88(%rbp)	#, l
.L97:
	.loc 1 527 0 is_stmt 0 discriminator 1
	cmpl	$1, -88(%rbp)	#, l
	jle	.L98	#,
	.loc 1 526 0 is_stmt 1
	addl	$1, -100(%rbp)	#, i
.L96:
	.loc 1 526 0 is_stmt 0 discriminator 1
	cmpl	$3, -100(%rbp)	#, i
	jle	.L99	#,
	.loc 1 524 0 is_stmt 1
	addl	$1, -96(%rbp)	#, j
.L95:
	.loc 1 524 0 is_stmt 0 discriminator 1
	cmpl	$3, -96(%rbp)	#, j
	jle	.L100	#,
	.loc 1 535 0 is_stmt 1
	movq	-64(%rbp), %rax	# currMB, tmp622
	movl	$0, 72(%rax)	#, currMB_28->mb_type
	.loc 1 536 0
	movq	-64(%rbp), %rax	# currMB, tmp623
	movq	$0, 464(%rax)	#, currMB_28->cbp_blk
	.loc 1 537 0
	movq	-64(%rbp), %rax	# currMB, tmp624
	movl	$0, 460(%rax)	#, currMB_28->cbp
	.loc 1 539 0
	movl	$0, -88(%rbp)	#, l
	jmp	.L101	#
.L108:
	.loc 1 540 0
	movl	$0, -96(%rbp)	#, j
	jmp	.L102	#
.L107:
	.loc 1 541 0
	movl	$0, -100(%rbp)	#, i
	jmp	.L103	#
.L106:
	.loc 1 542 0
	movl	$0, -92(%rbp)	#, k
	jmp	.L104	#
.L105:
	.loc 1 543 0 discriminator 2
	movq	-64(%rbp), %rax	# currMB, tmp625
	movl	-92(%rbp), %edx	# k, tmp627
	movslq	%edx, %rdx	# tmp627, tmp626
	movl	-96(%rbp), %ecx	# j, tmp629
	movslq	%ecx, %rcx	# tmp629, tmp628
	movl	-88(%rbp), %esi	# l, tmp631
	movslq	%esi, %rsi	# tmp631, tmp630
	salq	$2, %rsi	#, tmp632
	addq	%rcx, %rsi	# tmp628, tmp633
	movl	-100(%rbp), %ecx	# i, tmp635
	movslq	%ecx, %rcx	# tmp635, tmp634
	salq	$2, %rsi	#, tmp636
	addq	%rsi, %rcx	# tmp636, tmp637
	addq	%rcx, %rcx	# tmp638
	addq	%rcx, %rdx	# tmp638, tmp639
	addq	$16, %rdx	#, tmp640
	movl	$0, 12(%rax,%rdx,4)	#, currMB_28->mvd
	.loc 1 542 0 discriminator 2
	addl	$1, -92(%rbp)	#, k
.L104:
	.loc 1 542 0 is_stmt 0 discriminator 1
	cmpl	$1, -92(%rbp)	#, k
	jle	.L105	#,
	.loc 1 541 0 is_stmt 1
	addl	$1, -100(%rbp)	#, i
.L103:
	.loc 1 541 0 is_stmt 0 discriminator 1
	cmpl	$3, -100(%rbp)	#, i
	jle	.L106	#,
	.loc 1 540 0 is_stmt 1
	addl	$1, -96(%rbp)	#, j
.L102:
	.loc 1 540 0 is_stmt 0 discriminator 1
	cmpl	$3, -96(%rbp)	#, j
	jle	.L107	#,
	.loc 1 539 0 is_stmt 1
	addl	$1, -88(%rbp)	#, l
.L101:
	.loc 1 539 0 is_stmt 0 discriminator 1
	cmpl	$1, -88(%rbp)	#, l
	jle	.L108	#,
	.loc 1 545 0 is_stmt 1
	movq	-64(%rbp), %rax	# currMB, tmp641
	movq	$0, 504(%rax)	#, currMB_28->cbp_bits
	.loc 1 546 0
	movq	-64(%rbp), %rax	# currMB, tmp642
	movl	$0, 524(%rax)	#, currMB_28->c_ipred_mode
	.loc 1 548 0
	movl	$0, -100(%rbp)	#, i
	jmp	.L109	#
.L110:
	.loc 1 549 0 discriminator 2
	movq	-64(%rbp), %rax	# currMB, tmp643
	movl	-100(%rbp), %edx	# i, tmp645
	movslq	%edx, %rdx	# tmp645, tmp644
	addq	$80, %rdx	#, tmp646
	movl	$2, 12(%rax,%rdx,4)	#, currMB_28->intra_pred_modes
	.loc 1 548 0 discriminator 2
	addl	$1, -100(%rbp)	#, i
.L109:
	.loc 1 548 0 is_stmt 0 discriminator 1
	cmpl	$15, -100(%rbp)	#, i
	jle	.L110	#,
	.loc 1 551 0 is_stmt 1
	movl	$0, -100(%rbp)	#, i
	jmp	.L111	#
.L112:
	.loc 1 552 0 discriminator 2
	movq	-64(%rbp), %rax	# currMB, tmp647
	movl	-100(%rbp), %edx	# i, tmp649
	movslq	%edx, %rdx	# tmp649, tmp648
	addq	$96, %rdx	#, tmp650
	movl	$2, 12(%rax,%rdx,4)	#, currMB_28->intra_pred_modes8x8
	.loc 1 551 0 discriminator 2
	addl	$1, -100(%rbp)	#, i
.L111:
	.loc 1 551 0 is_stmt 0 discriminator 1
	cmpl	$15, -100(%rbp)	#, i
	jle	.L112	#,
	.loc 1 556 0 is_stmt 1
	movq	input(%rip), %rax	# input, input.238
	movl	216(%rax), %eax	# input.238_426->UseConstrainedIntraPred, D.12156
	testl	%eax, %eax	# D.12156
	je	.L113	#,
	.loc 1 558 0
	movq	img(%rip), %rax	# img, img.239
	movq	71784(%rax), %rdx	# img.239_428->intra_block, D.12164
	movq	img(%rip), %rax	# img, img.240
	movl	12(%rax), %eax	# img.240_430->current_mb_nr, D.12156
	cltq
	salq	$2, %rax	#, D.12158
	addq	%rdx, %rax	# D.12164, D.12164
	movl	$1, (%rax)	#, *_434
.L113:
	.loc 1 563 0
	movq	img(%rip), %rax	# img, img.241
	movl	71984(%rax), %edx	# img.241_435->LFDisableIdc, D.12156
	movq	-64(%rbp), %rax	# currMB, tmp651
	movl	%edx, 512(%rax)	# D.12156, currMB_28->lf_disable
	.loc 1 564 0
	movq	img(%rip), %rax	# img, img.242
	movl	71988(%rax), %edx	# img.242_437->LFAlphaC0Offset, D.12156
	movq	-64(%rbp), %rax	# currMB, tmp652
	movl	%edx, 516(%rax)	# D.12156, currMB_28->lf_alpha_c0_offset
	.loc 1 565 0
	movq	img(%rip), %rax	# img, img.243
	movl	71992(%rax), %edx	# img.243_439->LFBetaOffset, D.12156
	movq	-64(%rbp), %rax	# currMB, tmp653
	movl	%edx, 520(%rax)	# D.12156, currMB_28->lf_beta_offset
	.loc 1 569 0
	movq	img(%rip), %rax	# img, img.244
	movl	12(%rax), %eax	# img.244_441->current_mb_nr, D.12156
	testl	%eax, %eax	# D.12156
	jne	.L114	#,
	.loc 1 571 0
	movq	-64(%rbp), %rax	# currMB, tmp654
	movl	$0, 20(%rax)	#, currMB_28->bitcounter
	jmp	.L115	#
.L114:
	.loc 1 573 0
	movq	-64(%rbp), %rax	# currMB, tmp655
	movl	4(%rax), %edx	# currMB_28->slice_nr, D.12156
	movq	img(%rip), %rax	# img, img.245
	movq	14168(%rax), %rcx	# img.245_444->mb_data, D.12157
	movq	img(%rip), %rax	# img, img.246
	movl	12(%rax), %eax	# img.246_446->current_mb_nr, D.12156
	cltq
	imulq	$632, %rax, %rax	#, D.12158, D.12158
	subq	$632, %rax	#, D.12160
	addq	%rcx, %rax	# D.12157, D.12157
	movl	4(%rax), %eax	# _451->slice_nr, D.12156
	cmpl	%eax, %edx	# D.12156, D.12156
	jne	.L115	#,
	.loc 1 576 0
	movq	-64(%rbp), %rax	# currMB, tmp656
	movl	$0, 20(%rax)	#, currMB_28->bitcounter
.L115:
	.loc 1 579 0
	movq	-64(%rbp), %rax	# currMB, tmp657
	movl	$0, 28(%rax)	#, currMB_28->bitcounter
	.loc 1 580 0
	movq	-64(%rbp), %rax	# currMB, tmp658
	movl	$0, 40(%rax)	#, currMB_28->bitcounter
	.loc 1 581 0
	movq	-64(%rbp), %rax	# currMB, tmp659
	movl	$0, 32(%rax)	#, currMB_28->bitcounter
	.loc 1 582 0
	movq	-64(%rbp), %rax	# currMB, tmp660
	movl	$0, 36(%rax)	#, currMB_28->bitcounter
	.loc 1 583 0
	movq	-64(%rbp), %rax	# currMB, tmp661
	movl	$0, 48(%rax)	#, currMB_28->bitcounter
	.loc 1 584 0
	movq	-64(%rbp), %rax	# currMB, tmp662
	movl	$0, 44(%rax)	#, currMB_28->bitcounter
	.loc 1 587 0
	movq	input(%rip), %rax	# input, input.247
	movl	3292(%rax), %eax	# input.247_453->FMEnable, D.12156
	testl	%eax, %eax	# D.12156
	jne	.L36	#,
	.loc 1 588 0
	movl	$0, %eax	#,
	call	ResetFastFullIntegerSearch	#
.L36:
	.loc 1 590 0
	addq	$120, %rsp	#,
	popq	%rbx	#
	popq	%rbp	#
	.cfi_def_cfa 7, 8
	ret
	.cfi_endproc
.LFE6:
	.size	start_macroblock, .-start_macroblock
	.section	.rodata
.LC2:
	.string	"Slice Mode %d not supported"
	.text
	.globl	terminate_macroblock
	.type	terminate_macroblock, @function
terminate_macroblock:
.LFB7:
	.loc 1 600 0
	.cfi_startproc
	pushq	%rbp	#
	.cfi_def_cfa_offset 16
	.cfi_offset 6, -16
	movq	%rsp, %rbp	#,
	.cfi_def_cfa_register 6
	pushq	%r12	#
	pushq	%rbx	#
	subq	$96, %rsp	#,
	.cfi_offset 12, -24
	.cfi_offset 3, -32
	movq	%rdi, -104(%rbp)	# end_of_slice, end_of_slice
	movq	%rsi, -112(%rbp)	# recode_macroblock, recode_macroblock
	.loc 1 602 0
	movq	img(%rip), %rax	# img, img.248
	movq	14160(%rax), %rax	# img.248_5->currentSlice, tmp247
	movq	%rax, -72(%rbp)	# tmp247, currSlice
	.loc 1 603 0
	movq	img(%rip), %rax	# img, img.249
	movq	14168(%rax), %rdx	# img.249_7->mb_data, D.12173
	movq	img(%rip), %rax	# img, img.250
	movl	12(%rax), %eax	# img.250_9->current_mb_nr, D.12174
	cltq
	imulq	$632, %rax, %rax	#, D.12175, D.12175
	addq	%rdx, %rax	# D.12173, tmp248
	movq	%rax, -64(%rbp)	# tmp248, currMB
	.loc 1 604 0
	movq	img(%rip), %rcx	# img, img.251
	movq	-64(%rbp), %rax	# currMB, tmp249
	movl	(%rax), %eax	# currMB_13->currSEnr, D.12174
	movslq	%eax, %rdx	# D.12174, tmp250
	movq	%rdx, %rax	# tmp250, tmp251
	addq	%rax, %rax	# tmp251
	addq	%rdx, %rax	# tmp250, tmp251
	salq	$4, %rax	#, tmp252
	addq	$14176, %rax	#, tmp253
	addq	%rcx, %rax	# img.251, tmp254
	movq	%rax, -56(%rbp)	# tmp254, currSE
	.loc 1 605 0
	movq	input(%rip), %rax	# input, input.252
	movl	2364(%rax), %eax	# input.252_17->partition_mode, D.12174
	cltq
	movq	assignSE2partition(,%rax,8), %rax	# assignSE2partition, tmp256
	movq	%rax, -48(%rbp)	# tmp256, partMap
	.loc 1 608 0
	movl	$0, -84(%rbp)	#, rlc_bits
	.loc 1 610 0
	movq	input(%rip), %rax	# input, input.254
	movl	208(%rax), %eax	# input.254_21->slice_mode, D.12174
	cmpl	$2, %eax	#, D.12174
	je	.L118	#,
	.loc 1 610 0 is_stmt 0 discriminator 2
	movq	input(%rip), %rax	# input, input.255
	movl	208(%rax), %eax	# input.255_23->slice_mode, D.12174
	cmpl	$3, %eax	#, D.12174
	jne	.L119	#,
.L118:
	.loc 1 610 0 discriminator 1
	movl	$1, %eax	#, iftmp.253
	jmp	.L120	#
.L119:
	.loc 1 610 0 discriminator 3
	movl	$0, %eax	#, iftmp.253
.L120:
	.loc 1 610 0 discriminator 4
	movl	%eax, -76(%rbp)	# iftmp.253, use_bitstream_backing
	.loc 1 617 0 is_stmt 1 discriminator 4
	movl	$0, -80(%rbp)	#, new_slice
	.loc 1 618 0 discriminator 4
	movq	img(%rip), %rax	# img, img.256
	movl	12(%rax), %eax	# img.256_29->current_mb_nr, D.12174
	testl	%eax, %eax	# D.12174
	je	.L121	#,
	.loc 1 618 0 is_stmt 0 discriminator 1
	movq	img(%rip), %rax	# img, img.257
	movl	12(%rax), %eax	# img.257_31->current_mb_nr, D.12174
	movl	%eax, %edi	# D.12174,
	call	FmoGetPreviousMBNr	#
	testl	%eax, %eax	# D.12174
	jns	.L122	#,
.L121:
	.loc 1 619 0 is_stmt 1
	movl	$1, -80(%rbp)	#, new_slice
	jmp	.L123	#
.L122:
	.loc 1 620 0
	movq	img(%rip), %rax	# img, img.258
	movq	14168(%rax), %rbx	# img.258_34->mb_data, D.12173
	movq	img(%rip), %rax	# img, img.259
	movl	12(%rax), %eax	# img.259_36->current_mb_nr, D.12174
	movl	%eax, %edi	# D.12174,
	call	FmoGetPreviousMBNr	#
	cltq
	imulq	$632, %rax, %rax	#, D.12175, D.12175
	addq	%rbx, %rax	# D.12173, D.12173
	movl	4(%rax), %edx	# _41->slice_nr, D.12174
	movq	img(%rip), %rax	# img, img.260
	movl	20(%rax), %eax	# img.260_43->current_slice_nr, D.12174
	cmpl	%eax, %edx	# D.12174, D.12174
	je	.L123	#,
	.loc 1 621 0
	movl	$1, -80(%rbp)	#, new_slice
.L123:
	.loc 1 624 0
	movq	-112(%rbp), %rax	# recode_macroblock, tmp257
	movl	$0, (%rax)	#, *recode_macroblock_47(D)
	.loc 1 626 0
	movq	input(%rip), %rax	# input, input.261
	movl	208(%rax), %eax	# input.261_48->slice_mode, D.12174
	cmpl	$1, %eax	#, D.12174
	je	.L125	#,
	cmpl	$1, %eax	#, D.12174
	jg	.L126	#,
	testl	%eax, %eax	# D.12174
	je	.L127	#,
	jmp	.L124	#
.L126:
	cmpl	$2, %eax	#, D.12174
	je	.L128	#,
	cmpl	$3, %eax	#, D.12174
	je	.L129	#,
	jmp	.L124	#
.L127:
	.loc 1 629 0
	movq	-72(%rbp), %rax	# currSlice, tmp258
	movl	20(%rax), %eax	# currSlice_6->num_mb, D.12174
	leal	1(%rax), %edx	#, D.12174
	movq	-72(%rbp), %rax	# currSlice, tmp259
	movl	%edx, 20(%rax)	# D.12174, currSlice_6->num_mb
	.loc 1 630 0
	movq	-112(%rbp), %rax	# recode_macroblock, tmp260
	movl	$0, (%rax)	#, *recode_macroblock_47(D)
	.loc 1 631 0
	movq	-72(%rbp), %rax	# currSlice, tmp261
	movl	20(%rax), %edx	# currSlice_6->num_mb, D.12174
	movq	img(%rip), %rax	# img, img.262
	movl	16(%rax), %eax	# img.262_53->total_number_mb, D.12174
	cmpl	%eax, %edx	# D.12174, D.12174
	jne	.L130	#,
	.loc 1 632 0
	movq	-104(%rbp), %rax	# end_of_slice, tmp262
	movl	$1, (%rax)	#, *end_of_slice_55(D)
.L130:
	.loc 1 635 0
	movq	-104(%rbp), %rax	# end_of_slice, tmp263
	movl	(%rax), %ebx	# *end_of_slice_55(D), D.12176
	movq	img(%rip), %rax	# img, img.263
	movl	12(%rax), %r12d	# img.263_57->current_mb_nr, D.12174
	movq	img(%rip), %rax	# img, img.264
	movl	12(%rax), %eax	# img.264_59->current_mb_nr, D.12174
	movl	%eax, %edi	# D.12174,
	call	FmoMB2SliceGroup	#
	movl	%eax, %edi	# D.12174,
	call	FmoGetLastCodedMBOfSliceGroup	#
	cmpl	%eax, %r12d	# D.12174, D.12174
	sete	%al	#, D.12177
	movzbl	%al, %eax	# D.12177, D.12178
	orl	%eax, %ebx	# D.12178, D.12178
	movl	%ebx, %edx	# D.12178, D.12178
	movq	-104(%rbp), %rax	# end_of_slice, tmp264
	movl	%edx, (%rax)	# D.12178, *end_of_slice_55(D)
	.loc 1 637 0
	jmp	.L131	#
.L125:
	.loc 1 640 0
	movq	-72(%rbp), %rax	# currSlice, tmp265
	movl	20(%rax), %eax	# currSlice_6->num_mb, D.12174
	leal	1(%rax), %edx	#, D.12174
	movq	-72(%rbp), %rax	# currSlice, tmp266
	movl	%edx, 20(%rax)	# D.12174, currSlice_6->num_mb
	.loc 1 641 0
	movq	-112(%rbp), %rax	# recode_macroblock, tmp267
	movl	$0, (%rax)	#, *recode_macroblock_47(D)
	.loc 1 643 0
	movq	img(%rip), %rax	# img, img.265
	movl	12(%rax), %ebx	# img.265_68->current_mb_nr, D.12174
	movq	img(%rip), %rax	# img, img.266
	movl	12(%rax), %eax	# img.266_70->current_mb_nr, D.12174
	movl	%eax, %edi	# D.12174,
	call	FmoMB2SliceGroup	#
	movl	%eax, %edi	# D.12174,
	call	FmoGetLastCodedMBOfSliceGroup	#
	cmpl	%eax, %ebx	# D.12174, D.12174
	sete	%al	#, D.12177
	movzbl	%al, %edx	# D.12177, D.12176
	movq	-104(%rbp), %rax	# end_of_slice, tmp268
	movl	%edx, (%rax)	# D.12176, *end_of_slice_55(D)
	.loc 1 645 0
	movq	-104(%rbp), %rax	# end_of_slice, tmp269
	movl	(%rax), %edx	# *end_of_slice_55(D), D.12176
	movq	-72(%rbp), %rax	# currSlice, tmp270
	movl	20(%rax), %ecx	# currSlice_6->num_mb, D.12174
	movq	input(%rip), %rax	# input, input.267
	movl	212(%rax), %eax	# input.267_78->slice_argument, D.12174
	cmpl	%eax, %ecx	# D.12174, D.12174
	setge	%al	#, D.12177
	movzbl	%al, %eax	# D.12177, D.12178
	orl	%eax, %edx	# D.12178, D.12178
	movq	-104(%rbp), %rax	# end_of_slice, tmp271
	movl	%edx, (%rax)	# D.12178, *end_of_slice_55(D)
	.loc 1 647 0
	jmp	.L131	#
.L128:
	.loc 1 655 0
	movq	img(%rip), %rax	# img, img.268
	movl	120(%rax), %eax	# img.268_83->cod_counter, D.12174
	testl	%eax, %eax	# D.12174
	je	.L132	#,
	.loc 1 658 0
	movq	img(%rip), %rax	# img, img.269
	movl	120(%rax), %edx	# img.269_85->cod_counter, D.12174
	movq	-56(%rbp), %rax	# currSE, tmp272
	movl	%edx, 4(%rax)	# D.12174, currSE_16->value1
	.loc 1 659 0
	movq	-56(%rbp), %rax	# currSE, tmp273
	movl	$0, 8(%rax)	#, currSE_16->value2
	.loc 1 660 0
	movq	-56(%rbp), %rax	# currSE, tmp274
	movq	$ue_linfo, 32(%rax)	#, currSE_16->mapping
	.loc 1 661 0
	movq	-56(%rbp), %rax	# currSE, tmp275
	movl	$2, (%rax)	#, currSE_16->type
	.loc 1 662 0
	movq	-72(%rbp), %rax	# currSlice, tmp276
	movq	24(%rax), %rdx	# currSlice_6->partArr, D.12179
	movq	-56(%rbp), %rax	# currSE, tmp277
	movl	(%rax), %eax	# currSE_16->type, D.12174
	cltq
	leaq	0(,%rax,4), %rcx	#, D.12175
	movq	-48(%rbp), %rax	# partMap, tmp278
	addq	%rcx, %rax	# D.12175, D.12180
	movl	(%rax), %eax	# *_91, D.12174
	cltq
	salq	$3, %rax	#, tmp280
	movq	%rax, %rcx	# tmp279, tmp281
	salq	$4, %rcx	#, tmp281
	subq	%rax, %rcx	# tmp279, D.12175
	movq	%rcx, %rax	# D.12175, D.12175
	addq	%rdx, %rax	# D.12179, tmp282
	movq	%rax, -40(%rbp)	# tmp282, dataPart
	.loc 1 664 0
	movq	-40(%rbp), %rax	# dataPart, tmp283
	movq	112(%rax), %rax	# dataPart_95->writeSyntaxElement, D.12181
	movq	-40(%rbp), %rcx	# dataPart, tmp284
	movq	-56(%rbp), %rdx	# currSE, tmp285
	movq	%rcx, %rsi	# tmp284,
	movq	%rdx, %rdi	# tmp285,
	call	*%rax	# D.12181
	.loc 1 665 0
	movq	-56(%rbp), %rax	# currSE, tmp286
	movl	12(%rax), %eax	# currSE_16->len, tmp287
	movl	%eax, -84(%rbp)	# tmp287, rlc_bits
	.loc 1 667 0
	movq	-40(%rbp), %rax	# dataPart, tmp288
	movq	(%rax), %rax	# dataPart_95->bitstream, tmp289
	movq	%rax, -32(%rbp)	# tmp289, currStream
	.loc 1 669 0
	movq	-32(%rbp), %rax	# currStream, tmp290
	movl	4(%rax), %edx	# currStream_98->bits_to_go, D.12174
	movq	-32(%rbp), %rax	# currStream, tmp291
	movl	%edx, 28(%rax)	# D.12174, currStream_98->bits_to_go_skip
	.loc 1 670 0
	movq	-32(%rbp), %rax	# currStream, tmp292
	movl	(%rax), %edx	# currStream_98->byte_pos, D.12174
	movq	-32(%rbp), %rax	# currStream, tmp293
	movl	%edx, 24(%rax)	# D.12174, currStream_98->byte_pos_skip
	.loc 1 671 0
	movq	-32(%rbp), %rax	# currStream, tmp294
	movzbl	8(%rax), %edx	# currStream_98->byte_buf, D.12182
	movq	-32(%rbp), %rax	# currStream, tmp295
	movb	%dl, 21(%rax)	# D.12182, currStream_98->byte_buf_skip
	.loc 1 673 0
	movq	-32(%rbp), %rax	# currStream, tmp296
	movl	16(%rax), %edx	# currStream_98->stored_bits_to_go, D.12174
	movq	-32(%rbp), %rax	# currStream, tmp297
	movl	%edx, 4(%rax)	# D.12174, currStream_98->bits_to_go
	.loc 1 674 0
	movq	-32(%rbp), %rax	# currStream, tmp298
	movl	12(%rax), %edx	# currStream_98->stored_byte_pos, D.12174
	movq	-32(%rbp), %rax	# currStream, tmp299
	movl	%edx, (%rax)	# D.12174, currStream_98->byte_pos
	.loc 1 675 0
	movq	-32(%rbp), %rax	# currStream, tmp300
	movzbl	20(%rax), %edx	# currStream_98->stored_byte_buf, D.12182
	movq	-32(%rbp), %rax	# currStream, tmp301
	movb	%dl, 8(%rax)	# D.12182, currStream_98->byte_buf
	.loc 1 676 0
	movl	$1, skip.4770(%rip)	#, skip
.L132:
	.loc 1 680 0
	cmpl	$0, -80(%rbp)	#, new_slice
	jne	.L133	#,
	.loc 1 682 0
	movl	-84(%rbp), %eax	# rlc_bits, tmp302
	movl	%eax, %edi	# tmp302,
	call	slice_too_big	#
	testl	%eax, %eax	# D.12174
	je	.L134	#,
	.loc 1 684 0
	movq	-112(%rbp), %rax	# recode_macroblock, tmp303
	movl	$1, (%rax)	#, *recode_macroblock_47(D)
	.loc 1 685 0
	movq	-104(%rbp), %rax	# end_of_slice, tmp304
	movl	$1, (%rax)	#, *end_of_slice_55(D)
	jmp	.L133	#
.L134:
	.loc 1 687 0
	movq	img(%rip), %rax	# img, img.270
	movl	120(%rax), %eax	# img.270_106->cod_counter, D.12174
	testl	%eax, %eax	# D.12174
	jne	.L133	#,
	.loc 1 688 0
	movl	$0, skip.4770(%rip)	#, skip
.L133:
	.loc 1 693 0
	movq	-112(%rbp), %rax	# recode_macroblock, tmp305
	movl	(%rax), %eax	# *recode_macroblock_47(D), D.12176
	testl	%eax, %eax	# D.12176
	jne	.L135	#,
	.loc 1 693 0 is_stmt 0 discriminator 1
	movq	img(%rip), %rax	# img, img.271
	movl	12(%rax), %ebx	# img.271_109->current_mb_nr, D.12174
	movq	img(%rip), %rax	# img, img.272
	movl	12(%rax), %eax	# img.272_111->current_mb_nr, D.12174
	movl	%eax, %edi	# D.12174,
	call	FmoMB2SliceGroup	#
	movl	%eax, %edi	# D.12174,
	call	FmoGetLastCodedMBOfSliceGroup	#
	cmpl	%eax, %ebx	# D.12174, D.12174
	jne	.L135	#,
	.loc 1 695 0 is_stmt 1
	movq	-104(%rbp), %rax	# end_of_slice, tmp306
	movl	$1, (%rax)	#, *end_of_slice_55(D)
	.loc 1 696 0
	movq	img(%rip), %rax	# img, img.273
	movl	120(%rax), %eax	# img.273_115->cod_counter, D.12174
	testl	%eax, %eax	# D.12174
	jne	.L135	#,
	.loc 1 697 0
	movl	$0, skip.4770(%rip)	#, skip
.L135:
	.loc 1 701 0
	cmpl	$0, -80(%rbp)	#, new_slice
	je	.L136	#,
	.loc 1 701 0 is_stmt 0 discriminator 1
	movl	-84(%rbp), %eax	# rlc_bits, tmp307
	movl	%eax, %edi	# tmp307,
	call	slice_too_big	#
	testl	%eax, %eax	# D.12174
	je	.L136	#,
	.loc 1 703 0 is_stmt 1
	movq	-104(%rbp), %rax	# end_of_slice, tmp308
	movl	$1, (%rax)	#, *end_of_slice_55(D)
	.loc 1 704 0
	movq	img(%rip), %rax	# img, img.274
	movl	120(%rax), %eax	# img.274_118->cod_counter, D.12174
	testl	%eax, %eax	# D.12174
	jne	.L136	#,
	.loc 1 705 0
	movl	$0, skip.4770(%rip)	#, skip
.L136:
	.loc 1 707 0
	movq	-112(%rbp), %rax	# recode_macroblock, tmp309
	movl	(%rax), %eax	# *recode_macroblock_47(D), D.12176
	testl	%eax, %eax	# D.12176
	jne	.L137	#,
	.loc 1 708 0
	movq	-72(%rbp), %rax	# currSlice, tmp310
	movl	20(%rax), %eax	# currSlice_6->num_mb, D.12174
	leal	1(%rax), %edx	#, D.12174
	movq	-72(%rbp), %rax	# currSlice, tmp311
	movl	%edx, 20(%rax)	# D.12174, currSlice_6->num_mb
	.loc 1 709 0
	jmp	.L131	#
.L137:
	jmp	.L131	#
.L129:
	.loc 1 712 0
	movq	img(%rip), %rax	# img, img.275
	movl	12(%rax), %eax	# img.275_123->current_mb_nr, D.12174
	testl	%eax, %eax	# D.12174
	jle	.L138	#,
	.loc 1 712 0 is_stmt 0 discriminator 1
	cmpl	$0, -80(%rbp)	#, new_slice
	jne	.L138	#,
	.loc 1 714 0 is_stmt 1
	movq	-72(%rbp), %rax	# currSlice, tmp312
	movq	120(%rax), %rax	# currSlice_6->slice_too_big, D.12183
	movl	-84(%rbp), %edx	# rlc_bits, tmp313
	movl	%edx, %edi	# tmp313,
	call	*%rax	# D.12183
	testl	%eax, %eax	# D.12176
	je	.L138	#,
	.loc 1 716 0
	movq	-112(%rbp), %rax	# recode_macroblock, tmp314
	movl	$1, (%rax)	#, *recode_macroblock_47(D)
	.loc 1 717 0
	movq	-104(%rbp), %rax	# end_of_slice, tmp315
	movl	$1, (%rax)	#, *end_of_slice_55(D)
.L138:
	.loc 1 721 0
	movq	-112(%rbp), %rax	# recode_macroblock, tmp316
	movl	(%rax), %eax	# *recode_macroblock_47(D), D.12176
	testl	%eax, %eax	# D.12176
	jne	.L139	#,
	.loc 1 721 0 is_stmt 0 discriminator 1
	movq	img(%rip), %rax	# img, img.276
	movl	12(%rax), %ebx	# img.276_128->current_mb_nr, D.12174
	movq	img(%rip), %rax	# img, img.277
	movl	12(%rax), %eax	# img.277_130->current_mb_nr, D.12174
	movl	%eax, %edi	# D.12174,
	call	FmoMB2SliceGroup	#
	movl	%eax, %edi	# D.12174,
	call	FmoGetLastCodedMBOfSliceGroup	#
	cmpl	%eax, %ebx	# D.12174, D.12174
	jne	.L139	#,
	.loc 1 722 0 is_stmt 1
	movq	-104(%rbp), %rax	# end_of_slice, tmp317
	movl	$1, (%rax)	#, *end_of_slice_55(D)
	.loc 1 723 0
	jmp	.L131	#
.L139:
	jmp	.L131	#
.L124:
	.loc 1 726 0
	movq	input(%rip), %rax	# input, input.278
	movl	208(%rax), %eax	# input.278_134->slice_mode, D.12174
	movl	%eax, %ecx	# D.12174,
	movl	$.LC2, %edx	#,
	movl	$300, %esi	#,
	movl	$errortext, %edi	#,
	movl	$0, %eax	#,
	call	snprintf	#
	.loc 1 727 0
	movl	$600, %esi	#,
	movl	$errortext, %edi	#,
	call	error	#
.L131:
	.loc 1 730 0
	movq	-112(%rbp), %rax	# recode_macroblock, tmp318
	movl	(%rax), %eax	# *recode_macroblock_47(D), D.12176
	cmpl	$1, %eax	#, D.12176
	jne	.L140	#,
	.loc 1 733 0
	movl	$0, -88(%rbp)	#, i
	jmp	.L141	#
.L143:
	.loc 1 735 0
	movq	-72(%rbp), %rax	# currSlice, tmp319
	movq	24(%rax), %rdx	# currSlice_6->partArr, D.12179
	movl	-88(%rbp), %eax	# i, tmp320
	cltq
	salq	$3, %rax	#, tmp322
	movq	%rax, %rcx	# tmp321, tmp323
	salq	$4, %rcx	#, tmp323
	subq	%rax, %rcx	# tmp321, D.12175
	movq	%rcx, %rax	# D.12175, D.12175
	addq	%rdx, %rax	# D.12179, tmp324
	movq	%rax, -40(%rbp)	# tmp324, dataPart
	.loc 1 736 0
	movq	-40(%rbp), %rax	# dataPart, tmp325
	movq	(%rax), %rax	# dataPart_142->bitstream, tmp326
	movq	%rax, -32(%rbp)	# tmp326, currStream
	.loc 1 737 0
	movq	-32(%rbp), %rax	# currStream, tmp327
	movl	16(%rax), %edx	# currStream_143->stored_bits_to_go, D.12174
	movq	-32(%rbp), %rax	# currStream, tmp328
	movl	%edx, 4(%rax)	# D.12174, currStream_143->bits_to_go
	.loc 1 738 0
	movq	-32(%rbp), %rax	# currStream, tmp329
	movl	12(%rax), %edx	# currStream_143->stored_byte_pos, D.12174
	movq	-32(%rbp), %rax	# currStream, tmp330
	movl	%edx, (%rax)	# D.12174, currStream_143->byte_pos
	.loc 1 739 0
	movq	-32(%rbp), %rax	# currStream, tmp331
	movzbl	20(%rax), %edx	# currStream_143->stored_byte_buf, D.12182
	movq	-32(%rbp), %rax	# currStream, tmp332
	movb	%dl, 8(%rax)	# D.12182, currStream_143->byte_buf
	.loc 1 740 0
	movq	input(%rip), %rax	# input, input.279
	movl	2356(%rax), %eax	# input.279_147->symbol_mode, D.12174
	cmpl	$1, %eax	#, D.12174
	jne	.L142	#,
	.loc 1 742 0
	movq	-40(%rbp), %rax	# dataPart, tmp336
	addq	$8, %rax	#, tmp335
	movq	%rax, -24(%rbp)	# tmp335, eep
	.loc 1 743 0
	movq	-24(%rbp), %rax	# eep, tmp337
	movl	40(%rax), %edx	# eep_149->ElowS, D.12178
	movq	-24(%rbp), %rax	# eep, tmp338
	movl	%edx, (%rax)	# D.12178, eep_149->Elow
	.loc 1 744 0
	movq	-24(%rbp), %rax	# eep, tmp339
	movl	44(%rax), %edx	# eep_149->ErangeS, D.12178
	movq	-24(%rbp), %rax	# eep, tmp340
	movl	%edx, 4(%rax)	# D.12178, eep_149->Erange
	.loc 1 745 0
	movq	-24(%rbp), %rax	# eep, tmp341
	movl	48(%rax), %edx	# eep_149->EbufferS, D.12178
	movq	-24(%rbp), %rax	# eep, tmp342
	movl	%edx, 8(%rax)	# D.12178, eep_149->Ebuffer
	.loc 1 746 0
	movq	-24(%rbp), %rax	# eep, tmp343
	movl	52(%rax), %edx	# eep_149->Ebits_to_goS, D.12178
	movq	-24(%rbp), %rax	# eep, tmp344
	movl	%edx, 12(%rax)	# D.12178, eep_149->Ebits_to_go
	.loc 1 747 0
	movq	-24(%rbp), %rax	# eep, tmp345
	movl	56(%rax), %edx	# eep_149->Ebits_to_followS, D.12178
	movq	-24(%rbp), %rax	# eep, tmp346
	movl	%edx, 16(%rax)	# D.12178, eep_149->Ebits_to_follow
	.loc 1 748 0
	movq	-24(%rbp), %rax	# eep, tmp347
	movq	64(%rax), %rdx	# eep_149->EcodestrmS, D.12184
	movq	-24(%rbp), %rax	# eep, tmp348
	movq	%rdx, 24(%rax)	# D.12184, eep_149->Ecodestrm
	.loc 1 749 0
	movq	-24(%rbp), %rax	# eep, tmp349
	movq	72(%rax), %rdx	# eep_149->Ecodestrm_lenS, D.12180
	movq	-24(%rbp), %rax	# eep, tmp350
	movq	%rdx, 32(%rax)	# D.12180, eep_149->Ecodestrm_len
	.loc 1 750 0
	movq	-24(%rbp), %rax	# eep, tmp351
	movl	84(%rax), %edx	# eep_149->CS, D.12174
	movq	-24(%rbp), %rax	# eep, tmp352
	movl	%edx, 80(%rax)	# D.12174, eep_149->C
	.loc 1 751 0
	movq	-24(%rbp), %rax	# eep, tmp353
	movl	100(%rax), %edx	# eep_149->BS, D.12174
	movq	-24(%rbp), %rax	# eep, tmp354
	movl	%edx, 96(%rax)	# D.12174, eep_149->B
	.loc 1 752 0
	movq	-24(%rbp), %rax	# eep, tmp355
	movl	92(%rax), %edx	# eep_149->ES, D.12174
	movq	-24(%rbp), %rax	# eep, tmp356
	movl	%edx, 88(%rax)	# D.12174, eep_149->E
.L142:
	.loc 1 733 0
	addl	$1, -88(%rbp)	#, i
.L141:
	.loc 1 733 0 is_stmt 0 discriminator 1
	movq	-72(%rbp), %rax	# currSlice, tmp357
	movl	16(%rax), %eax	# currSlice_6->max_part_nr, D.12174
	cmpl	-88(%rbp), %eax	# i, D.12174
	jg	.L143	#,
.L140:
	.loc 1 757 0 is_stmt 1
	movq	-104(%rbp), %rax	# end_of_slice, tmp358
	movl	(%rax), %eax	# *end_of_slice_55(D), D.12176
	cmpl	$1, %eax	#, D.12176
	jne	.L144	#,
	.loc 1 757 0 is_stmt 0 discriminator 1
	movl	skip.4770(%rip), %eax	# skip, skip.280
	cmpl	$1, %eax	#, skip.280
	jne	.L144	#,
	.loc 1 761 0 is_stmt 1
	movq	img(%rip), %rax	# img, img.281
	movl	120(%rax), %eax	# img.281_163->cod_counter, D.12174
	testl	%eax, %eax	# D.12174
	je	.L145	#,
	.loc 1 761 0 is_stmt 0 discriminator 1
	movq	-112(%rbp), %rax	# recode_macroblock, tmp359
	movl	(%rax), %eax	# *recode_macroblock_47(D), D.12176
	cmpl	$1, %eax	#, D.12176
	jne	.L145	#,
	.loc 1 765 0 is_stmt 1
	movq	img(%rip), %rax	# img, img.282
	movl	120(%rax), %edx	# img.282_166->cod_counter, D.12174
	subl	$1, %edx	#, D.12174
	movl	%edx, 120(%rax)	# D.12174, img.282_166->cod_counter
	.loc 1 766 0
	movq	img(%rip), %rax	# img, img.283
	movl	120(%rax), %eax	# img.283_169->cod_counter, D.12174
	testl	%eax, %eax	# D.12174
	je	.L146	#,
	.loc 1 768 0
	movq	img(%rip), %rax	# img, img.284
	movl	120(%rax), %edx	# img.284_171->cod_counter, D.12174
	movq	-56(%rbp), %rax	# currSE, tmp360
	movl	%edx, 4(%rax)	# D.12174, currSE_16->value1
	.loc 1 769 0
	movq	-56(%rbp), %rax	# currSE, tmp361
	movl	$0, 8(%rax)	#, currSE_16->value2
	.loc 1 770 0
	movq	-56(%rbp), %rax	# currSE, tmp362
	movq	$ue_linfo, 32(%rax)	#, currSE_16->mapping
	.loc 1 771 0
	movq	-56(%rbp), %rax	# currSE, tmp363
	movl	$2, (%rax)	#, currSE_16->type
	.loc 1 772 0
	movq	-72(%rbp), %rax	# currSlice, tmp364
	movq	24(%rax), %rdx	# currSlice_6->partArr, D.12179
	movq	-56(%rbp), %rax	# currSE, tmp365
	movl	(%rax), %eax	# currSE_16->type, D.12174
	cltq
	leaq	0(,%rax,4), %rcx	#, D.12175
	movq	-48(%rbp), %rax	# partMap, tmp366
	addq	%rcx, %rax	# D.12175, D.12180
	movl	(%rax), %eax	# *_177, D.12174
	cltq
	salq	$3, %rax	#, tmp368
	movq	%rax, %rcx	# tmp367, tmp369
	salq	$4, %rcx	#, tmp369
	subq	%rax, %rcx	# tmp367, D.12175
	movq	%rcx, %rax	# D.12175, D.12175
	addq	%rdx, %rax	# D.12179, tmp370
	movq	%rax, -40(%rbp)	# tmp370, dataPart
	.loc 1 773 0
	movq	-40(%rbp), %rax	# dataPart, tmp371
	movq	112(%rax), %rax	# dataPart_181->writeSyntaxElement, D.12181
	movq	-40(%rbp), %rcx	# dataPart, tmp372
	movq	-56(%rbp), %rdx	# currSE, tmp373
	movq	%rcx, %rsi	# tmp372,
	movq	%rdx, %rdi	# tmp373,
	call	*%rax	# D.12181
	.loc 1 774 0
	movq	-56(%rbp), %rax	# currSE, tmp374
	movl	12(%rax), %eax	# currSE_16->len, tmp375
	movl	%eax, -84(%rbp)	# tmp375, rlc_bits
	.loc 1 775 0
	movq	-64(%rbp), %rax	# currMB, tmp376
	movl	28(%rax), %edx	# currMB_13->bitcounter, D.12174
	movl	-84(%rbp), %eax	# rlc_bits, tmp377
	addl	%eax, %edx	# tmp377, D.12174
	movq	-64(%rbp), %rax	# currMB, tmp378
	movl	%edx, 28(%rax)	# D.12174, currMB_13->bitcounter
	.loc 1 776 0
	movq	img(%rip), %rax	# img, img.285
	movl	$0, 120(%rax)	#, img.285_186->cod_counter
	.loc 1 766 0
	jmp	.L144	#
.L146:
	.loc 1 766 0 is_stmt 0 discriminator 1
	jmp	.L144	#
.L145:
	.loc 1 781 0 is_stmt 1
	movq	-72(%rbp), %rax	# currSlice, tmp379
	movq	24(%rax), %rdx	# currSlice_6->partArr, D.12179
	movq	-48(%rbp), %rax	# partMap, tmp380
	addq	$8, %rax	#, D.12180
	movl	(%rax), %eax	# *_188, D.12174
	cltq
	salq	$3, %rax	#, tmp382
	movq	%rax, %rcx	# tmp381, tmp383
	salq	$4, %rcx	#, tmp383
	subq	%rax, %rcx	# tmp381, D.12175
	movq	%rcx, %rax	# D.12175, D.12175
	addq	%rdx, %rax	# D.12179, tmp384
	movq	%rax, -40(%rbp)	# tmp384, dataPart
	.loc 1 782 0
	movq	-40(%rbp), %rax	# dataPart, tmp385
	movq	(%rax), %rax	# dataPart_192->bitstream, tmp386
	movq	%rax, -32(%rbp)	# tmp386, currStream
	.loc 1 784 0
	movq	-32(%rbp), %rax	# currStream, tmp387
	movl	28(%rax), %edx	# currStream_193->bits_to_go_skip, D.12174
	movq	-32(%rbp), %rax	# currStream, tmp388
	movl	%edx, 4(%rax)	# D.12174, currStream_193->bits_to_go
	.loc 1 785 0
	movq	-32(%rbp), %rax	# currStream, tmp389
	movl	24(%rax), %edx	# currStream_193->byte_pos_skip, D.12174
	movq	-32(%rbp), %rax	# currStream, tmp390
	movl	%edx, (%rax)	# D.12174, currStream_193->byte_pos
	.loc 1 786 0
	movq	-32(%rbp), %rax	# currStream, tmp391
	movzbl	21(%rax), %edx	# currStream_193->byte_buf_skip, D.12182
	movq	-32(%rbp), %rax	# currStream, tmp392
	movb	%dl, 8(%rax)	# D.12182, currStream_193->byte_buf
	.loc 1 789 0
	movq	img(%rip), %rax	# img, img.286
	movl	$0, 120(%rax)	#, img.286_197->cod_counter
	.loc 1 790 0
	movl	$0, skip.4770(%rip)	#, skip
.L144:
	.loc 1 795 0
	movq	-104(%rbp), %rax	# end_of_slice, tmp393
	movl	(%rax), %eax	# *end_of_slice_55(D), D.12176
	cmpl	$1, %eax	#, D.12176
	jne	.L117	#,
	.loc 1 795 0 is_stmt 0 discriminator 1
	movq	img(%rip), %rax	# img, img.287
	movl	120(%rax), %eax	# img.287_199->cod_counter, D.12174
	testl	%eax, %eax	# D.12174
	je	.L117	#,
	cmpl	$0, -76(%rbp)	#, use_bitstream_backing
	jne	.L117	#,
	.loc 1 797 0 is_stmt 1
	movq	img(%rip), %rax	# img, img.288
	movl	120(%rax), %edx	# img.288_201->cod_counter, D.12174
	movq	-56(%rbp), %rax	# currSE, tmp394
	movl	%edx, 4(%rax)	# D.12174, currSE_16->value1
	.loc 1 798 0
	movq	-56(%rbp), %rax	# currSE, tmp395
	movl	$0, 8(%rax)	#, currSE_16->value2
	.loc 1 799 0
	movq	-56(%rbp), %rax	# currSE, tmp396
	movq	$ue_linfo, 32(%rax)	#, currSE_16->mapping
	.loc 1 800 0
	movq	-56(%rbp), %rax	# currSE, tmp397
	movl	$2, (%rax)	#, currSE_16->type
	.loc 1 801 0
	movq	-72(%rbp), %rax	# currSlice, tmp398
	movq	24(%rax), %rdx	# currSlice_6->partArr, D.12179
	movq	-56(%rbp), %rax	# currSE, tmp399
	movl	(%rax), %eax	# currSE_16->type, D.12174
	cltq
	leaq	0(,%rax,4), %rcx	#, D.12175
	movq	-48(%rbp), %rax	# partMap, tmp400
	addq	%rcx, %rax	# D.12175, D.12180
	movl	(%rax), %eax	# *_207, D.12174
	cltq
	salq	$3, %rax	#, tmp402
	movq	%rax, %rcx	# tmp401, tmp403
	salq	$4, %rcx	#, tmp403
	subq	%rax, %rcx	# tmp401, D.12175
	movq	%rcx, %rax	# D.12175, D.12175
	addq	%rdx, %rax	# D.12179, tmp404
	movq	%rax, -40(%rbp)	# tmp404, dataPart
	.loc 1 802 0
	movq	-40(%rbp), %rax	# dataPart, tmp405
	movq	112(%rax), %rax	# dataPart_211->writeSyntaxElement, D.12181
	movq	-40(%rbp), %rcx	# dataPart, tmp406
	movq	-56(%rbp), %rdx	# currSE, tmp407
	movq	%rcx, %rsi	# tmp406,
	movq	%rdx, %rdi	# tmp407,
	call	*%rax	# D.12181
	.loc 1 803 0
	movq	-64(%rbp), %rax	# currMB, tmp408
	movl	(%rax), %eax	# currMB_13->currSEnr, D.12174
	leal	1(%rax), %edx	#, D.12174
	movq	-64(%rbp), %rax	# currMB, tmp409
	movl	%edx, (%rax)	# D.12174, currMB_13->currSEnr
	.loc 1 808 0
	movq	-56(%rbp), %rax	# currSE, tmp410
	movl	12(%rax), %eax	# currSE_16->len, tmp411
	movl	%eax, -84(%rbp)	# tmp411, rlc_bits
	.loc 1 809 0
	movq	-64(%rbp), %rax	# currMB, tmp412
	movl	28(%rax), %edx	# currMB_13->bitcounter, D.12174
	movl	-84(%rbp), %eax	# rlc_bits, tmp413
	addl	%eax, %edx	# tmp413, D.12174
	movq	-64(%rbp), %rax	# currMB, tmp414
	movl	%edx, 28(%rax)	# D.12174, currMB_13->bitcounter
	.loc 1 810 0
	movq	img(%rip), %rax	# img, img.289
	movl	$0, 120(%rax)	#, img.289_218->cod_counter
.L117:
	.loc 1 812 0
	addq	$96, %rsp	#,
	popq	%rbx	#
	popq	%r12	#
	popq	%rbp	#
	.cfi_def_cfa 7, 8
	ret
	.cfi_endproc
.LFE7:
	.size	terminate_macroblock, .-terminate_macroblock
	.globl	slice_too_big
	.type	slice_too_big, @function
slice_too_big:
.LFB8:
	.loc 1 836 0
	.cfi_startproc
	pushq	%rbp	#
	.cfi_def_cfa_offset 16
	.cfi_offset 6, -16
	movq	%rsp, %rbp	#,
	.cfi_def_cfa_register 6
	subq	$64, %rsp	#,
	movl	%edi, -52(%rbp)	# rlc_bits, rlc_bits
	.loc 1 837 0
	movq	img(%rip), %rax	# img, img.290
	movq	14160(%rax), %rax	# img.290_6->currentSlice, tmp82
	movq	%rax, -32(%rbp)	# tmp82, currSlice
	.loc 1 845 0
	movq	input(%rip), %rax	# input, input.291
	movl	2356(%rax), %eax	# input.291_8->symbol_mode, D.12187
	testl	%eax, %eax	# D.12187
	jne	.L149	#,
	.loc 1 847 0
	movl	$0, -40(%rbp)	#, i
	jmp	.L150	#
.L155:
	.loc 1 849 0
	movq	-32(%rbp), %rax	# currSlice, tmp83
	movq	24(%rax), %rdx	# currSlice_7->partArr, D.12188
	movl	-40(%rbp), %eax	# i, tmp84
	cltq
	salq	$3, %rax	#, tmp86
	movq	%rax, %rcx	# tmp85, tmp87
	salq	$4, %rcx	#, tmp87
	subq	%rax, %rcx	# tmp85, D.12189
	movq	%rcx, %rax	# D.12189, D.12189
	addq	%rdx, %rax	# D.12188, tmp88
	movq	%rax, -24(%rbp)	# tmp88, dataPart
	.loc 1 850 0
	movq	-24(%rbp), %rax	# dataPart, tmp89
	movq	(%rax), %rax	# dataPart_15->bitstream, tmp90
	movq	%rax, -16(%rbp)	# tmp90, currStream
	.loc 1 851 0
	movq	-16(%rbp), %rax	# currStream, tmp91
	movl	(%rax), %eax	# currStream_16->byte_pos, tmp92
	movl	%eax, -36(%rbp)	# tmp92, size_in_bytes
	.loc 1 853 0
	movq	-16(%rbp), %rax	# currStream, tmp93
	movl	4(%rax), %eax	# currStream_16->bits_to_go, D.12187
	cmpl	$7, %eax	#, D.12187
	jg	.L151	#,
	.loc 1 854 0
	addl	$1, -36(%rbp)	#, size_in_bytes
.L151:
	.loc 1 855 0
	movq	-16(%rbp), %rax	# currStream, tmp94
	movl	4(%rax), %eax	# currStream_16->bits_to_go, D.12187
	cmpl	-52(%rbp), %eax	# rlc_bits, D.12187
	jge	.L152	#,
	.loc 1 856 0
	addl	$1, -36(%rbp)	#, size_in_bytes
.L152:
	.loc 1 857 0
	movq	input(%rip), %rax	# input, input.292
	movl	212(%rax), %eax	# input.292_23->slice_argument, D.12187
	cmpl	-36(%rbp), %eax	# size_in_bytes, D.12187
	jge	.L153	#,
	.loc 1 858 0
	movl	$1, %eax	#, D.12187
	jmp	.L154	#
.L153:
	.loc 1 847 0
	addl	$1, -40(%rbp)	#, i
.L150:
	.loc 1 847 0 is_stmt 0 discriminator 1
	movq	-32(%rbp), %rax	# currSlice, tmp95
	movl	16(%rax), %eax	# currSlice_7->max_part_nr, D.12187
	cmpl	-40(%rbp), %eax	# i, D.12187
	jg	.L155	#,
.L149:
	.loc 1 863 0 is_stmt 1
	movq	input(%rip), %rax	# input, input.293
	movl	2356(%rax), %eax	# input.293_27->symbol_mode, D.12187
	cmpl	$1, %eax	#, D.12187
	jne	.L156	#,
	.loc 1 865 0
	movl	$0, -40(%rbp)	#, i
	jmp	.L157	#
.L159:
	.loc 1 867 0
	movq	-32(%rbp), %rax	# currSlice, tmp96
	movq	24(%rax), %rdx	# currSlice_7->partArr, D.12188
	movl	-40(%rbp), %eax	# i, tmp97
	cltq
	salq	$3, %rax	#, tmp99
	movq	%rax, %rcx	# tmp98, tmp100
	salq	$4, %rcx	#, tmp100
	subq	%rax, %rcx	# tmp98, D.12189
	movq	%rcx, %rax	# D.12189, D.12189
	addq	%rdx, %rax	# D.12188, tmp101
	movq	%rax, -24(%rbp)	# tmp101, dataPart
	.loc 1 868 0
	movq	-24(%rbp), %rax	# dataPart, tmp105
	addq	$8, %rax	#, tmp104
	movq	%rax, -8(%rbp)	# tmp104, eep
	.loc 1 870 0
	movq	-8(%rbp), %rax	# eep, tmp106
	movq	%rax, %rdi	# tmp106,
	call	arienco_bits_written	#
	movq	input(%rip), %rdx	# input, input.294
	movl	212(%rdx), %edx	# input.294_37->slice_argument, D.12187
	sall	$3, %edx	#, D.12187
	cmpl	%edx, %eax	# D.12187, D.12187
	jle	.L158	#,
	.loc 1 871 0
	movl	$1, %eax	#, D.12187
	jmp	.L154	#
.L158:
	.loc 1 865 0
	addl	$1, -40(%rbp)	#, i
.L157:
	.loc 1 865 0 is_stmt 0 discriminator 1
	movq	-32(%rbp), %rax	# currSlice, tmp107
	movl	16(%rax), %eax	# currSlice_7->max_part_nr, D.12187
	cmpl	-40(%rbp), %eax	# i, D.12187
	jg	.L159	#,
.L156:
	.loc 1 874 0 is_stmt 1
	movl	$0, %eax	#, D.12187
.L154:
	.loc 1 875 0
	leave
	.cfi_def_cfa 7, 8
	ret
	.cfi_endproc
.LFE8:
	.size	slice_too_big, .-slice_too_big
	.globl	OneComponentLumaPrediction4x4
	.type	OneComponentLumaPrediction4x4, @function
OneComponentLumaPrediction4x4:
.LFB9:
	.loc 1 890 0
	.cfi_startproc
	pushq	%rbp	#
	.cfi_def_cfa_offset 16
	.cfi_offset 6, -16
	movq	%rsp, %rbp	#,
	.cfi_def_cfa_register 6
	pushq	%rbx	#
	subq	$120, %rsp	#,
	.cfi_offset 3, -24
	movq	%rdi, -88(%rbp)	# mpred, mpred
	movl	%esi, -92(%rbp)	# pic_pix_x, pic_pix_x
	movl	%edx, -96(%rbp)	# pic_pix_y, pic_pix_y
	movq	%rcx, -104(%rbp)	# mv, mv
	movl	%r8d, %eax	# ref, tmp126
	movq	%r9, -120(%rbp)	# list, list
	movw	%ax, -108(%rbp)	# tmp126, ref
	.loc 1 892 0
	movl	$4, -76(%rbp)	#, pix_add
	.loc 1 893 0
	movl	-96(%rbp), %eax	# pic_pix_y, tmp127
	leal	0(,%rax,4), %edx	#, D.12190
	movq	-104(%rbp), %rax	# mv, tmp128
	addq	$2, %rax	#, D.12191
	movzwl	(%rax), %eax	# *_5, D.12192
	cwtl
	addl	%edx, %eax	# D.12190, tmp129
	movl	%eax, -72(%rbp)	# tmp129, j0
	movl	-76(%rbp), %eax	# pix_add, tmp134
	movl	-72(%rbp), %edx	# j0, tmp135
	addl	%edx, %eax	# tmp135, tmp133
	movl	%eax, -68(%rbp)	# tmp133, j1
	movl	-76(%rbp), %eax	# pix_add, tmp140
	movl	-68(%rbp), %edx	# j1, tmp141
	addl	%edx, %eax	# tmp141, tmp139
	movl	%eax, -64(%rbp)	# tmp139, j2
	movl	-76(%rbp), %eax	# pix_add, tmp146
	movl	-64(%rbp), %edx	# j2, tmp147
	addl	%edx, %eax	# tmp147, tmp145
	movl	%eax, -60(%rbp)	# tmp145, j3
	.loc 1 894 0
	movl	-92(%rbp), %eax	# pic_pix_x, tmp148
	leal	0(,%rax,4), %edx	#, D.12190
	movq	-104(%rbp), %rax	# mv, tmp149
	movzwl	(%rax), %eax	# *mv_4(D), D.12192
	cwtl
	addl	%edx, %eax	# D.12190, tmp150
	movl	%eax, -56(%rbp)	# tmp150, i0
	movl	-76(%rbp), %eax	# pix_add, tmp155
	movl	-56(%rbp), %edx	# i0, tmp156
	addl	%edx, %eax	# tmp156, tmp154
	movl	%eax, -52(%rbp)	# tmp154, i1
	movl	-76(%rbp), %eax	# pix_add, tmp161
	movl	-52(%rbp), %edx	# i1, tmp162
	addl	%edx, %eax	# tmp162, tmp160
	movl	%eax, -48(%rbp)	# tmp160, i2
	movl	-76(%rbp), %eax	# pix_add, tmp167
	movl	-48(%rbp), %edx	# i2, tmp168
	addl	%edx, %eax	# tmp168, tmp166
	movl	%eax, -44(%rbp)	# tmp166, i3
	.loc 1 896 0
	movq	$UMVPelY_14, -32(%rbp)	#, get_pel
	.loc 1 898 0
	movswq	-108(%rbp), %rax	# ref, D.12193
	leaq	0(,%rax,8), %rdx	#, D.12193
	movq	-120(%rbp), %rax	# list, tmp169
	addq	%rdx, %rax	# D.12193, D.12194
	movq	(%rax), %rax	# *_25, D.12195
	movl	6392(%rax), %eax	# _26->size_x, tmp170
	movl	%eax, -40(%rbp)	# tmp170, img_width
	.loc 1 899 0
	movswq	-108(%rbp), %rax	# ref, D.12193
	leaq	0(,%rax,8), %rdx	#, D.12193
	movq	-120(%rbp), %rax	# list, tmp171
	addq	%rdx, %rax	# D.12193, D.12194
	movq	(%rax), %rax	# *_30, D.12195
	movl	6396(%rax), %eax	# _31->size_y, tmp172
	movl	%eax, -36(%rbp)	# tmp172, img_height
	.loc 1 901 0
	movswq	-108(%rbp), %rax	# ref, D.12193
	leaq	0(,%rax,8), %rdx	#, D.12193
	movq	-120(%rbp), %rax	# list, tmp173
	addq	%rdx, %rax	# D.12193, D.12194
	movq	(%rax), %rax	# *_35, D.12195
	movq	6448(%rax), %rax	# _36->imgY_ups, tmp174
	movq	%rax, -24(%rbp)	# tmp174, ref_pic
	.loc 1 903 0
	movq	-88(%rbp), %rbx	# mpred, mpred.295
	leaq	4(%rbx), %rax	#, tmp175
	movq	%rax, -88(%rbp)	# tmp175, mpred
	movl	-40(%rbp), %r8d	# img_width, tmp176
	movl	-36(%rbp), %ecx	# img_height, tmp177
	movl	-56(%rbp), %edx	# i0, tmp178
	movl	-72(%rbp), %esi	# j0, tmp179
	movq	-24(%rbp), %rdi	# ref_pic, tmp180
	movq	-32(%rbp), %rax	# get_pel, tmp181
	call	*%rax	# tmp181
	movzwl	%ax, %eax	# D.12196, D.12190
	movl	%eax, (%rbx)	# D.12190, *mpred.295_39
	.loc 1 904 0
	movq	-88(%rbp), %rbx	# mpred, mpred.296
	leaq	4(%rbx), %rax	#, tmp182
	movq	%rax, -88(%rbp)	# tmp182, mpred
	movl	-40(%rbp), %r8d	# img_width, tmp183
	movl	-36(%rbp), %ecx	# img_height, tmp184
	movl	-52(%rbp), %edx	# i1, tmp185
	movl	-72(%rbp), %esi	# j0, tmp186
	movq	-24(%rbp), %rdi	# ref_pic, tmp187
	movq	-32(%rbp), %rax	# get_pel, tmp188
	call	*%rax	# tmp188
	movzwl	%ax, %eax	# D.12196, D.12190
	movl	%eax, (%rbx)	# D.12190, *mpred.296_43
	.loc 1 905 0
	movq	-88(%rbp), %rbx	# mpred, mpred.297
	leaq	4(%rbx), %rax	#, tmp189
	movq	%rax, -88(%rbp)	# tmp189, mpred
	movl	-40(%rbp), %r8d	# img_width, tmp190
	movl	-36(%rbp), %ecx	# img_height, tmp191
	movl	-48(%rbp), %edx	# i2, tmp192
	movl	-72(%rbp), %esi	# j0, tmp193
	movq	-24(%rbp), %rdi	# ref_pic, tmp194
	movq	-32(%rbp), %rax	# get_pel, tmp195
	call	*%rax	# tmp195
	movzwl	%ax, %eax	# D.12196, D.12190
	movl	%eax, (%rbx)	# D.12190, *mpred.297_47
	.loc 1 906 0
	movq	-88(%rbp), %rbx	# mpred, mpred.298
	leaq	4(%rbx), %rax	#, tmp196
	movq	%rax, -88(%rbp)	# tmp196, mpred
	movl	-40(%rbp), %r8d	# img_width, tmp197
	movl	-36(%rbp), %ecx	# img_height, tmp198
	movl	-44(%rbp), %edx	# i3, tmp199
	movl	-72(%rbp), %esi	# j0, tmp200
	movq	-24(%rbp), %rdi	# ref_pic, tmp201
	movq	-32(%rbp), %rax	# get_pel, tmp202
	call	*%rax	# tmp202
	movzwl	%ax, %eax	# D.12196, D.12190
	movl	%eax, (%rbx)	# D.12190, *mpred.298_51
	.loc 1 907 0
	movq	-88(%rbp), %rbx	# mpred, mpred.299
	leaq	4(%rbx), %rax	#, tmp203
	movq	%rax, -88(%rbp)	# tmp203, mpred
	movl	-40(%rbp), %r8d	# img_width, tmp204
	movl	-36(%rbp), %ecx	# img_height, tmp205
	movl	-56(%rbp), %edx	# i0, tmp206
	movl	-68(%rbp), %esi	# j1, tmp207
	movq	-24(%rbp), %rdi	# ref_pic, tmp208
	movq	-32(%rbp), %rax	# get_pel, tmp209
	call	*%rax	# tmp209
	movzwl	%ax, %eax	# D.12196, D.12190
	movl	%eax, (%rbx)	# D.12190, *mpred.299_55
	.loc 1 908 0
	movq	-88(%rbp), %rbx	# mpred, mpred.300
	leaq	4(%rbx), %rax	#, tmp210
	movq	%rax, -88(%rbp)	# tmp210, mpred
	movl	-40(%rbp), %r8d	# img_width, tmp211
	movl	-36(%rbp), %ecx	# img_height, tmp212
	movl	-52(%rbp), %edx	# i1, tmp213
	movl	-68(%rbp), %esi	# j1, tmp214
	movq	-24(%rbp), %rdi	# ref_pic, tmp215
	movq	-32(%rbp), %rax	# get_pel, tmp216
	call	*%rax	# tmp216
	movzwl	%ax, %eax	# D.12196, D.12190
	movl	%eax, (%rbx)	# D.12190, *mpred.300_59
	.loc 1 909 0
	movq	-88(%rbp), %rbx	# mpred, mpred.301
	leaq	4(%rbx), %rax	#, tmp217
	movq	%rax, -88(%rbp)	# tmp217, mpred
	movl	-40(%rbp), %r8d	# img_width, tmp218
	movl	-36(%rbp), %ecx	# img_height, tmp219
	movl	-48(%rbp), %edx	# i2, tmp220
	movl	-68(%rbp), %esi	# j1, tmp221
	movq	-24(%rbp), %rdi	# ref_pic, tmp222
	movq	-32(%rbp), %rax	# get_pel, tmp223
	call	*%rax	# tmp223
	movzwl	%ax, %eax	# D.12196, D.12190
	movl	%eax, (%rbx)	# D.12190, *mpred.301_63
	.loc 1 910 0
	movq	-88(%rbp), %rbx	# mpred, mpred.302
	leaq	4(%rbx), %rax	#, tmp224
	movq	%rax, -88(%rbp)	# tmp224, mpred
	movl	-40(%rbp), %r8d	# img_width, tmp225
	movl	-36(%rbp), %ecx	# img_height, tmp226
	movl	-44(%rbp), %edx	# i3, tmp227
	movl	-68(%rbp), %esi	# j1, tmp228
	movq	-24(%rbp), %rdi	# ref_pic, tmp229
	movq	-32(%rbp), %rax	# get_pel, tmp230
	call	*%rax	# tmp230
	movzwl	%ax, %eax	# D.12196, D.12190
	movl	%eax, (%rbx)	# D.12190, *mpred.302_67
	.loc 1 911 0
	movq	-88(%rbp), %rbx	# mpred, mpred.303
	leaq	4(%rbx), %rax	#, tmp231
	movq	%rax, -88(%rbp)	# tmp231, mpred
	movl	-40(%rbp), %r8d	# img_width, tmp232
	movl	-36(%rbp), %ecx	# img_height, tmp233
	movl	-56(%rbp), %edx	# i0, tmp234
	movl	-64(%rbp), %esi	# j2, tmp235
	movq	-24(%rbp), %rdi	# ref_pic, tmp236
	movq	-32(%rbp), %rax	# get_pel, tmp237
	call	*%rax	# tmp237
	movzwl	%ax, %eax	# D.12196, D.12190
	movl	%eax, (%rbx)	# D.12190, *mpred.303_71
	.loc 1 912 0
	movq	-88(%rbp), %rbx	# mpred, mpred.304
	leaq	4(%rbx), %rax	#, tmp238
	movq	%rax, -88(%rbp)	# tmp238, mpred
	movl	-40(%rbp), %r8d	# img_width, tmp239
	movl	-36(%rbp), %ecx	# img_height, tmp240
	movl	-52(%rbp), %edx	# i1, tmp241
	movl	-64(%rbp), %esi	# j2, tmp242
	movq	-24(%rbp), %rdi	# ref_pic, tmp243
	movq	-32(%rbp), %rax	# get_pel, tmp244
	call	*%rax	# tmp244
	movzwl	%ax, %eax	# D.12196, D.12190
	movl	%eax, (%rbx)	# D.12190, *mpred.304_75
	.loc 1 913 0
	movq	-88(%rbp), %rbx	# mpred, mpred.305
	leaq	4(%rbx), %rax	#, tmp245
	movq	%rax, -88(%rbp)	# tmp245, mpred
	movl	-40(%rbp), %r8d	# img_width, tmp246
	movl	-36(%rbp), %ecx	# img_height, tmp247
	movl	-48(%rbp), %edx	# i2, tmp248
	movl	-64(%rbp), %esi	# j2, tmp249
	movq	-24(%rbp), %rdi	# ref_pic, tmp250
	movq	-32(%rbp), %rax	# get_pel, tmp251
	call	*%rax	# tmp251
	movzwl	%ax, %eax	# D.12196, D.12190
	movl	%eax, (%rbx)	# D.12190, *mpred.305_79
	.loc 1 914 0
	movq	-88(%rbp), %rbx	# mpred, mpred.306
	leaq	4(%rbx), %rax	#, tmp252
	movq	%rax, -88(%rbp)	# tmp252, mpred
	movl	-40(%rbp), %r8d	# img_width, tmp253
	movl	-36(%rbp), %ecx	# img_height, tmp254
	movl	-44(%rbp), %edx	# i3, tmp255
	movl	-64(%rbp), %esi	# j2, tmp256
	movq	-24(%rbp), %rdi	# ref_pic, tmp257
	movq	-32(%rbp), %rax	# get_pel, tmp258
	call	*%rax	# tmp258
	movzwl	%ax, %eax	# D.12196, D.12190
	movl	%eax, (%rbx)	# D.12190, *mpred.306_83
	.loc 1 915 0
	movq	-88(%rbp), %rbx	# mpred, mpred.307
	leaq	4(%rbx), %rax	#, tmp259
	movq	%rax, -88(%rbp)	# tmp259, mpred
	movl	-40(%rbp), %r8d	# img_width, tmp260
	movl	-36(%rbp), %ecx	# img_height, tmp261
	movl	-56(%rbp), %edx	# i0, tmp262
	movl	-60(%rbp), %esi	# j3, tmp263
	movq	-24(%rbp), %rdi	# ref_pic, tmp264
	movq	-32(%rbp), %rax	# get_pel, tmp265
	call	*%rax	# tmp265
	movzwl	%ax, %eax	# D.12196, D.12190
	movl	%eax, (%rbx)	# D.12190, *mpred.307_87
	.loc 1 916 0
	movq	-88(%rbp), %rbx	# mpred, mpred.308
	leaq	4(%rbx), %rax	#, tmp266
	movq	%rax, -88(%rbp)	# tmp266, mpred
	movl	-40(%rbp), %r8d	# img_width, tmp267
	movl	-36(%rbp), %ecx	# img_height, tmp268
	movl	-52(%rbp), %edx	# i1, tmp269
	movl	-60(%rbp), %esi	# j3, tmp270
	movq	-24(%rbp), %rdi	# ref_pic, tmp271
	movq	-32(%rbp), %rax	# get_pel, tmp272
	call	*%rax	# tmp272
	movzwl	%ax, %eax	# D.12196, D.12190
	movl	%eax, (%rbx)	# D.12190, *mpred.308_91
	.loc 1 917 0
	movq	-88(%rbp), %rbx	# mpred, mpred.309
	leaq	4(%rbx), %rax	#, tmp273
	movq	%rax, -88(%rbp)	# tmp273, mpred
	movl	-40(%rbp), %r8d	# img_width, tmp274
	movl	-36(%rbp), %ecx	# img_height, tmp275
	movl	-48(%rbp), %edx	# i2, tmp276
	movl	-60(%rbp), %esi	# j3, tmp277
	movq	-24(%rbp), %rdi	# ref_pic, tmp278
	movq	-32(%rbp), %rax	# get_pel, tmp279
	call	*%rax	# tmp279
	movzwl	%ax, %eax	# D.12196, D.12190
	movl	%eax, (%rbx)	# D.12190, *mpred.309_95
	.loc 1 918 0
	movq	-88(%rbp), %rbx	# mpred, mpred.310
	leaq	4(%rbx), %rax	#, tmp280
	movq	%rax, -88(%rbp)	# tmp280, mpred
	movl	-40(%rbp), %r8d	# img_width, tmp281
	movl	-36(%rbp), %ecx	# img_height, tmp282
	movl	-44(%rbp), %edx	# i3, tmp283
	movl	-60(%rbp), %esi	# j3, tmp284
	movq	-24(%rbp), %rdi	# ref_pic, tmp285
	movq	-32(%rbp), %rax	# get_pel, tmp286
	call	*%rax	# tmp286
	movzwl	%ax, %eax	# D.12196, D.12190
	movl	%eax, (%rbx)	# D.12190, *mpred.310_99
	.loc 1 920 0
	addq	$120, %rsp	#,
	popq	%rbx	#
	popq	%rbp	#
	.cfi_def_cfa 7, 8
	ret
	.cfi_endproc
.LFE9:
	.size	OneComponentLumaPrediction4x4, .-OneComponentLumaPrediction4x4
	.globl	copyblock4x4
	.type	copyblock4x4, @function
copyblock4x4:
.LFB10:
	.loc 1 932 0
	.cfi_startproc
	pushq	%rbp	#
	.cfi_def_cfa_offset 16
	.cfi_offset 6, -16
	movq	%rsp, %rbp	#,
	.cfi_def_cfa_register 6
	movq	%rdi, -8(%rbp)	# mpred, mpred
	movq	%rsi, -16(%rbp)	# block, block
	.loc 1 933 0
	movq	-8(%rbp), %rax	# mpred, mpred.311
	leaq	4(%rax), %rdx	#, tmp103
	movq	%rdx, -8(%rbp)	# tmp103, mpred
	movq	-16(%rbp), %rdx	# block, tmp104
	movl	(%rdx), %edx	# *block_4(D), D.12197
	movl	%edx, (%rax)	# D.12197, *mpred.311_2
	.loc 1 934 0
	movq	-8(%rbp), %rax	# mpred, mpred.312
	leaq	4(%rax), %rdx	#, tmp105
	movq	%rdx, -8(%rbp)	# tmp105, mpred
	movq	-16(%rbp), %rdx	# block, tmp106
	addq	$16, %rdx	#, D.12198
	movl	(%rdx), %edx	# *_8, D.12197
	movl	%edx, (%rax)	# D.12197, *mpred.312_6
	.loc 1 935 0
	movq	-8(%rbp), %rax	# mpred, mpred.313
	leaq	4(%rax), %rdx	#, tmp107
	movq	%rdx, -8(%rbp)	# tmp107, mpred
	movq	-16(%rbp), %rdx	# block, tmp108
	addq	$32, %rdx	#, D.12198
	movl	(%rdx), %edx	# *_12, D.12197
	movl	%edx, (%rax)	# D.12197, *mpred.313_10
	.loc 1 936 0
	movq	-8(%rbp), %rax	# mpred, mpred.314
	leaq	4(%rax), %rdx	#, tmp109
	movq	%rdx, -8(%rbp)	# tmp109, mpred
	movq	-16(%rbp), %rdx	# block, tmp110
	addq	$48, %rdx	#, D.12198
	movl	(%rdx), %edx	# *_16, D.12197
	movl	%edx, (%rax)	# D.12197, *mpred.314_14
	.loc 1 937 0
	movq	-8(%rbp), %rax	# mpred, mpred.315
	leaq	4(%rax), %rdx	#, tmp111
	movq	%rdx, -8(%rbp)	# tmp111, mpred
	movq	-16(%rbp), %rdx	# block, tmp112
	movl	4(%rdx), %edx	# *block_4(D), D.12197
	movl	%edx, (%rax)	# D.12197, *mpred.315_18
	.loc 1 938 0
	movq	-8(%rbp), %rax	# mpred, mpred.316
	leaq	4(%rax), %rdx	#, tmp113
	movq	%rdx, -8(%rbp)	# tmp113, mpred
	movq	-16(%rbp), %rdx	# block, tmp114
	addq	$16, %rdx	#, D.12198
	movl	4(%rdx), %edx	# *_23, D.12197
	movl	%edx, (%rax)	# D.12197, *mpred.316_21
	.loc 1 939 0
	movq	-8(%rbp), %rax	# mpred, mpred.317
	leaq	4(%rax), %rdx	#, tmp115
	movq	%rdx, -8(%rbp)	# tmp115, mpred
	movq	-16(%rbp), %rdx	# block, tmp116
	addq	$32, %rdx	#, D.12198
	movl	4(%rdx), %edx	# *_27, D.12197
	movl	%edx, (%rax)	# D.12197, *mpred.317_25
	.loc 1 940 0
	movq	-8(%rbp), %rax	# mpred, mpred.318
	leaq	4(%rax), %rdx	#, tmp117
	movq	%rdx, -8(%rbp)	# tmp117, mpred
	movq	-16(%rbp), %rdx	# block, tmp118
	addq	$48, %rdx	#, D.12198
	movl	4(%rdx), %edx	# *_31, D.12197
	movl	%edx, (%rax)	# D.12197, *mpred.318_29
	.loc 1 941 0
	movq	-8(%rbp), %rax	# mpred, mpred.319
	leaq	4(%rax), %rdx	#, tmp119
	movq	%rdx, -8(%rbp)	# tmp119, mpred
	movq	-16(%rbp), %rdx	# block, tmp120
	movl	8(%rdx), %edx	# *block_4(D), D.12197
	movl	%edx, (%rax)	# D.12197, *mpred.319_33
	.loc 1 942 0
	movq	-8(%rbp), %rax	# mpred, mpred.320
	leaq	4(%rax), %rdx	#, tmp121
	movq	%rdx, -8(%rbp)	# tmp121, mpred
	movq	-16(%rbp), %rdx	# block, tmp122
	addq	$16, %rdx	#, D.12198
	movl	8(%rdx), %edx	# *_38, D.12197
	movl	%edx, (%rax)	# D.12197, *mpred.320_36
	.loc 1 943 0
	movq	-8(%rbp), %rax	# mpred, mpred.321
	leaq	4(%rax), %rdx	#, tmp123
	movq	%rdx, -8(%rbp)	# tmp123, mpred
	movq	-16(%rbp), %rdx	# block, tmp124
	addq	$32, %rdx	#, D.12198
	movl	8(%rdx), %edx	# *_42, D.12197
	movl	%edx, (%rax)	# D.12197, *mpred.321_40
	.loc 1 944 0
	movq	-8(%rbp), %rax	# mpred, mpred.322
	leaq	4(%rax), %rdx	#, tmp125
	movq	%rdx, -8(%rbp)	# tmp125, mpred
	movq	-16(%rbp), %rdx	# block, tmp126
	addq	$48, %rdx	#, D.12198
	movl	8(%rdx), %edx	# *_46, D.12197
	movl	%edx, (%rax)	# D.12197, *mpred.322_44
	.loc 1 945 0
	movq	-8(%rbp), %rax	# mpred, mpred.323
	leaq	4(%rax), %rdx	#, tmp127
	movq	%rdx, -8(%rbp)	# tmp127, mpred
	movq	-16(%rbp), %rdx	# block, tmp128
	movl	12(%rdx), %edx	# *block_4(D), D.12197
	movl	%edx, (%rax)	# D.12197, *mpred.323_48
	.loc 1 946 0
	movq	-8(%rbp), %rax	# mpred, mpred.324
	leaq	4(%rax), %rdx	#, tmp129
	movq	%rdx, -8(%rbp)	# tmp129, mpred
	movq	-16(%rbp), %rdx	# block, tmp130
	addq	$16, %rdx	#, D.12198
	movl	12(%rdx), %edx	# *_53, D.12197
	movl	%edx, (%rax)	# D.12197, *mpred.324_51
	.loc 1 947 0
	movq	-8(%rbp), %rax	# mpred, mpred.325
	leaq	4(%rax), %rdx	#, tmp131
	movq	%rdx, -8(%rbp)	# tmp131, mpred
	movq	-16(%rbp), %rdx	# block, tmp132
	addq	$32, %rdx	#, D.12198
	movl	12(%rdx), %edx	# *_57, D.12197
	movl	%edx, (%rax)	# D.12197, *mpred.325_55
	.loc 1 948 0
	movq	-8(%rbp), %rax	# mpred, mpred.326
	leaq	4(%rax), %rdx	#, tmp133
	movq	%rdx, -8(%rbp)	# tmp133, mpred
	movq	-16(%rbp), %rdx	# block, tmp134
	addq	$48, %rdx	#, D.12198
	movl	12(%rdx), %edx	# *_61, D.12197
	movl	%edx, (%rax)	# D.12197, *mpred.326_59
	.loc 1 949 0
	popq	%rbp	#
	.cfi_def_cfa 7, 8
	ret
	.cfi_endproc
.LFE10:
	.size	copyblock4x4, .-copyblock4x4
	.globl	LumaPrediction4x4
	.type	LumaPrediction4x4, @function
LumaPrediction4x4:
.LFB11:
	.loc 1 965 0
	.cfi_startproc
	pushq	%rbp	#
	.cfi_def_cfa_offset 16
	.cfi_offset 6, -16
	movq	%rsp, %rbp	#,
	.cfi_def_cfa_register 6
	pushq	%rbx	#
	subq	$120, %rsp	#,
	.cfi_offset 3, -24
	movl	%edi, -100(%rbp)	# block_x, block_x
	movl	%esi, -104(%rbp)	# block_y, block_y
	movl	%edx, -108(%rbp)	# p_dir, p_dir
	movl	%ecx, -112(%rbp)	# fw_mode, fw_mode
	movl	%r8d, -116(%rbp)	# bw_mode, bw_mode
	movl	%r9d, %edx	# fw_ref_idx, tmp262
	movl	16(%rbp), %eax	# bw_ref_idx, tmp263
	movw	%dx, -120(%rbp)	# tmp262, fw_ref_idx
	movw	%ax, -124(%rbp)	# tmp263, bw_ref_idx
	.loc 1 970 0
	movl	-100(%rbp), %eax	# block_x, tmp267
	addl	$4, %eax	#, tmp266
	movl	%eax, -80(%rbp)	# tmp266, block_x4
	.loc 1 971 0
	movl	-104(%rbp), %eax	# block_y, tmp271
	addl	$4, %eax	#, tmp270
	movl	%eax, -76(%rbp)	# tmp270, block_y4
	.loc 1 972 0
	movq	img(%rip), %rax	# img, img.327
	movl	168(%rax), %edx	# img.327_38->opix_x, D.12199
	movl	-100(%rbp), %eax	# block_x, tmp275
	addl	%edx, %eax	# D.12199, tmp274
	movl	%eax, -72(%rbp)	# tmp274, pic_opix_x
	.loc 1 973 0
	movq	img(%rip), %rax	# img, img.328
	movl	172(%rax), %edx	# img.328_41->opix_y, D.12199
	movl	-104(%rbp), %eax	# block_y, tmp279
	addl	%edx, %eax	# D.12199, tmp278
	movl	%eax, -68(%rbp)	# tmp278, pic_opix_y
	.loc 1 974 0
	movl	-100(%rbp), %eax	# block_x, tmp283
	sarl	$2, %eax	#, tmp282
	movl	%eax, -64(%rbp)	# tmp282, bx
	.loc 1 975 0
	movl	-104(%rbp), %eax	# block_y, tmp287
	sarl	$2, %eax	#, tmp286
	movl	%eax, -60(%rbp)	# tmp286, by
	.loc 1 976 0
	movq	$fw_pred.4834, -48(%rbp)	#, fpred
	.loc 1 977 0
	movq	$bw_pred.4835, -40(%rbp)	#, bpred
	.loc 1 978 0
	movq	img(%rip), %rax	# img, img.329
	movq	14168(%rax), %rdx	# img.329_48->mb_data, D.12200
	movq	img(%rip), %rax	# img, img.330
	movl	12(%rax), %eax	# img.330_50->current_mb_nr, D.12199
	cltq
	imulq	$632, %rax, %rax	#, D.12201, D.12201
	addq	%rdx, %rax	# D.12200, tmp288
	movq	%rax, -24(%rbp)	# tmp288, currMB
	.loc 1 980 0
	movq	active_pps(%rip), %rax	# active_pps, active_pps.332
	movl	192(%rax), %eax	# active_pps.332_55->weighted_pred_flag, D.12202
	testl	%eax, %eax	# D.12202
	je	.L163	#,
	.loc 1 980 0 is_stmt 0 discriminator 1
	movq	img(%rip), %rax	# img, img.333
	movl	24(%rax), %eax	# img.333_57->type, D.12199
	testl	%eax, %eax	# D.12199
	je	.L164	#,
	.loc 1 980 0 discriminator 2
	movq	img(%rip), %rax	# img, img.334
	movl	24(%rax), %eax	# img.334_59->type, D.12199
	cmpl	$3, %eax	#, D.12199
	je	.L164	#,
.L163:
	.loc 1 981 0 is_stmt 1 discriminator 2
	movq	active_pps(%rip), %rax	# active_pps, active_pps.335
	movl	196(%rax), %eax	# active_pps.335_61->weighted_bipred_idc, D.12203
	.loc 1 980 0 discriminator 2
	testl	%eax, %eax	# D.12203
	je	.L165	#,
	.loc 1 981 0
	movq	img(%rip), %rax	# img, img.336
	movl	24(%rax), %eax	# img.336_63->type, D.12199
	cmpl	$1, %eax	#, D.12199
	jne	.L165	#,
.L164:
	.loc 1 980 0 discriminator 1
	movl	$1, %eax	#, iftmp.331
	jmp	.L166	#
.L165:
	.loc 1 980 0 is_stmt 0 discriminator 3
	movl	$0, %eax	#, iftmp.331
.L166:
	.loc 1 980 0 discriminator 4
	movl	%eax, -56(%rbp)	# iftmp.331, apply_weights
	.loc 1 982 0 is_stmt 1 discriminator 4
	movq	img(%rip), %rax	# img, img.337
	movq	71928(%rax), %rax	# img.337_68->all_mv, tmp289
	movq	%rax, -32(%rbp)	# tmp289, mv_array
	.loc 1 984 0 discriminator 4
	movq	img(%rip), %rax	# img, img.339
	movl	72400(%rax), %eax	# img.339_70->MbaffFrameFlag, D.12199
	testl	%eax, %eax	# D.12199
	je	.L167	#,
	.loc 1 984 0 is_stmt 0 discriminator 1
	movq	-24(%rbp), %rax	# currMB, tmp290
	movl	532(%rax), %eax	# currMB_54->mb_field, D.12199
	testl	%eax, %eax	# D.12199
	je	.L167	#,
	movq	img(%rip), %rax	# img, img.341
	movl	12(%rax), %eax	# img.341_73->current_mb_nr, D.12199
	andl	$1, %eax	#, D.12204
	testl	%eax, %eax	# D.12204
	je	.L168	#,
	movl	$4, %eax	#, iftmp.340
	jmp	.L169	#
.L168:
	.loc 1 984 0 discriminator 2
	movl	$2, %eax	#, iftmp.340
.L169:
	.loc 1 984 0 discriminator 3
	jmp	.L170	#
.L167:
	.loc 1 984 0 discriminator 2
	movl	$0, %eax	#, iftmp.338
.L170:
	.loc 1 984 0 discriminator 3
	movl	%eax, -52(%rbp)	# iftmp.338, list_offset
	.loc 1 987 0 is_stmt 1 discriminator 3
	movq	-24(%rbp), %rax	# currMB, tmp291
	movl	580(%rax), %eax	# currMB_54->bi_pred_me, D.12199
	testl	%eax, %eax	# D.12199
	je	.L171	#,
	.loc 1 987 0 is_stmt 0 discriminator 1
	cmpw	$0, -120(%rbp)	#, fw_ref_idx
	jne	.L171	#,
	cmpw	$0, -124(%rbp)	#, bw_ref_idx
	jne	.L171	#,
	cmpl	$2, -108(%rbp)	#, p_dir
	jne	.L171	#,
	cmpl	$1, -112(%rbp)	#, fw_mode
	jne	.L171	#,
	cmpl	$1, -116(%rbp)	#, bw_mode
	jne	.L171	#,
	.loc 1 989 0 is_stmt 1
	movq	-24(%rbp), %rax	# currMB, tmp292
	movl	580(%rax), %eax	# currMB_54->bi_pred_me, D.12199
	cmpl	$1, %eax	#, D.12199
	jne	.L172	#,
	.loc 1 989 0 is_stmt 0 discriminator 1
	movq	img(%rip), %rax	# img, img.343
	movq	71936(%rax), %rax	# img.343_89->bipred_mv1, iftmp.342
	jmp	.L173	#
.L172:
	.loc 1 989 0 discriminator 2
	movq	img(%rip), %rax	# img, img.344
	movq	71944(%rax), %rax	# img.344_91->bipred_mv2, iftmp.342
.L173:
	.loc 1 989 0 discriminator 3
	movq	%rax, -32(%rbp)	# iftmp.342, mv_array
.L171:
	.loc 1 993 0 is_stmt 1
	cmpl	$0, -108(%rbp)	#, p_dir
	je	.L174	#,
	.loc 1 993 0 is_stmt 0 discriminator 1
	cmpl	$2, -108(%rbp)	#, p_dir
	jne	.L175	#,
.L174:
	.loc 1 995 0 is_stmt 1
	movl	-52(%rbp), %eax	# list_offset, tmp294
	cltq
	movq	listX(,%rax,8), %rdi	# listX, D.12205
	movswl	-120(%rbp), %esi	# fw_ref_idx, D.12199
	movl	-64(%rbp), %eax	# bx, tmp295
	cltq
	leaq	0(,%rax,8), %rdx	#, D.12201
	movq	-32(%rbp), %rax	# mv_array, tmp296
	addq	%rdx, %rax	# D.12201, D.12206
	movq	(%rax), %rax	# *_98, D.12207
	movl	-60(%rbp), %edx	# by, tmp297
	movslq	%edx, %rdx	# tmp297, D.12201
	salq	$3, %rdx	#, D.12201
	addq	%rdx, %rax	# D.12201, D.12207
	movq	(%rax), %rax	# *_102, D.12208
	movq	(%rax), %rax	# *_103, D.12209
	movswq	-120(%rbp), %rdx	# fw_ref_idx, D.12201
	salq	$3, %rdx	#, D.12201
	addq	%rdx, %rax	# D.12201, D.12209
	movq	(%rax), %rax	# *_107, D.12210
	movl	-112(%rbp), %edx	# fw_mode, tmp298
	movslq	%edx, %rdx	# tmp298, D.12201
	salq	$3, %rdx	#, D.12201
	addq	%rdx, %rax	# D.12201, D.12210
	movq	(%rax), %rcx	# *_111, D.12211
	movl	-68(%rbp), %edx	# pic_opix_y, tmp299
	movl	-72(%rbp), %eax	# pic_opix_x, tmp300
	movq	%rdi, %r9	# D.12205,
	movl	%esi, %r8d	# D.12199,
	movl	%eax, %esi	# tmp300,
	movl	$fw_pred.4834, %edi	#,
	call	OneComponentLumaPrediction4x4	#
.L175:
	.loc 1 998 0
	cmpl	$1, -108(%rbp)	#, p_dir
	je	.L176	#,
	.loc 1 998 0 is_stmt 0 discriminator 1
	cmpl	$2, -108(%rbp)	#, p_dir
	jne	.L177	#,
.L176:
	.loc 1 1000 0 is_stmt 1
	movl	-52(%rbp), %eax	# list_offset, tmp301
	addl	$1, %eax	#, D.12199
	cltq
	movq	listX(,%rax,8), %rdi	# listX, D.12205
	movswl	-124(%rbp), %esi	# bw_ref_idx, D.12199
	movl	-64(%rbp), %eax	# bx, tmp303
	cltq
	leaq	0(,%rax,8), %rdx	#, D.12201
	movq	-32(%rbp), %rax	# mv_array, tmp304
	addq	%rdx, %rax	# D.12201, D.12206
	movq	(%rax), %rax	# *_118, D.12207
	movl	-60(%rbp), %edx	# by, tmp305
	movslq	%edx, %rdx	# tmp305, D.12201
	salq	$3, %rdx	#, D.12201
	addq	%rdx, %rax	# D.12201, D.12207
	movq	(%rax), %rax	# *_122, D.12208
	addq	$8, %rax	#, D.12208
	movq	(%rax), %rax	# *_124, D.12209
	movswq	-124(%rbp), %rdx	# bw_ref_idx, D.12201
	salq	$3, %rdx	#, D.12201
	addq	%rdx, %rax	# D.12201, D.12209
	movq	(%rax), %rax	# *_128, D.12210
	movl	-116(%rbp), %edx	# bw_mode, tmp306
	movslq	%edx, %rdx	# tmp306, D.12201
	salq	$3, %rdx	#, D.12201
	addq	%rdx, %rax	# D.12201, D.12210
	movq	(%rax), %rcx	# *_132, D.12211
	movl	-68(%rbp), %edx	# pic_opix_y, tmp307
	movl	-72(%rbp), %eax	# pic_opix_x, tmp308
	movq	%rdi, %r9	# D.12205,
	movl	%esi, %r8d	# D.12199,
	movl	%eax, %esi	# tmp308,
	movl	$bw_pred.4835, %edi	#,
	call	OneComponentLumaPrediction4x4	#
.L177:
	.loc 1 1003 0
	cmpl	$0, -56(%rbp)	#, apply_weights
	je	.L178	#,
	.loc 1 1006 0
	cmpl	$2, -108(%rbp)	#, p_dir
	jne	.L179	#,
	.loc 1 1008 0
	movl	-104(%rbp), %eax	# block_y, tmp309
	movl	%eax, -84(%rbp)	# tmp309, j
	jmp	.L180	#
.L183:
	.loc 1 1009 0
	movl	-100(%rbp), %eax	# block_x, tmp310
	movl	%eax, -88(%rbp)	# tmp310, i
	jmp	.L181	#
.L182:
	.loc 1 1010 0 discriminator 2
	movq	img(%rip), %rbx	# img, img.345
	movq	wbp_weight(%rip), %rax	# wbp_weight, wbp_weight.346
	movq	(%rax), %rax	# *wbp_weight.346_137, D.12212
	movswq	-120(%rbp), %rdx	# fw_ref_idx, D.12201
	salq	$3, %rdx	#, D.12201
	addq	%rdx, %rax	# D.12201, D.12212
	movq	(%rax), %rax	# *_141, D.12213
	movswq	-124(%rbp), %rdx	# bw_ref_idx, D.12201
	salq	$3, %rdx	#, D.12201
	addq	%rdx, %rax	# D.12201, D.12213
	movq	(%rax), %rax	# *_145, D.12214
	movl	(%rax), %ecx	# *_146, D.12199
	movq	-48(%rbp), %rax	# fpred, fpred.347
	leaq	4(%rax), %rdx	#, tmp311
	movq	%rdx, -48(%rbp)	# tmp311, fpred
	movl	(%rax), %eax	# *fpred.347_148, D.12199
	imull	%eax, %ecx	# D.12199, D.12199
	.loc 1 1011 0 discriminator 2
	movq	wbp_weight(%rip), %rax	# wbp_weight, wbp_weight.348
	addq	$8, %rax	#, D.12215
	movq	(%rax), %rax	# *_153, D.12212
	movswq	-120(%rbp), %rdx	# fw_ref_idx, D.12201
	salq	$3, %rdx	#, D.12201
	addq	%rdx, %rax	# D.12201, D.12212
	movq	(%rax), %rax	# *_157, D.12213
	movswq	-124(%rbp), %rdx	# bw_ref_idx, D.12201
	salq	$3, %rdx	#, D.12201
	addq	%rdx, %rax	# D.12201, D.12213
	movq	(%rax), %rax	# *_161, D.12214
	movl	(%rax), %esi	# *_162, D.12199
	movq	-40(%rbp), %rax	# bpred, bpred.349
	leaq	4(%rax), %rdx	#, tmp312
	movq	%rdx, -40(%rbp)	# tmp312, bpred
	movl	(%rax), %eax	# *bpred.349_164, D.12199
	imull	%esi, %eax	# D.12199, D.12199
	.loc 1 1010 0 discriminator 2
	leal	(%rcx,%rax), %edx	#, D.12199
	.loc 1 1012 0 discriminator 2
	movl	wp_luma_round(%rip), %eax	# wp_luma_round, wp_luma_round.350
	addl	%eax, %eax	# D.12199
	.loc 1 1011 0 discriminator 2
	addl	%eax, %edx	# D.12199, D.12199
	.loc 1 1012 0 discriminator 2
	movl	luma_log_weight_denom(%rip), %eax	# luma_log_weight_denom, luma_log_weight_denom.351
	addl	$1, %eax	#, D.12199
	movl	%edx, %esi	# D.12199, D.12199
	movl	%eax, %ecx	# D.12199, tmp387
	sarl	%cl, %esi	# tmp387, D.12199
	.loc 1 1013 0 discriminator 2
	movq	wp_offset(%rip), %rax	# wp_offset, wp_offset.352
	movq	(%rax), %rax	# *wp_offset.352_175, D.12213
	movswq	-120(%rbp), %rdx	# fw_ref_idx, D.12201
	salq	$3, %rdx	#, D.12201
	addq	%rdx, %rax	# D.12201, D.12213
	movq	(%rax), %rax	# *_179, D.12214
	movl	(%rax), %edx	# *_180, D.12199
	movq	wp_offset(%rip), %rax	# wp_offset, wp_offset.353
	addq	$8, %rax	#, D.12212
	movq	(%rax), %rax	# *_183, D.12213
	movswq	-124(%rbp), %rcx	# bw_ref_idx, D.12201
	salq	$3, %rcx	#, D.12201
	addq	%rcx, %rax	# D.12201, D.12213
	movq	(%rax), %rax	# *_187, D.12214
	movl	(%rax), %eax	# *_188, D.12199
	addl	%edx, %eax	# D.12199, D.12199
	addl	$1, %eax	#, D.12199
	sarl	%eax	# D.12199
	.loc 1 1010 0 discriminator 2
	addl	%esi, %eax	# D.12199, D.12199
	movl	%eax, %edi	# D.12199,
	call	clip1a	#
	movl	-84(%rbp), %edx	# j, tmp314
	movslq	%edx, %rdx	# tmp314, tmp313
	movl	-88(%rbp), %ecx	# i, tmp316
	movslq	%ecx, %rcx	# tmp316, tmp315
	salq	$4, %rcx	#, tmp317
	addq	%rcx, %rdx	# tmp317, tmp318
	addq	$6296, %rdx	#, tmp319
	movw	%ax, 8(%rbx,%rdx,2)	# D.12216, img.345_136->mpr
	.loc 1 1009 0 discriminator 2
	addl	$1, -88(%rbp)	#, i
.L181:
	.loc 1 1009 0 is_stmt 0 discriminator 1
	movl	-88(%rbp), %eax	# i, tmp320
	cmpl	-80(%rbp), %eax	# block_x4, tmp320
	jl	.L182	#,
	.loc 1 1008 0 is_stmt 1
	addl	$1, -84(%rbp)	#, j
.L180:
	.loc 1 1008 0 is_stmt 0 discriminator 1
	movl	-84(%rbp), %eax	# j, tmp321
	cmpl	-76(%rbp), %eax	# block_y4, tmp321
	jl	.L183	#,
	jmp	.L162	#
.L179:
	.loc 1 1015 0 is_stmt 1
	cmpl	$0, -108(%rbp)	#, p_dir
	jne	.L185	#,
	.loc 1 1017 0
	movl	-104(%rbp), %eax	# block_y, tmp322
	movl	%eax, -84(%rbp)	# tmp322, j
	jmp	.L186	#
.L189:
	.loc 1 1018 0
	movl	-100(%rbp), %eax	# block_x, tmp323
	movl	%eax, -88(%rbp)	# tmp323, i
	jmp	.L187	#
.L188:
	.loc 1 1019 0 discriminator 2
	movq	img(%rip), %rbx	# img, img.354
	movq	wp_weight(%rip), %rax	# wp_weight, wp_weight.355
	movq	(%rax), %rax	# *wp_weight.355_201, D.12213
	movswq	-120(%rbp), %rdx	# fw_ref_idx, D.12201
	salq	$3, %rdx	#, D.12201
	addq	%rdx, %rax	# D.12201, D.12213
	movq	(%rax), %rax	# *_205, D.12214
	movl	(%rax), %ecx	# *_206, D.12199
	movq	-48(%rbp), %rax	# fpred, fpred.356
	leaq	4(%rax), %rdx	#, tmp324
	movq	%rdx, -48(%rbp)	# tmp324, fpred
	movl	(%rax), %eax	# *fpred.356_208, D.12199
	imull	%eax, %ecx	# D.12199, D.12199
	movl	%ecx, %edx	# D.12199, D.12199
	movl	wp_luma_round(%rip), %eax	# wp_luma_round, wp_luma_round.357
	addl	%eax, %edx	# wp_luma_round.357, D.12199
	movl	luma_log_weight_denom(%rip), %eax	# luma_log_weight_denom, luma_log_weight_denom.358
	movl	%eax, %ecx	# luma_log_weight_denom.358, tmp390
	sarl	%cl, %edx	# tmp390, D.12199
	movl	%edx, %ecx	# D.12199, D.12199
	.loc 1 1020 0 discriminator 2
	movq	wp_offset(%rip), %rax	# wp_offset, wp_offset.359
	movq	(%rax), %rax	# *wp_offset.359_216, D.12213
	movswq	-120(%rbp), %rdx	# fw_ref_idx, D.12201
	salq	$3, %rdx	#, D.12201
	addq	%rdx, %rax	# D.12201, D.12213
	movq	(%rax), %rax	# *_220, D.12214
	movl	(%rax), %eax	# *_221, D.12199
	.loc 1 1019 0 discriminator 2
	addl	%ecx, %eax	# D.12199, D.12199
	movl	%eax, %edi	# D.12199,
	call	clip1a	#
	movl	-84(%rbp), %edx	# j, tmp326
	movslq	%edx, %rdx	# tmp326, tmp325
	movl	-88(%rbp), %ecx	# i, tmp328
	movslq	%ecx, %rcx	# tmp328, tmp327
	salq	$4, %rcx	#, tmp329
	addq	%rcx, %rdx	# tmp329, tmp330
	addq	$6296, %rdx	#, tmp331
	movw	%ax, 8(%rbx,%rdx,2)	# D.12216, img.354_200->mpr
	.loc 1 1018 0 discriminator 2
	addl	$1, -88(%rbp)	#, i
.L187:
	.loc 1 1018 0 is_stmt 0 discriminator 1
	movl	-88(%rbp), %eax	# i, tmp332
	cmpl	-80(%rbp), %eax	# block_x4, tmp332
	jl	.L188	#,
	.loc 1 1017 0 is_stmt 1
	addl	$1, -84(%rbp)	#, j
.L186:
	.loc 1 1017 0 is_stmt 0 discriminator 1
	movl	-84(%rbp), %eax	# j, tmp333
	cmpl	-76(%rbp), %eax	# block_y4, tmp333
	jl	.L189	#,
	jmp	.L162	#
.L185:
	.loc 1 1024 0 is_stmt 1
	movl	-104(%rbp), %eax	# block_y, tmp334
	movl	%eax, -84(%rbp)	# tmp334, j
	jmp	.L190	#
.L193:
	.loc 1 1025 0
	movl	-100(%rbp), %eax	# block_x, tmp335
	movl	%eax, -88(%rbp)	# tmp335, i
	jmp	.L191	#
.L192:
	.loc 1 1026 0 discriminator 2
	movq	img(%rip), %rbx	# img, img.360
	movq	wp_weight(%rip), %rax	# wp_weight, wp_weight.361
	addq	$8, %rax	#, D.12212
	movq	(%rax), %rax	# *_232, D.12213
	movswq	-124(%rbp), %rdx	# bw_ref_idx, D.12201
	salq	$3, %rdx	#, D.12201
	addq	%rdx, %rax	# D.12201, D.12213
	movq	(%rax), %rax	# *_236, D.12214
	movl	(%rax), %ecx	# *_237, D.12199
	movq	-40(%rbp), %rax	# bpred, bpred.362
	leaq	4(%rax), %rdx	#, tmp336
	movq	%rdx, -40(%rbp)	# tmp336, bpred
	movl	(%rax), %eax	# *bpred.362_239, D.12199
	imull	%eax, %ecx	# D.12199, D.12199
	movl	%ecx, %edx	# D.12199, D.12199
	movl	wp_luma_round(%rip), %eax	# wp_luma_round, wp_luma_round.363
	addl	%eax, %edx	# wp_luma_round.363, D.12199
	movl	luma_log_weight_denom(%rip), %eax	# luma_log_weight_denom, luma_log_weight_denom.364
	movl	%eax, %ecx	# luma_log_weight_denom.364, tmp393
	sarl	%cl, %edx	# tmp393, D.12199
	movl	%edx, %ecx	# D.12199, D.12199
	.loc 1 1027 0 discriminator 2
	movq	wp_offset(%rip), %rax	# wp_offset, wp_offset.365
	addq	$8, %rax	#, D.12212
	movq	(%rax), %rax	# *_248, D.12213
	movswq	-124(%rbp), %rdx	# bw_ref_idx, D.12201
	salq	$3, %rdx	#, D.12201
	addq	%rdx, %rax	# D.12201, D.12213
	movq	(%rax), %rax	# *_252, D.12214
	movl	(%rax), %eax	# *_253, D.12199
	.loc 1 1026 0 discriminator 2
	addl	%ecx, %eax	# D.12199, D.12199
	movl	%eax, %edi	# D.12199,
	call	clip1a	#
	movl	-84(%rbp), %edx	# j, tmp338
	movslq	%edx, %rdx	# tmp338, tmp337
	movl	-88(%rbp), %ecx	# i, tmp340
	movslq	%ecx, %rcx	# tmp340, tmp339
	salq	$4, %rcx	#, tmp341
	addq	%rcx, %rdx	# tmp341, tmp342
	addq	$6296, %rdx	#, tmp343
	movw	%ax, 8(%rbx,%rdx,2)	# D.12216, img.360_230->mpr
	.loc 1 1025 0 discriminator 2
	addl	$1, -88(%rbp)	#, i
.L191:
	.loc 1 1025 0 is_stmt 0 discriminator 1
	movl	-88(%rbp), %eax	# i, tmp344
	cmpl	-80(%rbp), %eax	# block_x4, tmp344
	jl	.L192	#,
	.loc 1 1024 0 is_stmt 1
	addl	$1, -84(%rbp)	#, j
.L190:
	.loc 1 1024 0 is_stmt 0 discriminator 1
	movl	-84(%rbp), %eax	# j, tmp345
	cmpl	-76(%rbp), %eax	# block_y4, tmp345
	jl	.L193	#,
	jmp	.L162	#
.L178:
	.loc 1 1034 0 is_stmt 1
	cmpl	$2, -108(%rbp)	#, p_dir
	jne	.L194	#,
	.loc 1 1036 0
	movl	-104(%rbp), %eax	# block_y, tmp346
	movl	%eax, -84(%rbp)	# tmp346, j
	jmp	.L195	#
.L198:
	.loc 1 1037 0
	movl	-100(%rbp), %eax	# block_x, tmp347
	movl	%eax, -88(%rbp)	# tmp347, i
	jmp	.L196	#
.L197:
	.loc 1 1038 0 discriminator 2
	movq	img(%rip), %rdx	# img, img.366
	movq	-48(%rbp), %rax	# fpred, fpred.367
	leaq	4(%rax), %rcx	#, tmp348
	movq	%rcx, -48(%rbp)	# tmp348, fpred
	movl	(%rax), %esi	# *fpred.367_263, D.12199
	movq	-40(%rbp), %rax	# bpred, bpred.368
	leaq	4(%rax), %rcx	#, tmp349
	movq	%rcx, -40(%rbp)	# tmp349, bpred
	movl	(%rax), %eax	# *bpred.368_266, D.12199
	addl	%esi, %eax	# D.12199, D.12199
	addl	$1, %eax	#, D.12199
	movl	%eax, %ecx	# D.12199, tmp350
	shrl	$31, %ecx	#, tmp350
	addl	%ecx, %eax	# tmp350, tmp351
	sarl	%eax	# tmp352
	movl	-84(%rbp), %ecx	# j, tmp354
	movslq	%ecx, %rcx	# tmp354, tmp353
	movl	-88(%rbp), %esi	# i, tmp356
	movslq	%esi, %rsi	# tmp356, tmp355
	salq	$4, %rsi	#, tmp357
	addq	%rsi, %rcx	# tmp357, tmp358
	addq	$6296, %rcx	#, tmp359
	movw	%ax, 8(%rdx,%rcx,2)	# D.12216, img.366_262->mpr
	.loc 1 1037 0 discriminator 2
	addl	$1, -88(%rbp)	#, i
.L196:
	.loc 1 1037 0 is_stmt 0 discriminator 1
	movl	-88(%rbp), %eax	# i, tmp360
	cmpl	-80(%rbp), %eax	# block_x4, tmp360
	jl	.L197	#,
	.loc 1 1036 0 is_stmt 1
	addl	$1, -84(%rbp)	#, j
.L195:
	.loc 1 1036 0 is_stmt 0 discriminator 1
	movl	-84(%rbp), %eax	# j, tmp361
	cmpl	-76(%rbp), %eax	# block_y4, tmp361
	jl	.L198	#,
	jmp	.L162	#
.L194:
	.loc 1 1040 0 is_stmt 1
	cmpl	$0, -108(%rbp)	#, p_dir
	jne	.L199	#,
	.loc 1 1042 0
	movl	-104(%rbp), %eax	# block_y, tmp362
	movl	%eax, -84(%rbp)	# tmp362, j
	jmp	.L200	#
.L203:
	.loc 1 1043 0
	movl	-100(%rbp), %eax	# block_x, tmp363
	movl	%eax, -88(%rbp)	# tmp363, i
	jmp	.L201	#
.L202:
	.loc 1 1043 0 is_stmt 0 discriminator 2
	movq	img(%rip), %rdx	# img, img.369
	movq	-48(%rbp), %rax	# fpred, fpred.370
	leaq	4(%rax), %rcx	#, tmp364
	movq	%rcx, -48(%rbp)	# tmp364, fpred
	movl	(%rax), %eax	# *fpred.370_278, D.12199
	movl	-84(%rbp), %ecx	# j, tmp366
	movslq	%ecx, %rcx	# tmp366, tmp365
	movl	-88(%rbp), %esi	# i, tmp368
	movslq	%esi, %rsi	# tmp368, tmp367
	salq	$4, %rsi	#, tmp369
	addq	%rsi, %rcx	# tmp369, tmp370
	addq	$6296, %rcx	#, tmp371
	movw	%ax, 8(%rdx,%rcx,2)	# D.12216, img.369_277->mpr
	addl	$1, -88(%rbp)	#, i
.L201:
	.loc 1 1043 0 discriminator 1
	movl	-88(%rbp), %eax	# i, tmp372
	cmpl	-80(%rbp), %eax	# block_x4, tmp372
	jl	.L202	#,
	.loc 1 1042 0 is_stmt 1
	addl	$1, -84(%rbp)	#, j
.L200:
	.loc 1 1042 0 is_stmt 0 discriminator 1
	movl	-84(%rbp), %eax	# j, tmp373
	cmpl	-76(%rbp), %eax	# block_y4, tmp373
	jl	.L203	#,
	jmp	.L162	#
.L199:
	.loc 1 1047 0 is_stmt 1
	movl	-104(%rbp), %eax	# block_y, tmp374
	movl	%eax, -84(%rbp)	# tmp374, j
	jmp	.L204	#
.L207:
	.loc 1 1048 0
	movl	-100(%rbp), %eax	# block_x, tmp375
	movl	%eax, -88(%rbp)	# tmp375, i
	jmp	.L205	#
.L206:
	.loc 1 1048 0 is_stmt 0 discriminator 2
	movq	img(%rip), %rdx	# img, img.371
	movq	-40(%rbp), %rax	# bpred, bpred.372
	leaq	4(%rax), %rcx	#, tmp376
	movq	%rcx, -40(%rbp)	# tmp376, bpred
	movl	(%rax), %eax	# *bpred.372_287, D.12199
	movl	-84(%rbp), %ecx	# j, tmp378
	movslq	%ecx, %rcx	# tmp378, tmp377
	movl	-88(%rbp), %esi	# i, tmp380
	movslq	%esi, %rsi	# tmp380, tmp379
	salq	$4, %rsi	#, tmp381
	addq	%rsi, %rcx	# tmp381, tmp382
	addq	$6296, %rcx	#, tmp383
	movw	%ax, 8(%rdx,%rcx,2)	# D.12216, img.371_286->mpr
	addl	$1, -88(%rbp)	#, i
.L205:
	.loc 1 1048 0 discriminator 1
	movl	-88(%rbp), %eax	# i, tmp384
	cmpl	-80(%rbp), %eax	# block_x4, tmp384
	jl	.L206	#,
	.loc 1 1047 0 is_stmt 1
	addl	$1, -84(%rbp)	#, j
.L204:
	.loc 1 1047 0 is_stmt 0 discriminator 1
	movl	-84(%rbp), %eax	# j, tmp385
	cmpl	-76(%rbp), %eax	# block_y4, tmp385
	jl	.L207	#,
.L162:
	.loc 1 1051 0 is_stmt 1
	addq	$120, %rsp	#,
	popq	%rbx	#
	popq	%rbp	#
	.cfi_def_cfa 7, 8
	ret
	.cfi_endproc
.LFE11:
	.size	LumaPrediction4x4, .-LumaPrediction4x4
	.globl	LumaPrediction4x4Bi
	.type	LumaPrediction4x4Bi, @function
LumaPrediction4x4Bi:
.LFB12:
	.loc 1 1068 0
	.cfi_startproc
	pushq	%rbp	#
	.cfi_def_cfa_offset 16
	.cfi_offset 6, -16
	movq	%rsp, %rbp	#,
	.cfi_def_cfa_register 6
	pushq	%rbx	#
	subq	$120, %rsp	#,
	.cfi_offset 3, -24
	movl	%edi, -100(%rbp)	# block_x, block_x
	movl	%esi, -104(%rbp)	# block_y, block_y
	movl	%edx, -108(%rbp)	# p_dir, p_dir
	movl	%ecx, -112(%rbp)	# fw_mode, fw_mode
	movl	%r8d, -116(%rbp)	# bw_mode, bw_mode
	movl	%r9d, %edx	# fw_ref_idx, tmp259
	movl	16(%rbp), %eax	# bw_ref_idx, tmp260
	movw	%dx, -120(%rbp)	# tmp259, fw_ref_idx
	movw	%ax, -124(%rbp)	# tmp260, bw_ref_idx
	.loc 1 1073 0
	movl	-100(%rbp), %eax	# block_x, tmp264
	addl	$4, %eax	#, tmp263
	movl	%eax, -80(%rbp)	# tmp263, block_x4
	.loc 1 1074 0
	movl	-104(%rbp), %eax	# block_y, tmp268
	addl	$4, %eax	#, tmp267
	movl	%eax, -76(%rbp)	# tmp267, block_y4
	.loc 1 1075 0
	movq	img(%rip), %rax	# img, img.373
	movl	168(%rax), %edx	# img.373_37->opix_x, D.12217
	movl	-100(%rbp), %eax	# block_x, tmp272
	addl	%edx, %eax	# D.12217, tmp271
	movl	%eax, -72(%rbp)	# tmp271, pic_opix_x
	.loc 1 1076 0
	movq	img(%rip), %rax	# img, img.374
	movl	172(%rax), %edx	# img.374_40->opix_y, D.12217
	movl	-104(%rbp), %eax	# block_y, tmp276
	addl	%edx, %eax	# D.12217, tmp275
	movl	%eax, -68(%rbp)	# tmp275, pic_opix_y
	.loc 1 1077 0
	movl	-100(%rbp), %eax	# block_x, tmp280
	sarl	$2, %eax	#, tmp279
	movl	%eax, -64(%rbp)	# tmp279, bx
	.loc 1 1078 0
	movl	-104(%rbp), %eax	# block_y, tmp284
	sarl	$2, %eax	#, tmp283
	movl	%eax, -60(%rbp)	# tmp283, by
	.loc 1 1079 0
	movq	$fw_pred.4896, -48(%rbp)	#, fpred
	.loc 1 1080 0
	movq	$bw_pred.4897, -40(%rbp)	#, bpred
	.loc 1 1081 0
	movq	img(%rip), %rax	# img, img.375
	movq	14168(%rax), %rdx	# img.375_47->mb_data, D.12218
	movq	img(%rip), %rax	# img, img.376
	movl	12(%rax), %eax	# img.376_49->current_mb_nr, D.12217
	cltq
	imulq	$632, %rax, %rax	#, D.12219, D.12219
	addq	%rdx, %rax	# D.12218, tmp285
	movq	%rax, -32(%rbp)	# tmp285, currMB
	.loc 1 1084 0
	movq	active_pps(%rip), %rax	# active_pps, active_pps.378
	movl	192(%rax), %eax	# active_pps.378_54->weighted_pred_flag, D.12220
	testl	%eax, %eax	# D.12220
	je	.L209	#,
	.loc 1 1084 0 is_stmt 0 discriminator 1
	movq	img(%rip), %rax	# img, img.379
	movl	24(%rax), %eax	# img.379_56->type, D.12217
	testl	%eax, %eax	# D.12217
	je	.L210	#,
	.loc 1 1084 0 discriminator 2
	movq	img(%rip), %rax	# img, img.380
	movl	24(%rax), %eax	# img.380_58->type, D.12217
	cmpl	$3, %eax	#, D.12217
	je	.L210	#,
.L209:
	.loc 1 1085 0 is_stmt 1 discriminator 2
	movq	active_pps(%rip), %rax	# active_pps, active_pps.381
	movl	196(%rax), %eax	# active_pps.381_60->weighted_bipred_idc, D.12221
	.loc 1 1084 0 discriminator 2
	testl	%eax, %eax	# D.12221
	je	.L211	#,
	.loc 1 1085 0
	movq	img(%rip), %rax	# img, img.382
	movl	24(%rax), %eax	# img.382_62->type, D.12217
	cmpl	$1, %eax	#, D.12217
	jne	.L211	#,
.L210:
	.loc 1 1084 0 discriminator 1
	movl	$1, %eax	#, iftmp.377
	jmp	.L212	#
.L211:
	.loc 1 1084 0 is_stmt 0 discriminator 3
	movl	$0, %eax	#, iftmp.377
.L212:
	.loc 1 1084 0 discriminator 4
	movl	%eax, -56(%rbp)	# iftmp.377, apply_weights
	.loc 1 1087 0 is_stmt 1 discriminator 4
	movq	img(%rip), %rax	# img, img.384
	movl	72400(%rax), %eax	# img.384_67->MbaffFrameFlag, D.12217
	testl	%eax, %eax	# D.12217
	je	.L213	#,
	.loc 1 1087 0 is_stmt 0 discriminator 1
	movq	-32(%rbp), %rax	# currMB, tmp286
	movl	532(%rax), %eax	# currMB_53->mb_field, D.12217
	testl	%eax, %eax	# D.12217
	je	.L213	#,
	movq	img(%rip), %rax	# img, img.386
	movl	12(%rax), %eax	# img.386_70->current_mb_nr, D.12217
	andl	$1, %eax	#, D.12222
	testl	%eax, %eax	# D.12222
	je	.L214	#,
	movl	$4, %eax	#, iftmp.385
	jmp	.L215	#
.L214:
	.loc 1 1087 0 discriminator 2
	movl	$2, %eax	#, iftmp.385
.L215:
	.loc 1 1087 0 discriminator 3
	jmp	.L216	#
.L213:
	.loc 1 1087 0 discriminator 2
	movl	$0, %eax	#, iftmp.383
.L216:
	.loc 1 1087 0 discriminator 3
	movl	%eax, -52(%rbp)	# iftmp.383, list_offset
	.loc 1 1089 0 is_stmt 1 discriminator 3
	cmpl	$0, 24(%rbp)	#, list
	je	.L217	#,
	.loc 1 1089 0 is_stmt 0 discriminator 1
	movq	img(%rip), %rax	# img, img.388
	movq	71936(%rax), %rax	# img.388_80->bipred_mv1, iftmp.387
	jmp	.L218	#
.L217:
	.loc 1 1089 0 discriminator 2
	movq	img(%rip), %rax	# img, img.389
	movq	71944(%rax), %rax	# img.389_82->bipred_mv2, iftmp.387
.L218:
	.loc 1 1089 0 discriminator 3
	movq	%rax, -24(%rbp)	# iftmp.387, bipred_mv
	.loc 1 1091 0 is_stmt 1 discriminator 3
	cmpl	$0, -108(%rbp)	#, p_dir
	je	.L219	#,
	.loc 1 1091 0 is_stmt 0 discriminator 1
	cmpl	$2, -108(%rbp)	#, p_dir
	jne	.L220	#,
.L219:
	.loc 1 1094 0 is_stmt 1
	movl	-52(%rbp), %eax	# list_offset, tmp288
	cltq
	movq	listX(,%rax,8), %rdi	# listX, D.12223
	movswl	-120(%rbp), %esi	# fw_ref_idx, D.12217
	movl	-64(%rbp), %eax	# bx, tmp289
	cltq
	leaq	0(,%rax,8), %rdx	#, D.12219
	movq	-24(%rbp), %rax	# bipred_mv, tmp290
	addq	%rdx, %rax	# D.12219, D.12224
	movq	(%rax), %rax	# *_91, D.12225
	movl	-60(%rbp), %edx	# by, tmp291
	movslq	%edx, %rdx	# tmp291, D.12219
	salq	$3, %rdx	#, D.12219
	addq	%rdx, %rax	# D.12219, D.12225
	movq	(%rax), %rax	# *_95, D.12226
	movq	(%rax), %rax	# *_96, D.12227
	movswq	-120(%rbp), %rdx	# fw_ref_idx, D.12219
	salq	$3, %rdx	#, D.12219
	addq	%rdx, %rax	# D.12219, D.12227
	movq	(%rax), %rax	# *_100, D.12228
	movl	-112(%rbp), %edx	# fw_mode, tmp292
	movslq	%edx, %rdx	# tmp292, D.12219
	salq	$3, %rdx	#, D.12219
	addq	%rdx, %rax	# D.12219, D.12228
	movq	(%rax), %rcx	# *_105, D.12229
	movl	-68(%rbp), %edx	# pic_opix_y, tmp293
	movl	-72(%rbp), %eax	# pic_opix_x, tmp294
	movq	%rdi, %r9	# D.12223,
	movl	%esi, %r8d	# D.12217,
	movl	%eax, %esi	# tmp294,
	movl	$fw_pred.4896, %edi	#,
	call	OneComponentLumaPrediction4x4	#
.L220:
	.loc 1 1097 0
	cmpl	$1, -108(%rbp)	#, p_dir
	je	.L221	#,
	.loc 1 1097 0 is_stmt 0 discriminator 1
	cmpl	$2, -108(%rbp)	#, p_dir
	jne	.L222	#,
.L221:
	.loc 1 1099 0 is_stmt 1
	movl	-52(%rbp), %eax	# list_offset, tmp295
	addl	$1, %eax	#, D.12217
	cltq
	movq	listX(,%rax,8), %rdi	# listX, D.12223
	movswl	-124(%rbp), %esi	# bw_ref_idx, D.12217
	movl	-64(%rbp), %eax	# bx, tmp297
	cltq
	leaq	0(,%rax,8), %rdx	#, D.12219
	movq	-24(%rbp), %rax	# bipred_mv, tmp298
	addq	%rdx, %rax	# D.12219, D.12224
	movq	(%rax), %rax	# *_113, D.12225
	movl	-60(%rbp), %edx	# by, tmp299
	movslq	%edx, %rdx	# tmp299, D.12219
	salq	$3, %rdx	#, D.12219
	addq	%rdx, %rax	# D.12219, D.12225
	movq	(%rax), %rax	# *_117, D.12226
	addq	$8, %rax	#, D.12226
	movq	(%rax), %rax	# *_119, D.12227
	movswq	-124(%rbp), %rdx	# bw_ref_idx, D.12219
	salq	$3, %rdx	#, D.12219
	addq	%rdx, %rax	# D.12219, D.12227
	movq	(%rax), %rax	# *_123, D.12228
	movl	-116(%rbp), %edx	# bw_mode, tmp300
	movslq	%edx, %rdx	# tmp300, D.12219
	salq	$3, %rdx	#, D.12219
	addq	%rdx, %rax	# D.12219, D.12228
	movq	(%rax), %rcx	# *_128, D.12229
	movl	-68(%rbp), %edx	# pic_opix_y, tmp301
	movl	-72(%rbp), %eax	# pic_opix_x, tmp302
	movq	%rdi, %r9	# D.12223,
	movl	%esi, %r8d	# D.12217,
	movl	%eax, %esi	# tmp302,
	movl	$bw_pred.4897, %edi	#,
	call	OneComponentLumaPrediction4x4	#
.L222:
	.loc 1 1102 0
	cmpl	$0, -56(%rbp)	#, apply_weights
	je	.L223	#,
	.loc 1 1104 0
	cmpl	$2, -108(%rbp)	#, p_dir
	jne	.L224	#,
	.loc 1 1106 0
	movl	-104(%rbp), %eax	# block_y, tmp303
	movl	%eax, -84(%rbp)	# tmp303, j
	jmp	.L225	#
.L228:
	.loc 1 1107 0
	movl	-100(%rbp), %eax	# block_x, tmp304
	movl	%eax, -88(%rbp)	# tmp304, i
	jmp	.L226	#
.L227:
	.loc 1 1108 0 discriminator 2
	movq	img(%rip), %rbx	# img, img.390
	movq	wbp_weight(%rip), %rax	# wbp_weight, wbp_weight.391
	movq	(%rax), %rax	# *wbp_weight.391_133, D.12230
	movswq	-120(%rbp), %rdx	# fw_ref_idx, D.12219
	salq	$3, %rdx	#, D.12219
	addq	%rdx, %rax	# D.12219, D.12230
	movq	(%rax), %rax	# *_137, D.12231
	movswq	-124(%rbp), %rdx	# bw_ref_idx, D.12219
	salq	$3, %rdx	#, D.12219
	addq	%rdx, %rax	# D.12219, D.12231
	movq	(%rax), %rax	# *_141, D.12232
	movl	(%rax), %ecx	# *_142, D.12217
	movq	-48(%rbp), %rax	# fpred, fpred.392
	leaq	4(%rax), %rdx	#, tmp305
	movq	%rdx, -48(%rbp)	# tmp305, fpred
	movl	(%rax), %eax	# *fpred.392_144, D.12217
	imull	%eax, %ecx	# D.12217, D.12217
	.loc 1 1109 0 discriminator 2
	movq	wbp_weight(%rip), %rax	# wbp_weight, wbp_weight.393
	addq	$8, %rax	#, D.12233
	movq	(%rax), %rax	# *_149, D.12230
	movswq	-120(%rbp), %rdx	# fw_ref_idx, D.12219
	salq	$3, %rdx	#, D.12219
	addq	%rdx, %rax	# D.12219, D.12230
	movq	(%rax), %rax	# *_153, D.12231
	movswq	-124(%rbp), %rdx	# bw_ref_idx, D.12219
	salq	$3, %rdx	#, D.12219
	addq	%rdx, %rax	# D.12219, D.12231
	movq	(%rax), %rax	# *_157, D.12232
	movl	(%rax), %esi	# *_158, D.12217
	movq	-40(%rbp), %rax	# bpred, bpred.394
	leaq	4(%rax), %rdx	#, tmp306
	movq	%rdx, -40(%rbp)	# tmp306, bpred
	movl	(%rax), %eax	# *bpred.394_160, D.12217
	imull	%esi, %eax	# D.12217, D.12217
	.loc 1 1108 0 discriminator 2
	leal	(%rcx,%rax), %edx	#, D.12217
	.loc 1 1110 0 discriminator 2
	movl	wp_luma_round(%rip), %eax	# wp_luma_round, wp_luma_round.395
	addl	%eax, %eax	# D.12217
	.loc 1 1109 0 discriminator 2
	addl	%eax, %edx	# D.12217, D.12217
	.loc 1 1110 0 discriminator 2
	movl	luma_log_weight_denom(%rip), %eax	# luma_log_weight_denom, luma_log_weight_denom.396
	addl	$1, %eax	#, D.12217
	movl	%edx, %esi	# D.12217, D.12217
	movl	%eax, %ecx	# D.12217, tmp381
	sarl	%cl, %esi	# tmp381, D.12217
	.loc 1 1111 0 discriminator 2
	movq	wp_offset(%rip), %rax	# wp_offset, wp_offset.397
	movq	(%rax), %rax	# *wp_offset.397_171, D.12231
	movswq	-120(%rbp), %rdx	# fw_ref_idx, D.12219
	salq	$3, %rdx	#, D.12219
	addq	%rdx, %rax	# D.12219, D.12231
	movq	(%rax), %rax	# *_175, D.12232
	movl	(%rax), %edx	# *_176, D.12217
	movq	wp_offset(%rip), %rax	# wp_offset, wp_offset.398
	addq	$8, %rax	#, D.12230
	movq	(%rax), %rax	# *_179, D.12231
	movswq	-124(%rbp), %rcx	# bw_ref_idx, D.12219
	salq	$3, %rcx	#, D.12219
	addq	%rcx, %rax	# D.12219, D.12231
	movq	(%rax), %rax	# *_183, D.12232
	movl	(%rax), %eax	# *_184, D.12217
	addl	%edx, %eax	# D.12217, D.12217
	addl	$1, %eax	#, D.12217
	sarl	%eax	# D.12217
	.loc 1 1108 0 discriminator 2
	addl	%esi, %eax	# D.12217, D.12217
	movl	%eax, %edi	# D.12217,
	call	clip1a	#
	movl	-84(%rbp), %edx	# j, tmp308
	movslq	%edx, %rdx	# tmp308, tmp307
	movl	-88(%rbp), %ecx	# i, tmp310
	movslq	%ecx, %rcx	# tmp310, tmp309
	salq	$4, %rcx	#, tmp311
	addq	%rcx, %rdx	# tmp311, tmp312
	addq	$6296, %rdx	#, tmp313
	movw	%ax, 8(%rbx,%rdx,2)	# D.12234, img.390_132->mpr
	.loc 1 1107 0 discriminator 2
	addl	$1, -88(%rbp)	#, i
.L226:
	.loc 1 1107 0 is_stmt 0 discriminator 1
	movl	-88(%rbp), %eax	# i, tmp314
	cmpl	-80(%rbp), %eax	# block_x4, tmp314
	jl	.L227	#,
	.loc 1 1106 0 is_stmt 1
	addl	$1, -84(%rbp)	#, j
.L225:
	.loc 1 1106 0 is_stmt 0 discriminator 1
	movl	-84(%rbp), %eax	# j, tmp315
	cmpl	-76(%rbp), %eax	# block_y4, tmp315
	jl	.L228	#,
	jmp	.L208	#
.L224:
	.loc 1 1113 0 is_stmt 1
	cmpl	$0, -108(%rbp)	#, p_dir
	jne	.L230	#,
	.loc 1 1115 0
	movl	-104(%rbp), %eax	# block_y, tmp316
	movl	%eax, -84(%rbp)	# tmp316, j
	jmp	.L231	#
.L234:
	.loc 1 1116 0
	movl	-100(%rbp), %eax	# block_x, tmp317
	movl	%eax, -88(%rbp)	# tmp317, i
	jmp	.L232	#
.L233:
	.loc 1 1117 0 discriminator 2
	movq	img(%rip), %rbx	# img, img.399
	movq	wp_weight(%rip), %rax	# wp_weight, wp_weight.400
	movq	(%rax), %rax	# *wp_weight.400_197, D.12231
	movswq	-120(%rbp), %rdx	# fw_ref_idx, D.12219
	salq	$3, %rdx	#, D.12219
	addq	%rdx, %rax	# D.12219, D.12231
	movq	(%rax), %rax	# *_201, D.12232
	movl	(%rax), %ecx	# *_202, D.12217
	movq	-48(%rbp), %rax	# fpred, fpred.401
	leaq	4(%rax), %rdx	#, tmp318
	movq	%rdx, -48(%rbp)	# tmp318, fpred
	movl	(%rax), %eax	# *fpred.401_204, D.12217
	imull	%eax, %ecx	# D.12217, D.12217
	movl	%ecx, %edx	# D.12217, D.12217
	movl	wp_luma_round(%rip), %eax	# wp_luma_round, wp_luma_round.402
	addl	%eax, %edx	# wp_luma_round.402, D.12217
	movl	luma_log_weight_denom(%rip), %eax	# luma_log_weight_denom, luma_log_weight_denom.403
	movl	%eax, %ecx	# luma_log_weight_denom.403, tmp384
	sarl	%cl, %edx	# tmp384, D.12217
	movl	%edx, %ecx	# D.12217, D.12217
	.loc 1 1118 0 discriminator 2
	movq	wp_offset(%rip), %rax	# wp_offset, wp_offset.404
	movq	(%rax), %rax	# *wp_offset.404_212, D.12231
	movswq	-120(%rbp), %rdx	# fw_ref_idx, D.12219
	salq	$3, %rdx	#, D.12219
	addq	%rdx, %rax	# D.12219, D.12231
	movq	(%rax), %rax	# *_216, D.12232
	movl	(%rax), %eax	# *_217, D.12217
	.loc 1 1117 0 discriminator 2
	addl	%ecx, %eax	# D.12217, D.12217
	movl	%eax, %edi	# D.12217,
	call	clip1a	#
	movl	-84(%rbp), %edx	# j, tmp320
	movslq	%edx, %rdx	# tmp320, tmp319
	movl	-88(%rbp), %ecx	# i, tmp322
	movslq	%ecx, %rcx	# tmp322, tmp321
	salq	$4, %rcx	#, tmp323
	addq	%rcx, %rdx	# tmp323, tmp324
	addq	$6296, %rdx	#, tmp325
	movw	%ax, 8(%rbx,%rdx,2)	# D.12234, img.399_196->mpr
	.loc 1 1116 0 discriminator 2
	addl	$1, -88(%rbp)	#, i
.L232:
	.loc 1 1116 0 is_stmt 0 discriminator 1
	movl	-88(%rbp), %eax	# i, tmp326
	cmpl	-80(%rbp), %eax	# block_x4, tmp326
	jl	.L233	#,
	.loc 1 1115 0 is_stmt 1
	addl	$1, -84(%rbp)	#, j
.L231:
	.loc 1 1115 0 is_stmt 0 discriminator 1
	movl	-84(%rbp), %eax	# j, tmp327
	cmpl	-76(%rbp), %eax	# block_y4, tmp327
	jl	.L234	#,
	jmp	.L208	#
.L230:
	.loc 1 1122 0 is_stmt 1
	movl	-104(%rbp), %eax	# block_y, tmp328
	movl	%eax, -84(%rbp)	# tmp328, j
	jmp	.L235	#
.L238:
	.loc 1 1123 0
	movl	-100(%rbp), %eax	# block_x, tmp329
	movl	%eax, -88(%rbp)	# tmp329, i
	jmp	.L236	#
.L237:
	.loc 1 1124 0 discriminator 2
	movq	img(%rip), %rbx	# img, img.405
	movq	wp_weight(%rip), %rax	# wp_weight, wp_weight.406
	addq	$8, %rax	#, D.12230
	movq	(%rax), %rax	# *_228, D.12231
	movswq	-124(%rbp), %rdx	# bw_ref_idx, D.12219
	salq	$3, %rdx	#, D.12219
	addq	%rdx, %rax	# D.12219, D.12231
	movq	(%rax), %rax	# *_232, D.12232
	movl	(%rax), %ecx	# *_233, D.12217
	movq	-40(%rbp), %rax	# bpred, bpred.407
	leaq	4(%rax), %rdx	#, tmp330
	movq	%rdx, -40(%rbp)	# tmp330, bpred
	movl	(%rax), %eax	# *bpred.407_235, D.12217
	imull	%eax, %ecx	# D.12217, D.12217
	movl	%ecx, %edx	# D.12217, D.12217
	movl	wp_luma_round(%rip), %eax	# wp_luma_round, wp_luma_round.408
	addl	%eax, %edx	# wp_luma_round.408, D.12217
	movl	luma_log_weight_denom(%rip), %eax	# luma_log_weight_denom, luma_log_weight_denom.409
	movl	%eax, %ecx	# luma_log_weight_denom.409, tmp387
	sarl	%cl, %edx	# tmp387, D.12217
	movl	%edx, %ecx	# D.12217, D.12217
	.loc 1 1125 0 discriminator 2
	movq	wp_offset(%rip), %rax	# wp_offset, wp_offset.410
	addq	$8, %rax	#, D.12230
	movq	(%rax), %rax	# *_244, D.12231
	movswq	-124(%rbp), %rdx	# bw_ref_idx, D.12219
	salq	$3, %rdx	#, D.12219
	addq	%rdx, %rax	# D.12219, D.12231
	movq	(%rax), %rax	# *_248, D.12232
	movl	(%rax), %eax	# *_249, D.12217
	.loc 1 1124 0 discriminator 2
	addl	%ecx, %eax	# D.12217, D.12217
	movl	%eax, %edi	# D.12217,
	call	clip1a	#
	movl	-84(%rbp), %edx	# j, tmp332
	movslq	%edx, %rdx	# tmp332, tmp331
	movl	-88(%rbp), %ecx	# i, tmp334
	movslq	%ecx, %rcx	# tmp334, tmp333
	salq	$4, %rcx	#, tmp335
	addq	%rcx, %rdx	# tmp335, tmp336
	addq	$6296, %rdx	#, tmp337
	movw	%ax, 8(%rbx,%rdx,2)	# D.12234, img.405_226->mpr
	.loc 1 1123 0 discriminator 2
	addl	$1, -88(%rbp)	#, i
.L236:
	.loc 1 1123 0 is_stmt 0 discriminator 1
	movl	-88(%rbp), %eax	# i, tmp338
	cmpl	-80(%rbp), %eax	# block_x4, tmp338
	jl	.L237	#,
	.loc 1 1122 0 is_stmt 1
	addl	$1, -84(%rbp)	#, j
.L235:
	.loc 1 1122 0 is_stmt 0 discriminator 1
	movl	-84(%rbp), %eax	# j, tmp339
	cmpl	-76(%rbp), %eax	# block_y4, tmp339
	jl	.L238	#,
	jmp	.L208	#
.L223:
	.loc 1 1130 0 is_stmt 1
	cmpl	$2, -108(%rbp)	#, p_dir
	jne	.L239	#,
	.loc 1 1132 0
	movl	-104(%rbp), %eax	# block_y, tmp340
	movl	%eax, -84(%rbp)	# tmp340, j
	jmp	.L240	#
.L243:
	.loc 1 1133 0
	movl	-100(%rbp), %eax	# block_x, tmp341
	movl	%eax, -88(%rbp)	# tmp341, i
	jmp	.L241	#
.L242:
	.loc 1 1134 0 discriminator 2
	movq	img(%rip), %rdx	# img, img.411
	movq	-48(%rbp), %rax	# fpred, fpred.412
	leaq	4(%rax), %rcx	#, tmp342
	movq	%rcx, -48(%rbp)	# tmp342, fpred
	movl	(%rax), %esi	# *fpred.412_259, D.12217
	movq	-40(%rbp), %rax	# bpred, bpred.413
	leaq	4(%rax), %rcx	#, tmp343
	movq	%rcx, -40(%rbp)	# tmp343, bpred
	movl	(%rax), %eax	# *bpred.413_262, D.12217
	addl	%esi, %eax	# D.12217, D.12217
	addl	$1, %eax	#, D.12217
	movl	%eax, %ecx	# D.12217, tmp344
	shrl	$31, %ecx	#, tmp344
	addl	%ecx, %eax	# tmp344, tmp345
	sarl	%eax	# tmp346
	movl	-84(%rbp), %ecx	# j, tmp348
	movslq	%ecx, %rcx	# tmp348, tmp347
	movl	-88(%rbp), %esi	# i, tmp350
	movslq	%esi, %rsi	# tmp350, tmp349
	salq	$4, %rsi	#, tmp351
	addq	%rsi, %rcx	# tmp351, tmp352
	addq	$6296, %rcx	#, tmp353
	movw	%ax, 8(%rdx,%rcx,2)	# D.12234, img.411_258->mpr
	.loc 1 1133 0 discriminator 2
	addl	$1, -88(%rbp)	#, i
.L241:
	.loc 1 1133 0 is_stmt 0 discriminator 1
	movl	-88(%rbp), %eax	# i, tmp354
	cmpl	-80(%rbp), %eax	# block_x4, tmp354
	jl	.L242	#,
	.loc 1 1132 0 is_stmt 1
	addl	$1, -84(%rbp)	#, j
.L240:
	.loc 1 1132 0 is_stmt 0 discriminator 1
	movl	-84(%rbp), %eax	# j, tmp355
	cmpl	-76(%rbp), %eax	# block_y4, tmp355
	jl	.L243	#,
	jmp	.L208	#
.L239:
	.loc 1 1136 0 is_stmt 1
	cmpl	$0, -108(%rbp)	#, p_dir
	jne	.L244	#,
	.loc 1 1138 0
	movl	-104(%rbp), %eax	# block_y, tmp356
	movl	%eax, -84(%rbp)	# tmp356, j
	jmp	.L245	#
.L248:
	.loc 1 1139 0
	movl	-100(%rbp), %eax	# block_x, tmp357
	movl	%eax, -88(%rbp)	# tmp357, i
	jmp	.L246	#
.L247:
	.loc 1 1139 0 is_stmt 0 discriminator 2
	movq	img(%rip), %rdx	# img, img.414
	movq	-48(%rbp), %rax	# fpred, fpred.415
	leaq	4(%rax), %rcx	#, tmp358
	movq	%rcx, -48(%rbp)	# tmp358, fpred
	movl	(%rax), %eax	# *fpred.415_274, D.12217
	movl	-84(%rbp), %ecx	# j, tmp360
	movslq	%ecx, %rcx	# tmp360, tmp359
	movl	-88(%rbp), %esi	# i, tmp362
	movslq	%esi, %rsi	# tmp362, tmp361
	salq	$4, %rsi	#, tmp363
	addq	%rsi, %rcx	# tmp363, tmp364
	addq	$6296, %rcx	#, tmp365
	movw	%ax, 8(%rdx,%rcx,2)	# D.12234, img.414_273->mpr
	addl	$1, -88(%rbp)	#, i
.L246:
	.loc 1 1139 0 discriminator 1
	movl	-88(%rbp), %eax	# i, tmp366
	cmpl	-80(%rbp), %eax	# block_x4, tmp366
	jl	.L247	#,
	.loc 1 1138 0 is_stmt 1
	addl	$1, -84(%rbp)	#, j
.L245:
	.loc 1 1138 0 is_stmt 0 discriminator 1
	movl	-84(%rbp), %eax	# j, tmp367
	cmpl	-76(%rbp), %eax	# block_y4, tmp367
	jl	.L248	#,
	jmp	.L208	#
.L244:
	.loc 1 1143 0 is_stmt 1
	movl	-104(%rbp), %eax	# block_y, tmp368
	movl	%eax, -84(%rbp)	# tmp368, j
	jmp	.L249	#
.L252:
	.loc 1 1144 0
	movl	-100(%rbp), %eax	# block_x, tmp369
	movl	%eax, -88(%rbp)	# tmp369, i
	jmp	.L250	#
.L251:
	.loc 1 1144 0 is_stmt 0 discriminator 2
	movq	img(%rip), %rdx	# img, img.416
	movq	-40(%rbp), %rax	# bpred, bpred.417
	leaq	4(%rax), %rcx	#, tmp370
	movq	%rcx, -40(%rbp)	# tmp370, bpred
	movl	(%rax), %eax	# *bpred.417_283, D.12217
	movl	-84(%rbp), %ecx	# j, tmp372
	movslq	%ecx, %rcx	# tmp372, tmp371
	movl	-88(%rbp), %esi	# i, tmp374
	movslq	%esi, %rsi	# tmp374, tmp373
	salq	$4, %rsi	#, tmp375
	addq	%rsi, %rcx	# tmp375, tmp376
	addq	$6296, %rcx	#, tmp377
	movw	%ax, 8(%rdx,%rcx,2)	# D.12234, img.416_282->mpr
	addl	$1, -88(%rbp)	#, i
.L250:
	.loc 1 1144 0 discriminator 1
	movl	-88(%rbp), %eax	# i, tmp378
	cmpl	-80(%rbp), %eax	# block_x4, tmp378
	jl	.L251	#,
	.loc 1 1143 0 is_stmt 1
	addl	$1, -84(%rbp)	#, j
.L249:
	.loc 1 1143 0 is_stmt 0 discriminator 1
	movl	-84(%rbp), %eax	# j, tmp379
	cmpl	-76(%rbp), %eax	# block_y4, tmp379
	jl	.L252	#,
.L208:
	.loc 1 1147 0 is_stmt 1
	addq	$120, %rsp	#,
	popq	%rbx	#
	popq	%rbp	#
	.cfi_def_cfa 7, 8
	ret
	.cfi_endproc
.LFE12:
	.size	LumaPrediction4x4Bi, .-LumaPrediction4x4Bi
	.globl	LumaResidualCoding8x8
	.type	LumaResidualCoding8x8, @function
LumaResidualCoding8x8:
.LFB13:
	.loc 1 1167 0
	.cfi_startproc
	pushq	%rbp	#
	.cfi_def_cfa_offset 16
	.cfi_offset 6, -16
	movq	%rsp, %rbp	#,
	.cfi_def_cfa_register 6
	subq	$160, %rsp	#,
	movq	%rdi, -104(%rbp)	# cbp, cbp
	movq	%rsi, -112(%rbp)	# cbp_blk, cbp_blk
	movl	%edx, -116(%rbp)	# block8x8, block8x8
	movl	%ecx, %eax	# p_dir, tmp323
	movl	%r8d, -124(%rbp)	# fw_mode, fw_mode
	movl	%r9d, -128(%rbp)	# bw_mode, bw_mode
	movl	16(%rbp), %ecx	# fw_refframe, tmp324
	movl	24(%rbp), %edx	# bw_refframe, tmp325
	movw	%ax, -120(%rbp)	# tmp323, p_dir
	movw	%cx, -132(%rbp)	# tmp324, fw_refframe
	movw	%dx, -136(%rbp)	# tmp325, bw_refframe
	.loc 1 1168 0
	movl	$0, -72(%rbp)	#, nonzero
	.loc 1 1169 0
	movl	$0, -92(%rbp)	#, coeff_cost
	.loc 1 1170 0
	movl	-116(%rbp), %eax	# block8x8, tmp326
	movl	%eax, %edx	# tmp326, tmp327
	shrl	$31, %edx	#, tmp327
	addl	%edx, %eax	# tmp327, tmp328
	sarl	%eax	# tmp329
	sall	$3, %eax	#, tmp330
	movl	%eax, -60(%rbp)	# tmp330, mb_y
	.loc 1 1171 0
	movl	-116(%rbp), %eax	# block8x8, tmp331
	cltd
	shrl	$31, %edx	#, tmp333
	addl	%edx, %eax	# tmp333, tmp334
	andl	$1, %eax	#, tmp335
	subl	%edx, %eax	# tmp333, tmp336
	sall	$3, %eax	#, tmp337
	movl	%eax, -56(%rbp)	# tmp337, mb_x
	.loc 1 1172 0
	movl	-116(%rbp), %eax	# block8x8, tmp338
	movl	$1, %edx	#, tmp339
	movl	%eax, %ecx	# tmp338, tmp704
	sall	%cl, %edx	# tmp704, tmp340
	movl	%edx, %eax	# tmp340, tmp340
	movl	%eax, -52(%rbp)	# tmp340, cbp_mask
	.loc 1 1174 0
	movl	$0, -48(%rbp)	#, scrFlag
	.loc 1 1175 0
	cmpl	$0, -124(%rbp)	#, fw_mode
	jne	.L254	#,
	.loc 1 1175 0 is_stmt 0 discriminator 1
	cmpl	$0, -128(%rbp)	#, bw_mode
	jne	.L254	#,
	movq	img(%rip), %rax	# img, img.419
	movl	24(%rax), %eax	# img.419_43->type, D.12235
	cmpl	$1, %eax	#, D.12235
	je	.L254	#,
	.loc 1 1175 0 discriminator 3
	movl	$1, %eax	#, iftmp.418
	jmp	.L255	#
.L254:
	.loc 1 1175 0 discriminator 2
	movl	$0, %eax	#, iftmp.418
.L255:
	.loc 1 1175 0 discriminator 4
	movl	%eax, -44(%rbp)	# iftmp.418, skipped
	.loc 1 1176 0 is_stmt 1 discriminator 4
	movq	img(%rip), %rax	# img, img.420
	movq	14168(%rax), %rdx	# img.420_48->mb_data, D.12236
	movq	img(%rip), %rax	# img, img.421
	movl	12(%rax), %eax	# img.421_50->current_mb_nr, D.12235
	cltq
	imulq	$632, %rax, %rax	#, D.12237, D.12237
	addq	%rdx, %rax	# D.12236, tmp341
	movq	%rax, -8(%rbp)	# tmp341, currMB
	.loc 1 1178 0 discriminator 4
	movq	-8(%rbp), %rax	# currMB, tmp342
	movl	572(%rax), %eax	# currMB_54->luma_transform_size_8x8_flag, tmp343
	movl	%eax, -40(%rbp)	# tmp343, need_8x8_transform
	.loc 1 1182 0 discriminator 4
	movq	img(%rip), %rax	# img, img.422
	movl	24(%rax), %eax	# img.422_56->type, D.12235
	cmpl	$1, %eax	#, D.12235
	jne	.L256	#,
	.loc 1 1183 0
	movl	$1, -48(%rbp)	#, scrFlag
.L256:
	.loc 1 1186 0
	movl	$0, -64(%rbp)	#, byy
	movl	-60(%rbp), %eax	# mb_y, tmp344
	movl	%eax, -88(%rbp)	# tmp344, block_y
	jmp	.L257	#
.L300:
	.loc 1 1188 0
	movq	img(%rip), %rax	# img, img.423
	movl	172(%rax), %edx	# img.423_62->opix_y, D.12235
	movl	-88(%rbp), %eax	# block_y, tmp348
	addl	%edx, %eax	# D.12235, tmp347
	movl	%eax, -36(%rbp)	# tmp347, pic_pix_y
	.loc 1 1190 0
	movl	$0, -68(%rbp)	#, bxx
	movl	-56(%rbp), %eax	# mb_x, tmp349
	movl	%eax, -84(%rbp)	# tmp349, block_x
	jmp	.L258	#
.L299:
	.loc 1 1192 0
	movq	img(%rip), %rax	# img, img.424
	movl	168(%rax), %edx	# img.424_68->opix_x, D.12235
	movl	-84(%rbp), %eax	# block_x, tmp353
	addl	%edx, %eax	# D.12235, tmp352
	movl	%eax, -32(%rbp)	# tmp352, pic_pix_x
	.loc 1 1194 0
	movl	-84(%rbp), %eax	# block_x, tmp354
	sarl	$2, %eax	#, D.12235
	movl	%eax, %edx	# D.12235, D.12235
	movl	-88(%rbp), %eax	# block_y, tmp358
	addl	%edx, %eax	# D.12235, tmp357
	movl	%eax, -28(%rbp)	# tmp357, cbp_blk_mask
	.loc 1 1197 0
	movq	img(%rip), %rax	# img, img.425
	movl	72724(%rax), %eax	# img.425_73->residue_transform_flag, D.12235
	testl	%eax, %eax	# D.12235
	je	.L259	#,
	.loc 1 1199 0
	movswl	-136(%rbp), %edi	# bw_refframe, D.12235
	movswl	-132(%rbp), %esi	# fw_refframe, D.12235
	movswl	-120(%rbp), %ecx	# p_dir, D.12235
	movl	-128(%rbp), %r9d	# bw_mode, tmp359
	movl	-124(%rbp), %r8d	# fw_mode, tmp360
	movl	-88(%rbp), %edx	# block_y, tmp361
	movl	-84(%rbp), %eax	# block_x, tmp362
	movl	%edi, 8(%rsp)	# D.12235,
	movl	%esi, (%rsp)	# D.12235,
	movl	%eax, %esi	# tmp362,
	movl	$0, %edi	#,
	call	ChromaPrediction4x4	#
	.loc 1 1200 0
	movl	$0, -76(%rbp)	#, j
	jmp	.L260	#
.L263:
	.loc 1 1201 0
	movl	$0, -80(%rbp)	#, i
	jmp	.L261	#
.L262:
	.loc 1 1202 0 discriminator 2
	movl	-84(%rbp), %eax	# block_x, tmp363
	movl	-80(%rbp), %edx	# i, tmp364
	leal	(%rdx,%rax), %esi	#, D.12235
	movl	-88(%rbp), %eax	# block_y, tmp365
	movl	-76(%rbp), %edx	# j, tmp366
	leal	(%rdx,%rax), %edi	#, D.12235
	movq	img(%rip), %rax	# img, img.426
	movl	-84(%rbp), %edx	# block_x, tmp367
	movl	-80(%rbp), %ecx	# i, tmp368
	leal	(%rcx,%rdx), %r8d	#, D.12235
	movl	-88(%rbp), %edx	# block_y, tmp369
	movl	-76(%rbp), %ecx	# j, tmp370
	addl	%ecx, %edx	# tmp370, D.12235
	movslq	%edx, %rdx	# D.12235, tmp371
	movslq	%r8d, %rcx	# D.12235, tmp372
	salq	$4, %rcx	#, tmp373
	addq	%rcx, %rdx	# tmp373, tmp374
	addq	$6296, %rdx	#, tmp375
	movzwl	8(%rax,%rdx,2), %eax	# img.426_85->mpr, D.12238
	movzwl	%ax, %eax	# D.12238, D.12235
	movslq	%edi, %rdx	# D.12235, tmp376
	movslq	%esi, %rcx	# D.12235, tmp377
	salq	$4, %rcx	#, tmp378
	addq	%rcx, %rdx	# tmp378, tmp379
	addq	$256, %rdx	#, tmp380
	movl	%eax, mprRGB(,%rdx,4)	# D.12235, mprRGB
	.loc 1 1201 0 discriminator 2
	addl	$1, -80(%rbp)	#, i
.L261:
	.loc 1 1201 0 is_stmt 0 discriminator 1
	cmpl	$3, -80(%rbp)	#, i
	jle	.L262	#,
	.loc 1 1200 0 is_stmt 1
	addl	$1, -76(%rbp)	#, j
.L260:
	.loc 1 1200 0 is_stmt 0 discriminator 1
	cmpl	$3, -76(%rbp)	#, j
	jle	.L263	#,
	.loc 1 1204 0 is_stmt 1
	movswl	-136(%rbp), %edi	# bw_refframe, D.12235
	movswl	-132(%rbp), %esi	# fw_refframe, D.12235
	movswl	-120(%rbp), %ecx	# p_dir, D.12235
	movl	-128(%rbp), %r9d	# bw_mode, tmp381
	movl	-124(%rbp), %r8d	# fw_mode, tmp382
	movl	-88(%rbp), %edx	# block_y, tmp383
	movl	-84(%rbp), %eax	# block_x, tmp384
	movl	%edi, 8(%rsp)	# D.12235,
	movl	%esi, (%rsp)	# D.12235,
	movl	%eax, %esi	# tmp384,
	movl	$1, %edi	#,
	call	ChromaPrediction4x4	#
	.loc 1 1205 0
	movl	$0, -76(%rbp)	#, j
	jmp	.L264	#
.L267:
	.loc 1 1206 0
	movl	$0, -80(%rbp)	#, i
	jmp	.L265	#
.L266:
	.loc 1 1207 0 discriminator 2
	movl	-84(%rbp), %eax	# block_x, tmp385
	movl	-80(%rbp), %edx	# i, tmp386
	leal	(%rdx,%rax), %esi	#, D.12235
	movl	-88(%rbp), %eax	# block_y, tmp387
	movl	-76(%rbp), %edx	# j, tmp388
	leal	(%rdx,%rax), %edi	#, D.12235
	movq	img(%rip), %rax	# img, img.427
	movl	-84(%rbp), %edx	# block_x, tmp389
	movl	-80(%rbp), %ecx	# i, tmp390
	leal	(%rcx,%rdx), %r8d	#, D.12235
	movl	-88(%rbp), %edx	# block_y, tmp391
	movl	-76(%rbp), %ecx	# j, tmp392
	addl	%ecx, %edx	# tmp392, D.12235
	movslq	%edx, %rdx	# D.12235, tmp393
	movslq	%r8d, %rcx	# D.12235, tmp394
	salq	$4, %rcx	#, tmp395
	addq	%rcx, %rdx	# tmp395, tmp396
	addq	$6296, %rdx	#, tmp397
	movzwl	8(%rax,%rdx,2), %eax	# img.427_99->mpr, D.12238
	movzwl	%ax, %eax	# D.12238, D.12235
	movslq	%edi, %rdx	# D.12235, tmp398
	movslq	%esi, %rcx	# D.12235, tmp399
	salq	$4, %rcx	#, tmp400
	addq	%rcx, %rdx	# tmp400, tmp401
	addq	$512, %rdx	#, tmp402
	movl	%eax, mprRGB(,%rdx,4)	# D.12235, mprRGB
	.loc 1 1206 0 discriminator 2
	addl	$1, -80(%rbp)	#, i
.L265:
	.loc 1 1206 0 is_stmt 0 discriminator 1
	cmpl	$3, -80(%rbp)	#, i
	jle	.L266	#,
	.loc 1 1205 0 is_stmt 1
	addl	$1, -76(%rbp)	#, j
.L264:
	.loc 1 1205 0 is_stmt 0 discriminator 1
	cmpl	$3, -76(%rbp)	#, j
	jle	.L267	#,
.L259:
	.loc 1 1211 0 is_stmt 1
	movswl	-136(%rbp), %edi	# bw_refframe, D.12235
	movswl	-132(%rbp), %r9d	# fw_refframe, D.12235
	movswl	-120(%rbp), %edx	# p_dir, D.12235
	movl	-128(%rbp), %r8d	# bw_mode, tmp403
	movl	-124(%rbp), %ecx	# fw_mode, tmp404
	movl	-88(%rbp), %esi	# block_y, tmp405
	movl	-84(%rbp), %eax	# block_x, tmp406
	movl	%edi, (%rsp)	# D.12235,
	movl	%eax, %edi	# tmp406,
	call	LumaPrediction4x4	#
	.loc 1 1214 0
	movq	img(%rip), %rax	# img, img.428
	movl	72724(%rax), %eax	# img.428_109->residue_transform_flag, D.12235
	testl	%eax, %eax	# D.12235
	je	.L268	#,
	.loc 1 1215 0
	movl	$0, -76(%rbp)	#, j
	jmp	.L269	#
.L272:
	.loc 1 1216 0
	movl	$0, -80(%rbp)	#, i
	jmp	.L270	#
.L271:
	.loc 1 1217 0 discriminator 2
	movl	-84(%rbp), %eax	# block_x, tmp407
	movl	-80(%rbp), %edx	# i, tmp408
	leal	(%rdx,%rax), %esi	#, D.12235
	movl	-88(%rbp), %eax	# block_y, tmp409
	movl	-76(%rbp), %edx	# j, tmp410
	leal	(%rdx,%rax), %edi	#, D.12235
	movq	img(%rip), %rax	# img, img.429
	movl	-84(%rbp), %edx	# block_x, tmp411
	movl	-80(%rbp), %ecx	# i, tmp412
	leal	(%rcx,%rdx), %r8d	#, D.12235
	movl	-88(%rbp), %edx	# block_y, tmp413
	movl	-76(%rbp), %ecx	# j, tmp414
	addl	%ecx, %edx	# tmp414, D.12235
	movslq	%edx, %rdx	# D.12235, tmp415
	movslq	%r8d, %rcx	# D.12235, tmp416
	salq	$4, %rcx	#, tmp417
	addq	%rcx, %rdx	# tmp417, tmp418
	addq	$6296, %rdx	#, tmp419
	movzwl	8(%rax,%rdx,2), %eax	# img.429_115->mpr, D.12238
	movzwl	%ax, %eax	# D.12238, D.12235
	movslq	%edi, %rdx	# D.12235, tmp420
	movslq	%esi, %rcx	# D.12235, tmp421
	salq	$4, %rcx	#, tmp422
	addq	%rcx, %rdx	# tmp422, tmp423
	movl	%eax, mprRGB(,%rdx,4)	# D.12235, mprRGB
	.loc 1 1216 0 discriminator 2
	addl	$1, -80(%rbp)	#, i
.L270:
	.loc 1 1216 0 is_stmt 0 discriminator 1
	cmpl	$3, -80(%rbp)	#, i
	jle	.L271	#,
	.loc 1 1215 0 is_stmt 1
	addl	$1, -76(%rbp)	#, j
.L269:
	.loc 1 1215 0 is_stmt 0 discriminator 1
	cmpl	$3, -76(%rbp)	#, j
	jle	.L272	#,
.L268:
	.loc 1 1220 0 is_stmt 1
	movq	img(%rip), %rax	# img, img.430
	movl	72724(%rax), %eax	# img.430_122->residue_transform_flag, D.12235
	testl	%eax, %eax	# D.12235
	jne	.L273	#,
	.loc 1 1222 0
	cmpl	$0, -40(%rbp)	#, need_8x8_transform
	jne	.L274	#,
	.loc 1 1226 0
	movl	$0, -76(%rbp)	#, j
	jmp	.L275	#
.L278:
	.loc 1 1227 0
	movl	$0, -80(%rbp)	#, i
	jmp	.L276	#
.L277:
	.loc 1 1229 0 discriminator 2
	movq	img(%rip), %rax	# img, img.431
	movq	imgY_org(%rip), %rdx	# imgY_org, imgY_org.432
	movl	-76(%rbp), %ecx	# j, tmp424
	movl	-36(%rbp), %esi	# pic_pix_y, tmp425
	addl	%esi, %ecx	# tmp425, D.12235
	movslq	%ecx, %rcx	# D.12235, D.12237
	salq	$3, %rcx	#, D.12237
	addq	%rcx, %rdx	# D.12237, D.12239
	movq	(%rdx), %rdx	# *_131, D.12240
	movl	-80(%rbp), %ecx	# i, tmp426
	movl	-32(%rbp), %esi	# pic_pix_x, tmp427
	addl	%esi, %ecx	# tmp427, D.12235
	movslq	%ecx, %rcx	# D.12235, D.12237
	addq	%rcx, %rcx	# D.12237
	addq	%rcx, %rdx	# D.12237, D.12240
	movzwl	(%rdx), %edx	# *_136, D.12238
	movzwl	%dx, %ecx	# D.12238, D.12235
	movq	img(%rip), %rdx	# img, img.433
	movl	-84(%rbp), %esi	# block_x, tmp428
	movl	-80(%rbp), %edi	# i, tmp429
	leal	(%rdi,%rsi), %r8d	#, D.12235
	movl	-88(%rbp), %esi	# block_y, tmp430
	movl	-76(%rbp), %edi	# j, tmp431
	addl	%edi, %esi	# tmp431, D.12235
	movslq	%esi, %rsi	# D.12235, tmp432
	movslq	%r8d, %rdi	# D.12235, tmp433
	salq	$4, %rdi	#, tmp434
	addq	%rdi, %rsi	# tmp434, tmp435
	addq	$6296, %rsi	#, tmp436
	movzwl	8(%rdx,%rsi,2), %edx	# img.433_139->mpr, D.12238
	movzwl	%dx, %edx	# D.12238, D.12235
	subl	%edx, %ecx	# D.12235, D.12235
	movl	-76(%rbp), %edx	# j, tmp438
	movslq	%edx, %rdx	# tmp438, tmp437
	movl	-80(%rbp), %esi	# i, tmp440
	movslq	%esi, %rsi	# tmp440, tmp439
	salq	$4, %rsi	#, tmp441
	addq	%rsi, %rdx	# tmp441, tmp442
	addq	$3276, %rdx	#, tmp443
	movl	%ecx, 8(%rax,%rdx,4)	# D.12235, img.431_126->m7
	.loc 1 1227 0 discriminator 2
	addl	$1, -80(%rbp)	#, i
.L276:
	.loc 1 1227 0 is_stmt 0 discriminator 1
	cmpl	$3, -80(%rbp)	#, i
	jle	.L277	#,
	.loc 1 1226 0 is_stmt 1
	addl	$1, -76(%rbp)	#, j
.L275:
	.loc 1 1226 0 is_stmt 0 discriminator 1
	cmpl	$3, -76(%rbp)	#, j
	jle	.L278	#,
	.loc 1 1233 0 is_stmt 1
	movq	img(%rip), %rax	# img, img.434
	movl	72392(%rax), %eax	# img.434_147->NoResidueDirect, D.12235
	cmpl	$1, %eax	#, D.12235
	je	.L282	#,
	.loc 1 1233 0 is_stmt 0 discriminator 1
	cmpl	$0, -44(%rbp)	#, skipped
	jne	.L282	#,
	.loc 1 1236 0 is_stmt 1
	movq	img(%rip), %rax	# img, img.435
	movl	24(%rax), %eax	# img.435_149->type, D.12235
	cmpl	$3, %eax	#, D.12235
	je	.L280	#,
	.loc 1 1236 0 is_stmt 0 discriminator 1
	leaq	-92(%rbp), %rdx	#, tmp444
	movl	-88(%rbp), %esi	# block_y, tmp445
	movl	-84(%rbp), %eax	# block_x, tmp446
	movl	$0, %ecx	#,
	movl	%eax, %edi	# tmp446,
	call	dct_luma	#
	movl	%eax, -72(%rbp)	# tmp447, nonzero
	jmp	.L281	#
.L280:
	.loc 1 1237 0 is_stmt 1
	leaq	-92(%rbp), %rdx	#, tmp448
	movl	-88(%rbp), %ecx	# block_y, tmp449
	movl	-84(%rbp), %eax	# block_x, tmp450
	movl	%ecx, %esi	# tmp449,
	movl	%eax, %edi	# tmp450,
	call	dct_luma_sp	#
	movl	%eax, -72(%rbp)	# tmp451, nonzero
.L281:
	.loc 1 1238 0
	cmpl	$0, -72(%rbp)	#, nonzero
	je	.L282	#,
	.loc 1 1240 0
	movq	-112(%rbp), %rax	# cbp_blk, tmp452
	movq	(%rax), %rdx	# *cbp_blk_153(D), D.12241
	movl	-28(%rbp), %eax	# cbp_blk_mask, tmp453
	movl	$1, %esi	#, tmp454
	movl	%eax, %ecx	# tmp453, tmp707
	sall	%cl, %esi	# tmp707, D.12235
	movl	%esi, %eax	# D.12235, D.12235
	cltq
	orq	%rax, %rdx	# D.12241, D.12241
	movq	-112(%rbp), %rax	# cbp_blk, tmp455
	movq	%rdx, (%rax)	# D.12241, *cbp_blk_153(D)
	.loc 1 1241 0
	movq	-104(%rbp), %rax	# cbp, tmp456
	movl	(%rax), %eax	# *cbp_158(D), D.12235
	orl	-52(%rbp), %eax	# cbp_mask, D.12235
	movl	%eax, %edx	# D.12235, D.12235
	movq	-104(%rbp), %rax	# cbp, tmp457
	movl	%edx, (%rax)	# D.12235, *cbp_158(D)
	jmp	.L282	#
.L274:
	.loc 1 1247 0
	movl	$0, -76(%rbp)	#, j
	jmp	.L283	#
.L286:
	.loc 1 1248 0
	movl	$0, -80(%rbp)	#, i
	jmp	.L284	#
.L285:
	.loc 1 1250 0 discriminator 2
	movq	img(%rip), %rax	# img, img.436
	movl	-68(%rbp), %edx	# bxx, tmp458
	movl	-80(%rbp), %ecx	# i, tmp459
	leal	(%rcx,%rdx), %r8d	#, D.12235
	movl	-64(%rbp), %edx	# byy, tmp460
	movl	-76(%rbp), %ecx	# j, tmp461
	leal	(%rcx,%rdx), %r9d	#, D.12235
	movq	imgY_org(%rip), %rdx	# imgY_org, imgY_org.437
	movl	-76(%rbp), %ecx	# j, tmp462
	movl	-36(%rbp), %esi	# pic_pix_y, tmp463
	addl	%esi, %ecx	# tmp463, D.12235
	movslq	%ecx, %rcx	# D.12235, D.12237
	salq	$3, %rcx	#, D.12237
	addq	%rcx, %rdx	# D.12237, D.12239
	movq	(%rdx), %rdx	# *_170, D.12240
	movl	-80(%rbp), %ecx	# i, tmp464
	movl	-32(%rbp), %esi	# pic_pix_x, tmp465
	addl	%esi, %ecx	# tmp465, D.12235
	movslq	%ecx, %rcx	# D.12235, D.12237
	addq	%rcx, %rcx	# D.12237
	addq	%rcx, %rdx	# D.12237, D.12240
	movzwl	(%rdx), %edx	# *_175, D.12238
	movzwl	%dx, %ecx	# D.12238, D.12235
	movq	img(%rip), %rdx	# img, img.438
	movl	-84(%rbp), %esi	# block_x, tmp466
	movl	-80(%rbp), %edi	# i, tmp467
	leal	(%rdi,%rsi), %r10d	#, D.12235
	movl	-88(%rbp), %esi	# block_y, tmp468
	movl	-76(%rbp), %edi	# j, tmp469
	addl	%edi, %esi	# tmp469, D.12235
	movslq	%esi, %rsi	# D.12235, tmp470
	movslq	%r10d, %rdi	# D.12235, tmp471
	salq	$4, %rdi	#, tmp472
	addq	%rdi, %rsi	# tmp472, tmp473
	addq	$6296, %rsi	#, tmp474
	movzwl	8(%rdx,%rsi,2), %edx	# img.438_178->mpr, D.12238
	movzwl	%dx, %edx	# D.12238, D.12235
	subl	%edx, %ecx	# D.12235, D.12235
	movslq	%r9d, %rdx	# D.12235, tmp475
	movslq	%r8d, %rsi	# D.12235, tmp476
	salq	$4, %rsi	#, tmp477
	addq	%rsi, %rdx	# tmp477, tmp478
	addq	$3276, %rdx	#, tmp479
	movl	%ecx, 8(%rax,%rdx,4)	# D.12235, img.436_163->m7
	.loc 1 1248 0 discriminator 2
	addl	$1, -80(%rbp)	#, i
.L284:
	.loc 1 1248 0 is_stmt 0 discriminator 1
	cmpl	$3, -80(%rbp)	#, i
	jle	.L285	#,
	.loc 1 1247 0 is_stmt 1
	addl	$1, -76(%rbp)	#, j
.L283:
	.loc 1 1247 0 is_stmt 0 discriminator 1
	cmpl	$3, -76(%rbp)	#, j
	jle	.L286	#,
	jmp	.L282	#
.L273:
	.loc 1 1257 0 is_stmt 1
	movl	$0, -76(%rbp)	#, j
	jmp	.L287	#
.L292:
	.loc 1 1258 0
	movl	$0, -80(%rbp)	#, i
	jmp	.L288	#
.L291:
	.loc 1 1260 0
	movq	imgUV_org(%rip), %rax	# imgUV_org, imgUV_org.439
	movq	(%rax), %rax	# *imgUV_org.439_188, D.12239
	movl	-76(%rbp), %edx	# j, tmp480
	movl	-36(%rbp), %ecx	# pic_pix_y, tmp481
	addl	%ecx, %edx	# tmp481, D.12235
	movslq	%edx, %rdx	# D.12235, D.12237
	salq	$3, %rdx	#, D.12237
	addq	%rdx, %rax	# D.12237, D.12239
	movq	(%rax), %rax	# *_193, D.12240
	movl	-80(%rbp), %edx	# i, tmp482
	movl	-32(%rbp), %ecx	# pic_pix_x, tmp483
	addl	%ecx, %edx	# tmp483, D.12235
	movslq	%edx, %rdx	# D.12235, D.12237
	addq	%rdx, %rdx	# D.12237
	addq	%rdx, %rax	# D.12237, D.12240
	movzwl	(%rax), %eax	# *_198, D.12238
	movzwl	%ax, %edx	# D.12238, D.12235
	movl	-84(%rbp), %eax	# block_x, tmp484
	movl	-80(%rbp), %ecx	# i, tmp485
	leal	(%rcx,%rax), %esi	#, D.12235
	movl	-88(%rbp), %eax	# block_y, tmp486
	movl	-76(%rbp), %ecx	# j, tmp487
	addl	%ecx, %eax	# tmp487, D.12235
	cltq
	movslq	%esi, %rcx	# D.12235, tmp489
	salq	$4, %rcx	#, tmp490
	addq	%rcx, %rax	# tmp490, tmp491
	addq	$256, %rax	#, tmp492
	movl	mprRGB(,%rax,4), %eax	# mprRGB, D.12235
	subl	%eax, %edx	# D.12235, tmp493
	movl	%edx, %eax	# tmp493, tmp493
	movl	%eax, -24(%rbp)	# tmp493, residue_B
	.loc 1 1261 0
	movq	imgY_org(%rip), %rax	# imgY_org, imgY_org.440
	movl	-76(%rbp), %edx	# j, tmp494
	movl	-36(%rbp), %ecx	# pic_pix_y, tmp495
	addl	%ecx, %edx	# tmp495, D.12235
	movslq	%edx, %rdx	# D.12235, D.12237
	salq	$3, %rdx	#, D.12237
	addq	%rdx, %rax	# D.12237, D.12239
	movq	(%rax), %rax	# *_209, D.12240
	movl	-80(%rbp), %edx	# i, tmp496
	movl	-32(%rbp), %ecx	# pic_pix_x, tmp497
	addl	%ecx, %edx	# tmp497, D.12235
	movslq	%edx, %rdx	# D.12235, D.12237
	addq	%rdx, %rdx	# D.12237
	addq	%rdx, %rax	# D.12237, D.12240
	movzwl	(%rax), %eax	# *_214, D.12238
	movzwl	%ax, %edx	# D.12238, D.12235
	movl	-84(%rbp), %eax	# block_x, tmp498
	movl	-80(%rbp), %ecx	# i, tmp499
	leal	(%rcx,%rax), %esi	#, D.12235
	movl	-88(%rbp), %eax	# block_y, tmp500
	movl	-76(%rbp), %ecx	# j, tmp501
	addl	%ecx, %eax	# tmp501, D.12235
	cltq
	movslq	%esi, %rcx	# D.12235, tmp503
	salq	$4, %rcx	#, tmp504
	addq	%rcx, %rax	# tmp504, tmp505
	movl	mprRGB(,%rax,4), %eax	# mprRGB, D.12235
	subl	%eax, %edx	# D.12235, tmp506
	movl	%edx, %eax	# tmp506, tmp506
	movl	%eax, -20(%rbp)	# tmp506, residue_G
	.loc 1 1262 0
	movq	imgUV_org(%rip), %rax	# imgUV_org, imgUV_org.441
	addq	$8, %rax	#, D.12242
	movq	(%rax), %rax	# *_222, D.12239
	movl	-76(%rbp), %edx	# j, tmp507
	movl	-36(%rbp), %ecx	# pic_pix_y, tmp508
	addl	%ecx, %edx	# tmp508, D.12235
	movslq	%edx, %rdx	# D.12235, D.12237
	salq	$3, %rdx	#, D.12237
	addq	%rdx, %rax	# D.12237, D.12239
	movq	(%rax), %rax	# *_227, D.12240
	movl	-80(%rbp), %edx	# i, tmp509
	movl	-32(%rbp), %ecx	# pic_pix_x, tmp510
	addl	%ecx, %edx	# tmp510, D.12235
	movslq	%edx, %rdx	# D.12235, D.12237
	addq	%rdx, %rdx	# D.12237
	addq	%rdx, %rax	# D.12237, D.12240
	movzwl	(%rax), %eax	# *_232, D.12238
	movzwl	%ax, %edx	# D.12238, D.12235
	movl	-84(%rbp), %eax	# block_x, tmp511
	movl	-80(%rbp), %ecx	# i, tmp512
	leal	(%rcx,%rax), %esi	#, D.12235
	movl	-88(%rbp), %eax	# block_y, tmp513
	movl	-76(%rbp), %ecx	# j, tmp514
	addl	%ecx, %eax	# tmp514, D.12235
	cltq
	movslq	%esi, %rcx	# D.12235, tmp516
	salq	$4, %rcx	#, tmp517
	addq	%rcx, %rax	# tmp517, tmp518
	addq	$512, %rax	#, tmp519
	movl	mprRGB(,%rax,4), %eax	# mprRGB, D.12235
	subl	%eax, %edx	# D.12235, tmp520
	movl	%edx, %eax	# tmp520, tmp520
	movl	%eax, -16(%rbp)	# tmp520, residue_R
	.loc 1 1264 0
	movl	-84(%rbp), %eax	# block_x, tmp521
	movl	-80(%rbp), %edx	# i, tmp522
	leal	(%rdx,%rax), %ecx	#, D.12235
	movl	-88(%rbp), %eax	# block_y, tmp523
	movl	-76(%rbp), %edx	# j, tmp524
	leal	(%rdx,%rax), %esi	#, D.12235
	movl	-24(%rbp), %eax	# residue_B, tmp525
	movl	-16(%rbp), %edx	# residue_R, tmp526
	subl	%eax, %edx	# tmp525, D.12235
	movslq	%esi, %rax	# D.12235, tmp527
	movslq	%ecx, %rcx	# D.12235, tmp528
	salq	$4, %rcx	#, tmp529
	addq	%rcx, %rax	# tmp529, tmp530
	movl	%edx, resTrans_R(,%rax,4)	# D.12235, resTrans_R
	.loc 1 1265 0
	movl	-84(%rbp), %eax	# block_x, tmp531
	movl	-80(%rbp), %edx	# i, tmp532
	leal	(%rdx,%rax), %ecx	#, D.12235
	movl	-88(%rbp), %eax	# block_y, tmp533
	movl	-76(%rbp), %edx	# j, tmp534
	addl	%edx, %eax	# tmp534, D.12235
	cltq
	movslq	%ecx, %rdx	# D.12235, tmp536
	salq	$4, %rdx	#, tmp537
	addq	%rdx, %rax	# tmp537, tmp538
	movl	resTrans_R(,%rax,4), %eax	# resTrans_R, D.12235
	sarl	%eax	# D.12235
	movl	%eax, %edx	# D.12235, D.12235
	movl	-24(%rbp), %eax	# residue_B, tmp542
	addl	%edx, %eax	# D.12235, tmp541
	movl	%eax, -12(%rbp)	# tmp541, temp
	.loc 1 1266 0
	movl	-84(%rbp), %eax	# block_x, tmp543
	movl	-80(%rbp), %edx	# i, tmp544
	leal	(%rdx,%rax), %ecx	#, D.12235
	movl	-88(%rbp), %eax	# block_y, tmp545
	movl	-76(%rbp), %edx	# j, tmp546
	leal	(%rdx,%rax), %esi	#, D.12235
	movl	-12(%rbp), %eax	# temp, tmp547
	movl	-20(%rbp), %edx	# residue_G, tmp548
	subl	%eax, %edx	# tmp547, D.12235
	movslq	%esi, %rax	# D.12235, tmp549
	movslq	%ecx, %rcx	# D.12235, tmp550
	salq	$4, %rcx	#, tmp551
	addq	%rcx, %rax	# tmp551, tmp552
	movl	%edx, resTrans_B(,%rax,4)	# D.12235, resTrans_B
	.loc 1 1267 0
	movl	-84(%rbp), %eax	# block_x, tmp553
	movl	-80(%rbp), %edx	# i, tmp554
	leal	(%rdx,%rax), %ecx	#, D.12235
	movl	-88(%rbp), %eax	# block_y, tmp555
	movl	-76(%rbp), %edx	# j, tmp556
	leal	(%rdx,%rax), %esi	#, D.12235
	movl	-84(%rbp), %eax	# block_x, tmp557
	movl	-80(%rbp), %edx	# i, tmp558
	leal	(%rdx,%rax), %edi	#, D.12235
	movl	-88(%rbp), %eax	# block_y, tmp559
	movl	-76(%rbp), %edx	# j, tmp560
	addl	%edx, %eax	# tmp560, D.12235
	cltq
	movslq	%edi, %rdx	# D.12235, tmp562
	salq	$4, %rdx	#, tmp563
	addq	%rdx, %rax	# tmp563, tmp564
	movl	resTrans_B(,%rax,4), %eax	# resTrans_B, D.12235
	sarl	%eax	# D.12235
	movl	%eax, %edx	# D.12235, D.12235
	movl	-12(%rbp), %eax	# temp, tmp565
	addl	%eax, %edx	# tmp565, D.12235
	movslq	%esi, %rax	# D.12235, tmp566
	movslq	%ecx, %rcx	# D.12235, tmp567
	salq	$4, %rcx	#, tmp568
	addq	%rcx, %rax	# tmp568, tmp569
	movl	%edx, resTrans_G(,%rax,4)	# D.12235, resTrans_G
	.loc 1 1269 0
	cmpl	$0, -40(%rbp)	#, need_8x8_transform
	jne	.L289	#,
	.loc 1 1270 0
	movq	img(%rip), %rax	# img, img.442
	movl	-84(%rbp), %edx	# block_x, tmp570
	movl	-80(%rbp), %ecx	# i, tmp571
	leal	(%rcx,%rdx), %esi	#, D.12235
	movl	-88(%rbp), %edx	# block_y, tmp572
	movl	-76(%rbp), %ecx	# j, tmp573
	addl	%ecx, %edx	# tmp573, D.12235
	movslq	%edx, %rdx	# D.12235, tmp574
	movslq	%esi, %rcx	# D.12235, tmp575
	salq	$4, %rcx	#, tmp576
	addq	%rcx, %rdx	# tmp576, tmp577
	movl	resTrans_G(,%rdx,4), %edx	# resTrans_G, D.12235
	movl	-76(%rbp), %ecx	# j, tmp579
	movslq	%ecx, %rcx	# tmp579, tmp578
	movl	-80(%rbp), %esi	# i, tmp581
	movslq	%esi, %rsi	# tmp581, tmp580
	salq	$4, %rsi	#, tmp582
	addq	%rsi, %rcx	# tmp582, tmp583
	addq	$3276, %rcx	#, tmp584
	movl	%edx, 8(%rax,%rcx,4)	# D.12235, img.442_257->m7
	jmp	.L290	#
.L289:
	.loc 1 1272 0
	movq	img(%rip), %rax	# img, img.443
	movl	-68(%rbp), %edx	# bxx, tmp585
	movl	-80(%rbp), %ecx	# i, tmp586
	leal	(%rcx,%rdx), %esi	#, D.12235
	movl	-64(%rbp), %edx	# byy, tmp587
	movl	-76(%rbp), %ecx	# j, tmp588
	leal	(%rcx,%rdx), %edi	#, D.12235
	movl	-84(%rbp), %edx	# block_x, tmp589
	movl	-80(%rbp), %ecx	# i, tmp590
	leal	(%rcx,%rdx), %r8d	#, D.12235
	movl	-88(%rbp), %edx	# block_y, tmp591
	movl	-76(%rbp), %ecx	# j, tmp592
	addl	%ecx, %edx	# tmp592, D.12235
	movslq	%edx, %rdx	# D.12235, tmp593
	movslq	%r8d, %rcx	# D.12235, tmp594
	salq	$4, %rcx	#, tmp595
	addq	%rcx, %rdx	# tmp595, tmp596
	movl	resTrans_G(,%rdx,4), %edx	# resTrans_G, D.12235
	movslq	%edi, %rcx	# D.12235, tmp597
	movslq	%esi, %rsi	# D.12235, tmp598
	salq	$4, %rsi	#, tmp599
	addq	%rsi, %rcx	# tmp599, tmp600
	addq	$3276, %rcx	#, tmp601
	movl	%edx, 8(%rax,%rcx,4)	# D.12235, img.443_261->m7
.L290:
	.loc 1 1258 0
	addl	$1, -80(%rbp)	#, i
.L288:
	.loc 1 1258 0 is_stmt 0 discriminator 1
	cmpl	$3, -80(%rbp)	#, i
	jle	.L291	#,
	.loc 1 1257 0 is_stmt 1
	addl	$1, -76(%rbp)	#, j
.L287:
	.loc 1 1257 0 is_stmt 0 discriminator 1
	cmpl	$3, -76(%rbp)	#, j
	jle	.L292	#,
	.loc 1 1277 0 is_stmt 1
	movq	img(%rip), %rax	# img, img.444
	movl	72392(%rax), %eax	# img.444_269->NoResidueDirect, D.12235
	cmpl	$1, %eax	#, D.12235
	je	.L282	#,
	.loc 1 1277 0 is_stmt 0 discriminator 1
	cmpl	$0, -44(%rbp)	#, skipped
	jne	.L282	#,
	cmpl	$0, -40(%rbp)	#, need_8x8_transform
	jne	.L282	#,
	.loc 1 1280 0 is_stmt 1
	movq	img(%rip), %rax	# img, img.445
	movl	24(%rax), %eax	# img.445_271->type, D.12235
	cmpl	$3, %eax	#, D.12235
	je	.L293	#,
	.loc 1 1280 0 is_stmt 0 discriminator 1
	leaq	-92(%rbp), %rdx	#, tmp602
	movl	-88(%rbp), %esi	# block_y, tmp603
	movl	-84(%rbp), %eax	# block_x, tmp604
	movl	$0, %ecx	#,
	movl	%eax, %edi	# tmp604,
	call	dct_luma	#
	movl	%eax, -72(%rbp)	# tmp605, nonzero
	jmp	.L294	#
.L293:
	.loc 1 1281 0 is_stmt 1
	leaq	-92(%rbp), %rdx	#, tmp606
	movl	-88(%rbp), %ecx	# block_y, tmp607
	movl	-84(%rbp), %eax	# block_x, tmp608
	movl	%ecx, %esi	# tmp607,
	movl	%eax, %edi	# tmp608,
	call	dct_luma_sp	#
	movl	%eax, -72(%rbp)	# tmp609, nonzero
.L294:
	.loc 1 1283 0
	movl	$0, -76(%rbp)	#, j
	jmp	.L295	#
.L298:
	.loc 1 1284 0
	movl	$0, -80(%rbp)	#, i
	jmp	.L296	#
.L297:
	.loc 1 1285 0 discriminator 2
	movl	-84(%rbp), %eax	# block_x, tmp610
	movl	-80(%rbp), %edx	# i, tmp611
	leal	(%rdx,%rax), %esi	#, D.12235
	movl	-88(%rbp), %eax	# block_y, tmp612
	movl	-76(%rbp), %edx	# j, tmp613
	leal	(%rdx,%rax), %edi	#, D.12235
	movq	img(%rip), %rax	# img, img.446
	movl	-76(%rbp), %edx	# j, tmp615
	movslq	%edx, %rdx	# tmp615, tmp614
	movl	-80(%rbp), %ecx	# i, tmp617
	movslq	%ecx, %rcx	# tmp617, tmp616
	salq	$4, %rcx	#, tmp618
	addq	%rcx, %rdx	# tmp618, tmp619
	addq	$3276, %rdx	#, tmp620
	movl	8(%rax,%rdx,4), %eax	# img.446_279->m7, D.12235
	movslq	%edi, %rdx	# D.12235, tmp621
	movslq	%esi, %rcx	# D.12235, tmp622
	salq	$4, %rcx	#, tmp623
	addq	%rcx, %rdx	# tmp623, tmp624
	movl	%eax, rec_resG(,%rdx,4)	# D.12235, rec_resG
	.loc 1 1284 0 discriminator 2
	addl	$1, -80(%rbp)	#, i
.L296:
	.loc 1 1284 0 is_stmt 0 discriminator 1
	cmpl	$3, -80(%rbp)	#, i
	jle	.L297	#,
	.loc 1 1283 0 is_stmt 1
	addl	$1, -76(%rbp)	#, j
.L295:
	.loc 1 1283 0 is_stmt 0 discriminator 1
	cmpl	$3, -76(%rbp)	#, j
	jle	.L298	#,
	.loc 1 1287 0 is_stmt 1
	cmpl	$0, -72(%rbp)	#, nonzero
	je	.L282	#,
	.loc 1 1289 0
	movq	-112(%rbp), %rax	# cbp_blk, tmp625
	movq	(%rax), %rdx	# *cbp_blk_153(D), D.12241
	movl	-28(%rbp), %eax	# cbp_blk_mask, tmp626
	movl	$1, %esi	#, tmp627
	movl	%eax, %ecx	# tmp626, tmp715
	sall	%cl, %esi	# tmp715, D.12235
	movl	%esi, %eax	# D.12235, D.12235
	cltq
	orq	%rax, %rdx	# D.12241, D.12241
	movq	-112(%rbp), %rax	# cbp_blk, tmp628
	movq	%rdx, (%rax)	# D.12241, *cbp_blk_153(D)
	.loc 1 1290 0
	movq	-104(%rbp), %rax	# cbp, tmp629
	movl	(%rax), %eax	# *cbp_158(D), D.12235
	orl	-52(%rbp), %eax	# cbp_mask, D.12235
	movl	%eax, %edx	# D.12235, D.12235
	movq	-104(%rbp), %rax	# cbp, tmp630
	movl	%edx, (%rax)	# D.12235, *cbp_158(D)
.L282:
	.loc 1 1190 0
	addl	$4, -68(%rbp)	#, bxx
	addl	$4, -84(%rbp)	#, block_x
.L258:
	.loc 1 1190 0 is_stmt 0 discriminator 1
	movl	-56(%rbp), %eax	# mb_x, tmp631
	addl	$8, %eax	#, D.12235
	cmpl	-84(%rbp), %eax	# block_x, D.12235
	jg	.L299	#,
	.loc 1 1186 0 is_stmt 1
	addl	$4, -64(%rbp)	#, byy
	addl	$4, -88(%rbp)	#, block_y
.L257:
	.loc 1 1186 0 is_stmt 0 discriminator 1
	movl	-60(%rbp), %eax	# mb_y, tmp632
	addl	$8, %eax	#, D.12235
	cmpl	-88(%rbp), %eax	# block_y, D.12235
	jg	.L300	#,
	.loc 1 1297 0 is_stmt 1
	cmpl	$0, -40(%rbp)	#, need_8x8_transform
	je	.L301	#,
	.loc 1 1299 0
	movq	img(%rip), %rax	# img, img.447
	movl	72392(%rax), %eax	# img.447_293->NoResidueDirect, D.12235
	cmpl	$1, %eax	#, D.12235
	je	.L301	#,
	.loc 1 1299 0 is_stmt 0 discriminator 1
	cmpl	$0, -44(%rbp)	#, skipped
	jne	.L301	#,
	.loc 1 1301 0 is_stmt 1
	movq	img(%rip), %rax	# img, img.448
	movl	24(%rax), %eax	# img.448_295->type, D.12235
	cmpl	$3, %eax	#, D.12235
	je	.L302	#,
	.loc 1 1302 0
	leaq	-92(%rbp), %rcx	#, tmp633
	movl	-116(%rbp), %eax	# block8x8, tmp634
	movl	$0, %edx	#,
	movq	%rcx, %rsi	# tmp633,
	movl	%eax, %edi	# tmp634,
	call	dct_luma8x8	#
	movl	%eax, -72(%rbp)	# tmp635, nonzero
.L302:
	.loc 1 1305 0
	movq	img(%rip), %rax	# img, img.449
	movl	72724(%rax), %eax	# img.449_298->residue_transform_flag, D.12235
	testl	%eax, %eax	# D.12235
	je	.L303	#,
	.loc 1 1307 0
	movl	$0, -76(%rbp)	#, j
	jmp	.L304	#
.L307:
	.loc 1 1308 0
	movl	$0, -80(%rbp)	#, i
	jmp	.L305	#
.L306:
	.loc 1 1309 0 discriminator 2
	movl	-80(%rbp), %eax	# i, tmp636
	movl	-56(%rbp), %edx	# mb_x, tmp637
	leal	(%rdx,%rax), %esi	#, D.12235
	movl	-76(%rbp), %eax	# j, tmp638
	movl	-60(%rbp), %edx	# mb_y, tmp639
	leal	(%rdx,%rax), %edi	#, D.12235
	movq	img(%rip), %rax	# img, img.450
	movl	-76(%rbp), %edx	# j, tmp641
	movslq	%edx, %rdx	# tmp641, tmp640
	movl	-80(%rbp), %ecx	# i, tmp643
	movslq	%ecx, %rcx	# tmp643, tmp642
	salq	$4, %rcx	#, tmp644
	addq	%rcx, %rdx	# tmp644, tmp645
	addq	$3276, %rdx	#, tmp646
	movl	8(%rax,%rdx,4), %eax	# img.450_304->m7, D.12235
	movslq	%edi, %rdx	# D.12235, tmp647
	movslq	%esi, %rcx	# D.12235, tmp648
	salq	$4, %rcx	#, tmp649
	addq	%rcx, %rdx	# tmp649, tmp650
	movl	%eax, rec_resG(,%rdx,4)	# D.12235, rec_resG
	.loc 1 1308 0 discriminator 2
	addl	$1, -80(%rbp)	#, i
.L305:
	.loc 1 1308 0 is_stmt 0 discriminator 1
	cmpl	$7, -80(%rbp)	#, i
	jle	.L306	#,
	.loc 1 1307 0 is_stmt 1
	addl	$1, -76(%rbp)	#, j
.L304:
	.loc 1 1307 0 is_stmt 0 discriminator 1
	cmpl	$7, -76(%rbp)	#, j
	jle	.L307	#,
.L303:
	.loc 1 1312 0 is_stmt 1
	cmpl	$0, -72(%rbp)	#, nonzero
	je	.L301	#,
	.loc 1 1314 0
	movq	-112(%rbp), %rax	# cbp_blk, tmp651
	movq	(%rax), %rsi	# *cbp_blk_153(D), D.12241
	movl	-116(%rbp), %eax	# block8x8, tmp652
	leal	(%rax,%rax), %ecx	#, D.12235
	movl	-116(%rbp), %eax	# block8x8, tmp653
	cltd
	shrl	$31, %edx	#, tmp655
	addl	%edx, %eax	# tmp655, tmp656
	andl	$1, %eax	#, tmp657
	subl	%edx, %eax	# tmp655, tmp658
	subl	%eax, %ecx	# D.12235, D.12235
	movl	%ecx, %eax	# D.12235, D.12235
	addl	%eax, %eax	# D.12235
	movl	$51, %edx	#, tmp659
	movl	%eax, %ecx	# D.12235, tmp719
	sall	%cl, %edx	# tmp719, D.12235
	movl	%edx, %eax	# D.12235, D.12235
	cltq
	orq	%rax, %rsi	# D.12241, D.12241
	movq	%rsi, %rdx	# D.12241, D.12241
	movq	-112(%rbp), %rax	# cbp_blk, tmp660
	movq	%rdx, (%rax)	# D.12241, *cbp_blk_153(D)
	.loc 1 1315 0
	movq	-104(%rbp), %rax	# cbp, tmp661
	movl	(%rax), %eax	# *cbp_158(D), D.12235
	orl	-52(%rbp), %eax	# cbp_mask, D.12235
	movl	%eax, %edx	# D.12235, D.12235
	movq	-104(%rbp), %rax	# cbp, tmp662
	movl	%edx, (%rax)	# D.12235, *cbp_158(D)
.L301:
	.loc 1 1340 0
	movq	img(%rip), %rax	# img, img.451
	movl	72392(%rax), %eax	# img.451_318->NoResidueDirect, D.12235
	cmpl	$1, %eax	#, D.12235
	je	.L308	#,
	.loc 1 1340 0 is_stmt 0 discriminator 1
	cmpl	$0, -44(%rbp)	#, skipped
	jne	.L308	#,
	movl	-92(%rbp), %eax	# coeff_cost, coeff_cost.452
	cmpl	$4, %eax	#, coeff_cost.452
	jg	.L308	#,
	.loc 1 1341 0 is_stmt 1 discriminator 1
	movq	img(%rip), %rax	# img, img.453
	movl	40(%rax), %edx	# img.453_321->qp, D.12235
	movq	img(%rip), %rax	# img, img.454
	movl	72668(%rax), %eax	# img.454_323->bitdepth_luma_qp_scale, D.12235
	addl	%edx, %eax	# D.12235, D.12235
	.loc 1 1340 0 discriminator 1
	testl	%eax, %eax	# D.12235
	jne	.L309	#,
	.loc 1 1341 0
	movq	img(%rip), %rax	# img, img.455
	movl	72704(%rax), %eax	# img.455_326->lossless_qpprime_flag, D.12235
	testl	%eax, %eax	# D.12235
	jne	.L308	#,
.L309:
	.loc 1 1343 0
	movl	$0, -92(%rbp)	#, coeff_cost
	.loc 1 1344 0
	movq	-104(%rbp), %rax	# cbp, tmp663
	movl	(%rax), %edx	# *cbp_158(D), D.12235
	movl	$63, %eax	#, tmp664
	subl	-52(%rbp), %eax	# cbp_mask, D.12235
	andl	%eax, %edx	# D.12235, D.12235
	movq	-104(%rbp), %rax	# cbp, tmp665
	movl	%edx, (%rax)	# D.12235, *cbp_158(D)
	.loc 1 1345 0
	movq	-112(%rbp), %rax	# cbp_blk, tmp666
	movq	(%rax), %rsi	# *cbp_blk_153(D), D.12241
	movl	-116(%rbp), %eax	# block8x8, tmp667
	leal	(%rax,%rax), %ecx	#, D.12235
	movl	-116(%rbp), %eax	# block8x8, tmp668
	cltd
	shrl	$31, %edx	#, tmp670
	addl	%edx, %eax	# tmp670, tmp671
	andl	$1, %eax	#, tmp672
	subl	%edx, %eax	# tmp670, tmp673
	subl	%eax, %ecx	# D.12235, D.12235
	movl	%ecx, %eax	# D.12235, D.12235
	addl	%eax, %eax	# D.12235
	movl	$51, %edx	#, tmp674
	movl	%eax, %ecx	# D.12235, tmp724
	sall	%cl, %edx	# tmp724, D.12235
	movl	%edx, %eax	# D.12235, D.12235
	notl	%eax	# D.12235
	cltq
	andq	%rax, %rsi	# D.12241, D.12241
	movq	%rsi, %rdx	# D.12241, D.12241
	movq	-112(%rbp), %rax	# cbp_blk, tmp675
	movq	%rdx, (%rax)	# D.12241, *cbp_blk_153(D)
	.loc 1 1347 0
	movl	-56(%rbp), %eax	# mb_x, tmp676
	movl	%eax, -80(%rbp)	# tmp676, i
	jmp	.L310	#
.L315:
	.loc 1 1348 0
	movl	-60(%rbp), %eax	# mb_y, tmp677
	movl	%eax, -76(%rbp)	# tmp677, j
	jmp	.L311	#
.L314:
	.loc 1 1351 0
	movq	img(%rip), %rax	# img, img.456
	movl	72724(%rax), %eax	# img.456_344->residue_transform_flag, D.12235
	testl	%eax, %eax	# D.12235
	jne	.L312	#,
	.loc 1 1352 0
	movq	enc_picture(%rip), %rax	# enc_picture, enc_picture.457
	movq	6424(%rax), %rdx	# enc_picture.457_346->imgY, D.12239
	movq	img(%rip), %rax	# img, img.458
	movl	156(%rax), %ecx	# img.458_348->pix_y, D.12235
	movl	-76(%rbp), %eax	# j, tmp678
	addl	%ecx, %eax	# D.12235, D.12235
	cltq
	salq	$3, %rax	#, D.12237
	addq	%rdx, %rax	# D.12239, D.12239
	movq	(%rax), %rdx	# *_353, D.12240
	movq	img(%rip), %rax	# img, img.459
	movl	152(%rax), %ecx	# img.459_355->pix_x, D.12235
	movl	-80(%rbp), %eax	# i, tmp679
	addl	%ecx, %eax	# D.12235, D.12235
	cltq
	addq	%rax, %rax	# D.12237
	addq	%rax, %rdx	# D.12237, D.12240
	movq	img(%rip), %rax	# img, img.460
	movl	-76(%rbp), %ecx	# j, tmp681
	movslq	%ecx, %rcx	# tmp681, tmp680
	movl	-80(%rbp), %esi	# i, tmp683
	movslq	%esi, %rsi	# tmp683, tmp682
	salq	$4, %rsi	#, tmp684
	addq	%rsi, %rcx	# tmp684, tmp685
	addq	$6296, %rcx	#, tmp686
	movzwl	8(%rax,%rcx,2), %eax	# img.460_361->mpr, D.12238
	movw	%ax, (%rdx)	# D.12238, *_360
	jmp	.L313	#
.L312:
	.loc 1 1354 0
	movl	-76(%rbp), %eax	# j, tmp688
	cltq
	movl	-80(%rbp), %edx	# i, tmp690
	movslq	%edx, %rdx	# tmp690, tmp689
	salq	$4, %rdx	#, tmp691
	addq	%rdx, %rax	# tmp691, tmp692
	movl	$0, rec_resG(,%rax,4)	#, rec_resG
.L313:
	.loc 1 1348 0
	addl	$1, -76(%rbp)	#, j
.L311:
	.loc 1 1348 0 is_stmt 0 discriminator 1
	movl	-60(%rbp), %eax	# mb_y, tmp693
	addl	$8, %eax	#, D.12235
	cmpl	-76(%rbp), %eax	# j, D.12235
	jg	.L314	#,
	.loc 1 1347 0 is_stmt 1
	addl	$1, -80(%rbp)	#, i
.L310:
	.loc 1 1347 0 is_stmt 0 discriminator 1
	movl	-56(%rbp), %eax	# mb_x, tmp694
	addl	$8, %eax	#, D.12235
	cmpl	-80(%rbp), %eax	# i, D.12235
	jg	.L315	#,
	.loc 1 1356 0 is_stmt 1
	movq	img(%rip), %rax	# img, img.461
	movl	24(%rax), %eax	# img.461_365->type, D.12235
	cmpl	$3, %eax	#, D.12235
	jne	.L308	#,
	.loc 1 1358 0
	movl	-56(%rbp), %eax	# mb_x, tmp695
	movl	%eax, -80(%rbp)	# tmp695, i
	jmp	.L316	#
.L319:
	.loc 1 1359 0
	movl	-60(%rbp), %eax	# mb_y, tmp696
	movl	%eax, -76(%rbp)	# tmp696, j
	jmp	.L317	#
.L318:
	.loc 1 1360 0 discriminator 2
	movl	-76(%rbp), %edx	# j, tmp697
	movl	-80(%rbp), %eax	# i, tmp698
	movl	%edx, %esi	# tmp697,
	movl	%eax, %edi	# tmp698,
	call	copyblock_sp	#
	.loc 1 1359 0 discriminator 2
	addl	$4, -76(%rbp)	#, j
.L317:
	.loc 1 1359 0 is_stmt 0 discriminator 1
	movl	-60(%rbp), %eax	# mb_y, tmp699
	addl	$8, %eax	#, D.12235
	cmpl	-76(%rbp), %eax	# j, D.12235
	jg	.L318	#,
	.loc 1 1358 0 is_stmt 1
	addl	$4, -80(%rbp)	#, i
.L316:
	.loc 1 1358 0 is_stmt 0 discriminator 1
	movl	-56(%rbp), %eax	# mb_x, tmp700
	addl	$8, %eax	#, D.12235
	cmpl	-80(%rbp), %eax	# i, D.12235
	jg	.L319	#,
.L308:
	.loc 1 1364 0 is_stmt 1
	movl	-92(%rbp), %eax	# coeff_cost, D.12235
	.loc 1 1365 0
	leave
	.cfi_def_cfa 7, 8
	ret
	.cfi_endproc
.LFE13:
	.size	LumaResidualCoding8x8, .-LumaResidualCoding8x8
	.globl	SetModesAndRefframe
	.type	SetModesAndRefframe, @function
SetModesAndRefframe:
.LFB14:
	.loc 1 1376 0
	.cfi_startproc
	pushq	%rbp	#
	.cfi_def_cfa_offset 16
	.cfi_offset 6, -16
	movq	%rsp, %rbp	#,
	.cfi_def_cfa_register 6
	movl	%edi, -20(%rbp)	# b8, b8
	movq	%rsi, -32(%rbp)	# p_dir, p_dir
	movq	%rdx, -40(%rbp)	# fw_mode, fw_mode
	movq	%rcx, -48(%rbp)	# bw_mode, bw_mode
	movq	%r8, -56(%rbp)	# fw_ref, fw_ref
	movq	%r9, -64(%rbp)	# bw_ref, bw_ref
	.loc 1 1377 0
	movq	img(%rip), %rax	# img, img.462
	movq	14168(%rax), %rdx	# img.462_1->mb_data, D.12243
	movq	img(%rip), %rax	# img, img.463
	movl	12(%rax), %eax	# img.463_3->current_mb_nr, D.12244
	cltq
	imulq	$632, %rax, %rax	#, D.12245, D.12245
	addq	%rdx, %rax	# D.12243, tmp170
	movq	%rax, -8(%rbp)	# tmp170, currMB
	.loc 1 1378 0
	movl	-20(%rbp), %eax	# b8, tmp171
	movl	%eax, %edx	# tmp171, tmp172
	shrl	$31, %edx	#, tmp172
	addl	%edx, %eax	# tmp172, tmp173
	sarl	%eax	# tmp174
	addl	%eax, %eax	# tmp175
	movl	%eax, -16(%rbp)	# tmp175, j
	.loc 1 1379 0
	movl	-20(%rbp), %eax	# b8, tmp176
	cltd
	shrl	$31, %edx	#, tmp178
	addl	%edx, %eax	# tmp178, tmp179
	andl	$1, %eax	#, tmp180
	subl	%edx, %eax	# tmp178, tmp181
	addl	%eax, %eax	# tmp182
	movl	%eax, -12(%rbp)	# tmp182, i
	.loc 1 1381 0
	movq	-64(%rbp), %rax	# bw_ref, tmp183
	movw	$-1, (%rax)	#, *bw_ref_13(D)
	movq	-64(%rbp), %rax	# bw_ref, tmp184
	movzwl	(%rax), %edx	# *bw_ref_13(D), D.12246
	movq	-56(%rbp), %rax	# fw_ref, tmp185
	movw	%dx, (%rax)	# D.12246, *fw_ref_15(D)
	movq	-56(%rbp), %rax	# fw_ref, tmp186
	movzwl	(%rax), %eax	# *fw_ref_15(D), D.12246
	movswl	%ax, %edx	# D.12246, D.12244
	movq	-48(%rbp), %rax	# bw_mode, tmp187
	movl	%edx, (%rax)	# D.12244, *bw_mode_18(D)
	movq	-48(%rbp), %rax	# bw_mode, tmp188
	movl	(%rax), %edx	# *bw_mode_18(D), D.12244
	movq	-40(%rbp), %rax	# fw_mode, tmp189
	movl	%edx, (%rax)	# D.12244, *fw_mode_20(D)
	.loc 1 1383 0
	movq	-8(%rbp), %rax	# currMB, tmp190
	movl	-20(%rbp), %edx	# b8, tmp192
	movslq	%edx, %rdx	# tmp192, tmp191
	addq	$120, %rdx	#, tmp193
	movl	8(%rax,%rdx,4), %eax	# currMB_7->b8pdir, D.12244
	movl	%eax, %edx	# D.12244, D.12246
	movq	-32(%rbp), %rax	# p_dir, tmp194
	movw	%dx, (%rax)	# D.12246, *p_dir_23(D)
	.loc 1 1385 0
	movq	img(%rip), %rax	# img, img.464
	movl	24(%rax), %eax	# img.464_24->type, D.12244
	cmpl	$1, %eax	#, D.12244
	je	.L322	#,
	.loc 1 1387 0
	movq	enc_picture(%rip), %rax	# enc_picture, enc_picture.465
	movq	6480(%rax), %rax	# enc_picture.465_26->ref_idx, D.12247
	movq	(%rax), %rdx	# *_27, D.12248
	movq	img(%rip), %rax	# img, img.466
	movl	144(%rax), %ecx	# img.466_29->block_x, D.12244
	movl	-12(%rbp), %eax	# i, tmp195
	addl	%ecx, %eax	# D.12244, D.12244
	cltq
	salq	$3, %rax	#, D.12245
	addq	%rdx, %rax	# D.12248, D.12248
	movq	(%rax), %rdx	# *_34, D.12249
	movq	img(%rip), %rax	# img, img.467
	movl	148(%rax), %ecx	# img.467_36->block_y, D.12244
	movl	-16(%rbp), %eax	# j, tmp196
	addl	%ecx, %eax	# D.12244, D.12244
	cltq
	addq	%rax, %rax	# D.12245
	addq	%rdx, %rax	# D.12249, D.12249
	movzwl	(%rax), %edx	# *_41, D.12246
	movq	-56(%rbp), %rax	# fw_ref, tmp197
	movw	%dx, (%rax)	# D.12246, *fw_ref_15(D)
	.loc 1 1388 0
	movq	-64(%rbp), %rax	# bw_ref, tmp198
	movw	$0, (%rax)	#, *bw_ref_13(D)
	.loc 1 1389 0
	movq	-8(%rbp), %rax	# currMB, tmp199
	movl	-20(%rbp), %edx	# b8, tmp201
	movslq	%edx, %rdx	# tmp201, tmp200
	addq	$116, %rdx	#, tmp202
	movl	8(%rax,%rdx,4), %edx	# currMB_7->b8mode, D.12244
	movq	-40(%rbp), %rax	# fw_mode, tmp203
	movl	%edx, (%rax)	# D.12244, *fw_mode_20(D)
	.loc 1 1390 0
	movq	-48(%rbp), %rax	# bw_mode, tmp204
	movl	$0, (%rax)	#, *bw_mode_18(D)
	jmp	.L321	#
.L322:
	.loc 1 1394 0
	movq	-8(%rbp), %rax	# currMB, tmp205
	movl	-20(%rbp), %edx	# b8, tmp207
	movslq	%edx, %rdx	# tmp207, tmp206
	addq	$120, %rdx	#, tmp208
	movl	8(%rax,%rdx,4), %eax	# currMB_7->b8pdir, D.12244
	cmpl	$-1, %eax	#, D.12244
	jne	.L324	#,
	.loc 1 1396 0
	movq	-56(%rbp), %rax	# fw_ref, tmp209
	movw	$-1, (%rax)	#, *fw_ref_15(D)
	.loc 1 1397 0
	movq	-64(%rbp), %rax	# bw_ref, tmp210
	movw	$-1, (%rax)	#, *bw_ref_13(D)
	.loc 1 1398 0
	movq	-40(%rbp), %rax	# fw_mode, tmp211
	movl	$0, (%rax)	#, *fw_mode_20(D)
	.loc 1 1399 0
	movq	-48(%rbp), %rax	# bw_mode, tmp212
	movl	$0, (%rax)	#, *bw_mode_18(D)
	jmp	.L321	#
.L324:
	.loc 1 1401 0
	movq	-8(%rbp), %rax	# currMB, tmp213
	movl	-20(%rbp), %edx	# b8, tmp215
	movslq	%edx, %rdx	# tmp215, tmp214
	addq	$120, %rdx	#, tmp216
	movl	8(%rax,%rdx,4), %eax	# currMB_7->b8pdir, D.12244
	testl	%eax, %eax	# D.12244
	jne	.L325	#,
	.loc 1 1403 0
	movq	enc_picture(%rip), %rax	# enc_picture, enc_picture.468
	movq	6480(%rax), %rax	# enc_picture.468_46->ref_idx, D.12247
	movq	(%rax), %rdx	# *_47, D.12248
	movq	img(%rip), %rax	# img, img.469
	movl	144(%rax), %ecx	# img.469_49->block_x, D.12244
	movl	-12(%rbp), %eax	# i, tmp217
	addl	%ecx, %eax	# D.12244, D.12244
	cltq
	salq	$3, %rax	#, D.12245
	addq	%rdx, %rax	# D.12248, D.12248
	movq	(%rax), %rdx	# *_54, D.12249
	movq	img(%rip), %rax	# img, img.470
	movl	148(%rax), %ecx	# img.470_56->block_y, D.12244
	movl	-16(%rbp), %eax	# j, tmp218
	addl	%ecx, %eax	# D.12244, D.12244
	cltq
	addq	%rax, %rax	# D.12245
	addq	%rdx, %rax	# D.12249, D.12249
	movzwl	(%rax), %edx	# *_61, D.12246
	movq	-56(%rbp), %rax	# fw_ref, tmp219
	movw	%dx, (%rax)	# D.12246, *fw_ref_15(D)
	.loc 1 1404 0
	movq	-64(%rbp), %rax	# bw_ref, tmp220
	movw	$0, (%rax)	#, *bw_ref_13(D)
	.loc 1 1405 0
	movq	-8(%rbp), %rax	# currMB, tmp221
	movl	-20(%rbp), %edx	# b8, tmp223
	movslq	%edx, %rdx	# tmp223, tmp222
	addq	$116, %rdx	#, tmp224
	movl	8(%rax,%rdx,4), %edx	# currMB_7->b8mode, D.12244
	movq	-40(%rbp), %rax	# fw_mode, tmp225
	movl	%edx, (%rax)	# D.12244, *fw_mode_20(D)
	.loc 1 1406 0
	movq	-48(%rbp), %rax	# bw_mode, tmp226
	movl	$0, (%rax)	#, *bw_mode_18(D)
	jmp	.L321	#
.L325:
	.loc 1 1408 0
	movq	-8(%rbp), %rax	# currMB, tmp227
	movl	-20(%rbp), %edx	# b8, tmp229
	movslq	%edx, %rdx	# tmp229, tmp228
	addq	$120, %rdx	#, tmp230
	movl	8(%rax,%rdx,4), %eax	# currMB_7->b8pdir, D.12244
	cmpl	$1, %eax	#, D.12244
	jne	.L326	#,
	.loc 1 1410 0
	movq	-56(%rbp), %rax	# fw_ref, tmp231
	movw	$0, (%rax)	#, *fw_ref_15(D)
	.loc 1 1411 0
	movq	enc_picture(%rip), %rax	# enc_picture, enc_picture.471
	movq	6480(%rax), %rax	# enc_picture.471_65->ref_idx, D.12247
	addq	$8, %rax	#, D.12247
	movq	(%rax), %rdx	# *_67, D.12248
	movq	img(%rip), %rax	# img, img.472
	movl	144(%rax), %ecx	# img.472_69->block_x, D.12244
	movl	-12(%rbp), %eax	# i, tmp232
	addl	%ecx, %eax	# D.12244, D.12244
	cltq
	salq	$3, %rax	#, D.12245
	addq	%rdx, %rax	# D.12248, D.12248
	movq	(%rax), %rdx	# *_74, D.12249
	movq	img(%rip), %rax	# img, img.473
	movl	148(%rax), %ecx	# img.473_76->block_y, D.12244
	movl	-16(%rbp), %eax	# j, tmp233
	addl	%ecx, %eax	# D.12244, D.12244
	cltq
	addq	%rax, %rax	# D.12245
	addq	%rdx, %rax	# D.12249, D.12249
	movzwl	(%rax), %edx	# *_81, D.12246
	movq	-64(%rbp), %rax	# bw_ref, tmp234
	movw	%dx, (%rax)	# D.12246, *bw_ref_13(D)
	.loc 1 1412 0
	movq	-40(%rbp), %rax	# fw_mode, tmp235
	movl	$0, (%rax)	#, *fw_mode_20(D)
	.loc 1 1413 0
	movq	-8(%rbp), %rax	# currMB, tmp236
	movl	-20(%rbp), %edx	# b8, tmp238
	movslq	%edx, %rdx	# tmp238, tmp237
	addq	$116, %rdx	#, tmp239
	movl	8(%rax,%rdx,4), %edx	# currMB_7->b8mode, D.12244
	movq	-48(%rbp), %rax	# bw_mode, tmp240
	movl	%edx, (%rax)	# D.12244, *bw_mode_18(D)
	jmp	.L321	#
.L326:
	.loc 1 1417 0
	movq	enc_picture(%rip), %rax	# enc_picture, enc_picture.474
	movq	6480(%rax), %rax	# enc_picture.474_84->ref_idx, D.12247
	movq	(%rax), %rdx	# *_85, D.12248
	movq	img(%rip), %rax	# img, img.475
	movl	144(%rax), %ecx	# img.475_87->block_x, D.12244
	movl	-12(%rbp), %eax	# i, tmp241
	addl	%ecx, %eax	# D.12244, D.12244
	cltq
	salq	$3, %rax	#, D.12245
	addq	%rdx, %rax	# D.12248, D.12248
	movq	(%rax), %rdx	# *_92, D.12249
	movq	img(%rip), %rax	# img, img.476
	movl	148(%rax), %ecx	# img.476_94->block_y, D.12244
	movl	-16(%rbp), %eax	# j, tmp242
	addl	%ecx, %eax	# D.12244, D.12244
	cltq
	addq	%rax, %rax	# D.12245
	addq	%rdx, %rax	# D.12249, D.12249
	movzwl	(%rax), %edx	# *_99, D.12246
	movq	-56(%rbp), %rax	# fw_ref, tmp243
	movw	%dx, (%rax)	# D.12246, *fw_ref_15(D)
	.loc 1 1418 0
	movq	enc_picture(%rip), %rax	# enc_picture, enc_picture.477
	movq	6480(%rax), %rax	# enc_picture.477_101->ref_idx, D.12247
	addq	$8, %rax	#, D.12247
	movq	(%rax), %rdx	# *_103, D.12248
	movq	img(%rip), %rax	# img, img.478
	movl	144(%rax), %ecx	# img.478_105->block_x, D.12244
	movl	-12(%rbp), %eax	# i, tmp244
	addl	%ecx, %eax	# D.12244, D.12244
	cltq
	salq	$3, %rax	#, D.12245
	addq	%rdx, %rax	# D.12248, D.12248
	movq	(%rax), %rdx	# *_110, D.12249
	movq	img(%rip), %rax	# img, img.479
	movl	148(%rax), %ecx	# img.479_112->block_y, D.12244
	movl	-16(%rbp), %eax	# j, tmp245
	addl	%ecx, %eax	# D.12244, D.12244
	cltq
	addq	%rax, %rax	# D.12245
	addq	%rdx, %rax	# D.12249, D.12249
	movzwl	(%rax), %edx	# *_117, D.12246
	movq	-64(%rbp), %rax	# bw_ref, tmp246
	movw	%dx, (%rax)	# D.12246, *bw_ref_13(D)
	.loc 1 1419 0
	movq	-8(%rbp), %rax	# currMB, tmp247
	movl	-20(%rbp), %edx	# b8, tmp249
	movslq	%edx, %rdx	# tmp249, tmp248
	addq	$116, %rdx	#, tmp250
	movl	8(%rax,%rdx,4), %edx	# currMB_7->b8mode, D.12244
	movq	-40(%rbp), %rax	# fw_mode, tmp251
	movl	%edx, (%rax)	# D.12244, *fw_mode_20(D)
	.loc 1 1420 0
	movq	-8(%rbp), %rax	# currMB, tmp252
	movl	-20(%rbp), %edx	# b8, tmp254
	movslq	%edx, %rdx	# tmp254, tmp253
	addq	$116, %rdx	#, tmp255
	movl	8(%rax,%rdx,4), %edx	# currMB_7->b8mode, D.12244
	movq	-48(%rbp), %rax	# bw_mode, tmp256
	movl	%edx, (%rax)	# D.12244, *bw_mode_18(D)
.L321:
	.loc 1 1423 0
	popq	%rbp	#
	.cfi_def_cfa 7, 8
	ret
	.cfi_endproc
.LFE14:
	.size	SetModesAndRefframe, .-SetModesAndRefframe
	.globl	LumaResidualCoding
	.type	LumaResidualCoding, @function
LumaResidualCoding:
.LFB15:
	.loc 1 1434 0
	.cfi_startproc
	pushq	%rbp	#
	.cfi_def_cfa_offset 16
	.cfi_offset 6, -16
	movq	%rsp, %rbp	#,
	.cfi_def_cfa_register 6
	subq	$64, %rsp	#,
	.loc 1 1439 0
	movq	img(%rip), %rax	# img, img.480
	movq	14168(%rax), %rdx	# img.480_8->mb_data, D.12250
	movq	img(%rip), %rax	# img, img.481
	movl	12(%rax), %eax	# img.481_10->current_mb_nr, D.12251
	cltq
	imulq	$632, %rax, %rax	#, D.12252, D.12252
	addq	%rdx, %rax	# D.12250, tmp112
	movq	%rax, -8(%rbp)	# tmp112, currMB
	.loc 1 1441 0
	movq	-8(%rbp), %rax	# currMB, tmp113
	movl	$0, 460(%rax)	#, currMB_14->cbp
	.loc 1 1442 0
	movq	-8(%rbp), %rax	# currMB, tmp114
	movq	$0, 464(%rax)	#, currMB_14->cbp_blk
	.loc 1 1443 0
	movl	$0, -20(%rbp)	#, sum_cnt_nonz
	.loc 1 1445 0
	movl	$0, -24(%rbp)	#, block8x8
	jmp	.L328	#
.L329:
.LBB4:
	.loc 1 1448 0 discriminator 2
	leaq	-42(%rbp), %r8	#, tmp115
	leaq	-44(%rbp), %rdi	#, tmp116
	leaq	-36(%rbp), %rcx	#, tmp117
	leaq	-40(%rbp), %rdx	#, tmp118
	leaq	-46(%rbp), %rsi	#, tmp119
	movl	-24(%rbp), %eax	# block8x8, tmp120
	movq	%r8, %r9	# tmp115,
	movq	%rdi, %r8	# tmp116,
	movl	%eax, %edi	# tmp120,
	call	SetModesAndRefframe	#
	.loc 1 1450 0 discriminator 2
	movzwl	-42(%rbp), %eax	# bw_ref, bw_ref.482
	movswl	%ax, %esi	# bw_ref.482, D.12251
	movzwl	-44(%rbp), %eax	# refframe, refframe.483
	movswl	%ax, %ecx	# refframe.483, D.12251
	movl	-36(%rbp), %r9d	# bw_mode, bw_mode.484
	movl	-40(%rbp), %r8d	# fw_mode, fw_mode.485
	movzwl	-46(%rbp), %eax	# p_dir, p_dir.486
	movswl	%ax, %edx	# p_dir.486, D.12251
	movq	-8(%rbp), %rax	# currMB, tmp121
	leaq	464(%rax), %r10	#, D.12253
	movq	-8(%rbp), %rax	# currMB, tmp122
	leaq	460(%rax), %rdi	#, D.12254
	movl	-24(%rbp), %eax	# block8x8, tmp123
	movl	%esi, 8(%rsp)	# D.12251,
	movl	%ecx, (%rsp)	# D.12251,
	movl	%edx, %ecx	# D.12251,
	movl	%eax, %edx	# tmp123,
	movq	%r10, %rsi	# D.12253,
	call	LumaResidualCoding8x8	#
	addl	%eax, -20(%rbp)	# D.12251, sum_cnt_nonz
.LBE4:
	.loc 1 1445 0 discriminator 2
	addl	$1, -24(%rbp)	#, block8x8
.L328:
	.loc 1 1445 0 is_stmt 0 discriminator 1
	cmpl	$3, -24(%rbp)	#, block8x8
	jle	.L329	#,
	.loc 1 1454 0 is_stmt 1
	cmpl	$5, -20(%rbp)	#, sum_cnt_nonz
	jg	.L327	#,
	.loc 1 1455 0 discriminator 1
	movq	img(%rip), %rax	# img, img.487
	movl	40(%rax), %edx	# img.487_30->qp, D.12251
	movq	img(%rip), %rax	# img, img.488
	movl	72668(%rax), %eax	# img.488_32->bitdepth_luma_qp_scale, D.12251
	addl	%edx, %eax	# D.12251, D.12251
	.loc 1 1454 0 discriminator 1
	testl	%eax, %eax	# D.12251
	jne	.L331	#,
	.loc 1 1455 0
	movq	img(%rip), %rax	# img, img.489
	movl	72704(%rax), %eax	# img.489_35->lossless_qpprime_flag, D.12251
	testl	%eax, %eax	# D.12251
	jne	.L327	#,
.L331:
	.loc 1 1457 0
	movq	-8(%rbp), %rax	# currMB, tmp124
	movl	460(%rax), %eax	# currMB_14->cbp, D.12251
	andl	$16777200, %eax	#, D.12251
	movl	%eax, %edx	# D.12251, D.12251
	movq	-8(%rbp), %rax	# currMB, tmp125
	movl	%edx, 460(%rax)	# D.12251, currMB_14->cbp
	.loc 1 1458 0
	movq	-8(%rbp), %rax	# currMB, tmp126
	movq	464(%rax), %rax	# currMB_14->cbp_blk, D.12255
	andl	$16711680, %eax	#, D.12255
	movq	%rax, %rdx	# D.12255, D.12255
	movq	-8(%rbp), %rax	# currMB, tmp127
	movq	%rdx, 464(%rax)	# D.12255, currMB_14->cbp_blk
	.loc 1 1459 0
	movl	$0, -32(%rbp)	#, i
	jmp	.L332	#
.L337:
	.loc 1 1461 0
	movl	$0, -28(%rbp)	#, j
	jmp	.L333	#
.L336:
	.loc 1 1463 0
	movq	img(%rip), %rax	# img, img.490
	movl	72724(%rax), %eax	# img.490_43->residue_transform_flag, D.12251
	testl	%eax, %eax	# D.12251
	jne	.L334	#,
	.loc 1 1464 0
	movq	enc_picture(%rip), %rax	# enc_picture, enc_picture.491
	movq	6424(%rax), %rdx	# enc_picture.491_45->imgY, D.12256
	movq	img(%rip), %rax	# img, img.492
	movl	156(%rax), %ecx	# img.492_47->pix_y, D.12251
	movl	-28(%rbp), %eax	# j, tmp128
	addl	%ecx, %eax	# D.12251, D.12251
	cltq
	salq	$3, %rax	#, D.12252
	addq	%rdx, %rax	# D.12256, D.12256
	movq	(%rax), %rdx	# *_52, D.12257
	movq	img(%rip), %rax	# img, img.493
	movl	152(%rax), %ecx	# img.493_54->pix_x, D.12251
	movl	-32(%rbp), %eax	# i, tmp129
	addl	%ecx, %eax	# D.12251, D.12251
	cltq
	addq	%rax, %rax	# D.12252
	addq	%rax, %rdx	# D.12252, D.12257
	movq	img(%rip), %rax	# img, img.494
	movl	-28(%rbp), %ecx	# j, tmp131
	movslq	%ecx, %rcx	# tmp131, tmp130
	movl	-32(%rbp), %esi	# i, tmp133
	movslq	%esi, %rsi	# tmp133, tmp132
	salq	$4, %rsi	#, tmp134
	addq	%rsi, %rcx	# tmp134, tmp135
	addq	$6296, %rcx	#, tmp136
	movzwl	8(%rax,%rcx,2), %eax	# img.494_60->mpr, D.12258
	movw	%ax, (%rdx)	# D.12258, *_59
	jmp	.L335	#
.L334:
	.loc 1 1466 0
	movl	-28(%rbp), %eax	# j, tmp138
	cltq
	movl	-32(%rbp), %edx	# i, tmp140
	movslq	%edx, %rdx	# tmp140, tmp139
	salq	$4, %rdx	#, tmp141
	addq	%rdx, %rax	# tmp141, tmp142
	movl	$0, rec_resG(,%rax,4)	#, rec_resG
.L335:
	.loc 1 1461 0
	addl	$1, -28(%rbp)	#, j
.L333:
	.loc 1 1461 0 is_stmt 0 discriminator 1
	cmpl	$15, -28(%rbp)	#, j
	jle	.L336	#,
	.loc 1 1459 0 is_stmt 1
	addl	$1, -32(%rbp)	#, i
.L332:
	.loc 1 1459 0 is_stmt 0 discriminator 1
	cmpl	$15, -32(%rbp)	#, i
	jle	.L337	#,
	.loc 1 1469 0 is_stmt 1
	movq	img(%rip), %rax	# img, img.495
	movl	24(%rax), %eax	# img.495_64->type, D.12251
	cmpl	$3, %eax	#, D.12251
	jne	.L327	#,
	.loc 1 1471 0
	movl	$0, -24(%rbp)	#, block8x8
	jmp	.L338	#
.L343:
	.loc 1 1473 0
	movl	-24(%rbp), %eax	# block8x8, tmp143
	andl	$1, %eax	#, D.12251
	sall	$3, %eax	#, tmp144
	movl	%eax, -16(%rbp)	# tmp144, b8_x
	.loc 1 1474 0
	movl	-24(%rbp), %eax	# block8x8, tmp145
	andl	$2, %eax	#, D.12251
	sall	$2, %eax	#, tmp146
	movl	%eax, -12(%rbp)	# tmp146, b8_y
	.loc 1 1475 0
	movl	$0, -32(%rbp)	#, i
	jmp	.L339	#
.L342:
	.loc 1 1476 0
	movl	$0, -28(%rbp)	#, j
	jmp	.L340	#
.L341:
	.loc 1 1477 0 discriminator 2
	movl	-28(%rbp), %eax	# j, tmp147
	movl	-12(%rbp), %edx	# b8_y, tmp148
	addl	%eax, %edx	# tmp147, D.12251
	movl	-32(%rbp), %eax	# i, tmp149
	movl	-16(%rbp), %ecx	# b8_x, tmp150
	addl	%ecx, %eax	# tmp150, D.12251
	movl	%edx, %esi	# D.12251,
	movl	%eax, %edi	# D.12251,
	call	copyblock_sp	#
	.loc 1 1476 0 discriminator 2
	addl	$4, -28(%rbp)	#, j
.L340:
	.loc 1 1476 0 is_stmt 0 discriminator 1
	cmpl	$7, -28(%rbp)	#, j
	jle	.L341	#,
	.loc 1 1475 0 is_stmt 1
	addl	$4, -32(%rbp)	#, i
.L339:
	.loc 1 1475 0 is_stmt 0 discriminator 1
	cmpl	$7, -32(%rbp)	#, i
	jle	.L342	#,
	.loc 1 1471 0 is_stmt 1
	addl	$1, -24(%rbp)	#, block8x8
.L338:
	.loc 1 1471 0 is_stmt 0 discriminator 1
	cmpl	$3, -24(%rbp)	#, block8x8
	jle	.L343	#,
.L327:
	.loc 1 1481 0 is_stmt 1
	leave
	.cfi_def_cfa 7, 8
	ret
	.cfi_endproc
.LFE15:
	.size	LumaResidualCoding, .-LumaResidualCoding
	.globl	TransformDecision
	.type	TransformDecision, @function
TransformDecision:
.LFB16:
	.loc 1 1492 0
	.cfi_startproc
	pushq	%rbp	#
	.cfi_def_cfa_offset 16
	.cfi_offset 6, -16
	movq	%rsp, %rbp	#,
	.cfi_def_cfa_register 6
	subq	$368, %rsp	#,
	movl	%edi, -340(%rbp)	# block_check, block_check
	movq	%rsi, -352(%rbp)	# cost, cost
	.loc 1 1498 0
	movl	$0, -288(%rbp)	#, cost8x8
	movl	$0, -284(%rbp)	#, cost4x4
	.loc 1 1501 0
	cmpl	$-1, -340(%rbp)	#, block_check
	jne	.L345	#,
	.loc 1 1503 0
	movl	$0, -296(%rbp)	#, block8x8
	.loc 1 1504 0
	movl	$4, -292(%rbp)	#, num_blks
	.loc 1 1512 0
	jmp	.L347	#
.L345:
	.loc 1 1508 0
	movl	-340(%rbp), %eax	# block_check, tmp106
	movl	%eax, -296(%rbp)	# tmp106, block8x8
	.loc 1 1509 0
	movl	-340(%rbp), %eax	# block_check, tmp110
	addl	$1, %eax	#, tmp109
	movl	%eax, -292(%rbp)	# tmp109, num_blks
	.loc 1 1512 0
	jmp	.L347	#
.L356:
	.loc 1 1514 0
	leaq	-326(%rbp), %r8	#, tmp111
	leaq	-328(%rbp), %rdi	#, tmp112
	leaq	-320(%rbp), %rcx	#, tmp113
	leaq	-324(%rbp), %rdx	#, tmp114
	leaq	-330(%rbp), %rsi	#, tmp115
	movl	-296(%rbp), %eax	# block8x8, tmp116
	movq	%r8, %r9	# tmp111,
	movq	%rdi, %r8	# tmp112,
	movl	%eax, %edi	# tmp116,
	call	SetModesAndRefframe	#
	.loc 1 1516 0
	movl	-296(%rbp), %eax	# block8x8, tmp117
	movl	%eax, %edx	# tmp117, tmp118
	shrl	$31, %edx	#, tmp118
	addl	%edx, %eax	# tmp118, tmp119
	sarl	%eax	# tmp120
	sall	$3, %eax	#, tmp121
	movl	%eax, -280(%rbp)	# tmp121, mb_y
	.loc 1 1517 0
	movl	-296(%rbp), %eax	# block8x8, tmp122
	cltd
	shrl	$31, %edx	#, tmp124
	addl	%edx, %eax	# tmp124, tmp125
	andl	$1, %eax	#, tmp126
	subl	%edx, %eax	# tmp124, tmp127
	sall	$3, %eax	#, tmp128
	movl	%eax, -276(%rbp)	# tmp128, mb_x
	.loc 1 1519 0
	movl	$0, -300(%rbp)	#, k
	.loc 1 1520 0
	movl	-280(%rbp), %eax	# mb_y, tmp129
	movl	%eax, -316(%rbp)	# tmp129, block_y
	jmp	.L348	#
.L355:
	.loc 1 1522 0
	movq	img(%rip), %rax	# img, img.496
	movl	172(%rax), %edx	# img.496_31->opix_y, D.12259
	movl	-316(%rbp), %eax	# block_y, tmp133
	addl	%edx, %eax	# D.12259, tmp132
	movl	%eax, -272(%rbp)	# tmp132, pic_pix_y
	.loc 1 1524 0
	movl	-276(%rbp), %eax	# mb_x, tmp134
	movl	%eax, -312(%rbp)	# tmp134, block_x
	jmp	.L349	#
.L354:
	.loc 1 1526 0
	movq	img(%rip), %rax	# img, img.497
	movl	168(%rax), %edx	# img.497_36->opix_x, D.12259
	movl	-312(%rbp), %eax	# block_x, tmp138
	addl	%edx, %eax	# D.12259, tmp137
	movl	%eax, -268(%rbp)	# tmp137, pic_pix_x
	.loc 1 1529 0
	movzwl	-326(%rbp), %eax	# bw_ref, bw_ref.498
	movswl	%ax, %edi	# bw_ref.498, D.12259
	movzwl	-328(%rbp), %eax	# fw_ref, fw_ref.499
	movswl	%ax, %r9d	# fw_ref.499, D.12259
	movl	-320(%rbp), %r8d	# bw_mode, bw_mode.500
	movl	-324(%rbp), %ecx	# fw_mode, fw_mode.501
	movzwl	-330(%rbp), %eax	# p_dir, p_dir.502
	movswl	%ax, %edx	# p_dir.502, D.12259
	movl	-316(%rbp), %esi	# block_y, tmp139
	movl	-312(%rbp), %eax	# block_x, tmp140
	movl	%edi, (%rsp)	# D.12259,
	movl	%eax, %edi	# tmp140,
	call	LumaPrediction4x4	#
	.loc 1 1532 0
	leaq	-256(%rbp), %rax	#, tmp141
	movl	-300(%rbp), %edx	# k, tmp143
	movslq	%edx, %rdx	# tmp143, tmp142
	salq	$2, %rdx	#, tmp144
	addq	%rdx, %rax	# tmp144, tmp145
	movq	%rax, -264(%rbp)	# tmp145, diff_ptr
	.loc 1 1533 0
	movl	$0, -304(%rbp)	#, j
	jmp	.L350	#
.L353:
	.loc 1 1534 0
	movl	$0, -308(%rbp)	#, i
	jmp	.L351	#
.L352:
	.loc 1 1536 0 discriminator 2
	movq	imgY_org(%rip), %rax	# imgY_org, imgY_org.503
	movl	-304(%rbp), %edx	# j, tmp146
	movl	-272(%rbp), %ecx	# pic_pix_y, tmp147
	addl	%ecx, %edx	# tmp147, D.12259
	movslq	%edx, %rdx	# D.12259, D.12260
	salq	$3, %rdx	#, D.12260
	addq	%rdx, %rax	# D.12260, D.12261
	movq	(%rax), %rax	# *_54, D.12262
	movl	-308(%rbp), %edx	# i, tmp148
	movl	-268(%rbp), %ecx	# pic_pix_x, tmp149
	addl	%ecx, %edx	# tmp149, D.12259
	movslq	%edx, %rdx	# D.12259, D.12260
	addq	%rdx, %rdx	# D.12260
	addq	%rdx, %rax	# D.12260, D.12262
	movzwl	(%rax), %eax	# *_59, D.12263
	movzwl	%ax, %edx	# D.12263, D.12259
	movq	img(%rip), %rax	# img, img.504
	movl	-312(%rbp), %ecx	# block_x, tmp150
	movl	-308(%rbp), %esi	# i, tmp151
	leal	(%rsi,%rcx), %edi	#, D.12259
	movl	-316(%rbp), %ecx	# block_y, tmp152
	movl	-304(%rbp), %esi	# j, tmp153
	addl	%esi, %ecx	# tmp153, D.12259
	movslq	%ecx, %rcx	# D.12259, tmp154
	movslq	%edi, %rsi	# D.12259, tmp155
	salq	$4, %rsi	#, tmp156
	addq	%rsi, %rcx	# tmp156, tmp157
	addq	$6296, %rcx	#, tmp158
	movzwl	8(%rax,%rcx,2), %eax	# img.504_62->mpr, D.12263
	movzwl	%ax, %eax	# D.12263, D.12259
	subl	%eax, %edx	# D.12259, D.12259
	movl	-300(%rbp), %eax	# k, tmp160
	cltq
	movl	%edx, -256(%rbp,%rax,4)	# D.12259, diff
	.loc 1 1534 0 discriminator 2
	addl	$1, -308(%rbp)	#, i
	addl	$1, -300(%rbp)	#, k
.L351:
	.loc 1 1534 0 is_stmt 0 discriminator 1
	cmpl	$3, -308(%rbp)	#, i
	jle	.L352	#,
	.loc 1 1533 0 is_stmt 1
	addl	$1, -304(%rbp)	#, j
.L350:
	.loc 1 1533 0 is_stmt 0 discriminator 1
	cmpl	$3, -304(%rbp)	#, j
	jle	.L353	#,
	.loc 1 1538 0 is_stmt 1
	movq	input(%rip), %rax	# input, input.505
	movl	24(%rax), %edx	# input.505_71->hadamard, D.12259
	movq	-264(%rbp), %rax	# diff_ptr, tmp161
	movl	%edx, %esi	# D.12259,
	movq	%rax, %rdi	# tmp161,
	call	SATD	#
	addl	%eax, -284(%rbp)	# D.12259, cost4x4
	.loc 1 1524 0
	addl	$4, -312(%rbp)	#, block_x
.L349:
	.loc 1 1524 0 is_stmt 0 discriminator 1
	movl	-276(%rbp), %eax	# mb_x, tmp162
	addl	$8, %eax	#, D.12259
	cmpl	-312(%rbp), %eax	# block_x, D.12259
	jg	.L354	#,
	.loc 1 1520 0 is_stmt 1
	addl	$4, -316(%rbp)	#, block_y
.L348:
	.loc 1 1520 0 is_stmt 0 discriminator 1
	movl	-280(%rbp), %eax	# mb_y, tmp163
	addl	$8, %eax	#, D.12259
	cmpl	-316(%rbp), %eax	# block_y, D.12259
	jg	.L355	#,
	.loc 1 1541 0 is_stmt 1
	movq	input(%rip), %rax	# input, input.506
	movl	24(%rax), %edx	# input.506_77->hadamard, D.12259
	leaq	-256(%rbp), %rax	#, tmp164
	movl	%edx, %esi	# D.12259,
	movq	%rax, %rdi	# tmp164,
	call	SATD8X8	#
	addl	%eax, -288(%rbp)	# D.12259, cost8x8
	.loc 1 1512 0
	addl	$1, -296(%rbp)	#, block8x8
.L347:
	.loc 1 1512 0 is_stmt 0 discriminator 1
	movl	-296(%rbp), %eax	# block8x8, tmp165
	cmpl	-292(%rbp), %eax	# num_blks, tmp165
	jl	.L356	#,
	.loc 1 1544 0 is_stmt 1
	movq	input(%rip), %rax	# input, input.507
	movl	3220(%rax), %eax	# input.507_82->AllowTransform8x8, D.12259
	cmpl	$2, %eax	#, D.12259
	jne	.L357	#,
	.loc 1 1546 0
	movl	$1, %eax	#, D.12259
	jmp	.L360	#
.L357:
	.loc 1 1550 0
	movl	-288(%rbp), %eax	# cost8x8, tmp166
	cmpl	-284(%rbp), %eax	# cost4x4, tmp166
	jge	.L359	#,
	.loc 1 1552 0
	movl	$1, %eax	#, D.12259
	jmp	.L360	#
.L359:
	.loc 1 1556 0
	movq	-352(%rbp), %rax	# cost, tmp167
	movl	(%rax), %eax	# *cost_86(D), D.12259
	subl	-288(%rbp), %eax	# cost8x8, D.12259
	movl	%eax, %edx	# D.12259, D.12259
	movl	-284(%rbp), %eax	# cost4x4, tmp168
	addl	%eax, %edx	# tmp168, D.12259
	movq	-352(%rbp), %rax	# cost, tmp169
	movl	%edx, (%rax)	# D.12259, *cost_86(D)
	.loc 1 1557 0
	movl	$0, %eax	#, D.12259
.L360:
	.loc 1 1560 0
	leave
	.cfi_def_cfa 7, 8
	ret
	.cfi_endproc
.LFE16:
	.size	TransformDecision, .-TransformDecision
	.globl	OneComponentChromaPrediction4x4
	.type	OneComponentChromaPrediction4x4, @function
OneComponentChromaPrediction4x4:
.LFB17:
	.loc 1 1577 0
	.cfi_startproc
	pushq	%rbp	#
	.cfi_def_cfa_offset 16
	.cfi_offset 6, -16
	movq	%rsp, %rbp	#,
	.cfi_def_cfa_register 6
	pushq	%rbx	#
	subq	$24, %rsp	#,
	.cfi_offset 3, -24
	movq	%rdi, -128(%rbp)	# mpred, mpred
	movl	%esi, -132(%rbp)	# block_c_x, block_c_x
	movl	%edx, -136(%rbp)	# block_c_y, block_c_y
	movq	%rcx, -144(%rbp)	# mv, mv
	movl	%r8d, -148(%rbp)	# list_idx, list_idx
	movl	%r9d, %eax	# ref, tmp207
	movw	%ax, -152(%rbp)	# tmp207, ref
	.loc 1 1581 0
	movq	img(%rip), %rax	# img, img.508
	movl	72708(%rax), %ebx	# img.508_9->mb_cr_size_x, D.12264
	movl	$64, %eax	#, tmp210
	cltd
	idivl	%ebx	# D.12264
	movl	%eax, -100(%rbp)	# tmp208, f1_x
	.loc 1 1582 0
	movl	-100(%rbp), %eax	# f1_x, tmp214
	subl	$1, %eax	#, tmp213
	movl	%eax, -96(%rbp)	# tmp213, f2_x
	.loc 1 1584 0
	movq	img(%rip), %rax	# img, img.509
	movl	72712(%rax), %ebx	# img.509_13->mb_cr_size_y, D.12264
	movl	$64, %eax	#, tmp217
	cltd
	idivl	%ebx	# D.12264
	movl	%eax, -92(%rbp)	# tmp215, f1_y
	.loc 1 1585 0
	movl	-92(%rbp), %eax	# f1_y, tmp221
	subl	$1, %eax	#, tmp220
	movl	%eax, -88(%rbp)	# tmp220, f2_y
	.loc 1 1587 0
	movl	-100(%rbp), %eax	# f1_x, tmp223
	imull	-92(%rbp), %eax	# f1_y, tmp222
	movl	%eax, -84(%rbp)	# tmp222, f3
	movl	-84(%rbp), %eax	# f3, tmp227
	sarl	%eax	# tmp226
	movl	%eax, -80(%rbp)	# tmp226, f4
	.loc 1 1594 0
	movq	img(%rip), %rax	# img, img.511
	movl	72400(%rax), %eax	# img.511_19->MbaffFrameFlag, D.12264
	testl	%eax, %eax	# D.12264
	je	.L362	#,
	.loc 1 1594 0 is_stmt 0 discriminator 1
	movq	img(%rip), %rax	# img, img.512
	movq	14168(%rax), %rdx	# img.512_21->mb_data, D.12265
	movq	img(%rip), %rax	# img, img.513
	movl	12(%rax), %eax	# img.513_23->current_mb_nr, D.12264
	cltq
	imulq	$632, %rax, %rax	#, D.12266, D.12266
	addq	%rdx, %rax	# D.12265, D.12265
	movl	532(%rax), %eax	# _27->mb_field, D.12264
	testl	%eax, %eax	# D.12264
	je	.L362	#,
	.loc 1 1594 0 discriminator 3
	movl	$1, %eax	#, iftmp.510
	jmp	.L363	#
.L362:
	.loc 1 1594 0 discriminator 2
	movl	$0, %eax	#, iftmp.510
.L363:
	.loc 1 1594 0 discriminator 4
	movl	%eax, -76(%rbp)	# iftmp.510, curr_mb_field
	.loc 1 1596 0 is_stmt 1 discriminator 4
	cmpl	$0, -76(%rbp)	#, curr_mb_field
	je	.L364	#,
	.loc 1 1598 0
	movq	img(%rip), %rax	# img, img.514
	movl	12(%rax), %eax	# img.514_32->current_mb_nr, D.12264
	andl	$1, %eax	#, D.12267
	testl	%eax, %eax	# D.12267
	je	.L365	#,
	.loc 1 1599 0
	movl	$4, -108(%rbp)	#, list_offset
	jmp	.L366	#
.L365:
	.loc 1 1601 0
	movl	$2, -108(%rbp)	#, list_offset
.L366:
	.loc 1 1602 0 discriminator 1
	movq	img(%rip), %rax	# img, img.515
	movl	64(%rax), %eax	# img.515_38->height_cr, D.12264
	movl	%eax, %edx	# D.12264, tmp228
	shrl	$31, %edx	#, tmp228
	addl	%edx, %eax	# tmp228, tmp229
	sarl	%eax	# tmp230
	subl	$1, %eax	#, tmp231
	movl	%eax, -104(%rbp)	# tmp231, max_y_cr
	jmp	.L367	#
.L364:
	.loc 1 1606 0
	movl	$0, -108(%rbp)	#, list_offset
	.loc 1 1607 0
	movq	img(%rip), %rax	# img, img.516
	movl	64(%rax), %eax	# img.516_43->height_cr, D.12264
	subl	$1, %eax	#, tmp232
	movl	%eax, -104(%rbp)	# tmp232, max_y_cr
.L367:
	.loc 1 1611 0
	movl	-108(%rbp), %eax	# list_offset, tmp233
	movl	-148(%rbp), %edx	# list_idx, tmp234
	addl	%edx, %eax	# tmp234, D.12264
	cltq
	movq	listX(,%rax,8), %rax	# listX, tmp236
	movq	%rax, -32(%rbp)	# tmp236, list
	.loc 1 1613 0
	movswq	-152(%rbp), %rax	# ref, D.12266
	leaq	0(,%rax,8), %rdx	#, D.12266
	movq	-32(%rbp), %rax	# list, tmp237
	addq	%rdx, %rax	# D.12266, D.12268
	movq	(%rax), %rax	# *_52, D.12269
	movq	6464(%rax), %rax	# _53->imgUV, D.12270
	movl	24(%rbp), %edx	# uv, tmp238
	movslq	%edx, %rdx	# tmp238, D.12266
	salq	$3, %rdx	#, D.12266
	addq	%rdx, %rax	# D.12266, D.12270
	movq	(%rax), %rax	# *_58, tmp239
	movq	%rax, -24(%rbp)	# tmp239, refimage
	.loc 1 1615 0
	movl	$0, -112(%rbp)	#, j
	jmp	.L368	#
.L371:
	.loc 1 1616 0
	movl	$0, -116(%rbp)	#, i
	jmp	.L369	#
.L370:
	.loc 1 1618 0 discriminator 2
	movl	-132(%rbp), %eax	# block_c_x, tmp240
	movl	-116(%rbp), %edx	# i, tmp241
	leal	(%rdx,%rax), %ecx	#, D.12264
	movq	img(%rip), %rax	# img, img.517
	movl	72708(%rax), %eax	# img.517_65->mb_cr_size_x, D.12264
	leal	3(%rax), %edx	#, tmp243
	testl	%eax, %eax	# tmp242
	cmovs	%edx, %eax	# tmp243,, tmp242
	sarl	$2, %eax	#, tmp244
	movl	%eax, %ebx	# tmp244, D.12264
	movl	%ecx, %eax	# D.12264, tmp245
	cltd
	idivl	%ebx	# D.12264
	cltq
	leaq	0(,%rax,8), %rdx	#, D.12266
	movq	-144(%rbp), %rax	# mv, tmp247
	addq	%rdx, %rax	# D.12266, D.12271
	movq	(%rax), %rcx	# *_72, D.12272
	movl	-136(%rbp), %eax	# block_c_y, tmp248
	movl	-112(%rbp), %edx	# j, tmp249
	leal	(%rdx,%rax), %esi	#, D.12264
	movq	img(%rip), %rax	# img, img.518
	movl	72712(%rax), %eax	# img.518_76->mb_cr_size_y, D.12264
	leal	3(%rax), %edx	#, tmp251
	testl	%eax, %eax	# tmp250
	cmovs	%edx, %eax	# tmp251,, tmp250
	sarl	$2, %eax	#, tmp252
	movl	%eax, %ebx	# tmp252, D.12264
	movl	%esi, %eax	# D.12264, tmp253
	cltd
	idivl	%ebx	# D.12264
	cltq
	salq	$3, %rax	#, D.12266
	addq	%rcx, %rax	# D.12272, D.12272
	movq	(%rax), %rax	# *_82, D.12273
	movl	-148(%rbp), %edx	# list_idx, tmp255
	movslq	%edx, %rdx	# tmp255, D.12266
	salq	$3, %rdx	#, D.12266
	addq	%rdx, %rax	# D.12266, D.12273
	movq	(%rax), %rax	# *_86, D.12274
	movswq	-152(%rbp), %rdx	# ref, D.12266
	salq	$3, %rdx	#, D.12266
	addq	%rdx, %rax	# D.12266, D.12274
	movq	(%rax), %rax	# *_90, D.12275
	movl	16(%rbp), %edx	# blocktype, tmp256
	movslq	%edx, %rdx	# tmp256, D.12266
	salq	$3, %rdx	#, D.12266
	addq	%rdx, %rax	# D.12266, D.12275
	movq	(%rax), %rax	# *_95, tmp257
	movq	%rax, -16(%rbp)	# tmp257, mvb
	.loc 1 1620 0 discriminator 2
	movl	-132(%rbp), %eax	# block_c_x, tmp258
	movl	-116(%rbp), %edx	# i, tmp259
	addl	%eax, %edx	# tmp258, D.12264
	movq	img(%rip), %rax	# img, img.519
	movl	176(%rax), %eax	# img.519_98->opix_c_x, D.12264
	addl	%edx, %eax	# D.12264, D.12264
	imull	-100(%rbp), %eax	# f1_x, D.12264
	movl	%eax, %edx	# D.12264, D.12264
	movq	-16(%rbp), %rax	# mvb, tmp260
	movzwl	(%rax), %eax	# *mvb_96, D.12276
	cwtl
	addl	%edx, %eax	# D.12264, tmp261
	movl	%eax, -72(%rbp)	# tmp261, ii
	.loc 1 1621 0 discriminator 2
	movl	-136(%rbp), %eax	# block_c_y, tmp262
	movl	-112(%rbp), %edx	# j, tmp263
	addl	%eax, %edx	# tmp262, D.12264
	movq	img(%rip), %rax	# img, img.520
	movl	180(%rax), %eax	# img.520_106->opix_c_y, D.12264
	addl	%edx, %eax	# D.12264, D.12264
	imull	-92(%rbp), %eax	# f1_y, D.12264
	movl	%eax, %edx	# D.12264, D.12264
	movq	-16(%rbp), %rax	# mvb, tmp264
	addq	$2, %rax	#, D.12277
	movzwl	(%rax), %eax	# *_110, D.12276
	cwtl
	addl	%edx, %eax	# D.12264, tmp265
	movl	%eax, -68(%rbp)	# tmp265, jj
	.loc 1 1623 0 discriminator 2
	movswq	-152(%rbp), %rax	# ref, D.12266
	leaq	0(,%rax,8), %rdx	#, D.12266
	movq	-32(%rbp), %rax	# list, tmp266
	addq	%rdx, %rax	# D.12266, D.12268
	movq	(%rax), %rax	# *_116, D.12269
	movl	6408(%rax), %eax	# _117->chroma_vector_adjustment, D.12264
	addl	%eax, -68(%rbp)	# D.12264, jj
	.loc 1 1625 0 discriminator 2
	movl	-72(%rbp), %eax	# ii, tmp269
	cltd
	idivl	-100(%rbp)	# f1_x
	movq	img(%rip), %rdx	# img, img.521
	movl	56(%rdx), %edx	# img.521_121->width_cr, D.12264
	subl	$1, %edx	#, D.12264
	cmpl	%edx, %eax	# D.12264, D.12264
	cmovg	%edx, %eax	# D.12264,, D.12264, D.12264
	movl	$0, %edx	#, tmp271
	testl	%eax, %eax	# D.12264
	cmovs	%edx, %eax	# D.12264,, tmp271, tmp270
	movl	%eax, -64(%rbp)	# tmp270, ii0
	.loc 1 1626 0 discriminator 2
	movl	-68(%rbp), %eax	# jj, tmp274
	cltd
	idivl	-92(%rbp)	# f1_y
	movl	%eax, %edx	# tmp272, D.12264
	movl	-104(%rbp), %eax	# max_y_cr, tmp275
	cmpl	%eax, %edx	# tmp275, D.12264
	cmovle	%edx, %eax	# D.12264,, D.12264
	movl	$0, %edx	#, tmp277
	testl	%eax, %eax	# D.12264
	cmovs	%edx, %eax	# D.12264,, tmp277, tmp276
	movl	%eax, -60(%rbp)	# tmp276, jj0
	.loc 1 1627 0 discriminator 2
	movl	-96(%rbp), %eax	# f2_x, tmp278
	movl	-72(%rbp), %edx	# ii, tmp279
	addl	%edx, %eax	# tmp279, D.12264
	cltd
	idivl	-100(%rbp)	# f1_x
	movq	img(%rip), %rdx	# img, img.522
	movl	56(%rdx), %edx	# img.522_131->width_cr, D.12264
	subl	$1, %edx	#, D.12264
	cmpl	%edx, %eax	# D.12264, D.12264
	cmovg	%edx, %eax	# D.12264,, D.12264, D.12264
	movl	$0, %edx	#, tmp283
	testl	%eax, %eax	# D.12264
	cmovs	%edx, %eax	# D.12264,, tmp283, tmp282
	movl	%eax, -56(%rbp)	# tmp282, ii1
	.loc 1 1628 0 discriminator 2
	movl	-88(%rbp), %eax	# f2_y, tmp284
	movl	-68(%rbp), %edx	# jj, tmp285
	addl	%edx, %eax	# tmp285, D.12264
	cltd
	idivl	-92(%rbp)	# f1_y
	movl	%eax, %edx	# tmp286, D.12264
	movl	-104(%rbp), %eax	# max_y_cr, tmp288
	cmpl	%eax, %edx	# tmp288, D.12264
	cmovle	%edx, %eax	# D.12264,, D.12264
	movl	$0, %edx	#, tmp290
	testl	%eax, %eax	# D.12264
	cmovs	%edx, %eax	# D.12264,, tmp290, tmp289
	movl	%eax, -52(%rbp)	# tmp289, jj1
	.loc 1 1630 0 discriminator 2
	movl	-96(%rbp), %eax	# f2_x, tmp295
	movl	-72(%rbp), %edx	# ii, tmp296
	andl	%edx, %eax	# tmp296, tmp294
	movl	%eax, -48(%rbp)	# tmp294, if1
	movl	-48(%rbp), %eax	# if1, tmp301
	movl	-100(%rbp), %edx	# f1_x, tmp302
	subl	%eax, %edx	# tmp301, tmp300
	movl	%edx, %eax	# tmp300, tmp300
	movl	%eax, -44(%rbp)	# tmp300, if0
	.loc 1 1631 0 discriminator 2
	movl	-88(%rbp), %eax	# f2_y, tmp307
	movl	-68(%rbp), %edx	# jj, tmp308
	andl	%edx, %eax	# tmp308, tmp306
	movl	%eax, -40(%rbp)	# tmp306, jf1
	movl	-40(%rbp), %eax	# jf1, tmp313
	movl	-92(%rbp), %edx	# f1_y, tmp314
	subl	%eax, %edx	# tmp313, tmp312
	movl	%edx, %eax	# tmp312, tmp312
	movl	%eax, -36(%rbp)	# tmp312, jf0
	.loc 1 1633 0 discriminator 2
	movq	-128(%rbp), %rcx	# mpred, mpred.523
	leaq	4(%rcx), %rax	#, tmp315
	movq	%rax, -128(%rbp)	# tmp315, mpred
	movl	-44(%rbp), %eax	# if0, tmp316
	imull	-36(%rbp), %eax	# jf0, D.12264
	movl	%eax, %edx	# D.12264, D.12264
	movl	-60(%rbp), %eax	# jj0, tmp317
	cltq
	leaq	0(,%rax,8), %rsi	#, D.12266
	movq	-24(%rbp), %rax	# refimage, tmp318
	addq	%rsi, %rax	# D.12266, D.12278
	movq	(%rax), %rax	# *_149, D.12279
	movl	-64(%rbp), %esi	# ii0, tmp319
	movslq	%esi, %rsi	# tmp319, D.12266
	addq	%rsi, %rsi	# D.12266
	addq	%rsi, %rax	# D.12266, D.12279
	movzwl	(%rax), %eax	# *_153, D.12280
	movzwl	%ax, %eax	# D.12280, D.12264
	imull	%eax, %edx	# D.12264, D.12264
	.loc 1 1634 0 discriminator 2
	movl	-48(%rbp), %eax	# if1, tmp320
	imull	-36(%rbp), %eax	# jf0, D.12264
	movl	%eax, %esi	# D.12264, D.12264
	movl	-60(%rbp), %eax	# jj0, tmp321
	cltq
	leaq	0(,%rax,8), %rdi	#, D.12266
	movq	-24(%rbp), %rax	# refimage, tmp322
	addq	%rdi, %rax	# D.12266, D.12278
	movq	(%rax), %rax	# *_160, D.12279
	movl	-56(%rbp), %edi	# ii1, tmp323
	movslq	%edi, %rdi	# tmp323, D.12266
	addq	%rdi, %rdi	# D.12266
	addq	%rdi, %rax	# D.12266, D.12279
	movzwl	(%rax), %eax	# *_164, D.12280
	movzwl	%ax, %eax	# D.12280, D.12264
	imull	%esi, %eax	# D.12264, D.12264
	.loc 1 1633 0 discriminator 2
	leal	(%rdx,%rax), %edi	#, D.12264
	.loc 1 1635 0 discriminator 2
	movl	-44(%rbp), %eax	# if0, tmp324
	imull	-40(%rbp), %eax	# jf1, D.12264
	movl	%eax, %edx	# D.12264, D.12264
	movl	-52(%rbp), %eax	# jj1, tmp325
	cltq
	leaq	0(,%rax,8), %rsi	#, D.12266
	movq	-24(%rbp), %rax	# refimage, tmp326
	addq	%rsi, %rax	# D.12266, D.12278
	movq	(%rax), %rax	# *_172, D.12279
	movl	-64(%rbp), %esi	# ii0, tmp327
	movslq	%esi, %rsi	# tmp327, D.12266
	addq	%rsi, %rsi	# D.12266
	addq	%rsi, %rax	# D.12266, D.12279
	movzwl	(%rax), %eax	# *_176, D.12280
	movzwl	%ax, %eax	# D.12280, D.12264
	imull	%edx, %eax	# D.12264, D.12264
	.loc 1 1634 0 discriminator 2
	addl	%eax, %edi	# D.12264, D.12264
	.loc 1 1636 0 discriminator 2
	movl	-48(%rbp), %eax	# if1, tmp328
	imull	-40(%rbp), %eax	# jf1, D.12264
	movl	%eax, %edx	# D.12264, D.12264
	movl	-52(%rbp), %eax	# jj1, tmp329
	cltq
	leaq	0(,%rax,8), %rsi	#, D.12266
	movq	-24(%rbp), %rax	# refimage, tmp330
	addq	%rsi, %rax	# D.12266, D.12278
	movq	(%rax), %rax	# *_184, D.12279
	movl	-56(%rbp), %esi	# ii1, tmp331
	movslq	%esi, %rsi	# tmp331, D.12266
	addq	%rsi, %rsi	# D.12266
	addq	%rsi, %rax	# D.12266, D.12279
	movzwl	(%rax), %eax	# *_188, D.12280
	movzwl	%ax, %eax	# D.12280, D.12264
	imull	%edx, %eax	# D.12264, D.12264
	.loc 1 1635 0 discriminator 2
	leal	(%rdi,%rax), %edx	#, D.12264
	.loc 1 1636 0 discriminator 2
	movl	-80(%rbp), %eax	# f4, tmp332
	addl	%edx, %eax	# D.12264, D.12264
	cltd
	idivl	-84(%rbp)	# f3
	.loc 1 1633 0 discriminator 2
	movl	%eax, (%rcx)	# D.12264, *mpred.523_144
	.loc 1 1616 0 discriminator 2
	addl	$1, -116(%rbp)	#, i
.L369:
	.loc 1 1616 0 is_stmt 0 discriminator 1
	cmpl	$3, -116(%rbp)	#, i
	jle	.L370	#,
	.loc 1 1615 0 is_stmt 1
	addl	$1, -112(%rbp)	#, j
.L368:
	.loc 1 1615 0 is_stmt 0 discriminator 1
	cmpl	$3, -112(%rbp)	#, j
	jle	.L371	#,
	.loc 1 1638 0 is_stmt 1
	addq	$24, %rsp	#,
	popq	%rbx	#
	popq	%rbp	#
	.cfi_def_cfa 7, 8
	ret
	.cfi_endproc
.LFE17:
	.size	OneComponentChromaPrediction4x4, .-OneComponentChromaPrediction4x4
	.globl	IntraChromaPrediction4x4
	.type	IntraChromaPrediction4x4, @function
IntraChromaPrediction4x4:
.LFB18:
	.loc 1 1650 0
	.cfi_startproc
	pushq	%rbp	#
	.cfi_def_cfa_offset 16
	.cfi_offset 6, -16
	movq	%rsp, %rbp	#,
	.cfi_def_cfa_register 6
	movl	%edi, -20(%rbp)	# uv, uv
	movl	%esi, -24(%rbp)	# block_x, block_x
	movl	%edx, -28(%rbp)	# block_y, block_y
	.loc 1 1651 0
	movq	img(%rip), %rax	# img, img.524
	movq	14168(%rax), %rdx	# img.524_3->mb_data, D.12281
	movq	img(%rip), %rax	# img, img.525
	movl	12(%rax), %eax	# img.525_5->current_mb_nr, D.12282
	cltq
	imulq	$632, %rax, %rax	#, D.12283, D.12283
	addq	%rdx, %rax	# D.12281, D.12281
	movl	524(%rax), %eax	# _9->c_ipred_mode, tmp71
	movl	%eax, -4(%rbp)	# tmp71, mode
	.loc 1 1655 0
	movl	-28(%rbp), %eax	# block_y, tmp72
	movl	%eax, -8(%rbp)	# tmp72, j
	jmp	.L373	#
.L376:
	.loc 1 1656 0
	movl	-24(%rbp), %eax	# block_x, tmp73
	movl	%eax, -12(%rbp)	# tmp73, i
	jmp	.L374	#
.L375:
	.loc 1 1658 0 discriminator 2
	movq	img(%rip), %rax	# img, img.526
	movq	img(%rip), %rdx	# img, img.527
	movl	-8(%rbp), %ecx	# j, tmp75
	movslq	%ecx, %rcx	# tmp75, tmp74
	movl	-4(%rbp), %esi	# mode, tmp77
	movslq	%esi, %rsi	# tmp77, tmp76
	movl	-20(%rbp), %edi	# uv, tmp79
	movslq	%edi, %rdi	# tmp79, tmp78
	salq	$2, %rdi	#, tmp80
	addq	%rsi, %rdi	# tmp76, tmp81
	movl	-12(%rbp), %esi	# i, tmp83
	movslq	%esi, %rsi	# tmp83, tmp82
	salq	$4, %rdi	#, tmp84
	addq	%rdi, %rsi	# tmp84, tmp85
	salq	$4, %rsi	#, tmp86
	addq	%rsi, %rcx	# tmp86, tmp87
	addq	$4248, %rcx	#, tmp88
	movzwl	8(%rdx,%rcx,2), %edx	# img.527_18->mprr_c, D.12284
	movl	-8(%rbp), %ecx	# j, tmp90
	movslq	%ecx, %rcx	# tmp90, tmp89
	movl	-12(%rbp), %esi	# i, tmp92
	movslq	%esi, %rsi	# tmp92, tmp91
	salq	$4, %rsi	#, tmp93
	addq	%rsi, %rcx	# tmp93, tmp94
	addq	$6296, %rcx	#, tmp95
	movw	%dx, 8(%rax,%rcx,2)	# D.12284, img.526_17->mpr
	.loc 1 1656 0 discriminator 2
	addl	$1, -12(%rbp)	#, i
.L374:
	.loc 1 1656 0 is_stmt 0 discriminator 1
	movl	-24(%rbp), %eax	# block_x, tmp96
	addl	$4, %eax	#, D.12282
	cmpl	-12(%rbp), %eax	# i, D.12282
	jg	.L375	#,
	.loc 1 1655 0 is_stmt 1
	addl	$1, -8(%rbp)	#, j
.L373:
	.loc 1 1655 0 is_stmt 0 discriminator 1
	movl	-28(%rbp), %eax	# block_y, tmp97
	addl	$4, %eax	#, D.12282
	cmpl	-8(%rbp), %eax	# j, D.12282
	jg	.L376	#,
	.loc 1 1660 0 is_stmt 1
	popq	%rbp	#
	.cfi_def_cfa 7, 8
	ret
	.cfi_endproc
.LFE18:
	.size	IntraChromaPrediction4x4, .-IntraChromaPrediction4x4
	.globl	ChromaPrediction4x4
	.type	ChromaPrediction4x4, @function
ChromaPrediction4x4:
.LFB19:
	.loc 1 1679 0
	.cfi_startproc
	pushq	%rbp	#
	.cfi_def_cfa_offset 16
	.cfi_offset 6, -16
	movq	%rsp, %rbp	#,
	.cfi_def_cfa_register 6
	pushq	%rbx	#
	subq	$112, %rsp	#,
	.cfi_offset 3, -24
	movl	%edi, -76(%rbp)	# uv, uv
	movl	%esi, -80(%rbp)	# block_x, block_x
	movl	%edx, -84(%rbp)	# block_y, block_y
	movl	%ecx, -88(%rbp)	# p_dir, p_dir
	movl	%r8d, -92(%rbp)	# fw_mode, fw_mode
	movl	%r9d, -96(%rbp)	# bw_mode, bw_mode
	movl	16(%rbp), %edx	# fw_ref_idx, tmp243
	movl	24(%rbp), %eax	# bw_ref_idx, tmp244
	movw	%dx, -100(%rbp)	# tmp243, fw_ref_idx
	movw	%ax, -104(%rbp)	# tmp244, bw_ref_idx
	.loc 1 1684 0
	movl	-80(%rbp), %eax	# block_x, tmp248
	addl	$4, %eax	#, tmp247
	movl	%eax, -52(%rbp)	# tmp247, block_x4
	.loc 1 1685 0
	movl	-84(%rbp), %eax	# block_y, tmp252
	addl	$4, %eax	#, tmp251
	movl	%eax, -48(%rbp)	# tmp251, block_y4
	.loc 1 1686 0
	movq	$fw_pred.5192, -40(%rbp)	#, fpred
	.loc 1 1687 0
	movq	$bw_pred.5193, -32(%rbp)	#, bpred
	.loc 1 1688 0
	movq	img(%rip), %rax	# img, img.528
	movq	71928(%rax), %rax	# img.528_38->all_mv, tmp253
	movq	%rax, -24(%rbp)	# tmp253, mv_array
	.loc 1 1690 0
	movq	img(%rip), %rax	# img, img.529
	movq	14168(%rax), %rdx	# img.529_40->mb_data, D.12285
	movq	img(%rip), %rax	# img, img.530
	movl	12(%rax), %eax	# img.530_42->current_mb_nr, D.12286
	cltq
	imulq	$632, %rax, %rax	#, D.12287, D.12287
	addq	%rdx, %rax	# D.12285, tmp254
	movq	%rax, -16(%rbp)	# tmp254, currMB
	.loc 1 1692 0
	movq	active_pps(%rip), %rax	# active_pps, active_pps.532
	movl	192(%rax), %eax	# active_pps.532_47->weighted_pred_flag, D.12288
	testl	%eax, %eax	# D.12288
	je	.L378	#,
	.loc 1 1692 0 is_stmt 0 discriminator 1
	movq	img(%rip), %rax	# img, img.533
	movl	24(%rax), %eax	# img.533_49->type, D.12286
	testl	%eax, %eax	# D.12286
	je	.L379	#,
	.loc 1 1692 0 discriminator 2
	movq	img(%rip), %rax	# img, img.534
	movl	24(%rax), %eax	# img.534_51->type, D.12286
	cmpl	$3, %eax	#, D.12286
	je	.L379	#,
.L378:
	.loc 1 1693 0 is_stmt 1 discriminator 2
	movq	active_pps(%rip), %rax	# active_pps, active_pps.535
	movl	196(%rax), %eax	# active_pps.535_53->weighted_bipred_idc, D.12289
	.loc 1 1692 0 discriminator 2
	testl	%eax, %eax	# D.12289
	je	.L380	#,
	.loc 1 1693 0
	movq	img(%rip), %rax	# img, img.536
	movl	24(%rax), %eax	# img.536_55->type, D.12286
	cmpl	$1, %eax	#, D.12286
	jne	.L380	#,
.L379:
	.loc 1 1692 0 discriminator 1
	movl	$1, %eax	#, iftmp.531
	jmp	.L381	#
.L380:
	.loc 1 1692 0 is_stmt 0 discriminator 3
	movl	$0, %eax	#, iftmp.531
.L381:
	.loc 1 1692 0 discriminator 4
	movl	%eax, -44(%rbp)	# iftmp.531, apply_weights
	.loc 1 1696 0 is_stmt 1 discriminator 4
	movq	-16(%rbp), %rax	# currMB, tmp255
	movl	580(%rax), %eax	# currMB_46->bi_pred_me, D.12286
	testl	%eax, %eax	# D.12286
	je	.L382	#,
	.loc 1 1696 0 is_stmt 0 discriminator 1
	cmpw	$0, -100(%rbp)	#, fw_ref_idx
	jne	.L382	#,
	cmpw	$0, -104(%rbp)	#, bw_ref_idx
	jne	.L382	#,
	cmpl	$2, -88(%rbp)	#, p_dir
	jne	.L382	#,
	cmpl	$1, -92(%rbp)	#, fw_mode
	jne	.L382	#,
	cmpl	$1, -96(%rbp)	#, bw_mode
	jne	.L382	#,
	.loc 1 1697 0 is_stmt 1
	movq	-16(%rbp), %rax	# currMB, tmp256
	movl	580(%rax), %eax	# currMB_46->bi_pred_me, D.12286
	cmpl	$1, %eax	#, D.12286
	jne	.L383	#,
	.loc 1 1697 0 is_stmt 0 discriminator 1
	movq	img(%rip), %rax	# img, img.538
	movq	71936(%rax), %rax	# img.538_67->bipred_mv1, iftmp.537
	jmp	.L384	#
.L383:
	.loc 1 1697 0 discriminator 2
	movq	img(%rip), %rax	# img, img.539
	movq	71944(%rax), %rax	# img.539_69->bipred_mv2, iftmp.537
.L384:
	.loc 1 1697 0 discriminator 3
	movq	%rax, -24(%rbp)	# iftmp.537, mv_array
.L382:
	.loc 1 1701 0 is_stmt 1
	cmpl	$-1, -88(%rbp)	#, p_dir
	jne	.L385	#,
	.loc 1 1703 0
	movl	-84(%rbp), %edx	# block_y, tmp257
	movl	-80(%rbp), %ecx	# block_x, tmp258
	movl	-76(%rbp), %eax	# uv, tmp259
	movl	%ecx, %esi	# tmp258,
	movl	%eax, %edi	# tmp259,
	call	IntraChromaPrediction4x4	#
	.loc 1 1704 0
	jmp	.L377	#
.L385:
	.loc 1 1708 0
	cmpl	$0, -88(%rbp)	#, p_dir
	je	.L387	#,
	.loc 1 1708 0 is_stmt 0 discriminator 1
	cmpl	$2, -88(%rbp)	#, p_dir
	jne	.L388	#,
.L387:
	.loc 1 1710 0 is_stmt 1
	movswl	-100(%rbp), %edi	# fw_ref_idx, D.12286
	movq	-24(%rbp), %rcx	# mv_array, tmp260
	movl	-84(%rbp), %edx	# block_y, tmp261
	movl	-80(%rbp), %eax	# block_x, tmp262
	movl	-76(%rbp), %esi	# uv, tmp263
	movl	%esi, 8(%rsp)	# tmp263,
	movl	-92(%rbp), %esi	# fw_mode, tmp264
	movl	%esi, (%rsp)	# tmp264,
	movl	%edi, %r9d	# D.12286,
	movl	$0, %r8d	#,
	movl	%eax, %esi	# tmp262,
	movl	$fw_pred.5192, %edi	#,
	call	OneComponentChromaPrediction4x4	#
.L388:
	.loc 1 1712 0
	cmpl	$1, -88(%rbp)	#, p_dir
	je	.L389	#,
	.loc 1 1712 0 is_stmt 0 discriminator 1
	cmpl	$2, -88(%rbp)	#, p_dir
	jne	.L390	#,
.L389:
	.loc 1 1714 0 is_stmt 1
	movswl	-104(%rbp), %edi	# bw_ref_idx, D.12286
	movq	-24(%rbp), %rcx	# mv_array, tmp265
	movl	-84(%rbp), %edx	# block_y, tmp266
	movl	-80(%rbp), %eax	# block_x, tmp267
	movl	-76(%rbp), %esi	# uv, tmp268
	movl	%esi, 8(%rsp)	# tmp268,
	movl	-96(%rbp), %esi	# bw_mode, tmp269
	movl	%esi, (%rsp)	# tmp269,
	movl	%edi, %r9d	# D.12286,
	movl	$1, %r8d	#,
	movl	%eax, %esi	# tmp267,
	movl	$bw_pred.5193, %edi	#,
	call	OneComponentChromaPrediction4x4	#
.L390:
	.loc 1 1717 0
	cmpl	$0, -44(%rbp)	#, apply_weights
	je	.L391	#,
	.loc 1 1719 0
	cmpl	$2, -88(%rbp)	#, p_dir
	jne	.L392	#,
	.loc 1 1721 0
	movl	-84(%rbp), %eax	# block_y, tmp270
	movl	%eax, -56(%rbp)	# tmp270, j
	jmp	.L393	#
.L396:
	.loc 1 1722 0
	movl	-80(%rbp), %eax	# block_x, tmp271
	movl	%eax, -60(%rbp)	# tmp271, i
	jmp	.L394	#
.L395:
	.loc 1 1723 0 discriminator 2
	movq	img(%rip), %rbx	# img, img.540
	movq	wbp_weight(%rip), %rax	# wbp_weight, wbp_weight.541
	movq	(%rax), %rax	# *wbp_weight.541_78, D.12290
	movswq	-100(%rbp), %rdx	# fw_ref_idx, D.12287
	salq	$3, %rdx	#, D.12287
	addq	%rdx, %rax	# D.12287, D.12290
	movq	(%rax), %rax	# *_82, D.12291
	movswq	-104(%rbp), %rdx	# bw_ref_idx, D.12287
	salq	$3, %rdx	#, D.12287
	addq	%rdx, %rax	# D.12287, D.12291
	movq	(%rax), %rax	# *_86, D.12292
	movl	-76(%rbp), %edx	# uv, tmp272
	movslq	%edx, %rdx	# tmp272, D.12293
	addq	$1, %rdx	#, D.12293
	salq	$2, %rdx	#, D.12293
	addq	%rdx, %rax	# D.12293, D.12292
	movl	(%rax), %ecx	# *_91, D.12286
	movq	-40(%rbp), %rax	# fpred, fpred.542
	leaq	4(%rax), %rdx	#, tmp273
	movq	%rdx, -40(%rbp)	# tmp273, fpred
	movl	(%rax), %eax	# *fpred.542_93, D.12286
	imull	%eax, %ecx	# D.12286, D.12286
	movq	wbp_weight(%rip), %rax	# wbp_weight, wbp_weight.543
	addq	$8, %rax	#, D.12294
	movq	(%rax), %rax	# *_98, D.12290
	movswq	-100(%rbp), %rdx	# fw_ref_idx, D.12287
	salq	$3, %rdx	#, D.12287
	addq	%rdx, %rax	# D.12287, D.12290
	movq	(%rax), %rax	# *_102, D.12291
	movswq	-104(%rbp), %rdx	# bw_ref_idx, D.12287
	salq	$3, %rdx	#, D.12287
	addq	%rdx, %rax	# D.12287, D.12291
	movq	(%rax), %rax	# *_106, D.12292
	movl	-76(%rbp), %edx	# uv, tmp274
	movslq	%edx, %rdx	# tmp274, D.12293
	addq	$1, %rdx	#, D.12293
	salq	$2, %rdx	#, D.12293
	addq	%rdx, %rax	# D.12293, D.12292
	movl	(%rax), %esi	# *_111, D.12286
	movq	-32(%rbp), %rax	# bpred, bpred.544
	leaq	4(%rax), %rdx	#, tmp275
	movq	%rdx, -32(%rbp)	# tmp275, bpred
	movl	(%rax), %eax	# *bpred.544_113, D.12286
	imull	%esi, %eax	# D.12286, D.12286
	leal	(%rcx,%rax), %edx	#, D.12286
	.loc 1 1724 0 discriminator 2
	movl	wp_chroma_round(%rip), %eax	# wp_chroma_round, wp_chroma_round.545
	addl	%eax, %eax	# D.12286
	addl	%eax, %edx	# D.12286, D.12286
	movl	chroma_log_weight_denom(%rip), %eax	# chroma_log_weight_denom, chroma_log_weight_denom.546
	addl	$1, %eax	#, D.12286
	movl	%edx, %esi	# D.12286, D.12286
	movl	%eax, %ecx	# D.12286, tmp356
	sarl	%cl, %esi	# tmp356, D.12286
	movq	wp_offset(%rip), %rax	# wp_offset, wp_offset.547
	movq	(%rax), %rax	# *wp_offset.547_124, D.12291
	movswq	-100(%rbp), %rdx	# fw_ref_idx, D.12287
	salq	$3, %rdx	#, D.12287
	addq	%rdx, %rax	# D.12287, D.12291
	movq	(%rax), %rax	# *_128, D.12292
	movl	-76(%rbp), %edx	# uv, tmp276
	movslq	%edx, %rdx	# tmp276, D.12293
	addq	$1, %rdx	#, D.12293
	salq	$2, %rdx	#, D.12293
	addq	%rdx, %rax	# D.12293, D.12292
	movl	(%rax), %edx	# *_133, D.12286
	movq	wp_offset(%rip), %rax	# wp_offset, wp_offset.548
	addq	$8, %rax	#, D.12290
	movq	(%rax), %rax	# *_136, D.12291
	movswq	-104(%rbp), %rcx	# bw_ref_idx, D.12287
	salq	$3, %rcx	#, D.12287
	addq	%rcx, %rax	# D.12287, D.12291
	movq	(%rax), %rax	# *_140, D.12292
	movl	-76(%rbp), %ecx	# uv, tmp277
	movslq	%ecx, %rcx	# tmp277, D.12293
	addq	$1, %rcx	#, D.12293
	salq	$2, %rcx	#, D.12293
	addq	%rcx, %rax	# D.12293, D.12292
	movl	(%rax), %eax	# *_145, D.12286
	addl	%edx, %eax	# D.12286, D.12286
	addl	$1, %eax	#, D.12286
	sarl	%eax	# D.12286
	.loc 1 1723 0 discriminator 2
	addl	%esi, %eax	# D.12286, D.12286
	movl	%eax, %edi	# D.12286,
	call	clip1a_chr	#
	movl	-56(%rbp), %edx	# j, tmp279
	movslq	%edx, %rdx	# tmp279, tmp278
	movl	-60(%rbp), %ecx	# i, tmp281
	movslq	%ecx, %rcx	# tmp281, tmp280
	salq	$4, %rcx	#, tmp282
	addq	%rcx, %rdx	# tmp282, tmp283
	addq	$6296, %rdx	#, tmp284
	movw	%ax, 8(%rbx,%rdx,2)	# D.12295, img.540_77->mpr
	.loc 1 1722 0 discriminator 2
	addl	$1, -60(%rbp)	#, i
.L394:
	.loc 1 1722 0 is_stmt 0 discriminator 1
	movl	-60(%rbp), %eax	# i, tmp285
	cmpl	-52(%rbp), %eax	# block_x4, tmp285
	jl	.L395	#,
	.loc 1 1721 0 is_stmt 1
	addl	$1, -56(%rbp)	#, j
.L393:
	.loc 1 1721 0 is_stmt 0 discriminator 1
	movl	-56(%rbp), %eax	# j, tmp286
	cmpl	-48(%rbp), %eax	# block_y4, tmp286
	jl	.L396	#,
	jmp	.L377	#
.L392:
	.loc 1 1726 0 is_stmt 1
	cmpl	$0, -88(%rbp)	#, p_dir
	jne	.L397	#,
	.loc 1 1728 0
	movl	-84(%rbp), %eax	# block_y, tmp287
	movl	%eax, -56(%rbp)	# tmp287, j
	jmp	.L398	#
.L401:
	.loc 1 1729 0
	movl	-80(%rbp), %eax	# block_x, tmp288
	movl	%eax, -60(%rbp)	# tmp288, i
	jmp	.L399	#
.L400:
	.loc 1 1730 0 discriminator 2
	movq	img(%rip), %rbx	# img, img.549
	movq	wp_weight(%rip), %rax	# wp_weight, wp_weight.550
	movq	(%rax), %rax	# *wp_weight.550_158, D.12291
	movswq	-100(%rbp), %rdx	# fw_ref_idx, D.12287
	salq	$3, %rdx	#, D.12287
	addq	%rdx, %rax	# D.12287, D.12291
	movq	(%rax), %rax	# *_162, D.12292
	movl	-76(%rbp), %edx	# uv, tmp289
	movslq	%edx, %rdx	# tmp289, D.12293
	addq	$1, %rdx	#, D.12293
	salq	$2, %rdx	#, D.12293
	addq	%rdx, %rax	# D.12293, D.12292
	movl	(%rax), %ecx	# *_167, D.12286
	movq	-40(%rbp), %rax	# fpred, fpred.551
	leaq	4(%rax), %rdx	#, tmp290
	movq	%rdx, -40(%rbp)	# tmp290, fpred
	movl	(%rax), %eax	# *fpred.551_169, D.12286
	imull	%eax, %ecx	# D.12286, D.12286
	movl	%ecx, %edx	# D.12286, D.12286
	movl	wp_chroma_round(%rip), %eax	# wp_chroma_round, wp_chroma_round.552
	addl	%eax, %edx	# wp_chroma_round.552, D.12286
	movl	chroma_log_weight_denom(%rip), %eax	# chroma_log_weight_denom, chroma_log_weight_denom.553
	movl	%eax, %ecx	# chroma_log_weight_denom.553, tmp359
	sarl	%cl, %edx	# tmp359, D.12286
	movl	%edx, %ecx	# D.12286, D.12286
	movq	wp_offset(%rip), %rax	# wp_offset, wp_offset.554
	movq	(%rax), %rax	# *wp_offset.554_177, D.12291
	movswq	-100(%rbp), %rdx	# fw_ref_idx, D.12287
	salq	$3, %rdx	#, D.12287
	addq	%rdx, %rax	# D.12287, D.12291
	movq	(%rax), %rax	# *_181, D.12292
	movl	-76(%rbp), %edx	# uv, tmp291
	movslq	%edx, %rdx	# tmp291, D.12293
	addq	$1, %rdx	#, D.12293
	salq	$2, %rdx	#, D.12293
	addq	%rdx, %rax	# D.12293, D.12292
	movl	(%rax), %eax	# *_186, D.12286
	addl	%ecx, %eax	# D.12286, D.12286
	movl	%eax, %edi	# D.12286,
	call	clip1a_chr	#
	movl	-56(%rbp), %edx	# j, tmp293
	movslq	%edx, %rdx	# tmp293, tmp292
	movl	-60(%rbp), %ecx	# i, tmp295
	movslq	%ecx, %rcx	# tmp295, tmp294
	salq	$4, %rcx	#, tmp296
	addq	%rcx, %rdx	# tmp296, tmp297
	addq	$6296, %rdx	#, tmp298
	movw	%ax, 8(%rbx,%rdx,2)	# D.12295, img.549_157->mpr
	.loc 1 1729 0 discriminator 2
	addl	$1, -60(%rbp)	#, i
.L399:
	.loc 1 1729 0 is_stmt 0 discriminator 1
	movl	-60(%rbp), %eax	# i, tmp299
	cmpl	-52(%rbp), %eax	# block_x4, tmp299
	jl	.L400	#,
	.loc 1 1728 0 is_stmt 1
	addl	$1, -56(%rbp)	#, j
.L398:
	.loc 1 1728 0 is_stmt 0 discriminator 1
	movl	-56(%rbp), %eax	# j, tmp300
	cmpl	-48(%rbp), %eax	# block_y4, tmp300
	jl	.L401	#,
	jmp	.L377	#
.L397:
	.loc 1 1734 0 is_stmt 1
	movl	-84(%rbp), %eax	# block_y, tmp301
	movl	%eax, -56(%rbp)	# tmp301, j
	jmp	.L402	#
.L405:
	.loc 1 1735 0
	movl	-80(%rbp), %eax	# block_x, tmp302
	movl	%eax, -60(%rbp)	# tmp302, i
	jmp	.L403	#
.L404:
	.loc 1 1736 0 discriminator 2
	movq	img(%rip), %rbx	# img, img.555
	movq	wp_weight(%rip), %rax	# wp_weight, wp_weight.556
	addq	$8, %rax	#, D.12290
	movq	(%rax), %rax	# *_197, D.12291
	movswq	-104(%rbp), %rdx	# bw_ref_idx, D.12287
	salq	$3, %rdx	#, D.12287
	addq	%rdx, %rax	# D.12287, D.12291
	movq	(%rax), %rax	# *_201, D.12292
	movl	-76(%rbp), %edx	# uv, tmp303
	movslq	%edx, %rdx	# tmp303, D.12293
	addq	$1, %rdx	#, D.12293
	salq	$2, %rdx	#, D.12293
	addq	%rdx, %rax	# D.12293, D.12292
	movl	(%rax), %ecx	# *_206, D.12286
	movq	-32(%rbp), %rax	# bpred, bpred.557
	leaq	4(%rax), %rdx	#, tmp304
	movq	%rdx, -32(%rbp)	# tmp304, bpred
	movl	(%rax), %eax	# *bpred.557_208, D.12286
	imull	%eax, %ecx	# D.12286, D.12286
	movl	%ecx, %edx	# D.12286, D.12286
	movl	wp_chroma_round(%rip), %eax	# wp_chroma_round, wp_chroma_round.558
	addl	%eax, %edx	# wp_chroma_round.558, D.12286
	movl	chroma_log_weight_denom(%rip), %eax	# chroma_log_weight_denom, chroma_log_weight_denom.559
	movl	%eax, %ecx	# chroma_log_weight_denom.559, tmp362
	sarl	%cl, %edx	# tmp362, D.12286
	movl	%edx, %ecx	# D.12286, D.12286
	movq	wp_offset(%rip), %rax	# wp_offset, wp_offset.560
	addq	$8, %rax	#, D.12290
	movq	(%rax), %rax	# *_217, D.12291
	movswq	-104(%rbp), %rdx	# bw_ref_idx, D.12287
	salq	$3, %rdx	#, D.12287
	addq	%rdx, %rax	# D.12287, D.12291
	movq	(%rax), %rax	# *_221, D.12292
	movl	-76(%rbp), %edx	# uv, tmp305
	movslq	%edx, %rdx	# tmp305, D.12293
	addq	$1, %rdx	#, D.12293
	salq	$2, %rdx	#, D.12293
	addq	%rdx, %rax	# D.12293, D.12292
	movl	(%rax), %eax	# *_226, D.12286
	addl	%ecx, %eax	# D.12286, D.12286
	movl	%eax, %edi	# D.12286,
	call	clip1a_chr	#
	movl	-56(%rbp), %edx	# j, tmp307
	movslq	%edx, %rdx	# tmp307, tmp306
	movl	-60(%rbp), %ecx	# i, tmp309
	movslq	%ecx, %rcx	# tmp309, tmp308
	salq	$4, %rcx	#, tmp310
	addq	%rcx, %rdx	# tmp310, tmp311
	addq	$6296, %rdx	#, tmp312
	movw	%ax, 8(%rbx,%rdx,2)	# D.12295, img.555_195->mpr
	.loc 1 1735 0 discriminator 2
	addl	$1, -60(%rbp)	#, i
.L403:
	.loc 1 1735 0 is_stmt 0 discriminator 1
	movl	-60(%rbp), %eax	# i, tmp313
	cmpl	-52(%rbp), %eax	# block_x4, tmp313
	jl	.L404	#,
	.loc 1 1734 0 is_stmt 1
	addl	$1, -56(%rbp)	#, j
.L402:
	.loc 1 1734 0 is_stmt 0 discriminator 1
	movl	-56(%rbp), %eax	# j, tmp314
	cmpl	-48(%rbp), %eax	# block_y4, tmp314
	jl	.L405	#,
	jmp	.L377	#
.L391:
	.loc 1 1741 0 is_stmt 1
	cmpl	$2, -88(%rbp)	#, p_dir
	jne	.L406	#,
	.loc 1 1743 0
	movl	-84(%rbp), %eax	# block_y, tmp315
	movl	%eax, -56(%rbp)	# tmp315, j
	jmp	.L407	#
.L410:
	.loc 1 1744 0
	movl	-80(%rbp), %eax	# block_x, tmp316
	movl	%eax, -60(%rbp)	# tmp316, i
	jmp	.L408	#
.L409:
	.loc 1 1745 0 discriminator 2
	movq	img(%rip), %rdx	# img, img.561
	movq	-40(%rbp), %rax	# fpred, fpred.562
	leaq	4(%rax), %rcx	#, tmp317
	movq	%rcx, -40(%rbp)	# tmp317, fpred
	movl	(%rax), %esi	# *fpred.562_236, D.12286
	movq	-32(%rbp), %rax	# bpred, bpred.563
	leaq	4(%rax), %rcx	#, tmp318
	movq	%rcx, -32(%rbp)	# tmp318, bpred
	movl	(%rax), %eax	# *bpred.563_239, D.12286
	addl	%esi, %eax	# D.12286, D.12286
	addl	$1, %eax	#, D.12286
	movl	%eax, %ecx	# D.12286, tmp319
	shrl	$31, %ecx	#, tmp319
	addl	%ecx, %eax	# tmp319, tmp320
	sarl	%eax	# tmp321
	movl	-56(%rbp), %ecx	# j, tmp323
	movslq	%ecx, %rcx	# tmp323, tmp322
	movl	-60(%rbp), %esi	# i, tmp325
	movslq	%esi, %rsi	# tmp325, tmp324
	salq	$4, %rsi	#, tmp326
	addq	%rsi, %rcx	# tmp326, tmp327
	addq	$6296, %rcx	#, tmp328
	movw	%ax, 8(%rdx,%rcx,2)	# D.12295, img.561_235->mpr
	.loc 1 1744 0 discriminator 2
	addl	$1, -60(%rbp)	#, i
.L408:
	.loc 1 1744 0 is_stmt 0 discriminator 1
	movl	-60(%rbp), %eax	# i, tmp329
	cmpl	-52(%rbp), %eax	# block_x4, tmp329
	jl	.L409	#,
	.loc 1 1743 0 is_stmt 1
	addl	$1, -56(%rbp)	#, j
.L407:
	.loc 1 1743 0 is_stmt 0 discriminator 1
	movl	-56(%rbp), %eax	# j, tmp330
	cmpl	-48(%rbp), %eax	# block_y4, tmp330
	jl	.L410	#,
	jmp	.L377	#
.L406:
	.loc 1 1747 0 is_stmt 1
	cmpl	$0, -88(%rbp)	#, p_dir
	jne	.L411	#,
	.loc 1 1749 0
	movl	-84(%rbp), %eax	# block_y, tmp331
	movl	%eax, -56(%rbp)	# tmp331, j
	jmp	.L412	#
.L415:
	.loc 1 1750 0
	movl	-80(%rbp), %eax	# block_x, tmp332
	movl	%eax, -60(%rbp)	# tmp332, i
	jmp	.L413	#
.L414:
	.loc 1 1750 0 is_stmt 0 discriminator 2
	movq	img(%rip), %rdx	# img, img.564
	movq	-40(%rbp), %rax	# fpred, fpred.565
	leaq	4(%rax), %rcx	#, tmp333
	movq	%rcx, -40(%rbp)	# tmp333, fpred
	movl	(%rax), %eax	# *fpred.565_251, D.12286
	movl	-56(%rbp), %ecx	# j, tmp335
	movslq	%ecx, %rcx	# tmp335, tmp334
	movl	-60(%rbp), %esi	# i, tmp337
	movslq	%esi, %rsi	# tmp337, tmp336
	salq	$4, %rsi	#, tmp338
	addq	%rsi, %rcx	# tmp338, tmp339
	addq	$6296, %rcx	#, tmp340
	movw	%ax, 8(%rdx,%rcx,2)	# D.12295, img.564_250->mpr
	addl	$1, -60(%rbp)	#, i
.L413:
	.loc 1 1750 0 discriminator 1
	movl	-60(%rbp), %eax	# i, tmp341
	cmpl	-52(%rbp), %eax	# block_x4, tmp341
	jl	.L414	#,
	.loc 1 1749 0 is_stmt 1
	addl	$1, -56(%rbp)	#, j
.L412:
	.loc 1 1749 0 is_stmt 0 discriminator 1
	movl	-56(%rbp), %eax	# j, tmp342
	cmpl	-48(%rbp), %eax	# block_y4, tmp342
	jl	.L415	#,
	jmp	.L377	#
.L411:
	.loc 1 1754 0 is_stmt 1
	movl	-84(%rbp), %eax	# block_y, tmp343
	movl	%eax, -56(%rbp)	# tmp343, j
	jmp	.L416	#
.L419:
	.loc 1 1755 0
	movl	-80(%rbp), %eax	# block_x, tmp344
	movl	%eax, -60(%rbp)	# tmp344, i
	jmp	.L417	#
.L418:
	.loc 1 1755 0 is_stmt 0 discriminator 2
	movq	img(%rip), %rdx	# img, img.566
	movq	-32(%rbp), %rax	# bpred, bpred.567
	leaq	4(%rax), %rcx	#, tmp345
	movq	%rcx, -32(%rbp)	# tmp345, bpred
	movl	(%rax), %eax	# *bpred.567_260, D.12286
	movl	-56(%rbp), %ecx	# j, tmp347
	movslq	%ecx, %rcx	# tmp347, tmp346
	movl	-60(%rbp), %esi	# i, tmp349
	movslq	%esi, %rsi	# tmp349, tmp348
	salq	$4, %rsi	#, tmp350
	addq	%rsi, %rcx	# tmp350, tmp351
	addq	$6296, %rcx	#, tmp352
	movw	%ax, 8(%rdx,%rcx,2)	# D.12295, img.566_259->mpr
	addl	$1, -60(%rbp)	#, i
.L417:
	.loc 1 1755 0 discriminator 1
	movl	-60(%rbp), %eax	# i, tmp353
	cmpl	-52(%rbp), %eax	# block_x4, tmp353
	jl	.L418	#,
	.loc 1 1754 0 is_stmt 1
	addl	$1, -56(%rbp)	#, j
.L416:
	.loc 1 1754 0 is_stmt 0 discriminator 1
	movl	-56(%rbp), %eax	# j, tmp354
	cmpl	-48(%rbp), %eax	# block_y4, tmp354
	jl	.L419	#,
.L377:
	.loc 1 1758 0 is_stmt 1
	addq	$112, %rsp	#,
	popq	%rbx	#
	popq	%rbp	#
	.cfi_def_cfa 7, 8
	ret
	.cfi_endproc
.LFE19:
	.size	ChromaPrediction4x4, .-ChromaPrediction4x4
	.section	.rodata
	.align 32
.LC0:
	.long	0
	.long	1
	.long	0
	.long	0
	.long	2
	.long	3
	.long	0
	.long	0
	.long	0
	.long	0
	.long	0
	.long	0
	.long	0
	.long	0
	.long	0
	.long	0
	.long	0
	.long	1
	.long	0
	.long	0
	.long	0
	.long	1
	.long	0
	.long	0
	.long	2
	.long	3
	.long	0
	.long	0
	.long	2
	.long	3
	.long	0
	.long	0
	.long	0
	.long	0
	.long	1
	.long	1
	.long	0
	.long	0
	.long	1
	.long	1
	.long	2
	.long	2
	.long	3
	.long	3
	.long	2
	.long	2
	.long	3
	.long	3
	.text
	.globl	ChromaResidualCoding
	.type	ChromaResidualCoding, @function
ChromaResidualCoding:
.LFB20:
	.loc 1 1770 0
	.cfi_startproc
	pushq	%rbp	#
	.cfi_def_cfa_offset 16
	.cfi_offset 6, -16
	movq	%rsp, %rbp	#,
	.cfi_def_cfa_register 6
	subq	$288, %rsp	#,
	movq	%rdi, -264(%rbp)	# cr_cbp, cr_cbp
	.loc 1 1774 0
	movq	img(%rip), %rax	# img, img.569
	movq	14168(%rax), %rdx	# img.569_17->mb_data, D.12296
	movq	img(%rip), %rax	# img, img.570
	movl	12(%rax), %eax	# img.570_19->current_mb_nr, D.12297
	cltq
	imulq	$632, %rax, %rax	#, D.12298, D.12298
	addq	%rdx, %rax	# D.12296, D.12296
	movl	72(%rax), %eax	# _23->mb_type, D.12297
	testl	%eax, %eax	# D.12297
	jne	.L421	#,
	.loc 1 1774 0 is_stmt 0 discriminator 1
	movq	img(%rip), %rax	# img, img.571
	movl	24(%rax), %eax	# img.571_25->type, D.12297
	testl	%eax, %eax	# D.12297
	je	.L422	#,
	.loc 1 1774 0 discriminator 4
	movq	img(%rip), %rax	# img, img.572
	movl	24(%rax), %eax	# img.572_27->type, D.12297
	cmpl	$3, %eax	#, D.12297
	jne	.L421	#,
.L422:
	.loc 1 1774 0 discriminator 3
	movl	$1, %eax	#, iftmp.568
	jmp	.L423	#
.L421:
	.loc 1 1774 0 discriminator 2
	movl	$0, %eax	#, iftmp.568
.L423:
	.loc 1 1774 0 discriminator 5
	movl	%eax, -220(%rbp)	# iftmp.568, skipped
	.loc 1 1775 0 is_stmt 1 discriminator 5
	movq	img(%rip), %rax	# img, img.573
	movl	72700(%rax), %eax	# img.573_32->yuv_format, D.12297
	subl	$1, %eax	#, tmp324
	movl	%eax, -216(%rbp)	# tmp324, yuv
	.loc 1 1777 0 discriminator 5
	leaq	-192(%rbp), %rdx	#, tmp325
	movl	$.LC0, %esi	#, tmp326
	movl	$24, %eax	#, tmp327
	movq	%rdx, %rdi	# tmp325, tmp325
	movq	%rax, %rcx	# tmp327, tmp327
	rep movsq
	.loc 1 1795 0 discriminator 5
	movq	-264(%rbp), %rax	# cr_cbp, tmp328
	movl	$0, (%rax)	#, *cr_cbp_35(D)
	movl	$0, -240(%rbp)	#, uv
	jmp	.L424	#
.L469:
	.loc 1 1798 0
	movl	$0, -212(%rbp)	#, block8
	.loc 1 1799 0
	movl	$0, -236(%rbp)	#, block_y
	jmp	.L425	#
.L428:
	.loc 1 1800 0
	movl	$0, -232(%rbp)	#, block_x
	jmp	.L426	#
.L427:
	.loc 1 1802 0 discriminator 2
	movl	-236(%rbp), %eax	# block_y, tmp329
	sarl	$2, %eax	#, D.12297
	movl	%eax, %esi	# D.12297, D.12297
	movl	-232(%rbp), %eax	# block_x, tmp330
	sarl	$2, %eax	#, D.12297
	cltq
	movl	-216(%rbp), %edx	# yuv, tmp333
	movslq	%edx, %rcx	# tmp333, tmp332
	movslq	%esi, %rdx	# D.12297, tmp334
	salq	$2, %rcx	#, tmp335
	addq	%rcx, %rdx	# tmp335, tmp336
	salq	$2, %rdx	#, tmp337
	addq	%rdx, %rax	# tmp337, tmp338
	movl	-192(%rbp,%rax,4), %eax	# block8x8_idx, tmp339
	movl	%eax, -212(%rbp)	# tmp339, block8
	.loc 1 1803 0 discriminator 2
	leaq	-250(%rbp), %r8	#, tmp340
	leaq	-252(%rbp), %rdi	#, tmp341
	leaq	-244(%rbp), %rcx	#, tmp342
	leaq	-248(%rbp), %rdx	#, tmp343
	leaq	-254(%rbp), %rsi	#, tmp344
	movl	-212(%rbp), %eax	# block8, tmp345
	movq	%r8, %r9	# tmp340,
	movq	%rdi, %r8	# tmp341,
	movl	%eax, %edi	# tmp345,
	call	SetModesAndRefframe	#
	.loc 1 1805 0 discriminator 2
