	.file	"mb_access.c"
# GNU C (Ubuntu/Linaro 4.8.1-10ubuntu9) version 4.8.1 (x86_64-linux-gnu)
#	compiled by GNU C version 4.8.1, GMP version 5.1.2, MPFR version 3.1.1-p2, MPC version 1.0.1
# GGC heuristics: --param ggc-min-expand=100 --param ggc-min-heapsize=131072
# options passed:  -imultiarch x86_64-linux-gnu -D SPEC_CPU -D NDEBUG
# -D SPEC_CPU_LP64 mb_access.c -mtune=generic -march=x86-64 -g
# -fverbose-asm -fno-strict-aliasing -fstack-protector -Wformat
# -Wformat-security
# options enabled:  -faggressive-loop-optimizations
# -fasynchronous-unwind-tables -fauto-inc-dec -fbranch-count-reg -fcommon
# -fdelete-null-pointer-checks -fdwarf2-cfi-asm -fearly-inlining
# -feliminate-unused-debug-types -ffunction-cse -fgcse-lm -fgnu-runtime
# -fident -finline-atomics -fira-hoist-pressure -fira-share-save-slots
# -fira-share-spill-slots -fivopts -fkeep-static-consts
# -fleading-underscore -fmath-errno -fmerge-debug-strings
# -fmove-loop-invariants -fpeephole -fprefetch-loop-arrays
# -freg-struct-return -fsched-critical-path-heuristic
# -fsched-dep-count-heuristic -fsched-group-heuristic -fsched-interblock
# -fsched-last-insn-heuristic -fsched-rank-heuristic -fsched-spec
# -fsched-spec-insn-heuristic -fsched-stalled-insns-dep -fshow-column
# -fsigned-zeros -fsplit-ivs-in-unroller -fstack-protector
# -fstrict-volatile-bitfields -fsync-libcalls -ftrapping-math
# -ftree-coalesce-vars -ftree-cselim -ftree-forwprop -ftree-loop-if-convert
# -ftree-loop-im -ftree-loop-ivcanon -ftree-loop-optimize
# -ftree-parallelize-loops= -ftree-phiprop -ftree-pta -ftree-reassoc
# -ftree-scev-cprop -ftree-slp-vectorize -ftree-vect-loop-version
# -funit-at-a-time -funwind-tables -fverbose-asm -fzero-initialized-in-bss
# -m128bit-long-double -m64 -m80387 -maccumulate-outgoing-args
# -malign-stringops -mfancy-math-387 -mfp-ret-in-387 -mfxsr -mglibc
# -mieee-fp -mlong-double-80 -mmmx -mno-sse4 -mpush-args -mred-zone -msse
# -msse2 -mtls-direct-seg-refs

	.text
.Ltext0:
	.globl	mb_is_available
	.type	mb_is_available, @function
mb_is_available:
.LFB0:
	.file 1 "mb_access.c"
	.loc 1 25 0
	.cfi_startproc
	pushq	%rbp	#
	.cfi_def_cfa_offset 16
	.cfi_offset 6, -16
	movq	%rsp, %rbp	#,
	.cfi_def_cfa_register 6
	movl	%edi, -4(%rbp)	# mbAddr, mbAddr
	movl	%esi, -8(%rbp)	# currMbAddr, currMbAddr
	.loc 1 26 0
	cmpl	$0, -4(%rbp)	#, mbAddr
	js	.L2	#,
	.loc 1 26 0 is_stmt 0 discriminator 1
	movq	img(%rip), %rax	# img, img.0
	movl	72484(%rax), %eax	# img.0_3->PicSizeInMbs, D.4303
	subl	$1, %eax	#, D.4302
	cmpl	-4(%rbp), %eax	# mbAddr, D.4302
	jge	.L3	#,
.L2:
	.loc 1 27 0 is_stmt 1
	movl	$0, %eax	#, D.4302
	jmp	.L4	#
.L3:
	.loc 1 30 0
	movq	img(%rip), %rax	# img, img.1
	movl	72636(%rax), %eax	# img.1_7->DeblockCall, D.4302
	testl	%eax, %eax	# D.4302
	jne	.L5	#,
	.loc 1 32 0
	movq	img(%rip), %rax	# img, img.2
	movq	14168(%rax), %rdx	# img.2_9->mb_data, D.4304
	movl	-4(%rbp), %eax	# mbAddr, tmp79
	cltq
	imulq	$632, %rax, %rax	#, D.4305, D.4305
	addq	%rdx, %rax	# D.4304, D.4304
	movl	4(%rax), %edx	# _13->slice_nr, D.4302
	movq	img(%rip), %rax	# img, img.3
	movq	14168(%rax), %rcx	# img.3_15->mb_data, D.4304
	movl	-8(%rbp), %eax	# currMbAddr, tmp80
	cltq
	imulq	$632, %rax, %rax	#, D.4305, D.4305
	addq	%rcx, %rax	# D.4304, D.4304
	movl	4(%rax), %eax	# _20->slice_nr, D.4302
	cmpl	%eax, %edx	# D.4302, D.4302
	je	.L5	#,
	.loc 1 33 0
	movl	$0, %eax	#, D.4302
	jmp	.L4	#
.L5:
	.loc 1 36 0
	movl	$1, %eax	#, D.4302
.L4:
	.loc 1 37 0
	popq	%rbp	#
	.cfi_def_cfa 7, 8
	ret
	.cfi_endproc
.LFE0:
	.size	mb_is_available, .-mb_is_available
	.globl	CheckAvailabilityOfNeighbors
	.type	CheckAvailabilityOfNeighbors, @function
CheckAvailabilityOfNeighbors:
.LFB1:
	.loc 1 48 0
	.cfi_startproc
	pushq	%rbp	#
	.cfi_def_cfa_offset 16
	.cfi_offset 6, -16
	movq	%rsp, %rbp	#,
	.cfi_def_cfa_register 6
	subq	$16, %rsp	#,
	.loc 1 49 0
	movq	img(%rip), %rax	# img, img.4
	movl	12(%rax), %eax	# img.4_7->current_mb_nr, tmp175
	movl	%eax, -12(%rbp)	# tmp175, mb_nr
	.loc 1 50 0
	movq	img(%rip), %rax	# img, img.5
	movq	14168(%rax), %rdx	# img.5_9->mb_data, D.4306
	movl	-12(%rbp), %eax	# mb_nr, tmp176
	cltq
	imulq	$632, %rax, %rax	#, D.4307, D.4307
	addq	%rdx, %rax	# D.4306, tmp177
	movq	%rax, -8(%rbp)	# tmp177, currMB
	.loc 1 53 0
	movq	-8(%rbp), %rax	# currMB, tmp178
	movq	$0, 56(%rax)	#, currMB_13->mb_available_up
	.loc 1 54 0
	movq	-8(%rbp), %rax	# currMB, tmp179
	movq	$0, 64(%rax)	#, currMB_13->mb_available_left
	.loc 1 56 0
	movq	img(%rip), %rax	# img, img.6
	movl	72400(%rax), %eax	# img.6_14->MbaffFrameFlag, D.4308
	testl	%eax, %eax	# D.4308
	je	.L7	#,
	.loc 1 58 0
	movl	-12(%rbp), %eax	# mb_nr, tmp180
	movl	%eax, %edx	# tmp180, tmp181
	shrl	$31, %edx	#, tmp181
	addl	%edx, %eax	# tmp181, tmp182
	sarl	%eax	# tmp183
	subl	$1, %eax	#, D.4308
	leal	(%rax,%rax), %edx	#, D.4308
	movq	-8(%rbp), %rax	# currMB, tmp184
	movl	%edx, 536(%rax)	# D.4308, currMB_13->mbAddrA
	.loc 1 59 0
	movl	-12(%rbp), %eax	# mb_nr, tmp185
	movl	%eax, %edx	# tmp185, tmp186
	shrl	$31, %edx	#, tmp186
	addl	%edx, %eax	# tmp186, tmp187
	sarl	%eax	# tmp188
	movl	%eax, %edx	# D.4308, D.4309
	movq	img(%rip), %rax	# img, img.7
	movl	72468(%rax), %eax	# img.7_21->PicWidthInMbs, D.4309
	subl	%eax, %edx	# D.4309, D.4309
	movl	%edx, %eax	# D.4309, D.4309
	addl	%eax, %eax	# D.4309
	movl	%eax, %edx	# D.4309, D.4308
	movq	-8(%rbp), %rax	# currMB, tmp189
	movl	%edx, 540(%rax)	# D.4308, currMB_13->mbAddrB
	.loc 1 60 0
	movl	-12(%rbp), %eax	# mb_nr, tmp190
	movl	%eax, %edx	# tmp190, tmp191
	shrl	$31, %edx	#, tmp191
	addl	%edx, %eax	# tmp191, tmp192
	sarl	%eax	# tmp193
	movl	%eax, %edx	# D.4308, D.4309
	movq	img(%rip), %rax	# img, img.8
	movl	72468(%rax), %eax	# img.8_28->PicWidthInMbs, D.4309
	subl	%eax, %edx	# D.4309, D.4309
	movl	%edx, %eax	# D.4309, D.4309
	addl	$1, %eax	#, D.4309
	addl	%eax, %eax	# D.4309
	movl	%eax, %edx	# D.4309, D.4308
	movq	-8(%rbp), %rax	# currMB, tmp194
	movl	%edx, 544(%rax)	# D.4308, currMB_13->mbAddrC
	.loc 1 61 0
	movl	-12(%rbp), %eax	# mb_nr, tmp195
	movl	%eax, %edx	# tmp195, tmp196
	shrl	$31, %edx	#, tmp196
	addl	%edx, %eax	# tmp196, tmp197
	sarl	%eax	# tmp198
	movl	%eax, %edx	# D.4308, D.4309
	movq	img(%rip), %rax	# img, img.9
	movl	72468(%rax), %eax	# img.9_36->PicWidthInMbs, D.4309
	subl	%eax, %edx	# D.4309, D.4309
	movl	%edx, %eax	# D.4309, D.4309
	addl	$2147483647, %eax	#, D.4309
	addl	%eax, %eax	# D.4309
	movl	%eax, %edx	# D.4309, D.4308
	movq	-8(%rbp), %rax	# currMB, tmp199
	movl	%edx, 548(%rax)	# D.4308, currMB_13->mbAddrD
	.loc 1 63 0
	movq	-8(%rbp), %rax	# currMB, tmp200
	movl	536(%rax), %eax	# currMB_13->mbAddrA, D.4308
	movl	-12(%rbp), %edx	# mb_nr, tmp201
	movl	%edx, %esi	# tmp201,
	movl	%eax, %edi	# D.4308,
	call	mb_is_available	#
	testl	%eax, %eax	# D.4308
	je	.L8	#,
	.loc 1 63 0 is_stmt 0 discriminator 1
	movl	-12(%rbp), %eax	# mb_nr, tmp202
	movl	%eax, %edx	# tmp202, tmp203
	shrl	$31, %edx	#, tmp203
	addl	%edx, %eax	# tmp203, tmp204
	sarl	%eax	# tmp205
	movq	img(%rip), %rdx	# img, img.11
	movl	72468(%rdx), %ecx	# img.11_46->PicWidthInMbs, D.4309
	movl	$0, %edx	#, tmp206
	divl	%ecx	# D.4309
	movl	%edx, %eax	# tmp206, D.4309
	testl	%eax, %eax	# D.4309
	je	.L8	#,
	.loc 1 63 0 discriminator 3
	movl	$1, %eax	#, iftmp.10
	jmp	.L9	#
.L8:
	.loc 1 63 0 discriminator 2
	movl	$0, %eax	#, iftmp.10
.L9:
	.loc 1 63 0 discriminator 4
	movq	-8(%rbp), %rdx	# currMB, tmp208
	movl	%eax, 552(%rdx)	# iftmp.10, currMB_13->mbAvailA
	.loc 1 64 0 is_stmt 1 discriminator 4
	movq	-8(%rbp), %rax	# currMB, tmp209
	movl	540(%rax), %eax	# currMB_13->mbAddrB, D.4308
	movl	-12(%rbp), %edx	# mb_nr, tmp210
	movl	%edx, %esi	# tmp210,
	movl	%eax, %edi	# D.4308,
	call	mb_is_available	#
	movq	-8(%rbp), %rdx	# currMB, tmp211
	movl	%eax, 556(%rdx)	# D.4308, currMB_13->mbAvailB
	.loc 1 65 0 discriminator 4
	movq	-8(%rbp), %rax	# currMB, tmp212
	movl	544(%rax), %eax	# currMB_13->mbAddrC, D.4308
	movl	-12(%rbp), %edx	# mb_nr, tmp213
	movl	%edx, %esi	# tmp213,
	movl	%eax, %edi	# D.4308,
	call	mb_is_available	#
	testl	%eax, %eax	# D.4308
	je	.L10	#,
	.loc 1 65 0 is_stmt 0 discriminator 1
	movl	-12(%rbp), %eax	# mb_nr, tmp214
	movl	%eax, %edx	# tmp214, tmp215
	shrl	$31, %edx	#, tmp215
	addl	%edx, %eax	# tmp215, tmp216
	sarl	%eax	# tmp217
	addl	$1, %eax	#, D.4308
	movq	img(%rip), %rdx	# img, img.13
	movl	72468(%rdx), %ecx	# img.13_58->PicWidthInMbs, D.4309
	movl	$0, %edx	#, tmp218
	divl	%ecx	# D.4309
	movl	%edx, %eax	# tmp218, D.4309
	testl	%eax, %eax	# D.4309
	je	.L10	#,
	.loc 1 65 0 discriminator 3
	movl	$1, %eax	#, iftmp.12
	jmp	.L11	#
.L10:
	.loc 1 65 0 discriminator 2
	movl	$0, %eax	#, iftmp.12
.L11:
	.loc 1 65 0 discriminator 4
	movq	-8(%rbp), %rdx	# currMB, tmp220
	movl	%eax, 560(%rdx)	# iftmp.12, currMB_13->mbAvailC
	.loc 1 66 0 is_stmt 1 discriminator 4
	movq	-8(%rbp), %rax	# currMB, tmp221
	movl	548(%rax), %eax	# currMB_13->mbAddrD, D.4308
	movl	-12(%rbp), %edx	# mb_nr, tmp222
	movl	%edx, %esi	# tmp222,
	movl	%eax, %edi	# D.4308,
	call	mb_is_available	#
	testl	%eax, %eax	# D.4308
	je	.L12	#,
	.loc 1 66 0 is_stmt 0 discriminator 1
	movl	-12(%rbp), %eax	# mb_nr, tmp223
	movl	%eax, %edx	# tmp223, tmp224
	shrl	$31, %edx	#, tmp224
	addl	%edx, %eax	# tmp224, tmp225
	sarl	%eax	# tmp226
	movq	img(%rip), %rdx	# img, img.15
	movl	72468(%rdx), %ecx	# img.15_67->PicWidthInMbs, D.4309
	movl	$0, %edx	#, tmp227
	divl	%ecx	# D.4309
	movl	%edx, %eax	# tmp227, D.4309
	testl	%eax, %eax	# D.4309
	je	.L12	#,
	.loc 1 66 0 discriminator 3
	movl	$1, %eax	#, iftmp.14
	jmp	.L13	#
.L12:
	.loc 1 66 0 discriminator 2
	movl	$0, %eax	#, iftmp.14
.L13:
	.loc 1 66 0 discriminator 4
	movq	-8(%rbp), %rdx	# currMB, tmp229
	movl	%eax, 564(%rdx)	# iftmp.14, currMB_13->mbAvailD
	jmp	.L14	#
.L7:
	.loc 1 70 0 is_stmt 1
	movl	-12(%rbp), %eax	# mb_nr, tmp230
	leal	-1(%rax), %edx	#, D.4308
	movq	-8(%rbp), %rax	# currMB, tmp231
	movl	%edx, 536(%rax)	# D.4308, currMB_13->mbAddrA
	.loc 1 71 0
	movl	-12(%rbp), %edx	# mb_nr, mb_nr.16
	movq	img(%rip), %rax	# img, img.17
	movl	72468(%rax), %eax	# img.17_74->PicWidthInMbs, D.4309
	subl	%eax, %edx	# D.4309, D.4309
	movl	%edx, %eax	# D.4309, D.4309
	movl	%eax, %edx	# D.4309, D.4308
	movq	-8(%rbp), %rax	# currMB, tmp232
	movl	%edx, 540(%rax)	# D.4308, currMB_13->mbAddrB
	.loc 1 72 0
	movl	-12(%rbp), %edx	# mb_nr, mb_nr.18
	movq	img(%rip), %rax	# img, img.19
	movl	72468(%rax), %eax	# img.19_79->PicWidthInMbs, D.4309
	subl	%eax, %edx	# D.4309, D.4309
	movl	%edx, %eax	# D.4309, D.4309
	addl	$1, %eax	#, D.4309
	movl	%eax, %edx	# D.4309, D.4308
	movq	-8(%rbp), %rax	# currMB, tmp233
	movl	%edx, 544(%rax)	# D.4308, currMB_13->mbAddrC
	.loc 1 73 0
	movl	-12(%rbp), %edx	# mb_nr, mb_nr.20
	movq	img(%rip), %rax	# img, img.21
	movl	72468(%rax), %eax	# img.21_85->PicWidthInMbs, D.4309
	subl	%eax, %edx	# D.4309, D.4309
	movl	%edx, %eax	# D.4309, D.4309
	subl	$1, %eax	#, D.4309
	movl	%eax, %edx	# D.4309, D.4308
	movq	-8(%rbp), %rax	# currMB, tmp234
	movl	%edx, 548(%rax)	# D.4308, currMB_13->mbAddrD
	.loc 1 75 0
	movq	-8(%rbp), %rax	# currMB, tmp235
	movl	536(%rax), %eax	# currMB_13->mbAddrA, D.4308
	movl	-12(%rbp), %edx	# mb_nr, tmp236
	movl	%edx, %esi	# tmp236,
	movl	%eax, %edi	# D.4308,
	call	mb_is_available	#
	testl	%eax, %eax	# D.4308
	je	.L15	#,
	.loc 1 75 0 is_stmt 0 discriminator 1
	movl	-12(%rbp), %eax	# mb_nr, mb_nr.23
	movq	img(%rip), %rdx	# img, img.24
	movl	72468(%rdx), %ecx	# img.24_93->PicWidthInMbs, D.4309
	movl	$0, %edx	#, tmp237
	divl	%ecx	# D.4309
	movl	%edx, %eax	# tmp237, D.4309
	testl	%eax, %eax	# D.4309
	je	.L15	#,
	.loc 1 75 0 discriminator 3
	movl	$1, %eax	#, iftmp.22
	jmp	.L16	#
.L15:
	.loc 1 75 0 discriminator 2
	movl	$0, %eax	#, iftmp.22
.L16:
	.loc 1 75 0 discriminator 4
	movq	-8(%rbp), %rdx	# currMB, tmp239
	movl	%eax, 552(%rdx)	# iftmp.22, currMB_13->mbAvailA
	.loc 1 76 0 is_stmt 1 discriminator 4
	movq	-8(%rbp), %rax	# currMB, tmp240
	movl	540(%rax), %eax	# currMB_13->mbAddrB, D.4308
	movl	-12(%rbp), %edx	# mb_nr, tmp241
	movl	%edx, %esi	# tmp241,
	movl	%eax, %edi	# D.4308,
	call	mb_is_available	#
	movq	-8(%rbp), %rdx	# currMB, tmp242
	movl	%eax, 556(%rdx)	# D.4308, currMB_13->mbAvailB
	.loc 1 77 0 discriminator 4
	movq	-8(%rbp), %rax	# currMB, tmp243
	movl	544(%rax), %eax	# currMB_13->mbAddrC, D.4308
	movl	-12(%rbp), %edx	# mb_nr, tmp244
	movl	%edx, %esi	# tmp244,
	movl	%eax, %edi	# D.4308,
	call	mb_is_available	#
	testl	%eax, %eax	# D.4308
	je	.L17	#,
	.loc 1 77 0 is_stmt 0 discriminator 1
	movl	-12(%rbp), %eax	# mb_nr, tmp245
	addl	$1, %eax	#, D.4308
	movq	img(%rip), %rdx	# img, img.26
	movl	72468(%rdx), %ecx	# img.26_104->PicWidthInMbs, D.4309
	movl	$0, %edx	#, tmp246
	divl	%ecx	# D.4309
	movl	%edx, %eax	# tmp246, D.4309
	testl	%eax, %eax	# D.4309
	je	.L17	#,
	.loc 1 77 0 discriminator 3
	movl	$1, %eax	#, iftmp.25
	jmp	.L18	#
.L17:
	.loc 1 77 0 discriminator 2
	movl	$0, %eax	#, iftmp.25
.L18:
	.loc 1 77 0 discriminator 4
	movq	-8(%rbp), %rdx	# currMB, tmp248
	movl	%eax, 560(%rdx)	# iftmp.25, currMB_13->mbAvailC
	.loc 1 78 0 is_stmt 1 discriminator 4
	movq	-8(%rbp), %rax	# currMB, tmp249
	movl	548(%rax), %eax	# currMB_13->mbAddrD, D.4308
	movl	-12(%rbp), %edx	# mb_nr, tmp250
	movl	%edx, %esi	# tmp250,
	movl	%eax, %edi	# D.4308,
	call	mb_is_available	#
	testl	%eax, %eax	# D.4308
	je	.L19	#,
	.loc 1 78 0 is_stmt 0 discriminator 1
	movl	-12(%rbp), %eax	# mb_nr, mb_nr.28
	movq	img(%rip), %rdx	# img, img.29
	movl	72468(%rdx), %ecx	# img.29_112->PicWidthInMbs, D.4309
	movl	$0, %edx	#, tmp251
	divl	%ecx	# D.4309
	movl	%edx, %eax	# tmp251, D.4309
	testl	%eax, %eax	# D.4309
	je	.L19	#,
	.loc 1 78 0 discriminator 3
	movl	$1, %eax	#, iftmp.27
	jmp	.L20	#
.L19:
	.loc 1 78 0 discriminator 2
	movl	$0, %eax	#, iftmp.27
.L20:
	.loc 1 78 0 discriminator 4
	movq	-8(%rbp), %rdx	# currMB, tmp253
	movl	%eax, 564(%rdx)	# iftmp.27, currMB_13->mbAvailD
.L14:
	.loc 1 81 0 is_stmt 1
	movq	-8(%rbp), %rax	# currMB, tmp254
	movl	552(%rax), %eax	# currMB_13->mbAvailA, D.4308
	testl	%eax, %eax	# D.4308
	je	.L21	#,
	.loc 1 81 0 is_stmt 0 discriminator 1
	movq	img(%rip), %rax	# img, img.30
	movq	14168(%rax), %rdx	# img.30_118->mb_data, D.4306
	movq	-8(%rbp), %rax	# currMB, tmp255
	movl	536(%rax), %eax	# currMB_13->mbAddrA, D.4308
	cltq
	imulq	$632, %rax, %rax	#, D.4307, D.4307
	addq	%rax, %rdx	# D.4307, D.4310
	movq	-8(%rbp), %rax	# currMB, tmp256
	movq	%rdx, 64(%rax)	# D.4310, currMB_13->mb_available_left
.L21:
	.loc 1 82 0 is_stmt 1
	movq	-8(%rbp), %rax	# currMB, tmp257
	movl	556(%rax), %eax	# currMB_13->mbAvailB, D.4308
	testl	%eax, %eax	# D.4308
	je	.L6	#,
	.loc 1 82 0 is_stmt 0 discriminator 1
	movq	img(%rip), %rax	# img, img.31
	movq	14168(%rax), %rdx	# img.31_125->mb_data, D.4306
	movq	-8(%rbp), %rax	# currMB, tmp258
	movl	540(%rax), %eax	# currMB_13->mbAddrB, D.4308
	cltq
	imulq	$632, %rax, %rax	#, D.4307, D.4307
	addq	%rax, %rdx	# D.4307, D.4310
	movq	-8(%rbp), %rax	# currMB, tmp259
	movq	%rdx, 56(%rax)	# D.4310, currMB_13->mb_available_up
.L6:
	.loc 1 83 0 is_stmt 1
	leave
	.cfi_def_cfa 7, 8
	ret
	.cfi_endproc
.LFE1:
	.size	CheckAvailabilityOfNeighbors, .-CheckAvailabilityOfNeighbors
	.globl	get_mb_block_pos
	.type	get_mb_block_pos, @function
get_mb_block_pos:
.LFB2:
	.loc 1 93 0
	.cfi_startproc
	pushq	%rbp	#
	.cfi_def_cfa_offset 16
	.cfi_offset 6, -16
	movq	%rsp, %rbp	#,
	.cfi_def_cfa_register 6
	pushq	%rbx	#
	.cfi_offset 3, -24
	movl	%edi, -12(%rbp)	# mb_addr, mb_addr
	movq	%rsi, -24(%rbp)	# x, x
	movq	%rdx, -32(%rbp)	# y, y
	.loc 1 95 0
	movq	img(%rip), %rax	# img, img.32
	movl	72400(%rax), %eax	# img.32_1->MbaffFrameFlag, D.4311
	testl	%eax, %eax	# D.4311
	je	.L24	#,
	.loc 1 97 0
	movl	-12(%rbp), %eax	# mb_addr, tmp87
	movl	%eax, %edx	# tmp87, tmp88
	shrl	$31, %edx	#, tmp88
	addl	%edx, %eax	# tmp88, tmp89
	sarl	%eax	# tmp90
	movq	img(%rip), %rdx	# img, img.33
	movl	72468(%rdx), %ecx	# img.33_6->PicWidthInMbs, D.4312
	movl	$0, %edx	#, tmp91
	divl	%ecx	# D.4312
	movl	%edx, %eax	# tmp91, D.4312
	movl	%eax, %edx	# D.4312, D.4311
	movq	-24(%rbp), %rax	# x, tmp93
	movl	%edx, (%rax)	# D.4311, *x_10(D)
	.loc 1 98 0
	movl	-12(%rbp), %eax	# mb_addr, tmp94
	movl	%eax, %edx	# tmp94, tmp95
	shrl	$31, %edx	#, tmp95
	addl	%edx, %eax	# tmp95, tmp96
	sarl	%eax	# tmp97
	movq	img(%rip), %rdx	# img, img.34
	movl	72468(%rdx), %ebx	# img.34_13->PicWidthInMbs, D.4312
	movl	$0, %edx	#, tmp99
	divl	%ebx	# D.4312
	leal	(%rax,%rax), %ecx	#, D.4312
	movl	-12(%rbp), %eax	# mb_addr, tmp100
	cltd
	shrl	$31, %edx	#, tmp102
	addl	%edx, %eax	# tmp102, tmp103
	andl	$1, %eax	#, tmp104
	subl	%edx, %eax	# tmp102, tmp105
	addl	%ecx, %eax	# D.4312, D.4312
	movl	%eax, %edx	# D.4312, D.4311
	movq	-32(%rbp), %rax	# y, tmp106
	movl	%edx, (%rax)	# D.4311, *y_21(D)
	jmp	.L23	#
.L24:
	.loc 1 102 0
	movl	-12(%rbp), %eax	# mb_addr, mb_addr.35
	movq	img(%rip), %rdx	# img, img.36
	movl	72468(%rdx), %ecx	# img.36_23->PicWidthInMbs, D.4312
	movl	$0, %edx	#, tmp107
	divl	%ecx	# D.4312
	movl	%edx, %eax	# tmp107, D.4312
	movl	%eax, %edx	# D.4312, D.4311
	movq	-24(%rbp), %rax	# x, tmp109
	movl	%edx, (%rax)	# D.4311, *x_10(D)
	.loc 1 103 0
	movl	-12(%rbp), %eax	# mb_addr, mb_addr.37
	movq	img(%rip), %rdx	# img, img.38
	movl	72468(%rdx), %esi	# img.38_28->PicWidthInMbs, D.4312
	movl	$0, %edx	#, tmp111
	divl	%esi	# D.4312
	movl	%eax, %edx	# D.4312, D.4311
	movq	-32(%rbp), %rax	# y, tmp112
	movl	%edx, (%rax)	# D.4311, *y_21(D)
.L23:
	.loc 1 105 0
	popq	%rbx	#
	popq	%rbp	#
	.cfi_def_cfa 7, 8
	ret
	.cfi_endproc
.LFE2:
	.size	get_mb_block_pos, .-get_mb_block_pos
	.globl	get_mb_pos
	.type	get_mb_pos, @function
get_mb_pos:
.LFB3:
	.loc 1 115 0
	.cfi_startproc
	pushq	%rbp	#
	.cfi_def_cfa_offset 16
	.cfi_offset 6, -16
	movq	%rsp, %rbp	#,
	.cfi_def_cfa_register 6
	subq	$24, %rsp	#,
	movl	%edi, -4(%rbp)	# mb_addr, mb_addr
	movq	%rsi, -16(%rbp)	# x, x
	movq	%rdx, -24(%rbp)	# y, y
	.loc 1 116 0
	movq	-24(%rbp), %rdx	# y, tmp63
	movq	-16(%rbp), %rcx	# x, tmp64
	movl	-4(%rbp), %eax	# mb_addr, tmp65
	movq	%rcx, %rsi	# tmp64,
	movl	%eax, %edi	# tmp65,
	call	get_mb_block_pos	#
	.loc 1 118 0
	movq	-16(%rbp), %rax	# x, tmp66
	movl	(%rax), %eax	# *x_2(D), D.4313
	sall	$4, %eax	#, D.4313
	movl	%eax, %edx	# D.4313, D.4313
	movq	-16(%rbp), %rax	# x, tmp67
	movl	%edx, (%rax)	# D.4313, *x_2(D)
	.loc 1 119 0
	movq	-24(%rbp), %rax	# y, tmp68
	movl	(%rax), %eax	# *y_3(D), D.4313
	sall	$4, %eax	#, D.4313
	movl	%eax, %edx	# D.4313, D.4313
	movq	-24(%rbp), %rax	# y, tmp69
	movl	%edx, (%rax)	# D.4313, *y_3(D)
	.loc 1 120 0
	leave
	.cfi_def_cfa 7, 8
	ret
	.cfi_endproc
.LFE3:
	.size	get_mb_pos, .-get_mb_pos
	.globl	getNonAffNeighbour
	.type	getNonAffNeighbour, @function
getNonAffNeighbour:
.LFB4:
	.loc 1 140 0
	.cfi_startproc
	pushq	%rbp	#
	.cfi_def_cfa_offset 16
	.cfi_offset 6, -16
	movq	%rsp, %rbp	#,
	.cfi_def_cfa_register 6
	pushq	%rbx	#
	subq	$40, %rsp	#,
	.cfi_offset 3, -24
	movl	%edi, -28(%rbp)	# curr_mb_nr, curr_mb_nr
	movl	%esi, -32(%rbp)	# xN, xN
	movl	%edx, -36(%rbp)	# yN, yN
	movl	%ecx, -40(%rbp)	# luma, luma
	movq	%r8, -48(%rbp)	# pix, pix
	.loc 1 141 0
	movq	img(%rip), %rax	# img, img.39
	movq	14168(%rax), %rdx	# img.39_3->mb_data, D.4314
	movl	-28(%rbp), %eax	# curr_mb_nr, D.4315
	imulq	$632, %rax, %rax	#, D.4315, D.4315
	addq	%rdx, %rax	# D.4314, tmp104
	movq	%rax, -16(%rbp)	# tmp104, currMb
	.loc 1 144 0
	cmpl	$0, -40(%rbp)	#, luma
	je	.L28	#,
	.loc 1 146 0
	movl	$16, -24(%rbp)	#, maxW
	.loc 1 147 0
	movl	$16, -20(%rbp)	#, maxH
	jmp	.L29	#
.L28:
	.loc 1 152 0
	movq	img(%rip), %rax	# img, img.40
	movl	72708(%rax), %eax	# img.40_12->mb_cr_size_x, tmp105
	movl	%eax, -24(%rbp)	# tmp105, maxW
	.loc 1 153 0
	movq	img(%rip), %rax	# img, img.41
	movl	72712(%rax), %eax	# img.41_14->mb_cr_size_y, tmp106
	movl	%eax, -20(%rbp)	# tmp106, maxH
.L29:
	.loc 1 156 0
	cmpl	$0, -32(%rbp)	#, xN
	jns	.L30	#,
	.loc 1 156 0 is_stmt 0 discriminator 1
	cmpl	$0, -36(%rbp)	#, yN
	jns	.L30	#,
	.loc 1 158 0 is_stmt 1
	movq	-16(%rbp), %rax	# currMb, tmp107
	movl	548(%rax), %edx	# currMb_8->mbAddrD, D.4316
	movq	-48(%rbp), %rax	# pix, tmp108
	movl	%edx, 4(%rax)	# D.4316, pix_19(D)->mb_addr
	.loc 1 159 0
	movq	-16(%rbp), %rax	# currMb, tmp109
	movl	564(%rax), %edx	# currMb_8->mbAvailD, D.4316
	movq	-48(%rbp), %rax	# pix, tmp110
	movl	%edx, (%rax)	# D.4316, pix_19(D)->available
	jmp	.L31	#
.L30:
	.loc 1 161 0
	cmpl	$0, -32(%rbp)	#, xN
	jns	.L32	#,
	.loc 1 161 0 is_stmt 0 discriminator 1
	cmpl	$0, -36(%rbp)	#, yN
	js	.L32	#,
	movl	-36(%rbp), %eax	# yN, tmp111
	cmpl	-20(%rbp), %eax	# maxH, tmp111
	jge	.L32	#,
	.loc 1 163 0 is_stmt 1
	movq	-16(%rbp), %rax	# currMb, tmp112
	movl	536(%rax), %edx	# currMb_8->mbAddrA, D.4316
	movq	-48(%rbp), %rax	# pix, tmp113
	movl	%edx, 4(%rax)	# D.4316, pix_19(D)->mb_addr
	.loc 1 164 0
	movq	-16(%rbp), %rax	# currMb, tmp114
	movl	552(%rax), %edx	# currMb_8->mbAvailA, D.4316
	movq	-48(%rbp), %rax	# pix, tmp115
	movl	%edx, (%rax)	# D.4316, pix_19(D)->available
	jmp	.L31	#
.L32:
	.loc 1 166 0
	cmpl	$0, -32(%rbp)	#, xN
	js	.L33	#,
	.loc 1 166 0 is_stmt 0 discriminator 1
	movl	-32(%rbp), %eax	# xN, tmp116
	cmpl	-24(%rbp), %eax	# maxW, tmp116
	jge	.L33	#,
	cmpl	$0, -36(%rbp)	#, yN
	jns	.L33	#,
	.loc 1 168 0 is_stmt 1
	movq	-16(%rbp), %rax	# currMb, tmp117
	movl	540(%rax), %edx	# currMb_8->mbAddrB, D.4316
	movq	-48(%rbp), %rax	# pix, tmp118
	movl	%edx, 4(%rax)	# D.4316, pix_19(D)->mb_addr
	.loc 1 169 0
	movq	-16(%rbp), %rax	# currMb, tmp119
	movl	556(%rax), %edx	# currMb_8->mbAvailB, D.4316
	movq	-48(%rbp), %rax	# pix, tmp120
	movl	%edx, (%rax)	# D.4316, pix_19(D)->available
	jmp	.L31	#
.L33:
	.loc 1 171 0
	cmpl	$0, -32(%rbp)	#, xN
	js	.L34	#,
	.loc 1 171 0 is_stmt 0 discriminator 1
	movl	-32(%rbp), %eax	# xN, tmp121
	cmpl	-24(%rbp), %eax	# maxW, tmp121
	jge	.L34	#,
	cmpl	$0, -36(%rbp)	#, yN
	js	.L34	#,
	movl	-36(%rbp), %eax	# yN, tmp122
	cmpl	-20(%rbp), %eax	# maxH, tmp122
	jge	.L34	#,
	.loc 1 173 0 is_stmt 1
	movl	-28(%rbp), %edx	# curr_mb_nr, curr_mb_nr.42
	movq	-48(%rbp), %rax	# pix, tmp123
	movl	%edx, 4(%rax)	# curr_mb_nr.42, pix_19(D)->mb_addr
	.loc 1 174 0
	movq	-48(%rbp), %rax	# pix, tmp124
	movl	$1, (%rax)	#, pix_19(D)->available
	jmp	.L31	#
.L34:
	.loc 1 176 0
	movl	-32(%rbp), %eax	# xN, tmp125
	cmpl	-24(%rbp), %eax	# maxW, tmp125
	jl	.L35	#,
	.loc 1 176 0 is_stmt 0 discriminator 1
	cmpl	$0, -36(%rbp)	#, yN
	jns	.L35	#,
	.loc 1 178 0 is_stmt 1
	movq	-16(%rbp), %rax	# currMb, tmp126
	movl	544(%rax), %edx	# currMb_8->mbAddrC, D.4316
	movq	-48(%rbp), %rax	# pix, tmp127
	movl	%edx, 4(%rax)	# D.4316, pix_19(D)->mb_addr
	.loc 1 179 0
	movq	-16(%rbp), %rax	# currMb, tmp128
	movl	560(%rax), %edx	# currMb_8->mbAvailC, D.4316
	movq	-48(%rbp), %rax	# pix, tmp129
	movl	%edx, (%rax)	# D.4316, pix_19(D)->available
	jmp	.L31	#
.L35:
	.loc 1 183 0
	movq	-48(%rbp), %rax	# pix, tmp130
	movl	$0, (%rax)	#, pix_19(D)->available
.L31:
	.loc 1 186 0
	movq	-48(%rbp), %rax	# pix, tmp131
	movl	(%rax), %eax	# pix_19(D)->available, D.4316
	testl	%eax, %eax	# D.4316
	jne	.L36	#,
	.loc 1 186 0 is_stmt 0 discriminator 1
	movq	img(%rip), %rax	# img, img.43
	movl	72636(%rax), %eax	# img.43_29->DeblockCall, D.4316
	testl	%eax, %eax	# D.4316
	je	.L27	#,
.L36:
	.loc 1 188 0 is_stmt 1
	movl	-24(%rbp), %eax	# maxW, tmp132
	movl	-32(%rbp), %edx	# xN, tmp133
	addl	%edx, %eax	# tmp133, D.4316
	cltd
	idivl	-24(%rbp)	# maxW
	movq	-48(%rbp), %rax	# pix, tmp136
	movl	%edx, 8(%rax)	# D.4316, pix_19(D)->x
	.loc 1 189 0
	movl	-20(%rbp), %eax	# maxH, tmp137
	movl	-36(%rbp), %edx	# yN, tmp138
	addl	%edx, %eax	# tmp138, D.4316
	cltd
	idivl	-20(%rbp)	# maxH
	movq	-48(%rbp), %rax	# pix, tmp141
	movl	%edx, 12(%rax)	# D.4316, pix_19(D)->y
	.loc 1 190 0
	movq	-48(%rbp), %rax	# pix, tmp142
	leaq	20(%rax), %rdx	#, D.4317
	movq	-48(%rbp), %rax	# pix, tmp143
	leaq	16(%rax), %rcx	#, D.4317
	movq	-48(%rbp), %rax	# pix, tmp144
	movl	4(%rax), %eax	# pix_19(D)->mb_addr, D.4316
	movq	%rcx, %rsi	# D.4317,
	movl	%eax, %edi	# D.4316,
	call	get_mb_pos	#
	.loc 1 191 0
	cmpl	$0, -40(%rbp)	#, luma
	je	.L38	#,
	.loc 1 193 0
	movq	-48(%rbp), %rax	# pix, tmp145
	movl	16(%rax), %edx	# pix_19(D)->pos_x, D.4316
	movq	-48(%rbp), %rax	# pix, tmp146
	movl	8(%rax), %eax	# pix_19(D)->x, D.4316
	addl	%eax, %edx	# D.4316, D.4316
	movq	-48(%rbp), %rax	# pix, tmp147
	movl	%edx, 16(%rax)	# D.4316, pix_19(D)->pos_x
	.loc 1 194 0
	movq	-48(%rbp), %rax	# pix, tmp148
	movl	20(%rax), %edx	# pix_19(D)->pos_y, D.4316
	movq	-48(%rbp), %rax	# pix, tmp149
	movl	12(%rax), %eax	# pix_19(D)->y, D.4316
	addl	%eax, %edx	# D.4316, D.4316
	movq	-48(%rbp), %rax	# pix, tmp150
	movl	%edx, 20(%rax)	# D.4316, pix_19(D)->pos_y
	jmp	.L27	#
.L38:
	.loc 1 198 0
	movq	-48(%rbp), %rax	# pix, tmp151
	movl	16(%rax), %ecx	# pix_19(D)->pos_x, D.4316
	movq	img(%rip), %rax	# img, img.44
	movl	72708(%rax), %ebx	# img.44_45->mb_cr_size_x, D.4316
	movl	$16, %eax	#, tmp154
	cltd
	idivl	%ebx	# D.4316
	movl	%eax, %esi	# tmp152, D.4316
	movl	%ecx, %eax	# D.4316, tmp155
	cltd
	idivl	%esi	# D.4316
	movl	%eax, %edx	# tmp155, D.4316
	movq	-48(%rbp), %rax	# pix, tmp157
	movl	8(%rax), %eax	# pix_19(D)->x, D.4316
	addl	%eax, %edx	# D.4316, D.4316
	movq	-48(%rbp), %rax	# pix, tmp158
	movl	%edx, 16(%rax)	# D.4316, pix_19(D)->pos_x
	.loc 1 199 0
	movq	-48(%rbp), %rax	# pix, tmp159
	movl	20(%rax), %ecx	# pix_19(D)->pos_y, D.4316
	movq	img(%rip), %rax	# img, img.45
	movl	72712(%rax), %edi	# img.45_52->mb_cr_size_y, D.4316
	movl	$16, %eax	#, tmp162
	cltd
	idivl	%edi	# D.4316
	movl	%eax, %ebx	# tmp160, D.4316
	movl	%ecx, %eax	# D.4316, tmp163
	cltd
	idivl	%ebx	# D.4316
	movl	%eax, %edx	# tmp163, D.4316
	movq	-48(%rbp), %rax	# pix, tmp165
	movl	12(%rax), %eax	# pix_19(D)->y, D.4316
	addl	%eax, %edx	# D.4316, D.4316
	movq	-48(%rbp), %rax	# pix, tmp166
	movl	%edx, 20(%rax)	# D.4316, pix_19(D)->pos_y
.L27:
	.loc 1 202 0
	addq	$40, %rsp	#,
	popq	%rbx	#
	popq	%rbp	#
	.cfi_def_cfa 7, 8
	ret
	.cfi_endproc
.LFE4:
	.size	getNonAffNeighbour, .-getNonAffNeighbour
	.globl	getAffNeighbour
	.type	getAffNeighbour, @function
getAffNeighbour:
.LFB5:
	.loc 1 221 0
	.cfi_startproc
	pushq	%rbp	#
	.cfi_def_cfa_offset 16
	.cfi_offset 6, -16
	movq	%rsp, %rbp	#,
	.cfi_def_cfa_register 6
	pushq	%rbx	#
	subq	$56, %rsp	#,
	.cfi_offset 3, -24
	movl	%edi, -44(%rbp)	# curr_mb_nr, curr_mb_nr
	movl	%esi, -48(%rbp)	# xN, xN
	movl	%edx, -52(%rbp)	# yN, yN
	movl	%ecx, -56(%rbp)	# luma, luma
	movq	%r8, -64(%rbp)	# pix, pix
	.loc 1 222 0
	movq	img(%rip), %rax	# img, img.46
	movq	14168(%rax), %rdx	# img.46_19->mb_data, D.4318
	movl	-44(%rbp), %eax	# curr_mb_nr, D.4319
	imulq	$632, %rax, %rax	#, D.4319, D.4319
	addq	%rdx, %rax	# D.4318, tmp258
	movq	%rax, -16(%rbp)	# tmp258, currMb
	.loc 1 224 0
	movl	$-1, -20(%rbp)	#, yM
	.loc 1 226 0
	cmpl	$0, -56(%rbp)	#, luma
	je	.L40	#,
	.loc 1 228 0
	movl	$16, -28(%rbp)	#, maxW
	.loc 1 229 0
	movl	$16, -24(%rbp)	#, maxH
	jmp	.L41	#
.L40:
	.loc 1 234 0
	movq	img(%rip), %rax	# img, img.47
	movl	72708(%rax), %eax	# img.47_29->mb_cr_size_x, tmp259
	movl	%eax, -28(%rbp)	# tmp259, maxW
	.loc 1 235 0
	movq	img(%rip), %rax	# img, img.48
	movl	72712(%rax), %eax	# img.48_31->mb_cr_size_y, tmp260
	movl	%eax, -24(%rbp)	# tmp260, maxH
.L41:
	.loc 1 239 0
	movq	-64(%rbp), %rax	# pix, tmp261
	movl	$0, (%rax)	#, pix_33(D)->available
	.loc 1 241 0
	movl	-24(%rbp), %eax	# maxH, tmp262
	subl	$1, %eax	#, D.4320
	cmpl	-52(%rbp), %eax	# yN, D.4320
	jge	.L42	#,
	.loc 1 243 0
	jmp	.L39	#
.L42:
	.loc 1 245 0
	movl	-28(%rbp), %eax	# maxW, tmp263
	subl	$1, %eax	#, D.4320
	cmpl	-48(%rbp), %eax	# xN, D.4320
	jge	.L44	#,
	.loc 1 245 0 is_stmt 0 discriminator 1
	cmpl	$0, -52(%rbp)	#, yN
	js	.L44	#,
	movl	-52(%rbp), %eax	# yN, tmp264
	cmpl	-24(%rbp), %eax	# maxH, tmp264
	jge	.L44	#,
	.loc 1 247 0 is_stmt 1
	jmp	.L39	#
.L44:
	.loc 1 250 0
	cmpl	$0, -48(%rbp)	#, xN
	jns	.L45	#,
	.loc 1 252 0
	cmpl	$0, -52(%rbp)	#, yN
	jns	.L46	#,
	.loc 1 254 0
	movq	-16(%rbp), %rax	# currMb, tmp265
	movl	532(%rax), %eax	# currMb_24->mb_field, D.4320
	testl	%eax, %eax	# D.4320
	jne	.L47	#,
	.loc 1 257 0
	movl	-44(%rbp), %eax	# curr_mb_nr, tmp266
	andl	$1, %eax	#, D.4321
	testl	%eax, %eax	# D.4321
	jne	.L48	#,
	.loc 1 260 0
	movq	-16(%rbp), %rax	# currMb, tmp267
	movl	548(%rax), %eax	# currMb_24->mbAddrD, D.4320
	leal	1(%rax), %edx	#, D.4320
	movq	-64(%rbp), %rax	# pix, tmp268
	movl	%edx, 4(%rax)	# D.4320, pix_33(D)->mb_addr
	.loc 1 261 0
	movq	-16(%rbp), %rax	# currMb, tmp269
	movl	564(%rax), %edx	# currMb_24->mbAvailD, D.4320
	movq	-64(%rbp), %rax	# pix, tmp270
	movl	%edx, (%rax)	# D.4320, pix_33(D)->available
	.loc 1 262 0
	movl	-52(%rbp), %eax	# yN, tmp271
	movl	%eax, -20(%rbp)	# tmp271, yM
	jmp	.L72	#
.L48:
	.loc 1 267 0
	movq	-16(%rbp), %rax	# currMb, tmp272
	movl	536(%rax), %edx	# currMb_24->mbAddrA, D.4320
	movq	-64(%rbp), %rax	# pix, tmp273
	movl	%edx, 4(%rax)	# D.4320, pix_33(D)->mb_addr
	.loc 1 268 0
	movq	-16(%rbp), %rax	# currMb, tmp274
	movl	552(%rax), %edx	# currMb_24->mbAvailA, D.4320
	movq	-64(%rbp), %rax	# pix, tmp275
	movl	%edx, (%rax)	# D.4320, pix_33(D)->available
	.loc 1 269 0
	movq	-16(%rbp), %rax	# currMb, tmp276
	movl	552(%rax), %eax	# currMb_24->mbAvailA, D.4320
	testl	%eax, %eax	# D.4320
	je	.L72	#,
	.loc 1 271 0
	movq	img(%rip), %rax	# img, img.49
	movq	14168(%rax), %rdx	# img.49_47->mb_data, D.4318
	movq	-16(%rbp), %rax	# currMb, tmp277
	movl	536(%rax), %eax	# currMb_24->mbAddrA, D.4320
	cltq
	imulq	$632, %rax, %rax	#, D.4319, D.4319
	addq	%rdx, %rax	# D.4318, D.4318
	movl	532(%rax), %eax	# _52->mb_field, D.4320
	testl	%eax, %eax	# D.4320
	jne	.L50	#,
	.loc 1 273 0
	movl	-52(%rbp), %eax	# yN, tmp278
	movl	%eax, -20(%rbp)	# tmp278, yM
	jmp	.L72	#
.L50:
	.loc 1 277 0
	movq	-64(%rbp), %rax	# pix, tmp279
	movl	4(%rax), %eax	# pix_33(D)->mb_addr, D.4320
	leal	1(%rax), %edx	#, D.4320
	movq	-64(%rbp), %rax	# pix, tmp280
	movl	%edx, 4(%rax)	# D.4320, pix_33(D)->mb_addr
	.loc 1 278 0
	movl	-24(%rbp), %eax	# maxH, tmp281
	movl	-52(%rbp), %edx	# yN, tmp282
	addl	%edx, %eax	# tmp282, D.4320
	sarl	%eax	# tmp283
	movl	%eax, -20(%rbp)	# tmp283, yM
	jmp	.L72	#
.L47:
	.loc 1 286 0
	movl	-44(%rbp), %eax	# curr_mb_nr, tmp284
	andl	$1, %eax	#, D.4321
	testl	%eax, %eax	# D.4321
	jne	.L52	#,
	.loc 1 289 0
	movq	-16(%rbp), %rax	# currMb, tmp285
	movl	548(%rax), %edx	# currMb_24->mbAddrD, D.4320
	movq	-64(%rbp), %rax	# pix, tmp286
	movl	%edx, 4(%rax)	# D.4320, pix_33(D)->mb_addr
	.loc 1 290 0
	movq	-16(%rbp), %rax	# currMb, tmp287
	movl	564(%rax), %edx	# currMb_24->mbAvailD, D.4320
	movq	-64(%rbp), %rax	# pix, tmp288
	movl	%edx, (%rax)	# D.4320, pix_33(D)->available
	.loc 1 291 0
	movq	-16(%rbp), %rax	# currMb, tmp289
	movl	564(%rax), %eax	# currMb_24->mbAvailD, D.4320
	testl	%eax, %eax	# D.4320
	je	.L72	#,
	.loc 1 293 0
	movq	img(%rip), %rax	# img, img.50
	movq	14168(%rax), %rdx	# img.50_63->mb_data, D.4318
	movq	-16(%rbp), %rax	# currMb, tmp290
	movl	548(%rax), %eax	# currMb_24->mbAddrD, D.4320
	cltq
	imulq	$632, %rax, %rax	#, D.4319, D.4319
	addq	%rdx, %rax	# D.4318, D.4318
	movl	532(%rax), %eax	# _68->mb_field, D.4320
	testl	%eax, %eax	# D.4320
	jne	.L54	#,
	.loc 1 295 0
	movq	-64(%rbp), %rax	# pix, tmp291
	movl	4(%rax), %eax	# pix_33(D)->mb_addr, D.4320
	leal	1(%rax), %edx	#, D.4320
	movq	-64(%rbp), %rax	# pix, tmp292
	movl	%edx, 4(%rax)	# D.4320, pix_33(D)->mb_addr
	.loc 1 296 0
	movl	-52(%rbp), %eax	# yN, tmp296
	addl	%eax, %eax	# tmp295
	movl	%eax, -20(%rbp)	# tmp295, yM
	jmp	.L72	#
.L54:
	.loc 1 300 0
	movl	-52(%rbp), %eax	# yN, tmp297
	movl	%eax, -20(%rbp)	# tmp297, yM
	jmp	.L72	#
.L52:
	.loc 1 307 0
	movq	-16(%rbp), %rax	# currMb, tmp298
	movl	548(%rax), %eax	# currMb_24->mbAddrD, D.4320
	leal	1(%rax), %edx	#, D.4320
	movq	-64(%rbp), %rax	# pix, tmp299
	movl	%edx, 4(%rax)	# D.4320, pix_33(D)->mb_addr
	.loc 1 308 0
	movq	-16(%rbp), %rax	# currMb, tmp300
	movl	564(%rax), %edx	# currMb_24->mbAvailD, D.4320
	movq	-64(%rbp), %rax	# pix, tmp301
	movl	%edx, (%rax)	# D.4320, pix_33(D)->available
	.loc 1 309 0
	movl	-52(%rbp), %eax	# yN, tmp302
	movl	%eax, -20(%rbp)	# tmp302, yM
	jmp	.L72	#
.L46:
	.loc 1 315 0
	cmpl	$0, -52(%rbp)	#, yN
	js	.L72	#,
	.loc 1 315 0 is_stmt 0 discriminator 1
	movl	-52(%rbp), %eax	# yN, tmp303
	cmpl	-24(%rbp), %eax	# maxH, tmp303
	jge	.L72	#,
	.loc 1 317 0 is_stmt 1
	movq	-16(%rbp), %rax	# currMb, tmp304
	movl	532(%rax), %eax	# currMb_24->mb_field, D.4320
	testl	%eax, %eax	# D.4320
	jne	.L56	#,
	.loc 1 320 0
	movl	-44(%rbp), %eax	# curr_mb_nr, tmp305
	andl	$1, %eax	#, D.4321
	testl	%eax, %eax	# D.4321
	jne	.L57	#,
	.loc 1 323 0
	movq	-16(%rbp), %rax	# currMb, tmp306
	movl	536(%rax), %edx	# currMb_24->mbAddrA, D.4320
	movq	-64(%rbp), %rax	# pix, tmp307
	movl	%edx, 4(%rax)	# D.4320, pix_33(D)->mb_addr
	.loc 1 324 0
	movq	-16(%rbp), %rax	# currMb, tmp308
	movl	552(%rax), %edx	# currMb_24->mbAvailA, D.4320
	movq	-64(%rbp), %rax	# pix, tmp309
	movl	%edx, (%rax)	# D.4320, pix_33(D)->available
	.loc 1 325 0
	movq	-16(%rbp), %rax	# currMb, tmp310
	movl	552(%rax), %eax	# currMb_24->mbAvailA, D.4320
	testl	%eax, %eax	# D.4320
	je	.L72	#,
	.loc 1 327 0
	movq	img(%rip), %rax	# img, img.51
	movq	14168(%rax), %rdx	# img.51_83->mb_data, D.4318
	movq	-16(%rbp), %rax	# currMb, tmp311
	movl	536(%rax), %eax	# currMb_24->mbAddrA, D.4320
	cltq
	imulq	$632, %rax, %rax	#, D.4319, D.4319
	addq	%rdx, %rax	# D.4318, D.4318
	movl	532(%rax), %eax	# _88->mb_field, D.4320
	testl	%eax, %eax	# D.4320
	jne	.L59	#,
	.loc 1 329 0
	movl	-52(%rbp), %eax	# yN, tmp312
	movl	%eax, -20(%rbp)	# tmp312, yM
	jmp	.L72	#
.L59:
	.loc 1 333 0
	movl	-52(%rbp), %eax	# yN, yN.52
	andl	$1, %eax	#, D.4322
	testl	%eax, %eax	# D.4322
	jne	.L60	#,
	.loc 1 335 0
	movl	-52(%rbp), %eax	# yN, tmp316
	sarl	%eax	# tmp315
	movl	%eax, -20(%rbp)	# tmp315, yM
	jmp	.L72	#
.L60:
	.loc 1 339 0
	movq	-64(%rbp), %rax	# pix, tmp317
	movl	4(%rax), %eax	# pix_33(D)->mb_addr, D.4320
	leal	1(%rax), %edx	#, D.4320
	movq	-64(%rbp), %rax	# pix, tmp318
	movl	%edx, 4(%rax)	# D.4320, pix_33(D)->mb_addr
	.loc 1 340 0
	movl	-52(%rbp), %eax	# yN, tmp322
	sarl	%eax	# tmp321
	movl	%eax, -20(%rbp)	# tmp321, yM
	jmp	.L72	#
.L57:
	.loc 1 348 0
	movq	-16(%rbp), %rax	# currMb, tmp323
	movl	536(%rax), %edx	# currMb_24->mbAddrA, D.4320
	movq	-64(%rbp), %rax	# pix, tmp324
	movl	%edx, 4(%rax)	# D.4320, pix_33(D)->mb_addr
	.loc 1 349 0
	movq	-16(%rbp), %rax	# currMb, tmp325
	movl	552(%rax), %edx	# currMb_24->mbAvailA, D.4320
	movq	-64(%rbp), %rax	# pix, tmp326
	movl	%edx, (%rax)	# D.4320, pix_33(D)->available
	.loc 1 350 0
	movq	-16(%rbp), %rax	# currMb, tmp327
	movl	552(%rax), %eax	# currMb_24->mbAvailA, D.4320
	testl	%eax, %eax	# D.4320
	je	.L72	#,
	.loc 1 352 0
	movq	img(%rip), %rax	# img, img.53
	movq	14168(%rax), %rdx	# img.53_100->mb_data, D.4318
	movq	-16(%rbp), %rax	# currMb, tmp328
	movl	536(%rax), %eax	# currMb_24->mbAddrA, D.4320
	cltq
	imulq	$632, %rax, %rax	#, D.4319, D.4319
	addq	%rdx, %rax	# D.4318, D.4318
	movl	532(%rax), %eax	# _105->mb_field, D.4320
	testl	%eax, %eax	# D.4320
	jne	.L62	#,
	.loc 1 354 0
	movq	-64(%rbp), %rax	# pix, tmp329
	movl	4(%rax), %eax	# pix_33(D)->mb_addr, D.4320
	leal	1(%rax), %edx	#, D.4320
	movq	-64(%rbp), %rax	# pix, tmp330
	movl	%edx, 4(%rax)	# D.4320, pix_33(D)->mb_addr
	.loc 1 355 0
	movl	-52(%rbp), %eax	# yN, tmp331
	movl	%eax, -20(%rbp)	# tmp331, yM
	jmp	.L72	#
.L62:
	.loc 1 359 0
	movl	-52(%rbp), %eax	# yN, yN.54
	andl	$1, %eax	#, D.4322
	testl	%eax, %eax	# D.4322
	jne	.L63	#,
	.loc 1 361 0
	movl	-24(%rbp), %eax	# maxH, tmp332
	movl	-52(%rbp), %edx	# yN, tmp333
	addl	%edx, %eax	# tmp333, D.4320
	sarl	%eax	# tmp334
	movl	%eax, -20(%rbp)	# tmp334, yM
	jmp	.L72	#
.L63:
	.loc 1 365 0
	movq	-64(%rbp), %rax	# pix, tmp335
	movl	4(%rax), %eax	# pix_33(D)->mb_addr, D.4320
	leal	1(%rax), %edx	#, D.4320
	movq	-64(%rbp), %rax	# pix, tmp336
	movl	%edx, 4(%rax)	# D.4320, pix_33(D)->mb_addr
	.loc 1 366 0
	movl	-24(%rbp), %eax	# maxH, tmp337
	movl	-52(%rbp), %edx	# yN, tmp338
	addl	%edx, %eax	# tmp338, D.4320
	sarl	%eax	# tmp339
	movl	%eax, -20(%rbp)	# tmp339, yM
	jmp	.L72	#
.L56:
	.loc 1 375 0
	movl	-44(%rbp), %eax	# curr_mb_nr, tmp340
	andl	$1, %eax	#, D.4321
	testl	%eax, %eax	# D.4321
	jne	.L64	#,
	.loc 1 378 0
	movq	-16(%rbp), %rax	# currMb, tmp341
	movl	536(%rax), %edx	# currMb_24->mbAddrA, D.4320
	movq	-64(%rbp), %rax	# pix, tmp342
	movl	%edx, 4(%rax)	# D.4320, pix_33(D)->mb_addr
	.loc 1 379 0
	movq	-16(%rbp), %rax	# currMb, tmp343
	movl	552(%rax), %edx	# currMb_24->mbAvailA, D.4320
	movq	-64(%rbp), %rax	# pix, tmp344
	movl	%edx, (%rax)	# D.4320, pix_33(D)->available
	.loc 1 380 0
	movq	-16(%rbp), %rax	# currMb, tmp345
	movl	552(%rax), %eax	# currMb_24->mbAvailA, D.4320
	testl	%eax, %eax	# D.4320
	je	.L72	#,
	.loc 1 382 0
	movq	img(%rip), %rax	# img, img.55
	movq	14168(%rax), %rdx	# img.55_122->mb_data, D.4318
	movq	-16(%rbp), %rax	# currMb, tmp346
	movl	536(%rax), %eax	# currMb_24->mbAddrA, D.4320
	cltq
	imulq	$632, %rax, %rax	#, D.4319, D.4319
	addq	%rdx, %rax	# D.4318, D.4318
	movl	532(%rax), %eax	# _127->mb_field, D.4320
	testl	%eax, %eax	# D.4320
	jne	.L66	#,
	.loc 1 384 0
	movl	-24(%rbp), %eax	# maxH, tmp347
	movl	%eax, %edx	# tmp347, tmp348
	shrl	$31, %edx	#, tmp348
	addl	%edx, %eax	# tmp348, tmp349
	sarl	%eax	# tmp350
	cmpl	-52(%rbp), %eax	# yN, D.4320
	jle	.L67	#,
	.loc 1 386 0
	movl	-52(%rbp), %eax	# yN, tmp354
	addl	%eax, %eax	# tmp353
	movl	%eax, -20(%rbp)	# tmp353, yM
	jmp	.L72	#
.L67:
	.loc 1 390 0
	movq	-64(%rbp), %rax	# pix, tmp355
	movl	4(%rax), %eax	# pix_33(D)->mb_addr, D.4320
	leal	1(%rax), %edx	#, D.4320
	movq	-64(%rbp), %rax	# pix, tmp356
	movl	%edx, 4(%rax)	# D.4320, pix_33(D)->mb_addr
	.loc 1 391 0
	movl	-52(%rbp), %eax	# yN, tmp357
	addl	%eax, %eax	# D.4320
	subl	-24(%rbp), %eax	# maxH, tmp359
	movl	%eax, -20(%rbp)	# tmp359, yM
	jmp	.L72	#
.L66:
	.loc 1 396 0
	movl	-52(%rbp), %eax	# yN, tmp360
	movl	%eax, -20(%rbp)	# tmp360, yM
	jmp	.L72	#
.L64:
	.loc 1 403 0
	movq	-16(%rbp), %rax	# currMb, tmp361
	movl	536(%rax), %edx	# currMb_24->mbAddrA, D.4320
	movq	-64(%rbp), %rax	# pix, tmp362
	movl	%edx, 4(%rax)	# D.4320, pix_33(D)->mb_addr
	.loc 1 404 0
	movq	-16(%rbp), %rax	# currMb, tmp363
	movl	552(%rax), %edx	# currMb_24->mbAvailA, D.4320
	movq	-64(%rbp), %rax	# pix, tmp364
	movl	%edx, (%rax)	# D.4320, pix_33(D)->available
	.loc 1 405 0
	movq	-16(%rbp), %rax	# currMb, tmp365
	movl	552(%rax), %eax	# currMb_24->mbAvailA, D.4320
	testl	%eax, %eax	# D.4320
	je	.L72	#,
	.loc 1 407 0
	movq	img(%rip), %rax	# img, img.56
	movq	14168(%rax), %rdx	# img.56_139->mb_data, D.4318
	movq	-16(%rbp), %rax	# currMb, tmp366
	movl	536(%rax), %eax	# currMb_24->mbAddrA, D.4320
	cltq
	imulq	$632, %rax, %rax	#, D.4319, D.4319
	addq	%rdx, %rax	# D.4318, D.4318
	movl	532(%rax), %eax	# _144->mb_field, D.4320
	testl	%eax, %eax	# D.4320
	jne	.L69	#,
	.loc 1 409 0
	movl	-24(%rbp), %eax	# maxH, tmp367
	movl	%eax, %edx	# tmp367, tmp368
	shrl	$31, %edx	#, tmp368
	addl	%edx, %eax	# tmp368, tmp369
	sarl	%eax	# tmp370
	cmpl	-52(%rbp), %eax	# yN, D.4320
	jle	.L70	#,
	.loc 1 411 0
	movl	-52(%rbp), %eax	# yN, tmp371
	addl	%eax, %eax	# D.4320
	addl	$1, %eax	#, tmp372
	movl	%eax, -20(%rbp)	# tmp372, yM
	jmp	.L72	#
.L70:
	.loc 1 415 0
	movq	-64(%rbp), %rax	# pix, tmp373
	movl	4(%rax), %eax	# pix_33(D)->mb_addr, D.4320
	leal	1(%rax), %edx	#, D.4320
	movq	-64(%rbp), %rax	# pix, tmp374
	movl	%edx, 4(%rax)	# D.4320, pix_33(D)->mb_addr
	.loc 1 416 0
	movl	-52(%rbp), %eax	# yN, tmp375
	addl	%eax, %eax	# D.4320
	addl	$1, %eax	#, D.4320
	subl	-24(%rbp), %eax	# maxH, tmp377
	movl	%eax, -20(%rbp)	# tmp377, yM
	jmp	.L72	#
.L69:
	.loc 1 421 0
	movq	-64(%rbp), %rax	# pix, tmp378
	movl	4(%rax), %eax	# pix_33(D)->mb_addr, D.4320
	leal	1(%rax), %edx	#, D.4320
	movq	-64(%rbp), %rax	# pix, tmp379
	movl	%edx, 4(%rax)	# D.4320, pix_33(D)->mb_addr
	.loc 1 422 0
	movl	-52(%rbp), %eax	# yN, tmp380
	movl	%eax, -20(%rbp)	# tmp380, yM
	jmp	.L72	#
.L45:
	.loc 1 432 0
	cmpl	$0, -48(%rbp)	#, xN
	js	.L73	#,
	.loc 1 432 0 is_stmt 0 discriminator 1
	movl	-48(%rbp), %eax	# xN, tmp381
	cmpl	-28(%rbp), %eax	# maxW, tmp381
	jge	.L73	#,
	.loc 1 434 0 is_stmt 1
	cmpl	$0, -52(%rbp)	#, yN
	jns	.L74	#,
	.loc 1 436 0
	movq	-16(%rbp), %rax	# currMb, tmp382
	movl	532(%rax), %eax	# currMb_24->mb_field, D.4320
	testl	%eax, %eax	# D.4320
	jne	.L75	#,
	.loc 1 439 0
	movl	-44(%rbp), %eax	# curr_mb_nr, tmp383
	andl	$1, %eax	#, D.4321
	testl	%eax, %eax	# D.4321
	jne	.L76	#,
	.loc 1 442 0
	movq	-16(%rbp), %rax	# currMb, tmp384
	movl	540(%rax), %edx	# currMb_24->mbAddrB, D.4320
	movq	-64(%rbp), %rax	# pix, tmp385
	movl	%edx, 4(%rax)	# D.4320, pix_33(D)->mb_addr
	.loc 1 445 0
	movq	-16(%rbp), %rax	# currMb, tmp386
	movl	556(%rax), %eax	# currMb_24->mbAvailB, D.4320
	testl	%eax, %eax	# D.4320
	je	.L77	#,
	.loc 1 447 0
	movq	img(%rip), %rax	# img, img.57
	movl	72636(%rax), %eax	# img.57_161->DeblockCall, D.4320
	cmpl	$1, %eax	#, D.4320
	jne	.L78	#,
	.loc 1 447 0 is_stmt 0 discriminator 1
	movq	img(%rip), %rax	# img, img.58
	movq	14168(%rax), %rdx	# img.58_163->mb_data, D.4318
	movq	-16(%rbp), %rax	# currMb, tmp387
	movl	540(%rax), %eax	# currMb_24->mbAddrB, D.4320
	cltq
	imulq	$632, %rax, %rax	#, D.4319, D.4319
	addq	%rdx, %rax	# D.4318, D.4318
	movl	532(%rax), %eax	# _168->mb_field, D.4320
	testl	%eax, %eax	# D.4320
	jne	.L77	#,
.L78:
	.loc 1 448 0 is_stmt 1
	movq	-64(%rbp), %rax	# pix, tmp388
	movl	4(%rax), %eax	# pix_33(D)->mb_addr, D.4320
	leal	1(%rax), %edx	#, D.4320
	movq	-64(%rbp), %rax	# pix, tmp389
	movl	%edx, 4(%rax)	# D.4320, pix_33(D)->mb_addr
.L77:
	.loc 1 451 0
	movq	-16(%rbp), %rax	# currMb, tmp390
	movl	556(%rax), %edx	# currMb_24->mbAvailB, D.4320
	movq	-64(%rbp), %rax	# pix, tmp391
	movl	%edx, (%rax)	# D.4320, pix_33(D)->available
	.loc 1 452 0
	movl	-52(%rbp), %eax	# yN, tmp392
	movl	%eax, -20(%rbp)	# tmp392, yM
	jmp	.L84	#
.L76:
	.loc 1 457 0
	movl	-44(%rbp), %eax	# curr_mb_nr, tmp393
	subl	$1, %eax	#, D.4321
	movl	%eax, %edx	# D.4321, D.4320
	movq	-64(%rbp), %rax	# pix, tmp394
	movl	%edx, 4(%rax)	# D.4320, pix_33(D)->mb_addr
	.loc 1 458 0
	movq	-64(%rbp), %rax	# pix, tmp395
	movl	$1, (%rax)	#, pix_33(D)->available
	.loc 1 459 0
	movl	-52(%rbp), %eax	# yN, tmp396
	movl	%eax, -20(%rbp)	# tmp396, yM
	jmp	.L84	#
.L75:
	.loc 1 465 0
	movl	-44(%rbp), %eax	# curr_mb_nr, tmp397
	andl	$1, %eax	#, D.4321
	testl	%eax, %eax	# D.4321
	jne	.L81	#,
	.loc 1 468 0
	movq	-16(%rbp), %rax	# currMb, tmp398
	movl	540(%rax), %edx	# currMb_24->mbAddrB, D.4320
	movq	-64(%rbp), %rax	# pix, tmp399
	movl	%edx, 4(%rax)	# D.4320, pix_33(D)->mb_addr
	.loc 1 469 0
	movq	-16(%rbp), %rax	# currMb, tmp400
	movl	556(%rax), %edx	# currMb_24->mbAvailB, D.4320
	movq	-64(%rbp), %rax	# pix, tmp401
	movl	%edx, (%rax)	# D.4320, pix_33(D)->available
	.loc 1 470 0
	movq	-16(%rbp), %rax	# currMb, tmp402
	movl	556(%rax), %eax	# currMb_24->mbAvailB, D.4320
	testl	%eax, %eax	# D.4320
	je	.L84	#,
	.loc 1 472 0
	movq	img(%rip), %rax	# img, img.59
	movq	14168(%rax), %rdx	# img.59_181->mb_data, D.4318
	movq	-16(%rbp), %rax	# currMb, tmp403
	movl	540(%rax), %eax	# currMb_24->mbAddrB, D.4320
	cltq
	imulq	$632, %rax, %rax	#, D.4319, D.4319
	addq	%rdx, %rax	# D.4318, D.4318
	movl	532(%rax), %eax	# _186->mb_field, D.4320
	testl	%eax, %eax	# D.4320
	jne	.L83	#,
	.loc 1 474 0
	movq	-64(%rbp), %rax	# pix, tmp404
	movl	4(%rax), %eax	# pix_33(D)->mb_addr, D.4320
	leal	1(%rax), %edx	#, D.4320
	movq	-64(%rbp), %rax	# pix, tmp405
	movl	%edx, 4(%rax)	# D.4320, pix_33(D)->mb_addr
	.loc 1 475 0
	movl	-52(%rbp), %eax	# yN, tmp409
	addl	%eax, %eax	# tmp408
	movl	%eax, -20(%rbp)	# tmp408, yM
	jmp	.L84	#
.L83:
	.loc 1 479 0
	movl	-52(%rbp), %eax	# yN, tmp410
	movl	%eax, -20(%rbp)	# tmp410, yM
	jmp	.L84	#
.L81:
	.loc 1 486 0
	movq	-16(%rbp), %rax	# currMb, tmp411
	movl	540(%rax), %eax	# currMb_24->mbAddrB, D.4320
	leal	1(%rax), %edx	#, D.4320
	movq	-64(%rbp), %rax	# pix, tmp412
	movl	%edx, 4(%rax)	# D.4320, pix_33(D)->mb_addr
	.loc 1 487 0
	movq	-16(%rbp), %rax	# currMb, tmp413
	movl	556(%rax), %edx	# currMb_24->mbAvailB, D.4320
	movq	-64(%rbp), %rax	# pix, tmp414
	movl	%edx, (%rax)	# D.4320, pix_33(D)->available
	.loc 1 488 0
	movl	-52(%rbp), %eax	# yN, tmp415
	movl	%eax, -20(%rbp)	# tmp415, yM
	.loc 1 434 0
	jmp	.L72	#
.L74:
	.loc 1 496 0
	cmpl	$0, -52(%rbp)	#, yN
	jne	.L85	#,
	.loc 1 496 0 is_stmt 0 discriminator 1
	movq	img(%rip), %rax	# img, img.60
	movl	72636(%rax), %eax	# img.60_196->DeblockCall, D.4320
	cmpl	$2, %eax	#, D.4320
	jne	.L85	#,
	.loc 1 498 0 is_stmt 1
	movq	-16(%rbp), %rax	# currMb, tmp416
	movl	540(%rax), %eax	# currMb_24->mbAddrB, D.4320
	leal	1(%rax), %edx	#, D.4320
	movq	-64(%rbp), %rax	# pix, tmp417
	movl	%edx, 4(%rax)	# D.4320, pix_33(D)->mb_addr
	.loc 1 499 0
	movq	-64(%rbp), %rax	# pix, tmp418
	movl	$1, (%rax)	#, pix_33(D)->available
	.loc 1 500 0
	movl	-52(%rbp), %eax	# yN, tmp422
	subl	$1, %eax	#, tmp421
	movl	%eax, -20(%rbp)	# tmp421, yM
	jmp	.L84	#
.L85:
	.loc 1 503 0
	cmpl	$0, -52(%rbp)	#, yN
	js	.L84	#,
	.loc 1 503 0 is_stmt 0 discriminator 1
	movl	-52(%rbp), %eax	# yN, tmp423
	cmpl	-24(%rbp), %eax	# maxH, tmp423
	jge	.L84	#,
	.loc 1 505 0 is_stmt 1
	movl	-44(%rbp), %edx	# curr_mb_nr, curr_mb_nr.61
	movq	-64(%rbp), %rax	# pix, tmp424
	movl	%edx, 4(%rax)	# curr_mb_nr.61, pix_33(D)->mb_addr
	.loc 1 506 0
	movq	-64(%rbp), %rax	# pix, tmp425
	movl	$1, (%rax)	#, pix_33(D)->available
	.loc 1 507 0
	movl	-52(%rbp), %eax	# yN, tmp426
	movl	%eax, -20(%rbp)	# tmp426, yM
	.loc 1 434 0
	jmp	.L72	#
.L84:
	jmp	.L72	#
.L73:
	.loc 1 513 0
	cmpl	$0, -52(%rbp)	#, yN
	jns	.L72	#,
	.loc 1 515 0
	movq	-16(%rbp), %rax	# currMb, tmp427
	movl	532(%rax), %eax	# currMb_24->mb_field, D.4320
	testl	%eax, %eax	# D.4320
	jne	.L86	#,
	.loc 1 518 0
	movl	-44(%rbp), %eax	# curr_mb_nr, tmp428
	andl	$1, %eax	#, D.4321
	testl	%eax, %eax	# D.4321
	jne	.L87	#,
	.loc 1 521 0
	movq	-16(%rbp), %rax	# currMb, tmp429
	movl	544(%rax), %eax	# currMb_24->mbAddrC, D.4320
	leal	1(%rax), %edx	#, D.4320
	movq	-64(%rbp), %rax	# pix, tmp430
	movl	%edx, 4(%rax)	# D.4320, pix_33(D)->mb_addr
	.loc 1 522 0
	movq	-16(%rbp), %rax	# currMb, tmp431
	movl	560(%rax), %edx	# currMb_24->mbAvailC, D.4320
	movq	-64(%rbp), %rax	# pix, tmp432
	movl	%edx, (%rax)	# D.4320, pix_33(D)->available
	.loc 1 523 0
	movl	-52(%rbp), %eax	# yN, tmp433
	movl	%eax, -20(%rbp)	# tmp433, yM
	jmp	.L72	#
.L87:
	.loc 1 528 0
	movq	-64(%rbp), %rax	# pix, tmp434
	movl	$0, (%rax)	#, pix_33(D)->available
	jmp	.L72	#
.L86:
	.loc 1 534 0
	movl	-44(%rbp), %eax	# curr_mb_nr, tmp435
	andl	$1, %eax	#, D.4321
	testl	%eax, %eax	# D.4321
	jne	.L89	#,
	.loc 1 537 0
	movq	-16(%rbp), %rax	# currMb, tmp436
	movl	544(%rax), %edx	# currMb_24->mbAddrC, D.4320
	movq	-64(%rbp), %rax	# pix, tmp437
	movl	%edx, 4(%rax)	# D.4320, pix_33(D)->mb_addr
	.loc 1 538 0
	movq	-16(%rbp), %rax	# currMb, tmp438
	movl	560(%rax), %edx	# currMb_24->mbAvailC, D.4320
	movq	-64(%rbp), %rax	# pix, tmp439
	movl	%edx, (%rax)	# D.4320, pix_33(D)->available
	.loc 1 539 0
	movq	-16(%rbp), %rax	# currMb, tmp440
	movl	560(%rax), %eax	# currMb_24->mbAvailC, D.4320
	testl	%eax, %eax	# D.4320
	je	.L72	#,
	.loc 1 541 0
	movq	img(%rip), %rax	# img, img.62
	movq	14168(%rax), %rdx	# img.62_213->mb_data, D.4318
	movq	-16(%rbp), %rax	# currMb, tmp441
	movl	544(%rax), %eax	# currMb_24->mbAddrC, D.4320
	cltq
	imulq	$632, %rax, %rax	#, D.4319, D.4319
	addq	%rdx, %rax	# D.4318, D.4318
	movl	532(%rax), %eax	# _218->mb_field, D.4320
	testl	%eax, %eax	# D.4320
	jne	.L91	#,
	.loc 1 543 0
	movq	-64(%rbp), %rax	# pix, tmp442
	movl	4(%rax), %eax	# pix_33(D)->mb_addr, D.4320
	leal	1(%rax), %edx	#, D.4320
	movq	-64(%rbp), %rax	# pix, tmp443
	movl	%edx, 4(%rax)	# D.4320, pix_33(D)->mb_addr
	.loc 1 544 0
	movl	-52(%rbp), %eax	# yN, tmp447
	addl	%eax, %eax	# tmp446
	movl	%eax, -20(%rbp)	# tmp446, yM
	jmp	.L72	#
.L91:
	.loc 1 548 0
	movl	-52(%rbp), %eax	# yN, tmp448
	movl	%eax, -20(%rbp)	# tmp448, yM
	jmp	.L72	#
.L89:
	.loc 1 555 0
	movq	-16(%rbp), %rax	# currMb, tmp449
	movl	544(%rax), %eax	# currMb_24->mbAddrC, D.4320
	leal	1(%rax), %edx	#, D.4320
	movq	-64(%rbp), %rax	# pix, tmp450
	movl	%edx, 4(%rax)	# D.4320, pix_33(D)->mb_addr
	.loc 1 556 0
	movq	-16(%rbp), %rax	# currMb, tmp451
	movl	560(%rax), %edx	# currMb_24->mbAvailC, D.4320
	movq	-64(%rbp), %rax	# pix, tmp452
	movl	%edx, (%rax)	# D.4320, pix_33(D)->available
	.loc 1 557 0
	movl	-52(%rbp), %eax	# yN, tmp453
	movl	%eax, -20(%rbp)	# tmp453, yM
.L72:
	.loc 1 563 0
	movq	-64(%rbp), %rax	# pix, tmp454
	movl	(%rax), %eax	# pix_33(D)->available, D.4320
	testl	%eax, %eax	# D.4320
	jne	.L92	#,
	.loc 1 563 0 is_stmt 0 discriminator 1
	movq	img(%rip), %rax	# img, img.63
	movl	72636(%rax), %eax	# img.63_229->DeblockCall, D.4320
	testl	%eax, %eax	# D.4320
	je	.L39	#,
.L92:
	.loc 1 565 0 is_stmt 1
	movl	-28(%rbp), %eax	# maxW, tmp455
	movl	-48(%rbp), %edx	# xN, tmp456
	addl	%edx, %eax	# tmp456, D.4320
	cltd
	idivl	-28(%rbp)	# maxW
	movq	-64(%rbp), %rax	# pix, tmp459
	movl	%edx, 8(%rax)	# D.4320, pix_33(D)->x
	.loc 1 566 0
	movl	-24(%rbp), %eax	# maxH, tmp460
	movl	-20(%rbp), %edx	# yM, tmp461
	addl	%edx, %eax	# tmp461, D.4320
	cltd
	idivl	-24(%rbp)	# maxH
	movq	-64(%rbp), %rax	# pix, tmp464
	movl	%edx, 12(%rax)	# D.4320, pix_33(D)->y
	.loc 1 567 0
	movq	-64(%rbp), %rax	# pix, tmp465
	leaq	20(%rax), %rdx	#, D.4323
	movq	-64(%rbp), %rax	# pix, tmp466
	leaq	16(%rax), %rcx	#, D.4323
	movq	-64(%rbp), %rax	# pix, tmp467
	movl	4(%rax), %eax	# pix_33(D)->mb_addr, D.4320
	movq	%rcx, %rsi	# D.4323,
	movl	%eax, %edi	# D.4320,
	call	get_mb_pos	#
	.loc 1 568 0
	cmpl	$0, -56(%rbp)	#, luma
	je	.L93	#,
	.loc 1 570 0
	movq	-64(%rbp), %rax	# pix, tmp468
	movl	16(%rax), %edx	# pix_33(D)->pos_x, D.4320
	movq	-64(%rbp), %rax	# pix, tmp469
	movl	8(%rax), %eax	# pix_33(D)->x, D.4320
	addl	%eax, %edx	# D.4320, D.4320
	movq	-64(%rbp), %rax	# pix, tmp470
	movl	%edx, 16(%rax)	# D.4320, pix_33(D)->pos_x
	.loc 1 571 0
	movq	-64(%rbp), %rax	# pix, tmp471
	movl	20(%rax), %edx	# pix_33(D)->pos_y, D.4320
	movq	-64(%rbp), %rax	# pix, tmp472
	movl	12(%rax), %eax	# pix_33(D)->y, D.4320
	addl	%eax, %edx	# D.4320, D.4320
	movq	-64(%rbp), %rax	# pix, tmp473
	movl	%edx, 20(%rax)	# D.4320, pix_33(D)->pos_y
	jmp	.L39	#
.L93:
	.loc 1 575 0
	movq	-64(%rbp), %rax	# pix, tmp474
	movl	16(%rax), %ecx	# pix_33(D)->pos_x, D.4320
	movq	img(%rip), %rax	# img, img.64
	movl	72708(%rax), %ebx	# img.64_245->mb_cr_size_x, D.4320
	movl	$16, %eax	#, tmp477
	cltd
	idivl	%ebx	# D.4320
	movl	%eax, %esi	# tmp475, D.4320
	movl	%ecx, %eax	# D.4320, tmp478
	cltd
	idivl	%esi	# D.4320
	movl	%eax, %edx	# tmp478, D.4320
	movq	-64(%rbp), %rax	# pix, tmp480
	movl	8(%rax), %eax	# pix_33(D)->x, D.4320
	addl	%eax, %edx	# D.4320, D.4320
	movq	-64(%rbp), %rax	# pix, tmp481
	movl	%edx, 16(%rax)	# D.4320, pix_33(D)->pos_x
	.loc 1 576 0
	movq	-64(%rbp), %rax	# pix, tmp482
	movl	20(%rax), %ecx	# pix_33(D)->pos_y, D.4320
	movq	img(%rip), %rax	# img, img.65
	movl	72712(%rax), %edi	# img.65_252->mb_cr_size_y, D.4320
	movl	$16, %eax	#, tmp485
	cltd
	idivl	%edi	# D.4320
	movl	%eax, %ebx	# tmp483, D.4320
	movl	%ecx, %eax	# D.4320, tmp486
	cltd
	idivl	%ebx	# D.4320
	movl	%eax, %edx	# tmp486, D.4320
	movq	-64(%rbp), %rax	# pix, tmp488
	movl	12(%rax), %eax	# pix_33(D)->y, D.4320
	addl	%eax, %edx	# D.4320, D.4320
	movq	-64(%rbp), %rax	# pix, tmp489
	movl	%edx, 20(%rax)	# D.4320, pix_33(D)->pos_y
.L39:
	.loc 1 579 0
	addq	$56, %rsp	#,
	popq	%rbx	#
	popq	%rbp	#
	.cfi_def_cfa 7, 8
	ret
	.cfi_endproc
.LFE5:
	.size	getAffNeighbour, .-getAffNeighbour
	.section	.rodata
	.align 8
.LC0:
	.string	"getNeighbour: invalid macroblock number"
	.text
	.globl	getNeighbour
	.type	getNeighbour, @function
getNeighbour:
.LFB6:
	.loc 1 599 0
	.cfi_startproc
	pushq	%rbp	#
	.cfi_def_cfa_offset 16
	.cfi_offset 6, -16
	movq	%rsp, %rbp	#,
	.cfi_def_cfa_register 6
	subq	$32, %rsp	#,
	movl	%edi, -4(%rbp)	# curr_mb_nr, curr_mb_nr
	movl	%esi, -8(%rbp)	# xN, xN
	movl	%edx, -12(%rbp)	# yN, yN
	movl	%ecx, -16(%rbp)	# luma, luma
	movq	%r8, -24(%rbp)	# pix, pix
	.loc 1 600 0
	cmpl	$0, -4(%rbp)	#, curr_mb_nr
	jns	.L95	#,
	.loc 1 601 0
	movl	$100, %esi	#,
	movl	$.LC0, %edi	#,
	call	error	#
.L95:
	.loc 1 603 0
	movq	img(%rip), %rax	# img, img.66
	movl	72400(%rax), %eax	# img.66_2->MbaffFrameFlag, D.4324
	testl	%eax, %eax	# D.4324
	je	.L96	#,
	.loc 1 604 0
	movl	-4(%rbp), %eax	# curr_mb_nr, curr_mb_nr.67
	movq	-24(%rbp), %rdi	# pix, tmp63
	movl	-16(%rbp), %ecx	# luma, tmp64
	movl	-12(%rbp), %edx	# yN, tmp65
	movl	-8(%rbp), %esi	# xN, tmp66
	movq	%rdi, %r8	# tmp63,
	movl	%eax, %edi	# curr_mb_nr.67,
	call	getAffNeighbour	#
	jmp	.L94	#
.L96:
	.loc 1 606 0
	movl	-4(%rbp), %eax	# curr_mb_nr, curr_mb_nr.68
	movq	-24(%rbp), %rdi	# pix, tmp67
	movl	-16(%rbp), %ecx	# luma, tmp68
	movl	-12(%rbp), %edx	# yN, tmp69
	movl	-8(%rbp), %esi	# xN, tmp70
	movq	%rdi, %r8	# tmp67,
	movl	%eax, %edi	# curr_mb_nr.68,
	call	getNonAffNeighbour	#
.L94:
	.loc 1 607 0
	leave
	.cfi_def_cfa 7, 8
	ret
	.cfi_endproc
.LFE6:
	.size	getNeighbour, .-getNeighbour
	.globl	getLuma4x4Neighbour
	.type	getLuma4x4Neighbour, @function
getLuma4x4Neighbour:
.LFB7:
	.loc 1 629 0
	.cfi_startproc
	pushq	%rbp	#
	.cfi_def_cfa_offset 16
	.cfi_offset 6, -16
	movq	%rsp, %rbp	#,
	.cfi_def_cfa_register 6
	subq	$48, %rsp	#,
	movl	%edi, -20(%rbp)	# curr_mb_nr, curr_mb_nr
	movl	%esi, -24(%rbp)	# block_x, block_x
	movl	%edx, -28(%rbp)	# block_y, block_y
	movl	%ecx, -32(%rbp)	# rel_x, rel_x
	movl	%r8d, -36(%rbp)	# rel_y, rel_y
	movq	%r9, -48(%rbp)	# pix, pix
	.loc 1 630 0
	movl	-24(%rbp), %eax	# block_x, tmp70
	leal	0(,%rax,4), %edx	#, D.4326
	movl	-32(%rbp), %eax	# rel_x, tmp74
	addl	%edx, %eax	# D.4326, tmp73
	movl	%eax, -8(%rbp)	# tmp73, x
	.loc 1 631 0
	movl	-28(%rbp), %eax	# block_y, tmp75
	leal	0(,%rax,4), %edx	#, D.4326
	movl	-36(%rbp), %eax	# rel_y, tmp79
	addl	%edx, %eax	# D.4326, tmp78
	movl	%eax, -4(%rbp)	# tmp78, y
	.loc 1 633 0
	movq	-48(%rbp), %rcx	# pix, tmp80
	movl	-4(%rbp), %edx	# y, tmp81
	movl	-8(%rbp), %esi	# x, tmp82
	movl	-20(%rbp), %eax	# curr_mb_nr, tmp83
	movq	%rcx, %r8	# tmp80,
	movl	$1, %ecx	#,
	movl	%eax, %edi	# tmp83,
	call	getNeighbour	#
	.loc 1 635 0
	movq	-48(%rbp), %rax	# pix, tmp84
	movl	(%rax), %eax	# pix_10(D)->available, D.4326
	testl	%eax, %eax	# D.4326
	je	.L98	#,
	.loc 1 637 0
	movq	-48(%rbp), %rax	# pix, tmp85
	movl	8(%rax), %eax	# pix_10(D)->x, D.4326
	leal	3(%rax), %edx	#, tmp87
	testl	%eax, %eax	# tmp86
	cmovs	%edx, %eax	# tmp87,, tmp86
	sarl	$2, %eax	#, tmp88
	movl	%eax, %edx	# tmp88, D.4326
	movq	-48(%rbp), %rax	# pix, tmp89
	movl	%edx, 8(%rax)	# D.4326, pix_10(D)->x
	.loc 1 638 0
	movq	-48(%rbp), %rax	# pix, tmp90
	movl	12(%rax), %eax	# pix_10(D)->y, D.4326
	leal	3(%rax), %edx	#, tmp92
	testl	%eax, %eax	# tmp91
	cmovs	%edx, %eax	# tmp92,, tmp91
	sarl	$2, %eax	#, tmp93
	movl	%eax, %edx	# tmp93, D.4326
	movq	-48(%rbp), %rax	# pix, tmp94
	movl	%edx, 12(%rax)	# D.4326, pix_10(D)->y
	.loc 1 639 0
	movq	-48(%rbp), %rax	# pix, tmp95
	movl	16(%rax), %eax	# pix_10(D)->pos_x, D.4326
	leal	3(%rax), %edx	#, tmp97
	testl	%eax, %eax	# tmp96
	cmovs	%edx, %eax	# tmp97,, tmp96
	sarl	$2, %eax	#, tmp98
	movl	%eax, %edx	# tmp98, D.4326
	movq	-48(%rbp), %rax	# pix, tmp99
	movl	%edx, 16(%rax)	# D.4326, pix_10(D)->pos_x
	.loc 1 640 0
	movq	-48(%rbp), %rax	# pix, tmp100
	movl	20(%rax), %eax	# pix_10(D)->pos_y, D.4326
	leal	3(%rax), %edx	#, tmp102
	testl	%eax, %eax	# tmp101
	cmovs	%edx, %eax	# tmp102,, tmp101
	sarl	$2, %eax	#, tmp103
	movl	%eax, %edx	# tmp103, D.4326
	movq	-48(%rbp), %rax	# pix, tmp104
	movl	%edx, 20(%rax)	# D.4326, pix_10(D)->pos_y
.L98:
	.loc 1 642 0
	leave
	.cfi_def_cfa 7, 8
	ret
	.cfi_endproc
.LFE7:
	.size	getLuma4x4Neighbour, .-getLuma4x4Neighbour
	.globl	getChroma4x4Neighbour
	.type	getChroma4x4Neighbour, @function
getChroma4x4Neighbour:
.LFB8:
	.loc 1 664 0
	.cfi_startproc
	pushq	%rbp	#
	.cfi_def_cfa_offset 16
	.cfi_offset 6, -16
	movq	%rsp, %rbp	#,
	.cfi_def_cfa_register 6
	subq	$48, %rsp	#,
	movl	%edi, -20(%rbp)	# curr_mb_nr, curr_mb_nr
	movl	%esi, -24(%rbp)	# block_x, block_x
	movl	%edx, -28(%rbp)	# block_y, block_y
	movl	%ecx, -32(%rbp)	# rel_x, rel_x
	movl	%r8d, -36(%rbp)	# rel_y, rel_y
	movq	%r9, -48(%rbp)	# pix, pix
	.loc 1 665 0
	movl	-24(%rbp), %eax	# block_x, tmp70
	leal	0(,%rax,4), %edx	#, D.4327
	movl	-32(%rbp), %eax	# rel_x, tmp74
	addl	%edx, %eax	# D.4327, tmp73
	movl	%eax, -8(%rbp)	# tmp73, x
	.loc 1 666 0
	movl	-28(%rbp), %eax	# block_y, tmp75
	leal	0(,%rax,4), %edx	#, D.4327
	movl	-36(%rbp), %eax	# rel_y, tmp79
	addl	%edx, %eax	# D.4327, tmp78
	movl	%eax, -4(%rbp)	# tmp78, y
	.loc 1 668 0
	movq	-48(%rbp), %rcx	# pix, tmp80
	movl	-4(%rbp), %edx	# y, tmp81
	movl	-8(%rbp), %esi	# x, tmp82
	movl	-20(%rbp), %eax	# curr_mb_nr, tmp83
	movq	%rcx, %r8	# tmp80,
	movl	$0, %ecx	#,
	movl	%eax, %edi	# tmp83,
	call	getNeighbour	#
	.loc 1 670 0
	movq	-48(%rbp), %rax	# pix, tmp84
	movl	(%rax), %eax	# pix_10(D)->available, D.4327
	testl	%eax, %eax	# D.4327
	je	.L100	#,
	.loc 1 672 0
	movq	-48(%rbp), %rax	# pix, tmp85
	movl	8(%rax), %eax	# pix_10(D)->x, D.4327
	leal	3(%rax), %edx	#, tmp87
	testl	%eax, %eax	# tmp86
	cmovs	%edx, %eax	# tmp87,, tmp86
	sarl	$2, %eax	#, tmp88
	movl	%eax, %edx	# tmp88, D.4327
	movq	-48(%rbp), %rax	# pix, tmp89
	movl	%edx, 8(%rax)	# D.4327, pix_10(D)->x
	.loc 1 673 0
	movq	-48(%rbp), %rax	# pix, tmp90
	movl	12(%rax), %eax	# pix_10(D)->y, D.4327
	leal	3(%rax), %edx	#, tmp92
	testl	%eax, %eax	# tmp91
	cmovs	%edx, %eax	# tmp92,, tmp91
	sarl	$2, %eax	#, tmp93
	movl	%eax, %edx	# tmp93, D.4327
	movq	-48(%rbp), %rax	# pix, tmp94
	movl	%edx, 12(%rax)	# D.4327, pix_10(D)->y
	.loc 1 674 0
	movq	-48(%rbp), %rax	# pix, tmp95
	movl	16(%rax), %eax	# pix_10(D)->pos_x, D.4327
	leal	3(%rax), %edx	#, tmp97
	testl	%eax, %eax	# tmp96
	cmovs	%edx, %eax	# tmp97,, tmp96
	sarl	$2, %eax	#, tmp98
	movl	%eax, %edx	# tmp98, D.4327
	movq	-48(%rbp), %rax	# pix, tmp99
	movl	%edx, 16(%rax)	# D.4327, pix_10(D)->pos_x
	.loc 1 675 0
	movq	-48(%rbp), %rax	# pix, tmp100
	movl	20(%rax), %eax	# pix_10(D)->pos_y, D.4327
	leal	3(%rax), %edx	#, tmp102
	testl	%eax, %eax	# tmp101
	cmovs	%edx, %eax	# tmp102,, tmp101
	sarl	$2, %eax	#, tmp103
	movl	%eax, %edx	# tmp103, D.4327
	movq	-48(%rbp), %rax	# pix, tmp104
	movl	%edx, 20(%rax)	# D.4327, pix_10(D)->pos_y
.L100:
	.loc 1 677 0
	leave
	.cfi_def_cfa 7, 8
	ret
	.cfi_endproc
.LFE8:
	.size	getChroma4x4Neighbour, .-getChroma4x4Neighbour
.Letext0:
	.file 2 "defines.h"
	.file 3 "parsetcommon.h"
	.file 4 "/usr/include/stdint.h"
	.file 5 "global.h"
	.section	.note.GNU-stack,"",@progbits
