	.file	"mv-search.c"
# GNU C (Ubuntu/Linaro 4.8.1-10ubuntu9) version 4.8.1 (x86_64-linux-gnu)
#	compiled by GNU C version 4.8.1, GMP version 5.1.2, MPFR version 3.1.1-p2, MPC version 1.0.1
# GGC heuristics: --param ggc-min-expand=100 --param ggc-min-heapsize=131072
# options passed:  -imultiarch x86_64-linux-gnu -D SPEC_CPU -D NDEBUG
# -D SPEC_CPU_LP64 mv-search.c -mtune=generic -march=x86-64 -g
# -fverbose-asm -fno-strict-aliasing -fstack-protector -Wformat
# -Wformat-security
# options enabled:  -faggressive-loop-optimizations
# -fasynchronous-unwind-tables -fauto-inc-dec -fbranch-count-reg -fcommon
# -fdelete-null-pointer-checks -fdwarf2-cfi-asm -fearly-inlining
# -feliminate-unused-debug-types -ffunction-cse -fgcse-lm -fgnu-runtime
# -fident -finline-atomics -fira-hoist-pressure -fira-share-save-slots
# -fira-share-spill-slots -fivopts -fkeep-static-consts
# -fleading-underscore -fmath-errno -fmerge-debug-strings
# -fmove-loop-invariants -fpeephole -fprefetch-loop-arrays
# -freg-struct-return -fsched-critical-path-heuristic
# -fsched-dep-count-heuristic -fsched-group-heuristic -fsched-interblock
# -fsched-last-insn-heuristic -fsched-rank-heuristic -fsched-spec
# -fsched-spec-insn-heuristic -fsched-stalled-insns-dep -fshow-column
# -fsigned-zeros -fsplit-ivs-in-unroller -fstack-protector
# -fstrict-volatile-bitfields -fsync-libcalls -ftrapping-math
# -ftree-coalesce-vars -ftree-cselim -ftree-forwprop -ftree-loop-if-convert
# -ftree-loop-im -ftree-loop-ivcanon -ftree-loop-optimize
# -ftree-parallelize-loops= -ftree-phiprop -ftree-pta -ftree-reassoc
# -ftree-scev-cprop -ftree-slp-vectorize -ftree-vect-loop-version
# -funit-at-a-time -funwind-tables -fverbose-asm -fzero-initialized-in-bss
# -m128bit-long-double -m64 -m80387 -maccumulate-outgoing-args
# -malign-stringops -mfancy-math-387 -mfp-ret-in-387 -mfxsr -mglibc
# -mieee-fp -mlong-double-80 -mmmx -mno-sse4 -mpush-args -mred-zone -msse
# -msse2 -mtls-direct-seg-refs

	.text
.Ltext0:
	.globl	QP2QUANT
	.section	.rodata
	.align 32
	.type	QP2QUANT, @object
	.size	QP2QUANT, 160
QP2QUANT:
	.long	1
	.long	1
	.long	1
	.long	1
	.long	2
	.long	2
	.long	2
	.long	2
	.long	3
	.long	3
	.long	3
	.long	4
	.long	4
	.long	4
	.long	5
	.long	6
	.long	6
	.long	7
	.long	8
	.long	9
	.long	10
	.long	11
	.long	13
	.long	14
	.long	16
	.long	18
	.long	20
	.long	23
	.long	25
	.long	29
	.long	32
	.long	36
	.long	40
	.long	45
	.long	51
	.long	57
	.long	64
	.long	72
	.long	81
	.long	91
	.local	PelY_14
	.comm	PelY_14,8,8
	.local	PelY_14b
	.comm	PelY_14b,8,8
	.local	PelYline_11
	.comm	PelYline_11,8,8
	.comm	max_mvd,4,4
	.comm	spiral_search_x,8,8
	.comm	spiral_search_y,8,8
	.comm	mvbits,8,8
	.comm	refbits,8,8
	.comm	byte_abs,8,8
	.comm	motion_cost,8,8
	.local	search_setup_done
	.comm	search_setup_done,8,8
	.local	search_center_x
	.comm	search_center_x,8,8
	.local	search_center_y
	.comm	search_center_y,8,8
	.local	pos_00
	.comm	pos_00,8,8
	.local	BlockSAD
	.comm	BlockSAD,8,8
	.local	max_search_range
	.comm	max_search_range,8,8
	.align 8
.LC0:
	.string	"InitializeFastFullIntegerSearch: BlockSAD"
	.align 8
.LC1:
	.string	"InitializeFastFullIntegerSearch: search_setup_done"
	.align 8
.LC2:
	.string	"InitializeFastFullIntegerSearch: search_center_x"
	.align 8
.LC3:
	.string	"InitializeFastFullIntegerSearch: search_center_y"
	.align 8
.LC4:
	.string	"InitializeFastFullIntegerSearch: pos_00"
	.align 8
.LC5:
	.string	"InitializeFastFullIntegerSearch: max_search_range"
	.text
	.globl	InitializeFastFullIntegerSearch
	.type	InitializeFastFullIntegerSearch, @function
InitializeFastFullIntegerSearch:
.LFB2:
	.file 1 "mv-search.c"
	.loc 1 90 0
	.cfi_startproc
	pushq	%rbp	#
	.cfi_def_cfa_offset 16
	.cfi_offset 6, -16
	movq	%rsp, %rbp	#,
	.cfi_def_cfa_register 6
	pushq	%rbx	#
	subq	$40, %rsp	#,
	.cfi_offset 3, -24
	.loc 1 92 0
	movq	input(%rip), %rax	# input, input.0
	movl	32(%rax), %eax	# input.0_10->search_range, tmp227
	movl	%eax, -24(%rbp)	# tmp227, search_range
	.loc 1 93 0
	movl	-24(%rbp), %eax	# search_range, tmp228
	addl	%eax, %eax	# D.21082
	leal	1(%rax), %edx	#, D.21082
	movl	-24(%rbp), %eax	# search_range, tmp229
	addl	%eax, %eax	# D.21082
	addl	$1, %eax	#, D.21082
	imull	%edx, %eax	# D.21082, tmp230
	movl	%eax, -20(%rbp)	# tmp230, max_pos
	.loc 1 95 0
	movl	$16, %edi	#,
	call	malloc	#
	movq	%rax, BlockSAD(%rip)	# BlockSAD.1, BlockSAD
	movq	BlockSAD(%rip), %rax	# BlockSAD, BlockSAD.2
	testq	%rax, %rax	# BlockSAD.2
	jne	.L2	#,
	.loc 1 96 0
	movl	$.LC0, %edi	#,
	call	no_mem_exit	#
.L2:
	.loc 1 98 0
	movl	$0, -28(%rbp)	#, list
	jmp	.L3	#
.L14:
	.loc 1 100 0
	movq	BlockSAD(%rip), %rax	# BlockSAD, BlockSAD.3
	movl	-28(%rbp), %edx	# list, tmp232
	movslq	%edx, %rdx	# tmp232, D.21083
	salq	$3, %rdx	#, D.21083
	leaq	(%rax,%rdx), %rbx	#, D.21084
	movq	img(%rip), %rax	# img, img.4
	movl	36(%rax), %eax	# img.4_24->max_num_references, D.21082
	addl	$1, %eax	#, D.21082
	cltq
	salq	$3, %rax	#, D.21083
	movq	%rax, %rdi	# D.21083,
	call	malloc	#
	movq	%rax, (%rbx)	# D.21085, *_23
	movq	(%rbx), %rax	# *_23, D.21086
	testq	%rax, %rax	# D.21086
	jne	.L4	#,
	.loc 1 101 0
	movl	$.LC0, %edi	#,
	call	no_mem_exit	#
.L4:
	.loc 1 102 0
	movl	$0, -40(%rbp)	#, i
	jmp	.L5	#
.L13:
	.loc 1 104 0
	movq	BlockSAD(%rip), %rax	# BlockSAD, BlockSAD.5
	movl	-28(%rbp), %edx	# list, tmp234
	movslq	%edx, %rdx	# tmp234, D.21083
	salq	$3, %rdx	#, D.21083
	addq	%rdx, %rax	# D.21083, D.21084
	movq	(%rax), %rax	# *_37, D.21086
	movl	-40(%rbp), %edx	# i, tmp235
	movslq	%edx, %rdx	# tmp235, D.21083
	salq	$3, %rdx	#, D.21083
	leaq	(%rax,%rdx), %rbx	#, D.21086
	movl	$64, %edi	#,
	call	malloc	#
	movq	%rax, (%rbx)	# D.21085, *_41
	movq	(%rbx), %rax	# *_41, D.21087
	testq	%rax, %rax	# D.21087
	jne	.L6	#,
	.loc 1 105 0
	movl	$.LC0, %edi	#,
	call	no_mem_exit	#
.L6:
	.loc 1 106 0
	movl	$1, -36(%rbp)	#, j
	jmp	.L7	#
.L12:
	.loc 1 108 0
	movq	BlockSAD(%rip), %rax	# BlockSAD, BlockSAD.6
	movl	-28(%rbp), %edx	# list, tmp237
	movslq	%edx, %rdx	# tmp237, D.21083
	salq	$3, %rdx	#, D.21083
	addq	%rdx, %rax	# D.21083, D.21084
	movq	(%rax), %rax	# *_48, D.21086
	movl	-40(%rbp), %edx	# i, tmp238
	movslq	%edx, %rdx	# tmp238, D.21083
	salq	$3, %rdx	#, D.21083
	addq	%rdx, %rax	# D.21083, D.21086
	movq	(%rax), %rax	# *_52, D.21087
	movl	-36(%rbp), %edx	# j, tmp239
	movslq	%edx, %rdx	# tmp239, D.21083
	salq	$3, %rdx	#, D.21083
	leaq	(%rax,%rdx), %rbx	#, D.21087
	movl	$128, %edi	#,
	call	malloc	#
	movq	%rax, (%rbx)	# D.21085, *_56
	movq	(%rbx), %rax	# *_56, D.21088
	testq	%rax, %rax	# D.21088
	jne	.L8	#,
	.loc 1 109 0
	movl	$.LC0, %edi	#,
	call	no_mem_exit	#
.L8:
	.loc 1 110 0
	movl	$0, -32(%rbp)	#, k
	jmp	.L9	#
.L11:
	.loc 1 112 0
	movq	BlockSAD(%rip), %rax	# BlockSAD, BlockSAD.7
	movl	-28(%rbp), %edx	# list, tmp241
	movslq	%edx, %rdx	# tmp241, D.21083
	salq	$3, %rdx	#, D.21083
	addq	%rdx, %rax	# D.21083, D.21084
	movq	(%rax), %rax	# *_63, D.21086
	movl	-40(%rbp), %edx	# i, tmp242
	movslq	%edx, %rdx	# tmp242, D.21083
	salq	$3, %rdx	#, D.21083
	addq	%rdx, %rax	# D.21083, D.21086
	movq	(%rax), %rax	# *_67, D.21087
	movl	-36(%rbp), %edx	# j, tmp243
	movslq	%edx, %rdx	# tmp243, D.21083
	salq	$3, %rdx	#, D.21083
	addq	%rdx, %rax	# D.21083, D.21087
	movq	(%rax), %rax	# *_71, D.21088
	movl	-32(%rbp), %edx	# k, tmp244
	movslq	%edx, %rdx	# tmp244, D.21083
	salq	$3, %rdx	#, D.21083
	leaq	(%rax,%rdx), %rbx	#, D.21088
	movl	-20(%rbp), %eax	# max_pos, tmp245
	cltq
	salq	$2, %rax	#, D.21083
	movq	%rax, %rdi	# D.21083,
	call	malloc	#
	movq	%rax, (%rbx)	# D.21085, *_75
	movq	(%rbx), %rax	# *_75, D.21089
	testq	%rax, %rax	# D.21089
	jne	.L10	#,
	.loc 1 113 0
	movl	$.LC0, %edi	#,
	call	no_mem_exit	#
.L10:
	.loc 1 110 0
	addl	$1, -32(%rbp)	#, k
.L9:
	.loc 1 110 0 is_stmt 0 discriminator 1
	cmpl	$15, -32(%rbp)	#, k
	jle	.L11	#,
	.loc 1 106 0 is_stmt 1
	addl	$1, -36(%rbp)	#, j
.L7:
	.loc 1 106 0 is_stmt 0 discriminator 1
	cmpl	$7, -36(%rbp)	#, j
	jle	.L12	#,
	.loc 1 102 0 is_stmt 1
	addl	$1, -40(%rbp)	#, i
.L5:
	.loc 1 102 0 is_stmt 0 discriminator 1
	movq	img(%rip), %rax	# img, img.8
	movl	36(%rax), %eax	# img.8_32->max_num_references, D.21082
	cmpl	-40(%rbp), %eax	# i, D.21082
	jge	.L13	#,
	.loc 1 98 0 is_stmt 1
	addl	$1, -28(%rbp)	#, list
.L3:
	.loc 1 98 0 is_stmt 0 discriminator 1
	cmpl	$1, -28(%rbp)	#, list
	jle	.L14	#,
	.loc 1 119 0 is_stmt 1
	movl	$16, %edi	#,
	call	malloc	#
	movq	%rax, search_setup_done(%rip)	# search_setup_done.9, search_setup_done
	movq	search_setup_done(%rip), %rax	# search_setup_done, search_setup_done.10
	testq	%rax, %rax	# search_setup_done.10
	jne	.L15	#,
	.loc 1 120 0
	movl	$.LC1, %edi	#,
	call	no_mem_exit	#
.L15:
	.loc 1 121 0
	movl	$16, %edi	#,
	call	malloc	#
	movq	%rax, search_center_x(%rip)	# search_center_x.11, search_center_x
	movq	search_center_x(%rip), %rax	# search_center_x, search_center_x.12
	testq	%rax, %rax	# search_center_x.12
	jne	.L16	#,
	.loc 1 122 0
	movl	$.LC2, %edi	#,
	call	no_mem_exit	#
.L16:
	.loc 1 123 0
	movl	$16, %edi	#,
	call	malloc	#
	movq	%rax, search_center_y(%rip)	# search_center_y.13, search_center_y
	movq	search_center_y(%rip), %rax	# search_center_y, search_center_y.14
	testq	%rax, %rax	# search_center_y.14
	jne	.L17	#,
	.loc 1 124 0
	movl	$.LC3, %edi	#,
	call	no_mem_exit	#
.L17:
	.loc 1 125 0
	movl	$16, %edi	#,
	call	malloc	#
	movq	%rax, pos_00(%rip)	# pos_00.15, pos_00
	movq	pos_00(%rip), %rax	# pos_00, pos_00.16
	testq	%rax, %rax	# pos_00.16
	jne	.L18	#,
	.loc 1 126 0
	movl	$.LC4, %edi	#,
	call	no_mem_exit	#
.L18:
	.loc 1 127 0
	movl	$16, %edi	#,
	call	malloc	#
	movq	%rax, max_search_range(%rip)	# max_search_range.17, max_search_range
	movq	max_search_range(%rip), %rax	# max_search_range, max_search_range.18
	testq	%rax, %rax	# max_search_range.18
	jne	.L19	#,
	.loc 1 128 0
	movl	$.LC5, %edi	#,
	call	no_mem_exit	#
.L19:
	.loc 1 130 0
	movl	$0, -28(%rbp)	#, list
	jmp	.L20	#
.L26:
	.loc 1 132 0
	movq	search_setup_done(%rip), %rax	# search_setup_done, search_setup_done.19
	movl	-28(%rbp), %edx	# list, tmp252
	movslq	%edx, %rdx	# tmp252, D.21083
	salq	$3, %rdx	#, D.21083
	leaq	(%rax,%rdx), %rbx	#, D.21088
	movq	img(%rip), %rax	# img, img.20
	movl	36(%rax), %eax	# img.20_99->max_num_references, D.21082
	addl	$1, %eax	#, D.21082
	cltq
	salq	$2, %rax	#, D.21083
	movq	%rax, %rdi	# D.21083,
	call	malloc	#
	movq	%rax, (%rbx)	# D.21085, *_98
	movq	(%rbx), %rax	# *_98, D.21089
	testq	%rax, %rax	# D.21089
	jne	.L21	#,
	.loc 1 133 0
	movl	$.LC1, %edi	#,
	call	no_mem_exit	#
.L21:
	.loc 1 134 0
	movq	search_center_x(%rip), %rax	# search_center_x, search_center_x.21
	movl	-28(%rbp), %edx	# list, tmp254
	movslq	%edx, %rdx	# tmp254, D.21083
	salq	$3, %rdx	#, D.21083
	leaq	(%rax,%rdx), %rbx	#, D.21088
	movq	img(%rip), %rax	# img, img.22
	movl	36(%rax), %eax	# img.22_110->max_num_references, D.21082
	addl	$1, %eax	#, D.21082
	cltq
	salq	$2, %rax	#, D.21083
	movq	%rax, %rdi	# D.21083,
	call	malloc	#
	movq	%rax, (%rbx)	# D.21085, *_109
	movq	(%rbx), %rax	# *_109, D.21089
	testq	%rax, %rax	# D.21089
	jne	.L22	#,
	.loc 1 135 0
	movl	$.LC2, %edi	#,
	call	no_mem_exit	#
.L22:
	.loc 1 136 0
	movq	search_center_y(%rip), %rax	# search_center_y, search_center_y.23
	movl	-28(%rbp), %edx	# list, tmp256
	movslq	%edx, %rdx	# tmp256, D.21083
	salq	$3, %rdx	#, D.21083
	leaq	(%rax,%rdx), %rbx	#, D.21088
	movq	img(%rip), %rax	# img, img.24
	movl	36(%rax), %eax	# img.24_121->max_num_references, D.21082
	addl	$1, %eax	#, D.21082
	cltq
	salq	$2, %rax	#, D.21083
	movq	%rax, %rdi	# D.21083,
	call	malloc	#
	movq	%rax, (%rbx)	# D.21085, *_120
	movq	(%rbx), %rax	# *_120, D.21089
	testq	%rax, %rax	# D.21089
	jne	.L23	#,
	.loc 1 137 0
	movl	$.LC3, %edi	#,
	call	no_mem_exit	#
.L23:
	.loc 1 138 0
	movq	pos_00(%rip), %rax	# pos_00, pos_00.25
	movl	-28(%rbp), %edx	# list, tmp258
	movslq	%edx, %rdx	# tmp258, D.21083
	salq	$3, %rdx	#, D.21083
	leaq	(%rax,%rdx), %rbx	#, D.21088
	movq	img(%rip), %rax	# img, img.26
	movl	36(%rax), %eax	# img.26_132->max_num_references, D.21082
	addl	$1, %eax	#, D.21082
	cltq
	salq	$2, %rax	#, D.21083
	movq	%rax, %rdi	# D.21083,
	call	malloc	#
	movq	%rax, (%rbx)	# D.21085, *_131
	movq	(%rbx), %rax	# *_131, D.21089
	testq	%rax, %rax	# D.21089
	jne	.L24	#,
	.loc 1 139 0
	movl	$.LC4, %edi	#,
	call	no_mem_exit	#
.L24:
	.loc 1 140 0
	movq	max_search_range(%rip), %rax	# max_search_range, max_search_range.27
	movl	-28(%rbp), %edx	# list, tmp260
	movslq	%edx, %rdx	# tmp260, D.21083
	salq	$3, %rdx	#, D.21083
	leaq	(%rax,%rdx), %rbx	#, D.21088
	movq	img(%rip), %rax	# img, img.28
	movl	36(%rax), %eax	# img.28_143->max_num_references, D.21082
	addl	$1, %eax	#, D.21082
	cltq
	salq	$2, %rax	#, D.21083
	movq	%rax, %rdi	# D.21083,
	call	malloc	#
	movq	%rax, (%rbx)	# D.21085, *_142
	movq	(%rbx), %rax	# *_142, D.21089
	testq	%rax, %rax	# D.21089
	jne	.L25	#,
	.loc 1 141 0
	movl	$.LC5, %edi	#,
	call	no_mem_exit	#
.L25:
	.loc 1 130 0
	addl	$1, -28(%rbp)	#, list
.L20:
	.loc 1 130 0 is_stmt 0 discriminator 1
	cmpl	$1, -28(%rbp)	#, list
	jle	.L26	#,
	.loc 1 145 0 is_stmt 1
	movq	input(%rip), %rax	# input, input.29
	movl	2436(%rax), %eax	# input.29_151->full_search, D.21082
	cmpl	$2, %eax	#, D.21082
	jne	.L27	#,
	.loc 1 147 0
	movl	$0, -28(%rbp)	#, list
	jmp	.L28	#
.L31:
	.loc 1 148 0
	movl	$0, -40(%rbp)	#, i
	jmp	.L29	#
.L30:
	.loc 1 149 0 discriminator 2
	movq	max_search_range(%rip), %rax	# max_search_range, max_search_range.30
	movl	-28(%rbp), %edx	# list, tmp262
	movslq	%edx, %rdx	# tmp262, D.21083
	salq	$3, %rdx	#, D.21083
	addq	%rdx, %rax	# D.21083, D.21088
	movq	(%rax), %rax	# *_160, D.21089
	movl	-40(%rbp), %edx	# i, tmp263
	movslq	%edx, %rdx	# tmp263, D.21083
	salq	$2, %rdx	#, D.21083
	addq	%rax, %rdx	# D.21089, D.21089
	movl	-24(%rbp), %eax	# search_range, tmp264
	movl	%eax, (%rdx)	# tmp264, *_164
	.loc 1 148 0 discriminator 2
	addl	$1, -40(%rbp)	#, i
.L29:
	.loc 1 148 0 is_stmt 0 discriminator 1
	movq	img(%rip), %rax	# img, img.31
	movl	36(%rax), %eax	# img.31_155->max_num_references, D.21082
	cmpl	-40(%rbp), %eax	# i, D.21082
	jge	.L30	#,
	.loc 1 147 0 is_stmt 1
	addl	$1, -28(%rbp)	#, list
.L28:
	.loc 1 147 0 is_stmt 0 discriminator 1
	cmpl	$1, -28(%rbp)	#, list
	jle	.L31	#,
	jmp	.L1	#
.L27:
	.loc 1 153 0 is_stmt 1
	movl	$0, -28(%rbp)	#, list
	jmp	.L33	#
.L36:
	.loc 1 155 0
	movq	max_search_range(%rip), %rax	# max_search_range, max_search_range.32
	movl	-28(%rbp), %edx	# list, tmp265
	movslq	%edx, %rdx	# tmp265, D.21083
	salq	$3, %rdx	#, D.21083
	addq	%rdx, %rax	# D.21083, D.21088
	movq	(%rax), %rdx	# *_171, D.21089
	movq	max_search_range(%rip), %rax	# max_search_range, max_search_range.33
	movl	-28(%rbp), %ecx	# list, tmp266
	movslq	%ecx, %rcx	# tmp266, D.21083
	salq	$3, %rcx	#, D.21083
	addq	%rcx, %rax	# D.21083, D.21088
	movq	(%rax), %rcx	# *_176, D.21089
	movq	img(%rip), %rax	# img, img.34
	movl	36(%rax), %eax	# img.34_178->max_num_references, D.21082
	cltq
	salq	$2, %rax	#, D.21083
	addq	%rcx, %rax	# D.21089, D.21089
	movl	-24(%rbp), %ecx	# search_range, tmp267
	movl	%ecx, (%rax)	# tmp267, *_182
	movl	(%rax), %eax	# *_182, D.21082
	movl	%eax, (%rdx)	# D.21082, *_172
	.loc 1 156 0
	movl	$1, -40(%rbp)	#, i
	jmp	.L34	#
.L35:
	.loc 1 156 0 is_stmt 0 discriminator 2
	movq	max_search_range(%rip), %rax	# max_search_range, max_search_range.35
	movl	-28(%rbp), %edx	# list, tmp268
	movslq	%edx, %rdx	# tmp268, D.21083
	salq	$3, %rdx	#, D.21083
	addq	%rdx, %rax	# D.21083, D.21088
	movq	(%rax), %rax	# *_190, D.21089
	movl	-40(%rbp), %edx	# i, tmp269
	movslq	%edx, %rdx	# tmp269, D.21083
	salq	$2, %rdx	#, D.21083
	addq	%rax, %rdx	# D.21089, D.21089
	movl	-24(%rbp), %eax	# search_range, tmp270
	movl	%eax, %ecx	# tmp270, tmp271
	shrl	$31, %ecx	#, tmp271
	addl	%ecx, %eax	# tmp271, tmp272
	sarl	%eax	# tmp273
	movl	%eax, (%rdx)	# D.21082, *_194
	addl	$1, -40(%rbp)	#, i
.L34:
	.loc 1 156 0 discriminator 1
	movq	img(%rip), %rax	# img, img.36
	movl	36(%rax), %eax	# img.36_185->max_num_references, D.21082
	cmpl	-40(%rbp), %eax	# i, D.21082
	jg	.L35	#,
	.loc 1 153 0 is_stmt 1
	addl	$1, -28(%rbp)	#, list
.L33:
	.loc 1 153 0 is_stmt 0 discriminator 1
	cmpl	$1, -28(%rbp)	#, list
	jle	.L36	#,
.L1:
	.loc 1 160 0 is_stmt 1
	addq	$40, %rsp	#,
	popq	%rbx	#
	popq	%rbp	#
	.cfi_def_cfa 7, 8
	ret
	.cfi_endproc
.LFE2:
	.size	InitializeFastFullIntegerSearch, .-InitializeFastFullIntegerSearch
	.globl	ClearFastFullIntegerSearch
	.type	ClearFastFullIntegerSearch, @function
ClearFastFullIntegerSearch:
.LFB3:
	.loc 1 172 0
	.cfi_startproc
	pushq	%rbp	#
	.cfi_def_cfa_offset 16
	.cfi_offset 6, -16
	movq	%rsp, %rbp	#,
	.cfi_def_cfa_register 6
	subq	$16, %rsp	#,
	.loc 1 175 0
	movl	$0, -4(%rbp)	#, list
	jmp	.L38	#
.L45:
	.loc 1 177 0
	movl	$0, -16(%rbp)	#, i
	jmp	.L39	#
.L44:
	.loc 1 179 0
	movl	$1, -12(%rbp)	#, j
	jmp	.L40	#
.L43:
	.loc 1 181 0
	movl	$0, -8(%rbp)	#, k
	jmp	.L41	#
.L42:
	.loc 1 183 0 discriminator 2
	movq	BlockSAD(%rip), %rax	# BlockSAD, BlockSAD.37
	movl	-4(%rbp), %edx	# list, tmp136
	movslq	%edx, %rdx	# tmp136, D.21097
	salq	$3, %rdx	#, D.21097
	addq	%rdx, %rax	# D.21097, D.21098
	movq	(%rax), %rax	# *_15, D.21099
	movl	-16(%rbp), %edx	# i, tmp137
	movslq	%edx, %rdx	# tmp137, D.21097
	salq	$3, %rdx	#, D.21097
	addq	%rdx, %rax	# D.21097, D.21099
	movq	(%rax), %rax	# *_19, D.21100
	movl	-12(%rbp), %edx	# j, tmp138
	movslq	%edx, %rdx	# tmp138, D.21097
	salq	$3, %rdx	#, D.21097
	addq	%rdx, %rax	# D.21097, D.21100
	movq	(%rax), %rax	# *_23, D.21101
	movl	-8(%rbp), %edx	# k, tmp139
	movslq	%edx, %rdx	# tmp139, D.21097
	salq	$3, %rdx	#, D.21097
	addq	%rdx, %rax	# D.21097, D.21101
	movq	(%rax), %rax	# *_27, D.21102
	movq	%rax, %rdi	# D.21102,
	call	free	#
	.loc 1 181 0 discriminator 2
	addl	$1, -8(%rbp)	#, k
.L41:
	.loc 1 181 0 is_stmt 0 discriminator 1
	cmpl	$15, -8(%rbp)	#, k
	jle	.L42	#,
	.loc 1 185 0 is_stmt 1
	movq	BlockSAD(%rip), %rax	# BlockSAD, BlockSAD.38
	movl	-4(%rbp), %edx	# list, tmp140
	movslq	%edx, %rdx	# tmp140, D.21097
	salq	$3, %rdx	#, D.21097
	addq	%rdx, %rax	# D.21097, D.21098
	movq	(%rax), %rax	# *_33, D.21099
	movl	-16(%rbp), %edx	# i, tmp141
	movslq	%edx, %rdx	# tmp141, D.21097
	salq	$3, %rdx	#, D.21097
	addq	%rdx, %rax	# D.21097, D.21099
	movq	(%rax), %rax	# *_37, D.21100
	movl	-12(%rbp), %edx	# j, tmp142
	movslq	%edx, %rdx	# tmp142, D.21097
	salq	$3, %rdx	#, D.21097
	addq	%rdx, %rax	# D.21097, D.21100
	movq	(%rax), %rax	# *_41, D.21101
	movq	%rax, %rdi	# D.21101,
	call	free	#
	.loc 1 179 0
	addl	$1, -12(%rbp)	#, j
.L40:
	.loc 1 179 0 is_stmt 0 discriminator 1
	cmpl	$7, -12(%rbp)	#, j
	jle	.L43	#,
	.loc 1 187 0 is_stmt 1
	movq	BlockSAD(%rip), %rax	# BlockSAD, BlockSAD.39
	movl	-4(%rbp), %edx	# list, tmp143
	movslq	%edx, %rdx	# tmp143, D.21097
	salq	$3, %rdx	#, D.21097
	addq	%rdx, %rax	# D.21097, D.21098
	movq	(%rax), %rax	# *_47, D.21099
	movl	-16(%rbp), %edx	# i, tmp144
	movslq	%edx, %rdx	# tmp144, D.21097
	salq	$3, %rdx	#, D.21097
	addq	%rdx, %rax	# D.21097, D.21099
	movq	(%rax), %rax	# *_51, D.21100
	movq	%rax, %rdi	# D.21100,
	call	free	#
	.loc 1 177 0
	addl	$1, -16(%rbp)	#, i
.L39:
	.loc 1 177 0 is_stmt 0 discriminator 1
	movq	img(%rip), %rax	# img, img.40
	movl	36(%rax), %eax	# img.40_8->max_num_references, D.21096
	cmpl	-16(%rbp), %eax	# i, D.21096
	jge	.L44	#,
	.loc 1 189 0 is_stmt 1
	movq	BlockSAD(%rip), %rax	# BlockSAD, BlockSAD.41
	movl	-4(%rbp), %edx	# list, tmp145
	movslq	%edx, %rdx	# tmp145, D.21097
	salq	$3, %rdx	#, D.21097
	addq	%rdx, %rax	# D.21097, D.21098
	movq	(%rax), %rax	# *_57, D.21099
	movq	%rax, %rdi	# D.21099,
	call	free	#
	.loc 1 175 0
	addl	$1, -4(%rbp)	#, list
.L38:
	.loc 1 175 0 is_stmt 0 discriminator 1
	cmpl	$1, -4(%rbp)	#, list
	jle	.L45	#,
	.loc 1 191 0 is_stmt 1
	movq	BlockSAD(%rip), %rax	# BlockSAD, BlockSAD.42
	movq	%rax, %rdi	# BlockSAD.42,
	call	free	#
	.loc 1 193 0
	movl	$0, -4(%rbp)	#, list
	jmp	.L46	#
.L47:
	.loc 1 195 0 discriminator 2
	movq	search_setup_done(%rip), %rax	# search_setup_done, search_setup_done.43
	movl	-4(%rbp), %edx	# list, tmp146
	movslq	%edx, %rdx	# tmp146, D.21097
	salq	$3, %rdx	#, D.21097
	addq	%rdx, %rax	# D.21097, D.21101
	movq	(%rax), %rax	# *_65, D.21102
	movq	%rax, %rdi	# D.21102,
	call	free	#
	.loc 1 196 0 discriminator 2
	movq	search_center_x(%rip), %rax	# search_center_x, search_center_x.44
	movl	-4(%rbp), %edx	# list, tmp147
	movslq	%edx, %rdx	# tmp147, D.21097
	salq	$3, %rdx	#, D.21097
	addq	%rdx, %rax	# D.21097, D.21101
	movq	(%rax), %rax	# *_70, D.21102
	movq	%rax, %rdi	# D.21102,
	call	free	#
	.loc 1 197 0 discriminator 2
	movq	search_center_y(%rip), %rax	# search_center_y, search_center_y.45
	movl	-4(%rbp), %edx	# list, tmp148
	movslq	%edx, %rdx	# tmp148, D.21097
	salq	$3, %rdx	#, D.21097
	addq	%rdx, %rax	# D.21097, D.21101
	movq	(%rax), %rax	# *_75, D.21102
	movq	%rax, %rdi	# D.21102,
	call	free	#
	.loc 1 198 0 discriminator 2
	movq	pos_00(%rip), %rax	# pos_00, pos_00.46
	movl	-4(%rbp), %edx	# list, tmp149
	movslq	%edx, %rdx	# tmp149, D.21097
	salq	$3, %rdx	#, D.21097
	addq	%rdx, %rax	# D.21097, D.21101
	movq	(%rax), %rax	# *_80, D.21102
	movq	%rax, %rdi	# D.21102,
	call	free	#
	.loc 1 199 0 discriminator 2
	movq	max_search_range(%rip), %rax	# max_search_range, max_search_range.47
	movl	-4(%rbp), %edx	# list, tmp150
	movslq	%edx, %rdx	# tmp150, D.21097
	salq	$3, %rdx	#, D.21097
	addq	%rdx, %rax	# D.21097, D.21101
	movq	(%rax), %rax	# *_85, D.21102
	movq	%rax, %rdi	# D.21102,
	call	free	#
	.loc 1 193 0 discriminator 2
	addl	$1, -4(%rbp)	#, list
.L46:
	.loc 1 193 0 is_stmt 0 discriminator 1
	cmpl	$1, -4(%rbp)	#, list
	jle	.L47	#,
	.loc 1 201 0 is_stmt 1
	movq	search_setup_done(%rip), %rax	# search_setup_done, search_setup_done.48
	movq	%rax, %rdi	# search_setup_done.48,
	call	free	#
	.loc 1 202 0
	movq	search_center_x(%rip), %rax	# search_center_x, search_center_x.49
	movq	%rax, %rdi	# search_center_x.49,
	call	free	#
	.loc 1 203 0
	movq	search_center_y(%rip), %rax	# search_center_y, search_center_y.50
	movq	%rax, %rdi	# search_center_y.50,
	call	free	#
	.loc 1 204 0
	movq	pos_00(%rip), %rax	# pos_00, pos_00.51
	movq	%rax, %rdi	# pos_00.51,
	call	free	#
	.loc 1 205 0
	movq	max_search_range(%rip), %rax	# max_search_range, max_search_range.52
	movq	%rax, %rdi	# max_search_range.52,
	call	free	#
	.loc 1 207 0
	leave
	.cfi_def_cfa 7, 8
	ret
	.cfi_endproc
.LFE3:
	.size	ClearFastFullIntegerSearch, .-ClearFastFullIntegerSearch
	.globl	ResetFastFullIntegerSearch
	.type	ResetFastFullIntegerSearch, @function
ResetFastFullIntegerSearch:
.LFB4:
	.loc 1 219 0
	.cfi_startproc
	pushq	%rbp	#
	.cfi_def_cfa_offset 16
	.cfi_offset 6, -16
	movq	%rsp, %rbp	#,
	.cfi_def_cfa_register 6
	.loc 1 222 0
	movl	$0, -4(%rbp)	#, list
	jmp	.L49	#
.L52:
	.loc 1 223 0
	movl	$0, -8(%rbp)	#, i
	jmp	.L50	#
.L51:
	.loc 1 224 0 discriminator 2
	movq	search_setup_done(%rip), %rax	# search_setup_done, search_setup_done.53
	movl	-4(%rbp), %edx	# list, tmp69
	movslq	%edx, %rdx	# tmp69, D.21104
	salq	$3, %rdx	#, D.21104
	addq	%rdx, %rax	# D.21104, D.21105
	movq	(%rax), %rax	# *_10, D.21106
	movl	-8(%rbp), %edx	# i, tmp70
	movslq	%edx, %rdx	# tmp70, D.21104
	salq	$2, %rdx	#, D.21104
	addq	%rdx, %rax	# D.21104, D.21106
	movl	$0, (%rax)	#, *_14
	.loc 1 223 0 discriminator 2
	addl	$1, -8(%rbp)	#, i
.L50:
	.loc 1 223 0 is_stmt 0 discriminator 1
	movq	img(%rip), %rax	# img, img.54
	movl	36(%rax), %eax	# img.54_5->max_num_references, D.21103
	cmpl	-8(%rbp), %eax	# i, D.21103
	jge	.L51	#,
	.loc 1 222 0 is_stmt 1
	addl	$1, -4(%rbp)	#, list
.L49:
	.loc 1 222 0 is_stmt 0 discriminator 1
	cmpl	$1, -4(%rbp)	#, list
	jle	.L52	#,
	.loc 1 225 0 is_stmt 1
	popq	%rbp	#
	.cfi_def_cfa 7, 8
	ret
	.cfi_endproc
.LFE4:
	.size	ResetFastFullIntegerSearch, .-ResetFastFullIntegerSearch
	.globl	SetupLargerBlocks
	.type	SetupLargerBlocks, @function
SetupLargerBlocks:
.LFB5:
	.loc 1 235 0
	.cfi_startproc
	pushq	%rbp	#
	.cfi_def_cfa_offset 16
	.cfi_offset 6, -16
	movq	%rsp, %rbp	#,
	.cfi_def_cfa_register 6
	pushq	%r13	#
	pushq	%r12	#
	pushq	%rbx	#
	.cfi_offset 13, -24
	.cfi_offset 12, -32
	.cfi_offset 3, -40
	movl	%edi, -60(%rbp)	# list, list
	movl	%esi, -64(%rbp)	# refindex, refindex
	movl	%edx, -68(%rbp)	# max_pos, max_pos
	.loc 1 243 0
	movq	BlockSAD(%rip), %rax	# BlockSAD, BlockSAD.55
	movl	-60(%rbp), %edx	# list, tmp470
	movslq	%edx, %rdx	# tmp470, D.21107
	salq	$3, %rdx	#, D.21107
	addq	%rdx, %rax	# D.21107, D.21108
	movq	(%rax), %rax	# *_30, D.21109
	movl	-64(%rbp), %edx	# refindex, tmp471
	movslq	%edx, %rdx	# tmp471, D.21107
	salq	$3, %rdx	#, D.21107
	addq	%rdx, %rax	# D.21107, D.21109
	movq	(%rax), %rax	# *_35, D.21110
	movq	48(%rax), %rax	# MEM[(int * * *)_36 + 48B], tmp472
	movq	%rax, -48(%rbp)	# tmp472, _bo
	.loc 1 244 0
	movq	BlockSAD(%rip), %rax	# BlockSAD, BlockSAD.56
	movl	-60(%rbp), %edx	# list, tmp473
	movslq	%edx, %rdx	# tmp473, D.21107
	salq	$3, %rdx	#, D.21107
	addq	%rdx, %rax	# D.21107, D.21108
	movq	(%rax), %rax	# *_41, D.21109
	movl	-64(%rbp), %edx	# refindex, tmp474
	movslq	%edx, %rdx	# tmp474, D.21107
	salq	$3, %rdx	#, D.21107
	addq	%rdx, %rax	# D.21107, D.21109
	movq	(%rax), %rax	# *_45, D.21110
	movq	56(%rax), %rax	# MEM[(int * * *)_46 + 56B], tmp475
	movq	%rax, -40(%rbp)	# tmp475, _bi
	.loc 1 245 0
	movq	-40(%rbp), %rax	# _bi, tmp479
	addq	$32, %rax	#, tmp478
	movq	%rax, -32(%rbp)	# tmp478, _bj
	.loc 1 246 0
	movq	-48(%rbp), %rax	# _bo, tmp480
	movq	(%rax), %rbx	# *_bo_37, _o
	movq	-40(%rbp), %rax	# _bi, tmp481
	movq	(%rax), %r12	# *_bi_47, _i
	movq	-32(%rbp), %rax	# _bj, tmp482
	movq	(%rax), %r13	# *_bj_48, _j
	movl	$0, -52(%rbp)	#, pos
	jmp	.L54	#
.L55:
	.loc 1 246 0 is_stmt 0 discriminator 2
	movl	-52(%rbp), %eax	# pos, tmp483
	cltq
	salq	$2, %rax	#, D.21107
	addq	%rbx, %rax	# _o, D.21111
	movl	-52(%rbp), %edx	# pos, tmp484
	movslq	%edx, %rdx	# tmp484, D.21107
	salq	$2, %rdx	#, D.21107
	addq	%r12, %rdx	# _i, D.21111
	movl	(%rdx), %ecx	# *_59, D.21112
	movl	-52(%rbp), %edx	# pos, tmp485
	movslq	%edx, %rdx	# tmp485, D.21107
	salq	$2, %rdx	#, D.21107
	addq	%r13, %rdx	# _j, D.21111
	movl	(%rdx), %edx	# *_63, D.21112
	addl	%ecx, %edx	# D.21112, D.21112
	movl	%edx, (%rax)	# D.21112, *_56
	addl	$1, -52(%rbp)	#, pos
.L54:
	.loc 1 246 0 discriminator 1
	movl	-52(%rbp), %eax	# pos, tmp486
	cmpl	-68(%rbp), %eax	# max_pos, tmp486
	jl	.L55	#,
	.loc 1 246 0 discriminator 3
	addq	$8, -48(%rbp)	#, _bo
	addq	$8, -40(%rbp)	#, _bi
	addq	$8, -32(%rbp)	#, _bj
	.loc 1 247 0 is_stmt 1 discriminator 3
	movq	-48(%rbp), %rax	# _bo, tmp487
	movq	(%rax), %rbx	# *_bo_67, _o
	movq	-40(%rbp), %rax	# _bi, tmp488
	movq	(%rax), %r12	# *_bi_68, _i
	movq	-32(%rbp), %rax	# _bj, tmp489
	movq	(%rax), %r13	# *_bj_69, _j
	movl	$0, -52(%rbp)	#, pos
	jmp	.L56	#
.L57:
	.loc 1 247 0 is_stmt 0 discriminator 2
	movl	-52(%rbp), %eax	# pos, tmp490
	cltq
	salq	$2, %rax	#, D.21107
	addq	%rbx, %rax	# _o, D.21111
	movl	-52(%rbp), %edx	# pos, tmp491
	movslq	%edx, %rdx	# tmp491, D.21107
	salq	$2, %rdx	#, D.21107
	addq	%r12, %rdx	# _i, D.21111
	movl	(%rdx), %ecx	# *_79, D.21112
	movl	-52(%rbp), %edx	# pos, tmp492
	movslq	%edx, %rdx	# tmp492, D.21107
	salq	$2, %rdx	#, D.21107
	addq	%r13, %rdx	# _j, D.21111
	movl	(%rdx), %edx	# *_83, D.21112
	addl	%ecx, %edx	# D.21112, D.21112
	movl	%edx, (%rax)	# D.21112, *_76
	addl	$1, -52(%rbp)	#, pos
.L56:
	.loc 1 247 0 discriminator 1
	movl	-52(%rbp), %eax	# pos, tmp493
	cmpl	-68(%rbp), %eax	# max_pos, tmp493
	jl	.L57	#,
	.loc 1 247 0 discriminator 3
	addq	$8, -48(%rbp)	#, _bo
	addq	$8, -40(%rbp)	#, _bi
	addq	$8, -32(%rbp)	#, _bj
	.loc 1 248 0 is_stmt 1 discriminator 3
	movq	-48(%rbp), %rax	# _bo, tmp494
	movq	(%rax), %rbx	# *_bo_87, _o
	movq	-40(%rbp), %rax	# _bi, tmp495
	movq	(%rax), %r12	# *_bi_88, _i
	movq	-32(%rbp), %rax	# _bj, tmp496
	movq	(%rax), %r13	# *_bj_89, _j
	movl	$0, -52(%rbp)	#, pos
	jmp	.L58	#
.L59:
	.loc 1 248 0 is_stmt 0 discriminator 2
	movl	-52(%rbp), %eax	# pos, tmp497
	cltq
	salq	$2, %rax	#, D.21107
	addq	%rbx, %rax	# _o, D.21111
	movl	-52(%rbp), %edx	# pos, tmp498
	movslq	%edx, %rdx	# tmp498, D.21107
	salq	$2, %rdx	#, D.21107
	addq	%r12, %rdx	# _i, D.21111
	movl	(%rdx), %ecx	# *_99, D.21112
	movl	-52(%rbp), %edx	# pos, tmp499
	movslq	%edx, %rdx	# tmp499, D.21107
	salq	$2, %rdx	#, D.21107
	addq	%r13, %rdx	# _j, D.21111
	movl	(%rdx), %edx	# *_103, D.21112
	addl	%ecx, %edx	# D.21112, D.21112
	movl	%edx, (%rax)	# D.21112, *_96
	addl	$1, -52(%rbp)	#, pos
.L58:
	.loc 1 248 0 discriminator 1
	movl	-52(%rbp), %eax	# pos, tmp500
	cmpl	-68(%rbp), %eax	# max_pos, tmp500
	jl	.L59	#,
	.loc 1 248 0 discriminator 3
	addq	$8, -48(%rbp)	#, _bo
	addq	$8, -40(%rbp)	#, _bi
	addq	$8, -32(%rbp)	#, _bj
	.loc 1 249 0 is_stmt 1 discriminator 3
	movq	-48(%rbp), %rax	# _bo, tmp501
	movq	(%rax), %rbx	# *_bo_107, _o
	movq	-40(%rbp), %rax	# _bi, tmp502
	movq	(%rax), %r12	# *_bi_108, _i
	movq	-32(%rbp), %rax	# _bj, tmp503
	movq	(%rax), %r13	# *_bj_109, _j
	movl	$0, -52(%rbp)	#, pos
	jmp	.L60	#
.L61:
	.loc 1 249 0 is_stmt 0 discriminator 2
	movl	-52(%rbp), %eax	# pos, tmp504
	cltq
	salq	$2, %rax	#, D.21107
	addq	%rbx, %rax	# _o, D.21111
	movl	-52(%rbp), %edx	# pos, tmp505
	movslq	%edx, %rdx	# tmp505, D.21107
	salq	$2, %rdx	#, D.21107
	addq	%r12, %rdx	# _i, D.21111
	movl	(%rdx), %ecx	# *_119, D.21112
	movl	-52(%rbp), %edx	# pos, tmp506
	movslq	%edx, %rdx	# tmp506, D.21107
	salq	$2, %rdx	#, D.21107
	addq	%r13, %rdx	# _j, D.21111
	movl	(%rdx), %edx	# *_123, D.21112
	addl	%ecx, %edx	# D.21112, D.21112
	movl	%edx, (%rax)	# D.21112, *_116
	addl	$1, -52(%rbp)	#, pos
.L60:
	.loc 1 249 0 discriminator 1
	movl	-52(%rbp), %eax	# pos, tmp507
	cmpl	-68(%rbp), %eax	# max_pos, tmp507
	jl	.L61	#,
	.loc 1 249 0 discriminator 3
	addq	$40, -48(%rbp)	#, _bo
	addq	$40, -40(%rbp)	#, _bi
	addq	$40, -32(%rbp)	#, _bj
	.loc 1 250 0 is_stmt 1 discriminator 3
	movq	-48(%rbp), %rax	# _bo, tmp508
	movq	(%rax), %rbx	# *_bo_127, _o
	movq	-40(%rbp), %rax	# _bi, tmp509
	movq	(%rax), %r12	# *_bi_128, _i
	movq	-32(%rbp), %rax	# _bj, tmp510
	movq	(%rax), %r13	# *_bj_129, _j
	movl	$0, -52(%rbp)	#, pos
	jmp	.L62	#
.L63:
	.loc 1 250 0 is_stmt 0 discriminator 2
	movl	-52(%rbp), %eax	# pos, tmp511
	cltq
	salq	$2, %rax	#, D.21107
	addq	%rbx, %rax	# _o, D.21111
	movl	-52(%rbp), %edx	# pos, tmp512
	movslq	%edx, %rdx	# tmp512, D.21107
	salq	$2, %rdx	#, D.21107
	addq	%r12, %rdx	# _i, D.21111
	movl	(%rdx), %ecx	# *_139, D.21112
	movl	-52(%rbp), %edx	# pos, tmp513
	movslq	%edx, %rdx	# tmp513, D.21107
	salq	$2, %rdx	#, D.21107
	addq	%r13, %rdx	# _j, D.21111
	movl	(%rdx), %edx	# *_143, D.21112
	addl	%ecx, %edx	# D.21112, D.21112
	movl	%edx, (%rax)	# D.21112, *_136
	addl	$1, -52(%rbp)	#, pos
.L62:
	.loc 1 250 0 discriminator 1
	movl	-52(%rbp), %eax	# pos, tmp514
	cmpl	-68(%rbp), %eax	# max_pos, tmp514
	jl	.L63	#,
	.loc 1 250 0 discriminator 3
	addq	$8, -48(%rbp)	#, _bo
	addq	$8, -40(%rbp)	#, _bi
	addq	$8, -32(%rbp)	#, _bj
	.loc 1 251 0 is_stmt 1 discriminator 3
	movq	-48(%rbp), %rax	# _bo, tmp515
	movq	(%rax), %rbx	# *_bo_147, _o
	movq	-40(%rbp), %rax	# _bi, tmp516
	movq	(%rax), %r12	# *_bi_148, _i
	movq	-32(%rbp), %rax	# _bj, tmp517
	movq	(%rax), %r13	# *_bj_149, _j
	movl	$0, -52(%rbp)	#, pos
	jmp	.L64	#
.L65:
	.loc 1 251 0 is_stmt 0 discriminator 2
	movl	-52(%rbp), %eax	# pos, tmp518
	cltq
	salq	$2, %rax	#, D.21107
	addq	%rbx, %rax	# _o, D.21111
	movl	-52(%rbp), %edx	# pos, tmp519
	movslq	%edx, %rdx	# tmp519, D.21107
	salq	$2, %rdx	#, D.21107
	addq	%r12, %rdx	# _i, D.21111
	movl	(%rdx), %ecx	# *_159, D.21112
	movl	-52(%rbp), %edx	# pos, tmp520
	movslq	%edx, %rdx	# tmp520, D.21107
	salq	$2, %rdx	#, D.21107
	addq	%r13, %rdx	# _j, D.21111
	movl	(%rdx), %edx	# *_163, D.21112
	addl	%ecx, %edx	# D.21112, D.21112
	movl	%edx, (%rax)	# D.21112, *_156
	addl	$1, -52(%rbp)	#, pos
.L64:
	.loc 1 251 0 discriminator 1
	movl	-52(%rbp), %eax	# pos, tmp521
	cmpl	-68(%rbp), %eax	# max_pos, tmp521
	jl	.L65	#,
	.loc 1 251 0 discriminator 3
	addq	$8, -48(%rbp)	#, _bo
	addq	$8, -40(%rbp)	#, _bi
	addq	$8, -32(%rbp)	#, _bj
	.loc 1 252 0 is_stmt 1 discriminator 3
	movq	-48(%rbp), %rax	# _bo, tmp522
	movq	(%rax), %rbx	# *_bo_167, _o
	movq	-40(%rbp), %rax	# _bi, tmp523
	movq	(%rax), %r12	# *_bi_168, _i
	movq	-32(%rbp), %rax	# _bj, tmp524
	movq	(%rax), %r13	# *_bj_169, _j
	movl	$0, -52(%rbp)	#, pos
	jmp	.L66	#
.L67:
	.loc 1 252 0 is_stmt 0 discriminator 2
	movl	-52(%rbp), %eax	# pos, tmp525
	cltq
	salq	$2, %rax	#, D.21107
	addq	%rbx, %rax	# _o, D.21111
	movl	-52(%rbp), %edx	# pos, tmp526
	movslq	%edx, %rdx	# tmp526, D.21107
	salq	$2, %rdx	#, D.21107
	addq	%r12, %rdx	# _i, D.21111
	movl	(%rdx), %ecx	# *_179, D.21112
	movl	-52(%rbp), %edx	# pos, tmp527
	movslq	%edx, %rdx	# tmp527, D.21107
	salq	$2, %rdx	#, D.21107
	addq	%r13, %rdx	# _j, D.21111
	movl	(%rdx), %edx	# *_183, D.21112
	addl	%ecx, %edx	# D.21112, D.21112
	movl	%edx, (%rax)	# D.21112, *_176
	addl	$1, -52(%rbp)	#, pos
.L66:
	.loc 1 252 0 discriminator 1
	movl	-52(%rbp), %eax	# pos, tmp528
	cmpl	-68(%rbp), %eax	# max_pos, tmp528
	jl	.L67	#,
	.loc 1 252 0 discriminator 3
	addq	$8, -48(%rbp)	#, _bo
	addq	$8, -40(%rbp)	#, _bi
	addq	$8, -32(%rbp)	#, _bj
	.loc 1 253 0 is_stmt 1 discriminator 3
	movq	-48(%rbp), %rax	# _bo, tmp529
	movq	(%rax), %rbx	# *_bo_187, _o
	movq	-40(%rbp), %rax	# _bi, tmp530
	movq	(%rax), %r12	# *_bi_188, _i
	movq	-32(%rbp), %rax	# _bj, tmp531
	movq	(%rax), %r13	# *_bj_189, _j
	movl	$0, -52(%rbp)	#, pos
	jmp	.L68	#
.L69:
	.loc 1 253 0 is_stmt 0 discriminator 2
	movl	-52(%rbp), %eax	# pos, tmp532
	cltq
	salq	$2, %rax	#, D.21107
	addq	%rbx, %rax	# _o, D.21111
	movl	-52(%rbp), %edx	# pos, tmp533
	movslq	%edx, %rdx	# tmp533, D.21107
	salq	$2, %rdx	#, D.21107
	addq	%r12, %rdx	# _i, D.21111
	movl	(%rdx), %ecx	# *_199, D.21112
	movl	-52(%rbp), %edx	# pos, tmp534
	movslq	%edx, %rdx	# tmp534, D.21107
	salq	$2, %rdx	#, D.21107
	addq	%r13, %rdx	# _j, D.21111
	movl	(%rdx), %edx	# *_203, D.21112
	addl	%ecx, %edx	# D.21112, D.21112
	movl	%edx, (%rax)	# D.21112, *_196
	addl	$1, -52(%rbp)	#, pos
.L68:
	.loc 1 253 0 discriminator 1
	movl	-52(%rbp), %eax	# pos, tmp535
	cmpl	-68(%rbp), %eax	# max_pos, tmp535
	jl	.L69	#,
	.loc 1 256 0 is_stmt 1
	movq	BlockSAD(%rip), %rax	# BlockSAD, BlockSAD.57
	movl	-60(%rbp), %edx	# list, tmp536
	movslq	%edx, %rdx	# tmp536, D.21107
	salq	$3, %rdx	#, D.21107
	addq	%rdx, %rax	# D.21107, D.21108
	movq	(%rax), %rax	# *_210, D.21109
	movl	-64(%rbp), %edx	# refindex, tmp537
	movslq	%edx, %rdx	# tmp537, D.21107
	salq	$3, %rdx	#, D.21107
	addq	%rdx, %rax	# D.21107, D.21109
	movq	(%rax), %rax	# *_214, D.21110
	movq	40(%rax), %rax	# MEM[(int * * *)_215 + 40B], tmp538
	movq	%rax, -48(%rbp)	# tmp538, _bo
	.loc 1 257 0
	movq	BlockSAD(%rip), %rax	# BlockSAD, BlockSAD.58
	movl	-60(%rbp), %edx	# list, tmp539
	movslq	%edx, %rdx	# tmp539, D.21107
	salq	$3, %rdx	#, D.21107
	addq	%rdx, %rax	# D.21107, D.21108
	movq	(%rax), %rax	# *_220, D.21109
	movl	-64(%rbp), %edx	# refindex, tmp540
	movslq	%edx, %rdx	# tmp540, D.21107
	salq	$3, %rdx	#, D.21107
	addq	%rdx, %rax	# D.21107, D.21109
	movq	(%rax), %rax	# *_224, D.21110
	movq	56(%rax), %rax	# MEM[(int * * *)_225 + 56B], tmp541
	movq	%rax, -40(%rbp)	# tmp541, _bi
	.loc 1 258 0
	movq	-40(%rbp), %rax	# _bi, tmp545
	addq	$8, %rax	#, tmp544
	movq	%rax, -32(%rbp)	# tmp544, _bj
	.loc 1 259 0
	movq	-48(%rbp), %rax	# _bo, tmp546
	movq	(%rax), %rbx	# *_bo_216, _o
	movq	-40(%rbp), %rax	# _bi, tmp547
	movq	(%rax), %r12	# *_bi_226, _i
	movq	-32(%rbp), %rax	# _bj, tmp548
	movq	(%rax), %r13	# *_bj_227, _j
	movl	$0, -52(%rbp)	#, pos
	jmp	.L70	#
.L71:
	.loc 1 259 0 is_stmt 0 discriminator 2
	movl	-52(%rbp), %eax	# pos, tmp549
	cltq
	salq	$2, %rax	#, D.21107
	addq	%rbx, %rax	# _o, D.21111
	movl	-52(%rbp), %edx	# pos, tmp550
	movslq	%edx, %rdx	# tmp550, D.21107
	salq	$2, %rdx	#, D.21107
	addq	%r12, %rdx	# _i, D.21111
	movl	(%rdx), %ecx	# *_237, D.21112
	movl	-52(%rbp), %edx	# pos, tmp551
	movslq	%edx, %rdx	# tmp551, D.21107
	salq	$2, %rdx	#, D.21107
	addq	%r13, %rdx	# _j, D.21111
	movl	(%rdx), %edx	# *_241, D.21112
	addl	%ecx, %edx	# D.21112, D.21112
	movl	%edx, (%rax)	# D.21112, *_234
	addl	$1, -52(%rbp)	#, pos
.L70:
	.loc 1 259 0 discriminator 1
	movl	-52(%rbp), %eax	# pos, tmp552
	cmpl	-68(%rbp), %eax	# max_pos, tmp552
	jl	.L71	#,
	.loc 1 259 0 discriminator 3
	addq	$16, -48(%rbp)	#, _bo
	addq	$16, -40(%rbp)	#, _bi
	addq	$16, -32(%rbp)	#, _bj
	.loc 1 260 0 is_stmt 1 discriminator 3
	movq	-48(%rbp), %rax	# _bo, tmp553
	movq	(%rax), %rbx	# *_bo_245, _o
	movq	-40(%rbp), %rax	# _bi, tmp554
	movq	(%rax), %r12	# *_bi_246, _i
	movq	-32(%rbp), %rax	# _bj, tmp555
	movq	(%rax), %r13	# *_bj_247, _j
	movl	$0, -52(%rbp)	#, pos
	jmp	.L72	#
.L73:
	.loc 1 260 0 is_stmt 0 discriminator 2
	movl	-52(%rbp), %eax	# pos, tmp556
	cltq
	salq	$2, %rax	#, D.21107
	addq	%rbx, %rax	# _o, D.21111
	movl	-52(%rbp), %edx	# pos, tmp557
	movslq	%edx, %rdx	# tmp557, D.21107
	salq	$2, %rdx	#, D.21107
	addq	%r12, %rdx	# _i, D.21111
	movl	(%rdx), %ecx	# *_257, D.21112
	movl	-52(%rbp), %edx	# pos, tmp558
	movslq	%edx, %rdx	# tmp558, D.21107
	salq	$2, %rdx	#, D.21107
	addq	%r13, %rdx	# _j, D.21111
	movl	(%rdx), %edx	# *_261, D.21112
	addl	%ecx, %edx	# D.21112, D.21112
	movl	%edx, (%rax)	# D.21112, *_254
	addl	$1, -52(%rbp)	#, pos
.L72:
	.loc 1 260 0 discriminator 1
	movl	-52(%rbp), %eax	# pos, tmp559
	cmpl	-68(%rbp), %eax	# max_pos, tmp559
	jl	.L73	#,
	.loc 1 260 0 discriminator 3
	addq	$16, -48(%rbp)	#, _bo
	addq	$16, -40(%rbp)	#, _bi
	addq	$16, -32(%rbp)	#, _bj
	.loc 1 261 0 is_stmt 1 discriminator 3
	movq	-48(%rbp), %rax	# _bo, tmp560
	movq	(%rax), %rbx	# *_bo_265, _o
	movq	-40(%rbp), %rax	# _bi, tmp561
	movq	(%rax), %r12	# *_bi_266, _i
	movq	-32(%rbp), %rax	# _bj, tmp562
	movq	(%rax), %r13	# *_bj_267, _j
	movl	$0, -52(%rbp)	#, pos
	jmp	.L74	#
.L75:
	.loc 1 261 0 is_stmt 0 discriminator 2
	movl	-52(%rbp), %eax	# pos, tmp563
	cltq
	salq	$2, %rax	#, D.21107
	addq	%rbx, %rax	# _o, D.21111
	movl	-52(%rbp), %edx	# pos, tmp564
	movslq	%edx, %rdx	# tmp564, D.21107
	salq	$2, %rdx	#, D.21107
	addq	%r12, %rdx	# _i, D.21111
	movl	(%rdx), %ecx	# *_277, D.21112
	movl	-52(%rbp), %edx	# pos, tmp565
	movslq	%edx, %rdx	# tmp565, D.21107
	salq	$2, %rdx	#, D.21107
	addq	%r13, %rdx	# _j, D.21111
	movl	(%rdx), %edx	# *_281, D.21112
	addl	%ecx, %edx	# D.21112, D.21112
	movl	%edx, (%rax)	# D.21112, *_274
	addl	$1, -52(%rbp)	#, pos
.L74:
	.loc 1 261 0 discriminator 1
	movl	-52(%rbp), %eax	# pos, tmp566
	cmpl	-68(%rbp), %eax	# max_pos, tmp566
	jl	.L75	#,
	.loc 1 261 0 discriminator 3
	addq	$16, -48(%rbp)	#, _bo
	addq	$16, -40(%rbp)	#, _bi
	addq	$16, -32(%rbp)	#, _bj
	.loc 1 262 0 is_stmt 1 discriminator 3
	movq	-48(%rbp), %rax	# _bo, tmp567
	movq	(%rax), %rbx	# *_bo_285, _o
	movq	-40(%rbp), %rax	# _bi, tmp568
	movq	(%rax), %r12	# *_bi_286, _i
	movq	-32(%rbp), %rax	# _bj, tmp569
	movq	(%rax), %r13	# *_bj_287, _j
	movl	$0, -52(%rbp)	#, pos
	jmp	.L76	#
.L77:
	.loc 1 262 0 is_stmt 0 discriminator 2
	movl	-52(%rbp), %eax	# pos, tmp570
	cltq
	salq	$2, %rax	#, D.21107
	addq	%rbx, %rax	# _o, D.21111
	movl	-52(%rbp), %edx	# pos, tmp571
	movslq	%edx, %rdx	# tmp571, D.21107
	salq	$2, %rdx	#, D.21107
	addq	%r12, %rdx	# _i, D.21111
	movl	(%rdx), %ecx	# *_297, D.21112
	movl	-52(%rbp), %edx	# pos, tmp572
	movslq	%edx, %rdx	# tmp572, D.21107
	salq	$2, %rdx	#, D.21107
	addq	%r13, %rdx	# _j, D.21111
	movl	(%rdx), %edx	# *_301, D.21112
	addl	%ecx, %edx	# D.21112, D.21112
	movl	%edx, (%rax)	# D.21112, *_294
	addl	$1, -52(%rbp)	#, pos
.L76:
	.loc 1 262 0 discriminator 1
	movl	-52(%rbp), %eax	# pos, tmp573
	cmpl	-68(%rbp), %eax	# max_pos, tmp573
	jl	.L77	#,
	.loc 1 262 0 discriminator 3
	addq	$16, -48(%rbp)	#, _bo
	addq	$16, -40(%rbp)	#, _bi
	addq	$16, -32(%rbp)	#, _bj
	.loc 1 263 0 is_stmt 1 discriminator 3
	movq	-48(%rbp), %rax	# _bo, tmp574
	movq	(%rax), %rbx	# *_bo_305, _o
	movq	-40(%rbp), %rax	# _bi, tmp575
	movq	(%rax), %r12	# *_bi_306, _i
	movq	-32(%rbp), %rax	# _bj, tmp576
	movq	(%rax), %r13	# *_bj_307, _j
	movl	$0, -52(%rbp)	#, pos
	jmp	.L78	#
.L79:
	.loc 1 263 0 is_stmt 0 discriminator 2
	movl	-52(%rbp), %eax	# pos, tmp577
	cltq
	salq	$2, %rax	#, D.21107
	addq	%rbx, %rax	# _o, D.21111
	movl	-52(%rbp), %edx	# pos, tmp578
	movslq	%edx, %rdx	# tmp578, D.21107
	salq	$2, %rdx	#, D.21107
	addq	%r12, %rdx	# _i, D.21111
	movl	(%rdx), %ecx	# *_317, D.21112
	movl	-52(%rbp), %edx	# pos, tmp579
	movslq	%edx, %rdx	# tmp579, D.21107
	salq	$2, %rdx	#, D.21107
	addq	%r13, %rdx	# _j, D.21111
	movl	(%rdx), %edx	# *_321, D.21112
	addl	%ecx, %edx	# D.21112, D.21112
	movl	%edx, (%rax)	# D.21112, *_314
	addl	$1, -52(%rbp)	#, pos
.L78:
	.loc 1 263 0 discriminator 1
	movl	-52(%rbp), %eax	# pos, tmp580
	cmpl	-68(%rbp), %eax	# max_pos, tmp580
	jl	.L79	#,
	.loc 1 263 0 discriminator 3
	addq	$16, -48(%rbp)	#, _bo
	addq	$16, -40(%rbp)	#, _bi
	addq	$16, -32(%rbp)	#, _bj
	.loc 1 264 0 is_stmt 1 discriminator 3
	movq	-48(%rbp), %rax	# _bo, tmp581
	movq	(%rax), %rbx	# *_bo_325, _o
	movq	-40(%rbp), %rax	# _bi, tmp582
	movq	(%rax), %r12	# *_bi_326, _i
	movq	-32(%rbp), %rax	# _bj, tmp583
	movq	(%rax), %r13	# *_bj_327, _j
	movl	$0, -52(%rbp)	#, pos
	jmp	.L80	#
.L81:
	.loc 1 264 0 is_stmt 0 discriminator 2
	movl	-52(%rbp), %eax	# pos, tmp584
	cltq
	salq	$2, %rax	#, D.21107
	addq	%rbx, %rax	# _o, D.21111
	movl	-52(%rbp), %edx	# pos, tmp585
	movslq	%edx, %rdx	# tmp585, D.21107
	salq	$2, %rdx	#, D.21107
	addq	%r12, %rdx	# _i, D.21111
	movl	(%rdx), %ecx	# *_337, D.21112
	movl	-52(%rbp), %edx	# pos, tmp586
	movslq	%edx, %rdx	# tmp586, D.21107
	salq	$2, %rdx	#, D.21107
	addq	%r13, %rdx	# _j, D.21111
	movl	(%rdx), %edx	# *_341, D.21112
	addl	%ecx, %edx	# D.21112, D.21112
	movl	%edx, (%rax)	# D.21112, *_334
	addl	$1, -52(%rbp)	#, pos
.L80:
	.loc 1 264 0 discriminator 1
	movl	-52(%rbp), %eax	# pos, tmp587
	cmpl	-68(%rbp), %eax	# max_pos, tmp587
	jl	.L81	#,
	.loc 1 264 0 discriminator 3
	addq	$16, -48(%rbp)	#, _bo
	addq	$16, -40(%rbp)	#, _bi
	addq	$16, -32(%rbp)	#, _bj
	.loc 1 265 0 is_stmt 1 discriminator 3
	movq	-48(%rbp), %rax	# _bo, tmp588
	movq	(%rax), %rbx	# *_bo_345, _o
	movq	-40(%rbp), %rax	# _bi, tmp589
	movq	(%rax), %r12	# *_bi_346, _i
	movq	-32(%rbp), %rax	# _bj, tmp590
	movq	(%rax), %r13	# *_bj_347, _j
	movl	$0, -52(%rbp)	#, pos
	jmp	.L82	#
.L83:
	.loc 1 265 0 is_stmt 0 discriminator 2
	movl	-52(%rbp), %eax	# pos, tmp591
	cltq
	salq	$2, %rax	#, D.21107
	addq	%rbx, %rax	# _o, D.21111
	movl	-52(%rbp), %edx	# pos, tmp592
	movslq	%edx, %rdx	# tmp592, D.21107
	salq	$2, %rdx	#, D.21107
	addq	%r12, %rdx	# _i, D.21111
	movl	(%rdx), %ecx	# *_357, D.21112
	movl	-52(%rbp), %edx	# pos, tmp593
	movslq	%edx, %rdx	# tmp593, D.21107
	salq	$2, %rdx	#, D.21107
	addq	%r13, %rdx	# _j, D.21111
	movl	(%rdx), %edx	# *_361, D.21112
	addl	%ecx, %edx	# D.21112, D.21112
	movl	%edx, (%rax)	# D.21112, *_354
	addl	$1, -52(%rbp)	#, pos
.L82:
	.loc 1 265 0 discriminator 1
	movl	-52(%rbp), %eax	# pos, tmp594
	cmpl	-68(%rbp), %eax	# max_pos, tmp594
	jl	.L83	#,
	.loc 1 265 0 discriminator 3
	addq	$16, -48(%rbp)	#, _bo
	addq	$16, -40(%rbp)	#, _bi
	addq	$16, -32(%rbp)	#, _bj
	.loc 1 266 0 is_stmt 1 discriminator 3
	movq	-48(%rbp), %rax	# _bo, tmp595
	movq	(%rax), %rbx	# *_bo_365, _o
	movq	-40(%rbp), %rax	# _bi, tmp596
	movq	(%rax), %r12	# *_bi_366, _i
	movq	-32(%rbp), %rax	# _bj, tmp597
	movq	(%rax), %r13	# *_bj_367, _j
	movl	$0, -52(%rbp)	#, pos
	jmp	.L84	#
.L85:
	.loc 1 266 0 is_stmt 0 discriminator 2
	movl	-52(%rbp), %eax	# pos, tmp598
	cltq
	salq	$2, %rax	#, D.21107
	addq	%rbx, %rax	# _o, D.21111
	movl	-52(%rbp), %edx	# pos, tmp599
	movslq	%edx, %rdx	# tmp599, D.21107
	salq	$2, %rdx	#, D.21107
	addq	%r12, %rdx	# _i, D.21111
	movl	(%rdx), %ecx	# *_377, D.21112
	movl	-52(%rbp), %edx	# pos, tmp600
	movslq	%edx, %rdx	# tmp600, D.21107
	salq	$2, %rdx	#, D.21107
	addq	%r13, %rdx	# _j, D.21111
	movl	(%rdx), %edx	# *_381, D.21112
	addl	%ecx, %edx	# D.21112, D.21112
	movl	%edx, (%rax)	# D.21112, *_374
	addl	$1, -52(%rbp)	#, pos
.L84:
	.loc 1 266 0 discriminator 1
	movl	-52(%rbp), %eax	# pos, tmp601
	cmpl	-68(%rbp), %eax	# max_pos, tmp601
	jl	.L85	#,
	.loc 1 269 0 is_stmt 1
	movq	BlockSAD(%rip), %rax	# BlockSAD, BlockSAD.59
	movl	-60(%rbp), %edx	# list, tmp602
	movslq	%edx, %rdx	# tmp602, D.21107
	salq	$3, %rdx	#, D.21107
	addq	%rdx, %rax	# D.21107, D.21108
	movq	(%rax), %rax	# *_388, D.21109
	movl	-64(%rbp), %edx	# refindex, tmp603
	movslq	%edx, %rdx	# tmp603, D.21107
	salq	$3, %rdx	#, D.21107
	addq	%rdx, %rax	# D.21107, D.21109
	movq	(%rax), %rax	# *_392, D.21110
	movq	32(%rax), %rax	# MEM[(int * * *)_393 + 32B], tmp604
	movq	%rax, -48(%rbp)	# tmp604, _bo
	.loc 1 270 0
	movq	BlockSAD(%rip), %rax	# BlockSAD, BlockSAD.60
	movl	-60(%rbp), %edx	# list, tmp605
	movslq	%edx, %rdx	# tmp605, D.21107
	salq	$3, %rdx	#, D.21107
	addq	%rdx, %rax	# D.21107, D.21108
	movq	(%rax), %rax	# *_398, D.21109
	movl	-64(%rbp), %edx	# refindex, tmp606
	movslq	%edx, %rdx	# tmp606, D.21107
	salq	$3, %rdx	#, D.21107
	addq	%rdx, %rax	# D.21107, D.21109
	movq	(%rax), %rax	# *_402, D.21110
	movq	48(%rax), %rax	# MEM[(int * * *)_403 + 48B], tmp607
	movq	%rax, -40(%rbp)	# tmp607, _bi
	.loc 1 271 0
	movq	-40(%rbp), %rax	# _bi, tmp611
	addq	$8, %rax	#, tmp610
	movq	%rax, -32(%rbp)	# tmp610, _bj
	.loc 1 272 0
	movq	-48(%rbp), %rax	# _bo, tmp612
	movq	(%rax), %rbx	# *_bo_394, _o
	movq	-40(%rbp), %rax	# _bi, tmp613
	movq	(%rax), %r12	# *_bi_404, _i
	movq	-32(%rbp), %rax	# _bj, tmp614
	movq	(%rax), %r13	# *_bj_405, _j
	movl	$0, -52(%rbp)	#, pos
	jmp	.L86	#
.L87:
	.loc 1 272 0 is_stmt 0 discriminator 2
	movl	-52(%rbp), %eax	# pos, tmp615
	cltq
	salq	$2, %rax	#, D.21107
	addq	%rbx, %rax	# _o, D.21111
	movl	-52(%rbp), %edx	# pos, tmp616
	movslq	%edx, %rdx	# tmp616, D.21107
	salq	$2, %rdx	#, D.21107
	addq	%r12, %rdx	# _i, D.21111
	movl	(%rdx), %ecx	# *_415, D.21112
	movl	-52(%rbp), %edx	# pos, tmp617
	movslq	%edx, %rdx	# tmp617, D.21107
	salq	$2, %rdx	#, D.21107
	addq	%r13, %rdx	# _j, D.21111
	movl	(%rdx), %edx	# *_419, D.21112
	addl	%ecx, %edx	# D.21112, D.21112
	movl	%edx, (%rax)	# D.21112, *_412
	addl	$1, -52(%rbp)	#, pos
.L86:
	.loc 1 272 0 discriminator 1
	movl	-52(%rbp), %eax	# pos, tmp618
	cmpl	-68(%rbp), %eax	# max_pos, tmp618
	jl	.L87	#,
	.loc 1 272 0 discriminator 3
	addq	$16, -48(%rbp)	#, _bo
	addq	$16, -40(%rbp)	#, _bi
	addq	$16, -32(%rbp)	#, _bj
	.loc 1 273 0 is_stmt 1 discriminator 3
	movq	-48(%rbp), %rax	# _bo, tmp619
	movq	(%rax), %rbx	# *_bo_423, _o
	movq	-40(%rbp), %rax	# _bi, tmp620
	movq	(%rax), %r12	# *_bi_424, _i
	movq	-32(%rbp), %rax	# _bj, tmp621
	movq	(%rax), %r13	# *_bj_425, _j
	movl	$0, -52(%rbp)	#, pos
	jmp	.L88	#
.L89:
	.loc 1 273 0 is_stmt 0 discriminator 2
	movl	-52(%rbp), %eax	# pos, tmp622
	cltq
	salq	$2, %rax	#, D.21107
	addq	%rbx, %rax	# _o, D.21111
	movl	-52(%rbp), %edx	# pos, tmp623
	movslq	%edx, %rdx	# tmp623, D.21107
	salq	$2, %rdx	#, D.21107
	addq	%r12, %rdx	# _i, D.21111
	movl	(%rdx), %ecx	# *_435, D.21112
	movl	-52(%rbp), %edx	# pos, tmp624
	movslq	%edx, %rdx	# tmp624, D.21107
	salq	$2, %rdx	#, D.21107
	addq	%r13, %rdx	# _j, D.21111
	movl	(%rdx), %edx	# *_439, D.21112
	addl	%ecx, %edx	# D.21112, D.21112
	movl	%edx, (%rax)	# D.21112, *_432
	addl	$1, -52(%rbp)	#, pos
.L88:
	.loc 1 273 0 discriminator 1
	movl	-52(%rbp), %eax	# pos, tmp625
	cmpl	-68(%rbp), %eax	# max_pos, tmp625
	jl	.L89	#,
	.loc 1 273 0 discriminator 3
	addq	$48, -48(%rbp)	#, _bo
	addq	$48, -40(%rbp)	#, _bi
	addq	$48, -32(%rbp)	#, _bj
	.loc 1 274 0 is_stmt 1 discriminator 3
	movq	-48(%rbp), %rax	# _bo, tmp626
	movq	(%rax), %rbx	# *_bo_443, _o
	movq	-40(%rbp), %rax	# _bi, tmp627
	movq	(%rax), %r12	# *_bi_444, _i
	movq	-32(%rbp), %rax	# _bj, tmp628
	movq	(%rax), %r13	# *_bj_445, _j
	movl	$0, -52(%rbp)	#, pos
	jmp	.L90	#
.L91:
	.loc 1 274 0 is_stmt 0 discriminator 2
	movl	-52(%rbp), %eax	# pos, tmp629
	cltq
	salq	$2, %rax	#, D.21107
	addq	%rbx, %rax	# _o, D.21111
	movl	-52(%rbp), %edx	# pos, tmp630
	movslq	%edx, %rdx	# tmp630, D.21107
	salq	$2, %rdx	#, D.21107
	addq	%r12, %rdx	# _i, D.21111
	movl	(%rdx), %ecx	# *_455, D.21112
	movl	-52(%rbp), %edx	# pos, tmp631
	movslq	%edx, %rdx	# tmp631, D.21107
	salq	$2, %rdx	#, D.21107
	addq	%r13, %rdx	# _j, D.21111
	movl	(%rdx), %edx	# *_459, D.21112
	addl	%ecx, %edx	# D.21112, D.21112
	movl	%edx, (%rax)	# D.21112, *_452
	addl	$1, -52(%rbp)	#, pos
.L90:
	.loc 1 274 0 discriminator 1
	movl	-52(%rbp), %eax	# pos, tmp632
	cmpl	-68(%rbp), %eax	# max_pos, tmp632
	jl	.L91	#,
	.loc 1 274 0 discriminator 3
	addq	$16, -48(%rbp)	#, _bo
	addq	$16, -40(%rbp)	#, _bi
	addq	$16, -32(%rbp)	#, _bj
	.loc 1 275 0 is_stmt 1 discriminator 3
	movq	-48(%rbp), %rax	# _bo, tmp633
	movq	(%rax), %rbx	# *_bo_463, _o
	movq	-40(%rbp), %rax	# _bi, tmp634
	movq	(%rax), %r12	# *_bi_464, _i
	movq	-32(%rbp), %rax	# _bj, tmp635
	movq	(%rax), %r13	# *_bj_465, _j
	movl	$0, -52(%rbp)	#, pos
	jmp	.L92	#
.L93:
	.loc 1 275 0 is_stmt 0 discriminator 2
	movl	-52(%rbp), %eax	# pos, tmp636
	cltq
	salq	$2, %rax	#, D.21107
	addq	%rbx, %rax	# _o, D.21111
	movl	-52(%rbp), %edx	# pos, tmp637
	movslq	%edx, %rdx	# tmp637, D.21107
	salq	$2, %rdx	#, D.21107
	addq	%r12, %rdx	# _i, D.21111
	movl	(%rdx), %ecx	# *_475, D.21112
	movl	-52(%rbp), %edx	# pos, tmp638
	movslq	%edx, %rdx	# tmp638, D.21107
	salq	$2, %rdx	#, D.21107
	addq	%r13, %rdx	# _j, D.21111
	movl	(%rdx), %edx	# *_479, D.21112
	addl	%ecx, %edx	# D.21112, D.21112
	movl	%edx, (%rax)	# D.21112, *_472
	addl	$1, -52(%rbp)	#, pos
.L92:
	.loc 1 275 0 discriminator 1
	movl	-52(%rbp), %eax	# pos, tmp639
	cmpl	-68(%rbp), %eax	# max_pos, tmp639
	jl	.L93	#,
	.loc 1 278 0 is_stmt 1
	movq	BlockSAD(%rip), %rax	# BlockSAD, BlockSAD.61
	movl	-60(%rbp), %edx	# list, tmp640
	movslq	%edx, %rdx	# tmp640, D.21107
	salq	$3, %rdx	#, D.21107
	addq	%rdx, %rax	# D.21107, D.21108
	movq	(%rax), %rax	# *_486, D.21109
	movl	-64(%rbp), %edx	# refindex, tmp641
	movslq	%edx, %rdx	# tmp641, D.21107
	salq	$3, %rdx	#, D.21107
	addq	%rdx, %rax	# D.21107, D.21109
	movq	(%rax), %rax	# *_490, D.21110
	movq	24(%rax), %rax	# MEM[(int * * *)_491 + 24B], tmp642
	movq	%rax, -48(%rbp)	# tmp642, _bo
	.loc 1 279 0
	movq	BlockSAD(%rip), %rax	# BlockSAD, BlockSAD.62
	movl	-60(%rbp), %edx	# list, tmp643
	movslq	%edx, %rdx	# tmp643, D.21107
	salq	$3, %rdx	#, D.21107
	addq	%rdx, %rax	# D.21107, D.21108
	movq	(%rax), %rax	# *_496, D.21109
	movl	-64(%rbp), %edx	# refindex, tmp644
	movslq	%edx, %rdx	# tmp644, D.21107
	salq	$3, %rdx	#, D.21107
	addq	%rdx, %rax	# D.21107, D.21109
	movq	(%rax), %rax	# *_500, D.21110
	movq	32(%rax), %rax	# MEM[(int * * *)_501 + 32B], tmp645
	movq	%rax, -40(%rbp)	# tmp645, _bi
	.loc 1 280 0
	movq	-40(%rbp), %rax	# _bi, tmp649
	addq	$64, %rax	#, tmp648
	movq	%rax, -32(%rbp)	# tmp648, _bj
	.loc 1 281 0
	movq	-48(%rbp), %rax	# _bo, tmp650
	movq	(%rax), %rbx	# *_bo_492, _o
	movq	-40(%rbp), %rax	# _bi, tmp651
	movq	(%rax), %r12	# *_bi_502, _i
	movq	-32(%rbp), %rax	# _bj, tmp652
	movq	(%rax), %r13	# *_bj_503, _j
	movl	$0, -52(%rbp)	#, pos
	jmp	.L94	#
.L95:
	.loc 1 281 0 is_stmt 0 discriminator 2
	movl	-52(%rbp), %eax	# pos, tmp653
	cltq
	salq	$2, %rax	#, D.21107
	addq	%rbx, %rax	# _o, D.21111
	movl	-52(%rbp), %edx	# pos, tmp654
	movslq	%edx, %rdx	# tmp654, D.21107
	salq	$2, %rdx	#, D.21107
	addq	%r12, %rdx	# _i, D.21111
	movl	(%rdx), %ecx	# *_513, D.21112
	movl	-52(%rbp), %edx	# pos, tmp655
	movslq	%edx, %rdx	# tmp655, D.21107
	salq	$2, %rdx	#, D.21107
	addq	%r13, %rdx	# _j, D.21111
	movl	(%rdx), %edx	# *_517, D.21112
	addl	%ecx, %edx	# D.21112, D.21112
	movl	%edx, (%rax)	# D.21112, *_510
	addl	$1, -52(%rbp)	#, pos
.L94:
	.loc 1 281 0 discriminator 1
	movl	-52(%rbp), %eax	# pos, tmp656
	cmpl	-68(%rbp), %eax	# max_pos, tmp656
	jl	.L95	#,
	.loc 1 281 0 discriminator 3
	addq	$16, -48(%rbp)	#, _bo
	addq	$16, -40(%rbp)	#, _bi
	addq	$16, -32(%rbp)	#, _bj
	.loc 1 282 0 is_stmt 1 discriminator 3
	movq	-48(%rbp), %rax	# _bo, tmp657
	movq	(%rax), %rbx	# *_bo_521, _o
	movq	-40(%rbp), %rax	# _bi, tmp658
	movq	(%rax), %r12	# *_bi_522, _i
	movq	-32(%rbp), %rax	# _bj, tmp659
	movq	(%rax), %r13	# *_bj_523, _j
	movl	$0, -52(%rbp)	#, pos
	jmp	.L96	#
.L97:
	.loc 1 282 0 is_stmt 0 discriminator 2
	movl	-52(%rbp), %eax	# pos, tmp660
	cltq
	salq	$2, %rax	#, D.21107
	addq	%rbx, %rax	# _o, D.21111
	movl	-52(%rbp), %edx	# pos, tmp661
	movslq	%edx, %rdx	# tmp661, D.21107
	salq	$2, %rdx	#, D.21107
	addq	%r12, %rdx	# _i, D.21111
	movl	(%rdx), %ecx	# *_533, D.21112
	movl	-52(%rbp), %edx	# pos, tmp662
	movslq	%edx, %rdx	# tmp662, D.21107
	salq	$2, %rdx	#, D.21107
	addq	%r13, %rdx	# _j, D.21111
	movl	(%rdx), %edx	# *_537, D.21112
	addl	%ecx, %edx	# D.21112, D.21112
	movl	%edx, (%rax)	# D.21112, *_530
	addl	$1, -52(%rbp)	#, pos
.L96:
	.loc 1 282 0 discriminator 1
	movl	-52(%rbp), %eax	# pos, tmp663
	cmpl	-68(%rbp), %eax	# max_pos, tmp663
	jl	.L97	#,
	.loc 1 285 0 is_stmt 1
	movq	BlockSAD(%rip), %rax	# BlockSAD, BlockSAD.63
	movl	-60(%rbp), %edx	# list, tmp664
	movslq	%edx, %rdx	# tmp664, D.21107
	salq	$3, %rdx	#, D.21107
	addq	%rdx, %rax	# D.21107, D.21108
	movq	(%rax), %rax	# *_544, D.21109
	movl	-64(%rbp), %edx	# refindex, tmp665
	movslq	%edx, %rdx	# tmp665, D.21107
	salq	$3, %rdx	#, D.21107
	addq	%rdx, %rax	# D.21107, D.21109
	movq	(%rax), %rax	# *_548, D.21110
	movq	16(%rax), %rax	# MEM[(int * * *)_549 + 16B], tmp666
	movq	%rax, -48(%rbp)	# tmp666, _bo
	.loc 1 286 0
	movq	BlockSAD(%rip), %rax	# BlockSAD, BlockSAD.64
	movl	-60(%rbp), %edx	# list, tmp667
	movslq	%edx, %rdx	# tmp667, D.21107
	salq	$3, %rdx	#, D.21107
	addq	%rdx, %rax	# D.21107, D.21108
	movq	(%rax), %rax	# *_554, D.21109
	movl	-64(%rbp), %edx	# refindex, tmp668
	movslq	%edx, %rdx	# tmp668, D.21107
	salq	$3, %rdx	#, D.21107
	addq	%rdx, %rax	# D.21107, D.21109
	movq	(%rax), %rax	# *_558, D.21110
	movq	32(%rax), %rax	# MEM[(int * * *)_559 + 32B], tmp669
	movq	%rax, -40(%rbp)	# tmp669, _bi
	.loc 1 287 0
	movq	-40(%rbp), %rax	# _bi, tmp673
	addq	$16, %rax	#, tmp672
	movq	%rax, -32(%rbp)	# tmp672, _bj
	.loc 1 288 0
	movq	-48(%rbp), %rax	# _bo, tmp674
	movq	(%rax), %rbx	# *_bo_550, _o
	movq	-40(%rbp), %rax	# _bi, tmp675
	movq	(%rax), %r12	# *_bi_560, _i
	movq	-32(%rbp), %rax	# _bj, tmp676
	movq	(%rax), %r13	# *_bj_561, _j
	movl	$0, -52(%rbp)	#, pos
	jmp	.L98	#
.L99:
	.loc 1 288 0 is_stmt 0 discriminator 2
	movl	-52(%rbp), %eax	# pos, tmp677
	cltq
	salq	$2, %rax	#, D.21107
	addq	%rbx, %rax	# _o, D.21111
	movl	-52(%rbp), %edx	# pos, tmp678
	movslq	%edx, %rdx	# tmp678, D.21107
	salq	$2, %rdx	#, D.21107
	addq	%r12, %rdx	# _i, D.21111
	movl	(%rdx), %ecx	# *_571, D.21112
	movl	-52(%rbp), %edx	# pos, tmp679
	movslq	%edx, %rdx	# tmp679, D.21107
	salq	$2, %rdx	#, D.21107
	addq	%r13, %rdx	# _j, D.21111
	movl	(%rdx), %edx	# *_575, D.21112
	addl	%ecx, %edx	# D.21112, D.21112
	movl	%edx, (%rax)	# D.21112, *_568
	addl	$1, -52(%rbp)	#, pos
.L98:
	.loc 1 288 0 discriminator 1
	movl	-52(%rbp), %eax	# pos, tmp680
	cmpl	-68(%rbp), %eax	# max_pos, tmp680
	jl	.L99	#,
	.loc 1 288 0 discriminator 3
	addq	$64, -48(%rbp)	#, _bo
	addq	$64, -40(%rbp)	#, _bi
	addq	$64, -32(%rbp)	#, _bj
	.loc 1 289 0 is_stmt 1 discriminator 3
	movq	-48(%rbp), %rax	# _bo, tmp681
	movq	(%rax), %rbx	# *_bo_579, _o
	movq	-40(%rbp), %rax	# _bi, tmp682
	movq	(%rax), %r12	# *_bi_580, _i
	movq	-32(%rbp), %rax	# _bj, tmp683
	movq	(%rax), %r13	# *_bj_581, _j
	movl	$0, -52(%rbp)	#, pos
	jmp	.L100	#
.L101:
	.loc 1 289 0 is_stmt 0 discriminator 2
	movl	-52(%rbp), %eax	# pos, tmp684
	cltq
	salq	$2, %rax	#, D.21107
	addq	%rbx, %rax	# _o, D.21111
	movl	-52(%rbp), %edx	# pos, tmp685
	movslq	%edx, %rdx	# tmp685, D.21107
	salq	$2, %rdx	#, D.21107
	addq	%r12, %rdx	# _i, D.21111
	movl	(%rdx), %ecx	# *_591, D.21112
	movl	-52(%rbp), %edx	# pos, tmp686
	movslq	%edx, %rdx	# tmp686, D.21107
	salq	$2, %rdx	#, D.21107
	addq	%r13, %rdx	# _j, D.21111
	movl	(%rdx), %edx	# *_595, D.21112
	addl	%ecx, %edx	# D.21112, D.21112
	movl	%edx, (%rax)	# D.21112, *_588
	addl	$1, -52(%rbp)	#, pos
.L100:
	.loc 1 289 0 discriminator 1
	movl	-52(%rbp), %eax	# pos, tmp687
	cmpl	-68(%rbp), %eax	# max_pos, tmp687
	jl	.L101	#,
	.loc 1 292 0 is_stmt 1
	movq	BlockSAD(%rip), %rax	# BlockSAD, BlockSAD.65
	movl	-60(%rbp), %edx	# list, tmp688
	movslq	%edx, %rdx	# tmp688, D.21107
	salq	$3, %rdx	#, D.21107
	addq	%rdx, %rax	# D.21107, D.21108
	movq	(%rax), %rax	# *_602, D.21109
	movl	-64(%rbp), %edx	# refindex, tmp689
	movslq	%edx, %rdx	# tmp689, D.21107
	salq	$3, %rdx	#, D.21107
	addq	%rdx, %rax	# D.21107, D.21109
	movq	(%rax), %rax	# *_606, D.21110
	movq	8(%rax), %rax	# MEM[(int * * *)_607 + 8B], tmp690
	movq	%rax, -48(%rbp)	# tmp690, _bo
	.loc 1 293 0
	movq	BlockSAD(%rip), %rax	# BlockSAD, BlockSAD.66
	movl	-60(%rbp), %edx	# list, tmp691
	movslq	%edx, %rdx	# tmp691, D.21107
	salq	$3, %rdx	#, D.21107
	addq	%rdx, %rax	# D.21107, D.21108
	movq	(%rax), %rax	# *_612, D.21109
	movl	-64(%rbp), %edx	# refindex, tmp692
	movslq	%edx, %rdx	# tmp692, D.21107
	salq	$3, %rdx	#, D.21107
	addq	%rdx, %rax	# D.21107, D.21109
	movq	(%rax), %rax	# *_616, D.21110
	movq	24(%rax), %rax	# MEM[(int * * *)_617 + 24B], tmp693
	movq	%rax, -40(%rbp)	# tmp693, _bi
	.loc 1 294 0
	movq	-40(%rbp), %rax	# _bi, tmp697
	addq	$16, %rax	#, tmp696
	movq	%rax, -32(%rbp)	# tmp696, _bj
	.loc 1 295 0
	movq	-48(%rbp), %rax	# _bo, tmp698
	movq	(%rax), %rbx	# *_bo_608, _o
	movq	-40(%rbp), %rax	# _bi, tmp699
	movq	(%rax), %r12	# *_bi_618, _i
	movq	-32(%rbp), %rax	# _bj, tmp700
	movq	(%rax), %r13	# *_bj_619, _j
	movl	$0, -52(%rbp)	#, pos
	jmp	.L102	#
.L103:
	.loc 1 295 0 is_stmt 0 discriminator 2
	movl	-52(%rbp), %eax	# pos, tmp701
	cltq
	salq	$2, %rax	#, D.21107
	addq	%rbx, %rax	# _o, D.21111
	movl	-52(%rbp), %edx	# pos, tmp702
	movslq	%edx, %rdx	# tmp702, D.21107
	salq	$2, %rdx	#, D.21107
	addq	%r12, %rdx	# _i, D.21111
	movl	(%rdx), %ecx	# *_629, D.21112
	movl	-52(%rbp), %edx	# pos, tmp703
	movslq	%edx, %rdx	# tmp703, D.21107
	salq	$2, %rdx	#, D.21107
	addq	%r13, %rdx	# _j, D.21111
	movl	(%rdx), %edx	# *_633, D.21112
	addl	%ecx, %edx	# D.21112, D.21112
	movl	%edx, (%rax)	# D.21112, *_626
	addl	$1, -52(%rbp)	#, pos
.L102:
	.loc 1 295 0 discriminator 1
	movl	-52(%rbp), %eax	# pos, tmp704
	cmpl	-68(%rbp), %eax	# max_pos, tmp704
	jl	.L103	#,
	.loc 1 296 0 is_stmt 1
	popq	%rbx	#
	popq	%r12	#
	popq	%r13	#
	popq	%rbp	#
	.cfi_def_cfa 7, 8
	ret
	.cfi_endproc
.LFE5:
	.size	SetupLargerBlocks, .-SetupLargerBlocks
	.globl	SetupFastFullPelSearch
	.type	SetupFastFullPelSearch, @function
SetupFastFullPelSearch:
.LFB6:
	.loc 1 306 0
	.cfi_startproc
	pushq	%rbp	#
	.cfi_def_cfa_offset 16
	.cfi_offset 6, -16
	movq	%rsp, %rbp	#,
	.cfi_def_cfa_register 6
	subq	$688, %rsp	#,
	movl	%edi, %eax	# ref, tmp530
	movl	%esi, -664(%rbp)	# list, list
	movw	%ax, -660(%rbp)	# tmp530, ref
	.loc 1 308 0
	leaq	-512(%rbp), %rax	#, tmp531
	movq	%rax, -552(%rbp)	# tmp531, orgptr
	.loc 1 317 0
	movq	BlockSAD(%rip), %rax	# BlockSAD, BlockSAD.67
	movl	-664(%rbp), %edx	# list, tmp532
	movslq	%edx, %rdx	# tmp532, D.21113
	salq	$3, %rdx	#, D.21113
	addq	%rdx, %rax	# D.21113, D.21114
	movq	(%rax), %rax	# *_28, D.21115
	movswq	-660(%rbp), %rdx	# ref, D.21113
	salq	$3, %rdx	#, D.21113
	addq	%rdx, %rax	# D.21113, D.21115
	movq	(%rax), %rax	# *_33, D.21116
	movq	56(%rax), %rax	# MEM[(int * * *)_34 + 56B], tmp533
	movq	%rax, -536(%rbp)	# tmp533, block_sad
	.loc 1 318 0
	movq	max_search_range(%rip), %rax	# max_search_range, max_search_range.68
	movl	-664(%rbp), %edx	# list, tmp534
	movslq	%edx, %rdx	# tmp534, D.21113
	salq	$3, %rdx	#, D.21113
	addq	%rdx, %rax	# D.21113, D.21117
	movq	(%rax), %rax	# *_39, D.21118
	movswq	-660(%rbp), %rdx	# ref, D.21113
	salq	$2, %rdx	#, D.21113
	addq	%rdx, %rax	# D.21113, D.21118
	movl	(%rax), %eax	# *_43, tmp535
	movl	%eax, -604(%rbp)	# tmp535, search_range
	.loc 1 319 0
	movl	-604(%rbp), %eax	# search_range, tmp536
	addl	%eax, %eax	# D.21119
	leal	1(%rax), %edx	#, D.21119
	movl	-604(%rbp), %eax	# search_range, tmp537
	addl	%eax, %eax	# D.21119
	addl	$1, %eax	#, D.21119
	imull	%edx, %eax	# D.21119, tmp538
	movl	%eax, -600(%rbp)	# tmp538, max_pos
	.loc 1 321 0
	movq	img(%rip), %rax	# img, img.70
	movl	72400(%rax), %eax	# img.70_50->MbaffFrameFlag, D.21119
	testl	%eax, %eax	# D.21119
	je	.L105	#,
	.loc 1 321 0 is_stmt 0 discriminator 1
	movq	img(%rip), %rax	# img, img.71
	movq	14168(%rax), %rdx	# img.71_52->mb_data, D.21120
	movq	img(%rip), %rax	# img, img.72
	movl	12(%rax), %eax	# img.72_54->current_mb_nr, D.21119
	cltq
	imulq	$632, %rax, %rax	#, D.21113, D.21113
	addq	%rdx, %rax	# D.21120, D.21120
	movl	532(%rax), %eax	# _58->mb_field, D.21119
	testl	%eax, %eax	# D.21119
	je	.L105	#,
	movq	img(%rip), %rax	# img, img.74
	movl	12(%rax), %eax	# img.74_60->current_mb_nr, D.21119
	andl	$1, %eax	#, D.21121
	testl	%eax, %eax	# D.21121
	je	.L106	#,
	movl	$4, %eax	#, iftmp.73
	jmp	.L107	#
.L106:
	.loc 1 321 0 discriminator 2
	movl	$2, %eax	#, iftmp.73
.L107:
	.loc 1 321 0 discriminator 3
	jmp	.L108	#
.L105:
	.loc 1 321 0 discriminator 2
	movl	$0, %eax	#, iftmp.69
.L108:
	.loc 1 321 0 discriminator 3
	movl	%eax, -596(%rbp)	# iftmp.69, list_offset
	.loc 1 323 0 is_stmt 1 discriminator 3
	movq	active_pps(%rip), %rax	# active_pps, active_pps.76
	movl	192(%rax), %eax	# active_pps.76_69->weighted_pred_flag, D.21122
	testl	%eax, %eax	# D.21122
	je	.L109	#,
	.loc 1 323 0 is_stmt 0 discriminator 1
	movq	img(%rip), %rax	# img, img.77
	movl	24(%rax), %eax	# img.77_71->type, D.21119
	testl	%eax, %eax	# D.21119
	je	.L110	#,
	.loc 1 323 0 discriminator 2
	movq	img(%rip), %rax	# img, img.78
	movl	24(%rax), %eax	# img.78_73->type, D.21119
	cmpl	$3, %eax	#, D.21119
	je	.L110	#,
.L109:
	.loc 1 324 0 is_stmt 1 discriminator 2
	movq	active_pps(%rip), %rax	# active_pps, active_pps.79
	movl	196(%rax), %eax	# active_pps.79_75->weighted_bipred_idc, D.21123
	.loc 1 323 0 discriminator 2
	testl	%eax, %eax	# D.21123
	je	.L111	#,
	.loc 1 324 0
	movq	img(%rip), %rax	# img, img.80
	movl	24(%rax), %eax	# img.80_77->type, D.21119
	cmpl	$1, %eax	#, D.21119
	jne	.L111	#,
.L110:
	.loc 1 323 0 discriminator 1
	movl	$1, %eax	#, iftmp.75
	jmp	.L112	#
.L111:
	.loc 1 323 0 is_stmt 0 discriminator 3
	movl	$0, %eax	#, iftmp.75
.L112:
	.loc 1 323 0 discriminator 4
	movl	%eax, -592(%rbp)	# iftmp.75, apply_weights
	.loc 1 327 0 is_stmt 1 discriminator 4
	movl	-596(%rbp), %eax	# list_offset, tmp539
	movl	-664(%rbp), %edx	# list, tmp540
	addl	%edx, %eax	# tmp540, D.21119
	cltq
	movq	listX(,%rax,8), %rax	# listX, D.21124
	movswq	-660(%rbp), %rdx	# ref, D.21113
	salq	$3, %rdx	#, D.21113
	addq	%rdx, %rax	# D.21113, D.21124
	movq	(%rax), %rax	# *_86, tmp542
	movq	%rax, -528(%rbp)	# tmp542, ref_picture
	.loc 1 330 0 discriminator 4
	cmpl	$0, -592(%rbp)	#, apply_weights
	je	.L113	#,
	.loc 1 330 0 is_stmt 0 discriminator 1
	movq	input(%rip), %rax	# input, input.81
	movl	1292(%rax), %eax	# input.81_88->UseWeightedReferenceME, D.21119
	testl	%eax, %eax	# D.21119
	je	.L113	#,
	.loc 1 331 0 is_stmt 1
	movq	-528(%rbp), %rax	# ref_picture, tmp543
	movq	6440(%rax), %rax	# ref_picture_87->imgY_11_w, tmp544
	movq	%rax, -544(%rbp)	# tmp544, ref_pic
	jmp	.L114	#
.L113:
	.loc 1 333 0
	movq	-528(%rbp), %rax	# ref_picture, tmp545
	movq	6432(%rax), %rax	# ref_picture_87->imgY_11, tmp546
	movq	%rax, -544(%rbp)	# tmp546, ref_pic
.L114:
	.loc 1 335 0
	movq	-528(%rbp), %rax	# ref_picture, tmp547
	movl	6392(%rax), %eax	# ref_picture_87->size_x, D.21119
	subl	$17, %eax	#, tmp548
	movl	%eax, -588(%rbp)	# tmp548, max_width
	.loc 1 336 0
	movq	-528(%rbp), %rax	# ref_picture, tmp549
	movl	6396(%rax), %eax	# ref_picture_87->size_y, D.21119
	subl	$17, %eax	#, tmp550
	movl	%eax, -584(%rbp)	# tmp550, max_height
	.loc 1 338 0
	movq	-528(%rbp), %rax	# ref_picture, tmp551
	movl	6392(%rax), %eax	# ref_picture_87->size_x, tmp552
	movl	%eax, -580(%rbp)	# tmp552, img_width
	.loc 1 339 0
	movq	-528(%rbp), %rax	# ref_picture, tmp553
	movl	6396(%rax), %eax	# ref_picture_87->size_y, tmp554
	movl	%eax, -576(%rbp)	# tmp554, img_height
	.loc 1 342 0
	movswl	-660(%rbp), %ecx	# ref, D.21119
	movq	enc_picture(%rip), %rax	# enc_picture, enc_picture.82
	movq	6504(%rax), %rdx	# enc_picture.82_99->mv, D.21125
	movq	enc_picture(%rip), %rax	# enc_picture, enc_picture.83
	movq	6480(%rax), %rsi	# enc_picture.83_101->ref_idx, D.21126
	movl	-664(%rbp), %edi	# list, tmp555
	leaq	-656(%rbp), %rax	#, tmp556
	movl	$16, 16(%rsp)	#,
	movl	$16, 8(%rsp)	#,
	movl	$0, (%rsp)	#,
	movl	$0, %r9d	#,
	movl	%edi, %r8d	# tmp555,
	movq	%rax, %rdi	# tmp556,
	call	SetMotionVectorPredictor	#
	.loc 1 343 0
	movq	search_center_x(%rip), %rax	# search_center_x, search_center_x.84
	movl	-664(%rbp), %edx	# list, tmp557
	movslq	%edx, %rdx	# tmp557, D.21113
	salq	$3, %rdx	#, D.21113
	addq	%rdx, %rax	# D.21113, D.21117
	movq	(%rax), %rax	# *_106, D.21118
	movswq	-660(%rbp), %rdx	# ref, D.21113
	salq	$2, %rdx	#, D.21113
	addq	%rax, %rdx	# D.21118, D.21118
	movzwl	-656(%rbp), %eax	# pmv, D.21127
	leal	3(%rax), %ecx	#, tmp559
	testw	%ax, %ax	# tmp558
	cmovs	%ecx, %eax	# tmp559,, tmp558
	sarw	$2, %ax	#, tmp560
	cwtl
	movl	%eax, (%rdx)	# D.21119, *_110
	.loc 1 344 0
	movq	search_center_y(%rip), %rax	# search_center_y, search_center_y.85
	movl	-664(%rbp), %edx	# list, tmp561
	movslq	%edx, %rdx	# tmp561, D.21113
	salq	$3, %rdx	#, D.21113
	addq	%rdx, %rax	# D.21113, D.21117
	movq	(%rax), %rax	# *_117, D.21118
	movswq	-660(%rbp), %rdx	# ref, D.21113
	salq	$2, %rdx	#, D.21113
	addq	%rax, %rdx	# D.21118, D.21118
	movzwl	-654(%rbp), %eax	# pmv, D.21127
	leal	3(%rax), %ecx	#, tmp563
	testw	%ax, %ax	# tmp562
	cmovs	%ecx, %eax	# tmp563,, tmp562
	sarw	$2, %ax	#, tmp564
	cwtl
	movl	%eax, (%rdx)	# D.21119, *_121
	.loc 1 346 0
	movq	input(%rip), %rax	# input, input.86
	movl	2464(%rax), %eax	# input.86_125->rdopt, D.21119
	testl	%eax, %eax	# D.21119
	jne	.L115	#,
	.loc 1 349 0
	movq	search_center_x(%rip), %rax	# search_center_x, search_center_x.87
	movl	-664(%rbp), %edx	# list, tmp565
	movslq	%edx, %rdx	# tmp565, D.21113
	salq	$3, %rdx	#, D.21113
	addq	%rdx, %rax	# D.21113, D.21117
	movq	(%rax), %rax	# *_130, D.21118
	movswq	-660(%rbp), %rdx	# ref, D.21113
	salq	$2, %rdx	#, D.21113
	leaq	(%rax,%rdx), %rcx	#, D.21118
	movq	search_center_x(%rip), %rax	# search_center_x, search_center_x.88
	movl	-664(%rbp), %edx	# list, tmp566
	movslq	%edx, %rdx	# tmp566, D.21113
	salq	$3, %rdx	#, D.21113
	addq	%rdx, %rax	# D.21113, D.21117
	movq	(%rax), %rax	# *_138, D.21118
	movswq	-660(%rbp), %rdx	# ref, D.21113
	salq	$2, %rdx	#, D.21113
	addq	%rdx, %rax	# D.21113, D.21118
	movl	(%rax), %edx	# *_142, D.21119
	movl	-604(%rbp), %eax	# search_range, tmp567
	cmpl	%eax, %edx	# tmp567, D.21119
	cmovle	%edx, %eax	# D.21119,, D.21119
	movl	-604(%rbp), %edx	# search_range, tmp568
	negl	%edx	# D.21119
	cmpl	%edx, %eax	# D.21119, D.21119
	cmovl	%edx, %eax	# D.21119,, D.21119, D.21119
	movl	%eax, (%rcx)	# D.21119, *_134
	.loc 1 350 0
	movq	search_center_y(%rip), %rax	# search_center_y, search_center_y.89
	movl	-664(%rbp), %edx	# list, tmp569
	movslq	%edx, %rdx	# tmp569, D.21113
	salq	$3, %rdx	#, D.21113
	addq	%rdx, %rax	# D.21113, D.21117
	movq	(%rax), %rax	# *_150, D.21118
	movswq	-660(%rbp), %rdx	# ref, D.21113
	salq	$2, %rdx	#, D.21113
	leaq	(%rax,%rdx), %rcx	#, D.21118
	movq	search_center_y(%rip), %rax	# search_center_y, search_center_y.90
	movl	-664(%rbp), %edx	# list, tmp570
	movslq	%edx, %rdx	# tmp570, D.21113
	salq	$3, %rdx	#, D.21113
	addq	%rdx, %rax	# D.21113, D.21117
	movq	(%rax), %rax	# *_158, D.21118
	movswq	-660(%rbp), %rdx	# ref, D.21113
	salq	$2, %rdx	#, D.21113
	addq	%rdx, %rax	# D.21113, D.21118
	movl	(%rax), %edx	# *_162, D.21119
	movl	-604(%rbp), %eax	# search_range, tmp571
	cmpl	%eax, %edx	# tmp571, D.21119
	cmovle	%edx, %eax	# D.21119,, D.21119
	movl	-604(%rbp), %edx	# search_range, tmp572
	negl	%edx	# D.21119
	cmpl	%edx, %eax	# D.21119, D.21119
	cmovl	%edx, %eax	# D.21119,, D.21119, D.21119
	movl	%eax, (%rcx)	# D.21119, *_154
.L115:
	.loc 1 353 0
	movq	search_center_x(%rip), %rax	# search_center_x, search_center_x.91
	movl	-664(%rbp), %edx	# list, tmp573
	movslq	%edx, %rdx	# tmp573, D.21113
	salq	$3, %rdx	#, D.21113
	addq	%rdx, %rax	# D.21113, D.21117
	movq	(%rax), %rax	# *_170, D.21118
	movswq	-660(%rbp), %rdx	# ref, D.21113
	salq	$2, %rdx	#, D.21113
	addq	%rax, %rdx	# D.21118, D.21118
	movq	search_center_x(%rip), %rax	# search_center_x, search_center_x.92
	movl	-664(%rbp), %ecx	# list, tmp574
	movslq	%ecx, %rcx	# tmp574, D.21113
	salq	$3, %rcx	#, D.21113
	addq	%rcx, %rax	# D.21113, D.21117
	movq	(%rax), %rax	# *_178, D.21118
	movswq	-660(%rbp), %rcx	# ref, D.21113
	salq	$2, %rcx	#, D.21113
	addq	%rcx, %rax	# D.21113, D.21118
	movl	(%rax), %ecx	# *_182, D.21119
	movq	img(%rip), %rax	# img, img.93
	movl	168(%rax), %eax	# img.93_184->opix_x, D.21119
	addl	%ecx, %eax	# D.21119, D.21119
	movl	%eax, (%rdx)	# D.21119, *_174
	.loc 1 354 0
	movq	search_center_y(%rip), %rax	# search_center_y, search_center_y.94
	movl	-664(%rbp), %edx	# list, tmp575
	movslq	%edx, %rdx	# tmp575, D.21113
	salq	$3, %rdx	#, D.21113
	addq	%rdx, %rax	# D.21113, D.21117
	movq	(%rax), %rax	# *_190, D.21118
	movswq	-660(%rbp), %rdx	# ref, D.21113
	salq	$2, %rdx	#, D.21113
	addq	%rax, %rdx	# D.21118, D.21118
	movq	search_center_y(%rip), %rax	# search_center_y, search_center_y.95
	movl	-664(%rbp), %ecx	# list, tmp576
	movslq	%ecx, %rcx	# tmp576, D.21113
	salq	$3, %rcx	#, D.21113
	addq	%rcx, %rax	# D.21113, D.21117
	movq	(%rax), %rax	# *_198, D.21118
	movswq	-660(%rbp), %rcx	# ref, D.21113
	salq	$2, %rcx	#, D.21113
	addq	%rcx, %rax	# D.21113, D.21118
	movl	(%rax), %ecx	# *_202, D.21119
	movq	img(%rip), %rax	# img, img.96
	movl	172(%rax), %eax	# img.96_204->opix_y, D.21119
	addl	%ecx, %eax	# D.21119, D.21119
	movl	%eax, (%rdx)	# D.21119, *_194
	.loc 1 356 0
	movq	search_center_x(%rip), %rax	# search_center_x, search_center_x.97
	movl	-664(%rbp), %edx	# list, tmp577
	movslq	%edx, %rdx	# tmp577, D.21113
	salq	$3, %rdx	#, D.21113
	addq	%rdx, %rax	# D.21113, D.21117
	movq	(%rax), %rax	# *_210, D.21118
	movswq	-660(%rbp), %rdx	# ref, D.21113
	salq	$2, %rdx	#, D.21113
	addq	%rdx, %rax	# D.21113, D.21118
	movl	(%rax), %eax	# *_214, tmp578
	movl	%eax, -572(%rbp)	# tmp578, offset_x
	.loc 1 357 0
	movq	search_center_y(%rip), %rax	# search_center_y, search_center_y.98
	movl	-664(%rbp), %edx	# list, tmp579
	movslq	%edx, %rdx	# tmp579, D.21113
	salq	$3, %rdx	#, D.21113
	addq	%rdx, %rax	# D.21113, D.21117
	movq	(%rax), %rax	# *_219, D.21118
	movswq	-660(%rbp), %rdx	# ref, D.21113
	salq	$2, %rdx	#, D.21113
	addq	%rdx, %rax	# D.21113, D.21118
	movl	(%rax), %eax	# *_223, tmp580
	movl	%eax, -568(%rbp)	# tmp580, offset_y
	.loc 1 360 0
	movq	img(%rip), %rax	# img, img.99
	movl	172(%rax), %eax	# img.99_225->opix_y, tmp581
	movl	%eax, -644(%rbp)	# tmp581, y
	jmp	.L116	#
.L119:
	.loc 1 361 0
	movq	img(%rip), %rax	# img, img.100
	movl	168(%rax), %eax	# img.100_230->opix_x, tmp582
	movl	%eax, -648(%rbp)	# tmp582, x
	jmp	.L117	#
.L118:
	.loc 1 362 0 discriminator 2
	movq	-552(%rbp), %rax	# orgptr, orgptr.101
	leaq	2(%rax), %rdx	#, tmp583
	movq	%rdx, -552(%rbp)	# tmp583, orgptr
	movq	imgY_org(%rip), %rdx	# imgY_org, imgY_org.102
	movl	-644(%rbp), %ecx	# y, tmp584
	movslq	%ecx, %rcx	# tmp584, D.21113
	salq	$3, %rcx	#, D.21113
	addq	%rcx, %rdx	# D.21113, D.21128
	movq	(%rdx), %rdx	# *_240, D.21129
	movl	-648(%rbp), %ecx	# x, tmp585
	movslq	%ecx, %rcx	# tmp585, D.21113
	addq	%rcx, %rcx	# D.21113
	addq	%rcx, %rdx	# D.21113, D.21129
	movzwl	(%rdx), %edx	# *_244, D.21130
	movw	%dx, (%rax)	# D.21130, *orgptr.101_235
	.loc 1 361 0 discriminator 2
	addl	$1, -648(%rbp)	#, x
.L117:
	.loc 1 361 0 is_stmt 0 discriminator 1
	movq	img(%rip), %rax	# img, img.103
	movl	168(%rax), %eax	# img.103_232->opix_x, D.21119
	addl	$16, %eax	#, D.21119
	cmpl	-648(%rbp), %eax	# x, D.21119
	jg	.L118	#,
	.loc 1 360 0 is_stmt 1
	addl	$1, -644(%rbp)	#, y
.L116:
	.loc 1 360 0 is_stmt 0 discriminator 1
	movq	img(%rip), %rax	# img, img.104
	movl	172(%rax), %eax	# img.104_227->opix_y, D.21119
	addl	$16, %eax	#, D.21119
	cmpl	-644(%rbp), %eax	# y, D.21119
	jg	.L119	#,
	.loc 1 366 0 is_stmt 1
	movl	-572(%rbp), %eax	# offset_x, tmp586
	cmpl	-604(%rbp), %eax	# search_range, tmp586
	jl	.L120	#,
	.loc 1 366 0 is_stmt 0 discriminator 1
	movl	-604(%rbp), %eax	# search_range, tmp587
	movl	-588(%rbp), %edx	# max_width, tmp588
	subl	%eax, %edx	# tmp587, D.21119
	movl	%edx, %eax	# D.21119, D.21119
	cmpl	-572(%rbp), %eax	# offset_x, D.21119
	jl	.L120	#,
	movl	-568(%rbp), %eax	# offset_y, tmp589
	cmpl	-604(%rbp), %eax	# search_range, tmp589
	jl	.L120	#,
	.loc 1 367 0 is_stmt 1
	movl	-604(%rbp), %eax	# search_range, tmp590
	movl	-584(%rbp), %edx	# max_height, tmp591
	subl	%eax, %edx	# tmp590, D.21119
	movl	%edx, %eax	# D.21119, D.21119
	cmpl	-568(%rbp), %eax	# offset_y, D.21119
	jl	.L120	#,
	.loc 1 369 0
	movl	$0, -640(%rbp)	#, range_partly_outside
	movq	$FastLine16Y_11, PelYline_11(%rip)	#, PelYline_11
	jmp	.L121	#
.L120:
	.loc 1 373 0
	movl	$1, -640(%rbp)	#, range_partly_outside
.L121:
	.loc 1 377 0
	movq	input(%rip), %rax	# input, input.105
	movl	2464(%rax), %eax	# input.105_252->rdopt, D.21119
	testl	%eax, %eax	# D.21119
	jne	.L122	#,
	.loc 1 379 0
	movq	img(%rip), %rax	# img, img.106
	movl	168(%rax), %eax	# img.106_254->opix_x, D.21119
	subl	-572(%rbp), %eax	# offset_x, tmp593
	movl	%eax, -564(%rbp)	# tmp593, ref_x
	.loc 1 380 0
	movq	img(%rip), %rax	# img, img.107
	movl	172(%rax), %eax	# img.107_257->opix_y, D.21119
	subl	-568(%rbp), %eax	# offset_y, tmp595
	movl	%eax, -560(%rbp)	# tmp595, ref_y
	.loc 1 382 0
	movl	$0, -636(%rbp)	#, pos
	jmp	.L123	#
.L125:
	.loc 1 384 0
	movq	spiral_search_x(%rip), %rax	# spiral_search_x, spiral_search_x.108
	movl	-636(%rbp), %edx	# pos, tmp596
	movslq	%edx, %rdx	# tmp596, D.21113
	salq	$2, %rdx	#, D.21113
	addq	%rdx, %rax	# D.21113, D.21118
	movl	(%rax), %eax	# *_264, D.21119
	cmpl	-564(%rbp), %eax	# ref_x, D.21119
	jne	.L124	#,
	.loc 1 385 0 discriminator 1
	movq	spiral_search_y(%rip), %rax	# spiral_search_y, spiral_search_y.109
	movl	-636(%rbp), %edx	# pos, tmp597
	movslq	%edx, %rdx	# tmp597, D.21113
	salq	$2, %rdx	#, D.21113
	addq	%rdx, %rax	# D.21113, D.21118
	movl	(%rax), %eax	# *_269, D.21119
	.loc 1 384 0 discriminator 1
	cmpl	-560(%rbp), %eax	# ref_y, D.21119
	jne	.L124	#,
	.loc 1 387 0
	movq	pos_00(%rip), %rax	# pos_00, pos_00.110
	movl	-664(%rbp), %edx	# list, tmp598
	movslq	%edx, %rdx	# tmp598, D.21113
	salq	$3, %rdx	#, D.21113
	addq	%rdx, %rax	# D.21113, D.21117
	movq	(%rax), %rax	# *_274, D.21118
	movswq	-660(%rbp), %rdx	# ref, D.21113
	salq	$2, %rdx	#, D.21113
	addq	%rax, %rdx	# D.21118, D.21118
	movl	-636(%rbp), %eax	# pos, tmp599
	movl	%eax, (%rdx)	# tmp599, *_278
	.loc 1 388 0
	jmp	.L122	#
.L124:
	.loc 1 382 0
	addl	$1, -636(%rbp)	#, pos
.L123:
	.loc 1 382 0 is_stmt 0 discriminator 1
	movl	-636(%rbp), %eax	# pos, tmp600
	cmpl	-600(%rbp), %eax	# max_pos, tmp600
	jl	.L125	#,
.L122:
	.loc 1 394 0 is_stmt 1
	movl	$0, -636(%rbp)	#, pos
	jmp	.L126	#
.L133:
	.loc 1 396 0
	movq	spiral_search_y(%rip), %rax	# spiral_search_y, spiral_search_y.111
	movl	-636(%rbp), %edx	# pos, tmp601
	movslq	%edx, %rdx	# tmp601, D.21113
	salq	$2, %rdx	#, D.21113
	addq	%rdx, %rax	# D.21113, D.21118
	movl	(%rax), %edx	# *_284, D.21119
	movl	-568(%rbp), %eax	# offset_y, tmp605
	addl	%edx, %eax	# D.21119, tmp604
	movl	%eax, -632(%rbp)	# tmp604, abs_y
	.loc 1 397 0
	movq	spiral_search_x(%rip), %rax	# spiral_search_x, spiral_search_x.112
	movl	-636(%rbp), %edx	# pos, tmp606
	movslq	%edx, %rdx	# tmp606, D.21113
	salq	$2, %rdx	#, D.21113
	addq	%rdx, %rax	# D.21113, D.21118
	movl	(%rax), %edx	# *_290, D.21119
	movl	-572(%rbp), %eax	# offset_x, tmp610
	addl	%edx, %eax	# D.21119, tmp609
	movl	%eax, -556(%rbp)	# tmp609, abs_x
	.loc 1 399 0
	cmpl	$0, -640(%rbp)	#, range_partly_outside
	je	.L127	#,
	.loc 1 401 0
	cmpl	$0, -632(%rbp)	#, abs_y
	js	.L128	#,
	.loc 1 401 0 is_stmt 0 discriminator 1
	movl	-632(%rbp), %eax	# abs_y, tmp611
	cmpl	-584(%rbp), %eax	# max_height, tmp611
	jg	.L128	#,
	cmpl	$0, -556(%rbp)	#, abs_x
	js	.L128	#,
	.loc 1 402 0 is_stmt 1
	movl	-556(%rbp), %eax	# abs_x, tmp612
	cmpl	-588(%rbp), %eax	# max_width, tmp612
	jg	.L128	#,
	.loc 1 404 0
	movq	$FastLine16Y_11, PelYline_11(%rip)	#, PelYline_11
	jmp	.L127	#
.L128:
	.loc 1 408 0
	movq	$UMVLine16Y_11, PelYline_11(%rip)	#, PelYline_11
.L127:
	.loc 1 412 0
	leaq	-512(%rbp), %rax	#, tmp613
	movq	%rax, -552(%rbp)	# tmp613, orgptr
	.loc 1 413 0
	movl	$0, -628(%rbp)	#, bindex
	.loc 1 414 0
	movl	$0, -624(%rbp)	#, blky
	jmp	.L129	#
.L132:
	.loc 1 416 0
	movl	$0, -608(%rbp)	#, LineSadBlk3
	movl	-608(%rbp), %eax	# LineSadBlk3, tmp614
	movl	%eax, -612(%rbp)	# tmp614, LineSadBlk2
	movl	-612(%rbp), %eax	# LineSadBlk2, tmp615
	movl	%eax, -616(%rbp)	# tmp615, LineSadBlk1
	movl	-616(%rbp), %eax	# LineSadBlk1, tmp616
	movl	%eax, -620(%rbp)	# tmp616, LineSadBlk0
	.loc 1 417 0
	movl	$0, -644(%rbp)	#, y
	jmp	.L130	#
.L131:
	.loc 1 419 0 discriminator 2
	movq	PelYline_11(%rip), %r9	# PelYline_11, PelYline_11.113
	movl	-632(%rbp), %eax	# abs_y, abs_y.114
	leal	1(%rax), %edx	#, tmp617
	movl	%edx, -632(%rbp)	# tmp617, abs_y
	movl	-580(%rbp), %esi	# img_width, tmp618
	movl	-576(%rbp), %ecx	# img_height, tmp619
	movl	-556(%rbp), %edx	# abs_x, tmp620
	movq	-544(%rbp), %rdi	# ref_pic, tmp621
	movl	%esi, %r8d	# tmp618,
	movl	%eax, %esi	# abs_y.114,
	call	*%r9	# PelYline_11.113
	movq	%rax, -520(%rbp)	# tmp622, refptr
	.loc 1 421 0 discriminator 2
	movq	byte_abs(%rip), %rcx	# byte_abs, byte_abs.115
	movq	-520(%rbp), %rax	# refptr, refptr.116
	leaq	2(%rax), %rdx	#, tmp623
	movq	%rdx, -520(%rbp)	# tmp623, refptr
	movzwl	(%rax), %eax	# *refptr.116_306, D.21130
	movzwl	%ax, %esi	# D.21130, D.21119
	movq	-552(%rbp), %rax	# orgptr, orgptr.117
	leaq	2(%rax), %rdx	#, tmp624
	movq	%rdx, -552(%rbp)	# tmp624, orgptr
	movzwl	(%rax), %eax	# *orgptr.117_310, D.21130
	movzwl	%ax, %eax	# D.21130, D.21119
	subl	%eax, %esi	# D.21119, D.21119
	movl	%esi, %eax	# D.21119, D.21119
	cltq
	salq	$2, %rax	#, D.21113
	addq	%rcx, %rax	# byte_abs.115, D.21118
	movl	(%rax), %eax	# *_317, D.21119
	addl	%eax, -620(%rbp)	# D.21119, LineSadBlk0
	.loc 1 422 0 discriminator 2
	movq	byte_abs(%rip), %rcx	# byte_abs, byte_abs.118
	movq	-520(%rbp), %rax	# refptr, refptr.119
	leaq	2(%rax), %rdx	#, tmp625
	movq	%rdx, -520(%rbp)	# tmp625, refptr
	movzwl	(%rax), %eax	# *refptr.119_321, D.21130
	movzwl	%ax, %esi	# D.21130, D.21119
	movq	-552(%rbp), %rax	# orgptr, orgptr.120
	leaq	2(%rax), %rdx	#, tmp626
	movq	%rdx, -552(%rbp)	# tmp626, orgptr
	movzwl	(%rax), %eax	# *orgptr.120_325, D.21130
	movzwl	%ax, %eax	# D.21130, D.21119
	subl	%eax, %esi	# D.21119, D.21119
	movl	%esi, %eax	# D.21119, D.21119
	cltq
	salq	$2, %rax	#, D.21113
	addq	%rcx, %rax	# byte_abs.118, D.21118
	movl	(%rax), %eax	# *_332, D.21119
	addl	%eax, -620(%rbp)	# D.21119, LineSadBlk0
	.loc 1 423 0 discriminator 2
	movq	byte_abs(%rip), %rcx	# byte_abs, byte_abs.121
	movq	-520(%rbp), %rax	# refptr, refptr.122
	leaq	2(%rax), %rdx	#, tmp627
	movq	%rdx, -520(%rbp)	# tmp627, refptr
	movzwl	(%rax), %eax	# *refptr.122_336, D.21130
	movzwl	%ax, %esi	# D.21130, D.21119
	movq	-552(%rbp), %rax	# orgptr, orgptr.123
	leaq	2(%rax), %rdx	#, tmp628
	movq	%rdx, -552(%rbp)	# tmp628, orgptr
	movzwl	(%rax), %eax	# *orgptr.123_340, D.21130
	movzwl	%ax, %eax	# D.21130, D.21119
	subl	%eax, %esi	# D.21119, D.21119
	movl	%esi, %eax	# D.21119, D.21119
	cltq
	salq	$2, %rax	#, D.21113
	addq	%rcx, %rax	# byte_abs.121, D.21118
	movl	(%rax), %eax	# *_347, D.21119
	addl	%eax, -620(%rbp)	# D.21119, LineSadBlk0
	.loc 1 424 0 discriminator 2
	movq	byte_abs(%rip), %rcx	# byte_abs, byte_abs.124
	movq	-520(%rbp), %rax	# refptr, refptr.125
	leaq	2(%rax), %rdx	#, tmp629
	movq	%rdx, -520(%rbp)	# tmp629, refptr
	movzwl	(%rax), %eax	# *refptr.125_351, D.21130
	movzwl	%ax, %esi	# D.21130, D.21119
	movq	-552(%rbp), %rax	# orgptr, orgptr.126
	leaq	2(%rax), %rdx	#, tmp630
	movq	%rdx, -552(%rbp)	# tmp630, orgptr
	movzwl	(%rax), %eax	# *orgptr.126_355, D.21130
	movzwl	%ax, %eax	# D.21130, D.21119
	subl	%eax, %esi	# D.21119, D.21119
	movl	%esi, %eax	# D.21119, D.21119
	cltq
	salq	$2, %rax	#, D.21113
	addq	%rcx, %rax	# byte_abs.124, D.21118
	movl	(%rax), %eax	# *_362, D.21119
	addl	%eax, -620(%rbp)	# D.21119, LineSadBlk0
	.loc 1 425 0 discriminator 2
	movq	byte_abs(%rip), %rcx	# byte_abs, byte_abs.127
	movq	-520(%rbp), %rax	# refptr, refptr.128
	leaq	2(%rax), %rdx	#, tmp631
	movq	%rdx, -520(%rbp)	# tmp631, refptr
	movzwl	(%rax), %eax	# *refptr.128_366, D.21130
	movzwl	%ax, %esi	# D.21130, D.21119
	movq	-552(%rbp), %rax	# orgptr, orgptr.129
	leaq	2(%rax), %rdx	#, tmp632
	movq	%rdx, -552(%rbp)	# tmp632, orgptr
	movzwl	(%rax), %eax	# *orgptr.129_370, D.21130
	movzwl	%ax, %eax	# D.21130, D.21119
	subl	%eax, %esi	# D.21119, D.21119
	movl	%esi, %eax	# D.21119, D.21119
	cltq
	salq	$2, %rax	#, D.21113
	addq	%rcx, %rax	# byte_abs.127, D.21118
	movl	(%rax), %eax	# *_377, D.21119
	addl	%eax, -616(%rbp)	# D.21119, LineSadBlk1
	.loc 1 426 0 discriminator 2
	movq	byte_abs(%rip), %rcx	# byte_abs, byte_abs.130
	movq	-520(%rbp), %rax	# refptr, refptr.131
	leaq	2(%rax), %rdx	#, tmp633
	movq	%rdx, -520(%rbp)	# tmp633, refptr
	movzwl	(%rax), %eax	# *refptr.131_381, D.21130
	movzwl	%ax, %esi	# D.21130, D.21119
	movq	-552(%rbp), %rax	# orgptr, orgptr.132
	leaq	2(%rax), %rdx	#, tmp634
	movq	%rdx, -552(%rbp)	# tmp634, orgptr
	movzwl	(%rax), %eax	# *orgptr.132_385, D.21130
	movzwl	%ax, %eax	# D.21130, D.21119
	subl	%eax, %esi	# D.21119, D.21119
	movl	%esi, %eax	# D.21119, D.21119
	cltq
	salq	$2, %rax	#, D.21113
	addq	%rcx, %rax	# byte_abs.130, D.21118
	movl	(%rax), %eax	# *_392, D.21119
	addl	%eax, -616(%rbp)	# D.21119, LineSadBlk1
	.loc 1 427 0 discriminator 2
	movq	byte_abs(%rip), %rcx	# byte_abs, byte_abs.133
	movq	-520(%rbp), %rax	# refptr, refptr.134
	leaq	2(%rax), %rdx	#, tmp635
	movq	%rdx, -520(%rbp)	# tmp635, refptr
	movzwl	(%rax), %eax	# *refptr.134_396, D.21130
	movzwl	%ax, %esi	# D.21130, D.21119
	movq	-552(%rbp), %rax	# orgptr, orgptr.135
	leaq	2(%rax), %rdx	#, tmp636
	movq	%rdx, -552(%rbp)	# tmp636, orgptr
	movzwl	(%rax), %eax	# *orgptr.135_400, D.21130
	movzwl	%ax, %eax	# D.21130, D.21119
	subl	%eax, %esi	# D.21119, D.21119
	movl	%esi, %eax	# D.21119, D.21119
	cltq
	salq	$2, %rax	#, D.21113
	addq	%rcx, %rax	# byte_abs.133, D.21118
	movl	(%rax), %eax	# *_407, D.21119
	addl	%eax, -616(%rbp)	# D.21119, LineSadBlk1
	.loc 1 428 0 discriminator 2
	movq	byte_abs(%rip), %rcx	# byte_abs, byte_abs.136
	movq	-520(%rbp), %rax	# refptr, refptr.137
	leaq	2(%rax), %rdx	#, tmp637
	movq	%rdx, -520(%rbp)	# tmp637, refptr
	movzwl	(%rax), %eax	# *refptr.137_411, D.21130
	movzwl	%ax, %esi	# D.21130, D.21119
	movq	-552(%rbp), %rax	# orgptr, orgptr.138
	leaq	2(%rax), %rdx	#, tmp638
	movq	%rdx, -552(%rbp)	# tmp638, orgptr
	movzwl	(%rax), %eax	# *orgptr.138_415, D.21130
	movzwl	%ax, %eax	# D.21130, D.21119
	subl	%eax, %esi	# D.21119, D.21119
	movl	%esi, %eax	# D.21119, D.21119
	cltq
	salq	$2, %rax	#, D.21113
	addq	%rcx, %rax	# byte_abs.136, D.21118
	movl	(%rax), %eax	# *_422, D.21119
	addl	%eax, -616(%rbp)	# D.21119, LineSadBlk1
	.loc 1 429 0 discriminator 2
	movq	byte_abs(%rip), %rcx	# byte_abs, byte_abs.139
	movq	-520(%rbp), %rax	# refptr, refptr.140
	leaq	2(%rax), %rdx	#, tmp639
	movq	%rdx, -520(%rbp)	# tmp639, refptr
	movzwl	(%rax), %eax	# *refptr.140_426, D.21130
	movzwl	%ax, %esi	# D.21130, D.21119
	movq	-552(%rbp), %rax	# orgptr, orgptr.141
	leaq	2(%rax), %rdx	#, tmp640
	movq	%rdx, -552(%rbp)	# tmp640, orgptr
	movzwl	(%rax), %eax	# *orgptr.141_430, D.21130
	movzwl	%ax, %eax	# D.21130, D.21119
	subl	%eax, %esi	# D.21119, D.21119
	movl	%esi, %eax	# D.21119, D.21119
	cltq
	salq	$2, %rax	#, D.21113
	addq	%rcx, %rax	# byte_abs.139, D.21118
	movl	(%rax), %eax	# *_437, D.21119
	addl	%eax, -612(%rbp)	# D.21119, LineSadBlk2
	.loc 1 430 0 discriminator 2
	movq	byte_abs(%rip), %rcx	# byte_abs, byte_abs.142
	movq	-520(%rbp), %rax	# refptr, refptr.143
	leaq	2(%rax), %rdx	#, tmp641
	movq	%rdx, -520(%rbp)	# tmp641, refptr
	movzwl	(%rax), %eax	# *refptr.143_441, D.21130
	movzwl	%ax, %esi	# D.21130, D.21119
	movq	-552(%rbp), %rax	# orgptr, orgptr.144
	leaq	2(%rax), %rdx	#, tmp642
	movq	%rdx, -552(%rbp)	# tmp642, orgptr
	movzwl	(%rax), %eax	# *orgptr.144_445, D.21130
	movzwl	%ax, %eax	# D.21130, D.21119
	subl	%eax, %esi	# D.21119, D.21119
	movl	%esi, %eax	# D.21119, D.21119
	cltq
	salq	$2, %rax	#, D.21113
	addq	%rcx, %rax	# byte_abs.142, D.21118
	movl	(%rax), %eax	# *_452, D.21119
	addl	%eax, -612(%rbp)	# D.21119, LineSadBlk2
	.loc 1 431 0 discriminator 2
	movq	byte_abs(%rip), %rcx	# byte_abs, byte_abs.145
	movq	-520(%rbp), %rax	# refptr, refptr.146
	leaq	2(%rax), %rdx	#, tmp643
	movq	%rdx, -520(%rbp)	# tmp643, refptr
	movzwl	(%rax), %eax	# *refptr.146_456, D.21130
	movzwl	%ax, %esi	# D.21130, D.21119
	movq	-552(%rbp), %rax	# orgptr, orgptr.147
	leaq	2(%rax), %rdx	#, tmp644
	movq	%rdx, -552(%rbp)	# tmp644, orgptr
	movzwl	(%rax), %eax	# *orgptr.147_460, D.21130
	movzwl	%ax, %eax	# D.21130, D.21119
	subl	%eax, %esi	# D.21119, D.21119
	movl	%esi, %eax	# D.21119, D.21119
	cltq
	salq	$2, %rax	#, D.21113
	addq	%rcx, %rax	# byte_abs.145, D.21118
	movl	(%rax), %eax	# *_467, D.21119
	addl	%eax, -612(%rbp)	# D.21119, LineSadBlk2
	.loc 1 432 0 discriminator 2
	movq	byte_abs(%rip), %rcx	# byte_abs, byte_abs.148
	movq	-520(%rbp), %rax	# refptr, refptr.149
	leaq	2(%rax), %rdx	#, tmp645
	movq	%rdx, -520(%rbp)	# tmp645, refptr
	movzwl	(%rax), %eax	# *refptr.149_471, D.21130
	movzwl	%ax, %esi	# D.21130, D.21119
	movq	-552(%rbp), %rax	# orgptr, orgptr.150
	leaq	2(%rax), %rdx	#, tmp646
	movq	%rdx, -552(%rbp)	# tmp646, orgptr
	movzwl	(%rax), %eax	# *orgptr.150_475, D.21130
	movzwl	%ax, %eax	# D.21130, D.21119
	subl	%eax, %esi	# D.21119, D.21119
	movl	%esi, %eax	# D.21119, D.21119
	cltq
	salq	$2, %rax	#, D.21113
	addq	%rcx, %rax	# byte_abs.148, D.21118
	movl	(%rax), %eax	# *_482, D.21119
	addl	%eax, -612(%rbp)	# D.21119, LineSadBlk2
	.loc 1 433 0 discriminator 2
	movq	byte_abs(%rip), %rcx	# byte_abs, byte_abs.151
	movq	-520(%rbp), %rax	# refptr, refptr.152
	leaq	2(%rax), %rdx	#, tmp647
	movq	%rdx, -520(%rbp)	# tmp647, refptr
	movzwl	(%rax), %eax	# *refptr.152_486, D.21130
	movzwl	%ax, %esi	# D.21130, D.21119
	movq	-552(%rbp), %rax	# orgptr, orgptr.153
	leaq	2(%rax), %rdx	#, tmp648
	movq	%rdx, -552(%rbp)	# tmp648, orgptr
	movzwl	(%rax), %eax	# *orgptr.153_490, D.21130
	movzwl	%ax, %eax	# D.21130, D.21119
	subl	%eax, %esi	# D.21119, D.21119
	movl	%esi, %eax	# D.21119, D.21119
	cltq
	salq	$2, %rax	#, D.21113
	addq	%rcx, %rax	# byte_abs.151, D.21118
	movl	(%rax), %eax	# *_497, D.21119
	addl	%eax, -608(%rbp)	# D.21119, LineSadBlk3
	.loc 1 434 0 discriminator 2
	movq	byte_abs(%rip), %rcx	# byte_abs, byte_abs.154
	movq	-520(%rbp), %rax	# refptr, refptr.155
	leaq	2(%rax), %rdx	#, tmp649
	movq	%rdx, -520(%rbp)	# tmp649, refptr
	movzwl	(%rax), %eax	# *refptr.155_501, D.21130
	movzwl	%ax, %esi	# D.21130, D.21119
	movq	-552(%rbp), %rax	# orgptr, orgptr.156
	leaq	2(%rax), %rdx	#, tmp650
	movq	%rdx, -552(%rbp)	# tmp650, orgptr
	movzwl	(%rax), %eax	# *orgptr.156_505, D.21130
	movzwl	%ax, %eax	# D.21130, D.21119
	subl	%eax, %esi	# D.21119, D.21119
	movl	%esi, %eax	# D.21119, D.21119
	cltq
	salq	$2, %rax	#, D.21113
	addq	%rcx, %rax	# byte_abs.154, D.21118
	movl	(%rax), %eax	# *_512, D.21119
	addl	%eax, -608(%rbp)	# D.21119, LineSadBlk3
	.loc 1 435 0 discriminator 2
	movq	byte_abs(%rip), %rcx	# byte_abs, byte_abs.157
	movq	-520(%rbp), %rax	# refptr, refptr.158
	leaq	2(%rax), %rdx	#, tmp651
	movq	%rdx, -520(%rbp)	# tmp651, refptr
	movzwl	(%rax), %eax	# *refptr.158_516, D.21130
	movzwl	%ax, %esi	# D.21130, D.21119
	movq	-552(%rbp), %rax	# orgptr, orgptr.159
	leaq	2(%rax), %rdx	#, tmp652
	movq	%rdx, -552(%rbp)	# tmp652, orgptr
	movzwl	(%rax), %eax	# *orgptr.159_520, D.21130
	movzwl	%ax, %eax	# D.21130, D.21119
	subl	%eax, %esi	# D.21119, D.21119
	movl	%esi, %eax	# D.21119, D.21119
	cltq
	salq	$2, %rax	#, D.21113
	addq	%rcx, %rax	# byte_abs.157, D.21118
	movl	(%rax), %eax	# *_527, D.21119
	addl	%eax, -608(%rbp)	# D.21119, LineSadBlk3
	.loc 1 436 0 discriminator 2
	movq	byte_abs(%rip), %rcx	# byte_abs, byte_abs.160
	movq	-520(%rbp), %rax	# refptr, refptr.161
	leaq	2(%rax), %rdx	#, tmp653
	movq	%rdx, -520(%rbp)	# tmp653, refptr
	movzwl	(%rax), %eax	# *refptr.161_531, D.21130
	movzwl	%ax, %esi	# D.21130, D.21119
	movq	-552(%rbp), %rax	# orgptr, orgptr.162
	leaq	2(%rax), %rdx	#, tmp654
	movq	%rdx, -552(%rbp)	# tmp654, orgptr
	movzwl	(%rax), %eax	# *orgptr.162_535, D.21130
	movzwl	%ax, %eax	# D.21130, D.21119
	subl	%eax, %esi	# D.21119, D.21119
	movl	%esi, %eax	# D.21119, D.21119
	cltq
	salq	$2, %rax	#, D.21113
	addq	%rcx, %rax	# byte_abs.160, D.21118
	movl	(%rax), %eax	# *_542, D.21119
	addl	%eax, -608(%rbp)	# D.21119, LineSadBlk3
	.loc 1 417 0 discriminator 2
	addl	$1, -644(%rbp)	#, y
.L130:
	.loc 1 417 0 is_stmt 0 discriminator 1
	cmpl	$3, -644(%rbp)	#, y
	jle	.L131	#,
	.loc 1 438 0 is_stmt 1
	movl	-628(%rbp), %eax	# bindex, bindex.163
	leal	1(%rax), %edx	#, tmp655
	movl	%edx, -628(%rbp)	# tmp655, bindex
	cltq
	leaq	0(,%rax,8), %rdx	#, D.21113
	movq	-536(%rbp), %rax	# block_sad, tmp656
	addq	%rdx, %rax	# D.21113, D.21117
	movq	(%rax), %rax	# *_550, D.21118
	movl	-636(%rbp), %edx	# pos, tmp657
	movslq	%edx, %rdx	# tmp657, D.21113
	salq	$2, %rdx	#, D.21113
	addq	%rax, %rdx	# D.21118, D.21118
	movl	-620(%rbp), %eax	# LineSadBlk0, tmp658
	movl	%eax, (%rdx)	# tmp658, *_554
	.loc 1 439 0
	movl	-628(%rbp), %eax	# bindex, bindex.164
	leal	1(%rax), %edx	#, tmp659
	movl	%edx, -628(%rbp)	# tmp659, bindex
	cltq
	leaq	0(,%rax,8), %rdx	#, D.21113
	movq	-536(%rbp), %rax	# block_sad, tmp660
	addq	%rdx, %rax	# D.21113, D.21117
	movq	(%rax), %rax	# *_559, D.21118
	movl	-636(%rbp), %edx	# pos, tmp661
	movslq	%edx, %rdx	# tmp661, D.21113
	salq	$2, %rdx	#, D.21113
	addq	%rax, %rdx	# D.21118, D.21118
	movl	-616(%rbp), %eax	# LineSadBlk1, tmp662
	movl	%eax, (%rdx)	# tmp662, *_563
	.loc 1 440 0
	movl	-628(%rbp), %eax	# bindex, bindex.165
	leal	1(%rax), %edx	#, tmp663
	movl	%edx, -628(%rbp)	# tmp663, bindex
	cltq
	leaq	0(,%rax,8), %rdx	#, D.21113
	movq	-536(%rbp), %rax	# block_sad, tmp664
	addq	%rdx, %rax	# D.21113, D.21117
	movq	(%rax), %rax	# *_568, D.21118
	movl	-636(%rbp), %edx	# pos, tmp665
	movslq	%edx, %rdx	# tmp665, D.21113
	salq	$2, %rdx	#, D.21113
	addq	%rax, %rdx	# D.21118, D.21118
	movl	-612(%rbp), %eax	# LineSadBlk2, tmp666
	movl	%eax, (%rdx)	# tmp666, *_572
	.loc 1 441 0
	movl	-628(%rbp), %eax	# bindex, bindex.166
	leal	1(%rax), %edx	#, tmp667
	movl	%edx, -628(%rbp)	# tmp667, bindex
	cltq
	leaq	0(,%rax,8), %rdx	#, D.21113
	movq	-536(%rbp), %rax	# block_sad, tmp668
	addq	%rdx, %rax	# D.21113, D.21117
	movq	(%rax), %rax	# *_577, D.21118
	movl	-636(%rbp), %edx	# pos, tmp669
	movslq	%edx, %rdx	# tmp669, D.21113
	salq	$2, %rdx	#, D.21113
	addq	%rax, %rdx	# D.21118, D.21118
	movl	-608(%rbp), %eax	# LineSadBlk3, tmp670
	movl	%eax, (%rdx)	# tmp670, *_581
	.loc 1 414 0
	addl	$1, -624(%rbp)	#, blky
.L129:
	.loc 1 414 0 is_stmt 0 discriminator 1
	cmpl	$3, -624(%rbp)	#, blky
	jle	.L132	#,
	.loc 1 394 0 is_stmt 1
	addl	$1, -636(%rbp)	#, pos
.L126:
	.loc 1 394 0 is_stmt 0 discriminator 1
	movl	-636(%rbp), %eax	# pos, tmp671
	cmpl	-600(%rbp), %eax	# max_pos, tmp671
	jl	.L133	#,
	.loc 1 447 0 is_stmt 1
	movswl	-660(%rbp), %ecx	# ref, D.21119
	movl	-600(%rbp), %edx	# max_pos, tmp672
	movl	-664(%rbp), %eax	# list, tmp673
	movl	%ecx, %esi	# D.21119,
	movl	%eax, %edi	# tmp673,
	call	SetupLargerBlocks	#
	.loc 1 451 0
	movq	search_setup_done(%rip), %rax	# search_setup_done, search_setup_done.167
	movl	-664(%rbp), %edx	# list, tmp674
	movslq	%edx, %rdx	# tmp674, D.21113
	salq	$3, %rdx	#, D.21113
	addq	%rdx, %rax	# D.21113, D.21117
	movq	(%rax), %rax	# *_588, D.21118
	movswq	-660(%rbp), %rdx	# ref, D.21113
	salq	$2, %rdx	#, D.21113
	addq	%rdx, %rax	# D.21113, D.21118
	movl	$1, (%rax)	#, *_592
	.loc 1 452 0
	leave
	.cfi_def_cfa 7, 8
	ret
	.cfi_endproc
.LFE6:
	.size	SetupFastFullPelSearch, .-SetupFastFullPelSearch
	.globl	SetMotionVectorPredictor
	.type	SetMotionVectorPredictor, @function
SetMotionVectorPredictor:
.LFB7:
	.loc 1 470 0
	.cfi_startproc
	pushq	%rbp	#
	.cfi_def_cfa_offset 16
	.cfi_offset 6, -16
	movq	%rsp, %rbp	#,
	.cfi_def_cfa_register 6
	subq	$256, %rsp	#,
	movq	%rdi, -216(%rbp)	# pmv, pmv
	movq	%rsi, -224(%rbp)	# refPic, refPic
	movq	%rdx, -232(%rbp)	# tmp_mv, tmp_mv
	movl	%ecx, %eax	# ref_frame, tmp918
	movl	%r8d, -240(%rbp)	# list, list
	movl	%r9d, -244(%rbp)	# block_x, block_x
	movw	%ax, -236(%rbp)	# tmp918, ref_frame
	.loc 1 471 0
	movl	-244(%rbp), %eax	# block_x, tmp922
	sall	$2, %eax	#, tmp921
	movl	%eax, -160(%rbp)	# tmp921, mb_x
	.loc 1 472 0
	movl	16(%rbp), %eax	# block_y, tmp926
	sall	$2, %eax	#, tmp925
	movl	%eax, -156(%rbp)	# tmp925, mb_y
	.loc 1 473 0
	movq	img(%rip), %rax	# img, img.168
	movl	12(%rax), %eax	# img.168_64->current_mb_nr, tmp927
	movl	%eax, -152(%rbp)	# tmp927, mb_nr
	.loc 1 475 0
	movl	$0, -196(%rbp)	#, pred_vec
	.loc 1 481 0
	movl	$0, -172(%rbp)	#, SAD_a
	movl	$0, -168(%rbp)	#, SAD_b
	movl	$0, -164(%rbp)	#, SAD_c
	movl	$0, -148(%rbp)	#, SAD_d
	.loc 1 484 0
	movq	input(%rip), %rax	# input, input.169
	movl	3292(%rax), %eax	# input.169_71->FMEnable, D.21131
	testl	%eax, %eax	# D.21131
	je	.L135	#,
	.loc 1 484 0 is_stmt 0 discriminator 1
	movl	$0, pred_SAD_space(%rip)	#, pred_SAD_space
.L135:
	.loc 1 486 0 is_stmt 1
	leaq	-128(%rbp), %rdx	#, tmp928
	movl	-244(%rbp), %esi	# block_x, tmp929
	movl	-152(%rbp), %eax	# mb_nr, tmp930
	movq	%rdx, %r9	# tmp928,
	movl	$0, %r8d	#,
	movl	$-1, %ecx	#,
	movl	16(%rbp), %edx	# block_y,
	movl	%eax, %edi	# tmp930,
	call	getLuma4x4Neighbour	#
	.loc 1 487 0
	leaq	-96(%rbp), %rdx	#, tmp931
	movl	-244(%rbp), %esi	# block_x, tmp932
	movl	-152(%rbp), %eax	# mb_nr, tmp933
	movq	%rdx, %r9	# tmp931,
	movl	$-1, %r8d	#,
	movl	$0, %ecx	#,
	movl	16(%rbp), %edx	# block_y,
	movl	%eax, %edi	# tmp933,
	call	getLuma4x4Neighbour	#
	.loc 1 488 0
	leaq	-64(%rbp), %rcx	#, tmp934
	movl	24(%rbp), %edx	# blockshape_x, tmp935
	movl	-244(%rbp), %esi	# block_x, tmp936
	movl	-152(%rbp), %eax	# mb_nr, tmp937
	movq	%rcx, %r9	# tmp934,
	movl	$-1, %r8d	#,
	movl	%edx, %ecx	# tmp935,
	movl	16(%rbp), %edx	# block_y,
	movl	%eax, %edi	# tmp937,
	call	getLuma4x4Neighbour	#
	.loc 1 489 0
	leaq	-32(%rbp), %rdx	#, tmp938
	movl	-244(%rbp), %esi	# block_x, tmp939
	movl	-152(%rbp), %eax	# mb_nr, tmp940
	movq	%rdx, %r9	# tmp938,
	movl	$-1, %r8d	#,
	movl	$-1, %ecx	#,
	movl	16(%rbp), %edx	# block_y,
	movl	%eax, %edi	# tmp940,
	call	getLuma4x4Neighbour	#
	.loc 1 491 0
	cmpl	$0, -156(%rbp)	#, mb_y
	jle	.L136	#,
	.loc 1 493 0
	cmpl	$7, -160(%rbp)	#, mb_x
	jg	.L137	#,
	.loc 1 495 0
	cmpl	$8, -156(%rbp)	#, mb_y
	jne	.L138	#,
	.loc 1 497 0
	cmpl	$16, 24(%rbp)	#, blockshape_x
	jne	.L139	#,
	.loc 1 497 0 is_stmt 0 discriminator 1
	movl	$0, -64(%rbp)	#, block_c.available
	jmp	.L136	#
.L139:
	.loc 1 498 0 is_stmt 1
	movl	-64(%rbp), %eax	# block_c.available, D.21131
	andl	$1, %eax	#, D.21131
	movl	%eax, -64(%rbp)	# D.21131, block_c.available
	jmp	.L136	#
.L138:
	.loc 1 502 0
	movl	24(%rbp), %eax	# blockshape_x, tmp941
	movl	-160(%rbp), %edx	# mb_x, tmp942
	addl	%edx, %eax	# tmp942, D.21131
	cmpl	$8, %eax	#, D.21131
	je	.L142	#,
	.loc 1 502 0 is_stmt 0 discriminator 1
	movl	-64(%rbp), %eax	# block_c.available, D.21131
	andl	$1, %eax	#, D.21131
	movl	%eax, -64(%rbp)	# D.21131, block_c.available
	jmp	.L136	#
.L142:
	.loc 1 503 0 is_stmt 1
	movl	$0, -64(%rbp)	#, block_c.available
	jmp	.L136	#
.L137:
	.loc 1 508 0
	movl	24(%rbp), %eax	# blockshape_x, tmp943
	movl	-160(%rbp), %edx	# mb_x, tmp944
	addl	%edx, %eax	# tmp944, D.21131
	cmpl	$16, %eax	#, D.21131
	je	.L143	#,
	.loc 1 508 0 is_stmt 0 discriminator 1
	movl	-64(%rbp), %eax	# block_c.available, D.21131
	andl	$1, %eax	#, D.21131
	movl	%eax, -64(%rbp)	# D.21131, block_c.available
	jmp	.L136	#
.L143:
	.loc 1 509 0 is_stmt 1
	movl	$0, -64(%rbp)	#, block_c.available
.L136:
	.loc 1 513 0
	movl	-64(%rbp), %eax	# block_c.available, D.21131
	testl	%eax, %eax	# D.21131
	jne	.L144	#,
	.loc 1 515 0
	movq	-32(%rbp), %rax	# block_d, tmp945
	movq	%rax, -64(%rbp)	# tmp945, block_c
	movq	-24(%rbp), %rax	# block_d, tmp946
	movq	%rax, -56(%rbp)	# tmp946, block_c
	movq	-16(%rbp), %rax	# block_d, tmp947
	movq	%rax, -48(%rbp)	# tmp947, block_c
.L144:
	.loc 1 518 0
	movl	$0, -192(%rbp)	#, mvPredType
	.loc 1 520 0
	movq	img(%rip), %rax	# img, img.170
	movl	72400(%rax), %eax	# img.170_84->MbaffFrameFlag, D.21131
	testl	%eax, %eax	# D.21131
	jne	.L145	#,
	.loc 1 522 0
	movl	-128(%rbp), %eax	# block_a.available, D.21131
	testl	%eax, %eax	# D.21131
	je	.L146	#,
	.loc 1 522 0 is_stmt 0 discriminator 1
	movl	-240(%rbp), %eax	# list, tmp948
	cltq
	leaq	0(,%rax,8), %rdx	#, D.21132
	movq	-224(%rbp), %rax	# refPic, tmp949
	addq	%rdx, %rax	# D.21132, D.21133
	movq	(%rax), %rax	# *_91, D.21134
	movl	-112(%rbp), %edx	# block_a.pos_x, D.21131
	movslq	%edx, %rdx	# D.21131, D.21132
	salq	$3, %rdx	#, D.21132
	addq	%rdx, %rax	# D.21132, D.21134
	movq	(%rax), %rax	# *_96, D.21135
	movl	-108(%rbp), %edx	# block_a.pos_y, D.21131
	movslq	%edx, %rdx	# D.21131, D.21132
	addq	%rdx, %rdx	# D.21132
	addq	%rdx, %rax	# D.21132, D.21135
	movzwl	(%rax), %eax	# *_101, D.21136
	cwtl
	jmp	.L147	#
.L146:
	.loc 1 522 0 discriminator 2
	movl	$-1, %eax	#, iftmp.171
.L147:
	.loc 1 522 0 discriminator 3
	movl	%eax, -188(%rbp)	# iftmp.171, rFrameL
	.loc 1 523 0 is_stmt 1 discriminator 3
	movl	-96(%rbp), %eax	# block_b.available, D.21131
	testl	%eax, %eax	# D.21131
	je	.L148	#,
	.loc 1 523 0 is_stmt 0 discriminator 1
	movl	-240(%rbp), %eax	# list, tmp950
	cltq
	leaq	0(,%rax,8), %rdx	#, D.21132
	movq	-224(%rbp), %rax	# refPic, tmp951
	addq	%rdx, %rax	# D.21132, D.21133
	movq	(%rax), %rax	# *_109, D.21134
	movl	-80(%rbp), %edx	# block_b.pos_x, D.21131
	movslq	%edx, %rdx	# D.21131, D.21132
	salq	$3, %rdx	#, D.21132
	addq	%rdx, %rax	# D.21132, D.21134
	movq	(%rax), %rax	# *_114, D.21135
	movl	-76(%rbp), %edx	# block_b.pos_y, D.21131
	movslq	%edx, %rdx	# D.21131, D.21132
	addq	%rdx, %rdx	# D.21132
	addq	%rdx, %rax	# D.21132, D.21135
	movzwl	(%rax), %eax	# *_119, D.21136
	cwtl
	jmp	.L149	#
.L148:
	.loc 1 523 0 discriminator 2
	movl	$-1, %eax	#, iftmp.172
.L149:
	.loc 1 523 0 discriminator 3
	movl	%eax, -184(%rbp)	# iftmp.172, rFrameU
	.loc 1 524 0 is_stmt 1 discriminator 3
	movl	-64(%rbp), %eax	# block_c.available, D.21131
	testl	%eax, %eax	# D.21131
	je	.L150	#,
	.loc 1 524 0 is_stmt 0 discriminator 1
	movl	-240(%rbp), %eax	# list, tmp952
	cltq
	leaq	0(,%rax,8), %rdx	#, D.21132
	movq	-224(%rbp), %rax	# refPic, tmp953
	addq	%rdx, %rax	# D.21132, D.21133
	movq	(%rax), %rax	# *_127, D.21134
	movl	-48(%rbp), %edx	# block_c.pos_x, D.21131
	movslq	%edx, %rdx	# D.21131, D.21132
	salq	$3, %rdx	#, D.21132
	addq	%rdx, %rax	# D.21132, D.21134
	movq	(%rax), %rax	# *_132, D.21135
	movl	-44(%rbp), %edx	# block_c.pos_y, D.21131
	movslq	%edx, %rdx	# D.21131, D.21132
	addq	%rdx, %rdx	# D.21132
	addq	%rdx, %rax	# D.21132, D.21135
	movzwl	(%rax), %eax	# *_137, D.21136
	cwtl
	jmp	.L151	#
.L150:
	.loc 1 524 0 discriminator 2
	movl	$-1, %eax	#, iftmp.173
.L151:
	.loc 1 524 0 discriminator 3
	movl	%eax, -180(%rbp)	# iftmp.173, rFrameUR
	jmp	.L152	#
.L145:
	.loc 1 528 0 is_stmt 1
	movq	img(%rip), %rax	# img, img.174
	movq	14168(%rax), %rdx	# img.174_142->mb_data, D.21137
	movq	img(%rip), %rax	# img, img.175
	movl	12(%rax), %eax	# img.175_144->current_mb_nr, D.21131
	cltq
	imulq	$632, %rax, %rax	#, D.21132, D.21132
	addq	%rdx, %rax	# D.21137, D.21137
	movl	532(%rax), %eax	# _148->mb_field, D.21131
	testl	%eax, %eax	# D.21131
	je	.L153	#,
	.loc 1 530 0
	movl	-128(%rbp), %eax	# block_a.available, D.21131
	.loc 1 533 0
	testl	%eax, %eax	# D.21131
	je	.L154	#,
	.loc 1 531 0
	movq	img(%rip), %rax	# img, img.178
	movq	14168(%rax), %rdx	# img.178_151->mb_data, D.21137
	movl	-124(%rbp), %eax	# block_a.mb_addr, D.21131
	cltq
	imulq	$632, %rax, %rax	#, D.21132, D.21132
	addq	%rdx, %rax	# D.21137, D.21137
	movl	532(%rax), %eax	# _156->mb_field, D.21131
	.loc 1 532 0
	testl	%eax, %eax	# D.21131
	je	.L155	#,
	.loc 1 532 0 is_stmt 0 discriminator 1
	movl	-240(%rbp), %eax	# list, tmp954
	cltq
	leaq	0(,%rax,8), %rdx	#, D.21132
	movq	-224(%rbp), %rax	# refPic, tmp955
	addq	%rdx, %rax	# D.21132, D.21133
	movq	(%rax), %rax	# *_160, D.21134
	movl	-112(%rbp), %edx	# block_a.pos_x, D.21131
	movslq	%edx, %rdx	# D.21131, D.21132
	salq	$3, %rdx	#, D.21132
	addq	%rdx, %rax	# D.21132, D.21134
	movq	(%rax), %rax	# *_165, D.21135
	movl	-108(%rbp), %edx	# block_a.pos_y, D.21131
	movslq	%edx, %rdx	# D.21131, D.21132
	addq	%rdx, %rdx	# D.21132
	addq	%rdx, %rax	# D.21132, D.21135
	movzwl	(%rax), %eax	# *_170, D.21136
	cwtl
	jmp	.L157	#
.L155:
	.loc 1 533 0 is_stmt 1 discriminator 2
	movl	-240(%rbp), %eax	# list, tmp956
	cltq
	leaq	0(,%rax,8), %rdx	#, D.21132
	movq	-224(%rbp), %rax	# refPic, tmp957
	addq	%rdx, %rax	# D.21132, D.21133
	movq	(%rax), %rax	# *_175, D.21134
	movl	-112(%rbp), %edx	# block_a.pos_x, D.21131
	movslq	%edx, %rdx	# D.21131, D.21132
	salq	$3, %rdx	#, D.21132
	addq	%rdx, %rax	# D.21132, D.21134
	movq	(%rax), %rax	# *_180, D.21135
	movl	-108(%rbp), %edx	# block_a.pos_y, D.21131
	movslq	%edx, %rdx	# D.21131, D.21132
	addq	%rdx, %rdx	# D.21132
	addq	%rdx, %rax	# D.21132, D.21135
	movzwl	(%rax), %eax	# *_185, D.21136
	cwtl
	.loc 1 532 0 discriminator 2
	addl	%eax, %eax	# iftmp.177
	jmp	.L157	#
.L154:
	.loc 1 533 0 discriminator 1
	movl	$-1, %eax	#, iftmp.176
.L157:
	.loc 1 530 0
	movl	%eax, -188(%rbp)	# iftmp.176, rFrameL
	.loc 1 535 0
	movl	-96(%rbp), %eax	# block_b.available, D.21131
	.loc 1 538 0
	testl	%eax, %eax	# D.21131
	je	.L158	#,
	.loc 1 536 0
	movq	img(%rip), %rax	# img, img.181
	movq	14168(%rax), %rdx	# img.181_193->mb_data, D.21137
	movl	-92(%rbp), %eax	# block_b.mb_addr, D.21131
	cltq
	imulq	$632, %rax, %rax	#, D.21132, D.21132
	addq	%rdx, %rax	# D.21137, D.21137
	movl	532(%rax), %eax	# _198->mb_field, D.21131
	.loc 1 537 0
	testl	%eax, %eax	# D.21131
	je	.L159	#,
	.loc 1 537 0 is_stmt 0 discriminator 1
	movl	-240(%rbp), %eax	# list, tmp958
	cltq
	leaq	0(,%rax,8), %rdx	#, D.21132
	movq	-224(%rbp), %rax	# refPic, tmp959
	addq	%rdx, %rax	# D.21132, D.21133
	movq	(%rax), %rax	# *_202, D.21134
	movl	-80(%rbp), %edx	# block_b.pos_x, D.21131
	movslq	%edx, %rdx	# D.21131, D.21132
	salq	$3, %rdx	#, D.21132
	addq	%rdx, %rax	# D.21132, D.21134
	movq	(%rax), %rax	# *_207, D.21135
	movl	-76(%rbp), %edx	# block_b.pos_y, D.21131
	movslq	%edx, %rdx	# D.21131, D.21132
	addq	%rdx, %rdx	# D.21132
	addq	%rdx, %rax	# D.21132, D.21135
	movzwl	(%rax), %eax	# *_212, D.21136
	cwtl
	jmp	.L161	#
.L159:
	.loc 1 538 0 is_stmt 1 discriminator 2
	movl	-240(%rbp), %eax	# list, tmp960
	cltq
	leaq	0(,%rax,8), %rdx	#, D.21132
	movq	-224(%rbp), %rax	# refPic, tmp961
	addq	%rdx, %rax	# D.21132, D.21133
	movq	(%rax), %rax	# *_217, D.21134
	movl	-80(%rbp), %edx	# block_b.pos_x, D.21131
	movslq	%edx, %rdx	# D.21131, D.21132
	salq	$3, %rdx	#, D.21132
	addq	%rdx, %rax	# D.21132, D.21134
	movq	(%rax), %rax	# *_222, D.21135
	movl	-76(%rbp), %edx	# block_b.pos_y, D.21131
	movslq	%edx, %rdx	# D.21131, D.21132
	addq	%rdx, %rdx	# D.21132
	addq	%rdx, %rax	# D.21132, D.21135
	movzwl	(%rax), %eax	# *_227, D.21136
	cwtl
	.loc 1 537 0 discriminator 2
	addl	%eax, %eax	# iftmp.180
	jmp	.L161	#
.L158:
	.loc 1 538 0 discriminator 1
	movl	$-1, %eax	#, iftmp.179
.L161:
	.loc 1 535 0
	movl	%eax, -184(%rbp)	# iftmp.179, rFrameU
	.loc 1 540 0
	movl	-64(%rbp), %eax	# block_c.available, D.21131
	.loc 1 543 0
	testl	%eax, %eax	# D.21131
	je	.L162	#,
	.loc 1 541 0
	movq	img(%rip), %rax	# img, img.184
	movq	14168(%rax), %rdx	# img.184_235->mb_data, D.21137
	movl	-60(%rbp), %eax	# block_c.mb_addr, D.21131
	cltq
	imulq	$632, %rax, %rax	#, D.21132, D.21132
	addq	%rdx, %rax	# D.21137, D.21137
	movl	532(%rax), %eax	# _240->mb_field, D.21131
	.loc 1 542 0
	testl	%eax, %eax	# D.21131
	je	.L163	#,
	.loc 1 542 0 is_stmt 0 discriminator 1
	movl	-240(%rbp), %eax	# list, tmp962
	cltq
	leaq	0(,%rax,8), %rdx	#, D.21132
	movq	-224(%rbp), %rax	# refPic, tmp963
	addq	%rdx, %rax	# D.21132, D.21133
	movq	(%rax), %rax	# *_244, D.21134
	movl	-48(%rbp), %edx	# block_c.pos_x, D.21131
	movslq	%edx, %rdx	# D.21131, D.21132
	salq	$3, %rdx	#, D.21132
	addq	%rdx, %rax	# D.21132, D.21134
	movq	(%rax), %rax	# *_249, D.21135
	movl	-44(%rbp), %edx	# block_c.pos_y, D.21131
	movslq	%edx, %rdx	# D.21131, D.21132
	addq	%rdx, %rdx	# D.21132
	addq	%rdx, %rax	# D.21132, D.21135
	movzwl	(%rax), %eax	# *_254, D.21136
	cwtl
	jmp	.L165	#
.L163:
	.loc 1 543 0 is_stmt 1 discriminator 2
	movl	-240(%rbp), %eax	# list, tmp964
	cltq
	leaq	0(,%rax,8), %rdx	#, D.21132
	movq	-224(%rbp), %rax	# refPic, tmp965
	addq	%rdx, %rax	# D.21132, D.21133
	movq	(%rax), %rax	# *_259, D.21134
	movl	-48(%rbp), %edx	# block_c.pos_x, D.21131
	movslq	%edx, %rdx	# D.21131, D.21132
	salq	$3, %rdx	#, D.21132
	addq	%rdx, %rax	# D.21132, D.21134
	movq	(%rax), %rax	# *_264, D.21135
	movl	-44(%rbp), %edx	# block_c.pos_y, D.21131
	movslq	%edx, %rdx	# D.21131, D.21132
	addq	%rdx, %rdx	# D.21132
	addq	%rdx, %rax	# D.21132, D.21135
	movzwl	(%rax), %eax	# *_269, D.21136
	cwtl
	.loc 1 542 0 discriminator 2
	addl	%eax, %eax	# iftmp.183
	jmp	.L165	#
.L162:
	.loc 1 543 0 discriminator 1
	movl	$-1, %eax	#, iftmp.182
.L165:
	.loc 1 540 0 discriminator 7
	movl	%eax, -180(%rbp)	# iftmp.182, rFrameUR
	jmp	.L152	#
.L153:
	.loc 1 548 0
	movl	-128(%rbp), %eax	# block_a.available, D.21131
	.loc 1 551 0
	testl	%eax, %eax	# D.21131
	je	.L166	#,
	.loc 1 549 0
	movq	img(%rip), %rax	# img, img.187
	movq	14168(%rax), %rdx	# img.187_277->mb_data, D.21137
	movl	-124(%rbp), %eax	# block_a.mb_addr, D.21131
	cltq
	imulq	$632, %rax, %rax	#, D.21132, D.21132
	addq	%rdx, %rax	# D.21137, D.21137
	movl	532(%rax), %eax	# _282->mb_field, D.21131
	.loc 1 550 0
	testl	%eax, %eax	# D.21131
	je	.L167	#,
	.loc 1 550 0 is_stmt 0 discriminator 1
	movl	-240(%rbp), %eax	# list, tmp966
	cltq
	leaq	0(,%rax,8), %rdx	#, D.21132
	movq	-224(%rbp), %rax	# refPic, tmp967
	addq	%rdx, %rax	# D.21132, D.21133
	movq	(%rax), %rax	# *_286, D.21134
	movl	-112(%rbp), %edx	# block_a.pos_x, D.21131
	movslq	%edx, %rdx	# D.21131, D.21132
	salq	$3, %rdx	#, D.21132
	addq	%rdx, %rax	# D.21132, D.21134
	movq	(%rax), %rax	# *_291, D.21135
	movl	-108(%rbp), %edx	# block_a.pos_y, D.21131
	movslq	%edx, %rdx	# D.21131, D.21132
	addq	%rdx, %rdx	# D.21132
	addq	%rdx, %rax	# D.21132, D.21135
	movzwl	(%rax), %eax	# *_296, D.21136
	sarw	%ax	# D.21136
	cwtl
	jmp	.L169	#
.L167:
	.loc 1 551 0 is_stmt 1 discriminator 2
	movl	-240(%rbp), %eax	# list, tmp968
	cltq
	leaq	0(,%rax,8), %rdx	#, D.21132
	movq	-224(%rbp), %rax	# refPic, tmp969
	addq	%rdx, %rax	# D.21132, D.21133
	movq	(%rax), %rax	# *_302, D.21134
	movl	-112(%rbp), %edx	# block_a.pos_x, D.21131
	movslq	%edx, %rdx	# D.21131, D.21132
	salq	$3, %rdx	#, D.21132
	addq	%rdx, %rax	# D.21132, D.21134
	movq	(%rax), %rax	# *_307, D.21135
	movl	-108(%rbp), %edx	# block_a.pos_y, D.21131
	movslq	%edx, %rdx	# D.21131, D.21132
	addq	%rdx, %rdx	# D.21132
	addq	%rdx, %rax	# D.21132, D.21135
	movzwl	(%rax), %eax	# *_312, D.21136
	.loc 1 550 0 discriminator 2
	cwtl
	jmp	.L169	#
.L166:
	.loc 1 551 0 discriminator 1
	movl	$-1, %eax	#, iftmp.185
.L169:
	.loc 1 548 0
	movl	%eax, -188(%rbp)	# iftmp.185, rFrameL
	.loc 1 553 0
	movl	-96(%rbp), %eax	# block_b.available, D.21131
	.loc 1 556 0
	testl	%eax, %eax	# D.21131
	je	.L170	#,
	.loc 1 554 0
	movq	img(%rip), %rax	# img, img.190
	movq	14168(%rax), %rdx	# img.190_319->mb_data, D.21137
	movl	-92(%rbp), %eax	# block_b.mb_addr, D.21131
	cltq
	imulq	$632, %rax, %rax	#, D.21132, D.21132
	addq	%rdx, %rax	# D.21137, D.21137
	movl	532(%rax), %eax	# _324->mb_field, D.21131
	.loc 1 555 0
	testl	%eax, %eax	# D.21131
	je	.L171	#,
	.loc 1 555 0 is_stmt 0 discriminator 1
	movl	-240(%rbp), %eax	# list, tmp970
	cltq
	leaq	0(,%rax,8), %rdx	#, D.21132
	movq	-224(%rbp), %rax	# refPic, tmp971
	addq	%rdx, %rax	# D.21132, D.21133
	movq	(%rax), %rax	# *_328, D.21134
	movl	-80(%rbp), %edx	# block_b.pos_x, D.21131
	movslq	%edx, %rdx	# D.21131, D.21132
	salq	$3, %rdx	#, D.21132
	addq	%rdx, %rax	# D.21132, D.21134
	movq	(%rax), %rax	# *_333, D.21135
	movl	-76(%rbp), %edx	# block_b.pos_y, D.21131
	movslq	%edx, %rdx	# D.21131, D.21132
	addq	%rdx, %rdx	# D.21132
	addq	%rdx, %rax	# D.21132, D.21135
	movzwl	(%rax), %eax	# *_338, D.21136
	sarw	%ax	# D.21136
	cwtl
	jmp	.L173	#
.L171:
	.loc 1 556 0 is_stmt 1 discriminator 2
	movl	-240(%rbp), %eax	# list, tmp972
	cltq
	leaq	0(,%rax,8), %rdx	#, D.21132
	movq	-224(%rbp), %rax	# refPic, tmp973
	addq	%rdx, %rax	# D.21132, D.21133
	movq	(%rax), %rax	# *_344, D.21134
	movl	-80(%rbp), %edx	# block_b.pos_x, D.21131
	movslq	%edx, %rdx	# D.21131, D.21132
	salq	$3, %rdx	#, D.21132
	addq	%rdx, %rax	# D.21132, D.21134
	movq	(%rax), %rax	# *_349, D.21135
	movl	-76(%rbp), %edx	# block_b.pos_y, D.21131
	movslq	%edx, %rdx	# D.21131, D.21132
	addq	%rdx, %rdx	# D.21132
	addq	%rdx, %rax	# D.21132, D.21135
	movzwl	(%rax), %eax	# *_354, D.21136
	.loc 1 555 0 discriminator 2
	cwtl
	jmp	.L173	#
.L170:
	.loc 1 556 0 discriminator 1
	movl	$-1, %eax	#, iftmp.188
.L173:
	.loc 1 553 0
	movl	%eax, -184(%rbp)	# iftmp.188, rFrameU
	.loc 1 558 0
	movl	-64(%rbp), %eax	# block_c.available, D.21131
	.loc 1 561 0
	testl	%eax, %eax	# D.21131
	je	.L174	#,
	.loc 1 559 0
	movq	img(%rip), %rax	# img, img.193
	movq	14168(%rax), %rdx	# img.193_361->mb_data, D.21137
	movl	-60(%rbp), %eax	# block_c.mb_addr, D.21131
	cltq
	imulq	$632, %rax, %rax	#, D.21132, D.21132
	addq	%rdx, %rax	# D.21137, D.21137
	movl	532(%rax), %eax	# _366->mb_field, D.21131
	.loc 1 560 0
	testl	%eax, %eax	# D.21131
	je	.L175	#,
	.loc 1 560 0 is_stmt 0 discriminator 1
	movl	-240(%rbp), %eax	# list, tmp974
	cltq
	leaq	0(,%rax,8), %rdx	#, D.21132
	movq	-224(%rbp), %rax	# refPic, tmp975
	addq	%rdx, %rax	# D.21132, D.21133
	movq	(%rax), %rax	# *_370, D.21134
	movl	-48(%rbp), %edx	# block_c.pos_x, D.21131
	movslq	%edx, %rdx	# D.21131, D.21132
	salq	$3, %rdx	#, D.21132
	addq	%rdx, %rax	# D.21132, D.21134
	movq	(%rax), %rax	# *_375, D.21135
	movl	-44(%rbp), %edx	# block_c.pos_y, D.21131
	movslq	%edx, %rdx	# D.21131, D.21132
	addq	%rdx, %rdx	# D.21132
	addq	%rdx, %rax	# D.21132, D.21135
	movzwl	(%rax), %eax	# *_380, D.21136
	sarw	%ax	# D.21136
	cwtl
	jmp	.L177	#
.L175:
	.loc 1 561 0 is_stmt 1 discriminator 2
	movl	-240(%rbp), %eax	# list, tmp976
	cltq
	leaq	0(,%rax,8), %rdx	#, D.21132
	movq	-224(%rbp), %rax	# refPic, tmp977
	addq	%rdx, %rax	# D.21132, D.21133
	movq	(%rax), %rax	# *_386, D.21134
	movl	-48(%rbp), %edx	# block_c.pos_x, D.21131
	movslq	%edx, %rdx	# D.21131, D.21132
	salq	$3, %rdx	#, D.21132
	addq	%rdx, %rax	# D.21132, D.21134
	movq	(%rax), %rax	# *_391, D.21135
	movl	-44(%rbp), %edx	# block_c.pos_y, D.21131
	movslq	%edx, %rdx	# D.21131, D.21132
	addq	%rdx, %rdx	# D.21132
	addq	%rdx, %rax	# D.21132, D.21135
	movzwl	(%rax), %eax	# *_396, D.21136
	.loc 1 560 0 discriminator 2
	cwtl
	jmp	.L177	#
.L174:
	.loc 1 561 0 discriminator 1
	movl	$-1, %eax	#, iftmp.191
.L177:
	.loc 1 558 0
	movl	%eax, -180(%rbp)	# iftmp.191, rFrameUR
.L152:
	.loc 1 569 0
	movswl	-236(%rbp), %eax	# ref_frame, D.21131
	cmpl	-188(%rbp), %eax	# rFrameL, D.21131
	jne	.L178	#,
	.loc 1 569 0 is_stmt 0 discriminator 1
	movswl	-236(%rbp), %eax	# ref_frame, D.21131
	cmpl	-184(%rbp), %eax	# rFrameU, D.21131
	je	.L178	#,
	movswl	-236(%rbp), %eax	# ref_frame, D.21131
	cmpl	-180(%rbp), %eax	# rFrameUR, D.21131
	je	.L178	#,
	movl	$1, -192(%rbp)	#, mvPredType
	jmp	.L179	#
.L178:
	.loc 1 570 0 is_stmt 1
	movswl	-236(%rbp), %eax	# ref_frame, D.21131
	cmpl	-188(%rbp), %eax	# rFrameL, D.21131
	je	.L180	#,
	.loc 1 570 0 is_stmt 0 discriminator 1
	movswl	-236(%rbp), %eax	# ref_frame, D.21131
	cmpl	-184(%rbp), %eax	# rFrameU, D.21131
	jne	.L180	#,
	movswl	-236(%rbp), %eax	# ref_frame, D.21131
	cmpl	-180(%rbp), %eax	# rFrameUR, D.21131
	je	.L180	#,
	movl	$2, -192(%rbp)	#, mvPredType
	jmp	.L179	#
.L180:
	.loc 1 571 0 is_stmt 1
	movswl	-236(%rbp), %eax	# ref_frame, D.21131
	cmpl	-188(%rbp), %eax	# rFrameL, D.21131
	je	.L179	#,
	.loc 1 571 0 is_stmt 0 discriminator 1
	movswl	-236(%rbp), %eax	# ref_frame, D.21131
	cmpl	-184(%rbp), %eax	# rFrameU, D.21131
	je	.L179	#,
	movswl	-236(%rbp), %eax	# ref_frame, D.21131
	cmpl	-180(%rbp), %eax	# rFrameUR, D.21131
	jne	.L179	#,
	movl	$3, -192(%rbp)	#, mvPredType
.L179:
	.loc 1 573 0 is_stmt 1
	cmpl	$8, 24(%rbp)	#, blockshape_x
	jne	.L181	#,
	.loc 1 573 0 is_stmt 0 discriminator 1
	cmpl	$16, 32(%rbp)	#, blockshape_y
	jne	.L181	#,
	.loc 1 575 0 is_stmt 1
	cmpl	$0, -160(%rbp)	#, mb_x
	jne	.L182	#,
	.loc 1 577 0
	movswl	-236(%rbp), %eax	# ref_frame, D.21131
	cmpl	-188(%rbp), %eax	# rFrameL, D.21131
	jne	.L184	#,
	.loc 1 578 0
	movl	$1, -192(%rbp)	#, mvPredType
	.loc 1 575 0
	jmp	.L185	#
.L182:
	.loc 1 582 0
	movswl	-236(%rbp), %eax	# ref_frame, D.21131
	cmpl	-180(%rbp), %eax	# rFrameUR, D.21131
	jne	.L184	#,
	.loc 1 583 0
	movl	$3, -192(%rbp)	#, mvPredType
	.loc 1 575 0
	jmp	.L185	#
.L184:
	jmp	.L185	#
.L181:
	.loc 1 586 0
	cmpl	$16, 24(%rbp)	#, blockshape_x
	jne	.L185	#,
	.loc 1 586 0 is_stmt 0 discriminator 1
	cmpl	$8, 32(%rbp)	#, blockshape_y
	jne	.L185	#,
	.loc 1 588 0 is_stmt 1
	cmpl	$0, -156(%rbp)	#, mb_y
	jne	.L186	#,
	.loc 1 590 0
	movswl	-236(%rbp), %eax	# ref_frame, D.21131
	cmpl	-184(%rbp), %eax	# rFrameU, D.21131
	jne	.L185	#,
	.loc 1 591 0
	movl	$2, -192(%rbp)	#, mvPredType
	jmp	.L185	#
.L186:
	.loc 1 595 0
	movswl	-236(%rbp), %eax	# ref_frame, D.21131
	cmpl	-188(%rbp), %eax	# rFrameL, D.21131
	jne	.L185	#,
	.loc 1 596 0
	movl	$1, -192(%rbp)	#, mvPredType
.L185:
	.loc 1 600 0
	movl	$0, -176(%rbp)	#, hv
	jmp	.L188	#
.L256:
	.loc 1 602 0
	movq	img(%rip), %rax	# img, img.194
	movl	72400(%rax), %eax	# img.194_425->MbaffFrameFlag, D.21131
	testl	%eax, %eax	# D.21131
	je	.L189	#,
	.loc 1 602 0 is_stmt 0 discriminator 1
	cmpl	$0, -176(%rbp)	#, hv
	jne	.L190	#,
.L189:
	.loc 1 604 0 is_stmt 1
	movl	-128(%rbp), %eax	# block_a.available, D.21131
	testl	%eax, %eax	# D.21131
	je	.L191	#,
	.loc 1 604 0 is_stmt 0 discriminator 1
	movl	-240(%rbp), %eax	# list, tmp978
	cltq
	leaq	0(,%rax,8), %rdx	#, D.21132
	movq	-232(%rbp), %rax	# tmp_mv, tmp979
	addq	%rdx, %rax	# D.21132, D.21138
	movq	(%rax), %rax	# *_739, D.21133
	movl	-112(%rbp), %edx	# block_a.pos_x, D.21131
	movslq	%edx, %rdx	# D.21131, D.21132
	salq	$3, %rdx	#, D.21132
	addq	%rdx, %rax	# D.21132, D.21133
	movq	(%rax), %rax	# *_744, D.21134
	movl	-108(%rbp), %edx	# block_a.pos_y, D.21131
	movslq	%edx, %rdx	# D.21131, D.21132
	salq	$3, %rdx	#, D.21132
	addq	%rdx, %rax	# D.21132, D.21134
	movq	(%rax), %rax	# *_749, D.21135
	movl	-176(%rbp), %edx	# hv, tmp980
	movslq	%edx, %rdx	# tmp980, D.21132
	addq	%rdx, %rdx	# D.21132
	addq	%rdx, %rax	# D.21132, D.21135
	movzwl	(%rax), %eax	# *_753, D.21136
	cwtl
	jmp	.L192	#
.L191:
	.loc 1 604 0 discriminator 2
	movl	$0, %eax	#, iftmp.195
.L192:
	.loc 1 604 0 discriminator 3
	movl	%eax, -208(%rbp)	# iftmp.195, mv_a
	.loc 1 605 0 is_stmt 1 discriminator 3
	movl	-96(%rbp), %eax	# block_b.available, D.21131
	testl	%eax, %eax	# D.21131
	je	.L193	#,
	.loc 1 605 0 is_stmt 0 discriminator 1
	movl	-240(%rbp), %eax	# list, tmp981
	cltq
	leaq	0(,%rax,8), %rdx	#, D.21132
	movq	-232(%rbp), %rax	# tmp_mv, tmp982
	addq	%rdx, %rax	# D.21132, D.21138
	movq	(%rax), %rax	# *_761, D.21133
	movl	-80(%rbp), %edx	# block_b.pos_x, D.21131
	movslq	%edx, %rdx	# D.21131, D.21132
	salq	$3, %rdx	#, D.21132
	addq	%rdx, %rax	# D.21132, D.21133
	movq	(%rax), %rax	# *_766, D.21134
	movl	-76(%rbp), %edx	# block_b.pos_y, D.21131
	movslq	%edx, %rdx	# D.21131, D.21132
	salq	$3, %rdx	#, D.21132
	addq	%rdx, %rax	# D.21132, D.21134
	movq	(%rax), %rax	# *_771, D.21135
	movl	-176(%rbp), %edx	# hv, tmp983
	movslq	%edx, %rdx	# tmp983, D.21132
	addq	%rdx, %rdx	# D.21132
	addq	%rdx, %rax	# D.21132, D.21135
	movzwl	(%rax), %eax	# *_775, D.21136
	cwtl
	jmp	.L194	#
.L193:
	.loc 1 605 0 discriminator 2
	movl	$0, %eax	#, iftmp.196
.L194:
	.loc 1 605 0 discriminator 3
	movl	%eax, -204(%rbp)	# iftmp.196, mv_b
	.loc 1 606 0 is_stmt 1 discriminator 3
	movl	-64(%rbp), %eax	# block_c.available, D.21131
	testl	%eax, %eax	# D.21131
	je	.L195	#,
	.loc 1 606 0 is_stmt 0 discriminator 1
	movl	-240(%rbp), %eax	# list, tmp984
	cltq
	leaq	0(,%rax,8), %rdx	#, D.21132
	movq	-232(%rbp), %rax	# tmp_mv, tmp985
	addq	%rdx, %rax	# D.21132, D.21138
	movq	(%rax), %rax	# *_783, D.21133
	movl	-48(%rbp), %edx	# block_c.pos_x, D.21131
	movslq	%edx, %rdx	# D.21131, D.21132
	salq	$3, %rdx	#, D.21132
	addq	%rdx, %rax	# D.21132, D.21133
	movq	(%rax), %rax	# *_788, D.21134
	movl	-44(%rbp), %edx	# block_c.pos_y, D.21131
	movslq	%edx, %rdx	# D.21131, D.21132
	salq	$3, %rdx	#, D.21132
	addq	%rdx, %rax	# D.21132, D.21134
	movq	(%rax), %rax	# *_793, D.21135
	movl	-176(%rbp), %edx	# hv, tmp986
	movslq	%edx, %rdx	# tmp986, D.21132
	addq	%rdx, %rdx	# D.21132
	addq	%rdx, %rax	# D.21132, D.21135
	movzwl	(%rax), %eax	# *_797, D.21136
	cwtl
	jmp	.L196	#
.L195:
	.loc 1 606 0 discriminator 2
	movl	$0, %eax	#, iftmp.197
.L196:
	.loc 1 606 0 discriminator 3
	movl	%eax, -200(%rbp)	# iftmp.197, mv_c
	jmp	.L197	#
.L190:
	.loc 1 610 0 is_stmt 1
	movq	img(%rip), %rax	# img, img.198
	movq	14168(%rax), %rdx	# img.198_427->mb_data, D.21137
	movq	img(%rip), %rax	# img, img.199
	movl	12(%rax), %eax	# img.199_429->current_mb_nr, D.21131
	cltq
	imulq	$632, %rax, %rax	#, D.21132, D.21132
	addq	%rdx, %rax	# D.21137, D.21137
	movl	532(%rax), %eax	# _433->mb_field, D.21131
	testl	%eax, %eax	# D.21131
	je	.L198	#,
	.loc 1 612 0
	movl	-128(%rbp), %eax	# block_a.available, D.21131
	.loc 1 614 0
	testl	%eax, %eax	# D.21131
	je	.L199	#,
	.loc 1 612 0
	movq	img(%rip), %rax	# img, img.202
	movq	14168(%rax), %rdx	# img.202_436->mb_data, D.21137
	movl	-124(%rbp), %eax	# block_a.mb_addr, D.21131
	cltq
	imulq	$632, %rax, %rax	#, D.21132, D.21132
	addq	%rdx, %rax	# D.21137, D.21137
	movl	532(%rax), %eax	# _441->mb_field, D.21131
	.loc 1 613 0
	testl	%eax, %eax	# D.21131
	je	.L200	#,
	.loc 1 613 0 is_stmt 0 discriminator 1
	movl	-240(%rbp), %eax	# list, tmp987
	cltq
	leaq	0(,%rax,8), %rdx	#, D.21132
	movq	-232(%rbp), %rax	# tmp_mv, tmp988
	addq	%rdx, %rax	# D.21132, D.21138
	movq	(%rax), %rax	# *_446, D.21133
	movl	-112(%rbp), %edx	# block_a.pos_x, D.21131
	movslq	%edx, %rdx	# D.21131, D.21132
	salq	$3, %rdx	#, D.21132
	addq	%rdx, %rax	# D.21132, D.21133
	movq	(%rax), %rax	# *_451, D.21134
	movl	-108(%rbp), %edx	# block_a.pos_y, D.21131
	movslq	%edx, %rdx	# D.21131, D.21132
	salq	$3, %rdx	#, D.21132
	addq	%rdx, %rax	# D.21132, D.21134
	movq	(%rax), %rax	# *_456, D.21135
	movl	-176(%rbp), %edx	# hv, tmp989
	movslq	%edx, %rdx	# tmp989, D.21132
	addq	%rdx, %rdx	# D.21132
	addq	%rdx, %rax	# D.21132, D.21135
	movzwl	(%rax), %eax	# *_460, D.21136
	cwtl
	jmp	.L202	#
.L200:
	.loc 1 614 0 is_stmt 1 discriminator 2
	movl	-240(%rbp), %eax	# list, tmp990
	cltq
	leaq	0(,%rax,8), %rdx	#, D.21132
	movq	-232(%rbp), %rax	# tmp_mv, tmp991
	addq	%rdx, %rax	# D.21132, D.21138
	movq	(%rax), %rax	# *_465, D.21133
	movl	-112(%rbp), %edx	# block_a.pos_x, D.21131
	movslq	%edx, %rdx	# D.21131, D.21132
	salq	$3, %rdx	#, D.21132
	addq	%rdx, %rax	# D.21132, D.21133
	movq	(%rax), %rax	# *_470, D.21134
	movl	-108(%rbp), %edx	# block_a.pos_y, D.21131
	movslq	%edx, %rdx	# D.21131, D.21132
	salq	$3, %rdx	#, D.21132
	addq	%rdx, %rax	# D.21132, D.21134
	movq	(%rax), %rax	# *_475, D.21135
	movl	-176(%rbp), %edx	# hv, tmp992
	movslq	%edx, %rdx	# tmp992, D.21132
	addq	%rdx, %rdx	# D.21132
	addq	%rdx, %rax	# D.21132, D.21135
	movzwl	(%rax), %eax	# *_479, D.21136
	movl	%eax, %edx	# D.21136, tmp993
	shrw	$15, %dx	#, tmp993
	addl	%edx, %eax	# tmp993, tmp994
	sarw	%ax	# tmp995
	.loc 1 613 0 discriminator 2
	cwtl
	jmp	.L202	#
.L199:
	.loc 1 614 0 discriminator 1
	movl	$0, %eax	#, iftmp.200
.L202:
	.loc 1 612 0
	movl	%eax, -208(%rbp)	# iftmp.200, mv_a
	.loc 1 616 0
	movl	-96(%rbp), %eax	# block_b.available, D.21131
	.loc 1 618 0
	testl	%eax, %eax	# D.21131
	je	.L203	#,
	.loc 1 616 0
	movq	img(%rip), %rax	# img, img.205
	movq	14168(%rax), %rdx	# img.205_487->mb_data, D.21137
	movl	-92(%rbp), %eax	# block_b.mb_addr, D.21131
	cltq
	imulq	$632, %rax, %rax	#, D.21132, D.21132
	addq	%rdx, %rax	# D.21137, D.21137
	movl	532(%rax), %eax	# _492->mb_field, D.21131
	.loc 1 617 0
	testl	%eax, %eax	# D.21131
	je	.L204	#,
	.loc 1 617 0 is_stmt 0 discriminator 1
	movl	-240(%rbp), %eax	# list, tmp996
	cltq
	leaq	0(,%rax,8), %rdx	#, D.21132
	movq	-232(%rbp), %rax	# tmp_mv, tmp997
	addq	%rdx, %rax	# D.21132, D.21138
	movq	(%rax), %rax	# *_496, D.21133
	movl	-80(%rbp), %edx	# block_b.pos_x, D.21131
	movslq	%edx, %rdx	# D.21131, D.21132
	salq	$3, %rdx	#, D.21132
	addq	%rdx, %rax	# D.21132, D.21133
	movq	(%rax), %rax	# *_501, D.21134
	movl	-76(%rbp), %edx	# block_b.pos_y, D.21131
	movslq	%edx, %rdx	# D.21131, D.21132
	salq	$3, %rdx	#, D.21132
	addq	%rdx, %rax	# D.21132, D.21134
	movq	(%rax), %rax	# *_506, D.21135
	movl	-176(%rbp), %edx	# hv, tmp998
	movslq	%edx, %rdx	# tmp998, D.21132
	addq	%rdx, %rdx	# D.21132
	addq	%rdx, %rax	# D.21132, D.21135
	movzwl	(%rax), %eax	# *_510, D.21136
	cwtl
	jmp	.L206	#
.L204:
	.loc 1 618 0 is_stmt 1 discriminator 2
	movl	-240(%rbp), %eax	# list, tmp999
	cltq
	leaq	0(,%rax,8), %rdx	#, D.21132
	movq	-232(%rbp), %rax	# tmp_mv, tmp1000
	addq	%rdx, %rax	# D.21132, D.21138
	movq	(%rax), %rax	# *_515, D.21133
	movl	-80(%rbp), %edx	# block_b.pos_x, D.21131
	movslq	%edx, %rdx	# D.21131, D.21132
	salq	$3, %rdx	#, D.21132
	addq	%rdx, %rax	# D.21132, D.21133
	movq	(%rax), %rax	# *_520, D.21134
	movl	-76(%rbp), %edx	# block_b.pos_y, D.21131
	movslq	%edx, %rdx	# D.21131, D.21132
	salq	$3, %rdx	#, D.21132
	addq	%rdx, %rax	# D.21132, D.21134
	movq	(%rax), %rax	# *_525, D.21135
	movl	-176(%rbp), %edx	# hv, tmp1001
	movslq	%edx, %rdx	# tmp1001, D.21132
	addq	%rdx, %rdx	# D.21132
	addq	%rdx, %rax	# D.21132, D.21135
	movzwl	(%rax), %eax	# *_529, D.21136
	movl	%eax, %edx	# D.21136, tmp1002
	shrw	$15, %dx	#, tmp1002
	addl	%edx, %eax	# tmp1002, tmp1003
	sarw	%ax	# tmp1004
	.loc 1 617 0 discriminator 2
	cwtl
	jmp	.L206	#
.L203:
	.loc 1 618 0 discriminator 1
	movl	$0, %eax	#, iftmp.203
.L206:
	.loc 1 616 0
	movl	%eax, -204(%rbp)	# iftmp.203, mv_b
	.loc 1 620 0
	movl	-64(%rbp), %eax	# block_c.available, D.21131
	.loc 1 622 0
	testl	%eax, %eax	# D.21131
	je	.L207	#,
	.loc 1 620 0
	movq	img(%rip), %rax	# img, img.208
	movq	14168(%rax), %rdx	# img.208_537->mb_data, D.21137
	movl	-60(%rbp), %eax	# block_c.mb_addr, D.21131
	cltq
	imulq	$632, %rax, %rax	#, D.21132, D.21132
	addq	%rdx, %rax	# D.21137, D.21137
	movl	532(%rax), %eax	# _542->mb_field, D.21131
	.loc 1 621 0
	testl	%eax, %eax	# D.21131
	je	.L208	#,
	.loc 1 621 0 is_stmt 0 discriminator 1
	movl	-240(%rbp), %eax	# list, tmp1005
	cltq
	leaq	0(,%rax,8), %rdx	#, D.21132
	movq	-232(%rbp), %rax	# tmp_mv, tmp1006
	addq	%rdx, %rax	# D.21132, D.21138
	movq	(%rax), %rax	# *_546, D.21133
	movl	-48(%rbp), %edx	# block_c.pos_x, D.21131
	movslq	%edx, %rdx	# D.21131, D.21132
	salq	$3, %rdx	#, D.21132
	addq	%rdx, %rax	# D.21132, D.21133
	movq	(%rax), %rax	# *_551, D.21134
	movl	-44(%rbp), %edx	# block_c.pos_y, D.21131
	movslq	%edx, %rdx	# D.21131, D.21132
	salq	$3, %rdx	#, D.21132
	addq	%rdx, %rax	# D.21132, D.21134
	movq	(%rax), %rax	# *_556, D.21135
	movl	-176(%rbp), %edx	# hv, tmp1007
	movslq	%edx, %rdx	# tmp1007, D.21132
	addq	%rdx, %rdx	# D.21132
	addq	%rdx, %rax	# D.21132, D.21135
	movzwl	(%rax), %eax	# *_560, D.21136
	cwtl
	jmp	.L210	#
.L208:
	.loc 1 622 0 is_stmt 1 discriminator 2
	movl	-240(%rbp), %eax	# list, tmp1008
	cltq
	leaq	0(,%rax,8), %rdx	#, D.21132
	movq	-232(%rbp), %rax	# tmp_mv, tmp1009
	addq	%rdx, %rax	# D.21132, D.21138
	movq	(%rax), %rax	# *_565, D.21133
	movl	-48(%rbp), %edx	# block_c.pos_x, D.21131
	movslq	%edx, %rdx	# D.21131, D.21132
	salq	$3, %rdx	#, D.21132
	addq	%rdx, %rax	# D.21132, D.21133
	movq	(%rax), %rax	# *_570, D.21134
	movl	-44(%rbp), %edx	# block_c.pos_y, D.21131
	movslq	%edx, %rdx	# D.21131, D.21132
	salq	$3, %rdx	#, D.21132
	addq	%rdx, %rax	# D.21132, D.21134
	movq	(%rax), %rax	# *_575, D.21135
	movl	-176(%rbp), %edx	# hv, tmp1010
	movslq	%edx, %rdx	# tmp1010, D.21132
	addq	%rdx, %rdx	# D.21132
	addq	%rdx, %rax	# D.21132, D.21135
	movzwl	(%rax), %eax	# *_579, D.21136
	movl	%eax, %edx	# D.21136, tmp1011
	shrw	$15, %dx	#, tmp1011
	addl	%edx, %eax	# tmp1011, tmp1012
	sarw	%ax	# tmp1013
	.loc 1 621 0 discriminator 2
	cwtl
	jmp	.L210	#
.L207:
	.loc 1 622 0 discriminator 1
	movl	$0, %eax	#, iftmp.206
.L210:
	.loc 1 620 0 discriminator 14
	movl	%eax, -200(%rbp)	# iftmp.206, mv_c
	jmp	.L197	#
.L198:
	.loc 1 627 0
	movl	-128(%rbp), %eax	# block_a.available, D.21131
	.loc 1 629 0
	testl	%eax, %eax	# D.21131
	je	.L211	#,
	.loc 1 627 0
	movq	img(%rip), %rax	# img, img.211
	movq	14168(%rax), %rdx	# img.211_587->mb_data, D.21137
	movl	-124(%rbp), %eax	# block_a.mb_addr, D.21131
	cltq
	imulq	$632, %rax, %rax	#, D.21132, D.21132
	addq	%rdx, %rax	# D.21137, D.21137
	movl	532(%rax), %eax	# _592->mb_field, D.21131
	.loc 1 628 0
	testl	%eax, %eax	# D.21131
	je	.L212	#,
	.loc 1 628 0 is_stmt 0 discriminator 1
	movl	-240(%rbp), %eax	# list, tmp1014
	cltq
	leaq	0(,%rax,8), %rdx	#, D.21132
	movq	-232(%rbp), %rax	# tmp_mv, tmp1015
	addq	%rdx, %rax	# D.21132, D.21138
	movq	(%rax), %rax	# *_596, D.21133
	movl	-112(%rbp), %edx	# block_a.pos_x, D.21131
	movslq	%edx, %rdx	# D.21131, D.21132
	salq	$3, %rdx	#, D.21132
	addq	%rdx, %rax	# D.21132, D.21133
	movq	(%rax), %rax	# *_601, D.21134
	movl	-108(%rbp), %edx	# block_a.pos_y, D.21131
	movslq	%edx, %rdx	# D.21131, D.21132
	salq	$3, %rdx	#, D.21132
	addq	%rdx, %rax	# D.21132, D.21134
	movq	(%rax), %rax	# *_606, D.21135
	movl	-176(%rbp), %edx	# hv, tmp1016
	movslq	%edx, %rdx	# tmp1016, D.21132
	addq	%rdx, %rdx	# D.21132
	addq	%rdx, %rax	# D.21132, D.21135
	movzwl	(%rax), %eax	# *_610, D.21136
	cwtl
	addl	%eax, %eax	# iftmp.210
	jmp	.L214	#
.L212:
	.loc 1 629 0 is_stmt 1 discriminator 2
	movl	-240(%rbp), %eax	# list, tmp1017
	cltq
	leaq	0(,%rax,8), %rdx	#, D.21132
	movq	-232(%rbp), %rax	# tmp_mv, tmp1018
	addq	%rdx, %rax	# D.21132, D.21138
	movq	(%rax), %rax	# *_616, D.21133
	movl	-112(%rbp), %edx	# block_a.pos_x, D.21131
	movslq	%edx, %rdx	# D.21131, D.21132
	salq	$3, %rdx	#, D.21132
	addq	%rdx, %rax	# D.21132, D.21133
	movq	(%rax), %rax	# *_621, D.21134
	movl	-108(%rbp), %edx	# block_a.pos_y, D.21131
	movslq	%edx, %rdx	# D.21131, D.21132
	salq	$3, %rdx	#, D.21132
	addq	%rdx, %rax	# D.21132, D.21134
	movq	(%rax), %rax	# *_626, D.21135
	movl	-176(%rbp), %edx	# hv, tmp1019
	movslq	%edx, %rdx	# tmp1019, D.21132
	addq	%rdx, %rdx	# D.21132
	addq	%rdx, %rax	# D.21132, D.21135
	movzwl	(%rax), %eax	# *_630, D.21136
	.loc 1 628 0 discriminator 2
	cwtl
	jmp	.L214	#
.L211:
	.loc 1 629 0 discriminator 1
	movl	$0, %eax	#, iftmp.209
.L214:
	.loc 1 627 0
	movl	%eax, -208(%rbp)	# iftmp.209, mv_a
	.loc 1 631 0
	movl	-96(%rbp), %eax	# block_b.available, D.21131
	.loc 1 633 0
	testl	%eax, %eax	# D.21131
	je	.L215	#,
	.loc 1 631 0
	movq	img(%rip), %rax	# img, img.214
	movq	14168(%rax), %rdx	# img.214_637->mb_data, D.21137
	movl	-92(%rbp), %eax	# block_b.mb_addr, D.21131
	cltq
	imulq	$632, %rax, %rax	#, D.21132, D.21132
	addq	%rdx, %rax	# D.21137, D.21137
	movl	532(%rax), %eax	# _642->mb_field, D.21131
	.loc 1 632 0
	testl	%eax, %eax	# D.21131
	je	.L216	#,
	.loc 1 632 0 is_stmt 0 discriminator 1
	movl	-240(%rbp), %eax	# list, tmp1020
	cltq
	leaq	0(,%rax,8), %rdx	#, D.21132
	movq	-232(%rbp), %rax	# tmp_mv, tmp1021
	addq	%rdx, %rax	# D.21132, D.21138
	movq	(%rax), %rax	# *_646, D.21133
	movl	-80(%rbp), %edx	# block_b.pos_x, D.21131
	movslq	%edx, %rdx	# D.21131, D.21132
	salq	$3, %rdx	#, D.21132
	addq	%rdx, %rax	# D.21132, D.21133
	movq	(%rax), %rax	# *_651, D.21134
	movl	-76(%rbp), %edx	# block_b.pos_y, D.21131
	movslq	%edx, %rdx	# D.21131, D.21132
	salq	$3, %rdx	#, D.21132
	addq	%rdx, %rax	# D.21132, D.21134
	movq	(%rax), %rax	# *_656, D.21135
	movl	-176(%rbp), %edx	# hv, tmp1022
	movslq	%edx, %rdx	# tmp1022, D.21132
	addq	%rdx, %rdx	# D.21132
	addq	%rdx, %rax	# D.21132, D.21135
	movzwl	(%rax), %eax	# *_660, D.21136
	cwtl
	addl	%eax, %eax	# iftmp.213
	jmp	.L218	#
.L216:
	.loc 1 633 0 is_stmt 1 discriminator 2
	movl	-240(%rbp), %eax	# list, tmp1023
	cltq
	leaq	0(,%rax,8), %rdx	#, D.21132
	movq	-232(%rbp), %rax	# tmp_mv, tmp1024
	addq	%rdx, %rax	# D.21132, D.21138
	movq	(%rax), %rax	# *_666, D.21133
	movl	-80(%rbp), %edx	# block_b.pos_x, D.21131
	movslq	%edx, %rdx	# D.21131, D.21132
	salq	$3, %rdx	#, D.21132
	addq	%rdx, %rax	# D.21132, D.21133
	movq	(%rax), %rax	# *_671, D.21134
	movl	-76(%rbp), %edx	# block_b.pos_y, D.21131
	movslq	%edx, %rdx	# D.21131, D.21132
	salq	$3, %rdx	#, D.21132
	addq	%rdx, %rax	# D.21132, D.21134
	movq	(%rax), %rax	# *_676, D.21135
	movl	-176(%rbp), %edx	# hv, tmp1025
	movslq	%edx, %rdx	# tmp1025, D.21132
	addq	%rdx, %rdx	# D.21132
	addq	%rdx, %rax	# D.21132, D.21135
	movzwl	(%rax), %eax	# *_680, D.21136
	.loc 1 632 0 discriminator 2
	cwtl
	jmp	.L218	#
.L215:
	.loc 1 633 0 discriminator 1
	movl	$0, %eax	#, iftmp.212
.L218:
	.loc 1 631 0
	movl	%eax, -204(%rbp)	# iftmp.212, mv_b
	.loc 1 635 0
	movl	-64(%rbp), %eax	# block_c.available, D.21131
	.loc 1 637 0
	testl	%eax, %eax	# D.21131
	je	.L219	#,
	.loc 1 635 0
	movq	img(%rip), %rax	# img, img.217
	movq	14168(%rax), %rdx	# img.217_687->mb_data, D.21137
	movl	-60(%rbp), %eax	# block_c.mb_addr, D.21131
	cltq
	imulq	$632, %rax, %rax	#, D.21132, D.21132
	addq	%rdx, %rax	# D.21137, D.21137
	movl	532(%rax), %eax	# _692->mb_field, D.21131
	.loc 1 636 0
	testl	%eax, %eax	# D.21131
	je	.L220	#,
	.loc 1 636 0 is_stmt 0 discriminator 1
	movl	-240(%rbp), %eax	# list, tmp1026
	cltq
	leaq	0(,%rax,8), %rdx	#, D.21132
	movq	-232(%rbp), %rax	# tmp_mv, tmp1027
	addq	%rdx, %rax	# D.21132, D.21138
	movq	(%rax), %rax	# *_696, D.21133
	movl	-48(%rbp), %edx	# block_c.pos_x, D.21131
	movslq	%edx, %rdx	# D.21131, D.21132
	salq	$3, %rdx	#, D.21132
	addq	%rdx, %rax	# D.21132, D.21133
	movq	(%rax), %rax	# *_701, D.21134
	movl	-44(%rbp), %edx	# block_c.pos_y, D.21131
	movslq	%edx, %rdx	# D.21131, D.21132
	salq	$3, %rdx	#, D.21132
	addq	%rdx, %rax	# D.21132, D.21134
	movq	(%rax), %rax	# *_706, D.21135
	movl	-176(%rbp), %edx	# hv, tmp1028
	movslq	%edx, %rdx	# tmp1028, D.21132
	addq	%rdx, %rdx	# D.21132
	addq	%rdx, %rax	# D.21132, D.21135
	movzwl	(%rax), %eax	# *_710, D.21136
	cwtl
	addl	%eax, %eax	# iftmp.216
	jmp	.L222	#
.L220:
	.loc 1 637 0 is_stmt 1 discriminator 2
	movl	-240(%rbp), %eax	# list, tmp1029
	cltq
	leaq	0(,%rax,8), %rdx	#, D.21132
	movq	-232(%rbp), %rax	# tmp_mv, tmp1030
	addq	%rdx, %rax	# D.21132, D.21138
	movq	(%rax), %rax	# *_716, D.21133
	movl	-48(%rbp), %edx	# block_c.pos_x, D.21131
	movslq	%edx, %rdx	# D.21131, D.21132
	salq	$3, %rdx	#, D.21132
	addq	%rdx, %rax	# D.21132, D.21133
	movq	(%rax), %rax	# *_721, D.21134
	movl	-44(%rbp), %edx	# block_c.pos_y, D.21131
	movslq	%edx, %rdx	# D.21131, D.21132
	salq	$3, %rdx	#, D.21132
	addq	%rdx, %rax	# D.21132, D.21134
	movq	(%rax), %rax	# *_726, D.21135
	movl	-176(%rbp), %edx	# hv, tmp1031
	movslq	%edx, %rdx	# tmp1031, D.21132
	addq	%rdx, %rdx	# D.21132
	addq	%rdx, %rax	# D.21132, D.21135
	movzwl	(%rax), %eax	# *_730, D.21136
	.loc 1 636 0 discriminator 2
	cwtl
	jmp	.L222	#
.L219:
	.loc 1 637 0 discriminator 1
	movl	$0, %eax	#, iftmp.215
.L222:
	.loc 1 635 0
	movl	%eax, -200(%rbp)	# iftmp.215, mv_c
.L197:
	.loc 1 642 0
	movq	input(%rip), %rax	# input, input.218
	movl	3292(%rax), %eax	# input.218_802->FMEnable, D.21131
	testl	%eax, %eax	# D.21131
	je	.L223	#,
	.loc 1 644 0
	movl	-128(%rbp), %eax	# block_a.available, D.21131
	testl	%eax, %eax	# D.21131
	je	.L224	#,
	.loc 1 644 0 is_stmt 0 discriminator 1
	cmpl	$1, -240(%rbp)	#, list
	jne	.L225	#,
	movq	all_bwmincost(%rip), %rax	# all_bwmincost, all_bwmincost.221
	movl	-112(%rbp), %edx	# block_a.pos_x, D.21131
	movslq	%edx, %rdx	# D.21131, D.21132
	salq	$3, %rdx	#, D.21132
	addq	%rdx, %rax	# D.21132, D.21139
	movq	(%rax), %rax	# *_809, D.21140
	movl	-108(%rbp), %edx	# block_a.pos_y, D.21131
	movslq	%edx, %rdx	# D.21131, D.21132
	salq	$3, %rdx	#, D.21132
	addq	%rdx, %rax	# D.21132, D.21140
	movq	(%rax), %rax	# *_814, D.21141
	movq	(%rax), %rax	# *_815, D.21142
	movl	FME_blocktype(%rip), %edx	# FME_blocktype, FME_blocktype.222
	movslq	%edx, %rdx	# FME_blocktype.222, D.21132
	salq	$3, %rdx	#, D.21132
	addq	%rdx, %rax	# D.21132, D.21142
	movq	(%rax), %rax	# *_820, D.21143
	movl	(%rax), %eax	# *_821, iftmp.220
	jmp	.L227	#
.L225:
	.loc 1 644 0 discriminator 2
	movq	all_mincost(%rip), %rax	# all_mincost, all_mincost.223
	movl	-112(%rbp), %edx	# block_a.pos_x, D.21131
	movslq	%edx, %rdx	# D.21131, D.21132
	salq	$3, %rdx	#, D.21132
	addq	%rdx, %rax	# D.21132, D.21139
	movq	(%rax), %rax	# *_827, D.21140
	movl	-108(%rbp), %edx	# block_a.pos_y, D.21131
	movslq	%edx, %rdx	# D.21131, D.21132
	salq	$3, %rdx	#, D.21132
	addq	%rdx, %rax	# D.21132, D.21140
	movq	(%rax), %rax	# *_832, D.21141
	movswq	-236(%rbp), %rdx	# ref_frame, D.21132
	salq	$3, %rdx	#, D.21132
	addq	%rdx, %rax	# D.21132, D.21141
	movq	(%rax), %rax	# *_836, D.21142
	movl	FME_blocktype(%rip), %edx	# FME_blocktype, FME_blocktype.224
	movslq	%edx, %rdx	# FME_blocktype.224, D.21132
	salq	$3, %rdx	#, D.21132
	addq	%rdx, %rax	# D.21132, D.21142
	movq	(%rax), %rax	# *_841, D.21143
	movl	(%rax), %eax	# *_842, iftmp.220
	jmp	.L227	#
.L224:
	movl	$0, %eax	#, iftmp.219
.L227:
	.loc 1 644 0 discriminator 3
	movl	%eax, -172(%rbp)	# iftmp.219, SAD_a
	.loc 1 645 0 is_stmt 1 discriminator 3
	movl	-96(%rbp), %eax	# block_b.available, D.21131
	testl	%eax, %eax	# D.21131
	je	.L228	#,
	.loc 1 645 0 is_stmt 0 discriminator 1
	cmpl	$1, -240(%rbp)	#, list
	jne	.L229	#,
	movq	all_bwmincost(%rip), %rax	# all_bwmincost, all_bwmincost.227
	movl	-80(%rbp), %edx	# block_b.pos_x, D.21131
	movslq	%edx, %rdx	# D.21131, D.21132
	salq	$3, %rdx	#, D.21132
	addq	%rdx, %rax	# D.21132, D.21139
	movq	(%rax), %rax	# *_852, D.21140
	movl	-76(%rbp), %edx	# block_b.pos_y, D.21131
	movslq	%edx, %rdx	# D.21131, D.21132
	salq	$3, %rdx	#, D.21132
	addq	%rdx, %rax	# D.21132, D.21140
	movq	(%rax), %rax	# *_857, D.21141
	movq	(%rax), %rax	# *_858, D.21142
	movl	FME_blocktype(%rip), %edx	# FME_blocktype, FME_blocktype.228
	movslq	%edx, %rdx	# FME_blocktype.228, D.21132
	salq	$3, %rdx	#, D.21132
	addq	%rdx, %rax	# D.21132, D.21142
	movq	(%rax), %rax	# *_863, D.21143
	movl	(%rax), %eax	# *_864, iftmp.226
	jmp	.L231	#
.L229:
	.loc 1 645 0 discriminator 2
	movq	all_mincost(%rip), %rax	# all_mincost, all_mincost.229
	movl	-80(%rbp), %edx	# block_b.pos_x, D.21131
	movslq	%edx, %rdx	# D.21131, D.21132
	salq	$3, %rdx	#, D.21132
	addq	%rdx, %rax	# D.21132, D.21139
	movq	(%rax), %rax	# *_870, D.21140
	movl	-76(%rbp), %edx	# block_b.pos_y, D.21131
	movslq	%edx, %rdx	# D.21131, D.21132
	salq	$3, %rdx	#, D.21132
	addq	%rdx, %rax	# D.21132, D.21140
	movq	(%rax), %rax	# *_875, D.21141
	movswq	-236(%rbp), %rdx	# ref_frame, D.21132
	salq	$3, %rdx	#, D.21132
	addq	%rdx, %rax	# D.21132, D.21141
	movq	(%rax), %rax	# *_879, D.21142
	movl	FME_blocktype(%rip), %edx	# FME_blocktype, FME_blocktype.230
	movslq	%edx, %rdx	# FME_blocktype.230, D.21132
	salq	$3, %rdx	#, D.21132
	addq	%rdx, %rax	# D.21132, D.21142
	movq	(%rax), %rax	# *_884, D.21143
	movl	(%rax), %eax	# *_885, iftmp.226
	jmp	.L231	#
.L228:
	movl	$0, %eax	#, iftmp.225
.L231:
	.loc 1 645 0 discriminator 3
	movl	%eax, -168(%rbp)	# iftmp.225, SAD_b
	.loc 1 646 0 is_stmt 1 discriminator 3
	movl	-32(%rbp), %eax	# block_d.available, D.21131
	testl	%eax, %eax	# D.21131
	je	.L232	#,
	.loc 1 646 0 is_stmt 0 discriminator 1
	cmpl	$1, -240(%rbp)	#, list
	jne	.L233	#,
	movq	all_bwmincost(%rip), %rax	# all_bwmincost, all_bwmincost.233
	movl	-16(%rbp), %edx	# block_d.pos_x, D.21131
	movslq	%edx, %rdx	# D.21131, D.21132
	salq	$3, %rdx	#, D.21132
	addq	%rdx, %rax	# D.21132, D.21139
	movq	(%rax), %rax	# *_895, D.21140
	movl	-12(%rbp), %edx	# block_d.pos_y, D.21131
	movslq	%edx, %rdx	# D.21131, D.21132
	salq	$3, %rdx	#, D.21132
	addq	%rdx, %rax	# D.21132, D.21140
	movq	(%rax), %rax	# *_900, D.21141
	movq	(%rax), %rax	# *_901, D.21142
	movl	FME_blocktype(%rip), %edx	# FME_blocktype, FME_blocktype.234
	movslq	%edx, %rdx	# FME_blocktype.234, D.21132
	salq	$3, %rdx	#, D.21132
	addq	%rdx, %rax	# D.21132, D.21142
	movq	(%rax), %rax	# *_906, D.21143
	movl	(%rax), %eax	# *_907, iftmp.232
	jmp	.L235	#
.L233:
	.loc 1 646 0 discriminator 2
	movq	all_mincost(%rip), %rax	# all_mincost, all_mincost.235
	movl	-16(%rbp), %edx	# block_d.pos_x, D.21131
	movslq	%edx, %rdx	# D.21131, D.21132
	salq	$3, %rdx	#, D.21132
	addq	%rdx, %rax	# D.21132, D.21139
	movq	(%rax), %rax	# *_913, D.21140
	movl	-12(%rbp), %edx	# block_d.pos_y, D.21131
	movslq	%edx, %rdx	# D.21131, D.21132
	salq	$3, %rdx	#, D.21132
	addq	%rdx, %rax	# D.21132, D.21140
	movq	(%rax), %rax	# *_918, D.21141
	movswq	-236(%rbp), %rdx	# ref_frame, D.21132
	salq	$3, %rdx	#, D.21132
	addq	%rdx, %rax	# D.21132, D.21141
	movq	(%rax), %rax	# *_922, D.21142
	movl	FME_blocktype(%rip), %edx	# FME_blocktype, FME_blocktype.236
	movslq	%edx, %rdx	# FME_blocktype.236, D.21132
	salq	$3, %rdx	#, D.21132
	addq	%rdx, %rax	# D.21132, D.21142
	movq	(%rax), %rax	# *_927, D.21143
	movl	(%rax), %eax	# *_928, iftmp.232
	jmp	.L235	#
.L232:
	movl	$0, %eax	#, iftmp.231
.L235:
	.loc 1 646 0 discriminator 3
	movl	%eax, -148(%rbp)	# iftmp.231, SAD_d
	.loc 1 647 0 is_stmt 1 discriminator 3
	movl	-64(%rbp), %eax	# block_c.available, D.21131
	testl	%eax, %eax	# D.21131
	je	.L236	#,
	.loc 1 647 0 is_stmt 0 discriminator 1
	cmpl	$1, -240(%rbp)	#, list
	jne	.L237	#,
	movq	all_bwmincost(%rip), %rax	# all_bwmincost, all_bwmincost.239
	movl	-48(%rbp), %edx	# block_c.pos_x, D.21131
	movslq	%edx, %rdx	# D.21131, D.21132
	salq	$3, %rdx	#, D.21132
	addq	%rdx, %rax	# D.21132, D.21139
	movq	(%rax), %rax	# *_938, D.21140
	movl	-44(%rbp), %edx	# block_c.pos_y, D.21131
	movslq	%edx, %rdx	# D.21131, D.21132
	salq	$3, %rdx	#, D.21132
	addq	%rdx, %rax	# D.21132, D.21140
	movq	(%rax), %rax	# *_943, D.21141
	movq	(%rax), %rax	# *_944, D.21142
	movl	FME_blocktype(%rip), %edx	# FME_blocktype, FME_blocktype.240
	movslq	%edx, %rdx	# FME_blocktype.240, D.21132
	salq	$3, %rdx	#, D.21132
	addq	%rdx, %rax	# D.21132, D.21142
	movq	(%rax), %rax	# *_949, D.21143
	movl	(%rax), %eax	# *_950, iftmp.238
	jmp	.L239	#
.L237:
	.loc 1 647 0 discriminator 2
	movq	all_mincost(%rip), %rax	# all_mincost, all_mincost.241
	movl	-48(%rbp), %edx	# block_c.pos_x, D.21131
	movslq	%edx, %rdx	# D.21131, D.21132
	salq	$3, %rdx	#, D.21132
	addq	%rdx, %rax	# D.21132, D.21139
	movq	(%rax), %rax	# *_956, D.21140
	movl	-44(%rbp), %edx	# block_c.pos_y, D.21131
	movslq	%edx, %rdx	# D.21131, D.21132
	salq	$3, %rdx	#, D.21132
	addq	%rdx, %rax	# D.21132, D.21140
	movq	(%rax), %rax	# *_961, D.21141
	movswq	-236(%rbp), %rdx	# ref_frame, D.21132
	salq	$3, %rdx	#, D.21132
	addq	%rdx, %rax	# D.21132, D.21141
	movq	(%rax), %rax	# *_965, D.21142
	movl	FME_blocktype(%rip), %edx	# FME_blocktype, FME_blocktype.242
	movslq	%edx, %rdx	# FME_blocktype.242, D.21132
	salq	$3, %rdx	#, D.21132
	addq	%rdx, %rax	# D.21132, D.21142
	movq	(%rax), %rax	# *_970, D.21143
	movl	(%rax), %eax	# *_971, iftmp.238
	jmp	.L239	#
.L236:
	movl	-148(%rbp), %eax	# SAD_d, iftmp.237
.L239:
	.loc 1 647 0 discriminator 3
	movl	%eax, -164(%rbp)	# iftmp.237, SAD_c
.L223:
	.loc 1 650 0 is_stmt 1
	movl	-192(%rbp), %eax	# mvPredType, mvPredType
	cmpl	$1, %eax	#, mvPredType
	je	.L241	#,
	cmpl	$1, %eax	#, mvPredType
	jg	.L242	#,
	testl	%eax, %eax	# mvPredType
	je	.L243	#,
	.loc 1 682 0
	jmp	.L252	#
.L242:
	.loc 1 650 0
	cmpl	$2, %eax	#, mvPredType
	je	.L244	#,
	cmpl	$3, %eax	#, mvPredType
	je	.L245	#,
	.loc 1 682 0
	jmp	.L252	#
.L243:
	.loc 1 653 0
	movl	-96(%rbp), %eax	# block_b.available, D.21131
	testl	%eax, %eax	# D.21131
	jne	.L246	#,
	.loc 1 653 0 is_stmt 0 discriminator 1
	movl	-64(%rbp), %eax	# block_c.available, D.21131
	testl	%eax, %eax	# D.21131
	jne	.L246	#,
	.loc 1 655 0 is_stmt 1
	movl	-208(%rbp), %eax	# mv_a, tmp1033
	movl	%eax, -196(%rbp)	# tmp1033, pred_vec
	.loc 1 656 0
	movq	input(%rip), %rax	# input, input.243
	movl	3292(%rax), %eax	# input.243_979->FMEnable, D.21131
	testl	%eax, %eax	# D.21131
	je	.L247	#,
	.loc 1 656 0 is_stmt 0 discriminator 1
	movl	-176(%rbp), %eax	# hv, tmp1035
	cltq
	movl	-172(%rbp), %edx	# SAD_a, tmp1036
	movl	%edx, -144(%rbp,%rax,4)	# tmp1036, temp_pred_SAD
	jmp	.L248	#
.L247:
	.loc 1 656 0 discriminator 2
	jmp	.L248	#
.L246:
	.loc 1 660 0 is_stmt 1
	movl	-204(%rbp), %eax	# mv_b, tmp1037
	movl	-208(%rbp), %edx	# mv_a, tmp1038
	addl	%eax, %edx	# tmp1037, D.21131
	movl	-200(%rbp), %eax	# mv_c, tmp1039
	leal	(%rdx,%rax), %ecx	#, D.21131
	movl	-204(%rbp), %eax	# mv_b, tmp1040
	cmpl	%eax, -200(%rbp)	# tmp1040, mv_c
	cmovle	-200(%rbp), %eax	# mv_c,, D.21131
	movl	%eax, %edx	# D.21131, D.21131
	movl	-208(%rbp), %eax	# mv_a, tmp1041
	cmpl	%eax, %edx	# tmp1041, D.21131
	cmovle	%edx, %eax	# D.21131,, D.21131
	subl	%eax, %ecx	# D.21131, D.21131
	movl	-204(%rbp), %eax	# mv_b, tmp1042
	cmpl	%eax, -200(%rbp)	# tmp1042, mv_c
	cmovge	-200(%rbp), %eax	# mv_c,, D.21131
	movl	%eax, %edx	# D.21131, D.21131
	movl	-208(%rbp), %eax	# mv_a, tmp1043
	cmpl	%eax, %edx	# tmp1043, D.21131
	cmovge	%edx, %eax	# D.21131,, D.21131
	subl	%eax, %ecx	# D.21131, tmp1044
	movl	%ecx, %eax	# tmp1044, tmp1044
	movl	%eax, -196(%rbp)	# tmp1044, pred_vec
.L248:
	.loc 1 662 0
	movq	input(%rip), %rax	# input, input.244
	movl	3292(%rax), %eax	# input.244_989->FMEnable, D.21131
	testl	%eax, %eax	# D.21131
	je	.L249	#,
	.loc 1 664 0
	movl	-196(%rbp), %eax	# pred_vec, tmp1045
	cmpl	-208(%rbp), %eax	# mv_a, tmp1045
	jne	.L250	#,
	.loc 1 664 0 is_stmt 0 discriminator 1
	cmpl	$0, -172(%rbp)	#, SAD_a
	je	.L250	#,
	movl	-176(%rbp), %eax	# hv, tmp1047
	cltq
	movl	-172(%rbp), %edx	# SAD_a, tmp1048
	movl	%edx, -144(%rbp,%rax,4)	# tmp1048, temp_pred_SAD
	jmp	.L249	#
.L250:
	.loc 1 665 0 is_stmt 1
	movl	-196(%rbp), %eax	# pred_vec, tmp1049
	cmpl	-204(%rbp), %eax	# mv_b, tmp1049
	jne	.L251	#,
	.loc 1 665 0 is_stmt 0 discriminator 1
	cmpl	$0, -168(%rbp)	#, SAD_b
	je	.L251	#,
	movl	-176(%rbp), %eax	# hv, tmp1051
	cltq
	movl	-168(%rbp), %edx	# SAD_b, tmp1052
	movl	%edx, -144(%rbp,%rax,4)	# tmp1052, temp_pred_SAD
	jmp	.L249	#
.L251:
	.loc 1 666 0 is_stmt 1
	movl	-176(%rbp), %eax	# hv, tmp1054
	cltq
	movl	-164(%rbp), %edx	# SAD_c, tmp1055
	movl	%edx, -144(%rbp,%rax,4)	# tmp1055, temp_pred_SAD
	.loc 1 668 0
	jmp	.L252	#
.L249:
	jmp	.L252	#
.L241:
	.loc 1 670 0
	movl	-208(%rbp), %eax	# mv_a, tmp1056
	movl	%eax, -196(%rbp)	# tmp1056, pred_vec
	.loc 1 671 0
	movq	input(%rip), %rax	# input, input.245
	movl	3292(%rax), %eax	# input.245_992->FMEnable, D.21131
	testl	%eax, %eax	# D.21131
	je	.L253	#,
	.loc 1 671 0 is_stmt 0 discriminator 1
	movl	-176(%rbp), %eax	# hv, tmp1058
	cltq
	movl	-172(%rbp), %edx	# SAD_a, tmp1059
	movl	%edx, -144(%rbp,%rax,4)	# tmp1059, temp_pred_SAD
	.loc 1 672 0 is_stmt 1 discriminator 1
	jmp	.L252	#
.L253:
	.loc 1 672 0 is_stmt 0
	jmp	.L252	#
.L244:
	.loc 1 674 0 is_stmt 1
	movl	-204(%rbp), %eax	# mv_b, tmp1060
	movl	%eax, -196(%rbp)	# tmp1060, pred_vec
	.loc 1 675 0
	movq	input(%rip), %rax	# input, input.246
	movl	3292(%rax), %eax	# input.246_995->FMEnable, D.21131
	testl	%eax, %eax	# D.21131
	je	.L254	#,
	.loc 1 675 0 is_stmt 0 discriminator 1
	movl	-176(%rbp), %eax	# hv, tmp1062
	cltq
	movl	-168(%rbp), %edx	# SAD_b, tmp1063
	movl	%edx, -144(%rbp,%rax,4)	# tmp1063, temp_pred_SAD
	.loc 1 676 0 is_stmt 1 discriminator 1
	jmp	.L252	#
.L254:
	.loc 1 676 0 is_stmt 0
	jmp	.L252	#
.L245:
	.loc 1 678 0 is_stmt 1
	movl	-200(%rbp), %eax	# mv_c, tmp1064
	movl	%eax, -196(%rbp)	# tmp1064, pred_vec
	.loc 1 679 0
	movq	input(%rip), %rax	# input, input.247
	movl	3292(%rax), %eax	# input.247_998->FMEnable, D.21131
	testl	%eax, %eax	# D.21131
	je	.L255	#,
	.loc 1 679 0 is_stmt 0 discriminator 1
	movl	-176(%rbp), %eax	# hv, tmp1066
	cltq
	movl	-164(%rbp), %edx	# SAD_c, tmp1067
	movl	%edx, -144(%rbp,%rax,4)	# tmp1067, temp_pred_SAD
	.loc 1 680 0 is_stmt 1 discriminator 1
	jmp	.L258	#
.L255:
.L258:
	.loc 1 680 0 is_stmt 0
	nop
.L252:
	.loc 1 685 0 is_stmt 1
	movl	-176(%rbp), %eax	# hv, tmp1068
	cltq
	leaq	(%rax,%rax), %rdx	#, D.21132
	movq	-216(%rbp), %rax	# pmv, tmp1069
	addq	%rax, %rdx	# tmp1069, D.21135
	movl	-196(%rbp), %eax	# pred_vec, tmp1070
	movw	%ax, (%rdx)	# D.21136, *_1003
	.loc 1 600 0
	addl	$1, -176(%rbp)	#, hv
.L188:
	.loc 1 600 0 is_stmt 0 discriminator 1
	cmpl	$1, -176(%rbp)	#, hv
	jle	.L256	#,
	.loc 1 689 0 is_stmt 1
	movq	input(%rip), %rax	# input, input.248
	movl	3292(%rax), %eax	# input.248_1006->FMEnable, D.21131
	testl	%eax, %eax	# D.21131
	je	.L134	#,
	.loc 1 689 0 is_stmt 0 discriminator 1
	movl	-144(%rbp), %edx	# temp_pred_SAD, D.21131
	movl	-140(%rbp), %eax	# temp_pred_SAD, D.21131
	cmpl	%eax, %edx	# D.21131, D.21131
	cmovle	%edx, %eax	# D.21131,, pred_SAD_space.249
	movl	%eax, pred_SAD_space(%rip)	# pred_SAD_space.249, pred_SAD_space
.L134:
	.loc 1 690 0 is_stmt 1
	leave
	.cfi_def_cfa 7, 8
	ret
	.cfi_endproc
.LFE7:
	.size	SetMotionVectorPredictor, .-SetMotionVectorPredictor
	.section	.rodata
	.align 8
.LC8:
	.string	"Init_Motion_Search_Module: spiral_search_x"
	.align 8
.LC9:
	.string	"Init_Motion_Search_Module: spiral_search_y"
	.align 8
.LC10:
	.string	"Init_Motion_Search_Module: mvbits"
	.align 8
.LC11:
	.string	"Init_Motion_Search_Module: refbits"
	.align 8
.LC12:
	.string	"Init_Motion_Search_Module: byte_abs"
	.text
	.globl	Init_Motion_Search_Module
	.type	Init_Motion_Search_Module, @function
Init_Motion_Search_Module:
.LFB8:
	.loc 1 700 0
	.cfi_startproc
	pushq	%rbp	#
	.cfi_def_cfa_offset 16
	.cfi_offset 6, -16
	movq	%rsp, %rbp	#,
	.cfi_def_cfa_register 6
	subq	$64, %rsp	#,
	.loc 1 703 0
	movq	img(%rip), %rax	# img, img.251
	movl	72684(%rax), %edx	# img.251_13->max_imgpel_value, D.21145
	movq	img(%rip), %rax	# img, img.252
	movl	72688(%rax), %eax	# img.252_15->max_imgpel_value_uv, D.21145
	cmpl	%eax, %edx	# D.21145, D.21145
	jle	.L260	#,
	.loc 1 703 0 is_stmt 0 discriminator 1
	movq	img(%rip), %rax	# img, img.253
	movl	72684(%rax), %eax	# img.253_17->max_imgpel_value, D.21145
	addl	$1, %eax	#, D.21145
	addl	%eax, %eax	# iftmp.250
	jmp	.L261	#
.L260:
	.loc 1 703 0 discriminator 2
	movq	img(%rip), %rax	# img, img.254
	movl	72688(%rax), %eax	# img.254_21->max_imgpel_value_uv, D.21145
	addl	$1, %eax	#, D.21145
	addl	%eax, %eax	# iftmp.250
.L261:
	.loc 1 703 0 discriminator 3
	movl	%eax, -40(%rbp)	# iftmp.250, byte_abs_range
	.loc 1 704 0 is_stmt 1 discriminator 3
	movq	input(%rip), %rax	# input, input.255
	movl	32(%rax), %eax	# input.255_26->search_range, tmp208
	movl	%eax, -36(%rbp)	# tmp208, search_range
	.loc 1 705 0 discriminator 3
	movq	img(%rip), %rax	# img, img.256
	movl	36(%rax), %eax	# img.256_28->max_num_references, tmp209
	movl	%eax, -32(%rbp)	# tmp209, number_of_reference_frames
	.loc 1 706 0 discriminator 3
	movl	-36(%rbp), %eax	# search_range, tmp210
	addl	%eax, %eax	# D.21145
	leal	1(%rax), %edx	#, D.21145
	movl	-36(%rbp), %eax	# search_range, tmp211
	addl	%eax, %eax	# D.21145
	addl	$1, %eax	#, D.21145
	imull	%edx, %eax	# D.21145, D.21145
	movl	$9, %edx	#, tmp213
	cmpl	$9, %eax	#, D.21145
	cmovl	%edx, %eax	# D.21145,, tmp213, tmp212
	movl	%eax, -28(%rbp)	# tmp212, max_search_points
	.loc 1 707 0 discriminator 3
	movl	-32(%rbp), %eax	# number_of_reference_frames, tmp214
	addl	$1, %eax	#, D.21145
	movl	$16, %edx	#, tmp215
	cmpl	$16, %eax	#, D.21145
	cmovl	%edx, %eax	# D.21145,, tmp215, D.21145
	cvtsi2sd	%eax, %xmm0	# D.21145, D.21146
	call	log	#
	movsd	.LC6(%rip), %xmm1	#, tmp216
	divsd	%xmm1, %xmm0	# tmp216, D.21146
	movsd	.LC7(%rip), %xmm1	#, tmp217
	addsd	%xmm1, %xmm0	# tmp217, D.21146
	call	floor	#
	cvttsd2si	%xmm0, %eax	# D.21146, D.21145
	addl	%eax, %eax	# D.21145
	addl	$1, %eax	#, tmp218
	movl	%eax, -24(%rbp)	# tmp218, max_ref_bits
	.loc 1 708 0 discriminator 3
	movl	-24(%rbp), %eax	# max_ref_bits, tmp219
	sarl	%eax	# D.21145
	addl	$1, %eax	#, D.21145
	movl	$1, %edx	#, tmp220
	movl	%eax, %ecx	# D.21145, tmp303
	sall	%cl, %edx	# tmp303, D.21145
	movl	%edx, %eax	# D.21145, D.21145
	subl	$1, %eax	#, tmp221
	movl	%eax, -20(%rbp)	# tmp221, max_ref
	.loc 1 709 0 discriminator 3
	movl	-36(%rbp), %eax	# search_range, tmp222
	sall	$3, %eax	#, D.21145
	addl	$12, %eax	#, tmp223
	movl	%eax, -16(%rbp)	# tmp223, number_of_subpel_positions
	.loc 1 710 0 discriminator 3
	movl	-16(%rbp), %eax	# number_of_subpel_positions, tmp224
	addl	$1, %eax	#, D.21145
	cvtsi2sd	%eax, %xmm0	# D.21145, D.21146
	call	log	#
	movsd	.LC6(%rip), %xmm1	#, tmp225
	divsd	%xmm1, %xmm0	# tmp225, D.21146
	movsd	.LC7(%rip), %xmm1	#, tmp226
	addsd	%xmm1, %xmm0	# tmp226, D.21146
	call	ceil	#
	cvttsd2si	%xmm0, %eax	# D.21146, D.21145
	addl	%eax, %eax	# D.21145
	addl	$3, %eax	#, tmp227
	movl	%eax, -12(%rbp)	# tmp227, max_mv_bits
	.loc 1 711 0 discriminator 3
	movl	-12(%rbp), %eax	# max_mv_bits, tmp228
	sarl	%eax	# D.21145
	movl	$1, %edx	#, tmp229
	movl	%eax, %ecx	# D.21145, tmp305
	sall	%cl, %edx	# tmp305, D.21145
	movl	%edx, %eax	# D.21145, D.21145
	subl	$1, %eax	#, max_mvd.257
	movl	%eax, max_mvd(%rip)	# max_mvd.257, max_mvd
	.loc 1 716 0 discriminator 3
	movl	-28(%rbp), %eax	# max_search_points, tmp230
	cltq
	movl	$4, %esi	#,
	movq	%rax, %rdi	# D.21147,
	call	calloc	#
	movq	%rax, spiral_search_x(%rip)	# spiral_search_x.258, spiral_search_x
	movq	spiral_search_x(%rip), %rax	# spiral_search_x, spiral_search_x.259
	testq	%rax, %rax	# spiral_search_x.259
	jne	.L262	#,
	.loc 1 717 0
	movl	$.LC8, %edi	#,
	call	no_mem_exit	#
.L262:
	.loc 1 718 0
	movl	-28(%rbp), %eax	# max_search_points, tmp232
	cltq
	movl	$4, %esi	#,
	movq	%rax, %rdi	# D.21147,
	call	calloc	#
	movq	%rax, spiral_search_y(%rip)	# spiral_search_y.260, spiral_search_y
	movq	spiral_search_y(%rip), %rax	# spiral_search_y, spiral_search_y.261
	testq	%rax, %rax	# spiral_search_y.261
	jne	.L263	#,
	.loc 1 719 0
	movl	$.LC9, %edi	#,
	call	no_mem_exit	#
.L263:
	.loc 1 720 0
	movl	max_mvd(%rip), %eax	# max_mvd, max_mvd.262
	addl	%eax, %eax	# D.21145
	addl	$1, %eax	#, D.21145
	cltq
	movl	$4, %esi	#,
	movq	%rax, %rdi	# D.21147,
	call	calloc	#
	movq	%rax, mvbits(%rip)	# mvbits.263, mvbits
	movq	mvbits(%rip), %rax	# mvbits, mvbits.264
	testq	%rax, %rax	# mvbits.264
	jne	.L264	#,
	.loc 1 721 0
	movl	$.LC10, %edi	#,
	call	no_mem_exit	#
.L264:
	.loc 1 722 0
	movl	-20(%rbp), %eax	# max_ref, tmp235
	cltq
	movl	$4, %esi	#,
	movq	%rax, %rdi	# D.21147,
	call	calloc	#
	movq	%rax, refbits(%rip)	# refbits.265, refbits
	movq	refbits(%rip), %rax	# refbits, refbits.266
	testq	%rax, %rax	# refbits.266
	jne	.L265	#,
	.loc 1 723 0
	movl	$.LC11, %edi	#,
	call	no_mem_exit	#
.L265:
	.loc 1 724 0
	movl	-40(%rbp), %eax	# byte_abs_range, tmp237
	cltq
	movl	$4, %esi	#,
	movq	%rax, %rdi	# D.21147,
	call	calloc	#
	movq	%rax, byte_abs(%rip)	# byte_abs.267, byte_abs
	movq	byte_abs(%rip), %rax	# byte_abs, byte_abs.268
	testq	%rax, %rax	# byte_abs.268
	jne	.L266	#,
	.loc 1 725 0
	movl	$.LC12, %edi	#,
	call	no_mem_exit	#
.L266:
	.loc 1 727 0
	movq	img(%rip), %rax	# img, img.269
	movl	36(%rax), %eax	# img.269_82->max_num_references, D.21145
	addl	$1, %eax	#, D.21145
	movl	$4, %r8d	#,
	movl	%eax, %ecx	# D.21145,
	movl	$2, %edx	#,
	movl	$8, %esi	#,
	movl	$motion_cost, %edi	#,
	call	get_mem4Dint	#
	.loc 1 730 0
	movq	mvbits(%rip), %rax	# mvbits, mvbits.270
	movl	max_mvd(%rip), %edx	# max_mvd, max_mvd.271
	movslq	%edx, %rdx	# max_mvd.271, D.21147
	salq	$2, %rdx	#, D.21147
	addq	%rdx, %rax	# D.21147, mvbits.272
	movq	%rax, mvbits(%rip)	# mvbits.272, mvbits
	.loc 1 731 0
	movq	byte_abs(%rip), %rdx	# byte_abs, byte_abs.273
	movl	-40(%rbp), %eax	# byte_abs_range, tmp239
	movl	%eax, %ecx	# tmp239, tmp240
	shrl	$31, %ecx	#, tmp240
	addl	%ecx, %eax	# tmp240, tmp241
	sarl	%eax	# tmp242
	cltq
	salq	$2, %rax	#, D.21147
	addq	%rdx, %rax	# byte_abs.273, byte_abs.274
	movq	%rax, byte_abs(%rip)	# byte_abs.274, byte_abs
	.loc 1 737 0
	movq	mvbits(%rip), %rax	# mvbits, mvbits.275
	movl	$1, (%rax)	#, *mvbits.275_95
	.loc 1 738 0
	movl	$3, -56(%rbp)	#, bits
	jmp	.L267	#
.L270:
	.loc 1 740 0
	movl	-56(%rbp), %eax	# bits, tmp243
	sarl	%eax	# D.21145
	movl	$1, %edx	#, tmp244
	movl	%eax, %ecx	# D.21145, tmp308
	sall	%cl, %edx	# tmp308, tmp245
	movl	%edx, %eax	# tmp245, tmp245
	movl	%eax, -8(%rbp)	# tmp245, imax
	.loc 1 741 0
	movl	-8(%rbp), %eax	# imax, tmp249
	sarl	%eax	# tmp248
	movl	%eax, -4(%rbp)	# tmp248, imin
	.loc 1 743 0
	movl	-4(%rbp), %eax	# imin, tmp250
	movl	%eax, -52(%rbp)	# tmp250, i
	jmp	.L268	#
.L269:
	.loc 1 743 0 is_stmt 0 discriminator 2
	movq	mvbits(%rip), %rax	# mvbits, mvbits.276
	movl	-52(%rbp), %edx	# i, tmp251
	negl	%edx	# D.21145
	movslq	%edx, %rdx	# D.21145, D.21147
	salq	$2, %rdx	#, D.21147
	leaq	(%rax,%rdx), %rcx	#, D.21148
	movq	mvbits(%rip), %rax	# mvbits, mvbits.277
	movl	-52(%rbp), %edx	# i, tmp252
	movslq	%edx, %rdx	# tmp252, D.21147
	salq	$2, %rdx	#, D.21147
	addq	%rdx, %rax	# D.21147, D.21148
	movl	-56(%rbp), %edx	# bits, tmp253
	movl	%edx, (%rax)	# tmp253, *_109
	movl	(%rax), %eax	# *_109, D.21145
	movl	%eax, (%rcx)	# D.21145, *_105
	addl	$1, -52(%rbp)	#, i
.L268:
	.loc 1 743 0 discriminator 1
	movl	-52(%rbp), %eax	# i, tmp254
	cmpl	-8(%rbp), %eax	# imax, tmp254
	jl	.L269	#,
	.loc 1 738 0 is_stmt 1
	addl	$2, -56(%rbp)	#, bits
.L267:
	.loc 1 738 0 is_stmt 0 discriminator 1
	movl	-56(%rbp), %eax	# bits, tmp255
	cmpl	-12(%rbp), %eax	# max_mv_bits, tmp255
	jle	.L270	#,
	.loc 1 746 0 is_stmt 1
	movq	refbits(%rip), %rax	# refbits, refbits.278
	movl	$1, (%rax)	#, *refbits.278_113
	.loc 1 747 0
	movl	$3, -56(%rbp)	#, bits
	jmp	.L271	#
.L274:
	.loc 1 749 0
	movl	-56(%rbp), %eax	# bits, tmp256
	sarl	%eax	# D.21145
	addl	$1, %eax	#, D.21145
	movl	$1, %edx	#, tmp257
	movl	%eax, %ecx	# D.21145, tmp310
	sall	%cl, %edx	# tmp310, D.21145
	movl	%edx, %eax	# D.21145, D.21145
	subl	$1, %eax	#, tmp258
	movl	%eax, -8(%rbp)	# tmp258, imax
	.loc 1 750 0
	movl	-8(%rbp), %eax	# imax, tmp262
	sarl	%eax	# tmp261
	movl	%eax, -4(%rbp)	# tmp261, imin
	.loc 1 752 0
	movl	-4(%rbp), %eax	# imin, tmp263
	movl	%eax, -52(%rbp)	# tmp263, i
	jmp	.L272	#
.L273:
	.loc 1 752 0 is_stmt 0 discriminator 2
	movq	refbits(%rip), %rax	# refbits, refbits.279
	movl	-52(%rbp), %edx	# i, tmp264
	movslq	%edx, %rdx	# tmp264, D.21147
	salq	$2, %rdx	#, D.21147
	addq	%rax, %rdx	# refbits.279, D.21148
	movl	-56(%rbp), %eax	# bits, tmp265
	movl	%eax, (%rdx)	# tmp265, *_124
	addl	$1, -52(%rbp)	#, i
.L272:
	.loc 1 752 0 discriminator 1
	movl	-52(%rbp), %eax	# i, tmp266
	cmpl	-8(%rbp), %eax	# imax, tmp266
	jl	.L273	#,
	.loc 1 747 0 is_stmt 1
	addl	$2, -56(%rbp)	#, bits
.L271:
	.loc 1 747 0 is_stmt 0 discriminator 1
	movl	-56(%rbp), %eax	# bits, tmp267
	cmpl	-24(%rbp), %eax	# max_ref_bits, tmp267
	jle	.L274	#,
	.loc 1 755 0 is_stmt 1
	movq	byte_abs(%rip), %rax	# byte_abs, byte_abs.280
	movl	$0, (%rax)	#, *byte_abs.280_127
	.loc 1 756 0
	movl	$1, -52(%rbp)	#, i
	jmp	.L275	#
.L276:
	.loc 1 756 0 is_stmt 0 discriminator 2
	movq	byte_abs(%rip), %rax	# byte_abs, byte_abs.281
	movl	-52(%rbp), %edx	# i, tmp268
	movslq	%edx, %rdx	# tmp268, D.21147
	salq	$2, %rdx	#, D.21147
	leaq	(%rax,%rdx), %rcx	#, D.21148
	movq	byte_abs(%rip), %rax	# byte_abs, byte_abs.282
	movl	-52(%rbp), %edx	# i, tmp269
	negl	%edx	# D.21145
	movslq	%edx, %rdx	# D.21145, D.21147
	salq	$2, %rdx	#, D.21147
	addq	%rdx, %rax	# D.21147, D.21148
	movl	-52(%rbp), %edx	# i, tmp270
	movl	%edx, (%rax)	# tmp270, *_138
	movl	(%rax), %eax	# *_138, D.21145
	movl	%eax, (%rcx)	# D.21145, *_133
	addl	$1, -52(%rbp)	#, i
.L275:
	.loc 1 756 0 discriminator 1
	movl	-40(%rbp), %eax	# byte_abs_range, tmp271
	movl	%eax, %edx	# tmp271, tmp272
	shrl	$31, %edx	#, tmp272
	addl	%edx, %eax	# tmp272, tmp273
	sarl	%eax	# tmp274
	cmpl	-52(%rbp), %eax	# i, D.21145
	jg	.L276	#,
	.loc 1 758 0 is_stmt 1
	movq	spiral_search_x(%rip), %rdx	# spiral_search_x, spiral_search_x.283
	movq	spiral_search_y(%rip), %rax	# spiral_search_y, spiral_search_y.284
	movl	$0, (%rax)	#, *spiral_search_y.284_142
	movl	(%rax), %eax	# *spiral_search_y.284_142, D.21145
	movl	%eax, (%rdx)	# D.21145, *spiral_search_x.283_141
	.loc 1 759 0
	movl	$1, -48(%rbp)	#, k
	movl	$1, -44(%rbp)	#, l
	jmp	.L277	#
.L282:
	.loc 1 761 0
	movl	$1, %eax	#, tmp278
	subl	-44(%rbp), %eax	# l, tmp277
	movl	%eax, -52(%rbp)	# tmp277, i
	jmp	.L278	#
.L279:
	.loc 1 763 0 discriminator 2
	movq	spiral_search_x(%rip), %rax	# spiral_search_x, spiral_search_x.285
	movl	-48(%rbp), %edx	# k, tmp279
	movslq	%edx, %rdx	# tmp279, D.21147
	salq	$2, %rdx	#, D.21147
	addq	%rax, %rdx	# spiral_search_x.285, D.21148
	movl	-52(%rbp), %eax	# i, tmp280
	movl	%eax, (%rdx)	# tmp280, *_151
	movq	spiral_search_y(%rip), %rcx	# spiral_search_y, spiral_search_y.286
	movl	-48(%rbp), %eax	# k, k.287
	leal	1(%rax), %edx	#, tmp281
	movl	%edx, -48(%rbp)	# tmp281, k
	cltq
	salq	$2, %rax	#, D.21147
	addq	%rcx, %rax	# spiral_search_y.286, D.21148
	movl	-44(%rbp), %edx	# l, tmp282
	negl	%edx	# D.21145
	movl	%edx, (%rax)	# D.21145, *_157
	.loc 1 764 0 discriminator 2
	movq	spiral_search_x(%rip), %rax	# spiral_search_x, spiral_search_x.288
	movl	-48(%rbp), %edx	# k, tmp283
	movslq	%edx, %rdx	# tmp283, D.21147
	salq	$2, %rdx	#, D.21147
	addq	%rax, %rdx	# spiral_search_x.288, D.21148
	movl	-52(%rbp), %eax	# i, tmp284
	movl	%eax, (%rdx)	# tmp284, *_162
	movq	spiral_search_y(%rip), %rcx	# spiral_search_y, spiral_search_y.289
	movl	-48(%rbp), %eax	# k, k.290
	leal	1(%rax), %edx	#, tmp285
	movl	%edx, -48(%rbp)	# tmp285, k
	cltq
	salq	$2, %rax	#, D.21147
	leaq	(%rcx,%rax), %rdx	#, D.21148
	movl	-44(%rbp), %eax	# l, tmp286
	movl	%eax, (%rdx)	# tmp286, *_168
	.loc 1 761 0 discriminator 2
	addl	$1, -52(%rbp)	#, i
.L278:
	.loc 1 761 0 is_stmt 0 discriminator 1
	movl	-52(%rbp), %eax	# i, tmp287
	cmpl	-44(%rbp), %eax	# l, tmp287
	jl	.L279	#,
	.loc 1 766 0 is_stmt 1
	movl	-44(%rbp), %eax	# l, tmp291
	negl	%eax	# tmp290
	movl	%eax, -52(%rbp)	# tmp290, i
	jmp	.L280	#
.L281:
	.loc 1 768 0 discriminator 2
	movq	spiral_search_x(%rip), %rax	# spiral_search_x, spiral_search_x.291
	movl	-48(%rbp), %edx	# k, tmp292
	movslq	%edx, %rdx	# tmp292, D.21147
	salq	$2, %rdx	#, D.21147
	addq	%rdx, %rax	# D.21147, D.21148
	movl	-44(%rbp), %edx	# l, tmp293
	negl	%edx	# D.21145
	movl	%edx, (%rax)	# D.21145, *_174
	movq	spiral_search_y(%rip), %rcx	# spiral_search_y, spiral_search_y.292
	movl	-48(%rbp), %eax	# k, k.293
	leal	1(%rax), %edx	#, tmp294
	movl	%edx, -48(%rbp)	# tmp294, k
	cltq
	salq	$2, %rax	#, D.21147
	leaq	(%rcx,%rax), %rdx	#, D.21148
	movl	-52(%rbp), %eax	# i, tmp295
	movl	%eax, (%rdx)	# tmp295, *_181
	.loc 1 769 0 discriminator 2
	movq	spiral_search_x(%rip), %rax	# spiral_search_x, spiral_search_x.294
	movl	-48(%rbp), %edx	# k, tmp296
	movslq	%edx, %rdx	# tmp296, D.21147
	salq	$2, %rdx	#, D.21147
	addq	%rax, %rdx	# spiral_search_x.294, D.21148
	movl	-44(%rbp), %eax	# l, tmp297
	movl	%eax, (%rdx)	# tmp297, *_185
	movq	spiral_search_y(%rip), %rcx	# spiral_search_y, spiral_search_y.295
	movl	-48(%rbp), %eax	# k, k.296
	leal	1(%rax), %edx	#, tmp298
	movl	%edx, -48(%rbp)	# tmp298, k
	cltq
	salq	$2, %rax	#, D.21147
	leaq	(%rcx,%rax), %rdx	#, D.21148
	movl	-52(%rbp), %eax	# i, tmp299
	movl	%eax, (%rdx)	# tmp299, *_191
	.loc 1 766 0 discriminator 2
	addl	$1, -52(%rbp)	#, i
.L280:
	.loc 1 766 0 is_stmt 0 discriminator 1
	movl	-52(%rbp), %eax	# i, tmp300
	cmpl	-44(%rbp), %eax	# l, tmp300
	jle	.L281	#,
	.loc 1 759 0 is_stmt 1
	addl	$1, -44(%rbp)	#, l
.L277:
	.loc 1 759 0 is_stmt 0 discriminator 1
	movl	$1, %eax	#, tmp301
	cmpl	$0, -36(%rbp)	#, search_range
	cmovg	-36(%rbp), %eax	# search_range,, D.21145
	cmpl	-44(%rbp), %eax	# l, D.21145
	jge	.L282	#,
	.loc 1 774 0 is_stmt 1
	movq	input(%rip), %rax	# input, input.297
	movl	3292(%rax), %eax	# input.297_194->FMEnable, D.21145
	testl	%eax, %eax	# D.21145
	jne	.L259	#,
	.loc 1 775 0
	movl	$0, %eax	#,
	call	InitializeFastFullIntegerSearch	#
.L259:
	.loc 1 777 0
	leave
	.cfi_def_cfa 7, 8
	ret
	.cfi_endproc
.LFE8:
	.size	Init_Motion_Search_Module, .-Init_Motion_Search_Module
	.globl	Clear_Motion_Search_Module
	.type	Clear_Motion_Search_Module, @function
Clear_Motion_Search_Module:
.LFB9:
	.loc 1 788 0
	.cfi_startproc
	pushq	%rbp	#
	.cfi_def_cfa_offset 16
	.cfi_offset 6, -16
	movq	%rsp, %rbp	#,
	.cfi_def_cfa_register 6
	.loc 1 790 0
	movq	mvbits(%rip), %rax	# mvbits, mvbits.298
	movl	max_mvd(%rip), %edx	# max_mvd, max_mvd.299
	movslq	%edx, %rdx	# max_mvd.299, D.21154
	salq	$2, %rdx	#, D.21154
	negq	%rdx	# D.21155
	addq	%rdx, %rax	# D.21155, mvbits.300
	movq	%rax, mvbits(%rip)	# mvbits.300, mvbits
	.loc 1 791 0
	movq	byte_abs(%rip), %rdx	# byte_abs, byte_abs.301
	movq	img(%rip), %rax	# img, img.303
	movl	72684(%rax), %ecx	# img.303_9->max_imgpel_value, D.21156
	movq	img(%rip), %rax	# img, img.304
	movl	72688(%rax), %eax	# img.304_11->max_imgpel_value_uv, D.21156
	cmpl	%eax, %ecx	# D.21156, D.21156
	jle	.L285	#,
	.loc 1 791 0 is_stmt 0 discriminator 1
	movq	img(%rip), %rax	# img, img.305
	movl	72684(%rax), %eax	# img.305_13->max_imgpel_value, D.21156
	addl	$1, %eax	#, D.21156
	cltq
	salq	$2, %rax	#, D.21154
	negq	%rax	# iftmp.302
	jmp	.L286	#
.L285:
	.loc 1 791 0 discriminator 2
	movq	img(%rip), %rax	# img, img.306
	movl	72688(%rax), %eax	# img.306_19->max_imgpel_value_uv, D.21156
	addl	$1, %eax	#, D.21156
	cltq
	salq	$2, %rax	#, D.21154
	negq	%rax	# iftmp.302
.L286:
	.loc 1 791 0 discriminator 3
	addq	%rdx, %rax	# byte_abs.301, byte_abs.307
	movq	%rax, byte_abs(%rip)	# byte_abs.307, byte_abs
	.loc 1 794 0 is_stmt 1 discriminator 3
	movq	spiral_search_x(%rip), %rax	# spiral_search_x, spiral_search_x.308
	movq	%rax, %rdi	# spiral_search_x.308,
	call	free	#
	.loc 1 795 0 discriminator 3
	movq	spiral_search_y(%rip), %rax	# spiral_search_y, spiral_search_y.309
	movq	%rax, %rdi	# spiral_search_y.309,
	call	free	#
	.loc 1 796 0 discriminator 3
	movq	mvbits(%rip), %rax	# mvbits, mvbits.310
	movq	%rax, %rdi	# mvbits.310,
	call	free	#
	.loc 1 797 0 discriminator 3
	movq	refbits(%rip), %rax	# refbits, refbits.311
	movq	%rax, %rdi	# refbits.311,
	call	free	#
	.loc 1 798 0 discriminator 3
	movq	byte_abs(%rip), %rax	# byte_abs, byte_abs.312
	movq	%rax, %rdi	# byte_abs.312,
	call	free	#
	.loc 1 799 0 discriminator 3
	movq	motion_cost(%rip), %rax	# motion_cost, motion_cost.313
	movl	$2, %edx	#,
	movl	$8, %esi	#,
	movq	%rax, %rdi	# motion_cost.313,
	call	free_mem4Dint	#
	.loc 1 802 0 discriminator 3
	movq	input(%rip), %rax	# input, input.314
	movl	3292(%rax), %eax	# input.314_32->FMEnable, D.21156
	testl	%eax, %eax	# D.21156
	jne	.L284	#,
	.loc 1 803 0
	movl	$0, %eax	#,
	call	ClearFastFullIntegerSearch	#
.L284:
	.loc 1 805 0
	popq	%rbp	#
	.cfi_def_cfa 7, 8
	ret
	.cfi_endproc
.LFE9:
	.size	Clear_Motion_Search_Module, .-Clear_Motion_Search_Module
	.globl	FullPelBlockMotionSearch
	.type	FullPelBlockMotionSearch, @function
FullPelBlockMotionSearch:
.LFB10:
	.loc 1 829 0
	.cfi_startproc
	pushq	%rbp	#
	.cfi_def_cfa_offset 16
	.cfi_offset 6, -16
	movq	%rsp, %rbp	#,
	.cfi_def_cfa_register 6
	subq	$176, %rsp	#,
	movq	%rdi, -136(%rbp)	# orig_pic, orig_pic
	movl	%esi, %eax	# ref, tmp251
	movl	%edx, -144(%rbp)	# list, list
	movl	%ecx, -148(%rbp)	# pic_pix_x, pic_pix_x
	movl	%r8d, -152(%rbp)	# pic_pix_y, pic_pix_y
	movl	%r9d, -156(%rbp)	# blocktype, blocktype
	movl	16(%rbp), %ecx	# pred_mv_x, tmp252
	movl	24(%rbp), %edx	# pred_mv_y, tmp253
	movsd	%xmm0, -176(%rbp)	# lambda, lambda
	movw	%ax, -140(%rbp)	# tmp251, ref
	movw	%cx, -160(%rbp)	# tmp252, pred_mv_x
	movw	%dx, -164(%rbp)	# tmp253, pred_mv_y
	.loc 1 835 0
	movq	img(%rip), %rax	# img, img.316
	movl	72400(%rax), %eax	# img.316_20->MbaffFrameFlag, D.21157
	testl	%eax, %eax	# D.21157
	je	.L289	#,
	.loc 1 835 0 is_stmt 0 discriminator 1
	movq	img(%rip), %rax	# img, img.317
	movq	14168(%rax), %rdx	# img.317_22->mb_data, D.21158
	movq	img(%rip), %rax	# img, img.318
	movl	12(%rax), %eax	# img.318_24->current_mb_nr, D.21157
	cltq
	imulq	$632, %rax, %rax	#, D.21159, D.21159
	addq	%rdx, %rax	# D.21158, D.21158
	movl	532(%rax), %eax	# _28->mb_field, D.21157
	testl	%eax, %eax	# D.21157
	je	.L289	#,
	movq	img(%rip), %rax	# img, img.320
	movl	12(%rax), %eax	# img.320_30->current_mb_nr, D.21157
	andl	$1, %eax	#, D.21160
	testl	%eax, %eax	# D.21160
	je	.L290	#,
	movl	$4, %eax	#, iftmp.319
	jmp	.L291	#
.L290:
	.loc 1 835 0 discriminator 2
	movl	$2, %eax	#, iftmp.319
.L291:
	.loc 1 835 0 discriminator 3
	jmp	.L292	#
.L289:
	.loc 1 835 0 discriminator 2
	movl	$0, %eax	#, iftmp.315
.L292:
	.loc 1 835 0 discriminator 3
	movl	%eax, -96(%rbp)	# iftmp.315, list_offset
	.loc 1 836 0 is_stmt 1 discriminator 3
	movl	-96(%rbp), %eax	# list_offset, tmp254
	movl	-144(%rbp), %edx	# list, tmp255
	addl	%edx, %eax	# tmp255, D.21157
	cltq
	movq	listX(,%rax,8), %rax	# listX, D.21161
	movswq	-140(%rbp), %rdx	# ref, D.21159
	salq	$3, %rdx	#, D.21159
	addq	%rdx, %rax	# D.21159, D.21161
	movq	(%rax), %rax	# *_45, D.21162
	movq	6432(%rax), %rax	# _46->imgY_11, tmp257
	movq	%rax, -8(%rbp)	# tmp257, ref_pic
	.loc 1 837 0 discriminator 3
	movl	-96(%rbp), %eax	# list_offset, tmp258
	movl	-144(%rbp), %edx	# list, tmp259
	addl	%edx, %eax	# tmp259, D.21157
	cltq
	movq	listX(,%rax,8), %rax	# listX, D.21161
	movswq	-140(%rbp), %rdx	# ref, D.21159
	salq	$3, %rdx	#, D.21159
	addq	%rdx, %rax	# D.21159, D.21161
	movq	(%rax), %rax	# *_52, D.21162
	movl	6392(%rax), %eax	# _53->size_x, tmp261
	movl	%eax, -92(%rbp)	# tmp261, img_width
	.loc 1 838 0 discriminator 3
	movl	-96(%rbp), %eax	# list_offset, tmp262
	movl	-144(%rbp), %edx	# list, tmp263
	addl	%edx, %eax	# tmp263, D.21157
	cltq
	movq	listX(,%rax,8), %rax	# listX, D.21161
	movswq	-140(%rbp), %rdx	# ref, D.21159
	salq	$3, %rdx	#, D.21159
	addq	%rdx, %rax	# D.21159, D.21161
	movq	(%rax), %rax	# *_59, D.21162
	movl	6396(%rax), %eax	# _60->size_y, tmp265
	movl	%eax, -88(%rbp)	# tmp265, img_height
	.loc 1 840 0 discriminator 3
	movl	$0, -100(%rbp)	#, best_pos
	.loc 1 841 0 discriminator 3
	movl	48(%rbp), %eax	# search_range, tmp266
	addl	%eax, %eax	# D.21157
	leal	1(%rax), %edx	#, D.21157
	movl	48(%rbp), %eax	# search_range, tmp267
	addl	%eax, %eax	# D.21157
	addl	$1, %eax	#, D.21157
	imull	%edx, %eax	# D.21157, tmp268
	movl	%eax, -84(%rbp)	# tmp268, max_pos
	.loc 1 842 0 discriminator 3
	movsd	-176(%rbp), %xmm1	# lambda, tmp269
	movsd	.LC13(%rip), %xmm0	#, tmp270
	mulsd	%xmm1, %xmm0	# tmp269, D.21163
	movsd	.LC14(%rip), %xmm1	#, tmp271
	addsd	%xmm1, %xmm0	# tmp271, D.21163
	cvttsd2si	%xmm0, %eax	# D.21163, tmp272
	movl	%eax, -80(%rbp)	# tmp272, lambda_factor
	.loc 1 843 0 discriminator 3
	movq	input(%rip), %rax	# input, input.321
	movl	-156(%rbp), %edx	# blocktype, tmp274
	movslq	%edx, %rdx	# tmp274, tmp273
	movl	84(%rax,%rdx,8), %eax	# input.321_73->blc_size, tmp275
	movl	%eax, -76(%rbp)	# tmp275, blocksize_y
	.loc 1 844 0 discriminator 3
	movq	input(%rip), %rax	# input, input.322
	movl	-156(%rbp), %edx	# blocktype, tmp277
	movslq	%edx, %rdx	# tmp277, tmp276
	addq	$10, %rdx	#, tmp278
	movl	(%rax,%rdx,8), %eax	# input.322_76->blc_size, tmp279
	movl	%eax, -72(%rbp)	# tmp279, blocksize_x
	.loc 1 845 0 discriminator 3
	movl	-72(%rbp), %eax	# blocksize_x, tmp283
	sarl	$2, %eax	#, tmp282
	movl	%eax, -68(%rbp)	# tmp282, blocksize_x4
	.loc 1 846 0 discriminator 3
	movl	-148(%rbp), %eax	# pic_pix_x, tmp284
	leal	0(,%rax,4), %edx	#, D.21157
	movswl	-160(%rbp), %eax	# pred_mv_x, D.21157
	addl	%edx, %eax	# D.21157, tmp285
	movl	%eax, -64(%rbp)	# tmp285, pred_x
	.loc 1 847 0 discriminator 3
	movl	-152(%rbp), %eax	# pic_pix_y, tmp286
	leal	0(,%rax,4), %edx	#, D.21157
	movswl	-164(%rbp), %eax	# pred_mv_y, D.21157
	addl	%edx, %eax	# D.21157, tmp287
	movl	%eax, -60(%rbp)	# tmp287, pred_y
	.loc 1 848 0 discriminator 3
	movq	32(%rbp), %rax	# mv_x, tmp288
	movzwl	(%rax), %eax	# *mv_x_89(D), D.21164
	movswl	%ax, %edx	# D.21164, D.21157
	movl	-148(%rbp), %eax	# pic_pix_x, tmp292
	addl	%edx, %eax	# D.21157, tmp291
	movl	%eax, -56(%rbp)	# tmp291, center_x
	.loc 1 849 0 discriminator 3
	movq	40(%rbp), %rax	# mv_y, tmp293
	movzwl	(%rax), %eax	# *mv_y_93(D), D.21164
	movswl	%ax, %edx	# D.21164, D.21157
	movl	-152(%rbp), %eax	# pic_pix_y, tmp297
	addl	%edx, %eax	# D.21157, tmp296
	movl	%eax, -52(%rbp)	# tmp296, center_y
	.loc 1 850 0 discriminator 3
	cmpl	$1, -156(%rbp)	#, blocktype
	jne	.L293	#,
	.loc 1 850 0 is_stmt 0 discriminator 1
	movq	input(%rip), %rax	# input, input.324
	movl	2464(%rax), %eax	# input.324_97->rdopt, D.21157
	testl	%eax, %eax	# D.21157
	jne	.L293	#,
	movq	img(%rip), %rax	# img, img.325
	movl	24(%rax), %eax	# img.325_99->type, D.21157
	cmpl	$1, %eax	#, D.21157
	je	.L293	#,
	cmpw	$0, -140(%rbp)	#, ref
	jne	.L293	#,
	.loc 1 850 0 discriminator 3
	movl	$1, %eax	#, iftmp.323
	jmp	.L294	#
.L293:
	.loc 1 850 0 discriminator 2
	movl	$0, %eax	#, iftmp.323
.L294:
	.loc 1 850 0 discriminator 4
	movl	%eax, -48(%rbp)	# iftmp.323, check_for_00
	.loc 1 852 0 is_stmt 1 discriminator 4
	movq	active_pps(%rip), %rax	# active_pps, active_pps.327
	movl	192(%rax), %eax	# active_pps.327_104->weighted_pred_flag, D.21165
	testl	%eax, %eax	# D.21165
	je	.L295	#,
	.loc 1 852 0 is_stmt 0 discriminator 1
	movq	img(%rip), %rax	# img, img.328
	movl	24(%rax), %eax	# img.328_106->type, D.21157
	testl	%eax, %eax	# D.21157
	je	.L296	#,
	.loc 1 852 0 discriminator 2
	movq	img(%rip), %rax	# img, img.329
	movl	24(%rax), %eax	# img.329_108->type, D.21157
	cmpl	$3, %eax	#, D.21157
	je	.L296	#,
.L295:
	.loc 1 853 0 is_stmt 1 discriminator 2
	movq	active_pps(%rip), %rax	# active_pps, active_pps.330
	movl	196(%rax), %eax	# active_pps.330_110->weighted_bipred_idc, D.21166
	.loc 1 852 0 discriminator 2
	testl	%eax, %eax	# D.21166
	je	.L297	#,
	.loc 1 853 0
	movq	img(%rip), %rax	# img, img.331
	movl	24(%rax), %eax	# img.331_112->type, D.21157
	cmpl	$1, %eax	#, D.21157
	jne	.L297	#,
.L296:
	.loc 1 852 0 discriminator 1
	movl	$1, %eax	#, iftmp.326
	jmp	.L298	#
.L297:
	.loc 1 852 0 is_stmt 0 discriminator 3
	movl	$0, %eax	#, iftmp.326
.L298:
	.loc 1 852 0 discriminator 4
	movl	%eax, -44(%rbp)	# iftmp.326, apply_weights
	.loc 1 856 0 is_stmt 1 discriminator 4
	cmpl	$0, -44(%rbp)	#, apply_weights
	je	.L299	#,
	.loc 1 856 0 is_stmt 0 discriminator 1
	movq	input(%rip), %rax	# input, input.332
	movl	1292(%rax), %eax	# input.332_117->UseWeightedReferenceME, D.21157
	testl	%eax, %eax	# D.21157
	je	.L299	#,
	.loc 1 857 0 is_stmt 1
	movl	-96(%rbp), %eax	# list_offset, tmp298
	movl	-144(%rbp), %edx	# list, tmp299
	addl	%edx, %eax	# tmp299, D.21157
	cltq
	movq	listX(,%rax,8), %rax	# listX, D.21161
	movswq	-140(%rbp), %rdx	# ref, D.21159
	salq	$3, %rdx	#, D.21159
	addq	%rdx, %rax	# D.21159, D.21161
	movq	(%rax), %rax	# *_123, D.21162
	movq	6440(%rax), %rax	# _124->imgY_11_w, tmp301
	movq	%rax, -8(%rbp)	# tmp301, ref_pic
	jmp	.L300	#
.L299:
	.loc 1 859 0
	movl	-96(%rbp), %eax	# list_offset, tmp302
	movl	-144(%rbp), %edx	# list, tmp303
	addl	%edx, %eax	# tmp303, D.21157
	cltq
	movq	listX(,%rax,8), %rax	# listX, D.21161
	movswq	-140(%rbp), %rdx	# ref, D.21159
	salq	$3, %rdx	#, D.21159
	addq	%rdx, %rax	# D.21159, D.21161
	movq	(%rax), %rax	# *_130, D.21162
	movq	6432(%rax), %rax	# _131->imgY_11, tmp305
	movq	%rax, -8(%rbp)	# tmp305, ref_pic
.L300:
	.loc 1 862 0
	movl	-56(%rbp), %eax	# center_x, tmp306
	cmpl	48(%rbp), %eax	# search_range, tmp306
	jle	.L301	#,
	.loc 1 862 0 is_stmt 0 discriminator 1
	movq	img(%rip), %rax	# img, img.333
	movl	52(%rax), %eax	# img.333_133->width, D.21157
	subl	$1, %eax	#, D.21157
	subl	48(%rbp), %eax	# search_range, D.21157
	subl	-72(%rbp), %eax	# blocksize_x, D.21157
	cmpl	-56(%rbp), %eax	# center_x, D.21157
	jle	.L301	#,
	movl	-52(%rbp), %eax	# center_y, tmp307
	cmpl	48(%rbp), %eax	# search_range, tmp307
	jle	.L301	#,
	.loc 1 863 0 is_stmt 1
	movq	img(%rip), %rax	# img, img.334
	movl	60(%rax), %eax	# img.334_138->height, D.21157
	subl	$1, %eax	#, D.21157
	subl	48(%rbp), %eax	# search_range, D.21157
	subl	-76(%rbp), %eax	# blocksize_y, D.21157
	cmpl	-52(%rbp), %eax	# center_y, D.21157
	jle	.L301	#,
	.loc 1 865 0
	movq	$FastLineX, -16(%rbp)	#, get_ref_line
	jmp	.L302	#
.L301:
	.loc 1 869 0
	movq	$UMVLineX, -16(%rbp)	#, get_ref_line
.L302:
	.loc 1 874 0
	movl	$0, -116(%rbp)	#, pos
	jmp	.L303	#
.L313:
	.loc 1 877 0
	movq	spiral_search_x(%rip), %rax	# spiral_search_x, spiral_search_x.335
	movl	-116(%rbp), %edx	# pos, tmp308
	movslq	%edx, %rdx	# tmp308, D.21159
	salq	$2, %rdx	#, D.21159
	addq	%rdx, %rax	# D.21159, D.21167
	movl	(%rax), %edx	# *_150, D.21157
	movl	-56(%rbp), %eax	# center_x, tmp312
	addl	%edx, %eax	# D.21157, tmp311
	movl	%eax, -40(%rbp)	# tmp311, cand_x
	.loc 1 878 0
	movq	spiral_search_y(%rip), %rax	# spiral_search_y, spiral_search_y.336
	movl	-116(%rbp), %edx	# pos, tmp313
	movslq	%edx, %rdx	# tmp313, D.21159
	salq	$2, %rdx	#, D.21159
	addq	%rdx, %rax	# D.21159, D.21167
	movl	(%rax), %edx	# *_156, D.21157
	movl	-52(%rbp), %eax	# center_y, tmp317
	addl	%edx, %eax	# D.21157, tmp316
	movl	%eax, -36(%rbp)	# tmp316, cand_y
	.loc 1 881 0
	movq	mvbits(%rip), %rax	# mvbits, mvbits.337
	movl	-40(%rbp), %edx	# cand_x, tmp318
	sall	$2, %edx	#, D.21157
	subl	-64(%rbp), %edx	# pred_x, D.21157
	movslq	%edx, %rdx	# D.21157, D.21159
	salq	$2, %rdx	#, D.21159
	addq	%rdx, %rax	# D.21159, D.21167
	movl	(%rax), %edx	# *_164, D.21157
	movq	mvbits(%rip), %rax	# mvbits, mvbits.338
	movl	-36(%rbp), %ecx	# cand_y, tmp319
	sall	$2, %ecx	#, D.21157
	subl	-60(%rbp), %ecx	# pred_y, D.21157
	movslq	%ecx, %rcx	# D.21157, D.21159
	salq	$2, %rcx	#, D.21159
	addq	%rcx, %rax	# D.21159, D.21167
	movl	(%rax), %eax	# *_171, D.21157
	addl	%edx, %eax	# D.21157, D.21157
	imull	-80(%rbp), %eax	# lambda_factor, D.21157
	sarl	$16, %eax	#, tmp320
	movl	%eax, -104(%rbp)	# tmp320, mcost
	.loc 1 882 0
	cmpl	$0, -48(%rbp)	#, check_for_00
	je	.L304	#,
	.loc 1 882 0 is_stmt 0 discriminator 1
	movl	-40(%rbp), %eax	# cand_x, tmp321
	cmpl	-148(%rbp), %eax	# pic_pix_x, tmp321
	jne	.L304	#,
	movl	-36(%rbp), %eax	# cand_y, tmp322
	cmpl	-152(%rbp), %eax	# pic_pix_y, tmp322
	jne	.L304	#,
	.loc 1 884 0 is_stmt 1
	movl	-80(%rbp), %eax	# lambda_factor, tmp323
	sall	$4, %eax	#, D.21157
	sarl	$16, %eax	#, D.21157
	subl	%eax, -104(%rbp)	# D.21157, mcost
.L304:
	.loc 1 886 0
	movl	-104(%rbp), %eax	# mcost, tmp324
	cmpl	56(%rbp), %eax	# min_mcost, tmp324
	jl	.L305	#,
	.loc 1 886 0 is_stmt 0 discriminator 1
	jmp	.L306	#
.L305:
	.loc 1 889 0 is_stmt 1
	movl	$0, -112(%rbp)	#, y
	jmp	.L307	#
.L312:
	.loc 1 891 0
	movl	-112(%rbp), %eax	# y, tmp325
	movl	-36(%rbp), %edx	# cand_y, tmp326
	leal	(%rdx,%rax), %r10d	#, D.21157
	movl	-92(%rbp), %r8d	# img_width, tmp327
	movl	-88(%rbp), %ecx	# img_height, tmp328
	movl	-40(%rbp), %edx	# cand_x, tmp329
	movq	-8(%rbp), %rsi	# ref_pic, tmp330
	movl	-72(%rbp), %edi	# blocksize_x, tmp331
	movq	-16(%rbp), %rax	# get_ref_line, tmp332
	movl	%r8d, %r9d	# tmp327,
	movl	%ecx, %r8d	# tmp328,
	movl	%edx, %ecx	# tmp329,
	movl	%r10d, %edx	# D.21157,
	call	*%rax	# tmp332
	movq	%rax, -24(%rbp)	# tmp333, ref_line
	.loc 1 892 0
	movl	-112(%rbp), %eax	# y, tmp334
	cltq
	leaq	0(,%rax,8), %rdx	#, D.21159
	movq	-136(%rbp), %rax	# orig_pic, tmp335
	addq	%rdx, %rax	# D.21159, D.21168
	movq	(%rax), %rax	# *_185, tmp336
	movq	%rax, -32(%rbp)	# tmp336, orig_line
	.loc 1 894 0
	movl	$0, -108(%rbp)	#, x4
	jmp	.L308	#
.L309:
	.loc 1 896 0 discriminator 2
	movq	byte_abs(%rip), %rcx	# byte_abs, byte_abs.339
	movq	-32(%rbp), %rax	# orig_line, orig_line.340
	leaq	2(%rax), %rdx	#, tmp337
	movq	%rdx, -32(%rbp)	# tmp337, orig_line
	movzwl	(%rax), %eax	# *orig_line.340_189, D.21169
	movzwl	%ax, %esi	# D.21169, D.21157
	movq	-24(%rbp), %rax	# ref_line, ref_line.341
	leaq	2(%rax), %rdx	#, tmp338
	movq	%rdx, -24(%rbp)	# tmp338, ref_line
	movzwl	(%rax), %eax	# *ref_line.341_193, D.21169
	movzwl	%ax, %eax	# D.21169, D.21157
	subl	%eax, %esi	# D.21157, D.21157
	movl	%esi, %eax	# D.21157, D.21157
	cltq
	salq	$2, %rax	#, D.21159
	addq	%rcx, %rax	# byte_abs.339, D.21167
	movl	(%rax), %eax	# *_200, D.21157
	addl	%eax, -104(%rbp)	# D.21157, mcost
	.loc 1 897 0 discriminator 2
	movq	byte_abs(%rip), %rcx	# byte_abs, byte_abs.342
	movq	-32(%rbp), %rax	# orig_line, orig_line.343
	leaq	2(%rax), %rdx	#, tmp339
	movq	%rdx, -32(%rbp)	# tmp339, orig_line
	movzwl	(%rax), %eax	# *orig_line.343_204, D.21169
	movzwl	%ax, %esi	# D.21169, D.21157
	movq	-24(%rbp), %rax	# ref_line, ref_line.344
	leaq	2(%rax), %rdx	#, tmp340
	movq	%rdx, -24(%rbp)	# tmp340, ref_line
	movzwl	(%rax), %eax	# *ref_line.344_208, D.21169
	movzwl	%ax, %eax	# D.21169, D.21157
	subl	%eax, %esi	# D.21157, D.21157
	movl	%esi, %eax	# D.21157, D.21157
	cltq
	salq	$2, %rax	#, D.21159
	addq	%rcx, %rax	# byte_abs.342, D.21167
	movl	(%rax), %eax	# *_215, D.21157
	addl	%eax, -104(%rbp)	# D.21157, mcost
	.loc 1 898 0 discriminator 2
	movq	byte_abs(%rip), %rcx	# byte_abs, byte_abs.345
	movq	-32(%rbp), %rax	# orig_line, orig_line.346
	leaq	2(%rax), %rdx	#, tmp341
	movq	%rdx, -32(%rbp)	# tmp341, orig_line
	movzwl	(%rax), %eax	# *orig_line.346_219, D.21169
	movzwl	%ax, %esi	# D.21169, D.21157
	movq	-24(%rbp), %rax	# ref_line, ref_line.347
	leaq	2(%rax), %rdx	#, tmp342
	movq	%rdx, -24(%rbp)	# tmp342, ref_line
	movzwl	(%rax), %eax	# *ref_line.347_223, D.21169
	movzwl	%ax, %eax	# D.21169, D.21157
	subl	%eax, %esi	# D.21157, D.21157
	movl	%esi, %eax	# D.21157, D.21157
	cltq
	salq	$2, %rax	#, D.21159
	addq	%rcx, %rax	# byte_abs.345, D.21167
	movl	(%rax), %eax	# *_230, D.21157
	addl	%eax, -104(%rbp)	# D.21157, mcost
	.loc 1 899 0 discriminator 2
	movq	byte_abs(%rip), %rcx	# byte_abs, byte_abs.348
	movq	-32(%rbp), %rax	# orig_line, orig_line.349
	leaq	2(%rax), %rdx	#, tmp343
	movq	%rdx, -32(%rbp)	# tmp343, orig_line
	movzwl	(%rax), %eax	# *orig_line.349_234, D.21169
	movzwl	%ax, %esi	# D.21169, D.21157
	movq	-24(%rbp), %rax	# ref_line, ref_line.350
	leaq	2(%rax), %rdx	#, tmp344
	movq	%rdx, -24(%rbp)	# tmp344, ref_line
	movzwl	(%rax), %eax	# *ref_line.350_238, D.21169
	movzwl	%ax, %eax	# D.21169, D.21157
	subl	%eax, %esi	# D.21157, D.21157
	movl	%esi, %eax	# D.21157, D.21157
	cltq
	salq	$2, %rax	#, D.21159
	addq	%rcx, %rax	# byte_abs.348, D.21167
	movl	(%rax), %eax	# *_245, D.21157
	addl	%eax, -104(%rbp)	# D.21157, mcost
	.loc 1 894 0 discriminator 2
	addl	$1, -108(%rbp)	#, x4
.L308:
	.loc 1 894 0 is_stmt 0 discriminator 1
	movl	-108(%rbp), %eax	# x4, tmp345
	cmpl	-68(%rbp), %eax	# blocksize_x4, tmp345
	jl	.L309	#,
	.loc 1 902 0 is_stmt 1
	movl	-104(%rbp), %eax	# mcost, tmp346
	cmpl	56(%rbp), %eax	# min_mcost, tmp346
	jl	.L310	#,
	.loc 1 904 0
	jmp	.L311	#
.L310:
	.loc 1 889 0
	addl	$1, -112(%rbp)	#, y
.L307:
	.loc 1 889 0 is_stmt 0 discriminator 1
	movl	-112(%rbp), %eax	# y, tmp347
	cmpl	-76(%rbp), %eax	# blocksize_y, tmp347
	jl	.L312	#,
.L311:
	.loc 1 909 0 is_stmt 1
	movl	-104(%rbp), %eax	# mcost, tmp348
	cmpl	56(%rbp), %eax	# min_mcost, tmp348
	jge	.L306	#,
	.loc 1 911 0
	movl	-116(%rbp), %eax	# pos, tmp349
	movl	%eax, -100(%rbp)	# tmp349, best_pos
	.loc 1 912 0
	movl	-104(%rbp), %eax	# mcost, tmp350
	movl	%eax, 56(%rbp)	# tmp350, min_mcost
.L306:
	.loc 1 874 0
	addl	$1, -116(%rbp)	#, pos
.L303:
	.loc 1 874 0 is_stmt 0 discriminator 1
	movl	-116(%rbp), %eax	# pos, tmp351
	cmpl	-84(%rbp), %eax	# max_pos, tmp351
	jl	.L313	#,
	.loc 1 918 0 is_stmt 1
	cmpl	$0, -100(%rbp)	#, best_pos
	je	.L314	#,
	.loc 1 920 0
	movq	32(%rbp), %rax	# mv_x, tmp352
	movzwl	(%rax), %eax	# *mv_x_89(D), D.21164
	movl	%eax, %edx	# D.21164, D.21170
	movq	spiral_search_x(%rip), %rax	# spiral_search_x, spiral_search_x.351
	movl	-100(%rbp), %ecx	# best_pos, tmp353
	movslq	%ecx, %rcx	# tmp353, D.21159
	salq	$2, %rcx	#, D.21159
	addq	%rcx, %rax	# D.21159, D.21167
	movl	(%rax), %eax	# *_258, D.21157
	addl	%edx, %eax	# D.21170, D.21170
	movl	%eax, %edx	# D.21170, D.21164
	movq	32(%rbp), %rax	# mv_x, tmp354
	movw	%dx, (%rax)	# D.21164, *mv_x_89(D)
	.loc 1 921 0
	movq	40(%rbp), %rax	# mv_y, tmp355
	movzwl	(%rax), %eax	# *mv_y_93(D), D.21164
	movl	%eax, %edx	# D.21164, D.21170
	movq	spiral_search_y(%rip), %rax	# spiral_search_y, spiral_search_y.352
	movl	-100(%rbp), %ecx	# best_pos, tmp356
	movslq	%ecx, %rcx	# tmp356, D.21159
	salq	$2, %rcx	#, D.21159
	addq	%rcx, %rax	# D.21159, D.21167
	movl	(%rax), %eax	# *_268, D.21157
	addl	%edx, %eax	# D.21170, D.21170
	movl	%eax, %edx	# D.21170, D.21164
	movq	40(%rbp), %rax	# mv_y, tmp357
	movw	%dx, (%rax)	# D.21164, *mv_y_93(D)
.L314:
	.loc 1 923 0
	movl	56(%rbp), %eax	# min_mcost, D.21157
	.loc 1 924 0
	leave
	.cfi_def_cfa 7, 8
	ret
	.cfi_endproc
.LFE10:
	.size	FullPelBlockMotionSearch, .-FullPelBlockMotionSearch
	.globl	FastFullPelBlockMotionSearch
	.type	FastFullPelBlockMotionSearch, @function
FastFullPelBlockMotionSearch:
.LFB11:
	.loc 1 948 0
	.cfi_startproc
	pushq	%rbp	#
	.cfi_def_cfa_offset 16
	.cfi_offset 6, -16
	movq	%rsp, %rbp	#,
	.cfi_def_cfa_register 6
	subq	$96, %rsp	#,
	movq	%rdi, -56(%rbp)	# orig_pic, orig_pic
	movl	%esi, %eax	# ref, tmp210
	movl	%edx, -64(%rbp)	# list, list
	movl	%ecx, -68(%rbp)	# pic_pix_x, pic_pix_x
	movl	%r8d, -72(%rbp)	# pic_pix_y, pic_pix_y
	movl	%r9d, -76(%rbp)	# blocktype, blocktype
	movl	16(%rbp), %ecx	# pred_mv_x, tmp211
	movl	24(%rbp), %edx	# pred_mv_y, tmp212
	movsd	%xmm0, -96(%rbp)	# lambda, lambda
	movw	%ax, -60(%rbp)	# tmp210, ref
	movw	%cx, -80(%rbp)	# tmp211, pred_mv_x
	movw	%dx, -84(%rbp)	# tmp212, pred_mv_y
	.loc 1 951 0
	movl	48(%rbp), %eax	# search_range, tmp213
	addl	%eax, %eax	# D.21171
	leal	1(%rax), %edx	#, D.21171
	movl	48(%rbp), %eax	# search_range, tmp214
	addl	%eax, %eax	# D.21171
	addl	$1, %eax	#, D.21171
	imull	%edx, %eax	# D.21171, tmp215
	movl	%eax, -40(%rbp)	# tmp215, max_pos
	.loc 1 952 0
	movsd	-96(%rbp), %xmm1	# lambda, tmp216
	movsd	.LC13(%rip), %xmm0	#, tmp217
	mulsd	%xmm1, %xmm0	# tmp216, D.21172
	movsd	.LC14(%rip), %xmm1	#, tmp218
	addsd	%xmm1, %xmm0	# tmp218, D.21172
	cvttsd2si	%xmm0, %eax	# D.21172, tmp219
	movl	%eax, -36(%rbp)	# tmp219, lambda_factor
	.loc 1 953 0
	movl	$0, -44(%rbp)	#, best_pos
	.loc 1 957 0
	movq	img(%rip), %rax	# img, img.353
	movl	172(%rax), %eax	# img.353_20->opix_y, D.21171
	movl	-72(%rbp), %edx	# pic_pix_y, tmp220
	movl	%edx, %ecx	# tmp220, D.21171
	subl	%eax, %ecx	# D.21171, D.21171
	movq	img(%rip), %rax	# img, img.354
	movl	168(%rax), %eax	# img.354_24->opix_x, D.21171
	movl	-68(%rbp), %edx	# pic_pix_x, tmp221
	subl	%eax, %edx	# D.21171, D.21171
	movl	%edx, %eax	# D.21171, D.21171
	sarl	$2, %eax	#, D.21171
	addl	%ecx, %eax	# D.21171, tmp222
	movl	%eax, -32(%rbp)	# tmp222, block_index
	.loc 1 958 0
	movq	BlockSAD(%rip), %rax	# BlockSAD, BlockSAD.355
	movl	-64(%rbp), %edx	# list, tmp223
	movslq	%edx, %rdx	# tmp223, D.21173
	salq	$3, %rdx	#, D.21173
	addq	%rdx, %rax	# D.21173, D.21174
	movq	(%rax), %rax	# *_34, D.21175
	movswq	-60(%rbp), %rdx	# ref, D.21173
	salq	$3, %rdx	#, D.21173
	addq	%rdx, %rax	# D.21173, D.21175
	movq	(%rax), %rax	# *_39, D.21176
	movl	-76(%rbp), %edx	# blocktype, tmp224
	movslq	%edx, %rdx	# tmp224, D.21173
	salq	$3, %rdx	#, D.21173
	addq	%rdx, %rax	# D.21173, D.21176
	movq	(%rax), %rax	# *_44, D.21177
	movl	-32(%rbp), %edx	# block_index, tmp225
	movslq	%edx, %rdx	# tmp225, D.21173
	salq	$3, %rdx	#, D.21173
	addq	%rdx, %rax	# D.21173, D.21177
	movq	(%rax), %rax	# *_48, tmp226
	movq	%rax, -8(%rbp)	# tmp226, block_sad
	.loc 1 961 0
	movq	search_setup_done(%rip), %rax	# search_setup_done, search_setup_done.356
	movl	-64(%rbp), %edx	# list, tmp227
	movslq	%edx, %rdx	# tmp227, D.21173
	salq	$3, %rdx	#, D.21173
	addq	%rdx, %rax	# D.21173, D.21177
	movq	(%rax), %rax	# *_53, D.21178
	movswq	-60(%rbp), %rdx	# ref, D.21173
	salq	$2, %rdx	#, D.21173
	addq	%rdx, %rax	# D.21173, D.21178
	movl	(%rax), %eax	# *_57, D.21171
	testl	%eax, %eax	# D.21171
	jne	.L317	#,
	.loc 1 963 0
	movswl	-60(%rbp), %eax	# ref, D.21171
	movl	-64(%rbp), %edx	# list, tmp228
	movl	%edx, %esi	# tmp228,
	movl	%eax, %edi	# D.21171,
	call	SetupFastFullPelSearch	#
.L317:
	.loc 1 966 0
	movq	search_center_x(%rip), %rax	# search_center_x, search_center_x.357
	movl	-64(%rbp), %edx	# list, tmp229
	movslq	%edx, %rdx	# tmp229, D.21173
	salq	$3, %rdx	#, D.21173
	addq	%rdx, %rax	# D.21173, D.21177
	movq	(%rax), %rax	# *_63, D.21178
	movswq	-60(%rbp), %rdx	# ref, D.21173
	salq	$2, %rdx	#, D.21173
	addq	%rdx, %rax	# D.21173, D.21178
	movl	(%rax), %edx	# *_67, D.21171
	movq	img(%rip), %rax	# img, img.358
	movl	168(%rax), %eax	# img.358_69->opix_x, D.21171
	subl	%eax, %edx	# D.21171, tmp230
	movl	%edx, %eax	# tmp230, tmp230
	movl	%eax, -28(%rbp)	# tmp230, offset_x
	.loc 1 967 0
	movq	search_center_y(%rip), %rax	# search_center_y, search_center_y.359
	movl	-64(%rbp), %edx	# list, tmp231
	movslq	%edx, %rdx	# tmp231, D.21173
	salq	$3, %rdx	#, D.21173
	addq	%rdx, %rax	# D.21173, D.21177
	movq	(%rax), %rax	# *_75, D.21178
	movswq	-60(%rbp), %rdx	# ref, D.21173
	salq	$2, %rdx	#, D.21173
	addq	%rdx, %rax	# D.21173, D.21178
	movl	(%rax), %edx	# *_79, D.21171
	movq	img(%rip), %rax	# img, img.360
	movl	172(%rax), %eax	# img.360_81->opix_y, D.21171
	subl	%eax, %edx	# D.21171, tmp232
	movl	%edx, %eax	# tmp232, tmp232
	movl	%eax, -24(%rbp)	# tmp232, offset_y
	.loc 1 970 0
	movq	input(%rip), %rax	# input, input.361
	movl	2464(%rax), %eax	# input.361_84->rdopt, D.21171
	testl	%eax, %eax	# D.21171
	jne	.L318	#,
	.loc 1 972 0
	movq	pos_00(%rip), %rax	# pos_00, pos_00.362
	movl	-64(%rbp), %edx	# list, tmp233
	movslq	%edx, %rdx	# tmp233, D.21173
	salq	$3, %rdx	#, D.21173
	addq	%rdx, %rax	# D.21173, D.21177
	movq	(%rax), %rax	# *_90, D.21178
	movswq	-60(%rbp), %rdx	# ref, D.21173
	salq	$2, %rdx	#, D.21173
	addq	%rdx, %rax	# D.21173, D.21178
	movl	(%rax), %eax	# *_94, D.21171
	cltq
	leaq	0(,%rax,4), %rdx	#, D.21173
	movq	-8(%rbp), %rax	# block_sad, tmp234
	addq	%rdx, %rax	# D.21173, D.21178
	movl	(%rax), %eax	# *_98, D.21171
	movq	mvbits(%rip), %rdx	# mvbits, mvbits.363
	movswl	-80(%rbp), %ecx	# pred_mv_x, D.21171
	negl	%ecx	# D.21171
	movslq	%ecx, %rcx	# D.21171, D.21173
	salq	$2, %rcx	#, D.21173
	addq	%rcx, %rdx	# D.21173, D.21178
	movl	(%rdx), %ecx	# *_106, D.21171
	movq	mvbits(%rip), %rdx	# mvbits, mvbits.364
	movswl	-84(%rbp), %esi	# pred_mv_y, D.21171
	negl	%esi	# D.21171
	movslq	%esi, %rsi	# D.21171, D.21173
	salq	$2, %rsi	#, D.21173
	addq	%rsi, %rdx	# D.21173, D.21178
	movl	(%rdx), %edx	# *_114, D.21171
	addl	%ecx, %edx	# D.21171, D.21171
	imull	-36(%rbp), %edx	# lambda_factor, D.21171
	sarl	$16, %edx	#, D.21171
	addl	%edx, %eax	# D.21171, tmp235
	movl	%eax, -20(%rbp)	# tmp235, mcost
	.loc 1 974 0
	movl	-20(%rbp), %eax	# mcost, tmp236
	cmpl	56(%rbp), %eax	# min_mcost, tmp236
	jge	.L318	#,
	.loc 1 976 0
	movl	-20(%rbp), %eax	# mcost, tmp237
	movl	%eax, 56(%rbp)	# tmp237, min_mcost
	.loc 1 977 0
	movq	pos_00(%rip), %rax	# pos_00, pos_00.365
	movl	-64(%rbp), %edx	# list, tmp238
	movslq	%edx, %rdx	# tmp238, D.21173
	salq	$3, %rdx	#, D.21173
	addq	%rdx, %rax	# D.21173, D.21177
	movq	(%rax), %rax	# *_124, D.21178
	movswq	-60(%rbp), %rdx	# ref, D.21173
	salq	$2, %rdx	#, D.21173
	addq	%rdx, %rax	# D.21173, D.21178
	movl	(%rax), %eax	# *_128, tmp239
	movl	%eax, -44(%rbp)	# tmp239, best_pos
.L318:
	.loc 1 982 0
	movl	$0, -48(%rbp)	#, pos
	jmp	.L319	#
.L321:
	.loc 1 985 0
	movq	-8(%rbp), %rax	# block_sad, tmp240
	movl	(%rax), %eax	# *block_sad_8, D.21171
	cmpl	56(%rbp), %eax	# min_mcost, D.21171
	jge	.L320	#,
	.loc 1 988 0
	movq	spiral_search_x(%rip), %rax	# spiral_search_x, spiral_search_x.366
	movl	-48(%rbp), %edx	# pos, tmp241
	movslq	%edx, %rdx	# tmp241, D.21173
	salq	$2, %rdx	#, D.21173
	addq	%rdx, %rax	# D.21173, D.21178
	movl	(%rax), %edx	# *_135, D.21171
	movl	-28(%rbp), %eax	# offset_x, tmp245
	addl	%edx, %eax	# D.21171, tmp244
	movl	%eax, -16(%rbp)	# tmp244, cand_x
	.loc 1 989 0
	movq	spiral_search_y(%rip), %rax	# spiral_search_y, spiral_search_y.367
	movl	-48(%rbp), %edx	# pos, tmp246
	movslq	%edx, %rdx	# tmp246, D.21173
	salq	$2, %rdx	#, D.21173
	addq	%rdx, %rax	# D.21173, D.21178
	movl	(%rax), %edx	# *_141, D.21171
	movl	-24(%rbp), %eax	# offset_y, tmp250
	addl	%edx, %eax	# D.21171, tmp249
	movl	%eax, -12(%rbp)	# tmp249, cand_y
	.loc 1 990 0
	movq	-8(%rbp), %rax	# block_sad, tmp251
	movl	(%rax), %eax	# *block_sad_8, tmp252
	movl	%eax, -20(%rbp)	# tmp252, mcost
	.loc 1 991 0
	movq	mvbits(%rip), %rax	# mvbits, mvbits.368
	movl	-16(%rbp), %edx	# cand_x, tmp253
	leal	0(,%rdx,4), %ecx	#, D.21171
	movswl	-80(%rbp), %edx	# pred_mv_x, D.21171
	subl	%edx, %ecx	# D.21171, D.21171
	movl	%ecx, %edx	# D.21171, D.21171
	movslq	%edx, %rdx	# D.21171, D.21173
	salq	$2, %rdx	#, D.21173
	addq	%rdx, %rax	# D.21173, D.21178
	movl	(%rax), %edx	# *_151, D.21171
	movq	mvbits(%rip), %rax	# mvbits, mvbits.369
	movl	-12(%rbp), %ecx	# cand_y, tmp254
	leal	0(,%rcx,4), %esi	#, D.21171
	movswl	-84(%rbp), %ecx	# pred_mv_y, D.21171
	subl	%ecx, %esi	# D.21171, D.21171
	movl	%esi, %ecx	# D.21171, D.21171
	movslq	%ecx, %rcx	# D.21171, D.21173
	salq	$2, %rcx	#, D.21173
	addq	%rcx, %rax	# D.21173, D.21178
	movl	(%rax), %eax	# *_159, D.21171
	addl	%edx, %eax	# D.21171, D.21171
	imull	-36(%rbp), %eax	# lambda_factor, D.21171
	sarl	$16, %eax	#, D.21171
	addl	%eax, -20(%rbp)	# D.21171, mcost
	.loc 1 994 0
	movl	-20(%rbp), %eax	# mcost, tmp255
	cmpl	56(%rbp), %eax	# min_mcost, tmp255
	jge	.L320	#,
	.loc 1 996 0
	movl	-20(%rbp), %eax	# mcost, tmp256
	movl	%eax, 56(%rbp)	# tmp256, min_mcost
	.loc 1 997 0
	movl	-48(%rbp), %eax	# pos, tmp257
	movl	%eax, -44(%rbp)	# tmp257, best_pos
.L320:
	.loc 1 982 0
	addl	$1, -48(%rbp)	#, pos
	addq	$4, -8(%rbp)	#, block_sad
.L319:
	.loc 1 982 0 is_stmt 0 discriminator 1
	movl	-48(%rbp), %eax	# pos, tmp258
	cmpl	-40(%rbp), %eax	# max_pos, tmp258
	jl	.L321	#,
	.loc 1 1003 0 is_stmt 1
	movq	spiral_search_x(%rip), %rax	# spiral_search_x, spiral_search_x.370
	movl	-44(%rbp), %edx	# best_pos, tmp259
	movslq	%edx, %rdx	# tmp259, D.21173
	salq	$2, %rdx	#, D.21173
	addq	%rdx, %rax	# D.21173, D.21178
	movl	(%rax), %eax	# *_172, D.21171
	movl	%eax, %edx	# D.21171, D.21179
	movl	-28(%rbp), %eax	# offset_x, tmp260
	addl	%edx, %eax	# D.21179, D.21179
	movl	%eax, %edx	# D.21179, D.21180
	movq	32(%rbp), %rax	# mv_x, tmp261
	movw	%dx, (%rax)	# D.21180, *mv_x_178(D)
	.loc 1 1004 0
	movq	spiral_search_y(%rip), %rax	# spiral_search_y, spiral_search_y.371
	movl	-44(%rbp), %edx	# best_pos, tmp262
	movslq	%edx, %rdx	# tmp262, D.21173
	salq	$2, %rdx	#, D.21173
	addq	%rdx, %rax	# D.21173, D.21178
	movl	(%rax), %eax	# *_182, D.21171
	movl	%eax, %edx	# D.21171, D.21179
	movl	-24(%rbp), %eax	# offset_y, tmp263
	addl	%edx, %eax	# D.21179, D.21179
	movl	%eax, %edx	# D.21179, D.21180
	movq	40(%rbp), %rax	# mv_y, tmp264
	movw	%dx, (%rax)	# D.21180, *mv_y_188(D)
	.loc 1 1005 0
	movl	56(%rbp), %eax	# min_mcost, D.21171
	.loc 1 1006 0
	leave
	.cfi_def_cfa 7, 8
	ret
	.cfi_endproc
.LFE11:
	.size	FastFullPelBlockMotionSearch, .-FastFullPelBlockMotionSearch
	.globl	SATD
	.type	SATD, @function
SATD:
.LFB12:
	.loc 1 1018 0
	.cfi_startproc
	pushq	%rbp	#
	.cfi_def_cfa_offset 16
	.cfi_offset 6, -16
	movq	%rsp, %rbp	#,
	.cfi_def_cfa_register 6
	subq	$36, %rsp	#,
	movq	%rdi, -152(%rbp)	# diff, diff
	movl	%esi, -156(%rbp)	# use_hadamard, use_hadamard
	.loc 1 1019 0
	movl	$0, -136(%rbp)	#, satd
	.loc 1 1021 0
	cmpl	$0, -156(%rbp)	#, use_hadamard
	je	.L324	#,
	.loc 1 1024 0
	movq	-152(%rbp), %rax	# diff, tmp294
	movl	(%rax), %edx	# *diff_9(D), D.21181
	movq	-152(%rbp), %rax	# diff, tmp295
	addq	$48, %rax	#, D.21182
	movl	(%rax), %eax	# *_11, D.21181
	addl	%edx, %eax	# D.21181, D.21181
	movl	%eax, -128(%rbp)	# D.21181, m
	.loc 1 1025 0
	movq	-152(%rbp), %rax	# diff, tmp296
	addq	$16, %rax	#, D.21182
	movl	(%rax), %edx	# *_14, D.21181
	movq	-152(%rbp), %rax	# diff, tmp297
	addq	$32, %rax	#, D.21182
	movl	(%rax), %eax	# *_16, D.21181
	addl	%edx, %eax	# D.21181, D.21181
	movl	%eax, -112(%rbp)	# D.21181, m
	.loc 1 1026 0
	movq	-152(%rbp), %rax	# diff, tmp298
	addq	$16, %rax	#, D.21182
	movl	(%rax), %edx	# *_19, D.21181
	movq	-152(%rbp), %rax	# diff, tmp299
	addq	$32, %rax	#, D.21182
	movl	(%rax), %eax	# *_21, D.21181
	subl	%eax, %edx	# D.21181, D.21181
	movl	%edx, %eax	# D.21181, D.21181
	movl	%eax, -96(%rbp)	# D.21181, m
	.loc 1 1027 0
	movq	-152(%rbp), %rax	# diff, tmp300
	movl	(%rax), %edx	# *diff_9(D), D.21181
	movq	-152(%rbp), %rax	# diff, tmp301
	addq	$48, %rax	#, D.21182
	movl	(%rax), %eax	# *_25, D.21181
	subl	%eax, %edx	# D.21181, D.21181
	movl	%edx, %eax	# D.21181, D.21181
	movl	%eax, -80(%rbp)	# D.21181, m
	.loc 1 1028 0
	movq	-152(%rbp), %rax	# diff, tmp302
	addq	$4, %rax	#, D.21182
	movl	(%rax), %edx	# *_28, D.21181
	movq	-152(%rbp), %rax	# diff, tmp303
	addq	$52, %rax	#, D.21182
	movl	(%rax), %eax	# *_30, D.21181
	addl	%edx, %eax	# D.21181, D.21181
	movl	%eax, -124(%rbp)	# D.21181, m
	.loc 1 1029 0
	movq	-152(%rbp), %rax	# diff, tmp304
	addq	$20, %rax	#, D.21182
	movl	(%rax), %edx	# *_33, D.21181
	movq	-152(%rbp), %rax	# diff, tmp305
	addq	$36, %rax	#, D.21182
	movl	(%rax), %eax	# *_35, D.21181
	addl	%edx, %eax	# D.21181, D.21181
	movl	%eax, -108(%rbp)	# D.21181, m
	.loc 1 1030 0
	movq	-152(%rbp), %rax	# diff, tmp306
	addq	$20, %rax	#, D.21182
	movl	(%rax), %edx	# *_38, D.21181
	movq	-152(%rbp), %rax	# diff, tmp307
	addq	$36, %rax	#, D.21182
	movl	(%rax), %eax	# *_40, D.21181
	subl	%eax, %edx	# D.21181, D.21181
	movl	%edx, %eax	# D.21181, D.21181
	movl	%eax, -92(%rbp)	# D.21181, m
	.loc 1 1031 0
	movq	-152(%rbp), %rax	# diff, tmp308
	addq	$4, %rax	#, D.21182
	movl	(%rax), %edx	# *_43, D.21181
	movq	-152(%rbp), %rax	# diff, tmp309
	addq	$52, %rax	#, D.21182
	movl	(%rax), %eax	# *_45, D.21181
	subl	%eax, %edx	# D.21181, D.21181
	movl	%edx, %eax	# D.21181, D.21181
	movl	%eax, -76(%rbp)	# D.21181, m
	.loc 1 1032 0
	movq	-152(%rbp), %rax	# diff, tmp310
	addq	$8, %rax	#, D.21182
	movl	(%rax), %edx	# *_48, D.21181
	movq	-152(%rbp), %rax	# diff, tmp311
	addq	$56, %rax	#, D.21182
	movl	(%rax), %eax	# *_50, D.21181
	addl	%edx, %eax	# D.21181, D.21181
	movl	%eax, -120(%rbp)	# D.21181, m
	.loc 1 1033 0
	movq	-152(%rbp), %rax	# diff, tmp312
	addq	$24, %rax	#, D.21182
	movl	(%rax), %edx	# *_53, D.21181
	movq	-152(%rbp), %rax	# diff, tmp313
	addq	$40, %rax	#, D.21182
	movl	(%rax), %eax	# *_55, D.21181
	addl	%edx, %eax	# D.21181, D.21181
	movl	%eax, -104(%rbp)	# D.21181, m
	.loc 1 1034 0
	movq	-152(%rbp), %rax	# diff, tmp314
	addq	$24, %rax	#, D.21182
	movl	(%rax), %edx	# *_58, D.21181
	movq	-152(%rbp), %rax	# diff, tmp315
	addq	$40, %rax	#, D.21182
	movl	(%rax), %eax	# *_60, D.21181
	subl	%eax, %edx	# D.21181, D.21181
	movl	%edx, %eax	# D.21181, D.21181
	movl	%eax, -88(%rbp)	# D.21181, m
	.loc 1 1035 0
	movq	-152(%rbp), %rax	# diff, tmp316
	addq	$8, %rax	#, D.21182
	movl	(%rax), %edx	# *_63, D.21181
	movq	-152(%rbp), %rax	# diff, tmp317
	addq	$56, %rax	#, D.21182
	movl	(%rax), %eax	# *_65, D.21181
	subl	%eax, %edx	# D.21181, D.21181
	movl	%edx, %eax	# D.21181, D.21181
	movl	%eax, -72(%rbp)	# D.21181, m
	.loc 1 1036 0
	movq	-152(%rbp), %rax	# diff, tmp318
	addq	$12, %rax	#, D.21182
	movl	(%rax), %edx	# *_68, D.21181
	movq	-152(%rbp), %rax	# diff, tmp319
	addq	$60, %rax	#, D.21182
	movl	(%rax), %eax	# *_70, D.21181
	addl	%edx, %eax	# D.21181, D.21181
	movl	%eax, -116(%rbp)	# D.21181, m
	.loc 1 1037 0
	movq	-152(%rbp), %rax	# diff, tmp320
	addq	$28, %rax	#, D.21182
	movl	(%rax), %edx	# *_73, D.21181
	movq	-152(%rbp), %rax	# diff, tmp321
	addq	$44, %rax	#, D.21182
	movl	(%rax), %eax	# *_75, D.21181
	addl	%edx, %eax	# D.21181, D.21181
	movl	%eax, -100(%rbp)	# D.21181, m
	.loc 1 1038 0
	movq	-152(%rbp), %rax	# diff, tmp322
	addq	$28, %rax	#, D.21182
	movl	(%rax), %edx	# *_78, D.21181
	movq	-152(%rbp), %rax	# diff, tmp323
	addq	$44, %rax	#, D.21182
	movl	(%rax), %eax	# *_80, D.21181
	subl	%eax, %edx	# D.21181, D.21181
	movl	%edx, %eax	# D.21181, D.21181
	movl	%eax, -84(%rbp)	# D.21181, m
	.loc 1 1039 0
	movq	-152(%rbp), %rax	# diff, tmp324
	addq	$12, %rax	#, D.21182
	movl	(%rax), %edx	# *_83, D.21181
	movq	-152(%rbp), %rax	# diff, tmp325
	addq	$60, %rax	#, D.21182
	movl	(%rax), %eax	# *_85, D.21181
	subl	%eax, %edx	# D.21181, D.21181
	movl	%edx, %eax	# D.21181, D.21181
	movl	%eax, -68(%rbp)	# D.21181, m
	.loc 1 1041 0
	movl	-128(%rbp), %edx	# m, D.21181
	movl	-112(%rbp), %eax	# m, D.21181
	addl	%edx, %eax	# D.21181, D.21181
	movl	%eax, -64(%rbp)	# D.21181, d
	.loc 1 1042 0
	movl	-128(%rbp), %edx	# m, D.21181
	movl	-112(%rbp), %eax	# m, D.21181
	subl	%eax, %edx	# D.21181, D.21181
	movl	%edx, %eax	# D.21181, D.21181
	movl	%eax, -32(%rbp)	# D.21181, d
	.loc 1 1043 0
	movl	-96(%rbp), %edx	# m, D.21181
	movl	-80(%rbp), %eax	# m, D.21181
	addl	%edx, %eax	# D.21181, D.21181
	movl	%eax, -48(%rbp)	# D.21181, d
	.loc 1 1044 0
	movl	-80(%rbp), %edx	# m, D.21181
	movl	-96(%rbp), %eax	# m, D.21181
	subl	%eax, %edx	# D.21181, D.21181
	movl	%edx, %eax	# D.21181, D.21181
	movl	%eax, -16(%rbp)	# D.21181, d
	.loc 1 1045 0
	movl	-124(%rbp), %edx	# m, D.21181
	movl	-108(%rbp), %eax	# m, D.21181
	addl	%edx, %eax	# D.21181, D.21181
	movl	%eax, -60(%rbp)	# D.21181, d
	.loc 1 1046 0
	movl	-124(%rbp), %edx	# m, D.21181
	movl	-108(%rbp), %eax	# m, D.21181
	subl	%eax, %edx	# D.21181, D.21181
	movl	%edx, %eax	# D.21181, D.21181
	movl	%eax, -28(%rbp)	# D.21181, d
	.loc 1 1047 0
	movl	-92(%rbp), %edx	# m, D.21181
	movl	-76(%rbp), %eax	# m, D.21181
	addl	%edx, %eax	# D.21181, D.21181
	movl	%eax, -44(%rbp)	# D.21181, d
	.loc 1 1048 0
	movl	-76(%rbp), %edx	# m, D.21181
	movl	-92(%rbp), %eax	# m, D.21181
	subl	%eax, %edx	# D.21181, D.21181
	movl	%edx, %eax	# D.21181, D.21181
	movl	%eax, -12(%rbp)	# D.21181, d
	.loc 1 1049 0
	movl	-120(%rbp), %edx	# m, D.21181
	movl	-104(%rbp), %eax	# m, D.21181
	addl	%edx, %eax	# D.21181, D.21181
	movl	%eax, -56(%rbp)	# D.21181, d
	.loc 1 1050 0
	movl	-120(%rbp), %edx	# m, D.21181
	movl	-104(%rbp), %eax	# m, D.21181
	subl	%eax, %edx	# D.21181, D.21181
	movl	%edx, %eax	# D.21181, D.21181
	movl	%eax, -24(%rbp)	# D.21181, d
	.loc 1 1051 0
	movl	-88(%rbp), %edx	# m, D.21181
	movl	-72(%rbp), %eax	# m, D.21181
	addl	%edx, %eax	# D.21181, D.21181
	movl	%eax, -40(%rbp)	# D.21181, d
	.loc 1 1052 0
	movl	-72(%rbp), %edx	# m, D.21181
	movl	-88(%rbp), %eax	# m, D.21181
	subl	%eax, %edx	# D.21181, D.21181
	movl	%edx, %eax	# D.21181, D.21181
	movl	%eax, -8(%rbp)	# D.21181, d
	.loc 1 1053 0
	movl	-116(%rbp), %edx	# m, D.21181
	movl	-100(%rbp), %eax	# m, D.21181
	addl	%edx, %eax	# D.21181, D.21181
	movl	%eax, -52(%rbp)	# D.21181, d
	.loc 1 1054 0
	movl	-116(%rbp), %edx	# m, D.21181
	movl	-100(%rbp), %eax	# m, D.21181
	subl	%eax, %edx	# D.21181, D.21181
	movl	%edx, %eax	# D.21181, D.21181
	movl	%eax, -20(%rbp)	# D.21181, d
	.loc 1 1055 0
	movl	-84(%rbp), %edx	# m, D.21181
	movl	-68(%rbp), %eax	# m, D.21181
	addl	%edx, %eax	# D.21181, D.21181
	movl	%eax, -36(%rbp)	# D.21181, d
	.loc 1 1056 0
	movl	-68(%rbp), %edx	# m, D.21181
	movl	-84(%rbp), %eax	# m, D.21181
	subl	%eax, %edx	# D.21181, D.21181
	movl	%edx, %eax	# D.21181, D.21181
	movl	%eax, -4(%rbp)	# D.21181, d
	.loc 1 1058 0
	movl	-64(%rbp), %edx	# d, D.21181
	movl	-52(%rbp), %eax	# d, D.21181
	addl	%edx, %eax	# D.21181, D.21181
	movl	%eax, -128(%rbp)	# D.21181, m
	.loc 1 1059 0
	movl	-60(%rbp), %edx	# d, D.21181
	movl	-56(%rbp), %eax	# d, D.21181
	addl	%edx, %eax	# D.21181, D.21181
	movl	%eax, -124(%rbp)	# D.21181, m
	.loc 1 1060 0
	movl	-60(%rbp), %edx	# d, D.21181
	movl	-56(%rbp), %eax	# d, D.21181
	subl	%eax, %edx	# D.21181, D.21181
	movl	%edx, %eax	# D.21181, D.21181
	movl	%eax, -120(%rbp)	# D.21181, m
	.loc 1 1061 0
	movl	-64(%rbp), %edx	# d, D.21181
	movl	-52(%rbp), %eax	# d, D.21181
	subl	%eax, %edx	# D.21181, D.21181
	movl	%edx, %eax	# D.21181, D.21181
	movl	%eax, -116(%rbp)	# D.21181, m
	.loc 1 1062 0
	movl	-48(%rbp), %edx	# d, D.21181
	movl	-36(%rbp), %eax	# d, D.21181
	addl	%edx, %eax	# D.21181, D.21181
	movl	%eax, -112(%rbp)	# D.21181, m
	.loc 1 1063 0
	movl	-44(%rbp), %edx	# d, D.21181
	movl	-40(%rbp), %eax	# d, D.21181
	addl	%edx, %eax	# D.21181, D.21181
	movl	%eax, -108(%rbp)	# D.21181, m
	.loc 1 1064 0
	movl	-44(%rbp), %edx	# d, D.21181
	movl	-40(%rbp), %eax	# d, D.21181
	subl	%eax, %edx	# D.21181, D.21181
	movl	%edx, %eax	# D.21181, D.21181
	movl	%eax, -104(%rbp)	# D.21181, m
	.loc 1 1065 0
	movl	-48(%rbp), %edx	# d, D.21181
	movl	-36(%rbp), %eax	# d, D.21181
	subl	%eax, %edx	# D.21181, D.21181
	movl	%edx, %eax	# D.21181, D.21181
	movl	%eax, -100(%rbp)	# D.21181, m
	.loc 1 1066 0
	movl	-32(%rbp), %edx	# d, D.21181
	movl	-20(%rbp), %eax	# d, D.21181
	addl	%edx, %eax	# D.21181, D.21181
	movl	%eax, -96(%rbp)	# D.21181, m
	.loc 1 1067 0
	movl	-28(%rbp), %edx	# d, D.21181
	movl	-24(%rbp), %eax	# d, D.21181
	addl	%edx, %eax	# D.21181, D.21181
	movl	%eax, -92(%rbp)	# D.21181, m
	.loc 1 1068 0
	movl	-28(%rbp), %edx	# d, D.21181
	movl	-24(%rbp), %eax	# d, D.21181
	subl	%eax, %edx	# D.21181, D.21181
	movl	%edx, %eax	# D.21181, D.21181
	movl	%eax, -88(%rbp)	# D.21181, m
	.loc 1 1069 0
	movl	-32(%rbp), %edx	# d, D.21181
	movl	-20(%rbp), %eax	# d, D.21181
	subl	%eax, %edx	# D.21181, D.21181
	movl	%edx, %eax	# D.21181, D.21181
	movl	%eax, -84(%rbp)	# D.21181, m
	.loc 1 1070 0
	movl	-16(%rbp), %edx	# d, D.21181
	movl	-4(%rbp), %eax	# d, D.21181
	addl	%edx, %eax	# D.21181, D.21181
	movl	%eax, -80(%rbp)	# D.21181, m
	.loc 1 1071 0
	movl	-12(%rbp), %edx	# d, D.21181
	movl	-8(%rbp), %eax	# d, D.21181
	addl	%edx, %eax	# D.21181, D.21181
	movl	%eax, -76(%rbp)	# D.21181, m
	.loc 1 1072 0
	movl	-12(%rbp), %edx	# d, D.21181
	movl	-8(%rbp), %eax	# d, D.21181
	subl	%eax, %edx	# D.21181, D.21181
	movl	%edx, %eax	# D.21181, D.21181
	movl	%eax, -72(%rbp)	# D.21181, m
	.loc 1 1073 0
	movl	-16(%rbp), %edx	# d, D.21181
	movl	-4(%rbp), %eax	# d, D.21181
	subl	%eax, %edx	# D.21181, D.21181
	movl	%edx, %eax	# D.21181, D.21181
	movl	%eax, -68(%rbp)	# D.21181, m
	.loc 1 1075 0
	movl	-128(%rbp), %edx	# m, D.21181
	movl	-124(%rbp), %eax	# m, D.21181
	addl	%edx, %eax	# D.21181, D.21181
	movl	%eax, -64(%rbp)	# D.21181, d
	.loc 1 1076 0
	movl	-128(%rbp), %edx	# m, D.21181
	movl	-124(%rbp), %eax	# m, D.21181
	subl	%eax, %edx	# D.21181, D.21181
	movl	%edx, %eax	# D.21181, D.21181
	movl	%eax, -60(%rbp)	# D.21181, d
	.loc 1 1077 0
	movl	-120(%rbp), %edx	# m, D.21181
	movl	-116(%rbp), %eax	# m, D.21181
	addl	%edx, %eax	# D.21181, D.21181
	movl	%eax, -56(%rbp)	# D.21181, d
	.loc 1 1078 0
	movl	-116(%rbp), %edx	# m, D.21181
	movl	-120(%rbp), %eax	# m, D.21181
	subl	%eax, %edx	# D.21181, D.21181
	movl	%edx, %eax	# D.21181, D.21181
	movl	%eax, -52(%rbp)	# D.21181, d
	.loc 1 1079 0
	movl	-112(%rbp), %edx	# m, D.21181
	movl	-108(%rbp), %eax	# m, D.21181
	addl	%edx, %eax	# D.21181, D.21181
	movl	%eax, -48(%rbp)	# D.21181, d
	.loc 1 1080 0
	movl	-112(%rbp), %edx	# m, D.21181
	movl	-108(%rbp), %eax	# m, D.21181
	subl	%eax, %edx	# D.21181, D.21181
	movl	%edx, %eax	# D.21181, D.21181
	movl	%eax, -44(%rbp)	# D.21181, d
	.loc 1 1081 0
	movl	-104(%rbp), %edx	# m, D.21181
	movl	-100(%rbp), %eax	# m, D.21181
	addl	%edx, %eax	# D.21181, D.21181
	movl	%eax, -40(%rbp)	# D.21181, d
	.loc 1 1082 0
	movl	-100(%rbp), %edx	# m, D.21181
	movl	-104(%rbp), %eax	# m, D.21181
	subl	%eax, %edx	# D.21181, D.21181
	movl	%edx, %eax	# D.21181, D.21181
	movl	%eax, -36(%rbp)	# D.21181, d
	.loc 1 1083 0
	movl	-96(%rbp), %edx	# m, D.21181
	movl	-92(%rbp), %eax	# m, D.21181
	addl	%edx, %eax	# D.21181, D.21181
	movl	%eax, -32(%rbp)	# D.21181, d
	.loc 1 1084 0
	movl	-96(%rbp), %edx	# m, D.21181
	movl	-92(%rbp), %eax	# m, D.21181
	subl	%eax, %edx	# D.21181, D.21181
	movl	%edx, %eax	# D.21181, D.21181
	movl	%eax, -28(%rbp)	# D.21181, d
	.loc 1 1085 0
	movl	-88(%rbp), %edx	# m, D.21181
	movl	-84(%rbp), %eax	# m, D.21181
	addl	%edx, %eax	# D.21181, D.21181
	movl	%eax, -24(%rbp)	# D.21181, d
	.loc 1 1086 0
	movl	-84(%rbp), %edx	# m, D.21181
	movl	-88(%rbp), %eax	# m, D.21181
	subl	%eax, %edx	# D.21181, D.21181
	movl	%edx, %eax	# D.21181, D.21181
	movl	%eax, -20(%rbp)	# D.21181, d
	.loc 1 1087 0
	movl	-80(%rbp), %edx	# m, D.21181
	movl	-76(%rbp), %eax	# m, D.21181
	addl	%edx, %eax	# D.21181, D.21181
	movl	%eax, -16(%rbp)	# D.21181, d
	.loc 1 1088 0
	movl	-80(%rbp), %edx	# m, D.21181
	movl	-76(%rbp), %eax	# m, D.21181
	subl	%eax, %edx	# D.21181, D.21181
	movl	%edx, %eax	# D.21181, D.21181
	movl	%eax, -12(%rbp)	# D.21181, d
	.loc 1 1089 0
	movl	-72(%rbp), %edx	# m, D.21181
	movl	-68(%rbp), %eax	# m, D.21181
	addl	%edx, %eax	# D.21181, D.21181
	movl	%eax, -8(%rbp)	# D.21181, d
	.loc 1 1090 0
	movl	-68(%rbp), %edx	# m, D.21181
	movl	-72(%rbp), %eax	# m, D.21181
	subl	%eax, %edx	# D.21181, D.21181
	movl	%edx, %eax	# D.21181, D.21181
	movl	%eax, -4(%rbp)	# D.21181, d
	.loc 1 1093 0
	movl	$0, -140(%rbp)	#, k
	movl	-140(%rbp), %eax	# k, tmp327
	cltq
	movl	-64(%rbp,%rax,4), %eax	# d, tmp328
	movl	%eax, -132(%rbp)	# tmp328, dd
	jmp	.L325	#
.L326:
	.loc 1 1095 0 discriminator 2
	movl	-132(%rbp), %eax	# dd, tmp330
	cltd
	movl	%edx, %eax	# tmp329, D.21181
	xorl	-132(%rbp), %eax	# dd, D.21181
	subl	%edx, %eax	# tmp329, D.21181
	addl	%eax, -136(%rbp)	# D.21181, satd
	.loc 1 1093 0 discriminator 2
	addl	$1, -140(%rbp)	#, k
	movl	-140(%rbp), %eax	# k, tmp332
	cltq
	movl	-64(%rbp,%rax,4), %eax	# d, tmp333
	movl	%eax, -132(%rbp)	# tmp333, dd
.L325:
	.loc 1 1093 0 is_stmt 0 discriminator 1
	cmpl	$15, -140(%rbp)	#, k
	jle	.L326	#,
	.loc 1 1097 0 is_stmt 1
	movl	-136(%rbp), %eax	# satd, tmp334
	addl	$1, %eax	#, D.21181
	sarl	%eax	# tmp335
	movl	%eax, -136(%rbp)	# tmp335, satd
	jmp	.L327	#
.L324:
	.loc 1 1102 0
	movl	$0, -140(%rbp)	#, k
	jmp	.L328	#
.L329:
	.loc 1 1104 0 discriminator 2
	movq	byte_abs(%rip), %rax	# byte_abs, byte_abs.372
	movl	-140(%rbp), %edx	# k, tmp336
	movslq	%edx, %rdx	# tmp336, D.21183
	leaq	0(,%rdx,4), %rcx	#, D.21183
	movq	-152(%rbp), %rdx	# diff, tmp337
	addq	%rcx, %rdx	# D.21183, D.21182
	movl	(%rdx), %edx	# *_244, D.21181
	movslq	%edx, %rdx	# D.21181, D.21183
	salq	$2, %rdx	#, D.21183
	addq	%rdx, %rax	# D.21183, D.21182
	movl	(%rax), %eax	# *_248, D.21181
	addl	%eax, -136(%rbp)	# D.21181, satd
	.loc 1 1102 0 discriminator 2
	addl	$1, -140(%rbp)	#, k
.L328:
	.loc 1 1102 0 is_stmt 0 discriminator 1
	cmpl	$15, -140(%rbp)	#, k
	jle	.L329	#,
.L327:
	.loc 1 1108 0 is_stmt 1
	movl	-136(%rbp), %eax	# satd, D.21181
	.loc 1 1109 0
	leave
	.cfi_def_cfa 7, 8
	ret
	.cfi_endproc
.LFE12:
	.size	SATD, .-SATD
	.globl	SATD8X8
	.type	SATD8X8, @function
SATD8X8:
.LFB13:
	.loc 1 1119 0
	.cfi_startproc
	pushq	%rbp	#
	.cfi_def_cfa_offset 16
	.cfi_offset 6, -16
	movq	%rsp, %rbp	#,
	.cfi_def_cfa_register 6
	subq	$676, %rsp	#,
	movq	%rdi, -792(%rbp)	# diff, diff
	movl	%esi, -796(%rbp)	# use_hadamard, use_hadamard
	.loc 1 1120 0
	movl	$0, -772(%rbp)	#, sad
	.loc 1 1123 0
	cmpl	$0, -796(%rbp)	#, use_hadamard
	je	.L332	#,
	.loc 1 1126 0
	movl	$0, -776(%rbp)	#, j
	jmp	.L333	#
.L334:
	.loc 1 1128 0 discriminator 2
	movl	-776(%rbp), %eax	# j, tmp295
	sall	$3, %eax	#, D.21184
	cltq
	leaq	0(,%rax,4), %rdx	#, D.21185
	movq	-792(%rbp), %rax	# diff, tmp296
	addq	%rdx, %rax	# D.21185, D.21186
	movl	(%rax), %edx	# *_17, D.21184
	movl	-776(%rbp), %eax	# j, tmp297
	sall	$3, %eax	#, D.21184
	cltq
	addq	$4, %rax	#, D.21187
	leaq	0(,%rax,4), %rcx	#, D.21187
	movq	-792(%rbp), %rax	# diff, tmp298
	addq	%rcx, %rax	# D.21187, D.21186
	movl	(%rax), %eax	# *_23, D.21184
	addl	%eax, %edx	# D.21184, D.21184
	movl	-776(%rbp), %eax	# j, tmp300
	cltq
	salq	$5, %rax	#, tmp301
	addq	%rbp, %rax	#, tmp302
	subq	$512, %rax	#, tmp303
	movl	%edx, (%rax)	# D.21184, m2
	.loc 1 1129 0 discriminator 2
	movl	-776(%rbp), %eax	# j, tmp304
	sall	$3, %eax	#, D.21184
	cltq
	addq	$1, %rax	#, D.21187
	leaq	0(,%rax,4), %rdx	#, D.21187
	movq	-792(%rbp), %rax	# diff, tmp305
	addq	%rdx, %rax	# D.21187, D.21186
	movl	(%rax), %edx	# *_30, D.21184
	movl	-776(%rbp), %eax	# j, tmp306
	sall	$3, %eax	#, D.21184
	cltq
	addq	$5, %rax	#, D.21187
	leaq	0(,%rax,4), %rcx	#, D.21187
	movq	-792(%rbp), %rax	# diff, tmp307
	addq	%rcx, %rax	# D.21187, D.21186
	movl	(%rax), %eax	# *_36, D.21184
	addl	%eax, %edx	# D.21184, D.21184
	movl	-776(%rbp), %eax	# j, tmp309
	cltq
	salq	$5, %rax	#, tmp310
	addq	%rbp, %rax	#, tmp311
	subq	$508, %rax	#, tmp312
	movl	%edx, (%rax)	# D.21184, m2
	.loc 1 1130 0 discriminator 2
	movl	-776(%rbp), %eax	# j, tmp313
	sall	$3, %eax	#, D.21184
	cltq
	addq	$2, %rax	#, D.21187
	leaq	0(,%rax,4), %rdx	#, D.21187
	movq	-792(%rbp), %rax	# diff, tmp314
	addq	%rdx, %rax	# D.21187, D.21186
	movl	(%rax), %edx	# *_43, D.21184
	movl	-776(%rbp), %eax	# j, tmp315
	sall	$3, %eax	#, D.21184
	cltq
	addq	$6, %rax	#, D.21187
	leaq	0(,%rax,4), %rcx	#, D.21187
	movq	-792(%rbp), %rax	# diff, tmp316
	addq	%rcx, %rax	# D.21187, D.21186
	movl	(%rax), %eax	# *_49, D.21184
	addl	%eax, %edx	# D.21184, D.21184
	movl	-776(%rbp), %eax	# j, tmp318
	cltq
	salq	$5, %rax	#, tmp319
	addq	%rbp, %rax	#, tmp320
	subq	$504, %rax	#, tmp321
	movl	%edx, (%rax)	# D.21184, m2
	.loc 1 1131 0 discriminator 2
	movl	-776(%rbp), %eax	# j, tmp322
	sall	$3, %eax	#, D.21184
	cltq
	addq	$3, %rax	#, D.21187
	leaq	0(,%rax,4), %rdx	#, D.21187
	movq	-792(%rbp), %rax	# diff, tmp323
	addq	%rdx, %rax	# D.21187, D.21186
	movl	(%rax), %edx	# *_56, D.21184
	movl	-776(%rbp), %eax	# j, tmp324
	sall	$3, %eax	#, D.21184
	cltq
	addq	$7, %rax	#, D.21187
	leaq	0(,%rax,4), %rcx	#, D.21187
	movq	-792(%rbp), %rax	# diff, tmp325
	addq	%rcx, %rax	# D.21187, D.21186
	movl	(%rax), %eax	# *_62, D.21184
	addl	%eax, %edx	# D.21184, D.21184
	movl	-776(%rbp), %eax	# j, tmp327
	cltq
	salq	$5, %rax	#, tmp328
	addq	%rbp, %rax	#, tmp329
	subq	$500, %rax	#, tmp330
	movl	%edx, (%rax)	# D.21184, m2
	.loc 1 1132 0 discriminator 2
	movl	-776(%rbp), %eax	# j, tmp331
	sall	$3, %eax	#, D.21184
	cltq
	leaq	0(,%rax,4), %rdx	#, D.21185
	movq	-792(%rbp), %rax	# diff, tmp332
	addq	%rdx, %rax	# D.21185, D.21186
	movl	(%rax), %edx	# *_68, D.21184
	movl	-776(%rbp), %eax	# j, tmp333
	sall	$3, %eax	#, D.21184
	cltq
	addq	$4, %rax	#, D.21187
	leaq	0(,%rax,4), %rcx	#, D.21187
	movq	-792(%rbp), %rax	# diff, tmp334
	addq	%rcx, %rax	# D.21187, D.21186
	movl	(%rax), %eax	# *_74, D.21184
	subl	%eax, %edx	# D.21184, D.21184
	movl	-776(%rbp), %eax	# j, tmp336
	cltq
	salq	$5, %rax	#, tmp337
	addq	%rbp, %rax	#, tmp338
	subq	$496, %rax	#, tmp339
	movl	%edx, (%rax)	# D.21184, m2
	.loc 1 1133 0 discriminator 2
	movl	-776(%rbp), %eax	# j, tmp340
	sall	$3, %eax	#, D.21184
	cltq
	addq	$1, %rax	#, D.21187
	leaq	0(,%rax,4), %rdx	#, D.21187
	movq	-792(%rbp), %rax	# diff, tmp341
	addq	%rdx, %rax	# D.21187, D.21186
	movl	(%rax), %edx	# *_81, D.21184
	movl	-776(%rbp), %eax	# j, tmp342
	sall	$3, %eax	#, D.21184
	cltq
	addq	$5, %rax	#, D.21187
	leaq	0(,%rax,4), %rcx	#, D.21187
	movq	-792(%rbp), %rax	# diff, tmp343
	addq	%rcx, %rax	# D.21187, D.21186
	movl	(%rax), %eax	# *_87, D.21184
	subl	%eax, %edx	# D.21184, D.21184
	movl	-776(%rbp), %eax	# j, tmp345
	cltq
	salq	$5, %rax	#, tmp346
	addq	%rbp, %rax	#, tmp347
	subq	$492, %rax	#, tmp348
	movl	%edx, (%rax)	# D.21184, m2
	.loc 1 1134 0 discriminator 2
	movl	-776(%rbp), %eax	# j, tmp349
	sall	$3, %eax	#, D.21184
	cltq
	addq	$2, %rax	#, D.21187
	leaq	0(,%rax,4), %rdx	#, D.21187
	movq	-792(%rbp), %rax	# diff, tmp350
	addq	%rdx, %rax	# D.21187, D.21186
	movl	(%rax), %edx	# *_94, D.21184
	movl	-776(%rbp), %eax	# j, tmp351
	sall	$3, %eax	#, D.21184
	cltq
	addq	$6, %rax	#, D.21187
	leaq	0(,%rax,4), %rcx	#, D.21187
	movq	-792(%rbp), %rax	# diff, tmp352
	addq	%rcx, %rax	# D.21187, D.21186
	movl	(%rax), %eax	# *_100, D.21184
	subl	%eax, %edx	# D.21184, D.21184
	movl	-776(%rbp), %eax	# j, tmp354
	cltq
	salq	$5, %rax	#, tmp355
	addq	%rbp, %rax	#, tmp356
	subq	$488, %rax	#, tmp357
	movl	%edx, (%rax)	# D.21184, m2
	.loc 1 1135 0 discriminator 2
	movl	-776(%rbp), %eax	# j, tmp358
	sall	$3, %eax	#, D.21184
	cltq
	addq	$3, %rax	#, D.21187
	leaq	0(,%rax,4), %rdx	#, D.21187
	movq	-792(%rbp), %rax	# diff, tmp359
	addq	%rdx, %rax	# D.21187, D.21186
	movl	(%rax), %edx	# *_107, D.21184
	movl	-776(%rbp), %eax	# j, tmp360
	sall	$3, %eax	#, D.21184
	cltq
	addq	$7, %rax	#, D.21187
	leaq	0(,%rax,4), %rcx	#, D.21187
	movq	-792(%rbp), %rax	# diff, tmp361
	addq	%rcx, %rax	# D.21187, D.21186
	movl	(%rax), %eax	# *_113, D.21184
	subl	%eax, %edx	# D.21184, D.21184
	movl	-776(%rbp), %eax	# j, tmp363
	cltq
	salq	$5, %rax	#, tmp364
	addq	%rbp, %rax	#, tmp365
	subq	$484, %rax	#, tmp366
	movl	%edx, (%rax)	# D.21184, m2
	.loc 1 1137 0 discriminator 2
	movl	-776(%rbp), %eax	# j, tmp368
	cltq
	salq	$5, %rax	#, tmp369
	addq	%rbp, %rax	#, tmp370
	subq	$512, %rax	#, tmp371
	movl	(%rax), %edx	# m2, D.21184
	movl	-776(%rbp), %eax	# j, tmp373
	cltq
	salq	$5, %rax	#, tmp374
	addq	%rbp, %rax	#, tmp375
	subq	$504, %rax	#, tmp376
	movl	(%rax), %eax	# m2, D.21184
	addl	%eax, %edx	# D.21184, D.21184
	movl	-776(%rbp), %eax	# j, tmp378
	cltq
	salq	$5, %rax	#, tmp379
	addq	%rbp, %rax	#, tmp380
	subq	$768, %rax	#, tmp381
	movl	%edx, (%rax)	# D.21184, m1
	.loc 1 1138 0 discriminator 2
	movl	-776(%rbp), %eax	# j, tmp383
	cltq
	salq	$5, %rax	#, tmp384
	addq	%rbp, %rax	#, tmp385
	subq	$508, %rax	#, tmp386
	movl	(%rax), %edx	# m2, D.21184
	movl	-776(%rbp), %eax	# j, tmp388
	cltq
	salq	$5, %rax	#, tmp389
	addq	%rbp, %rax	#, tmp390
	subq	$500, %rax	#, tmp391
	movl	(%rax), %eax	# m2, D.21184
	addl	%eax, %edx	# D.21184, D.21184
	movl	-776(%rbp), %eax	# j, tmp393
	cltq
	salq	$5, %rax	#, tmp394
	addq	%rbp, %rax	#, tmp395
	subq	$764, %rax	#, tmp396
	movl	%edx, (%rax)	# D.21184, m1
	.loc 1 1139 0 discriminator 2
	movl	-776(%rbp), %eax	# j, tmp398
	cltq
	salq	$5, %rax	#, tmp399
	addq	%rbp, %rax	#, tmp400
	subq	$512, %rax	#, tmp401
	movl	(%rax), %edx	# m2, D.21184
	movl	-776(%rbp), %eax	# j, tmp403
	cltq
	salq	$5, %rax	#, tmp404
	addq	%rbp, %rax	#, tmp405
	subq	$504, %rax	#, tmp406
	movl	(%rax), %eax	# m2, D.21184
	subl	%eax, %edx	# D.21184, D.21184
	movl	-776(%rbp), %eax	# j, tmp408
	cltq
	salq	$5, %rax	#, tmp409
	addq	%rbp, %rax	#, tmp410
	subq	$760, %rax	#, tmp411
	movl	%edx, (%rax)	# D.21184, m1
	.loc 1 1140 0 discriminator 2
	movl	-776(%rbp), %eax	# j, tmp413
	cltq
	salq	$5, %rax	#, tmp414
	addq	%rbp, %rax	#, tmp415
	subq	$508, %rax	#, tmp416
	movl	(%rax), %edx	# m2, D.21184
	movl	-776(%rbp), %eax	# j, tmp418
	cltq
	salq	$5, %rax	#, tmp419
	addq	%rbp, %rax	#, tmp420
	subq	$500, %rax	#, tmp421
	movl	(%rax), %eax	# m2, D.21184
	subl	%eax, %edx	# D.21184, D.21184
	movl	-776(%rbp), %eax	# j, tmp423
	cltq
	salq	$5, %rax	#, tmp424
	addq	%rbp, %rax	#, tmp425
	subq	$756, %rax	#, tmp426
	movl	%edx, (%rax)	# D.21184, m1
	.loc 1 1141 0 discriminator 2
	movl	-776(%rbp), %eax	# j, tmp428
	cltq
	salq	$5, %rax	#, tmp429
	addq	%rbp, %rax	#, tmp430
	subq	$496, %rax	#, tmp431
	movl	(%rax), %edx	# m2, D.21184
	movl	-776(%rbp), %eax	# j, tmp433
	cltq
	salq	$5, %rax	#, tmp434
	addq	%rbp, %rax	#, tmp435
	subq	$488, %rax	#, tmp436
	movl	(%rax), %eax	# m2, D.21184
	addl	%eax, %edx	# D.21184, D.21184
	movl	-776(%rbp), %eax	# j, tmp438
	cltq
	salq	$5, %rax	#, tmp439
	addq	%rbp, %rax	#, tmp440
	subq	$752, %rax	#, tmp441
	movl	%edx, (%rax)	# D.21184, m1
	.loc 1 1142 0 discriminator 2
	movl	-776(%rbp), %eax	# j, tmp443
	cltq
	salq	$5, %rax	#, tmp444
	addq	%rbp, %rax	#, tmp445
	subq	$492, %rax	#, tmp446
	movl	(%rax), %edx	# m2, D.21184
	movl	-776(%rbp), %eax	# j, tmp448
	cltq
	salq	$5, %rax	#, tmp449
	addq	%rbp, %rax	#, tmp450
	subq	$484, %rax	#, tmp451
	movl	(%rax), %eax	# m2, D.21184
	addl	%eax, %edx	# D.21184, D.21184
	movl	-776(%rbp), %eax	# j, tmp453
	cltq
	salq	$5, %rax	#, tmp454
	addq	%rbp, %rax	#, tmp455
	subq	$748, %rax	#, tmp456
	movl	%edx, (%rax)	# D.21184, m1
	.loc 1 1143 0 discriminator 2
	movl	-776(%rbp), %eax	# j, tmp458
	cltq
	salq	$5, %rax	#, tmp459
	addq	%rbp, %rax	#, tmp460
	subq	$496, %rax	#, tmp461
	movl	(%rax), %edx	# m2, D.21184
	movl	-776(%rbp), %eax	# j, tmp463
	cltq
	salq	$5, %rax	#, tmp464
	addq	%rbp, %rax	#, tmp465
	subq	$488, %rax	#, tmp466
	movl	(%rax), %eax	# m2, D.21184
	subl	%eax, %edx	# D.21184, D.21184
	movl	-776(%rbp), %eax	# j, tmp468
	cltq
	salq	$5, %rax	#, tmp469
	addq	%rbp, %rax	#, tmp470
	subq	$744, %rax	#, tmp471
	movl	%edx, (%rax)	# D.21184, m1
	.loc 1 1144 0 discriminator 2
	movl	-776(%rbp), %eax	# j, tmp473
	cltq
	salq	$5, %rax	#, tmp474
	addq	%rbp, %rax	#, tmp475
	subq	$492, %rax	#, tmp476
	movl	(%rax), %edx	# m2, D.21184
	movl	-776(%rbp), %eax	# j, tmp478
	cltq
	salq	$5, %rax	#, tmp479
	addq	%rbp, %rax	#, tmp480
	subq	$484, %rax	#, tmp481
	movl	(%rax), %eax	# m2, D.21184
	subl	%eax, %edx	# D.21184, D.21184
	movl	-776(%rbp), %eax	# j, tmp483
	cltq
	salq	$5, %rax	#, tmp484
	addq	%rbp, %rax	#, tmp485
	subq	$740, %rax	#, tmp486
	movl	%edx, (%rax)	# D.21184, m1
	.loc 1 1146 0 discriminator 2
	movl	-776(%rbp), %eax	# j, tmp488
	cltq
	salq	$5, %rax	#, tmp489
	addq	%rbp, %rax	#, tmp490
	subq	$768, %rax	#, tmp491
	movl	(%rax), %edx	# m1, D.21184
	movl	-776(%rbp), %eax	# j, tmp493
	cltq
	salq	$5, %rax	#, tmp494
	addq	%rbp, %rax	#, tmp495
	subq	$764, %rax	#, tmp496
	movl	(%rax), %eax	# m1, D.21184
	addl	%eax, %edx	# D.21184, D.21184
	movl	-776(%rbp), %eax	# j, tmp498
	cltq
	salq	$5, %rax	#, tmp499
	addq	%rbp, %rax	#, tmp500
	subq	$512, %rax	#, tmp501
	movl	%edx, (%rax)	# D.21184, m2
	.loc 1 1147 0 discriminator 2
	movl	-776(%rbp), %eax	# j, tmp503
	cltq
	salq	$5, %rax	#, tmp504
	addq	%rbp, %rax	#, tmp505
	subq	$768, %rax	#, tmp506
	movl	(%rax), %edx	# m1, D.21184
	movl	-776(%rbp), %eax	# j, tmp508
	cltq
	salq	$5, %rax	#, tmp509
	addq	%rbp, %rax	#, tmp510
	subq	$764, %rax	#, tmp511
	movl	(%rax), %eax	# m1, D.21184
	subl	%eax, %edx	# D.21184, D.21184
	movl	-776(%rbp), %eax	# j, tmp513
	cltq
	salq	$5, %rax	#, tmp514
	addq	%rbp, %rax	#, tmp515
	subq	$508, %rax	#, tmp516
	movl	%edx, (%rax)	# D.21184, m2
	.loc 1 1148 0 discriminator 2
	movl	-776(%rbp), %eax	# j, tmp518
	cltq
	salq	$5, %rax	#, tmp519
	addq	%rbp, %rax	#, tmp520
	subq	$760, %rax	#, tmp521
	movl	(%rax), %edx	# m1, D.21184
	movl	-776(%rbp), %eax	# j, tmp523
	cltq
	salq	$5, %rax	#, tmp524
	addq	%rbp, %rax	#, tmp525
	subq	$756, %rax	#, tmp526
	movl	(%rax), %eax	# m1, D.21184
	addl	%eax, %edx	# D.21184, D.21184
	movl	-776(%rbp), %eax	# j, tmp528
	cltq
	salq	$5, %rax	#, tmp529
	addq	%rbp, %rax	#, tmp530
	subq	$504, %rax	#, tmp531
	movl	%edx, (%rax)	# D.21184, m2
	.loc 1 1149 0 discriminator 2
	movl	-776(%rbp), %eax	# j, tmp533
	cltq
	salq	$5, %rax	#, tmp534
	addq	%rbp, %rax	#, tmp535
	subq	$760, %rax	#, tmp536
	movl	(%rax), %edx	# m1, D.21184
	movl	-776(%rbp), %eax	# j, tmp538
	cltq
	salq	$5, %rax	#, tmp539
	addq	%rbp, %rax	#, tmp540
	subq	$756, %rax	#, tmp541
	movl	(%rax), %eax	# m1, D.21184
	subl	%eax, %edx	# D.21184, D.21184
	movl	-776(%rbp), %eax	# j, tmp543
	cltq
	salq	$5, %rax	#, tmp544
	addq	%rbp, %rax	#, tmp545
	subq	$500, %rax	#, tmp546
	movl	%edx, (%rax)	# D.21184, m2
	.loc 1 1150 0 discriminator 2
	movl	-776(%rbp), %eax	# j, tmp548
	cltq
	salq	$5, %rax	#, tmp549
	addq	%rbp, %rax	#, tmp550
	subq	$752, %rax	#, tmp551
	movl	(%rax), %edx	# m1, D.21184
	movl	-776(%rbp), %eax	# j, tmp553
	cltq
	salq	$5, %rax	#, tmp554
	addq	%rbp, %rax	#, tmp555
	subq	$748, %rax	#, tmp556
	movl	(%rax), %eax	# m1, D.21184
	addl	%eax, %edx	# D.21184, D.21184
	movl	-776(%rbp), %eax	# j, tmp558
	cltq
	salq	$5, %rax	#, tmp559
	addq	%rbp, %rax	#, tmp560
	subq	$496, %rax	#, tmp561
	movl	%edx, (%rax)	# D.21184, m2
	.loc 1 1151 0 discriminator 2
	movl	-776(%rbp), %eax	# j, tmp563
	cltq
	salq	$5, %rax	#, tmp564
	addq	%rbp, %rax	#, tmp565
	subq	$752, %rax	#, tmp566
	movl	(%rax), %edx	# m1, D.21184
	movl	-776(%rbp), %eax	# j, tmp568
	cltq
	salq	$5, %rax	#, tmp569
	addq	%rbp, %rax	#, tmp570
	subq	$748, %rax	#, tmp571
	movl	(%rax), %eax	# m1, D.21184
	subl	%eax, %edx	# D.21184, D.21184
	movl	-776(%rbp), %eax	# j, tmp573
	cltq
	salq	$5, %rax	#, tmp574
	addq	%rbp, %rax	#, tmp575
	subq	$492, %rax	#, tmp576
	movl	%edx, (%rax)	# D.21184, m2
	.loc 1 1152 0 discriminator 2
	movl	-776(%rbp), %eax	# j, tmp578
	cltq
	salq	$5, %rax	#, tmp579
	addq	%rbp, %rax	#, tmp580
	subq	$744, %rax	#, tmp581
	movl	(%rax), %edx	# m1, D.21184
	movl	-776(%rbp), %eax	# j, tmp583
	cltq
	salq	$5, %rax	#, tmp584
	addq	%rbp, %rax	#, tmp585
	subq	$740, %rax	#, tmp586
	movl	(%rax), %eax	# m1, D.21184
	addl	%eax, %edx	# D.21184, D.21184
	movl	-776(%rbp), %eax	# j, tmp588
	cltq
	salq	$5, %rax	#, tmp589
	addq	%rbp, %rax	#, tmp590
	subq	$488, %rax	#, tmp591
	movl	%edx, (%rax)	# D.21184, m2
	.loc 1 1153 0 discriminator 2
	movl	-776(%rbp), %eax	# j, tmp593
	cltq
	salq	$5, %rax	#, tmp594
	addq	%rbp, %rax	#, tmp595
	subq	$744, %rax	#, tmp596
	movl	(%rax), %edx	# m1, D.21184
	movl	-776(%rbp), %eax	# j, tmp598
	cltq
	salq	$5, %rax	#, tmp599
	addq	%rbp, %rax	#, tmp600
	subq	$740, %rax	#, tmp601
	movl	(%rax), %eax	# m1, D.21184
	subl	%eax, %edx	# D.21184, D.21184
	movl	-776(%rbp), %eax	# j, tmp603
	cltq
	salq	$5, %rax	#, tmp604
	addq	%rbp, %rax	#, tmp605
	subq	$484, %rax	#, tmp606
	movl	%edx, (%rax)	# D.21184, m2
	.loc 1 1126 0 discriminator 2
	addl	$1, -776(%rbp)	#, j
.L333:
	.loc 1 1126 0 is_stmt 0 discriminator 1
	cmpl	$7, -776(%rbp)	#, j
	jle	.L334	#,
	.loc 1 1157 0 is_stmt 1
	movl	$0, -780(%rbp)	#, i
	jmp	.L335	#
.L336:
	.loc 1 1159 0 discriminator 2
	movl	-780(%rbp), %eax	# i, tmp608
	cltq
	movl	-512(%rbp,%rax,4), %edx	# m2, D.21184
	movl	-780(%rbp), %eax	# i, tmp610
	cltq
	addq	$32, %rax	#, tmp611
	movl	-512(%rbp,%rax,4), %eax	# m2, D.21184
	addl	%eax, %edx	# D.21184, D.21184
	movl	-780(%rbp), %eax	# i, tmp613
	cltq
	movl	%edx, -256(%rbp,%rax,4)	# D.21184, m3
	.loc 1 1160 0 discriminator 2
	movl	-780(%rbp), %eax	# i, tmp615
	cltq
	addq	$8, %rax	#, tmp616
	movl	-512(%rbp,%rax,4), %edx	# m2, D.21184
	movl	-780(%rbp), %eax	# i, tmp618
	cltq
	addq	$40, %rax	#, tmp619
	movl	-512(%rbp,%rax,4), %eax	# m2, D.21184
	addl	%eax, %edx	# D.21184, D.21184
	movl	-780(%rbp), %eax	# i, tmp621
	cltq
	addq	$8, %rax	#, tmp622
	movl	%edx, -256(%rbp,%rax,4)	# D.21184, m3
	.loc 1 1161 0 discriminator 2
	movl	-780(%rbp), %eax	# i, tmp624
	cltq
	addq	$16, %rax	#, tmp625
	movl	-512(%rbp,%rax,4), %edx	# m2, D.21184
	movl	-780(%rbp), %eax	# i, tmp627
	cltq
	addq	$48, %rax	#, tmp628
	movl	-512(%rbp,%rax,4), %eax	# m2, D.21184
	addl	%eax, %edx	# D.21184, D.21184
	movl	-780(%rbp), %eax	# i, tmp630
	cltq
	addq	$16, %rax	#, tmp631
	movl	%edx, -256(%rbp,%rax,4)	# D.21184, m3
	.loc 1 1162 0 discriminator 2
	movl	-780(%rbp), %eax	# i, tmp633
	cltq
	addq	$24, %rax	#, tmp634
	movl	-512(%rbp,%rax,4), %edx	# m2, D.21184
	movl	-780(%rbp), %eax	# i, tmp636
	cltq
	addq	$56, %rax	#, tmp637
	movl	-512(%rbp,%rax,4), %eax	# m2, D.21184
	addl	%eax, %edx	# D.21184, D.21184
	movl	-780(%rbp), %eax	# i, tmp639
	cltq
	addq	$24, %rax	#, tmp640
	movl	%edx, -256(%rbp,%rax,4)	# D.21184, m3
	.loc 1 1163 0 discriminator 2
	movl	-780(%rbp), %eax	# i, tmp642
	cltq
	movl	-512(%rbp,%rax,4), %edx	# m2, D.21184
	movl	-780(%rbp), %eax	# i, tmp644
	cltq
	addq	$32, %rax	#, tmp645
	movl	-512(%rbp,%rax,4), %eax	# m2, D.21184
	subl	%eax, %edx	# D.21184, D.21184
	movl	-780(%rbp), %eax	# i, tmp647
	cltq
	addq	$32, %rax	#, tmp648
	movl	%edx, -256(%rbp,%rax,4)	# D.21184, m3
	.loc 1 1164 0 discriminator 2
	movl	-780(%rbp), %eax	# i, tmp650
	cltq
	addq	$8, %rax	#, tmp651
	movl	-512(%rbp,%rax,4), %edx	# m2, D.21184
	movl	-780(%rbp), %eax	# i, tmp653
	cltq
	addq	$40, %rax	#, tmp654
	movl	-512(%rbp,%rax,4), %eax	# m2, D.21184
	subl	%eax, %edx	# D.21184, D.21184
	movl	-780(%rbp), %eax	# i, tmp656
	cltq
	addq	$40, %rax	#, tmp657
	movl	%edx, -256(%rbp,%rax,4)	# D.21184, m3
	.loc 1 1165 0 discriminator 2
	movl	-780(%rbp), %eax	# i, tmp659
	cltq
	addq	$16, %rax	#, tmp660
	movl	-512(%rbp,%rax,4), %edx	# m2, D.21184
	movl	-780(%rbp), %eax	# i, tmp662
	cltq
	addq	$48, %rax	#, tmp663
	movl	-512(%rbp,%rax,4), %eax	# m2, D.21184
	subl	%eax, %edx	# D.21184, D.21184
	movl	-780(%rbp), %eax	# i, tmp665
	cltq
	addq	$48, %rax	#, tmp666
	movl	%edx, -256(%rbp,%rax,4)	# D.21184, m3
	.loc 1 1166 0 discriminator 2
	movl	-780(%rbp), %eax	# i, tmp668
	cltq
	addq	$24, %rax	#, tmp669
	movl	-512(%rbp,%rax,4), %edx	# m2, D.21184
	movl	-780(%rbp), %eax	# i, tmp671
	cltq
	addq	$56, %rax	#, tmp672
	movl	-512(%rbp,%rax,4), %eax	# m2, D.21184
	subl	%eax, %edx	# D.21184, D.21184
	movl	-780(%rbp), %eax	# i, tmp674
	cltq
	addq	$56, %rax	#, tmp675
	movl	%edx, -256(%rbp,%rax,4)	# D.21184, m3
	.loc 1 1168 0 discriminator 2
	movl	-780(%rbp), %eax	# i, tmp677
	cltq
	movl	-256(%rbp,%rax,4), %edx	# m3, D.21184
	movl	-780(%rbp), %eax	# i, tmp679
	cltq
	addq	$16, %rax	#, tmp680
	movl	-256(%rbp,%rax,4), %eax	# m3, D.21184
	addl	%eax, %edx	# D.21184, D.21184
	movl	-780(%rbp), %eax	# i, tmp682
	cltq
	movl	%edx, -768(%rbp,%rax,4)	# D.21184, m1
	.loc 1 1169 0 discriminator 2
	movl	-780(%rbp), %eax	# i, tmp684
	cltq
	addq	$8, %rax	#, tmp685
	movl	-256(%rbp,%rax,4), %edx	# m3, D.21184
	movl	-780(%rbp), %eax	# i, tmp687
	cltq
	addq	$24, %rax	#, tmp688
	movl	-256(%rbp,%rax,4), %eax	# m3, D.21184
	addl	%eax, %edx	# D.21184, D.21184
	movl	-780(%rbp), %eax	# i, tmp690
	cltq
	addq	$8, %rax	#, tmp691
	movl	%edx, -768(%rbp,%rax,4)	# D.21184, m1
	.loc 1 1170 0 discriminator 2
	movl	-780(%rbp), %eax	# i, tmp693
	cltq
	movl	-256(%rbp,%rax,4), %edx	# m3, D.21184
	movl	-780(%rbp), %eax	# i, tmp695
	cltq
	addq	$16, %rax	#, tmp696
	movl	-256(%rbp,%rax,4), %eax	# m3, D.21184
	subl	%eax, %edx	# D.21184, D.21184
	movl	-780(%rbp), %eax	# i, tmp698
	cltq
	addq	$16, %rax	#, tmp699
	movl	%edx, -768(%rbp,%rax,4)	# D.21184, m1
	.loc 1 1171 0 discriminator 2
	movl	-780(%rbp), %eax	# i, tmp701
	cltq
	addq	$8, %rax	#, tmp702
	movl	-256(%rbp,%rax,4), %edx	# m3, D.21184
	movl	-780(%rbp), %eax	# i, tmp704
	cltq
	addq	$24, %rax	#, tmp705
	movl	-256(%rbp,%rax,4), %eax	# m3, D.21184
	subl	%eax, %edx	# D.21184, D.21184
	movl	-780(%rbp), %eax	# i, tmp707
	cltq
	addq	$24, %rax	#, tmp708
	movl	%edx, -768(%rbp,%rax,4)	# D.21184, m1
	.loc 1 1172 0 discriminator 2
	movl	-780(%rbp), %eax	# i, tmp710
	cltq
	addq	$32, %rax	#, tmp711
	movl	-256(%rbp,%rax,4), %edx	# m3, D.21184
	movl	-780(%rbp), %eax	# i, tmp713
	cltq
	addq	$48, %rax	#, tmp714
	movl	-256(%rbp,%rax,4), %eax	# m3, D.21184
	addl	%eax, %edx	# D.21184, D.21184
	movl	-780(%rbp), %eax	# i, tmp716
	cltq
	addq	$32, %rax	#, tmp717
	movl	%edx, -768(%rbp,%rax,4)	# D.21184, m1
	.loc 1 1173 0 discriminator 2
	movl	-780(%rbp), %eax	# i, tmp719
	cltq
	addq	$40, %rax	#, tmp720
	movl	-256(%rbp,%rax,4), %edx	# m3, D.21184
	movl	-780(%rbp), %eax	# i, tmp722
	cltq
	addq	$56, %rax	#, tmp723
	movl	-256(%rbp,%rax,4), %eax	# m3, D.21184
	addl	%eax, %edx	# D.21184, D.21184
	movl	-780(%rbp), %eax	# i, tmp725
	cltq
	addq	$40, %rax	#, tmp726
	movl	%edx, -768(%rbp,%rax,4)	# D.21184, m1
	.loc 1 1174 0 discriminator 2
	movl	-780(%rbp), %eax	# i, tmp728
	cltq
	addq	$32, %rax	#, tmp729
	movl	-256(%rbp,%rax,4), %edx	# m3, D.21184
	movl	-780(%rbp), %eax	# i, tmp731
	cltq
	addq	$48, %rax	#, tmp732
	movl	-256(%rbp,%rax,4), %eax	# m3, D.21184
	subl	%eax, %edx	# D.21184, D.21184
	movl	-780(%rbp), %eax	# i, tmp734
	cltq
	addq	$48, %rax	#, tmp735
	movl	%edx, -768(%rbp,%rax,4)	# D.21184, m1
	.loc 1 1175 0 discriminator 2
	movl	-780(%rbp), %eax	# i, tmp737
	cltq
	addq	$40, %rax	#, tmp738
	movl	-256(%rbp,%rax,4), %edx	# m3, D.21184
	movl	-780(%rbp), %eax	# i, tmp740
	cltq
	addq	$56, %rax	#, tmp741
	movl	-256(%rbp,%rax,4), %eax	# m3, D.21184
	subl	%eax, %edx	# D.21184, D.21184
	movl	-780(%rbp), %eax	# i, tmp743
	cltq
	addq	$56, %rax	#, tmp744
	movl	%edx, -768(%rbp,%rax,4)	# D.21184, m1
	.loc 1 1177 0 discriminator 2
	movl	-780(%rbp), %eax	# i, tmp746
	cltq
	movl	-768(%rbp,%rax,4), %edx	# m1, D.21184
	movl	-780(%rbp), %eax	# i, tmp748
	cltq
	addq	$8, %rax	#, tmp749
	movl	-768(%rbp,%rax,4), %eax	# m1, D.21184
	addl	%eax, %edx	# D.21184, D.21184
	movl	-780(%rbp), %eax	# i, tmp751
	cltq
	movl	%edx, -512(%rbp,%rax,4)	# D.21184, m2
	.loc 1 1178 0 discriminator 2
	movl	-780(%rbp), %eax	# i, tmp753
	cltq
	movl	-768(%rbp,%rax,4), %edx	# m1, D.21184
	movl	-780(%rbp), %eax	# i, tmp755
	cltq
	addq	$8, %rax	#, tmp756
	movl	-768(%rbp,%rax,4), %eax	# m1, D.21184
	subl	%eax, %edx	# D.21184, D.21184
	movl	-780(%rbp), %eax	# i, tmp758
	cltq
	addq	$8, %rax	#, tmp759
	movl	%edx, -512(%rbp,%rax,4)	# D.21184, m2
	.loc 1 1179 0 discriminator 2
	movl	-780(%rbp), %eax	# i, tmp761
	cltq
	addq	$16, %rax	#, tmp762
	movl	-768(%rbp,%rax,4), %edx	# m1, D.21184
	movl	-780(%rbp), %eax	# i, tmp764
	cltq
	addq	$24, %rax	#, tmp765
	movl	-768(%rbp,%rax,4), %eax	# m1, D.21184
	addl	%eax, %edx	# D.21184, D.21184
	movl	-780(%rbp), %eax	# i, tmp767
	cltq
	addq	$16, %rax	#, tmp768
	movl	%edx, -512(%rbp,%rax,4)	# D.21184, m2
	.loc 1 1180 0 discriminator 2
	movl	-780(%rbp), %eax	# i, tmp770
	cltq
	addq	$16, %rax	#, tmp771
	movl	-768(%rbp,%rax,4), %edx	# m1, D.21184
	movl	-780(%rbp), %eax	# i, tmp773
	cltq
	addq	$24, %rax	#, tmp774
	movl	-768(%rbp,%rax,4), %eax	# m1, D.21184
	subl	%eax, %edx	# D.21184, D.21184
	movl	-780(%rbp), %eax	# i, tmp776
	cltq
	addq	$24, %rax	#, tmp777
	movl	%edx, -512(%rbp,%rax,4)	# D.21184, m2
	.loc 1 1181 0 discriminator 2
	movl	-780(%rbp), %eax	# i, tmp779
	cltq
	addq	$32, %rax	#, tmp780
	movl	-768(%rbp,%rax,4), %edx	# m1, D.21184
	movl	-780(%rbp), %eax	# i, tmp782
	cltq
	addq	$40, %rax	#, tmp783
	movl	-768(%rbp,%rax,4), %eax	# m1, D.21184
	addl	%eax, %edx	# D.21184, D.21184
	movl	-780(%rbp), %eax	# i, tmp785
	cltq
	addq	$32, %rax	#, tmp786
	movl	%edx, -512(%rbp,%rax,4)	# D.21184, m2
	.loc 1 1182 0 discriminator 2
	movl	-780(%rbp), %eax	# i, tmp788
	cltq
	addq	$32, %rax	#, tmp789
	movl	-768(%rbp,%rax,4), %edx	# m1, D.21184
	movl	-780(%rbp), %eax	# i, tmp791
	cltq
	addq	$40, %rax	#, tmp792
	movl	-768(%rbp,%rax,4), %eax	# m1, D.21184
	subl	%eax, %edx	# D.21184, D.21184
	movl	-780(%rbp), %eax	# i, tmp794
	cltq
	addq	$40, %rax	#, tmp795
	movl	%edx, -512(%rbp,%rax,4)	# D.21184, m2
	.loc 1 1183 0 discriminator 2
	movl	-780(%rbp), %eax	# i, tmp797
	cltq
	addq	$48, %rax	#, tmp798
	movl	-768(%rbp,%rax,4), %edx	# m1, D.21184
	movl	-780(%rbp), %eax	# i, tmp800
	cltq
	addq	$56, %rax	#, tmp801
	movl	-768(%rbp,%rax,4), %eax	# m1, D.21184
	addl	%eax, %edx	# D.21184, D.21184
	movl	-780(%rbp), %eax	# i, tmp803
	cltq
	addq	$48, %rax	#, tmp804
	movl	%edx, -512(%rbp,%rax,4)	# D.21184, m2
	.loc 1 1184 0 discriminator 2
	movl	-780(%rbp), %eax	# i, tmp806
	cltq
	addq	$48, %rax	#, tmp807
	movl	-768(%rbp,%rax,4), %edx	# m1, D.21184
	movl	-780(%rbp), %eax	# i, tmp809
	cltq
	addq	$56, %rax	#, tmp810
	movl	-768(%rbp,%rax,4), %eax	# m1, D.21184
	subl	%eax, %edx	# D.21184, D.21184
	movl	-780(%rbp), %eax	# i, tmp812
	cltq
	addq	$56, %rax	#, tmp813
	movl	%edx, -512(%rbp,%rax,4)	# D.21184, m2
	.loc 1 1157 0 discriminator 2
	addl	$1, -780(%rbp)	#, i
.L335:
	.loc 1 1157 0 is_stmt 0 discriminator 1
	cmpl	$7, -780(%rbp)	#, i
	jle	.L336	#,
	.loc 1 1186 0 is_stmt 1
	movl	$0, -776(%rbp)	#, j
	jmp	.L337	#
.L340:
	.loc 1 1187 0
	movl	$0, -780(%rbp)	#, i
	jmp	.L338	#
.L339:
	.loc 1 1188 0 discriminator 2
	movl	-780(%rbp), %eax	# i, tmp815
	cltq
	movl	-776(%rbp), %edx	# j, tmp817
	movslq	%edx, %rdx	# tmp817, tmp816
	salq	$3, %rdx	#, tmp818
	addq	%rdx, %rax	# tmp818, tmp819
	movl	-512(%rbp,%rax,4), %eax	# m2, D.21184
	cltd
	xorl	%edx, %eax	# tmp820, D.21184
	subl	%edx, %eax	# tmp820, D.21184
	addl	%eax, -772(%rbp)	# D.21184, sad
	.loc 1 1187 0 discriminator 2
	addl	$1, -780(%rbp)	#, i
.L338:
	.loc 1 1187 0 is_stmt 0 discriminator 1
	cmpl	$7, -780(%rbp)	#, i
	jle	.L339	#,
	.loc 1 1186 0 is_stmt 1
	addl	$1, -776(%rbp)	#, j
.L337:
	.loc 1 1186 0 is_stmt 0 discriminator 1
	cmpl	$7, -776(%rbp)	#, j
	jle	.L340	#,
	.loc 1 1189 0 is_stmt 1
	movl	-772(%rbp), %eax	# sad, tmp821
	addl	$2, %eax	#, D.21184
	sarl	$2, %eax	#, tmp822
	movl	%eax, -772(%rbp)	# tmp822, sad
	jmp	.L341	#
.L332:
	.loc 1 1193 0
	movl	$0, -780(%rbp)	#, i
	jmp	.L342	#
.L343:
	.loc 1 1194 0 discriminator 2
	movq	byte_abs(%rip), %rax	# byte_abs, byte_abs.373
	movl	-780(%rbp), %edx	# i, tmp823
	movslq	%edx, %rdx	# tmp823, D.21185
	leaq	0(,%rdx,4), %rcx	#, D.21185
	movq	-792(%rbp), %rdx	# diff, tmp824
	addq	%rcx, %rdx	# D.21185, D.21186
	movl	(%rdx), %edx	# *_252, D.21184
	movslq	%edx, %rdx	# D.21184, D.21185
	salq	$2, %rdx	#, D.21185
	addq	%rdx, %rax	# D.21185, D.21186
	movl	(%rax), %eax	# *_256, D.21184
	addl	%eax, -772(%rbp)	# D.21184, sad
	.loc 1 1193 0 discriminator 2
	addl	$1, -780(%rbp)	#, i
.L342:
	.loc 1 1193 0 is_stmt 0 discriminator 1
	cmpl	$63, -780(%rbp)	#, i
	jle	.L343	#,
.L341:
	.loc 1 1197 0 is_stmt 1
	movl	-772(%rbp), %eax	# sad, D.21184
	.loc 1 1198 0
	leave
	.cfi_def_cfa 7, 8
	ret
	.cfi_endproc
.LFE13:
	.size	SATD8X8, .-SATD8X8
	.globl	find_SATD
	.type	find_SATD, @function
find_SATD:
.LFB14:
	.loc 1 1208 0
	.cfi_startproc
	pushq	%rbp	#
	.cfi_def_cfa_offset 16
	.cfi_offset 6, -16
	movq	%rsp, %rbp	#,
	.cfi_def_cfa_register 6
	subq	$1088, %rsp	#,
	movq	%rdi, -1080(%rbp)	# curr_diff, curr_diff
	movl	%esi, -1084(%rbp)	# use_hadamard, use_hadamard
	movl	%edx, -1088(%rbp)	# blocktype, blocktype
	.loc 1 1209 0
	movl	$0, -1040(%rbp)	#, sad
	.loc 1 1210 0
	movq	input(%rip), %rax	# input, input.374
	movl	-1088(%rbp), %edx	# blocktype, tmp103
	movslq	%edx, %rdx	# tmp103, tmp102
	addq	$10, %rdx	#, tmp104
	movl	(%rax,%rdx,8), %eax	# input.374_15->blc_size, tmp105
	movl	%eax, -1036(%rbp)	# tmp105, block_size_x
	.loc 1 1211 0
	movq	input(%rip), %rax	# input, input.375
	movl	-1088(%rbp), %edx	# blocktype, tmp107
	movslq	%edx, %rdx	# tmp107, tmp106
	movl	84(%rax,%rdx,8), %eax	# input.375_18->blc_size, tmp108
	movl	%eax, -1032(%rbp)	# tmp108, block_size_y
	.loc 1 1212 0
	cmpl	$4, -1088(%rbp)	#, blocktype
	jle	.L346	#,
	.loc 1 1212 0 is_stmt 0 discriminator 1
	movl	$4, %eax	#, iftmp.376
	jmp	.L347	#
.L346:
	.loc 1 1212 0 discriminator 2
	movl	$8, %eax	#, iftmp.376
.L347:
	.loc 1 1212 0 discriminator 3
	movl	%eax, -1028(%rbp)	# iftmp.376, block_size
	.loc 1 1215 0 is_stmt 1 discriminator 3
	movl	$0, -1052(%rbp)	#, k
	.loc 1 1216 0 discriminator 3
	movl	$0, -1044(%rbp)	#, y
	jmp	.L348	#
.L355:
	.loc 1 1217 0
	movl	$0, -1048(%rbp)	#, x
	jmp	.L349	#
.L354:
	.loc 1 1218 0
	movl	-1044(%rbp), %eax	# y, tmp109
	movl	%eax, -1056(%rbp)	# tmp109, j
	jmp	.L350	#
.L353:
	.loc 1 1219 0
	movl	-1048(%rbp), %eax	# x, tmp110
	movl	%eax, -1060(%rbp)	# tmp110, i
	jmp	.L351	#
.L352:
	.loc 1 1220 0 discriminator 2
	movl	-1056(%rbp), %eax	# j, tmp111
	cltq
	salq	$6, %rax	#, D.21189
	movq	%rax, %rdx	# D.21189, D.21189
	movq	-1080(%rbp), %rax	# curr_diff, tmp112
	addq	%rax, %rdx	# tmp112, D.21190
	movl	-1060(%rbp), %eax	# i, tmp114
	cltq
	movl	(%rdx,%rax,4), %edx	# *_33, D.21188
	movl	-1052(%rbp), %eax	# k, tmp116
	cltq
	movl	%edx, -1024(%rbp,%rax,4)	# D.21188, diff
	.loc 1 1219 0 discriminator 2
	addl	$1, -1060(%rbp)	#, i
	addl	$1, -1052(%rbp)	#, k
.L351:
	.loc 1 1219 0 is_stmt 0 discriminator 1
	movl	-1028(%rbp), %eax	# block_size, tmp117
	movl	-1048(%rbp), %edx	# x, tmp118
	addl	%edx, %eax	# tmp118, D.21188
	cmpl	-1060(%rbp), %eax	# i, D.21188
	jg	.L352	#,
	.loc 1 1218 0 is_stmt 1
	addl	$1, -1056(%rbp)	#, j
.L350:
	.loc 1 1218 0 is_stmt 0 discriminator 1
	movl	-1028(%rbp), %eax	# block_size, tmp119
	movl	-1044(%rbp), %edx	# y, tmp120
	addl	%edx, %eax	# tmp120, D.21188
	cmpl	-1056(%rbp), %eax	# j, D.21188
	jg	.L353	#,
	.loc 1 1217 0 is_stmt 1
	movl	-1028(%rbp), %eax	# block_size, tmp121
	addl	%eax, -1048(%rbp)	# tmp121, x
.L349:
	.loc 1 1217 0 is_stmt 0 discriminator 1
	movl	-1048(%rbp), %eax	# x, tmp122
	cmpl	-1036(%rbp), %eax	# block_size_x, tmp122
	jl	.L354	#,
	.loc 1 1216 0 is_stmt 1
	movl	-1028(%rbp), %eax	# block_size, tmp123
	addl	%eax, -1044(%rbp)	# tmp123, y
.L348:
	.loc 1 1216 0 is_stmt 0 discriminator 1
	movl	-1044(%rbp), %eax	# y, tmp124
	cmpl	-1032(%rbp), %eax	# block_size_y, tmp124
	jl	.L355	#,
	.loc 1 1222 0 is_stmt 1
	cmpl	$0, -1084(%rbp)	#, use_hadamard
	je	.L356	#,
	.loc 1 1224 0
	cmpl	$7, -1088(%rbp)	#, blocktype
	ja	.L357	#,
	movl	-1088(%rbp), %eax	# blocktype, tmp125
	movq	.L359(,%rax,8), %rax	#, tmp126
	jmp	*%rax	# tmp126
	.section	.rodata
	.align 8
	.align 4
.L359:
	.quad	.L357
	.quad	.L358
	.quad	.L360
	.quad	.L360
	.quad	.L361
	.quad	.L362
	.quad	.L362
	.quad	.L363
	.text
.L358:
	.loc 1 1228 0
	movq	input(%rip), %rax	# input, input.377
	movl	24(%rax), %edx	# input.377_41->hadamard, D.21188
	leaq	-1024(%rbp), %rax	#, tmp127
	movl	%edx, %esi	# D.21188,
	movq	%rax, %rdi	# tmp127,
	call	SATD8X8	#
	movl	%eax, -1040(%rbp)	# tmp128, sad
	.loc 1 1229 0
	movq	input(%rip), %rax	# input, input.378
	movl	24(%rax), %eax	# input.378_44->hadamard, D.21188
	leaq	-1024(%rbp), %rdx	#, tmp129
	addq	$256, %rdx	#, tmp130
	movl	%eax, %esi	# D.21188,
	movq	%rdx, %rdi	# tmp130,
	call	SATD8X8	#
	addl	%eax, -1040(%rbp)	# D.21188, sad
	.loc 1 1230 0
	movq	input(%rip), %rax	# input, input.379
	movl	24(%rax), %eax	# input.379_48->hadamard, D.21188
	leaq	-1024(%rbp), %rdx	#, tmp131
	addq	$512, %rdx	#, tmp132
	movl	%eax, %esi	# D.21188,
	movq	%rdx, %rdi	# tmp132,
	call	SATD8X8	#
	addl	%eax, -1040(%rbp)	# D.21188, sad
	.loc 1 1231 0
	movq	input(%rip), %rax	# input, input.380
	movl	24(%rax), %eax	# input.380_52->hadamard, D.21188
	leaq	-1024(%rbp), %rdx	#, tmp133
	addq	$768, %rdx	#, tmp134
	movl	%eax, %esi	# D.21188,
	movq	%rdx, %rdi	# tmp134,
	call	SATD8X8	#
	addl	%eax, -1040(%rbp)	# D.21188, sad
	.loc 1 1232 0
	jmp	.L364	#
.L360:
	.loc 1 1235 0
	movq	input(%rip), %rax	# input, input.381
	movl	24(%rax), %edx	# input.381_56->hadamard, D.21188
	leaq	-1024(%rbp), %rax	#, tmp135
	movl	%edx, %esi	# D.21188,
	movq	%rax, %rdi	# tmp135,
	call	SATD8X8	#
	movl	%eax, -1040(%rbp)	# tmp136, sad
	.loc 1 1236 0
	movq	input(%rip), %rax	# input, input.382
	movl	24(%rax), %eax	# input.382_59->hadamard, D.21188
	leaq	-1024(%rbp), %rdx	#, tmp137
	addq	$256, %rdx	#, tmp138
	movl	%eax, %esi	# D.21188,
	movq	%rdx, %rdi	# tmp138,
	call	SATD8X8	#
	addl	%eax, -1040(%rbp)	# D.21188, sad
	.loc 1 1237 0
	jmp	.L364	#
.L361:
	.loc 1 1239 0
	movq	input(%rip), %rax	# input, input.383
	movl	24(%rax), %edx	# input.383_63->hadamard, D.21188
	leaq	-1024(%rbp), %rax	#, tmp139
	movl	%edx, %esi	# D.21188,
	movq	%rax, %rdi	# tmp139,
	call	SATD8X8	#
	movl	%eax, -1040(%rbp)	# tmp140, sad
	.loc 1 1240 0
	jmp	.L364	#
.L362:
	.loc 1 1243 0
	movq	input(%rip), %rax	# input, input.384
	movl	24(%rax), %edx	# input.384_66->hadamard, D.21188
	leaq	-1024(%rbp), %rax	#, tmp141
	movl	%edx, %esi	# D.21188,
	movq	%rax, %rdi	# tmp141,
	call	SATD	#
	movl	%eax, -1040(%rbp)	# tmp142, sad
	.loc 1 1244 0
	movq	input(%rip), %rax	# input, input.385
	movl	24(%rax), %eax	# input.385_69->hadamard, D.21188
	leaq	-1024(%rbp), %rdx	#, tmp143
	addq	$64, %rdx	#, tmp144
	movl	%eax, %esi	# D.21188,
	movq	%rdx, %rdi	# tmp144,
	call	SATD	#
	addl	%eax, -1040(%rbp)	# D.21188, sad
	.loc 1 1245 0
	jmp	.L364	#
.L363:
	.loc 1 1247 0
	movq	input(%rip), %rax	# input, input.386
	movl	24(%rax), %edx	# input.386_73->hadamard, D.21188
	leaq	-1024(%rbp), %rax	#, tmp145
	movl	%edx, %esi	# D.21188,
	movq	%rax, %rdi	# tmp145,
	call	SATD	#
	movl	%eax, -1040(%rbp)	# tmp146, sad
	.loc 1 1248 0
	jmp	.L364	#
.L357:
	.loc 1 1249 0
	movl	$-1, -1040(%rbp)	#, sad
	.loc 1 1250 0
	nop
.L364:
	jmp	.L365	#
.L356:
	.loc 1 1255 0
	movl	$0, -1060(%rbp)	#, i
	jmp	.L366	#
.L367:
	.loc 1 1256 0 discriminator 2
	movq	byte_abs(%rip), %rdx	# byte_abs, byte_abs.387
	movl	-1060(%rbp), %eax	# i, tmp148
	cltq
	movl	-1024(%rbp,%rax,4), %eax	# diff, D.21188
	cltq
	salq	$2, %rax	#, D.21189
	addq	%rdx, %rax	# byte_abs.387, D.21191
	movl	(%rax), %eax	# *_83, D.21188
	addl	%eax, -1040(%rbp)	# D.21188, sad
	.loc 1 1255 0 discriminator 2
	addl	$1, -1060(%rbp)	#, i
.L366:
	.loc 1 1255 0 is_stmt 0 discriminator 1
	movl	-1032(%rbp), %eax	# block_size_y, tmp149
	imull	-1036(%rbp), %eax	# block_size_x, D.21188
	cmpl	-1060(%rbp), %eax	# i, D.21188
	jg	.L367	#,
.L365:
	.loc 1 1259 0 is_stmt 1
	movl	-1040(%rbp), %eax	# sad, D.21188
	.loc 1 1260 0
	leave
	.cfi_def_cfa 7, 8
	ret
	.cfi_endproc
.LFE14:
	.size	find_SATD, .-find_SATD
	.globl	SubPelBlockMotionSearch
	.type	SubPelBlockMotionSearch, @function
SubPelBlockMotionSearch:
.LFB15:
	.loc 1 1284 0
	.cfi_startproc
	pushq	%rbp	#
	.cfi_def_cfa_offset 16
	.cfi_offset 6, -16
	movq	%rsp, %rbp	#,
	.cfi_def_cfa_register 6
	pushq	%r12	#
	pushq	%rbx	#
	subq	$1296, %rsp	#,
	.cfi_offset 12, -24
	.cfi_offset 3, -32
	movq	%rdi, -1272(%rbp)	# orig_pic, orig_pic
	movl	%esi, %eax	# ref, tmp715
	movl	%edx, -1280(%rbp)	# list, list
	movl	%ecx, -1284(%rbp)	# pic_pix_x, pic_pix_x
	movl	%r8d, -1288(%rbp)	# pic_pix_y, pic_pix_y
	movl	%r9d, -1292(%rbp)	# blocktype, blocktype
	movl	16(%rbp), %ecx	# pred_mv_x, tmp716
	movl	24(%rbp), %edx	# pred_mv_y, tmp717
	movsd	%xmm0, -1312(%rbp)	# lambda, lambda
	movw	%ax, -1276(%rbp)	# tmp715, ref
	movw	%cx, -1296(%rbp)	# tmp716, pred_mv_x
	movw	%dx, -1300(%rbp)	# tmp717, pred_mv_y
	.loc 1 1294 0
	movsd	-1312(%rbp), %xmm1	# lambda, tmp718
	movsd	.LC13(%rip), %xmm0	#, tmp719
	mulsd	%xmm1, %xmm0	# tmp718, D.21192
	movsd	.LC14(%rip), %xmm1	#, tmp720
	addsd	%xmm1, %xmm0	# tmp720, D.21192
	cvttsd2si	%xmm0, %eax	# D.21192, tmp721
	movl	%eax, -1224(%rbp)	# tmp721, lambda_factor
	.loc 1 1295 0
	movl	$0, -1220(%rbp)	#, mv_shift
	.loc 1 1296 0
	cmpl	$1, -1292(%rbp)	#, blocktype
	jne	.L370	#,
	.loc 1 1296 0 is_stmt 0 discriminator 1
	movq	32(%rbp), %rax	# mv_x, tmp722
	movzwl	(%rax), %eax	# *mv_x_53(D), D.21193
	testw	%ax, %ax	# D.21193
	jne	.L370	#,
	movq	40(%rbp), %rax	# mv_y, tmp723
	movzwl	(%rax), %eax	# *mv_y_55(D), D.21193
	testw	%ax, %ax	# D.21193
	jne	.L370	#,
	movq	input(%rip), %rax	# input, input.389
	movl	24(%rax), %eax	# input.389_57->hadamard, D.21194
	testl	%eax, %eax	# D.21194
	je	.L370	#,
	movq	input(%rip), %rax	# input, input.390
	movl	2464(%rax), %eax	# input.390_59->rdopt, D.21194
	testl	%eax, %eax	# D.21194
	jne	.L370	#,
	movq	img(%rip), %rax	# img, img.391
	movl	24(%rax), %eax	# img.391_61->type, D.21194
	cmpl	$1, %eax	#, D.21194
	je	.L370	#,
	cmpw	$0, -1276(%rbp)	#, ref
	jne	.L370	#,
	.loc 1 1296 0 discriminator 3
	movl	$1, %eax	#, iftmp.388
	jmp	.L371	#
.L370:
	.loc 1 1296 0 discriminator 2
	movl	$0, %eax	#, iftmp.388
.L371:
	.loc 1 1296 0 discriminator 4
	movl	%eax, -1216(%rbp)	# iftmp.388, check_position0
	.loc 1 1297 0 is_stmt 1 discriminator 4
	movq	input(%rip), %rax	# input, input.392
	movl	-1292(%rbp), %edx	# blocktype, tmp725
	movslq	%edx, %rdx	# tmp725, tmp724
	addq	$10, %rdx	#, tmp726
	movl	(%rax,%rdx,8), %eax	# input.392_67->blc_size, tmp727
	movl	%eax, -1212(%rbp)	# tmp727, blocksize_x
	.loc 1 1298 0 discriminator 4
	movq	input(%rip), %rax	# input, input.393
	movl	-1292(%rbp), %edx	# blocktype, tmp729
	movslq	%edx, %rdx	# tmp729, tmp728
	movl	84(%rax,%rdx,8), %eax	# input.393_69->blc_size, tmp730
	movl	%eax, -1208(%rbp)	# tmp730, blocksize_y
	.loc 1 1299 0 discriminator 4
	movl	-1284(%rbp), %eax	# pic_pix_x, tmp734
	sall	$2, %eax	#, tmp733
	movl	%eax, -1204(%rbp)	# tmp733, pic4_pix_x
	.loc 1 1300 0 discriminator 4
	movl	-1288(%rbp), %eax	# pic_pix_y, tmp738
	sall	$2, %eax	#, tmp737
	movl	%eax, -1200(%rbp)	# tmp737, pic4_pix_y
	.loc 1 1301 0 discriminator 4
	movq	input(%rip), %rax	# input, input.395
	movl	24(%rax), %eax	# input.395_75->hadamard, D.21194
	testl	%eax, %eax	# D.21194
	je	.L372	#,
	.loc 1 1301 0 is_stmt 0 discriminator 2
	movq	input(%rip), %rax	# input, input.396
	movl	28(%rax), %eax	# input.396_77->hadamardqpel, D.21194
	testl	%eax, %eax	# D.21194
	je	.L373	#,
.L372:
	.loc 1 1301 0 discriminator 1
	movl	$1, %eax	#, iftmp.394
	jmp	.L374	#
.L373:
	.loc 1 1301 0 discriminator 3
	movl	$0, %eax	#, iftmp.394
.L374:
	.loc 1 1301 0 discriminator 4
	movl	%eax, -1196(%rbp)	# iftmp.394, min_pos2
	.loc 1 1302 0 is_stmt 1 discriminator 4
	movq	input(%rip), %rax	# input, input.398
	movl	24(%rax), %eax	# input.398_82->hadamard, D.21194
	testl	%eax, %eax	# D.21194
	je	.L375	#,
	.loc 1 1302 0 is_stmt 0 discriminator 1
	movl	$1, %eax	#, tmp739
	cmpl	$0, 48(%rbp)	#, search_pos2
	cmovg	48(%rbp), %eax	# search_pos2,, iftmp.397
	jmp	.L376	#
.L375:
	.loc 1 1302 0 discriminator 2
	movl	48(%rbp), %eax	# search_pos2, iftmp.397
.L376:
	.loc 1 1302 0 discriminator 3
	movl	%eax, -1192(%rbp)	# iftmp.397, max_pos2
	.loc 1 1303 0 is_stmt 1 discriminator 3
	movq	img(%rip), %rax	# img, img.400
	movl	72400(%rax), %eax	# img.400_88->MbaffFrameFlag, D.21194
	testl	%eax, %eax	# D.21194
	je	.L377	#,
	.loc 1 1303 0 is_stmt 0 discriminator 1
	movq	img(%rip), %rax	# img, img.401
	movq	14168(%rax), %rdx	# img.401_90->mb_data, D.21195
	movq	img(%rip), %rax	# img, img.402
	movl	12(%rax), %eax	# img.402_92->current_mb_nr, D.21194
	cltq
	imulq	$632, %rax, %rax	#, D.21196, D.21196
	addq	%rdx, %rax	# D.21195, D.21195
	movl	532(%rax), %eax	# _96->mb_field, D.21194
	testl	%eax, %eax	# D.21194
	je	.L377	#,
	movq	img(%rip), %rax	# img, img.404
	movl	12(%rax), %eax	# img.404_98->current_mb_nr, D.21194
	andl	$1, %eax	#, D.21197
	testl	%eax, %eax	# D.21197
	je	.L378	#,
	movl	$4, %eax	#, iftmp.403
	jmp	.L379	#
.L378:
	.loc 1 1303 0 discriminator 2
	movl	$2, %eax	#, iftmp.403
.L379:
	.loc 1 1303 0 discriminator 3
	jmp	.L380	#
.L377:
	.loc 1 1303 0 discriminator 2
	movl	$0, %eax	#, iftmp.399
.L380:
	.loc 1 1303 0 discriminator 3
	movl	%eax, -1188(%rbp)	# iftmp.399, list_offset
	.loc 1 1305 0 is_stmt 1 discriminator 3
	movq	active_pps(%rip), %rax	# active_pps, active_pps.406
	movl	192(%rax), %eax	# active_pps.406_107->weighted_pred_flag, D.21198
	testl	%eax, %eax	# D.21198
	je	.L381	#,
	.loc 1 1305 0 is_stmt 0 discriminator 1
	movq	img(%rip), %rax	# img, img.407
	movl	24(%rax), %eax	# img.407_109->type, D.21194
	testl	%eax, %eax	# D.21194
	je	.L382	#,
	.loc 1 1305 0 discriminator 2
	movq	img(%rip), %rax	# img, img.408
	movl	24(%rax), %eax	# img.408_111->type, D.21194
	cmpl	$3, %eax	#, D.21194
	je	.L382	#,
.L381:
	.loc 1 1306 0 is_stmt 1 discriminator 2
	movq	active_pps(%rip), %rax	# active_pps, active_pps.409
	movl	196(%rax), %eax	# active_pps.409_113->weighted_bipred_idc, D.21199
	.loc 1 1305 0 discriminator 2
	testl	%eax, %eax	# D.21199
	je	.L383	#,
	.loc 1 1306 0
	movq	img(%rip), %rax	# img, img.410
	movl	24(%rax), %eax	# img.410_115->type, D.21194
	cmpl	$1, %eax	#, D.21194
	jne	.L383	#,
.L382:
	.loc 1 1305 0 discriminator 1
	movl	$1, %eax	#, iftmp.405
	jmp	.L384	#
.L383:
	.loc 1 1305 0 is_stmt 0 discriminator 3
	movl	$0, %eax	#, iftmp.405
.L384:
	.loc 1 1305 0 discriminator 4
	movl	%eax, -1184(%rbp)	# iftmp.405, apply_weights
	.loc 1 1310 0 is_stmt 1 discriminator 4
	movq	input(%rip), %rax	# input, input.412
	movl	28(%rax), %eax	# input.412_120->hadamardqpel, D.21194
	testl	%eax, %eax	# D.21194
	jne	.L385	#,
	.loc 1 1310 0 is_stmt 0 discriminator 1
	movq	input(%rip), %rax	# input, input.413
	movl	24(%rax), %eax	# input.413_122->hadamard, iftmp.411
	jmp	.L386	#
.L385:
	.loc 1 1310 0 discriminator 2
	movl	$0, %eax	#, iftmp.411
.L386:
	.loc 1 1310 0 discriminator 3
	movl	%eax, -1180(%rbp)	# iftmp.411, halfpelhadamard
	.loc 1 1311 0 is_stmt 1 discriminator 3
	movq	input(%rip), %rax	# input, input.414
	movl	28(%rax), %eax	# input.414_126->hadamardqpel, D.21194
	testl	%eax, %eax	# D.21194
	sete	%al	#, D.21200
	movzbl	%al, %eax	# D.21200, tmp740
	movl	%eax, -1176(%rbp)	# tmp740, qpelstart
	.loc 1 1313 0 discriminator 3
	movl	-1188(%rbp), %eax	# list_offset, tmp741
	movl	-1280(%rbp), %edx	# list, tmp742
	addl	%edx, %eax	# tmp742, D.21194
	cltq
	movq	listX(,%rax,8), %rax	# listX, D.21201
	movswq	-1276(%rbp), %rdx	# ref, D.21196
	salq	$3, %rdx	#, D.21196
	addq	%rdx, %rax	# D.21196, D.21201
	movq	(%rax), %rax	# *_135, tmp744
	movq	%rax, -1128(%rbp)	# tmp744, ref_picture
	.loc 1 1316 0 discriminator 3
	cmpl	$0, -1184(%rbp)	#, apply_weights
	je	.L387	#,
	.loc 1 1316 0 is_stmt 0 discriminator 1
	movq	input(%rip), %rax	# input, input.415
	movl	1292(%rax), %eax	# input.415_137->UseWeightedReferenceME, D.21194
	testl	%eax, %eax	# D.21194
	je	.L387	#,
	.loc 1 1318 0 is_stmt 1
	movl	-1188(%rbp), %eax	# list_offset, tmp745
	movl	-1280(%rbp), %edx	# list, tmp746
	addl	%edx, %eax	# tmp746, D.21194
	cltq
	movq	listX(,%rax,8), %rax	# listX, D.21201
	movswq	-1276(%rbp), %rdx	# ref, D.21196
	salq	$3, %rdx	#, D.21196
	addq	%rdx, %rax	# D.21196, D.21201
	movq	(%rax), %rax	# *_143, D.21202
	movq	6456(%rax), %rax	# _144->imgY_ups_w, tmp748
	movq	%rax, -1136(%rbp)	# tmp748, ref_pic
	jmp	.L388	#
.L387:
	.loc 1 1321 0
	movl	-1188(%rbp), %eax	# list_offset, tmp749
	movl	-1280(%rbp), %edx	# list, tmp750
	addl	%edx, %eax	# tmp750, D.21194
	cltq
	movq	listX(,%rax,8), %rax	# listX, D.21201
	movswq	-1276(%rbp), %rdx	# ref, D.21196
	salq	$3, %rdx	#, D.21196
	addq	%rdx, %rax	# D.21196, D.21201
	movq	(%rax), %rax	# *_150, D.21202
	movq	6448(%rax), %rax	# _151->imgY_ups, tmp752
	movq	%rax, -1136(%rbp)	# tmp752, ref_pic
.L388:
	.loc 1 1323 0
	movq	-1128(%rbp), %rax	# ref_picture, tmp753
	movl	6392(%rax), %eax	# ref_picture_136->size_x, tmp754
	movl	%eax, -1172(%rbp)	# tmp754, img_width
	.loc 1 1324 0
	movq	-1128(%rbp), %rax	# ref_picture, tmp755
	movl	6396(%rax), %eax	# ref_picture_136->size_y, tmp756
	movl	%eax, -1168(%rbp)	# tmp756, img_height
	.loc 1 1326 0
	movq	-1128(%rbp), %rax	# ref_picture, tmp757
	movl	6392(%rax), %eax	# ref_picture_136->size_x, D.21194
	subl	-1212(%rbp), %eax	# blocksize_x, D.21194
	addl	$1, %eax	#, D.21194
	sall	$2, %eax	#, tmp758
	movl	%eax, -1164(%rbp)	# tmp758, max_pos_x4
	.loc 1 1327 0
	movq	-1128(%rbp), %rax	# ref_picture, tmp759
	movl	6396(%rax), %eax	# ref_picture_136->size_y, D.21194
	subl	-1208(%rbp), %eax	# blocksize_y, D.21194
	addl	$1, %eax	#, D.21194
	sall	$2, %eax	#, tmp760
	movl	%eax, -1160(%rbp)	# tmp760, max_pos_y4
	.loc 1 1335 0
	movq	32(%rbp), %rax	# mv_x, tmp761
	movzwl	(%rax), %eax	# *mv_x_53(D), D.21193
	cwtl
	sall	$2, %eax	#, D.21194
	movl	%eax, %edx	# D.21194, D.21193
	movq	32(%rbp), %rax	# mv_x, tmp762
	movw	%dx, (%rax)	# D.21193, *mv_x_53(D)
	.loc 1 1336 0
	movq	40(%rbp), %rax	# mv_y, tmp763
	movzwl	(%rax), %eax	# *mv_y_55(D), D.21193
	cwtl
	sall	$2, %eax	#, D.21194
	movl	%eax, %edx	# D.21194, D.21193
	movq	40(%rbp), %rax	# mv_y, tmp764
	movw	%dx, (%rax)	# D.21193, *mv_y_55(D)
	.loc 1 1338 0
	movq	32(%rbp), %rax	# mv_x, tmp765
	movzwl	(%rax), %eax	# *mv_x_53(D), D.21193
	movswl	%ax, %edx	# D.21193, D.21194
	movl	-1204(%rbp), %eax	# pic4_pix_x, tmp766
	addl	%edx, %eax	# D.21194, D.21194
	cmpl	$1, %eax	#, D.21194
	jle	.L389	#,
	.loc 1 1338 0 is_stmt 0 discriminator 1
	movq	32(%rbp), %rax	# mv_x, tmp767
	movzwl	(%rax), %eax	# *mv_x_53(D), D.21193
	movswl	%ax, %edx	# D.21193, D.21194
	movl	-1204(%rbp), %eax	# pic4_pix_x, tmp768
	addl	%eax, %edx	# tmp768, D.21194
	movl	-1164(%rbp), %eax	# max_pos_x4, tmp769
	subl	$2, %eax	#, D.21194
	cmpl	%eax, %edx	# D.21194, D.21194
	jge	.L389	#,
	.loc 1 1339 0 is_stmt 1 discriminator 1
	movq	40(%rbp), %rax	# mv_y, tmp770
	movzwl	(%rax), %eax	# *mv_y_55(D), D.21193
	movswl	%ax, %edx	# D.21193, D.21194
	movl	-1200(%rbp), %eax	# pic4_pix_y, tmp771
	addl	%edx, %eax	# D.21194, D.21194
	.loc 1 1338 0 discriminator 1
	cmpl	$1, %eax	#, D.21194
	jle	.L389	#,
	.loc 1 1339 0
	movq	40(%rbp), %rax	# mv_y, tmp772
	movzwl	(%rax), %eax	# *mv_y_55(D), D.21193
	movswl	%ax, %edx	# D.21193, D.21194
	movl	-1200(%rbp), %eax	# pic4_pix_y, tmp773
	addl	%eax, %edx	# tmp773, D.21194
	movl	-1160(%rbp), %eax	# max_pos_y4, tmp774
	subl	$2, %eax	#, D.21194
	cmpl	%eax, %edx	# D.21194, D.21194
	jge	.L389	#,
	.loc 1 1341 0
	movq	$FastPelY_14, PelY_14(%rip)	#, PelY_14
	jmp	.L390	#
.L389:
	.loc 1 1345 0
	movq	$UMVPelY_14, PelY_14(%rip)	#, PelY_14
.L390:
	.loc 1 1348 0
	movl	$0, -1244(%rbp)	#, best_pos
	movl	-1196(%rbp), %eax	# min_pos2, tmp775
	movl	%eax, -1248(%rbp)	# tmp775, pos
	jmp	.L391	#
.L408:
	.loc 1 1350 0
	movq	32(%rbp), %rax	# mv_x, tmp776
	movzwl	(%rax), %eax	# *mv_x_53(D), D.21193
	cwtl
	movq	spiral_search_x(%rip), %rdx	# spiral_search_x, spiral_search_x.416
	movl	-1248(%rbp), %ecx	# pos, tmp777
	movslq	%ecx, %rcx	# tmp777, D.21196
	salq	$2, %rcx	#, D.21196
	addq	%rcx, %rdx	# D.21196, D.21203
	movl	(%rdx), %edx	# *_193, D.21194
	addl	%edx, %edx	# D.21194
	addl	%edx, %eax	# D.21194, tmp778
	movl	%eax, -1156(%rbp)	# tmp778, cand_mv_x
	.loc 1 1351 0
	movq	40(%rbp), %rax	# mv_y, tmp779
	movzwl	(%rax), %eax	# *mv_y_55(D), D.21193
	cwtl
	movq	spiral_search_y(%rip), %rdx	# spiral_search_y, spiral_search_y.417
	movl	-1248(%rbp), %ecx	# pos, tmp780
	movslq	%ecx, %rcx	# tmp780, D.21196
	salq	$2, %rcx	#, D.21196
	addq	%rcx, %rdx	# D.21196, D.21203
	movl	(%rdx), %edx	# *_202, D.21194
	addl	%edx, %edx	# D.21194
	addl	%edx, %eax	# D.21194, tmp781
	movl	%eax, -1152(%rbp)	# tmp781, cand_mv_y
	.loc 1 1354 0
	movq	mvbits(%rip), %rdx	# mvbits, mvbits.418
	movl	-1220(%rbp), %eax	# mv_shift, tmp782
	movl	-1156(%rbp), %esi	# cand_mv_x, tmp783
	movl	%eax, %ecx	# tmp782, tmp1200
	sall	%cl, %esi	# tmp1200, D.21194
	movl	%esi, %ecx	# D.21194, D.21194
	movswl	-1296(%rbp), %eax	# pred_mv_x, D.21194
