	.file	"parsetcommon.c"
# GNU C (Ubuntu/Linaro 4.8.1-10ubuntu9) version 4.8.1 (x86_64-linux-gnu)
#	compiled by GNU C version 4.8.1, GMP version 5.1.2, MPFR version 3.1.1-p2, MPC version 1.0.1
# GGC heuristics: --param ggc-min-expand=100 --param ggc-min-heapsize=131072
# options passed:  -imultiarch x86_64-linux-gnu -D SPEC_CPU -D NDEBUG
# -D SPEC_CPU_LP64 parsetcommon.c -mtune=generic -march=x86-64 -g
# -fverbose-asm -fno-strict-aliasing -fstack-protector -Wformat
# -Wformat-security
# options enabled:  -faggressive-loop-optimizations
# -fasynchronous-unwind-tables -fauto-inc-dec -fbranch-count-reg -fcommon
# -fdelete-null-pointer-checks -fdwarf2-cfi-asm -fearly-inlining
# -feliminate-unused-debug-types -ffunction-cse -fgcse-lm -fgnu-runtime
# -fident -finline-atomics -fira-hoist-pressure -fira-share-save-slots
# -fira-share-spill-slots -fivopts -fkeep-static-consts
# -fleading-underscore -fmath-errno -fmerge-debug-strings
# -fmove-loop-invariants -fpeephole -fprefetch-loop-arrays
# -freg-struct-return -fsched-critical-path-heuristic
# -fsched-dep-count-heuristic -fsched-group-heuristic -fsched-interblock
# -fsched-last-insn-heuristic -fsched-rank-heuristic -fsched-spec
# -fsched-spec-insn-heuristic -fsched-stalled-insns-dep -fshow-column
# -fsigned-zeros -fsplit-ivs-in-unroller -fstack-protector
# -fstrict-volatile-bitfields -fsync-libcalls -ftrapping-math
# -ftree-coalesce-vars -ftree-cselim -ftree-forwprop -ftree-loop-if-convert
# -ftree-loop-im -ftree-loop-ivcanon -ftree-loop-optimize
# -ftree-parallelize-loops= -ftree-phiprop -ftree-pta -ftree-reassoc
# -ftree-scev-cprop -ftree-slp-vectorize -ftree-vect-loop-version
# -funit-at-a-time -funwind-tables -fverbose-asm -fzero-initialized-in-bss
# -m128bit-long-double -m64 -m80387 -maccumulate-outgoing-args
# -malign-stringops -mfancy-math-387 -mfp-ret-in-387 -mfxsr -mglibc
# -mieee-fp -mlong-double-80 -mmmx -mno-sse4 -mpush-args -mred-zone -msse
# -msse2 -mtls-direct-seg-refs

	.text
.Ltext0:
	.section	.rodata
.LC0:
	.string	"AllocPPS: PPS"
.LC1:
	.string	"AllocPPS: slice_group_id"
	.text
	.globl	AllocPPS
	.type	AllocPPS, @function
AllocPPS:
.LFB2:
	.file 1 "parsetcommon.c"
	.loc 1 32 0
	.cfi_startproc
	pushq	%rbp	#
	.cfi_def_cfa_offset 16
	.cfi_offset 6, -16
	movq	%rsp, %rbp	#,
	.cfi_def_cfa_register 6
	subq	$16, %rsp	#,
	.loc 1 35 0
	movl	$1, %esi	#,
	movl	$240, %edi	#,
	call	calloc	#
	movq	%rax, -8(%rbp)	# tmp63, p
	cmpq	$0, -8(%rbp)	#, p
	jne	.L2	#,
	.loc 1 36 0
	movl	$.LC0, %edi	#,
	call	no_mem_exit	#
.L2:
	.loc 1 37 0
	movl	$1, %esi	#,
	movl	$60000, %edi	#,
	call	calloc	#
	movq	%rax, %rdx	# tmp64, D.4368
	movq	-8(%rbp), %rax	# p, tmp65
	movq	%rdx, 176(%rax)	# D.4368, p_1->slice_group_id
	movq	-8(%rbp), %rax	# p, tmp66
	movq	176(%rax), %rax	# p_1->slice_group_id, D.4369
	testq	%rax, %rax	# D.4369
	jne	.L3	#,
	.loc 1 38 0
	movl	$.LC1, %edi	#,
	call	no_mem_exit	#
.L3:
	.loc 1 39 0
	movq	-8(%rbp), %rax	# p, D.4370
	.loc 1 40 0
	leave
	.cfi_def_cfa 7, 8
	ret
	.cfi_endproc
.LFE2:
	.size	AllocPPS, .-AllocPPS
	.section	.rodata
.LC2:
	.string	"AllocSPS: SPS"
	.text
	.globl	AllocSPS
	.type	AllocSPS, @function
AllocSPS:
.LFB3:
	.loc 1 53 0
	.cfi_startproc
	pushq	%rbp	#
	.cfi_def_cfa_offset 16
	.cfi_offset 6, -16
	movq	%rsp, %rbp	#,
	.cfi_def_cfa_register 6
	subq	$16, %rsp	#,
	.loc 1 56 0
	movl	$1, %esi	#,
	movl	$2132, %edi	#,
	call	calloc	#
	movq	%rax, -8(%rbp)	# tmp61, p
	cmpq	$0, -8(%rbp)	#, p
	jne	.L6	#,
	.loc 1 57 0
	movl	$.LC2, %edi	#,
	call	no_mem_exit	#
.L6:
	.loc 1 58 0
	movq	-8(%rbp), %rax	# p, D.4373
	.loc 1 59 0
	leave
	.cfi_def_cfa 7, 8
	ret
	.cfi_endproc
.LFE3:
	.size	AllocSPS, .-AllocSPS
	.globl	FreePPS
	.type	FreePPS, @function
FreePPS:
.LFB4:
	.loc 1 76 0
	.cfi_startproc
	pushq	%rbp	#
	.cfi_def_cfa_offset 16
	.cfi_offset 6, -16
	movq	%rsp, %rbp	#,
	.cfi_def_cfa_register 6
	subq	$16, %rsp	#,
	movq	%rdi, -8(%rbp)	# pps, pps
	.loc 1 78 0
	movq	-8(%rbp), %rax	# pps, tmp61
	movq	176(%rax), %rax	# pps_1(D)->slice_group_id, D.4375
	testq	%rax, %rax	# D.4375
	je	.L9	#,
	.loc 1 78 0 is_stmt 0 discriminator 1
	movq	-8(%rbp), %rax	# pps, tmp62
	movq	176(%rax), %rax	# pps_1(D)->slice_group_id, D.4375
	movq	%rax, %rdi	# D.4375,
	call	free	#
.L9:
	.loc 1 79 0 is_stmt 1
	movq	-8(%rbp), %rax	# pps, tmp63
	movq	%rax, %rdi	# tmp63,
	call	free	#
	.loc 1 80 0
	leave
	.cfi_def_cfa 7, 8
	ret
	.cfi_endproc
.LFE4:
	.size	FreePPS, .-FreePPS
	.globl	FreeSPS
	.type	FreeSPS, @function
FreeSPS:
.LFB5:
	.loc 1 97 0
	.cfi_startproc
	pushq	%rbp	#
	.cfi_def_cfa_offset 16
	.cfi_offset 6, -16
	movq	%rsp, %rbp	#,
	.cfi_def_cfa_register 6
	subq	$16, %rsp	#,
	movq	%rdi, -8(%rbp)	# sps, sps
	.loc 1 99 0
	movq	-8(%rbp), %rax	# sps, tmp59
	movq	%rax, %rdi	# tmp59,
	call	free	#
	.loc 1 100 0
	leave
	.cfi_def_cfa 7, 8
	ret
	.cfi_endproc
.LFE5:
	.size	FreeSPS, .-FreeSPS
.Letext0:
	.file 2 "defines.h"
	.file 3 "parsetcommon.h"
	.section	.note.GNU-stack,"",@progbits
