	.file	"q_offsets.c"
# GNU C (Ubuntu/Linaro 4.8.1-10ubuntu9) version 4.8.1 (x86_64-linux-gnu)
#	compiled by GNU C version 4.8.1, GMP version 5.1.2, MPFR version 3.1.1-p2, MPC version 1.0.1
# GGC heuristics: --param ggc-min-expand=100 --param ggc-min-heapsize=131072
# options passed:  -imultiarch x86_64-linux-gnu -D SPEC_CPU -D NDEBUG
# -D SPEC_CPU_LP64 q_offsets.c -mtune=generic -march=x86-64 -g
# -fverbose-asm -fno-strict-aliasing -fstack-protector -Wformat
# -Wformat-security
# options enabled:  -faggressive-loop-optimizations
# -fasynchronous-unwind-tables -fauto-inc-dec -fbranch-count-reg -fcommon
# -fdelete-null-pointer-checks -fdwarf2-cfi-asm -fearly-inlining
# -feliminate-unused-debug-types -ffunction-cse -fgcse-lm -fgnu-runtime
# -fident -finline-atomics -fira-hoist-pressure -fira-share-save-slots
# -fira-share-spill-slots -fivopts -fkeep-static-consts
# -fleading-underscore -fmath-errno -fmerge-debug-strings
# -fmove-loop-invariants -fpeephole -fprefetch-loop-arrays
# -freg-struct-return -fsched-critical-path-heuristic
# -fsched-dep-count-heuristic -fsched-group-heuristic -fsched-interblock
# -fsched-last-insn-heuristic -fsched-rank-heuristic -fsched-spec
# -fsched-spec-insn-heuristic -fsched-stalled-insns-dep -fshow-column
# -fsigned-zeros -fsplit-ivs-in-unroller -fstack-protector
# -fstrict-volatile-bitfields -fsync-libcalls -ftrapping-math
# -ftree-coalesce-vars -ftree-cselim -ftree-forwprop -ftree-loop-if-convert
# -ftree-loop-im -ftree-loop-ivcanon -ftree-loop-optimize
# -ftree-parallelize-loops= -ftree-phiprop -ftree-pta -ftree-reassoc
# -ftree-scev-cprop -ftree-slp-vectorize -ftree-vect-loop-version
# -funit-at-a-time -funwind-tables -fverbose-asm -fzero-initialized-in-bss
# -m128bit-long-double -m64 -m80387 -maccumulate-outgoing-args
# -malign-stringops -mfancy-math-387 -mfp-ret-in-387 -mfxsr -mglibc
# -mieee-fp -mlong-double-80 -mmmx -mno-sse4 -mpush-args -mred-zone -msse
# -msse2 -mtls-direct-seg-refs

	.text
.Ltext0:
	.globl	offset4x4_check
	.bss
	.align 16
	.type	offset4x4_check, @object
	.size	offset4x4_check, 24
offset4x4_check:
	.zero	24
	.globl	offset8x8_check
	.align 4
	.type	offset8x8_check, @object
	.size	offset8x8_check, 8
offset8x8_check:
	.zero	8
	.section	.rodata
	.align 32
	.type	OffsetType4x4, @object
	.size	OffsetType4x4, 216
OffsetType4x4:
	.string	"INTRA4X4_LUMA_INTRA"
	.zero	4
	.string	"INTRA4X4_CHROMAU_INTRA"
	.zero	1
	.string	"INTRA4X4_CHROMAV_INTRA"
	.zero	1
	.string	"INTRA4X4_LUMA_INTER"
	.zero	4
	.string	"INTRA4X4_CHROMAU_INTER"
	.zero	1
	.string	"INTRA4X4_CHROMAV_INTER"
	.zero	1
	.string	"INTER4X4_LUMA"
	.zero	10
	.string	"INTER4X4_CHROMAU"
	.zero	7
	.string	"INTER4X4_CHROMAV"
	.zero	7
	.align 32
	.type	OffsetType8x8, @object
	.size	OffsetType8x8, 72
OffsetType8x8:
	.string	"INTRA8X8_LUMA_INTRA"
	.zero	4
	.string	"INTRA8X8_LUMA_INTER"
	.zero	4
	.string	"INTER8X8_LUMA"
	.zero	10
	.comm	LevelOffset4x4Luma_Intra,832,32
	.comm	LevelOffset4x4Chroma_Intra,1664,32
	.comm	LevelOffset4x4Luma_Inter,832,32
	.comm	LevelOffset4x4Chroma_Inter,1664,32
	.comm	LevelOffset8x8Luma_Intra,3328,32
	.comm	LevelOffset8x8Luma_Inter,3328,32
	.comm	OffsetList4x4input,288,32
	.comm	OffsetList8x8input,384,32
	.comm	OffsetList4x4,288,32
	.comm	OffsetList8x8,384,32
	.align 32
	.type	Offset_intra_default_intra, @object
	.size	Offset_intra_default_intra, 32
Offset_intra_default_intra:
	.value	341
	.value	341
	.value	341
	.value	341
	.value	341
	.value	341
	.value	341
	.value	341
	.value	341
	.value	341
	.value	341
	.value	341
	.value	341
	.value	341
	.value	341
	.value	341
	.align 32
	.type	Offset_intra_default_inter, @object
	.size	Offset_intra_default_inter, 32
Offset_intra_default_inter:
	.value	171
	.value	171
	.value	171
	.value	171
	.value	171
	.value	171
	.value	171
	.value	171
	.value	171
	.value	171
	.value	171
	.value	171
	.value	171
	.value	171
	.value	171
	.value	171
	.align 32
	.type	Offset_inter_default, @object
	.size	Offset_inter_default, 32
Offset_inter_default:
	.value	171
	.value	171
	.value	171
	.value	171
	.value	171
	.value	171
	.value	171
	.value	171
	.value	171
	.value	171
	.value	171
	.value	171
	.value	171
	.value	171
	.value	171
	.value	171
	.align 32
	.type	Offset8_intra_default_intra, @object
	.size	Offset8_intra_default_intra, 128
Offset8_intra_default_intra:
	.value	341
	.value	341
	.value	341
	.value	341
	.value	341
	.value	341
	.value	341
	.value	341
	.value	341
	.value	341
	.value	341
	.value	341
	.value	341
	.value	341
	.value	341
	.value	341
	.value	341
	.value	341
	.value	341
	.value	341
	.value	341
	.value	341
	.value	341
	.value	341
	.value	341
	.value	341
	.value	341
	.value	341
	.value	341
	.value	341
	.value	341
	.value	341
	.value	341
	.value	341
	.value	341
	.value	341
	.value	341
	.value	341
	.value	341
	.value	341
	.value	341
	.value	341
	.value	341
	.value	341
	.value	341
	.value	341
	.value	341
	.value	341
	.value	341
	.value	341
	.value	341
	.value	341
	.value	341
	.value	341
	.value	341
	.value	341
	.value	341
	.value	341
	.value	341
	.value	341
	.value	341
	.value	341
	.value	341
	.value	341
	.align 32
	.type	Offset8_intra_default_inter, @object
	.size	Offset8_intra_default_inter, 128
Offset8_intra_default_inter:
	.value	171
	.value	171
	.value	171
	.value	171
	.value	171
	.value	171
	.value	171
	.value	171
	.value	171
	.value	171
	.value	171
	.value	171
	.value	171
	.value	171
	.value	171
	.value	171
	.value	171
	.value	171
	.value	171
	.value	171
	.value	171
	.value	171
	.value	171
	.value	171
	.value	171
	.value	171
	.value	171
	.value	171
	.value	171
	.value	171
	.value	171
	.value	171
	.value	171
	.value	171
	.value	171
	.value	171
	.value	171
	.value	171
	.value	171
	.value	171
	.value	171
	.value	171
	.value	171
	.value	171
	.value	171
	.value	171
	.value	171
	.value	171
	.value	171
	.value	171
	.value	171
	.value	171
	.value	171
	.value	171
	.value	171
	.value	171
	.value	171
	.value	171
	.value	171
	.value	171
	.value	171
	.value	171
	.value	171
	.value	171
	.align 32
	.type	Offset8_inter_default, @object
	.size	Offset8_inter_default, 128
Offset8_inter_default:
	.value	171
	.value	171
	.value	171
	.value	171
	.value	171
	.value	171
	.value	171
	.value	171
	.value	171
	.value	171
	.value	171
	.value	171
	.value	171
	.value	171
	.value	171
	.value	171
	.value	171
	.value	171
	.value	171
	.value	171
	.value	171
	.value	171
	.value	171
	.value	171
	.value	171
	.value	171
	.value	171
	.value	171
	.value	171
	.value	171
	.value	171
	.value	171
	.value	171
	.value	171
	.value	171
	.value	171
	.value	171
	.value	171
	.value	171
	.value	171
	.value	171
	.value	171
	.value	171
	.value	171
	.value	171
	.value	171
	.value	171
	.value	171
	.value	171
	.value	171
	.value	171
	.value	171
	.value	171
	.value	171
	.value	171
	.value	171
	.value	171
	.value	171
	.value	171
	.value	171
	.value	171
	.value	171
	.value	171
	.value	171
	.text
	.globl	CheckOffsetParameterName
	.type	CheckOffsetParameterName, @function
CheckOffsetParameterName:
.LFB2:
	.file 1 "q_offsets.c"
	.loc 1 137 0
	.cfi_startproc
	pushq	%rbp	#
	.cfi_def_cfa_offset 16
	.cfi_offset 6, -16
	movq	%rsp, %rbp	#,
	.cfi_def_cfa_register 6
	subq	$32, %rsp	#,
	movq	%rdi, -24(%rbp)	# s, s
	movq	%rsi, -32(%rbp)	# type, type
	.loc 1 138 0
	movl	$0, -4(%rbp)	#, i
	.loc 1 140 0
	movq	-32(%rbp), %rax	# type, tmp65
	movl	$0, (%rax)	#, *type_5(D)
	.loc 1 141 0
	jmp	.L2	#
.L5:
	.loc 1 143 0
	movl	-4(%rbp), %eax	# i, tmp67
	movslq	%eax, %rdx	# tmp67, tmp66
	movq	%rdx, %rax	# tmp66, tmp68
	addq	%rax, %rax	# tmp68
	addq	%rdx, %rax	# tmp66, tmp68
	salq	$3, %rax	#, tmp69
	leaq	OffsetType4x4(%rax), %rdx	#, D.4545
	movq	-24(%rbp), %rax	# s, tmp70
	movq	%rax, %rsi	# tmp70,
	movq	%rdx, %rdi	# D.4545,
	call	strcmp	#
	testl	%eax, %eax	# D.4544
	jne	.L3	#,
	.loc 1 144 0
	movl	-4(%rbp), %eax	# i, D.4544
	jmp	.L4	#
.L3:
	.loc 1 146 0
	addl	$1, -4(%rbp)	#, i
.L2:
	.loc 1 141 0 discriminator 1
	cmpl	$8, -4(%rbp)	#, i
	jle	.L5	#,
	.loc 1 149 0
	movl	$0, -4(%rbp)	#, i
	.loc 1 150 0
	movq	-32(%rbp), %rax	# type, tmp71
	movl	$1, (%rax)	#, *type_5(D)
	.loc 1 151 0
	jmp	.L6	#
.L8:
	.loc 1 153 0
	movl	-4(%rbp), %eax	# i, tmp73
	movslq	%eax, %rdx	# tmp73, tmp72
	movq	%rdx, %rax	# tmp72, tmp74
	addq	%rax, %rax	# tmp74
	addq	%rdx, %rax	# tmp72, tmp74
	salq	$3, %rax	#, tmp75
	leaq	OffsetType8x8(%rax), %rdx	#, D.4545
	movq	-24(%rbp), %rax	# s, tmp76
	movq	%rax, %rsi	# tmp76,
	movq	%rdx, %rdi	# D.4545,
	call	strcmp	#
	testl	%eax, %eax	# D.4544
	jne	.L7	#,
	.loc 1 154 0
	movl	-4(%rbp), %eax	# i, D.4544
	jmp	.L4	#
.L7:
	.loc 1 156 0
	addl	$1, -4(%rbp)	#, i
.L6:
	.loc 1 151 0 discriminator 1
	cmpl	$2, -4(%rbp)	#, i
	jle	.L8	#,
	.loc 1 159 0
	movl	$-1, %eax	#, D.4544
.L4:
	.loc 1 160 0
	leave
	.cfi_def_cfa 7, 8
	ret
	.cfi_endproc
.LFE2:
	.size	CheckOffsetParameterName, .-CheckOffsetParameterName
	.section	.rodata
	.align 8
.LC0:
	.string	" Parsing error in config file: Parameter Name '%s' not recognized."
.LC1:
	.string	"="
.LC2:
	.string	"%d"
	.align 8
.LC3:
	.string	" Parsing error: Expected numerical value for Parameter of %s, found '%s'."
	.text
	.globl	ParseQOffsetMatrix
	.type	ParseQOffsetMatrix, @function
ParseQOffsetMatrix:
.LFB3:
	.loc 1 173 0
	.cfi_startproc
	pushq	%rbp	#
	.cfi_def_cfa_offset 16
	.cfi_offset 6, -16
	movq	%rsp, %rbp	#,
	.cfi_def_cfa_register 6
	subq	$8080, %rsp	#,
	movq	%rdi, -8072(%rbp)	# buf, buf
	movl	%esi, -8076(%rbp)	# bufsize, bufsize
	.loc 1 176 0
	movl	$0, -8056(%rbp)	#, item
	.loc 1 177 0
	movl	$0, -8052(%rbp)	#, InString
	movl	$0, -8048(%rbp)	#, InItem
	.loc 1 178 0
	movq	-8072(%rbp), %rax	# buf, tmp89
	movq	%rax, -8024(%rbp)	# tmp89, p
	.loc 1 179 0
	movl	-8076(%rbp), %eax	# bufsize, tmp90
	movslq	%eax, %rdx	# tmp90, D.4546
	movq	-8072(%rbp), %rax	# buf, tmp94
	addq	%rdx, %rax	# D.4546, tmp93
	movq	%rax, -8008(%rbp)	# tmp93, bufend
	.loc 1 184 0
	jmp	.L10	#
.L27:
	.loc 1 186 0
	movq	-8024(%rbp), %rax	# p, tmp95
	movzbl	(%rax), %eax	# *p_11, D.4547
	movsbl	%al, %eax	# D.4547, D.4548
	subl	$9, %eax	#, tmp96
	cmpl	$35, %eax	#, tmp96
	ja	.L11	#,
	movl	%eax, %eax	# tmp96, tmp97
	movq	.L13(,%rax,8), %rax	#, tmp98
	jmp	*%rax	# tmp98
	.section	.rodata
	.align 8
	.align 4
.L13:
	.quad	.L12
	.quad	.L14
	.quad	.L11
	.quad	.L11
	.quad	.L15
	.quad	.L11
	.quad	.L11
	.quad	.L11
	.quad	.L11
	.quad	.L11
	.quad	.L11
	.quad	.L11
	.quad	.L11
	.quad	.L11
	.quad	.L11
	.quad	.L11
	.quad	.L11
	.quad	.L11
	.quad	.L11
	.quad	.L11
	.quad	.L11
	.quad	.L11
	.quad	.L11
	.quad	.L12
	.quad	.L11
	.quad	.L16
	.quad	.L17
	.quad	.L11
	.quad	.L11
	.quad	.L11
	.quad	.L11
	.quad	.L11
	.quad	.L11
	.quad	.L11
	.quad	.L11
	.quad	.L18
	.text
.L15:
	.loc 1 189 0
	addq	$1, -8024(%rbp)	#, p
	.loc 1 190 0
	jmp	.L10	#
.L17:
	.loc 1 192 0
	movq	-8024(%rbp), %rax	# p, tmp99
	movb	$0, (%rax)	#, *p_11
	.loc 1 193 0
	jmp	.L19	#
.L21:
	.loc 1 194 0
	addq	$1, -8024(%rbp)	#, p
.L19:
	.loc 1 193 0 discriminator 1
	movq	-8024(%rbp), %rax	# p, tmp100
	movzbl	(%rax), %eax	# *p_9, D.4547
	cmpb	$10, %al	#, D.4547
	je	.L20	#,
	.loc 1 193 0 is_stmt 0 discriminator 2
	movq	-8024(%rbp), %rax	# p, tmp101
	cmpq	-8008(%rbp), %rax	# bufend, tmp101
	jb	.L21	#,
.L20:
	.loc 1 195 0 is_stmt 1
	movl	$0, -8052(%rbp)	#, InString
	.loc 1 196 0
	movl	$0, -8048(%rbp)	#, InItem
	.loc 1 197 0
	jmp	.L10	#
.L14:
	.loc 1 199 0
	movl	$0, -8048(%rbp)	#, InItem
	.loc 1 200 0
	movl	$0, -8052(%rbp)	#, InString
	.loc 1 201 0
	movq	-8024(%rbp), %rax	# p, p.0
	leaq	1(%rax), %rdx	#, tmp102
	movq	%rdx, -8024(%rbp)	# tmp102, p
	movb	$0, (%rax)	#, *p.0_33
	.loc 1 202 0
	jmp	.L10	#
.L12:
	.loc 1 205 0
	cmpl	$0, -8052(%rbp)	#, InString
	je	.L22	#,
	.loc 1 206 0
	addq	$1, -8024(%rbp)	#, p
	.loc 1 212 0
	jmp	.L10	#
.L22:
	.loc 1 209 0
	movq	-8024(%rbp), %rax	# p, p.1
	leaq	1(%rax), %rdx	#, tmp103
	movq	%rdx, -8024(%rbp)	# tmp103, p
	movb	$0, (%rax)	#, *p.1_36
	.loc 1 210 0
	movl	$0, -8048(%rbp)	#, InItem
	.loc 1 212 0
	jmp	.L10	#
.L16:
	.loc 1 215 0
	movq	-8024(%rbp), %rax	# p, p.2
	leaq	1(%rax), %rdx	#, tmp104
	movq	%rdx, -8024(%rbp)	# tmp104, p
	movb	$0, (%rax)	#, *p.2_39
	.loc 1 216 0
	cmpl	$0, -8052(%rbp)	#, InString
	jne	.L24	#,
	.loc 1 218 0
	movl	-8056(%rbp), %eax	# item, item.3
	leal	1(%rax), %edx	#, tmp105
	movl	%edx, -8056(%rbp)	# tmp105, item
	cltq
	movq	-8024(%rbp), %rdx	# p, tmp107
	movq	%rdx, -8000(%rbp,%rax,8)	# tmp107, items
	.loc 1 219 0
	notl	-8048(%rbp)	# InItem
	jmp	.L25	#
.L24:
	.loc 1 222 0
	movl	$0, -8048(%rbp)	#, InItem
.L25:
	.loc 1 223 0
	notl	-8052(%rbp)	# InString
	.loc 1 224 0
	jmp	.L10	#
.L18:
	.loc 1 227 0
	addq	$1, -8024(%rbp)	#, p
	.loc 1 228 0
	movl	$0, -8048(%rbp)	#, InItem
	.loc 1 229 0
	jmp	.L10	#
.L11:
	.loc 1 232 0
	cmpl	$0, -8048(%rbp)	#, InItem
	jne	.L26	#,
	.loc 1 234 0
	movl	-8056(%rbp), %eax	# item, item.4
	leal	1(%rax), %edx	#, tmp108
	movl	%edx, -8056(%rbp)	# tmp108, item
	cltq
	movq	-8024(%rbp), %rdx	# p, tmp110
	movq	%rdx, -8000(%rbp,%rax,8)	# tmp110, items
	.loc 1 235 0
	notl	-8048(%rbp)	# InItem
.L26:
	.loc 1 237 0
	addq	$1, -8024(%rbp)	#, p
.L10:
	.loc 1 184 0 discriminator 1
	movq	-8024(%rbp), %rax	# p, tmp111
	cmpq	-8008(%rbp), %rax	# bufend, tmp111
	jb	.L27	#,
	.loc 1 241 0
	subl	$1, -8056(%rbp)	#, item
	.loc 1 243 0
	movl	$0, -8044(%rbp)	#, i
	jmp	.L28	#
.L36:
	.loc 1 245 0
	movl	$0, -8032(%rbp)	#, cnt
	.loc 1 246 0
	movl	-8032(%rbp), %eax	# cnt, tmp112
	movl	-8044(%rbp), %edx	# i, tmp113
	addl	%edx, %eax	# tmp113, D.4548
	cltq
	movq	-8000(%rbp,%rax,8), %rax	# items, D.4549
	leaq	-8060(%rbp), %rdx	#, tmp115
	movq	%rdx, %rsi	# tmp115,
	movq	%rax, %rdi	# D.4549,
	call	CheckOffsetParameterName	#
	movl	%eax, -8028(%rbp)	# tmp116, MapIdx
	cmpl	$0, -8028(%rbp)	#, MapIdx
	jns	.L29	#,
	.loc 1 248 0
	movl	-8032(%rbp), %eax	# cnt, tmp117
	movl	-8044(%rbp), %edx	# i, tmp118
	addl	%edx, %eax	# tmp118, D.4548
	cltq
	movq	-8000(%rbp,%rax,8), %rax	# items, D.4549
	movq	%rax, %rcx	# D.4549,
	movl	$.LC0, %edx	#,
	movl	$300, %esi	#,
	movl	$errortext, %edi	#,
	movl	$0, %eax	#,
	call	snprintf	#
	.loc 1 249 0
	movl	$300, %esi	#,
	movl	$errortext, %edi	#,
	call	error	#
.L29:
	.loc 1 251 0
	addl	$1, -8032(%rbp)	#, cnt
	.loc 1 252 0
	movl	-8032(%rbp), %eax	# cnt, tmp120
	movl	-8044(%rbp), %edx	# i, tmp121
	addl	%edx, %eax	# tmp121, D.4548
	cltq
	movq	-8000(%rbp,%rax,8), %rax	# items, D.4549
	movq	%rax, %rsi	# D.4549,
	movl	$.LC1, %edi	#,
	call	strcmp	#
	testl	%eax, %eax	# D.4548
	je	.L30	#,
	.loc 1 254 0
	movabsq	$7453010377905885216, %rax	#, tmp153
	movq	%rax, errortext(%rip)	# tmp153, MEM[(void *)&errortext]
	movabsq	$7575180396224210208, %rax	#, tmp154
	movq	%rax, errortext+8(%rip)	# tmp154, MEM[(void *)&errortext]
	movabsq	$7451599682962399342, %rax	#, tmp155
	movq	%rax, errortext+16(%rip)	# tmp155, MEM[(void *)&errortext]
	movabsq	$2819317574018885152, %rax	#, tmp156
	movq	%rax, errortext+24(%rip)	# tmp156, MEM[(void *)&errortext]
	movabsq	$7162254444797634365, %rax	#, tmp157
	movq	%rax, errortext+32(%rip)	# tmp157, MEM[(void *)&errortext]
	movabsq	$8367814968646854004, %rax	#, tmp158
	movq	%rax, errortext+40(%rip)	# tmp158, MEM[(void *)&errortext]
	movabsq	$7957688353961305448, %rax	#, tmp159
	movq	%rax, errortext+48(%rip)	# tmp159, MEM[(void *)&errortext]
	movabsq	$2336916768757653604, %rax	#, tmp160
	movq	%rax, errortext+56(%rip)	# tmp160, MEM[(void *)&errortext]
	movabsq	$2335225676751203945, %rax	#, tmp161
	movq	%rax, errortext+64(%rip)	# tmp161, MEM[(void *)&errortext]
	movl	$1835365481, errortext+72(%rip)	#, MEM[(void *)&errortext]
	movw	$46, errortext+76(%rip)	#, MEM[(void *)&errortext]
	.loc 1 255 0
	movl	$300, %esi	#,
	movl	$errortext, %edi	#,
	call	error	#
.L30:
	.loc 1 257 0
	addl	$1, -8032(%rbp)	#, cnt
	.loc 1 259 0
	movl	-8060(%rbp), %eax	# type, type.5
	testl	%eax, %eax	# type.5
	jne	.L31	#,
	.loc 1 261 0
	movl	$16, -8036(%rbp)	#, range
	.loc 1 262 0
	movl	-8028(%rbp), %eax	# MapIdx, tmp125
	cltq
	salq	$5, %rax	#, tmp126
	addq	$OffsetList4x4input, %rax	#, tmp127
	movq	%rax, -8016(%rbp)	# tmp127, OffsetList
	.loc 1 263 0
	movl	-8028(%rbp), %eax	# MapIdx, tmp129
	cltq
	movl	$1, offset4x4_check(,%rax,4)	#, offset4x4_check
	jmp	.L32	#
.L31:
	.loc 1 267 0
	movl	$64, -8036(%rbp)	#, range
	.loc 1 268 0
	movl	-8028(%rbp), %eax	# MapIdx, tmp131
	cltq
	salq	$7, %rax	#, tmp132
	addq	$OffsetList8x8input, %rax	#, tmp133
	movq	%rax, -8016(%rbp)	# tmp133, OffsetList
	.loc 1 269 0
	movl	-8028(%rbp), %eax	# MapIdx, tmp135
	cltq
	movl	$1, offset8x8_check(,%rax,4)	#, offset8x8_check
.L32:
	.loc 1 272 0
	movl	$0, -8040(%rbp)	#, j
	jmp	.L33	#
.L35:
	.loc 1 274 0
	movl	-8032(%rbp), %eax	# cnt, tmp136
	movl	-8044(%rbp), %edx	# i, tmp137
	addl	%eax, %edx	# tmp136, D.4548
	movl	-8040(%rbp), %eax	# j, tmp138
	addl	%edx, %eax	# D.4548, D.4548
	cltq
	movq	-8000(%rbp,%rax,8), %rax	# items, D.4549
	leaq	-8064(%rbp), %rdx	#, tmp140
	movl	$.LC2, %esi	#,
	movq	%rax, %rdi	# D.4549,
	movl	$0, %eax	#,
	call	__isoc99_sscanf	#
	cmpl	$1, %eax	#, D.4548
	je	.L34	#,
	.loc 1 276 0
	movl	-8032(%rbp), %eax	# cnt, tmp141
	movl	-8044(%rbp), %edx	# i, tmp142
	addl	%eax, %edx	# tmp141, D.4548
	movl	-8040(%rbp), %eax	# j, tmp143
	addl	%edx, %eax	# D.4548, D.4548
	cltq
	movq	-8000(%rbp,%rax,8), %rdx	# items, D.4549
	movl	-8044(%rbp), %eax	# i, tmp146
	cltq
	movq	-8000(%rbp,%rax,8), %rax	# items, D.4549
	movq	%rdx, %r8	# D.4549,
	movq	%rax, %rcx	# D.4549,
	movl	$.LC3, %edx	#,
	movl	$300, %esi	#,
	movl	$errortext, %edi	#,
	movl	$0, %eax	#,
	call	snprintf	#
	.loc 1 277 0
	movl	$300, %esi	#,
	movl	$errortext, %edi	#,
	call	error	#
.L34:
	.loc 1 280 0
	movl	-8040(%rbp), %eax	# j, tmp147
	cltq
	leaq	(%rax,%rax), %rdx	#, D.4550
	movq	-8016(%rbp), %rax	# OffsetList, tmp148
	addq	%rax, %rdx	# tmp148, D.4551
	movl	-8064(%rbp), %eax	# IntContent, IntContent.6
	movw	%ax, (%rdx)	# D.4552, *_81
	.loc 1 272 0
	addl	$1, -8040(%rbp)	#, j
.L33:
	.loc 1 272 0 is_stmt 0 discriminator 1
	movl	-8040(%rbp), %eax	# j, tmp149
	cmpl	-8036(%rbp), %eax	# range, tmp149
	jl	.L35	#,
	.loc 1 282 0 is_stmt 1
	movl	-8040(%rbp), %eax	# j, tmp150
	addl	%eax, -8032(%rbp)	# tmp150, cnt
	.loc 1 283 0
	movl	$46, %edi	#,
	call	putchar	#
	.loc 1 243 0
	movl	-8032(%rbp), %eax	# cnt, tmp151
	addl	%eax, -8044(%rbp)	# tmp151, i
.L28:
	.loc 1 243 0 is_stmt 0 discriminator 1
	movl	-8044(%rbp), %eax	# i, tmp152
	cmpl	-8056(%rbp), %eax	# item, tmp152
	jl	.L36	#,
	.loc 1 285 0 is_stmt 1
	leave
	.cfi_def_cfa 7, 8
	ret
	.cfi_endproc
.LFE3:
	.size	ParseQOffsetMatrix, .-ParseQOffsetMatrix
	.section	.rodata
	.align 8
.LC4:
	.string	"Parsing Quantization Offset Matrix file %s "
	.align 8
.LC5:
	.string	"\nError: %s\nProceeding with default values for all matrices."
	.text
	.globl	Init_QOffsetMatrix
	.type	Init_QOffsetMatrix, @function
Init_QOffsetMatrix:
.LFB4:
	.loc 1 295 0
	.cfi_startproc
	pushq	%rbp	#
	.cfi_def_cfa_offset 16
	.cfi_offset 6, -16
	movq	%rsp, %rbp	#,
	.cfi_def_cfa_register 6
	subq	$16, %rsp	#,
	.loc 1 298 0
	movq	input(%rip), %rax	# input, input.7
	movl	3584(%rax), %eax	# input.7_1->OffsetMatrixPresentFlag, D.4557
	testl	%eax, %eax	# D.4557
	je	.L37	#,
	.loc 1 300 0
	movq	input(%rip), %rax	# input, input.8
	addq	$3384, %rax	#, D.4558
	movq	%rax, %rsi	# D.4558,
	movl	$.LC4, %edi	#,
	movl	$0, %eax	#,
	call	printf	#
	.loc 1 301 0
	movq	input(%rip), %rax	# input, input.9
	addq	$3384, %rax	#, D.4558
	movl	$0, %esi	#,
	movq	%rax, %rdi	# D.4558,
	call	GetConfigFileContent	#
	movq	%rax, -8(%rbp)	# tmp68, content
	.loc 1 302 0
	cmpq	$0, -8(%rbp)	#, content
	je	.L39	#,
	.loc 1 303 0
	movq	-8(%rbp), %rax	# content, tmp69
	movq	%rax, %rdi	# tmp69,
	call	strlen	#
	movl	%eax, %edx	# D.4559, D.4557
	movq	-8(%rbp), %rax	# content, tmp70
	movl	%edx, %esi	# D.4557,
	movq	%rax, %rdi	# tmp70,
	call	ParseQOffsetMatrix	#
	jmp	.L40	#
.L39:
	.loc 1 306 0
	movl	$errortext, %esi	#,
	movl	$.LC5, %edi	#,
	movl	$0, %eax	#,
	call	printf	#
	.loc 1 307 0
	movq	input(%rip), %rax	# input, input.10
	movl	$0, 3584(%rax)	#, input.10_10->OffsetMatrixPresentFlag
.L40:
	.loc 1 310 0
	movl	$10, %edi	#,
	call	putchar	#
	.loc 1 313 0
	movq	-8(%rbp), %rax	# content, tmp71
	movq	%rax, %rdi	# tmp71,
	call	free	#
.L37:
	.loc 1 315 0
	leave
	.cfi_def_cfa 7, 8
	ret
	.cfi_endproc
.LFE4:
	.size	Init_QOffsetMatrix, .-Init_QOffsetMatrix
	.globl	CalculateOffsetParam
	.type	CalculateOffsetParam, @function
CalculateOffsetParam:
.LFB5:
	.loc 1 331 0
	.cfi_startproc
	pushq	%rbp	#
	.cfi_def_cfa_offset 16
	.cfi_offset 6, -16
	movq	%rsp, %rbp	#,
	.cfi_def_cfa_register 6
	.loc 1 335 0
	movq	input(%rip), %rax	# input, input.11
	movl	3584(%rax), %eax	# input.11_7->OffsetMatrixPresentFlag, D.4562
	testl	%eax, %eax	# D.4562
	je	.L42	#,
	.loc 1 337 0
	movl	$0, -12(%rbp)	#, k
	jmp	.L43	#
.L50:
	.loc 1 339 0
	movl	-12(%rbp), %eax	# k, tmp124
	addl	$5, %eax	#, tmp123
	movl	%eax, -8(%rbp)	# tmp123, qp_per
	.loc 1 340 0
	movl	$0, -16(%rbp)	#, j
	jmp	.L44	#
.L49:
	.loc 1 342 0
	movl	$0, -20(%rbp)	#, i
	jmp	.L45	#
.L48:
	.loc 1 344 0
	movl	-20(%rbp), %eax	# i, tmp125
	leal	0(,%rax,4), %edx	#, D.4562
	movl	-16(%rbp), %eax	# j, tmp129
	addl	%edx, %eax	# D.4562, tmp128
	movl	%eax, -4(%rbp)	# tmp128, temp
	.loc 1 345 0
	movq	img(%rip), %rax	# img, img.12
	movl	24(%rax), %eax	# img.12_15->type, D.4562
	cmpl	$2, %eax	#, D.4562
	jne	.L46	#,
	.loc 1 347 0
	movl	-4(%rbp), %eax	# temp, tmp131
	cltq
	movzwl	OffsetList4x4input(%rax,%rax), %eax	# OffsetList4x4input, D.4563
	movswl	%ax, %edx	# D.4563, D.4562
	movl	-8(%rbp), %eax	# qp_per, tmp132
	movl	%eax, %ecx	# tmp132, tmp387
	sall	%cl, %edx	# tmp387, D.4562
	movl	-20(%rbp), %eax	# i, tmp134
	cltq
	movl	-12(%rbp), %ecx	# k, tmp136
	movslq	%ecx, %rsi	# tmp136, tmp135
	movl	-16(%rbp), %ecx	# j, tmp138
	movslq	%ecx, %rcx	# tmp138, tmp137
	salq	$2, %rsi	#, tmp139
	addq	%rsi, %rcx	# tmp139, tmp140
	salq	$2, %rcx	#, tmp141
	addq	%rcx, %rax	# tmp141, tmp142
	movl	%edx, LevelOffset4x4Luma_Intra(,%rax,4)	# D.4562, LevelOffset4x4Luma_Intra
	.loc 1 348 0
	movl	-4(%rbp), %eax	# temp, tmp144
	cltq
	addq	$16, %rax	#, tmp145
	movzwl	OffsetList4x4input(%rax,%rax), %eax	# OffsetList4x4input, D.4563
	movswl	%ax, %edx	# D.4563, D.4562
	movl	-8(%rbp), %eax	# qp_per, tmp146
	movl	%eax, %ecx	# tmp146, tmp388
	sall	%cl, %edx	# tmp388, D.4562
	movl	-20(%rbp), %eax	# i, tmp148
	cltq
	movl	-12(%rbp), %ecx	# k, tmp150
	movslq	%ecx, %rsi	# tmp150, tmp149
	movl	-16(%rbp), %ecx	# j, tmp152
	movslq	%ecx, %rcx	# tmp152, tmp151
	salq	$2, %rsi	#, tmp153
	addq	%rsi, %rcx	# tmp153, tmp154
	salq	$2, %rcx	#, tmp155
	addq	%rcx, %rax	# tmp155, tmp156
	movl	%edx, LevelOffset4x4Chroma_Intra(,%rax,4)	# D.4562, LevelOffset4x4Chroma_Intra
	.loc 1 349 0
	movl	-4(%rbp), %eax	# temp, tmp158
	cltq
	addq	$32, %rax	#, tmp159
	movzwl	OffsetList4x4input(%rax,%rax), %eax	# OffsetList4x4input, D.4563
	movswl	%ax, %edx	# D.4563, D.4562
	movl	-8(%rbp), %eax	# qp_per, tmp160
	movl	%eax, %ecx	# tmp160, tmp389
	sall	%cl, %edx	# tmp389, D.4562
	movl	-20(%rbp), %eax	# i, tmp162
	cltq
	movl	-12(%rbp), %ecx	# k, tmp164
	movslq	%ecx, %rsi	# tmp164, tmp163
	movl	-16(%rbp), %ecx	# j, tmp166
	movslq	%ecx, %rcx	# tmp166, tmp165
	salq	$2, %rsi	#, tmp167
	addq	%rsi, %rcx	# tmp167, tmp168
	salq	$2, %rcx	#, tmp169
	addq	%rcx, %rax	# tmp169, tmp170
	addq	$208, %rax	#, tmp171
	movl	%edx, LevelOffset4x4Chroma_Intra(,%rax,4)	# D.4562, LevelOffset4x4Chroma_Intra
	jmp	.L47	#
.L46:
	.loc 1 353 0
	movl	-4(%rbp), %eax	# temp, tmp173
	cltq
	addq	$48, %rax	#, tmp174
	movzwl	OffsetList4x4input(%rax,%rax), %eax	# OffsetList4x4input, D.4563
	movswl	%ax, %edx	# D.4563, D.4562
	movl	-8(%rbp), %eax	# qp_per, tmp175
	movl	%eax, %ecx	# tmp175, tmp390
	sall	%cl, %edx	# tmp390, D.4562
	movl	-20(%rbp), %eax	# i, tmp177
	cltq
	movl	-12(%rbp), %ecx	# k, tmp179
	movslq	%ecx, %rsi	# tmp179, tmp178
	movl	-16(%rbp), %ecx	# j, tmp181
	movslq	%ecx, %rcx	# tmp181, tmp180
	salq	$2, %rsi	#, tmp182
	addq	%rsi, %rcx	# tmp182, tmp183
	salq	$2, %rcx	#, tmp184
	addq	%rcx, %rax	# tmp184, tmp185
	movl	%edx, LevelOffset4x4Luma_Intra(,%rax,4)	# D.4562, LevelOffset4x4Luma_Intra
	.loc 1 354 0
	movl	-4(%rbp), %eax	# temp, tmp187
	cltq
	addq	$64, %rax	#, tmp188
	movzwl	OffsetList4x4input(%rax,%rax), %eax	# OffsetList4x4input, D.4563
	movswl	%ax, %edx	# D.4563, D.4562
	movl	-8(%rbp), %eax	# qp_per, tmp189
	movl	%eax, %ecx	# tmp189, tmp391
	sall	%cl, %edx	# tmp391, D.4562
	movl	-20(%rbp), %eax	# i, tmp191
	cltq
	movl	-12(%rbp), %ecx	# k, tmp193
	movslq	%ecx, %rsi	# tmp193, tmp192
	movl	-16(%rbp), %ecx	# j, tmp195
	movslq	%ecx, %rcx	# tmp195, tmp194
	salq	$2, %rsi	#, tmp196
	addq	%rsi, %rcx	# tmp196, tmp197
	salq	$2, %rcx	#, tmp198
	addq	%rcx, %rax	# tmp198, tmp199
	movl	%edx, LevelOffset4x4Chroma_Intra(,%rax,4)	# D.4562, LevelOffset4x4Chroma_Intra
	.loc 1 355 0
	movl	-4(%rbp), %eax	# temp, tmp201
	cltq
	addq	$80, %rax	#, tmp202
	movzwl	OffsetList4x4input(%rax,%rax), %eax	# OffsetList4x4input, D.4563
	movswl	%ax, %edx	# D.4563, D.4562
	movl	-8(%rbp), %eax	# qp_per, tmp203
	movl	%eax, %ecx	# tmp203, tmp392
	sall	%cl, %edx	# tmp392, D.4562
	movl	-20(%rbp), %eax	# i, tmp205
	cltq
	movl	-12(%rbp), %ecx	# k, tmp207
	movslq	%ecx, %rsi	# tmp207, tmp206
	movl	-16(%rbp), %ecx	# j, tmp209
	movslq	%ecx, %rcx	# tmp209, tmp208
	salq	$2, %rsi	#, tmp210
	addq	%rsi, %rcx	# tmp210, tmp211
	salq	$2, %rcx	#, tmp212
	addq	%rcx, %rax	# tmp212, tmp213
	addq	$208, %rax	#, tmp214
	movl	%edx, LevelOffset4x4Chroma_Intra(,%rax,4)	# D.4562, LevelOffset4x4Chroma_Intra
.L47:
	.loc 1 358 0
	movl	-4(%rbp), %eax	# temp, tmp216
	cltq
	addq	$96, %rax	#, tmp217
	movzwl	OffsetList4x4input(%rax,%rax), %eax	# OffsetList4x4input, D.4563
	movswl	%ax, %edx	# D.4563, D.4562
	movl	-8(%rbp), %eax	# qp_per, tmp218
	movl	%eax, %ecx	# tmp218, tmp393
	sall	%cl, %edx	# tmp393, D.4562
	movl	-20(%rbp), %eax	# i, tmp220
	cltq
	movl	-12(%rbp), %ecx	# k, tmp222
	movslq	%ecx, %rsi	# tmp222, tmp221
	movl	-16(%rbp), %ecx	# j, tmp224
	movslq	%ecx, %rcx	# tmp224, tmp223
	salq	$2, %rsi	#, tmp225
	addq	%rsi, %rcx	# tmp225, tmp226
	salq	$2, %rcx	#, tmp227
	addq	%rcx, %rax	# tmp227, tmp228
	movl	%edx, LevelOffset4x4Luma_Inter(,%rax,4)	# D.4562, LevelOffset4x4Luma_Inter
	.loc 1 359 0
	movl	-4(%rbp), %eax	# temp, tmp230
	cltq
	addq	$112, %rax	#, tmp231
	movzwl	OffsetList4x4input(%rax,%rax), %eax	# OffsetList4x4input, D.4563
	movswl	%ax, %edx	# D.4563, D.4562
	movl	-8(%rbp), %eax	# qp_per, tmp232
	movl	%eax, %ecx	# tmp232, tmp394
	sall	%cl, %edx	# tmp394, D.4562
	movl	-20(%rbp), %eax	# i, tmp234
	cltq
	movl	-12(%rbp), %ecx	# k, tmp236
	movslq	%ecx, %rsi	# tmp236, tmp235
	movl	-16(%rbp), %ecx	# j, tmp238
	movslq	%ecx, %rcx	# tmp238, tmp237
	salq	$2, %rsi	#, tmp239
	addq	%rsi, %rcx	# tmp239, tmp240
	salq	$2, %rcx	#, tmp241
	addq	%rcx, %rax	# tmp241, tmp242
	movl	%edx, LevelOffset4x4Chroma_Inter(,%rax,4)	# D.4562, LevelOffset4x4Chroma_Inter
	.loc 1 360 0
	movl	-4(%rbp), %eax	# temp, tmp244
	cltq
	subq	$-128, %rax	#, tmp245
	movzwl	OffsetList4x4input(%rax,%rax), %eax	# OffsetList4x4input, D.4563
	movswl	%ax, %edx	# D.4563, D.4562
	movl	-8(%rbp), %eax	# qp_per, tmp246
	movl	%eax, %ecx	# tmp246, tmp395
	sall	%cl, %edx	# tmp395, D.4562
	movl	-20(%rbp), %eax	# i, tmp248
	cltq
	movl	-12(%rbp), %ecx	# k, tmp250
	movslq	%ecx, %rsi	# tmp250, tmp249
	movl	-16(%rbp), %ecx	# j, tmp252
	movslq	%ecx, %rcx	# tmp252, tmp251
	salq	$2, %rsi	#, tmp253
	addq	%rsi, %rcx	# tmp253, tmp254
	salq	$2, %rcx	#, tmp255
	addq	%rcx, %rax	# tmp255, tmp256
	addq	$208, %rax	#, tmp257
	movl	%edx, LevelOffset4x4Chroma_Inter(,%rax,4)	# D.4562, LevelOffset4x4Chroma_Inter
	.loc 1 342 0
	addl	$1, -20(%rbp)	#, i
.L45:
	.loc 1 342 0 is_stmt 0 discriminator 1
	cmpl	$3, -20(%rbp)	#, i
	jle	.L48	#,
	.loc 1 340 0 is_stmt 1
	addl	$1, -16(%rbp)	#, j
.L44:
	.loc 1 340 0 is_stmt 0 discriminator 1
	cmpl	$3, -16(%rbp)	#, j
	jle	.L49	#,
	.loc 1 337 0 is_stmt 1
	addl	$1, -12(%rbp)	#, k
.L43:
	.loc 1 337 0 is_stmt 0 discriminator 1
	cmpl	$12, -12(%rbp)	#, k
	jle	.L50	#,
	jmp	.L41	#
.L42:
	.loc 1 367 0 is_stmt 1
	movl	$0, -12(%rbp)	#, k
	jmp	.L52	#
.L59:
	.loc 1 369 0
	movl	-12(%rbp), %eax	# k, tmp261
	addl	$5, %eax	#, tmp260
	movl	%eax, -8(%rbp)	# tmp260, qp_per
	.loc 1 370 0
	movl	$0, -16(%rbp)	#, j
	jmp	.L53	#
.L58:
	.loc 1 372 0
	movl	$0, -20(%rbp)	#, i
	jmp	.L54	#
.L57:
	.loc 1 374 0
	movl	-20(%rbp), %eax	# i, tmp262
	leal	0(,%rax,4), %edx	#, D.4562
	movl	-16(%rbp), %eax	# j, tmp266
	addl	%edx, %eax	# D.4562, tmp265
	movl	%eax, -4(%rbp)	# tmp265, temp
	.loc 1 375 0
	movq	img(%rip), %rax	# img, img.13
	movl	24(%rax), %eax	# img.13_53->type, D.4562
	cmpl	$2, %eax	#, D.4562
	jne	.L55	#,
	.loc 1 377 0
	movl	-4(%rbp), %eax	# temp, tmp268
	cltq
	movzwl	Offset_intra_default_intra(%rax,%rax), %eax	# Offset_intra_default_intra, D.4563
	movswl	%ax, %edx	# D.4563, D.4562
	movl	-8(%rbp), %eax	# qp_per, tmp269
	movl	%eax, %ecx	# tmp269, tmp396
	sall	%cl, %edx	# tmp396, D.4562
	movl	-20(%rbp), %eax	# i, tmp271
	cltq
	movl	-12(%rbp), %ecx	# k, tmp273
	movslq	%ecx, %rsi	# tmp273, tmp272
	movl	-16(%rbp), %ecx	# j, tmp275
	movslq	%ecx, %rcx	# tmp275, tmp274
	salq	$2, %rsi	#, tmp276
	addq	%rsi, %rcx	# tmp276, tmp277
	salq	$2, %rcx	#, tmp278
	addq	%rcx, %rax	# tmp278, tmp279
	movl	%edx, LevelOffset4x4Luma_Intra(,%rax,4)	# D.4562, LevelOffset4x4Luma_Intra
	.loc 1 378 0
	movl	-4(%rbp), %eax	# temp, tmp281
	cltq
	movzwl	Offset_intra_default_intra(%rax,%rax), %eax	# Offset_intra_default_intra, D.4563
	movswl	%ax, %edx	# D.4563, D.4562
	movl	-8(%rbp), %eax	# qp_per, tmp282
	movl	%eax, %ecx	# tmp282, tmp397
	sall	%cl, %edx	# tmp397, D.4562
	movl	-20(%rbp), %eax	# i, tmp284
	cltq
	movl	-12(%rbp), %ecx	# k, tmp286
	movslq	%ecx, %rsi	# tmp286, tmp285
	movl	-16(%rbp), %ecx	# j, tmp288
	movslq	%ecx, %rcx	# tmp288, tmp287
	salq	$2, %rsi	#, tmp289
	addq	%rsi, %rcx	# tmp289, tmp290
	salq	$2, %rcx	#, tmp291
	addq	%rcx, %rax	# tmp291, tmp292
	movl	%edx, LevelOffset4x4Chroma_Intra(,%rax,4)	# D.4562, LevelOffset4x4Chroma_Intra
	.loc 1 379 0
	movl	-4(%rbp), %eax	# temp, tmp294
	cltq
	movzwl	Offset_intra_default_intra(%rax,%rax), %eax	# Offset_intra_default_intra, D.4563
	movswl	%ax, %edx	# D.4563, D.4562
	movl	-8(%rbp), %eax	# qp_per, tmp295
	movl	%eax, %ecx	# tmp295, tmp398
	sall	%cl, %edx	# tmp398, D.4562
	movl	-20(%rbp), %eax	# i, tmp297
	cltq
	movl	-12(%rbp), %ecx	# k, tmp299
	movslq	%ecx, %rsi	# tmp299, tmp298
	movl	-16(%rbp), %ecx	# j, tmp301
	movslq	%ecx, %rcx	# tmp301, tmp300
	salq	$2, %rsi	#, tmp302
	addq	%rsi, %rcx	# tmp302, tmp303
	salq	$2, %rcx	#, tmp304
	addq	%rcx, %rax	# tmp304, tmp305
	addq	$208, %rax	#, tmp306
	movl	%edx, LevelOffset4x4Chroma_Intra(,%rax,4)	# D.4562, LevelOffset4x4Chroma_Intra
	jmp	.L56	#
.L55:
	.loc 1 383 0
	movl	-4(%rbp), %eax	# temp, tmp308
	cltq
	movzwl	Offset_intra_default_inter(%rax,%rax), %eax	# Offset_intra_default_inter, D.4563
	movswl	%ax, %edx	# D.4563, D.4562
	movl	-8(%rbp), %eax	# qp_per, tmp309
	movl	%eax, %ecx	# tmp309, tmp399
	sall	%cl, %edx	# tmp399, D.4562
	movl	-20(%rbp), %eax	# i, tmp311
	cltq
	movl	-12(%rbp), %ecx	# k, tmp313
	movslq	%ecx, %rsi	# tmp313, tmp312
	movl	-16(%rbp), %ecx	# j, tmp315
	movslq	%ecx, %rcx	# tmp315, tmp314
	salq	$2, %rsi	#, tmp316
	addq	%rsi, %rcx	# tmp316, tmp317
	salq	$2, %rcx	#, tmp318
	addq	%rcx, %rax	# tmp318, tmp319
	movl	%edx, LevelOffset4x4Luma_Intra(,%rax,4)	# D.4562, LevelOffset4x4Luma_Intra
	.loc 1 384 0
	movl	-4(%rbp), %eax	# temp, tmp321
	cltq
	movzwl	Offset_intra_default_inter(%rax,%rax), %eax	# Offset_intra_default_inter, D.4563
	movswl	%ax, %edx	# D.4563, D.4562
	movl	-8(%rbp), %eax	# qp_per, tmp322
	movl	%eax, %ecx	# tmp322, tmp400
	sall	%cl, %edx	# tmp400, D.4562
	movl	-20(%rbp), %eax	# i, tmp324
	cltq
	movl	-12(%rbp), %ecx	# k, tmp326
	movslq	%ecx, %rsi	# tmp326, tmp325
	movl	-16(%rbp), %ecx	# j, tmp328
	movslq	%ecx, %rcx	# tmp328, tmp327
	salq	$2, %rsi	#, tmp329
	addq	%rsi, %rcx	# tmp329, tmp330
	salq	$2, %rcx	#, tmp331
	addq	%rcx, %rax	# tmp331, tmp332
	movl	%edx, LevelOffset4x4Chroma_Intra(,%rax,4)	# D.4562, LevelOffset4x4Chroma_Intra
	.loc 1 385 0
	movl	-4(%rbp), %eax	# temp, tmp334
	cltq
	movzwl	Offset_intra_default_inter(%rax,%rax), %eax	# Offset_intra_default_inter, D.4563
	movswl	%ax, %edx	# D.4563, D.4562
	movl	-8(%rbp), %eax	# qp_per, tmp335
	movl	%eax, %ecx	# tmp335, tmp401
	sall	%cl, %edx	# tmp401, D.4562
	movl	-20(%rbp), %eax	# i, tmp337
	cltq
	movl	-12(%rbp), %ecx	# k, tmp339
	movslq	%ecx, %rsi	# tmp339, tmp338
	movl	-16(%rbp), %ecx	# j, tmp341
	movslq	%ecx, %rcx	# tmp341, tmp340
	salq	$2, %rsi	#, tmp342
	addq	%rsi, %rcx	# tmp342, tmp343
	salq	$2, %rcx	#, tmp344
	addq	%rcx, %rax	# tmp344, tmp345
	addq	$208, %rax	#, tmp346
	movl	%edx, LevelOffset4x4Chroma_Intra(,%rax,4)	# D.4562, LevelOffset4x4Chroma_Intra
.L56:
	.loc 1 387 0
	movl	-4(%rbp), %eax	# temp, tmp348
	cltq
	movzwl	Offset_inter_default(%rax,%rax), %eax	# Offset_inter_default, D.4563
	movswl	%ax, %edx	# D.4563, D.4562
	movl	-8(%rbp), %eax	# qp_per, tmp349
	movl	%eax, %ecx	# tmp349, tmp402
	sall	%cl, %edx	# tmp402, D.4562
	movl	-20(%rbp), %eax	# i, tmp351
	cltq
	movl	-12(%rbp), %ecx	# k, tmp353
	movslq	%ecx, %rsi	# tmp353, tmp352
	movl	-16(%rbp), %ecx	# j, tmp355
	movslq	%ecx, %rcx	# tmp355, tmp354
	salq	$2, %rsi	#, tmp356
	addq	%rsi, %rcx	# tmp356, tmp357
	salq	$2, %rcx	#, tmp358
	addq	%rcx, %rax	# tmp358, tmp359
	movl	%edx, LevelOffset4x4Luma_Inter(,%rax,4)	# D.4562, LevelOffset4x4Luma_Inter
	.loc 1 388 0
	movl	-4(%rbp), %eax	# temp, tmp361
	cltq
	movzwl	Offset_inter_default(%rax,%rax), %eax	# Offset_inter_default, D.4563
	movswl	%ax, %edx	# D.4563, D.4562
	movl	-8(%rbp), %eax	# qp_per, tmp362
	movl	%eax, %ecx	# tmp362, tmp403
	sall	%cl, %edx	# tmp403, D.4562
	movl	-20(%rbp), %eax	# i, tmp364
	cltq
	movl	-12(%rbp), %ecx	# k, tmp366
	movslq	%ecx, %rsi	# tmp366, tmp365
	movl	-16(%rbp), %ecx	# j, tmp368
	movslq	%ecx, %rcx	# tmp368, tmp367
	salq	$2, %rsi	#, tmp369
	addq	%rsi, %rcx	# tmp369, tmp370
	salq	$2, %rcx	#, tmp371
	addq	%rcx, %rax	# tmp371, tmp372
	movl	%edx, LevelOffset4x4Chroma_Inter(,%rax,4)	# D.4562, LevelOffset4x4Chroma_Inter
	.loc 1 389 0
	movl	-4(%rbp), %eax	# temp, tmp374
	cltq
	movzwl	Offset_inter_default(%rax,%rax), %eax	# Offset_inter_default, D.4563
	movswl	%ax, %edx	# D.4563, D.4562
	movl	-8(%rbp), %eax	# qp_per, tmp375
	movl	%eax, %ecx	# tmp375, tmp404
	sall	%cl, %edx	# tmp404, D.4562
	movl	-20(%rbp), %eax	# i, tmp377
	cltq
	movl	-12(%rbp), %ecx	# k, tmp379
	movslq	%ecx, %rsi	# tmp379, tmp378
	movl	-16(%rbp), %ecx	# j, tmp381
	movslq	%ecx, %rcx	# tmp381, tmp380
	salq	$2, %rsi	#, tmp382
	addq	%rsi, %rcx	# tmp382, tmp383
	salq	$2, %rcx	#, tmp384
	addq	%rcx, %rax	# tmp384, tmp385
	addq	$208, %rax	#, tmp386
	movl	%edx, LevelOffset4x4Chroma_Inter(,%rax,4)	# D.4562, LevelOffset4x4Chroma_Inter
	.loc 1 372 0
	addl	$1, -20(%rbp)	#, i
.L54:
	.loc 1 372 0 is_stmt 0 discriminator 1
	cmpl	$3, -20(%rbp)	#, i
	jle	.L57	#,
	.loc 1 370 0 is_stmt 1
	addl	$1, -16(%rbp)	#, j
.L53:
	.loc 1 370 0 is_stmt 0 discriminator 1
	cmpl	$3, -16(%rbp)	#, j
	jle	.L58	#,
	.loc 1 367 0 is_stmt 1
	addl	$1, -12(%rbp)	#, k
.L52:
	.loc 1 367 0 is_stmt 0 discriminator 1
	cmpl	$12, -12(%rbp)	#, k
	jle	.L59	#,
.L41:
	.loc 1 394 0 is_stmt 1
	popq	%rbp	#
	.cfi_def_cfa 7, 8
	ret
	.cfi_endproc
.LFE5:
	.size	CalculateOffsetParam, .-CalculateOffsetParam
	.globl	CalculateOffset8Param
	.type	CalculateOffset8Param, @function
CalculateOffset8Param:
.LFB6:
	.loc 1 404 0
	.cfi_startproc
	pushq	%rbp	#
	.cfi_def_cfa_offset 16
	.cfi_offset 6, -16
	movq	%rsp, %rbp	#,
	.cfi_def_cfa_register 6
	.loc 1 409 0
	movq	input(%rip), %rax	# input, input.14
	movl	3584(%rax), %eax	# input.14_7->OffsetMatrixPresentFlag, D.4564
	testl	%eax, %eax	# D.4564
	je	.L61	#,
	.loc 1 411 0
	movl	$0, -12(%rbp)	#, k
	jmp	.L62	#
.L69:
	.loc 1 413 0
	movl	-12(%rbp), %eax	# k, tmp88
	addl	$6, %eax	#, tmp87
	movl	%eax, -8(%rbp)	# tmp87, q_bits
	.loc 1 414 0
	movl	$0, -16(%rbp)	#, j
	jmp	.L63	#
.L68:
	.loc 1 416 0
	movl	$0, -20(%rbp)	#, i
	jmp	.L64	#
.L67:
	.loc 1 418 0
	movl	-20(%rbp), %eax	# i, tmp89
	leal	0(,%rax,8), %edx	#, D.4564
	movl	-16(%rbp), %eax	# j, tmp93
	addl	%edx, %eax	# D.4564, tmp92
	movl	%eax, -4(%rbp)	# tmp92, temp
	.loc 1 419 0
	movq	img(%rip), %rax	# img, img.15
	movl	24(%rax), %eax	# img.15_15->type, D.4564
	cmpl	$2, %eax	#, D.4564
	jne	.L65	#,
	.loc 1 420 0
	movl	-4(%rbp), %eax	# temp, tmp95
	cltq
	movzwl	OffsetList8x8input(%rax,%rax), %eax	# OffsetList8x8input, D.4565
	movswl	%ax, %edx	# D.4565, D.4564
	movl	-8(%rbp), %eax	# q_bits, tmp96
	movl	%eax, %ecx	# tmp96, tmp183
	sall	%cl, %edx	# tmp183, D.4564
	movl	-20(%rbp), %eax	# i, tmp98
	cltq
	movl	-12(%rbp), %ecx	# k, tmp100
	movslq	%ecx, %rsi	# tmp100, tmp99
	movl	-16(%rbp), %ecx	# j, tmp102
	movslq	%ecx, %rcx	# tmp102, tmp101
	salq	$3, %rsi	#, tmp103
	addq	%rsi, %rcx	# tmp103, tmp104
	salq	$3, %rcx	#, tmp105
	addq	%rcx, %rax	# tmp105, tmp106
	movl	%edx, LevelOffset8x8Luma_Intra(,%rax,4)	# D.4564, LevelOffset8x8Luma_Intra
	jmp	.L66	#
.L65:
	.loc 1 422 0
	movl	-4(%rbp), %eax	# temp, tmp108
	cltq
	addq	$64, %rax	#, tmp109
	movzwl	OffsetList8x8input(%rax,%rax), %eax	# OffsetList8x8input, D.4565
	movswl	%ax, %edx	# D.4565, D.4564
	movl	-8(%rbp), %eax	# q_bits, tmp110
	movl	%eax, %ecx	# tmp110, tmp184
	sall	%cl, %edx	# tmp184, D.4564
	movl	-20(%rbp), %eax	# i, tmp112
	cltq
	movl	-12(%rbp), %ecx	# k, tmp114
	movslq	%ecx, %rsi	# tmp114, tmp113
	movl	-16(%rbp), %ecx	# j, tmp116
	movslq	%ecx, %rcx	# tmp116, tmp115
	salq	$3, %rsi	#, tmp117
	addq	%rsi, %rcx	# tmp117, tmp118
	salq	$3, %rcx	#, tmp119
	addq	%rcx, %rax	# tmp119, tmp120
	movl	%edx, LevelOffset8x8Luma_Intra(,%rax,4)	# D.4564, LevelOffset8x8Luma_Intra
.L66:
	.loc 1 424 0
	movl	-4(%rbp), %eax	# temp, tmp122
	cltq
	subq	$-128, %rax	#, tmp123
	movzwl	OffsetList8x8input(%rax,%rax), %eax	# OffsetList8x8input, D.4565
	movswl	%ax, %edx	# D.4565, D.4564
	movl	-8(%rbp), %eax	# q_bits, tmp124
	movl	%eax, %ecx	# tmp124, tmp185
	sall	%cl, %edx	# tmp185, D.4564
	movl	-20(%rbp), %eax	# i, tmp126
	cltq
	movl	-12(%rbp), %ecx	# k, tmp128
	movslq	%ecx, %rsi	# tmp128, tmp127
	movl	-16(%rbp), %ecx	# j, tmp130
	movslq	%ecx, %rcx	# tmp130, tmp129
	salq	$3, %rsi	#, tmp131
	addq	%rsi, %rcx	# tmp131, tmp132
	salq	$3, %rcx	#, tmp133
	addq	%rcx, %rax	# tmp133, tmp134
	movl	%edx, LevelOffset8x8Luma_Inter(,%rax,4)	# D.4564, LevelOffset8x8Luma_Inter
	.loc 1 416 0
	addl	$1, -20(%rbp)	#, i
.L64:
	.loc 1 416 0 is_stmt 0 discriminator 1
	cmpl	$7, -20(%rbp)	#, i
	jle	.L67	#,
	.loc 1 414 0 is_stmt 1
	addl	$1, -16(%rbp)	#, j
.L63:
	.loc 1 414 0 is_stmt 0 discriminator 1
	cmpl	$7, -16(%rbp)	#, j
	jle	.L68	#,
	.loc 1 411 0 is_stmt 1
	addl	$1, -12(%rbp)	#, k
.L62:
	.loc 1 411 0 is_stmt 0 discriminator 1
	cmpl	$12, -12(%rbp)	#, k
	jle	.L69	#,
	jmp	.L60	#
.L61:
	.loc 1 431 0 is_stmt 1
	movl	$0, -12(%rbp)	#, k
	jmp	.L71	#
.L78:
	.loc 1 433 0
	movl	-12(%rbp), %eax	# k, tmp138
	addl	$6, %eax	#, tmp137
	movl	%eax, -8(%rbp)	# tmp137, q_bits
	.loc 1 434 0
	movl	$0, -16(%rbp)	#, j
	jmp	.L72	#
.L77:
	.loc 1 436 0
	movl	$0, -20(%rbp)	#, i
	jmp	.L73	#
.L76:
	.loc 1 438 0
	movl	-20(%rbp), %eax	# i, tmp139
	leal	0(,%rax,8), %edx	#, D.4564
	movl	-16(%rbp), %eax	# j, tmp143
	addl	%edx, %eax	# D.4564, tmp142
	movl	%eax, -4(%rbp)	# tmp142, temp
	.loc 1 439 0
	movq	img(%rip), %rax	# img, img.16
	movl	24(%rax), %eax	# img.16_35->type, D.4564
	cmpl	$2, %eax	#, D.4564
	jne	.L74	#,
	.loc 1 440 0
	movl	-4(%rbp), %eax	# temp, tmp145
	cltq
	movzwl	Offset8_intra_default_intra(%rax,%rax), %eax	# Offset8_intra_default_intra, D.4565
	movswl	%ax, %edx	# D.4565, D.4564
	movl	-8(%rbp), %eax	# q_bits, tmp146
	movl	%eax, %ecx	# tmp146, tmp186
	sall	%cl, %edx	# tmp186, D.4564
	movl	-20(%rbp), %eax	# i, tmp148
	cltq
	movl	-12(%rbp), %ecx	# k, tmp150
	movslq	%ecx, %rsi	# tmp150, tmp149
	movl	-16(%rbp), %ecx	# j, tmp152
	movslq	%ecx, %rcx	# tmp152, tmp151
	salq	$3, %rsi	#, tmp153
	addq	%rsi, %rcx	# tmp153, tmp154
	salq	$3, %rcx	#, tmp155
	addq	%rcx, %rax	# tmp155, tmp156
	movl	%edx, LevelOffset8x8Luma_Intra(,%rax,4)	# D.4564, LevelOffset8x8Luma_Intra
	jmp	.L75	#
.L74:
	.loc 1 442 0
	movl	-4(%rbp), %eax	# temp, tmp158
	cltq
	movzwl	Offset8_intra_default_inter(%rax,%rax), %eax	# Offset8_intra_default_inter, D.4565
	movswl	%ax, %edx	# D.4565, D.4564
	movl	-8(%rbp), %eax	# q_bits, tmp159
	movl	%eax, %ecx	# tmp159, tmp187
	sall	%cl, %edx	# tmp187, D.4564
	movl	-20(%rbp), %eax	# i, tmp161
	cltq
	movl	-12(%rbp), %ecx	# k, tmp163
	movslq	%ecx, %rsi	# tmp163, tmp162
	movl	-16(%rbp), %ecx	# j, tmp165
	movslq	%ecx, %rcx	# tmp165, tmp164
	salq	$3, %rsi	#, tmp166
	addq	%rsi, %rcx	# tmp166, tmp167
	salq	$3, %rcx	#, tmp168
	addq	%rcx, %rax	# tmp168, tmp169
	movl	%edx, LevelOffset8x8Luma_Intra(,%rax,4)	# D.4564, LevelOffset8x8Luma_Intra
.L75:
	.loc 1 443 0
	movl	-4(%rbp), %eax	# temp, tmp171
	cltq
	movzwl	Offset8_inter_default(%rax,%rax), %eax	# Offset8_inter_default, D.4565
	movswl	%ax, %edx	# D.4565, D.4564
	movl	-8(%rbp), %eax	# q_bits, tmp172
	movl	%eax, %ecx	# tmp172, tmp188
	sall	%cl, %edx	# tmp188, D.4564
	movl	-20(%rbp), %eax	# i, tmp174
	cltq
	movl	-12(%rbp), %ecx	# k, tmp176
	movslq	%ecx, %rsi	# tmp176, tmp175
	movl	-16(%rbp), %ecx	# j, tmp178
	movslq	%ecx, %rcx	# tmp178, tmp177
	salq	$3, %rsi	#, tmp179
	addq	%rsi, %rcx	# tmp179, tmp180
	salq	$3, %rcx	#, tmp181
	addq	%rcx, %rax	# tmp181, tmp182
	movl	%edx, LevelOffset8x8Luma_Inter(,%rax,4)	# D.4564, LevelOffset8x8Luma_Inter
	.loc 1 436 0
	addl	$1, -20(%rbp)	#, i
.L73:
	.loc 1 436 0 is_stmt 0 discriminator 1
	cmpl	$7, -20(%rbp)	#, i
	jle	.L76	#,
	.loc 1 434 0 is_stmt 1
	addl	$1, -16(%rbp)	#, j
.L72:
	.loc 1 434 0 is_stmt 0 discriminator 1
	cmpl	$7, -16(%rbp)	#, j
	jle	.L77	#,
	.loc 1 431 0 is_stmt 1
	addl	$1, -12(%rbp)	#, k
.L71:
	.loc 1 431 0 is_stmt 0 discriminator 1
	cmpl	$12, -12(%rbp)	#, k
	jle	.L78	#,
.L60:
	.loc 1 448 0 is_stmt 1
	popq	%rbp	#
	.cfi_def_cfa 7, 8
	ret
	.cfi_endproc
.LFE6:
	.size	CalculateOffset8Param, .-CalculateOffset8Param
.Letext0:
	.file 2 "/usr/include/x86_64-linux-gnu/sys/types.h"
	.file 3 "defines.h"
	.file 4 "parsetcommon.h"
	.file 5 "global.h"
	.section	.note.GNU-stack,"",@progbits
