	.file	"rdopt.c"
# GNU C (Ubuntu/Linaro 4.8.1-10ubuntu9) version 4.8.1 (x86_64-linux-gnu)
#	compiled by GNU C version 4.8.1, GMP version 5.1.2, MPFR version 3.1.1-p2, MPC version 1.0.1
# GGC heuristics: --param ggc-min-expand=100 --param ggc-min-heapsize=131072
# options passed:  -imultiarch x86_64-linux-gnu -D SPEC_CPU -D NDEBUG
# -D SPEC_CPU_LP64 rdopt.c -mtune=generic -march=x86-64 -g -fverbose-asm
# -fno-strict-aliasing -fstack-protector -Wformat -Wformat-security
# options enabled:  -faggressive-loop-optimizations
# -fasynchronous-unwind-tables -fauto-inc-dec -fbranch-count-reg -fcommon
# -fdelete-null-pointer-checks -fdwarf2-cfi-asm -fearly-inlining
# -feliminate-unused-debug-types -ffunction-cse -fgcse-lm -fgnu-runtime
# -fident -finline-atomics -fira-hoist-pressure -fira-share-save-slots
# -fira-share-spill-slots -fivopts -fkeep-static-consts
# -fleading-underscore -fmath-errno -fmerge-debug-strings
# -fmove-loop-invariants -fpeephole -fprefetch-loop-arrays
# -freg-struct-return -fsched-critical-path-heuristic
# -fsched-dep-count-heuristic -fsched-group-heuristic -fsched-interblock
# -fsched-last-insn-heuristic -fsched-rank-heuristic -fsched-spec
# -fsched-spec-insn-heuristic -fsched-stalled-insns-dep -fshow-column
# -fsigned-zeros -fsplit-ivs-in-unroller -fstack-protector
# -fstrict-volatile-bitfields -fsync-libcalls -ftrapping-math
# -ftree-coalesce-vars -ftree-cselim -ftree-forwprop -ftree-loop-if-convert
# -ftree-loop-im -ftree-loop-ivcanon -ftree-loop-optimize
# -ftree-parallelize-loops= -ftree-phiprop -ftree-pta -ftree-reassoc
# -ftree-scev-cprop -ftree-slp-vectorize -ftree-vect-loop-version
# -funit-at-a-time -funwind-tables -fverbose-asm -fzero-initialized-in-bss
# -m128bit-long-double -m64 -m80387 -maccumulate-outgoing-args
# -malign-stringops -mfancy-math-387 -mfp-ret-in-387 -mfxsr -mglibc
# -mieee-fp -mlong-double-80 -mmmx -mno-sse4 -mpush-args -mred-zone -msse
# -msse2 -mtls-direct-seg-refs

	.text
.Ltext0:
	.comm	DELTA_QP,4,4
	.comm	DELTA_QP2,4,4
	.local	pred
	.comm	pred,1024,32
	.comm	best_mode,4,4
	.comm	rec_mbY,512,32
	.comm	rec_mbU,512,32
	.comm	rec_mbV,512,32
	.comm	rec_mbY8x8,512,32
	.comm	mpr8x8,512,32
	.globl	cofAC
	.bss
	.align 8
	.type	cofAC, @object
	.size	cofAC, 8
cofAC:
	.zero	8
	.globl	cofAC8x8
	.align 8
	.type	cofAC8x8, @object
	.size	cofAC8x8, 8
cofAC8x8:
	.zero	8
	.globl	cofDC
	.align 8
	.type	cofDC, @object
	.size	cofDC, 8
cofDC:
	.zero	8
	.globl	cofAC4x4
	.align 8
	.type	cofAC4x4, @object
	.size	cofAC4x4, 8
cofAC4x4:
	.zero	8
	.globl	cofAC4x4intern
	.align 8
	.type	cofAC4x4intern, @object
	.size	cofAC4x4intern, 8
cofAC4x4intern:
	.zero	8
	.comm	cbp,4,4
	.comm	cbp8x8,4,4
	.comm	cnt_nonz_8x8,4,4
	.comm	cbp_blk,8,8
	.comm	cbp_blk8x8,4,4
	.comm	frefframe,32,32
	.comm	brefframe,32,32
	.comm	b8mode,8,2
	.comm	b8pdir,8,2
	.comm	best8x8mode,8,2
	.comm	best8x8pdir,120,32
	.comm	best8x8fwref,120,32
	.comm	best8x8bwref,120,32
	.comm	bi_pred_me,4,4
	.globl	cs_mb
	.align 8
	.type	cs_mb, @object
	.size	cs_mb, 8
cs_mb:
	.zero	8
	.globl	cs_b8
	.align 8
	.type	cs_b8, @object
	.size	cs_b8, 8
cs_b8:
	.zero	8
	.globl	cs_cm
	.align 8
	.type	cs_cm, @object
	.size	cs_cm, 8
cs_cm:
	.zero	8
	.globl	cs_imb
	.align 8
	.type	cs_imb, @object
	.size	cs_imb, 8
cs_imb:
	.zero	8
	.globl	cs_ib8
	.align 8
	.type	cs_ib8, @object
	.size	cs_ib8, 8
cs_ib8:
	.zero	8
	.globl	cs_ib4
	.align 8
	.type	cs_ib4, @object
	.size	cs_ib4, 8
cs_ib4:
	.zero	8
	.globl	cs_pc
	.align 8
	.type	cs_pc, @object
	.size	cs_pc, 8
cs_pc:
	.zero	8
	.comm	best_c_imode,4,4
	.comm	best_i16offset,4,4
	.comm	temp_imgY,512,32
	.comm	temp_imgU,512,32
	.comm	temp_imgV,512,32
	.comm	best_transform_size,16,16
	.comm	luma_transform_size_8x8_flag,4,4
	.comm	NoMbPartLessThan8x8Flag,4,4
	.comm	part8x8pdir,8,2
	.comm	part8x8fwref,8,2
	.comm	part8x8bwref,8,2
	.comm	mv8x8,128,32
	.comm	ref8x8,64,32
	.comm	all_mv8x8,256,32
	.comm	pred_mv8x8,256,32
	.globl	cofAC_8x8ts
	.align 8
	.type	cofAC_8x8ts, @object
	.size	cofAC_8x8ts, 8
cofAC_8x8ts:
	.zero	8
	.comm	rec_mbY_8x8ts,512,32
	.comm	mpr_8x8ts,512,32
	.comm	cbp_blk8_8x8ts,8,8
	.comm	cbp8_8x8ts,4,4
	.comm	cost8_8x8ts,4,4
	.comm	cnt_nonz8_8x8ts,4,4
	.comm	part8x8mode,16,16
	.comm	cofAC4x4_chroma,288,32
	.comm	rec_resG_8x8,1024,32
	.comm	resTrans_R_8x8,1024,32
	.comm	resTrans_B_8x8,1024,32
	.comm	rec_resG_8x8ts,1024,32
	.comm	resTrans_R_8x8ts,1024,32
	.comm	resTrans_B_8x8ts,1024,32
	.comm	mprRGB_8x8,3072,32
	.comm	mprRGB_8x8ts,3072,32
	.comm	b4_ipredmode,64,32
	.comm	b4_intra_pred_modes,64,32
	.text
	.globl	clear_rdopt
	.type	clear_rdopt, @function
clear_rdopt:
.LFB2:
	.file 1 "rdopt.c"
	.loc 1 125 0
	.cfi_startproc
	pushq	%rbp	#
	.cfi_def_cfa_offset 16
	.cfi_offset 6, -16
	movq	%rsp, %rbp	#,
	.cfi_def_cfa_register 6
	.loc 1 126 0
	movq	cofDC(%rip), %rax	# cofDC, cofDC.0
	movq	%rax, %rdi	# cofDC.0,
	call	free_mem_DCcoeff	#
	.loc 1 127 0
	movq	cofAC(%rip), %rax	# cofAC, cofAC.1
	movq	%rax, %rdi	# cofAC.1,
	call	free_mem_ACcoeff	#
	.loc 1 128 0
	movq	cofAC8x8(%rip), %rax	# cofAC8x8, cofAC8x8.2
	movq	%rax, %rdi	# cofAC8x8.2,
	call	free_mem_ACcoeff	#
	.loc 1 129 0
	movq	cofAC4x4intern(%rip), %rax	# cofAC4x4intern, cofAC4x4intern.3
	movq	%rax, %rdi	# cofAC4x4intern.3,
	call	free_mem_ACcoeff	#
	.loc 1 131 0
	movq	input(%rip), %rax	# input, input.4
	movl	3220(%rax), %eax	# input.4_5->AllowTransform8x8, D.21033
	testl	%eax, %eax	# D.21033
	je	.L2	#,
	.loc 1 133 0
	movq	cofAC_8x8ts(%rip), %rax	# cofAC_8x8ts, cofAC_8x8ts.5
	movq	%rax, %rdi	# cofAC_8x8ts.5,
	call	free_mem_ACcoeff	#
.L2:
	.loc 1 137 0
	movq	cs_mb(%rip), %rax	# cs_mb, cs_mb.6
	movq	%rax, %rdi	# cs_mb.6,
	call	delete_coding_state	#
	.loc 1 138 0
	movq	cs_b8(%rip), %rax	# cs_b8, cs_b8.7
	movq	%rax, %rdi	# cs_b8.7,
	call	delete_coding_state	#
	.loc 1 139 0
	movq	cs_cm(%rip), %rax	# cs_cm, cs_cm.8
	movq	%rax, %rdi	# cs_cm.8,
	call	delete_coding_state	#
	.loc 1 140 0
	movq	cs_imb(%rip), %rax	# cs_imb, cs_imb.9
	movq	%rax, %rdi	# cs_imb.9,
	call	delete_coding_state	#
	.loc 1 141 0
	movq	cs_ib8(%rip), %rax	# cs_ib8, cs_ib8.10
	movq	%rax, %rdi	# cs_ib8.10,
	call	delete_coding_state	#
	.loc 1 142 0
	movq	cs_ib4(%rip), %rax	# cs_ib4, cs_ib4.11
	movq	%rax, %rdi	# cs_ib4.11,
	call	delete_coding_state	#
	.loc 1 143 0
	movq	cs_pc(%rip), %rax	# cs_pc, cs_pc.12
	movq	%rax, %rdi	# cs_pc.12,
	call	delete_coding_state	#
	.loc 1 144 0
	popq	%rbp	#
	.cfi_def_cfa 7, 8
	ret
	.cfi_endproc
.LFE2:
	.size	clear_rdopt, .-clear_rdopt
	.globl	init_rdopt
	.type	init_rdopt, @function
init_rdopt:
.LFB3:
	.loc 1 154 0
	.cfi_startproc
	pushq	%rbp	#
	.cfi_def_cfa_offset 16
	.cfi_offset 6, -16
	movq	%rsp, %rbp	#,
	.cfi_def_cfa_register 6
	.loc 1 155 0
	movq	$0, rdopt(%rip)	#, rdopt
	.loc 1 157 0
	movl	$cofDC, %edi	#,
	call	get_mem_DCcoeff	#
	.loc 1 158 0
	movl	$cofAC, %edi	#,
	call	get_mem_ACcoeff	#
	.loc 1 159 0
	movl	$cofAC8x8, %edi	#,
	call	get_mem_ACcoeff	#
	.loc 1 160 0
	movl	$cofAC4x4intern, %edi	#,
	call	get_mem_ACcoeff	#
	.loc 1 161 0
	movq	cofAC4x4intern(%rip), %rax	# cofAC4x4intern, cofAC4x4intern.13
	movq	(%rax), %rax	# *cofAC4x4intern.13_1, D.21034
	movq	(%rax), %rax	# *_2, cofAC4x4.14
	movq	%rax, cofAC4x4(%rip)	# cofAC4x4.14, cofAC4x4
	.loc 1 163 0
	movq	input(%rip), %rax	# input, input.15
	movl	3220(%rax), %eax	# input.15_4->AllowTransform8x8, D.21035
	testl	%eax, %eax	# D.21035
	je	.L4	#,
	.loc 1 165 0
	movl	$cofAC_8x8ts, %edi	#,
	call	get_mem_ACcoeff	#
.L4:
	.loc 1 169 0
	movl	$0, %eax	#,
	call	create_coding_state	#
	movq	%rax, cs_mb(%rip)	# cs_mb.16, cs_mb
	.loc 1 170 0
	movl	$0, %eax	#,
	call	create_coding_state	#
	movq	%rax, cs_b8(%rip)	# cs_b8.17, cs_b8
	.loc 1 171 0
	movl	$0, %eax	#,
	call	create_coding_state	#
	movq	%rax, cs_cm(%rip)	# cs_cm.18, cs_cm
	.loc 1 172 0
	movl	$0, %eax	#,
	call	create_coding_state	#
	movq	%rax, cs_imb(%rip)	# cs_imb.19, cs_imb
	.loc 1 173 0
	movl	$0, %eax	#,
	call	create_coding_state	#
	movq	%rax, cs_ib8(%rip)	# cs_ib8.20, cs_ib8
	.loc 1 174 0
	movl	$0, %eax	#,
	call	create_coding_state	#
	movq	%rax, cs_ib4(%rip)	# cs_ib4.21, cs_ib4
	.loc 1 175 0
	movl	$0, %eax	#,
	call	create_coding_state	#
	movq	%rax, cs_pc(%rip)	# cs_pc.22, cs_pc
	.loc 1 176 0
	popq	%rbp	#
	.cfi_def_cfa 7, 8
	ret
	.cfi_endproc
.LFE3:
	.size	init_rdopt, .-init_rdopt
	.globl	UpdatePixelMap
	.type	UpdatePixelMap, @function
UpdatePixelMap:
.LFB4:
	.loc 1 192 0
	.cfi_startproc
	pushq	%rbp	#
	.cfi_def_cfa_offset 16
	.cfi_offset 6, -16
	movq	%rsp, %rbp	#,
	.cfi_def_cfa_register 6
	.loc 1 194 0
	movq	img(%rip), %rax	# img, img.23
	movl	24(%rax), %eax	# img.23_9->type, D.21036
	cmpl	$2, %eax	#, D.21036
	jne	.L6	#,
	.loc 1 196 0
	movl	$0, -16(%rbp)	#, y
	jmp	.L7	#
.L10:
	.loc 1 197 0
	movl	$0, -12(%rbp)	#, x
	jmp	.L8	#
.L9:
	.loc 1 199 0 discriminator 2
	movq	pixel_map(%rip), %rax	# pixel_map, pixel_map.24
	movl	-16(%rbp), %edx	# y, tmp117
	movslq	%edx, %rdx	# tmp117, D.21037
	salq	$3, %rdx	#, D.21037
	addq	%rdx, %rax	# D.21037, D.21038
	movq	(%rax), %rdx	# *_20, D.21039
	movl	-12(%rbp), %eax	# x, tmp118
	cltq
	addq	%rdx, %rax	# D.21039, D.21039
	movb	$1, (%rax)	#, *_23
	.loc 1 197 0 discriminator 2
	addl	$1, -12(%rbp)	#, x
.L8:
	.loc 1 197 0 is_stmt 0 discriminator 1
	movq	img(%rip), %rax	# img, img.25
	movl	52(%rax), %eax	# img.25_15->width, D.21036
	cmpl	-12(%rbp), %eax	# x, D.21036
	jg	.L9	#,
	.loc 1 196 0 is_stmt 1
	addl	$1, -16(%rbp)	#, y
.L7:
	.loc 1 196 0 is_stmt 0 discriminator 1
	movq	img(%rip), %rax	# img, img.26
	movl	60(%rax), %eax	# img.26_12->height, D.21036
	cmpl	-16(%rbp), %eax	# y, D.21036
	jg	.L10	#,
	jmp	.L5	#
.L6:
	.loc 1 204 0 is_stmt 1
	movl	$0, -20(%rbp)	#, my
	jmp	.L12	#
.L25:
	.loc 1 205 0
	movl	$0, -24(%rbp)	#, mx
	jmp	.L13	#
.L24:
	.loc 1 207 0
	movl	-20(%rbp), %eax	# my, tmp119
	addl	$1, %eax	#, D.21036
	sall	$3, %eax	#, tmp120
	movl	%eax, -8(%rbp)	# tmp120, j
	.loc 1 208 0
	movl	-24(%rbp), %eax	# mx, tmp121
	addl	$1, %eax	#, D.21036
	sall	$3, %eax	#, tmp122
	movl	%eax, -4(%rbp)	# tmp122, i
	.loc 1 209 0
	movq	refresh_map(%rip), %rax	# refresh_map, refresh_map.27
	movl	-20(%rbp), %edx	# my, tmp123
	movslq	%edx, %rdx	# tmp123, D.21037
	salq	$3, %rdx	#, D.21037
	addq	%rdx, %rax	# D.21037, D.21038
	movq	(%rax), %rdx	# *_41, D.21039
	movl	-24(%rbp), %eax	# mx, tmp124
	cltq
	addq	%rdx, %rax	# D.21039, D.21039
	movzbl	(%rax), %eax	# *_44, D.21041
	testb	%al, %al	# D.21041
	je	.L14	#,
	.loc 1 211 0
	movl	-20(%rbp), %eax	# my, tmp128
	sall	$3, %eax	#, tmp127
	movl	%eax, -16(%rbp)	# tmp127, y
	jmp	.L15	#
.L18:
	.loc 1 212 0
	movl	-24(%rbp), %eax	# mx, tmp132
	sall	$3, %eax	#, tmp131
	movl	%eax, -12(%rbp)	# tmp131, x
	jmp	.L16	#
.L17:
	.loc 1 212 0 is_stmt 0 discriminator 2
	movq	pixel_map(%rip), %rax	# pixel_map, pixel_map.28
	movl	-16(%rbp), %edx	# y, tmp133
	movslq	%edx, %rdx	# tmp133, D.21037
	salq	$3, %rdx	#, D.21037
	addq	%rdx, %rax	# D.21037, D.21038
	movq	(%rax), %rdx	# *_51, D.21039
	movl	-12(%rbp), %eax	# x, tmp134
	cltq
	addq	%rdx, %rax	# D.21039, D.21039
	movb	$1, (%rax)	#, *_54
	addl	$1, -12(%rbp)	#, x
.L16:
	.loc 1 212 0 discriminator 1
	movl	-12(%rbp), %eax	# x, tmp135
	cmpl	-4(%rbp), %eax	# i, tmp135
	jl	.L17	#,
	.loc 1 211 0 is_stmt 1
	addl	$1, -16(%rbp)	#, y
.L15:
	.loc 1 211 0 is_stmt 0 discriminator 1
	movl	-16(%rbp), %eax	# y, tmp136
	cmpl	-8(%rbp), %eax	# j, tmp136
	jl	.L18	#,
	jmp	.L19	#
.L14:
	.loc 1 216 0 is_stmt 1
	movl	-20(%rbp), %eax	# my, tmp140
	sall	$3, %eax	#, tmp139
	movl	%eax, -16(%rbp)	# tmp139, y
	jmp	.L20	#
.L23:
	.loc 1 217 0
	movl	-24(%rbp), %eax	# mx, tmp144
	sall	$3, %eax	#, tmp143
	movl	%eax, -12(%rbp)	# tmp143, x
	jmp	.L21	#
.L22:
	.loc 1 217 0 is_stmt 0 discriminator 2
	movq	pixel_map(%rip), %rax	# pixel_map, pixel_map.29
	movl	-16(%rbp), %edx	# y, tmp145
	movslq	%edx, %rdx	# tmp145, D.21037
	salq	$3, %rdx	#, D.21037
	addq	%rdx, %rax	# D.21037, D.21038
	movq	(%rax), %rdx	# *_62, D.21039
	movl	-12(%rbp), %eax	# x, tmp146
	cltq
	leaq	(%rdx,%rax), %rcx	#, D.21039
	movq	input(%rip), %rax	# input, input.30
	movl	36(%rax), %eax	# input.30_66->num_ref_frames, D.21036
	leal	1(%rax), %edx	#, D.21036
	movq	pixel_map(%rip), %rax	# pixel_map, pixel_map.31
	movl	-16(%rbp), %esi	# y, tmp147
	movslq	%esi, %rsi	# tmp147, D.21037
	salq	$3, %rsi	#, D.21037
	addq	%rsi, %rax	# D.21037, D.21038
	movq	(%rax), %rsi	# *_72, D.21039
	movl	-12(%rbp), %eax	# x, tmp148
	cltq
	addq	%rsi, %rax	# D.21039, D.21039
	movzbl	(%rax), %eax	# *_75, D.21041
	movzbl	%al, %eax	# D.21041, D.21036
	addl	$1, %eax	#, D.21036
	cmpl	%eax, %edx	# D.21036, D.21036
	cmovle	%edx, %eax	# D.21036,, D.21036
	movb	%al, (%rcx)	# D.21041, *_65
	addl	$1, -12(%rbp)	#, x
.L21:
	.loc 1 217 0 discriminator 1
	movl	-12(%rbp), %eax	# x, tmp149
	cmpl	-4(%rbp), %eax	# i, tmp149
	jl	.L22	#,
	.loc 1 216 0 is_stmt 1
	addl	$1, -16(%rbp)	#, y
.L20:
	.loc 1 216 0 is_stmt 0 discriminator 1
	movl	-16(%rbp), %eax	# y, tmp150
	cmpl	-8(%rbp), %eax	# j, tmp150
	jl	.L23	#,
.L19:
	.loc 1 205 0 is_stmt 1
	addl	$1, -24(%rbp)	#, mx
.L13:
	.loc 1 205 0 is_stmt 0 discriminator 1
	movq	img(%rip), %rax	# img, img.32
	movl	52(%rax), %eax	# img.32_31->width, D.21036
	leal	7(%rax), %edx	#, tmp152
	testl	%eax, %eax	# tmp151
	cmovs	%edx, %eax	# tmp152,, tmp151
	sarl	$3, %eax	#, tmp153
	cmpl	-24(%rbp), %eax	# mx, D.21036
	jg	.L24	#,
	.loc 1 204 0 is_stmt 1
	addl	$1, -20(%rbp)	#, my
.L12:
	.loc 1 204 0 is_stmt 0 discriminator 1
	movq	img(%rip), %rax	# img, img.33
	movl	60(%rax), %eax	# img.33_27->height, D.21036
	leal	7(%rax), %edx	#, tmp155
	testl	%eax, %eax	# tmp154
	cmovs	%edx, %eax	# tmp155,, tmp154
	sarl	$3, %eax	#, tmp156
	cmpl	-20(%rbp), %eax	# my, D.21036
	jg	.L25	#,
.L5:
	.loc 1 221 0 is_stmt 1
	popq	%rbp	#
	.cfi_def_cfa 7, 8
	ret
	.cfi_endproc
.LFE4:
	.size	UpdatePixelMap, .-UpdatePixelMap
	.globl	CheckReliabilityOfRef
	.type	CheckReliabilityOfRef, @function
CheckReliabilityOfRef:
.LFB5:
	.loc 1 242 0
	.cfi_startproc
	pushq	%rbp	#
	.cfi_def_cfa_offset 16
	.cfi_offset 6, -16
	movq	%rsp, %rbp	#,
	.cfi_def_cfa_register 6
	movl	%edi, -84(%rbp)	# block, block
	movl	%esi, -88(%rbp)	# list_idx, list_idx
	movl	%edx, -92(%rbp)	# ref, ref
	movl	%ecx, -96(%rbp)	# mode, mode
	.loc 1 244 0
	movq	img(%rip), %rax	# img, img.34
	movl	52(%rax), %eax	# img.34_32->width, D.21042
	subl	$1, %eax	#, tmp233
	movl	%eax, -52(%rbp)	# tmp233, maxold_x
	.loc 1 245 0
	movq	img(%rip), %rax	# img, img.35
	movl	60(%rax), %eax	# img.35_35->height, D.21042
	subl	$1, %eax	#, tmp234
	movl	%eax, -48(%rbp)	# tmp234, maxold_y
	.loc 1 246 0
	movl	-92(%rbp), %eax	# ref, tmp238
	addl	$1, %eax	#, tmp237
	movl	%eax, -44(%rbp)	# tmp237, ref_frame
	.loc 1 248 0
	cmpl	$3, -96(%rbp)	#, mode
	jle	.L27	#,
	.loc 1 248 0 is_stmt 0 discriminator 1
	movl	-84(%rbp), %eax	# block, tmp239
	movl	%eax, %edx	# tmp239, tmp240
	shrl	$31, %edx	#, tmp240
	addl	%edx, %eax	# tmp240, tmp241
	sarl	%eax	# tmp242
	addl	%eax, %eax	# iftmp.36
	jmp	.L28	#
.L27:
	.loc 1 248 0 discriminator 2
	cmpl	$2, -96(%rbp)	#, mode
	jne	.L29	#,
	.loc 1 248 0 discriminator 1
	movl	-84(%rbp), %eax	# block, tmp243
	addl	%eax, %eax	# iftmp.37
	jmp	.L28	#
.L29:
	.loc 1 248 0 discriminator 2
	movl	$0, %eax	#, iftmp.37
.L28:
	.loc 1 248 0 discriminator 3
	movl	%eax, -40(%rbp)	# iftmp.36, by0
	.loc 1 249 0 is_stmt 1 discriminator 3
	cmpl	$3, -96(%rbp)	#, mode
	jg	.L31	#,
	.loc 1 249 0 is_stmt 0 discriminator 2
	cmpl	$2, -96(%rbp)	#, mode
	jne	.L32	#,
.L31:
	.loc 1 249 0 discriminator 1
	movl	$2, %eax	#, iftmp.38
	jmp	.L33	#
.L32:
	movl	$4, %eax	#, iftmp.38
.L33:
	.loc 1 249 0 discriminator 3
	movl	-40(%rbp), %edx	# by0, tmp247
	addl	%edx, %eax	# tmp247, tmp246
	movl	%eax, -36(%rbp)	# tmp246, by1
	.loc 1 250 0 is_stmt 1 discriminator 3
	cmpl	$3, -96(%rbp)	#, mode
	jle	.L34	#,
	.loc 1 250 0 is_stmt 0 discriminator 1
	movl	-84(%rbp), %eax	# block, tmp248
	cltd
	shrl	$31, %edx	#, tmp250
	addl	%edx, %eax	# tmp250, tmp251
	andl	$1, %eax	#, tmp252
	subl	%edx, %eax	# tmp250, tmp253
	addl	%eax, %eax	# iftmp.39
	jmp	.L35	#
.L34:
	.loc 1 250 0 discriminator 2
	cmpl	$3, -96(%rbp)	#, mode
	jne	.L36	#,
	.loc 1 250 0 discriminator 1
	movl	-84(%rbp), %eax	# block, tmp254
	addl	%eax, %eax	# iftmp.40
	jmp	.L35	#
.L36:
	.loc 1 250 0 discriminator 2
	movl	$0, %eax	#, iftmp.40
.L35:
	.loc 1 250 0 discriminator 3
	movl	%eax, -32(%rbp)	# iftmp.39, bx0
	.loc 1 251 0 is_stmt 1 discriminator 3
	cmpl	$3, -96(%rbp)	#, mode
	jg	.L38	#,
	.loc 1 251 0 is_stmt 0 discriminator 2
	cmpl	$3, -96(%rbp)	#, mode
	jne	.L39	#,
.L38:
	.loc 1 251 0 discriminator 1
	movl	$2, %eax	#, iftmp.41
	jmp	.L40	#
.L39:
	movl	$4, %eax	#, iftmp.41
.L40:
	.loc 1 251 0 discriminator 3
	movl	-32(%rbp), %edx	# bx0, tmp258
	addl	%edx, %eax	# tmp258, tmp257
	movl	%eax, -28(%rbp)	# tmp257, bx1
	.loc 1 253 0 is_stmt 1 discriminator 3
	movl	-40(%rbp), %eax	# by0, tmp259
	movl	%eax, -68(%rbp)	# tmp259, block_y
	jmp	.L41	#
.L102:
	.loc 1 254 0
	movl	-32(%rbp), %eax	# bx0, tmp260
	movl	%eax, -64(%rbp)	# tmp260, block_x
	jmp	.L42	#
.L101:
	.loc 1 256 0
	movq	img(%rip), %rax	# img, img.42
	movq	71928(%rax), %rax	# img.42_62->all_mv, D.21043
	movl	-64(%rbp), %edx	# block_x, tmp261
	movslq	%edx, %rdx	# tmp261, D.21044
	salq	$3, %rdx	#, D.21044
	addq	%rdx, %rax	# D.21044, D.21043
	movq	(%rax), %rax	# *_66, D.21045
	movl	-68(%rbp), %edx	# block_y, tmp262
	movslq	%edx, %rdx	# tmp262, D.21044
	salq	$3, %rdx	#, D.21044
	addq	%rdx, %rax	# D.21044, D.21045
	movq	(%rax), %rax	# *_70, D.21046
	movl	-88(%rbp), %edx	# list_idx, tmp263
	movslq	%edx, %rdx	# tmp263, D.21044
	salq	$3, %rdx	#, D.21044
	addq	%rdx, %rax	# D.21044, D.21046
	movq	(%rax), %rax	# *_75, D.21047
	movl	-92(%rbp), %edx	# ref, tmp264
	movslq	%edx, %rdx	# tmp264, D.21044
	salq	$3, %rdx	#, D.21044
	addq	%rdx, %rax	# D.21044, D.21047
	movq	(%rax), %rax	# *_79, D.21048
	movl	-96(%rbp), %edx	# mode, tmp265
	movslq	%edx, %rdx	# tmp265, D.21044
	salq	$3, %rdx	#, D.21044
	addq	%rdx, %rax	# D.21044, D.21048
	movq	(%rax), %rax	# *_83, D.21049
	addq	$2, %rax	#, D.21049
	movzwl	(%rax), %eax	# *_85, D.21050
	cwtl
	movl	%eax, -24(%rbp)	# tmp266, y_pos
	.loc 1 257 0
	movq	img(%rip), %rax	# img, img.43
	movl	148(%rax), %edx	# img.43_88->block_y, D.21042
	movl	-68(%rbp), %eax	# block_y, tmp267
	addl	%edx, %eax	# D.21042, D.21042
	sall	$4, %eax	#, D.21042
	addl	%eax, -24(%rbp)	# D.21042, y_pos
	.loc 1 258 0
	movq	img(%rip), %rax	# img, img.44
	movq	71928(%rax), %rax	# img.44_93->all_mv, D.21043
	movl	-64(%rbp), %edx	# block_x, tmp268
	movslq	%edx, %rdx	# tmp268, D.21044
	salq	$3, %rdx	#, D.21044
	addq	%rdx, %rax	# D.21044, D.21043
	movq	(%rax), %rax	# *_97, D.21045
	movl	-68(%rbp), %edx	# block_y, tmp269
	movslq	%edx, %rdx	# tmp269, D.21044
	salq	$3, %rdx	#, D.21044
	addq	%rdx, %rax	# D.21044, D.21045
	movq	(%rax), %rax	# *_101, D.21046
	movl	-88(%rbp), %edx	# list_idx, tmp270
	movslq	%edx, %rdx	# tmp270, D.21044
	salq	$3, %rdx	#, D.21044
	addq	%rdx, %rax	# D.21044, D.21046
	movq	(%rax), %rax	# *_105, D.21047
	movl	-92(%rbp), %edx	# ref, tmp271
	movslq	%edx, %rdx	# tmp271, D.21044
	salq	$3, %rdx	#, D.21044
	addq	%rdx, %rax	# D.21044, D.21047
	movq	(%rax), %rax	# *_109, D.21048
	movl	-96(%rbp), %edx	# mode, tmp272
	movslq	%edx, %rdx	# tmp272, D.21044
	salq	$3, %rdx	#, D.21044
	addq	%rdx, %rax	# D.21044, D.21048
	movq	(%rax), %rax	# *_113, D.21049
	movzwl	(%rax), %eax	# *_114, D.21050
	cwtl
	movl	%eax, -20(%rbp)	# tmp273, x_pos
	.loc 1 259 0
	movq	img(%rip), %rax	# img, img.45
	movl	144(%rax), %edx	# img.45_117->block_x, D.21042
	movl	-64(%rbp), %eax	# block_x, tmp274
	addl	%edx, %eax	# D.21042, D.21042
	sall	$4, %eax	#, D.21042
	addl	%eax, -20(%rbp)	# D.21042, x_pos
	.loc 1 265 0
	movl	-24(%rbp), %eax	# y_pos, tmp278
	andl	$3, %eax	#, tmp277
	movl	%eax, -16(%rbp)	# tmp277, dy
	.loc 1 266 0
	movl	-20(%rbp), %eax	# x_pos, tmp282
	andl	$3, %eax	#, tmp281
	movl	%eax, -12(%rbp)	# tmp281, dx
	.loc 1 268 0
	movl	-16(%rbp), %eax	# dy, tmp283
	movl	-24(%rbp), %edx	# y_pos, tmp284
	subl	%eax, %edx	# tmp283, D.21042
	movl	%edx, %eax	# D.21042, D.21042
	leal	3(%rax), %edx	#, tmp286
	testl	%eax, %eax	# tmp285
	cmovs	%edx, %eax	# tmp286,, tmp285
	sarl	$2, %eax	#, tmp287
	movl	%eax, -24(%rbp)	# tmp287, y_pos
	.loc 1 269 0
	movl	-12(%rbp), %eax	# dx, tmp288
	movl	-20(%rbp), %edx	# x_pos, tmp289
	subl	%eax, %edx	# tmp288, D.21042
	movl	%edx, %eax	# D.21042, D.21042
	leal	3(%rax), %edx	#, tmp291
	testl	%eax, %eax	# tmp290
	cmovs	%edx, %eax	# tmp291,, tmp290
	sarl	$2, %eax	#, tmp292
	movl	%eax, -20(%rbp)	# tmp292, x_pos
	.loc 1 271 0
	cmpl	$0, -16(%rbp)	#, dy
	jne	.L43	#,
	.loc 1 271 0 is_stmt 0 discriminator 1
	cmpl	$0, -12(%rbp)	#, dx
	jne	.L43	#,
	.loc 1 273 0 is_stmt 1
	movl	$0, -76(%rbp)	#, y
	jmp	.L44	#
.L49:
	.loc 1 274 0
	movl	$0, -72(%rbp)	#, x
	jmp	.L45	#
.L48:
	.loc 1 275 0
	movq	pixel_map(%rip), %rcx	# pixel_map, pixel_map.46
	movl	-76(%rbp), %eax	# y, tmp293
	movl	-24(%rbp), %edx	# y_pos, tmp294
	addl	%eax, %edx	# tmp293, D.21042
	movl	-48(%rbp), %eax	# maxold_y, tmp295
	cmpl	%eax, %edx	# tmp295, D.21042
	cmovle	%edx, %eax	# D.21042,, D.21042
	movl	$0, %edx	#, tmp296
	testl	%eax, %eax	# D.21042
	cmovs	%edx, %eax	# D.21042,, tmp296, D.21042
	cltq
	salq	$3, %rax	#, D.21044
	addq	%rcx, %rax	# pixel_map.46, D.21051
	movq	(%rax), %rcx	# *_136, D.21052
	movl	-72(%rbp), %eax	# x, tmp297
	movl	-20(%rbp), %edx	# x_pos, tmp298
	addl	%eax, %edx	# tmp297, D.21042
	movl	-52(%rbp), %eax	# maxold_x, tmp299
	cmpl	%eax, %edx	# tmp299, D.21042
	cmovle	%edx, %eax	# D.21042,, D.21042
	movl	$0, %edx	#, tmp300
	testl	%eax, %eax	# D.21042
	cmovs	%edx, %eax	# D.21042,, tmp300, D.21042
	cltq
	addq	%rcx, %rax	# D.21052, D.21052
	movzbl	(%rax), %eax	# *_142, D.21054
	movzbl	%al, %eax	# D.21054, D.21042
	cmpl	-44(%rbp), %eax	# ref_frame, D.21042
	jge	.L46	#,
	.loc 1 276 0
	movl	$0, %eax	#, D.21042
	jmp	.L47	#
.L46:
	.loc 1 274 0
	addl	$1, -72(%rbp)	#, x
.L45:
	.loc 1 274 0 is_stmt 0 discriminator 1
	cmpl	$3, -72(%rbp)	#, x
	jle	.L48	#,
	.loc 1 273 0 is_stmt 1
	addl	$1, -76(%rbp)	#, y
.L44:
	.loc 1 273 0 is_stmt 0 discriminator 1
	cmpl	$3, -76(%rbp)	#, y
	jle	.L49	#,
	.loc 1 271 0 is_stmt 1
	jmp	.L50	#
.L43:
	.loc 1 280 0
	cmpl	$0, -16(%rbp)	#, dy
	jne	.L51	#,
	.loc 1 282 0
	movl	$0, -76(%rbp)	#, y
	jmp	.L52	#
.L58:
	.loc 1 283 0
	movl	$0, -72(%rbp)	#, x
	jmp	.L53	#
.L57:
	.loc 1 285 0
	movl	-76(%rbp), %eax	# y, tmp301
	movl	-24(%rbp), %edx	# y_pos, tmp302
	addl	%eax, %edx	# tmp301, D.21042
	movl	-48(%rbp), %eax	# maxold_y, tmp303
	cmpl	%eax, %edx	# tmp303, D.21042
	cmovle	%edx, %eax	# D.21042,, D.21042
	movl	$0, %edx	#, tmp305
	testl	%eax, %eax	# D.21042
	cmovs	%edx, %eax	# D.21042,, tmp305, tmp304
	movl	%eax, -8(%rbp)	# tmp304, pres_y
	.loc 1 286 0
	movl	$-2, -56(%rbp)	#, xx
	jmp	.L54	#
.L56:
	.loc 1 287 0
	movl	-72(%rbp), %eax	# x, tmp306
	movl	-20(%rbp), %edx	# x_pos, tmp307
	addl	%eax, %edx	# tmp306, D.21042
	movl	-56(%rbp), %eax	# xx, tmp308
	addl	%eax, %edx	# tmp308, D.21042
	movl	-52(%rbp), %eax	# maxold_x, tmp309
	cmpl	%eax, %edx	# tmp309, D.21042
	cmovle	%edx, %eax	# D.21042,, D.21042
	movl	$0, %edx	#, tmp311
	testl	%eax, %eax	# D.21042
	cmovs	%edx, %eax	# D.21042,, tmp311, tmp310
	movl	%eax, -4(%rbp)	# tmp310, pres_x
	.loc 1 288 0
	movq	pixel_map(%rip), %rax	# pixel_map, pixel_map.47
	movl	-8(%rbp), %edx	# pres_y, tmp312
	movslq	%edx, %rdx	# tmp312, D.21044
	salq	$3, %rdx	#, D.21044
	addq	%rdx, %rax	# D.21044, D.21051
	movq	(%rax), %rdx	# *_161, D.21052
	movl	-4(%rbp), %eax	# pres_x, tmp313
	cltq
	addq	%rdx, %rax	# D.21052, D.21052
	movzbl	(%rax), %eax	# *_164, D.21054
	movzbl	%al, %eax	# D.21054, D.21042
	cmpl	-44(%rbp), %eax	# ref_frame, D.21042
	jge	.L55	#,
	.loc 1 289 0
	movl	$0, %eax	#, D.21042
	jmp	.L47	#
.L55:
	.loc 1 286 0
	addl	$1, -56(%rbp)	#, xx
.L54:
	.loc 1 286 0 is_stmt 0 discriminator 1
	cmpl	$3, -56(%rbp)	#, xx
	jle	.L56	#,
	.loc 1 283 0 is_stmt 1
	addl	$1, -72(%rbp)	#, x
.L53:
	.loc 1 283 0 is_stmt 0 discriminator 1
	cmpl	$3, -72(%rbp)	#, x
	jle	.L57	#,
	.loc 1 282 0 is_stmt 1
	addl	$1, -76(%rbp)	#, y
.L52:
	.loc 1 282 0 is_stmt 0 discriminator 1
	cmpl	$3, -76(%rbp)	#, y
	jle	.L58	#,
	jmp	.L50	#
.L51:
	.loc 1 294 0 is_stmt 1
	cmpl	$0, -12(%rbp)	#, dx
	jne	.L59	#,
	.loc 1 296 0
	movl	$0, -76(%rbp)	#, y
	jmp	.L60	#
.L66:
	.loc 1 297 0
	movl	$0, -72(%rbp)	#, x
	jmp	.L61	#
.L65:
	.loc 1 299 0
	movl	-72(%rbp), %eax	# x, tmp314
	movl	-20(%rbp), %edx	# x_pos, tmp315
	addl	%eax, %edx	# tmp314, D.21042
	movl	-52(%rbp), %eax	# maxold_x, tmp316
	cmpl	%eax, %edx	# tmp316, D.21042
	cmovle	%edx, %eax	# D.21042,, D.21042
	movl	$0, %edx	#, tmp318
	testl	%eax, %eax	# D.21042
	cmovs	%edx, %eax	# D.21042,, tmp318, tmp317
	movl	%eax, -4(%rbp)	# tmp317, pres_x
	.loc 1 300 0
	movl	$-2, -60(%rbp)	#, yy
	jmp	.L62	#
.L64:
	.loc 1 301 0
	movl	-60(%rbp), %eax	# yy, tmp319
	movl	-24(%rbp), %edx	# y_pos, tmp320
	addl	%eax, %edx	# tmp319, D.21042
	movl	-76(%rbp), %eax	# y, tmp321
	addl	%eax, %edx	# tmp321, D.21042
	movl	-48(%rbp), %eax	# maxold_y, tmp322
	cmpl	%eax, %edx	# tmp322, D.21042
	cmovle	%edx, %eax	# D.21042,, D.21042
	movl	$0, %edx	#, tmp324
	testl	%eax, %eax	# D.21042
	cmovs	%edx, %eax	# D.21042,, tmp324, tmp323
	movl	%eax, -8(%rbp)	# tmp323, pres_y
	.loc 1 302 0
	movq	pixel_map(%rip), %rax	# pixel_map, pixel_map.48
	movl	-8(%rbp), %edx	# pres_y, tmp325
	movslq	%edx, %rdx	# tmp325, D.21044
	salq	$3, %rdx	#, D.21044
	addq	%rdx, %rax	# D.21044, D.21051
	movq	(%rax), %rdx	# *_184, D.21052
	movl	-4(%rbp), %eax	# pres_x, tmp326
	cltq
	addq	%rdx, %rax	# D.21052, D.21052
	movzbl	(%rax), %eax	# *_187, D.21054
	movzbl	%al, %eax	# D.21054, D.21042
	cmpl	-44(%rbp), %eax	# ref_frame, D.21042
	jge	.L63	#,
	.loc 1 303 0
	movl	$0, %eax	#, D.21042
	jmp	.L47	#
.L63:
	.loc 1 300 0
	addl	$1, -60(%rbp)	#, yy
.L62:
	.loc 1 300 0 is_stmt 0 discriminator 1
	cmpl	$3, -60(%rbp)	#, yy
	jle	.L64	#,
	.loc 1 297 0 is_stmt 1
	addl	$1, -72(%rbp)	#, x
.L61:
	.loc 1 297 0 is_stmt 0 discriminator 1
	cmpl	$3, -72(%rbp)	#, x
	jle	.L65	#,
	.loc 1 296 0 is_stmt 1
	addl	$1, -76(%rbp)	#, y
.L60:
	.loc 1 296 0 is_stmt 0 discriminator 1
	cmpl	$3, -76(%rbp)	#, y
	jle	.L66	#,
	jmp	.L50	#
.L59:
	.loc 1 307 0 is_stmt 1
	cmpl	$2, -12(%rbp)	#, dx
	jne	.L67	#,
	.loc 1 309 0
	movl	$0, -76(%rbp)	#, y
	jmp	.L68	#
.L76:
	.loc 1 310 0
	movl	$0, -72(%rbp)	#, x
	jmp	.L69	#
.L75:
	.loc 1 312 0
	movl	$-2, -60(%rbp)	#, yy
	jmp	.L70	#
.L74:
	.loc 1 313 0
	movl	-60(%rbp), %eax	# yy, tmp327
	movl	-24(%rbp), %edx	# y_pos, tmp328
	addl	%eax, %edx	# tmp327, D.21042
	movl	-76(%rbp), %eax	# y, tmp329
	addl	%eax, %edx	# tmp329, D.21042
	movl	-48(%rbp), %eax	# maxold_y, tmp330
	cmpl	%eax, %edx	# tmp330, D.21042
	cmovle	%edx, %eax	# D.21042,, D.21042
	movl	$0, %edx	#, tmp332
	testl	%eax, %eax	# D.21042
	cmovs	%edx, %eax	# D.21042,, tmp332, tmp331
	movl	%eax, -8(%rbp)	# tmp331, pres_y
	.loc 1 314 0
	movl	$-2, -56(%rbp)	#, xx
	jmp	.L71	#
.L73:
	.loc 1 315 0
	movl	-56(%rbp), %eax	# xx, tmp333
	movl	-20(%rbp), %edx	# x_pos, tmp334
	addl	%eax, %edx	# tmp333, D.21042
	movl	-72(%rbp), %eax	# x, tmp335
	addl	%eax, %edx	# tmp335, D.21042
	movl	-52(%rbp), %eax	# maxold_x, tmp336
	cmpl	%eax, %edx	# tmp336, D.21042
	cmovle	%edx, %eax	# D.21042,, D.21042
	movl	$0, %edx	#, tmp338
	testl	%eax, %eax	# D.21042
	cmovs	%edx, %eax	# D.21042,, tmp338, tmp337
	movl	%eax, -4(%rbp)	# tmp337, pres_x
	.loc 1 316 0
	movq	pixel_map(%rip), %rax	# pixel_map, pixel_map.49
	movl	-8(%rbp), %edx	# pres_y, tmp339
	movslq	%edx, %rdx	# tmp339, D.21044
	salq	$3, %rdx	#, D.21044
	addq	%rdx, %rax	# D.21044, D.21051
	movq	(%rax), %rdx	# *_209, D.21052
	movl	-4(%rbp), %eax	# pres_x, tmp340
	cltq
	addq	%rdx, %rax	# D.21052, D.21052
	movzbl	(%rax), %eax	# *_212, D.21054
	movzbl	%al, %eax	# D.21054, D.21042
	cmpl	-44(%rbp), %eax	# ref_frame, D.21042
	jge	.L72	#,
	.loc 1 317 0
	movl	$0, %eax	#, D.21042
	jmp	.L47	#
.L72:
	.loc 1 314 0
	addl	$1, -56(%rbp)	#, xx
.L71:
	.loc 1 314 0 is_stmt 0 discriminator 1
	cmpl	$3, -56(%rbp)	#, xx
	jle	.L73	#,
	.loc 1 312 0 is_stmt 1
	addl	$1, -60(%rbp)	#, yy
.L70:
	.loc 1 312 0 is_stmt 0 discriminator 1
	cmpl	$3, -60(%rbp)	#, yy
	jle	.L74	#,
	.loc 1 310 0 is_stmt 1
	addl	$1, -72(%rbp)	#, x
.L69:
	.loc 1 310 0 is_stmt 0 discriminator 1
	cmpl	$3, -72(%rbp)	#, x
	jle	.L75	#,
	.loc 1 309 0 is_stmt 1
	addl	$1, -76(%rbp)	#, y
.L68:
	.loc 1 309 0 is_stmt 0 discriminator 1
	cmpl	$3, -76(%rbp)	#, y
	jle	.L76	#,
	jmp	.L50	#
.L67:
	.loc 1 322 0 is_stmt 1
	cmpl	$2, -16(%rbp)	#, dy
	jne	.L77	#,
	.loc 1 324 0
	movl	$0, -76(%rbp)	#, y
	jmp	.L78	#
.L86:
	.loc 1 325 0
	movl	$0, -72(%rbp)	#, x
	jmp	.L79	#
.L85:
	.loc 1 327 0
	movl	$-2, -56(%rbp)	#, xx
	jmp	.L80	#
.L84:
	.loc 1 328 0
	movl	-56(%rbp), %eax	# xx, tmp341
	movl	-20(%rbp), %edx	# x_pos, tmp342
	addl	%eax, %edx	# tmp341, D.21042
	movl	-72(%rbp), %eax	# x, tmp343
	addl	%eax, %edx	# tmp343, D.21042
	movl	-52(%rbp), %eax	# maxold_x, tmp344
	cmpl	%eax, %edx	# tmp344, D.21042
	cmovle	%edx, %eax	# D.21042,, D.21042
	movl	$0, %edx	#, tmp346
	testl	%eax, %eax	# D.21042
	cmovs	%edx, %eax	# D.21042,, tmp346, tmp345
	movl	%eax, -4(%rbp)	# tmp345, pres_x
	.loc 1 329 0
	movl	$-2, -60(%rbp)	#, yy
	jmp	.L81	#
.L83:
	.loc 1 330 0
	movl	-60(%rbp), %eax	# yy, tmp347
	movl	-24(%rbp), %edx	# y_pos, tmp348
	addl	%eax, %edx	# tmp347, D.21042
	movl	-76(%rbp), %eax	# y, tmp349
	addl	%eax, %edx	# tmp349, D.21042
	movl	-48(%rbp), %eax	# maxold_y, tmp350
	cmpl	%eax, %edx	# tmp350, D.21042
	cmovle	%edx, %eax	# D.21042,, D.21042
	movl	$0, %edx	#, tmp352
	testl	%eax, %eax	# D.21042
	cmovs	%edx, %eax	# D.21042,, tmp352, tmp351
	movl	%eax, -8(%rbp)	# tmp351, pres_y
	.loc 1 331 0
	movq	pixel_map(%rip), %rax	# pixel_map, pixel_map.50
	movl	-8(%rbp), %edx	# pres_y, tmp353
	movslq	%edx, %rdx	# tmp353, D.21044
	salq	$3, %rdx	#, D.21044
	addq	%rdx, %rax	# D.21044, D.21051
	movq	(%rax), %rdx	# *_235, D.21052
	movl	-4(%rbp), %eax	# pres_x, tmp354
	cltq
	addq	%rdx, %rax	# D.21052, D.21052
	movzbl	(%rax), %eax	# *_238, D.21054
	movzbl	%al, %eax	# D.21054, D.21042
	cmpl	-44(%rbp), %eax	# ref_frame, D.21042
	jge	.L82	#,
	.loc 1 332 0
	movl	$0, %eax	#, D.21042
	jmp	.L47	#
.L82:
	.loc 1 329 0
	addl	$1, -60(%rbp)	#, yy
.L81:
	.loc 1 329 0 is_stmt 0 discriminator 1
	cmpl	$3, -60(%rbp)	#, yy
	jle	.L83	#,
	.loc 1 327 0 is_stmt 1
	addl	$1, -56(%rbp)	#, xx
.L80:
	.loc 1 327 0 is_stmt 0 discriminator 1
	cmpl	$3, -56(%rbp)	#, xx
	jle	.L84	#,
	.loc 1 325 0 is_stmt 1
	addl	$1, -72(%rbp)	#, x
.L79:
	.loc 1 325 0 is_stmt 0 discriminator 1
	cmpl	$3, -72(%rbp)	#, x
	jle	.L85	#,
	.loc 1 324 0 is_stmt 1
	addl	$1, -76(%rbp)	#, y
.L78:
	.loc 1 324 0 is_stmt 0 discriminator 1
	cmpl	$3, -76(%rbp)	#, y
	jle	.L86	#,
	jmp	.L50	#
.L77:
	.loc 1 339 0 is_stmt 1
	movl	$0, -76(%rbp)	#, y
	jmp	.L87	#
.L100:
	.loc 1 340 0
	movl	$0, -72(%rbp)	#, x
	jmp	.L88	#
.L99:
	.loc 1 342 0
	cmpl	$1, -16(%rbp)	#, dy
	jne	.L89	#,
	.loc 1 342 0 is_stmt 0 discriminator 1
	movl	-76(%rbp), %eax	# y, tmp355
	movl	-24(%rbp), %edx	# y_pos, tmp356
	addl	%edx, %eax	# tmp356, iftmp.51
	jmp	.L90	#
.L89:
	.loc 1 342 0 discriminator 2
	movl	-76(%rbp), %eax	# y, tmp357
	movl	-24(%rbp), %edx	# y_pos, tmp358
	addl	%edx, %eax	# tmp358, D.21042
	addl	$1, %eax	#, iftmp.51
.L90:
	.loc 1 342 0 discriminator 3
	movl	%eax, -8(%rbp)	# iftmp.51, pres_y
	.loc 1 343 0 is_stmt 1 discriminator 3
	movl	-48(%rbp), %eax	# maxold_y, tmp359
	cmpl	%eax, -8(%rbp)	# tmp359, pres_y
	cmovle	-8(%rbp), %eax	# pres_y,, D.21042
	movl	$0, %edx	#, tmp361
	testl	%eax, %eax	# D.21042
	cmovs	%edx, %eax	# D.21042,, tmp361, tmp360
	movl	%eax, -8(%rbp)	# tmp360, pres_y
	.loc 1 345 0 discriminator 3
	movl	$-2, -56(%rbp)	#, xx
	jmp	.L91	#
.L93:
	.loc 1 346 0
	movl	-56(%rbp), %eax	# xx, tmp362
	movl	-20(%rbp), %edx	# x_pos, tmp363
	addl	%eax, %edx	# tmp362, D.21042
	movl	-72(%rbp), %eax	# x, tmp364
	addl	%eax, %edx	# tmp364, D.21042
	movl	-52(%rbp), %eax	# maxold_x, tmp365
	cmpl	%eax, %edx	# tmp365, D.21042
	cmovle	%edx, %eax	# D.21042,, D.21042
	movl	$0, %edx	#, tmp367
	testl	%eax, %eax	# D.21042
	cmovs	%edx, %eax	# D.21042,, tmp367, tmp366
	movl	%eax, -4(%rbp)	# tmp366, pres_x
	.loc 1 347 0
	movq	pixel_map(%rip), %rax	# pixel_map, pixel_map.52
	movl	-8(%rbp), %edx	# pres_y, tmp368
	movslq	%edx, %rdx	# tmp368, D.21044
	salq	$3, %rdx	#, D.21044
	addq	%rdx, %rax	# D.21044, D.21051
	movq	(%rax), %rdx	# *_262, D.21052
	movl	-4(%rbp), %eax	# pres_x, tmp369
	cltq
	addq	%rdx, %rax	# D.21052, D.21052
	movzbl	(%rax), %eax	# *_265, D.21054
	movzbl	%al, %eax	# D.21054, D.21042
	cmpl	-44(%rbp), %eax	# ref_frame, D.21042
	jge	.L92	#,
	.loc 1 348 0
	movl	$0, %eax	#, D.21042
	jmp	.L47	#
.L92:
	.loc 1 345 0
	addl	$1, -56(%rbp)	#, xx
.L91:
	.loc 1 345 0 is_stmt 0 discriminator 1
	cmpl	$3, -56(%rbp)	#, xx
	jle	.L93	#,
	.loc 1 351 0 is_stmt 1
	cmpl	$1, -12(%rbp)	#, dx
	jne	.L94	#,
	.loc 1 351 0 is_stmt 0 discriminator 1
	movl	-72(%rbp), %eax	# x, tmp370
	movl	-20(%rbp), %edx	# x_pos, tmp371
	addl	%edx, %eax	# tmp371, iftmp.53
	jmp	.L95	#
.L94:
	.loc 1 351 0 discriminator 2
	movl	-72(%rbp), %eax	# x, tmp372
	movl	-20(%rbp), %edx	# x_pos, tmp373
	addl	%edx, %eax	# tmp373, D.21042
	addl	$1, %eax	#, iftmp.53
.L95:
	.loc 1 351 0 discriminator 3
	movl	%eax, -4(%rbp)	# iftmp.53, pres_x
	.loc 1 352 0 is_stmt 1 discriminator 3
	movl	-52(%rbp), %eax	# maxold_x, tmp374
	cmpl	%eax, -4(%rbp)	# tmp374, pres_x
	cmovle	-4(%rbp), %eax	# pres_x,, D.21042
	movl	$0, %edx	#, tmp376
	testl	%eax, %eax	# D.21042
	cmovs	%edx, %eax	# D.21042,, tmp376, tmp375
	movl	%eax, -4(%rbp)	# tmp375, pres_x
	.loc 1 354 0 discriminator 3
	movl	$-2, -60(%rbp)	#, yy
	jmp	.L96	#
.L98:
	.loc 1 355 0
	movl	-60(%rbp), %eax	# yy, tmp377
	movl	-24(%rbp), %edx	# y_pos, tmp378
	addl	%eax, %edx	# tmp377, D.21042
	movl	-76(%rbp), %eax	# y, tmp379
	addl	%eax, %edx	# tmp379, D.21042
	movl	-48(%rbp), %eax	# maxold_y, tmp380
	cmpl	%eax, %edx	# tmp380, D.21042
	cmovle	%edx, %eax	# D.21042,, D.21042
	movl	$0, %edx	#, tmp382
	testl	%eax, %eax	# D.21042
	cmovs	%edx, %eax	# D.21042,, tmp382, tmp381
	movl	%eax, -8(%rbp)	# tmp381, pres_y
	.loc 1 356 0
	movq	pixel_map(%rip), %rax	# pixel_map, pixel_map.54
	movl	-8(%rbp), %edx	# pres_y, tmp383
	movslq	%edx, %rdx	# tmp383, D.21044
	salq	$3, %rdx	#, D.21044
	addq	%rdx, %rax	# D.21044, D.21051
	movq	(%rax), %rdx	# *_284, D.21052
	movl	-4(%rbp), %eax	# pres_x, tmp384
	cltq
	addq	%rdx, %rax	# D.21052, D.21052
	movzbl	(%rax), %eax	# *_287, D.21054
	movzbl	%al, %eax	# D.21054, D.21042
	cmpl	-44(%rbp), %eax	# ref_frame, D.21042
	jge	.L97	#,
	.loc 1 357 0
	movl	$0, %eax	#, D.21042
	jmp	.L47	#
.L97:
	.loc 1 354 0
	addl	$1, -60(%rbp)	#, yy
.L96:
	.loc 1 354 0 is_stmt 0 discriminator 1
	cmpl	$3, -60(%rbp)	#, yy
	jle	.L98	#,
	.loc 1 340 0 is_stmt 1
	addl	$1, -72(%rbp)	#, x
.L88:
	.loc 1 340 0 is_stmt 0 discriminator 1
	cmpl	$3, -72(%rbp)	#, x
	jle	.L99	#,
	.loc 1 339 0 is_stmt 1
	addl	$1, -76(%rbp)	#, y
.L87:
	.loc 1 339 0 is_stmt 0 discriminator 1
	cmpl	$3, -76(%rbp)	#, y
	jle	.L100	#,
.L50:
	.loc 1 254 0 is_stmt 1
	addl	$1, -64(%rbp)	#, block_x
.L42:
	.loc 1 254 0 is_stmt 0 discriminator 1
	movl	-64(%rbp), %eax	# block_x, tmp385
	cmpl	-28(%rbp), %eax	# bx1, tmp385
	jl	.L101	#,
	.loc 1 253 0 is_stmt 1
	addl	$1, -68(%rbp)	#, block_y
.L41:
	.loc 1 253 0 is_stmt 0 discriminator 1
	movl	-68(%rbp), %eax	# block_y, tmp386
	cmpl	-36(%rbp), %eax	# by1, tmp386
	jl	.L102	#,
	.loc 1 365 0 is_stmt 1
	movl	$1, %eax	#, D.21042
.L47:
	.loc 1 366 0
	popq	%rbp	#
	.cfi_def_cfa 7, 8
	ret
	.cfi_endproc
.LFE5:
	.size	CheckReliabilityOfRef, .-CheckReliabilityOfRef
	.globl	RDCost_for_4x4IntraBlocks
	.type	RDCost_for_4x4IntraBlocks, @function
RDCost_for_4x4IntraBlocks:
.LFB6:
	.loc 1 383 0
	.cfi_startproc
	pushq	%rbp	#
	.cfi_def_cfa_offset 16
	.cfi_offset 6, -16
	movq	%rsp, %rbp	#,
	.cfi_def_cfa_register 6
	subq	$144, %rsp	#,
	movq	%rdi, -104(%rbp)	# nonzero, nonzero
	movl	%esi, -108(%rbp)	# b8, b8
	movl	%edx, -112(%rbp)	# b4, b4
	movl	%ecx, -116(%rbp)	# ipmode, ipmode
	movsd	%xmm0, -128(%rbp)	# lambda, lambda
	movsd	%xmm1, -136(%rbp)	# min_rdcost, min_rdcost
	movl	%r8d, -120(%rbp)	# mostProbableMode, mostProbableMode
	.loc 1 386 0
	movl	$0, -80(%rbp)	#, distortion
	.loc 1 387 0
	movl	-108(%rbp), %eax	# b8, tmp146
	cltd
	shrl	$31, %edx	#, tmp148
	addl	%edx, %eax	# tmp148, tmp149
	andl	$1, %eax	#, tmp150
	subl	%edx, %eax	# tmp148, tmp151
	leal	(%rax,%rax), %ecx	#, D.21056
	movl	-112(%rbp), %eax	# b4, tmp152
	cltd
	shrl	$31, %edx	#, tmp154
	addl	%edx, %eax	# tmp154, tmp155
	andl	$1, %eax	#, tmp156
	subl	%edx, %eax	# tmp154, tmp157
	addl	%ecx, %eax	# D.21056, D.21056
	sall	$2, %eax	#, tmp158
	movl	%eax, -76(%rbp)	# tmp158, block_x
	.loc 1 388 0
	movl	-108(%rbp), %eax	# b8, tmp159
	movl	%eax, %edx	# tmp159, tmp160
	shrl	$31, %edx	#, tmp160
	addl	%edx, %eax	# tmp160, tmp161
	sarl	%eax	# tmp162
	leal	(%rax,%rax), %edx	#, D.21056
	movl	-112(%rbp), %eax	# b4, tmp163
	movl	%eax, %ecx	# tmp163, tmp164
	shrl	$31, %ecx	#, tmp164
	addl	%ecx, %eax	# tmp164, tmp165
	sarl	%eax	# tmp166
	addl	%edx, %eax	# D.21056, D.21056
	sall	$2, %eax	#, tmp167
	movl	%eax, -72(%rbp)	# tmp167, block_y
	.loc 1 389 0
	movq	img(%rip), %rax	# img, img.55
	movl	152(%rax), %edx	# img.55_23->pix_x, D.21056
	movl	-76(%rbp), %eax	# block_x, tmp171
	addl	%edx, %eax	# D.21056, tmp170
	movl	%eax, -68(%rbp)	# tmp170, pic_pix_x
	.loc 1 390 0
	movq	img(%rip), %rax	# img, img.56
	movl	156(%rax), %edx	# img.56_26->pix_y, D.21056
	movl	-72(%rbp), %eax	# block_y, tmp175
	addl	%edx, %eax	# D.21056, tmp174
	movl	%eax, -64(%rbp)	# tmp174, pic_pix_y
	.loc 1 391 0
	movq	img(%rip), %rax	# img, img.57
	movl	172(%rax), %edx	# img.57_29->opix_y, D.21056
	movl	-72(%rbp), %eax	# block_y, tmp179
	addl	%edx, %eax	# D.21056, tmp178
	movl	%eax, -60(%rbp)	# tmp178, pic_opix_y
	.loc 1 392 0
	movq	enc_picture(%rip), %rax	# enc_picture, enc_picture.58
	movq	6424(%rax), %rax	# enc_picture.58_32->imgY, tmp180
	movq	%rax, -56(%rbp)	# tmp180, imgY
	.loc 1 394 0
	movq	img(%rip), %rax	# img, img.59
	movq	14160(%rax), %rax	# img.59_34->currentSlice, tmp181
	movq	%rax, -48(%rbp)	# tmp181, currSlice
	.loc 1 395 0
	movq	img(%rip), %rax	# img, img.60
	movq	14168(%rax), %rdx	# img.60_36->mb_data, D.21057
	movq	img(%rip), %rax	# img, img.61
	movl	12(%rax), %eax	# img.61_38->current_mb_nr, D.21056
	cltq
	imulq	$632, %rax, %rax	#, D.21058, D.21058
	addq	%rdx, %rax	# D.21057, tmp182
	movq	%rax, -40(%rbp)	# tmp182, currMB
	.loc 1 396 0
	movq	img(%rip), %rcx	# img, img.62
	movq	-40(%rbp), %rax	# currMB, tmp183
	movl	(%rax), %eax	# currMB_42->currSEnr, D.21056
	movslq	%eax, %rdx	# D.21056, tmp184
	movq	%rdx, %rax	# tmp184, tmp185
	addq	%rax, %rax	# tmp185
	addq	%rdx, %rax	# tmp184, tmp185
	salq	$4, %rax	#, tmp186
	addq	$14176, %rax	#, tmp187
	addq	%rcx, %rax	# img.62, tmp188
	movq	%rax, -32(%rbp)	# tmp188, currSE
	.loc 1 397 0
	movq	input(%rip), %rax	# input, input.63
	movl	2364(%rax), %eax	# input.63_46->partition_mode, D.21056
	cltq
	movq	assignSE2partition(,%rax,8), %rax	# assignSE2partition, tmp190
	movq	%rax, -24(%rbp)	# tmp190, partMap
	.loc 1 401 0
	movl	$0, -96(%rbp)	#, dummy
	.loc 1 403 0
	leaq	-96(%rbp), %rdx	#, tmp191
	movl	-72(%rbp), %esi	# block_y, tmp192
	movl	-76(%rbp), %eax	# block_x, tmp193
	movl	$1, %ecx	#,
	movl	%eax, %edi	# tmp193,
	call	dct_luma	#
	movq	-104(%rbp), %rdx	# nonzero, tmp194
	movl	%eax, (%rdx)	# D.21056, *nonzero_50(D)
	.loc 1 406 0
	movq	img(%rip), %rax	# img, img.64
	movl	72724(%rax), %eax	# img.64_51->residue_transform_flag, D.21056
	testl	%eax, %eax	# D.21056
	jne	.L104	#,
	.loc 1 408 0
	movl	$0, -88(%rbp)	#, y
	jmp	.L105	#
.L108:
	.loc 1 410 0
	movl	-68(%rbp), %eax	# pic_pix_x, tmp195
	movl	%eax, -92(%rbp)	# tmp195, x
	jmp	.L106	#
.L107:
	.loc 1 412 0 discriminator 2
	movq	img(%rip), %rax	# img, img.65
	movq	71776(%rax), %rax	# img.65_56->quad, D.21059
	movq	imgY_org(%rip), %rdx	# imgY_org, imgY_org.66
	movl	-88(%rbp), %ecx	# y, tmp196
	movl	-60(%rbp), %esi	# pic_opix_y, tmp197
	addl	%esi, %ecx	# tmp197, D.21056
	movslq	%ecx, %rcx	# D.21056, D.21058
	salq	$3, %rcx	#, D.21058
	addq	%rcx, %rdx	# D.21058, D.21060
	movq	(%rdx), %rdx	# *_62, D.21061
	movl	-92(%rbp), %ecx	# x, tmp198
	movslq	%ecx, %rcx	# tmp198, D.21058
	addq	%rcx, %rcx	# D.21058
	addq	%rcx, %rdx	# D.21058, D.21061
	movzwl	(%rdx), %edx	# *_66, D.21062
	movzwl	%dx, %ecx	# D.21062, D.21056
	movl	-88(%rbp), %edx	# y, tmp199
	movl	-64(%rbp), %esi	# pic_pix_y, tmp200
	addl	%esi, %edx	# tmp200, D.21056
	movslq	%edx, %rdx	# D.21056, D.21058
	leaq	0(,%rdx,8), %rsi	#, D.21058
	movq	-56(%rbp), %rdx	# imgY, tmp201
	addq	%rsi, %rdx	# D.21058, D.21060
	movq	(%rdx), %rdx	# *_72, D.21061
	movl	-92(%rbp), %esi	# x, tmp202
	movslq	%esi, %rsi	# tmp202, D.21058
	addq	%rsi, %rsi	# D.21058
	addq	%rsi, %rdx	# D.21058, D.21061
	movzwl	(%rdx), %edx	# *_76, D.21062
	movzwl	%dx, %edx	# D.21062, D.21056
	subl	%edx, %ecx	# D.21056, D.21056
	movl	%ecx, %edx	# D.21056, D.21056
	movslq	%edx, %rdx	# D.21056, D.21058
	salq	$2, %rdx	#, D.21058
	addq	%rdx, %rax	# D.21058, D.21059
	movl	(%rax), %eax	# *_82, D.21056
	addl	%eax, -80(%rbp)	# D.21056, distortion
	.loc 1 410 0 discriminator 2
	addl	$1, -92(%rbp)	#, x
.L106:
	.loc 1 410 0 is_stmt 0 discriminator 1
	movl	-68(%rbp), %eax	# pic_pix_x, tmp203
	addl	$4, %eax	#, D.21056
	cmpl	-92(%rbp), %eax	# x, D.21056
	jg	.L107	#,
	.loc 1 408 0 is_stmt 1
	addl	$1, -88(%rbp)	#, y
.L105:
	.loc 1 408 0 is_stmt 0 discriminator 1
	cmpl	$3, -88(%rbp)	#, y
	jle	.L108	#,
.L104:
	.loc 1 417 0 is_stmt 1
	movq	cs_cm(%rip), %rax	# cs_cm, cs_cm.67
	movq	%rax, %rdi	# cs_cm.67,
	call	store_coding_state	#
	.loc 1 419 0
	movl	-120(%rbp), %eax	# mostProbableMode, tmp204
	cmpl	-116(%rbp), %eax	# ipmode, tmp204
	je	.L109	#,
	.loc 1 419 0 is_stmt 0 discriminator 1
	movl	-116(%rbp), %eax	# ipmode, tmp205
	cmpl	-120(%rbp), %eax	# mostProbableMode, tmp205
	jl	.L110	#,
	movl	-116(%rbp), %eax	# ipmode, tmp206
	subl	$1, %eax	#, iftmp.69
	jmp	.L112	#
.L110:
	.loc 1 419 0 discriminator 2
	movl	-116(%rbp), %eax	# ipmode, iftmp.69
	jmp	.L112	#
.L109:
	movl	$-1, %eax	#, iftmp.68
.L112:
	.loc 1 419 0 discriminator 3
	movq	-32(%rbp), %rdx	# currSE, tmp207
	movl	%eax, 4(%rdx)	# iftmp.68, currSE_45->value1
	.loc 1 422 0 is_stmt 1 discriminator 3
	movl	-108(%rbp), %eax	# b8, tmp208
	leal	0(,%rax,4), %edx	#, D.21056
	movl	-112(%rbp), %eax	# b4, tmp209
	addl	%eax, %edx	# tmp209, D.21056
	movq	-32(%rbp), %rax	# currSE, tmp210
	movl	%edx, 24(%rax)	# D.21056, currSE_45->context
	.loc 1 423 0 discriminator 3
	movq	-32(%rbp), %rax	# currSE, tmp211
	movl	$4, (%rax)	#, currSE_45->type
	.loc 1 426 0 discriminator 3
	movq	input(%rip), %rax	# input, input.70
	movl	2356(%rax), %eax	# input.70_96->symbol_mode, D.21056
	testl	%eax, %eax	# D.21056
	je	.L113	#,
	.loc 1 427 0
	movq	-32(%rbp), %rax	# currSE, tmp212
	movq	$writeIntraPredMode_CABAC, 40(%rax)	#, currSE_45->writing
.L113:
	.loc 1 430 0
	movq	-48(%rbp), %rax	# currSlice, tmp213
	movq	24(%rax), %rdx	# currSlice_35->partArr, D.21063
	movq	-24(%rbp), %rax	# partMap, tmp214
	addq	$16, %rax	#, D.21064
	movl	(%rax), %eax	# *_99, D.21056
	cltq
	salq	$3, %rax	#, tmp216
	movq	%rax, %rcx	# tmp215, tmp217
	salq	$4, %rcx	#, tmp217
	subq	%rax, %rcx	# tmp215, D.21058
	movq	%rcx, %rax	# D.21058, D.21058
	addq	%rdx, %rax	# D.21063, tmp218
	movq	%rax, -16(%rbp)	# tmp218, dataPart
	.loc 1 432 0
	movq	input(%rip), %rax	# input, input.71
	movl	2356(%rax), %eax	# input.71_104->symbol_mode, D.21056
	testl	%eax, %eax	# D.21056
	jne	.L114	#,
	.loc 1 432 0 is_stmt 0 discriminator 1
	movq	-16(%rbp), %rdx	# dataPart, tmp219
	movq	-32(%rbp), %rax	# currSE, tmp220
	movq	%rdx, %rsi	# tmp219,
	movq	%rax, %rdi	# tmp220,
	call	writeSyntaxElement_Intra4x4PredictionMode	#
	jmp	.L115	#
.L114:
	.loc 1 433 0 is_stmt 1
	movq	-16(%rbp), %rax	# dataPart, tmp221
	movq	112(%rax), %rax	# dataPart_103->writeSyntaxElement, D.21065
	movq	-16(%rbp), %rcx	# dataPart, tmp222
	movq	-32(%rbp), %rdx	# currSE, tmp223
	movq	%rcx, %rsi	# tmp222,
	movq	%rdx, %rdi	# tmp223,
	call	*%rax	# D.21065
.L115:
	.loc 1 435 0
	movq	-32(%rbp), %rax	# currSE, tmp224
	movl	12(%rax), %eax	# currSE_45->len, tmp225
	movl	%eax, -84(%rbp)	# tmp225, rate
	.loc 1 436 0
	addq	$48, -32(%rbp)	#, currSE
	.loc 1 437 0
	movq	-40(%rbp), %rax	# currMB, tmp226
	movl	(%rax), %eax	# currMB_42->currSEnr, D.21056
	leal	1(%rax), %edx	#, D.21056
	movq	-40(%rbp), %rax	# currMB, tmp227
	movl	%edx, (%rax)	# D.21056, currMB_42->currSEnr
	.loc 1 440 0
	movq	input(%rip), %rax	# input, input.72
	movl	2356(%rax), %eax	# input.72_111->symbol_mode, D.21056
	testl	%eax, %eax	# D.21056
	jne	.L116	#,
	.loc 1 442 0
	movl	-112(%rbp), %edx	# b4, tmp228
	movl	-108(%rbp), %eax	# b8, tmp229
	movl	$0, %ecx	#,
	movl	%eax, %esi	# tmp229,
	movl	$0, %edi	#,
	call	writeCoeff4x4_CAVLC	#
	addl	%eax, -84(%rbp)	# D.21056, rate
	jmp	.L117	#
.L116:
	.loc 1 446 0
	movl	-112(%rbp), %ecx	# b4, tmp230
	movl	-108(%rbp), %eax	# b8, tmp231
	movl	$1, %edx	#,
	movl	%ecx, %esi	# tmp230,
	movl	%eax, %edi	# tmp231,
	call	writeLumaCoeff4x4_CABAC	#
	addl	%eax, -84(%rbp)	# D.21056, rate
.L117:
	.loc 1 448 0
	movq	cs_cm(%rip), %rax	# cs_cm, cs_cm.73
	movq	%rax, %rdi	# cs_cm.73,
	call	reset_coding_state	#
	.loc 1 449 0
	cvtsi2sd	-80(%rbp), %xmm1	# distortion, D.21055
	cvtsi2sd	-84(%rbp), %xmm0	# rate, D.21055
	mulsd	-128(%rbp), %xmm0	# lambda, D.21055
	addsd	%xmm1, %xmm0	# D.21055, tmp232
	movsd	%xmm0, -8(%rbp)	# tmp232, rdcost
	.loc 1 451 0
	movq	img(%rip), %rax	# img, img.74
	movl	72724(%rax), %eax	# img.74_123->residue_transform_flag, D.21056
	testl	%eax, %eax	# D.21056
	je	.L118	#,
	.loc 1 452 0
	cvtsi2sd	-84(%rbp), %xmm2	# rate, D.21055
	movsd	%xmm2, -144(%rbp)	# D.21055, %sfp
	movq	-144(%rbp), %rax	# %sfp, D.21055
	jmp	.L120	#
.L118:
	.loc 1 454 0
	movq	-8(%rbp), %rax	# rdcost, D.21055
.L120:
	.loc 1 455 0
	movq	%rax, -144(%rbp)	# <retval>, %sfp
	movsd	-144(%rbp), %xmm0	# %sfp,
	leave
	.cfi_def_cfa 7, 8
	ret
	.cfi_endproc
.LFE6:
	.size	RDCost_for_4x4IntraBlocks, .-RDCost_for_4x4IntraBlocks
	.globl	RDCost_for_4x4Blocks_Chroma
	.type	RDCost_for_4x4Blocks_Chroma, @function
RDCost_for_4x4Blocks_Chroma:
.LFB7:
	.loc 1 462 0
	.cfi_startproc
	pushq	%rbp	#
	.cfi_def_cfa_offset 16
	.cfi_offset 6, -16
	movq	%rsp, %rbp	#,
	.cfi_def_cfa_register 6
	pushq	%r12	#
	pushq	%rbx	#
	subq	$112, %rsp	#,
	.cfi_offset 12, -24
	.cfi_offset 3, -32
	movl	%edi, -116(%rbp)	# b8, b8
	movl	%esi, -120(%rbp)	# b4, b4
	movl	%edx, -124(%rbp)	# chroma, chroma
	.loc 1 463 0
	movl	$0, -100(%rbp)	#, rate
	.loc 1 465 0
	movq	img(%rip), %rax	# img, img.75
	movq	14160(%rax), %rax	# img.75_9->currentSlice, tmp158
	movq	%rax, -72(%rbp)	# tmp158, currSlice
	.loc 1 466 0
	movq	img(%rip), %rax	# img, img.76
	movq	14168(%rax), %rdx	# img.76_11->mb_data, D.21067
	movq	img(%rip), %rax	# img, img.77
	movl	12(%rax), %eax	# img.77_13->current_mb_nr, D.21068
	cltq
	imulq	$632, %rax, %rax	#, D.21069, D.21069
	addq	%rdx, %rax	# D.21067, tmp159
	movq	%rax, -64(%rbp)	# tmp159, currMB
	.loc 1 467 0
	movq	img(%rip), %rcx	# img, img.78
	movq	-64(%rbp), %rax	# currMB, tmp160
	movl	(%rax), %eax	# currMB_17->currSEnr, D.21068
	movslq	%eax, %rdx	# D.21068, tmp161
	movq	%rdx, %rax	# tmp161, tmp162
	addq	%rax, %rax	# tmp162
	addq	%rdx, %rax	# tmp161, tmp162
	salq	$4, %rax	#, tmp163
	addq	$14176, %rax	#, tmp164
	addq	%rcx, %rax	# img.78, tmp165
	movq	%rax, -80(%rbp)	# tmp165, currSE
	.loc 1 468 0
	movq	input(%rip), %rax	# input, input.79
	movl	2364(%rax), %eax	# input.79_21->partition_mode, D.21068
	cltq
	movq	assignSE2partition(,%rax,8), %rax	# assignSE2partition, tmp167
	movq	%rax, -56(%rbp)	# tmp167, partMap
	.loc 1 472 0
	cmpl	$7, -116(%rbp)	#, b8
	jle	.L122	#,
	.loc 1 473 0
	movl	$1, -96(%rbp)	#, uv
	jmp	.L123	#
.L122:
	.loc 1 475 0
	movl	$0, -96(%rbp)	#, uv
.L123:
	.loc 1 477 0
	movl	-96(%rbp), %eax	# uv, tmp168
	notl	%eax	# D.21068
	leal	0(,%rax,4), %edx	#, D.21068
	movl	-116(%rbp), %eax	# b8, tmp169
	addl	%eax, %edx	# tmp169, D.21068
	movl	%edx, %eax	# D.21068, tmp170
	sarl	$31, %eax	#, tmp170
	shrl	$31, %eax	#, tmp171
	addl	%eax, %edx	# tmp171, tmp172
	andl	$1, %edx	#, tmp173
	subl	%eax, %edx	# tmp171, tmp174
	movl	%edx, %eax	# tmp174, tmp174
	leal	(%rax,%rax), %ecx	#, D.21068
	movl	-120(%rbp), %eax	# b4, tmp175
	cltd
	shrl	$31, %edx	#, tmp177
	addl	%edx, %eax	# tmp177, tmp178
	andl	$1, %eax	#, tmp179
	subl	%edx, %eax	# tmp177, tmp180
	leal	(%rcx,%rax), %ebx	#, D.21068
	movl	-96(%rbp), %eax	# uv, tmp181
	notl	%eax	# D.21068
	leal	0(,%rax,4), %edx	#, D.21068
	movl	-116(%rbp), %eax	# b8, tmp182
	addl	%edx, %eax	# D.21068, D.21068
	movl	%eax, %edx	# D.21068, tmp183
	shrl	$31, %edx	#, tmp183
	addl	%edx, %eax	# tmp183, tmp184
	sarl	%eax	# tmp185
	leal	(%rax,%rax), %edx	#, D.21068
	movl	-120(%rbp), %eax	# b4, tmp186
	movl	%eax, %ecx	# tmp186, tmp187
	shrl	$31, %ecx	#, tmp187
	addl	%ecx, %eax	# tmp187, tmp188
	sarl	%eax	# tmp189
	leal	(%rdx,%rax), %r12d	#, D.21068
	movl	-120(%rbp), %edx	# b4, tmp190
	movl	-116(%rbp), %ecx	# b8, tmp191
	movl	-124(%rbp), %eax	# chroma, tmp192
	movl	%ecx, %esi	# tmp191,
	movl	%eax, %edi	# tmp192,
	call	dct_chroma4x4	#
	movslq	%r12d, %rdx	# D.21068, tmp193
	movl	-96(%rbp), %ecx	# uv, tmp195
	movslq	%ecx, %rsi	# tmp195, tmp194
	movslq	%ebx, %rcx	# D.21068, tmp196
	salq	$2, %rsi	#, tmp197
	addq	%rsi, %rcx	# tmp197, tmp198
	salq	$2, %rcx	#, tmp199
	addq	%rcx, %rdx	# tmp199, tmp200
	movl	%eax, cbp_chroma_block_temp(,%rdx,4)	# D.21068, cbp_chroma_block_temp
	.loc 1 479 0
	movq	cs_cm(%rip), %rax	# cs_cm, cs_cm.80
	movq	%rax, %rdi	# cs_cm.80,
	call	store_coding_state	#
	.loc 1 481 0
	movq	input(%rip), %rax	# input, input.81
	movl	2356(%rax), %eax	# input.81_45->symbol_mode, D.21068
	testl	%eax, %eax	# D.21068
	jne	.L124	#,
	.loc 1 483 0
	movl	-116(%rbp), %eax	# b8, tmp201
	cltd
	shrl	$31, %edx	#, tmp203
	addl	%edx, %eax	# tmp203, tmp204
	andl	$1, %eax	#, tmp205
	subl	%edx, %eax	# tmp203, tmp206
	leal	(%rax,%rax), %ecx	#, D.21068
	movl	-120(%rbp), %eax	# b4, tmp207
	cltd
	shrl	$31, %edx	#, tmp209
	addl	%edx, %eax	# tmp209, tmp210
	andl	$1, %eax	#, tmp211
	subl	%edx, %eax	# tmp209, tmp212
	addl	%ecx, %eax	# D.21068, D.21068
	sall	$4, %eax	#, D.21068
	movl	%eax, %edx	# D.21068, D.21068
	movl	-116(%rbp), %eax	# b8, tmp213
	movl	%eax, %ecx	# tmp213, tmp214
	shrl	$31, %ecx	#, tmp214
	addl	%ecx, %eax	# tmp214, tmp215
	sarl	%eax	# tmp216
	leal	(%rax,%rax), %ecx	#, D.21068
	movl	-120(%rbp), %eax	# b4, tmp217
	movl	%eax, %esi	# tmp217, tmp218
	shrl	$31, %esi	#, tmp218
	addl	%esi, %eax	# tmp218, tmp219
	sarl	%eax	# tmp220
	addl	%ecx, %eax	# D.21068, D.21068
	movl	%edx, %ecx	# D.21068, D.21068
	orl	%eax, %ecx	# D.21068, D.21068
	movl	-120(%rbp), %edx	# b4, tmp221
	movl	-116(%rbp), %eax	# b8, tmp222
	movl	%eax, %esi	# tmp222,
	movl	$7, %edi	#,
	call	writeCoeff4x4_CAVLC	#
	movl	%eax, -100(%rbp)	# tmp223, rate
	jmp	.L125	#
.L124:
.LBB2:
	.loc 1 490 0
	movq	-64(%rbp), %rax	# currMB, tmp227
	addq	$20, %rax	#, tmp226
	movq	%rax, -48(%rbp)	# tmp226, bitCount
	.loc 1 491 0
	movq	img(%rip), %rax	# img, img.82
	movq	14136(%rax), %rax	# img.82_59->cofAC, D.21070
	movl	-116(%rbp), %edx	# b8, tmp228
	movslq	%edx, %rdx	# tmp228, D.21069
	salq	$3, %rdx	#, D.21069
	addq	%rdx, %rax	# D.21069, D.21070
	movq	(%rax), %rax	# *_63, D.21071
	movl	-120(%rbp), %edx	# b4, tmp229
	movslq	%edx, %rdx	# tmp229, D.21069
	salq	$3, %rdx	#, D.21069
	addq	%rdx, %rax	# D.21069, D.21071
	movq	(%rax), %rax	# *_67, D.21072
	movq	(%rax), %rax	# *_68, tmp230
	movq	%rax, -40(%rbp)	# tmp230, ACLevel
	.loc 1 492 0
	movq	img(%rip), %rax	# img, img.83
	movq	14136(%rax), %rax	# img.83_70->cofAC, D.21070
	movl	-116(%rbp), %edx	# b8, tmp231
	movslq	%edx, %rdx	# tmp231, D.21069
	salq	$3, %rdx	#, D.21069
	addq	%rdx, %rax	# D.21069, D.21070
	movq	(%rax), %rax	# *_74, D.21071
	movl	-120(%rbp), %edx	# b4, tmp232
	movslq	%edx, %rdx	# tmp232, D.21069
	salq	$3, %rdx	#, D.21069
	addq	%rdx, %rax	# D.21069, D.21071
	movq	(%rax), %rax	# *_78, D.21072
	movq	8(%rax), %rax	# MEM[(int * *)_79 + 8B], tmp233
	movq	%rax, -32(%rbp)	# tmp233, ACRun
	.loc 1 494 0
	movl	$1, -92(%rbp)	#, level
	.loc 1 496 0
	movq	img(%rip), %rdx	# img, img.84
	movl	-120(%rbp), %eax	# b4, tmp234
	movl	%eax, %ecx	# tmp234, tmp235
	shrl	$31, %ecx	#, tmp235
	addl	%ecx, %eax	# tmp235, tmp236
	sarl	%eax	# tmp237
	movl	%eax, 76(%rdx)	# D.21068, img.84_82->subblock_y
	.loc 1 497 0
	movq	img(%rip), %rcx	# img, img.85
	movl	-120(%rbp), %eax	# b4, tmp238
	cltd
	shrl	$31, %edx	#, tmp240
	addl	%edx, %eax	# tmp240, tmp241
	andl	$1, %eax	#, tmp242
	subl	%edx, %eax	# tmp240, tmp243
	movl	%eax, 72(%rcx)	# D.21068, img.85_84->subblock_x
	.loc 1 499 0
	movl	$0, -88(%rbp)	#, k
	jmp	.L126	#
.L132:
	.loc 1 501 0
	movl	-88(%rbp), %eax	# k, tmp244
	cltq
	leaq	0(,%rax,4), %rdx	#, D.21069
	movq	-40(%rbp), %rax	# ACLevel, tmp245
	addq	%rdx, %rax	# D.21069, D.21073
	movl	(%rax), %edx	# *_89, D.21068
	movq	-80(%rbp), %rax	# currSE, tmp246
	movl	%edx, 4(%rax)	# D.21068, currSE_3->value1
	movq	-80(%rbp), %rax	# currSE, tmp247
	movl	4(%rax), %eax	# currSE_3->value1, tmp248
	movl	%eax, -92(%rbp)	# tmp248, level
	.loc 1 502 0
	movl	-88(%rbp), %eax	# k, tmp249
	cltq
	leaq	0(,%rax,4), %rdx	#, D.21069
	movq	-32(%rbp), %rax	# ACRun, tmp250
	addq	%rdx, %rax	# D.21069, D.21073
	movl	(%rax), %edx	# *_94, D.21068
	movq	-80(%rbp), %rax	# currSE, tmp251
	movl	%edx, 8(%rax)	# D.21068, currSE_3->value2
	movq	-80(%rbp), %rax	# currSE, tmp252
	movl	8(%rax), %eax	# currSE_3->value2, tmp253
	movl	%eax, -84(%rbp)	# tmp253, run
	.loc 1 504 0
	movq	input(%rip), %rax	# input, input.86
	movl	2356(%rax), %eax	# input.86_97->symbol_mode, D.21068
	testl	%eax, %eax	# D.21068
	jne	.L127	#,
	.loc 1 504 0 is_stmt 0 discriminator 1
	movq	-80(%rbp), %rax	# currSE, tmp254
	movq	$levrun_linfo_inter, 32(%rax)	#, currSE_3->mapping
	jmp	.L128	#
.L127:
	.loc 1 505 0 is_stmt 1
	movq	-80(%rbp), %rax	# currSE, tmp255
	movq	$writeRunLevel_CABAC, 40(%rax)	#, currSE_3->writing
.L128:
	.loc 1 507 0
	movq	-80(%rbp), %rax	# currSE, tmp256
	movl	$7, 24(%rax)	#, currSE_3->context
	.loc 1 508 0
	movq	-80(%rbp), %rax	# currSE, tmp257
	movl	$10, (%rax)	#, currSE_3->type
	.loc 1 510 0
	movq	img(%rip), %rdx	# img, img.87
	movq	-64(%rbp), %rax	# currMB, tmp258
	movl	72(%rax), %eax	# currMB_17->mb_type, D.21068
	cmpl	$9, %eax	#, D.21068
	je	.L129	#,
	.loc 1 510 0 is_stmt 0 discriminator 2
	movq	-64(%rbp), %rax	# currMB, tmp259
	movl	72(%rax), %eax	# currMB_17->mb_type, D.21068
	cmpl	$10, %eax	#, D.21068
	je	.L129	#,
	.loc 1 510 0 discriminator 1
	movq	-64(%rbp), %rax	# currMB, tmp260
	movl	72(%rax), %eax	# currMB_17->mb_type, D.21068
	cmpl	$13, %eax	#, D.21068
	jne	.L130	#,
.L129:
	movl	$1, %eax	#, iftmp.88
	jmp	.L131	#
.L130:
	.loc 1 510 0 discriminator 3
	movl	$0, %eax	#, iftmp.88
.L131:
	.loc 1 510 0 discriminator 4
	movl	%eax, 80(%rdx)	# iftmp.88, img.87_99->is_intra_block
	.loc 1 511 0 is_stmt 1 discriminator 4
	movq	img(%rip), %rax	# img, img.89
	movl	-96(%rbp), %edx	# uv, tmp261
	movl	%edx, 84(%rax)	# tmp261, img.89_105->is_v_block
	.loc 1 514 0 discriminator 4
	movq	-72(%rbp), %rax	# currSlice, tmp262
	movq	24(%rax), %rdx	# currSlice_10->partArr, D.21074
	movq	-80(%rbp), %rax	# currSE, tmp263
	movl	(%rax), %eax	# currSE_3->type, D.21068
	cltq
	leaq	0(,%rax,4), %rcx	#, D.21069
	movq	-56(%rbp), %rax	# partMap, tmp264
	addq	%rcx, %rax	# D.21069, D.21075
	movl	(%rax), %eax	# *_110, D.21068
	cltq
	salq	$3, %rax	#, tmp266
	movq	%rax, %rcx	# tmp265, tmp267
	salq	$4, %rcx	#, tmp267
	subq	%rax, %rcx	# tmp265, D.21069
	movq	%rcx, %rax	# D.21069, D.21069
	addq	%rdx, %rax	# D.21074, tmp268
	movq	%rax, -24(%rbp)	# tmp268, dataPart
	.loc 1 515 0 discriminator 4
	movq	-24(%rbp), %rax	# dataPart, tmp269
	movq	112(%rax), %rax	# dataPart_114->writeSyntaxElement, D.21076
	movq	-24(%rbp), %rcx	# dataPart, tmp270
	movq	-80(%rbp), %rdx	# currSE, tmp271
	movq	%rcx, %rsi	# tmp270,
	movq	%rdx, %rdi	# tmp271,
	call	*%rax	# D.21076
	.loc 1 516 0 discriminator 4
	movq	-48(%rbp), %rax	# bitCount, tmp272
	leaq	24(%rax), %rdx	#, D.21073
	movq	-48(%rbp), %rax	# bitCount, tmp273
	addq	$24, %rax	#, D.21073
	movl	(%rax), %ecx	# *_117, D.21068
	movq	-80(%rbp), %rax	# currSE, tmp274
	movl	12(%rax), %eax	# currSE_3->len, D.21068
	addl	%ecx, %eax	# D.21068, D.21068
	movl	%eax, (%rdx)	# D.21068, *_116
	.loc 1 517 0 discriminator 4
	movq	-80(%rbp), %rax	# currSE, tmp275
	movl	12(%rax), %eax	# currSE_3->len, D.21068
	addl	%eax, -100(%rbp)	# D.21068, rate
	.loc 1 520 0 discriminator 4
	addq	$48, -80(%rbp)	#, currSE
	.loc 1 521 0 discriminator 4
	movq	-64(%rbp), %rax	# currMB, tmp276
	movl	(%rax), %eax	# currMB_17->currSEnr, D.21068
	leal	1(%rax), %edx	#, D.21068
	movq	-64(%rbp), %rax	# currMB, tmp277
	movl	%edx, (%rax)	# D.21068, currMB_17->currSEnr
	.loc 1 499 0 discriminator 4
	addl	$1, -88(%rbp)	#, k
.L126:
	.loc 1 499 0 is_stmt 0 discriminator 1
	cmpl	$16, -88(%rbp)	#, k
	jg	.L125	#,
	.loc 1 499 0 discriminator 2
	cmpl	$0, -92(%rbp)	#, level
	jne	.L132	#,
.L125:
.LBE2:
	.loc 1 524 0 is_stmt 1
	movq	cs_cm(%rip), %rax	# cs_cm, cs_cm.90
	movq	%rax, %rdi	# cs_cm.90,
	call	reset_coding_state	#
	.loc 1 526 0
	movl	-100(%rbp), %eax	# rate, D.21068
	.loc 1 527 0
	addq	$112, %rsp	#,
	popq	%rbx	#
	popq	%r12	#
	popq	%rbp	#
	.cfi_def_cfa 7, 8
	ret
	.cfi_endproc
.LFE7:
	.size	RDCost_for_4x4Blocks_Chroma, .-RDCost_for_4x4Blocks_Chroma
	.globl	Mode_Decision_for_4x4IntraBlocks
	.type	Mode_Decision_for_4x4IntraBlocks, @function
Mode_Decision_for_4x4IntraBlocks:
.LFB8:
	.loc 1 537 0
	.cfi_startproc
	pushq	%rbp	#
	.cfi_def_cfa_offset 16
	.cfi_offset 6, -16
	movq	%rsp, %rbp	#,
	.cfi_def_cfa_register 6
	pushq	%r12	#
	pushq	%rbx	#
	subq	$512, %rsp	#,
	.cfi_offset 12, -24
	.cfi_offset 3, -32
	movl	%edi, -500(%rbp)	# b8, b8
	movl	%esi, -504(%rbp)	# b4, b4
	movsd	%xmm0, -512(%rbp)	# lambda, lambda
	movq	%rdx, -520(%rbp)	# min_cost, min_cost
	.loc 1 538 0
	movl	$0, -468(%rbp)	#, best_ipmode
	.loc 1 539 0
	movl	$0, -444(%rbp)	#, nonzero
	.loc 1 541 0
	movl	-500(%rbp), %eax	# b8, tmp1036
	cltd
	shrl	$31, %edx	#, tmp1038
	addl	%edx, %eax	# tmp1038, tmp1039
	andl	$1, %eax	#, tmp1040
	subl	%edx, %eax	# tmp1038, tmp1041
	leal	(%rax,%rax), %ecx	#, D.21077
	movl	-504(%rbp), %eax	# b4, tmp1042
	cltd
	shrl	$31, %edx	#, tmp1044
	addl	%edx, %eax	# tmp1044, tmp1045
	andl	$1, %eax	#, tmp1046
	subl	%edx, %eax	# tmp1044, tmp1047
	addl	%ecx, %eax	# D.21077, D.21077
	sall	$2, %eax	#, tmp1048
	movl	%eax, -436(%rbp)	# tmp1048, block_x
	.loc 1 542 0
	movl	-500(%rbp), %eax	# b8, tmp1049
	movl	%eax, %edx	# tmp1049, tmp1050
	shrl	$31, %edx	#, tmp1050
	addl	%edx, %eax	# tmp1050, tmp1051
	sarl	%eax	# tmp1052
	leal	(%rax,%rax), %edx	#, D.21077
	movl	-504(%rbp), %eax	# b4, tmp1053
	movl	%eax, %ecx	# tmp1053, tmp1054
	shrl	$31, %ecx	#, tmp1054
	addl	%ecx, %eax	# tmp1054, tmp1055
	sarl	%eax	# tmp1056
	addl	%edx, %eax	# D.21077, D.21077
	sall	$2, %eax	#, tmp1057
	movl	%eax, -432(%rbp)	# tmp1057, block_y
	.loc 1 543 0
	movq	img(%rip), %rax	# img, img.91
	movl	152(%rax), %edx	# img.91_98->pix_x, D.21077
	movl	-436(%rbp), %eax	# block_x, tmp1061
	addl	%edx, %eax	# D.21077, tmp1060
	movl	%eax, -428(%rbp)	# tmp1060, pic_pix_x
	.loc 1 544 0
	movq	img(%rip), %rax	# img, img.92
	movl	156(%rax), %edx	# img.92_101->pix_y, D.21077
	movl	-432(%rbp), %eax	# block_y, tmp1065
	addl	%edx, %eax	# D.21077, tmp1064
	movl	%eax, -424(%rbp)	# tmp1064, pic_pix_y
	.loc 1 545 0
	movq	img(%rip), %rax	# img, img.93
	movl	168(%rax), %edx	# img.93_104->opix_x, D.21077
	movl	-436(%rbp), %eax	# block_x, tmp1069
	addl	%edx, %eax	# D.21077, tmp1068
	movl	%eax, -420(%rbp)	# tmp1068, pic_opix_x
	.loc 1 546 0
	movq	img(%rip), %rax	# img, img.94
	movl	172(%rax), %edx	# img.94_107->opix_y, D.21077
	movl	-432(%rbp), %eax	# block_y, tmp1073
	addl	%edx, %eax	# D.21077, tmp1072
	movl	%eax, -416(%rbp)	# tmp1072, pic_opix_y
	.loc 1 547 0
	movl	-428(%rbp), %eax	# pic_pix_x, tmp1075
	leal	3(%rax), %edx	#, tmp1077
	testl	%eax, %eax	# tmp1076
	cmovs	%edx, %eax	# tmp1077,, tmp1076
	sarl	$2, %eax	#, tmp1078
	movl	%eax, -412(%rbp)	# tmp1078, pic_block_x
	.loc 1 548 0
	movl	-424(%rbp), %eax	# pic_pix_y, tmp1080
	leal	3(%rax), %edx	#, tmp1082
	testl	%eax, %eax	# tmp1081
	cmovs	%edx, %eax	# tmp1082,, tmp1081
	sarl	$2, %eax	#, tmp1083
	movl	%eax, -408(%rbp)	# tmp1083, pic_block_y
	.loc 1 549 0
	movabsq	$5055640609639927018, %rax	#, tmp1084
	movq	%rax, -360(%rbp)	# tmp1084, min_rdcost
	.loc 1 556 0
	movabsq	$4418031234450456576, %rax	#, tmp1085
	movq	%rax, -352(%rbp)	# tmp1085, epsilon
	.loc 1 575 0
	movq	img(%rip), %rax	# img, img.95
	movq	14168(%rax), %rdx	# img.95_114->mb_data, D.21078
	movq	img(%rip), %rax	# img, img.96
	movl	12(%rax), %eax	# img.96_116->current_mb_nr, D.21077
	cltq
	imulq	$632, %rax, %rax	#, D.21079, D.21079
	addq	%rdx, %rax	# D.21078, D.21078
	movl	524(%rax), %eax	# _120->c_ipred_mode, tmp1086
	movl	%eax, -404(%rbp)	# tmp1086, c_ipmode
	.loc 1 578 0
	movl	-432(%rbp), %eax	# block_y, tmp1087
	leal	3(%rax), %edx	#, tmp1089
	testl	%eax, %eax	# tmp1088
	cmovs	%edx, %eax	# tmp1089,, tmp1088
	sarl	$2, %eax	#, tmp1090
	movl	%eax, %edx	# tmp1090, D.21077
	movl	-436(%rbp), %eax	# block_x, tmp1091
	leal	3(%rax), %ecx	#, tmp1093
	testl	%eax, %eax	# tmp1092
	cmovs	%ecx, %eax	# tmp1093,, tmp1092
	sarl	$2, %eax	#, tmp1094
	movl	%eax, %esi	# tmp1094, D.21077
	movq	img(%rip), %rax	# img, img.97
	movl	12(%rax), %eax	# img.97_124->current_mb_nr, D.21077
	leaq	-336(%rbp), %rcx	#, tmp1095
	movq	%rcx, %r9	# tmp1095,
	movl	$0, %r8d	#,
	movl	$-1, %ecx	#,
	movl	%eax, %edi	# D.21077,
	call	getLuma4x4Neighbour	#
	.loc 1 579 0
	movl	-432(%rbp), %eax	# block_y, tmp1096
	leal	3(%rax), %edx	#, tmp1098
	testl	%eax, %eax	# tmp1097
	cmovs	%edx, %eax	# tmp1098,, tmp1097
	sarl	$2, %eax	#, tmp1099
	movl	%eax, %edx	# tmp1099, D.21077
	movl	-436(%rbp), %eax	# block_x, tmp1100
	leal	3(%rax), %ecx	#, tmp1102
	testl	%eax, %eax	# tmp1101
	cmovs	%ecx, %eax	# tmp1102,, tmp1101
	sarl	$2, %eax	#, tmp1103
	movl	%eax, %esi	# tmp1103, D.21077
	movq	img(%rip), %rax	# img, img.98
	movl	12(%rax), %eax	# img.98_128->current_mb_nr, D.21077
	leaq	-304(%rbp), %rcx	#, tmp1104
	movq	%rcx, %r9	# tmp1104,
	movl	$-1, %r8d	#,
	movl	$0, %ecx	#,
	movl	%eax, %edi	# D.21077,
	call	getLuma4x4Neighbour	#
	.loc 1 582 0
	movq	input(%rip), %rax	# input, input.99
	movl	216(%rax), %eax	# input.99_130->UseConstrainedIntraPred, D.21077
	testl	%eax, %eax	# D.21077
	je	.L135	#,
	.loc 1 584 0
	movl	-336(%rbp), %eax	# left_block.available, D.21077
	testl	%eax, %eax	# D.21077
	je	.L136	#,
	.loc 1 584 0 is_stmt 0 discriminator 1
	movq	img(%rip), %rax	# img, img.101
	movq	71784(%rax), %rax	# img.101_133->intra_block, D.21080
	movl	-332(%rbp), %edx	# left_block.mb_addr, D.21077
	movslq	%edx, %rdx	# D.21077, D.21079
	salq	$2, %rdx	#, D.21079
	addq	%rdx, %rax	# D.21079, D.21080
	movl	(%rax), %eax	# *_138, iftmp.100
	jmp	.L137	#
.L136:
	.loc 1 584 0 discriminator 2
	movl	$0, %eax	#, iftmp.100
.L137:
	.loc 1 584 0 discriminator 3
	movl	%eax, -336(%rbp)	# iftmp.100, left_block.available
	.loc 1 585 0 is_stmt 1 discriminator 3
	movl	-304(%rbp), %eax	# top_block.available, D.21077
	testl	%eax, %eax	# D.21077
	je	.L138	#,
	.loc 1 585 0 is_stmt 0 discriminator 1
	movq	img(%rip), %rax	# img, img.103
	movq	71784(%rax), %rax	# img.103_142->intra_block, D.21080
	movl	-300(%rbp), %edx	# top_block.mb_addr, D.21077
	movslq	%edx, %rdx	# D.21077, D.21079
	salq	$2, %rdx	#, D.21079
	addq	%rdx, %rax	# D.21079, D.21080
	movl	(%rax), %eax	# *_147, iftmp.102
	jmp	.L139	#
.L138:
	.loc 1 585 0 discriminator 2
	movl	$0, %eax	#, iftmp.102
.L139:
	.loc 1 585 0 discriminator 3
	movl	%eax, -304(%rbp)	# iftmp.102, top_block.available
.L135:
	.loc 1 588 0 is_stmt 1
	movl	-304(%rbp), %eax	# top_block.available, D.21077
	testl	%eax, %eax	# D.21077
	je	.L140	#,
	.loc 1 588 0 is_stmt 0 discriminator 1
	movq	img(%rip), %rax	# img, img.105
	movq	104(%rax), %rax	# img.105_151->ipredmode, D.21081
	movl	-288(%rbp), %edx	# top_block.pos_x, D.21077
	movslq	%edx, %rdx	# D.21077, D.21079
	salq	$3, %rdx	#, D.21079
	addq	%rdx, %rax	# D.21079, D.21081
	movq	(%rax), %rax	# *_156, D.21080
	movl	-284(%rbp), %edx	# top_block.pos_y, D.21077
	movslq	%edx, %rdx	# D.21077, D.21079
	salq	$2, %rdx	#, D.21079
	addq	%rdx, %rax	# D.21079, D.21080
	movl	(%rax), %eax	# *_161, iftmp.104
	jmp	.L141	#
.L140:
	.loc 1 588 0 discriminator 2
	movl	$-1, %eax	#, iftmp.104
.L141:
	.loc 1 588 0 discriminator 3
	movl	%eax, -400(%rbp)	# iftmp.104, upMode
	.loc 1 589 0 is_stmt 1 discriminator 3
	movl	-336(%rbp), %eax	# left_block.available, D.21077
	testl	%eax, %eax	# D.21077
	je	.L142	#,
	.loc 1 589 0 is_stmt 0 discriminator 1
	movq	img(%rip), %rax	# img, img.107
	movq	104(%rax), %rax	# img.107_166->ipredmode, D.21081
	movl	-320(%rbp), %edx	# left_block.pos_x, D.21077
	movslq	%edx, %rdx	# D.21077, D.21079
	salq	$3, %rdx	#, D.21079
	addq	%rdx, %rax	# D.21079, D.21081
	movq	(%rax), %rax	# *_171, D.21080
	movl	-316(%rbp), %edx	# left_block.pos_y, D.21077
	movslq	%edx, %rdx	# D.21077, D.21079
	salq	$2, %rdx	#, D.21079
	addq	%rdx, %rax	# D.21079, D.21080
	movl	(%rax), %eax	# *_176, iftmp.106
	jmp	.L143	#
.L142:
	.loc 1 589 0 discriminator 2
	movl	$-1, %eax	#, iftmp.106
.L143:
	.loc 1 589 0 discriminator 3
	movl	%eax, -396(%rbp)	# iftmp.106, leftMode
	.loc 1 591 0 is_stmt 1 discriminator 3
	cmpl	$0, -400(%rbp)	#, upMode
	js	.L144	#,
	.loc 1 591 0 is_stmt 0 discriminator 1
	cmpl	$0, -396(%rbp)	#, leftMode
	js	.L144	#,
	movl	-400(%rbp), %eax	# upMode, tmp1105
	cmpl	%eax, -396(%rbp)	# tmp1105, leftMode
	cmovle	-396(%rbp), %eax	# leftMode,, iftmp.108
	jmp	.L145	#
.L144:
	.loc 1 591 0 discriminator 2
	movl	$2, %eax	#, iftmp.108
.L145:
	.loc 1 591 0 discriminator 3
	movl	%eax, -392(%rbp)	# iftmp.108, mostProbableMode
	.loc 1 593 0 is_stmt 1 discriminator 3
	movq	-520(%rbp), %rax	# min_cost, tmp1106
	movl	$2147483647, (%rax)	#, *min_cost_183(D)
	.loc 1 596 0 discriminator 3
	leaq	-476(%rbp), %rdi	#, tmp1107
	leaq	-480(%rbp), %rcx	#, tmp1108
	leaq	-484(%rbp), %rdx	#, tmp1109
	movl	-424(%rbp), %esi	# pic_pix_y, tmp1110
	movl	-428(%rbp), %eax	# pic_pix_x, tmp1111
	movq	%rdi, %r8	# tmp1107,
	movl	%eax, %edi	# tmp1111,
	call	intrapred_luma	#
	.loc 1 599 0 discriminator 3
	movl	$0, -472(%rbp)	#, ipmode
	jmp	.L146	#
.L236:
.LBB3:
	.loc 1 603 0
	cmpl	$2, -472(%rbp)	#, ipmode
	je	.L147	#,
	.loc 1 601 0
	cmpl	$0, -472(%rbp)	#, ipmode
	je	.L148	#,
	.loc 1 602 0
	cmpl	$7, -472(%rbp)	#, ipmode
	je	.L148	#,
	.loc 1 602 0 is_stmt 0 discriminator 2
	cmpl	$3, -472(%rbp)	#, ipmode
	jne	.L149	#,
.L148:
	.loc 1 602 0 discriminator 1
	movl	-480(%rbp), %eax	# up_available, up_available.110
	testl	%eax, %eax	# up_available.110
	jne	.L147	#,
.L149:
	cmpl	$1, -472(%rbp)	#, ipmode
	je	.L150	#,
	.loc 1 603 0 is_stmt 1
	cmpl	$8, -472(%rbp)	#, ipmode
	jne	.L151	#,
.L150:
	.loc 1 603 0 is_stmt 0 discriminator 1
	movl	-484(%rbp), %eax	# left_available, left_available.111
	testl	%eax, %eax	# left_available.111
	jne	.L147	#,
.L151:
	.loc 1 603 0 discriminator 2
	movl	-476(%rbp), %eax	# all_available, all_available.112
	testl	%eax, %eax	# all_available.112
	je	.L152	#,
.L147:
	.loc 1 603 0 discriminator 1
	movl	$1, %eax	#, iftmp.109
	jmp	.L153	#
.L152:
	.loc 1 603 0 discriminator 2
	movl	$0, %eax	#, iftmp.109
.L153:
	.loc 1 601 0 is_stmt 1
	movl	%eax, -388(%rbp)	# iftmp.109, available_mode
	.loc 1 605 0
	movq	input(%rip), %rax	# input, input.113
	movl	2396(%rax), %eax	# input.113_191->IntraDisableInterOnly, D.21077
	testl	%eax, %eax	# D.21077
	je	.L154	#,
	.loc 1 605 0 is_stmt 0 discriminator 1
	movq	img(%rip), %rax	# img, img.114
	movl	24(%rax), %eax	# img.114_193->type, D.21077
	cmpl	$2, %eax	#, D.21077
	je	.L155	#,
.L154:
	.loc 1 607 0 is_stmt 1
	movq	input(%rip), %rax	# input, input.115
	movl	2400(%rax), %eax	# input.115_195->Intra4x4ParDisable, D.21077
	testl	%eax, %eax	# D.21077
	je	.L156	#,
	.loc 1 607 0 is_stmt 0 discriminator 1
	cmpl	$0, -472(%rbp)	#, ipmode
	je	.L157	#,
	cmpl	$1, -472(%rbp)	#, ipmode
	jne	.L156	#,
.L157:
	.loc 1 608 0 is_stmt 1
	jmp	.L158	#
.L156:
	.loc 1 610 0
	movq	input(%rip), %rax	# input, input.116
	movl	2404(%rax), %eax	# input.116_197->Intra4x4DiagDisable, D.21077
	testl	%eax, %eax	# D.21077
	je	.L159	#,
	.loc 1 610 0 is_stmt 0 discriminator 1
	cmpl	$3, -472(%rbp)	#, ipmode
	je	.L160	#,
	cmpl	$4, -472(%rbp)	#, ipmode
	jne	.L159	#,
.L160:
	.loc 1 611 0 is_stmt 1
	jmp	.L158	#
.L159:
	.loc 1 613 0
	movq	input(%rip), %rax	# input, input.117
	movl	2408(%rax), %eax	# input.117_199->Intra4x4DirDisable, D.21077
	testl	%eax, %eax	# D.21077
	je	.L155	#,
	.loc 1 613 0 is_stmt 0 discriminator 1
	cmpl	$4, -472(%rbp)	#, ipmode
	jle	.L155	#,
	.loc 1 614 0 is_stmt 1
	jmp	.L158	#
.L155:
	.loc 1 617 0
	cmpl	$0, -388(%rbp)	#, available_mode
	je	.L158	#,
	.loc 1 619 0
	movq	input(%rip), %rax	# input, input.118
	movl	2464(%rax), %eax	# input.118_201->rdopt, D.21077
	testl	%eax, %eax	# D.21077
	jne	.L161	#,
	.loc 1 621 0
	movl	$0, -460(%rbp)	#, j
	movl	-460(%rbp), %eax	# j, tmp1112
	movl	%eax, -456(%rbp)	# tmp1112, k
	jmp	.L162	#
.L165:
	.loc 1 622 0
	movl	$0, -464(%rbp)	#, i
	jmp	.L163	#
.L164:
	.loc 1 624 0 discriminator 2
	movq	imgY_org(%rip), %rax	# imgY_org, imgY_org.119
	movl	-460(%rbp), %edx	# j, tmp1113
	movl	-416(%rbp), %ecx	# pic_opix_y, tmp1114
	addl	%ecx, %edx	# tmp1114, D.21077
	movslq	%edx, %rdx	# D.21077, D.21079
	salq	$3, %rdx	#, D.21079
	addq	%rdx, %rax	# D.21079, D.21082
	movq	(%rax), %rax	# *_210, D.21083
	movl	-464(%rbp), %edx	# i, tmp1115
	movl	-420(%rbp), %ecx	# pic_opix_x, tmp1116
	addl	%ecx, %edx	# tmp1116, D.21077
	movslq	%edx, %rdx	# D.21077, D.21079
	addq	%rdx, %rdx	# D.21079
	addq	%rdx, %rax	# D.21079, D.21083
	movzwl	(%rax), %eax	# *_215, D.21084
	movzwl	%ax, %edx	# D.21084, D.21077
	movq	img(%rip), %rax	# img, img.120
	movl	-464(%rbp), %ecx	# i, tmp1118
	movslq	%ecx, %rcx	# tmp1118, tmp1117
	movl	-472(%rbp), %esi	# ipmode, tmp1120
	movslq	%esi, %rdi	# tmp1120, tmp1119
	movl	-460(%rbp), %esi	# j, tmp1122
	movslq	%esi, %rsi	# tmp1122, tmp1121
	salq	$4, %rdi	#, tmp1123
	addq	%rdi, %rsi	# tmp1123, tmp1124
	salq	$4, %rsi	#, tmp1125
	addq	%rsi, %rcx	# tmp1125, tmp1126
	addq	$88, %rcx	#, tmp1127
	movzwl	8(%rax,%rcx,2), %eax	# img.120_218->mprr, D.21084
	movzwl	%ax, %eax	# D.21084, D.21077
	subl	%eax, %edx	# D.21077, D.21077
	movl	-456(%rbp), %eax	# k, tmp1129
	cltq
	movl	%edx, -208(%rbp,%rax,4)	# D.21077, diff
	.loc 1 622 0 discriminator 2
	addl	$1, -464(%rbp)	#, i
	addl	$1, -456(%rbp)	#, k
.L163:
	.loc 1 622 0 is_stmt 0 discriminator 1
	cmpl	$3, -464(%rbp)	#, i
	jle	.L164	#,
	.loc 1 621 0 is_stmt 1
	addl	$1, -460(%rbp)	#, j
.L162:
	.loc 1 621 0 is_stmt 0 discriminator 1
	cmpl	$3, -460(%rbp)	#, j
	jle	.L165	#,
	.loc 1 626 0 is_stmt 1
	movl	-472(%rbp), %eax	# ipmode, tmp1130
	cmpl	-392(%rbp), %eax	# mostProbableMode, tmp1130
	je	.L166	#,
	.loc 1 626 0 is_stmt 0 discriminator 1
	movsd	-512(%rbp), %xmm1	# lambda, tmp1131
	movsd	.LC2(%rip), %xmm0	#, tmp1132
	mulsd	%xmm1, %xmm0	# tmp1131, D.21085
	call	floor	#
	cvttsd2si	%xmm0, %eax	# D.21085, iftmp.121
	jmp	.L167	#
.L166:
	.loc 1 626 0 discriminator 2
	movl	$0, %eax	#, iftmp.121
.L167:
	.loc 1 626 0 discriminator 3
	movl	%eax, -384(%rbp)	# iftmp.121, cost
	.loc 1 627 0 is_stmt 1 discriminator 3
	movq	input(%rip), %rax	# input, input.122
	movl	24(%rax), %edx	# input.122_231->hadamard, D.21077
	leaq	-208(%rbp), %rax	#, tmp1133
	movl	%edx, %esi	# D.21077,
	movq	%rax, %rdi	# tmp1133,
	call	SATD	#
	addl	%eax, -384(%rbp)	# D.21077, cost
	.loc 1 628 0 discriminator 3
	movq	-520(%rbp), %rax	# min_cost, tmp1134
	movl	(%rax), %eax	# *min_cost_183(D), D.21077
	cmpl	-384(%rbp), %eax	# cost, D.21077
	jle	.L158	#,
	.loc 1 630 0
	movl	-472(%rbp), %eax	# ipmode, tmp1135
	movl	%eax, -468(%rbp)	# tmp1135, best_ipmode
	.loc 1 631 0
	movq	-520(%rbp), %rax	# min_cost, tmp1136
	movl	-384(%rbp), %edx	# cost, tmp1137
	movl	%edx, (%rax)	# tmp1137, *min_cost_183(D)
	jmp	.L158	#
.L161:
	.loc 1 637 0
	movq	img(%rip), %rax	# img, img.123
	movl	72724(%rax), %eax	# img.123_237->residue_transform_flag, D.21077
	testl	%eax, %eax	# D.21077
	jne	.L169	#,
	.loc 1 640 0
	movl	$0, -460(%rbp)	#, j
	jmp	.L170	#
.L173:
	.loc 1 641 0
	movl	$0, -464(%rbp)	#, i
	jmp	.L171	#
.L172:
	.loc 1 643 0 discriminator 2
	movq	img(%rip), %rax	# img, img.124
	movl	-464(%rbp), %edx	# i, tmp1138
	movl	-436(%rbp), %ecx	# block_x, tmp1139
	leal	(%rcx,%rdx), %r8d	#, D.21077
	movl	-460(%rbp), %edx	# j, tmp1140
	movl	-432(%rbp), %ecx	# block_y, tmp1141
	leal	(%rcx,%rdx), %r9d	#, D.21077
	movq	img(%rip), %rdx	# img, img.125
	movl	-464(%rbp), %ecx	# i, tmp1143
	movslq	%ecx, %rcx	# tmp1143, tmp1142
	movl	-472(%rbp), %esi	# ipmode, tmp1145
	movslq	%esi, %rdi	# tmp1145, tmp1144
	movl	-460(%rbp), %esi	# j, tmp1147
	movslq	%esi, %rsi	# tmp1147, tmp1146
	salq	$4, %rdi	#, tmp1148
	addq	%rdi, %rsi	# tmp1148, tmp1149
	salq	$4, %rsi	#, tmp1150
	addq	%rsi, %rcx	# tmp1150, tmp1151
	addq	$88, %rcx	#, tmp1152
	movzwl	8(%rdx,%rcx,2), %edx	# img.125_244->mprr, D.21084
	movslq	%r9d, %rcx	# D.21077, tmp1153
	movslq	%r8d, %rsi	# D.21077, tmp1154
	salq	$4, %rsi	#, tmp1155
	addq	%rsi, %rcx	# tmp1155, tmp1156
	addq	$6296, %rcx	#, tmp1157
	movw	%dx, 8(%rax,%rcx,2)	# D.21084, img.124_241->mpr
	.loc 1 644 0 discriminator 2
	movq	img(%rip), %rax	# img, img.126
	movq	imgY_org(%rip), %rdx	# imgY_org, imgY_org.127
	movl	-460(%rbp), %ecx	# j, tmp1158
	movl	-416(%rbp), %esi	# pic_opix_y, tmp1159
	addl	%esi, %ecx	# tmp1159, D.21077
	movslq	%ecx, %rcx	# D.21077, D.21079
	salq	$3, %rcx	#, D.21079
	addq	%rcx, %rdx	# D.21079, D.21082
	movq	(%rdx), %rdx	# *_251, D.21083
	movl	-464(%rbp), %ecx	# i, tmp1160
	movl	-420(%rbp), %esi	# pic_opix_x, tmp1161
	addl	%esi, %ecx	# tmp1161, D.21077
	movslq	%ecx, %rcx	# D.21077, D.21079
	addq	%rcx, %rcx	# D.21079
	addq	%rcx, %rdx	# D.21079, D.21083
	movzwl	(%rdx), %edx	# *_256, D.21084
	movzwl	%dx, %ecx	# D.21084, D.21077
	movq	img(%rip), %rdx	# img, img.128
	movl	-464(%rbp), %esi	# i, tmp1163
	movslq	%esi, %rsi	# tmp1163, tmp1162
	movl	-472(%rbp), %edi	# ipmode, tmp1165
	movslq	%edi, %r8	# tmp1165, tmp1164
	movl	-460(%rbp), %edi	# j, tmp1167
	movslq	%edi, %rdi	# tmp1167, tmp1166
	salq	$4, %r8	#, tmp1168
	addq	%r8, %rdi	# tmp1168, tmp1169
	salq	$4, %rdi	#, tmp1170
	addq	%rdi, %rsi	# tmp1170, tmp1171
	addq	$88, %rsi	#, tmp1172
	movzwl	8(%rdx,%rsi,2), %edx	# img.128_259->mprr, D.21084
	movzwl	%dx, %edx	# D.21084, D.21077
	subl	%edx, %ecx	# D.21077, D.21077
	movl	-460(%rbp), %edx	# j, tmp1174
	movslq	%edx, %rdx	# tmp1174, tmp1173
	movl	-464(%rbp), %esi	# i, tmp1176
	movslq	%esi, %rsi	# tmp1176, tmp1175
	salq	$4, %rsi	#, tmp1177
	addq	%rsi, %rdx	# tmp1177, tmp1178
	addq	$3276, %rdx	#, tmp1179
	movl	%ecx, 8(%rax,%rdx,4)	# D.21077, img.126_246->m7
	.loc 1 641 0 discriminator 2
	addl	$1, -464(%rbp)	#, i
.L171:
	.loc 1 641 0 is_stmt 0 discriminator 1
	cmpl	$3, -464(%rbp)	#, i
	jle	.L172	#,
	.loc 1 640 0 is_stmt 1
	addl	$1, -460(%rbp)	#, j
.L170:
	.loc 1 640 0 is_stmt 0 discriminator 1
	cmpl	$3, -460(%rbp)	#, j
	jle	.L173	#,
	.loc 1 648 0 is_stmt 1
	movq	cs_cm(%rip), %rax	# cs_cm, cs_cm.129
	movq	%rax, %rdi	# cs_cm.129,
	call	store_coding_state	#
	.loc 1 651 0
	movl	-392(%rbp), %r8d	# mostProbableMode, tmp1180
	movq	-360(%rbp), %rdx	# min_rdcost, tmp1181
	movq	-512(%rbp), %rax	# lambda, tmp1182
	movl	-472(%rbp), %ecx	# ipmode, tmp1183
	movl	-504(%rbp), %r9d	# b4, tmp1184
	movl	-500(%rbp), %esi	# b8, tmp1185
	leaq	-488(%rbp), %rdi	#, tmp1186
	movq	%rdx, -528(%rbp)	# tmp1181, %sfp
	movsd	-528(%rbp), %xmm1	# %sfp,
	movq	%rax, -528(%rbp)	# tmp1182, %sfp
	movsd	-528(%rbp), %xmm0	# %sfp,
	movl	%r9d, %edx	# tmp1184,
	call	RDCost_for_4x4IntraBlocks	#
	movsd	%xmm0, -528(%rbp)	#, %sfp
	movq	-528(%rbp), %rax	# %sfp, tmp1187
	movq	%rax, -344(%rbp)	# tmp1187, rdcost
	.loc 1 652 0
	movsd	-344(%rbp), %xmm0	# rdcost, tmp1188
	subsd	-360(%rbp), %xmm0	# min_rdcost, D.21085
	movsd	.LC3(%rip), %xmm1	#, tmp1189
	andpd	%xmm1, %xmm0	# tmp1189, D.21085
	ucomisd	-352(%rbp), %xmm0	# epsilon, D.21085
	jbe	.L174	#,
	.loc 1 652 0 is_stmt 0 discriminator 1
	movsd	-360(%rbp), %xmm0	# min_rdcost, tmp1190
	ucomisd	-344(%rbp), %xmm0	# rdcost, tmp1190
	jbe	.L174	#,
	.loc 1 658 0 is_stmt 1
	movl	$0, -460(%rbp)	#, j
	jmp	.L177	#
.L180:
	.loc 1 659 0
	movl	$0, -464(%rbp)	#, i
	jmp	.L178	#
.L179:
	.loc 1 659 0 is_stmt 0 discriminator 2
	movq	cofAC4x4(%rip), %rax	# cofAC4x4, cofAC4x4.130
	movl	-460(%rbp), %edx	# j, tmp1191
	movslq	%edx, %rdx	# tmp1191, D.21079
	salq	$3, %rdx	#, D.21079
	addq	%rdx, %rax	# D.21079, D.21081
	movq	(%rax), %rax	# *_274, D.21080
	movl	-464(%rbp), %edx	# i, tmp1192
	movslq	%edx, %rdx	# tmp1192, D.21079
	salq	$2, %rdx	#, D.21079
	addq	%rax, %rdx	# D.21080, D.21080
	movq	img(%rip), %rax	# img, img.131
	movq	14136(%rax), %rax	# img.131_279->cofAC, D.21086
	movl	-500(%rbp), %ecx	# b8, tmp1193
	movslq	%ecx, %rcx	# tmp1193, D.21079
	salq	$3, %rcx	#, D.21079
	addq	%rcx, %rax	# D.21079, D.21086
	movq	(%rax), %rax	# *_283, D.21087
	movl	-504(%rbp), %ecx	# b4, tmp1194
	movslq	%ecx, %rcx	# tmp1194, D.21079
	salq	$3, %rcx	#, D.21079
	addq	%rcx, %rax	# D.21079, D.21087
	movq	(%rax), %rax	# *_287, D.21081
	movl	-460(%rbp), %ecx	# j, tmp1195
	movslq	%ecx, %rcx	# tmp1195, D.21079
	salq	$3, %rcx	#, D.21079
	addq	%rcx, %rax	# D.21079, D.21081
	movq	(%rax), %rax	# *_291, D.21080
	movl	-464(%rbp), %ecx	# i, tmp1196
	movslq	%ecx, %rcx	# tmp1196, D.21079
	salq	$2, %rcx	#, D.21079
	addq	%rcx, %rax	# D.21079, D.21080
	movl	(%rax), %eax	# *_295, D.21077
	movl	%eax, (%rdx)	# D.21077, *_278
	addl	$1, -464(%rbp)	#, i
.L178:
	.loc 1 659 0 discriminator 1
	cmpl	$17, -464(%rbp)	#, i
	jle	.L179	#,
	.loc 1 658 0 is_stmt 1
	addl	$1, -460(%rbp)	#, j
.L177:
	.loc 1 658 0 is_stmt 0 discriminator 1
	cmpl	$1, -460(%rbp)	#, j
	jle	.L180	#,
	.loc 1 662 0 is_stmt 1
	movl	$0, -448(%rbp)	#, y
	jmp	.L181	#
.L184:
	.loc 1 663 0
	movl	$0, -452(%rbp)	#, x
	jmp	.L182	#
.L183:
	.loc 1 663 0 is_stmt 0 discriminator 2
	movq	enc_picture(%rip), %rax	# enc_picture, enc_picture.132
	movq	6424(%rax), %rax	# enc_picture.132_301->imgY, D.21082
	movl	-448(%rbp), %edx	# y, tmp1197
	movl	-424(%rbp), %ecx	# pic_pix_y, tmp1198
	addl	%ecx, %edx	# tmp1198, D.21077
	movslq	%edx, %rdx	# D.21077, D.21079
	salq	$3, %rdx	#, D.21079
	addq	%rdx, %rax	# D.21079, D.21082
	movq	(%rax), %rax	# *_306, D.21083
	movl	-452(%rbp), %edx	# x, tmp1199
	movl	-428(%rbp), %ecx	# pic_pix_x, tmp1200
	addl	%ecx, %edx	# tmp1200, D.21077
	movslq	%edx, %rdx	# D.21077, D.21079
	addq	%rdx, %rdx	# D.21079
	addq	%rdx, %rax	# D.21079, D.21083
	movzwl	(%rax), %eax	# *_311, D.21084
	movzwl	%ax, %eax	# D.21084, D.21077
	movl	-452(%rbp), %edx	# x, tmp1202
	movslq	%edx, %rdx	# tmp1202, tmp1201
	movl	-448(%rbp), %ecx	# y, tmp1204
	movslq	%ecx, %rcx	# tmp1204, tmp1203
	salq	$2, %rcx	#, tmp1205
	addq	%rcx, %rdx	# tmp1205, tmp1206
	movl	%eax, -272(%rbp,%rdx,4)	# D.21077, rec4x4
	addl	$1, -452(%rbp)	#, x
.L182:
	.loc 1 663 0 discriminator 1
	cmpl	$3, -452(%rbp)	#, x
	jle	.L183	#,
	.loc 1 662 0 is_stmt 1
	addl	$1, -448(%rbp)	#, y
.L181:
	.loc 1 662 0 is_stmt 0 discriminator 1
	cmpl	$3, -448(%rbp)	#, y
	jle	.L184	#,
	.loc 1 666 0 is_stmt 1
	movl	-488(%rbp), %eax	# c_nz, tmp1207
	movl	%eax, -444(%rbp)	# tmp1207, nonzero
	.loc 1 669 0
	movq	-344(%rbp), %rax	# rdcost, tmp1208
	movq	%rax, -360(%rbp)	# tmp1208, min_rdcost
	.loc 1 670 0
	movl	-472(%rbp), %eax	# ipmode, tmp1209
	movl	%eax, -468(%rbp)	# tmp1209, best_ipmode
.L174:
	.loc 1 676 0
	movq	cs_cm(%rip), %rax	# cs_cm, cs_cm.133
	movq	%rax, %rdi	# cs_cm.133,
	call	reset_coding_state	#
	jmp	.L158	#
.L169:
	.loc 1 680 0
	movl	$0, -460(%rbp)	#, j
	jmp	.L185	#
.L188:
	.loc 1 681 0
	movl	$0, -464(%rbp)	#, i
	jmp	.L186	#
.L187:
	.loc 1 683 0 discriminator 2
	movq	imgUV_org(%rip), %rax	# imgUV_org, imgUV_org.134
	movq	(%rax), %rax	# *imgUV_org.134_322, D.21082
	movl	-460(%rbp), %edx	# j, tmp1210
	movl	-416(%rbp), %ecx	# pic_opix_y, tmp1211
	addl	%ecx, %edx	# tmp1211, D.21077
	movslq	%edx, %rdx	# D.21077, D.21079
	salq	$3, %rdx	#, D.21079
	addq	%rdx, %rax	# D.21079, D.21082
	movq	(%rax), %rax	# *_327, D.21083
	movl	-464(%rbp), %edx	# i, tmp1212
	movl	-420(%rbp), %ecx	# pic_opix_x, tmp1213
	addl	%ecx, %edx	# tmp1213, D.21077
	movslq	%edx, %rdx	# D.21077, D.21079
	addq	%rdx, %rdx	# D.21079
	addq	%rdx, %rax	# D.21079, D.21083
	movzwl	(%rax), %eax	# *_332, D.21084
	movzwl	%ax, %edx	# D.21084, D.21077
	movq	img(%rip), %rax	# img, img.135
	movl	-464(%rbp), %ecx	# i, tmp1214
	movl	-436(%rbp), %esi	# block_x, tmp1215
	leal	(%rsi,%rcx), %r8d	#, D.21077
	movl	-460(%rbp), %ecx	# j, tmp1216
	movl	-432(%rbp), %esi	# block_y, tmp1217
	addl	%esi, %ecx	# tmp1217, D.21077
	movslq	%ecx, %rcx	# D.21077, tmp1218
	movl	-404(%rbp), %esi	# c_ipmode, tmp1220
	movslq	%esi, %rdi	# tmp1220, tmp1219
	movslq	%r8d, %rsi	# D.21077, tmp1221
	salq	$4, %rdi	#, tmp1222
	addq	%rdi, %rsi	# tmp1222, tmp1223
	salq	$4, %rsi	#, tmp1224
	addq	%rsi, %rcx	# tmp1224, tmp1225
	addq	$4248, %rcx	#, tmp1226
	movzwl	8(%rax,%rcx,2), %eax	# img.135_335->mprr_c, D.21084
	movzwl	%ax, %eax	# D.21084, D.21077
	subl	%eax, %edx	# D.21077, tmp1227
	movl	%edx, %eax	# tmp1227, tmp1227
	movl	%eax, -380(%rbp)	# tmp1227, residue_B
	.loc 1 684 0 discriminator 2
	movq	imgY_org(%rip), %rax	# imgY_org, imgY_org.136
	movl	-460(%rbp), %edx	# j, tmp1228
	movl	-416(%rbp), %ecx	# pic_opix_y, tmp1229
	addl	%ecx, %edx	# tmp1229, D.21077
	movslq	%edx, %rdx	# D.21077, D.21079
	salq	$3, %rdx	#, D.21079
	addq	%rdx, %rax	# D.21079, D.21082
	movq	(%rax), %rax	# *_345, D.21083
	movl	-464(%rbp), %edx	# i, tmp1230
	movl	-420(%rbp), %ecx	# pic_opix_x, tmp1231
	addl	%ecx, %edx	# tmp1231, D.21077
	movslq	%edx, %rdx	# D.21077, D.21079
	addq	%rdx, %rdx	# D.21079
	addq	%rdx, %rax	# D.21079, D.21083
	movzwl	(%rax), %eax	# *_350, D.21084
	movzwl	%ax, %edx	# D.21084, D.21077
	movq	img(%rip), %rax	# img, img.137
	movl	-464(%rbp), %ecx	# i, tmp1233
	movslq	%ecx, %rcx	# tmp1233, tmp1232
	movl	-472(%rbp), %esi	# ipmode, tmp1235
	movslq	%esi, %rdi	# tmp1235, tmp1234
	movl	-460(%rbp), %esi	# j, tmp1237
	movslq	%esi, %rsi	# tmp1237, tmp1236
	salq	$4, %rdi	#, tmp1238
	addq	%rdi, %rsi	# tmp1238, tmp1239
	salq	$4, %rsi	#, tmp1240
	addq	%rsi, %rcx	# tmp1240, tmp1241
	addq	$88, %rcx	#, tmp1242
	movzwl	8(%rax,%rcx,2), %eax	# img.137_353->mprr, D.21084
	movzwl	%ax, %eax	# D.21084, D.21077
	subl	%eax, %edx	# D.21077, tmp1243
	movl	%edx, %eax	# tmp1243, tmp1243
	movl	%eax, -376(%rbp)	# tmp1243, residue_G
	.loc 1 685 0 discriminator 2
	movq	imgUV_org(%rip), %rax	# imgUV_org, imgUV_org.138
	addq	$8, %rax	#, D.21088
	movq	(%rax), %rax	# *_358, D.21082
	movl	-460(%rbp), %edx	# j, tmp1244
	movl	-416(%rbp), %ecx	# pic_opix_y, tmp1245
	addl	%ecx, %edx	# tmp1245, D.21077
	movslq	%edx, %rdx	# D.21077, D.21079
	salq	$3, %rdx	#, D.21079
	addq	%rdx, %rax	# D.21079, D.21082
	movq	(%rax), %rax	# *_363, D.21083
	movl	-464(%rbp), %edx	# i, tmp1246
	movl	-420(%rbp), %ecx	# pic_opix_x, tmp1247
	addl	%ecx, %edx	# tmp1247, D.21077
	movslq	%edx, %rdx	# D.21077, D.21079
	addq	%rdx, %rdx	# D.21079
	addq	%rdx, %rax	# D.21079, D.21083
	movzwl	(%rax), %eax	# *_368, D.21084
	movzwl	%ax, %edx	# D.21084, D.21077
	movq	img(%rip), %rax	# img, img.139
	movl	-464(%rbp), %ecx	# i, tmp1248
	movl	-436(%rbp), %esi	# block_x, tmp1249
	leal	(%rsi,%rcx), %r8d	#, D.21077
	movl	-460(%rbp), %ecx	# j, tmp1250
	movl	-432(%rbp), %esi	# block_y, tmp1251
	addl	%esi, %ecx	# tmp1251, D.21077
	movslq	%ecx, %rcx	# D.21077, tmp1252
	movl	-404(%rbp), %esi	# c_ipmode, tmp1254
	movslq	%esi, %rdi	# tmp1254, tmp1253
	movslq	%r8d, %rsi	# D.21077, tmp1255
	salq	$4, %rdi	#, tmp1256
	addq	%rdi, %rsi	# tmp1256, tmp1257
	salq	$4, %rsi	#, tmp1258
	addq	%rsi, %rcx	# tmp1258, tmp1259
	addq	$5272, %rcx	#, tmp1260
	movzwl	8(%rax,%rcx,2), %eax	# img.139_371->mprr_c, D.21084
	movzwl	%ax, %eax	# D.21084, D.21077
	subl	%eax, %edx	# D.21077, tmp1261
	movl	%edx, %eax	# tmp1261, tmp1261
	movl	%eax, -372(%rbp)	# tmp1261, residue_R
	.loc 1 688 0 discriminator 2
	movl	-380(%rbp), %eax	# residue_B, tmp1262
	movl	-372(%rbp), %edx	# residue_R, tmp1263
	subl	%eax, %edx	# tmp1262, D.21077
	movl	-460(%rbp), %eax	# j, tmp1265
	cltq
	movl	-464(%rbp), %ecx	# i, tmp1267
	movslq	%ecx, %rcx	# tmp1267, tmp1266
	salq	$4, %rcx	#, tmp1268
	addq	%rcx, %rax	# tmp1268, tmp1269
	movl	%edx, resTrans_R(,%rax,4)	# D.21077, resTrans_R
	.loc 1 689 0 discriminator 2
	movl	-460(%rbp), %eax	# j, tmp1271
	cltq
	movl	-464(%rbp), %edx	# i, tmp1273
	movslq	%edx, %rdx	# tmp1273, tmp1272
	salq	$4, %rdx	#, tmp1274
	addq	%rdx, %rax	# tmp1274, tmp1275
	movl	resTrans_R(,%rax,4), %eax	# resTrans_R, D.21077
	sarl	%eax	# D.21077
	movl	%eax, %edx	# D.21077, D.21077
	movl	-380(%rbp), %eax	# residue_B, tmp1279
	addl	%edx, %eax	# D.21077, tmp1278
	movl	%eax, -368(%rbp)	# tmp1278, temp
	.loc 1 690 0 discriminator 2
	movl	-368(%rbp), %eax	# temp, tmp1280
	movl	-376(%rbp), %edx	# residue_G, tmp1281
	subl	%eax, %edx	# tmp1280, D.21077
	movl	-460(%rbp), %eax	# j, tmp1283
	cltq
	movl	-464(%rbp), %ecx	# i, tmp1285
	movslq	%ecx, %rcx	# tmp1285, tmp1284
	salq	$4, %rcx	#, tmp1286
	addq	%rcx, %rax	# tmp1286, tmp1287
	movl	%edx, resTrans_B(,%rax,4)	# D.21077, resTrans_B
	.loc 1 691 0 discriminator 2
	movl	-460(%rbp), %eax	# j, tmp1289
	cltq
	movl	-464(%rbp), %edx	# i, tmp1291
	movslq	%edx, %rdx	# tmp1291, tmp1290
	salq	$4, %rdx	#, tmp1292
	addq	%rdx, %rax	# tmp1292, tmp1293
	movl	resTrans_B(,%rax,4), %eax	# resTrans_B, D.21077
	sarl	%eax	# D.21077
	movl	%eax, %edx	# D.21077, D.21077
	movl	-368(%rbp), %eax	# temp, tmp1294
	addl	%eax, %edx	# tmp1294, D.21077
	movl	-460(%rbp), %eax	# j, tmp1296
	cltq
	movl	-464(%rbp), %ecx	# i, tmp1298
	movslq	%ecx, %rcx	# tmp1298, tmp1297
	salq	$4, %rcx	#, tmp1299
	addq	%rcx, %rax	# tmp1299, tmp1300
	movl	%edx, resTrans_G(,%rax,4)	# D.21077, resTrans_G
	.loc 1 681 0 discriminator 2
	addl	$1, -464(%rbp)	#, i
.L186:
	.loc 1 681 0 is_stmt 0 discriminator 1
	cmpl	$3, -464(%rbp)	#, i
	jle	.L187	#,
	.loc 1 680 0 is_stmt 1
	addl	$1, -460(%rbp)	#, j
.L185:
	.loc 1 680 0 is_stmt 0 discriminator 1
	cmpl	$3, -460(%rbp)	#, j
	jle	.L188	#,
	.loc 1 694 0 is_stmt 1
	movl	$0, -460(%rbp)	#, j
	jmp	.L189	#
.L192:
	.loc 1 695 0
	movl	$0, -464(%rbp)	#, i
	jmp	.L190	#
.L191:
	.loc 1 697 0 discriminator 2
	movq	img(%rip), %rax	# img, img.140
	movl	-460(%rbp), %edx	# j, tmp1302
	movslq	%edx, %rdx	# tmp1302, tmp1301
	movl	-464(%rbp), %ecx	# i, tmp1304
	movslq	%ecx, %rcx	# tmp1304, tmp1303
	salq	$4, %rcx	#, tmp1305
	addq	%rcx, %rdx	# tmp1305, tmp1306
	movl	resTrans_G(,%rdx,4), %edx	# resTrans_G, D.21077
	movl	-460(%rbp), %ecx	# j, tmp1308
	movslq	%ecx, %rcx	# tmp1308, tmp1307
	movl	-464(%rbp), %esi	# i, tmp1310
	movslq	%esi, %rsi	# tmp1310, tmp1309
	salq	$4, %rsi	#, tmp1311
	addq	%rsi, %rcx	# tmp1311, tmp1312
	addq	$3276, %rcx	#, tmp1313
	movl	%edx, 8(%rax,%rcx,4)	# D.21077, img.140_389->m7
	.loc 1 695 0 discriminator 2
	addl	$1, -464(%rbp)	#, i
.L190:
	.loc 1 695 0 is_stmt 0 discriminator 1
	cmpl	$3, -464(%rbp)	#, i
	jle	.L191	#,
	.loc 1 694 0 is_stmt 1
	addl	$1, -460(%rbp)	#, j
.L189:
	.loc 1 694 0 is_stmt 0 discriminator 1
	cmpl	$3, -460(%rbp)	#, j
	jle	.L192	#,
	.loc 1 700 0 is_stmt 1
	movq	cs_cm(%rip), %rax	# cs_cm, cs_cm.141
	movq	%rax, %rdi	# cs_cm.141,
	call	store_coding_state	#
	.loc 1 701 0
	movl	-392(%rbp), %r8d	# mostProbableMode, tmp1314
	movq	-360(%rbp), %rdx	# min_rdcost, tmp1315
	movq	-512(%rbp), %rax	# lambda, tmp1316
	movl	-472(%rbp), %ecx	# ipmode, tmp1317
	movl	-504(%rbp), %r9d	# b4, tmp1318
	movl	-500(%rbp), %esi	# b8, tmp1319
	leaq	-488(%rbp), %rdi	#, tmp1320
	movq	%rdx, -528(%rbp)	# tmp1315, %sfp
	movsd	-528(%rbp), %xmm1	# %sfp,
	movq	%rax, -528(%rbp)	# tmp1316, %sfp
	movsd	-528(%rbp), %xmm0	# %sfp,
	movl	%r9d, %edx	# tmp1318,
	call	RDCost_for_4x4IntraBlocks	#
	cvttsd2si	%xmm0, %eax	# D.21085, tmp1321
	movl	%eax, -364(%rbp)	# tmp1321, rate
	.loc 1 702 0
	movq	cs_cm(%rip), %rax	# cs_cm, cs_cm.142
	movq	%rax, %rdi	# cs_cm.142,
	call	reset_coding_state	#
	.loc 1 704 0
	movl	$0, -460(%rbp)	#, j
	jmp	.L193	#
.L196:
	.loc 1 705 0
	movl	$0, -464(%rbp)	#, i
	jmp	.L194	#
.L195:
	.loc 1 707 0 discriminator 2
	movq	img(%rip), %rax	# img, img.143
	movl	-460(%rbp), %edx	# j, tmp1323
	movslq	%edx, %rdx	# tmp1323, tmp1322
	movl	-464(%rbp), %ecx	# i, tmp1325
	movslq	%ecx, %rcx	# tmp1325, tmp1324
	salq	$4, %rcx	#, tmp1326
	addq	%rcx, %rdx	# tmp1326, tmp1327
	addq	$3276, %rdx	#, tmp1328
	movl	8(%rax,%rdx,4), %eax	# img.143_399->m7, D.21077
	movl	-460(%rbp), %edx	# j, tmp1330
	movslq	%edx, %rdx	# tmp1330, tmp1329
	movl	-464(%rbp), %ecx	# i, tmp1332
	movslq	%ecx, %rcx	# tmp1332, tmp1331
	salq	$4, %rcx	#, tmp1333
	addq	%rcx, %rdx	# tmp1333, tmp1334
	movl	%eax, rec_resG(,%rdx,4)	# D.21077, rec_resG
	.loc 1 708 0 discriminator 2
	movq	img(%rip), %rax	# img, img.144
	movl	-460(%rbp), %edx	# j, tmp1336
	movslq	%edx, %rdx	# tmp1336, tmp1335
	movl	-464(%rbp), %ecx	# i, tmp1338
	movslq	%ecx, %rcx	# tmp1338, tmp1337
	salq	$4, %rcx	#, tmp1339
	addq	%rcx, %rdx	# tmp1339, tmp1340
	movl	resTrans_R(,%rdx,4), %edx	# resTrans_R, D.21077
	movl	-460(%rbp), %ecx	# j, tmp1342
	movslq	%ecx, %rcx	# tmp1342, tmp1341
	movl	-464(%rbp), %esi	# i, tmp1344
	movslq	%esi, %rsi	# tmp1344, tmp1343
	salq	$4, %rsi	#, tmp1345
	addq	%rsi, %rcx	# tmp1345, tmp1346
	addq	$3276, %rcx	#, tmp1347
	movl	%edx, 8(%rax,%rcx,4)	# D.21077, img.144_401->m7
	.loc 1 705 0 discriminator 2
	addl	$1, -464(%rbp)	#, i
.L194:
	.loc 1 705 0 is_stmt 0 discriminator 1
	cmpl	$3, -464(%rbp)	#, i
	jle	.L195	#,
	.loc 1 704 0 is_stmt 1
	addl	$1, -460(%rbp)	#, j
.L193:
	.loc 1 704 0 is_stmt 0 discriminator 1
	cmpl	$3, -460(%rbp)	#, j
	jle	.L196	#,
	.loc 1 710 0 is_stmt 1
	movq	cs_cm(%rip), %rax	# cs_cm, cs_cm.145
	movq	%rax, %rdi	# cs_cm.145,
	call	store_coding_state	#
	.loc 1 711 0
	movl	-500(%rbp), %eax	# b8, tmp1348
	leal	4(%rax), %ecx	#, D.21077
	movl	-504(%rbp), %eax	# b4, tmp1349
	movl	$0, %edx	#,
	movl	%eax, %esi	# tmp1349,
	movl	%ecx, %edi	# D.21077,
	call	RDCost_for_4x4Blocks_Chroma	#
	addl	%eax, -364(%rbp)	# D.21077, rate
	.loc 1 712 0
	movl	$0, -460(%rbp)	#, j
	jmp	.L197	#
.L200:
	.loc 1 713 0
	movl	$0, -464(%rbp)	#, i
	jmp	.L198	#
.L199:
	.loc 1 715 0 discriminator 2
	movq	img(%rip), %rax	# img, img.146
	movl	-460(%rbp), %edx	# j, tmp1351
	movslq	%edx, %rdx	# tmp1351, tmp1350
	movl	-464(%rbp), %ecx	# i, tmp1353
	movslq	%ecx, %rcx	# tmp1353, tmp1352
	salq	$4, %rcx	#, tmp1354
	addq	%rcx, %rdx	# tmp1354, tmp1355
	addq	$3276, %rdx	#, tmp1356
	movl	8(%rax,%rdx,4), %eax	# img.146_411->m7, D.21077
	movl	-460(%rbp), %edx	# j, tmp1358
	movslq	%edx, %rdx	# tmp1358, tmp1357
	movl	-464(%rbp), %ecx	# i, tmp1360
	movslq	%ecx, %rcx	# tmp1360, tmp1359
	salq	$4, %rcx	#, tmp1361
	addq	%rcx, %rdx	# tmp1361, tmp1362
	movl	%eax, rec_resR(,%rdx,4)	# D.21077, rec_resR
	.loc 1 716 0 discriminator 2
	movq	img(%rip), %rax	# img, img.147
	movl	-460(%rbp), %edx	# j, tmp1364
	movslq	%edx, %rdx	# tmp1364, tmp1363
	movl	-464(%rbp), %ecx	# i, tmp1366
	movslq	%ecx, %rcx	# tmp1366, tmp1365
	salq	$4, %rcx	#, tmp1367
	addq	%rcx, %rdx	# tmp1367, tmp1368
	movl	resTrans_B(,%rdx,4), %edx	# resTrans_B, D.21077
	movl	-460(%rbp), %ecx	# j, tmp1370
	movslq	%ecx, %rcx	# tmp1370, tmp1369
	movl	-464(%rbp), %esi	# i, tmp1372
	movslq	%esi, %rsi	# tmp1372, tmp1371
	salq	$4, %rsi	#, tmp1373
	addq	%rsi, %rcx	# tmp1373, tmp1374
	addq	$3276, %rcx	#, tmp1375
	movl	%edx, 8(%rax,%rcx,4)	# D.21077, img.147_413->m7
	.loc 1 713 0 discriminator 2
	addl	$1, -464(%rbp)	#, i
.L198:
	.loc 1 713 0 is_stmt 0 discriminator 1
	cmpl	$3, -464(%rbp)	#, i
	jle	.L199	#,
	.loc 1 712 0 is_stmt 1
	addl	$1, -460(%rbp)	#, j
.L197:
	.loc 1 712 0 is_stmt 0 discriminator 1
	cmpl	$3, -460(%rbp)	#, j
	jle	.L200	#,
	.loc 1 718 0 is_stmt 1
	movl	-500(%rbp), %eax	# b8, tmp1376
	leal	8(%rax), %ecx	#, D.21077
	movl	-504(%rbp), %eax	# b4, tmp1377
	movl	$1, %edx	#,
	movl	%eax, %esi	# tmp1377,
	movl	%ecx, %edi	# D.21077,
	call	RDCost_for_4x4Blocks_Chroma	#
	addl	%eax, -364(%rbp)	# D.21077, rate
	.loc 1 719 0
	movq	cs_cm(%rip), %rax	# cs_cm, cs_cm.148
	movq	%rax, %rdi	# cs_cm.148,
	call	reset_coding_state	#
	.loc 1 720 0
	movl	$0, -460(%rbp)	#, j
	jmp	.L201	#
.L204:
	.loc 1 721 0
	movl	$0, -464(%rbp)	#, i
	jmp	.L202	#
.L203:
	.loc 1 723 0 discriminator 2
	movq	img(%rip), %rax	# img, img.149
	movl	-460(%rbp), %edx	# j, tmp1379
	movslq	%edx, %rdx	# tmp1379, tmp1378
	movl	-464(%rbp), %ecx	# i, tmp1381
	movslq	%ecx, %rcx	# tmp1381, tmp1380
	salq	$4, %rcx	#, tmp1382
	addq	%rcx, %rdx	# tmp1382, tmp1383
	addq	$3276, %rdx	#, tmp1384
	movl	8(%rax,%rdx,4), %eax	# img.149_423->m7, D.21077
	movl	-460(%rbp), %edx	# j, tmp1386
	movslq	%edx, %rdx	# tmp1386, tmp1385
	movl	-464(%rbp), %ecx	# i, tmp1388
	movslq	%ecx, %rcx	# tmp1388, tmp1387
	salq	$4, %rcx	#, tmp1389
	addq	%rcx, %rdx	# tmp1389, tmp1390
	movl	%eax, rec_resB(,%rdx,4)	# D.21077, rec_resB
	.loc 1 721 0 discriminator 2
	addl	$1, -464(%rbp)	#, i
.L202:
	.loc 1 721 0 is_stmt 0 discriminator 1
	cmpl	$3, -464(%rbp)	#, i
	jle	.L203	#,
	.loc 1 720 0 is_stmt 1
	addl	$1, -460(%rbp)	#, j
.L201:
	.loc 1 720 0 is_stmt 0 discriminator 1
	cmpl	$3, -460(%rbp)	#, j
	jle	.L204	#,
	.loc 1 726 0 is_stmt 1
	movl	$0, -460(%rbp)	#, j
	jmp	.L205	#
.L208:
	.loc 1 727 0
	movl	$0, -464(%rbp)	#, i
	jmp	.L206	#
.L207:
	.loc 1 730 0 discriminator 2
	movl	-460(%rbp), %eax	# j, tmp1392
	cltq
	movl	-464(%rbp), %edx	# i, tmp1394
	movslq	%edx, %rdx	# tmp1394, tmp1393
	salq	$4, %rdx	#, tmp1395
	addq	%rdx, %rax	# tmp1395, tmp1396
	movl	rec_resG(,%rax,4), %eax	# rec_resG, D.21077
	movl	-460(%rbp), %edx	# j, tmp1398
	movslq	%edx, %rdx	# tmp1398, tmp1397
	movl	-464(%rbp), %ecx	# i, tmp1400
	movslq	%ecx, %rcx	# tmp1400, tmp1399
	salq	$4, %rcx	#, tmp1401
	addq	%rcx, %rdx	# tmp1401, tmp1402
	movl	rec_resB(,%rdx,4), %edx	# rec_resB, D.21077
	sarl	%edx	# D.21077
	subl	%edx, %eax	# D.21077, tmp1403
	movl	%eax, -368(%rbp)	# tmp1403, temp
	.loc 1 731 0 discriminator 2
	movl	-460(%rbp), %eax	# j, tmp1405
	cltq
	movl	-464(%rbp), %edx	# i, tmp1407
	movslq	%edx, %rdx	# tmp1407, tmp1406
	salq	$4, %rdx	#, tmp1408
	addq	%rdx, %rax	# tmp1408, tmp1409
	movl	rec_resB(,%rax,4), %edx	# rec_resB, D.21077
	movl	-368(%rbp), %eax	# temp, tmp1413
	addl	%edx, %eax	# D.21077, tmp1412
	movl	%eax, -376(%rbp)	# tmp1412, residue_G
	.loc 1 732 0 discriminator 2
	movl	-460(%rbp), %eax	# j, tmp1415
	cltq
	movl	-464(%rbp), %edx	# i, tmp1417
	movslq	%edx, %rdx	# tmp1417, tmp1416
	salq	$4, %rdx	#, tmp1418
	addq	%rdx, %rax	# tmp1418, tmp1419
	movl	rec_resR(,%rax,4), %eax	# rec_resR, D.21077
	sarl	%eax	# D.21077
	movl	%eax, %edx	# D.21077, D.21077
	movl	-368(%rbp), %eax	# temp, tmp1423
	subl	%edx, %eax	# D.21077, tmp1422
	movl	%eax, -380(%rbp)	# tmp1422, residue_B
	.loc 1 733 0 discriminator 2
	movl	-460(%rbp), %eax	# j, tmp1425
	cltq
	movl	-464(%rbp), %edx	# i, tmp1427
	movslq	%edx, %rdx	# tmp1427, tmp1426
	salq	$4, %rdx	#, tmp1428
	addq	%rdx, %rax	# tmp1428, tmp1429
	movl	rec_resR(,%rax,4), %edx	# rec_resR, D.21077
	movl	-380(%rbp), %eax	# residue_B, tmp1433
	addl	%edx, %eax	# D.21077, tmp1432
	movl	%eax, -372(%rbp)	# tmp1432, residue_R
	.loc 1 734 0 discriminator 2
	movq	enc_picture(%rip), %rax	# enc_picture, enc_picture.150
	movq	6464(%rax), %rax	# enc_picture.150_440->imgUV, D.21088
	movq	(%rax), %rax	# *_441, D.21082
	movl	-460(%rbp), %edx	# j, tmp1434
	movl	-424(%rbp), %ecx	# pic_pix_y, tmp1435
	addl	%ecx, %edx	# tmp1435, D.21077
	movslq	%edx, %rdx	# D.21077, D.21079
	salq	$3, %rdx	#, D.21079
	addq	%rdx, %rax	# D.21079, D.21082
	movq	(%rax), %rax	# *_446, D.21083
	movl	-464(%rbp), %edx	# i, tmp1436
	movl	-428(%rbp), %ecx	# pic_pix_x, tmp1437
	addl	%ecx, %edx	# tmp1437, D.21077
	movslq	%edx, %rdx	# D.21077, D.21079
	addq	%rdx, %rdx	# D.21079
	leaq	(%rax,%rdx), %rcx	#, D.21083
	movq	img(%rip), %rax	# img, img.151
	movl	-464(%rbp), %edx	# i, tmp1438
	movl	-436(%rbp), %esi	# block_x, tmp1439
	leal	(%rsi,%rdx), %r8d	#, D.21077
	movl	-460(%rbp), %edx	# j, tmp1440
	movl	-432(%rbp), %esi	# block_y, tmp1441
	addl	%esi, %edx	# tmp1441, D.21077
	movslq	%edx, %rdx	# D.21077, tmp1442
	movl	-404(%rbp), %esi	# c_ipmode, tmp1444
	movslq	%esi, %rdi	# tmp1444, tmp1443
	movslq	%r8d, %rsi	# D.21077, tmp1445
	salq	$4, %rdi	#, tmp1446
	addq	%rdi, %rsi	# tmp1446, tmp1447
	salq	$4, %rsi	#, tmp1448
	addq	%rsi, %rdx	# tmp1448, tmp1449
	addq	$4248, %rdx	#, tmp1450
	movzwl	8(%rax,%rdx,2), %eax	# img.151_452->mprr_c, D.21084
	movzwl	%ax, %edx	# D.21084, D.21077
	movl	-380(%rbp), %eax	# residue_B, tmp1451
	addl	%edx, %eax	# D.21077, D.21077
	movl	$0, %edx	#, tmp1452
	testl	%eax, %eax	# D.21077
	cmovns	%eax, %edx	# D.21077,, D.21077
	movq	img(%rip), %rax	# img, img.152
	movl	72688(%rax), %eax	# img.152_459->max_imgpel_value_uv, D.21077
	cmpl	%eax, %edx	# D.21077, D.21077
	cmovle	%edx, %eax	# D.21077,, D.21077
	movw	%ax, (%rcx)	# D.21084, *_451
	.loc 1 735 0 discriminator 2
	movq	enc_picture(%rip), %rax	# enc_picture, enc_picture.153
	movq	6424(%rax), %rax	# enc_picture.153_463->imgY, D.21082
	movl	-460(%rbp), %edx	# j, tmp1453
	movl	-424(%rbp), %ecx	# pic_pix_y, tmp1454
	addl	%ecx, %edx	# tmp1454, D.21077
	movslq	%edx, %rdx	# D.21077, D.21079
	salq	$3, %rdx	#, D.21079
	addq	%rdx, %rax	# D.21079, D.21082
	movq	(%rax), %rax	# *_468, D.21083
	movl	-464(%rbp), %edx	# i, tmp1455
	movl	-428(%rbp), %ecx	# pic_pix_x, tmp1456
	addl	%ecx, %edx	# tmp1456, D.21077
	movslq	%edx, %rdx	# D.21077, D.21079
	addq	%rdx, %rdx	# D.21079
	leaq	(%rax,%rdx), %rcx	#, D.21083
	movq	img(%rip), %rax	# img, img.154
	movl	-464(%rbp), %edx	# i, tmp1458
	movslq	%edx, %rdx	# tmp1458, tmp1457
	movl	-472(%rbp), %esi	# ipmode, tmp1460
	movslq	%esi, %rdi	# tmp1460, tmp1459
	movl	-460(%rbp), %esi	# j, tmp1462
	movslq	%esi, %rsi	# tmp1462, tmp1461
	salq	$4, %rdi	#, tmp1463
	addq	%rdi, %rsi	# tmp1463, tmp1464
	salq	$4, %rsi	#, tmp1465
	addq	%rsi, %rdx	# tmp1465, tmp1466
	addq	$88, %rdx	#, tmp1467
	movzwl	8(%rax,%rdx,2), %eax	# img.154_474->mprr, D.21084
	movzwl	%ax, %edx	# D.21084, D.21077
	movl	-376(%rbp), %eax	# residue_G, tmp1468
	addl	%edx, %eax	# D.21077, D.21077
	movl	$0, %edx	#, tmp1469
	testl	%eax, %eax	# D.21077
	cmovns	%eax, %edx	# D.21077,, D.21077
	movq	img(%rip), %rax	# img, img.155
	movl	72684(%rax), %eax	# img.155_479->max_imgpel_value, D.21077
	cmpl	%eax, %edx	# D.21077, D.21077
	cmovle	%edx, %eax	# D.21077,, D.21077
	movw	%ax, (%rcx)	# D.21084, *_473
	.loc 1 736 0 discriminator 2
	movq	enc_picture(%rip), %rax	# enc_picture, enc_picture.156
	movq	6464(%rax), %rax	# enc_picture.156_483->imgUV, D.21088
	addq	$8, %rax	#, D.21088
	movq	(%rax), %rax	# *_485, D.21082
	movl	-460(%rbp), %edx	# j, tmp1470
	movl	-424(%rbp), %ecx	# pic_pix_y, tmp1471
	addl	%ecx, %edx	# tmp1471, D.21077
	movslq	%edx, %rdx	# D.21077, D.21079
	salq	$3, %rdx	#, D.21079
	addq	%rdx, %rax	# D.21079, D.21082
	movq	(%rax), %rax	# *_490, D.21083
	movl	-464(%rbp), %edx	# i, tmp1472
	movl	-428(%rbp), %ecx	# pic_pix_x, tmp1473
	addl	%ecx, %edx	# tmp1473, D.21077
	movslq	%edx, %rdx	# D.21077, D.21079
	addq	%rdx, %rdx	# D.21079
	leaq	(%rax,%rdx), %rcx	#, D.21083
	movq	img(%rip), %rax	# img, img.157
	movl	-464(%rbp), %edx	# i, tmp1474
	movl	-436(%rbp), %esi	# block_x, tmp1475
	leal	(%rsi,%rdx), %r8d	#, D.21077
	movl	-460(%rbp), %edx	# j, tmp1476
	movl	-432(%rbp), %esi	# block_y, tmp1477
	addl	%esi, %edx	# tmp1477, D.21077
	movslq	%edx, %rdx	# D.21077, tmp1478
	movl	-404(%rbp), %esi	# c_ipmode, tmp1480
	movslq	%esi, %rdi	# tmp1480, tmp1479
	movslq	%r8d, %rsi	# D.21077, tmp1481
	salq	$4, %rdi	#, tmp1482
	addq	%rdi, %rsi	# tmp1482, tmp1483
	salq	$4, %rsi	#, tmp1484
	addq	%rsi, %rdx	# tmp1484, tmp1485
	addq	$5272, %rdx	#, tmp1486
	movzwl	8(%rax,%rdx,2), %eax	# img.157_496->mprr_c, D.21084
	movzwl	%ax, %edx	# D.21084, D.21077
	movl	-372(%rbp), %eax	# residue_R, tmp1487
	addl	%edx, %eax	# D.21077, D.21077
	movl	$0, %edx	#, tmp1488
	testl	%eax, %eax	# D.21077
	cmovns	%eax, %edx	# D.21077,, D.21077
	movq	img(%rip), %rax	# img, img.158
	movl	72688(%rax), %eax	# img.158_503->max_imgpel_value_uv, D.21077
	cmpl	%eax, %edx	# D.21077, D.21077
	cmovle	%edx, %eax	# D.21077,, D.21077
	movw	%ax, (%rcx)	# D.21084, *_495
	.loc 1 727 0 discriminator 2
	addl	$1, -464(%rbp)	#, i
.L206:
	.loc 1 727 0 is_stmt 0 discriminator 1
	cmpl	$3, -464(%rbp)	#, i
	jle	.L207	#,
	.loc 1 726 0 is_stmt 1
	addl	$1, -460(%rbp)	#, j
.L205:
	.loc 1 726 0 is_stmt 0 discriminator 1
	cmpl	$3, -460(%rbp)	#, j
	jle	.L208	#,
	.loc 1 740 0 is_stmt 1
	movl	$0, -440(%rbp)	#, distortion
	.loc 1 741 0
	movl	$0, -448(%rbp)	#, y
	jmp	.L209	#
.L212:
	.loc 1 742 0
	movl	-428(%rbp), %eax	# pic_pix_x, tmp1489
	movl	%eax, -452(%rbp)	# tmp1489, x
	jmp	.L210	#
.L211:
	.loc 1 744 0 discriminator 2
	movq	imgY_org(%rip), %rax	# imgY_org, imgY_org.159
	movl	-448(%rbp), %edx	# y, tmp1490
	movl	-424(%rbp), %ecx	# pic_pix_y, tmp1491
	addl	%ecx, %edx	# tmp1491, D.21077
	movslq	%edx, %rdx	# D.21077, D.21079
	salq	$3, %rdx	#, D.21079
	addq	%rdx, %rax	# D.21079, D.21082
	movq	(%rax), %rax	# *_517, D.21083
	movl	-452(%rbp), %edx	# x, tmp1492
	movslq	%edx, %rdx	# tmp1492, D.21079
	addq	%rdx, %rdx	# D.21079
	addq	%rdx, %rax	# D.21079, D.21083
	movzwl	(%rax), %eax	# *_521, D.21084
	movzwl	%ax, %edx	# D.21084, D.21077
	movq	enc_picture(%rip), %rax	# enc_picture, enc_picture.160
	movq	6424(%rax), %rax	# enc_picture.160_524->imgY, D.21082
	movl	-448(%rbp), %ecx	# y, tmp1493
	movl	-424(%rbp), %esi	# pic_pix_y, tmp1494
	addl	%esi, %ecx	# tmp1494, D.21077
	movslq	%ecx, %rcx	# D.21077, D.21079
	salq	$3, %rcx	#, D.21079
	addq	%rcx, %rax	# D.21079, D.21082
	movq	(%rax), %rax	# *_529, D.21083
	movl	-452(%rbp), %ecx	# x, tmp1495
	movslq	%ecx, %rcx	# tmp1495, D.21079
	addq	%rcx, %rcx	# D.21079
	addq	%rcx, %rax	# D.21079, D.21083
	movzwl	(%rax), %eax	# *_533, D.21084
	movzwl	%ax, %eax	# D.21084, D.21077
	movl	%edx, %edi	# D.21077, D.21077
	subl	%eax, %edi	# D.21077, D.21077
	movq	imgY_org(%rip), %rax	# imgY_org, imgY_org.161
	movl	-448(%rbp), %edx	# y, tmp1496
	movl	-424(%rbp), %ecx	# pic_pix_y, tmp1497
	addl	%ecx, %edx	# tmp1497, D.21077
	movslq	%edx, %rdx	# D.21077, D.21079
	salq	$3, %rdx	#, D.21079
	addq	%rdx, %rax	# D.21079, D.21082
	movq	(%rax), %rax	# *_541, D.21083
	movl	-452(%rbp), %edx	# x, tmp1498
	movslq	%edx, %rdx	# tmp1498, D.21079
	addq	%rdx, %rdx	# D.21079
	addq	%rdx, %rax	# D.21079, D.21083
	movzwl	(%rax), %eax	# *_545, D.21084
	movzwl	%ax, %edx	# D.21084, D.21077
	movq	enc_picture(%rip), %rax	# enc_picture, enc_picture.162
	movq	6424(%rax), %rax	# enc_picture.162_548->imgY, D.21082
	movl	-448(%rbp), %ecx	# y, tmp1499
	movl	-424(%rbp), %esi	# pic_pix_y, tmp1500
	addl	%esi, %ecx	# tmp1500, D.21077
	movslq	%ecx, %rcx	# D.21077, D.21079
	salq	$3, %rcx	#, D.21079
	addq	%rcx, %rax	# D.21079, D.21082
	movq	(%rax), %rax	# *_553, D.21083
	movl	-452(%rbp), %ecx	# x, tmp1501
	movslq	%ecx, %rcx	# tmp1501, D.21079
	addq	%rcx, %rcx	# D.21079
	addq	%rcx, %rax	# D.21079, D.21083
	movzwl	(%rax), %eax	# *_557, D.21084
	movzwl	%ax, %eax	# D.21084, D.21077
	subl	%eax, %edx	# D.21077, D.21077
	movl	%edx, %eax	# D.21077, D.21077
	imull	%edi, %eax	# D.21077, D.21077
	addl	%eax, -440(%rbp)	# D.21077, distortion
	.loc 1 745 0 discriminator 2
	movq	imgUV_org(%rip), %rax	# imgUV_org, imgUV_org.163
	movq	(%rax), %rax	# *imgUV_org.163_563, D.21082
	movl	-448(%rbp), %edx	# y, tmp1502
	movl	-424(%rbp), %ecx	# pic_pix_y, tmp1503
	addl	%ecx, %edx	# tmp1503, D.21077
	movslq	%edx, %rdx	# D.21077, D.21079
	salq	$3, %rdx	#, D.21079
	addq	%rdx, %rax	# D.21079, D.21082
	movq	(%rax), %rax	# *_568, D.21083
	movl	-452(%rbp), %edx	# x, tmp1504
	movslq	%edx, %rdx	# tmp1504, D.21079
	addq	%rdx, %rdx	# D.21079
	addq	%rdx, %rax	# D.21079, D.21083
	movzwl	(%rax), %eax	# *_572, D.21084
	movzwl	%ax, %edx	# D.21084, D.21077
	movq	enc_picture(%rip), %rax	# enc_picture, enc_picture.164
	movq	6464(%rax), %rax	# enc_picture.164_575->imgUV, D.21088
	movq	(%rax), %rax	# *_576, D.21082
	movl	-448(%rbp), %ecx	# y, tmp1505
	movl	-424(%rbp), %esi	# pic_pix_y, tmp1506
	addl	%esi, %ecx	# tmp1506, D.21077
	movslq	%ecx, %rcx	# D.21077, D.21079
	salq	$3, %rcx	#, D.21079
	addq	%rcx, %rax	# D.21079, D.21082
	movq	(%rax), %rax	# *_581, D.21083
	movl	-452(%rbp), %ecx	# x, tmp1507
	movslq	%ecx, %rcx	# tmp1507, D.21079
	addq	%rcx, %rcx	# D.21079
	addq	%rcx, %rax	# D.21079, D.21083
	movzwl	(%rax), %eax	# *_585, D.21084
	movzwl	%ax, %eax	# D.21084, D.21077
	movl	%edx, %edi	# D.21077, D.21077
	subl	%eax, %edi	# D.21077, D.21077
	movq	imgUV_org(%rip), %rax	# imgUV_org, imgUV_org.165
	movq	(%rax), %rax	# *imgUV_org.165_589, D.21082
	movl	-448(%rbp), %edx	# y, tmp1508
	movl	-424(%rbp), %ecx	# pic_pix_y, tmp1509
	addl	%ecx, %edx	# tmp1509, D.21077
	movslq	%edx, %rdx	# D.21077, D.21079
	salq	$3, %rdx	#, D.21079
	addq	%rdx, %rax	# D.21079, D.21082
	movq	(%rax), %rax	# *_594, D.21083
	movl	-452(%rbp), %edx	# x, tmp1510
	movslq	%edx, %rdx	# tmp1510, D.21079
	addq	%rdx, %rdx	# D.21079
	addq	%rdx, %rax	# D.21079, D.21083
	movzwl	(%rax), %eax	# *_598, D.21084
	movzwl	%ax, %edx	# D.21084, D.21077
	movq	enc_picture(%rip), %rax	# enc_picture, enc_picture.166
	movq	6464(%rax), %rax	# enc_picture.166_601->imgUV, D.21088
	movq	(%rax), %rax	# *_602, D.21082
	movl	-448(%rbp), %ecx	# y, tmp1511
	movl	-424(%rbp), %esi	# pic_pix_y, tmp1512
	addl	%esi, %ecx	# tmp1512, D.21077
	movslq	%ecx, %rcx	# D.21077, D.21079
	salq	$3, %rcx	#, D.21079
	addq	%rcx, %rax	# D.21079, D.21082
	movq	(%rax), %rax	# *_607, D.21083
	movl	-452(%rbp), %ecx	# x, tmp1513
	movslq	%ecx, %rcx	# tmp1513, D.21079
	addq	%rcx, %rcx	# D.21079
	addq	%rcx, %rax	# D.21079, D.21083
	movzwl	(%rax), %eax	# *_611, D.21084
	movzwl	%ax, %eax	# D.21084, D.21077
	subl	%eax, %edx	# D.21077, D.21077
	movl	%edx, %eax	# D.21077, D.21077
	imull	%edi, %eax	# D.21077, D.21077
	addl	%eax, -440(%rbp)	# D.21077, distortion
	.loc 1 746 0 discriminator 2
	movq	imgUV_org(%rip), %rax	# imgUV_org, imgUV_org.167
	addq	$8, %rax	#, D.21088
	movq	(%rax), %rax	# *_618, D.21082
	movl	-448(%rbp), %edx	# y, tmp1514
	movl	-424(%rbp), %ecx	# pic_pix_y, tmp1515
	addl	%ecx, %edx	# tmp1515, D.21077
	movslq	%edx, %rdx	# D.21077, D.21079
	salq	$3, %rdx	#, D.21079
	addq	%rdx, %rax	# D.21079, D.21082
	movq	(%rax), %rax	# *_623, D.21083
	movl	-452(%rbp), %edx	# x, tmp1516
	movslq	%edx, %rdx	# tmp1516, D.21079
	addq	%rdx, %rdx	# D.21079
	addq	%rdx, %rax	# D.21079, D.21083
	movzwl	(%rax), %eax	# *_627, D.21084
	movzwl	%ax, %edx	# D.21084, D.21077
	movq	enc_picture(%rip), %rax	# enc_picture, enc_picture.168
	movq	6464(%rax), %rax	# enc_picture.168_630->imgUV, D.21088
	addq	$8, %rax	#, D.21088
	movq	(%rax), %rax	# *_632, D.21082
	movl	-448(%rbp), %ecx	# y, tmp1517
	movl	-424(%rbp), %esi	# pic_pix_y, tmp1518
	addl	%esi, %ecx	# tmp1518, D.21077
	movslq	%ecx, %rcx	# D.21077, D.21079
	salq	$3, %rcx	#, D.21079
	addq	%rcx, %rax	# D.21079, D.21082
	movq	(%rax), %rax	# *_637, D.21083
	movl	-452(%rbp), %ecx	# x, tmp1519
	movslq	%ecx, %rcx	# tmp1519, D.21079
	addq	%rcx, %rcx	# D.21079
	addq	%rcx, %rax	# D.21079, D.21083
	movzwl	(%rax), %eax	# *_641, D.21084
	movzwl	%ax, %eax	# D.21084, D.21077
	movl	%edx, %edi	# D.21077, D.21077
	subl	%eax, %edi	# D.21077, D.21077
	movq	imgUV_org(%rip), %rax	# imgUV_org, imgUV_org.169
	addq	$8, %rax	#, D.21088
	movq	(%rax), %rax	# *_646, D.21082
	movl	-448(%rbp), %edx	# y, tmp1520
	movl	-424(%rbp), %ecx	# pic_pix_y, tmp1521
	addl	%ecx, %edx	# tmp1521, D.21077
	movslq	%edx, %rdx	# D.21077, D.21079
	salq	$3, %rdx	#, D.21079
	addq	%rdx, %rax	# D.21079, D.21082
	movq	(%rax), %rax	# *_651, D.21083
	movl	-452(%rbp), %edx	# x, tmp1522
	movslq	%edx, %rdx	# tmp1522, D.21079
	addq	%rdx, %rdx	# D.21079
	addq	%rdx, %rax	# D.21079, D.21083
	movzwl	(%rax), %eax	# *_655, D.21084
	movzwl	%ax, %edx	# D.21084, D.21077
	movq	enc_picture(%rip), %rax	# enc_picture, enc_picture.170
	movq	6464(%rax), %rax	# enc_picture.170_658->imgUV, D.21088
	addq	$8, %rax	#, D.21088
	movq	(%rax), %rax	# *_660, D.21082
	movl	-448(%rbp), %ecx	# y, tmp1523
	movl	-424(%rbp), %esi	# pic_pix_y, tmp1524
	addl	%esi, %ecx	# tmp1524, D.21077
	movslq	%ecx, %rcx	# D.21077, D.21079
	salq	$3, %rcx	#, D.21079
	addq	%rcx, %rax	# D.21079, D.21082
	movq	(%rax), %rax	# *_665, D.21083
	movl	-452(%rbp), %ecx	# x, tmp1525
	movslq	%ecx, %rcx	# tmp1525, D.21079
	addq	%rcx, %rcx	# D.21079
	addq	%rcx, %rax	# D.21079, D.21083
	movzwl	(%rax), %eax	# *_669, D.21084
	movzwl	%ax, %eax	# D.21084, D.21077
	subl	%eax, %edx	# D.21077, D.21077
	movl	%edx, %eax	# D.21077, D.21077
	imull	%edi, %eax	# D.21077, D.21077
	addl	%eax, -440(%rbp)	# D.21077, distortion
	.loc 1 742 0 discriminator 2
	addl	$1, -452(%rbp)	#, x
.L210:
	.loc 1 742 0 is_stmt 0 discriminator 1
	movl	-428(%rbp), %eax	# pic_pix_x, tmp1526
	addl	$4, %eax	#, D.21077
	cmpl	-452(%rbp), %eax	# x, D.21077
	jg	.L211	#,
	.loc 1 741 0 is_stmt 1
	addl	$1, -448(%rbp)	#, y
.L209:
	.loc 1 741 0 is_stmt 0 discriminator 1
	cmpl	$3, -448(%rbp)	#, y
	jle	.L212	#,
	.loc 1 748 0 is_stmt 1
	cvtsi2sd	-440(%rbp), %xmm1	# distortion, D.21085
	cvtsi2sd	-364(%rbp), %xmm0	# rate, D.21085
	mulsd	-512(%rbp), %xmm0	# lambda, D.21085
	addsd	%xmm1, %xmm0	# D.21085, tmp1527
	movsd	%xmm0, -344(%rbp)	# tmp1527, rdcost
	.loc 1 750 0
	movsd	-360(%rbp), %xmm0	# min_rdcost, tmp1528
	ucomisd	-344(%rbp), %xmm0	# rdcost, tmp1528
	jbe	.L158	#,
	.loc 1 753 0
	movl	$0, -460(%rbp)	#, j
	jmp	.L214	#
.L217:
	.loc 1 754 0
	movl	$0, -464(%rbp)	#, i
	jmp	.L215	#
.L216:
	.loc 1 754 0 is_stmt 0 discriminator 2
	movq	cofAC4x4(%rip), %rax	# cofAC4x4, cofAC4x4.171
	movl	-460(%rbp), %edx	# j, tmp1529
	movslq	%edx, %rdx	# tmp1529, D.21079
	salq	$3, %rdx	#, D.21079
	addq	%rdx, %rax	# D.21079, D.21081
	movq	(%rax), %rax	# *_686, D.21080
	movl	-464(%rbp), %edx	# i, tmp1530
	movslq	%edx, %rdx	# tmp1530, D.21079
	salq	$2, %rdx	#, D.21079
	addq	%rax, %rdx	# D.21080, D.21080
	movq	img(%rip), %rax	# img, img.172
	movq	14136(%rax), %rax	# img.172_691->cofAC, D.21086
	movl	-500(%rbp), %ecx	# b8, tmp1531
	movslq	%ecx, %rcx	# tmp1531, D.21079
	salq	$3, %rcx	#, D.21079
	addq	%rcx, %rax	# D.21079, D.21086
	movq	(%rax), %rax	# *_695, D.21087
	movl	-504(%rbp), %ecx	# b4, tmp1532
	movslq	%ecx, %rcx	# tmp1532, D.21079
	salq	$3, %rcx	#, D.21079
	addq	%rcx, %rax	# D.21079, D.21087
	movq	(%rax), %rax	# *_699, D.21081
	movl	-460(%rbp), %ecx	# j, tmp1533
	movslq	%ecx, %rcx	# tmp1533, D.21079
	salq	$3, %rcx	#, D.21079
	addq	%rcx, %rax	# D.21079, D.21081
	movq	(%rax), %rax	# *_703, D.21080
	movl	-464(%rbp), %ecx	# i, tmp1534
	movslq	%ecx, %rcx	# tmp1534, D.21079
	salq	$2, %rcx	#, D.21079
	addq	%rcx, %rax	# D.21079, D.21080
	movl	(%rax), %eax	# *_707, D.21077
	movl	%eax, (%rdx)	# D.21077, *_690
	addl	$1, -464(%rbp)	#, i
.L215:
	.loc 1 754 0 discriminator 1
	cmpl	$17, -464(%rbp)	#, i
	jle	.L216	#,
	.loc 1 753 0 is_stmt 1
	addl	$1, -460(%rbp)	#, j
.L214:
	.loc 1 753 0 is_stmt 0 discriminator 1
	cmpl	$1, -460(%rbp)	#, j
	jle	.L217	#,
	.loc 1 756 0 is_stmt 1
	movl	$0, -460(%rbp)	#, j
	jmp	.L218	#
.L221:
	.loc 1 757 0
	movl	$0, -464(%rbp)	#, i
	jmp	.L219	#
.L220:
	.loc 1 757 0 is_stmt 0 discriminator 2
	movq	img(%rip), %rax	# img, img.173
	movq	14136(%rax), %rax	# img.173_713->cofAC, D.21086
	movl	-500(%rbp), %edx	# b8, tmp1535
	movslq	%edx, %rdx	# tmp1535, D.21089
	addq	$4, %rdx	#, D.21089
	salq	$3, %rdx	#, D.21089
	addq	%rdx, %rax	# D.21089, D.21086
	movq	(%rax), %rax	# *_718, D.21087
	movl	-504(%rbp), %edx	# b4, tmp1536
	movslq	%edx, %rdx	# tmp1536, D.21079
	salq	$3, %rdx	#, D.21079
	addq	%rdx, %rax	# D.21079, D.21087
	movq	(%rax), %rax	# *_722, D.21081
	movl	-460(%rbp), %edx	# j, tmp1537
	movslq	%edx, %rdx	# tmp1537, D.21079
	salq	$3, %rdx	#, D.21079
	addq	%rdx, %rax	# D.21079, D.21081
	movq	(%rax), %rax	# *_726, D.21080
	movl	-464(%rbp), %edx	# i, tmp1538
	movslq	%edx, %rdx	# tmp1538, D.21079
	salq	$2, %rdx	#, D.21079
	addq	%rdx, %rax	# D.21079, D.21080
	movl	(%rax), %ecx	# *_730, D.21077
	movl	-464(%rbp), %eax	# i, tmp1540
	movslq	%eax, %rsi	# tmp1540, tmp1539
	movl	-460(%rbp), %eax	# j, tmp1542
	movslq	%eax, %rdx	# tmp1542, tmp1541
	movq	%rdx, %rax	# tmp1541, tmp1543
	salq	$3, %rax	#, tmp1543
	addq	%rdx, %rax	# tmp1541, tmp1543
	addq	%rax, %rax	# tmp1544
	addq	%rsi, %rax	# tmp1539, tmp1545
	movl	%ecx, cofAC4x4_chroma(,%rax,4)	# D.21077, cofAC4x4_chroma
	addl	$1, -464(%rbp)	#, i
.L219:
	.loc 1 757 0 discriminator 1
	cmpl	$17, -464(%rbp)	#, i
	jle	.L220	#,
	.loc 1 756 0 is_stmt 1
	addl	$1, -460(%rbp)	#, j
.L218:
	.loc 1 756 0 is_stmt 0 discriminator 1
	cmpl	$1, -460(%rbp)	#, j
	jle	.L221	#,
	.loc 1 758 0 is_stmt 1
	movl	$0, -460(%rbp)	#, j
	jmp	.L222	#
.L225:
	.loc 1 759 0
	movl	$0, -464(%rbp)	#, i
	jmp	.L223	#
.L224:
	.loc 1 759 0 is_stmt 0 discriminator 2
	movq	img(%rip), %rax	# img, img.174
	movq	14136(%rax), %rax	# img.174_736->cofAC, D.21086
	movl	-500(%rbp), %edx	# b8, tmp1546
	movslq	%edx, %rdx	# tmp1546, D.21089
	addq	$8, %rdx	#, D.21089
	salq	$3, %rdx	#, D.21089
	addq	%rdx, %rax	# D.21089, D.21086
	movq	(%rax), %rax	# *_741, D.21087
	movl	-504(%rbp), %edx	# b4, tmp1547
	movslq	%edx, %rdx	# tmp1547, D.21079
	salq	$3, %rdx	#, D.21079
	addq	%rdx, %rax	# D.21079, D.21087
	movq	(%rax), %rax	# *_745, D.21081
	movl	-460(%rbp), %edx	# j, tmp1548
	movslq	%edx, %rdx	# tmp1548, D.21079
	salq	$3, %rdx	#, D.21079
	addq	%rdx, %rax	# D.21079, D.21081
	movq	(%rax), %rax	# *_749, D.21080
	movl	-464(%rbp), %edx	# i, tmp1549
	movslq	%edx, %rdx	# tmp1549, D.21079
	salq	$2, %rdx	#, D.21079
	addq	%rdx, %rax	# D.21079, D.21080
	movl	(%rax), %ecx	# *_753, D.21077
	movl	-464(%rbp), %eax	# i, tmp1551
	movslq	%eax, %rsi	# tmp1551, tmp1550
	movl	-460(%rbp), %eax	# j, tmp1553
	movslq	%eax, %rdx	# tmp1553, tmp1552
	movq	%rdx, %rax	# tmp1552, tmp1554
	salq	$3, %rax	#, tmp1554
	addq	%rdx, %rax	# tmp1552, tmp1554
	addq	%rax, %rax	# tmp1555
	addq	%rsi, %rax	# tmp1550, tmp1556
	addq	$36, %rax	#, tmp1557
	movl	%ecx, cofAC4x4_chroma(,%rax,4)	# D.21077, cofAC4x4_chroma
	addl	$1, -464(%rbp)	#, i
.L223:
	.loc 1 759 0 discriminator 1
	cmpl	$17, -464(%rbp)	#, i
	jle	.L224	#,
	.loc 1 758 0 is_stmt 1
	addl	$1, -460(%rbp)	#, j
.L222:
	.loc 1 758 0 is_stmt 0 discriminator 1
	cmpl	$1, -460(%rbp)	#, j
	jle	.L225	#,
	.loc 1 761 0 is_stmt 1
	movl	$0, -464(%rbp)	#, i
	jmp	.L226	#
.L231:
	.loc 1 763 0
	movl	-500(%rbp), %eax	# b8, tmp1558
	cltd
	shrl	$31, %edx	#, tmp1560
	addl	%edx, %eax	# tmp1560, tmp1561
	andl	$1, %eax	#, tmp1562
	subl	%edx, %eax	# tmp1560, tmp1563
	leal	(%rax,%rax), %ecx	#, D.21077
	movl	-504(%rbp), %eax	# b4, tmp1564
	cltd
	shrl	$31, %edx	#, tmp1566
	addl	%edx, %eax	# tmp1566, tmp1567
	andl	$1, %eax	#, tmp1568
	subl	%edx, %eax	# tmp1566, tmp1569
	leal	(%rcx,%rax), %edi	#, D.21077
	movl	-500(%rbp), %eax	# b8, tmp1570
	movl	%eax, %edx	# tmp1570, tmp1571
	shrl	$31, %edx	#, tmp1571
	addl	%edx, %eax	# tmp1571, tmp1572
	sarl	%eax	# tmp1573
	leal	(%rax,%rax), %edx	#, D.21077
	movl	-504(%rbp), %eax	# b4, tmp1574
	movl	%eax, %ecx	# tmp1574, tmp1575
	shrl	$31, %ecx	#, tmp1575
	addl	%ecx, %eax	# tmp1575, tmp1576
	sarl	%eax	# tmp1577
	leal	(%rdx,%rax), %esi	#, D.21077
	movl	-500(%rbp), %eax	# b8, tmp1578
	cltd
	shrl	$31, %edx	#, tmp1580
	addl	%edx, %eax	# tmp1580, tmp1581
	andl	$1, %eax	#, tmp1582
	subl	%edx, %eax	# tmp1580, tmp1583
	leal	(%rax,%rax), %ecx	#, D.21077
	movl	-504(%rbp), %eax	# b4, tmp1584
	cltd
	shrl	$31, %edx	#, tmp1586
	addl	%edx, %eax	# tmp1586, tmp1587
	andl	$1, %eax	#, tmp1588
	subl	%edx, %eax	# tmp1586, tmp1589
	leal	(%rcx,%rax), %r8d	#, D.21077
	movl	-500(%rbp), %eax	# b8, tmp1590
	movl	%eax, %edx	# tmp1590, tmp1591
	shrl	$31, %edx	#, tmp1591
	addl	%edx, %eax	# tmp1591, tmp1592
	sarl	%eax	# tmp1593
	leal	(%rax,%rax), %edx	#, D.21077
	movl	-504(%rbp), %eax	# b4, tmp1594
	movl	%eax, %ecx	# tmp1594, tmp1595
	shrl	$31, %ecx	#, tmp1595
	addl	%ecx, %eax	# tmp1595, tmp1596
	sarl	%eax	# tmp1597
	addl	%edx, %eax	# D.21077, D.21077
	cltq
	movl	-464(%rbp), %edx	# i, tmp1600
	movslq	%edx, %rcx	# tmp1600, tmp1599
	movslq	%r8d, %rdx	# D.21077, tmp1601
	salq	$2, %rcx	#, tmp1602
	addq	%rcx, %rdx	# tmp1602, tmp1603
	salq	$2, %rdx	#, tmp1604
	addq	%rdx, %rax	# tmp1604, tmp1605
	movl	dc_level_temp(,%rax,4), %eax	# dc_level_temp, D.21077
	movslq	%esi, %rdx	# D.21077, tmp1606
	movl	-464(%rbp), %ecx	# i, tmp1608
	movslq	%ecx, %rsi	# tmp1608, tmp1607
	movslq	%edi, %rcx	# D.21077, tmp1609
	salq	$2, %rsi	#, tmp1610
	addq	%rsi, %rcx	# tmp1610, tmp1611
	salq	$2, %rcx	#, tmp1612
	addq	%rcx, %rdx	# tmp1612, tmp1613
	movl	%eax, dc_level(,%rdx,4)	# D.21077, dc_level
	.loc 1 764 0
	movl	-500(%rbp), %eax	# b8, tmp1614
	cltd
	shrl	$31, %edx	#, tmp1616
	addl	%edx, %eax	# tmp1616, tmp1617
	andl	$1, %eax	#, tmp1618
	subl	%edx, %eax	# tmp1616, tmp1619
	leal	(%rax,%rax), %ecx	#, D.21077
	movl	-504(%rbp), %eax	# b4, tmp1620
	cltd
	shrl	$31, %edx	#, tmp1622
	addl	%edx, %eax	# tmp1622, tmp1623
	andl	$1, %eax	#, tmp1624
	subl	%edx, %eax	# tmp1622, tmp1625
	leal	(%rcx,%rax), %edi	#, D.21077
	movl	-500(%rbp), %eax	# b8, tmp1626
	movl	%eax, %edx	# tmp1626, tmp1627
	shrl	$31, %edx	#, tmp1627
	addl	%edx, %eax	# tmp1627, tmp1628
	sarl	%eax	# tmp1629
	leal	(%rax,%rax), %edx	#, D.21077
	movl	-504(%rbp), %eax	# b4, tmp1630
	movl	%eax, %ecx	# tmp1630, tmp1631
	shrl	$31, %ecx	#, tmp1631
	addl	%ecx, %eax	# tmp1631, tmp1632
	sarl	%eax	# tmp1633
	leal	(%rdx,%rax), %esi	#, D.21077
	movl	-500(%rbp), %eax	# b8, tmp1634
	cltd
	shrl	$31, %edx	#, tmp1636
	addl	%edx, %eax	# tmp1636, tmp1637
	andl	$1, %eax	#, tmp1638
	subl	%edx, %eax	# tmp1636, tmp1639
	leal	(%rax,%rax), %ecx	#, D.21077
	movl	-504(%rbp), %eax	# b4, tmp1640
	cltd
	shrl	$31, %edx	#, tmp1642
	addl	%edx, %eax	# tmp1642, tmp1643
	andl	$1, %eax	#, tmp1644
	subl	%edx, %eax	# tmp1642, tmp1645
	leal	(%rcx,%rax), %r8d	#, D.21077
	movl	-500(%rbp), %eax	# b8, tmp1646
	movl	%eax, %edx	# tmp1646, tmp1647
	shrl	$31, %edx	#, tmp1647
	addl	%edx, %eax	# tmp1647, tmp1648
	sarl	%eax	# tmp1649
	leal	(%rax,%rax), %edx	#, D.21077
	movl	-504(%rbp), %eax	# b4, tmp1650
	movl	%eax, %ecx	# tmp1650, tmp1651
	shrl	$31, %ecx	#, tmp1651
	addl	%ecx, %eax	# tmp1651, tmp1652
	sarl	%eax	# tmp1653
	addl	%edx, %eax	# D.21077, D.21077
	cltq
	movl	-464(%rbp), %edx	# i, tmp1656
	movslq	%edx, %rcx	# tmp1656, tmp1655
	movslq	%r8d, %rdx	# D.21077, tmp1657
	salq	$2, %rcx	#, tmp1658
	addq	%rcx, %rdx	# tmp1658, tmp1659
	salq	$2, %rdx	#, tmp1660
	addq	%rdx, %rax	# tmp1660, tmp1661
	movl	cbp_chroma_block_temp(,%rax,4), %eax	# cbp_chroma_block_temp, D.21077
	movslq	%esi, %rdx	# D.21077, tmp1662
	movl	-464(%rbp), %ecx	# i, tmp1664
	movslq	%ecx, %rsi	# tmp1664, tmp1663
	movslq	%edi, %rcx	# D.21077, tmp1665
	salq	$2, %rsi	#, tmp1666
	addq	%rsi, %rcx	# tmp1666, tmp1667
	salq	$2, %rcx	#, tmp1668
	addq	%rcx, %rdx	# tmp1668, tmp1669
	movl	%eax, cbp_chroma_block(,%rdx,4)	# D.21077, cbp_chroma_block
	.loc 1 766 0
	movl	$0, -448(%rbp)	#, y
	jmp	.L227	#
.L230:
	.loc 1 767 0
	movl	$0, -452(%rbp)	#, x
	jmp	.L228	#
.L229:
	.loc 1 767 0 is_stmt 0 discriminator 2
	movq	enc_picture(%rip), %rax	# enc_picture, enc_picture.175
	movq	6464(%rax), %rax	# enc_picture.175_794->imgUV, D.21088
	movl	-464(%rbp), %edx	# i, tmp1670
	movslq	%edx, %rdx	# tmp1670, D.21079
	salq	$3, %rdx	#, D.21079
	addq	%rdx, %rax	# D.21079, D.21088
	movq	(%rax), %rax	# *_798, D.21082
	movl	-448(%rbp), %edx	# y, tmp1671
	movl	-424(%rbp), %ecx	# pic_pix_y, tmp1672
	addl	%ecx, %edx	# tmp1672, D.21077
	movslq	%edx, %rdx	# D.21077, D.21079
	salq	$3, %rdx	#, D.21079
	addq	%rdx, %rax	# D.21079, D.21082
	movq	(%rax), %rax	# *_803, D.21083
	movl	-452(%rbp), %edx	# x, tmp1673
	movl	-428(%rbp), %ecx	# pic_pix_x, tmp1674
	addl	%ecx, %edx	# tmp1674, D.21077
	movslq	%edx, %rdx	# D.21077, D.21079
	addq	%rdx, %rdx	# D.21079
	addq	%rdx, %rax	# D.21079, D.21083
	movzwl	(%rax), %eax	# *_808, D.21084
	movzwl	%ax, %eax	# D.21084, D.21077
	movl	-452(%rbp), %edx	# x, tmp1676
	movslq	%edx, %rdx	# tmp1676, tmp1675
	movl	-464(%rbp), %ecx	# i, tmp1678
	movslq	%ecx, %rsi	# tmp1678, tmp1677
	movl	-448(%rbp), %ecx	# y, tmp1680
	movslq	%ecx, %rcx	# tmp1680, tmp1679
	salq	$2, %rsi	#, tmp1681
	addq	%rsi, %rcx	# tmp1681, tmp1682
	salq	$2, %rcx	#, tmp1683
	addq	%rcx, %rdx	# tmp1683, tmp1684
	movl	%eax, -144(%rbp,%rdx,4)	# D.21077, rec4x4_c
	addl	$1, -452(%rbp)	#, x
.L228:
	.loc 1 767 0 discriminator 1
	cmpl	$3, -452(%rbp)	#, x
	jle	.L229	#,
	.loc 1 766 0 is_stmt 1
	addl	$1, -448(%rbp)	#, y
.L227:
	.loc 1 766 0 is_stmt 0 discriminator 1
	cmpl	$3, -448(%rbp)	#, y
	jle	.L230	#,
	.loc 1 761 0 is_stmt 1
	addl	$1, -464(%rbp)	#, i
.L226:
	.loc 1 761 0 is_stmt 0 discriminator 1
	cmpl	$1, -464(%rbp)	#, i
	jle	.L231	#,
	.loc 1 771 0 is_stmt 1
	movl	$0, -448(%rbp)	#, y
	jmp	.L232	#
.L235:
	.loc 1 772 0
	movl	$0, -452(%rbp)	#, x
	jmp	.L233	#
.L234:
	.loc 1 772 0 is_stmt 0 discriminator 2
	movq	enc_picture(%rip), %rax	# enc_picture, enc_picture.176
	movq	6424(%rax), %rax	# enc_picture.176_816->imgY, D.21082
	movl	-448(%rbp), %edx	# y, tmp1685
	movl	-424(%rbp), %ecx	# pic_pix_y, tmp1686
	addl	%ecx, %edx	# tmp1686, D.21077
	movslq	%edx, %rdx	# D.21077, D.21079
	salq	$3, %rdx	#, D.21079
	addq	%rdx, %rax	# D.21079, D.21082
	movq	(%rax), %rax	# *_821, D.21083
	movl	-452(%rbp), %edx	# x, tmp1687
	movl	-428(%rbp), %ecx	# pic_pix_x, tmp1688
	addl	%ecx, %edx	# tmp1688, D.21077
	movslq	%edx, %rdx	# D.21077, D.21079
	addq	%rdx, %rdx	# D.21079
	addq	%rdx, %rax	# D.21079, D.21083
	movzwl	(%rax), %eax	# *_826, D.21084
	movzwl	%ax, %eax	# D.21084, D.21077
	movl	-452(%rbp), %edx	# x, tmp1690
	movslq	%edx, %rdx	# tmp1690, tmp1689
	movl	-448(%rbp), %ecx	# y, tmp1692
	movslq	%ecx, %rcx	# tmp1692, tmp1691
	salq	$2, %rcx	#, tmp1693
	addq	%rcx, %rdx	# tmp1693, tmp1694
	movl	%eax, -272(%rbp,%rdx,4)	# D.21077, rec4x4
	addl	$1, -452(%rbp)	#, x
.L233:
	.loc 1 772 0 discriminator 1
	cmpl	$3, -452(%rbp)	#, x
	jle	.L234	#,
	.loc 1 771 0 is_stmt 1
	addl	$1, -448(%rbp)	#, y
.L232:
	.loc 1 771 0 is_stmt 0 discriminator 1
	cmpl	$3, -448(%rbp)	#, y
	jle	.L235	#,
	.loc 1 775 0 is_stmt 1
	movl	-488(%rbp), %eax	# c_nz, tmp1695
	movl	%eax, -444(%rbp)	# tmp1695, nonzero
	.loc 1 778 0
	movq	-344(%rbp), %rax	# rdcost, tmp1696
	movq	%rax, -360(%rbp)	# tmp1696, min_rdcost
	.loc 1 779 0
	movl	-472(%rbp), %eax	# ipmode, tmp1697
	movl	%eax, -468(%rbp)	# tmp1697, best_ipmode
.L158:
.LBE3:
	.loc 1 599 0
	addl	$1, -472(%rbp)	#, ipmode
.L146:
	.loc 1 599 0 is_stmt 0 discriminator 1
	cmpl	$8, -472(%rbp)	#, ipmode
	jle	.L236	#,
	.loc 1 793 0 is_stmt 1
	movq	img(%rip), %rax	# img, img.177
	movq	104(%rax), %rax	# img.177_835->ipredmode, D.21081
	movl	-412(%rbp), %edx	# pic_block_x, tmp1698
	movslq	%edx, %rdx	# tmp1698, D.21079
	salq	$3, %rdx	#, D.21079
	addq	%rdx, %rax	# D.21079, D.21081
	movq	(%rax), %rax	# *_839, D.21080
	movl	-408(%rbp), %edx	# pic_block_y, tmp1699
	movslq	%edx, %rdx	# tmp1699, D.21079
	salq	$2, %rdx	#, D.21079
	addq	%rax, %rdx	# D.21080, D.21080
	movl	-468(%rbp), %eax	# best_ipmode, tmp1700
	movl	%eax, (%rdx)	# tmp1700, *_843
	.loc 1 794 0
	movq	img(%rip), %rax	# img, img.178
	movq	14168(%rax), %rdx	# img.178_844->mb_data, D.21078
	movq	img(%rip), %rax	# img, img.179
	movl	12(%rax), %eax	# img.179_846->current_mb_nr, D.21077
	cltq
	imulq	$632, %rax, %rax	#, D.21079, D.21079
	addq	%rax, %rdx	# D.21079, D.21078
	movl	-500(%rbp), %eax	# b8, tmp1701
	leal	0(,%rax,4), %ecx	#, D.21077
	movl	-504(%rbp), %eax	# b4, tmp1702
	addl	%eax, %ecx	# tmp1702, D.21077
	movl	-392(%rbp), %eax	# mostProbableMode, tmp1703
	cmpl	-468(%rbp), %eax	# best_ipmode, tmp1703
	je	.L237	#,
	.loc 1 794 0 is_stmt 0 discriminator 1
	movl	-468(%rbp), %eax	# best_ipmode, tmp1704
	cmpl	-392(%rbp), %eax	# mostProbableMode, tmp1704
	jl	.L238	#,
	movl	-468(%rbp), %eax	# best_ipmode, tmp1705
	subl	$1, %eax	#, iftmp.181
	jmp	.L240	#
.L238:
	.loc 1 794 0 discriminator 2
	movl	-468(%rbp), %eax	# best_ipmode, iftmp.181
	jmp	.L240	#
.L237:
	movl	$-1, %eax	#, iftmp.180
.L240:
	.loc 1 794 0 discriminator 3
	movslq	%ecx, %rcx	# D.21077, tmp1706
	addq	$80, %rcx	#, tmp1707
	movl	%eax, 12(%rdx,%rcx,4)	# iftmp.180, _850->intra_pred_modes
	.loc 1 796 0 is_stmt 1 discriminator 3
	movq	input(%rip), %rax	# input, input.182
	movl	2464(%rax), %eax	# input.182_857->rdopt, D.21077
	testl	%eax, %eax	# D.21077
	jne	.L241	#,
	.loc 1 799 0
	movq	img(%rip), %rax	# img, img.183
	movl	72724(%rax), %eax	# img.183_859->residue_transform_flag, D.21077
	testl	%eax, %eax	# D.21077
	jne	.L242	#,
	.loc 1 802 0
	movl	$0, -460(%rbp)	#, j
	jmp	.L243	#
.L246:
	.loc 1 803 0
	movl	$0, -464(%rbp)	#, i
	jmp	.L244	#
.L245:
	.loc 1 805 0 discriminator 2
	movq	img(%rip), %rax	# img, img.184
	movl	-464(%rbp), %edx	# i, tmp1708
	movl	-436(%rbp), %ecx	# block_x, tmp1709
	leal	(%rcx,%rdx), %r8d	#, D.21077
	movl	-460(%rbp), %edx	# j, tmp1710
	movl	-432(%rbp), %ecx	# block_y, tmp1711
	leal	(%rcx,%rdx), %r9d	#, D.21077
	movq	img(%rip), %rdx	# img, img.185
	movl	-464(%rbp), %ecx	# i, tmp1713
	movslq	%ecx, %rcx	# tmp1713, tmp1712
	movl	-468(%rbp), %esi	# best_ipmode, tmp1715
	movslq	%esi, %rdi	# tmp1715, tmp1714
	movl	-460(%rbp), %esi	# j, tmp1717
	movslq	%esi, %rsi	# tmp1717, tmp1716
	salq	$4, %rdi	#, tmp1718
	addq	%rdi, %rsi	# tmp1718, tmp1719
	salq	$4, %rsi	#, tmp1720
	addq	%rsi, %rcx	# tmp1720, tmp1721
	addq	$88, %rcx	#, tmp1722
	movzwl	8(%rdx,%rcx,2), %edx	# img.185_866->mprr, D.21084
	movslq	%r9d, %rcx	# D.21077, tmp1723
	movslq	%r8d, %rsi	# D.21077, tmp1724
	salq	$4, %rsi	#, tmp1725
	addq	%rsi, %rcx	# tmp1725, tmp1726
	addq	$6296, %rcx	#, tmp1727
	movw	%dx, 8(%rax,%rcx,2)	# D.21084, img.184_863->mpr
	.loc 1 806 0 discriminator 2
	movq	img(%rip), %rax	# img, img.186
	movq	imgY_org(%rip), %rdx	# imgY_org, imgY_org.187
	movl	-460(%rbp), %ecx	# j, tmp1728
	movl	-416(%rbp), %esi	# pic_opix_y, tmp1729
	addl	%esi, %ecx	# tmp1729, D.21077
	movslq	%ecx, %rcx	# D.21077, D.21079
	salq	$3, %rcx	#, D.21079
	addq	%rcx, %rdx	# D.21079, D.21082
	movq	(%rdx), %rdx	# *_873, D.21083
	movl	-464(%rbp), %ecx	# i, tmp1730
	movl	-420(%rbp), %esi	# pic_opix_x, tmp1731
	addl	%esi, %ecx	# tmp1731, D.21077
	movslq	%ecx, %rcx	# D.21077, D.21079
	addq	%rcx, %rcx	# D.21079
	addq	%rcx, %rdx	# D.21079, D.21083
	movzwl	(%rdx), %edx	# *_878, D.21084
	movzwl	%dx, %ecx	# D.21084, D.21077
	movq	img(%rip), %rdx	# img, img.188
	movl	-464(%rbp), %esi	# i, tmp1733
	movslq	%esi, %rsi	# tmp1733, tmp1732
	movl	-468(%rbp), %edi	# best_ipmode, tmp1735
	movslq	%edi, %r8	# tmp1735, tmp1734
	movl	-460(%rbp), %edi	# j, tmp1737
	movslq	%edi, %rdi	# tmp1737, tmp1736
	salq	$4, %r8	#, tmp1738
	addq	%r8, %rdi	# tmp1738, tmp1739
	salq	$4, %rdi	#, tmp1740
	addq	%rdi, %rsi	# tmp1740, tmp1741
	addq	$88, %rsi	#, tmp1742
	movzwl	8(%rdx,%rsi,2), %edx	# img.188_881->mprr, D.21084
	movzwl	%dx, %edx	# D.21084, D.21077
	subl	%edx, %ecx	# D.21077, D.21077
	movl	-460(%rbp), %edx	# j, tmp1744
	movslq	%edx, %rdx	# tmp1744, tmp1743
	movl	-464(%rbp), %esi	# i, tmp1746
	movslq	%esi, %rsi	# tmp1746, tmp1745
	salq	$4, %rsi	#, tmp1747
	addq	%rsi, %rdx	# tmp1747, tmp1748
	addq	$3276, %rdx	#, tmp1749
	movl	%ecx, 8(%rax,%rdx,4)	# D.21077, img.186_868->m7
	.loc 1 803 0 discriminator 2
	addl	$1, -464(%rbp)	#, i
.L244:
	.loc 1 803 0 is_stmt 0 discriminator 1
	cmpl	$3, -464(%rbp)	#, i
	jle	.L245	#,
	.loc 1 802 0 is_stmt 1
	addl	$1, -460(%rbp)	#, j
.L243:
	.loc 1 802 0 is_stmt 0 discriminator 1
	cmpl	$3, -460(%rbp)	#, j
	jle	.L246	#,
	.loc 1 808 0 is_stmt 1
	leaq	-492(%rbp), %rdx	#, tmp1750
	movl	-432(%rbp), %esi	# block_y, tmp1751
	movl	-436(%rbp), %eax	# block_x, tmp1752
	movl	$1, %ecx	#,
	movl	%eax, %edi	# tmp1752,
	call	dct_luma	#
	movl	%eax, -444(%rbp)	# tmp1753, nonzero
	jmp	.L247	#
.L242:
	.loc 1 811 0
	movl	$0, -460(%rbp)	#, j
	jmp	.L248	#
.L251:
	.loc 1 812 0
	movl	$0, -464(%rbp)	#, i
	jmp	.L249	#
.L250:
	.loc 1 814 0 discriminator 2
	movq	imgUV_org(%rip), %rax	# imgUV_org, imgUV_org.189
	movq	(%rax), %rax	# *imgUV_org.189_890, D.21082
	movl	-460(%rbp), %edx	# j, tmp1754
	movl	-416(%rbp), %ecx	# pic_opix_y, tmp1755
	addl	%ecx, %edx	# tmp1755, D.21077
	movslq	%edx, %rdx	# D.21077, D.21079
	salq	$3, %rdx	#, D.21079
	addq	%rdx, %rax	# D.21079, D.21082
	movq	(%rax), %rax	# *_895, D.21083
	movl	-464(%rbp), %edx	# i, tmp1756
	movl	-420(%rbp), %ecx	# pic_opix_x, tmp1757
	addl	%ecx, %edx	# tmp1757, D.21077
	movslq	%edx, %rdx	# D.21077, D.21079
	addq	%rdx, %rdx	# D.21079
	addq	%rdx, %rax	# D.21079, D.21083
	movzwl	(%rax), %eax	# *_900, D.21084
	movzwl	%ax, %edx	# D.21084, D.21077
	movq	img(%rip), %rax	# img, img.190
	movl	-464(%rbp), %ecx	# i, tmp1758
	movl	-436(%rbp), %esi	# block_x, tmp1759
	leal	(%rsi,%rcx), %r8d	#, D.21077
	movl	-460(%rbp), %ecx	# j, tmp1760
	movl	-432(%rbp), %esi	# block_y, tmp1761
	addl	%esi, %ecx	# tmp1761, D.21077
	movslq	%ecx, %rcx	# D.21077, tmp1762
	movl	-404(%rbp), %esi	# c_ipmode, tmp1764
	movslq	%esi, %rdi	# tmp1764, tmp1763
	movslq	%r8d, %rsi	# D.21077, tmp1765
	salq	$4, %rdi	#, tmp1766
	addq	%rdi, %rsi	# tmp1766, tmp1767
	salq	$4, %rsi	#, tmp1768
	addq	%rsi, %rcx	# tmp1768, tmp1769
	addq	$4248, %rcx	#, tmp1770
	movzwl	8(%rax,%rcx,2), %eax	# img.190_903->mprr_c, D.21084
	movzwl	%ax, %eax	# D.21084, D.21077
	subl	%eax, %edx	# D.21077, tmp1771
	movl	%edx, %eax	# tmp1771, tmp1771
	movl	%eax, -380(%rbp)	# tmp1771, residue_B
	.loc 1 815 0 discriminator 2
	movq	imgY_org(%rip), %rax	# imgY_org, imgY_org.191
	movl	-460(%rbp), %edx	# j, tmp1772
	movl	-416(%rbp), %ecx	# pic_opix_y, tmp1773
	addl	%ecx, %edx	# tmp1773, D.21077
	movslq	%edx, %rdx	# D.21077, D.21079
	salq	$3, %rdx	#, D.21079
	addq	%rdx, %rax	# D.21079, D.21082
	movq	(%rax), %rax	# *_913, D.21083
	movl	-464(%rbp), %edx	# i, tmp1774
	movl	-420(%rbp), %ecx	# pic_opix_x, tmp1775
	addl	%ecx, %edx	# tmp1775, D.21077
	movslq	%edx, %rdx	# D.21077, D.21079
	addq	%rdx, %rdx	# D.21079
	addq	%rdx, %rax	# D.21079, D.21083
	movzwl	(%rax), %eax	# *_918, D.21084
	movzwl	%ax, %edx	# D.21084, D.21077
	movq	img(%rip), %rax	# img, img.192
	movl	-464(%rbp), %ecx	# i, tmp1777
	movslq	%ecx, %rcx	# tmp1777, tmp1776
	movl	-468(%rbp), %esi	# best_ipmode, tmp1779
	movslq	%esi, %rdi	# tmp1779, tmp1778
	movl	-460(%rbp), %esi	# j, tmp1781
	movslq	%esi, %rsi	# tmp1781, tmp1780
	salq	$4, %rdi	#, tmp1782
	addq	%rdi, %rsi	# tmp1782, tmp1783
	salq	$4, %rsi	#, tmp1784
	addq	%rsi, %rcx	# tmp1784, tmp1785
	addq	$88, %rcx	#, tmp1786
	movzwl	8(%rax,%rcx,2), %eax	# img.192_921->mprr, D.21084
	movzwl	%ax, %eax	# D.21084, D.21077
	subl	%eax, %edx	# D.21077, tmp1787
	movl	%edx, %eax	# tmp1787, tmp1787
	movl	%eax, -376(%rbp)	# tmp1787, residue_G
	.loc 1 816 0 discriminator 2
	movq	imgUV_org(%rip), %rax	# imgUV_org, imgUV_org.193
	addq	$8, %rax	#, D.21088
	movq	(%rax), %rax	# *_926, D.21082
	movl	-460(%rbp), %edx	# j, tmp1788
	movl	-416(%rbp), %ecx	# pic_opix_y, tmp1789
	addl	%ecx, %edx	# tmp1789, D.21077
	movslq	%edx, %rdx	# D.21077, D.21079
	salq	$3, %rdx	#, D.21079
	addq	%rdx, %rax	# D.21079, D.21082
	movq	(%rax), %rax	# *_931, D.21083
	movl	-464(%rbp), %edx	# i, tmp1790
	movl	-420(%rbp), %ecx	# pic_opix_x, tmp1791
	addl	%ecx, %edx	# tmp1791, D.21077
	movslq	%edx, %rdx	# D.21077, D.21079
	addq	%rdx, %rdx	# D.21079
	addq	%rdx, %rax	# D.21079, D.21083
	movzwl	(%rax), %eax	# *_936, D.21084
	movzwl	%ax, %edx	# D.21084, D.21077
	movq	img(%rip), %rax	# img, img.194
	movl	-464(%rbp), %ecx	# i, tmp1792
	movl	-436(%rbp), %esi	# block_x, tmp1793
	leal	(%rsi,%rcx), %r8d	#, D.21077
	movl	-460(%rbp), %ecx	# j, tmp1794
	movl	-432(%rbp), %esi	# block_y, tmp1795
	addl	%esi, %ecx	# tmp1795, D.21077
	movslq	%ecx, %rcx	# D.21077, tmp1796
	movl	-404(%rbp), %esi	# c_ipmode, tmp1798
	movslq	%esi, %rdi	# tmp1798, tmp1797
	movslq	%r8d, %rsi	# D.21077, tmp1799
	salq	$4, %rdi	#, tmp1800
	addq	%rdi, %rsi	# tmp1800, tmp1801
	salq	$4, %rsi	#, tmp1802
	addq	%rsi, %rcx	# tmp1802, tmp1803
	addq	$5272, %rcx	#, tmp1804
	movzwl	8(%rax,%rcx,2), %eax	# img.194_939->mprr_c, D.21084
	movzwl	%ax, %eax	# D.21084, D.21077
	subl	%eax, %edx	# D.21077, tmp1805
	movl	%edx, %eax	# tmp1805, tmp1805
	movl	%eax, -372(%rbp)	# tmp1805, residue_R
	.loc 1 819 0 discriminator 2
	movl	-380(%rbp), %eax	# residue_B, tmp1806
	movl	-372(%rbp), %edx	# residue_R, tmp1807
	subl	%eax, %edx	# tmp1806, D.21077
	movl	-460(%rbp), %eax	# j, tmp1809
	cltq
	movl	-464(%rbp), %ecx	# i, tmp1811
	movslq	%ecx, %rcx	# tmp1811, tmp1810
	salq	$4, %rcx	#, tmp1812
	addq	%rcx, %rax	# tmp1812, tmp1813
	movl	%edx, resTrans_R(,%rax,4)	# D.21077, resTrans_R
	.loc 1 820 0 discriminator 2
	movl	-460(%rbp), %eax	# j, tmp1815
	cltq
	movl	-464(%rbp), %edx	# i, tmp1817
	movslq	%edx, %rdx	# tmp1817, tmp1816
	salq	$4, %rdx	#, tmp1818
	addq	%rdx, %rax	# tmp1818, tmp1819
	movl	resTrans_R(,%rax,4), %eax	# resTrans_R, D.21077
	sarl	%eax	# D.21077
	movl	%eax, %edx	# D.21077, D.21077
	movl	-380(%rbp), %eax	# residue_B, tmp1823
	addl	%edx, %eax	# D.21077, tmp1822
	movl	%eax, -368(%rbp)	# tmp1822, temp
	.loc 1 821 0 discriminator 2
	movl	-368(%rbp), %eax	# temp, tmp1824
	movl	-376(%rbp), %edx	# residue_G, tmp1825
	subl	%eax, %edx	# tmp1824, D.21077
	movl	-460(%rbp), %eax	# j, tmp1827
	cltq
	movl	-464(%rbp), %ecx	# i, tmp1829
	movslq	%ecx, %rcx	# tmp1829, tmp1828
	salq	$4, %rcx	#, tmp1830
	addq	%rcx, %rax	# tmp1830, tmp1831
	movl	%edx, resTrans_B(,%rax,4)	# D.21077, resTrans_B
	.loc 1 822 0 discriminator 2
	movl	-460(%rbp), %eax	# j, tmp1833
	cltq
	movl	-464(%rbp), %edx	# i, tmp1835
	movslq	%edx, %rdx	# tmp1835, tmp1834
	salq	$4, %rdx	#, tmp1836
	addq	%rdx, %rax	# tmp1836, tmp1837
	movl	resTrans_B(,%rax,4), %eax	# resTrans_B, D.21077
	sarl	%eax	# D.21077
	movl	%eax, %edx	# D.21077, D.21077
	movl	-368(%rbp), %eax	# temp, tmp1838
	addl	%eax, %edx	# tmp1838, D.21077
	movl	-460(%rbp), %eax	# j, tmp1840
	cltq
	movl	-464(%rbp), %ecx	# i, tmp1842
	movslq	%ecx, %rcx	# tmp1842, tmp1841
	salq	$4, %rcx	#, tmp1843
	addq	%rcx, %rax	# tmp1843, tmp1844
	movl	%edx, resTrans_G(,%rax,4)	# D.21077, resTrans_G
	.loc 1 812 0 discriminator 2
	addl	$1, -464(%rbp)	#, i
.L249:
	.loc 1 812 0 is_stmt 0 discriminator 1
	cmpl	$3, -464(%rbp)	#, i
	jle	.L250	#,
	.loc 1 811 0 is_stmt 1
	addl	$1, -460(%rbp)	#, j
.L248:
	.loc 1 811 0 is_stmt 0 discriminator 1
	cmpl	$3, -460(%rbp)	#, j
	jle	.L251	#,
	.loc 1 825 0 is_stmt 1
	movl	$0, -460(%rbp)	#, j
	jmp	.L252	#
.L255:
	.loc 1 826 0
	movl	$0, -464(%rbp)	#, i
	jmp	.L253	#
.L254:
	.loc 1 828 0 discriminator 2
	movq	img(%rip), %rax	# img, img.195
	movl	-460(%rbp), %edx	# j, tmp1846
	movslq	%edx, %rdx	# tmp1846, tmp1845
	movl	-464(%rbp), %ecx	# i, tmp1848
	movslq	%ecx, %rcx	# tmp1848, tmp1847
	salq	$4, %rcx	#, tmp1849
	addq	%rcx, %rdx	# tmp1849, tmp1850
	movl	resTrans_G(,%rdx,4), %edx	# resTrans_G, D.21077
	movl	-460(%rbp), %ecx	# j, tmp1852
	movslq	%ecx, %rcx	# tmp1852, tmp1851
	movl	-464(%rbp), %esi	# i, tmp1854
	movslq	%esi, %rsi	# tmp1854, tmp1853
	salq	$4, %rsi	#, tmp1855
	addq	%rsi, %rcx	# tmp1855, tmp1856
	addq	$3276, %rcx	#, tmp1857
	movl	%edx, 8(%rax,%rcx,4)	# D.21077, img.195_957->m7
	.loc 1 826 0 discriminator 2
	addl	$1, -464(%rbp)	#, i
.L253:
	.loc 1 826 0 is_stmt 0 discriminator 1
	cmpl	$3, -464(%rbp)	#, i
	jle	.L254	#,
	.loc 1 825 0 is_stmt 1
	addl	$1, -460(%rbp)	#, j
.L252:
	.loc 1 825 0 is_stmt 0 discriminator 1
	cmpl	$3, -460(%rbp)	#, j
	jle	.L255	#,
	.loc 1 830 0 is_stmt 1
	leaq	-492(%rbp), %rdx	#, tmp1858
	movl	-432(%rbp), %esi	# block_y, tmp1859
	movl	-436(%rbp), %eax	# block_x, tmp1860
	movl	$1, %ecx	#,
	movl	%eax, %edi	# tmp1860,
	call	dct_luma	#
	movl	%eax, -444(%rbp)	# tmp1861, nonzero
	.loc 1 831 0
	movl	$0, -460(%rbp)	#, j
	jmp	.L256	#
.L259:
	.loc 1 832 0
	movl	$0, -464(%rbp)	#, i
	jmp	.L257	#
.L258:
	.loc 1 834 0 discriminator 2
	movq	img(%rip), %rax	# img, img.196
	movl	-460(%rbp), %edx	# j, tmp1863
	movslq	%edx, %rdx	# tmp1863, tmp1862
	movl	-464(%rbp), %ecx	# i, tmp1865
	movslq	%ecx, %rcx	# tmp1865, tmp1864
	salq	$4, %rcx	#, tmp1866
	addq	%rcx, %rdx	# tmp1866, tmp1867
	addq	$3276, %rdx	#, tmp1868
	movl	8(%rax,%rdx,4), %eax	# img.196_964->m7, D.21077
	movl	-460(%rbp), %edx	# j, tmp1870
	movslq	%edx, %rdx	# tmp1870, tmp1869
	movl	-464(%rbp), %ecx	# i, tmp1872
	movslq	%ecx, %rcx	# tmp1872, tmp1871
	salq	$4, %rcx	#, tmp1873
	addq	%rcx, %rdx	# tmp1873, tmp1874
	movl	%eax, rec_resG(,%rdx,4)	# D.21077, rec_resG
	.loc 1 835 0 discriminator 2
	movq	img(%rip), %rax	# img, img.197
	movl	-460(%rbp), %edx	# j, tmp1876
	movslq	%edx, %rdx	# tmp1876, tmp1875
	movl	-464(%rbp), %ecx	# i, tmp1878
	movslq	%ecx, %rcx	# tmp1878, tmp1877
	salq	$4, %rcx	#, tmp1879
	addq	%rcx, %rdx	# tmp1879, tmp1880
	movl	resTrans_R(,%rdx,4), %edx	# resTrans_R, D.21077
	movl	-460(%rbp), %ecx	# j, tmp1882
	movslq	%ecx, %rcx	# tmp1882, tmp1881
	movl	-464(%rbp), %esi	# i, tmp1884
	movslq	%esi, %rsi	# tmp1884, tmp1883
	salq	$4, %rsi	#, tmp1885
	addq	%rsi, %rcx	# tmp1885, tmp1886
	addq	$3276, %rcx	#, tmp1887
	movl	%edx, 8(%rax,%rcx,4)	# D.21077, img.197_966->m7
	.loc 1 832 0 discriminator 2
	addl	$1, -464(%rbp)	#, i
.L257:
	.loc 1 832 0 is_stmt 0 discriminator 1
	cmpl	$3, -464(%rbp)	#, i
	jle	.L258	#,
	.loc 1 831 0 is_stmt 1
	addl	$1, -460(%rbp)	#, j
.L256:
	.loc 1 831 0 is_stmt 0 discriminator 1
	cmpl	$3, -460(%rbp)	#, j
	jle	.L259	#,
	.loc 1 837 0 is_stmt 1
	movl	-500(%rbp), %eax	# b8, tmp1888
	cltd
	shrl	$31, %edx	#, tmp1890
	addl	%edx, %eax	# tmp1890, tmp1891
	andl	$1, %eax	#, tmp1892
	subl	%edx, %eax	# tmp1890, tmp1893
	leal	(%rax,%rax), %ecx	#, D.21077
	movl	-504(%rbp), %eax	# b4, tmp1894
	cltd
	shrl	$31, %edx	#, tmp1896
	addl	%edx, %eax	# tmp1896, tmp1897
	andl	$1, %eax	#, tmp1898
	subl	%edx, %eax	# tmp1896, tmp1899
	leal	(%rcx,%rax), %ebx	#, D.21077
	movl	-500(%rbp), %eax	# b8, tmp1900
	movl	%eax, %edx	# tmp1900, tmp1901
	shrl	$31, %edx	#, tmp1901
	addl	%edx, %eax	# tmp1901, tmp1902
	sarl	%eax	# tmp1903
	leal	(%rax,%rax), %edx	#, D.21077
	movl	-504(%rbp), %eax	# b4, tmp1904
	movl	%eax, %ecx	# tmp1904, tmp1905
	shrl	$31, %ecx	#, tmp1905
	addl	%ecx, %eax	# tmp1905, tmp1906
	sarl	%eax	# tmp1907
	leal	(%rdx,%rax), %r12d	#, D.21077
	movl	-500(%rbp), %eax	# b8, tmp1908
	leal	4(%rax), %ecx	#, D.21077
	movl	-504(%rbp), %eax	# b4, tmp1909
	movl	%eax, %edx	# tmp1909,
	movl	%ecx, %esi	# D.21077,
	movl	$0, %edi	#,
	call	dct_chroma4x4	#
	movslq	%r12d, %rdx	# D.21077, tmp1910
	movslq	%ebx, %rcx	# D.21077, tmp1911
	salq	$2, %rcx	#, tmp1912
	addq	%rcx, %rdx	# tmp1912, tmp1913
	movl	%eax, cbp_chroma_block(,%rdx,4)	# D.21077, cbp_chroma_block
	.loc 1 838 0
	movl	-500(%rbp), %eax	# b8, tmp1914
	cltd
	shrl	$31, %edx	#, tmp1916
	addl	%edx, %eax	# tmp1916, tmp1917
	andl	$1, %eax	#, tmp1918
	subl	%edx, %eax	# tmp1916, tmp1919
	leal	(%rax,%rax), %ecx	#, D.21077
	movl	-504(%rbp), %eax	# b4, tmp1920
	cltd
	shrl	$31, %edx	#, tmp1922
	addl	%edx, %eax	# tmp1922, tmp1923
	andl	$1, %eax	#, tmp1924
	subl	%edx, %eax	# tmp1922, tmp1925
	addl	%eax, %ecx	# D.21077, D.21077
	movl	-500(%rbp), %eax	# b8, tmp1926
	movl	%eax, %edx	# tmp1926, tmp1927
	shrl	$31, %edx	#, tmp1927
	addl	%edx, %eax	# tmp1927, tmp1928
	sarl	%eax	# tmp1929
	leal	(%rax,%rax), %edx	#, D.21077
	movl	-504(%rbp), %eax	# b4, tmp1930
	movl	%eax, %esi	# tmp1930, tmp1931
	shrl	$31, %esi	#, tmp1931
	addl	%esi, %eax	# tmp1931, tmp1932
	sarl	%eax	# tmp1933
	leal	(%rdx,%rax), %esi	#, D.21077
	movl	-500(%rbp), %eax	# b8, tmp1934
	cltd
	shrl	$31, %edx	#, tmp1936
	addl	%edx, %eax	# tmp1936, tmp1937
	andl	$1, %eax	#, tmp1938
	subl	%edx, %eax	# tmp1936, tmp1939
	leal	(%rax,%rax), %edi	#, D.21077
	movl	-504(%rbp), %eax	# b4, tmp1940
	cltd
	shrl	$31, %edx	#, tmp1942
	addl	%edx, %eax	# tmp1942, tmp1943
	andl	$1, %eax	#, tmp1944
	subl	%edx, %eax	# tmp1942, tmp1945
	leal	(%rdi,%rax), %edx	#, D.21077
	movl	-500(%rbp), %eax	# b8, tmp1946
	movl	%eax, %edi	# tmp1946, tmp1947
	shrl	$31, %edi	#, tmp1947
	addl	%edi, %eax	# tmp1947, tmp1948
	sarl	%eax	# tmp1949
	leal	(%rax,%rax), %edi	#, D.21077
	movl	-504(%rbp), %eax	# b4, tmp1950
	movl	%eax, %r8d	# tmp1950, tmp1951
	shrl	$31, %r8d	#, tmp1951
	addl	%r8d, %eax	# tmp1951, tmp1952
	sarl	%eax	# tmp1953
	addl	%edi, %eax	# D.21077, D.21077
	cltq
	movslq	%edx, %rdx	# D.21077, tmp1955
	salq	$2, %rdx	#, tmp1956
	addq	%rdx, %rax	# tmp1956, tmp1957
	movl	dc_level_temp(,%rax,4), %eax	# dc_level_temp, D.21077
	movslq	%esi, %rdx	# D.21077, tmp1958
	movslq	%ecx, %rcx	# D.21077, tmp1959
	salq	$2, %rcx	#, tmp1960
	addq	%rcx, %rdx	# tmp1960, tmp1961
	movl	%eax, dc_level(,%rdx,4)	# D.21077, dc_level
	.loc 1 839 0
	movl	$0, -460(%rbp)	#, j
	jmp	.L260	#
.L263:
	.loc 1 840 0
	movl	$0, -464(%rbp)	#, i
	jmp	.L261	#
.L262:
	.loc 1 842 0 discriminator 2
	movq	img(%rip), %rax	# img, img.198
	movl	-460(%rbp), %edx	# j, tmp1963
	movslq	%edx, %rdx	# tmp1963, tmp1962
	movl	-464(%rbp), %ecx	# i, tmp1965
	movslq	%ecx, %rcx	# tmp1965, tmp1964
	salq	$4, %rcx	#, tmp1966
	addq	%rcx, %rdx	# tmp1966, tmp1967
	addq	$3276, %rdx	#, tmp1968
	movl	8(%rax,%rdx,4), %eax	# img.198_999->m7, D.21077
	movl	-460(%rbp), %edx	# j, tmp1970
	movslq	%edx, %rdx	# tmp1970, tmp1969
	movl	-464(%rbp), %ecx	# i, tmp1972
	movslq	%ecx, %rcx	# tmp1972, tmp1971
	salq	$4, %rcx	#, tmp1973
	addq	%rcx, %rdx	# tmp1973, tmp1974
	movl	%eax, rec_resR(,%rdx,4)	# D.21077, rec_resR
	.loc 1 843 0 discriminator 2
	movq	img(%rip), %rax	# img, img.199
	movl	-460(%rbp), %edx	# j, tmp1976
	movslq	%edx, %rdx	# tmp1976, tmp1975
	movl	-464(%rbp), %ecx	# i, tmp1978
	movslq	%ecx, %rcx	# tmp1978, tmp1977
	salq	$4, %rcx	#, tmp1979
	addq	%rcx, %rdx	# tmp1979, tmp1980
	movl	resTrans_B(,%rdx,4), %edx	# resTrans_B, D.21077
	movl	-460(%rbp), %ecx	# j, tmp1982
	movslq	%ecx, %rcx	# tmp1982, tmp1981
	movl	-464(%rbp), %esi	# i, tmp1984
	movslq	%esi, %rsi	# tmp1984, tmp1983
	salq	$4, %rsi	#, tmp1985
	addq	%rsi, %rcx	# tmp1985, tmp1986
	addq	$3276, %rcx	#, tmp1987
	movl	%edx, 8(%rax,%rcx,4)	# D.21077, img.199_1001->m7
	.loc 1 840 0 discriminator 2
	addl	$1, -464(%rbp)	#, i
.L261:
	.loc 1 840 0 is_stmt 0 discriminator 1
	cmpl	$3, -464(%rbp)	#, i
	jle	.L262	#,
	.loc 1 839 0 is_stmt 1
	addl	$1, -460(%rbp)	#, j
.L260:
	.loc 1 839 0 is_stmt 0 discriminator 1
	cmpl	$3, -460(%rbp)	#, j
	jle	.L263	#,
	.loc 1 845 0 is_stmt 1
	movl	-500(%rbp), %eax	# b8, tmp1988
	cltd
	shrl	$31, %edx	#, tmp1990
	addl	%edx, %eax	# tmp1990, tmp1991
	andl	$1, %eax	#, tmp1992
	subl	%edx, %eax	# tmp1990, tmp1993
	leal	(%rax,%rax), %ecx	#, D.21077
	movl	-504(%rbp), %eax	# b4, tmp1994
	cltd
	shrl	$31, %edx	#, tmp1996
	addl	%edx, %eax	# tmp1996, tmp1997
	andl	$1, %eax	#, tmp1998
	subl	%edx, %eax	# tmp1996, tmp1999
	leal	(%rcx,%rax), %ebx	#, D.21077
	movl	-500(%rbp), %eax	# b8, tmp2000
	movl	%eax, %edx	# tmp2000, tmp2001
	shrl	$31, %edx	#, tmp2001
	addl	%edx, %eax	# tmp2001, tmp2002
	sarl	%eax	# tmp2003
	leal	(%rax,%rax), %edx	#, D.21077
	movl	-504(%rbp), %eax	# b4, tmp2004
	movl	%eax, %ecx	# tmp2004, tmp2005
	shrl	$31, %ecx	#, tmp2005
	addl	%ecx, %eax	# tmp2005, tmp2006
	sarl	%eax	# tmp2007
	leal	(%rdx,%rax), %r12d	#, D.21077
	movl	-500(%rbp), %eax	# b8, tmp2008
	leal	8(%rax), %ecx	#, D.21077
	movl	-504(%rbp), %eax	# b4, tmp2009
	movl	%eax, %edx	# tmp2009,
	movl	%ecx, %esi	# D.21077,
	movl	$1, %edi	#,
	call	dct_chroma4x4	#
	movslq	%r12d, %rdx	# D.21077, tmp2010
	movslq	%ebx, %rcx	# D.21077, tmp2011
	salq	$2, %rcx	#, tmp2012
	addq	%rcx, %rdx	# tmp2012, tmp2013
	addq	$16, %rdx	#, tmp2014
	movl	%eax, cbp_chroma_block(,%rdx,4)	# D.21077, cbp_chroma_block
	.loc 1 846 0
	movl	-500(%rbp), %eax	# b8, tmp2015
	cltd
	shrl	$31, %edx	#, tmp2017
	addl	%edx, %eax	# tmp2017, tmp2018
	andl	$1, %eax	#, tmp2019
	subl	%edx, %eax	# tmp2017, tmp2020
	leal	(%rax,%rax), %ecx	#, D.21077
	movl	-504(%rbp), %eax	# b4, tmp2021
	cltd
	shrl	$31, %edx	#, tmp2023
	addl	%edx, %eax	# tmp2023, tmp2024
	andl	$1, %eax	#, tmp2025
	subl	%edx, %eax	# tmp2023, tmp2026
	addl	%eax, %ecx	# D.21077, D.21077
	movl	-500(%rbp), %eax	# b8, tmp2027
	movl	%eax, %edx	# tmp2027, tmp2028
	shrl	$31, %edx	#, tmp2028
	addl	%edx, %eax	# tmp2028, tmp2029
	sarl	%eax	# tmp2030
	leal	(%rax,%rax), %edx	#, D.21077
	movl	-504(%rbp), %eax	# b4, tmp2031
	movl	%eax, %esi	# tmp2031, tmp2032
	shrl	$31, %esi	#, tmp2032
	addl	%esi, %eax	# tmp2032, tmp2033
	sarl	%eax	# tmp2034
	leal	(%rdx,%rax), %esi	#, D.21077
	movl	-500(%rbp), %eax	# b8, tmp2035
	cltd
	shrl	$31, %edx	#, tmp2037
	addl	%edx, %eax	# tmp2037, tmp2038
	andl	$1, %eax	#, tmp2039
	subl	%edx, %eax	# tmp2037, tmp2040
	leal	(%rax,%rax), %edi	#, D.21077
	movl	-504(%rbp), %eax	# b4, tmp2041
	cltd
	shrl	$31, %edx	#, tmp2043
	addl	%edx, %eax	# tmp2043, tmp2044
	andl	$1, %eax	#, tmp2045
	subl	%edx, %eax	# tmp2043, tmp2046
	leal	(%rdi,%rax), %edx	#, D.21077
	movl	-500(%rbp), %eax	# b8, tmp2047
	movl	%eax, %edi	# tmp2047, tmp2048
	shrl	$31, %edi	#, tmp2048
	addl	%edi, %eax	# tmp2048, tmp2049
	sarl	%eax	# tmp2050
	leal	(%rax,%rax), %edi	#, D.21077
	movl	-504(%rbp), %eax	# b4, tmp2051
	movl	%eax, %r8d	# tmp2051, tmp2052
	shrl	$31, %r8d	#, tmp2052
	addl	%r8d, %eax	# tmp2052, tmp2053
	sarl	%eax	# tmp2054
	addl	%edi, %eax	# D.21077, D.21077
	cltq
	movslq	%edx, %rdx	# D.21077, tmp2056
	salq	$2, %rdx	#, tmp2057
	addq	%rdx, %rax	# tmp2057, tmp2058
	addq	$16, %rax	#, tmp2059
	movl	dc_level_temp(,%rax,4), %eax	# dc_level_temp, D.21077
	movslq	%esi, %rdx	# D.21077, tmp2060
	movslq	%ecx, %rcx	# D.21077, tmp2061
	salq	$2, %rcx	#, tmp2062
	addq	%rcx, %rdx	# tmp2062, tmp2063
	addq	$16, %rdx	#, tmp2064
	movl	%eax, dc_level(,%rdx,4)	# D.21077, dc_level
	.loc 1 847 0
	movl	$0, -460(%rbp)	#, j
	jmp	.L264	#
.L267:
	.loc 1 848 0
	movl	$0, -464(%rbp)	#, i
	jmp	.L265	#
.L266:
	.loc 1 850 0 discriminator 2
	movq	img(%rip), %rax	# img, img.200
	movl	-460(%rbp), %edx	# j, tmp2066
	movslq	%edx, %rdx	# tmp2066, tmp2065
	movl	-464(%rbp), %ecx	# i, tmp2068
	movslq	%ecx, %rcx	# tmp2068, tmp2067
	salq	$4, %rcx	#, tmp2069
	addq	%rcx, %rdx	# tmp2069, tmp2070
	addq	$3276, %rdx	#, tmp2071
	movl	8(%rax,%rdx,4), %eax	# img.200_1034->m7, D.21077
	movl	-460(%rbp), %edx	# j, tmp2073
	movslq	%edx, %rdx	# tmp2073, tmp2072
	movl	-464(%rbp), %ecx	# i, tmp2075
	movslq	%ecx, %rcx	# tmp2075, tmp2074
	salq	$4, %rcx	#, tmp2076
	addq	%rcx, %rdx	# tmp2076, tmp2077
	movl	%eax, rec_resB(,%rdx,4)	# D.21077, rec_resB
	.loc 1 848 0 discriminator 2
	addl	$1, -464(%rbp)	#, i
.L265:
	.loc 1 848 0 is_stmt 0 discriminator 1
	cmpl	$3, -464(%rbp)	#, i
	jle	.L266	#,
	.loc 1 847 0 is_stmt 1
	addl	$1, -460(%rbp)	#, j
.L264:
	.loc 1 847 0 is_stmt 0 discriminator 1
	cmpl	$3, -460(%rbp)	#, j
	jle	.L267	#,
	.loc 1 852 0 is_stmt 1
	movl	$0, -460(%rbp)	#, j
	jmp	.L268	#
.L271:
	.loc 1 853 0
	movl	$0, -464(%rbp)	#, i
	jmp	.L269	#
.L270:
	.loc 1 856 0 discriminator 2
	movl	-460(%rbp), %eax	# j, tmp2079
	cltq
	movl	-464(%rbp), %edx	# i, tmp2081
	movslq	%edx, %rdx	# tmp2081, tmp2080
	salq	$4, %rdx	#, tmp2082
	addq	%rdx, %rax	# tmp2082, tmp2083
	movl	rec_resG(,%rax,4), %eax	# rec_resG, D.21077
	movl	-460(%rbp), %edx	# j, tmp2085
	movslq	%edx, %rdx	# tmp2085, tmp2084
	movl	-464(%rbp), %ecx	# i, tmp2087
	movslq	%ecx, %rcx	# tmp2087, tmp2086
	salq	$4, %rcx	#, tmp2088
	addq	%rcx, %rdx	# tmp2088, tmp2089
	movl	rec_resB(,%rdx,4), %edx	# rec_resB, D.21077
	sarl	%edx	# D.21077
	subl	%edx, %eax	# D.21077, tmp2090
	movl	%eax, -368(%rbp)	# tmp2090, temp
	.loc 1 857 0 discriminator 2
	movl	-460(%rbp), %eax	# j, tmp2092
	cltq
	movl	-464(%rbp), %edx	# i, tmp2094
	movslq	%edx, %rdx	# tmp2094, tmp2093
	salq	$4, %rdx	#, tmp2095
	addq	%rdx, %rax	# tmp2095, tmp2096
	movl	rec_resB(,%rax,4), %edx	# rec_resB, D.21077
	movl	-368(%rbp), %eax	# temp, tmp2100
	addl	%edx, %eax	# D.21077, tmp2099
	movl	%eax, -376(%rbp)	# tmp2099, residue_G
	.loc 1 858 0 discriminator 2
	movl	-460(%rbp), %eax	# j, tmp2102
	cltq
	movl	-464(%rbp), %edx	# i, tmp2104
	movslq	%edx, %rdx	# tmp2104, tmp2103
	salq	$4, %rdx	#, tmp2105
	addq	%rdx, %rax	# tmp2105, tmp2106
	movl	rec_resR(,%rax,4), %eax	# rec_resR, D.21077
	sarl	%eax	# D.21077
	movl	%eax, %edx	# D.21077, D.21077
	movl	-368(%rbp), %eax	# temp, tmp2110
	subl	%edx, %eax	# D.21077, tmp2109
	movl	%eax, -380(%rbp)	# tmp2109, residue_B
	.loc 1 859 0 discriminator 2
	movl	-460(%rbp), %eax	# j, tmp2112
	cltq
	movl	-464(%rbp), %edx	# i, tmp2114
	movslq	%edx, %rdx	# tmp2114, tmp2113
	salq	$4, %rdx	#, tmp2115
	addq	%rdx, %rax	# tmp2115, tmp2116
	movl	rec_resR(,%rax,4), %edx	# rec_resR, D.21077
	movl	-380(%rbp), %eax	# residue_B, tmp2120
	addl	%edx, %eax	# D.21077, tmp2119
	movl	%eax, -372(%rbp)	# tmp2119, residue_R
	.loc 1 860 0 discriminator 2
	movq	enc_picture(%rip), %rax	# enc_picture, enc_picture.201
	movq	6464(%rax), %rax	# enc_picture.201_1051->imgUV, D.21088
	movq	(%rax), %rax	# *_1052, D.21082
	movl	-460(%rbp), %edx	# j, tmp2121
	movl	-424(%rbp), %ecx	# pic_pix_y, tmp2122
	addl	%ecx, %edx	# tmp2122, D.21077
	movslq	%edx, %rdx	# D.21077, D.21079
	salq	$3, %rdx	#, D.21079
	addq	%rdx, %rax	# D.21079, D.21082
	movq	(%rax), %rax	# *_1057, D.21083
	movl	-464(%rbp), %edx	# i, tmp2123
	movl	-428(%rbp), %ecx	# pic_pix_x, tmp2124
	addl	%ecx, %edx	# tmp2124, D.21077
	movslq	%edx, %rdx	# D.21077, D.21079
	addq	%rdx, %rdx	# D.21079
	leaq	(%rax,%rdx), %rcx	#, D.21083
	movq	img(%rip), %rax	# img, img.202
	movl	-464(%rbp), %edx	# i, tmp2125
	movl	-436(%rbp), %esi	# block_x, tmp2126
	leal	(%rsi,%rdx), %r8d	#, D.21077
	movl	-460(%rbp), %edx	# j, tmp2127
	movl	-432(%rbp), %esi	# block_y, tmp2128
	addl	%esi, %edx	# tmp2128, D.21077
	movslq	%edx, %rdx	# D.21077, tmp2129
	movl	-404(%rbp), %esi	# c_ipmode, tmp2131
	movslq	%esi, %rdi	# tmp2131, tmp2130
	movslq	%r8d, %rsi	# D.21077, tmp2132
	salq	$4, %rdi	#, tmp2133
	addq	%rdi, %rsi	# tmp2133, tmp2134
	salq	$4, %rsi	#, tmp2135
	addq	%rsi, %rdx	# tmp2135, tmp2136
	addq	$4248, %rdx	#, tmp2137
	movzwl	8(%rax,%rdx,2), %eax	# img.202_1063->mprr_c, D.21084
	movzwl	%ax, %edx	# D.21084, D.21077
	movl	-380(%rbp), %eax	# residue_B, tmp2138
	addl	%edx, %eax	# D.21077, D.21077
	movl	$0, %edx	#, tmp2139
	testl	%eax, %eax	# D.21077
	cmovns	%eax, %edx	# D.21077,, D.21077
	movq	img(%rip), %rax	# img, img.203
	movl	72688(%rax), %eax	# img.203_1070->max_imgpel_value_uv, D.21077
	cmpl	%eax, %edx	# D.21077, D.21077
	cmovle	%edx, %eax	# D.21077,, D.21077
	movw	%ax, (%rcx)	# D.21084, *_1062
	.loc 1 861 0 discriminator 2
	movq	enc_picture(%rip), %rax	# enc_picture, enc_picture.204
	movq	6424(%rax), %rax	# enc_picture.204_1074->imgY, D.21082
	movl	-460(%rbp), %edx	# j, tmp2140
	movl	-424(%rbp), %ecx	# pic_pix_y, tmp2141
	addl	%ecx, %edx	# tmp2141, D.21077
	movslq	%edx, %rdx	# D.21077, D.21079
	salq	$3, %rdx	#, D.21079
	addq	%rdx, %rax	# D.21079, D.21082
	movq	(%rax), %rax	# *_1079, D.21083
	movl	-464(%rbp), %edx	# i, tmp2142
	movl	-428(%rbp), %ecx	# pic_pix_x, tmp2143
	addl	%ecx, %edx	# tmp2143, D.21077
	movslq	%edx, %rdx	# D.21077, D.21079
	addq	%rdx, %rdx	# D.21079
	leaq	(%rax,%rdx), %rcx	#, D.21083
	movq	img(%rip), %rax	# img, img.205
	movl	-464(%rbp), %edx	# i, tmp2145
	movslq	%edx, %rdx	# tmp2145, tmp2144
	movl	-468(%rbp), %esi	# best_ipmode, tmp2147
	movslq	%esi, %rdi	# tmp2147, tmp2146
	movl	-460(%rbp), %esi	# j, tmp2149
	movslq	%esi, %rsi	# tmp2149, tmp2148
	salq	$4, %rdi	#, tmp2150
	addq	%rdi, %rsi	# tmp2150, tmp2151
	salq	$4, %rsi	#, tmp2152
	addq	%rsi, %rdx	# tmp2152, tmp2153
	addq	$88, %rdx	#, tmp2154
	movzwl	8(%rax,%rdx,2), %eax	# img.205_1085->mprr, D.21084
	movzwl	%ax, %edx	# D.21084, D.21077
	movl	-376(%rbp), %eax	# residue_G, tmp2155
	addl	%edx, %eax	# D.21077, D.21077
	movl	$0, %edx	#, tmp2156
	testl	%eax, %eax	# D.21077
	cmovns	%eax, %edx	# D.21077,, D.21077
	movq	img(%rip), %rax	# img, img.206
	movl	72684(%rax), %eax	# img.206_1090->max_imgpel_value, D.21077
	cmpl	%eax, %edx	# D.21077, D.21077
	cmovle	%edx, %eax	# D.21077,, D.21077
	movw	%ax, (%rcx)	# D.21084, *_1084
	.loc 1 862 0 discriminator 2
	movq	enc_picture(%rip), %rax	# enc_picture, enc_picture.207
	movq	6464(%rax), %rax	# enc_picture.207_1094->imgUV, D.21088
	addq	$8, %rax	#, D.21088
	movq	(%rax), %rax	# *_1096, D.21082
	movl	-460(%rbp), %edx	# j, tmp2157
	movl	-424(%rbp), %ecx	# pic_pix_y, tmp2158
	addl	%ecx, %edx	# tmp2158, D.21077
	movslq	%edx, %rdx	# D.21077, D.21079
	salq	$3, %rdx	#, D.21079
	addq	%rdx, %rax	# D.21079, D.21082
	movq	(%rax), %rax	# *_1101, D.21083
	movl	-464(%rbp), %edx	# i, tmp2159
	movl	-428(%rbp), %ecx	# pic_pix_x, tmp2160
	addl	%ecx, %edx	# tmp2160, D.21077
	movslq	%edx, %rdx	# D.21077, D.21079
	addq	%rdx, %rdx	# D.21079
	leaq	(%rax,%rdx), %rcx	#, D.21083
	movq	img(%rip), %rax	# img, img.208
	movl	-464(%rbp), %edx	# i, tmp2161
	movl	-436(%rbp), %esi	# block_x, tmp2162
	leal	(%rsi,%rdx), %r8d	#, D.21077
	movl	-460(%rbp), %edx	# j, tmp2163
	movl	-432(%rbp), %esi	# block_y, tmp2164
	addl	%esi, %edx	# tmp2164, D.21077
	movslq	%edx, %rdx	# D.21077, tmp2165
	movl	-404(%rbp), %esi	# c_ipmode, tmp2167
	movslq	%esi, %rdi	# tmp2167, tmp2166
	movslq	%r8d, %rsi	# D.21077, tmp2168
	salq	$4, %rdi	#, tmp2169
	addq	%rdi, %rsi	# tmp2169, tmp2170
	salq	$4, %rsi	#, tmp2171
	addq	%rsi, %rdx	# tmp2171, tmp2172
	addq	$5272, %rdx	#, tmp2173
	movzwl	8(%rax,%rdx,2), %eax	# img.208_1107->mprr_c, D.21084
	movzwl	%ax, %edx	# D.21084, D.21077
	movl	-372(%rbp), %eax	# residue_R, tmp2174
	addl	%edx, %eax	# D.21077, D.21077
	movl	$0, %edx	#, tmp2175
	testl	%eax, %eax	# D.21077
	cmovns	%eax, %edx	# D.21077,, D.21077
	movq	img(%rip), %rax	# img, img.209
	movl	72688(%rax), %eax	# img.209_1114->max_imgpel_value_uv, D.21077
	cmpl	%eax, %edx	# D.21077, D.21077
	cmovle	%edx, %eax	# D.21077,, D.21077
	movw	%ax, (%rcx)	# D.21084, *_1106
	.loc 1 853 0 discriminator 2
	addl	$1, -464(%rbp)	#, i
.L269:
	.loc 1 853 0 is_stmt 0 discriminator 1
	cmpl	$3, -464(%rbp)	#, i
	jle	.L270	#,
	.loc 1 852 0 is_stmt 1
	addl	$1, -460(%rbp)	#, j
.L268:
	.loc 1 852 0 is_stmt 0 discriminator 1
	cmpl	$3, -460(%rbp)	#, j
	jle	.L271	#,
	jmp	.L247	#
.L241:
	.loc 1 869 0 is_stmt 1
	movl	$0, -460(%rbp)	#, j
	jmp	.L272	#
.L275:
	.loc 1 870 0
	movl	$0, -464(%rbp)	#, i
	jmp	.L273	#
.L274:
	.loc 1 870 0 is_stmt 0 discriminator 2
	movq	img(%rip), %rax	# img, img.210
	movq	14136(%rax), %rax	# img.210_1122->cofAC, D.21086
	movl	-500(%rbp), %edx	# b8, tmp2176
	movslq	%edx, %rdx	# tmp2176, D.21079
	salq	$3, %rdx	#, D.21079
	addq	%rdx, %rax	# D.21079, D.21086
	movq	(%rax), %rax	# *_1126, D.21087
	movl	-504(%rbp), %edx	# b4, tmp2177
	movslq	%edx, %rdx	# tmp2177, D.21079
	salq	$3, %rdx	#, D.21079
	addq	%rdx, %rax	# D.21079, D.21087
	movq	(%rax), %rax	# *_1130, D.21081
	movl	-460(%rbp), %edx	# j, tmp2178
	movslq	%edx, %rdx	# tmp2178, D.21079
	salq	$3, %rdx	#, D.21079
	addq	%rdx, %rax	# D.21079, D.21081
	movq	(%rax), %rax	# *_1134, D.21080
	movl	-464(%rbp), %edx	# i, tmp2179
	movslq	%edx, %rdx	# tmp2179, D.21079
	salq	$2, %rdx	#, D.21079
	addq	%rax, %rdx	# D.21080, D.21080
	movq	cofAC4x4(%rip), %rax	# cofAC4x4, cofAC4x4.211
	movl	-460(%rbp), %ecx	# j, tmp2180
	movslq	%ecx, %rcx	# tmp2180, D.21079
	salq	$3, %rcx	#, D.21079
	addq	%rcx, %rax	# D.21079, D.21081
	movq	(%rax), %rax	# *_1142, D.21080
	movl	-464(%rbp), %ecx	# i, tmp2181
	movslq	%ecx, %rcx	# tmp2181, D.21079
	salq	$2, %rcx	#, D.21079
	addq	%rcx, %rax	# D.21079, D.21080
	movl	(%rax), %eax	# *_1146, D.21077
	movl	%eax, (%rdx)	# D.21077, *_1138
	addl	$1, -464(%rbp)	#, i
.L273:
	.loc 1 870 0 discriminator 1
	cmpl	$17, -464(%rbp)	#, i
	jle	.L274	#,
	.loc 1 869 0 is_stmt 1
	addl	$1, -460(%rbp)	#, j
.L272:
	.loc 1 869 0 is_stmt 0 discriminator 1
	cmpl	$1, -460(%rbp)	#, j
	jle	.L275	#,
	.loc 1 873 0 is_stmt 1
	movq	img(%rip), %rax	# img, img.212
	movl	72724(%rax), %eax	# img.212_1150->residue_transform_flag, D.21077
	testl	%eax, %eax	# D.21077
	je	.L276	#,
	.loc 1 875 0
	movl	$0, -460(%rbp)	#, j
	jmp	.L277	#
.L280:
	.loc 1 876 0
	movl	$0, -464(%rbp)	#, i
	jmp	.L278	#
.L279:
	.loc 1 876 0 is_stmt 0 discriminator 2
	movq	img(%rip), %rax	# img, img.213
	movq	14136(%rax), %rax	# img.213_1154->cofAC, D.21086
	movl	-500(%rbp), %edx	# b8, tmp2182
	movslq	%edx, %rdx	# tmp2182, D.21089
	addq	$4, %rdx	#, D.21089
	salq	$3, %rdx	#, D.21089
	addq	%rdx, %rax	# D.21089, D.21086
	movq	(%rax), %rax	# *_1159, D.21087
	movl	-504(%rbp), %edx	# b4, tmp2183
	movslq	%edx, %rdx	# tmp2183, D.21079
	salq	$3, %rdx	#, D.21079
	addq	%rdx, %rax	# D.21079, D.21087
	movq	(%rax), %rax	# *_1163, D.21081
	movl	-460(%rbp), %edx	# j, tmp2184
	movslq	%edx, %rdx	# tmp2184, D.21079
	salq	$3, %rdx	#, D.21079
	addq	%rdx, %rax	# D.21079, D.21081
	movq	(%rax), %rax	# *_1167, D.21080
	movl	-464(%rbp), %edx	# i, tmp2185
	movslq	%edx, %rdx	# tmp2185, D.21079
	salq	$2, %rdx	#, D.21079
	leaq	(%rax,%rdx), %rcx	#, D.21080
	movl	-464(%rbp), %eax	# i, tmp2187
	movslq	%eax, %rsi	# tmp2187, tmp2186
	movl	-460(%rbp), %eax	# j, tmp2189
	movslq	%eax, %rdx	# tmp2189, tmp2188
	movq	%rdx, %rax	# tmp2188, tmp2190
	salq	$3, %rax	#, tmp2190
	addq	%rdx, %rax	# tmp2188, tmp2190
	addq	%rax, %rax	# tmp2191
	addq	%rsi, %rax	# tmp2186, tmp2192
	movl	cofAC4x4_chroma(,%rax,4), %eax	# cofAC4x4_chroma, D.21077
	movl	%eax, (%rcx)	# D.21077, *_1171
	addl	$1, -464(%rbp)	#, i
.L278:
	.loc 1 876 0 discriminator 1
	cmpl	$17, -464(%rbp)	#, i
	jle	.L279	#,
	.loc 1 875 0 is_stmt 1
	addl	$1, -460(%rbp)	#, j
.L277:
	.loc 1 875 0 is_stmt 0 discriminator 1
	cmpl	$1, -460(%rbp)	#, j
	jle	.L280	#,
	.loc 1 877 0 is_stmt 1
	movl	$0, -460(%rbp)	#, j
	jmp	.L281	#
.L284:
	.loc 1 878 0
	movl	$0, -464(%rbp)	#, i
	jmp	.L282	#
.L283:
	.loc 1 878 0 is_stmt 0 discriminator 2
	movq	img(%rip), %rax	# img, img.214
	movq	14136(%rax), %rax	# img.214_1177->cofAC, D.21086
	movl	-500(%rbp), %edx	# b8, tmp2193
	movslq	%edx, %rdx	# tmp2193, D.21089
	addq	$8, %rdx	#, D.21089
	salq	$3, %rdx	#, D.21089
	addq	%rdx, %rax	# D.21089, D.21086
	movq	(%rax), %rax	# *_1182, D.21087
	movl	-504(%rbp), %edx	# b4, tmp2194
	movslq	%edx, %rdx	# tmp2194, D.21079
	salq	$3, %rdx	#, D.21079
	addq	%rdx, %rax	# D.21079, D.21087
	movq	(%rax), %rax	# *_1186, D.21081
	movl	-460(%rbp), %edx	# j, tmp2195
	movslq	%edx, %rdx	# tmp2195, D.21079
	salq	$3, %rdx	#, D.21079
	addq	%rdx, %rax	# D.21079, D.21081
	movq	(%rax), %rax	# *_1190, D.21080
	movl	-464(%rbp), %edx	# i, tmp2196
	movslq	%edx, %rdx	# tmp2196, D.21079
	salq	$2, %rdx	#, D.21079
	leaq	(%rax,%rdx), %rcx	#, D.21080
	movl	-464(%rbp), %eax	# i, tmp2198
	movslq	%eax, %rsi	# tmp2198, tmp2197
	movl	-460(%rbp), %eax	# j, tmp2200
	movslq	%eax, %rdx	# tmp2200, tmp2199
	movq	%rdx, %rax	# tmp2199, tmp2201
	salq	$3, %rax	#, tmp2201
	addq	%rdx, %rax	# tmp2199, tmp2201
	addq	%rax, %rax	# tmp2202
	addq	%rsi, %rax	# tmp2197, tmp2203
	addq	$36, %rax	#, tmp2204
	movl	cofAC4x4_chroma(,%rax,4), %eax	# cofAC4x4_chroma, D.21077
	movl	%eax, (%rcx)	# D.21077, *_1194
	addl	$1, -464(%rbp)	#, i
.L282:
	.loc 1 878 0 discriminator 1
	cmpl	$17, -464(%rbp)	#, i
	jle	.L283	#,
	.loc 1 877 0 is_stmt 1
	addl	$1, -460(%rbp)	#, j
.L281:
	.loc 1 877 0 is_stmt 0 discriminator 1
	cmpl	$1, -460(%rbp)	#, j
	jle	.L284	#,
.L276:
	.loc 1 882 0 is_stmt 1
	movl	$0, -448(%rbp)	#, y
	jmp	.L285	#
.L288:
	.loc 1 883 0
	movl	$0, -452(%rbp)	#, x
	jmp	.L286	#
.L287:
	.loc 1 885 0 discriminator 2
	movq	enc_picture(%rip), %rax	# enc_picture, enc_picture.215
	movq	6424(%rax), %rax	# enc_picture.215_1200->imgY, D.21082
	movl	-448(%rbp), %edx	# y, tmp2205
	movl	-424(%rbp), %ecx	# pic_pix_y, tmp2206
	addl	%ecx, %edx	# tmp2206, D.21077
	movslq	%edx, %rdx	# D.21077, D.21079
	salq	$3, %rdx	#, D.21079
	addq	%rdx, %rax	# D.21079, D.21082
	movq	(%rax), %rax	# *_1205, D.21083
	movl	-452(%rbp), %edx	# x, tmp2207
	movl	-428(%rbp), %ecx	# pic_pix_x, tmp2208
	addl	%ecx, %edx	# tmp2208, D.21077
	movslq	%edx, %rdx	# D.21077, D.21079
	addq	%rdx, %rdx	# D.21079
	addq	%rax, %rdx	# D.21083, D.21083
	movl	-452(%rbp), %eax	# x, tmp2210
	cltq
	movl	-448(%rbp), %ecx	# y, tmp2212
	movslq	%ecx, %rcx	# tmp2212, tmp2211
	salq	$2, %rcx	#, tmp2213
	addq	%rcx, %rax	# tmp2213, tmp2214
	movl	-272(%rbp,%rax,4), %eax	# rec4x4, D.21077
	movw	%ax, (%rdx)	# D.21084, *_1210
	.loc 1 886 0 discriminator 2
	movq	img(%rip), %rax	# img, img.216
	movl	-452(%rbp), %edx	# x, tmp2215
	movl	-436(%rbp), %ecx	# block_x, tmp2216
	leal	(%rcx,%rdx), %r8d	#, D.21077
	movl	-448(%rbp), %edx	# y, tmp2217
	movl	-432(%rbp), %ecx	# block_y, tmp2218
	leal	(%rcx,%rdx), %r9d	#, D.21077
	movq	img(%rip), %rdx	# img, img.217
	movl	-452(%rbp), %ecx	# x, tmp2220
	movslq	%ecx, %rcx	# tmp2220, tmp2219
	movl	-468(%rbp), %esi	# best_ipmode, tmp2222
	movslq	%esi, %rdi	# tmp2222, tmp2221
	movl	-448(%rbp), %esi	# y, tmp2224
	movslq	%esi, %rsi	# tmp2224, tmp2223
	salq	$4, %rdi	#, tmp2225
	addq	%rdi, %rsi	# tmp2225, tmp2226
	salq	$4, %rsi	#, tmp2227
	addq	%rsi, %rcx	# tmp2227, tmp2228
	addq	$88, %rcx	#, tmp2229
	movzwl	8(%rdx,%rcx,2), %edx	# img.217_1216->mprr, D.21084
	movslq	%r9d, %rcx	# D.21077, tmp2230
	movslq	%r8d, %rsi	# D.21077, tmp2231
	salq	$4, %rsi	#, tmp2232
	addq	%rsi, %rcx	# tmp2232, tmp2233
	addq	$6296, %rcx	#, tmp2234
	movw	%dx, 8(%rax,%rcx,2)	# D.21084, img.216_1213->mpr
	.loc 1 883 0 discriminator 2
	addl	$1, -452(%rbp)	#, x
.L286:
	.loc 1 883 0 is_stmt 0 discriminator 1
	cmpl	$3, -452(%rbp)	#, x
	jle	.L287	#,
	.loc 1 882 0 is_stmt 1
	addl	$1, -448(%rbp)	#, y
.L285:
	.loc 1 882 0 is_stmt 0 discriminator 1
	cmpl	$3, -448(%rbp)	#, y
	jle	.L288	#,
	.loc 1 890 0 is_stmt 1
	movq	img(%rip), %rax	# img, img.218
	movl	72724(%rax), %eax	# img.218_1220->residue_transform_flag, D.21077
	testl	%eax, %eax	# D.21077
	je	.L247	#,
	.loc 1 892 0
	movl	$0, -464(%rbp)	#, i
	jmp	.L289	#
.L294:
	.loc 1 895 0
	movl	$0, -448(%rbp)	#, y
	jmp	.L290	#
.L293:
	.loc 1 896 0
	movl	$0, -452(%rbp)	#, x
	jmp	.L291	#
.L292:
	.loc 1 896 0 is_stmt 0 discriminator 2
	movq	enc_picture(%rip), %rax	# enc_picture, enc_picture.219
	movq	6464(%rax), %rax	# enc_picture.219_1225->imgUV, D.21088
	movl	-464(%rbp), %edx	# i, tmp2235
	movslq	%edx, %rdx	# tmp2235, D.21079
	salq	$3, %rdx	#, D.21079
	addq	%rdx, %rax	# D.21079, D.21088
	movq	(%rax), %rax	# *_1229, D.21082
	movl	-448(%rbp), %edx	# y, tmp2236
	movl	-424(%rbp), %ecx	# pic_pix_y, tmp2237
	addl	%ecx, %edx	# tmp2237, D.21077
	movslq	%edx, %rdx	# D.21077, D.21079
	salq	$3, %rdx	#, D.21079
	addq	%rdx, %rax	# D.21079, D.21082
	movq	(%rax), %rax	# *_1234, D.21083
	movl	-452(%rbp), %edx	# x, tmp2238
	movl	-428(%rbp), %ecx	# pic_pix_x, tmp2239
	addl	%ecx, %edx	# tmp2239, D.21077
	movslq	%edx, %rdx	# D.21077, D.21079
	addq	%rdx, %rdx	# D.21079
	addq	%rax, %rdx	# D.21083, D.21083
	movl	-452(%rbp), %eax	# x, tmp2241
	cltq
	movl	-464(%rbp), %ecx	# i, tmp2243
	movslq	%ecx, %rsi	# tmp2243, tmp2242
	movl	-448(%rbp), %ecx	# y, tmp2245
	movslq	%ecx, %rcx	# tmp2245, tmp2244
	salq	$2, %rsi	#, tmp2246
	addq	%rsi, %rcx	# tmp2246, tmp2247
	salq	$2, %rcx	#, tmp2248
	addq	%rcx, %rax	# tmp2248, tmp2249
	movl	-144(%rbp,%rax,4), %eax	# rec4x4_c, D.21077
	movw	%ax, (%rdx)	# D.21084, *_1239
	addl	$1, -452(%rbp)	#, x
.L291:
	.loc 1 896 0 discriminator 1
	cmpl	$3, -452(%rbp)	#, x
	jle	.L292	#,
	.loc 1 895 0 is_stmt 1
	addl	$1, -448(%rbp)	#, y
.L290:
	.loc 1 895 0 is_stmt 0 discriminator 1
	cmpl	$3, -448(%rbp)	#, y
	jle	.L293	#,
	.loc 1 892 0 is_stmt 1
	addl	$1, -464(%rbp)	#, i
.L289:
	.loc 1 892 0 is_stmt 0 discriminator 1
	cmpl	$1, -464(%rbp)	#, i
	jle	.L294	#,
.L247:
	.loc 1 902 0 is_stmt 1
	movl	-444(%rbp), %eax	# nonzero, D.21077
	.loc 1 903 0
	addq	$512, %rsp	#,
	popq	%rbx	#
	popq	%r12	#
	popq	%rbp	#
	.cfi_def_cfa 7, 8
	ret
	.cfi_endproc
.LFE8:
	.size	Mode_Decision_for_4x4IntraBlocks, .-Mode_Decision_for_4x4IntraBlocks
	.globl	Mode_Decision_for_8x8IntraBlocks
	.type	Mode_Decision_for_8x8IntraBlocks, @function
Mode_Decision_for_8x8IntraBlocks:
.LFB9:
	.loc 1 913 0
	.cfi_startproc
	pushq	%rbp	#
	.cfi_def_cfa_offset 16
	.cfi_offset 6, -16
	movq	%rsp, %rbp	#,
	.cfi_def_cfa_register 6
	subq	$48, %rsp	#,
	movl	%edi, -20(%rbp)	# b8, b8
	movsd	%xmm0, -32(%rbp)	# lambda, lambda
	movq	%rsi, -40(%rbp)	# cost, cost
	.loc 1 914 0
	movl	$0, -8(%rbp)	#, nonzero
	.loc 1 917 0
	movsd	-32(%rbp), %xmm1	# lambda, tmp69
	movsd	.LC4(%rip), %xmm0	#, tmp70
	mulsd	%xmm1, %xmm0	# tmp69, D.21090
	movsd	.LC5(%rip), %xmm1	#, tmp71
	addsd	%xmm1, %xmm0	# tmp71, D.21090
	call	floor	#
	cvttsd2si	%xmm0, %edx	# D.21090, D.21091
	movq	-40(%rbp), %rax	# cost, tmp72
	movl	%edx, (%rax)	# D.21091, *cost_10(D)
	.loc 1 919 0
	movl	$0, -4(%rbp)	#, b4
	jmp	.L300	#
.L302:
	.loc 1 921 0
	leaq	-12(%rbp), %rdx	#, tmp73
	movq	-32(%rbp), %rax	# lambda, tmp74
	movl	-4(%rbp), %esi	# b4, tmp75
	movl	-20(%rbp), %ecx	# b8, tmp76
	movq	%rax, -48(%rbp)	# tmp74, %sfp
	movsd	-48(%rbp), %xmm0	# %sfp,
	movl	%ecx, %edi	# tmp76,
	call	Mode_Decision_for_4x4IntraBlocks	#
	testl	%eax, %eax	# D.21091
	je	.L301	#,
	.loc 1 923 0
	movl	$1, -8(%rbp)	#, nonzero
.L301:
	.loc 1 925 0
	movq	-40(%rbp), %rax	# cost, tmp77
	movl	(%rax), %edx	# *cost_10(D), D.21091
	movl	-12(%rbp), %eax	# cost4x4, cost4x4.220
	addl	%eax, %edx	# cost4x4.220, D.21091
	movq	-40(%rbp), %rax	# cost, tmp78
	movl	%edx, (%rax)	# D.21091, *cost_10(D)
	.loc 1 919 0
	addl	$1, -4(%rbp)	#, b4
.L300:
	.loc 1 919 0 is_stmt 0 discriminator 1
	cmpl	$3, -4(%rbp)	#, b4
	jle	.L302	#,
	.loc 1 928 0 is_stmt 1
	movl	-8(%rbp), %eax	# nonzero, D.21091
	.loc 1 929 0
	leave
	.cfi_def_cfa 7, 8
	ret
	.cfi_endproc
.LFE9:
	.size	Mode_Decision_for_8x8IntraBlocks, .-Mode_Decision_for_8x8IntraBlocks
	.globl	Mode_Decision_for_Intra4x4Macroblock
	.type	Mode_Decision_for_Intra4x4Macroblock, @function
Mode_Decision_for_Intra4x4Macroblock:
.LFB10:
	.loc 1 939 0
	.cfi_startproc
	pushq	%rbp	#
	.cfi_def_cfa_offset 16
	.cfi_offset 6, -16
	movq	%rsp, %rbp	#,
	.cfi_def_cfa_register 6
	subq	$48, %rsp	#,
	movsd	%xmm0, -24(%rbp)	# lambda, lambda
	movq	%rdi, -32(%rbp)	# cost, cost
	.loc 1 940 0
	movl	$0, -8(%rbp)	#, cbp
	.loc 1 942 0
	movq	-32(%rbp), %rax	# cost, tmp66
	movl	$0, (%rax)	#, *cost_5(D)
	movl	$0, -4(%rbp)	#, b8
	jmp	.L305	#
.L307:
	.loc 1 944 0
	leaq	-12(%rbp), %rcx	#, tmp67
	movq	-24(%rbp), %rax	# lambda, tmp68
	movl	-4(%rbp), %edx	# b8, tmp69
	movq	%rcx, %rsi	# tmp67,
	movq	%rax, -40(%rbp)	# tmp68, %sfp
	movsd	-40(%rbp), %xmm0	# %sfp,
	movl	%edx, %edi	# tmp69,
	call	Mode_Decision_for_8x8IntraBlocks	#
	testl	%eax, %eax	# D.21092
	je	.L306	#,
	.loc 1 946 0
	movl	-4(%rbp), %eax	# b8, tmp70
	movl	$1, %edx	#, tmp71
	movl	%eax, %ecx	# tmp70, tmp77
	sall	%cl, %edx	# tmp77, D.21092
	movl	%edx, %eax	# D.21092, D.21092
	orl	%eax, -8(%rbp)	# D.21092, cbp
.L306:
	.loc 1 948 0
	movq	-32(%rbp), %rax	# cost, tmp72
	movl	(%rax), %edx	# *cost_5(D), D.21092
	movl	-12(%rbp), %eax	# cost8x8, cost8x8.221
	addl	%eax, %edx	# cost8x8.221, D.21092
	movq	-32(%rbp), %rax	# cost, tmp73
	movl	%edx, (%rax)	# D.21092, *cost_5(D)
	.loc 1 942 0
	addl	$1, -4(%rbp)	#, b8
.L305:
	.loc 1 942 0 is_stmt 0 discriminator 1
	cmpl	$3, -4(%rbp)	#, b8
	jle	.L307	#,
	.loc 1 951 0 is_stmt 1
	movl	-8(%rbp), %eax	# cbp, D.21092
	.loc 1 952 0
	leave
	.cfi_def_cfa 7, 8
	ret
	.cfi_endproc
.LFE10:
	.size	Mode_Decision_for_Intra4x4Macroblock, .-Mode_Decision_for_Intra4x4Macroblock
	.globl	RDCost_for_8x8blocks
	.type	RDCost_for_8x8blocks, @function
RDCost_for_8x8blocks:
.LFB11:
	.loc 1 969 0
	.cfi_startproc
	pushq	%rbp	#
	.cfi_def_cfa_offset 16
	.cfi_offset 6, -16
	movq	%rsp, %rbp	#,
	.cfi_def_cfa_register 6
	pushq	%rbx	#
	subq	$248, %rsp	#,
	.cfi_offset 3, -24
	movq	%rdi, -184(%rbp)	# cnt_nonz, cnt_nonz
	movq	%rsi, -192(%rbp)	# cbp_blk, cbp_blk
	movsd	%xmm0, -200(%rbp)	# lambda, lambda
	movl	%edx, -204(%rbp)	# block, block
	movl	%ecx, -208(%rbp)	# mode, mode
	movl	%r8d, %ecx	# pdir, tmp492
	movl	%r9d, %edx	# ref, tmp493
	movl	16(%rbp), %eax	# bwd_ref, tmp494
	movw	%cx, -212(%rbp)	# tmp492, pdir
	movw	%dx, -216(%rbp)	# tmp493, ref
	movw	%ax, -220(%rbp)	# tmp494, bwd_ref
	.loc 1 971 0
	movl	$0, -140(%rbp)	#, rate
	.loc 1 972 0
	movq	$0, -72(%rbp)	#, distortion
	.loc 1 975 0
	movl	$0, -156(%rbp)	#, cbp
	.loc 1 976 0
	movl	-204(%rbp), %eax	# block, tmp495
	cltd
	shrl	$31, %edx	#, tmp497
	addl	%edx, %eax	# tmp497, tmp498
	andl	$1, %eax	#, tmp499
	subl	%edx, %eax	# tmp497, tmp500
	sall	$3, %eax	#, tmp501
	movl	%eax, -132(%rbp)	# tmp501, pax
	.loc 1 977 0
	movl	-204(%rbp), %eax	# block, tmp502
	movl	%eax, %edx	# tmp502, tmp503
	shrl	$31, %edx	#, tmp503
	addl	%edx, %eax	# tmp503, tmp504
	sarl	%eax	# tmp505
	sall	$3, %eax	#, tmp506
	movl	%eax, -128(%rbp)	# tmp506, pay
	.loc 1 978 0
	movl	-132(%rbp), %eax	# pax, tmp508
	leal	3(%rax), %edx	#, tmp510
	testl	%eax, %eax	# tmp509
	cmovs	%edx, %eax	# tmp510,, tmp509
	sarl	$2, %eax	#, tmp511
	movl	%eax, -124(%rbp)	# tmp511, i0
	.loc 1 979 0
	movl	-128(%rbp), %eax	# pay, tmp513
	leal	3(%rax), %edx	#, tmp515
	testl	%eax, %eax	# tmp514
	cmovs	%edx, %eax	# tmp515,, tmp514
	sarl	$2, %eax	#, tmp516
	movl	%eax, -120(%rbp)	# tmp516, j0
	.loc 1 980 0
	movq	img(%rip), %rax	# img, img.222
	movl	24(%rax), %eax	# img.222_44->type, D.21094
	cmpl	$1, %eax	#, D.21094
	sete	%al	#, D.21095
	movzbl	%al, %eax	# D.21095, tmp517
	movl	%eax, -116(%rbp)	# tmp517, bframe
	.loc 1 981 0
	cmpl	$0, -116(%rbp)	#, bframe
	je	.L310	#,
	.loc 1 981 0 is_stmt 0 discriminator 1
	cmpl	$0, -208(%rbp)	#, mode
	jne	.L310	#,
	.loc 1 981 0 discriminator 3
	movl	$1, %eax	#, iftmp.223
	jmp	.L311	#
.L310:
	.loc 1 981 0 discriminator 2
	movl	$0, %eax	#, iftmp.223
.L311:
	.loc 1 981 0 discriminator 4
	movl	%eax, -112(%rbp)	# iftmp.223, direct
	.loc 1 982 0 is_stmt 1 discriminator 4
	movswl	-212(%rbp), %edx	# pdir, D.21094
	movl	-208(%rbp), %eax	# mode, tmp518
	movl	%edx, %esi	# D.21094,
	movl	%eax, %edi	# tmp518,
	call	B8Mode2Value	#
	movl	%eax, -108(%rbp)	# tmp519, b8value
	.loc 1 984 0 discriminator 4
	movq	img(%rip), %rax	# img, img.224
	movq	14168(%rax), %rdx	# img.224_55->mb_data, D.21096
	movq	img(%rip), %rax	# img, img.225
	movl	12(%rax), %eax	# img.225_57->current_mb_nr, D.21094
	cltq
	imulq	$632, %rax, %rax	#, D.21097, D.21097
	addq	%rdx, %rax	# D.21096, tmp520
	movq	%rax, -64(%rbp)	# tmp520, currMB
	.loc 1 985 0 discriminator 4
	movq	img(%rip), %rcx	# img, img.226
	movq	-64(%rbp), %rax	# currMB, tmp521
	movl	(%rax), %eax	# currMB_61->currSEnr, D.21094
	movslq	%eax, %rdx	# D.21094, tmp522
	movq	%rdx, %rax	# tmp522, tmp523
	addq	%rax, %rax	# tmp523
	addq	%rdx, %rax	# tmp522, tmp523
	salq	$4, %rax	#, tmp524
	addq	$14176, %rax	#, tmp525
	addq	%rcx, %rax	# img.226, tmp526
	movq	%rax, -56(%rbp)	# tmp526, currSE
	.loc 1 986 0 discriminator 4
	movq	img(%rip), %rax	# img, img.227
	movq	14160(%rax), %rax	# img.227_65->currentSlice, tmp527
	movq	%rax, -48(%rbp)	# tmp527, currSlice
	.loc 1 988 0 discriminator 4
	movq	input(%rip), %rax	# input, input.228
	movl	2364(%rax), %eax	# input.228_67->partition_mode, D.21094
	cltq
	movq	assignSE2partition(,%rax,8), %rax	# assignSE2partition, tmp529
	movq	%rax, -40(%rbp)	# tmp529, partMap
	.loc 1 1000 0 discriminator 4
	movq	-64(%rbp), %rax	# currMB, tmp530
	movl	$0, 580(%rax)	#, currMB_61->bi_pred_me
	.loc 1 1003 0 discriminator 4
	cmpl	$0, -112(%rbp)	#, direct
	je	.L312	#,
	.loc 1 1005 0
	movq	direct_pdir(%rip), %rdx	# direct_pdir, direct_pdir.229
	movq	img(%rip), %rax	# img, img.230
	movl	144(%rax), %ecx	# img.230_71->block_x, D.21094
	movl	-124(%rbp), %eax	# i0, tmp531
	addl	%ecx, %eax	# D.21094, D.21094
	cltq
	salq	$3, %rax	#, D.21097
	addq	%rdx, %rax	# direct_pdir.229, D.21098
	movq	(%rax), %rdx	# *_76, D.21099
	movq	img(%rip), %rax	# img, img.231
	movl	148(%rax), %ecx	# img.231_78->block_y, D.21094
	movl	-120(%rbp), %eax	# j0, tmp532
	addl	%ecx, %eax	# D.21094, D.21094
	cltq
	addq	%rax, %rax	# D.21097
	addq	%rdx, %rax	# D.21099, D.21099
	movzwl	(%rax), %eax	# *_83, D.21100
	testw	%ax, %ax	# D.21100
	jns	.L313	#,
	.loc 1 1007 0
	movabsq	$4906019910204099648, %rax	#, D.21093
	jmp	.L367	#
.L313:
	.loc 1 1011 0
	movq	direct_ref_idx(%rip), %rax	# direct_ref_idx, direct_ref_idx.232
	addq	$8, %rax	#, D.21101
	movq	(%rax), %rdx	# *_87, D.21098
	movq	img(%rip), %rax	# img, img.233
	movl	144(%rax), %ecx	# img.233_89->block_x, D.21094
	movl	-124(%rbp), %eax	# i0, tmp533
	addl	%ecx, %eax	# D.21094, D.21094
	cltq
	salq	$3, %rax	#, D.21097
	addq	%rdx, %rax	# D.21098, D.21098
	movq	(%rax), %rdx	# *_94, D.21099
	movq	img(%rip), %rax	# img, img.234
	movl	148(%rax), %ecx	# img.234_96->block_y, D.21094
	movl	-120(%rbp), %eax	# j0, tmp534
	addl	%ecx, %eax	# D.21094, D.21094
	cltq
	addq	%rax, %rax	# D.21097
	addq	%rdx, %rax	# D.21099, D.21099
	movzwl	(%rax), %eax	# *_101, D.21100
	movswl	%ax, %r8d	# D.21100, D.21094
	movq	direct_ref_idx(%rip), %rax	# direct_ref_idx, direct_ref_idx.235
	movq	(%rax), %rdx	# *direct_ref_idx.235_104, D.21098
	movq	img(%rip), %rax	# img, img.236
	movl	144(%rax), %ecx	# img.236_106->block_x, D.21094
	movl	-124(%rbp), %eax	# i0, tmp535
	addl	%ecx, %eax	# D.21094, D.21094
	cltq
	salq	$3, %rax	#, D.21097
	addq	%rdx, %rax	# D.21098, D.21098
	movq	(%rax), %rdx	# *_111, D.21099
	movq	img(%rip), %rax	# img, img.237
	movl	148(%rax), %ecx	# img.237_113->block_y, D.21094
	movl	-120(%rbp), %eax	# j0, tmp536
	addl	%ecx, %eax	# D.21094, D.21094
	cltq
	addq	%rax, %rax	# D.21097
	addq	%rdx, %rax	# D.21099, D.21099
	movzwl	(%rax), %eax	# *_118, D.21100
	movl	$0, %edx	#, tmp537
	testw	%ax, %ax	# D.21100
	cmovs	%edx, %eax	# D.21100,, tmp537, D.21100
	movswl	%ax, %edi	# D.21100, D.21094
	movq	direct_pdir(%rip), %rdx	# direct_pdir, direct_pdir.238
	movq	img(%rip), %rax	# img, img.239
	movl	144(%rax), %ecx	# img.239_123->block_x, D.21094
	movl	-124(%rbp), %eax	# i0, tmp538
	addl	%ecx, %eax	# D.21094, D.21094
	cltq
	salq	$3, %rax	#, D.21097
	addq	%rdx, %rax	# direct_pdir.238, D.21098
	movq	(%rax), %rdx	# *_128, D.21099
	movq	img(%rip), %rax	# img, img.240
	movl	148(%rax), %ecx	# img.240_130->block_y, D.21094
	movl	-120(%rbp), %eax	# j0, tmp539
	addl	%ecx, %eax	# D.21094, D.21094
	cltq
	addq	%rax, %rax	# D.21097
	addq	%rdx, %rax	# D.21099, D.21099
	movzwl	(%rax), %eax	# *_135, D.21100
	movswl	%ax, %ecx	# D.21100, D.21094
	movl	-204(%rbp), %edx	# block, tmp540
	movq	-192(%rbp), %rsi	# cbp_blk, tmp541
	leaq	-156(%rbp), %rax	#, tmp542
	movl	%r8d, 8(%rsp)	# D.21094,
	movl	%edi, (%rsp)	# D.21094,
	movl	$0, %r9d	#,
	movl	$0, %r8d	#,
	movq	%rax, %rdi	# tmp542,
	call	LumaResidualCoding8x8	#
	movq	-184(%rbp), %rdx	# cnt_nonz, tmp543
	movl	%eax, (%rdx)	# D.21094, *cnt_nonz_140(D)
	jmp	.L315	#
.L312:
	.loc 1 1016 0
	cmpw	$0, -212(%rbp)	#, pdir
	je	.L316	#,
	.loc 1 1016 0 is_stmt 0 discriminator 2
	cmpw	$2, -212(%rbp)	#, pdir
	jne	.L317	#,
.L316:
	.loc 1 1016 0 discriminator 1
	movl	-208(%rbp), %eax	# mode, iftmp.241
	jmp	.L318	#
.L317:
	movl	$0, %eax	#, iftmp.241
.L318:
	.loc 1 1016 0 discriminator 3
	movl	%eax, -104(%rbp)	# iftmp.241, fw_mode
	.loc 1 1017 0 is_stmt 1 discriminator 3
	cmpw	$1, -212(%rbp)	#, pdir
	je	.L319	#,
	.loc 1 1017 0 is_stmt 0 discriminator 2
	cmpw	$2, -212(%rbp)	#, pdir
	jne	.L320	#,
.L319:
	.loc 1 1017 0 discriminator 1
	movl	-208(%rbp), %eax	# mode, iftmp.242
	jmp	.L321	#
.L320:
	movl	$0, %eax	#, iftmp.242
.L321:
	.loc 1 1017 0 discriminator 3
	movl	%eax, -100(%rbp)	# iftmp.242, bw_mode
	.loc 1 1018 0 is_stmt 1 discriminator 3
	movswl	-220(%rbp), %r8d	# bwd_ref, D.21094
	movswl	-216(%rbp), %edi	# ref, D.21094
	movswl	-212(%rbp), %ecx	# pdir, D.21094
	movl	-100(%rbp), %r9d	# bw_mode, tmp544
	movl	-104(%rbp), %r10d	# fw_mode, tmp545
	movl	-204(%rbp), %edx	# block, tmp546
	movq	-192(%rbp), %rsi	# cbp_blk, tmp547
	leaq	-156(%rbp), %rax	#, tmp548
	movl	%r8d, 8(%rsp)	# D.21094,
	movl	%edi, (%rsp)	# D.21094,
	movl	%r10d, %r8d	# tmp545,
	movq	%rax, %rdi	# tmp548,
	call	LumaResidualCoding8x8	#
	movq	-184(%rbp), %rdx	# cnt_nonz, tmp549
	movl	%eax, (%rdx)	# D.21094, *cnt_nonz_140(D)
.L315:
	.loc 1 1022 0
	movq	img(%rip), %rax	# img, img.243
	movl	72724(%rax), %eax	# img.243_153->residue_transform_flag, D.21094
	testl	%eax, %eax	# D.21094
	je	.L322	#,
	.loc 1 1024 0
	movl	$0, -136(%rbp)	#, b4
	jmp	.L323	#
.L336:
	.loc 1 1026 0
	movl	-136(%rbp), %eax	# b4, tmp550
	cltd
	shrl	$31, %edx	#, tmp552
	addl	%edx, %eax	# tmp552, tmp553
	andl	$1, %eax	#, tmp554
	subl	%edx, %eax	# tmp552, tmp555
	leal	0(,%rax,4), %edx	#, D.21094
	movl	-132(%rbp), %eax	# pax, tmp559
	addl	%edx, %eax	# D.21094, tmp558
	movl	%eax, -96(%rbp)	# tmp558, b4_x
	.loc 1 1027 0
	movl	-136(%rbp), %eax	# b4, tmp560
	movl	%eax, %edx	# tmp560, tmp561
	shrl	$31, %edx	#, tmp561
	addl	%edx, %eax	# tmp561, tmp562
	sarl	%eax	# tmp563
	leal	0(,%rax,4), %edx	#, D.21094
	movl	-128(%rbp), %eax	# pay, tmp567
	addl	%edx, %eax	# D.21094, tmp566
	movl	%eax, -92(%rbp)	# tmp566, b4_y
	.loc 1 1028 0
	movl	$0, -148(%rbp)	#, j
	jmp	.L324	#
.L327:
	.loc 1 1029 0
	movl	$0, -152(%rbp)	#, i
	jmp	.L325	#
.L326:
	.loc 1 1031 0 discriminator 2
	movq	img(%rip), %rax	# img, img.244
	movl	-96(%rbp), %edx	# b4_x, tmp568
	movl	-152(%rbp), %ecx	# i, tmp569
	leal	(%rcx,%rdx), %esi	#, D.21094
	movl	-92(%rbp), %edx	# b4_y, tmp570
	movl	-148(%rbp), %ecx	# j, tmp571
	addl	%ecx, %edx	# tmp571, D.21094
	movslq	%edx, %rdx	# D.21094, tmp572
	movslq	%esi, %rcx	# D.21094, tmp573
	salq	$4, %rcx	#, tmp574
	addq	%rcx, %rdx	# tmp574, tmp575
	movl	resTrans_R(,%rdx,4), %edx	# resTrans_R, D.21094
	movl	-148(%rbp), %ecx	# j, tmp577
	movslq	%ecx, %rcx	# tmp577, tmp576
	movl	-152(%rbp), %esi	# i, tmp579
	movslq	%esi, %rsi	# tmp579, tmp578
	salq	$4, %rsi	#, tmp580
	addq	%rsi, %rcx	# tmp580, tmp581
	addq	$3276, %rcx	#, tmp582
	movl	%edx, 8(%rax,%rcx,4)	# D.21094, img.244_164->m7
	.loc 1 1029 0 discriminator 2
	addl	$1, -152(%rbp)	#, i
.L325:
	.loc 1 1029 0 is_stmt 0 discriminator 1
	cmpl	$3, -152(%rbp)	#, i
	jle	.L326	#,
	.loc 1 1028 0 is_stmt 1
	addl	$1, -148(%rbp)	#, j
.L324:
	.loc 1 1028 0 is_stmt 0 discriminator 1
	cmpl	$3, -148(%rbp)	#, j
	jle	.L327	#,
	.loc 1 1033 0 is_stmt 1
	movl	-204(%rbp), %eax	# block, tmp583
	leal	4(%rax), %ecx	#, D.21094
	movl	-136(%rbp), %eax	# b4, tmp584
	movl	$0, %edx	#,
	movl	%eax, %esi	# tmp584,
	movl	%ecx, %edi	# D.21094,
	call	RDCost_for_4x4Blocks_Chroma	#
	addl	%eax, -140(%rbp)	# D.21094, rate
	.loc 1 1034 0
	movl	$0, -148(%rbp)	#, j
	jmp	.L328	#
.L331:
	.loc 1 1035 0
	movl	$0, -152(%rbp)	#, i
	jmp	.L329	#
.L330:
	.loc 1 1037 0 discriminator 2
	movl	-96(%rbp), %eax	# b4_x, tmp585
	movl	-152(%rbp), %edx	# i, tmp586
	leal	(%rdx,%rax), %esi	#, D.21094
	movl	-92(%rbp), %eax	# b4_y, tmp587
	movl	-148(%rbp), %edx	# j, tmp588
	leal	(%rdx,%rax), %edi	#, D.21094
	movq	img(%rip), %rax	# img, img.245
	movl	-148(%rbp), %edx	# j, tmp590
	movslq	%edx, %rdx	# tmp590, tmp589
	movl	-152(%rbp), %ecx	# i, tmp592
	movslq	%ecx, %rcx	# tmp592, tmp591
	salq	$4, %rcx	#, tmp593
	addq	%rcx, %rdx	# tmp593, tmp594
	addq	$3276, %rdx	#, tmp595
	movl	8(%rax,%rdx,4), %eax	# img.245_177->m7, D.21094
	movslq	%edi, %rdx	# D.21094, tmp596
	movslq	%esi, %rcx	# D.21094, tmp597
	salq	$4, %rcx	#, tmp598
	addq	%rcx, %rdx	# tmp598, tmp599
	movl	%eax, rec_resR(,%rdx,4)	# D.21094, rec_resR
	.loc 1 1038 0 discriminator 2
	movq	img(%rip), %rax	# img, img.246
	movl	-96(%rbp), %edx	# b4_x, tmp600
	movl	-152(%rbp), %ecx	# i, tmp601
	leal	(%rcx,%rdx), %esi	#, D.21094
	movl	-92(%rbp), %edx	# b4_y, tmp602
	movl	-148(%rbp), %ecx	# j, tmp603
	addl	%ecx, %edx	# tmp603, D.21094
	movslq	%edx, %rdx	# D.21094, tmp604
	movslq	%esi, %rcx	# D.21094, tmp605
	salq	$4, %rcx	#, tmp606
	addq	%rcx, %rdx	# tmp606, tmp607
	movl	resTrans_B(,%rdx,4), %edx	# resTrans_B, D.21094
	movl	-148(%rbp), %ecx	# j, tmp609
	movslq	%ecx, %rcx	# tmp609, tmp608
	movl	-152(%rbp), %esi	# i, tmp611
	movslq	%esi, %rsi	# tmp611, tmp610
	salq	$4, %rsi	#, tmp612
	addq	%rsi, %rcx	# tmp612, tmp613
	addq	$3276, %rcx	#, tmp614
	movl	%edx, 8(%rax,%rcx,4)	# D.21094, img.246_179->m7
	.loc 1 1035 0 discriminator 2
	addl	$1, -152(%rbp)	#, i
.L329:
	.loc 1 1035 0 is_stmt 0 discriminator 1
	cmpl	$3, -152(%rbp)	#, i
	jle	.L330	#,
	.loc 1 1034 0 is_stmt 1
	addl	$1, -148(%rbp)	#, j
.L328:
	.loc 1 1034 0 is_stmt 0 discriminator 1
	cmpl	$3, -148(%rbp)	#, j
	jle	.L331	#,
	.loc 1 1040 0 is_stmt 1
	movl	-204(%rbp), %eax	# block, tmp615
	leal	8(%rax), %ecx	#, D.21094
	movl	-136(%rbp), %eax	# b4, tmp616
	movl	$1, %edx	#,
	movl	%eax, %esi	# tmp616,
	movl	%ecx, %edi	# D.21094,
	call	RDCost_for_4x4Blocks_Chroma	#
	addl	%eax, -140(%rbp)	# D.21094, rate
	.loc 1 1041 0
	movl	$0, -148(%rbp)	#, j
	jmp	.L332	#
.L335:
	.loc 1 1042 0
	movl	$0, -152(%rbp)	#, i
	jmp	.L333	#
.L334:
	.loc 1 1044 0 discriminator 2
	movl	-96(%rbp), %eax	# b4_x, tmp617
	movl	-152(%rbp), %edx	# i, tmp618
	leal	(%rdx,%rax), %esi	#, D.21094
	movl	-92(%rbp), %eax	# b4_y, tmp619
	movl	-148(%rbp), %edx	# j, tmp620
	leal	(%rdx,%rax), %edi	#, D.21094
	movq	img(%rip), %rax	# img, img.247
	movl	-148(%rbp), %edx	# j, tmp622
	movslq	%edx, %rdx	# tmp622, tmp621
	movl	-152(%rbp), %ecx	# i, tmp624
	movslq	%ecx, %rcx	# tmp624, tmp623
	salq	$4, %rcx	#, tmp625
	addq	%rcx, %rdx	# tmp625, tmp626
	addq	$3276, %rdx	#, tmp627
	movl	8(%rax,%rdx,4), %eax	# img.247_192->m7, D.21094
	movslq	%edi, %rdx	# D.21094, tmp628
	movslq	%esi, %rcx	# D.21094, tmp629
	salq	$4, %rcx	#, tmp630
	addq	%rcx, %rdx	# tmp630, tmp631
	movl	%eax, rec_resB(,%rdx,4)	# D.21094, rec_resB
	.loc 1 1042 0 discriminator 2
	addl	$1, -152(%rbp)	#, i
.L333:
	.loc 1 1042 0 is_stmt 0 discriminator 1
	cmpl	$3, -152(%rbp)	#, i
	jle	.L334	#,
	.loc 1 1041 0 is_stmt 1
	addl	$1, -148(%rbp)	#, j
.L332:
	.loc 1 1041 0 is_stmt 0 discriminator 1
	cmpl	$3, -148(%rbp)	#, j
	jle	.L335	#,
	.loc 1 1024 0 is_stmt 1
	addl	$1, -136(%rbp)	#, b4
.L323:
	.loc 1 1024 0 is_stmt 0 discriminator 1
	cmpl	$3, -136(%rbp)	#, b4
	jle	.L336	#,
	.loc 1 1049 0 is_stmt 1
	movl	-128(%rbp), %eax	# pay, tmp632
	movl	%eax, -148(%rbp)	# tmp632, j
	jmp	.L337	#
.L340:
	.loc 1 1050 0
	movl	-132(%rbp), %eax	# pax, tmp633
	movl	%eax, -152(%rbp)	# tmp633, i
	jmp	.L338	#
.L339:
	.loc 1 1053 0 discriminator 2
	movl	-148(%rbp), %eax	# j, tmp635
	cltq
	movl	-152(%rbp), %edx	# i, tmp637
	movslq	%edx, %rdx	# tmp637, tmp636
	salq	$4, %rdx	#, tmp638
	addq	%rdx, %rax	# tmp638, tmp639
	movl	rec_resG(,%rax,4), %eax	# rec_resG, D.21094
	movl	-148(%rbp), %edx	# j, tmp641
	movslq	%edx, %rdx	# tmp641, tmp640
	movl	-152(%rbp), %ecx	# i, tmp643
	movslq	%ecx, %rcx	# tmp643, tmp642
	salq	$4, %rcx	#, tmp644
	addq	%rcx, %rdx	# tmp644, tmp645
	movl	rec_resB(,%rdx,4), %edx	# rec_resB, D.21094
	sarl	%edx	# D.21094
	subl	%edx, %eax	# D.21094, tmp646
	movl	%eax, -88(%rbp)	# tmp646, temp
	.loc 1 1054 0 discriminator 2
	movl	-148(%rbp), %eax	# j, tmp648
	cltq
	movl	-152(%rbp), %edx	# i, tmp650
	movslq	%edx, %rdx	# tmp650, tmp649
	salq	$4, %rdx	#, tmp651
	addq	%rdx, %rax	# tmp651, tmp652
	movl	rec_resB(,%rax,4), %edx	# rec_resB, D.21094
	movl	-88(%rbp), %eax	# temp, tmp656
	addl	%edx, %eax	# D.21094, tmp655
	movl	%eax, -84(%rbp)	# tmp655, residue_G
	.loc 1 1055 0 discriminator 2
	movl	-148(%rbp), %eax	# j, tmp658
	cltq
	movl	-152(%rbp), %edx	# i, tmp660
	movslq	%edx, %rdx	# tmp660, tmp659
	salq	$4, %rdx	#, tmp661
	addq	%rdx, %rax	# tmp661, tmp662
	movl	rec_resR(,%rax,4), %eax	# rec_resR, D.21094
	sarl	%eax	# D.21094
	movl	%eax, %edx	# D.21094, D.21094
	movl	-88(%rbp), %eax	# temp, tmp666
	subl	%edx, %eax	# D.21094, tmp665
	movl	%eax, -80(%rbp)	# tmp665, residue_B
	.loc 1 1056 0 discriminator 2
	movl	-148(%rbp), %eax	# j, tmp668
	cltq
	movl	-152(%rbp), %edx	# i, tmp670
	movslq	%edx, %rdx	# tmp670, tmp669
	salq	$4, %rdx	#, tmp671
	addq	%rdx, %rax	# tmp671, tmp672
	movl	rec_resR(,%rax,4), %edx	# rec_resR, D.21094
	movl	-80(%rbp), %eax	# residue_B, tmp676
	addl	%edx, %eax	# D.21094, tmp675
	movl	%eax, -76(%rbp)	# tmp675, residue_R
	.loc 1 1058 0 discriminator 2
	movq	enc_picture(%rip), %rax	# enc_picture, enc_picture.248
	movq	6464(%rax), %rax	# enc_picture.248_212->imgUV, D.21102
	movq	(%rax), %rdx	# *_213, D.21103
	movq	img(%rip), %rax	# img, img.249
	movl	156(%rax), %ecx	# img.249_215->pix_y, D.21094
	movl	-148(%rbp), %eax	# j, tmp677
	addl	%ecx, %eax	# D.21094, D.21094
	cltq
	salq	$3, %rax	#, D.21097
	addq	%rdx, %rax	# D.21103, D.21103
	movq	(%rax), %rdx	# *_220, D.21104
	movq	img(%rip), %rax	# img, img.250
	movl	152(%rax), %ecx	# img.250_222->pix_x, D.21094
	movl	-152(%rbp), %eax	# i, tmp678
	addl	%ecx, %eax	# D.21094, D.21094
	cltq
	addq	%rax, %rax	# D.21097
	leaq	(%rdx,%rax), %rcx	#, D.21104
	movl	-148(%rbp), %eax	# j, tmp680
	cltq
	movl	-152(%rbp), %edx	# i, tmp682
	movslq	%edx, %rdx	# tmp682, tmp681
	salq	$4, %rdx	#, tmp683
	addq	%rdx, %rax	# tmp683, tmp684
	addq	$256, %rax	#, tmp685
	movl	mprRGB(,%rax,4), %edx	# mprRGB, D.21094
	movl	-80(%rbp), %eax	# residue_B, tmp686
	addl	%edx, %eax	# D.21094, D.21094
	movl	$0, %edx	#, tmp687
	testl	%eax, %eax	# D.21094
	cmovns	%eax, %edx	# D.21094,, D.21094
	movq	img(%rip), %rax	# img, img.251
	movl	72688(%rax), %eax	# img.251_231->max_imgpel_value_uv, D.21094
	cmpl	%eax, %edx	# D.21094, D.21094
	cmovle	%edx, %eax	# D.21094,, D.21094
	movw	%ax, (%rcx)	# D.21105, *_227
	.loc 1 1059 0 discriminator 2
	movq	enc_picture(%rip), %rax	# enc_picture, enc_picture.252
	movq	6424(%rax), %rdx	# enc_picture.252_235->imgY, D.21103
	movq	img(%rip), %rax	# img, img.253
	movl	156(%rax), %ecx	# img.253_237->pix_y, D.21094
	movl	-148(%rbp), %eax	# j, tmp688
	addl	%ecx, %eax	# D.21094, D.21094
	cltq
	salq	$3, %rax	#, D.21097
	addq	%rdx, %rax	# D.21103, D.21103
	movq	(%rax), %rdx	# *_242, D.21104
	movq	img(%rip), %rax	# img, img.254
	movl	152(%rax), %ecx	# img.254_244->pix_x, D.21094
	movl	-152(%rbp), %eax	# i, tmp689
	addl	%ecx, %eax	# D.21094, D.21094
	cltq
	addq	%rax, %rax	# D.21097
	leaq	(%rdx,%rax), %rcx	#, D.21104
	movl	-148(%rbp), %eax	# j, tmp691
	cltq
	movl	-152(%rbp), %edx	# i, tmp693
	movslq	%edx, %rdx	# tmp693, tmp692
	salq	$4, %rdx	#, tmp694
	addq	%rdx, %rax	# tmp694, tmp695
	movl	mprRGB(,%rax,4), %edx	# mprRGB, D.21094
	movl	-84(%rbp), %eax	# residue_G, tmp696
	addl	%edx, %eax	# D.21094, D.21094
	movl	$0, %edx	#, tmp697
	testl	%eax, %eax	# D.21094
	cmovns	%eax, %edx	# D.21094,, D.21094
	movq	img(%rip), %rax	# img, img.255
	movl	72684(%rax), %eax	# img.255_253->max_imgpel_value, D.21094
	cmpl	%eax, %edx	# D.21094, D.21094
	cmovle	%edx, %eax	# D.21094,, D.21094
	movw	%ax, (%rcx)	# D.21105, *_249
	.loc 1 1060 0 discriminator 2
	movq	enc_picture(%rip), %rax	# enc_picture, enc_picture.256
	movq	6464(%rax), %rax	# enc_picture.256_257->imgUV, D.21102
	addq	$8, %rax	#, D.21102
	movq	(%rax), %rdx	# *_259, D.21103
	movq	img(%rip), %rax	# img, img.257
	movl	156(%rax), %ecx	# img.257_261->pix_y, D.21094
	movl	-148(%rbp), %eax	# j, tmp698
	addl	%ecx, %eax	# D.21094, D.21094
	cltq
	salq	$3, %rax	#, D.21097
	addq	%rdx, %rax	# D.21103, D.21103
	movq	(%rax), %rdx	# *_266, D.21104
	movq	img(%rip), %rax	# img, img.258
	movl	152(%rax), %ecx	# img.258_268->pix_x, D.21094
	movl	-152(%rbp), %eax	# i, tmp699
	addl	%ecx, %eax	# D.21094, D.21094
	cltq
	addq	%rax, %rax	# D.21097
	leaq	(%rdx,%rax), %rcx	#, D.21104
	movl	-148(%rbp), %eax	# j, tmp701
	cltq
	movl	-152(%rbp), %edx	# i, tmp703
	movslq	%edx, %rdx	# tmp703, tmp702
	salq	$4, %rdx	#, tmp704
	addq	%rdx, %rax	# tmp704, tmp705
	addq	$512, %rax	#, tmp706
	movl	mprRGB(,%rax,4), %edx	# mprRGB, D.21094
	movl	-76(%rbp), %eax	# residue_R, tmp707
	addl	%edx, %eax	# D.21094, D.21094
	movl	$0, %edx	#, tmp708
	testl	%eax, %eax	# D.21094
	cmovns	%eax, %edx	# D.21094,, D.21094
	movq	img(%rip), %rax	# img, img.259
	movl	72688(%rax), %eax	# img.259_277->max_imgpel_value_uv, D.21094
	cmpl	%eax, %edx	# D.21094, D.21094
	cmovle	%edx, %eax	# D.21094,, D.21094
	movw	%ax, (%rcx)	# D.21105, *_273
	.loc 1 1050 0 discriminator 2
	addl	$1, -152(%rbp)	#, i
.L338:
	.loc 1 1050 0 is_stmt 0 discriminator 1
	movl	-132(%rbp), %eax	# pax, tmp709
	addl	$8, %eax	#, D.21094
	cmpl	-152(%rbp), %eax	# i, D.21094
	jg	.L339	#,
	.loc 1 1049 0 is_stmt 1
	addl	$1, -148(%rbp)	#, j
.L337:
	.loc 1 1049 0 is_stmt 0 discriminator 1
	movl	-128(%rbp), %eax	# pay, tmp710
	addl	$8, %eax	#, D.21094
	cmpl	-148(%rbp), %eax	# j, D.21094
	jg	.L340	#,
.L322:
	.loc 1 1065 0 is_stmt 1
	movq	input(%rip), %rax	# input, input.260
	movl	2464(%rax), %eax	# input.260_283->rdopt, D.21094
	cmpl	$2, %eax	#, D.21094
	jne	.L341	#,
	.loc 1 1065 0 is_stmt 0 discriminator 1
	movq	img(%rip), %rax	# img, img.261
	movl	24(%rax), %eax	# img.261_285->type, D.21094
	cmpl	$1, %eax	#, D.21094
	je	.L341	#,
	.loc 1 1068 0 is_stmt 1
	movl	-204(%rbp), %eax	# block, tmp711
	movl	$-1, %esi	#,
	movl	%eax, %edi	# tmp711,
	call	compute_residue_b8block	#
.L341:
	.loc 1 1074 0
	movq	input(%rip), %rax	# input, input.262
	movl	2464(%rax), %eax	# input.262_287->rdopt, D.21094
	cmpl	$2, %eax	#, D.21094
	jne	.L342	#,
	.loc 1 1074 0 is_stmt 0 discriminator 1
	movq	img(%rip), %rax	# img, img.263
	movl	24(%rax), %eax	# img.263_289->type, D.21094
	cmpl	$1, %eax	#, D.21094
	je	.L342	#,
	.loc 1 1076 0 is_stmt 1
	movl	$0, -144(%rbp)	#, k
	jmp	.L343	#
.L348:
	.loc 1 1078 0
	movswl	-216(%rbp), %esi	# ref, D.21094
	movl	-208(%rbp), %ecx	# mode, tmp712
	movl	-204(%rbp), %edx	# block, tmp713
	movl	-144(%rbp), %eax	# k, tmp714
	movl	%esi, %r8d	# D.21094,
	movl	$8, %esi	#,
	movl	%eax, %edi	# tmp714,
	call	decode_one_b8block	#
	.loc 1 1079 0
	movq	img(%rip), %rax	# img, img.264
	movl	172(%rax), %edx	# img.264_295->opix_y, D.21094
	movl	-128(%rbp), %eax	# pay, tmp718
	addl	%edx, %eax	# D.21094, tmp717
	movl	%eax, -148(%rbp)	# tmp717, j
	jmp	.L344	#
.L347:
	.loc 1 1080 0
	movq	img(%rip), %rax	# img, img.265
	movl	168(%rax), %edx	# img.265_302->opix_x, D.21094
	movl	-132(%rbp), %eax	# pax, tmp722
	addl	%edx, %eax	# D.21094, tmp721
	movl	%eax, -152(%rbp)	# tmp721, i
	jmp	.L345	#
.L346:
	.loc 1 1082 0 discriminator 2
	movq	img(%rip), %rax	# img, img.266
	movq	71776(%rax), %rdx	# img.266_309->quad, D.21106
	movq	imgY_org(%rip), %rax	# imgY_org, imgY_org.267
	movl	-148(%rbp), %ecx	# j, tmp723
	movslq	%ecx, %rcx	# tmp723, D.21097
	salq	$3, %rcx	#, D.21097
	addq	%rcx, %rax	# D.21097, D.21103
	movq	(%rax), %rax	# *_314, D.21104
	movl	-152(%rbp), %ecx	# i, tmp724
	movslq	%ecx, %rcx	# tmp724, D.21097
	addq	%rcx, %rcx	# D.21097
	addq	%rcx, %rax	# D.21097, D.21104
	movzwl	(%rax), %eax	# *_318, D.21105
	movzwl	%ax, %ecx	# D.21105, D.21094
	movq	decs(%rip), %rax	# decs, decs.268
	movq	8(%rax), %rax	# decs.268_321->decY, D.21102
	movl	-144(%rbp), %esi	# k, tmp725
	movslq	%esi, %rsi	# tmp725, D.21097
	salq	$3, %rsi	#, D.21097
	addq	%rsi, %rax	# D.21097, D.21102
	movq	(%rax), %rax	# *_325, D.21103
	movl	-148(%rbp), %esi	# j, tmp726
	movslq	%esi, %rsi	# tmp726, D.21097
	salq	$3, %rsi	#, D.21097
	addq	%rsi, %rax	# D.21097, D.21103
	movq	(%rax), %rax	# *_329, D.21104
	movl	-152(%rbp), %esi	# i, tmp727
	movslq	%esi, %rsi	# tmp727, D.21097
	addq	%rsi, %rsi	# D.21097
	addq	%rsi, %rax	# D.21097, D.21104
	movzwl	(%rax), %eax	# *_333, D.21105
	movzwl	%ax, %eax	# D.21105, D.21094
	subl	%eax, %ecx	# D.21094, D.21094
	movl	%ecx, %eax	# D.21094, D.21094
	cltq
	salq	$2, %rax	#, D.21097
	addq	%rdx, %rax	# D.21106, D.21106
	movl	(%rax), %eax	# *_339, D.21094
	cltq
	addq	%rax, -72(%rbp)	# D.21107, distortion
	.loc 1 1080 0 discriminator 2
	addl	$1, -152(%rbp)	#, i
.L345:
	.loc 1 1080 0 is_stmt 0 discriminator 1
	movq	img(%rip), %rax	# img, img.269
	movl	168(%rax), %edx	# img.269_305->opix_x, D.21094
	movl	-132(%rbp), %eax	# pax, tmp728
	addl	%edx, %eax	# D.21094, D.21094
	addl	$8, %eax	#, D.21094
	cmpl	-152(%rbp), %eax	# i, D.21094
	jg	.L346	#,
	.loc 1 1079 0 is_stmt 1
	addl	$1, -148(%rbp)	#, j
.L344:
	.loc 1 1079 0 is_stmt 0 discriminator 1
	movq	img(%rip), %rax	# img, img.270
	movl	172(%rax), %edx	# img.270_298->opix_y, D.21094
	movl	-128(%rbp), %eax	# pay, tmp729
	addl	%edx, %eax	# D.21094, D.21094
	addl	$8, %eax	#, D.21094
	cmpl	-148(%rbp), %eax	# j, D.21094
	jg	.L347	#,
	.loc 1 1076 0 is_stmt 1
	addl	$1, -144(%rbp)	#, k
.L343:
	.loc 1 1076 0 is_stmt 0 discriminator 1
	movq	input(%rip), %rax	# input, input.271
	movl	2904(%rax), %eax	# input.271_292->NoOfDecoders, D.21094
	cmpl	-144(%rbp), %eax	# k, D.21094
	jg	.L348	#,
	.loc 1 1085 0 is_stmt 1
	movq	input(%rip), %rax	# input, input.272
	movl	2904(%rax), %eax	# input.272_346->NoOfDecoders, D.21094
	movslq	%eax, %rbx	# D.21094, D.21107
	movq	-72(%rbp), %rax	# distortion, tmp732
	cqto
	idivq	%rbx	# D.21107
	movq	%rax, -72(%rbp)	# tmp730, distortion
	jmp	.L349	#
.L342:
	.loc 1 1089 0
	movl	-128(%rbp), %eax	# pay, tmp733
	movl	%eax, -148(%rbp)	# tmp733, j
	jmp	.L350	#
.L354:
	.loc 1 1090 0
	movq	img(%rip), %rax	# img, img.273
	movl	152(%rax), %edx	# img.273_352->pix_x, D.21094
	movl	-132(%rbp), %eax	# pax, tmp737
	addl	%edx, %eax	# D.21094, tmp736
	movl	%eax, -152(%rbp)	# tmp736, i
	jmp	.L351	#
.L353:
	.loc 1 1092 0
	movq	img(%rip), %rax	# img, img.274
	movq	71776(%rax), %rdx	# img.274_359->quad, D.21106
	movq	imgY_org(%rip), %rcx	# imgY_org, imgY_org.275
	movq	img(%rip), %rax	# img, img.276
	movl	172(%rax), %esi	# img.276_362->opix_y, D.21094
	movl	-148(%rbp), %eax	# j, tmp738
	addl	%esi, %eax	# D.21094, D.21094
	cltq
	salq	$3, %rax	#, D.21097
	addq	%rcx, %rax	# imgY_org.275, D.21103
	movq	(%rax), %rax	# *_367, D.21104
	movl	-152(%rbp), %ecx	# i, tmp739
	movslq	%ecx, %rcx	# tmp739, D.21097
	addq	%rcx, %rcx	# D.21097
	addq	%rcx, %rax	# D.21097, D.21104
	movzwl	(%rax), %eax	# *_371, D.21105
	movzwl	%ax, %ecx	# D.21105, D.21094
	movq	enc_picture(%rip), %rax	# enc_picture, enc_picture.277
	movq	6424(%rax), %rsi	# enc_picture.277_374->imgY, D.21103
	movq	img(%rip), %rax	# img, img.278
	movl	156(%rax), %edi	# img.278_376->pix_y, D.21094
	movl	-148(%rbp), %eax	# j, tmp740
	addl	%edi, %eax	# D.21094, D.21094
	cltq
	salq	$3, %rax	#, D.21097
	addq	%rsi, %rax	# D.21103, D.21103
	movq	(%rax), %rax	# *_381, D.21104
	movl	-152(%rbp), %esi	# i, tmp741
	movslq	%esi, %rsi	# tmp741, D.21097
	addq	%rsi, %rsi	# D.21097
	addq	%rsi, %rax	# D.21097, D.21104
	movzwl	(%rax), %eax	# *_385, D.21105
	movzwl	%ax, %eax	# D.21105, D.21094
	subl	%eax, %ecx	# D.21094, D.21094
	movl	%ecx, %eax	# D.21094, D.21094
	cltq
	salq	$2, %rax	#, D.21097
	addq	%rdx, %rax	# D.21106, D.21106
	movl	(%rax), %eax	# *_391, D.21094
	cltq
	addq	%rax, -72(%rbp)	# D.21107, distortion
	.loc 1 1094 0
	movq	img(%rip), %rax	# img, img.279
	movl	72724(%rax), %eax	# img.279_395->residue_transform_flag, D.21094
	testl	%eax, %eax	# D.21094
	je	.L352	#,
	.loc 1 1096 0
	movq	img(%rip), %rax	# img, img.280
	movq	71776(%rax), %rdx	# img.280_397->quad, D.21106
	movq	imgUV_org(%rip), %rax	# imgUV_org, imgUV_org.281
	movq	(%rax), %rcx	# *imgUV_org.281_399, D.21103
	movq	img(%rip), %rax	# img, img.282
	movl	172(%rax), %esi	# img.282_401->opix_y, D.21094
	movl	-148(%rbp), %eax	# j, tmp742
	addl	%esi, %eax	# D.21094, D.21094
	cltq
	salq	$3, %rax	#, D.21097
	addq	%rcx, %rax	# D.21103, D.21103
	movq	(%rax), %rax	# *_406, D.21104
	movl	-152(%rbp), %ecx	# i, tmp743
	movslq	%ecx, %rcx	# tmp743, D.21097
	addq	%rcx, %rcx	# D.21097
	addq	%rcx, %rax	# D.21097, D.21104
	movzwl	(%rax), %eax	# *_410, D.21105
	movzwl	%ax, %ecx	# D.21105, D.21094
	movq	enc_picture(%rip), %rax	# enc_picture, enc_picture.283
	movq	6464(%rax), %rax	# enc_picture.283_413->imgUV, D.21102
	movq	(%rax), %rsi	# *_414, D.21103
	movq	img(%rip), %rax	# img, img.284
	movl	156(%rax), %edi	# img.284_416->pix_y, D.21094
	movl	-148(%rbp), %eax	# j, tmp744
	addl	%edi, %eax	# D.21094, D.21094
	cltq
	salq	$3, %rax	#, D.21097
	addq	%rsi, %rax	# D.21103, D.21103
	movq	(%rax), %rax	# *_421, D.21104
	movl	-152(%rbp), %esi	# i, tmp745
	movslq	%esi, %rsi	# tmp745, D.21097
	addq	%rsi, %rsi	# D.21097
	addq	%rsi, %rax	# D.21097, D.21104
	movzwl	(%rax), %eax	# *_425, D.21105
	movzwl	%ax, %eax	# D.21105, D.21094
	subl	%eax, %ecx	# D.21094, D.21094
	movl	%ecx, %eax	# D.21094, D.21094
	cltq
	salq	$2, %rax	#, D.21097
	addq	%rdx, %rax	# D.21106, D.21106
	movl	(%rax), %eax	# *_431, D.21094
	cltq
	addq	%rax, -72(%rbp)	# D.21107, distortion
	.loc 1 1097 0
	movq	img(%rip), %rax	# img, img.285
	movq	71776(%rax), %rdx	# img.285_435->quad, D.21106
	movq	imgUV_org(%rip), %rax	# imgUV_org, imgUV_org.286
	addq	$8, %rax	#, D.21102
	movq	(%rax), %rcx	# *_438, D.21103
	movq	img(%rip), %rax	# img, img.287
	movl	172(%rax), %esi	# img.287_440->opix_y, D.21094
	movl	-148(%rbp), %eax	# j, tmp746
	addl	%esi, %eax	# D.21094, D.21094
	cltq
	salq	$3, %rax	#, D.21097
	addq	%rcx, %rax	# D.21103, D.21103
	movq	(%rax), %rax	# *_445, D.21104
	movl	-152(%rbp), %ecx	# i, tmp747
	movslq	%ecx, %rcx	# tmp747, D.21097
	addq	%rcx, %rcx	# D.21097
	addq	%rcx, %rax	# D.21097, D.21104
	movzwl	(%rax), %eax	# *_449, D.21105
	movzwl	%ax, %ecx	# D.21105, D.21094
	movq	enc_picture(%rip), %rax	# enc_picture, enc_picture.288
	movq	6464(%rax), %rax	# enc_picture.288_452->imgUV, D.21102
	addq	$8, %rax	#, D.21102
	movq	(%rax), %rsi	# *_454, D.21103
	movq	img(%rip), %rax	# img, img.289
	movl	156(%rax), %edi	# img.289_456->pix_y, D.21094
	movl	-148(%rbp), %eax	# j, tmp748
	addl	%edi, %eax	# D.21094, D.21094
	cltq
	salq	$3, %rax	#, D.21097
	addq	%rsi, %rax	# D.21103, D.21103
	movq	(%rax), %rax	# *_461, D.21104
	movl	-152(%rbp), %esi	# i, tmp749
	movslq	%esi, %rsi	# tmp749, D.21097
	addq	%rsi, %rsi	# D.21097
	addq	%rsi, %rax	# D.21097, D.21104
	movzwl	(%rax), %eax	# *_465, D.21105
	movzwl	%ax, %eax	# D.21105, D.21094
	subl	%eax, %ecx	# D.21094, D.21094
	movl	%ecx, %eax	# D.21094, D.21094
	cltq
	salq	$2, %rax	#, D.21097
	addq	%rdx, %rax	# D.21106, D.21106
	movl	(%rax), %eax	# *_471, D.21094
	cltq
	addq	%rax, -72(%rbp)	# D.21107, distortion
.L352:
	.loc 1 1090 0
	addl	$1, -152(%rbp)	#, i
.L351:
	.loc 1 1090 0 is_stmt 0 discriminator 1
	movq	img(%rip), %rax	# img, img.290
	movl	152(%rax), %edx	# img.290_355->pix_x, D.21094
	movl	-132(%rbp), %eax	# pax, tmp750
	addl	%edx, %eax	# D.21094, D.21094
	addl	$8, %eax	#, D.21094
	cmpl	-152(%rbp), %eax	# i, D.21094
	jg	.L353	#,
	.loc 1 1089 0 is_stmt 1
	addl	$1, -148(%rbp)	#, j
.L350:
	.loc 1 1089 0 is_stmt 0 discriminator 1
	movl	-128(%rbp), %eax	# pay, tmp751
	addl	$8, %eax	#, D.21094
	cmpl	-148(%rbp), %eax	# j, D.21094
	jg	.L354	#,
.L349:
	.loc 1 1106 0 is_stmt 1
	movq	input(%rip), %rax	# input, input.291
	movl	2356(%rax), %eax	# input.291_477->symbol_mode, D.21094
	testl	%eax, %eax	# D.21094
	jne	.L355	#,
	.loc 1 1108 0
	movl	-164(%rbp), %esi	# dummy, dummy.292
	leaq	-164(%rbp), %rcx	#, tmp752
	leaq	-160(%rbp), %rdx	#, tmp753
	movl	-108(%rbp), %eax	# b8value, tmp754
	movl	%eax, %edi	# tmp754,
	call	ue_linfo	#
	.loc 1 1109 0
	movl	-160(%rbp), %eax	# mrate, mrate.293
	addl	%eax, -140(%rbp)	# mrate.293, rate
	jmp	.L356	#
.L355:
	.loc 1 1113 0
	movq	-56(%rbp), %rax	# currSE, tmp755
	movl	-108(%rbp), %edx	# b8value, tmp756
	movl	%edx, 4(%rax)	# tmp756, currSE_64->value1
	.loc 1 1114 0
	movq	-56(%rbp), %rax	# currSE, tmp757
	movq	$writeB8_typeInfo_CABAC, 40(%rax)	#, currSE_64->writing
	.loc 1 1115 0
	movq	-56(%rbp), %rax	# currSE, tmp758
	movl	$2, (%rax)	#, currSE_64->type
	.loc 1 1116 0
	movq	-48(%rbp), %rax	# currSlice, tmp759
	movq	24(%rax), %rdx	# currSlice_66->partArr, D.21108
	movq	-56(%rbp), %rax	# currSE, tmp760
	movl	(%rax), %eax	# currSE_64->type, D.21094
	cltq
	leaq	0(,%rax,4), %rcx	#, D.21097
	movq	-40(%rbp), %rax	# partMap, tmp761
	addq	%rcx, %rax	# D.21097, D.21109
	movl	(%rax), %eax	# *_486, D.21094
	cltq
	salq	$3, %rax	#, tmp763
	movq	%rax, %rcx	# tmp762, tmp764
	salq	$4, %rcx	#, tmp764
	subq	%rax, %rcx	# tmp762, D.21097
	movq	%rcx, %rax	# D.21097, D.21097
	addq	%rdx, %rax	# D.21108, tmp765
	movq	%rax, -32(%rbp)	# tmp765, dataPart
	.loc 1 1117 0
	movq	-32(%rbp), %rax	# dataPart, tmp766
	movq	112(%rax), %rax	# dataPart_490->writeSyntaxElement, D.21110
	movq	-32(%rbp), %rcx	# dataPart, tmp767
	movq	-56(%rbp), %rdx	# currSE, tmp768
	movq	%rcx, %rsi	# tmp767,
	movq	%rdx, %rdi	# tmp768,
	call	*%rax	# D.21110
	.loc 1 1118 0
	movq	-56(%rbp), %rax	# currSE, tmp769
	movl	12(%rax), %eax	# currSE_64->len, D.21094
	addl	%eax, -140(%rbp)	# D.21094, rate
	.loc 1 1119 0
	addq	$48, -56(%rbp)	#, currSE
	.loc 1 1120 0
	movq	-64(%rbp), %rax	# currMB, tmp770
	movl	(%rax), %eax	# currMB_61->currSEnr, D.21094
	leal	1(%rax), %edx	#, D.21094
	movq	-64(%rbp), %rax	# currMB, tmp771
	movl	%edx, (%rax)	# D.21094, currMB_61->currSEnr
.L356:
	.loc 1 1124 0
	cmpl	$0, -112(%rbp)	#, direct
	jne	.L357	#,
	.loc 1 1126 0
	movq	img(%rip), %rax	# img, img.294
	movl	72000(%rax), %eax	# img.294_497->num_ref_idx_l0_active, D.21094
	cmpl	$1, %eax	#, D.21094
	jle	.L358	#,
	.loc 1 1126 0 is_stmt 0 discriminator 1
	cmpw	$0, -212(%rbp)	#, pdir
	je	.L359	#,
	cmpw	$2, -212(%rbp)	#, pdir
	jne	.L358	#,
.L359:
	.loc 1 1127 0 is_stmt 1
	movswl	-216(%rbp), %ecx	# ref, D.21094
	movl	-120(%rbp), %edx	# j0, tmp772
	movl	-124(%rbp), %esi	# i0, tmp773
	movl	-208(%rbp), %eax	# mode, tmp774
	movl	%ecx, %r8d	# D.21094,
	movl	$1, %ecx	#,
	movl	%eax, %edi	# tmp774,
	call	writeReferenceFrame	#
	addl	%eax, -140(%rbp)	# D.21094, rate
.L358:
	.loc 1 1128 0
	movq	img(%rip), %rax	# img, img.295
	movl	72004(%rax), %eax	# img.295_502->num_ref_idx_l1_active, D.21094
	cmpl	$1, %eax	#, D.21094
	jle	.L360	#,
	.loc 1 1128 0 is_stmt 0 discriminator 1
	movq	img(%rip), %rax	# img, img.296
	movl	24(%rax), %eax	# img.296_504->type, D.21094
	cmpl	$1, %eax	#, D.21094
	jne	.L360	#,
	.loc 1 1130 0 is_stmt 1
	cmpw	$1, -212(%rbp)	#, pdir
	je	.L361	#,
	.loc 1 1130 0 is_stmt 0 discriminator 1
	cmpw	$2, -212(%rbp)	#, pdir
	jne	.L360	#,
.L361:
	.loc 1 1132 0 is_stmt 1
	movswl	-220(%rbp), %ecx	# bwd_ref, D.21094
	movl	-120(%rbp), %edx	# j0, tmp775
	movl	-124(%rbp), %esi	# i0, tmp776
	movl	-208(%rbp), %eax	# mode, tmp777
	movl	%ecx, %r8d	# D.21094,
	movl	$0, %ecx	#,
	movl	%eax, %edi	# tmp777,
	call	writeReferenceFrame	#
	addl	%eax, -140(%rbp)	# D.21094, rate
.L360:
	.loc 1 1136 0
	cmpw	$0, -212(%rbp)	#, pdir
	je	.L362	#,
	.loc 1 1136 0 is_stmt 0 discriminator 1
	cmpw	$2, -212(%rbp)	#, pdir
	jne	.L363	#,
.L362:
	.loc 1 1138 0 is_stmt 1
	movswl	-216(%rbp), %r8d	# ref, D.21094
	movl	-120(%rbp), %eax	# j0, tmp778
	leal	2(%rax), %ecx	#, D.21094
	movl	-124(%rbp), %eax	# i0, tmp779
	leal	2(%rax), %edi	#, D.21094
	movl	-120(%rbp), %esi	# j0, tmp780
	movl	-124(%rbp), %eax	# i0, tmp781
	movl	-208(%rbp), %edx	# mode, tmp782
	movl	%edx, (%rsp)	# tmp782,
	movl	$0, %r9d	#,
	movl	%edi, %edx	# D.21094,
	movl	%eax, %edi	# tmp781,
	call	writeMotionVector8x8	#
	addl	%eax, -140(%rbp)	# D.21094, rate
.L363:
	.loc 1 1140 0
	cmpw	$1, -212(%rbp)	#, pdir
	je	.L364	#,
	.loc 1 1140 0 is_stmt 0 discriminator 1
	cmpw	$2, -212(%rbp)	#, pdir
	jne	.L357	#,
.L364:
	.loc 1 1142 0 is_stmt 1
	movswl	-220(%rbp), %r8d	# bwd_ref, D.21094
	movl	-120(%rbp), %eax	# j0, tmp783
	leal	2(%rax), %ecx	#, D.21094
	movl	-124(%rbp), %eax	# i0, tmp784
	leal	2(%rax), %edi	#, D.21094
	movl	-120(%rbp), %esi	# j0, tmp785
	movl	-124(%rbp), %eax	# i0, tmp786
	movl	-208(%rbp), %edx	# mode, tmp787
	movl	%edx, (%rsp)	# tmp787,
	movl	$1, %r9d	#,
	movl	%edi, %edx	# D.21094,
	movl	%eax, %edi	# tmp786,
	call	writeMotionVector8x8	#
	addl	%eax, -140(%rbp)	# D.21094, rate
.L357:
	.loc 1 1147 0
	movq	input(%rip), %rax	# input, input.297
	movl	2356(%rax), %eax	# input.297_519->symbol_mode, D.21094
	cmpl	$1, %eax	#, D.21094
	jne	.L365	#,
	.loc 1 1149 0
	movq	-48(%rbp), %rax	# currSlice, tmp788
	movq	24(%rax), %rdx	# currSlice_66->partArr, D.21108
	movq	-40(%rbp), %rax	# partMap, tmp789
	addq	$44, %rax	#, D.21109
	movl	(%rax), %eax	# *_522, D.21094
	cltq
	salq	$3, %rax	#, tmp791
	movq	%rax, %rcx	# tmp790, tmp792
	salq	$4, %rcx	#, tmp792
	subq	%rax, %rcx	# tmp790, D.21097
	movq	%rcx, %rax	# D.21097, D.21097
	addq	%rdx, %rax	# D.21108, tmp793
	movq	%rax, -32(%rbp)	# tmp793, dataPart
	.loc 1 1150 0
	movq	-32(%rbp), %rax	# dataPart, tmp797
	addq	$8, %rax	#, tmp796
	movq	%rax, -24(%rbp)	# tmp796, eep_dp
	.loc 1 1151 0
	movq	-24(%rbp), %rax	# eep_dp, tmp798
	movq	%rax, %rdi	# tmp798,
	call	arienco_bits_written	#
	movl	%eax, -160(%rbp)	# mrate.298, mrate
	.loc 1 1152 0
	movl	cbp8x8(%rip), %edx	# cbp8x8, cbp8x8.299
	movq	-184(%rbp), %rax	# cnt_nonz, tmp799
	movl	(%rax), %eax	# *cnt_nonz_140(D), D.21094
	testl	%eax, %eax	# D.21094
	setg	%al	#, D.21095
	movzbl	%al, %esi	# D.21095, D.21094
	movq	-24(%rbp), %rdi	# eep_dp, tmp800
	movq	-64(%rbp), %rcx	# currMB, tmp801
	movl	-204(%rbp), %eax	# block, tmp802
	movq	%rdi, %r9	# tmp800,
	movl	$1, %r8d	#,
	movl	%eax, %edi	# tmp802,
	call	writeCBP_BIT_CABAC	#
	.loc 1 1153 0
	movq	-24(%rbp), %rax	# eep_dp, tmp803
	movq	%rax, %rdi	# tmp803,
	call	arienco_bits_written	#
	movl	-160(%rbp), %edx	# mrate, mrate.300
	subl	%edx, %eax	# mrate.300, mrate.301
	movl	%eax, -160(%rbp)	# mrate.301, mrate
	.loc 1 1154 0
	movl	-160(%rbp), %eax	# mrate, mrate.302
	addl	%eax, -140(%rbp)	# mrate.302, rate
.L365:
	.loc 1 1158 0
	movq	-184(%rbp), %rax	# cnt_nonz, tmp804
	movl	(%rax), %eax	# *cnt_nonz_140(D), D.21094
	testl	%eax, %eax	# D.21094
	je	.L366	#,
	.loc 1 1160 0
	movq	-64(%rbp), %rax	# currMB, tmp805
	movl	572(%rax), %edx	# currMB_61->luma_transform_size_8x8_flag, D.21094
	movl	-208(%rbp), %ecx	# mode, tmp806
	movl	-204(%rbp), %eax	# block, tmp807
	movl	%ecx, %esi	# tmp806,
	movl	%eax, %edi	# tmp807,
	call	writeLumaCoeff8x8	#
	addl	%eax, -140(%rbp)	# D.21094, rate
.L366:
	.loc 1 1163 0
	cvtsi2sdq	-72(%rbp), %xmm1	# distortion, D.21093
	cvtsi2sd	-140(%rbp), %xmm0	# rate, D.21093
	mulsd	-200(%rbp), %xmm0	# lambda, D.21093
	addsd	%xmm0, %xmm1	# D.21093, D.21093
	movsd	%xmm1, -232(%rbp)	# D.21093, %sfp
	movq	-232(%rbp), %rax	# %sfp, D.21093
.L367:
	.loc 1 1164 0
	movq	%rax, -232(%rbp)	# <retval>, %sfp
	movsd	-232(%rbp), %xmm0	# %sfp,
	addq	$248, %rsp	#,
	popq	%rbx	#
	popq	%rbp	#
	.cfi_def_cfa 7, 8
	ret
	.cfi_endproc
.LFE11:
	.size	RDCost_for_8x8blocks, .-RDCost_for_8x8blocks
	.globl	I16Offset
	.type	I16Offset, @function
I16Offset:
.LFB12:
	.loc 1 1174 0
	.cfi_startproc
	pushq	%rbp	#
	.cfi_def_cfa_offset 16
	.cfi_offset 6, -16
	movq	%rsp, %rbp	#,
	.cfi_def_cfa_register 6
	movl	%edi, -4(%rbp)	# cbp, cbp
	movl	%esi, -8(%rbp)	# i16mode, i16mode
	.loc 1 1175 0
	movl	-4(%rbp), %eax	# cbp, tmp66
	andl	$15, %eax	#, D.21112
	testl	%eax, %eax	# D.21112
	je	.L369	#,
	.loc 1 1175 0 is_stmt 0 discriminator 1
	movl	$13, %eax	#, iftmp.303
	jmp	.L370	#
.L369:
	.loc 1 1175 0 discriminator 2
	movl	$1, %eax	#, iftmp.303
.L370:
	.loc 1 1175 0 discriminator 3
	movl	-8(%rbp), %edx	# i16mode, tmp67
	addl	%eax, %edx	# iftmp.303, D.21112
	movl	-4(%rbp), %eax	# cbp, tmp68
	andl	$48, %eax	#, D.21112
	sarl	$2, %eax	#, D.21112
	addl	%edx, %eax	# D.21112, D.21112
	.loc 1 1176 0 is_stmt 1 discriminator 3
	popq	%rbp	#
	.cfi_def_cfa 7, 8
	ret
	.cfi_endproc
.LFE12:
	.size	I16Offset, .-I16Offset
	.section	.rodata
	.align 8
.LC7:
	.string	"Unsupported mode in SetModesAndRefframeForBlocks!"
	.text
	.globl	SetModesAndRefframeForBlocks
	.type	SetModesAndRefframeForBlocks, @function
SetModesAndRefframeForBlocks:
.LFB13:
	.loc 1 1186 0
	.cfi_startproc
	pushq	%rbp	#
	.cfi_def_cfa_offset 16
	.cfi_offset 6, -16
	movq	%rsp, %rbp	#,
	.cfi_def_cfa_register 6
	subq	$48, %rsp	#,
	movl	%edi, -36(%rbp)	# mode, mode
	.loc 1 1188 0
	movq	img(%rip), %rax	# img, img.304
	movq	14168(%rax), %rdx	# img.304_28->mb_data, D.21113
	movq	img(%rip), %rax	# img, img.305
	movl	12(%rax), %eax	# img.305_30->current_mb_nr, D.21114
	cltq
	imulq	$632, %rax, %rax	#, D.21115, D.21115
	addq	%rdx, %rax	# D.21113, tmp512
	movq	%rax, -8(%rbp)	# tmp512, currMB
	.loc 1 1189 0
	movq	img(%rip), %rax	# img, img.306
	movl	24(%rax), %eax	# img.306_35->type, D.21114
	cmpl	$1, %eax	#, D.21114
	sete	%al	#, D.21116
	movzbl	%al, %eax	# D.21116, tmp513
	movl	%eax, -24(%rbp)	# tmp513, bframe
	.loc 1 1191 0
	movq	img(%rip), %rax	# img, img.308
	movl	72400(%rax), %eax	# img.308_39->MbaffFrameFlag, D.21114
	testl	%eax, %eax	# D.21114
	je	.L373	#,
	.loc 1 1191 0 is_stmt 0 discriminator 1
	movq	-8(%rbp), %rax	# currMB, tmp514
	movl	532(%rax), %eax	# currMB_34->mb_field, D.21114
	testl	%eax, %eax	# D.21114
	je	.L373	#,
	movq	img(%rip), %rax	# img, img.310
	movl	12(%rax), %eax	# img.310_42->current_mb_nr, D.21114
	andl	$1, %eax	#, D.21117
	testl	%eax, %eax	# D.21117
	je	.L374	#,
	movl	$4, %eax	#, iftmp.309
	jmp	.L375	#
.L374:
	.loc 1 1191 0 discriminator 2
	movl	$2, %eax	#, iftmp.309
.L375:
	.loc 1 1191 0 discriminator 3
	jmp	.L376	#
.L373:
	.loc 1 1191 0 discriminator 2
	movl	$0, %eax	#, iftmp.307
.L376:
	.loc 1 1191 0 discriminator 3
	movl	%eax, -20(%rbp)	# iftmp.307, list_offset
	.loc 1 1194 0 is_stmt 1 discriminator 3
	movq	-8(%rbp), %rax	# currMB, tmp515
	movl	-36(%rbp), %edx	# mode, tmp516
	movl	%edx, 72(%rax)	# tmp516, currMB_34->mb_type
	.loc 1 1197 0 discriminator 3
	cmpl	$1, -36(%rbp)	#, mode
	jne	.L377	#,
	.loc 1 1198 0
	movq	img(%rip), %rax	# img, img.311
	movl	-36(%rbp), %edx	# mode, tmp518
	movslq	%edx, %rdx	# tmp518, tmp517
	addq	$35976, %rdx	#, tmp519
	movzwl	(%rax,%rdx,2), %eax	# img.311_52->bi_pred_me, D.21118
	movswl	%ax, %edx	# D.21118, D.21114
	movq	-8(%rbp), %rax	# currMB, tmp520
	movl	%edx, 580(%rax)	# D.21114, currMB_34->bi_pred_me
	jmp	.L378	#
.L377:
	.loc 1 1200 0
	movq	-8(%rbp), %rax	# currMB, tmp521
	movl	$0, 580(%rax)	#, currMB_34->bi_pred_me
.L378:
	.loc 1 1204 0
	cmpl	$13, -36(%rbp)	#, mode
	ja	.L379	#,
	movl	-36(%rbp), %eax	# mode, tmp522
	movq	.L381(,%rax,8), %rax	#, tmp523
	jmp	*%rax	# tmp523
	.section	.rodata
	.align 8
	.align 4
.L381:
	.quad	.L380
	.quad	.L382
	.quad	.L382
	.quad	.L382
	.quad	.L379
	.quad	.L379
	.quad	.L379
	.quad	.L379
	.quad	.L383
	.quad	.L384
	.quad	.L385
	.quad	.L379
	.quad	.L379
	.quad	.L386
	.text
.L380:
	.loc 1 1207 0
	movl	$0, -32(%rbp)	#, i
	jmp	.L387	#
.L390:
	.loc 1 1209 0
	movq	-8(%rbp), %rax	# currMB, tmp524
	movl	-32(%rbp), %edx	# i, tmp526
	movslq	%edx, %rdx	# tmp526, tmp525
	addq	$116, %rdx	#, tmp527
	movl	$0, 8(%rax,%rdx,4)	#, currMB_34->b8mode
	.loc 1 1210 0
	cmpl	$0, -24(%rbp)	#, bframe
	je	.L388	#,
	.loc 1 1210 0 is_stmt 0 discriminator 1
	movq	direct_pdir(%rip), %rcx	# direct_pdir, direct_pdir.313
	movq	img(%rip), %rax	# img, img.314
	movl	144(%rax), %esi	# img.314_57->block_x, D.21114
	movl	-32(%rbp), %eax	# i, tmp528
	cltd
	shrl	$31, %edx	#, tmp530
	addl	%edx, %eax	# tmp530, tmp531
	andl	$1, %eax	#, tmp532
	subl	%edx, %eax	# tmp530, tmp533
	addl	%eax, %eax	# D.21114
	addl	%esi, %eax	# D.21114, D.21114
	cltq
	salq	$3, %rax	#, D.21115
	addq	%rcx, %rax	# direct_pdir.313, D.21119
	movq	(%rax), %rdx	# *_64, D.21120
	movq	img(%rip), %rax	# img, img.315
	movl	148(%rax), %ecx	# img.315_66->block_y, D.21114
	movl	-32(%rbp), %eax	# i, tmp534
	movl	%eax, %esi	# tmp534, tmp535
	shrl	$31, %esi	#, tmp535
	addl	%esi, %eax	# tmp535, tmp536
	sarl	%eax	# tmp537
	addl	%eax, %eax	# D.21114
	addl	%ecx, %eax	# D.21114, D.21114
	cltq
	addq	%rax, %rax	# D.21115
	addq	%rdx, %rax	# D.21120, D.21120
	movzwl	(%rax), %eax	# *_73, D.21118
	cwtl
	jmp	.L389	#
.L388:
	.loc 1 1210 0 discriminator 2
	movl	$0, %eax	#, iftmp.312
.L389:
	.loc 1 1210 0 discriminator 3
	movq	-8(%rbp), %rdx	# currMB, tmp538
	movl	-32(%rbp), %ecx	# i, tmp540
	movslq	%ecx, %rcx	# tmp540, tmp539
	addq	$120, %rcx	#, tmp541
	movl	%eax, 8(%rdx,%rcx,4)	# iftmp.312, currMB_34->b8pdir
	.loc 1 1207 0 is_stmt 1 discriminator 3
	addl	$1, -32(%rbp)	#, i
.L387:
	.loc 1 1207 0 is_stmt 0 discriminator 1
	cmpl	$3, -32(%rbp)	#, i
	jle	.L390	#,
	.loc 1 1212 0 is_stmt 1
	jmp	.L391	#
.L382:
	.loc 1 1216 0
	movl	$0, -32(%rbp)	#, i
	jmp	.L392	#
.L393:
	.loc 1 1218 0 discriminator 2
	movq	-8(%rbp), %rax	# currMB, tmp542
	movl	-32(%rbp), %edx	# i, tmp544
	movslq	%edx, %rdx	# tmp544, tmp543
	leaq	116(%rdx), %rcx	#, tmp545
	movl	-36(%rbp), %edx	# mode, tmp546
	movl	%edx, 8(%rax,%rcx,4)	# tmp546, currMB_34->b8mode
	.loc 1 1219 0 discriminator 2
	movl	-32(%rbp), %eax	# i, tmp548
	cltq
	movl	-36(%rbp), %edx	# mode, tmp550
	movslq	%edx, %rdx	# tmp550, tmp549
	salq	$2, %rdx	#, tmp551
	addq	%rdx, %rax	# tmp551, tmp552
	movzwl	best8x8pdir(%rax,%rax), %eax	# best8x8pdir, D.21118
	movswl	%ax, %edx	# D.21118, D.21114
	movq	-8(%rbp), %rax	# currMB, tmp553
	movl	-32(%rbp), %ecx	# i, tmp555
	movslq	%ecx, %rcx	# tmp555, tmp554
	addq	$120, %rcx	#, tmp556
	movl	%edx, 8(%rax,%rcx,4)	# D.21114, currMB_34->b8pdir
	.loc 1 1216 0 discriminator 2
	addl	$1, -32(%rbp)	#, i
.L392:
	.loc 1 1216 0 is_stmt 0 discriminator 1
	cmpl	$3, -32(%rbp)	#, i
	jle	.L393	#,
	.loc 1 1221 0 is_stmt 1
	jmp	.L391	#
.L383:
	.loc 1 1223 0
	movl	$0, -32(%rbp)	#, i
	jmp	.L394	#
.L395:
	.loc 1 1225 0 discriminator 2
	movl	-32(%rbp), %eax	# i, tmp558
	cltq
	movzwl	best8x8mode(%rax,%rax), %eax	# best8x8mode, D.21118
	movswl	%ax, %edx	# D.21118, D.21114
	movq	-8(%rbp), %rax	# currMB, tmp559
	movl	-32(%rbp), %ecx	# i, tmp561
	movslq	%ecx, %rcx	# tmp561, tmp560
	addq	$116, %rcx	#, tmp562
	movl	%edx, 8(%rax,%rcx,4)	# D.21114, currMB_34->b8mode
	.loc 1 1226 0 discriminator 2
	movl	-32(%rbp), %eax	# i, tmp564
	cltq
	movl	-36(%rbp), %edx	# mode, tmp566
	movslq	%edx, %rdx	# tmp566, tmp565
	salq	$2, %rdx	#, tmp567
	addq	%rdx, %rax	# tmp567, tmp568
	movzwl	best8x8pdir(%rax,%rax), %eax	# best8x8pdir, D.21118
	movswl	%ax, %edx	# D.21118, D.21114
	movq	-8(%rbp), %rax	# currMB, tmp569
	movl	-32(%rbp), %ecx	# i, tmp571
	movslq	%ecx, %rcx	# tmp571, tmp570
	addq	$120, %rcx	#, tmp572
	movl	%edx, 8(%rax,%rcx,4)	# D.21114, currMB_34->b8pdir
	.loc 1 1223 0 discriminator 2
	addl	$1, -32(%rbp)	#, i
.L394:
	.loc 1 1223 0 is_stmt 0 discriminator 1
	cmpl	$3, -32(%rbp)	#, i
	jle	.L395	#,
	.loc 1 1228 0 is_stmt 1
	jmp	.L391	#
.L384:
	.loc 1 1230 0
	movl	$0, -32(%rbp)	#, i
	jmp	.L396	#
.L397:
	.loc 1 1232 0 discriminator 2
	movq	-8(%rbp), %rax	# currMB, tmp573
	movl	-32(%rbp), %edx	# i, tmp575
	movslq	%edx, %rdx	# tmp575, tmp574
	addq	$116, %rdx	#, tmp576
	movl	$11, 8(%rax,%rdx,4)	#, currMB_34->b8mode
	.loc 1 1233 0 discriminator 2
	movq	-8(%rbp), %rax	# currMB, tmp577
	movl	-32(%rbp), %edx	# i, tmp579
	movslq	%edx, %rdx	# tmp579, tmp578
	addq	$120, %rdx	#, tmp580
	movl	$-1, 8(%rax,%rdx,4)	#, currMB_34->b8pdir
	.loc 1 1230 0 discriminator 2
	addl	$1, -32(%rbp)	#, i
.L396:
	.loc 1 1230 0 is_stmt 0 discriminator 1
	cmpl	$3, -32(%rbp)	#, i
	jle	.L397	#,
	.loc 1 1235 0 is_stmt 1
	jmp	.L391	#
.L385:
	.loc 1 1237 0
	movl	$0, -32(%rbp)	#, i
	jmp	.L398	#
.L399:
	.loc 1 1239 0 discriminator 2
	movq	-8(%rbp), %rax	# currMB, tmp581
	movl	-32(%rbp), %edx	# i, tmp583
	movslq	%edx, %rdx	# tmp583, tmp582
	addq	$116, %rdx	#, tmp584
	movl	$0, 8(%rax,%rdx,4)	#, currMB_34->b8mode
	.loc 1 1240 0 discriminator 2
	movq	-8(%rbp), %rax	# currMB, tmp585
	movl	-32(%rbp), %edx	# i, tmp587
	movslq	%edx, %rdx	# tmp587, tmp586
	addq	$120, %rdx	#, tmp588
	movl	$-1, 8(%rax,%rdx,4)	#, currMB_34->b8pdir
	.loc 1 1237 0 discriminator 2
	addl	$1, -32(%rbp)	#, i
.L398:
	.loc 1 1237 0 is_stmt 0 discriminator 1
	cmpl	$3, -32(%rbp)	#, i
	jle	.L399	#,
	.loc 1 1242 0 is_stmt 1
	jmp	.L391	#
.L386:
	.loc 1 1244 0
	movl	$0, -32(%rbp)	#, i
	jmp	.L400	#
.L401:
	.loc 1 1246 0 discriminator 2
	movq	-8(%rbp), %rax	# currMB, tmp589
	movl	-32(%rbp), %edx	# i, tmp591
	movslq	%edx, %rdx	# tmp591, tmp590
	addq	$116, %rdx	#, tmp592
	movl	$13, 8(%rax,%rdx,4)	#, currMB_34->b8mode
	.loc 1 1247 0 discriminator 2
	movq	-8(%rbp), %rax	# currMB, tmp593
	movl	-32(%rbp), %edx	# i, tmp595
	movslq	%edx, %rdx	# tmp595, tmp594
	addq	$120, %rdx	#, tmp596
	movl	$-1, 8(%rax,%rdx,4)	#, currMB_34->b8pdir
	.loc 1 1244 0 discriminator 2
	addl	$1, -32(%rbp)	#, i
.L400:
	.loc 1 1244 0 is_stmt 0 discriminator 1
	cmpl	$3, -32(%rbp)	#, i
	jle	.L401	#,
	.loc 1 1250 0 is_stmt 1
	movq	-8(%rbp), %rax	# currMB, tmp597
	movl	$1, 572(%rax)	#, currMB_34->luma_transform_size_8x8_flag
	.loc 1 1251 0
	jmp	.L391	#
.L379:
	.loc 1 1253 0
	movl	$.LC7, %edi	#,
	call	puts	#
	.loc 1 1254 0
	movl	$1, %edi	#,
	call	exit	#
.L391:
	.loc 1 1260 0
	cmpl	$0, -36(%rbp)	#, mode
	je	.L402	#,
	.loc 1 1260 0 is_stmt 0 discriminator 1
	cmpl	$9, -36(%rbp)	#, mode
	je	.L402	#,
	cmpl	$10, -36(%rbp)	#, mode
	je	.L402	#,
	cmpl	$13, -36(%rbp)	#, mode
	jne	.L403	#,
.L402:
	.loc 1 1262 0 is_stmt 1
	cmpl	$0, -24(%rbp)	#, bframe
	je	.L404	#,
	.loc 1 1264 0
	movl	$0, -28(%rbp)	#, j
	jmp	.L405	#
.L410:
	.loc 1 1265 0
	movl	$0, -32(%rbp)	#, i
	jmp	.L406	#
.L409:
	.loc 1 1267 0
	cmpl	$0, -36(%rbp)	#, mode
	jne	.L407	#,
	.loc 1 1269 0
	movq	enc_picture(%rip), %rax	# enc_picture, enc_picture.316
	movq	6480(%rax), %rax	# enc_picture.316_291->ref_idx, D.21121
	movq	(%rax), %rdx	# *_292, D.21119
	movq	img(%rip), %rax	# img, img.317
	movl	144(%rax), %ecx	# img.317_294->block_x, D.21114
	movl	-32(%rbp), %eax	# i, tmp598
	addl	%ecx, %eax	# D.21114, D.21114
	cltq
	salq	$3, %rax	#, D.21115
	addq	%rdx, %rax	# D.21119, D.21119
	movq	(%rax), %rdx	# *_299, D.21120
	movq	img(%rip), %rax	# img, img.318
	movl	148(%rax), %ecx	# img.318_301->block_y, D.21114
	movl	-28(%rbp), %eax	# j, tmp599
	addl	%ecx, %eax	# D.21114, D.21114
	cltq
	addq	%rax, %rax	# D.21115
	addq	%rax, %rdx	# D.21115, D.21120
	movq	direct_ref_idx(%rip), %rax	# direct_ref_idx, direct_ref_idx.319
	movq	(%rax), %rcx	# *direct_ref_idx.319_307, D.21119
	movq	img(%rip), %rax	# img, img.320
	movl	144(%rax), %esi	# img.320_309->block_x, D.21114
	movl	-32(%rbp), %eax	# i, tmp600
	addl	%esi, %eax	# D.21114, D.21114
	cltq
	salq	$3, %rax	#, D.21115
	addq	%rcx, %rax	# D.21119, D.21119
	movq	(%rax), %rcx	# *_314, D.21120
	movq	img(%rip), %rax	# img, img.321
	movl	148(%rax), %esi	# img.321_316->block_y, D.21114
	movl	-28(%rbp), %eax	# j, tmp601
	addl	%esi, %eax	# D.21114, D.21114
	cltq
	addq	%rax, %rax	# D.21115
	addq	%rcx, %rax	# D.21120, D.21120
	movzwl	(%rax), %eax	# *_321, D.21118
	movw	%ax, (%rdx)	# D.21118, *_306
	.loc 1 1270 0
	movq	enc_picture(%rip), %rax	# enc_picture, enc_picture.322
	movq	6480(%rax), %rax	# enc_picture.322_323->ref_idx, D.21121
	addq	$8, %rax	#, D.21121
	movq	(%rax), %rdx	# *_325, D.21119
	movq	img(%rip), %rax	# img, img.323
	movl	144(%rax), %ecx	# img.323_327->block_x, D.21114
	movl	-32(%rbp), %eax	# i, tmp602
	addl	%ecx, %eax	# D.21114, D.21114
	cltq
	salq	$3, %rax	#, D.21115
	addq	%rdx, %rax	# D.21119, D.21119
	movq	(%rax), %rdx	# *_332, D.21120
	movq	img(%rip), %rax	# img, img.324
	movl	148(%rax), %ecx	# img.324_334->block_y, D.21114
	movl	-28(%rbp), %eax	# j, tmp603
	addl	%ecx, %eax	# D.21114, D.21114
	cltq
	addq	%rax, %rax	# D.21115
	addq	%rax, %rdx	# D.21115, D.21120
	movq	direct_ref_idx(%rip), %rax	# direct_ref_idx, direct_ref_idx.325
	addq	$8, %rax	#, D.21121
	movq	(%rax), %rcx	# *_341, D.21119
	movq	img(%rip), %rax	# img, img.326
	movl	144(%rax), %esi	# img.326_343->block_x, D.21114
	movl	-32(%rbp), %eax	# i, tmp604
	addl	%esi, %eax	# D.21114, D.21114
	cltq
	salq	$3, %rax	#, D.21115
	addq	%rcx, %rax	# D.21119, D.21119
	movq	(%rax), %rcx	# *_348, D.21120
	movq	img(%rip), %rax	# img, img.327
	movl	148(%rax), %esi	# img.327_350->block_y, D.21114
	movl	-28(%rbp), %eax	# j, tmp605
	addl	%esi, %eax	# D.21114, D.21114
	cltq
	addq	%rax, %rax	# D.21115
	addq	%rcx, %rax	# D.21120, D.21120
	movzwl	(%rax), %eax	# *_355, D.21118
	movw	%ax, (%rdx)	# D.21118, *_339
	jmp	.L408	#
.L407:
	.loc 1 1274 0
	movq	enc_picture(%rip), %rax	# enc_picture, enc_picture.328
	movq	6480(%rax), %rax	# enc_picture.328_357->ref_idx, D.21121
	movq	(%rax), %rdx	# *_358, D.21119
	movq	img(%rip), %rax	# img, img.329
	movl	144(%rax), %ecx	# img.329_360->block_x, D.21114
	movl	-32(%rbp), %eax	# i, tmp606
	addl	%ecx, %eax	# D.21114, D.21114
	cltq
	salq	$3, %rax	#, D.21115
	addq	%rdx, %rax	# D.21119, D.21119
	movq	(%rax), %rdx	# *_365, D.21120
	movq	img(%rip), %rax	# img, img.330
	movl	148(%rax), %ecx	# img.330_367->block_y, D.21114
	movl	-28(%rbp), %eax	# j, tmp607
	addl	%ecx, %eax	# D.21114, D.21114
	cltq
	addq	%rax, %rax	# D.21115
	addq	%rdx, %rax	# D.21120, D.21120
	movw	$-1, (%rax)	#, *_372
	.loc 1 1275 0
	movq	enc_picture(%rip), %rax	# enc_picture, enc_picture.331
	movq	6480(%rax), %rax	# enc_picture.331_373->ref_idx, D.21121
	addq	$8, %rax	#, D.21121
	movq	(%rax), %rdx	# *_375, D.21119
	movq	img(%rip), %rax	# img, img.332
	movl	144(%rax), %ecx	# img.332_377->block_x, D.21114
	movl	-32(%rbp), %eax	# i, tmp608
	addl	%ecx, %eax	# D.21114, D.21114
	cltq
	salq	$3, %rax	#, D.21115
	addq	%rdx, %rax	# D.21119, D.21119
	movq	(%rax), %rdx	# *_382, D.21120
	movq	img(%rip), %rax	# img, img.333
	movl	148(%rax), %ecx	# img.333_384->block_y, D.21114
	movl	-28(%rbp), %eax	# j, tmp609
	addl	%ecx, %eax	# D.21114, D.21114
	cltq
	addq	%rax, %rax	# D.21115
	addq	%rdx, %rax	# D.21120, D.21120
	movw	$-1, (%rax)	#, *_389
.L408:
	.loc 1 1265 0
	addl	$1, -32(%rbp)	#, i
.L406:
	.loc 1 1265 0 is_stmt 0 discriminator 1
	cmpl	$3, -32(%rbp)	#, i
	jle	.L409	#,
	.loc 1 1264 0 is_stmt 1
	addl	$1, -28(%rbp)	#, j
.L405:
	.loc 1 1264 0 is_stmt 0 discriminator 1
	cmpl	$3, -28(%rbp)	#, j
	jle	.L410	#,
	.loc 1 1262 0 is_stmt 1
	jmp	.L418	#
.L404:
	.loc 1 1282 0
	movl	$0, -28(%rbp)	#, j
	jmp	.L412	#
.L417:
	.loc 1 1283 0
	movl	$0, -32(%rbp)	#, i
	jmp	.L413	#
.L416:
	.loc 1 1285 0
	movq	enc_picture(%rip), %rax	# enc_picture, enc_picture.334
	movq	6480(%rax), %rax	# enc_picture.334_394->ref_idx, D.21121
	movq	(%rax), %rdx	# *_395, D.21119
	movq	img(%rip), %rax	# img, img.335
	movl	144(%rax), %ecx	# img.335_397->block_x, D.21114
	movl	-32(%rbp), %eax	# i, tmp610
	addl	%ecx, %eax	# D.21114, D.21114
	cltq
	salq	$3, %rax	#, D.21115
	addq	%rdx, %rax	# D.21119, D.21119
	movq	(%rax), %rdx	# *_402, D.21120
	movq	img(%rip), %rax	# img, img.336
	movl	148(%rax), %ecx	# img.336_404->block_y, D.21114
	movl	-28(%rbp), %eax	# j, tmp611
	addl	%ecx, %eax	# D.21114, D.21114
	cltq
	addq	%rax, %rax	# D.21115
	addq	%rax, %rdx	# D.21115, D.21120
	cmpl	$0, -36(%rbp)	#, mode
	jne	.L414	#,
	.loc 1 1285 0 is_stmt 0 discriminator 1
	movl	$0, %eax	#, iftmp.337
	jmp	.L415	#
.L414:
	.loc 1 1285 0 discriminator 2
	movl	$-1, %eax	#, iftmp.337
.L415:
	.loc 1 1285 0 discriminator 3
	movw	%ax, (%rdx)	# iftmp.337, *_409
	.loc 1 1283 0 is_stmt 1 discriminator 3
	addl	$1, -32(%rbp)	#, i
.L413:
	.loc 1 1283 0 is_stmt 0 discriminator 1
	cmpl	$3, -32(%rbp)	#, i
	jle	.L416	#,
	.loc 1 1282 0 is_stmt 1
	addl	$1, -28(%rbp)	#, j
.L412:
	.loc 1 1282 0 is_stmt 0 discriminator 1
	cmpl	$3, -28(%rbp)	#, j
	jle	.L417	#,
	.loc 1 1262 0 is_stmt 1
	jmp	.L418	#
.L403:
	.loc 1 1291 0
	cmpl	$0, -24(%rbp)	#, bframe
	je	.L419	#,
	.loc 1 1293 0
	movl	$0, -28(%rbp)	#, j
	jmp	.L420	#
.L438:
	.loc 1 1294 0
	movl	$0, -32(%rbp)	#, i
	jmp	.L421	#
.L437:
	.loc 1 1296 0
	movl	-28(%rbp), %eax	# j, tmp612
	movl	%eax, %edx	# tmp612, tmp613
	shrl	$31, %edx	#, tmp613
	addl	%edx, %eax	# tmp613, tmp614
	sarl	%eax	# tmp615
	leal	(%rax,%rax), %edx	#, D.21114
	movl	-32(%rbp), %eax	# i, tmp616
	movl	%eax, %ecx	# tmp616, tmp617
	shrl	$31, %ecx	#, tmp617
	addl	%ecx, %eax	# tmp617, tmp618
	sarl	%eax	# tmp619
	addl	%edx, %eax	# D.21114, tmp620
	movl	%eax, -16(%rbp)	# tmp620, k
	.loc 1 1297 0
	movl	-28(%rbp), %eax	# j, tmp621
	cltd
	shrl	$31, %edx	#, tmp623
	addl	%edx, %eax	# tmp623, tmp624
	andl	$1, %eax	#, tmp625
	subl	%edx, %eax	# tmp623, tmp626
	leal	(%rax,%rax), %ecx	#, D.21114
	movl	-32(%rbp), %eax	# i, tmp627
	cltd
	shrl	$31, %edx	#, tmp629
	addl	%edx, %eax	# tmp629, tmp630
	andl	$1, %eax	#, tmp631
	subl	%edx, %eax	# tmp629, tmp632
	addl	%ecx, %eax	# D.21114, tmp633
	movl	%eax, -12(%rbp)	# tmp633, l
	.loc 1 1299 0
	cmpl	$8, -36(%rbp)	#, mode
	jne	.L422	#,
	.loc 1 1299 0 is_stmt 0 discriminator 1
	movl	-16(%rbp), %eax	# k, tmp635
	cltq
	movzwl	best8x8mode(%rax,%rax), %eax	# best8x8mode, D.21118
	testw	%ax, %ax	# D.21118
	jne	.L422	#,
	.loc 1 1301 0 is_stmt 1
	movq	enc_picture(%rip), %rax	# enc_picture, enc_picture.338
	movq	6480(%rax), %rax	# enc_picture.338_105->ref_idx, D.21121
	movq	(%rax), %rdx	# *_106, D.21119
	movq	img(%rip), %rax	# img, img.339
	movl	144(%rax), %ecx	# img.339_108->block_x, D.21114
	movl	-32(%rbp), %eax	# i, tmp636
	addl	%ecx, %eax	# D.21114, D.21114
	cltq
	salq	$3, %rax	#, D.21115
	addq	%rdx, %rax	# D.21119, D.21119
	movq	(%rax), %rdx	# *_113, D.21120
	movq	img(%rip), %rax	# img, img.340
	movl	148(%rax), %ecx	# img.340_115->block_y, D.21114
	movl	-28(%rbp), %eax	# j, tmp637
	addl	%ecx, %eax	# D.21114, D.21114
	cltq
	addq	%rax, %rax	# D.21115
	addq	%rax, %rdx	# D.21115, D.21120
	movq	direct_ref_idx(%rip), %rax	# direct_ref_idx, direct_ref_idx.341
	movq	(%rax), %rcx	# *direct_ref_idx.341_121, D.21119
	movq	img(%rip), %rax	# img, img.342
	movl	144(%rax), %esi	# img.342_123->block_x, D.21114
	movl	-32(%rbp), %eax	# i, tmp638
	addl	%esi, %eax	# D.21114, D.21114
	cltq
	salq	$3, %rax	#, D.21115
	addq	%rcx, %rax	# D.21119, D.21119
	movq	(%rax), %rcx	# *_128, D.21120
	movq	img(%rip), %rax	# img, img.343
	movl	148(%rax), %esi	# img.343_130->block_y, D.21114
	movl	-28(%rbp), %eax	# j, tmp639
	addl	%esi, %eax	# D.21114, D.21114
	cltq
	addq	%rax, %rax	# D.21115
	addq	%rcx, %rax	# D.21120, D.21120
	movzwl	(%rax), %eax	# *_135, D.21118
	movw	%ax, (%rdx)	# D.21118, *_120
	.loc 1 1302 0
	movq	enc_picture(%rip), %rax	# enc_picture, enc_picture.344
	movq	6480(%rax), %rax	# enc_picture.344_137->ref_idx, D.21121
	addq	$8, %rax	#, D.21121
	movq	(%rax), %rdx	# *_139, D.21119
	movq	img(%rip), %rax	# img, img.345
	movl	144(%rax), %ecx	# img.345_141->block_x, D.21114
	movl	-32(%rbp), %eax	# i, tmp640
	addl	%ecx, %eax	# D.21114, D.21114
	cltq
	salq	$3, %rax	#, D.21115
	addq	%rdx, %rax	# D.21119, D.21119
	movq	(%rax), %rdx	# *_146, D.21120
	movq	img(%rip), %rax	# img, img.346
	movl	148(%rax), %ecx	# img.346_148->block_y, D.21114
	movl	-28(%rbp), %eax	# j, tmp641
	addl	%ecx, %eax	# D.21114, D.21114
	cltq
	addq	%rax, %rax	# D.21115
	addq	%rax, %rdx	# D.21115, D.21120
	movq	direct_ref_idx(%rip), %rax	# direct_ref_idx, direct_ref_idx.347
	addq	$8, %rax	#, D.21121
	movq	(%rax), %rcx	# *_155, D.21119
	movq	img(%rip), %rax	# img, img.348
	movl	144(%rax), %esi	# img.348_157->block_x, D.21114
	movl	-32(%rbp), %eax	# i, tmp642
	addl	%esi, %eax	# D.21114, D.21114
	cltq
	salq	$3, %rax	#, D.21115
	addq	%rcx, %rax	# D.21119, D.21119
	movq	(%rax), %rcx	# *_162, D.21120
	movq	img(%rip), %rax	# img, img.349
	movl	148(%rax), %esi	# img.349_164->block_y, D.21114
	movl	-28(%rbp), %eax	# j, tmp643
	addl	%esi, %eax	# D.21114, D.21114
	cltq
	addq	%rax, %rax	# D.21115
	addq	%rcx, %rax	# D.21120, D.21120
	movzwl	(%rax), %eax	# *_169, D.21118
	movw	%ax, (%rdx)	# D.21118, *_153
	jmp	.L423	#
.L422:
	.loc 1 1307 0
	cmpl	$1, -36(%rbp)	#, mode
	jne	.L424	#,
	.loc 1 1307 0 is_stmt 0 discriminator 1
	movq	-8(%rbp), %rax	# currMB, tmp644
	movl	580(%rax), %eax	# currMB_34->bi_pred_me, D.21114
	testl	%eax, %eax	# D.21114
	je	.L424	#,
	movl	-16(%rbp), %eax	# k, tmp646
	cltq
	movl	-36(%rbp), %edx	# mode, tmp648
	movslq	%edx, %rdx	# tmp648, tmp647
	salq	$2, %rdx	#, tmp649
	addq	%rdx, %rax	# tmp649, tmp650
	movzwl	best8x8pdir(%rax,%rax), %eax	# best8x8pdir, D.21118
	testw	%ax, %ax	# D.21118
	je	.L425	#,
	.loc 1 1307 0 discriminator 2
	movl	-16(%rbp), %eax	# k, tmp652
	cltq
	movl	-36(%rbp), %edx	# mode, tmp654
	movslq	%edx, %rdx	# tmp654, tmp653
	salq	$2, %rdx	#, tmp655
	addq	%rdx, %rax	# tmp655, tmp656
	movzwl	best8x8pdir(%rax,%rax), %eax	# best8x8pdir, D.21118
	cmpw	$2, %ax	#, D.21118
	jne	.L424	#,
.L425:
	.loc 1 1307 0 discriminator 1
	cmpl	$8, -36(%rbp)	#, mode
	jne	.L426	#,
	.loc 1 1307 0 discriminator 2
	movl	-16(%rbp), %eax	# k, tmp658
	cltq
	movzwl	best8x8mode(%rax,%rax), %eax	# best8x8mode, D.21118
	testw	%ax, %ax	# D.21118
	jne	.L426	#,
	.loc 1 1307 0 discriminator 1
	cmpl	$0, -24(%rbp)	#, bframe
	jne	.L424	#,
.L426:
	movl	-16(%rbp), %eax	# k, tmp660
	cltq
	movl	-36(%rbp), %edx	# mode, tmp662
	movslq	%edx, %rdx	# tmp662, tmp661
	salq	$2, %rdx	#, tmp663
	addq	%rdx, %rax	# tmp663, tmp664
	movzwl	best8x8pdir(%rax,%rax), %eax	# best8x8pdir, D.21118
	cmpw	$1, %ax	#, D.21118
	je	.L427	#,
	.loc 1 1307 0 discriminator 2
	movl	-16(%rbp), %eax	# k, tmp666
	cltq
	movl	-36(%rbp), %edx	# mode, tmp668
	movslq	%edx, %rdx	# tmp668, tmp667
	salq	$2, %rdx	#, tmp669
	addq	%rdx, %rax	# tmp669, tmp670
	movzwl	best8x8pdir(%rax,%rax), %eax	# best8x8pdir, D.21118
	cmpw	$2, %ax	#, D.21118
	jne	.L424	#,
.L427:
	.loc 1 1307 0 discriminator 1
	cmpl	$8, -36(%rbp)	#, mode
	jne	.L428	#,
	movl	-16(%rbp), %eax	# k, tmp672
	cltq
	movzwl	best8x8mode(%rax,%rax), %eax	# best8x8mode, D.21118
	testw	%ax, %ax	# D.21118
	je	.L424	#,
.L428:
	.loc 1 1309 0 is_stmt 1
	movq	enc_picture(%rip), %rax	# enc_picture, enc_picture.350
	movq	6480(%rax), %rax	# enc_picture.350_178->ref_idx, D.21121
	movq	(%rax), %rdx	# *_179, D.21119
	movq	img(%rip), %rax	# img, img.351
	movl	144(%rax), %ecx	# img.351_181->block_x, D.21114
	movl	-32(%rbp), %eax	# i, tmp673
	addl	%ecx, %eax	# D.21114, D.21114
	cltq
	salq	$3, %rax	#, D.21115
	addq	%rdx, %rax	# D.21119, D.21119
	movq	(%rax), %rdx	# *_186, D.21120
	movq	img(%rip), %rax	# img, img.352
	movl	148(%rax), %ecx	# img.352_188->block_y, D.21114
	movl	-28(%rbp), %eax	# j, tmp674
	addl	%ecx, %eax	# D.21114, D.21114
	cltq
	addq	%rax, %rax	# D.21115
	addq	%rdx, %rax	# D.21120, D.21120
	movw	$0, (%rax)	#, *_193
	.loc 1 1310 0
	movq	enc_picture(%rip), %rax	# enc_picture, enc_picture.353
	movq	6480(%rax), %rax	# enc_picture.353_194->ref_idx, D.21121
	addq	$8, %rax	#, D.21121
	movq	(%rax), %rdx	# *_196, D.21119
	movq	img(%rip), %rax	# img, img.354
	movl	144(%rax), %ecx	# img.354_198->block_x, D.21114
	movl	-32(%rbp), %eax	# i, tmp675
	addl	%ecx, %eax	# D.21114, D.21114
	cltq
	salq	$3, %rax	#, D.21115
	addq	%rdx, %rax	# D.21119, D.21119
	movq	(%rax), %rdx	# *_203, D.21120
	movq	img(%rip), %rax	# img, img.355
	movl	148(%rax), %ecx	# img.355_205->block_y, D.21114
	movl	-28(%rbp), %eax	# j, tmp676
	addl	%ecx, %eax	# D.21114, D.21114
	cltq
	addq	%rax, %rax	# D.21115
	addq	%rdx, %rax	# D.21120, D.21120
	movw	$0, (%rax)	#, *_210
	jmp	.L423	#
.L424:
	.loc 1 1315 0
	movq	enc_picture(%rip), %rax	# enc_picture, enc_picture.356
	movq	6480(%rax), %rax	# enc_picture.356_211->ref_idx, D.21121
	movq	(%rax), %rdx	# *_212, D.21119
	movq	img(%rip), %rax	# img, img.357
	movl	144(%rax), %ecx	# img.357_214->block_x, D.21114
	movl	-32(%rbp), %eax	# i, tmp677
	addl	%ecx, %eax	# D.21114, D.21114
	cltq
	salq	$3, %rax	#, D.21115
	addq	%rdx, %rax	# D.21119, D.21119
	movq	(%rax), %rdx	# *_219, D.21120
	movq	img(%rip), %rax	# img, img.358
	movl	148(%rax), %ecx	# img.358_221->block_y, D.21114
	movl	-28(%rbp), %eax	# j, tmp678
	addl	%ecx, %eax	# D.21114, D.21114
	cltq
	addq	%rax, %rax	# D.21115
	addq	%rax, %rdx	# D.21115, D.21120
	movl	-16(%rbp), %eax	# k, tmp680
	cltq
	movl	-36(%rbp), %ecx	# mode, tmp682
	movslq	%ecx, %rcx	# tmp682, tmp681
	salq	$2, %rcx	#, tmp683
	addq	%rcx, %rax	# tmp683, tmp684
	movzwl	best8x8pdir(%rax,%rax), %eax	# best8x8pdir, D.21118
	testw	%ax, %ax	# D.21118
	je	.L429	#,
	.loc 1 1315 0 is_stmt 0 discriminator 2
	movl	-16(%rbp), %eax	# k, tmp686
	cltq
	movl	-36(%rbp), %ecx	# mode, tmp688
	movslq	%ecx, %rcx	# tmp688, tmp687
	salq	$2, %rcx	#, tmp689
	addq	%rcx, %rax	# tmp689, tmp690
	movzwl	best8x8pdir(%rax,%rax), %eax	# best8x8pdir, D.21118
	cmpw	$2, %ax	#, D.21118
	jne	.L430	#,
.L429:
	.loc 1 1315 0 discriminator 1
	cmpl	$8, -36(%rbp)	#, mode
	jne	.L431	#,
	.loc 1 1315 0 discriminator 2
	movl	-16(%rbp), %eax	# k, tmp692
	cltq
	movzwl	best8x8mode(%rax,%rax), %eax	# best8x8mode, D.21118
	testw	%ax, %ax	# D.21118
	jne	.L431	#,
	.loc 1 1315 0 discriminator 1
	cmpl	$0, -24(%rbp)	#, bframe
	jne	.L430	#,
.L431:
	movl	-16(%rbp), %eax	# k, tmp694
	cltq
	movl	-36(%rbp), %ecx	# mode, tmp696
	movslq	%ecx, %rcx	# tmp696, tmp695
	salq	$2, %rcx	#, tmp697
	addq	%rcx, %rax	# tmp697, tmp698
	movzwl	best8x8fwref(%rax,%rax), %eax	# best8x8fwref, iftmp.359
	jmp	.L432	#
.L430:
	movl	$-1, %eax	#, iftmp.359
.L432:
	.loc 1 1315 0 discriminator 3
	movw	%ax, (%rdx)	# iftmp.359, *_226
	.loc 1 1316 0 is_stmt 1 discriminator 3
	movq	enc_picture(%rip), %rax	# enc_picture, enc_picture.360
	movq	6480(%rax), %rax	# enc_picture.360_232->ref_idx, D.21121
	addq	$8, %rax	#, D.21121
	movq	(%rax), %rdx	# *_234, D.21119
	movq	img(%rip), %rax	# img, img.361
	movl	144(%rax), %ecx	# img.361_236->block_x, D.21114
	movl	-32(%rbp), %eax	# i, tmp699
	addl	%ecx, %eax	# D.21114, D.21114
	cltq
	salq	$3, %rax	#, D.21115
	addq	%rdx, %rax	# D.21119, D.21119
	movq	(%rax), %rdx	# *_241, D.21120
	movq	img(%rip), %rax	# img, img.362
	movl	148(%rax), %ecx	# img.362_243->block_y, D.21114
	movl	-28(%rbp), %eax	# j, tmp700
	addl	%ecx, %eax	# D.21114, D.21114
	cltq
	addq	%rax, %rax	# D.21115
	addq	%rax, %rdx	# D.21115, D.21120
	movl	-16(%rbp), %eax	# k, tmp702
	cltq
	movl	-36(%rbp), %ecx	# mode, tmp704
	movslq	%ecx, %rcx	# tmp704, tmp703
	salq	$2, %rcx	#, tmp705
	addq	%rcx, %rax	# tmp705, tmp706
	movzwl	best8x8pdir(%rax,%rax), %eax	# best8x8pdir, D.21118
	cmpw	$1, %ax	#, D.21118
	je	.L433	#,
	.loc 1 1316 0 is_stmt 0 discriminator 2
	movl	-16(%rbp), %eax	# k, tmp708
	cltq
	movl	-36(%rbp), %ecx	# mode, tmp710
	movslq	%ecx, %rcx	# tmp710, tmp709
	salq	$2, %rcx	#, tmp711
	addq	%rcx, %rax	# tmp711, tmp712
	movzwl	best8x8pdir(%rax,%rax), %eax	# best8x8pdir, D.21118
	cmpw	$2, %ax	#, D.21118
	jne	.L434	#,
.L433:
	.loc 1 1316 0 discriminator 1
	cmpl	$8, -36(%rbp)	#, mode
	jne	.L435	#,
	.loc 1 1316 0 discriminator 2
	movl	-16(%rbp), %eax	# k, tmp714
	cltq
	movzwl	best8x8mode(%rax,%rax), %eax	# best8x8mode, D.21118
	testw	%ax, %ax	# D.21118
	je	.L434	#,
.L435:
	.loc 1 1316 0 discriminator 1
	movl	-16(%rbp), %eax	# k, tmp716
	cltq
	movl	-36(%rbp), %ecx	# mode, tmp718
	movslq	%ecx, %rcx	# tmp718, tmp717
	salq	$2, %rcx	#, tmp719
	addq	%rcx, %rax	# tmp719, tmp720
	movzwl	best8x8bwref(%rax,%rax), %eax	# best8x8bwref, iftmp.363
	jmp	.L436	#
.L434:
	movl	$-1, %eax	#, iftmp.363
.L436:
	.loc 1 1316 0 discriminator 3
	movw	%ax, (%rdx)	# iftmp.363, *_248
.L423:
	.loc 1 1294 0 is_stmt 1
	addl	$1, -32(%rbp)	#, i
.L421:
	.loc 1 1294 0 is_stmt 0 discriminator 1
	cmpl	$3, -32(%rbp)	#, i
	jle	.L437	#,
	.loc 1 1293 0 is_stmt 1
	addl	$1, -28(%rbp)	#, j
.L420:
	.loc 1 1293 0 is_stmt 0 discriminator 1
	cmpl	$3, -28(%rbp)	#, j
	jle	.L438	#,
	jmp	.L418	#
.L419:
	.loc 1 1323 0 is_stmt 1
	movl	$0, -28(%rbp)	#, j
	jmp	.L439	#
.L446:
	.loc 1 1324 0
	movl	$0, -32(%rbp)	#, i
	jmp	.L440	#
.L445:
	.loc 1 1326 0
	movl	-28(%rbp), %eax	# j, tmp721
	movl	%eax, %edx	# tmp721, tmp722
	shrl	$31, %edx	#, tmp722
	addl	%edx, %eax	# tmp722, tmp723
	sarl	%eax	# tmp724
	leal	(%rax,%rax), %edx	#, D.21114
	movl	-32(%rbp), %eax	# i, tmp725
	movl	%eax, %ecx	# tmp725, tmp726
	shrl	$31, %ecx	#, tmp726
	addl	%ecx, %eax	# tmp726, tmp727
	sarl	%eax	# tmp728
	addl	%edx, %eax	# D.21114, tmp729
	movl	%eax, -16(%rbp)	# tmp729, k
	.loc 1 1327 0
	movl	-28(%rbp), %eax	# j, tmp730
	cltd
	shrl	$31, %edx	#, tmp732
	addl	%edx, %eax	# tmp732, tmp733
	andl	$1, %eax	#, tmp734
	subl	%edx, %eax	# tmp732, tmp735
	leal	(%rax,%rax), %ecx	#, D.21114
	movl	-32(%rbp), %eax	# i, tmp736
	cltd
	shrl	$31, %edx	#, tmp738
	addl	%edx, %eax	# tmp738, tmp739
	andl	$1, %eax	#, tmp740
	subl	%edx, %eax	# tmp738, tmp741
	addl	%ecx, %eax	# D.21114, tmp742
	movl	%eax, -12(%rbp)	# tmp742, l
	.loc 1 1328 0
	movq	enc_picture(%rip), %rax	# enc_picture, enc_picture.364
	movq	6480(%rax), %rax	# enc_picture.364_266->ref_idx, D.21121
	movq	(%rax), %rdx	# *_267, D.21119
	movq	img(%rip), %rax	# img, img.365
	movl	144(%rax), %ecx	# img.365_269->block_x, D.21114
	movl	-32(%rbp), %eax	# i, tmp743
	addl	%ecx, %eax	# D.21114, D.21114
	cltq
	salq	$3, %rax	#, D.21115
	addq	%rdx, %rax	# D.21119, D.21119
	movq	(%rax), %rdx	# *_274, D.21120
	movq	img(%rip), %rax	# img, img.366
	movl	148(%rax), %ecx	# img.366_276->block_y, D.21114
	movl	-28(%rbp), %eax	# j, tmp744
	addl	%ecx, %eax	# D.21114, D.21114
	cltq
	addq	%rax, %rax	# D.21115
	addq	%rax, %rdx	# D.21115, D.21120
	movl	-16(%rbp), %eax	# k, tmp746
	cltq
	movl	-36(%rbp), %ecx	# mode, tmp748
	movslq	%ecx, %rcx	# tmp748, tmp747
	salq	$2, %rcx	#, tmp749
	addq	%rcx, %rax	# tmp749, tmp750
	movzwl	best8x8pdir(%rax,%rax), %eax	# best8x8pdir, D.21118
	testw	%ax, %ax	# D.21118
	je	.L441	#,
	.loc 1 1328 0 is_stmt 0 discriminator 2
	movl	-16(%rbp), %eax	# k, tmp752
	cltq
	movl	-36(%rbp), %ecx	# mode, tmp754
	movslq	%ecx, %rcx	# tmp754, tmp753
	salq	$2, %rcx	#, tmp755
	addq	%rcx, %rax	# tmp755, tmp756
	movzwl	best8x8pdir(%rax,%rax), %eax	# best8x8pdir, D.21118
	cmpw	$2, %ax	#, D.21118
	jne	.L442	#,
.L441:
	.loc 1 1328 0 discriminator 1
	cmpl	$8, -36(%rbp)	#, mode
	jne	.L443	#,
	.loc 1 1328 0 discriminator 2
	movl	-16(%rbp), %eax	# k, tmp758
	cltq
	movzwl	best8x8mode(%rax,%rax), %eax	# best8x8mode, D.21118
	testw	%ax, %ax	# D.21118
	jne	.L443	#,
	.loc 1 1328 0 discriminator 1
	cmpl	$0, -24(%rbp)	#, bframe
	jne	.L442	#,
.L443:
	movl	-16(%rbp), %eax	# k, tmp760
	cltq
	movl	-36(%rbp), %ecx	# mode, tmp762
	movslq	%ecx, %rcx	# tmp762, tmp761
	salq	$2, %rcx	#, tmp763
	addq	%rcx, %rax	# tmp763, tmp764
	movzwl	best8x8fwref(%rax,%rax), %eax	# best8x8fwref, iftmp.367
	jmp	.L444	#
.L442:
	movl	$-1, %eax	#, iftmp.367
.L444:
	.loc 1 1328 0 discriminator 3
	movw	%ax, (%rdx)	# iftmp.367, *_281
	.loc 1 1324 0 is_stmt 1 discriminator 3
	addl	$1, -32(%rbp)	#, i
.L440:
	.loc 1 1324 0 is_stmt 0 discriminator 1
	cmpl	$3, -32(%rbp)	#, i
	jle	.L445	#,
	.loc 1 1323 0 is_stmt 1
	addl	$1, -28(%rbp)	#, j
.L439:
	.loc 1 1323 0 is_stmt 0 discriminator 1
	cmpl	$3, -28(%rbp)	#, j
	jle	.L446	#,
.L418:
	.loc 1 1333 0 is_stmt 1
	movl	$0, -28(%rbp)	#, j
	jmp	.L447	#
.L452:
	.loc 1 1335 0
	movl	$0, -32(%rbp)	#, i
	jmp	.L448	#
.L451:
	.loc 1 1337 0
	movq	enc_picture(%rip), %rax	# enc_picture, enc_picture.368
	movq	6488(%rax), %rax	# enc_picture.368_416->ref_pic_id, D.21122
	movq	(%rax), %rdx	# *_417, D.21123
	movq	img(%rip), %rax	# img, img.369
	movl	144(%rax), %ecx	# img.369_419->block_x, D.21114
	movl	-32(%rbp), %eax	# i, tmp765
	addl	%ecx, %eax	# D.21114, D.21114
	cltq
	salq	$3, %rax	#, D.21115
	addq	%rdx, %rax	# D.21123, D.21123
	movq	(%rax), %rdx	# *_424, D.21124
	movq	img(%rip), %rax	# img, img.370
	movl	148(%rax), %ecx	# img.370_426->block_y, D.21114
	movl	-28(%rbp), %eax	# j, tmp766
	addl	%ecx, %eax	# D.21114, D.21114
	cltq
	salq	$3, %rax	#, D.21115
	leaq	(%rdx,%rax), %rsi	#, D.21124
	.loc 1 1338 0
	movq	enc_picture(%rip), %rax	# enc_picture, enc_picture.372
	movq	6480(%rax), %rax	# enc_picture.372_432->ref_idx, D.21121
	movq	(%rax), %rdx	# *_433, D.21119
	movq	img(%rip), %rax	# img, img.373
	movl	144(%rax), %ecx	# img.373_435->block_x, D.21114
	movl	-32(%rbp), %eax	# i, tmp767
	addl	%ecx, %eax	# D.21114, D.21114
	cltq
	salq	$3, %rax	#, D.21115
	addq	%rdx, %rax	# D.21119, D.21119
	movq	(%rax), %rdx	# *_440, D.21120
	movq	img(%rip), %rax	# img, img.374
	movl	148(%rax), %ecx	# img.374_442->block_y, D.21114
	movl	-28(%rbp), %eax	# j, tmp768
	addl	%ecx, %eax	# D.21114, D.21114
	cltq
	addq	%rax, %rax	# D.21115
	addq	%rdx, %rax	# D.21120, D.21120
	movzwl	(%rax), %eax	# *_447, D.21118
	.loc 1 1339 0
	testw	%ax, %ax	# D.21118
	js	.L449	#,
	.loc 1 1339 0 is_stmt 0 discriminator 1
	movq	enc_picture(%rip), %rcx	# enc_picture, enc_picture.375
	movq	enc_picture(%rip), %rax	# enc_picture, enc_picture.376
	movq	6480(%rax), %rax	# enc_picture.376_450->ref_idx, D.21121
	movq	(%rax), %rdx	# *_451, D.21119
	movq	img(%rip), %rax	# img, img.377
	movl	144(%rax), %edi	# img.377_453->block_x, D.21114
	movl	-32(%rbp), %eax	# i, tmp769
	addl	%edi, %eax	# D.21114, D.21114
	cltq
	salq	$3, %rax	#, D.21115
	addq	%rdx, %rax	# D.21119, D.21119
	movq	(%rax), %rdx	# *_458, D.21120
	movq	img(%rip), %rax	# img, img.378
	movl	148(%rax), %edi	# img.378_460->block_y, D.21114
	movl	-28(%rbp), %eax	# j, tmp770
	addl	%edi, %eax	# D.21114, D.21114
	cltq
	addq	%rax, %rax	# D.21115
	addq	%rdx, %rax	# D.21120, D.21120
	movzwl	(%rax), %eax	# *_465, D.21118
	cwtl
	movslq	%eax, %rdi	# D.21114, tmp771
	movl	-20(%rbp), %eax	# list_offset, tmp773
	movslq	%eax, %rdx	# tmp773, tmp772
	movq	%rdx, %rax	# tmp772, tmp774
	salq	$5, %rax	#, tmp775
	addq	%rdx, %rax	# tmp772, tmp774
	addq	%rdi, %rax	# tmp771, tmp776
	addq	$2, %rax	#, tmp777
	movq	8(%rcx,%rax,8), %rax	# enc_picture.375_449->ref_pic_num, iftmp.371
	jmp	.L450	#
.L449:
	.loc 1 1339 0 discriminator 2
	movq	$-1, %rax	#, iftmp.371
.L450:
	.loc 1 1337 0 is_stmt 1
	movq	%rax, (%rsi)	# iftmp.371, *_431
	.loc 1 1335 0
	addl	$1, -32(%rbp)	#, i
.L448:
	.loc 1 1335 0 is_stmt 0 discriminator 1
	cmpl	$3, -32(%rbp)	#, i
	jle	.L451	#,
	.loc 1 1333 0 is_stmt 1
	addl	$1, -28(%rbp)	#, j
.L447:
	.loc 1 1333 0 is_stmt 0 discriminator 1
	cmpl	$3, -28(%rbp)	#, j
	jle	.L452	#,
	.loc 1 1343 0 is_stmt 1
	cmpl	$0, -24(%rbp)	#, bframe
	je	.L372	#,
	.loc 1 1345 0
	movl	$0, -28(%rbp)	#, j
	jmp	.L454	#
.L459:
	.loc 1 1347 0
	movl	$0, -32(%rbp)	#, i
	jmp	.L455	#
.L458:
	.loc 1 1349 0
	movq	enc_picture(%rip), %rax	# enc_picture, enc_picture.379
	movq	6488(%rax), %rax	# enc_picture.379_474->ref_pic_id, D.21122
	addq	$8, %rax	#, D.21122
	movq	(%rax), %rdx	# *_476, D.21123
	movq	img(%rip), %rax	# img, img.380
	movl	144(%rax), %ecx	# img.380_478->block_x, D.21114
	movl	-32(%rbp), %eax	# i, tmp778
	addl	%ecx, %eax	# D.21114, D.21114
	cltq
	salq	$3, %rax	#, D.21115
	addq	%rdx, %rax	# D.21123, D.21123
	movq	(%rax), %rdx	# *_483, D.21124
	movq	img(%rip), %rax	# img, img.381
	movl	148(%rax), %ecx	# img.381_485->block_y, D.21114
	movl	-28(%rbp), %eax	# j, tmp779
	addl	%ecx, %eax	# D.21114, D.21114
	cltq
	salq	$3, %rax	#, D.21115
	leaq	(%rdx,%rax), %rsi	#, D.21124
	.loc 1 1350 0
	movq	enc_picture(%rip), %rax	# enc_picture, enc_picture.383
	movq	6480(%rax), %rax	# enc_picture.383_491->ref_idx, D.21121
	addq	$8, %rax	#, D.21121
	movq	(%rax), %rdx	# *_493, D.21119
	movq	img(%rip), %rax	# img, img.384
	movl	144(%rax), %ecx	# img.384_495->block_x, D.21114
	movl	-32(%rbp), %eax	# i, tmp780
	addl	%ecx, %eax	# D.21114, D.21114
	cltq
	salq	$3, %rax	#, D.21115
	addq	%rdx, %rax	# D.21119, D.21119
	movq	(%rax), %rdx	# *_500, D.21120
	movq	img(%rip), %rax	# img, img.385
	movl	148(%rax), %ecx	# img.385_502->block_y, D.21114
	movl	-28(%rbp), %eax	# j, tmp781
	addl	%ecx, %eax	# D.21114, D.21114
	cltq
	addq	%rax, %rax	# D.21115
	addq	%rdx, %rax	# D.21120, D.21120
	movzwl	(%rax), %eax	# *_507, D.21118
	.loc 1 1351 0
	testw	%ax, %ax	# D.21118
	js	.L456	#,
	.loc 1 1351 0 is_stmt 0 discriminator 1
	movq	enc_picture(%rip), %rcx	# enc_picture, enc_picture.386
	movl	-20(%rbp), %eax	# list_offset, tmp782
	leal	1(%rax), %r8d	#, D.21114
	movq	enc_picture(%rip), %rax	# enc_picture, enc_picture.387
	movq	6480(%rax), %rax	# enc_picture.387_511->ref_idx, D.21121
	addq	$8, %rax	#, D.21121
	movq	(%rax), %rdx	# *_513, D.21119
	movq	img(%rip), %rax	# img, img.388
	movl	144(%rax), %edi	# img.388_515->block_x, D.21114
	movl	-32(%rbp), %eax	# i, tmp783
	addl	%edi, %eax	# D.21114, D.21114
	cltq
	salq	$3, %rax	#, D.21115
	addq	%rdx, %rax	# D.21119, D.21119
	movq	(%rax), %rdx	# *_520, D.21120
	movq	img(%rip), %rax	# img, img.389
	movl	148(%rax), %edi	# img.389_522->block_y, D.21114
	movl	-28(%rbp), %eax	# j, tmp784
	addl	%edi, %eax	# D.21114, D.21114
	cltq
	addq	%rax, %rax	# D.21115
	addq	%rdx, %rax	# D.21120, D.21120
	movzwl	(%rax), %eax	# *_527, D.21118
	cwtl
	movslq	%eax, %rdi	# D.21114, tmp785
	movslq	%r8d, %rdx	# D.21114, tmp786
	movq	%rdx, %rax	# tmp786, tmp787
	salq	$5, %rax	#, tmp788
	addq	%rdx, %rax	# tmp786, tmp787
	addq	%rdi, %rax	# tmp785, tmp789
	addq	$2, %rax	#, tmp790
	movq	8(%rcx,%rax,8), %rax	# enc_picture.386_509->ref_pic_num, iftmp.382
	jmp	.L457	#
.L456:
	.loc 1 1351 0 discriminator 2
	movq	$-1, %rax	#, iftmp.382
.L457:
	.loc 1 1349 0 is_stmt 1
	movq	%rax, (%rsi)	# iftmp.382, *_490
	.loc 1 1347 0
	addl	$1, -32(%rbp)	#, i
.L455:
	.loc 1 1347 0 is_stmt 0 discriminator 1
	cmpl	$3, -32(%rbp)	#, i
	jle	.L458	#,
	.loc 1 1345 0 is_stmt 1
	addl	$1, -28(%rbp)	#, j
.L454:
	.loc 1 1345 0 is_stmt 0 discriminator 1
	cmpl	$3, -28(%rbp)	#, j
	jle	.L459	#,
.L372:
	.loc 1 1361 0 is_stmt 1
	leave
	.cfi_def_cfa 7, 8
	ret
	.cfi_endproc
.LFE13:
	.size	SetModesAndRefframeForBlocks, .-SetModesAndRefframeForBlocks
	.globl	Intra16x16_Mode_Decision
	.type	Intra16x16_Mode_Decision, @function
Intra16x16_Mode_Decision:
.LFB14:
	.loc 1 1372 0
	.cfi_startproc
	pushq	%rbp	#
	.cfi_def_cfa_offset 16
	.cfi_offset 6, -16
	movq	%rsp, %rbp	#,
	.cfi_def_cfa_register 6
	subq	$80, %rsp	#,
	movq	%rdi, -72(%rbp)	# currMB, currMB
	movq	%rsi, -80(%rbp)	# i16mode, i16mode
	.loc 1 1375 0
	movq	img(%rip), %rax	# img, img.390
	movq	14168(%rax), %rdx	# img.390_11->mb_data, D.21126
	movq	img(%rip), %rax	# img, img.391
	movl	12(%rax), %eax	# img.391_13->current_mb_nr, D.21127
	cltq
	imulq	$632, %rax, %rax	#, D.21128, D.21128
	addq	%rdx, %rax	# D.21126, D.21126
	movl	524(%rax), %eax	# _17->c_ipred_mode, tmp215
	movl	%eax, -48(%rbp)	# tmp215, c_ipmode
	.loc 1 1377 0
	movq	img(%rip), %rax	# img, img.392
	movl	152(%rax), %eax	# img.392_19->pix_x, tmp216
	movl	%eax, -44(%rbp)	# tmp216, pic_pix_x
	.loc 1 1378 0
	movq	img(%rip), %rax	# img, img.393
	movl	156(%rax), %eax	# img.393_21->pix_y, tmp217
	movl	%eax, -40(%rbp)	# tmp217, pic_pix_y
	.loc 1 1379 0
	movq	imgY_org(%rip), %rax	# imgY_org, tmp218
	movq	%rax, -16(%rbp)	# tmp218, imgY_orig
	.loc 1 1380 0
	movq	imgUV_org(%rip), %rax	# imgUV_org, tmp219
	movq	%rax, -8(%rbp)	# tmp219, imgUV_orig
	.loc 1 1383 0
	movl	$0, %eax	#,
	call	intrapred_luma_16x16	#
	.loc 1 1385 0
	movq	img(%rip), %rax	# img, img.394
	movl	72724(%rax), %eax	# img.394_25->residue_transform_flag, D.21127
	testl	%eax, %eax	# D.21127
	jne	.L461	#,
	.loc 1 1386 0
	movq	-80(%rbp), %rax	# i16mode, tmp220
	movq	%rax, %rdi	# tmp220,
	call	find_sad_16x16	#
.L461:
	.loc 1 1389 0
	movq	img(%rip), %rax	# img, img.395
	movl	72724(%rax), %eax	# img.395_28->residue_transform_flag, D.21127
	testl	%eax, %eax	# D.21127
	je	.L462	#,
	.loc 1 1391 0
	movl	$0, -52(%rbp)	#, j
	jmp	.L463	#
.L466:
	.loc 1 1392 0
	movl	$0, -56(%rbp)	#, i
	jmp	.L464	#
.L465:
	.loc 1 1394 0 discriminator 2
	movq	-8(%rbp), %rax	# imgUV_orig, tmp221
	movq	(%rax), %rax	# *imgUV_orig_24, D.21129
	movl	-52(%rbp), %edx	# j, tmp222
	movl	-40(%rbp), %ecx	# pic_pix_y, tmp223
	addl	%ecx, %edx	# tmp223, D.21127
	movslq	%edx, %rdx	# D.21127, D.21128
	salq	$3, %rdx	#, D.21128
	addq	%rdx, %rax	# D.21128, D.21129
	movq	(%rax), %rax	# *_36, D.21130
	movl	-56(%rbp), %edx	# i, tmp224
	movl	-44(%rbp), %ecx	# pic_pix_x, tmp225
	addl	%ecx, %edx	# tmp225, D.21127
	movslq	%edx, %rdx	# D.21127, D.21128
	addq	%rdx, %rdx	# D.21128
	addq	%rdx, %rax	# D.21128, D.21130
	movzwl	(%rax), %eax	# *_41, D.21131
	movzwl	%ax, %edx	# D.21131, D.21127
	movq	img(%rip), %rax	# img, img.396
	movl	-52(%rbp), %ecx	# j, tmp227
	movslq	%ecx, %rcx	# tmp227, tmp226
	movl	-48(%rbp), %esi	# c_ipmode, tmp229
	movslq	%esi, %rdi	# tmp229, tmp228
	movl	-56(%rbp), %esi	# i, tmp231
	movslq	%esi, %rsi	# tmp231, tmp230
	salq	$4, %rdi	#, tmp232
	addq	%rdi, %rsi	# tmp232, tmp233
	salq	$4, %rsi	#, tmp234
	addq	%rsi, %rcx	# tmp234, tmp235
	addq	$4248, %rcx	#, tmp236
	movzwl	8(%rax,%rcx,2), %eax	# img.396_44->mprr_c, D.21131
	movzwl	%ax, %eax	# D.21131, D.21127
	subl	%eax, %edx	# D.21127, tmp237
	movl	%edx, %eax	# tmp237, tmp237
	movl	%eax, -36(%rbp)	# tmp237, residue_B
	.loc 1 1395 0 discriminator 2
	movl	-52(%rbp), %eax	# j, tmp238
	movl	-40(%rbp), %edx	# pic_pix_y, tmp239
	addl	%edx, %eax	# tmp239, D.21127
	cltq
	leaq	0(,%rax,8), %rdx	#, D.21128
	movq	-16(%rbp), %rax	# imgY_orig, tmp240
	addq	%rdx, %rax	# D.21128, D.21129
	movq	(%rax), %rax	# *_51, D.21130
	movl	-56(%rbp), %edx	# i, tmp241
	movl	-44(%rbp), %ecx	# pic_pix_x, tmp242
	addl	%ecx, %edx	# tmp242, D.21127
	movslq	%edx, %rdx	# D.21127, D.21128
	addq	%rdx, %rdx	# D.21128
	addq	%rdx, %rax	# D.21128, D.21130
	movzwl	(%rax), %eax	# *_56, D.21131
	movzwl	%ax, %ecx	# D.21131, D.21127
	movq	img(%rip), %rax	# img, img.397
	movq	-80(%rbp), %rdx	# i16mode, tmp243
	movl	(%rdx), %esi	# *i16mode_27(D), D.21127
	movl	-56(%rbp), %edx	# i, tmp245
	movslq	%edx, %rdx	# tmp245, tmp244
	movslq	%esi, %rdi	# D.21127, tmp246
	movl	-52(%rbp), %esi	# j, tmp248
	movslq	%esi, %rsi	# tmp248, tmp247
	salq	$4, %rdi	#, tmp249
	addq	%rdi, %rsi	# tmp249, tmp250
	salq	$4, %rsi	#, tmp251
	addq	%rsi, %rdx	# tmp251, tmp252
	addq	$2392, %rdx	#, tmp253
	movzwl	8(%rax,%rdx,2), %eax	# img.397_59->mprr_2, D.21131
	movzwl	%ax, %eax	# D.21131, D.21127
	subl	%eax, %ecx	# D.21127, tmp254
	movl	%ecx, %eax	# tmp254, tmp254
	movl	%eax, -32(%rbp)	# tmp254, residue_G
	.loc 1 1396 0 discriminator 2
	movq	-8(%rbp), %rax	# imgUV_orig, tmp255
	addq	$8, %rax	#, D.21132
	movq	(%rax), %rax	# *_64, D.21129
	movl	-52(%rbp), %edx	# j, tmp256
	movl	-40(%rbp), %ecx	# pic_pix_y, tmp257
	addl	%ecx, %edx	# tmp257, D.21127
	movslq	%edx, %rdx	# D.21127, D.21128
	salq	$3, %rdx	#, D.21128
	addq	%rdx, %rax	# D.21128, D.21129
	movq	(%rax), %rax	# *_69, D.21130
	movl	-56(%rbp), %edx	# i, tmp258
	movl	-44(%rbp), %ecx	# pic_pix_x, tmp259
	addl	%ecx, %edx	# tmp259, D.21127
	movslq	%edx, %rdx	# D.21127, D.21128
	addq	%rdx, %rdx	# D.21128
	addq	%rdx, %rax	# D.21128, D.21130
	movzwl	(%rax), %eax	# *_74, D.21131
	movzwl	%ax, %edx	# D.21131, D.21127
	movq	img(%rip), %rax	# img, img.398
	movl	-52(%rbp), %ecx	# j, tmp261
	movslq	%ecx, %rcx	# tmp261, tmp260
	movl	-48(%rbp), %esi	# c_ipmode, tmp263
	movslq	%esi, %rdi	# tmp263, tmp262
	movl	-56(%rbp), %esi	# i, tmp265
	movslq	%esi, %rsi	# tmp265, tmp264
	salq	$4, %rdi	#, tmp266
	addq	%rdi, %rsi	# tmp266, tmp267
	salq	$4, %rsi	#, tmp268
	addq	%rsi, %rcx	# tmp268, tmp269
	addq	$5272, %rcx	#, tmp270
	movzwl	8(%rax,%rcx,2), %eax	# img.398_77->mprr_c, D.21131
	movzwl	%ax, %eax	# D.21131, D.21127
	subl	%eax, %edx	# D.21127, tmp271
	movl	%edx, %eax	# tmp271, tmp271
	movl	%eax, -28(%rbp)	# tmp271, residue_R
	.loc 1 1399 0 discriminator 2
	movl	-36(%rbp), %eax	# residue_B, tmp272
	movl	-28(%rbp), %edx	# residue_R, tmp273
	subl	%eax, %edx	# tmp272, D.21127
	movl	-52(%rbp), %eax	# j, tmp275
	cltq
	movl	-56(%rbp), %ecx	# i, tmp277
	movslq	%ecx, %rcx	# tmp277, tmp276
	salq	$4, %rcx	#, tmp278
	addq	%rcx, %rax	# tmp278, tmp279
	movl	%edx, resTrans_R(,%rax,4)	# D.21127, resTrans_R
	.loc 1 1400 0 discriminator 2
	movl	-52(%rbp), %eax	# j, tmp281
	cltq
	movl	-56(%rbp), %edx	# i, tmp283
	movslq	%edx, %rdx	# tmp283, tmp282
	salq	$4, %rdx	#, tmp284
	addq	%rdx, %rax	# tmp284, tmp285
	movl	resTrans_R(,%rax,4), %eax	# resTrans_R, D.21127
	sarl	%eax	# D.21127
	movl	%eax, %edx	# D.21127, D.21127
	movl	-36(%rbp), %eax	# residue_B, tmp289
	addl	%edx, %eax	# D.21127, tmp288
	movl	%eax, -24(%rbp)	# tmp288, temp
	.loc 1 1401 0 discriminator 2
	movl	-24(%rbp), %eax	# temp, tmp290
	movl	-32(%rbp), %edx	# residue_G, tmp291
	subl	%eax, %edx	# tmp290, D.21127
	movl	-52(%rbp), %eax	# j, tmp293
	cltq
	movl	-56(%rbp), %ecx	# i, tmp295
	movslq	%ecx, %rcx	# tmp295, tmp294
	salq	$4, %rcx	#, tmp296
	addq	%rcx, %rax	# tmp296, tmp297
	movl	%edx, resTrans_B(,%rax,4)	# D.21127, resTrans_B
	.loc 1 1402 0 discriminator 2
	movl	-52(%rbp), %eax	# j, tmp299
	cltq
	movl	-56(%rbp), %edx	# i, tmp301
	movslq	%edx, %rdx	# tmp301, tmp300
	salq	$4, %rdx	#, tmp302
	addq	%rdx, %rax	# tmp302, tmp303
	movl	resTrans_B(,%rax,4), %eax	# resTrans_B, D.21127
	sarl	%eax	# D.21127
	movl	%eax, %edx	# D.21127, D.21127
	movl	-24(%rbp), %eax	# temp, tmp304
	addl	%eax, %edx	# tmp304, D.21127
	movl	-52(%rbp), %eax	# j, tmp306
	cltq
	movl	-56(%rbp), %ecx	# i, tmp308
	movslq	%ecx, %rcx	# tmp308, tmp307
	salq	$4, %rcx	#, tmp309
	addq	%rcx, %rax	# tmp309, tmp310
	movl	%edx, resTrans_G(,%rax,4)	# D.21127, resTrans_G
	.loc 1 1404 0 discriminator 2
	movq	img(%rip), %rax	# img, img.399
	movl	-52(%rbp), %edx	# j, tmp312
	movslq	%edx, %rdx	# tmp312, tmp311
	movl	-56(%rbp), %ecx	# i, tmp314
	movslq	%ecx, %rcx	# tmp314, tmp313
	salq	$4, %rcx	#, tmp315
	addq	%rcx, %rdx	# tmp315, tmp316
	movl	resTrans_G(,%rdx,4), %edx	# resTrans_G, D.21127
	movl	-52(%rbp), %ecx	# j, tmp318
	movslq	%ecx, %rcx	# tmp318, tmp317
	movl	-56(%rbp), %esi	# i, tmp320
	movslq	%esi, %rsi	# tmp320, tmp319
	salq	$4, %rsi	#, tmp321
	addq	%rsi, %rcx	# tmp321, tmp322
	addq	$3276, %rcx	#, tmp323
	movl	%edx, 8(%rax,%rcx,4)	# D.21127, img.399_89->m7
	.loc 1 1392 0 discriminator 2
	addl	$1, -56(%rbp)	#, i
.L464:
	.loc 1 1392 0 is_stmt 0 discriminator 1
	cmpl	$15, -56(%rbp)	#, i
	jle	.L465	#,
	.loc 1 1391 0 is_stmt 1
	addl	$1, -52(%rbp)	#, j
.L463:
	.loc 1 1391 0 is_stmt 0 discriminator 1
	cmpl	$15, -52(%rbp)	#, j
	jle	.L466	#,
.L462:
	.loc 1 1408 0 is_stmt 1
	movq	-80(%rbp), %rax	# i16mode, tmp324
	movl	(%rax), %eax	# *i16mode_27(D), D.21127
	movl	%eax, %edi	# D.21127,
	call	dct_luma_16x16	#
	movq	-72(%rbp), %rdx	# currMB, tmp325
	movl	%eax, 460(%rdx)	# D.21127, currMB_95(D)->cbp
	.loc 1 1411 0
	movq	img(%rip), %rax	# img, img.400
	movl	72724(%rax), %eax	# img.400_96->residue_transform_flag, D.21127
	testl	%eax, %eax	# D.21127
	je	.L460	#,
	.loc 1 1413 0
	movl	$0, -52(%rbp)	#, j
	jmp	.L468	#
.L471:
	.loc 1 1414 0
	movl	$0, -56(%rbp)	#, i
	jmp	.L469	#
.L470:
	.loc 1 1416 0 discriminator 2
	movq	img(%rip), %rax	# img, img.401
	movl	-52(%rbp), %edx	# j, tmp327
	movslq	%edx, %rdx	# tmp327, tmp326
	movl	-56(%rbp), %ecx	# i, tmp329
	movslq	%ecx, %rcx	# tmp329, tmp328
	salq	$4, %rcx	#, tmp330
	addq	%rcx, %rdx	# tmp330, tmp331
	addq	$3276, %rdx	#, tmp332
	movl	8(%rax,%rdx,4), %eax	# img.401_100->m7, D.21127
	movl	-52(%rbp), %edx	# j, tmp334
	movslq	%edx, %rdx	# tmp334, tmp333
	movl	-56(%rbp), %ecx	# i, tmp336
	movslq	%ecx, %rcx	# tmp336, tmp335
	salq	$4, %rcx	#, tmp337
	addq	%rcx, %rdx	# tmp337, tmp338
	movl	%eax, rec_resG(,%rdx,4)	# D.21127, rec_resG
	.loc 1 1417 0 discriminator 2
	movq	img(%rip), %rax	# img, img.402
	movl	-52(%rbp), %edx	# j, tmp340
	movslq	%edx, %rdx	# tmp340, tmp339
	movl	-56(%rbp), %ecx	# i, tmp342
	movslq	%ecx, %rcx	# tmp342, tmp341
	salq	$4, %rcx	#, tmp343
	addq	%rcx, %rdx	# tmp343, tmp344
	movl	resTrans_R(,%rdx,4), %edx	# resTrans_R, D.21127
	movl	-52(%rbp), %ecx	# j, tmp346
	movslq	%ecx, %rcx	# tmp346, tmp345
	movl	-56(%rbp), %esi	# i, tmp348
	movslq	%esi, %rsi	# tmp348, tmp347
	salq	$4, %rsi	#, tmp349
	addq	%rsi, %rcx	# tmp349, tmp350
	addq	$3276, %rcx	#, tmp351
