	.file	"transform8x8.c"
# GNU C (Ubuntu/Linaro 4.8.1-10ubuntu9) version 4.8.1 (x86_64-linux-gnu)
#	compiled by GNU C version 4.8.1, GMP version 5.1.2, MPFR version 3.1.1-p2, MPC version 1.0.1
# GGC heuristics: --param ggc-min-expand=100 --param ggc-min-heapsize=131072
# options passed:  -imultiarch x86_64-linux-gnu -D SPEC_CPU -D NDEBUG
# -D SPEC_CPU_LP64 transform8x8.c -mtune=generic -march=x86-64 -g
# -fverbose-asm -fno-strict-aliasing -fstack-protector -Wformat
# -Wformat-security
# options enabled:  -faggressive-loop-optimizations
# -fasynchronous-unwind-tables -fauto-inc-dec -fbranch-count-reg -fcommon
# -fdelete-null-pointer-checks -fdwarf2-cfi-asm -fearly-inlining
# -feliminate-unused-debug-types -ffunction-cse -fgcse-lm -fgnu-runtime
# -fident -finline-atomics -fira-hoist-pressure -fira-share-save-slots
# -fira-share-spill-slots -fivopts -fkeep-static-consts
# -fleading-underscore -fmath-errno -fmerge-debug-strings
# -fmove-loop-invariants -fpeephole -fprefetch-loop-arrays
# -freg-struct-return -fsched-critical-path-heuristic
# -fsched-dep-count-heuristic -fsched-group-heuristic -fsched-interblock
# -fsched-last-insn-heuristic -fsched-rank-heuristic -fsched-spec
# -fsched-spec-insn-heuristic -fsched-stalled-insns-dep -fshow-column
# -fsigned-zeros -fsplit-ivs-in-unroller -fstack-protector
# -fstrict-volatile-bitfields -fsync-libcalls -ftrapping-math
# -ftree-coalesce-vars -ftree-cselim -ftree-forwprop -ftree-loop-if-convert
# -ftree-loop-im -ftree-loop-ivcanon -ftree-loop-optimize
# -ftree-parallelize-loops= -ftree-phiprop -ftree-pta -ftree-reassoc
# -ftree-scev-cprop -ftree-slp-vectorize -ftree-vect-loop-version
# -funit-at-a-time -funwind-tables -fverbose-asm -fzero-initialized-in-bss
# -m128bit-long-double -m64 -m80387 -maccumulate-outgoing-args
# -malign-stringops -mfancy-math-387 -mfp-ret-in-387 -mfxsr -mglibc
# -mieee-fp -mlong-double-80 -mmmx -mno-sse4 -mpush-args -mred-zone -msse
# -msse2 -mtls-direct-seg-refs

	.text
.Ltext0:
	.comm	cofAC8x8_chroma,1152,32
	.globl	quant_coef8
	.section	.rodata
	.align 32
	.type	quant_coef8, @object
	.size	quant_coef8, 1536
quant_coef8:
	.long	13107
	.long	12222
	.long	16777
	.long	12222
	.long	13107
	.long	12222
	.long	16777
	.long	12222
	.long	12222
	.long	11428
	.long	15481
	.long	11428
	.long	12222
	.long	11428
	.long	15481
	.long	11428
	.long	16777
	.long	15481
	.long	20972
	.long	15481
	.long	16777
	.long	15481
	.long	20972
	.long	15481
	.long	12222
	.long	11428
	.long	15481
	.long	11428
	.long	12222
	.long	11428
	.long	15481
	.long	11428
	.long	13107
	.long	12222
	.long	16777
	.long	12222
	.long	13107
	.long	12222
	.long	16777
	.long	12222
	.long	12222
	.long	11428
	.long	15481
	.long	11428
	.long	12222
	.long	11428
	.long	15481
	.long	11428
	.long	16777
	.long	15481
	.long	20972
	.long	15481
	.long	16777
	.long	15481
	.long	20972
	.long	15481
	.long	12222
	.long	11428
	.long	15481
	.long	11428
	.long	12222
	.long	11428
	.long	15481
	.long	11428
	.long	11916
	.long	11058
	.long	14980
	.long	11058
	.long	11916
	.long	11058
	.long	14980
	.long	11058
	.long	11058
	.long	10826
	.long	14290
	.long	10826
	.long	11058
	.long	10826
	.long	14290
	.long	10826
	.long	14980
	.long	14290
	.long	19174
	.long	14290
	.long	14980
	.long	14290
	.long	19174
	.long	14290
	.long	11058
	.long	10826
	.long	14290
	.long	10826
	.long	11058
	.long	10826
	.long	14290
	.long	10826
	.long	11916
	.long	11058
	.long	14980
	.long	11058
	.long	11916
	.long	11058
	.long	14980
	.long	11058
	.long	11058
	.long	10826
	.long	14290
	.long	10826
	.long	11058
	.long	10826
	.long	14290
	.long	10826
	.long	14980
	.long	14290
	.long	19174
	.long	14290
	.long	14980
	.long	14290
	.long	19174
	.long	14290
	.long	11058
	.long	10826
	.long	14290
	.long	10826
	.long	11058
	.long	10826
	.long	14290
	.long	10826
	.long	10082
	.long	9675
	.long	12710
	.long	9675
	.long	10082
	.long	9675
	.long	12710
	.long	9675
	.long	9675
	.long	8943
	.long	11985
	.long	8943
	.long	9675
	.long	8943
	.long	11985
	.long	8943
	.long	12710
	.long	11985
	.long	15978
	.long	11985
	.long	12710
	.long	11985
	.long	15978
	.long	11985
	.long	9675
	.long	8943
	.long	11985
	.long	8943
	.long	9675
	.long	8943
	.long	11985
	.long	8943
	.long	10082
	.long	9675
	.long	12710
	.long	9675
	.long	10082
	.long	9675
	.long	12710
	.long	9675
	.long	9675
	.long	8943
	.long	11985
	.long	8943
	.long	9675
	.long	8943
	.long	11985
	.long	8943
	.long	12710
	.long	11985
	.long	15978
	.long	11985
	.long	12710
	.long	11985
	.long	15978
	.long	11985
	.long	9675
	.long	8943
	.long	11985
	.long	8943
	.long	9675
	.long	8943
	.long	11985
	.long	8943
	.long	9362
	.long	8931
	.long	11984
	.long	8931
	.long	9362
	.long	8931
	.long	11984
	.long	8931
	.long	8931
	.long	8228
	.long	11259
	.long	8228
	.long	8931
	.long	8228
	.long	11259
	.long	8228
	.long	11984
	.long	11259
	.long	14913
	.long	11259
	.long	11984
	.long	11259
	.long	14913
	.long	11259
	.long	8931
	.long	8228
	.long	11259
	.long	8228
	.long	8931
	.long	8228
	.long	11259
	.long	8228
	.long	9362
	.long	8931
	.long	11984
	.long	8931
	.long	9362
	.long	8931
	.long	11984
	.long	8931
	.long	8931
	.long	8228
	.long	11259
	.long	8228
	.long	8931
	.long	8228
	.long	11259
	.long	8228
	.long	11984
	.long	11259
	.long	14913
	.long	11259
	.long	11984
	.long	11259
	.long	14913
	.long	11259
	.long	8931
	.long	8228
	.long	11259
	.long	8228
	.long	8931
	.long	8228
	.long	11259
	.long	8228
	.long	8192
	.long	7740
	.long	10486
	.long	7740
	.long	8192
	.long	7740
	.long	10486
	.long	7740
	.long	7740
	.long	7346
	.long	9777
	.long	7346
	.long	7740
	.long	7346
	.long	9777
	.long	7346
	.long	10486
	.long	9777
	.long	13159
	.long	9777
	.long	10486
	.long	9777
	.long	13159
	.long	9777
	.long	7740
	.long	7346
	.long	9777
	.long	7346
	.long	7740
	.long	7346
	.long	9777
	.long	7346
	.long	8192
	.long	7740
	.long	10486
	.long	7740
	.long	8192
	.long	7740
	.long	10486
	.long	7740
	.long	7740
	.long	7346
	.long	9777
	.long	7346
	.long	7740
	.long	7346
	.long	9777
	.long	7346
	.long	10486
	.long	9777
	.long	13159
	.long	9777
	.long	10486
	.long	9777
	.long	13159
	.long	9777
	.long	7740
	.long	7346
	.long	9777
	.long	7346
	.long	7740
	.long	7346
	.long	9777
	.long	7346
	.long	7282
	.long	6830
	.long	9118
	.long	6830
	.long	7282
	.long	6830
	.long	9118
	.long	6830
	.long	6830
	.long	6428
	.long	8640
	.long	6428
	.long	6830
	.long	6428
	.long	8640
	.long	6428
	.long	9118
	.long	8640
	.long	11570
	.long	8640
	.long	9118
	.long	8640
	.long	11570
	.long	8640
	.long	6830
	.long	6428
	.long	8640
	.long	6428
	.long	6830
	.long	6428
	.long	8640
	.long	6428
	.long	7282
	.long	6830
	.long	9118
	.long	6830
	.long	7282
	.long	6830
	.long	9118
	.long	6830
	.long	6830
	.long	6428
	.long	8640
	.long	6428
	.long	6830
	.long	6428
	.long	8640
	.long	6428
	.long	9118
	.long	8640
	.long	11570
	.long	8640
	.long	9118
	.long	8640
	.long	11570
	.long	8640
	.long	6830
	.long	6428
	.long	8640
	.long	6428
	.long	6830
	.long	6428
	.long	8640
	.long	6428
	.globl	dequant_coef8
	.align 32
	.type	dequant_coef8, @object
	.size	dequant_coef8, 1536
dequant_coef8:
	.long	20
	.long	19
	.long	25
	.long	19
	.long	20
	.long	19
	.long	25
	.long	19
	.long	19
	.long	18
	.long	24
	.long	18
	.long	19
	.long	18
	.long	24
	.long	18
	.long	25
	.long	24
	.long	32
	.long	24
	.long	25
	.long	24
	.long	32
	.long	24
	.long	19
	.long	18
	.long	24
	.long	18
	.long	19
	.long	18
	.long	24
	.long	18
	.long	20
	.long	19
	.long	25
	.long	19
	.long	20
	.long	19
	.long	25
	.long	19
	.long	19
	.long	18
	.long	24
	.long	18
	.long	19
	.long	18
	.long	24
	.long	18
	.long	25
	.long	24
	.long	32
	.long	24
	.long	25
	.long	24
	.long	32
	.long	24
	.long	19
	.long	18
	.long	24
	.long	18
	.long	19
	.long	18
	.long	24
	.long	18
	.long	22
	.long	21
	.long	28
	.long	21
	.long	22
	.long	21
	.long	28
	.long	21
	.long	21
	.long	19
	.long	26
	.long	19
	.long	21
	.long	19
	.long	26
	.long	19
	.long	28
	.long	26
	.long	35
	.long	26
	.long	28
	.long	26
	.long	35
	.long	26
	.long	21
	.long	19
	.long	26
	.long	19
	.long	21
	.long	19
	.long	26
	.long	19
	.long	22
	.long	21
	.long	28
	.long	21
	.long	22
	.long	21
	.long	28
	.long	21
	.long	21
	.long	19
	.long	26
	.long	19
	.long	21
	.long	19
	.long	26
	.long	19
	.long	28
	.long	26
	.long	35
	.long	26
	.long	28
	.long	26
	.long	35
	.long	26
	.long	21
	.long	19
	.long	26
	.long	19
	.long	21
	.long	19
	.long	26
	.long	19
	.long	26
	.long	24
	.long	33
	.long	24
	.long	26
	.long	24
	.long	33
	.long	24
	.long	24
	.long	23
	.long	31
	.long	23
	.long	24
	.long	23
	.long	31
	.long	23
	.long	33
	.long	31
	.long	42
	.long	31
	.long	33
	.long	31
	.long	42
	.long	31
	.long	24
	.long	23
	.long	31
	.long	23
	.long	24
	.long	23
	.long	31
	.long	23
	.long	26
	.long	24
	.long	33
	.long	24
	.long	26
	.long	24
	.long	33
	.long	24
	.long	24
	.long	23
	.long	31
	.long	23
	.long	24
	.long	23
	.long	31
	.long	23
	.long	33
	.long	31
	.long	42
	.long	31
	.long	33
	.long	31
	.long	42
	.long	31
	.long	24
	.long	23
	.long	31
	.long	23
	.long	24
	.long	23
	.long	31
	.long	23
	.long	28
	.long	26
	.long	35
	.long	26
	.long	28
	.long	26
	.long	35
	.long	26
	.long	26
	.long	25
	.long	33
	.long	25
	.long	26
	.long	25
	.long	33
	.long	25
	.long	35
	.long	33
	.long	45
	.long	33
	.long	35
	.long	33
	.long	45
	.long	33
	.long	26
	.long	25
	.long	33
	.long	25
	.long	26
	.long	25
	.long	33
	.long	25
	.long	28
	.long	26
	.long	35
	.long	26
	.long	28
	.long	26
	.long	35
	.long	26
	.long	26
	.long	25
	.long	33
	.long	25
	.long	26
	.long	25
	.long	33
	.long	25
	.long	35
	.long	33
	.long	45
	.long	33
	.long	35
	.long	33
	.long	45
	.long	33
	.long	26
	.long	25
	.long	33
	.long	25
	.long	26
	.long	25
	.long	33
	.long	25
	.long	32
	.long	30
	.long	40
	.long	30
	.long	32
	.long	30
	.long	40
	.long	30
	.long	30
	.long	28
	.long	38
	.long	28
	.long	30
	.long	28
	.long	38
	.long	28
	.long	40
	.long	38
	.long	51
	.long	38
	.long	40
	.long	38
	.long	51
	.long	38
	.long	30
	.long	28
	.long	38
	.long	28
	.long	30
	.long	28
	.long	38
	.long	28
	.long	32
	.long	30
	.long	40
	.long	30
	.long	32
	.long	30
	.long	40
	.long	30
	.long	30
	.long	28
	.long	38
	.long	28
	.long	30
	.long	28
	.long	38
	.long	28
	.long	40
	.long	38
	.long	51
	.long	38
	.long	40
	.long	38
	.long	51
	.long	38
	.long	30
	.long	28
	.long	38
	.long	28
	.long	30
	.long	28
	.long	38
	.long	28
	.long	36
	.long	34
	.long	46
	.long	34
	.long	36
	.long	34
	.long	46
	.long	34
	.long	34
	.long	32
	.long	43
	.long	32
	.long	34
	.long	32
	.long	43
	.long	32
	.long	46
	.long	43
	.long	58
	.long	43
	.long	46
	.long	43
	.long	58
	.long	43
	.long	34
	.long	32
	.long	43
	.long	32
	.long	34
	.long	32
	.long	43
	.long	32
	.long	36
	.long	34
	.long	46
	.long	34
	.long	36
	.long	34
	.long	46
	.long	34
	.long	34
	.long	32
	.long	43
	.long	32
	.long	34
	.long	32
	.long	43
	.long	32
	.long	46
	.long	43
	.long	58
	.long	43
	.long	46
	.long	43
	.long	58
	.long	43
	.long	34
	.long	32
	.long	43
	.long	32
	.long	34
	.long	32
	.long	43
	.long	32
	.globl	SNGL_SCAN8x8
	.align 32
	.type	SNGL_SCAN8x8, @object
	.size	SNGL_SCAN8x8, 128
SNGL_SCAN8x8:
	.byte	0
	.byte	0
	.byte	1
	.byte	0
	.byte	0
	.byte	1
	.byte	0
	.byte	2
	.byte	1
	.byte	1
	.byte	2
	.byte	0
	.byte	3
	.byte	0
	.byte	2
	.byte	1
	.byte	1
	.byte	2
	.byte	0
	.byte	3
	.byte	0
	.byte	4
	.byte	1
	.byte	3
	.byte	2
	.byte	2
	.byte	3
	.byte	1
	.byte	4
	.byte	0
	.byte	5
	.byte	0
	.byte	4
	.byte	1
	.byte	3
	.byte	2
	.byte	2
	.byte	3
	.byte	1
	.byte	4
	.byte	0
	.byte	5
	.byte	0
	.byte	6
	.byte	1
	.byte	5
	.byte	2
	.byte	4
	.byte	3
	.byte	3
	.byte	4
	.byte	2
	.byte	5
	.byte	1
	.byte	6
	.byte	0
	.byte	7
	.byte	0
	.byte	6
	.byte	1
	.byte	5
	.byte	2
	.byte	4
	.byte	3
	.byte	3
	.byte	4
	.byte	2
	.byte	5
	.byte	1
	.byte	6
	.byte	0
	.byte	7
	.byte	1
	.byte	7
	.byte	2
	.byte	6
	.byte	3
	.byte	5
	.byte	4
	.byte	4
	.byte	5
	.byte	3
	.byte	6
	.byte	2
	.byte	7
	.byte	1
	.byte	7
	.byte	2
	.byte	6
	.byte	3
	.byte	5
	.byte	4
	.byte	4
	.byte	5
	.byte	3
	.byte	6
	.byte	2
	.byte	7
	.byte	3
	.byte	7
	.byte	4
	.byte	6
	.byte	5
	.byte	5
	.byte	6
	.byte	4
	.byte	7
	.byte	3
	.byte	7
	.byte	4
	.byte	6
	.byte	5
	.byte	5
	.byte	6
	.byte	4
	.byte	7
	.byte	5
	.byte	7
	.byte	6
	.byte	6
	.byte	7
	.byte	5
	.byte	7
	.byte	6
	.byte	6
	.byte	7
	.byte	7
	.byte	7
	.globl	FIELD_SCAN8x8
	.align 32
	.type	FIELD_SCAN8x8, @object
	.size	FIELD_SCAN8x8, 128
FIELD_SCAN8x8:
	.byte	0
	.byte	0
	.byte	0
	.byte	1
	.byte	0
	.byte	2
	.byte	1
	.byte	0
	.byte	1
	.byte	1
	.byte	0
	.byte	3
	.byte	0
	.byte	4
	.byte	1
	.byte	2
	.byte	2
	.byte	0
	.byte	1
	.byte	3
	.byte	0
	.byte	5
	.byte	0
	.byte	6
	.byte	0
	.byte	7
	.byte	1
	.byte	4
	.byte	2
	.byte	1
	.byte	3
	.byte	0
	.byte	2
	.byte	2
	.byte	1
	.byte	5
	.byte	1
	.byte	6
	.byte	1
	.byte	7
	.byte	2
	.byte	3
	.byte	3
	.byte	1
	.byte	4
	.byte	0
	.byte	3
	.byte	2
	.byte	2
	.byte	4
	.byte	2
	.byte	5
	.byte	2
	.byte	6
	.byte	2
	.byte	7
	.byte	3
	.byte	3
	.byte	4
	.byte	1
	.byte	5
	.byte	0
	.byte	4
	.byte	2
	.byte	3
	.byte	4
	.byte	3
	.byte	5
	.byte	3
	.byte	6
	.byte	3
	.byte	7
	.byte	4
	.byte	3
	.byte	5
	.byte	1
	.byte	6
	.byte	0
	.byte	5
	.byte	2
	.byte	4
	.byte	4
	.byte	4
	.byte	5
	.byte	4
	.byte	6
	.byte	4
	.byte	7
	.byte	5
	.byte	3
	.byte	6
	.byte	1
	.byte	6
	.byte	2
	.byte	5
	.byte	4
	.byte	5
	.byte	5
	.byte	5
	.byte	6
	.byte	5
	.byte	7
	.byte	6
	.byte	3
	.byte	7
	.byte	0
	.byte	7
	.byte	1
	.byte	6
	.byte	4
	.byte	6
	.byte	5
	.byte	6
	.byte	6
	.byte	6
	.byte	7
	.byte	7
	.byte	2
	.byte	7
	.byte	3
	.byte	7
	.byte	4
	.byte	7
	.byte	5
	.byte	7
	.byte	6
	.byte	7
	.byte	7
	.globl	COEFF_COST8x8
	.align 32
	.type	COEFF_COST8x8, @object
	.size	COEFF_COST8x8, 128
COEFF_COST8x8:
	.byte	3
	.byte	3
	.byte	3
	.byte	3
	.byte	2
	.byte	2
	.byte	2
	.byte	2
	.byte	2
	.byte	2
	.byte	2
	.byte	2
	.byte	1
	.byte	1
	.byte	1
	.byte	1
	.byte	1
	.byte	1
	.byte	1
	.byte	1
	.byte	1
	.byte	1
	.byte	1
	.byte	1
	.byte	0
	.byte	0
	.byte	0
	.byte	0
	.byte	0
	.byte	0
	.byte	0
	.byte	0
	.byte	0
	.byte	0
	.byte	0
	.byte	0
	.byte	0
	.byte	0
	.byte	0
	.byte	0
	.byte	0
	.byte	0
	.byte	0
	.byte	0
	.byte	0
	.byte	0
	.byte	0
	.byte	0
	.byte	0
	.byte	0
	.byte	0
	.byte	0
	.byte	0
	.byte	0
	.byte	0
	.byte	0
	.byte	0
	.byte	0
	.byte	0
	.byte	0
	.byte	0
	.byte	0
	.byte	0
	.byte	0
	.byte	9
	.byte	9
	.byte	9
	.byte	9
	.byte	9
	.byte	9
	.byte	9
	.byte	9
	.byte	9
	.byte	9
	.byte	9
	.byte	9
	.byte	9
	.byte	9
	.byte	9
	.byte	9
	.byte	9
	.byte	9
	.byte	9
	.byte	9
	.byte	9
	.byte	9
	.byte	9
	.byte	9
	.byte	9
	.byte	9
	.byte	9
	.byte	9
	.byte	9
	.byte	9
	.byte	9
	.byte	9
	.byte	9
	.byte	9
	.byte	9
	.byte	9
	.byte	9
	.byte	9
	.byte	9
	.byte	9
	.byte	9
	.byte	9
	.byte	9
	.byte	9
	.byte	9
	.byte	9
	.byte	9
	.byte	9
	.byte	9
	.byte	9
	.byte	9
	.byte	9
	.byte	9
	.byte	9
	.byte	9
	.byte	9
	.byte	9
	.byte	9
	.byte	9
	.byte	9
	.byte	9
	.byte	9
	.byte	9
	.byte	9
	.text
	.globl	Mode_Decision_for_new_Intra8x8Macroblock
	.type	Mode_Decision_for_new_Intra8x8Macroblock, @function
Mode_Decision_for_new_Intra8x8Macroblock:
.LFB2:
	.file 1 "transform8x8.c"
	.loc 1 218 0
	.cfi_startproc
	pushq	%rbp	#
	.cfi_def_cfa_offset 16
	.cfi_offset 6, -16
	movq	%rsp, %rbp	#,
	.cfi_def_cfa_register 6
	subq	$48, %rsp	#,
	movsd	%xmm0, -24(%rbp)	# lambda, lambda
	movq	%rdi, -32(%rbp)	# min_cost, min_cost
	.loc 1 219 0
	movl	$0, -8(%rbp)	#, cbp
	.loc 1 221 0
	movsd	-24(%rbp), %xmm1	# lambda, tmp70
	movsd	.LC0(%rip), %xmm0	#, tmp71
	mulsd	%xmm1, %xmm0	# tmp70, D.10399
	movsd	.LC1(%rip), %xmm1	#, tmp72
	addsd	%xmm1, %xmm0	# tmp72, D.10399
	call	floor	#
	cvttsd2si	%xmm0, %edx	# D.10399, D.10400
	movq	-32(%rbp), %rax	# min_cost, tmp73
	movl	%edx, (%rax)	# D.10400, *min_cost_10(D)
	.loc 1 223 0
	movl	$0, -4(%rbp)	#, b8
	jmp	.L2	#
.L4:
	.loc 1 225 0
	leaq	-12(%rbp), %rcx	#, tmp74
	movq	-24(%rbp), %rax	# lambda, tmp75
	movl	-4(%rbp), %edx	# b8, tmp76
	movq	%rcx, %rsi	# tmp74,
	movq	%rax, -40(%rbp)	# tmp75, %sfp
	movsd	-40(%rbp), %xmm0	# %sfp,
	movl	%edx, %edi	# tmp76,
	call	Mode_Decision_for_new_8x8IntraBlocks	#
	testl	%eax, %eax	# D.10400
	je	.L3	#,
	.loc 1 227 0
	movl	-4(%rbp), %eax	# b8, tmp77
	movl	$1, %edx	#, tmp78
	movl	%eax, %ecx	# tmp77, tmp84
	sall	%cl, %edx	# tmp84, D.10400
	movl	%edx, %eax	# D.10400, D.10400
	orl	%eax, -8(%rbp)	# D.10400, cbp
.L3:
	.loc 1 229 0
	movq	-32(%rbp), %rax	# min_cost, tmp79
	movl	(%rax), %edx	# *min_cost_10(D), D.10400
	movl	-12(%rbp), %eax	# cost8x8, cost8x8.0
	addl	%eax, %edx	# cost8x8.0, D.10400
	movq	-32(%rbp), %rax	# min_cost, tmp80
	movl	%edx, (%rax)	# D.10400, *min_cost_10(D)
	.loc 1 223 0
	addl	$1, -4(%rbp)	#, b8
.L2:
	.loc 1 223 0 is_stmt 0 discriminator 1
	cmpl	$3, -4(%rbp)	#, b8
	jle	.L4	#,
	.loc 1 232 0 is_stmt 1
	movl	-8(%rbp), %eax	# cbp, D.10400
	.loc 1 233 0
	leave
	.cfi_def_cfa 7, 8
	ret
	.cfi_endproc
.LFE2:
	.size	Mode_Decision_for_new_Intra8x8Macroblock, .-Mode_Decision_for_new_Intra8x8Macroblock
	.globl	Mode_Decision_for_new_8x8IntraBlocks
	.type	Mode_Decision_for_new_8x8IntraBlocks, @function
Mode_Decision_for_new_8x8IntraBlocks:
.LFB3:
	.loc 1 243 0
	.cfi_startproc
	pushq	%rbp	#
	.cfi_def_cfa_offset 16
	.cfi_offset 6, -16
	movq	%rsp, %rbp	#,
	.cfi_def_cfa_register 6
	pushq	%r12	#
	pushq	%rbx	#
	subq	$1168, %rsp	#,
	.cfi_offset 12, -24
	.cfi_offset 3, -32
	movl	%edi, -1156(%rbp)	# b8, b8
	movsd	%xmm0, -1168(%rbp)	# lambda, lambda
	movq	%rsi, -1176(%rbp)	# min_cost, min_cost
	.loc 1 244 0
	movl	$0, -1116(%rbp)	#, best_ipmode
	.loc 1 245 0
	movl	$0, -1092(%rbp)	#, nonzero
	.loc 1 247 0
	movl	$0, %eax	#, tmp1114
	movq	%rax, -992(%rbp)	# tmp1114, rdcost
	.loc 1 249 0
	movl	-1156(%rbp), %eax	# b8, tmp1115
	cltd
	shrl	$31, %edx	#, tmp1117
	addl	%edx, %eax	# tmp1117, tmp1118
	andl	$1, %eax	#, tmp1119
	subl	%edx, %eax	# tmp1117, tmp1120
	sall	$3, %eax	#, tmp1121
	movl	%eax, -1068(%rbp)	# tmp1121, block_x
	.loc 1 250 0
	movl	-1156(%rbp), %eax	# b8, tmp1122
	movl	%eax, %edx	# tmp1122, tmp1123
	shrl	$31, %edx	#, tmp1123
	addl	%edx, %eax	# tmp1123, tmp1124
	sarl	%eax	# tmp1125
	sall	$3, %eax	#, tmp1126
	movl	%eax, -1064(%rbp)	# tmp1126, block_y
	.loc 1 251 0
	movq	img(%rip), %rax	# img, img.1
	movl	152(%rax), %edx	# img.1_110->pix_x, D.10402
	movl	-1068(%rbp), %eax	# block_x, tmp1130
	addl	%edx, %eax	# D.10402, tmp1129
	movl	%eax, -1060(%rbp)	# tmp1129, pic_pix_x
	.loc 1 252 0
	movq	img(%rip), %rax	# img, img.2
	movl	156(%rax), %edx	# img.2_113->pix_y, D.10402
	movl	-1064(%rbp), %eax	# block_y, tmp1134
	addl	%edx, %eax	# D.10402, tmp1133
	movl	%eax, -1056(%rbp)	# tmp1133, pic_pix_y
	.loc 1 253 0
	movq	img(%rip), %rax	# img, img.3
	movl	168(%rax), %edx	# img.3_116->opix_x, D.10402
	movl	-1068(%rbp), %eax	# block_x, tmp1138
	addl	%edx, %eax	# D.10402, tmp1137
	movl	%eax, -1052(%rbp)	# tmp1137, pic_opix_x
	.loc 1 254 0
	movq	img(%rip), %rax	# img, img.4
	movl	172(%rax), %edx	# img.4_119->opix_y, D.10402
	movl	-1064(%rbp), %eax	# block_y, tmp1142
	addl	%edx, %eax	# D.10402, tmp1141
	movl	%eax, -1048(%rbp)	# tmp1141, pic_opix_y
	.loc 1 255 0
	movl	-1060(%rbp), %eax	# pic_pix_x, tmp1144
	leal	3(%rax), %edx	#, tmp1146
	testl	%eax, %eax	# tmp1145
	cmovs	%edx, %eax	# tmp1146,, tmp1145
	sarl	$2, %eax	#, tmp1147
	movl	%eax, -1044(%rbp)	# tmp1147, pic_block_x
	.loc 1 256 0
	movl	-1056(%rbp), %eax	# pic_pix_y, tmp1149
	leal	3(%rax), %edx	#, tmp1151
	testl	%eax, %eax	# tmp1150
	cmovs	%edx, %eax	# tmp1151,, tmp1150
	sarl	$2, %eax	#, tmp1152
	movl	%eax, -1040(%rbp)	# tmp1152, pic_block_y
	.loc 1 257 0
	movabsq	$5055640609639927018, %rax	#, tmp1153
	movq	%rax, -1000(%rbp)	# tmp1153, min_rdcost
	.loc 1 258 0
	movq	imgY_org(%rip), %rax	# imgY_org, tmp1154
	movq	%rax, -984(%rbp)	# tmp1154, imgY_orig
	.loc 1 273 0
	movq	img(%rip), %rax	# img, img.5
	movq	14168(%rax), %rdx	# img.5_126->mb_data, D.10403
	movq	img(%rip), %rax	# img, img.6
	movl	12(%rax), %eax	# img.6_128->current_mb_nr, D.10402
	cltq
	imulq	$632, %rax, %rax	#, D.10404, D.10404
	addq	%rdx, %rax	# D.10403, D.10403
	movl	524(%rax), %eax	# _132->c_ipred_mode, tmp1155
	movl	%eax, -1036(%rbp)	# tmp1155, c_ipmode
	.loc 1 276 0
	movl	-1064(%rbp), %eax	# block_y, tmp1156
	leal	3(%rax), %edx	#, tmp1158
	testl	%eax, %eax	# tmp1157
	cmovs	%edx, %eax	# tmp1158,, tmp1157
	sarl	$2, %eax	#, tmp1159
	movl	%eax, %edx	# tmp1159, D.10402
	movl	-1068(%rbp), %eax	# block_x, tmp1160
	leal	3(%rax), %ecx	#, tmp1162
	testl	%eax, %eax	# tmp1161
	cmovs	%ecx, %eax	# tmp1162,, tmp1161
	sarl	$2, %eax	#, tmp1163
	movl	%eax, %esi	# tmp1163, D.10402
	movq	img(%rip), %rax	# img, img.7
	movl	12(%rax), %eax	# img.7_136->current_mb_nr, D.10402
	leaq	-976(%rbp), %rcx	#, tmp1164
	movq	%rcx, %r9	# tmp1164,
	movl	$0, %r8d	#,
	movl	$-1, %ecx	#,
	movl	%eax, %edi	# D.10402,
	call	getLuma4x4Neighbour	#
	.loc 1 277 0
	movl	-1064(%rbp), %eax	# block_y, tmp1165
	leal	3(%rax), %edx	#, tmp1167
	testl	%eax, %eax	# tmp1166
	cmovs	%edx, %eax	# tmp1167,, tmp1166
	sarl	$2, %eax	#, tmp1168
	movl	%eax, %edx	# tmp1168, D.10402
	movl	-1068(%rbp), %eax	# block_x, tmp1169
	leal	3(%rax), %ecx	#, tmp1171
	testl	%eax, %eax	# tmp1170
	cmovs	%ecx, %eax	# tmp1171,, tmp1170
	sarl	$2, %eax	#, tmp1172
	movl	%eax, %esi	# tmp1172, D.10402
	movq	img(%rip), %rax	# img, img.8
	movl	12(%rax), %eax	# img.8_140->current_mb_nr, D.10402
	leaq	-944(%rbp), %rcx	#, tmp1173
	movq	%rcx, %r9	# tmp1173,
	movl	$-1, %r8d	#,
	movl	$0, %ecx	#,
	movl	%eax, %edi	# D.10402,
	call	getLuma4x4Neighbour	#
	.loc 1 279 0
	movq	input(%rip), %rax	# input, input.9
	movl	216(%rax), %eax	# input.9_142->UseConstrainedIntraPred, D.10402
	testl	%eax, %eax	# D.10402
	je	.L7	#,
	.loc 1 281 0
	movl	-944(%rbp), %eax	# top_block.available, D.10402
	testl	%eax, %eax	# D.10402
	je	.L8	#,
	.loc 1 281 0 is_stmt 0 discriminator 1
	movq	img(%rip), %rax	# img, img.11
	movq	71784(%rax), %rax	# img.11_145->intra_block, D.10405
	movl	-940(%rbp), %edx	# top_block.mb_addr, D.10402
	movslq	%edx, %rdx	# D.10402, D.10404
	salq	$2, %rdx	#, D.10404
	addq	%rdx, %rax	# D.10404, D.10405
	movl	(%rax), %eax	# *_150, iftmp.10
	jmp	.L9	#
.L8:
	.loc 1 281 0 discriminator 2
	movl	$0, %eax	#, iftmp.10
.L9:
	.loc 1 281 0 discriminator 3
	movl	%eax, -944(%rbp)	# iftmp.10, top_block.available
	.loc 1 282 0 is_stmt 1 discriminator 3
	movl	-976(%rbp), %eax	# left_block.available, D.10402
	testl	%eax, %eax	# D.10402
	je	.L10	#,
	.loc 1 282 0 is_stmt 0 discriminator 1
	movq	img(%rip), %rax	# img, img.13
	movq	71784(%rax), %rax	# img.13_154->intra_block, D.10405
	movl	-972(%rbp), %edx	# left_block.mb_addr, D.10402
	movslq	%edx, %rdx	# D.10402, D.10404
	salq	$2, %rdx	#, D.10404
	addq	%rdx, %rax	# D.10404, D.10405
	movl	(%rax), %eax	# *_159, iftmp.12
	jmp	.L11	#
.L10:
	.loc 1 282 0 discriminator 2
	movl	$0, %eax	#, iftmp.12
.L11:
	.loc 1 282 0 discriminator 3
	movl	%eax, -976(%rbp)	# iftmp.12, left_block.available
.L7:
	.loc 1 285 0 is_stmt 1
	movl	-1156(%rbp), %eax	# b8, b8.14
	addl	$1, %eax	#, D.10406
	cmpl	$2, %eax	#, D.10406
	jbe	.L12	#,
	.loc 1 286 0
	movl	-944(%rbp), %eax	# top_block.available, D.10402
	testl	%eax, %eax	# D.10402
	je	.L13	#,
	.loc 1 286 0 is_stmt 0 discriminator 1
	movq	img(%rip), %rax	# img, img.16
	movq	112(%rax), %rax	# img.16_165->ipredmode8x8, D.10407
	movl	-928(%rbp), %edx	# top_block.pos_x, D.10402
	movslq	%edx, %rdx	# D.10402, D.10404
	salq	$3, %rdx	#, D.10404
	addq	%rdx, %rax	# D.10404, D.10407
	movq	(%rax), %rax	# *_170, D.10405
	movl	-924(%rbp), %edx	# top_block.pos_y, D.10402
	movslq	%edx, %rdx	# D.10402, D.10404
	salq	$2, %rdx	#, D.10404
	addq	%rdx, %rax	# D.10404, D.10405
	movl	(%rax), %eax	# *_175, iftmp.15
	jmp	.L14	#
.L13:
	.loc 1 286 0 discriminator 2
	movl	$-1, %eax	#, iftmp.15
.L14:
	.loc 1 286 0 discriminator 1
	movl	%eax, -1088(%rbp)	# iftmp.15, upMode
	jmp	.L15	#
.L12:
	.loc 1 288 0 is_stmt 1
	movl	-944(%rbp), %eax	# top_block.available, D.10402
	testl	%eax, %eax	# D.10402
	je	.L16	#,
	.loc 1 288 0 is_stmt 0 discriminator 1
	movq	img(%rip), %rax	# img, img.18
	movq	104(%rax), %rax	# img.18_180->ipredmode, D.10407
	movl	-928(%rbp), %edx	# top_block.pos_x, D.10402
	movslq	%edx, %rdx	# D.10402, D.10404
	salq	$3, %rdx	#, D.10404
	addq	%rdx, %rax	# D.10404, D.10407
	movq	(%rax), %rax	# *_185, D.10405
	movl	-924(%rbp), %edx	# top_block.pos_y, D.10402
	movslq	%edx, %rdx	# D.10402, D.10404
	salq	$2, %rdx	#, D.10404
	addq	%rdx, %rax	# D.10404, D.10405
	movl	(%rax), %eax	# *_190, iftmp.17
	jmp	.L17	#
.L16:
	.loc 1 288 0 discriminator 2
	movl	$-1, %eax	#, iftmp.17
.L17:
	.loc 1 288 0 discriminator 3
	movl	%eax, -1088(%rbp)	# iftmp.17, upMode
.L15:
	.loc 1 289 0 is_stmt 1
	movl	-1156(%rbp), %eax	# b8, b8.19
	andl	$1, %eax	#, D.10406
	testl	%eax, %eax	# D.10406
	je	.L18	#,
	.loc 1 290 0
	movl	-976(%rbp), %eax	# left_block.available, D.10402
	testl	%eax, %eax	# D.10402
	je	.L19	#,
	.loc 1 290 0 is_stmt 0 discriminator 1
	movq	img(%rip), %rax	# img, img.21
	movq	112(%rax), %rax	# img.21_197->ipredmode8x8, D.10407
	movl	-960(%rbp), %edx	# left_block.pos_x, D.10402
	movslq	%edx, %rdx	# D.10402, D.10404
	salq	$3, %rdx	#, D.10404
	addq	%rdx, %rax	# D.10404, D.10407
	movq	(%rax), %rax	# *_202, D.10405
	movl	-956(%rbp), %edx	# left_block.pos_y, D.10402
	movslq	%edx, %rdx	# D.10402, D.10404
	salq	$2, %rdx	#, D.10404
	addq	%rdx, %rax	# D.10404, D.10405
	movl	(%rax), %eax	# *_207, iftmp.20
	jmp	.L20	#
.L19:
	.loc 1 290 0 discriminator 2
	movl	$-1, %eax	#, iftmp.20
.L20:
	movl	%eax, -1084(%rbp)	# iftmp.20, leftMode
	jmp	.L21	#
.L18:
	.loc 1 292 0 is_stmt 1
	movl	-976(%rbp), %eax	# left_block.available, D.10402
	testl	%eax, %eax	# D.10402
	je	.L22	#,
	.loc 1 292 0 is_stmt 0 discriminator 1
	movq	img(%rip), %rax	# img, img.23
	movq	104(%rax), %rax	# img.23_212->ipredmode, D.10407
	movl	-960(%rbp), %edx	# left_block.pos_x, D.10402
	movslq	%edx, %rdx	# D.10402, D.10404
	salq	$3, %rdx	#, D.10404
	addq	%rdx, %rax	# D.10404, D.10407
	movq	(%rax), %rax	# *_217, D.10405
	movl	-956(%rbp), %edx	# left_block.pos_y, D.10402
	movslq	%edx, %rdx	# D.10402, D.10404
	salq	$2, %rdx	#, D.10404
	addq	%rdx, %rax	# D.10404, D.10405
	movl	(%rax), %eax	# *_222, iftmp.22
	jmp	.L23	#
.L22:
	.loc 1 292 0 discriminator 2
	movl	$-1, %eax	#, iftmp.22
.L23:
	.loc 1 292 0 discriminator 3
	movl	%eax, -1084(%rbp)	# iftmp.22, leftMode
.L21:
	.loc 1 294 0 is_stmt 1
	cmpl	$0, -1088(%rbp)	#, upMode
	js	.L24	#,
	.loc 1 294 0 is_stmt 0 discriminator 1
	cmpl	$0, -1084(%rbp)	#, leftMode
	js	.L24	#,
	movl	-1088(%rbp), %eax	# upMode, tmp1174
	cmpl	%eax, -1084(%rbp)	# tmp1174, leftMode
	cmovle	-1084(%rbp), %eax	# leftMode,, iftmp.24
	jmp	.L25	#
.L24:
	.loc 1 294 0 discriminator 2
	movl	$2, %eax	#, iftmp.24
.L25:
	.loc 1 294 0 discriminator 3
	movl	%eax, -1032(%rbp)	# iftmp.24, mostProbableMode
	.loc 1 296 0 is_stmt 1 discriminator 3
	movq	-1176(%rbp), %rax	# min_cost, tmp1175
	movl	$2147483647, (%rax)	#, *min_cost_229(D)
	.loc 1 299 0 discriminator 3
	leaq	-1124(%rbp), %rdi	#, tmp1176
	leaq	-1128(%rbp), %rcx	#, tmp1177
	leaq	-1132(%rbp), %rdx	#, tmp1178
	movl	-1056(%rbp), %esi	# pic_pix_y, tmp1179
	movl	-1060(%rbp), %eax	# pic_pix_x, tmp1180
	movq	%rdi, %r8	# tmp1176,
	movl	%eax, %edi	# tmp1180,
	call	intrapred_luma8x8	#
	.loc 1 302 0 discriminator 3
	movl	$0, -1120(%rbp)	#, ipmode
	jmp	.L26	#
.L119:
	.loc 1 304 0
	cmpl	$2, -1120(%rbp)	#, ipmode
	je	.L27	#,
	.loc 1 304 0 is_stmt 0 discriminator 1
	cmpl	$0, -1120(%rbp)	#, ipmode
	je	.L28	#,
	.loc 1 305 0 is_stmt 1
	cmpl	$7, -1120(%rbp)	#, ipmode
	je	.L28	#,
	.loc 1 305 0 is_stmt 0 discriminator 2
	cmpl	$3, -1120(%rbp)	#, ipmode
	jne	.L29	#,
.L28:
	.loc 1 305 0 discriminator 1
	movl	-1128(%rbp), %eax	# up_available, up_available.25
	testl	%eax, %eax	# up_available.25
	jne	.L27	#,
.L29:
	cmpl	$1, -1120(%rbp)	#, ipmode
	je	.L30	#,
	.loc 1 306 0 is_stmt 1
	cmpl	$8, -1120(%rbp)	#, ipmode
	jne	.L31	#,
.L30:
	.loc 1 306 0 is_stmt 0 discriminator 1
	movl	-1132(%rbp), %eax	# left_available, left_available.26
	testl	%eax, %eax	# left_available.26
	jne	.L27	#,
.L31:
	.loc 1 306 0 discriminator 2
	movl	-1124(%rbp), %eax	# all_available, all_available.27
	testl	%eax, %eax	# all_available.27
	je	.L32	#,
.L27:
	.loc 1 309 0 is_stmt 1
	movq	input(%rip), %rax	# input, input.28
	movl	2464(%rax), %eax	# input.28_234->rdopt, D.10402
	testl	%eax, %eax	# D.10402
	jne	.L33	#,
	.loc 1 311 0
	movl	$0, -1108(%rbp)	#, j
	movl	-1108(%rbp), %eax	# j, tmp1181
	movl	%eax, -1104(%rbp)	# tmp1181, k
	jmp	.L34	#
.L37:
	.loc 1 312 0
	movl	$0, -1112(%rbp)	#, i
	jmp	.L35	#
.L36:
	.loc 1 314 0 discriminator 2
	movl	-1108(%rbp), %eax	# j, tmp1182
	movl	-1048(%rbp), %edx	# pic_opix_y, tmp1183
	addl	%edx, %eax	# tmp1183, D.10402
	cltq
	leaq	0(,%rax,8), %rdx	#, D.10404
	movq	-984(%rbp), %rax	# imgY_orig, tmp1184
	addq	%rdx, %rax	# D.10404, D.10408
	movq	(%rax), %rax	# *_242, D.10409
	movl	-1112(%rbp), %edx	# i, tmp1185
	movl	-1052(%rbp), %ecx	# pic_opix_x, tmp1186
	addl	%ecx, %edx	# tmp1186, D.10402
	movslq	%edx, %rdx	# D.10402, D.10404
	addq	%rdx, %rdx	# D.10404
	addq	%rdx, %rax	# D.10404, D.10409
	movzwl	(%rax), %eax	# *_247, D.10410
	movzwl	%ax, %edx	# D.10410, D.10402
	movq	img(%rip), %rax	# img, img.29
	movl	-1112(%rbp), %ecx	# i, tmp1188
	movslq	%ecx, %rcx	# tmp1188, tmp1187
	movl	-1120(%rbp), %esi	# ipmode, tmp1190
	movslq	%esi, %rdi	# tmp1190, tmp1189
	movl	-1108(%rbp), %esi	# j, tmp1192
	movslq	%esi, %rsi	# tmp1192, tmp1191
	salq	$3, %rdi	#, tmp1193
	addq	%rdi, %rsi	# tmp1193, tmp1194
	salq	$3, %rsi	#, tmp1195
	addq	%rsi, %rcx	# tmp1195, tmp1196
	addq	$3672, %rcx	#, tmp1197
	movzwl	8(%rax,%rcx,2), %eax	# img.29_250->mprr_3, D.10410
	movzwl	%ax, %eax	# D.10410, D.10402
	subl	%eax, %edx	# D.10402, D.10402
	movl	-1104(%rbp), %eax	# k, tmp1199
	cltq
	movl	%edx, -784(%rbp,%rax,4)	# D.10402, diff
	.loc 1 312 0 discriminator 2
	addl	$1, -1112(%rbp)	#, i
	addl	$1, -1104(%rbp)	#, k
.L35:
	.loc 1 312 0 is_stmt 0 discriminator 1
	cmpl	$7, -1112(%rbp)	#, i
	jle	.L36	#,
	.loc 1 311 0 is_stmt 1
	addl	$1, -1108(%rbp)	#, j
.L34:
	.loc 1 311 0 is_stmt 0 discriminator 1
	cmpl	$7, -1108(%rbp)	#, j
	jle	.L37	#,
	.loc 1 316 0 is_stmt 1
	movl	-1120(%rbp), %eax	# ipmode, tmp1200
	cmpl	-1032(%rbp), %eax	# mostProbableMode, tmp1200
	je	.L38	#,
	.loc 1 316 0 is_stmt 0 discriminator 1
	movsd	-1168(%rbp), %xmm1	# lambda, tmp1201
	movsd	.LC4(%rip), %xmm0	#, tmp1202
	mulsd	%xmm1, %xmm0	# tmp1201, D.10411
	call	floor	#
	cvttsd2si	%xmm0, %eax	# D.10411, iftmp.30
	jmp	.L39	#
.L38:
	.loc 1 316 0 discriminator 2
	movl	$0, %eax	#, iftmp.30
.L39:
	.loc 1 316 0 discriminator 3
	movl	%eax, -1028(%rbp)	# iftmp.30, cost
	.loc 1 317 0 is_stmt 1 discriminator 3
	movq	input(%rip), %rax	# input, input.31
	movl	24(%rax), %edx	# input.31_263->hadamard, D.10402
	leaq	-784(%rbp), %rax	#, tmp1203
	movl	%edx, %esi	# D.10402,
	movq	%rax, %rdi	# tmp1203,
	call	SATD8X8	#
	addl	%eax, -1028(%rbp)	# D.10402, cost
	.loc 1 318 0 discriminator 3
	movq	-1176(%rbp), %rax	# min_cost, tmp1204
	movl	(%rax), %eax	# *min_cost_229(D), D.10402
	cmpl	-1028(%rbp), %eax	# cost, D.10402
	jle	.L32	#,
	.loc 1 320 0
	movl	-1120(%rbp), %eax	# ipmode, tmp1205
	movl	%eax, -1116(%rbp)	# tmp1205, best_ipmode
	.loc 1 321 0
	movq	-1176(%rbp), %rax	# min_cost, tmp1206
	movl	-1028(%rbp), %edx	# cost, tmp1207
	movl	%edx, (%rax)	# tmp1207, *min_cost_229(D)
	jmp	.L32	#
.L33:
	.loc 1 327 0
	movq	img(%rip), %rax	# img, img.32
	movl	72724(%rax), %eax	# img.32_269->residue_transform_flag, D.10402
	testl	%eax, %eax	# D.10402
	jne	.L41	#,
	.loc 1 330 0
	movl	$0, -1108(%rbp)	#, j
	jmp	.L42	#
.L45:
	.loc 1 331 0
	movl	$0, -1112(%rbp)	#, i
	jmp	.L43	#
.L44:
	.loc 1 333 0 discriminator 2
	movq	img(%rip), %rax	# img, img.33
	movl	-1112(%rbp), %edx	# i, tmp1208
	movl	-1068(%rbp), %ecx	# block_x, tmp1209
	leal	(%rcx,%rdx), %r8d	#, D.10402
	movl	-1108(%rbp), %edx	# j, tmp1210
	movl	-1064(%rbp), %ecx	# block_y, tmp1211
	leal	(%rcx,%rdx), %r9d	#, D.10402
	movq	img(%rip), %rdx	# img, img.34
	movl	-1112(%rbp), %ecx	# i, tmp1213
	movslq	%ecx, %rcx	# tmp1213, tmp1212
	movl	-1120(%rbp), %esi	# ipmode, tmp1215
	movslq	%esi, %rdi	# tmp1215, tmp1214
	movl	-1108(%rbp), %esi	# j, tmp1217
	movslq	%esi, %rsi	# tmp1217, tmp1216
	salq	$3, %rdi	#, tmp1218
	addq	%rdi, %rsi	# tmp1218, tmp1219
	salq	$3, %rsi	#, tmp1220
	addq	%rsi, %rcx	# tmp1220, tmp1221
	addq	$3672, %rcx	#, tmp1222
	movzwl	8(%rdx,%rcx,2), %edx	# img.34_276->mprr_3, D.10410
	movslq	%r9d, %rcx	# D.10402, tmp1223
	movslq	%r8d, %rsi	# D.10402, tmp1224
	salq	$4, %rsi	#, tmp1225
	addq	%rsi, %rcx	# tmp1225, tmp1226
	addq	$6296, %rcx	#, tmp1227
	movw	%dx, 8(%rax,%rcx,2)	# D.10410, img.33_273->mpr
	.loc 1 334 0 discriminator 2
	movq	img(%rip), %rax	# img, img.35
	movl	-1108(%rbp), %edx	# j, tmp1228
	movl	-1048(%rbp), %ecx	# pic_opix_y, tmp1229
	addl	%ecx, %edx	# tmp1229, D.10402
	movslq	%edx, %rdx	# D.10402, D.10404
	leaq	0(,%rdx,8), %rcx	#, D.10404
	movq	-984(%rbp), %rdx	# imgY_orig, tmp1230
	addq	%rcx, %rdx	# D.10404, D.10408
	movq	(%rdx), %rdx	# *_282, D.10409
	movl	-1112(%rbp), %ecx	# i, tmp1231
	movl	-1052(%rbp), %esi	# pic_opix_x, tmp1232
	addl	%esi, %ecx	# tmp1232, D.10402
	movslq	%ecx, %rcx	# D.10402, D.10404
	addq	%rcx, %rcx	# D.10404
	addq	%rcx, %rdx	# D.10404, D.10409
	movzwl	(%rdx), %edx	# *_287, D.10410
	movzwl	%dx, %ecx	# D.10410, D.10402
	movq	img(%rip), %rdx	# img, img.36
	movl	-1112(%rbp), %esi	# i, tmp1234
	movslq	%esi, %rsi	# tmp1234, tmp1233
	movl	-1120(%rbp), %edi	# ipmode, tmp1236
	movslq	%edi, %r8	# tmp1236, tmp1235
	movl	-1108(%rbp), %edi	# j, tmp1238
	movslq	%edi, %rdi	# tmp1238, tmp1237
	salq	$3, %r8	#, tmp1239
	addq	%r8, %rdi	# tmp1239, tmp1240
	salq	$3, %rdi	#, tmp1241
	addq	%rdi, %rsi	# tmp1241, tmp1242
	addq	$3672, %rsi	#, tmp1243
	movzwl	8(%rdx,%rsi,2), %edx	# img.36_290->mprr_3, D.10410
	movzwl	%dx, %edx	# D.10410, D.10402
	subl	%edx, %ecx	# D.10402, D.10402
	movl	-1108(%rbp), %edx	# j, tmp1245
	movslq	%edx, %rdx	# tmp1245, tmp1244
	movl	-1112(%rbp), %esi	# i, tmp1247
	movslq	%esi, %rsi	# tmp1247, tmp1246
	salq	$4, %rsi	#, tmp1248
	addq	%rsi, %rdx	# tmp1248, tmp1249
	addq	$3276, %rdx	#, tmp1250
	movl	%ecx, 8(%rax,%rdx,4)	# D.10402, img.35_278->m7
	.loc 1 331 0 discriminator 2
	addl	$1, -1112(%rbp)	#, i
.L43:
	.loc 1 331 0 is_stmt 0 discriminator 1
	cmpl	$7, -1112(%rbp)	#, i
	jle	.L44	#,
	.loc 1 330 0 is_stmt 1
	addl	$1, -1108(%rbp)	#, j
.L42:
	.loc 1 330 0 is_stmt 0 discriminator 1
	cmpl	$7, -1108(%rbp)	#, j
	jle	.L45	#,
	.loc 1 338 0 is_stmt 1
	movl	$0, %eax	#,
	call	store_coding_state_cs_cm	#
	.loc 1 341 0
	movl	-1032(%rbp), %ecx	# mostProbableMode, tmp1251
	movq	-1000(%rbp), %rdx	# min_rdcost, tmp1252
	movq	-1168(%rbp), %rax	# lambda, tmp1253
	movl	-1120(%rbp), %r8d	# ipmode, tmp1254
	movl	-1156(%rbp), %esi	# b8, tmp1255
	leaq	-1136(%rbp), %rdi	#, tmp1256
	movq	%rdx, -1184(%rbp)	# tmp1252, %sfp
	movsd	-1184(%rbp), %xmm1	# %sfp,
	movq	%rax, -1184(%rbp)	# tmp1253, %sfp
	movsd	-1184(%rbp), %xmm0	# %sfp,
	movl	%r8d, %edx	# tmp1254,
	call	RDCost_for_8x8IntraBlocks	#
	movsd	%xmm0, -1184(%rbp)	#, %sfp
	movq	-1184(%rbp), %rax	# %sfp, tmp1257
	movq	%rax, -992(%rbp)	# tmp1257, rdcost
	movsd	-1000(%rbp), %xmm0	# min_rdcost, tmp1258
	ucomisd	-992(%rbp), %xmm0	# rdcost, tmp1258
	jbe	.L46	#,
	.loc 1 344 0
	movl	$0, -1108(%rbp)	#, j
	jmp	.L48	#
.L53:
	.loc 1 345 0
	movl	$0, -1112(%rbp)	#, i
	jmp	.L49	#
.L52:
	.loc 1 346 0
	movl	$0, -1104(%rbp)	#, k
	jmp	.L50	#
.L51:
	.loc 1 347 0 discriminator 2
	movq	cofAC8x8(%rip), %rax	# cofAC8x8, cofAC8x8.37
	movl	-1156(%rbp), %edx	# b8, tmp1259
	movslq	%edx, %rdx	# tmp1259, D.10404
	salq	$3, %rdx	#, D.10404
	addq	%rdx, %rax	# D.10404, D.10412
	movq	(%rax), %rax	# *_303, D.10413
	movl	-1104(%rbp), %edx	# k, tmp1260
	movslq	%edx, %rdx	# tmp1260, D.10404
	salq	$3, %rdx	#, D.10404
	addq	%rdx, %rax	# D.10404, D.10413
	movq	(%rax), %rax	# *_307, D.10407
	movl	-1108(%rbp), %edx	# j, tmp1261
	movslq	%edx, %rdx	# tmp1261, D.10404
	salq	$3, %rdx	#, D.10404
	addq	%rdx, %rax	# D.10404, D.10407
	movq	(%rax), %rax	# *_311, D.10405
	movl	-1112(%rbp), %edx	# i, tmp1262
	movslq	%edx, %rdx	# tmp1262, D.10404
	salq	$2, %rdx	#, D.10404
	addq	%rax, %rdx	# D.10405, D.10405
	movq	img(%rip), %rax	# img, img.38
	movq	14136(%rax), %rax	# img.38_316->cofAC, D.10412
	movl	-1156(%rbp), %ecx	# b8, tmp1263
	movslq	%ecx, %rcx	# tmp1263, D.10404
	salq	$3, %rcx	#, D.10404
	addq	%rcx, %rax	# D.10404, D.10412
	movq	(%rax), %rax	# *_320, D.10413
	movl	-1104(%rbp), %ecx	# k, tmp1264
	movslq	%ecx, %rcx	# tmp1264, D.10404
	salq	$3, %rcx	#, D.10404
	addq	%rcx, %rax	# D.10404, D.10413
	movq	(%rax), %rax	# *_324, D.10407
	movl	-1108(%rbp), %ecx	# j, tmp1265
	movslq	%ecx, %rcx	# tmp1265, D.10404
	salq	$3, %rcx	#, D.10404
	addq	%rcx, %rax	# D.10404, D.10407
	movq	(%rax), %rax	# *_328, D.10405
	movl	-1112(%rbp), %ecx	# i, tmp1266
	movslq	%ecx, %rcx	# tmp1266, D.10404
	salq	$2, %rcx	#, D.10404
	addq	%rcx, %rax	# D.10404, D.10405
	movl	(%rax), %eax	# *_332, D.10402
	movl	%eax, (%rdx)	# D.10402, *_315
	.loc 1 346 0 discriminator 2
	addl	$1, -1104(%rbp)	#, k
.L50:
	.loc 1 346 0 is_stmt 0 discriminator 1
	cmpl	$3, -1104(%rbp)	#, k
	jle	.L51	#,
	.loc 1 345 0 is_stmt 1
	addl	$1, -1112(%rbp)	#, i
.L49:
	.loc 1 345 0 is_stmt 0 discriminator 1
	cmpl	$64, -1112(%rbp)	#, i
	jle	.L52	#,
	.loc 1 344 0 is_stmt 1
	addl	$1, -1108(%rbp)	#, j
.L48:
	.loc 1 344 0 is_stmt 0 discriminator 1
	cmpl	$1, -1108(%rbp)	#, j
	jle	.L53	#,
	.loc 1 350 0 is_stmt 1
	movl	$0, -1096(%rbp)	#, y
	jmp	.L54	#
.L57:
	.loc 1 351 0
	movl	$0, -1100(%rbp)	#, x
	jmp	.L55	#
.L56:
	.loc 1 352 0 discriminator 2
	movq	enc_picture(%rip), %rax	# enc_picture, enc_picture.39
	movq	6424(%rax), %rax	# enc_picture.39_339->imgY, D.10408
	movl	-1096(%rbp), %edx	# y, tmp1267
	movl	-1056(%rbp), %ecx	# pic_pix_y, tmp1268
	addl	%ecx, %edx	# tmp1268, D.10402
	movslq	%edx, %rdx	# D.10402, D.10404
	salq	$3, %rdx	#, D.10404
	addq	%rdx, %rax	# D.10404, D.10408
	movq	(%rax), %rax	# *_344, D.10409
	movl	-1100(%rbp), %edx	# x, tmp1269
	movl	-1060(%rbp), %ecx	# pic_pix_x, tmp1270
	addl	%ecx, %edx	# tmp1270, D.10402
	movslq	%edx, %rdx	# D.10402, D.10404
	addq	%rdx, %rdx	# D.10404
	addq	%rdx, %rax	# D.10404, D.10409
	movzwl	(%rax), %eax	# *_349, D.10410
	movl	-1100(%rbp), %edx	# x, tmp1272
	movslq	%edx, %rdx	# tmp1272, tmp1271
	movl	-1096(%rbp), %ecx	# y, tmp1274
	movslq	%ecx, %rcx	# tmp1274, tmp1273
	salq	$3, %rcx	#, tmp1275
	addq	%rcx, %rdx	# tmp1275, tmp1276
	movw	%ax, -912(%rbp,%rdx,2)	# D.10410, rec8x8
	.loc 1 351 0 discriminator 2
	addl	$1, -1100(%rbp)	#, x
.L55:
	.loc 1 351 0 is_stmt 0 discriminator 1
	cmpl	$7, -1100(%rbp)	#, x
	jle	.L56	#,
	.loc 1 350 0 is_stmt 1
	addl	$1, -1096(%rbp)	#, y
.L54:
	.loc 1 350 0 is_stmt 0 discriminator 1
	cmpl	$7, -1096(%rbp)	#, y
	jle	.L57	#,
	.loc 1 355 0 is_stmt 1
	movl	-1136(%rbp), %eax	# c_nz, tmp1277
	movl	%eax, -1092(%rbp)	# tmp1277, nonzero
	.loc 1 358 0
	movq	-992(%rbp), %rax	# rdcost, tmp1278
	movq	%rax, -1000(%rbp)	# tmp1278, min_rdcost
	.loc 1 359 0
	movl	-1120(%rbp), %eax	# ipmode, tmp1279
	movl	%eax, -1116(%rbp)	# tmp1279, best_ipmode
.L46:
	.loc 1 361 0
	movl	$0, %eax	#,
	call	reset_coding_state_cs_cm	#
	jmp	.L32	#
.L41:
	.loc 1 366 0
	movl	$0, -1108(%rbp)	#, j
	jmp	.L58	#
.L61:
	.loc 1 367 0
	movl	$0, -1112(%rbp)	#, i
	jmp	.L59	#
.L60:
	.loc 1 369 0 discriminator 2
	movq	imgUV_org(%rip), %rax	# imgUV_org, imgUV_org.40
	movq	(%rax), %rax	# *imgUV_org.40_358, D.10408
	movl	-1108(%rbp), %edx	# j, tmp1280
	movl	-1048(%rbp), %ecx	# pic_opix_y, tmp1281
	addl	%ecx, %edx	# tmp1281, D.10402
	movslq	%edx, %rdx	# D.10402, D.10404
	salq	$3, %rdx	#, D.10404
	addq	%rdx, %rax	# D.10404, D.10408
	movq	(%rax), %rax	# *_363, D.10409
	movl	-1112(%rbp), %edx	# i, tmp1282
	movl	-1052(%rbp), %ecx	# pic_opix_x, tmp1283
	addl	%ecx, %edx	# tmp1283, D.10402
	movslq	%edx, %rdx	# D.10402, D.10404
	addq	%rdx, %rdx	# D.10404
	addq	%rdx, %rax	# D.10404, D.10409
	movzwl	(%rax), %eax	# *_368, D.10410
	movzwl	%ax, %edx	# D.10410, D.10402
	movq	img(%rip), %rax	# img, img.41
	movl	-1112(%rbp), %ecx	# i, tmp1284
	movl	-1068(%rbp), %esi	# block_x, tmp1285
	leal	(%rsi,%rcx), %r8d	#, D.10402
	movl	-1108(%rbp), %ecx	# j, tmp1286
	movl	-1064(%rbp), %esi	# block_y, tmp1287
	addl	%esi, %ecx	# tmp1287, D.10402
	movslq	%ecx, %rcx	# D.10402, tmp1288
	movl	-1036(%rbp), %esi	# c_ipmode, tmp1290
	movslq	%esi, %rdi	# tmp1290, tmp1289
	movslq	%r8d, %rsi	# D.10402, tmp1291
	salq	$4, %rdi	#, tmp1292
	addq	%rdi, %rsi	# tmp1292, tmp1293
	salq	$4, %rsi	#, tmp1294
	addq	%rsi, %rcx	# tmp1294, tmp1295
	addq	$4248, %rcx	#, tmp1296
	movzwl	8(%rax,%rcx,2), %eax	# img.41_371->mprr_c, D.10410
	movzwl	%ax, %eax	# D.10410, D.10402
	subl	%eax, %edx	# D.10402, tmp1297
	movl	%edx, %eax	# tmp1297, tmp1297
	movl	%eax, -1024(%rbp)	# tmp1297, residue_B
	.loc 1 370 0 discriminator 2
	movq	imgY_org(%rip), %rax	# imgY_org, imgY_org.42
	movl	-1108(%rbp), %edx	# j, tmp1298
	movl	-1048(%rbp), %ecx	# pic_opix_y, tmp1299
	addl	%ecx, %edx	# tmp1299, D.10402
	movslq	%edx, %rdx	# D.10402, D.10404
	salq	$3, %rdx	#, D.10404
	addq	%rdx, %rax	# D.10404, D.10408
	movq	(%rax), %rax	# *_381, D.10409
	movl	-1112(%rbp), %edx	# i, tmp1300
	movl	-1052(%rbp), %ecx	# pic_opix_x, tmp1301
	addl	%ecx, %edx	# tmp1301, D.10402
	movslq	%edx, %rdx	# D.10402, D.10404
	addq	%rdx, %rdx	# D.10404
	addq	%rdx, %rax	# D.10404, D.10409
	movzwl	(%rax), %eax	# *_386, D.10410
	movzwl	%ax, %edx	# D.10410, D.10402
	movq	img(%rip), %rax	# img, img.43
	movl	-1112(%rbp), %ecx	# i, tmp1303
	movslq	%ecx, %rcx	# tmp1303, tmp1302
	movl	-1120(%rbp), %esi	# ipmode, tmp1305
	movslq	%esi, %rdi	# tmp1305, tmp1304
	movl	-1108(%rbp), %esi	# j, tmp1307
	movslq	%esi, %rsi	# tmp1307, tmp1306
	salq	$3, %rdi	#, tmp1308
	addq	%rdi, %rsi	# tmp1308, tmp1309
	salq	$3, %rsi	#, tmp1310
	addq	%rsi, %rcx	# tmp1310, tmp1311
	addq	$3672, %rcx	#, tmp1312
	movzwl	8(%rax,%rcx,2), %eax	# img.43_389->mprr_3, D.10410
	movzwl	%ax, %eax	# D.10410, D.10402
	subl	%eax, %edx	# D.10402, tmp1313
	movl	%edx, %eax	# tmp1313, tmp1313
	movl	%eax, -1020(%rbp)	# tmp1313, residue_G
	.loc 1 371 0 discriminator 2
	movq	imgUV_org(%rip), %rax	# imgUV_org, imgUV_org.44
	addq	$8, %rax	#, D.10414
	movq	(%rax), %rax	# *_394, D.10408
	movl	-1108(%rbp), %edx	# j, tmp1314
	movl	-1048(%rbp), %ecx	# pic_opix_y, tmp1315
	addl	%ecx, %edx	# tmp1315, D.10402
	movslq	%edx, %rdx	# D.10402, D.10404
	salq	$3, %rdx	#, D.10404
	addq	%rdx, %rax	# D.10404, D.10408
	movq	(%rax), %rax	# *_399, D.10409
	movl	-1112(%rbp), %edx	# i, tmp1316
	movl	-1052(%rbp), %ecx	# pic_opix_x, tmp1317
	addl	%ecx, %edx	# tmp1317, D.10402
	movslq	%edx, %rdx	# D.10402, D.10404
	addq	%rdx, %rdx	# D.10404
	addq	%rdx, %rax	# D.10404, D.10409
	movzwl	(%rax), %eax	# *_404, D.10410
	movzwl	%ax, %edx	# D.10410, D.10402
	movq	img(%rip), %rax	# img, img.45
	movl	-1112(%rbp), %ecx	# i, tmp1318
	movl	-1068(%rbp), %esi	# block_x, tmp1319
	leal	(%rsi,%rcx), %r8d	#, D.10402
	movl	-1108(%rbp), %ecx	# j, tmp1320
	movl	-1064(%rbp), %esi	# block_y, tmp1321
	addl	%esi, %ecx	# tmp1321, D.10402
	movslq	%ecx, %rcx	# D.10402, tmp1322
	movl	-1036(%rbp), %esi	# c_ipmode, tmp1324
	movslq	%esi, %rdi	# tmp1324, tmp1323
	movslq	%r8d, %rsi	# D.10402, tmp1325
	salq	$4, %rdi	#, tmp1326
	addq	%rdi, %rsi	# tmp1326, tmp1327
	salq	$4, %rsi	#, tmp1328
	addq	%rsi, %rcx	# tmp1328, tmp1329
	addq	$5272, %rcx	#, tmp1330
	movzwl	8(%rax,%rcx,2), %eax	# img.45_407->mprr_c, D.10410
	movzwl	%ax, %eax	# D.10410, D.10402
	subl	%eax, %edx	# D.10402, tmp1331
	movl	%edx, %eax	# tmp1331, tmp1331
	movl	%eax, -1016(%rbp)	# tmp1331, residue_R
	.loc 1 374 0 discriminator 2
	movl	-1024(%rbp), %eax	# residue_B, tmp1332
	movl	-1016(%rbp), %edx	# residue_R, tmp1333
	subl	%eax, %edx	# tmp1332, D.10402
	movl	-1108(%rbp), %eax	# j, tmp1335
	cltq
	movl	-1112(%rbp), %ecx	# i, tmp1337
	movslq	%ecx, %rcx	# tmp1337, tmp1336
	salq	$4, %rcx	#, tmp1338
	addq	%rcx, %rax	# tmp1338, tmp1339
	movl	%edx, resTrans_R(,%rax,4)	# D.10402, resTrans_R
	.loc 1 375 0 discriminator 2
	movl	-1108(%rbp), %eax	# j, tmp1341
	cltq
	movl	-1112(%rbp), %edx	# i, tmp1343
	movslq	%edx, %rdx	# tmp1343, tmp1342
	salq	$4, %rdx	#, tmp1344
	addq	%rdx, %rax	# tmp1344, tmp1345
	movl	resTrans_R(,%rax,4), %eax	# resTrans_R, D.10402
	sarl	%eax	# D.10402
	movl	%eax, %edx	# D.10402, D.10402
	movl	-1024(%rbp), %eax	# residue_B, tmp1349
	addl	%edx, %eax	# D.10402, tmp1348
	movl	%eax, -1012(%rbp)	# tmp1348, temp
	.loc 1 376 0 discriminator 2
	movl	-1012(%rbp), %eax	# temp, tmp1350
	movl	-1020(%rbp), %edx	# residue_G, tmp1351
	subl	%eax, %edx	# tmp1350, D.10402
	movl	-1108(%rbp), %eax	# j, tmp1353
	cltq
	movl	-1112(%rbp), %ecx	# i, tmp1355
	movslq	%ecx, %rcx	# tmp1355, tmp1354
	salq	$4, %rcx	#, tmp1356
	addq	%rcx, %rax	# tmp1356, tmp1357
	movl	%edx, resTrans_B(,%rax,4)	# D.10402, resTrans_B
	.loc 1 377 0 discriminator 2
	movl	-1108(%rbp), %eax	# j, tmp1359
	cltq
	movl	-1112(%rbp), %edx	# i, tmp1361
	movslq	%edx, %rdx	# tmp1361, tmp1360
	salq	$4, %rdx	#, tmp1362
	addq	%rdx, %rax	# tmp1362, tmp1363
	movl	resTrans_B(,%rax,4), %eax	# resTrans_B, D.10402
	sarl	%eax	# D.10402
	movl	%eax, %edx	# D.10402, D.10402
	movl	-1012(%rbp), %eax	# temp, tmp1364
	addl	%eax, %edx	# tmp1364, D.10402
	movl	-1108(%rbp), %eax	# j, tmp1366
	cltq
	movl	-1112(%rbp), %ecx	# i, tmp1368
	movslq	%ecx, %rcx	# tmp1368, tmp1367
	salq	$4, %rcx	#, tmp1369
	addq	%rcx, %rax	# tmp1369, tmp1370
	movl	%edx, resTrans_G(,%rax,4)	# D.10402, resTrans_G
	.loc 1 367 0 discriminator 2
	addl	$1, -1112(%rbp)	#, i
.L59:
	.loc 1 367 0 is_stmt 0 discriminator 1
	cmpl	$7, -1112(%rbp)	#, i
	jle	.L60	#,
	.loc 1 366 0 is_stmt 1
	addl	$1, -1108(%rbp)	#, j
.L58:
	.loc 1 366 0 is_stmt 0 discriminator 1
	cmpl	$7, -1108(%rbp)	#, j
	jle	.L61	#,
	.loc 1 380 0 is_stmt 1
	movl	$0, -1108(%rbp)	#, j
	jmp	.L62	#
.L65:
	.loc 1 381 0
	movl	$0, -1112(%rbp)	#, i
	jmp	.L63	#
.L64:
	.loc 1 383 0 discriminator 2
	movq	img(%rip), %rax	# img, img.46
	movl	-1108(%rbp), %edx	# j, tmp1372
	movslq	%edx, %rdx	# tmp1372, tmp1371
	movl	-1112(%rbp), %ecx	# i, tmp1374
	movslq	%ecx, %rcx	# tmp1374, tmp1373
	salq	$4, %rcx	#, tmp1375
	addq	%rcx, %rdx	# tmp1375, tmp1376
	movl	resTrans_G(,%rdx,4), %edx	# resTrans_G, D.10402
	movl	-1108(%rbp), %ecx	# j, tmp1378
	movslq	%ecx, %rcx	# tmp1378, tmp1377
	movl	-1112(%rbp), %esi	# i, tmp1380
	movslq	%esi, %rsi	# tmp1380, tmp1379
	salq	$4, %rsi	#, tmp1381
	addq	%rsi, %rcx	# tmp1381, tmp1382
	addq	$3276, %rcx	#, tmp1383
	movl	%edx, 8(%rax,%rcx,4)	# D.10402, img.46_425->m7
	.loc 1 381 0 discriminator 2
	addl	$1, -1112(%rbp)	#, i
.L63:
	.loc 1 381 0 is_stmt 0 discriminator 1
	cmpl	$7, -1112(%rbp)	#, i
	jle	.L64	#,
	.loc 1 380 0 is_stmt 1
	addl	$1, -1108(%rbp)	#, j
.L62:
	.loc 1 380 0 is_stmt 0 discriminator 1
	cmpl	$7, -1108(%rbp)	#, j
	jle	.L65	#,
	.loc 1 386 0 is_stmt 1
	movl	$0, %eax	#,
	call	store_coding_state_cs_cm	#
	.loc 1 387 0
	movl	-1032(%rbp), %ecx	# mostProbableMode, tmp1384
	movq	-1000(%rbp), %rdx	# min_rdcost, tmp1385
	movq	-1168(%rbp), %rax	# lambda, tmp1386
	movl	-1120(%rbp), %r8d	# ipmode, tmp1387
	movl	-1156(%rbp), %esi	# b8, tmp1388
	leaq	-1136(%rbp), %rdi	#, tmp1389
	movq	%rdx, -1184(%rbp)	# tmp1385, %sfp
	movsd	-1184(%rbp), %xmm1	# %sfp,
	movq	%rax, -1184(%rbp)	# tmp1386, %sfp
	movsd	-1184(%rbp), %xmm0	# %sfp,
	movl	%r8d, %edx	# tmp1387,
	call	RDCost_for_8x8IntraBlocks	#
	cvttsd2si	%xmm0, %eax	# D.10411, tmp1390
	movl	%eax, -1080(%rbp)	# tmp1390, rate
	.loc 1 388 0
	movl	$0, %eax	#,
	call	reset_coding_state_cs_cm	#
	.loc 1 390 0
	movl	$0, -1108(%rbp)	#, j
	jmp	.L66	#
.L69:
	.loc 1 391 0
	movl	$0, -1112(%rbp)	#, i
	jmp	.L67	#
.L68:
	.loc 1 393 0 discriminator 2
	movq	img(%rip), %rax	# img, img.47
	movl	-1108(%rbp), %edx	# j, tmp1392
	movslq	%edx, %rdx	# tmp1392, tmp1391
	movl	-1112(%rbp), %ecx	# i, tmp1394
	movslq	%ecx, %rcx	# tmp1394, tmp1393
	salq	$4, %rcx	#, tmp1395
	addq	%rcx, %rdx	# tmp1395, tmp1396
	addq	$3276, %rdx	#, tmp1397
	movl	8(%rax,%rdx,4), %eax	# img.47_433->m7, D.10402
	movl	-1108(%rbp), %edx	# j, tmp1399
	movslq	%edx, %rdx	# tmp1399, tmp1398
	movl	-1112(%rbp), %ecx	# i, tmp1401
	movslq	%ecx, %rcx	# tmp1401, tmp1400
	salq	$4, %rcx	#, tmp1402
	addq	%rcx, %rdx	# tmp1402, tmp1403
	movl	%eax, rec_resG(,%rdx,4)	# D.10402, rec_resG
	.loc 1 391 0 discriminator 2
	addl	$1, -1112(%rbp)	#, i
.L67:
	.loc 1 391 0 is_stmt 0 discriminator 1
	cmpl	$7, -1112(%rbp)	#, i
	jle	.L68	#,
	.loc 1 390 0 is_stmt 1
	addl	$1, -1108(%rbp)	#, j
.L66:
	.loc 1 390 0 is_stmt 0 discriminator 1
	cmpl	$7, -1108(%rbp)	#, j
	jle	.L69	#,
	.loc 1 396 0 is_stmt 1
	movl	$0, %eax	#,
	call	store_coding_state_cs_cm	#
	.loc 1 397 0
	movl	$0, -1072(%rbp)	#, b4
	jmp	.L70	#
.L83:
	.loc 1 400 0
	movl	-1072(%rbp), %eax	# b4, tmp1404
	cltd
	shrl	$31, %edx	#, tmp1406
	addl	%edx, %eax	# tmp1406, tmp1407
	andl	$1, %eax	#, tmp1408
	subl	%edx, %eax	# tmp1406, tmp1409
	sall	$2, %eax	#, tmp1410
	movl	%eax, -1008(%rbp)	# tmp1410, block4x4_x
	.loc 1 401 0
	movl	-1072(%rbp), %eax	# b4, tmp1411
	movl	%eax, %edx	# tmp1411, tmp1412
	shrl	$31, %edx	#, tmp1412
	addl	%edx, %eax	# tmp1412, tmp1413
	sarl	%eax	# tmp1414
	sall	$2, %eax	#, tmp1415
	movl	%eax, -1004(%rbp)	# tmp1415, block4x4_y
	.loc 1 403 0
	movl	$0, -1108(%rbp)	#, j
	jmp	.L71	#
.L74:
	.loc 1 404 0
	movl	$0, -1112(%rbp)	#, i
	jmp	.L72	#
.L73:
	.loc 1 406 0 discriminator 2
	movq	img(%rip), %rax	# img, img.48
	movl	-1008(%rbp), %edx	# block4x4_x, tmp1416
	movl	-1112(%rbp), %ecx	# i, tmp1417
	leal	(%rcx,%rdx), %esi	#, D.10402
	movl	-1004(%rbp), %edx	# block4x4_y, tmp1418
	movl	-1108(%rbp), %ecx	# j, tmp1419
	addl	%ecx, %edx	# tmp1419, D.10402
	movslq	%edx, %rdx	# D.10402, tmp1420
	movslq	%esi, %rcx	# D.10402, tmp1421
	salq	$4, %rcx	#, tmp1422
	addq	%rcx, %rdx	# tmp1422, tmp1423
	movl	resTrans_R(,%rdx,4), %edx	# resTrans_R, D.10402
	movl	-1108(%rbp), %ecx	# j, tmp1425
	movslq	%ecx, %rcx	# tmp1425, tmp1424
	movl	-1112(%rbp), %esi	# i, tmp1427
	movslq	%esi, %rsi	# tmp1427, tmp1426
	salq	$4, %rsi	#, tmp1428
	addq	%rsi, %rcx	# tmp1428, tmp1429
	addq	$3276, %rcx	#, tmp1430
	movl	%edx, 8(%rax,%rcx,4)	# D.10402, img.48_444->m7
	.loc 1 404 0 discriminator 2
	addl	$1, -1112(%rbp)	#, i
.L72:
	.loc 1 404 0 is_stmt 0 discriminator 1
	cmpl	$3, -1112(%rbp)	#, i
	jle	.L73	#,
	.loc 1 403 0 is_stmt 1
	addl	$1, -1108(%rbp)	#, j
.L71:
	.loc 1 403 0 is_stmt 0 discriminator 1
	cmpl	$3, -1108(%rbp)	#, j
	jle	.L74	#,
	.loc 1 408 0 is_stmt 1
	movl	-1156(%rbp), %eax	# b8, tmp1431
	leal	4(%rax), %ecx	#, D.10402
	movl	-1072(%rbp), %eax	# b4, tmp1432
	movl	$0, %edx	#,
	movl	%eax, %esi	# tmp1432,
	movl	%ecx, %edi	# D.10402,
	call	RDCost_for_4x4Blocks_Chroma	#
	addl	%eax, -1080(%rbp)	# D.10402, rate
	.loc 1 409 0
	movl	$0, -1108(%rbp)	#, j
	jmp	.L75	#
.L78:
	.loc 1 410 0
	movl	$0, -1112(%rbp)	#, i
	jmp	.L76	#
.L77:
	.loc 1 412 0 discriminator 2
	movl	-1008(%rbp), %eax	# block4x4_x, tmp1433
	movl	-1112(%rbp), %edx	# i, tmp1434
	leal	(%rdx,%rax), %esi	#, D.10402
	movl	-1004(%rbp), %eax	# block4x4_y, tmp1435
	movl	-1108(%rbp), %edx	# j, tmp1436
	leal	(%rdx,%rax), %edi	#, D.10402
	movq	img(%rip), %rax	# img, img.49
	movl	-1108(%rbp), %edx	# j, tmp1438
	movslq	%edx, %rdx	# tmp1438, tmp1437
	movl	-1112(%rbp), %ecx	# i, tmp1440
	movslq	%ecx, %rcx	# tmp1440, tmp1439
	salq	$4, %rcx	#, tmp1441
	addq	%rcx, %rdx	# tmp1441, tmp1442
	addq	$3276, %rdx	#, tmp1443
	movl	8(%rax,%rdx,4), %eax	# img.49_457->m7, D.10402
	movslq	%edi, %rdx	# D.10402, tmp1444
	movslq	%esi, %rcx	# D.10402, tmp1445
	salq	$4, %rcx	#, tmp1446
	addq	%rcx, %rdx	# tmp1446, tmp1447
	movl	%eax, rec_resR(,%rdx,4)	# D.10402, rec_resR
	.loc 1 413 0 discriminator 2
	movq	img(%rip), %rax	# img, img.50
	movl	-1008(%rbp), %edx	# block4x4_x, tmp1448
	movl	-1112(%rbp), %ecx	# i, tmp1449
	leal	(%rcx,%rdx), %esi	#, D.10402
	movl	-1004(%rbp), %edx	# block4x4_y, tmp1450
	movl	-1108(%rbp), %ecx	# j, tmp1451
	addl	%ecx, %edx	# tmp1451, D.10402
	movslq	%edx, %rdx	# D.10402, tmp1452
	movslq	%esi, %rcx	# D.10402, tmp1453
	salq	$4, %rcx	#, tmp1454
	addq	%rcx, %rdx	# tmp1454, tmp1455
	movl	resTrans_B(,%rdx,4), %edx	# resTrans_B, D.10402
	movl	-1108(%rbp), %ecx	# j, tmp1457
	movslq	%ecx, %rcx	# tmp1457, tmp1456
	movl	-1112(%rbp), %esi	# i, tmp1459
	movslq	%esi, %rsi	# tmp1459, tmp1458
	salq	$4, %rsi	#, tmp1460
	addq	%rsi, %rcx	# tmp1460, tmp1461
	addq	$3276, %rcx	#, tmp1462
	movl	%edx, 8(%rax,%rcx,4)	# D.10402, img.50_459->m7
	.loc 1 410 0 discriminator 2
	addl	$1, -1112(%rbp)	#, i
.L76:
	.loc 1 410 0 is_stmt 0 discriminator 1
	cmpl	$3, -1112(%rbp)	#, i
	jle	.L77	#,
	.loc 1 409 0 is_stmt 1
	addl	$1, -1108(%rbp)	#, j
.L75:
	.loc 1 409 0 is_stmt 0 discriminator 1
	cmpl	$3, -1108(%rbp)	#, j
	jle	.L78	#,
	.loc 1 415 0 is_stmt 1
	movl	-1156(%rbp), %eax	# b8, tmp1463
	leal	8(%rax), %ecx	#, D.10402
	movl	-1072(%rbp), %eax	# b4, tmp1464
	movl	$1, %edx	#,
	movl	%eax, %esi	# tmp1464,
	movl	%ecx, %edi	# D.10402,
	call	RDCost_for_4x4Blocks_Chroma	#
	addl	%eax, -1080(%rbp)	# D.10402, rate
	.loc 1 416 0
	movl	$0, -1108(%rbp)	#, j
	jmp	.L79	#
.L82:
	.loc 1 417 0
	movl	$0, -1112(%rbp)	#, i
	jmp	.L80	#
.L81:
	.loc 1 419 0 discriminator 2
	movl	-1008(%rbp), %eax	# block4x4_x, tmp1465
	movl	-1112(%rbp), %edx	# i, tmp1466
	leal	(%rdx,%rax), %esi	#, D.10402
	movl	-1004(%rbp), %eax	# block4x4_y, tmp1467
	movl	-1108(%rbp), %edx	# j, tmp1468
	leal	(%rdx,%rax), %edi	#, D.10402
	movq	img(%rip), %rax	# img, img.51
	movl	-1108(%rbp), %edx	# j, tmp1470
	movslq	%edx, %rdx	# tmp1470, tmp1469
	movl	-1112(%rbp), %ecx	# i, tmp1472
	movslq	%ecx, %rcx	# tmp1472, tmp1471
	salq	$4, %rcx	#, tmp1473
	addq	%rcx, %rdx	# tmp1473, tmp1474
	addq	$3276, %rdx	#, tmp1475
	movl	8(%rax,%rdx,4), %eax	# img.51_472->m7, D.10402
	movslq	%edi, %rdx	# D.10402, tmp1476
	movslq	%esi, %rcx	# D.10402, tmp1477
	salq	$4, %rcx	#, tmp1478
	addq	%rcx, %rdx	# tmp1478, tmp1479
	movl	%eax, rec_resB(,%rdx,4)	# D.10402, rec_resB
	.loc 1 417 0 discriminator 2
	addl	$1, -1112(%rbp)	#, i
.L80:
	.loc 1 417 0 is_stmt 0 discriminator 1
	cmpl	$3, -1112(%rbp)	#, i
	jle	.L81	#,
	.loc 1 416 0 is_stmt 1
	addl	$1, -1108(%rbp)	#, j
.L79:
	.loc 1 416 0 is_stmt 0 discriminator 1
	cmpl	$3, -1108(%rbp)	#, j
	jle	.L82	#,
	.loc 1 397 0 is_stmt 1
	addl	$1, -1072(%rbp)	#, b4
.L70:
	.loc 1 397 0 is_stmt 0 discriminator 1
	cmpl	$3, -1072(%rbp)	#, b4
	jle	.L83	#,
	.loc 1 422 0 is_stmt 1
	movl	$0, %eax	#,
	call	reset_coding_state_cs_cm	#
	.loc 1 424 0
	movl	$0, -1108(%rbp)	#, j
	jmp	.L84	#
.L87:
	.loc 1 425 0
	movl	$0, -1112(%rbp)	#, i
	jmp	.L85	#
.L86:
	.loc 1 428 0 discriminator 2
	movl	-1108(%rbp), %eax	# j, tmp1481
	cltq
	movl	-1112(%rbp), %edx	# i, tmp1483
	movslq	%edx, %rdx	# tmp1483, tmp1482
	salq	$4, %rdx	#, tmp1484
	addq	%rdx, %rax	# tmp1484, tmp1485
	movl	rec_resG(,%rax,4), %eax	# rec_resG, D.10402
	movl	-1108(%rbp), %edx	# j, tmp1487
	movslq	%edx, %rdx	# tmp1487, tmp1486
	movl	-1112(%rbp), %ecx	# i, tmp1489
	movslq	%ecx, %rcx	# tmp1489, tmp1488
	salq	$4, %rcx	#, tmp1490
	addq	%rcx, %rdx	# tmp1490, tmp1491
	movl	rec_resB(,%rdx,4), %edx	# rec_resB, D.10402
	sarl	%edx	# D.10402
	subl	%edx, %eax	# D.10402, tmp1492
	movl	%eax, -1012(%rbp)	# tmp1492, temp
	.loc 1 429 0 discriminator 2
	movl	-1108(%rbp), %eax	# j, tmp1494
	cltq
	movl	-1112(%rbp), %edx	# i, tmp1496
	movslq	%edx, %rdx	# tmp1496, tmp1495
	salq	$4, %rdx	#, tmp1497
	addq	%rdx, %rax	# tmp1497, tmp1498
	movl	rec_resB(,%rax,4), %edx	# rec_resB, D.10402
	movl	-1012(%rbp), %eax	# temp, tmp1502
	addl	%edx, %eax	# D.10402, tmp1501
	movl	%eax, -1020(%rbp)	# tmp1501, residue_G
	.loc 1 430 0 discriminator 2
	movl	-1108(%rbp), %eax	# j, tmp1504
	cltq
	movl	-1112(%rbp), %edx	# i, tmp1506
	movslq	%edx, %rdx	# tmp1506, tmp1505
	salq	$4, %rdx	#, tmp1507
	addq	%rdx, %rax	# tmp1507, tmp1508
	movl	rec_resR(,%rax,4), %eax	# rec_resR, D.10402
	sarl	%eax	# D.10402
	movl	%eax, %edx	# D.10402, D.10402
	movl	-1012(%rbp), %eax	# temp, tmp1512
	subl	%edx, %eax	# D.10402, tmp1511
	movl	%eax, -1024(%rbp)	# tmp1511, residue_B
	.loc 1 431 0 discriminator 2
	movl	-1108(%rbp), %eax	# j, tmp1514
	cltq
	movl	-1112(%rbp), %edx	# i, tmp1516
	movslq	%edx, %rdx	# tmp1516, tmp1515
	salq	$4, %rdx	#, tmp1517
	addq	%rdx, %rax	# tmp1517, tmp1518
	movl	rec_resR(,%rax,4), %edx	# rec_resR, D.10402
	movl	-1024(%rbp), %eax	# residue_B, tmp1522
	addl	%edx, %eax	# D.10402, tmp1521
	movl	%eax, -1016(%rbp)	# tmp1521, residue_R
	.loc 1 432 0 discriminator 2
	movq	enc_picture(%rip), %rax	# enc_picture, enc_picture.52
	movq	6464(%rax), %rax	# enc_picture.52_490->imgUV, D.10414
	movq	(%rax), %rax	# *_491, D.10408
	movl	-1108(%rbp), %edx	# j, tmp1523
	movl	-1056(%rbp), %ecx	# pic_pix_y, tmp1524
	addl	%ecx, %edx	# tmp1524, D.10402
	movslq	%edx, %rdx	# D.10402, D.10404
	salq	$3, %rdx	#, D.10404
	addq	%rdx, %rax	# D.10404, D.10408
	movq	(%rax), %rax	# *_496, D.10409
	movl	-1112(%rbp), %edx	# i, tmp1525
	movl	-1060(%rbp), %ecx	# pic_pix_x, tmp1526
	addl	%ecx, %edx	# tmp1526, D.10402
	movslq	%edx, %rdx	# D.10402, D.10404
	addq	%rdx, %rdx	# D.10404
	leaq	(%rax,%rdx), %rcx	#, D.10409
	movq	img(%rip), %rax	# img, img.53
	movl	-1112(%rbp), %edx	# i, tmp1527
	movl	-1068(%rbp), %esi	# block_x, tmp1528
	leal	(%rsi,%rdx), %r8d	#, D.10402
	movl	-1108(%rbp), %edx	# j, tmp1529
	movl	-1064(%rbp), %esi	# block_y, tmp1530
	addl	%esi, %edx	# tmp1530, D.10402
	movslq	%edx, %rdx	# D.10402, tmp1531
	movl	-1036(%rbp), %esi	# c_ipmode, tmp1533
	movslq	%esi, %rdi	# tmp1533, tmp1532
	movslq	%r8d, %rsi	# D.10402, tmp1534
	salq	$4, %rdi	#, tmp1535
	addq	%rdi, %rsi	# tmp1535, tmp1536
	salq	$4, %rsi	#, tmp1537
	addq	%rsi, %rdx	# tmp1537, tmp1538
	addq	$4248, %rdx	#, tmp1539
	movzwl	8(%rax,%rdx,2), %eax	# img.53_502->mprr_c, D.10410
	movzwl	%ax, %edx	# D.10410, D.10402
	movl	-1024(%rbp), %eax	# residue_B, tmp1540
	addl	%edx, %eax	# D.10402, D.10402
	movl	$0, %edx	#, tmp1541
	testl	%eax, %eax	# D.10402
	cmovns	%eax, %edx	# D.10402,, D.10402
	movq	img(%rip), %rax	# img, img.54
	movl	72688(%rax), %eax	# img.54_509->max_imgpel_value_uv, D.10402
	cmpl	%eax, %edx	# D.10402, D.10402
	cmovle	%edx, %eax	# D.10402,, D.10402
	movw	%ax, (%rcx)	# D.10410, *_501
	.loc 1 433 0 discriminator 2
	movq	enc_picture(%rip), %rax	# enc_picture, enc_picture.55
	movq	6424(%rax), %rax	# enc_picture.55_513->imgY, D.10408
	movl	-1108(%rbp), %edx	# j, tmp1542
	movl	-1056(%rbp), %ecx	# pic_pix_y, tmp1543
	addl	%ecx, %edx	# tmp1543, D.10402
	movslq	%edx, %rdx	# D.10402, D.10404
	salq	$3, %rdx	#, D.10404
	addq	%rdx, %rax	# D.10404, D.10408
	movq	(%rax), %rax	# *_518, D.10409
	movl	-1112(%rbp), %edx	# i, tmp1544
	movl	-1060(%rbp), %ecx	# pic_pix_x, tmp1545
	addl	%ecx, %edx	# tmp1545, D.10402
	movslq	%edx, %rdx	# D.10402, D.10404
	addq	%rdx, %rdx	# D.10404
	leaq	(%rax,%rdx), %rcx	#, D.10409
	movq	img(%rip), %rax	# img, img.56
	movl	-1112(%rbp), %edx	# i, tmp1547
	movslq	%edx, %rdx	# tmp1547, tmp1546
	movl	-1120(%rbp), %esi	# ipmode, tmp1549
	movslq	%esi, %rdi	# tmp1549, tmp1548
	movl	-1108(%rbp), %esi	# j, tmp1551
	movslq	%esi, %rsi	# tmp1551, tmp1550
	salq	$3, %rdi	#, tmp1552
	addq	%rdi, %rsi	# tmp1552, tmp1553
	salq	$3, %rsi	#, tmp1554
	addq	%rsi, %rdx	# tmp1554, tmp1555
	addq	$3672, %rdx	#, tmp1556
	movzwl	8(%rax,%rdx,2), %eax	# img.56_524->mprr_3, D.10410
	movzwl	%ax, %edx	# D.10410, D.10402
	movl	-1020(%rbp), %eax	# residue_G, tmp1557
	addl	%edx, %eax	# D.10402, D.10402
	movl	$0, %edx	#, tmp1558
	testl	%eax, %eax	# D.10402
	cmovns	%eax, %edx	# D.10402,, D.10402
	movq	img(%rip), %rax	# img, img.57
	movl	72684(%rax), %eax	# img.57_529->max_imgpel_value, D.10402
	cmpl	%eax, %edx	# D.10402, D.10402
	cmovle	%edx, %eax	# D.10402,, D.10402
	movw	%ax, (%rcx)	# D.10410, *_523
	.loc 1 434 0 discriminator 2
	movq	enc_picture(%rip), %rax	# enc_picture, enc_picture.58
	movq	6464(%rax), %rax	# enc_picture.58_533->imgUV, D.10414
	addq	$8, %rax	#, D.10414
	movq	(%rax), %rax	# *_535, D.10408
	movl	-1108(%rbp), %edx	# j, tmp1559
	movl	-1056(%rbp), %ecx	# pic_pix_y, tmp1560
	addl	%ecx, %edx	# tmp1560, D.10402
	movslq	%edx, %rdx	# D.10402, D.10404
	salq	$3, %rdx	#, D.10404
	addq	%rdx, %rax	# D.10404, D.10408
	movq	(%rax), %rax	# *_540, D.10409
	movl	-1112(%rbp), %edx	# i, tmp1561
	movl	-1060(%rbp), %ecx	# pic_pix_x, tmp1562
	addl	%ecx, %edx	# tmp1562, D.10402
	movslq	%edx, %rdx	# D.10402, D.10404
	addq	%rdx, %rdx	# D.10404
	leaq	(%rax,%rdx), %rcx	#, D.10409
	movq	img(%rip), %rax	# img, img.59
	movl	-1112(%rbp), %edx	# i, tmp1563
	movl	-1068(%rbp), %esi	# block_x, tmp1564
	leal	(%rsi,%rdx), %r8d	#, D.10402
	movl	-1108(%rbp), %edx	# j, tmp1565
	movl	-1064(%rbp), %esi	# block_y, tmp1566
	addl	%esi, %edx	# tmp1566, D.10402
	movslq	%edx, %rdx	# D.10402, tmp1567
	movl	-1036(%rbp), %esi	# c_ipmode, tmp1569
	movslq	%esi, %rdi	# tmp1569, tmp1568
	movslq	%r8d, %rsi	# D.10402, tmp1570
	salq	$4, %rdi	#, tmp1571
	addq	%rdi, %rsi	# tmp1571, tmp1572
	salq	$4, %rsi	#, tmp1573
	addq	%rsi, %rdx	# tmp1573, tmp1574
	addq	$5272, %rdx	#, tmp1575
	movzwl	8(%rax,%rdx,2), %eax	# img.59_546->mprr_c, D.10410
	movzwl	%ax, %edx	# D.10410, D.10402
	movl	-1016(%rbp), %eax	# residue_R, tmp1576
	addl	%edx, %eax	# D.10402, D.10402
	movl	$0, %edx	#, tmp1577
	testl	%eax, %eax	# D.10402
	cmovns	%eax, %edx	# D.10402,, D.10402
	movq	img(%rip), %rax	# img, img.60
	movl	72688(%rax), %eax	# img.60_553->max_imgpel_value_uv, D.10402
	cmpl	%eax, %edx	# D.10402, D.10402
	cmovle	%edx, %eax	# D.10402,, D.10402
	movw	%ax, (%rcx)	# D.10410, *_545
	.loc 1 425 0 discriminator 2
	addl	$1, -1112(%rbp)	#, i
.L85:
	.loc 1 425 0 is_stmt 0 discriminator 1
	cmpl	$7, -1112(%rbp)	#, i
	jle	.L86	#,
	.loc 1 424 0 is_stmt 1
	addl	$1, -1108(%rbp)	#, j
.L84:
	.loc 1 424 0 is_stmt 0 discriminator 1
	cmpl	$7, -1108(%rbp)	#, j
	jle	.L87	#,
	.loc 1 437 0 is_stmt 1
	movl	$0, -1076(%rbp)	#, distortion
	.loc 1 438 0
	movl	$0, -1096(%rbp)	#, y
	jmp	.L88	#
.L91:
	.loc 1 439 0
	movl	-1060(%rbp), %eax	# pic_pix_x, tmp1578
	movl	%eax, -1100(%rbp)	# tmp1578, x
	jmp	.L89	#
.L90:
	.loc 1 441 0 discriminator 2
	movq	imgY_org(%rip), %rax	# imgY_org, imgY_org.61
	movl	-1096(%rbp), %edx	# y, tmp1579
	movl	-1056(%rbp), %ecx	# pic_pix_y, tmp1580
	addl	%ecx, %edx	# tmp1580, D.10402
	movslq	%edx, %rdx	# D.10402, D.10404
	salq	$3, %rdx	#, D.10404
	addq	%rdx, %rax	# D.10404, D.10408
	movq	(%rax), %rax	# *_567, D.10409
	movl	-1100(%rbp), %edx	# x, tmp1581
	movslq	%edx, %rdx	# tmp1581, D.10404
	addq	%rdx, %rdx	# D.10404
	addq	%rdx, %rax	# D.10404, D.10409
	movzwl	(%rax), %eax	# *_571, D.10410
	movzwl	%ax, %edx	# D.10410, D.10402
	movq	enc_picture(%rip), %rax	# enc_picture, enc_picture.62
	movq	6424(%rax), %rax	# enc_picture.62_574->imgY, D.10408
	movl	-1096(%rbp), %ecx	# y, tmp1582
	movl	-1056(%rbp), %esi	# pic_pix_y, tmp1583
	addl	%esi, %ecx	# tmp1583, D.10402
	movslq	%ecx, %rcx	# D.10402, D.10404
	salq	$3, %rcx	#, D.10404
	addq	%rcx, %rax	# D.10404, D.10408
	movq	(%rax), %rax	# *_579, D.10409
	movl	-1100(%rbp), %ecx	# x, tmp1584
	movslq	%ecx, %rcx	# tmp1584, D.10404
	addq	%rcx, %rcx	# D.10404
	addq	%rcx, %rax	# D.10404, D.10409
	movzwl	(%rax), %eax	# *_583, D.10410
	movzwl	%ax, %eax	# D.10410, D.10402
	movl	%edx, %edi	# D.10402, D.10402
	subl	%eax, %edi	# D.10402, D.10402
	movq	imgY_org(%rip), %rax	# imgY_org, imgY_org.63
	movl	-1096(%rbp), %edx	# y, tmp1585
	movl	-1056(%rbp), %ecx	# pic_pix_y, tmp1586
	addl	%ecx, %edx	# tmp1586, D.10402
	movslq	%edx, %rdx	# D.10402, D.10404
	salq	$3, %rdx	#, D.10404
	addq	%rdx, %rax	# D.10404, D.10408
	movq	(%rax), %rax	# *_591, D.10409
	movl	-1100(%rbp), %edx	# x, tmp1587
	movslq	%edx, %rdx	# tmp1587, D.10404
	addq	%rdx, %rdx	# D.10404
	addq	%rdx, %rax	# D.10404, D.10409
	movzwl	(%rax), %eax	# *_595, D.10410
	movzwl	%ax, %edx	# D.10410, D.10402
	movq	enc_picture(%rip), %rax	# enc_picture, enc_picture.64
	movq	6424(%rax), %rax	# enc_picture.64_598->imgY, D.10408
	movl	-1096(%rbp), %ecx	# y, tmp1588
	movl	-1056(%rbp), %esi	# pic_pix_y, tmp1589
	addl	%esi, %ecx	# tmp1589, D.10402
	movslq	%ecx, %rcx	# D.10402, D.10404
	salq	$3, %rcx	#, D.10404
	addq	%rcx, %rax	# D.10404, D.10408
	movq	(%rax), %rax	# *_603, D.10409
	movl	-1100(%rbp), %ecx	# x, tmp1590
	movslq	%ecx, %rcx	# tmp1590, D.10404
	addq	%rcx, %rcx	# D.10404
	addq	%rcx, %rax	# D.10404, D.10409
	movzwl	(%rax), %eax	# *_607, D.10410
	movzwl	%ax, %eax	# D.10410, D.10402
	subl	%eax, %edx	# D.10402, D.10402
	movl	%edx, %eax	# D.10402, D.10402
	imull	%edi, %eax	# D.10402, D.10402
	addl	%eax, -1076(%rbp)	# D.10402, distortion
	.loc 1 442 0 discriminator 2
	movq	imgUV_org(%rip), %rax	# imgUV_org, imgUV_org.65
	movq	(%rax), %rax	# *imgUV_org.65_613, D.10408
	movl	-1096(%rbp), %edx	# y, tmp1591
	movl	-1056(%rbp), %ecx	# pic_pix_y, tmp1592
	addl	%ecx, %edx	# tmp1592, D.10402
	movslq	%edx, %rdx	# D.10402, D.10404
	salq	$3, %rdx	#, D.10404
	addq	%rdx, %rax	# D.10404, D.10408
	movq	(%rax), %rax	# *_618, D.10409
	movl	-1100(%rbp), %edx	# x, tmp1593
	movslq	%edx, %rdx	# tmp1593, D.10404
	addq	%rdx, %rdx	# D.10404
	addq	%rdx, %rax	# D.10404, D.10409
	movzwl	(%rax), %eax	# *_622, D.10410
	movzwl	%ax, %edx	# D.10410, D.10402
	movq	enc_picture(%rip), %rax	# enc_picture, enc_picture.66
	movq	6464(%rax), %rax	# enc_picture.66_625->imgUV, D.10414
	movq	(%rax), %rax	# *_626, D.10408
	movl	-1096(%rbp), %ecx	# y, tmp1594
	movl	-1056(%rbp), %esi	# pic_pix_y, tmp1595
	addl	%esi, %ecx	# tmp1595, D.10402
	movslq	%ecx, %rcx	# D.10402, D.10404
	salq	$3, %rcx	#, D.10404
	addq	%rcx, %rax	# D.10404, D.10408
	movq	(%rax), %rax	# *_631, D.10409
	movl	-1100(%rbp), %ecx	# x, tmp1596
	movslq	%ecx, %rcx	# tmp1596, D.10404
	addq	%rcx, %rcx	# D.10404
	addq	%rcx, %rax	# D.10404, D.10409
	movzwl	(%rax), %eax	# *_635, D.10410
	movzwl	%ax, %eax	# D.10410, D.10402
	movl	%edx, %edi	# D.10402, D.10402
	subl	%eax, %edi	# D.10402, D.10402
	movq	imgUV_org(%rip), %rax	# imgUV_org, imgUV_org.67
	movq	(%rax), %rax	# *imgUV_org.67_639, D.10408
	movl	-1096(%rbp), %edx	# y, tmp1597
	movl	-1056(%rbp), %ecx	# pic_pix_y, tmp1598
	addl	%ecx, %edx	# tmp1598, D.10402
	movslq	%edx, %rdx	# D.10402, D.10404
	salq	$3, %rdx	#, D.10404
	addq	%rdx, %rax	# D.10404, D.10408
	movq	(%rax), %rax	# *_644, D.10409
	movl	-1100(%rbp), %edx	# x, tmp1599
	movslq	%edx, %rdx	# tmp1599, D.10404
	addq	%rdx, %rdx	# D.10404
	addq	%rdx, %rax	# D.10404, D.10409
	movzwl	(%rax), %eax	# *_648, D.10410
	movzwl	%ax, %edx	# D.10410, D.10402
	movq	enc_picture(%rip), %rax	# enc_picture, enc_picture.68
	movq	6464(%rax), %rax	# enc_picture.68_651->imgUV, D.10414
	movq	(%rax), %rax	# *_652, D.10408
	movl	-1096(%rbp), %ecx	# y, tmp1600
	movl	-1056(%rbp), %esi	# pic_pix_y, tmp1601
	addl	%esi, %ecx	# tmp1601, D.10402
	movslq	%ecx, %rcx	# D.10402, D.10404
	salq	$3, %rcx	#, D.10404
	addq	%rcx, %rax	# D.10404, D.10408
	movq	(%rax), %rax	# *_657, D.10409
	movl	-1100(%rbp), %ecx	# x, tmp1602
	movslq	%ecx, %rcx	# tmp1602, D.10404
	addq	%rcx, %rcx	# D.10404
	addq	%rcx, %rax	# D.10404, D.10409
	movzwl	(%rax), %eax	# *_661, D.10410
	movzwl	%ax, %eax	# D.10410, D.10402
	subl	%eax, %edx	# D.10402, D.10402
	movl	%edx, %eax	# D.10402, D.10402
	imull	%edi, %eax	# D.10402, D.10402
	addl	%eax, -1076(%rbp)	# D.10402, distortion
	.loc 1 443 0 discriminator 2
	movq	imgUV_org(%rip), %rax	# imgUV_org, imgUV_org.69
	addq	$8, %rax	#, D.10414
	movq	(%rax), %rax	# *_668, D.10408
	movl	-1096(%rbp), %edx	# y, tmp1603
	movl	-1056(%rbp), %ecx	# pic_pix_y, tmp1604
	addl	%ecx, %edx	# tmp1604, D.10402
	movslq	%edx, %rdx	# D.10402, D.10404
	salq	$3, %rdx	#, D.10404
	addq	%rdx, %rax	# D.10404, D.10408
	movq	(%rax), %rax	# *_673, D.10409
	movl	-1100(%rbp), %edx	# x, tmp1605
	movslq	%edx, %rdx	# tmp1605, D.10404
	addq	%rdx, %rdx	# D.10404
	addq	%rdx, %rax	# D.10404, D.10409
	movzwl	(%rax), %eax	# *_677, D.10410
	movzwl	%ax, %edx	# D.10410, D.10402
	movq	enc_picture(%rip), %rax	# enc_picture, enc_picture.70
	movq	6464(%rax), %rax	# enc_picture.70_680->imgUV, D.10414
	addq	$8, %rax	#, D.10414
	movq	(%rax), %rax	# *_682, D.10408
	movl	-1096(%rbp), %ecx	# y, tmp1606
	movl	-1056(%rbp), %esi	# pic_pix_y, tmp1607
	addl	%esi, %ecx	# tmp1607, D.10402
	movslq	%ecx, %rcx	# D.10402, D.10404
	salq	$3, %rcx	#, D.10404
	addq	%rcx, %rax	# D.10404, D.10408
	movq	(%rax), %rax	# *_687, D.10409
	movl	-1100(%rbp), %ecx	# x, tmp1608
	movslq	%ecx, %rcx	# tmp1608, D.10404
	addq	%rcx, %rcx	# D.10404
	addq	%rcx, %rax	# D.10404, D.10409
	movzwl	(%rax), %eax	# *_691, D.10410
	movzwl	%ax, %eax	# D.10410, D.10402
	movl	%edx, %edi	# D.10402, D.10402
	subl	%eax, %edi	# D.10402, D.10402
	movq	imgUV_org(%rip), %rax	# imgUV_org, imgUV_org.71
	addq	$8, %rax	#, D.10414
	movq	(%rax), %rax	# *_696, D.10408
	movl	-1096(%rbp), %edx	# y, tmp1609
	movl	-1056(%rbp), %ecx	# pic_pix_y, tmp1610
	addl	%ecx, %edx	# tmp1610, D.10402
	movslq	%edx, %rdx	# D.10402, D.10404
	salq	$3, %rdx	#, D.10404
	addq	%rdx, %rax	# D.10404, D.10408
	movq	(%rax), %rax	# *_701, D.10409
	movl	-1100(%rbp), %edx	# x, tmp1611
	movslq	%edx, %rdx	# tmp1611, D.10404
	addq	%rdx, %rdx	# D.10404
	addq	%rdx, %rax	# D.10404, D.10409
	movzwl	(%rax), %eax	# *_705, D.10410
	movzwl	%ax, %edx	# D.10410, D.10402
	movq	enc_picture(%rip), %rax	# enc_picture, enc_picture.72
	movq	6464(%rax), %rax	# enc_picture.72_708->imgUV, D.10414
	addq	$8, %rax	#, D.10414
	movq	(%rax), %rax	# *_710, D.10408
	movl	-1096(%rbp), %ecx	# y, tmp1612
	movl	-1056(%rbp), %esi	# pic_pix_y, tmp1613
	addl	%esi, %ecx	# tmp1613, D.10402
	movslq	%ecx, %rcx	# D.10402, D.10404
	salq	$3, %rcx	#, D.10404
	addq	%rcx, %rax	# D.10404, D.10408
	movq	(%rax), %rax	# *_715, D.10409
	movl	-1100(%rbp), %ecx	# x, tmp1614
	movslq	%ecx, %rcx	# tmp1614, D.10404
	addq	%rcx, %rcx	# D.10404
	addq	%rcx, %rax	# D.10404, D.10409
	movzwl	(%rax), %eax	# *_719, D.10410
	movzwl	%ax, %eax	# D.10410, D.10402
	subl	%eax, %edx	# D.10402, D.10402
	movl	%edx, %eax	# D.10402, D.10402
	imull	%edi, %eax	# D.10402, D.10402
	addl	%eax, -1076(%rbp)	# D.10402, distortion
	.loc 1 439 0 discriminator 2
	addl	$1, -1100(%rbp)	#, x
.L89:
	.loc 1 439 0 is_stmt 0 discriminator 1
	movl	-1060(%rbp), %eax	# pic_pix_x, tmp1615
	addl	$8, %eax	#, D.10402
	cmpl	-1100(%rbp), %eax	# x, D.10402
	jg	.L90	#,
	.loc 1 438 0 is_stmt 1
	addl	$1, -1096(%rbp)	#, y
.L88:
	.loc 1 438 0 is_stmt 0 discriminator 1
	cmpl	$7, -1096(%rbp)	#, y
	jle	.L91	#,
	.loc 1 445 0 is_stmt 1
	cvtsi2sd	-1076(%rbp), %xmm1	# distortion, D.10411
	cvtsi2sd	-1080(%rbp), %xmm0	# rate, D.10411
	mulsd	-1168(%rbp), %xmm0	# lambda, D.10411
	addsd	%xmm1, %xmm0	# D.10411, tmp1616
	movsd	%xmm0, -992(%rbp)	# tmp1616, rdcost
	.loc 1 447 0
	movsd	-1000(%rbp), %xmm0	# min_rdcost, tmp1617
	ucomisd	-992(%rbp), %xmm0	# rdcost, tmp1617
	jbe	.L32	#,
	.loc 1 450 0
	movl	$0, -1108(%rbp)	#, j
	jmp	.L93	#
.L98:
	.loc 1 451 0
	movl	$0, -1112(%rbp)	#, i
	jmp	.L94	#
.L97:
	.loc 1 452 0
	movl	$0, -1104(%rbp)	#, k
	jmp	.L95	#
.L96:
	.loc 1 453 0 discriminator 2
	movq	cofAC8x8(%rip), %rax	# cofAC8x8, cofAC8x8.73
	movl	-1156(%rbp), %edx	# b8, tmp1618
	movslq	%edx, %rdx	# tmp1618, D.10404
	salq	$3, %rdx	#, D.10404
	addq	%rdx, %rax	# D.10404, D.10412
	movq	(%rax), %rax	# *_737, D.10413
	movl	-1104(%rbp), %edx	# k, tmp1619
	movslq	%edx, %rdx	# tmp1619, D.10404
	salq	$3, %rdx	#, D.10404
	addq	%rdx, %rax	# D.10404, D.10413
	movq	(%rax), %rax	# *_741, D.10407
	movl	-1108(%rbp), %edx	# j, tmp1620
	movslq	%edx, %rdx	# tmp1620, D.10404
	salq	$3, %rdx	#, D.10404
	addq	%rdx, %rax	# D.10404, D.10407
	movq	(%rax), %rax	# *_745, D.10405
	movl	-1112(%rbp), %edx	# i, tmp1621
	movslq	%edx, %rdx	# tmp1621, D.10404
	salq	$2, %rdx	#, D.10404
	addq	%rax, %rdx	# D.10405, D.10405
	movq	img(%rip), %rax	# img, img.74
	movq	14136(%rax), %rax	# img.74_750->cofAC, D.10412
	movl	-1156(%rbp), %ecx	# b8, tmp1622
	movslq	%ecx, %rcx	# tmp1622, D.10404
	salq	$3, %rcx	#, D.10404
	addq	%rcx, %rax	# D.10404, D.10412
	movq	(%rax), %rax	# *_754, D.10413
	movl	-1104(%rbp), %ecx	# k, tmp1623
	movslq	%ecx, %rcx	# tmp1623, D.10404
	salq	$3, %rcx	#, D.10404
	addq	%rcx, %rax	# D.10404, D.10413
	movq	(%rax), %rax	# *_758, D.10407
	movl	-1108(%rbp), %ecx	# j, tmp1624
	movslq	%ecx, %rcx	# tmp1624, D.10404
	salq	$3, %rcx	#, D.10404
	addq	%rcx, %rax	# D.10404, D.10407
	movq	(%rax), %rax	# *_762, D.10405
	movl	-1112(%rbp), %ecx	# i, tmp1625
	movslq	%ecx, %rcx	# tmp1625, D.10404
	salq	$2, %rcx	#, D.10404
	addq	%rcx, %rax	# D.10404, D.10405
	movl	(%rax), %eax	# *_766, D.10402
	movl	%eax, (%rdx)	# D.10402, *_749
	.loc 1 452 0 discriminator 2
	addl	$1, -1104(%rbp)	#, k
.L95:
	.loc 1 452 0 is_stmt 0 discriminator 1
	cmpl	$3, -1104(%rbp)	#, k
	jle	.L96	#,
	.loc 1 451 0 is_stmt 1
	addl	$1, -1112(%rbp)	#, i
.L94:
	.loc 1 451 0 is_stmt 0 discriminator 1
	cmpl	$64, -1112(%rbp)	#, i
	jle	.L97	#,
	.loc 1 450 0 is_stmt 1
	addl	$1, -1108(%rbp)	#, j
.L93:
	.loc 1 450 0 is_stmt 0 discriminator 1
	cmpl	$1, -1108(%rbp)	#, j
	jle	.L98	#,
	.loc 1 455 0 is_stmt 1
	movl	$0, -1072(%rbp)	#, b4
	jmp	.L99	#
.L114:
	.loc 1 457 0
	movl	-1072(%rbp), %eax	# b4, tmp1626
	cltd
	shrl	$31, %edx	#, tmp1628
	addl	%edx, %eax	# tmp1628, tmp1629
	andl	$1, %eax	#, tmp1630
	subl	%edx, %eax	# tmp1628, tmp1631
	sall	$2, %eax	#, tmp1632
	movl	%eax, -1008(%rbp)	# tmp1632, block4x4_x
	.loc 1 458 0
	movl	-1072(%rbp), %eax	# b4, tmp1633
	movl	%eax, %edx	# tmp1633, tmp1634
	shrl	$31, %edx	#, tmp1634
	addl	%edx, %eax	# tmp1634, tmp1635
	sarl	%eax	# tmp1636
	sall	$2, %eax	#, tmp1637
	movl	%eax, -1004(%rbp)	# tmp1637, block4x4_y
	.loc 1 460 0
	movl	$0, -1108(%rbp)	#, j
	jmp	.L100	#
.L103:
	.loc 1 461 0
	movl	$0, -1112(%rbp)	#, i
	jmp	.L101	#
.L102:
	.loc 1 461 0 is_stmt 0 discriminator 2
	movq	img(%rip), %rax	# img, img.75
	movq	14136(%rax), %rax	# img.75_778->cofAC, D.10412
	movl	-1156(%rbp), %edx	# b8, tmp1638
	movslq	%edx, %rdx	# tmp1638, D.10415
	addq	$4, %rdx	#, D.10415
	salq	$3, %rdx	#, D.10415
	addq	%rdx, %rax	# D.10415, D.10412
	movq	(%rax), %rax	# *_783, D.10413
	movl	-1072(%rbp), %edx	# b4, tmp1639
	movslq	%edx, %rdx	# tmp1639, D.10404
	salq	$3, %rdx	#, D.10404
	addq	%rdx, %rax	# D.10404, D.10413
	movq	(%rax), %rax	# *_787, D.10407
	movl	-1108(%rbp), %edx	# j, tmp1640
	movslq	%edx, %rdx	# tmp1640, D.10404
	salq	$3, %rdx	#, D.10404
	addq	%rdx, %rax	# D.10404, D.10407
	movq	(%rax), %rax	# *_791, D.10405
	movl	-1112(%rbp), %edx	# i, tmp1641
	movslq	%edx, %rdx	# tmp1641, D.10404
	salq	$2, %rdx	#, D.10404
	addq	%rdx, %rax	# D.10404, D.10405
	movl	(%rax), %esi	# *_795, D.10402
	movl	-1112(%rbp), %eax	# i, tmp1643
	movslq	%eax, %rdi	# tmp1643, tmp1642
	movl	-1072(%rbp), %eax	# b4, tmp1645
	cltq
	movl	-1108(%rbp), %edx	# j, tmp1647
	movslq	%edx, %rcx	# tmp1647, tmp1646
	movq	%rax, %rdx	# tmp1644, tmp1648
	salq	$3, %rdx	#, tmp1648
	addq	%rax, %rdx	# tmp1644, tmp1648
	leaq	0(,%rdx,4), %rax	#, tmp1649
	movq	%rax, %rdx	# tmp1649, tmp1648
	movq	%rcx, %rax	# tmp1646, tmp1650
	salq	$3, %rax	#, tmp1650
	addq	%rcx, %rax	# tmp1646, tmp1650
	addq	%rax, %rax	# tmp1651
	addq	%rdx, %rax	# tmp1648, tmp1652
	addq	%rdi, %rax	# tmp1642, tmp1653
	movl	%esi, cofAC8x8_chroma(,%rax,4)	# D.10402, cofAC8x8_chroma
	addl	$1, -1112(%rbp)	#, i
.L101:
	.loc 1 461 0 discriminator 1
	cmpl	$17, -1112(%rbp)	#, i
	jle	.L102	#,
	.loc 1 460 0 is_stmt 1
	addl	$1, -1108(%rbp)	#, j
.L100:
	.loc 1 460 0 is_stmt 0 discriminator 1
	cmpl	$1, -1108(%rbp)	#, j
	jle	.L103	#,
	.loc 1 462 0 is_stmt 1
	movl	$0, -1108(%rbp)	#, j
	jmp	.L104	#
.L107:
	.loc 1 463 0
	movl	$0, -1112(%rbp)	#, i
	jmp	.L105	#
.L106:
	.loc 1 463 0 is_stmt 0 discriminator 2
	movq	img(%rip), %rax	# img, img.76
	movq	14136(%rax), %rax	# img.76_801->cofAC, D.10412
	movl	-1156(%rbp), %edx	# b8, tmp1654
	movslq	%edx, %rdx	# tmp1654, D.10415
	addq	$8, %rdx	#, D.10415
	salq	$3, %rdx	#, D.10415
	addq	%rdx, %rax	# D.10415, D.10412
	movq	(%rax), %rax	# *_806, D.10413
	movl	-1072(%rbp), %edx	# b4, tmp1655
	movslq	%edx, %rdx	# tmp1655, D.10404
	salq	$3, %rdx	#, D.10404
	addq	%rdx, %rax	# D.10404, D.10413
	movq	(%rax), %rax	# *_810, D.10407
	movl	-1108(%rbp), %edx	# j, tmp1656
	movslq	%edx, %rdx	# tmp1656, D.10404
	salq	$3, %rdx	#, D.10404
	addq	%rdx, %rax	# D.10404, D.10407
	movq	(%rax), %rax	# *_814, D.10405
	movl	-1112(%rbp), %edx	# i, tmp1657
	movslq	%edx, %rdx	# tmp1657, D.10404
	salq	$2, %rdx	#, D.10404
	addq	%rdx, %rax	# D.10404, D.10405
	movl	(%rax), %esi	# *_818, D.10402
	movl	-1112(%rbp), %eax	# i, tmp1659
	movslq	%eax, %rdi	# tmp1659, tmp1658
	movl	-1072(%rbp), %eax	# b4, tmp1661
	cltq
	movl	-1108(%rbp), %edx	# j, tmp1663
	movslq	%edx, %rcx	# tmp1663, tmp1662
	movq	%rax, %rdx	# tmp1660, tmp1664
	salq	$3, %rdx	#, tmp1664
	addq	%rax, %rdx	# tmp1660, tmp1664
	leaq	0(,%rdx,4), %rax	#, tmp1665
	movq	%rax, %rdx	# tmp1665, tmp1664
	movq	%rcx, %rax	# tmp1662, tmp1666
	salq	$3, %rax	#, tmp1666
	addq	%rcx, %rax	# tmp1662, tmp1666
	addq	%rax, %rax	# tmp1667
	addq	%rdx, %rax	# tmp1664, tmp1668
	addq	%rdi, %rax	# tmp1658, tmp1669
	addq	$144, %rax	#, tmp1670
	movl	%esi, cofAC8x8_chroma(,%rax,4)	# D.10402, cofAC8x8_chroma
	addl	$1, -1112(%rbp)	#, i
.L105:
	.loc 1 463 0 discriminator 1
	cmpl	$17, -1112(%rbp)	#, i
	jle	.L106	#,
	.loc 1 462 0 is_stmt 1
	addl	$1, -1108(%rbp)	#, j
.L104:
	.loc 1 462 0 is_stmt 0 discriminator 1
	cmpl	$1, -1108(%rbp)	#, j
	jle	.L107	#,
	.loc 1 465 0 is_stmt 1
	movl	$0, -1112(%rbp)	#, i
	jmp	.L108	#
.L113:
	.loc 1 467 0
	movl	-1156(%rbp), %eax	# b8, tmp1671
	cltd
	shrl	$31, %edx	#, tmp1673
	addl	%edx, %eax	# tmp1673, tmp1674
	andl	$1, %eax	#, tmp1675
	subl	%edx, %eax	# tmp1673, tmp1676
	leal	(%rax,%rax), %ecx	#, D.10402
	movl	-1072(%rbp), %eax	# b4, tmp1677
	cltd
	shrl	$31, %edx	#, tmp1679
	addl	%edx, %eax	# tmp1679, tmp1680
	andl	$1, %eax	#, tmp1681
	subl	%edx, %eax	# tmp1679, tmp1682
	leal	(%rcx,%rax), %edi	#, D.10402
	movl	-1156(%rbp), %eax	# b8, tmp1683
	movl	%eax, %edx	# tmp1683, tmp1684
	shrl	$31, %edx	#, tmp1684
	addl	%edx, %eax	# tmp1684, tmp1685
	sarl	%eax	# tmp1686
	leal	(%rax,%rax), %edx	#, D.10402
	movl	-1072(%rbp), %eax	# b4, tmp1687
	movl	%eax, %ecx	# tmp1687, tmp1688
	shrl	$31, %ecx	#, tmp1688
	addl	%ecx, %eax	# tmp1688, tmp1689
	sarl	%eax	# tmp1690
	leal	(%rdx,%rax), %esi	#, D.10402
	movl	-1156(%rbp), %eax	# b8, tmp1691
	cltd
	shrl	$31, %edx	#, tmp1693
	addl	%edx, %eax	# tmp1693, tmp1694
	andl	$1, %eax	#, tmp1695
	subl	%edx, %eax	# tmp1693, tmp1696
	leal	(%rax,%rax), %ecx	#, D.10402
	movl	-1072(%rbp), %eax	# b4, tmp1697
	cltd
	shrl	$31, %edx	#, tmp1699
	addl	%edx, %eax	# tmp1699, tmp1700
	andl	$1, %eax	#, tmp1701
	subl	%edx, %eax	# tmp1699, tmp1702
	leal	(%rcx,%rax), %r8d	#, D.10402
	movl	-1156(%rbp), %eax	# b8, tmp1703
	movl	%eax, %edx	# tmp1703, tmp1704
	shrl	$31, %edx	#, tmp1704
	addl	%edx, %eax	# tmp1704, tmp1705
	sarl	%eax	# tmp1706
	leal	(%rax,%rax), %edx	#, D.10402
	movl	-1072(%rbp), %eax	# b4, tmp1707
	movl	%eax, %ecx	# tmp1707, tmp1708
	shrl	$31, %ecx	#, tmp1708
	addl	%ecx, %eax	# tmp1708, tmp1709
	sarl	%eax	# tmp1710
	addl	%edx, %eax	# D.10402, D.10402
	cltq
	movl	-1112(%rbp), %edx	# i, tmp1713
	movslq	%edx, %rcx	# tmp1713, tmp1712
	movslq	%r8d, %rdx	# D.10402, tmp1714
	salq	$2, %rcx	#, tmp1715
	addq	%rcx, %rdx	# tmp1715, tmp1716
	salq	$2, %rdx	#, tmp1717
	addq	%rdx, %rax	# tmp1717, tmp1718
	movl	dc_level_temp(,%rax,4), %eax	# dc_level_temp, D.10402
	movslq	%esi, %rdx	# D.10402, tmp1719
	movl	-1112(%rbp), %ecx	# i, tmp1721
	movslq	%ecx, %rsi	# tmp1721, tmp1720
	movslq	%edi, %rcx	# D.10402, tmp1722
	salq	$2, %rsi	#, tmp1723
	addq	%rsi, %rcx	# tmp1723, tmp1724
	salq	$2, %rcx	#, tmp1725
	addq	%rcx, %rdx	# tmp1725, tmp1726
	movl	%eax, dc_level(,%rdx,4)	# D.10402, dc_level
	.loc 1 468 0
	movl	-1156(%rbp), %eax	# b8, tmp1727
	cltd
	shrl	$31, %edx	#, tmp1729
	addl	%edx, %eax	# tmp1729, tmp1730
	andl	$1, %eax	#, tmp1731
	subl	%edx, %eax	# tmp1729, tmp1732
	leal	(%rax,%rax), %ecx	#, D.10402
	movl	-1072(%rbp), %eax	# b4, tmp1733
	cltd
	shrl	$31, %edx	#, tmp1735
	addl	%edx, %eax	# tmp1735, tmp1736
	andl	$1, %eax	#, tmp1737
	subl	%edx, %eax	# tmp1735, tmp1738
	leal	(%rcx,%rax), %edi	#, D.10402
	movl	-1156(%rbp), %eax	# b8, tmp1739
	movl	%eax, %edx	# tmp1739, tmp1740
	shrl	$31, %edx	#, tmp1740
	addl	%edx, %eax	# tmp1740, tmp1741
	sarl	%eax	# tmp1742
	leal	(%rax,%rax), %edx	#, D.10402
	movl	-1072(%rbp), %eax	# b4, tmp1743
	movl	%eax, %ecx	# tmp1743, tmp1744
	shrl	$31, %ecx	#, tmp1744
	addl	%ecx, %eax	# tmp1744, tmp1745
	sarl	%eax	# tmp1746
	leal	(%rdx,%rax), %esi	#, D.10402
	movl	-1156(%rbp), %eax	# b8, tmp1747
	cltd
	shrl	$31, %edx	#, tmp1749
	addl	%edx, %eax	# tmp1749, tmp1750
	andl	$1, %eax	#, tmp1751
	subl	%edx, %eax	# tmp1749, tmp1752
	leal	(%rax,%rax), %ecx	#, D.10402
	movl	-1072(%rbp), %eax	# b4, tmp1753
	cltd
	shrl	$31, %edx	#, tmp1755
	addl	%edx, %eax	# tmp1755, tmp1756
	andl	$1, %eax	#, tmp1757
	subl	%edx, %eax	# tmp1755, tmp1758
	leal	(%rcx,%rax), %r8d	#, D.10402
	movl	-1156(%rbp), %eax	# b8, tmp1759
	movl	%eax, %edx	# tmp1759, tmp1760
	shrl	$31, %edx	#, tmp1760
	addl	%edx, %eax	# tmp1760, tmp1761
	sarl	%eax	# tmp1762
	leal	(%rax,%rax), %edx	#, D.10402
	movl	-1072(%rbp), %eax	# b4, tmp1763
	movl	%eax, %ecx	# tmp1763, tmp1764
	shrl	$31, %ecx	#, tmp1764
	addl	%ecx, %eax	# tmp1764, tmp1765
	sarl	%eax	# tmp1766
	addl	%edx, %eax	# D.10402, D.10402
	cltq
	movl	-1112(%rbp), %edx	# i, tmp1769
	movslq	%edx, %rcx	# tmp1769, tmp1768
	movslq	%r8d, %rdx	# D.10402, tmp1770
	salq	$2, %rcx	#, tmp1771
	addq	%rcx, %rdx	# tmp1771, tmp1772
	salq	$2, %rdx	#, tmp1773
	addq	%rdx, %rax	# tmp1773, tmp1774
	movl	cbp_chroma_block_temp(,%rax,4), %eax	# cbp_chroma_block_temp, D.10402
	movslq	%esi, %rdx	# D.10402, tmp1775
	movl	-1112(%rbp), %ecx	# i, tmp1777
	movslq	%ecx, %rsi	# tmp1777, tmp1776
	movslq	%edi, %rcx	# D.10402, tmp1778
	salq	$2, %rsi	#, tmp1779
	addq	%rsi, %rcx	# tmp1779, tmp1780
	salq	$2, %rcx	#, tmp1781
	addq	%rcx, %rdx	# tmp1781, tmp1782
	movl	%eax, cbp_chroma_block(,%rdx,4)	# D.10402, cbp_chroma_block
	.loc 1 470 0
	movl	$0, -1096(%rbp)	#, y
	jmp	.L109	#
.L112:
	.loc 1 471 0
	movl	$0, -1100(%rbp)	#, x
	jmp	.L110	#
.L111:
	.loc 1 471 0 is_stmt 0 discriminator 2
	movq	enc_picture(%rip), %rax	# enc_picture, enc_picture.77
	movq	6464(%rax), %rax	# enc_picture.77_859->imgUV, D.10414
	movl	-1112(%rbp), %edx	# i, tmp1783
	movslq	%edx, %rdx	# tmp1783, D.10404
	salq	$3, %rdx	#, D.10404
	addq	%rdx, %rax	# D.10404, D.10414
	movq	(%rax), %rax	# *_863, D.10408
	movl	-1096(%rbp), %edx	# y, tmp1784
	movl	-1056(%rbp), %ecx	# pic_pix_y, tmp1785
	addl	%edx, %ecx	# tmp1784, D.10402
	movl	-1004(%rbp), %edx	# block4x4_y, tmp1786
	addl	%ecx, %edx	# D.10402, D.10402
	movslq	%edx, %rdx	# D.10402, D.10404
	salq	$3, %rdx	#, D.10404
	addq	%rdx, %rax	# D.10404, D.10408
	movq	(%rax), %rax	# *_869, D.10409
	movl	-1100(%rbp), %edx	# x, tmp1787
	movl	-1060(%rbp), %ecx	# pic_pix_x, tmp1788
	addl	%edx, %ecx	# tmp1787, D.10402
	movl	-1008(%rbp), %edx	# block4x4_x, tmp1789
	addl	%ecx, %edx	# D.10402, D.10402
	movslq	%edx, %rdx	# D.10402, D.10404
	addq	%rdx, %rdx	# D.10404
	addq	%rdx, %rax	# D.10404, D.10409
	movzwl	(%rax), %eax	# *_875, D.10410
	movzwl	%ax, %eax	# D.10410, D.10402
	movl	-1100(%rbp), %edx	# x, tmp1791
	movslq	%edx, %rdx	# tmp1791, tmp1790
	movl	-1072(%rbp), %ecx	# b4, tmp1793
	movslq	%ecx, %rcx	# tmp1793, tmp1792
	movl	-1112(%rbp), %esi	# i, tmp1795
	movslq	%esi, %rsi	# tmp1795, tmp1794
	salq	$2, %rsi	#, tmp1796
	addq	%rcx, %rsi	# tmp1792, tmp1797
	movl	-1096(%rbp), %ecx	# y, tmp1799
	movslq	%ecx, %rcx	# tmp1799, tmp1798
	salq	$2, %rsi	#, tmp1800
	addq	%rsi, %rcx	# tmp1800, tmp1801
	salq	$2, %rcx	#, tmp1802
	addq	%rcx, %rdx	# tmp1802, tmp1803
	movl	%eax, -528(%rbp,%rdx,4)	# D.10402, rec8x8_c
	addl	$1, -1100(%rbp)	#, x
.L110:
	.loc 1 471 0 discriminator 1
	cmpl	$3, -1100(%rbp)	#, x
	jle	.L111	#,
	.loc 1 470 0 is_stmt 1
	addl	$1, -1096(%rbp)	#, y
.L109:
	.loc 1 470 0 is_stmt 0 discriminator 1
	cmpl	$3, -1096(%rbp)	#, y
	jle	.L112	#,
	.loc 1 465 0 is_stmt 1
	addl	$1, -1112(%rbp)	#, i
.L108:
	.loc 1 465 0 is_stmt 0 discriminator 1
	cmpl	$1, -1112(%rbp)	#, i
	jle	.L113	#,
	.loc 1 455 0 is_stmt 1
	addl	$1, -1072(%rbp)	#, b4
.L99:
	.loc 1 455 0 is_stmt 0 discriminator 1
	cmpl	$3, -1072(%rbp)	#, b4
	jle	.L114	#,
	.loc 1 476 0 is_stmt 1
	movl	$0, -1096(%rbp)	#, y
	jmp	.L115	#
.L118:
	.loc 1 477 0
	movl	$0, -1100(%rbp)	#, x
	jmp	.L116	#
.L117:
	.loc 1 478 0 discriminator 2
	movq	enc_picture(%rip), %rax	# enc_picture, enc_picture.78
	movq	6424(%rax), %rax	# enc_picture.78_884->imgY, D.10408
	movl	-1096(%rbp), %edx	# y, tmp1804
	movl	-1056(%rbp), %ecx	# pic_pix_y, tmp1805
	addl	%ecx, %edx	# tmp1805, D.10402
	movslq	%edx, %rdx	# D.10402, D.10404
	salq	$3, %rdx	#, D.10404
	addq	%rdx, %rax	# D.10404, D.10408
	movq	(%rax), %rax	# *_889, D.10409
	movl	-1100(%rbp), %edx	# x, tmp1806
	movl	-1060(%rbp), %ecx	# pic_pix_x, tmp1807
	addl	%ecx, %edx	# tmp1807, D.10402
	movslq	%edx, %rdx	# D.10402, D.10404
	addq	%rdx, %rdx	# D.10404
	addq	%rdx, %rax	# D.10404, D.10409
	movzwl	(%rax), %eax	# *_894, D.10410
	movl	-1100(%rbp), %edx	# x, tmp1809
	movslq	%edx, %rdx	# tmp1809, tmp1808
	movl	-1096(%rbp), %ecx	# y, tmp1811
	movslq	%ecx, %rcx	# tmp1811, tmp1810
	salq	$3, %rcx	#, tmp1812
	addq	%rcx, %rdx	# tmp1812, tmp1813
	movw	%ax, -912(%rbp,%rdx,2)	# D.10410, rec8x8
	.loc 1 477 0 discriminator 2
	addl	$1, -1100(%rbp)	#, x
.L116:
	.loc 1 477 0 is_stmt 0 discriminator 1
	cmpl	$7, -1100(%rbp)	#, x
	jle	.L117	#,
	.loc 1 476 0 is_stmt 1
	addl	$1, -1096(%rbp)	#, y
.L115:
	.loc 1 476 0 is_stmt 0 discriminator 1
	cmpl	$7, -1096(%rbp)	#, y
	jle	.L118	#,
	.loc 1 481 0 is_stmt 1
	movl	-1136(%rbp), %eax	# c_nz, tmp1814
	movl	%eax, -1092(%rbp)	# tmp1814, nonzero
	.loc 1 484 0
	movq	-992(%rbp), %rax	# rdcost, tmp1815
	movq	%rax, -1000(%rbp)	# tmp1815, min_rdcost
	.loc 1 485 0
	movl	-1120(%rbp), %eax	# ipmode, tmp1816
	movl	%eax, -1116(%rbp)	# tmp1816, best_ipmode
.L32:
	.loc 1 302 0
	addl	$1, -1120(%rbp)	#, ipmode
.L26:
	.loc 1 302 0 is_stmt 0 discriminator 1
	cmpl	$8, -1120(%rbp)	#, ipmode
	jle	.L119	#,
	.loc 1 493 0 is_stmt 1
	movq	img(%rip), %rax	# img, img.79
	movq	112(%rax), %rax	# img.79_902->ipredmode8x8, D.10407
	movl	-1044(%rbp), %edx	# pic_block_x, tmp1817
	movslq	%edx, %rdx	# tmp1817, D.10404
	salq	$3, %rdx	#, D.10404
	addq	%rdx, %rax	# D.10404, D.10407
	movq	(%rax), %rax	# *_906, D.10405
	movl	-1040(%rbp), %edx	# pic_block_y, tmp1818
	movslq	%edx, %rdx	# tmp1818, D.10404
	salq	$2, %rdx	#, D.10404
	addq	%rax, %rdx	# D.10405, D.10405
	movl	-1116(%rbp), %eax	# best_ipmode, tmp1819
	movl	%eax, (%rdx)	# tmp1819, *_910
	.loc 1 494 0
	movq	img(%rip), %rax	# img, img.80
	movq	14168(%rax), %rdx	# img.80_911->mb_data, D.10403
	movq	img(%rip), %rax	# img, img.81
	movl	12(%rax), %eax	# img.81_913->current_mb_nr, D.10402
	cltq
	imulq	$632, %rax, %rax	#, D.10404, D.10404
	addq	%rax, %rdx	# D.10404, D.10403
	movl	-1156(%rbp), %eax	# b8, tmp1820
	leal	0(,%rax,4), %ecx	#, D.10402
	movl	-1032(%rbp), %eax	# mostProbableMode, tmp1821
	cmpl	-1116(%rbp), %eax	# best_ipmode, tmp1821
	je	.L120	#,
	.loc 1 494 0 is_stmt 0 discriminator 1
	movl	-1116(%rbp), %eax	# best_ipmode, tmp1822
	cmpl	-1032(%rbp), %eax	# mostProbableMode, tmp1822
	jl	.L121	#,
	movl	-1116(%rbp), %eax	# best_ipmode, tmp1823
	subl	$1, %eax	#, iftmp.83
	jmp	.L123	#
.L121:
	.loc 1 494 0 discriminator 2
	movl	-1116(%rbp), %eax	# best_ipmode, iftmp.83
	jmp	.L123	#
.L120:
	movl	$-1, %eax	#, iftmp.82
.L123:
	.loc 1 494 0 discriminator 3
	movslq	%ecx, %rcx	# D.10402, tmp1824
	addq	$96, %rcx	#, tmp1825
	movl	%eax, 12(%rdx,%rcx,4)	# iftmp.82, _917->intra_pred_modes8x8
	.loc 1 496 0 is_stmt 1 discriminator 3
	movl	$0, -1108(%rbp)	#, j
	jmp	.L124	#
.L127:
	.loc 1 497 0
	movl	$0, -1112(%rbp)	#, i
	jmp	.L125	#
.L126:
	.loc 1 498 0 discriminator 2
	movq	img(%rip), %rax	# img, img.84
	movq	112(%rax), %rcx	# img.84_925->ipredmode8x8, D.10407
	movq	img(%rip), %rax	# img, img.85
	movl	136(%rax), %eax	# img.85_927->mb_x, D.10402
	leal	0(,%rax,4), %edx	#, D.10402
	movl	-1112(%rbp), %eax	# i, tmp1826
	leal	(%rdx,%rax), %esi	#, D.10402
	movl	-1156(%rbp), %eax	# b8, tmp1827
	cltd
	shrl	$31, %edx	#, tmp1829
	addl	%edx, %eax	# tmp1829, tmp1830
	andl	$1, %eax	#, tmp1831
	subl	%edx, %eax	# tmp1829, tmp1832
	addl	%eax, %eax	# D.10402
	addl	%esi, %eax	# D.10402, D.10402
	cltq
	salq	$3, %rax	#, D.10404
	addq	%rcx, %rax	# D.10407, D.10407
	movq	(%rax), %rdx	# *_936, D.10405
	movq	img(%rip), %rax	# img, img.86
	movl	140(%rax), %eax	# img.86_938->mb_y, D.10402
	leal	0(,%rax,4), %ecx	#, D.10402
	movl	-1108(%rbp), %eax	# j, tmp1833
	addl	%eax, %ecx	# tmp1833, D.10402
	movl	-1156(%rbp), %eax	# b8, tmp1834
	movl	%eax, %esi	# tmp1834, tmp1835
	shrl	$31, %esi	#, tmp1835
	addl	%esi, %eax	# tmp1835, tmp1836
	sarl	%eax	# tmp1837
	addl	%eax, %eax	# D.10402
	addl	%ecx, %eax	# D.10402, D.10402
	cltq
	salq	$2, %rax	#, D.10404
	addq	%rax, %rdx	# D.10404, D.10405
	movl	-1116(%rbp), %eax	# best_ipmode, tmp1838
	movl	%eax, (%rdx)	# tmp1838, *_947
	.loc 1 497 0 discriminator 2
	addl	$1, -1112(%rbp)	#, i
.L125:
	.loc 1 497 0 is_stmt 0 discriminator 1
	cmpl	$1, -1112(%rbp)	#, i
	jle	.L126	#,
	.loc 1 496 0 is_stmt 1
	addl	$1, -1108(%rbp)	#, j
.L124:
	.loc 1 496 0 is_stmt 0 discriminator 1
	cmpl	$1, -1108(%rbp)	#, j
	jle	.L127	#,
	.loc 1 501 0 is_stmt 1
	movq	input(%rip), %rax	# input, input.87
	movl	2464(%rax), %eax	# input.87_950->rdopt, D.10402
	testl	%eax, %eax	# D.10402
	jne	.L128	#,
	.loc 1 504 0
	movq	img(%rip), %rax	# img, img.88
	movl	72724(%rax), %eax	# img.88_952->residue_transform_flag, D.10402
	testl	%eax, %eax	# D.10402
	jne	.L129	#,
	.loc 1 507 0
	movl	$0, -1108(%rbp)	#, j
	jmp	.L130	#
.L133:
	.loc 1 508 0
	movl	$0, -1112(%rbp)	#, i
	jmp	.L131	#
.L132:
	.loc 1 510 0 discriminator 2
	movq	img(%rip), %rax	# img, img.89
	movl	-1112(%rbp), %edx	# i, tmp1839
	movl	-1068(%rbp), %ecx	# block_x, tmp1840
	leal	(%rcx,%rdx), %r8d	#, D.10402
	movl	-1108(%rbp), %edx	# j, tmp1841
	movl	-1064(%rbp), %ecx	# block_y, tmp1842
	leal	(%rcx,%rdx), %r9d	#, D.10402
	movq	img(%rip), %rdx	# img, img.90
	movl	-1112(%rbp), %ecx	# i, tmp1844
	movslq	%ecx, %rcx	# tmp1844, tmp1843
	movl	-1116(%rbp), %esi	# best_ipmode, tmp1846
	movslq	%esi, %rdi	# tmp1846, tmp1845
	movl	-1108(%rbp), %esi	# j, tmp1848
	movslq	%esi, %rsi	# tmp1848, tmp1847
	salq	$3, %rdi	#, tmp1849
	addq	%rdi, %rsi	# tmp1849, tmp1850
	salq	$3, %rsi	#, tmp1851
	addq	%rsi, %rcx	# tmp1851, tmp1852
	addq	$3672, %rcx	#, tmp1853
	movzwl	8(%rdx,%rcx,2), %edx	# img.90_959->mprr_3, D.10410
	movslq	%r9d, %rcx	# D.10402, tmp1854
	movslq	%r8d, %rsi	# D.10402, tmp1855
	salq	$4, %rsi	#, tmp1856
	addq	%rsi, %rcx	# tmp1856, tmp1857
	addq	$6296, %rcx	#, tmp1858
	movw	%dx, 8(%rax,%rcx,2)	# D.10410, img.89_956->mpr
	.loc 1 511 0 discriminator 2
	movq	img(%rip), %rax	# img, img.91
	movl	-1108(%rbp), %edx	# j, tmp1859
	movl	-1048(%rbp), %ecx	# pic_opix_y, tmp1860
	addl	%ecx, %edx	# tmp1860, D.10402
	movslq	%edx, %rdx	# D.10402, D.10404
	leaq	0(,%rdx,8), %rcx	#, D.10404
	movq	-984(%rbp), %rdx	# imgY_orig, tmp1861
	addq	%rcx, %rdx	# D.10404, D.10408
	movq	(%rdx), %rdx	# *_965, D.10409
	movl	-1112(%rbp), %ecx	# i, tmp1862
	movl	-1052(%rbp), %esi	# pic_opix_x, tmp1863
	addl	%esi, %ecx	# tmp1863, D.10402
	movslq	%ecx, %rcx	# D.10402, D.10404
	addq	%rcx, %rcx	# D.10404
	addq	%rcx, %rdx	# D.10404, D.10409
	movzwl	(%rdx), %edx	# *_970, D.10410
	movzwl	%dx, %ecx	# D.10410, D.10402
	movq	img(%rip), %rdx	# img, img.92
	movl	-1112(%rbp), %esi	# i, tmp1865
	movslq	%esi, %rsi	# tmp1865, tmp1864
	movl	-1116(%rbp), %edi	# best_ipmode, tmp1867
	movslq	%edi, %r8	# tmp1867, tmp1866
	movl	-1108(%rbp), %edi	# j, tmp1869
	movslq	%edi, %rdi	# tmp1869, tmp1868
	salq	$3, %r8	#, tmp1870
	addq	%r8, %rdi	# tmp1870, tmp1871
	salq	$3, %rdi	#, tmp1872
	addq	%rdi, %rsi	# tmp1872, tmp1873
	addq	$3672, %rsi	#, tmp1874
	movzwl	8(%rdx,%rsi,2), %edx	# img.92_973->mprr_3, D.10410
	movzwl	%dx, %edx	# D.10410, D.10402
	subl	%edx, %ecx	# D.10402, D.10402
	movl	-1108(%rbp), %edx	# j, tmp1876
	movslq	%edx, %rdx	# tmp1876, tmp1875
	movl	-1112(%rbp), %esi	# i, tmp1878
	movslq	%esi, %rsi	# tmp1878, tmp1877
	salq	$4, %rsi	#, tmp1879
	addq	%rsi, %rdx	# tmp1879, tmp1880
	addq	$3276, %rdx	#, tmp1881
	movl	%ecx, 8(%rax,%rdx,4)	# D.10402, img.91_961->m7
	.loc 1 508 0 discriminator 2
	addl	$1, -1112(%rbp)	#, i
.L131:
	.loc 1 508 0 is_stmt 0 discriminator 1
	cmpl	$7, -1112(%rbp)	#, i
	jle	.L132	#,
	.loc 1 507 0 is_stmt 1
	addl	$1, -1108(%rbp)	#, j
.L130:
	.loc 1 507 0 is_stmt 0 discriminator 1
	cmpl	$7, -1108(%rbp)	#, j
	jle	.L133	#,
	.loc 1 514 0 is_stmt 1
	leaq	-1140(%rbp), %rcx	#, tmp1882
	movl	-1156(%rbp), %eax	# b8, tmp1883
	movl	$1, %edx	#,
	movq	%rcx, %rsi	# tmp1882,
	movl	%eax, %edi	# tmp1883,
	call	dct_luma8x8	#
	movl	%eax, -1092(%rbp)	# tmp1884, nonzero
	jmp	.L134	#
.L129:
	.loc 1 518 0
	movl	$0, -1108(%rbp)	#, j
	jmp	.L135	#
.L138:
	.loc 1 519 0
	movl	$0, -1112(%rbp)	#, i
	jmp	.L136	#
.L137:
	.loc 1 521 0 discriminator 2
	movq	img(%rip), %rax	# img, img.93
	movl	-1112(%rbp), %edx	# i, tmp1885
	movl	-1068(%rbp), %ecx	# block_x, tmp1886
	leal	(%rcx,%rdx), %r8d	#, D.10402
	movl	-1108(%rbp), %edx	# j, tmp1887
	movl	-1064(%rbp), %ecx	# block_y, tmp1888
	leal	(%rcx,%rdx), %r9d	#, D.10402
	movq	img(%rip), %rdx	# img, img.94
	movl	-1112(%rbp), %ecx	# i, tmp1890
	movslq	%ecx, %rcx	# tmp1890, tmp1889
	movl	-1116(%rbp), %esi	# best_ipmode, tmp1892
	movslq	%esi, %rdi	# tmp1892, tmp1891
	movl	-1108(%rbp), %esi	# j, tmp1894
	movslq	%esi, %rsi	# tmp1894, tmp1893
	salq	$3, %rdi	#, tmp1895
	addq	%rdi, %rsi	# tmp1895, tmp1896
	salq	$3, %rsi	#, tmp1897
	addq	%rsi, %rcx	# tmp1897, tmp1898
	addq	$3672, %rcx	#, tmp1899
	movzwl	8(%rdx,%rcx,2), %edx	# img.94_985->mprr_3, D.10410
	movslq	%r9d, %rcx	# D.10402, tmp1900
	movslq	%r8d, %rsi	# D.10402, tmp1901
	salq	$4, %rsi	#, tmp1902
	addq	%rsi, %rcx	# tmp1902, tmp1903
	addq	$6296, %rcx	#, tmp1904
	movw	%dx, 8(%rax,%rcx,2)	# D.10410, img.93_982->mpr
	.loc 1 522 0 discriminator 2
	movq	imgUV_org(%rip), %rax	# imgUV_org, imgUV_org.95
	movq	(%rax), %rax	# *imgUV_org.95_987, D.10408
	movl	-1108(%rbp), %edx	# j, tmp1905
	movl	-1048(%rbp), %ecx	# pic_opix_y, tmp1906
	addl	%ecx, %edx	# tmp1906, D.10402
	movslq	%edx, %rdx	# D.10402, D.10404
	salq	$3, %rdx	#, D.10404
	addq	%rdx, %rax	# D.10404, D.10408
	movq	(%rax), %rax	# *_992, D.10409
	movl	-1112(%rbp), %edx	# i, tmp1907
	movl	-1052(%rbp), %ecx	# pic_opix_x, tmp1908
	addl	%ecx, %edx	# tmp1908, D.10402
	movslq	%edx, %rdx	# D.10402, D.10404
	addq	%rdx, %rdx	# D.10404
	addq	%rdx, %rax	# D.10404, D.10409
	movzwl	(%rax), %eax	# *_997, D.10410
	movzwl	%ax, %edx	# D.10410, D.10402
	movq	img(%rip), %rax	# img, img.96
	movl	-1112(%rbp), %ecx	# i, tmp1909
	movl	-1068(%rbp), %esi	# block_x, tmp1910
	leal	(%rsi,%rcx), %r8d	#, D.10402
	movl	-1108(%rbp), %ecx	# j, tmp1911
	movl	-1064(%rbp), %esi	# block_y, tmp1912
	addl	%esi, %ecx	# tmp1912, D.10402
	movslq	%ecx, %rcx	# D.10402, tmp1913
	movl	-1036(%rbp), %esi	# c_ipmode, tmp1915
	movslq	%esi, %rdi	# tmp1915, tmp1914
	movslq	%r8d, %rsi	# D.10402, tmp1916
	salq	$4, %rdi	#, tmp1917
	addq	%rdi, %rsi	# tmp1917, tmp1918
	salq	$4, %rsi	#, tmp1919
	addq	%rsi, %rcx	# tmp1919, tmp1920
	addq	$4248, %rcx	#, tmp1921
	movzwl	8(%rax,%rcx,2), %eax	# img.96_1000->mprr_c, D.10410
	movzwl	%ax, %eax	# D.10410, D.10402
	subl	%eax, %edx	# D.10402, tmp1922
	movl	%edx, %eax	# tmp1922, tmp1922
	movl	%eax, -1024(%rbp)	# tmp1922, residue_B
	.loc 1 523 0 discriminator 2
	movq	imgY_org(%rip), %rax	# imgY_org, imgY_org.97
	movl	-1108(%rbp), %edx	# j, tmp1923
	movl	-1048(%rbp), %ecx	# pic_opix_y, tmp1924
	addl	%ecx, %edx	# tmp1924, D.10402
	movslq	%edx, %rdx	# D.10402, D.10404
	salq	$3, %rdx	#, D.10404
	addq	%rdx, %rax	# D.10404, D.10408
	movq	(%rax), %rax	# *_1010, D.10409
	movl	-1112(%rbp), %edx	# i, tmp1925
	movl	-1052(%rbp), %ecx	# pic_opix_x, tmp1926
	addl	%ecx, %edx	# tmp1926, D.10402
	movslq	%edx, %rdx	# D.10402, D.10404
	addq	%rdx, %rdx	# D.10404
	addq	%rdx, %rax	# D.10404, D.10409
	movzwl	(%rax), %eax	# *_1015, D.10410
	movzwl	%ax, %edx	# D.10410, D.10402
	movq	img(%rip), %rax	# img, img.98
	movl	-1112(%rbp), %ecx	# i, tmp1928
	movslq	%ecx, %rcx	# tmp1928, tmp1927
	movl	-1116(%rbp), %esi	# best_ipmode, tmp1930
	movslq	%esi, %rdi	# tmp1930, tmp1929
	movl	-1108(%rbp), %esi	# j, tmp1932
	movslq	%esi, %rsi	# tmp1932, tmp1931
	salq	$3, %rdi	#, tmp1933
	addq	%rdi, %rsi	# tmp1933, tmp1934
	salq	$3, %rsi	#, tmp1935
	addq	%rsi, %rcx	# tmp1935, tmp1936
	addq	$3672, %rcx	#, tmp1937
	movzwl	8(%rax,%rcx,2), %eax	# img.98_1018->mprr_3, D.10410
	movzwl	%ax, %eax	# D.10410, D.10402
	subl	%eax, %edx	# D.10402, tmp1938
	movl	%edx, %eax	# tmp1938, tmp1938
	movl	%eax, -1020(%rbp)	# tmp1938, residue_G
	.loc 1 524 0 discriminator 2
	movq	imgUV_org(%rip), %rax	# imgUV_org, imgUV_org.99
	addq	$8, %rax	#, D.10414
	movq	(%rax), %rax	# *_1023, D.10408
	movl	-1108(%rbp), %edx	# j, tmp1939
	movl	-1048(%rbp), %ecx	# pic_opix_y, tmp1940
	addl	%ecx, %edx	# tmp1940, D.10402
	movslq	%edx, %rdx	# D.10402, D.10404
	salq	$3, %rdx	#, D.10404
	addq	%rdx, %rax	# D.10404, D.10408
	movq	(%rax), %rax	# *_1028, D.10409
	movl	-1112(%rbp), %edx	# i, tmp1941
	movl	-1052(%rbp), %ecx	# pic_opix_x, tmp1942
	addl	%ecx, %edx	# tmp1942, D.10402
	movslq	%edx, %rdx	# D.10402, D.10404
	addq	%rdx, %rdx	# D.10404
	addq	%rdx, %rax	# D.10404, D.10409
	movzwl	(%rax), %eax	# *_1033, D.10410
	movzwl	%ax, %edx	# D.10410, D.10402
	movq	img(%rip), %rax	# img, img.100
	movl	-1112(%rbp), %ecx	# i, tmp1943
	movl	-1068(%rbp), %esi	# block_x, tmp1944
	leal	(%rsi,%rcx), %r8d	#, D.10402
	movl	-1108(%rbp), %ecx	# j, tmp1945
	movl	-1064(%rbp), %esi	# block_y, tmp1946
	addl	%esi, %ecx	# tmp1946, D.10402
	movslq	%ecx, %rcx	# D.10402, tmp1947
	movl	-1036(%rbp), %esi	# c_ipmode, tmp1949
	movslq	%esi, %rdi	# tmp1949, tmp1948
	movslq	%r8d, %rsi	# D.10402, tmp1950
	salq	$4, %rdi	#, tmp1951
	addq	%rdi, %rsi	# tmp1951, tmp1952
	salq	$4, %rsi	#, tmp1953
	addq	%rsi, %rcx	# tmp1953, tmp1954
	addq	$5272, %rcx	#, tmp1955
	movzwl	8(%rax,%rcx,2), %eax	# img.100_1036->mprr_c, D.10410
	movzwl	%ax, %eax	# D.10410, D.10402
	subl	%eax, %edx	# D.10402, tmp1956
	movl	%edx, %eax	# tmp1956, tmp1956
	movl	%eax, -1016(%rbp)	# tmp1956, residue_R
	.loc 1 527 0 discriminator 2
	movl	-1024(%rbp), %eax	# residue_B, tmp1957
	movl	-1016(%rbp), %edx	# residue_R, tmp1958
	subl	%eax, %edx	# tmp1957, D.10402
	movl	-1108(%rbp), %eax	# j, tmp1960
	cltq
	movl	-1112(%rbp), %ecx	# i, tmp1962
	movslq	%ecx, %rcx	# tmp1962, tmp1961
	salq	$4, %rcx	#, tmp1963
	addq	%rcx, %rax	# tmp1963, tmp1964
	movl	%edx, resTrans_R(,%rax,4)	# D.10402, resTrans_R
	.loc 1 528 0 discriminator 2
	movl	-1108(%rbp), %eax	# j, tmp1966
	cltq
	movl	-1112(%rbp), %edx	# i, tmp1968
	movslq	%edx, %rdx	# tmp1968, tmp1967
	salq	$4, %rdx	#, tmp1969
	addq	%rdx, %rax	# tmp1969, tmp1970
	movl	resTrans_R(,%rax,4), %eax	# resTrans_R, D.10402
	sarl	%eax	# D.10402
	movl	%eax, %edx	# D.10402, D.10402
	movl	-1024(%rbp), %eax	# residue_B, tmp1974
	addl	%edx, %eax	# D.10402, tmp1973
	movl	%eax, -1012(%rbp)	# tmp1973, temp
	.loc 1 529 0 discriminator 2
	movl	-1012(%rbp), %eax	# temp, tmp1975
	movl	-1020(%rbp), %edx	# residue_G, tmp1976
	subl	%eax, %edx	# tmp1975, D.10402
	movl	-1108(%rbp), %eax	# j, tmp1978
	cltq
	movl	-1112(%rbp), %ecx	# i, tmp1980
	movslq	%ecx, %rcx	# tmp1980, tmp1979
	salq	$4, %rcx	#, tmp1981
	addq	%rcx, %rax	# tmp1981, tmp1982
	movl	%edx, resTrans_B(,%rax,4)	# D.10402, resTrans_B
	.loc 1 530 0 discriminator 2
	movl	-1108(%rbp), %eax	# j, tmp1984
	cltq
	movl	-1112(%rbp), %edx	# i, tmp1986
	movslq	%edx, %rdx	# tmp1986, tmp1985
	salq	$4, %rdx	#, tmp1987
	addq	%rdx, %rax	# tmp1987, tmp1988
	movl	resTrans_B(,%rax,4), %eax	# resTrans_B, D.10402
	sarl	%eax	# D.10402
	movl	%eax, %edx	# D.10402, D.10402
	movl	-1012(%rbp), %eax	# temp, tmp1989
	addl	%eax, %edx	# tmp1989, D.10402
	movl	-1108(%rbp), %eax	# j, tmp1991
	cltq
	movl	-1112(%rbp), %ecx	# i, tmp1993
	movslq	%ecx, %rcx	# tmp1993, tmp1992
	salq	$4, %rcx	#, tmp1994
	addq	%rcx, %rax	# tmp1994, tmp1995
	movl	%edx, resTrans_G(,%rax,4)	# D.10402, resTrans_G
	.loc 1 519 0 discriminator 2
	addl	$1, -1112(%rbp)	#, i
.L136:
	.loc 1 519 0 is_stmt 0 discriminator 1
	cmpl	$7, -1112(%rbp)	#, i
	jle	.L137	#,
	.loc 1 518 0 is_stmt 1
	addl	$1, -1108(%rbp)	#, j
.L135:
	.loc 1 518 0 is_stmt 0 discriminator 1
	cmpl	$7, -1108(%rbp)	#, j
	jle	.L138	#,
	.loc 1 533 0 is_stmt 1
	movl	$0, -1108(%rbp)	#, j
	jmp	.L139	#
.L142:
	.loc 1 534 0
	movl	$0, -1112(%rbp)	#, i
	jmp	.L140	#
.L141:
	.loc 1 536 0 discriminator 2
	movq	img(%rip), %rax	# img, img.101
	movl	-1108(%rbp), %edx	# j, tmp1997
	movslq	%edx, %rdx	# tmp1997, tmp1996
	movl	-1112(%rbp), %ecx	# i, tmp1999
	movslq	%ecx, %rcx	# tmp1999, tmp1998
	salq	$4, %rcx	#, tmp2000
	addq	%rcx, %rdx	# tmp2000, tmp2001
	movl	resTrans_G(,%rdx,4), %edx	# resTrans_G, D.10402
	movl	-1108(%rbp), %ecx	# j, tmp2003
	movslq	%ecx, %rcx	# tmp2003, tmp2002
	movl	-1112(%rbp), %esi	# i, tmp2005
	movslq	%esi, %rsi	# tmp2005, tmp2004
	salq	$4, %rsi	#, tmp2006
	addq	%rsi, %rcx	# tmp2006, tmp2007
	addq	$3276, %rcx	#, tmp2008
	movl	%edx, 8(%rax,%rcx,4)	# D.10402, img.101_1054->m7
	.loc 1 534 0 discriminator 2
	addl	$1, -1112(%rbp)	#, i
.L140:
	.loc 1 534 0 is_stmt 0 discriminator 1
	cmpl	$7, -1112(%rbp)	#, i
	jle	.L141	#,
	.loc 1 533 0 is_stmt 1
	addl	$1, -1108(%rbp)	#, j
.L139:
	.loc 1 533 0 is_stmt 0 discriminator 1
	cmpl	$7, -1108(%rbp)	#, j
	jle	.L142	#,
	.loc 1 539 0 is_stmt 1
	leaq	-1140(%rbp), %rcx	#, tmp2009
	movl	-1156(%rbp), %eax	# b8, tmp2010
	movl	$1, %edx	#,
	movq	%rcx, %rsi	# tmp2009,
	movl	%eax, %edi	# tmp2010,
	call	dct_luma8x8	#
	movl	%eax, -1092(%rbp)	# tmp2011, nonzero
	.loc 1 541 0
	movl	$0, -1108(%rbp)	#, j
	jmp	.L143	#
.L146:
	.loc 1 542 0
	movl	$0, -1112(%rbp)	#, i
	jmp	.L144	#
.L145:
	.loc 1 544 0 discriminator 2
	movq	img(%rip), %rax	# img, img.102
	movl	-1108(%rbp), %edx	# j, tmp2013
	movslq	%edx, %rdx	# tmp2013, tmp2012
	movl	-1112(%rbp), %ecx	# i, tmp2015
	movslq	%ecx, %rcx	# tmp2015, tmp2014
	salq	$4, %rcx	#, tmp2016
	addq	%rcx, %rdx	# tmp2016, tmp2017
	addq	$3276, %rdx	#, tmp2018
	movl	8(%rax,%rdx,4), %eax	# img.102_1061->m7, D.10402
	movl	-1108(%rbp), %edx	# j, tmp2020
	movslq	%edx, %rdx	# tmp2020, tmp2019
	movl	-1112(%rbp), %ecx	# i, tmp2022
	movslq	%ecx, %rcx	# tmp2022, tmp2021
	salq	$4, %rcx	#, tmp2023
	addq	%rcx, %rdx	# tmp2023, tmp2024
	movl	%eax, rec_resG(,%rdx,4)	# D.10402, rec_resG
	.loc 1 542 0 discriminator 2
	addl	$1, -1112(%rbp)	#, i
.L144:
	.loc 1 542 0 is_stmt 0 discriminator 1
	cmpl	$7, -1112(%rbp)	#, i
	jle	.L145	#,
	.loc 1 541 0 is_stmt 1
	addl	$1, -1108(%rbp)	#, j
.L143:
	.loc 1 541 0 is_stmt 0 discriminator 1
	cmpl	$7, -1108(%rbp)	#, j
	jle	.L146	#,
	.loc 1 547 0 is_stmt 1
	movl	$0, -1072(%rbp)	#, b4
	jmp	.L147	#
.L160:
	.loc 1 549 0
	movl	-1072(%rbp), %eax	# b4, tmp2025
	cltd
	shrl	$31, %edx	#, tmp2027
	addl	%edx, %eax	# tmp2027, tmp2028
	andl	$1, %eax	#, tmp2029
	subl	%edx, %eax	# tmp2027, tmp2030
	sall	$2, %eax	#, tmp2031
	movl	%eax, -1008(%rbp)	# tmp2031, block4x4_x
	.loc 1 550 0
	movl	-1072(%rbp), %eax	# b4, tmp2032
	movl	%eax, %edx	# tmp2032, tmp2033
	shrl	$31, %edx	#, tmp2033
	addl	%edx, %eax	# tmp2033, tmp2034
	sarl	%eax	# tmp2035
	sall	$2, %eax	#, tmp2036
	movl	%eax, -1004(%rbp)	# tmp2036, block4x4_y
	.loc 1 552 0
	movl	$0, -1108(%rbp)	#, j
	jmp	.L148	#
.L151:
	.loc 1 553 0
	movl	$0, -1112(%rbp)	#, i
	jmp	.L149	#
.L150:
	.loc 1 555 0 discriminator 2
	movq	img(%rip), %rax	# img, img.103
	movl	-1008(%rbp), %edx	# block4x4_x, tmp2037
	movl	-1112(%rbp), %ecx	# i, tmp2038
	leal	(%rcx,%rdx), %esi	#, D.10402
	movl	-1004(%rbp), %edx	# block4x4_y, tmp2039
	movl	-1108(%rbp), %ecx	# j, tmp2040
	addl	%ecx, %edx	# tmp2040, D.10402
	movslq	%edx, %rdx	# D.10402, tmp2041
	movslq	%esi, %rcx	# D.10402, tmp2042
	salq	$4, %rcx	#, tmp2043
	addq	%rcx, %rdx	# tmp2043, tmp2044
	movl	resTrans_R(,%rdx,4), %edx	# resTrans_R, D.10402
	movl	-1108(%rbp), %ecx	# j, tmp2046
	movslq	%ecx, %rcx	# tmp2046, tmp2045
	movl	-1112(%rbp), %esi	# i, tmp2048
	movslq	%esi, %rsi	# tmp2048, tmp2047
	salq	$4, %rsi	#, tmp2049
	addq	%rsi, %rcx	# tmp2049, tmp2050
	addq	$3276, %rcx	#, tmp2051
	movl	%edx, 8(%rax,%rcx,4)	# D.10402, img.103_1072->m7
	.loc 1 553 0 discriminator 2
	addl	$1, -1112(%rbp)	#, i
.L149:
	.loc 1 553 0 is_stmt 0 discriminator 1
	cmpl	$3, -1112(%rbp)	#, i
	jle	.L150	#,
	.loc 1 552 0 is_stmt 1
	addl	$1, -1108(%rbp)	#, j
.L148:
	.loc 1 552 0 is_stmt 0 discriminator 1
	cmpl	$3, -1108(%rbp)	#, j
	jle	.L151	#,
	.loc 1 557 0 is_stmt 1
	movl	-1156(%rbp), %eax	# b8, tmp2052
	cltd
	shrl	$31, %edx	#, tmp2054
	addl	%edx, %eax	# tmp2054, tmp2055
	andl	$1, %eax	#, tmp2056
	subl	%edx, %eax	# tmp2054, tmp2057
	leal	(%rax,%rax), %ecx	#, D.10402
	movl	-1072(%rbp), %eax	# b4, tmp2058
	cltd
	shrl	$31, %edx	#, tmp2060
	addl	%edx, %eax	# tmp2060, tmp2061
	andl	$1, %eax	#, tmp2062
	subl	%edx, %eax	# tmp2060, tmp2063
	leal	(%rcx,%rax), %ebx	#, D.10402
	movl	-1156(%rbp), %eax	# b8, tmp2064
	movl	%eax, %edx	# tmp2064, tmp2065
	shrl	$31, %edx	#, tmp2065
	addl	%edx, %eax	# tmp2065, tmp2066
	sarl	%eax	# tmp2067
	leal	(%rax,%rax), %edx	#, D.10402
	movl	-1072(%rbp), %eax	# b4, tmp2068
	movl	%eax, %ecx	# tmp2068, tmp2069
	shrl	$31, %ecx	#, tmp2069
	addl	%ecx, %eax	# tmp2069, tmp2070
	sarl	%eax	# tmp2071
	leal	(%rdx,%rax), %r12d	#, D.10402
	movl	-1156(%rbp), %eax	# b8, tmp2072
	leal	4(%rax), %ecx	#, D.10402
	movl	-1072(%rbp), %eax	# b4, tmp2073
	movl	%eax, %edx	# tmp2073,
	movl	%ecx, %esi	# D.10402,
	movl	$0, %edi	#,
	call	dct_chroma4x4	#
	movslq	%r12d, %rdx	# D.10402, tmp2074
	movslq	%ebx, %rcx	# D.10402, tmp2075
	salq	$2, %rcx	#, tmp2076
	addq	%rcx, %rdx	# tmp2076, tmp2077
	movl	%eax, cbp_chroma_block(,%rdx,4)	# D.10402, cbp_chroma_block
	.loc 1 558 0
	movl	-1156(%rbp), %eax	# b8, tmp2078
	cltd
	shrl	$31, %edx	#, tmp2080
	addl	%edx, %eax	# tmp2080, tmp2081
	andl	$1, %eax	#, tmp2082
	subl	%edx, %eax	# tmp2080, tmp2083
	leal	(%rax,%rax), %ecx	#, D.10402
	movl	-1072(%rbp), %eax	# b4, tmp2084
	cltd
	shrl	$31, %edx	#, tmp2086
	addl	%edx, %eax	# tmp2086, tmp2087
	andl	$1, %eax	#, tmp2088
	subl	%edx, %eax	# tmp2086, tmp2089
	addl	%eax, %ecx	# D.10402, D.10402
	movl	-1156(%rbp), %eax	# b8, tmp2090
	movl	%eax, %edx	# tmp2090, tmp2091
	shrl	$31, %edx	#, tmp2091
	addl	%edx, %eax	# tmp2091, tmp2092
	sarl	%eax	# tmp2093
	leal	(%rax,%rax), %edx	#, D.10402
	movl	-1072(%rbp), %eax	# b4, tmp2094
	movl	%eax, %esi	# tmp2094, tmp2095
	shrl	$31, %esi	#, tmp2095
	addl	%esi, %eax	# tmp2095, tmp2096
	sarl	%eax	# tmp2097
	leal	(%rdx,%rax), %esi	#, D.10402
	movl	-1156(%rbp), %eax	# b8, tmp2098
	cltd
	shrl	$31, %edx	#, tmp2100
	addl	%edx, %eax	# tmp2100, tmp2101
	andl	$1, %eax	#, tmp2102
	subl	%edx, %eax	# tmp2100, tmp2103
	leal	(%rax,%rax), %edi	#, D.10402
	movl	-1072(%rbp), %eax	# b4, tmp2104
	cltd
	shrl	$31, %edx	#, tmp2106
	addl	%edx, %eax	# tmp2106, tmp2107
	andl	$1, %eax	#, tmp2108
	subl	%edx, %eax	# tmp2106, tmp2109
	leal	(%rdi,%rax), %edx	#, D.10402
	movl	-1156(%rbp), %eax	# b8, tmp2110
	movl	%eax, %edi	# tmp2110, tmp2111
	shrl	$31, %edi	#, tmp2111
	addl	%edi, %eax	# tmp2111, tmp2112
	sarl	%eax	# tmp2113
	leal	(%rax,%rax), %edi	#, D.10402
	movl	-1072(%rbp), %eax	# b4, tmp2114
	movl	%eax, %r8d	# tmp2114, tmp2115
	shrl	$31, %r8d	#, tmp2115
	addl	%r8d, %eax	# tmp2115, tmp2116
	sarl	%eax	# tmp2117
	addl	%edi, %eax	# D.10402, D.10402
	cltq
	movslq	%edx, %rdx	# D.10402, tmp2119
	salq	$2, %rdx	#, tmp2120
	addq	%rdx, %rax	# tmp2120, tmp2121
	movl	dc_level_temp(,%rax,4), %eax	# dc_level_temp, D.10402
	movslq	%esi, %rdx	# D.10402, tmp2122
	movslq	%ecx, %rcx	# D.10402, tmp2123
	salq	$2, %rcx	#, tmp2124
	addq	%rcx, %rdx	# tmp2124, tmp2125
	movl	%eax, dc_level(,%rdx,4)	# D.10402, dc_level
	.loc 1 559 0
	movl	$0, -1108(%rbp)	#, j
	jmp	.L152	#
.L155:
	.loc 1 560 0
	movl	$0, -1112(%rbp)	#, i
	jmp	.L153	#
.L154:
	.loc 1 562 0 discriminator 2
	movl	-1008(%rbp), %eax	# block4x4_x, tmp2126
	movl	-1112(%rbp), %edx	# i, tmp2127
	leal	(%rdx,%rax), %esi	#, D.10402
	movl	-1004(%rbp), %eax	# block4x4_y, tmp2128
	movl	-1108(%rbp), %edx	# j, tmp2129
	leal	(%rdx,%rax), %edi	#, D.10402
	movq	img(%rip), %rax	# img, img.104
	movl	-1108(%rbp), %edx	# j, tmp2131
	movslq	%edx, %rdx	# tmp2131, tmp2130
	movl	-1112(%rbp), %ecx	# i, tmp2133
	movslq	%ecx, %rcx	# tmp2133, tmp2132
	salq	$4, %rcx	#, tmp2134
	addq	%rcx, %rdx	# tmp2134, tmp2135
	addq	$3276, %rdx	#, tmp2136
	movl	8(%rax,%rdx,4), %eax	# img.104_1109->m7, D.10402
	movslq	%edi, %rdx	# D.10402, tmp2137
	movslq	%esi, %rcx	# D.10402, tmp2138
	salq	$4, %rcx	#, tmp2139
	addq	%rcx, %rdx	# tmp2139, tmp2140
	movl	%eax, rec_resR(,%rdx,4)	# D.10402, rec_resR
	.loc 1 563 0 discriminator 2
	movq	img(%rip), %rax	# img, img.105
	movl	-1008(%rbp), %edx	# block4x4_x, tmp2141
	movl	-1112(%rbp), %ecx	# i, tmp2142
	leal	(%rcx,%rdx), %esi	#, D.10402
	movl	-1004(%rbp), %edx	# block4x4_y, tmp2143
	movl	-1108(%rbp), %ecx	# j, tmp2144
	addl	%ecx, %edx	# tmp2144, D.10402
	movslq	%edx, %rdx	# D.10402, tmp2145
	movslq	%esi, %rcx	# D.10402, tmp2146
	salq	$4, %rcx	#, tmp2147
	addq	%rcx, %rdx	# tmp2147, tmp2148
	movl	resTrans_B(,%rdx,4), %edx	# resTrans_B, D.10402
	movl	-1108(%rbp), %ecx	# j, tmp2150
	movslq	%ecx, %rcx	# tmp2150, tmp2149
	movl	-1112(%rbp), %esi	# i, tmp2152
	movslq	%esi, %rsi	# tmp2152, tmp2151
	salq	$4, %rsi	#, tmp2153
	addq	%rsi, %rcx	# tmp2153, tmp2154
	addq	$3276, %rcx	#, tmp2155
	movl	%edx, 8(%rax,%rcx,4)	# D.10402, img.105_1111->m7
	.loc 1 560 0 discriminator 2
	addl	$1, -1112(%rbp)	#, i
.L153:
	.loc 1 560 0 is_stmt 0 discriminator 1
	cmpl	$3, -1112(%rbp)	#, i
	jle	.L154	#,
	.loc 1 559 0 is_stmt 1
	addl	$1, -1108(%rbp)	#, j
.L152:
	.loc 1 559 0 is_stmt 0 discriminator 1
	cmpl	$3, -1108(%rbp)	#, j
	jle	.L155	#,
	.loc 1 565 0 is_stmt 1
	movl	-1156(%rbp), %eax	# b8, tmp2156
	cltd
	shrl	$31, %edx	#, tmp2158
	addl	%edx, %eax	# tmp2158, tmp2159
	andl	$1, %eax	#, tmp2160
	subl	%edx, %eax	# tmp2158, tmp2161
	leal	(%rax,%rax), %ecx	#, D.10402
	movl	-1072(%rbp), %eax	# b4, tmp2162
	cltd
	shrl	$31, %edx	#, tmp2164
	addl	%edx, %eax	# tmp2164, tmp2165
	andl	$1, %eax	#, tmp2166
	subl	%edx, %eax	# tmp2164, tmp2167
	leal	(%rcx,%rax), %ebx	#, D.10402
	movl	-1156(%rbp), %eax	# b8, tmp2168
	movl	%eax, %edx	# tmp2168, tmp2169
	shrl	$31, %edx	#, tmp2169
	addl	%edx, %eax	# tmp2169, tmp2170
	sarl	%eax	# tmp2171
	leal	(%rax,%rax), %edx	#, D.10402
	movl	-1072(%rbp), %eax	# b4, tmp2172
	movl	%eax, %ecx	# tmp2172, tmp2173
	shrl	$31, %ecx	#, tmp2173
	addl	%ecx, %eax	# tmp2173, tmp2174
	sarl	%eax	# tmp2175
	leal	(%rdx,%rax), %r12d	#, D.10402
	movl	-1156(%rbp), %eax	# b8, tmp2176
	leal	8(%rax), %ecx	#, D.10402
	movl	-1072(%rbp), %eax	# b4, tmp2177
	movl	%eax, %edx	# tmp2177,
	movl	%ecx, %esi	# D.10402,
	movl	$1, %edi	#,
	call	dct_chroma4x4	#
	movslq	%r12d, %rdx	# D.10402, tmp2178
	movslq	%ebx, %rcx	# D.10402, tmp2179
	salq	$2, %rcx	#, tmp2180
	addq	%rcx, %rdx	# tmp2180, tmp2181
	addq	$16, %rdx	#, tmp2182
	movl	%eax, cbp_chroma_block(,%rdx,4)	# D.10402, cbp_chroma_block
	.loc 1 566 0
	movl	-1156(%rbp), %eax	# b8, tmp2183
	cltd
	shrl	$31, %edx	#, tmp2185
	addl	%edx, %eax	# tmp2185, tmp2186
	andl	$1, %eax	#, tmp2187
	subl	%edx, %eax	# tmp2185, tmp2188
	leal	(%rax,%rax), %ecx	#, D.10402
	movl	-1072(%rbp), %eax	# b4, tmp2189
	cltd
	shrl	$31, %edx	#, tmp2191
	addl	%edx, %eax	# tmp2191, tmp2192
	andl	$1, %eax	#, tmp2193
	subl	%edx, %eax	# tmp2191, tmp2194
	addl	%eax, %ecx	# D.10402, D.10402
	movl	-1156(%rbp), %eax	# b8, tmp2195
	movl	%eax, %edx	# tmp2195, tmp2196
	shrl	$31, %edx	#, tmp2196
	addl	%edx, %eax	# tmp2196, tmp2197
	sarl	%eax	# tmp2198
	leal	(%rax,%rax), %edx	#, D.10402
	movl	-1072(%rbp), %eax	# b4, tmp2199
	movl	%eax, %esi	# tmp2199, tmp2200
	shrl	$31, %esi	#, tmp2200
	addl	%esi, %eax	# tmp2200, tmp2201
	sarl	%eax	# tmp2202
	leal	(%rdx,%rax), %esi	#, D.10402
	movl	-1156(%rbp), %eax	# b8, tmp2203
	cltd
	shrl	$31, %edx	#, tmp2205
	addl	%edx, %eax	# tmp2205, tmp2206
	andl	$1, %eax	#, tmp2207
	subl	%edx, %eax	# tmp2205, tmp2208
	leal	(%rax,%rax), %edi	#, D.10402
	movl	-1072(%rbp), %eax	# b4, tmp2209
	cltd
	shrl	$31, %edx	#, tmp2211
	addl	%edx, %eax	# tmp2211, tmp2212
	andl	$1, %eax	#, tmp2213
	subl	%edx, %eax	# tmp2211, tmp2214
	leal	(%rdi,%rax), %edx	#, D.10402
	movl	-1156(%rbp), %eax	# b8, tmp2215
	movl	%eax, %edi	# tmp2215, tmp2216
	shrl	$31, %edi	#, tmp2216
	addl	%edi, %eax	# tmp2216, tmp2217
	sarl	%eax	# tmp2218
	leal	(%rax,%rax), %edi	#, D.10402
	movl	-1072(%rbp), %eax	# b4, tmp2219
	movl	%eax, %r8d	# tmp2219, tmp2220
	shrl	$31, %r8d	#, tmp2220
	addl	%r8d, %eax	# tmp2220, tmp2221
	sarl	%eax	# tmp2222
	addl	%edi, %eax	# D.10402, D.10402
	cltq
	movslq	%edx, %rdx	# D.10402, tmp2224
	salq	$2, %rdx	#, tmp2225
	addq	%rdx, %rax	# tmp2225, tmp2226
	addq	$16, %rax	#, tmp2227
	movl	dc_level_temp(,%rax,4), %eax	# dc_level_temp, D.10402
	movslq	%esi, %rdx	# D.10402, tmp2228
	movslq	%ecx, %rcx	# D.10402, tmp2229
	salq	$2, %rcx	#, tmp2230
	addq	%rcx, %rdx	# tmp2230, tmp2231
	addq	$16, %rdx	#, tmp2232
	movl	%eax, dc_level(,%rdx,4)	# D.10402, dc_level
	.loc 1 567 0
	movl	$0, -1108(%rbp)	#, j
	jmp	.L156	#
.L159:
	.loc 1 568 0
	movl	$0, -1112(%rbp)	#, i
	jmp	.L157	#
.L158:
	.loc 1 570 0 discriminator 2
	movl	-1008(%rbp), %eax	# block4x4_x, tmp2233
	movl	-1112(%rbp), %edx	# i, tmp2234
	leal	(%rdx,%rax), %esi	#, D.10402
	movl	-1004(%rbp), %eax	# block4x4_y, tmp2235
	movl	-1108(%rbp), %edx	# j, tmp2236
	leal	(%rdx,%rax), %edi	#, D.10402
	movq	img(%rip), %rax	# img, img.106
	movl	-1108(%rbp), %edx	# j, tmp2238
	movslq	%edx, %rdx	# tmp2238, tmp2237
	movl	-1112(%rbp), %ecx	# i, tmp2240
	movslq	%ecx, %rcx	# tmp2240, tmp2239
	salq	$4, %rcx	#, tmp2241
	addq	%rcx, %rdx	# tmp2241, tmp2242
	addq	$3276, %rdx	#, tmp2243
	movl	8(%rax,%rdx,4), %eax	# img.106_1148->m7, D.10402
	movslq	%edi, %rdx	# D.10402, tmp2244
	movslq	%esi, %rcx	# D.10402, tmp2245
	salq	$4, %rcx	#, tmp2246
	addq	%rcx, %rdx	# tmp2246, tmp2247
	movl	%eax, rec_resB(,%rdx,4)	# D.10402, rec_resB
	.loc 1 568 0 discriminator 2
	addl	$1, -1112(%rbp)	#, i
.L157:
	.loc 1 568 0 is_stmt 0 discriminator 1
	cmpl	$3, -1112(%rbp)	#, i
	jle	.L158	#,
	.loc 1 567 0 is_stmt 1
	addl	$1, -1108(%rbp)	#, j
.L156:
	.loc 1 567 0 is_stmt 0 discriminator 1
	cmpl	$3, -1108(%rbp)	#, j
	jle	.L159	#,
	.loc 1 547 0 is_stmt 1
	addl	$1, -1072(%rbp)	#, b4
.L147:
	.loc 1 547 0 is_stmt 0 discriminator 1
	cmpl	$3, -1072(%rbp)	#, b4
	jle	.L160	#,
	.loc 1 574 0 is_stmt 1
	movl	$0, -1108(%rbp)	#, j
	jmp	.L161	#
.L164:
	.loc 1 575 0
	movl	$0, -1112(%rbp)	#, i
	jmp	.L162	#
.L163:
	.loc 1 578 0 discriminator 2
	movl	-1108(%rbp), %eax	# j, tmp2249
	cltq
	movl	-1112(%rbp), %edx	# i, tmp2251
	movslq	%edx, %rdx	# tmp2251, tmp2250
	salq	$4, %rdx	#, tmp2252
	addq	%rdx, %rax	# tmp2252, tmp2253
	movl	rec_resG(,%rax,4), %eax	# rec_resG, D.10402
	movl	-1108(%rbp), %edx	# j, tmp2255
	movslq	%edx, %rdx	# tmp2255, tmp2254
	movl	-1112(%rbp), %ecx	# i, tmp2257
	movslq	%ecx, %rcx	# tmp2257, tmp2256
	salq	$4, %rcx	#, tmp2258
	addq	%rcx, %rdx	# tmp2258, tmp2259
	movl	rec_resB(,%rdx,4), %edx	# rec_resB, D.10402
	sarl	%edx	# D.10402
	subl	%edx, %eax	# D.10402, tmp2260
	movl	%eax, -1012(%rbp)	# tmp2260, temp
	.loc 1 579 0 discriminator 2
	movl	-1108(%rbp), %eax	# j, tmp2262
	cltq
	movl	-1112(%rbp), %edx	# i, tmp2264
	movslq	%edx, %rdx	# tmp2264, tmp2263
	salq	$4, %rdx	#, tmp2265
	addq	%rdx, %rax	# tmp2265, tmp2266
	movl	rec_resB(,%rax,4), %edx	# rec_resB, D.10402
	movl	-1012(%rbp), %eax	# temp, tmp2270
	addl	%edx, %eax	# D.10402, tmp2269
	movl	%eax, -1020(%rbp)	# tmp2269, residue_G
	.loc 1 580 0 discriminator 2
	movl	-1108(%rbp), %eax	# j, tmp2272
	cltq
	movl	-1112(%rbp), %edx	# i, tmp2274
	movslq	%edx, %rdx	# tmp2274, tmp2273
	salq	$4, %rdx	#, tmp2275
	addq	%rdx, %rax	# tmp2275, tmp2276
	movl	rec_resR(,%rax,4), %eax	# rec_resR, D.10402
	sarl	%eax	# D.10402
	movl	%eax, %edx	# D.10402, D.10402
	movl	-1012(%rbp), %eax	# temp, tmp2280
	subl	%edx, %eax	# D.10402, tmp2279
	movl	%eax, -1024(%rbp)	# tmp2279, residue_B
	.loc 1 581 0 discriminator 2
	movl	-1108(%rbp), %eax	# j, tmp2282
	cltq
	movl	-1112(%rbp), %edx	# i, tmp2284
	movslq	%edx, %rdx	# tmp2284, tmp2283
	salq	$4, %rdx	#, tmp2285
	addq	%rdx, %rax	# tmp2285, tmp2286
	movl	rec_resR(,%rax,4), %edx	# rec_resR, D.10402
	movl	-1024(%rbp), %eax	# residue_B, tmp2290
	addl	%edx, %eax	# D.10402, tmp2289
	movl	%eax, -1016(%rbp)	# tmp2289, residue_R
	.loc 1 582 0 discriminator 2
	movq	enc_picture(%rip), %rax	# enc_picture, enc_picture.107
	movq	6464(%rax), %rax	# enc_picture.107_1166->imgUV, D.10414
	movq	(%rax), %rax	# *_1167, D.10408
	movl	-1108(%rbp), %edx	# j, tmp2291
	movl	-1056(%rbp), %ecx	# pic_pix_y, tmp2292
	addl	%ecx, %edx	# tmp2292, D.10402
	movslq	%edx, %rdx	# D.10402, D.10404
	salq	$3, %rdx	#, D.10404
	addq	%rdx, %rax	# D.10404, D.10408
	movq	(%rax), %rax	# *_1172, D.10409
	movl	-1112(%rbp), %edx	# i, tmp2293
	movl	-1060(%rbp), %ecx	# pic_pix_x, tmp2294
	addl	%ecx, %edx	# tmp2294, D.10402
	movslq	%edx, %rdx	# D.10402, D.10404
	addq	%rdx, %rdx	# D.10404
	leaq	(%rax,%rdx), %rcx	#, D.10409
	movq	img(%rip), %rax	# img, img.108
	movl	-1112(%rbp), %edx	# i, tmp2295
	movl	-1068(%rbp), %esi	# block_x, tmp2296
	leal	(%rsi,%rdx), %r8d	#, D.10402
	movl	-1108(%rbp), %edx	# j, tmp2297
	movl	-1064(%rbp), %esi	# block_y, tmp2298
	addl	%esi, %edx	# tmp2298, D.10402
	movslq	%edx, %rdx	# D.10402, tmp2299
	movl	-1036(%rbp), %esi	# c_ipmode, tmp2301
	movslq	%esi, %rdi	# tmp2301, tmp2300
	movslq	%r8d, %rsi	# D.10402, tmp2302
	salq	$4, %rdi	#, tmp2303
	addq	%rdi, %rsi	# tmp2303, tmp2304
	salq	$4, %rsi	#, tmp2305
	addq	%rsi, %rdx	# tmp2305, tmp2306
	addq	$4248, %rdx	#, tmp2307
	movzwl	8(%rax,%rdx,2), %eax	# img.108_1178->mprr_c, D.10410
	movzwl	%ax, %edx	# D.10410, D.10402
	movl	-1024(%rbp), %eax	# residue_B, tmp2308
	addl	%edx, %eax	# D.10402, D.10402
	movl	$0, %edx	#, tmp2309
	testl	%eax, %eax	# D.10402
	cmovns	%eax, %edx	# D.10402,, D.10402
	movq	img(%rip), %rax	# img, img.109
	movl	72688(%rax), %eax	# img.109_1185->max_imgpel_value_uv, D.10402
	cmpl	%eax, %edx	# D.10402, D.10402
	cmovle	%edx, %eax	# D.10402,, D.10402
	movw	%ax, (%rcx)	# D.10410, *_1177
	.loc 1 583 0 discriminator 2
	movq	enc_picture(%rip), %rax	# enc_picture, enc_picture.110
	movq	6424(%rax), %rax	# enc_picture.110_1189->imgY, D.10408
	movl	-1108(%rbp), %edx	# j, tmp2310
	movl	-1056(%rbp), %ecx	# pic_pix_y, tmp2311
	addl	%ecx, %edx	# tmp2311, D.10402
	movslq	%edx, %rdx	# D.10402, D.10404
	salq	$3, %rdx	#, D.10404
	addq	%rdx, %rax	# D.10404, D.10408
	movq	(%rax), %rax	# *_1194, D.10409
	movl	-1112(%rbp), %edx	# i, tmp2312
	movl	-1060(%rbp), %ecx	# pic_pix_x, tmp2313
	addl	%ecx, %edx	# tmp2313, D.10402
	movslq	%edx, %rdx	# D.10402, D.10404
	addq	%rdx, %rdx	# D.10404
	leaq	(%rax,%rdx), %rcx	#, D.10409
	movq	img(%rip), %rax	# img, img.111
	movl	-1112(%rbp), %edx	# i, tmp2315
	movslq	%edx, %rdx	# tmp2315, tmp2314
	movl	-1116(%rbp), %esi	# best_ipmode, tmp2317
	movslq	%esi, %rdi	# tmp2317, tmp2316
	movl	-1108(%rbp), %esi	# j, tmp2319
	movslq	%esi, %rsi	# tmp2319, tmp2318
	salq	$3, %rdi	#, tmp2320
	addq	%rdi, %rsi	# tmp2320, tmp2321
	salq	$3, %rsi	#, tmp2322
	addq	%rsi, %rdx	# tmp2322, tmp2323
	addq	$3672, %rdx	#, tmp2324
	movzwl	8(%rax,%rdx,2), %eax	# img.111_1200->mprr_3, D.10410
	movzwl	%ax, %edx	# D.10410, D.10402
	movl	-1020(%rbp), %eax	# residue_G, tmp2325
	addl	%edx, %eax	# D.10402, D.10402
	movl	$0, %edx	#, tmp2326
	testl	%eax, %eax	# D.10402
	cmovns	%eax, %edx	# D.10402,, D.10402
	movq	img(%rip), %rax	# img, img.112
	movl	72684(%rax), %eax	# img.112_1205->max_imgpel_value, D.10402
	cmpl	%eax, %edx	# D.10402, D.10402
	cmovle	%edx, %eax	# D.10402,, D.10402
	movw	%ax, (%rcx)	# D.10410, *_1199
	.loc 1 584 0 discriminator 2
	movq	enc_picture(%rip), %rax	# enc_picture, enc_picture.113
	movq	6464(%rax), %rax	# enc_picture.113_1209->imgUV, D.10414
	addq	$8, %rax	#, D.10414
	movq	(%rax), %rax	# *_1211, D.10408
	movl	-1108(%rbp), %edx	# j, tmp2327
	movl	-1056(%rbp), %ecx	# pic_pix_y, tmp2328
	addl	%ecx, %edx	# tmp2328, D.10402
	movslq	%edx, %rdx	# D.10402, D.10404
	salq	$3, %rdx	#, D.10404
	addq	%rdx, %rax	# D.10404, D.10408
	movq	(%rax), %rax	# *_1216, D.10409
	movl	-1112(%rbp), %edx	# i, tmp2329
	movl	-1060(%rbp), %ecx	# pic_pix_x, tmp2330
	addl	%ecx, %edx	# tmp2330, D.10402
	movslq	%edx, %rdx	# D.10402, D.10404
	addq	%rdx, %rdx	# D.10404
	leaq	(%rax,%rdx), %rcx	#, D.10409
	movq	img(%rip), %rax	# img, img.114
	movl	-1112(%rbp), %edx	# i, tmp2331
	movl	-1068(%rbp), %esi	# block_x, tmp2332
	leal	(%rsi,%rdx), %r8d	#, D.10402
	movl	-1108(%rbp), %edx	# j, tmp2333
	movl	-1064(%rbp), %esi	# block_y, tmp2334
	addl	%esi, %edx	# tmp2334, D.10402
	movslq	%edx, %rdx	# D.10402, tmp2335
	movl	-1036(%rbp), %esi	# c_ipmode, tmp2337
	movslq	%esi, %rdi	# tmp2337, tmp2336
	movslq	%r8d, %rsi	# D.10402, tmp2338
	salq	$4, %rdi	#, tmp2339
	addq	%rdi, %rsi	# tmp2339, tmp2340
	salq	$4, %rsi	#, tmp2341
	addq	%rsi, %rdx	# tmp2341, tmp2342
	addq	$5272, %rdx	#, tmp2343
	movzwl	8(%rax,%rdx,2), %eax	# img.114_1222->mprr_c, D.10410
	movzwl	%ax, %edx	# D.10410, D.10402
	movl	-1016(%rbp), %eax	# residue_R, tmp2344
	addl	%edx, %eax	# D.10402, D.10402
	movl	$0, %edx	#, tmp2345
	testl	%eax, %eax	# D.10402
	cmovns	%eax, %edx	# D.10402,, D.10402
	movq	img(%rip), %rax	# img, img.115
	movl	72688(%rax), %eax	# img.115_1229->max_imgpel_value_uv, D.10402
	cmpl	%eax, %edx	# D.10402, D.10402
	cmovle	%edx, %eax	# D.10402,, D.10402
	movw	%ax, (%rcx)	# D.10410, *_1221
	.loc 1 575 0 discriminator 2
	addl	$1, -1112(%rbp)	#, i
.L162:
	.loc 1 575 0 is_stmt 0 discriminator 1
	cmpl	$7, -1112(%rbp)	#, i
	jle	.L163	#,
	.loc 1 574 0 is_stmt 1
	addl	$1, -1108(%rbp)	#, j
.L161:
	.loc 1 574 0 is_stmt 0 discriminator 1
	cmpl	$7, -1108(%rbp)	#, j
	jle	.L164	#,
	jmp	.L134	#
.L128:
	.loc 1 591 0 is_stmt 1
	movl	$0, -1108(%rbp)	#, j
	jmp	.L165	#
.L170:
	.loc 1 592 0
	movl	$0, -1112(%rbp)	#, i
	jmp	.L166	#
.L169:
	.loc 1 593 0
	movl	$0, -1104(%rbp)	#, k
	jmp	.L167	#
.L168:
	.loc 1 594 0 discriminator 2
	movq	img(%rip), %rax	# img, img.116
	movq	14136(%rax), %rax	# img.116_1238->cofAC, D.10412
	movl	-1156(%rbp), %edx	# b8, tmp2346
	movslq	%edx, %rdx	# tmp2346, D.10404
	salq	$3, %rdx	#, D.10404
	addq	%rdx, %rax	# D.10404, D.10412
	movq	(%rax), %rax	# *_1242, D.10413
	movl	-1104(%rbp), %edx	# k, tmp2347
	movslq	%edx, %rdx	# tmp2347, D.10404
	salq	$3, %rdx	#, D.10404
	addq	%rdx, %rax	# D.10404, D.10413
	movq	(%rax), %rax	# *_1246, D.10407
	movl	-1108(%rbp), %edx	# j, tmp2348
	movslq	%edx, %rdx	# tmp2348, D.10404
	salq	$3, %rdx	#, D.10404
	addq	%rdx, %rax	# D.10404, D.10407
	movq	(%rax), %rax	# *_1250, D.10405
	movl	-1112(%rbp), %edx	# i, tmp2349
	movslq	%edx, %rdx	# tmp2349, D.10404
	salq	$2, %rdx	#, D.10404
	addq	%rax, %rdx	# D.10405, D.10405
	movq	cofAC8x8(%rip), %rax	# cofAC8x8, cofAC8x8.117
	movl	-1156(%rbp), %ecx	# b8, tmp2350
	movslq	%ecx, %rcx	# tmp2350, D.10404
	salq	$3, %rcx	#, D.10404
	addq	%rcx, %rax	# D.10404, D.10412
	movq	(%rax), %rax	# *_1258, D.10413
	movl	-1104(%rbp), %ecx	# k, tmp2351
	movslq	%ecx, %rcx	# tmp2351, D.10404
	salq	$3, %rcx	#, D.10404
	addq	%rcx, %rax	# D.10404, D.10413
	movq	(%rax), %rax	# *_1262, D.10407
	movl	-1108(%rbp), %ecx	# j, tmp2352
	movslq	%ecx, %rcx	# tmp2352, D.10404
	salq	$3, %rcx	#, D.10404
	addq	%rcx, %rax	# D.10404, D.10407
	movq	(%rax), %rax	# *_1266, D.10405
	movl	-1112(%rbp), %ecx	# i, tmp2353
	movslq	%ecx, %rcx	# tmp2353, D.10404
	salq	$2, %rcx	#, D.10404
	addq	%rcx, %rax	# D.10404, D.10405
	movl	(%rax), %eax	# *_1270, D.10402
	movl	%eax, (%rdx)	# D.10402, *_1254
	.loc 1 593 0 discriminator 2
	addl	$1, -1104(%rbp)	#, k
.L167:
	.loc 1 593 0 is_stmt 0 discriminator 1
	cmpl	$3, -1104(%rbp)	#, k
	jle	.L168	#,
	.loc 1 592 0 is_stmt 1
	addl	$1, -1112(%rbp)	#, i
.L166:
	.loc 1 592 0 is_stmt 0 discriminator 1
	cmpl	$64, -1112(%rbp)	#, i
	jle	.L169	#,
	.loc 1 591 0 is_stmt 1
	addl	$1, -1108(%rbp)	#, j
.L165:
	.loc 1 591 0 is_stmt 0 discriminator 1
	cmpl	$1, -1108(%rbp)	#, j
	jle	.L170	#,
	.loc 1 597 0 is_stmt 1
	movq	img(%rip), %rax	# img, img.118
	movl	72724(%rax), %eax	# img.118_1275->residue_transform_flag, D.10402
	testl	%eax, %eax	# D.10402
	je	.L171	#,
	.loc 1 598 0
	movl	$0, -1072(%rbp)	#, b4
	jmp	.L172	#
.L181:
	.loc 1 599 0
	movl	$0, -1108(%rbp)	#, j
	jmp	.L173	#
.L176:
	.loc 1 600 0
	movl	$0, -1112(%rbp)	#, i
	jmp	.L174	#
.L175:
	.loc 1 600 0 is_stmt 0 discriminator 2
	movq	img(%rip), %rax	# img, img.119
	movq	14136(%rax), %rax	# img.119_1280->cofAC, D.10412
	movl	-1156(%rbp), %edx	# b8, tmp2354
	movslq	%edx, %rdx	# tmp2354, D.10415
	addq	$4, %rdx	#, D.10415
	salq	$3, %rdx	#, D.10415
	addq	%rdx, %rax	# D.10415, D.10412
	movq	(%rax), %rax	# *_1285, D.10413
	movl	-1072(%rbp), %edx	# b4, tmp2355
	movslq	%edx, %rdx	# tmp2355, D.10404
	salq	$3, %rdx	#, D.10404
	addq	%rdx, %rax	# D.10404, D.10413
	movq	(%rax), %rax	# *_1289, D.10407
	movl	-1108(%rbp), %edx	# j, tmp2356
	movslq	%edx, %rdx	# tmp2356, D.10404
	salq	$3, %rdx	#, D.10404
	addq	%rdx, %rax	# D.10404, D.10407
	movq	(%rax), %rax	# *_1293, D.10405
	movl	-1112(%rbp), %edx	# i, tmp2357
	movslq	%edx, %rdx	# tmp2357, D.10404
	salq	$2, %rdx	#, D.10404
	leaq	(%rax,%rdx), %rsi	#, D.10405
	movl	-1112(%rbp), %eax	# i, tmp2359
	movslq	%eax, %rdi	# tmp2359, tmp2358
	movl	-1072(%rbp), %eax	# b4, tmp2361
	cltq
	movl	-1108(%rbp), %edx	# j, tmp2363
	movslq	%edx, %rcx	# tmp2363, tmp2362
	movq	%rax, %rdx	# tmp2360, tmp2364
	salq	$3, %rdx	#, tmp2364
	addq	%rax, %rdx	# tmp2360, tmp2364
	leaq	0(,%rdx,4), %rax	#, tmp2365
	movq	%rax, %rdx	# tmp2365, tmp2364
	movq	%rcx, %rax	# tmp2362, tmp2366
	salq	$3, %rax	#, tmp2366
	addq	%rcx, %rax	# tmp2362, tmp2366
	addq	%rax, %rax	# tmp2367
	addq	%rdx, %rax	# tmp2364, tmp2368
	addq	%rdi, %rax	# tmp2358, tmp2369
	movl	cofAC8x8_chroma(,%rax,4), %eax	# cofAC8x8_chroma, D.10402
	movl	%eax, (%rsi)	# D.10402, *_1297
	addl	$1, -1112(%rbp)	#, i
.L174:
	.loc 1 600 0 discriminator 1
	cmpl	$17, -1112(%rbp)	#, i
	jle	.L175	#,
	.loc 1 599 0 is_stmt 1
	addl	$1, -1108(%rbp)	#, j
.L173:
	.loc 1 599 0 is_stmt 0 discriminator 1
	cmpl	$1, -1108(%rbp)	#, j
	jle	.L176	#,
	.loc 1 601 0 is_stmt 1
	movl	$0, -1108(%rbp)	#, j
	jmp	.L177	#
.L180:
	.loc 1 602 0
	movl	$0, -1112(%rbp)	#, i
	jmp	.L178	#
.L179:
	.loc 1 602 0 is_stmt 0 discriminator 2
	movq	img(%rip), %rax	# img, img.120
	movq	14136(%rax), %rax	# img.120_1303->cofAC, D.10412
	movl	-1156(%rbp), %edx	# b8, tmp2370
	movslq	%edx, %rdx	# tmp2370, D.10415
	addq	$8, %rdx	#, D.10415
	salq	$3, %rdx	#, D.10415
	addq	%rdx, %rax	# D.10415, D.10412
	movq	(%rax), %rax	# *_1308, D.10413
	movl	-1072(%rbp), %edx	# b4, tmp2371
	movslq	%edx, %rdx	# tmp2371, D.10404
	salq	$3, %rdx	#, D.10404
	addq	%rdx, %rax	# D.10404, D.10413
	movq	(%rax), %rax	# *_1312, D.10407
	movl	-1108(%rbp), %edx	# j, tmp2372
	movslq	%edx, %rdx	# tmp2372, D.10404
	salq	$3, %rdx	#, D.10404
	addq	%rdx, %rax	# D.10404, D.10407
	movq	(%rax), %rax	# *_1316, D.10405
	movl	-1112(%rbp), %edx	# i, tmp2373
	movslq	%edx, %rdx	# tmp2373, D.10404
	salq	$2, %rdx	#, D.10404
	leaq	(%rax,%rdx), %rsi	#, D.10405
	movl	-1112(%rbp), %eax	# i, tmp2375
	movslq	%eax, %rdi	# tmp2375, tmp2374
	movl	-1072(%rbp), %eax	# b4, tmp2377
	cltq
	movl	-1108(%rbp), %edx	# j, tmp2379
	movslq	%edx, %rcx	# tmp2379, tmp2378
	movq	%rax, %rdx	# tmp2376, tmp2380
	salq	$3, %rdx	#, tmp2380
	addq	%rax, %rdx	# tmp2376, tmp2380
	leaq	0(,%rdx,4), %rax	#, tmp2381
	movq	%rax, %rdx	# tmp2381, tmp2380
	movq	%rcx, %rax	# tmp2378, tmp2382
	salq	$3, %rax	#, tmp2382
	addq	%rcx, %rax	# tmp2378, tmp2382
	addq	%rax, %rax	# tmp2383
	addq	%rdx, %rax	# tmp2380, tmp2384
	addq	%rdi, %rax	# tmp2374, tmp2385
	addq	$144, %rax	#, tmp2386
	movl	cofAC8x8_chroma(,%rax,4), %eax	# cofAC8x8_chroma, D.10402
	movl	%eax, (%rsi)	# D.10402, *_1320
	addl	$1, -1112(%rbp)	#, i
.L178:
	.loc 1 602 0 discriminator 1
	cmpl	$17, -1112(%rbp)	#, i
	jle	.L179	#,
	.loc 1 601 0 is_stmt 1
	addl	$1, -1108(%rbp)	#, j
.L177:
	.loc 1 601 0 is_stmt 0 discriminator 1
	cmpl	$1, -1108(%rbp)	#, j
	jle	.L180	#,
	.loc 1 598 0 is_stmt 1
	addl	$1, -1072(%rbp)	#, b4
.L172:
	.loc 1 598 0 is_stmt 0 discriminator 1
	cmpl	$3, -1072(%rbp)	#, b4
	jle	.L181	#,
.L171:
	.loc 1 606 0 is_stmt 1
	movl	$0, -1096(%rbp)	#, y
	jmp	.L182	#
.L185:
	.loc 1 607 0
	movl	$0, -1100(%rbp)	#, x
	jmp	.L183	#
.L184:
	.loc 1 609 0 discriminator 2
	movq	enc_picture(%rip), %rax	# enc_picture, enc_picture.121
	movq	6424(%rax), %rax	# enc_picture.121_1327->imgY, D.10408
	movl	-1096(%rbp), %edx	# y, tmp2387
	movl	-1056(%rbp), %ecx	# pic_pix_y, tmp2388
	addl	%ecx, %edx	# tmp2388, D.10402
	movslq	%edx, %rdx	# D.10402, D.10404
	salq	$3, %rdx	#, D.10404
	addq	%rdx, %rax	# D.10404, D.10408
	movq	(%rax), %rax	# *_1332, D.10409
	movl	-1100(%rbp), %edx	# x, tmp2389
	movl	-1060(%rbp), %ecx	# pic_pix_x, tmp2390
	addl	%ecx, %edx	# tmp2390, D.10402
	movslq	%edx, %rdx	# D.10402, D.10404
	addq	%rdx, %rdx	# D.10404
	addq	%rax, %rdx	# D.10409, D.10409
	movl	-1100(%rbp), %eax	# x, tmp2392
	cltq
	movl	-1096(%rbp), %ecx	# y, tmp2394
	movslq	%ecx, %rcx	# tmp2394, tmp2393
	salq	$3, %rcx	#, tmp2395
	addq	%rcx, %rax	# tmp2395, tmp2396
	movzwl	-912(%rbp,%rax,2), %eax	# rec8x8, D.10410
	movw	%ax, (%rdx)	# D.10410, *_1337
	.loc 1 610 0 discriminator 2
	movq	img(%rip), %rax	# img, img.122
	movl	-1100(%rbp), %edx	# x, tmp2397
	movl	-1068(%rbp), %ecx	# block_x, tmp2398
	leal	(%rcx,%rdx), %r8d	#, D.10402
	movl	-1096(%rbp), %edx	# y, tmp2399
	movl	-1064(%rbp), %ecx	# block_y, tmp2400
	leal	(%rcx,%rdx), %r9d	#, D.10402
	movq	img(%rip), %rdx	# img, img.123
	movl	-1100(%rbp), %ecx	# x, tmp2402
	movslq	%ecx, %rcx	# tmp2402, tmp2401
	movl	-1116(%rbp), %esi	# best_ipmode, tmp2404
	movslq	%esi, %rdi	# tmp2404, tmp2403
	movl	-1096(%rbp), %esi	# y, tmp2406
	movslq	%esi, %rsi	# tmp2406, tmp2405
	salq	$3, %rdi	#, tmp2407
	addq	%rdi, %rsi	# tmp2407, tmp2408
	salq	$3, %rsi	#, tmp2409
	addq	%rsi, %rcx	# tmp2409, tmp2410
	addq	$3672, %rcx	#, tmp2411
	movzwl	8(%rdx,%rcx,2), %edx	# img.123_1342->mprr_3, D.10410
	movslq	%r9d, %rcx	# D.10402, tmp2412
	movslq	%r8d, %rsi	# D.10402, tmp2413
	salq	$4, %rsi	#, tmp2414
	addq	%rsi, %rcx	# tmp2414, tmp2415
	addq	$6296, %rcx	#, tmp2416
	movw	%dx, 8(%rax,%rcx,2)	# D.10410, img.122_1339->mpr
	.loc 1 607 0 discriminator 2
	addl	$1, -1100(%rbp)	#, x
.L183:
	.loc 1 607 0 is_stmt 0 discriminator 1
	cmpl	$7, -1100(%rbp)	#, x
	jle	.L184	#,
	.loc 1 606 0 is_stmt 1
	addl	$1, -1096(%rbp)	#, y
.L182:
	.loc 1 606 0 is_stmt 0 discriminator 1
	cmpl	$7, -1096(%rbp)	#, y
	jle	.L185	#,
	.loc 1 614 0 is_stmt 1
	movq	img(%rip), %rax	# img, img.124
	movl	72724(%rax), %eax	# img.124_1346->residue_transform_flag, D.10402
	testl	%eax, %eax	# D.10402
	je	.L134	#,
	.loc 1 616 0
	movl	$0, -1072(%rbp)	#, b4
	jmp	.L186	#
.L193:
	.loc 1 618 0
	movl	-1072(%rbp), %eax	# b4, tmp2417
	cltd
	shrl	$31, %edx	#, tmp2419
	addl	%edx, %eax	# tmp2419, tmp2420
	andl	$1, %eax	#, tmp2421
	subl	%edx, %eax	# tmp2419, tmp2422
	sall	$2, %eax	#, tmp2423
	movl	%eax, -1008(%rbp)	# tmp2423, block4x4_x
	.loc 1 619 0
	movl	-1072(%rbp), %eax	# b4, tmp2424
	movl	%eax, %edx	# tmp2424, tmp2425
	shrl	$31, %edx	#, tmp2425
	addl	%edx, %eax	# tmp2425, tmp2426
	sarl	%eax	# tmp2427
	sall	$2, %eax	#, tmp2428
	movl	%eax, -1004(%rbp)	# tmp2428, block4x4_y
	.loc 1 620 0
	movl	$0, -1112(%rbp)	#, i
	jmp	.L187	#
.L192:
	.loc 1 623 0
	movl	$0, -1096(%rbp)	#, y
	jmp	.L188	#
.L191:
	.loc 1 624 0
	movl	$0, -1100(%rbp)	#, x
	jmp	.L189	#
.L190:
	.loc 1 624 0 is_stmt 0 discriminator 2
	movq	enc_picture(%rip), %rax	# enc_picture, enc_picture.125
	movq	6464(%rax), %rax	# enc_picture.125_1356->imgUV, D.10414
	movl	-1112(%rbp), %edx	# i, tmp2429
	movslq	%edx, %rdx	# tmp2429, D.10404
	salq	$3, %rdx	#, D.10404
	addq	%rdx, %rax	# D.10404, D.10414
	movq	(%rax), %rax	# *_1360, D.10408
	movl	-1096(%rbp), %edx	# y, tmp2430
	movl	-1056(%rbp), %ecx	# pic_pix_y, tmp2431
	addl	%edx, %ecx	# tmp2430, D.10402
	movl	-1004(%rbp), %edx	# block4x4_y, tmp2432
	addl	%ecx, %edx	# D.10402, D.10402
	movslq	%edx, %rdx	# D.10402, D.10404
	salq	$3, %rdx	#, D.10404
	addq	%rdx, %rax	# D.10404, D.10408
	movq	(%rax), %rax	# *_1366, D.10409
	movl	-1100(%rbp), %edx	# x, tmp2433
	movl	-1060(%rbp), %ecx	# pic_pix_x, tmp2434
	addl	%edx, %ecx	# tmp2433, D.10402
	movl	-1008(%rbp), %edx	# block4x4_x, tmp2435
	addl	%ecx, %edx	# D.10402, D.10402
	movslq	%edx, %rdx	# D.10402, D.10404
	addq	%rdx, %rdx	# D.10404
	addq	%rax, %rdx	# D.10409, D.10409
	movl	-1100(%rbp), %eax	# x, tmp2437
	cltq
	movl	-1072(%rbp), %ecx	# b4, tmp2439
	movslq	%ecx, %rcx	# tmp2439, tmp2438
	movl	-1112(%rbp), %esi	# i, tmp2441
	movslq	%esi, %rsi	# tmp2441, tmp2440
	salq	$2, %rsi	#, tmp2442
	addq	%rcx, %rsi	# tmp2438, tmp2443
	movl	-1096(%rbp), %ecx	# y, tmp2445
	movslq	%ecx, %rcx	# tmp2445, tmp2444
	salq	$2, %rsi	#, tmp2446
	addq	%rsi, %rcx	# tmp2446, tmp2447
	salq	$2, %rcx	#, tmp2448
	addq	%rcx, %rax	# tmp2448, tmp2449
	movl	-528(%rbp,%rax,4), %eax	# rec8x8_c, D.10402
	movw	%ax, (%rdx)	# D.10410, *_1372
	addl	$1, -1100(%rbp)	#, x
.L189:
	.loc 1 624 0 discriminator 1
	cmpl	$3, -1100(%rbp)	#, x
	jle	.L190	#,
	.loc 1 623 0 is_stmt 1
	addl	$1, -1096(%rbp)	#, y
.L188:
	.loc 1 623 0 is_stmt 0 discriminator 1
	cmpl	$3, -1096(%rbp)	#, y
	jle	.L191	#,
	.loc 1 620 0 is_stmt 1
	addl	$1, -1112(%rbp)	#, i
.L187:
	.loc 1 620 0 is_stmt 0 discriminator 1
	cmpl	$1, -1112(%rbp)	#, i
	jle	.L192	#,
	.loc 1 616 0 is_stmt 1
	addl	$1, -1072(%rbp)	#, b4
.L186:
	.loc 1 616 0 is_stmt 0 discriminator 1
	cmpl	$3, -1072(%rbp)	#, b4
	jle	.L193	#,
.L134:
	.loc 1 630 0 is_stmt 1
	movl	-1092(%rbp), %eax	# nonzero, D.10402
	.loc 1 631 0
	addq	$1168, %rsp	#,
	popq	%rbx	#
	popq	%r12	#
	popq	%rbp	#
	.cfi_def_cfa 7, 8
	ret
	.cfi_endproc
.LFE3:
	.size	Mode_Decision_for_new_8x8IntraBlocks, .-Mode_Decision_for_new_8x8IntraBlocks
	.globl	intrapred_luma8x8
	.type	intrapred_luma8x8, @function
intrapred_luma8x8:
.LFB4:
	.loc 1 694 0
	.cfi_startproc
	pushq	%rbp	#
	.cfi_def_cfa_offset 16
	.cfi_offset 6, -16
	movq	%rsp, %rbp	#,
	.cfi_def_cfa_register 6
	pushq	%r15	#
	pushq	%r14	#
	pushq	%r13	#
	pushq	%r12	#
	pushq	%rbx	#
	subq	$552, %rsp	#,
	.cfi_offset 15, -24
	.cfi_offset 14, -32
	.cfi_offset 13, -40
	.cfi_offset 12, -48
	.cfi_offset 3, -56
	movl	%edi, -500(%rbp)	# img_x, img_x
	movl	%esi, -504(%rbp)	# img_y, img_y
	movq	%rdx, -512(%rbp)	# left_available, left_available
	movq	%rcx, -520(%rbp)	# up_available, up_available
	movq	%r8, -528(%rbp)	# all_available, all_available
	.loc 1 698 0
	movq	enc_picture(%rip), %rax	# enc_picture, enc_picture.126
	movq	6424(%rax), %rax	# enc_picture.126_19->imgY, tmp2078
	movq	%rax, -456(%rbp)	# tmp2078, imgY
	.loc 1 700 0
	movl	-500(%rbp), %eax	# img_x, tmp2082
	andl	$15, %eax	#, tmp2081
	movl	%eax, -468(%rbp)	# tmp2081, ioff
	.loc 1 701 0
	movl	-504(%rbp), %eax	# img_y, tmp2086
	andl	$15, %eax	#, tmp2085
	movl	%eax, -464(%rbp)	# tmp2085, joff
	.loc 1 702 0
	movq	img(%rip), %rax	# img, img.127
	movl	12(%rax), %eax	# img.127_25->current_mb_nr, tmp2087
	movl	%eax, -460(%rbp)	# tmp2087, mb_nr
	.loc 1 712 0
	movl	$0, -496(%rbp)	#, i
	jmp	.L198	#
.L199:
	.loc 1 714 0 discriminator 2
	leaq	-240(%rbp), %rcx	#, tmp2088
	movl	-496(%rbp), %eax	# i, tmp2090
	movslq	%eax, %rdx	# tmp2090, tmp2089
	movq	%rdx, %rax	# tmp2089, tmp2091
	addq	%rax, %rax	# tmp2091
	addq	%rdx, %rax	# tmp2089, tmp2091
	salq	$3, %rax	#, tmp2092
	addq	%rax, %rcx	# tmp2091, D.10416
	movl	-496(%rbp), %eax	# i, tmp2093
	movl	-464(%rbp), %edx	# joff, tmp2094
	addl	%eax, %edx	# tmp2093, D.10417
	movl	-468(%rbp), %eax	# ioff, tmp2095
	leal	-1(%rax), %esi	#, D.10417
	movl	-460(%rbp), %eax	# mb_nr, tmp2096
	movq	%rcx, %r8	# D.10416,
	movl	$1, %ecx	#,
	movl	%eax, %edi	# tmp2096,
	call	getNeighbour	#
	.loc 1 712 0 discriminator 2
	addl	$1, -496(%rbp)	#, i
.L198:
	.loc 1 712 0 is_stmt 0 discriminator 1
	cmpl	$7, -496(%rbp)	#, i
	jle	.L199	#,
	.loc 1 717 0 is_stmt 1
	movl	-464(%rbp), %eax	# joff, tmp2097
	leal	-1(%rax), %edx	#, D.10417
	leaq	-448(%rbp), %rcx	#, tmp2098
	movl	-468(%rbp), %esi	# ioff, tmp2099
	movl	-460(%rbp), %eax	# mb_nr, tmp2100
	movq	%rcx, %r8	# tmp2098,
	movl	$1, %ecx	#,
	movl	%eax, %edi	# tmp2100,
	call	getNeighbour	#
	.loc 1 718 0
	movl	-464(%rbp), %eax	# joff, tmp2101
	leal	-1(%rax), %edx	#, D.10417
	movl	-468(%rbp), %eax	# ioff, tmp2102
	leal	8(%rax), %esi	#, D.10417
	leaq	-416(%rbp), %rcx	#, tmp2103
	movl	-460(%rbp), %eax	# mb_nr, tmp2104
	movq	%rcx, %r8	# tmp2103,
	movl	$1, %ecx	#,
	movl	%eax, %edi	# tmp2104,
	call	getNeighbour	#
	.loc 1 719 0
	movl	-464(%rbp), %eax	# joff, tmp2105
	leal	-1(%rax), %edx	#, D.10417
	movl	-468(%rbp), %eax	# ioff, tmp2106
	leal	-1(%rax), %esi	#, D.10417
	leaq	-384(%rbp), %rcx	#, tmp2107
	movl	-460(%rbp), %eax	# mb_nr, tmp2108
	movq	%rcx, %r8	# tmp2107,
	movl	$1, %ecx	#,
	movl	%eax, %edi	# tmp2108,
	call	getNeighbour	#
	.loc 1 721 0
	movl	-416(%rbp), %eax	# pix_c.available, D.10417
	testl	%eax, %eax	# D.10417
	je	.L200	#,
	.loc 1 721 0 is_stmt 0 discriminator 1
	cmpl	$8, -468(%rbp)	#, ioff
	jne	.L201	#,
	.loc 1 721 0 discriminator 4
	cmpl	$8, -464(%rbp)	#, joff
	je	.L200	#,
.L201:
	.loc 1 721 0 discriminator 3
	movl	$1, %eax	#, iftmp.128
	jmp	.L202	#
.L200:
	.loc 1 721 0 discriminator 2
	movl	$0, %eax	#, iftmp.128
.L202:
	.loc 1 721 0 discriminator 5
	movl	%eax, -416(%rbp)	# iftmp.128, pix_c.available
	.loc 1 723 0 is_stmt 1 discriminator 5
	movq	input(%rip), %rax	# input, input.129
	movl	216(%rax), %eax	# input.129_40->UseConstrainedIntraPred, D.10417
	testl	%eax, %eax	# D.10417
	je	.L203	#,
	.loc 1 725 0
	movl	$0, -496(%rbp)	#, i
	movl	$1, -480(%rbp)	#, block_available_left
	jmp	.L204	#
.L207:
	.loc 1 726 0
	movl	-496(%rbp), %eax	# i, tmp2110
	movslq	%eax, %rdx	# tmp2110, tmp2109
	movq	%rdx, %rax	# tmp2109, tmp2111
	addq	%rax, %rax	# tmp2111
	addq	%rdx, %rax	# tmp2109, tmp2111
	salq	$3, %rax	#, tmp2112
	leaq	-48(%rbp), %rbx	#, tmp2307
	addq	%rbx, %rax	# tmp2307, tmp2113
	subq	$192, %rax	#, tmp2114
	movl	(%rax), %eax	# pix_a[i_2].available, D.10417
	testl	%eax, %eax	# D.10417
	je	.L205	#,
	.loc 1 726 0 is_stmt 0 discriminator 1
	movq	img(%rip), %rax	# img, img.131
	movq	71784(%rax), %rcx	# img.131_45->intra_block, D.10418
	movl	-496(%rbp), %eax	# i, tmp2116
	movslq	%eax, %rdx	# tmp2116, tmp2115
	movq	%rdx, %rax	# tmp2115, tmp2117
	addq	%rax, %rax	# tmp2117
	addq	%rdx, %rax	# tmp2115, tmp2117
	salq	$3, %rax	#, tmp2118
	leaq	-48(%rbp), %rbx	#, tmp2308
	addq	%rbx, %rax	# tmp2308, tmp2119
	subq	$192, %rax	#, tmp2120
	movl	4(%rax), %eax	# pix_a[i_2].mb_addr, D.10417
	cltq
	salq	$2, %rax	#, D.10419
	addq	%rcx, %rax	# D.10418, D.10418
	movl	(%rax), %eax	# *_50, iftmp.130
	jmp	.L206	#
.L205:
	.loc 1 726 0 discriminator 2
	movl	$0, %eax	#, iftmp.130
.L206:
	.loc 1 726 0 discriminator 3
	andl	%eax, -480(%rbp)	# iftmp.130, block_available_left
	.loc 1 725 0 is_stmt 1 discriminator 3
	addl	$1, -496(%rbp)	#, i
.L204:
	.loc 1 725 0 is_stmt 0 discriminator 1
	cmpl	$7, -496(%rbp)	#, i
	jle	.L207	#,
	.loc 1 727 0 is_stmt 1
	movl	-448(%rbp), %eax	# pix_b.available, D.10417
	testl	%eax, %eax	# D.10417
	je	.L208	#,
	.loc 1 727 0 is_stmt 0 discriminator 1
	movq	img(%rip), %rax	# img, img.133
	movq	71784(%rax), %rax	# img.133_56->intra_block, D.10418
	movl	-444(%rbp), %edx	# pix_b.mb_addr, D.10417
	movslq	%edx, %rdx	# D.10417, D.10419
	salq	$2, %rdx	#, D.10419
	addq	%rdx, %rax	# D.10419, D.10418
	movl	(%rax), %eax	# *_61, iftmp.132
	jmp	.L209	#
.L208:
	.loc 1 727 0 discriminator 2
	movl	$0, %eax	#, iftmp.132
.L209:
	.loc 1 727 0 discriminator 3
	movl	%eax, -484(%rbp)	# iftmp.132, block_available_up
	.loc 1 728 0 is_stmt 1 discriminator 3
	movl	-416(%rbp), %eax	# pix_c.available, D.10417
	testl	%eax, %eax	# D.10417
	je	.L210	#,
	.loc 1 728 0 is_stmt 0 discriminator 1
	movq	img(%rip), %rax	# img, img.135
	movq	71784(%rax), %rax	# img.135_66->intra_block, D.10418
	movl	-412(%rbp), %edx	# pix_c.mb_addr, D.10417
	movslq	%edx, %rdx	# D.10417, D.10419
	salq	$2, %rdx	#, D.10419
	addq	%rdx, %rax	# D.10419, D.10418
	movl	(%rax), %eax	# *_71, iftmp.134
	jmp	.L211	#
.L210:
	.loc 1 728 0 discriminator 2
	movl	$0, %eax	#, iftmp.134
.L211:
	.loc 1 728 0 discriminator 3
	movl	%eax, -472(%rbp)	# iftmp.134, block_available_up_right
	.loc 1 729 0 is_stmt 1 discriminator 3
	movl	-384(%rbp), %eax	# pix_d.available, D.10417
	testl	%eax, %eax	# D.10417
	je	.L212	#,
	.loc 1 729 0 is_stmt 0 discriminator 1
	movq	img(%rip), %rax	# img, img.137
	movq	71784(%rax), %rax	# img.137_76->intra_block, D.10418
	movl	-380(%rbp), %edx	# pix_d.mb_addr, D.10417
	movslq	%edx, %rdx	# D.10417, D.10419
	salq	$2, %rdx	#, D.10419
	addq	%rdx, %rax	# D.10419, D.10418
	movl	(%rax), %eax	# *_81, iftmp.136
	jmp	.L213	#
.L212:
	.loc 1 729 0 discriminator 2
	movl	$0, %eax	#, iftmp.136
.L213:
	.loc 1 729 0 discriminator 1
	movl	%eax, -476(%rbp)	# iftmp.136, block_available_up_left
	jmp	.L214	#
.L203:
	.loc 1 733 0 is_stmt 1
	movl	-240(%rbp), %eax	# pix_a[0].available, tmp2121
	movl	%eax, -480(%rbp)	# tmp2121, block_available_left
	.loc 1 734 0
	movl	-448(%rbp), %eax	# pix_b.available, tmp2122
	movl	%eax, -484(%rbp)	# tmp2122, block_available_up
	.loc 1 735 0
	movl	-416(%rbp), %eax	# pix_c.available, tmp2123
	movl	%eax, -472(%rbp)	# tmp2123, block_available_up_right
	.loc 1 736 0
	movl	-384(%rbp), %eax	# pix_d.available, tmp2124
	movl	%eax, -476(%rbp)	# tmp2124, block_available_up_left
.L214:
	.loc 1 739 0
	movq	-512(%rbp), %rax	# left_available, tmp2125
	movl	-480(%rbp), %edx	# block_available_left, tmp2126
	movl	%edx, (%rax)	# tmp2126, *left_available_89(D)
	.loc 1 740 0
	movq	-520(%rbp), %rax	# up_available, tmp2127
	movl	-484(%rbp), %edx	# block_available_up, tmp2128
	movl	%edx, (%rax)	# tmp2128, *up_available_90(D)
	.loc 1 741 0
	cmpl	$0, -484(%rbp)	#, block_available_up
	je	.L215	#,
	.loc 1 741 0 is_stmt 0 discriminator 1
	cmpl	$0, -480(%rbp)	#, block_available_left
	je	.L215	#,
	cmpl	$0, -476(%rbp)	#, block_available_up_left
	je	.L215	#,
	.loc 1 741 0 discriminator 3
	movl	$1, %eax	#, iftmp.138
	jmp	.L216	#
.L215:
	.loc 1 741 0 discriminator 2
	movl	$0, %eax	#, iftmp.138
.L216:
	.loc 1 741 0 discriminator 4
	movq	-528(%rbp), %rdx	# all_available, tmp2129
	movl	%eax, (%rdx)	# iftmp.138, *all_available_93(D)
	.loc 1 743 0 is_stmt 1 discriminator 4
	movl	-500(%rbp), %eax	# img_x, tmp2133
	andl	$15, %eax	#, tmp2132
	movl	%eax, -496(%rbp)	# tmp2132, i
	.loc 1 744 0 discriminator 4
	movl	-504(%rbp), %eax	# img_y, tmp2137
	andl	$15, %eax	#, tmp2136
	movl	%eax, -492(%rbp)	# tmp2136, j
	.loc 1 748 0 discriminator 4
	cmpl	$0, -484(%rbp)	#, block_available_up
	je	.L217	#,
	.loc 1 750 0
	movl	-428(%rbp), %eax	# pix_b.pos_y, D.10417
	cltq
	leaq	0(,%rax,8), %rdx	#, D.10419
	movq	-456(%rbp), %rax	# imgY, tmp2138
	addq	%rdx, %rax	# D.10419, D.10420
	movq	(%rax), %rax	# *_99, D.10421
	movl	-432(%rbp), %edx	# pix_b.pos_x, D.10417
	movslq	%edx, %rdx	# D.10417, D.10419
	addq	%rdx, %rdx	# D.10419
	addq	%rdx, %rax	# D.10419, D.10421
	movzwl	(%rax), %eax	# *_104, D.10422
	movzwl	%ax, %eax	# D.10422, D.10417
	movl	%eax, -348(%rbp)	# D.10417, PredPel
	.loc 1 751 0
	movl	-428(%rbp), %eax	# pix_b.pos_y, D.10417
	cltq
	leaq	0(,%rax,8), %rdx	#, D.10419
	movq	-456(%rbp), %rax	# imgY, tmp2139
	addq	%rdx, %rax	# D.10419, D.10420
	movq	(%rax), %rax	# *_110, D.10421
	movl	-432(%rbp), %edx	# pix_b.pos_x, D.10417
	movslq	%edx, %rdx	# D.10417, D.10423
	addq	$1, %rdx	#, D.10423
	addq	%rdx, %rdx	# D.10423
	addq	%rdx, %rax	# D.10423, D.10421
	movzwl	(%rax), %eax	# *_116, D.10422
	movzwl	%ax, %eax	# D.10422, D.10417
	movl	%eax, -344(%rbp)	# D.10417, PredPel
	.loc 1 752 0
	movl	-428(%rbp), %eax	# pix_b.pos_y, D.10417
	cltq
	leaq	0(,%rax,8), %rdx	#, D.10419
	movq	-456(%rbp), %rax	# imgY, tmp2140
	addq	%rdx, %rax	# D.10419, D.10420
	movq	(%rax), %rax	# *_122, D.10421
	movl	-432(%rbp), %edx	# pix_b.pos_x, D.10417
	movslq	%edx, %rdx	# D.10417, D.10423
	addq	$2, %rdx	#, D.10423
	addq	%rdx, %rdx	# D.10423
	addq	%rdx, %rax	# D.10423, D.10421
	movzwl	(%rax), %eax	# *_128, D.10422
	movzwl	%ax, %eax	# D.10422, D.10417
	movl	%eax, -340(%rbp)	# D.10417, PredPel
	.loc 1 753 0
	movl	-428(%rbp), %eax	# pix_b.pos_y, D.10417
	cltq
	leaq	0(,%rax,8), %rdx	#, D.10419
	movq	-456(%rbp), %rax	# imgY, tmp2141
	addq	%rdx, %rax	# D.10419, D.10420
	movq	(%rax), %rax	# *_134, D.10421
	movl	-432(%rbp), %edx	# pix_b.pos_x, D.10417
	movslq	%edx, %rdx	# D.10417, D.10423
	addq	$3, %rdx	#, D.10423
	addq	%rdx, %rdx	# D.10423
	addq	%rdx, %rax	# D.10423, D.10421
	movzwl	(%rax), %eax	# *_140, D.10422
	movzwl	%ax, %eax	# D.10422, D.10417
	movl	%eax, -336(%rbp)	# D.10417, PredPel
	.loc 1 754 0
	movl	-428(%rbp), %eax	# pix_b.pos_y, D.10417
	cltq
	leaq	0(,%rax,8), %rdx	#, D.10419
	movq	-456(%rbp), %rax	# imgY, tmp2142
	addq	%rdx, %rax	# D.10419, D.10420
	movq	(%rax), %rax	# *_146, D.10421
	movl	-432(%rbp), %edx	# pix_b.pos_x, D.10417
	movslq	%edx, %rdx	# D.10417, D.10423
	addq	$4, %rdx	#, D.10423
	addq	%rdx, %rdx	# D.10423
	addq	%rdx, %rax	# D.10423, D.10421
	movzwl	(%rax), %eax	# *_152, D.10422
	movzwl	%ax, %eax	# D.10422, D.10417
	movl	%eax, -332(%rbp)	# D.10417, PredPel
	.loc 1 755 0
	movl	-428(%rbp), %eax	# pix_b.pos_y, D.10417
	cltq
	leaq	0(,%rax,8), %rdx	#, D.10419
	movq	-456(%rbp), %rax	# imgY, tmp2143
	addq	%rdx, %rax	# D.10419, D.10420
	movq	(%rax), %rax	# *_158, D.10421
	movl	-432(%rbp), %edx	# pix_b.pos_x, D.10417
	movslq	%edx, %rdx	# D.10417, D.10423
	addq	$5, %rdx	#, D.10423
	addq	%rdx, %rdx	# D.10423
	addq	%rdx, %rax	# D.10423, D.10421
	movzwl	(%rax), %eax	# *_164, D.10422
	movzwl	%ax, %eax	# D.10422, D.10417
	movl	%eax, -328(%rbp)	# D.10417, PredPel
	.loc 1 756 0
	movl	-428(%rbp), %eax	# pix_b.pos_y, D.10417
	cltq
	leaq	0(,%rax,8), %rdx	#, D.10419
	movq	-456(%rbp), %rax	# imgY, tmp2144
	addq	%rdx, %rax	# D.10419, D.10420
	movq	(%rax), %rax	# *_170, D.10421
	movl	-432(%rbp), %edx	# pix_b.pos_x, D.10417
	movslq	%edx, %rdx	# D.10417, D.10423
	addq	$6, %rdx	#, D.10423
	addq	%rdx, %rdx	# D.10423
	addq	%rdx, %rax	# D.10423, D.10421
	movzwl	(%rax), %eax	# *_176, D.10422
	movzwl	%ax, %eax	# D.10422, D.10417
	movl	%eax, -324(%rbp)	# D.10417, PredPel
	.loc 1 757 0
	movl	-428(%rbp), %eax	# pix_b.pos_y, D.10417
	cltq
	leaq	0(,%rax,8), %rdx	#, D.10419
	movq	-456(%rbp), %rax	# imgY, tmp2145
	addq	%rdx, %rax	# D.10419, D.10420
	movq	(%rax), %rax	# *_182, D.10421
	movl	-432(%rbp), %edx	# pix_b.pos_x, D.10417
	movslq	%edx, %rdx	# D.10417, D.10423
	addq	$7, %rdx	#, D.10423
	addq	%rdx, %rdx	# D.10423
	addq	%rdx, %rax	# D.10423, D.10421
	movzwl	(%rax), %eax	# *_188, D.10422
	movzwl	%ax, %eax	# D.10422, D.10417
	movl	%eax, -320(%rbp)	# D.10417, PredPel
	jmp	.L218	#
.L217:
	.loc 1 761 0
	movq	img(%rip), %rax	# img, img.139
	movl	72680(%rax), %eax	# img.139_191->dc_pred_value, D.10424
	movl	%eax, -320(%rbp)	# D.10417, PredPel
	movl	-320(%rbp), %eax	# PredPel, D.10417
	movl	%eax, -324(%rbp)	# D.10417, PredPel
	movl	-324(%rbp), %eax	# PredPel, D.10417
	movl	%eax, -328(%rbp)	# D.10417, PredPel
	movl	-328(%rbp), %eax	# PredPel, D.10417
	movl	%eax, -332(%rbp)	# D.10417, PredPel
	movl	-332(%rbp), %eax	# PredPel, D.10417
	movl	%eax, -336(%rbp)	# D.10417, PredPel
	movl	-336(%rbp), %eax	# PredPel, D.10417
	movl	%eax, -340(%rbp)	# D.10417, PredPel
	movl	-340(%rbp), %eax	# PredPel, D.10417
	movl	%eax, -344(%rbp)	# D.10417, PredPel
	movl	-344(%rbp), %eax	# PredPel, D.10417
	movl	%eax, -348(%rbp)	# D.10417, PredPel
.L218:
	.loc 1 764 0
	cmpl	$0, -472(%rbp)	#, block_available_up_right
	je	.L219	#,
	.loc 1 766 0
	movl	-396(%rbp), %eax	# pix_c.pos_y, D.10417
	cltq
	leaq	0(,%rax,8), %rdx	#, D.10419
	movq	-456(%rbp), %rax	# imgY, tmp2146
	addq	%rdx, %rax	# D.10419, D.10420
	movq	(%rax), %rax	# *_204, D.10421
	movl	-400(%rbp), %edx	# pix_c.pos_x, D.10417
	movslq	%edx, %rdx	# D.10417, D.10419
	addq	%rdx, %rdx	# D.10419
	addq	%rdx, %rax	# D.10419, D.10421
	movzwl	(%rax), %eax	# *_209, D.10422
	movzwl	%ax, %eax	# D.10422, D.10417
	movl	%eax, -316(%rbp)	# D.10417, PredPel
	.loc 1 767 0
	movl	-396(%rbp), %eax	# pix_c.pos_y, D.10417
	cltq
	leaq	0(,%rax,8), %rdx	#, D.10419
	movq	-456(%rbp), %rax	# imgY, tmp2147
	addq	%rdx, %rax	# D.10419, D.10420
	movq	(%rax), %rax	# *_215, D.10421
	movl	-400(%rbp), %edx	# pix_c.pos_x, D.10417
	movslq	%edx, %rdx	# D.10417, D.10423
	addq	$1, %rdx	#, D.10423
	addq	%rdx, %rdx	# D.10423
	addq	%rdx, %rax	# D.10423, D.10421
	movzwl	(%rax), %eax	# *_221, D.10422
	movzwl	%ax, %eax	# D.10422, D.10417
	movl	%eax, -312(%rbp)	# D.10417, PredPel
	.loc 1 768 0
	movl	-396(%rbp), %eax	# pix_c.pos_y, D.10417
	cltq
	leaq	0(,%rax,8), %rdx	#, D.10419
	movq	-456(%rbp), %rax	# imgY, tmp2148
	addq	%rdx, %rax	# D.10419, D.10420
	movq	(%rax), %rax	# *_227, D.10421
	movl	-400(%rbp), %edx	# pix_c.pos_x, D.10417
	movslq	%edx, %rdx	# D.10417, D.10423
	addq	$2, %rdx	#, D.10423
	addq	%rdx, %rdx	# D.10423
	addq	%rdx, %rax	# D.10423, D.10421
	movzwl	(%rax), %eax	# *_233, D.10422
	movzwl	%ax, %eax	# D.10422, D.10417
	movl	%eax, -308(%rbp)	# D.10417, PredPel
	.loc 1 769 0
	movl	-396(%rbp), %eax	# pix_c.pos_y, D.10417
	cltq
	leaq	0(,%rax,8), %rdx	#, D.10419
	movq	-456(%rbp), %rax	# imgY, tmp2149
	addq	%rdx, %rax	# D.10419, D.10420
	movq	(%rax), %rax	# *_239, D.10421
	movl	-400(%rbp), %edx	# pix_c.pos_x, D.10417
	movslq	%edx, %rdx	# D.10417, D.10423
	addq	$3, %rdx	#, D.10423
	addq	%rdx, %rdx	# D.10423
	addq	%rdx, %rax	# D.10423, D.10421
	movzwl	(%rax), %eax	# *_245, D.10422
	movzwl	%ax, %eax	# D.10422, D.10417
	movl	%eax, -304(%rbp)	# D.10417, PredPel
	.loc 1 770 0
	movl	-396(%rbp), %eax	# pix_c.pos_y, D.10417
	cltq
	leaq	0(,%rax,8), %rdx	#, D.10419
	movq	-456(%rbp), %rax	# imgY, tmp2150
	addq	%rdx, %rax	# D.10419, D.10420
	movq	(%rax), %rax	# *_251, D.10421
	movl	-400(%rbp), %edx	# pix_c.pos_x, D.10417
	movslq	%edx, %rdx	# D.10417, D.10423
	addq	$4, %rdx	#, D.10423
	addq	%rdx, %rdx	# D.10423
	addq	%rdx, %rax	# D.10423, D.10421
	movzwl	(%rax), %eax	# *_257, D.10422
	movzwl	%ax, %eax	# D.10422, D.10417
	movl	%eax, -300(%rbp)	# D.10417, PredPel
	.loc 1 771 0
	movl	-396(%rbp), %eax	# pix_c.pos_y, D.10417
	cltq
	leaq	0(,%rax,8), %rdx	#, D.10419
	movq	-456(%rbp), %rax	# imgY, tmp2151
	addq	%rdx, %rax	# D.10419, D.10420
	movq	(%rax), %rax	# *_263, D.10421
	movl	-400(%rbp), %edx	# pix_c.pos_x, D.10417
	movslq	%edx, %rdx	# D.10417, D.10423
	addq	$5, %rdx	#, D.10423
	addq	%rdx, %rdx	# D.10423
	addq	%rdx, %rax	# D.10423, D.10421
	movzwl	(%rax), %eax	# *_269, D.10422
	movzwl	%ax, %eax	# D.10422, D.10417
	movl	%eax, -296(%rbp)	# D.10417, PredPel
	.loc 1 772 0
	movl	-396(%rbp), %eax	# pix_c.pos_y, D.10417
	cltq
	leaq	0(,%rax,8), %rdx	#, D.10419
	movq	-456(%rbp), %rax	# imgY, tmp2152
	addq	%rdx, %rax	# D.10419, D.10420
	movq	(%rax), %rax	# *_275, D.10421
	movl	-400(%rbp), %edx	# pix_c.pos_x, D.10417
	movslq	%edx, %rdx	# D.10417, D.10423
	addq	$6, %rdx	#, D.10423
	addq	%rdx, %rdx	# D.10423
	addq	%rdx, %rax	# D.10423, D.10421
	movzwl	(%rax), %eax	# *_281, D.10422
	movzwl	%ax, %eax	# D.10422, D.10417
	movl	%eax, -292(%rbp)	# D.10417, PredPel
	.loc 1 773 0
	movl	-396(%rbp), %eax	# pix_c.pos_y, D.10417
	cltq
	leaq	0(,%rax,8), %rdx	#, D.10419
	movq	-456(%rbp), %rax	# imgY, tmp2153
	addq	%rdx, %rax	# D.10419, D.10420
	movq	(%rax), %rax	# *_287, D.10421
	movl	-400(%rbp), %edx	# pix_c.pos_x, D.10417
	movslq	%edx, %rdx	# D.10417, D.10423
	addq	$7, %rdx	#, D.10423
	addq	%rdx, %rdx	# D.10423
	addq	%rdx, %rax	# D.10423, D.10421
	movzwl	(%rax), %eax	# *_293, D.10422
	movzwl	%ax, %eax	# D.10422, D.10417
	movl	%eax, -288(%rbp)	# D.10417, PredPel
	jmp	.L220	#
.L219:
	.loc 1 778 0
	movl	-320(%rbp), %eax	# PredPel, D.10417
	movl	%eax, -288(%rbp)	# D.10417, PredPel
	movl	-288(%rbp), %eax	# PredPel, D.10417
	movl	%eax, -292(%rbp)	# D.10417, PredPel
	movl	-292(%rbp), %eax	# PredPel, D.10417
	movl	%eax, -296(%rbp)	# D.10417, PredPel
	movl	-296(%rbp), %eax	# PredPel, D.10417
	movl	%eax, -300(%rbp)	# D.10417, PredPel
	movl	-300(%rbp), %eax	# PredPel, D.10417
	movl	%eax, -304(%rbp)	# D.10417, PredPel
	movl	-304(%rbp), %eax	# PredPel, D.10417
	movl	%eax, -308(%rbp)	# D.10417, PredPel
	movl	-308(%rbp), %eax	# PredPel, D.10417
	movl	%eax, -312(%rbp)	# D.10417, PredPel
	movl	-312(%rbp), %eax	# PredPel, D.10417
	movl	%eax, -316(%rbp)	# D.10417, PredPel
.L220:
	.loc 1 781 0
	cmpl	$0, -480(%rbp)	#, block_available_left
	je	.L221	#,
	.loc 1 783 0
	movl	-220(%rbp), %eax	# pix_a[0].pos_y, D.10417
	cltq
	leaq	0(,%rax,8), %rdx	#, D.10419
	movq	-456(%rbp), %rax	# imgY, tmp2154
	addq	%rdx, %rax	# D.10419, D.10420
	movq	(%rax), %rax	# *_307, D.10421
	movl	-224(%rbp), %edx	# pix_a[0].pos_x, D.10417
	movslq	%edx, %rdx	# D.10417, D.10419
	addq	%rdx, %rdx	# D.10419
	addq	%rdx, %rax	# D.10419, D.10421
	movzwl	(%rax), %eax	# *_312, D.10422
	movzwl	%ax, %eax	# D.10422, D.10417
	movl	%eax, -284(%rbp)	# D.10417, PredPel
	.loc 1 784 0
	movl	-196(%rbp), %eax	# pix_a[1].pos_y, D.10417
	cltq
	leaq	0(,%rax,8), %rdx	#, D.10419
	movq	-456(%rbp), %rax	# imgY, tmp2155
	addq	%rdx, %rax	# D.10419, D.10420
	movq	(%rax), %rax	# *_318, D.10421
	movl	-200(%rbp), %edx	# pix_a[1].pos_x, D.10417
	movslq	%edx, %rdx	# D.10417, D.10419
	addq	%rdx, %rdx	# D.10419
	addq	%rdx, %rax	# D.10419, D.10421
	movzwl	(%rax), %eax	# *_323, D.10422
	movzwl	%ax, %eax	# D.10422, D.10417
	movl	%eax, -280(%rbp)	# D.10417, PredPel
	.loc 1 785 0
	movl	-172(%rbp), %eax	# pix_a[2].pos_y, D.10417
	cltq
	leaq	0(,%rax,8), %rdx	#, D.10419
	movq	-456(%rbp), %rax	# imgY, tmp2156
	addq	%rdx, %rax	# D.10419, D.10420
	movq	(%rax), %rax	# *_329, D.10421
	movl	-176(%rbp), %edx	# pix_a[2].pos_x, D.10417
	movslq	%edx, %rdx	# D.10417, D.10419
	addq	%rdx, %rdx	# D.10419
	addq	%rdx, %rax	# D.10419, D.10421
	movzwl	(%rax), %eax	# *_334, D.10422
	movzwl	%ax, %eax	# D.10422, D.10417
	movl	%eax, -276(%rbp)	# D.10417, PredPel
	.loc 1 786 0
	movl	-148(%rbp), %eax	# pix_a[3].pos_y, D.10417
	cltq
	leaq	0(,%rax,8), %rdx	#, D.10419
	movq	-456(%rbp), %rax	# imgY, tmp2157
	addq	%rdx, %rax	# D.10419, D.10420
	movq	(%rax), %rax	# *_340, D.10421
	movl	-152(%rbp), %edx	# pix_a[3].pos_x, D.10417
	movslq	%edx, %rdx	# D.10417, D.10419
	addq	%rdx, %rdx	# D.10419
	addq	%rdx, %rax	# D.10419, D.10421
	movzwl	(%rax), %eax	# *_345, D.10422
	movzwl	%ax, %eax	# D.10422, D.10417
	movl	%eax, -272(%rbp)	# D.10417, PredPel
	.loc 1 787 0
	movl	-124(%rbp), %eax	# pix_a[4].pos_y, D.10417
	cltq
	leaq	0(,%rax,8), %rdx	#, D.10419
	movq	-456(%rbp), %rax	# imgY, tmp2158
	addq	%rdx, %rax	# D.10419, D.10420
	movq	(%rax), %rax	# *_351, D.10421
	movl	-128(%rbp), %edx	# pix_a[4].pos_x, D.10417
	movslq	%edx, %rdx	# D.10417, D.10419
	addq	%rdx, %rdx	# D.10419
	addq	%rdx, %rax	# D.10419, D.10421
	movzwl	(%rax), %eax	# *_356, D.10422
	movzwl	%ax, %eax	# D.10422, D.10417
	movl	%eax, -268(%rbp)	# D.10417, PredPel
	.loc 1 788 0
	movl	-100(%rbp), %eax	# pix_a[5].pos_y, D.10417
	cltq
	leaq	0(,%rax,8), %rdx	#, D.10419
	movq	-456(%rbp), %rax	# imgY, tmp2159
	addq	%rdx, %rax	# D.10419, D.10420
	movq	(%rax), %rax	# *_362, D.10421
	movl	-104(%rbp), %edx	# pix_a[5].pos_x, D.10417
	movslq	%edx, %rdx	# D.10417, D.10419
	addq	%rdx, %rdx	# D.10419
	addq	%rdx, %rax	# D.10419, D.10421
	movzwl	(%rax), %eax	# *_367, D.10422
	movzwl	%ax, %eax	# D.10422, D.10417
	movl	%eax, -264(%rbp)	# D.10417, PredPel
	.loc 1 789 0
	movl	-76(%rbp), %eax	# pix_a[6].pos_y, D.10417
	cltq
	leaq	0(,%rax,8), %rdx	#, D.10419
	movq	-456(%rbp), %rax	# imgY, tmp2160
	addq	%rdx, %rax	# D.10419, D.10420
	movq	(%rax), %rax	# *_373, D.10421
	movl	-80(%rbp), %edx	# pix_a[6].pos_x, D.10417
	movslq	%edx, %rdx	# D.10417, D.10419
	addq	%rdx, %rdx	# D.10419
	addq	%rdx, %rax	# D.10419, D.10421
	movzwl	(%rax), %eax	# *_378, D.10422
	movzwl	%ax, %eax	# D.10422, D.10417
	movl	%eax, -260(%rbp)	# D.10417, PredPel
	.loc 1 790 0
	movl	-52(%rbp), %eax	# pix_a[7].pos_y, D.10417
	cltq
	leaq	0(,%rax,8), %rdx	#, D.10419
	movq	-456(%rbp), %rax	# imgY, tmp2161
	addq	%rdx, %rax	# D.10419, D.10420
	movq	(%rax), %rax	# *_384, D.10421
	movl	-56(%rbp), %edx	# pix_a[7].pos_x, D.10417
	movslq	%edx, %rdx	# D.10417, D.10419
	addq	%rdx, %rdx	# D.10419
	addq	%rdx, %rax	# D.10419, D.10421
	movzwl	(%rax), %eax	# *_389, D.10422
	movzwl	%ax, %eax	# D.10422, D.10417
	movl	%eax, -256(%rbp)	# D.10417, PredPel
	jmp	.L222	#
.L221:
	.loc 1 794 0
	movq	img(%rip), %rax	# img, img.140
	movl	72680(%rax), %eax	# img.140_392->dc_pred_value, D.10424
	movl	%eax, -256(%rbp)	# D.10417, PredPel
	movl	-256(%rbp), %eax	# PredPel, D.10417
	movl	%eax, -260(%rbp)	# D.10417, PredPel
	movl	-260(%rbp), %eax	# PredPel, D.10417
	movl	%eax, -264(%rbp)	# D.10417, PredPel
	movl	-264(%rbp), %eax	# PredPel, D.10417
	movl	%eax, -268(%rbp)	# D.10417, PredPel
	movl	-268(%rbp), %eax	# PredPel, D.10417
	movl	%eax, -272(%rbp)	# D.10417, PredPel
	movl	-272(%rbp), %eax	# PredPel, D.10417
	movl	%eax, -276(%rbp)	# D.10417, PredPel
	movl	-276(%rbp), %eax	# PredPel, D.10417
	movl	%eax, -280(%rbp)	# D.10417, PredPel
	movl	-280(%rbp), %eax	# PredPel, D.10417
	movl	%eax, -284(%rbp)	# D.10417, PredPel
.L222:
	.loc 1 797 0
	cmpl	$0, -476(%rbp)	#, block_available_up_left
	je	.L223	#,
	.loc 1 799 0
	movl	-364(%rbp), %eax	# pix_d.pos_y, D.10417
	cltq
	leaq	0(,%rax,8), %rdx	#, D.10419
	movq	-456(%rbp), %rax	# imgY, tmp2162
	addq	%rdx, %rax	# D.10419, D.10420
	movq	(%rax), %rax	# *_405, D.10421
	movl	-368(%rbp), %edx	# pix_d.pos_x, D.10417
	movslq	%edx, %rdx	# D.10417, D.10419
	addq	%rdx, %rdx	# D.10419
	addq	%rdx, %rax	# D.10419, D.10421
	movzwl	(%rax), %eax	# *_410, D.10422
	movzwl	%ax, %eax	# D.10422, D.10417
	movl	%eax, -352(%rbp)	# D.10417, PredPel
	jmp	.L224	#
.L223:
	.loc 1 803 0
	movq	img(%rip), %rax	# img, img.141
	movl	72680(%rax), %eax	# img.141_413->dc_pred_value, D.10424
	movl	%eax, -352(%rbp)	# D.10417, PredPel
.L224:
	.loc 1 806 0
	movl	$0, -496(%rbp)	#, i
	jmp	.L225	#
.L226:
	.loc 1 807 0 discriminator 2
	movq	img(%rip), %rax	# img, img.142
	movl	-496(%rbp), %edx	# i, tmp2164
	movslq	%edx, %rdx	# tmp2164, tmp2163
	salq	$7, %rdx	#, tmp2165
	addq	%rdx, %rax	# tmp2165, tmp2166
	addq	$7344, %rax	#, tmp2167
	movw	$-1, 8(%rax)	#, img.142_417->mprr_3
	.loc 1 806 0 discriminator 2
	addl	$1, -496(%rbp)	#, i
.L225:
	.loc 1 806 0 is_stmt 0 discriminator 1
	cmpl	$8, -496(%rbp)	#, i
	jle	.L226	#,
	.loc 1 809 0 is_stmt 1
	movl	-480(%rbp), %ecx	# block_available_left, tmp2168
	movl	-484(%rbp), %edx	# block_available_up, tmp2169
	movl	-476(%rbp), %esi	# block_available_up_left, tmp2170
	leaq	-352(%rbp), %rax	#, tmp2171
	movq	%rax, %rdi	# tmp2171,
	call	LowPassForIntra8x8Pred	#
	.loc 1 814 0
	movl	$0, -488(%rbp)	#, s0
	.loc 1 815 0
	cmpl	$0, -484(%rbp)	#, block_available_up
	je	.L227	#,
	.loc 1 815 0 is_stmt 0 discriminator 1
	cmpl	$0, -480(%rbp)	#, block_available_left
	je	.L227	#,
	.loc 1 818 0 is_stmt 1
	movl	-348(%rbp), %edx	# PredPel, D.10417
	movl	-344(%rbp), %eax	# PredPel, D.10417
	addl	%eax, %edx	# D.10417, D.10417
	movl	-340(%rbp), %eax	# PredPel, D.10417
	addl	%eax, %edx	# D.10417, D.10417
	movl	-336(%rbp), %eax	# PredPel, D.10417
	addl	%eax, %edx	# D.10417, D.10417
	movl	-332(%rbp), %eax	# PredPel, D.10417
	addl	%eax, %edx	# D.10417, D.10417
	movl	-328(%rbp), %eax	# PredPel, D.10417
	addl	%eax, %edx	# D.10417, D.10417
	movl	-324(%rbp), %eax	# PredPel, D.10417
	addl	%eax, %edx	# D.10417, D.10417
	movl	-320(%rbp), %eax	# PredPel, D.10417
	addl	%eax, %edx	# D.10417, D.10417
	movl	-284(%rbp), %eax	# PredPel, D.10417
	addl	%eax, %edx	# D.10417, D.10417
	movl	-280(%rbp), %eax	# PredPel, D.10417
	addl	%eax, %edx	# D.10417, D.10417
	movl	-276(%rbp), %eax	# PredPel, D.10417
	addl	%eax, %edx	# D.10417, D.10417
	movl	-272(%rbp), %eax	# PredPel, D.10417
	addl	%eax, %edx	# D.10417, D.10417
	movl	-268(%rbp), %eax	# PredPel, D.10417
	addl	%eax, %edx	# D.10417, D.10417
	movl	-264(%rbp), %eax	# PredPel, D.10417
	addl	%eax, %edx	# D.10417, D.10417
	movl	-260(%rbp), %eax	# PredPel, D.10417
	addl	%eax, %edx	# D.10417, D.10417
	movl	-256(%rbp), %eax	# PredPel, D.10417
	addl	%edx, %eax	# D.10417, D.10417
	addl	$8, %eax	#, D.10417
	sarl	$4, %eax	#, tmp2172
	movl	%eax, -488(%rbp)	# tmp2172, s0
	jmp	.L228	#
.L227:
	.loc 1 820 0
	cmpl	$0, -484(%rbp)	#, block_available_up
	jne	.L229	#,
	.loc 1 820 0 is_stmt 0 discriminator 1
	cmpl	$0, -480(%rbp)	#, block_available_left
	je	.L229	#,
	.loc 1 823 0 is_stmt 1
	movl	-284(%rbp), %edx	# PredPel, D.10417
	movl	-280(%rbp), %eax	# PredPel, D.10417
	addl	%eax, %edx	# D.10417, D.10417
	movl	-276(%rbp), %eax	# PredPel, D.10417
	addl	%eax, %edx	# D.10417, D.10417
	movl	-272(%rbp), %eax	# PredPel, D.10417
	addl	%eax, %edx	# D.10417, D.10417
	movl	-268(%rbp), %eax	# PredPel, D.10417
	addl	%eax, %edx	# D.10417, D.10417
	movl	-264(%rbp), %eax	# PredPel, D.10417
	addl	%eax, %edx	# D.10417, D.10417
	movl	-260(%rbp), %eax	# PredPel, D.10417
	addl	%eax, %edx	# D.10417, D.10417
	movl	-256(%rbp), %eax	# PredPel, D.10417
	addl	%edx, %eax	# D.10417, D.10417
	addl	$4, %eax	#, D.10417
	sarl	$3, %eax	#, tmp2173
	movl	%eax, -488(%rbp)	# tmp2173, s0
	jmp	.L228	#
.L229:
	.loc 1 825 0
	cmpl	$0, -484(%rbp)	#, block_available_up
	je	.L230	#,
	.loc 1 825 0 is_stmt 0 discriminator 1
	cmpl	$0, -480(%rbp)	#, block_available_left
	jne	.L230	#,
	.loc 1 828 0 is_stmt 1
	movl	-348(%rbp), %edx	# PredPel, D.10417
	movl	-344(%rbp), %eax	# PredPel, D.10417
	addl	%eax, %edx	# D.10417, D.10417
	movl	-340(%rbp), %eax	# PredPel, D.10417
	addl	%eax, %edx	# D.10417, D.10417
	movl	-336(%rbp), %eax	# PredPel, D.10417
	addl	%eax, %edx	# D.10417, D.10417
	movl	-332(%rbp), %eax	# PredPel, D.10417
	addl	%eax, %edx	# D.10417, D.10417
	movl	-328(%rbp), %eax	# PredPel, D.10417
	addl	%eax, %edx	# D.10417, D.10417
	movl	-324(%rbp), %eax	# PredPel, D.10417
	addl	%eax, %edx	# D.10417, D.10417
	movl	-320(%rbp), %eax	# PredPel, D.10417
	addl	%edx, %eax	# D.10417, D.10417
	addl	$4, %eax	#, D.10417
	sarl	$3, %eax	#, tmp2174
	movl	%eax, -488(%rbp)	# tmp2174, s0
	jmp	.L228	#
.L230:
	.loc 1 833 0
	movq	img(%rip), %rax	# img, img.143
	movl	72680(%rax), %eax	# img.143_487->dc_pred_value, D.10424
	movl	%eax, -488(%rbp)	# D.10424, s0
.L228:
	.loc 1 836 0
	movl	$0, -492(%rbp)	#, j
	jmp	.L231	#
.L234:
	.loc 1 838 0
	movl	$0, -496(%rbp)	#, i
	jmp	.L232	#
.L233:
	.loc 1 841 0 discriminator 2
	movq	img(%rip), %rax	# img, img.144
	movl	-488(%rbp), %edx	# s0, tmp2175
	movl	-492(%rbp), %ecx	# j, tmp2177
	movslq	%ecx, %rcx	# tmp2177, tmp2176
	movl	-496(%rbp), %esi	# i, tmp2179
	movslq	%esi, %rsi	# tmp2179, tmp2178
	salq	$3, %rsi	#, tmp2180
	addq	%rsi, %rcx	# tmp2180, tmp2181
	addq	$3800, %rcx	#, tmp2182
	movw	%dx, 8(%rax,%rcx,2)	# D.10422, img.144_492->mprr_3
	.loc 1 838 0 discriminator 2
	addl	$1, -496(%rbp)	#, i
.L232:
	.loc 1 838 0 is_stmt 0 discriminator 1
	cmpl	$7, -496(%rbp)	#, i
	jle	.L233	#,
	.loc 1 836 0 is_stmt 1
	addl	$1, -492(%rbp)	#, j
.L231:
	.loc 1 836 0 is_stmt 0 discriminator 1
	cmpl	$7, -492(%rbp)	#, j
	jle	.L234	#,
	.loc 1 850 0 is_stmt 1
	movl	$0, -496(%rbp)	#, i
	jmp	.L235	#
.L236:
	.loc 1 852 0 discriminator 2
	movq	img(%rip), %r10	# img, img.145
	.loc 1 853 0 discriminator 2
	movq	img(%rip), %rax	# img, img.146
	.loc 1 854 0 discriminator 2
	movq	img(%rip), %rdx	# img, img.147
	.loc 1 855 0 discriminator 2
	movq	img(%rip), %rcx	# img, img.148
	.loc 1 856 0 discriminator 2
	movq	img(%rip), %rsi	# img, img.149
	.loc 1 857 0 discriminator 2
	movq	img(%rip), %rdi	# img, img.150
	.loc 1 858 0 discriminator 2
	movq	img(%rip), %r8	# img, img.151
	.loc 1 859 0 discriminator 2
	movq	img(%rip), %r9	# img, img.152
	movl	-496(%rbp), %r11d	# i, tmp2183
	movslq	%r11d, %r11	# tmp2183, D.10423
	addq	$1, %r11	#, D.10423
	movl	-352(%rbp,%r11,4), %r11d	# PredPel, D.10417
	movl	-496(%rbp), %ebx	# i, tmp2185
	movslq	%ebx, %rbx	# tmp2185, tmp2184
	addq	$3728, %rbx	#, tmp2186
	movw	%r11w, 8(%r9,%rbx,2)	# D.10422, img.152_504->mprr_3
	movl	-496(%rbp), %r11d	# i, tmp2188
	movslq	%r11d, %r11	# tmp2188, tmp2187
	addq	$3728, %r11	#, tmp2189
	movzwl	8(%r9,%r11,2), %r9d	# img.152_504->mprr_3, D.10422
	.loc 1 858 0 discriminator 2
	movl	-496(%rbp), %r11d	# i, tmp2191
	movslq	%r11d, %r11	# tmp2191, tmp2190
	addq	$3720, %r11	#, tmp2192
	movw	%r9w, 8(%r8,%r11,2)	# D.10422, img.151_503->mprr_3
	movl	-496(%rbp), %r9d	# i, tmp2194
	movslq	%r9d, %r9	# tmp2194, tmp2193
	addq	$3720, %r9	#, tmp2195
	movzwl	8(%r8,%r9,2), %r8d	# img.151_503->mprr_3, D.10422
	.loc 1 857 0 discriminator 2
	movl	-496(%rbp), %r9d	# i, tmp2197
	movslq	%r9d, %r9	# tmp2197, tmp2196
	addq	$3712, %r9	#, tmp2198
	movw	%r8w, 8(%rdi,%r9,2)	# D.10422, img.150_502->mprr_3
	movl	-496(%rbp), %r8d	# i, tmp2200
	movslq	%r8d, %r8	# tmp2200, tmp2199
	addq	$3712, %r8	#, tmp2201
	movzwl	8(%rdi,%r8,2), %edi	# img.150_502->mprr_3, D.10422
	.loc 1 856 0 discriminator 2
	movl	-496(%rbp), %r8d	# i, tmp2203
	movslq	%r8d, %r8	# tmp2203, tmp2202
	addq	$3704, %r8	#, tmp2204
	movw	%di, 8(%rsi,%r8,2)	# D.10422, img.149_501->mprr_3
	movl	-496(%rbp), %edi	# i, tmp2206
	movslq	%edi, %rdi	# tmp2206, tmp2205
	addq	$3704, %rdi	#, tmp2207
	movzwl	8(%rsi,%rdi,2), %esi	# img.149_501->mprr_3, D.10422
	.loc 1 855 0 discriminator 2
	movl	-496(%rbp), %edi	# i, tmp2209
	movslq	%edi, %rdi	# tmp2209, tmp2208
	addq	$3696, %rdi	#, tmp2210
	movw	%si, 8(%rcx,%rdi,2)	# D.10422, img.148_500->mprr_3
	movl	-496(%rbp), %esi	# i, tmp2212
	movslq	%esi, %rsi	# tmp2212, tmp2211
	addq	$3696, %rsi	#, tmp2213
	movzwl	8(%rcx,%rsi,2), %ecx	# img.148_500->mprr_3, D.10422
	.loc 1 854 0 discriminator 2
	movl	-496(%rbp), %esi	# i, tmp2215
	movslq	%esi, %rsi	# tmp2215, tmp2214
	addq	$3688, %rsi	#, tmp2216
	movw	%cx, 8(%rdx,%rsi,2)	# D.10422, img.147_499->mprr_3
	movl	-496(%rbp), %ecx	# i, tmp2218
	movslq	%ecx, %rcx	# tmp2218, tmp2217
	addq	$3688, %rcx	#, tmp2219
	movzwl	8(%rdx,%rcx,2), %edx	# img.147_499->mprr_3, D.10422
	.loc 1 853 0 discriminator 2
	movl	-496(%rbp), %ecx	# i, tmp2221
	movslq	%ecx, %rcx	# tmp2221, tmp2220
	addq	$3680, %rcx	#, tmp2222
	movw	%dx, 8(%rax,%rcx,2)	# D.10422, img.146_498->mprr_3
	movl	-496(%rbp), %edx	# i, tmp2224
	movslq	%edx, %rdx	# tmp2224, tmp2223
	addq	$3680, %rdx	#, tmp2225
	movzwl	8(%rax,%rdx,2), %eax	# img.146_498->mprr_3, D.10422
	.loc 1 852 0 discriminator 2
	movl	-496(%rbp), %edx	# i, tmp2227
	movslq	%edx, %rdx	# tmp2227, tmp2226
	addq	$3672, %rdx	#, tmp2228
	movw	%ax, 8(%r10,%rdx,2)	# D.10422, img.145_497->mprr_3
	.loc 1 860 0 discriminator 2
	movq	img(%rip), %r11	# img, img.153
	.loc 1 861 0 discriminator 2
	movq	img(%rip), %rax	# img, img.154
	.loc 1 862 0 discriminator 2
	movq	img(%rip), %rdx	# img, img.155
	.loc 1 863 0 discriminator 2
	movq	img(%rip), %rcx	# img, img.156
	.loc 1 864 0 discriminator 2
	movq	img(%rip), %rsi	# img, img.157
	.loc 1 865 0 discriminator 2
	movq	img(%rip), %rdi	# img, img.158
	.loc 1 866 0 discriminator 2
	movq	img(%rip), %r8	# img, img.159
	.loc 1 867 0 discriminator 2
	movq	img(%rip), %r9	# img, img.160
	movl	-496(%rbp), %r10d	# i, tmp2229
	movslq	%r10d, %r10	# tmp2229, D.10423
	addq	$17, %r10	#, D.10423
	movl	-352(%rbp,%r10,4), %r10d	# PredPel, D.10417
	movl	-496(%rbp), %ebx	# i, tmp2231
	movslq	%ebx, %rbx	# tmp2231, tmp2230
	salq	$4, %rbx	#, tmp2232
	addq	%r9, %rbx	# img.160, tmp2233
	addq	$7486, %rbx	#, tmp2234
	movw	%r10w, 8(%rbx)	# D.10422, img.160_523->mprr_3
	movl	-496(%rbp), %r10d	# i, tmp2236
	movslq	%r10d, %r10	# tmp2236, tmp2235
	salq	$4, %r10	#, tmp2237
	addq	%r10, %r9	# tmp2237, tmp2238
	addq	$7486, %r9	#, tmp2239
	movzwl	8(%r9), %r9d	# img.160_523->mprr_3, D.10422
	.loc 1 866 0 discriminator 2
	movl	-496(%rbp), %r10d	# i, tmp2241
	movslq	%r10d, %r10	# tmp2241, tmp2240
	salq	$4, %r10	#, tmp2242
	addq	%r8, %r10	# img.159, tmp2243
	addq	$7484, %r10	#, tmp2244
	movw	%r9w, 8(%r10)	# D.10422, img.159_522->mprr_3
	movl	-496(%rbp), %r9d	# i, tmp2246
	movslq	%r9d, %r9	# tmp2246, tmp2245
	salq	$4, %r9	#, tmp2247
	addq	%r9, %r8	# tmp2247, tmp2248
	addq	$7484, %r8	#, tmp2249
	movzwl	8(%r8), %r8d	# img.159_522->mprr_3, D.10422
	.loc 1 865 0 discriminator 2
	movl	-496(%rbp), %r9d	# i, tmp2251
	movslq	%r9d, %r9	# tmp2251, tmp2250
	salq	$4, %r9	#, tmp2252
	addq	%rdi, %r9	# img.158, tmp2253
	addq	$7482, %r9	#, tmp2254
	movw	%r8w, 8(%r9)	# D.10422, img.158_521->mprr_3
	movl	-496(%rbp), %r8d	# i, tmp2256
	movslq	%r8d, %r8	# tmp2256, tmp2255
	salq	$4, %r8	#, tmp2257
	addq	%r8, %rdi	# tmp2257, tmp2258
	addq	$7482, %rdi	#, tmp2259
	movzwl	8(%rdi), %edi	# img.158_521->mprr_3, D.10422
	.loc 1 864 0 discriminator 2
	movl	-496(%rbp), %r8d	# i, tmp2261
	movslq	%r8d, %r8	# tmp2261, tmp2260
	salq	$4, %r8	#, tmp2262
	addq	%rsi, %r8	# img.157, tmp2263
	addq	$7480, %r8	#, tmp2264
	movw	%di, 8(%r8)	# D.10422, img.157_520->mprr_3
	movl	-496(%rbp), %edi	# i, tmp2266
	movslq	%edi, %rdi	# tmp2266, tmp2265
	salq	$4, %rdi	#, tmp2267
	addq	%rdi, %rsi	# tmp2267, tmp2268
	addq	$7480, %rsi	#, tmp2269
	movzwl	8(%rsi), %esi	# img.157_520->mprr_3, D.10422
	.loc 1 863 0 discriminator 2
	movl	-496(%rbp), %edi	# i, tmp2271
	movslq	%edi, %rdi	# tmp2271, tmp2270
	salq	$4, %rdi	#, tmp2272
	addq	%rcx, %rdi	# img.156, tmp2273
	addq	$7478, %rdi	#, tmp2274
	movw	%si, 8(%rdi)	# D.10422, img.156_519->mprr_3
	movl	-496(%rbp), %esi	# i, tmp2276
	movslq	%esi, %rsi	# tmp2276, tmp2275
	salq	$4, %rsi	#, tmp2277
	addq	%rsi, %rcx	# tmp2277, tmp2278
	addq	$7478, %rcx	#, tmp2279
	movzwl	8(%rcx), %ecx	# img.156_519->mprr_3, D.10422
	.loc 1 862 0 discriminator 2
	movl	-496(%rbp), %esi	# i, tmp2281
	movslq	%esi, %rsi	# tmp2281, tmp2280
	salq	$4, %rsi	#, tmp2282
	addq	%rdx, %rsi	# img.155, tmp2283
	addq	$7476, %rsi	#, tmp2284
	movw	%cx, 8(%rsi)	# D.10422, img.155_518->mprr_3
	movl	-496(%rbp), %ecx	# i, tmp2286
	movslq	%ecx, %rcx	# tmp2286, tmp2285
	salq	$4, %rcx	#, tmp2287
	addq	%rcx, %rdx	# tmp2287, tmp2288
	addq	$7476, %rdx	#, tmp2289
	movzwl	8(%rdx), %edx	# img.155_518->mprr_3, D.10422
	.loc 1 861 0 discriminator 2
	movl	-496(%rbp), %ecx	# i, tmp2291
	movslq	%ecx, %rcx	# tmp2291, tmp2290
	salq	$4, %rcx	#, tmp2292
	addq	%rax, %rcx	# img.154, tmp2293
	addq	$7474, %rcx	#, tmp2294
	movw	%dx, 8(%rcx)	# D.10422, img.154_517->mprr_3
	movl	-496(%rbp), %edx	# i, tmp2296
	movslq	%edx, %rdx	# tmp2296, tmp2295
	salq	$4, %rdx	#, tmp2297
	addq	%rdx, %rax	# tmp2297, tmp2298
	addq	$7474, %rax	#, tmp2299
	movzwl	8(%rax), %eax	# img.154_517->mprr_3, D.10422
	.loc 1 860 0 discriminator 2
	movl	-496(%rbp), %edx	# i, tmp2301
	movslq	%edx, %rdx	# tmp2301, tmp2300
	addq	$467, %rdx	#, tmp2302
	salq	$4, %rdx	#, tmp2303
	addq	%r11, %rdx	# img.153, tmp2304
	movw	%ax, 8(%rdx)	# D.10422, img.153_516->mprr_3
	.loc 1 850 0 discriminator 2
	addl	$1, -496(%rbp)	#, i
.L235:
	.loc 1 850 0 is_stmt 0 discriminator 1
	cmpl	$7, -496(%rbp)	#, i
	jle	.L236	#,
	.loc 1 870 0 is_stmt 1
	cmpl	$0, -484(%rbp)	#, block_available_up
	jne	.L237	#,
	.loc 1 870 0 is_stmt 0 discriminator 1
	movq	img(%rip), %rax	# img, img.161
	movw	$-1, 7352(%rax)	#, img.161_536->mprr_3
.L237:
	.loc 1 871 0 is_stmt 1
	cmpl	$0, -480(%rbp)	#, block_available_left
	jne	.L238	#,
	.loc 1 871 0 is_stmt 0 discriminator 1
	movq	img(%rip), %rax	# img, img.162
	movw	$-1, 7480(%rax)	#, img.162_537->mprr_3
.L238:
	.loc 1 876 0 is_stmt 1
	cmpl	$0, -484(%rbp)	#, block_available_up
	je	.L239	#,
	.loc 1 879 0
	movq	img(%rip), %rax	# img, img.163
	movl	-348(%rbp), %ecx	# PredPel, D.10417
	movl	-340(%rbp), %edx	# PredPel, D.10417
	addl	%edx, %ecx	# D.10417, D.10417
	movl	-344(%rbp), %edx	# PredPel, D.10417
	addl	%edx, %edx	# D.10417
	addl	%ecx, %edx	# D.10417, D.10417
	addl	$2, %edx	#, D.10417
	sarl	$2, %edx	#, D.10417
	movw	%dx, 7736(%rax)	# D.10422, img.163_538->mprr_3
	.loc 1 880 0
	movq	img(%rip), %rdx	# img, img.164
	.loc 1 881 0
	movq	img(%rip), %rax	# img, img.165
	movl	-344(%rbp), %esi	# PredPel, D.10417
	movl	-336(%rbp), %ecx	# PredPel, D.10417
	addl	%ecx, %esi	# D.10417, D.10417
	movl	-340(%rbp), %ecx	# PredPel, D.10417
	addl	%ecx, %ecx	# D.10417
	addl	%esi, %ecx	# D.10417, D.10417
	addl	$2, %ecx	#, D.10417
	sarl	$2, %ecx	#, D.10417
	movw	%cx, 7752(%rax)	# D.10422, img.165_549->mprr_3
	movzwl	7752(%rax), %eax	# img.165_549->mprr_3, D.10422
	.loc 1 880 0
	movw	%ax, 7738(%rdx)	# D.10422, img.164_548->mprr_3
	.loc 1 882 0
	movq	img(%rip), %rcx	# img, img.166
	.loc 1 883 0
	movq	img(%rip), %rax	# img, img.167
	.loc 1 884 0
	movq	img(%rip), %rdx	# img, img.168
	movl	-340(%rbp), %edi	# PredPel, D.10417
	movl	-332(%rbp), %esi	# PredPel, D.10417
	addl	%esi, %edi	# D.10417, D.10417
	movl	-336(%rbp), %esi	# PredPel, D.10417
	addl	%esi, %esi	# D.10417
	addl	%edi, %esi	# D.10417, D.10417
	addl	$2, %esi	#, D.10417
	sarl	$2, %esi	#, D.10417
	movw	%si, 7768(%rdx)	# D.10422, img.168_562->mprr_3
	movzwl	7768(%rdx), %edx	# img.168_562->mprr_3, D.10422
	.loc 1 883 0
	movw	%dx, 7754(%rax)	# D.10422, img.167_561->mprr_3
	movzwl	7754(%rax), %eax	# img.167_561->mprr_3, D.10422
	.loc 1 882 0
	movw	%ax, 7740(%rcx)	# D.10422, img.166_560->mprr_3
	.loc 1 885 0
	movq	img(%rip), %rsi	# img, img.169
	.loc 1 886 0
	movq	img(%rip), %rax	# img, img.170
	.loc 1 887 0
	movq	img(%rip), %rdx	# img, img.171
	.loc 1 888 0
	movq	img(%rip), %rcx	# img, img.172
	movl	-336(%rbp), %r8d	# PredPel, D.10417
	movl	-328(%rbp), %edi	# PredPel, D.10417
	addl	%edi, %r8d	# D.10417, D.10417
	movl	-332(%rbp), %edi	# PredPel, D.10417
	addl	%edi, %edi	# D.10417
	addl	%r8d, %edi	# D.10417, D.10417
	addl	$2, %edi	#, D.10417
	sarl	$2, %edi	#, D.10417
	movw	%di, 7784(%rcx)	# D.10422, img.172_577->mprr_3
	movzwl	7784(%rcx), %ecx	# img.172_577->mprr_3, D.10422
	.loc 1 887 0
	movw	%cx, 7770(%rdx)	# D.10422, img.171_576->mprr_3
	movzwl	7770(%rdx), %edx	# img.171_576->mprr_3, D.10422
	.loc 1 886 0
	movw	%dx, 7756(%rax)	# D.10422, img.170_575->mprr_3
	movzwl	7756(%rax), %eax	# img.170_575->mprr_3, D.10422
	.loc 1 885 0
	movw	%ax, 7742(%rsi)	# D.10422, img.169_574->mprr_3
	.loc 1 889 0
	movq	img(%rip), %rdi	# img, img.173
	.loc 1 890 0
	movq	img(%rip), %rax	# img, img.174
	.loc 1 891 0
	movq	img(%rip), %rdx	# img, img.175
	.loc 1 892 0
	movq	img(%rip), %rcx	# img, img.176
	.loc 1 893 0
	movq	img(%rip), %rsi	# img, img.177
	movl	-332(%rbp), %r9d	# PredPel, D.10417
	movl	-324(%rbp), %r8d	# PredPel, D.10417
	addl	%r8d, %r9d	# D.10417, D.10417
	movl	-328(%rbp), %r8d	# PredPel, D.10417
	addl	%r8d, %r8d	# D.10417
	addl	%r9d, %r8d	# D.10417, D.10417
	addl	$2, %r8d	#, D.10417
	sarl	$2, %r8d	#, D.10417
	movw	%r8w, 7800(%rsi)	# D.10422, img.177_594->mprr_3
	movzwl	7800(%rsi), %esi	# img.177_594->mprr_3, D.10422
	.loc 1 892 0
	movw	%si, 7786(%rcx)	# D.10422, img.176_593->mprr_3
	movzwl	7786(%rcx), %ecx	# img.176_593->mprr_3, D.10422
	.loc 1 891 0
	movw	%cx, 7772(%rdx)	# D.10422, img.175_592->mprr_3
	movzwl	7772(%rdx), %edx	# img.175_592->mprr_3, D.10422
	.loc 1 890 0
	movw	%dx, 7758(%rax)	# D.10422, img.174_591->mprr_3
	movzwl	7758(%rax), %eax	# img.174_591->mprr_3, D.10422
	.loc 1 889 0
	movw	%ax, 7744(%rdi)	# D.10422, img.173_590->mprr_3
	.loc 1 894 0
	movq	img(%rip), %r8	# img, img.178
	.loc 1 895 0
	movq	img(%rip), %rax	# img, img.179
	.loc 1 896 0
	movq	img(%rip), %rdx	# img, img.180
	.loc 1 897 0
	movq	img(%rip), %rcx	# img, img.181
	.loc 1 898 0
	movq	img(%rip), %rsi	# img, img.182
	.loc 1 899 0
	movq	img(%rip), %rdi	# img, img.183
	movl	-328(%rbp), %r10d	# PredPel, D.10417
	movl	-320(%rbp), %r9d	# PredPel, D.10417
	addl	%r9d, %r10d	# D.10417, D.10417
	movl	-324(%rbp), %r9d	# PredPel, D.10417
	addl	%r9d, %r9d	# D.10417
	addl	%r10d, %r9d	# D.10417, D.10417
	addl	$2, %r9d	#, D.10417
	sarl	$2, %r9d	#, D.10417
	movw	%r9w, 7816(%rdi)	# D.10422, img.183_613->mprr_3
	movzwl	7816(%rdi), %edi	# img.183_613->mprr_3, D.10422
	.loc 1 898 0
	movw	%di, 7802(%rsi)	# D.10422, img.182_612->mprr_3
	movzwl	7802(%rsi), %esi	# img.182_612->mprr_3, D.10422
	.loc 1 897 0
	movw	%si, 7788(%rcx)	# D.10422, img.181_611->mprr_3
	movzwl	7788(%rcx), %ecx	# img.181_611->mprr_3, D.10422
	.loc 1 896 0
	movw	%cx, 7774(%rdx)	# D.10422, img.180_610->mprr_3
	movzwl	7774(%rdx), %edx	# img.180_610->mprr_3, D.10422
	.loc 1 895 0
	movw	%dx, 7760(%rax)	# D.10422, img.179_609->mprr_3
	movzwl	7760(%rax), %eax	# img.179_609->mprr_3, D.10422
	.loc 1 894 0
	movw	%ax, 7746(%r8)	# D.10422, img.178_608->mprr_3
	.loc 1 900 0
	movq	img(%rip), %r9	# img, img.184
	.loc 1 901 0
	movq	img(%rip), %rax	# img, img.185
	.loc 1 902 0
	movq	img(%rip), %rdx	# img, img.186
	.loc 1 903 0
	movq	img(%rip), %rcx	# img, img.187
	.loc 1 904 0
	movq	img(%rip), %rsi	# img, img.188
	.loc 1 905 0
	movq	img(%rip), %rdi	# img, img.189
	.loc 1 906 0
	movq	img(%rip), %r8	# img, img.190
	movl	-324(%rbp), %r11d	# PredPel, D.10417
	movl	-316(%rbp), %r10d	# PredPel, D.10417
	addl	%r10d, %r11d	# D.10417, D.10417
	movl	-320(%rbp), %r10d	# PredPel, D.10417
	addl	%r10d, %r10d	# D.10417
	addl	%r11d, %r10d	# D.10417, D.10417
	addl	$2, %r10d	#, D.10417
	sarl	$2, %r10d	#, D.10417
	movw	%r10w, 7832(%r8)	# D.10422, img.190_634->mprr_3
	movzwl	7832(%r8), %r8d	# img.190_634->mprr_3, D.10422
	.loc 1 905 0
	movw	%r8w, 7818(%rdi)	# D.10422, img.189_633->mprr_3
	movzwl	7818(%rdi), %edi	# img.189_633->mprr_3, D.10422
	.loc 1 904 0
	movw	%di, 7804(%rsi)	# D.10422, img.188_632->mprr_3
	movzwl	7804(%rsi), %esi	# img.188_632->mprr_3, D.10422
	.loc 1 903 0
	movw	%si, 7790(%rcx)	# D.10422, img.187_631->mprr_3
	movzwl	7790(%rcx), %ecx	# img.187_631->mprr_3, D.10422
	.loc 1 902 0
	movw	%cx, 7776(%rdx)	# D.10422, img.186_630->mprr_3
	movzwl	7776(%rdx), %edx	# img.186_630->mprr_3, D.10422
	.loc 1 901 0
	movw	%dx, 7762(%rax)	# D.10422, img.185_629->mprr_3
	movzwl	7762(%rax), %eax	# img.185_629->mprr_3, D.10422
	.loc 1 900 0
	movw	%ax, 7748(%r9)	# D.10422, img.184_628->mprr_3
	.loc 1 907 0
	movq	img(%rip), %r10	# img, img.191
	.loc 1 908 0
	movq	img(%rip), %rax	# img, img.192
	.loc 1 909 0
	movq	img(%rip), %rdx	# img, img.193
	.loc 1 910 0
	movq	img(%rip), %rcx	# img, img.194
	.loc 1 911 0
	movq	img(%rip), %rsi	# img, img.195
	.loc 1 912 0
	movq	img(%rip), %rdi	# img, img.196
	.loc 1 913 0
	movq	img(%rip), %r8	# img, img.197
	.loc 1 914 0
	movq	img(%rip), %r9	# img, img.198
	movl	-320(%rbp), %ebx	# PredPel, D.10417
	movl	-312(%rbp), %r11d	# PredPel, D.10417
	addl	%r11d, %ebx	# D.10417, D.10417
	movl	-316(%rbp), %r11d	# PredPel, D.10417
	addl	%r11d, %r11d	# D.10417
	addl	%ebx, %r11d	# D.10417, D.10417
	addl	$2, %r11d	#, D.10417
	sarl	$2, %r11d	#, D.10417
	movw	%r11w, 7848(%r9)	# D.10422, img.198_657->mprr_3
	movzwl	7848(%r9), %r9d	# img.198_657->mprr_3, D.10422
	.loc 1 913 0
	movw	%r9w, 7834(%r8)	# D.10422, img.197_656->mprr_3
	movzwl	7834(%r8), %r8d	# img.197_656->mprr_3, D.10422
	.loc 1 912 0
	movw	%r8w, 7820(%rdi)	# D.10422, img.196_655->mprr_3
	movzwl	7820(%rdi), %edi	# img.196_655->mprr_3, D.10422
	.loc 1 911 0
	movw	%di, 7806(%rsi)	# D.10422, img.195_654->mprr_3
	movzwl	7806(%rsi), %esi	# img.195_654->mprr_3, D.10422
	.loc 1 910 0
	movw	%si, 7792(%rcx)	# D.10422, img.194_653->mprr_3
	movzwl	7792(%rcx), %ecx	# img.194_653->mprr_3, D.10422
	.loc 1 909 0
	movw	%cx, 7778(%rdx)	# D.10422, img.193_652->mprr_3
	movzwl	7778(%rdx), %edx	# img.193_652->mprr_3, D.10422
	.loc 1 908 0
	movw	%dx, 7764(%rax)	# D.10422, img.192_651->mprr_3
	movzwl	7764(%rax), %eax	# img.192_651->mprr_3, D.10422
	.loc 1 907 0
	movw	%ax, 7750(%r10)	# D.10422, img.191_650->mprr_3
	.loc 1 915 0
	movq	img(%rip), %r9	# img, img.199
	.loc 1 916 0
	movq	img(%rip), %rax	# img, img.200
	.loc 1 917 0
	movq	img(%rip), %rdx	# img, img.201
	.loc 1 918 0
	movq	img(%rip), %rcx	# img, img.202
	.loc 1 919 0
	movq	img(%rip), %rsi	# img, img.203
	.loc 1 920 0
	movq	img(%rip), %rdi	# img, img.204
	.loc 1 921 0
	movq	img(%rip), %r8	# img, img.205
	movl	-316(%rbp), %r11d	# PredPel, D.10417
	movl	-308(%rbp), %r10d	# PredPel, D.10417
	addl	%r10d, %r11d	# D.10417, D.10417
	movl	-312(%rbp), %r10d	# PredPel, D.10417
	addl	%r10d, %r10d	# D.10417
	addl	%r11d, %r10d	# D.10417, D.10417
	addl	$2, %r10d	#, D.10417
	sarl	$2, %r10d	#, D.10417
	movw	%r10w, 7850(%r8)	# D.10422, img.205_680->mprr_3
	movzwl	7850(%r8), %r8d	# img.205_680->mprr_3, D.10422
	.loc 1 920 0
	movw	%r8w, 7836(%rdi)	# D.10422, img.204_679->mprr_3
	movzwl	7836(%rdi), %edi	# img.204_679->mprr_3, D.10422
	.loc 1 919 0
	movw	%di, 7822(%rsi)	# D.10422, img.203_678->mprr_3
	movzwl	7822(%rsi), %esi	# img.203_678->mprr_3, D.10422
	.loc 1 918 0
	movw	%si, 7808(%rcx)	# D.10422, img.202_677->mprr_3
	movzwl	7808(%rcx), %ecx	# img.202_677->mprr_3, D.10422
	.loc 1 917 0
	movw	%cx, 7794(%rdx)	# D.10422, img.201_676->mprr_3
	movzwl	7794(%rdx), %edx	# img.201_676->mprr_3, D.10422
	.loc 1 916 0
	movw	%dx, 7780(%rax)	# D.10422, img.200_675->mprr_3
	movzwl	7780(%rax), %eax	# img.200_675->mprr_3, D.10422
	.loc 1 915 0
	movw	%ax, 7766(%r9)	# D.10422, img.199_674->mprr_3
	.loc 1 922 0
	movq	img(%rip), %r8	# img, img.206
	.loc 1 923 0
	movq	img(%rip), %rax	# img, img.207
	.loc 1 924 0
	movq	img(%rip), %rdx	# img, img.208
	.loc 1 925 0
	movq	img(%rip), %rcx	# img, img.209
	.loc 1 926 0
	movq	img(%rip), %rsi	# img, img.210
	.loc 1 927 0
	movq	img(%rip), %rdi	# img, img.211
	movl	-312(%rbp), %r10d	# PredPel, D.10417
	movl	-304(%rbp), %r9d	# PredPel, D.10417
	addl	%r9d, %r10d	# D.10417, D.10417
	movl	-308(%rbp), %r9d	# PredPel, D.10417
	addl	%r9d, %r9d	# D.10417
	addl	%r10d, %r9d	# D.10417, D.10417
	addl	$2, %r9d	#, D.10417
	sarl	$2, %r9d	#, D.10417
	movw	%r9w, 7852(%rdi)	# D.10422, img.211_701->mprr_3
	movzwl	7852(%rdi), %edi	# img.211_701->mprr_3, D.10422
	.loc 1 926 0
	movw	%di, 7838(%rsi)	# D.10422, img.210_700->mprr_3
	movzwl	7838(%rsi), %esi	# img.210_700->mprr_3, D.10422
	.loc 1 925 0
	movw	%si, 7824(%rcx)	# D.10422, img.209_699->mprr_3
	movzwl	7824(%rcx), %ecx	# img.209_699->mprr_3, D.10422
	.loc 1 924 0
	movw	%cx, 7810(%rdx)	# D.10422, img.208_698->mprr_3
	movzwl	7810(%rdx), %edx	# img.208_698->mprr_3, D.10422
	.loc 1 923 0
	movw	%dx, 7796(%rax)	# D.10422, img.207_697->mprr_3
	movzwl	7796(%rax), %eax	# img.207_697->mprr_3, D.10422
	.loc 1 922 0
	movw	%ax, 7782(%r8)	# D.10422, img.206_696->mprr_3
	.loc 1 928 0
	movq	img(%rip), %rdi	# img, img.212
	.loc 1 929 0
	movq	img(%rip), %rax	# img, img.213
	.loc 1 930 0
	movq	img(%rip), %rdx	# img, img.214
	.loc 1 931 0
	movq	img(%rip), %rcx	# img, img.215
	.loc 1 932 0
	movq	img(%rip), %rsi	# img, img.216
	movl	-308(%rbp), %r9d	# PredPel, D.10417
	movl	-300(%rbp), %r8d	# PredPel, D.10417
	addl	%r8d, %r9d	# D.10417, D.10417
	movl	-304(%rbp), %r8d	# PredPel, D.10417
	addl	%r8d, %r8d	# D.10417
	addl	%r9d, %r8d	# D.10417, D.10417
	addl	$2, %r8d	#, D.10417
	sarl	$2, %r8d	#, D.10417
	movw	%r8w, 7854(%rsi)	# D.10422, img.216_720->mprr_3
	movzwl	7854(%rsi), %esi	# img.216_720->mprr_3, D.10422
	.loc 1 931 0
	movw	%si, 7840(%rcx)	# D.10422, img.215_719->mprr_3
	movzwl	7840(%rcx), %ecx	# img.215_719->mprr_3, D.10422
	.loc 1 930 0
	movw	%cx, 7826(%rdx)	# D.10422, img.214_718->mprr_3
	movzwl	7826(%rdx), %edx	# img.214_718->mprr_3, D.10422
	.loc 1 929 0
	movw	%dx, 7812(%rax)	# D.10422, img.213_717->mprr_3
	movzwl	7812(%rax), %eax	# img.213_717->mprr_3, D.10422
	.loc 1 928 0
	movw	%ax, 7798(%rdi)	# D.10422, img.212_716->mprr_3
	.loc 1 933 0
	movq	img(%rip), %rsi	# img, img.217
	.loc 1 934 0
	movq	img(%rip), %rax	# img, img.218
	.loc 1 935 0
	movq	img(%rip), %rdx	# img, img.219
	.loc 1 936 0
	movq	img(%rip), %rcx	# img, img.220
	movl	-304(%rbp), %r8d	# PredPel, D.10417
	movl	-296(%rbp), %edi	# PredPel, D.10417
	addl	%edi, %r8d	# D.10417, D.10417
	movl	-300(%rbp), %edi	# PredPel, D.10417
	addl	%edi, %edi	# D.10417
	addl	%r8d, %edi	# D.10417, D.10417
	addl	$2, %edi	#, D.10417
	sarl	$2, %edi	#, D.10417
	movw	%di, 7856(%rcx)	# D.10422, img.220_737->mprr_3
	movzwl	7856(%rcx), %ecx	# img.220_737->mprr_3, D.10422
	.loc 1 935 0
	movw	%cx, 7842(%rdx)	# D.10422, img.219_736->mprr_3
	movzwl	7842(%rdx), %edx	# img.219_736->mprr_3, D.10422
	.loc 1 934 0
	movw	%dx, 7828(%rax)	# D.10422, img.218_735->mprr_3
	movzwl	7828(%rax), %eax	# img.218_735->mprr_3, D.10422
	.loc 1 933 0
	movw	%ax, 7814(%rsi)	# D.10422, img.217_734->mprr_3
	.loc 1 937 0
	movq	img(%rip), %rcx	# img, img.221
	.loc 1 938 0
	movq	img(%rip), %rax	# img, img.222
	.loc 1 939 0
	movq	img(%rip), %rdx	# img, img.223
	movl	-300(%rbp), %edi	# PredPel, D.10417
	movl	-292(%rbp), %esi	# PredPel, D.10417
	addl	%esi, %edi	# D.10417, D.10417
	movl	-296(%rbp), %esi	# PredPel, D.10417
	addl	%esi, %esi	# D.10417
	addl	%edi, %esi	# D.10417, D.10417
	addl	$2, %esi	#, D.10417
	sarl	$2, %esi	#, D.10417
	movw	%si, 7858(%rdx)	# D.10422, img.223_752->mprr_3
	movzwl	7858(%rdx), %edx	# img.223_752->mprr_3, D.10422
	.loc 1 938 0
	movw	%dx, 7844(%rax)	# D.10422, img.222_751->mprr_3
	movzwl	7844(%rax), %eax	# img.222_751->mprr_3, D.10422
	.loc 1 937 0
	movw	%ax, 7830(%rcx)	# D.10422, img.221_750->mprr_3
	.loc 1 940 0
	movq	img(%rip), %rdx	# img, img.224
	.loc 1 941 0
	movq	img(%rip), %rax	# img, img.225
	movl	-296(%rbp), %esi	# PredPel, D.10417
	movl	-288(%rbp), %ecx	# PredPel, D.10417
	addl	%ecx, %esi	# D.10417, D.10417
	movl	-292(%rbp), %ecx	# PredPel, D.10417
	addl	%ecx, %ecx	# D.10417
	addl	%esi, %ecx	# D.10417, D.10417
	addl	$2, %ecx	#, D.10417
	sarl	$2, %ecx	#, D.10417
	movw	%cx, 7860(%rax)	# D.10422, img.225_765->mprr_3
	movzwl	7860(%rax), %eax	# img.225_765->mprr_3, D.10422
	.loc 1 940 0
	movw	%ax, 7846(%rdx)	# D.10422, img.224_764->mprr_3
	.loc 1 942 0
	movq	img(%rip), %rcx	# img, img.226
	movl	-292(%rbp), %esi	# PredPel, D.10417
	movl	-288(%rbp), %edx	# PredPel, D.10417
	movl	%edx, %eax	# D.10417, tmp2305
	addl	%eax, %eax	# tmp2305
	addl	%edx, %eax	# D.10417, D.10417
	addl	%esi, %eax	# D.10417, D.10417
	addl	$2, %eax	#, D.10417
	sarl	$2, %eax	#, D.10417
	movw	%ax, 7862(%rcx)	# D.10422, img.226_776->mprr_3
	.loc 1 947 0
	movq	img(%rip), %rax	# img, img.227
	movl	-348(%rbp), %ecx	# PredPel, D.10417
	movl	-344(%rbp), %edx	# PredPel, D.10417
	addl	%ecx, %edx	# D.10417, D.10417
	addl	$1, %edx	#, D.10417
	sarl	%edx	# D.10417
	movw	%dx, 8248(%rax)	# D.10422, img.227_784->mprr_3
	.loc 1 948 0
	movq	img(%rip), %rdx	# img, img.228
	.loc 1 949 0
	movq	img(%rip), %rax	# img, img.229
	movl	-344(%rbp), %esi	# PredPel, D.10417
	movl	-340(%rbp), %ecx	# PredPel, D.10417
	addl	%esi, %ecx	# D.10417, D.10417
	addl	$1, %ecx	#, D.10417
	sarl	%ecx	# D.10417
	movw	%cx, 8280(%rax)	# D.10422, img.229_792->mprr_3
	movzwl	8280(%rax), %eax	# img.229_792->mprr_3, D.10422
	.loc 1 948 0
	movw	%ax, 8250(%rdx)	# D.10422, img.228_791->mprr_3
	.loc 1 950 0
	movq	img(%rip), %rcx	# img, img.230
	.loc 1 951 0
	movq	img(%rip), %rax	# img, img.231
	.loc 1 952 0
	movq	img(%rip), %rdx	# img, img.232
	movl	-340(%rbp), %edi	# PredPel, D.10417
	movl	-336(%rbp), %esi	# PredPel, D.10417
	addl	%edi, %esi	# D.10417, D.10417
	addl	$1, %esi	#, D.10417
	sarl	%esi	# D.10417
	movw	%si, 8312(%rdx)	# D.10422, img.232_802->mprr_3
	movzwl	8312(%rdx), %edx	# img.232_802->mprr_3, D.10422
	.loc 1 951 0
	movw	%dx, 8282(%rax)	# D.10422, img.231_801->mprr_3
	movzwl	8282(%rax), %eax	# img.231_801->mprr_3, D.10422
	.loc 1 950 0
	movw	%ax, 8252(%rcx)	# D.10422, img.230_800->mprr_3
	.loc 1 953 0
	movq	img(%rip), %rsi	# img, img.233
	.loc 1 954 0
	movq	img(%rip), %rax	# img, img.234
	.loc 1 955 0
	movq	img(%rip), %rdx	# img, img.235
	.loc 1 956 0
	movq	img(%rip), %rcx	# img, img.236
	movl	-336(%rbp), %r8d	# PredPel, D.10417
	movl	-332(%rbp), %edi	# PredPel, D.10417
	addl	%r8d, %edi	# D.10417, D.10417
	addl	$1, %edi	#, D.10417
	sarl	%edi	# D.10417
	movw	%di, 8344(%rcx)	# D.10422, img.236_814->mprr_3
	movzwl	8344(%rcx), %ecx	# img.236_814->mprr_3, D.10422
	.loc 1 955 0
	movw	%cx, 8314(%rdx)	# D.10422, img.235_813->mprr_3
	movzwl	8314(%rdx), %edx	# img.235_813->mprr_3, D.10422
	.loc 1 954 0
	movw	%dx, 8284(%rax)	# D.10422, img.234_812->mprr_3
	movzwl	8284(%rax), %eax	# img.234_812->mprr_3, D.10422
	.loc 1 953 0
	movw	%ax, 8254(%rsi)	# D.10422, img.233_811->mprr_3
	.loc 1 957 0
	movq	img(%rip), %rsi	# img, img.237
	.loc 1 958 0
	movq	img(%rip), %rax	# img, img.238
	.loc 1 959 0
	movq	img(%rip), %rdx	# img, img.239
	.loc 1 960 0
	movq	img(%rip), %rcx	# img, img.240
	movl	-332(%rbp), %r8d	# PredPel, D.10417
	movl	-328(%rbp), %edi	# PredPel, D.10417
	addl	%r8d, %edi	# D.10417, D.10417
	addl	$1, %edi	#, D.10417
	sarl	%edi	# D.10417
	movw	%di, 8346(%rcx)	# D.10422, img.240_827->mprr_3
	movzwl	8346(%rcx), %ecx	# img.240_827->mprr_3, D.10422
	.loc 1 959 0
	movw	%cx, 8316(%rdx)	# D.10422, img.239_826->mprr_3
	movzwl	8316(%rdx), %edx	# img.239_826->mprr_3, D.10422
	.loc 1 958 0
	movw	%dx, 8286(%rax)	# D.10422, img.238_825->mprr_3
	movzwl	8286(%rax), %eax	# img.238_825->mprr_3, D.10422
	.loc 1 957 0
	movw	%ax, 8256(%rsi)	# D.10422, img.237_824->mprr_3
	.loc 1 961 0
	movq	img(%rip), %rsi	# img, img.241
	.loc 1 962 0
	movq	img(%rip), %rax	# img, img.242
	.loc 1 963 0
	movq	img(%rip), %rdx	# img, img.243
	.loc 1 964 0
	movq	img(%rip), %rcx	# img, img.244
	movl	-328(%rbp), %r8d	# PredPel, D.10417
	movl	-324(%rbp), %edi	# PredPel, D.10417
	addl	%r8d, %edi	# D.10417, D.10417
	addl	$1, %edi	#, D.10417
	sarl	%edi	# D.10417
	movw	%di, 8348(%rcx)	# D.10422, img.244_840->mprr_3
	movzwl	8348(%rcx), %ecx	# img.244_840->mprr_3, D.10422
	.loc 1 963 0
	movw	%cx, 8318(%rdx)	# D.10422, img.243_839->mprr_3
	movzwl	8318(%rdx), %edx	# img.243_839->mprr_3, D.10422
	.loc 1 962 0
	movw	%dx, 8288(%rax)	# D.10422, img.242_838->mprr_3
	movzwl	8288(%rax), %eax	# img.242_838->mprr_3, D.10422
	.loc 1 961 0
	movw	%ax, 8258(%rsi)	# D.10422, img.241_837->mprr_3
	.loc 1 965 0
	movq	img(%rip), %rsi	# img, img.245
	.loc 1 966 0
	movq	img(%rip), %rax	# img, img.246
	.loc 1 967 0
	movq	img(%rip), %rdx	# img, img.247
	.loc 1 968 0
	movq	img(%rip), %rcx	# img, img.248
	movl	-324(%rbp), %r8d	# PredPel, D.10417
	movl	-320(%rbp), %edi	# PredPel, D.10417
	addl	%r8d, %edi	# D.10417, D.10417
	addl	$1, %edi	#, D.10417
	sarl	%edi	# D.10417
	movw	%di, 8350(%rcx)	# D.10422, img.248_853->mprr_3
	movzwl	8350(%rcx), %ecx	# img.248_853->mprr_3, D.10422
	.loc 1 967 0
	movw	%cx, 8320(%rdx)	# D.10422, img.247_852->mprr_3
	movzwl	8320(%rdx), %edx	# img.247_852->mprr_3, D.10422
	.loc 1 966 0
	movw	%dx, 8290(%rax)	# D.10422, img.246_851->mprr_3
	movzwl	8290(%rax), %eax	# img.246_851->mprr_3, D.10422
	.loc 1 965 0
	movw	%ax, 8260(%rsi)	# D.10422, img.245_850->mprr_3
	.loc 1 969 0
	movq	img(%rip), %rsi	# img, img.249
	.loc 1 970 0
	movq	img(%rip), %rax	# img, img.250
	.loc 1 971 0
	movq	img(%rip), %rdx	# img, img.251
	.loc 1 972 0
	movq	img(%rip), %rcx	# img, img.252
	movl	-320(%rbp), %r8d	# PredPel, D.10417
	movl	-316(%rbp), %edi	# PredPel, D.10417
	addl	%r8d, %edi	# D.10417, D.10417
	addl	$1, %edi	#, D.10417
	sarl	%edi	# D.10417
	movw	%di, 8352(%rcx)	# D.10422, img.252_866->mprr_3
	movzwl	8352(%rcx), %ecx	# img.252_866->mprr_3, D.10422
	.loc 1 971 0
	movw	%cx, 8322(%rdx)	# D.10422, img.251_865->mprr_3
	movzwl	8322(%rdx), %edx	# img.251_865->mprr_3, D.10422
	.loc 1 970 0
	movw	%dx, 8292(%rax)	# D.10422, img.250_864->mprr_3
	movzwl	8292(%rax), %eax	# img.250_864->mprr_3, D.10422
	.loc 1 969 0
	movw	%ax, 8262(%rsi)	# D.10422, img.249_863->mprr_3
	.loc 1 973 0
	movq	img(%rip), %rcx	# img, img.253
	.loc 1 974 0
	movq	img(%rip), %rax	# img, img.254
	.loc 1 975 0
	movq	img(%rip), %rdx	# img, img.255
	movl	-316(%rbp), %edi	# PredPel, D.10417
	movl	-312(%rbp), %esi	# PredPel, D.10417
	addl	%edi, %esi	# D.10417, D.10417
	addl	$1, %esi	#, D.10417
	sarl	%esi	# D.10417
	movw	%si, 8354(%rdx)	# D.10422, img.255_878->mprr_3
	movzwl	8354(%rdx), %edx	# img.255_878->mprr_3, D.10422
	.loc 1 974 0
	movw	%dx, 8324(%rax)	# D.10422, img.254_877->mprr_3
	movzwl	8324(%rax), %eax	# img.254_877->mprr_3, D.10422
	.loc 1 973 0
	movw	%ax, 8294(%rcx)	# D.10422, img.253_876->mprr_3
	.loc 1 976 0
	movq	img(%rip), %rdx	# img, img.256
	.loc 1 977 0
	movq	img(%rip), %rax	# img, img.257
	movl	-312(%rbp), %esi	# PredPel, D.10417
	movl	-308(%rbp), %ecx	# PredPel, D.10417
	addl	%esi, %ecx	# D.10417, D.10417
	addl	$1, %ecx	#, D.10417
	sarl	%ecx	# D.10417
	movw	%cx, 8356(%rax)	# D.10422, img.257_888->mprr_3
	movzwl	8356(%rax), %eax	# img.257_888->mprr_3, D.10422
	.loc 1 976 0
	movw	%ax, 8326(%rdx)	# D.10422, img.256_887->mprr_3
	.loc 1 978 0
	movq	img(%rip), %rax	# img, img.258
	movl	-308(%rbp), %ecx	# PredPel, D.10417
	movl	-304(%rbp), %edx	# PredPel, D.10417
	addl	%ecx, %edx	# D.10417, D.10417
	addl	$1, %edx	#, D.10417
	sarl	%edx	# D.10417
	movw	%dx, 8358(%rax)	# D.10422, img.258_896->mprr_3
	.loc 1 979 0
	movq	img(%rip), %rax	# img, img.259
	movl	-348(%rbp), %ecx	# PredPel, D.10417
	movl	-340(%rbp), %edx	# PredPel, D.10417
	addl	%edx, %ecx	# D.10417, D.10417
	movl	-344(%rbp), %edx	# PredPel, D.10417
	addl	%edx, %edx	# D.10417
	addl	%ecx, %edx	# D.10417, D.10417
	addl	$2, %edx	#, D.10417
	sarl	$2, %edx	#, D.10417
	movw	%dx, 8264(%rax)	# D.10422, img.259_903->mprr_3
	.loc 1 980 0
	movq	img(%rip), %rdx	# img, img.260
	.loc 1 981 0
	movq	img(%rip), %rax	# img, img.261
	movl	-344(%rbp), %esi	# PredPel, D.10417
	movl	-336(%rbp), %ecx	# PredPel, D.10417
	addl	%ecx, %esi	# D.10417, D.10417
	movl	-340(%rbp), %ecx	# PredPel, D.10417
	addl	%ecx, %ecx	# D.10417
	addl	%esi, %ecx	# D.10417, D.10417
	addl	$2, %ecx	#, D.10417
	sarl	$2, %ecx	#, D.10417
	movw	%cx, 8296(%rax)	# D.10422, img.261_914->mprr_3
	movzwl	8296(%rax), %eax	# img.261_914->mprr_3, D.10422
	.loc 1 980 0
	movw	%ax, 8266(%rdx)	# D.10422, img.260_913->mprr_3
	.loc 1 982 0
	movq	img(%rip), %rcx	# img, img.262
	.loc 1 983 0
	movq	img(%rip), %rax	# img, img.263
	.loc 1 984 0
	movq	img(%rip), %rdx	# img, img.264
	movl	-340(%rbp), %edi	# PredPel, D.10417
	movl	-332(%rbp), %esi	# PredPel, D.10417
	addl	%esi, %edi	# D.10417, D.10417
	movl	-336(%rbp), %esi	# PredPel, D.10417
	addl	%esi, %esi	# D.10417
	addl	%edi, %esi	# D.10417, D.10417
	addl	$2, %esi	#, D.10417
	sarl	$2, %esi	#, D.10417
	movw	%si, 8328(%rdx)	# D.10422, img.264_927->mprr_3
	movzwl	8328(%rdx), %edx	# img.264_927->mprr_3, D.10422
	.loc 1 983 0
	movw	%dx, 8298(%rax)	# D.10422, img.263_926->mprr_3
	movzwl	8298(%rax), %eax	# img.263_926->mprr_3, D.10422
	.loc 1 982 0
	movw	%ax, 8268(%rcx)	# D.10422, img.262_925->mprr_3
	.loc 1 985 0
	movq	img(%rip), %rsi	# img, img.265
	.loc 1 986 0
	movq	img(%rip), %rax	# img, img.266
	.loc 1 987 0
	movq	img(%rip), %rdx	# img, img.267
	.loc 1 988 0
	movq	img(%rip), %rcx	# img, img.268
	movl	-336(%rbp), %r8d	# PredPel, D.10417
	movl	-328(%rbp), %edi	# PredPel, D.10417
	addl	%edi, %r8d	# D.10417, D.10417
	movl	-332(%rbp), %edi	# PredPel, D.10417
	addl	%edi, %edi	# D.10417
	addl	%r8d, %edi	# D.10417, D.10417
	addl	$2, %edi	#, D.10417
	sarl	$2, %edi	#, D.10417
	movw	%di, 8360(%rcx)	# D.10422, img.268_942->mprr_3
	movzwl	8360(%rcx), %ecx	# img.268_942->mprr_3, D.10422
	.loc 1 987 0
	movw	%cx, 8330(%rdx)	# D.10422, img.267_941->mprr_3
	movzwl	8330(%rdx), %edx	# img.267_941->mprr_3, D.10422
	.loc 1 986 0
	movw	%dx, 8300(%rax)	# D.10422, img.266_940->mprr_3
	movzwl	8300(%rax), %eax	# img.266_940->mprr_3, D.10422
	.loc 1 985 0
	movw	%ax, 8270(%rsi)	# D.10422, img.265_939->mprr_3
	.loc 1 989 0
	movq	img(%rip), %rsi	# img, img.269
	.loc 1 990 0
	movq	img(%rip), %rax	# img, img.270
	.loc 1 991 0
	movq	img(%rip), %rdx	# img, img.271
	.loc 1 992 0
	movq	img(%rip), %rcx	# img, img.272
	movl	-332(%rbp), %r8d	# PredPel, D.10417
	movl	-324(%rbp), %edi	# PredPel, D.10417
	addl	%edi, %r8d	# D.10417, D.10417
	movl	-328(%rbp), %edi	# PredPel, D.10417
	addl	%edi, %edi	# D.10417
	addl	%r8d, %edi	# D.10417, D.10417
	addl	$2, %edi	#, D.10417
	sarl	$2, %edi	#, D.10417
	movw	%di, 8362(%rcx)	# D.10422, img.272_958->mprr_3
	movzwl	8362(%rcx), %ecx	# img.272_958->mprr_3, D.10422
	.loc 1 991 0
	movw	%cx, 8332(%rdx)	# D.10422, img.271_957->mprr_3
	movzwl	8332(%rdx), %edx	# img.271_957->mprr_3, D.10422
	.loc 1 990 0
	movw	%dx, 8302(%rax)	# D.10422, img.270_956->mprr_3
	movzwl	8302(%rax), %eax	# img.270_956->mprr_3, D.10422
	.loc 1 989 0
	movw	%ax, 8272(%rsi)	# D.10422, img.269_955->mprr_3
	.loc 1 993 0
	movq	img(%rip), %rsi	# img, img.273
	.loc 1 994 0
	movq	img(%rip), %rax	# img, img.274
	.loc 1 995 0
	movq	img(%rip), %rdx	# img, img.275
	.loc 1 996 0
	movq	img(%rip), %rcx	# img, img.276
	movl	-328(%rbp), %r8d	# PredPel, D.10417
	movl	-320(%rbp), %edi	# PredPel, D.10417
	addl	%edi, %r8d	# D.10417, D.10417
	movl	-324(%rbp), %edi	# PredPel, D.10417
	addl	%edi, %edi	# D.10417
	addl	%r8d, %edi	# D.10417, D.10417
	addl	$2, %edi	#, D.10417
	sarl	$2, %edi	#, D.10417
	movw	%di, 8364(%rcx)	# D.10422, img.276_974->mprr_3
	movzwl	8364(%rcx), %ecx	# img.276_974->mprr_3, D.10422
	.loc 1 995 0
	movw	%cx, 8334(%rdx)	# D.10422, img.275_973->mprr_3
	movzwl	8334(%rdx), %edx	# img.275_973->mprr_3, D.10422
	.loc 1 994 0
	movw	%dx, 8304(%rax)	# D.10422, img.274_972->mprr_3
	movzwl	8304(%rax), %eax	# img.274_972->mprr_3, D.10422
	.loc 1 993 0
	movw	%ax, 8274(%rsi)	# D.10422, img.273_971->mprr_3
	.loc 1 997 0
	movq	img(%rip), %rsi	# img, img.277
	.loc 1 998 0
	movq	img(%rip), %rax	# img, img.278
	.loc 1 999 0
	movq	img(%rip), %rdx	# img, img.279
	.loc 1 1000 0
	movq	img(%rip), %rcx	# img, img.280
	movl	-324(%rbp), %r8d	# PredPel, D.10417
	movl	-316(%rbp), %edi	# PredPel, D.10417
	addl	%edi, %r8d	# D.10417, D.10417
	movl	-320(%rbp), %edi	# PredPel, D.10417
	addl	%edi, %edi	# D.10417
	addl	%r8d, %edi	# D.10417, D.10417
	addl	$2, %edi	#, D.10417
	sarl	$2, %edi	#, D.10417
	movw	%di, 8366(%rcx)	# D.10422, img.280_990->mprr_3
	movzwl	8366(%rcx), %ecx	# img.280_990->mprr_3, D.10422
	.loc 1 999 0
	movw	%cx, 8336(%rdx)	# D.10422, img.279_989->mprr_3
	movzwl	8336(%rdx), %edx	# img.279_989->mprr_3, D.10422
	.loc 1 998 0
	movw	%dx, 8306(%rax)	# D.10422, img.278_988->mprr_3
	movzwl	8306(%rax), %eax	# img.278_988->mprr_3, D.10422
	.loc 1 997 0
	movw	%ax, 8276(%rsi)	# D.10422, img.277_987->mprr_3
	.loc 1 1001 0
	movq	img(%rip), %rsi	# img, img.281
	.loc 1 1002 0
	movq	img(%rip), %rax	# img, img.282
	.loc 1 1003 0
	movq	img(%rip), %rdx	# img, img.283
	.loc 1 1004 0
	movq	img(%rip), %rcx	# img, img.284
	movl	-320(%rbp), %r8d	# PredPel, D.10417
	movl	-312(%rbp), %edi	# PredPel, D.10417
	addl	%edi, %r8d	# D.10417, D.10417
	movl	-316(%rbp), %edi	# PredPel, D.10417
	addl	%edi, %edi	# D.10417
	addl	%r8d, %edi	# D.10417, D.10417
	addl	$2, %edi	#, D.10417
	sarl	$2, %edi	#, D.10417
	movw	%di, 8368(%rcx)	# D.10422, img.284_1006->mprr_3
	movzwl	8368(%rcx), %ecx	# img.284_1006->mprr_3, D.10422
	.loc 1 1003 0
	movw	%cx, 8338(%rdx)	# D.10422, img.283_1005->mprr_3
	movzwl	8338(%rdx), %edx	# img.283_1005->mprr_3, D.10422
	.loc 1 1002 0
	movw	%dx, 8308(%rax)	# D.10422, img.282_1004->mprr_3
	movzwl	8308(%rax), %eax	# img.282_1004->mprr_3, D.10422
	.loc 1 1001 0
	movw	%ax, 8278(%rsi)	# D.10422, img.281_1003->mprr_3
	.loc 1 1005 0
	movq	img(%rip), %rcx	# img, img.285
	.loc 1 1006 0
	movq	img(%rip), %rax	# img, img.286
	.loc 1 1007 0
	movq	img(%rip), %rdx	# img, img.287
	movl	-316(%rbp), %edi	# PredPel, D.10417
	movl	-308(%rbp), %esi	# PredPel, D.10417
	addl	%esi, %edi	# D.10417, D.10417
	movl	-312(%rbp), %esi	# PredPel, D.10417
	addl	%esi, %esi	# D.10417
	addl	%edi, %esi	# D.10417, D.10417
	addl	$2, %esi	#, D.10417
	sarl	$2, %esi	#, D.10417
	movw	%si, 8370(%rdx)	# D.10422, img.287_1021->mprr_3
	movzwl	8370(%rdx), %edx	# img.287_1021->mprr_3, D.10422
	.loc 1 1006 0
	movw	%dx, 8340(%rax)	# D.10422, img.286_1020->mprr_3
	movzwl	8340(%rax), %eax	# img.286_1020->mprr_3, D.10422
	.loc 1 1005 0
	movw	%ax, 8310(%rcx)	# D.10422, img.285_1019->mprr_3
	.loc 1 1008 0
	movq	img(%rip), %rdx	# img, img.288
	.loc 1 1009 0
	movq	img(%rip), %rax	# img, img.289
	movl	-312(%rbp), %esi	# PredPel, D.10417
	movl	-304(%rbp), %ecx	# PredPel, D.10417
	addl	%ecx, %esi	# D.10417, D.10417
	movl	-308(%rbp), %ecx	# PredPel, D.10417
	addl	%ecx, %ecx	# D.10417
	addl	%esi, %ecx	# D.10417, D.10417
	addl	$2, %ecx	#, D.10417
	sarl	$2, %ecx	#, D.10417
	movw	%cx, 8372(%rax)	# D.10422, img.289_1034->mprr_3
	movzwl	8372(%rax), %eax	# img.289_1034->mprr_3, D.10422
	.loc 1 1008 0
	movw	%ax, 8342(%rdx)	# D.10422, img.288_1033->mprr_3
	.loc 1 1010 0
	movq	img(%rip), %rax	# img, img.290
	movl	-308(%rbp), %ecx	# PredPel, D.10417
	movl	-300(%rbp), %edx	# PredPel, D.10417
	addl	%edx, %ecx	# D.10417, D.10417
	movl	-304(%rbp), %edx	# PredPel, D.10417
	addl	%edx, %edx	# D.10417
	addl	%ecx, %edx	# D.10417, D.10417
	addl	$2, %edx	#, D.10417
	sarl	$2, %edx	#, D.10417
	movw	%dx, 8374(%rax)	# D.10422, img.290_1045->mprr_3
.L239:
	.loc 1 1016 0
	cmpl	$0, -484(%rbp)	#, block_available_up
	je	.L240	#,
	.loc 1 1016 0 is_stmt 0 discriminator 1
	cmpl	$0, -480(%rbp)	#, block_available_left
	je	.L240	#,
	cmpl	$0, -476(%rbp)	#, block_available_up_left
	je	.L240	#,
	.loc 1 1019 0 is_stmt 1
	movq	img(%rip), %rax	# img, img.291
	movl	-256(%rbp), %ecx	# PredPel, D.10417
	movl	-264(%rbp), %edx	# PredPel, D.10417
	addl	%edx, %ecx	# D.10417, D.10417
	movl	-260(%rbp), %edx	# PredPel, D.10417
	addl	%edx, %edx	# D.10417
	addl	%ecx, %edx	# D.10417, D.10417
	addl	$2, %edx	#, D.10417
	sarl	$2, %edx	#, D.10417
	movw	%dx, 7976(%rax)	# D.10422, img.291_1055->mprr_3
	.loc 1 1020 0
	movq	img(%rip), %rdx	# img, img.292
	.loc 1 1021 0
	movq	img(%rip), %rax	# img, img.293
	movl	-260(%rbp), %esi	# PredPel, D.10417
	movl	-268(%rbp), %ecx	# PredPel, D.10417
	addl	%ecx, %esi	# D.10417, D.10417
	movl	-264(%rbp), %ecx	# PredPel, D.10417
	addl	%ecx, %ecx	# D.10417
	addl	%esi, %ecx	# D.10417, D.10417
	addl	$2, %ecx	#, D.10417
	sarl	$2, %ecx	#, D.10417
	movw	%cx, 7978(%rax)	# D.10422, img.293_1066->mprr_3
	movzwl	7978(%rax), %eax	# img.293_1066->mprr_3, D.10422
	.loc 1 1020 0
	movw	%ax, 7960(%rdx)	# D.10422, img.292_1065->mprr_3
	.loc 1 1022 0
	movq	img(%rip), %rcx	# img, img.294
	.loc 1 1023 0
	movq	img(%rip), %rax	# img, img.295
	.loc 1 1024 0
	movq	img(%rip), %rdx	# img, img.296
	movl	-264(%rbp), %edi	# PredPel, D.10417
	movl	-272(%rbp), %esi	# PredPel, D.10417
	addl	%esi, %edi	# D.10417, D.10417
	movl	-268(%rbp), %esi	# PredPel, D.10417
	addl	%esi, %esi	# D.10417
	addl	%edi, %esi	# D.10417, D.10417
	addl	$2, %esi	#, D.10417
	sarl	$2, %esi	#, D.10417
	movw	%si, 7980(%rdx)	# D.10422, img.296_1079->mprr_3
	movzwl	7980(%rdx), %edx	# img.296_1079->mprr_3, D.10422
	.loc 1 1023 0
	movw	%dx, 7962(%rax)	# D.10422, img.295_1078->mprr_3
	movzwl	7962(%rax), %eax	# img.295_1078->mprr_3, D.10422
	.loc 1 1022 0
	movw	%ax, 7944(%rcx)	# D.10422, img.294_1077->mprr_3
	.loc 1 1025 0
	movq	img(%rip), %rsi	# img, img.297
	.loc 1 1026 0
	movq	img(%rip), %rax	# img, img.298
	.loc 1 1027 0
	movq	img(%rip), %rdx	# img, img.299
	.loc 1 1028 0
	movq	img(%rip), %rcx	# img, img.300
	movl	-268(%rbp), %r8d	# PredPel, D.10417
	movl	-276(%rbp), %edi	# PredPel, D.10417
	addl	%edi, %r8d	# D.10417, D.10417
	movl	-272(%rbp), %edi	# PredPel, D.10417
	addl	%edi, %edi	# D.10417
	addl	%r8d, %edi	# D.10417, D.10417
	addl	$2, %edi	#, D.10417
	sarl	$2, %edi	#, D.10417
	movw	%di, 7982(%rcx)	# D.10422, img.300_1094->mprr_3
	movzwl	7982(%rcx), %ecx	# img.300_1094->mprr_3, D.10422
	.loc 1 1027 0
	movw	%cx, 7964(%rdx)	# D.10422, img.299_1093->mprr_3
	movzwl	7964(%rdx), %edx	# img.299_1093->mprr_3, D.10422
	.loc 1 1026 0
	movw	%dx, 7946(%rax)	# D.10422, img.298_1092->mprr_3
	movzwl	7946(%rax), %eax	# img.298_1092->mprr_3, D.10422
	.loc 1 1025 0
	movw	%ax, 7928(%rsi)	# D.10422, img.297_1091->mprr_3
	.loc 1 1029 0
	movq	img(%rip), %rdi	# img, img.301
	.loc 1 1030 0
	movq	img(%rip), %rax	# img, img.302
	.loc 1 1031 0
	movq	img(%rip), %rdx	# img, img.303
	.loc 1 1032 0
	movq	img(%rip), %rcx	# img, img.304
	.loc 1 1033 0
	movq	img(%rip), %rsi	# img, img.305
	movl	-272(%rbp), %r9d	# PredPel, D.10417
	movl	-280(%rbp), %r8d	# PredPel, D.10417
	addl	%r8d, %r9d	# D.10417, D.10417
	movl	-276(%rbp), %r8d	# PredPel, D.10417
	addl	%r8d, %r8d	# D.10417
	addl	%r9d, %r8d	# D.10417, D.10417
	addl	$2, %r8d	#, D.10417
	sarl	$2, %r8d	#, D.10417
	movw	%r8w, 7984(%rsi)	# D.10422, img.305_1111->mprr_3
	movzwl	7984(%rsi), %esi	# img.305_1111->mprr_3, D.10422
	.loc 1 1032 0
	movw	%si, 7966(%rcx)	# D.10422, img.304_1110->mprr_3
	movzwl	7966(%rcx), %ecx	# img.304_1110->mprr_3, D.10422
	.loc 1 1031 0
	movw	%cx, 7948(%rdx)	# D.10422, img.303_1109->mprr_3
	movzwl	7948(%rdx), %edx	# img.303_1109->mprr_3, D.10422
	.loc 1 1030 0
	movw	%dx, 7930(%rax)	# D.10422, img.302_1108->mprr_3
	movzwl	7930(%rax), %eax	# img.302_1108->mprr_3, D.10422
	.loc 1 1029 0
	movw	%ax, 7912(%rdi)	# D.10422, img.301_1107->mprr_3
	.loc 1 1034 0
	movq	img(%rip), %r8	# img, img.306
	.loc 1 1035 0
	movq	img(%rip), %rax	# img, img.307
	.loc 1 1036 0
	movq	img(%rip), %rdx	# img, img.308
	.loc 1 1037 0
	movq	img(%rip), %rcx	# img, img.309
	.loc 1 1038 0
	movq	img(%rip), %rsi	# img, img.310
	.loc 1 1039 0
	movq	img(%rip), %rdi	# img, img.311
	movl	-276(%rbp), %r10d	# PredPel, D.10417
	movl	-284(%rbp), %r9d	# PredPel, D.10417
	addl	%r9d, %r10d	# D.10417, D.10417
	movl	-280(%rbp), %r9d	# PredPel, D.10417
	addl	%r9d, %r9d	# D.10417
	addl	%r10d, %r9d	# D.10417, D.10417
	addl	$2, %r9d	#, D.10417
	sarl	$2, %r9d	#, D.10417
	movw	%r9w, 7986(%rdi)	# D.10422, img.311_1130->mprr_3
	movzwl	7986(%rdi), %edi	# img.311_1130->mprr_3, D.10422
	.loc 1 1038 0
	movw	%di, 7968(%rsi)	# D.10422, img.310_1129->mprr_3
	movzwl	7968(%rsi), %esi	# img.310_1129->mprr_3, D.10422
	.loc 1 1037 0
	movw	%si, 7950(%rcx)	# D.10422, img.309_1128->mprr_3
	movzwl	7950(%rcx), %ecx	# img.309_1128->mprr_3, D.10422
	.loc 1 1036 0
	movw	%cx, 7932(%rdx)	# D.10422, img.308_1127->mprr_3
	movzwl	7932(%rdx), %edx	# img.308_1127->mprr_3, D.10422
	.loc 1 1035 0
	movw	%dx, 7914(%rax)	# D.10422, img.307_1126->mprr_3
	movzwl	7914(%rax), %eax	# img.307_1126->mprr_3, D.10422
	.loc 1 1034 0
	movw	%ax, 7896(%r8)	# D.10422, img.306_1125->mprr_3
	.loc 1 1040 0
	movq	img(%rip), %r9	# img, img.312
	.loc 1 1041 0
	movq	img(%rip), %rax	# img, img.313
	.loc 1 1042 0
	movq	img(%rip), %rdx	# img, img.314
	.loc 1 1043 0
	movq	img(%rip), %rcx	# img, img.315
	.loc 1 1044 0
	movq	img(%rip), %rsi	# img, img.316
	.loc 1 1045 0
	movq	img(%rip), %rdi	# img, img.317
	.loc 1 1046 0
	movq	img(%rip), %r8	# img, img.318
	movl	-280(%rbp), %r11d	# PredPel, D.10417
	movl	-352(%rbp), %r10d	# PredPel, D.10417
	addl	%r10d, %r11d	# D.10417, D.10417
	movl	-284(%rbp), %r10d	# PredPel, D.10417
	addl	%r10d, %r10d	# D.10417
	addl	%r11d, %r10d	# D.10417, D.10417
	addl	$2, %r10d	#, D.10417
	sarl	$2, %r10d	#, D.10417
	movw	%r10w, 7988(%r8)	# D.10422, img.318_1151->mprr_3
	movzwl	7988(%r8), %r8d	# img.318_1151->mprr_3, D.10422
	.loc 1 1045 0
	movw	%r8w, 7970(%rdi)	# D.10422, img.317_1150->mprr_3
	movzwl	7970(%rdi), %edi	# img.317_1150->mprr_3, D.10422
	.loc 1 1044 0
	movw	%di, 7952(%rsi)	# D.10422, img.316_1149->mprr_3
	movzwl	7952(%rsi), %esi	# img.316_1149->mprr_3, D.10422
	.loc 1 1043 0
	movw	%si, 7934(%rcx)	# D.10422, img.315_1148->mprr_3
	movzwl	7934(%rcx), %ecx	# img.315_1148->mprr_3, D.10422
	.loc 1 1042 0
	movw	%cx, 7916(%rdx)	# D.10422, img.314_1147->mprr_3
	movzwl	7916(%rdx), %edx	# img.314_1147->mprr_3, D.10422
	.loc 1 1041 0
	movw	%dx, 7898(%rax)	# D.10422, img.313_1146->mprr_3
	movzwl	7898(%rax), %eax	# img.313_1146->mprr_3, D.10422
	.loc 1 1040 0
	movw	%ax, 7880(%r9)	# D.10422, img.312_1145->mprr_3
	.loc 1 1047 0
	movq	img(%rip), %r10	# img, img.319
	.loc 1 1048 0
	movq	img(%rip), %rax	# img, img.320
	.loc 1 1049 0
	movq	img(%rip), %rdx	# img, img.321
	.loc 1 1050 0
	movq	img(%rip), %rcx	# img, img.322
	.loc 1 1051 0
	movq	img(%rip), %rsi	# img, img.323
	.loc 1 1052 0
	movq	img(%rip), %rdi	# img, img.324
	.loc 1 1053 0
	movq	img(%rip), %r8	# img, img.325
	.loc 1 1054 0
	movq	img(%rip), %r9	# img, img.326
	movl	-284(%rbp), %ebx	# PredPel, D.10417
	movl	-348(%rbp), %r11d	# PredPel, D.10417
	addl	%r11d, %ebx	# D.10417, D.10417
	movl	-352(%rbp), %r11d	# PredPel, D.10417
	addl	%r11d, %r11d	# D.10417
	addl	%ebx, %r11d	# D.10417, D.10417
	addl	$2, %r11d	#, D.10417
	sarl	$2, %r11d	#, D.10417
	movw	%r11w, 7990(%r9)	# D.10422, img.326_1174->mprr_3
	movzwl	7990(%r9), %r9d	# img.326_1174->mprr_3, D.10422
	.loc 1 1053 0
	movw	%r9w, 7972(%r8)	# D.10422, img.325_1173->mprr_3
	movzwl	7972(%r8), %r8d	# img.325_1173->mprr_3, D.10422
	.loc 1 1052 0
	movw	%r8w, 7954(%rdi)	# D.10422, img.324_1172->mprr_3
	movzwl	7954(%rdi), %edi	# img.324_1172->mprr_3, D.10422
	.loc 1 1051 0
	movw	%di, 7936(%rsi)	# D.10422, img.323_1171->mprr_3
	movzwl	7936(%rsi), %esi	# img.323_1171->mprr_3, D.10422
	.loc 1 1050 0
	movw	%si, 7918(%rcx)	# D.10422, img.322_1170->mprr_3
	movzwl	7918(%rcx), %ecx	# img.322_1170->mprr_3, D.10422
	.loc 1 1049 0
	movw	%cx, 7900(%rdx)	# D.10422, img.321_1169->mprr_3
	movzwl	7900(%rdx), %edx	# img.321_1169->mprr_3, D.10422
	.loc 1 1048 0
	movw	%dx, 7882(%rax)	# D.10422, img.320_1168->mprr_3
	movzwl	7882(%rax), %eax	# img.320_1168->mprr_3, D.10422
	.loc 1 1047 0
	movw	%ax, 7864(%r10)	# D.10422, img.319_1167->mprr_3
	.loc 1 1055 0
	movq	img(%rip), %r9	# img, img.327
	.loc 1 1056 0
	movq	img(%rip), %rax	# img, img.328
	.loc 1 1057 0
	movq	img(%rip), %rdx	# img, img.329
	.loc 1 1058 0
	movq	img(%rip), %rcx	# img, img.330
	.loc 1 1059 0
	movq	img(%rip), %rsi	# img, img.331
	.loc 1 1060 0
	movq	img(%rip), %rdi	# img, img.332
	.loc 1 1061 0
	movq	img(%rip), %r8	# img, img.333
	movl	-352(%rbp), %r11d	# PredPel, D.10417
	movl	-344(%rbp), %r10d	# PredPel, D.10417
	addl	%r10d, %r11d	# D.10417, D.10417
	movl	-348(%rbp), %r10d	# PredPel, D.10417
	addl	%r10d, %r10d	# D.10417
	addl	%r11d, %r10d	# D.10417, D.10417
	addl	$2, %r10d	#, D.10417
	sarl	$2, %r10d	#, D.10417
	movw	%r10w, 7974(%r8)	# D.10422, img.333_1197->mprr_3
	movzwl	7974(%r8), %r8d	# img.333_1197->mprr_3, D.10422
	.loc 1 1060 0
	movw	%r8w, 7956(%rdi)	# D.10422, img.332_1196->mprr_3
	movzwl	7956(%rdi), %edi	# img.332_1196->mprr_3, D.10422
	.loc 1 1059 0
	movw	%di, 7938(%rsi)	# D.10422, img.331_1195->mprr_3
	movzwl	7938(%rsi), %esi	# img.331_1195->mprr_3, D.10422
	.loc 1 1058 0
	movw	%si, 7920(%rcx)	# D.10422, img.330_1194->mprr_3
	movzwl	7920(%rcx), %ecx	# img.330_1194->mprr_3, D.10422
	.loc 1 1057 0
	movw	%cx, 7902(%rdx)	# D.10422, img.329_1193->mprr_3
	movzwl	7902(%rdx), %edx	# img.329_1193->mprr_3, D.10422
	.loc 1 1056 0
	movw	%dx, 7884(%rax)	# D.10422, img.328_1192->mprr_3
	movzwl	7884(%rax), %eax	# img.328_1192->mprr_3, D.10422
	.loc 1 1055 0
	movw	%ax, 7866(%r9)	# D.10422, img.327_1191->mprr_3
	.loc 1 1062 0
	movq	img(%rip), %r8	# img, img.334
	.loc 1 1063 0
	movq	img(%rip), %rax	# img, img.335
	.loc 1 1064 0
	movq	img(%rip), %rdx	# img, img.336
	.loc 1 1065 0
	movq	img(%rip), %rcx	# img, img.337
	.loc 1 1066 0
	movq	img(%rip), %rsi	# img, img.338
	.loc 1 1067 0
	movq	img(%rip), %rdi	# img, img.339
	movl	-348(%rbp), %r10d	# PredPel, D.10417
	movl	-340(%rbp), %r9d	# PredPel, D.10417
	addl	%r9d, %r10d	# D.10417, D.10417
	movl	-344(%rbp), %r9d	# PredPel, D.10417
	addl	%r9d, %r9d	# D.10417
	addl	%r10d, %r9d	# D.10417, D.10417
	addl	$2, %r9d	#, D.10417
	sarl	$2, %r9d	#, D.10417
	movw	%r9w, 7958(%rdi)	# D.10422, img.339_1218->mprr_3
	movzwl	7958(%rdi), %edi	# img.339_1218->mprr_3, D.10422
	.loc 1 1066 0
	movw	%di, 7940(%rsi)	# D.10422, img.338_1217->mprr_3
	movzwl	7940(%rsi), %esi	# img.338_1217->mprr_3, D.10422
	.loc 1 1065 0
	movw	%si, 7922(%rcx)	# D.10422, img.337_1216->mprr_3
	movzwl	7922(%rcx), %ecx	# img.337_1216->mprr_3, D.10422
	.loc 1 1064 0
	movw	%cx, 7904(%rdx)	# D.10422, img.336_1215->mprr_3
	movzwl	7904(%rdx), %edx	# img.336_1215->mprr_3, D.10422
	.loc 1 1063 0
	movw	%dx, 7886(%rax)	# D.10422, img.335_1214->mprr_3
	movzwl	7886(%rax), %eax	# img.335_1214->mprr_3, D.10422
	.loc 1 1062 0
	movw	%ax, 7868(%r8)	# D.10422, img.334_1213->mprr_3
	.loc 1 1068 0
	movq	img(%rip), %rdi	# img, img.340
	.loc 1 1069 0
	movq	img(%rip), %rax	# img, img.341
	.loc 1 1070 0
	movq	img(%rip), %rdx	# img, img.342
	.loc 1 1071 0
	movq	img(%rip), %rcx	# img, img.343
	.loc 1 1072 0
	movq	img(%rip), %rsi	# img, img.344
	movl	-344(%rbp), %r9d	# PredPel, D.10417
	movl	-336(%rbp), %r8d	# PredPel, D.10417
	addl	%r8d, %r9d	# D.10417, D.10417
	movl	-340(%rbp), %r8d	# PredPel, D.10417
	addl	%r8d, %r8d	# D.10417
	addl	%r9d, %r8d	# D.10417, D.10417
	addl	$2, %r8d	#, D.10417
	sarl	$2, %r8d	#, D.10417
	movw	%r8w, 7942(%rsi)	# D.10422, img.344_1237->mprr_3
	movzwl	7942(%rsi), %esi	# img.344_1237->mprr_3, D.10422
	.loc 1 1071 0
	movw	%si, 7924(%rcx)	# D.10422, img.343_1236->mprr_3
	movzwl	7924(%rcx), %ecx	# img.343_1236->mprr_3, D.10422
	.loc 1 1070 0
	movw	%cx, 7906(%rdx)	# D.10422, img.342_1235->mprr_3
	movzwl	7906(%rdx), %edx	# img.342_1235->mprr_3, D.10422
	.loc 1 1069 0
	movw	%dx, 7888(%rax)	# D.10422, img.341_1234->mprr_3
	movzwl	7888(%rax), %eax	# img.341_1234->mprr_3, D.10422
	.loc 1 1068 0
	movw	%ax, 7870(%rdi)	# D.10422, img.340_1233->mprr_3
	.loc 1 1073 0
	movq	img(%rip), %rsi	# img, img.345
	.loc 1 1074 0
	movq	img(%rip), %rax	# img, img.346
	.loc 1 1075 0
	movq	img(%rip), %rdx	# img, img.347
	.loc 1 1076 0
	movq	img(%rip), %rcx	# img, img.348
	movl	-340(%rbp), %r8d	# PredPel, D.10417
	movl	-332(%rbp), %edi	# PredPel, D.10417
	addl	%edi, %r8d	# D.10417, D.10417
	movl	-336(%rbp), %edi	# PredPel, D.10417
	addl	%edi, %edi	# D.10417
	addl	%r8d, %edi	# D.10417, D.10417
	addl	$2, %edi	#, D.10417
	sarl	$2, %edi	#, D.10417
	movw	%di, 7926(%rcx)	# D.10422, img.348_1254->mprr_3
	movzwl	7926(%rcx), %ecx	# img.348_1254->mprr_3, D.10422
	.loc 1 1075 0
	movw	%cx, 7908(%rdx)	# D.10422, img.347_1253->mprr_3
	movzwl	7908(%rdx), %edx	# img.347_1253->mprr_3, D.10422
	.loc 1 1074 0
	movw	%dx, 7890(%rax)	# D.10422, img.346_1252->mprr_3
	movzwl	7890(%rax), %eax	# img.346_1252->mprr_3, D.10422
	.loc 1 1073 0
	movw	%ax, 7872(%rsi)	# D.10422, img.345_1251->mprr_3
	.loc 1 1077 0
	movq	img(%rip), %rcx	# img, img.349
	.loc 1 1078 0
	movq	img(%rip), %rax	# img, img.350
	.loc 1 1079 0
	movq	img(%rip), %rdx	# img, img.351
	movl	-336(%rbp), %edi	# PredPel, D.10417
	movl	-328(%rbp), %esi	# PredPel, D.10417
	addl	%esi, %edi	# D.10417, D.10417
	movl	-332(%rbp), %esi	# PredPel, D.10417
	addl	%esi, %esi	# D.10417
	addl	%edi, %esi	# D.10417, D.10417
	addl	$2, %esi	#, D.10417
	sarl	$2, %esi	#, D.10417
	movw	%si, 7910(%rdx)	# D.10422, img.351_1269->mprr_3
	movzwl	7910(%rdx), %edx	# img.351_1269->mprr_3, D.10422
	.loc 1 1078 0
	movw	%dx, 7892(%rax)	# D.10422, img.350_1268->mprr_3
	movzwl	7892(%rax), %eax	# img.350_1268->mprr_3, D.10422
	.loc 1 1077 0
	movw	%ax, 7874(%rcx)	# D.10422, img.349_1267->mprr_3
	.loc 1 1080 0
	movq	img(%rip), %rdx	# img, img.352
	.loc 1 1081 0
	movq	img(%rip), %rax	# img, img.353
	movl	-332(%rbp), %esi	# PredPel, D.10417
	movl	-324(%rbp), %ecx	# PredPel, D.10417
	addl	%ecx, %esi	# D.10417, D.10417
	movl	-328(%rbp), %ecx	# PredPel, D.10417
	addl	%ecx, %ecx	# D.10417
	addl	%esi, %ecx	# D.10417, D.10417
	addl	$2, %ecx	#, D.10417
	sarl	$2, %ecx	#, D.10417
	movw	%cx, 7894(%rax)	# D.10422, img.353_1282->mprr_3
	movzwl	7894(%rax), %eax	# img.353_1282->mprr_3, D.10422
	.loc 1 1080 0
	movw	%ax, 7876(%rdx)	# D.10422, img.352_1281->mprr_3
	.loc 1 1082 0
	movq	img(%rip), %rax	# img, img.354
	movl	-328(%rbp), %ecx	# PredPel, D.10417
	movl	-320(%rbp), %edx	# PredPel, D.10417
	addl	%edx, %ecx	# D.10417, D.10417
	movl	-324(%rbp), %edx	# PredPel, D.10417
	addl	%edx, %edx	# D.10417
	addl	%ecx, %edx	# D.10417, D.10417
	addl	$2, %edx	#, D.10417
	sarl	$2, %edx	#, D.10417
	movw	%dx, 7878(%rax)	# D.10422, img.354_1293->mprr_3
	.loc 1 1087 0
	movq	img(%rip), %rsi	# img, img.355
	.loc 1 1088 0
	movq	img(%rip), %rax	# img, img.356
	.loc 1 1089 0
	movq	img(%rip), %rdx	# img, img.357
	.loc 1 1090 0
	movq	img(%rip), %rcx	# img, img.358
	movl	-352(%rbp), %r8d	# PredPel, D.10417
	movl	-348(%rbp), %edi	# PredPel, D.10417
	addl	%r8d, %edi	# D.10417, D.10417
	addl	$1, %edi	#, D.10417
	sarl	%edi	# D.10417
	movw	%di, 8094(%rcx)	# D.10422, img.358_1306->mprr_3
	movzwl	8094(%rcx), %ecx	# img.358_1306->mprr_3, D.10422
	.loc 1 1089 0
	movw	%cx, 8060(%rdx)	# D.10422, img.357_1305->mprr_3
	movzwl	8060(%rdx), %edx	# img.357_1305->mprr_3, D.10422
	.loc 1 1088 0
	movw	%dx, 8026(%rax)	# D.10422, img.356_1304->mprr_3
	movzwl	8026(%rax), %eax	# img.356_1304->mprr_3, D.10422
	.loc 1 1087 0
	movw	%ax, 7992(%rsi)	# D.10422, img.355_1303->mprr_3
	.loc 1 1091 0
	movq	img(%rip), %rsi	# img, img.359
	.loc 1 1092 0
	movq	img(%rip), %rax	# img, img.360
	.loc 1 1093 0
	movq	img(%rip), %rdx	# img, img.361
	.loc 1 1094 0
	movq	img(%rip), %rcx	# img, img.362
	movl	-348(%rbp), %r8d	# PredPel, D.10417
	movl	-344(%rbp), %edi	# PredPel, D.10417
	addl	%r8d, %edi	# D.10417, D.10417
	addl	$1, %edi	#, D.10417
	sarl	%edi	# D.10417
	movw	%di, 8096(%rcx)	# D.10422, img.362_1319->mprr_3
	movzwl	8096(%rcx), %ecx	# img.362_1319->mprr_3, D.10422
	.loc 1 1093 0
	movw	%cx, 8062(%rdx)	# D.10422, img.361_1318->mprr_3
	movzwl	8062(%rdx), %edx	# img.361_1318->mprr_3, D.10422
	.loc 1 1092 0
	movw	%dx, 8028(%rax)	# D.10422, img.360_1317->mprr_3
	movzwl	8028(%rax), %eax	# img.360_1317->mprr_3, D.10422
	.loc 1 1091 0
	movw	%ax, 7994(%rsi)	# D.10422, img.359_1316->mprr_3
	.loc 1 1095 0
	movq	img(%rip), %rsi	# img, img.363
	.loc 1 1096 0
	movq	img(%rip), %rax	# img, img.364
	.loc 1 1097 0
	movq	img(%rip), %rdx	# img, img.365
	.loc 1 1098 0
	movq	img(%rip), %rcx	# img, img.366
	movl	-344(%rbp), %r8d	# PredPel, D.10417
	movl	-340(%rbp), %edi	# PredPel, D.10417
	addl	%r8d, %edi	# D.10417, D.10417
	addl	$1, %edi	#, D.10417
	sarl	%edi	# D.10417
	movw	%di, 8098(%rcx)	# D.10422, img.366_1332->mprr_3
	movzwl	8098(%rcx), %ecx	# img.366_1332->mprr_3, D.10422
	.loc 1 1097 0
	movw	%cx, 8064(%rdx)	# D.10422, img.365_1331->mprr_3
	movzwl	8064(%rdx), %edx	# img.365_1331->mprr_3, D.10422
	.loc 1 1096 0
	movw	%dx, 8030(%rax)	# D.10422, img.364_1330->mprr_3
	movzwl	8030(%rax), %eax	# img.364_1330->mprr_3, D.10422
	.loc 1 1095 0
	movw	%ax, 7996(%rsi)	# D.10422, img.363_1329->mprr_3
	.loc 1 1099 0
	movq	img(%rip), %rsi	# img, img.367
	.loc 1 1100 0
	movq	img(%rip), %rax	# img, img.368
	.loc 1 1101 0
	movq	img(%rip), %rdx	# img, img.369
	.loc 1 1102 0
	movq	img(%rip), %rcx	# img, img.370
	movl	-340(%rbp), %r8d	# PredPel, D.10417
	movl	-336(%rbp), %edi	# PredPel, D.10417
	addl	%r8d, %edi	# D.10417, D.10417
	addl	$1, %edi	#, D.10417
	sarl	%edi	# D.10417
	movw	%di, 8100(%rcx)	# D.10422, img.370_1345->mprr_3
	movzwl	8100(%rcx), %ecx	# img.370_1345->mprr_3, D.10422
	.loc 1 1101 0
	movw	%cx, 8066(%rdx)	# D.10422, img.369_1344->mprr_3
	movzwl	8066(%rdx), %edx	# img.369_1344->mprr_3, D.10422
	.loc 1 1100 0
	movw	%dx, 8032(%rax)	# D.10422, img.368_1343->mprr_3
	movzwl	8032(%rax), %eax	# img.368_1343->mprr_3, D.10422
	.loc 1 1099 0
	movw	%ax, 7998(%rsi)	# D.10422, img.367_1342->mprr_3
	.loc 1 1103 0
	movq	img(%rip), %rsi	# img, img.371
	.loc 1 1104 0
	movq	img(%rip), %rax	# img, img.372
	.loc 1 1105 0
	movq	img(%rip), %rdx	# img, img.373
	.loc 1 1106 0
	movq	img(%rip), %rcx	# img, img.374
	movl	-336(%rbp), %r8d	# PredPel, D.10417
	movl	-332(%rbp), %edi	# PredPel, D.10417
	addl	%r8d, %edi	# D.10417, D.10417
	addl	$1, %edi	#, D.10417
	sarl	%edi	# D.10417
	movw	%di, 8102(%rcx)	# D.10422, img.374_1358->mprr_3
	movzwl	8102(%rcx), %ecx	# img.374_1358->mprr_3, D.10422
	.loc 1 1105 0
	movw	%cx, 8068(%rdx)	# D.10422, img.373_1357->mprr_3
	movzwl	8068(%rdx), %edx	# img.373_1357->mprr_3, D.10422
	.loc 1 1104 0
	movw	%dx, 8034(%rax)	# D.10422, img.372_1356->mprr_3
	movzwl	8034(%rax), %eax	# img.372_1356->mprr_3, D.10422
	.loc 1 1103 0
	movw	%ax, 8000(%rsi)	# D.10422, img.371_1355->mprr_3
	.loc 1 1107 0
	movq	img(%rip), %rcx	# img, img.375
	.loc 1 1108 0
	movq	img(%rip), %rax	# img, img.376
	.loc 1 1109 0
	movq	img(%rip), %rdx	# img, img.377
	movl	-332(%rbp), %edi	# PredPel, D.10417
	movl	-328(%rbp), %esi	# PredPel, D.10417
	addl	%edi, %esi	# D.10417, D.10417
	addl	$1, %esi	#, D.10417
	sarl	%esi	# D.10417
	movw	%si, 8070(%rdx)	# D.10422, img.377_1370->mprr_3
	movzwl	8070(%rdx), %edx	# img.377_1370->mprr_3, D.10422
	.loc 1 1108 0
	movw	%dx, 8036(%rax)	# D.10422, img.376_1369->mprr_3
	movzwl	8036(%rax), %eax	# img.376_1369->mprr_3, D.10422
	.loc 1 1107 0
	movw	%ax, 8002(%rcx)	# D.10422, img.375_1368->mprr_3
	.loc 1 1110 0
	movq	img(%rip), %rdx	# img, img.378
	.loc 1 1111 0
	movq	img(%rip), %rax	# img, img.379
	movl	-328(%rbp), %esi	# PredPel, D.10417
	movl	-324(%rbp), %ecx	# PredPel, D.10417
	addl	%esi, %ecx	# D.10417, D.10417
	addl	$1, %ecx	#, D.10417
	sarl	%ecx	# D.10417
	movw	%cx, 8038(%rax)	# D.10422, img.379_1380->mprr_3
	movzwl	8038(%rax), %eax	# img.379_1380->mprr_3, D.10422
	.loc 1 1110 0
	movw	%ax, 8004(%rdx)	# D.10422, img.378_1379->mprr_3
	.loc 1 1112 0
	movq	img(%rip), %rax	# img, img.380
	movl	-324(%rbp), %ecx	# PredPel, D.10417
	movl	-320(%rbp), %edx	# PredPel, D.10417
	addl	%ecx, %edx	# D.10417, D.10417
	addl	$1, %edx	#, D.10417
	sarl	%edx	# D.10417
	movw	%dx, 8006(%rax)	# D.10422, img.380_1388->mprr_3
	.loc 1 1113 0
	movq	img(%rip), %rsi	# img, img.381
	.loc 1 1114 0
	movq	img(%rip), %rax	# img, img.382
	.loc 1 1115 0
	movq	img(%rip), %rdx	# img, img.383
	.loc 1 1116 0
	movq	img(%rip), %rcx	# img, img.384
	movl	-284(%rbp), %r8d	# PredPel, D.10417
	movl	-348(%rbp), %edi	# PredPel, D.10417
	addl	%edi, %r8d	# D.10417, D.10417
	movl	-352(%rbp), %edi	# PredPel, D.10417
	addl	%edi, %edi	# D.10417
	addl	%r8d, %edi	# D.10417, D.10417
	addl	$2, %edi	#, D.10417
	sarl	$2, %edi	#, D.10417
	movw	%di, 8110(%rcx)	# D.10422, img.384_1398->mprr_3
	movzwl	8110(%rcx), %ecx	# img.384_1398->mprr_3, D.10422
	.loc 1 1115 0
	movw	%cx, 8076(%rdx)	# D.10422, img.383_1397->mprr_3
	movzwl	8076(%rdx), %edx	# img.383_1397->mprr_3, D.10422
	.loc 1 1114 0
	movw	%dx, 8042(%rax)	# D.10422, img.382_1396->mprr_3
	movzwl	8042(%rax), %eax	# img.382_1396->mprr_3, D.10422
	.loc 1 1113 0
	movw	%ax, 8008(%rsi)	# D.10422, img.381_1395->mprr_3
	.loc 1 1117 0
	movq	img(%rip), %rsi	# img, img.385
	.loc 1 1118 0
	movq	img(%rip), %rax	# img, img.386
	.loc 1 1119 0
	movq	img(%rip), %rdx	# img, img.387
	.loc 1 1120 0
	movq	img(%rip), %rcx	# img, img.388
	movl	-352(%rbp), %r8d	# PredPel, D.10417
	movl	-344(%rbp), %edi	# PredPel, D.10417
	addl	%edi, %r8d	# D.10417, D.10417
	movl	-348(%rbp), %edi	# PredPel, D.10417
	addl	%edi, %edi	# D.10417
	addl	%r8d, %edi	# D.10417, D.10417
	addl	$2, %edi	#, D.10417
	sarl	$2, %edi	#, D.10417
	movw	%di, 8112(%rcx)	# D.10422, img.388_1414->mprr_3
	movzwl	8112(%rcx), %ecx	# img.388_1414->mprr_3, D.10422
	.loc 1 1119 0
	movw	%cx, 8078(%rdx)	# D.10422, img.387_1413->mprr_3
	movzwl	8078(%rdx), %edx	# img.387_1413->mprr_3, D.10422
	.loc 1 1118 0
	movw	%dx, 8044(%rax)	# D.10422, img.386_1412->mprr_3
	movzwl	8044(%rax), %eax	# img.386_1412->mprr_3, D.10422
	.loc 1 1117 0
	movw	%ax, 8010(%rsi)	# D.10422, img.385_1411->mprr_3
	.loc 1 1121 0
	movq	img(%rip), %rsi	# img, img.389
	.loc 1 1122 0
	movq	img(%rip), %rax	# img, img.390
	.loc 1 1123 0
	movq	img(%rip), %rdx	# img, img.391
	.loc 1 1124 0
	movq	img(%rip), %rcx	# img, img.392
	movl	-348(%rbp), %r8d	# PredPel, D.10417
	movl	-340(%rbp), %edi	# PredPel, D.10417
	addl	%edi, %r8d	# D.10417, D.10417
	movl	-344(%rbp), %edi	# PredPel, D.10417
	addl	%edi, %edi	# D.10417
	addl	%r8d, %edi	# D.10417, D.10417
	addl	$2, %edi	#, D.10417
	sarl	$2, %edi	#, D.10417
	movw	%di, 8114(%rcx)	# D.10422, img.392_1430->mprr_3
	movzwl	8114(%rcx), %ecx	# img.392_1430->mprr_3, D.10422
	.loc 1 1123 0
	movw	%cx, 8080(%rdx)	# D.10422, img.391_1429->mprr_3
	movzwl	8080(%rdx), %edx	# img.391_1429->mprr_3, D.10422
	.loc 1 1122 0
	movw	%dx, 8046(%rax)	# D.10422, img.390_1428->mprr_3
	movzwl	8046(%rax), %eax	# img.390_1428->mprr_3, D.10422
	.loc 1 1121 0
	movw	%ax, 8012(%rsi)	# D.10422, img.389_1427->mprr_3
	.loc 1 1125 0
	movq	img(%rip), %rsi	# img, img.393
	.loc 1 1126 0
	movq	img(%rip), %rax	# img, img.394
	.loc 1 1127 0
	movq	img(%rip), %rdx	# img, img.395
	.loc 1 1128 0
	movq	img(%rip), %rcx	# img, img.396
	movl	-344(%rbp), %r8d	# PredPel, D.10417
	movl	-336(%rbp), %edi	# PredPel, D.10417
	addl	%edi, %r8d	# D.10417, D.10417
	movl	-340(%rbp), %edi	# PredPel, D.10417
	addl	%edi, %edi	# D.10417
	addl	%r8d, %edi	# D.10417, D.10417
	addl	$2, %edi	#, D.10417
	sarl	$2, %edi	#, D.10417
	movw	%di, 8116(%rcx)	# D.10422, img.396_1446->mprr_3
	movzwl	8116(%rcx), %ecx	# img.396_1446->mprr_3, D.10422
	.loc 1 1127 0
	movw	%cx, 8082(%rdx)	# D.10422, img.395_1445->mprr_3
	movzwl	8082(%rdx), %edx	# img.395_1445->mprr_3, D.10422
	.loc 1 1126 0
	movw	%dx, 8048(%rax)	# D.10422, img.394_1444->mprr_3
	movzwl	8048(%rax), %eax	# img.394_1444->mprr_3, D.10422
	.loc 1 1125 0
	movw	%ax, 8014(%rsi)	# D.10422, img.393_1443->mprr_3
	.loc 1 1129 0
	movq	img(%rip), %rsi	# img, img.397
	.loc 1 1130 0
	movq	img(%rip), %rax	# img, img.398
	.loc 1 1131 0
	movq	img(%rip), %rdx	# img, img.399
	.loc 1 1132 0
	movq	img(%rip), %rcx	# img, img.400
	movl	-340(%rbp), %r8d	# PredPel, D.10417
	movl	-332(%rbp), %edi	# PredPel, D.10417
	addl	%edi, %r8d	# D.10417, D.10417
	movl	-336(%rbp), %edi	# PredPel, D.10417
	addl	%edi, %edi	# D.10417
	addl	%r8d, %edi	# D.10417, D.10417
	addl	$2, %edi	#, D.10417
	sarl	$2, %edi	#, D.10417
	movw	%di, 8118(%rcx)	# D.10422, img.400_1462->mprr_3
	movzwl	8118(%rcx), %ecx	# img.400_1462->mprr_3, D.10422
	.loc 1 1131 0
	movw	%cx, 8084(%rdx)	# D.10422, img.399_1461->mprr_3
	movzwl	8084(%rdx), %edx	# img.399_1461->mprr_3, D.10422
	.loc 1 1130 0
	movw	%dx, 8050(%rax)	# D.10422, img.398_1460->mprr_3
	movzwl	8050(%rax), %eax	# img.398_1460->mprr_3, D.10422
	.loc 1 1129 0
	movw	%ax, 8016(%rsi)	# D.10422, img.397_1459->mprr_3
	.loc 1 1133 0
	movq	img(%rip), %rcx	# img, img.401
	.loc 1 1134 0
	movq	img(%rip), %rax	# img, img.402
	.loc 1 1135 0
	movq	img(%rip), %rdx	# img, img.403
	movl	-336(%rbp), %edi	# PredPel, D.10417
	movl	-328(%rbp), %esi	# PredPel, D.10417
	addl	%esi, %edi	# D.10417, D.10417
	movl	-332(%rbp), %esi	# PredPel, D.10417
	addl	%esi, %esi	# D.10417
	addl	%edi, %esi	# D.10417, D.10417
	addl	$2, %esi	#, D.10417
	sarl	$2, %esi	#, D.10417
	movw	%si, 8086(%rdx)	# D.10422, img.403_1477->mprr_3
	movzwl	8086(%rdx), %edx	# img.403_1477->mprr_3, D.10422
	.loc 1 1134 0
	movw	%dx, 8052(%rax)	# D.10422, img.402_1476->mprr_3
	movzwl	8052(%rax), %eax	# img.402_1476->mprr_3, D.10422
	.loc 1 1133 0
	movw	%ax, 8018(%rcx)	# D.10422, img.401_1475->mprr_3
	.loc 1 1136 0
	movq	img(%rip), %rdx	# img, img.404
	.loc 1 1137 0
	movq	img(%rip), %rax	# img, img.405
	movl	-332(%rbp), %esi	# PredPel, D.10417
	movl	-324(%rbp), %ecx	# PredPel, D.10417
	addl	%ecx, %esi	# D.10417, D.10417
	movl	-328(%rbp), %ecx	# PredPel, D.10417
	addl	%ecx, %ecx	# D.10417
	addl	%esi, %ecx	# D.10417, D.10417
	addl	$2, %ecx	#, D.10417
	sarl	$2, %ecx	#, D.10417
	movw	%cx, 8054(%rax)	# D.10422, img.405_1490->mprr_3
	movzwl	8054(%rax), %eax	# img.405_1490->mprr_3, D.10422
	.loc 1 1136 0
	movw	%ax, 8020(%rdx)	# D.10422, img.404_1489->mprr_3
	.loc 1 1138 0
	movq	img(%rip), %rax	# img, img.406
	movl	-328(%rbp), %ecx	# PredPel, D.10417
	movl	-320(%rbp), %edx	# PredPel, D.10417
	addl	%edx, %ecx	# D.10417, D.10417
	movl	-324(%rbp), %edx	# PredPel, D.10417
	addl	%edx, %edx	# D.10417
	addl	%ecx, %edx	# D.10417, D.10417
	addl	$2, %edx	#, D.10417
	sarl	$2, %edx	#, D.10417
	movw	%dx, 8022(%rax)	# D.10422, img.406_1501->mprr_3
	.loc 1 1139 0
	movq	img(%rip), %rcx	# img, img.407
	.loc 1 1140 0
	movq	img(%rip), %rax	# img, img.408
	.loc 1 1141 0
	movq	img(%rip), %rdx	# img, img.409
	movl	-280(%rbp), %edi	# PredPel, D.10417
	movl	-352(%rbp), %esi	# PredPel, D.10417
	addl	%esi, %edi	# D.10417, D.10417
	movl	-284(%rbp), %esi	# PredPel, D.10417
	addl	%esi, %esi	# D.10417
	addl	%edi, %esi	# D.10417, D.10417
	addl	$2, %esi	#, D.10417
	sarl	$2, %esi	#, D.10417
	movw	%si, 8092(%rdx)	# D.10422, img.409_1513->mprr_3
	movzwl	8092(%rdx), %edx	# img.409_1513->mprr_3, D.10422
	.loc 1 1140 0
	movw	%dx, 8058(%rax)	# D.10422, img.408_1512->mprr_3
	movzwl	8058(%rax), %eax	# img.408_1512->mprr_3, D.10422
	.loc 1 1139 0
	movw	%ax, 8024(%rcx)	# D.10422, img.407_1511->mprr_3
	.loc 1 1142 0
	movq	img(%rip), %rcx	# img, img.410
	.loc 1 1143 0
	movq	img(%rip), %rax	# img, img.411
	.loc 1 1144 0
	movq	img(%rip), %rdx	# img, img.412
	movl	-276(%rbp), %edi	# PredPel, D.10417
	movl	-284(%rbp), %esi	# PredPel, D.10417
	addl	%esi, %edi	# D.10417, D.10417
	movl	-280(%rbp), %esi	# PredPel, D.10417
	addl	%esi, %esi	# D.10417
	addl	%edi, %esi	# D.10417, D.10417
	addl	$2, %esi	#, D.10417
	sarl	$2, %esi	#, D.10417
	movw	%si, 8108(%rdx)	# D.10422, img.412_1527->mprr_3
	movzwl	8108(%rdx), %edx	# img.412_1527->mprr_3, D.10422
	.loc 1 1143 0
	movw	%dx, 8074(%rax)	# D.10422, img.411_1526->mprr_3
	movzwl	8074(%rax), %eax	# img.411_1526->mprr_3, D.10422
	.loc 1 1142 0
	movw	%ax, 8040(%rcx)	# D.10422, img.410_1525->mprr_3
	.loc 1 1145 0
	movq	img(%rip), %rdx	# img, img.413
	.loc 1 1146 0
	movq	img(%rip), %rax	# img, img.414
	movl	-272(%rbp), %esi	# PredPel, D.10417
	movl	-280(%rbp), %ecx	# PredPel, D.10417
	addl	%ecx, %esi	# D.10417, D.10417
	movl	-276(%rbp), %ecx	# PredPel, D.10417
	addl	%ecx, %ecx	# D.10417
	addl	%esi, %ecx	# D.10417, D.10417
	addl	$2, %ecx	#, D.10417
	sarl	$2, %ecx	#, D.10417
	movw	%cx, 8090(%rax)	# D.10422, img.414_1540->mprr_3
	movzwl	8090(%rax), %eax	# img.414_1540->mprr_3, D.10422
	.loc 1 1145 0
	movw	%ax, 8056(%rdx)	# D.10422, img.413_1539->mprr_3
	.loc 1 1147 0
	movq	img(%rip), %rdx	# img, img.415
	.loc 1 1148 0
	movq	img(%rip), %rax	# img, img.416
	movl	-268(%rbp), %esi	# PredPel, D.10417
	movl	-276(%rbp), %ecx	# PredPel, D.10417
	addl	%ecx, %esi	# D.10417, D.10417
	movl	-272(%rbp), %ecx	# PredPel, D.10417
	addl	%ecx, %ecx	# D.10417
	addl	%esi, %ecx	# D.10417, D.10417
	addl	$2, %ecx	#, D.10417
	sarl	$2, %ecx	#, D.10417
	movw	%cx, 8106(%rax)	# D.10422, img.416_1552->mprr_3
	movzwl	8106(%rax), %eax	# img.416_1552->mprr_3, D.10422
	.loc 1 1147 0
	movw	%ax, 8072(%rdx)	# D.10422, img.415_1551->mprr_3
	.loc 1 1149 0
	movq	img(%rip), %rax	# img, img.417
	movl	-264(%rbp), %ecx	# PredPel, D.10417
	movl	-272(%rbp), %edx	# PredPel, D.10417
	addl	%edx, %ecx	# D.10417, D.10417
	movl	-268(%rbp), %edx	# PredPel, D.10417
	addl	%edx, %edx	# D.10417
	addl	%ecx, %edx	# D.10417, D.10417
	addl	$2, %edx	#, D.10417
	sarl	$2, %edx	#, D.10417
	movw	%dx, 8088(%rax)	# D.10422, img.417_1563->mprr_3
	.loc 1 1150 0
	movq	img(%rip), %rax	# img, img.418
	movl	-260(%rbp), %ecx	# PredPel, D.10417
	movl	-268(%rbp), %edx	# PredPel, D.10417
	addl	%edx, %ecx	# D.10417, D.10417
	movl	-264(%rbp), %edx	# PredPel, D.10417
	addl	%edx, %edx	# D.10417
	addl	%ecx, %edx	# D.10417, D.10417
	addl	$2, %edx	#, D.10417
	sarl	$2, %edx	#, D.10417
	movw	%dx, 8104(%rax)	# D.10422, img.418_1573->mprr_3
	.loc 1 1156 0
	movq	img(%rip), %rsi	# img, img.419
	.loc 1 1157 0
	movq	img(%rip), %rax	# img, img.420
	.loc 1 1158 0
	movq	img(%rip), %rdx	# img, img.421
	.loc 1 1159 0
	movq	img(%rip), %rcx	# img, img.422
	movl	-284(%rbp), %r8d	# PredPel, D.10417
	movl	-352(%rbp), %edi	# PredPel, D.10417
	addl	%r8d, %edi	# D.10417, D.10417
	addl	$1, %edi	#, D.10417
	sarl	%edi	# D.10417
	movw	%di, 8180(%rcx)	# D.10422, img.422_1586->mprr_3
	movzwl	8180(%rcx), %ecx	# img.422_1586->mprr_3, D.10422
	.loc 1 1158 0
	movw	%cx, 8160(%rdx)	# D.10422, img.421_1585->mprr_3
	movzwl	8160(%rdx), %edx	# img.421_1585->mprr_3, D.10422
	.loc 1 1157 0
	movw	%dx, 8140(%rax)	# D.10422, img.420_1584->mprr_3
	movzwl	8140(%rax), %eax	# img.420_1584->mprr_3, D.10422
	.loc 1 1156 0
	movw	%ax, 8120(%rsi)	# D.10422, img.419_1583->mprr_3
	.loc 1 1160 0
	movq	img(%rip), %rsi	# img, img.423
	.loc 1 1161 0
	movq	img(%rip), %rax	# img, img.424
	.loc 1 1162 0
	movq	img(%rip), %rdx	# img, img.425
	.loc 1 1163 0
	movq	img(%rip), %rcx	# img, img.426
	movl	-280(%rbp), %r8d	# PredPel, D.10417
	movl	-284(%rbp), %edi	# PredPel, D.10417
	addl	%r8d, %edi	# D.10417, D.10417
	addl	$1, %edi	#, D.10417
	sarl	%edi	# D.10417
	movw	%di, 8196(%rcx)	# D.10422, img.426_1599->mprr_3
	movzwl	8196(%rcx), %ecx	# img.426_1599->mprr_3, D.10422
	.loc 1 1162 0
	movw	%cx, 8176(%rdx)	# D.10422, img.425_1598->mprr_3
	movzwl	8176(%rdx), %edx	# img.425_1598->mprr_3, D.10422
	.loc 1 1161 0
	movw	%dx, 8156(%rax)	# D.10422, img.424_1597->mprr_3
	movzwl	8156(%rax), %eax	# img.424_1597->mprr_3, D.10422
	.loc 1 1160 0
	movw	%ax, 8136(%rsi)	# D.10422, img.423_1596->mprr_3
	.loc 1 1164 0
	movq	img(%rip), %rsi	# img, img.427
	.loc 1 1165 0
	movq	img(%rip), %rax	# img, img.428
	.loc 1 1166 0
	movq	img(%rip), %rdx	# img, img.429
	.loc 1 1167 0
	movq	img(%rip), %rcx	# img, img.430
	movl	-276(%rbp), %r8d	# PredPel, D.10417
	movl	-280(%rbp), %edi	# PredPel, D.10417
	addl	%r8d, %edi	# D.10417, D.10417
	addl	$1, %edi	#, D.10417
	sarl	%edi	# D.10417
	movw	%di, 8212(%rcx)	# D.10422, img.430_1612->mprr_3
	movzwl	8212(%rcx), %ecx	# img.430_1612->mprr_3, D.10422
	.loc 1 1166 0
	movw	%cx, 8192(%rdx)	# D.10422, img.429_1611->mprr_3
	movzwl	8192(%rdx), %edx	# img.429_1611->mprr_3, D.10422
	.loc 1 1165 0
	movw	%dx, 8172(%rax)	# D.10422, img.428_1610->mprr_3
	movzwl	8172(%rax), %eax	# img.428_1610->mprr_3, D.10422
	.loc 1 1164 0
	movw	%ax, 8152(%rsi)	# D.10422, img.427_1609->mprr_3
	.loc 1 1168 0
	movq	img(%rip), %rsi	# img, img.431
	.loc 1 1169 0
	movq	img(%rip), %rax	# img, img.432
	.loc 1 1170 0
	movq	img(%rip), %rdx	# img, img.433
	.loc 1 1171 0
	movq	img(%rip), %rcx	# img, img.434
	movl	-272(%rbp), %r8d	# PredPel, D.10417
	movl	-276(%rbp), %edi	# PredPel, D.10417
	addl	%r8d, %edi	# D.10417, D.10417
	addl	$1, %edi	#, D.10417
	sarl	%edi	# D.10417
	movw	%di, 8228(%rcx)	# D.10422, img.434_1625->mprr_3
	movzwl	8228(%rcx), %ecx	# img.434_1625->mprr_3, D.10422
	.loc 1 1170 0
	movw	%cx, 8208(%rdx)	# D.10422, img.433_1624->mprr_3
	movzwl	8208(%rdx), %edx	# img.433_1624->mprr_3, D.10422
	.loc 1 1169 0
	movw	%dx, 8188(%rax)	# D.10422, img.432_1623->mprr_3
	movzwl	8188(%rax), %eax	# img.432_1623->mprr_3, D.10422
	.loc 1 1168 0
	movw	%ax, 8168(%rsi)	# D.10422, img.431_1622->mprr_3
	.loc 1 1172 0
	movq	img(%rip), %rsi	# img, img.435
	.loc 1 1173 0
	movq	img(%rip), %rax	# img, img.436
	.loc 1 1174 0
	movq	img(%rip), %rdx	# img, img.437
	.loc 1 1175 0
	movq	img(%rip), %rcx	# img, img.438
	movl	-268(%rbp), %r8d	# PredPel, D.10417
	movl	-272(%rbp), %edi	# PredPel, D.10417
	addl	%r8d, %edi	# D.10417, D.10417
	addl	$1, %edi	#, D.10417
	sarl	%edi	# D.10417
	movw	%di, 8244(%rcx)	# D.10422, img.438_1638->mprr_3
	movzwl	8244(%rcx), %ecx	# img.438_1638->mprr_3, D.10422
	.loc 1 1174 0
	movw	%cx, 8224(%rdx)	# D.10422, img.437_1637->mprr_3
	movzwl	8224(%rdx), %edx	# img.437_1637->mprr_3, D.10422
	.loc 1 1173 0
	movw	%dx, 8204(%rax)	# D.10422, img.436_1636->mprr_3
	movzwl	8204(%rax), %eax	# img.436_1636->mprr_3, D.10422
	.loc 1 1172 0
	movw	%ax, 8184(%rsi)	# D.10422, img.435_1635->mprr_3
	.loc 1 1176 0
	movq	img(%rip), %rcx	# img, img.439
	.loc 1 1177 0
	movq	img(%rip), %rax	# img, img.440
	.loc 1 1178 0
	movq	img(%rip), %rdx	# img, img.441
	movl	-264(%rbp), %edi	# PredPel, D.10417
	movl	-268(%rbp), %esi	# PredPel, D.10417
	addl	%edi, %esi	# D.10417, D.10417
	addl	$1, %esi	#, D.10417
	sarl	%esi	# D.10417
	movw	%si, 8240(%rdx)	# D.10422, img.441_1650->mprr_3
	movzwl	8240(%rdx), %edx	# img.441_1650->mprr_3, D.10422
	.loc 1 1177 0
	movw	%dx, 8220(%rax)	# D.10422, img.440_1649->mprr_3
	movzwl	8220(%rax), %eax	# img.440_1649->mprr_3, D.10422
	.loc 1 1176 0
	movw	%ax, 8200(%rcx)	# D.10422, img.439_1648->mprr_3
	.loc 1 1179 0
	movq	img(%rip), %rdx	# img, img.442
	.loc 1 1180 0
	movq	img(%rip), %rax	# img, img.443
	movl	-260(%rbp), %esi	# PredPel, D.10417
	movl	-264(%rbp), %ecx	# PredPel, D.10417
	addl	%esi, %ecx	# D.10417, D.10417
	addl	$1, %ecx	#, D.10417
	sarl	%ecx	# D.10417
	movw	%cx, 8236(%rax)	# D.10422, img.443_1660->mprr_3
	movzwl	8236(%rax), %eax	# img.443_1660->mprr_3, D.10422
	.loc 1 1179 0
	movw	%ax, 8216(%rdx)	# D.10422, img.442_1659->mprr_3
	.loc 1 1181 0
	movq	img(%rip), %rax	# img, img.444
	movl	-256(%rbp), %ecx	# PredPel, D.10417
	movl	-260(%rbp), %edx	# PredPel, D.10417
	addl	%ecx, %edx	# D.10417, D.10417
	addl	$1, %edx	#, D.10417
	sarl	%edx	# D.10417
	movw	%dx, 8232(%rax)	# D.10422, img.444_1668->mprr_3
	.loc 1 1182 0
	movq	img(%rip), %rsi	# img, img.445
	.loc 1 1183 0
	movq	img(%rip), %rax	# img, img.446
	.loc 1 1184 0
	movq	img(%rip), %rdx	# img, img.447
	.loc 1 1185 0
	movq	img(%rip), %rcx	# img, img.448
	movl	-284(%rbp), %r8d	# PredPel, D.10417
	movl	-348(%rbp), %edi	# PredPel, D.10417
	addl	%edi, %r8d	# D.10417, D.10417
	movl	-352(%rbp), %edi	# PredPel, D.10417
	addl	%edi, %edi	# D.10417
	addl	%r8d, %edi	# D.10417, D.10417
	addl	$2, %edi	#, D.10417
	sarl	$2, %edi	#, D.10417
	movw	%di, 8182(%rcx)	# D.10422, img.448_1678->mprr_3
	movzwl	8182(%rcx), %ecx	# img.448_1678->mprr_3, D.10422
	.loc 1 1184 0
	movw	%cx, 8162(%rdx)	# D.10422, img.447_1677->mprr_3
	movzwl	8162(%rdx), %edx	# img.447_1677->mprr_3, D.10422
	.loc 1 1183 0
	movw	%dx, 8142(%rax)	# D.10422, img.446_1676->mprr_3
	movzwl	8142(%rax), %eax	# img.446_1676->mprr_3, D.10422
	.loc 1 1182 0
	movw	%ax, 8122(%rsi)	# D.10422, img.445_1675->mprr_3
	.loc 1 1186 0
	movq	img(%rip), %rsi	# img, img.449
	.loc 1 1187 0
	movq	img(%rip), %rax	# img, img.450
	.loc 1 1188 0
	movq	img(%rip), %rdx	# img, img.451
	.loc 1 1189 0
	movq	img(%rip), %rcx	# img, img.452
	movl	-352(%rbp), %r8d	# PredPel, D.10417
	movl	-280(%rbp), %edi	# PredPel, D.10417
	addl	%edi, %r8d	# D.10417, D.10417
	movl	-284(%rbp), %edi	# PredPel, D.10417
	addl	%edi, %edi	# D.10417
	addl	%r8d, %edi	# D.10417, D.10417
	addl	$2, %edi	#, D.10417
	sarl	$2, %edi	#, D.10417
	movw	%di, 8198(%rcx)	# D.10422, img.452_1694->mprr_3
	movzwl	8198(%rcx), %ecx	# img.452_1694->mprr_3, D.10422
	.loc 1 1188 0
	movw	%cx, 8178(%rdx)	# D.10422, img.451_1693->mprr_3
	movzwl	8178(%rdx), %edx	# img.451_1693->mprr_3, D.10422
	.loc 1 1187 0
	movw	%dx, 8158(%rax)	# D.10422, img.450_1692->mprr_3
	movzwl	8158(%rax), %eax	# img.450_1692->mprr_3, D.10422
	.loc 1 1186 0
	movw	%ax, 8138(%rsi)	# D.10422, img.449_1691->mprr_3
	.loc 1 1190 0
	movq	img(%rip), %rsi	# img, img.453
	.loc 1 1191 0
	movq	img(%rip), %rax	# img, img.454
	.loc 1 1192 0
	movq	img(%rip), %rdx	# img, img.455
	.loc 1 1193 0
	movq	img(%rip), %rcx	# img, img.456
	movl	-284(%rbp), %r8d	# PredPel, D.10417
	movl	-276(%rbp), %edi	# PredPel, D.10417
	addl	%edi, %r8d	# D.10417, D.10417
	movl	-280(%rbp), %edi	# PredPel, D.10417
	addl	%edi, %edi	# D.10417
	addl	%r8d, %edi	# D.10417, D.10417
	addl	$2, %edi	#, D.10417
	sarl	$2, %edi	#, D.10417
	movw	%di, 8214(%rcx)	# D.10422, img.456_1710->mprr_3
	movzwl	8214(%rcx), %ecx	# img.456_1710->mprr_3, D.10422
	.loc 1 1192 0
	movw	%cx, 8194(%rdx)	# D.10422, img.455_1709->mprr_3
	movzwl	8194(%rdx), %edx	# img.455_1709->mprr_3, D.10422
	.loc 1 1191 0
	movw	%dx, 8174(%rax)	# D.10422, img.454_1708->mprr_3
	movzwl	8174(%rax), %eax	# img.454_1708->mprr_3, D.10422
	.loc 1 1190 0
	movw	%ax, 8154(%rsi)	# D.10422, img.453_1707->mprr_3
	.loc 1 1194 0
	movq	img(%rip), %rsi	# img, img.457
	.loc 1 1195 0
	movq	img(%rip), %rax	# img, img.458
	.loc 1 1196 0
	movq	img(%rip), %rdx	# img, img.459
	.loc 1 1197 0
	movq	img(%rip), %rcx	# img, img.460
	movl	-280(%rbp), %r8d	# PredPel, D.10417
	movl	-272(%rbp), %edi	# PredPel, D.10417
	addl	%edi, %r8d	# D.10417, D.10417
	movl	-276(%rbp), %edi	# PredPel, D.10417
	addl	%edi, %edi	# D.10417
	addl	%r8d, %edi	# D.10417, D.10417
	addl	$2, %edi	#, D.10417
	sarl	$2, %edi	#, D.10417
	movw	%di, 8230(%rcx)	# D.10422, img.460_1726->mprr_3
	movzwl	8230(%rcx), %ecx	# img.460_1726->mprr_3, D.10422
	.loc 1 1196 0
	movw	%cx, 8210(%rdx)	# D.10422, img.459_1725->mprr_3
	movzwl	8210(%rdx), %edx	# img.459_1725->mprr_3, D.10422
	.loc 1 1195 0
	movw	%dx, 8190(%rax)	# D.10422, img.458_1724->mprr_3
	movzwl	8190(%rax), %eax	# img.458_1724->mprr_3, D.10422
	.loc 1 1194 0
	movw	%ax, 8170(%rsi)	# D.10422, img.457_1723->mprr_3
	.loc 1 1198 0
	movq	img(%rip), %rsi	# img, img.461
	.loc 1 1199 0
	movq	img(%rip), %rax	# img, img.462
	.loc 1 1200 0
	movq	img(%rip), %rdx	# img, img.463
	.loc 1 1201 0
	movq	img(%rip), %rcx	# img, img.464
	movl	-276(%rbp), %r8d	# PredPel, D.10417
	movl	-268(%rbp), %edi	# PredPel, D.10417
	addl	%edi, %r8d	# D.10417, D.10417
	movl	-272(%rbp), %edi	# PredPel, D.10417
	addl	%edi, %edi	# D.10417
	addl	%r8d, %edi	# D.10417, D.10417
	addl	$2, %edi	#, D.10417
	sarl	$2, %edi	#, D.10417
	movw	%di, 8246(%rcx)	# D.10422, img.464_1742->mprr_3
	movzwl	8246(%rcx), %ecx	# img.464_1742->mprr_3, D.10422
	.loc 1 1200 0
	movw	%cx, 8226(%rdx)	# D.10422, img.463_1741->mprr_3
	movzwl	8226(%rdx), %edx	# img.463_1741->mprr_3, D.10422
	.loc 1 1199 0
	movw	%dx, 8206(%rax)	# D.10422, img.462_1740->mprr_3
	movzwl	8206(%rax), %eax	# img.462_1740->mprr_3, D.10422
	.loc 1 1198 0
	movw	%ax, 8186(%rsi)	# D.10422, img.461_1739->mprr_3
	.loc 1 1202 0
	movq	img(%rip), %rcx	# img, img.465
	.loc 1 1203 0
	movq	img(%rip), %rax	# img, img.466
	.loc 1 1204 0
	movq	img(%rip), %rdx	# img, img.467
	movl	-272(%rbp), %edi	# PredPel, D.10417
	movl	-264(%rbp), %esi	# PredPel, D.10417
	addl	%esi, %edi	# D.10417, D.10417
	movl	-268(%rbp), %esi	# PredPel, D.10417
	addl	%esi, %esi	# D.10417
	addl	%edi, %esi	# D.10417, D.10417
	addl	$2, %esi	#, D.10417
	sarl	$2, %esi	#, D.10417
	movw	%si, 8242(%rdx)	# D.10422, img.467_1757->mprr_3
	movzwl	8242(%rdx), %edx	# img.467_1757->mprr_3, D.10422
	.loc 1 1203 0
	movw	%dx, 8222(%rax)	# D.10422, img.466_1756->mprr_3
	movzwl	8222(%rax), %eax	# img.466_1756->mprr_3, D.10422
	.loc 1 1202 0
	movw	%ax, 8202(%rcx)	# D.10422, img.465_1755->mprr_3
	.loc 1 1205 0
	movq	img(%rip), %rdx	# img, img.468
	.loc 1 1206 0
	movq	img(%rip), %rax	# img, img.469
	movl	-268(%rbp), %esi	# PredPel, D.10417
	movl	-260(%rbp), %ecx	# PredPel, D.10417
	addl	%ecx, %esi	# D.10417, D.10417
	movl	-264(%rbp), %ecx	# PredPel, D.10417
	addl	%ecx, %ecx	# D.10417
	addl	%esi, %ecx	# D.10417, D.10417
	addl	$2, %ecx	#, D.10417
	sarl	$2, %ecx	#, D.10417
	movw	%cx, 8238(%rax)	# D.10422, img.469_1770->mprr_3
	movzwl	8238(%rax), %eax	# img.469_1770->mprr_3, D.10422
	.loc 1 1205 0
	movw	%ax, 8218(%rdx)	# D.10422, img.468_1769->mprr_3
	.loc 1 1207 0
	movq	img(%rip), %rax	# img, img.470
	movl	-264(%rbp), %ecx	# PredPel, D.10417
	movl	-256(%rbp), %edx	# PredPel, D.10417
	addl	%edx, %ecx	# D.10417, D.10417
	movl	-260(%rbp), %edx	# PredPel, D.10417
	addl	%edx, %edx	# D.10417
	addl	%ecx, %edx	# D.10417, D.10417
	addl	$2, %edx	#, D.10417
	sarl	$2, %edx	#, D.10417
	movw	%dx, 8234(%rax)	# D.10422, img.470_1781->mprr_3
	.loc 1 1208 0
	movq	img(%rip), %rcx	# img, img.471
	.loc 1 1209 0
	movq	img(%rip), %rax	# img, img.472
	.loc 1 1210 0
	movq	img(%rip), %rdx	# img, img.473
	movl	-352(%rbp), %edi	# PredPel, D.10417
	movl	-344(%rbp), %esi	# PredPel, D.10417
	addl	%esi, %edi	# D.10417, D.10417
	movl	-348(%rbp), %esi	# PredPel, D.10417
	addl	%esi, %esi	# D.10417
	addl	%edi, %esi	# D.10417, D.10417
	addl	$2, %esi	#, D.10417
	sarl	$2, %esi	#, D.10417
	movw	%si, 8164(%rdx)	# D.10422, img.473_1793->mprr_3
	movzwl	8164(%rdx), %edx	# img.473_1793->mprr_3, D.10422
	.loc 1 1209 0
	movw	%dx, 8144(%rax)	# D.10422, img.472_1792->mprr_3
	movzwl	8144(%rax), %eax	# img.472_1792->mprr_3, D.10422
	.loc 1 1208 0
	movw	%ax, 8124(%rcx)	# D.10422, img.471_1791->mprr_3
	.loc 1 1211 0
	movq	img(%rip), %rcx	# img, img.474
	.loc 1 1212 0
	movq	img(%rip), %rax	# img, img.475
	.loc 1 1213 0
	movq	img(%rip), %rdx	# img, img.476
	movl	-348(%rbp), %edi	# PredPel, D.10417
	movl	-340(%rbp), %esi	# PredPel, D.10417
	addl	%esi, %edi	# D.10417, D.10417
	movl	-344(%rbp), %esi	# PredPel, D.10417
	addl	%esi, %esi	# D.10417
	addl	%edi, %esi	# D.10417, D.10417
	addl	$2, %esi	#, D.10417
	sarl	$2, %esi	#, D.10417
	movw	%si, 8166(%rdx)	# D.10422, img.476_1807->mprr_3
	movzwl	8166(%rdx), %edx	# img.476_1807->mprr_3, D.10422
	.loc 1 1212 0
	movw	%dx, 8146(%rax)	# D.10422, img.475_1806->mprr_3
	movzwl	8146(%rax), %eax	# img.475_1806->mprr_3, D.10422
	.loc 1 1211 0
	movw	%ax, 8126(%rcx)	# D.10422, img.474_1805->mprr_3
	.loc 1 1214 0
	movq	img(%rip), %rdx	# img, img.477
	.loc 1 1215 0
	movq	img(%rip), %rax	# img, img.478
	movl	-344(%rbp), %esi	# PredPel, D.10417
	movl	-336(%rbp), %ecx	# PredPel, D.10417
	addl	%ecx, %esi	# D.10417, D.10417
	movl	-340(%rbp), %ecx	# PredPel, D.10417
	addl	%ecx, %ecx	# D.10417
	addl	%esi, %ecx	# D.10417, D.10417
	addl	$2, %ecx	#, D.10417
	sarl	$2, %ecx	#, D.10417
	movw	%cx, 8148(%rax)	# D.10422, img.478_1820->mprr_3
	movzwl	8148(%rax), %eax	# img.478_1820->mprr_3, D.10422
	.loc 1 1214 0
	movw	%ax, 8128(%rdx)	# D.10422, img.477_1819->mprr_3
	.loc 1 1216 0
	movq	img(%rip), %rdx	# img, img.479
	.loc 1 1217 0
	movq	img(%rip), %rax	# img, img.480
	movl	-340(%rbp), %esi	# PredPel, D.10417
	movl	-332(%rbp), %ecx	# PredPel, D.10417
	addl	%ecx, %esi	# D.10417, D.10417
	movl	-336(%rbp), %ecx	# PredPel, D.10417
	addl	%ecx, %ecx	# D.10417
	addl	%esi, %ecx	# D.10417, D.10417
	addl	$2, %ecx	#, D.10417
	sarl	$2, %ecx	#, D.10417
	movw	%cx, 8150(%rax)	# D.10422, img.480_1832->mprr_3
	movzwl	8150(%rax), %eax	# img.480_1832->mprr_3, D.10422
	.loc 1 1216 0
	movw	%ax, 8130(%rdx)	# D.10422, img.479_1831->mprr_3
	.loc 1 1218 0
	movq	img(%rip), %rax	# img, img.481
	movl	-336(%rbp), %ecx	# PredPel, D.10417
	movl	-328(%rbp), %edx	# PredPel, D.10417
	addl	%edx, %ecx	# D.10417, D.10417
	movl	-332(%rbp), %edx	# PredPel, D.10417
	addl	%edx, %edx	# D.10417
	addl	%ecx, %edx	# D.10417, D.10417
	addl	$2, %edx	#, D.10417
	sarl	$2, %edx	#, D.10417
	movw	%dx, 8132(%rax)	# D.10422, img.481_1843->mprr_3
	.loc 1 1219 0
	movq	img(%rip), %rax	# img, img.482
	movl	-332(%rbp), %ecx	# PredPel, D.10417
	movl	-324(%rbp), %edx	# PredPel, D.10417
	addl	%edx, %ecx	# D.10417, D.10417
	movl	-328(%rbp), %edx	# PredPel, D.10417
	addl	%edx, %edx	# D.10417
	addl	%ecx, %edx	# D.10417, D.10417
	addl	$2, %edx	#, D.10417
	sarl	$2, %edx	#, D.10417
	movw	%dx, 8134(%rax)	# D.10422, img.482_1853->mprr_3
.L240:
	.loc 1 1225 0
	cmpl	$0, -480(%rbp)	#, block_available_left
	je	.L197	#,
	.loc 1 1227 0
	movq	img(%rip), %rax	# img, img.483
	movl	-284(%rbp), %ecx	# PredPel, D.10417
	movl	-280(%rbp), %edx	# PredPel, D.10417
	addl	%ecx, %edx	# D.10417, D.10417
	addl	$1, %edx	#, D.10417
	sarl	%edx	# D.10417
	movw	%dx, 8376(%rax)	# D.10422, img.483_1863->mprr_3
	.loc 1 1228 0
	movq	img(%rip), %rdx	# img, img.484
	.loc 1 1229 0
	movq	img(%rip), %rax	# img, img.485
	movl	-280(%rbp), %esi	# PredPel, D.10417
	movl	-276(%rbp), %ecx	# PredPel, D.10417
	addl	%esi, %ecx	# D.10417, D.10417
	addl	$1, %ecx	#, D.10417
	sarl	%ecx	# D.10417
	movw	%cx, 8380(%rax)	# D.10422, img.485_1871->mprr_3
	movzwl	8380(%rax), %eax	# img.485_1871->mprr_3, D.10422
	.loc 1 1228 0
	movw	%ax, 8392(%rdx)	# D.10422, img.484_1870->mprr_3
	.loc 1 1230 0
	movq	img(%rip), %rcx	# img, img.486
	.loc 1 1231 0
	movq	img(%rip), %rax	# img, img.487
	.loc 1 1232 0
	movq	img(%rip), %rdx	# img, img.488
	movl	-276(%rbp), %edi	# PredPel, D.10417
	movl	-272(%rbp), %esi	# PredPel, D.10417
	addl	%edi, %esi	# D.10417, D.10417
	addl	$1, %esi	#, D.10417
	sarl	%esi	# D.10417
	movw	%si, 8384(%rdx)	# D.10422, img.488_1881->mprr_3
	movzwl	8384(%rdx), %edx	# img.488_1881->mprr_3, D.10422
	.loc 1 1231 0
	movw	%dx, 8396(%rax)	# D.10422, img.487_1880->mprr_3
	movzwl	8396(%rax), %eax	# img.487_1880->mprr_3, D.10422
	.loc 1 1230 0
	movw	%ax, 8408(%rcx)	# D.10422, img.486_1879->mprr_3
	.loc 1 1233 0
	movq	img(%rip), %rsi	# img, img.489
	.loc 1 1234 0
	movq	img(%rip), %rax	# img, img.490
	.loc 1 1235 0
	movq	img(%rip), %rdx	# img, img.491
	.loc 1 1236 0
	movq	img(%rip), %rcx	# img, img.492
	movl	-272(%rbp), %r8d	# PredPel, D.10417
	movl	-268(%rbp), %edi	# PredPel, D.10417
	addl	%r8d, %edi	# D.10417, D.10417
	addl	$1, %edi	#, D.10417
	sarl	%edi	# D.10417
	movw	%di, 8388(%rcx)	# D.10422, img.492_1893->mprr_3
	movzwl	8388(%rcx), %ecx	# img.492_1893->mprr_3, D.10422
	.loc 1 1235 0
	movw	%cx, 8400(%rdx)	# D.10422, img.491_1892->mprr_3
	movzwl	8400(%rdx), %edx	# img.491_1892->mprr_3, D.10422
	.loc 1 1234 0
	movw	%dx, 8412(%rax)	# D.10422, img.490_1891->mprr_3
	movzwl	8412(%rax), %eax	# img.490_1891->mprr_3, D.10422
	.loc 1 1233 0
	movw	%ax, 8424(%rsi)	# D.10422, img.489_1890->mprr_3
	.loc 1 1237 0
	movq	img(%rip), %rsi	# img, img.493
	.loc 1 1238 0
	movq	img(%rip), %rax	# img, img.494
	.loc 1 1239 0
	movq	img(%rip), %rdx	# img, img.495
	.loc 1 1240 0
	movq	img(%rip), %rcx	# img, img.496
	movl	-268(%rbp), %r8d	# PredPel, D.10417
	movl	-264(%rbp), %edi	# PredPel, D.10417
	addl	%r8d, %edi	# D.10417, D.10417
	addl	$1, %edi	#, D.10417
	sarl	%edi	# D.10417
	movw	%di, 8404(%rcx)	# D.10422, img.496_1906->mprr_3
	movzwl	8404(%rcx), %ecx	# img.496_1906->mprr_3, D.10422
	.loc 1 1239 0
	movw	%cx, 8416(%rdx)	# D.10422, img.495_1905->mprr_3
	movzwl	8416(%rdx), %edx	# img.495_1905->mprr_3, D.10422
	.loc 1 1238 0
	movw	%dx, 8428(%rax)	# D.10422, img.494_1904->mprr_3
	movzwl	8428(%rax), %eax	# img.494_1904->mprr_3, D.10422
	.loc 1 1237 0
	movw	%ax, 8440(%rsi)	# D.10422, img.493_1903->mprr_3
	.loc 1 1241 0
	movq	img(%rip), %rsi	# img, img.497
	.loc 1 1242 0
	movq	img(%rip), %rax	# img, img.498
	.loc 1 1243 0
	movq	img(%rip), %rdx	# img, img.499
	.loc 1 1244 0
	movq	img(%rip), %rcx	# img, img.500
	movl	-264(%rbp), %r8d	# PredPel, D.10417
	movl	-260(%rbp), %edi	# PredPel, D.10417
	addl	%r8d, %edi	# D.10417, D.10417
	addl	$1, %edi	#, D.10417
	sarl	%edi	# D.10417
	movw	%di, 8420(%rcx)	# D.10422, img.500_1919->mprr_3
	movzwl	8420(%rcx), %ecx	# img.500_1919->mprr_3, D.10422
	.loc 1 1243 0
	movw	%cx, 8432(%rdx)	# D.10422, img.499_1918->mprr_3
	movzwl	8432(%rdx), %edx	# img.499_1918->mprr_3, D.10422
	.loc 1 1242 0
	movw	%dx, 8444(%rax)	# D.10422, img.498_1917->mprr_3
	movzwl	8444(%rax), %eax	# img.498_1917->mprr_3, D.10422
	.loc 1 1241 0
	movw	%ax, 8456(%rsi)	# D.10422, img.497_1916->mprr_3
	.loc 1 1245 0
	movq	img(%rip), %rsi	# img, img.501
	.loc 1 1246 0
	movq	img(%rip), %rax	# img, img.502
	.loc 1 1247 0
	movq	img(%rip), %rdx	# img, img.503
	.loc 1 1248 0
	movq	img(%rip), %rcx	# img, img.504
	movl	-260(%rbp), %r8d	# PredPel, D.10417
	movl	-256(%rbp), %edi	# PredPel, D.10417
	addl	%r8d, %edi	# D.10417, D.10417
	addl	$1, %edi	#, D.10417
	sarl	%edi	# D.10417
	movw	%di, 8436(%rcx)	# D.10422, img.504_1932->mprr_3
	movzwl	8436(%rcx), %ecx	# img.504_1932->mprr_3, D.10422
	.loc 1 1247 0
	movw	%cx, 8448(%rdx)	# D.10422, img.503_1931->mprr_3
	movzwl	8448(%rdx), %edx	# img.503_1931->mprr_3, D.10422
	.loc 1 1246 0
	movw	%dx, 8460(%rax)	# D.10422, img.502_1930->mprr_3
	movzwl	8460(%rax), %eax	# img.502_1930->mprr_3, D.10422
	.loc 1 1245 0
	movw	%ax, 8472(%rsi)	# D.10422, img.501_1929->mprr_3
	.loc 1 1249 0
	movq	img(%rip), %rax	# img, img.505
	movq	%rax, -536(%rbp)	# img.505, %sfp
	.loc 1 1250 0
	movq	img(%rip), %r10	# img, img.506
	.loc 1 1251 0
	movq	img(%rip), %r11	# img, img.507
	.loc 1 1252 0
	movq	img(%rip), %rbx	# img, img.508
	.loc 1 1253 0
	movq	img(%rip), %r12	# img, img.509
	.loc 1 1254 0
	movq	img(%rip), %r13	# img, img.510
	.loc 1 1255 0
	movq	img(%rip), %r14	# img, img.511
	.loc 1 1256 0
	movq	img(%rip), %r15	# img, img.512
	.loc 1 1257 0
	movq	img(%rip), %rax	# img, img.513
	movq	%rax, -544(%rbp)	# img.513, %sfp
	.loc 1 1258 0
	movq	img(%rip), %rdi	# img, img.514
	movq	%rdi, -552(%rbp)	# img.514, %sfp
	.loc 1 1259 0
	movq	img(%rip), %rcx	# img, img.515
	movq	%rcx, -560(%rbp)	# img.515, %sfp
	.loc 1 1260 0
	movq	img(%rip), %rdx	# img, img.516
	movq	%rdx, -568(%rbp)	# img.516, %sfp
	.loc 1 1261 0
	movq	img(%rip), %r9	# img, img.517
	movq	%r9, -576(%rbp)	# img.517, %sfp
	.loc 1 1262 0
	movq	img(%rip), %r8	# img, img.518
	movq	%r8, -584(%rbp)	# img.518, %sfp
	.loc 1 1263 0
	movq	img(%rip), %r9	# img, img.519
	.loc 1 1264 0
	movq	img(%rip), %r8	# img, img.520
	.loc 1 1265 0
	movq	img(%rip), %rdi	# img, img.521
	.loc 1 1266 0
	movq	img(%rip), %rsi	# img, img.522
	.loc 1 1267 0
	movq	img(%rip), %rcx	# img, img.523
	.loc 1 1268 0
	movq	img(%rip), %rdx	# img, img.524
	movl	-256(%rbp), %eax	# PredPel, D.10417
	movw	%ax, 8502(%rdx)	# D.10422, img.524_1961->mprr_3
	movzwl	8502(%rdx), %eax	# img.524_1961->mprr_3, D.10422
	.loc 1 1267 0
	movw	%ax, 8500(%rcx)	# D.10422, img.523_1960->mprr_3
	movzwl	8500(%rcx), %eax	# img.523_1960->mprr_3, D.10422
	.loc 1 1266 0
	movw	%ax, 8498(%rsi)	# D.10422, img.522_1959->mprr_3
	movzwl	8498(%rsi), %eax	# img.522_1959->mprr_3, D.10422
	.loc 1 1265 0
	movw	%ax, 8496(%rdi)	# D.10422, img.521_1958->mprr_3
	movzwl	8496(%rdi), %eax	# img.521_1958->mprr_3, D.10422
	.loc 1 1264 0
	movw	%ax, 8494(%r8)	# D.10422, img.520_1957->mprr_3
	movzwl	8494(%r8), %eax	# img.520_1957->mprr_3, D.10422
	.loc 1 1263 0
	movw	%ax, 8492(%r9)	# D.10422, img.519_1956->mprr_3
	movzwl	8492(%r9), %eax	# img.519_1956->mprr_3, D.10422
	.loc 1 1262 0
	movq	-584(%rbp), %r8	# %sfp, img.518
	movw	%ax, 8490(%r8)	# D.10422, img.518_1955->mprr_3
	movzwl	8490(%r8), %eax	# img.518_1955->mprr_3, D.10422
	.loc 1 1261 0
	movq	-576(%rbp), %r9	# %sfp, img.517
	movw	%ax, 8488(%r9)	# D.10422, img.517_1954->mprr_3
	movzwl	8488(%r9), %eax	# img.517_1954->mprr_3, D.10422
	.loc 1 1260 0
	movq	-568(%rbp), %rdx	# %sfp, img.516
	movw	%ax, 8486(%rdx)	# D.10422, img.516_1953->mprr_3
	movzwl	8486(%rdx), %eax	# img.516_1953->mprr_3, D.10422
	.loc 1 1259 0
	movq	-560(%rbp), %rcx	# %sfp, img.515
	movw	%ax, 8484(%rcx)	# D.10422, img.515_1952->mprr_3
	movzwl	8484(%rcx), %eax	# img.515_1952->mprr_3, D.10422
	.loc 1 1258 0
	movq	-552(%rbp), %rdi	# %sfp, img.514
	movw	%ax, 8482(%rdi)	# D.10422, img.514_1951->mprr_3
	movzwl	8482(%rdi), %eax	# img.514_1951->mprr_3, D.10422
	.loc 1 1257 0
	movq	-544(%rbp), %rsi	# %sfp, img.513
	movw	%ax, 8480(%rsi)	# D.10422, img.513_1950->mprr_3
	movq	%rsi, %rax	# img.513, img.513
	movzwl	8480(%rax), %eax	# img.513_1950->mprr_3, D.10422
	.loc 1 1256 0
	movw	%ax, 8478(%r15)	# D.10422, img.512_1949->mprr_3
	movzwl	8478(%r15), %eax	# img.512_1949->mprr_3, D.10422
	.loc 1 1255 0
	movw	%ax, 8476(%r14)	# D.10422, img.511_1948->mprr_3
