	.file	"vlc.c"
# GNU C (Ubuntu/Linaro 4.8.1-10ubuntu9) version 4.8.1 (x86_64-linux-gnu)
#	compiled by GNU C version 4.8.1, GMP version 5.1.2, MPFR version 3.1.1-p2, MPC version 1.0.1
# GGC heuristics: --param ggc-min-expand=100 --param ggc-min-heapsize=131072
# options passed:  -imultiarch x86_64-linux-gnu -D SPEC_CPU -D NDEBUG
# -D SPEC_CPU_LP64 vlc.c -mtune=generic -march=x86-64 -g -fverbose-asm
# -fno-strict-aliasing -fstack-protector -Wformat -Wformat-security
# options enabled:  -faggressive-loop-optimizations
# -fasynchronous-unwind-tables -fauto-inc-dec -fbranch-count-reg -fcommon
# -fdelete-null-pointer-checks -fdwarf2-cfi-asm -fearly-inlining
# -feliminate-unused-debug-types -ffunction-cse -fgcse-lm -fgnu-runtime
# -fident -finline-atomics -fira-hoist-pressure -fira-share-save-slots
# -fira-share-spill-slots -fivopts -fkeep-static-consts
# -fleading-underscore -fmath-errno -fmerge-debug-strings
# -fmove-loop-invariants -fpeephole -fprefetch-loop-arrays
# -freg-struct-return -fsched-critical-path-heuristic
# -fsched-dep-count-heuristic -fsched-group-heuristic -fsched-interblock
# -fsched-last-insn-heuristic -fsched-rank-heuristic -fsched-spec
# -fsched-spec-insn-heuristic -fsched-stalled-insns-dep -fshow-column
# -fsigned-zeros -fsplit-ivs-in-unroller -fstack-protector
# -fstrict-volatile-bitfields -fsync-libcalls -ftrapping-math
# -ftree-coalesce-vars -ftree-cselim -ftree-forwprop -ftree-loop-if-convert
# -ftree-loop-im -ftree-loop-ivcanon -ftree-loop-optimize
# -ftree-parallelize-loops= -ftree-phiprop -ftree-pta -ftree-reassoc
# -ftree-scev-cprop -ftree-slp-vectorize -ftree-vect-loop-version
# -funit-at-a-time -funwind-tables -fverbose-asm -fzero-initialized-in-bss
# -m128bit-long-double -m64 -m80387 -maccumulate-outgoing-args
# -malign-stringops -mfancy-math-387 -mfp-ret-in-387 -mfxsr -mglibc
# -mieee-fp -mlong-double-80 -mmmx -mno-sse4 -mpush-args -mred-zone -msse
# -msse2 -mtls-direct-seg-refs

	.text
.Ltext0:
	.globl	ue_v
	.type	ue_v, @function
ue_v:
.LFB2:
	.file 1 "vlc.c"
	.loc 1 59 0
	.cfi_startproc
	pushq	%rbp	#
	.cfi_def_cfa_offset 16
	.cfi_offset 6, -16
	movq	%rsp, %rbp	#,
	.cfi_def_cfa_register 6
	subq	$96, %rsp	#,
	movq	%rdi, -72(%rbp)	# tracestring, tracestring
	movl	%esi, -76(%rbp)	# value, value
	movq	%rdx, -88(%rbp)	# part, part
	.loc 1 60 0
	leaq	-48(%rbp), %rax	#, tmp61
	movq	%rax, -56(%rbp)	# tmp61, sym
	.loc 1 61 0
	movq	-56(%rbp), %rax	# sym, tmp62
	movl	$0, (%rax)	#, sym_1->type
	.loc 1 62 0
	movq	-56(%rbp), %rax	# sym, tmp63
	movq	$ue_linfo, 32(%rax)	#, sym_1->mapping
	.loc 1 63 0
	movq	-56(%rbp), %rax	# sym, tmp64
	movl	-76(%rbp), %edx	# value, tmp65
	movl	%edx, 4(%rax)	# tmp65, sym_1->value1
	.loc 1 64 0
	movq	-56(%rbp), %rax	# sym, tmp66
	movl	$0, 8(%rax)	#, sym_1->value2
	.loc 1 69 0
	movq	-88(%rbp), %rdx	# part, tmp67
	movq	-56(%rbp), %rax	# sym, tmp68
	movq	%rdx, %rsi	# tmp67,
	movq	%rax, %rdi	# tmp68,
	call	writeSyntaxElement_UVLC	#
	.loc 1 70 0
	leave
	.cfi_def_cfa 7, 8
	ret
	.cfi_endproc
.LFE2:
	.size	ue_v, .-ue_v
	.globl	se_v
	.type	se_v, @function
se_v:
.LFB3:
	.loc 1 97 0
	.cfi_startproc
	pushq	%rbp	#
	.cfi_def_cfa_offset 16
	.cfi_offset 6, -16
	movq	%rsp, %rbp	#,
	.cfi_def_cfa_register 6
	subq	$96, %rsp	#,
	movq	%rdi, -72(%rbp)	# tracestring, tracestring
	movl	%esi, -76(%rbp)	# value, value
	movq	%rdx, -88(%rbp)	# part, part
	.loc 1 98 0
	leaq	-48(%rbp), %rax	#, tmp61
	movq	%rax, -56(%rbp)	# tmp61, sym
	.loc 1 99 0
	movq	-56(%rbp), %rax	# sym, tmp62
	movl	$0, (%rax)	#, sym_1->type
	.loc 1 100 0
	movq	-56(%rbp), %rax	# sym, tmp63
	movq	$se_linfo, 32(%rax)	#, sym_1->mapping
	.loc 1 101 0
	movq	-56(%rbp), %rax	# sym, tmp64
	movl	-76(%rbp), %edx	# value, tmp65
	movl	%edx, 4(%rax)	# tmp65, sym_1->value1
	.loc 1 102 0
	movq	-56(%rbp), %rax	# sym, tmp66
	movl	$0, 8(%rax)	#, sym_1->value2
	.loc 1 107 0
	movq	-88(%rbp), %rdx	# part, tmp67
	movq	-56(%rbp), %rax	# sym, tmp68
	movq	%rdx, %rsi	# tmp67,
	movq	%rax, %rdi	# tmp68,
	call	writeSyntaxElement_UVLC	#
	.loc 1 108 0
	leave
	.cfi_def_cfa 7, 8
	ret
	.cfi_endproc
.LFE3:
	.size	se_v, .-se_v
	.globl	u_1
	.type	u_1, @function
u_1:
.LFB4:
	.loc 1 136 0
	.cfi_startproc
	pushq	%rbp	#
	.cfi_def_cfa_offset 16
	.cfi_offset 6, -16
	movq	%rsp, %rbp	#,
	.cfi_def_cfa_register 6
	subq	$96, %rsp	#,
	movq	%rdi, -72(%rbp)	# tracestring, tracestring
	movl	%esi, -76(%rbp)	# value, value
	movq	%rdx, -88(%rbp)	# part, part
	.loc 1 137 0
	leaq	-48(%rbp), %rax	#, tmp62
	movq	%rax, -56(%rbp)	# tmp62, sym
	.loc 1 139 0
	movl	-76(%rbp), %edx	# value, value.0
	movq	-56(%rbp), %rax	# sym, tmp63
	movl	%edx, 20(%rax)	# value.0, sym_1->bitpattern
	.loc 1 140 0
	movq	-56(%rbp), %rax	# sym, tmp64
	movl	$1, 12(%rax)	#, sym_1->len
	.loc 1 141 0
	movq	-56(%rbp), %rax	# sym, tmp65
	movl	$0, (%rax)	#, sym_1->type
	.loc 1 142 0
	movq	-56(%rbp), %rax	# sym, tmp66
	movl	-76(%rbp), %edx	# value, tmp67
	movl	%edx, 4(%rax)	# tmp67, sym_1->value1
	.loc 1 143 0
	movq	-56(%rbp), %rax	# sym, tmp68
	movl	$0, 8(%rax)	#, sym_1->value2
	.loc 1 148 0
	movq	-88(%rbp), %rdx	# part, tmp69
	movq	-56(%rbp), %rax	# sym, tmp70
	movq	%rdx, %rsi	# tmp69,
	movq	%rax, %rdi	# tmp70,
	call	writeSyntaxElement_fixed	#
	.loc 1 149 0
	leave
	.cfi_def_cfa 7, 8
	ret
	.cfi_endproc
.LFE4:
	.size	u_1, .-u_1
	.globl	u_v
	.type	u_v, @function
u_v:
.LFB5:
	.loc 1 179 0
	.cfi_startproc
	pushq	%rbp	#
	.cfi_def_cfa_offset 16
	.cfi_offset 6, -16
	movq	%rsp, %rbp	#,
	.cfi_def_cfa_register 6
	subq	$96, %rsp	#,
	movl	%edi, -68(%rbp)	# n, n
	movq	%rsi, -80(%rbp)	# tracestring, tracestring
	movl	%edx, -72(%rbp)	# value, value
	movq	%rcx, -88(%rbp)	# part, part
	.loc 1 180 0
	leaq	-48(%rbp), %rax	#, tmp62
	movq	%rax, -56(%rbp)	# tmp62, sym
	.loc 1 182 0
	movl	-72(%rbp), %edx	# value, value.1
	movq	-56(%rbp), %rax	# sym, tmp63
	movl	%edx, 20(%rax)	# value.1, sym_1->bitpattern
	.loc 1 183 0
	movq	-56(%rbp), %rax	# sym, tmp64
	movl	-68(%rbp), %edx	# n, tmp65
	movl	%edx, 12(%rax)	# tmp65, sym_1->len
	.loc 1 184 0
	movq	-56(%rbp), %rax	# sym, tmp66
	movl	$0, (%rax)	#, sym_1->type
	.loc 1 185 0
	movq	-56(%rbp), %rax	# sym, tmp67
	movl	-72(%rbp), %edx	# value, tmp68
	movl	%edx, 4(%rax)	# tmp68, sym_1->value1
	.loc 1 186 0
	movq	-56(%rbp), %rax	# sym, tmp69
	movl	$0, 8(%rax)	#, sym_1->value2
	.loc 1 191 0
	movq	-88(%rbp), %rdx	# part, tmp70
	movq	-56(%rbp), %rax	# sym, tmp71
	movq	%rdx, %rsi	# tmp70,
	movq	%rax, %rdi	# tmp71,
	call	writeSyntaxElement_fixed	#
	.loc 1 192 0
	leave
	.cfi_def_cfa 7, 8
	ret
	.cfi_endproc
.LFE5:
	.size	u_v, .-u_v
	.globl	ue_linfo
	.type	ue_linfo, @function
ue_linfo:
.LFB6:
	.loc 1 210 0
	.cfi_startproc
	pushq	%rbp	#
	.cfi_def_cfa_offset 16
	.cfi_offset 6, -16
	movq	%rsp, %rbp	#,
	.cfi_def_cfa_register 6
	pushq	%rbx	#
	subq	$56, %rsp	#,
	.cfi_offset 3, -24
	movl	%edi, -36(%rbp)	# ue, ue
	movl	%esi, -40(%rbp)	# dummy, dummy
	movq	%rdx, -48(%rbp)	# len, len
	movq	%rcx, -56(%rbp)	# info, info
	.loc 1 213 0
	movl	-36(%rbp), %eax	# ue, tmp67
	addl	$1, %eax	#, D.6000
	movl	%eax, %edx	# D.6000, tmp68
	shrl	$31, %edx	#, tmp68
	addl	%edx, %eax	# tmp68, tmp69
	sarl	%eax	# tmp70
	movl	%eax, -20(%rbp)	# tmp70, nn
	.loc 1 215 0
	movl	$0, -24(%rbp)	#, i
	jmp	.L10	#
.L12:
	.loc 1 217 0 discriminator 1
	movl	-20(%rbp), %eax	# nn, tmp72
	movl	%eax, %edx	# tmp72, tmp73
	shrl	$31, %edx	#, tmp73
	addl	%edx, %eax	# tmp73, tmp74
	sarl	%eax	# tmp75
	movl	%eax, -20(%rbp)	# tmp75, nn
	.loc 1 215 0 discriminator 1
	addl	$1, -24(%rbp)	#, i
.L10:
	cmpl	$15, -24(%rbp)	#, i
	jg	.L11	#,
	.loc 1 215 0 is_stmt 0 discriminator 2
	cmpl	$0, -20(%rbp)	#, nn
	jne	.L12	#,
.L11:
	.loc 1 219 0 is_stmt 1
	movl	-24(%rbp), %eax	# i, tmp76
	addl	%eax, %eax	# D.6000
	leal	1(%rax), %edx	#, D.6000
	movq	-48(%rbp), %rax	# len, tmp77
	movl	%edx, (%rax)	# D.6000, *len_11(D)
	.loc 1 220 0
	movl	-36(%rbp), %eax	# ue, tmp78
	leal	1(%rax), %ebx	#, D.6000
	cvtsi2sd	-24(%rbp), %xmm0	# i, D.6001
	movabsq	$4611686018427387904, %rax	#, tmp79
	movapd	%xmm0, %xmm1	# D.6001,
	movq	%rax, -64(%rbp)	# tmp79, %sfp
	movsd	-64(%rbp), %xmm0	# %sfp,
	call	pow	#
	cvttsd2si	%xmm0, %eax	# D.6001, D.6000
	subl	%eax, %ebx	# D.6000, D.6000
	movl	%ebx, %edx	# D.6000, D.6000
	movq	-56(%rbp), %rax	# info, tmp80
	movl	%edx, (%rax)	# D.6000, *info_17(D)
	.loc 1 221 0
	addq	$56, %rsp	#,
	popq	%rbx	#
	popq	%rbp	#
	.cfi_def_cfa 7, 8
	ret
	.cfi_endproc
.LFE6:
	.size	ue_linfo, .-ue_linfo
	.globl	se_linfo
	.type	se_linfo, @function
se_linfo:
.LFB7:
	.loc 1 239 0
	.cfi_startproc
	pushq	%rbp	#
	.cfi_def_cfa_offset 16
	.cfi_offset 6, -16
	movq	%rsp, %rbp	#,
	.cfi_def_cfa_register 6
	subq	$48, %rsp	#,
	movl	%edi, -20(%rbp)	# se, se
	movl	%esi, -24(%rbp)	# dummy, dummy
	movq	%rdx, -32(%rbp)	# len, len
	movq	%rcx, -40(%rbp)	# info, info
	.loc 1 243 0
	movl	$0, -12(%rbp)	#, sign
	.loc 1 245 0
	cmpl	$0, -20(%rbp)	#, se
	jg	.L14	#,
	.loc 1 247 0
	movl	$1, -12(%rbp)	#, sign
.L14:
	.loc 1 249 0
	movl	-20(%rbp), %eax	# se, tmp68
	cltd
	movl	%edx, %eax	# tmp67, D.6003
	xorl	-20(%rbp), %eax	# se, D.6003
	subl	%edx, %eax	# tmp67, D.6003
	addl	%eax, %eax	# tmp69
	movl	%eax, -4(%rbp)	# tmp69, n
	.loc 1 255 0
	movl	-4(%rbp), %eax	# n, tmp71
	movl	%eax, %edx	# tmp71, tmp72
	shrl	$31, %edx	#, tmp72
	addl	%edx, %eax	# tmp72, tmp73
	sarl	%eax	# tmp74
	movl	%eax, -8(%rbp)	# tmp74, nn
	.loc 1 256 0
	movl	$0, -16(%rbp)	#, i
	jmp	.L15	#
.L17:
	.loc 1 258 0 discriminator 1
	movl	-8(%rbp), %eax	# nn, tmp76
	movl	%eax, %edx	# tmp76, tmp77
	shrl	$31, %edx	#, tmp77
	addl	%edx, %eax	# tmp77, tmp78
	sarl	%eax	# tmp79
	movl	%eax, -8(%rbp)	# tmp79, nn
	.loc 1 256 0 discriminator 1
	addl	$1, -16(%rbp)	#, i
.L15:
	cmpl	$15, -16(%rbp)	#, i
	jg	.L16	#,
	.loc 1 256 0 is_stmt 0 discriminator 2
	cmpl	$0, -8(%rbp)	#, nn
	jne	.L17	#,
.L16:
	.loc 1 260 0 is_stmt 1
	movl	-16(%rbp), %eax	# i, tmp80
	addl	%eax, %eax	# D.6003
	leal	1(%rax), %edx	#, D.6003
	movq	-32(%rbp), %rax	# len, tmp81
	movl	%edx, (%rax)	# D.6003, *len_15(D)
	.loc 1 261 0
	cvtsi2sd	-16(%rbp), %xmm0	# i, D.6004
	movabsq	$4611686018427387904, %rax	#, tmp82
	movapd	%xmm0, %xmm1	# D.6004,
	movq	%rax, -48(%rbp)	# tmp82, %sfp
	movsd	-48(%rbp), %xmm0	# %sfp,
	call	pow	#
	cvttsd2si	%xmm0, %eax	# D.6004, D.6003
	movl	-4(%rbp), %edx	# n, tmp83
	subl	%eax, %edx	# D.6003, D.6003
	movl	-12(%rbp), %eax	# sign, tmp84
	addl	%eax, %edx	# tmp84, D.6003
	movq	-40(%rbp), %rax	# info, tmp85
	movl	%edx, (%rax)	# D.6003, *info_21(D)
	.loc 1 262 0
	leave
	.cfi_def_cfa 7, 8
	ret
	.cfi_endproc
.LFE7:
	.size	se_linfo, .-se_linfo
	.globl	cbp_linfo_intra
	.type	cbp_linfo_intra, @function
cbp_linfo_intra:
.LFB8:
	.loc 1 274 0
	.cfi_startproc
	pushq	%rbp	#
	.cfi_def_cfa_offset 16
	.cfi_offset 6, -16
	movq	%rsp, %rbp	#,
	.cfi_def_cfa_register 6
	subq	$32, %rsp	#,
	movl	%edi, -4(%rbp)	# cbp, cbp
	movl	%esi, -8(%rbp)	# dummy, dummy
	movq	%rdx, -16(%rbp)	# len, len
	movq	%rcx, -24(%rbp)	# info, info
	.loc 1 276 0
	movq	img(%rip), %rax	# img, img.2
	movl	72700(%rax), %eax	# img.2_1->yuv_format, D.6005
	testl	%eax, %eax	# D.6005
	setne	%al	#, D.6006
	movzbl	%al, %eax	# D.6006, D.6005
	movl	-4(%rbp), %edx	# cbp, tmp66
	movslq	%edx, %rcx	# tmp66, tmp65
	movslq	%eax, %rdx	# D.6005, tmp67
	movq	%rdx, %rax	# tmp67, tmp68
	addq	%rax, %rax	# tmp68
	addq	%rdx, %rax	# tmp67, tmp68
	salq	$4, %rax	#, tmp69
	addq	%rcx, %rax	# tmp65, tmp70
	movzbl	NCBP(%rax,%rax), %eax	# NCBP, D.6007
	movzbl	%al, %eax	# D.6007, D.6005
	movq	-24(%rbp), %rcx	# info, tmp71
	movq	-16(%rbp), %rdx	# len, tmp72
	movl	-8(%rbp), %esi	# dummy, tmp73
	movl	%eax, %edi	# D.6005,
	call	ue_linfo	#
	.loc 1 277 0
	leave
	.cfi_def_cfa 7, 8
	ret
	.cfi_endproc
.LFE8:
	.size	cbp_linfo_intra, .-cbp_linfo_intra
	.globl	cbp_linfo_inter
	.type	cbp_linfo_inter, @function
cbp_linfo_inter:
.LFB9:
	.loc 1 289 0
	.cfi_startproc
	pushq	%rbp	#
	.cfi_def_cfa_offset 16
	.cfi_offset 6, -16
	movq	%rsp, %rbp	#,
	.cfi_def_cfa_register 6
	subq	$32, %rsp	#,
	movl	%edi, -4(%rbp)	# cbp, cbp
	movl	%esi, -8(%rbp)	# dummy, dummy
	movq	%rdx, -16(%rbp)	# len, len
	movq	%rcx, -24(%rbp)	# info, info
	.loc 1 291 0
	movq	img(%rip), %rax	# img, img.3
	movl	72700(%rax), %eax	# img.3_1->yuv_format, D.6008
	testl	%eax, %eax	# D.6008
	setne	%al	#, D.6009
	movzbl	%al, %eax	# D.6009, D.6008
	movl	-4(%rbp), %edx	# cbp, tmp66
	movslq	%edx, %rcx	# tmp66, tmp65
	movslq	%eax, %rdx	# D.6008, tmp67
	movq	%rdx, %rax	# tmp67, tmp68
	addq	%rax, %rax	# tmp68
	addq	%rdx, %rax	# tmp67, tmp68
	salq	$4, %rax	#, tmp69
	addq	%rcx, %rax	# tmp65, tmp70
	movzbl	NCBP+1(%rax,%rax), %eax	# NCBP, D.6010
	movzbl	%al, %eax	# D.6010, D.6008
	movq	-24(%rbp), %rcx	# info, tmp71
	movq	-16(%rbp), %rdx	# len, tmp72
	movl	-8(%rbp), %esi	# dummy, tmp73
	movl	%eax, %edi	# D.6008,
	call	ue_linfo	#
	.loc 1 292 0
	leave
	.cfi_def_cfa 7, 8
	ret
	.cfi_endproc
.LFE9:
	.size	cbp_linfo_inter, .-cbp_linfo_inter
	.globl	levrun_linfo_c2x2
	.type	levrun_linfo_c2x2, @function
levrun_linfo_c2x2:
.LFB10:
	.loc 1 308 0
	.cfi_startproc
	pushq	%rbp	#
	.cfi_def_cfa_offset 16
	.cfi_offset 6, -16
	movq	%rsp, %rbp	#,
	.cfi_def_cfa_register 6
	subq	$96, %rsp	#,
	movl	%edi, -68(%rbp)	# level, level
	movl	%esi, -72(%rbp)	# run, run
	movq	%rdx, -80(%rbp)	# len, len
	movq	%rcx, -88(%rbp)	# info, info
	.loc 1 309 0
	movl	$1, -32(%rbp)	#, NTAB
	movl	$5, -28(%rbp)	#, NTAB
	movl	$3, -24(%rbp)	#, NTAB
	movl	$0, -20(%rbp)	#, NTAB
	.loc 1 314 0
	movl	$2, -16(%rbp)	#, LEVRUN
	movl	$1, -12(%rbp)	#, LEVRUN
	movl	$0, -8(%rbp)	#, LEVRUN
	movl	$0, -4(%rbp)	#, LEVRUN
	.loc 1 321 0
	cmpl	$0, -68(%rbp)	#, level
	jne	.L21	#,
	.loc 1 323 0
	movq	-80(%rbp), %rax	# len, tmp73
	movl	$1, (%rax)	#, *len_6(D)
	jmp	.L20	#
.L21:
	.loc 1 326 0
	movl	$0, -44(%rbp)	#, sign
	.loc 1 327 0
	cmpl	$0, -68(%rbp)	#, level
	jg	.L23	#,
	.loc 1 329 0
	movl	$1, -44(%rbp)	#, sign
.L23:
	.loc 1 331 0
	movl	-68(%rbp), %eax	# level, tmp75
	sarl	$31, %eax	#, tmp74
	movl	%eax, %edx	# tmp74, tmp77
	xorl	-68(%rbp), %edx	# level, tmp77
	subl	%eax, %edx	# tmp74, tmp78
	movl	%edx, %eax	# tmp78, tmp78
	movl	%eax, -36(%rbp)	# tmp78, levabs
	.loc 1 332 0
	movl	-72(%rbp), %eax	# run, tmp80
	cltq
	movl	-16(%rbp,%rax,4), %eax	# LEVRUN, D.6011
	cmpl	-36(%rbp), %eax	# levabs, D.6011
	jl	.L24	#,
	.loc 1 334 0
	movl	-36(%rbp), %eax	# levabs, tmp81
	leal	-1(%rax), %edx	#, D.6011
	movl	-72(%rbp), %eax	# run, tmp83
	cltq
	movslq	%edx, %rdx	# D.6011, tmp84
	addq	%rdx, %rdx	# tmp85
	addq	%rdx, %rax	# tmp85, tmp86
	movl	-32(%rbp,%rax,4), %eax	# NTAB, D.6011
	addl	$1, %eax	#, tmp87
	movl	%eax, -48(%rbp)	# tmp87, n
	jmp	.L25	#
.L24:
	.loc 1 338 0
	movl	-72(%rbp), %eax	# run, tmp89
	cltq
	movl	-16(%rbp,%rax,4), %eax	# LEVRUN, D.6011
	movl	-36(%rbp), %edx	# levabs, tmp90
	subl	%eax, %edx	# D.6011, D.6011
	movl	%edx, %eax	# D.6011, D.6011
	leal	0(,%rax,4), %edx	#, D.6011
	movl	-72(%rbp), %eax	# run, tmp91
	addl	%edx, %eax	# D.6011, D.6011
	addl	%eax, %eax	# tmp92
	movl	%eax, -48(%rbp)	# tmp92, n
.L25:
	.loc 1 341 0
	movl	-48(%rbp), %eax	# n, tmp94
	movl	%eax, %edx	# tmp94, tmp95
	shrl	$31, %edx	#, tmp95
	addl	%edx, %eax	# tmp95, tmp96
	sarl	%eax	# tmp97
	movl	%eax, -40(%rbp)	# tmp97, nn
	.loc 1 343 0
	movl	$0, -52(%rbp)	#, i
	jmp	.L26	#
.L28:
	.loc 1 345 0 discriminator 1
	movl	-40(%rbp), %eax	# nn, tmp99
	movl	%eax, %edx	# tmp99, tmp100
	shrl	$31, %edx	#, tmp100
	addl	%edx, %eax	# tmp100, tmp101
	sarl	%eax	# tmp102
	movl	%eax, -40(%rbp)	# tmp102, nn
	.loc 1 343 0 discriminator 1
	addl	$1, -52(%rbp)	#, i
.L26:
	cmpl	$15, -52(%rbp)	#, i
	jg	.L27	#,
	.loc 1 343 0 is_stmt 0 discriminator 2
	cmpl	$0, -40(%rbp)	#, nn
	jne	.L28	#,
.L27:
	.loc 1 347 0 is_stmt 1
	movl	-52(%rbp), %eax	# i, tmp103
	addl	%eax, %eax	# D.6011
	leal	1(%rax), %edx	#, D.6011
	movq	-80(%rbp), %rax	# len, tmp104
	movl	%edx, (%rax)	# D.6011, *len_6(D)
	.loc 1 348 0
	cvtsi2sd	-52(%rbp), %xmm0	# i, D.6012
	movabsq	$4611686018427387904, %rax	#, tmp105
	movapd	%xmm0, %xmm1	# D.6012,
	movq	%rax, -96(%rbp)	# tmp105, %sfp
	movsd	-96(%rbp), %xmm0	# %sfp,
	call	pow	#
	cvttsd2si	%xmm0, %eax	# D.6012, D.6011
	movl	-48(%rbp), %edx	# n, tmp106
	subl	%eax, %edx	# D.6011, D.6011
	movl	-44(%rbp), %eax	# sign, tmp107
	addl	%eax, %edx	# tmp107, D.6011
	movq	-88(%rbp), %rax	# info, tmp108
	movl	%edx, (%rax)	# D.6011, *info_31(D)
.L20:
	.loc 1 349 0
	leave
	.cfi_def_cfa 7, 8
	ret
	.cfi_endproc
.LFE10:
	.size	levrun_linfo_c2x2, .-levrun_linfo_c2x2
	.globl	levrun_linfo_inter
	.type	levrun_linfo_inter, @function
levrun_linfo_inter:
.LFB11:
	.loc 1 365 0
	.cfi_startproc
	pushq	%rbp	#
	.cfi_def_cfa_offset 16
	.cfi_offset 6, -16
	movq	%rsp, %rbp	#,
	.cfi_def_cfa_register 6
	subq	$144, %rsp	#,
	movl	%edi, -116(%rbp)	# level, level
	movl	%esi, -120(%rbp)	# run, run
	movq	%rdx, -128(%rbp)	# len, len
	movq	%rcx, -136(%rbp)	# info, info
	.loc 1 365 0
	movq	%fs:40, %rax	#, tmp115
	movq	%rax, -8(%rbp)	# tmp115, D.6016
	xorl	%eax, %eax	# tmp115
	.loc 1 366 0
	movb	$4, -32(%rbp)	#, LEVRUN
	movb	$2, -31(%rbp)	#, LEVRUN
	movb	$2, -30(%rbp)	#, LEVRUN
	movb	$1, -29(%rbp)	#, LEVRUN
	movb	$1, -28(%rbp)	#, LEVRUN
	movb	$1, -27(%rbp)	#, LEVRUN
	movb	$1, -26(%rbp)	#, LEVRUN
	movb	$1, -25(%rbp)	#, LEVRUN
	movb	$1, -24(%rbp)	#, LEVRUN
	movb	$1, -23(%rbp)	#, LEVRUN
	movb	$0, -22(%rbp)	#, LEVRUN
	movb	$0, -21(%rbp)	#, LEVRUN
	movb	$0, -20(%rbp)	#, LEVRUN
	movb	$0, -19(%rbp)	#, LEVRUN
	movb	$0, -18(%rbp)	#, LEVRUN
	movb	$0, -17(%rbp)	#, LEVRUN
	.loc 1 370 0
	movb	$1, -80(%rbp)	#, NTAB
	movb	$3, -79(%rbp)	#, NTAB
	movb	$5, -78(%rbp)	#, NTAB
	movb	$9, -77(%rbp)	#, NTAB
	movb	$11, -76(%rbp)	#, NTAB
	movb	$13, -75(%rbp)	#, NTAB
	movb	$21, -74(%rbp)	#, NTAB
	movb	$23, -73(%rbp)	#, NTAB
	movb	$25, -72(%rbp)	#, NTAB
	movb	$27, -71(%rbp)	#, NTAB
	movb	$7, -70(%rbp)	#, NTAB
	movb	$17, -69(%rbp)	#, NTAB
	movb	$19, -68(%rbp)	#, NTAB
	movb	$0, -67(%rbp)	#, NTAB
	movb	$0, -66(%rbp)	#, NTAB
	movb	$0, -65(%rbp)	#, NTAB
	movb	$0, -64(%rbp)	#, NTAB
	movb	$0, -63(%rbp)	#, NTAB
	movb	$0, -62(%rbp)	#, NTAB
	movb	$0, -61(%rbp)	#, NTAB
	movb	$15, -60(%rbp)	#, NTAB
	movb	$0, -59(%rbp)	#, NTAB
	movb	$0, -58(%rbp)	#, NTAB
	movb	$0, -57(%rbp)	#, NTAB
	movb	$0, -56(%rbp)	#, NTAB
	movb	$0, -55(%rbp)	#, NTAB
	movb	$0, -54(%rbp)	#, NTAB
	movb	$0, -53(%rbp)	#, NTAB
	movb	$0, -52(%rbp)	#, NTAB
	movb	$0, -51(%rbp)	#, NTAB
	movb	$29, -50(%rbp)	#, NTAB
	movb	$0, -49(%rbp)	#, NTAB
	movb	$0, -48(%rbp)	#, NTAB
	movb	$0, -47(%rbp)	#, NTAB
	movb	$0, -46(%rbp)	#, NTAB
	movb	$0, -45(%rbp)	#, NTAB
	movb	$0, -44(%rbp)	#, NTAB
	movb	$0, -43(%rbp)	#, NTAB
	movb	$0, -42(%rbp)	#, NTAB
	movb	$0, -41(%rbp)	#, NTAB
	.loc 1 380 0
	cmpl	$0, -116(%rbp)	#, level
	jne	.L30	#,
	.loc 1 382 0
	movq	-128(%rbp), %rax	# len, tmp76
	movl	$1, (%rax)	#, *len_6(D)
	jmp	.L29	#
.L30:
	.loc 1 386 0
	cmpl	$0, -116(%rbp)	#, level
	jg	.L32	#,
	.loc 1 387 0
	movl	$1, -92(%rbp)	#, sign
	jmp	.L33	#
.L32:
	.loc 1 389 0
	movl	$0, -92(%rbp)	#, sign
.L33:
	.loc 1 391 0
	movl	-116(%rbp), %eax	# level, tmp78
	sarl	$31, %eax	#, tmp77
	movl	%eax, %edx	# tmp77, tmp80
	xorl	-116(%rbp), %edx	# level, tmp80
	subl	%eax, %edx	# tmp77, tmp81
	movl	%edx, %eax	# tmp81, tmp81
	movl	%eax, -84(%rbp)	# tmp81, levabs
	.loc 1 392 0
	movl	-120(%rbp), %eax	# run, tmp83
	cltq
	movzbl	-32(%rbp,%rax), %eax	# LEVRUN, D.6013
	movzbl	%al, %eax	# D.6013, D.6014
	cmpl	-84(%rbp), %eax	# levabs, D.6014
	jl	.L34	#,
	.loc 1 394 0
	movl	-84(%rbp), %eax	# levabs, tmp84
	leal	-1(%rax), %edx	#, D.6014
	movl	-120(%rbp), %eax	# run, tmp86
	movslq	%eax, %rcx	# tmp86, tmp85
	movslq	%edx, %rdx	# D.6014, tmp87
	movq	%rdx, %rax	# tmp87, tmp88
	salq	$2, %rax	#, tmp88
	addq	%rdx, %rax	# tmp87, tmp88
	addq	%rax, %rax	# tmp89
	addq	%rbp, %rax	#, tmp90
	addq	%rcx, %rax	# tmp85, tmp91
	subq	$80, %rax	#, tmp92
	movzbl	(%rax), %eax	# NTAB, D.6013
	movzbl	%al, %eax	# D.6013, D.6014
	addl	$1, %eax	#, tmp93
	movl	%eax, -96(%rbp)	# tmp93, n
	jmp	.L35	#
.L34:
	.loc 1 398 0
	movl	-120(%rbp), %eax	# run, tmp95
	cltq
	movzbl	-32(%rbp,%rax), %eax	# LEVRUN, D.6013
	movzbl	%al, %eax	# D.6013, D.6014
	movl	-84(%rbp), %edx	# levabs, tmp96
	subl	%eax, %edx	# D.6014, D.6014
	movl	%edx, %eax	# D.6014, D.6014
	sall	$4, %eax	#, D.6014
	movl	%eax, %edx	# D.6014, D.6014
	movl	-120(%rbp), %eax	# run, tmp97
	addl	%edx, %eax	# D.6014, D.6014
	addl	%eax, %eax	# tmp98
	movl	%eax, -96(%rbp)	# tmp98, n
.L35:
	.loc 1 401 0
	movl	-96(%rbp), %eax	# n, tmp100
	movl	%eax, %edx	# tmp100, tmp101
	shrl	$31, %edx	#, tmp101
	addl	%edx, %eax	# tmp101, tmp102
	sarl	%eax	# tmp103
	movl	%eax, -88(%rbp)	# tmp103, nn
	.loc 1 403 0
	movl	$0, -100(%rbp)	#, i
	jmp	.L36	#
.L38:
	.loc 1 405 0 discriminator 1
	movl	-88(%rbp), %eax	# nn, tmp105
	movl	%eax, %edx	# tmp105, tmp106
	shrl	$31, %edx	#, tmp106
	addl	%edx, %eax	# tmp106, tmp107
	sarl	%eax	# tmp108
	movl	%eax, -88(%rbp)	# tmp108, nn
	.loc 1 403 0 discriminator 1
	addl	$1, -100(%rbp)	#, i
.L36:
	cmpl	$15, -100(%rbp)	#, i
	jg	.L37	#,
	.loc 1 403 0 is_stmt 0 discriminator 2
	cmpl	$0, -88(%rbp)	#, nn
	jne	.L38	#,
.L37:
	.loc 1 407 0 is_stmt 1
	movl	-100(%rbp), %eax	# i, tmp109
	addl	%eax, %eax	# D.6014
	leal	1(%rax), %edx	#, D.6014
	movq	-128(%rbp), %rax	# len, tmp110
	movl	%edx, (%rax)	# D.6014, *len_6(D)
	.loc 1 408 0
	cvtsi2sd	-100(%rbp), %xmm0	# i, D.6015
	movabsq	$4611686018427387904, %rax	#, tmp111
	movapd	%xmm0, %xmm1	# D.6015,
	movq	%rax, -144(%rbp)	# tmp111, %sfp
	movsd	-144(%rbp), %xmm0	# %sfp,
	call	pow	#
	cvttsd2si	%xmm0, %eax	# D.6015, D.6014
	movl	-96(%rbp), %edx	# n, tmp112
	subl	%eax, %edx	# D.6014, D.6014
	movl	-92(%rbp), %eax	# sign, tmp113
	addl	%eax, %edx	# tmp113, D.6014
	movq	-136(%rbp), %rax	# info, tmp114
	movl	%edx, (%rax)	# D.6014, *info_34(D)
.L29:
	.loc 1 410 0
	movq	-8(%rbp), %rax	# D.6016, tmp116
	xorq	%fs:40, %rax	#, tmp116
	je	.L39	#,
	call	__stack_chk_fail	#
.L39:
	leave
	.cfi_def_cfa 7, 8
	ret
	.cfi_endproc
.LFE11:
	.size	levrun_linfo_inter, .-levrun_linfo_inter
	.globl	levrun_linfo_intra
	.type	levrun_linfo_intra, @function
levrun_linfo_intra:
.LFB12:
	.loc 1 426 0
	.cfi_startproc
	pushq	%rbp	#
	.cfi_def_cfa_offset 16
	.cfi_offset 6, -16
	movq	%rsp, %rbp	#,
	.cfi_def_cfa_register 6
	addq	$-128, %rsp	#,
	movl	%edi, -100(%rbp)	# level, level
	movl	%esi, -104(%rbp)	# run, run
	movq	%rdx, -112(%rbp)	# len, len
	movq	%rcx, -120(%rbp)	# info, info
	.loc 1 426 0
	movq	%fs:40, %rax	#, tmp115
	movq	%rax, -8(%rbp)	# tmp115, D.6022
	xorl	%eax, %eax	# tmp115
	.loc 1 427 0
	movb	$9, -16(%rbp)	#, LEVRUN
	movb	$3, -15(%rbp)	#, LEVRUN
	movb	$1, -14(%rbp)	#, LEVRUN
	movb	$1, -13(%rbp)	#, LEVRUN
	movb	$1, -12(%rbp)	#, LEVRUN
	movb	$0, -11(%rbp)	#, LEVRUN
	movb	$0, -10(%rbp)	#, LEVRUN
	movb	$0, -9(%rbp)	#, LEVRUN
	.loc 1 432 0
	movb	$1, -64(%rbp)	#, NTAB
	movb	$3, -63(%rbp)	#, NTAB
	movb	$7, -62(%rbp)	#, NTAB
	movb	$15, -61(%rbp)	#, NTAB
	movb	$17, -60(%rbp)	#, NTAB
	movb	$5, -59(%rbp)	#, NTAB
	movb	$19, -58(%rbp)	#, NTAB
	movb	$0, -57(%rbp)	#, NTAB
	movb	$0, -56(%rbp)	#, NTAB
	movb	$0, -55(%rbp)	#, NTAB
	movb	$9, -54(%rbp)	#, NTAB
	movb	$21, -53(%rbp)	#, NTAB
	movb	$0, -52(%rbp)	#, NTAB
	movb	$0, -51(%rbp)	#, NTAB
	movb	$0, -50(%rbp)	#, NTAB
	movb	$11, -49(%rbp)	#, NTAB
	movb	$0, -48(%rbp)	#, NTAB
	movb	$0, -47(%rbp)	#, NTAB
	movb	$0, -46(%rbp)	#, NTAB
	movb	$0, -45(%rbp)	#, NTAB
	movb	$13, -44(%rbp)	#, NTAB
	movb	$0, -43(%rbp)	#, NTAB
	movb	$0, -42(%rbp)	#, NTAB
	movb	$0, -41(%rbp)	#, NTAB
	movb	$0, -40(%rbp)	#, NTAB
	movb	$23, -39(%rbp)	#, NTAB
	movb	$0, -38(%rbp)	#, NTAB
	movb	$0, -37(%rbp)	#, NTAB
	movb	$0, -36(%rbp)	#, NTAB
	movb	$0, -35(%rbp)	#, NTAB
	movb	$25, -34(%rbp)	#, NTAB
	movb	$0, -33(%rbp)	#, NTAB
	movb	$0, -32(%rbp)	#, NTAB
	movb	$0, -31(%rbp)	#, NTAB
	movb	$0, -30(%rbp)	#, NTAB
	movb	$27, -29(%rbp)	#, NTAB
	movb	$0, -28(%rbp)	#, NTAB
	movb	$0, -27(%rbp)	#, NTAB
	movb	$0, -26(%rbp)	#, NTAB
	movb	$0, -25(%rbp)	#, NTAB
	movb	$29, -24(%rbp)	#, NTAB
	movb	$0, -23(%rbp)	#, NTAB
	movb	$0, -22(%rbp)	#, NTAB
	movb	$0, -21(%rbp)	#, NTAB
	movb	$0, -20(%rbp)	#, NTAB
	.loc 1 447 0
	cmpl	$0, -100(%rbp)	#, level
	jne	.L41	#,
	.loc 1 449 0
	movq	-112(%rbp), %rax	# len, tmp77
	movl	$1, (%rax)	#, *len_6(D)
	jmp	.L40	#
.L41:
	.loc 1 452 0
	cmpl	$0, -100(%rbp)	#, level
	jg	.L43	#,
	.loc 1 453 0
	movl	$1, -76(%rbp)	#, sign
	jmp	.L44	#
.L43:
	.loc 1 455 0
	movl	$0, -76(%rbp)	#, sign
.L44:
	.loc 1 457 0
	movl	-100(%rbp), %eax	# level, tmp79
	sarl	$31, %eax	#, tmp78
	movl	%eax, %edx	# tmp78, tmp81
	xorl	-100(%rbp), %edx	# level, tmp81
	subl	%eax, %edx	# tmp78, tmp82
	movl	%edx, %eax	# tmp82, tmp82
	movl	%eax, -68(%rbp)	# tmp82, levabs
	.loc 1 458 0
	movl	-104(%rbp), %eax	# run, tmp84
	cltq
	movzbl	-16(%rbp,%rax), %eax	# LEVRUN, D.6019
	movzbl	%al, %eax	# D.6019, D.6020
	cmpl	-68(%rbp), %eax	# levabs, D.6020
	jl	.L45	#,
	.loc 1 460 0
	movl	-68(%rbp), %eax	# levabs, tmp85
	leal	-1(%rax), %edx	#, D.6020
	movl	-104(%rbp), %eax	# run, tmp87
	movslq	%eax, %rcx	# tmp87, tmp86
	movslq	%edx, %rdx	# D.6020, tmp88
	movq	%rdx, %rax	# tmp88, tmp89
	salq	$2, %rax	#, tmp89
	addq	%rdx, %rax	# tmp88, tmp89
	addq	%rbp, %rax	#, tmp90
	addq	%rcx, %rax	# tmp86, tmp91
	subq	$64, %rax	#, tmp92
	movzbl	(%rax), %eax	# NTAB, D.6019
	movzbl	%al, %eax	# D.6019, D.6020
	addl	$1, %eax	#, tmp93
	movl	%eax, -80(%rbp)	# tmp93, n
	jmp	.L46	#
.L45:
	.loc 1 464 0
	movl	-104(%rbp), %eax	# run, tmp95
	cltq
	movzbl	-16(%rbp,%rax), %eax	# LEVRUN, D.6019
	movzbl	%al, %eax	# D.6019, D.6020
	movl	-68(%rbp), %edx	# levabs, tmp96
	subl	%eax, %edx	# D.6020, D.6020
	movl	%edx, %eax	# D.6020, D.6020
	addl	$1, %eax	#, D.6020
	leal	0(,%rax,8), %edx	#, D.6020
	movl	-104(%rbp), %eax	# run, tmp97
	addl	%edx, %eax	# D.6020, D.6020
	addl	%eax, %eax	# tmp98
	movl	%eax, -80(%rbp)	# tmp98, n
.L46:
	.loc 1 467 0
	movl	-80(%rbp), %eax	# n, tmp100
	movl	%eax, %edx	# tmp100, tmp101
	shrl	$31, %edx	#, tmp101
	addl	%edx, %eax	# tmp101, tmp102
	sarl	%eax	# tmp103
	movl	%eax, -72(%rbp)	# tmp103, nn
	.loc 1 469 0
	movl	$0, -84(%rbp)	#, i
	jmp	.L47	#
.L49:
	.loc 1 471 0 discriminator 1
	movl	-72(%rbp), %eax	# nn, tmp105
	movl	%eax, %edx	# tmp105, tmp106
	shrl	$31, %edx	#, tmp106
	addl	%edx, %eax	# tmp106, tmp107
	sarl	%eax	# tmp108
	movl	%eax, -72(%rbp)	# tmp108, nn
	.loc 1 469 0 discriminator 1
	addl	$1, -84(%rbp)	#, i
.L47:
	cmpl	$15, -84(%rbp)	#, i
	jg	.L48	#,
	.loc 1 469 0 is_stmt 0 discriminator 2
	cmpl	$0, -72(%rbp)	#, nn
	jne	.L49	#,
.L48:
	.loc 1 473 0 is_stmt 1
	movl	-84(%rbp), %eax	# i, tmp109
	addl	%eax, %eax	# D.6020
	leal	1(%rax), %edx	#, D.6020
	movq	-112(%rbp), %rax	# len, tmp110
	movl	%edx, (%rax)	# D.6020, *len_6(D)
	.loc 1 474 0
	cvtsi2sd	-84(%rbp), %xmm0	# i, D.6021
	movabsq	$4611686018427387904, %rax	#, tmp111
	movapd	%xmm0, %xmm1	# D.6021,
	movq	%rax, -128(%rbp)	# tmp111, %sfp
	movsd	-128(%rbp), %xmm0	# %sfp,
	call	pow	#
	cvttsd2si	%xmm0, %eax	# D.6021, D.6020
	movl	-80(%rbp), %edx	# n, tmp112
	subl	%eax, %edx	# D.6020, D.6020
	movl	-76(%rbp), %eax	# sign, tmp113
	addl	%eax, %edx	# tmp113, D.6020
	movq	-120(%rbp), %rax	# info, tmp114
	movl	%edx, (%rax)	# D.6020, *info_35(D)
.L40:
	.loc 1 475 0
	movq	-8(%rbp), %rax	# D.6022, tmp116
	xorq	%fs:40, %rax	#, tmp116
	je	.L50	#,
	call	__stack_chk_fail	#
.L50:
	leave
	.cfi_def_cfa 7, 8
	ret
	.cfi_endproc
.LFE12:
	.size	levrun_linfo_intra, .-levrun_linfo_intra
	.globl	symbol2uvlc
	.type	symbol2uvlc, @function
symbol2uvlc:
.LFB13:
	.loc 1 491 0
	.cfi_startproc
	pushq	%rbp	#
	.cfi_def_cfa_offset 16
	.cfi_offset 6, -16
	movq	%rsp, %rbp	#,
	.cfi_def_cfa_register 6
	movq	%rdi, -24(%rbp)	# sym, sym
	.loc 1 492 0
	movq	-24(%rbp), %rax	# sym, tmp69
	movl	12(%rax), %eax	# sym_1(D)->len, D.6023
	movl	%eax, %edx	# D.6023, tmp70
	shrl	$31, %edx	#, tmp70
	addl	%edx, %eax	# tmp70, tmp71
	sarl	%eax	# tmp72
	movl	%eax, -4(%rbp)	# tmp72, suffix_len
	.loc 1 493 0
	movl	-4(%rbp), %eax	# suffix_len, tmp73
	movl	$1, %edx	#, tmp74
	movl	%edx, %edi	# tmp74, D.6023
	movl	%eax, %ecx	# tmp73, tmp82
	sall	%cl, %edi	# tmp82, D.6023
	movq	-24(%rbp), %rax	# sym, tmp75
	movl	16(%rax), %edx	# sym_1(D)->inf, D.6023
	movl	-4(%rbp), %eax	# suffix_len, tmp76
	movl	$1, %esi	#, tmp77
	movl	%eax, %ecx	# tmp76, tmp84
	sall	%cl, %esi	# tmp84, D.6023
	movl	%esi, %eax	# D.6023, D.6023
	subl	$1, %eax	#, D.6023
	andl	%edx, %eax	# D.6023, D.6023
	orl	%edi, %eax	# D.6023, D.6023
	movl	%eax, %edx	# D.6023, D.6024
	movq	-24(%rbp), %rax	# sym, tmp78
	movl	%edx, 20(%rax)	# D.6024, sym_1(D)->bitpattern
	.loc 1 494 0
	movl	$0, %eax	#, D.6023
	.loc 1 495 0
	popq	%rbp	#
	.cfi_def_cfa 7, 8
	ret
	.cfi_endproc
.LFE13:
	.size	symbol2uvlc, .-symbol2uvlc
	.globl	writeSyntaxElement_UVLC
	.type	writeSyntaxElement_UVLC, @function
writeSyntaxElement_UVLC:
.LFB14:
	.loc 1 505 0
	.cfi_startproc
	pushq	%rbp	#
	.cfi_def_cfa_offset 16
	.cfi_offset 6, -16
	movq	%rsp, %rbp	#,
	.cfi_def_cfa_register 6
	subq	$16, %rsp	#,
	movq	%rdi, -8(%rbp)	# se, se
	movq	%rsi, -16(%rbp)	# this_dataPart, this_dataPart
	.loc 1 506 0
	movq	-8(%rbp), %rax	# se, tmp69
	movq	32(%rax), %rax	# se_1(D)->mapping, D.6025
	movq	-8(%rbp), %rdx	# se, tmp70
	leaq	16(%rdx), %rcx	#, D.6026
	movq	-8(%rbp), %rdx	# se, tmp71
	leaq	12(%rdx), %r8	#, D.6026
	movq	-8(%rbp), %rdx	# se, tmp72
	movl	8(%rdx), %esi	# se_1(D)->value2, D.6027
	movq	-8(%rbp), %rdx	# se, tmp73
	movl	4(%rdx), %edi	# se_1(D)->value1, D.6027
	movq	%r8, %rdx	# D.6026,
	call	*%rax	# D.6025
	.loc 1 507 0
	movq	-8(%rbp), %rax	# se, tmp74
	movq	%rax, %rdi	# tmp74,
	call	symbol2uvlc	#
	.loc 1 509 0
	movq	-16(%rbp), %rax	# this_dataPart, tmp75
	movq	(%rax), %rdx	# this_dataPart_7(D)->bitstream, D.6028
	movq	-8(%rbp), %rax	# se, tmp76
	movq	%rdx, %rsi	# D.6028,
	movq	%rax, %rdi	# tmp76,
	call	writeUVLC2buffer	#
	.loc 1 511 0
	movq	-8(%rbp), %rax	# se, tmp77
	movl	(%rax), %eax	# se_1(D)->type, D.6027
	testl	%eax, %eax	# D.6027
	je	.L54	#,
	.loc 1 512 0
	movq	-16(%rbp), %rax	# this_dataPart, tmp78
	movq	(%rax), %rax	# this_dataPart_7(D)->bitstream, D.6028
	movl	$1, 40(%rax)	#, _10->write_flag
.L54:
	.loc 1 519 0
	movq	-8(%rbp), %rax	# se, tmp79
	movl	12(%rax), %eax	# se_1(D)->len, D.6027
	.loc 1 520 0
	leave
	.cfi_def_cfa 7, 8
	ret
	.cfi_endproc
.LFE14:
	.size	writeSyntaxElement_UVLC, .-writeSyntaxElement_UVLC
	.globl	writeSyntaxElement_fixed
	.type	writeSyntaxElement_fixed, @function
writeSyntaxElement_fixed:
.LFB15:
	.loc 1 530 0
	.cfi_startproc
	pushq	%rbp	#
	.cfi_def_cfa_offset 16
	.cfi_offset 6, -16
	movq	%rsp, %rbp	#,
	.cfi_def_cfa_register 6
	subq	$16, %rsp	#,
	movq	%rdi, -8(%rbp)	# se, se
	movq	%rsi, -16(%rbp)	# this_dataPart, this_dataPart
	.loc 1 531 0
	movq	-16(%rbp), %rax	# this_dataPart, tmp64
	movq	(%rax), %rdx	# this_dataPart_1(D)->bitstream, D.6029
	movq	-8(%rbp), %rax	# se, tmp65
	movq	%rdx, %rsi	# D.6029,
	movq	%rax, %rdi	# tmp65,
	call	writeUVLC2buffer	#
	.loc 1 533 0
	movq	-8(%rbp), %rax	# se, tmp66
	movl	(%rax), %eax	# se_3(D)->type, D.6030
	testl	%eax, %eax	# D.6030
	je	.L57	#,
	.loc 1 534 0
	movq	-16(%rbp), %rax	# this_dataPart, tmp67
	movq	(%rax), %rax	# this_dataPart_1(D)->bitstream, D.6029
	movl	$1, 40(%rax)	#, _5->write_flag
.L57:
	.loc 1 541 0
	movq	-8(%rbp), %rax	# se, tmp68
	movl	12(%rax), %eax	# se_3(D)->len, D.6030
	.loc 1 542 0
	leave
	.cfi_def_cfa 7, 8
	ret
	.cfi_endproc
.LFE15:
	.size	writeSyntaxElement_fixed, .-writeSyntaxElement_fixed
	.globl	writeSyntaxElement_Intra4x4PredictionMode
	.type	writeSyntaxElement_Intra4x4PredictionMode, @function
writeSyntaxElement_Intra4x4PredictionMode:
.LFB16:
	.loc 1 552 0
	.cfi_startproc
	pushq	%rbp	#
	.cfi_def_cfa_offset 16
	.cfi_offset 6, -16
	movq	%rsp, %rbp	#,
	.cfi_def_cfa_register 6
	subq	$16, %rsp	#,
	movq	%rdi, -8(%rbp)	# se, se
	movq	%rsi, -16(%rbp)	# this_dataPart, this_dataPart
	.loc 1 554 0
	movq	-8(%rbp), %rax	# se, tmp68
	movl	4(%rax), %eax	# se_1(D)->value1, D.6031
	cmpl	$-1, %eax	#, D.6031
	jne	.L60	#,
	.loc 1 556 0
	movq	-8(%rbp), %rax	# se, tmp69
	movl	$1, 12(%rax)	#, se_1(D)->len
	.loc 1 557 0
	movq	-8(%rbp), %rax	# se, tmp70
	movl	$1, 16(%rax)	#, se_1(D)->inf
	jmp	.L61	#
.L60:
	.loc 1 561 0
	movq	-8(%rbp), %rax	# se, tmp71
	movl	$4, 12(%rax)	#, se_1(D)->len
	.loc 1 562 0
	movq	-8(%rbp), %rax	# se, tmp72
	movl	4(%rax), %edx	# se_1(D)->value1, D.6031
	movq	-8(%rbp), %rax	# se, tmp73
	movl	%edx, 16(%rax)	# D.6031, se_1(D)->inf
.L61:
	.loc 1 565 0
	movq	-8(%rbp), %rax	# se, tmp74
	movl	16(%rax), %eax	# se_1(D)->inf, D.6031
	movl	%eax, %edx	# D.6031, D.6032
	movq	-8(%rbp), %rax	# se, tmp75
	movl	%edx, 20(%rax)	# D.6032, se_1(D)->bitpattern
	.loc 1 566 0
	movq	-16(%rbp), %rax	# this_dataPart, tmp76
	movq	(%rax), %rdx	# this_dataPart_6(D)->bitstream, D.6033
	movq	-8(%rbp), %rax	# se, tmp77
	movq	%rdx, %rsi	# D.6033,
	movq	%rax, %rdi	# tmp77,
	call	writeUVLC2buffer	#
	.loc 1 568 0
	movq	-8(%rbp), %rax	# se, tmp78
	movl	(%rax), %eax	# se_1(D)->type, D.6031
	testl	%eax, %eax	# D.6031
	je	.L62	#,
	.loc 1 569 0
	movq	-16(%rbp), %rax	# this_dataPart, tmp79
	movq	(%rax), %rax	# this_dataPart_6(D)->bitstream, D.6033
	movl	$1, 40(%rax)	#, _9->write_flag
.L62:
	.loc 1 576 0
	movq	-8(%rbp), %rax	# se, tmp80
	movl	12(%rax), %eax	# se_1(D)->len, D.6031
	.loc 1 577 0
	leave
	.cfi_def_cfa 7, 8
	ret
	.cfi_endproc
.LFE16:
	.size	writeSyntaxElement_Intra4x4PredictionMode, .-writeSyntaxElement_Intra4x4PredictionMode
	.globl	writeSyntaxElement2Buf_UVLC
	.type	writeSyntaxElement2Buf_UVLC, @function
writeSyntaxElement2Buf_UVLC:
.LFB17:
	.loc 1 589 0
	.cfi_startproc
	pushq	%rbp	#
	.cfi_def_cfa_offset 16
	.cfi_offset 6, -16
	movq	%rsp, %rbp	#,
	.cfi_def_cfa_register 6
	subq	$16, %rsp	#,
	movq	%rdi, -8(%rbp)	# se, se
	movq	%rsi, -16(%rbp)	# this_streamBuffer, this_streamBuffer
	.loc 1 591 0
	movq	-8(%rbp), %rax	# se, tmp66
	movq	32(%rax), %rax	# se_1(D)->mapping, D.6034
	movq	-8(%rbp), %rdx	# se, tmp67
	leaq	16(%rdx), %rcx	#, D.6035
	movq	-8(%rbp), %rdx	# se, tmp68
	leaq	12(%rdx), %r8	#, D.6035
	movq	-8(%rbp), %rdx	# se, tmp69
	movl	8(%rdx), %esi	# se_1(D)->value2, D.6036
	movq	-8(%rbp), %rdx	# se, tmp70
	movl	4(%rdx), %edi	# se_1(D)->value1, D.6036
	movq	%r8, %rdx	# D.6035,
	call	*%rax	# D.6034
	.loc 1 593 0
	movq	-8(%rbp), %rax	# se, tmp71
	movq	%rax, %rdi	# tmp71,
	call	symbol2uvlc	#
	.loc 1 595 0
	movq	-16(%rbp), %rdx	# this_streamBuffer, tmp72
	movq	-8(%rbp), %rax	# se, tmp73
	movq	%rdx, %rsi	# tmp72,
	movq	%rax, %rdi	# tmp73,
	call	writeUVLC2buffer	#
	.loc 1 602 0
	movq	-8(%rbp), %rax	# se, tmp74
	movl	12(%rax), %eax	# se_1(D)->len, D.6036
	.loc 1 603 0
	leave
	.cfi_def_cfa 7, 8
	ret
	.cfi_endproc
.LFE17:
	.size	writeSyntaxElement2Buf_UVLC, .-writeSyntaxElement2Buf_UVLC
	.globl	writeUVLC2buffer
	.type	writeUVLC2buffer, @function
writeUVLC2buffer:
.LFB18:
	.loc 1 613 0
	.cfi_startproc
	pushq	%rbp	#
	.cfi_def_cfa_offset 16
	.cfi_offset 6, -16
	movq	%rsp, %rbp	#,
	.cfi_def_cfa_register 6
	movq	%rdi, -24(%rbp)	# se, se
	movq	%rsi, -32(%rbp)	# currStream, currStream
	.loc 1 616 0
	movq	-24(%rbp), %rax	# se, tmp78
	movl	12(%rax), %eax	# se_3(D)->len, D.6037
	subl	$1, %eax	#, D.6037
	movl	$1, %edx	#, tmp79
	movl	%eax, %ecx	# D.6037, tmp96
	sall	%cl, %edx	# tmp96, D.6037
	movl	%edx, %eax	# D.6037, D.6037
	movl	%eax, -4(%rbp)	# D.6037, mask
	.loc 1 620 0
	movl	$0, -8(%rbp)	#, i
	jmp	.L67	#
.L70:
	.loc 1 622 0
	movq	-32(%rbp), %rax	# currStream, tmp80
	movzbl	8(%rax), %eax	# currStream_10(D)->byte_buf, D.6038
	leal	(%rax,%rax), %edx	#, D.6038
	movq	-32(%rbp), %rax	# currStream, tmp81
	movb	%dl, 8(%rax)	# D.6038, currStream_10(D)->byte_buf
	.loc 1 623 0
	movq	-24(%rbp), %rax	# se, tmp82
	movl	20(%rax), %eax	# se_3(D)->bitpattern, D.6039
	andl	-4(%rbp), %eax	# mask, D.6039
	testl	%eax, %eax	# D.6039
	je	.L68	#,
	.loc 1 624 0
	movq	-32(%rbp), %rax	# currStream, tmp83
	movzbl	8(%rax), %eax	# currStream_10(D)->byte_buf, D.6038
	orl	$1, %eax	#, D.6038
	movl	%eax, %edx	# D.6038, D.6038
	movq	-32(%rbp), %rax	# currStream, tmp84
	movb	%dl, 8(%rax)	# D.6038, currStream_10(D)->byte_buf
.L68:
	.loc 1 625 0
	movq	-32(%rbp), %rax	# currStream, tmp85
	movl	4(%rax), %eax	# currStream_10(D)->bits_to_go, D.6037
	leal	-1(%rax), %edx	#, D.6037
	movq	-32(%rbp), %rax	# currStream, tmp86
	movl	%edx, 4(%rax)	# D.6037, currStream_10(D)->bits_to_go
	.loc 1 626 0
	shrl	-4(%rbp)	# mask
	.loc 1 627 0
	movq	-32(%rbp), %rax	# currStream, tmp87
	movl	4(%rax), %eax	# currStream_10(D)->bits_to_go, D.6037
	testl	%eax, %eax	# D.6037
	jne	.L69	#,
	.loc 1 629 0
	movq	-32(%rbp), %rax	# currStream, tmp88
	movl	$8, 4(%rax)	#, currStream_10(D)->bits_to_go
	.loc 1 630 0
	movq	-32(%rbp), %rax	# currStream, tmp89
	movq	32(%rax), %rsi	# currStream_10(D)->streamBuffer, D.6040
	movq	-32(%rbp), %rax	# currStream, tmp90
	movl	(%rax), %eax	# currStream_10(D)->byte_pos, D.6037
	leal	1(%rax), %ecx	#, D.6037
	movq	-32(%rbp), %rdx	# currStream, tmp91
	movl	%ecx, (%rdx)	# D.6037, currStream_10(D)->byte_pos
	cltq
	leaq	(%rsi,%rax), %rdx	#, D.6040
	movq	-32(%rbp), %rax	# currStream, tmp92
	movzbl	8(%rax), %eax	# currStream_10(D)->byte_buf, D.6038
	movb	%al, (%rdx)	# D.6038, *_26
	.loc 1 631 0
	movq	-32(%rbp), %rax	# currStream, tmp93
	movb	$0, 8(%rax)	#, currStream_10(D)->byte_buf
.L69:
	.loc 1 620 0
	addl	$1, -8(%rbp)	#, i
.L67:
	.loc 1 620 0 is_stmt 0 discriminator 1
	movq	-24(%rbp), %rax	# se, tmp94
	movl	12(%rax), %eax	# se_3(D)->len, D.6037
	cmpl	-8(%rbp), %eax	# i, D.6037
	jg	.L70	#,
	.loc 1 634 0 is_stmt 1
	popq	%rbp	#
	.cfi_def_cfa 7, 8
	ret
	.cfi_endproc
.LFE18:
	.size	writeUVLC2buffer, .-writeUVLC2buffer
	.globl	writeSyntaxElement2Buf_Fixed
	.type	writeSyntaxElement2Buf_Fixed, @function
writeSyntaxElement2Buf_Fixed:
.LFB19:
	.loc 1 646 0
	.cfi_startproc
	pushq	%rbp	#
	.cfi_def_cfa_offset 16
	.cfi_offset 6, -16
	movq	%rsp, %rbp	#,
	.cfi_def_cfa_register 6
	subq	$16, %rsp	#,
	movq	%rdi, -8(%rbp)	# se, se
	movq	%rsi, -16(%rbp)	# this_streamBuffer, this_streamBuffer
	.loc 1 648 0
	movq	-16(%rbp), %rdx	# this_streamBuffer, tmp61
	movq	-8(%rbp), %rax	# se, tmp62
	movq	%rdx, %rsi	# tmp61,
	movq	%rax, %rdi	# tmp62,
	call	writeUVLC2buffer	#
	.loc 1 655 0
	movq	-8(%rbp), %rax	# se, tmp63
	movl	12(%rax), %eax	# se_1(D)->len, D.6042
	.loc 1 656 0
	leave
	.cfi_def_cfa 7, 8
	ret
	.cfi_endproc
.LFE19:
	.size	writeSyntaxElement2Buf_Fixed, .-writeSyntaxElement2Buf_Fixed
	.globl	symbol2vlc
	.type	symbol2vlc, @function
symbol2vlc:
.LFB20:
	.loc 1 671 0
	.cfi_startproc
	pushq	%rbp	#
	.cfi_def_cfa_offset 16
	.cfi_offset 6, -16
	movq	%rsp, %rbp	#,
	.cfi_def_cfa_register 6
	movq	%rdi, -24(%rbp)	# sym, sym
	.loc 1 672 0
	movq	-24(%rbp), %rax	# sym, tmp69
	movl	12(%rax), %eax	# sym_2(D)->len, tmp70
	movl	%eax, -4(%rbp)	# tmp70, info_len
	.loc 1 675 0
	movq	-24(%rbp), %rax	# sym, tmp71
	movl	$0, 20(%rax)	#, sym_2(D)->bitpattern
	.loc 1 678 0
	jmp	.L74	#
.L75:
	.loc 1 680 0
	movq	-24(%rbp), %rax	# sym, tmp72
	movl	20(%rax), %eax	# sym_2(D)->bitpattern, D.6043
	leal	(%rax,%rax), %edx	#, D.6043
	movq	-24(%rbp), %rax	# sym, tmp73
	movl	%edx, 20(%rax)	# D.6043, sym_2(D)->bitpattern
	.loc 1 681 0
	movq	-24(%rbp), %rax	# sym, tmp74
	movl	20(%rax), %edx	# sym_2(D)->bitpattern, D.6043
	movq	-24(%rbp), %rax	# sym, tmp75
	movl	16(%rax), %esi	# sym_2(D)->inf, D.6044
	movl	-4(%rbp), %eax	# info_len, tmp76
	movl	%eax, %ecx	# tmp76, tmp80
	sarl	%cl, %esi	# tmp80, D.6044
	movl	%esi, %eax	# D.6044, D.6044
	andl	$1, %eax	#, D.6043
	orl	%eax, %edx	# D.6043, D.6043
	movq	-24(%rbp), %rax	# sym, tmp77
	movl	%edx, 20(%rax)	# D.6043, sym_2(D)->bitpattern
.L74:
	.loc 1 678 0 discriminator 1
	subl	$1, -4(%rbp)	#, info_len
	cmpl	$0, -4(%rbp)	#, info_len
	jns	.L75	#,
	.loc 1 683 0
	movl	$0, %eax	#, D.6044
	.loc 1 684 0
	popq	%rbp	#
	.cfi_def_cfa 7, 8
	ret
	.cfi_endproc
.LFE20:
	.size	symbol2vlc, .-symbol2vlc
	.globl	writeSyntaxElement_VLC
	.type	writeSyntaxElement_VLC, @function
writeSyntaxElement_VLC:
.LFB21:
	.loc 1 694 0
	.cfi_startproc
	pushq	%rbp	#
	.cfi_def_cfa_offset 16
	.cfi_offset 6, -16
	movq	%rsp, %rbp	#,
	.cfi_def_cfa_register 6
	subq	$16, %rsp	#,
	movq	%rdi, -8(%rbp)	# se, se
	movq	%rsi, -16(%rbp)	# this_dataPart, this_dataPart
	.loc 1 696 0
	movq	-8(%rbp), %rax	# se, tmp64
	movl	4(%rax), %edx	# se_1(D)->value1, D.6045
	movq	-8(%rbp), %rax	# se, tmp65
	movl	%edx, 16(%rax)	# D.6045, se_1(D)->inf
	.loc 1 697 0
	movq	-8(%rbp), %rax	# se, tmp66
	movl	8(%rax), %edx	# se_1(D)->value2, D.6045
	movq	-8(%rbp), %rax	# se, tmp67
	movl	%edx, 12(%rax)	# D.6045, se_1(D)->len
	.loc 1 698 0
	movq	-8(%rbp), %rax	# se, tmp68
	movq	%rax, %rdi	# tmp68,
	call	symbol2vlc	#
	.loc 1 700 0
	movq	-16(%rbp), %rax	# this_dataPart, tmp69
	movq	(%rax), %rdx	# this_dataPart_4(D)->bitstream, D.6046
	movq	-8(%rbp), %rax	# se, tmp70
	movq	%rdx, %rsi	# D.6046,
	movq	%rax, %rdi	# tmp70,
	call	writeUVLC2buffer	#
	.loc 1 706 0
	movq	-8(%rbp), %rax	# se, tmp71
	movl	12(%rax), %eax	# se_1(D)->len, D.6045
	.loc 1 707 0
	leave
	.cfi_def_cfa 7, 8
	ret
	.cfi_endproc
.LFE21:
	.size	writeSyntaxElement_VLC, .-writeSyntaxElement_VLC
	.section	.rodata
	.align 8
.LC1:
	.string	"ERROR: (numcoeff,trailingones) not valid: vlc=%d (%d, %d)\n"
	.text
	.globl	writeSyntaxElement_NumCoeffTrailingOnes
	.type	writeSyntaxElement_NumCoeffTrailingOnes, @function
writeSyntaxElement_NumCoeffTrailingOnes:
.LFB22:
	.loc 1 718 0
	.cfi_startproc
	pushq	%rbp	#
	.cfi_def_cfa_offset 16
	.cfi_offset 6, -16
	movq	%rsp, %rbp	#,
	.cfi_def_cfa_register 6
	subq	$32, %rsp	#,
	movq	%rdi, -24(%rbp)	# se, se
	movq	%rsi, -32(%rbp)	# this_dataPart, this_dataPart
	.loc 1 765 0
	movq	-24(%rbp), %rax	# se, tmp77
	movl	12(%rax), %eax	# se_1(D)->len, tmp78
	movl	%eax, -4(%rbp)	# tmp78, vlcnum
	.loc 1 770 0
	cmpl	$3, -4(%rbp)	#, vlcnum
	jne	.L80	#,
	.loc 1 772 0
	movq	-24(%rbp), %rax	# se, tmp79
	movl	$6, 12(%rax)	#, se_1(D)->len
	.loc 1 773 0
	movq	-24(%rbp), %rax	# se, tmp80
	movl	4(%rax), %eax	# se_1(D)->value1, D.6047
	testl	%eax, %eax	# D.6047
	jle	.L81	#,
	.loc 1 775 0
	movq	-24(%rbp), %rax	# se, tmp81
	movl	4(%rax), %eax	# se_1(D)->value1, D.6047
	subl	$1, %eax	#, D.6047
	leal	0(,%rax,4), %edx	#, D.6047
	movq	-24(%rbp), %rax	# se, tmp82
	movl	8(%rax), %eax	# se_1(D)->value2, D.6047
	orl	%eax, %edx	# D.6047, D.6047
	movq	-24(%rbp), %rax	# se, tmp83
	movl	%edx, 16(%rax)	# D.6047, se_1(D)->inf
	jmp	.L83	#
.L81:
	.loc 1 779 0
	movq	-24(%rbp), %rax	# se, tmp84
	movl	$3, 16(%rax)	#, se_1(D)->inf
	jmp	.L83	#
.L80:
	.loc 1 784 0
	movq	-24(%rbp), %rax	# se, tmp85
	movl	8(%rax), %edx	# se_1(D)->value2, D.6047
	movq	-24(%rbp), %rax	# se, tmp86
	movl	4(%rax), %eax	# se_1(D)->value1, D.6047
	movslq	%eax, %rsi	# D.6047, tmp87
	movl	-4(%rbp), %eax	# vlcnum, tmp89
	cltq
	movslq	%edx, %rcx	# D.6047, tmp90
	salq	$2, %rax	#, tmp92
	movq	%rax, %rdx	# tmp91, tmp93
	salq	$4, %rdx	#, tmp93
	addq	%rdx, %rax	# tmp93, tmp91
	movq	%rcx, %rdx	# tmp90, tmp94
	salq	$4, %rdx	#, tmp95
	addq	%rcx, %rdx	# tmp90, tmp94
	addq	%rdx, %rax	# tmp94, tmp96
	addq	%rsi, %rax	# tmp87, tmp97
	movl	lentab.5541(,%rax,4), %edx	# lentab, D.6047
	movq	-24(%rbp), %rax	# se, tmp98
	movl	%edx, 12(%rax)	# D.6047, se_1(D)->len
	.loc 1 785 0
	movq	-24(%rbp), %rax	# se, tmp99
	movl	8(%rax), %edx	# se_1(D)->value2, D.6047
	movq	-24(%rbp), %rax	# se, tmp100
	movl	4(%rax), %eax	# se_1(D)->value1, D.6047
	movslq	%eax, %rsi	# D.6047, tmp101
	movl	-4(%rbp), %eax	# vlcnum, tmp103
	cltq
	movslq	%edx, %rcx	# D.6047, tmp104
	salq	$2, %rax	#, tmp106
	movq	%rax, %rdx	# tmp105, tmp107
	salq	$4, %rdx	#, tmp107
	addq	%rdx, %rax	# tmp107, tmp105
	movq	%rcx, %rdx	# tmp104, tmp108
	salq	$4, %rdx	#, tmp109
	addq	%rcx, %rdx	# tmp104, tmp108
	addq	%rdx, %rax	# tmp108, tmp110
	addq	%rsi, %rax	# tmp101, tmp111
	movl	codtab.5542(,%rax,4), %edx	# codtab, D.6047
	movq	-24(%rbp), %rax	# se, tmp112
	movl	%edx, 16(%rax)	# D.6047, se_1(D)->inf
.L83:
	.loc 1 789 0
	movq	-24(%rbp), %rax	# se, tmp113
	movl	12(%rax), %eax	# se_1(D)->len, D.6047
	testl	%eax, %eax	# D.6047
	jne	.L84	#,
	.loc 1 791 0
	movq	-24(%rbp), %rax	# se, tmp114
	movl	8(%rax), %ecx	# se_1(D)->value2, D.6047
	movq	-24(%rbp), %rax	# se, tmp115
	movl	4(%rax), %edx	# se_1(D)->value1, D.6047
	movl	-4(%rbp), %eax	# vlcnum, tmp116
	movl	%eax, %esi	# tmp116,
	movl	$.LC1, %edi	#,
	movl	$0, %eax	#,
	call	printf	#
	.loc 1 793 0
	movl	$-1, %edi	#,
	call	exit	#
.L84:
	.loc 1 796 0
	movq	-24(%rbp), %rax	# se, tmp117
	movq	%rax, %rdi	# tmp117,
	call	symbol2vlc	#
	.loc 1 798 0
	movq	-32(%rbp), %rax	# this_dataPart, tmp118
	movq	(%rax), %rdx	# this_dataPart_18(D)->bitstream, D.6048
	movq	-24(%rbp), %rax	# se, tmp119
	movq	%rdx, %rsi	# D.6048,
	movq	%rax, %rdi	# tmp119,
	call	writeUVLC2buffer	#
	.loc 1 804 0
	movq	-24(%rbp), %rax	# se, tmp120
	movl	12(%rax), %eax	# se_1(D)->len, D.6047
	.loc 1 805 0
	leave
	.cfi_def_cfa 7, 8
	ret
	.cfi_endproc
.LFE22:
	.size	writeSyntaxElement_NumCoeffTrailingOnes, .-writeSyntaxElement_NumCoeffTrailingOnes
	.section	.rodata
	.align 8
.LC2:
	.string	"ERROR: (numcoeff,trailingones) not valid: (%d, %d)\n"
	.text
	.globl	writeSyntaxElement_NumCoeffTrailingOnesChromaDC
	.type	writeSyntaxElement_NumCoeffTrailingOnesChromaDC, @function
writeSyntaxElement_NumCoeffTrailingOnesChromaDC:
.LFB23:
	.loc 1 815 0
	.cfi_startproc
	pushq	%rbp	#
	.cfi_def_cfa_offset 16
	.cfi_offset 6, -16
	movq	%rsp, %rbp	#,
	.cfi_def_cfa_register 6
	subq	$32, %rsp	#,
	movq	%rdi, -24(%rbp)	# se, se
	movq	%rsi, -32(%rbp)	# this_dataPart, this_dataPart
	.loc 1 854 0
	movq	img(%rip), %rax	# img, img.4
	movl	72700(%rax), %eax	# img.4_1->yuv_format, D.6050
	subl	$1, %eax	#, tmp73
	movl	%eax, -4(%rbp)	# tmp73, yuv
	.loc 1 858 0
	movq	-24(%rbp), %rax	# se, tmp74
	movl	8(%rax), %edx	# se_4(D)->value2, D.6050
	movq	-24(%rbp), %rax	# se, tmp75
	movl	4(%rax), %eax	# se_4(D)->value1, D.6050
	movslq	%eax, %rsi	# D.6050, tmp76
	movl	-4(%rbp), %eax	# yuv, tmp78
	cltq
	movslq	%edx, %rcx	# D.6050, tmp79
	salq	$2, %rax	#, tmp81
	movq	%rax, %rdx	# tmp80, tmp82
	salq	$4, %rdx	#, tmp82
	addq	%rdx, %rax	# tmp82, tmp80
	movq	%rcx, %rdx	# tmp79, tmp83
	salq	$4, %rdx	#, tmp84
	addq	%rcx, %rdx	# tmp79, tmp83
	addq	%rdx, %rax	# tmp83, tmp85
	addq	%rsi, %rax	# tmp76, tmp86
	movl	lentab.5548(,%rax,4), %edx	# lentab, D.6050
	movq	-24(%rbp), %rax	# se, tmp87
	movl	%edx, 12(%rax)	# D.6050, se_4(D)->len
	.loc 1 859 0
	movq	-24(%rbp), %rax	# se, tmp88
	movl	8(%rax), %edx	# se_4(D)->value2, D.6050
	movq	-24(%rbp), %rax	# se, tmp89
	movl	4(%rax), %eax	# se_4(D)->value1, D.6050
	movslq	%eax, %rsi	# D.6050, tmp90
	movl	-4(%rbp), %eax	# yuv, tmp92
	cltq
	movslq	%edx, %rcx	# D.6050, tmp93
	salq	$2, %rax	#, tmp95
	movq	%rax, %rdx	# tmp94, tmp96
	salq	$4, %rdx	#, tmp96
	addq	%rdx, %rax	# tmp96, tmp94
	movq	%rcx, %rdx	# tmp93, tmp97
	salq	$4, %rdx	#, tmp98
	addq	%rcx, %rdx	# tmp93, tmp97
	addq	%rdx, %rax	# tmp97, tmp99
	addq	%rsi, %rax	# tmp90, tmp100
	movl	codtab.5549(,%rax,4), %edx	# codtab, D.6050
	movq	-24(%rbp), %rax	# se, tmp101
	movl	%edx, 16(%rax)	# D.6050, se_4(D)->inf
	.loc 1 861 0
	movq	-24(%rbp), %rax	# se, tmp102
	movl	12(%rax), %eax	# se_4(D)->len, D.6050
	testl	%eax, %eax	# D.6050
	jne	.L87	#,
	.loc 1 863 0
	movq	-24(%rbp), %rax	# se, tmp103
	movl	8(%rax), %edx	# se_4(D)->value2, D.6050
	movq	-24(%rbp), %rax	# se, tmp104
	movl	4(%rax), %eax	# se_4(D)->value1, D.6050
	movl	%eax, %esi	# D.6050,
	movl	$.LC2, %edi	#,
	movl	$0, %eax	#,
	call	printf	#
	.loc 1 865 0
	movl	$-1, %edi	#,
	call	exit	#
.L87:
	.loc 1 868 0
	movq	-24(%rbp), %rax	# se, tmp105
	movq	%rax, %rdi	# tmp105,
	call	symbol2vlc	#
	.loc 1 870 0
	movq	-32(%rbp), %rax	# this_dataPart, tmp106
	movq	(%rax), %rdx	# this_dataPart_14(D)->bitstream, D.6051
	movq	-24(%rbp), %rax	# se, tmp107
	movq	%rdx, %rsi	# D.6051,
	movq	%rax, %rdi	# tmp107,
	call	writeUVLC2buffer	#
	.loc 1 876 0
	movq	-24(%rbp), %rax	# se, tmp108
	movl	12(%rax), %eax	# se_4(D)->len, D.6050
	.loc 1 877 0
	leave
	.cfi_def_cfa 7, 8
	ret
	.cfi_endproc
.LFE23:
	.size	writeSyntaxElement_NumCoeffTrailingOnesChromaDC, .-writeSyntaxElement_NumCoeffTrailingOnesChromaDC
	.section	.rodata
	.align 8
.LC3:
	.string	"ERROR: (TotalZeros) not valid: (%d)\n"
	.text
	.globl	writeSyntaxElement_TotalZeros
	.type	writeSyntaxElement_TotalZeros, @function
writeSyntaxElement_TotalZeros:
.LFB24:
	.loc 1 887 0
	.cfi_startproc
	pushq	%rbp	#
	.cfi_def_cfa_offset 16
	.cfi_offset 6, -16
	movq	%rsp, %rbp	#,
	.cfi_def_cfa_register 6
	subq	$32, %rsp	#,
	movq	%rdi, -24(%rbp)	# se, se
	movq	%rsi, -32(%rbp)	# this_dataPart, this_dataPart
	.loc 1 927 0
	movq	-24(%rbp), %rax	# se, tmp68
	movl	12(%rax), %eax	# se_1(D)->len, tmp69
	movl	%eax, -4(%rbp)	# tmp69, vlcnum
	.loc 1 930 0
	movq	-24(%rbp), %rax	# se, tmp70
	movl	4(%rax), %eax	# se_1(D)->value1, D.6053
	cltq
	movl	-4(%rbp), %edx	# vlcnum, tmp73
	movslq	%edx, %rdx	# tmp73, tmp72
	salq	$4, %rdx	#, tmp74
	addq	%rdx, %rax	# tmp74, tmp75
	movl	lentab.5555(,%rax,4), %edx	# lentab, D.6053
	movq	-24(%rbp), %rax	# se, tmp76
	movl	%edx, 12(%rax)	# D.6053, se_1(D)->len
	.loc 1 931 0
	movq	-24(%rbp), %rax	# se, tmp77
	movl	4(%rax), %eax	# se_1(D)->value1, D.6053
	cltq
	movl	-4(%rbp), %edx	# vlcnum, tmp80
	movslq	%edx, %rdx	# tmp80, tmp79
	salq	$4, %rdx	#, tmp81
	addq	%rdx, %rax	# tmp81, tmp82
	movl	codtab.5556(,%rax,4), %edx	# codtab, D.6053
	movq	-24(%rbp), %rax	# se, tmp83
	movl	%edx, 16(%rax)	# D.6053, se_1(D)->inf
	.loc 1 933 0
	movq	-24(%rbp), %rax	# se, tmp84
	movl	12(%rax), %eax	# se_1(D)->len, D.6053
	testl	%eax, %eax	# D.6053
	jne	.L90	#,
	.loc 1 935 0
	movq	-24(%rbp), %rax	# se, tmp85
	movl	4(%rax), %eax	# se_1(D)->value1, D.6053
	movl	%eax, %esi	# D.6053,
	movl	$.LC3, %edi	#,
	movl	$0, %eax	#,
	call	printf	#
	.loc 1 936 0
	movl	$-1, %edi	#,
	call	exit	#
.L90:
	.loc 1 939 0
	movq	-24(%rbp), %rax	# se, tmp86
	movq	%rax, %rdi	# tmp86,
	call	symbol2vlc	#
	.loc 1 941 0
	movq	-32(%rbp), %rax	# this_dataPart, tmp87
	movq	(%rax), %rdx	# this_dataPart_9(D)->bitstream, D.6054
	movq	-24(%rbp), %rax	# se, tmp88
	movq	%rdx, %rsi	# D.6054,
	movq	%rax, %rdi	# tmp88,
	call	writeUVLC2buffer	#
	.loc 1 947 0
	movq	-24(%rbp), %rax	# se, tmp89
	movl	12(%rax), %eax	# se_1(D)->len, D.6053
	.loc 1 948 0
	leave
	.cfi_def_cfa 7, 8
	ret
	.cfi_endproc
.LFE24:
	.size	writeSyntaxElement_TotalZeros, .-writeSyntaxElement_TotalZeros
	.globl	writeSyntaxElement_TotalZerosChromaDC
	.type	writeSyntaxElement_TotalZerosChromaDC, @function
writeSyntaxElement_TotalZerosChromaDC:
.LFB25:
	.loc 1 958 0
	.cfi_startproc
	pushq	%rbp	#
	.cfi_def_cfa_offset 16
	.cfi_offset 6, -16
	movq	%rsp, %rbp	#,
	.cfi_def_cfa_register 6
	subq	$32, %rsp	#,
	movq	%rdi, -24(%rbp)	# se, se
	movq	%rsi, -32(%rbp)	# this_dataPart, this_dataPart
	.loc 1 1023 0
	movq	img(%rip), %rax	# img, img.5
	movl	72700(%rax), %eax	# img.5_1->yuv_format, D.6056
	subl	$1, %eax	#, tmp70
	movl	%eax, -8(%rbp)	# tmp70, yuv
	.loc 1 1025 0
	movq	-24(%rbp), %rax	# se, tmp71
	movl	12(%rax), %eax	# se_4(D)->len, tmp72
	movl	%eax, -4(%rbp)	# tmp72, vlcnum
	.loc 1 1028 0
	movq	-24(%rbp), %rax	# se, tmp73
	movl	4(%rax), %eax	# se_4(D)->value1, D.6056
	movslq	%eax, %rcx	# D.6056, tmp74
	movl	-8(%rbp), %eax	# yuv, tmp76
	movslq	%eax, %rdx	# tmp76, tmp75
	movl	-4(%rbp), %eax	# vlcnum, tmp78
	movslq	%eax, %rsi	# tmp78, tmp77
	movq	%rdx, %rax	# tmp75, tmp79
	salq	$4, %rax	#, tmp80
	subq	%rdx, %rax	# tmp75, tmp79
	addq	%rsi, %rax	# tmp77, tmp81
	salq	$4, %rax	#, tmp82
	addq	%rcx, %rax	# tmp74, tmp83
	movl	lentab.5562(,%rax,4), %edx	# lentab, D.6056
	movq	-24(%rbp), %rax	# se, tmp84
	movl	%edx, 12(%rax)	# D.6056, se_4(D)->len
	.loc 1 1029 0
	movq	-24(%rbp), %rax	# se, tmp85
	movl	4(%rax), %eax	# se_4(D)->value1, D.6056
	movslq	%eax, %rcx	# D.6056, tmp86
	movl	-8(%rbp), %eax	# yuv, tmp88
	movslq	%eax, %rdx	# tmp88, tmp87
	movl	-4(%rbp), %eax	# vlcnum, tmp90
	movslq	%eax, %rsi	# tmp90, tmp89
	movq	%rdx, %rax	# tmp87, tmp91
	salq	$4, %rax	#, tmp92
	subq	%rdx, %rax	# tmp87, tmp91
	addq	%rsi, %rax	# tmp89, tmp93
	salq	$4, %rax	#, tmp94
	addq	%rcx, %rax	# tmp86, tmp95
	movl	codtab.5563(,%rax,4), %edx	# codtab, D.6056
	movq	-24(%rbp), %rax	# se, tmp96
	movl	%edx, 16(%rax)	# D.6056, se_4(D)->inf
	.loc 1 1031 0
	movq	-24(%rbp), %rax	# se, tmp97
	movl	12(%rax), %eax	# se_4(D)->len, D.6056
	testl	%eax, %eax	# D.6056
	jne	.L93	#,
	.loc 1 1033 0
	movq	-24(%rbp), %rax	# se, tmp98
	movl	4(%rax), %eax	# se_4(D)->value1, D.6056
	movl	%eax, %esi	# D.6056,
	movl	$.LC3, %edi	#,
	movl	$0, %eax	#,
	call	printf	#
	.loc 1 1034 0
	movl	$-1, %edi	#,
	call	exit	#
.L93:
	.loc 1 1037 0
	movq	-24(%rbp), %rax	# se, tmp99
	movq	%rax, %rdi	# tmp99,
	call	symbol2vlc	#
	.loc 1 1039 0
	movq	-32(%rbp), %rax	# this_dataPart, tmp100
	movq	(%rax), %rdx	# this_dataPart_12(D)->bitstream, D.6057
	movq	-24(%rbp), %rax	# se, tmp101
	movq	%rdx, %rsi	# D.6057,
	movq	%rax, %rdi	# tmp101,
	call	writeUVLC2buffer	#
	.loc 1 1045 0
	movq	-24(%rbp), %rax	# se, tmp102
	movl	12(%rax), %eax	# se_4(D)->len, D.6056
	.loc 1 1046 0
	leave
	.cfi_def_cfa 7, 8
	ret
	.cfi_endproc
.LFE25:
	.size	writeSyntaxElement_TotalZerosChromaDC, .-writeSyntaxElement_TotalZerosChromaDC
	.section	.rodata
.LC4:
	.string	"ERROR: (run) not valid: (%d)\n"
	.text
	.globl	writeSyntaxElement_Run
	.type	writeSyntaxElement_Run, @function
writeSyntaxElement_Run:
.LFB26:
	.loc 1 1056 0
	.cfi_startproc
	pushq	%rbp	#
	.cfi_def_cfa_offset 16
	.cfi_offset 6, -16
	movq	%rsp, %rbp	#,
	.cfi_def_cfa_register 6
	subq	$32, %rsp	#,
	movq	%rdi, -24(%rbp)	# se, se
	movq	%rsi, -32(%rbp)	# this_dataPart, this_dataPart
	.loc 1 1080 0
	movq	-24(%rbp), %rax	# se, tmp68
	movl	12(%rax), %eax	# se_1(D)->len, tmp69
	movl	%eax, -4(%rbp)	# tmp69, vlcnum
	.loc 1 1083 0
	movq	-24(%rbp), %rax	# se, tmp70
	movl	4(%rax), %eax	# se_1(D)->value1, D.6058
	cltq
	movl	-4(%rbp), %edx	# vlcnum, tmp73
	movslq	%edx, %rdx	# tmp73, tmp72
	salq	$4, %rdx	#, tmp74
	addq	%rdx, %rax	# tmp74, tmp75
	movl	lentab.5570(,%rax,4), %edx	# lentab, D.6058
	movq	-24(%rbp), %rax	# se, tmp76
	movl	%edx, 12(%rax)	# D.6058, se_1(D)->len
	.loc 1 1084 0
	movq	-24(%rbp), %rax	# se, tmp77
	movl	4(%rax), %eax	# se_1(D)->value1, D.6058
	cltq
	movl	-4(%rbp), %edx	# vlcnum, tmp80
	movslq	%edx, %rdx	# tmp80, tmp79
	salq	$4, %rdx	#, tmp81
	addq	%rdx, %rax	# tmp81, tmp82
	movl	codtab.5571(,%rax,4), %edx	# codtab, D.6058
	movq	-24(%rbp), %rax	# se, tmp83
	movl	%edx, 16(%rax)	# D.6058, se_1(D)->inf
	.loc 1 1086 0
	movq	-24(%rbp), %rax	# se, tmp84
	movl	12(%rax), %eax	# se_1(D)->len, D.6058
	testl	%eax, %eax	# D.6058
	jne	.L96	#,
	.loc 1 1088 0
	movq	-24(%rbp), %rax	# se, tmp85
	movl	4(%rax), %eax	# se_1(D)->value1, D.6058
	movl	%eax, %esi	# D.6058,
	movl	$.LC4, %edi	#,
	movl	$0, %eax	#,
	call	printf	#
	.loc 1 1089 0
	movl	$-1, %edi	#,
	call	exit	#
.L96:
	.loc 1 1092 0
	movq	-24(%rbp), %rax	# se, tmp86
	movq	%rax, %rdi	# tmp86,
	call	symbol2vlc	#
	.loc 1 1094 0
	movq	-32(%rbp), %rax	# this_dataPart, tmp87
	movq	(%rax), %rdx	# this_dataPart_9(D)->bitstream, D.6059
	movq	-24(%rbp), %rax	# se, tmp88
	movq	%rdx, %rsi	# D.6059,
	movq	%rax, %rdi	# tmp88,
	call	writeUVLC2buffer	#
	.loc 1 1100 0
	movq	-24(%rbp), %rax	# se, tmp89
	movl	12(%rax), %eax	# se_1(D)->len, D.6058
	.loc 1 1101 0
	leave
	.cfi_def_cfa 7, 8
	ret
	.cfi_endproc
.LFE26:
	.size	writeSyntaxElement_Run, .-writeSyntaxElement_Run
	.globl	writeSyntaxElement_Level_VLC1
	.type	writeSyntaxElement_Level_VLC1, @function
writeSyntaxElement_Level_VLC1:
.LFB27:
	.loc 1 1111 0
	.cfi_startproc
	pushq	%rbp	#
	.cfi_def_cfa_offset 16
	.cfi_offset 6, -16
	movq	%rsp, %rbp	#,
	.cfi_def_cfa_register 6
	subq	$32, %rsp	#,
	movq	%rdi, -24(%rbp)	# se, se
	movq	%rsi, -32(%rbp)	# this_dataPart, this_dataPart
	.loc 1 1114 0
	movq	-24(%rbp), %rax	# se, tmp74
	movl	4(%rax), %eax	# se_1(D)->value1, tmp75
	movl	%eax, -12(%rbp)	# tmp75, level
	.loc 1 1115 0
	movl	-12(%rbp), %eax	# level, tmp77
	sarl	$31, %eax	#, tmp76
	movl	%eax, %edx	# tmp76, tmp79
	xorl	-12(%rbp), %edx	# level, tmp79
	subl	%eax, %edx	# tmp76, tmp80
	movl	%edx, %eax	# tmp80, tmp80
	movl	%eax, -8(%rbp)	# tmp80, levabs
	.loc 1 1116 0
	movl	-12(%rbp), %eax	# level, tmp82
	shrl	$31, %eax	#, tmp81
	movzbl	%al, %eax	# D.6061, tmp83
	movl	%eax, -4(%rbp)	# tmp83, sign
	.loc 1 1119 0
	cmpl	$7, -8(%rbp)	#, levabs
	jg	.L99	#,
	.loc 1 1121 0
	movl	-8(%rbp), %eax	# levabs, tmp84
	leal	(%rax,%rax), %edx	#, D.6062
	movl	-4(%rbp), %eax	# sign, tmp85
	addl	%edx, %eax	# D.6062, D.6062
	leal	-1(%rax), %edx	#, D.6062
	movq	-24(%rbp), %rax	# se, tmp86
	movl	%edx, 12(%rax)	# D.6062, se_1(D)->len
	.loc 1 1122 0
	movq	-24(%rbp), %rax	# se, tmp87
	movl	$1, 16(%rax)	#, se_1(D)->inf
	jmp	.L100	#
.L99:
	.loc 1 1124 0
	cmpl	$15, -8(%rbp)	#, levabs
	jg	.L101	#,
	.loc 1 1127 0
	movq	-24(%rbp), %rax	# se, tmp88
	movl	$19, 12(%rax)	#, se_1(D)->len
	.loc 1 1128 0
	movl	-8(%rbp), %eax	# levabs, tmp89
	subl	$8, %eax	#, D.6062
	addl	%eax, %eax	# D.6062
	orl	$16, %eax	#, D.6062
	orl	-4(%rbp), %eax	# sign, D.6062
	movl	%eax, %edx	# D.6062, D.6062
	movq	-24(%rbp), %rax	# se, tmp90
	movl	%edx, 16(%rax)	# D.6062, se_1(D)->inf
	jmp	.L100	#
.L101:
	.loc 1 1133 0
	movq	-24(%rbp), %rax	# se, tmp91
	movl	$28, 12(%rax)	#, se_1(D)->len
	.loc 1 1134 0
	movl	-8(%rbp), %eax	# levabs, tmp92
	subl	$16, %eax	#, D.6062
	addl	%eax, %eax	# D.6062
	orb	$16, %ah	#, D.6062
	orl	-4(%rbp), %eax	# sign, D.6062
	movl	%eax, %edx	# D.6062, D.6062
	movq	-24(%rbp), %rax	# se, tmp93
	movl	%edx, 16(%rax)	# D.6062, se_1(D)->inf
.L100:
	.loc 1 1138 0
	movq	-24(%rbp), %rax	# se, tmp94
	movq	%rax, %rdi	# tmp94,
	call	symbol2vlc	#
	.loc 1 1140 0
	movq	-32(%rbp), %rax	# this_dataPart, tmp95
	movq	(%rax), %rdx	# this_dataPart_17(D)->bitstream, D.6063
	movq	-24(%rbp), %rax	# se, tmp96
	movq	%rdx, %rsi	# D.6063,
	movq	%rax, %rdi	# tmp96,
	call	writeUVLC2buffer	#
	.loc 1 1146 0
	movq	-24(%rbp), %rax	# se, tmp97
	movl	12(%rax), %eax	# se_1(D)->len, D.6062
	.loc 1 1147 0
	leave
	.cfi_def_cfa 7, 8
	ret
	.cfi_endproc
.LFE27:
	.size	writeSyntaxElement_Level_VLC1, .-writeSyntaxElement_Level_VLC1
	.globl	writeSyntaxElement_Level_VLCN
	.type	writeSyntaxElement_Level_VLCN, @function
writeSyntaxElement_Level_VLCN:
.LFB28:
	.loc 1 1157 0
	.cfi_startproc
	pushq	%rbp	#
	.cfi_def_cfa_offset 16
	.cfi_offset 6, -16
	movq	%rsp, %rbp	#,
	.cfi_def_cfa_register 6
	subq	$72, %rsp	#,
	movq	%rdi, -56(%rbp)	# se, se
	movl	%esi, -60(%rbp)	# vlc, vlc
	movq	%rdx, -72(%rbp)	# this_dataPart, this_dataPart
	.loc 1 1161 0
	movq	-56(%rbp), %rax	# se, tmp76
	movl	4(%rax), %eax	# se_3(D)->value1, tmp77
	movl	%eax, -32(%rbp)	# tmp77, level
	.loc 1 1163 0
	movl	-32(%rbp), %eax	# level, tmp79
	sarl	$31, %eax	#, tmp78
	movl	%eax, %edx	# tmp78, tmp81
	xorl	-32(%rbp), %edx	# level, tmp81
	subl	%eax, %edx	# tmp78, tmp82
	movl	%edx, %eax	# tmp82, tmp82
	movl	%eax, -28(%rbp)	# tmp82, levabs
	.loc 1 1164 0
	movl	-32(%rbp), %eax	# level, tmp84
	shrl	$31, %eax	#, tmp83
	movzbl	%al, %eax	# D.6064, tmp85
	movl	%eax, -24(%rbp)	# tmp85, sign
	.loc 1 1166 0
	movl	-60(%rbp), %eax	# vlc, tmp89
	subl	$1, %eax	#, tmp88
	movl	%eax, -20(%rbp)	# tmp88, shift
	.loc 1 1167 0
	movl	-20(%rbp), %eax	# shift, tmp90
	movl	$15, %edx	#, tmp91
	movl	%eax, %ecx	# tmp90, tmp126
	sall	%cl, %edx	# tmp126, D.6065
	movl	%edx, %eax	# D.6065, D.6065
	addl	$1, %eax	#, tmp92
	movl	%eax, -16(%rbp)	# tmp92, escape
	.loc 1 1169 0
	movl	-28(%rbp), %eax	# levabs, tmp93
	leal	-1(%rax), %edx	#, D.6065
	movl	-20(%rbp), %eax	# shift, tmp94
	movl	%eax, %ecx	# tmp94, tmp128
	sarl	%cl, %edx	# tmp128, tmp95
	movl	%edx, %eax	# tmp95, tmp95
	movl	%eax, -12(%rbp)	# tmp95, numPrefix
	.loc 1 1171 0
	movl	-20(%rbp), %eax	# shift, tmp96
	movl	$-1, %edx	#, tmp97
	movl	%eax, %ecx	# tmp96, tmp130
	sall	%cl, %edx	# tmp130, D.6066
	movl	%edx, %eax	# D.6066, D.6066
	notl	%eax	# D.6066
	movl	%eax, -8(%rbp)	# D.6066, sufmask
	.loc 1 1172 0
	movl	-28(%rbp), %eax	# levabs, tmp98
	subl	$1, %eax	#, D.6065
	andl	-8(%rbp), %eax	# sufmask, tmp100
	movl	%eax, -4(%rbp)	# tmp100, suffix
	.loc 1 1174 0
	movl	-28(%rbp), %eax	# levabs, tmp101
	cmpl	-16(%rbp), %eax	# escape, tmp101
	jge	.L104	#,
	.loc 1 1176 0
	movl	-60(%rbp), %eax	# vlc, tmp102
	movl	-12(%rbp), %edx	# numPrefix, tmp103
	addl	%edx, %eax	# tmp103, D.6065
	addl	$1, %eax	#, tmp104
	movl	%eax, -36(%rbp)	# tmp104, iLength
	.loc 1 1177 0
	movl	-20(%rbp), %eax	# shift, tmp105
	addl	$1, %eax	#, D.6065
	movl	$1, %edx	#, tmp106
	movl	%eax, %ecx	# D.6065, tmp131
	sall	%cl, %edx	# tmp131, D.6065
	movl	-4(%rbp), %eax	# suffix, tmp107
	addl	%eax, %eax	# D.6065
	orl	%edx, %eax	# D.6065, D.6065
	orl	-24(%rbp), %eax	# sign, tmp109
	movl	%eax, -40(%rbp)	# tmp109, iCodeword
	jmp	.L105	#
.L104:
	.loc 1 1181 0
	movl	$28, -36(%rbp)	#, iLength
	.loc 1 1182 0
	movl	-16(%rbp), %eax	# escape, tmp110
	movl	-28(%rbp), %edx	# levabs, tmp111
	subl	%eax, %edx	# tmp110, D.6065
	movl	%edx, %eax	# D.6065, D.6065
	addl	%eax, %eax	# D.6065
	orb	$16, %ah	#, D.6065
	orl	-24(%rbp), %eax	# sign, tmp113
	movl	%eax, -40(%rbp)	# tmp113, iCodeword
.L105:
	.loc 1 1184 0
	movq	-56(%rbp), %rax	# se, tmp114
	movl	-36(%rbp), %edx	# iLength, tmp115
	movl	%edx, 12(%rax)	# tmp115, se_3(D)->len
	.loc 1 1185 0
	movq	-56(%rbp), %rax	# se, tmp116
	movl	-40(%rbp), %edx	# iCodeword, tmp117
	movl	%edx, 16(%rax)	# tmp117, se_3(D)->inf
	.loc 1 1187 0
	movq	-56(%rbp), %rax	# se, tmp118
	movq	%rax, %rdi	# tmp118,
	call	symbol2vlc	#
	.loc 1 1189 0
	movq	-72(%rbp), %rax	# this_dataPart, tmp119
	movq	(%rax), %rdx	# this_dataPart_31(D)->bitstream, D.6067
	movq	-56(%rbp), %rax	# se, tmp120
	movq	%rdx, %rsi	# D.6067,
	movq	%rax, %rdi	# tmp120,
	call	writeUVLC2buffer	#
	.loc 1 1195 0
	movq	-56(%rbp), %rax	# se, tmp121
	movl	12(%rax), %eax	# se_3(D)->len, D.6065
	.loc 1 1196 0
	leave
	.cfi_def_cfa 7, 8
	ret
	.cfi_endproc
.LFE28:
	.size	writeSyntaxElement_Level_VLCN, .-writeSyntaxElement_Level_VLCN
	.globl	writeVlcByteAlign
	.type	writeVlcByteAlign, @function
writeVlcByteAlign:
.LFB29:
	.loc 1 1257 0
	.cfi_startproc
	pushq	%rbp	#
	.cfi_def_cfa_offset 16
	.cfi_offset 6, -16
	movq	%rsp, %rbp	#,
	.cfi_def_cfa_register 6
	movq	%rdi, -8(%rbp)	# currStream, currStream
	.loc 1 1258 0
	movq	-8(%rbp), %rax	# currStream, tmp86
	movl	4(%rax), %eax	# currStream_1(D)->bits_to_go, D.6068
	cmpl	$7, %eax	#, D.6068
	jg	.L107	#,
	.loc 1 1260 0
	movq	-8(%rbp), %rax	# currStream, tmp87
	movzbl	8(%rax), %eax	# currStream_1(D)->byte_buf, D.6069
	movzbl	%al, %edx	# D.6069, D.6068
	movq	-8(%rbp), %rax	# currStream, tmp88
	movl	4(%rax), %eax	# currStream_1(D)->bits_to_go, D.6068
	movl	%eax, %ecx	# D.6068, tmp104
	sall	%cl, %edx	# tmp104, D.6068
	movl	%edx, %eax	# D.6068, D.6068
	movl	%eax, %edx	# D.6068, D.6070
	movq	-8(%rbp), %rax	# currStream, tmp89
	movl	4(%rax), %eax	# currStream_1(D)->bits_to_go, D.6068
	movl	$8, %ecx	#, tmp90
	subl	%eax, %ecx	# D.6068, D.6068
	movl	%ecx, %eax	# D.6068, D.6068
	movl	$255, %esi	#, tmp91
	movl	%eax, %ecx	# D.6068, tmp107
	sarl	%cl, %esi	# tmp107, D.6068
	movl	%esi, %eax	# D.6068, D.6068
	orl	%edx, %eax	# D.6070, D.6070
	movl	%eax, %edx	# D.6070, D.6069
	movq	-8(%rbp), %rax	# currStream, tmp92
	movb	%dl, 8(%rax)	# D.6069, currStream_1(D)->byte_buf
	.loc 1 1261 0
	movq	stats(%rip), %rax	# stats, stats.6
	movq	img(%rip), %rdx	# img, img.7
	movl	24(%rdx), %esi	# img.7_15->type, D.6068
	movq	stats(%rip), %rdx	# stats, stats.8
	movq	img(%rip), %rcx	# img, img.9
	movl	24(%rcx), %ecx	# img.9_18->type, D.6068
	movslq	%ecx, %rcx	# D.6068, tmp93
	addq	$332, %rcx	#, tmp94
	movl	(%rdx,%rcx,4), %ecx	# stats.8_17->bit_use_stuffingBits, D.6068
	movq	-8(%rbp), %rdx	# currStream, tmp95
	movl	4(%rdx), %edx	# currStream_1(D)->bits_to_go, D.6068
	addl	%edx, %ecx	# D.6068, D.6068
	movslq	%esi, %rdx	# D.6068, tmp96
	addq	$332, %rdx	#, tmp97
	movl	%ecx, (%rax,%rdx,4)	# D.6068, stats.6_14->bit_use_stuffingBits
	.loc 1 1262 0
	movq	-8(%rbp), %rax	# currStream, tmp98
	movq	32(%rax), %rsi	# currStream_1(D)->streamBuffer, D.6071
	movq	-8(%rbp), %rax	# currStream, tmp99
	movl	(%rax), %eax	# currStream_1(D)->byte_pos, D.6068
	leal	1(%rax), %ecx	#, D.6068
	movq	-8(%rbp), %rdx	# currStream, tmp100
	movl	%ecx, (%rdx)	# D.6068, currStream_1(D)->byte_pos
	cltq
	leaq	(%rsi,%rax), %rdx	#, D.6071
	movq	-8(%rbp), %rax	# currStream, tmp101
	movzbl	8(%rax), %eax	# currStream_1(D)->byte_buf, D.6069
	movb	%al, (%rdx)	# D.6069, *_28
	.loc 1 1263 0
	movq	-8(%rbp), %rax	# currStream, tmp102
	movl	$8, 4(%rax)	#, currStream_1(D)->bits_to_go
.L107:
	.loc 1 1265 0
	popq	%rbp	#
	.cfi_def_cfa 7, 8
	ret
	.cfi_endproc
.LFE29:
	.size	writeVlcByteAlign, .-writeVlcByteAlign
	.section	.rodata
	.align 32
	.type	lentab.5541, @object
	.size	lentab.5541, 816
lentab.5541:
	.long	1
	.long	6
	.long	8
	.long	9
	.long	10
	.long	11
	.long	13
	.long	13
	.long	13
	.long	14
	.long	14
	.long	15
	.long	15
	.long	16
	.long	16
	.long	16
	.long	16
	.long	0
	.long	2
	.long	6
	.long	8
	.long	9
	.long	10
	.long	11
	.long	13
	.long	13
	.long	14
	.long	14
	.long	15
	.long	15
	.long	15
	.long	16
	.long	16
	.long	16
	.long	0
	.long	0
	.long	3
	.long	7
	.long	8
	.long	9
	.long	10
	.long	11
	.long	13
	.long	13
	.long	14
	.long	14
	.long	15
	.long	15
	.long	16
	.long	16
	.long	16
	.long	0
	.long	0
	.long	0
	.long	5
	.long	6
	.long	7
	.long	8
	.long	9
	.long	10
	.long	11
	.long	13
	.long	14
	.long	14
	.long	15
	.long	15
	.long	16
	.long	16
	.long	2
	.long	6
	.long	6
	.long	7
	.long	8
	.long	8
	.long	9
	.long	11
	.long	11
	.long	12
	.long	12
	.long	12
	.long	13
	.long	13
	.long	13
	.long	14
	.long	14
	.long	0
	.long	2
	.long	5
	.long	6
	.long	6
	.long	7
	.long	8
	.long	9
	.long	11
	.long	11
	.long	12
	.long	12
	.long	13
	.long	13
	.long	14
	.long	14
	.long	14
	.long	0
	.long	0
	.long	3
	.long	6
	.long	6
	.long	7
	.long	8
	.long	9
	.long	11
	.long	11
	.long	12
	.long	12
	.long	13
	.long	13
	.long	13
	.long	14
	.long	14
	.long	0
	.long	0
	.long	0
	.long	4
	.long	4
	.long	5
	.long	6
	.long	6
	.long	7
	.long	9
	.long	11
	.long	11
	.long	12
	.long	13
	.long	13
	.long	13
	.long	14
	.long	4
	.long	6
	.long	6
	.long	6
	.long	7
	.long	7
	.long	7
	.long	7
	.long	8
	.long	8
	.long	9
	.long	9
	.long	9
	.long	10
	.long	10
	.long	10
	.long	10
	.long	0
	.long	4
	.long	5
	.long	5
	.long	5
	.long	5
	.long	6
	.long	6
	.long	7
	.long	8
	.long	8
	.long	9
	.long	9
	.long	9
	.long	10
	.long	10
	.long	10
	.long	0
	.long	0
	.long	4
	.long	5
	.long	5
	.long	5
	.long	6
	.long	6
	.long	7
	.long	7
	.long	8
	.long	8
	.long	9
	.long	9
	.long	10
	.long	10
	.long	10
	.long	0
	.long	0
	.long	0
	.long	4
	.long	4
	.long	4
	.long	4
	.long	4
	.long	5
	.long	6
	.long	7
	.long	8
	.long	8
	.long	9
	.long	10
	.long	10
	.long	10
	.align 32
	.type	codtab.5542, @object
	.size	codtab.5542, 816
codtab.5542:
	.long	1
	.long	5
	.long	7
	.long	7
	.long	7
	.long	7
	.long	15
	.long	11
	.long	8
	.long	15
	.long	11
	.long	15
	.long	11
	.long	15
	.long	11
	.long	7
	.long	4
	.long	0
	.long	1
	.long	4
	.long	6
	.long	6
	.long	6
	.long	6
	.long	14
	.long	10
	.long	14
	.long	10
	.long	14
	.long	10
	.long	1
	.long	14
	.long	10
	.long	6
	.long	0
	.long	0
	.long	1
	.long	5
	.long	5
	.long	5
	.long	5
	.long	5
	.long	13
	.long	9
	.long	13
	.long	9
	.long	13
	.long	9
	.long	13
	.long	9
	.long	5
	.long	0
	.long	0
	.long	0
	.long	3
	.long	3
	.long	4
	.long	4
	.long	4
	.long	4
	.long	4
	.long	12
	.long	12
	.long	8
	.long	12
	.long	8
	.long	12
	.long	8
	.long	3
	.long	11
	.long	7
	.long	7
	.long	7
	.long	4
	.long	7
	.long	15
	.long	11
	.long	15
	.long	11
	.long	8
	.long	15
	.long	11
	.long	7
	.long	9
	.long	7
	.long	0
	.long	2
	.long	7
	.long	10
	.long	6
	.long	6
	.long	6
	.long	6
	.long	14
	.long	10
	.long	14
	.long	10
	.long	14
	.long	10
	.long	11
	.long	8
	.long	6
	.long	0
	.long	0
	.long	3
	.long	9
	.long	5
	.long	5
	.long	5
	.long	5
	.long	13
	.long	9
	.long	13
	.long	9
	.long	13
	.long	9
	.long	6
	.long	10
	.long	5
	.long	0
	.long	0
	.long	0
	.long	5
	.long	4
	.long	6
	.long	8
	.long	4
	.long	4
	.long	4
	.long	12
	.long	8
	.long	12
	.long	12
	.long	8
	.long	1
	.long	4
	.long	15
	.long	15
	.long	11
	.long	8
	.long	15
	.long	11
	.long	9
	.long	8
	.long	15
	.long	11
	.long	15
	.long	11
	.long	8
	.long	13
	.long	9
	.long	5
	.long	1
	.long	0
	.long	14
	.long	15
	.long	12
	.long	10
	.long	8
	.long	14
	.long	10
	.long	14
	.long	14
	.long	10
	.long	14
	.long	10
	.long	7
	.long	12
	.long	8
	.long	4
	.long	0
	.long	0
	.long	13
	.long	14
	.long	11
	.long	9
	.long	13
	.long	9
	.long	13
	.long	10
	.long	13
	.long	9
	.long	13
	.long	9
	.long	11
	.long	7
	.long	3
	.long	0
	.long	0
	.long	0
	.long	12
	.long	11
	.long	10
	.long	9
	.long	8
	.long	13
	.long	12
	.long	12
	.long	12
	.long	8
	.long	12
	.long	10
	.long	6
	.long	2
	.align 32
	.type	lentab.5548, @object
	.size	lentab.5548, 816
lentab.5548:
	.long	2
	.long	6
	.long	6
	.long	6
	.long	6
	.long	0
	.long	0
	.long	0
	.long	0
	.long	0
	.long	0
	.long	0
	.long	0
	.long	0
	.long	0
	.long	0
	.long	0
	.long	0
	.long	1
	.long	6
	.long	7
	.long	8
	.long	0
	.long	0
	.long	0
	.long	0
	.long	0
	.long	0
	.long	0
	.long	0
	.long	0
	.long	0
	.long	0
	.long	0
	.long	0
	.long	0
	.long	3
	.long	7
	.long	8
	.long	0
	.long	0
	.long	0
	.long	0
	.long	0
	.long	0
	.long	0
	.long	0
	.long	0
	.long	0
	.long	0
	.long	0
	.long	0
	.long	0
	.long	0
	.long	6
	.long	7
	.long	0
	.long	0
	.long	0
	.long	0
	.long	0
	.long	0
	.long	0
	.long	0
	.long	0
	.long	0
	.long	0
	.long	0
	.long	1
	.long	7
	.long	7
	.long	9
	.long	9
	.long	10
	.long	11
	.long	12
	.long	13
	.long	0
	.long	0
	.long	0
	.long	0
	.long	0
	.long	0
	.long	0
	.long	0
	.long	0
	.long	2
	.long	7
	.long	7
	.long	9
	.long	10
	.long	11
	.long	12
	.long	12
	.long	0
	.long	0
	.long	0
	.long	0
	.long	0
	.long	0
	.long	0
	.long	0
	.long	0
	.long	0
	.long	3
	.long	7
	.long	7
	.long	9
	.long	10
	.long	11
	.long	12
	.long	0
	.long	0
	.long	0
	.long	0
	.long	0
	.long	0
	.long	0
	.long	0
	.long	0
	.long	0
	.long	0
	.long	5
	.long	6
	.long	7
	.long	7
	.long	10
	.long	11
	.long	0
	.long	0
	.long	0
	.long	0
	.long	0
	.long	0
	.long	0
	.long	0
	.long	1
	.long	6
	.long	8
	.long	9
	.long	10
	.long	11
	.long	13
	.long	13
	.long	13
	.long	14
	.long	14
	.long	15
	.long	15
	.long	16
	.long	16
	.long	16
	.long	16
	.long	0
	.long	2
	.long	6
	.long	8
	.long	9
	.long	10
	.long	11
	.long	13
	.long	13
	.long	14
	.long	14
	.long	15
	.long	15
	.long	15
	.long	16
	.long	16
	.long	16
	.long	0
	.long	0
	.long	3
	.long	7
	.long	8
	.long	9
	.long	10
	.long	11
	.long	13
	.long	13
	.long	14
	.long	14
	.long	15
	.long	15
	.long	16
	.long	16
	.long	16
	.long	0
	.long	0
	.long	0
	.long	5
	.long	6
	.long	7
	.long	8
	.long	9
	.long	10
	.long	11
	.long	13
	.long	14
	.long	14
	.long	15
	.long	15
	.long	16
	.long	16
	.align 32
	.type	codtab.5549, @object
	.size	codtab.5549, 816
codtab.5549:
	.long	1
	.long	7
	.long	4
	.long	3
	.long	2
	.long	0
	.long	0
	.long	0
	.long	0
	.long	0
	.long	0
	.long	0
	.long	0
	.long	0
	.long	0
	.long	0
	.long	0
	.long	0
	.long	1
	.long	6
	.long	3
	.long	3
	.long	0
	.long	0
	.long	0
	.long	0
	.long	0
	.long	0
	.long	0
	.long	0
	.long	0
	.long	0
	.long	0
	.long	0
	.long	0
	.long	0
	.long	1
	.long	2
	.long	2
	.long	0
	.long	0
	.long	0
	.long	0
	.long	0
	.long	0
	.long	0
	.long	0
	.long	0
	.long	0
	.long	0
	.long	0
	.long	0
	.long	0
	.long	0
	.long	5
	.long	0
	.long	0
	.long	0
	.long	0
	.long	0
	.long	0
	.long	0
	.long	0
	.long	0
	.long	0
	.long	0
	.long	0
	.long	0
	.long	1
	.long	15
	.long	14
	.long	7
	.long	6
	.long	7
	.long	7
	.long	7
	.long	7
	.long	0
	.long	0
	.long	0
	.long	0
	.long	0
	.long	0
	.long	0
	.long	0
	.long	0
	.long	1
	.long	13
	.long	12
	.long	5
	.long	6
	.long	6
	.long	6
	.long	5
	.long	0
	.long	0
	.long	0
	.long	0
	.long	0
	.long	0
	.long	0
	.long	0
	.long	0
	.long	0
	.long	1
	.long	11
	.long	10
	.long	4
	.long	5
	.long	5
	.long	4
	.long	0
	.long	0
	.long	0
	.long	0
	.long	0
	.long	0
	.long	0
	.long	0
	.long	0
	.long	0
	.long	0
	.long	1
	.long	1
	.long	9
	.long	8
	.long	4
	.long	4
	.long	0
	.long	0
	.long	0
	.long	0
	.long	0
	.long	0
	.long	0
	.long	0
	.long	1
	.long	5
	.long	7
	.long	7
	.long	7
	.long	7
	.long	15
	.long	11
	.long	8
	.long	15
	.long	11
	.long	15
	.long	11
	.long	15
	.long	11
	.long	7
	.long	4
	.long	0
	.long	1
	.long	4
	.long	6
	.long	6
	.long	6
	.long	6
	.long	14
	.long	10
	.long	14
	.long	10
	.long	14
	.long	10
	.long	1
	.long	14
	.long	10
	.long	6
	.long	0
	.long	0
	.long	1
	.long	5
	.long	5
	.long	5
	.long	5
	.long	5
	.long	13
	.long	9
	.long	13
	.long	9
	.long	13
	.long	9
	.long	13
	.long	9
	.long	5
	.long	0
	.long	0
	.long	0
	.long	3
	.long	3
	.long	4
	.long	4
	.long	4
	.long	4
	.long	4
	.long	12
	.long	12
	.long	8
	.long	12
	.long	8
	.long	12
	.long	8
	.align 32
	.type	lentab.5555, @object
	.size	lentab.5555, 960
lentab.5555:
	.long	1
	.long	3
	.long	3
	.long	4
	.long	4
	.long	5
	.long	5
	.long	6
	.long	6
	.long	7
	.long	7
	.long	8
	.long	8
	.long	9
	.long	9
	.long	9
	.long	3
	.long	3
	.long	3
	.long	3
	.long	3
	.long	4
	.long	4
	.long	4
	.long	4
	.long	5
	.long	5
	.long	6
	.long	6
	.long	6
	.long	6
	.zero	4
	.long	4
	.long	3
	.long	3
	.long	3
	.long	4
	.long	4
	.long	3
	.long	3
	.long	4
	.long	5
	.long	5
	.long	6
	.long	5
	.long	6
	.zero	8
	.long	5
	.long	3
	.long	4
	.long	4
	.long	3
	.long	3
	.long	3
	.long	4
	.long	3
	.long	4
	.long	5
	.long	5
	.long	5
	.zero	12
	.long	4
	.long	4
	.long	4
	.long	3
	.long	3
	.long	3
	.long	3
	.long	3
	.long	4
	.long	5
	.long	4
	.long	5
	.zero	16
	.long	6
	.long	5
	.long	3
	.long	3
	.long	3
	.long	3
	.long	3
	.long	3
	.long	4
	.long	3
	.long	6
	.zero	20
	.long	6
	.long	5
	.long	3
	.long	3
	.long	3
	.long	2
	.long	3
	.long	4
	.long	3
	.long	6
	.zero	24
	.long	6
	.long	4
	.long	5
	.long	3
	.long	2
	.long	2
	.long	3
	.long	3
	.long	6
	.zero	28
	.long	6
	.long	6
	.long	4
	.long	2
	.long	2
	.long	3
	.long	2
	.long	5
	.zero	32
	.long	5
	.long	5
	.long	3
	.long	2
	.long	2
	.long	2
	.long	4
	.zero	36
	.long	4
	.long	4
	.long	3
	.long	3
	.long	1
	.long	3
	.zero	40
	.long	4
	.long	4
	.long	2
	.long	1
	.long	3
	.zero	44
	.long	3
	.long	3
	.long	1
	.long	2
	.zero	48
	.long	2
	.long	2
	.long	1
	.zero	52
	.long	1
	.long	1
	.zero	56
	.align 32
	.type	codtab.5556, @object
	.size	codtab.5556, 960
codtab.5556:
	.long	1
	.long	3
	.long	2
	.long	3
	.long	2
	.long	3
	.long	2
	.long	3
	.long	2
	.long	3
	.long	2
	.long	3
	.long	2
	.long	3
	.long	2
	.long	1
	.long	7
	.long	6
	.long	5
	.long	4
	.long	3
	.long	5
	.long	4
	.long	3
	.long	2
	.long	3
	.long	2
	.long	3
	.long	2
	.long	1
	.long	0
	.zero	4
	.long	5
	.long	7
	.long	6
	.long	5
	.long	4
	.long	3
	.long	4
	.long	3
	.long	2
	.long	3
	.long	2
	.long	1
	.long	1
	.long	0
	.zero	8
	.long	3
	.long	7
	.long	5
	.long	4
	.long	6
	.long	5
	.long	4
	.long	3
	.long	3
	.long	2
	.long	2
	.long	1
	.long	0
	.zero	12
	.long	5
	.long	4
	.long	3
	.long	7
	.long	6
	.long	5
	.long	4
	.long	3
	.long	2
	.long	1
	.long	1
	.long	0
	.zero	16
	.long	1
	.long	1
	.long	7
	.long	6
	.long	5
	.long	4
	.long	3
	.long	2
	.long	1
	.long	1
	.long	0
	.zero	20
	.long	1
	.long	1
	.long	5
	.long	4
	.long	3
	.long	3
	.long	2
	.long	1
	.long	1
	.long	0
	.zero	24
	.long	1
	.long	1
	.long	1
	.long	3
	.long	3
	.long	2
	.long	2
	.long	1
	.long	0
	.zero	28
	.long	1
	.long	0
	.long	1
	.long	3
	.long	2
	.long	1
	.long	1
	.long	1
	.zero	32
	.long	1
	.long	0
	.long	1
	.long	3
	.long	2
	.long	1
	.long	1
	.zero	36
	.long	0
	.long	1
	.long	1
	.long	2
	.long	1
	.long	3
	.zero	40
	.long	0
	.long	1
	.long	1
	.long	1
	.long	1
	.zero	44
	.long	0
	.long	1
	.long	1
	.long	1
	.zero	48
	.long	0
	.long	1
	.long	1
	.zero	52
	.long	0
	.long	1
	.zero	56
	.align 32
	.type	lentab.5562, @object
	.size	lentab.5562, 2880
lentab.5562:
	.long	1
	.long	2
	.long	3
	.long	3
	.zero	48
	.long	1
	.long	2
	.long	2
	.zero	52
	.long	1
	.long	1
	.zero	56
	.zero	768
	.long	1
	.long	3
	.long	3
	.long	4
	.long	4
	.long	4
	.long	5
	.long	5
	.zero	32
	.long	3
	.long	2
	.long	3
	.long	3
	.long	3
	.long	3
	.long	3
	.zero	36
	.long	3
	.long	3
	.long	2
	.long	2
	.long	3
	.long	3
	.zero	40
	.long	3
	.long	2
	.long	2
	.long	2
	.long	3
	.zero	44
	.long	2
	.long	2
	.long	2
	.long	2
	.zero	48
	.long	2
	.long	2
	.long	1
	.zero	52
	.long	1
	.long	1
	.zero	56
	.zero	512
	.long	1
	.long	3
	.long	3
	.long	4
	.long	4
	.long	5
	.long	5
	.long	6
	.long	6
	.long	7
	.long	7
	.long	8
	.long	8
	.long	9
	.long	9
	.long	9
	.long	3
	.long	3
	.long	3
	.long	3
	.long	3
	.long	4
	.long	4
	.long	4
	.long	4
	.long	5
	.long	5
	.long	6
	.long	6
	.long	6
	.long	6
	.zero	4
	.long	4
	.long	3
	.long	3
	.long	3
	.long	4
	.long	4
	.long	3
	.long	3
	.long	4
	.long	5
	.long	5
	.long	6
	.long	5
	.long	6
	.zero	8
	.long	5
	.long	3
	.long	4
	.long	4
	.long	3
	.long	3
	.long	3
	.long	4
	.long	3
	.long	4
	.long	5
	.long	5
	.long	5
	.zero	12
	.long	4
	.long	4
	.long	4
	.long	3
	.long	3
	.long	3
	.long	3
	.long	3
	.long	4
	.long	5
	.long	4
	.long	5
	.zero	16
	.long	6
	.long	5
	.long	3
	.long	3
	.long	3
	.long	3
	.long	3
	.long	3
	.long	4
	.long	3
	.long	6
	.zero	20
	.long	6
	.long	5
	.long	3
	.long	3
	.long	3
	.long	2
	.long	3
	.long	4
	.long	3
	.long	6
	.zero	24
	.long	6
	.long	4
	.long	5
	.long	3
	.long	2
	.long	2
	.long	3
	.long	3
	.long	6
	.zero	28
	.long	6
	.long	6
	.long	4
	.long	2
	.long	2
	.long	3
	.long	2
	.long	5
	.zero	32
	.long	5
	.long	5
	.long	3
	.long	2
	.long	2
	.long	2
	.long	4
	.zero	36
	.long	4
	.long	4
	.long	3
	.long	3
	.long	1
	.long	3
	.zero	40
	.long	4
	.long	4
	.long	2
	.long	1
	.long	3
	.zero	44
	.long	3
	.long	3
	.long	1
	.long	2
	.zero	48
	.long	2
	.long	2
	.long	1
	.zero	52
	.long	1
	.long	1
	.zero	56
	.align 32
	.type	codtab.5563, @object
	.size	codtab.5563, 2880
codtab.5563:
	.long	1
	.long	1
	.long	1
	.long	0
	.zero	48
	.long	1
	.long	1
	.long	0
	.zero	52
	.long	1
	.long	0
	.zero	56
	.zero	768
	.long	1
	.long	2
	.long	3
	.long	2
	.long	3
	.long	1
	.long	1
	.long	0
	.zero	32
	.long	0
	.long	1
	.long	1
	.long	4
	.long	5
	.long	6
	.long	7
	.zero	36
	.long	0
	.long	1
	.long	1
	.long	2
	.long	6
	.long	7
	.zero	40
	.long	6
	.long	0
	.long	1
	.long	2
	.long	7
	.zero	44
	.long	0
	.long	1
	.long	2
	.long	3
	.zero	48
	.long	0
	.long	1
	.long	1
	.zero	52
	.long	0
	.long	1
	.zero	56
	.zero	512
	.long	1
	.long	3
	.long	2
	.long	3
	.long	2
	.long	3
	.long	2
	.long	3
	.long	2
	.long	3
	.long	2
	.long	3
	.long	2
	.long	3
	.long	2
	.long	1
	.long	7
	.long	6
	.long	5
	.long	4
	.long	3
	.long	5
	.long	4
	.long	3
	.long	2
	.long	3
	.long	2
	.long	3
	.long	2
	.long	1
	.long	0
	.zero	4
	.long	5
	.long	7
	.long	6
	.long	5
	.long	4
	.long	3
	.long	4
	.long	3
	.long	2
	.long	3
	.long	2
	.long	1
	.long	1
	.long	0
	.zero	8
	.long	3
	.long	7
	.long	5
	.long	4
	.long	6
	.long	5
	.long	4
	.long	3
	.long	3
	.long	2
	.long	2
	.long	1
	.long	0
	.zero	12
	.long	5
	.long	4
	.long	3
	.long	7
	.long	6
	.long	5
	.long	4
	.long	3
	.long	2
	.long	1
	.long	1
	.long	0
	.zero	16
	.long	1
	.long	1
	.long	7
	.long	6
	.long	5
	.long	4
	.long	3
	.long	2
	.long	1
	.long	1
	.long	0
	.zero	20
	.long	1
	.long	1
	.long	5
	.long	4
	.long	3
	.long	3
	.long	2
	.long	1
	.long	1
	.long	0
	.zero	24
	.long	1
	.long	1
	.long	1
	.long	3
	.long	3
	.long	2
	.long	2
	.long	1
	.long	0
	.zero	28
	.long	1
	.long	0
	.long	1
	.long	3
	.long	2
	.long	1
	.long	1
	.long	1
	.zero	32
	.long	1
	.long	0
	.long	1
	.long	3
	.long	2
	.long	1
	.long	1
	.zero	36
	.long	0
	.long	1
	.long	1
	.long	2
	.long	1
	.long	3
	.zero	40
	.long	0
	.long	1
	.long	1
	.long	1
	.long	1
	.zero	44
	.long	0
	.long	1
	.long	1
	.long	1
	.zero	48
	.long	0
	.long	1
	.long	1
	.zero	52
	.long	0
	.long	1
	.zero	56
	.align 32
	.type	lentab.5570, @object
	.size	lentab.5570, 960
lentab.5570:
	.long	1
	.long	1
	.zero	56
	.long	1
	.long	2
	.long	2
	.zero	52
	.long	2
	.long	2
	.long	2
	.long	2
	.zero	48
	.long	2
	.long	2
	.long	2
	.long	3
	.long	3
	.zero	44
	.long	2
	.long	2
	.long	3
	.long	3
	.long	3
	.long	3
	.zero	40
	.long	2
	.long	3
	.long	3
	.long	3
	.long	3
	.long	3
	.long	3
	.zero	36
	.long	3
	.long	3
	.long	3
	.long	3
	.long	3
	.long	3
	.long	3
	.long	4
	.long	5
	.long	6
	.long	7
	.long	8
	.long	9
	.long	10
	.long	11
	.zero	4
	.zero	512
	.align 32
	.type	codtab.5571, @object
	.size	codtab.5571, 960
codtab.5571:
	.long	1
	.long	0
	.zero	56
	.long	1
	.long	1
	.long	0
	.zero	52
	.long	3
	.long	2
	.long	1
	.long	0
	.zero	48
	.long	3
	.long	2
	.long	1
	.long	1
	.long	0
	.zero	44
	.long	3
	.long	2
	.long	3
	.long	2
	.long	1
	.long	0
	.zero	40
	.long	3
	.long	0
	.long	1
	.long	3
	.long	2
	.long	5
	.long	4
	.zero	36
	.long	7
	.long	6
	.long	5
	.long	4
	.long	3
	.long	2
	.long	1
	.long	1
	.long	1
	.long	1
	.long	1
	.long	1
	.long	1
	.long	1
	.long	1
	.zero	4
	.zero	512
	.text
.Letext0:
	.file 2 "/usr/include/x86_64-linux-gnu/sys/types.h"
	.file 3 "defines.h"
	.file 4 "parsetcommon.h"
	.file 5 "global.h"
	.section	.note.GNU-stack,"",@progbits
