	.file	"Cwd.c"
# GNU C (Ubuntu/Linaro 4.8.1-10ubuntu9) version 4.8.1 (x86_64-linux-gnu)
#	compiled by GNU C version 4.8.1, GMP version 5.1.2, MPFR version 3.1.1-p2, MPC version 1.0.1
# GGC heuristics: --param ggc-min-expand=100 --param ggc-min-heapsize=131072
# options passed:  -imultiarch x86_64-linux-gnu -D SPEC_CPU -D NDEBUG
# -D PERL_CORE -D SPEC_CPU_LP64 -D SPEC_CPU_LINUX_X64 Cwd.c -mtune=generic
# -march=x86-64 -g -fverbose-asm -fno-strict-aliasing -fstack-protector
# -Wformat -Wformat-security
# options enabled:  -faggressive-loop-optimizations
# -fasynchronous-unwind-tables -fauto-inc-dec -fbranch-count-reg -fcommon
# -fdelete-null-pointer-checks -fdwarf2-cfi-asm -fearly-inlining
# -feliminate-unused-debug-types -ffunction-cse -fgcse-lm -fgnu-runtime
# -fident -finline-atomics -fira-hoist-pressure -fira-share-save-slots
# -fira-share-spill-slots -fivopts -fkeep-static-consts
# -fleading-underscore -fmath-errno -fmerge-debug-strings
# -fmove-loop-invariants -fpeephole -fprefetch-loop-arrays
# -freg-struct-return -fsched-critical-path-heuristic
# -fsched-dep-count-heuristic -fsched-group-heuristic -fsched-interblock
# -fsched-last-insn-heuristic -fsched-rank-heuristic -fsched-spec
# -fsched-spec-insn-heuristic -fsched-stalled-insns-dep -fshow-column
# -fsigned-zeros -fsplit-ivs-in-unroller -fstack-protector
# -fstrict-volatile-bitfields -fsync-libcalls -ftrapping-math
# -ftree-coalesce-vars -ftree-cselim -ftree-forwprop -ftree-loop-if-convert
# -ftree-loop-im -ftree-loop-ivcanon -ftree-loop-optimize
# -ftree-parallelize-loops= -ftree-phiprop -ftree-pta -ftree-reassoc
# -ftree-scev-cprop -ftree-slp-vectorize -ftree-vect-loop-version
# -funit-at-a-time -funwind-tables -fverbose-asm -fzero-initialized-in-bss
# -m128bit-long-double -m64 -m80387 -maccumulate-outgoing-args
# -malign-stringops -mfancy-math-387 -mfp-ret-in-387 -mfxsr -mglibc
# -mieee-fp -mlong-double-80 -mmmx -mno-sse4 -mpush-args -mred-zone -msse
# -msse2 -mtls-direct-seg-refs

	.text
.Ltext0:
	.section	.rodata
.LC0:
	.string	"/"
	.text
	.type	bsd_realpath, @function
bsd_realpath:
.LFB2:
	.file 1 "Cwd.c"
	.loc 1 85 0
	.cfi_startproc
	pushq	%rbp	#
	.cfi_def_cfa_offset 16
	.cfi_offset 6, -16
	movq	%rsp, %rbp	#,
	.cfi_def_cfa_register 6
	pushq	%rbx	#
	subq	$8264, %rsp	#,
	.cfi_offset 3, -24
	movq	%rdi, -8264(%rbp)	# path, path
	movq	%rsi, -8272(%rbp)	# resolved, resolved
	.loc 1 85 0
	movq	%fs:40, %rax	#, tmp126
	movq	%rax, -24(%rbp)	# tmp126, D.10558
	xorl	%eax, %eax	# tmp126
	.loc 1 92 0
	movl	$0, -8244(%rbp)	#, symlinks
	.loc 1 105 0
	leaq	-4128(%rbp), %rax	#, tmp85
	movl	$4095, %esi	#,
	movq	%rax, %rdi	# tmp85,
	call	getcwd	#
	testq	%rax, %rax	# D.10553
	jne	.L2	#,
	.loc 1 106 0
	movq	-8272(%rbp), %rax	# resolved, tmp86
	movw	$46, (%rax)	#, MEM[(void *)resolved_9(D)]
	.loc 1 107 0
	movl	$0, %eax	#, D.10553
	jmp	.L19	#
.L2:
	.loc 1 119 0
	movq	-8264(%rbp), %rcx	# path, tmp87
	movq	-8272(%rbp), %rax	# resolved, tmp88
	movl	$4095, %edx	#,
	movq	%rcx, %rsi	# tmp87,
	movq	%rax, %rdi	# tmp88,
	call	strncpy	#
	.loc 1 120 0
	movq	-8272(%rbp), %rax	# resolved, tmp89
	addq	$4095, %rax	#, D.10553
	movb	$0, (%rax)	#, *_12
.L4:
	.loc 1 122 0
	movq	-8272(%rbp), %rax	# resolved, tmp90
	movl	$47, %esi	#,
	movq	%rax, %rdi	# tmp90,
	call	strrchr	#
	movq	%rax, -8232(%rbp)	# tmp91, q
	.loc 1 123 0
	cmpq	$0, -8232(%rbp)	#, q
	je	.L5	#,
	.loc 1 124 0
	movq	-8232(%rbp), %rax	# q, tmp95
	addq	$1, %rax	#, tmp94
	movq	%rax, -8240(%rbp)	# tmp94, p
	.loc 1 125 0
	movq	-8232(%rbp), %rax	# q, tmp96
	cmpq	-8272(%rbp), %rax	# resolved, tmp96
	jne	.L6	#,
	.loc 1 126 0
	movq	$.LC0, -8232(%rbp)	#, q
	jmp	.L7	#
.L6:
	.loc 1 129 0 discriminator 1
	subq	$1, -8232(%rbp)	#, q
	.loc 1 130 0 discriminator 1
	movq	-8232(%rbp), %rax	# q, tmp97
	cmpq	-8272(%rbp), %rax	# resolved, tmp97
	jbe	.L8	#,
	movq	-8232(%rbp), %rax	# q, tmp98
	movzbl	(%rax), %eax	# *q_16, D.10554
	cmpb	$47, %al	#, D.10554
	je	.L6	#,
.L8:
	.loc 1 131 0
	movq	-8232(%rbp), %rax	# q, tmp99
	addq	$1, %rax	#, D.10553
	movb	$0, (%rax)	#, *_18
	.loc 1 132 0
	movq	-8272(%rbp), %rax	# resolved, tmp100
	movq	%rax, -8232(%rbp)	# tmp100, q
.L7:
	.loc 1 134 0
	movq	-8232(%rbp), %rax	# q, tmp101
	movq	%rax, %rdi	# tmp101,
	call	chdir	#
	testl	%eax, %eax	# D.10555
	jns	.L9	#,
	.loc 1 135 0
	jmp	.L10	#
.L5:
	.loc 1 137 0
	movq	-8272(%rbp), %rax	# resolved, tmp102
	movq	%rax, -8240(%rbp)	# tmp102, p
.L9:
	.loc 1 169 0
	movq	-8240(%rbp), %rdx	# p, tmp103
	leaq	-8224(%rbp), %rax	#, tmp104
	movq	%rdx, %rsi	# tmp103,
	movq	%rax, %rdi	# tmp104,
	call	strcpy	#
	.loc 1 170 0
	movq	-8272(%rbp), %rax	# resolved, tmp105
	movl	$4096, %esi	#,
	movq	%rax, %rdi	# tmp105,
	call	getcwd	#
	testq	%rax, %rax	# D.10553
	jne	.L11	#,
	.loc 1 171 0
	jmp	.L10	#
.L11:
	.loc 1 177 0
	movq	-8272(%rbp), %rax	# resolved, tmp106
	movzbl	(%rax), %eax	# *resolved_9(D), D.10554
	cmpb	$47, %al	#, D.10554
	jne	.L12	#,
	.loc 1 177 0 is_stmt 0 discriminator 1
	movq	-8272(%rbp), %rax	# resolved, tmp107
	addq	$1, %rax	#, D.10553
	movzbl	(%rax), %eax	# *_24, D.10554
	testb	%al, %al	# D.10554
	jne	.L12	#,
	.loc 1 178 0 is_stmt 1
	movl	$1, -8252(%rbp)	#, rootd
	jmp	.L13	#
.L12:
	.loc 1 180 0
	movl	$0, -8252(%rbp)	#, rootd
.L13:
	.loc 1 182 0
	movzbl	-8224(%rbp), %eax	# wbuf, D.10554
	testb	%al, %al	# D.10554
	je	.L14	#,
	.loc 1 183 0
	movq	-8272(%rbp), %rax	# resolved, tmp108
	movq	%rax, %rdi	# tmp108,
	call	strlen	#
	movq	%rax, %rbx	#, D.10556
	leaq	-8224(%rbp), %rax	#, tmp109
	movq	%rax, %rdi	# tmp109,
	call	strlen	#
	leaq	(%rbx,%rax), %rdx	#, D.10556
	movl	$1, %eax	#, tmp110
	subl	-8252(%rbp), %eax	# rootd, D.10555
	cltq
	addq	%rdx, %rax	# D.10556, D.10556
	addq	$1, %rax	#, D.10556
	cmpq	$4096, %rax	#, D.10556
	jbe	.L15	#,
	.loc 1 184 0
	call	__errno_location	#
	movl	$36, (%rax)	#, *_36
	.loc 1 185 0
	jmp	.L10	#
.L15:
	.loc 1 187 0
	cmpl	$0, -8252(%rbp)	#, rootd
	jne	.L16	#,
	.loc 1 188 0
	movq	-8272(%rbp), %rax	# resolved, tmp111
	movq	$-1, %rcx	#, tmp115
	movq	%rax, %rdx	# tmp111, tmp114
	movl	$0, %eax	#, tmp116
	movq	%rdx, %rdi	# tmp114, tmp114
	repnz scasb
	movq	%rcx, %rax	# tmp112, tmp112
	notq	%rax	# tmp113
	leaq	-1(%rax), %rdx	#, D.10556
	movq	-8272(%rbp), %rax	# resolved, tmp117
	addq	%rdx, %rax	# D.10556, D.10553
	movw	$47, (%rax)	#, MEM[(void *)_38]
.L16:
	.loc 1 189 0
	leaq	-8224(%rbp), %rdx	#, tmp118
	movq	-8272(%rbp), %rax	# resolved, tmp119
	movq	%rdx, %rsi	# tmp118,
	movq	%rax, %rdi	# tmp119,
	call	strcat	#
.L14:
	.loc 1 199 0
	leaq	-4128(%rbp), %rax	#, tmp120
	movq	%rax, %rdi	# tmp120,
	call	chdir	#
	testl	%eax, %eax	# D.10555
	jns	.L17	#,
	.loc 1 200 0
	call	__errno_location	#
	movl	(%rax), %eax	# *_40, tmp121
	movl	%eax, -8248(%rbp)	# tmp121, serrno
	.loc 1 201 0
	jmp	.L18	#
.L17:
	.loc 1 209 0
	movq	-8272(%rbp), %rax	# resolved, D.10553
	jmp	.L19	#
.L10:
	.loc 1 211 0
	call	__errno_location	#
	movl	(%rax), %eax	# *_43, tmp122
	movl	%eax, -8248(%rbp)	# tmp122, serrno
	.loc 1 215 0
	leaq	-4128(%rbp), %rax	#, tmp123
	movq	%rax, %rdi	# tmp123,
	call	chdir	#
.L18:
	.loc 1 222 0
	call	__errno_location	#
	movl	-8248(%rbp), %edx	# serrno, tmp124
	movl	%edx, (%rax)	# tmp124, *_45
	.loc 1 223 0
	movl	$0, %eax	#, D.10553
.L19:
	.loc 1 225 0
	movq	-24(%rbp), %rbx	# D.10558, tmp127
	xorq	%fs:40, %rbx	#, tmp127
	je	.L20	#,
	call	__stack_chk_fail	#
.L20:
	addq	$8264, %rsp	#,
	popq	%rbx	#
	popq	%rbp	#
	.cfi_def_cfa 7, 8
	ret
	.cfi_endproc
.LFE2:
	.size	bsd_realpath, .-bsd_realpath
	.section	.rodata
.LC1:
	.string	"Usage: Cwd::fastcwd()"
	.text
	.globl	XS_Cwd_fastcwd
	.type	XS_Cwd_fastcwd, @function
XS_Cwd_fastcwd:
.LFB3:
	.loc 1 407 0
	.cfi_startproc
	pushq	%rbp	#
	.cfi_def_cfa_offset 16
	.cfi_offset 6, -16
	movq	%rsp, %rbp	#,
	.cfi_def_cfa_register 6
	pushq	%r12	#
	pushq	%rbx	#
	subq	$32, %rsp	#,
	.cfi_offset 12, -24
	.cfi_offset 3, -32
	movq	%rdi, -40(%rbp)	# cv, cv
	.loc 1 408 0
	movq	PL_stack_sp(%rip), %rbx	# PL_stack_sp, sp
	movq	PL_stack_base(%rip), %rcx	# PL_stack_base, PL_stack_base.0
	movq	PL_markstack_ptr(%rip), %rax	# PL_markstack_ptr, PL_markstack_ptr.1
	leaq	-4(%rax), %rdx	#, PL_markstack_ptr.3
	movq	%rdx, PL_markstack_ptr(%rip)	# PL_markstack_ptr.3, PL_markstack_ptr
	movl	(%rax), %eax	# *PL_markstack_ptr.2_5, D.10562
	cltq
	salq	$3, %rax	#, D.10563
	leaq	(%rcx,%rax), %r12	#, mark
	movq	%r12, %rdx	# mark, mark.4
	movq	PL_stack_base(%rip), %rax	# PL_stack_base, PL_stack_base.5
	subq	%rax, %rdx	# PL_stack_base.6, D.10564
	movq	%rdx, %rax	# D.10564, D.10564
	sarq	$3, %rax	#, tmp99
	addl	$1, %eax	#, D.10565
	movl	%eax, -32(%rbp)	# D.10565, ax
	movq	%rbx, %rdx	# sp, sp.7
	movq	%r12, %rax	# mark, mark.8
	subq	%rax, %rdx	# mark.8, D.10564
	movq	%rdx, %rax	# D.10564, D.10564
	sarq	$3, %rax	#, tmp100
	movl	%eax, -28(%rbp)	# D.10564, items
	.loc 1 409 0
	cmpl	$0, -28(%rbp)	#, items
	je	.L27	#,
	.loc 1 410 0
	movl	$.LC1, %edi	#,
	movl	$0, %eax	#,
	call	Perl_croak	#
.L27:
	.loc 1 412 0
	movl	-28(%rbp), %eax	# items, tmp101
	cltq
	salq	$3, %rax	#, D.10563
	negq	%rax	# D.10566
	addq	%rax, %rbx	# D.10566, sp
.LBB2:
	.loc 1 416 0
	movq	PL_op(%rip), %rax	# PL_op, PL_op.10
	movzbl	37(%rax), %eax	# PL_op.10_28->op_private, D.10567
	movzbl	%al, %eax	# D.10567, D.10562
	andl	$32, %eax	#, D.10562
	testl	%eax, %eax	# D.10562
	je	.L23	#,
	.loc 1 416 0 is_stmt 0 discriminator 1
	movq	PL_curpad(%rip), %rdx	# PL_curpad, PL_curpad.11
	movq	PL_op(%rip), %rax	# PL_op, PL_op.12
	movq	24(%rax), %rax	# PL_op.12_33->op_targ, D.10563
	salq	$3, %rax	#, D.10563
	addq	%rdx, %rax	# PL_curpad.11, D.10568
	movq	(%rax), %rax	# *_36, iftmp.9
	jmp	.L24	#
.L23:
	.loc 1 416 0 discriminator 2
	call	Perl_sv_newmortal	#
.L24:
	.loc 1 416 0 discriminator 3
	movq	%rax, -24(%rbp)	# iftmp.9, targ
	.loc 1 417 0 is_stmt 1 discriminator 3
	movq	-24(%rbp), %rax	# targ, tmp102
	movq	%rax, %rdi	# tmp102,
	call	Perl_getcwd_sv	#
	.loc 1 418 0 discriminator 3
	movq	PL_stack_base(%rip), %rax	# PL_stack_base, PL_stack_base.13
	movl	-32(%rbp), %edx	# ax, tmp103
	movslq	%edx, %rdx	# tmp103, D.10563
	salq	$3, %rdx	#, D.10563
	subq	$8, %rdx	#, D.10566
	leaq	(%rax,%rdx), %rbx	#, sp
.LBB3:
	movq	-24(%rbp), %rax	# targ, tmp104
	movl	12(%rax), %eax	# targ_39->sv_flags, D.10569
	andl	$16384, %eax	#, D.10569
	testl	%eax, %eax	# D.10569
	je	.L25	#,
	.loc 1 418 0 is_stmt 0 discriminator 1
	movq	-24(%rbp), %rax	# targ, tmp105
	movq	%rax, %rdi	# tmp105,
	call	Perl_mg_set	#
.L25:
	.loc 1 418 0 discriminator 2
	addq	$8, %rbx	#, sp
	movq	-24(%rbp), %rax	# targ, tmp106
	movq	%rax, (%rbx)	# tmp106, *sp_47
.LBE3:
.LBE2:
	.loc 1 424 0 is_stmt 1 discriminator 2
	movq	%rbx, PL_stack_sp(%rip)	# sp, PL_stack_sp
	.loc 1 425 0 discriminator 2
	nop
	.loc 1 427 0 discriminator 2
	addq	$32, %rsp	#,
	popq	%rbx	#
	popq	%r12	#
	popq	%rbp	#
	.cfi_def_cfa 7, 8
	ret
	.cfi_endproc
.LFE3:
	.size	XS_Cwd_fastcwd, .-XS_Cwd_fastcwd
	.section	.rodata
	.align 8
.LC2:
	.string	"Usage: Cwd::abs_path(pathsv=Nullsv)"
.LC3:
	.string	"."
	.text
	.globl	XS_Cwd_abs_path
	.type	XS_Cwd_abs_path, @function
XS_Cwd_abs_path:
.LFB4:
	.loc 1 431 0
	.cfi_startproc
	pushq	%rbp	#
	.cfi_def_cfa_offset 16
	.cfi_offset 6, -16
	movq	%rsp, %rbp	#,
	.cfi_def_cfa_register 6
	pushq	%r12	#
	pushq	%rbx	#
	subq	$4160, %rsp	#,
	.cfi_offset 12, -24
	.cfi_offset 3, -32
	movq	%rdi, -4168(%rbp)	# cv, cv
	.loc 1 431 0
	movq	%fs:40, %rax	#, tmp138
	movq	%rax, -24(%rbp)	# tmp138, D.10583
	xorl	%eax, %eax	# tmp138
	.loc 1 432 0
	movq	PL_stack_sp(%rip), %rbx	# PL_stack_sp, sp
	movq	PL_stack_base(%rip), %rcx	# PL_stack_base, PL_stack_base.14
	movq	PL_markstack_ptr(%rip), %rax	# PL_markstack_ptr, PL_markstack_ptr.15
	leaq	-4(%rax), %rdx	#, PL_markstack_ptr.17
	movq	%rdx, PL_markstack_ptr(%rip)	# PL_markstack_ptr.17, PL_markstack_ptr
	movl	(%rax), %eax	# *PL_markstack_ptr.16_8, D.10572
	cltq
	salq	$3, %rax	#, D.10573
	leaq	(%rcx,%rax), %r12	#, mark
	movq	%r12, %rdx	# mark, mark.18
	movq	PL_stack_base(%rip), %rax	# PL_stack_base, PL_stack_base.19
	subq	%rax, %rdx	# PL_stack_base.20, D.10574
	movq	%rdx, %rax	# D.10574, D.10574
	sarq	$3, %rax	#, tmp115
	addl	$1, %eax	#, D.10575
	movl	%eax, -4160(%rbp)	# D.10575, ax
	movq	%rbx, %rdx	# sp, sp.21
	movq	%r12, %rax	# mark, mark.22
	subq	%rax, %rdx	# mark.22, D.10574
	movq	%rdx, %rax	# D.10574, D.10574
	sarq	$3, %rax	#, tmp116
	movl	%eax, -4156(%rbp)	# D.10574, items
	.loc 1 433 0
	cmpl	$0, -4156(%rbp)	#, items
	js	.L29	#,
	.loc 1 433 0 is_stmt 0 discriminator 1
	cmpl	$1, -4156(%rbp)	#, items
	jle	.L30	#,
.L29:
	.loc 1 434 0 is_stmt 1
	movl	$.LC2, %edi	#,
	movl	$0, %eax	#,
	call	Perl_croak	#
.L30:
	.loc 1 435 0
	movl	-4156(%rbp), %eax	# items, tmp117
	cltq
	salq	$3, %rax	#, D.10573
	negq	%rax	# D.10576
	addq	%rax, %rbx	# D.10576, sp
.LBB4:
	.loc 1 439 0
	cmpl	$0, -4156(%rbp)	#, items
	jg	.L31	#,
	.loc 1 440 0
	movq	$0, -4152(%rbp)	#, pathsv
	jmp	.L32	#
.L31:
	.loc 1 442 0
	movq	PL_stack_base(%rip), %rax	# PL_stack_base, PL_stack_base.23
	movl	-4160(%rbp), %edx	# ax, tmp118
	movslq	%edx, %rdx	# tmp118, D.10573
	salq	$3, %rdx	#, D.10573
	addq	%rdx, %rax	# D.10573, D.10577
	movq	(%rax), %rax	# *_35, tmp119
	movq	%rax, -4152(%rbp)	# tmp119, pathsv
.L32:
.LBB5:
	.loc 1 446 0
	movq	PL_op(%rip), %rax	# PL_op, PL_op.25
	movzbl	37(%rax), %eax	# PL_op.25_37->op_private, D.10578
	movzbl	%al, %eax	# D.10578, D.10572
	andl	$32, %eax	#, D.10572
	testl	%eax, %eax	# D.10572
	je	.L33	#,
	.loc 1 446 0 is_stmt 0 discriminator 1
	movq	PL_curpad(%rip), %rdx	# PL_curpad, PL_curpad.26
	movq	PL_op(%rip), %rax	# PL_op, PL_op.27
	movq	24(%rax), %rax	# PL_op.27_42->op_targ, D.10573
	salq	$3, %rax	#, D.10573
	addq	%rdx, %rax	# PL_curpad.26, D.10577
	movq	(%rax), %rax	# *_45, iftmp.24
	jmp	.L34	#
.L33:
	.loc 1 446 0 discriminator 2
	call	Perl_sv_newmortal	#
.L34:
	.loc 1 446 0 discriminator 3
	movq	%rax, -4144(%rbp)	# iftmp.24, targ
	.loc 1 450 0 is_stmt 1 discriminator 3
	cmpq	$0, -4152(%rbp)	#, pathsv
	je	.L35	#,
	.loc 1 450 0 is_stmt 0 discriminator 1
	movq	-4152(%rbp), %rax	# pathsv, tmp120
	movl	12(%rax), %eax	# pathsv_1->sv_flags, D.10579
	andl	$262144, %eax	#, D.10579
	testl	%eax, %eax	# D.10579
	je	.L36	#,
	movq	-4152(%rbp), %rax	# pathsv, tmp121
	movq	(%rax), %rax	# pathsv_1->sv_any, D.10580
	movq	(%rax), %rax	# MEM[(struct XPV *)_51].xpv_pv, iftmp.29
	jmp	.L38	#
.L36:
	.loc 1 450 0 discriminator 2
	movq	-4152(%rbp), %rax	# pathsv, tmp122
	movq	%rax, %rdi	# tmp122,
	call	Perl_sv_2pv_nolen	#
	jmp	.L38	#
.L35:
	movl	$.LC3, %eax	#, iftmp.28
.L38:
	.loc 1 450 0 discriminator 3
	movq	%rax, -4136(%rbp)	# iftmp.28, path
	.loc 1 452 0 is_stmt 1 discriminator 3
	leaq	-4128(%rbp), %rdx	#, tmp123
	movq	-4136(%rbp), %rax	# path, tmp124
	movq	%rdx, %rsi	# tmp123,
	movq	%rax, %rdi	# tmp124,
	movl	$0, %eax	#,
	call	bsd_realpath	#
	testq	%rax, %rax	# D.10581
	je	.L39	#,
	.loc 1 453 0
	leaq	-4128(%rbp), %rax	#, tmp125
	movq	%rax, %rdi	# tmp125,
	call	strlen	#
	movq	%rax, %rdx	#, D.10573
	leaq	-4128(%rbp), %rcx	#, tmp126
	movq	-4144(%rbp), %rax	# targ, tmp127
	movq	%rcx, %rsi	# tmp126,
	movq	%rax, %rdi	# tmp127,
	call	Perl_sv_setpvn	#
	.loc 1 454 0
	movq	-4144(%rbp), %rax	# targ, tmp128
	movl	12(%rax), %eax	# targ_48->sv_flags, D.10579
	andl	$1223753727, %eax	#, D.10579
	movl	%eax, %edx	# D.10579, D.10579
	movq	-4144(%rbp), %rax	# targ, tmp129
	movl	%edx, 12(%rax)	# D.10579, targ_48->sv_flags
	movq	-4144(%rbp), %rax	# targ, tmp130
	movl	12(%rax), %eax	# targ_48->sv_flags, D.10579
	orl	$67371008, %eax	#, D.10579
	movl	%eax, %edx	# D.10579, D.10579
	movq	-4144(%rbp), %rax	# targ, tmp131
	movl	%edx, 12(%rax)	# D.10579, targ_48->sv_flags
	.loc 1 455 0
	movzbl	PL_tainting(%rip), %eax	# PL_tainting, PL_tainting.30
	testb	%al, %al	# PL_tainting.30
	je	.L41	#,
	.loc 1 455 0 is_stmt 0 discriminator 1
	movq	-4144(%rbp), %rax	# targ, tmp132
	movq	%rax, %rdi	# tmp132,
	call	Perl_sv_taint	#
	jmp	.L41	#
.L39:
	.loc 1 458 0 is_stmt 1
	movq	-4144(%rbp), %rax	# targ, tmp133
	movl	$2, %edx	#,
	movl	$PL_sv_undef, %esi	#,
	movq	%rax, %rdi	# tmp133,
	call	Perl_sv_setsv_flags	#
.L41:
	.loc 1 460 0
	movq	PL_stack_base(%rip), %rax	# PL_stack_base, PL_stack_base.31
	movl	-4160(%rbp), %edx	# ax, tmp134
	movslq	%edx, %rdx	# tmp134, D.10573
	salq	$3, %rdx	#, D.10573
	subq	$8, %rdx	#, D.10576
	leaq	(%rax,%rdx), %rbx	#, sp
.LBB6:
	movq	-4144(%rbp), %rax	# targ, tmp135
	movl	12(%rax), %eax	# targ_48->sv_flags, D.10579
	andl	$16384, %eax	#, D.10579
	testl	%eax, %eax	# D.10579
	je	.L42	#,
	.loc 1 460 0 is_stmt 0 discriminator 1
	movq	-4144(%rbp), %rax	# targ, tmp136
	movq	%rax, %rdi	# tmp136,
	call	Perl_mg_set	#
.L42:
	.loc 1 460 0 discriminator 2
	addq	$8, %rbx	#, sp
	movq	-4144(%rbp), %rax	# targ, tmp137
	movq	%rax, (%rbx)	# tmp137, *sp_71
.LBE6:
.LBE5:
	.loc 1 466 0 is_stmt 1 discriminator 2
	movq	%rbx, PL_stack_sp(%rip)	# sp, PL_stack_sp
	.loc 1 467 0 discriminator 2
	nop
.LBE4:
	.loc 1 469 0 discriminator 2
	movq	-24(%rbp), %rax	# D.10583, tmp139
	xorq	%fs:40, %rax	#, tmp139
	je	.L44	#,
	.loc 1 469 0 is_stmt 0
	call	__stack_chk_fail	#
.L44:
	addq	$4160, %rsp	#,
	popq	%rbx	#
	popq	%r12	#
	popq	%rbp	#
	.cfi_def_cfa 7, 8
	ret
	.cfi_endproc
.LFE4:
	.size	XS_Cwd_abs_path, .-XS_Cwd_abs_path
	.section	.rodata
.LC4:
	.string	"Cwd.c"
.LC5:
	.string	"Cwd::fastcwd"
.LC6:
	.string	"Cwd::abs_path"
	.text
	.globl	boot_Cwd
	.type	boot_Cwd, @function
boot_Cwd:
.LFB5:
	.loc 1 524 0 is_stmt 1
	.cfi_startproc
	pushq	%rbp	#
	.cfi_def_cfa_offset 16
	.cfi_offset 6, -16
	movq	%rsp, %rbp	#,
	.cfi_def_cfa_register 6
	pushq	%r12	#
	pushq	%rbx	#
	subq	$48, %rsp	#,
	.cfi_offset 12, -24
	.cfi_offset 3, -32
	movq	%rdi, -56(%rbp)	# cv, cv
	.loc 1 525 0
	movq	PL_stack_sp(%rip), %r12	# PL_stack_sp, sp
	movq	PL_stack_base(%rip), %rcx	# PL_stack_base, PL_stack_base.32
	movq	PL_markstack_ptr(%rip), %rax	# PL_markstack_ptr, PL_markstack_ptr.33
	leaq	-4(%rax), %rdx	#, PL_markstack_ptr.35
	movq	%rdx, PL_markstack_ptr(%rip)	# PL_markstack_ptr.35, PL_markstack_ptr
	movl	(%rax), %eax	# *PL_markstack_ptr.34_4, D.10586
	cltq
	salq	$3, %rax	#, D.10587
	leaq	(%rcx,%rax), %rbx	#, mark
	movq	%rbx, %rdx	# mark, mark.36
	movq	PL_stack_base(%rip), %rax	# PL_stack_base, PL_stack_base.37
	subq	%rax, %rdx	# PL_stack_base.38, D.10588
	movq	%rdx, %rax	# D.10588, D.10588
	sarq	$3, %rax	#, tmp90
	addl	$1, %eax	#, D.10589
	movl	%eax, -40(%rbp)	# D.10589, ax
	movq	%r12, %rdx	# sp, sp.39
	movq	%rbx, %rax	# mark, mark.40
	subq	%rax, %rdx	# mark.40, D.10588
	movq	%rdx, %rax	# D.10588, D.10588
	sarq	$3, %rax	#, tmp91
	movl	%eax, -36(%rbp)	# D.10588, items
	.loc 1 526 0
	movq	$.LC4, -32(%rbp)	#, file
	.loc 1 530 0
	movq	-32(%rbp), %rax	# file, tmp92
	movq	%rax, %rdx	# tmp92,
	movl	$XS_Cwd_fastcwd, %esi	#,
	movl	$.LC5, %edi	#,
	call	Perl_newXS	#
	.loc 1 531 0
	movq	-32(%rbp), %rax	# file, tmp93
	movq	%rax, %rdx	# tmp93,
	movl	$XS_Cwd_abs_path, %esi	#,
	movl	$.LC6, %edi	#,
	call	Perl_newXS	#
.LBB7:
	.loc 1 544 0
	movq	PL_stack_base(%rip), %rax	# PL_stack_base, PL_stack_base.41
	movl	-40(%rbp), %edx	# ax, tmp94
	movslq	%edx, %rdx	# tmp94, D.10587
	salq	$3, %rdx	#, D.10587
	addq	%rdx, %rax	# D.10587, D.10590
	movq	$PL_sv_yes, (%rax)	#, *_27
.LBB8:
	movq	$1, -24(%rbp)	#, tmpXSoff
	movq	PL_stack_base(%rip), %rax	# PL_stack_base, PL_stack_base.42
	movl	-40(%rbp), %edx	# ax, tmp95
	movslq	%edx, %rcx	# tmp95, D.10591
	movq	-24(%rbp), %rdx	# tmpXSoff, tmpXSoff.43
	addq	%rcx, %rdx	# D.10591, D.10591
	salq	$3, %rdx	#, D.10591
	subq	$8, %rdx	#, D.10591
	addq	%rdx, %rax	# D.10591, PL_stack_sp.44
	movq	%rax, PL_stack_sp(%rip)	# PL_stack_sp.44, PL_stack_sp
	nop
.LBE8:
.LBE7:
	.loc 1 545 0
	addq	$48, %rsp	#,
	popq	%rbx	#
	popq	%r12	#
	popq	%rbp	#
	.cfi_def_cfa 7, 8
	ret
	.cfi_endproc
.LFE5:
	.size	boot_Cwd, .-boot_Cwd
.Letext0:
	.file 2 "/usr/include/x86_64-linux-gnu/bits/types.h"
	.file 3 "/usr/include/x86_64-linux-gnu/sys/types.h"
	.file 4 "/usr/lib/gcc/x86_64-linux-gnu/4.8/include/stddef.h"
	.file 5 "/usr/include/dirent.h"
	.file 6 "perl.h"
	.file 7 "op.h"
	.file 8 "sv.h"
	.file 9 "regexp.h"
	.file 10 "gv.h"
	.file 11 "mg.h"
	.file 12 "av.h"
	.file 13 "hv.h"
	.file 14 "cv.h"
	.file 15 "handy.h"
	.file 16 "perlio.h"
	.file 17 "pad.h"
	.file 18 "intrpvar.h"
	.file 19 "thrdvar.h"
	.section	.note.GNU-stack,"",@progbits
