	.file	"deb.c"
# GNU C (Ubuntu/Linaro 4.8.1-10ubuntu9) version 4.8.1 (x86_64-linux-gnu)
#	compiled by GNU C version 4.8.1, GMP version 5.1.2, MPFR version 3.1.1-p2, MPC version 1.0.1
# GGC heuristics: --param ggc-min-expand=100 --param ggc-min-heapsize=131072
# options passed:  -imultiarch x86_64-linux-gnu -D SPEC_CPU -D NDEBUG
# -D PERL_CORE -D SPEC_CPU_LP64 -D SPEC_CPU_LINUX_X64 deb.c -mtune=generic
# -march=x86-64 -g -fverbose-asm -fno-strict-aliasing -fstack-protector
# -Wformat -Wformat-security
# options enabled:  -faggressive-loop-optimizations
# -fasynchronous-unwind-tables -fauto-inc-dec -fbranch-count-reg -fcommon
# -fdelete-null-pointer-checks -fdwarf2-cfi-asm -fearly-inlining
# -feliminate-unused-debug-types -ffunction-cse -fgcse-lm -fgnu-runtime
# -fident -finline-atomics -fira-hoist-pressure -fira-share-save-slots
# -fira-share-spill-slots -fivopts -fkeep-static-consts
# -fleading-underscore -fmath-errno -fmerge-debug-strings
# -fmove-loop-invariants -fpeephole -fprefetch-loop-arrays
# -freg-struct-return -fsched-critical-path-heuristic
# -fsched-dep-count-heuristic -fsched-group-heuristic -fsched-interblock
# -fsched-last-insn-heuristic -fsched-rank-heuristic -fsched-spec
# -fsched-spec-insn-heuristic -fsched-stalled-insns-dep -fshow-column
# -fsigned-zeros -fsplit-ivs-in-unroller -fstack-protector
# -fstrict-volatile-bitfields -fsync-libcalls -ftrapping-math
# -ftree-coalesce-vars -ftree-cselim -ftree-forwprop -ftree-loop-if-convert
# -ftree-loop-im -ftree-loop-ivcanon -ftree-loop-optimize
# -ftree-parallelize-loops= -ftree-phiprop -ftree-pta -ftree-reassoc
# -ftree-scev-cprop -ftree-slp-vectorize -ftree-vect-loop-version
# -funit-at-a-time -funwind-tables -fverbose-asm -fzero-initialized-in-bss
# -m128bit-long-double -m64 -m80387 -maccumulate-outgoing-args
# -malign-stringops -mfancy-math-387 -mfp-ret-in-387 -mfxsr -mglibc
# -mieee-fp -mlong-double-80 -mmmx -mno-sse4 -mpush-args -mred-zone -msse
# -msse2 -mtls-direct-seg-refs

	.text
.Ltext0:
	.globl	Perl_deb
	.type	Perl_deb, @function
Perl_deb:
.LFB2:
	.file 1 "deb.c"
	.loc 1 41 0
	.cfi_startproc
	pushq	%rbp	#
	.cfi_def_cfa_offset 16
	.cfi_offset 6, -16
	movq	%rsp, %rbp	#,
	.cfi_def_cfa_register 6
	subq	$64, %rsp	#,
	movq	%rsi, -168(%rbp)	#,
	movq	%rdx, -160(%rbp)	#,
	movq	%rcx, -152(%rbp)	#,
	movq	%r8, -144(%rbp)	#,
	movq	%r9, -136(%rbp)	#,
	testb	%al, %al	#
	je	.L2	#,
	.loc 1 41 0
	movaps	%xmm0, -128(%rbp)	#,
	movaps	%xmm1, -112(%rbp)	#,
	movaps	%xmm2, -96(%rbp)	#,
	movaps	%xmm3, -80(%rbp)	#,
	movaps	%xmm4, -64(%rbp)	#,
	movaps	%xmm5, -48(%rbp)	#,
	movaps	%xmm6, -32(%rbp)	#,
	movaps	%xmm7, -16(%rbp)	#,
.L2:
	movq	%rdi, -184(%rbp)	# pat, pat
	.loc 1 48 0
	leave
	.cfi_def_cfa 7, 8
	ret
	.cfi_endproc
.LFE2:
	.size	Perl_deb, .-Perl_deb
	.globl	Perl_vdeb
	.type	Perl_vdeb, @function
Perl_vdeb:
.LFB3:
	.loc 1 52 0
	.cfi_startproc
	pushq	%rbp	#
	.cfi_def_cfa_offset 16
	.cfi_offset 6, -16
	movq	%rsp, %rbp	#,
	.cfi_def_cfa_register 6
	movq	%rdi, -8(%rbp)	# pat, pat
	movq	%rsi, -16(%rbp)	# args, args
	.loc 1 67 0
	popq	%rbp	#
	.cfi_def_cfa 7, 8
	ret
	.cfi_endproc
.LFE3:
	.size	Perl_vdeb, .-Perl_vdeb
	.globl	Perl_debstackptrs
	.type	Perl_debstackptrs, @function
Perl_debstackptrs:
.LFB4:
	.loc 1 71 0
	.cfi_startproc
	pushq	%rbp	#
	.cfi_def_cfa_offset 16
	.cfi_offset 6, -16
	movq	%rsp, %rbp	#,
	.cfi_def_cfa_register 6
	.loc 1 84 0
	movl	$0, %eax	#, D.10358
	.loc 1 85 0
	popq	%rbp	#
	.cfi_def_cfa 7, 8
	ret
	.cfi_endproc
.LFE4:
	.size	Perl_debstackptrs, .-Perl_debstackptrs
	.type	S_deb_stack_n, @function
S_deb_stack_n:
.LFB5:
	.loc 1 100 0
	.cfi_startproc
	pushq	%rbp	#
	.cfi_def_cfa_offset 16
	.cfi_offset 6, -16
	movq	%rsp, %rbp	#,
	.cfi_def_cfa_register 6
	movq	%rdi, -8(%rbp)	# stack_base, stack_base
	movl	%esi, -12(%rbp)	# stack_min, stack_min
	movl	%edx, -16(%rbp)	# stack_max, stack_max
	movl	%ecx, -20(%rbp)	# mark_min, mark_min
	movl	%r8d, -24(%rbp)	# mark_max, mark_max
	.loc 1 133 0
	popq	%rbp	#
	.cfi_def_cfa 7, 8
	ret
	.cfi_endproc
.LFE5:
	.size	S_deb_stack_n, .-S_deb_stack_n
	.section	.rodata
.LC0:
	.string	"    =>  "
	.text
	.globl	Perl_debstack
	.type	Perl_debstack, @function
Perl_debstack:
.LFB6:
	.loc 1 140 0
	.cfi_startproc
	pushq	%rbp	#
	.cfi_def_cfa_offset 16
	.cfi_offset 6, -16
	movq	%rsp, %rbp	#,
	.cfi_def_cfa_register 6
	.loc 1 142 0
	movq	PL_curcop(%rip), %rax	# PL_curcop, PL_curcop.0
	movq	48(%rax), %rdx	# PL_curcop.0_2->cop_stash, D.10360
	movq	PL_debstash(%rip), %rax	# PL_debstash, PL_debstash.1
	cmpq	%rax, %rdx	# PL_debstash.1, D.10360
	jne	.L8	#,
	.loc 1 142 0 is_stmt 0 discriminator 1
	movl	PL_debug(%rip), %eax	# PL_debug, PL_debug.2
	andl	$524288, %eax	#, D.10361
	testl	%eax, %eax	# D.10361
	jne	.L8	#,
	.loc 1 143 0 is_stmt 1
	movl	$0, %eax	#, D.10359
	jmp	.L9	#
.L8:
	.loc 1 145 0
	call	Perl_PerlIO_stderr	#
	movl	$.LC0, %esi	#,
	movq	%rax, %rdi	# D.10362,
	movl	$0, %eax	#,
	call	PerlIO_printf	#
	.loc 1 150 0
	movq	PL_markstack_ptr(%rip), %rax	# PL_markstack_ptr, PL_markstack_ptr.3
	movq	%rax, %rdx	# PL_markstack_ptr.3, PL_markstack_ptr.4
	movq	PL_markstack(%rip), %rax	# PL_markstack, PL_markstack.5
	subq	%rax, %rdx	# PL_markstack.6, D.10363
	movq	%rdx, %rax	# D.10363, D.10363
	sarq	$2, %rax	#, tmp84
	.loc 1 146 0
	movl	%eax, %esi	# D.10363, D.10364
	.loc 1 149 0
	movq	PL_curstackinfo(%rip), %rax	# PL_curstackinfo, PL_curstackinfo.7
	.loc 1 146 0
	movl	48(%rax), %ecx	# PL_curstackinfo.7_16->si_markoff, D.10364
	.loc 1 148 0
	movq	PL_stack_sp(%rip), %rax	# PL_stack_sp, PL_stack_sp.8
	movq	%rax, %rdx	# PL_stack_sp.8, PL_stack_sp.9
	movq	PL_stack_base(%rip), %rax	# PL_stack_base, PL_stack_base.10
	subq	%rax, %rdx	# PL_stack_base.11, D.10363
	movq	%rdx, %rax	# D.10363, D.10363
	sarq	$3, %rax	#, tmp85
	.loc 1 146 0
	movl	%eax, %edx	# D.10363, D.10364
	movq	PL_stack_base(%rip), %rax	# PL_stack_base, PL_stack_base.12
	movl	%esi, %r8d	# D.10364,
	movl	$0, %esi	#,
	movq	%rax, %rdi	# PL_stack_base.12,
	call	S_deb_stack_n	#
	.loc 1 154 0
	movl	$0, %eax	#, D.10359
.L9:
	.loc 1 155 0
	popq	%rbp	#
	.cfi_def_cfa 7, 8
	ret
	.cfi_endproc
.LFE6:
	.size	Perl_debstack, .-Perl_debstack
	.globl	Perl_deb_stack_all
	.type	Perl_deb_stack_all, @function
Perl_deb_stack_all:
.LFB7:
	.loc 1 179 0
	.cfi_startproc
	pushq	%rbp	#
	.cfi_def_cfa_offset 16
	.cfi_offset 6, -16
	movq	%rsp, %rbp	#,
	.cfi_def_cfa_register 6
	.loc 1 307 0
	popq	%rbp	#
	.cfi_def_cfa 7, 8
	ret
	.cfi_endproc
.LFE7:
	.size	Perl_deb_stack_all, .-Perl_deb_stack_all
.Letext0:
	.file 2 "/usr/include/x86_64-linux-gnu/bits/types.h"
	.file 3 "/usr/include/x86_64-linux-gnu/sys/types.h"
	.file 4 "/usr/lib/gcc/x86_64-linux-gnu/4.8/include/stddef.h"
	.file 5 "/usr/lib/gcc/x86_64-linux-gnu/4.8/include/stdarg.h"
	.file 6 "<built-in>"
	.file 7 "/usr/include/dirent.h"
	.file 8 "perl.h"
	.file 9 "op.h"
	.file 10 "cop.h"
	.file 11 "sv.h"
	.file 12 "regexp.h"
	.file 13 "gv.h"
	.file 14 "mg.h"
	.file 15 "av.h"
	.file 16 "hv.h"
	.file 17 "cv.h"
	.file 18 "handy.h"
	.file 19 "perlio.h"
	.file 20 "pad.h"
	.file 21 "intrpvar.h"
	.file 22 "thrdvar.h"
	.section	.note.GNU-stack,"",@progbits
