	.file	"Hostname.c"
# GNU C (Ubuntu/Linaro 4.8.1-10ubuntu9) version 4.8.1 (x86_64-linux-gnu)
#	compiled by GNU C version 4.8.1, GMP version 5.1.2, MPFR version 3.1.1-p2, MPC version 1.0.1
# GGC heuristics: --param ggc-min-expand=100 --param ggc-min-heapsize=131072
# options passed:  -imultiarch x86_64-linux-gnu -D SPEC_CPU -D NDEBUG
# -D PERL_CORE -D SPEC_CPU_LP64 -D SPEC_CPU_LINUX_X64 Hostname.c
# -mtune=generic -march=x86-64 -g -fverbose-asm -fno-strict-aliasing
# -fstack-protector -Wformat -Wformat-security
# options enabled:  -faggressive-loop-optimizations
# -fasynchronous-unwind-tables -fauto-inc-dec -fbranch-count-reg -fcommon
# -fdelete-null-pointer-checks -fdwarf2-cfi-asm -fearly-inlining
# -feliminate-unused-debug-types -ffunction-cse -fgcse-lm -fgnu-runtime
# -fident -finline-atomics -fira-hoist-pressure -fira-share-save-slots
# -fira-share-spill-slots -fivopts -fkeep-static-consts
# -fleading-underscore -fmath-errno -fmerge-debug-strings
# -fmove-loop-invariants -fpeephole -fprefetch-loop-arrays
# -freg-struct-return -fsched-critical-path-heuristic
# -fsched-dep-count-heuristic -fsched-group-heuristic -fsched-interblock
# -fsched-last-insn-heuristic -fsched-rank-heuristic -fsched-spec
# -fsched-spec-insn-heuristic -fsched-stalled-insns-dep -fshow-column
# -fsigned-zeros -fsplit-ivs-in-unroller -fstack-protector
# -fstrict-volatile-bitfields -fsync-libcalls -ftrapping-math
# -ftree-coalesce-vars -ftree-cselim -ftree-forwprop -ftree-loop-if-convert
# -ftree-loop-im -ftree-loop-ivcanon -ftree-loop-optimize
# -ftree-parallelize-loops= -ftree-phiprop -ftree-pta -ftree-reassoc
# -ftree-scev-cprop -ftree-slp-vectorize -ftree-vect-loop-version
# -funit-at-a-time -funwind-tables -fverbose-asm -fzero-initialized-in-bss
# -m128bit-long-double -m64 -m80387 -maccumulate-outgoing-args
# -malign-stringops -mfancy-math-387 -mfp-ret-in-387 -mfxsr -mglibc
# -mieee-fp -mlong-double-80 -mmmx -mno-sse4 -mpush-args -mred-zone -msse
# -msse2 -mtls-direct-seg-refs

	.text
.Ltext0:
	.section	.rodata
	.align 8
.LC0:
	.string	"Usage: Sys::Hostname::ghname()"
	.text
	.globl	XS_Sys__Hostname_ghname
	.type	XS_Sys__Hostname_ghname, @function
XS_Sys__Hostname_ghname:
.LFB2:
	.file 1 "Hostname.c"
	.loc 1 37 0
	.cfi_startproc
	pushq	%rbp	#
	.cfi_def_cfa_offset 16
	.cfi_offset 6, -16
	movq	%rsp, %rbp	#,
	.cfi_def_cfa_register 6
	pushq	%r12	#
	pushq	%rbx	#
	subq	$48, %rsp	#,
	.cfi_offset 12, -24
	.cfi_offset 3, -32
	movq	%rdi, -56(%rbp)	# cv, cv
	.loc 1 38 0
	movq	PL_stack_sp(%rip), %rbx	# PL_stack_sp, sp
	movq	PL_stack_base(%rip), %rcx	# PL_stack_base, PL_stack_base.0
	movq	PL_markstack_ptr(%rip), %rax	# PL_markstack_ptr, PL_markstack_ptr.1
	leaq	-4(%rax), %rdx	#, PL_markstack_ptr.3
	movq	%rdx, PL_markstack_ptr(%rip)	# PL_markstack_ptr.3, PL_markstack_ptr
	movl	(%rax), %eax	# *PL_markstack_ptr.2_5, D.10394
	cltq
	salq	$3, %rax	#, D.10395
	leaq	(%rcx,%rax), %r12	#, mark
	movq	%r12, %rdx	# mark, mark.4
	movq	PL_stack_base(%rip), %rax	# PL_stack_base, PL_stack_base.5
	subq	%rax, %rdx	# PL_stack_base.6, D.10396
	movq	%rdx, %rax	# D.10396, D.10396
	sarq	$3, %rax	#, tmp98
	addl	$1, %eax	#, D.10397
	movl	%eax, -48(%rbp)	# D.10397, ax
	movq	%rbx, %rdx	# sp, sp.7
	movq	%r12, %rax	# mark, mark.8
	subq	%rax, %rdx	# mark.8, D.10396
	movq	%rdx, %rax	# D.10396, D.10396
	sarq	$3, %rax	#, tmp99
	movl	%eax, -44(%rbp)	# D.10396, items
	.loc 1 39 0
	cmpl	$0, -44(%rbp)	#, items
	je	.L6	#,
	.loc 1 40 0
	movl	$.LC0, %edi	#,
	movl	$0, %eax	#,
	call	Perl_croak	#
.L6:
	.loc 1 42 0
	movl	-44(%rbp), %eax	# items, tmp100
	cltq
	salq	$3, %rax	#, D.10395
	negq	%rax	# D.10398
	addq	%rax, %rbx	# D.10398, sp
.LBB2:
	.loc 1 45 0
	movq	$-1, -40(%rbp)	#, retval
	.loc 1 46 0
	movq	$0, -32(%rbp)	#, sv
	.loc 1 49 0
	movq	PL_stack_max(%rip), %rax	# PL_stack_max, PL_stack_max.9
	movq	%rax, %rdx	# PL_stack_max.9, PL_stack_max.10
	movq	%rbx, %rax	# sp, sp.11
	subq	%rax, %rdx	# sp.11, D.10396
	movq	%rdx, %rax	# D.10396, D.10396
	cmpq	$7, %rax	#, D.10396
	jg	.L3	#,
	.loc 1 49 0 is_stmt 0 discriminator 1
	movl	$1, %edx	#,
	movq	%rbx, %rsi	# sp,
	movq	%rbx, %rdi	# sp,
	call	Perl_stack_grow	#
	movq	%rax, %rbx	#, sp
.L3:
	.loc 1 91 0 is_stmt 1
	cmpq	$-1, -40(%rbp)	#, retval
	jne	.L4	#,
.LBB3:
	.loc 1 92 0
	movq	PL_stack_base(%rip), %rax	# PL_stack_base, PL_stack_base.12
	movl	-48(%rbp), %edx	# ax, tmp101
	movslq	%edx, %rdx	# tmp101, D.10395
	salq	$3, %rdx	#, D.10395
	addq	%rdx, %rax	# D.10395, D.10399
	movq	$PL_sv_undef, (%rax)	#, *_38
.LBB4:
	movq	$1, -24(%rbp)	#, tmpXSoff
	movq	PL_stack_base(%rip), %rax	# PL_stack_base, PL_stack_base.13
	movl	-48(%rbp), %edx	# ax, tmp102
	movslq	%edx, %rcx	# tmp102, D.10398
	movq	-24(%rbp), %rdx	# tmpXSoff, tmpXSoff.14
	addq	%rcx, %rdx	# D.10398, D.10398
	salq	$3, %rdx	#, D.10398
	subq	$8, %rdx	#, D.10398
	addq	%rdx, %rax	# D.10398, PL_stack_sp.15
	movq	%rax, PL_stack_sp(%rip)	# PL_stack_sp.15, PL_stack_sp
	jmp	.L1	#
.L4:
.LBE4:
.LBE3:
	.loc 1 94 0
	addq	$8, %rbx	#, sp
	movq	-32(%rbp), %rax	# sv, tmp103
	movq	%rax, %rdi	# tmp103,
	call	Perl_sv_2mortal	#
	movq	%rax, (%rbx)	# D.10400, *sp_47
	.loc 1 96 0
	movq	%rbx, PL_stack_sp(%rip)	# sp, PL_stack_sp
	.loc 1 97 0
	nop
.L1:
.LBE2:
	.loc 1 99 0
	addq	$48, %rsp	#,
	popq	%rbx	#
	popq	%r12	#
	popq	%rbp	#
	.cfi_def_cfa 7, 8
	ret
	.cfi_endproc
.LFE2:
	.size	XS_Sys__Hostname_ghname, .-XS_Sys__Hostname_ghname
	.section	.rodata
.LC1:
	.string	"Hostname.c"
.LC2:
	.string	"Sys::Hostname::ghname"
	.text
	.globl	boot_Sys__Hostname
	.type	boot_Sys__Hostname, @function
boot_Sys__Hostname:
.LFB3:
	.loc 1 106 0
	.cfi_startproc
	pushq	%rbp	#
	.cfi_def_cfa_offset 16
	.cfi_offset 6, -16
	movq	%rsp, %rbp	#,
	.cfi_def_cfa_register 6
	pushq	%r12	#
	pushq	%rbx	#
	subq	$48, %rsp	#,
	.cfi_offset 12, -24
	.cfi_offset 3, -32
	movq	%rdi, -56(%rbp)	# cv, cv
	.loc 1 107 0
	movq	PL_stack_sp(%rip), %r12	# PL_stack_sp, sp
	movq	PL_stack_base(%rip), %rcx	# PL_stack_base, PL_stack_base.16
	movq	PL_markstack_ptr(%rip), %rax	# PL_markstack_ptr, PL_markstack_ptr.17
	leaq	-4(%rax), %rdx	#, PL_markstack_ptr.19
	movq	%rdx, PL_markstack_ptr(%rip)	# PL_markstack_ptr.19, PL_markstack_ptr
	movl	(%rax), %eax	# *PL_markstack_ptr.18_4, D.10402
	cltq
	salq	$3, %rax	#, D.10403
	leaq	(%rcx,%rax), %rbx	#, mark
	movq	%rbx, %rdx	# mark, mark.20
	movq	PL_stack_base(%rip), %rax	# PL_stack_base, PL_stack_base.21
	subq	%rax, %rdx	# PL_stack_base.22, D.10404
	movq	%rdx, %rax	# D.10404, D.10404
	sarq	$3, %rax	#, tmp90
	addl	$1, %eax	#, D.10405
	movl	%eax, -40(%rbp)	# D.10405, ax
	movq	%r12, %rdx	# sp, sp.23
	movq	%rbx, %rax	# mark, mark.24
	subq	%rax, %rdx	# mark.24, D.10404
	movq	%rdx, %rax	# D.10404, D.10404
	sarq	$3, %rax	#, tmp91
	movl	%eax, -36(%rbp)	# D.10404, items
	.loc 1 108 0
	movq	$.LC1, -32(%rbp)	#, file
	.loc 1 112 0
	movq	-32(%rbp), %rax	# file, tmp92
	movq	%rax, %rdx	# tmp92,
	movl	$XS_Sys__Hostname_ghname, %esi	#,
	movl	$.LC2, %edi	#,
	call	Perl_newXS	#
.LBB5:
	.loc 1 113 0
	movq	PL_stack_base(%rip), %rax	# PL_stack_base, PL_stack_base.25
	movl	-40(%rbp), %edx	# ax, tmp93
	movslq	%edx, %rdx	# tmp93, D.10403
	salq	$3, %rdx	#, D.10403
	addq	%rdx, %rax	# D.10403, D.10406
	movq	$PL_sv_yes, (%rax)	#, *_27
.LBB6:
	movq	$1, -24(%rbp)	#, tmpXSoff
	movq	PL_stack_base(%rip), %rax	# PL_stack_base, PL_stack_base.26
	movl	-40(%rbp), %edx	# ax, tmp94
	movslq	%edx, %rcx	# tmp94, D.10407
	movq	-24(%rbp), %rdx	# tmpXSoff, tmpXSoff.27
	addq	%rcx, %rdx	# D.10407, D.10407
	salq	$3, %rdx	#, D.10407
	subq	$8, %rdx	#, D.10407
	addq	%rdx, %rax	# D.10407, PL_stack_sp.28
	movq	%rax, PL_stack_sp(%rip)	# PL_stack_sp.28, PL_stack_sp
	nop
.LBE6:
.LBE5:
	.loc 1 114 0
	addq	$48, %rsp	#,
	popq	%rbx	#
	popq	%r12	#
	popq	%rbp	#
	.cfi_def_cfa 7, 8
	ret
	.cfi_endproc
.LFE3:
	.size	boot_Sys__Hostname, .-boot_Sys__Hostname
.Letext0:
	.file 2 "/usr/include/x86_64-linux-gnu/bits/types.h"
	.file 3 "/usr/include/x86_64-linux-gnu/sys/types.h"
	.file 4 "/usr/lib/gcc/x86_64-linux-gnu/4.8/include/stddef.h"
	.file 5 "/usr/include/dirent.h"
	.file 6 "perl.h"
	.file 7 "op.h"
	.file 8 "sv.h"
	.file 9 "regexp.h"
	.file 10 "gv.h"
	.file 11 "mg.h"
	.file 12 "av.h"
	.file 13 "hv.h"
	.file 14 "cv.h"
	.file 15 "handy.h"
	.file 16 "perlio.h"
	.file 17 "pad.h"
	.file 18 "intrpvar.h"
	.file 19 "thrdvar.h"
	.section	.note.GNU-stack,"",@progbits
