	.file	"MD5.c"
# GNU C (Ubuntu/Linaro 4.8.1-10ubuntu9) version 4.8.1 (x86_64-linux-gnu)
#	compiled by GNU C version 4.8.1, GMP version 5.1.2, MPFR version 3.1.1-p2, MPC version 1.0.1
# GGC heuristics: --param ggc-min-expand=100 --param ggc-min-heapsize=131072
# options passed:  -imultiarch x86_64-linux-gnu -D SPEC_CPU -D NDEBUG
# -D PERL_CORE -D SPEC_CPU_LP64 -D SPEC_CPU_LINUX_X64 MD5.c -mtune=generic
# -march=x86-64 -g -fverbose-asm -fno-strict-aliasing -fstack-protector
# -Wformat -Wformat-security
# options enabled:  -faggressive-loop-optimizations
# -fasynchronous-unwind-tables -fauto-inc-dec -fbranch-count-reg -fcommon
# -fdelete-null-pointer-checks -fdwarf2-cfi-asm -fearly-inlining
# -feliminate-unused-debug-types -ffunction-cse -fgcse-lm -fgnu-runtime
# -fident -finline-atomics -fira-hoist-pressure -fira-share-save-slots
# -fira-share-spill-slots -fivopts -fkeep-static-consts
# -fleading-underscore -fmath-errno -fmerge-debug-strings
# -fmove-loop-invariants -fpeephole -fprefetch-loop-arrays
# -freg-struct-return -fsched-critical-path-heuristic
# -fsched-dep-count-heuristic -fsched-group-heuristic -fsched-interblock
# -fsched-last-insn-heuristic -fsched-rank-heuristic -fsched-spec
# -fsched-spec-insn-heuristic -fsched-stalled-insns-dep -fshow-column
# -fsigned-zeros -fsplit-ivs-in-unroller -fstack-protector
# -fstrict-volatile-bitfields -fsync-libcalls -ftrapping-math
# -ftree-coalesce-vars -ftree-cselim -ftree-forwprop -ftree-loop-if-convert
# -ftree-loop-im -ftree-loop-ivcanon -ftree-loop-optimize
# -ftree-parallelize-loops= -ftree-phiprop -ftree-pta -ftree-reassoc
# -ftree-scev-cprop -ftree-slp-vectorize -ftree-vect-loop-version
# -funit-at-a-time -funwind-tables -fverbose-asm -fzero-initialized-in-bss
# -m128bit-long-double -m64 -m80387 -maccumulate-outgoing-args
# -malign-stringops -mfancy-math-387 -mfp-ret-in-387 -mfxsr -mglibc
# -mieee-fp -mlong-double-80 -mmmx -mno-sse4 -mpush-args -mred-zone -msse
# -msse2 -mtls-direct-seg-refs

	.text
.Ltext0:
	.type	u2s, @function
u2s:
.LFB2:
	.file 1 "MD5.c"
	.loc 1 134 0
	.cfi_startproc
	pushq	%rbp	#
	.cfi_def_cfa_offset 16
	.cfi_offset 6, -16
	movq	%rsp, %rbp	#,
	.cfi_def_cfa_register 6
	movl	%edi, -4(%rbp)	# u, u
	movq	%rsi, -16(%rbp)	# s, s
	.loc 1 135 0
	movq	-16(%rbp), %rax	# s, s.0
	leaq	1(%rax), %rdx	#, tmp69
	movq	%rdx, -16(%rbp)	# tmp69, s
	movl	-4(%rbp), %edx	# u, tmp70
	movb	%dl, (%rax)	# D.11868, *s.0_2
	.loc 1 136 0
	movq	-16(%rbp), %rax	# s, s.1
	leaq	1(%rax), %rdx	#, tmp71
	movq	%rdx, -16(%rbp)	# tmp71, s
	movl	-4(%rbp), %edx	# u, tmp72
	shrl	$8, %edx	#, D.11869
	movb	%dl, (%rax)	# D.11868, *s.1_6
	.loc 1 137 0
	movq	-16(%rbp), %rax	# s, s.2
	leaq	1(%rax), %rdx	#, tmp73
	movq	%rdx, -16(%rbp)	# tmp73, s
	movl	-4(%rbp), %edx	# u, tmp74
	shrl	$16, %edx	#, D.11869
	movb	%dl, (%rax)	# D.11868, *s.2_10
	.loc 1 138 0
	movl	-4(%rbp), %eax	# u, tmp75
	shrl	$24, %eax	#, D.11869
	movl	%eax, %edx	# D.11869, D.11868
	movq	-16(%rbp), %rax	# s, tmp76
	movb	%dl, (%rax)	# D.11868, *s_11
	.loc 1 139 0
	popq	%rbp	#
	.cfi_def_cfa 7, 8
	ret
	.cfi_endproc
.LFE2:
	.size	u2s, .-u2s
	.data
	.align 32
	.type	PADDING, @object
	.size	PADDING, 64
PADDING:
	.byte	-128
	.byte	0
	.byte	0
	.byte	0
	.byte	0
	.byte	0
	.byte	0
	.byte	0
	.byte	0
	.byte	0
	.byte	0
	.byte	0
	.byte	0
	.byte	0
	.byte	0
	.byte	0
	.byte	0
	.byte	0
	.byte	0
	.byte	0
	.byte	0
	.byte	0
	.byte	0
	.byte	0
	.byte	0
	.byte	0
	.byte	0
	.byte	0
	.byte	0
	.byte	0
	.byte	0
	.byte	0
	.byte	0
	.byte	0
	.byte	0
	.byte	0
	.byte	0
	.byte	0
	.byte	0
	.byte	0
	.byte	0
	.byte	0
	.byte	0
	.byte	0
	.byte	0
	.byte	0
	.byte	0
	.byte	0
	.byte	0
	.byte	0
	.byte	0
	.byte	0
	.byte	0
	.byte	0
	.byte	0
	.byte	0
	.byte	0
	.byte	0
	.byte	0
	.byte	0
	.byte	0
	.byte	0
	.byte	0
	.byte	0
	.text
	.type	MD5Init, @function
MD5Init:
.LFB3:
	.loc 1 235 0
	.cfi_startproc
	pushq	%rbp	#
	.cfi_def_cfa_offset 16
	.cfi_offset 6, -16
	movq	%rsp, %rbp	#,
	.cfi_def_cfa_register 6
	movq	%rdi, -8(%rbp)	# ctx, ctx
	.loc 1 237 0
	movq	-8(%rbp), %rax	# ctx, tmp60
	movl	$1732584193, 4(%rax)	#, ctx_1(D)->A
	.loc 1 238 0
	movq	-8(%rbp), %rax	# ctx, tmp61
	movl	$-271733879, 8(%rax)	#, ctx_1(D)->B
	.loc 1 239 0
	movq	-8(%rbp), %rax	# ctx, tmp62
	movl	$-1732584194, 12(%rax)	#, ctx_1(D)->C
	.loc 1 240 0
	movq	-8(%rbp), %rax	# ctx, tmp63
	movl	$271733878, 16(%rax)	#, ctx_1(D)->D
	.loc 1 243 0
	movq	-8(%rbp), %rax	# ctx, tmp64
	movl	$0, 24(%rax)	#, ctx_1(D)->bytes_high
	movq	-8(%rbp), %rax	# ctx, tmp65
	movl	24(%rax), %edx	# ctx_1(D)->bytes_high, D.11870
	movq	-8(%rbp), %rax	# ctx, tmp66
	movl	%edx, 20(%rax)	# D.11870, ctx_1(D)->bytes_low
	.loc 1 244 0
	popq	%rbp	#
	.cfi_def_cfa 7, 8
	ret
	.cfi_endproc
.LFE3:
	.size	MD5Init, .-MD5Init
	.type	MD5Transform, @function
MD5Transform:
.LFB4:
	.loc 1 249 0
	.cfi_startproc
	pushq	%rbp	#
	.cfi_def_cfa_offset 16
	.cfi_offset 6, -16
	movq	%rsp, %rbp	#,
	.cfi_def_cfa_register 6
	subq	$16, %rsp	#,
	movq	%rdi, -120(%rbp)	# ctx, ctx
	movq	%rsi, -128(%rbp)	# buf, buf
	movq	%rdx, -136(%rbp)	# blocks, blocks
	.loc 1 254 0
	movq	-120(%rbp), %rax	# ctx, tmp699
	movl	4(%rax), %eax	# ctx_7(D)->A, tmp700
	movl	%eax, -108(%rbp)	# tmp700, A
	.loc 1 255 0
	movq	-120(%rbp), %rax	# ctx, tmp701
	movl	8(%rax), %eax	# ctx_7(D)->B, tmp702
	movl	%eax, -104(%rbp)	# tmp702, B
	.loc 1 256 0
	movq	-120(%rbp), %rax	# ctx, tmp703
	movl	12(%rax), %eax	# ctx_7(D)->C, tmp704
	movl	%eax, -100(%rbp)	# tmp704, C
	.loc 1 257 0
	movq	-120(%rbp), %rax	# ctx, tmp705
	movl	16(%rax), %eax	# ctx_7(D)->D, tmp706
	movl	%eax, -96(%rbp)	# tmp706, D
.L4:
.LBB2:
	.loc 1 264 0 discriminator 1
	movl	-108(%rbp), %eax	# A, tmp707
	movl	%eax, -92(%rbp)	# tmp707, a
	.loc 1 265 0 discriminator 1
	movl	-104(%rbp), %eax	# B, tmp708
	movl	%eax, -88(%rbp)	# tmp708, b
	.loc 1 266 0 discriminator 1
	movl	-100(%rbp), %eax	# C, tmp709
	movl	%eax, -84(%rbp)	# tmp709, c
	.loc 1 267 0 discriminator 1
	movl	-96(%rbp), %eax	# D, tmp710
	movl	%eax, -80(%rbp)	# tmp710, d
	.loc 1 274 0 discriminator 1
	leaq	-64(%rbp), %rax	#, tmp711
	movq	%rax, -72(%rbp)	# tmp711, uptr
	.loc 1 300 0 discriminator 1
	movq	-128(%rbp), %rax	# buf, tmp712
	movzbl	(%rax), %eax	# *buf_1, D.11871
	movzbl	%al, %eax	# D.11871, D.11872
	movq	-128(%rbp), %rdx	# buf, tmp713
	addq	$1, %rdx	#, D.11873
	movzbl	(%rdx), %edx	# *_21, D.11871
	movzbl	%dl, %edx	# D.11871, D.11872
	sall	$8, %edx	#, D.11872
	orl	%eax, %edx	# D.11872, D.11872
	movq	-128(%rbp), %rax	# buf, tmp714
	addq	$2, %rax	#, D.11873
	movzbl	(%rax), %eax	# *_26, D.11871
	movzbl	%al, %eax	# D.11871, D.11872
	sall	$16, %eax	#, D.11872
	orl	%eax, %edx	# D.11872, D.11872
	movq	-128(%rbp), %rax	# buf, tmp715
	addq	$3, %rax	#, D.11873
	movzbl	(%rax), %eax	# *_31, D.11871
	movzbl	%al, %eax	# D.11871, D.11872
	sall	$24, %eax	#, D.11872
	orl	%edx, %eax	# D.11872, tmp716
	movl	%eax, -76(%rbp)	# tmp716, tmp
	addq	$4, -128(%rbp)	#, buf
	movl	-80(%rbp), %eax	# d, tmp717
	movl	-84(%rbp), %edx	# c, tmp718
	xorl	%edx, %eax	# tmp718, D.11872
	andl	-88(%rbp), %eax	# b, D.11872
	xorl	-80(%rbp), %eax	# d, D.11872
	movl	%eax, %ecx	# D.11872, D.11872
	movq	-72(%rbp), %rax	# uptr, uptr.3
	leaq	4(%rax), %rdx	#, tmp719
	movq	%rdx, -72(%rbp)	# tmp719, uptr
	movl	-76(%rbp), %edx	# tmp, tmp720
	movl	%edx, (%rax)	# tmp720, *uptr.3_40
	movl	(%rax), %eax	# *uptr.3_40, D.11872
	leal	(%rcx,%rax), %edx	#, D.11872
	movl	-92(%rbp), %eax	# a, tmp721
	addl	%edx, %eax	# D.11872, D.11872
	subl	$680876936, %eax	#, tmp722
	movl	%eax, -92(%rbp)	# tmp722, a
	rorl	$25, -92(%rbp)	#, a
	movl	-88(%rbp), %eax	# b, tmp723
	addl	%eax, -92(%rbp)	# tmp723, a
	.loc 1 301 0 discriminator 1
	movq	-128(%rbp), %rax	# buf, tmp724
	movzbl	(%rax), %eax	# *buf_36, D.11871
	movzbl	%al, %eax	# D.11871, D.11872
	movq	-128(%rbp), %rdx	# buf, tmp725
	addq	$1, %rdx	#, D.11873
	movzbl	(%rdx), %edx	# *_52, D.11871
	movzbl	%dl, %edx	# D.11871, D.11872
	sall	$8, %edx	#, D.11872
	orl	%eax, %edx	# D.11872, D.11872
	movq	-128(%rbp), %rax	# buf, tmp726
	addq	$2, %rax	#, D.11873
	movzbl	(%rax), %eax	# *_57, D.11871
	movzbl	%al, %eax	# D.11871, D.11872
	sall	$16, %eax	#, D.11872
	orl	%eax, %edx	# D.11872, D.11872
	movq	-128(%rbp), %rax	# buf, tmp727
	addq	$3, %rax	#, D.11873
	movzbl	(%rax), %eax	# *_62, D.11871
	movzbl	%al, %eax	# D.11871, D.11872
	sall	$24, %eax	#, D.11872
	orl	%edx, %eax	# D.11872, tmp728
	movl	%eax, -76(%rbp)	# tmp728, tmp
	addq	$4, -128(%rbp)	#, buf
	movl	-84(%rbp), %eax	# c, tmp729
	movl	-88(%rbp), %edx	# b, tmp730
	xorl	%edx, %eax	# tmp730, D.11872
	andl	-92(%rbp), %eax	# a, D.11872
	xorl	-84(%rbp), %eax	# c, D.11872
	movl	%eax, %ecx	# D.11872, D.11872
	movq	-72(%rbp), %rax	# uptr, uptr.4
	leaq	4(%rax), %rdx	#, tmp731
	movq	%rdx, -72(%rbp)	# tmp731, uptr
	movl	-76(%rbp), %edx	# tmp, tmp732
	movl	%edx, (%rax)	# tmp732, *uptr.4_71
	movl	(%rax), %eax	# *uptr.4_71, D.11872
	leal	(%rcx,%rax), %edx	#, D.11872
	movl	-80(%rbp), %eax	# d, tmp733
	addl	%edx, %eax	# D.11872, D.11872
	subl	$389564586, %eax	#, tmp734
	movl	%eax, -80(%rbp)	# tmp734, d
	rorl	$20, -80(%rbp)	#, d
	movl	-92(%rbp), %eax	# a, tmp735
	addl	%eax, -80(%rbp)	# tmp735, d
	.loc 1 302 0 discriminator 1
	movq	-128(%rbp), %rax	# buf, tmp736
	movzbl	(%rax), %eax	# *buf_67, D.11871
	movzbl	%al, %eax	# D.11871, D.11872
	movq	-128(%rbp), %rdx	# buf, tmp737
	addq	$1, %rdx	#, D.11873
	movzbl	(%rdx), %edx	# *_83, D.11871
	movzbl	%dl, %edx	# D.11871, D.11872
	sall	$8, %edx	#, D.11872
	orl	%eax, %edx	# D.11872, D.11872
	movq	-128(%rbp), %rax	# buf, tmp738
	addq	$2, %rax	#, D.11873
	movzbl	(%rax), %eax	# *_88, D.11871
	movzbl	%al, %eax	# D.11871, D.11872
	sall	$16, %eax	#, D.11872
	orl	%eax, %edx	# D.11872, D.11872
	movq	-128(%rbp), %rax	# buf, tmp739
	addq	$3, %rax	#, D.11873
	movzbl	(%rax), %eax	# *_93, D.11871
	movzbl	%al, %eax	# D.11871, D.11872
	sall	$24, %eax	#, D.11872
	orl	%edx, %eax	# D.11872, tmp740
	movl	%eax, -76(%rbp)	# tmp740, tmp
	addq	$4, -128(%rbp)	#, buf
	movl	-88(%rbp), %eax	# b, tmp741
	movl	-92(%rbp), %edx	# a, tmp742
	xorl	%edx, %eax	# tmp742, D.11872
	andl	-80(%rbp), %eax	# d, D.11872
	xorl	-88(%rbp), %eax	# b, D.11872
	movl	%eax, %ecx	# D.11872, D.11872
	movq	-72(%rbp), %rax	# uptr, uptr.5
	leaq	4(%rax), %rdx	#, tmp743
	movq	%rdx, -72(%rbp)	# tmp743, uptr
	movl	-76(%rbp), %edx	# tmp, tmp744
	movl	%edx, (%rax)	# tmp744, *uptr.5_102
	movl	(%rax), %eax	# *uptr.5_102, D.11872
	leal	(%rcx,%rax), %edx	#, D.11872
	movl	-84(%rbp), %eax	# c, tmp745
	addl	%edx, %eax	# D.11872, D.11872
	addl	$606105819, %eax	#, tmp746
	movl	%eax, -84(%rbp)	# tmp746, c
	rorl	$15, -84(%rbp)	#, c
	movl	-80(%rbp), %eax	# d, tmp747
	addl	%eax, -84(%rbp)	# tmp747, c
	.loc 1 303 0 discriminator 1
	movq	-128(%rbp), %rax	# buf, tmp748
	movzbl	(%rax), %eax	# *buf_98, D.11871
	movzbl	%al, %eax	# D.11871, D.11872
	movq	-128(%rbp), %rdx	# buf, tmp749
	addq	$1, %rdx	#, D.11873
	movzbl	(%rdx), %edx	# *_114, D.11871
	movzbl	%dl, %edx	# D.11871, D.11872
	sall	$8, %edx	#, D.11872
	orl	%eax, %edx	# D.11872, D.11872
	movq	-128(%rbp), %rax	# buf, tmp750
	addq	$2, %rax	#, D.11873
	movzbl	(%rax), %eax	# *_119, D.11871
	movzbl	%al, %eax	# D.11871, D.11872
	sall	$16, %eax	#, D.11872
	orl	%eax, %edx	# D.11872, D.11872
	movq	-128(%rbp), %rax	# buf, tmp751
	addq	$3, %rax	#, D.11873
	movzbl	(%rax), %eax	# *_124, D.11871
	movzbl	%al, %eax	# D.11871, D.11872
	sall	$24, %eax	#, D.11872
	orl	%edx, %eax	# D.11872, tmp752
	movl	%eax, -76(%rbp)	# tmp752, tmp
	addq	$4, -128(%rbp)	#, buf
	movl	-92(%rbp), %eax	# a, tmp753
	movl	-80(%rbp), %edx	# d, tmp754
	xorl	%edx, %eax	# tmp754, D.11872
	andl	-84(%rbp), %eax	# c, D.11872
	xorl	-92(%rbp), %eax	# a, D.11872
	movl	%eax, %ecx	# D.11872, D.11872
	movq	-72(%rbp), %rax	# uptr, uptr.6
	leaq	4(%rax), %rdx	#, tmp755
	movq	%rdx, -72(%rbp)	# tmp755, uptr
	movl	-76(%rbp), %edx	# tmp, tmp756
	movl	%edx, (%rax)	# tmp756, *uptr.6_133
	movl	(%rax), %eax	# *uptr.6_133, D.11872
	leal	(%rcx,%rax), %edx	#, D.11872
	movl	-88(%rbp), %eax	# b, tmp757
	addl	%edx, %eax	# D.11872, D.11872
	subl	$1044525330, %eax	#, tmp758
	movl	%eax, -88(%rbp)	# tmp758, b
	rorl	$10, -88(%rbp)	#, b
	movl	-84(%rbp), %eax	# c, tmp759
	addl	%eax, -88(%rbp)	# tmp759, b
	.loc 1 304 0 discriminator 1
	movq	-128(%rbp), %rax	# buf, tmp760
	movzbl	(%rax), %eax	# *buf_129, D.11871
	movzbl	%al, %eax	# D.11871, D.11872
	movq	-128(%rbp), %rdx	# buf, tmp761
	addq	$1, %rdx	#, D.11873
	movzbl	(%rdx), %edx	# *_145, D.11871
	movzbl	%dl, %edx	# D.11871, D.11872
	sall	$8, %edx	#, D.11872
	orl	%eax, %edx	# D.11872, D.11872
	movq	-128(%rbp), %rax	# buf, tmp762
	addq	$2, %rax	#, D.11873
	movzbl	(%rax), %eax	# *_150, D.11871
	movzbl	%al, %eax	# D.11871, D.11872
	sall	$16, %eax	#, D.11872
	orl	%eax, %edx	# D.11872, D.11872
	movq	-128(%rbp), %rax	# buf, tmp763
	addq	$3, %rax	#, D.11873
	movzbl	(%rax), %eax	# *_155, D.11871
	movzbl	%al, %eax	# D.11871, D.11872
	sall	$24, %eax	#, D.11872
	orl	%edx, %eax	# D.11872, tmp764
	movl	%eax, -76(%rbp)	# tmp764, tmp
	addq	$4, -128(%rbp)	#, buf
	movl	-80(%rbp), %eax	# d, tmp765
	movl	-84(%rbp), %edx	# c, tmp766
	xorl	%edx, %eax	# tmp766, D.11872
	andl	-88(%rbp), %eax	# b, D.11872
	xorl	-80(%rbp), %eax	# d, D.11872
	movl	%eax, %ecx	# D.11872, D.11872
	movq	-72(%rbp), %rax	# uptr, uptr.7
	leaq	4(%rax), %rdx	#, tmp767
	movq	%rdx, -72(%rbp)	# tmp767, uptr
	movl	-76(%rbp), %edx	# tmp, tmp768
	movl	%edx, (%rax)	# tmp768, *uptr.7_164
	movl	(%rax), %eax	# *uptr.7_164, D.11872
	leal	(%rcx,%rax), %edx	#, D.11872
	movl	-92(%rbp), %eax	# a, tmp769
	addl	%edx, %eax	# D.11872, D.11872
	subl	$176418897, %eax	#, tmp770
	movl	%eax, -92(%rbp)	# tmp770, a
	rorl	$25, -92(%rbp)	#, a
	movl	-88(%rbp), %eax	# b, tmp771
	addl	%eax, -92(%rbp)	# tmp771, a
	.loc 1 305 0 discriminator 1
	movq	-128(%rbp), %rax	# buf, tmp772
	movzbl	(%rax), %eax	# *buf_160, D.11871
	movzbl	%al, %eax	# D.11871, D.11872
	movq	-128(%rbp), %rdx	# buf, tmp773
	addq	$1, %rdx	#, D.11873
	movzbl	(%rdx), %edx	# *_176, D.11871
	movzbl	%dl, %edx	# D.11871, D.11872
	sall	$8, %edx	#, D.11872
	orl	%eax, %edx	# D.11872, D.11872
	movq	-128(%rbp), %rax	# buf, tmp774
	addq	$2, %rax	#, D.11873
	movzbl	(%rax), %eax	# *_181, D.11871
	movzbl	%al, %eax	# D.11871, D.11872
	sall	$16, %eax	#, D.11872
	orl	%eax, %edx	# D.11872, D.11872
	movq	-128(%rbp), %rax	# buf, tmp775
	addq	$3, %rax	#, D.11873
	movzbl	(%rax), %eax	# *_186, D.11871
	movzbl	%al, %eax	# D.11871, D.11872
	sall	$24, %eax	#, D.11872
	orl	%edx, %eax	# D.11872, tmp776
	movl	%eax, -76(%rbp)	# tmp776, tmp
	addq	$4, -128(%rbp)	#, buf
	movl	-84(%rbp), %eax	# c, tmp777
	movl	-88(%rbp), %edx	# b, tmp778
	xorl	%edx, %eax	# tmp778, D.11872
	andl	-92(%rbp), %eax	# a, D.11872
	xorl	-84(%rbp), %eax	# c, D.11872
	movl	%eax, %ecx	# D.11872, D.11872
	movq	-72(%rbp), %rax	# uptr, uptr.8
	leaq	4(%rax), %rdx	#, tmp779
	movq	%rdx, -72(%rbp)	# tmp779, uptr
	movl	-76(%rbp), %edx	# tmp, tmp780
	movl	%edx, (%rax)	# tmp780, *uptr.8_195
	movl	(%rax), %eax	# *uptr.8_195, D.11872
	leal	(%rcx,%rax), %edx	#, D.11872
	movl	-80(%rbp), %eax	# d, tmp781
	addl	%edx, %eax	# D.11872, D.11872
	addl	$1200080426, %eax	#, tmp782
	movl	%eax, -80(%rbp)	# tmp782, d
	rorl	$20, -80(%rbp)	#, d
	movl	-92(%rbp), %eax	# a, tmp783
	addl	%eax, -80(%rbp)	# tmp783, d
	.loc 1 306 0 discriminator 1
	movq	-128(%rbp), %rax	# buf, tmp784
	movzbl	(%rax), %eax	# *buf_191, D.11871
	movzbl	%al, %eax	# D.11871, D.11872
	movq	-128(%rbp), %rdx	# buf, tmp785
	addq	$1, %rdx	#, D.11873
	movzbl	(%rdx), %edx	# *_207, D.11871
	movzbl	%dl, %edx	# D.11871, D.11872
	sall	$8, %edx	#, D.11872
	orl	%eax, %edx	# D.11872, D.11872
	movq	-128(%rbp), %rax	# buf, tmp786
	addq	$2, %rax	#, D.11873
	movzbl	(%rax), %eax	# *_212, D.11871
	movzbl	%al, %eax	# D.11871, D.11872
	sall	$16, %eax	#, D.11872
	orl	%eax, %edx	# D.11872, D.11872
	movq	-128(%rbp), %rax	# buf, tmp787
	addq	$3, %rax	#, D.11873
	movzbl	(%rax), %eax	# *_217, D.11871
	movzbl	%al, %eax	# D.11871, D.11872
	sall	$24, %eax	#, D.11872
	orl	%edx, %eax	# D.11872, tmp788
	movl	%eax, -76(%rbp)	# tmp788, tmp
	addq	$4, -128(%rbp)	#, buf
	movl	-88(%rbp), %eax	# b, tmp789
	movl	-92(%rbp), %edx	# a, tmp790
	xorl	%edx, %eax	# tmp790, D.11872
	andl	-80(%rbp), %eax	# d, D.11872
	xorl	-88(%rbp), %eax	# b, D.11872
	movl	%eax, %ecx	# D.11872, D.11872
	movq	-72(%rbp), %rax	# uptr, uptr.9
	leaq	4(%rax), %rdx	#, tmp791
	movq	%rdx, -72(%rbp)	# tmp791, uptr
	movl	-76(%rbp), %edx	# tmp, tmp792
	movl	%edx, (%rax)	# tmp792, *uptr.9_226
	movl	(%rax), %eax	# *uptr.9_226, D.11872
	leal	(%rcx,%rax), %edx	#, D.11872
	movl	-84(%rbp), %eax	# c, tmp793
	addl	%edx, %eax	# D.11872, D.11872
	subl	$1473231341, %eax	#, tmp794
	movl	%eax, -84(%rbp)	# tmp794, c
	rorl	$15, -84(%rbp)	#, c
	movl	-80(%rbp), %eax	# d, tmp795
	addl	%eax, -84(%rbp)	# tmp795, c
	.loc 1 307 0 discriminator 1
	movq	-128(%rbp), %rax	# buf, tmp796
	movzbl	(%rax), %eax	# *buf_222, D.11871
	movzbl	%al, %eax	# D.11871, D.11872
	movq	-128(%rbp), %rdx	# buf, tmp797
	addq	$1, %rdx	#, D.11873
	movzbl	(%rdx), %edx	# *_238, D.11871
	movzbl	%dl, %edx	# D.11871, D.11872
	sall	$8, %edx	#, D.11872
	orl	%eax, %edx	# D.11872, D.11872
	movq	-128(%rbp), %rax	# buf, tmp798
	addq	$2, %rax	#, D.11873
	movzbl	(%rax), %eax	# *_243, D.11871
	movzbl	%al, %eax	# D.11871, D.11872
	sall	$16, %eax	#, D.11872
	orl	%eax, %edx	# D.11872, D.11872
	movq	-128(%rbp), %rax	# buf, tmp799
	addq	$3, %rax	#, D.11873
	movzbl	(%rax), %eax	# *_248, D.11871
	movzbl	%al, %eax	# D.11871, D.11872
	sall	$24, %eax	#, D.11872
	orl	%edx, %eax	# D.11872, tmp800
	movl	%eax, -76(%rbp)	# tmp800, tmp
	addq	$4, -128(%rbp)	#, buf
	movl	-92(%rbp), %eax	# a, tmp801
	movl	-80(%rbp), %edx	# d, tmp802
	xorl	%edx, %eax	# tmp802, D.11872
	andl	-84(%rbp), %eax	# c, D.11872
	xorl	-92(%rbp), %eax	# a, D.11872
	movl	%eax, %ecx	# D.11872, D.11872
	movq	-72(%rbp), %rax	# uptr, uptr.10
	leaq	4(%rax), %rdx	#, tmp803
	movq	%rdx, -72(%rbp)	# tmp803, uptr
	movl	-76(%rbp), %edx	# tmp, tmp804
	movl	%edx, (%rax)	# tmp804, *uptr.10_257
	movl	(%rax), %eax	# *uptr.10_257, D.11872
	leal	(%rcx,%rax), %edx	#, D.11872
	movl	-88(%rbp), %eax	# b, tmp805
	addl	%edx, %eax	# D.11872, D.11872
	subl	$45705983, %eax	#, tmp806
	movl	%eax, -88(%rbp)	# tmp806, b
	rorl	$10, -88(%rbp)	#, b
	movl	-84(%rbp), %eax	# c, tmp807
	addl	%eax, -88(%rbp)	# tmp807, b
	.loc 1 308 0 discriminator 1
	movq	-128(%rbp), %rax	# buf, tmp808
	movzbl	(%rax), %eax	# *buf_253, D.11871
	movzbl	%al, %eax	# D.11871, D.11872
	movq	-128(%rbp), %rdx	# buf, tmp809
	addq	$1, %rdx	#, D.11873
	movzbl	(%rdx), %edx	# *_269, D.11871
	movzbl	%dl, %edx	# D.11871, D.11872
	sall	$8, %edx	#, D.11872
	orl	%eax, %edx	# D.11872, D.11872
	movq	-128(%rbp), %rax	# buf, tmp810
	addq	$2, %rax	#, D.11873
	movzbl	(%rax), %eax	# *_274, D.11871
	movzbl	%al, %eax	# D.11871, D.11872
	sall	$16, %eax	#, D.11872
	orl	%eax, %edx	# D.11872, D.11872
	movq	-128(%rbp), %rax	# buf, tmp811
	addq	$3, %rax	#, D.11873
	movzbl	(%rax), %eax	# *_279, D.11871
	movzbl	%al, %eax	# D.11871, D.11872
	sall	$24, %eax	#, D.11872
	orl	%edx, %eax	# D.11872, tmp812
	movl	%eax, -76(%rbp)	# tmp812, tmp
	addq	$4, -128(%rbp)	#, buf
	movl	-80(%rbp), %eax	# d, tmp813
	movl	-84(%rbp), %edx	# c, tmp814
	xorl	%edx, %eax	# tmp814, D.11872
	andl	-88(%rbp), %eax	# b, D.11872
	xorl	-80(%rbp), %eax	# d, D.11872
	movl	%eax, %ecx	# D.11872, D.11872
	movq	-72(%rbp), %rax	# uptr, uptr.11
	leaq	4(%rax), %rdx	#, tmp815
	movq	%rdx, -72(%rbp)	# tmp815, uptr
	movl	-76(%rbp), %edx	# tmp, tmp816
	movl	%edx, (%rax)	# tmp816, *uptr.11_288
	movl	(%rax), %eax	# *uptr.11_288, D.11872
	leal	(%rcx,%rax), %edx	#, D.11872
	movl	-92(%rbp), %eax	# a, tmp817
	addl	%edx, %eax	# D.11872, D.11872
	addl	$1770035416, %eax	#, tmp818
	movl	%eax, -92(%rbp)	# tmp818, a
	rorl	$25, -92(%rbp)	#, a
	movl	-88(%rbp), %eax	# b, tmp819
	addl	%eax, -92(%rbp)	# tmp819, a
	.loc 1 309 0 discriminator 1
	movq	-128(%rbp), %rax	# buf, tmp820
	movzbl	(%rax), %eax	# *buf_284, D.11871
	movzbl	%al, %eax	# D.11871, D.11872
	movq	-128(%rbp), %rdx	# buf, tmp821
	addq	$1, %rdx	#, D.11873
	movzbl	(%rdx), %edx	# *_300, D.11871
	movzbl	%dl, %edx	# D.11871, D.11872
	sall	$8, %edx	#, D.11872
	orl	%eax, %edx	# D.11872, D.11872
	movq	-128(%rbp), %rax	# buf, tmp822
	addq	$2, %rax	#, D.11873
	movzbl	(%rax), %eax	# *_305, D.11871
	movzbl	%al, %eax	# D.11871, D.11872
	sall	$16, %eax	#, D.11872
	orl	%eax, %edx	# D.11872, D.11872
	movq	-128(%rbp), %rax	# buf, tmp823
	addq	$3, %rax	#, D.11873
	movzbl	(%rax), %eax	# *_310, D.11871
	movzbl	%al, %eax	# D.11871, D.11872
	sall	$24, %eax	#, D.11872
	orl	%edx, %eax	# D.11872, tmp824
	movl	%eax, -76(%rbp)	# tmp824, tmp
	addq	$4, -128(%rbp)	#, buf
	movl	-84(%rbp), %eax	# c, tmp825
	movl	-88(%rbp), %edx	# b, tmp826
	xorl	%edx, %eax	# tmp826, D.11872
	andl	-92(%rbp), %eax	# a, D.11872
	xorl	-84(%rbp), %eax	# c, D.11872
	movl	%eax, %ecx	# D.11872, D.11872
	movq	-72(%rbp), %rax	# uptr, uptr.12
	leaq	4(%rax), %rdx	#, tmp827
	movq	%rdx, -72(%rbp)	# tmp827, uptr
	movl	-76(%rbp), %edx	# tmp, tmp828
	movl	%edx, (%rax)	# tmp828, *uptr.12_319
	movl	(%rax), %eax	# *uptr.12_319, D.11872
	leal	(%rcx,%rax), %edx	#, D.11872
	movl	-80(%rbp), %eax	# d, tmp829
	addl	%edx, %eax	# D.11872, D.11872
	subl	$1958414417, %eax	#, tmp830
	movl	%eax, -80(%rbp)	# tmp830, d
	rorl	$20, -80(%rbp)	#, d
	movl	-92(%rbp), %eax	# a, tmp831
	addl	%eax, -80(%rbp)	# tmp831, d
	.loc 1 310 0 discriminator 1
	movq	-128(%rbp), %rax	# buf, tmp832
	movzbl	(%rax), %eax	# *buf_315, D.11871
	movzbl	%al, %eax	# D.11871, D.11872
	movq	-128(%rbp), %rdx	# buf, tmp833
	addq	$1, %rdx	#, D.11873
	movzbl	(%rdx), %edx	# *_331, D.11871
	movzbl	%dl, %edx	# D.11871, D.11872
	sall	$8, %edx	#, D.11872
	orl	%eax, %edx	# D.11872, D.11872
	movq	-128(%rbp), %rax	# buf, tmp834
	addq	$2, %rax	#, D.11873
	movzbl	(%rax), %eax	# *_336, D.11871
	movzbl	%al, %eax	# D.11871, D.11872
	sall	$16, %eax	#, D.11872
	orl	%eax, %edx	# D.11872, D.11872
	movq	-128(%rbp), %rax	# buf, tmp835
	addq	$3, %rax	#, D.11873
	movzbl	(%rax), %eax	# *_341, D.11871
	movzbl	%al, %eax	# D.11871, D.11872
	sall	$24, %eax	#, D.11872
	orl	%edx, %eax	# D.11872, tmp836
	movl	%eax, -76(%rbp)	# tmp836, tmp
	addq	$4, -128(%rbp)	#, buf
	movl	-88(%rbp), %eax	# b, tmp837
	movl	-92(%rbp), %edx	# a, tmp838
	xorl	%edx, %eax	# tmp838, D.11872
	andl	-80(%rbp), %eax	# d, D.11872
	xorl	-88(%rbp), %eax	# b, D.11872
	movl	%eax, %ecx	# D.11872, D.11872
	movq	-72(%rbp), %rax	# uptr, uptr.13
	leaq	4(%rax), %rdx	#, tmp839
	movq	%rdx, -72(%rbp)	# tmp839, uptr
	movl	-76(%rbp), %edx	# tmp, tmp840
	movl	%edx, (%rax)	# tmp840, *uptr.13_350
	movl	(%rax), %eax	# *uptr.13_350, D.11872
	leal	(%rcx,%rax), %edx	#, D.11872
	movl	-84(%rbp), %eax	# c, tmp841
	addl	%edx, %eax	# D.11872, D.11872
	subl	$42063, %eax	#, tmp842
	movl	%eax, -84(%rbp)	# tmp842, c
	rorl	$15, -84(%rbp)	#, c
	movl	-80(%rbp), %eax	# d, tmp843
	addl	%eax, -84(%rbp)	# tmp843, c
	.loc 1 311 0 discriminator 1
	movq	-128(%rbp), %rax	# buf, tmp844
	movzbl	(%rax), %eax	# *buf_346, D.11871
	movzbl	%al, %eax	# D.11871, D.11872
	movq	-128(%rbp), %rdx	# buf, tmp845
	addq	$1, %rdx	#, D.11873
	movzbl	(%rdx), %edx	# *_362, D.11871
	movzbl	%dl, %edx	# D.11871, D.11872
	sall	$8, %edx	#, D.11872
	orl	%eax, %edx	# D.11872, D.11872
	movq	-128(%rbp), %rax	# buf, tmp846
	addq	$2, %rax	#, D.11873
	movzbl	(%rax), %eax	# *_367, D.11871
	movzbl	%al, %eax	# D.11871, D.11872
	sall	$16, %eax	#, D.11872
	orl	%eax, %edx	# D.11872, D.11872
	movq	-128(%rbp), %rax	# buf, tmp847
	addq	$3, %rax	#, D.11873
	movzbl	(%rax), %eax	# *_372, D.11871
	movzbl	%al, %eax	# D.11871, D.11872
	sall	$24, %eax	#, D.11872
	orl	%edx, %eax	# D.11872, tmp848
	movl	%eax, -76(%rbp)	# tmp848, tmp
	addq	$4, -128(%rbp)	#, buf
	movl	-92(%rbp), %eax	# a, tmp849
	movl	-80(%rbp), %edx	# d, tmp850
	xorl	%edx, %eax	# tmp850, D.11872
	andl	-84(%rbp), %eax	# c, D.11872
	xorl	-92(%rbp), %eax	# a, D.11872
	movl	%eax, %ecx	# D.11872, D.11872
	movq	-72(%rbp), %rax	# uptr, uptr.14
	leaq	4(%rax), %rdx	#, tmp851
	movq	%rdx, -72(%rbp)	# tmp851, uptr
	movl	-76(%rbp), %edx	# tmp, tmp852
	movl	%edx, (%rax)	# tmp852, *uptr.14_381
	movl	(%rax), %eax	# *uptr.14_381, D.11872
	leal	(%rcx,%rax), %edx	#, D.11872
	movl	-88(%rbp), %eax	# b, tmp853
	addl	%edx, %eax	# D.11872, D.11872
	subl	$1990404162, %eax	#, tmp854
	movl	%eax, -88(%rbp)	# tmp854, b
	rorl	$10, -88(%rbp)	#, b
	movl	-84(%rbp), %eax	# c, tmp855
	addl	%eax, -88(%rbp)	# tmp855, b
	.loc 1 312 0 discriminator 1
	movq	-128(%rbp), %rax	# buf, tmp856
	movzbl	(%rax), %eax	# *buf_377, D.11871
	movzbl	%al, %eax	# D.11871, D.11872
	movq	-128(%rbp), %rdx	# buf, tmp857
	addq	$1, %rdx	#, D.11873
	movzbl	(%rdx), %edx	# *_393, D.11871
	movzbl	%dl, %edx	# D.11871, D.11872
	sall	$8, %edx	#, D.11872
	orl	%eax, %edx	# D.11872, D.11872
	movq	-128(%rbp), %rax	# buf, tmp858
	addq	$2, %rax	#, D.11873
	movzbl	(%rax), %eax	# *_398, D.11871
	movzbl	%al, %eax	# D.11871, D.11872
	sall	$16, %eax	#, D.11872
	orl	%eax, %edx	# D.11872, D.11872
	movq	-128(%rbp), %rax	# buf, tmp859
	addq	$3, %rax	#, D.11873
	movzbl	(%rax), %eax	# *_403, D.11871
	movzbl	%al, %eax	# D.11871, D.11872
	sall	$24, %eax	#, D.11872
	orl	%edx, %eax	# D.11872, tmp860
	movl	%eax, -76(%rbp)	# tmp860, tmp
	addq	$4, -128(%rbp)	#, buf
	movl	-80(%rbp), %eax	# d, tmp861
	movl	-84(%rbp), %edx	# c, tmp862
	xorl	%edx, %eax	# tmp862, D.11872
	andl	-88(%rbp), %eax	# b, D.11872
	xorl	-80(%rbp), %eax	# d, D.11872
	movl	%eax, %ecx	# D.11872, D.11872
	movq	-72(%rbp), %rax	# uptr, uptr.15
	leaq	4(%rax), %rdx	#, tmp863
	movq	%rdx, -72(%rbp)	# tmp863, uptr
	movl	-76(%rbp), %edx	# tmp, tmp864
	movl	%edx, (%rax)	# tmp864, *uptr.15_412
	movl	(%rax), %eax	# *uptr.15_412, D.11872
	leal	(%rcx,%rax), %edx	#, D.11872
	movl	-92(%rbp), %eax	# a, tmp865
	addl	%edx, %eax	# D.11872, D.11872
	addl	$1804603682, %eax	#, tmp866
	movl	%eax, -92(%rbp)	# tmp866, a
	rorl	$25, -92(%rbp)	#, a
	movl	-88(%rbp), %eax	# b, tmp867
	addl	%eax, -92(%rbp)	# tmp867, a
	.loc 1 313 0 discriminator 1
	movq	-128(%rbp), %rax	# buf, tmp868
	movzbl	(%rax), %eax	# *buf_408, D.11871
	movzbl	%al, %eax	# D.11871, D.11872
	movq	-128(%rbp), %rdx	# buf, tmp869
	addq	$1, %rdx	#, D.11873
	movzbl	(%rdx), %edx	# *_424, D.11871
	movzbl	%dl, %edx	# D.11871, D.11872
	sall	$8, %edx	#, D.11872
	orl	%eax, %edx	# D.11872, D.11872
	movq	-128(%rbp), %rax	# buf, tmp870
	addq	$2, %rax	#, D.11873
	movzbl	(%rax), %eax	# *_429, D.11871
	movzbl	%al, %eax	# D.11871, D.11872
	sall	$16, %eax	#, D.11872
	orl	%eax, %edx	# D.11872, D.11872
	movq	-128(%rbp), %rax	# buf, tmp871
	addq	$3, %rax	#, D.11873
	movzbl	(%rax), %eax	# *_434, D.11871
	movzbl	%al, %eax	# D.11871, D.11872
	sall	$24, %eax	#, D.11872
	orl	%edx, %eax	# D.11872, tmp872
	movl	%eax, -76(%rbp)	# tmp872, tmp
	addq	$4, -128(%rbp)	#, buf
	movl	-84(%rbp), %eax	# c, tmp873
	movl	-88(%rbp), %edx	# b, tmp874
	xorl	%edx, %eax	# tmp874, D.11872
	andl	-92(%rbp), %eax	# a, D.11872
	xorl	-84(%rbp), %eax	# c, D.11872
	movl	%eax, %ecx	# D.11872, D.11872
	movq	-72(%rbp), %rax	# uptr, uptr.16
	leaq	4(%rax), %rdx	#, tmp875
	movq	%rdx, -72(%rbp)	# tmp875, uptr
	movl	-76(%rbp), %edx	# tmp, tmp876
	movl	%edx, (%rax)	# tmp876, *uptr.16_443
	movl	(%rax), %eax	# *uptr.16_443, D.11872
	leal	(%rcx,%rax), %edx	#, D.11872
	movl	-80(%rbp), %eax	# d, tmp877
	addl	%edx, %eax	# D.11872, D.11872
	subl	$40341101, %eax	#, tmp878
	movl	%eax, -80(%rbp)	# tmp878, d
	rorl	$20, -80(%rbp)	#, d
	movl	-92(%rbp), %eax	# a, tmp879
	addl	%eax, -80(%rbp)	# tmp879, d
	.loc 1 314 0 discriminator 1
	movq	-128(%rbp), %rax	# buf, tmp880
	movzbl	(%rax), %eax	# *buf_439, D.11871
	movzbl	%al, %eax	# D.11871, D.11872
	movq	-128(%rbp), %rdx	# buf, tmp881
	addq	$1, %rdx	#, D.11873
	movzbl	(%rdx), %edx	# *_455, D.11871
	movzbl	%dl, %edx	# D.11871, D.11872
	sall	$8, %edx	#, D.11872
	orl	%eax, %edx	# D.11872, D.11872
	movq	-128(%rbp), %rax	# buf, tmp882
	addq	$2, %rax	#, D.11873
	movzbl	(%rax), %eax	# *_460, D.11871
	movzbl	%al, %eax	# D.11871, D.11872
	sall	$16, %eax	#, D.11872
	orl	%eax, %edx	# D.11872, D.11872
	movq	-128(%rbp), %rax	# buf, tmp883
	addq	$3, %rax	#, D.11873
	movzbl	(%rax), %eax	# *_465, D.11871
	movzbl	%al, %eax	# D.11871, D.11872
	sall	$24, %eax	#, D.11872
	orl	%edx, %eax	# D.11872, tmp884
	movl	%eax, -76(%rbp)	# tmp884, tmp
	addq	$4, -128(%rbp)	#, buf
	movl	-88(%rbp), %eax	# b, tmp885
	movl	-92(%rbp), %edx	# a, tmp886
	xorl	%edx, %eax	# tmp886, D.11872
	andl	-80(%rbp), %eax	# d, D.11872
	xorl	-88(%rbp), %eax	# b, D.11872
	movl	%eax, %ecx	# D.11872, D.11872
	movq	-72(%rbp), %rax	# uptr, uptr.17
	leaq	4(%rax), %rdx	#, tmp887
	movq	%rdx, -72(%rbp)	# tmp887, uptr
	movl	-76(%rbp), %edx	# tmp, tmp888
	movl	%edx, (%rax)	# tmp888, *uptr.17_474
	movl	(%rax), %eax	# *uptr.17_474, D.11872
	leal	(%rcx,%rax), %edx	#, D.11872
	movl	-84(%rbp), %eax	# c, tmp889
	addl	%edx, %eax	# D.11872, D.11872
	subl	$1502002290, %eax	#, tmp890
	movl	%eax, -84(%rbp)	# tmp890, c
	rorl	$15, -84(%rbp)	#, c
	movl	-80(%rbp), %eax	# d, tmp891
	addl	%eax, -84(%rbp)	# tmp891, c
	.loc 1 315 0 discriminator 1
	movq	-128(%rbp), %rax	# buf, tmp892
	movzbl	(%rax), %eax	# *buf_470, D.11871
	movzbl	%al, %eax	# D.11871, D.11872
	movq	-128(%rbp), %rdx	# buf, tmp893
	addq	$1, %rdx	#, D.11873
	movzbl	(%rdx), %edx	# *_486, D.11871
	movzbl	%dl, %edx	# D.11871, D.11872
	sall	$8, %edx	#, D.11872
	orl	%eax, %edx	# D.11872, D.11872
	movq	-128(%rbp), %rax	# buf, tmp894
	addq	$2, %rax	#, D.11873
	movzbl	(%rax), %eax	# *_491, D.11871
	movzbl	%al, %eax	# D.11871, D.11872
	sall	$16, %eax	#, D.11872
	orl	%eax, %edx	# D.11872, D.11872
	movq	-128(%rbp), %rax	# buf, tmp895
	addq	$3, %rax	#, D.11873
	movzbl	(%rax), %eax	# *_496, D.11871
	movzbl	%al, %eax	# D.11871, D.11872
	sall	$24, %eax	#, D.11872
	orl	%edx, %eax	# D.11872, tmp896
	movl	%eax, -76(%rbp)	# tmp896, tmp
	addq	$4, -128(%rbp)	#, buf
	movl	-92(%rbp), %eax	# a, tmp897
	movl	-80(%rbp), %edx	# d, tmp898
	xorl	%edx, %eax	# tmp898, D.11872
	andl	-84(%rbp), %eax	# c, D.11872
	xorl	-92(%rbp), %eax	# a, D.11872
	movl	%eax, %ecx	# D.11872, D.11872
	movq	-72(%rbp), %rax	# uptr, uptr.18
	leaq	4(%rax), %rdx	#, tmp899
	movq	%rdx, -72(%rbp)	# tmp899, uptr
	movl	-76(%rbp), %edx	# tmp, tmp900
	movl	%edx, (%rax)	# tmp900, *uptr.18_505
	movl	(%rax), %eax	# *uptr.18_505, D.11872
	leal	(%rcx,%rax), %edx	#, D.11872
	movl	-88(%rbp), %eax	# b, tmp901
	addl	%edx, %eax	# D.11872, D.11872
	addl	$1236535329, %eax	#, tmp902
	movl	%eax, -88(%rbp)	# tmp902, b
	rorl	$10, -88(%rbp)	#, b
	movl	-84(%rbp), %eax	# c, tmp903
	addl	%eax, -88(%rbp)	# tmp903, b
	.loc 1 318 0 discriminator 1
	movl	-84(%rbp), %eax	# c, tmp904
	movl	-88(%rbp), %edx	# b, tmp905
	xorl	%edx, %eax	# tmp905, D.11872
	andl	-80(%rbp), %eax	# d, D.11872
	xorl	-84(%rbp), %eax	# c, D.11872
	movl	%eax, %edx	# D.11872, D.11872
	movl	-60(%rbp), %eax	# X, D.11872
	addl	%eax, %edx	# D.11872, D.11872
	movl	-92(%rbp), %eax	# a, tmp906
	addl	%edx, %eax	# D.11872, D.11872
	subl	$165796510, %eax	#, tmp907
	movl	%eax, -92(%rbp)	# tmp907, a
	rorl	$27, -92(%rbp)	#, a
	movl	-88(%rbp), %eax	# b, tmp908
	addl	%eax, -92(%rbp)	# tmp908, a
	.loc 1 319 0 discriminator 1
	movl	-88(%rbp), %eax	# b, tmp909
	movl	-92(%rbp), %edx	# a, tmp910
	xorl	%edx, %eax	# tmp910, D.11872
	andl	-84(%rbp), %eax	# c, D.11872
	xorl	-88(%rbp), %eax	# b, D.11872
	movl	%eax, %edx	# D.11872, D.11872
	movl	-40(%rbp), %eax	# X, D.11872
	addl	%eax, %edx	# D.11872, D.11872
	movl	-80(%rbp), %eax	# d, tmp911
	addl	%edx, %eax	# D.11872, D.11872
	subl	$1069501632, %eax	#, tmp912
	movl	%eax, -80(%rbp)	# tmp912, d
	rorl	$23, -80(%rbp)	#, d
	movl	-92(%rbp), %eax	# a, tmp913
	addl	%eax, -80(%rbp)	# tmp913, d
	.loc 1 320 0 discriminator 1
	movl	-92(%rbp), %eax	# a, tmp914
	movl	-80(%rbp), %edx	# d, tmp915
	xorl	%edx, %eax	# tmp915, D.11872
	andl	-88(%rbp), %eax	# b, D.11872
	xorl	-92(%rbp), %eax	# a, D.11872
	movl	%eax, %edx	# D.11872, D.11872
	movl	-20(%rbp), %eax	# X, D.11872
	addl	%eax, %edx	# D.11872, D.11872
	movl	-84(%rbp), %eax	# c, tmp916
	addl	%edx, %eax	# D.11872, D.11872
	addl	$643717713, %eax	#, tmp917
	movl	%eax, -84(%rbp)	# tmp917, c
	rorl	$18, -84(%rbp)	#, c
	movl	-80(%rbp), %eax	# d, tmp918
	addl	%eax, -84(%rbp)	# tmp918, c
	.loc 1 321 0 discriminator 1
	movl	-80(%rbp), %eax	# d, tmp919
	movl	-84(%rbp), %edx	# c, tmp920
	xorl	%edx, %eax	# tmp920, D.11872
	andl	-92(%rbp), %eax	# a, D.11872
	xorl	-80(%rbp), %eax	# d, D.11872
	movl	%eax, %edx	# D.11872, D.11872
	movl	-64(%rbp), %eax	# X, D.11872
	addl	%eax, %edx	# D.11872, D.11872
	movl	-88(%rbp), %eax	# b, tmp921
	addl	%edx, %eax	# D.11872, D.11872
	subl	$373897302, %eax	#, tmp922
	movl	%eax, -88(%rbp)	# tmp922, b
	rorl	$12, -88(%rbp)	#, b
	movl	-84(%rbp), %eax	# c, tmp923
	addl	%eax, -88(%rbp)	# tmp923, b
	.loc 1 322 0 discriminator 1
	movl	-84(%rbp), %eax	# c, tmp924
	movl	-88(%rbp), %edx	# b, tmp925
	xorl	%edx, %eax	# tmp925, D.11872
	andl	-80(%rbp), %eax	# d, D.11872
	xorl	-84(%rbp), %eax	# c, D.11872
	movl	%eax, %edx	# D.11872, D.11872
	movl	-44(%rbp), %eax	# X, D.11872
	addl	%eax, %edx	# D.11872, D.11872
	movl	-92(%rbp), %eax	# a, tmp926
	addl	%edx, %eax	# D.11872, D.11872
	subl	$701558691, %eax	#, tmp927
	movl	%eax, -92(%rbp)	# tmp927, a
	rorl	$27, -92(%rbp)	#, a
	movl	-88(%rbp), %eax	# b, tmp928
	addl	%eax, -92(%rbp)	# tmp928, a
	.loc 1 323 0 discriminator 1
	movl	-88(%rbp), %eax	# b, tmp929
	movl	-92(%rbp), %edx	# a, tmp930
	xorl	%edx, %eax	# tmp930, D.11872
	andl	-84(%rbp), %eax	# c, D.11872
	xorl	-88(%rbp), %eax	# b, D.11872
	movl	%eax, %edx	# D.11872, D.11872
	movl	-24(%rbp), %eax	# X, D.11872
	addl	%eax, %edx	# D.11872, D.11872
	movl	-80(%rbp), %eax	# d, tmp931
	addl	%edx, %eax	# D.11872, D.11872
	addl	$38016083, %eax	#, tmp932
	movl	%eax, -80(%rbp)	# tmp932, d
	rorl	$23, -80(%rbp)	#, d
	movl	-92(%rbp), %eax	# a, tmp933
	addl	%eax, -80(%rbp)	# tmp933, d
	.loc 1 324 0 discriminator 1
	movl	-92(%rbp), %eax	# a, tmp934
	movl	-80(%rbp), %edx	# d, tmp935
	xorl	%edx, %eax	# tmp935, D.11872
	andl	-88(%rbp), %eax	# b, D.11872
	xorl	-92(%rbp), %eax	# a, D.11872
	movl	%eax, %edx	# D.11872, D.11872
	movl	-4(%rbp), %eax	# X, D.11872
	addl	%eax, %edx	# D.11872, D.11872
	movl	-84(%rbp), %eax	# c, tmp936
	addl	%edx, %eax	# D.11872, D.11872
	subl	$660478335, %eax	#, tmp937
	movl	%eax, -84(%rbp)	# tmp937, c
	rorl	$18, -84(%rbp)	#, c
	movl	-80(%rbp), %eax	# d, tmp938
	addl	%eax, -84(%rbp)	# tmp938, c
	.loc 1 325 0 discriminator 1
	movl	-80(%rbp), %eax	# d, tmp939
	movl	-84(%rbp), %edx	# c, tmp940
	xorl	%edx, %eax	# tmp940, D.11872
	andl	-92(%rbp), %eax	# a, D.11872
	xorl	-80(%rbp), %eax	# d, D.11872
	movl	%eax, %edx	# D.11872, D.11872
	movl	-48(%rbp), %eax	# X, D.11872
	addl	%eax, %edx	# D.11872, D.11872
	movl	-88(%rbp), %eax	# b, tmp941
	addl	%edx, %eax	# D.11872, D.11872
	subl	$405537848, %eax	#, tmp942
	movl	%eax, -88(%rbp)	# tmp942, b
	rorl	$12, -88(%rbp)	#, b
	movl	-84(%rbp), %eax	# c, tmp943
	addl	%eax, -88(%rbp)	# tmp943, b
	.loc 1 326 0 discriminator 1
	movl	-84(%rbp), %eax	# c, tmp944
	movl	-88(%rbp), %edx	# b, tmp945
	xorl	%edx, %eax	# tmp945, D.11872
	andl	-80(%rbp), %eax	# d, D.11872
	xorl	-84(%rbp), %eax	# c, D.11872
	movl	%eax, %edx	# D.11872, D.11872
	movl	-28(%rbp), %eax	# X, D.11872
	addl	%eax, %edx	# D.11872, D.11872
	movl	-92(%rbp), %eax	# a, tmp946
	addl	%edx, %eax	# D.11872, D.11872
	addl	$568446438, %eax	#, tmp947
	movl	%eax, -92(%rbp)	# tmp947, a
	rorl	$27, -92(%rbp)	#, a
	movl	-88(%rbp), %eax	# b, tmp948
	addl	%eax, -92(%rbp)	# tmp948, a
	.loc 1 327 0 discriminator 1
	movl	-88(%rbp), %eax	# b, tmp949
	movl	-92(%rbp), %edx	# a, tmp950
	xorl	%edx, %eax	# tmp950, D.11872
	andl	-84(%rbp), %eax	# c, D.11872
	xorl	-88(%rbp), %eax	# b, D.11872
	movl	%eax, %edx	# D.11872, D.11872
	movl	-8(%rbp), %eax	# X, D.11872
	addl	%eax, %edx	# D.11872, D.11872
	movl	-80(%rbp), %eax	# d, tmp951
	addl	%edx, %eax	# D.11872, D.11872
	subl	$1019803690, %eax	#, tmp952
	movl	%eax, -80(%rbp)	# tmp952, d
	rorl	$23, -80(%rbp)	#, d
	movl	-92(%rbp), %eax	# a, tmp953
	addl	%eax, -80(%rbp)	# tmp953, d
	.loc 1 328 0 discriminator 1
	movl	-92(%rbp), %eax	# a, tmp954
	movl	-80(%rbp), %edx	# d, tmp955
	xorl	%edx, %eax	# tmp955, D.11872
	andl	-88(%rbp), %eax	# b, D.11872
	xorl	-92(%rbp), %eax	# a, D.11872
	movl	%eax, %edx	# D.11872, D.11872
	movl	-52(%rbp), %eax	# X, D.11872
	addl	%eax, %edx	# D.11872, D.11872
	movl	-84(%rbp), %eax	# c, tmp956
	addl	%edx, %eax	# D.11872, D.11872
	subl	$187363961, %eax	#, tmp957
	movl	%eax, -84(%rbp)	# tmp957, c
	rorl	$18, -84(%rbp)	#, c
	movl	-80(%rbp), %eax	# d, tmp958
	addl	%eax, -84(%rbp)	# tmp958, c
	.loc 1 329 0 discriminator 1
	movl	-80(%rbp), %eax	# d, tmp959
	movl	-84(%rbp), %edx	# c, tmp960
	xorl	%edx, %eax	# tmp960, D.11872
	andl	-92(%rbp), %eax	# a, D.11872
	xorl	-80(%rbp), %eax	# d, D.11872
	movl	%eax, %edx	# D.11872, D.11872
	movl	-32(%rbp), %eax	# X, D.11872
	addl	%eax, %edx	# D.11872, D.11872
	movl	-88(%rbp), %eax	# b, tmp961
	addl	%edx, %eax	# D.11872, D.11872
	addl	$1163531501, %eax	#, tmp962
	movl	%eax, -88(%rbp)	# tmp962, b
	rorl	$12, -88(%rbp)	#, b
	movl	-84(%rbp), %eax	# c, tmp963
	addl	%eax, -88(%rbp)	# tmp963, b
	.loc 1 330 0 discriminator 1
	movl	-84(%rbp), %eax	# c, tmp964
	movl	-88(%rbp), %edx	# b, tmp965
	xorl	%edx, %eax	# tmp965, D.11872
	andl	-80(%rbp), %eax	# d, D.11872
	xorl	-84(%rbp), %eax	# c, D.11872
	movl	%eax, %edx	# D.11872, D.11872
	movl	-12(%rbp), %eax	# X, D.11872
	addl	%eax, %edx	# D.11872, D.11872
	movl	-92(%rbp), %eax	# a, tmp966
	addl	%edx, %eax	# D.11872, D.11872
	subl	$1444681467, %eax	#, tmp967
	movl	%eax, -92(%rbp)	# tmp967, a
	rorl	$27, -92(%rbp)	#, a
	movl	-88(%rbp), %eax	# b, tmp968
	addl	%eax, -92(%rbp)	# tmp968, a
	.loc 1 331 0 discriminator 1
	movl	-88(%rbp), %eax	# b, tmp969
	movl	-92(%rbp), %edx	# a, tmp970
	xorl	%edx, %eax	# tmp970, D.11872
	andl	-84(%rbp), %eax	# c, D.11872
	xorl	-88(%rbp), %eax	# b, D.11872
	movl	%eax, %edx	# D.11872, D.11872
	movl	-56(%rbp), %eax	# X, D.11872
	addl	%eax, %edx	# D.11872, D.11872
	movl	-80(%rbp), %eax	# d, tmp971
	addl	%edx, %eax	# D.11872, D.11872
	subl	$51403784, %eax	#, tmp972
	movl	%eax, -80(%rbp)	# tmp972, d
	rorl	$23, -80(%rbp)	#, d
	movl	-92(%rbp), %eax	# a, tmp973
	addl	%eax, -80(%rbp)	# tmp973, d
	.loc 1 332 0 discriminator 1
	movl	-92(%rbp), %eax	# a, tmp974
	movl	-80(%rbp), %edx	# d, tmp975
	xorl	%edx, %eax	# tmp975, D.11872
	andl	-88(%rbp), %eax	# b, D.11872
	xorl	-92(%rbp), %eax	# a, D.11872
	movl	%eax, %edx	# D.11872, D.11872
	movl	-36(%rbp), %eax	# X, D.11872
	addl	%eax, %edx	# D.11872, D.11872
	movl	-84(%rbp), %eax	# c, tmp976
	addl	%edx, %eax	# D.11872, D.11872
	addl	$1735328473, %eax	#, tmp977
	movl	%eax, -84(%rbp)	# tmp977, c
	rorl	$18, -84(%rbp)	#, c
	movl	-80(%rbp), %eax	# d, tmp978
	addl	%eax, -84(%rbp)	# tmp978, c
	.loc 1 333 0 discriminator 1
	movl	-80(%rbp), %eax	# d, tmp979
	movl	-84(%rbp), %edx	# c, tmp980
	xorl	%edx, %eax	# tmp980, D.11872
	andl	-92(%rbp), %eax	# a, D.11872
	xorl	-80(%rbp), %eax	# d, D.11872
	movl	%eax, %edx	# D.11872, D.11872
	movl	-16(%rbp), %eax	# X, D.11872
	addl	%eax, %edx	# D.11872, D.11872
	movl	-88(%rbp), %eax	# b, tmp981
	addl	%edx, %eax	# D.11872, D.11872
	subl	$1926607734, %eax	#, tmp982
	movl	%eax, -88(%rbp)	# tmp982, b
	rorl	$12, -88(%rbp)	#, b
	movl	-84(%rbp), %eax	# c, tmp983
	addl	%eax, -88(%rbp)	# tmp983, b
	.loc 1 336 0 discriminator 1
	movl	-84(%rbp), %eax	# c, tmp984
	movl	-88(%rbp), %edx	# b, tmp985
	xorl	%edx, %eax	# tmp985, D.11872
	xorl	-80(%rbp), %eax	# d, D.11872
	movl	%eax, %edx	# D.11872, D.11872
	movl	-44(%rbp), %eax	# X, D.11872
	addl	%eax, %edx	# D.11872, D.11872
	movl	-92(%rbp), %eax	# a, tmp986
	addl	%edx, %eax	# D.11872, D.11872
	subl	$378558, %eax	#, tmp987
	movl	%eax, -92(%rbp)	# tmp987, a
	rorl	$28, -92(%rbp)	#, a
	movl	-88(%rbp), %eax	# b, tmp988
	addl	%eax, -92(%rbp)	# tmp988, a
	.loc 1 337 0 discriminator 1
	movl	-88(%rbp), %eax	# b, tmp989
	movl	-92(%rbp), %edx	# a, tmp990
	xorl	%edx, %eax	# tmp990, D.11872
	xorl	-84(%rbp), %eax	# c, D.11872
	movl	%eax, %edx	# D.11872, D.11872
	movl	-32(%rbp), %eax	# X, D.11872
	addl	%eax, %edx	# D.11872, D.11872
	movl	-80(%rbp), %eax	# d, tmp991
	addl	%edx, %eax	# D.11872, D.11872
	subl	$2022574463, %eax	#, tmp992
	movl	%eax, -80(%rbp)	# tmp992, d
	rorl	$21, -80(%rbp)	#, d
	movl	-92(%rbp), %eax	# a, tmp993
	addl	%eax, -80(%rbp)	# tmp993, d
	.loc 1 338 0 discriminator 1
	movl	-92(%rbp), %eax	# a, tmp994
	movl	-80(%rbp), %edx	# d, tmp995
	xorl	%edx, %eax	# tmp995, D.11872
	xorl	-88(%rbp), %eax	# b, D.11872
	movl	%eax, %edx	# D.11872, D.11872
	movl	-20(%rbp), %eax	# X, D.11872
	addl	%eax, %edx	# D.11872, D.11872
	movl	-84(%rbp), %eax	# c, tmp996
	addl	%edx, %eax	# D.11872, D.11872
	addl	$1839030562, %eax	#, tmp997
	movl	%eax, -84(%rbp)	# tmp997, c
	rorl	$16, -84(%rbp)	#, c
	movl	-80(%rbp), %eax	# d, tmp998
	addl	%eax, -84(%rbp)	# tmp998, c
	.loc 1 339 0 discriminator 1
	movl	-80(%rbp), %eax	# d, tmp999
	movl	-84(%rbp), %edx	# c, tmp1000
	xorl	%edx, %eax	# tmp1000, D.11872
	xorl	-92(%rbp), %eax	# a, D.11872
	movl	%eax, %edx	# D.11872, D.11872
	movl	-8(%rbp), %eax	# X, D.11872
	addl	%eax, %edx	# D.11872, D.11872
	movl	-88(%rbp), %eax	# b, tmp1001
	addl	%edx, %eax	# D.11872, D.11872
	subl	$35309556, %eax	#, tmp1002
	movl	%eax, -88(%rbp)	# tmp1002, b
	rorl	$9, -88(%rbp)	#, b
	movl	-84(%rbp), %eax	# c, tmp1003
	addl	%eax, -88(%rbp)	# tmp1003, b
	.loc 1 340 0 discriminator 1
	movl	-84(%rbp), %eax	# c, tmp1004
	movl	-88(%rbp), %edx	# b, tmp1005
	xorl	%edx, %eax	# tmp1005, D.11872
	xorl	-80(%rbp), %eax	# d, D.11872
	movl	%eax, %edx	# D.11872, D.11872
	movl	-60(%rbp), %eax	# X, D.11872
	addl	%eax, %edx	# D.11872, D.11872
	movl	-92(%rbp), %eax	# a, tmp1006
	addl	%edx, %eax	# D.11872, D.11872
	subl	$1530992060, %eax	#, tmp1007
	movl	%eax, -92(%rbp)	# tmp1007, a
	rorl	$28, -92(%rbp)	#, a
	movl	-88(%rbp), %eax	# b, tmp1008
	addl	%eax, -92(%rbp)	# tmp1008, a
	.loc 1 341 0 discriminator 1
	movl	-88(%rbp), %eax	# b, tmp1009
	movl	-92(%rbp), %edx	# a, tmp1010
	xorl	%edx, %eax	# tmp1010, D.11872
	xorl	-84(%rbp), %eax	# c, D.11872
	movl	%eax, %edx	# D.11872, D.11872
	movl	-48(%rbp), %eax	# X, D.11872
	addl	%eax, %edx	# D.11872, D.11872
	movl	-80(%rbp), %eax	# d, tmp1011
	addl	%edx, %eax	# D.11872, D.11872
	addl	$1272893353, %eax	#, tmp1012
	movl	%eax, -80(%rbp)	# tmp1012, d
	rorl	$21, -80(%rbp)	#, d
	movl	-92(%rbp), %eax	# a, tmp1013
	addl	%eax, -80(%rbp)	# tmp1013, d
	.loc 1 342 0 discriminator 1
	movl	-92(%rbp), %eax	# a, tmp1014
	movl	-80(%rbp), %edx	# d, tmp1015
	xorl	%edx, %eax	# tmp1015, D.11872
	xorl	-88(%rbp), %eax	# b, D.11872
	movl	%eax, %edx	# D.11872, D.11872
	movl	-36(%rbp), %eax	# X, D.11872
	addl	%eax, %edx	# D.11872, D.11872
	movl	-84(%rbp), %eax	# c, tmp1016
	addl	%edx, %eax	# D.11872, D.11872
	subl	$155497632, %eax	#, tmp1017
	movl	%eax, -84(%rbp)	# tmp1017, c
	rorl	$16, -84(%rbp)	#, c
	movl	-80(%rbp), %eax	# d, tmp1018
	addl	%eax, -84(%rbp)	# tmp1018, c
	.loc 1 343 0 discriminator 1
	movl	-80(%rbp), %eax	# d, tmp1019
	movl	-84(%rbp), %edx	# c, tmp1020
	xorl	%edx, %eax	# tmp1020, D.11872
	xorl	-92(%rbp), %eax	# a, D.11872
	movl	%eax, %edx	# D.11872, D.11872
	movl	-24(%rbp), %eax	# X, D.11872
	addl	%eax, %edx	# D.11872, D.11872
	movl	-88(%rbp), %eax	# b, tmp1021
	addl	%edx, %eax	# D.11872, D.11872
	subl	$1094730640, %eax	#, tmp1022
	movl	%eax, -88(%rbp)	# tmp1022, b
	rorl	$9, -88(%rbp)	#, b
	movl	-84(%rbp), %eax	# c, tmp1023
	addl	%eax, -88(%rbp)	# tmp1023, b
	.loc 1 344 0 discriminator 1
	movl	-84(%rbp), %eax	# c, tmp1024
	movl	-88(%rbp), %edx	# b, tmp1025
	xorl	%edx, %eax	# tmp1025, D.11872
	xorl	-80(%rbp), %eax	# d, D.11872
	movl	%eax, %edx	# D.11872, D.11872
	movl	-12(%rbp), %eax	# X, D.11872
	addl	%eax, %edx	# D.11872, D.11872
	movl	-92(%rbp), %eax	# a, tmp1026
	addl	%edx, %eax	# D.11872, D.11872
	addl	$681279174, %eax	#, tmp1027
	movl	%eax, -92(%rbp)	# tmp1027, a
	rorl	$28, -92(%rbp)	#, a
	movl	-88(%rbp), %eax	# b, tmp1028
	addl	%eax, -92(%rbp)	# tmp1028, a
	.loc 1 345 0 discriminator 1
	movl	-88(%rbp), %eax	# b, tmp1029
	movl	-92(%rbp), %edx	# a, tmp1030
	xorl	%edx, %eax	# tmp1030, D.11872
	xorl	-84(%rbp), %eax	# c, D.11872
	movl	%eax, %edx	# D.11872, D.11872
	movl	-64(%rbp), %eax	# X, D.11872
	addl	%eax, %edx	# D.11872, D.11872
	movl	-80(%rbp), %eax	# d, tmp1031
	addl	%edx, %eax	# D.11872, D.11872
	subl	$358537222, %eax	#, tmp1032
	movl	%eax, -80(%rbp)	# tmp1032, d
	rorl	$21, -80(%rbp)	#, d
	movl	-92(%rbp), %eax	# a, tmp1033
	addl	%eax, -80(%rbp)	# tmp1033, d
	.loc 1 346 0 discriminator 1
	movl	-92(%rbp), %eax	# a, tmp1034
	movl	-80(%rbp), %edx	# d, tmp1035
	xorl	%edx, %eax	# tmp1035, D.11872
	xorl	-88(%rbp), %eax	# b, D.11872
	movl	%eax, %edx	# D.11872, D.11872
	movl	-52(%rbp), %eax	# X, D.11872
	addl	%eax, %edx	# D.11872, D.11872
	movl	-84(%rbp), %eax	# c, tmp1036
	addl	%edx, %eax	# D.11872, D.11872
	subl	$722521979, %eax	#, tmp1037
	movl	%eax, -84(%rbp)	# tmp1037, c
	rorl	$16, -84(%rbp)	#, c
	movl	-80(%rbp), %eax	# d, tmp1038
	addl	%eax, -84(%rbp)	# tmp1038, c
	.loc 1 347 0 discriminator 1
	movl	-80(%rbp), %eax	# d, tmp1039
	movl	-84(%rbp), %edx	# c, tmp1040
	xorl	%edx, %eax	# tmp1040, D.11872
	xorl	-92(%rbp), %eax	# a, D.11872
	movl	%eax, %edx	# D.11872, D.11872
	movl	-40(%rbp), %eax	# X, D.11872
	addl	%eax, %edx	# D.11872, D.11872
	movl	-88(%rbp), %eax	# b, tmp1041
	addl	%edx, %eax	# D.11872, D.11872
	addl	$76029189, %eax	#, tmp1042
	movl	%eax, -88(%rbp)	# tmp1042, b
	rorl	$9, -88(%rbp)	#, b
	movl	-84(%rbp), %eax	# c, tmp1043
	addl	%eax, -88(%rbp)	# tmp1043, b
	.loc 1 348 0 discriminator 1
	movl	-84(%rbp), %eax	# c, tmp1044
	movl	-88(%rbp), %edx	# b, tmp1045
	xorl	%edx, %eax	# tmp1045, D.11872
	xorl	-80(%rbp), %eax	# d, D.11872
	movl	%eax, %edx	# D.11872, D.11872
	movl	-28(%rbp), %eax	# X, D.11872
	addl	%eax, %edx	# D.11872, D.11872
	movl	-92(%rbp), %eax	# a, tmp1046
	addl	%edx, %eax	# D.11872, D.11872
	subl	$640364487, %eax	#, tmp1047
	movl	%eax, -92(%rbp)	# tmp1047, a
	rorl	$28, -92(%rbp)	#, a
	movl	-88(%rbp), %eax	# b, tmp1048
	addl	%eax, -92(%rbp)	# tmp1048, a
	.loc 1 349 0 discriminator 1
	movl	-88(%rbp), %eax	# b, tmp1049
	movl	-92(%rbp), %edx	# a, tmp1050
	xorl	%edx, %eax	# tmp1050, D.11872
	xorl	-84(%rbp), %eax	# c, D.11872
	movl	%eax, %edx	# D.11872, D.11872
	movl	-16(%rbp), %eax	# X, D.11872
	addl	%eax, %edx	# D.11872, D.11872
	movl	-80(%rbp), %eax	# d, tmp1051
	addl	%edx, %eax	# D.11872, D.11872
	subl	$421815835, %eax	#, tmp1052
	movl	%eax, -80(%rbp)	# tmp1052, d
	rorl	$21, -80(%rbp)	#, d
	movl	-92(%rbp), %eax	# a, tmp1053
	addl	%eax, -80(%rbp)	# tmp1053, d
	.loc 1 350 0 discriminator 1
	movl	-92(%rbp), %eax	# a, tmp1054
	movl	-80(%rbp), %edx	# d, tmp1055
	xorl	%edx, %eax	# tmp1055, D.11872
	xorl	-88(%rbp), %eax	# b, D.11872
	movl	%eax, %edx	# D.11872, D.11872
	movl	-4(%rbp), %eax	# X, D.11872
	addl	%eax, %edx	# D.11872, D.11872
	movl	-84(%rbp), %eax	# c, tmp1056
	addl	%edx, %eax	# D.11872, D.11872
	addl	$530742520, %eax	#, tmp1057
	movl	%eax, -84(%rbp)	# tmp1057, c
	rorl	$16, -84(%rbp)	#, c
	movl	-80(%rbp), %eax	# d, tmp1058
	addl	%eax, -84(%rbp)	# tmp1058, c
	.loc 1 351 0 discriminator 1
	movl	-80(%rbp), %eax	# d, tmp1059
	movl	-84(%rbp), %edx	# c, tmp1060
	xorl	%edx, %eax	# tmp1060, D.11872
	xorl	-92(%rbp), %eax	# a, D.11872
	movl	%eax, %edx	# D.11872, D.11872
	movl	-56(%rbp), %eax	# X, D.11872
	addl	%eax, %edx	# D.11872, D.11872
	movl	-88(%rbp), %eax	# b, tmp1061
	addl	%edx, %eax	# D.11872, D.11872
	subl	$995338651, %eax	#, tmp1062
	movl	%eax, -88(%rbp)	# tmp1062, b
	rorl	$9, -88(%rbp)	#, b
	movl	-84(%rbp), %eax	# c, tmp1063
	addl	%eax, -88(%rbp)	# tmp1063, b
	.loc 1 354 0 discriminator 1
	movl	-80(%rbp), %eax	# d, tmp1064
	notl	%eax	# D.11872
	orl	-88(%rbp), %eax	# b, D.11872
	xorl	-84(%rbp), %eax	# c, D.11872
	movl	%eax, %edx	# D.11872, D.11872
	movl	-64(%rbp), %eax	# X, D.11872
	addl	%eax, %edx	# D.11872, D.11872
	movl	-92(%rbp), %eax	# a, tmp1065
	addl	%edx, %eax	# D.11872, D.11872
	subl	$198630844, %eax	#, tmp1066
	movl	%eax, -92(%rbp)	# tmp1066, a
	rorl	$26, -92(%rbp)	#, a
	movl	-88(%rbp), %eax	# b, tmp1067
	addl	%eax, -92(%rbp)	# tmp1067, a
	.loc 1 355 0 discriminator 1
	movl	-84(%rbp), %eax	# c, tmp1068
	notl	%eax	# D.11872
	orl	-92(%rbp), %eax	# a, D.11872
	xorl	-88(%rbp), %eax	# b, D.11872
	movl	%eax, %edx	# D.11872, D.11872
	movl	-36(%rbp), %eax	# X, D.11872
	addl	%eax, %edx	# D.11872, D.11872
	movl	-80(%rbp), %eax	# d, tmp1069
	addl	%edx, %eax	# D.11872, D.11872
	addl	$1126891415, %eax	#, tmp1070
	movl	%eax, -80(%rbp)	# tmp1070, d
	rorl	$22, -80(%rbp)	#, d
	movl	-92(%rbp), %eax	# a, tmp1071
	addl	%eax, -80(%rbp)	# tmp1071, d
	.loc 1 356 0 discriminator 1
	movl	-88(%rbp), %eax	# b, tmp1072
	notl	%eax	# D.11872
	orl	-80(%rbp), %eax	# d, D.11872
	xorl	-92(%rbp), %eax	# a, D.11872
	movl	%eax, %edx	# D.11872, D.11872
	movl	-8(%rbp), %eax	# X, D.11872
	addl	%eax, %edx	# D.11872, D.11872
	movl	-84(%rbp), %eax	# c, tmp1073
	addl	%edx, %eax	# D.11872, D.11872
	subl	$1416354905, %eax	#, tmp1074
	movl	%eax, -84(%rbp)	# tmp1074, c
	rorl	$17, -84(%rbp)	#, c
	movl	-80(%rbp), %eax	# d, tmp1075
	addl	%eax, -84(%rbp)	# tmp1075, c
	.loc 1 357 0 discriminator 1
	movl	-92(%rbp), %eax	# a, tmp1076
	notl	%eax	# D.11872
	orl	-84(%rbp), %eax	# c, D.11872
	xorl	-80(%rbp), %eax	# d, D.11872
	movl	%eax, %edx	# D.11872, D.11872
	movl	-44(%rbp), %eax	# X, D.11872
	addl	%eax, %edx	# D.11872, D.11872
	movl	-88(%rbp), %eax	# b, tmp1077
	addl	%edx, %eax	# D.11872, D.11872
	subl	$57434055, %eax	#, tmp1078
	movl	%eax, -88(%rbp)	# tmp1078, b
	rorl	$11, -88(%rbp)	#, b
	movl	-84(%rbp), %eax	# c, tmp1079
	addl	%eax, -88(%rbp)	# tmp1079, b
	.loc 1 358 0 discriminator 1
	movl	-80(%rbp), %eax	# d, tmp1080
	notl	%eax	# D.11872
	orl	-88(%rbp), %eax	# b, D.11872
	xorl	-84(%rbp), %eax	# c, D.11872
	movl	%eax, %edx	# D.11872, D.11872
	movl	-16(%rbp), %eax	# X, D.11872
	addl	%eax, %edx	# D.11872, D.11872
	movl	-92(%rbp), %eax	# a, tmp1081
	addl	%edx, %eax	# D.11872, D.11872
	addl	$1700485571, %eax	#, tmp1082
	movl	%eax, -92(%rbp)	# tmp1082, a
	rorl	$26, -92(%rbp)	#, a
	movl	-88(%rbp), %eax	# b, tmp1083
	addl	%eax, -92(%rbp)	# tmp1083, a
	.loc 1 359 0 discriminator 1
	movl	-84(%rbp), %eax	# c, tmp1084
	notl	%eax	# D.11872
	orl	-92(%rbp), %eax	# a, D.11872
	xorl	-88(%rbp), %eax	# b, D.11872
	movl	%eax, %edx	# D.11872, D.11872
	movl	-52(%rbp), %eax	# X, D.11872
	addl	%eax, %edx	# D.11872, D.11872
	movl	-80(%rbp), %eax	# d, tmp1085
	addl	%edx, %eax	# D.11872, D.11872
	subl	$1894986606, %eax	#, tmp1086
	movl	%eax, -80(%rbp)	# tmp1086, d
	rorl	$22, -80(%rbp)	#, d
	movl	-92(%rbp), %eax	# a, tmp1087
	addl	%eax, -80(%rbp)	# tmp1087, d
	.loc 1 360 0 discriminator 1
	movl	-88(%rbp), %eax	# b, tmp1088
	notl	%eax	# D.11872
	orl	-80(%rbp), %eax	# d, D.11872
	xorl	-92(%rbp), %eax	# a, D.11872
	movl	%eax, %edx	# D.11872, D.11872
	movl	-24(%rbp), %eax	# X, D.11872
	addl	%eax, %edx	# D.11872, D.11872
	movl	-84(%rbp), %eax	# c, tmp1089
	addl	%edx, %eax	# D.11872, D.11872
	subl	$1051523, %eax	#, tmp1090
	movl	%eax, -84(%rbp)	# tmp1090, c
	rorl	$17, -84(%rbp)	#, c
	movl	-80(%rbp), %eax	# d, tmp1091
	addl	%eax, -84(%rbp)	# tmp1091, c
	.loc 1 361 0 discriminator 1
	movl	-92(%rbp), %eax	# a, tmp1092
	notl	%eax	# D.11872
	orl	-84(%rbp), %eax	# c, D.11872
	xorl	-80(%rbp), %eax	# d, D.11872
	movl	%eax, %edx	# D.11872, D.11872
	movl	-60(%rbp), %eax	# X, D.11872
	addl	%eax, %edx	# D.11872, D.11872
	movl	-88(%rbp), %eax	# b, tmp1093
	addl	%edx, %eax	# D.11872, D.11872
	subl	$2054922799, %eax	#, tmp1094
	movl	%eax, -88(%rbp)	# tmp1094, b
	rorl	$11, -88(%rbp)	#, b
	movl	-84(%rbp), %eax	# c, tmp1095
	addl	%eax, -88(%rbp)	# tmp1095, b
	.loc 1 362 0 discriminator 1
	movl	-80(%rbp), %eax	# d, tmp1096
	notl	%eax	# D.11872
	orl	-88(%rbp), %eax	# b, D.11872
	xorl	-84(%rbp), %eax	# c, D.11872
	movl	%eax, %edx	# D.11872, D.11872
	movl	-32(%rbp), %eax	# X, D.11872
	addl	%eax, %edx	# D.11872, D.11872
	movl	-92(%rbp), %eax	# a, tmp1097
	addl	%edx, %eax	# D.11872, D.11872
	addl	$1873313359, %eax	#, tmp1098
	movl	%eax, -92(%rbp)	# tmp1098, a
	rorl	$26, -92(%rbp)	#, a
	movl	-88(%rbp), %eax	# b, tmp1099
	addl	%eax, -92(%rbp)	# tmp1099, a
	.loc 1 363 0 discriminator 1
	movl	-84(%rbp), %eax	# c, tmp1100
	notl	%eax	# D.11872
	orl	-92(%rbp), %eax	# a, D.11872
	xorl	-88(%rbp), %eax	# b, D.11872
	movl	%eax, %edx	# D.11872, D.11872
	movl	-4(%rbp), %eax	# X, D.11872
	addl	%eax, %edx	# D.11872, D.11872
	movl	-80(%rbp), %eax	# d, tmp1101
	addl	%edx, %eax	# D.11872, D.11872
	subl	$30611744, %eax	#, tmp1102
	movl	%eax, -80(%rbp)	# tmp1102, d
	rorl	$22, -80(%rbp)	#, d
	movl	-92(%rbp), %eax	# a, tmp1103
	addl	%eax, -80(%rbp)	# tmp1103, d
	.loc 1 364 0 discriminator 1
	movl	-88(%rbp), %eax	# b, tmp1104
	notl	%eax	# D.11872
	orl	-80(%rbp), %eax	# d, D.11872
	xorl	-92(%rbp), %eax	# a, D.11872
	movl	%eax, %edx	# D.11872, D.11872
	movl	-40(%rbp), %eax	# X, D.11872
	addl	%eax, %edx	# D.11872, D.11872
	movl	-84(%rbp), %eax	# c, tmp1105
	addl	%edx, %eax	# D.11872, D.11872
	subl	$1560198380, %eax	#, tmp1106
	movl	%eax, -84(%rbp)	# tmp1106, c
	rorl	$17, -84(%rbp)	#, c
	movl	-80(%rbp), %eax	# d, tmp1107
	addl	%eax, -84(%rbp)	# tmp1107, c
	.loc 1 365 0 discriminator 1
	movl	-92(%rbp), %eax	# a, tmp1108
	notl	%eax	# D.11872
	orl	-84(%rbp), %eax	# c, D.11872
	xorl	-80(%rbp), %eax	# d, D.11872
	movl	%eax, %edx	# D.11872, D.11872
	movl	-12(%rbp), %eax	# X, D.11872
	addl	%eax, %edx	# D.11872, D.11872
	movl	-88(%rbp), %eax	# b, tmp1109
	addl	%edx, %eax	# D.11872, D.11872
	addl	$1309151649, %eax	#, tmp1110
	movl	%eax, -88(%rbp)	# tmp1110, b
	rorl	$11, -88(%rbp)	#, b
	movl	-84(%rbp), %eax	# c, tmp1111
	addl	%eax, -88(%rbp)	# tmp1111, b
	.loc 1 366 0 discriminator 1
	movl	-80(%rbp), %eax	# d, tmp1112
	notl	%eax	# D.11872
	orl	-88(%rbp), %eax	# b, D.11872
	xorl	-84(%rbp), %eax	# c, D.11872
	movl	%eax, %edx	# D.11872, D.11872
	movl	-48(%rbp), %eax	# X, D.11872
	addl	%eax, %edx	# D.11872, D.11872
	movl	-92(%rbp), %eax	# a, tmp1113
	addl	%edx, %eax	# D.11872, D.11872
	subl	$145523070, %eax	#, tmp1114
	movl	%eax, -92(%rbp)	# tmp1114, a
	rorl	$26, -92(%rbp)	#, a
	movl	-88(%rbp), %eax	# b, tmp1115
	addl	%eax, -92(%rbp)	# tmp1115, a
	.loc 1 367 0 discriminator 1
	movl	-84(%rbp), %eax	# c, tmp1116
	notl	%eax	# D.11872
	orl	-92(%rbp), %eax	# a, D.11872
	xorl	-88(%rbp), %eax	# b, D.11872
	movl	%eax, %edx	# D.11872, D.11872
	movl	-20(%rbp), %eax	# X, D.11872
	addl	%eax, %edx	# D.11872, D.11872
	movl	-80(%rbp), %eax	# d, tmp1117
	addl	%edx, %eax	# D.11872, D.11872
	subl	$1120210379, %eax	#, tmp1118
	movl	%eax, -80(%rbp)	# tmp1118, d
	rorl	$22, -80(%rbp)	#, d
	movl	-92(%rbp), %eax	# a, tmp1119
	addl	%eax, -80(%rbp)	# tmp1119, d
	.loc 1 368 0 discriminator 1
	movl	-88(%rbp), %eax	# b, tmp1120
	notl	%eax	# D.11872
	orl	-80(%rbp), %eax	# d, D.11872
	xorl	-92(%rbp), %eax	# a, D.11872
	movl	%eax, %edx	# D.11872, D.11872
	movl	-56(%rbp), %eax	# X, D.11872
	addl	%eax, %edx	# D.11872, D.11872
	movl	-84(%rbp), %eax	# c, tmp1121
	addl	%edx, %eax	# D.11872, D.11872
	addl	$718787259, %eax	#, tmp1122
	movl	%eax, -84(%rbp)	# tmp1122, c
	rorl	$17, -84(%rbp)	#, c
	movl	-80(%rbp), %eax	# d, tmp1123
	addl	%eax, -84(%rbp)	# tmp1123, c
	.loc 1 369 0 discriminator 1
	movl	-92(%rbp), %eax	# a, tmp1124
	notl	%eax	# D.11872
	orl	-84(%rbp), %eax	# c, D.11872
	xorl	-80(%rbp), %eax	# d, D.11872
	movl	%eax, %edx	# D.11872, D.11872
	movl	-28(%rbp), %eax	# X, D.11872
	addl	%eax, %edx	# D.11872, D.11872
	movl	-88(%rbp), %eax	# b, tmp1125
	addl	%edx, %eax	# D.11872, D.11872
	subl	$343485551, %eax	#, tmp1126
	movl	%eax, -88(%rbp)	# tmp1126, b
	rorl	$11, -88(%rbp)	#, b
	movl	-84(%rbp), %eax	# c, tmp1127
	addl	%eax, -88(%rbp)	# tmp1127, b
	.loc 1 371 0 discriminator 1
	movl	-92(%rbp), %eax	# a, tmp1128
	addl	%eax, -108(%rbp)	# tmp1128, A
	.loc 1 372 0 discriminator 1
	movl	-88(%rbp), %eax	# b, tmp1129
	addl	%eax, -104(%rbp)	# tmp1129, B
	.loc 1 373 0 discriminator 1
	movl	-84(%rbp), %eax	# c, tmp1130
	addl	%eax, -100(%rbp)	# tmp1130, C
	.loc 1 374 0 discriminator 1
	movl	-80(%rbp), %eax	# d, tmp1131
	addl	%eax, -96(%rbp)	# tmp1131, D
.LBE2:
	.loc 1 376 0 discriminator 1
	subq	$1, -136(%rbp)	#, blocks
	cmpq	$0, -136(%rbp)	#, blocks
	jne	.L4	#,
	.loc 1 377 0
	movq	-120(%rbp), %rax	# ctx, tmp1132
	movl	-108(%rbp), %edx	# A, tmp1133
	movl	%edx, 4(%rax)	# tmp1133, ctx_7(D)->A
	.loc 1 378 0
	movq	-120(%rbp), %rax	# ctx, tmp1134
	movl	-104(%rbp), %edx	# B, tmp1135
	movl	%edx, 8(%rax)	# tmp1135, ctx_7(D)->B
	.loc 1 379 0
	movq	-120(%rbp), %rax	# ctx, tmp1136
	movl	-100(%rbp), %edx	# C, tmp1137
	movl	%edx, 12(%rax)	# tmp1137, ctx_7(D)->C
	.loc 1 380 0
	movq	-120(%rbp), %rax	# ctx, tmp1138
	movl	-96(%rbp), %edx	# D, tmp1139
	movl	%edx, 16(%rax)	# tmp1139, ctx_7(D)->D
	.loc 1 381 0
	leave
	.cfi_def_cfa 7, 8
	ret
	.cfi_endproc
.LFE4:
	.size	MD5Transform, .-MD5Transform
	.type	MD5Update, @function
MD5Update:
.LFB5:
	.loc 1 399 0
	.cfi_startproc
	pushq	%rbp	#
	.cfi_def_cfa_offset 16
	.cfi_offset 6, -16
	movq	%rsp, %rbp	#,
	.cfi_def_cfa_register 6
	subq	$64, %rsp	#,
	movq	%rdi, -40(%rbp)	# ctx, ctx
	movq	%rsi, -48(%rbp)	# buf, buf
	movq	%rdx, -56(%rbp)	# len, len
	.loc 1 401 0
	movq	-40(%rbp), %rax	# ctx, tmp74
	movl	20(%rax), %eax	# ctx_3(D)->bytes_low, D.11874
	movl	%eax, %eax	# D.11874, D.11875
	andl	$63, %eax	#, tmp75
	movq	%rax, -24(%rbp)	# tmp75, fill
	.loc 1 409 0
	movq	-40(%rbp), %rax	# ctx, tmp76
	movl	20(%rax), %edx	# ctx_3(D)->bytes_low, D.11874
	movq	-56(%rbp), %rax	# len, tmp77
	addl	%eax, %edx	# D.11874, D.11874
	movq	-40(%rbp), %rax	# ctx, tmp78
	movl	%edx, 20(%rax)	# D.11874, ctx_3(D)->bytes_low
	.loc 1 410 0
	movq	-40(%rbp), %rax	# ctx, tmp79
	movl	20(%rax), %eax	# ctx_3(D)->bytes_low, D.11874
	movl	%eax, %eax	# D.11874, D.11875
	cmpq	-56(%rbp), %rax	# len, D.11875
	jae	.L6	#,
	.loc 1 411 0
	movq	-40(%rbp), %rax	# ctx, tmp80
	movl	24(%rax), %eax	# ctx_3(D)->bytes_high, D.11874
	leal	1(%rax), %edx	#, D.11874
	movq	-40(%rbp), %rax	# ctx, tmp81
	movl	%edx, 24(%rax)	# D.11874, ctx_3(D)->bytes_high
.L6:
	.loc 1 413 0
	cmpq	$0, -24(%rbp)	#, fill
	je	.L7	#,
.LBB3:
	.loc 1 414 0
	movl	$64, %eax	#, tmp85
	subq	-24(%rbp), %rax	# fill, tmp84
	movq	%rax, -16(%rbp)	# tmp84, missing
	.loc 1 415 0
	movq	-56(%rbp), %rax	# len, tmp86
	cmpq	-16(%rbp), %rax	# missing, tmp86
	jae	.L8	#,
	.loc 1 416 0
	movq	-24(%rbp), %rax	# fill, tmp88
	leaq	16(%rax), %rdx	#, tmp87
	movq	-40(%rbp), %rax	# ctx, tmp90
	addq	%rdx, %rax	# tmp87, tmp89
	leaq	12(%rax), %rcx	#, D.11876
	movq	-56(%rbp), %rdx	# len, tmp91
	movq	-48(%rbp), %rax	# buf, tmp92
	movq	%rax, %rsi	# tmp92,
	movq	%rcx, %rdi	# D.11876,
	call	memcpy	#
	.loc 1 417 0
	jmp	.L5	#
.L8:
	.loc 1 419 0
	movq	-24(%rbp), %rax	# fill, tmp94
	leaq	16(%rax), %rdx	#, tmp93
	movq	-40(%rbp), %rax	# ctx, tmp96
	addq	%rdx, %rax	# tmp93, tmp95
	leaq	12(%rax), %rcx	#, D.11876
	movq	-16(%rbp), %rdx	# missing, tmp97
	movq	-48(%rbp), %rax	# buf, tmp98
	movq	%rax, %rsi	# tmp98,
	movq	%rcx, %rdi	# D.11876,
	call	memcpy	#
	.loc 1 420 0
	movq	-40(%rbp), %rax	# ctx, tmp99
	leaq	28(%rax), %rcx	#, D.11877
	movq	-40(%rbp), %rax	# ctx, tmp100
	movl	$1, %edx	#,
	movq	%rcx, %rsi	# D.11877,
	movq	%rax, %rdi	# tmp100,
	call	MD5Transform	#
	.loc 1 421 0
	movq	-16(%rbp), %rax	# missing, tmp101
	addq	%rax, -48(%rbp)	# tmp101, buf
	.loc 1 422 0
	movq	-16(%rbp), %rax	# missing, tmp102
	subq	%rax, -56(%rbp)	# tmp102, len
.L7:
.LBE3:
	.loc 1 425 0
	movq	-56(%rbp), %rax	# len, tmp106
	shrq	$6, %rax	#, tmp105
	movq	%rax, -8(%rbp)	# tmp105, blocks
	.loc 1 426 0
	cmpq	$0, -8(%rbp)	#, blocks
	je	.L10	#,
	.loc 1 427 0
	movq	-8(%rbp), %rdx	# blocks, tmp107
	movq	-48(%rbp), %rcx	# buf, tmp108
	movq	-40(%rbp), %rax	# ctx, tmp109
	movq	%rcx, %rsi	# tmp108,
	movq	%rax, %rdi	# tmp109,
	call	MD5Transform	#
.L10:
	.loc 1 428 0
	andq	$63, -56(%rbp)	#, len
	cmpq	$0, -56(%rbp)	#, len
	je	.L5	#,
	.loc 1 429 0
	movq	-8(%rbp), %rax	# blocks, tmp110
	salq	$6, %rax	#, D.11875
	movq	%rax, %rdx	# D.11875, D.11875
	movq	-48(%rbp), %rax	# buf, tmp111
	leaq	(%rdx,%rax), %rsi	#, D.11878
	movq	-40(%rbp), %rax	# ctx, tmp112
	leaq	28(%rax), %rcx	#, D.11877
	movq	-56(%rbp), %rax	# len, tmp113
	movq	%rax, %rdx	# tmp113,
	movq	%rcx, %rdi	# D.11877,
	call	memcpy	#
.L5:
	.loc 1 431 0
	leave
	.cfi_def_cfa 7, 8
	ret
	.cfi_endproc
.LFE5:
	.size	MD5Update, .-MD5Update
	.type	MD5Final, @function
MD5Final:
.LFB6:
	.loc 1 436 0
	.cfi_startproc
	pushq	%rbp	#
	.cfi_def_cfa_offset 16
	.cfi_offset 6, -16
	movq	%rsp, %rbp	#,
	.cfi_def_cfa_register 6
	subq	$48, %rsp	#,
	movq	%rdi, -40(%rbp)	# digest, digest
	movq	%rsi, -48(%rbp)	# ctx, ctx
	.loc 1 437 0
	movq	-48(%rbp), %rax	# ctx, tmp79
	movl	20(%rax), %eax	# ctx_2(D)->bytes_low, D.11879
	movl	%eax, %eax	# D.11879, D.11880
	andl	$63, %eax	#, tmp80
	movq	%rax, -16(%rbp)	# tmp80, fill
	.loc 1 438 0
	cmpq	$55, -16(%rbp)	#, fill
	ja	.L12	#,
	.loc 1 438 0 is_stmt 0 discriminator 1
	movl	$56, %eax	#, iftmp.19
	jmp	.L13	#
.L12:
	.loc 1 438 0 discriminator 2
	movl	$120, %eax	#, iftmp.19
.L13:
	.loc 1 438 0 discriminator 3
	subq	-16(%rbp), %rax	# fill, tmp82
	movq	%rax, -8(%rbp)	# tmp82, padlen
	.loc 1 443 0 is_stmt 1 discriminator 3
	movq	-16(%rbp), %rax	# fill, tmp84
	leaq	16(%rax), %rdx	#, tmp83
	movq	-48(%rbp), %rax	# ctx, tmp86
	addq	%rdx, %rax	# tmp83, tmp85
	leaq	12(%rax), %rcx	#, D.11881
	movq	-8(%rbp), %rax	# padlen, tmp87
	movq	%rax, %rdx	# tmp87,
	movl	$PADDING, %esi	#,
	movq	%rcx, %rdi	# D.11881,
	call	memcpy	#
	.loc 1 444 0 discriminator 3
	movq	-8(%rbp), %rax	# padlen, tmp88
	addq	%rax, -16(%rbp)	# tmp88, fill
	.loc 1 446 0 discriminator 3
	movq	-48(%rbp), %rax	# ctx, tmp89
	movl	20(%rax), %eax	# ctx_2(D)->bytes_low, D.11879
	sall	$3, %eax	#, tmp90
	movl	%eax, -24(%rbp)	# tmp90, bits_low
	.loc 1 447 0 discriminator 3
	movq	-48(%rbp), %rax	# ctx, tmp91
	movl	24(%rax), %eax	# ctx_2(D)->bytes_high, D.11879
	leal	0(,%rax,8), %edx	#, D.11879
	movq	-48(%rbp), %rax	# ctx, tmp92
	movl	20(%rax), %eax	# ctx_2(D)->bytes_low, D.11879
	shrl	$29, %eax	#, D.11879
	orl	%edx, %eax	# D.11879, tmp93
	movl	%eax, -20(%rbp)	# tmp93, bits_high
	.loc 1 452 0 discriminator 3
	movq	-16(%rbp), %rax	# fill, tmp95
	leaq	16(%rax), %rdx	#, tmp94
	movq	-48(%rbp), %rax	# ctx, tmp97
	addq	%rdx, %rax	# tmp94, tmp96
	leaq	12(%rax), %rdx	#, D.11881
	movl	-24(%rbp), %eax	# bits_low, tmp98
	movq	%rdx, %rsi	# D.11881,
	movl	%eax, %edi	# tmp98,
	call	u2s	#
	addq	$4, -16(%rbp)	#, fill
	.loc 1 453 0 discriminator 3
	movq	-16(%rbp), %rax	# fill, tmp100
	leaq	16(%rax), %rdx	#, tmp99
	movq	-48(%rbp), %rax	# ctx, tmp102
	addq	%rdx, %rax	# tmp99, tmp101
	leaq	12(%rax), %rdx	#, D.11881
	movl	-20(%rbp), %eax	# bits_high, tmp103
	movq	%rdx, %rsi	# D.11881,
	movl	%eax, %edi	# tmp103,
	call	u2s	#
	addq	$4, -16(%rbp)	#, fill
	.loc 1 456 0 discriminator 3
	movq	-16(%rbp), %rax	# fill, tmp104
	shrq	$6, %rax	#, D.11880
	movq	%rax, %rdx	# D.11880, D.11880
	movq	-48(%rbp), %rax	# ctx, tmp105
	leaq	28(%rax), %rcx	#, D.11882
	movq	-48(%rbp), %rax	# ctx, tmp106
	movq	%rcx, %rsi	# D.11882,
	movq	%rax, %rdi	# tmp106,
	call	MD5Transform	#
	.loc 1 467 0 discriminator 3
	movq	-48(%rbp), %rax	# ctx, tmp107
	movl	4(%rax), %eax	# ctx_2(D)->A, D.11879
	movq	-40(%rbp), %rdx	# digest, tmp108
	movq	%rdx, %rsi	# tmp108,
	movl	%eax, %edi	# D.11879,
	call	u2s	#
	.loc 1 468 0 discriminator 3
	movq	-40(%rbp), %rax	# digest, tmp109
	leaq	4(%rax), %rdx	#, D.11881
	movq	-48(%rbp), %rax	# ctx, tmp110
	movl	8(%rax), %eax	# ctx_2(D)->B, D.11879
	movq	%rdx, %rsi	# D.11881,
	movl	%eax, %edi	# D.11879,
	call	u2s	#
	.loc 1 469 0 discriminator 3
	movq	-40(%rbp), %rax	# digest, tmp111
	leaq	8(%rax), %rdx	#, D.11881
	movq	-48(%rbp), %rax	# ctx, tmp112
	movl	12(%rax), %eax	# ctx_2(D)->C, D.11879
	movq	%rdx, %rsi	# D.11881,
	movl	%eax, %edi	# D.11879,
	call	u2s	#
	.loc 1 470 0 discriminator 3
	movq	-40(%rbp), %rax	# digest, tmp113
	leaq	12(%rax), %rdx	#, D.11881
	movq	-48(%rbp), %rax	# ctx, tmp114
	movl	16(%rax), %eax	# ctx_2(D)->D, D.11879
	movq	%rdx, %rsi	# D.11881,
	movl	%eax, %edi	# D.11879,
	call	u2s	#
	.loc 1 472 0 discriminator 3
	leave
	.cfi_def_cfa 7, 8
	ret
	.cfi_endproc
.LFE6:
	.size	MD5Final, .-MD5Final
	.section	.rodata
	.align 8
.LC0:
	.string	"Not a reference to a Digest::MD5 object"
	.text
	.type	get_md5_ctx, @function
get_md5_ctx:
.LFB7:
	.loc 1 479 0
	.cfi_startproc
	pushq	%rbp	#
	.cfi_def_cfa_offset 16
	.cfi_offset 6, -16
	movq	%rsp, %rbp	#,
	.cfi_def_cfa_register 6
	subq	$32, %rsp	#,
	movq	%rdi, -24(%rbp)	# sv, sv
	.loc 1 480 0
	movq	-24(%rbp), %rax	# sv, tmp71
	movl	12(%rax), %eax	# sv_3(D)->sv_flags, D.11884
	andl	$524288, %eax	#, D.11884
	testl	%eax, %eax	# D.11884
	je	.L15	#,
	.loc 1 481 0
	movq	-24(%rbp), %rax	# sv, tmp72
	movq	(%rax), %rax	# sv_3(D)->sv_any, D.11885
	movq	(%rax), %rax	# MEM[(struct XRV *)_6].xrv_rv, tmp73
	movq	%rax, -24(%rbp)	# tmp73, sv
	.loc 1 482 0
	movq	-24(%rbp), %rax	# sv, tmp74
	movl	12(%rax), %eax	# sv_7->sv_flags, D.11884
	andl	$65536, %eax	#, D.11884
	testl	%eax, %eax	# D.11884
	je	.L15	#,
.LBB4:
	.loc 1 483 0
	movq	-24(%rbp), %rax	# sv, tmp75
	movl	12(%rax), %eax	# sv_7->sv_flags, D.11884
	andl	$65536, %eax	#, D.11884
	testl	%eax, %eax	# D.11884
	je	.L16	#,
	.loc 1 483 0 is_stmt 0 discriminator 1
	movq	-24(%rbp), %rax	# sv, tmp76
	movq	(%rax), %rax	# sv_7->sv_any, D.11885
	movq	24(%rax), %rax	# MEM[(struct XPVIV *)_12].xiv_iv, iftmp.20
	jmp	.L17	#
.L16:
	.loc 1 483 0 discriminator 2
	movq	-24(%rbp), %rax	# sv, tmp77
	movq	%rax, %rdi	# tmp77,
	call	Perl_sv_2iv	#
.L17:
	.loc 1 483 0 discriminator 3
	movq	%rax, -8(%rbp)	# iftmp.20, ctx
	.loc 1 484 0 is_stmt 1 discriminator 3
	cmpq	$0, -8(%rbp)	#, ctx
	je	.L15	#,
	.loc 1 484 0 is_stmt 0 discriminator 1
	movq	-8(%rbp), %rax	# ctx, tmp78
	movl	(%rax), %eax	# ctx_15->signature, D.11884
	cmpl	$200003165, %eax	#, D.11884
	jne	.L15	#,
	.loc 1 485 0 is_stmt 1
	movq	-8(%rbp), %rax	# ctx, D.11883
	jmp	.L18	#
.L15:
.LBE4:
	.loc 1 489 0
	movl	$.LC0, %edi	#,
	movl	$0, %eax	#,
	call	Perl_croak	#
	.loc 1 490 0
	movl	$0, %eax	#, D.11883
.L18:
	.loc 1 491 0
	leave
	.cfi_def_cfa 7, 8
	ret
	.cfi_endproc
.LFE7:
	.size	get_md5_ctx, .-get_md5_ctx
	.type	hex_16, @function
hex_16:
.LFB8:
	.loc 1 495 0
	.cfi_startproc
	pushq	%rbp	#
	.cfi_def_cfa_offset 16
	.cfi_offset 6, -16
	movq	%rsp, %rbp	#,
	.cfi_def_cfa_register 6
	movq	%rdi, -24(%rbp)	# from, from
	movq	%rsi, -32(%rbp)	# to, to
	.loc 1 497 0
	movq	-24(%rbp), %rax	# from, tmp78
	addq	$16, %rax	#, tmp77
	movq	%rax, -8(%rbp)	# tmp77, end
	.loc 1 498 0
	movq	-32(%rbp), %rax	# to, tmp79
	movq	%rax, -16(%rbp)	# tmp79, d
	.loc 1 500 0
	jmp	.L20	#
.L21:
	.loc 1 501 0
	movq	-16(%rbp), %rax	# d, d.21
	leaq	1(%rax), %rdx	#, tmp80
	movq	%rdx, -16(%rbp)	# tmp80, d
	movq	hexdigits.10351(%rip), %rcx	# hexdigits, hexdigits.22
	movq	-24(%rbp), %rdx	# from, tmp81
	movzbl	(%rdx), %edx	# *from_1, D.11887
	shrb	$4, %dl	#, D.11887
	movzbl	%dl, %edx	# D.11887, D.11888
	addq	%rcx, %rdx	# hexdigits.22, D.11889
	movzbl	(%rdx), %edx	# *_13, D.11890
	movb	%dl, (%rax)	# D.11890, *d.21_7
	.loc 1 502 0
	movq	-16(%rbp), %rax	# d, d.23
	leaq	1(%rax), %rdx	#, tmp82
	movq	%rdx, -16(%rbp)	# tmp82, d
	movq	hexdigits.10351(%rip), %rcx	# hexdigits, hexdigits.24
	movq	-24(%rbp), %rdx	# from, tmp83
	movzbl	(%rdx), %edx	# *from_1, D.11887
	movzbl	%dl, %edx	# D.11887, D.11888
	andl	$15, %edx	#, D.11888
	addq	%rcx, %rdx	# hexdigits.24, D.11889
	movzbl	(%rdx), %edx	# *_21, D.11890
	movb	%dl, (%rax)	# D.11890, *d.23_15
	.loc 1 503 0
	addq	$1, -24(%rbp)	#, from
.L20:
	.loc 1 500 0 discriminator 1
	movq	-24(%rbp), %rax	# from, tmp84
	cmpq	-8(%rbp), %rax	# end, tmp84
	jb	.L21	#,
	.loc 1 505 0
	movq	-16(%rbp), %rax	# d, tmp85
	movb	$0, (%rax)	#, *d_2
	.loc 1 506 0
	movq	-32(%rbp), %rax	# to, D.11889
	.loc 1 507 0
	popq	%rbp	#
	.cfi_def_cfa 7, 8
	ret
	.cfi_endproc
.LFE8:
	.size	hex_16, .-hex_16
	.type	base64_16, @function
base64_16:
.LFB9:
	.loc 1 510 0
	.cfi_startproc
	pushq	%rbp	#
	.cfi_def_cfa_offset 16
	.cfi_offset 6, -16
	movq	%rsp, %rbp	#,
	.cfi_def_cfa_register 6
	movq	%rdi, -40(%rbp)	# from, from
	movq	%rsi, -48(%rbp)	# to, to
	.loc 1 513 0
	movq	-40(%rbp), %rax	# from, tmp109
	addq	$16, %rax	#, tmp108
	movq	%rax, -8(%rbp)	# tmp108, end
	.loc 1 515 0
	movq	-48(%rbp), %rax	# to, tmp110
	movq	%rax, -16(%rbp)	# tmp110, d
.L26:
	.loc 1 518 0
	movq	-40(%rbp), %rax	# from, from.25
	leaq	1(%rax), %rdx	#, tmp111
	movq	%rdx, -40(%rbp)	# tmp111, from
	movzbl	(%rax), %eax	# *from.25_7, tmp112
	movb	%al, -19(%rbp)	# tmp112, c1
	.loc 1 519 0
	movq	-16(%rbp), %rax	# d, d.26
	leaq	1(%rax), %rdx	#, tmp113
	movq	%rdx, -16(%rbp)	# tmp113, d
	movq	base64.10361(%rip), %rcx	# base64, base64.27
	movzbl	-19(%rbp), %edx	# c1, tmp114
	shrb	$2, %dl	#, D.11891
	movzbl	%dl, %edx	# D.11891, D.11892
	addq	%rcx, %rdx	# base64.27, D.11893
	movzbl	(%rdx), %edx	# *_15, D.11894
	movb	%dl, (%rax)	# D.11894, *d.26_10
	.loc 1 520 0
	movq	-40(%rbp), %rax	# from, tmp115
	cmpq	-8(%rbp), %rax	# end, tmp115
	jne	.L24	#,
	.loc 1 521 0
	movq	-16(%rbp), %rax	# d, d.28
	leaq	1(%rax), %rdx	#, tmp116
	movq	%rdx, -16(%rbp)	# tmp116, d
	movq	base64.10361(%rip), %rcx	# base64, base64.29
	movzbl	-19(%rbp), %edx	# c1, D.11895
	andl	$3, %edx	#, D.11895
	sall	$4, %edx	#, D.11895
	movslq	%edx, %rdx	# D.11895, D.11892
	addq	%rcx, %rdx	# base64.29, D.11893
	movzbl	(%rdx), %edx	# *_24, D.11894
	movb	%dl, (%rax)	# D.11894, *d.28_17
	.loc 1 522 0
	jmp	.L28	#
.L24:
	.loc 1 524 0
	movq	-40(%rbp), %rax	# from, from.30
	leaq	1(%rax), %rdx	#, tmp117
	movq	%rdx, -40(%rbp)	# tmp117, from
	movzbl	(%rax), %eax	# *from.30_27, tmp118
	movb	%al, -18(%rbp)	# tmp118, c2
	.loc 1 525 0
	movq	-40(%rbp), %rax	# from, from.31
	leaq	1(%rax), %rdx	#, tmp119
	movq	%rdx, -40(%rbp)	# tmp119, from
	movzbl	(%rax), %eax	# *from.31_30, tmp120
	movb	%al, -17(%rbp)	# tmp120, c3
	.loc 1 526 0
	movq	-16(%rbp), %rax	# d, d.32
	leaq	1(%rax), %rdx	#, tmp121
	movq	%rdx, -16(%rbp)	# tmp121, d
	movq	base64.10361(%rip), %rcx	# base64, base64.33
	movzbl	-19(%rbp), %edx	# c1, D.11895
	andl	$3, %edx	#, D.11895
	movl	%edx, %esi	# D.11895, D.11895
	sall	$4, %esi	#, D.11895
	movzbl	-18(%rbp), %edx	# c2, tmp122
	shrb	$4, %dl	#, D.11891
	movzbl	%dl, %edx	# D.11891, D.11895
	orl	%esi, %edx	# D.11895, D.11895
	movslq	%edx, %rdx	# D.11895, D.11892
	addq	%rcx, %rdx	# base64.33, D.11893
	movzbl	(%rdx), %edx	# *_43, D.11894
	movb	%dl, (%rax)	# D.11894, *d.32_33
	.loc 1 527 0
	movq	-16(%rbp), %rax	# d, d.34
	leaq	1(%rax), %rdx	#, tmp123
	movq	%rdx, -16(%rbp)	# tmp123, d
	movq	base64.10361(%rip), %rcx	# base64, base64.35
	movzbl	-18(%rbp), %edx	# c2, D.11895
	andl	$15, %edx	#, D.11895
	leal	0(,%rdx,4), %esi	#, D.11895
	movzbl	-17(%rbp), %edx	# c3, tmp124
	shrb	$6, %dl	#, D.11891
	movzbl	%dl, %edx	# D.11891, D.11895
	orl	%esi, %edx	# D.11895, D.11895
	movslq	%edx, %rdx	# D.11895, D.11892
	addq	%rcx, %rdx	# base64.35, D.11893
	movzbl	(%rdx), %edx	# *_55, D.11894
	movb	%dl, (%rax)	# D.11894, *d.34_45
	.loc 1 528 0
	movq	-16(%rbp), %rax	# d, d.36
	leaq	1(%rax), %rdx	#, tmp125
	movq	%rdx, -16(%rbp)	# tmp125, d
	movq	base64.10361(%rip), %rdx	# base64, base64.37
	movzbl	-17(%rbp), %ecx	# c3, D.11892
	andl	$63, %ecx	#, D.11892
	addq	%rcx, %rdx	# D.11892, D.11893
	movzbl	(%rdx), %edx	# *_62, D.11894
	movb	%dl, (%rax)	# D.11894, *d.36_57
	.loc 1 529 0
	jmp	.L26	#
.L28:
	.loc 1 530 0
	movq	-16(%rbp), %rax	# d, tmp126
	movb	$0, (%rax)	#, *d_18
	.loc 1 531 0
	movq	-48(%rbp), %rax	# to, D.11893
	.loc 1 532 0
	popq	%rbp	#
	.cfi_def_cfa 7, 8
	ret
	.cfi_endproc
.LFE9:
	.size	base64_16, .-base64_16
	.section	.rodata
.LC1:
	.string	"Bad convertion type (%d)"
	.text
	.type	make_mortal_sv, @function
make_mortal_sv:
.LFB10:
	.loc 1 540 0
	.cfi_startproc
	pushq	%rbp	#
	.cfi_def_cfa_offset 16
	.cfi_offset 6, -16
	movq	%rsp, %rbp	#,
	.cfi_def_cfa_register 6
	subq	$80, %rsp	#,
	movq	%rdi, -72(%rbp)	# src, src
	movl	%esi, -76(%rbp)	# type, type
	.loc 1 540 0
	movq	%fs:40, %rax	#, tmp74
	movq	%rax, -8(%rbp)	# tmp74, D.11897
	xorl	%eax, %eax	# tmp74
	.loc 1 545 0
	movl	-76(%rbp), %eax	# type, type
	cmpl	$1, %eax	#, type
	je	.L31	#,
	cmpl	$2, %eax	#, type
	je	.L32	#,
	testl	%eax, %eax	# type
	jne	.L37	#,
	.loc 1 547 0
	movq	-72(%rbp), %rax	# src, tmp63
	movq	%rax, -56(%rbp)	# tmp63, ret
	.loc 1 548 0
	movq	$16, -64(%rbp)	#, len
	.loc 1 549 0
	jmp	.L34	#
.L31:
	.loc 1 551 0
	leaq	-48(%rbp), %rdx	#, tmp64
	movq	-72(%rbp), %rax	# src, tmp65
	movq	%rdx, %rsi	# tmp64,
	movq	%rax, %rdi	# tmp65,
	call	hex_16	#
	movq	%rax, -56(%rbp)	# tmp66, ret
	.loc 1 552 0
	movq	$32, -64(%rbp)	#, len
	.loc 1 553 0
	jmp	.L34	#
.L32:
	.loc 1 555 0
	leaq	-48(%rbp), %rdx	#, tmp67
	movq	-72(%rbp), %rax	# src, tmp68
	movq	%rdx, %rsi	# tmp67,
	movq	%rax, %rdi	# tmp68,
	call	base64_16	#
	movq	%rax, -56(%rbp)	# tmp69, ret
	.loc 1 556 0
	movq	$22, -64(%rbp)	#, len
	.loc 1 557 0
	jmp	.L34	#
.L37:
	.loc 1 559 0
	movl	-76(%rbp), %eax	# type, tmp70
	movl	%eax, %esi	# tmp70,
	movl	$.LC1, %edi	#,
	movl	$0, %eax	#,
	call	Perl_croak	#
	.loc 1 560 0
	nop
.L34:
	.loc 1 562 0
	movq	-64(%rbp), %rdx	# len, tmp71
	movq	-56(%rbp), %rax	# ret, tmp72
	movq	%rdx, %rsi	# tmp71,
	movq	%rax, %rdi	# tmp72,
	call	Perl_newSVpv	#
	movq	%rax, %rdi	# D.11896,
	call	Perl_sv_2mortal	#
	.loc 1 563 0
	movq	-8(%rbp), %rcx	# D.11897, tmp75
	xorq	%fs:40, %rcx	#, tmp75
	je	.L36	#,
	call	__stack_chk_fail	#
.L36:
	leave
	.cfi_def_cfa 7, 8
	ret
	.cfi_endproc
.LFE10:
	.size	make_mortal_sv, .-make_mortal_sv
	.section	.rodata
	.align 8
.LC2:
	.string	"Usage: Digest::MD5::new(xclass)"
	.text
	.globl	XS_Digest__MD5_new
	.type	XS_Digest__MD5_new, @function
XS_Digest__MD5_new:
.LFB11:
	.loc 1 573 0
	.cfi_startproc
	pushq	%rbp	#
	.cfi_def_cfa_offset 16
	.cfi_offset 6, -16
	movq	%rsp, %rbp	#,
	.cfi_def_cfa_register 6
	pushq	%r12	#
	pushq	%rbx	#
	subq	$64, %rsp	#,
	.cfi_offset 12, -24
	.cfi_offset 3, -32
	movq	%rdi, -72(%rbp)	# cv, cv
	.loc 1 574 0
	movq	PL_stack_sp(%rip), %rbx	# PL_stack_sp, sp
	movq	PL_stack_base(%rip), %rcx	# PL_stack_base, PL_stack_base.38
	movq	PL_markstack_ptr(%rip), %rax	# PL_markstack_ptr, PL_markstack_ptr.39
	leaq	-4(%rax), %rdx	#, PL_markstack_ptr.41
	movq	%rdx, PL_markstack_ptr(%rip)	# PL_markstack_ptr.41, PL_markstack_ptr
	movl	(%rax), %eax	# *PL_markstack_ptr.40_6, D.11901
	cltq
	salq	$3, %rax	#, D.11902
	leaq	(%rcx,%rax), %r12	#, mark
	movq	%r12, %rdx	# mark, mark.42
	movq	PL_stack_base(%rip), %rax	# PL_stack_base, PL_stack_base.43
	subq	%rax, %rdx	# PL_stack_base.44, D.11903
	movq	%rdx, %rax	# D.11903, D.11903
	sarq	$3, %rax	#, tmp127
	addl	$1, %eax	#, D.11904
	movl	%eax, -64(%rbp)	# D.11904, ax
	movq	%rbx, %rdx	# sp, sp.45
	movq	%r12, %rax	# mark, mark.46
	subq	%rax, %rdx	# mark.46, D.11903
	movq	%rdx, %rax	# D.11903, D.11903
	sarq	$3, %rax	#, tmp128
	movl	%eax, -60(%rbp)	# D.11903, items
	.loc 1 575 0
	cmpl	$1, -60(%rbp)	#, items
	je	.L39	#,
	.loc 1 576 0
	movl	$.LC2, %edi	#,
	movl	$0, %eax	#,
	call	Perl_croak	#
.L39:
	.loc 1 577 0
	movl	-60(%rbp), %eax	# items, tmp129
	cltq
	salq	$3, %rax	#, D.11902
	negq	%rax	# D.11905
	addq	%rax, %rbx	# D.11905, sp
.LBB5:
	.loc 1 579 0
	movq	PL_stack_base(%rip), %rax	# PL_stack_base, PL_stack_base.47
	movl	-64(%rbp), %edx	# ax, tmp130
	movslq	%edx, %rdx	# tmp130, D.11902
	salq	$3, %rdx	#, D.11902
	addq	%rdx, %rax	# D.11902, D.11906
	movq	(%rax), %rax	# *_32, tmp131
	movq	%rax, -40(%rbp)	# tmp131, xclass
	.loc 1 584 0
	movq	-40(%rbp), %rax	# xclass, tmp132
	movl	12(%rax), %eax	# xclass_33->sv_flags, D.11907
	andl	$524288, %eax	#, D.11907
	testl	%eax, %eax	# D.11907
	jne	.L40	#,
.LBB6:
	.loc 1 586 0
	movq	-40(%rbp), %rax	# xclass, tmp133
	movl	12(%rax), %eax	# xclass_33->sv_flags, D.11907
	andl	$262144, %eax	#, D.11907
	testl	%eax, %eax	# D.11907
	je	.L41	#,
	.loc 1 586 0 is_stmt 0 discriminator 1
	movq	-40(%rbp), %rax	# xclass, tmp134
	movq	(%rax), %rax	# xclass_33->sv_any, D.11908
	movq	8(%rax), %rax	# MEM[(struct XPV *)_38].xpv_cur, my_na.49
	movq	%rax, -56(%rbp)	# my_na.49, my_na
	movq	-40(%rbp), %rax	# xclass, tmp135
	movq	(%rax), %rax	# xclass_33->sv_any, D.11908
	movq	(%rax), %rax	# MEM[(struct XPV *)_40].xpv_pv, iftmp.48
	jmp	.L42	#
.L41:
	.loc 1 586 0 discriminator 2
	leaq	-56(%rbp), %rcx	#, tmp136
	movq	-40(%rbp), %rax	# xclass, tmp137
	movl	$2, %edx	#,
	movq	%rcx, %rsi	# tmp136,
	movq	%rax, %rdi	# tmp137,
	call	Perl_sv_2pv_flags	#
.L42:
	.loc 1 586 0 discriminator 1
	movq	%rax, -32(%rbp)	# iftmp.48, sclass
	.loc 1 587 0 is_stmt 1 discriminator 1
	movl	$156, %edi	#,
	call	Perl_safesysmalloc	#
	movq	%rax, -48(%rbp)	# tmp138, context
	.loc 1 588 0 discriminator 1
	movq	-48(%rbp), %rax	# context, tmp139
	movl	$200003165, (%rax)	#, context_44->signature
	.loc 1 589 0 discriminator 1
	movq	PL_stack_base(%rip), %rax	# PL_stack_base, PL_stack_base.50
	movl	-64(%rbp), %edx	# ax, tmp140
	movslq	%edx, %rdx	# tmp140, D.11902
	salq	$3, %rdx	#, D.11902
	leaq	(%rax,%rdx), %rbx	#, D.11906
	call	Perl_sv_newmortal	#
	movq	%rax, (%rbx)	# D.11909, *_48
	.loc 1 590 0 discriminator 1
	movq	PL_stack_base(%rip), %rax	# PL_stack_base, PL_stack_base.51
	movl	-64(%rbp), %edx	# ax, tmp141
	movslq	%edx, %rdx	# tmp141, D.11902
	salq	$3, %rdx	#, D.11902
	addq	%rdx, %rax	# D.11902, D.11906
	movq	(%rax), %rax	# *_53, D.11909
	movq	-48(%rbp), %rdx	# context, tmp142
	movq	-32(%rbp), %rcx	# sclass, tmp143
	movq	%rcx, %rsi	# tmp143,
	movq	%rax, %rdi	# D.11909,
	call	Perl_sv_setref_pv	#
	.loc 1 591 0 discriminator 1
	movq	PL_stack_base(%rip), %rax	# PL_stack_base, PL_stack_base.52
	movl	-64(%rbp), %edx	# ax, tmp144
	movslq	%edx, %rdx	# tmp144, D.11902
	salq	$3, %rdx	#, D.11902
	addq	%rdx, %rax	# D.11902, D.11906
	movq	(%rax), %rax	# *_58, D.11909
	movq	(%rax), %rax	# _59->sv_any, D.11908
	movq	(%rax), %rax	# MEM[(struct XRV *)_60].xrv_rv, D.11909
	movq	PL_stack_base(%rip), %rdx	# PL_stack_base, PL_stack_base.53
	movl	-64(%rbp), %ecx	# ax, tmp145
	movslq	%ecx, %rcx	# tmp145, D.11902
	salq	$3, %rcx	#, D.11902
	addq	%rcx, %rdx	# D.11902, D.11906
	movq	(%rdx), %rdx	# *_65, D.11909
	movq	(%rdx), %rdx	# _66->sv_any, D.11908
	movq	(%rdx), %rdx	# MEM[(struct XRV *)_67].xrv_rv, D.11909
	movl	12(%rdx), %edx	# _68->sv_flags, D.11907
	orl	$8388608, %edx	#, D.11907
	movl	%edx, 12(%rax)	# D.11907, _61->sv_flags
.LBE6:
	jmp	.L43	#
.L40:
	.loc 1 593 0
	movq	-40(%rbp), %rax	# xclass, tmp146
	movq	%rax, %rdi	# tmp146,
	call	get_md5_ctx	#
	movq	%rax, -48(%rbp)	# tmp147, context
.L43:
	.loc 1 595 0
	movq	-48(%rbp), %rax	# context, tmp148
	movq	%rax, %rdi	# tmp148,
	call	MD5Init	#
.LBB7:
	.loc 1 596 0
	movq	$1, -24(%rbp)	#, tmpXSoff
	movq	PL_stack_base(%rip), %rax	# PL_stack_base, PL_stack_base.54
	movl	-64(%rbp), %edx	# ax, tmp149
	movslq	%edx, %rcx	# tmp149, D.11905
	movq	-24(%rbp), %rdx	# tmpXSoff, tmpXSoff.55
	addq	%rcx, %rdx	# D.11905, D.11905
	salq	$3, %rdx	#, D.11905
	subq	$8, %rdx	#, D.11905
	addq	%rdx, %rax	# D.11905, PL_stack_sp.56
	movq	%rax, PL_stack_sp(%rip)	# PL_stack_sp.56, PL_stack_sp
	nop
.LBE7:
.LBE5:
	.loc 1 601 0
	addq	$64, %rsp	#,
	popq	%rbx	#
	popq	%r12	#
	popq	%rbp	#
	.cfi_def_cfa 7, 8
	ret
	.cfi_endproc
.LFE11:
	.size	XS_Digest__MD5_new, .-XS_Digest__MD5_new
	.section	.rodata
	.align 8
.LC3:
	.string	"Usage: Digest::MD5::clone(self)"
	.text
	.globl	XS_Digest__MD5_clone
	.type	XS_Digest__MD5_clone, @function
XS_Digest__MD5_clone:
.LFB12:
	.loc 1 605 0
	.cfi_startproc
	pushq	%rbp	#
	.cfi_def_cfa_offset 16
	.cfi_offset 6, -16
	movq	%rsp, %rbp	#,
	.cfi_def_cfa_register 6
	pushq	%r12	#
	pushq	%rbx	#
	subq	$64, %rsp	#,
	.cfi_offset 12, -24
	.cfi_offset 3, -32
	movq	%rdi, -72(%rbp)	# cv, cv
	.loc 1 606 0
	movq	PL_stack_sp(%rip), %rbx	# PL_stack_sp, sp
	movq	PL_stack_base(%rip), %rcx	# PL_stack_base, PL_stack_base.57
	movq	PL_markstack_ptr(%rip), %rax	# PL_markstack_ptr, PL_markstack_ptr.58
	leaq	-4(%rax), %rdx	#, PL_markstack_ptr.60
	movq	%rdx, PL_markstack_ptr(%rip)	# PL_markstack_ptr.60, PL_markstack_ptr
	movl	(%rax), %eax	# *PL_markstack_ptr.59_4, D.11911
	cltq
	salq	$3, %rax	#, D.11912
	leaq	(%rcx,%rax), %r12	#, mark
	movq	%r12, %rdx	# mark, mark.61
	movq	PL_stack_base(%rip), %rax	# PL_stack_base, PL_stack_base.62
	subq	%rax, %rdx	# PL_stack_base.63, D.11913
	movq	%rdx, %rax	# D.11913, D.11913
	sarq	$3, %rax	#, tmp121
	addl	$1, %eax	#, D.11914
	movl	%eax, -64(%rbp)	# D.11914, ax
	movq	%rbx, %rdx	# sp, sp.64
	movq	%r12, %rax	# mark, mark.65
	subq	%rax, %rdx	# mark.65, D.11913
	movq	%rdx, %rax	# D.11913, D.11913
	sarq	$3, %rax	#, tmp122
	movl	%eax, -60(%rbp)	# D.11913, items
	.loc 1 607 0
	cmpl	$1, -60(%rbp)	#, items
	je	.L46	#,
	.loc 1 608 0
	movl	$.LC3, %edi	#,
	movl	$0, %eax	#,
	call	Perl_croak	#
.L46:
	.loc 1 609 0
	movl	-60(%rbp), %eax	# items, tmp123
	cltq
	salq	$3, %rax	#, D.11912
	negq	%rax	# D.11915
	addq	%rax, %rbx	# D.11915, sp
.LBB8:
	.loc 1 611 0
	movq	PL_stack_base(%rip), %rax	# PL_stack_base, PL_stack_base.66
	movl	-64(%rbp), %edx	# ax, tmp124
	movslq	%edx, %rdx	# tmp124, D.11912
	salq	$3, %rdx	#, D.11912
	addq	%rdx, %rax	# D.11912, D.11916
	movq	(%rax), %rax	# *_30, tmp125
	movq	%rax, -56(%rbp)	# tmp125, self
	.loc 1 613 0
	movq	-56(%rbp), %rax	# self, tmp126
	movq	%rax, %rdi	# tmp126,
	call	get_md5_ctx	#
	movq	%rax, -48(%rbp)	# tmp127, cont
	.loc 1 614 0
	movq	-56(%rbp), %rax	# self, tmp128
	movq	(%rax), %rax	# self_31->sv_any, D.11917
	movq	(%rax), %rax	# MEM[(struct XRV *)_33].xrv_rv, D.11918
	movl	$1, %esi	#,
	movq	%rax, %rdi	# D.11918,
	call	Perl_sv_reftype	#
	movq	%rax, -40(%rbp)	# tmp129, myname
	.loc 1 619 0
	movl	$156, %edi	#,
	call	Perl_safesysmalloc	#
	movq	%rax, -32(%rbp)	# tmp130, context
	.loc 1 620 0
	movq	PL_stack_base(%rip), %rax	# PL_stack_base, PL_stack_base.67
	movl	-64(%rbp), %edx	# ax, tmp131
	movslq	%edx, %rdx	# tmp131, D.11912
	salq	$3, %rdx	#, D.11912
	leaq	(%rax,%rdx), %rbx	#, D.11916
	call	Perl_sv_newmortal	#
	movq	%rax, (%rbx)	# D.11918, *_40
	.loc 1 621 0
	movq	PL_stack_base(%rip), %rax	# PL_stack_base, PL_stack_base.68
	movl	-64(%rbp), %edx	# ax, tmp132
	movslq	%edx, %rdx	# tmp132, D.11912
	salq	$3, %rdx	#, D.11912
	addq	%rdx, %rax	# D.11912, D.11916
	movq	(%rax), %rax	# *_45, D.11918
	movq	-32(%rbp), %rdx	# context, tmp133
	movq	-40(%rbp), %rcx	# myname, tmp134
	movq	%rcx, %rsi	# tmp134,
	movq	%rax, %rdi	# D.11918,
	call	Perl_sv_setref_pv	#
	.loc 1 622 0
	movq	PL_stack_base(%rip), %rax	# PL_stack_base, PL_stack_base.69
	movl	-64(%rbp), %edx	# ax, tmp135
	movslq	%edx, %rdx	# tmp135, D.11912
	salq	$3, %rdx	#, D.11912
	addq	%rdx, %rax	# D.11912, D.11916
	movq	(%rax), %rax	# *_50, D.11918
	movq	(%rax), %rax	# _51->sv_any, D.11917
	movq	(%rax), %rax	# MEM[(struct XRV *)_52].xrv_rv, D.11918
	movq	PL_stack_base(%rip), %rdx	# PL_stack_base, PL_stack_base.70
	movl	-64(%rbp), %ecx	# ax, tmp136
	movslq	%ecx, %rcx	# tmp136, D.11912
	salq	$3, %rcx	#, D.11912
	addq	%rcx, %rdx	# D.11912, D.11916
	movq	(%rdx), %rdx	# *_57, D.11918
	movq	(%rdx), %rdx	# _58->sv_any, D.11917
	movq	(%rdx), %rdx	# MEM[(struct XRV *)_59].xrv_rv, D.11918
	movl	12(%rdx), %edx	# _60->sv_flags, D.11919
	orl	$8388608, %edx	#, D.11919
	movl	%edx, 12(%rax)	# D.11919, _53->sv_flags
	.loc 1 623 0
	movq	-48(%rbp), %rcx	# cont, tmp137
	movq	-32(%rbp), %rax	# context, tmp138
	movl	$156, %edx	#,
	movq	%rcx, %rsi	# tmp137,
	movq	%rax, %rdi	# tmp138,
	call	memcpy	#
.LBB9:
	.loc 1 624 0
	movq	$1, -24(%rbp)	#, tmpXSoff
	movq	PL_stack_base(%rip), %rax	# PL_stack_base, PL_stack_base.71
	movl	-64(%rbp), %edx	# ax, tmp139
	movslq	%edx, %rcx	# tmp139, D.11915
	movq	-24(%rbp), %rdx	# tmpXSoff, tmpXSoff.72
	addq	%rcx, %rdx	# D.11915, D.11915
	salq	$3, %rdx	#, D.11915
	subq	$8, %rdx	#, D.11915
	addq	%rdx, %rax	# D.11915, PL_stack_sp.73
	movq	%rax, PL_stack_sp(%rip)	# PL_stack_sp.73, PL_stack_sp
	nop
.LBE9:
.LBE8:
	.loc 1 629 0
	addq	$64, %rsp	#,
	popq	%rbx	#
	popq	%r12	#
	popq	%rbp	#
	.cfi_def_cfa 7, 8
	ret
	.cfi_endproc
.LFE12:
	.size	XS_Digest__MD5_clone, .-XS_Digest__MD5_clone
	.section	.rodata
	.align 8
.LC4:
	.string	"Usage: Digest::MD5::DESTROY(context)"
	.text
	.globl	XS_Digest__MD5_DESTROY
	.type	XS_Digest__MD5_DESTROY, @function
XS_Digest__MD5_DESTROY:
.LFB13:
	.loc 1 633 0
	.cfi_startproc
	pushq	%rbp	#
	.cfi_def_cfa_offset 16
	.cfi_offset 6, -16
	movq	%rsp, %rbp	#,
	.cfi_def_cfa_register 6
	pushq	%r12	#
	pushq	%rbx	#
	subq	$48, %rsp	#,
	.cfi_offset 12, -24
	.cfi_offset 3, -32
	movq	%rdi, -56(%rbp)	# cv, cv
	.loc 1 634 0
	movq	PL_stack_sp(%rip), %r12	# PL_stack_sp, sp
	movq	PL_stack_base(%rip), %rcx	# PL_stack_base, PL_stack_base.74
	movq	PL_markstack_ptr(%rip), %rax	# PL_markstack_ptr, PL_markstack_ptr.75
	leaq	-4(%rax), %rdx	#, PL_markstack_ptr.77
	movq	%rdx, PL_markstack_ptr(%rip)	# PL_markstack_ptr.77, PL_markstack_ptr
	movl	(%rax), %eax	# *PL_markstack_ptr.76_4, D.11921
	cltq
	salq	$3, %rax	#, D.11922
	leaq	(%rcx,%rax), %rbx	#, mark
	movq	%rbx, %rdx	# mark, mark.78
	movq	PL_stack_base(%rip), %rax	# PL_stack_base, PL_stack_base.79
	subq	%rax, %rdx	# PL_stack_base.80, D.11923
	movq	%rdx, %rax	# D.11923, D.11923
	sarq	$3, %rax	#, tmp91
	addl	$1, %eax	#, D.11924
	movl	%eax, -40(%rbp)	# D.11924, ax
	movq	%r12, %rdx	# sp, sp.81
	movq	%rbx, %rax	# mark, mark.82
	subq	%rax, %rdx	# mark.82, D.11923
	movq	%rdx, %rax	# D.11923, D.11923
	sarq	$3, %rax	#, tmp92
	movl	%eax, -36(%rbp)	# D.11923, items
	.loc 1 635 0
	cmpl	$1, -36(%rbp)	#, items
	je	.L49	#,
	.loc 1 636 0
	movl	$.LC4, %edi	#,
	movl	$0, %eax	#,
	call	Perl_croak	#
.L49:
.LBB10:
	.loc 1 638 0
	movq	PL_stack_base(%rip), %rax	# PL_stack_base, PL_stack_base.83
	movl	-40(%rbp), %edx	# ax, tmp93
	movslq	%edx, %rdx	# tmp93, D.11922
	salq	$3, %rdx	#, D.11922
	addq	%rdx, %rax	# D.11922, D.11925
	movq	(%rax), %rax	# *_26, D.11926
	movq	%rax, %rdi	# D.11926,
	call	get_md5_ctx	#
	movq	%rax, -32(%rbp)	# tmp94, context
	.loc 1 640 0
	movq	-32(%rbp), %rax	# context, tmp95
	movq	%rax, %rdi	# tmp95,
	call	Perl_safesysfree	#
.LBE10:
.LBB11:
	.loc 1 643 0
	movq	$0, -24(%rbp)	#, tmpXSoff
	movq	PL_stack_base(%rip), %rax	# PL_stack_base, PL_stack_base.84
	movl	-40(%rbp), %edx	# ax, tmp96
	movslq	%edx, %rcx	# tmp96, D.11927
	movq	-24(%rbp), %rdx	# tmpXSoff, tmpXSoff.85
	addq	%rcx, %rdx	# D.11927, D.11927
	salq	$3, %rdx	#, D.11927
	subq	$8, %rdx	#, D.11927
	addq	%rdx, %rax	# D.11927, PL_stack_sp.86
	movq	%rax, PL_stack_sp(%rip)	# PL_stack_sp.86, PL_stack_sp
	nop
.LBE11:
	.loc 1 644 0
	addq	$48, %rsp	#,
	popq	%rbx	#
	popq	%r12	#
	popq	%rbp	#
	.cfi_def_cfa 7, 8
	ret
	.cfi_endproc
.LFE13:
	.size	XS_Digest__MD5_DESTROY, .-XS_Digest__MD5_DESTROY
	.section	.rodata
	.align 8
.LC5:
	.string	"Usage: Digest::MD5::add(self, ...)"
	.text
	.globl	XS_Digest__MD5_add
	.type	XS_Digest__MD5_add, @function
XS_Digest__MD5_add:
.LFB14:
	.loc 1 648 0
	.cfi_startproc
	pushq	%rbp	#
	.cfi_def_cfa_offset 16
	.cfi_offset 6, -16
	movq	%rsp, %rbp	#,
	.cfi_def_cfa_register 6
	pushq	%r12	#
	pushq	%rbx	#
	subq	$80, %rsp	#,
	.cfi_offset 12, -24
	.cfi_offset 3, -32
	movq	%rdi, -88(%rbp)	# cv, cv
	.loc 1 649 0
	movq	PL_stack_sp(%rip), %rbx	# PL_stack_sp, sp
	movq	PL_stack_base(%rip), %rcx	# PL_stack_base, PL_stack_base.87
	movq	PL_markstack_ptr(%rip), %rax	# PL_markstack_ptr, PL_markstack_ptr.88
	leaq	-4(%rax), %rdx	#, PL_markstack_ptr.90
	movq	%rdx, PL_markstack_ptr(%rip)	# PL_markstack_ptr.90, PL_markstack_ptr
	movl	(%rax), %eax	# *PL_markstack_ptr.89_6, D.11929
	cltq
	salq	$3, %rax	#, D.11930
	leaq	(%rcx,%rax), %r12	#, mark
	movq	%r12, %rdx	# mark, mark.91
	movq	PL_stack_base(%rip), %rax	# PL_stack_base, PL_stack_base.92
	subq	%rax, %rdx	# PL_stack_base.93, D.11931
	movq	%rdx, %rax	# D.11931, D.11931
	sarq	$3, %rax	#, tmp124
	addl	$1, %eax	#, D.11932
	movl	%eax, -64(%rbp)	# D.11932, ax
	movq	%rbx, %rdx	# sp, sp.94
	movq	%r12, %rax	# mark, mark.95
	subq	%rax, %rdx	# mark.95, D.11931
	movq	%rdx, %rax	# D.11931, D.11931
	sarq	$3, %rax	#, tmp125
	movl	%eax, -60(%rbp)	# D.11931, items
	.loc 1 650 0
	cmpl	$0, -60(%rbp)	#, items
	jg	.L52	#,
	.loc 1 651 0
	movl	$.LC5, %edi	#,
	movl	$0, %eax	#,
	call	Perl_croak	#
.L52:
	.loc 1 652 0
	movl	-60(%rbp), %eax	# items, tmp126
	cltq
	salq	$3, %rax	#, D.11930
	negq	%rax	# D.11933
	addq	%rax, %rbx	# D.11933, sp
.LBB12:
	.loc 1 654 0
	movq	PL_stack_base(%rip), %rax	# PL_stack_base, PL_stack_base.96
	movl	-64(%rbp), %edx	# ax, tmp127
	movslq	%edx, %rdx	# tmp127, D.11930
	salq	$3, %rdx	#, D.11930
	addq	%rdx, %rax	# D.11930, D.11934
	movq	(%rax), %rax	# *_32, tmp128
	movq	%rax, -48(%rbp)	# tmp128, self
	.loc 1 656 0
	movq	-48(%rbp), %rax	# self, tmp129
	movq	%rax, %rdi	# tmp129,
	call	get_md5_ctx	#
	movq	%rax, -40(%rbp)	# tmp130, context
	.loc 1 662 0
	movl	$1, -68(%rbp)	#, i
	jmp	.L53	#
.L56:
	.loc 1 663 0
	movq	PL_stack_base(%rip), %rax	# PL_stack_base, PL_stack_base.98
	movl	-68(%rbp), %edx	# i, tmp131
	movl	-64(%rbp), %ecx	# ax, tmp132
	addl	%ecx, %edx	# tmp132, D.11929
	movslq	%edx, %rdx	# D.11929, D.11930
	salq	$3, %rdx	#, D.11930
	addq	%rdx, %rax	# D.11930, D.11934
	movq	(%rax), %rax	# *_40, D.11935
	movl	12(%rax), %eax	# _41->sv_flags, D.11936
	andl	$537133056, %eax	#, D.11936
	cmpl	$262144, %eax	#, D.11936
	jne	.L54	#,
	.loc 1 663 0 is_stmt 0 discriminator 1
	movq	PL_stack_base(%rip), %rax	# PL_stack_base, PL_stack_base.99
	movl	-68(%rbp), %edx	# i, tmp133
	movl	-64(%rbp), %ecx	# ax, tmp134
	addl	%ecx, %edx	# tmp134, D.11929
	movslq	%edx, %rdx	# D.11929, D.11930
	salq	$3, %rdx	#, D.11930
	addq	%rdx, %rax	# D.11930, D.11934
	movq	(%rax), %rax	# *_48, D.11935
	movq	(%rax), %rax	# _49->sv_any, D.11937
	movq	8(%rax), %rax	# MEM[(struct XPV *)_50].xpv_cur, len.100
	movq	%rax, -56(%rbp)	# len.100, len
	movq	PL_stack_base(%rip), %rax	# PL_stack_base, PL_stack_base.101
	movl	-68(%rbp), %edx	# i, tmp135
	movl	-64(%rbp), %ecx	# ax, tmp136
	addl	%ecx, %edx	# tmp136, D.11929
	movslq	%edx, %rdx	# D.11929, D.11930
	salq	$3, %rdx	#, D.11930
	addq	%rdx, %rax	# D.11930, D.11934
	movq	(%rax), %rax	# *_56, D.11935
	movq	(%rax), %rax	# _57->sv_any, D.11937
	movq	(%rax), %rax	# MEM[(struct XPV *)_58].xpv_pv, iftmp.97
	jmp	.L55	#
.L54:
	.loc 1 663 0 discriminator 2
	movq	PL_stack_base(%rip), %rax	# PL_stack_base, PL_stack_base.102
	movl	-68(%rbp), %edx	# i, tmp137
	movl	-64(%rbp), %ecx	# ax, tmp138
	addl	%ecx, %edx	# tmp138, D.11929
	movslq	%edx, %rdx	# D.11929, D.11930
	salq	$3, %rdx	#, D.11930
	addq	%rdx, %rax	# D.11930, D.11934
	movq	(%rax), %rax	# *_64, D.11935
	leaq	-56(%rbp), %rdx	#, tmp139
	movq	%rdx, %rsi	# tmp139,
	movq	%rax, %rdi	# D.11935,
	call	Perl_sv_2pvbyte	#
.L55:
	.loc 1 663 0 discriminator 3
	movq	%rax, -32(%rbp)	# iftmp.97, data
	.loc 1 664 0 is_stmt 1 discriminator 3
	movq	-56(%rbp), %rdx	# len, len.103
	movq	-32(%rbp), %rcx	# data, tmp140
	movq	-40(%rbp), %rax	# context, tmp141
	movq	%rcx, %rsi	# tmp140,
	movq	%rax, %rdi	# tmp141,
	call	MD5Update	#
	.loc 1 662 0 discriminator 3
	addl	$1, -68(%rbp)	#, i
.L53:
	.loc 1 662 0 is_stmt 0 discriminator 1
	movl	-68(%rbp), %eax	# i, tmp142
	cmpl	-60(%rbp), %eax	# items, tmp142
	jl	.L56	#,
.LBB13:
	.loc 1 666 0 is_stmt 1
	movq	$1, -24(%rbp)	#, tmpXSoff
	movq	PL_stack_base(%rip), %rax	# PL_stack_base, PL_stack_base.104
	movl	-64(%rbp), %edx	# ax, tmp143
	movslq	%edx, %rcx	# tmp143, D.11933
	movq	-24(%rbp), %rdx	# tmpXSoff, tmpXSoff.105
	addq	%rcx, %rdx	# D.11933, D.11933
	salq	$3, %rdx	#, D.11933
	subq	$8, %rdx	#, D.11933
	addq	%rdx, %rax	# D.11933, PL_stack_sp.106
	movq	%rax, PL_stack_sp(%rip)	# PL_stack_sp.106, PL_stack_sp
	nop
.LBE13:
.LBE12:
	.loc 1 671 0
	addq	$80, %rsp	#,
	popq	%rbx	#
	popq	%r12	#
	popq	%rbp	#
	.cfi_def_cfa 7, 8
	ret
	.cfi_endproc
.LFE14:
	.size	XS_Digest__MD5_add, .-XS_Digest__MD5_add
	.section	.rodata
	.align 8
.LC6:
	.string	"Usage: Digest::MD5::addfile(self, fh)"
	.align 8
.LC7:
	.string	"Reading from filehandle failed"
.LC8:
	.string	"No filehandle passed"
	.text
	.globl	XS_Digest__MD5_addfile
	.type	XS_Digest__MD5_addfile, @function
XS_Digest__MD5_addfile:
.LFB15:
	.loc 1 675 0
	.cfi_startproc
	pushq	%rbp	#
	.cfi_def_cfa_offset 16
	.cfi_offset 6, -16
	movq	%rsp, %rbp	#,
	.cfi_def_cfa_register 6
	pushq	%r12	#
	pushq	%rbx	#
	subq	$4208, %rsp	#,
	.cfi_offset 12, -24
	.cfi_offset 3, -32
	movq	%rdi, -4216(%rbp)	# cv, cv
	.loc 1 675 0
	movq	%fs:40, %rax	#, tmp140
	movq	%rax, -24(%rbp)	# tmp140, D.11949
	xorl	%eax, %eax	# tmp140
	.loc 1 676 0
	movq	PL_stack_sp(%rip), %r12	# PL_stack_sp, sp
	movq	PL_stack_base(%rip), %rcx	# PL_stack_base, PL_stack_base.107
	movq	PL_markstack_ptr(%rip), %rax	# PL_markstack_ptr, PL_markstack_ptr.108
	leaq	-4(%rax), %rdx	#, PL_markstack_ptr.110
	movq	%rdx, PL_markstack_ptr(%rip)	# PL_markstack_ptr.110, PL_markstack_ptr
	movl	(%rax), %eax	# *PL_markstack_ptr.109_4, D.11939
	cltq
	salq	$3, %rax	#, D.11940
	leaq	(%rcx,%rax), %rbx	#, mark
	movq	%rbx, %rdx	# mark, mark.111
	movq	PL_stack_base(%rip), %rax	# PL_stack_base, PL_stack_base.112
	subq	%rax, %rdx	# PL_stack_base.113, D.11941
	movq	%rdx, %rax	# D.11941, D.11941
	sarq	$3, %rax	#, tmp112
	addl	$1, %eax	#, D.11942
	movl	%eax, -4196(%rbp)	# D.11942, ax
	movq	%r12, %rdx	# sp, sp.114
	movq	%rbx, %rax	# mark, mark.115
	subq	%rax, %rdx	# mark.115, D.11941
	movq	%rdx, %rax	# D.11941, D.11941
	sarq	$3, %rax	#, tmp113
	movl	%eax, -4192(%rbp)	# D.11941, items
	.loc 1 677 0
	cmpl	$2, -4192(%rbp)	#, items
	je	.L59	#,
	.loc 1 678 0
	movl	$.LC6, %edi	#,
	movl	$0, %eax	#,
	call	Perl_croak	#
.L59:
.LBB14:
	.loc 1 680 0
	movq	PL_stack_base(%rip), %rax	# PL_stack_base, PL_stack_base.116
	movl	-4196(%rbp), %edx	# ax, tmp114
	movslq	%edx, %rdx	# tmp114, D.11940
	salq	$3, %rdx	#, D.11940
	addq	%rdx, %rax	# D.11940, D.11943
	movq	(%rax), %rax	# *_26, tmp115
	movq	%rax, -4184(%rbp)	# tmp115, self
	.loc 1 681 0
	movq	PL_stack_base(%rip), %rax	# PL_stack_base, PL_stack_base.117
	movl	-4196(%rbp), %edx	# ax, tmp116
	movslq	%edx, %rdx	# tmp116, D.11944
	addq	$1, %rdx	#, D.11944
	salq	$3, %rdx	#, D.11944
	addq	%rdx, %rax	# D.11944, D.11943
	movq	(%rax), %rax	# *_32, D.11945
	movq	%rax, %rdi	# D.11945,
	call	Perl_sv_2io	#
	movq	(%rax), %rax	# _34->sv_any, D.11947
	movq	56(%rax), %rax	# _35->xio_ifp, tmp117
	movq	%rax, -4176(%rbp)	# tmp117, fh
	.loc 1 683 0
	movq	-4184(%rbp), %rax	# self, tmp118
	movq	%rax, %rdi	# tmp118,
	call	get_md5_ctx	#
	movq	%rax, -4168(%rbp)	# tmp119, context
	.loc 1 684 0
	movq	-4168(%rbp), %rax	# context, tmp120
	movl	20(%rax), %eax	# context_37->bytes_low, D.11948
	movl	%eax, %eax	# D.11948, D.11940
	andl	$63, %eax	#, tmp121
	movq	%rax, -4160(%rbp)	# tmp121, fill
	.loc 1 689 0
	cmpq	$0, -4176(%rbp)	#, fh
	je	.L60	#,
	.loc 1 690 0
	cmpq	$0, -4160(%rbp)	#, fill
	je	.L61	#,
.LBB15:
	.loc 1 695 0
	movl	$64, %eax	#, tmp125
	subq	-4160(%rbp), %rax	# fill, tmp124
	movq	%rax, -4152(%rbp)	# tmp124, missing
	.loc 1 696 0
	movq	-4152(%rbp), %rdx	# missing, tmp126
	leaq	-4128(%rbp), %rcx	#, tmp127
	movq	-4176(%rbp), %rax	# fh, tmp128
	movq	%rcx, %rsi	# tmp127,
	movq	%rax, %rdi	# tmp128,
	call	Perl_PerlIO_read	#
	movl	%eax, -4188(%rbp)	# D.11941, n
	cmpl	$0, -4188(%rbp)	#, n
	jle	.L62	#,
	.loc 1 697 0
	movl	-4188(%rbp), %eax	# n, tmp129
	movslq	%eax, %rdx	# tmp129, D.11940
	leaq	-4128(%rbp), %rcx	#, tmp130
	movq	-4168(%rbp), %rax	# context, tmp131
	movq	%rcx, %rsi	# tmp130,
	movq	%rax, %rdi	# tmp131,
	call	MD5Update	#
	jmp	.L61	#
.L62:
.LBB16:
	.loc 1 699 0
	movq	$1, -4144(%rbp)	#, tmpXSoff
	movq	PL_stack_base(%rip), %rax	# PL_stack_base, PL_stack_base.118
	movl	-4196(%rbp), %edx	# ax, tmp132
	movslq	%edx, %rcx	# tmp132, D.11944
	movq	-4144(%rbp), %rdx	# tmpXSoff, tmpXSoff.119
	addq	%rcx, %rdx	# D.11944, D.11944
	salq	$3, %rdx	#, D.11944
	subq	$8, %rdx	#, D.11944
	addq	%rdx, %rax	# D.11944, PL_stack_sp.120
	movq	%rax, PL_stack_sp(%rip)	# PL_stack_sp.120, PL_stack_sp
	jmp	.L58	#
.L61:
.LBE16:
.LBE15:
	.loc 1 703 0
	jmp	.L64	#
.L65:
	.loc 1 704 0
	movl	-4188(%rbp), %eax	# n, tmp133
	movslq	%eax, %rdx	# tmp133, D.11940
	leaq	-4128(%rbp), %rcx	#, tmp134
	movq	-4168(%rbp), %rax	# context, tmp135
	movq	%rcx, %rsi	# tmp134,
	movq	%rax, %rdi	# tmp135,
	call	MD5Update	#
.L64:
	.loc 1 703 0 discriminator 1
	leaq	-4128(%rbp), %rcx	#, tmp136
	movq	-4176(%rbp), %rax	# fh, tmp137
	movl	$4096, %edx	#,
	movq	%rcx, %rsi	# tmp136,
	movq	%rax, %rdi	# tmp137,
	call	Perl_PerlIO_read	#
	movl	%eax, -4188(%rbp)	# D.11941, n
	cmpl	$0, -4188(%rbp)	#, n
	jg	.L65	#,
	.loc 1 707 0
	movq	-4176(%rbp), %rax	# fh, tmp138
	movq	%rax, %rdi	# tmp138,
	call	Perl_PerlIO_error	#
	testl	%eax, %eax	# D.11939
	je	.L67	#,
	.loc 1 708 0
	movl	$.LC7, %edi	#,
	movl	$0, %eax	#,
	call	Perl_croak	#
	jmp	.L67	#
.L60:
	.loc 1 712 0
	movl	$.LC8, %edi	#,
	movl	$0, %eax	#,
	call	Perl_croak	#
.L67:
.LBB17:
	.loc 1 714 0
	movq	$1, -4136(%rbp)	#, tmpXSoff
	movq	PL_stack_base(%rip), %rax	# PL_stack_base, PL_stack_base.121
	movl	-4196(%rbp), %edx	# ax, tmp139
	movslq	%edx, %rcx	# tmp139, D.11944
	movq	-4136(%rbp), %rdx	# tmpXSoff, tmpXSoff.122
	addq	%rcx, %rdx	# D.11944, D.11944
	salq	$3, %rdx	#, D.11944
	subq	$8, %rdx	#, D.11944
	addq	%rdx, %rax	# D.11944, PL_stack_sp.123
	movq	%rax, PL_stack_sp(%rip)	# PL_stack_sp.123, PL_stack_sp
	nop
.L58:
.LBE17:
.LBE14:
	.loc 1 718 0
	movq	-24(%rbp), %rax	# D.11949, tmp141
	xorq	%fs:40, %rax	#, tmp141
	je	.L69	#,
	call	__stack_chk_fail	#
.L69:
	addq	$4208, %rsp	#,
	popq	%rbx	#
	popq	%r12	#
	popq	%rbp	#
	.cfi_def_cfa 7, 8
	ret
	.cfi_endproc
.LFE15:
	.size	XS_Digest__MD5_addfile, .-XS_Digest__MD5_addfile
	.section	.rodata
.LC9:
	.string	"Usage: %s(context)"
	.text
	.globl	XS_Digest__MD5_digest
	.type	XS_Digest__MD5_digest, @function
XS_Digest__MD5_digest:
.LFB16:
	.loc 1 722 0
	.cfi_startproc
	pushq	%rbp	#
	.cfi_def_cfa_offset 16
	.cfi_offset 6, -16
	movq	%rsp, %rbp	#,
	.cfi_def_cfa_register 6
	pushq	%r12	#
	pushq	%rbx	#
	subq	$80, %rsp	#,
	.cfi_offset 12, -24
	.cfi_offset 3, -32
	movq	%rdi, -88(%rbp)	# cv, cv
	.loc 1 722 0
	movq	%fs:40, %rax	#, tmp119
	movq	%rax, -24(%rbp)	# tmp119, D.11964
	xorl	%eax, %eax	# tmp119
	.loc 1 723 0
	movq	PL_stack_sp(%rip), %rbx	# PL_stack_sp, sp
	movq	PL_stack_base(%rip), %rcx	# PL_stack_base, PL_stack_base.127
	movq	PL_markstack_ptr(%rip), %rax	# PL_markstack_ptr, PL_markstack_ptr.128
	leaq	-4(%rax), %rdx	#, PL_markstack_ptr.130
	movq	%rdx, PL_markstack_ptr(%rip)	# PL_markstack_ptr.130, PL_markstack_ptr
	movl	(%rax), %eax	# *PL_markstack_ptr.129_4, D.11953
	cltq
	salq	$3, %rax	#, D.11954
	leaq	(%rcx,%rax), %r12	#, mark
	movq	%r12, %rdx	# mark, mark.131
	movq	PL_stack_base(%rip), %rax	# PL_stack_base, PL_stack_base.132
	subq	%rax, %rdx	# PL_stack_base.133, D.11955
	movq	%rdx, %rax	# D.11955, D.11955
	sarq	$3, %rax	#, tmp104
	addl	$1, %eax	#, D.11956
	movl	%eax, -76(%rbp)	# D.11956, ax
	movq	%rbx, %rdx	# sp, sp.134
	movq	%r12, %rax	# mark, mark.135
	subq	%rax, %rdx	# mark.135, D.11955
	movq	%rdx, %rax	# D.11955, D.11955
	sarq	$3, %rax	#, tmp105
	movl	%eax, -72(%rbp)	# D.11955, items
	.loc 1 724 0
	movq	-88(%rbp), %rax	# cv, tmp106
	movq	(%rax), %rax	# cv_23(D)->sv_any, D.11957
	movl	88(%rax), %eax	# _24->xcv_xsubany.any_i32, tmp107
	movl	%eax, -68(%rbp)	# tmp107, ix
	.loc 1 725 0
	cmpl	$1, -72(%rbp)	#, items
	je	.L71	#,
	.loc 1 726 0
	movq	-88(%rbp), %rax	# cv, tmp108
	movq	(%rax), %rax	# cv_23(D)->sv_any, D.11957
	movq	96(%rax), %rax	# _26->xcv_gv, D.11958
	movq	(%rax), %rax	# _27->sv_any, D.11959
	movq	64(%rax), %rax	# _28->xgv_name, D.11960
	movq	%rax, %rsi	# D.11960,
	movl	$.LC9, %edi	#,
	movl	$0, %eax	#,
	call	Perl_croak	#
.L71:
	.loc 1 727 0
	movl	-72(%rbp), %eax	# items, tmp109
	cltq
	salq	$3, %rax	#, D.11954
	negq	%rax	# D.11961
	addq	%rax, %rbx	# D.11961, sp
.LBB18:
	.loc 1 729 0
	movq	PL_stack_base(%rip), %rax	# PL_stack_base, PL_stack_base.136
	movl	-76(%rbp), %edx	# ax, tmp110
	movslq	%edx, %rdx	# tmp110, D.11954
	salq	$3, %rdx	#, D.11954
	addq	%rdx, %rax	# D.11954, D.11962
	movq	(%rax), %rax	# *_37, D.11963
	movq	%rax, %rdi	# D.11963,
	call	get_md5_ctx	#
	movq	%rax, -64(%rbp)	# tmp111, context
	.loc 1 734 0
	movq	-64(%rbp), %rdx	# context, tmp112
	leaq	-48(%rbp), %rax	#, tmp113
	movq	%rdx, %rsi	# tmp112,
	movq	%rax, %rdi	# tmp113,
	call	MD5Final	#
	.loc 1 735 0
	movq	-64(%rbp), %rax	# context, tmp114
	movq	%rax, %rdi	# tmp114,
	call	MD5Init	#
	.loc 1 736 0
	movq	PL_stack_base(%rip), %rax	# PL_stack_base, PL_stack_base.137
	movl	-76(%rbp), %edx	# ax, tmp115
	movslq	%edx, %rdx	# tmp115, D.11954
	salq	$3, %rdx	#, D.11954
	leaq	(%rax,%rdx), %rbx	#, D.11962
	movl	-68(%rbp), %edx	# ix, tmp116
	leaq	-48(%rbp), %rax	#, tmp117
	movl	%edx, %esi	# tmp116,
	movq	%rax, %rdi	# tmp117,
	call	make_mortal_sv	#
	movq	%rax, (%rbx)	# D.11963, *_43
.LBB19:
	.loc 1 737 0
	movq	$1, -56(%rbp)	#, tmpXSoff
	movq	PL_stack_base(%rip), %rax	# PL_stack_base, PL_stack_base.138
	movl	-76(%rbp), %edx	# ax, tmp118
	movslq	%edx, %rcx	# tmp118, D.11961
	movq	-56(%rbp), %rdx	# tmpXSoff, tmpXSoff.139
	addq	%rcx, %rdx	# D.11961, D.11961
	salq	$3, %rdx	#, D.11961
	subq	$8, %rdx	#, D.11961
	addq	%rdx, %rax	# D.11961, PL_stack_sp.140
	movq	%rax, PL_stack_sp(%rip)	# PL_stack_sp.140, PL_stack_sp
	nop
.LBE19:
.LBE18:
	.loc 1 742 0
	movq	-24(%rbp), %rax	# D.11964, tmp120
	xorq	%fs:40, %rax	#, tmp120
	je	.L73	#,
	call	__stack_chk_fail	#
.L73:
	addq	$80, %rsp	#,
	popq	%rbx	#
	popq	%r12	#
	popq	%rbp	#
	.cfi_def_cfa 7, 8
	ret
	.cfi_endproc
.LFE16:
	.size	XS_Digest__MD5_digest, .-XS_Digest__MD5_digest
	.section	.rodata
.LC10:
	.string	"Digest::MD5"
.LC11:
	.string	"probably called as method"
	.align 8
.LC12:
	.string	"called with reference argument"
	.align 8
.LC13:
	.string	"probably called as class method"
.LC14:
	.string	"md5_hex"
.LC15:
	.string	"md5_base64"
.LC16:
	.string	"md5"
.LC17:
	.string	"&Digest::MD5::%s function %s"
	.text
	.globl	XS_Digest__MD5_md5
	.type	XS_Digest__MD5_md5, @function
XS_Digest__MD5_md5:
.LFB17:
	.loc 1 746 0
	.cfi_startproc
	pushq	%rbp	#
	.cfi_def_cfa_offset 16
	.cfi_offset 6, -16
	movq	%rsp, %rbp	#,
	.cfi_def_cfa_register 6
	pushq	%r12	#
	pushq	%rbx	#
	subq	$272, %rsp	#,
	.cfi_offset 12, -24
	.cfi_offset 3, -32
	movq	%rdi, -280(%rbp)	# cv, cv
	.loc 1 746 0
	movq	%fs:40, %rax	#, tmp216
	movq	%rax, -24(%rbp)	# tmp216, D.11979
	xorl	%eax, %eax	# tmp216
	.loc 1 747 0
	movq	PL_stack_sp(%rip), %rbx	# PL_stack_sp, sp
	movq	PL_stack_base(%rip), %rcx	# PL_stack_base, PL_stack_base.141
	movq	PL_markstack_ptr(%rip), %rax	# PL_markstack_ptr, PL_markstack_ptr.142
	leaq	-4(%rax), %rdx	#, PL_markstack_ptr.144
	movq	%rdx, PL_markstack_ptr(%rip)	# PL_markstack_ptr.144, PL_markstack_ptr
	movl	(%rax), %eax	# *PL_markstack_ptr.143_11, D.11966
	cltq
	salq	$3, %rax	#, D.11967
	leaq	(%rcx,%rax), %r12	#, mark
	movq	%r12, %rdx	# mark, mark.145
	movq	PL_stack_base(%rip), %rax	# PL_stack_base, PL_stack_base.146
	subq	%rax, %rdx	# PL_stack_base.147, D.11968
	movq	%rdx, %rax	# D.11968, D.11968
	sarq	$3, %rax	#, tmp179
	addl	$1, %eax	#, D.11969
	movl	%eax, -268(%rbp)	# D.11969, ax
	movq	%rbx, %rdx	# sp, sp.148
	movq	%r12, %rax	# mark, mark.149
	subq	%rax, %rdx	# mark.149, D.11968
	movq	%rdx, %rax	# D.11968, D.11968
	sarq	$3, %rax	#, tmp180
	movl	%eax, -264(%rbp)	# D.11968, items
	.loc 1 748 0
	movq	-280(%rbp), %rax	# cv, tmp181
	movq	(%rax), %rax	# cv_30(D)->sv_any, D.11970
	movl	88(%rax), %eax	# _31->xcv_xsubany.any_i32, tmp182
	movl	%eax, -260(%rbp)	# tmp182, ix
	.loc 1 750 0
	movl	-264(%rbp), %eax	# items, tmp183
	cltq
	salq	$3, %rax	#, D.11967
	negq	%rax	# D.11971
	addq	%rax, %rbx	# D.11971, sp
.LBB20:
	.loc 1 760 0
	leaq	-192(%rbp), %rax	#, tmp184
	movq	%rax, %rdi	# tmp184,
	call	MD5Init	#
	.loc 1 762 0
	movzbl	PL_dowarn(%rip), %eax	# PL_dowarn, PL_dowarn.150
	movzbl	%al, %eax	# PL_dowarn.150, D.11966
	andl	$1, %eax	#, D.11966
	testl	%eax, %eax	# D.11966
	je	.L75	#,
.LBB21:
	.loc 1 763 0
	movq	$0, -248(%rbp)	#, msg
	.loc 1 764 0
	cmpl	$1, -264(%rbp)	#, items
	jne	.L76	#,
	.loc 1 765 0
	movq	PL_stack_base(%rip), %rax	# PL_stack_base, PL_stack_base.151
	movl	-268(%rbp), %edx	# ax, tmp185
	movslq	%edx, %rdx	# tmp185, D.11967
	salq	$3, %rdx	#, D.11967
	addq	%rdx, %rax	# D.11967, D.11972
	movq	(%rax), %rax	# *_44, D.11973
	movl	12(%rax), %eax	# _45->sv_flags, D.11974
	andl	$524288, %eax	#, D.11974
	testl	%eax, %eax	# D.11974
	je	.L77	#,
.LBB22:
	.loc 1 766 0
	movq	PL_stack_base(%rip), %rax	# PL_stack_base, PL_stack_base.152
	movl	-268(%rbp), %edx	# ax, tmp186
	movslq	%edx, %rdx	# tmp186, D.11967
	salq	$3, %rdx	#, D.11967
	addq	%rdx, %rax	# D.11967, D.11972
	movq	(%rax), %rax	# *_51, D.11973
	movq	(%rax), %rax	# _52->sv_any, D.11975
	movq	(%rax), %rax	# MEM[(struct XRV *)_53].xrv_rv, tmp187
	movq	%rax, -240(%rbp)	# tmp187, sv
	.loc 1 767 0
	movq	-240(%rbp), %rax	# sv, tmp188
	movl	12(%rax), %eax	# sv_54->sv_flags, D.11974
	andl	$4096, %eax	#, D.11974
	testl	%eax, %eax	# D.11974
	je	.L78	#,
	.loc 1 767 0 is_stmt 0 discriminator 1
	movq	-240(%rbp), %rax	# sv, tmp189
	movq	(%rax), %rax	# sv_54->sv_any, D.11975
	movq	48(%rax), %rax	# MEM[(struct XPVMG *)_57].xmg_stash, D.11976
	movq	(%rax), %rax	# _58->sv_any, D.11977
	movq	80(%rax), %rax	# _59->xhv_name, D.11978
	movl	$.LC10, %esi	#,
	movq	%rax, %rdi	# D.11978,
	call	strcmp	#
	testl	%eax, %eax	# D.11966
	jne	.L78	#,
	.loc 1 768 0 is_stmt 1
	movq	$.LC11, -248(%rbp)	#, msg
	jmp	.L77	#
.L78:
	.loc 1 770 0
	movq	$.LC12, -248(%rbp)	#, msg
.LBE22:
	jmp	.L79	#
.L77:
	jmp	.L79	#
.L76:
	.loc 1 773 0
	cmpl	$1, -264(%rbp)	#, items
	jle	.L79	#,
	.loc 1 774 0
	movq	PL_stack_base(%rip), %rax	# PL_stack_base, PL_stack_base.154
	movl	-268(%rbp), %edx	# ax, tmp190
	movslq	%edx, %rdx	# tmp190, D.11967
	salq	$3, %rdx	#, D.11967
	addq	%rdx, %rax	# D.11967, D.11972
	movq	(%rax), %rax	# *_67, D.11973
	movl	12(%rax), %eax	# _68->sv_flags, D.11974
	andl	$537133056, %eax	#, D.11974
	cmpl	$262144, %eax	#, D.11974
	jne	.L80	#,
	.loc 1 774 0 is_stmt 0 discriminator 1
	movq	PL_stack_base(%rip), %rax	# PL_stack_base, PL_stack_base.155
	movl	-268(%rbp), %edx	# ax, tmp191
	movslq	%edx, %rdx	# tmp191, D.11967
	salq	$3, %rdx	#, D.11967
	addq	%rdx, %rax	# D.11967, D.11972
	movq	(%rax), %rax	# *_74, D.11973
	movq	(%rax), %rax	# _75->sv_any, D.11975
	movq	8(%rax), %rax	# MEM[(struct XPV *)_76].xpv_cur, len.156
	movq	%rax, -256(%rbp)	# len.156, len
	movq	PL_stack_base(%rip), %rax	# PL_stack_base, PL_stack_base.157
	movl	-268(%rbp), %edx	# ax, tmp192
	movslq	%edx, %rdx	# tmp192, D.11967
	salq	$3, %rdx	#, D.11967
	addq	%rdx, %rax	# D.11967, D.11972
	movq	(%rax), %rax	# *_81, D.11973
	movq	(%rax), %rax	# _82->sv_any, D.11975
	movq	(%rax), %rax	# MEM[(struct XPV *)_83].xpv_pv, iftmp.153
	jmp	.L81	#
.L80:
	.loc 1 774 0 discriminator 2
	movq	PL_stack_base(%rip), %rax	# PL_stack_base, PL_stack_base.158
	movl	-268(%rbp), %edx	# ax, tmp193
	movslq	%edx, %rdx	# tmp193, D.11967
	salq	$3, %rdx	#, D.11967
	addq	%rdx, %rax	# D.11967, D.11972
	movq	(%rax), %rax	# *_88, D.11973
	leaq	-256(%rbp), %rdx	#, tmp194
	movq	%rdx, %rsi	# tmp194,
	movq	%rax, %rdi	# D.11973,
	call	Perl_sv_2pvbyte	#
.L81:
	.loc 1 774 0 discriminator 3
	movq	%rax, -232(%rbp)	# iftmp.153, data
	.loc 1 775 0 is_stmt 1 discriminator 3
	movq	-256(%rbp), %rax	# len, len.159
	cmpq	$11, %rax	#, len.159
	jne	.L79	#,
	.loc 1 775 0 is_stmt 0 discriminator 1
	movq	-232(%rbp), %rax	# data, tmp195
	movl	$11, %edx	#,
	movq	%rax, %rsi	# tmp195,
	movl	$.LC10, %edi	#,
	call	memcmp	#
	testl	%eax, %eax	# D.11966
	jne	.L79	#,
	.loc 1 776 0 is_stmt 1
	movq	$.LC13, -248(%rbp)	#, msg
.L79:
	.loc 1 779 0
	cmpq	$0, -248(%rbp)	#, msg
	je	.L75	#,
.LBB23:
	.loc 1 780 0
	cmpl	$0, -260(%rbp)	#, ix
	je	.L82	#,
	.loc 1 781 0
	cmpl	$1, -260(%rbp)	#, ix
	jne	.L83	#,
	.loc 1 781 0 is_stmt 0 discriminator 1
	movl	$.LC14, %eax	#, iftmp.161
	jmp	.L85	#
.L83:
	.loc 1 781 0 discriminator 2
	movl	$.LC15, %eax	#, iftmp.161
	jmp	.L85	#
.L82:
	.loc 1 780 0 is_stmt 1 discriminator 1
	movl	$.LC16, %eax	#, iftmp.160
.L85:
	.loc 1 780 0 is_stmt 0 discriminator 2
	movq	%rax, -224(%rbp)	# iftmp.160, f
	.loc 1 782 0 is_stmt 1 discriminator 2
	movq	-248(%rbp), %rdx	# msg, tmp196
	movq	-224(%rbp), %rax	# f, tmp197
	movq	%rax, %rsi	# tmp197,
	movl	$.LC17, %edi	#,
	movl	$0, %eax	#,
	call	Perl_warn	#
.L75:
.LBE23:
.LBE21:
	.loc 1 786 0
	movl	$0, -272(%rbp)	#, i
	jmp	.L86	#
.L89:
	.loc 1 787 0
	movq	PL_stack_base(%rip), %rax	# PL_stack_base, PL_stack_base.163
	movl	-272(%rbp), %edx	# i, tmp198
	movl	-268(%rbp), %ecx	# ax, tmp199
	addl	%ecx, %edx	# tmp199, D.11966
	movslq	%edx, %rdx	# D.11966, D.11967
	salq	$3, %rdx	#, D.11967
	addq	%rdx, %rax	# D.11967, D.11972
	movq	(%rax), %rax	# *_105, D.11973
	movl	12(%rax), %eax	# _106->sv_flags, D.11974
	andl	$537133056, %eax	#, D.11974
	cmpl	$262144, %eax	#, D.11974
	jne	.L87	#,
	.loc 1 787 0 is_stmt 0 discriminator 1
	movq	PL_stack_base(%rip), %rax	# PL_stack_base, PL_stack_base.164
	movl	-272(%rbp), %edx	# i, tmp200
	movl	-268(%rbp), %ecx	# ax, tmp201
	addl	%ecx, %edx	# tmp201, D.11966
	movslq	%edx, %rdx	# D.11966, D.11967
	salq	$3, %rdx	#, D.11967
	addq	%rdx, %rax	# D.11967, D.11972
	movq	(%rax), %rax	# *_113, D.11973
	movq	(%rax), %rax	# _114->sv_any, D.11975
	movq	8(%rax), %rax	# MEM[(struct XPV *)_115].xpv_cur, len.165
	movq	%rax, -256(%rbp)	# len.165, len
	movq	PL_stack_base(%rip), %rax	# PL_stack_base, PL_stack_base.166
	movl	-272(%rbp), %edx	# i, tmp202
	movl	-268(%rbp), %ecx	# ax, tmp203
	addl	%ecx, %edx	# tmp203, D.11966
	movslq	%edx, %rdx	# D.11966, D.11967
	salq	$3, %rdx	#, D.11967
	addq	%rdx, %rax	# D.11967, D.11972
	movq	(%rax), %rax	# *_121, D.11973
	movq	(%rax), %rax	# _122->sv_any, D.11975
	movq	(%rax), %rax	# MEM[(struct XPV *)_123].xpv_pv, iftmp.162
	jmp	.L88	#
.L87:
	.loc 1 787 0 discriminator 2
	movq	PL_stack_base(%rip), %rax	# PL_stack_base, PL_stack_base.167
	movl	-272(%rbp), %edx	# i, tmp204
	movl	-268(%rbp), %ecx	# ax, tmp205
	addl	%ecx, %edx	# tmp205, D.11966
	movslq	%edx, %rdx	# D.11966, D.11967
	salq	$3, %rdx	#, D.11967
	addq	%rdx, %rax	# D.11967, D.11972
	movq	(%rax), %rax	# *_129, D.11973
	leaq	-256(%rbp), %rdx	#, tmp206
	movq	%rdx, %rsi	# tmp206,
	movq	%rax, %rdi	# D.11973,
	call	Perl_sv_2pvbyte	#
.L88:
	.loc 1 787 0 discriminator 3
	movq	%rax, -232(%rbp)	# iftmp.162, data
	.loc 1 788 0 is_stmt 1 discriminator 3
	movq	-256(%rbp), %rdx	# len, len.168
	movq	-232(%rbp), %rcx	# data, tmp207
	leaq	-192(%rbp), %rax	#, tmp208
	movq	%rcx, %rsi	# tmp207,
	movq	%rax, %rdi	# tmp208,
	call	MD5Update	#
	.loc 1 786 0 discriminator 3
	addl	$1, -272(%rbp)	#, i
.L86:
	.loc 1 786 0 is_stmt 0 discriminator 1
	movl	-272(%rbp), %eax	# i, tmp209
	cmpl	-264(%rbp), %eax	# items, tmp209
	jl	.L89	#,
	.loc 1 790 0 is_stmt 1
	leaq	-192(%rbp), %rdx	#, tmp210
	leaq	-208(%rbp), %rax	#, tmp211
	movq	%rdx, %rsi	# tmp210,
	movq	%rax, %rdi	# tmp211,
	call	MD5Final	#
	.loc 1 791 0
	movq	PL_stack_base(%rip), %rax	# PL_stack_base, PL_stack_base.169
	movl	-268(%rbp), %edx	# ax, tmp212
	movslq	%edx, %rdx	# tmp212, D.11967
	salq	$3, %rdx	#, D.11967
	leaq	(%rax,%rdx), %rbx	#, D.11972
	movl	-260(%rbp), %edx	# ix, tmp213
	leaq	-208(%rbp), %rax	#, tmp214
	movl	%edx, %esi	# tmp213,
	movq	%rax, %rdi	# tmp214,
	call	make_mortal_sv	#
	movq	%rax, (%rbx)	# D.11973, *_138
.LBB24:
	.loc 1 792 0
	movq	$1, -216(%rbp)	#, tmpXSoff
	movq	PL_stack_base(%rip), %rax	# PL_stack_base, PL_stack_base.170
	movl	-268(%rbp), %edx	# ax, tmp215
	movslq	%edx, %rcx	# tmp215, D.11971
	movq	-216(%rbp), %rdx	# tmpXSoff, tmpXSoff.171
	addq	%rcx, %rdx	# D.11971, D.11971
	salq	$3, %rdx	#, D.11971
	subq	$8, %rdx	#, D.11971
	addq	%rdx, %rax	# D.11971, PL_stack_sp.172
	movq	%rax, PL_stack_sp(%rip)	# PL_stack_sp.172, PL_stack_sp
	nop
.LBE24:
.LBE20:
	.loc 1 797 0
	movq	-24(%rbp), %rax	# D.11979, tmp217
	xorq	%fs:40, %rax	#, tmp217
	je	.L91	#,
	call	__stack_chk_fail	#
.L91:
	addq	$272, %rsp	#,
	popq	%rbx	#
	popq	%r12	#
	popq	%rbp	#
	.cfi_def_cfa 7, 8
	ret
	.cfi_endproc
.LFE17:
	.size	XS_Digest__MD5_md5, .-XS_Digest__MD5_md5
	.section	.rodata
.LC18:
	.string	"MD5.c"
.LC19:
	.string	"Digest::MD5::new"
.LC20:
	.string	"Digest::MD5::clone"
.LC21:
	.string	"Digest::MD5::DESTROY"
.LC22:
	.string	"Digest::MD5::add"
.LC23:
	.string	"Digest::MD5::addfile"
.LC24:
	.string	"Digest::MD5::hexdigest"
.LC25:
	.string	"Digest::MD5::digest"
.LC26:
	.string	"Digest::MD5::b64digest"
.LC27:
	.string	"Digest::MD5::md5"
.LC28:
	.string	"Digest::MD5::md5_base64"
.LC29:
	.string	"Digest::MD5::md5_hex"
	.text
	.globl	boot_Digest__MD5
	.type	boot_Digest__MD5, @function
boot_Digest__MD5:
.LFB18:
	.loc 1 804 0
	.cfi_startproc
	pushq	%rbp	#
	.cfi_def_cfa_offset 16
	.cfi_offset 6, -16
	movq	%rsp, %rbp	#,
	.cfi_def_cfa_register 6
	pushq	%r12	#
	pushq	%rbx	#
	subq	$48, %rsp	#,
	.cfi_offset 12, -24
	.cfi_offset 3, -32
	movq	%rdi, -56(%rbp)	# cv, cv
	.loc 1 805 0
	movq	PL_stack_sp(%rip), %r12	# PL_stack_sp, sp
	movq	PL_stack_base(%rip), %rcx	# PL_stack_base, PL_stack_base.173
	movq	PL_markstack_ptr(%rip), %rax	# PL_markstack_ptr, PL_markstack_ptr.174
	leaq	-4(%rax), %rdx	#, PL_markstack_ptr.176
	movq	%rdx, PL_markstack_ptr(%rip)	# PL_markstack_ptr.176, PL_markstack_ptr
	movl	(%rax), %eax	# *PL_markstack_ptr.175_4, D.11988
	cltq
	salq	$3, %rax	#, D.11989
	leaq	(%rcx,%rax), %rbx	#, mark
	movq	%rbx, %rdx	# mark, mark.177
	movq	PL_stack_base(%rip), %rax	# PL_stack_base, PL_stack_base.178
	subq	%rax, %rdx	# PL_stack_base.179, D.11990
	movq	%rdx, %rax	# D.11990, D.11990
	sarq	$3, %rax	#, tmp96
	addl	$1, %eax	#, D.11991
	movl	%eax, -48(%rbp)	# D.11991, ax
	movq	%r12, %rdx	# sp, sp.180
	movq	%rbx, %rax	# mark, mark.181
	subq	%rax, %rdx	# mark.181, D.11990
	movq	%rdx, %rax	# D.11990, D.11990
	sarq	$3, %rax	#, tmp97
	movl	%eax, -44(%rbp)	# D.11990, items
	.loc 1 806 0
	movq	$.LC18, -40(%rbp)	#, file
.LBB25:
	.loc 1 813 0
	movq	-40(%rbp), %rax	# file, tmp98
	movq	%rax, %rdx	# tmp98,
	movl	$XS_Digest__MD5_new, %esi	#,
	movl	$.LC19, %edi	#,
	call	Perl_newXS	#
	.loc 1 814 0
	movq	-40(%rbp), %rax	# file, tmp99
	movq	%rax, %rdx	# tmp99,
	movl	$XS_Digest__MD5_clone, %esi	#,
	movl	$.LC20, %edi	#,
	call	Perl_newXS	#
	.loc 1 815 0
	movq	-40(%rbp), %rax	# file, tmp100
	movq	%rax, %rdx	# tmp100,
	movl	$XS_Digest__MD5_DESTROY, %esi	#,
	movl	$.LC21, %edi	#,
	call	Perl_newXS	#
	.loc 1 816 0
	movq	-40(%rbp), %rax	# file, tmp101
	movq	%rax, %rdx	# tmp101,
	movl	$XS_Digest__MD5_add, %esi	#,
	movl	$.LC22, %edi	#,
	call	Perl_newXS	#
	.loc 1 817 0
	movq	-40(%rbp), %rax	# file, tmp102
	movq	%rax, %rdx	# tmp102,
	movl	$XS_Digest__MD5_addfile, %esi	#,
	movl	$.LC23, %edi	#,
	call	Perl_newXS	#
	.loc 1 818 0
	movq	-40(%rbp), %rax	# file, tmp103
	movq	%rax, %rdx	# tmp103,
	movl	$XS_Digest__MD5_digest, %esi	#,
	movl	$.LC24, %edi	#,
	call	Perl_newXS	#
	movq	%rax, -32(%rbp)	# tmp104, cv
	.loc 1 819 0
	movq	-32(%rbp), %rax	# cv, tmp105
	movq	(%rax), %rax	# cv_24->sv_any, D.11992
	movl	$1, 88(%rax)	#, _25->xcv_xsubany.any_i32
	.loc 1 820 0
	movq	-40(%rbp), %rax	# file, tmp106
	movq	%rax, %rdx	# tmp106,
	movl	$XS_Digest__MD5_digest, %esi	#,
	movl	$.LC25, %edi	#,
	call	Perl_newXS	#
	movq	%rax, -32(%rbp)	# tmp107, cv
	.loc 1 821 0
	movq	-32(%rbp), %rax	# cv, tmp108
	movq	(%rax), %rax	# cv_26->sv_any, D.11992
	movl	$0, 88(%rax)	#, _27->xcv_xsubany.any_i32
	.loc 1 822 0
	movq	-40(%rbp), %rax	# file, tmp109
	movq	%rax, %rdx	# tmp109,
	movl	$XS_Digest__MD5_digest, %esi	#,
	movl	$.LC26, %edi	#,
	call	Perl_newXS	#
	movq	%rax, -32(%rbp)	# tmp110, cv
	.loc 1 823 0
	movq	-32(%rbp), %rax	# cv, tmp111
	movq	(%rax), %rax	# cv_28->sv_any, D.11992
	movl	$2, 88(%rax)	#, _29->xcv_xsubany.any_i32
	.loc 1 824 0
	movq	-40(%rbp), %rax	# file, tmp112
	movq	%rax, %rdx	# tmp112,
	movl	$XS_Digest__MD5_md5, %esi	#,
	movl	$.LC27, %edi	#,
	call	Perl_newXS	#
	movq	%rax, -32(%rbp)	# tmp113, cv
	.loc 1 825 0
	movq	-32(%rbp), %rax	# cv, tmp114
	movq	(%rax), %rax	# cv_30->sv_any, D.11992
	movl	$0, 88(%rax)	#, _31->xcv_xsubany.any_i32
	.loc 1 826 0
	movq	-40(%rbp), %rax	# file, tmp115
	movq	%rax, %rdx	# tmp115,
	movl	$XS_Digest__MD5_md5, %esi	#,
	movl	$.LC28, %edi	#,
	call	Perl_newXS	#
	movq	%rax, -32(%rbp)	# tmp116, cv
	.loc 1 827 0
	movq	-32(%rbp), %rax	# cv, tmp117
	movq	(%rax), %rax	# cv_32->sv_any, D.11992
	movl	$2, 88(%rax)	#, _33->xcv_xsubany.any_i32
	.loc 1 828 0
	movq	-40(%rbp), %rax	# file, tmp118
	movq	%rax, %rdx	# tmp118,
	movl	$XS_Digest__MD5_md5, %esi	#,
	movl	$.LC29, %edi	#,
	call	Perl_newXS	#
	movq	%rax, -32(%rbp)	# tmp119, cv
	.loc 1 829 0
	movq	-32(%rbp), %rax	# cv, tmp120
	movq	(%rax), %rax	# cv_34->sv_any, D.11992
	movl	$1, 88(%rax)	#, _35->xcv_xsubany.any_i32
.LBE25:
.LBB26:
	.loc 1 831 0
	movq	PL_stack_base(%rip), %rax	# PL_stack_base, PL_stack_base.182
	movl	-48(%rbp), %edx	# ax, tmp121
	movslq	%edx, %rdx	# tmp121, D.11989
	salq	$3, %rdx	#, D.11989
	addq	%rdx, %rax	# D.11989, D.11993
	movq	$PL_sv_yes, (%rax)	#, *_39
.LBB27:
	movq	$1, -24(%rbp)	#, tmpXSoff
	movq	PL_stack_base(%rip), %rax	# PL_stack_base, PL_stack_base.183
	movl	-48(%rbp), %edx	# ax, tmp122
	movslq	%edx, %rcx	# tmp122, D.11994
	movq	-24(%rbp), %rdx	# tmpXSoff, tmpXSoff.184
	addq	%rcx, %rdx	# D.11994, D.11994
	salq	$3, %rdx	#, D.11994
	subq	$8, %rdx	#, D.11994
	addq	%rdx, %rax	# D.11994, PL_stack_sp.185
	movq	%rax, PL_stack_sp(%rip)	# PL_stack_sp.185, PL_stack_sp
	nop
.LBE27:
.LBE26:
	.loc 1 832 0
	addq	$48, %rsp	#,
	popq	%rbx	#
	popq	%r12	#
	popq	%rbp	#
	.cfi_def_cfa 7, 8
	ret
	.cfi_endproc
.LFE18:
	.size	boot_Digest__MD5, .-boot_Digest__MD5
	.section	.rodata
.LC30:
	.string	"0123456789abcdef"
	.data
	.align 8
	.type	hexdigits.10351, @object
	.size	hexdigits.10351, 8
hexdigits.10351:
	.quad	.LC30
	.section	.rodata
	.align 8
.LC31:
	.string	"ABCDEFGHIJKLMNOPQRSTUVWXYZabcdefghijklmnopqrstuvwxyz0123456789+/"
	.data
	.align 8
	.type	base64.10361, @object
	.size	base64.10361, 8
base64.10361:
	.quad	.LC31
	.text
.Letext0:
	.file 2 "/usr/include/x86_64-linux-gnu/bits/types.h"
	.file 3 "/usr/include/x86_64-linux-gnu/sys/types.h"
	.file 4 "/usr/lib/gcc/x86_64-linux-gnu/4.8/include/stddef.h"
	.file 5 "/usr/include/dirent.h"
	.file 6 "perl.h"
	.file 7 "op.h"
	.file 8 "sv.h"
	.file 9 "regexp.h"
	.file 10 "gv.h"
	.file 11 "mg.h"
	.file 12 "av.h"
	.file 13 "hv.h"
	.file 14 "cv.h"
	.file 15 "handy.h"
	.file 16 "perlio.h"
	.file 17 "pad.h"
	.file 18 "intrpvar.h"
	.file 19 "thrdvar.h"
	.section	.note.GNU-stack,"",@progbits
