	.file	"op.c"
# GNU C (Ubuntu/Linaro 4.8.1-10ubuntu9) version 4.8.1 (x86_64-linux-gnu)
#	compiled by GNU C version 4.8.1, GMP version 5.1.2, MPFR version 3.1.1-p2, MPC version 1.0.1
# GGC heuristics: --param ggc-min-expand=100 --param ggc-min-heapsize=131072
# options passed:  -imultiarch x86_64-linux-gnu -D SPEC_CPU -D NDEBUG
# -D PERL_CORE -D SPEC_CPU_LP64 -D SPEC_CPU_LINUX_X64 op.c -mtune=generic
# -march=x86-64 -g -fverbose-asm -fno-strict-aliasing -fstack-protector
# -Wformat -Wformat-security
# options enabled:  -faggressive-loop-optimizations
# -fasynchronous-unwind-tables -fauto-inc-dec -fbranch-count-reg -fcommon
# -fdelete-null-pointer-checks -fdwarf2-cfi-asm -fearly-inlining
# -feliminate-unused-debug-types -ffunction-cse -fgcse-lm -fgnu-runtime
# -fident -finline-atomics -fira-hoist-pressure -fira-share-save-slots
# -fira-share-spill-slots -fivopts -fkeep-static-consts
# -fleading-underscore -fmath-errno -fmerge-debug-strings
# -fmove-loop-invariants -fpeephole -fprefetch-loop-arrays
# -freg-struct-return -fsched-critical-path-heuristic
# -fsched-dep-count-heuristic -fsched-group-heuristic -fsched-interblock
# -fsched-last-insn-heuristic -fsched-rank-heuristic -fsched-spec
# -fsched-spec-insn-heuristic -fsched-stalled-insns-dep -fshow-column
# -fsigned-zeros -fsplit-ivs-in-unroller -fstack-protector
# -fstrict-volatile-bitfields -fsync-libcalls -ftrapping-math
# -ftree-coalesce-vars -ftree-cselim -ftree-forwprop -ftree-loop-if-convert
# -ftree-loop-im -ftree-loop-ivcanon -ftree-loop-optimize
# -ftree-parallelize-loops= -ftree-phiprop -ftree-pta -ftree-reassoc
# -ftree-scev-cprop -ftree-slp-vectorize -ftree-vect-loop-version
# -funit-at-a-time -funwind-tables -fverbose-asm -fzero-initialized-in-bss
# -m128bit-long-double -m64 -m80387 -maccumulate-outgoing-args
# -malign-stringops -mfancy-math-387 -mfp-ret-in-387 -mfxsr -mglibc
# -mieee-fp -mlong-double-80 -mmmx -mno-sse4 -mpush-args -mred-zone -msse
# -msse2 -mtls-direct-seg-refs

	.text
.Ltext0:
	.type	S_gv_ename, @function
S_gv_ename:
.LFB2:
	.file 1 "op.c"
	.loc 1 163 0
	.cfi_startproc
	pushq	%rbp	#
	.cfi_def_cfa_offset 16
	.cfi_offset 6, -16
	movq	%rsp, %rbp	#,
	.cfi_def_cfa_register 6
	subq	$32, %rsp	#,
	movq	%rdi, -24(%rbp)	# gv, gv
	.loc 1 165 0
	call	Perl_sv_newmortal	#
	movq	%rax, -8(%rbp)	# tmp67, tmpsv
	.loc 1 166 0
	movq	-24(%rbp), %rsi	# gv, tmp68
	movq	-8(%rbp), %rax	# tmpsv, tmp69
	movl	$1, %ecx	#,
	movl	$0, %edx	#,
	movq	%rax, %rdi	# tmp69,
	call	Perl_gv_efullname4	#
	.loc 1 167 0
	movq	-8(%rbp), %rax	# tmpsv, tmp70
	movl	12(%rax), %eax	# tmpsv_2->sv_flags, D.21437
	andl	$262144, %eax	#, D.21437
	testl	%eax, %eax	# D.21437
	je	.L2	#,
	.loc 1 167 0 is_stmt 0 discriminator 1
	movq	-8(%rbp), %rax	# tmpsv, tmp71
	movq	(%rax), %rax	# tmpsv_2->sv_any, D.21438
	movq	8(%rax), %rax	# MEM[(struct XPV *)_6].xpv_cur, n_a.1
	movq	%rax, -16(%rbp)	# n_a.1, n_a
	movq	-8(%rbp), %rax	# tmpsv, tmp72
	movq	(%rax), %rax	# tmpsv_2->sv_any, D.21438
	movq	(%rax), %rax	# MEM[(struct XPV *)_8].xpv_pv, iftmp.0
	jmp	.L3	#
.L2:
	.loc 1 167 0 discriminator 2
	leaq	-16(%rbp), %rcx	#, tmp73
	movq	-8(%rbp), %rax	# tmpsv, tmp74
	movl	$2, %edx	#,
	movq	%rcx, %rsi	# tmp73,
	movq	%rax, %rdi	# tmp74,
	call	Perl_sv_2pv_flags	#
.L3:
	.loc 1 168 0 is_stmt 1 discriminator 3
	leave
	.cfi_def_cfa 7, 8
	ret
	.cfi_endproc
.LFE2:
	.size	S_gv_ename, .-S_gv_ename
	.section	.rodata
	.align 8
.LC0:
	.string	"Missing comma after first argument to %s function"
	.text
	.type	S_no_fh_allowed, @function
S_no_fh_allowed:
.LFB3:
	.loc 1 172 0
	.cfi_startproc
	pushq	%rbp	#
	.cfi_def_cfa_offset 16
	.cfi_offset 6, -16
	movq	%rsp, %rbp	#,
	.cfi_def_cfa_register 6
	subq	$16, %rsp	#,
	movq	%rdi, -8(%rbp)	# o, o
	.loc 1 174 0
	movq	-8(%rbp), %rax	# o, tmp66
	movzwl	32(%rax), %eax	# o_2(D)->op_type, D.21440
	.loc 1 173 0
	cmpw	$351, %ax	#, D.21440
	jne	.L6	#,
	.loc 1 173 0 is_stmt 0 discriminator 1
	movq	-8(%rbp), %rax	# o, tmp67
	movq	%rax, %rdi	# tmp67,
	call	Perl_custom_op_desc	#
	jmp	.L7	#
.L6:
	.loc 1 174 0 is_stmt 1 discriminator 2
	movq	-8(%rbp), %rax	# o, tmp68
	movzwl	32(%rax), %eax	# o_2(D)->op_type, D.21440
	movzwl	%ax, %eax	# D.21440, D.21441
	.loc 1 173 0 discriminator 2
	cltq
	movq	PL_op_desc(,%rax,8), %rax	# PL_op_desc, iftmp.2
.L7:
	.loc 1 173 0 is_stmt 0 discriminator 3
	movq	%rax, %rsi	# iftmp.2,
	movl	$.LC0, %edi	#,
	movl	$0, %eax	#,
	call	Perl_form	#
	movq	%rax, %rdi	# D.21442,
	call	Perl_yyerror	#
	.loc 1 175 0 is_stmt 1 discriminator 3
	movq	-8(%rbp), %rax	# o, D.21443
	.loc 1 176 0 discriminator 3
	leave
	.cfi_def_cfa 7, 8
	ret
	.cfi_endproc
.LFE3:
	.size	S_no_fh_allowed, .-S_no_fh_allowed
	.section	.rodata
.LC1:
	.string	"Not enough arguments for %s"
	.text
	.type	S_too_few_arguments, @function
S_too_few_arguments:
.LFB4:
	.loc 1 180 0
	.cfi_startproc
	pushq	%rbp	#
	.cfi_def_cfa_offset 16
	.cfi_offset 6, -16
	movq	%rsp, %rbp	#,
	.cfi_def_cfa_register 6
	subq	$16, %rsp	#,
	movq	%rdi, -8(%rbp)	# o, o
	movq	%rsi, -16(%rbp)	# name, name
	.loc 1 181 0
	movq	-16(%rbp), %rax	# name, tmp62
	movq	%rax, %rsi	# tmp62,
	movl	$.LC1, %edi	#,
	movl	$0, %eax	#,
	call	Perl_form	#
	movq	%rax, %rdi	# D.21445,
	call	Perl_yyerror	#
	.loc 1 182 0
	movq	-8(%rbp), %rax	# o, D.21446
	.loc 1 183 0
	leave
	.cfi_def_cfa 7, 8
	ret
	.cfi_endproc
.LFE4:
	.size	S_too_few_arguments, .-S_too_few_arguments
	.section	.rodata
.LC2:
	.string	"Too many arguments for %s"
	.text
	.type	S_too_many_arguments, @function
S_too_many_arguments:
.LFB5:
	.loc 1 187 0
	.cfi_startproc
	pushq	%rbp	#
	.cfi_def_cfa_offset 16
	.cfi_offset 6, -16
	movq	%rsp, %rbp	#,
	.cfi_def_cfa_register 6
	subq	$16, %rsp	#,
	movq	%rdi, -8(%rbp)	# o, o
	movq	%rsi, -16(%rbp)	# name, name
	.loc 1 188 0
	movq	-16(%rbp), %rax	# name, tmp62
	movq	%rax, %rsi	# tmp62,
	movl	$.LC2, %edi	#,
	movl	$0, %eax	#,
	call	Perl_form	#
	movq	%rax, %rdi	# D.21448,
	call	Perl_yyerror	#
	.loc 1 189 0
	movq	-8(%rbp), %rax	# o, D.21449
	.loc 1 190 0
	leave
	.cfi_def_cfa 7, 8
	ret
	.cfi_endproc
.LFE5:
	.size	S_too_many_arguments, .-S_too_many_arguments
	.section	.rodata
	.align 8
.LC3:
	.string	"Type of arg %d to %s must be %s (not %s)"
	.text
	.type	S_bad_type, @function
S_bad_type:
.LFB6:
	.loc 1 194 0
	.cfi_startproc
	pushq	%rbp	#
	.cfi_def_cfa_offset 16
	.cfi_offset 6, -16
	movq	%rsp, %rbp	#,
	.cfi_def_cfa_register 6
	subq	$32, %rsp	#,
	movl	%edi, -4(%rbp)	# n, n
	movq	%rsi, -16(%rbp)	# t, t
	movq	%rdx, -24(%rbp)	# name, name
	movq	%rcx, -32(%rbp)	# kid, kid
	.loc 1 196 0
	movq	-32(%rbp), %rax	# kid, tmp64
	movzwl	32(%rax), %eax	# kid_2(D)->op_type, D.21451
	.loc 1 195 0
	cmpw	$351, %ax	#, D.21451
	jne	.L14	#,
	.loc 1 195 0 is_stmt 0 discriminator 1
	movq	-32(%rbp), %rax	# kid, tmp65
	movq	%rax, %rdi	# tmp65,
	call	Perl_custom_op_desc	#
	jmp	.L15	#
.L14:
	.loc 1 196 0 is_stmt 1 discriminator 2
	movq	-32(%rbp), %rax	# kid, tmp66
	movzwl	32(%rax), %eax	# kid_2(D)->op_type, D.21451
	movzwl	%ax, %eax	# D.21451, D.21452
	.loc 1 195 0 discriminator 2
	cltq
	movq	PL_op_desc(,%rax,8), %rax	# PL_op_desc, iftmp.3
.L15:
	.loc 1 195 0 is_stmt 0 discriminator 3
	movq	-16(%rbp), %rcx	# t, tmp68
	movq	-24(%rbp), %rdx	# name, tmp69
	movl	-4(%rbp), %esi	# n, tmp70
	movq	%rax, %r8	# iftmp.3,
	movl	$.LC3, %edi	#,
	movl	$0, %eax	#,
	call	Perl_form	#
	movq	%rax, %rdi	# D.21453,
	call	Perl_yyerror	#
	.loc 1 197 0 is_stmt 1 discriminator 3
	leave
	.cfi_def_cfa 7, 8
	ret
	.cfi_endproc
.LFE6:
	.size	S_bad_type, .-S_bad_type
	.section	.rodata
	.align 8
.LC4:
	.string	"Bareword \"%_\" not allowed while \"strict subs\" in use"
	.text
	.type	S_no_bareword_allowed, @function
S_no_bareword_allowed:
.LFB7:
	.loc 1 201 0
	.cfi_startproc
	pushq	%rbp	#
	.cfi_def_cfa_offset 16
	.cfi_offset 6, -16
	movq	%rsp, %rbp	#,
	.cfi_def_cfa_register 6
	subq	$16, %rsp	#,
	movq	%rdi, -8(%rbp)	# o, o
	.loc 1 202 0
	movq	-8(%rbp), %rax	# o, tmp61
	movq	40(%rax), %rax	# MEM[(struct SVOP *)o_1(D)].op_sv, D.21455
	movq	%rax, %rsi	# D.21455,
	movl	$.LC4, %edi	#,
	movl	$0, %eax	#,
	call	Perl_mess	#
	movq	%rax, %rdi	# D.21455,
	call	Perl_qerror	#
	.loc 1 205 0
	leave
	.cfi_def_cfa 7, 8
	ret
	.cfi_endproc
.LFE7:
	.size	S_no_bareword_allowed, .-S_no_bareword_allowed
	.section	.rodata
.LC5:
	.string	"\t\n\r\f"
.LC6:
	.string	"Can't use global %s in \"my\""
.LC7:
	.string	"our"
.LC8:
	.string	"my"
	.align 8
.LC9:
	.string	"Can't declare class for non-scalar %s in \"%s\""
	.text
	.globl	Perl_allocmy
	.type	Perl_allocmy, @function
Perl_allocmy:
.LFB8:
	.loc 1 211 0
	.cfi_startproc
	pushq	%rbp	#
	.cfi_def_cfa_offset 16
	.cfi_offset 6, -16
	movq	%rsp, %rbp	#,
	.cfi_def_cfa_register 6
	subq	$32, %rsp	#,
	movq	%rdi, -24(%rbp)	# name, name
	.loc 1 215 0
	movl	PL_in_my(%rip), %eax	# PL_in_my, PL_in_my.4
	cmpl	$137, %eax	#, PL_in_my.4
	je	.L18	#,
	.loc 1 216 0 discriminator 1
	movq	-24(%rbp), %rax	# name, tmp131
	addq	$1, %rax	#, D.21457
	movzbl	(%rax), %eax	# *_10, D.21458
	.loc 1 215 0 discriminator 1
	cmpb	$64, %al	#, D.21458
	jle	.L19	#,
	.loc 1 216 0
	movq	-24(%rbp), %rax	# name, tmp132
	addq	$1, %rax	#, D.21457
	movzbl	(%rax), %eax	# *_12, D.21458
	cmpb	$90, %al	#, D.21458
	jle	.L18	#,
.L19:
	.loc 1 216 0 is_stmt 0 discriminator 1
	movq	-24(%rbp), %rax	# name, tmp133
	addq	$1, %rax	#, D.21457
	movzbl	(%rax), %eax	# *_14, D.21458
	cmpb	$96, %al	#, D.21458
	jle	.L20	#,
	.loc 1 216 0 discriminator 2
	movq	-24(%rbp), %rax	# name, tmp134
	addq	$1, %rax	#, D.21457
	movzbl	(%rax), %eax	# *_16, D.21458
	cmpb	$122, %al	#, D.21458
	jle	.L18	#,
.L20:
	.loc 1 217 0 is_stmt 1 discriminator 1
	movl	PL_hints(%rip), %eax	# PL_hints, PL_hints.5
	andl	$8388608, %eax	#, D.21459
	.loc 1 216 0 discriminator 1
	testl	%eax, %eax	# D.21459
	je	.L21	#,
	.loc 1 217 0
	movq	-24(%rbp), %rax	# name, tmp135
	addq	$1, %rax	#, D.21457
	movzbl	(%rax), %eax	# *_20, D.21458
	cmpb	$-65, %al	#, D.21460
	jbe	.L21	#,
	.loc 1 217 0 is_stmt 0 discriminator 1
	movq	-24(%rbp), %rax	# name, tmp136
	addq	$1, %rax	#, D.21457
	movzbl	(%rax), %eax	# *_23, D.21458
	cmpb	$-3, %al	#, D.21460
	jbe	.L18	#,
.L21:
	.loc 1 218 0 is_stmt 1
	movq	-24(%rbp), %rax	# name, tmp137
	addq	$1, %rax	#, D.21457
	movzbl	(%rax), %eax	# *_26, D.21458
	.loc 1 215 0
	cmpb	$95, %al	#, D.21458
	jne	.L22	#,
	.loc 1 218 0
	movq	-24(%rbp), %rax	# name, tmp138
	movq	%rax, %rdi	# tmp138,
	call	strlen	#
	cmpl	$2, %eax	#, D.21462
	jg	.L18	#,
.L22:
	.loc 1 220 0
	movq	-24(%rbp), %rax	# name, tmp139
	addq	$1, %rax	#, D.21457
	movzbl	(%rax), %eax	# *_30, D.21458
	cmpb	$32, %al	#, D.21458
	jle	.L23	#,
	.loc 1 220 0 is_stmt 0 discriminator 2
	movq	-24(%rbp), %rax	# name, tmp140
	addq	$1, %rax	#, D.21457
	movzbl	(%rax), %eax	# *_32, D.21458
	cmpb	$127, %al	#, D.21458
	jne	.L24	#,
.L23:
	.loc 1 220 0 discriminator 1
	movq	-24(%rbp), %rax	# name, tmp141
	addq	$1, %rax	#, D.21457
	movzbl	(%rax), %eax	# *_34, D.21458
	cmpb	$32, %al	#, D.21458
	jne	.L25	#,
.L24:
	movq	-24(%rbp), %rax	# name, tmp142
	addq	$1, %rax	#, D.21457
	movzbl	(%rax), %eax	# *_36, D.21458
	movsbl	%al, %eax	# D.21458, D.21462
	movl	%eax, %esi	# D.21462,
	movl	$.LC5, %edi	#,
	call	strchr	#
	testq	%rax, %rax	# D.21457
	je	.L26	#,
.L25:
.LBB2:
	.loc 1 223 0 is_stmt 1
	movq	-24(%rbp), %rax	# name, tmp143
	movl	$0, %esi	#,
	movq	%rax, %rdi	# tmp143,
	call	strchr	#
	movq	%rax, -16(%rbp)	# tmp144, p
	.loc 1 226 0
	movq	-16(%rbp), %rdx	# p, p.6
	movq	-24(%rbp), %rax	# name, name.7
	subq	%rax, %rdx	# name.7, D.21463
	movq	%rdx, %rax	# D.21463, D.21463
	cmpq	$200, %rax	#, D.21463
	jle	.L27	#,
	.loc 1 227 0
	movq	-24(%rbp), %rax	# name, tmp145
	addq	$200, %rax	#, D.21457
	movl	$3026478, (%rax)	#, MEM[(void *)_44]
	.loc 1 228 0
	movq	-24(%rbp), %rax	# name, tmp149
	addq	$199, %rax	#, tmp148
	movq	%rax, -16(%rbp)	# tmp148, p
	.loc 1 234 0
	jmp	.L29	#
.L27:
	.loc 1 231 0
	movq	-16(%rbp), %rax	# p, tmp150
	addq	$1, %rax	#, D.21457
	movb	$0, (%rax)	#, *_46
	.loc 1 234 0
	jmp	.L29	#
.L30:
	.loc 1 235 0 discriminator 2
	movq	-16(%rbp), %rax	# p, tmp151
	movzbl	-1(%rax), %edx	# MEM[(char *)p_2 + -1B], D.21458
	movq	-16(%rbp), %rax	# p, tmp152
	movb	%dl, (%rax)	# D.21458, *p_2
	.loc 1 234 0 discriminator 2
	subq	$1, -16(%rbp)	#, p
.L29:
	.loc 1 234 0 is_stmt 0 discriminator 1
	movq	-16(%rbp), %rdx	# p, p.8
	movq	-24(%rbp), %rax	# name, name.9
	subq	%rax, %rdx	# name.9, D.21463
	movq	%rdx, %rax	# D.21463, D.21463
	cmpq	$2, %rax	#, D.21463
	jg	.L30	#,
	.loc 1 236 0 is_stmt 1
	movq	-24(%rbp), %rax	# name, tmp153
	leaq	2(%rax), %rdx	#, D.21457
	movq	-24(%rbp), %rax	# name, tmp154
	addq	$1, %rax	#, D.21457
	movzbl	(%rax), %eax	# *_53, D.21458
	cmpb	$96, %al	#, D.21458
	jle	.L31	#,
	.loc 1 236 0 is_stmt 0 discriminator 1
	movq	-24(%rbp), %rax	# name, tmp155
	addq	$1, %rax	#, D.21457
	movzbl	(%rax), %eax	# *_55, D.21458
	cmpb	$122, %al	#, D.21458
	jg	.L31	#,
	movq	-24(%rbp), %rax	# name, tmp156
	addq	$1, %rax	#, D.21457
	movzbl	(%rax), %eax	# *_57, D.21458
	subl	$32, %eax	#, D.21464
	xorl	$64, %eax	#, iftmp.10
	jmp	.L32	#
.L31:
	.loc 1 236 0 discriminator 2
	movq	-24(%rbp), %rax	# name, tmp157
	addq	$1, %rax	#, D.21457
	movzbl	(%rax), %eax	# *_63, D.21458
	xorl	$64, %eax	#, iftmp.10
.L32:
	.loc 1 236 0 discriminator 3
	movb	%al, (%rdx)	# iftmp.10, *_52
	.loc 1 237 0 is_stmt 1 discriminator 3
	movq	-24(%rbp), %rax	# name, tmp158
	addq	$1, %rax	#, D.21457
	movb	$94, (%rax)	#, *_66
.L26:
.LBE2:
	.loc 1 239 0
	movq	-24(%rbp), %rax	# name, tmp159
	movq	%rax, %rsi	# tmp159,
	movl	$.LC6, %edi	#,
	movl	$0, %eax	#,
	call	Perl_form	#
	movq	%rax, %rdi	# D.21457,
	call	Perl_yyerror	#
.L18:
	.loc 1 244 0
	movq	PL_curstash(%rip), %rax	# PL_curstash, PL_curstash.12
	.loc 1 242 0
	testq	%rax, %rax	# PL_curstash.12
	je	.L33	#,
	.loc 1 242 0 is_stmt 0 discriminator 1
	movq	PL_curstash(%rip), %rax	# PL_curstash, iftmp.11
	jmp	.L34	#
.L33:
	.loc 1 242 0 discriminator 2
	movq	PL_defstash(%rip), %rax	# PL_defstash, iftmp.11
.L34:
	.loc 1 242 0 discriminator 3
	movl	PL_in_my(%rip), %edx	# PL_in_my, PL_in_my.13
	cmpl	$137, %edx	#, PL_in_my.13
	sete	%dl	#, D.21465
	movzbl	%dl, %esi	# D.21465, D.21462
	movq	-24(%rbp), %rcx	# name, tmp160
	movq	%rax, %rdx	# iftmp.11,
	movq	%rcx, %rdi	# tmp160,
	call	Perl_pad_check_dup	#
	.loc 1 247 0 is_stmt 1 discriminator 3
	movq	PL_in_my_stash(%rip), %rax	# PL_in_my_stash, PL_in_my_stash.14
	testq	%rax, %rax	# PL_in_my_stash.14
	je	.L35	#,
	.loc 1 247 0 is_stmt 0 discriminator 1
	movq	-24(%rbp), %rax	# name, tmp161
	movzbl	(%rax), %eax	# *name_9(D), D.21458
	cmpb	$36, %al	#, D.21458
	je	.L35	#,
	.loc 1 250 0 is_stmt 1
	movl	PL_in_my(%rip), %eax	# PL_in_my, PL_in_my.16
	.loc 1 248 0
	cmpl	$137, %eax	#, PL_in_my.16
	jne	.L36	#,
	.loc 1 248 0 is_stmt 0 discriminator 1
	movl	$.LC7, %eax	#, iftmp.15
	jmp	.L37	#
.L36:
	.loc 1 248 0 discriminator 2
	movl	$.LC8, %eax	#, iftmp.15
.L37:
	.loc 1 248 0 discriminator 3
	movq	-24(%rbp), %rcx	# name, tmp162
	movq	%rax, %rdx	# iftmp.15,
	movq	%rcx, %rsi	# tmp162,
	movl	$.LC9, %edi	#,
	movl	$0, %eax	#,
	call	Perl_form	#
	movq	%rax, %rdi	# D.21457,
	call	Perl_yyerror	#
.L35:
	.loc 1 257 0 is_stmt 1
	movl	PL_in_my(%rip), %eax	# PL_in_my, PL_in_my.18
	.loc 1 255 0
	cmpl	$137, %eax	#, PL_in_my.18
	jne	.L38	#,
	.loc 1 258 0
	movq	PL_curstash(%rip), %rax	# PL_curstash, PL_curstash.20
	testq	%rax, %rax	# PL_curstash.20
	je	.L39	#,
	.loc 1 258 0 is_stmt 0 discriminator 1
	movq	PL_curstash(%rip), %rax	# PL_curstash, iftmp.19
	jmp	.L41	#
.L39:
	.loc 1 258 0 discriminator 2
	movq	PL_defstash(%rip), %rax	# PL_defstash, iftmp.19
	jmp	.L41	#
.L38:
	.loc 1 255 0 is_stmt 1 discriminator 1
	movl	$0, %eax	#, iftmp.17
.L41:
	.loc 1 255 0 is_stmt 0 discriminator 2
	movq	PL_in_my_stash(%rip), %rsi	# PL_in_my_stash, PL_in_my_stash.21
	movq	-24(%rbp), %rdi	# name, tmp163
	movl	$0, %ecx	#,
	movq	%rax, %rdx	# iftmp.17,
	call	Perl_pad_add_name	#
	movq	%rax, -8(%rbp)	# tmp164, off
	.loc 1 263 0 is_stmt 1 discriminator 2
	movq	-8(%rbp), %rax	# off, D.21466
	.loc 1 264 0 discriminator 2
	leave
	.cfi_def_cfa 7, 8
	ret
	.cfi_endproc
.LFE8:
	.size	Perl_allocmy, .-Perl_allocmy
	.globl	Perl_op_free
	.type	Perl_op_free, @function
Perl_op_free:
.LFB9:
	.loc 1 338 0
	.cfi_startproc
	pushq	%rbp	#
	.cfi_def_cfa_offset 16
	.cfi_offset 6, -16
	movq	%rsp, %rbp	#,
	.cfi_def_cfa_register 6
	pushq	%r12	#
	pushq	%rbx	#
	subq	$32, %rsp	#,
	.cfi_offset 12, -24
	.cfi_offset 3, -32
	movq	%rdi, -40(%rbp)	# o, o
	.loc 1 343 0
	cmpq	$0, -40(%rbp)	#, o
	je	.L44	#,
	.loc 1 343 0 is_stmt 0 discriminator 1
	movq	-40(%rbp), %rax	# o, tmp73
	movzwl	34(%rax), %eax	# o_3(D)->op_seq, D.21472
	cmpw	$-1, %ax	#, D.21472
	jne	.L45	#,
.L44:
	.loc 1 344 0 is_stmt 1
	jmp	.L43	#
.L45:
	.loc 1 346 0
	movq	-40(%rbp), %rax	# o, tmp74
	movzbl	37(%rax), %eax	# o_3(D)->op_private, D.21473
	movzbl	%al, %eax	# D.21473, D.21474
	andl	$64, %eax	#, D.21474
	testl	%eax, %eax	# D.21474
	je	.L47	#,
	.loc 1 347 0
	movq	-40(%rbp), %rax	# o, tmp75
	movzwl	32(%rax), %eax	# o_3(D)->op_type, D.21472
	movzwl	%ax, %eax	# D.21472, D.21474
	cmpl	$179, %eax	#, D.21474
	jg	.L49	#,
	cmpl	$178, %eax	#, D.21474
	jge	.L50	#,
	subl	$167, %eax	#, tmp76
	cmpl	$1, %eax	#, tmp76
	ja	.L58	#,
	jmp	.L50	#
.L49:
	cmpl	$207, %eax	#, D.21474
	je	.L50	#,
	cmpl	$312, %eax	#, D.21474
	je	.L50	#,
	.loc 1 361 0
	jmp	.L58	#
.L50:
	.loc 1 355 0
	movq	-40(%rbp), %rax	# o, tmp77
	movq	24(%rax), %rax	# o_3(D)->op_targ, D.21475
	leaq	-1(%rax), %rdx	#, D.21475
	movq	-40(%rbp), %rax	# o, tmp78
	movq	%rdx, 24(%rax)	# D.21475, o_3(D)->op_targ
	movq	-40(%rbp), %rax	# o, tmp79
	movq	24(%rax), %rax	# o_3(D)->op_targ, tmp80
	movq	%rax, -24(%rbp)	# tmp80, refcnt
	.loc 1 357 0
	cmpq	$0, -24(%rbp)	#, refcnt
	je	.L51	#,
	.loc 1 358 0
	jmp	.L43	#
.L51:
	.loc 1 359 0
	jmp	.L47	#
.L58:
	.loc 1 361 0
	nop
.L47:
	.loc 1 365 0
	movq	-40(%rbp), %rax	# o, tmp81
	movzbl	36(%rax), %eax	# o_3(D)->op_flags, D.21473
	movzbl	%al, %eax	# D.21473, D.21474
	andl	$4, %eax	#, D.21474
	testl	%eax, %eax	# D.21474
	je	.L52	#,
	.loc 1 366 0
	movq	-40(%rbp), %rax	# o, tmp82
	movq	40(%rax), %rbx	# MEM[(struct UNOP *)o_3(D)].op_first, kid
	jmp	.L53	#
.L54:
	.loc 1 367 0 discriminator 2
	movq	8(%rbx), %r12	# kid_1->op_sibling, nextkid
	.loc 1 368 0 discriminator 2
	movq	%rbx, %rdi	# kid,
	call	Perl_op_free	#
	.loc 1 366 0 discriminator 2
	movq	%r12, %rbx	# nextkid, kid
.L53:
	.loc 1 366 0 is_stmt 0 discriminator 1
	testq	%rbx, %rbx	# kid
	jne	.L54	#,
.L52:
	.loc 1 371 0 is_stmt 1
	movq	-40(%rbp), %rax	# o, tmp83
	movzwl	32(%rax), %eax	# o_3(D)->op_type, tmp84
	movw	%ax, -26(%rbp)	# tmp84, type
	.loc 1 372 0
	cmpw	$0, -26(%rbp)	#, type
	jne	.L55	#,
	.loc 1 373 0
	movq	-40(%rbp), %rax	# o, tmp85
	movq	24(%rax), %rax	# o_3(D)->op_targ, D.21475
	movw	%ax, -26(%rbp)	# D.21475, type
.L55:
	.loc 1 377 0
	cmpw	$174, -26(%rbp)	#, type
	je	.L56	#,
	.loc 1 377 0 is_stmt 0 discriminator 1
	cmpw	$349, -26(%rbp)	#, type
	je	.L56	#,
	cmpw	$175, -26(%rbp)	#, type
	jne	.L57	#,
.L56:
	.loc 1 378 0 is_stmt 1
	movq	-40(%rbp), %rax	# o, tmp86
	movq	%rax, %rdi	# tmp86,
	call	S_cop_free	#
.L57:
	.loc 1 380 0
	movq	-40(%rbp), %rax	# o, tmp87
	movq	%rax, %rdi	# tmp87,
	call	Perl_op_clear	#
	.loc 1 381 0
	movq	-40(%rbp), %rax	# o, tmp88
	movq	%rax, %rdi	# tmp88,
	call	Perl_safesysfree	#
.L43:
	.loc 1 382 0
	addq	$32, %rsp	#,
	popq	%rbx	#
	popq	%r12	#
	popq	%rbp	#
	.cfi_def_cfa 7, 8
	ret
	.cfi_endproc
.LFE9:
	.size	Perl_op_free, .-Perl_op_free
	.globl	Perl_op_clear
	.type	Perl_op_clear, @function
Perl_op_clear:
.LFB10:
	.loc 1 386 0
	.cfi_startproc
	pushq	%rbp	#
	.cfi_def_cfa_offset 16
	.cfi_offset 6, -16
	movq	%rsp, %rbp	#,
	.cfi_def_cfa_register 6
	subq	$48, %rsp	#,
	movq	%rdi, -40(%rbp)	# o, o
	.loc 1 388 0
	movq	-40(%rbp), %rax	# o, tmp91
	movzwl	32(%rax), %eax	# o_3(D)->op_type, D.21477
	movzwl	%ax, %eax	# D.21477, D.21478
	cmpl	$33, %eax	#, D.21478
	je	.L61	#,
	cmpl	$33, %eax	#, D.21478
	jg	.L62	#,
	cmpl	$7, %eax	#, D.21478
	jg	.L63	#,
	cmpl	$6, %eax	#, D.21478
	jge	.L64	#,
	testl	%eax, %eax	# D.21478
	je	.L65	#,
	cmpl	$5, %eax	#, D.21478
	je	.L66	#,
	jmp	.L60	#
.L63:
	cmpl	$13, %eax	#, D.21478
	je	.L67	#,
	cmpl	$13, %eax	#, D.21478
	jl	.L60	#,
	cmpl	$31, %eax	#, D.21478
	jl	.L60	#,
	jmp	.L68	#
.L62:
	cmpl	$187, %eax	#, D.21478
	jg	.L69	#,
	cmpl	$185, %eax	#, D.21478
	jge	.L70	#,
	cmpl	$35, %eax	#, D.21478
	je	.L71	#,
	cmpl	$126, %eax	#, D.21478
	je	.L64	#,
	jmp	.L60	#
.L69:
	cmpl	$311, %eax	#, D.21478
	je	.L65	#,
	cmpl	$350, %eax	#, D.21478
	je	.L66	#,
	cmpl	$189, %eax	#, D.21478
	je	.L70	#,
	jmp	.L60	#
.L65:
	.loc 1 394 0
	movq	-40(%rbp), %rax	# o, tmp92
	movq	$0, 24(%rax)	#, o_3(D)->op_targ
	.loc 1 395 0
	jmp	.L72	#
.L60:
	.loc 1 403 0
	movq	-40(%rbp), %rax	# o, tmp93
	movzbl	36(%rax), %eax	# o_3(D)->op_flags, D.21479
	movzbl	%al, %eax	# D.21479, D.21478
	andl	$16, %eax	#, D.21478
	testl	%eax, %eax	# D.21478
	je	.L72	#,
	.loc 1 404 0
	movq	-40(%rbp), %rax	# o, tmp94
	movzwl	32(%rax), %eax	# o_3(D)->op_type, D.21477
	movzwl	%ax, %eax	# D.21477, D.21478
	cltq
	movq	PL_check(,%rax,8), %rax	# PL_check, D.21480
	cmpq	$Perl_ck_ftst, %rax	#, D.21480
	jne	.L72	#,
.L64:
	.loc 1 410 0
	movq	-40(%rbp), %rax	# o, tmp96
	movzwl	32(%rax), %eax	# o_3(D)->op_type, D.21477
	cmpw	$126, %ax	#, D.21477
	jne	.L73	#,
	.loc 1 410 0 is_stmt 0 discriminator 1
	movq	-40(%rbp), %rax	# o, tmp97
	movzbl	36(%rax), %eax	# o_3(D)->op_flags, D.21479
	testb	%al, %al	# D.21481
	js	.L74	#,
.L73:
	.loc 1 420 0 is_stmt 1
	movq	-40(%rbp), %rax	# o, tmp98
	movq	40(%rax), %rax	# MEM[(struct SVOP *)o_3(D)].op_sv, D.21482
	movq	%rax, %rdi	# D.21482,
	call	Perl_sv_free	#
	.loc 1 421 0
	movq	-40(%rbp), %rax	# o, tmp99
	movq	$0, 40(%rax)	#, MEM[(struct SVOP *)o_3(D)].op_sv
	.loc 1 424 0
	jmp	.L72	#
.L74:
	jmp	.L72	#
.L66:
	.loc 1 427 0
	movq	-40(%rbp), %rax	# o, tmp100
	movq	40(%rax), %rax	# MEM[(struct SVOP *)o_3(D)].op_sv, D.21482
	movq	%rax, %rdi	# D.21482,
	call	Perl_sv_free	#
	.loc 1 428 0
	movq	-40(%rbp), %rax	# o, tmp101
	movq	$0, 40(%rax)	#, MEM[(struct SVOP *)o_3(D)].op_sv
	.loc 1 441 0
	jmp	.L72	#
.L70:
	.loc 1 446 0
	movq	-40(%rbp), %rax	# o, tmp102
	movzbl	36(%rax), %eax	# o_3(D)->op_flags, D.21479
	movzbl	%al, %eax	# D.21479, D.21478
	andl	$196, %eax	#, D.21478
	testl	%eax, %eax	# D.21478
	je	.L71	#,
	.loc 1 447 0
	jmp	.L72	#
.L71:
	.loc 1 450 0
	movq	-40(%rbp), %rax	# o, tmp103
	movzbl	37(%rax), %eax	# o_3(D)->op_private, D.21479
	movzbl	%al, %eax	# D.21479, D.21478
	andl	$3, %eax	#, D.21478
	testl	%eax, %eax	# D.21478
	je	.L75	#,
	.loc 1 451 0
	movq	-40(%rbp), %rax	# o, tmp104
	movq	40(%rax), %rax	# MEM[(struct SVOP *)o_3(D)].op_sv, D.21482
	movq	%rax, %rdi	# D.21482,
	call	Perl_sv_free	#
	.loc 1 452 0
	movq	-40(%rbp), %rax	# o, tmp105
	movq	$0, 40(%rax)	#, MEM[(struct SVOP *)o_3(D)].op_sv
	.loc 1 458 0
	jmp	.L72	#
.L75:
	.loc 1 455 0
	movq	-40(%rbp), %rax	# o, tmp106
	movq	40(%rax), %rax	# MEM[(struct PVOP *)o_3(D)].op_pv, D.21483
	movq	%rax, %rdi	# D.21483,
	call	Perl_safesysfree	#
	.loc 1 456 0
	movq	-40(%rbp), %rax	# o, tmp107
	movq	$0, 40(%rax)	#, MEM[(struct PVOP *)o_3(D)].op_pv
	.loc 1 458 0
	jmp	.L72	#
.L61:
	.loc 1 460 0
	movq	-40(%rbp), %rax	# o, tmp108
	movq	56(%rax), %rax	# MEM[(struct PMOP *)o_3(D)].op_pmreplroot, D.21484
	movq	%rax, %rdi	# D.21484,
	call	Perl_op_free	#
	.loc 1 461 0
	jmp	.L68	#
.L67:
	.loc 1 470 0
	movq	-40(%rbp), %rax	# o, tmp109
	movq	56(%rax), %rax	# MEM[(struct PMOP *)o_3(D)].op_pmreplroot, D.21484
	movq	%rax, %rdi	# D.21484,
	call	Perl_sv_free	#
.L68:
.LBB3:
	.loc 1 477 0
	movq	-40(%rbp), %rax	# o, tmp110
	movq	104(%rax), %rax	# MEM[(struct PMOP *)o_3(D)].op_pmstash, tmp111
	movq	%rax, -8(%rbp)	# tmp111, pmstash
	.loc 1 478 0
	cmpq	$0, -8(%rbp)	#, pmstash
	je	.L77	#,
	.loc 1 478 0 is_stmt 0 discriminator 1
	movq	-8(%rbp), %rax	# pmstash, tmp112
	movl	8(%rax), %eax	# pmstash_27->sv_refcnt, D.21485
	testl	%eax, %eax	# D.21485
	je	.L77	#,
.LBB4:
	.loc 1 479 0 is_stmt 1
	movq	-8(%rbp), %rax	# pmstash, tmp113
	movq	(%rax), %rax	# pmstash_27->sv_any, D.21486
	movq	72(%rax), %rax	# _29->xhv_pmroot, tmp114
	movq	%rax, -24(%rbp)	# tmp114, pmop
	.loc 1 480 0
	movq	$0, -16(%rbp)	#, lastpmop
	.loc 1 481 0
	jmp	.L78	#
.L82:
	.loc 1 482 0
	movq	-40(%rbp), %rax	# o, tmp115
	cmpq	-24(%rbp), %rax	# pmop, tmp115
	jne	.L79	#,
	.loc 1 483 0
	cmpq	$0, -16(%rbp)	#, lastpmop
	je	.L80	#,
	.loc 1 484 0
	movq	-24(%rbp), %rax	# pmop, tmp116
	movq	72(%rax), %rdx	# pmop_1->op_pmnext, D.21487
	movq	-16(%rbp), %rax	# lastpmop, tmp117
	movq	%rdx, 72(%rax)	# D.21487, lastpmop_2->op_pmnext
	.loc 1 487 0
	jmp	.L77	#
.L80:
	.loc 1 486 0
	movq	-8(%rbp), %rax	# pmstash, tmp118
	movq	(%rax), %rax	# pmstash_27->sv_any, D.21486
	movq	-24(%rbp), %rdx	# pmop, tmp119
	movq	72(%rdx), %rdx	# pmop_1->op_pmnext, D.21487
	movq	%rdx, 72(%rax)	# D.21487, _33->xhv_pmroot
	.loc 1 487 0
	jmp	.L77	#
.L79:
	.loc 1 489 0
	movq	-24(%rbp), %rax	# pmop, tmp120
	movq	%rax, -16(%rbp)	# tmp120, lastpmop
	.loc 1 490 0
	movq	-24(%rbp), %rax	# pmop, tmp121
	movq	72(%rax), %rax	# pmop_1->op_pmnext, tmp122
	movq	%rax, -24(%rbp)	# tmp122, pmop
.L78:
	.loc 1 481 0 discriminator 1
	cmpq	$0, -24(%rbp)	#, pmop
	jne	.L82	#,
.L77:
.LBE4:
.LBE3:
	.loc 1 495 0
	movq	-40(%rbp), %rax	# o, tmp123
	movq	$0, 56(%rax)	#, MEM[(struct PMOP *)o_3(D)].op_pmreplroot
	.loc 1 502 0
	movq	PL_regfree(%rip), %rax	# PL_regfree, PL_regfree.22
	movq	-40(%rbp), %rdx	# o, tmp124
	movq	80(%rdx), %rdx	# MEM[(struct PMOP *)o_3(D)].op_pmregexp, D.21488
	movq	%rdx, %rdi	# D.21488,
	call	*%rax	# PL_regfree.22
	.loc 1 503 0
	movq	-40(%rbp), %rax	# o, tmp125
	movq	$0, 80(%rax)	#, MEM[(struct PMOP *)o_3(D)].op_pmregexp
	.loc 1 512 0
	nop
.L72:
	.loc 1 515 0
	movq	-40(%rbp), %rax	# o, tmp126
	movq	24(%rax), %rax	# o_3(D)->op_targ, D.21489
	testq	%rax, %rax	# D.21489
	je	.L59	#,
	.loc 1 516 0
	movq	-40(%rbp), %rax	# o, tmp127
	movq	24(%rax), %rax	# o_3(D)->op_targ, D.21489
	movq	%rax, %rdi	# D.21489,
	call	Perl_pad_free	#
	.loc 1 517 0
	movq	-40(%rbp), %rax	# o, tmp128
	movq	$0, 24(%rax)	#, o_3(D)->op_targ
.L59:
	.loc 1 519 0
	leave
	.cfi_def_cfa 7, 8
	ret
	.cfi_endproc
.LFE10:
	.size	Perl_op_clear, .-Perl_op_clear
	.type	S_cop_free, @function
S_cop_free:
.LFB11:
	.loc 1 523 0
	.cfi_startproc
	pushq	%rbp	#
	.cfi_def_cfa_offset 16
	.cfi_offset 6, -16
	movq	%rsp, %rbp	#,
	.cfi_def_cfa_register 6
	subq	$16, %rsp	#,
	movq	%rdi, -8(%rbp)	# cop, cop
	.loc 1 524 0
	movq	-8(%rbp), %rax	# cop, tmp67
	movq	40(%rax), %rax	# cop_1(D)->cop_label, D.21493
	movq	%rax, %rdi	# D.21493,
	call	Perl_safesysfree	#
	.loc 1 525 0
	movq	-8(%rbp), %rax	# cop, tmp68
	movq	56(%rax), %rax	# cop_1(D)->cop_filegv, D.21494
	movq	%rax, %rdi	# D.21494,
	call	Perl_sv_free	#
	movq	-8(%rbp), %rax	# cop, tmp69
	movq	$0, 56(%rax)	#, cop_1(D)->cop_filegv
	.loc 1 527 0
	movq	-8(%rbp), %rax	# cop, tmp70
	movq	80(%rax), %rax	# cop_1(D)->cop_warnings, D.21495
	testq	%rax, %rax	# D.21495
	je	.L85	#,
	.loc 1 527 0 is_stmt 0 discriminator 1
	movq	-8(%rbp), %rax	# cop, tmp71
	movq	80(%rax), %rax	# cop_1(D)->cop_warnings, D.21495
	cmpq	$16, %rax	#, D.21495
	je	.L85	#,
	movq	-8(%rbp), %rax	# cop, tmp72
	movq	80(%rax), %rax	# cop_1(D)->cop_warnings, D.21495
	cmpq	$32, %rax	#, D.21495
	je	.L85	#,
	.loc 1 528 0 is_stmt 1
	movq	-8(%rbp), %rax	# cop, tmp73
	movq	80(%rax), %rax	# cop_1(D)->cop_warnings, D.21495
	movq	%rax, %rdi	# D.21495,
	call	Perl_sv_free	#
.L85:
	.loc 1 529 0
	movq	-8(%rbp), %rax	# cop, tmp74
	movq	88(%rax), %rax	# cop_1(D)->cop_io, D.21495
	testq	%rax, %rax	# D.21495
	je	.L84	#,
	.loc 1 537 0
	movq	-8(%rbp), %rax	# cop, tmp75
	movq	88(%rax), %rax	# cop_1(D)->cop_io, D.21495
	movq	%rax, %rdi	# D.21495,
	call	Perl_sv_free	#
.L84:
	.loc 1 540 0
	leave
	.cfi_def_cfa 7, 8
	ret
	.cfi_endproc
.LFE11:
	.size	S_cop_free, .-S_cop_free
	.globl	Perl_op_null
	.type	Perl_op_null, @function
Perl_op_null:
.LFB12:
	.loc 1 544 0
	.cfi_startproc
	pushq	%rbp	#
	.cfi_def_cfa_offset 16
	.cfi_offset 6, -16
	movq	%rsp, %rbp	#,
	.cfi_def_cfa_register 6
	subq	$16, %rsp	#,
	movq	%rdi, -8(%rbp)	# o, o
	.loc 1 545 0
	movq	-8(%rbp), %rax	# o, tmp63
	movzwl	32(%rax), %eax	# o_1(D)->op_type, D.21496
	testw	%ax, %ax	# D.21496
	jne	.L88	#,
	.loc 1 546 0
	jmp	.L87	#
.L88:
	.loc 1 547 0
	movq	-8(%rbp), %rax	# o, tmp64
	movq	%rax, %rdi	# tmp64,
	call	Perl_op_clear	#
	.loc 1 548 0
	movq	-8(%rbp), %rax	# o, tmp65
	movzwl	32(%rax), %eax	# o_1(D)->op_type, D.21496
	movzwl	%ax, %edx	# D.21496, D.21497
	movq	-8(%rbp), %rax	# o, tmp66
	movq	%rdx, 24(%rax)	# D.21497, o_1(D)->op_targ
	.loc 1 549 0
	movq	-8(%rbp), %rax	# o, tmp67
	movw	$0, 32(%rax)	#, o_1(D)->op_type
	.loc 1 550 0
	movq	PL_ppaddr(%rip), %rdx	# PL_ppaddr, D.21498
	movq	-8(%rbp), %rax	# o, tmp68
	movq	%rdx, 16(%rax)	# D.21498, o_1(D)->op_ppaddr
.L87:
	.loc 1 551 0
	leave
	.cfi_def_cfa 7, 8
	ret
	.cfi_endproc
.LFE12:
	.size	Perl_op_null, .-Perl_op_null
	.globl	Perl_op_refcnt_lock
	.type	Perl_op_refcnt_lock, @function
Perl_op_refcnt_lock:
.LFB13:
	.loc 1 555 0
	.cfi_startproc
	pushq	%rbp	#
	.cfi_def_cfa_offset 16
	.cfi_offset 6, -16
	movq	%rsp, %rbp	#,
	.cfi_def_cfa_register 6
	.loc 1 557 0
	popq	%rbp	#
	.cfi_def_cfa 7, 8
	ret
	.cfi_endproc
.LFE13:
	.size	Perl_op_refcnt_lock, .-Perl_op_refcnt_lock
	.globl	Perl_op_refcnt_unlock
	.type	Perl_op_refcnt_unlock, @function
Perl_op_refcnt_unlock:
.LFB14:
	.loc 1 561 0
	.cfi_startproc
	pushq	%rbp	#
	.cfi_def_cfa_offset 16
	.cfi_offset 6, -16
	movq	%rsp, %rbp	#,
	.cfi_def_cfa_register 6
	.loc 1 563 0
	popq	%rbp	#
	.cfi_def_cfa 7, 8
	ret
	.cfi_endproc
.LFE14:
	.size	Perl_op_refcnt_unlock, .-Perl_op_refcnt_unlock
	.globl	Perl_linklist
	.type	Perl_linklist, @function
Perl_linklist:
.LFB15:
	.loc 1 571 0
	.cfi_startproc
	pushq	%rbp	#
	.cfi_def_cfa_offset 16
	.cfi_offset 6, -16
	movq	%rsp, %rbp	#,
	.cfi_def_cfa_register 6
	pushq	%rbx	#
	subq	$24, %rsp	#,
	.cfi_offset 3, -24
	movq	%rdi, -24(%rbp)	# o, o
	.loc 1 574 0
	movq	-24(%rbp), %rax	# o, tmp75
	movq	(%rax), %rax	# o_5(D)->op_next, D.21499
	testq	%rax, %rax	# D.21499
	je	.L93	#,
	.loc 1 575 0
	movq	-24(%rbp), %rax	# o, tmp76
	movq	(%rax), %rax	# o_5(D)->op_next, D.21499
	jmp	.L94	#
.L93:
	.loc 1 578 0
	movq	-24(%rbp), %rax	# o, tmp77
	movq	40(%rax), %rax	# MEM[(struct UNOP *)o_5(D)].op_first, D.21499
	testq	%rax, %rax	# D.21499
	je	.L95	#,
	.loc 1 579 0
	movq	-24(%rbp), %rax	# o, tmp78
	movq	40(%rax), %rax	# MEM[(struct UNOP *)o_5(D)].op_first, D.21499
	movq	(%rax), %rax	# _9->op_next, D.21499
	testq	%rax, %rax	# D.21499
	je	.L96	#,
	.loc 1 579 0 is_stmt 0 discriminator 1
	movq	-24(%rbp), %rax	# o, tmp79
	movq	40(%rax), %rax	# MEM[(struct UNOP *)o_5(D)].op_first, D.21499
	movq	(%rax), %rax	# _11->op_next, iftmp.23
	jmp	.L97	#
.L96:
	.loc 1 579 0 discriminator 2
	movq	-24(%rbp), %rax	# o, tmp80
	movq	40(%rax), %rax	# MEM[(struct UNOP *)o_5(D)].op_first, D.21499
	movq	%rax, %rdi	# D.21499,
	call	Perl_linklist	#
.L97:
	.loc 1 579 0 discriminator 3
	movq	-24(%rbp), %rdx	# o, tmp81
	movq	%rax, (%rdx)	# iftmp.23, o_5(D)->op_next
	.loc 1 580 0 is_stmt 1 discriminator 3
	movq	-24(%rbp), %rax	# o, tmp82
	movq	40(%rax), %rbx	# MEM[(struct UNOP *)o_5(D)].op_first, kid
	jmp	.L98	#
.L103:
	.loc 1 581 0
	movq	8(%rbx), %rax	# kid_1->op_sibling, D.21499
	testq	%rax, %rax	# D.21499
	je	.L99	#,
	.loc 1 582 0
	movq	8(%rbx), %rax	# kid_1->op_sibling, D.21499
	movq	(%rax), %rax	# _17->op_next, D.21499
	testq	%rax, %rax	# D.21499
	je	.L100	#,
	.loc 1 582 0 is_stmt 0 discriminator 1
	movq	8(%rbx), %rax	# kid_1->op_sibling, D.21499
	movq	(%rax), %rax	# _19->op_next, iftmp.24
	jmp	.L101	#
.L100:
	.loc 1 582 0 discriminator 2
	movq	8(%rbx), %rax	# kid_1->op_sibling, D.21499
	movq	%rax, %rdi	# D.21499,
	call	Perl_linklist	#
.L101:
	.loc 1 582 0 discriminator 1
	movq	%rax, (%rbx)	# iftmp.24, kid_1->op_next
	jmp	.L102	#
.L99:
	.loc 1 584 0 is_stmt 1
	movq	-24(%rbp), %rax	# o, tmp83
	movq	%rax, (%rbx)	# tmp83, kid_1->op_next
.L102:
	.loc 1 580 0
	movq	8(%rbx), %rbx	# kid_1->op_sibling, kid
.L98:
	.loc 1 580 0 is_stmt 0 discriminator 1
	testq	%rbx, %rbx	# kid
	jne	.L103	#,
	jmp	.L104	#
.L95:
	.loc 1 588 0 is_stmt 1
	movq	-24(%rbp), %rax	# o, tmp84
	movq	-24(%rbp), %rdx	# o, tmp85
	movq	%rdx, (%rax)	# tmp85, o_5(D)->op_next
.L104:
	.loc 1 590 0
	movq	-24(%rbp), %rax	# o, tmp86
	movq	(%rax), %rax	# o_5(D)->op_next, D.21499
.L94:
	.loc 1 591 0
	addq	$24, %rsp	#,
	popq	%rbx	#
	popq	%rbp	#
	.cfi_def_cfa 7, 8
	ret
	.cfi_endproc
.LFE15:
	.size	Perl_linklist, .-Perl_linklist
	.globl	Perl_scalarkids
	.type	Perl_scalarkids, @function
Perl_scalarkids:
.LFB16:
	.loc 1 595 0
	.cfi_startproc
	pushq	%rbp	#
	.cfi_def_cfa_offset 16
	.cfi_offset 6, -16
	movq	%rsp, %rbp	#,
	.cfi_def_cfa_register 6
	subq	$32, %rsp	#,
	movq	%rdi, -24(%rbp)	# o, o
	.loc 1 597 0
	cmpq	$0, -24(%rbp)	#, o
	je	.L106	#,
	.loc 1 597 0 is_stmt 0 discriminator 1
	movq	-24(%rbp), %rax	# o, tmp64
	movzbl	36(%rax), %eax	# o_2(D)->op_flags, D.21500
	movzbl	%al, %eax	# D.21500, D.21501
	andl	$4, %eax	#, D.21501
	testl	%eax, %eax	# D.21501
	je	.L106	#,
	.loc 1 598 0 is_stmt 1
	movq	-24(%rbp), %rax	# o, tmp65
	movq	40(%rax), %rax	# MEM[(struct LISTOP *)o_2(D)].op_first, tmp66
	movq	%rax, -8(%rbp)	# tmp66, kid
	jmp	.L107	#
.L108:
	.loc 1 599 0 discriminator 2
	movq	-8(%rbp), %rax	# kid, tmp67
	movq	%rax, %rdi	# tmp67,
	call	Perl_scalar	#
	.loc 1 598 0 discriminator 2
	movq	-8(%rbp), %rax	# kid, tmp68
	movq	8(%rax), %rax	# kid_1->op_sibling, tmp69
	movq	%rax, -8(%rbp)	# tmp69, kid
.L107:
	.loc 1 598 0 is_stmt 0 discriminator 1
	cmpq	$0, -8(%rbp)	#, kid
	jne	.L108	#,
.L106:
	.loc 1 601 0 is_stmt 1
	movq	-24(%rbp), %rax	# o, D.21502
	.loc 1 602 0
	leave
	.cfi_def_cfa 7, 8
	ret
	.cfi_endproc
.LFE16:
	.size	Perl_scalarkids, .-Perl_scalarkids
	.section	.rodata
	.align 8
.LC10:
	.string	"Found = in conditional, should be =="
	.text
	.type	S_scalarboolean, @function
S_scalarboolean:
.LFB17:
	.loc 1 606 0
	.cfi_startproc
	pushq	%rbp	#
	.cfi_def_cfa_offset 16
	.cfi_offset 6, -16
	movq	%rsp, %rbp	#,
	.cfi_def_cfa_register 6
	subq	$32, %rsp	#,
	movq	%rdi, -24(%rbp)	# o, o
	.loc 1 607 0
	movq	-24(%rbp), %rax	# o, tmp88
	movzwl	32(%rax), %eax	# o_1(D)->op_type, D.21503
	cmpw	$36, %ax	#, D.21503
	jne	.L111	#,
	.loc 1 607 0 is_stmt 0 discriminator 1
	movq	-24(%rbp), %rax	# o, tmp89
	movq	40(%rax), %rax	# MEM[(struct BINOP *)o_1(D)].op_first, D.21504
	movzwl	32(%rax), %eax	# _3->op_type, D.21503
	cmpw	$5, %ax	#, D.21503
	jne	.L111	#,
	.loc 1 608 0 is_stmt 1
	movq	PL_curcop(%rip), %rax	# PL_curcop, PL_curcop.25
	movq	80(%rax), %rax	# PL_curcop.25_5->cop_warnings, D.21505
	testq	%rax, %rax	# D.21505
	je	.L112	#,
	.loc 1 608 0 is_stmt 0 discriminator 1
	movq	PL_curcop(%rip), %rax	# PL_curcop, PL_curcop.26
	movq	80(%rax), %rax	# PL_curcop.26_7->cop_warnings, D.21505
	cmpq	$32, %rax	#, D.21505
	je	.L112	#,
	movq	PL_curcop(%rip), %rax	# PL_curcop, PL_curcop.27
	movq	80(%rax), %rax	# PL_curcop.27_9->cop_warnings, D.21505
	cmpq	$16, %rax	#, D.21505
	je	.L113	#,
	movq	PL_curcop(%rip), %rax	# PL_curcop, PL_curcop.28
	movq	80(%rax), %rax	# PL_curcop.28_11->cop_warnings, D.21505
	movq	(%rax), %rax	# _12->sv_any, D.21506
	movq	(%rax), %rax	# MEM[(struct XPV *)_13].xpv_pv, D.21507
	addq	$7, %rax	#, D.21507
	movzbl	(%rax), %eax	# *_15, D.21508
	movsbl	%al, %eax	# D.21508, D.21509
	andl	$1, %eax	#, D.21509
	testl	%eax, %eax	# D.21509
	jne	.L113	#,
.L112:
	.loc 1 608 0 discriminator 2
	movq	PL_curcop(%rip), %rax	# PL_curcop, PL_curcop.29
	movq	80(%rax), %rax	# PL_curcop.29_19->cop_warnings, D.21505
	testq	%rax, %rax	# D.21505
	jne	.L111	#,
	.loc 1 608 0 discriminator 1
	movzbl	PL_dowarn(%rip), %eax	# PL_dowarn, PL_dowarn.30
	movzbl	%al, %eax	# PL_dowarn.30, D.21509
	andl	$1, %eax	#, D.21509
	testl	%eax, %eax	# D.21509
	je	.L111	#,
.L113:
.LBB5:
	.loc 1 609 0 is_stmt 1
	movq	PL_curcop(%rip), %rax	# PL_curcop, PL_curcop.31
	movl	72(%rax), %eax	# PL_curcop.31_24->cop_line, tmp90
	movl	%eax, -4(%rbp)	# tmp90, oldline
	.loc 1 611 0
	movl	PL_copline(%rip), %eax	# PL_copline, PL_copline.32
	cmpl	$-1, %eax	#, PL_copline.32
	je	.L114	#,
	.loc 1 612 0
	movq	PL_curcop(%rip), %rax	# PL_curcop, PL_curcop.33
	movl	PL_copline(%rip), %edx	# PL_copline, PL_copline.34
	movl	%edx, 72(%rax)	# PL_copline.34, PL_curcop.33_27->cop_line
.L114:
	.loc 1 613 0
	movl	$.LC10, %esi	#,
	movl	$28, %edi	#,
	movl	$0, %eax	#,
	call	Perl_warner	#
	.loc 1 614 0
	movq	PL_curcop(%rip), %rax	# PL_curcop, PL_curcop.35
	movl	-4(%rbp), %edx	# oldline, tmp91
	movl	%edx, 72(%rax)	# tmp91, PL_curcop.35_29->cop_line
.L111:
.LBE5:
	.loc 1 617 0
	movq	-24(%rbp), %rax	# o, tmp92
	movq	%rax, %rdi	# tmp92,
	call	Perl_scalar	#
	.loc 1 618 0
	leave
	.cfi_def_cfa 7, 8
	ret
	.cfi_endproc
.LFE17:
	.size	S_scalarboolean, .-S_scalarboolean
	.section	.rodata
.LC11:
	.string	"implicit split to @_"
	.align 8
.LC12:
	.string	"Useless use of sort in scalar context"
	.text
	.globl	Perl_scalar
	.type	Perl_scalar, @function
Perl_scalar:
.LFB18:
	.loc 1 622 0
	.cfi_startproc
	pushq	%rbp	#
	.cfi_def_cfa_offset 16
	.cfi_offset 6, -16
	movq	%rsp, %rbp	#,
	.cfi_def_cfa_register 6
	subq	$32, %rsp	#,
	movq	%rdi, -24(%rbp)	# o, o
	.loc 1 626 0
	cmpq	$0, -24(%rbp)	#, o
	je	.L117	#,
	.loc 1 626 0 is_stmt 0 discriminator 1
	movq	-24(%rbp), %rax	# o, tmp105
	movzbl	36(%rax), %eax	# o_6(D)->op_flags, D.21512
	movzbl	%al, %eax	# D.21512, D.21513
	andl	$3, %eax	#, D.21513
	testl	%eax, %eax	# D.21513
	jne	.L117	#,
	movl	PL_error_count(%rip), %eax	# PL_error_count, PL_error_count.36
	testl	%eax, %eax	# PL_error_count.36
	jne	.L117	#,
	.loc 1 627 0 is_stmt 1
	movq	-24(%rbp), %rax	# o, tmp106
	movzwl	32(%rax), %eax	# o_6(D)->op_type, D.21514
	cmpw	$184, %ax	#, D.21514
	jne	.L118	#,
.L117:
	.loc 1 629 0
	movq	-24(%rbp), %rax	# o, D.21511
	jmp	.L119	#
.L118:
	.loc 1 632 0
	movq	-24(%rbp), %rax	# o, tmp107
	movzbl	36(%rax), %eax	# o_6(D)->op_flags, D.21512
	andl	$-4, %eax	#, D.21515
	orl	$2, %eax	#, D.21515
	movl	%eax, %edx	# D.21515, D.21512
	movq	-24(%rbp), %rax	# o, tmp108
	movb	%dl, 36(%rax)	# D.21512, o_6(D)->op_flags
	.loc 1 634 0
	movq	-24(%rbp), %rax	# o, tmp109
	movzwl	32(%rax), %eax	# o_6(D)->op_type, D.21514
	movzwl	%ax, %eax	# D.21514, D.21513
	cmpl	$160, %eax	#, D.21513
	jg	.L121	#,
	cmpl	$159, %eax	#, D.21513
	jge	.L122	#,
	cmpl	$139, %eax	#, D.21513
	je	.L123	#,
	cmpl	$139, %eax	#, D.21513
	jg	.L124	#,
	cmpl	$61, %eax	#, D.21513
	je	.L125	#,
	jmp	.L120	#
.L124:
	cmpl	$141, %eax	#, D.21513
	je	.L126	#,
	cmpl	$150, %eax	#, D.21513
	je	.L127	#,
	jmp	.L120	#
.L121:
	cmpl	$178, %eax	#, D.21513
	je	.L128	#,
	cmpl	$178, %eax	#, D.21513
	jg	.L129	#,
	cmpl	$162, %eax	#, D.21513
	je	.L122	#,
	cmpl	$173, %eax	#, D.21513
	je	.L126	#,
	jmp	.L120	#
.L129:
	cmpl	$179, %eax	#, D.21513
	je	.L126	#,
	cmpl	$314, %eax	#, D.21513
	je	.L128	#,
	jmp	.L120	#
.L125:
	.loc 1 636 0
	movq	-24(%rbp), %rax	# o, tmp110
	movq	40(%rax), %rax	# MEM[(struct BINOP *)o_6(D)].op_first, D.21511
	movq	%rax, %rdi	# D.21511,
	call	Perl_scalar	#
	.loc 1 637 0
	jmp	.L130	#
.L122:
	.loc 1 641 0
	movq	-24(%rbp), %rax	# o, tmp111
	movq	40(%rax), %rax	# MEM[(struct UNOP *)o_6(D)].op_first, D.21511
	movq	8(%rax), %rax	# _20->op_sibling, tmp112
	movq	%rax, -8(%rbp)	# tmp112, kid
	jmp	.L131	#
.L132:
	.loc 1 642 0 discriminator 2
	movq	-8(%rbp), %rax	# kid, tmp113
	movq	%rax, %rdi	# tmp113,
	call	Perl_scalar	#
	.loc 1 641 0 discriminator 2
	movq	-8(%rbp), %rax	# kid, tmp114
	movq	8(%rax), %rax	# kid_1->op_sibling, tmp115
	movq	%rax, -8(%rbp)	# tmp115, kid
.L131:
	.loc 1 641 0 is_stmt 0 discriminator 1
	cmpq	$0, -8(%rbp)	#, kid
	jne	.L132	#,
	.loc 1 643 0 is_stmt 1
	jmp	.L130	#
.L123:
	.loc 1 645 0
	movq	-24(%rbp), %rax	# o, tmp116
	movq	40(%rax), %rax	# MEM[(struct LISTOP *)o_6(D)].op_first, tmp117
	movq	%rax, -8(%rbp)	# tmp117, kid
	cmpq	$0, -8(%rbp)	#, kid
	je	.L120	#,
	.loc 1 645 0 is_stmt 0 discriminator 1
	movq	-8(%rbp), %rax	# kid, tmp118
	movzwl	32(%rax), %eax	# kid_23->op_type, D.21514
	cmpw	$13, %ax	#, D.21514
	jne	.L120	#,
	.loc 1 646 0 is_stmt 1
	movq	-8(%rbp), %rax	# kid, tmp119
	movq	56(%rax), %rax	# MEM[(struct PMOP *)kid_23].op_pmreplroot, D.21511
	testq	%rax, %rax	# D.21511
	jne	.L120	#,
	.loc 1 647 0
	movl	$.LC11, %edi	#,
	call	Perl_deprecate_old	#
.L120:
	.loc 1 655 0
	movq	-24(%rbp), %rax	# o, tmp120
	movzbl	36(%rax), %eax	# o_6(D)->op_flags, D.21512
	movzbl	%al, %eax	# D.21512, D.21513
	andl	$4, %eax	#, D.21513
	testl	%eax, %eax	# D.21513
	je	.L133	#,
	.loc 1 656 0
	movq	-24(%rbp), %rax	# o, tmp121
	movq	40(%rax), %rax	# MEM[(struct UNOP *)o_6(D)].op_first, tmp122
	movq	%rax, -8(%rbp)	# tmp122, kid
	jmp	.L134	#
.L135:
	.loc 1 657 0 discriminator 2
	movq	-8(%rbp), %rax	# kid, tmp123
	movq	%rax, %rdi	# tmp123,
	call	Perl_scalar	#
	.loc 1 656 0 discriminator 2
	movq	-8(%rbp), %rax	# kid, tmp124
	movq	8(%rax), %rax	# kid_2->op_sibling, tmp125
	movq	%rax, -8(%rbp)	# tmp125, kid
.L134:
	.loc 1 656 0 is_stmt 0 discriminator 1
	cmpq	$0, -8(%rbp)	#, kid
	jne	.L135	#,
.L133:
	.loc 1 659 0 is_stmt 1
	jmp	.L130	#
.L128:
	.loc 1 662 0
	movq	-24(%rbp), %rax	# o, tmp126
	movq	40(%rax), %rax	# MEM[(struct LISTOP *)o_6(D)].op_first, tmp127
	movq	%rax, -8(%rbp)	# tmp127, kid
	.loc 1 663 0
	movq	-8(%rbp), %rax	# kid, tmp128
	movq	%rax, %rdi	# tmp128,
	call	Perl_scalar	#
	.loc 1 664 0
	jmp	.L136	#
.L138:
	.loc 1 665 0
	movq	-8(%rbp), %rax	# kid, tmp129
	movq	8(%rax), %rax	# kid_32->op_sibling, D.21511
	testq	%rax, %rax	# D.21511
	je	.L137	#,
	.loc 1 666 0
	movq	-8(%rbp), %rax	# kid, tmp130
	movq	%rax, %rdi	# tmp130,
	call	Perl_scalarvoid	#
	jmp	.L136	#
.L137:
	.loc 1 668 0
	movq	-8(%rbp), %rax	# kid, tmp131
	movq	%rax, %rdi	# tmp131,
	call	Perl_scalar	#
.L136:
	.loc 1 664 0 discriminator 1
	movq	-8(%rbp), %rax	# kid, tmp132
	movq	8(%rax), %rax	# kid_3->op_sibling, tmp133
	movq	%rax, -8(%rbp)	# tmp133, kid
	cmpq	$0, -8(%rbp)	#, kid
	jne	.L138	#,
.LBB6:
	.loc 1 670 0
	movl	$PL_compiling, %eax	#, PL_compiling.37
	movq	%rax, PL_curcop(%rip)	# PL_compiling.37, PL_curcop
.LBE6:
	.loc 1 671 0
	jmp	.L130	#
.L126:
	.loc 1 675 0
	movq	-24(%rbp), %rax	# o, tmp134
	movq	40(%rax), %rax	# MEM[(struct LISTOP *)o_6(D)].op_first, tmp135
	movq	%rax, -8(%rbp)	# tmp135, kid
	jmp	.L139	#
.L142:
	.loc 1 676 0
	movq	-8(%rbp), %rax	# kid, tmp136
	movq	8(%rax), %rax	# kid_4->op_sibling, D.21511
	testq	%rax, %rax	# D.21511
	je	.L140	#,
	.loc 1 677 0
	movq	-8(%rbp), %rax	# kid, tmp137
	movq	%rax, %rdi	# tmp137,
	call	Perl_scalarvoid	#
	jmp	.L141	#
.L140:
	.loc 1 679 0
	movq	-8(%rbp), %rax	# kid, tmp138
	movq	%rax, %rdi	# tmp138,
	call	Perl_scalar	#
.L141:
	.loc 1 675 0
	movq	-8(%rbp), %rax	# kid, tmp139
	movq	8(%rax), %rax	# kid_4->op_sibling, tmp140
	movq	%rax, -8(%rbp)	# tmp140, kid
.L139:
	.loc 1 675 0 is_stmt 0 discriminator 1
	cmpq	$0, -8(%rbp)	#, kid
	jne	.L142	#,
.LBB7:
	.loc 1 681 0 is_stmt 1
	movl	$PL_compiling, %eax	#, PL_compiling.38
	movq	%rax, PL_curcop(%rip)	# PL_compiling.38, PL_curcop
.LBE7:
	.loc 1 682 0
	jmp	.L130	#
.L127:
	.loc 1 684 0
	movq	PL_curcop(%rip), %rax	# PL_curcop, PL_curcop.39
	movq	80(%rax), %rax	# PL_curcop.39_41->cop_warnings, D.21517
	testq	%rax, %rax	# D.21517
	je	.L143	#,
	.loc 1 684 0 is_stmt 0 discriminator 1
	movq	PL_curcop(%rip), %rax	# PL_curcop, PL_curcop.40
	movq	80(%rax), %rax	# PL_curcop.40_43->cop_warnings, D.21517
	cmpq	$32, %rax	#, D.21517
	je	.L143	#,
	movq	PL_curcop(%rip), %rax	# PL_curcop, PL_curcop.41
	movq	80(%rax), %rax	# PL_curcop.41_45->cop_warnings, D.21517
	cmpq	$16, %rax	#, D.21517
	je	.L144	#,
	movq	PL_curcop(%rip), %rax	# PL_curcop, PL_curcop.42
	movq	80(%rax), %rax	# PL_curcop.42_47->cop_warnings, D.21517
	movq	(%rax), %rax	# _48->sv_any, D.21518
	movq	(%rax), %rax	# MEM[(struct XPV *)_49].xpv_pv, D.21519
	addq	$11, %rax	#, D.21519
	movzbl	(%rax), %eax	# *_51, D.21520
	movsbl	%al, %eax	# D.21520, D.21513
	andl	$4, %eax	#, D.21513
	testl	%eax, %eax	# D.21513
	jne	.L144	#,
.L143:
	.loc 1 684 0 discriminator 2
	movq	PL_curcop(%rip), %rax	# PL_curcop, PL_curcop.43
	movq	80(%rax), %rax	# PL_curcop.43_55->cop_warnings, D.21517
	testq	%rax, %rax	# D.21517
	jne	.L130	#,
	.loc 1 684 0 discriminator 1
	movzbl	PL_dowarn(%rip), %eax	# PL_dowarn, PL_dowarn.44
	movzbl	%al, %eax	# PL_dowarn.44, D.21513
	andl	$1, %eax	#, D.21513
	testl	%eax, %eax	# D.21513
	je	.L130	#,
.L144:
	.loc 1 685 0 is_stmt 1
	movl	$.LC12, %esi	#,
	movl	$45, %edi	#,
	movl	$0, %eax	#,
	call	Perl_warner	#
.L130:
	.loc 1 687 0
	movq	-24(%rbp), %rax	# o, D.21511
.L119:
	.loc 1 688 0
	leave
	.cfi_def_cfa 7, 8
	ret
	.cfi_endproc
.LFE18:
	.size	Perl_scalar, .-Perl_scalar
	.section	.rodata
.LC13:
	.string	"a variable"
.LC14:
	.string	"a constant"
.LC17:
	.string	"di"
.LC18:
	.string	"ds"
.LC19:
	.string	"ig"
	.align 8
.LC20:
	.string	"Useless use of %s in void context"
	.text
	.globl	Perl_scalarvoid
	.type	Perl_scalarvoid, @function
Perl_scalarvoid:
.LFB19:
	.loc 1 692 0
	.cfi_startproc
	pushq	%rbp	#
	.cfi_def_cfa_offset 16
	.cfi_offset 6, -16
	movq	%rsp, %rbp	#,
	.cfi_def_cfa_register 6
	subq	$48, %rsp	#,
	movq	%rdi, -40(%rbp)	# o, o
	.loc 1 694 0
	movq	$0, -16(%rbp)	#, useless
	.loc 1 698 0
	movq	-40(%rbp), %rax	# o, tmp186
	movzwl	32(%rax), %eax	# o_10(D)->op_type, D.21527
	cmpw	$174, %ax	#, D.21527
	je	.L146	#,
	.loc 1 699 0
	movq	-40(%rbp), %rax	# o, tmp187
	movzwl	32(%rax), %eax	# o_10(D)->op_type, D.21527
	cmpw	$349, %ax	#, D.21527
	je	.L146	#,
	.loc 1 700 0
	movq	-40(%rbp), %rax	# o, tmp188
	movzwl	32(%rax), %eax	# o_10(D)->op_type, D.21527
	cmpw	$175, %ax	#, D.21527
	je	.L146	#,
	.loc 1 701 0
	movq	-40(%rbp), %rax	# o, tmp189
	movzwl	32(%rax), %eax	# o_10(D)->op_type, D.21527
	testw	%ax, %ax	# D.21527
	jne	.L147	#,
	.loc 1 701 0 is_stmt 0 discriminator 1
	movq	-40(%rbp), %rax	# o, tmp190
	movq	24(%rax), %rax	# o_10(D)->op_targ, D.21528
	cmpq	$174, %rax	#, D.21528
	je	.L146	#,
	.loc 1 702 0 is_stmt 1
	movq	-40(%rbp), %rax	# o, tmp191
	movq	24(%rax), %rax	# o_10(D)->op_targ, D.21528
	cmpq	$349, %rax	#, D.21528
	je	.L146	#,
	.loc 1 703 0
	movq	-40(%rbp), %rax	# o, tmp192
	movq	24(%rax), %rax	# o_10(D)->op_targ, D.21528
	cmpq	$175, %rax	#, D.21528
	jne	.L147	#,
.L146:
	.loc 1 704 0
	movq	-40(%rbp), %rax	# o, tmp193
	movq	%rax, PL_curcop(%rip)	# tmp193, PL_curcop
.L147:
	.loc 1 707 0
	movq	-40(%rbp), %rax	# o, tmp194
	movzbl	36(%rax), %eax	# o_10(D)->op_flags, D.21529
	andl	$3, %eax	#, tmp195
	movb	%al, -25(%rbp)	# tmp195, want
	.loc 1 708 0
	cmpb	$0, -25(%rbp)	#, want
	je	.L148	#,
	.loc 1 708 0 is_stmt 0 discriminator 1
	cmpb	$2, -25(%rbp)	#, want
	jne	.L149	#,
.L148:
	.loc 1 708 0 discriminator 2
	movl	PL_error_count(%rip), %eax	# PL_error_count, PL_error_count.45
	testl	%eax, %eax	# PL_error_count.45
	jne	.L149	#,
	.loc 1 709 0 is_stmt 1
	movq	-40(%rbp), %rax	# o, tmp196
	movzwl	32(%rax), %eax	# o_10(D)->op_type, D.21527
	cmpw	$184, %ax	#, D.21527
	jne	.L150	#,
.L149:
	.loc 1 711 0
	movq	-40(%rbp), %rax	# o, D.21526
	jmp	.L151	#
.L150:
	.loc 1 714 0
	movq	-40(%rbp), %rax	# o, tmp197
	movzbl	37(%rax), %eax	# o_10(D)->op_private, D.21529
	movzbl	%al, %eax	# D.21529, D.21530
	andl	$16, %eax	#, D.21530
	testl	%eax, %eax	# D.21530
	je	.L152	#,
	.loc 1 715 0
	movq	-40(%rbp), %rax	# o, tmp198
	movzwl	32(%rax), %eax	# o_10(D)->op_type, D.21527
	movzwl	%ax, %eax	# D.21527, D.21530
	cltq
	movl	PL_opargs(,%rax,4), %eax	# PL_opargs, D.21531
	andl	$256, %eax	#, D.21531
	testl	%eax, %eax	# D.21531
	je	.L152	#,
	.loc 1 717 0
	movq	-40(%rbp), %rax	# o, tmp200
	movq	%rax, %rdi	# tmp200,
	call	Perl_scalar	#
	jmp	.L151	#
.L152:
	.loc 1 720 0
	movq	-40(%rbp), %rax	# o, tmp201
	movzbl	36(%rax), %eax	# o_10(D)->op_flags, D.21529
	andl	$-4, %eax	#, D.21532
	orl	$1, %eax	#, D.21532
	movl	%eax, %edx	# D.21532, D.21529
	movq	-40(%rbp), %rax	# o, tmp202
	movb	%dl, 36(%rax)	# D.21529, o_10(D)->op_flags
	.loc 1 722 0
	movq	-40(%rbp), %rax	# o, tmp203
	movzwl	32(%rax), %eax	# o_10(D)->op_type, D.21527
	movzwl	%ax, %eax	# D.21527, D.21530
	cmpl	$345, %eax	#, D.21530
	ja	.L153	#,
	movl	%eax, %eax	# D.21530, tmp204
	movq	.L155(,%rax,8), %rax	#, tmp205
	jmp	*%rax	# tmp205
	.section	.rodata
	.align 8
	.align 4
.L155:
	.quad	.L154
	.quad	.L153
	.quad	.L156
	.quad	.L153
	.quad	.L157
	.quad	.L158
	.quad	.L157
	.quad	.L157
	.quad	.L153
	.quad	.L157
	.quad	.L157
	.quad	.L157
	.quad	.L157
	.quad	.L153
	.quad	.L159
	.quad	.L159
	.quad	.L157
	.quad	.L153
	.quad	.L153
	.quad	.L157
	.quad	.L157
	.quad	.L157
	.quad	.L157
	.quad	.L153
	.quad	.L153
	.quad	.L153
	.quad	.L153
	.quad	.L153
	.quad	.L153
	.quad	.L153
	.quad	.L153
	.quad	.L153
	.quad	.L153
	.quad	.L153
	.quad	.L153
	.quad	.L153
	.quad	.L153
	.quad	.L153
	.quad	.L153
	.quad	.L153
	.quad	.L153
	.quad	.L153
	.quad	.L157
	.quad	.L153
	.quad	.L153
	.quad	.L153
	.quad	.L153
	.quad	.L153
	.quad	.L153
	.quad	.L153
	.quad	.L160
	.quad	.L153
	.quad	.L161
	.quad	.L153
	.quad	.L153
	.quad	.L153
	.quad	.L153
	.quad	.L153
	.quad	.L153
	.quad	.L153
	.quad	.L153
	.quad	.L162
	.quad	.L153
	.quad	.L153
	.quad	.L153
	.quad	.L153
	.quad	.L153
	.quad	.L153
	.quad	.L153
	.quad	.L153
	.quad	.L153
	.quad	.L153
	.quad	.L153
	.quad	.L153
	.quad	.L153
	.quad	.L153
	.quad	.L153
	.quad	.L153
	.quad	.L153
	.quad	.L153
	.quad	.L153
	.quad	.L153
	.quad	.L153
	.quad	.L153
	.quad	.L153
	.quad	.L153
	.quad	.L153
	.quad	.L153
	.quad	.L153
	.quad	.L153
	.quad	.L153
	.quad	.L153
	.quad	.L153
	.quad	.L153
	.quad	.L153
	.quad	.L153
	.quad	.L153
	.quad	.L153
	.quad	.L153
	.quad	.L153
	.quad	.L153
	.quad	.L153
	.quad	.L153
	.quad	.L153
	.quad	.L153
	.quad	.L153
	.quad	.L153
	.quad	.L157
	.quad	.L157
	.quad	.L153
	.quad	.L157
	.quad	.L163
	.quad	.L157
	.quad	.L157
	.quad	.L157
	.quad	.L157
	.quad	.L153
	.quad	.L153
	.quad	.L153
	.quad	.L153
	.quad	.L153
	.quad	.L153
	.quad	.L153
	.quad	.L153
	.quad	.L153
	.quad	.L159
	.quad	.L157
	.quad	.L157
	.quad	.L157
	.quad	.L153
	.quad	.L153
	.quad	.L153
	.quad	.L153
	.quad	.L153
	.quad	.L159
	.quad	.L157
	.quad	.L157
	.quad	.L157
	.quad	.L157
	.quad	.L164
	.quad	.L157
	.quad	.L165
	.quad	.L157
	.quad	.L157
	.quad	.L157
	.quad	.L153
	.quad	.L153
	.quad	.L153
	.quad	.L153
	.quad	.L153
	.quad	.L157
	.quad	.L157
	.quad	.L153
	.quad	.L153
	.quad	.L153
	.quad	.L153
	.quad	.L157
	.quad	.L157
	.quad	.L157
	.quad	.L166
	.quad	.L166
	.quad	.L153
	.quad	.L166
	.quad	.L153
	.quad	.L153
	.quad	.L153
	.quad	.L153
	.quad	.L153
	.quad	.L153
	.quad	.L157
	.quad	.L153
	.quad	.L153
	.quad	.L153
	.quad	.L165
	.quad	.L167
	.quad	.L167
	.quad	.L153
	.quad	.L167
	.quad	.L165
	.quad	.L165
	.quad	.L153
	.quad	.L153
	.quad	.L153
	.quad	.L165
	.quad	.L153
	.quad	.L153
	.quad	.L153
	.quad	.L153
	.quad	.L153
	.quad	.L153
	.quad	.L153
	.quad	.L153
	.quad	.L153
	.quad	.L153
	.quad	.L157
	.quad	.L153
	.quad	.L153
	.quad	.L153
	.quad	.L153
	.quad	.L153
	.quad	.L153
	.quad	.L153
	.quad	.L153
	.quad	.L153
	.quad	.L153
	.quad	.L153
	.quad	.L153
	.quad	.L153
	.quad	.L153
	.quad	.L153
	.quad	.L153
	.quad	.L153
	.quad	.L153
	.quad	.L153
	.quad	.L153
	.quad	.L153
	.quad	.L157
	.quad	.L157
	.quad	.L153
	.quad	.L153
	.quad	.L153
	.quad	.L153
	.quad	.L153
	.quad	.L153
	.quad	.L153
	.quad	.L153
	.quad	.L153
	.quad	.L153
	.quad	.L153
	.quad	.L153
	.quad	.L153
	.quad	.L153
	.quad	.L157
	.quad	.L157
	.quad	.L153
	.quad	.L153
	.quad	.L153
	.quad	.L153
	.quad	.L153
	.quad	.L153
	.quad	.L153
	.quad	.L153
	.quad	.L153
	.quad	.L153
	.quad	.L153
	.quad	.L153
	.quad	.L153
	.quad	.L153
	.quad	.L153
	.quad	.L153
	.quad	.L153
	.quad	.L153
	.quad	.L153
	.quad	.L153
	.quad	.L153
	.quad	.L153
	.quad	.L153
	.quad	.L153
	.quad	.L153
	.quad	.L153
	.quad	.L153
	.quad	.L153
	.quad	.L153
	.quad	.L153
	.quad	.L153
	.quad	.L153
	.quad	.L153
	.quad	.L153
	.quad	.L153
	.quad	.L153
	.quad	.L153
	.quad	.L153
	.quad	.L157
	.quad	.L153
	.quad	.L153
	.quad	.L153
	.quad	.L153
	.quad	.L157
	.quad	.L153
	.quad	.L153
	.quad	.L153
	.quad	.L153
	.quad	.L153
	.quad	.L153
	.quad	.L153
	.quad	.L153
	.quad	.L153
	.quad	.L157
	.quad	.L157
	.quad	.L153
	.quad	.L157
	.quad	.L153
	.quad	.L157
	.quad	.L157
	.quad	.L157
	.quad	.L157
	.quad	.L153
	.quad	.L153
	.quad	.L153
	.quad	.L153
	.quad	.L153
	.quad	.L153
	.quad	.L153
	.quad	.L153
	.quad	.L153
	.quad	.L153
	.quad	.L153
	.quad	.L153
	.quad	.L153
	.quad	.L168
	.quad	.L153
	.quad	.L169
	.quad	.L153
	.quad	.L167
	.quad	.L165
	.quad	.L157
	.quad	.L157
	.quad	.L157
	.quad	.L157
	.quad	.L157
	.quad	.L157
	.quad	.L157
	.quad	.L157
	.quad	.L157
	.quad	.L157
	.quad	.L157
	.quad	.L157
	.quad	.L153
	.quad	.L153
	.quad	.L153
	.quad	.L153
	.quad	.L153
	.quad	.L153
	.quad	.L153
	.quad	.L153
	.quad	.L157
	.quad	.L157
	.quad	.L153
	.quad	.L153
	.quad	.L153
	.quad	.L157
	.quad	.L157
	.quad	.L153
	.quad	.L153
	.quad	.L153
	.quad	.L157
	.text
.L153:
	.loc 1 724 0
	movq	-40(%rbp), %rax	# o, tmp206
	movzwl	32(%rax), %eax	# o_10(D)->op_type, D.21527
	movzwl	%ax, %eax	# D.21527, D.21530
	cltq
	movl	PL_opargs(,%rax,4), %eax	# PL_opargs, D.21531
	andl	$2, %eax	#, D.21531
	testl	%eax, %eax	# D.21531
	jne	.L162	#,
	.loc 1 725 0
	jmp	.L170	#
.L162:
	.loc 1 728 0
	movq	-40(%rbp), %rax	# o, tmp208
	movzbl	36(%rax), %eax	# o_10(D)->op_flags, D.21529
	movzbl	%al, %eax	# D.21529, D.21530
	andl	$64, %eax	#, D.21530
	testl	%eax, %eax	# D.21530
	je	.L171	#,
	.loc 1 729 0
	jmp	.L170	#
.L171:
	.loc 1 730 0
	jmp	.L157	#
.L163:
	.loc 1 732 0
	movq	-40(%rbp), %rax	# o, tmp209
	movzbl	37(%rax), %eax	# o_10(D)->op_private, D.21529
	cmpb	$4, %al	#, D.21529
	jne	.L157	#,
	.loc 1 733 0
	jmp	.L170	#
.L157:
	.loc 1 804 0
	movq	-40(%rbp), %rax	# o, tmp210
	movzbl	37(%rax), %eax	# o_10(D)->op_private, D.21529
	movzbl	%al, %eax	# D.21529, D.21530
	andl	$144, %eax	#, D.21530
	testl	%eax, %eax	# D.21530
	jne	.L172	#,
	.loc 1 805 0
	movq	-40(%rbp), %rax	# o, tmp211
	movzwl	32(%rax), %eax	# o_10(D)->op_type, D.21527
	cmpw	$351, %ax	#, D.21527
	jne	.L173	#,
	.loc 1 805 0 is_stmt 0 discriminator 1
	movq	-40(%rbp), %rax	# o, tmp212
	movq	%rax, %rdi	# tmp212,
	call	Perl_custom_op_desc	#
	jmp	.L174	#
.L173:
	.loc 1 805 0 discriminator 2
	movq	-40(%rbp), %rax	# o, tmp213
	movzwl	32(%rax), %eax	# o_10(D)->op_type, D.21527
	movzwl	%ax, %eax	# D.21527, D.21530
	cltq
	movq	PL_op_desc(,%rax,8), %rax	# PL_op_desc, iftmp.46
.L174:
	.loc 1 805 0 discriminator 3
	movq	%rax, -16(%rbp)	# iftmp.46, useless
	.loc 1 806 0 is_stmt 1 discriminator 3
	jmp	.L170	#
.L172:
	.loc 1 806 0 is_stmt 0
	jmp	.L170	#
.L159:
	.loc 1 812 0 is_stmt 1
	movq	-40(%rbp), %rax	# o, tmp215
	movzbl	37(%rax), %eax	# o_10(D)->op_private, D.21529
	movzbl	%al, %eax	# D.21529, D.21530
	andl	$144, %eax	#, D.21530
	testl	%eax, %eax	# D.21530
	jne	.L175	#,
	.loc 1 813 0 discriminator 1
	movq	-40(%rbp), %rax	# o, tmp216
	movq	8(%rax), %rax	# o_10(D)->op_sibling, D.21526
	.loc 1 812 0 discriminator 1
	testq	%rax, %rax	# D.21526
	je	.L176	#,
	.loc 1 813 0
	movq	-40(%rbp), %rax	# o, tmp217
	movq	8(%rax), %rax	# o_10(D)->op_sibling, D.21526
	movzwl	32(%rax), %eax	# _58->op_type, D.21527
	cmpw	$26, %ax	#, D.21527
	je	.L175	#,
.L176:
	.loc 1 814 0
	movq	$.LC13, -16(%rbp)	#, useless
	.loc 1 815 0
	jmp	.L170	#
.L175:
	jmp	.L170	#
.L158:
	.loc 1 818 0
	movq	-40(%rbp), %rax	# o, tmp218
	movq	40(%rax), %rax	# MEM[(struct SVOP *)o_10(D)].op_sv, tmp219
	movq	%rax, -8(%rbp)	# tmp219, sv
	.loc 1 819 0
	movq	-40(%rbp), %rax	# o, tmp220
	movzbl	37(%rax), %eax	# MEM[(struct SVOP *)o_10(D)].op_private, D.21529
	movzbl	%al, %eax	# D.21529, D.21530
	andl	$8, %eax	#, D.21530
	testl	%eax, %eax	# D.21530
	je	.L177	#,
	.loc 1 820 0
	movq	-40(%rbp), %rax	# o, tmp221
	movq	%rax, %rdi	# tmp221,
	call	S_no_bareword_allowed	#
	jmp	.L178	#
.L177:
	.loc 1 822 0
	movq	PL_curcop(%rip), %rax	# PL_curcop, PL_curcop.47
	movq	80(%rax), %rax	# PL_curcop.47_65->cop_warnings, D.21533
	testq	%rax, %rax	# D.21533
	je	.L179	#,
	.loc 1 822 0 is_stmt 0 discriminator 1
	movq	PL_curcop(%rip), %rax	# PL_curcop, PL_curcop.48
	movq	80(%rax), %rax	# PL_curcop.48_67->cop_warnings, D.21533
	cmpq	$32, %rax	#, D.21533
	je	.L179	#,
	movq	PL_curcop(%rip), %rax	# PL_curcop, PL_curcop.49
	movq	80(%rax), %rax	# PL_curcop.49_69->cop_warnings, D.21533
	cmpq	$16, %rax	#, D.21533
	je	.L180	#,
	movq	PL_curcop(%rip), %rax	# PL_curcop, PL_curcop.50
	movq	80(%rax), %rax	# PL_curcop.50_71->cop_warnings, D.21533
	movq	(%rax), %rax	# _72->sv_any, D.21534
	movq	(%rax), %rax	# MEM[(struct XPV *)_73].xpv_pv, D.21535
	addq	$11, %rax	#, D.21535
	movzbl	(%rax), %eax	# *_75, D.21536
	movsbl	%al, %eax	# D.21536, D.21530
	andl	$4, %eax	#, D.21530
	testl	%eax, %eax	# D.21530
	jne	.L180	#,
.L179:
	.loc 1 822 0 discriminator 2
	movq	PL_curcop(%rip), %rax	# PL_curcop, PL_curcop.51
	movq	80(%rax), %rax	# PL_curcop.51_79->cop_warnings, D.21533
	testq	%rax, %rax	# D.21533
	jne	.L178	#,
	.loc 1 822 0 discriminator 1
	movzbl	PL_dowarn(%rip), %eax	# PL_dowarn, PL_dowarn.52
	movzbl	%al, %eax	# PL_dowarn.52, D.21530
	andl	$1, %eax	#, D.21530
	testl	%eax, %eax	# D.21530
	je	.L178	#,
.L180:
	.loc 1 823 0 is_stmt 1
	movq	$.LC14, -16(%rbp)	#, useless
	.loc 1 826 0
	movq	-40(%rbp), %rax	# o, tmp222
	movzbl	37(%rax), %eax	# MEM[(struct SVOP *)o_10(D)].op_private, D.21529
	movzbl	%al, %eax	# D.21529, D.21530
	andl	$4, %eax	#, D.21530
	testl	%eax, %eax	# D.21530
	je	.L181	#,
	.loc 1 827 0
	movq	$0, -16(%rbp)	#, useless
	jmp	.L178	#
.L181:
	.loc 1 831 0
	movq	-8(%rbp), %rax	# sv, tmp223
	movl	12(%rax), %eax	# sv_61->sv_flags, D.21531
	andl	$196608, %eax	#, D.21531
	testl	%eax, %eax	# D.21531
	je	.L182	#,
	.loc 1 831 0 is_stmt 0 discriminator 1
	movq	-8(%rbp), %rax	# sv, tmp224
	movl	12(%rax), %eax	# sv_61->sv_flags, D.21531
	andl	$131072, %eax	#, D.21531
	testl	%eax, %eax	# D.21531
	je	.L183	#,
	.loc 1 831 0 discriminator 2
	movq	-8(%rbp), %rax	# sv, tmp225
	movq	(%rax), %rax	# sv_61->sv_any, D.21534
	movsd	32(%rax), %xmm0	# MEM[(struct XPVNV *)_93].xnv_nv, D.21537
	xorpd	%xmm1, %xmm1	# tmp226
	ucomisd	%xmm1, %xmm0	# tmp226, D.21537
	jp	.L186	#,
	xorpd	%xmm1, %xmm1	# tmp227
	ucomisd	%xmm1, %xmm0	# tmp227, D.21537
	je	.L184	#,
	jmp	.L186	#
.L183:
	.loc 1 831 0 discriminator 3
	movq	-8(%rbp), %rax	# sv, tmp228
	movq	%rax, %rdi	# tmp228,
	call	Perl_sv_2nv	#
	xorpd	%xmm1, %xmm1	# tmp229
	ucomisd	%xmm1, %xmm0	# tmp229, D.21537
	jp	.L186	#,
	xorpd	%xmm1, %xmm1	# tmp230
	ucomisd	%xmm1, %xmm0	# tmp230, D.21537
	je	.L184	#,
.L186:
	.loc 1 831 0 discriminator 1
	movq	-8(%rbp), %rax	# sv, tmp231
	movl	12(%rax), %eax	# sv_61->sv_flags, D.21531
	andl	$131072, %eax	#, D.21531
	testl	%eax, %eax	# D.21531
	je	.L188	#,
	.loc 1 831 0 discriminator 4
	movq	-8(%rbp), %rax	# sv, tmp232
	movq	(%rax), %rax	# sv_61->sv_any, D.21534
	movsd	32(%rax), %xmm0	# MEM[(struct XPVNV *)_98].xnv_nv, D.21537
	movsd	.LC16(%rip), %xmm1	#, tmp233
	ucomisd	%xmm1, %xmm0	# tmp233, D.21537
	jp	.L182	#,
	movsd	.LC16(%rip), %xmm1	#, tmp234
	ucomisd	%xmm1, %xmm0	# tmp234, D.21537
	je	.L184	#,
	jmp	.L182	#
.L188:
	.loc 1 831 0 discriminator 5
	movq	-8(%rbp), %rax	# sv, tmp235
	movq	%rax, %rdi	# tmp235,
	call	Perl_sv_2nv	#
	movsd	.LC16(%rip), %xmm1	#, tmp236
	ucomisd	%xmm1, %xmm0	# tmp236, D.21537
	jp	.L182	#,
	movsd	.LC16(%rip), %xmm1	#, tmp237
	ucomisd	%xmm1, %xmm0	# tmp237, D.21537
	jne	.L182	#,
.L184:
	.loc 1 832 0 is_stmt 1
	movq	$0, -16(%rbp)	#, useless
	jmp	.L178	#
.L182:
	.loc 1 833 0
	movq	-8(%rbp), %rax	# sv, tmp238
	movl	12(%rax), %eax	# sv_61->sv_flags, D.21531
	andl	$262144, %eax	#, D.21531
	testl	%eax, %eax	# D.21531
	je	.L178	#,
	.loc 1 840 0
	movq	-8(%rbp), %rax	# sv, tmp239
	movq	(%rax), %rax	# sv_61->sv_any, D.21534
	movq	(%rax), %rax	# MEM[(struct XPV *)_104].xpv_pv, D.21535
	movl	$2, %edx	#,
	movl	$.LC17, %esi	#,
	movq	%rax, %rdi	# D.21535,
	call	strncmp	#
	testl	%eax, %eax	# D.21530
	je	.L191	#,
	.loc 1 841 0 discriminator 1
	movq	-8(%rbp), %rax	# sv, tmp240
	movq	(%rax), %rax	# sv_61->sv_any, D.21534
	movq	(%rax), %rax	# MEM[(struct XPV *)_107].xpv_pv, D.21535
	movl	$2, %edx	#,
	movl	$.LC18, %esi	#,
	movq	%rax, %rdi	# D.21535,
	call	strncmp	#
	.loc 1 840 0 discriminator 1
	testl	%eax, %eax	# D.21530
	je	.L191	#,
	.loc 1 842 0
	movq	-8(%rbp), %rax	# sv, tmp241
	movq	(%rax), %rax	# sv_61->sv_any, D.21534
	movq	(%rax), %rax	# MEM[(struct XPV *)_110].xpv_pv, D.21535
	movl	$2, %edx	#,
	movl	$.LC19, %esi	#,
	movq	%rax, %rdi	# D.21535,
	call	strncmp	#
	.loc 1 841 0
	testl	%eax, %eax	# D.21530
	jne	.L178	#,
.L191:
	.loc 1 843 0
	movq	$0, -16(%rbp)	#, useless
.L178:
	.loc 1 847 0
	movq	-40(%rbp), %rax	# o, tmp242
	movq	%rax, %rdi	# tmp242,
	call	Perl_op_null	#
	.loc 1 848 0
	jmp	.L170	#
.L160:
	.loc 1 851 0
	movq	-40(%rbp), %rax	# o, tmp243
	movw	$46, 32(%rax)	#, o_10(D)->op_type
	.loc 1 852 0
	movq	PL_ppaddr+368(%rip), %rdx	# PL_ppaddr, D.21538
	movq	-40(%rbp), %rax	# o, tmp244
	movq	%rdx, 16(%rax)	# D.21538, o_10(D)->op_ppaddr
	.loc 1 853 0
	jmp	.L170	#
.L161:
	.loc 1 856 0
	movq	-40(%rbp), %rax	# o, tmp245
	movw	$48, 32(%rax)	#, o_10(D)->op_type
	.loc 1 857 0
	movq	PL_ppaddr+384(%rip), %rdx	# PL_ppaddr, D.21538
	movq	-40(%rbp), %rax	# o, tmp246
	movq	%rdx, 16(%rax)	# D.21538, o_10(D)->op_ppaddr
	.loc 1 858 0
	jmp	.L170	#
.L166:
	.loc 1 863 0
	movq	-40(%rbp), %rax	# o, tmp247
	movq	40(%rax), %rax	# MEM[(struct UNOP *)o_10(D)].op_first, D.21526
	movq	8(%rax), %rax	# _116->op_sibling, tmp248
	movq	%rax, -24(%rbp)	# tmp248, kid
	jmp	.L192	#
.L193:
	.loc 1 864 0 discriminator 2
	movq	-24(%rbp), %rax	# kid, tmp249
	movq	%rax, %rdi	# tmp249,
	call	Perl_scalarvoid	#
	.loc 1 863 0 discriminator 2
	movq	-24(%rbp), %rax	# kid, tmp250
	movq	8(%rax), %rax	# kid_1->op_sibling, tmp251
	movq	%rax, -24(%rbp)	# tmp251, kid
.L192:
	.loc 1 863 0 is_stmt 0 discriminator 1
	cmpq	$0, -24(%rbp)	#, kid
	jne	.L193	#,
	.loc 1 865 0 is_stmt 1
	jmp	.L170	#
.L154:
	.loc 1 868 0
	movq	-40(%rbp), %rax	# o, tmp252
	movzbl	36(%rax), %eax	# o_10(D)->op_flags, D.21529
	movzbl	%al, %eax	# D.21529, D.21530
	andl	$64, %eax	#, D.21530
	testl	%eax, %eax	# D.21530
	je	.L167	#,
	.loc 1 869 0
	jmp	.L170	#
.L167:
	.loc 1 875 0
	movq	-40(%rbp), %rax	# o, tmp253
	movzbl	36(%rax), %eax	# o_10(D)->op_flags, D.21529
	movzbl	%al, %eax	# D.21529, D.21530
	andl	$4, %eax	#, D.21530
	testl	%eax, %eax	# D.21530
	jne	.L165	#,
	.loc 1 876 0
	jmp	.L170	#
.L165:
	.loc 1 884 0
	movq	-40(%rbp), %rax	# o, tmp254
	movq	40(%rax), %rax	# MEM[(struct LISTOP *)o_10(D)].op_first, tmp255
	movq	%rax, -24(%rbp)	# tmp255, kid
	jmp	.L194	#
.L195:
	.loc 1 885 0 discriminator 2
	movq	-24(%rbp), %rax	# kid, tmp256
	movq	%rax, %rdi	# tmp256,
	call	Perl_scalarvoid	#
	.loc 1 884 0 discriminator 2
	movq	-24(%rbp), %rax	# kid, tmp257
	movq	8(%rax), %rax	# kid_2->op_sibling, tmp258
	movq	%rax, -24(%rbp)	# tmp258, kid
.L194:
	.loc 1 884 0 is_stmt 0 discriminator 1
	cmpq	$0, -24(%rbp)	#, kid
	jne	.L195	#,
	.loc 1 886 0 is_stmt 1
	jmp	.L170	#
.L169:
	.loc 1 888 0
	movq	-40(%rbp), %rax	# o, tmp259
	movq	%rax, %rdi	# tmp259,
	call	Perl_scalarkids	#
	.loc 1 889 0
	jmp	.L170	#
.L168:
	.loc 1 892 0
	movq	-40(%rbp), %rax	# o, tmp260
	movzbl	36(%rax), %eax	# o_10(D)->op_flags, D.21529
	andl	$-4, %eax	#, D.21529
	movl	%eax, %edx	# D.21529, D.21529
	movq	-40(%rbp), %rax	# o, tmp261
	movb	%dl, 36(%rax)	# D.21529, o_10(D)->op_flags
.L156:
	.loc 1 895 0
	movq	-40(%rbp), %rax	# o, tmp262
	movq	%rax, %rdi	# tmp262,
	call	Perl_scalar	#
	jmp	.L151	#
.L164:
	.loc 1 897 0
	movq	-40(%rbp), %rax	# o, tmp263
	movq	40(%rax), %rax	# MEM[(struct LISTOP *)o_10(D)].op_first, tmp264
	movq	%rax, -24(%rbp)	# tmp264, kid
	cmpq	$0, -24(%rbp)	#, kid
	je	.L196	#,
	.loc 1 897 0 is_stmt 0 discriminator 1
	movq	-24(%rbp), %rax	# kid, tmp265
	movzwl	32(%rax), %eax	# kid_130->op_type, D.21527
	cmpw	$13, %ax	#, D.21527
	jne	.L196	#,
	.loc 1 898 0 is_stmt 1
	movq	-24(%rbp), %rax	# kid, tmp266
	movq	56(%rax), %rax	# MEM[(struct PMOP *)kid_130].op_pmreplroot, D.21526
	testq	%rax, %rax	# D.21526
	jne	.L196	#,
	.loc 1 899 0
	movl	$.LC11, %edi	#,
	call	Perl_deprecate_old	#
	.loc 1 901 0
	jmp	.L200	#
.L196:
.L200:
	nop
.L170:
	.loc 1 903 0
	cmpq	$0, -16(%rbp)	#, useless
	je	.L197	#,
	.loc 1 903 0 is_stmt 0 discriminator 1
	movq	PL_curcop(%rip), %rax	# PL_curcop, PL_curcop.53
	movq	80(%rax), %rax	# PL_curcop.53_133->cop_warnings, D.21533
	testq	%rax, %rax	# D.21533
	je	.L198	#,
	movq	PL_curcop(%rip), %rax	# PL_curcop, PL_curcop.54
	movq	80(%rax), %rax	# PL_curcop.54_135->cop_warnings, D.21533
	cmpq	$32, %rax	#, D.21533
	je	.L198	#,
	movq	PL_curcop(%rip), %rax	# PL_curcop, PL_curcop.55
	movq	80(%rax), %rax	# PL_curcop.55_137->cop_warnings, D.21533
	cmpq	$16, %rax	#, D.21533
	je	.L199	#,
	movq	PL_curcop(%rip), %rax	# PL_curcop, PL_curcop.56
	movq	80(%rax), %rax	# PL_curcop.56_139->cop_warnings, D.21533
	movq	(%rax), %rax	# _140->sv_any, D.21534
	movq	(%rax), %rax	# MEM[(struct XPV *)_141].xpv_pv, D.21535
	addq	$11, %rax	#, D.21535
	movzbl	(%rax), %eax	# *_143, D.21536
	movsbl	%al, %eax	# D.21536, D.21530
	andl	$4, %eax	#, D.21530
	testl	%eax, %eax	# D.21530
	jne	.L199	#,
.L198:
	.loc 1 903 0 discriminator 2
	movq	PL_curcop(%rip), %rax	# PL_curcop, PL_curcop.57
	movq	80(%rax), %rax	# PL_curcop.57_147->cop_warnings, D.21533
	testq	%rax, %rax	# D.21533
	jne	.L197	#,
	.loc 1 903 0 discriminator 1
	movzbl	PL_dowarn(%rip), %eax	# PL_dowarn, PL_dowarn.58
	movzbl	%al, %eax	# PL_dowarn.58, D.21530
	andl	$1, %eax	#, D.21530
	testl	%eax, %eax	# D.21530
	je	.L197	#,
.L199:
	.loc 1 904 0 is_stmt 1
	movq	-16(%rbp), %rax	# useless, tmp267
	movq	%rax, %rdx	# tmp267,
	movl	$.LC20, %esi	#,
	movl	$45, %edi	#,
	movl	$0, %eax	#,
	call	Perl_warner	#
.L197:
	.loc 1 905 0
	movq	-40(%rbp), %rax	# o, D.21526
.L151:
	.loc 1 906 0
	leave
	.cfi_def_cfa 7, 8
	ret
	.cfi_endproc
.LFE19:
	.size	Perl_scalarvoid, .-Perl_scalarvoid
	.globl	Perl_listkids
	.type	Perl_listkids, @function
Perl_listkids:
.LFB20:
	.loc 1 910 0
	.cfi_startproc
	pushq	%rbp	#
	.cfi_def_cfa_offset 16
	.cfi_offset 6, -16
	movq	%rsp, %rbp	#,
	.cfi_def_cfa_register 6
	subq	$32, %rsp	#,
	movq	%rdi, -24(%rbp)	# o, o
	.loc 1 912 0
	cmpq	$0, -24(%rbp)	#, o
	je	.L202	#,
	.loc 1 912 0 is_stmt 0 discriminator 1
	movq	-24(%rbp), %rax	# o, tmp64
	movzbl	36(%rax), %eax	# o_2(D)->op_flags, D.21545
	movzbl	%al, %eax	# D.21545, D.21546
	andl	$4, %eax	#, D.21546
	testl	%eax, %eax	# D.21546
	je	.L202	#,
	.loc 1 913 0 is_stmt 1
	movq	-24(%rbp), %rax	# o, tmp65
	movq	40(%rax), %rax	# MEM[(struct LISTOP *)o_2(D)].op_first, tmp66
	movq	%rax, -8(%rbp)	# tmp66, kid
	jmp	.L203	#
.L204:
	.loc 1 914 0 discriminator 2
	movq	-8(%rbp), %rax	# kid, tmp67
	movq	%rax, %rdi	# tmp67,
	call	Perl_list	#
	.loc 1 913 0 discriminator 2
	movq	-8(%rbp), %rax	# kid, tmp68
	movq	8(%rax), %rax	# kid_1->op_sibling, tmp69
	movq	%rax, -8(%rbp)	# tmp69, kid
.L203:
	.loc 1 913 0 is_stmt 0 discriminator 1
	cmpq	$0, -8(%rbp)	#, kid
	jne	.L204	#,
.L202:
	.loc 1 916 0 is_stmt 1
	movq	-24(%rbp), %rax	# o, D.21547
	.loc 1 917 0
	leave
	.cfi_def_cfa 7, 8
	ret
	.cfi_endproc
.LFE20:
	.size	Perl_listkids, .-Perl_listkids
	.globl	Perl_list
	.type	Perl_list, @function
Perl_list:
.LFB21:
	.loc 1 921 0
	.cfi_startproc
	pushq	%rbp	#
	.cfi_def_cfa_offset 16
	.cfi_offset 6, -16
	movq	%rsp, %rbp	#,
	.cfi_def_cfa_register 6
	subq	$32, %rsp	#,
	movq	%rdi, -24(%rbp)	# o, o
	.loc 1 925 0
	cmpq	$0, -24(%rbp)	#, o
	je	.L207	#,
	.loc 1 925 0 is_stmt 0 discriminator 1
	movq	-24(%rbp), %rax	# o, tmp94
	movzbl	36(%rax), %eax	# o_5(D)->op_flags, D.21549
	movzbl	%al, %eax	# D.21549, D.21550
	andl	$3, %eax	#, D.21550
	testl	%eax, %eax	# D.21550
	jne	.L207	#,
	movl	PL_error_count(%rip), %eax	# PL_error_count, PL_error_count.59
	testl	%eax, %eax	# PL_error_count.59
	jne	.L207	#,
	.loc 1 926 0 is_stmt 1
	movq	-24(%rbp), %rax	# o, tmp95
	movzwl	32(%rax), %eax	# o_5(D)->op_type, D.21551
	cmpw	$184, %ax	#, D.21551
	jne	.L208	#,
.L207:
	.loc 1 928 0
	movq	-24(%rbp), %rax	# o, D.21548
	jmp	.L209	#
.L208:
	.loc 1 931 0
	movq	-24(%rbp), %rax	# o, tmp96
	movzbl	37(%rax), %eax	# o_5(D)->op_private, D.21549
	movzbl	%al, %eax	# D.21549, D.21550
	andl	$16, %eax	#, D.21550
	testl	%eax, %eax	# D.21550
	je	.L210	#,
	.loc 1 932 0
	movq	-24(%rbp), %rax	# o, tmp97
	movzwl	32(%rax), %eax	# o_5(D)->op_type, D.21551
	movzwl	%ax, %eax	# D.21551, D.21550
	cltq
	movl	PL_opargs(,%rax,4), %eax	# PL_opargs, D.21552
	andl	$256, %eax	#, D.21552
	testl	%eax, %eax	# D.21552
	je	.L210	#,
	.loc 1 934 0
	movq	-24(%rbp), %rax	# o, D.21548
	jmp	.L209	#
.L210:
	.loc 1 937 0
	movq	-24(%rbp), %rax	# o, tmp99
	movzbl	36(%rax), %eax	# o_5(D)->op_flags, D.21549
	orl	$3, %eax	#, D.21549
	movl	%eax, %edx	# D.21549, D.21549
	movq	-24(%rbp), %rax	# o, tmp100
	movb	%dl, 36(%rax)	# D.21549, o_5(D)->op_flags
	.loc 1 939 0
	movq	-24(%rbp), %rax	# o, tmp101
	movzwl	32(%rax), %eax	# o_5(D)->op_type, D.21551
	movzwl	%ax, %eax	# D.21551, D.21550
	cmpl	$162, %eax	#, D.21550
	je	.L212	#,
	cmpl	$162, %eax	#, D.21550
	jg	.L213	#,
	cmpl	$158, %eax	#, D.21550
	je	.L214	#,
	cmpl	$158, %eax	#, D.21550
	jg	.L215	#,
	cmpl	$61, %eax	#, D.21550
	je	.L214	#,
	cmpl	$141, %eax	#, D.21550
	je	.L216	#,
	jmp	.L211	#
.L215:
	cmpl	$160, %eax	#, D.21550
	jg	.L211	#,
	jmp	.L212	#
.L213:
	cmpl	$179, %eax	#, D.21550
	je	.L217	#,
	cmpl	$179, %eax	#, D.21550
	jg	.L218	#,
	cmpl	$173, %eax	#, D.21550
	je	.L217	#,
	cmpl	$178, %eax	#, D.21550
	je	.L219	#,
	jmp	.L211	#
.L218:
	cmpl	$309, %eax	#, D.21550
	je	.L220	#,
	cmpl	$314, %eax	#, D.21550
	je	.L219	#,
	jmp	.L211	#
.L214:
	.loc 1 942 0
	movq	-24(%rbp), %rax	# o, tmp102
	movq	40(%rax), %rax	# MEM[(struct BINOP *)o_5(D)].op_first, D.21548
	movq	%rax, %rdi	# D.21548,
	call	Perl_list	#
	.loc 1 943 0
	jmp	.L221	#
.L212:
	.loc 1 947 0
	movq	-24(%rbp), %rax	# o, tmp103
	movq	40(%rax), %rax	# MEM[(struct UNOP *)o_5(D)].op_first, D.21548
	movq	8(%rax), %rax	# _24->op_sibling, tmp104
	movq	%rax, -8(%rbp)	# tmp104, kid
	jmp	.L222	#
.L223:
	.loc 1 948 0 discriminator 2
	movq	-8(%rbp), %rax	# kid, tmp105
	movq	%rax, %rdi	# tmp105,
	call	Perl_list	#
	.loc 1 947 0 discriminator 2
	movq	-8(%rbp), %rax	# kid, tmp106
	movq	8(%rax), %rax	# kid_1->op_sibling, tmp107
	movq	%rax, -8(%rbp)	# tmp107, kid
.L222:
	.loc 1 947 0 is_stmt 0 discriminator 1
	cmpq	$0, -8(%rbp)	#, kid
	jne	.L223	#,
	.loc 1 949 0 is_stmt 1
	jmp	.L221	#
.L211:
	.loc 1 955 0
	movq	-24(%rbp), %rax	# o, tmp108
	movzbl	36(%rax), %eax	# o_5(D)->op_flags, D.21549
	movzbl	%al, %eax	# D.21549, D.21550
	andl	$4, %eax	#, D.21550
	testl	%eax, %eax	# D.21550
	jne	.L224	#,
	.loc 1 956 0
	jmp	.L221	#
.L224:
	.loc 1 957 0
	movq	-24(%rbp), %rax	# o, tmp109
	movq	(%rax), %rax	# o_5(D)->op_next, D.21548
	testq	%rax, %rax	# D.21548
	jne	.L216	#,
	.loc 1 957 0 is_stmt 0 discriminator 1
	movq	-24(%rbp), %rax	# o, tmp110
	movq	40(%rax), %rax	# MEM[(struct UNOP *)o_5(D)].op_first, D.21548
	movzwl	32(%rax), %eax	# _31->op_type, D.21551
	cmpw	$158, %ax	#, D.21551
	jne	.L216	#,
	.loc 1 958 0 is_stmt 1
	movq	-24(%rbp), %rax	# o, tmp111
	movq	40(%rax), %rax	# MEM[(struct BINOP *)o_5(D)].op_first, D.21548
	movq	%rax, %rdi	# D.21548,
	call	Perl_list	#
	.loc 1 959 0
	movq	-24(%rbp), %rax	# o, tmp112
	movq	%rax, %rdi	# tmp112,
	call	Perl_gen_constant_list	#
	jmp	.L209	#
.L216:
	.loc 1 962 0
	movq	-24(%rbp), %rax	# o, tmp113
	movq	%rax, %rdi	# tmp113,
	call	Perl_listkids	#
	.loc 1 963 0
	jmp	.L221	#
.L219:
	.loc 1 966 0
	movq	-24(%rbp), %rax	# o, tmp114
	movq	40(%rax), %rax	# MEM[(struct LISTOP *)o_5(D)].op_first, tmp115
	movq	%rax, -8(%rbp)	# tmp115, kid
	.loc 1 967 0
	movq	-8(%rbp), %rax	# kid, tmp116
	movq	%rax, %rdi	# tmp116,
	call	Perl_list	#
	.loc 1 968 0
	jmp	.L225	#
.L227:
	.loc 1 969 0
	movq	-8(%rbp), %rax	# kid, tmp117
	movq	8(%rax), %rax	# kid_36->op_sibling, D.21548
	testq	%rax, %rax	# D.21548
	je	.L226	#,
	.loc 1 970 0
	movq	-8(%rbp), %rax	# kid, tmp118
	movq	%rax, %rdi	# tmp118,
	call	Perl_scalarvoid	#
	jmp	.L225	#
.L226:
	.loc 1 972 0
	movq	-8(%rbp), %rax	# kid, tmp119
	movq	%rax, %rdi	# tmp119,
	call	Perl_list	#
.L225:
	.loc 1 968 0 discriminator 1
	movq	-8(%rbp), %rax	# kid, tmp120
	movq	8(%rax), %rax	# kid_2->op_sibling, tmp121
	movq	%rax, -8(%rbp)	# tmp121, kid
	cmpq	$0, -8(%rbp)	#, kid
	jne	.L227	#,
.LBB8:
	.loc 1 974 0
	movl	$PL_compiling, %eax	#, PL_compiling.60
	movq	%rax, PL_curcop(%rip)	# PL_compiling.60, PL_curcop
.LBE8:
	.loc 1 975 0
	jmp	.L221	#
.L217:
	.loc 1 978 0
	movq	-24(%rbp), %rax	# o, tmp122
	movq	40(%rax), %rax	# MEM[(struct LISTOP *)o_5(D)].op_first, tmp123
	movq	%rax, -8(%rbp)	# tmp123, kid
	jmp	.L228	#
.L231:
	.loc 1 979 0
	movq	-8(%rbp), %rax	# kid, tmp124
	movq	8(%rax), %rax	# kid_3->op_sibling, D.21548
	testq	%rax, %rax	# D.21548
	je	.L229	#,
	.loc 1 980 0
	movq	-8(%rbp), %rax	# kid, tmp125
	movq	%rax, %rdi	# tmp125,
	call	Perl_scalarvoid	#
	jmp	.L230	#
.L229:
	.loc 1 982 0
	movq	-8(%rbp), %rax	# kid, tmp126
	movq	%rax, %rdi	# tmp126,
	call	Perl_list	#
.L230:
	.loc 1 978 0
	movq	-8(%rbp), %rax	# kid, tmp127
	movq	8(%rax), %rax	# kid_3->op_sibling, tmp128
	movq	%rax, -8(%rbp)	# tmp128, kid
.L228:
	.loc 1 978 0 is_stmt 0 discriminator 1
	cmpq	$0, -8(%rbp)	#, kid
	jne	.L231	#,
.LBB9:
	.loc 1 984 0 is_stmt 1
	movl	$PL_compiling, %eax	#, PL_compiling.61
	movq	%rax, PL_curcop(%rip)	# PL_compiling.61, PL_curcop
.LBE9:
	.loc 1 985 0
	jmp	.L221	#
.L220:
	.loc 1 988 0
	movq	-24(%rbp), %rax	# o, tmp129
	movzbl	36(%rax), %eax	# o_5(D)->op_flags, D.21549
	andl	$-4, %eax	#, D.21549
	movl	%eax, %edx	# D.21549, D.21549
	movq	-24(%rbp), %rax	# o, tmp130
	movb	%dl, 36(%rax)	# D.21549, o_5(D)->op_flags
	.loc 1 989 0
	movq	-24(%rbp), %rax	# o, tmp131
	movq	%rax, %rdi	# tmp131,
	call	Perl_scalar	#
	jmp	.L209	#
.L221:
	.loc 1 991 0
	movq	-24(%rbp), %rax	# o, D.21548
.L209:
	.loc 1 992 0
	leave
	.cfi_def_cfa 7, 8
	ret
	.cfi_endproc
.LFE21:
	.size	Perl_list, .-Perl_list
	.globl	Perl_scalarseq
	.type	Perl_scalarseq, @function
Perl_scalarseq:
.LFB22:
	.loc 1 996 0
	.cfi_startproc
	pushq	%rbp	#
	.cfi_def_cfa_offset 16
	.cfi_offset 6, -16
	movq	%rsp, %rbp	#,
	.cfi_def_cfa_register 6
	subq	$32, %rsp	#,
	movq	%rdi, -24(%rbp)	# o, o
	.loc 1 999 0
	cmpq	$0, -24(%rbp)	#, o
	je	.L233	#,
	.loc 1 1000 0
	movq	-24(%rbp), %rax	# o, tmp72
	movzwl	32(%rax), %eax	# o_3(D)->op_type, D.21557
	cmpw	$173, %ax	#, D.21557
	je	.L234	#,
	.loc 1 1001 0 discriminator 1
	movq	-24(%rbp), %rax	# o, tmp73
	movzwl	32(%rax), %eax	# o_3(D)->op_type, D.21557
	.loc 1 1000 0 discriminator 1
	cmpw	$179, %ax	#, D.21557
	je	.L234	#,
	.loc 1 1002 0
	movq	-24(%rbp), %rax	# o, tmp74
	movzwl	32(%rax), %eax	# o_3(D)->op_type, D.21557
	.loc 1 1001 0
	cmpw	$178, %ax	#, D.21557
	je	.L234	#,
	.loc 1 1003 0
	movq	-24(%rbp), %rax	# o, tmp75
	movzwl	32(%rax), %eax	# o_3(D)->op_type, D.21557
	.loc 1 1002 0
	cmpw	$314, %ax	#, D.21557
	jne	.L235	#,
.L234:
	.loc 1 1005 0
	movq	-24(%rbp), %rax	# o, tmp76
	movq	40(%rax), %rax	# MEM[(struct LISTOP *)o_3(D)].op_first, tmp77
	movq	%rax, -8(%rbp)	# tmp77, kid
	jmp	.L236	#
.L238:
	.loc 1 1006 0
	movq	-8(%rbp), %rax	# kid, tmp78
	movq	8(%rax), %rax	# kid_2->op_sibling, D.21558
	testq	%rax, %rax	# D.21558
	je	.L237	#,
	.loc 1 1007 0
	movq	-8(%rbp), %rax	# kid, tmp79
	movq	%rax, %rdi	# tmp79,
	call	Perl_scalarvoid	#
.L237:
	.loc 1 1005 0
	movq	-8(%rbp), %rax	# kid, tmp80
	movq	8(%rax), %rax	# kid_2->op_sibling, tmp81
	movq	%rax, -8(%rbp)	# tmp81, kid
.L236:
	.loc 1 1005 0 is_stmt 0 discriminator 1
	cmpq	$0, -8(%rbp)	#, kid
	jne	.L238	#,
	.loc 1 1010 0 is_stmt 1
	movq	$PL_compiling, PL_curcop(%rip)	#, PL_curcop
.L235:
	.loc 1 1012 0
	movq	-24(%rbp), %rax	# o, tmp82
	movzbl	36(%rax), %eax	# o_3(D)->op_flags, D.21559
	andl	$-9, %eax	#, D.21559
	movl	%eax, %edx	# D.21559, D.21559
	movq	-24(%rbp), %rax	# o, tmp83
	movb	%dl, 36(%rax)	# D.21559, o_3(D)->op_flags
	.loc 1 1013 0
	movl	PL_hints(%rip), %eax	# PL_hints, PL_hints.62
	andl	$256, %eax	#, D.21560
	testl	%eax, %eax	# D.21560
	je	.L240	#,
	.loc 1 1014 0
	movq	-24(%rbp), %rax	# o, tmp84
	movzbl	36(%rax), %eax	# o_3(D)->op_flags, D.21559
	orl	$8, %eax	#, D.21559
	movl	%eax, %edx	# D.21559, D.21559
	movq	-24(%rbp), %rax	# o, tmp85
	movb	%dl, 36(%rax)	# D.21559, o_3(D)->op_flags
	jmp	.L240	#
.L233:
	.loc 1 1017 0
	movl	$0, %esi	#,
	movl	$1, %edi	#,
	call	Perl_newOP	#
	movq	%rax, -24(%rbp)	# tmp86, o
.L240:
	.loc 1 1018 0
	movq	-24(%rbp), %rax	# o, D.21558
	.loc 1 1019 0
	leave
	.cfi_def_cfa 7, 8
	ret
	.cfi_endproc
.LFE22:
	.size	Perl_scalarseq, .-Perl_scalarseq
	.type	S_modkids, @function
S_modkids:
.LFB23:
	.loc 1 1023 0
	.cfi_startproc
	pushq	%rbp	#
	.cfi_def_cfa_offset 16
	.cfi_offset 6, -16
	movq	%rsp, %rbp	#,
	.cfi_def_cfa_register 6
	subq	$32, %rsp	#,
	movq	%rdi, -24(%rbp)	# o, o
	movl	%esi, -28(%rbp)	# type, type
	.loc 1 1025 0
	cmpq	$0, -24(%rbp)	#, o
	je	.L243	#,
	.loc 1 1025 0 is_stmt 0 discriminator 1
	movq	-24(%rbp), %rax	# o, tmp64
	movzbl	36(%rax), %eax	# o_2(D)->op_flags, D.21561
	movzbl	%al, %eax	# D.21561, D.21562
	andl	$4, %eax	#, D.21562
	testl	%eax, %eax	# D.21562
	je	.L243	#,
	.loc 1 1026 0 is_stmt 1
	movq	-24(%rbp), %rax	# o, tmp65
	movq	40(%rax), %rax	# MEM[(struct LISTOP *)o_2(D)].op_first, tmp66
	movq	%rax, -8(%rbp)	# tmp66, kid
	jmp	.L244	#
.L245:
	.loc 1 1027 0 discriminator 2
	movl	-28(%rbp), %edx	# type, tmp67
	movq	-8(%rbp), %rax	# kid, tmp68
	movl	%edx, %esi	# tmp67,
	movq	%rax, %rdi	# tmp68,
	call	Perl_mod	#
	.loc 1 1026 0 discriminator 2
	movq	-8(%rbp), %rax	# kid, tmp69
	movq	8(%rax), %rax	# kid_1->op_sibling, tmp70
	movq	%rax, -8(%rbp)	# tmp70, kid
.L244:
	.loc 1 1026 0 is_stmt 0 discriminator 1
	cmpq	$0, -8(%rbp)	#, kid
	jne	.L245	#,
.L243:
	.loc 1 1029 0 is_stmt 1
	movq	-24(%rbp), %rax	# o, D.21563
	.loc 1 1030 0
	leave
	.cfi_def_cfa 7, 8
	ret
	.cfi_endproc
.LFE23:
	.size	S_modkids, .-S_modkids
	.section	.rodata
.LC21:
	.string	"That use of $[ is unsupported"
	.align 8
.LC22:
	.string	"panic: unexpected lvalue entersub args: type/targ %ld:%lu"
	.align 8
.LC23:
	.string	"panic: unexpected lvalue entersub entry via type/targ %ld:%lu"
	.align 8
.LC24:
	.string	"Unexpected constant lvalue entersub entry via type/targ %ld:%lu"
.LC25:
	.string	"local"
.LC26:
	.string	"non-lvalue subroutine call"
.LC27:
	.string	"do block"
.LC28:
	.string	"Can't modify %s in %s"
	.align 8
.LC29:
	.string	"Can't localize lexical variable %s"
	.text
	.globl	Perl_mod
	.type	Perl_mod, @function
Perl_mod:
.LFB24:
	.loc 1 1034 0
	.cfi_startproc
	pushq	%rbp	#
	.cfi_def_cfa_offset 16
	.cfi_offset 6, -16
	movq	%rsp, %rbp	#,
	.cfi_def_cfa_register 6
	pushq	%rbx	#
	subq	$72, %rsp	#,
	.cfi_offset 3, -24
	movq	%rdi, -72(%rbp)	# o, o
	movl	%esi, -76(%rbp)	# type, type
	.loc 1 1037 0
	cmpq	$0, -72(%rbp)	#, o
	je	.L248	#,
	.loc 1 1037 0 is_stmt 0 discriminator 1
	movl	PL_error_count(%rip), %eax	# PL_error_count, PL_error_count.63
	testl	%eax, %eax	# PL_error_count.63
	je	.L249	#,
.L248:
	.loc 1 1038 0 is_stmt 1
	movq	-72(%rbp), %rax	# o, D.21564
	jmp	.L250	#
.L249:
	.loc 1 1040 0
	movq	-72(%rbp), %rax	# o, tmp258
	movzbl	37(%rax), %eax	# o_13(D)->op_private, D.21565
	movzbl	%al, %eax	# D.21565, D.21566
	andl	$16, %eax	#, D.21566
	testl	%eax, %eax	# D.21566
	je	.L251	#,
	.loc 1 1041 0
	movq	-72(%rbp), %rax	# o, tmp259
	movzwl	32(%rax), %eax	# o_13(D)->op_type, D.21567
	movzwl	%ax, %eax	# D.21567, D.21566
	cltq
	movl	PL_opargs(,%rax,4), %eax	# PL_opargs, D.21568
	andl	$256, %eax	#, D.21568
	testl	%eax, %eax	# D.21568
	je	.L251	#,
	.loc 1 1043 0
	movq	-72(%rbp), %rax	# o, D.21564
	jmp	.L250	#
.L251:
	.loc 1 1046 0
	movq	-72(%rbp), %rax	# o, tmp261
	movzwl	32(%rax), %eax	# o_13(D)->op_type, D.21567
	movzwl	%ax, %eax	# D.21567, D.21566
	cmpl	$184, %eax	#, D.21566
	ja	.L252	#,
	movl	%eax, %eax	# D.21566, tmp262
	movq	.L254(,%rax,8), %rax	#, tmp263
	jmp	*%rax	# tmp263
	.section	.rodata
	.align 8
	.align 4
.L254:
	.quad	.L253
	.quad	.L255
	.quad	.L252
	.quad	.L345
	.quad	.L252
	.quad	.L257
	.quad	.L252
	.quad	.L258
	.quad	.L252
	.quad	.L259
	.quad	.L260
	.quad	.L260
	.quad	.L252
	.quad	.L252
	.quad	.L261
	.quad	.L262
	.quad	.L258
	.quad	.L252
	.quad	.L252
	.quad	.L252
	.quad	.L252
	.quad	.L252
	.quad	.L252
	.quad	.L252
	.quad	.L252
	.quad	.L252
	.quad	.L252
	.quad	.L252
	.quad	.L252
	.quad	.L252
	.quad	.L252
	.quad	.L252
	.quad	.L252
	.quad	.L252
	.quad	.L252
	.quad	.L252
	.quad	.L263
	.quad	.L264
	.quad	.L252
	.quad	.L252
	.quad	.L252
	.quad	.L252
	.quad	.L252
	.quad	.L265
	.quad	.L252
	.quad	.L266
	.quad	.L267
	.quad	.L252
	.quad	.L267
	.quad	.L252
	.quad	.L252
	.quad	.L252
	.quad	.L252
	.quad	.L252
	.quad	.L267
	.quad	.L267
	.quad	.L267
	.quad	.L267
	.quad	.L267
	.quad	.L267
	.quad	.L267
	.quad	.L267
	.quad	.L267
	.quad	.L267
	.quad	.L267
	.quad	.L267
	.quad	.L267
	.quad	.L252
	.quad	.L267
	.quad	.L267
	.quad	.L252
	.quad	.L252
	.quad	.L252
	.quad	.L252
	.quad	.L252
	.quad	.L252
	.quad	.L252
	.quad	.L252
	.quad	.L252
	.quad	.L252
	.quad	.L252
	.quad	.L252
	.quad	.L252
	.quad	.L252
	.quad	.L252
	.quad	.L252
	.quad	.L252
	.quad	.L252
	.quad	.L252
	.quad	.L252
	.quad	.L252
	.quad	.L267
	.quad	.L267
	.quad	.L267
	.quad	.L252
	.quad	.L252
	.quad	.L252
	.quad	.L252
	.quad	.L252
	.quad	.L252
	.quad	.L252
	.quad	.L252
	.quad	.L252
	.quad	.L252
	.quad	.L252
	.quad	.L252
	.quad	.L252
	.quad	.L252
	.quad	.L252
	.quad	.L252
	.quad	.L252
	.quad	.L268
	.quad	.L266
	.quad	.L252
	.quad	.L252
	.quad	.L252
	.quad	.L252
	.quad	.L252
	.quad	.L252
	.quad	.L252
	.quad	.L252
	.quad	.L252
	.quad	.L252
	.quad	.L252
	.quad	.L252
	.quad	.L269
	.quad	.L263
	.quad	.L270
	.quad	.L271
	.quad	.L252
	.quad	.L252
	.quad	.L272
	.quad	.L252
	.quad	.L252
	.quad	.L269
	.quad	.L270
	.quad	.L271
	.quad	.L252
	.quad	.L252
	.quad	.L252
	.quad	.L252
	.quad	.L273
	.quad	.L252
	.quad	.L252
	.quad	.L252
	.quad	.L252
	.quad	.L252
	.quad	.L252
	.quad	.L252
	.quad	.L252
	.quad	.L252
	.quad	.L252
	.quad	.L252
	.quad	.L252
	.quad	.L252
	.quad	.L252
	.quad	.L252
	.quad	.L252
	.quad	.L252
	.quad	.L252
	.quad	.L252
	.quad	.L252
	.quad	.L274
	.quad	.L263
	.quad	.L263
	.quad	.L252
	.quad	.L275
	.quad	.L252
	.quad	.L252
	.quad	.L252
	.quad	.L252
	.quad	.L252
	.quad	.L252
	.quad	.L276
	.quad	.L264
	.quad	.L264
	.quad	.L252
	.quad	.L276
	.quad	.L276
	.quad	.L276
	.quad	.L252
	.quad	.L252
	.quad	.L252
	.quad	.L252
	.quad	.L277
	.text
.L265:
	.loc 1 1048 0
	movl	PL_modcount(%rip), %eax	# PL_modcount, PL_modcount.64
	addl	$1, %eax	#, PL_modcount.65
	movl	%eax, PL_modcount(%rip)	# PL_modcount.65, PL_modcount
	.loc 1 1049 0
	movq	-72(%rbp), %rax	# o, D.21564
	jmp	.L250	#
.L257:
	.loc 1 1051 0
	movq	-72(%rbp), %rax	# o, tmp264
	movzbl	37(%rax), %eax	# o_13(D)->op_private, D.21565
	movzbl	%al, %eax	# D.21565, D.21566
	andl	$32, %eax	#, D.21566
	testl	%eax, %eax	# D.21566
	jne	.L278	#,
	.loc 1 1052 0
	jmp	.L252	#
.L278:
	.loc 1 1053 0
	movq	PL_eval_start(%rip), %rax	# PL_eval_start, PL_eval_start.66
	testq	%rax, %rax	# PL_eval_start.66
	je	.L279	#,
	.loc 1 1053 0 is_stmt 0 discriminator 1
	movq	PL_eval_start(%rip), %rax	# PL_eval_start, PL_eval_start.67
	movzwl	32(%rax), %eax	# PL_eval_start.67_32->op_type, D.21567
	cmpw	$5, %ax	#, D.21567
	jne	.L279	#,
	.loc 1 1054 0 is_stmt 1
	movq	PL_eval_start(%rip), %rax	# PL_eval_start, PL_eval_start.69
	movq	40(%rax), %rax	# MEM[(struct SVOP *)PL_eval_start.69_34].op_sv, D.21569
	movl	12(%rax), %eax	# _35->sv_flags, D.21568
	andl	$65536, %eax	#, D.21568
	testl	%eax, %eax	# D.21568
	je	.L280	#,
	.loc 1 1054 0 is_stmt 0 discriminator 1
	movq	PL_eval_start(%rip), %rax	# PL_eval_start, PL_eval_start.70
	movq	40(%rax), %rax	# MEM[(struct SVOP *)PL_eval_start.70_38].op_sv, D.21569
	movq	(%rax), %rax	# _39->sv_any, D.21570
	movq	24(%rax), %rax	# MEM[(struct XPVIV *)_40].xiv_iv, D.21571
	jmp	.L281	#
.L280:
	.loc 1 1054 0 discriminator 2
	movq	PL_eval_start(%rip), %rax	# PL_eval_start, PL_eval_start.71
	movq	40(%rax), %rax	# MEM[(struct SVOP *)PL_eval_start.71_43].op_sv, D.21569
	movq	%rax, %rdi	# D.21569,
	call	Perl_sv_2iv	#
.L281:
	.loc 1 1054 0 discriminator 3
	movl	%eax, PL_compiling+68(%rip)	# iftmp.68, PL_compiling.cop_arybase
	.loc 1 1055 0 is_stmt 1 discriminator 3
	movq	$0, PL_eval_start(%rip)	#, PL_eval_start
	jmp	.L282	#
.L279:
	.loc 1 1057 0
	cmpl	$0, -76(%rbp)	#, type
	jne	.L283	#,
	.loc 1 1058 0
	movl	$PL_compiling+68, %edi	#,
	call	Perl_save_I32	#
	.loc 1 1059 0
	movl	$0, PL_compiling+68(%rip)	#, PL_compiling.cop_arybase
	jmp	.L282	#
.L283:
	.loc 1 1061 0
	cmpl	$20, -76(%rbp)	#, type
	jne	.L284	#,
	.loc 1 1062 0
	jmp	.L252	#
.L284:
	.loc 1 1064 0
	movl	$.LC21, %edi	#,
	movl	$0, %eax	#,
	call	Perl_croak	#
	.loc 1 1065 0
	jmp	.L285	#
.L282:
	jmp	.L285	#
.L255:
	.loc 1 1067 0
	movq	-72(%rbp), %rax	# o, tmp265
	movzbl	36(%rax), %eax	# o_13(D)->op_flags, D.21565
	movzbl	%al, %eax	# D.21565, D.21566
	andl	$8, %eax	#, D.21566
	testl	%eax, %eax	# D.21566
	je	.L286	#,
	.loc 1 1068 0
	jmp	.L285	#
.L286:
	.loc 1 1069 0
	jmp	.L252	#
.L275:
	.loc 1 1071 0
	cmpl	$43, -76(%rbp)	#, type
	je	.L287	#,
	.loc 1 1071 0 is_stmt 0 discriminator 2
	cmpl	$20, -76(%rbp)	#, type
	jne	.L288	#,
.L287:
	.loc 1 1072 0 is_stmt 1 discriminator 1
	movq	-72(%rbp), %rax	# o, tmp266
	movzbl	36(%rax), %eax	# o_13(D)->op_flags, D.21565
	movzbl	%al, %eax	# D.21565, D.21566
	andl	$64, %eax	#, D.21566
	.loc 1 1071 0 discriminator 1
	testl	%eax, %eax	# D.21566
	jne	.L288	#,
	.loc 1 1073 0
	movq	-72(%rbp), %rax	# o, tmp267
	movw	$17, 32(%rax)	#, o_13(D)->op_type
	.loc 1 1074 0
	movq	PL_ppaddr+136(%rip), %rdx	# PL_ppaddr, D.21572
	movq	-72(%rbp), %rax	# o, tmp268
	movq	%rdx, 16(%rax)	# D.21572, o_13(D)->op_ppaddr
	.loc 1 1076 0
	movq	-72(%rbp), %rax	# o, tmp269
	movq	40(%rax), %rax	# MEM[(struct UNOP *)o_13(D)].op_first, D.21564
	movq	40(%rax), %rax	# MEM[(struct LISTOP *)_55].op_first, D.21564
	movq	%rax, %rdi	# D.21564,
	call	Perl_op_null	#
	.loc 1 1077 0
	jmp	.L285	#
.L288:
	.loc 1 1079 0
	movq	-72(%rbp), %rax	# o, tmp270
	movzbl	37(%rax), %eax	# o_13(D)->op_private, D.21565
	movzbl	%al, %eax	# D.21565, D.21566
	andl	$64, %eax	#, D.21566
	testl	%eax, %eax	# D.21566
	je	.L289	#,
	.loc 1 1080 0
	movq	-72(%rbp), %rax	# o, D.21564
	jmp	.L250	#
.L289:
	.loc 1 1082 0
	movq	-72(%rbp), %rax	# o, tmp271
	movzbl	37(%rax), %eax	# o_13(D)->op_private, D.21565
	orl	$-128, %eax	#, D.21565
	movl	%eax, %edx	# D.21565, D.21565
	movq	-72(%rbp), %rax	# o, tmp272
	movb	%dl, 37(%rax)	# D.21565, o_13(D)->op_private
	.loc 1 1083 0
	movl	$1073741823, PL_modcount(%rip)	#, PL_modcount
	.loc 1 1084 0
	cmpl	$152, -76(%rbp)	#, type
	je	.L290	#,
	.loc 1 1084 0 is_stmt 0 discriminator 1
	cmpl	$166, -76(%rbp)	#, type
	je	.L290	#,
	cmpl	$20, -76(%rbp)	#, type
	jne	.L291	#,
.L290:
	.loc 1 1086 0 is_stmt 1
	movq	-72(%rbp), %rax	# o, tmp273
	movzbl	37(%rax), %eax	# o_13(D)->op_private, D.21565
	orl	$4, %eax	#, D.21565
	movl	%eax, %edx	# D.21565, D.21565
	movq	-72(%rbp), %rax	# o, tmp274
	movb	%dl, 37(%rax)	# D.21565, o_13(D)->op_private
	.loc 1 1087 0
	jmp	.L285	#
.L291:
.LBB10:
	.loc 1 1090 0
	movq	-72(%rbp), %rax	# o, tmp275
	movq	40(%rax), %rax	# MEM[(struct UNOP *)o_13(D)].op_first, tmp276
	movq	%rax, -48(%rbp)	# tmp276, kid
	.loc 1 1094 0
	movq	-48(%rbp), %rax	# kid, tmp277
	movzwl	32(%rax), %eax	# kid_63->op_type, D.21567
	cmpw	$3, %ax	#, D.21567
	jne	.L292	#,
	.loc 1 1095 0
	nop
.L293:
	.loc 1 1103 0
	jmp	.L296	#
.L292:
	.loc 1 1096 0
	movq	-48(%rbp), %rax	# kid, tmp278
	movzwl	32(%rax), %eax	# kid_63->op_type, D.21567
	testw	%ax, %ax	# D.21567
	jne	.L294	#,
	.loc 1 1096 0 is_stmt 0 discriminator 1
	movq	-48(%rbp), %rax	# kid, tmp279
	movq	24(%rax), %rax	# kid_63->op_targ, D.21573
	cmpq	$141, %rax	#, D.21573
	je	.L295	#,
.L294:
	.loc 1 1097 0 is_stmt 1
	movq	-48(%rbp), %rax	# kid, tmp280
	movq	24(%rax), %rdx	# kid_63->op_targ, D.21573
	.loc 1 1100 0
	movq	-48(%rbp), %rax	# kid, tmp281
	movzwl	32(%rax), %eax	# kid_63->op_type, D.21567
	.loc 1 1097 0
	movzwl	%ax, %eax	# D.21567, D.21571
	movq	%rax, %rsi	# D.21571,
	movl	$.LC22, %edi	#,
	movl	$0, %eax	#,
	call	Perl_croak	#
.L295:
	.loc 1 1101 0
	movq	-48(%rbp), %rax	# kid, tmp282
	movq	40(%rax), %rax	# MEM[(struct LISTOP *)kid_63].op_first, tmp283
	movq	%rax, -48(%rbp)	# tmp283, kid
	.loc 1 1103 0
	jmp	.L296	#
.L297:
	.loc 1 1104 0
	movq	-48(%rbp), %rax	# kid, tmp284
	movq	8(%rax), %rax	# kid_4->op_sibling, tmp285
	movq	%rax, -48(%rbp)	# tmp285, kid
.L296:
	.loc 1 1103 0 discriminator 1
	movq	-48(%rbp), %rax	# kid, tmp286
	movq	8(%rax), %rax	# kid_4->op_sibling, D.21564
	testq	%rax, %rax	# D.21564
	jne	.L297	#,
	.loc 1 1105 0
	movq	-48(%rbp), %rax	# kid, tmp287
	movzwl	32(%rax), %eax	# kid_4->op_type, D.21567
	testw	%ax, %ax	# D.21567
	jne	.L298	#,
	.loc 1 1105 0 is_stmt 0 discriminator 1
	movq	-48(%rbp), %rax	# kid, tmp288
	movq	24(%rax), %rax	# kid_4->op_targ, D.21573
	cmpq	$17, %rax	#, D.21573
	je	.L299	#,
.L298:
	.loc 1 1107 0 is_stmt 1
	movq	-48(%rbp), %rax	# kid, tmp289
	movzwl	32(%rax), %eax	# kid_4->op_type, D.21567
	cmpw	$350, %ax	#, D.21567
	je	.L300	#,
	.loc 1 1108 0
	movq	-48(%rbp), %rax	# kid, tmp290
	movzwl	32(%rax), %eax	# kid_4->op_type, D.21567
	cmpw	$165, %ax	#, D.21567
	jne	.L301	#,
.L300:
.LBB11:
	.loc 1 1112 0
	movl	$48, %edi	#,
	call	Perl_safesysmalloc	#
	movq	%rax, -24(%rbp)	# tmp291, newop
	movq	-24(%rbp), %rax	# newop, tmp292
	movl	$48, %edx	#,
	movl	$0, %esi	#,
	movq	%rax, %rdi	# tmp292,
	call	memset	#
	.loc 1 1113 0
	movq	-24(%rbp), %rax	# newop, tmp293
	movw	$17, 32(%rax)	#, newop_107->op_type
	.loc 1 1114 0
	movq	PL_ppaddr+136(%rip), %rdx	# PL_ppaddr, D.21572
	movq	-24(%rbp), %rax	# newop, tmp294
	movq	%rdx, 16(%rax)	# D.21572, newop_107->op_ppaddr
	.loc 1 1115 0
	movq	-24(%rbp), %rax	# newop, tmp295
	movq	$0, 40(%rax)	#, newop_107->op_first
	.loc 1 1116 0
	movq	-24(%rbp), %rax	# newop, tmp296
	movq	-24(%rbp), %rdx	# newop, tmp297
	movq	%rdx, (%rax)	# tmp297, newop_107->op_next
	.loc 1 1117 0
	movq	-48(%rbp), %rax	# kid, tmp298
	movq	-24(%rbp), %rdx	# newop, tmp299
	movq	%rdx, 8(%rax)	# tmp299, kid_4->op_sibling
	.loc 1 1118 0
	movq	-24(%rbp), %rax	# newop, tmp300
	movzbl	37(%rax), %eax	# newop_107->op_private, D.21565
	orl	$-128, %eax	#, D.21565
	movl	%eax, %edx	# D.21565, D.21565
	movq	-24(%rbp), %rax	# newop, tmp301
	movb	%dl, 37(%rax)	# D.21565, newop_107->op_private
	.loc 1 1119 0
	jmp	.L285	#
.L301:
.LBE11:
	.loc 1 1122 0
	movq	-48(%rbp), %rax	# kid, tmp302
	movzwl	32(%rax), %eax	# kid_4->op_type, D.21567
	cmpw	$17, %ax	#, D.21567
	je	.L302	#,
	.loc 1 1123 0
	movq	-48(%rbp), %rax	# kid, tmp303
	movq	24(%rax), %rdx	# kid_4->op_targ, D.21573
	.loc 1 1126 0
	movq	-48(%rbp), %rax	# kid, tmp304
	movzwl	32(%rax), %eax	# kid_4->op_type, D.21567
	.loc 1 1123 0
	movzwl	%ax, %eax	# D.21567, D.21571
	movq	%rax, %rsi	# D.21571,
	movl	$.LC23, %edi	#,
	movl	$0, %eax	#,
	call	Perl_croak	#
.L302:
	.loc 1 1127 0
	movq	-48(%rbp), %rax	# kid, tmp305
	movzbl	37(%rax), %eax	# kid_4->op_private, D.21565
	orl	$-128, %eax	#, D.21565
	movl	%eax, %edx	# D.21565, D.21565
	movq	-48(%rbp), %rax	# kid, tmp306
	movb	%dl, 37(%rax)	# D.21565, kid_4->op_private
	.loc 1 1128 0
	jmp	.L285	#
.L299:
	.loc 1 1131 0
	movq	-48(%rbp), %rax	# kid, tmp307
	movq	%rax, -40(%rbp)	# tmp307, okid
	.loc 1 1132 0
	movq	-48(%rbp), %rax	# kid, tmp308
	movq	40(%rax), %rax	# MEM[(struct UNOP *)kid_4].op_first, tmp309
	movq	%rax, -48(%rbp)	# tmp309, kid
	.loc 1 1133 0
	movq	-48(%rbp), %rax	# kid, tmp310
	movzwl	32(%rax), %eax	# kid_76->op_type, D.21567
	testw	%ax, %ax	# D.21567
	jne	.L303	#,
	.loc 1 1133 0 is_stmt 0 discriminator 1
	movq	-48(%rbp), %rax	# kid, tmp311
	movq	24(%rax), %rax	# kid_76->op_targ, D.21573
	cmpq	$15, %rax	#, D.21573
	jne	.L303	#,
	.loc 1 1134 0 is_stmt 1
	movq	-48(%rbp), %rax	# kid, tmp312
	movq	40(%rax), %rax	# MEM[(struct UNOP *)kid_76].op_first, tmp313
	movq	%rax, -48(%rbp)	# tmp313, kid
.L303:
	.loc 1 1135 0
	movq	-48(%rbp), %rax	# kid, tmp314
	movzwl	32(%rax), %eax	# kid_5->op_type, D.21567
	testw	%ax, %ax	# D.21567
	jne	.L304	#,
	.loc 1 1136 0
	movq	-48(%rbp), %rax	# kid, tmp315
	movq	24(%rax), %rdx	# kid_5->op_targ, D.21573
	.loc 1 1139 0
	movq	-48(%rbp), %rax	# kid, tmp316
	movzwl	32(%rax), %eax	# kid_5->op_type, D.21567
	.loc 1 1136 0
	movzwl	%ax, %eax	# D.21567, D.21571
	movq	%rax, %rsi	# D.21571,
	movl	$.LC24, %edi	#,
	movl	$0, %eax	#,
	call	Perl_croak	#
.L304:
	.loc 1 1140 0
	movq	-48(%rbp), %rax	# kid, tmp317
	movzwl	32(%rax), %eax	# kid_5->op_type, D.21567
	cmpw	$7, %ax	#, D.21567
	je	.L305	#,
.L306:
	.loc 1 1143 0
	movq	-48(%rbp), %rax	# kid, tmp318
	movq	(%rax), %rax	# kid_5->op_next, D.21564
	testq	%rax, %rax	# D.21564
	je	.L307	#,
	.loc 1 1143 0 is_stmt 0 discriminator 1
	movq	-48(%rbp), %rax	# kid, tmp319
	movq	(%rax), %rax	# kid_5->op_next, D.21564
	cmpq	-48(%rbp), %rax	# kid, D.21564
	je	.L307	#,
	.loc 1 1144 0 is_stmt 1
	movq	-48(%rbp), %rax	# kid, tmp320
	movq	(%rax), %rdx	# kid_5->op_next, D.21564
	movq	-40(%rbp), %rax	# okid, tmp321
	movq	%rdx, (%rax)	# D.21564, okid_75->op_next
	.loc 1 1145 0
	movq	-48(%rbp), %rax	# kid, tmp322
	movq	-40(%rbp), %rdx	# okid, tmp323
	movq	%rdx, (%rax)	# tmp323, kid_5->op_next
	jmp	.L308	#
.L307:
	.loc 1 1148 0
	movq	-40(%rbp), %rax	# okid, tmp324
	movq	$0, (%rax)	#, okid_75->op_next
.L308:
	.loc 1 1149 0
	movq	-40(%rbp), %rax	# okid, tmp325
	movw	$17, 32(%rax)	#, okid_75->op_type
	.loc 1 1150 0
	movq	-40(%rbp), %rax	# okid, tmp326
	movq	$0, 24(%rax)	#, okid_75->op_targ
	.loc 1 1151 0
	movq	PL_ppaddr+136(%rip), %rdx	# PL_ppaddr, D.21572
	movq	-40(%rbp), %rax	# okid, tmp327
	movq	%rdx, 16(%rax)	# D.21572, okid_75->op_ppaddr
	.loc 1 1152 0
	movq	-40(%rbp), %rax	# okid, tmp328
	movzbl	37(%rax), %eax	# okid_75->op_private, D.21565
	orl	$-128, %eax	#, D.21565
	movl	%eax, %edx	# D.21565, D.21565
	movq	-40(%rbp), %rax	# okid, tmp329
	movb	%dl, 37(%rax)	# D.21565, okid_75->op_private
	.loc 1 1153 0
	jmp	.L285	#
.L305:
	.loc 1 1156 0
	movq	-48(%rbp), %rax	# kid, tmp330
	movq	40(%rax), %rax	# MEM[(struct SVOP *)kid_5].op_sv, D.21569
	movq	(%rax), %rax	# MEM[(struct GV *)_85].sv_any, D.21574
	movq	56(%rax), %rax	# _86->xgv_gp, D.21575
	movq	56(%rax), %rax	# _87->gp_cv, tmp331
	movq	%rax, -32(%rbp)	# tmp331, cv
	.loc 1 1157 0
	cmpq	$0, -32(%rbp)	#, cv
	jne	.L309	#,
	.loc 1 1158 0
	jmp	.L306	#
.L309:
	.loc 1 1159 0
	movq	-32(%rbp), %rax	# cv, tmp332
	movq	(%rax), %rax	# cv_88->sv_any, D.21576
	movzwl	136(%rax), %eax	# _89->xcv_flags, D.21567
	movzwl	%ax, %eax	# D.21567, D.21566
	andl	$256, %eax	#, D.21566
	testl	%eax, %eax	# D.21566
	je	.L252	#,
	.loc 1 1160 0
	jmp	.L285	#
.L252:
.LBE10:
	.loc 1 1167 0
	cmpl	$152, -76(%rbp)	#, type
	je	.L285	#,
	.loc 1 1167 0 is_stmt 0 discriminator 1
	cmpl	$166, -76(%rbp)	#, type
	je	.L285	#,
	cmpl	$20, -76(%rbp)	#, type
	je	.L285	#,
	.loc 1 1169 0 is_stmt 1
	cmpl	$0, -76(%rbp)	#, type
	je	.L310	#,
	.loc 1 1169 0 is_stmt 0 discriminator 1
	movl	-76(%rbp), %eax	# type, tmp334
	cltq
	movq	PL_op_desc(,%rax,8), %rbx	# PL_op_desc, iftmp.72
	jmp	.L311	#
.L310:
	.loc 1 1169 0 discriminator 2
	movl	$.LC25, %ebx	#, iftmp.72
.L311:
	.loc 1 1170 0 is_stmt 1 discriminator 3
	movq	-72(%rbp), %rax	# o, tmp335
	movzwl	32(%rax), %eax	# o_13(D)->op_type, D.21567
	.loc 1 1169 0 discriminator 3
	testw	%ax, %ax	# D.21567
	jne	.L312	#,
	.loc 1 1170 0
	movq	-72(%rbp), %rax	# o, tmp336
	movzbl	36(%rax), %eax	# o_13(D)->op_flags, D.21565
	testb	%al, %al	# D.21579
	js	.L313	#,
.L312:
	.loc 1 1172 0
	movq	-72(%rbp), %rax	# o, tmp337
	movzwl	32(%rax), %eax	# o_13(D)->op_type, D.21567
	.loc 1 1174 0
	cmpw	$166, %ax	#, D.21567
	je	.L314	#,
	.loc 1 1174 0 is_stmt 0 discriminator 1
	movq	-72(%rbp), %rax	# o, tmp338
	movzwl	32(%rax), %eax	# o_13(D)->op_type, D.21567
	cmpw	$351, %ax	#, D.21567
	jne	.L315	#,
	movq	-72(%rbp), %rax	# o, tmp339
	movq	%rax, %rdi	# tmp339,
	call	Perl_custom_op_desc	#
	jmp	.L317	#
.L315:
	.loc 1 1174 0 discriminator 2
	movq	-72(%rbp), %rax	# o, tmp340
	movzwl	32(%rax), %eax	# o_13(D)->op_type, D.21567
	movzwl	%ax, %eax	# D.21567, D.21566
	cltq
	movq	PL_op_desc(,%rax,8), %rax	# PL_op_desc, iftmp.75
	jmp	.L318	#
.L314:
	movl	$.LC26, %eax	#, iftmp.74
.L317:
	.loc 1 1169 0 is_stmt 1
	jmp	.L318	#
.L313:
	movl	$.LC27, %eax	#, iftmp.73
.L318:
	.loc 1 1169 0 is_stmt 0 discriminator 4
	movq	%rbx, %rdx	# iftmp.72,
	movq	%rax, %rsi	# iftmp.73,
	movl	$.LC28, %edi	#,
	movl	$0, %eax	#,
	call	Perl_form	#
	movq	%rax, %rdi	# D.21580,
	call	Perl_yyerror	#
	.loc 1 1176 0 is_stmt 1 discriminator 4
	movq	-72(%rbp), %rax	# o, D.21564
	jmp	.L250	#
.L267:
	.loc 1 1198 0
	movq	-72(%rbp), %rax	# o, tmp342
	movzbl	36(%rax), %eax	# o_13(D)->op_flags, D.21565
	movzbl	%al, %eax	# D.21565, D.21566
	andl	$64, %eax	#, D.21566
	testl	%eax, %eax	# D.21566
	jne	.L319	#,
	.loc 1 1199 0
	jmp	.L252	#
.L319:
	.loc 1 1200 0
	movl	PL_modcount(%rip), %eax	# PL_modcount, PL_modcount.76
	addl	$1, %eax	#, PL_modcount.77
	movl	%eax, PL_modcount(%rip)	# PL_modcount.77, PL_modcount
	.loc 1 1201 0
	jmp	.L285	#
.L274:
	.loc 1 1204 0
	movq	-72(%rbp), %rax	# o, tmp343
	movq	40(%rax), %rax	# MEM[(struct UNOP *)o_13(D)].op_first, D.21564
	movq	8(%rax), %rax	# _118->op_sibling, tmp344
	movq	%rax, -56(%rbp)	# tmp344, kid
	jmp	.L320	#
.L321:
	.loc 1 1205 0 discriminator 2
	movl	-76(%rbp), %edx	# type, tmp345
	movq	-56(%rbp), %rax	# kid, tmp346
	movl	%edx, %esi	# tmp345,
	movq	%rax, %rdi	# tmp346,
	call	Perl_mod	#
	.loc 1 1204 0 discriminator 2
	movq	-56(%rbp), %rax	# kid, tmp347
	movq	8(%rax), %rax	# kid_1->op_sibling, tmp348
	movq	%rax, -56(%rbp)	# tmp348, kid
.L320:
	.loc 1 1204 0 is_stmt 0 discriminator 1
	cmpq	$0, -56(%rbp)	#, kid
	jne	.L321	#,
	.loc 1 1206 0 is_stmt 1
	jmp	.L285	#
.L269:
	.loc 1 1210 0
	cmpl	$20, -76(%rbp)	#, type
	jne	.L261	#,
	.loc 1 1210 0 is_stmt 0 discriminator 1
	movq	-72(%rbp), %rax	# o, tmp349
	movzbl	36(%rax), %eax	# o_13(D)->op_flags, D.21565
	movzbl	%al, %eax	# D.21565, D.21566
	andl	$8, %eax	#, D.21566
	testl	%eax, %eax	# D.21566
	je	.L261	#,
	.loc 1 1211 0 is_stmt 1
	movl	$1073741823, PL_modcount(%rip)	#, PL_modcount
	.loc 1 1212 0
	movq	-72(%rbp), %rax	# o, D.21564
	jmp	.L250	#
.L261:
	.loc 1 1216 0
	movl	-76(%rbp), %edx	# type, tmp350
	movq	-72(%rbp), %rax	# o, tmp351
	movl	%edx, %esi	# tmp350,
	movq	%rax, %rdi	# tmp351,
	call	S_scalar_mod_type	#
	testb	%al, %al	# D.21577
	je	.L322	#,
	.loc 1 1217 0
	jmp	.L252	#
.L322:
	.loc 1 1218 0
	movq	-72(%rbp), %rax	# o, tmp352
	movzwl	32(%rax), %eax	# o_13(D)->op_type, D.21567
	movzwl	%ax, %edx	# D.21567, D.21566
	movq	-72(%rbp), %rax	# o, tmp353
	movq	40(%rax), %rax	# MEM[(struct UNOP *)o_13(D)].op_first, D.21564
	movl	%edx, %esi	# D.21566,
	movq	%rax, %rdi	# D.21564,
	call	Perl_ref	#
.L271:
	.loc 1 1222 0
	cmpl	$168, -76(%rbp)	#, type
	jne	.L264	#,
	.loc 1 1223 0
	movq	-72(%rbp), %rax	# o, tmp354
	movzbl	37(%rax), %eax	# o_13(D)->op_private, D.21565
	orl	$8, %eax	#, D.21565
	movl	%eax, %edx	# D.21565, D.21565
	movq	-72(%rbp), %rax	# o, tmp355
	movb	%dl, 37(%rax)	# D.21565, o_13(D)->op_private
.L264:
	.loc 1 1228 0
	movl	$1073741823, PL_modcount(%rip)	#, PL_modcount
	.loc 1 1229 0
	jmp	.L285	#
.L262:
	.loc 1 1231 0
	movq	-72(%rbp), %rax	# o, tmp356
	movzwl	32(%rax), %eax	# o_13(D)->op_type, D.21567
	movzwl	%ax, %edx	# D.21567, D.21566
	movq	-72(%rbp), %rax	# o, tmp357
	movq	40(%rax), %rax	# MEM[(struct UNOP *)o_13(D)].op_first, D.21564
	movl	%edx, %esi	# D.21566,
	movq	%rax, %rdi	# D.21564,
	call	Perl_ref	#
.L258:
	.loc 1 1235 0
	movl	PL_hints(%rip), %eax	# PL_hints, PL_hints.78
	orb	$1, %ah	#, PL_hints.79
	movl	%eax, PL_hints(%rip)	# PL_hints.79, PL_hints
.L263:
	.loc 1 1243 0
	movl	PL_modcount(%rip), %eax	# PL_modcount, PL_modcount.80
	addl	$1, %eax	#, PL_modcount.81
	movl	%eax, PL_modcount(%rip)	# PL_modcount.81, PL_modcount
	.loc 1 1244 0
	jmp	.L285	#
.L260:
	.loc 1 1248 0
	movl	$1073741823, PL_modcount(%rip)	#, PL_modcount
	.loc 1 1249 0
	cmpl	$20, -76(%rbp)	#, type
	jne	.L323	#,
	.loc 1 1249 0 is_stmt 0 discriminator 1
	movq	-72(%rbp), %rax	# o, tmp358
	movzbl	36(%rax), %eax	# o_13(D)->op_flags, D.21565
	movzbl	%al, %eax	# D.21565, D.21566
	andl	$8, %eax	#, D.21566
	testl	%eax, %eax	# D.21566
	je	.L323	#,
	.loc 1 1250 0 is_stmt 1
	movq	-72(%rbp), %rax	# o, D.21564
	jmp	.L250	#
.L323:
	.loc 1 1251 0
	movl	-76(%rbp), %edx	# type, tmp359
	movq	-72(%rbp), %rax	# o, tmp360
	movl	%edx, %esi	# tmp359,
	movq	%rax, %rdi	# tmp360,
	call	S_scalar_mod_type	#
	testb	%al, %al	# D.21577
	je	.L324	#,
	.loc 1 1252 0
	jmp	.L252	#
.L324:
	.loc 1 1253 0
	cmpl	$168, -76(%rbp)	#, type
	jne	.L259	#,
	.loc 1 1254 0
	movq	-72(%rbp), %rax	# o, tmp361
	movzbl	37(%rax), %eax	# o_13(D)->op_private, D.21565
	orl	$8, %eax	#, D.21565
	movl	%eax, %edx	# D.21565, D.21565
	movq	-72(%rbp), %rax	# o, tmp362
	movb	%dl, 37(%rax)	# D.21565, o_13(D)->op_private
.L259:
	.loc 1 1257 0
	movl	PL_modcount(%rip), %eax	# PL_modcount, PL_modcount.82
	addl	$1, %eax	#, PL_modcount.83
	movl	%eax, PL_modcount(%rip)	# PL_modcount.83, PL_modcount
	.loc 1 1258 0
	cmpl	$0, -76(%rbp)	#, type
	jne	.L325	#,
	.loc 1 1264 0
	movq	-72(%rbp), %rax	# o, tmp363
	movq	24(%rax), %rax	# o_13(D)->op_targ, D.21573
	movl	%eax, %ecx	# D.21573, D.21566
	movq	PL_comppad_name(%rip), %rax	# PL_comppad_name, PL_comppad_name.85
	movl	$0, %edx	#,
	movl	%ecx, %esi	# D.21566,
	movq	%rax, %rdi	# PL_comppad_name.85,
	call	Perl_av_fetch	#
	movq	(%rax), %rax	# *_150, D.21569
	movl	12(%rax), %eax	# _151->sv_flags, D.21568
	andl	$262144, %eax	#, D.21568
	.loc 1 1263 0
	testl	%eax, %eax	# D.21568
	je	.L326	#,
	.loc 1 1264 0
	movq	-72(%rbp), %rax	# o, tmp364
	movq	24(%rax), %rax	# o_13(D)->op_targ, D.21573
	movl	%eax, %ecx	# D.21573, D.21566
	movq	PL_comppad_name(%rip), %rax	# PL_comppad_name, PL_comppad_name.86
	movl	$0, %edx	#,
	movl	%ecx, %esi	# D.21566,
	movq	%rax, %rdi	# PL_comppad_name.86,
	call	Perl_av_fetch	#
	movq	(%rax), %rax	# *_157, D.21569
	movq	(%rax), %rax	# _158->sv_any, D.21570
	.loc 1 1263 0
	movq	(%rax), %rax	# MEM[(struct XPV *)_159].xpv_pv, iftmp.84
	jmp	.L327	#
.L326:
	.loc 1 1264 0 discriminator 1
	movq	-72(%rbp), %rax	# o, tmp365
	movq	24(%rax), %rax	# o_13(D)->op_targ, D.21573
	movl	%eax, %ecx	# D.21573, D.21566
	movq	PL_comppad_name(%rip), %rax	# PL_comppad_name, PL_comppad_name.87
	movl	$0, %edx	#,
	movl	%ecx, %esi	# D.21566,
	movq	%rax, %rdi	# PL_comppad_name.87,
	call	Perl_av_fetch	#
	movq	(%rax), %rax	# *_164, D.21569
	.loc 1 1263 0 discriminator 1
	movq	%rax, %rdi	# D.21569,
	call	Perl_sv_2pv_nolen	#
.L327:
	.loc 1 1263 0 is_stmt 0 discriminator 2
	movq	%rax, %rsi	# iftmp.84,
	movl	$.LC29, %edi	#,
	movl	$0, %eax	#,
	call	Perl_croak	#
	.loc 1 1266 0 is_stmt 1 discriminator 2
	jmp	.L285	#
.L325:
	.loc 1 1266 0 is_stmt 0
	jmp	.L285	#
.L272:
	.loc 1 1278 0 is_stmt 1
	cmpl	$36, -76(%rbp)	#, type
	je	.L328	#,
	.loc 1 1279 0
	jmp	.L252	#
.L328:
	.loc 1 1280 0
	jmp	.L329	#
.L268:
	.loc 1 1282 0
	movq	-72(%rbp), %rax	# o, tmp366
	movzbl	37(%rax), %eax	# o_13(D)->op_private, D.21565
	cmpb	$4, %al	#, D.21565
	jne	.L266	#,
	.loc 1 1283 0
	jmp	.L252	#
.L266:
	.loc 1 1287 0
	cmpl	$168, -76(%rbp)	#, type
	jne	.L329	#,
	.loc 1 1288 0
	movq	-72(%rbp), %rax	# o, tmp367
	movzbl	37(%rax), %eax	# o_13(D)->op_private, D.21565
	orl	$8, %eax	#, D.21565
	movl	%eax, %edx	# D.21565, D.21565
	movq	-72(%rbp), %rax	# o, tmp368
	movb	%dl, 37(%rax)	# D.21565, o_13(D)->op_private
.L329:
	.loc 1 1290 0
	movq	-72(%rbp), %rax	# o, tmp369
	movq	24(%rax), %rax	# o_13(D)->op_targ, D.21573
	movq	%rax, %rdi	# D.21573,
	call	Perl_pad_free	#
	.loc 1 1291 0
	movq	-72(%rbp), %rax	# o, tmp370
	movzwl	32(%rax), %eax	# o_13(D)->op_type, D.21567
	movzwl	%ax, %eax	# D.21567, D.21566
	movl	$1024, %esi	#,
	movl	%eax, %edi	# D.21566,
	call	Perl_pad_alloc	#
	movq	-72(%rbp), %rdx	# o, tmp371
	movq	%rax, 24(%rdx)	# D.21573, o_13(D)->op_targ
	.loc 1 1293 0
	movq	-72(%rbp), %rax	# o, tmp372
	movzbl	36(%rax), %eax	# o_13(D)->op_flags, D.21565
	movzbl	%al, %eax	# D.21565, D.21566
	andl	$4, %eax	#, D.21566
	testl	%eax, %eax	# D.21566
	je	.L330	#,
	.loc 1 1294 0
	movq	-72(%rbp), %rax	# o, tmp373
	movq	40(%rax), %rax	# MEM[(struct BINOP *)o_13(D)].op_first, D.21564
	movq	8(%rax), %rax	# _177->op_sibling, D.21564
	movl	-76(%rbp), %edx	# type, tmp374
	movl	%edx, %esi	# tmp374,
	movq	%rax, %rdi	# D.21564,
	call	Perl_mod	#
	.loc 1 1295 0
	jmp	.L285	#
.L330:
	jmp	.L285	#
.L270:
	.loc 1 1299 0
	movq	-72(%rbp), %rax	# o, tmp375
	movzwl	32(%rax), %eax	# o_13(D)->op_type, D.21567
	movzwl	%ax, %edx	# D.21567, D.21566
	movq	-72(%rbp), %rax	# o, tmp376
	movq	40(%rax), %rax	# MEM[(struct BINOP *)o_13(D)].op_first, D.21564
	movl	%edx, %esi	# D.21566,
	movq	%rax, %rdi	# D.21564,
	call	Perl_ref	#
	.loc 1 1300 0
	cmpl	$166, -76(%rbp)	#, type
	jne	.L331	#,
	.loc 1 1301 0 discriminator 1
	movq	-72(%rbp), %rax	# o, tmp377
	movzbl	37(%rax), %eax	# o_13(D)->op_private, D.21565
	movzbl	%al, %eax	# D.21565, D.21566
	andl	$224, %eax	#, D.21566
	.loc 1 1300 0 discriminator 1
	testl	%eax, %eax	# D.21566
	jne	.L331	#,
	.loc 1 1302 0
	movq	-72(%rbp), %rax	# o, tmp378
	movzbl	37(%rax), %eax	# o_13(D)->op_private, D.21565
	orl	$16, %eax	#, D.21565
	movl	%eax, %edx	# D.21565, D.21565
	movq	-72(%rbp), %rax	# o, tmp379
	movb	%dl, 37(%rax)	# D.21565, o_13(D)->op_private
.L331:
	.loc 1 1303 0
	cmpl	$168, -76(%rbp)	#, type
	jne	.L332	#,
	.loc 1 1304 0
	movq	-72(%rbp), %rax	# o, tmp380
	movzbl	37(%rax), %eax	# o_13(D)->op_private, D.21565
	orl	$8, %eax	#, D.21565
	movl	%eax, %edx	# D.21565, D.21565
	movq	-72(%rbp), %rax	# o, tmp381
	movb	%dl, 37(%rax)	# D.21565, o_13(D)->op_private
.L332:
	.loc 1 1305 0
	movl	PL_modcount(%rip), %eax	# PL_modcount, PL_modcount.88
	addl	$1, %eax	#, PL_modcount.89
	movl	%eax, PL_modcount(%rip)	# PL_modcount.89, PL_modcount
	.loc 1 1306 0
	jmp	.L285	#
.L276:
	.loc 1 1312 0
	movq	-72(%rbp), %rax	# o, tmp382
	movzbl	36(%rax), %eax	# o_13(D)->op_flags, D.21565
	movzbl	%al, %eax	# D.21565, D.21566
	andl	$4, %eax	#, D.21566
	testl	%eax, %eax	# D.21566
	je	.L333	#,
	.loc 1 1313 0
	movq	-72(%rbp), %rax	# o, tmp383
	movq	48(%rax), %rax	# MEM[(struct LISTOP *)o_13(D)].op_last, D.21564
	movl	-76(%rbp), %edx	# type, tmp384
	movl	%edx, %esi	# tmp384,
	movq	%rax, %rdi	# D.21564,
	call	Perl_mod	#
	.loc 1 1314 0
	jmp	.L285	#
.L333:
	jmp	.L285	#
.L253:
	.loc 1 1317 0
	movq	-72(%rbp), %rax	# o, tmp385
	movzbl	36(%rax), %eax	# o_13(D)->op_flags, D.21565
	testb	%al, %al	# D.21579
	jns	.L334	#,
	.loc 1 1318 0
	jmp	.L252	#
.L334:
	.loc 1 1319 0
	movq	-72(%rbp), %rax	# o, tmp386
	movzbl	36(%rax), %eax	# o_13(D)->op_flags, D.21565
	movzbl	%al, %eax	# D.21565, D.21566
	andl	$4, %eax	#, D.21566
	testl	%eax, %eax	# D.21566
	jne	.L335	#,
	.loc 1 1320 0
	jmp	.L285	#
.L335:
	.loc 1 1321 0
	movq	-72(%rbp), %rax	# o, tmp387
	movq	24(%rax), %rax	# o_13(D)->op_targ, D.21573
	cmpq	$141, %rax	#, D.21573
	je	.L273	#,
	.loc 1 1322 0
	movq	-72(%rbp), %rax	# o, tmp388
	movq	40(%rax), %rax	# MEM[(struct BINOP *)o_13(D)].op_first, D.21564
	movl	-76(%rbp), %edx	# type, tmp389
	movl	%edx, %esi	# tmp389,
	movq	%rax, %rdi	# D.21564,
	call	Perl_mod	#
	.loc 1 1323 0
	jmp	.L285	#
.L273:
	.loc 1 1327 0
	movq	-72(%rbp), %rax	# o, tmp390
	movq	40(%rax), %rax	# MEM[(struct LISTOP *)o_13(D)].op_first, tmp391
	movq	%rax, -56(%rbp)	# tmp391, kid
	jmp	.L336	#
.L337:
	.loc 1 1328 0 discriminator 2
	movl	-76(%rbp), %edx	# type, tmp392
	movq	-56(%rbp), %rax	# kid, tmp393
	movl	%edx, %esi	# tmp392,
	movq	%rax, %rdi	# tmp393,
	call	Perl_mod	#
	.loc 1 1327 0 discriminator 2
	movq	-56(%rbp), %rax	# kid, tmp394
	movq	8(%rax), %rax	# kid_2->op_sibling, tmp395
	movq	%rax, -56(%rbp)	# tmp395, kid
.L336:
	.loc 1 1327 0 is_stmt 0 discriminator 1
	cmpq	$0, -56(%rbp)	#, kid
	jne	.L337	#,
	.loc 1 1329 0 is_stmt 1
	jmp	.L285	#
.L277:
	.loc 1 1332 0
	cmpl	$168, -76(%rbp)	#, type
	je	.L338	#,
	.loc 1 1333 0
	jmp	.L252	#
.L338:
	.loc 1 1334 0
	jmp	.L285	#
.L345:
	.loc 1 1275 0
	nop
.L285:
	.loc 1 1340 0
	cmpl	$20, -76(%rbp)	#, type
	jne	.L339	#,
	.loc 1 1341 0 discriminator 1
	movq	-72(%rbp), %rax	# o, tmp396
	movzwl	32(%rax), %eax	# o_13(D)->op_type, D.21567
	movzwl	%ax, %eax	# D.21567, D.21566
	cltq
	movq	PL_check(,%rax,8), %rax	# PL_check, D.21581
	.loc 1 1340 0 discriminator 1
	cmpq	$Perl_ck_ftst, %rax	#, D.21581
	jne	.L339	#,
	.loc 1 1342 0
	movq	-72(%rbp), %rax	# o, D.21564
	jmp	.L250	#
.L339:
	.loc 1 1344 0
	cmpl	$168, -76(%rbp)	#, type
	je	.L340	#,
	.loc 1 1345 0
	movq	-72(%rbp), %rax	# o, tmp398
	movzbl	36(%rax), %eax	# o_13(D)->op_flags, D.21565
	orl	$32, %eax	#, D.21565
	movl	%eax, %edx	# D.21565, D.21565
	movq	-72(%rbp), %rax	# o, tmp399
	movb	%dl, 36(%rax)	# D.21565, o_13(D)->op_flags
.L340:
	.loc 1 1347 0
	cmpl	$37, -76(%rbp)	#, type
	je	.L341	#,
	.loc 1 1347 0 is_stmt 0 discriminator 1
	cmpl	$36, -76(%rbp)	#, type
	jne	.L342	#,
.L341:
	.loc 1 1348 0 is_stmt 1
	movq	-72(%rbp), %rax	# o, tmp400
	movzbl	36(%rax), %eax	# o_13(D)->op_flags, D.21565
	orl	$-112, %eax	#, D.21565
	movl	%eax, %edx	# D.21565, D.21565
	movq	-72(%rbp), %rax	# o, tmp401
	movb	%dl, 36(%rax)	# D.21565, o_13(D)->op_flags
	jmp	.L343	#
.L342:
	.loc 1 1349 0
	cmpl	$0, -76(%rbp)	#, type
	jne	.L344	#,
	.loc 1 1350 0
	movq	-72(%rbp), %rax	# o, tmp402
	movzbl	37(%rax), %eax	# o_13(D)->op_private, D.21565
	orl	$-128, %eax	#, D.21565
	movl	%eax, %edx	# D.21565, D.21565
	movq	-72(%rbp), %rax	# o, tmp403
	movb	%dl, 37(%rax)	# D.21565, o_13(D)->op_private
	.loc 1 1351 0
	movq	-72(%rbp), %rax	# o, tmp404
	movzbl	36(%rax), %eax	# o_13(D)->op_flags, D.21565
	andl	$127, %eax	#, D.21565
	movl	%eax, %edx	# D.21565, D.21565
	movq	-72(%rbp), %rax	# o, tmp405
	movb	%dl, 36(%rax)	# D.21565, o_13(D)->op_flags
	.loc 1 1352 0
	movl	PL_hints(%rip), %eax	# PL_hints, PL_hints.90
	orb	$1, %ah	#, PL_hints.91
	movl	%eax, PL_hints(%rip)	# PL_hints.91, PL_hints
	jmp	.L343	#
.L344:
	.loc 1 1354 0
	cmpl	$152, -76(%rbp)	#, type
	je	.L343	#,
	.loc 1 1354 0 is_stmt 0 discriminator 1
	cmpl	$166, -76(%rbp)	#, type
	je	.L343	#,
	.loc 1 1355 0 is_stmt 1
	cmpl	$168, -76(%rbp)	#, type
	je	.L343	#,
	.loc 1 1356 0
	movq	-72(%rbp), %rax	# o, tmp406
	movzbl	36(%rax), %eax	# o_13(D)->op_flags, D.21565
	orl	$16, %eax	#, D.21565
	movl	%eax, %edx	# D.21565, D.21565
	movq	-72(%rbp), %rax	# o, tmp407
	movb	%dl, 36(%rax)	# D.21565, o_13(D)->op_flags
.L343:
	.loc 1 1357 0
	movq	-72(%rbp), %rax	# o, D.21564
.L250:
	.loc 1 1358 0
	addq	$72, %rsp	#,
	popq	%rbx	#
	popq	%rbp	#
	.cfi_def_cfa 7, 8
	ret
	.cfi_endproc
.LFE24:
	.size	Perl_mod, .-Perl_mod
	.type	S_scalar_mod_type, @function
S_scalar_mod_type:
.LFB25:
	.loc 1 1362 0
	.cfi_startproc
	pushq	%rbp	#
	.cfi_def_cfa_offset 16
	.cfi_offset 6, -16
	movq	%rsp, %rbp	#,
	.cfi_def_cfa_register 6
	movq	%rdi, -8(%rbp)	# o, o
	movl	%esi, -12(%rbp)	# type, type
	.loc 1 1363 0
	movl	-12(%rbp), %eax	# type, type
	cmpl	$69, %eax	#, type
	jg	.L348	#,
	cmpl	$68, %eax	#, type
	jge	.L349	#,
	cmpl	$36, %eax	#, type
	je	.L350	#,
	cmpl	$36, %eax	#, type
	jg	.L351	#,
	cmpl	$33, %eax	#, type
	je	.L349	#,
	cmpl	$35, %eax	#, type
	je	.L349	#,
	jmp	.L347	#
.L351:
	subl	$46, %eax	#, tmp63
	cmpl	$20, %eax	#, tmp63
	ja	.L347	#,
	jmp	.L349	#
.L348:
	cmpl	$164, %eax	#, type
	jg	.L352	#,
	cmpl	$163, %eax	#, type
	jge	.L349	#,
	subl	$91, %eax	#, tmp64
	cmpl	$2, %eax	#, tmp64
	ja	.L347	#,
	jmp	.L349	#
.L352:
	cmpl	$212, %eax	#, type
	je	.L349	#,
	cmpl	$215, %eax	#, type
	je	.L349	#,
	cmpl	$205, %eax	#, type
	je	.L349	#,
	jmp	.L347	#
.L350:
	.loc 1 1365 0
	movq	-8(%rbp), %rax	# o, tmp65
	movzwl	32(%rax), %eax	# o_3(D)->op_type, D.21592
	cmpw	$14, %ax	#, D.21592
	jne	.L349	#,
	.loc 1 1366 0
	movl	$0, %eax	#, D.21591
	jmp	.L353	#
.L349:
	.loc 1 1401 0
	movl	$1, %eax	#, D.21591
	jmp	.L353	#
.L347:
	.loc 1 1403 0
	movl	$0, %eax	#, D.21591
.L353:
	.loc 1 1405 0
	popq	%rbp	#
	.cfi_def_cfa 7, 8
	ret
	.cfi_endproc
.LFE25:
	.size	S_scalar_mod_type, .-S_scalar_mod_type
	.type	S_is_handle_constructor, @function
S_is_handle_constructor:
.LFB26:
	.loc 1 1409 0
	.cfi_startproc
	pushq	%rbp	#
	.cfi_def_cfa_offset 16
	.cfi_offset 6, -16
	movq	%rsp, %rbp	#,
	.cfi_def_cfa_register 6
	movq	%rdi, -8(%rbp)	# o, o
	movl	%esi, -12(%rbp)	# argnum, argnum
	.loc 1 1410 0
	movq	-8(%rbp), %rax	# o, tmp63
	movzwl	32(%rax), %eax	# o_2(D)->op_type, D.21597
	movzwl	%ax, %eax	# D.21597, D.21598
	cmpl	$210, %eax	#, D.21598
	je	.L356	#,
	cmpl	$210, %eax	#, D.21598
	jg	.L357	#,
	cmpl	$193, %eax	#, D.21598
	je	.L358	#,
	cmpl	$203, %eax	#, D.21598
	je	.L356	#,
	cmpl	$191, %eax	#, D.21598
	je	.L356	#,
	jmp	.L355	#
.L357:
	cmpl	$224, %eax	#, D.21598
	je	.L358	#,
	cmpl	$224, %eax	#, D.21598
	jg	.L359	#,
	cmpl	$223, %eax	#, D.21598
	je	.L356	#,
	jmp	.L355	#
.L359:
	cmpl	$228, %eax	#, D.21598
	je	.L356	#,
	cmpl	$275, %eax	#, D.21598
	je	.L356	#,
	jmp	.L355	#
.L358:
	.loc 1 1413 0
	cmpl	$2, -12(%rbp)	#, argnum
	jne	.L356	#,
	.loc 1 1414 0
	movl	$1, %eax	#, D.21596
	jmp	.L360	#
.L356:
	.loc 1 1422 0
	cmpl	$1, -12(%rbp)	#, argnum
	jne	.L355	#,
	.loc 1 1423 0
	movl	$1, %eax	#, D.21596
	jmp	.L360	#
.L355:
	.loc 1 1426 0
	movl	$0, %eax	#, D.21596
.L360:
	.loc 1 1428 0
	popq	%rbp	#
	.cfi_def_cfa 7, 8
	ret
	.cfi_endproc
.LFE26:
	.size	S_is_handle_constructor, .-S_is_handle_constructor
	.globl	Perl_refkids
	.type	Perl_refkids, @function
Perl_refkids:
.LFB27:
	.loc 1 1432 0
	.cfi_startproc
	pushq	%rbp	#
	.cfi_def_cfa_offset 16
	.cfi_offset 6, -16
	movq	%rsp, %rbp	#,
	.cfi_def_cfa_register 6
	subq	$32, %rsp	#,
	movq	%rdi, -24(%rbp)	# o, o
	movl	%esi, -28(%rbp)	# type, type
	.loc 1 1434 0
	cmpq	$0, -24(%rbp)	#, o
	je	.L362	#,
	.loc 1 1434 0 is_stmt 0 discriminator 1
	movq	-24(%rbp), %rax	# o, tmp64
	movzbl	36(%rax), %eax	# o_2(D)->op_flags, D.21601
	movzbl	%al, %eax	# D.21601, D.21602
	andl	$4, %eax	#, D.21602
	testl	%eax, %eax	# D.21602
	je	.L362	#,
	.loc 1 1435 0 is_stmt 1
	movq	-24(%rbp), %rax	# o, tmp65
	movq	40(%rax), %rax	# MEM[(struct LISTOP *)o_2(D)].op_first, tmp66
	movq	%rax, -8(%rbp)	# tmp66, kid
	jmp	.L363	#
.L364:
	.loc 1 1436 0 discriminator 2
	movl	-28(%rbp), %edx	# type, tmp67
	movq	-8(%rbp), %rax	# kid, tmp68
	movl	%edx, %esi	# tmp67,
	movq	%rax, %rdi	# tmp68,
	call	Perl_ref	#
	.loc 1 1435 0 discriminator 2
	movq	-8(%rbp), %rax	# kid, tmp69
	movq	8(%rax), %rax	# kid_1->op_sibling, tmp70
	movq	%rax, -8(%rbp)	# tmp70, kid
.L363:
	.loc 1 1435 0 is_stmt 0 discriminator 1
	cmpq	$0, -8(%rbp)	#, kid
	jne	.L364	#,
.L362:
	.loc 1 1438 0 is_stmt 1
	movq	-24(%rbp), %rax	# o, D.21603
	.loc 1 1439 0
	leave
	.cfi_def_cfa 7, 8
	ret
	.cfi_endproc
.LFE27:
	.size	Perl_refkids, .-Perl_refkids
	.globl	Perl_ref
	.type	Perl_ref, @function
Perl_ref:
.LFB28:
	.loc 1 1443 0
	.cfi_startproc
	pushq	%rbp	#
	.cfi_def_cfa_offset 16
	.cfi_offset 6, -16
	movq	%rsp, %rbp	#,
	.cfi_def_cfa_register 6
	subq	$32, %rsp	#,
	movq	%rdi, -24(%rbp)	# o, o
	movl	%esi, -28(%rbp)	# type, type
	.loc 1 1446 0
	cmpq	$0, -24(%rbp)	#, o
	je	.L367	#,
	.loc 1 1446 0 is_stmt 0 discriminator 1
	movl	PL_error_count(%rip), %eax	# PL_error_count, PL_error_count.92
	testl	%eax, %eax	# PL_error_count.92
	je	.L368	#,
.L367:
	.loc 1 1447 0 is_stmt 1
	movq	-24(%rbp), %rax	# o, D.21604
	jmp	.L369	#
.L368:
	.loc 1 1449 0
	movq	-24(%rbp), %rax	# o, tmp116
	movzwl	32(%rax), %eax	# o_7(D)->op_type, D.21605
	movzwl	%ax, %eax	# D.21605, D.21606
	cmpl	$127, %eax	#, D.21606
	je	.L371	#,
	cmpl	$127, %eax	#, D.21606
	jg	.L372	#,
	cmpl	$11, %eax	#, D.21606
	jg	.L373	#,
	cmpl	$10, %eax	#, D.21606
	jge	.L374	#,
	cmpl	$2, %eax	#, D.21606
	je	.L375	#,
	cmpl	$9, %eax	#, D.21606
	je	.L376	#,
	testl	%eax, %eax	# D.21606
	je	.L375	#,
	.loc 1 1524 0
	jmp	.L388	#
.L373:
	.loc 1 1449 0
	cmpl	$15, %eax	#, D.21606
	je	.L377	#,
	cmpl	$125, %eax	#, D.21606
	je	.L378	#,
	cmpl	$14, %eax	#, D.21606
	je	.L379	#,
	.loc 1 1524 0
	jmp	.L388	#
.L372:
	.loc 1 1449 0
	cmpl	$162, %eax	#, D.21606
	je	.L380	#,
	cmpl	$162, %eax	#, D.21606
	jg	.L381	#,
	cmpl	$135, %eax	#, D.21606
	je	.L371	#,
	cmpl	$141, %eax	#, D.21606
	je	.L382	#,
	cmpl	$134, %eax	#, D.21606
	je	.L378	#,
	.loc 1 1524 0
	jmp	.L388	#
.L381:
	.loc 1 1449 0
	cmpl	$179, %eax	#, D.21606
	jg	.L383	#,
	cmpl	$177, %eax	#, D.21606
	jge	.L382	#,
	cmpl	$166, %eax	#, D.21606
	je	.L384	#,
	.loc 1 1524 0
	jmp	.L388	#
.L383:
	.loc 1 1449 0
	cmpl	$348, %eax	#, D.21606
	je	.L385	#,
	.loc 1 1524 0
	jmp	.L388	#
.L384:
	.loc 1 1451 0
	cmpl	$133, -28(%rbp)	#, type
	je	.L386	#,
	.loc 1 1451 0 is_stmt 0 discriminator 2
	cmpl	$42, -28(%rbp)	#, type
	je	.L386	#,
	.loc 1 1451 0 discriminator 1
	cmpl	$347, -28(%rbp)	#, type
	jne	.L387	#,
.L386:
	.loc 1 1452 0 is_stmt 1 discriminator 1
	movq	-24(%rbp), %rax	# o, tmp117
	movzbl	36(%rax), %eax	# o_7(D)->op_flags, D.21607
	movzbl	%al, %eax	# D.21607, D.21606
	andl	$64, %eax	#, D.21606
	.loc 1 1451 0 discriminator 1
	testl	%eax, %eax	# D.21606
	jne	.L387	#,
	.loc 1 1453 0
	movq	-24(%rbp), %rax	# o, tmp118
	movw	$17, 32(%rax)	#, o_7(D)->op_type
	.loc 1 1454 0
	movq	PL_ppaddr+136(%rip), %rdx	# PL_ppaddr, D.21608
	movq	-24(%rbp), %rax	# o, tmp119
	movq	%rdx, 16(%rax)	# D.21608, o_7(D)->op_ppaddr
	.loc 1 1456 0
	movq	-24(%rbp), %rax	# o, tmp120
	movq	40(%rax), %rax	# MEM[(struct UNOP *)o_7(D)].op_first, D.21604
	movq	40(%rax), %rax	# MEM[(struct LISTOP *)_16].op_first, D.21604
	movq	%rax, %rdi	# D.21604,
	call	Perl_op_null	#
	.loc 1 1457 0
	movq	-24(%rbp), %rax	# o, tmp121
	movzbl	36(%rax), %eax	# o_7(D)->op_flags, D.21607
	orl	$-128, %eax	#, D.21607
	movl	%eax, %edx	# D.21607, D.21607
	movq	-24(%rbp), %rax	# o, tmp122
	movb	%dl, 36(%rax)	# D.21607, o_7(D)->op_flags
	.loc 1 1459 0
	jmp	.L388	#
.L387:
	jmp	.L388	#
.L380:
	.loc 1 1462 0
	movq	-24(%rbp), %rax	# o, tmp123
	movq	40(%rax), %rax	# MEM[(struct UNOP *)o_7(D)].op_first, D.21604
	movq	8(%rax), %rax	# _20->op_sibling, tmp124
	movq	%rax, -8(%rbp)	# tmp124, kid
	jmp	.L389	#
.L390:
	.loc 1 1463 0 discriminator 2
	movl	-28(%rbp), %edx	# type, tmp125
	movq	-8(%rbp), %rax	# kid, tmp126
	movl	%edx, %esi	# tmp125,
	movq	%rax, %rdi	# tmp126,
	call	Perl_ref	#
	.loc 1 1462 0 discriminator 2
	movq	-8(%rbp), %rax	# kid, tmp127
	movq	8(%rax), %rax	# kid_1->op_sibling, tmp128
	movq	%rax, -8(%rbp)	# tmp128, kid
.L389:
	.loc 1 1462 0 is_stmt 0 discriminator 1
	cmpq	$0, -8(%rbp)	#, kid
	jne	.L390	#,
	.loc 1 1464 0 is_stmt 1
	jmp	.L388	#
.L377:
	.loc 1 1466 0
	cmpl	$42, -28(%rbp)	#, type
	jne	.L391	#,
	.loc 1 1467 0
	movq	-24(%rbp), %rax	# o, tmp129
	movzbl	36(%rax), %eax	# o_7(D)->op_flags, D.21607
	orl	$-128, %eax	#, D.21607
	movl	%eax, %edx	# D.21607, D.21607
	movq	-24(%rbp), %rax	# o, tmp130
	movb	%dl, 36(%rax)	# D.21607, o_7(D)->op_flags
.L391:
	.loc 1 1468 0
	movq	-24(%rbp), %rax	# o, tmp131
	movzwl	32(%rax), %eax	# o_7(D)->op_type, D.21605
	movzwl	%ax, %edx	# D.21605, D.21606
	movq	-24(%rbp), %rax	# o, tmp132
	movq	40(%rax), %rax	# MEM[(struct UNOP *)o_7(D)].op_first, D.21604
	movl	%edx, %esi	# D.21606,
	movq	%rax, %rdi	# D.21604,
	call	Perl_ref	#
.L376:
	.loc 1 1471 0
	cmpl	$15, -28(%rbp)	#, type
	je	.L392	#,
	.loc 1 1471 0 is_stmt 0 discriminator 1
	cmpl	$125, -28(%rbp)	#, type
	je	.L392	#,
	cmpl	$134, -28(%rbp)	#, type
	jne	.L393	#,
.L392:
	.loc 1 1472 0 is_stmt 1
	movq	-24(%rbp), %rax	# o, tmp133
	movzbl	37(%rax), %eax	# o_7(D)->op_private, D.21607
	movl	%eax, %edx	# D.21607, D.21609
	cmpl	$125, -28(%rbp)	#, type
	je	.L394	#,
	.loc 1 1472 0 is_stmt 0 discriminator 1
	cmpl	$134, -28(%rbp)	#, type
	jne	.L395	#,
	.loc 1 1472 0 discriminator 3
	movl	$64, %eax	#, iftmp.94
	jmp	.L397	#
.L395:
	.loc 1 1472 0 discriminator 4
	movl	$96, %eax	#, iftmp.94
	jmp	.L397	#
.L394:
	.loc 1 1472 0 discriminator 2
	movl	$32, %eax	#, iftmp.93
.L397:
	.loc 1 1472 0 discriminator 5
	orl	%edx, %eax	# D.21609, D.21609
	movl	%eax, %edx	# D.21609, D.21607
	movq	-24(%rbp), %rax	# o, tmp134
	movb	%dl, 37(%rax)	# D.21607, o_7(D)->op_private
	.loc 1 1475 0 is_stmt 1 discriminator 5
	movq	-24(%rbp), %rax	# o, tmp135
	movzbl	36(%rax), %eax	# o_7(D)->op_flags, D.21607
	orl	$32, %eax	#, D.21607
	movl	%eax, %edx	# D.21607, D.21607
	movq	-24(%rbp), %rax	# o, tmp136
	movb	%dl, 36(%rax)	# D.21607, o_7(D)->op_flags
	.loc 1 1477 0 discriminator 5
	jmp	.L388	#
.L393:
	.loc 1 1477 0 is_stmt 0
	jmp	.L388	#
.L385:
	.loc 1 1480 0 is_stmt 1
	movq	-24(%rbp), %rax	# o, tmp137
	movzbl	36(%rax), %eax	# o_7(D)->op_flags, D.21607
	orl	$32, %eax	#, D.21607
	movl	%eax, %edx	# D.21607, D.21607
	movq	-24(%rbp), %rax	# o, tmp138
	movb	%dl, 36(%rax)	# D.21607, o_7(D)->op_flags
	.loc 1 1481 0
	jmp	.L388	#
.L378:
	.loc 1 1485 0
	movq	-24(%rbp), %rax	# o, tmp139
	movzbl	36(%rax), %eax	# o_7(D)->op_flags, D.21607
	orl	$16, %eax	#, D.21607
	movl	%eax, %edx	# D.21607, D.21607
	movq	-24(%rbp), %rax	# o, tmp140
	movb	%dl, 36(%rax)	# D.21607, o_7(D)->op_flags
.L379:
	.loc 1 1488 0
	cmpl	$42, -28(%rbp)	#, type
	jne	.L398	#,
	.loc 1 1489 0
	movq	-24(%rbp), %rax	# o, tmp141
	movzbl	36(%rax), %eax	# o_7(D)->op_flags, D.21607
	orl	$-128, %eax	#, D.21607
	movl	%eax, %edx	# D.21607, D.21607
	movq	-24(%rbp), %rax	# o, tmp142
	movb	%dl, 36(%rax)	# D.21607, o_7(D)->op_flags
.L398:
	.loc 1 1490 0
	movq	-24(%rbp), %rax	# o, tmp143
	movzwl	32(%rax), %eax	# o_7(D)->op_type, D.21605
	movzwl	%ax, %edx	# D.21605, D.21606
	movq	-24(%rbp), %rax	# o, tmp144
	movq	40(%rax), %rax	# MEM[(struct UNOP *)o_7(D)].op_first, D.21604
	movl	%edx, %esi	# D.21606,
	movq	%rax, %rdi	# D.21604,
	call	Perl_ref	#
	.loc 1 1491 0
	jmp	.L388	#
.L374:
	.loc 1 1495 0
	movq	-24(%rbp), %rax	# o, tmp145
	movzbl	36(%rax), %eax	# o_7(D)->op_flags, D.21607
	orl	$16, %eax	#, D.21607
	movl	%eax, %edx	# D.21607, D.21607
	movq	-24(%rbp), %rax	# o, tmp146
	movb	%dl, 36(%rax)	# D.21607, o_7(D)->op_flags
	.loc 1 1496 0
	jmp	.L388	#
.L375:
	.loc 1 1500 0
	movq	-24(%rbp), %rax	# o, tmp147
	movzbl	36(%rax), %eax	# o_7(D)->op_flags, D.21607
	movzbl	%al, %eax	# D.21607, D.21606
	andl	$4, %eax	#, D.21606
	testl	%eax, %eax	# D.21606
	jne	.L399	#,
	.loc 1 1501 0
	jmp	.L388	#
.L399:
	.loc 1 1502 0
	movq	-24(%rbp), %rax	# o, tmp148
	movq	40(%rax), %rax	# MEM[(struct BINOP *)o_7(D)].op_first, D.21604
	movl	-28(%rbp), %edx	# type, tmp149
	movl	%edx, %esi	# tmp149,
	movq	%rax, %rdi	# D.21604,
	call	Perl_ref	#
	.loc 1 1503 0
	jmp	.L388	#
.L371:
	.loc 1 1506 0
	movq	-24(%rbp), %rax	# o, tmp150
	movzwl	32(%rax), %eax	# o_7(D)->op_type, D.21605
	movzwl	%ax, %edx	# D.21605, D.21606
	movq	-24(%rbp), %rax	# o, tmp151
	movq	40(%rax), %rax	# MEM[(struct BINOP *)o_7(D)].op_first, D.21604
	movl	%edx, %esi	# D.21606,
	movq	%rax, %rdi	# D.21604,
	call	Perl_ref	#
	.loc 1 1507 0
	cmpl	$15, -28(%rbp)	#, type
	je	.L400	#,
	.loc 1 1507 0 is_stmt 0 discriminator 1
	cmpl	$125, -28(%rbp)	#, type
	je	.L400	#,
	cmpl	$134, -28(%rbp)	#, type
	jne	.L401	#,
.L400:
	.loc 1 1508 0 is_stmt 1
	movq	-24(%rbp), %rax	# o, tmp152
	movzbl	37(%rax), %eax	# o_7(D)->op_private, D.21607
	movl	%eax, %edx	# D.21607, D.21609
	cmpl	$125, -28(%rbp)	#, type
	je	.L402	#,
	.loc 1 1508 0 is_stmt 0 discriminator 1
	cmpl	$134, -28(%rbp)	#, type
	jne	.L403	#,
	.loc 1 1508 0 discriminator 3
	movl	$64, %eax	#, iftmp.96
	jmp	.L405	#
.L403:
	.loc 1 1508 0 discriminator 4
	movl	$96, %eax	#, iftmp.96
	jmp	.L405	#
.L402:
	.loc 1 1508 0 discriminator 2
	movl	$32, %eax	#, iftmp.95
.L405:
	.loc 1 1508 0 discriminator 5
	orl	%edx, %eax	# D.21609, D.21609
	movl	%eax, %edx	# D.21609, D.21607
	movq	-24(%rbp), %rax	# o, tmp153
	movb	%dl, 37(%rax)	# D.21607, o_7(D)->op_private
	.loc 1 1511 0 is_stmt 1 discriminator 5
	movq	-24(%rbp), %rax	# o, tmp154
	movzbl	36(%rax), %eax	# o_7(D)->op_flags, D.21607
	orl	$32, %eax	#, D.21607
	movl	%eax, %edx	# D.21607, D.21607
	movq	-24(%rbp), %rax	# o, tmp155
	movb	%dl, 36(%rax)	# D.21607, o_7(D)->op_flags
	.loc 1 1513 0 discriminator 5
	jmp	.L388	#
.L401:
	.loc 1 1513 0 is_stmt 0
	jmp	.L388	#
.L382:
	.loc 1 1519 0 is_stmt 1
	movq	-24(%rbp), %rax	# o, tmp156
	movzbl	36(%rax), %eax	# o_7(D)->op_flags, D.21607
	movzbl	%al, %eax	# D.21607, D.21606
	andl	$4, %eax	#, D.21606
	testl	%eax, %eax	# D.21606
	jne	.L406	#,
	.loc 1 1520 0
	jmp	.L388	#
.L406:
	.loc 1 1521 0
	movq	-24(%rbp), %rax	# o, tmp157
	movq	48(%rax), %rax	# MEM[(struct LISTOP *)o_7(D)].op_last, D.21604
	movl	-28(%rbp), %edx	# type, tmp158
	movl	%edx, %esi	# tmp158,
	movq	%rax, %rdi	# D.21604,
	call	Perl_ref	#
	.loc 1 1522 0
	nop
.L388:
	.loc 1 1526 0
	movq	-24(%rbp), %rax	# o, tmp159
	movq	%rax, %rdi	# tmp159,
	call	Perl_scalar	#
.L369:
	.loc 1 1528 0
	leave
	.cfi_def_cfa 7, 8
	ret
	.cfi_endproc
.LFE28:
	.size	Perl_ref, .-Perl_ref
	.type	S_dup_attrlist, @function
S_dup_attrlist:
.LFB29:
	.loc 1 1532 0
	.cfi_startproc
	pushq	%rbp	#
	.cfi_def_cfa_offset 16
	.cfi_offset 6, -16
	movq	%rsp, %rbp	#,
	.cfi_def_cfa_register 6
	subq	$32, %rsp	#,
	movq	%rdi, -24(%rbp)	# o, o
	.loc 1 1533 0
	movq	$0, -8(%rbp)	#, rop
	.loc 1 1539 0
	movq	-24(%rbp), %rax	# o, tmp86
	movzwl	32(%rax), %eax	# o_6(D)->op_type, D.21614
	cmpw	$5, %ax	#, D.21614
	jne	.L408	#,
	.loc 1 1540 0
	movq	-24(%rbp), %rax	# o, tmp87
	movq	40(%rax), %rax	# MEM[(struct SVOP *)o_6(D)].op_sv, PL_Sv.97
	movq	%rax, PL_Sv(%rip)	# PL_Sv.97, PL_Sv
	movq	PL_Sv(%rip), %rax	# PL_Sv, PL_Sv.99
	testq	%rax, %rax	# PL_Sv.99
	je	.L410	#,
	.loc 1 1540 0 is_stmt 0 discriminator 1
	movq	PL_Sv(%rip), %rax	# PL_Sv, PL_Sv.100
	movl	8(%rax), %edx	# PL_Sv.100_10->sv_refcnt, D.21615
	addl	$1, %edx	#, D.21615
	movl	%edx, 8(%rax)	# D.21615, PL_Sv.100_10->sv_refcnt
	movl	8(%rax), %eax	# PL_Sv.100_10->sv_refcnt, D.21615
	testl	%eax, %eax	# D.21615
	je	.L410	#,
	.loc 1 1540 0
	nop
.L410:
	.loc 1 1540 0 discriminator 4
	movq	PL_Sv(%rip), %rdx	# PL_Sv, PL_Sv.101
	movq	-24(%rbp), %rax	# o, tmp88
	movzbl	36(%rax), %eax	# o_6(D)->op_flags, D.21616
	movzbl	%al, %eax	# D.21616, D.21617
	movl	%eax, %esi	# D.21617,
	movl	$5, %edi	#,
	call	Perl_newSVOP	#
	movq	%rax, -8(%rbp)	# tmp89, rop
	jmp	.L411	#
.L408:
	.loc 1 1543 0 is_stmt 1
	movq	-24(%rbp), %rax	# o, tmp90
	movq	40(%rax), %rax	# MEM[(struct LISTOP *)o_6(D)].op_first, tmp91
	movq	%rax, -24(%rbp)	# tmp91, o
	jmp	.L412	#
.L416:
	.loc 1 1544 0
	movq	-24(%rbp), %rax	# o, tmp92
	movzwl	32(%rax), %eax	# o_1->op_type, D.21614
	cmpw	$5, %ax	#, D.21614
	jne	.L413	#,
	.loc 1 1547 0
	movq	-24(%rbp), %rax	# o, tmp93
	movq	40(%rax), %rax	# MEM[(struct SVOP *)o_1].op_sv, PL_Sv.102
	movq	%rax, PL_Sv(%rip)	# PL_Sv.102, PL_Sv
	movq	PL_Sv(%rip), %rax	# PL_Sv, PL_Sv.104
	testq	%rax, %rax	# PL_Sv.104
	je	.L415	#,
	.loc 1 1547 0 is_stmt 0 discriminator 1
	movq	PL_Sv(%rip), %rax	# PL_Sv, PL_Sv.105
	movl	8(%rax), %edx	# PL_Sv.105_24->sv_refcnt, D.21615
	addl	$1, %edx	#, D.21615
	movl	%edx, 8(%rax)	# D.21615, PL_Sv.105_24->sv_refcnt
	movl	8(%rax), %eax	# PL_Sv.105_24->sv_refcnt, D.21615
	testl	%eax, %eax	# D.21615
	je	.L415	#,
	.loc 1 1547 0
	nop
.L415:
	.loc 1 1545 0 is_stmt 1
	movq	PL_Sv(%rip), %rdx	# PL_Sv, PL_Sv.106
	.loc 1 1546 0
	movq	-24(%rbp), %rax	# o, tmp94
	movzbl	36(%rax), %eax	# o_1->op_flags, D.21616
	.loc 1 1545 0
	movzbl	%al, %eax	# D.21616, D.21617
	movl	%eax, %esi	# D.21617,
	movl	$5, %edi	#,
	call	Perl_newSVOP	#
	movq	%rax, %rdx	#, D.21618
	movq	-8(%rbp), %rax	# rop, tmp95
	movq	%rax, %rsi	# tmp95,
	movl	$141, %edi	#,
	call	Perl_append_elem	#
	movq	%rax, -8(%rbp)	# tmp96, rop
.L413:
	.loc 1 1543 0
	movq	-24(%rbp), %rax	# o, tmp97
	movq	8(%rax), %rax	# o_1->op_sibling, tmp98
	movq	%rax, -24(%rbp)	# tmp98, o
.L412:
	.loc 1 1543 0 is_stmt 0 discriminator 1
	cmpq	$0, -24(%rbp)	#, o
	jne	.L416	#,
.L411:
	.loc 1 1550 0 is_stmt 1
	movq	-8(%rbp), %rax	# rop, D.21618
	.loc 1 1551 0
	leave
	.cfi_def_cfa 7, 8
	ret
	.cfi_endproc
.LFE29:
	.size	S_dup_attrlist, .-S_dup_attrlist
	.section	.rodata
.LC30:
	.string	"attributes.pm"
.LC31:
	.string	"attributes"
	.text
	.type	S_apply_attrs, @function
S_apply_attrs:
.LFB30:
	.loc 1 1555 0
	.cfi_startproc
	pushq	%rbp	#
	.cfi_def_cfa_offset 16
	.cfi_offset 6, -16
	movq	%rsp, %rbp	#,
	.cfi_def_cfa_register 6
	pushq	%rbx	#
	subq	$56, %rsp	#,
	.cfi_offset 3, -24
	movq	%rdi, -40(%rbp)	# stash, stash
	movq	%rsi, -48(%rbp)	# target, target
	movq	%rdx, -56(%rbp)	# attrs, attrs
	movl	%ecx, %eax	# for_my, tmp82
	movb	%al, -60(%rbp)	# tmp82, for_my
	.loc 1 1559 0
	call	Perl_push_scope	#
	.loc 1 1560 0
	movl	$PL_expect, %edi	#,
	call	Perl_save_int	#
	.loc 1 1561 0
	cmpq	$0, -40(%rbp)	#, stash
	je	.L419	#,
	.loc 1 1562 0
	movq	-40(%rbp), %rax	# stash, tmp83
	movq	(%rax), %rax	# stash_3(D)->sv_any, D.21619
	movq	80(%rax), %rax	# _4->xhv_name, D.21620
	movl	$0, %esi	#,
	movq	%rax, %rdi	# D.21620,
	call	Perl_newSVpv	#
	movq	%rax, -32(%rbp)	# tmp84, stashsv
	jmp	.L420	#
.L419:
	.loc 1 1564 0
	movq	$PL_sv_no, -32(%rbp)	#, stashsv
.L420:
	.loc 1 1569 0
	cmpb	$0, -60(%rbp)	#, for_my
	je	.L421	#,
.LBB12:
	.loc 1 1572 0
	movq	PL_incgv(%rip), %rax	# PL_incgv, PL_incgv.108
	movq	(%rax), %rax	# PL_incgv.108_9->sv_any, D.21621
	movq	56(%rax), %rax	# _10->xgv_gp, D.21622
	movq	40(%rax), %rax	# _11->gp_hv, D.21623
	testq	%rax, %rax	# D.21623
	je	.L422	#,
	.loc 1 1572 0 is_stmt 0 discriminator 1
	movq	PL_incgv(%rip), %rax	# PL_incgv, PL_incgv.109
	movq	(%rax), %rax	# PL_incgv.109_13->sv_any, D.21621
	movq	56(%rax), %rax	# _14->xgv_gp, D.21622
	movq	40(%rax), %rax	# _15->gp_hv, iftmp.107
	jmp	.L423	#
.L422:
	.loc 1 1572 0 discriminator 2
	movq	PL_incgv(%rip), %rax	# PL_incgv, PL_incgv.110
	movq	%rax, %rdi	# PL_incgv.110,
	call	Perl_gv_HVadd	#
	movq	(%rax), %rax	# _18->sv_any, D.21621
	movq	56(%rax), %rax	# _19->xgv_gp, D.21622
	movq	40(%rax), %rax	# _20->gp_hv, iftmp.107
.L423:
	.loc 1 1572 0 discriminator 3
	movl	$0, %ecx	#,
	movl	$13, %edx	#,
	movl	$.LC30, %esi	#,
	movq	%rax, %rdi	# iftmp.107,
	call	Perl_hv_fetch	#
	movq	%rax, -24(%rbp)	# tmp85, svp
	.loc 1 1574 0 is_stmt 1 discriminator 3
	cmpq	$0, -24(%rbp)	#, svp
	je	.L424	#,
	.loc 1 1574 0 is_stmt 0 discriminator 1
	movq	-24(%rbp), %rax	# svp, tmp86
	movq	(%rax), %rax	# *svp_22, D.21625
	cmpq	$PL_sv_undef, %rax	#, D.21625
	je	.L424	#,
	nop
	jmp	.L426	#
.L424:
	.loc 1 1577 0 is_stmt 1
	movl	$10, %esi	#,
	movl	$.LC31, %edi	#,
	call	Perl_newSVpvn	#
	movl	$0, %edx	#,
	movq	%rax, %rsi	# D.21625,
	movl	$2, %edi	#,
	movl	$0, %eax	#,
	call	Perl_load_module	#
.LBE12:
	jmp	.L426	#
.L421:
	.loc 1 1582 0
	movq	-56(%rbp), %rax	# attrs, tmp87
	movq	%rax, %rdi	# tmp87,
	call	S_dup_attrlist	#
	movq	%rax, %rbx	#, D.21626
	movq	-48(%rbp), %rax	# target, tmp88
	movq	%rax, %rdi	# tmp88,
	call	Perl_newRV	#
	movq	%rax, %rdx	# D.21625,
	movl	$0, %esi	#,
	movl	$5, %edi	#,
	call	Perl_newSVOP	#
	movq	%rbx, %rdx	# D.21626,
	movq	%rax, %rsi	# D.21626,
	movl	$141, %edi	#,
	call	Perl_prepend_elem	#
	movq	%rax, %rbx	#, D.21626
	movq	-32(%rbp), %rax	# stashsv, tmp89
	movq	%rax, %rdx	# tmp89,
	movl	$0, %esi	#,
	movl	$5, %edi	#,
	call	Perl_newSVOP	#
	movq	%rbx, %rdx	# D.21626,
	movq	%rax, %rsi	# D.21626,
	movl	$141, %edi	#,
	call	Perl_prepend_elem	#
	movq	%rax, %rbx	#, D.21626
	movl	$10, %esi	#,
	movl	$.LC31, %edi	#,
	call	Perl_newSVpvn	#
	movq	%rbx, %rcx	# D.21626,
	movl	$0, %edx	#,
	movq	%rax, %rsi	# D.21625,
	movl	$4, %edi	#,
	movl	$0, %eax	#,
	call	Perl_load_module	#
.L426:
	.loc 1 1592 0
	call	Perl_pop_scope	#
	.loc 1 1593 0
	addq	$56, %rsp	#,
	popq	%rbx	#
	popq	%rbp	#
	.cfi_def_cfa 7, 8
	ret
	.cfi_endproc
.LFE30:
	.size	S_apply_attrs, .-S_apply_attrs
	.section	.rodata
.LC32:
	.string	"import"
	.text
	.type	S_apply_attrs_my, @function
S_apply_attrs_my:
.LFB31:
	.loc 1 1597 0
	.cfi_startproc
	pushq	%rbp	#
	.cfi_def_cfa_offset 16
	.cfi_offset 6, -16
	movq	%rsp, %rbp	#,
	.cfi_def_cfa_register 6
	pushq	%r13	#
	pushq	%r12	#
	pushq	%rbx	#
	subq	$88, %rsp	#,
	.cfi_offset 13, -24
	.cfi_offset 12, -32
	.cfi_offset 3, -40
	movq	%rdi, -88(%rbp)	# stash, stash
	movq	%rsi, -96(%rbp)	# target, target
	movq	%rdx, -104(%rbp)	# attrs, attrs
	movq	%rcx, -112(%rbp)	# imopsp, imopsp
	.loc 1 1601 0
	cmpq	$0, -104(%rbp)	#, attrs
	jne	.L428	#,
	.loc 1 1602 0
	jmp	.L427	#
.L428:
	.loc 1 1609 0
	movq	PL_curpad(%rip), %rdx	# PL_curpad, PL_curpad.111
	movq	-96(%rbp), %rax	# target, tmp113
	movq	24(%rax), %rax	# target_7(D)->op_targ, D.21629
	salq	$3, %rax	#, D.21629
	addq	%rdx, %rax	# PL_curpad.111, D.21630
	movq	(%rax), %rsi	# *_10, D.21631
	movq	-104(%rbp), %rdx	# attrs, tmp114
	movq	-88(%rbp), %rax	# stash, tmp115
	movl	$1, %ecx	#,
	movq	%rax, %rdi	# tmp115,
	call	S_apply_attrs	#
	.loc 1 1612 0
	movl	$10, %esi	#,
	movl	$.LC31, %edi	#,
	call	Perl_newSVpvn	#
	movq	%rax, %rdx	# D.21631,
	movl	$0, %esi	#,
	movl	$5, %edi	#,
	call	Perl_newSVOP	#
	movq	%rax, -64(%rbp)	# tmp116, pack
	.loc 1 1615 0
	cmpq	$0, -88(%rbp)	#, stash
	je	.L430	#,
	.loc 1 1616 0
	movq	-88(%rbp), %rax	# stash, tmp117
	movq	(%rax), %rax	# stash_12(D)->sv_any, D.21632
	movq	80(%rax), %rax	# _15->xhv_name, D.21633
	movl	$0, %esi	#,
	movq	%rax, %rdi	# D.21633,
	call	Perl_newSVpv	#
	movq	%rax, -72(%rbp)	# tmp118, stashsv
	jmp	.L431	#
.L430:
	.loc 1 1618 0
	movq	$PL_sv_no, -72(%rbp)	#, stashsv
.L431:
	.loc 1 1619 0
	movl	$0, %esi	#,
	movl	$9, %edi	#,
	call	Perl_newOP	#
	movq	%rax, -56(%rbp)	# tmp119, arg
	.loc 1 1620 0
	movq	-96(%rbp), %rax	# target, tmp120
	movq	24(%rax), %rdx	# target_7(D)->op_targ, D.21629
	movq	-56(%rbp), %rax	# arg, tmp121
	movq	%rdx, 24(%rax)	# D.21629, arg_19->op_targ
	.loc 1 1621 0
	movq	-104(%rbp), %rax	# attrs, tmp122
	movq	%rax, %rdi	# tmp122,
	call	S_dup_attrlist	#
	movq	%rax, %rbx	#, D.21634
	movq	-56(%rbp), %rax	# arg, tmp123
	movl	$20, %esi	#,
	movq	%rax, %rdi	# tmp123,
	call	Perl_mod	#
	movq	%rax, %rdx	# D.21634,
	movl	$0, %esi	#,
	movl	$20, %edi	#,
	call	Perl_newUNOP	#
	movq	%rbx, %rdx	# D.21634,
	movq	%rax, %rsi	# D.21634,
	movl	$141, %edi	#,
	call	Perl_prepend_elem	#
	movq	%rax, %rbx	#, D.21634
	movq	-72(%rbp), %rax	# stashsv, tmp124
	movq	%rax, %rdx	# tmp124,
	movl	$0, %esi	#,
	movl	$5, %edi	#,
	call	Perl_newSVOP	#
	movq	%rbx, %rdx	# D.21634,
	movq	%rax, %rsi	# D.21634,
	movl	$141, %edi	#,
	call	Perl_prepend_elem	#
	movq	%rax, -56(%rbp)	# tmp125, arg
	.loc 1 1629 0
	movl	$6, %esi	#,
	movl	$.LC32, %edi	#,
	call	Perl_newSVpvn	#
	movq	%rax, -48(%rbp)	# tmp126, meth
	.loc 1 1630 0
	movq	-48(%rbp), %rax	# meth, tmp127
	movl	12(%rax), %eax	# meth_27->sv_flags, D.21635
	movzbl	%al, %eax	# D.21635, D.21635
	cmpl	$4, %eax	#, D.21635
	ja	.L432	#,
	.loc 1 1630 0 is_stmt 0 discriminator 2
	movq	-48(%rbp), %rax	# meth, tmp128
	movl	$5, %esi	#,
	movq	%rax, %rdi	# tmp128,
	call	Perl_sv_upgrade	#
	testb	%al, %al	# D.21636
	je	.L434	#,
.L432:
	.loc 1 1630 0 discriminator 1
	nop
.L434:
	.loc 1 1631 0 is_stmt 1
	movq	-48(%rbp), %rax	# meth, tmp129
	movl	12(%rax), %eax	# meth_27->sv_flags, D.21635
	andl	$2097152, %eax	#, D.21635
	testl	%eax, %eax	# D.21635
	je	.L436	#,
	.loc 1 1631 0 is_stmt 0 discriminator 1
	movq	-48(%rbp), %rax	# meth, tmp130
	movq	%rax, %rdi	# tmp130,
	call	Perl_sv_backoff	#
	testl	%eax, %eax	# D.21637
	je	.L436	#,
	.loc 1 1631 0
	nop
.L436:
	.loc 1 1631 0 discriminator 3
	movq	-48(%rbp), %rax	# meth, tmp131
	movl	12(%rax), %eax	# meth_27->sv_flags, D.21635
	orl	$16842752, %eax	#, D.21635
	movl	%eax, %edx	# D.21635, D.21635
	movq	-48(%rbp), %rax	# meth, tmp132
	movl	%edx, 12(%rax)	# D.21635, meth_27->sv_flags
.LBB13:
	.loc 1 1632 0 is_stmt 1 discriminator 3
	movq	-48(%rbp), %rax	# meth, tmp133
	movq	(%rax), %rax	# meth_27->sv_any, D.21638
	movq	(%rax), %rbx	# MEM[(struct XPV *)_40].xpv_pv, s_PeRlHaSh_tmp
	movq	%rbx, %r13	# s_PeRlHaSh_tmp, s_PeRlHaSh
	movq	-48(%rbp), %rax	# meth, tmp134
	movq	(%rax), %rax	# meth_27->sv_any, D.21638
	movq	8(%rax), %rax	# MEM[(struct XPV *)_43].xpv_cur, D.21629
	movl	%eax, %r12d	# D.21629, i_PeRlHaSh
	movl	$0, %ebx	#, hash_PeRlHaSh
	jmp	.L437	#
.L438:
	.loc 1 1632 0 is_stmt 0 discriminator 2
	movq	%r13, %rax	# s_PeRlHaSh, s_PeRlHaSh.114
	leaq	1(%rax), %r13	#, s_PeRlHaSh
	movzbl	(%rax), %eax	# *s_PeRlHaSh.114_49, D.21639
	movzbl	%al, %eax	# D.21639, D.21635
	addl	%eax, %ebx	# D.21635, hash_PeRlHaSh
	movl	%ebx, %eax	# hash_PeRlHaSh, D.21635
	sall	$10, %eax	#, D.21635
	addl	%eax, %ebx	# D.21635, hash_PeRlHaSh
	movl	%ebx, %eax	# hash_PeRlHaSh, D.21635
	shrl	$6, %eax	#, D.21635
	xorl	%eax, %ebx	# D.21635, hash_PeRlHaSh
.L437:
	.loc 1 1632 0 discriminator 1
	movl	%r12d, %eax	# i_PeRlHaSh, i_PeRlHaSh.115
	leal	-1(%rax), %r12d	#, i_PeRlHaSh
	testl	%eax, %eax	# i_PeRlHaSh.115
	jne	.L438	#,
	.loc 1 1632 0 discriminator 3
	leal	0(,%rbx,8), %eax	#, D.21635
	addl	%eax, %ebx	# D.21635, hash_PeRlHaSh
	movl	%ebx, %eax	# hash_PeRlHaSh, D.21635
	shrl	$11, %eax	#, D.21635
	xorl	%eax, %ebx	# D.21635, hash_PeRlHaSh
	movq	-48(%rbp), %rax	# meth, tmp135
	movq	(%rax), %rax	# meth_27->sv_any, D.21638
	movl	%ebx, %edx	# hash_PeRlHaSh, D.21635
	sall	$15, %edx	#, D.21635
	addl	%ebx, %edx	# hash_PeRlHaSh, D.21635
	movl	%edx, %edx	# D.21635, D.21629
	movq	%rdx, 24(%rax)	# D.21629, MEM[(struct XPVUV *)_62].xuv_uv
.LBE13:
	.loc 1 1633 0 is_stmt 1 discriminator 3
	movq	-48(%rbp), %rax	# meth, tmp136
	movq	%rax, %rdx	# tmp136,
	movl	$0, %esi	#,
	movl	$350, %edi	#,
	call	Perl_newSVOP	#
	movq	%rax, %rbx	#, D.21634
	movq	-56(%rbp), %rax	# arg, tmp137
	movq	%rax, %rdi	# tmp137,
	call	Perl_list	#
	movq	%rax, %rdx	#, D.21634
	movq	-64(%rbp), %rax	# pack, tmp138
	movq	%rax, %rsi	# tmp138,
	movl	$141, %edi	#,
	call	Perl_prepend_elem	#
	movq	%rbx, %rdx	# D.21634,
	movq	%rax, %rsi	# D.21634,
	movl	$141, %edi	#,
	call	Perl_append_elem	#
	movq	%rax, %rdx	# D.21634,
	movl	$193, %esi	#,
	movl	$166, %edi	#,
	call	Perl_convert	#
	movq	%rax, -40(%rbp)	# tmp139, imop
	.loc 1 1637 0 discriminator 3
	movq	-40(%rbp), %rax	# imop, tmp140
	movzbl	37(%rax), %eax	# imop_71->op_private, D.21639
	orl	$64, %eax	#, D.21639
	movl	%eax, %edx	# D.21639, D.21639
	movq	-40(%rbp), %rax	# imop, tmp141
	movb	%dl, 37(%rax)	# D.21639, imop_71->op_private
	.loc 1 1640 0 discriminator 3
	movq	-112(%rbp), %rax	# imopsp, tmp142
	movq	(%rax), %rax	# *imopsp_74(D), D.21634
	movq	-40(%rbp), %rdx	# imop, tmp143
	movq	%rax, %rsi	# D.21634,
	movl	$141, %edi	#,
	call	Perl_append_elem	#
	movq	-112(%rbp), %rdx	# imopsp, tmp144
	movq	%rax, (%rdx)	# D.21634, *imopsp_74(D)
.L427:
	.loc 1 1641 0
	addq	$88, %rsp	#,
	popq	%rbx	#
	popq	%r12	#
	popq	%r13	#
	popq	%rbp	#
	.cfi_def_cfa 7, 8
	ret
	.cfi_endproc
.LFE31:
	.size	S_apply_attrs_my, .-S_apply_attrs_my
	.globl	Perl_apply_attrs_string
	.type	Perl_apply_attrs_string, @function
Perl_apply_attrs_string:
.LFB32:
	.loc 1 1663 0
	.cfi_startproc
	pushq	%rbp	#
	.cfi_def_cfa_offset 16
	.cfi_offset 6, -16
	movq	%rsp, %rbp	#,
	.cfi_def_cfa_register 6
	pushq	%rbx	#
	subq	$56, %rsp	#,
	.cfi_offset 3, -24
	movq	%rdi, -40(%rbp)	# stashpv, stashpv
	movq	%rsi, -48(%rbp)	# cv, cv
	movq	%rdx, -56(%rbp)	# attrstr, attrstr
	movq	%rcx, -64(%rbp)	# len, len
	.loc 1 1664 0
	movq	$0, -32(%rbp)	#, attrs
	.loc 1 1666 0
	cmpq	$0, -64(%rbp)	#, len
	jne	.L440	#,
	.loc 1 1667 0
	movq	-56(%rbp), %rax	# attrstr, tmp82
	movq	%rax, %rdi	# tmp82,
	call	strlen	#
	movq	%rax, -64(%rbp)	# tmp83, len
	.loc 1 1670 0
	jmp	.L441	#
.L440:
	jmp	.L441	#
.L449:
	.loc 1 1671 0
	jmp	.L442	#
.L445:
	.loc 1 1671 0 is_stmt 0 discriminator 1
	subq	$1, -64(%rbp)	#, len
	addq	$1, -56(%rbp)	#, attrstr
.L442:
	movq	-56(%rbp), %rax	# attrstr, tmp84
	movzbl	(%rax), %eax	# *attrstr_1, D.21642
	cmpb	$32, %al	#, D.21642
	je	.L443	#,
	.loc 1 1671 0 discriminator 3
	movq	-56(%rbp), %rax	# attrstr, tmp85
	movzbl	(%rax), %eax	# *attrstr_1, D.21642
	cmpb	$9, %al	#, D.21642
	je	.L443	#,
	.loc 1 1671 0 discriminator 1
	movq	-56(%rbp), %rax	# attrstr, tmp86
	movzbl	(%rax), %eax	# *attrstr_1, D.21642
	cmpb	$10, %al	#, D.21642
	je	.L443	#,
	movq	-56(%rbp), %rax	# attrstr, tmp87
	movzbl	(%rax), %eax	# *attrstr_1, D.21642
	cmpb	$13, %al	#, D.21642
	je	.L443	#,
	movq	-56(%rbp), %rax	# attrstr, tmp88
	movzbl	(%rax), %eax	# *attrstr_1, D.21642
	cmpb	$12, %al	#, D.21642
	jne	.L444	#,
.L443:
	.loc 1 1671 0 discriminator 2
	cmpq	$0, -64(%rbp)	#, len
	jne	.L445	#,
.L444:
	.loc 1 1672 0 is_stmt 1
	cmpq	$0, -64(%rbp)	#, len
	je	.L441	#,
.LBB14:
	.loc 1 1673 0
	movq	-56(%rbp), %rax	# attrstr, tmp89
	movq	%rax, -24(%rbp)	# tmp89, sstr
	.loc 1 1674 0
	jmp	.L446	#
.L448:
	.loc 1 1674 0 is_stmt 0 discriminator 1
	subq	$1, -64(%rbp)	#, len
	addq	$1, -56(%rbp)	#, attrstr
.L446:
	movq	-56(%rbp), %rax	# attrstr, tmp90
	movzbl	(%rax), %eax	# *attrstr_2, D.21642
	cmpb	$32, %al	#, D.21642
	je	.L447	#,
	.loc 1 1674 0 discriminator 2
	movq	-56(%rbp), %rax	# attrstr, tmp91
	movzbl	(%rax), %eax	# *attrstr_2, D.21642
	cmpb	$9, %al	#, D.21642
	je	.L447	#,
	.loc 1 1674 0 discriminator 1
	movq	-56(%rbp), %rax	# attrstr, tmp92
	movzbl	(%rax), %eax	# *attrstr_2, D.21642
	cmpb	$10, %al	#, D.21642
	je	.L447	#,
	movq	-56(%rbp), %rax	# attrstr, tmp93
	movzbl	(%rax), %eax	# *attrstr_2, D.21642
	cmpb	$13, %al	#, D.21642
	je	.L447	#,
	movq	-56(%rbp), %rax	# attrstr, tmp94
	movzbl	(%rax), %eax	# *attrstr_2, D.21642
	cmpb	$12, %al	#, D.21642
	je	.L447	#,
	cmpq	$0, -64(%rbp)	#, len
	jne	.L448	#,
.L447:
	.loc 1 1677 0 is_stmt 1
	movq	-56(%rbp), %rdx	# attrstr, attrstr.116
	movq	-24(%rbp), %rax	# sstr, sstr.117
	subq	%rax, %rdx	# sstr.117, D.21643
	movq	%rdx, %rax	# D.21643, D.21643
	.loc 1 1675 0
	movq	%rax, %rdx	# D.21643, D.21644
	movq	-24(%rbp), %rax	# sstr, tmp95
	movq	%rdx, %rsi	# D.21644,
	movq	%rax, %rdi	# tmp95,
	call	Perl_newSVpvn	#
	movq	%rax, %rdx	# D.21645,
	movl	$0, %esi	#,
	movl	$5, %edi	#,
	call	Perl_newSVOP	#
	movq	%rax, %rdx	#, D.21646
	movq	-32(%rbp), %rax	# attrs, tmp96
	movq	%rax, %rsi	# tmp96,
	movl	$141, %edi	#,
	call	Perl_append_elem	#
	movq	%rax, -32(%rbp)	# tmp97, attrs
.L441:
.LBE14:
	.loc 1 1670 0 discriminator 1
	cmpq	$0, -64(%rbp)	#, len
	jne	.L449	#,
	.loc 1 1681 0
	movq	-48(%rbp), %rax	# cv, tmp98
	movq	%rax, %rdi	# tmp98,
	call	Perl_newRV	#
	movq	%rax, %rdx	# D.21645,
	movl	$0, %esi	#,
	movl	$5, %edi	#,
	call	Perl_newSVOP	#
	movq	-32(%rbp), %rdx	# attrs, tmp99
	movq	%rax, %rsi	# D.21646,
	movl	$141, %edi	#,
	call	Perl_prepend_elem	#
	movq	%rax, %rbx	#, D.21646
	movq	-40(%rbp), %rax	# stashpv, tmp100
	movl	$0, %esi	#,
	movq	%rax, %rdi	# tmp100,
	call	Perl_newSVpv	#
	movq	%rax, %rdx	# D.21645,
	movl	$0, %esi	#,
	movl	$5, %edi	#,
	call	Perl_newSVOP	#
	movq	%rbx, %rdx	# D.21646,
	movq	%rax, %rsi	# D.21646,
	movl	$141, %edi	#,
	call	Perl_prepend_elem	#
	movq	%rax, %rbx	#, D.21646
	movl	$10, %esi	#,
	movl	$.LC31, %edi	#,
	call	Perl_newSVpvn	#
	movq	%rbx, %rcx	# D.21646,
	movl	$0, %edx	#,
	movq	%rax, %rsi	# D.21645,
	movl	$4, %edi	#,
	movl	$0, %eax	#,
	call	Perl_load_module	#
	.loc 1 1689 0
	addq	$56, %rsp	#,
	popq	%rbx	#
	popq	%rbp	#
	.cfi_def_cfa 7, 8
	ret
	.cfi_endproc
.LFE32:
	.size	Perl_apply_attrs_string, .-Perl_apply_attrs_string
	.section	.rodata
.LC33:
	.string	"Can't declare %s in %s"
.LC34:
	.string	"Can't declare %s in \"%s\""
	.text
	.type	S_my_kid, @function
S_my_kid:
.LFB33:
	.loc 1 1693 0
	.cfi_startproc
	pushq	%rbp	#
	.cfi_def_cfa_offset 16
	.cfi_offset 6, -16
	movq	%rsp, %rbp	#,
	.cfi_def_cfa_register 6
	pushq	%rbx	#
	subq	$72, %rsp	#,
	.cfi_offset 3, -24
	movq	%rdi, -56(%rbp)	# o, o
	movq	%rsi, -64(%rbp)	# attrs, attrs
	movq	%rdx, -72(%rbp)	# imopsp, imopsp
	.loc 1 1697 0
	cmpq	$0, -56(%rbp)	#, o
	je	.L451	#,
	.loc 1 1697 0 is_stmt 0 discriminator 1
	movl	PL_error_count(%rip), %eax	# PL_error_count, PL_error_count.118
	testl	%eax, %eax	# PL_error_count.118
	je	.L452	#,
.L451:
	.loc 1 1698 0 is_stmt 1
	movq	-56(%rbp), %rax	# o, D.21647
	jmp	.L453	#
.L452:
	.loc 1 1700 0
	movq	-56(%rbp), %rax	# o, tmp111
	movzwl	32(%rax), %eax	# o_12(D)->op_type, D.21648
	movzwl	%ax, %eax	# D.21648, tmp112
	movl	%eax, -44(%rbp)	# tmp112, type
	.loc 1 1701 0
	cmpl	$141, -44(%rbp)	#, type
	jne	.L454	#,
	.loc 1 1702 0
	movq	-56(%rbp), %rax	# o, tmp113
	movq	40(%rax), %rax	# MEM[(struct LISTOP *)o_12(D)].op_first, tmp114
	movq	%rax, -40(%rbp)	# tmp114, kid
	jmp	.L455	#
.L456:
	.loc 1 1703 0 discriminator 2
	movq	-72(%rbp), %rdx	# imopsp, tmp115
	movq	-64(%rbp), %rcx	# attrs, tmp116
	movq	-40(%rbp), %rax	# kid, tmp117
	movq	%rcx, %rsi	# tmp116,
	movq	%rax, %rdi	# tmp117,
	call	S_my_kid	#
	.loc 1 1702 0 discriminator 2
	movq	-40(%rbp), %rax	# kid, tmp118
	movq	8(%rax), %rax	# kid_1->op_sibling, tmp119
	movq	%rax, -40(%rbp)	# tmp119, kid
.L455:
	.loc 1 1702 0 is_stmt 0 discriminator 1
	cmpq	$0, -40(%rbp)	#, kid
	jne	.L456	#,
	jmp	.L457	#
.L454:
	.loc 1 1704 0 is_stmt 1
	cmpl	$43, -44(%rbp)	#, type
	jne	.L458	#,
	.loc 1 1705 0
	movq	-56(%rbp), %rax	# o, D.21647
	jmp	.L453	#
.L458:
	.loc 1 1706 0
	cmpl	$15, -44(%rbp)	#, type
	je	.L459	#,
	.loc 1 1706 0 is_stmt 0 discriminator 1
	cmpl	$125, -44(%rbp)	#, type
	je	.L459	#,
	.loc 1 1707 0 is_stmt 1
	cmpl	$134, -44(%rbp)	#, type
	jne	.L460	#,
.L459:
	.loc 1 1709 0
	movq	-56(%rbp), %rax	# o, tmp120
	movq	40(%rax), %rax	# MEM[(struct UNOP *)o_12(D)].op_first, D.21647
	movzwl	32(%rax), %eax	# _48->op_type, D.21648
	cmpw	$7, %ax	#, D.21648
	je	.L461	#,
	.loc 1 1711 0
	movl	PL_in_my(%rip), %eax	# PL_in_my, PL_in_my.120
	.loc 1 1710 0
	cmpl	$137, %eax	#, PL_in_my.120
	jne	.L462	#,
	.loc 1 1710 0 is_stmt 0 discriminator 1
	movl	$.LC7, %ebx	#, iftmp.119
	jmp	.L463	#
.L462:
	.loc 1 1710 0 discriminator 2
	movl	$.LC8, %ebx	#, iftmp.119
.L463:
	.loc 1 1711 0 is_stmt 1 discriminator 3
	movq	-56(%rbp), %rax	# o, tmp121
	movzwl	32(%rax), %eax	# o_12(D)->op_type, D.21648
	.loc 1 1710 0 discriminator 3
	cmpw	$351, %ax	#, D.21648
	jne	.L464	#,
	.loc 1 1710 0 is_stmt 0 discriminator 4
	movq	-56(%rbp), %rax	# o, tmp122
	movq	%rax, %rdi	# tmp122,
	call	Perl_custom_op_desc	#
	jmp	.L465	#
.L464:
	.loc 1 1711 0 is_stmt 1 discriminator 5
	movq	-56(%rbp), %rax	# o, tmp123
	movzwl	32(%rax), %eax	# o_12(D)->op_type, D.21648
	movzwl	%ax, %eax	# D.21648, D.21649
	.loc 1 1710 0 discriminator 5
	cltq
	movq	PL_op_desc(,%rax,8), %rax	# PL_op_desc, iftmp.121
.L465:
	.loc 1 1710 0 is_stmt 0 discriminator 1
	movq	%rbx, %rdx	# iftmp.119,
	movq	%rax, %rsi	# iftmp.121,
	movl	$.LC33, %edi	#,
	movl	$0, %eax	#,
	call	Perl_form	#
	movq	%rax, %rdi	# D.21650,
	call	Perl_yyerror	#
	jmp	.L466	#
.L461:
	.loc 1 1712 0 is_stmt 1
	cmpq	$0, -64(%rbp)	#, attrs
	je	.L466	#,
.LBB15:
	.loc 1 1713 0
	movq	-56(%rbp), %rax	# o, tmp125
	movq	40(%rax), %rax	# MEM[(struct UNOP *)o_12(D)].op_first, D.21647
	movq	40(%rax), %rax	# MEM[(struct SVOP *)_59].op_sv, tmp126
	movq	%rax, -24(%rbp)	# tmp126, gv
	.loc 1 1714 0
	movl	$0, PL_in_my(%rip)	#, PL_in_my
	.loc 1 1715 0
	movq	$0, PL_in_my_stash(%rip)	#, PL_in_my_stash
	.loc 1 1716 0
	cmpl	$15, -44(%rbp)	#, type
	jne	.L467	#,
	.loc 1 1717 0
	movq	-24(%rbp), %rax	# gv, tmp127
	movq	(%rax), %rax	# gv_60->sv_any, D.21656
	movq	56(%rax), %rax	# _61->xgv_gp, D.21657
	.loc 1 1716 0
	movq	(%rax), %rax	# _62->gp_sv, iftmp.122
	jmp	.L468	#
.L467:
	.loc 1 1718 0
	cmpl	$125, -44(%rbp)	#, type
	jne	.L469	#,
	.loc 1 1718 0 is_stmt 0 discriminator 1
	movq	-24(%rbp), %rax	# gv, tmp128
	movq	(%rax), %rax	# gv_60->sv_any, D.21656
	movq	56(%rax), %rax	# _64->xgv_gp, D.21657
	movq	32(%rax), %rax	# _65->gp_av, iftmp.123
	jmp	.L468	#
.L469:
	.loc 1 1719 0 is_stmt 1
	cmpl	$134, -44(%rbp)	#, type
	jne	.L471	#,
	.loc 1 1719 0 is_stmt 0 discriminator 1
	movq	-24(%rbp), %rax	# gv, tmp129
	movq	(%rax), %rax	# gv_60->sv_any, D.21656
	movq	56(%rax), %rax	# _67->xgv_gp, D.21657
	movq	40(%rax), %rax	# _68->gp_hv, iftmp.124
	jmp	.L468	#
.L471:
	.loc 1 1719 0 discriminator 2
	movq	-24(%rbp), %rax	# gv, iftmp.124
.L468:
	.loc 1 1716 0 is_stmt 1 discriminator 1
	movq	-24(%rbp), %rdx	# gv, tmp130
	movq	(%rdx), %rdx	# gv_60->sv_any, D.21656
	movq	80(%rdx), %rdi	# _73->xgv_stash, D.21658
	movq	-64(%rbp), %rdx	# attrs, tmp131
	movl	$0, %ecx	#,
	movq	%rax, %rsi	# iftmp.122,
	call	S_apply_attrs	#
.L466:
.LBE15:
	.loc 1 1722 0
	movq	-56(%rbp), %rax	# o, tmp132
	movzbl	37(%rax), %eax	# o_12(D)->op_private, D.21659
	orl	$16, %eax	#, D.21659
	movl	%eax, %edx	# D.21659, D.21659
	movq	-56(%rbp), %rax	# o, tmp133
	movb	%dl, 37(%rax)	# D.21659, o_12(D)->op_private
	.loc 1 1723 0
	movq	-56(%rbp), %rax	# o, D.21647
	jmp	.L453	#
.L460:
	.loc 1 1725 0
	cmpl	$9, -44(%rbp)	#, type
	je	.L473	#,
	.loc 1 1725 0 is_stmt 0 discriminator 1
	cmpl	$10, -44(%rbp)	#, type
	je	.L473	#,
	.loc 1 1726 0 is_stmt 1
	cmpl	$11, -44(%rbp)	#, type
	je	.L473	#,
	.loc 1 1727 0
	cmpl	$3, -44(%rbp)	#, type
	je	.L473	#,
	.loc 1 1732 0
	movl	PL_in_my(%rip), %eax	# PL_in_my, PL_in_my.126
	.loc 1 1730 0
	cmpl	$137, %eax	#, PL_in_my.126
	jne	.L474	#,
	.loc 1 1730 0 is_stmt 0 discriminator 1
	movl	$.LC7, %ebx	#, iftmp.125
	jmp	.L475	#
.L474:
	.loc 1 1730 0 discriminator 2
	movl	$.LC8, %ebx	#, iftmp.125
.L475:
	.loc 1 1731 0 is_stmt 1 discriminator 3
	movq	-56(%rbp), %rax	# o, tmp134
	movzwl	32(%rax), %eax	# o_12(D)->op_type, D.21648
	.loc 1 1730 0 discriminator 3
	cmpw	$351, %ax	#, D.21648
	jne	.L476	#,
	.loc 1 1730 0 is_stmt 0 discriminator 4
	movq	-56(%rbp), %rax	# o, tmp135
	movq	%rax, %rdi	# tmp135,
	call	Perl_custom_op_desc	#
	jmp	.L477	#
.L476:
	.loc 1 1731 0 is_stmt 1 discriminator 5
	movq	-56(%rbp), %rax	# o, tmp136
	movzwl	32(%rax), %eax	# o_12(D)->op_type, D.21648
	movzwl	%ax, %eax	# D.21648, D.21649
	.loc 1 1730 0 discriminator 5
	cltq
	movq	PL_op_desc(,%rax,8), %rax	# PL_op_desc, iftmp.127
.L477:
	.loc 1 1730 0 is_stmt 0 discriminator 6
	movq	%rbx, %rdx	# iftmp.125,
	movq	%rax, %rsi	# iftmp.127,
	movl	$.LC34, %edi	#,
	movl	$0, %eax	#,
	call	Perl_form	#
	movq	%rax, %rdi	# D.21650,
	call	Perl_yyerror	#
	.loc 1 1733 0 is_stmt 1 discriminator 6
	movq	-56(%rbp), %rax	# o, D.21647
	jmp	.L453	#
.L473:
	.loc 1 1735 0
	cmpq	$0, -64(%rbp)	#, attrs
	je	.L457	#,
	.loc 1 1735 0 is_stmt 0 discriminator 1
	cmpl	$3, -44(%rbp)	#, type
	je	.L457	#,
.LBB16:
	.loc 1 1738 0 is_stmt 1
	movl	$0, PL_in_my(%rip)	#, PL_in_my
	.loc 1 1739 0
	movq	$0, PL_in_my_stash(%rip)	#, PL_in_my_stash
	.loc 1 1742 0
	movq	-56(%rbp), %rax	# o, tmp138
	movq	24(%rax), %rax	# o_12(D)->op_targ, D.21651
	movl	%eax, %ecx	# D.21651, D.21649
	movq	PL_comppad_name(%rip), %rax	# PL_comppad_name, PL_comppad_name.129
	movl	$0, %edx	#,
	movl	%ecx, %esi	# D.21649,
	movq	%rax, %rdi	# PL_comppad_name.129,
	call	Perl_av_fetch	#
	movq	(%rax), %rax	# *_34, D.21653
	movl	12(%rax), %eax	# _35->sv_flags, D.21654
	andl	$1073741824, %eax	#, D.21654
	testl	%eax, %eax	# D.21654
	je	.L478	#,
	.loc 1 1742 0 is_stmt 0 discriminator 1
	movq	-56(%rbp), %rax	# o, tmp139
	movq	24(%rax), %rax	# o_12(D)->op_targ, D.21651
	movl	%eax, %ecx	# D.21651, D.21649
	movq	PL_comppad_name(%rip), %rax	# PL_comppad_name, PL_comppad_name.130
	movl	$0, %edx	#,
	movl	%ecx, %esi	# D.21649,
	movq	%rax, %rdi	# PL_comppad_name.130,
	call	Perl_av_fetch	#
	movq	(%rax), %rax	# *_41, D.21653
	movq	(%rax), %rax	# _42->sv_any, D.21655
	movq	48(%rax), %rax	# MEM[(struct XPVMG *)_43].xmg_stash, iftmp.128
	jmp	.L479	#
.L478:
	.loc 1 1742 0 discriminator 2
	movl	$0, %eax	#, iftmp.128
.L479:
	.loc 1 1742 0 discriminator 3
	movq	%rax, -32(%rbp)	# iftmp.128, stash
	.loc 1 1743 0 is_stmt 1 discriminator 3
	cmpq	$0, -32(%rbp)	#, stash
	jne	.L480	#,
	.loc 1 1744 0
	movq	PL_curstash(%rip), %rax	# PL_curstash, tmp140
	movq	%rax, -32(%rbp)	# tmp140, stash
.L480:
	.loc 1 1745 0
	movq	-72(%rbp), %rcx	# imopsp, tmp141
	movq	-64(%rbp), %rdx	# attrs, tmp142
	movq	-56(%rbp), %rsi	# o, tmp143
	movq	-32(%rbp), %rax	# stash, tmp144
	movq	%rax, %rdi	# tmp144,
	call	S_apply_attrs_my	#
.L457:
.LBE16:
	.loc 1 1747 0
	movq	-56(%rbp), %rax	# o, tmp145
	movzbl	36(%rax), %eax	# o_12(D)->op_flags, D.21659
	orl	$32, %eax	#, D.21659
	movl	%eax, %edx	# D.21659, D.21659
	movq	-56(%rbp), %rax	# o, tmp146
	movb	%dl, 36(%rax)	# D.21659, o_12(D)->op_flags
	.loc 1 1748 0
	movq	-56(%rbp), %rax	# o, tmp147
	movzbl	37(%rax), %eax	# o_12(D)->op_private, D.21659
	orl	$-128, %eax	#, D.21659
	movl	%eax, %edx	# D.21659, D.21659
	movq	-56(%rbp), %rax	# o, tmp148
	movb	%dl, 37(%rax)	# D.21659, o_12(D)->op_private
	.loc 1 1749 0
	movq	-56(%rbp), %rax	# o, D.21647
.L453:
	.loc 1 1750 0
	addq	$72, %rsp	#,
	popq	%rbx	#
	popq	%rbp	#
	.cfi_def_cfa 7, 8
	ret
	.cfi_endproc
.LFE33:
	.size	S_my_kid, .-S_my_kid
	.globl	Perl_my_attrs
	.type	Perl_my_attrs, @function
Perl_my_attrs:
.LFB34:
	.loc 1 1754 0
	.cfi_startproc
	pushq	%rbp	#
	.cfi_def_cfa_offset 16
	.cfi_offset 6, -16
	movq	%rsp, %rbp	#,
	.cfi_def_cfa_register 6
	subq	$32, %rsp	#,
	movq	%rdi, -24(%rbp)	# o, o
	movq	%rsi, -32(%rbp)	# attrs, attrs
	.loc 1 1755 0
	movq	$0, -8(%rbp)	#, rops
	.loc 1 1756 0
	movl	$0, -12(%rbp)	#, maybe_scalar
	.loc 1 1766 0
	movl	$1, -12(%rbp)	#, maybe_scalar
	.loc 1 1768 0
	cmpq	$0, -32(%rbp)	#, attrs
	je	.L482	#,
	.loc 1 1769 0
	movq	-32(%rbp), %rax	# attrs, tmp68
	movq	%rax, %rdi	# tmp68,
	call	Perl_save_freeop	#
.L482:
	.loc 1 1770 0
	leaq	-8(%rbp), %rdx	#, tmp69
	movq	-32(%rbp), %rcx	# attrs, tmp70
	movq	-24(%rbp), %rax	# o, tmp71
	movq	%rcx, %rsi	# tmp70,
	movq	%rax, %rdi	# tmp71,
	call	S_my_kid	#
	movq	%rax, -24(%rbp)	# tmp72, o
	.loc 1 1771 0
	movq	-8(%rbp), %rax	# rops, rops.131
	testq	%rax, %rax	# rops.131
	je	.L483	#,
	.loc 1 1772 0
	cmpl	$0, -12(%rbp)	#, maybe_scalar
	je	.L484	#,
	.loc 1 1772 0 is_stmt 0 discriminator 1
	movq	-24(%rbp), %rax	# o, tmp73
	movzwl	32(%rax), %eax	# o_6->op_type, D.21662
	cmpw	$9, %ax	#, D.21662
	jne	.L484	#,
	.loc 1 1773 0 is_stmt 1
	movq	-8(%rbp), %rax	# rops, rops.132
	movq	-24(%rbp), %rdx	# o, tmp74
	movq	%rax, %rsi	# rops.132,
	movl	$141, %edi	#,
	call	Perl_append_list	#
	movq	%rax, %rdi	# D.21663,
	call	Perl_scalar	#
	movq	%rax, -24(%rbp)	# tmp75, o
	.loc 1 1774 0
	movq	-24(%rbp), %rax	# o, tmp76
	movzbl	37(%rax), %eax	# o_11->op_private, D.21664
	orl	$-128, %eax	#, D.21664
	movl	%eax, %edx	# D.21664, D.21664
	movq	-24(%rbp), %rax	# o, tmp77
	movb	%dl, 37(%rax)	# D.21664, o_11->op_private
	jmp	.L483	#
.L484:
	.loc 1 1777 0
	movq	-8(%rbp), %rdx	# rops, rops.133
	movq	-24(%rbp), %rax	# o, tmp78
	movq	%rax, %rsi	# tmp78,
	movl	$141, %edi	#,
	call	Perl_append_list	#
	movq	%rax, -24(%rbp)	# tmp79, o
.L483:
	.loc 1 1779 0
	movl	$0, PL_in_my(%rip)	#, PL_in_my
	.loc 1 1780 0
	movq	$0, PL_in_my_stash(%rip)	#, PL_in_my_stash
	.loc 1 1781 0
	movq	-24(%rbp), %rax	# o, D.21663
	.loc 1 1782 0
	leave
	.cfi_def_cfa 7, 8
	ret
	.cfi_endproc
.LFE34:
	.size	Perl_my_attrs, .-Perl_my_attrs
	.globl	Perl_my
	.type	Perl_my, @function
Perl_my:
.LFB35:
	.loc 1 1786 0
	.cfi_startproc
	pushq	%rbp	#
	.cfi_def_cfa_offset 16
	.cfi_offset 6, -16
	movq	%rsp, %rbp	#,
	.cfi_def_cfa_register 6
	subq	$16, %rsp	#,
	movq	%rdi, -8(%rbp)	# o, o
	.loc 1 1787 0
	movq	-8(%rbp), %rax	# o, tmp61
	movl	$0, %esi	#,
	movq	%rax, %rdi	# tmp61,
	call	Perl_my_attrs	#
	.loc 1 1788 0
	leave
	.cfi_def_cfa 7, 8
	ret
	.cfi_endproc
.LFE35:
	.size	Perl_my, .-Perl_my
	.globl	Perl_sawparens
	.type	Perl_sawparens, @function
Perl_sawparens:
.LFB36:
	.loc 1 1792 0
	.cfi_startproc
	pushq	%rbp	#
	.cfi_def_cfa_offset 16
	.cfi_offset 6, -16
	movq	%rsp, %rbp	#,
	.cfi_def_cfa_register 6
	movq	%rdi, -8(%rbp)	# o, o
	.loc 1 1793 0
	cmpq	$0, -8(%rbp)	#, o
	je	.L489	#,
	.loc 1 1794 0
	movq	-8(%rbp), %rax	# o, tmp63
	movzbl	36(%rax), %eax	# o_1(D)->op_flags, D.21666
	orl	$8, %eax	#, D.21666
	movl	%eax, %edx	# D.21666, D.21666
	movq	-8(%rbp), %rax	# o, tmp64
	movb	%dl, 36(%rax)	# D.21666, o_1(D)->op_flags
.L489:
	.loc 1 1795 0
	movq	-8(%rbp), %rax	# o, D.21667
	.loc 1 1796 0
	popq	%rbp	#
	.cfi_def_cfa 7, 8
	ret
	.cfi_endproc
.LFE36:
	.size	Perl_sawparens, .-Perl_sawparens
	.section	.rodata
.LC35:
	.string	"@array"
.LC36:
	.string	"%hash"
	.align 8
.LC37:
	.string	"Applying %s to %s will act on scalar(%s)"
	.text
	.globl	Perl_bind_match
	.type	Perl_bind_match, @function
Perl_bind_match:
.LFB37:
	.loc 1 1800 0
	.cfi_startproc
	pushq	%rbp	#
	.cfi_def_cfa_offset 16
	.cfi_offset 6, -16
	movq	%rsp, %rbp	#,
	.cfi_def_cfa_register 6
	subq	$64, %rsp	#,
	movl	%edi, -36(%rbp)	# type, type
	movq	%rsi, -48(%rbp)	# left, left
	movq	%rdx, -56(%rbp)	# right, right
	.loc 1 1803 0
	movq	PL_curcop(%rip), %rax	# PL_curcop, PL_curcop.134
	movq	80(%rax), %rax	# PL_curcop.134_6->cop_warnings, D.21669
	testq	%rax, %rax	# D.21669
	je	.L492	#,
	.loc 1 1803 0 is_stmt 0 discriminator 1
	movq	PL_curcop(%rip), %rax	# PL_curcop, PL_curcop.135
	movq	80(%rax), %rax	# PL_curcop.135_8->cop_warnings, D.21669
	cmpq	$32, %rax	#, D.21669
	je	.L492	#,
	movq	PL_curcop(%rip), %rax	# PL_curcop, PL_curcop.136
	movq	80(%rax), %rax	# PL_curcop.136_10->cop_warnings, D.21669
	cmpq	$16, %rax	#, D.21669
	je	.L493	#,
	.loc 1 1803 0 discriminator 2
	movq	PL_curcop(%rip), %rax	# PL_curcop, PL_curcop.137
	movq	80(%rax), %rax	# PL_curcop.137_12->cop_warnings, D.21669
	movq	(%rax), %rax	# _13->sv_any, D.21670
	movq	(%rax), %rax	# MEM[(struct XPV *)_14].xpv_pv, D.21671
	addq	$3, %rax	#, D.21671
	movzbl	(%rax), %eax	# *_16, D.21672
	movsbl	%al, %eax	# D.21672, D.21673
	andl	$1, %eax	#, D.21673
	testl	%eax, %eax	# D.21673
	jne	.L493	#,
.L492:
	movq	PL_curcop(%rip), %rax	# PL_curcop, PL_curcop.138
	movq	80(%rax), %rax	# PL_curcop.138_20->cop_warnings, D.21669
	testq	%rax, %rax	# D.21669
	jne	.L494	#,
	.loc 1 1803 0 discriminator 1
	movzbl	PL_dowarn(%rip), %eax	# PL_dowarn, PL_dowarn.139
	movzbl	%al, %eax	# PL_dowarn.139, D.21673
	andl	$1, %eax	#, D.21673
	testl	%eax, %eax	# D.21673
	je	.L494	#,
.L493:
	.loc 1 1804 0 is_stmt 1 discriminator 1
	movq	-48(%rbp), %rax	# left, tmp121
	movzwl	32(%rax), %eax	# left_25(D)->op_type, D.21674
	.loc 1 1803 0 discriminator 1
	cmpw	$125, %ax	#, D.21674
	je	.L495	#,
	.loc 1 1805 0
	movq	-48(%rbp), %rax	# left, tmp122
	movzwl	32(%rax), %eax	# left_25(D)->op_type, D.21674
	.loc 1 1804 0
	cmpw	$134, %ax	#, D.21674
	je	.L495	#,
	.loc 1 1806 0
	movq	-48(%rbp), %rax	# left, tmp123
	movzwl	32(%rax), %eax	# left_25(D)->op_type, D.21674
	.loc 1 1805 0
	cmpw	$10, %ax	#, D.21674
	je	.L495	#,
	.loc 1 1807 0
	movq	-48(%rbp), %rax	# left, tmp124
	movzwl	32(%rax), %eax	# left_25(D)->op_type, D.21674
	.loc 1 1806 0
	cmpw	$11, %ax	#, D.21674
	jne	.L494	#,
.L495:
.LBB17:
	.loc 1 1808 0
	movq	-56(%rbp), %rax	# right, tmp125
	movzwl	32(%rax), %eax	# right_30(D)->op_type, D.21674
	.loc 1 1810 0
	cmpw	$33, %ax	#, D.21674
	je	.L496	#,
	.loc 1 1809 0
	movq	-56(%rbp), %rax	# right, tmp126
	movzwl	32(%rax), %eax	# right_30(D)->op_type, D.21674
	.loc 1 1808 0
	cmpw	$35, %ax	#, D.21674
	jne	.L497	#,
.L496:
	.loc 1 1810 0 discriminator 1
	movq	-56(%rbp), %rax	# right, tmp127
	movzwl	32(%rax), %eax	# right_30(D)->op_type, D.21674
	movzwl	%ax, %eax	# D.21674, iftmp.140
	jmp	.L498	#
.L497:
	.loc 1 1810 0 is_stmt 0
	movl	$31, %eax	#, iftmp.140
.L498:
	.loc 1 1808 0 is_stmt 1
	cltq
	movq	PL_op_desc(,%rax,8), %rax	# PL_op_desc, tmp129
	movq	%rax, -16(%rbp)	# tmp129, desc
	.loc 1 1811 0
	movq	-48(%rbp), %rax	# left, tmp130
	movzwl	32(%rax), %eax	# left_25(D)->op_type, D.21674
	.loc 1 1813 0
	cmpw	$125, %ax	#, D.21674
	je	.L499	#,
	.loc 1 1812 0
	movq	-48(%rbp), %rax	# left, tmp131
	movzwl	32(%rax), %eax	# left_25(D)->op_type, D.21674
	.loc 1 1811 0
	cmpw	$10, %ax	#, D.21674
	jne	.L500	#,
.L499:
	.loc 1 1813 0 discriminator 1
	movl	$.LC35, %eax	#, iftmp.141
	jmp	.L501	#
.L500:
	.loc 1 1813 0 is_stmt 0
	movl	$.LC36, %eax	#, iftmp.141
.L501:
	.loc 1 1811 0 is_stmt 1
	movq	%rax, -8(%rbp)	# iftmp.141, sample
	.loc 1 1814 0
	movq	-8(%rbp), %rcx	# sample, tmp132
	movq	-8(%rbp), %rdx	# sample, tmp133
	movq	-16(%rbp), %rax	# desc, tmp134
	movq	%rcx, %r8	# tmp132,
	movq	%rdx, %rcx	# tmp133,
	movq	%rax, %rdx	# tmp134,
	movl	$.LC37, %esi	#,
	movl	$12, %edi	#,
	movl	$0, %eax	#,
	call	Perl_warner	#
.L494:
.LBE17:
	.loc 1 1819 0
	movq	-56(%rbp), %rax	# right, tmp135
	movzwl	32(%rax), %eax	# right_30(D)->op_type, D.21674
	cmpw	$5, %ax	#, D.21674
	jne	.L502	#,
	.loc 1 1820 0 discriminator 1
	movq	-56(%rbp), %rax	# right, tmp136
	movzbl	37(%rax), %eax	# MEM[(struct SVOP *)right_30(D)].op_private, D.21675
	movzbl	%al, %eax	# D.21675, D.21673
	andl	$64, %eax	#, D.21673
	.loc 1 1819 0 discriminator 1
	testl	%eax, %eax	# D.21673
	je	.L502	#,
	.loc 1 1821 0
	movq	-56(%rbp), %rax	# right, tmp137
	movzbl	37(%rax), %eax	# MEM[(struct SVOP *)right_30(D)].op_private, D.21675
	movzbl	%al, %eax	# D.21675, D.21673
	andl	$8, %eax	#, D.21673
	.loc 1 1820 0
	testl	%eax, %eax	# D.21673
	je	.L502	#,
	.loc 1 1823 0
	movq	-56(%rbp), %rax	# right, tmp138
	movq	%rax, %rdi	# tmp138,
	call	S_no_bareword_allowed	#
.L502:
	.loc 1 1826 0
	movq	-56(%rbp), %rax	# right, tmp139
	movzbl	36(%rax), %eax	# right_30(D)->op_flags, D.21675
	movzbl	%al, %eax	# D.21675, D.21673
	andl	$64, %eax	#, D.21673
	testl	%eax, %eax	# D.21673
	jne	.L503	#,
	.loc 1 1827 0 discriminator 1
	movq	-56(%rbp), %rax	# right, tmp140
	movzwl	32(%rax), %eax	# right_30(D)->op_type, D.21674
	.loc 1 1826 0 discriminator 1
	cmpw	$31, %ax	#, D.21674
	je	.L504	#,
	.loc 1 1828 0
	movq	-56(%rbp), %rax	# right, tmp141
	movzwl	32(%rax), %eax	# right_30(D)->op_type, D.21674
	.loc 1 1827 0
	cmpw	$33, %ax	#, D.21674
	je	.L504	#,
	.loc 1 1829 0
	movq	-56(%rbp), %rax	# right, tmp142
	movzwl	32(%rax), %eax	# right_30(D)->op_type, D.21674
	.loc 1 1828 0
	cmpw	$35, %ax	#, D.21674
	jne	.L503	#,
.L504:
	.loc 1 1830 0
	movq	-56(%rbp), %rax	# right, tmp143
	movzbl	36(%rax), %eax	# right_30(D)->op_flags, D.21675
	orl	$64, %eax	#, D.21675
	movl	%eax, %edx	# D.21675, D.21675
	movq	-56(%rbp), %rax	# right, tmp144
	movb	%dl, 36(%rax)	# D.21675, right_30(D)->op_flags
	.loc 1 1831 0
	movq	-56(%rbp), %rax	# right, tmp145
	movzwl	32(%rax), %eax	# right_30(D)->op_type, D.21674
	cmpw	$31, %ax	#, D.21674
	je	.L505	#,
	.loc 1 1832 0 discriminator 1
	movq	-56(%rbp), %rax	# right, tmp146
	movzwl	32(%rax), %eax	# right_30(D)->op_type, D.21674
	.loc 1 1831 0 discriminator 1
	cmpw	$35, %ax	#, D.21674
	jne	.L506	#,
	.loc 1 1833 0
	movq	-56(%rbp), %rax	# right, tmp147
	movzbl	37(%rax), %eax	# right_30(D)->op_private, D.21675
	movzbl	%al, %eax	# D.21675, D.21673
	andl	$4, %eax	#, D.21673
	.loc 1 1832 0
	testl	%eax, %eax	# D.21673
	jne	.L505	#,
.L506:
	.loc 1 1834 0
	movq	-56(%rbp), %rax	# right, tmp148
	movzwl	32(%rax), %eax	# right_30(D)->op_type, D.21674
	movzwl	%ax, %edx	# D.21674, D.21673
	movq	-48(%rbp), %rax	# left, tmp149
	movl	%edx, %esi	# D.21673,
	movq	%rax, %rdi	# tmp149,
	call	Perl_mod	#
	movq	%rax, -48(%rbp)	# tmp150, left
.L505:
	.loc 1 1835 0
	movq	-56(%rbp), %rax	# right, tmp151
	movzwl	32(%rax), %eax	# right_30(D)->op_type, D.21674
	cmpw	$35, %ax	#, D.21674
	jne	.L507	#,
	.loc 1 1836 0
	movq	-48(%rbp), %rax	# left, tmp152
	movq	%rax, %rdi	# tmp152,
	call	Perl_scalar	#
	movq	-56(%rbp), %rdx	# right, tmp153
	movq	%rdx, %rcx	# tmp153,
	movq	%rax, %rdx	# D.21668,
	movl	$64, %esi	#,
	movl	$0, %edi	#,
	call	Perl_newBINOP	#
	movq	%rax, -24(%rbp)	# tmp154, o
	jmp	.L508	#
.L507:
	.loc 1 1838 0
	movq	-48(%rbp), %rax	# left, tmp155
	movq	%rax, %rdi	# tmp155,
	call	Perl_scalar	#
	movq	%rax, %rcx	#, D.21668
	movq	-56(%rbp), %rax	# right, tmp156
	movzwl	32(%rax), %eax	# right_30(D)->op_type, D.21674
	movzwl	%ax, %eax	# D.21674, D.21673
	movq	-56(%rbp), %rdx	# right, tmp157
	movq	%rcx, %rsi	# D.21668,
	movl	%eax, %edi	# D.21673,
	call	Perl_prepend_elem	#
	movq	%rax, -24(%rbp)	# tmp158, o
.L508:
	.loc 1 1839 0
	cmpl	$96, -36(%rbp)	#, type
	jne	.L509	#,
	.loc 1 1840 0
	movq	-24(%rbp), %rax	# o, tmp159
	movq	%rax, %rdi	# tmp159,
	call	Perl_scalar	#
	movq	%rax, %rdx	# D.21668,
	movl	$0, %esi	#,
	movl	$96, %edi	#,
	call	Perl_newUNOP	#
	jmp	.L510	#
.L509:
	.loc 1 1841 0
	movq	-24(%rbp), %rax	# o, D.21668
	jmp	.L510	#
.L503:
	.loc 1 1844 0
	movl	$0, %esi	#,
	movl	$31, %edi	#,
	call	Perl_newPMOP	#
	movq	-56(%rbp), %rcx	# right, tmp160
	movl	$0, %edx	#,
	movq	%rcx, %rsi	# tmp160,
	movq	%rax, %rdi	# D.21668,
	call	Perl_pmruntime	#
	movq	%rax, %rdx	#, D.21668
	movq	-48(%rbp), %rcx	# left, tmp161
	movl	-36(%rbp), %eax	# type, tmp162
	movq	%rcx, %rsi	# tmp161,
	movl	%eax, %edi	# tmp162,
	call	Perl_bind_match	#
.L510:
	.loc 1 1846 0
	leave
	.cfi_def_cfa 7, 8
	ret
	.cfi_endproc
.LFE37:
	.size	Perl_bind_match, .-Perl_bind_match
	.globl	Perl_invert
	.type	Perl_invert, @function
Perl_invert:
.LFB38:
	.loc 1 1850 0
	.cfi_startproc
	pushq	%rbp	#
	.cfi_def_cfa_offset 16
	.cfi_offset 6, -16
	movq	%rsp, %rbp	#,
	.cfi_def_cfa_register 6
	subq	$16, %rsp	#,
	movq	%rdi, -8(%rbp)	# o, o
	.loc 1 1851 0
	cmpq	$0, -8(%rbp)	#, o
	jne	.L512	#,
	.loc 1 1852 0
	movq	-8(%rbp), %rax	# o, D.21679
	jmp	.L513	#
.L512:
	.loc 1 1854 0
	movq	-8(%rbp), %rax	# o, tmp62
	movq	%rax, %rdi	# tmp62,
	call	Perl_scalar	#
	movq	%rax, %rdx	# D.21679,
	movl	$128, %esi	#,
	movl	$96, %edi	#,
	call	Perl_newUNOP	#
.L513:
	.loc 1 1855 0
	leave
	.cfi_def_cfa 7, 8
	ret
	.cfi_endproc
.LFE38:
	.size	Perl_invert, .-Perl_invert
	.globl	Perl_scope
	.type	Perl_scope, @function
Perl_scope:
.LFB39:
	.loc 1 1859 0
	.cfi_startproc
	pushq	%rbp	#
	.cfi_def_cfa_offset 16
	.cfi_offset 6, -16
	movq	%rsp, %rbp	#,
	.cfi_def_cfa_register 6
	subq	$32, %rsp	#,
	movq	%rdi, -24(%rbp)	# o, o
	.loc 1 1860 0
	cmpq	$0, -24(%rbp)	#, o
	je	.L515	#,
	.loc 1 1861 0
	movq	-24(%rbp), %rax	# o, tmp74
	movzbl	36(%rax), %eax	# o_2(D)->op_flags, D.21680
	movzbl	%al, %eax	# D.21680, D.21681
	andl	$8, %eax	#, D.21681
	testl	%eax, %eax	# D.21681
	jne	.L516	#,
	.loc 1 1861 0 is_stmt 0 discriminator 1
	movl	PL_perldb(%rip), %eax	# PL_perldb, PL_perldb.142
	testl	%eax, %eax	# PL_perldb.142
	je	.L517	#,
	movl	PL_perldb(%rip), %eax	# PL_perldb, PL_perldb.143
	andl	$4, %eax	#, D.21682
	testl	%eax, %eax	# D.21682
	jne	.L516	#,
.L517:
	.loc 1 1861 0 discriminator 2
	movzbl	PL_tainting(%rip), %eax	# PL_tainting, PL_tainting.144
	testb	%al, %al	# PL_tainting.144
	je	.L518	#,
.L516:
	.loc 1 1862 0 is_stmt 1
	movl	$0, %esi	#,
	movl	$177, %edi	#,
	call	Perl_newOP	#
	movq	-24(%rbp), %rdx	# o, tmp75
	movq	%rax, %rsi	# D.21685,
	movl	$173, %edi	#,
	call	Perl_prepend_elem	#
	movq	%rax, -24(%rbp)	# tmp76, o
	.loc 1 1863 0
	movq	-24(%rbp), %rax	# o, tmp77
	movw	$178, 32(%rax)	#, o_17->op_type
	.loc 1 1864 0
	movq	PL_ppaddr+1424(%rip), %rdx	# PL_ppaddr, D.21684
	movq	-24(%rbp), %rax	# o, tmp78
	movq	%rdx, 16(%rax)	# D.21684, o_17->op_ppaddr
	jmp	.L515	#
.L518:
	.loc 1 1866 0
	movq	-24(%rbp), %rax	# o, tmp79
	movzwl	32(%rax), %eax	# o_2(D)->op_type, D.21683
	cmpw	$173, %ax	#, D.21683
	jne	.L519	#,
.LBB18:
	.loc 1 1868 0
	movq	-24(%rbp), %rax	# o, tmp80
	movw	$179, 32(%rax)	#, o_2(D)->op_type
	.loc 1 1869 0
	movq	PL_ppaddr+1432(%rip), %rdx	# PL_ppaddr, D.21684
	movq	-24(%rbp), %rax	# o, tmp81
	movq	%rdx, 16(%rax)	# D.21684, o_2(D)->op_ppaddr
	.loc 1 1870 0
	movq	-24(%rbp), %rax	# o, tmp82
	movq	40(%rax), %rax	# MEM[(struct LISTOP *)o_2(D)].op_first, tmp83
	movq	%rax, -8(%rbp)	# tmp83, kid
	.loc 1 1871 0
	movq	-8(%rbp), %rax	# kid, tmp84
	movzwl	32(%rax), %eax	# kid_12->op_type, D.21683
	cmpw	$174, %ax	#, D.21683
	je	.L520	#,
	.loc 1 1871 0 is_stmt 0 discriminator 1
	movq	-8(%rbp), %rax	# kid, tmp85
	movzwl	32(%rax), %eax	# kid_12->op_type, D.21683
	cmpw	$175, %ax	#, D.21683
	jne	.L521	#,
.L520:
	.loc 1 1872 0 is_stmt 1
	movq	-8(%rbp), %rax	# kid, tmp86
	movq	%rax, %rdi	# tmp86,
	call	Perl_op_null	#
.LBE18:
	jmp	.L515	#
.L521:
	jmp	.L515	#
.L519:
	.loc 1 1875 0
	movq	-24(%rbp), %rax	# o, tmp87
	movl	$0, %ecx	#,
	movq	%rax, %rdx	# tmp87,
	movl	$0, %esi	#,
	movl	$179, %edi	#,
	call	Perl_newLISTOP	#
	movq	%rax, -24(%rbp)	# tmp88, o
.L515:
	.loc 1 1877 0
	movq	-24(%rbp), %rax	# o, D.21685
	.loc 1 1878 0
	leave
	.cfi_def_cfa 7, 8
	ret
	.cfi_endproc
.LFE39:
	.size	Perl_scope, .-Perl_scope
	.section	.rodata
	.align 8
.LC38:
	.string	"internal error: obsolete function save_hints() called"
	.text
	.globl	Perl_save_hints
	.type	Perl_save_hints, @function
Perl_save_hints:
.LFB40:
	.loc 1 1883 0
	.cfi_startproc
	pushq	%rbp	#
	.cfi_def_cfa_offset 16
	.cfi_offset 6, -16
	movq	%rsp, %rbp	#,
	.cfi_def_cfa_register 6
	.loc 1 1884 0
	movl	$.LC38, %edi	#,
	movl	$0, %eax	#,
	call	Perl_croak	#
	.loc 1 1885 0
	popq	%rbp	#
	.cfi_def_cfa 7, 8
	ret
	.cfi_endproc
.LFE40:
	.size	Perl_save_hints, .-Perl_save_hints
	.globl	Perl_block_start
	.type	Perl_block_start, @function
Perl_block_start:
.LFB41:
	.loc 1 1889 0
	.cfi_startproc
	pushq	%rbp	#
	.cfi_def_cfa_offset 16
	.cfi_offset 6, -16
	movq	%rsp, %rbp	#,
	.cfi_def_cfa_register 6
	pushq	%rbx	#
	subq	$40, %rsp	#,
	.cfi_offset 3, -24
	movl	%edi, -36(%rbp)	# full, full
	.loc 1 1890 0
	movl	PL_savestack_ix(%rip), %eax	# PL_savestack_ix, tmp115
	movl	%eax, -20(%rbp)	# tmp115, retval
	.loc 1 1892 0
	movl	PL_yynerrs(%rip), %eax	# PL_yynerrs, PL_yynerrs.145
	testl	%eax, %eax	# PL_yynerrs.145
	je	.L525	#,
	.loc 1 1892 0 is_stmt 0 discriminator 1
	movl	-20(%rbp), %eax	# retval, D.21687
	jmp	.L526	#
.L525:
	.loc 1 1894 0 is_stmt 1
	movl	-36(%rbp), %eax	# full, tmp116
	movl	%eax, %edi	# tmp116,
	call	Perl_pad_block_start	#
.LBB19:
	.loc 1 1895 0
	movl	PL_savestack_ix(%rip), %eax	# PL_savestack_ix, PL_savestack_ix.146
	leal	3(%rax), %edx	#, D.21687
	movl	PL_savestack_max(%rip), %eax	# PL_savestack_max, PL_savestack_max.147
	cmpl	%eax, %edx	# PL_savestack_max.147, D.21687
	jle	.L527	#,
	.loc 1 1895 0 is_stmt 0 discriminator 1
	call	Perl_savestack_grow	#
.L527:
	.loc 1 1895 0 discriminator 2
	movl	PL_hints(%rip), %eax	# PL_hints, PL_hints.148
	andl	$131072, %eax	#, D.21688
	testl	%eax, %eax	# D.21688
	je	.L528	#,
	.loc 1 1895 0 discriminator 1
	movq	PL_savestack(%rip), %rcx	# PL_savestack, PL_savestack.149
	movl	PL_savestack_ix(%rip), %eax	# PL_savestack_ix, PL_savestack_ix.150
	leal	1(%rax), %edx	#, PL_savestack_ix.152
	movl	%edx, PL_savestack_ix(%rip)	# PL_savestack_ix.152, PL_savestack_ix
	cltq
	salq	$3, %rax	#, D.21689
	leaq	(%rcx,%rax), %rdx	#, D.21690
	movq	PL_hintgv(%rip), %rax	# PL_hintgv, PL_hintgv.153
	movq	(%rax), %rax	# PL_hintgv.153_18->sv_any, D.21691
	movq	56(%rax), %rax	# _19->xgv_gp, D.21692
	movq	40(%rax), %rax	# _20->gp_hv, D.21693
	movq	%rax, (%rdx)	# D.21693, _17->any_ptr
	movq	PL_hintgv(%rip), %rax	# PL_hintgv, PL_hintgv.154
	movq	(%rax), %rax	# PL_hintgv.154_22->sv_any, D.21691
	movq	56(%rax), %rbx	# _23->xgv_gp, D.21692
	movq	PL_hintgv(%rip), %rax	# PL_hintgv, PL_hintgv.155
	movq	(%rax), %rax	# PL_hintgv.155_25->sv_any, D.21691
	movq	56(%rax), %rax	# _26->xgv_gp, D.21692
	movq	40(%rax), %rax	# _27->gp_hv, D.21693
	movq	%rax, %rdi	# D.21693,
	call	Perl_newHVhv	#
	movq	%rax, 40(%rbx)	# D.21693, _24->gp_hv
.L528:
	.loc 1 1895 0 discriminator 2
	movq	PL_savestack(%rip), %rcx	# PL_savestack, PL_savestack.156
	movl	PL_savestack_ix(%rip), %eax	# PL_savestack_ix, PL_savestack_ix.157
	leal	1(%rax), %edx	#, PL_savestack_ix.159
	movl	%edx, PL_savestack_ix(%rip)	# PL_savestack_ix.159, PL_savestack_ix
	cltq
	salq	$3, %rax	#, D.21689
	leaq	(%rcx,%rax), %rdx	#, D.21690
	movl	PL_hints(%rip), %eax	# PL_hints, PL_hints.160
	movl	%eax, (%rdx)	# PL_hints.161, _36->any_i32
	movq	PL_savestack(%rip), %rcx	# PL_savestack, PL_savestack.162
	movl	PL_savestack_ix(%rip), %eax	# PL_savestack_ix, PL_savestack_ix.163
	leal	1(%rax), %edx	#, PL_savestack_ix.165
	movl	%edx, PL_savestack_ix(%rip)	# PL_savestack_ix.165, PL_savestack_ix
	cltq
	salq	$3, %rax	#, D.21689
	addq	%rcx, %rax	# PL_savestack.162, D.21690
	movl	$27, (%rax)	#, _45->any_i32
.LBE19:
	.loc 1 1896 0 is_stmt 1 discriminator 2
	movl	PL_hints(%rip), %eax	# PL_hints, PL_hints.166
	andb	$254, %ah	#, PL_hints.167
	movl	%eax, PL_hints(%rip)	# PL_hints.167, PL_hints
	.loc 1 1897 0 discriminator 2
	movl	$PL_compiling+80, %edi	#,
	call	Perl_save_sptr	#
	.loc 1 1898 0 discriminator 2
	movq	PL_compiling+80(%rip), %rax	# PL_compiling.cop_warnings, D.21695
	testq	%rax, %rax	# D.21695
	je	.L529	#,
	.loc 1 1898 0 is_stmt 0 discriminator 1
	movq	PL_compiling+80(%rip), %rax	# PL_compiling.cop_warnings, D.21695
	cmpq	$16, %rax	#, D.21695
	je	.L529	#,
	movq	PL_compiling+80(%rip), %rax	# PL_compiling.cop_warnings, D.21695
	cmpq	$32, %rax	#, D.21695
	je	.L529	#,
	.loc 1 1899 0 is_stmt 1
	movq	PL_compiling+80(%rip), %rax	# PL_compiling.cop_warnings, D.21695
	movq	%rax, %rdi	# D.21695,
	call	Perl_newSVsv	#
	movq	%rax, PL_compiling+80(%rip)	# D.21695, PL_compiling.cop_warnings
	.loc 1 1900 0
	movq	PL_compiling+80(%rip), %rax	# PL_compiling.cop_warnings, D.21695
	movq	%rax, %rdi	# D.21695,
	call	Perl_save_freesv	#
.L529:
	.loc 1 1902 0
	movl	$PL_compiling+88, %edi	#,
	call	Perl_save_sptr	#
	.loc 1 1903 0
	movq	PL_compiling+88(%rip), %rax	# PL_compiling.cop_io, D.21695
	testq	%rax, %rax	# D.21695
	je	.L530	#,
	.loc 1 1904 0
	movq	PL_compiling+88(%rip), %rax	# PL_compiling.cop_io, D.21695
	movq	%rax, %rdi	# D.21695,
	call	Perl_newSVsv	#
	movq	%rax, PL_compiling+88(%rip)	# D.21695, PL_compiling.cop_io
	.loc 1 1905 0
	movq	PL_compiling+88(%rip), %rax	# PL_compiling.cop_io, D.21695
	movq	%rax, %rdi	# D.21695,
	call	Perl_save_freesv	#
.L530:
	.loc 1 1907 0
	movl	-20(%rbp), %eax	# retval, D.21687
.L526:
	.loc 1 1908 0
	addq	$40, %rsp	#,
	popq	%rbx	#
	popq	%rbp	#
	.cfi_def_cfa 7, 8
	ret
	.cfi_endproc
.LFE41:
	.size	Perl_block_start, .-Perl_block_start
	.globl	Perl_block_end
	.type	Perl_block_end, @function
Perl_block_end:
.LFB42:
	.loc 1 1912 0
	.cfi_startproc
	pushq	%rbp	#
	.cfi_def_cfa_offset 16
	.cfi_offset 6, -16
	movq	%rsp, %rbp	#,
	.cfi_def_cfa_register 6
	subq	$32, %rsp	#,
	movl	%edi, -20(%rbp)	# floor, floor
	movq	%rsi, -32(%rbp)	# seq, seq
	.loc 1 1913 0
	movl	PL_hints(%rip), %eax	# PL_hints, PL_hints.168
	andl	$256, %eax	#, tmp69
	movl	%eax, -12(%rbp)	# tmp69, needblockscope
	.loc 1 1914 0
	movq	-32(%rbp), %rax	# seq, tmp70
	movq	%rax, %rdi	# tmp70,
	call	Perl_scalarseq	#
	movq	%rax, -8(%rbp)	# tmp71, retval
	.loc 1 1916 0
	movl	PL_yynerrs(%rip), %eax	# PL_yynerrs, PL_yynerrs.170
	testl	%eax, %eax	# PL_yynerrs.170
	je	.L532	#,
	.loc 1 1916 0 is_stmt 0 discriminator 1
	movq	-8(%rbp), %rax	# retval, D.21696
	jmp	.L533	#
.L532:
	.loc 1 1917 0 is_stmt 1
	movl	PL_savestack_ix(%rip), %eax	# PL_savestack_ix, PL_savestack_ix.171
	cmpl	-20(%rbp), %eax	# floor, PL_savestack_ix.171
	jle	.L534	#,
	.loc 1 1917 0 is_stmt 0 discriminator 1
	movl	-20(%rbp), %eax	# floor, tmp72
	movl	%eax, %edi	# tmp72,
	call	Perl_leave_scope	#
.L534:
	.loc 1 1918 0 is_stmt 1
	movl	PL_hints(%rip), %eax	# PL_hints, PL_hints.172
	movb	%al, PL_compiling+37(%rip)	# D.21697, PL_compiling.op_private
	.loc 1 1919 0
	cmpl	$0, -12(%rbp)	#, needblockscope
	je	.L535	#,
	.loc 1 1920 0
	movl	PL_hints(%rip), %eax	# PL_hints, PL_hints.173
	orb	$1, %ah	#, PL_hints.174
	movl	%eax, PL_hints(%rip)	# PL_hints.174, PL_hints
.L535:
	.loc 1 1921 0
	call	Perl_pad_leavemy	#
	.loc 1 1922 0
	movq	-8(%rbp), %rax	# retval, D.21696
.L533:
	.loc 1 1923 0
	leave
	.cfi_def_cfa 7, 8
	ret
	.cfi_endproc
.LFE42:
	.size	Perl_block_end, .-Perl_block_end
	.type	S_newDEFSVOP, @function
S_newDEFSVOP:
.LFB43:
	.loc 1 1927 0
	.cfi_startproc
	pushq	%rbp	#
	.cfi_def_cfa_offset 16
	.cfi_offset 6, -16
	movq	%rsp, %rbp	#,
	.cfi_def_cfa_register 6
	.loc 1 1933 0
	movq	PL_defgv(%rip), %rax	# PL_defgv, PL_defgv.175
	movq	%rax, %rdx	# PL_defgv.175,
	movl	$0, %esi	#,
	movl	$7, %edi	#,
	call	Perl_newGVOP	#
	movq	%rax, %rdi	# D.21698,
	call	Perl_newSVREF	#
	.loc 1 1935 0
	popq	%rbp	#
	.cfi_def_cfa 7, 8
	ret
	.cfi_endproc
.LFE43:
	.size	S_newDEFSVOP, .-S_newDEFSVOP
	.section	.rodata
.LC39:
	.string	"DB::postponed"
	.text
	.globl	Perl_newPROG
	.type	Perl_newPROG, @function
Perl_newPROG:
.LFB44:
	.loc 1 1939 0
	.cfi_startproc
	pushq	%rbp	#
	.cfi_def_cfa_offset 16
	.cfi_offset 6, -16
	movq	%rsp, %rbp	#,
	.cfi_def_cfa_register 6
	pushq	%rbx	#
	subq	$40, %rsp	#,
	.cfi_offset 3, -24
	movq	%rdi, -40(%rbp)	# o, o
	.loc 1 1940 0
	movl	PL_in_eval(%rip), %eax	# PL_in_eval, PL_in_eval.176
	testl	%eax, %eax	# PL_in_eval.176
	je	.L539	#,
	.loc 1 1941 0
	movq	PL_eval_root(%rip), %rax	# PL_eval_root, PL_eval_root.177
	testq	%rax, %rax	# PL_eval_root.177
	je	.L540	#,
	.loc 1 1942 0
	jmp	.L538	#
.L540:
	.loc 1 1944 0
	movl	PL_in_eval(%rip), %eax	# PL_in_eval, PL_in_eval.179
	andl	$4, %eax	#, D.21699
	.loc 1 1943 0
	testl	%eax, %eax	# D.21699
	je	.L542	#,
	.loc 1 1943 0 is_stmt 0 discriminator 1
	movl	$128, %eax	#, iftmp.178
	jmp	.L543	#
.L542:
	.loc 1 1943 0 discriminator 2
	movl	$0, %eax	#, iftmp.178
.L543:
	.loc 1 1943 0 discriminator 1
	movq	-40(%rbp), %rdx	# o, tmp114
	movl	%eax, %esi	# iftmp.178,
	movl	$312, %edi	#,
	call	Perl_newUNOP	#
	movq	%rax, PL_eval_root(%rip)	# PL_eval_root.180, PL_eval_root
	.loc 1 1946 0 is_stmt 1 discriminator 1
	movq	PL_eval_root(%rip), %rax	# PL_eval_root, PL_eval_root.181
	movq	%rax, %rdi	# PL_eval_root.181,
	call	Perl_linklist	#
	movq	%rax, PL_eval_start(%rip)	# PL_eval_start.182, PL_eval_start
	.loc 1 1947 0 discriminator 1
	movq	PL_eval_root(%rip), %rax	# PL_eval_root, PL_eval_root.183
	movq	PL_eval_root(%rip), %rdx	# PL_eval_root, PL_eval_root.184
	movzbl	37(%rdx), %edx	# PL_eval_root.184_15->op_private, D.21700
	orl	$64, %edx	#, D.21700
	movb	%dl, 37(%rax)	# D.21700, PL_eval_root.183_14->op_private
	.loc 1 1948 0 discriminator 1
	movq	PL_eval_root(%rip), %rax	# PL_eval_root, PL_eval_root.185
	movq	$1, 24(%rax)	#, PL_eval_root.185_18->op_targ
	.loc 1 1949 0 discriminator 1
	movq	PL_eval_root(%rip), %rax	# PL_eval_root, PL_eval_root.186
	movq	$0, (%rax)	#, PL_eval_root.186_19->op_next
	.loc 1 1950 0 discriminator 1
	movq	PL_peepp(%rip), %rax	# PL_peepp, PL_peepp.187
	movq	PL_eval_start(%rip), %rdx	# PL_eval_start, PL_eval_start.188
	movq	%rdx, %rdi	# PL_eval_start.188,
	call	*%rax	# PL_peepp.187
	jmp	.L538	#
.L539:
	.loc 1 1953 0
	movq	-40(%rbp), %rax	# o, tmp115
	movzwl	32(%rax), %eax	# o_10(D)->op_type, D.21701
	cmpw	$1, %ax	#, D.21701
	jne	.L544	#,
	.loc 1 1954 0
	movq	$0, PL_comppad_name(%rip)	#, PL_comppad_name
	.loc 1 1955 0
	movq	$0, PL_compcv(%rip)	#, PL_compcv
	.loc 1 1956 0
	movq	-40(%rbp), %rax	# o, tmp116
	movq	%rax, %rdi	# tmp116,
	call	Perl_safesysfree	#
	.loc 1 1957 0
	jmp	.L538	#
.L544:
	.loc 1 1959 0
	movq	-40(%rbp), %rax	# o, tmp117
	movq	%rax, %rdi	# tmp117,
	call	Perl_scalarvoid	#
	movq	%rax, %rdi	# D.21702,
	call	Perl_sawparens	#
	movq	%rax, %rdi	# D.21702,
	call	Perl_scope	#
	movq	%rax, PL_main_root(%rip)	# PL_main_root.189, PL_main_root
	.loc 1 1960 0
	movq	$PL_compiling, PL_curcop(%rip)	#, PL_curcop
	.loc 1 1961 0
	movq	PL_main_root(%rip), %rax	# PL_main_root, PL_main_root.191
	movq	(%rax), %rax	# PL_main_root.191_26->op_next, D.21702
	testq	%rax, %rax	# D.21702
	je	.L545	#,
	.loc 1 1961 0 is_stmt 0 discriminator 1
	movq	PL_main_root(%rip), %rax	# PL_main_root, PL_main_root.192
	movq	(%rax), %rax	# PL_main_root.192_28->op_next, iftmp.190
	jmp	.L546	#
.L545:
	.loc 1 1961 0 discriminator 2
	movq	PL_main_root(%rip), %rax	# PL_main_root, PL_main_root.193
	movq	%rax, %rdi	# PL_main_root.193,
	call	Perl_linklist	#
.L546:
	.loc 1 1961 0 discriminator 3
	movq	%rax, PL_main_start(%rip)	# iftmp.190, PL_main_start
	.loc 1 1962 0 is_stmt 1 discriminator 3
	movq	PL_main_root(%rip), %rax	# PL_main_root, PL_main_root.194
	movq	PL_main_root(%rip), %rdx	# PL_main_root, PL_main_root.195
	movzbl	37(%rdx), %edx	# PL_main_root.195_33->op_private, D.21700
	orl	$64, %edx	#, D.21700
	movb	%dl, 37(%rax)	# D.21700, PL_main_root.194_32->op_private
	.loc 1 1963 0 discriminator 3
	movq	PL_main_root(%rip), %rax	# PL_main_root, PL_main_root.196
	movq	$1, 24(%rax)	#, PL_main_root.196_36->op_targ
	.loc 1 1964 0 discriminator 3
	movq	PL_main_root(%rip), %rax	# PL_main_root, PL_main_root.197
	movq	$0, (%rax)	#, PL_main_root.197_37->op_next
	.loc 1 1965 0 discriminator 3
	movq	PL_peepp(%rip), %rax	# PL_peepp, PL_peepp.198
	movq	PL_main_start(%rip), %rdx	# PL_main_start, PL_main_start.199
	movq	%rdx, %rdi	# PL_main_start.199,
	call	*%rax	# PL_peepp.198
	.loc 1 1966 0 discriminator 3
	movq	$0, PL_compcv(%rip)	#, PL_compcv
	.loc 1 1969 0 discriminator 3
	movl	PL_perldb(%rip), %eax	# PL_perldb, PL_perldb.200
	testl	%eax, %eax	# PL_perldb.200
	je	.L538	#,
	.loc 1 1969 0 is_stmt 0 discriminator 1
	movl	PL_perldb(%rip), %eax	# PL_perldb, PL_perldb.201
	andl	$8, %eax	#, D.21703
	testl	%eax, %eax	# D.21703
	je	.L538	#,
.LBB20:
	.loc 1 1970 0 is_stmt 1
	movl	$0, %esi	#,
	movl	$.LC39, %edi	#,
	call	Perl_get_cv	#
	movq	%rax, -24(%rbp)	# tmp118, cv
	.loc 1 1971 0
	cmpq	$0, -24(%rbp)	#, cv
	je	.L538	#,
.LBB21:
	.loc 1 1972 0
	movq	PL_stack_sp(%rip), %rbx	# PL_stack_sp, sp
.LBB22:
	.loc 1 1973 0
	movq	PL_markstack_ptr(%rip), %rax	# PL_markstack_ptr, PL_markstack_ptr.202
	addq	$4, %rax	#, PL_markstack_ptr.203
	movq	%rax, PL_markstack_ptr(%rip)	# PL_markstack_ptr.203, PL_markstack_ptr
	movq	PL_markstack_ptr(%rip), %rdx	# PL_markstack_ptr, PL_markstack_ptr.204
	movq	PL_markstack_max(%rip), %rax	# PL_markstack_max, PL_markstack_max.205
	cmpq	%rax, %rdx	# PL_markstack_max.205, PL_markstack_ptr.204
	jne	.L547	#,
	.loc 1 1973 0 is_stmt 0 discriminator 1
	call	Perl_markstack_grow	#
.L547:
	.loc 1 1973 0 discriminator 2
	movq	PL_markstack_ptr(%rip), %rax	# PL_markstack_ptr, PL_markstack_ptr.206
	movq	%rbx, %rcx	# sp, sp.207
	movq	PL_stack_base(%rip), %rdx	# PL_stack_base, PL_stack_base.208
	subq	%rdx, %rcx	# PL_stack_base.209, D.21704
	movq	%rcx, %rdx	# D.21704, D.21704
	sarq	$3, %rdx	#, tmp119
	movl	%edx, (%rax)	# D.21699, *PL_markstack_ptr.206_49
.LBE22:
.LBB23:
	.loc 1 1974 0 is_stmt 1 discriminator 2
	movq	PL_stack_max(%rip), %rax	# PL_stack_max, PL_stack_max.210
	movq	%rax, %rdx	# PL_stack_max.210, PL_stack_max.211
	movq	%rbx, %rax	# sp, sp.212
	subq	%rax, %rdx	# sp.212, D.21704
	movq	%rdx, %rax	# D.21704, D.21704
	cmpq	$7, %rax	#, D.21704
	jg	.L548	#,
	.loc 1 1974 0 is_stmt 0 discriminator 1
	movl	$1, %edx	#,
	movq	%rbx, %rsi	# sp,
	movq	%rbx, %rdi	# sp,
	call	Perl_stack_grow	#
	movq	%rax, %rbx	#, sp
.L548:
	.loc 1 1974 0 discriminator 2
	addq	$8, %rbx	#, sp
	movq	PL_compiling+56(%rip), %rax	# PL_compiling.cop_filegv, D.21706
	movq	%rax, (%rbx)	# D.21706, *sp_62
.LBE23:
	.loc 1 1975 0 is_stmt 1 discriminator 2
	movq	%rbx, PL_stack_sp(%rip)	# sp, PL_stack_sp
	.loc 1 1976 0 discriminator 2
	movq	-24(%rbp), %rax	# cv, tmp120
	movl	$2, %esi	#,
	movq	%rax, %rdi	# tmp120,
	call	Perl_call_sv	#
.L538:
.LBE21:
.LBE20:
	.loc 1 1980 0
	addq	$40, %rsp	#,
	popq	%rbx	#
	popq	%rbp	#
	.cfi_def_cfa 7, 8
	ret
	.cfi_endproc
.LFE44:
	.size	Perl_newPROG, .-Perl_newPROG
	.section	.rodata
.LC40:
	.string	", \t\n"
.LC41:
	.string	"@$%*"
	.align 8
.LC42:
	.string	"Parentheses missing around \"%s\" list"
	.text
	.globl	Perl_localize
	.type	Perl_localize, @function
Perl_localize:
.LFB45:
	.loc 1 1984 0
	.cfi_startproc
	pushq	%rbp	#
	.cfi_def_cfa_offset 16
	.cfi_offset 6, -16
	movq	%rsp, %rbp	#,
	.cfi_def_cfa_register 6
	subq	$32, %rsp	#,
	movq	%rdi, -24(%rbp)	# o, o
	movl	%esi, -28(%rbp)	# lex, lex
	.loc 1 1985 0
	movq	-24(%rbp), %rax	# o, tmp123
	movzbl	36(%rax), %eax	# o_10(D)->op_flags, D.21709
	movzbl	%al, %eax	# D.21709, D.21710
	andl	$8, %eax	#, D.21710
	testl	%eax, %eax	# D.21710
	jne	.L550	#,
	.loc 1 1994 0
	movq	PL_curcop(%rip), %rax	# PL_curcop, PL_curcop.213
	movq	80(%rax), %rax	# PL_curcop.213_14->cop_warnings, D.21711
	testq	%rax, %rax	# D.21711
	je	.L551	#,
	.loc 1 1994 0 is_stmt 0 discriminator 1
	movq	PL_curcop(%rip), %rax	# PL_curcop, PL_curcop.214
	movq	80(%rax), %rax	# PL_curcop.214_16->cop_warnings, D.21711
	cmpq	$32, %rax	#, D.21711
	je	.L551	#,
	movq	PL_curcop(%rip), %rax	# PL_curcop, PL_curcop.215
	movq	80(%rax), %rax	# PL_curcop.215_18->cop_warnings, D.21711
	cmpq	$16, %rax	#, D.21711
	je	.L552	#,
	movq	PL_curcop(%rip), %rax	# PL_curcop, PL_curcop.216
	movq	80(%rax), %rax	# PL_curcop.216_20->cop_warnings, D.21711
	movq	(%rax), %rax	# _21->sv_any, D.21712
	movq	(%rax), %rax	# MEM[(struct XPV *)_22].xpv_pv, D.21713
	addq	$8, %rax	#, D.21713
	movzbl	(%rax), %eax	# *_24, D.21714
	movsbl	%al, %eax	# D.21714, D.21710
	andl	$1, %eax	#, D.21710
	testl	%eax, %eax	# D.21710
	jne	.L552	#,
.L551:
	.loc 1 1994 0 discriminator 2
	movq	PL_curcop(%rip), %rax	# PL_curcop, PL_curcop.217
	movq	80(%rax), %rax	# PL_curcop.217_28->cop_warnings, D.21711
	testq	%rax, %rax	# D.21711
	jne	.L550	#,
	.loc 1 1994 0 discriminator 1
	movzbl	PL_dowarn(%rip), %eax	# PL_dowarn, PL_dowarn.218
	movzbl	%al, %eax	# PL_dowarn.218, D.21710
	andl	$1, %eax	#, D.21710
	testl	%eax, %eax	# D.21710
	je	.L550	#,
.L552:
	.loc 1 1995 0 is_stmt 1
	movq	PL_bufptr(%rip), %rdx	# PL_bufptr, PL_bufptr.219
	movq	PL_oldbufptr(%rip), %rax	# PL_oldbufptr, PL_oldbufptr.220
	cmpq	%rax, %rdx	# PL_oldbufptr.220, PL_bufptr.219
	jbe	.L550	#,
	.loc 1 1995 0 is_stmt 0 discriminator 1
	movq	PL_bufptr(%rip), %rax	# PL_bufptr, PL_bufptr.221
	subq	$1, %rax	#, D.21713
	movzbl	(%rax), %eax	# *_36, D.21714
	cmpb	$44, %al	#, D.21714
	jne	.L550	#,
.LBB24:
	.loc 1 1997 0 is_stmt 1
	movq	PL_bufptr(%rip), %rax	# PL_bufptr, tmp124
	movq	%rax, -8(%rbp)	# tmp124, s
	.loc 1 1998 0
	movb	$0, -9(%rbp)	#, sigil
	.loc 1 2001 0
	jmp	.L553	#
.L555:
	.loc 1 2002 0
	addq	$1, -8(%rbp)	#, s
.L553:
	.loc 1 2001 0 discriminator 1
	movq	-8(%rbp), %rax	# s, tmp125
	movzbl	(%rax), %eax	# *s_2, D.21714
	testb	%al, %al	# D.21714
	je	.L554	#,
	.loc 1 2001 0 is_stmt 0 discriminator 2
	movq	-8(%rbp), %rax	# s, tmp126
	movzbl	(%rax), %eax	# *s_2, D.21714
	movsbl	%al, %eax	# D.21714, D.21710
	movl	%eax, %esi	# D.21710,
	movl	$.LC40, %edi	#,
	call	strchr	#
	testq	%rax, %rax	# D.21713
	jne	.L555	#,
.L554:
	.loc 1 2005 0 is_stmt 1
	movq	-8(%rbp), %rax	# s, tmp127
	movzbl	(%rax), %eax	# *s_3, D.21714
	testb	%al, %al	# D.21714
	je	.L556	#,
	.loc 1 2005 0 is_stmt 0 discriminator 1
	movq	-8(%rbp), %rax	# s, tmp128
	movzbl	(%rax), %eax	# *s_3, D.21714
	movsbl	%al, %eax	# D.21714, D.21710
	movl	%eax, %esi	# D.21710,
	movl	$.LC41, %edi	#,
	call	strchr	#
	testq	%rax, %rax	# D.21713
	je	.L556	#,
	addq	$1, -8(%rbp)	#, s
	movq	-8(%rbp), %rax	# s, tmp129
	movzbl	(%rax), %eax	# *s_49, D.21714
	testb	%al, %al	# D.21714
	je	.L556	#,
	.loc 1 2006 0 is_stmt 1
	movq	-8(%rbp), %rax	# s, tmp130
	movzbl	(%rax), %eax	# *s_49, D.21714
	cmpb	$64, %al	#, D.21714
	jle	.L557	#,
	.loc 1 2006 0 is_stmt 0 discriminator 1
	movq	-8(%rbp), %rax	# s, tmp131
	movzbl	(%rax), %eax	# *s_49, D.21714
	cmpb	$90, %al	#, D.21714
	jle	.L558	#,
.L557:
	.loc 1 2006 0 discriminator 2
	movq	-8(%rbp), %rax	# s, tmp132
	movzbl	(%rax), %eax	# *s_49, D.21714
	cmpb	$96, %al	#, D.21714
	jle	.L559	#,
	.loc 1 2006 0 discriminator 1
	movq	-8(%rbp), %rax	# s, tmp133
	movzbl	(%rax), %eax	# *s_49, D.21714
	cmpb	$122, %al	#, D.21714
	jle	.L558	#,
.L559:
	.loc 1 2006 0 discriminator 2
	movq	-8(%rbp), %rax	# s, tmp134
	movzbl	(%rax), %eax	# *s_49, D.21714
	cmpb	$47, %al	#, D.21714
	jle	.L560	#,
	.loc 1 2006 0 discriminator 1
	movq	-8(%rbp), %rax	# s, tmp135
	movzbl	(%rax), %eax	# *s_49, D.21714
	cmpb	$57, %al	#, D.21714
	jle	.L558	#,
.L560:
	.loc 1 2006 0 discriminator 2
	movq	-8(%rbp), %rax	# s, tmp136
	movzbl	(%rax), %eax	# *s_49, D.21714
	cmpb	$95, %al	#, D.21714
	je	.L558	#,
	.loc 1 2006 0 discriminator 1
	movq	-8(%rbp), %rax	# s, tmp137
	movzbl	(%rax), %eax	# *s_49, D.21714
	testb	%al, %al	# D.21714
	jns	.L556	#,
.L558:
	.loc 1 2007 0 is_stmt 1
	addq	$1, -8(%rbp)	#, s
	.loc 1 2008 0
	movb	$1, -9(%rbp)	#, sigil
	.loc 1 2009 0
	jmp	.L561	#
.L564:
	.loc 1 2010 0
	addq	$1, -8(%rbp)	#, s
.L561:
	.loc 1 2009 0 discriminator 1
	movq	-8(%rbp), %rax	# s, tmp138
	movzbl	(%rax), %eax	# *s_4, D.21714
	testb	%al, %al	# D.21714
	je	.L562	#,
	.loc 1 2009 0 is_stmt 0 discriminator 2
	movq	-8(%rbp), %rax	# s, tmp139
	movzbl	(%rax), %eax	# *s_4, D.21714
	cmpb	$64, %al	#, D.21714
	jle	.L563	#,
	.loc 1 2009 0 discriminator 1
	movq	-8(%rbp), %rax	# s, tmp140
	movzbl	(%rax), %eax	# *s_4, D.21714
	cmpb	$90, %al	#, D.21714
	jle	.L564	#,
.L563:
	.loc 1 2009 0 discriminator 2
	movq	-8(%rbp), %rax	# s, tmp141
	movzbl	(%rax), %eax	# *s_4, D.21714
	cmpb	$96, %al	#, D.21714
	jle	.L565	#,
	.loc 1 2009 0 discriminator 1
	movq	-8(%rbp), %rax	# s, tmp142
	movzbl	(%rax), %eax	# *s_4, D.21714
	cmpb	$122, %al	#, D.21714
	jle	.L564	#,
.L565:
	.loc 1 2009 0 discriminator 2
	movq	-8(%rbp), %rax	# s, tmp143
	movzbl	(%rax), %eax	# *s_4, D.21714
	cmpb	$47, %al	#, D.21714
	jle	.L566	#,
	.loc 1 2009 0 discriminator 1
	movq	-8(%rbp), %rax	# s, tmp144
	movzbl	(%rax), %eax	# *s_4, D.21714
	cmpb	$57, %al	#, D.21714
	jle	.L564	#,
.L566:
	.loc 1 2009 0 discriminator 2
	movq	-8(%rbp), %rax	# s, tmp145
	movzbl	(%rax), %eax	# *s_4, D.21714
	cmpb	$95, %al	#, D.21714
	je	.L564	#,
	.loc 1 2009 0 discriminator 1
	movq	-8(%rbp), %rax	# s, tmp146
	movzbl	(%rax), %eax	# *s_4, D.21714
	testb	%al, %al	# D.21714
	js	.L564	#,
.L562:
	.loc 1 2011 0 is_stmt 1
	jmp	.L567	#
.L569:
	.loc 1 2012 0
	addq	$1, -8(%rbp)	#, s
.L567:
	.loc 1 2011 0 discriminator 1
	movq	-8(%rbp), %rax	# s, tmp147
	movzbl	(%rax), %eax	# *s_5, D.21714
	testb	%al, %al	# D.21714
	je	.L568	#,
	.loc 1 2011 0 is_stmt 0 discriminator 2
	movq	-8(%rbp), %rax	# s, tmp148
	movzbl	(%rax), %eax	# *s_5, D.21714
	movsbl	%al, %eax	# D.21714, D.21710
	movl	%eax, %esi	# D.21710,
	movl	$.LC40, %edi	#,
	call	strchr	#
	testq	%rax, %rax	# D.21713
	jne	.L569	#,
.L568:
	.loc 1 2016 0 is_stmt 1
	jmp	.L554	#
.L556:
	.loc 1 2017 0
	cmpb	$0, -9(%rbp)	#, sigil
	je	.L550	#,
	.loc 1 2017 0 is_stmt 0 discriminator 1
	movq	-8(%rbp), %rax	# s, tmp149
	movzbl	(%rax), %eax	# *s_6, D.21714
	cmpb	$59, %al	#, D.21714
	je	.L570	#,
	movq	-8(%rbp), %rax	# s, tmp150
	movzbl	(%rax), %eax	# *s_6, D.21714
	cmpb	$61, %al	#, D.21714
	jne	.L550	#,
.L570:
	.loc 1 2018 0 is_stmt 1
	cmpl	$0, -28(%rbp)	#, lex
	je	.L571	#,
	.loc 1 2020 0
	movl	PL_in_my(%rip), %eax	# PL_in_my, PL_in_my.224
	cmpl	$137, %eax	#, PL_in_my.224
	jne	.L572	#,
	.loc 1 2020 0 is_stmt 0 discriminator 1
	movl	$.LC7, %eax	#, iftmp.223
	jmp	.L574	#
.L572:
	.loc 1 2020 0 discriminator 2
	movl	$.LC8, %eax	#, iftmp.223
	jmp	.L574	#
.L571:
	.loc 1 2018 0 is_stmt 1 discriminator 1
	movl	$.LC25, %eax	#, iftmp.222
.L574:
	.loc 1 2018 0 is_stmt 0 discriminator 2
	movq	%rax, %rdx	# iftmp.222,
	movl	$.LC42, %esi	#,
	movl	$32, %edi	#,
	movl	$0, %eax	#,
	call	Perl_warner	#
.L550:
.LBE24:
	.loc 1 2025 0 is_stmt 1
	cmpl	$0, -28(%rbp)	#, lex
	je	.L575	#,
	.loc 1 2026 0
	movq	-24(%rbp), %rax	# o, tmp151
	movq	%rax, %rdi	# tmp151,
	call	Perl_my	#
	movq	%rax, -24(%rbp)	# tmp152, o
	jmp	.L576	#
.L575:
	.loc 1 2028 0
	movq	-24(%rbp), %rax	# o, tmp153
	movl	$0, %esi	#,
	movq	%rax, %rdi	# tmp153,
	call	Perl_mod	#
	movq	%rax, -24(%rbp)	# tmp154, o
.L576:
	.loc 1 2029 0
	movl	$0, PL_in_my(%rip)	#, PL_in_my
	.loc 1 2030 0
	movq	$0, PL_in_my_stash(%rip)	#, PL_in_my_stash
	.loc 1 2031 0
	movq	-24(%rbp), %rax	# o, D.21715
	.loc 1 2032 0
	leave
	.cfi_def_cfa 7, 8
	ret
	.cfi_endproc
.LFE45:
	.size	Perl_localize, .-Perl_localize
	.section	.rodata
.LC43:
	.string	";"
	.text
	.globl	Perl_jmaybe
	.type	Perl_jmaybe, @function
Perl_jmaybe:
.LFB46:
	.loc 1 2036 0
	.cfi_startproc
	pushq	%rbp	#
	.cfi_def_cfa_offset 16
	.cfi_offset 6, -16
	movq	%rsp, %rbp	#,
	.cfi_def_cfa_register 6
	subq	$32, %rsp	#,
	movq	%rdi, -24(%rbp)	# o, o
	.loc 1 2037 0
	movq	-24(%rbp), %rax	# o, tmp65
	movzwl	32(%rax), %eax	# o_2(D)->op_type, D.21719
	cmpw	$141, %ax	#, D.21719
	jne	.L579	#,
.LBB25:
	.loc 1 2043 0
	movl	$4, %edx	#,
	movl	$1, %esi	#,
	movl	$.LC43, %edi	#,
	call	Perl_gv_fetchpv	#
	movq	%rax, %rdx	# D.21720,
	movl	$0, %esi	#,
	movl	$7, %edi	#,
	call	Perl_newGVOP	#
	movq	%rax, %rdi	# D.21721,
	call	Perl_newSVREF	#
	movq	%rax, -8(%rbp)	# tmp66, o2
	.loc 1 2045 0
	movq	-24(%rbp), %rdx	# o, tmp67
	movq	-8(%rbp), %rax	# o2, tmp68
	movq	%rax, %rsi	# tmp68,
	movl	$141, %edi	#,
	call	Perl_prepend_elem	#
	movq	%rax, %rdx	# D.21721,
	movl	$0, %esi	#,
	movl	$140, %edi	#,
	call	Perl_convert	#
	movq	%rax, -24(%rbp)	# tmp69, o
.L579:
.LBE25:
	.loc 1 2047 0
	movq	-24(%rbp), %rax	# o, D.21721
	.loc 1 2048 0
	leave
	.cfi_def_cfa 7, 8
	ret
	.cfi_endproc
.LFE46:
	.size	Perl_jmaybe, .-Perl_jmaybe
	.globl	Perl_fold_constants
	.type	Perl_fold_constants, @function
Perl_fold_constants:
.LFB47:
	.loc 1 2052 0
	.cfi_startproc
	pushq	%rbp	#
	.cfi_def_cfa_offset 16
	.cfi_offset 6, -16
	movq	%rsp, %rbp	#,
	.cfi_def_cfa_register 6
	pushq	%r12	#
	pushq	%rbx	#
	subq	$16, %rsp	#,
	.cfi_offset 12, -24
	.cfi_offset 3, -32
	movq	%rdi, %rbx	# o, o
	.loc 1 2054 0
	movzwl	32(%rbx), %eax	# o_7(D)->op_type, D.21724
	movzwl	%ax, %eax	# D.21724, tmp129
	movl	%eax, -28(%rbp)	# tmp129, type
	.loc 1 2057 0
	movl	-28(%rbp), %eax	# type, tmp131
	cltq
	movl	PL_opargs(,%rax,4), %eax	# PL_opargs, D.21725
	andl	$4, %eax	#, D.21725
	testl	%eax, %eax	# D.21725
	je	.L582	#,
	.loc 1 2058 0
	movq	%rbx, %rdi	# o,
	call	Perl_scalar	#
.L582:
	.loc 1 2059 0
	movl	-28(%rbp), %eax	# type, tmp133
	cltq
	movl	PL_opargs(,%rax,4), %eax	# PL_opargs, D.21725
	andl	$8, %eax	#, D.21725
	testl	%eax, %eax	# D.21725
	je	.L583	#,
	.loc 1 2059 0 is_stmt 0 discriminator 1
	movq	24(%rbx), %rax	# o_7(D)->op_targ, D.21726
	testq	%rax, %rax	# D.21726
	jne	.L583	#,
	.loc 1 2060 0 is_stmt 1
	movl	-28(%rbp), %eax	# type, tmp134
	movl	$512, %esi	#,
	movl	%eax, %edi	# tmp134,
	call	Perl_pad_alloc	#
	movq	%rax, 24(%rbx)	# D.21726, o_7(D)->op_targ
.L583:
	.loc 1 2064 0
	movl	-28(%rbp), %eax	# type, tmp136
	cltq
	movl	PL_opargs(,%rax,4), %eax	# PL_opargs, D.21725
	andl	$32, %eax	#, D.21725
	testl	%eax, %eax	# D.21725
	je	.L584	#,
	.loc 1 2064 0 is_stmt 0 discriminator 1
	movl	PL_hints(%rip), %eax	# PL_hints, PL_hints.225
	andl	$1, %eax	#, D.21725
	testl	%eax, %eax	# D.21725
	je	.L584	#,
	.loc 1 2065 0 is_stmt 1
	cmpl	$94, -28(%rbp)	#, type
	jne	.L585	#,
	.loc 1 2065 0 is_stmt 0 discriminator 1
	movq	40(%rbx), %rax	# MEM[(struct UNOP *)o_7(D)].op_first, D.21723
	movzwl	32(%rax), %eax	# _20->op_type, D.21724
	cmpw	$5, %ax	#, D.21724
	jne	.L585	#,
	.loc 1 2066 0 is_stmt 1 discriminator 1
	movq	40(%rbx), %rax	# MEM[(struct UNOP *)o_7(D)].op_first, D.21723
	movzbl	37(%rax), %eax	# _22->op_private, D.21727
	movzbl	%al, %eax	# D.21727, D.21728
	andl	$64, %eax	#, D.21728
	.loc 1 2065 0 discriminator 1
	testl	%eax, %eax	# D.21728
	jne	.L584	#,
.L585:
	.loc 1 2068 0
	movzwl	32(%rbx), %eax	# o_7(D)->op_type, D.21724
	addl	$1, %eax	#, D.21724
	movw	%ax, 32(%rbx)	# D.21724, o_7(D)->op_type
	movzwl	32(%rbx), %eax	# o_7(D)->op_type, D.21724
	movzwl	%ax, %eax	# D.21724, tmp137
	movl	%eax, -28(%rbp)	# tmp137, type
	movl	-28(%rbp), %eax	# type, tmp139
	cltq
	movq	PL_ppaddr(,%rax,8), %rax	# PL_ppaddr, D.21729
	movq	%rax, 16(%rbx)	# D.21729, o_7(D)->op_ppaddr
.L584:
	.loc 1 2071 0
	movl	-28(%rbp), %eax	# type, tmp141
	cltq
	movl	PL_opargs(,%rax,4), %eax	# PL_opargs, D.21725
	andl	$2, %eax	#, D.21725
	testl	%eax, %eax	# D.21725
	jne	.L586	#,
	.loc 1 2072 0
	jmp	.L587	#
.L586:
	.loc 1 2074 0
	movl	-28(%rbp), %eax	# type, tmp143
	subl	$84, %eax	#, tmp142
	cmpl	$39, %eax	#, tmp142
	ja	.L588	#,
	movl	%eax, %eax	# tmp142, tmp144
	movq	.L590(,%rax,8), %rax	#, tmp145
	jmp	*%rax	# tmp145
	.section	.rodata
	.align 8
	.align 4
.L590:
	.quad	.L589
	.quad	.L589
	.quad	.L589
	.quad	.L589
	.quad	.L588
	.quad	.L588
	.quad	.L589
	.quad	.L588
	.quad	.L588
	.quad	.L588
	.quad	.L591
	.quad	.L588
	.quad	.L588
	.quad	.L588
	.quad	.L588
	.quad	.L588
	.quad	.L588
	.quad	.L588
	.quad	.L588
	.quad	.L588
	.quad	.L588
	.quad	.L588
	.quad	.L588
	.quad	.L588
	.quad	.L588
	.quad	.L588
	.quad	.L588
	.quad	.L588
	.quad	.L588
	.quad	.L588
	.quad	.L588
	.quad	.L589
	.quad	.L588
	.quad	.L588
	.quad	.L588
	.quad	.L588
	.quad	.L589
	.quad	.L589
	.quad	.L589
	.quad	.L589
	.text
.L591:
	.loc 1 2077 0
	movq	40(%rbx), %rax	# MEM[(struct UNOP *)o_7(D)].op_first, D.21723
	movq	40(%rbx), %rdx	# MEM[(struct UNOP *)o_7(D)].op_first, D.21723
	movzbl	37(%rdx), %edx	# _34->op_private, D.21727
	andl	$-9, %edx	#, D.21727
	movb	%dl, 37(%rax)	# D.21727, _33->op_private
	.loc 1 2078 0
	jmp	.L588	#
.L589:
	.loc 1 2090 0
	movl	PL_hints(%rip), %eax	# PL_hints, PL_hints.226
	andl	$4, %eax	#, D.21725
	testl	%eax, %eax	# D.21725
	je	.L588	#,
	.loc 1 2091 0
	jmp	.L587	#
.L588:
	.loc 1 2094 0
	movl	PL_error_count(%rip), %eax	# PL_error_count, PL_error_count.227
	testl	%eax, %eax	# PL_error_count.227
	je	.L592	#,
	.loc 1 2095 0
	jmp	.L587	#
.L592:
	.loc 1 2097 0
	movq	(%rbx), %rax	# o_7(D)->op_next, D.21723
	testq	%rax, %rax	# D.21723
	je	.L593	#,
	.loc 1 2097 0 is_stmt 0 discriminator 1
	movq	(%rbx), %rax	# o_7(D)->op_next, iftmp.228
	jmp	.L594	#
.L593:
	.loc 1 2097 0 discriminator 2
	movq	%rbx, %rdi	# o,
	call	Perl_linklist	#
.L594:
	.loc 1 2097 0 discriminator 3
	movq	%rax, %r12	# iftmp.228, curop
	jmp	.L595	#
.L600:
	.loc 1 2098 0 is_stmt 1
	movzwl	32(%r12), %eax	# curop_1->op_type, D.21724
	cmpw	$5, %ax	#, D.21724
	jne	.L596	#,
	.loc 1 2099 0 discriminator 1
	movzbl	37(%r12), %eax	# curop_1->op_private, D.21727
	movzbl	%al, %eax	# D.21727, D.21728
	andl	$64, %eax	#, D.21728
	.loc 1 2098 0 discriminator 1
	testl	%eax, %eax	# D.21728
	je	.L597	#,
.L596:
	.loc 1 2100 0
	movzwl	32(%r12), %eax	# curop_1->op_type, D.21724
	.loc 1 2099 0
	cmpw	$141, %ax	#, D.21724
	je	.L597	#,
	.loc 1 2101 0
	movzwl	32(%r12), %eax	# curop_1->op_type, D.21724
	.loc 1 2100 0
	cmpw	$2, %ax	#, D.21724
	je	.L597	#,
	.loc 1 2102 0
	movzwl	32(%r12), %eax	# curop_1->op_type, D.21724
	.loc 1 2101 0
	testw	%ax, %ax	# D.21724
	je	.L597	#,
	.loc 1 2103 0
	movzwl	32(%r12), %eax	# curop_1->op_type, D.21724
	.loc 1 2102 0
	cmpw	$3, %ax	#, D.21724
	je	.L597	#,
	.loc 1 2105 0
	jmp	.L587	#
.L597:
	.loc 1 2097 0
	movq	(%r12), %rax	# curop_1->op_next, D.21723
	testq	%rax, %rax	# D.21723
	je	.L598	#,
	.loc 1 2097 0 is_stmt 0 discriminator 1
	movq	(%r12), %rax	# curop_1->op_next, iftmp.229
	jmp	.L599	#
.L598:
	.loc 1 2097 0 discriminator 2
	movq	%r12, %rdi	# curop,
	call	Perl_linklist	#
.L599:
	.loc 1 2097 0 discriminator 3
	movq	%rax, %r12	# iftmp.229, curop
.L595:
	.loc 1 2097 0 discriminator 1
	cmpq	%rbx, %r12	# o, curop
	jne	.L600	#,
	.loc 1 2109 0 is_stmt 1
	movq	(%rbx), %rax	# o_7(D)->op_next, D.21723
	testq	%rax, %rax	# D.21723
	je	.L601	#,
	.loc 1 2109 0 is_stmt 0 discriminator 1
	movq	(%rbx), %rax	# o_7(D)->op_next, iftmp.230
	jmp	.L602	#
.L601:
	.loc 1 2109 0 discriminator 2
	movq	%rbx, %rdi	# o,
	call	Perl_linklist	#
.L602:
	.loc 1 2109 0 discriminator 3
	movq	%rax, %r12	# iftmp.230, curop
	.loc 1 2110 0 is_stmt 1 discriminator 3
	movq	$0, (%rbx)	#, o_7(D)->op_next
	.loc 1 2111 0 discriminator 3
	movq	%r12, PL_op(%rip)	# curop, PL_op
	.loc 1 2112 0 discriminator 3
	movq	PL_runops(%rip), %rax	# PL_runops, PL_runops.231
	call	*%rax	# PL_runops.231
	.loc 1 2113 0 discriminator 3
	movq	PL_stack_sp(%rip), %rax	# PL_stack_sp, PL_stack_sp.232
	leaq	-8(%rax), %rdx	#, PL_stack_sp.234
	movq	%rdx, PL_stack_sp(%rip)	# PL_stack_sp.234, PL_stack_sp
	movq	(%rax), %rax	# *PL_stack_sp.233_62, tmp146
	movq	%rax, -24(%rbp)	# tmp146, sv
	.loc 1 2114 0 discriminator 3
	movq	24(%rbx), %rax	# o_7(D)->op_targ, D.21726
	testq	%rax, %rax	# D.21726
	je	.L603	#,
	.loc 1 2114 0 is_stmt 0 discriminator 1
	movq	PL_curpad(%rip), %rax	# PL_curpad, PL_curpad.235
	movq	24(%rbx), %rdx	# o_7(D)->op_targ, D.21726
	salq	$3, %rdx	#, D.21726
	addq	%rdx, %rax	# D.21726, D.21730
	movq	(%rax), %rax	# *_69, D.21731
	cmpq	-24(%rbp), %rax	# sv, D.21731
	jne	.L603	#,
	.loc 1 2115 0 is_stmt 1
	movq	24(%rbx), %rax	# o_7(D)->op_targ, D.21726
	movl	$0, %esi	#,
	movq	%rax, %rdi	# D.21726,
	call	Perl_pad_swipe	#
	jmp	.L604	#
.L603:
	.loc 1 2116 0
	movq	-24(%rbp), %rax	# sv, tmp147
	movl	12(%rax), %eax	# sv_64->sv_flags, D.21725
	andl	$2048, %eax	#, D.21725
	testl	%eax, %eax	# D.21725
	je	.L604	#,
	.loc 1 2117 0
	movq	-24(%rbp), %rax	# sv, tmp148
	movq	%rax, PL_Sv(%rip)	# tmp148, PL_Sv
	movq	PL_Sv(%rip), %rax	# PL_Sv, PL_Sv.237
	testq	%rax, %rax	# PL_Sv.237
	je	.L606	#,
	.loc 1 2117 0 is_stmt 0 discriminator 1
	movq	PL_Sv(%rip), %rax	# PL_Sv, PL_Sv.238
	movl	8(%rax), %edx	# PL_Sv.238_75->sv_refcnt, D.21725
	addl	$1, %edx	#, D.21725
	movl	%edx, 8(%rax)	# D.21725, PL_Sv.238_75->sv_refcnt
	movl	8(%rax), %eax	# PL_Sv.238_75->sv_refcnt, D.21725
	testl	%eax, %eax	# D.21725
	je	.L606	#,
	.loc 1 2117 0
	nop
.L606:
	.loc 1 2118 0 is_stmt 1
	movq	-24(%rbp), %rax	# sv, tmp149
	movl	12(%rax), %eax	# sv_64->sv_flags, D.21725
	andb	$247, %ah	#, D.21725
	movl	%eax, %edx	# D.21725, D.21725
	movq	-24(%rbp), %rax	# sv, tmp150
	movl	%edx, 12(%rax)	# D.21725, sv_64->sv_flags
.L604:
	.loc 1 2120 0
	movq	%rbx, %rdi	# o,
	call	Perl_op_free	#
	.loc 1 2121 0
	cmpl	$14, -28(%rbp)	#, type
	jne	.L607	#,
	.loc 1 2122 0
	movq	-24(%rbp), %rax	# sv, tmp151
	movq	%rax, %rdx	# tmp151,
	movl	$0, %esi	#,
	movl	$7, %edi	#,
	call	Perl_newGVOP	#
	jmp	.L608	#
.L607:
	.loc 1 2123 0
	movq	-24(%rbp), %rax	# sv, tmp152
	movq	%rax, %rdx	# tmp152,
	movl	$0, %esi	#,
	movl	$5, %edi	#,
	call	Perl_newSVOP	#
	jmp	.L608	#
.L587:
	.loc 1 2126 0
	movq	%rbx, %rax	# o, D.21723
.L608:
	.loc 1 2127 0
	addq	$16, %rsp	#,
	popq	%rbx	#
	popq	%r12	#
	popq	%rbp	#
	.cfi_def_cfa 7, 8
	ret
	.cfi_endproc
.LFE47:
	.size	Perl_fold_constants, .-Perl_fold_constants
	.globl	Perl_gen_constant_list
	.type	Perl_gen_constant_list, @function
Perl_gen_constant_list:
.LFB48:
	.loc 1 2131 0
	.cfi_startproc
	pushq	%rbp	#
	.cfi_def_cfa_offset 16
	.cfi_offset 6, -16
	movq	%rsp, %rbp	#,
	.cfi_def_cfa_register 6
	pushq	%r12	#
	pushq	%rbx	#
	subq	$16, %rsp	#,
	.cfi_offset 12, -24
	.cfi_offset 3, -32
	movq	%rdi, %rbx	# o, o
	.loc 1 2133 0
	movl	PL_tmps_floor(%rip), %eax	# PL_tmps_floor, tmp86
	movl	%eax, -20(%rbp)	# tmp86, oldtmps_floor
	.loc 1 2135 0
	movq	%rbx, %rdi	# o,
	call	Perl_list	#
	.loc 1 2136 0
	movl	PL_error_count(%rip), %eax	# PL_error_count, PL_error_count.239
	testl	%eax, %eax	# PL_error_count.239
	je	.L610	#,
	.loc 1 2137 0
	movq	%rbx, %rax	# o, D.21732
	jmp	.L611	#
.L610:
	.loc 1 2139 0
	movq	(%rbx), %rax	# o_4(D)->op_next, D.21732
	testq	%rax, %rax	# D.21732
	je	.L612	#,
	.loc 1 2139 0 is_stmt 0 discriminator 1
	movq	(%rbx), %rax	# o_4(D)->op_next, iftmp.240
	jmp	.L613	#
.L612:
	.loc 1 2139 0 discriminator 2
	movq	%rbx, %rdi	# o,
	call	Perl_linklist	#
.L613:
	.loc 1 2139 0 discriminator 3
	movq	%rax, %r12	# iftmp.240, curop
	movq	%r12, PL_op(%rip)	# curop, PL_op
	.loc 1 2140 0 is_stmt 1 discriminator 3
	movq	$0, (%rbx)	#, o_4(D)->op_next
	.loc 1 2141 0 discriminator 3
	movq	PL_peepp(%rip), %rax	# PL_peepp, PL_peepp.241
	movq	%r12, %rdi	# curop,
	call	*%rax	# PL_peepp.241
	.loc 1 2142 0 discriminator 3
	call	Perl_pp_pushmark	#
	.loc 1 2143 0 discriminator 3
	movq	PL_runops(%rip), %rax	# PL_runops, PL_runops.242
	call	*%rax	# PL_runops.242
	.loc 1 2144 0 discriminator 3
	movq	%r12, PL_op(%rip)	# curop, PL_op
	.loc 1 2145 0 discriminator 3
	call	Perl_pp_anonlist	#
	.loc 1 2146 0 discriminator 3
	movl	-20(%rbp), %eax	# oldtmps_floor, tmp87
	movl	%eax, PL_tmps_floor(%rip)	# tmp87, PL_tmps_floor
	.loc 1 2148 0 discriminator 3
	movw	$125, 32(%rbx)	#, o_4(D)->op_type
	.loc 1 2149 0 discriminator 3
	movq	PL_ppaddr+1000(%rip), %rax	# PL_ppaddr, D.21733
	movq	%rax, 16(%rbx)	# D.21733, o_4(D)->op_ppaddr
	.loc 1 2150 0 discriminator 3
	movzbl	36(%rbx), %eax	# o_4(D)->op_flags, D.21734
	andl	$-17, %eax	#, D.21734
	movb	%al, 36(%rbx)	# D.21734, o_4(D)->op_flags
	.loc 1 2151 0 discriminator 3
	movzbl	36(%rbx), %eax	# o_4(D)->op_flags, D.21734
	orl	$8, %eax	#, D.21734
	movb	%al, 36(%rbx)	# D.21734, o_4(D)->op_flags
	.loc 1 2152 0 discriminator 3
	movw	$0, 34(%rbx)	#, o_4(D)->op_seq
	.loc 1 2153 0 discriminator 3
	movq	40(%rbx), %r12	# MEM[(struct UNOP *)o_4(D)].op_first, curop
	.loc 1 2154 0 discriminator 3
	movq	PL_stack_sp(%rip), %rax	# PL_stack_sp, PL_stack_sp.243
	leaq	-8(%rax), %rdx	#, PL_stack_sp.245
	movq	%rdx, PL_stack_sp(%rip)	# PL_stack_sp.245, PL_stack_sp
	movq	(%rax), %rax	# *PL_stack_sp.244_20, PL_Sv.246
	movq	%rax, PL_Sv(%rip)	# PL_Sv.246, PL_Sv
	movq	PL_Sv(%rip), %rax	# PL_Sv, PL_Sv.248
	testq	%rax, %rax	# PL_Sv.248
	je	.L615	#,
	.loc 1 2154 0 is_stmt 0 discriminator 1
	movq	PL_Sv(%rip), %rax	# PL_Sv, PL_Sv.249
	movl	8(%rax), %edx	# PL_Sv.249_24->sv_refcnt, D.21735
	addl	$1, %edx	#, D.21735
	movl	%edx, 8(%rax)	# D.21735, PL_Sv.249_24->sv_refcnt
	movl	8(%rax), %eax	# PL_Sv.249_24->sv_refcnt, D.21735
	testl	%eax, %eax	# D.21735
	je	.L615	#,
	.loc 1 2154 0
	nop
.L615:
	.loc 1 2154 0 discriminator 4
	movq	PL_Sv(%rip), %rax	# PL_Sv, PL_Sv.250
	movq	%rax, %rdx	# PL_Sv.250,
	movl	$0, %esi	#,
	movl	$5, %edi	#,
	call	Perl_newSVOP	#
	movq	%rax, 40(%rbx)	# D.21732, MEM[(struct UNOP *)o_4(D)].op_first
	.loc 1 2155 0 is_stmt 1 discriminator 4
	movq	%r12, %rdi	# curop,
	call	Perl_op_free	#
	.loc 1 2156 0 discriminator 4
	movq	%rbx, %rdi	# o,
	call	Perl_linklist	#
	.loc 1 2157 0 discriminator 4
	movq	%rbx, %rdi	# o,
	call	Perl_list	#
.L611:
	.loc 1 2158 0
	addq	$16, %rsp	#,
	popq	%rbx	#
	popq	%r12	#
	popq	%rbp	#
	.cfi_def_cfa 7, 8
	ret
	.cfi_endproc
.LFE48:
	.size	Perl_gen_constant_list, .-Perl_gen_constant_list
	.section	.rodata
	.align 8
.LC44:
	.string	"'%s' trapped by operation mask"
	.text
	.globl	Perl_convert
	.type	Perl_convert, @function
Perl_convert:
.LFB49:
	.loc 1 2162 0
	.cfi_startproc
	pushq	%rbp	#
	.cfi_def_cfa_offset 16
	.cfi_offset 6, -16
	movq	%rsp, %rbp	#,
	.cfi_def_cfa_register 6
	subq	$16, %rsp	#,
	movl	%edi, -4(%rbp)	# type, type
	movl	%esi, -8(%rbp)	# flags, flags
	movq	%rdx, -16(%rbp)	# o, o
	.loc 1 2163 0
	cmpq	$0, -16(%rbp)	#, o
	je	.L617	#,
	.loc 1 2163 0 is_stmt 0 discriminator 1
	movq	-16(%rbp), %rax	# o, tmp85
	movzwl	32(%rax), %eax	# o_4(D)->op_type, D.21737
	cmpw	$141, %ax	#, D.21737
	je	.L618	#,
.L617:
	.loc 1 2164 0 is_stmt 1
	movq	-16(%rbp), %rax	# o, tmp86
	movl	$0, %ecx	#,
	movq	%rax, %rdx	# tmp86,
	movl	$0, %esi	#,
	movl	$141, %edi	#,
	call	Perl_newLISTOP	#
	movq	%rax, -16(%rbp)	# tmp87, o
	jmp	.L619	#
.L618:
	.loc 1 2166 0
	movq	-16(%rbp), %rax	# o, tmp88
	movzbl	36(%rax), %eax	# o_4(D)->op_flags, D.21738
	andl	$-4, %eax	#, D.21738
	movl	%eax, %edx	# D.21738, D.21738
	movq	-16(%rbp), %rax	# o, tmp89
	movb	%dl, 36(%rax)	# D.21738, o_4(D)->op_flags
.L619:
	.loc 1 2168 0
	movl	-4(%rbp), %eax	# type, tmp91
	cltq
	movl	PL_opargs(,%rax,4), %eax	# PL_opargs, D.21739
	andl	$1, %eax	#, D.21739
	testl	%eax, %eax	# D.21739
	jne	.L620	#,
	.loc 1 2169 0
	movq	-16(%rbp), %rax	# o, tmp92
	movq	40(%rax), %rax	# MEM[(struct LISTOP *)o_1].op_first, D.21736
	movq	%rax, %rdi	# D.21736,
	call	Perl_op_null	#
.L620:
	.loc 1 2171 0
	movl	-4(%rbp), %eax	# type, tmp93
	movl	%eax, %edx	# tmp93, D.21737
	movq	-16(%rbp), %rax	# o, tmp94
	movw	%dx, 32(%rax)	# D.21737, o_1->op_type
	.loc 1 2172 0
	movl	-4(%rbp), %eax	# type, tmp96
	cltq
	movq	PL_ppaddr(,%rax,8), %rdx	# PL_ppaddr, D.21740
	movq	-16(%rbp), %rax	# o, tmp97
	movq	%rdx, 16(%rax)	# D.21740, o_1->op_ppaddr
	.loc 1 2173 0
	movq	-16(%rbp), %rax	# o, tmp98
	movzbl	36(%rax), %eax	# o_1->op_flags, D.21738
	movl	%eax, %edx	# D.21738, D.21741
	movl	-8(%rbp), %eax	# flags, tmp99
	orl	%edx, %eax	# D.21741, D.21741
	movl	%eax, %edx	# D.21741, D.21738
	movq	-16(%rbp), %rax	# o, tmp100
	movb	%dl, 36(%rax)	# D.21738, o_1->op_flags
	.loc 1 2175 0
	movq	PL_op_mask(%rip), %rax	# PL_op_mask, PL_op_mask.252
	testq	%rax, %rax	# PL_op_mask.252
	je	.L621	#,
	.loc 1 2175 0 is_stmt 0 discriminator 1
	movq	PL_op_mask(%rip), %rdx	# PL_op_mask, PL_op_mask.253
	movl	-4(%rbp), %eax	# type, tmp101
	cltq
	addq	%rdx, %rax	# PL_op_mask.253, D.21743
	movzbl	(%rax), %eax	# *_24, D.21744
	testb	%al, %al	# D.21744
	je	.L621	#,
	movq	-16(%rbp), %rax	# o, tmp102
	movq	%rax, %rdi	# tmp102,
	call	Perl_op_free	#
	movl	-4(%rbp), %eax	# type, tmp104
	cltq
	movq	PL_op_desc(,%rax,8), %rax	# PL_op_desc, D.21743
	movq	%rax, %rsi	# D.21743,
	movl	$.LC44, %edi	#,
	movl	$0, %eax	#,
	call	Perl_croak	#
	movl	$0, %eax	#, iftmp.251
	jmp	.L622	#
.L621:
	.loc 1 2175 0 discriminator 2
	movl	-4(%rbp), %eax	# type, tmp106
	cltq
	movq	PL_check(,%rax,8), %rax	# PL_check, D.21745
	movq	-16(%rbp), %rdx	# o, tmp107
	movq	%rdx, %rdi	# tmp107,
	call	*%rax	# D.21745
.L622:
	.loc 1 2175 0 discriminator 3
	movq	%rax, -16(%rbp)	# iftmp.251, o
	.loc 1 2176 0 is_stmt 1 discriminator 3
	movq	-16(%rbp), %rax	# o, tmp108
	movzwl	32(%rax), %eax	# o_30->op_type, D.21737
	movzwl	%ax, %edx	# D.21737, D.21739
	movl	-4(%rbp), %eax	# type, type.254
	cmpl	%eax, %edx	# type.254, D.21739
	je	.L623	#,
	.loc 1 2177 0
	movq	-16(%rbp), %rax	# o, D.21736
	jmp	.L624	#
.L623:
	.loc 1 2179 0
	movq	-16(%rbp), %rax	# o, tmp109
	movq	%rax, %rdi	# tmp109,
	call	Perl_fold_constants	#
.L624:
	.loc 1 2180 0
	leave
	.cfi_def_cfa 7, 8
	ret
	.cfi_endproc
.LFE49:
	.size	Perl_convert, .-Perl_convert
	.globl	Perl_append_elem
	.type	Perl_append_elem, @function
Perl_append_elem:
.LFB50:
	.loc 1 2186 0
	.cfi_startproc
	pushq	%rbp	#
	.cfi_def_cfa_offset 16
	.cfi_offset 6, -16
	movq	%rsp, %rbp	#,
	.cfi_def_cfa_register 6
	subq	$32, %rsp	#,
	movl	%edi, -4(%rbp)	# type, type
	movq	%rsi, -16(%rbp)	# first, first
	movq	%rdx, -24(%rbp)	# last, last
	.loc 1 2187 0
	cmpq	$0, -16(%rbp)	#, first
	jne	.L626	#,
	.loc 1 2188 0
	movq	-24(%rbp), %rax	# last, D.21747
	jmp	.L627	#
.L626:
	.loc 1 2190 0
	cmpq	$0, -24(%rbp)	#, last
	jne	.L628	#,
	.loc 1 2191 0
	movq	-16(%rbp), %rax	# first, D.21747
	jmp	.L627	#
.L628:
	.loc 1 2193 0
	movq	-16(%rbp), %rax	# first, tmp73
	movzwl	32(%rax), %eax	# first_2(D)->op_type, D.21748
	movzwl	%ax, %edx	# D.21748, D.21749
	movl	-4(%rbp), %eax	# type, type.255
	cmpl	%eax, %edx	# type.255, D.21749
	jne	.L629	#,
	.loc 1 2194 0
	cmpl	$141, -4(%rbp)	#, type
	jne	.L630	#,
	.loc 1 2194 0 is_stmt 0 discriminator 1
	movq	-16(%rbp), %rax	# first, tmp74
	movzbl	36(%rax), %eax	# first_2(D)->op_flags, D.21750
	movzbl	%al, %eax	# D.21750, D.21751
	andl	$8, %eax	#, D.21751
	testl	%eax, %eax	# D.21751
	je	.L630	#,
.L629:
	.loc 1 2196 0 is_stmt 1
	movq	-24(%rbp), %rcx	# last, tmp75
	movq	-16(%rbp), %rdx	# first, tmp76
	movl	-4(%rbp), %eax	# type, tmp77
	movl	$0, %esi	#,
	movl	%eax, %edi	# tmp77,
	call	Perl_newLISTOP	#
	jmp	.L627	#
.L630:
	.loc 1 2199 0
	movq	-16(%rbp), %rax	# first, tmp78
	movzbl	36(%rax), %eax	# first_2(D)->op_flags, D.21750
	movzbl	%al, %eax	# D.21750, D.21751
	andl	$4, %eax	#, D.21751
	testl	%eax, %eax	# D.21751
	je	.L631	#,
	.loc 1 2200 0
	movq	-16(%rbp), %rax	# first, tmp79
	movq	48(%rax), %rax	# MEM[(struct LISTOP *)first_2(D)].op_last, D.21747
	movq	-24(%rbp), %rdx	# last, tmp80
	movq	%rdx, 8(%rax)	# tmp80, _16->op_sibling
	jmp	.L632	#
.L631:
	.loc 1 2202 0
	movq	-16(%rbp), %rax	# first, tmp81
	movzbl	36(%rax), %eax	# first_2(D)->op_flags, D.21750
	orl	$4, %eax	#, D.21750
	movl	%eax, %edx	# D.21750, D.21750
	movq	-16(%rbp), %rax	# first, tmp82
	movb	%dl, 36(%rax)	# D.21750, first_2(D)->op_flags
	.loc 1 2203 0
	movq	-16(%rbp), %rax	# first, tmp83
	movq	-24(%rbp), %rdx	# last, tmp84
	movq	%rdx, 40(%rax)	# tmp84, MEM[(struct LISTOP *)first_2(D)].op_first
.L632:
	.loc 1 2205 0
	movq	-16(%rbp), %rax	# first, tmp85
	movq	-24(%rbp), %rdx	# last, tmp86
	movq	%rdx, 48(%rax)	# tmp86, MEM[(struct LISTOP *)first_2(D)].op_last
	.loc 1 2206 0
	movq	-16(%rbp), %rax	# first, D.21747
.L627:
	.loc 1 2207 0
	leave
	.cfi_def_cfa 7, 8
	ret
	.cfi_endproc
.LFE50:
	.size	Perl_append_elem, .-Perl_append_elem
	.globl	Perl_append_list
	.type	Perl_append_list, @function
Perl_append_list:
.LFB51:
	.loc 1 2211 0
	.cfi_startproc
	pushq	%rbp	#
	.cfi_def_cfa_offset 16
	.cfi_offset 6, -16
	movq	%rsp, %rbp	#,
	.cfi_def_cfa_register 6
	subq	$32, %rsp	#,
	movl	%edi, -4(%rbp)	# type, type
	movq	%rsi, -16(%rbp)	# first, first
	movq	%rdx, -24(%rbp)	# last, last
	.loc 1 2212 0
	cmpq	$0, -16(%rbp)	#, first
	jne	.L634	#,
	.loc 1 2213 0
	movq	-24(%rbp), %rax	# last, D.21752
	jmp	.L635	#
.L634:
	.loc 1 2215 0
	cmpq	$0, -24(%rbp)	#, last
	jne	.L636	#,
	.loc 1 2216 0
	movq	-16(%rbp), %rax	# first, D.21752
	jmp	.L635	#
.L636:
	.loc 1 2218 0
	movq	-16(%rbp), %rax	# first, tmp77
	movzwl	32(%rax), %eax	# first_2(D)->op_type, D.21753
	movzwl	%ax, %edx	# D.21753, D.21754
	movl	-4(%rbp), %eax	# type, type.256
	cmpl	%eax, %edx	# type.256, D.21754
	je	.L637	#,
	.loc 1 2219 0
	movq	-24(%rbp), %rdx	# last, tmp78
	movq	-16(%rbp), %rcx	# first, tmp79
	movl	-4(%rbp), %eax	# type, tmp80
	movq	%rcx, %rsi	# tmp79,
	movl	%eax, %edi	# tmp80,
	call	Perl_prepend_elem	#
	jmp	.L635	#
.L637:
	.loc 1 2221 0
	movq	-24(%rbp), %rax	# last, tmp81
	movzwl	32(%rax), %eax	# last_3(D)->op_type, D.21753
	movzwl	%ax, %edx	# D.21753, D.21754
	movl	-4(%rbp), %eax	# type, type.257
	cmpl	%eax, %edx	# type.257, D.21754
	je	.L638	#,
	.loc 1 2222 0
	movq	-24(%rbp), %rdx	# last, tmp82
	movq	-16(%rbp), %rcx	# first, tmp83
	movl	-4(%rbp), %eax	# type, tmp84
	movq	%rcx, %rsi	# tmp83,
	movl	%eax, %edi	# tmp84,
	call	Perl_append_elem	#
	jmp	.L635	#
.L638:
	.loc 1 2224 0
	movq	-16(%rbp), %rax	# first, tmp85
	movq	48(%rax), %rax	# first_2(D)->op_last, D.21752
	movq	-24(%rbp), %rdx	# last, tmp86
	movq	40(%rdx), %rdx	# last_3(D)->op_first, D.21752
	movq	%rdx, 8(%rax)	# D.21752, _15->op_sibling
	.loc 1 2225 0
	movq	-24(%rbp), %rax	# last, tmp87
	movq	48(%rax), %rdx	# last_3(D)->op_last, D.21752
	movq	-16(%rbp), %rax	# first, tmp88
	movq	%rdx, 48(%rax)	# D.21752, first_2(D)->op_last
	.loc 1 2226 0
	movq	-16(%rbp), %rax	# first, tmp89
	movzbl	36(%rax), %eax	# first_2(D)->op_flags, D.21755
	movl	%eax, %edx	# D.21755, D.21756
	movq	-24(%rbp), %rax	# last, tmp90
	movzbl	36(%rax), %eax	# last_3(D)->op_flags, D.21755
	andl	$4, %eax	#, D.21756
	orl	%edx, %eax	# D.21756, D.21756
	movl	%eax, %edx	# D.21756, D.21755
	movq	-16(%rbp), %rax	# first, tmp91
	movb	%dl, 36(%rax)	# D.21755, first_2(D)->op_flags
	.loc 1 2228 0
	movq	-24(%rbp), %rax	# last, tmp92
	movq	%rax, %rdi	# tmp92,
	call	Perl_safesysfree	#
	.loc 1 2230 0
	movq	-16(%rbp), %rax	# first, D.21752
.L635:
	.loc 1 2231 0
	leave
	.cfi_def_cfa 7, 8
	ret
	.cfi_endproc
.LFE51:
	.size	Perl_append_list, .-Perl_append_list
	.globl	Perl_prepend_elem
	.type	Perl_prepend_elem, @function
Perl_prepend_elem:
.LFB52:
	.loc 1 2235 0
	.cfi_startproc
	pushq	%rbp	#
	.cfi_def_cfa_offset 16
	.cfi_offset 6, -16
	movq	%rsp, %rbp	#,
	.cfi_def_cfa_register 6
	subq	$32, %rsp	#,
	movl	%edi, -4(%rbp)	# type, type
	movq	%rsi, -16(%rbp)	# first, first
	movq	%rdx, -24(%rbp)	# last, last
	.loc 1 2236 0
	cmpq	$0, -16(%rbp)	#, first
	jne	.L640	#,
	.loc 1 2237 0
	movq	-24(%rbp), %rax	# last, D.21757
	jmp	.L641	#
.L640:
	.loc 1 2239 0
	cmpq	$0, -24(%rbp)	#, last
	jne	.L642	#,
	.loc 1 2240 0
	movq	-16(%rbp), %rax	# first, D.21757
	jmp	.L641	#
.L642:
	.loc 1 2242 0
	movq	-24(%rbp), %rax	# last, tmp80
	movzwl	32(%rax), %eax	# last_3(D)->op_type, D.21758
	movzwl	%ax, %edx	# D.21758, D.21759
	movl	-4(%rbp), %eax	# type, type.258
	cmpl	%eax, %edx	# type.258, D.21759
	jne	.L643	#,
	.loc 1 2243 0
	cmpl	$141, -4(%rbp)	#, type
	jne	.L644	#,
	.loc 1 2244 0
	movq	-24(%rbp), %rax	# last, tmp81
	movq	40(%rax), %rax	# MEM[(struct LISTOP *)last_3(D)].op_first, D.21757
	movq	8(%rax), %rdx	# _10->op_sibling, D.21757
	movq	-16(%rbp), %rax	# first, tmp82
	movq	%rdx, 8(%rax)	# D.21757, first_2(D)->op_sibling
	.loc 1 2245 0
	movq	-24(%rbp), %rax	# last, tmp83
	movq	40(%rax), %rax	# MEM[(struct LISTOP *)last_3(D)].op_first, D.21757
	movq	-16(%rbp), %rdx	# first, tmp84
	movq	%rdx, 8(%rax)	# tmp84, _12->op_sibling
	.loc 1 2246 0
	movq	-16(%rbp), %rax	# first, tmp85
	movzbl	36(%rax), %eax	# first_2(D)->op_flags, D.21760
	movzbl	%al, %eax	# D.21760, D.21761
	andl	$8, %eax	#, D.21761
	testl	%eax, %eax	# D.21761
	jne	.L646	#,
	.loc 1 2247 0
	movq	-24(%rbp), %rax	# last, tmp86
	movzbl	36(%rax), %eax	# last_3(D)->op_flags, D.21760
	andl	$-9, %eax	#, D.21760
	movl	%eax, %edx	# D.21760, D.21760
	movq	-24(%rbp), %rax	# last, tmp87
	movb	%dl, 36(%rax)	# D.21760, last_3(D)->op_flags
	jmp	.L646	#
.L644:
	.loc 1 2250 0
	movq	-24(%rbp), %rax	# last, tmp88
	movzbl	36(%rax), %eax	# last_3(D)->op_flags, D.21760
	movzbl	%al, %eax	# D.21760, D.21761
	andl	$4, %eax	#, D.21761
	testl	%eax, %eax	# D.21761
	jne	.L647	#,
	.loc 1 2251 0
	movq	-24(%rbp), %rax	# last, tmp89
	movq	-16(%rbp), %rdx	# first, tmp90
	movq	%rdx, 48(%rax)	# tmp90, MEM[(struct LISTOP *)last_3(D)].op_last
	.loc 1 2252 0
	movq	-24(%rbp), %rax	# last, tmp91
	movzbl	36(%rax), %eax	# last_3(D)->op_flags, D.21760
	orl	$4, %eax	#, D.21760
	movl	%eax, %edx	# D.21760, D.21760
	movq	-24(%rbp), %rax	# last, tmp92
	movb	%dl, 36(%rax)	# D.21760, last_3(D)->op_flags
.L647:
	.loc 1 2254 0
	movq	-24(%rbp), %rax	# last, tmp93
	movq	40(%rax), %rdx	# MEM[(struct LISTOP *)last_3(D)].op_first, D.21757
	movq	-16(%rbp), %rax	# first, tmp94
	movq	%rdx, 8(%rax)	# D.21757, first_2(D)->op_sibling
	.loc 1 2255 0
	movq	-24(%rbp), %rax	# last, tmp95
	movq	-16(%rbp), %rdx	# first, tmp96
	movq	%rdx, 40(%rax)	# tmp96, MEM[(struct LISTOP *)last_3(D)].op_first
.L646:
	.loc 1 2257 0
	movq	-24(%rbp), %rax	# last, tmp97
	movzbl	36(%rax), %eax	# last_3(D)->op_flags, D.21760
	orl	$4, %eax	#, D.21760
	movl	%eax, %edx	# D.21760, D.21760
	movq	-24(%rbp), %rax	# last, tmp98
	movb	%dl, 36(%rax)	# D.21760, last_3(D)->op_flags
	.loc 1 2258 0
	movq	-24(%rbp), %rax	# last, D.21757
	jmp	.L641	#
.L643:
	.loc 1 2261 0
	movq	-24(%rbp), %rcx	# last, tmp99
	movq	-16(%rbp), %rdx	# first, tmp100
	movl	-4(%rbp), %eax	# type, tmp101
	movl	$0, %esi	#,
	movl	%eax, %edi	# tmp101,
	call	Perl_newLISTOP	#
.L641:
	.loc 1 2262 0
	leave
	.cfi_def_cfa 7, 8
	ret
	.cfi_endproc
.LFE52:
	.size	Perl_prepend_elem, .-Perl_prepend_elem
	.globl	Perl_newNULLLIST
	.type	Perl_newNULLLIST, @function
Perl_newNULLLIST:
.LFB53:
	.loc 1 2268 0
	.cfi_startproc
	pushq	%rbp	#
	.cfi_def_cfa_offset 16
	.cfi_offset 6, -16
	movq	%rsp, %rbp	#,
	.cfi_def_cfa_register 6
	.loc 1 2269 0
	movl	$0, %esi	#,
	movl	$1, %edi	#,
	call	Perl_newOP	#
	.loc 1 2270 0
	popq	%rbp	#
	.cfi_def_cfa 7, 8
	ret
	.cfi_endproc
.LFE53:
	.size	Perl_newNULLLIST, .-Perl_newNULLLIST
	.globl	Perl_force_list
	.type	Perl_force_list, @function
Perl_force_list:
.LFB54:
	.loc 1 2274 0
	.cfi_startproc
	pushq	%rbp	#
	.cfi_def_cfa_offset 16
	.cfi_offset 6, -16
	movq	%rsp, %rbp	#,
	.cfi_def_cfa_register 6
	subq	$16, %rsp	#,
	movq	%rdi, -8(%rbp)	# o, o
	.loc 1 2275 0
	cmpq	$0, -8(%rbp)	#, o
	je	.L651	#,
	.loc 1 2275 0 is_stmt 0 discriminator 1
	movq	-8(%rbp), %rax	# o, tmp62
	movzwl	32(%rax), %eax	# o_2(D)->op_type, D.21763
	cmpw	$141, %ax	#, D.21763
	je	.L652	#,
.L651:
	.loc 1 2276 0 is_stmt 1
	movq	-8(%rbp), %rax	# o, tmp63
	movl	$0, %ecx	#,
	movq	%rax, %rdx	# tmp63,
	movl	$0, %esi	#,
	movl	$141, %edi	#,
	call	Perl_newLISTOP	#
	movq	%rax, -8(%rbp)	# tmp64, o
.L652:
	.loc 1 2277 0
	movq	-8(%rbp), %rax	# o, tmp65
	movq	%rax, %rdi	# tmp65,
	call	Perl_op_null	#
	.loc 1 2278 0
	movq	-8(%rbp), %rax	# o, D.21764
	.loc 1 2279 0
	leave
	.cfi_def_cfa 7, 8
	ret
	.cfi_endproc
.LFE54:
	.size	Perl_force_list, .-Perl_force_list
	.globl	Perl_newLISTOP
	.type	Perl_newLISTOP, @function
Perl_newLISTOP:
.LFB55:
	.loc 1 2283 0
	.cfi_startproc
	pushq	%rbp	#
	.cfi_def_cfa_offset 16
	.cfi_offset 6, -16
	movq	%rsp, %rbp	#,
	.cfi_def_cfa_register 6
	subq	$48, %rsp	#,
	movl	%edi, -20(%rbp)	# type, type
	movl	%esi, -24(%rbp)	# flags, flags
	movq	%rdx, -32(%rbp)	# first, first
	movq	%rcx, -40(%rbp)	# last, last
	.loc 1 2286 0
	movl	$56, %edi	#,
	call	Perl_safesysmalloc	#
	movq	%rax, -16(%rbp)	# tmp74, listop
	movq	-16(%rbp), %rax	# listop, tmp75
	movl	$56, %edx	#,
	movl	$0, %esi	#,
	movq	%rax, %rdi	# tmp75,
	call	memset	#
	.loc 1 2288 0
	movl	-20(%rbp), %eax	# type, tmp76
	movl	%eax, %edx	# tmp76, D.21765
	movq	-16(%rbp), %rax	# listop, tmp77
	movw	%dx, 32(%rax)	# D.21765, listop_5->op_type
	.loc 1 2289 0
	movl	-20(%rbp), %eax	# type, tmp79
	cltq
	movq	PL_ppaddr(,%rax,8), %rdx	# PL_ppaddr, D.21766
	movq	-16(%rbp), %rax	# listop, tmp80
	movq	%rdx, 16(%rax)	# D.21766, listop_5->op_ppaddr
	.loc 1 2290 0
	cmpq	$0, -32(%rbp)	#, first
	jne	.L655	#,
	.loc 1 2290 0 is_stmt 0 discriminator 1
	cmpq	$0, -40(%rbp)	#, last
	je	.L656	#,
.L655:
	.loc 1 2291 0 is_stmt 1
	orl	$4, -24(%rbp)	#, flags
.L656:
	.loc 1 2292 0
	movl	-24(%rbp), %eax	# flags, tmp81
	movl	%eax, %edx	# tmp81, D.21767
	movq	-16(%rbp), %rax	# listop, tmp82
	movb	%dl, 36(%rax)	# D.21767, listop_5->op_flags
	.loc 1 2294 0
	cmpq	$0, -40(%rbp)	#, last
	jne	.L657	#,
	.loc 1 2294 0 is_stmt 0 discriminator 1
	cmpq	$0, -32(%rbp)	#, first
	je	.L657	#,
	.loc 1 2295 0 is_stmt 1
	movq	-32(%rbp), %rax	# first, tmp83
	movq	%rax, -40(%rbp)	# tmp83, last
	jmp	.L658	#
.L657:
	.loc 1 2296 0
	cmpq	$0, -32(%rbp)	#, first
	jne	.L659	#,
	.loc 1 2296 0 is_stmt 0 discriminator 1
	cmpq	$0, -40(%rbp)	#, last
	je	.L659	#,
	.loc 1 2297 0 is_stmt 1
	movq	-40(%rbp), %rax	# last, tmp84
	movq	%rax, -32(%rbp)	# tmp84, first
	jmp	.L658	#
.L659:
	.loc 1 2298 0
	cmpq	$0, -32(%rbp)	#, first
	je	.L658	#,
	.loc 1 2299 0
	movq	-32(%rbp), %rax	# first, tmp85
	movq	-40(%rbp), %rdx	# last, tmp86
	movq	%rdx, 8(%rax)	# tmp86, first_9(D)->op_sibling
.L658:
	.loc 1 2300 0
	movq	-16(%rbp), %rax	# listop, tmp87
	movq	-32(%rbp), %rdx	# first, tmp88
	movq	%rdx, 40(%rax)	# tmp88, listop_5->op_first
	.loc 1 2301 0
	movq	-16(%rbp), %rax	# listop, tmp89
	movq	-40(%rbp), %rdx	# last, tmp90
	movq	%rdx, 48(%rax)	# tmp90, listop_5->op_last
	.loc 1 2302 0
	cmpl	$141, -20(%rbp)	#, type
	jne	.L660	#,
.LBB26:
	.loc 1 2304 0
	movl	$0, %esi	#,
	movl	$3, %edi	#,
	call	Perl_newOP	#
	movq	%rax, -8(%rbp)	# tmp91, pushop
	.loc 1 2305 0
	movq	-8(%rbp), %rax	# pushop, tmp92
	movq	-32(%rbp), %rdx	# first, tmp93
	movq	%rdx, 8(%rax)	# tmp93, pushop_16->op_sibling
	.loc 1 2306 0
	movq	-16(%rbp), %rax	# listop, tmp94
	movq	-8(%rbp), %rdx	# pushop, tmp95
	movq	%rdx, 40(%rax)	# tmp95, listop_5->op_first
	.loc 1 2307 0
	movq	-16(%rbp), %rax	# listop, tmp96
	movzbl	36(%rax), %eax	# listop_5->op_flags, D.21767
	orl	$4, %eax	#, D.21767
	movl	%eax, %edx	# D.21767, D.21767
	movq	-16(%rbp), %rax	# listop, tmp97
	movb	%dl, 36(%rax)	# D.21767, listop_5->op_flags
	.loc 1 2308 0
	cmpq	$0, -40(%rbp)	#, last
	jne	.L660	#,
	.loc 1 2309 0
	movq	-16(%rbp), %rax	# listop, tmp98
	movq	-8(%rbp), %rdx	# pushop, tmp99
	movq	%rdx, 48(%rax)	# tmp99, listop_5->op_last
.L660:
.LBE26:
	.loc 1 2312 0
	movq	PL_op_mask(%rip), %rax	# PL_op_mask, PL_op_mask.260
	testq	%rax, %rax	# PL_op_mask.260
	je	.L661	#,
	.loc 1 2312 0 is_stmt 0 discriminator 1
	movq	PL_op_mask(%rip), %rdx	# PL_op_mask, PL_op_mask.261
	movl	-20(%rbp), %eax	# type, tmp100
	cltq
	addq	%rdx, %rax	# PL_op_mask.261, D.21769
	movzbl	(%rax), %eax	# *_22, D.21770
	testb	%al, %al	# D.21770
	je	.L661	#,
	movq	-16(%rbp), %rax	# listop, tmp101
	movq	%rax, %rdi	# tmp101,
	call	Perl_op_free	#
	movl	-20(%rbp), %eax	# type, tmp103
	cltq
	movq	PL_op_desc(,%rax,8), %rax	# PL_op_desc, D.21769
	movq	%rax, %rsi	# D.21769,
	movl	$.LC44, %edi	#,
	movl	$0, %eax	#,
	call	Perl_croak	#
	movl	$0, %eax	#, iftmp.259
	jmp	.L662	#
.L661:
	.loc 1 2312 0 discriminator 2
	movl	-20(%rbp), %eax	# type, tmp105
	cltq
	movq	PL_check(,%rax,8), %rax	# PL_check, D.21771
	movq	-16(%rbp), %rdx	# listop, tmp106
	movq	%rdx, %rdi	# tmp106,
	call	*%rax	# D.21771
.L662:
	.loc 1 2313 0 is_stmt 1 discriminator 3
	leave
	.cfi_def_cfa 7, 8
	ret
	.cfi_endproc
.LFE55:
	.size	Perl_newLISTOP, .-Perl_newLISTOP
	.globl	Perl_newOP
	.type	Perl_newOP, @function
Perl_newOP:
.LFB56:
	.loc 1 2317 0
	.cfi_startproc
	pushq	%rbp	#
	.cfi_def_cfa_offset 16
	.cfi_offset 6, -16
	movq	%rsp, %rbp	#,
	.cfi_def_cfa_register 6
	subq	$32, %rsp	#,
	movl	%edi, -20(%rbp)	# type, type
	movl	%esi, -24(%rbp)	# flags, flags
	.loc 1 2319 0
	movl	$40, %edi	#,
	call	Perl_safesysmalloc	#
	movq	%rax, -8(%rbp)	# tmp79, o
	movq	-8(%rbp), %rax	# o, tmp80
	movl	$40, %edx	#,
	movl	$0, %esi	#,
	movq	%rax, %rdi	# tmp80,
	call	memset	#
	.loc 1 2320 0
	movl	-20(%rbp), %eax	# type, tmp81
	movl	%eax, %edx	# tmp81, D.21773
	movq	-8(%rbp), %rax	# o, tmp82
	movw	%dx, 32(%rax)	# D.21773, o_2->op_type
	.loc 1 2321 0
	movl	-20(%rbp), %eax	# type, tmp84
	cltq
	movq	PL_ppaddr(,%rax,8), %rdx	# PL_ppaddr, D.21774
	movq	-8(%rbp), %rax	# o, tmp85
	movq	%rdx, 16(%rax)	# D.21774, o_2->op_ppaddr
	.loc 1 2322 0
	movl	-24(%rbp), %eax	# flags, tmp86
	movl	%eax, %edx	# tmp86, D.21775
	movq	-8(%rbp), %rax	# o, tmp87
	movb	%dl, 36(%rax)	# D.21775, o_2->op_flags
	.loc 1 2324 0
	movq	-8(%rbp), %rax	# o, tmp88
	movq	-8(%rbp), %rdx	# o, tmp89
	movq	%rdx, (%rax)	# tmp89, o_2->op_next
	.loc 1 2325 0
	movl	-24(%rbp), %eax	# flags, tmp90
	sarl	$8, %eax	#, D.21776
	movl	%eax, %edx	# D.21776, D.21775
	movq	-8(%rbp), %rax	# o, tmp91
	movb	%dl, 37(%rax)	# D.21775, o_2->op_private
	.loc 1 2326 0
	movl	-20(%rbp), %eax	# type, tmp93
	cltq
	movl	PL_opargs(,%rax,4), %eax	# PL_opargs, D.21777
	andl	$4, %eax	#, D.21777
	testl	%eax, %eax	# D.21777
	je	.L665	#,
	.loc 1 2327 0
	movq	-8(%rbp), %rax	# o, tmp94
	movq	%rax, %rdi	# tmp94,
	call	Perl_scalar	#
.L665:
	.loc 1 2328 0
	movl	-20(%rbp), %eax	# type, tmp96
	cltq
	movl	PL_opargs(,%rax,4), %eax	# PL_opargs, D.21777
	andl	$8, %eax	#, D.21777
	testl	%eax, %eax	# D.21777
	je	.L666	#,
	.loc 1 2329 0
	movl	-20(%rbp), %eax	# type, tmp97
	movl	$512, %esi	#,
	movl	%eax, %edi	# tmp97,
	call	Perl_pad_alloc	#
	movq	-8(%rbp), %rdx	# o, tmp98
	movq	%rax, 24(%rdx)	# D.21778, o_2->op_targ
.L666:
	.loc 1 2330 0
	movq	PL_op_mask(%rip), %rax	# PL_op_mask, PL_op_mask.263
	testq	%rax, %rax	# PL_op_mask.263
	je	.L667	#,
	.loc 1 2330 0 is_stmt 0 discriminator 1
	movq	PL_op_mask(%rip), %rdx	# PL_op_mask, PL_op_mask.264
	movl	-20(%rbp), %eax	# type, tmp99
	cltq
	addq	%rdx, %rax	# PL_op_mask.264, D.21780
	movzbl	(%rax), %eax	# *_18, D.21781
	testb	%al, %al	# D.21781
	je	.L667	#,
	movq	-8(%rbp), %rax	# o, tmp100
	movq	%rax, %rdi	# tmp100,
	call	Perl_op_free	#
	movl	-20(%rbp), %eax	# type, tmp102
	cltq
	movq	PL_op_desc(,%rax,8), %rax	# PL_op_desc, D.21780
	movq	%rax, %rsi	# D.21780,
	movl	$.LC44, %edi	#,
	movl	$0, %eax	#,
	call	Perl_croak	#
	movl	$0, %eax	#, iftmp.262
	jmp	.L668	#
.L667:
	.loc 1 2330 0 discriminator 2
	movl	-20(%rbp), %eax	# type, tmp104
	cltq
	movq	PL_check(,%rax,8), %rax	# PL_check, D.21782
	movq	-8(%rbp), %rdx	# o, tmp105
	movq	%rdx, %rdi	# tmp105,
	call	*%rax	# D.21782
.L668:
	.loc 1 2331 0 is_stmt 1 discriminator 3
	leave
	.cfi_def_cfa 7, 8
	ret
	.cfi_endproc
.LFE56:
	.size	Perl_newOP, .-Perl_newOP
	.globl	Perl_newUNOP
	.type	Perl_newUNOP, @function
Perl_newUNOP:
.LFB57:
	.loc 1 2335 0
	.cfi_startproc
	pushq	%rbp	#
	.cfi_def_cfa_offset 16
	.cfi_offset 6, -16
	movq	%rsp, %rbp	#,
	.cfi_def_cfa_register 6
	subq	$32, %rsp	#,
	movl	%edi, -20(%rbp)	# type, type
	movl	%esi, -24(%rbp)	# flags, flags
	movq	%rdx, -32(%rbp)	# first, first
	.loc 1 2338 0
	cmpq	$0, -32(%rbp)	#, first
	jne	.L671	#,
	.loc 1 2339 0
	movl	$0, %esi	#,
	movl	$1, %edi	#,
	call	Perl_newOP	#
	movq	%rax, -32(%rbp)	# tmp81, first
.L671:
	.loc 1 2340 0
	movl	-20(%rbp), %eax	# type, tmp83
	cltq
	movl	PL_opargs(,%rax,4), %eax	# PL_opargs, D.21785
	andl	$1, %eax	#, D.21785
	testl	%eax, %eax	# D.21785
	je	.L672	#,
	.loc 1 2341 0
	movq	-32(%rbp), %rax	# first, tmp84
	movq	%rax, %rdi	# tmp84,
	call	Perl_force_list	#
	movq	%rax, -32(%rbp)	# tmp85, first
.L672:
	.loc 1 2343 0
	movl	$48, %edi	#,
	call	Perl_safesysmalloc	#
	movq	%rax, -8(%rbp)	# tmp86, unop
	movq	-8(%rbp), %rax	# unop, tmp87
	movl	$48, %edx	#,
	movl	$0, %esi	#,
	movq	%rax, %rdi	# tmp87,
	call	memset	#
	.loc 1 2344 0
	movl	-20(%rbp), %eax	# type, tmp88
	movl	%eax, %edx	# tmp88, D.21786
	movq	-8(%rbp), %rax	# unop, tmp89
	movw	%dx, 32(%rax)	# D.21786, unop_11->op_type
	.loc 1 2345 0
	movl	-20(%rbp), %eax	# type, tmp91
	cltq
	movq	PL_ppaddr(,%rax,8), %rdx	# PL_ppaddr, D.21787
	movq	-8(%rbp), %rax	# unop, tmp92
	movq	%rdx, 16(%rax)	# D.21787, unop_11->op_ppaddr
	.loc 1 2346 0
	movq	-8(%rbp), %rax	# unop, tmp93
	movq	-32(%rbp), %rdx	# first, tmp94
	movq	%rdx, 40(%rax)	# tmp94, unop_11->op_first
	.loc 1 2347 0
	movl	-24(%rbp), %eax	# flags, tmp95
	orl	$4, %eax	#, D.21788
	movl	%eax, %edx	# D.21788, D.21789
	movq	-8(%rbp), %rax	# unop, tmp96
	movb	%dl, 36(%rax)	# D.21789, unop_11->op_flags
	.loc 1 2348 0
	movl	-24(%rbp), %eax	# flags, tmp97
	sarl	$8, %eax	#, D.21790
	orl	$1, %eax	#, D.21788
	movl	%eax, %edx	# D.21788, D.21789
	movq	-8(%rbp), %rax	# unop, tmp98
	movb	%dl, 37(%rax)	# D.21789, unop_11->op_private
	.loc 1 2349 0
	movq	PL_op_mask(%rip), %rax	# PL_op_mask, PL_op_mask.266
	testq	%rax, %rax	# PL_op_mask.266
	je	.L673	#,
	.loc 1 2349 0 is_stmt 0 discriminator 1
	movq	PL_op_mask(%rip), %rdx	# PL_op_mask, PL_op_mask.267
	movl	-20(%rbp), %eax	# type, tmp99
	cltq
	addq	%rdx, %rax	# PL_op_mask.267, D.21792
	movzbl	(%rax), %eax	# *_25, D.21793
	testb	%al, %al	# D.21793
	je	.L673	#,
	movq	-8(%rbp), %rax	# unop, tmp100
	movq	%rax, %rdi	# tmp100,
	call	Perl_op_free	#
	movl	-20(%rbp), %eax	# type, tmp102
	cltq
	movq	PL_op_desc(,%rax,8), %rax	# PL_op_desc, D.21792
	movq	%rax, %rsi	# D.21792,
	movl	$.LC44, %edi	#,
	movl	$0, %eax	#,
	call	Perl_croak	#
	movl	$0, %eax	#, iftmp.265
	jmp	.L674	#
.L673:
	.loc 1 2349 0 discriminator 2
	movl	-20(%rbp), %eax	# type, tmp104
	cltq
	movq	PL_check(,%rax,8), %rax	# PL_check, D.21794
	movq	-8(%rbp), %rdx	# unop, tmp105
	movq	%rdx, %rdi	# tmp105,
	call	*%rax	# D.21794
.L674:
	.loc 1 2349 0 discriminator 3
	movq	%rax, -8(%rbp)	# iftmp.265, unop
	.loc 1 2350 0 is_stmt 1 discriminator 3
	movq	-8(%rbp), %rax	# unop, tmp106
	movq	(%rax), %rax	# unop_31->op_next, D.21784
	testq	%rax, %rax	# D.21784
	je	.L675	#,
	.loc 1 2351 0
	movq	-8(%rbp), %rax	# unop, D.21784
	jmp	.L676	#
.L675:
	.loc 1 2353 0
	movq	-8(%rbp), %rax	# unop, tmp107
	movq	%rax, %rdi	# tmp107,
	call	Perl_fold_constants	#
.L676:
	.loc 1 2354 0
	leave
	.cfi_def_cfa 7, 8
	ret
	.cfi_endproc
.LFE57:
	.size	Perl_newUNOP, .-Perl_newUNOP
	.globl	Perl_newBINOP
	.type	Perl_newBINOP, @function
Perl_newBINOP:
.LFB58:
	.loc 1 2358 0
	.cfi_startproc
	pushq	%rbp	#
	.cfi_def_cfa_offset 16
	.cfi_offset 6, -16
	movq	%rsp, %rbp	#,
	.cfi_def_cfa_register 6
	subq	$48, %rsp	#,
	movl	%edi, -20(%rbp)	# type, type
	movl	%esi, -24(%rbp)	# flags, flags
	movq	%rdx, -32(%rbp)	# first, first
	movq	%rcx, -40(%rbp)	# last, last
	.loc 1 2360 0
	movl	$56, %edi	#,
	call	Perl_safesysmalloc	#
	movq	%rax, -8(%rbp)	# tmp87, binop
	movq	-8(%rbp), %rax	# binop, tmp88
	movl	$56, %edx	#,
	movl	$0, %esi	#,
	movq	%rax, %rdi	# tmp88,
	call	memset	#
	.loc 1 2362 0
	cmpq	$0, -32(%rbp)	#, first
	jne	.L678	#,
	.loc 1 2363 0
	movl	$0, %esi	#,
	movl	$0, %edi	#,
	call	Perl_newOP	#
	movq	%rax, -32(%rbp)	# tmp89, first
.L678:
	.loc 1 2365 0
	movl	-20(%rbp), %eax	# type, tmp90
	movl	%eax, %edx	# tmp90, D.21796
	movq	-8(%rbp), %rax	# binop, tmp91
	movw	%dx, 32(%rax)	# D.21796, binop_4->op_type
	.loc 1 2366 0
	movl	-20(%rbp), %eax	# type, tmp93
	cltq
	movq	PL_ppaddr(,%rax,8), %rdx	# PL_ppaddr, D.21797
	movq	-8(%rbp), %rax	# binop, tmp94
	movq	%rdx, 16(%rax)	# D.21797, binop_4->op_ppaddr
	.loc 1 2367 0
	movq	-8(%rbp), %rax	# binop, tmp95
	movq	-32(%rbp), %rdx	# first, tmp96
	movq	%rdx, 40(%rax)	# tmp96, binop_4->op_first
	.loc 1 2368 0
	movl	-24(%rbp), %eax	# flags, tmp97
	orl	$4, %eax	#, D.21798
	movl	%eax, %edx	# D.21798, D.21799
	movq	-8(%rbp), %rax	# binop, tmp98
	movb	%dl, 36(%rax)	# D.21799, binop_4->op_flags
	.loc 1 2369 0
	cmpq	$0, -40(%rbp)	#, last
	jne	.L679	#,
	.loc 1 2370 0
	movq	-32(%rbp), %rax	# first, tmp99
	movq	%rax, -40(%rbp)	# tmp99, last
	.loc 1 2371 0
	movl	-24(%rbp), %eax	# flags, tmp100
	sarl	$8, %eax	#, D.21800
	orl	$1, %eax	#, D.21798
	movl	%eax, %edx	# D.21798, D.21799
	movq	-8(%rbp), %rax	# binop, tmp101
	movb	%dl, 37(%rax)	# D.21799, binop_4->op_private
	jmp	.L680	#
.L679:
	.loc 1 2374 0
	movl	-24(%rbp), %eax	# flags, tmp102
	sarl	$8, %eax	#, D.21800
	orl	$2, %eax	#, D.21798
	movl	%eax, %edx	# D.21798, D.21799
	movq	-8(%rbp), %rax	# binop, tmp103
	movb	%dl, 37(%rax)	# D.21799, binop_4->op_private
	.loc 1 2375 0
	movq	-32(%rbp), %rax	# first, tmp104
	movq	-40(%rbp), %rdx	# last, tmp105
	movq	%rdx, 8(%rax)	# tmp105, first_1->op_sibling
.L680:
	.loc 1 2378 0
	movq	PL_op_mask(%rip), %rax	# PL_op_mask, PL_op_mask.269
	testq	%rax, %rax	# PL_op_mask.269
	je	.L681	#,
	.loc 1 2378 0 is_stmt 0 discriminator 1
	movq	PL_op_mask(%rip), %rdx	# PL_op_mask, PL_op_mask.270
	movl	-20(%rbp), %eax	# type, tmp106
	cltq
	addq	%rdx, %rax	# PL_op_mask.270, D.21802
	movzbl	(%rax), %eax	# *_27, D.21803
	testb	%al, %al	# D.21803
	je	.L681	#,
	movq	-8(%rbp), %rax	# binop, tmp107
	movq	%rax, %rdi	# tmp107,
	call	Perl_op_free	#
	movl	-20(%rbp), %eax	# type, tmp109
	cltq
	movq	PL_op_desc(,%rax,8), %rax	# PL_op_desc, D.21802
	movq	%rax, %rsi	# D.21802,
	movl	$.LC44, %edi	#,
	movl	$0, %eax	#,
	call	Perl_croak	#
	movl	$0, %eax	#, iftmp.268
	jmp	.L682	#
.L681:
	.loc 1 2378 0 discriminator 2
	movl	-20(%rbp), %eax	# type, tmp111
	cltq
	movq	PL_check(,%rax,8), %rax	# PL_check, D.21804
	movq	-8(%rbp), %rdx	# binop, tmp112
	movq	%rdx, %rdi	# tmp112,
	call	*%rax	# D.21804
.L682:
	.loc 1 2378 0 discriminator 3
	movq	%rax, -8(%rbp)	# iftmp.268, binop
	.loc 1 2379 0 is_stmt 1 discriminator 3
	movq	-8(%rbp), %rax	# binop, tmp113
	movq	(%rax), %rax	# binop_33->op_next, D.21795
	testq	%rax, %rax	# D.21795
	jne	.L683	#,
	.loc 1 2379 0 is_stmt 0 discriminator 1
	movq	-8(%rbp), %rax	# binop, tmp114
	movzwl	32(%rax), %edx	# binop_33->op_type, D.21796
	movl	-20(%rbp), %eax	# type, tmp115
	cmpw	%ax, %dx	# D.21796, D.21796
	je	.L684	#,
.L683:
	.loc 1 2380 0 is_stmt 1
	movq	-8(%rbp), %rax	# binop, D.21795
	jmp	.L685	#
.L684:
	.loc 1 2382 0
	movq	-8(%rbp), %rax	# binop, tmp116
	movq	40(%rax), %rax	# binop_33->op_first, D.21795
	movq	8(%rax), %rdx	# _37->op_sibling, D.21795
	movq	-8(%rbp), %rax	# binop, tmp117
	movq	%rdx, 48(%rax)	# D.21795, binop_33->op_last
	.loc 1 2384 0
	movq	-8(%rbp), %rax	# binop, tmp118
	movq	%rax, %rdi	# tmp118,
	call	Perl_fold_constants	#
.L685:
	.loc 1 2385 0
	leave
	.cfi_def_cfa 7, 8
	ret
	.cfi_endproc
.LFE58:
	.size	Perl_newBINOP, .-Perl_newBINOP
	.type	uvcompare, @function
uvcompare:
.LFB59:
	.loc 1 2389 0
	.cfi_startproc
	pushq	%rbp	#
	.cfi_def_cfa_offset 16
	.cfi_offset 6, -16
	movq	%rsp, %rbp	#,
	.cfi_def_cfa_register 6
	movq	%rdi, -8(%rbp)	# a, a
	movq	%rsi, -16(%rbp)	# b, b
	.loc 1 2390 0
	movq	-8(%rbp), %rax	# a, tmp73
	movq	(%rax), %rdx	# MEM[(UV *)a_2(D)], D.21806
	movq	-16(%rbp), %rax	# b, tmp74
	movq	(%rax), %rax	# MEM[(UV *)b_4(D)], D.21806
	cmpq	%rax, %rdx	# D.21806, D.21806
	jae	.L687	#,
	.loc 1 2391 0
	movl	$-1, %eax	#, D.21805
	jmp	.L688	#
.L687:
	.loc 1 2392 0
	movq	-8(%rbp), %rax	# a, tmp75
	movq	(%rax), %rdx	# MEM[(UV *)a_2(D)], D.21806
	movq	-16(%rbp), %rax	# b, tmp76
	movq	(%rax), %rax	# MEM[(UV *)b_4(D)], D.21806
	cmpq	%rax, %rdx	# D.21806, D.21806
	jbe	.L689	#,
	.loc 1 2393 0
	movl	$1, %eax	#, D.21805
	jmp	.L688	#
.L689:
	.loc 1 2394 0
	movq	-8(%rbp), %rax	# a, tmp77
	addq	$8, %rax	#, D.21807
	movq	(%rax), %rdx	# *_10, D.21806
	movq	-16(%rbp), %rax	# b, tmp78
	movq	(%rax), %rax	# MEM[(UV *)b_4(D)], D.21806
	addq	$1, %rax	#, D.21806
	cmpq	%rax, %rdx	# D.21806, D.21806
	jae	.L690	#,
	.loc 1 2395 0
	movl	$-1, %eax	#, D.21805
	jmp	.L688	#
.L690:
	.loc 1 2396 0
	movq	-8(%rbp), %rax	# a, tmp79
	addq	$8, %rax	#, D.21807
	movq	(%rax), %rdx	# *_15, D.21806
	movq	-16(%rbp), %rax	# b, tmp80
	movq	(%rax), %rax	# MEM[(UV *)b_4(D)], D.21806
	addq	$1, %rax	#, D.21806
	cmpq	%rax, %rdx	# D.21806, D.21806
	jbe	.L691	#,
	.loc 1 2397 0
	movl	$1, %eax	#, D.21805
	jmp	.L688	#
.L691:
	.loc 1 2398 0
	movl	$0, %eax	#, D.21805
.L688:
	.loc 1 2399 0
	popq	%rbp	#
	.cfi_def_cfa 7, 8
	ret
	.cfi_endproc
.LFE59:
	.size	uvcompare, .-uvcompare
	.section	.rodata
.LC45:
	.string	"# comment\n"
.LC46:
	.string	""
.LC47:
	.string	"%04lx\t%04lx\tXXXX\n"
.LC48:
	.string	"%04lx\t\tXXXX\n"
.LC49:
	.string	"%04lx\t%04lx\t%04lx\n"
.LC50:
	.string	"%04lx\t\t%04lx\n"
.LC51:
	.string	"utf8"
.LC52:
	.string	"FINAL"
	.text
	.globl	Perl_pmtrans
	.type	Perl_pmtrans, @function
Perl_pmtrans:
.LFB60:
	.loc 1 2403 0
	.cfi_startproc
	pushq	%rbp	#
	.cfi_def_cfa_offset 16
	.cfi_offset 6, -16
	movq	%rsp, %rbp	#,
	.cfi_def_cfa_register 6
	pushq	%r13	#
	pushq	%r12	#
	pushq	%rbx	#
	subq	$312, %rsp	#,
	.cfi_offset 13, -24
	.cfi_offset 12, -32
	.cfi_offset 3, -40
	movq	%rdi, -312(%rbp)	# o, o
	movq	%rsi, -320(%rbp)	# expr, expr
	movq	%rdx, -328(%rbp)	# repl, repl
	.loc 1 2403 0
	movq	%fs:40, %rax	#, tmp618
	movq	%rax, -40(%rbp)	# tmp618, D.21826
	xorl	%eax, %eax	# tmp618
	.loc 1 2404 0
	movq	-320(%rbp), %rax	# expr, tmp397
	movq	40(%rax), %rax	# MEM[(struct SVOP *)expr_87(D)].op_sv, tmp398
	movq	%rax, -120(%rbp)	# tmp398, tstr
	.loc 1 2405 0
	movq	-328(%rbp), %rax	# repl, tmp399
	movq	40(%rax), %rax	# MEM[(struct SVOP *)repl_89(D)].op_sv, tmp400
	movq	%rax, -112(%rbp)	# tmp400, rstr
	.loc 1 2408 0
	movq	-120(%rbp), %rax	# tstr, tmp401
	movl	12(%rax), %eax	# tstr_88->sv_flags, D.21809
	andl	$262144, %eax	#, D.21809
	testl	%eax, %eax	# D.21809
	je	.L693	#,
	.loc 1 2408 0 is_stmt 0 discriminator 1
	movq	-120(%rbp), %rax	# tstr, tmp402
	movq	(%rax), %rax	# tstr_88->sv_any, D.21810
	movq	8(%rax), %rax	# MEM[(struct XPV *)_93].xpv_cur, tlen.272
	movq	%rax, -248(%rbp)	# tlen.272, tlen
	movq	-120(%rbp), %rax	# tstr, tmp403
	movq	(%rax), %rax	# tstr_88->sv_any, D.21810
	movq	(%rax), %rax	# MEM[(struct XPV *)_95].xpv_pv, iftmp.271
	jmp	.L694	#
.L693:
	.loc 1 2408 0 discriminator 2
	leaq	-248(%rbp), %rcx	#, tmp404
	movq	-120(%rbp), %rax	# tstr, tmp405
	movl	$2, %edx	#,
	movq	%rcx, %rsi	# tmp404,
	movq	%rax, %rdi	# tmp405,
	call	Perl_sv_2pv_flags	#
.L694:
	.loc 1 2408 0 discriminator 3
	movq	%rax, -224(%rbp)	# iftmp.271, t
	.loc 1 2409 0 is_stmt 1 discriminator 3
	movq	-112(%rbp), %rax	# rstr, tmp406
	movl	12(%rax), %eax	# rstr_90->sv_flags, D.21809
	andl	$262144, %eax	#, D.21809
	testl	%eax, %eax	# D.21809
	je	.L695	#,
	.loc 1 2409 0 is_stmt 0 discriminator 1
	movq	-112(%rbp), %rax	# rstr, tmp407
	movq	(%rax), %rax	# rstr_90->sv_any, D.21810
	movq	8(%rax), %rax	# MEM[(struct XPV *)_101].xpv_cur, rlen.274
	movq	%rax, -240(%rbp)	# rlen.274, rlen
	movq	-112(%rbp), %rax	# rstr, tmp408
	movq	(%rax), %rax	# rstr_90->sv_any, D.21810
	movq	(%rax), %rax	# MEM[(struct XPV *)_103].xpv_pv, iftmp.273
	jmp	.L696	#
.L695:
	.loc 1 2409 0 discriminator 2
	leaq	-240(%rbp), %rcx	#, tmp409
	movq	-112(%rbp), %rax	# rstr, tmp410
	movl	$2, %edx	#,
	movq	%rcx, %rsi	# tmp409,
	movq	%rax, %rdi	# tmp410,
	call	Perl_sv_2pv_flags	#
.L696:
	.loc 1 2409 0 discriminator 3
	movq	%rax, -216(%rbp)	# iftmp.273, r
	.loc 1 2415 0 is_stmt 1 discriminator 3
	movl	$0, -288(%rbp)	#, grows
	.loc 1 2418 0 discriminator 3
	movl	PL_hints(%rip), %eax	# PL_hints, PL_hints.275
	orb	$1, %ah	#, PL_hints.276
	movl	%eax, PL_hints(%rip)	# PL_hints.276, PL_hints
	.loc 1 2419 0 discriminator 3
	movq	-312(%rbp), %rax	# o, tmp411
	movzbl	37(%rax), %eax	# o_110(D)->op_private, D.21811
	movzbl	%al, %eax	# D.21811, D.21812
	andl	$32, %eax	#, tmp412
	movl	%eax, -268(%rbp)	# tmp412, complement
	.loc 1 2420 0 discriminator 3
	movq	-312(%rbp), %rax	# o, tmp413
	movzbl	37(%rax), %eax	# o_110(D)->op_private, D.21811
	movzbl	%al, %eax	# D.21811, D.21812
	andl	$16, %eax	#, tmp414
	movl	%eax, -292(%rbp)	# tmp414, del
	.loc 1 2421 0 discriminator 3
	movq	-312(%rbp), %rax	# o, tmp415
	movzbl	37(%rax), %eax	# o_110(D)->op_private, D.21811
	movzbl	%al, %eax	# D.21811, D.21812
	andl	$8, %eax	#, tmp416
	movl	%eax, -264(%rbp)	# tmp416, squash
	.loc 1 2423 0 discriminator 3
	movq	-120(%rbp), %rax	# tstr, tmp417
	movl	12(%rax), %eax	# tstr_88->sv_flags, D.21809
	andl	$536870912, %eax	#, D.21809
	testl	%eax, %eax	# D.21809
	je	.L697	#,
	.loc 1 2424 0
	movq	-312(%rbp), %rax	# o, tmp418
	movzbl	37(%rax), %eax	# o_110(D)->op_private, D.21811
	orl	$1, %eax	#, D.21811
	movl	%eax, %edx	# D.21811, D.21811
	movq	-312(%rbp), %rax	# o, tmp419
	movb	%dl, 37(%rax)	# D.21811, o_110(D)->op_private
.L697:
	.loc 1 2426 0
	movq	-112(%rbp), %rax	# rstr, tmp420
	movl	12(%rax), %eax	# rstr_90->sv_flags, D.21809
	andl	$536870912, %eax	#, D.21809
	testl	%eax, %eax	# D.21809
	je	.L698	#,
	.loc 1 2427 0
	movq	-312(%rbp), %rax	# o, tmp421
	movzbl	37(%rax), %eax	# o_110(D)->op_private, D.21811
	orl	$2, %eax	#, D.21811
	movl	%eax, %edx	# D.21811, D.21811
	movq	-312(%rbp), %rax	# o, tmp422
	movb	%dl, 37(%rax)	# D.21811, o_110(D)->op_private
.L698:
	.loc 1 2429 0
	movq	-312(%rbp), %rax	# o, tmp423
	movzbl	37(%rax), %eax	# o_110(D)->op_private, D.21811
	movzbl	%al, %eax	# D.21811, D.21812
	andl	$3, %eax	#, D.21812
	testl	%eax, %eax	# D.21812
	je	.L699	#,
.LBB27:
	.loc 1 2430 0
	movl	$10, %esi	#,
	movl	$.LC45, %edi	#,
	call	Perl_newSVpvn	#
	movq	%rax, -104(%rbp)	# tmp424, listsv
	.loc 1 2431 0
	movq	$0, -208(%rbp)	#, transv
	.loc 1 2432 0
	movq	-248(%rbp), %rdx	# tlen, tlen.277
	movq	-224(%rbp), %rax	# t, tmp428
	addq	%rdx, %rax	# tlen.277, tmp427
	movq	%rax, -200(%rbp)	# tmp427, tend
	.loc 1 2433 0
	movq	-240(%rbp), %rdx	# rlen, rlen.278
	movq	-216(%rbp), %rax	# r, tmp432
	addq	%rdx, %rax	# rlen.278, tmp431
	movq	%rax, -192(%rbp)	# tmp431, rend
	.loc 1 2435 0
	movq	$1, -184(%rbp)	#, tfirst
	.loc 1 2436 0
	movq	$0, -176(%rbp)	#, tlast
	.loc 1 2438 0
	movq	$1, -168(%rbp)	#, rfirst
	.loc 1 2439 0
	movq	$0, -160(%rbp)	#, rlast
	.loc 1 2442 0
	movl	$0, -260(%rbp)	#, none
	.loc 1 2443 0
	movl	$0, -284(%rbp)	#, max
	.loc 1 2445 0
	movl	$0, -276(%rbp)	#, havefinal
	.loc 1 2446 0
	movl	$0, -272(%rbp)	#, final
	.loc 1 2447 0
	movq	-312(%rbp), %rax	# o, tmp433
	movzbl	37(%rax), %eax	# o_110(D)->op_private, D.21811
	movzbl	%al, %eax	# D.21811, D.21812
	andl	$1, %eax	#, tmp434
	movl	%eax, -256(%rbp)	# tmp434, from_utf
	.loc 1 2448 0
	movq	-312(%rbp), %rax	# o, tmp435
	movzbl	37(%rax), %eax	# o_110(D)->op_private, D.21811
	movzbl	%al, %eax	# D.21811, D.21812
	andl	$2, %eax	#, tmp436
	movl	%eax, -252(%rbp)	# tmp436, to_utf
	.loc 1 2449 0
	movq	$0, -144(%rbp)	#, tsave
	.loc 1 2450 0
	movq	$0, -136(%rbp)	#, rsave
	.loc 1 2452 0
	cmpl	$0, -256(%rbp)	#, from_utf
	jne	.L700	#,
.LBB28:
	.loc 1 2453 0
	movq	-248(%rbp), %rax	# tlen, tlen.279
	movq	%rax, -232(%rbp)	# tlen.279, len
	.loc 1 2454 0
	leaq	-232(%rbp), %rdx	#, tmp437
	movq	-224(%rbp), %rax	# t, tmp438
	movq	%rdx, %rsi	# tmp437,
	movq	%rax, %rdi	# tmp438,
	call	Perl_bytes_to_utf8	#
	movq	%rax, -224(%rbp)	# tmp439, t
	movq	-224(%rbp), %rax	# t, tmp440
	movq	%rax, -144(%rbp)	# tmp440, tsave
	.loc 1 2455 0
	movq	-232(%rbp), %rdx	# len, len.280
	movq	-224(%rbp), %rax	# t, tmp444
	addq	%rdx, %rax	# len.280, tmp443
	movq	%rax, -200(%rbp)	# tmp443, tend
.L700:
.LBE28:
	.loc 1 2457 0
	cmpl	$0, -252(%rbp)	#, to_utf
	jne	.L701	#,
	.loc 1 2457 0 is_stmt 0 discriminator 1
	movq	-240(%rbp), %rax	# rlen, rlen.281
	testq	%rax, %rax	# rlen.281
	je	.L701	#,
.LBB29:
	.loc 1 2458 0 is_stmt 1
	movq	-240(%rbp), %rax	# rlen, rlen.282
	movq	%rax, -232(%rbp)	# rlen.282, len
	.loc 1 2459 0
	leaq	-232(%rbp), %rdx	#, tmp445
	movq	-216(%rbp), %rax	# r, tmp446
	movq	%rdx, %rsi	# tmp445,
	movq	%rax, %rdi	# tmp446,
	call	Perl_bytes_to_utf8	#
	movq	%rax, -216(%rbp)	# tmp447, r
	movq	-216(%rbp), %rax	# r, tmp448
	movq	%rax, -136(%rbp)	# tmp448, rsave
	.loc 1 2460 0
	movq	-232(%rbp), %rdx	# len, len.283
	movq	-216(%rbp), %rax	# r, tmp452
	addq	%rdx, %rax	# len.283, tmp451
	movq	%rax, -192(%rbp)	# tmp451, rend
.L701:
.LBE29:
	.loc 1 2469 0
	cmpl	$0, -268(%rbp)	#, complement
	je	.L702	#,
.LBB30:
	.loc 1 2472 0
	movq	$0, -128(%rbp)	#, nextmin
	.loc 1 2473 0
	movq	-248(%rbp), %rax	# tlen, tlen.284
	salq	$4, %rax	#, D.21813
	movq	%rax, %rdi	# D.21813,
	call	Perl_safesysmalloc	#
	movq	%rax, -96(%rbp)	# tmp453, cp
	.loc 1 2474 0
	movl	$0, %ebx	#, i
	.loc 1 2475 0
	movl	$0, %esi	#,
	movl	$.LC46, %edi	#,
	call	Perl_newSVpvn	#
	movq	%rax, -208(%rbp)	# tmp454, transv
	.loc 1 2476 0
	jmp	.L703	#
.L706:
	.loc 1 2477 0
	movslq	%ebx, %rax	# i, D.21813
	salq	$4, %rax	#, D.21813
	movq	%rax, %rdx	# D.21813, D.21813
	movq	-96(%rbp), %rax	# cp, tmp455
	leaq	(%rdx,%rax), %r12	#, D.21814
	movq	-200(%rbp), %rdx	# tend, tend.285
	movq	-224(%rbp), %rax	# t, t.286
	subq	%rax, %rdx	# t.286, D.21815
	movq	%rdx, %rax	# D.21815, D.21815
	movq	%rax, %rsi	# D.21815, D.21813
	leaq	-232(%rbp), %rdx	#, tmp456
	movq	-224(%rbp), %rax	# t, tmp457
	movl	$0, %ecx	#,
	movq	%rax, %rdi	# tmp457,
	call	Perl_utf8n_to_uvuni	#
	movq	%rax, (%r12)	# D.21813, *_172
	.loc 1 2478 0
	movq	-232(%rbp), %rax	# ulen, ulen.287
	addq	%rax, -224(%rbp)	# ulen.287, t
	.loc 1 2479 0
	movq	-224(%rbp), %rax	# t, tmp458
	cmpq	-200(%rbp), %rax	# tend, tmp458
	jae	.L704	#,
	.loc 1 2479 0 is_stmt 0 discriminator 1
	movq	-224(%rbp), %rax	# t, tmp459
	movzbl	(%rax), %eax	# *t_179, D.21811
	cmpb	$-1, %al	#, D.21811
	jne	.L704	#,
	.loc 1 2480 0 is_stmt 1
	addq	$1, -224(%rbp)	#, t
	.loc 1 2481 0
	movslq	%ebx, %rax	# i, D.21816
	salq	$4, %rax	#, D.21816
	leaq	8(%rax), %rdx	#, D.21816
	movq	-96(%rbp), %rax	# cp, tmp460
	leaq	(%rdx,%rax), %r12	#, D.21814
	movq	-200(%rbp), %rdx	# tend, tend.288
	movq	-224(%rbp), %rax	# t, t.289
	subq	%rax, %rdx	# t.289, D.21815
	movq	%rdx, %rax	# D.21815, D.21815
	movq	%rax, %rsi	# D.21815, D.21813
	leaq	-232(%rbp), %rdx	#, tmp461
	movq	-224(%rbp), %rax	# t, tmp462
	movl	$0, %ecx	#,
	movq	%rax, %rdi	# tmp462,
	call	Perl_utf8n_to_uvuni	#
	movq	%rax, (%r12)	# D.21813, *_185
	.loc 1 2482 0
	movq	-232(%rbp), %rax	# ulen, ulen.290
	addq	%rax, -224(%rbp)	# ulen.290, t
	jmp	.L705	#
.L704:
	.loc 1 2485 0
	movslq	%ebx, %rax	# i, D.21816
	salq	$4, %rax	#, D.21816
	leaq	8(%rax), %rdx	#, D.21816
	movq	-96(%rbp), %rax	# cp, tmp463
	addq	%rax, %rdx	# tmp463, D.21814
	movslq	%ebx, %rax	# i, D.21813
	salq	$4, %rax	#, D.21813
	movq	%rax, %rcx	# D.21813, D.21813
	movq	-96(%rbp), %rax	# cp, tmp464
	addq	%rcx, %rax	# D.21813, D.21814
	movq	(%rax), %rax	# *_199, D.21813
	movq	%rax, (%rdx)	# D.21813, *_196
.L705:
	.loc 1 2487 0
	addl	$1, %ebx	#, i
.L703:
	.loc 1 2476 0 discriminator 1
	movq	-224(%rbp), %rax	# t, tmp465
	cmpq	-200(%rbp), %rax	# tend, tmp465
	jb	.L706	#,
	.loc 1 2489 0
	movslq	%ebx, %rsi	# i, D.21813
	movq	-96(%rbp), %rax	# cp, tmp466
	movl	$uvcompare, %ecx	#,
	movl	$16, %edx	#,
	movq	%rax, %rdi	# tmp466,
	call	qsort	#
	.loc 1 2490 0
	movl	$0, %r12d	#, j
	jmp	.L707	#
.L710:
.LBB31:
	.loc 1 2491 0
	movslq	%r12d, %rax	# j, D.21813
	salq	$4, %rax	#, D.21813
	movq	%rax, %rdx	# D.21813, D.21813
	movq	-96(%rbp), %rax	# cp, tmp467
	addq	%rdx, %rax	# D.21813, D.21814
	movq	(%rax), %rax	# *_206, tmp468
	movq	%rax, -88(%rbp)	# tmp468, val
	.loc 1 2492 0
	movq	-128(%rbp), %rax	# nextmin, tmp469
	movq	-88(%rbp), %rdx	# val, tmp470
	subq	%rax, %rdx	# tmp469, D.21813
	movq	%rdx, %rax	# D.21813, D.21813
	movq	%rax, -152(%rbp)	# D.21813, diff
	.loc 1 2493 0
	cmpq	$0, -152(%rbp)	#, diff
	jle	.L708	#,
	.loc 1 2494 0
	movq	-128(%rbp), %rdx	# nextmin, tmp471
	leaq	-64(%rbp), %rax	#, tmp472
	movq	%rdx, %rsi	# tmp471,
	movq	%rax, %rdi	# tmp472,
	call	Perl_uvuni_to_utf8	#
	movq	%rax, -224(%rbp)	# tmp473, t
	.loc 1 2495 0
	movq	-224(%rbp), %rdx	# t, t.291
	leaq	-64(%rbp), %rax	#, tmpbuf.292
	subq	%rax, %rdx	# tmpbuf.292, D.21815
	movq	%rdx, %rax	# D.21815, D.21815
	movq	%rax, %rdx	# D.21815, D.21813
	leaq	-64(%rbp), %rsi	#, tmp474
	movq	-208(%rbp), %rax	# transv, tmp475
	movl	$2, %ecx	#,
	movq	%rax, %rdi	# tmp475,
	call	Perl_sv_catpvn_flags	#
	.loc 1 2496 0
	cmpq	$1, -152(%rbp)	#, diff
	jle	.L708	#,
.LBB32:
	.loc 1 2497 0
	movb	$-1, -293(%rbp)	#, range_mark
	.loc 1 2498 0
	movq	-88(%rbp), %rax	# val, tmp476
	leaq	-1(%rax), %rdx	#, D.21813
	leaq	-64(%rbp), %rax	#, tmp477
	movq	%rdx, %rsi	# D.21813,
	movq	%rax, %rdi	# tmp477,
	call	Perl_uvuni_to_utf8	#
	movq	%rax, -224(%rbp)	# tmp478, t
	.loc 1 2499 0
	leaq	-293(%rbp), %rsi	#, tmp479
	movq	-208(%rbp), %rax	# transv, tmp480
	movl	$2, %ecx	#,
	movl	$1, %edx	#,
	movq	%rax, %rdi	# tmp480,
	call	Perl_sv_catpvn_flags	#
	.loc 1 2500 0
	movq	-224(%rbp), %rdx	# t, t.293
	leaq	-64(%rbp), %rax	#, tmpbuf.294
	subq	%rax, %rdx	# tmpbuf.294, D.21815
	movq	%rdx, %rax	# D.21815, D.21815
	movq	%rax, %rdx	# D.21815, D.21813
	leaq	-64(%rbp), %rsi	#, tmp481
	movq	-208(%rbp), %rax	# transv, tmp482
	movl	$2, %ecx	#,
	movq	%rax, %rdi	# tmp482,
	call	Perl_sv_catpvn_flags	#
.L708:
.LBE32:
	.loc 1 2503 0
	movslq	%r12d, %rax	# j, D.21816
	salq	$4, %rax	#, D.21816
	leaq	8(%rax), %rdx	#, D.21816
	movq	-96(%rbp), %rax	# cp, tmp483
	addq	%rdx, %rax	# D.21816, D.21814
	movq	(%rax), %rax	# *_224, tmp484
	movq	%rax, -88(%rbp)	# tmp484, val
	.loc 1 2504 0
	movq	-88(%rbp), %rax	# val, tmp485
	cmpq	-128(%rbp), %rax	# nextmin, tmp485
	jb	.L709	#,
	.loc 1 2505 0
	movq	-88(%rbp), %rax	# val, tmp489
	addq	$1, %rax	#, tmp488
	movq	%rax, -128(%rbp)	# tmp488, nextmin
.L709:
.LBE31:
	.loc 1 2490 0
	addl	$1, %r12d	#, j
.L707:
	.loc 1 2490 0 is_stmt 0 discriminator 1
	cmpl	%ebx, %r12d	# i, j
	jl	.L710	#,
	.loc 1 2507 0 is_stmt 1
	movq	-128(%rbp), %rdx	# nextmin, tmp490
	leaq	-64(%rbp), %rax	#, tmp491
	movq	%rdx, %rsi	# tmp490,
	movq	%rax, %rdi	# tmp491,
	call	Perl_uvuni_to_utf8	#
	movq	%rax, -224(%rbp)	# tmp492, t
	.loc 1 2508 0
	movq	-224(%rbp), %rdx	# t, t.295
	leaq	-64(%rbp), %rax	#, tmpbuf.296
	subq	%rax, %rdx	# tmpbuf.296, D.21815
	movq	%rdx, %rax	# D.21815, D.21815
	movq	%rax, %rdx	# D.21815, D.21813
	leaq	-64(%rbp), %rsi	#, tmp493
	movq	-208(%rbp), %rax	# transv, tmp494
	movl	$2, %ecx	#,
	movq	%rax, %rdi	# tmp494,
	call	Perl_sv_catpvn_flags	#
.LBB33:
	.loc 1 2510 0
	movb	$-1, -293(%rbp)	#, range_mark
	.loc 1 2511 0
	leaq	-293(%rbp), %rsi	#, tmp495
	movq	-208(%rbp), %rax	# transv, tmp496
	movl	$2, %ecx	#,
	movl	$1, %edx	#,
	movq	%rax, %rdi	# tmp496,
	call	Perl_sv_catpvn_flags	#
.LBE33:
	.loc 1 2513 0
	leaq	-64(%rbp), %rax	#, tmp497
	movl	$8, %edx	#,
	movl	$2147483647, %esi	#,
	movq	%rax, %rdi	# tmp497,
	call	Perl_uvuni_to_utf8_flags	#
	movq	%rax, -224(%rbp)	# tmp498, t
	.loc 1 2515 0
	movq	-224(%rbp), %rdx	# t, t.297
	leaq	-64(%rbp), %rax	#, tmpbuf.298
	subq	%rax, %rdx	# tmpbuf.298, D.21815
	movq	%rdx, %rax	# D.21815, D.21815
	movq	%rax, %rdx	# D.21815, D.21813
	leaq	-64(%rbp), %rsi	#, tmp499
	movq	-208(%rbp), %rax	# transv, tmp500
	movl	$2, %ecx	#,
	movq	%rax, %rdi	# tmp500,
	call	Perl_sv_catpvn_flags	#
	.loc 1 2516 0
	movq	-208(%rbp), %rax	# transv, tmp501
	movq	(%rax), %rax	# transv_169->sv_any, D.21810
	movq	(%rax), %rax	# MEM[(struct XPV *)_238].xpv_pv, tmp502
	movq	%rax, -224(%rbp)	# tmp502, t
	.loc 1 2517 0
	movq	-208(%rbp), %rax	# transv, tmp503
	movq	(%rax), %rax	# transv_169->sv_any, D.21810
	movq	8(%rax), %rax	# MEM[(struct XPV *)_240].xpv_cur, tlen.299
	movq	%rax, -248(%rbp)	# tlen.299, tlen
	.loc 1 2518 0
	movq	-248(%rbp), %rdx	# tlen, tlen.300
	movq	-224(%rbp), %rax	# t, tmp507
	addq	%rdx, %rax	# tlen.300, tmp506
	movq	%rax, -200(%rbp)	# tmp506, tend
	.loc 1 2519 0
	movq	-96(%rbp), %rax	# cp, tmp508
	movq	%rax, %rdi	# tmp508,
	call	Perl_safesysfree	#
.LBE30:
	jmp	.L711	#
.L702:
	.loc 1 2521 0
	movq	-240(%rbp), %rax	# rlen, rlen.301
	testq	%rax, %rax	# rlen.301
	jne	.L711	#,
	.loc 1 2521 0 is_stmt 0 discriminator 1
	cmpl	$0, -292(%rbp)	#, del
	jne	.L711	#,
	.loc 1 2522 0 is_stmt 1
	movq	-224(%rbp), %rax	# t, tmp509
	movq	%rax, -216(%rbp)	# tmp509, r
	movq	-248(%rbp), %rax	# tlen, tlen.302
	movq	%rax, -240(%rbp)	# tlen.302, rlen
	movq	-200(%rbp), %rax	# tend, tmp510
	movq	%rax, -192(%rbp)	# tmp510, rend
.L711:
	.loc 1 2524 0
	cmpl	$0, -264(%rbp)	#, squash
	jne	.L712	#,
	.loc 1 2525 0
	movq	-240(%rbp), %rax	# rlen, rlen.303
	testq	%rax, %rax	# rlen.303
	jne	.L713	#,
	.loc 1 2525 0 is_stmt 0 discriminator 1
	cmpl	$0, -292(%rbp)	#, del
	je	.L714	#,
.L713:
	.loc 1 2525 0 discriminator 2
	movq	-224(%rbp), %rax	# t, tmp511
	cmpq	-216(%rbp), %rax	# r, tmp511
	je	.L714	#,
	.loc 1 2526 0 is_stmt 1 discriminator 1
	movq	-248(%rbp), %rdx	# tlen, tlen.304
	movq	-240(%rbp), %rax	# rlen, rlen.305
	.loc 1 2525 0 discriminator 1
	cmpq	%rax, %rdx	# rlen.305, tlen.304
	jne	.L712	#,
	.loc 1 2526 0
	movq	-248(%rbp), %rdx	# tlen, tlen.306
	movq	-216(%rbp), %rcx	# r, tmp512
	movq	-224(%rbp), %rax	# t, tmp513
	movq	%rcx, %rsi	# tmp512,
	movq	%rax, %rdi	# tmp513,
	call	memcmp	#
	testl	%eax, %eax	# D.21812
	jne	.L712	#,
.L714:
	.loc 1 2528 0
	movq	-312(%rbp), %rax	# o, tmp514
	movzbl	37(%rax), %eax	# o_110(D)->op_private, D.21811
	orl	$4, %eax	#, D.21811
	movl	%eax, %edx	# D.21811, D.21811
	movq	-312(%rbp), %rax	# o, tmp515
	movb	%dl, 37(%rax)	# D.21811, o_110(D)->op_private
	.loc 1 2532 0
	jmp	.L715	#
.L712:
	jmp	.L715	#
.L763:
	.loc 1 2534 0
	movq	-184(%rbp), %rax	# tfirst, tmp516
	cmpq	-176(%rbp), %rax	# tlast, tmp516
	jbe	.L716	#,
	.loc 1 2535 0
	movq	-200(%rbp), %rdx	# tend, tend.307
	movq	-224(%rbp), %rax	# t, t.308
	subq	%rax, %rdx	# t.308, D.21815
	movq	%rdx, %rax	# D.21815, D.21815
	movq	%rax, %rsi	# D.21815, D.21813
	leaq	-232(%rbp), %rdx	#, tmp517
	movq	-224(%rbp), %rax	# t, tmp518
	movl	$0, %ecx	#,
	movq	%rax, %rdi	# tmp518,
	call	Perl_utf8n_to_uvuni	#
	cltq
	movq	%rax, -184(%rbp)	# tmp519, tfirst
	.loc 1 2536 0
	movq	-232(%rbp), %rax	# ulen, ulen.309
	addq	%rax, -224(%rbp)	# ulen.309, t
	.loc 1 2537 0
	movq	-224(%rbp), %rax	# t, tmp520
	cmpq	-200(%rbp), %rax	# tend, tmp520
	jae	.L717	#,
	.loc 1 2537 0 is_stmt 0 discriminator 1
	movq	-224(%rbp), %rax	# t, tmp521
	movzbl	(%rax), %eax	# *t_281, D.21811
	cmpb	$-1, %al	#, D.21811
	jne	.L717	#,
	.loc 1 2538 0 is_stmt 1
	addq	$1, -224(%rbp)	#, t
	.loc 1 2539 0
	movq	-200(%rbp), %rdx	# tend, tend.310
	movq	-224(%rbp), %rax	# t, t.311
	subq	%rax, %rdx	# t.311, D.21815
	movq	%rdx, %rax	# D.21815, D.21815
	movq	%rax, %rsi	# D.21815, D.21813
	leaq	-232(%rbp), %rdx	#, tmp522
	movq	-224(%rbp), %rax	# t, tmp523
	movl	$0, %ecx	#,
	movq	%rax, %rdi	# tmp523,
	call	Perl_utf8n_to_uvuni	#
	cltq
	movq	%rax, -176(%rbp)	# tmp524, tlast
	.loc 1 2540 0
	movq	-232(%rbp), %rax	# ulen, ulen.312
	addq	%rax, -224(%rbp)	# ulen.312, t
	jmp	.L716	#
.L717:
	.loc 1 2543 0
	movq	-184(%rbp), %rax	# tfirst, tmp525
	movq	%rax, -176(%rbp)	# tmp525, tlast
.L716:
	.loc 1 2547 0
	movq	-168(%rbp), %rax	# rfirst, tmp526
	cmpq	-160(%rbp), %rax	# rlast, tmp526
	jbe	.L718	#,
	.loc 1 2548 0
	movq	-216(%rbp), %rax	# r, tmp527
	cmpq	-192(%rbp), %rax	# rend, tmp527
	jae	.L719	#,
	.loc 1 2549 0
	movq	-192(%rbp), %rdx	# rend, rend.313
	movq	-216(%rbp), %rax	# r, r.314
	subq	%rax, %rdx	# r.314, D.21815
	movq	%rdx, %rax	# D.21815, D.21815
	movq	%rax, %rsi	# D.21815, D.21813
	leaq	-232(%rbp), %rdx	#, tmp528
	movq	-216(%rbp), %rax	# r, tmp529
	movl	$0, %ecx	#,
	movq	%rax, %rdi	# tmp529,
	call	Perl_utf8n_to_uvuni	#
	cltq
	movq	%rax, -168(%rbp)	# tmp530, rfirst
	.loc 1 2550 0
	movq	-232(%rbp), %rax	# ulen, ulen.315
	addq	%rax, -216(%rbp)	# ulen.315, r
	.loc 1 2551 0
