	.file	"Peek.c"
# GNU C (Ubuntu/Linaro 4.8.1-10ubuntu9) version 4.8.1 (x86_64-linux-gnu)
#	compiled by GNU C version 4.8.1, GMP version 5.1.2, MPFR version 3.1.1-p2, MPC version 1.0.1
# GGC heuristics: --param ggc-min-expand=100 --param ggc-min-heapsize=131072
# options passed:  -imultiarch x86_64-linux-gnu -D SPEC_CPU -D NDEBUG
# -D PERL_CORE -D SPEC_CPU_LP64 -D SPEC_CPU_LINUX_X64 Peek.c -mtune=generic
# -march=x86-64 -g -fverbose-asm -fno-strict-aliasing -fstack-protector
# -Wformat -Wformat-security
# options enabled:  -faggressive-loop-optimizations
# -fasynchronous-unwind-tables -fauto-inc-dec -fbranch-count-reg -fcommon
# -fdelete-null-pointer-checks -fdwarf2-cfi-asm -fearly-inlining
# -feliminate-unused-debug-types -ffunction-cse -fgcse-lm -fgnu-runtime
# -fident -finline-atomics -fira-hoist-pressure -fira-share-save-slots
# -fira-share-spill-slots -fivopts -fkeep-static-consts
# -fleading-underscore -fmath-errno -fmerge-debug-strings
# -fmove-loop-invariants -fpeephole -fprefetch-loop-arrays
# -freg-struct-return -fsched-critical-path-heuristic
# -fsched-dep-count-heuristic -fsched-group-heuristic -fsched-interblock
# -fsched-last-insn-heuristic -fsched-rank-heuristic -fsched-spec
# -fsched-spec-insn-heuristic -fsched-stalled-insns-dep -fshow-column
# -fsigned-zeros -fsplit-ivs-in-unroller -fstack-protector
# -fstrict-volatile-bitfields -fsync-libcalls -ftrapping-math
# -ftree-coalesce-vars -ftree-cselim -ftree-forwprop -ftree-loop-if-convert
# -ftree-loop-im -ftree-loop-ivcanon -ftree-loop-optimize
# -ftree-parallelize-loops= -ftree-phiprop -ftree-pta -ftree-reassoc
# -ftree-scev-cprop -ftree-slp-vectorize -ftree-vect-loop-version
# -funit-at-a-time -funwind-tables -fverbose-asm -fzero-initialized-in-bss
# -m128bit-long-double -m64 -m80387 -maccumulate-outgoing-args
# -malign-stringops -mfancy-math-387 -mfp-ret-in-387 -mfxsr -mglibc
# -mieee-fp -mlong-double-80 -mmmx -mno-sse4 -mpush-args -mred-zone -msse
# -msse2 -mtls-direct-seg-refs

	.text
.Ltext0:
	.globl	_runops_debug
	.type	_runops_debug, @function
_runops_debug:
.LFB2:
	.file 1 "Peek.c"
	.loc 1 17 0
	.cfi_startproc
	pushq	%rbp	#
	.cfi_def_cfa_offset 16
	.cfi_offset 6, -16
	movq	%rsp, %rbp	#,
	.cfi_def_cfa_register 6
	movl	%edi, -20(%rbp)	# flag, flag
	.loc 1 19 0
	movq	PL_runops(%rip), %rax	# PL_runops, PL_runops.0
	cmpq	$Perl_runops_debug, %rax	#, PL_runops.0
	sete	%al	#, D.11631
	movb	%al, -1(%rbp)	# D.11631, d
	.loc 1 21 0
	cmpl	$0, -20(%rbp)	#, flag
	js	.L2	#,
	.loc 1 23 0
	cmpl	$0, -20(%rbp)	#, flag
	je	.L3	#,
	.loc 1 23 0 is_stmt 0 discriminator 1
	movl	$Perl_runops_debug, %eax	#, iftmp.1
	jmp	.L4	#
.L3:
	.loc 1 23 0 discriminator 2
	movl	$Perl_runops_standard, %eax	#, iftmp.1
.L4:
	.loc 1 23 0 discriminator 3
	movq	%rax, PL_runops(%rip)	# iftmp.1, PL_runops
.L2:
	.loc 1 24 0 is_stmt 1
	movzbl	-1(%rbp), %eax	# d, D.11632
	.loc 1 25 0
	popq	%rbp	#
	.cfi_def_cfa 7, 8
	ret
	.cfi_endproc
.LFE2:
	.size	_runops_debug, .-_runops_debug
	.section	.rodata
.LC0:
	.string	"GVGV::GV"
.LC1:
	.string	"  busy\n"
.LC2:
	.string	"    closure-template\n"
.LC3:
	.string	"     ref in args!\n"
	.align 8
.LC4:
	.string	"    level %i: refs: %i, strings: %i in %i,\targsarray: %i, argsstrings: %i\n"
	.align 8
.LC5:
	.string	"  total: refs: %i, strings: %i in %i,\targsarrays: %i, argsstrings: %i\n"
	.align 8
.LC6:
	.string	"total: refs: %i, strings: %i in %i\targsarray: %i, argsstrings: %i\n"
	.text
	.globl	DeadCode
	.type	DeadCode, @function
DeadCode:
.LFB3:
	.loc 1 29 0
	.cfi_startproc
	pushq	%rbp	#
	.cfi_def_cfa_offset 16
	.cfi_offset 6, -16
	movq	%rsp, %rbp	#,
	.cfi_def_cfa_register 6
	pushq	%r12	#
	pushq	%rbx	#
	subq	$160, %rsp	#,
	.cfi_offset 12, -24
	.cfi_offset 3, -32
	.loc 1 35 0
	call	Perl_newAV	#
	movq	%rax, %rdi	# D.11633,
	call	Perl_newRV_noinc	#
	movq	%rax, -72(%rbp)	# tmp223, ret
	.loc 1 37 0
	movl	$0, -160(%rbp)	#, tm
	movl	$0, -156(%rbp)	#, tref
	movl	$0, -152(%rbp)	#, ts
	movl	$0, -148(%rbp)	#, ta
	movl	$0, -144(%rbp)	#, tas
	.loc 1 39 0
	movq	PL_sv_arenaroot(%rip), %rax	# PL_sv_arenaroot, tmp224
	movq	%rax, -88(%rbp)	# tmp224, sva
	jmp	.L7	#
.L39:
	.loc 1 40 0
	movq	-88(%rbp), %rax	# sva, tmp225
	movl	8(%rax), %eax	# sva_1->sv_refcnt, D.11634
	movl	%eax, %eax	# D.11634, D.11635
	salq	$4, %rax	#, D.11635
	movq	%rax, %rdx	# D.11635, D.11635
	movq	-88(%rbp), %rax	# sva, tmp226
	leaq	(%rdx,%rax), %r12	#, svend
	.loc 1 41 0
	movq	-88(%rbp), %rax	# sva, tmp230
	addq	$16, %rax	#, tmp229
	movq	%rax, -80(%rbp)	# tmp229, sv
	jmp	.L8	#
.L38:
	.loc 1 42 0
	movq	-80(%rbp), %rax	# sv, tmp231
	movl	12(%rax), %eax	# sv_2->sv_flags, D.11634
	movzbl	%al, %eax	# D.11634, D.11634
	cmpl	$12, %eax	#, D.11634
	jne	.L9	#,
.LBB2:
	.loc 1 43 0
	movq	-80(%rbp), %rax	# sv, tmp232
	movq	%rax, -64(%rbp)	# tmp232, cv
	.loc 1 44 0
	movq	-64(%rbp), %rax	# cv, tmp233
	movq	(%rax), %rax	# cv_62->sv_any, D.11636
	movq	120(%rax), %rax	# _63->xcv_padlist, tmp234
	movq	%rax, -56(%rbp)	# tmp234, padlist
	.loc 1 47 0
	movl	$0, -140(%rbp)	#, i
	movl	$0, -128(%rbp)	#, totm
	movl	$0, -120(%rbp)	#, totref
	.loc 1 48 0
	movl	$0, -112(%rbp)	#, tots
	movl	$0, -108(%rbp)	#, tota
	movl	$0, -100(%rbp)	#, totas
	.loc 1 49 0
	movl	$0, -96(%rbp)	#, dumpit
	.loc 1 51 0
	movq	-80(%rbp), %rax	# sv, tmp235
	movq	(%rax), %rax	# sv_2->sv_any, D.11637
	movq	80(%rax), %rax	# MEM[(struct XPVCV *)_72].xcv_xsub, D.11638
	testq	%rax, %rax	# D.11638
	je	.L10	#,
	.loc 1 52 0
	jmp	.L9	#
.L10:
	.loc 1 54 0
	movq	-80(%rbp), %rax	# sv, tmp236
	movq	(%rax), %rax	# sv_2->sv_any, D.11637
	movq	96(%rax), %rax	# MEM[(struct XPVCV *)_74].xcv_gv, D.11639
	testq	%rax, %rax	# D.11639
	jne	.L11	#,
	.loc 1 55 0
	jmp	.L9	#
.L11:
	.loc 1 57 0
	movq	-64(%rbp), %rax	# cv, tmp237
	movq	(%rax), %rax	# cv_62->sv_any, D.11636
	movq	72(%rax), %rax	# _76->xcv_root, D.11640
	testq	%rax, %rax	# D.11640
	jne	.L12	#,
	.loc 1 59 0
	jmp	.L9	#
.L12:
	.loc 1 61 0
	movq	-80(%rbp), %rax	# sv, tmp238
	movq	(%rax), %rax	# sv_2->sv_any, D.11637
	movq	96(%rax), %rbx	# MEM[(struct XPVCV *)_78].xcv_gv, D.11639
	call	Perl_PerlIO_stderr	#
	movq	%rbx, %rcx	# D.11639,
	movl	$.LC0, %edx	#,
	movq	%rax, %rsi	# D.11641,
	movl	$0, %edi	#,
	call	Perl_do_gvgv_dump	#
	.loc 1 62 0
	movq	-64(%rbp), %rax	# cv, tmp239
	movq	(%rax), %rax	# cv_62->sv_any, D.11636
	movq	112(%rax), %rax	# _81->xcv_depth, D.11642
	testq	%rax, %rax	# D.11642
	je	.L13	#,
	.loc 1 63 0
	call	Perl_PerlIO_stderr	#
	movl	$.LC1, %esi	#,
	movq	%rax, %rdi	# D.11641,
	movl	$0, %eax	#,
	call	PerlIO_printf	#
	.loc 1 64 0
	jmp	.L9	#
.L13:
	.loc 1 66 0
	movq	-56(%rbp), %rax	# padlist, tmp240
	movq	(%rax), %rax	# padlist_64->sv_any, D.11643
	movq	(%rax), %rax	# _84->xav_array, tmp241
	movq	%rax, -48(%rbp)	# tmp241, svp
	.loc 1 67 0
	jmp	.L14	#
.L34:
.LBB3:
	.loc 1 70 0
	movl	-140(%rbp), %eax	# i, tmp242
	cltq
	leaq	0(,%rax,8), %rdx	#, D.11635
	movq	-48(%rbp), %rax	# svp, tmp243
	addq	%rdx, %rax	# D.11635, D.11645
	movq	(%rax), %rax	# *_96, D.11646
	movq	(%rax), %rax	# MEM[(struct AV *)_97].sv_any, D.11643
	movq	(%rax), %rax	# _98->xav_array, tmp244
	movq	%rax, -40(%rbp)	# tmp244, pad
	.loc 1 71 0
	movq	-40(%rbp), %rax	# pad, tmp245
	movq	(%rax), %rax	# *pad_99, tmp246
	movq	%rax, -32(%rbp)	# tmp246, argav
	.loc 1 72 0
	cmpq	$0, -32(%rbp)	#, argav
	je	.L15	#,
	.loc 1 72 0 is_stmt 0 discriminator 1
	cmpq	$PL_sv_undef, -32(%rbp)	#, argav
	jne	.L16	#,
.L15:
	.loc 1 73 0 is_stmt 1
	call	Perl_PerlIO_stderr	#
	movl	$.LC2, %esi	#,
	movq	%rax, %rdi	# D.11641,
	movl	$0, %eax	#,
	call	PerlIO_printf	#
	.loc 1 74 0
	jmp	.L14	#
.L16:
	.loc 1 76 0
	movq	-32(%rbp), %rax	# argav, tmp247
	movq	(%rax), %rax	# argav_100->sv_any, D.11643
	movq	(%rax), %rax	# _101->xav_array, tmp248
	movq	%rax, -24(%rbp)	# tmp248, args
	.loc 1 77 0
	movl	$0, -104(%rbp)	#, levelas
	movl	-104(%rbp), %eax	# levelas, tmp249
	movl	%eax, -124(%rbp)	# tmp249, levelref
	movl	-124(%rbp), %eax	# levelref, tmp250
	movl	%eax, -116(%rbp)	# tmp250, levels
	movl	-116(%rbp), %eax	# levels, tmp251
	movl	%eax, -132(%rbp)	# tmp251, levelm
	.loc 1 78 0
	movq	-32(%rbp), %rax	# argav, tmp252
	movq	(%rax), %rax	# argav_100->sv_any, D.11643
	movq	16(%rax), %rax	# _107->xav_max, D.11642
	addq	$1, %rax	#, D.11642
	sall	$3, %eax	#, D.11647
	movl	%eax, -92(%rbp)	# D.11647, levela
	.loc 1 79 0
	movq	-32(%rbp), %rax	# argav, tmp253
	movq	(%rax), %rax	# argav_100->sv_any, D.11643
	movzbl	72(%rax), %eax	# _113->xav_flags, D.11648
	movzbl	%al, %eax	# D.11648, D.11644
	andl	$1, %eax	#, D.11644
	testl	%eax, %eax	# D.11644
	je	.L17	#,
	.loc 1 80 0
	movl	$0, -136(%rbp)	#, j
	jmp	.L18	#
.L23:
	.loc 1 81 0
	movl	-136(%rbp), %eax	# j, tmp254
	cltq
	leaq	0(,%rax,8), %rdx	#, D.11635
	movq	-24(%rbp), %rax	# args, tmp255
	addq	%rdx, %rax	# D.11635, D.11645
	movq	(%rax), %rax	# *_127, D.11646
	movl	12(%rax), %eax	# _128->sv_flags, D.11634
	andl	$524288, %eax	#, D.11634
	testl	%eax, %eax	# D.11634
	je	.L19	#,
	.loc 1 82 0
	call	Perl_PerlIO_stderr	#
	movl	$.LC3, %esi	#,
	movq	%rax, %rdi	# D.11641,
	movl	$0, %eax	#,
	call	PerlIO_printf	#
	.loc 1 83 0
	addl	$1, -124(%rbp)	#, levelref
	jmp	.L20	#
.L19:
	.loc 1 86 0
	movl	-136(%rbp), %eax	# j, tmp256
	cltq
	leaq	0(,%rax,8), %rdx	#, D.11635
	movq	-24(%rbp), %rax	# args, tmp257
	addq	%rdx, %rax	# D.11635, D.11645
	movq	(%rax), %rax	# *_135, D.11646
	movl	12(%rax), %eax	# _136->sv_flags, D.11634
	movzbl	%al, %eax	# D.11634, D.11634
	cmpl	$3, %eax	#, D.11634
	jbe	.L20	#,
	.loc 1 86 0 is_stmt 0 discriminator 1
	movl	-136(%rbp), %eax	# j, tmp258
	cltq
	leaq	0(,%rax,8), %rdx	#, D.11635
	movq	-24(%rbp), %rax	# args, tmp259
	addq	%rdx, %rax	# D.11635, D.11645
	movq	(%rax), %rax	# *_141, D.11646
	movq	(%rax), %rax	# _142->sv_any, D.11637
	movq	16(%rax), %rax	# MEM[(struct XPV *)_143].xpv_len, D.11635
	testq	%rax, %rax	# D.11635
	je	.L20	#,
	.loc 1 87 0 is_stmt 1
	movl	-136(%rbp), %eax	# j, tmp260
	cltq
	leaq	0(,%rax,8), %rdx	#, D.11635
	movq	-24(%rbp), %rax	# args, tmp261
	addq	%rdx, %rax	# D.11635, D.11645
	movq	(%rax), %rax	# *_147, D.11646
	movq	(%rax), %rax	# _148->sv_any, D.11637
	movq	16(%rax), %rax	# MEM[(struct XPV *)_149].xpv_len, D.11635
	movl	-136(%rbp), %edx	# j, tmp262
	movslq	%edx, %rdx	# tmp262, D.11635
	leaq	0(,%rdx,8), %rcx	#, D.11635
	movq	-24(%rbp), %rdx	# args, tmp263
	addq	%rcx, %rdx	# D.11635, D.11645
	movq	(%rdx), %rdx	# *_153, D.11646
	movl	8(%rdx), %edx	# _154->sv_refcnt, D.11634
	movl	%edx, %ebx	# D.11634, D.11635
	movl	$0, %edx	#, tmp265
	divq	%rbx	# D.11635
	movl	%eax, %edx	# D.11635, D.11647
	movl	-104(%rbp), %eax	# levelas, levelas.2
	addl	%edx, %eax	# D.11647, D.11647
	movl	%eax, -104(%rbp)	# D.11647, levelas
.L20:
	.loc 1 80 0
	addl	$1, -136(%rbp)	#, j
.L18:
	.loc 1 80 0 is_stmt 0 discriminator 1
	movl	-136(%rbp), %eax	# j, tmp266
	movslq	%eax, %rbx	# tmp266, D.11642
	movq	-32(%rbp), %rax	# argav, tmp267
	movl	12(%rax), %eax	# MEM[(struct SV *)argav_100].sv_flags, D.11634
	andl	$32768, %eax	#, D.11634
	testl	%eax, %eax	# D.11634
	je	.L21	#,
	movq	-32(%rbp), %rax	# argav, tmp268
	movq	%rax, %rdi	# tmp268,
	call	Perl_mg_size	#
	cltq
	jmp	.L22	#
.L21:
	.loc 1 80 0 discriminator 2
	movq	-32(%rbp), %rax	# argav, tmp269
	movq	(%rax), %rax	# argav_100->sv_any, D.11643
	movq	8(%rax), %rax	# _123->xav_fill, iftmp.3
.L22:
	.loc 1 80 0 discriminator 3
	cmpq	%rax, %rbx	# iftmp.3, D.11642
	jl	.L23	#,
.L17:
	.loc 1 91 0 is_stmt 1
	movl	$1, -136(%rbp)	#, j
	jmp	.L24	#
.L31:
	.loc 1 92 0
	movl	-136(%rbp), %eax	# j, tmp270
	cltq
	leaq	0(,%rax,8), %rdx	#, D.11635
	movq	-40(%rbp), %rax	# pad, tmp271
	addq	%rdx, %rax	# D.11635, D.11645
	movq	(%rax), %rax	# *_179, D.11646
	movl	12(%rax), %eax	# _180->sv_flags, D.11634
	andl	$524288, %eax	#, D.11634
	testl	%eax, %eax	# D.11634
	je	.L25	#,
	.loc 1 93 0
	addl	$1, -124(%rbp)	#, levelref
	.loc 1 94 0
	movl	-136(%rbp), %eax	# j, tmp272
	cltq
	leaq	0(,%rax,8), %rdx	#, D.11635
	movq	-40(%rbp), %rax	# pad, tmp273
	addq	%rdx, %rax	# D.11635, D.11645
	movq	(%rax), %rbx	# *_186, D.11646
	call	Perl_PerlIO_stderr	#
	movq	$0, (%rsp)	#,
	movl	$0, %r9d	#,
	movl	$4, %r8d	#,
	movl	$0, %ecx	#,
	movq	%rbx, %rdx	# D.11646,
	movq	%rax, %rsi	# D.11641,
	movl	$0, %edi	#,
	call	Perl_do_sv_dump	#
	.loc 1 95 0
	movl	$1, -96(%rbp)	#, dumpit
	jmp	.L26	#
.L25:
	.loc 1 98 0
	movl	-136(%rbp), %eax	# j, tmp274
	cltq
	leaq	0(,%rax,8), %rdx	#, D.11635
	movq	-40(%rbp), %rax	# pad, tmp275
	addq	%rdx, %rax	# D.11635, D.11645
	movq	(%rax), %rax	# *_192, D.11646
	movl	12(%rax), %eax	# _193->sv_flags, D.11634
	movzbl	%al, %eax	# D.11634, D.11634
	cmpl	$9, %eax	#, D.11634
	jbe	.L27	#,
	.loc 1 99 0
	movl	-136(%rbp), %eax	# j, tmp276
	cltq
	leaq	0(,%rax,8), %rdx	#, D.11635
	movq	-40(%rbp), %rax	# pad, tmp277
	addq	%rdx, %rax	# D.11635, D.11645
	movq	(%rax), %rax	# *_198, D.11646
	movl	12(%rax), %eax	# _199->sv_flags, D.11634
	andl	$1024, %eax	#, D.11634
	testl	%eax, %eax	# D.11634
	jne	.L26	#,
	.loc 1 100 0
	addl	$1, -124(%rbp)	#, levelref
	.loc 1 101 0
	movl	-136(%rbp), %eax	# j, tmp278
	cltq
	leaq	0(,%rax,8), %rdx	#, D.11635
	movq	-40(%rbp), %rax	# pad, tmp279
	addq	%rdx, %rax	# D.11635, D.11645
	movq	(%rax), %rbx	# *_205, D.11646
	call	Perl_PerlIO_stderr	#
	movq	$0, (%rsp)	#,
	movl	$0, %r9d	#,
	movl	$4, %r8d	#,
	movl	$0, %ecx	#,
	movq	%rbx, %rdx	# D.11646,
	movq	%rax, %rsi	# D.11641,
	movl	$0, %edi	#,
	call	Perl_do_sv_dump	#
	.loc 1 102 0
	movl	$1, -96(%rbp)	#, dumpit
	jmp	.L26	#
.L27:
	.loc 1 105 0
	movl	-136(%rbp), %eax	# j, tmp280
	cltq
	leaq	0(,%rax,8), %rdx	#, D.11635
	movq	-40(%rbp), %rax	# pad, tmp281
	addq	%rdx, %rax	# D.11635, D.11645
	movq	(%rax), %rax	# *_211, D.11646
	movl	12(%rax), %eax	# _212->sv_flags, D.11634
	movzbl	%al, %eax	# D.11634, D.11634
	cmpl	$3, %eax	#, D.11634
	jbe	.L26	#,
	.loc 1 105 0 is_stmt 0 discriminator 1
	movl	-136(%rbp), %eax	# j, tmp282
	cltq
	leaq	0(,%rax,8), %rdx	#, D.11635
	movq	-40(%rbp), %rax	# pad, tmp283
	addq	%rdx, %rax	# D.11635, D.11645
	movq	(%rax), %rax	# *_217, D.11646
	movq	(%rax), %rax	# _218->sv_any, D.11637
	movq	16(%rax), %rax	# MEM[(struct XPV *)_219].xpv_len, D.11635
	testq	%rax, %rax	# D.11635
	je	.L26	#,
	.loc 1 106 0 is_stmt 1
	addl	$1, -116(%rbp)	#, levels
	.loc 1 107 0
	movl	-136(%rbp), %eax	# j, tmp284
	cltq
	leaq	0(,%rax,8), %rdx	#, D.11635
	movq	-40(%rbp), %rax	# pad, tmp285
	addq	%rdx, %rax	# D.11635, D.11645
	movq	(%rax), %rax	# *_224, D.11646
	movq	(%rax), %rax	# _225->sv_any, D.11637
	movq	16(%rax), %rax	# MEM[(struct XPV *)_226].xpv_len, D.11635
	movl	-136(%rbp), %edx	# j, tmp286
	movslq	%edx, %rdx	# tmp286, D.11635
	leaq	0(,%rdx,8), %rcx	#, D.11635
	movq	-40(%rbp), %rdx	# pad, tmp287
	addq	%rcx, %rdx	# D.11635, D.11645
	movq	(%rdx), %rdx	# *_230, D.11646
	movl	8(%rdx), %edx	# _231->sv_refcnt, D.11634
	movl	%edx, %ebx	# D.11634, D.11635
	movl	$0, %edx	#, tmp289
	divq	%rbx	# D.11635
	movl	%eax, %edx	# D.11635, D.11647
	movl	-132(%rbp), %eax	# levelm, levelm.4
	addl	%edx, %eax	# D.11647, D.11647
	movl	%eax, -132(%rbp)	# D.11647, levelm
.L26:
	.loc 1 91 0
	addl	$1, -136(%rbp)	#, j
.L24:
	.loc 1 91 0 is_stmt 0 discriminator 1
	movl	-136(%rbp), %eax	# j, tmp290
	movslq	%eax, %rbx	# tmp290, D.11642
	movq	-48(%rbp), %rax	# svp, tmp291
	addq	$8, %rax	#, D.11645
	movq	(%rax), %rax	# *_165, D.11646
	movl	12(%rax), %eax	# _166->sv_flags, D.11634
	andl	$32768, %eax	#, D.11634
	testl	%eax, %eax	# D.11634
	je	.L29	#,
	movq	-48(%rbp), %rax	# svp, tmp292
	addq	$8, %rax	#, D.11645
	movq	(%rax), %rax	# *_169, D.11646
	movq	%rax, %rdi	# D.11646,
	call	Perl_mg_size	#
	cltq
	jmp	.L30	#
.L29:
	.loc 1 91 0 discriminator 2
	movq	-48(%rbp), %rax	# svp, tmp293
	addq	$8, %rax	#, D.11645
	movq	(%rax), %rax	# *_173, D.11646
	movq	(%rax), %rax	# MEM[(struct AV *)_174].sv_any, D.11643
	movq	8(%rax), %rax	# _175->xav_fill, iftmp.5
.L30:
	.loc 1 91 0 discriminator 3
	cmpq	%rax, %rbx	# iftmp.5, D.11642
	jl	.L31	#,
	.loc 1 111 0 is_stmt 1
	call	Perl_PerlIO_stderr	#
	movl	-116(%rbp), %r8d	# levels, tmp294
	movl	-132(%rbp), %edi	# levelm, tmp295
	movl	-124(%rbp), %ecx	# levelref, tmp296
	movl	-140(%rbp), %edx	# i, tmp297
	movl	-104(%rbp), %esi	# levelas, tmp298
	movl	%esi, 8(%rsp)	# tmp298,
	movl	-92(%rbp), %esi	# levela, tmp299
	movl	%esi, (%rsp)	# tmp299,
	movl	%r8d, %r9d	# tmp294,
	movl	%edi, %r8d	# tmp295,
	movl	$.LC4, %esi	#,
	movq	%rax, %rdi	# D.11641,
	movl	$0, %eax	#,
	call	PerlIO_printf	#
	.loc 1 113 0
	movl	-132(%rbp), %eax	# levelm, tmp300
	addl	%eax, -128(%rbp)	# tmp300, totm
	.loc 1 114 0
	movl	-92(%rbp), %eax	# levela, tmp301
	addl	%eax, -108(%rbp)	# tmp301, tota
	.loc 1 115 0
	movl	-104(%rbp), %eax	# levelas, tmp302
	addl	%eax, -100(%rbp)	# tmp302, totas
	.loc 1 116 0
	movl	-116(%rbp), %eax	# levels, tmp303
	addl	%eax, -112(%rbp)	# tmp303, tots
	.loc 1 117 0
	movl	-124(%rbp), %eax	# levelref, tmp304
	addl	%eax, -120(%rbp)	# tmp304, totref
	.loc 1 118 0
	cmpl	$0, -96(%rbp)	#, dumpit
	je	.L14	#,
	.loc 1 119 0
	call	Perl_PerlIO_stderr	#
	movq	-64(%rbp), %rdx	# cv, tmp305
	movq	$0, (%rsp)	#,
	movl	$0, %r9d	#,
	movl	$2, %r8d	#,
	movl	$0, %ecx	#,
	movq	%rax, %rsi	# D.11641,
	movl	$0, %edi	#,
	call	Perl_do_sv_dump	#
.L14:
.LBE3:
	.loc 1 67 0 discriminator 1
	addl	$1, -140(%rbp)	#, i
	movl	-140(%rbp), %eax	# i, tmp306
	movslq	%eax, %rbx	# tmp306, D.11642
	movq	-56(%rbp), %rax	# padlist, tmp307
	movl	12(%rax), %eax	# MEM[(struct SV *)padlist_64].sv_flags, D.11634
	andl	$32768, %eax	#, D.11634
	testl	%eax, %eax	# D.11634
	je	.L32	#,
	movq	-56(%rbp), %rax	# padlist, tmp308
	movq	%rax, %rdi	# tmp308,
	call	Perl_mg_size	#
	cltq
	jmp	.L33	#
.L32:
	.loc 1 67 0 is_stmt 0 discriminator 2
	movq	-56(%rbp), %rax	# padlist, tmp309
	movq	(%rax), %rax	# padlist_64->sv_any, D.11643
	movq	8(%rax), %rax	# _92->xav_fill, iftmp.6
.L33:
	.loc 1 67 0 discriminator 3
	cmpq	%rax, %rbx	# iftmp.6, D.11642
	jle	.L34	#,
	.loc 1 121 0 is_stmt 1
	movq	-56(%rbp), %rax	# padlist, tmp310
	movl	12(%rax), %eax	# MEM[(struct SV *)padlist_64].sv_flags, D.11634
	andl	$32768, %eax	#, D.11634
	testl	%eax, %eax	# D.11634
	je	.L35	#,
	.loc 1 121 0 is_stmt 0 discriminator 1
	movq	-56(%rbp), %rax	# padlist, tmp311
	movq	%rax, %rdi	# tmp311,
	call	Perl_mg_size	#
	cmpl	$1, %eax	#, D.11644
	setg	%al	#, iftmp.7
	jmp	.L36	#
.L35:
	.loc 1 121 0 discriminator 2
	movq	-56(%rbp), %rax	# padlist, tmp312
	movq	(%rax), %rax	# padlist_64->sv_any, D.11643
	movq	8(%rax), %rax	# _252->xav_fill, D.11642
	cmpq	$1, %rax	#, D.11642
	setg	%al	#, iftmp.7
.L36:
	.loc 1 121 0 discriminator 3
	testb	%al, %al	# iftmp.7
	je	.L37	#,
	.loc 1 122 0 is_stmt 1
	call	Perl_PerlIO_stderr	#
	movl	-108(%rbp), %r8d	# tota, tmp313
	movl	-112(%rbp), %edi	# tots, tmp314
	movl	-128(%rbp), %ecx	# totm, tmp315
	movl	-120(%rbp), %edx	# totref, tmp316
	movl	-100(%rbp), %esi	# totas, tmp317
	movl	%esi, (%rsp)	# tmp317,
	movl	%r8d, %r9d	# tmp313,
	movl	%edi, %r8d	# tmp314,
	movl	$.LC5, %esi	#,
	movq	%rax, %rdi	# D.11641,
	movl	$0, %eax	#,
	call	PerlIO_printf	#
.L37:
	.loc 1 125 0
	movl	-120(%rbp), %eax	# totref, tmp318
	addl	%eax, -156(%rbp)	# tmp318, tref
	.loc 1 126 0
	movl	-128(%rbp), %eax	# totm, tmp319
	addl	%eax, -160(%rbp)	# tmp319, tm
	.loc 1 127 0
	movl	-112(%rbp), %eax	# tots, tmp320
	addl	%eax, -152(%rbp)	# tmp320, ts
	.loc 1 128 0
	movl	-108(%rbp), %eax	# tota, tmp321
	addl	%eax, -148(%rbp)	# tmp321, ta
	.loc 1 129 0
	movl	-100(%rbp), %eax	# totas, tmp322
	addl	%eax, -144(%rbp)	# tmp322, tas
.L9:
.LBE2:
	.loc 1 41 0
	addq	$16, -80(%rbp)	#, sv
.L8:
	.loc 1 41 0 is_stmt 0 discriminator 1
	cmpq	%r12, -80(%rbp)	# svend, sv
	jb	.L38	#,
	.loc 1 39 0 is_stmt 1
	movq	-88(%rbp), %rax	# sva, tmp323
	movq	(%rax), %rax	# sva_1->sv_any, tmp324
	movq	%rax, -88(%rbp)	# tmp324, sva
.L7:
	.loc 1 39 0 is_stmt 0 discriminator 1
	cmpq	$0, -88(%rbp)	#, sva
	jne	.L39	#,
	.loc 1 133 0 is_stmt 1
	call	Perl_PerlIO_stderr	#
	movl	-148(%rbp), %r8d	# ta, tmp325
	movl	-152(%rbp), %edi	# ts, tmp326
	movl	-160(%rbp), %ecx	# tm, tmp327
	movl	-156(%rbp), %edx	# tref, tmp328
	movl	-144(%rbp), %esi	# tas, tmp329
	movl	%esi, (%rsp)	# tmp329,
	movl	%r8d, %r9d	# tmp325,
	movl	%edi, %r8d	# tmp326,
	movl	$.LC6, %esi	#,
	movq	%rax, %rdi	# D.11641,
	movl	$0, %eax	#,
	call	PerlIO_printf	#
	.loc 1 135 0
	movq	-72(%rbp), %rax	# ret, D.11646
	.loc 1 137 0
	addq	$160, %rsp	#,
	popq	%rbx	#
	popq	%r12	#
	popq	%rbp	#
	.cfi_def_cfa 7, 8
	ret
	.cfi_endproc
.LFE3:
	.size	DeadCode, .-DeadCode
	.section	.rodata
	.align 8
.LC7:
	.string	"Cannot report mstats without Perl malloc"
	.text
	.globl	fill_mstats
	.type	fill_mstats, @function
fill_mstats:
.LFB4:
	.loc 1 307 0
	.cfi_startproc
	pushq	%rbp	#
	.cfi_def_cfa_offset 16
	.cfi_offset 6, -16
	movq	%rsp, %rbp	#,
	.cfi_def_cfa_register 6
	subq	$16, %rsp	#,
	movq	%rdi, -8(%rbp)	# sv, sv
	movl	%esi, -12(%rbp)	# level, level
	.loc 1 308 0
	movl	$.LC7, %edi	#,
	movl	$0, %eax	#,
	call	Perl_croak	#
	.loc 1 309 0
	leave
	.cfi_def_cfa 7, 8
	ret
	.cfi_endproc
.LFE4:
	.size	fill_mstats, .-fill_mstats
	.globl	mstats_fillhash
	.type	mstats_fillhash, @function
mstats_fillhash:
.LFB5:
	.loc 1 312 0
	.cfi_startproc
	pushq	%rbp	#
	.cfi_def_cfa_offset 16
	.cfi_offset 6, -16
	movq	%rsp, %rbp	#,
	.cfi_def_cfa_register 6
	subq	$16, %rsp	#,
	movq	%rdi, -8(%rbp)	# sv, sv
	movl	%esi, -12(%rbp)	# level, level
	.loc 1 313 0
	movl	$.LC7, %edi	#,
	movl	$0, %eax	#,
	call	Perl_croak	#
	.loc 1 314 0
	leave
	.cfi_def_cfa 7, 8
	ret
	.cfi_endproc
.LFE5:
	.size	mstats_fillhash, .-mstats_fillhash
	.globl	mstats2hash
	.type	mstats2hash, @function
mstats2hash:
.LFB6:
	.loc 1 317 0
	.cfi_startproc
	pushq	%rbp	#
	.cfi_def_cfa_offset 16
	.cfi_offset 6, -16
	movq	%rsp, %rbp	#,
	.cfi_def_cfa_register 6
	subq	$32, %rsp	#,
	movq	%rdi, -8(%rbp)	# sv, sv
	movq	%rsi, -16(%rbp)	# rv, rv
	movl	%edx, -20(%rbp)	# level, level
	.loc 1 318 0
	movl	$.LC7, %edi	#,
	movl	$0, %eax	#,
	call	Perl_croak	#
	.loc 1 319 0
	leave
	.cfi_def_cfa 7, 8
	ret
	.cfi_endproc
.LFE6:
	.size	mstats2hash, .-mstats2hash
	.section	.rodata
	.align 8
.LC8:
	.string	"Usage: Devel::Peek::mstat(str=\"Devel::Peek::mstat: \")"
.LC9:
	.string	"Devel::Peek::mstat: "
	.align 8
.LC10:
	.string	"%s: perl not compiled with DEBUGGING_MSTATS\n"
	.text
	.globl	XS_Devel__Peek_mstat
	.type	XS_Devel__Peek_mstat, @function
XS_Devel__Peek_mstat:
.LFB7:
	.loc 1 329 0
	.cfi_startproc
	pushq	%rbp	#
	.cfi_def_cfa_offset 16
	.cfi_offset 6, -16
	movq	%rsp, %rbp	#,
	.cfi_def_cfa_register 6
	pushq	%r12	#
	pushq	%rbx	#
	subq	$48, %rsp	#,
	.cfi_offset 12, -24
	.cfi_offset 3, -32
	movq	%rdi, -56(%rbp)	# cv, cv
	.loc 1 330 0
	movq	PL_stack_sp(%rip), %r12	# PL_stack_sp, sp
	movq	PL_stack_base(%rip), %rcx	# PL_stack_base, PL_stack_base.8
	movq	PL_markstack_ptr(%rip), %rax	# PL_markstack_ptr, PL_markstack_ptr.9
	leaq	-4(%rax), %rdx	#, PL_markstack_ptr.11
	movq	%rdx, PL_markstack_ptr(%rip)	# PL_markstack_ptr.11, PL_markstack_ptr
	movl	(%rax), %eax	# *PL_markstack_ptr.10_6, D.11658
	cltq
	salq	$3, %rax	#, D.11659
	leaq	(%rcx,%rax), %rbx	#, mark
	movq	%rbx, %rdx	# mark, mark.12
	movq	PL_stack_base(%rip), %rax	# PL_stack_base, PL_stack_base.13
	subq	%rax, %rdx	# PL_stack_base.14, D.11660
	movq	%rdx, %rax	# D.11660, D.11660
	sarq	$3, %rax	#, tmp106
	addl	$1, %eax	#, D.11661
	movl	%eax, -40(%rbp)	# D.11661, ax
	movq	%r12, %rdx	# sp, sp.15
	movq	%rbx, %rax	# mark, mark.16
	subq	%rax, %rdx	# mark.16, D.11660
	movq	%rdx, %rax	# D.11660, D.11660
	sarq	$3, %rax	#, tmp107
	movl	%eax, -36(%rbp)	# D.11660, items
	.loc 1 331 0
	cmpl	$0, -36(%rbp)	#, items
	js	.L45	#,
	.loc 1 331 0 is_stmt 0 discriminator 1
	cmpl	$1, -36(%rbp)	#, items
	jle	.L46	#,
.L45:
	.loc 1 332 0 is_stmt 1
	movl	$.LC8, %edi	#,
	movl	$0, %eax	#,
	call	Perl_croak	#
.L46:
.LBB4:
	.loc 1 336 0
	cmpl	$0, -36(%rbp)	#, items
	jg	.L47	#,
	.loc 1 337 0
	movq	$.LC9, -32(%rbp)	#, str
	jmp	.L48	#
.L47:
	.loc 1 339 0
	movq	PL_stack_base(%rip), %rax	# PL_stack_base, PL_stack_base.18
	movl	-40(%rbp), %edx	# ax, tmp108
	movslq	%edx, %rdx	# tmp108, D.11659
	salq	$3, %rdx	#, D.11659
	addq	%rdx, %rax	# D.11659, D.11662
	movq	(%rax), %rax	# *_29, D.11663
	movl	12(%rax), %eax	# _30->sv_flags, D.11664
	andl	$262144, %eax	#, D.11664
	testl	%eax, %eax	# D.11664
	je	.L49	#,
	.loc 1 339 0 is_stmt 0 discriminator 1
	movq	PL_stack_base(%rip), %rax	# PL_stack_base, PL_stack_base.19
	movl	-40(%rbp), %edx	# ax, tmp109
	movslq	%edx, %rdx	# tmp109, D.11659
	salq	$3, %rdx	#, D.11659
	addq	%rdx, %rax	# D.11659, D.11662
	movq	(%rax), %rax	# *_36, D.11663
	movq	(%rax), %rax	# _37->sv_any, D.11665
	movq	(%rax), %rax	# MEM[(struct XPV *)_38].xpv_pv, iftmp.17
	jmp	.L50	#
.L49:
	.loc 1 339 0 discriminator 2
	movq	PL_stack_base(%rip), %rax	# PL_stack_base, PL_stack_base.20
	movl	-40(%rbp), %edx	# ax, tmp110
	movslq	%edx, %rdx	# tmp110, D.11659
	salq	$3, %rdx	#, D.11659
	addq	%rdx, %rax	# D.11659, D.11662
	movq	(%rax), %rax	# *_43, D.11663
	movq	%rax, %rdi	# D.11663,
	call	Perl_sv_2pv_nolen	#
.L50:
	.loc 1 339 0 discriminator 3
	movq	%rax, -32(%rbp)	# iftmp.17, str
.L48:
	.loc 1 342 0 is_stmt 1
	call	Perl_PerlIO_stderr	#
	movq	-32(%rbp), %rdx	# str, tmp111
	movl	$.LC10, %esi	#,
	movq	%rax, %rdi	# D.11666,
	movl	$0, %eax	#,
	call	PerlIO_printf	#
.LBE4:
.LBB5:
	.loc 1 344 0
	movq	$0, -24(%rbp)	#, tmpXSoff
	movq	PL_stack_base(%rip), %rax	# PL_stack_base, PL_stack_base.21
	movl	-40(%rbp), %edx	# ax, tmp112
	movslq	%edx, %rcx	# tmp112, D.11667
	movq	-24(%rbp), %rdx	# tmpXSoff, tmpXSoff.22
	addq	%rcx, %rdx	# D.11667, D.11667
	salq	$3, %rdx	#, D.11667
	subq	$8, %rdx	#, D.11667
	addq	%rdx, %rax	# D.11667, PL_stack_sp.23
	movq	%rax, PL_stack_sp(%rip)	# PL_stack_sp.23, PL_stack_sp
	nop
.LBE5:
	.loc 1 345 0
	addq	$48, %rsp	#,
	popq	%rbx	#
	popq	%r12	#
	popq	%rbp	#
	.cfi_def_cfa 7, 8
	ret
	.cfi_endproc
.LFE7:
	.size	XS_Devel__Peek_mstat, .-XS_Devel__Peek_mstat
	.section	.rodata
	.align 8
.LC11:
	.string	"Usage: Devel::Peek::fill_mstats(sv, level= 0)"
	.text
	.globl	XS_Devel__Peek_fill_mstats
	.type	XS_Devel__Peek_fill_mstats, @function
XS_Devel__Peek_fill_mstats:
.LFB8:
	.loc 1 349 0
	.cfi_startproc
	pushq	%rbp	#
	.cfi_def_cfa_offset 16
	.cfi_offset 6, -16
	movq	%rsp, %rbp	#,
	.cfi_def_cfa_register 6
	pushq	%r12	#
	pushq	%rbx	#
	subq	$48, %rsp	#,
	.cfi_offset 12, -24
	.cfi_offset 3, -32
	movq	%rdi, -56(%rbp)	# cv, cv
	.loc 1 350 0
	movq	PL_stack_sp(%rip), %r12	# PL_stack_sp, sp
	movq	PL_stack_base(%rip), %rcx	# PL_stack_base, PL_stack_base.24
	movq	PL_markstack_ptr(%rip), %rax	# PL_markstack_ptr, PL_markstack_ptr.25
	leaq	-4(%rax), %rdx	#, PL_markstack_ptr.27
	movq	%rdx, PL_markstack_ptr(%rip)	# PL_markstack_ptr.27, PL_markstack_ptr
	movl	(%rax), %eax	# *PL_markstack_ptr.26_6, D.11671
	cltq
	salq	$3, %rax	#, D.11672
	leaq	(%rcx,%rax), %rbx	#, mark
	movq	%rbx, %rdx	# mark, mark.28
	movq	PL_stack_base(%rip), %rax	# PL_stack_base, PL_stack_base.29
	subq	%rax, %rdx	# PL_stack_base.30, D.11673
	movq	%rdx, %rax	# D.11673, D.11673
	sarq	$3, %rax	#, tmp114
	addl	$1, %eax	#, D.11674
	movl	%eax, -40(%rbp)	# D.11674, ax
	movq	%r12, %rdx	# sp, sp.31
	movq	%rbx, %rax	# mark, mark.32
	subq	%rax, %rdx	# mark.32, D.11673
	movq	%rdx, %rax	# D.11673, D.11673
	sarq	$3, %rax	#, tmp115
	movl	%eax, -36(%rbp)	# D.11673, items
	.loc 1 351 0
	cmpl	$0, -36(%rbp)	#, items
	jle	.L53	#,
	.loc 1 351 0 is_stmt 0 discriminator 1
	cmpl	$2, -36(%rbp)	#, items
	jle	.L54	#,
.L53:
	.loc 1 352 0 is_stmt 1
	movl	$.LC11, %edi	#,
	movl	$0, %eax	#,
	call	Perl_croak	#
.L54:
.LBB6:
	.loc 1 354 0
	movq	PL_stack_base(%rip), %rax	# PL_stack_base, PL_stack_base.33
	movl	-40(%rbp), %edx	# ax, tmp116
	movslq	%edx, %rdx	# tmp116, D.11672
	salq	$3, %rdx	#, D.11672
	addq	%rdx, %rax	# D.11672, D.11675
	movq	(%rax), %rax	# *_28, tmp117
	movq	%rax, -32(%rbp)	# tmp117, sv
	.loc 1 357 0
	cmpl	$1, -36(%rbp)	#, items
	jg	.L55	#,
	.loc 1 358 0
	movl	$0, -44(%rbp)	#, level
	jmp	.L56	#
.L55:
	.loc 1 360 0
	movq	PL_stack_base(%rip), %rax	# PL_stack_base, PL_stack_base.35
	movl	-40(%rbp), %edx	# ax, tmp118
	movslq	%edx, %rdx	# tmp118, D.11676
	addq	$1, %rdx	#, D.11676
	salq	$3, %rdx	#, D.11676
	addq	%rdx, %rax	# D.11676, D.11675
	movq	(%rax), %rax	# *_35, D.11677
	movl	12(%rax), %eax	# _36->sv_flags, D.11678
	andl	$65536, %eax	#, D.11678
	testl	%eax, %eax	# D.11678
	je	.L57	#,
	.loc 1 360 0 is_stmt 0 discriminator 1
	movq	PL_stack_base(%rip), %rax	# PL_stack_base, PL_stack_base.36
	movl	-40(%rbp), %edx	# ax, tmp119
	movslq	%edx, %rdx	# tmp119, D.11676
	addq	$1, %rdx	#, D.11676
	salq	$3, %rdx	#, D.11676
	addq	%rdx, %rax	# D.11676, D.11675
	movq	(%rax), %rax	# *_43, D.11677
	movq	(%rax), %rax	# _44->sv_any, D.11679
	movq	24(%rax), %rax	# MEM[(struct XPVIV *)_45].xiv_iv, D.11673
	jmp	.L58	#
.L57:
	.loc 1 360 0 discriminator 2
	movq	PL_stack_base(%rip), %rax	# PL_stack_base, PL_stack_base.37
	movl	-40(%rbp), %edx	# ax, tmp120
	movslq	%edx, %rdx	# tmp120, D.11676
	addq	$1, %rdx	#, D.11676
	salq	$3, %rdx	#, D.11676
	addq	%rdx, %rax	# D.11676, D.11675
	movq	(%rax), %rax	# *_52, D.11677
	movq	%rax, %rdi	# D.11677,
	call	Perl_sv_2iv	#
.L58:
	.loc 1 360 0 discriminator 3
	movl	%eax, -44(%rbp)	# iftmp.34, level
.L56:
	.loc 1 363 0 is_stmt 1
	movl	-44(%rbp), %edx	# level, tmp121
	movq	-32(%rbp), %rax	# sv, tmp122
	movl	%edx, %esi	# tmp121,
	movq	%rax, %rdi	# tmp122,
	call	fill_mstats	#
.LBE6:
.LBB7:
	.loc 1 365 0
	movq	$0, -24(%rbp)	#, tmpXSoff
	movq	PL_stack_base(%rip), %rax	# PL_stack_base, PL_stack_base.38
	movl	-40(%rbp), %edx	# ax, tmp123
	movslq	%edx, %rcx	# tmp123, D.11676
	movq	-24(%rbp), %rdx	# tmpXSoff, tmpXSoff.39
	addq	%rcx, %rdx	# D.11676, D.11676
	salq	$3, %rdx	#, D.11676
	subq	$8, %rdx	#, D.11676
	addq	%rdx, %rax	# D.11676, PL_stack_sp.40
	movq	%rax, PL_stack_sp(%rip)	# PL_stack_sp.40, PL_stack_sp
	nop
.LBE7:
	.loc 1 366 0
	addq	$48, %rsp	#,
	popq	%rbx	#
	popq	%r12	#
	popq	%rbp	#
	.cfi_def_cfa 7, 8
	ret
	.cfi_endproc
.LFE8:
	.size	XS_Devel__Peek_fill_mstats, .-XS_Devel__Peek_fill_mstats
	.section	.rodata
	.align 8
.LC12:
	.string	"Usage: Devel::Peek::mstats_fillhash(sv, level= 0)"
	.text
	.globl	XS_Devel__Peek_mstats_fillhash
	.type	XS_Devel__Peek_mstats_fillhash, @function
XS_Devel__Peek_mstats_fillhash:
.LFB9:
	.loc 1 370 0
	.cfi_startproc
	pushq	%rbp	#
	.cfi_def_cfa_offset 16
	.cfi_offset 6, -16
	movq	%rsp, %rbp	#,
	.cfi_def_cfa_register 6
	pushq	%r12	#
	pushq	%rbx	#
	subq	$48, %rsp	#,
	.cfi_offset 12, -24
	.cfi_offset 3, -32
	movq	%rdi, -56(%rbp)	# cv, cv
	.loc 1 371 0
	movq	PL_stack_sp(%rip), %r12	# PL_stack_sp, sp
	movq	PL_stack_base(%rip), %rcx	# PL_stack_base, PL_stack_base.41
	movq	PL_markstack_ptr(%rip), %rax	# PL_markstack_ptr, PL_markstack_ptr.42
	leaq	-4(%rax), %rdx	#, PL_markstack_ptr.44
	movq	%rdx, PL_markstack_ptr(%rip)	# PL_markstack_ptr.44, PL_markstack_ptr
	movl	(%rax), %eax	# *PL_markstack_ptr.43_6, D.11681
	cltq
	salq	$3, %rax	#, D.11682
	leaq	(%rcx,%rax), %rbx	#, mark
	movq	%rbx, %rdx	# mark, mark.45
	movq	PL_stack_base(%rip), %rax	# PL_stack_base, PL_stack_base.46
	subq	%rax, %rdx	# PL_stack_base.47, D.11683
	movq	%rdx, %rax	# D.11683, D.11683
	sarq	$3, %rax	#, tmp114
	addl	$1, %eax	#, D.11684
	movl	%eax, -40(%rbp)	# D.11684, ax
	movq	%r12, %rdx	# sp, sp.48
	movq	%rbx, %rax	# mark, mark.49
	subq	%rax, %rdx	# mark.49, D.11683
	movq	%rdx, %rax	# D.11683, D.11683
	sarq	$3, %rax	#, tmp115
	movl	%eax, -36(%rbp)	# D.11683, items
	.loc 1 372 0
	cmpl	$0, -36(%rbp)	#, items
	jle	.L61	#,
	.loc 1 372 0 is_stmt 0 discriminator 1
	cmpl	$2, -36(%rbp)	#, items
	jle	.L62	#,
.L61:
	.loc 1 373 0 is_stmt 1
	movl	$.LC12, %edi	#,
	movl	$0, %eax	#,
	call	Perl_croak	#
.L62:
.LBB8:
	.loc 1 375 0
	movq	PL_stack_base(%rip), %rax	# PL_stack_base, PL_stack_base.50
	movl	-40(%rbp), %edx	# ax, tmp116
	movslq	%edx, %rdx	# tmp116, D.11682
	salq	$3, %rdx	#, D.11682
	addq	%rdx, %rax	# D.11682, D.11685
	movq	(%rax), %rax	# *_28, tmp117
	movq	%rax, -32(%rbp)	# tmp117, sv
	.loc 1 378 0
	cmpl	$1, -36(%rbp)	#, items
	jg	.L63	#,
	.loc 1 379 0
	movl	$0, -44(%rbp)	#, level
	jmp	.L64	#
.L63:
	.loc 1 381 0
	movq	PL_stack_base(%rip), %rax	# PL_stack_base, PL_stack_base.52
	movl	-40(%rbp), %edx	# ax, tmp118
	movslq	%edx, %rdx	# tmp118, D.11686
	addq	$1, %rdx	#, D.11686
	salq	$3, %rdx	#, D.11686
	addq	%rdx, %rax	# D.11686, D.11685
	movq	(%rax), %rax	# *_35, D.11687
	movl	12(%rax), %eax	# _36->sv_flags, D.11688
	andl	$65536, %eax	#, D.11688
	testl	%eax, %eax	# D.11688
	je	.L65	#,
	.loc 1 381 0 is_stmt 0 discriminator 1
	movq	PL_stack_base(%rip), %rax	# PL_stack_base, PL_stack_base.53
	movl	-40(%rbp), %edx	# ax, tmp119
	movslq	%edx, %rdx	# tmp119, D.11686
	addq	$1, %rdx	#, D.11686
	salq	$3, %rdx	#, D.11686
	addq	%rdx, %rax	# D.11686, D.11685
	movq	(%rax), %rax	# *_43, D.11687
	movq	(%rax), %rax	# _44->sv_any, D.11689
	movq	24(%rax), %rax	# MEM[(struct XPVIV *)_45].xiv_iv, D.11683
	jmp	.L66	#
.L65:
	.loc 1 381 0 discriminator 2
	movq	PL_stack_base(%rip), %rax	# PL_stack_base, PL_stack_base.54
	movl	-40(%rbp), %edx	# ax, tmp120
	movslq	%edx, %rdx	# tmp120, D.11686
	addq	$1, %rdx	#, D.11686
	salq	$3, %rdx	#, D.11686
	addq	%rdx, %rax	# D.11686, D.11685
	movq	(%rax), %rax	# *_52, D.11687
	movq	%rax, %rdi	# D.11687,
	call	Perl_sv_2iv	#
.L66:
	.loc 1 381 0 discriminator 3
	movl	%eax, -44(%rbp)	# iftmp.51, level
.L64:
	.loc 1 384 0 is_stmt 1
	movl	-44(%rbp), %edx	# level, tmp121
	movq	-32(%rbp), %rax	# sv, tmp122
	movl	%edx, %esi	# tmp121,
	movq	%rax, %rdi	# tmp122,
	call	mstats_fillhash	#
.LBE8:
.LBB9:
	.loc 1 386 0
	movq	$0, -24(%rbp)	#, tmpXSoff
	movq	PL_stack_base(%rip), %rax	# PL_stack_base, PL_stack_base.55
	movl	-40(%rbp), %edx	# ax, tmp123
	movslq	%edx, %rcx	# tmp123, D.11686
	movq	-24(%rbp), %rdx	# tmpXSoff, tmpXSoff.56
	addq	%rcx, %rdx	# D.11686, D.11686
	salq	$3, %rdx	#, D.11686
	subq	$8, %rdx	#, D.11686
	addq	%rdx, %rax	# D.11686, PL_stack_sp.57
	movq	%rax, PL_stack_sp(%rip)	# PL_stack_sp.57, PL_stack_sp
	nop
.LBE9:
	.loc 1 387 0
	addq	$48, %rsp	#,
	popq	%rbx	#
	popq	%r12	#
	popq	%rbp	#
	.cfi_def_cfa 7, 8
	ret
	.cfi_endproc
.LFE9:
	.size	XS_Devel__Peek_mstats_fillhash, .-XS_Devel__Peek_mstats_fillhash
	.section	.rodata
	.align 8
.LC13:
	.string	"Usage: Devel::Peek::mstats2hash(sv, rv, level= 0)"
	.text
	.globl	XS_Devel__Peek_mstats2hash
	.type	XS_Devel__Peek_mstats2hash, @function
XS_Devel__Peek_mstats2hash:
.LFB10:
	.loc 1 391 0
	.cfi_startproc
	pushq	%rbp	#
	.cfi_def_cfa_offset 16
	.cfi_offset 6, -16
	movq	%rsp, %rbp	#,
	.cfi_def_cfa_register 6
	pushq	%r12	#
	pushq	%rbx	#
	subq	$64, %rsp	#,
	.cfi_offset 12, -24
	.cfi_offset 3, -32
	movq	%rdi, -72(%rbp)	# cv, cv
	.loc 1 392 0
	movq	PL_stack_sp(%rip), %r12	# PL_stack_sp, sp
	movq	PL_stack_base(%rip), %rcx	# PL_stack_base, PL_stack_base.58
	movq	PL_markstack_ptr(%rip), %rax	# PL_markstack_ptr, PL_markstack_ptr.59
	leaq	-4(%rax), %rdx	#, PL_markstack_ptr.61
	movq	%rdx, PL_markstack_ptr(%rip)	# PL_markstack_ptr.61, PL_markstack_ptr
	movl	(%rax), %eax	# *PL_markstack_ptr.60_6, D.11691
	cltq
	salq	$3, %rax	#, D.11692
	leaq	(%rcx,%rax), %rbx	#, mark
	movq	%rbx, %rdx	# mark, mark.62
	movq	PL_stack_base(%rip), %rax	# PL_stack_base, PL_stack_base.63
	subq	%rax, %rdx	# PL_stack_base.64, D.11693
	movq	%rdx, %rax	# D.11693, D.11693
	sarq	$3, %rax	#, tmp119
	addl	$1, %eax	#, D.11694
	movl	%eax, -48(%rbp)	# D.11694, ax
	movq	%r12, %rdx	# sp, sp.65
	movq	%rbx, %rax	# mark, mark.66
	subq	%rax, %rdx	# mark.66, D.11693
	movq	%rdx, %rax	# D.11693, D.11693
	sarq	$3, %rax	#, tmp120
	movl	%eax, -44(%rbp)	# D.11693, items
	.loc 1 393 0
	cmpl	$1, -44(%rbp)	#, items
	jle	.L69	#,
	.loc 1 393 0 is_stmt 0 discriminator 1
	cmpl	$3, -44(%rbp)	#, items
	jle	.L70	#,
.L69:
	.loc 1 394 0 is_stmt 1
	movl	$.LC13, %edi	#,
	movl	$0, %eax	#,
	call	Perl_croak	#
.L70:
.LBB10:
	.loc 1 396 0
	movq	PL_stack_base(%rip), %rax	# PL_stack_base, PL_stack_base.67
	movl	-48(%rbp), %edx	# ax, tmp121
	movslq	%edx, %rdx	# tmp121, D.11692
	salq	$3, %rdx	#, D.11692
	addq	%rdx, %rax	# D.11692, D.11695
	movq	(%rax), %rax	# *_28, tmp122
	movq	%rax, -40(%rbp)	# tmp122, sv
	.loc 1 397 0
	movq	PL_stack_base(%rip), %rax	# PL_stack_base, PL_stack_base.68
	movl	-48(%rbp), %edx	# ax, tmp123
	movslq	%edx, %rdx	# tmp123, D.11696
	addq	$1, %rdx	#, D.11696
	salq	$3, %rdx	#, D.11696
	addq	%rdx, %rax	# D.11696, D.11695
	movq	(%rax), %rax	# *_34, tmp124
	movq	%rax, -32(%rbp)	# tmp124, rv
	.loc 1 400 0
	cmpl	$2, -44(%rbp)	#, items
	jg	.L71	#,
	.loc 1 401 0
	movl	$0, -52(%rbp)	#, level
	jmp	.L72	#
.L71:
	.loc 1 403 0
	movq	PL_stack_base(%rip), %rax	# PL_stack_base, PL_stack_base.70
	movl	-48(%rbp), %edx	# ax, tmp125
	movslq	%edx, %rdx	# tmp125, D.11696
	addq	$2, %rdx	#, D.11696
	salq	$3, %rdx	#, D.11696
	addq	%rdx, %rax	# D.11696, D.11695
	movq	(%rax), %rax	# *_41, D.11697
	movl	12(%rax), %eax	# _42->sv_flags, D.11698
	andl	$65536, %eax	#, D.11698
	testl	%eax, %eax	# D.11698
	je	.L73	#,
	.loc 1 403 0 is_stmt 0 discriminator 1
	movq	PL_stack_base(%rip), %rax	# PL_stack_base, PL_stack_base.71
	movl	-48(%rbp), %edx	# ax, tmp126
	movslq	%edx, %rdx	# tmp126, D.11696
	addq	$2, %rdx	#, D.11696
	salq	$3, %rdx	#, D.11696
	addq	%rdx, %rax	# D.11696, D.11695
	movq	(%rax), %rax	# *_49, D.11697
	movq	(%rax), %rax	# _50->sv_any, D.11699
	movq	24(%rax), %rax	# MEM[(struct XPVIV *)_51].xiv_iv, D.11693
	jmp	.L74	#
.L73:
	.loc 1 403 0 discriminator 2
	movq	PL_stack_base(%rip), %rax	# PL_stack_base, PL_stack_base.72
	movl	-48(%rbp), %edx	# ax, tmp127
	movslq	%edx, %rdx	# tmp127, D.11696
	addq	$2, %rdx	#, D.11696
	salq	$3, %rdx	#, D.11696
	addq	%rdx, %rax	# D.11696, D.11695
	movq	(%rax), %rax	# *_58, D.11697
	movq	%rax, %rdi	# D.11697,
	call	Perl_sv_2iv	#
.L74:
	.loc 1 403 0 discriminator 3
	movl	%eax, -52(%rbp)	# iftmp.69, level
.L72:
	.loc 1 406 0 is_stmt 1
	movl	-52(%rbp), %edx	# level, tmp128
	movq	-32(%rbp), %rcx	# rv, tmp129
	movq	-40(%rbp), %rax	# sv, tmp130
	movq	%rcx, %rsi	# tmp129,
	movq	%rax, %rdi	# tmp130,
	call	mstats2hash	#
.LBE10:
.LBB11:
	.loc 1 408 0
	movq	$0, -24(%rbp)	#, tmpXSoff
	movq	PL_stack_base(%rip), %rax	# PL_stack_base, PL_stack_base.73
	movl	-48(%rbp), %edx	# ax, tmp131
	movslq	%edx, %rcx	# tmp131, D.11696
	movq	-24(%rbp), %rdx	# tmpXSoff, tmpXSoff.74
	addq	%rcx, %rdx	# D.11696, D.11696
	salq	$3, %rdx	#, D.11696
	subq	$8, %rdx	#, D.11696
	addq	%rdx, %rax	# D.11696, PL_stack_sp.75
	movq	%rax, PL_stack_sp(%rip)	# PL_stack_sp.75, PL_stack_sp
	nop
.LBE11:
	.loc 1 409 0
	addq	$64, %rsp	#,
	popq	%rbx	#
	popq	%r12	#
	popq	%rbp	#
	.cfi_def_cfa 7, 8
	ret
	.cfi_endproc
.LFE10:
	.size	XS_Devel__Peek_mstats2hash, .-XS_Devel__Peek_mstats2hash
	.section	.rodata
	.align 8
.LC14:
	.string	"Usage: Devel::Peek::Dump(sv, lim=4)"
.LC15:
	.string	"Devel::Peek::pv_limit"
.LC16:
	.string	"Devel::Peek::dump_ops"
	.text
	.globl	XS_Devel__Peek_Dump
	.type	XS_Devel__Peek_Dump, @function
XS_Devel__Peek_Dump:
.LFB11:
	.loc 1 413 0
	.cfi_startproc
	pushq	%rbp	#
	.cfi_def_cfa_offset 16
	.cfi_offset 6, -16
	movq	%rsp, %rbp	#,
	.cfi_def_cfa_register 6
	pushq	%r12	#
	pushq	%rbx	#
	subq	$64, %rsp	#,
	.cfi_offset 12, -24
	.cfi_offset 3, -32
	movq	%rdi, -72(%rbp)	# cv, cv
	.loc 1 414 0
	movq	PL_stack_sp(%rip), %rbx	# PL_stack_sp, sp
	movq	PL_stack_base(%rip), %rcx	# PL_stack_base, PL_stack_base.76
	movq	PL_markstack_ptr(%rip), %rax	# PL_markstack_ptr, PL_markstack_ptr.77
	leaq	-4(%rax), %rdx	#, PL_markstack_ptr.79
	movq	%rdx, PL_markstack_ptr(%rip)	# PL_markstack_ptr.79, PL_markstack_ptr
	movl	(%rax), %eax	# *PL_markstack_ptr.78_10, D.11701
	cltq
	salq	$3, %rax	#, D.11702
	leaq	(%rcx,%rax), %r12	#, mark
	movq	%r12, %rdx	# mark, mark.80
	movq	PL_stack_base(%rip), %rax	# PL_stack_base, PL_stack_base.81
	subq	%rax, %rdx	# PL_stack_base.82, D.11703
	movq	%rdx, %rax	# D.11703, D.11703
	sarq	$3, %rax	#, tmp143
	addl	$1, %eax	#, D.11704
	movl	%eax, -60(%rbp)	# D.11704, ax
	movq	%rbx, %rdx	# sp, sp.83
	movq	%r12, %rax	# mark, mark.84
	subq	%rax, %rdx	# mark.84, D.11703
	movq	%rdx, %rax	# D.11703, D.11703
	sarq	$3, %rax	#, tmp144
	movl	%eax, -56(%rbp)	# D.11703, items
	.loc 1 415 0
	cmpl	$0, -56(%rbp)	#, items
	jle	.L77	#,
	.loc 1 415 0 is_stmt 0 discriminator 1
	cmpl	$2, -56(%rbp)	#, items
	jle	.L78	#,
.L77:
	.loc 1 416 0 is_stmt 1
	movl	$.LC14, %edi	#,
	movl	$0, %eax	#,
	call	Perl_croak	#
.L78:
	.loc 1 417 0
	movl	-56(%rbp), %eax	# items, tmp145
	cltq
	salq	$3, %rax	#, D.11702
	negq	%rax	# D.11705
	addq	%rax, %rbx	# D.11705, sp
.LBB12:
	.loc 1 419 0
	movq	PL_stack_base(%rip), %rax	# PL_stack_base, PL_stack_base.85
	movl	-60(%rbp), %edx	# ax, tmp146
	movslq	%edx, %rdx	# tmp146, D.11702
	salq	$3, %rdx	#, D.11702
	addq	%rdx, %rax	# D.11702, D.11706
	movq	(%rax), %rax	# *_36, tmp147
	movq	%rax, -48(%rbp)	# tmp147, sv
	.loc 1 422 0
	cmpl	$1, -56(%rbp)	#, items
	jg	.L79	#,
	.loc 1 423 0
	movl	$4, -64(%rbp)	#, lim
	jmp	.L80	#
.L79:
	.loc 1 425 0
	movq	PL_stack_base(%rip), %rax	# PL_stack_base, PL_stack_base.87
	movl	-60(%rbp), %edx	# ax, tmp148
	movslq	%edx, %rdx	# tmp148, D.11705
	addq	$1, %rdx	#, D.11705
	salq	$3, %rdx	#, D.11705
	addq	%rdx, %rax	# D.11705, D.11706
	movq	(%rax), %rax	# *_43, D.11707
	movl	12(%rax), %eax	# _44->sv_flags, D.11708
	andl	$65536, %eax	#, D.11708
	testl	%eax, %eax	# D.11708
	je	.L81	#,
	.loc 1 425 0 is_stmt 0 discriminator 1
	movq	PL_stack_base(%rip), %rax	# PL_stack_base, PL_stack_base.88
	movl	-60(%rbp), %edx	# ax, tmp149
	movslq	%edx, %rdx	# tmp149, D.11705
	addq	$1, %rdx	#, D.11705
	salq	$3, %rdx	#, D.11705
	addq	%rdx, %rax	# D.11705, D.11706
	movq	(%rax), %rax	# *_51, D.11707
	movq	(%rax), %rax	# _52->sv_any, D.11709
	movq	24(%rax), %rax	# MEM[(struct XPVIV *)_53].xiv_iv, D.11703
	jmp	.L82	#
.L81:
	.loc 1 425 0 discriminator 2
	movq	PL_stack_base(%rip), %rax	# PL_stack_base, PL_stack_base.89
	movl	-60(%rbp), %edx	# ax, tmp150
	movslq	%edx, %rdx	# tmp150, D.11705
	addq	$1, %rdx	#, D.11705
	salq	$3, %rdx	#, D.11705
	addq	%rdx, %rax	# D.11705, D.11706
	movq	(%rax), %rax	# *_60, D.11707
	movq	%rax, %rdi	# D.11707,
	call	Perl_sv_2iv	#
.L82:
	.loc 1 425 0 discriminator 3
	movl	%eax, -64(%rbp)	# iftmp.86, lim
.L80:
.LBB13:
	.loc 1 429 0 is_stmt 1
	movl	$0, %esi	#,
	movl	$.LC15, %edi	#,
	call	Perl_get_sv	#
	movq	%rax, -40(%rbp)	# tmp151, pv_lim_sv
	.loc 1 430 0
	cmpq	$0, -40(%rbp)	#, pv_lim_sv
	je	.L83	#,
	.loc 1 430 0 is_stmt 0 discriminator 1
	movq	-40(%rbp), %rax	# pv_lim_sv, tmp152
	movl	12(%rax), %eax	# pv_lim_sv_65->sv_flags, D.11708
	andl	$65536, %eax	#, D.11708
	testl	%eax, %eax	# D.11708
	je	.L84	#,
	.loc 1 430 0 discriminator 3
	movq	-40(%rbp), %rax	# pv_lim_sv, tmp153
	movq	(%rax), %rax	# pv_lim_sv_65->sv_any, D.11709
	movq	24(%rax), %rax	# MEM[(struct XPVIV *)_68].xiv_iv, D.11703
	jmp	.L86	#
.L84:
	.loc 1 430 0 discriminator 4
	movq	-40(%rbp), %rax	# pv_lim_sv, tmp154
	movq	%rax, %rdi	# tmp154,
	call	Perl_sv_2iv	#
	jmp	.L86	#
.L83:
	.loc 1 430 0 discriminator 2
	movl	$0, %eax	#, iftmp.90
.L86:
	.loc 1 430 0 discriminator 5
	movq	%rax, -32(%rbp)	# iftmp.90, pv_lim
	.loc 1 431 0 is_stmt 1 discriminator 5
	movl	$0, %esi	#,
	movl	$.LC16, %edi	#,
	call	Perl_get_sv	#
	movq	%rax, -24(%rbp)	# tmp155, dumpop
	.loc 1 432 0 discriminator 5
	movl	PL_dumpindent(%rip), %eax	# PL_dumpindent, tmp156
	movl	%eax, -52(%rbp)	# tmp156, save_dumpindent
	.loc 1 433 0 discriminator 5
	movl	$2, PL_dumpindent(%rip)	#, PL_dumpindent
	.loc 1 435 0 discriminator 5
	cmpq	$0, -24(%rbp)	#, dumpop
	je	.L87	#,
	.loc 1 435 0 is_stmt 0 discriminator 1
	cmpq	$0, -24(%rbp)	#, dumpop
	je	.L87	#,
	.loc 1 435 0 discriminator 3
	movq	-24(%rbp), %rax	# dumpop, tmp157
	movl	12(%rax), %eax	# dumpop_76->sv_flags, D.11708
	andl	$262144, %eax	#, D.11708
	testl	%eax, %eax	# D.11708
	je	.L88	#,
	.loc 1 435 0 discriminator 5
	movq	-24(%rbp), %rax	# dumpop, tmp158
	movq	(%rax), %rax	# dumpop_76->sv_any, PL_Xpv.94
	movq	%rax, PL_Xpv(%rip)	# PL_Xpv.94, PL_Xpv
	movq	PL_Xpv(%rip), %rax	# PL_Xpv, PL_Xpv.95
	testq	%rax, %rax	# PL_Xpv.95
	je	.L89	#,
	.loc 1 435 0 discriminator 7
	movq	PL_Xpv(%rip), %rax	# PL_Xpv, PL_Xpv.96
	movq	8(%rax), %rax	# PL_Xpv.96_82->xpv_cur, D.11702
	cmpq	$1, %rax	#, D.11702
	ja	.L90	#,
	.loc 1 435 0 discriminator 10
	movq	PL_Xpv(%rip), %rax	# PL_Xpv, PL_Xpv.97
	movq	8(%rax), %rax	# PL_Xpv.97_84->xpv_cur, D.11702
	testq	%rax, %rax	# D.11702
	je	.L89	#,
	.loc 1 435 0 discriminator 1
	movq	PL_Xpv(%rip), %rax	# PL_Xpv, PL_Xpv.98
	movq	(%rax), %rax	# PL_Xpv.98_86->xpv_pv, D.11710
	movzbl	(%rax), %eax	# *_87, D.11711
	cmpb	$48, %al	#, D.11711
	je	.L89	#,
.L90:
	.loc 1 435 0 discriminator 9
	movl	$1, %eax	#, iftmp.93
	jmp	.L91	#
.L89:
	.loc 1 435 0 discriminator 8
	movl	$0, %eax	#, iftmp.93
.L91:
	.loc 1 435 0 discriminator 11
	andl	$1, %eax	#, D.11712
	testb	%al, %al	# D.11712
	jne	.L92	#,
	jmp	.L87	#
.L88:
	.loc 1 435 0 discriminator 6
	movq	-24(%rbp), %rax	# dumpop, tmp159
	movl	12(%rax), %eax	# dumpop_76->sv_flags, D.11708
	andl	$65536, %eax	#, D.11708
	testl	%eax, %eax	# D.11708
	je	.L93	#,
	.loc 1 435 0 discriminator 12
	movq	-24(%rbp), %rax	# dumpop, tmp160
	movq	(%rax), %rax	# dumpop_76->sv_any, D.11709
	movq	24(%rax), %rax	# MEM[(struct XPVIV *)_94].xiv_iv, D.11703
	testq	%rax, %rax	# D.11703
	jne	.L92	#,
	jmp	.L87	#
.L93:
	.loc 1 435 0 discriminator 13
	movq	-24(%rbp), %rax	# dumpop, tmp161
	movl	12(%rax), %eax	# dumpop_76->sv_flags, D.11708
	andl	$131072, %eax	#, D.11708
	testl	%eax, %eax	# D.11708
	je	.L94	#,
	.loc 1 435 0 discriminator 14
	movq	-24(%rbp), %rax	# dumpop, tmp162
	movq	(%rax), %rax	# dumpop_76->sv_any, D.11709
	movsd	32(%rax), %xmm0	# MEM[(struct XPVNV *)_98].xnv_nv, D.11713
	xorpd	%xmm1, %xmm1	# tmp163
	ucomisd	%xmm1, %xmm0	# tmp163, D.11713
	jp	.L92	#,
	xorpd	%xmm1, %xmm1	# tmp164
	ucomisd	%xmm1, %xmm0	# tmp164, D.11713
	jne	.L92	#,
	jmp	.L87	#
.L94:
	.loc 1 435 0 discriminator 15
	movq	-24(%rbp), %rax	# dumpop, tmp165
	movq	%rax, %rdi	# tmp165,
	call	Perl_sv_2bool	#
	testb	%al, %al	# D.11711
	je	.L87	#,
.L92:
	.loc 1 435 0 discriminator 16
	movl	$1, %eax	#, iftmp.92
	jmp	.L95	#
.L87:
	.loc 1 435 0 discriminator 2
	movl	$0, %eax	#, iftmp.92
.L95:
	.loc 1 434 0 is_stmt 1 discriminator 17
	movsbl	%al, %r12d	# D.11711, D.11701
	call	Perl_PerlIO_stderr	#
	movl	-64(%rbp), %esi	# lim, tmp166
	movq	-48(%rbp), %rdx	# sv, tmp167
	movq	-32(%rbp), %rcx	# pv_lim, tmp168
	movq	%rcx, (%rsp)	# tmp168,
	movl	%r12d, %r9d	# D.11701,
	movl	%esi, %r8d	# tmp166,
	movl	$0, %ecx	#,
	movq	%rax, %rsi	# D.11714,
	movl	$0, %edi	#,
	call	Perl_do_sv_dump	#
	.loc 1 436 0 discriminator 17
	movl	-52(%rbp), %eax	# save_dumpindent, tmp169
	movl	%eax, PL_dumpindent(%rip)	# tmp169, PL_dumpindent
.LBE13:
	.loc 1 439 0 discriminator 17
	movq	%rbx, PL_stack_sp(%rip)	# sp, PL_stack_sp
	.loc 1 440 0 discriminator 17
	nop
.LBE12:
	.loc 1 442 0 discriminator 17
	addq	$64, %rsp	#,
	popq	%rbx	#
	popq	%r12	#
	popq	%rbp	#
	.cfi_def_cfa 7, 8
	ret
	.cfi_endproc
.LFE11:
	.size	XS_Devel__Peek_Dump, .-XS_Devel__Peek_Dump
	.section	.rodata
	.align 8
.LC18:
	.string	"Usage: Devel::Peek::DumpArray(lim, ...)"
.LC19:
	.string	"Elt No. %ld  0x%lx\n"
	.text
	.globl	XS_Devel__Peek_DumpArray
	.type	XS_Devel__Peek_DumpArray, @function
XS_Devel__Peek_DumpArray:
.LFB12:
	.loc 1 446 0
	.cfi_startproc
	pushq	%rbp	#
	.cfi_def_cfa_offset 16
	.cfi_offset 6, -16
	movq	%rsp, %rbp	#,
	.cfi_def_cfa_register 6
	pushq	%r13	#
	pushq	%r12	#
	pushq	%rbx	#
	subq	$72, %rsp	#,
	.cfi_offset 13, -24
	.cfi_offset 12, -32
	.cfi_offset 3, -40
	movq	%rdi, -88(%rbp)	# cv, cv
	.loc 1 447 0
	movq	PL_stack_sp(%rip), %rbx	# PL_stack_sp, sp
	movq	PL_stack_base(%rip), %rcx	# PL_stack_base, PL_stack_base.99
	movq	PL_markstack_ptr(%rip), %rax	# PL_markstack_ptr, PL_markstack_ptr.100
	leaq	-4(%rax), %rdx	#, PL_markstack_ptr.102
	movq	%rdx, PL_markstack_ptr(%rip)	# PL_markstack_ptr.102, PL_markstack_ptr
	movl	(%rax), %eax	# *PL_markstack_ptr.101_10, D.11718
	cltq
	salq	$3, %rax	#, D.11719
	leaq	(%rcx,%rax), %r12	#, mark
	movq	%r12, %rdx	# mark, mark.103
	movq	PL_stack_base(%rip), %rax	# PL_stack_base, PL_stack_base.104
	subq	%rax, %rdx	# PL_stack_base.105, D.11720
	movq	%rdx, %rax	# D.11720, D.11720
	sarq	$3, %rax	#, tmp154
	addl	$1, %eax	#, D.11721
	movl	%eax, -80(%rbp)	# D.11721, ax
	movq	%rbx, %rdx	# sp, sp.106
	movq	%r12, %rax	# mark, mark.107
	subq	%rax, %rdx	# mark.107, D.11720
	movq	%rdx, %rax	# D.11720, D.11720
	sarq	$3, %rax	#, tmp155
	movl	%eax, -76(%rbp)	# D.11720, items
	.loc 1 448 0
	cmpl	$0, -76(%rbp)	#, items
	jg	.L98	#,
	.loc 1 449 0
	movl	$.LC18, %edi	#,
	movl	$0, %eax	#,
	call	Perl_croak	#
.L98:
	.loc 1 450 0
	movl	-76(%rbp), %eax	# items, tmp156
	cltq
	salq	$3, %rax	#, D.11719
	negq	%rax	# D.11722
	addq	%rax, %rbx	# D.11722, sp
.LBB14:
	.loc 1 452 0
	movq	PL_stack_base(%rip), %rax	# PL_stack_base, PL_stack_base.109
	movl	-80(%rbp), %edx	# ax, tmp157
	movslq	%edx, %rdx	# tmp157, D.11719
	salq	$3, %rdx	#, D.11719
	addq	%rdx, %rax	# D.11719, D.11723
	movq	(%rax), %rax	# *_36, D.11724
	movl	12(%rax), %eax	# _37->sv_flags, D.11725
	andl	$65536, %eax	#, D.11725
	testl	%eax, %eax	# D.11725
	je	.L99	#,
	.loc 1 452 0 is_stmt 0 discriminator 1
	movq	PL_stack_base(%rip), %rax	# PL_stack_base, PL_stack_base.110
	movl	-80(%rbp), %edx	# ax, tmp158
	movslq	%edx, %rdx	# tmp158, D.11719
	salq	$3, %rdx	#, D.11719
	addq	%rdx, %rax	# D.11719, D.11723
	movq	(%rax), %rax	# *_43, D.11724
	movq	(%rax), %rax	# _44->sv_any, D.11726
	movq	24(%rax), %rax	# MEM[(struct XPVIV *)_45].xiv_iv, D.11720
	jmp	.L100	#
.L99:
	.loc 1 452 0 discriminator 2
	movq	PL_stack_base(%rip), %rax	# PL_stack_base, PL_stack_base.111
	movl	-80(%rbp), %edx	# ax, tmp159
	movslq	%edx, %rdx	# tmp159, D.11719
	salq	$3, %rdx	#, D.11719
	addq	%rdx, %rax	# D.11719, D.11723
	movq	(%rax), %rax	# *_51, D.11724
	movq	%rax, %rdi	# D.11724,
	call	Perl_sv_2iv	#
.L100:
	.loc 1 452 0 discriminator 3
	movl	%eax, -72(%rbp)	# iftmp.108, lim
.LBB15:
	.loc 1 456 0 is_stmt 1 discriminator 3
	movl	$0, %esi	#,
	movl	$.LC15, %edi	#,
	call	Perl_get_sv	#
	movq	%rax, -56(%rbp)	# tmp160, pv_lim_sv
	.loc 1 457 0 discriminator 3
	cmpq	$0, -56(%rbp)	#, pv_lim_sv
	je	.L101	#,
	.loc 1 457 0 is_stmt 0 discriminator 1
	movq	-56(%rbp), %rax	# pv_lim_sv, tmp161
	movl	12(%rax), %eax	# pv_lim_sv_56->sv_flags, D.11725
	andl	$65536, %eax	#, D.11725
	testl	%eax, %eax	# D.11725
	je	.L102	#,
	.loc 1 457 0 discriminator 3
	movq	-56(%rbp), %rax	# pv_lim_sv, tmp162
	movq	(%rax), %rax	# pv_lim_sv_56->sv_any, D.11726
	movq	24(%rax), %rax	# MEM[(struct XPVIV *)_59].xiv_iv, D.11720
	jmp	.L104	#
.L102:
	.loc 1 457 0 discriminator 4
	movq	-56(%rbp), %rax	# pv_lim_sv, tmp163
	movq	%rax, %rdi	# tmp163,
	call	Perl_sv_2iv	#
	jmp	.L104	#
.L101:
	.loc 1 457 0 discriminator 2
	movl	$0, %eax	#, iftmp.112
.L104:
	.loc 1 457 0 discriminator 5
	movq	%rax, -48(%rbp)	# iftmp.112, pv_lim
	.loc 1 458 0 is_stmt 1 discriminator 5
	movl	$0, %esi	#,
	movl	$.LC16, %edi	#,
	call	Perl_get_sv	#
	movq	%rax, -40(%rbp)	# tmp164, dumpop
	.loc 1 459 0 discriminator 5
	movl	PL_dumpindent(%rip), %eax	# PL_dumpindent, tmp165
	movl	%eax, -68(%rbp)	# tmp165, save_dumpindent
	.loc 1 460 0 discriminator 5
	movl	$2, PL_dumpindent(%rip)	#, PL_dumpindent
	.loc 1 462 0 discriminator 5
	movq	$1, -64(%rbp)	#, i
	jmp	.L105	#
.L115:
	.loc 1 463 0
	movq	PL_stack_base(%rip), %rax	# PL_stack_base, PL_stack_base.114
	movl	-80(%rbp), %edx	# ax, tmp166
	movslq	%edx, %rcx	# tmp166, D.11720
	movq	-64(%rbp), %rdx	# i, tmp167
	addq	%rcx, %rdx	# D.11720, D.11720
	salq	$3, %rdx	#, D.11719
	addq	%rdx, %rax	# D.11719, D.11723
	movq	(%rax), %rax	# *_76, D.11724
	movq	%rax, %r12	# D.11724, D.11719
	movq	-64(%rbp), %rax	# i, tmp168
	leaq	-1(%rax), %r13	#, D.11720
	call	Perl_PerlIO_stderr	#
	movq	%r12, %rcx	# D.11719,
	movq	%r13, %rdx	# D.11720,
	movl	$.LC19, %esi	#,
	movq	%rax, %rdi	# D.11727,
	movl	$0, %eax	#,
	call	PerlIO_printf	#
	.loc 1 465 0
	cmpq	$0, -40(%rbp)	#, dumpop
	je	.L106	#,
	.loc 1 465 0 is_stmt 0 discriminator 1
	cmpq	$0, -40(%rbp)	#, dumpop
	je	.L106	#,
	.loc 1 465 0 discriminator 3
	movq	-40(%rbp), %rax	# dumpop, tmp169
	movl	12(%rax), %eax	# dumpop_67->sv_flags, D.11725
	andl	$262144, %eax	#, D.11725
	testl	%eax, %eax	# D.11725
	je	.L107	#,
	.loc 1 465 0 discriminator 5
	movq	-40(%rbp), %rax	# dumpop, tmp170
	movq	(%rax), %rax	# dumpop_67->sv_any, PL_Xpv.117
	movq	%rax, PL_Xpv(%rip)	# PL_Xpv.117, PL_Xpv
	movq	PL_Xpv(%rip), %rax	# PL_Xpv, PL_Xpv.118
	testq	%rax, %rax	# PL_Xpv.118
	je	.L108	#,
	.loc 1 465 0 discriminator 7
	movq	PL_Xpv(%rip), %rax	# PL_Xpv, PL_Xpv.119
	movq	8(%rax), %rax	# PL_Xpv.119_85->xpv_cur, D.11719
	cmpq	$1, %rax	#, D.11719
	ja	.L109	#,
	.loc 1 465 0 discriminator 10
	movq	PL_Xpv(%rip), %rax	# PL_Xpv, PL_Xpv.120
	movq	8(%rax), %rax	# PL_Xpv.120_87->xpv_cur, D.11719
	testq	%rax, %rax	# D.11719
	je	.L108	#,
	.loc 1 465 0 discriminator 1
	movq	PL_Xpv(%rip), %rax	# PL_Xpv, PL_Xpv.121
	movq	(%rax), %rax	# PL_Xpv.121_89->xpv_pv, D.11728
	movzbl	(%rax), %eax	# *_90, D.11729
	cmpb	$48, %al	#, D.11729
	je	.L108	#,
.L109:
	.loc 1 465 0 discriminator 9
	movl	$1, %eax	#, iftmp.116
	jmp	.L110	#
.L108:
	.loc 1 465 0 discriminator 8
	movl	$0, %eax	#, iftmp.116
.L110:
	.loc 1 465 0 discriminator 11
	andl	$1, %eax	#, D.11730
	testb	%al, %al	# D.11730
	jne	.L111	#,
	jmp	.L106	#
.L107:
	.loc 1 465 0 discriminator 6
	movq	-40(%rbp), %rax	# dumpop, tmp171
	movl	12(%rax), %eax	# dumpop_67->sv_flags, D.11725
	andl	$65536, %eax	#, D.11725
	testl	%eax, %eax	# D.11725
	je	.L112	#,
	.loc 1 465 0 discriminator 12
	movq	-40(%rbp), %rax	# dumpop, tmp172
	movq	(%rax), %rax	# dumpop_67->sv_any, D.11726
	movq	24(%rax), %rax	# MEM[(struct XPVIV *)_97].xiv_iv, D.11720
	testq	%rax, %rax	# D.11720
	jne	.L111	#,
	jmp	.L106	#
.L112:
	.loc 1 465 0 discriminator 13
	movq	-40(%rbp), %rax	# dumpop, tmp173
	movl	12(%rax), %eax	# dumpop_67->sv_flags, D.11725
	andl	$131072, %eax	#, D.11725
	testl	%eax, %eax	# D.11725
	je	.L113	#,
	.loc 1 465 0 discriminator 14
	movq	-40(%rbp), %rax	# dumpop, tmp174
	movq	(%rax), %rax	# dumpop_67->sv_any, D.11726
	movsd	32(%rax), %xmm0	# MEM[(struct XPVNV *)_101].xnv_nv, D.11731
	xorpd	%xmm1, %xmm1	# tmp175
	ucomisd	%xmm1, %xmm0	# tmp175, D.11731
	jp	.L111	#,
	xorpd	%xmm1, %xmm1	# tmp176
	ucomisd	%xmm1, %xmm0	# tmp176, D.11731
	jne	.L111	#,
	jmp	.L106	#
.L113:
	.loc 1 465 0 discriminator 15
	movq	-40(%rbp), %rax	# dumpop, tmp177
	movq	%rax, %rdi	# tmp177,
	call	Perl_sv_2bool	#
	testb	%al, %al	# D.11729
	je	.L106	#,
.L111:
	.loc 1 465 0 discriminator 16
	movl	$1, %eax	#, iftmp.115
	jmp	.L114	#
.L106:
	.loc 1 465 0 discriminator 2
	movl	$0, %eax	#, iftmp.115
.L114:
	.loc 1 464 0 is_stmt 1 discriminator 17
	movsbl	%al, %r13d	# D.11729, D.11718
	movq	PL_stack_base(%rip), %rax	# PL_stack_base, PL_stack_base.122
	movl	-80(%rbp), %edx	# ax, tmp178
	movslq	%edx, %rcx	# tmp178, D.11720
	movq	-64(%rbp), %rdx	# i, tmp179
	addq	%rcx, %rdx	# D.11720, D.11720
	salq	$3, %rdx	#, D.11719
	addq	%rdx, %rax	# D.11719, D.11723
	movq	(%rax), %r12	# *_113, D.11724
	call	Perl_PerlIO_stderr	#
	movl	-72(%rbp), %ecx	# lim, tmp180
	movq	-48(%rbp), %rdx	# pv_lim, tmp181
	movq	%rdx, (%rsp)	# tmp181,
	movl	%r13d, %r9d	# D.11718,
	movl	%ecx, %r8d	# tmp180,
	movl	$0, %ecx	#,
	movq	%r12, %rdx	# D.11724,
	movq	%rax, %rsi	# D.11727,
	movl	$0, %edi	#,
	call	Perl_do_sv_dump	#
	.loc 1 462 0 discriminator 17
	addq	$1, -64(%rbp)	#, i
.L105:
	.loc 1 462 0 is_stmt 0 discriminator 1
	movl	-76(%rbp), %eax	# items, tmp182
	cltq
	cmpq	-64(%rbp), %rax	# i, D.11720
	jg	.L115	#,
	.loc 1 467 0 is_stmt 1
	movl	-68(%rbp), %eax	# save_dumpindent, tmp183
	movl	%eax, PL_dumpindent(%rip)	# tmp183, PL_dumpindent
.LBE15:
	.loc 1 470 0
	movq	%rbx, PL_stack_sp(%rip)	# sp, PL_stack_sp
	.loc 1 471 0
	nop
.LBE14:
	.loc 1 473 0
	addq	$72, %rsp	#,
	popq	%rbx	#
	popq	%r12	#
	popq	%r13	#
	popq	%rbp	#
	.cfi_def_cfa 7, 8
	ret
	.cfi_endproc
.LFE12:
	.size	XS_Devel__Peek_DumpArray, .-XS_Devel__Peek_DumpArray
	.section	.rodata
	.align 8
.LC20:
	.string	"Usage: Devel::Peek::DumpProg()"
.LC21:
	.string	"dumpindent is %d"
	.text
	.globl	XS_Devel__Peek_DumpProg
	.type	XS_Devel__Peek_DumpProg, @function
XS_Devel__Peek_DumpProg:
.LFB13:
	.loc 1 477 0
	.cfi_startproc
	pushq	%rbp	#
	.cfi_def_cfa_offset 16
	.cfi_offset 6, -16
	movq	%rsp, %rbp	#,
	.cfi_def_cfa_register 6
	pushq	%r12	#
	pushq	%rbx	#
	subq	$32, %rsp	#,
	.cfi_offset 12, -24
	.cfi_offset 3, -32
	movq	%rdi, -40(%rbp)	# cv, cv
	.loc 1 478 0
	movq	PL_stack_sp(%rip), %rbx	# PL_stack_sp, sp
	movq	PL_stack_base(%rip), %rcx	# PL_stack_base, PL_stack_base.123
	movq	PL_markstack_ptr(%rip), %rax	# PL_markstack_ptr, PL_markstack_ptr.124
	leaq	-4(%rax), %rdx	#, PL_markstack_ptr.126
	movq	%rdx, PL_markstack_ptr(%rip)	# PL_markstack_ptr.126, PL_markstack_ptr
	movl	(%rax), %eax	# *PL_markstack_ptr.125_4, D.11734
	cltq
	salq	$3, %rax	#, D.11735
	leaq	(%rcx,%rax), %r12	#, mark
	movq	%r12, %rdx	# mark, mark.127
	movq	PL_stack_base(%rip), %rax	# PL_stack_base, PL_stack_base.128
	subq	%rax, %rdx	# PL_stack_base.129, D.11736
	movq	%rdx, %rax	# D.11736, D.11736
	sarq	$3, %rax	#, tmp85
	addl	$1, %eax	#, D.11737
	movl	%eax, -24(%rbp)	# D.11737, ax
	movq	%rbx, %rdx	# sp, sp.130
	movq	%r12, %rax	# mark, mark.131
	subq	%rax, %rdx	# mark.131, D.11736
	movq	%rdx, %rax	# D.11736, D.11736
	sarq	$3, %rax	#, tmp86
	movl	%eax, -20(%rbp)	# D.11736, items
	.loc 1 479 0
	cmpl	$0, -20(%rbp)	#, items
	je	.L121	#,
	.loc 1 480 0
	movl	$.LC20, %edi	#,
	movl	$0, %eax	#,
	call	Perl_croak	#
.L121:
	.loc 1 482 0
	movl	-20(%rbp), %eax	# items, tmp87
	cltq
	salq	$3, %rax	#, D.11735
	negq	%rax	# D.11738
	addq	%rax, %rbx	# D.11738, sp
	.loc 1 486 0
	movl	PL_dumpindent(%rip), %eax	# PL_dumpindent, PL_dumpindent.132
	movl	%eax, %esi	# PL_dumpindent.132,
	movl	$.LC21, %edi	#,
	movl	$0, %eax	#,
	call	Perl_warn	#
	.loc 1 487 0
	movq	PL_main_root(%rip), %rax	# PL_main_root, PL_main_root.133
	testq	%rax, %rax	# PL_main_root.133
	je	.L119	#,
	.loc 1 488 0
	movq	PL_main_root(%rip), %rax	# PL_main_root, PL_main_root.134
	movq	%rax, %rdi	# PL_main_root.134,
	call	Perl_op_dump	#
.L119:
	.loc 1 491 0
	movq	%rbx, PL_stack_sp(%rip)	# sp, PL_stack_sp
	.loc 1 492 0
	nop
	.loc 1 494 0
	addq	$32, %rsp	#,
	popq	%rbx	#
	popq	%r12	#
	popq	%rbp	#
	.cfi_def_cfa 7, 8
	ret
	.cfi_endproc
.LFE13:
	.size	XS_Devel__Peek_DumpProg, .-XS_Devel__Peek_DumpProg
	.section	.rodata
	.align 8
.LC22:
	.string	"Usage: Devel::Peek::SvREFCNT(sv)"
	.text
	.globl	XS_Devel__Peek_SvREFCNT
	.type	XS_Devel__Peek_SvREFCNT, @function
XS_Devel__Peek_SvREFCNT:
.LFB14:
	.loc 1 498 0
	.cfi_startproc
	pushq	%rbp	#
	.cfi_def_cfa_offset 16
	.cfi_offset 6, -16
	movq	%rsp, %rbp	#,
	.cfi_def_cfa_register 6
	pushq	%r12	#
	pushq	%rbx	#
	subq	$64, %rsp	#,
	.cfi_offset 12, -24
	.cfi_offset 3, -32
	movq	%rdi, -72(%rbp)	# cv, cv
	.loc 1 499 0
	movq	PL_stack_sp(%rip), %rbx	# PL_stack_sp, sp
	movq	PL_stack_base(%rip), %rcx	# PL_stack_base, PL_stack_base.135
	movq	PL_markstack_ptr(%rip), %rax	# PL_markstack_ptr, PL_markstack_ptr.136
	leaq	-4(%rax), %rdx	#, PL_markstack_ptr.138
	movq	%rdx, PL_markstack_ptr(%rip)	# PL_markstack_ptr.138, PL_markstack_ptr
	movl	(%rax), %eax	# *PL_markstack_ptr.137_5, D.11741
	cltq
	salq	$3, %rax	#, D.11742
	leaq	(%rcx,%rax), %r12	#, mark
	movq	%r12, %rdx	# mark, mark.139
	movq	PL_stack_base(%rip), %rax	# PL_stack_base, PL_stack_base.140
	subq	%rax, %rdx	# PL_stack_base.141, D.11743
	movq	%rdx, %rax	# D.11743, D.11743
	sarq	$3, %rax	#, tmp109
	addl	$1, %eax	#, D.11744
	movl	%eax, -52(%rbp)	# D.11744, ax
	movq	%rbx, %rdx	# sp, sp.142
	movq	%r12, %rax	# mark, mark.143
	subq	%rax, %rdx	# mark.143, D.11743
	movq	%rdx, %rax	# D.11743, D.11743
	sarq	$3, %rax	#, tmp110
	movl	%eax, -48(%rbp)	# D.11743, items
	.loc 1 500 0
	cmpl	$1, -48(%rbp)	#, items
	je	.L123	#,
	.loc 1 501 0
	movl	$.LC22, %edi	#,
	movl	$0, %eax	#,
	call	Perl_croak	#
.L123:
.LBB16:
	.loc 1 503 0
	movq	PL_stack_base(%rip), %rax	# PL_stack_base, PL_stack_base.144
	movl	-52(%rbp), %edx	# ax, tmp111
	movslq	%edx, %rdx	# tmp111, D.11742
	salq	$3, %rdx	#, D.11742
	addq	%rdx, %rax	# D.11742, D.11745
	movq	(%rax), %rax	# *_27, tmp112
	movq	%rax, -40(%rbp)	# tmp112, sv
	.loc 1 505 0
	movq	PL_op(%rip), %rax	# PL_op, PL_op.146
	movzbl	37(%rax), %eax	# PL_op.146_29->op_private, D.11746
	movzbl	%al, %eax	# D.11746, D.11741
	andl	$32, %eax	#, D.11741
	testl	%eax, %eax	# D.11741
	je	.L124	#,
	.loc 1 505 0 is_stmt 0 discriminator 1
	movq	PL_curpad(%rip), %rdx	# PL_curpad, PL_curpad.147
	movq	PL_op(%rip), %rax	# PL_op, PL_op.148
	movq	24(%rax), %rax	# PL_op.148_34->op_targ, D.11742
	salq	$3, %rax	#, D.11742
	addq	%rdx, %rax	# PL_curpad.147, D.11745
	movq	(%rax), %rax	# *_37, iftmp.145
	jmp	.L125	#
.L124:
	.loc 1 505 0 discriminator 2
	call	Perl_sv_newmortal	#
.L125:
	.loc 1 505 0 discriminator 3
	movq	%rax, -32(%rbp)	# iftmp.145, targ
	.loc 1 507 0 is_stmt 1 discriminator 3
	movq	-40(%rbp), %rax	# sv, tmp113
	movl	8(%rax), %eax	# sv_28->sv_refcnt, D.11747
	movl	%eax, -44(%rbp)	# D.11747, RETVAL
	.loc 1 508 0 discriminator 3
	movq	PL_stack_base(%rip), %rax	# PL_stack_base, PL_stack_base.149
	movl	-52(%rbp), %edx	# ax, tmp114
	movslq	%edx, %rdx	# tmp114, D.11742
	salq	$3, %rdx	#, D.11742
	subq	$8, %rdx	#, D.11748
	leaq	(%rax,%rdx), %rbx	#, sp
.LBB17:
	movl	-44(%rbp), %eax	# RETVAL, tmp115
	movslq	%eax, %rdx	# tmp115, D.11743
	movq	-32(%rbp), %rax	# targ, tmp116
	movq	%rdx, %rsi	# D.11743,
	movq	%rax, %rdi	# tmp116,
	call	Perl_sv_setiv	#
.LBB18:
	movq	-32(%rbp), %rax	# targ, tmp117
	movl	12(%rax), %eax	# targ_40->sv_flags, D.11747
	andl	$16384, %eax	#, D.11747
	testl	%eax, %eax	# D.11747
	je	.L126	#,
	.loc 1 508 0 is_stmt 0 discriminator 1
	movq	-32(%rbp), %rax	# targ, tmp118
	movq	%rax, %rdi	# tmp118,
	call	Perl_mg_set	#
.L126:
	.loc 1 508 0 discriminator 2
	addq	$8, %rbx	#, sp
	movq	-32(%rbp), %rax	# targ, tmp119
	movq	%rax, (%rbx)	# tmp119, *sp_51
.LBE18:
.LBE17:
.LBE16:
.LBB19:
	.loc 1 510 0 is_stmt 1 discriminator 2
	movq	$1, -24(%rbp)	#, tmpXSoff
	movq	PL_stack_base(%rip), %rax	# PL_stack_base, PL_stack_base.150
	movl	-52(%rbp), %edx	# ax, tmp120
	movslq	%edx, %rcx	# tmp120, D.11748
	movq	-24(%rbp), %rdx	# tmpXSoff, tmpXSoff.151
	addq	%rcx, %rdx	# D.11748, D.11748
	salq	$3, %rdx	#, D.11748
	subq	$8, %rdx	#, D.11748
	addq	%rdx, %rax	# D.11748, PL_stack_sp.152
	movq	%rax, PL_stack_sp(%rip)	# PL_stack_sp.152, PL_stack_sp
	nop
.LBE19:
	.loc 1 511 0 discriminator 2
	addq	$64, %rsp	#,
	popq	%rbx	#
	popq	%r12	#
	popq	%rbp	#
	.cfi_def_cfa 7, 8
	ret
	.cfi_endproc
.LFE14:
	.size	XS_Devel__Peek_SvREFCNT, .-XS_Devel__Peek_SvREFCNT
	.section	.rodata
	.align 8
.LC23:
	.string	"Usage: Devel::Peek::SvREFCNT_inc(sv)"
	.text
	.globl	XS_Devel__Peek_SvREFCNT_inc
	.type	XS_Devel__Peek_SvREFCNT_inc, @function
XS_Devel__Peek_SvREFCNT_inc:
.LFB15:
	.loc 1 515 0
	.cfi_startproc
	pushq	%rbp	#
	.cfi_def_cfa_offset 16
	.cfi_offset 6, -16
	movq	%rsp, %rbp	#,
	.cfi_def_cfa_register 6
	pushq	%r12	#
	pushq	%rbx	#
	subq	$48, %rsp	#,
	.cfi_offset 12, -24
	.cfi_offset 3, -32
	movq	%rdi, -56(%rbp)	# cv, cv
	.loc 1 516 0
	movq	PL_stack_sp(%rip), %rbx	# PL_stack_sp, sp
	movq	PL_stack_base(%rip), %rcx	# PL_stack_base, PL_stack_base.153
	movq	PL_markstack_ptr(%rip), %rax	# PL_markstack_ptr, PL_markstack_ptr.154
	leaq	-4(%rax), %rdx	#, PL_markstack_ptr.156
	movq	%rdx, PL_markstack_ptr(%rip)	# PL_markstack_ptr.156, PL_markstack_ptr
	movl	(%rax), %eax	# *PL_markstack_ptr.155_4, D.11751
	cltq
	salq	$3, %rax	#, D.11752
	leaq	(%rcx,%rax), %r12	#, mark
	movq	%r12, %rdx	# mark, mark.157
	movq	PL_stack_base(%rip), %rax	# PL_stack_base, PL_stack_base.158
	subq	%rax, %rdx	# PL_stack_base.159, D.11753
	movq	%rdx, %rax	# D.11753, D.11753
	sarq	$3, %rax	#, tmp93
	addl	$1, %eax	#, D.11754
	movl	%eax, -40(%rbp)	# D.11754, ax
	movq	%rbx, %rdx	# sp, sp.160
	movq	%r12, %rax	# mark, mark.161
	subq	%rax, %rdx	# mark.161, D.11753
	movq	%rdx, %rax	# D.11753, D.11753
	sarq	$3, %rax	#, tmp94
	movl	%eax, -36(%rbp)	# D.11753, items
	.loc 1 517 0
	cmpl	$1, -36(%rbp)	#, items
	je	.L129	#,
	.loc 1 518 0
	movl	$.LC23, %edi	#,
	movl	$0, %eax	#,
	call	Perl_croak	#
.L129:
	.loc 1 519 0
	movl	-36(%rbp), %eax	# items, tmp95
	cltq
	salq	$3, %rax	#, D.11752
	negq	%rax	# D.11755
	addq	%rax, %rbx	# D.11755, sp
.LBB20:
	.loc 1 521 0
	movq	PL_stack_base(%rip), %rax	# PL_stack_base, PL_stack_base.162
	movl	-40(%rbp), %edx	# ax, tmp96
	movslq	%edx, %rdx	# tmp96, D.11752
	salq	$3, %rdx	#, D.11752
	addq	%rdx, %rax	# D.11752, D.11756
	movq	(%rax), %rax	# *_30, tmp97
	movq	%rax, -32(%rbp)	# tmp97, sv
	.loc 1 525 0
	movq	-32(%rbp), %rax	# sv, tmp98
	movq	%rax, PL_Sv(%rip)	# tmp98, PL_Sv
	movq	PL_Sv(%rip), %rax	# PL_Sv, PL_Sv.164
	testq	%rax, %rax	# PL_Sv.164
	je	.L131	#,
	.loc 1 525 0 is_stmt 0 discriminator 1
	movq	PL_Sv(%rip), %rax	# PL_Sv, PL_Sv.165
	movl	8(%rax), %edx	# PL_Sv.165_33->sv_refcnt, D.11757
	addl	$1, %edx	#, D.11757
	movl	%edx, 8(%rax)	# D.11757, PL_Sv.165_33->sv_refcnt
	movl	8(%rax), %eax	# PL_Sv.165_33->sv_refcnt, D.11757
	testl	%eax, %eax	# D.11757
	je	.L131	#,
	.loc 1 525 0
	nop
.L131:
	.loc 1 525 0 discriminator 4
	movq	PL_Sv(%rip), %rax	# PL_Sv, tmp99
	movq	%rax, -24(%rbp)	# tmp99, RETVAL
	.loc 1 526 0 is_stmt 1 discriminator 4
	addq	$8, %rbx	#, sp
	movq	-24(%rbp), %rax	# RETVAL, tmp100
	movq	%rax, (%rbx)	# tmp100, *sp_40
	.loc 1 529 0 discriminator 4
	movq	%rbx, PL_stack_sp(%rip)	# sp, PL_stack_sp
	.loc 1 530 0 discriminator 4
	nop
.LBE20:
	.loc 1 532 0 discriminator 4
	addq	$48, %rsp	#,
	popq	%rbx	#
	popq	%r12	#
	popq	%rbp	#
	.cfi_def_cfa 7, 8
	ret
	.cfi_endproc
.LFE15:
	.size	XS_Devel__Peek_SvREFCNT_inc, .-XS_Devel__Peek_SvREFCNT_inc
	.section	.rodata
	.align 8
.LC24:
	.string	"Usage: Devel::Peek::SvREFCNT_dec(sv)"
	.text
	.globl	XS_Devel__Peek_SvREFCNT_dec
	.type	XS_Devel__Peek_SvREFCNT_dec, @function
XS_Devel__Peek_SvREFCNT_dec:
.LFB16:
	.loc 1 536 0
	.cfi_startproc
	pushq	%rbp	#
	.cfi_def_cfa_offset 16
	.cfi_offset 6, -16
	movq	%rsp, %rbp	#,
	.cfi_def_cfa_register 6
	pushq	%r12	#
	pushq	%rbx	#
	subq	$32, %rsp	#,
	.cfi_offset 12, -24
	.cfi_offset 3, -32
	movq	%rdi, -40(%rbp)	# cv, cv
	.loc 1 537 0
	movq	PL_stack_sp(%rip), %rbx	# PL_stack_sp, sp
	movq	PL_stack_base(%rip), %rcx	# PL_stack_base, PL_stack_base.166
	movq	PL_markstack_ptr(%rip), %rax	# PL_markstack_ptr, PL_markstack_ptr.167
	leaq	-4(%rax), %rdx	#, PL_markstack_ptr.169
	movq	%rdx, PL_markstack_ptr(%rip)	# PL_markstack_ptr.169, PL_markstack_ptr
	movl	(%rax), %eax	# *PL_markstack_ptr.168_4, D.11759
	cltq
	salq	$3, %rax	#, D.11760
	leaq	(%rcx,%rax), %r12	#, mark
	movq	%r12, %rdx	# mark, mark.170
	movq	PL_stack_base(%rip), %rax	# PL_stack_base, PL_stack_base.171
	subq	%rax, %rdx	# PL_stack_base.172, D.11761
	movq	%rdx, %rax	# D.11761, D.11761
	sarq	$3, %rax	#, tmp86
	addl	$1, %eax	#, D.11762
	movl	%eax, -32(%rbp)	# D.11762, ax
	movq	%rbx, %rdx	# sp, sp.173
	movq	%r12, %rax	# mark, mark.174
	subq	%rax, %rdx	# mark.174, D.11761
	movq	%rdx, %rax	# D.11761, D.11761
	sarq	$3, %rax	#, tmp87
	movl	%eax, -28(%rbp)	# D.11761, items
	.loc 1 538 0
	cmpl	$1, -28(%rbp)	#, items
	je	.L134	#,
	.loc 1 539 0
	movl	$.LC24, %edi	#,
	movl	$0, %eax	#,
	call	Perl_croak	#
.L134:
	.loc 1 540 0
	movl	-28(%rbp), %eax	# items, tmp88
	cltq
	salq	$3, %rax	#, D.11760
	negq	%rax	# D.11763
	addq	%rax, %rbx	# D.11763, sp
.LBB21:
	.loc 1 542 0
	movq	PL_stack_base(%rip), %rax	# PL_stack_base, PL_stack_base.175
	movl	-32(%rbp), %edx	# ax, tmp89
	movslq	%edx, %rdx	# tmp89, D.11760
	salq	$3, %rdx	#, D.11760
	addq	%rdx, %rax	# D.11760, D.11764
	movq	(%rax), %rax	# *_30, tmp90
	movq	%rax, -24(%rbp)	# tmp90, sv
	.loc 1 545 0
	movq	-24(%rbp), %rax	# sv, tmp91
	movq	%rax, %rdi	# tmp91,
	call	Perl_sv_free	#
	.loc 1 546 0
	addq	$8, %rbx	#, sp
	movq	-24(%rbp), %rax	# sv, tmp92
	movq	%rax, (%rbx)	# tmp92, *sp_32
	.loc 1 549 0
	movq	%rbx, PL_stack_sp(%rip)	# sp, PL_stack_sp
	.loc 1 550 0
	nop
.LBE21:
	.loc 1 552 0
	addq	$32, %rsp	#,
	popq	%rbx	#
	popq	%r12	#
	popq	%rbp	#
	.cfi_def_cfa 7, 8
	ret
	.cfi_endproc
.LFE16:
	.size	XS_Devel__Peek_SvREFCNT_dec, .-XS_Devel__Peek_SvREFCNT_dec
	.section	.rodata
	.align 8
.LC25:
	.string	"Usage: Devel::Peek::DeadCode()"
	.text
	.globl	XS_Devel__Peek_DeadCode
	.type	XS_Devel__Peek_DeadCode, @function
XS_Devel__Peek_DeadCode:
.LFB17:
	.loc 1 556 0
	.cfi_startproc
	pushq	%rbp	#
	.cfi_def_cfa_offset 16
	.cfi_offset 6, -16
	movq	%rsp, %rbp	#,
	.cfi_def_cfa_register 6
	pushq	%r12	#
	pushq	%rbx	#
	subq	$48, %rsp	#,
	.cfi_offset 12, -24
	.cfi_offset 3, -32
	movq	%rdi, -56(%rbp)	# cv, cv
	.loc 1 557 0
	movq	PL_stack_sp(%rip), %r12	# PL_stack_sp, sp
	movq	PL_stack_base(%rip), %rcx	# PL_stack_base, PL_stack_base.176
	movq	PL_markstack_ptr(%rip), %rax	# PL_markstack_ptr, PL_markstack_ptr.177
	leaq	-4(%rax), %rdx	#, PL_markstack_ptr.179
	movq	%rdx, PL_markstack_ptr(%rip)	# PL_markstack_ptr.179, PL_markstack_ptr
	movl	(%rax), %eax	# *PL_markstack_ptr.178_4, D.11766
	cltq
	salq	$3, %rax	#, D.11767
	leaq	(%rcx,%rax), %rbx	#, mark
	movq	%rbx, %rdx	# mark, mark.180
	movq	PL_stack_base(%rip), %rax	# PL_stack_base, PL_stack_base.181
	subq	%rax, %rdx	# PL_stack_base.182, D.11768
	movq	%rdx, %rax	# D.11768, D.11768
	sarq	$3, %rax	#, tmp95
	addl	$1, %eax	#, D.11769
	movl	%eax, -40(%rbp)	# D.11769, ax
	movq	%r12, %rdx	# sp, sp.183
	movq	%rbx, %rax	# mark, mark.184
	subq	%rax, %rdx	# mark.184, D.11768
	movq	%rdx, %rax	# D.11768, D.11768
	sarq	$3, %rax	#, tmp96
	movl	%eax, -36(%rbp)	# D.11768, items
	.loc 1 558 0
	cmpl	$0, -36(%rbp)	#, items
	je	.L137	#,
	.loc 1 559 0
	movl	$.LC25, %edi	#,
	movl	$0, %eax	#,
	call	Perl_croak	#
.L137:
.LBB22:
	.loc 1 563 0
	call	DeadCode	#
	movq	%rax, -32(%rbp)	# tmp97, RETVAL
	.loc 1 565 0
	movq	PL_stack_base(%rip), %rax	# PL_stack_base, PL_stack_base.185
	movl	-40(%rbp), %edx	# ax, tmp98
	movslq	%edx, %rdx	# tmp98, D.11767
	salq	$3, %rdx	#, D.11767
	addq	%rax, %rdx	# PL_stack_base.185, D.11770
	movq	-32(%rbp), %rax	# RETVAL, tmp99
	movq	%rax, (%rdx)	# tmp99, *_27
	.loc 1 566 0
	movq	PL_stack_base(%rip), %rax	# PL_stack_base, PL_stack_base.186
	movl	-40(%rbp), %edx	# ax, tmp100
	movslq	%edx, %rdx	# tmp100, D.11767
	salq	$3, %rdx	#, D.11767
	addq	%rdx, %rax	# D.11767, D.11770
	movq	(%rax), %rax	# *_31, D.11771
	movq	%rax, %rdi	# D.11771,
	call	Perl_sv_2mortal	#
.LBE22:
.LBB23:
	.loc 1 568 0
	movq	$1, -24(%rbp)	#, tmpXSoff
	movq	PL_stack_base(%rip), %rax	# PL_stack_base, PL_stack_base.187
	movl	-40(%rbp), %edx	# ax, tmp101
	movslq	%edx, %rcx	# tmp101, D.11772
	movq	-24(%rbp), %rdx	# tmpXSoff, tmpXSoff.188
	addq	%rcx, %rdx	# D.11772, D.11772
	salq	$3, %rdx	#, D.11772
	subq	$8, %rdx	#, D.11772
	addq	%rdx, %rax	# D.11772, PL_stack_sp.189
	movq	%rax, PL_stack_sp(%rip)	# PL_stack_sp.189, PL_stack_sp
	nop
.LBE23:
	.loc 1 569 0
	addq	$48, %rsp	#,
	popq	%rbx	#
	popq	%r12	#
	popq	%rbp	#
	.cfi_def_cfa 7, 8
	ret
	.cfi_endproc
.LFE17:
	.size	XS_Devel__Peek_DeadCode, .-XS_Devel__Peek_DeadCode
	.section	.rodata
.LC26:
	.string	"Usage: Devel::Peek::CvGV(cv)"
	.text
	.globl	XS_Devel__Peek_CvGV
	.type	XS_Devel__Peek_CvGV, @function
XS_Devel__Peek_CvGV:
.LFB18:
	.loc 1 573 0
	.cfi_startproc
	pushq	%rbp	#
	.cfi_def_cfa_offset 16
	.cfi_offset 6, -16
	movq	%rsp, %rbp	#,
	.cfi_def_cfa_register 6
	pushq	%r12	#
	pushq	%rbx	#
	subq	$48, %rsp	#,
	.cfi_offset 12, -24
	.cfi_offset 3, -32
	movq	%rdi, -56(%rbp)	# cv, cv
	.loc 1 574 0
	movq	PL_stack_sp(%rip), %r12	# PL_stack_sp, sp
	movq	PL_stack_base(%rip), %rcx	# PL_stack_base, PL_stack_base.190
	movq	PL_markstack_ptr(%rip), %rax	# PL_markstack_ptr, PL_markstack_ptr.191
	leaq	-4(%rax), %rdx	#, PL_markstack_ptr.193
	movq	%rdx, PL_markstack_ptr(%rip)	# PL_markstack_ptr.193, PL_markstack_ptr
	movl	(%rax), %eax	# *PL_markstack_ptr.192_5, D.11774
	cltq
	salq	$3, %rax	#, D.11775
	leaq	(%rcx,%rax), %rbx	#, mark
	movq	%rbx, %rdx	# mark, mark.194
	movq	PL_stack_base(%rip), %rax	# PL_stack_base, PL_stack_base.195
	subq	%rax, %rdx	# PL_stack_base.196, D.11776
	movq	%rdx, %rax	# D.11776, D.11776
	sarq	$3, %rax	#, tmp117
	addl	$1, %eax	#, D.11777
	movl	%eax, -48(%rbp)	# D.11777, ax
	movq	%r12, %rdx	# sp, sp.197
	movq	%rbx, %rax	# mark, mark.198
	subq	%rax, %rdx	# mark.198, D.11776
	movq	%rdx, %rax	# D.11776, D.11776
	sarq	$3, %rax	#, tmp118
	movl	%eax, -44(%rbp)	# D.11776, items
	.loc 1 575 0
	cmpl	$1, -44(%rbp)	#, items
	je	.L140	#,
	.loc 1 576 0
	movl	$.LC26, %edi	#,
	movl	$0, %eax	#,
	call	Perl_croak	#
.L140:
.LBB24:
	.loc 1 578 0
	movq	PL_stack_base(%rip), %rax	# PL_stack_base, PL_stack_base.199
	movl	-48(%rbp), %edx	# ax, tmp119
	movslq	%edx, %rdx	# tmp119, D.11775
	salq	$3, %rdx	#, D.11775
	addq	%rdx, %rax	# D.11775, D.11778
	movq	(%rax), %rax	# *_27, tmp120
	movq	%rax, -40(%rbp)	# tmp120, cv
	.loc 1 581 0
	movq	-40(%rbp), %rax	# cv, tmp121
	movl	12(%rax), %eax	# cv_28->sv_flags, D.11779
	andl	$524288, %eax	#, D.11779
	testl	%eax, %eax	# D.11779
	je	.L141	#,
	.loc 1 581 0 is_stmt 0 discriminator 1
	movq	-40(%rbp), %rax	# cv, tmp122
	movq	(%rax), %rax	# cv_28->sv_any, D.11780
	movq	(%rax), %rax	# MEM[(struct XRV *)_31].xrv_rv, D.11781
	movl	12(%rax), %eax	# _32->sv_flags, D.11779
	movzbl	%al, %eax	# D.11779, D.11779
	cmpl	$12, %eax	#, D.11779
	jne	.L141	#,
	movq	-40(%rbp), %rax	# cv, tmp123
	movq	(%rax), %rax	# cv_28->sv_any, D.11780
	movq	(%rax), %rax	# MEM[(struct XRV *)_35].xrv_rv, D.11781
	movq	(%rax), %rax	# MEM[(struct CV *)_36].sv_any, D.11782
	movq	96(%rax), %rax	# _37->xcv_gv, PL_Sv.201
	movq	%rax, PL_Sv(%rip)	# PL_Sv.201, PL_Sv
	movq	PL_Sv(%rip), %rax	# PL_Sv, PL_Sv.203
	testq	%rax, %rax	# PL_Sv.203
	je	.L143	#,
	movq	PL_Sv(%rip), %rax	# PL_Sv, PL_Sv.204
	movl	8(%rax), %edx	# PL_Sv.204_40->sv_refcnt, D.11779
	addl	$1, %edx	#, D.11779
	movl	%edx, 8(%rax)	# D.11779, PL_Sv.204_40->sv_refcnt
	movl	8(%rax), %eax	# PL_Sv.204_40->sv_refcnt, D.11779
	testl	%eax, %eax	# D.11779
	je	.L143	#,
	.loc 1 581 0
	nop
.L143:
	.loc 1 581 0 discriminator 4
	movq	PL_Sv(%rip), %rax	# PL_Sv, iftmp.200
	jmp	.L144	#
.L141:
	.loc 1 581 0 discriminator 2
	movl	$PL_sv_undef, %eax	#, iftmp.200
.L144:
	.loc 1 581 0 discriminator 3
	movq	%rax, -32(%rbp)	# iftmp.200, RETVAL
	.loc 1 582 0 is_stmt 1 discriminator 3
	movq	PL_stack_base(%rip), %rax	# PL_stack_base, PL_stack_base.205
	movl	-48(%rbp), %edx	# ax, tmp124
	movslq	%edx, %rdx	# tmp124, D.11775
	salq	$3, %rdx	#, D.11775
	addq	%rax, %rdx	# PL_stack_base.205, D.11778
	movq	-32(%rbp), %rax	# RETVAL, tmp125
	movq	%rax, (%rdx)	# tmp125, *_52
	.loc 1 583 0 discriminator 3
	movq	PL_stack_base(%rip), %rax	# PL_stack_base, PL_stack_base.206
	movl	-48(%rbp), %edx	# ax, tmp126
	movslq	%edx, %rdx	# tmp126, D.11775
	salq	$3, %rdx	#, D.11775
	addq	%rdx, %rax	# D.11775, D.11778
	movq	(%rax), %rax	# *_56, D.11781
	movq	%rax, %rdi	# D.11781,
	call	Perl_sv_2mortal	#
.LBE24:
.LBB25:
	.loc 1 585 0 discriminator 3
	movq	$1, -24(%rbp)	#, tmpXSoff
	movq	PL_stack_base(%rip), %rax	# PL_stack_base, PL_stack_base.207
	movl	-48(%rbp), %edx	# ax, tmp127
	movslq	%edx, %rcx	# tmp127, D.11783
	movq	-24(%rbp), %rdx	# tmpXSoff, tmpXSoff.208
	addq	%rcx, %rdx	# D.11783, D.11783
	salq	$3, %rdx	#, D.11783
	subq	$8, %rdx	#, D.11783
	addq	%rdx, %rax	# D.11783, PL_stack_sp.209
	movq	%rax, PL_stack_sp(%rip)	# PL_stack_sp.209, PL_stack_sp
	nop
.LBE25:
	.loc 1 586 0 discriminator 3
	addq	$48, %rsp	#,
	popq	%rbx	#
	popq	%r12	#
	popq	%rbp	#
	.cfi_def_cfa 7, 8
	ret
	.cfi_endproc
.LFE18:
	.size	XS_Devel__Peek_CvGV, .-XS_Devel__Peek_CvGV
	.section	.rodata
	.align 8
.LC27:
	.string	"Usage: Devel::Peek::runops_debug(flag= -1)"
	.text
	.globl	XS_Devel__Peek_runops_debug
	.type	XS_Devel__Peek_runops_debug, @function
XS_Devel__Peek_runops_debug:
.LFB19:
	.loc 1 590 0
	.cfi_startproc
	pushq	%rbp	#
	.cfi_def_cfa_offset 16
	.cfi_offset 6, -16
	movq	%rsp, %rbp	#,
	.cfi_def_cfa_register 6
	pushq	%r12	#
	pushq	%rbx	#
	subq	$48, %rsp	#,
	.cfi_offset 12, -24
	.cfi_offset 3, -32
	movq	%rdi, -56(%rbp)	# cv, cv
	.loc 1 591 0
	movq	PL_stack_sp(%rip), %r12	# PL_stack_sp, sp
	movq	PL_stack_base(%rip), %rcx	# PL_stack_base, PL_stack_base.210
	movq	PL_markstack_ptr(%rip), %rax	# PL_markstack_ptr, PL_markstack_ptr.211
	leaq	-4(%rax), %rdx	#, PL_markstack_ptr.213
	movq	%rdx, PL_markstack_ptr(%rip)	# PL_markstack_ptr.213, PL_markstack_ptr
	movl	(%rax), %eax	# *PL_markstack_ptr.212_7, D.11785
	cltq
	salq	$3, %rax	#, D.11786
	leaq	(%rcx,%rax), %rbx	#, mark
	movq	%rbx, %rdx	# mark, mark.214
	movq	PL_stack_base(%rip), %rax	# PL_stack_base, PL_stack_base.215
	subq	%rax, %rdx	# PL_stack_base.216, D.11787
	movq	%rdx, %rax	# D.11787, D.11787
	sarq	$3, %rax	#, tmp117
	addl	$1, %eax	#, D.11788
	movl	%eax, -32(%rbp)	# D.11788, ax
	movq	%r12, %rdx	# sp, sp.217
	movq	%rbx, %rax	# mark, mark.218
	subq	%rax, %rdx	# mark.218, D.11787
	movq	%rdx, %rax	# D.11787, D.11787
	sarq	$3, %rax	#, tmp118
	movl	%eax, -28(%rbp)	# D.11787, items
	.loc 1 592 0
	cmpl	$0, -28(%rbp)	#, items
	js	.L147	#,
	.loc 1 592 0 is_stmt 0 discriminator 1
	cmpl	$1, -28(%rbp)	#, items
	jle	.L148	#,
.L147:
	.loc 1 593 0 is_stmt 1
	movl	$.LC27, %edi	#,
	movl	$0, %eax	#,
	call	Perl_croak	#
.L148:
.LBB26:
	.loc 1 598 0
	cmpl	$0, -28(%rbp)	#, items
	jg	.L149	#,
	.loc 1 599 0
	movl	$-1, -36(%rbp)	#, flag
	jmp	.L150	#
.L149:
	.loc 1 601 0
	movq	PL_stack_base(%rip), %rax	# PL_stack_base, PL_stack_base.220
	movl	-32(%rbp), %edx	# ax, tmp119
	movslq	%edx, %rdx	# tmp119, D.11786
	salq	$3, %rdx	#, D.11786
	addq	%rdx, %rax	# D.11786, D.11789
	movq	(%rax), %rax	# *_30, D.11790
	movl	12(%rax), %eax	# _31->sv_flags, D.11791
	andl	$65536, %eax	#, D.11791
	testl	%eax, %eax	# D.11791
	je	.L151	#,
	.loc 1 601 0 is_stmt 0 discriminator 1
	movq	PL_stack_base(%rip), %rax	# PL_stack_base, PL_stack_base.221
	movl	-32(%rbp), %edx	# ax, tmp120
	movslq	%edx, %rdx	# tmp120, D.11786
	salq	$3, %rdx	#, D.11786
	addq	%rdx, %rax	# D.11786, D.11789
	movq	(%rax), %rax	# *_37, D.11790
	movq	(%rax), %rax	# _38->sv_any, D.11792
	movq	24(%rax), %rax	# MEM[(struct XPVIV *)_39].xiv_iv, D.11787
	jmp	.L152	#
.L151:
	.loc 1 601 0 discriminator 2
	movq	PL_stack_base(%rip), %rax	# PL_stack_base, PL_stack_base.222
	movl	-32(%rbp), %edx	# ax, tmp121
	movslq	%edx, %rdx	# tmp121, D.11786
	salq	$3, %rdx	#, D.11786
	addq	%rdx, %rax	# D.11786, D.11789
	movq	(%rax), %rax	# *_45, D.11790
	movq	%rax, %rdi	# D.11790,
	call	Perl_sv_2iv	#
.L152:
	.loc 1 601 0 discriminator 3
	movl	%eax, -36(%rbp)	# iftmp.219, flag
.L150:
	.loc 1 604 0 is_stmt 1
	movl	-36(%rbp), %eax	# flag, tmp122
	movl	%eax, %edi	# tmp122,
	call	_runops_debug	#
	movb	%al, -37(%rbp)	# tmp123, RETVAL
	.loc 1 605 0
	movq	PL_stack_base(%rip), %rax	# PL_stack_base, PL_stack_base.223
	movl	-32(%rbp), %edx	# ax, tmp124
	movslq	%edx, %rdx	# tmp124, D.11786
	salq	$3, %rdx	#, D.11786
	addq	%rax, %rdx	# PL_stack_base.223, D.11789
	cmpb	$0, -37(%rbp)	#, RETVAL
	je	.L153	#,
	.loc 1 605 0 is_stmt 0 discriminator 1
	movl	$PL_sv_yes, %eax	#, iftmp.224
	jmp	.L154	#
.L153:
	.loc 1 605 0 discriminator 2
	movl	$PL_sv_no, %eax	#, iftmp.224
.L154:
	.loc 1 605 0 discriminator 3
	movq	%rax, (%rdx)	# iftmp.224, *_54
	.loc 1 606 0 is_stmt 1 discriminator 3
	movq	PL_stack_base(%rip), %rax	# PL_stack_base, PL_stack_base.225
	movl	-32(%rbp), %edx	# ax, tmp125
	movslq	%edx, %rdx	# tmp125, D.11786
	salq	$3, %rdx	#, D.11786
	addq	%rdx, %rax	# D.11786, D.11789
	movq	(%rax), %rax	# *_60, D.11790
	movq	%rax, %rdi	# D.11790,
	call	Perl_sv_2mortal	#
.LBE26:
.LBB27:
	.loc 1 608 0 discriminator 3
	movq	$1, -24(%rbp)	#, tmpXSoff
	movq	PL_stack_base(%rip), %rax	# PL_stack_base, PL_stack_base.226
	movl	-32(%rbp), %edx	# ax, tmp126
	movslq	%edx, %rcx	# tmp126, D.11793
	movq	-24(%rbp), %rdx	# tmpXSoff, tmpXSoff.227
	addq	%rcx, %rdx	# D.11793, D.11793
	salq	$3, %rdx	#, D.11793
	subq	$8, %rdx	#, D.11793
	addq	%rdx, %rax	# D.11793, PL_stack_sp.228
	movq	%rax, PL_stack_sp(%rip)	# PL_stack_sp.228, PL_stack_sp
	nop
.LBE27:
	.loc 1 609 0 discriminator 3
	addq	$48, %rsp	#,
	popq	%rbx	#
	popq	%r12	#
	popq	%rbp	#
	.cfi_def_cfa 7, 8
	ret
	.cfi_endproc
.LFE19:
	.size	XS_Devel__Peek_runops_debug, .-XS_Devel__Peek_runops_debug
	.section	.rodata
.LC28:
	.string	"Peek.c"
.LC29:
	.string	"Devel::Peek::mstat"
.LC30:
	.string	"Devel::Peek::fill_mstats"
.LC31:
	.string	"Devel::Peek::mstats_fillhash"
.LC32:
	.string	"\\%;$"
.LC33:
	.string	"Devel::Peek::mstats2hash"
.LC34:
	.string	"$\\%;$"
.LC35:
	.string	"Devel::Peek::Dump"
.LC36:
	.string	"Devel::Peek::DumpArray"
.LC37:
	.string	"Devel::Peek::DumpProg"
.LC38:
	.string	"Devel::Peek::SvREFCNT"
.LC39:
	.string	"Devel::Peek::SvREFCNT_inc"
.LC40:
	.string	"Devel::Peek::SvREFCNT_dec"
.LC41:
	.string	"Devel::Peek::DeadCode"
.LC42:
	.string	"Devel::Peek::CvGV"
.LC43:
	.string	"Devel::Peek::runops_debug"
	.text
	.globl	boot_Devel__Peek
	.type	boot_Devel__Peek, @function
boot_Devel__Peek:
.LFB20:
	.loc 1 616 0
	.cfi_startproc
	pushq	%rbp	#
	.cfi_def_cfa_offset 16
	.cfi_offset 6, -16
	movq	%rsp, %rbp	#,
	.cfi_def_cfa_register 6
	pushq	%r12	#
	pushq	%rbx	#
	subq	$48, %rsp	#,
	.cfi_offset 12, -24
	.cfi_offset 3, -32
	movq	%rdi, -56(%rbp)	# cv, cv
	.loc 1 617 0
	movq	PL_stack_sp(%rip), %r12	# PL_stack_sp, sp
	movq	PL_stack_base(%rip), %rcx	# PL_stack_base, PL_stack_base.229
	movq	PL_markstack_ptr(%rip), %rax	# PL_markstack_ptr, PL_markstack_ptr.230
	leaq	-4(%rax), %rdx	#, PL_markstack_ptr.232
	movq	%rdx, PL_markstack_ptr(%rip)	# PL_markstack_ptr.232, PL_markstack_ptr
	movl	(%rax), %eax	# *PL_markstack_ptr.231_4, D.11795
	cltq
	salq	$3, %rax	#, D.11796
	leaq	(%rcx,%rax), %rbx	#, mark
	movq	%rbx, %rdx	# mark, mark.233
	movq	PL_stack_base(%rip), %rax	# PL_stack_base, PL_stack_base.234
	subq	%rax, %rdx	# PL_stack_base.235, D.11797
	movq	%rdx, %rax	# D.11797, D.11797
	sarq	$3, %rax	#, tmp92
	addl	$1, %eax	#, D.11798
	movl	%eax, -40(%rbp)	# D.11798, ax
	movq	%r12, %rdx	# sp, sp.236
	movq	%rbx, %rax	# mark, mark.237
	subq	%rax, %rdx	# mark.237, D.11797
	movq	%rdx, %rax	# D.11797, D.11797
	sarq	$3, %rax	#, tmp93
	movl	%eax, -36(%rbp)	# D.11797, items
	.loc 1 618 0
	movq	$.LC28, -32(%rbp)	#, file
	.loc 1 622 0
	movq	-32(%rbp), %rax	# file, tmp94
	movq	%rax, %rdx	# tmp94,
	movl	$XS_Devel__Peek_mstat, %esi	#,
	movl	$.LC29, %edi	#,
	call	Perl_newXS	#
	.loc 1 623 0
	movq	-32(%rbp), %rax	# file, tmp95
	movq	%rax, %rdx	# tmp95,
	movl	$XS_Devel__Peek_fill_mstats, %esi	#,
	movl	$.LC30, %edi	#,
	call	Perl_newXS	#
	.loc 1 624 0
	movq	-32(%rbp), %rax	# file, tmp96
	movq	%rax, %rdx	# tmp96,
	movl	$XS_Devel__Peek_mstats_fillhash, %esi	#,
	movl	$.LC31, %edi	#,
	call	Perl_newXS	#
	movl	$.LC32, %esi	#,
	movq	%rax, %rdi	# D.11799,
	call	Perl_sv_setpv	#
	.loc 1 625 0
	movq	-32(%rbp), %rax	# file, tmp97
	movq	%rax, %rdx	# tmp97,
	movl	$XS_Devel__Peek_mstats2hash, %esi	#,
	movl	$.LC33, %edi	#,
	call	Perl_newXS	#
	movl	$.LC34, %esi	#,
	movq	%rax, %rdi	# D.11799,
	call	Perl_sv_setpv	#
	.loc 1 626 0
	movq	-32(%rbp), %rax	# file, tmp98
	movq	%rax, %rdx	# tmp98,
	movl	$XS_Devel__Peek_Dump, %esi	#,
	movl	$.LC35, %edi	#,
	call	Perl_newXS	#
	.loc 1 627 0
	movq	-32(%rbp), %rax	# file, tmp99
	movq	%rax, %rdx	# tmp99,
	movl	$XS_Devel__Peek_DumpArray, %esi	#,
	movl	$.LC36, %edi	#,
	call	Perl_newXS	#
	.loc 1 628 0
	movq	-32(%rbp), %rax	# file, tmp100
	movq	%rax, %rdx	# tmp100,
	movl	$XS_Devel__Peek_DumpProg, %esi	#,
	movl	$.LC37, %edi	#,
	call	Perl_newXS	#
	.loc 1 629 0
	movq	-32(%rbp), %rax	# file, tmp101
	movq	%rax, %rdx	# tmp101,
	movl	$XS_Devel__Peek_SvREFCNT, %esi	#,
	movl	$.LC38, %edi	#,
	call	Perl_newXS	#
	.loc 1 630 0
	movq	-32(%rbp), %rax	# file, tmp102
	movq	%rax, %rdx	# tmp102,
	movl	$XS_Devel__Peek_SvREFCNT_inc, %esi	#,
	movl	$.LC39, %edi	#,
	call	Perl_newXS	#
	.loc 1 631 0
	movq	-32(%rbp), %rax	# file, tmp103
	movq	%rax, %rdx	# tmp103,
	movl	$XS_Devel__Peek_SvREFCNT_dec, %esi	#,
	movl	$.LC40, %edi	#,
	call	Perl_newXS	#
	.loc 1 632 0
	movq	-32(%rbp), %rax	# file, tmp104
	movq	%rax, %rdx	# tmp104,
	movl	$XS_Devel__Peek_DeadCode, %esi	#,
	movl	$.LC41, %edi	#,
	call	Perl_newXS	#
	.loc 1 633 0
	movq	-32(%rbp), %rax	# file, tmp105
	movq	%rax, %rdx	# tmp105,
	movl	$XS_Devel__Peek_CvGV, %esi	#,
	movl	$.LC42, %edi	#,
	call	Perl_newXS	#
	.loc 1 634 0
	movq	-32(%rbp), %rax	# file, tmp106
	movq	%rax, %rdx	# tmp106,
	movl	$XS_Devel__Peek_runops_debug, %esi	#,
	movl	$.LC43, %edi	#,
	call	Perl_newXS	#
.LBB28:
	.loc 1 635 0
	movq	PL_stack_base(%rip), %rax	# PL_stack_base, PL_stack_base.238
	movl	-40(%rbp), %edx	# ax, tmp107
	movslq	%edx, %rdx	# tmp107, D.11796
	salq	$3, %rdx	#, D.11796
	addq	%rdx, %rax	# D.11796, D.11800
	movq	$PL_sv_yes, (%rax)	#, *_29
.LBB29:
	movq	$1, -24(%rbp)	#, tmpXSoff
	movq	PL_stack_base(%rip), %rax	# PL_stack_base, PL_stack_base.239
	movl	-40(%rbp), %edx	# ax, tmp108
	movslq	%edx, %rcx	# tmp108, D.11801
	movq	-24(%rbp), %rdx	# tmpXSoff, tmpXSoff.240
	addq	%rcx, %rdx	# D.11801, D.11801
	salq	$3, %rdx	#, D.11801
	subq	$8, %rdx	#, D.11801
	addq	%rdx, %rax	# D.11801, PL_stack_sp.241
	movq	%rax, PL_stack_sp(%rip)	# PL_stack_sp.241, PL_stack_sp
	nop
.LBE29:
.LBE28:
	.loc 1 636 0
	addq	$48, %rsp	#,
	popq	%rbx	#
	popq	%r12	#
	popq	%rbp	#
	.cfi_def_cfa 7, 8
	ret
	.cfi_endproc
.LFE20:
	.size	boot_Devel__Peek, .-boot_Devel__Peek
.Letext0:
	.file 2 "/usr/include/x86_64-linux-gnu/bits/types.h"
	.file 3 "/usr/include/x86_64-linux-gnu/sys/types.h"
	.file 4 "/usr/lib/gcc/x86_64-linux-gnu/4.8/include/stddef.h"
	.file 5 "/usr/include/dirent.h"
	.file 6 "perl.h"
	.file 7 "op.h"
	.file 8 "sv.h"
	.file 9 "regexp.h"
	.file 10 "gv.h"
	.file 11 "mg.h"
	.file 12 "av.h"
	.file 13 "hv.h"
	.file 14 "cv.h"
	.file 15 "handy.h"
	.file 16 "perlio.h"
	.file 17 "pad.h"
	.file 18 "intrpvar.h"
	.file 19 "thrdvar.h"
	.section	.note.GNU-stack,"",@progbits
