	.file	"perl.c"
# GNU C (Ubuntu/Linaro 4.8.1-10ubuntu9) version 4.8.1 (x86_64-linux-gnu)
#	compiled by GNU C version 4.8.1, GMP version 5.1.2, MPFR version 3.1.1-p2, MPC version 1.0.1
# GGC heuristics: --param ggc-min-expand=100 --param ggc-min-heapsize=131072
# options passed:  -imultiarch x86_64-linux-gnu -D SPEC_CPU -D NDEBUG
# -D PERL_CORE -D SPEC_CPU_LP64 -D SPEC_CPU_LINUX_X64 perl.c -mtune=generic
# -march=x86-64 -g -fverbose-asm -fno-strict-aliasing -fstack-protector
# -Wformat -Wformat-security
# options enabled:  -faggressive-loop-optimizations
# -fasynchronous-unwind-tables -fauto-inc-dec -fbranch-count-reg -fcommon
# -fdelete-null-pointer-checks -fdwarf2-cfi-asm -fearly-inlining
# -feliminate-unused-debug-types -ffunction-cse -fgcse-lm -fgnu-runtime
# -fident -finline-atomics -fira-hoist-pressure -fira-share-save-slots
# -fira-share-spill-slots -fivopts -fkeep-static-consts
# -fleading-underscore -fmath-errno -fmerge-debug-strings
# -fmove-loop-invariants -fpeephole -fprefetch-loop-arrays
# -freg-struct-return -fsched-critical-path-heuristic
# -fsched-dep-count-heuristic -fsched-group-heuristic -fsched-interblock
# -fsched-last-insn-heuristic -fsched-rank-heuristic -fsched-spec
# -fsched-spec-insn-heuristic -fsched-stalled-insns-dep -fshow-column
# -fsigned-zeros -fsplit-ivs-in-unroller -fstack-protector
# -fstrict-volatile-bitfields -fsync-libcalls -ftrapping-math
# -ftree-coalesce-vars -ftree-cselim -ftree-forwprop -ftree-loop-if-convert
# -ftree-loop-im -ftree-loop-ivcanon -ftree-loop-optimize
# -ftree-parallelize-loops= -ftree-phiprop -ftree-pta -ftree-reassoc
# -ftree-scev-cprop -ftree-slp-vectorize -ftree-vect-loop-version
# -funit-at-a-time -funwind-tables -fverbose-asm -fzero-initialized-in-bss
# -m128bit-long-double -m64 -m80387 -maccumulate-outgoing-args
# -malign-stringops -mfancy-math-387 -mfp-ret-in-387 -mfxsr -mglibc
# -mieee-fp -mlong-double-80 -mmmx -mno-sse4 -mpush-args -mred-zone -msse
# -msse2 -mtls-direct-seg-refs

	.text
.Ltext0:
	.local	local_patches
	.comm	local_patches,16,16
	.globl	perl_alloc
	.type	perl_alloc, @function
perl_alloc:
.LFB2:
	.file 1 "perl.c"
	.loc 1 200 0
	.cfi_startproc
	pushq	%rbp	#
	.cfi_def_cfa_offset 16
	.cfi_offset 6, -16
	movq	%rsp, %rbp	#,
	.cfi_def_cfa_register 6
	subq	$16, %rsp	#,
	.loc 1 207 0
	movl	$1, %edi	#,
	call	malloc	#
	movq	%rax, -8(%rbp)	# tmp62, my_perl
.LBB2:
	.loc 1 209 0
	movq	PL_curinterp(%rip), %rax	# PL_curinterp, PL_curinterp.0
	testq	%rax, %rax	# PL_curinterp.0
	jne	.L2	#,
	.loc 1 209 0 is_stmt 0 discriminator 1
	movq	-8(%rbp), %rax	# my_perl, tmp63
	movq	%rax, PL_curinterp(%rip)	# tmp63, PL_curinterp
.L2:
.LBE2:
	.loc 1 210 0 is_stmt 1
	movq	-8(%rbp), %rax	# my_perl, tmp64
	movl	$1, %edx	#,
	movl	$0, %esi	#,
	movq	%rax, %rdi	# tmp64,
	call	memset	#
	.loc 1 211 0
	leave
	.cfi_def_cfa 7, 8
	ret
	.cfi_endproc
.LFE2:
	.size	perl_alloc, .-perl_alloc
	.section	.rodata
.LC0:
	.string	"\n"
.LC2:
	.string	""
	.text
	.globl	perl_construct
	.type	perl_construct, @function
perl_construct:
.LFB3:
	.loc 1 224 0
	.cfi_startproc
	pushq	%rbp	#
	.cfi_def_cfa_offset 16
	.cfi_offset 6, -16
	movq	%rsp, %rbp	#,
	.cfi_def_cfa_register 6
	subq	$16, %rsp	#,
	.loc 1 235 0
	movl	PL_perl_destruct_level(%rip), %eax	# PL_perl_destruct_level, PL_perl_destruct_level.1
	testl	%eax, %eax	# PL_perl_destruct_level.1
	jle	.L5	#,
	.loc 1 236 0
	call	S_init_interp	#
.L5:
	.loc 1 239 0
	movq	PL_linestr(%rip), %rax	# PL_linestr, PL_linestr.2
	testq	%rax, %rax	# PL_linestr.2
	jne	.L6	#,
	.loc 1 265 0
	movq	$PL_compiling, PL_curcop(%rip)	#, PL_curcop
	.loc 1 267 0
	movl	$79, %edi	#,
	call	Perl_newSV	#
	movq	%rax, PL_linestr(%rip)	# PL_linestr.3, PL_linestr
	.loc 1 268 0
	movq	PL_linestr(%rip), %rax	# PL_linestr, PL_linestr.4
	movl	$5, %esi	#,
	movq	%rax, %rdi	# PL_linestr.4,
	call	Perl_sv_upgrade	#
	.loc 1 270 0
	movl	PL_sv_undef+12(%rip), %eax	# PL_sv_undef.sv_flags, D.14609
	andl	$8388608, %eax	#, D.14609
	testl	%eax, %eax	# D.14609
	jne	.L7	#,
	.loc 1 274 0
	movl	PL_sv_undef+12(%rip), %eax	# PL_sv_undef.sv_flags, D.14609
	orl	$8388608, %eax	#, D.14609
	movl	%eax, PL_sv_undef+12(%rip)	# D.14609, PL_sv_undef.sv_flags
	.loc 1 275 0
	movl	$2147483647, PL_sv_undef+8(%rip)	#, PL_sv_undef.sv_refcnt
	.loc 1 277 0
	movq	PL_No(%rip), %rax	# PL_No, PL_No.5
	movq	%rax, %rsi	# PL_No.5,
	movl	$PL_sv_no, %edi	#,
	call	Perl_sv_setpv	#
	.loc 1 280 0
	movl	PL_sv_no+12(%rip), %eax	# PL_sv_no.sv_flags, D.14609
	andl	$65536, %eax	#, D.14609
	testl	%eax, %eax	# D.14609
	jne	.L9	#,
	.loc 1 280 0 is_stmt 0 discriminator 2
	movl	$PL_sv_no, %edi	#,
	call	Perl_sv_2iv	#
.L9:
	.loc 1 281 0 is_stmt 1
	movl	PL_sv_no+12(%rip), %eax	# PL_sv_no.sv_flags, D.14609
	andl	$131072, %eax	#, D.14609
	testl	%eax, %eax	# D.14609
	jne	.L11	#,
	.loc 1 281 0 is_stmt 0 discriminator 2
	movl	$PL_sv_no, %edi	#,
	call	Perl_sv_2nv	#
.L11:
	.loc 1 282 0 is_stmt 1
	movl	PL_sv_no+12(%rip), %eax	# PL_sv_no.sv_flags, D.14609
	orl	$8388608, %eax	#, D.14609
	movl	%eax, PL_sv_no+12(%rip)	# D.14609, PL_sv_no.sv_flags
	.loc 1 283 0
	movl	$2147483647, PL_sv_no+8(%rip)	#, PL_sv_no.sv_refcnt
	.loc 1 285 0
	movq	PL_Yes(%rip), %rax	# PL_Yes, PL_Yes.8
	movq	%rax, %rsi	# PL_Yes.8,
	movl	$PL_sv_yes, %edi	#,
	call	Perl_sv_setpv	#
	.loc 1 286 0
	movl	PL_sv_yes+12(%rip), %eax	# PL_sv_yes.sv_flags, D.14609
	andl	$65536, %eax	#, D.14609
	testl	%eax, %eax	# D.14609
	jne	.L13	#,
	.loc 1 286 0 is_stmt 0 discriminator 2
	movl	$PL_sv_yes, %edi	#,
	call	Perl_sv_2iv	#
.L13:
	.loc 1 287 0 is_stmt 1
	movl	PL_sv_yes+12(%rip), %eax	# PL_sv_yes.sv_flags, D.14609
	andl	$131072, %eax	#, D.14609
	testl	%eax, %eax	# D.14609
	jne	.L15	#,
	.loc 1 287 0 is_stmt 0 discriminator 2
	movl	$PL_sv_yes, %edi	#,
	call	Perl_sv_2nv	#
.L15:
	.loc 1 288 0 is_stmt 1
	movl	PL_sv_yes+12(%rip), %eax	# PL_sv_yes.sv_flags, D.14609
	orl	$8388608, %eax	#, D.14609
	movl	%eax, PL_sv_yes+12(%rip)	# D.14609, PL_sv_yes.sv_flags
	.loc 1 289 0
	movl	$2147483647, PL_sv_yes+8(%rip)	#, PL_sv_yes.sv_refcnt
	.loc 1 291 0
	movl	PL_sv_placeholder+12(%rip), %eax	# PL_sv_placeholder.sv_flags, D.14609
	orl	$8388608, %eax	#, D.14609
	movl	%eax, PL_sv_placeholder+12(%rip)	# D.14609, PL_sv_placeholder.sv_flags
	.loc 1 292 0
	movl	$2147483647, PL_sv_placeholder+8(%rip)	#, PL_sv_placeholder.sv_refcnt
.L7:
	.loc 1 295 0
	movq	$Perl_sighandler, PL_sighandlerp(%rip)	#, PL_sighandlerp
	.loc 1 296 0
	call	Perl_newHV	#
	movq	%rax, PL_pidstatus(%rip)	# PL_pidstatus.11, PL_pidstatus
.L6:
	.loc 1 299 0
	movl	$1, %esi	#,
	movl	$.LC0, %edi	#,
	call	Perl_newSVpvn	#
	movq	%rax, PL_rs(%rip)	# PL_rs.12, PL_rs
	.loc 1 301 0
	call	Perl_init_stacks	#
	.loc 1 303 0
	call	S_init_ids	#
	.loc 1 304 0
	movl	$11, PL_lex_state(%rip)	#, PL_lex_state
.LBB3:
	.loc 1 306 0
	movl	$216, %edx	#,
	movl	$0, %esi	#,
	movl	$PL_start_env, %edi	#,
	call	memset	#
	movl	$-1, PL_start_env+208(%rip)	#, PL_start_env.je_ret
	movb	$1, PL_start_env+212(%rip)	#, PL_start_env.je_mustcatch
	movq	$PL_start_env, PL_top_env(%rip)	#, PL_top_env
.LBE3:
	.loc 1 307 0
	movl	$0, PL_statusvalue(%rip)	#, PL_statusvalue
	.loc 1 309 0
	movl	$1, %edi	#,
	call	Perl_init_i18nl10n	#
.LBB4:
	.loc 1 314 0
	movl	$4, %edi	#,
	call	Perl_newSV	#
	movq	%rax, PL_patchlevel(%rip)	# PL_patchlevel.13, PL_patchlevel
	.loc 1 315 0
	movq	PL_patchlevel(%rip), %rax	# PL_patchlevel, PL_patchlevel.15
	movl	12(%rax), %eax	# PL_patchlevel.15_41->sv_flags, D.14609
	movzbl	%al, %eax	# D.14609, D.14609
	cmpl	$5, %eax	#, D.14609
	ja	.L16	#,
	.loc 1 315 0 is_stmt 0 discriminator 2
	movq	PL_patchlevel(%rip), %rax	# PL_patchlevel, PL_patchlevel.16
	movl	$6, %esi	#,
	movq	%rax, %rdi	# PL_patchlevel.16,
	call	Perl_sv_upgrade	#
	testb	%al, %al	# D.14612
	je	.L18	#,
.L16:
	.loc 1 315 0 discriminator 1
	nop
.L18:
	.loc 1 318 0 is_stmt 1
	movq	PL_patchlevel(%rip), %rax	# PL_patchlevel, PL_patchlevel.21
	movq	(%rax), %rax	# PL_patchlevel.21_48->sv_any, D.14610
	movq	(%rax), %rax	# MEM[(struct XPV *)_49].xpv_pv, tmp147
	movq	%rax, -8(%rbp)	# tmp147, s
	.loc 1 320 0
	movq	-8(%rbp), %rax	# s, tmp148
	movl	$5, %esi	#,
	movq	%rax, %rdi	# tmp148,
	call	Perl_uvuni_to_utf8	#
	movq	%rax, -8(%rbp)	# tmp149, s
	.loc 1 321 0
	movq	-8(%rbp), %rax	# s, tmp150
	movl	$8, %esi	#,
	movq	%rax, %rdi	# tmp150,
	call	Perl_uvuni_to_utf8	#
	movq	%rax, -8(%rbp)	# tmp151, s
	.loc 1 322 0
	movq	-8(%rbp), %rax	# s, tmp152
	movl	$7, %esi	#,
	movq	%rax, %rdi	# tmp152,
	call	Perl_uvuni_to_utf8	#
	movq	%rax, -8(%rbp)	# tmp153, s
	.loc 1 323 0
	movq	-8(%rbp), %rax	# s, tmp154
	movb	$0, (%rax)	#, *s_53
	.loc 1 324 0
	movq	PL_patchlevel(%rip), %rax	# PL_patchlevel, PL_patchlevel.22
	movq	(%rax), %rax	# PL_patchlevel.22_54->sv_any, D.14610
	movq	-8(%rbp), %rcx	# s, s.23
	movq	PL_patchlevel(%rip), %rdx	# PL_patchlevel, PL_patchlevel.24
	movq	(%rdx), %rdx	# PL_patchlevel.24_57->sv_any, D.14610
	movq	(%rdx), %rdx	# MEM[(struct XPV *)_58].xpv_pv, D.14613
	subq	%rdx, %rcx	# D.14614, D.14614
	movq	%rcx, %rdx	# D.14614, D.14614
	movq	%rdx, 8(%rax)	# D.14615, MEM[(struct XPV *)_55].xpv_cur
	.loc 1 325 0
	movq	PL_patchlevel(%rip), %rax	# PL_patchlevel, PL_patchlevel.25
	movq	PL_patchlevel(%rip), %rdx	# PL_patchlevel, PL_patchlevel.26
	movl	12(%rdx), %edx	# PL_patchlevel.26_64->sv_flags, D.14609
	orl	$67371008, %edx	#, D.14609
	movl	%edx, 12(%rax)	# D.14609, PL_patchlevel.25_63->sv_flags
	.loc 1 326 0
	movq	PL_patchlevel(%rip), %rax	# PL_patchlevel, PL_patchlevel.27
	movq	(%rax), %rdx	# PL_patchlevel.27_67->sv_any, D.14610
	movabsq	$4617324533042155113, %rax	#, tmp155
	movq	%rax, 32(%rdx)	# tmp155, MEM[(struct XPVNV *)_68].xnv_nv
	.loc 1 329 0
	movq	PL_patchlevel(%rip), %rax	# PL_patchlevel, PL_patchlevel.28
	movq	PL_patchlevel(%rip), %rdx	# PL_patchlevel, PL_patchlevel.29
	movl	12(%rdx), %edx	# PL_patchlevel.29_70->sv_flags, D.14609
	orl	$33685504, %edx	#, D.14609
	movl	%edx, 12(%rax)	# D.14609, PL_patchlevel.28_69->sv_flags
	.loc 1 330 0
	movq	PL_patchlevel(%rip), %rax	# PL_patchlevel, PL_patchlevel.30
	movq	PL_patchlevel(%rip), %rdx	# PL_patchlevel, PL_patchlevel.31
	movl	12(%rdx), %edx	# PL_patchlevel.31_74->sv_flags, D.14609
	orl	$536870912, %edx	#, D.14609
	movl	%edx, 12(%rax)	# D.14609, PL_patchlevel.30_73->sv_flags
	.loc 1 331 0
	movq	PL_patchlevel(%rip), %rax	# PL_patchlevel, PL_patchlevel.32
	movq	PL_patchlevel(%rip), %rdx	# PL_patchlevel, PL_patchlevel.33
	movl	12(%rdx), %edx	# PL_patchlevel.33_78->sv_flags, D.14609
	orl	$8388608, %edx	#, D.14609
	movl	%edx, 12(%rax)	# D.14609, PL_patchlevel.32_77->sv_flags
.LBE4:
	.loc 1 335 0
	movq	$local_patches, PL_localpatches(%rip)	#, PL_localpatches
	.loc 1 342 0
	call	PerlIO_init	#
	.loc 1 344 0
	call	Perl_newAV	#
	movq	%rax, PL_fdpid(%rip)	# PL_fdpid.34, PL_fdpid
	.loc 1 345 0
	call	Perl_newHV	#
	movq	%rax, PL_modglobal(%rip)	# PL_modglobal.35, PL_modglobal
	.loc 1 346 0
	movl	$0, %esi	#,
	movl	$.LC2, %edi	#,
	call	Perl_newSVpvn	#
	movq	%rax, PL_errors(%rip)	# PL_errors.36, PL_errors
	.loc 1 347 0
	movl	$0, %edx	#,
	movl	$.LC2, %esi	#,
	movl	$PL_debug_pad, %edi	#,
	call	Perl_sv_setpvn	#
	.loc 1 348 0
	movl	$0, %edx	#,
	movl	$.LC2, %esi	#,
	movl	$PL_debug_pad+16, %edi	#,
	call	Perl_sv_setpvn	#
	.loc 1 349 0
	movl	$0, %edx	#,
	movl	$.LC2, %esi	#,
	movl	$PL_debug_pad+32, %edi	#,
	call	Perl_sv_setpvn	#
	.loc 1 362 0
	call	Perl_newHV	#
	movq	%rax, PL_strtab(%rip)	# PL_strtab.37, PL_strtab
	.loc 1 367 0
	movq	PL_strtab(%rip), %rax	# PL_strtab, PL_strtab.38
	movq	PL_strtab(%rip), %rdx	# PL_strtab, PL_strtab.39
	movl	12(%rdx), %edx	# PL_strtab.39_86->sv_flags, D.14609
	andl	$-536870913, %edx	#, D.14609
	movl	%edx, 12(%rax)	# D.14609, PL_strtab.38_85->sv_flags
	.loc 1 368 0
	movq	PL_strtab(%rip), %rax	# PL_strtab, PL_strtab.40
	movl	$512, %esi	#,
	movq	%rax, %rdi	# PL_strtab.40,
	call	Perl_hv_ksplit	#
	.loc 1 377 0
	movq	environ(%rip), %rax	# environ, environ.41
	movq	%rax, PL_origenviron(%rip)	# environ.41, PL_origenviron
	.loc 1 388 0
	movq	$60, PL_clocktick(%rip)	#, PL_clocktick
	.loc 1 390 0
	call	Perl_newHV	#
	movq	%rax, PL_stashcache(%rip)	# PL_stashcache.42, PL_stashcache
	.loc 1 392 0
	call	Perl_push_scope	#
	.loc 1 393 0
	leave
	.cfi_def_cfa 7, 8
	ret
	.cfi_endproc
.LFE3:
	.size	perl_construct, .-perl_construct
	.globl	Perl_nothreadhook
	.type	Perl_nothreadhook, @function
Perl_nothreadhook:
.LFB4:
	.loc 1 406 0
	.cfi_startproc
	pushq	%rbp	#
	.cfi_def_cfa_offset 16
	.cfi_offset 6, -16
	movq	%rsp, %rbp	#,
	.cfi_def_cfa_register 6
	.loc 1 407 0
	movl	$0, %eax	#, D.14618
	.loc 1 408 0
	popq	%rbp	#
	.cfi_def_cfa 7, 8
	ret
	.cfi_endproc
.LFE4:
	.size	Perl_nothreadhook, .-Perl_nothreadhook
	.section	.rodata
	.align 8
.LC3:
	.string	"Unbalanced scopes: %ld more ENTERs than LEAVEs\n"
	.align 8
.LC4:
	.string	"Unbalanced saves: %ld more saves than restores\n"
	.align 8
.LC5:
	.string	"Unbalanced tmps: %ld more allocs than frees\n"
	.align 8
.LC6:
	.string	"Unbalanced context: %ld more PUSHes than POPs\n"
	.align 8
.LC7:
	.string	"Unbalanced string table refcount: (%d) for \"%s\""
.LC8:
	.string	"Scalars leaked: %ld\n"
	.text
	.globl	perl_destruct
	.type	perl_destruct, @function
perl_destruct:
.LFB5:
	.loc 1 420 0
	.cfi_startproc
	pushq	%rbp	#
	.cfi_def_cfa_offset 16
	.cfi_offset 6, -16
	movq	%rsp, %rbp	#,
	.cfi_def_cfa_register 6
	subq	$288, %rsp	#,
	.loc 1 502 0
	movl	PL_perl_destruct_level(%rip), %eax	# PL_perl_destruct_level, PL_perl_destruct_level.43
	movl	%eax, -288(%rbp)	# PL_perl_destruct_level.43, destruct_level
	.loc 1 515 0
	movzbl	PL_exit_flags(%rip), %eax	# PL_exit_flags, PL_exit_flags.44
	movzbl	%al, %eax	# PL_exit_flags.44, D.14619
	andl	$2, %eax	#, D.14619
	testl	%eax, %eax	# D.14619
	je	.L22	#,
.LBB5:
	.loc 1 517 0
	movl	$0, -272(%rbp)	#, x
.LBB6:
	.loc 1 519 0
	movq	PL_top_env(%rip), %rax	# PL_top_env, PL_top_env.45
	movq	%rax, -24(%rbp)	# PL_top_env.45, cur_env.je_prev
	leaq	-224(%rbp), %rax	#, tmp336
	movl	$0, %esi	#,
	movq	%rax, %rdi	# tmp336,
	call	__sigsetjmp	#
	movl	%eax, -16(%rbp)	# D.14619, cur_env.je_ret
	leaq	-224(%rbp), %rax	#, tmp337
	movq	%rax, PL_top_env(%rip)	# tmp337, PL_top_env
	movb	$0, -12(%rbp)	#, cur_env.je_mustcatch
	movl	-16(%rbp), %eax	# cur_env.je_ret, tmp338
	movl	%eax, -272(%rbp)	# tmp338, x
.LBE6:
	.loc 1 520 0
	movq	PL_endav(%rip), %rax	# PL_endav, PL_endav.46
	testq	%rax, %rax	# PL_endav.46
	je	.L23	#,
	.loc 1 520 0 is_stmt 0 discriminator 1
	movzbl	PL_minus_c(%rip), %eax	# PL_minus_c, PL_minus_c.47
	testb	%al, %al	# PL_minus_c.47
	jne	.L23	#,
	.loc 1 521 0 is_stmt 1
	movq	PL_endav(%rip), %rdx	# PL_endav, PL_endav.48
	movl	PL_scopestack_ix(%rip), %eax	# PL_scopestack_ix, PL_scopestack_ix.49
	movq	%rdx, %rsi	# PL_endav.48,
	movl	%eax, %edi	# PL_scopestack_ix.49,
	call	Perl_call_list	#
.L23:
	.loc 1 522 0
	movq	-24(%rbp), %rax	# cur_env.je_prev, PL_top_env.50
	movq	%rax, PL_top_env(%rip)	# PL_top_env.50, PL_top_env
.L22:
.LBE5:
	.loc 1 524 0
	call	Perl_pop_scope	#
	.loc 1 525 0
	movl	PL_tmps_ix(%rip), %edx	# PL_tmps_ix, PL_tmps_ix.51
	movl	PL_tmps_floor(%rip), %eax	# PL_tmps_floor, PL_tmps_floor.52
	cmpl	%eax, %edx	# PL_tmps_floor.52, PL_tmps_ix.51
	jle	.L24	#,
	.loc 1 525 0 is_stmt 0 discriminator 1
	call	Perl_free_tmps	#
.L24:
	.loc 1 528 0 is_stmt 1
	call	Perl_my_fflush_all	#
	.loc 1 530 0
	movq	PL_threadhook(%rip), %rax	# PL_threadhook, PL_threadhook.53
	call	*%rax	# PL_threadhook.53
	testl	%eax, %eax	# D.14619
	je	.L25	#,
	.loc 1 532 0
	movl	PL_statusvalue(%rip), %eax	# PL_statusvalue, D.14619
	jmp	.L26	#
.L25:
	.loc 1 538 0
	movq	PL_main_root(%rip), %rax	# PL_main_root, PL_main_root.54
	testq	%rax, %rax	# PL_main_root.54
	je	.L27	#,
	.loc 1 540 0
	movq	PL_main_cv(%rip), %rax	# PL_main_cv, PL_main_cv.55
	movq	(%rax), %rax	# PL_main_cv.55_30->sv_any, D.14620
	movq	120(%rax), %rax	# _31->xcv_padlist, D.14621
	testq	%rax, %rax	# D.14621
	je	.L28	#,
	.loc 1 541 0
	movq	PL_main_cv(%rip), %rax	# PL_main_cv, PL_main_cv.56
	movq	(%rax), %rax	# PL_main_cv.56_33->sv_any, D.14620
	movq	120(%rax), %rax	# _34->xcv_padlist, D.14621
	movq	(%rax), %rax	# _35->sv_any, D.14622
	movq	(%rax), %rax	# _36->xav_array, D.14623
	movq	8(%rax), %rax	# MEM[(struct SV * *)_37 + 8B], PL_comppad.57
	movq	%rax, PL_comppad(%rip)	# PL_comppad.57, PL_comppad
	movq	PL_comppad(%rip), %rax	# PL_comppad, PL_comppad.58
	movq	(%rax), %rax	# PL_comppad.58_39->sv_any, D.14622
	movq	(%rax), %rax	# _40->xav_array, PL_curpad.59
	movq	%rax, PL_curpad(%rip)	# PL_curpad.59, PL_curpad
.L28:
	.loc 1 543 0
	movq	PL_main_root(%rip), %rax	# PL_main_root, PL_main_root.60
	movq	%rax, %rdi	# PL_main_root.60,
	call	Perl_op_free	#
	.loc 1 544 0
	movq	$0, PL_main_root(%rip)	#, PL_main_root
.L27:
	.loc 1 546 0
	movq	$PL_compiling, PL_curcop(%rip)	#, PL_curcop
	.loc 1 547 0
	movq	$0, PL_main_start(%rip)	#, PL_main_start
	.loc 1 548 0
	movq	PL_main_cv(%rip), %rax	# PL_main_cv, PL_main_cv.61
	movq	%rax, %rdi	# PL_main_cv.61,
	call	Perl_sv_free	#
	.loc 1 549 0
	movq	$0, PL_main_cv(%rip)	#, PL_main_cv
	.loc 1 550 0
	movb	$1, PL_dirty(%rip)	#, PL_dirty
	.loc 1 557 0
	call	PerlIO_destruct	#
	.loc 1 559 0
	movl	PL_sv_objcount(%rip), %eax	# PL_sv_objcount, PL_sv_objcount.62
	testl	%eax, %eax	# PL_sv_objcount.62
	je	.L29	#,
	.loc 1 565 0
	call	Perl_sv_clean_objs	#
	.loc 1 566 0
	movl	$0, PL_sv_objcount(%rip)	#, PL_sv_objcount
.L29:
	.loc 1 570 0
	movq	PL_warnhook(%rip), %rax	# PL_warnhook, PL_warnhook.63
	movq	%rax, %rdi	# PL_warnhook.63,
	call	Perl_sv_free	#
	.loc 1 571 0
	movq	$0, PL_warnhook(%rip)	#, PL_warnhook
	.loc 1 572 0
	movq	PL_diehook(%rip), %rax	# PL_diehook, PL_diehook.64
	movq	%rax, %rdi	# PL_diehook.64,
	call	Perl_sv_free	#
	.loc 1 573 0
	movq	$0, PL_diehook(%rip)	#, PL_diehook
	.loc 1 576 0
	jmp	.L30	#
.L31:
	.loc 1 577 0
	movq	PL_exitlist(%rip), %rax	# PL_exitlist, PL_exitlist.65
	movl	PL_exitlistlen(%rip), %edx	# PL_exitlistlen, PL_exitlistlen.66
	movslq	%edx, %rdx	# PL_exitlistlen.66, D.14624
	salq	$4, %rdx	#, D.14624
	addq	%rdx, %rax	# D.14624, D.14625
	movq	(%rax), %rax	# _54->fn, D.14626
	movq	PL_exitlist(%rip), %rdx	# PL_exitlist, PL_exitlist.67
	movl	PL_exitlistlen(%rip), %ecx	# PL_exitlistlen, PL_exitlistlen.68
	movslq	%ecx, %rcx	# PL_exitlistlen.68, D.14624
	salq	$4, %rcx	#, D.14624
	addq	%rcx, %rdx	# D.14624, D.14625
	movq	8(%rdx), %rdx	# _60->ptr, D.14627
	movq	%rdx, %rdi	# D.14627,
	call	*%rax	# D.14626
.L30:
	.loc 1 576 0 discriminator 1
	movl	PL_exitlistlen(%rip), %eax	# PL_exitlistlen, PL_exitlistlen.69
	leal	-1(%rax), %edx	#, PL_exitlistlen.71
	movl	%edx, PL_exitlistlen(%rip)	# PL_exitlistlen.71, PL_exitlistlen
	testl	%eax, %eax	# PL_exitlistlen.70
	jg	.L31	#,
	.loc 1 579 0
	movq	PL_exitlist(%rip), %rax	# PL_exitlist, PL_exitlist.72
	movq	%rax, %rdi	# PL_exitlist.72,
	call	Perl_safesysfree	#
	.loc 1 581 0
	movq	$0, PL_exitlist(%rip)	#, PL_exitlist
	.loc 1 582 0
	movl	$0, PL_exitlistlen(%rip)	#, PL_exitlistlen
	.loc 1 584 0
	movl	-288(%rbp), %eax	# destruct_level, destruct_level.73
	testl	%eax, %eax	# destruct_level.73
	jne	.L32	#,
	.loc 1 590 0
	call	PerlIO_cleanup	#
	.loc 1 594 0
	movl	PL_statusvalue(%rip), %eax	# PL_statusvalue, D.14619
	jmp	.L26	#
.L32:
	.loc 1 603 0
	movq	environ(%rip), %rdx	# environ, environ.74
	movq	PL_origenviron(%rip), %rax	# PL_origenviron, PL_origenviron.75
	cmpq	%rax, %rdx	# PL_origenviron.75, environ.74
	je	.L33	#,
	.loc 1 603 0 is_stmt 0 discriminator 1
	movl	PL_use_safe_putenv(%rip), %eax	# PL_use_safe_putenv, PL_use_safe_putenv.76
	testl	%eax, %eax	# PL_use_safe_putenv.76
	jne	.L33	#,
.LBB7:
	.loc 1 612 0 is_stmt 1
	movl	$0, -284(%rbp)	#, i
	jmp	.L34	#
.L35:
	.loc 1 613 0 discriminator 2
	movq	environ(%rip), %rax	# environ, environ.77
	movl	-284(%rbp), %edx	# i, tmp339
	movslq	%edx, %rdx	# tmp339, D.14624
	salq	$3, %rdx	#, D.14624
	addq	%rdx, %rax	# D.14624, D.14628
	movq	(%rax), %rax	# *_77, D.14623
	movq	%rax, %rdi	# D.14623,
	call	Perl_safesysfree	#
	.loc 1 612 0 discriminator 2
	addl	$1, -284(%rbp)	#, i
.L34:
	.loc 1 612 0 is_stmt 0 discriminator 1
	movq	environ(%rip), %rax	# environ, environ.78
	movl	-284(%rbp), %edx	# i, tmp340
	movslq	%edx, %rdx	# tmp340, D.14624
	salq	$3, %rdx	#, D.14624
	addq	%rdx, %rax	# D.14624, D.14628
	movq	(%rax), %rax	# *_72, D.14623
	testq	%rax, %rax	# D.14623
	jne	.L35	#,
	.loc 1 616 0 is_stmt 1
	movq	environ(%rip), %rax	# environ, environ.79
	movq	%rax, %rdi	# environ.79,
	call	Perl_safesysfree	#
	.loc 1 618 0
	movq	PL_origenviron(%rip), %rax	# PL_origenviron, PL_origenviron.80
	movq	%rax, environ(%rip)	# PL_origenviron.80, environ
.L33:
.LBE7:
	.loc 1 624 0
	movl	$0, %edi	#,
	call	Perl_setdefout	#
	.loc 1 659 0
	movq	PL_stashcache(%rip), %rax	# PL_stashcache, PL_stashcache.81
	movq	%rax, %rdi	# PL_stashcache.81,
	call	Perl_sv_free	#
	.loc 1 660 0
	movq	$0, PL_stashcache(%rip)	#, PL_stashcache
	.loc 1 664 0
	movq	PL_rsfp(%rip), %rax	# PL_rsfp, PL_rsfp.82
	testq	%rax, %rax	# PL_rsfp.82
	je	.L36	#,
	.loc 1 665 0
	movq	PL_rsfp(%rip), %rax	# PL_rsfp, PL_rsfp.83
	movq	%rax, %rdi	# PL_rsfp.83,
	call	Perl_PerlIO_close	#
	.loc 1 666 0
	movq	$0, PL_rsfp(%rip)	#, PL_rsfp
.L36:
	.loc 1 670 0
	movq	PL_rsfp_filters(%rip), %rax	# PL_rsfp_filters, PL_rsfp_filters.84
	movq	%rax, %rdi	# PL_rsfp_filters.84,
	call	Perl_sv_free	#
	.loc 1 671 0
	movq	$0, PL_rsfp_filters(%rip)	#, PL_rsfp_filters
	.loc 1 674 0
	movb	$0, PL_preprocess(%rip)	#, PL_preprocess
	.loc 1 675 0
	movb	$0, PL_minus_n(%rip)	#, PL_minus_n
	.loc 1 676 0
	movb	$0, PL_minus_p(%rip)	#, PL_minus_p
	.loc 1 677 0
	movb	$0, PL_minus_l(%rip)	#, PL_minus_l
	.loc 1 678 0
	movb	$0, PL_minus_a(%rip)	#, PL_minus_a
	.loc 1 679 0
	movb	$0, PL_minus_F(%rip)	#, PL_minus_F
	.loc 1 680 0
	movb	$0, PL_doswitches(%rip)	#, PL_doswitches
	.loc 1 681 0
	movb	$0, PL_dowarn(%rip)	#, PL_dowarn
	.loc 1 682 0
	movb	$0, PL_doextract(%rip)	#, PL_doextract
	.loc 1 683 0
	movb	$0, PL_sawampersand(%rip)	#, PL_sawampersand
	.loc 1 684 0
	movb	$0, PL_unsafe(%rip)	#, PL_unsafe
	.loc 1 686 0
	movq	PL_inplace(%rip), %rax	# PL_inplace, PL_inplace.85
	movq	%rax, %rdi	# PL_inplace.85,
	call	Perl_safesysfree	#
	.loc 1 687 0
	movq	$0, PL_inplace(%rip)	#, PL_inplace
	.loc 1 688 0
	movq	PL_patchlevel(%rip), %rax	# PL_patchlevel, PL_patchlevel.86
	movq	%rax, %rdi	# PL_patchlevel.86,
	call	Perl_sv_free	#
	.loc 1 690 0
	movq	PL_e_script(%rip), %rax	# PL_e_script, PL_e_script.87
	testq	%rax, %rax	# PL_e_script.87
	je	.L37	#,
	.loc 1 691 0
	movq	PL_e_script(%rip), %rax	# PL_e_script, PL_e_script.88
	movq	%rax, %rdi	# PL_e_script.88,
	call	Perl_sv_free	#
	.loc 1 692 0
	movq	$0, PL_e_script(%rip)	#, PL_e_script
.L37:
	.loc 1 695 0
	movl	$0, PL_perldb(%rip)	#, PL_perldb
	.loc 1 699 0
	movq	PL_ofs_sv(%rip), %rax	# PL_ofs_sv, PL_ofs_sv.89
	movq	%rax, %rdi	# PL_ofs_sv.89,
	call	Perl_sv_free	#
	.loc 1 700 0
	movq	$0, PL_ofs_sv(%rip)	#, PL_ofs_sv
	.loc 1 702 0
	movq	PL_ors_sv(%rip), %rax	# PL_ors_sv, PL_ors_sv.90
	movq	%rax, %rdi	# PL_ors_sv.90,
	call	Perl_sv_free	#
	.loc 1 703 0
	movq	$0, PL_ors_sv(%rip)	#, PL_ors_sv
	.loc 1 705 0
	movq	PL_rs(%rip), %rax	# PL_rs, PL_rs.91
	movq	%rax, %rdi	# PL_rs.91,
	call	Perl_sv_free	#
	.loc 1 706 0
	movq	$0, PL_rs(%rip)	#, PL_rs
	.loc 1 708 0
	movl	$0, PL_multiline(%rip)	#, PL_multiline
	.loc 1 709 0
	movq	PL_osname(%rip), %rax	# PL_osname, PL_osname.92
	movq	%rax, %rdi	# PL_osname.92,
	call	Perl_safesysfree	#
	.loc 1 710 0
	movq	$0, PL_osname(%rip)	#, PL_osname
	.loc 1 712 0
	movq	PL_statname(%rip), %rax	# PL_statname, PL_statname.93
	movq	%rax, %rdi	# PL_statname.93,
	call	Perl_sv_free	#
	.loc 1 713 0
	movq	$0, PL_statname(%rip)	#, PL_statname
	.loc 1 714 0
	movq	$0, PL_statgv(%rip)	#, PL_statgv
	.loc 1 719 0
	movq	PL_lastscream(%rip), %rax	# PL_lastscream, PL_lastscream.94
	movq	%rax, %rdi	# PL_lastscream.94,
	call	Perl_sv_free	#
	.loc 1 720 0
	movq	$0, PL_lastscream(%rip)	#, PL_lastscream
	.loc 1 721 0
	movq	PL_screamfirst(%rip), %rax	# PL_screamfirst, PL_screamfirst.95
	movq	%rax, %rdi	# PL_screamfirst.95,
	call	Perl_safesysfree	#
	.loc 1 722 0
	movq	$0, PL_screamfirst(%rip)	#, PL_screamfirst
	.loc 1 723 0
	movq	PL_screamnext(%rip), %rax	# PL_screamnext, PL_screamnext.96
	movq	%rax, %rdi	# PL_screamnext.96,
	call	Perl_safesysfree	#
	.loc 1 724 0
	movq	$0, PL_screamnext(%rip)	#, PL_screamnext
	.loc 1 727 0
	movq	PL_efloatbuf(%rip), %rax	# PL_efloatbuf, PL_efloatbuf.97
	movq	%rax, %rdi	# PL_efloatbuf.97,
	call	Perl_safesysfree	#
	.loc 1 728 0
	movq	$0, PL_efloatbuf(%rip)	#, PL_efloatbuf
	.loc 1 729 0
	movq	$0, PL_efloatsize(%rip)	#, PL_efloatsize
	.loc 1 732 0
	movq	PL_beginav(%rip), %rax	# PL_beginav, PL_beginav.98
	movq	%rax, %rdi	# PL_beginav.98,
	call	Perl_sv_free	#
	.loc 1 733 0
	movq	PL_beginav_save(%rip), %rax	# PL_beginav_save, PL_beginav_save.99
	movq	%rax, %rdi	# PL_beginav_save.99,
	call	Perl_sv_free	#
	.loc 1 734 0
	movq	PL_endav(%rip), %rax	# PL_endav, PL_endav.100
	movq	%rax, %rdi	# PL_endav.100,
	call	Perl_sv_free	#
	.loc 1 735 0
	movq	PL_checkav(%rip), %rax	# PL_checkav, PL_checkav.101
	movq	%rax, %rdi	# PL_checkav.101,
	call	Perl_sv_free	#
	.loc 1 736 0
	movq	PL_checkav_save(%rip), %rax	# PL_checkav_save, PL_checkav_save.102
	movq	%rax, %rdi	# PL_checkav_save.102,
	call	Perl_sv_free	#
	.loc 1 737 0
	movq	PL_initav(%rip), %rax	# PL_initav, PL_initav.103
	movq	%rax, %rdi	# PL_initav.103,
	call	Perl_sv_free	#
	.loc 1 738 0
	movq	$0, PL_beginav(%rip)	#, PL_beginav
	.loc 1 739 0
	movq	$0, PL_beginav_save(%rip)	#, PL_beginav_save
	.loc 1 740 0
	movq	$0, PL_endav(%rip)	#, PL_endav
	.loc 1 741 0
	movq	$0, PL_checkav(%rip)	#, PL_checkav
	.loc 1 742 0
	movq	$0, PL_checkav_save(%rip)	#, PL_checkav_save
	.loc 1 743 0
	movq	$0, PL_initav(%rip)	#, PL_initav
	.loc 1 746 0
	movq	$0, PL_envgv(%rip)	#, PL_envgv
	.loc 1 747 0
	movq	$0, PL_incgv(%rip)	#, PL_incgv
	.loc 1 748 0
	movq	$0, PL_hintgv(%rip)	#, PL_hintgv
	.loc 1 749 0
	movq	$0, PL_errgv(%rip)	#, PL_errgv
	.loc 1 750 0
	movq	$0, PL_argvgv(%rip)	#, PL_argvgv
	.loc 1 751 0
	movq	$0, PL_argvoutgv(%rip)	#, PL_argvoutgv
	.loc 1 752 0
	movq	$0, PL_stdingv(%rip)	#, PL_stdingv
	.loc 1 753 0
	movq	$0, PL_stderrgv(%rip)	#, PL_stderrgv
	.loc 1 754 0
	movq	$0, PL_last_in_gv(%rip)	#, PL_last_in_gv
	.loc 1 755 0
	movq	$0, PL_replgv(%rip)	#, PL_replgv
	.loc 1 756 0
	movq	$0, PL_DBgv(%rip)	#, PL_DBgv
	.loc 1 757 0
	movq	$0, PL_DBline(%rip)	#, PL_DBline
	.loc 1 758 0
	movq	$0, PL_DBsub(%rip)	#, PL_DBsub
	.loc 1 759 0
	movq	$0, PL_DBsingle(%rip)	#, PL_DBsingle
	.loc 1 760 0
	movq	$0, PL_DBtrace(%rip)	#, PL_DBtrace
	.loc 1 761 0
	movq	$0, PL_DBsignal(%rip)	#, PL_DBsignal
	.loc 1 762 0
	movq	$0, PL_DBcv(%rip)	#, PL_DBcv
	.loc 1 763 0
	movq	$0, PL_dbargs(%rip)	#, PL_dbargs
	.loc 1 764 0
	movq	$0, PL_debstash(%rip)	#, PL_debstash
	.loc 1 766 0
	movq	PL_argvout_stack(%rip), %rax	# PL_argvout_stack, PL_argvout_stack.104
	movq	%rax, %rdi	# PL_argvout_stack.104,
	call	Perl_sv_free	#
	.loc 1 767 0
	movq	$0, PL_argvout_stack(%rip)	#, PL_argvout_stack
	.loc 1 769 0
	movq	PL_modglobal(%rip), %rax	# PL_modglobal, PL_modglobal.105
	movq	%rax, %rdi	# PL_modglobal.105,
	call	Perl_sv_free	#
	.loc 1 770 0
	movq	$0, PL_modglobal(%rip)	#, PL_modglobal
	.loc 1 771 0
	movq	PL_preambleav(%rip), %rax	# PL_preambleav, PL_preambleav.106
	movq	%rax, %rdi	# PL_preambleav.106,
	call	Perl_sv_free	#
	.loc 1 772 0
	movq	$0, PL_preambleav(%rip)	#, PL_preambleav
	.loc 1 773 0
	movq	PL_subname(%rip), %rax	# PL_subname, PL_subname.107
	movq	%rax, %rdi	# PL_subname.107,
	call	Perl_sv_free	#
	.loc 1 774 0
	movq	$0, PL_subname(%rip)	#, PL_subname
	.loc 1 775 0
	movq	PL_linestr(%rip), %rax	# PL_linestr, PL_linestr.108
	movq	%rax, %rdi	# PL_linestr.108,
	call	Perl_sv_free	#
	.loc 1 776 0
	movq	$0, PL_linestr(%rip)	#, PL_linestr
	.loc 1 777 0
	movq	PL_pidstatus(%rip), %rax	# PL_pidstatus, PL_pidstatus.109
	movq	%rax, %rdi	# PL_pidstatus.109,
	call	Perl_sv_free	#
	.loc 1 778 0
	movq	$0, PL_pidstatus(%rip)	#, PL_pidstatus
	.loc 1 779 0
	movq	PL_toptarget(%rip), %rax	# PL_toptarget, PL_toptarget.110
	movq	%rax, %rdi	# PL_toptarget.110,
	call	Perl_sv_free	#
	.loc 1 780 0
	movq	$0, PL_toptarget(%rip)	#, PL_toptarget
	.loc 1 781 0
	movq	PL_bodytarget(%rip), %rax	# PL_bodytarget, PL_bodytarget.111
	movq	%rax, %rdi	# PL_bodytarget.111,
	call	Perl_sv_free	#
	.loc 1 782 0
	movq	$0, PL_bodytarget(%rip)	#, PL_bodytarget
	.loc 1 783 0
	movq	$0, PL_formtarget(%rip)	#, PL_formtarget
	.loc 1 799 0
	movq	PL_utf8_alnum(%rip), %rax	# PL_utf8_alnum, PL_utf8_alnum.112
	movq	%rax, %rdi	# PL_utf8_alnum.112,
	call	Perl_sv_free	#
	.loc 1 800 0
	movq	PL_utf8_alnumc(%rip), %rax	# PL_utf8_alnumc, PL_utf8_alnumc.113
	movq	%rax, %rdi	# PL_utf8_alnumc.113,
	call	Perl_sv_free	#
	.loc 1 801 0
	movq	PL_utf8_ascii(%rip), %rax	# PL_utf8_ascii, PL_utf8_ascii.114
	movq	%rax, %rdi	# PL_utf8_ascii.114,
	call	Perl_sv_free	#
	.loc 1 802 0
	movq	PL_utf8_alpha(%rip), %rax	# PL_utf8_alpha, PL_utf8_alpha.115
	movq	%rax, %rdi	# PL_utf8_alpha.115,
	call	Perl_sv_free	#
	.loc 1 803 0
	movq	PL_utf8_space(%rip), %rax	# PL_utf8_space, PL_utf8_space.116
	movq	%rax, %rdi	# PL_utf8_space.116,
	call	Perl_sv_free	#
	.loc 1 804 0
	movq	PL_utf8_cntrl(%rip), %rax	# PL_utf8_cntrl, PL_utf8_cntrl.117
	movq	%rax, %rdi	# PL_utf8_cntrl.117,
	call	Perl_sv_free	#
	.loc 1 805 0
	movq	PL_utf8_graph(%rip), %rax	# PL_utf8_graph, PL_utf8_graph.118
	movq	%rax, %rdi	# PL_utf8_graph.118,
	call	Perl_sv_free	#
	.loc 1 806 0
	movq	PL_utf8_digit(%rip), %rax	# PL_utf8_digit, PL_utf8_digit.119
	movq	%rax, %rdi	# PL_utf8_digit.119,
	call	Perl_sv_free	#
	.loc 1 807 0
	movq	PL_utf8_upper(%rip), %rax	# PL_utf8_upper, PL_utf8_upper.120
	movq	%rax, %rdi	# PL_utf8_upper.120,
	call	Perl_sv_free	#
	.loc 1 808 0
	movq	PL_utf8_lower(%rip), %rax	# PL_utf8_lower, PL_utf8_lower.121
	movq	%rax, %rdi	# PL_utf8_lower.121,
	call	Perl_sv_free	#
	.loc 1 809 0
	movq	PL_utf8_print(%rip), %rax	# PL_utf8_print, PL_utf8_print.122
	movq	%rax, %rdi	# PL_utf8_print.122,
	call	Perl_sv_free	#
	.loc 1 810 0
	movq	PL_utf8_punct(%rip), %rax	# PL_utf8_punct, PL_utf8_punct.123
	movq	%rax, %rdi	# PL_utf8_punct.123,
	call	Perl_sv_free	#
	.loc 1 811 0
	movq	PL_utf8_xdigit(%rip), %rax	# PL_utf8_xdigit, PL_utf8_xdigit.124
	movq	%rax, %rdi	# PL_utf8_xdigit.124,
	call	Perl_sv_free	#
	.loc 1 812 0
	movq	PL_utf8_mark(%rip), %rax	# PL_utf8_mark, PL_utf8_mark.125
	movq	%rax, %rdi	# PL_utf8_mark.125,
	call	Perl_sv_free	#
	.loc 1 813 0
	movq	PL_utf8_toupper(%rip), %rax	# PL_utf8_toupper, PL_utf8_toupper.126
	movq	%rax, %rdi	# PL_utf8_toupper.126,
	call	Perl_sv_free	#
	.loc 1 814 0
	movq	PL_utf8_totitle(%rip), %rax	# PL_utf8_totitle, PL_utf8_totitle.127
	movq	%rax, %rdi	# PL_utf8_totitle.127,
	call	Perl_sv_free	#
	.loc 1 815 0
	movq	PL_utf8_tolower(%rip), %rax	# PL_utf8_tolower, PL_utf8_tolower.128
	movq	%rax, %rdi	# PL_utf8_tolower.128,
	call	Perl_sv_free	#
	.loc 1 816 0
	movq	PL_utf8_tofold(%rip), %rax	# PL_utf8_tofold, PL_utf8_tofold.129
	movq	%rax, %rdi	# PL_utf8_tofold.129,
	call	Perl_sv_free	#
	.loc 1 817 0
	movq	PL_utf8_idstart(%rip), %rax	# PL_utf8_idstart, PL_utf8_idstart.130
	movq	%rax, %rdi	# PL_utf8_idstart.130,
	call	Perl_sv_free	#
	.loc 1 818 0
	movq	PL_utf8_idcont(%rip), %rax	# PL_utf8_idcont, PL_utf8_idcont.131
	movq	%rax, %rdi	# PL_utf8_idcont.131,
	call	Perl_sv_free	#
	.loc 1 819 0
	movq	$0, PL_utf8_alnum(%rip)	#, PL_utf8_alnum
	.loc 1 820 0
	movq	$0, PL_utf8_alnumc(%rip)	#, PL_utf8_alnumc
	.loc 1 821 0
	movq	$0, PL_utf8_ascii(%rip)	#, PL_utf8_ascii
	.loc 1 822 0
	movq	$0, PL_utf8_alpha(%rip)	#, PL_utf8_alpha
	.loc 1 823 0
	movq	$0, PL_utf8_space(%rip)	#, PL_utf8_space
	.loc 1 824 0
	movq	$0, PL_utf8_cntrl(%rip)	#, PL_utf8_cntrl
	.loc 1 825 0
	movq	$0, PL_utf8_graph(%rip)	#, PL_utf8_graph
	.loc 1 826 0
	movq	$0, PL_utf8_digit(%rip)	#, PL_utf8_digit
	.loc 1 827 0
	movq	$0, PL_utf8_upper(%rip)	#, PL_utf8_upper
	.loc 1 828 0
	movq	$0, PL_utf8_lower(%rip)	#, PL_utf8_lower
	.loc 1 829 0
	movq	$0, PL_utf8_print(%rip)	#, PL_utf8_print
	.loc 1 830 0
	movq	$0, PL_utf8_punct(%rip)	#, PL_utf8_punct
	.loc 1 831 0
	movq	$0, PL_utf8_xdigit(%rip)	#, PL_utf8_xdigit
	.loc 1 832 0
	movq	$0, PL_utf8_mark(%rip)	#, PL_utf8_mark
	.loc 1 833 0
	movq	$0, PL_utf8_toupper(%rip)	#, PL_utf8_toupper
	.loc 1 834 0
	movq	$0, PL_utf8_totitle(%rip)	#, PL_utf8_totitle
	.loc 1 835 0
	movq	$0, PL_utf8_tolower(%rip)	#, PL_utf8_tolower
	.loc 1 836 0
	movq	$0, PL_utf8_tofold(%rip)	#, PL_utf8_tofold
	.loc 1 837 0
	movq	$0, PL_utf8_idstart(%rip)	#, PL_utf8_idstart
	.loc 1 838 0
	movq	$0, PL_utf8_idcont(%rip)	#, PL_utf8_idcont
	.loc 1 840 0
	movq	PL_compiling+80(%rip), %rax	# PL_compiling.cop_warnings, D.14629
	testq	%rax, %rax	# D.14629
	je	.L38	#,
	.loc 1 840 0 is_stmt 0 discriminator 1
	movq	PL_compiling+80(%rip), %rax	# PL_compiling.cop_warnings, D.14629
	cmpq	$16, %rax	#, D.14629
	je	.L38	#,
	movq	PL_compiling+80(%rip), %rax	# PL_compiling.cop_warnings, D.14629
	cmpq	$32, %rax	#, D.14629
	je	.L38	#,
	.loc 1 841 0 is_stmt 1
	movq	PL_compiling+80(%rip), %rax	# PL_compiling.cop_warnings, D.14629
	movq	%rax, %rdi	# D.14629,
	call	Perl_sv_free	#
.L38:
	.loc 1 842 0
	movq	$0, PL_compiling+80(%rip)	#, PL_compiling.cop_warnings
	.loc 1 843 0
	movq	PL_compiling+88(%rip), %rax	# PL_compiling.cop_io, D.14629
	testq	%rax, %rax	# D.14629
	je	.L39	#,
	.loc 1 844 0
	movq	PL_compiling+88(%rip), %rax	# PL_compiling.cop_io, D.14629
	movq	%rax, %rdi	# D.14629,
	call	Perl_sv_free	#
.L39:
	.loc 1 845 0
	movq	$0, PL_compiling+88(%rip)	#, PL_compiling.cop_io
	.loc 1 846 0
	movq	PL_compiling+56(%rip), %rax	# PL_compiling.cop_filegv, D.14630
	movq	%rax, %rdi	# D.14630,
	call	Perl_sv_free	#
	movq	$0, PL_compiling+56(%rip)	#, PL_compiling.cop_filegv
	.loc 1 851 0
	movq	PL_defstash(%rip), %rax	# PL_defstash, tmp341
	movq	%rax, -248(%rbp)	# tmp341, hv
	.loc 1 852 0
	movq	$0, PL_defstash(%rip)	#, PL_defstash
	.loc 1 853 0
	movq	-248(%rbp), %rax	# hv, tmp342
	movq	%rax, %rdi	# tmp342,
	call	Perl_sv_free	#
	.loc 1 854 0
	movq	PL_curstname(%rip), %rax	# PL_curstname, PL_curstname.132
	movq	%rax, %rdi	# PL_curstname.132,
	call	Perl_sv_free	#
	.loc 1 855 0
	movq	$0, PL_curstname(%rip)	#, PL_curstname
	.loc 1 858 0
	movq	PL_errors(%rip), %rax	# PL_errors, PL_errors.133
	movq	%rax, %rdi	# PL_errors.133,
	call	Perl_sv_free	#
	.loc 1 859 0
	movq	$0, PL_errors(%rip)	#, PL_errors
	.loc 1 861 0
	movl	PL_tmps_ix(%rip), %edx	# PL_tmps_ix, PL_tmps_ix.134
	movl	PL_tmps_floor(%rip), %eax	# PL_tmps_floor, PL_tmps_floor.135
	cmpl	%eax, %edx	# PL_tmps_floor.135, PL_tmps_ix.134
	jle	.L40	#,
	.loc 1 861 0 is_stmt 0 discriminator 1
	call	Perl_free_tmps	#
.L40:
	.loc 1 862 0 is_stmt 1
	movl	-288(%rbp), %eax	# destruct_level, destruct_level.136
	cmpl	$1, %eax	#, destruct_level.136
	jle	.L41	#,
	.loc 1 862 0 is_stmt 0 discriminator 1
	movq	PL_curcop(%rip), %rax	# PL_curcop, PL_curcop.137
	movq	80(%rax), %rax	# PL_curcop.137_146->cop_warnings, D.14629
	testq	%rax, %rax	# D.14629
	je	.L42	#,
	movq	PL_curcop(%rip), %rax	# PL_curcop, PL_curcop.138
	movq	80(%rax), %rax	# PL_curcop.138_148->cop_warnings, D.14629
	cmpq	$16, %rax	#, D.14629
	je	.L42	#,
	movq	PL_curcop(%rip), %rax	# PL_curcop, PL_curcop.139
	movq	80(%rax), %rax	# PL_curcop.139_150->cop_warnings, D.14629
	cmpq	$32, %rax	#, D.14629
	je	.L41	#,
	movq	PL_curcop(%rip), %rax	# PL_curcop, PL_curcop.140
	movq	80(%rax), %rax	# PL_curcop.140_152->cop_warnings, D.14629
	movq	(%rax), %rax	# _153->sv_any, D.14627
	movq	(%rax), %rax	# MEM[(struct XPV *)_154].xpv_pv, D.14623
	addq	$6, %rax	#, D.14623
	movzbl	(%rax), %eax	# *_156, D.14631
	movsbl	%al, %eax	# D.14631, D.14619
	andl	$1, %eax	#, D.14619
	testl	%eax, %eax	# D.14619
	je	.L41	#,
.L42:
	.loc 1 863 0 is_stmt 1
	movl	PL_scopestack_ix(%rip), %eax	# PL_scopestack_ix, PL_scopestack_ix.141
	testl	%eax, %eax	# PL_scopestack_ix.141
	je	.L43	#,
	.loc 1 864 0
	movl	PL_scopestack_ix(%rip), %eax	# PL_scopestack_ix, PL_scopestack_ix.142
	cltq
	movq	%rax, %rdx	# D.14632,
	movl	$.LC3, %esi	#,
	movl	$24, %edi	#,
	movl	$0, %eax	#,
	call	Perl_warner	#
.L43:
	.loc 1 867 0
	movl	PL_savestack_ix(%rip), %eax	# PL_savestack_ix, PL_savestack_ix.143
	testl	%eax, %eax	# PL_savestack_ix.143
	je	.L44	#,
	.loc 1 868 0
	movl	PL_savestack_ix(%rip), %eax	# PL_savestack_ix, PL_savestack_ix.144
	cltq
	movq	%rax, %rdx	# D.14632,
	movl	$.LC4, %esi	#,
	movl	$24, %edi	#,
	movl	$0, %eax	#,
	call	Perl_warner	#
.L44:
	.loc 1 871 0
	movl	PL_tmps_floor(%rip), %eax	# PL_tmps_floor, PL_tmps_floor.145
	cmpl	$-1, %eax	#, PL_tmps_floor.145
	je	.L45	#,
	.loc 1 873 0
	movl	PL_tmps_floor(%rip), %eax	# PL_tmps_floor, PL_tmps_floor.146
	cltq
	.loc 1 872 0
	addq	$1, %rax	#, D.14632
	movq	%rax, %rdx	# D.14632,
	movl	$.LC5, %esi	#,
	movl	$24, %edi	#,
	movl	$0, %eax	#,
	call	Perl_warner	#
.L45:
	.loc 1 874 0
	movq	PL_curstackinfo(%rip), %rax	# PL_curstackinfo, PL_curstackinfo.147
	movl	16(%rax), %eax	# PL_curstackinfo.147_170->si_cxix, D.14619
	cmpl	$-1, %eax	#, D.14619
	je	.L41	#,
	.loc 1 876 0
	movq	PL_curstackinfo(%rip), %rax	# PL_curstackinfo, PL_curstackinfo.148
	movl	16(%rax), %eax	# PL_curstackinfo.148_172->si_cxix, D.14619
	cltq
	.loc 1 875 0
	addq	$1, %rax	#, D.14632
	movq	%rax, %rdx	# D.14632,
	movl	$.LC6, %esi	#,
	movl	$24, %edi	#,
	movl	$0, %eax	#,
	call	Perl_warner	#
.L41:
	.loc 1 880 0
	movq	PL_fdpid(%rip), %rax	# PL_fdpid, PL_fdpid.149
	movq	PL_fdpid(%rip), %rdx	# PL_fdpid, PL_fdpid.150
	movl	12(%rdx), %edx	# PL_fdpid.150_177->sv_flags, D.14633
	orb	$-1, %dl	#, D.14633
	movl	%edx, 12(%rax)	# D.14633, PL_fdpid.149_176->sv_flags
	.loc 1 881 0
	movq	PL_strtab(%rip), %rax	# PL_strtab, PL_strtab.151
	movq	PL_strtab(%rip), %rdx	# PL_strtab, PL_strtab.152
	movl	12(%rdx), %edx	# PL_strtab.152_181->sv_flags, D.14633
	orb	$-1, %dl	#, D.14633
	movl	%edx, 12(%rax)	# D.14633, PL_strtab.151_180->sv_flags
	.loc 1 884 0
	nop
.L47:
	.loc 1 884 0 is_stmt 0 discriminator 1
	movl	PL_sv_count(%rip), %eax	# PL_sv_count, PL_sv_count.153
	cmpl	$2, %eax	#, PL_sv_count.153
	jle	.L46	#,
	.loc 1 884 0 discriminator 2
	call	Perl_sv_clean_all	#
	testl	%eax, %eax	# D.14619
	jne	.L47	#,
.L46:
	.loc 1 887 0 is_stmt 1
	movq	PL_fdpid(%rip), %rax	# PL_fdpid, PL_fdpid.154
	movq	PL_fdpid(%rip), %rdx	# PL_fdpid, PL_fdpid.155
	movl	12(%rdx), %edx	# PL_fdpid.155_187->sv_flags, D.14633
	movb	$0, %dl	#, D.14633
	movl	%edx, 12(%rax)	# D.14633, PL_fdpid.154_186->sv_flags
	.loc 1 888 0
	movq	PL_fdpid(%rip), %rax	# PL_fdpid, PL_fdpid.156
	movq	PL_fdpid(%rip), %rdx	# PL_fdpid, PL_fdpid.157
	movl	12(%rdx), %edx	# PL_fdpid.157_191->sv_flags, D.14633
	orl	$10, %edx	#, D.14633
	movl	%edx, 12(%rax)	# D.14633, PL_fdpid.156_190->sv_flags
	.loc 1 889 0
	movq	PL_strtab(%rip), %rax	# PL_strtab, PL_strtab.158
	movq	PL_strtab(%rip), %rdx	# PL_strtab, PL_strtab.159
	movl	12(%rdx), %edx	# PL_strtab.159_195->sv_flags, D.14633
	movb	$0, %dl	#, D.14633
	movl	%edx, 12(%rax)	# D.14633, PL_strtab.158_194->sv_flags
	.loc 1 890 0
	movq	PL_strtab(%rip), %rax	# PL_strtab, PL_strtab.160
	movq	PL_strtab(%rip), %rdx	# PL_strtab, PL_strtab.161
	movl	12(%rdx), %edx	# PL_strtab.161_199->sv_flags, D.14633
	orl	$11, %edx	#, D.14633
	movl	%edx, 12(%rax)	# D.14633, PL_strtab.160_198->sv_flags
	.loc 1 892 0
	movq	PL_fdpid(%rip), %rax	# PL_fdpid, PL_fdpid.162
	movq	(%rax), %rax	# PL_fdpid.162_202->sv_any, D.14622
	movq	PL_fdpid(%rip), %rdx	# PL_fdpid, PL_fdpid.163
	movq	(%rdx), %rdx	# PL_fdpid.163_204->sv_any, D.14622
	movzbl	72(%rdx), %edx	# _205->xav_flags, D.14634
	andl	$-2, %edx	#, D.14634
	movb	%dl, 72(%rax)	# D.14634, _203->xav_flags
	.loc 1 893 0
	movq	PL_fdpid(%rip), %rax	# PL_fdpid, PL_fdpid.164
	movq	%rax, %rdi	# PL_fdpid.164,
	call	Perl_sv_free	#
	.loc 1 894 0
	movq	$0, PL_fdpid(%rip)	#, PL_fdpid
.LBB8:
	.loc 1 910 0
	movl	$0, -280(%rbp)	#, riter
	.loc 1 911 0
	movq	PL_strtab(%rip), %rax	# PL_strtab, PL_strtab.165
	movq	(%rax), %rax	# PL_strtab.165_210->sv_any, D.14635
	movq	16(%rax), %rax	# _211->xhv_max, D.14624
	movl	%eax, -268(%rbp)	# D.14624, max
	.loc 1 912 0
	movq	PL_strtab(%rip), %rax	# PL_strtab, PL_strtab.166
	movq	(%rax), %rax	# PL_strtab.166_214->sv_any, D.14635
	movq	(%rax), %rax	# _215->xhv_array, tmp343
	movq	%rax, -240(%rbp)	# tmp343, array
	.loc 1 913 0
	movq	-240(%rbp), %rax	# array, tmp344
	movq	(%rax), %rax	# *array_216, tmp345
	movq	%rax, -264(%rbp)	# tmp345, hent
.L53:
	.loc 1 915 0
	cmpq	$0, -264(%rbp)	#, hent
	je	.L48	#,
	.loc 1 915 0 is_stmt 0 discriminator 1
	movq	PL_curcop(%rip), %rax	# PL_curcop, PL_curcop.167
	movq	80(%rax), %rax	# PL_curcop.167_218->cop_warnings, D.14629
	testq	%rax, %rax	# D.14629
	je	.L49	#,
	movq	PL_curcop(%rip), %rax	# PL_curcop, PL_curcop.168
	movq	80(%rax), %rax	# PL_curcop.168_220->cop_warnings, D.14629
	cmpq	$16, %rax	#, D.14629
	je	.L49	#,
	movq	PL_curcop(%rip), %rax	# PL_curcop, PL_curcop.169
	movq	80(%rax), %rax	# PL_curcop.169_222->cop_warnings, D.14629
	cmpq	$32, %rax	#, D.14629
	je	.L48	#,
	movq	PL_curcop(%rip), %rax	# PL_curcop, PL_curcop.170
	movq	80(%rax), %rax	# PL_curcop.170_224->cop_warnings, D.14629
	movq	(%rax), %rax	# _225->sv_any, D.14627
	movq	(%rax), %rax	# MEM[(struct XPV *)_226].xpv_pv, D.14623
	addq	$6, %rax	#, D.14623
	movzbl	(%rax), %eax	# *_228, D.14631
	movsbl	%al, %eax	# D.14631, D.14619
	andl	$1, %eax	#, D.14619
	testl	%eax, %eax	# D.14619
	je	.L48	#,
.L49:
	.loc 1 918 0 is_stmt 1
	movq	-264(%rbp), %rax	# hent, tmp346
	movq	8(%rax), %rax	# hent_4->hent_hek, D.14636
	leaq	8(%rax), %rdx	#, D.14637
	movq	-264(%rbp), %rax	# hent, tmp347
	movq	16(%rax), %rax	# hent_4->hent_val, D.14629
	.loc 1 916 0
	sarq	$4, %rax	#, tmp348
	movq	%rdx, %rcx	# D.14637,
	movq	%rax, %rdx	# D.14632,
	movl	$.LC7, %esi	#,
	movl	$24, %edi	#,
	movl	$0, %eax	#,
	call	Perl_warner	#
	.loc 1 919 0
	movq	-264(%rbp), %rax	# hent, tmp349
	movq	$0, 16(%rax)	#, hent_4->hent_val
	.loc 1 920 0
	movq	-264(%rbp), %rax	# hent, tmp350
	movq	(%rax), %rax	# hent_4->hent_next, tmp351
	movq	%rax, -264(%rbp)	# tmp351, hent
.L48:
	.loc 1 922 0
	cmpq	$0, -264(%rbp)	#, hent
	jne	.L50	#,
	.loc 1 923 0
	addl	$1, -280(%rbp)	#, riter
	movl	-280(%rbp), %eax	# riter, tmp352
	cmpl	-268(%rbp), %eax	# max, tmp352
	jle	.L51	#,
	.loc 1 924 0
	nop
.LBE8:
	.loc 1 929 0
	movq	PL_strtab(%rip), %rax	# PL_strtab, PL_strtab.171
	movq	%rax, %rdi	# PL_strtab.171,
	call	Perl_sv_free	#
	.loc 1 939 0
	movl	$0, PL_sv_yes+8(%rip)	#, PL_sv_yes.sv_refcnt
	.loc 1 940 0
	movl	$PL_sv_yes, %edi	#,
	call	Perl_sv_clear	#
	.loc 1 941 0
	movq	$0, PL_sv_yes(%rip)	#, PL_sv_yes.sv_any
	.loc 1 942 0
	movl	$0, PL_sv_yes+12(%rip)	#, PL_sv_yes.sv_flags
	.loc 1 944 0
	movl	$0, PL_sv_no+8(%rip)	#, PL_sv_no.sv_refcnt
	.loc 1 945 0
	movl	$PL_sv_no, %edi	#,
	call	Perl_sv_clear	#
	.loc 1 946 0
	movq	$0, PL_sv_no(%rip)	#, PL_sv_no.sv_any
	.loc 1 947 0
	movl	$0, PL_sv_no+12(%rip)	#, PL_sv_no.sv_flags
.LBB9:
	.loc 1 951 0
	movl	$0, -276(%rbp)	#, i
	jmp	.L54	#
.L51:
.LBE9:
.LBB10:
	.loc 1 925 0
	movl	-280(%rbp), %eax	# riter, tmp353
	cltq
	leaq	0(,%rax,8), %rdx	#, D.14624
	movq	-240(%rbp), %rax	# array, tmp354
	addq	%rdx, %rax	# D.14624, D.14638
	movq	(%rax), %rax	# *_302, tmp355
	movq	%rax, -264(%rbp)	# tmp355, hent
	.loc 1 927 0
	jmp	.L53	#
.L50:
	jmp	.L53	#
.L55:
.LBE10:
.LBB11:
	.loc 1 952 0 discriminator 2
	movl	-276(%rbp), %eax	# i, tmp357
	cltq
	salq	$4, %rax	#, tmp358
	addq	$PL_debug_pad, %rax	#, tmp359
	movl	$0, 8(%rax)	#, PL_debug_pad.pad[i_7].sv_refcnt
	.loc 1 953 0 discriminator 2
	movl	-276(%rbp), %eax	# i, tmp361
	cltq
	salq	$4, %rax	#, tmp362
	addq	$PL_debug_pad, %rax	#, D.14629
	movq	%rax, %rdi	# D.14629,
	call	Perl_sv_clear	#
	.loc 1 954 0 discriminator 2
	movl	-276(%rbp), %eax	# i, tmp364
	cltq
	salq	$4, %rax	#, tmp365
	addq	$PL_debug_pad, %rax	#, tmp366
	movq	$0, (%rax)	#, PL_debug_pad.pad[i_7].sv_any
	.loc 1 955 0 discriminator 2
	movl	-276(%rbp), %eax	# i, tmp368
	cltq
	salq	$4, %rax	#, tmp369
	addq	$PL_debug_pad, %rax	#, tmp370
	movl	$0, 12(%rax)	#, PL_debug_pad.pad[i_7].sv_flags
	.loc 1 951 0 discriminator 2
	addl	$1, -276(%rbp)	#, i
.L54:
	.loc 1 951 0 is_stmt 0 discriminator 1
	cmpl	$2, -276(%rbp)	#, i
	jle	.L55	#,
.LBE11:
	.loc 1 959 0 is_stmt 1
	movl	PL_sv_count(%rip), %eax	# PL_sv_count, PL_sv_count.172
	testl	%eax, %eax	# PL_sv_count.172
	je	.L56	#,
	.loc 1 959 0 is_stmt 0 discriminator 1
	movq	PL_curcop(%rip), %rax	# PL_curcop, PL_curcop.173
	movq	80(%rax), %rax	# PL_curcop.173_244->cop_warnings, D.14629
	testq	%rax, %rax	# D.14629
	je	.L57	#,
	movq	PL_curcop(%rip), %rax	# PL_curcop, PL_curcop.174
	movq	80(%rax), %rax	# PL_curcop.174_246->cop_warnings, D.14629
	cmpq	$16, %rax	#, D.14629
	je	.L57	#,
	movq	PL_curcop(%rip), %rax	# PL_curcop, PL_curcop.175
	movq	80(%rax), %rax	# PL_curcop.175_248->cop_warnings, D.14629
	cmpq	$32, %rax	#, D.14629
	je	.L56	#,
	movq	PL_curcop(%rip), %rax	# PL_curcop, PL_curcop.176
	movq	80(%rax), %rax	# PL_curcop.176_250->cop_warnings, D.14629
	movq	(%rax), %rax	# _251->sv_any, D.14627
	movq	(%rax), %rax	# MEM[(struct XPV *)_252].xpv_pv, D.14623
	addq	$6, %rax	#, D.14623
	movzbl	(%rax), %eax	# *_254, D.14631
	movsbl	%al, %eax	# D.14631, D.14619
	andl	$1, %eax	#, D.14619
	testl	%eax, %eax	# D.14619
	je	.L56	#,
.L57:
	.loc 1 960 0 is_stmt 1
	movl	PL_sv_count(%rip), %eax	# PL_sv_count, PL_sv_count.177
	cltq
	movq	%rax, %rdx	# D.14632,
	movl	$.LC8, %esi	#,
	movl	$24, %edi	#,
	movl	$0, %eax	#,
	call	Perl_warner	#
.L56:
	.loc 1 981 0
	movl	$0, PL_sv_count(%rip)	#, PL_sv_count
	.loc 1 986 0
	call	PerlIO_cleanup	#
	.loc 1 993 0
	movl	$0, PL_sv_undef+8(%rip)	#, PL_sv_undef.sv_refcnt
	.loc 1 994 0
	movl	PL_sv_undef+12(%rip), %eax	# PL_sv_undef.sv_flags, D.14633
	andl	$-8388609, %eax	#, D.14633
	movl	%eax, PL_sv_undef+12(%rip)	# D.14633, PL_sv_undef.sv_flags
	.loc 1 996 0
	movq	PL_origfilename(%rip), %rax	# PL_origfilename, PL_origfilename.178
	movq	%rax, %rdi	# PL_origfilename.178,
	call	Perl_safesysfree	#
	.loc 1 997 0
	movq	$0, PL_origfilename(%rip)	#, PL_origfilename
	.loc 1 998 0
	movq	PL_reg_start_tmp(%rip), %rax	# PL_reg_start_tmp, PL_reg_start_tmp.179
	movq	%rax, %rdi	# PL_reg_start_tmp.179,
	call	Perl_safesysfree	#
	.loc 1 999 0
	movq	$0, PL_reg_start_tmp(%rip)	#, PL_reg_start_tmp
	.loc 1 1000 0
	movl	$0, PL_reg_start_tmpl(%rip)	#, PL_reg_start_tmpl
	.loc 1 1001 0
	movq	PL_reg_curpm(%rip), %rax	# PL_reg_curpm, PL_reg_curpm.180
	testq	%rax, %rax	# PL_reg_curpm.180
	je	.L58	#,
	.loc 1 1002 0
	movq	PL_reg_curpm(%rip), %rax	# PL_reg_curpm, PL_reg_curpm.181
	movq	%rax, %rdi	# PL_reg_curpm.181,
	call	Perl_safesysfree	#
.L58:
	.loc 1 1003 0
	movq	PL_reg_poscache(%rip), %rax	# PL_reg_poscache, PL_reg_poscache.182
	movq	%rax, %rdi	# PL_reg_poscache.182,
	call	Perl_safesysfree	#
	.loc 1 1004 0
	call	Perl_free_tied_hv_pool	#
	.loc 1 1005 0
	movq	PL_op_mask(%rip), %rax	# PL_op_mask, PL_op_mask.183
	movq	%rax, %rdi	# PL_op_mask.183,
	call	Perl_safesysfree	#
	.loc 1 1006 0
	movq	PL_psig_ptr(%rip), %rax	# PL_psig_ptr, PL_psig_ptr.184
	movq	%rax, %rdi	# PL_psig_ptr.184,
	call	Perl_safesysfree	#
	.loc 1 1007 0
	movq	$0, PL_psig_ptr(%rip)	#, PL_psig_ptr
	.loc 1 1008 0
	movq	PL_psig_name(%rip), %rax	# PL_psig_name, PL_psig_name.185
	movq	%rax, %rdi	# PL_psig_name.185,
	call	Perl_safesysfree	#
	.loc 1 1009 0
	movq	$0, PL_psig_name(%rip)	#, PL_psig_name
	.loc 1 1010 0
	movq	PL_bitcount(%rip), %rax	# PL_bitcount, PL_bitcount.186
	movq	%rax, %rdi	# PL_bitcount.186,
	call	Perl_safesysfree	#
	.loc 1 1011 0
	movq	$0, PL_bitcount(%rip)	#, PL_bitcount
	.loc 1 1012 0
	movq	PL_psig_pend(%rip), %rax	# PL_psig_pend, PL_psig_pend.187
	movq	%rax, %rdi	# PL_psig_pend.187,
	call	Perl_safesysfree	#
	.loc 1 1013 0
	movq	$0, PL_psig_pend(%rip)	#, PL_psig_pend
	.loc 1 1014 0
	movq	$0, PL_formfeed(%rip)	#, PL_formfeed
	.loc 1 1015 0
	movq	PL_ofmt(%rip), %rax	# PL_ofmt, PL_ofmt.188
	movq	%rax, %rdi	# PL_ofmt.188,
	call	Perl_safesysfree	#
	.loc 1 1016 0
	movq	$0, PL_ofmt(%rip)	#, PL_ofmt
	.loc 1 1017 0
	call	S_nuke_stacks	#
	.loc 1 1018 0
	movb	$0, PL_tainting(%rip)	#, PL_tainting
	.loc 1 1019 0
	movb	$0, PL_taint_warn(%rip)	#, PL_taint_warn
	.loc 1 1020 0
	movl	$0, PL_hints(%rip)	#, PL_hints
	.loc 1 1021 0
	movl	$0, PL_debug(%rip)	#, PL_debug
	.loc 1 1046 0
	call	Perl_sv_free_arenas	#
	.loc 1 1050 0
	movq	PL_mess_sv(%rip), %rax	# PL_mess_sv, PL_mess_sv.189
	testq	%rax, %rax	# PL_mess_sv.189
	je	.L59	#,
	.loc 1 1052 0
	movq	PL_mess_sv(%rip), %rax	# PL_mess_sv, PL_mess_sv.190
	movl	12(%rax), %eax	# PL_mess_sv.190_274->sv_flags, D.14633
	movzbl	%al, %eax	# D.14633, D.14633
	cmpl	$6, %eax	#, D.14633
	jbe	.L60	#,
.LBB12:
	.loc 1 1055 0
	movq	PL_mess_sv(%rip), %rax	# PL_mess_sv, PL_mess_sv.191
	movq	(%rax), %rax	# PL_mess_sv.191_277->sv_any, D.14627
	movq	40(%rax), %rax	# MEM[(struct XPVMG *)_278].xmg_magic, tmp371
	movq	%rax, -256(%rbp)	# tmp371, mg
	jmp	.L61	#
.L63:
	.loc 1 1056 0
	movq	-256(%rbp), %rax	# mg, tmp372
	movq	(%rax), %rax	# mg_8->mg_moremagic, tmp373
	movq	%rax, -232(%rbp)	# tmp373, moremagic
	.loc 1 1057 0
	movq	-256(%rbp), %rax	# mg, tmp374
	movq	32(%rax), %rax	# mg_8->mg_ptr, D.14623
	testq	%rax, %rax	# D.14623
	je	.L62	#,
	.loc 1 1057 0 is_stmt 0 discriminator 1
	movq	-256(%rbp), %rax	# mg, tmp375
	movzbl	18(%rax), %eax	# mg_8->mg_type, D.14631
	cmpb	$103, %al	#, D.14631
	je	.L62	#,
	.loc 1 1058 0 is_stmt 1
	movq	-256(%rbp), %rax	# mg, tmp376
	movl	40(%rax), %eax	# mg_8->mg_len, D.14619
	testl	%eax, %eax	# D.14619
	js	.L62	#,
	.loc 1 1059 0
	movq	-256(%rbp), %rax	# mg, tmp377
	movq	32(%rax), %rax	# mg_8->mg_ptr, D.14623
	movq	%rax, %rdi	# D.14623,
	call	Perl_safesysfree	#
.L62:
	.loc 1 1060 0
	movq	-256(%rbp), %rax	# mg, tmp378
	movq	%rax, %rdi	# tmp378,
	call	Perl_safesysfree	#
	.loc 1 1055 0
	movq	-232(%rbp), %rax	# moremagic, tmp379
	movq	%rax, -256(%rbp)	# tmp379, mg
.L61:
	.loc 1 1055 0 is_stmt 0 discriminator 1
	cmpq	$0, -256(%rbp)	#, mg
	jne	.L63	#,
.L60:
.LBE12:
	.loc 1 1064 0 is_stmt 1
	movq	PL_mess_sv(%rip), %rax	# PL_mess_sv, PL_mess_sv.193
	movl	12(%rax), %eax	# PL_mess_sv.193_286->sv_flags, D.14633
	andl	$2097152, %eax	#, D.14633
	testl	%eax, %eax	# D.14633
	je	.L65	#,
	.loc 1 1064 0 is_stmt 0 discriminator 1
	movq	PL_mess_sv(%rip), %rax	# PL_mess_sv, PL_mess_sv.194
	movq	%rax, %rdi	# PL_mess_sv.194,
	call	Perl_sv_backoff	#
	testl	%eax, %eax	# D.14619
	je	.L65	#,
	.loc 1 1064 0
	nop
.L65:
	.loc 1 1065 0 is_stmt 1
	movq	PL_mess_sv(%rip), %rax	# PL_mess_sv, PL_mess_sv.195
	movq	(%rax), %rax	# PL_mess_sv.195_293->sv_any, D.14627
	movq	(%rax), %rax	# MEM[(struct XPV *)_294].xpv_pv, D.14623
	movq	%rax, %rdi	# D.14623,
	call	Perl_safesysfree	#
	.loc 1 1066 0
	movq	PL_mess_sv(%rip), %rax	# PL_mess_sv, PL_mess_sv.196
	movq	(%rax), %rax	# PL_mess_sv.196_296->sv_any, D.14627
	movq	%rax, %rdi	# D.14627,
	call	Perl_safesysfree	#
	.loc 1 1067 0
	movq	PL_mess_sv(%rip), %rax	# PL_mess_sv, PL_mess_sv.197
	movq	%rax, %rdi	# PL_mess_sv.197,
	call	Perl_safesysfree	#
	.loc 1 1068 0
	movq	$0, PL_mess_sv(%rip)	#, PL_mess_sv
.L59:
	.loc 1 1070 0
	movl	PL_statusvalue(%rip), %eax	# PL_statusvalue, D.14619
.L26:
	.loc 1 1071 0
	leave
	.cfi_def_cfa 7, 8
	ret
	.cfi_endproc
.LFE5:
	.size	perl_destruct, .-perl_destruct
	.globl	perl_free
	.type	perl_free, @function
perl_free:
.LFB6:
	.loc 1 1083 0
	.cfi_startproc
	pushq	%rbp	#
	.cfi_def_cfa_offset 16
	.cfi_offset 6, -16
	movq	%rsp, %rbp	#,
	.cfi_def_cfa_register 6
	movq	%rdi, %rax	# my_perl, my_perl
	.loc 1 1101 0
	movq	%rax, %rdi	# my_perl,
	call	free	#
	.loc 1 1103 0
	popq	%rbp	#
	.cfi_def_cfa 7, 8
	ret
	.cfi_endproc
.LFE6:
	.size	perl_free, .-perl_free
	.globl	Perl_call_atexit
	.type	Perl_call_atexit, @function
Perl_call_atexit:
.LFB7:
	.loc 1 1134 0
	.cfi_startproc
	pushq	%rbp	#
	.cfi_def_cfa_offset 16
	.cfi_offset 6, -16
	movq	%rsp, %rbp	#,
	.cfi_def_cfa_register 6
	subq	$16, %rsp	#,
	movq	%rdi, -8(%rbp)	# fn, fn
	movq	%rsi, -16(%rbp)	# ptr, ptr
	.loc 1 1135 0
	movl	PL_exitlistlen(%rip), %eax	# PL_exitlistlen, PL_exitlistlen.198
	addl	$1, %eax	#, D.14645
	cltq
	salq	$4, %rax	#, D.14646
	movq	%rax, %rdx	# D.14646, D.14646
	movq	PL_exitlist(%rip), %rax	# PL_exitlist, PL_exitlist.199
	movq	%rdx, %rsi	# D.14646,
	movq	%rax, %rdi	# PL_exitlist.199,
	call	Perl_safesysrealloc	#
	movq	%rax, PL_exitlist(%rip)	# PL_exitlist.200, PL_exitlist
	.loc 1 1136 0
	movq	PL_exitlist(%rip), %rax	# PL_exitlist, PL_exitlist.201
	movl	PL_exitlistlen(%rip), %edx	# PL_exitlistlen, PL_exitlistlen.202
	movslq	%edx, %rdx	# PL_exitlistlen.202, D.14646
	salq	$4, %rdx	#, D.14646
	addq	%rax, %rdx	# PL_exitlist.201, D.14647
	movq	-8(%rbp), %rax	# fn, tmp77
	movq	%rax, (%rdx)	# tmp77, _11->fn
	.loc 1 1137 0
	movq	PL_exitlist(%rip), %rax	# PL_exitlist, PL_exitlist.203
	movl	PL_exitlistlen(%rip), %edx	# PL_exitlistlen, PL_exitlistlen.204
	movslq	%edx, %rdx	# PL_exitlistlen.204, D.14646
	salq	$4, %rdx	#, D.14646
	addq	%rax, %rdx	# PL_exitlist.203, D.14647
	movq	-16(%rbp), %rax	# ptr, tmp78
	movq	%rax, 8(%rdx)	# tmp78, _17->ptr
	.loc 1 1138 0
	movl	PL_exitlistlen(%rip), %eax	# PL_exitlistlen, PL_exitlistlen.205
	addl	$1, %eax	#, PL_exitlistlen.206
	movl	%eax, PL_exitlistlen(%rip)	# PL_exitlistlen.206, PL_exitlistlen
	.loc 1 1139 0
	leave
	.cfi_def_cfa 7, 8
	ret
	.cfi_endproc
.LFE7:
	.size	Perl_call_atexit, .-Perl_call_atexit
	.section	.rodata
.LC9:
	.string	"NoNe  SuCh"
.LC10:
	.string	"panic: top_env\n"
	.text
	.globl	perl_parse
	.type	perl_parse, @function
perl_parse:
.LFB8:
	.loc 1 1151 0
	.cfi_startproc
	pushq	%rbp	#
	.cfi_def_cfa_offset 16
	.cfi_offset 6, -16
	movq	%rsp, %rbp	#,
	.cfi_def_cfa_register 6
	subq	$304, %rsp	#,
	movq	%rsi, -280(%rbp)	# xsinit, xsinit
	movl	%edx, -284(%rbp)	# argc, argc
	movq	%rcx, -296(%rbp)	# argv, argv
	movq	%r8, -304(%rbp)	# env, env
	.loc 1 1173 0
	movzbl	PL_rehash_seed_set(%rip), %eax	# PL_rehash_seed_set, PL_rehash_seed_set.207
	testb	%al, %al	# PL_rehash_seed_set.207
	jne	.L69	#,
	.loc 1 1174 0
	call	Perl_get_hash_seed	#
	movq	%rax, PL_rehash_seed(%rip)	# PL_rehash_seed.208, PL_rehash_seed
.L69:
	.loc 1 1190 0
	movl	-284(%rbp), %eax	# argc, tmp189
	movl	%eax, PL_origargc(%rip)	# tmp189, PL_origargc
	.loc 1 1191 0
	movq	-296(%rbp), %rax	# argv, tmp190
	movq	%rax, PL_origargv(%rip)	# tmp190, PL_origargv
.LBB13:
	.loc 1 1201 0
	movq	$0, -248(%rbp)	#, s
	.loc 1 1203 0
	movq	$-8, -240(%rbp)	#, mask
	.loc 1 1207 0
	cmpq	$-1, -240(%rbp)	#, mask
	je	.L70	#,
	.loc 1 1207 0 is_stmt 0 discriminator 1
	movq	-296(%rbp), %rax	# argv, tmp191
	movq	(%rax), %rax	# *argv_18(D), D.14649
	andq	-240(%rbp), %rax	# mask, D.14650
	movq	%rax, %rdx	# D.14650, D.14650
	movq	-296(%rbp), %rax	# argv, tmp192
	movq	(%rax), %rax	# *argv_18(D), D.14649
	cmpq	%rax, %rdx	# D.14650, D.14650
	jne	.L70	#,
	.loc 1 1207 0 discriminator 3
	movl	$1, %eax	#, iftmp.209
	jmp	.L71	#
.L70:
	.loc 1 1207 0 discriminator 2
	movl	$0, %eax	#, iftmp.209
.L71:
	.loc 1 1206 0 is_stmt 1
	cltq
	movq	%rax, -232(%rbp)	# tmp193, aligned
	.loc 1 1218 0
	movq	PL_origargv(%rip), %rax	# PL_origargv, PL_origargv.210
	testq	%rax, %rax	# PL_origargv.210
	je	.L72	#,
	.loc 1 1218 0 is_stmt 0 discriminator 1
	movl	PL_origargc(%rip), %eax	# PL_origargc, PL_origargc.211
	testl	%eax, %eax	# PL_origargc.211
	jle	.L72	#,
	movq	PL_origargv(%rip), %rax	# PL_origargv, PL_origargv.212
	movq	(%rax), %rax	# *PL_origargv.212_31, tmp194
	movq	%rax, -248(%rbp)	# tmp194, s
	cmpq	$0, -248(%rbp)	#, s
	je	.L72	#,
	.loc 1 1219 0 is_stmt 1
	jmp	.L73	#
.L74:
	.loc 1 1219 0 is_stmt 0 discriminator 2
	addq	$1, -248(%rbp)	#, s
.L73:
	.loc 1 1219 0 discriminator 1
	movq	-248(%rbp), %rax	# s, tmp195
	movzbl	(%rax), %eax	# *s_2, D.14651
	testb	%al, %al	# D.14651
	jne	.L74	#,
	.loc 1 1220 0 is_stmt 1
	movl	$1, -256(%rbp)	#, i
	jmp	.L75	#
.L79:
	.loc 1 1221 0
	movq	PL_origargv(%rip), %rax	# PL_origargv, PL_origargv.213
	movl	-256(%rbp), %edx	# i, tmp196
	movslq	%edx, %rdx	# tmp196, D.14650
	salq	$3, %rdx	#, D.14650
	addq	%rdx, %rax	# D.14650, D.14652
	movq	(%rax), %rax	# *_40, D.14649
	movq	-248(%rbp), %rdx	# s, tmp197
	addq	$1, %rdx	#, D.14649
	cmpq	%rdx, %rax	# D.14649, D.14649
	je	.L76	#,
	.loc 1 1226 0
	cmpq	$0, -232(%rbp)	#, aligned
	je	.L72	#,
	.loc 1 1228 0
	movq	PL_origargv(%rip), %rax	# PL_origargv, PL_origargv.214
	movl	-256(%rbp), %edx	# i, tmp198
	movslq	%edx, %rdx	# tmp198, D.14650
	salq	$3, %rdx	#, D.14650
	addq	%rdx, %rax	# D.14650, D.14652
	movq	(%rax), %rax	# *_46, D.14649
	.loc 1 1227 0
	cmpq	-248(%rbp), %rax	# s, D.14649
	jbe	.L72	#,
	.loc 1 1229 0
	movq	PL_origargv(%rip), %rax	# PL_origargv, PL_origargv.215
	movl	-256(%rbp), %edx	# i, tmp199
	movslq	%edx, %rdx	# tmp199, D.14650
	salq	$3, %rdx	#, D.14650
	addq	%rdx, %rax	# D.14650, D.14652
	movq	(%rax), %rdx	# *_51, D.14649
	.loc 1 1230 0
	movq	-248(%rbp), %rax	# s, tmp200
	addq	$8, %rax	#, D.14649
	andq	-240(%rbp), %rax	# mask, D.14650
	.loc 1 1228 0
	cmpq	%rax, %rdx	# D.14649, D.14649
	ja	.L72	#,
.L76:
	.loc 1 1233 0
	movq	PL_origargv(%rip), %rax	# PL_origargv, PL_origargv.216
	movl	-256(%rbp), %edx	# i, tmp201
	movslq	%edx, %rdx	# tmp201, D.14650
	salq	$3, %rdx	#, D.14650
	addq	%rdx, %rax	# D.14650, D.14652
	movq	(%rax), %rax	# *_60, tmp202
	movq	%rax, -248(%rbp)	# tmp202, s
	.loc 1 1234 0
	jmp	.L77	#
.L78:
	.loc 1 1234 0 is_stmt 0 discriminator 2
	addq	$1, -248(%rbp)	#, s
.L77:
	.loc 1 1234 0 discriminator 1
	movq	-248(%rbp), %rax	# s, tmp203
	movzbl	(%rax), %eax	# *s_3, D.14651
	testb	%al, %al	# D.14651
	jne	.L78	#,
	.loc 1 1220 0 is_stmt 1
	addl	$1, -256(%rbp)	#, i
.L75:
	.loc 1 1220 0 is_stmt 0 discriminator 1
	movl	PL_origargc(%rip), %eax	# PL_origargc, PL_origargc.217
	cmpl	%eax, -256(%rbp)	# PL_origargc.217, i
	jl	.L79	#,
.L72:
	.loc 1 1241 0 is_stmt 1
	movq	PL_origenviron(%rip), %rax	# PL_origenviron, PL_origenviron.218
	testq	%rax, %rax	# PL_origenviron.218
	je	.L80	#,
	.loc 1 1242 0
	movq	PL_origenviron(%rip), %rax	# PL_origenviron, PL_origenviron.219
	movq	(%rax), %rax	# *PL_origenviron.219_66, D.14649
	movq	-248(%rbp), %rdx	# s, tmp204
	addq	$1, %rdx	#, D.14649
	cmpq	%rdx, %rax	# D.14649, D.14649
	je	.L81	#,
	.loc 1 1247 0
	cmpq	$0, -232(%rbp)	#, aligned
	je	.L80	#,
	.loc 1 1249 0
	movq	PL_origenviron(%rip), %rax	# PL_origenviron, PL_origenviron.220
	movq	(%rax), %rax	# *PL_origenviron.220_69, D.14649
	.loc 1 1248 0
	cmpq	-248(%rbp), %rax	# s, D.14649
	jbe	.L80	#,
	.loc 1 1250 0
	movq	PL_origenviron(%rip), %rax	# PL_origenviron, PL_origenviron.221
	movq	(%rax), %rdx	# *PL_origenviron.221_71, D.14649
	.loc 1 1251 0
	movq	-248(%rbp), %rax	# s, tmp205
	addq	$8, %rax	#, D.14649
	andq	-240(%rbp), %rax	# mask, D.14650
	.loc 1 1249 0
	cmpq	%rax, %rdx	# D.14649, D.14649
	ja	.L80	#,
.L81:
	.loc 1 1255 0
	movq	PL_origenviron(%rip), %rax	# PL_origenviron, PL_origenviron.222
	movq	(%rax), %rax	# *PL_origenviron.222_77, tmp206
	movq	%rax, -248(%rbp)	# tmp206, s
	.loc 1 1256 0
	jmp	.L82	#
.L83:
	.loc 1 1256 0 is_stmt 0 discriminator 2
	addq	$1, -248(%rbp)	#, s
.L82:
	.loc 1 1256 0 discriminator 1
	movq	-248(%rbp), %rax	# s, tmp207
	movzbl	(%rax), %eax	# *s_6, D.14651
	testb	%al, %al	# D.14651
	jne	.L83	#,
	.loc 1 1258 0 is_stmt 1
	movl	$0, %esi	#,
	movl	$.LC9, %edi	#,
	call	Perl_my_setenv	#
	.loc 1 1260 0
	movl	$1, -256(%rbp)	#, i
	jmp	.L84	#
.L88:
	.loc 1 1261 0
	movq	PL_origenviron(%rip), %rax	# PL_origenviron, PL_origenviron.223
	movl	-256(%rbp), %edx	# i, tmp208
	movslq	%edx, %rdx	# tmp208, D.14650
	salq	$3, %rdx	#, D.14650
	addq	%rdx, %rax	# D.14650, D.14652
	movq	(%rax), %rax	# *_90, D.14649
	movq	-248(%rbp), %rdx	# s, tmp209
	addq	$1, %rdx	#, D.14649
	cmpq	%rdx, %rax	# D.14649, D.14649
	je	.L85	#,
	.loc 1 1262 0
	cmpq	$0, -232(%rbp)	#, aligned
	je	.L80	#,
	.loc 1 1264 0
	movq	PL_origenviron(%rip), %rax	# PL_origenviron, PL_origenviron.224
	movl	-256(%rbp), %edx	# i, tmp210
	movslq	%edx, %rdx	# tmp210, D.14650
	salq	$3, %rdx	#, D.14650
	addq	%rdx, %rax	# D.14650, D.14652
	movq	(%rax), %rax	# *_96, D.14649
	.loc 1 1263 0
	cmpq	-248(%rbp), %rax	# s, D.14649
	jbe	.L80	#,
	.loc 1 1265 0
	movq	PL_origenviron(%rip), %rax	# PL_origenviron, PL_origenviron.225
	movl	-256(%rbp), %edx	# i, tmp211
	movslq	%edx, %rdx	# tmp211, D.14650
	salq	$3, %rdx	#, D.14650
	addq	%rdx, %rax	# D.14650, D.14652
	movq	(%rax), %rdx	# *_101, D.14649
	.loc 1 1266 0
	movq	-248(%rbp), %rax	# s, tmp212
	addq	$8, %rax	#, D.14649
	andq	-240(%rbp), %rax	# mask, D.14650
	.loc 1 1264 0
	cmpq	%rax, %rdx	# D.14649, D.14649
	ja	.L80	#,
.L85:
	.loc 1 1269 0
	movq	PL_origenviron(%rip), %rax	# PL_origenviron, PL_origenviron.226
	movl	-256(%rbp), %edx	# i, tmp213
	movslq	%edx, %rdx	# tmp213, D.14650
	salq	$3, %rdx	#, D.14650
	addq	%rdx, %rax	# D.14650, D.14652
	movq	(%rax), %rax	# *_110, tmp214
	movq	%rax, -248(%rbp)	# tmp214, s
	.loc 1 1270 0
	jmp	.L86	#
.L87:
	.loc 1 1270 0 is_stmt 0 discriminator 2
	addq	$1, -248(%rbp)	#, s
.L86:
	.loc 1 1270 0 discriminator 1
	movq	-248(%rbp), %rax	# s, tmp215
	movzbl	(%rax), %eax	# *s_7, D.14651
	testb	%al, %al	# D.14651
	jne	.L87	#,
	.loc 1 1260 0 is_stmt 1
	addl	$1, -256(%rbp)	#, i
.L84:
	.loc 1 1260 0 is_stmt 0 discriminator 1
	movq	PL_origenviron(%rip), %rax	# PL_origenviron, PL_origenviron.227
	movl	-256(%rbp), %edx	# i, tmp216
	movslq	%edx, %rdx	# tmp216, D.14650
	salq	$3, %rdx	#, D.14650
	addq	%rdx, %rax	# D.14650, D.14652
	movq	(%rax), %rax	# *_85, D.14649
	testq	%rax, %rax	# D.14649
	jne	.L88	#,
.L80:
	.loc 1 1277 0 is_stmt 1
	movq	-248(%rbp), %rdx	# s, s.228
	movq	PL_origargv(%rip), %rax	# PL_origargv, PL_origargv.229
	movq	(%rax), %rax	# *PL_origargv.229_116, D.14649
	subq	%rax, %rdx	# D.14653, D.14653
	movq	%rdx, %rax	# D.14653, D.14653
	movl	%eax, PL_origalen(%rip)	# PL_origalen.230, PL_origalen
.LBE13:
	.loc 1 1280 0
	movzbl	PL_do_undump(%rip), %eax	# PL_do_undump, PL_do_undump.231
	testb	%al, %al	# PL_do_undump.231
	je	.L89	#,
	.loc 1 1284 0
	movq	-296(%rbp), %rax	# argv, tmp217
	movq	(%rax), %rax	# *argv_18(D), D.14649
	movq	%rax, %rdi	# D.14649,
	call	Perl_savepv	#
	movq	%rax, PL_origfilename(%rip)	# PL_origfilename.232, PL_origfilename
	.loc 1 1285 0
	movb	$0, PL_do_undump(%rip)	#, PL_do_undump
	.loc 1 1286 0
	movq	PL_curstackinfo(%rip), %rax	# PL_curstackinfo, PL_curstackinfo.233
	movl	$-1, 16(%rax)	#, PL_curstackinfo.233_124->si_cxix
	.loc 1 1287 0
	call	S_init_ids	#
	.loc 1 1288 0
	movq	-304(%rbp), %rdx	# env, tmp218
	movq	-296(%rbp), %rcx	# argv, tmp219
	movl	-284(%rbp), %eax	# argc, tmp220
	movq	%rcx, %rsi	# tmp219,
	movl	%eax, %edi	# tmp220,
	call	S_init_postdump_symbols	#
	.loc 1 1289 0
	movl	$0, %eax	#, D.14648
	jmp	.L105	#
.L89:
	.loc 1 1292 0
	movq	PL_main_root(%rip), %rax	# PL_main_root, PL_main_root.234
	testq	%rax, %rax	# PL_main_root.234
	je	.L91	#,
	.loc 1 1293 0
	movq	PL_main_root(%rip), %rax	# PL_main_root, PL_main_root.235
	movq	%rax, %rdi	# PL_main_root.235,
	call	Perl_op_free	#
	.loc 1 1294 0
	movq	$0, PL_main_root(%rip)	#, PL_main_root
.L91:
	.loc 1 1296 0
	movq	$0, PL_main_start(%rip)	#, PL_main_start
	.loc 1 1297 0
	movq	PL_main_cv(%rip), %rax	# PL_main_cv, PL_main_cv.236
	movq	%rax, %rdi	# PL_main_cv.236,
	call	Perl_sv_free	#
	.loc 1 1298 0
	movq	$0, PL_main_cv(%rip)	#, PL_main_cv
	.loc 1 1300 0
	movl	$PL_basetime, %edi	#,
	call	time	#
	.loc 1 1301 0
	movl	PL_scopestack_ix(%rip), %eax	# PL_scopestack_ix, tmp221
	movl	%eax, -252(%rbp)	# tmp221, oldscope
	.loc 1 1302 0
	movb	$0, PL_dowarn(%rip)	#, PL_dowarn
.LBB14:
	.loc 1 1307 0
	movq	PL_top_env(%rip), %rax	# PL_top_env, PL_top_env.237
	movq	%rax, -24(%rbp)	# PL_top_env.237, cur_env.je_prev
	leaq	-224(%rbp), %rax	#, tmp222
	movl	$0, %esi	#,
	movq	%rax, %rdi	# tmp222,
	call	__sigsetjmp	#
	movl	%eax, -16(%rbp)	# D.14648, cur_env.je_ret
	leaq	-224(%rbp), %rax	#, tmp223
	movq	%rax, PL_top_env(%rip)	# tmp223, PL_top_env
	movb	$0, -12(%rbp)	#, cur_env.je_mustcatch
	movl	-16(%rbp), %eax	# cur_env.je_ret, tmp224
	movl	%eax, -260(%rbp)	# tmp224, ret
.LBE14:
	.loc 1 1309 0
	movl	-260(%rbp), %eax	# ret, ret
	cmpl	$1, %eax	#, ret
	je	.L93	#,
	cmpl	$1, %eax	#, ret
	jg	.L94	#,
	testl	%eax, %eax	# ret
	je	.L95	#,
	jmp	.L92	#
.L94:
	cmpl	$2, %eax	#, ret
	je	.L106	#,
	cmpl	$3, %eax	#, ret
	je	.L97	#,
	jmp	.L92	#
.L95:
	.loc 1 1312 0
	movq	-280(%rbp), %rdx	# xsinit, tmp226
	movq	-304(%rbp), %rax	# env, tmp227
	movq	%rdx, %rsi	# tmp226,
	movq	%rax, %rdi	# tmp227,
	call	S_parse_body	#
	.loc 1 1314 0
	movq	PL_checkav(%rip), %rax	# PL_checkav, PL_checkav.238
	testq	%rax, %rax	# PL_checkav.238
	je	.L98	#,
	.loc 1 1315 0
	movq	PL_checkav(%rip), %rdx	# PL_checkav, PL_checkav.239
	movl	-252(%rbp), %eax	# oldscope, tmp228
	movq	%rdx, %rsi	# PL_checkav.239,
	movl	%eax, %edi	# tmp228,
	call	Perl_call_list	#
.L98:
	.loc 1 1316 0
	movl	$0, -260(%rbp)	#, ret
	.loc 1 1317 0
	jmp	.L92	#
.L93:
	.loc 1 1319 0
	movl	$1, PL_statusvalue(%rip)	#, PL_statusvalue
	.loc 1 1323 0
	jmp	.L106	#
.L100:
	.loc 1 1324 0
	call	Perl_pop_scope	#
	jmp	.L99	#
.L106:
	.loc 1 1323 0
	nop
.L99:
	.loc 1 1323 0 is_stmt 0 discriminator 1
	movl	PL_scopestack_ix(%rip), %eax	# PL_scopestack_ix, PL_scopestack_ix.240
	cmpl	-252(%rbp), %eax	# oldscope, PL_scopestack_ix.240
	jg	.L100	#,
	.loc 1 1325 0 is_stmt 1
	movl	PL_tmps_ix(%rip), %edx	# PL_tmps_ix, PL_tmps_ix.241
	movl	PL_tmps_floor(%rip), %eax	# PL_tmps_floor, PL_tmps_floor.242
	cmpl	%eax, %edx	# PL_tmps_floor.242, PL_tmps_ix.241
	jle	.L101	#,
	.loc 1 1325 0 is_stmt 0 discriminator 1
	call	Perl_free_tmps	#
.L101:
	.loc 1 1326 0 is_stmt 1
	movq	PL_defstash(%rip), %rax	# PL_defstash, PL_defstash.243
	movq	%rax, PL_curstash(%rip)	# PL_defstash.243, PL_curstash
	.loc 1 1327 0
	movq	PL_checkav(%rip), %rax	# PL_checkav, PL_checkav.244
	testq	%rax, %rax	# PL_checkav.244
	je	.L102	#,
	.loc 1 1328 0
	movq	PL_checkav(%rip), %rdx	# PL_checkav, PL_checkav.245
	movl	-252(%rbp), %eax	# oldscope, tmp229
	movq	%rdx, %rsi	# PL_checkav.245,
	movl	%eax, %edi	# tmp229,
	call	Perl_call_list	#
.L102:
	.loc 1 1329 0
	movl	PL_statusvalue(%rip), %eax	# PL_statusvalue, tmp230
	movl	%eax, -260(%rbp)	# tmp230, ret
	.loc 1 1330 0
	jmp	.L92	#
.L97:
	.loc 1 1332 0
	movq	PL_stderrgv(%rip), %rax	# PL_stderrgv, PL_stderrgv.247
	testq	%rax, %rax	# PL_stderrgv.247
	je	.L103	#,
	.loc 1 1332 0 is_stmt 0 discriminator 1
	movq	PL_stderrgv(%rip), %rax	# PL_stderrgv, PL_stderrgv.248
	movl	12(%rax), %eax	# PL_stderrgv.248_147->sv_flags, D.14654
	movzbl	%al, %eax	# D.14654, D.14654
	cmpl	$13, %eax	#, D.14654
	jne	.L103	#,
	movq	PL_stderrgv(%rip), %rax	# PL_stderrgv, PL_stderrgv.249
	movq	(%rax), %rax	# PL_stderrgv.249_150->sv_any, D.14655
	movq	56(%rax), %rax	# _151->xgv_gp, D.14656
	movq	16(%rax), %rax	# _152->gp_io, D.14657
	testq	%rax, %rax	# D.14657
	je	.L103	#,
	movq	PL_stderrgv(%rip), %rax	# PL_stderrgv, PL_stderrgv.250
	movq	(%rax), %rax	# PL_stderrgv.250_154->sv_any, D.14655
	movq	56(%rax), %rax	# _155->xgv_gp, D.14656
	movq	16(%rax), %rax	# _156->gp_io, D.14657
	movq	(%rax), %rax	# _157->sv_any, D.14658
	movq	64(%rax), %rax	# _158->xio_ofp, D.14659
	testq	%rax, %rax	# D.14659
	je	.L103	#,
	movq	PL_stderrgv(%rip), %rax	# PL_stderrgv, PL_stderrgv.251
	movq	(%rax), %rax	# PL_stderrgv.251_160->sv_any, D.14655
	movq	56(%rax), %rax	# _161->xgv_gp, D.14656
	movq	16(%rax), %rax	# _162->gp_io, D.14657
	movq	(%rax), %rax	# _163->sv_any, D.14658
	movq	64(%rax), %rax	# _164->xio_ofp, iftmp.246
	jmp	.L104	#
.L103:
	.loc 1 1332 0 discriminator 2
	call	Perl_PerlIO_stderr	#
.L104:
	.loc 1 1332 0 discriminator 3
	movl	$.LC10, %esi	#,
	movq	%rax, %rdi	# iftmp.246,
	movl	$0, %eax	#,
	call	PerlIO_printf	#
	.loc 1 1333 0 is_stmt 1 discriminator 3
	movl	$1, -260(%rbp)	#, ret
	.loc 1 1334 0 discriminator 3
	nop
.L92:
	.loc 1 1336 0
	movq	-24(%rbp), %rax	# cur_env.je_prev, PL_top_env.252
	movq	%rax, PL_top_env(%rip)	# PL_top_env.252, PL_top_env
	.loc 1 1337 0
	movl	-260(%rbp), %eax	# ret, D.14648
.L105:
	.loc 1 1338 0
	leave
	.cfi_def_cfa 7, 8
	ret
	.cfi_endproc
.LFE8:
	.size	perl_parse, .-perl_parse
	.section	.rodata
.LC11:
	.string	"-e"
.LC12:
	.string	"No code specified for -e"
.LC13:
	.string	"-I"
.LC14:
	.string	" "
.LC15:
	.string	"No directory specified for -I"
.LC16:
	.string	"-P"
.LC17:
	.string	"-S"
	.align 8
.LC18:
	.string	"use Config qw(myconfig config_vars)"
.LC19:
	.string	"print myconfig();"
	.align 8
.LC20:
	.string	"print \"\\nCharacteristics of this binary (from libperl): \\n\","
.LC21:
	.string	"\"  Compile-time options:"
.LC22:
	.string	"\\n                       "
.LC23:
	.string	"\\n\","
.LC24:
	.string	"SPEC CPU"
.LC25:
	.string	"\"  Built under %s\\n\""
.LC26:
	.string	"16:48:04"
.LC27:
	.string	"Apr  3 2014"
.LC28:
	.string	",\"  Compiled at %s %s\\n\""
	.align 8
.LC29:
	.string	"; $\"=\"\\n    \"; @env = map { \"$_=\\\"$ENV{$_}\\\"\" } sort grep {/^PERL/} keys %ENV; "
	.align 8
.LC30:
	.string	"print \"  \\%ENV:\\n    @env\\n\" if @env; print \"  \\@INC:\\n    @INC\\n\";"
.LC31:
	.string	"config_vars(qw("
.LC32:
	.string	"))"
.LC33:
	.string	"/dev/null"
.LC34:
	.string	"version"
.LC35:
	.string	"v"
.LC36:
	.string	"help"
.LC37:
	.string	"h"
	.align 8
.LC38:
	.string	"Unrecognized switch: -%s  (-h will show valid options)"
.LC39:
	.string	""
	.string	""
	.string	""
	.string	""
	.string	""
	.string	""
	.string	""
	.string	""
	.string	""
	.string	"@"
	.string	""
	.string	""
.LC40:
	.string	"-"
.LC41:
	.string	"Can't chdir to %s"
.LC42:
	.string	":utf8"
.LC43:
	.string	"\017PEN"
.LC44:
	.string	":utf8"
	.string	":utf8"
.LC45:
	.string	":utf8"
	.string	""
.LC46:
	.string	""
	.string	":utf8"
.LC47:
	.string	"%s had compilation errors.\n"
	.align 8
.LC48:
	.string	"Execution of %s aborted due to compilation errors.\n"
	.text
	.type	S_parse_body, @function
S_parse_body:
.LFB9:
	.loc 1 1353 0
	.cfi_startproc
	pushq	%rbp	#
	.cfi_def_cfa_offset 16
	.cfi_offset 6, -16
	movq	%rsp, %rbp	#,
	.cfi_def_cfa_register 6
	pushq	%r12	#
	pushq	%rbx	#
	addq	$-128, %rsp	#,
	.cfi_offset 12, -24
	.cfi_offset 3, -32
	movq	%rdi, -136(%rbp)	# env, env
	movq	%rsi, -144(%rbp)	# xsinit, xsinit
	.loc 1 1354 0
	movl	PL_origargc(%rip), %eax	# PL_origargc, tmp248
	movl	%eax, -124(%rbp)	# tmp248, argc
	.loc 1 1355 0
	movq	PL_origargv(%rip), %rax	# PL_origargv, tmp249
	movq	%rax, -112(%rbp)	# tmp249, argv
	.loc 1 1356 0
	movq	$0, -104(%rbp)	#, scriptname
	.loc 1 1357 0
	movb	$0, -127(%rbp)	#, dosearch
	.loc 1 1358 0
	movq	$.LC2, -80(%rbp)	#, validarg
	.loc 1 1361 0
	movq	$0, -96(%rbp)	#, cddir
	.loc 1 1362 0
	movb	$0, -126(%rbp)	#, minus_f
	.loc 1 1366 0
	movw	$0, PL_op_seqmax(%rip)	#, PL_op_seqmax
	.loc 1 1368 0
	movl	$-1, PL_fdscript(%rip)	#, PL_fdscript
	.loc 1 1369 0
	movl	$-1, PL_suidscript(%rip)	#, PL_suidscript
	.loc 1 1370 0
	movq	PL_linestr(%rip), %rax	# PL_linestr, PL_linestr.253
	movl	$0, %edx	#,
	movl	$.LC2, %esi	#,
	movq	%rax, %rdi	# PL_linestr.253,
	call	Perl_sv_setpvn	#
	.loc 1 1371 0
	movl	$0, %esi	#,
	movl	$.LC2, %edi	#,
	call	Perl_newSVpvn	#
	movq	%rax, %r12	#, sv
	.loc 1 1372 0
	movq	%r12, %rdi	# sv,
	call	Perl_save_freesv	#
	.loc 1 1373 0
	call	S_init_main_stash	#
	.loc 1 1375 0
	subl	$1, -124(%rbp)	#, argc
	addq	$8, -112(%rbp)	#, argv
	jmp	.L108	#
.L149:
	.loc 1 1376 0
	movq	-112(%rbp), %rax	# argv, tmp250
	movq	(%rax), %rax	# *argv_10, D.14663
	movzbl	(%rax), %eax	# *_40, D.14664
	cmpb	$45, %al	#, D.14664
	jne	.L109	#,
	.loc 1 1376 0 is_stmt 0 discriminator 1
	movq	-112(%rbp), %rax	# argv, tmp251
	movq	(%rax), %rax	# *argv_10, D.14663
	addq	$1, %rax	#, D.14663
	movzbl	(%rax), %eax	# *_43, D.14664
	testb	%al, %al	# D.14664
	je	.L109	#,
	.loc 1 1390 0 is_stmt 1
	movq	-112(%rbp), %rax	# argv, tmp252
	movq	(%rax), %rax	# *argv_10, D.14663
	leaq	1(%rax), %rbx	#, s
.L110:
	.loc 1 1392 0
	movzbl	(%rbx), %eax	# *s_18, D.14664
	movsbl	%al, %eax	# D.14664, D.14665
	cmpl	$120, %eax	#, D.14665
	ja	.L111	#,
	movl	%eax, %eax	# D.14665, tmp253
	movq	.L113(,%rax,8), %rax	#, tmp254
	jmp	*%rax	# tmp254
	.section	.rodata
	.align 8
	.align 4
.L113:
	.quad	.L180
	.quad	.L111
	.quad	.L111
	.quad	.L111
	.quad	.L111
	.quad	.L111
	.quad	.L111
	.quad	.L111
	.quad	.L111
	.quad	.L111
	.quad	.L111
	.quad	.L111
	.quad	.L111
	.quad	.L114
	.quad	.L111
	.quad	.L111
	.quad	.L111
	.quad	.L111
	.quad	.L111
	.quad	.L111
	.quad	.L111
	.quad	.L111
	.quad	.L111
	.quad	.L111
	.quad	.L111
	.quad	.L111
	.quad	.L111
	.quad	.L111
	.quad	.L111
	.quad	.L111
	.quad	.L111
	.quad	.L111
	.quad	.L114
	.quad	.L111
	.quad	.L111
	.quad	.L111
	.quad	.L111
	.quad	.L111
	.quad	.L111
	.quad	.L111
	.quad	.L111
	.quad	.L111
	.quad	.L111
	.quad	.L111
	.quad	.L111
	.quad	.L115
	.quad	.L111
	.quad	.L111
	.quad	.L114
	.quad	.L111
	.quad	.L111
	.quad	.L111
	.quad	.L111
	.quad	.L111
	.quad	.L111
	.quad	.L111
	.quad	.L111
	.quad	.L111
	.quad	.L111
	.quad	.L111
	.quad	.L111
	.quad	.L111
	.quad	.L111
	.quad	.L111
	.quad	.L111
	.quad	.L111
	.quad	.L111
	.quad	.L114
	.quad	.L114
	.quad	.L111
	.quad	.L114
	.quad	.L111
	.quad	.L111
	.quad	.L116
	.quad	.L111
	.quad	.L111
	.quad	.L111
	.quad	.L114
	.quad	.L111
	.quad	.L111
	.quad	.L117
	.quad	.L111
	.quad	.L111
	.quad	.L118
	.quad	.L119
	.quad	.L114
	.quad	.L120
	.quad	.L114
	.quad	.L114
	.quad	.L111
	.quad	.L111
	.quad	.L111
	.quad	.L111
	.quad	.L111
	.quad	.L111
	.quad	.L111
	.quad	.L111
	.quad	.L114
	.quad	.L111
	.quad	.L114
	.quad	.L114
	.quad	.L121
	.quad	.L122
	.quad	.L111
	.quad	.L114
	.quad	.L114
	.quad	.L111
	.quad	.L111
	.quad	.L114
	.quad	.L114
	.quad	.L114
	.quad	.L111
	.quad	.L114
	.quad	.L111
	.quad	.L111
	.quad	.L114
	.quad	.L123
	.quad	.L114
	.quad	.L114
	.quad	.L114
	.quad	.L124
	.text
.L114:
	.loc 1 1418 0
	movq	%rbx, %rdi	# s,
	call	Perl_moreswitches	#
	movq	%rax, %rbx	#, s
	testq	%rbx, %rbx	# s
	je	.L125	#,
	.loc 1 1419 0
	jmp	.L110	#
.L125:
	.loc 1 1420 0
	jmp	.L126	#
.L123:
	.loc 1 1424 0
	movzbl	PL_tainting(%rip), %eax	# PL_tainting, PL_tainting.254
	testb	%al, %al	# PL_tainting.254
	jne	.L127	#,
	.loc 1 1425 0
	movb	$1, PL_taint_warn(%rip)	#, PL_taint_warn
	.loc 1 1426 0
	movb	$1, PL_tainting(%rip)	#, PL_tainting
.L127:
	.loc 1 1428 0
	addq	$1, %rbx	#, s
	.loc 1 1429 0
	jmp	.L110	#
.L119:
	.loc 1 1432 0
	movb	$1, PL_tainting(%rip)	#, PL_tainting
	.loc 1 1433 0
	movb	$0, PL_taint_warn(%rip)	#, PL_taint_warn
	.loc 1 1434 0
	addq	$1, %rbx	#, s
	.loc 1 1435 0
	jmp	.L110	#
.L121:
	.loc 1 1443 0
	movl	$.LC11, %edi	#,
	call	S_forbid_setid	#
	.loc 1 1444 0
	movq	PL_e_script(%rip), %rax	# PL_e_script, PL_e_script.255
	testq	%rax, %rax	# PL_e_script.255
	jne	.L128	#,
	.loc 1 1445 0
	movl	$0, %esi	#,
	movl	$.LC2, %edi	#,
	call	Perl_newSVpvn	#
	movq	%rax, PL_e_script(%rip)	# PL_e_script.256, PL_e_script
	.loc 1 1446 0
	movl	$0, %esi	#,
	movl	$read_e_script, %edi	#,
	call	Perl_filter_add	#
.L128:
	.loc 1 1448 0
	addq	$1, %rbx	#, s
	movzbl	(%rbx), %eax	# *s_55, D.14664
	testb	%al, %al	# D.14664
	je	.L129	#,
	.loc 1 1449 0
	movq	PL_e_script(%rip), %rax	# PL_e_script, PL_e_script.257
	movq	%rbx, %rsi	# s,
	movq	%rax, %rdi	# PL_e_script.257,
	call	Perl_sv_catpv	#
	jmp	.L130	#
.L129:
	.loc 1 1450 0
	movq	-112(%rbp), %rax	# argv, tmp255
	addq	$8, %rax	#, D.14666
	movq	(%rax), %rax	# *_58, D.14663
	testq	%rax, %rax	# D.14663
	je	.L131	#,
	.loc 1 1451 0
	movq	-112(%rbp), %rax	# argv, tmp256
	addq	$8, %rax	#, D.14666
	movq	(%rax), %rdx	# *_60, D.14663
	movq	PL_e_script(%rip), %rax	# PL_e_script, PL_e_script.258
	movq	%rdx, %rsi	# D.14663,
	movq	%rax, %rdi	# PL_e_script.258,
	call	Perl_sv_catpv	#
	.loc 1 1452 0
	subl	$1, -124(%rbp)	#, argc
	addq	$8, -112(%rbp)	#, argv
	jmp	.L130	#
.L131:
	.loc 1 1455 0
	movl	$.LC12, %edi	#,
	movl	$0, %eax	#,
	call	Perl_croak	#
.L130:
	.loc 1 1456 0
	movq	PL_e_script(%rip), %rax	# PL_e_script, PL_e_script.259
	movl	$.LC0, %esi	#,
	movq	%rax, %rdi	# PL_e_script.259,
	call	Perl_sv_catpv	#
	.loc 1 1457 0
	jmp	.L126	#
.L122:
	.loc 1 1460 0
	movb	$1, -126(%rbp)	#, minus_f
	.loc 1 1461 0
	addq	$1, %rbx	#, s
	.loc 1 1462 0
	jmp	.L110	#
.L116:
	.loc 1 1465 0
	movl	$.LC13, %edi	#,
	call	S_forbid_setid	#
	.loc 1 1466 0
	addq	$1, %rbx	#, s
	movzbl	(%rbx), %eax	# *s_68, D.14664
	testb	%al, %al	# D.14664
	jne	.L132	#,
	.loc 1 1466 0 is_stmt 0 discriminator 1
	movq	-112(%rbp), %rax	# argv, tmp257
	movq	8(%rax), %rbx	# MEM[(char * *)argv_10 + 8B], s
	testq	%rbx, %rbx	# s
	je	.L132	#,
	.loc 1 1467 0 is_stmt 1
	subl	$1, -124(%rbp)	#, argc
	addq	$8, -112(%rbp)	#, argv
.L132:
	.loc 1 1469 0
	testq	%rbx, %rbx	# s
	je	.L133	#,
	.loc 1 1469 0 is_stmt 0 discriminator 1
	movzbl	(%rbx), %eax	# *s_19, D.14664
	testb	%al, %al	# D.14664
	je	.L133	#,
.LBB15:
	.loc 1 1471 0 is_stmt 1 discriminator 1
	movq	%rbx, %rdi	# s,
	call	strlen	#
	movq	%rax, -72(%rbp)	# tmp258, len
	.loc 1 1472 0 discriminator 1
	movq	-72(%rbp), %rax	# len, tmp259
	movl	%eax, %esi	# D.14665,
	movq	%rbx, %rdi	# s,
	call	Perl_savepvn	#
	movq	%rax, -64(%rbp)	# tmp260, p
	.loc 1 1473 0 discriminator 1
	movq	-64(%rbp), %rax	# p, tmp261
	movl	$0, %ecx	#,
	movl	$1, %edx	#,
	movl	$1, %esi	#,
	movq	%rax, %rdi	# tmp261,
	call	S_incpush	#
	.loc 1 1474 0 discriminator 1
	movl	$2, %ecx	#,
	movl	$2, %edx	#,
	movl	$.LC13, %esi	#,
	movq	%r12, %rdi	# sv,
	call	Perl_sv_catpvn_flags	#
	.loc 1 1475 0 discriminator 1
	movq	-72(%rbp), %rdx	# len, tmp262
	movq	-64(%rbp), %rax	# p, tmp263
	movl	$2, %ecx	#,
	movq	%rax, %rsi	# tmp263,
	movq	%r12, %rdi	# sv,
	call	Perl_sv_catpvn_flags	#
	.loc 1 1476 0 discriminator 1
	movl	$2, %ecx	#,
	movl	$1, %edx	#,
	movl	$.LC14, %esi	#,
	movq	%r12, %rdi	# sv,
	call	Perl_sv_catpvn_flags	#
	.loc 1 1477 0 discriminator 1
	movq	-64(%rbp), %rax	# p, tmp264
	movq	%rax, %rdi	# tmp264,
	call	Perl_safesysfree	#
.LBE15:
	.loc 1 1469 0 discriminator 1
	nop
	.loc 1 1481 0 discriminator 1
	jmp	.L126	#
.L133:
	.loc 1 1480 0
	movl	$.LC15, %edi	#,
	movl	$0, %eax	#,
	call	Perl_croak	#
	.loc 1 1481 0
	jmp	.L126	#
.L117:
	.loc 1 1483 0
	movl	$.LC16, %edi	#,
	call	S_forbid_setid	#
	.loc 1 1484 0
	movb	$1, PL_preprocess(%rip)	#, PL_preprocess
	.loc 1 1485 0
	addq	$1, %rbx	#, s
	.loc 1 1486 0
	jmp	.L110	#
.L118:
	.loc 1 1488 0
	movl	$.LC17, %edi	#,
	call	S_forbid_setid	#
	.loc 1 1489 0
	movb	$1, -127(%rbp)	#, dosearch
	.loc 1 1490 0
	addq	$1, %rbx	#, s
	.loc 1 1491 0
	jmp	.L110	#
.L120:
	.loc 1 1493 0
	movq	PL_preambleav(%rip), %rax	# PL_preambleav, PL_preambleav.260
	testq	%rax, %rax	# PL_preambleav.260
	jne	.L135	#,
	.loc 1 1494 0
	call	Perl_newAV	#
	movq	%rax, PL_preambleav(%rip)	# PL_preambleav.261, PL_preambleav
.L135:
	.loc 1 1495 0
	movl	$0, %esi	#,
	movl	$.LC18, %edi	#,
	call	Perl_newSVpv	#
	movq	%rax, %rdx	#, D.14667
	movq	PL_preambleav(%rip), %rax	# PL_preambleav, PL_preambleav.262
	movq	%rdx, %rsi	# D.14667,
	movq	%rax, %rdi	# PL_preambleav.262,
	call	Perl_av_push	#
	.loc 1 1496 0
	addq	$1, %rbx	#, s
	movzbl	(%rbx), %eax	# *s_83, D.14664
	cmpb	$58, %al	#, D.14664
	je	.L136	#,
.LBB16:
	.loc 1 1499 0
	movl	$0, %esi	#,
	movl	$.LC19, %edi	#,
	call	Perl_newSVpv	#
	movq	%rax, PL_Sv(%rip)	# PL_Sv.263, PL_Sv
	.loc 1 1503 0
	movq	PL_Sv(%rip), %rax	# PL_Sv, PL_Sv.264
	movl	$.LC20, %esi	#,
	movq	%rax, %rdi	# PL_Sv.264,
	call	Perl_sv_catpv	#
	.loc 1 1505 0
	movq	PL_Sv(%rip), %rax	# PL_Sv, PL_Sv.265
	movq	(%rax), %rax	# PL_Sv.265_87->sv_any, D.14668
	movq	8(%rax), %rax	# MEM[(struct XPV *)_88].xpv_cur, tmp265
	movq	%rax, -88(%rbp)	# tmp265, opts
	.loc 1 1507 0
	movq	PL_Sv(%rip), %rax	# PL_Sv, PL_Sv.266
	movl	$.LC21, %esi	#,
	movq	%rax, %rdi	# PL_Sv.266,
	call	Perl_sv_catpv	#
	.loc 1 1545 0
	jmp	.L137	#
.L142:
.LBB17:
	.loc 1 1548 0
	movq	PL_Sv(%rip), %rax	# PL_Sv, PL_Sv.268
	movl	12(%rax), %eax	# PL_Sv.268_95->sv_flags, D.14670
	andl	$262144, %eax	#, D.14670
	testl	%eax, %eax	# D.14670
	je	.L138	#,
	.loc 1 1548 0 is_stmt 0 discriminator 1
	movq	PL_Sv(%rip), %rax	# PL_Sv, PL_Sv.269
	movq	(%rax), %rax	# PL_Sv.269_98->sv_any, D.14668
	movq	(%rax), %rax	# MEM[(struct XPV *)_99].xpv_pv, iftmp.267
	jmp	.L139	#
.L138:
	.loc 1 1548 0 discriminator 2
	movq	PL_Sv(%rip), %rax	# PL_Sv, PL_Sv.270
	movq	%rax, %rdi	# PL_Sv.270,
	call	Perl_sv_2pv_nolen	#
.L139:
	.loc 1 1548 0 discriminator 3
	movq	%rax, -56(%rbp)	# iftmp.267, pv
	.loc 1 1549 0 is_stmt 1 discriminator 3
	movq	-88(%rbp), %rax	# opts, tmp266
	leaq	76(%rax), %rdx	#, D.14671
	movq	-56(%rbp), %rax	# pv, tmp267
	addq	%rdx, %rax	# D.14671, D.14663
	movzbl	(%rax), %eax	# *_105, tmp268
	movb	%al, -125(%rbp)	# tmp268, c
	.loc 1 1550 0 discriminator 3
	movq	-88(%rbp), %rax	# opts, tmp269
	leaq	76(%rax), %rdx	#, D.14671
	movq	-56(%rbp), %rax	# pv, tmp270
	addq	%rdx, %rax	# D.14671, D.14663
	movb	$0, (%rax)	#, *_108
	.loc 1 1551 0 discriminator 3
	movq	-88(%rbp), %rax	# opts, tmp271
	leaq	26(%rax), %rdx	#, D.14671
	movq	-56(%rbp), %rax	# pv, tmp272
	addq	%rdx, %rax	# D.14671, D.14663
	movl	$32, %esi	#,
	movq	%rax, %rdi	# D.14663,
	call	strrchr	#
	movq	%rax, -48(%rbp)	# tmp273, space
	.loc 1 1552 0 discriminator 3
	movq	-88(%rbp), %rax	# opts, tmp274
	leaq	76(%rax), %rdx	#, D.14671
	movq	-56(%rbp), %rax	# pv, tmp275
	addq	%rax, %rdx	# tmp275, D.14663
	movzbl	-125(%rbp), %eax	# c, tmp276
	movb	%al, (%rdx)	# tmp276, *_113
	.loc 1 1553 0 discriminator 3
	cmpq	$0, -48(%rbp)	#, space
	jne	.L140	#,
	.loc 1 1553 0 is_stmt 0 discriminator 1
	jmp	.L141	#
.L140:
	.loc 1 1557 0 is_stmt 1
	movq	-48(%rbp), %rdx	# space, space.271
	movq	-56(%rbp), %rax	# pv, pv.272
	subq	%rax, %rdx	# pv.272, D.14672
	movq	%rdx, %rax	# D.14672, D.14672
	movq	%rax, -88(%rbp)	# D.14672, opts
	.loc 1 1558 0
	movq	PL_Sv(%rip), %rax	# PL_Sv, PL_Sv.273
	movq	-88(%rbp), %rsi	# opts, tmp277
	movl	$25, %r8d	#,
	movl	$.LC22, %ecx	#,
	movl	$0, %edx	#,
	movq	%rax, %rdi	# PL_Sv.273,
	call	Perl_sv_insert	#
.L137:
.LBE17:
	.loc 1 1545 0 discriminator 1
	movq	PL_Sv(%rip), %rax	# PL_Sv, PL_Sv.274
	movq	(%rax), %rax	# PL_Sv.274_91->sv_any, D.14668
	movq	8(%rax), %rax	# MEM[(struct XPV *)_92].xpv_cur, D.14669
	movq	-88(%rbp), %rdx	# opts, tmp278
	addq	$76, %rdx	#, D.14669
	cmpq	%rdx, %rax	# D.14669, D.14669
	ja	.L142	#,
.L141:
	.loc 1 1562 0
	movq	PL_Sv(%rip), %rax	# PL_Sv, PL_Sv.275
	movl	$.LC23, %esi	#,
	movq	%rax, %rdi	# PL_Sv.275,
	call	Perl_sv_catpv	#
	.loc 1 1575 0
	movq	PL_Sv(%rip), %rax	# PL_Sv, PL_Sv.280
	movl	$.LC24, %edx	#,
	movl	$.LC25, %esi	#,
	movq	%rax, %rdi	# PL_Sv.280,
	movl	$0, %eax	#,
	call	Perl_sv_catpvf	#
	.loc 1 1578 0
	movq	PL_Sv(%rip), %rax	# PL_Sv, PL_Sv.281
	movl	$.LC26, %ecx	#,
	movl	$.LC27, %edx	#,
	movl	$.LC28, %esi	#,
	movq	%rax, %rdi	# PL_Sv.281,
	movl	$0, %eax	#,
	call	Perl_sv_catpvf	#
	.loc 1 1583 0
	movq	PL_Sv(%rip), %rax	# PL_Sv, PL_Sv.282
	movl	$.LC29, %esi	#,
	movq	%rax, %rdi	# PL_Sv.282,
	call	Perl_sv_catpv	#
	.loc 1 1590 0
	movq	PL_Sv(%rip), %rax	# PL_Sv, PL_Sv.283
	movl	$.LC30, %esi	#,
	movq	%rax, %rdi	# PL_Sv.283,
	call	Perl_sv_catpv	#
.LBE16:
	jmp	.L143	#
.L136:
	.loc 1 1595 0
	movl	$0, %esi	#,
	movl	$.LC31, %edi	#,
	call	Perl_newSVpv	#
	movq	%rax, PL_Sv(%rip)	# PL_Sv.284, PL_Sv
	.loc 1 1596 0
	addq	$1, %rbx	#, s
	movq	PL_Sv(%rip), %rax	# PL_Sv, PL_Sv.285
	movq	%rbx, %rsi	# s,
	movq	%rax, %rdi	# PL_Sv.285,
	call	Perl_sv_catpv	#
	.loc 1 1597 0
	movq	PL_Sv(%rip), %rax	# PL_Sv, PL_Sv.286
	movl	$.LC32, %esi	#,
	movq	%rax, %rdi	# PL_Sv.286,
	call	Perl_sv_catpv	#
	.loc 1 1598 0
	movq	%rbx, %rdi	# s,
	call	strlen	#
	addq	%rax, %rbx	# D.14669, s
.L143:
	.loc 1 1600 0
	movq	PL_Sv(%rip), %rdx	# PL_Sv, PL_Sv.287
	movq	PL_preambleav(%rip), %rax	# PL_preambleav, PL_preambleav.288
	movq	%rdx, %rsi	# PL_Sv.287,
	movq	%rax, %rdi	# PL_preambleav.288,
	call	Perl_av_push	#
	.loc 1 1601 0
	movq	$.LC33, -104(%rbp)	#, scriptname
	.loc 1 1602 0
	jmp	.L110	#
.L124:
	.loc 1 1604 0
	movb	$1, PL_doextract(%rip)	#, PL_doextract
	.loc 1 1605 0
	addq	$1, %rbx	#, s
	.loc 1 1606 0
	movzbl	(%rbx), %eax	# *s_133, D.14664
	testb	%al, %al	# D.14664
	je	.L144	#,
	.loc 1 1607 0
	movq	%rbx, -96(%rbp)	# s, cddir
	.loc 1 1608 0
	jmp	.L126	#
.L144:
	jmp	.L126	#
.L115:
	.loc 1 1612 0
	addq	$1, %rbx	#, s
	movzbl	(%rbx), %eax	# *s_136, D.14664
	testb	%al, %al	# D.14664
	je	.L145	#,
	.loc 1 1612 0 is_stmt 0 discriminator 1
	movzbl	(%rbx), %eax	# *s_136, D.14664
	cmpb	$32, %al	#, D.14664
	je	.L145	#,
	movzbl	(%rbx), %eax	# *s_136, D.14664
	cmpb	$9, %al	#, D.14664
	je	.L145	#,
	movzbl	(%rbx), %eax	# *s_136, D.14664
	cmpb	$10, %al	#, D.14664
	je	.L145	#,
	movzbl	(%rbx), %eax	# *s_136, D.14664
	cmpb	$13, %al	#, D.14664
	je	.L145	#,
	movzbl	(%rbx), %eax	# *s_136, D.14664
	cmpb	$12, %al	#, D.14664
	jne	.L146	#,
.L145:
	.loc 1 1613 0 is_stmt 1
	subl	$1, -124(%rbp)	#, argc
	addq	$8, -112(%rbp)	#, argv
	.loc 1 1614 0
	jmp	.L109	#
.L146:
	.loc 1 1617 0
	movl	$.LC34, %esi	#,
	movq	%rbx, %rdi	# s,
	call	strcmp	#
	testl	%eax, %eax	# D.14665
	jne	.L147	#,
	.loc 1 1618 0
	movl	$.LC35, %ebx	#, s
	.loc 1 1619 0
	jmp	.L110	#
.L147:
	.loc 1 1621 0
	movl	$.LC36, %esi	#,
	movq	%rbx, %rdi	# s,
	call	strcmp	#
	testl	%eax, %eax	# D.14665
	jne	.L148	#,
	.loc 1 1622 0
	movl	$.LC37, %ebx	#, s
	.loc 1 1623 0
	jmp	.L110	#
.L148:
	.loc 1 1625 0
	subq	$1, %rbx	#, s
.L111:
	.loc 1 1628 0
	movq	%rbx, %rsi	# s,
	movl	$.LC38, %edi	#,
	movl	$0, %eax	#,
	call	Perl_croak	#
	jmp	.L126	#
.L180:
	.loc 1 1610 0
	nop
.L126:
	.loc 1 1375 0
	subl	$1, -124(%rbp)	#, argc
	addq	$8, -112(%rbp)	#, argv
.L108:
	.loc 1 1375 0 is_stmt 0 discriminator 1
	cmpl	$0, -124(%rbp)	#, argc
	jg	.L149	#,
.L109:
	.loc 1 1698 0 is_stmt 1
	movzbl	PL_taint_warn(%rip), %eax	# PL_taint_warn, PL_taint_warn.289
	testb	%al, %al	# PL_taint_warn.289
	je	.L150	#,
	.loc 1 1698 0 is_stmt 0 discriminator 1
	movzbl	PL_dowarn(%rip), %eax	# PL_dowarn, PL_dowarn.290
	cmpb	$4, %al	#, PL_dowarn.290
	je	.L150	#,
	.loc 1 1699 0 is_stmt 1
	movl	$12, %esi	#,
	movl	$.LC39, %edi	#,
	call	Perl_newSVpvn	#
	movq	%rax, PL_compiling+80(%rip)	# D.14667, PL_compiling.cop_warnings
.L150:
	.loc 1 1702 0
	cmpq	$0, -104(%rbp)	#, scriptname
	jne	.L151	#,
	.loc 1 1703 0
	movq	-112(%rbp), %rax	# argv, tmp279
	movq	(%rax), %rax	# *argv_11, tmp280
	movq	%rax, -104(%rbp)	# tmp280, scriptname
.L151:
	.loc 1 1704 0
	movq	PL_e_script(%rip), %rax	# PL_e_script, PL_e_script.291
	testq	%rax, %rax	# PL_e_script.291
	je	.L152	#,
	.loc 1 1705 0
	addl	$1, -124(%rbp)	#, argc
	subq	$8, -112(%rbp)	#, argv
	.loc 1 1706 0
	movq	$.LC33, -104(%rbp)	#, scriptname
	jmp	.L153	#
.L152:
	.loc 1 1708 0
	cmpq	$0, -104(%rbp)	#, scriptname
	jne	.L153	#,
	.loc 1 1713 0
	movq	$.LC40, -104(%rbp)	#, scriptname
.L153:
	.loc 1 1716 0
	call	S_init_perllib	#
	.loc 1 1718 0
	movzbl	-127(%rbp), %eax	# dosearch, dosearch.292
	movsbl	%al, %ecx	# dosearch.292, D.14665
	movq	-104(%rbp), %rax	# scriptname, tmp281
	movq	%r12, %rdx	# sv,
	movl	%ecx, %esi	# D.14665,
	movq	%rax, %rdi	# tmp281,
	call	S_open_script	#
	.loc 1 1720 0
	movq	-104(%rbp), %rdx	# scriptname, tmp282
	movq	-80(%rbp), %rax	# validarg, tmp283
	movq	%rdx, %rsi	# tmp282,
	movq	%rax, %rdi	# tmp283,
	call	S_validate_suid	#
	.loc 1 1742 0
	movzbl	PL_doextract(%rip), %eax	# PL_doextract, PL_doextract.293
	testb	%al, %al	# PL_doextract.293
	je	.L154	#,
	.loc 1 1744 0
	call	S_find_beginning	#
	.loc 1 1745 0
	cmpq	$0, -96(%rbp)	#, cddir
	je	.L154	#,
	.loc 1 1745 0 is_stmt 0 discriminator 1
	movq	-96(%rbp), %rax	# cddir, tmp284
	movq	%rax, %rdi	# tmp284,
	call	chdir	#
	testl	%eax, %eax	# D.14665
	jns	.L154	#,
	.loc 1 1746 0 is_stmt 1
	movq	-96(%rbp), %rax	# cddir, tmp285
	movq	%rax, %rsi	# tmp285,
	movl	$.LC41, %edi	#,
	movl	$0, %eax	#,
	call	Perl_croak	#
.L154:
	.loc 1 1750 0
	movl	$0, %edi	#,
	call	Perl_newSV	#
	movq	%rax, PL_compcv(%rip)	# PL_compcv.294, PL_compcv
	movq	PL_compcv(%rip), %rax	# PL_compcv, PL_compcv.295
	movq	%rax, PL_main_cv(%rip)	# PL_compcv.295, PL_main_cv
	.loc 1 1751 0
	movq	PL_compcv(%rip), %rax	# PL_compcv, PL_compcv.296
	movl	$12, %esi	#,
	movq	%rax, %rdi	# PL_compcv.296,
	call	Perl_sv_upgrade	#
	.loc 1 1752 0
	movq	PL_compcv(%rip), %rax	# PL_compcv, PL_compcv.297
	movq	(%rax), %rax	# PL_compcv.297_168->sv_any, D.14673
	movq	PL_compcv(%rip), %rdx	# PL_compcv, PL_compcv.298
	movq	(%rdx), %rdx	# PL_compcv.298_170->sv_any, D.14673
	movzwl	136(%rdx), %edx	# _171->xcv_flags, D.14674
	orl	$16, %edx	#, D.14674
	movw	%dx, 136(%rax)	# D.14674, _169->xcv_flags
	.loc 1 1754 0
	movq	PL_compcv(%rip), %rax	# PL_compcv, PL_compcv.299
	movq	(%rax), %rbx	# PL_compcv.299_174->sv_any, D.14673
	movl	$0, %edi	#,
	call	Perl_pad_new	#
	movq	%rax, 120(%rbx)	# D.14675, _175->xcv_padlist
	.loc 1 1761 0
	call	Perl_boot_core_PerlIO	#
	.loc 1 1762 0
	call	Perl_boot_core_UNIVERSAL	#
	.loc 1 1763 0
	call	Perl_boot_core_xsutils	#
	.loc 1 1765 0
	cmpq	$0, -144(%rbp)	#, xsinit
	je	.L155	#,
	.loc 1 1766 0
	movq	-144(%rbp), %rax	# xsinit, tmp286
	call	*%rax	# tmp286
.L155:
	.loc 1 1781 0
	call	S_init_predump_symbols	#
	.loc 1 1785 0
	movzbl	PL_do_undump(%rip), %eax	# PL_do_undump, PL_do_undump.300
	testb	%al, %al	# PL_do_undump.300
	jne	.L156	#,
	.loc 1 1786 0
	movq	-136(%rbp), %rdx	# env, tmp287
	movq	-112(%rbp), %rcx	# argv, tmp288
	movl	-124(%rbp), %eax	# argc, tmp289
	movq	%rcx, %rsi	# tmp288,
	movl	%eax, %edi	# tmp289,
	call	S_init_postdump_symbols	#
.L156:
	.loc 1 1792 0
	movl	PL_unicode(%rip), %eax	# PL_unicode, PL_unicode.301
	testl	%eax, %eax	# PL_unicode.301
	je	.L157	#,
	.loc 1 1794 0
	movl	PL_unicode(%rip), %eax	# PL_unicode, PL_unicode.302
	andl	$64, %eax	#, D.14670
	testl	%eax, %eax	# D.14670
	je	.L158	#,
	.loc 1 1794 0 is_stmt 0 discriminator 1
	movzbl	PL_utf8locale(%rip), %eax	# PL_utf8locale, PL_utf8locale.303
	testb	%al, %al	# PL_utf8locale.303
	je	.L157	#,
.L158:
.LBB18:
	.loc 1 1801 0 is_stmt 1
	movl	PL_unicode(%rip), %eax	# PL_unicode, PL_unicode.304
	andl	$1, %eax	#, D.14670
	testl	%eax, %eax	# D.14670
	je	.L159	#,
	.loc 1 1801 0 is_stmt 0 discriminator 1
	movq	PL_stdingv(%rip), %rax	# PL_stdingv, PL_stdingv.305
	testq	%rax, %rax	# PL_stdingv.305
	je	.L159	#,
	.loc 1 1802 0 is_stmt 1
	movq	PL_stdingv(%rip), %rax	# PL_stdingv, PL_stdingv.307
	testq	%rax, %rax	# PL_stdingv.307
	je	.L160	#,
	.loc 1 1802 0 is_stmt 0 discriminator 1
	movq	PL_stdingv(%rip), %rax	# PL_stdingv, PL_stdingv.308
	movl	12(%rax), %eax	# MEM[(struct SV *)PL_stdingv.308_188].sv_flags, D.14670
	movzbl	%al, %eax	# D.14670, D.14670
	cmpl	$13, %eax	#, D.14670
	jne	.L160	#,
	movq	PL_stdingv(%rip), %rax	# PL_stdingv, PL_stdingv.309
	movq	(%rax), %rax	# PL_stdingv.309_191->sv_any, D.14676
	movq	56(%rax), %rax	# _192->xgv_gp, D.14677
	testq	%rax, %rax	# D.14677
	je	.L160	#,
	movq	PL_stdingv(%rip), %rax	# PL_stdingv, PL_stdingv.310
	movq	(%rax), %rax	# PL_stdingv.310_194->sv_any, D.14676
	movq	56(%rax), %rax	# _195->xgv_gp, D.14677
	movq	16(%rax), %rax	# _196->gp_io, iftmp.306
	jmp	.L161	#
.L160:
	.loc 1 1802 0 discriminator 2
	movl	$0, %eax	#, iftmp.306
.L161:
	.loc 1 1802 0 discriminator 3
	movq	%rax, -40(%rbp)	# iftmp.306, io
	cmpq	$0, -40(%rbp)	#, io
	je	.L159	#,
	.loc 1 1803 0 is_stmt 1 discriminator 1
	movq	-40(%rbp), %rax	# io, tmp290
	movq	(%rax), %rax	# io_199->sv_any, D.14678
	movq	56(%rax), %rax	# _200->xio_ifp, tmp291
	movq	%rax, -32(%rbp)	# tmp291, fp
	.loc 1 1802 0 discriminator 1
	cmpq	$0, -32(%rbp)	#, fp
	je	.L159	#,
	.loc 1 1804 0
	movq	-40(%rbp), %rax	# io, tmp292
	movq	(%rax), %rax	# io_199->sv_any, D.14678
	movzbl	162(%rax), %eax	# _202->xio_type, D.14664
	movsbl	%al, %esi	# D.14664, D.14665
	movq	-32(%rbp), %rax	# fp, tmp293
	movl	$.LC42, %ecx	#,
	movl	$0, %edx	#,
	movq	%rax, %rdi	# tmp293,
	call	PerlIO_binmode	#
.L159:
	.loc 1 1805 0
	movl	PL_unicode(%rip), %eax	# PL_unicode, PL_unicode.311
	andl	$2, %eax	#, D.14670
	testl	%eax, %eax	# D.14670
	je	.L162	#,
	.loc 1 1805 0 is_stmt 0 discriminator 1
	movq	PL_defoutgv(%rip), %rax	# PL_defoutgv, PL_defoutgv.312
	testq	%rax, %rax	# PL_defoutgv.312
	je	.L162	#,
	.loc 1 1806 0 is_stmt 1
	movq	PL_defoutgv(%rip), %rax	# PL_defoutgv, PL_defoutgv.314
	testq	%rax, %rax	# PL_defoutgv.314
	je	.L163	#,
	.loc 1 1806 0 is_stmt 0 discriminator 1
	movq	PL_defoutgv(%rip), %rax	# PL_defoutgv, PL_defoutgv.315
	movl	12(%rax), %eax	# MEM[(struct SV *)PL_defoutgv.315_209].sv_flags, D.14670
	movzbl	%al, %eax	# D.14670, D.14670
	cmpl	$13, %eax	#, D.14670
	jne	.L163	#,
	movq	PL_defoutgv(%rip), %rax	# PL_defoutgv, PL_defoutgv.316
	movq	(%rax), %rax	# PL_defoutgv.316_212->sv_any, D.14676
	movq	56(%rax), %rax	# _213->xgv_gp, D.14677
	testq	%rax, %rax	# D.14677
	je	.L163	#,
	movq	PL_defoutgv(%rip), %rax	# PL_defoutgv, PL_defoutgv.317
	movq	(%rax), %rax	# PL_defoutgv.317_215->sv_any, D.14676
	movq	56(%rax), %rax	# _216->xgv_gp, D.14677
	movq	16(%rax), %rax	# _217->gp_io, iftmp.313
	jmp	.L164	#
.L163:
	.loc 1 1806 0 discriminator 2
	movl	$0, %eax	#, iftmp.313
.L164:
	.loc 1 1806 0 discriminator 3
	movq	%rax, -40(%rbp)	# iftmp.313, io
	cmpq	$0, -40(%rbp)	#, io
	je	.L162	#,
	.loc 1 1807 0 is_stmt 1 discriminator 1
	movq	-40(%rbp), %rax	# io, tmp294
	movq	(%rax), %rax	# io_220->sv_any, D.14678
	movq	64(%rax), %rax	# _221->xio_ofp, tmp295
	movq	%rax, -32(%rbp)	# tmp295, fp
	.loc 1 1806 0 discriminator 1
	cmpq	$0, -32(%rbp)	#, fp
	je	.L162	#,
	.loc 1 1808 0
	movq	-40(%rbp), %rax	# io, tmp296
	movq	(%rax), %rax	# io_220->sv_any, D.14678
	movzbl	162(%rax), %eax	# _223->xio_type, D.14664
	movsbl	%al, %esi	# D.14664, D.14665
	movq	-32(%rbp), %rax	# fp, tmp297
	movl	$.LC42, %ecx	#,
	movl	$0, %edx	#,
	movq	%rax, %rdi	# tmp297,
	call	PerlIO_binmode	#
.L162:
	.loc 1 1809 0
	movl	PL_unicode(%rip), %eax	# PL_unicode, PL_unicode.318
	andl	$4, %eax	#, D.14670
	testl	%eax, %eax	# D.14670
	je	.L165	#,
	.loc 1 1809 0 is_stmt 0 discriminator 1
	movq	PL_stderrgv(%rip), %rax	# PL_stderrgv, PL_stderrgv.319
	testq	%rax, %rax	# PL_stderrgv.319
	je	.L165	#,
	.loc 1 1810 0 is_stmt 1
	movq	PL_stderrgv(%rip), %rax	# PL_stderrgv, PL_stderrgv.321
	testq	%rax, %rax	# PL_stderrgv.321
	je	.L166	#,
	.loc 1 1810 0 is_stmt 0 discriminator 1
	movq	PL_stderrgv(%rip), %rax	# PL_stderrgv, PL_stderrgv.322
	movl	12(%rax), %eax	# MEM[(struct SV *)PL_stderrgv.322_230].sv_flags, D.14670
	movzbl	%al, %eax	# D.14670, D.14670
	cmpl	$13, %eax	#, D.14670
	jne	.L166	#,
	movq	PL_stderrgv(%rip), %rax	# PL_stderrgv, PL_stderrgv.323
	movq	(%rax), %rax	# PL_stderrgv.323_233->sv_any, D.14676
	movq	56(%rax), %rax	# _234->xgv_gp, D.14677
	testq	%rax, %rax	# D.14677
	je	.L166	#,
	movq	PL_stderrgv(%rip), %rax	# PL_stderrgv, PL_stderrgv.324
	movq	(%rax), %rax	# PL_stderrgv.324_236->sv_any, D.14676
	movq	56(%rax), %rax	# _237->xgv_gp, D.14677
	movq	16(%rax), %rax	# _238->gp_io, iftmp.320
	jmp	.L167	#
.L166:
	.loc 1 1810 0 discriminator 2
	movl	$0, %eax	#, iftmp.320
.L167:
	.loc 1 1810 0 discriminator 3
	movq	%rax, -40(%rbp)	# iftmp.320, io
	cmpq	$0, -40(%rbp)	#, io
	je	.L165	#,
	.loc 1 1811 0 is_stmt 1 discriminator 1
	movq	-40(%rbp), %rax	# io, tmp298
	movq	(%rax), %rax	# io_241->sv_any, D.14678
	movq	64(%rax), %rax	# _242->xio_ofp, tmp299
	movq	%rax, -32(%rbp)	# tmp299, fp
	.loc 1 1810 0 discriminator 1
	cmpq	$0, -32(%rbp)	#, fp
	je	.L165	#,
	.loc 1 1812 0
	movq	-40(%rbp), %rax	# io, tmp300
	movq	(%rax), %rax	# io_241->sv_any, D.14678
	movzbl	162(%rax), %eax	# _244->xio_type, D.14664
	movsbl	%al, %esi	# D.14664, D.14665
	movq	-32(%rbp), %rax	# fp, tmp301
	movl	$.LC42, %ecx	#,
	movl	$0, %edx	#,
	movq	%rax, %rdi	# tmp301,
	call	PerlIO_binmode	#
.L165:
	.loc 1 1813 0
	movl	PL_unicode(%rip), %eax	# PL_unicode, PL_unicode.325
	andl	$24, %eax	#, D.14670
	testl	%eax, %eax	# D.14670
	je	.L157	#,
	.loc 1 1814 0 discriminator 1
	movl	$4, %edx	#,
	movl	$1, %esi	#,
	movl	$.LC43, %edi	#,
	call	Perl_gv_fetchpv	#
	movq	(%rax), %rax	# _249->sv_any, D.14676
	movq	56(%rax), %rax	# _250->xgv_gp, D.14677
	movq	(%rax), %rax	# _251->gp_sv, tmp302
	movq	%rax, -24(%rbp)	# tmp302, sv
	.loc 1 1813 0 discriminator 1
	cmpq	$0, -24(%rbp)	#, sv
	je	.L157	#,
.LBB19:
	.loc 1 1815 0
	movl	PL_unicode(%rip), %eax	# PL_unicode, PL_unicode.326
	andl	$8, %eax	#, tmp303
	movl	%eax, -120(%rbp)	# tmp303, in
	.loc 1 1816 0
	movl	PL_unicode(%rip), %eax	# PL_unicode, PL_unicode.327
	andl	$16, %eax	#, tmp304
	movl	%eax, -116(%rbp)	# tmp304, out
	.loc 1 1817 0
	cmpl	$0, -120(%rbp)	#, in
	je	.L168	#,
	.loc 1 1818 0
	cmpl	$0, -116(%rbp)	#, out
	je	.L169	#,
	.loc 1 1819 0
	movq	-24(%rbp), %rax	# sv, tmp305
	movl	$11, %edx	#,
	movl	$.LC44, %esi	#,
	movq	%rax, %rdi	# tmp305,
	call	Perl_sv_setpvn	#
	jmp	.L171	#
.L169:
	.loc 1 1821 0
	movq	-24(%rbp), %rax	# sv, tmp306
	movl	$6, %edx	#,
	movl	$.LC45, %esi	#,
	movq	%rax, %rdi	# tmp306,
	call	Perl_sv_setpvn	#
	jmp	.L171	#
.L168:
	.loc 1 1823 0
	cmpl	$0, -116(%rbp)	#, out
	je	.L171	#,
	.loc 1 1824 0
	movq	-24(%rbp), %rax	# sv, tmp307
	movl	$6, %edx	#,
	movl	$.LC46, %esi	#,
	movq	%rax, %rdi	# tmp307,
	call	Perl_sv_setpvn	#
.L171:
	.loc 1 1825 0
	movq	-24(%rbp), %rax	# sv, tmp308
	movl	12(%rax), %eax	# sv_252->sv_flags, D.14670
	andl	$16384, %eax	#, D.14670
	testl	%eax, %eax	# D.14670
	je	.L157	#,
	.loc 1 1825 0 is_stmt 0 discriminator 1
	movq	-24(%rbp), %rax	# sv, tmp309
	movq	%rax, %rdi	# tmp309,
	call	Perl_mg_set	#
.L157:
.LBE19:
.LBE18:
	.loc 1 1841 0 is_stmt 1
	call	S_init_lexer	#
	.loc 1 1845 0
	call	__errno_location	#
	movl	$0, (%rax)	#, *_259
	.loc 1 1846 0
	movl	$0, PL_error_count(%rip)	#, PL_error_count
	.loc 1 1857 0
	call	Perl_yyparse	#
	testl	%eax, %eax	# D.14665
	jne	.L172	#,
	.loc 1 1857 0 is_stmt 0 discriminator 1
	movl	PL_error_count(%rip), %eax	# PL_error_count, PL_error_count.328
	testl	%eax, %eax	# PL_error_count.328
	je	.L173	#,
.L172:
	.loc 1 1858 0 is_stmt 1
	movzbl	PL_minus_c(%rip), %eax	# PL_minus_c, PL_minus_c.329
	testb	%al, %al	# PL_minus_c.329
	je	.L174	#,
	.loc 1 1859 0
	movq	PL_origfilename(%rip), %rax	# PL_origfilename, PL_origfilename.330
	movq	%rax, %rsi	# PL_origfilename.330,
	movl	$.LC47, %edi	#,
	movl	$0, %eax	#,
	call	Perl_croak	#
	jmp	.L173	#
.L174:
	.loc 1 1861 0
	movq	PL_origfilename(%rip), %rax	# PL_origfilename, PL_origfilename.331
	movq	%rax, %rsi	# PL_origfilename.331,
	movl	$.LC48, %edi	#,
	movl	$0, %eax	#,
	call	Perl_croak	#
.L173:
	.loc 1 1866 0
	movq	PL_curcop(%rip), %rax	# PL_curcop, PL_curcop.332
	movl	$0, 72(%rax)	#, PL_curcop.332_265->cop_line
	.loc 1 1867 0
	movq	PL_defstash(%rip), %rax	# PL_defstash, PL_defstash.333
	movq	%rax, PL_curstash(%rip)	# PL_defstash.333, PL_curstash
	.loc 1 1868 0
	movb	$0, PL_preprocess(%rip)	#, PL_preprocess
	.loc 1 1869 0
	movq	PL_e_script(%rip), %rax	# PL_e_script, PL_e_script.334
	testq	%rax, %rax	# PL_e_script.334
	je	.L175	#,
	.loc 1 1870 0
	movq	PL_e_script(%rip), %rax	# PL_e_script, PL_e_script.335
	movq	%rax, %rdi	# PL_e_script.335,
	call	Perl_sv_free	#
	.loc 1 1871 0
	movq	$0, PL_e_script(%rip)	#, PL_e_script
.L175:
	.loc 1 1874 0
	movzbl	PL_do_undump(%rip), %eax	# PL_do_undump, PL_do_undump.336
	testb	%al, %al	# PL_do_undump.336
	je	.L176	#,
	.loc 1 1875 0
	call	Perl_my_unexec	#
.L176:
	.loc 1 1877 0
	movzbl	PL_dowarn(%rip), %eax	# PL_dowarn, PL_dowarn.337
	movzbl	%al, %eax	# PL_dowarn.337, D.14665
	andl	$9, %eax	#, D.14665
	testl	%eax, %eax	# D.14665
	je	.L177	#,
	.loc 1 1878 0
	movq	PL_curcop(%rip), %rax	# PL_curcop, PL_curcop.338
	addq	$56, %rax	#, D.14681
	movq	%rax, %rdi	# D.14681,
	call	Perl_save_sptr	#
	.loc 1 1879 0
	movq	PL_curcop(%rip), %rax	# PL_curcop, PL_curcop.339
	addq	$72, %rax	#, D.14682
	movq	%rax, %rdi	# D.14682,
	call	Perl_save_I32	#
	.loc 1 1880 0
	movq	PL_defstash(%rip), %rax	# PL_defstash, PL_defstash.340
	movq	%rax, %rdi	# PL_defstash.340,
	call	Perl_gv_check	#
.L177:
	.loc 1 1883 0
	call	Perl_pop_scope	#
	.loc 1 1884 0
	movl	PL_tmps_ix(%rip), %edx	# PL_tmps_ix, PL_tmps_ix.341
	movl	PL_tmps_floor(%rip), %eax	# PL_tmps_floor, PL_tmps_floor.342
	cmpl	%eax, %edx	# PL_tmps_floor.342, PL_tmps_ix.341
	jle	.L178	#,
	.loc 1 1884 0 is_stmt 0 discriminator 1
	call	Perl_free_tmps	#
.L178:
	.loc 1 1893 0 is_stmt 1
	call	Perl_push_scope	#
	.loc 1 1894 0
	movq	$0, PL_restartop(%rip)	#, PL_restartop
	.loc 1 1895 0
	movl	$0, %eax	#, D.14668
	.loc 1 1896 0
	subq	$-128, %rsp	#,
	popq	%rbx	#
	popq	%r12	#
	popq	%rbp	#
	.cfi_def_cfa 7, 8
	ret
	.cfi_endproc
.LFE9:
	.size	S_parse_body, .-S_parse_body
	.section	.rodata
.LC49:
	.string	"panic: POPSTACK\n"
.LC50:
	.string	"panic: restartop\n"
	.text
	.globl	perl_run
	.type	perl_run, @function
perl_run:
.LFB10:
	.loc 1 1908 0
	.cfi_startproc
	pushq	%rbp	#
	.cfi_def_cfa_offset 16
	.cfi_offset 6, -16
	movq	%rsp, %rbp	#,
	.cfi_def_cfa_register 6
	pushq	%rbx	#
	subq	$248, %rsp	#,
	.cfi_offset 3, -24
	.loc 1 1910 0
	movl	$0, -256(%rbp)	#, ret
	.loc 1 1916 0
	movl	PL_scopestack_ix(%rip), %eax	# PL_scopestack_ix, tmp151
	movl	%eax, -252(%rbp)	# tmp151, oldscope
.LBB20:
	.loc 1 1925 0
	movq	PL_top_env(%rip), %rax	# PL_top_env, PL_top_env.343
	movq	%rax, -40(%rbp)	# PL_top_env.343, cur_env.je_prev
	leaq	-240(%rbp), %rax	#, tmp152
	movl	$0, %esi	#,
	movq	%rax, %rdi	# tmp152,
	call	__sigsetjmp	#
	movl	%eax, -32(%rbp)	# D.14721, cur_env.je_ret
	leaq	-240(%rbp), %rax	#, tmp153
	movq	%rax, PL_top_env(%rip)	# tmp153, PL_top_env
	movb	$0, -28(%rbp)	#, cur_env.je_mustcatch
	movl	-32(%rbp), %eax	# cur_env.je_ret, tmp154
	movl	%eax, -256(%rbp)	# tmp154, ret
.LBE20:
	.loc 1 1927 0
	movl	-256(%rbp), %eax	# ret, ret
	cmpl	$1, %eax	#, ret
	je	.L183	#,
	cmpl	$1, %eax	#, ret
	jg	.L184	#,
	testl	%eax, %eax	# ret
	je	.L185	#,
	jmp	.L182	#
.L184:
	cmpl	$2, %eax	#, ret
	je	.L202	#,
	cmpl	$3, %eax	#, ret
	je	.L187	#,
	jmp	.L182	#
.L183:
	.loc 1 1929 0
	movq	PL_curstackinfo(%rip), %rax	# PL_curstackinfo, PL_curstackinfo.344
	movl	$-1, 16(%rax)	#, PL_curstackinfo.344_10->si_cxix
	.loc 1 1930 0
	nop
.L185:
	.loc 1 1934 0
	movl	-252(%rbp), %eax	# oldscope, tmp156
	movl	%eax, %edi	# tmp156,
	call	S_run_body	#
	.loc 1 1938 0
	jmp	.L202	#
.L189:
	.loc 1 1939 0
	call	Perl_pop_scope	#
	jmp	.L188	#
.L202:
	.loc 1 1938 0
	nop
.L188:
	.loc 1 1938 0 is_stmt 0 discriminator 1
	movl	PL_scopestack_ix(%rip), %eax	# PL_scopestack_ix, PL_scopestack_ix.345
	cmpl	-252(%rbp), %eax	# oldscope, PL_scopestack_ix.345
	jg	.L189	#,
	.loc 1 1940 0 is_stmt 1
	movl	PL_tmps_ix(%rip), %edx	# PL_tmps_ix, PL_tmps_ix.346
	movl	PL_tmps_floor(%rip), %eax	# PL_tmps_floor, PL_tmps_floor.347
	cmpl	%eax, %edx	# PL_tmps_floor.347, PL_tmps_ix.346
	jle	.L190	#,
	.loc 1 1940 0 is_stmt 0 discriminator 1
	call	Perl_free_tmps	#
.L190:
	.loc 1 1941 0 is_stmt 1
	movq	PL_defstash(%rip), %rax	# PL_defstash, PL_defstash.348
	movq	%rax, PL_curstash(%rip)	# PL_defstash.348, PL_curstash
	.loc 1 1942 0
	movzbl	PL_exit_flags(%rip), %eax	# PL_exit_flags, PL_exit_flags.349
	movzbl	%al, %eax	# PL_exit_flags.349, D.14721
	andl	$2, %eax	#, D.14721
	testl	%eax, %eax	# D.14721
	jne	.L191	#,
	.loc 1 1942 0 is_stmt 0 discriminator 1
	movq	PL_endav(%rip), %rax	# PL_endav, PL_endav.350
	testq	%rax, %rax	# PL_endav.350
	je	.L191	#,
	.loc 1 1943 0 is_stmt 1
	movzbl	PL_minus_c(%rip), %eax	# PL_minus_c, PL_minus_c.351
	testb	%al, %al	# PL_minus_c.351
	jne	.L191	#,
	.loc 1 1944 0
	movq	PL_endav(%rip), %rdx	# PL_endav, PL_endav.352
	movl	-252(%rbp), %eax	# oldscope, tmp157
	movq	%rdx, %rsi	# PL_endav.352,
	movl	%eax, %edi	# tmp157,
	call	Perl_call_list	#
.L191:
	.loc 1 1951 0
	movl	PL_statusvalue(%rip), %eax	# PL_statusvalue, tmp158
	movl	%eax, -256(%rbp)	# tmp158, ret
	.loc 1 1952 0
	jmp	.L182	#
.L187:
	.loc 1 1954 0
	movq	PL_restartop(%rip), %rax	# PL_restartop, PL_restartop.353
	testq	%rax, %rax	# PL_restartop.353
	je	.L192	#,
	.loc 1 1955 0
	jmp	.L193	#
.L197:
	.loc 1 1955 0 is_stmt 0 discriminator 2
	movl	$-1, %edi	#,
	call	Perl_dounwind	#
.LBB21:
	movq	PL_stack_sp(%rip), %rbx	# PL_stack_sp, sp
	movq	PL_curstackinfo(%rip), %rax	# PL_curstackinfo, PL_curstackinfo.354
	movq	32(%rax), %rax	# PL_curstackinfo.354_15->si_prev, tmp159
	movq	%rax, -248(%rbp)	# tmp159, prev
	cmpq	$0, -248(%rbp)	#, prev
	jne	.L194	#,
	.loc 1 1955 0 discriminator 1
	movq	PL_stderrgv(%rip), %rax	# PL_stderrgv, PL_stderrgv.356
	testq	%rax, %rax	# PL_stderrgv.356
	je	.L195	#,
	movq	PL_stderrgv(%rip), %rax	# PL_stderrgv, PL_stderrgv.357
	movl	12(%rax), %eax	# PL_stderrgv.357_18->sv_flags, D.14722
	movzbl	%al, %eax	# D.14722, D.14722
	cmpl	$13, %eax	#, D.14722
	jne	.L195	#,
	movq	PL_stderrgv(%rip), %rax	# PL_stderrgv, PL_stderrgv.358
	movq	(%rax), %rax	# PL_stderrgv.358_21->sv_any, D.14723
	movq	56(%rax), %rax	# _22->xgv_gp, D.14724
	movq	16(%rax), %rax	# _23->gp_io, D.14725
	testq	%rax, %rax	# D.14725
	je	.L195	#,
	movq	PL_stderrgv(%rip), %rax	# PL_stderrgv, PL_stderrgv.359
	movq	(%rax), %rax	# PL_stderrgv.359_25->sv_any, D.14723
	movq	56(%rax), %rax	# _26->xgv_gp, D.14724
	movq	16(%rax), %rax	# _27->gp_io, D.14725
	movq	(%rax), %rax	# _28->sv_any, D.14726
	movq	64(%rax), %rax	# _29->xio_ofp, D.14727
	testq	%rax, %rax	# D.14727
	je	.L195	#,
	movq	PL_stderrgv(%rip), %rax	# PL_stderrgv, PL_stderrgv.360
	movq	(%rax), %rax	# PL_stderrgv.360_31->sv_any, D.14723
	movq	56(%rax), %rax	# _32->xgv_gp, D.14724
	movq	16(%rax), %rax	# _33->gp_io, D.14725
	movq	(%rax), %rax	# _34->sv_any, D.14726
	movq	64(%rax), %rax	# _35->xio_ofp, iftmp.355
	jmp	.L196	#
.L195:
	.loc 1 1955 0 discriminator 2
	call	Perl_PerlIO_stderr	#
.L196:
	.loc 1 1955 0 discriminator 3
	movl	$.LC49, %esi	#,
	movq	%rax, %rdi	# iftmp.355,
	movl	$0, %eax	#,
	call	PerlIO_printf	#
	movl	$1, %edi	#,
	call	Perl_my_exit	#
.L194:
.LBB22:
	.loc 1 1955 0 discriminator 2
	movq	PL_curstack(%rip), %rax	# PL_curstack, PL_curstack.361
	movq	(%rax), %rax	# PL_curstack.361_38->sv_any, D.14728
	movq	%rbx, %rcx	# sp, sp.362
	movq	PL_stack_base(%rip), %rdx	# PL_stack_base, PL_stack_base.363
	subq	%rdx, %rcx	# PL_stack_base.364, D.14729
	movq	%rcx, %rdx	# D.14729, D.14729
	sarq	$3, %rdx	#, tmp160
	movq	%rdx, 8(%rax)	# D.14729, _39->xav_fill
	movq	-248(%rbp), %rax	# prev, tmp161
	movq	(%rax), %rax	# prev_16->si_stack, D.14730
	movq	(%rax), %rax	# _45->sv_any, D.14728
	movq	(%rax), %rax	# _46->xav_array, PL_stack_base.365
	movq	%rax, PL_stack_base(%rip)	# PL_stack_base.365, PL_stack_base
	movq	PL_stack_base(%rip), %rdx	# PL_stack_base, PL_stack_base.366
	movq	-248(%rbp), %rax	# prev, tmp162
	movq	(%rax), %rax	# prev_16->si_stack, D.14730
	movq	(%rax), %rax	# _49->sv_any, D.14728
	movq	16(%rax), %rax	# _50->xav_max, D.14729
	salq	$3, %rax	#, D.14731
	addq	%rdx, %rax	# PL_stack_base.366, PL_stack_max.367
	movq	%rax, PL_stack_max(%rip)	# PL_stack_max.367, PL_stack_max
	movq	PL_stack_base(%rip), %rdx	# PL_stack_base, PL_stack_base.368
	movq	-248(%rbp), %rax	# prev, tmp163
	movq	(%rax), %rax	# prev_16->si_stack, D.14730
	movq	(%rax), %rax	# _56->sv_any, D.14728
	movq	8(%rax), %rax	# _57->xav_fill, D.14729
	salq	$3, %rax	#, D.14731
	addq	%rdx, %rax	# PL_stack_base.368, PL_stack_sp.369
	movq	%rax, PL_stack_sp(%rip)	# PL_stack_sp.369, PL_stack_sp
	movq	PL_stack_sp(%rip), %rbx	# PL_stack_sp, sp
	movq	-248(%rbp), %rax	# prev, tmp164
	movq	(%rax), %rax	# prev_16->si_stack, PL_curstack.370
	movq	%rax, PL_curstack(%rip)	# PL_curstack.370, PL_curstack
.LBE22:
	movq	-248(%rbp), %rax	# prev, tmp165
	movq	%rax, PL_curstackinfo(%rip)	# tmp165, PL_curstackinfo
.L193:
.LBE21:
	.loc 1 1955 0 discriminator 1
	movq	PL_curstack(%rip), %rdx	# PL_curstack, PL_curstack.371
	movq	PL_mainstack(%rip), %rax	# PL_mainstack, PL_mainstack.372
	cmpq	%rax, %rdx	# PL_mainstack.372, PL_curstack.371
	jne	.L197	#,
	.loc 1 1956 0 is_stmt 1
	jmp	.L185	#
.L192:
	.loc 1 1958 0
	movq	PL_stderrgv(%rip), %rax	# PL_stderrgv, PL_stderrgv.374
	testq	%rax, %rax	# PL_stderrgv.374
	je	.L198	#,
	.loc 1 1958 0 is_stmt 0 discriminator 1
	movq	PL_stderrgv(%rip), %rax	# PL_stderrgv, PL_stderrgv.375
	movl	12(%rax), %eax	# PL_stderrgv.375_67->sv_flags, D.14722
	movzbl	%al, %eax	# D.14722, D.14722
	cmpl	$13, %eax	#, D.14722
	jne	.L198	#,
	movq	PL_stderrgv(%rip), %rax	# PL_stderrgv, PL_stderrgv.376
	movq	(%rax), %rax	# PL_stderrgv.376_70->sv_any, D.14723
	movq	56(%rax), %rax	# _71->xgv_gp, D.14724
	movq	16(%rax), %rax	# _72->gp_io, D.14725
	testq	%rax, %rax	# D.14725
	je	.L198	#,
	movq	PL_stderrgv(%rip), %rax	# PL_stderrgv, PL_stderrgv.377
	movq	(%rax), %rax	# PL_stderrgv.377_74->sv_any, D.14723
	movq	56(%rax), %rax	# _75->xgv_gp, D.14724
	movq	16(%rax), %rax	# _76->gp_io, D.14725
	movq	(%rax), %rax	# _77->sv_any, D.14726
	movq	64(%rax), %rax	# _78->xio_ofp, D.14727
	testq	%rax, %rax	# D.14727
	je	.L198	#,
	movq	PL_stderrgv(%rip), %rax	# PL_stderrgv, PL_stderrgv.378
	movq	(%rax), %rax	# PL_stderrgv.378_80->sv_any, D.14723
	movq	56(%rax), %rax	# _81->xgv_gp, D.14724
	movq	16(%rax), %rax	# _82->gp_io, D.14725
	movq	(%rax), %rax	# _83->sv_any, D.14726
	movq	64(%rax), %rax	# _84->xio_ofp, iftmp.373
	jmp	.L199	#
.L198:
	.loc 1 1958 0 discriminator 2
	call	Perl_PerlIO_stderr	#
.L199:
	.loc 1 1958 0 discriminator 3
	movl	$.LC50, %esi	#,
	movq	%rax, %rdi	# iftmp.373,
	movl	$0, %eax	#,
	call	PerlIO_printf	#
	.loc 1 1959 0 is_stmt 1 discriminator 3
	movl	PL_tmps_ix(%rip), %edx	# PL_tmps_ix, PL_tmps_ix.379
	movl	PL_tmps_floor(%rip), %eax	# PL_tmps_floor, PL_tmps_floor.380
	cmpl	%eax, %edx	# PL_tmps_floor.380, PL_tmps_ix.379
	jle	.L200	#,
	.loc 1 1959 0 is_stmt 0 discriminator 1
	call	Perl_free_tmps	#
.L200:
	.loc 1 1960 0 is_stmt 1
	movl	$1, -256(%rbp)	#, ret
	.loc 1 1961 0
	nop
.L182:
	.loc 1 1964 0
	movq	-40(%rbp), %rax	# cur_env.je_prev, PL_top_env.381
	movq	%rax, PL_top_env(%rip)	# PL_top_env.381, PL_top_env
	.loc 1 1965 0
	movl	-256(%rbp), %eax	# ret, D.14721
	.loc 1 1966 0
	addq	$248, %rsp	#,
	popq	%rbx	#
	popq	%rbp	#
	.cfi_def_cfa 7, 8
	ret
	.cfi_endproc
.LFE10:
	.size	perl_run, .-perl_run
	.section	.rodata
.LC51:
	.string	"%s syntax OK\n"
	.text
	.type	S_run_body, @function
S_run_body:
.LFB11:
	.loc 1 1981 0
	.cfi_startproc
	pushq	%rbp	#
	.cfi_def_cfa_offset 16
	.cfi_offset 6, -16
	movq	%rsp, %rbp	#,
	.cfi_def_cfa_register 6
	pushq	%rbx	#
	subq	$24, %rsp	#,
	.cfi_offset 3, -24
	movl	%edi, -20(%rbp)	# oldscope, oldscope
	.loc 1 1985 0
	movq	PL_restartop(%rip), %rax	# PL_restartop, PL_restartop.382
	testq	%rax, %rax	# PL_restartop.382
	jne	.L204	#,
	.loc 1 1991 0
	movzbl	PL_minus_c(%rip), %eax	# PL_minus_c, PL_minus_c.383
	testb	%al, %al	# PL_minus_c.383
	je	.L205	#,
	.loc 1 1997 0
	movq	PL_origfilename(%rip), %rbx	# PL_origfilename, PL_origfilename.384
	movq	PL_stderrgv(%rip), %rax	# PL_stderrgv, PL_stderrgv.386
	testq	%rax, %rax	# PL_stderrgv.386
	je	.L206	#,
	.loc 1 1997 0 is_stmt 0 discriminator 1
	movq	PL_stderrgv(%rip), %rax	# PL_stderrgv, PL_stderrgv.387
	movl	12(%rax), %eax	# PL_stderrgv.387_6->sv_flags, D.14736
	movzbl	%al, %eax	# D.14736, D.14736
	cmpl	$13, %eax	#, D.14736
	jne	.L206	#,
	movq	PL_stderrgv(%rip), %rax	# PL_stderrgv, PL_stderrgv.388
	movq	(%rax), %rax	# PL_stderrgv.388_9->sv_any, D.14737
	movq	56(%rax), %rax	# _10->xgv_gp, D.14738
	movq	16(%rax), %rax	# _11->gp_io, D.14739
	testq	%rax, %rax	# D.14739
	je	.L206	#,
	movq	PL_stderrgv(%rip), %rax	# PL_stderrgv, PL_stderrgv.389
	movq	(%rax), %rax	# PL_stderrgv.389_13->sv_any, D.14737
	movq	56(%rax), %rax	# _14->xgv_gp, D.14738
	movq	16(%rax), %rax	# _15->gp_io, D.14739
	movq	(%rax), %rax	# _16->sv_any, D.14740
	movq	64(%rax), %rax	# _17->xio_ofp, D.14741
	testq	%rax, %rax	# D.14741
	je	.L206	#,
	movq	PL_stderrgv(%rip), %rax	# PL_stderrgv, PL_stderrgv.390
	movq	(%rax), %rax	# PL_stderrgv.390_19->sv_any, D.14737
	movq	56(%rax), %rax	# _20->xgv_gp, D.14738
	movq	16(%rax), %rax	# _21->gp_io, D.14739
	movq	(%rax), %rax	# _22->sv_any, D.14740
	movq	64(%rax), %rax	# _23->xio_ofp, iftmp.385
	jmp	.L207	#
.L206:
	.loc 1 1997 0 discriminator 2
	call	Perl_PerlIO_stderr	#
.L207:
	.loc 1 1997 0 discriminator 3
	movq	%rbx, %rdx	# PL_origfilename.384,
	movl	$.LC51, %esi	#,
	movq	%rax, %rdi	# iftmp.385,
	movl	$0, %eax	#,
	call	PerlIO_printf	#
	.loc 1 1999 0 is_stmt 1 discriminator 3
	movl	$0, %edi	#,
	call	Perl_my_exit	#
.L205:
	.loc 1 2001 0
	movl	PL_perldb(%rip), %eax	# PL_perldb, PL_perldb.391
	testl	%eax, %eax	# PL_perldb.391
	je	.L208	#,
	.loc 1 2001 0 is_stmt 0 discriminator 1
	movl	PL_perldb(%rip), %eax	# PL_perldb, PL_perldb.392
	andl	$32, %eax	#, D.14736
	testl	%eax, %eax	# D.14736
	je	.L208	#,
	movq	PL_DBsingle(%rip), %rax	# PL_DBsingle, PL_DBsingle.393
	testq	%rax, %rax	# PL_DBsingle.393
	je	.L208	#,
	.loc 1 2002 0 is_stmt 1
	movq	PL_DBsingle(%rip), %rax	# PL_DBsingle, PL_DBsingle.394
	movl	$1, %esi	#,
	movq	%rax, %rdi	# PL_DBsingle.394,
	call	Perl_sv_setiv	#
.L208:
	.loc 1 2003 0
	movq	PL_initav(%rip), %rax	# PL_initav, PL_initav.395
	testq	%rax, %rax	# PL_initav.395
	je	.L204	#,
	.loc 1 2004 0
	movq	PL_initav(%rip), %rdx	# PL_initav, PL_initav.396
	movl	-20(%rbp), %eax	# oldscope, tmp99
	movq	%rdx, %rsi	# PL_initav.396,
	movl	%eax, %edi	# tmp99,
	call	Perl_call_list	#
.L204:
	.loc 1 2009 0
	movq	PL_restartop(%rip), %rax	# PL_restartop, PL_restartop.397
	testq	%rax, %rax	# PL_restartop.397
	je	.L209	#,
	.loc 1 2010 0
	movq	PL_restartop(%rip), %rax	# PL_restartop, PL_restartop.398
	movq	%rax, PL_op(%rip)	# PL_restartop.398, PL_op
	.loc 1 2011 0
	movq	$0, PL_restartop(%rip)	#, PL_restartop
	.loc 1 2012 0
	movq	PL_runops(%rip), %rax	# PL_runops, PL_runops.399
	call	*%rax	# PL_runops.399
	jmp	.L210	#
.L209:
	.loc 1 2014 0
	movq	PL_main_start(%rip), %rax	# PL_main_start, PL_main_start.400
	testq	%rax, %rax	# PL_main_start.400
	je	.L210	#,
	.loc 1 2015 0
	movq	PL_main_cv(%rip), %rax	# PL_main_cv, PL_main_cv.401
	movq	(%rax), %rax	# PL_main_cv.401_38->sv_any, D.14742
	movq	$1, 112(%rax)	#, _39->xcv_depth
	.loc 1 2016 0
	movq	PL_main_start(%rip), %rax	# PL_main_start, PL_main_start.402
	movq	%rax, PL_op(%rip)	# PL_main_start.402, PL_op
	.loc 1 2017 0
	movq	PL_runops(%rip), %rax	# PL_runops, PL_runops.403
	call	*%rax	# PL_runops.403
.L210:
	.loc 1 2020 0
	movl	$0, %edi	#,
	call	Perl_my_exit	#
	.loc 1 2022 0
	movl	$0, %eax	#, D.14743
	.loc 1 2023 0
	addq	$24, %rsp	#,
	popq	%rbx	#
	popq	%rbp	#
	.cfi_def_cfa 7, 8
	ret
	.cfi_endproc
.LFE11:
	.size	S_run_body, .-S_run_body
	.globl	Perl_get_sv
	.type	Perl_get_sv, @function
Perl_get_sv:
.LFB12:
	.loc 1 2039 0
	.cfi_startproc
	pushq	%rbp	#
	.cfi_def_cfa_offset 16
	.cfi_offset 6, -16
	movq	%rsp, %rbp	#,
	.cfi_def_cfa_register 6
	subq	$32, %rsp	#,
	movq	%rdi, -24(%rbp)	# name, name
	movl	%esi, -28(%rbp)	# create, create
	.loc 1 2048 0
	movl	-28(%rbp), %ecx	# create, tmp63
	movq	-24(%rbp), %rax	# name, tmp64
	movl	$4, %edx	#,
	movl	%ecx, %esi	# tmp63,
	movq	%rax, %rdi	# tmp64,
	call	Perl_gv_fetchpv	#
	movq	%rax, -8(%rbp)	# tmp65, gv
	.loc 1 2049 0
	cmpq	$0, -8(%rbp)	#, gv
	je	.L213	#,
	.loc 1 2050 0
	movq	-8(%rbp), %rax	# gv, tmp66
	movq	(%rax), %rax	# gv_4->sv_any, D.14746
	movq	56(%rax), %rax	# _5->xgv_gp, D.14747
	movq	(%rax), %rax	# _6->gp_sv, D.14745
	jmp	.L214	#
.L213:
	.loc 1 2051 0
	movl	$0, %eax	#, D.14745
.L214:
	.loc 1 2052 0
	leave
	.cfi_def_cfa 7, 8
	ret
	.cfi_endproc
.LFE12:
	.size	Perl_get_sv, .-Perl_get_sv
	.globl	Perl_get_av
	.type	Perl_get_av, @function
Perl_get_av:
.LFB13:
	.loc 1 2068 0
	.cfi_startproc
	pushq	%rbp	#
	.cfi_def_cfa_offset 16
	.cfi_offset 6, -16
	movq	%rsp, %rbp	#,
	.cfi_def_cfa_register 6
	subq	$32, %rsp	#,
	movq	%rdi, -24(%rbp)	# name, name
	movl	%esi, -28(%rbp)	# create, create
	.loc 1 2069 0
	movl	-28(%rbp), %ecx	# create, tmp72
	movq	-24(%rbp), %rax	# name, tmp73
	movl	$10, %edx	#,
	movl	%ecx, %esi	# tmp72,
	movq	%rax, %rdi	# tmp73,
	call	Perl_gv_fetchpv	#
	movq	%rax, -8(%rbp)	# tmp74, gv
	.loc 1 2070 0
	cmpl	$0, -28(%rbp)	#, create
	je	.L216	#,
	.loc 1 2071 0
	movq	-8(%rbp), %rax	# gv, tmp75
	movq	(%rax), %rax	# gv_5->sv_any, D.14749
	movq	56(%rax), %rax	# _6->xgv_gp, D.14750
	movq	32(%rax), %rax	# _7->gp_av, D.14748
	testq	%rax, %rax	# D.14748
	je	.L217	#,
	.loc 1 2071 0 is_stmt 0 discriminator 1
	movq	-8(%rbp), %rax	# gv, tmp76
	movq	(%rax), %rax	# gv_5->sv_any, D.14749
	movq	56(%rax), %rax	# _9->xgv_gp, D.14750
	movq	32(%rax), %rax	# _10->gp_av, iftmp.404
	jmp	.L218	#
.L217:
	.loc 1 2071 0 discriminator 2
	movq	-8(%rbp), %rax	# gv, tmp77
	movq	%rax, %rdi	# tmp77,
	call	Perl_gv_AVadd	#
	movq	(%rax), %rax	# _12->sv_any, D.14749
	movq	56(%rax), %rax	# _13->xgv_gp, D.14750
	movq	32(%rax), %rax	# _14->gp_av, iftmp.404
.L218:
	.loc 1 2071 0 discriminator 3
	jmp	.L219	#
.L216:
	.loc 1 2072 0 is_stmt 1
	cmpq	$0, -8(%rbp)	#, gv
	je	.L220	#,
	.loc 1 2073 0
	movq	-8(%rbp), %rax	# gv, tmp78
	movq	(%rax), %rax	# gv_5->sv_any, D.14749
	movq	56(%rax), %rax	# _17->xgv_gp, D.14750
	movq	32(%rax), %rax	# _18->gp_av, D.14748
	jmp	.L219	#
.L220:
	.loc 1 2074 0
	movl	$0, %eax	#, D.14748
.L219:
	.loc 1 2075 0
	leave
	.cfi_def_cfa 7, 8
	ret
	.cfi_endproc
.LFE13:
	.size	Perl_get_av, .-Perl_get_av
	.globl	Perl_get_hv
	.type	Perl_get_hv, @function
Perl_get_hv:
.LFB14:
	.loc 1 2091 0
	.cfi_startproc
	pushq	%rbp	#
	.cfi_def_cfa_offset 16
	.cfi_offset 6, -16
	movq	%rsp, %rbp	#,
	.cfi_def_cfa_register 6
	subq	$32, %rsp	#,
	movq	%rdi, -24(%rbp)	# name, name
	movl	%esi, -28(%rbp)	# create, create
	.loc 1 2092 0
	movl	-28(%rbp), %ecx	# create, tmp72
	movq	-24(%rbp), %rax	# name, tmp73
	movl	$11, %edx	#,
	movl	%ecx, %esi	# tmp72,
	movq	%rax, %rdi	# tmp73,
	call	Perl_gv_fetchpv	#
	movq	%rax, -8(%rbp)	# tmp74, gv
	.loc 1 2093 0
	cmpl	$0, -28(%rbp)	#, create
	je	.L222	#,
	.loc 1 2094 0
	movq	-8(%rbp), %rax	# gv, tmp75
	movq	(%rax), %rax	# gv_5->sv_any, D.14753
	movq	56(%rax), %rax	# _6->xgv_gp, D.14754
	movq	40(%rax), %rax	# _7->gp_hv, D.14752
	testq	%rax, %rax	# D.14752
	je	.L223	#,
	.loc 1 2094 0 is_stmt 0 discriminator 1
	movq	-8(%rbp), %rax	# gv, tmp76
	movq	(%rax), %rax	# gv_5->sv_any, D.14753
	movq	56(%rax), %rax	# _9->xgv_gp, D.14754
	movq	40(%rax), %rax	# _10->gp_hv, iftmp.405
	jmp	.L224	#
.L223:
	.loc 1 2094 0 discriminator 2
	movq	-8(%rbp), %rax	# gv, tmp77
	movq	%rax, %rdi	# tmp77,
	call	Perl_gv_HVadd	#
	movq	(%rax), %rax	# _12->sv_any, D.14753
	movq	56(%rax), %rax	# _13->xgv_gp, D.14754
	movq	40(%rax), %rax	# _14->gp_hv, iftmp.405
.L224:
	.loc 1 2094 0 discriminator 3
	jmp	.L225	#
.L222:
	.loc 1 2095 0 is_stmt 1
	cmpq	$0, -8(%rbp)	#, gv
	je	.L226	#,
	.loc 1 2096 0
	movq	-8(%rbp), %rax	# gv, tmp78
	movq	(%rax), %rax	# gv_5->sv_any, D.14753
	movq	56(%rax), %rax	# _17->xgv_gp, D.14754
	movq	40(%rax), %rax	# _18->gp_hv, D.14752
	jmp	.L225	#
.L226:
	.loc 1 2097 0
	movl	$0, %eax	#, D.14752
.L225:
	.loc 1 2098 0
	leave
	.cfi_def_cfa 7, 8
	ret
	.cfi_endproc
.LFE14:
	.size	Perl_get_hv, .-Perl_get_hv
	.globl	Perl_get_cv
	.type	Perl_get_cv, @function
Perl_get_cv:
.LFB15:
	.loc 1 2115 0
	.cfi_startproc
	pushq	%rbp	#
	.cfi_def_cfa_offset 16
	.cfi_offset 6, -16
	movq	%rsp, %rbp	#,
	.cfi_def_cfa_register 6
	pushq	%rbx	#
	subq	$40, %rsp	#,
	.cfi_offset 3, -24
	movq	%rdi, -40(%rbp)	# name, name
	movl	%esi, -44(%rbp)	# create, create
	.loc 1 2116 0
	movl	-44(%rbp), %ecx	# create, tmp76
	movq	-40(%rbp), %rax	# name, tmp77
	movl	$12, %edx	#,
	movl	%ecx, %esi	# tmp76,
	movq	%rax, %rdi	# tmp77,
	call	Perl_gv_fetchpv	#
	movq	%rax, -24(%rbp)	# tmp78, gv
	.loc 1 2121 0
	cmpl	$0, -44(%rbp)	#, create
	je	.L228	#,
	.loc 1 2121 0 is_stmt 0 discriminator 1
	movq	-24(%rbp), %rax	# gv, tmp79
	movq	(%rax), %rax	# gv_5->sv_any, D.14757
	movq	56(%rax), %rax	# _6->xgv_gp, D.14758
	movl	64(%rax), %eax	# _7->gp_cvgen, D.14759
	testl	%eax, %eax	# D.14759
	jne	.L229	#,
	movq	-24(%rbp), %rax	# gv, tmp80
	movq	(%rax), %rax	# gv_5->sv_any, D.14757
	movq	56(%rax), %rax	# _9->xgv_gp, D.14758
	movq	56(%rax), %rax	# _10->gp_cv, D.14756
	testq	%rax, %rax	# D.14756
	jne	.L228	#,
.L229:
	.loc 1 2122 0 is_stmt 1
	movq	-40(%rbp), %rax	# name, tmp81
	movl	$0, %esi	#,
	movq	%rax, %rdi	# tmp81,
	call	Perl_newSVpv	#
	movq	%rax, %rdx	# D.14760,
	movl	$0, %esi	#,
	movl	$5, %edi	#,
	call	Perl_newSVOP	#
	movq	%rax, %rbx	#, D.14761
	movl	$0, %esi	#,
	movl	$0, %edi	#,
	call	Perl_start_subparse	#
	movl	$0, %ecx	#,
	movl	$0, %edx	#,
	movq	%rbx, %rsi	# D.14761,
	movl	%eax, %edi	# D.14762,
	call	Perl_newSUB	#
	jmp	.L230	#
.L228:
	.loc 1 2126 0
	cmpq	$0, -24(%rbp)	#, gv
	je	.L231	#,
	.loc 1 2127 0
	movq	-24(%rbp), %rax	# gv, tmp82
	movq	(%rax), %rax	# gv_5->sv_any, D.14757
	movq	56(%rax), %rax	# _16->xgv_gp, D.14758
	movl	64(%rax), %eax	# _17->gp_cvgen, D.14759
	testl	%eax, %eax	# D.14759
	jne	.L232	#,
	.loc 1 2127 0 is_stmt 0 discriminator 1
	movq	-24(%rbp), %rax	# gv, tmp83
	movq	(%rax), %rax	# gv_5->sv_any, D.14757
	movq	56(%rax), %rax	# _19->xgv_gp, D.14758
	movq	56(%rax), %rax	# _20->gp_cv, iftmp.406
	jmp	.L233	#
.L232:
	.loc 1 2127 0 discriminator 2
	movl	$0, %eax	#, iftmp.406
.L233:
	.loc 1 2127 0 discriminator 3
	jmp	.L230	#
.L231:
	.loc 1 2128 0 is_stmt 1
	movl	$0, %eax	#, D.14756
.L230:
	.loc 1 2129 0
	addq	$40, %rsp	#,
	popq	%rbx	#
	popq	%rbp	#
	.cfi_def_cfa 7, 8
	ret
	.cfi_endproc
.LFE15:
	.size	Perl_get_cv, .-Perl_get_cv
	.globl	Perl_call_argv
	.type	Perl_call_argv, @function
Perl_call_argv:
.LFB16:
	.loc 1 2149 0
	.cfi_startproc
	pushq	%rbp	#
	.cfi_def_cfa_offset 16
	.cfi_offset 6, -16
	movq	%rsp, %rbp	#,
	.cfi_def_cfa_register 6
	pushq	%r12	#
	pushq	%rbx	#
	subq	$16, %rsp	#,
	.cfi_offset 12, -24
	.cfi_offset 3, -32
	movq	%rdi, -24(%rbp)	# sub_name, sub_name
	movl	%esi, -28(%rbp)	# flags, flags
	movq	%rdx, %r12	# argv, argv
	.loc 1 2150 0
	movq	PL_stack_sp(%rip), %rbx	# PL_stack_sp, sp
.LBB23:
	.loc 1 2152 0
	movq	PL_markstack_ptr(%rip), %rax	# PL_markstack_ptr, PL_markstack_ptr.407
	addq	$4, %rax	#, PL_markstack_ptr.408
	movq	%rax, PL_markstack_ptr(%rip)	# PL_markstack_ptr.408, PL_markstack_ptr
	movq	PL_markstack_ptr(%rip), %rdx	# PL_markstack_ptr, PL_markstack_ptr.409
	movq	PL_markstack_max(%rip), %rax	# PL_markstack_max, PL_markstack_max.410
	cmpq	%rax, %rdx	# PL_markstack_max.410, PL_markstack_ptr.409
	jne	.L235	#,
	.loc 1 2152 0 is_stmt 0 discriminator 1
	call	Perl_markstack_grow	#
.L235:
	.loc 1 2152 0 discriminator 2
	movq	PL_markstack_ptr(%rip), %rax	# PL_markstack_ptr, PL_markstack_ptr.411
	movq	%rbx, %rcx	# sp, sp.412
	movq	PL_stack_base(%rip), %rdx	# PL_stack_base, PL_stack_base.413
	subq	%rdx, %rcx	# PL_stack_base.414, D.14763
	movq	%rcx, %rdx	# D.14763, D.14763
	sarq	$3, %rdx	#, tmp84
	movl	%edx, (%rax)	# D.14764, *PL_markstack_ptr.411_9
.LBE23:
	.loc 1 2153 0 is_stmt 1 discriminator 2
	testq	%r12, %r12	# argv
	je	.L236	#,
	.loc 1 2154 0
	jmp	.L237	#
.L239:
.LBB24:
	.loc 1 2155 0
	movq	PL_stack_max(%rip), %rax	# PL_stack_max, PL_stack_max.415
	movq	%rax, %rdx	# PL_stack_max.415, PL_stack_max.416
	movq	%rbx, %rax	# sp, sp.417
	subq	%rax, %rdx	# sp.417, D.14763
	movq	%rdx, %rax	# D.14763, D.14763
	cmpq	$7, %rax	#, D.14763
	jg	.L238	#,
	.loc 1 2155 0 is_stmt 0 discriminator 1
	movl	$1, %edx	#,
	movq	%rbx, %rsi	# sp,
	movq	%rbx, %rdi	# sp,
	call	Perl_stack_grow	#
	movq	%rax, %rbx	#, sp
.L238:
	.loc 1 2155 0 discriminator 2
	addq	$8, %rbx	#, sp
	movq	(%r12), %rax	# *argv_1, D.14766
	movl	$0, %esi	#,
	movq	%rax, %rdi	# D.14766,
	call	Perl_newSVpv	#
	movq	%rax, %rdi	# D.14767,
	call	Perl_sv_2mortal	#
	movq	%rax, (%rbx)	# D.14767, *sp_24
.LBE24:
	.loc 1 2156 0 is_stmt 1 discriminator 2
	addq	$8, %r12	#, argv
.L237:
	.loc 1 2154 0 discriminator 1
	movq	(%r12), %rax	# *argv_1, D.14766
	testq	%rax, %rax	# D.14766
	jne	.L239	#,
	.loc 1 2158 0
	movq	%rbx, PL_stack_sp(%rip)	# sp, PL_stack_sp
.L236:
	.loc 1 2160 0
	movl	-28(%rbp), %edx	# flags, tmp85
	movq	-24(%rbp), %rax	# sub_name, tmp86
	movl	%edx, %esi	# tmp85,
	movq	%rax, %rdi	# tmp86,
	call	Perl_call_pv	#
	.loc 1 2161 0
	addq	$16, %rsp	#,
	popq	%rbx	#
	popq	%r12	#
	popq	%rbp	#
	.cfi_def_cfa 7, 8
	ret
	.cfi_endproc
.LFE16:
	.size	Perl_call_argv, .-Perl_call_argv
	.globl	Perl_call_pv
	.type	Perl_call_pv, @function
Perl_call_pv:
.LFB17:
	.loc 1 2175 0
	.cfi_startproc
	pushq	%rbp	#
	.cfi_def_cfa_offset 16
	.cfi_offset 6, -16
	movq	%rsp, %rbp	#,
	.cfi_def_cfa_register 6
	subq	$16, %rsp	#,
	movq	%rdi, -8(%rbp)	# sub_name, sub_name
	movl	%esi, -12(%rbp)	# flags, flags
	.loc 1 2176 0
	movq	-8(%rbp), %rax	# sub_name, tmp62
	movl	$1, %esi	#,
	movq	%rax, %rdi	# tmp62,
	call	Perl_get_cv	#
	movl	-12(%rbp), %edx	# flags, tmp63
	movl	%edx, %esi	# tmp63,
	movq	%rax, %rdi	# D.14768,
	call	Perl_call_sv	#
	.loc 1 2177 0
	leave
	.cfi_def_cfa 7, 8
	ret
	.cfi_endproc
.LFE17:
	.size	Perl_call_pv, .-Perl_call_pv
	.globl	Perl_call_method
	.type	Perl_call_method, @function
Perl_call_method:
.LFB18:
	.loc 1 2192 0
	.cfi_startproc
	pushq	%rbp	#
	.cfi_def_cfa_offset 16
	.cfi_offset 6, -16
	movq	%rsp, %rbp	#,
	.cfi_def_cfa_register 6
	pushq	%rbx	#
	subq	$24, %rsp	#,
	.cfi_offset 3, -24
	movq	%rdi, -24(%rbp)	# methname, methname
	movl	%esi, -28(%rbp)	# flags, flags
	.loc 1 2193 0
	movl	-28(%rbp), %eax	# flags, tmp64
	orl	$64, %eax	#, D.14770
	movl	%eax, %ebx	# D.14770, D.14770
	movq	-24(%rbp), %rax	# methname, tmp65
	movl	$0, %esi	#,
	movq	%rax, %rdi	# tmp65,
	call	Perl_newSVpv	#
	movq	%rax, %rdi	# D.14771,
	call	Perl_sv_2mortal	#
	movl	%ebx, %esi	# D.14770,
	movq	%rax, %rdi	# D.14771,
	call	Perl_call_sv	#
	.loc 1 2194 0
	addq	$24, %rsp	#,
	popq	%rbx	#
	popq	%rbp	#
	.cfi_def_cfa 7, 8
	ret
	.cfi_endproc
.LFE18:
	.size	Perl_call_method, .-Perl_call_method
	.section	.rodata
.LC52:
	.string	"Callback called exit"
	.text
	.globl	Perl_call_sv
	.type	Perl_call_sv, @function
Perl_call_sv:
.LFB19:
	.loc 1 2209 0
	.cfi_startproc
	pushq	%rbp	#
	.cfi_def_cfa_offset 16
	.cfi_offset 6, -16
	movq	%rsp, %rbp	#,
	.cfi_def_cfa_register 6
	pushq	%rbx	#
	subq	$424, %rsp	#,
	.cfi_offset 3, -24
	movq	%rdi, -424(%rbp)	# sv, sv
	movl	%esi, -428(%rbp)	# flags, flags
	.loc 1 2210 0
	movq	PL_stack_sp(%rip), %rbx	# PL_stack_sp, sp
	.loc 1 2214 0
	movl	$0, -404(%rbp)	#, retval
	.loc 1 2216 0
	movq	PL_top_env(%rip), %rax	# PL_top_env, PL_top_env.418
	movzbl	212(%rax), %eax	# PL_top_env.418_7->je_mustcatch, tmp266
	movb	%al, -405(%rbp)	# tmp266, oldcatch
	.loc 1 2218 0
	movq	PL_op(%rip), %rax	# PL_op, tmp267
	movq	%rax, -376(%rbp)	# tmp267, oldop
	.loc 1 2221 0
	movl	-428(%rbp), %eax	# flags, tmp268
	andl	$2, %eax	#, D.14773
	testl	%eax, %eax	# D.14773
	je	.L246	#,
	.loc 1 2222 0
	call	Perl_push_scope	#
	.loc 1 2223 0
	movl	$PL_tmps_floor, %edi	#,
	call	Perl_save_int	#
	movl	PL_tmps_ix(%rip), %eax	# PL_tmps_ix, PL_tmps_ix.419
	movl	%eax, PL_tmps_floor(%rip)	# PL_tmps_ix.419, PL_tmps_floor
.L246:
	.loc 1 2226 0
	leaq	-304(%rbp), %rax	#, tmp269
	movl	$56, %edx	#,
	movl	$0, %esi	#,
	movq	%rax, %rdi	# tmp269,
	call	memset	#
	.loc 1 2227 0
	movq	$0, -304(%rbp)	#, myop.op_next
	.loc 1 2228 0
	movl	-428(%rbp), %eax	# flags, tmp270
	andl	$8, %eax	#, D.14773
	testl	%eax, %eax	# D.14773
	jne	.L247	#,
	.loc 1 2229 0
	movzbl	-268(%rbp), %eax	# myop.op_flags, D.14774
	orl	$64, %eax	#, D.14774
	movb	%al, -268(%rbp)	# D.14774, myop.op_flags
.L247:
	.loc 1 2230 0
	movzbl	-268(%rbp), %eax	# myop.op_flags, D.14774
	movl	%eax, %edx	# D.14774, D.14775
	movl	-428(%rbp), %eax	# flags, tmp271
	andl	$128, %eax	#, D.14773
	testl	%eax, %eax	# D.14773
	jne	.L248	#,
	.loc 1 2231 0 discriminator 1
	movl	-428(%rbp), %eax	# flags, tmp272
	andl	$1, %eax	#, D.14773
	.loc 1 2230 0 discriminator 1
	testl	%eax, %eax	# D.14773
	je	.L249	#,
	.loc 1 2230 0 is_stmt 0 discriminator 3
	movl	$3, %eax	#, iftmp.421
	jmp	.L251	#
.L249:
	.loc 1 2230 0 discriminator 4
	movl	$2, %eax	#, iftmp.421
	jmp	.L251	#
.L248:
	.loc 1 2230 0 discriminator 2
	movl	$1, %eax	#, iftmp.420
.L251:
	.loc 1 2230 0 discriminator 5
	orl	%edx, %eax	# D.14775, D.14775
	movb	%al, -268(%rbp)	# D.14774, myop.op_flags
	.loc 1 2233 0 is_stmt 1 discriminator 5
	call	Perl_save_op	#
	.loc 1 2234 0 discriminator 5
	leaq	-304(%rbp), %rax	#, tmp273
	movq	%rax, PL_op(%rip)	# tmp273, PL_op
	.loc 1 2236 0 discriminator 5
	movq	PL_stack_max(%rip), %rax	# PL_stack_max, PL_stack_max.422
	movq	%rax, %rdx	# PL_stack_max.422, PL_stack_max.423
	movq	PL_stack_sp(%rip), %rax	# PL_stack_sp, PL_stack_sp.424
	subq	%rax, %rdx	# PL_stack_sp.425, D.14776
	movq	%rdx, %rax	# D.14776, D.14776
	cmpq	$7, %rax	#, D.14776
	jg	.L252	#,
	.loc 1 2236 0 is_stmt 0 discriminator 1
	movq	PL_stack_sp(%rip), %rax	# PL_stack_sp, PL_stack_sp.426
	movl	$1, %edx	#,
	movq	%rax, %rsi	# PL_stack_sp.426,
	movq	%rbx, %rdi	# sp,
	call	Perl_stack_grow	#
	movq	%rax, %rbx	#, sp
.L252:
	.loc 1 2237 0 is_stmt 1
	movq	PL_stack_sp(%rip), %rax	# PL_stack_sp, PL_stack_sp.427
	addq	$8, %rax	#, PL_stack_sp.428
	movq	%rax, PL_stack_sp(%rip)	# PL_stack_sp.428, PL_stack_sp
	movq	PL_stack_sp(%rip), %rax	# PL_stack_sp, PL_stack_sp.429
	movq	-424(%rbp), %rdx	# sv, tmp274
	movq	%rdx, (%rax)	# tmp274, *PL_stack_sp.429_35
	.loc 1 2238 0
	movq	PL_markstack_ptr(%rip), %rax	# PL_markstack_ptr, PL_markstack_ptr.430
	movl	(%rax), %eax	# *PL_markstack_ptr.430_37, tmp275
	movl	%eax, -400(%rbp)	# tmp275, oldmark
	.loc 1 2239 0
	movl	PL_scopestack_ix(%rip), %eax	# PL_scopestack_ix, tmp276
	movl	%eax, -396(%rbp)	# tmp276, oldscope
	.loc 1 2241 0
	movl	PL_perldb(%rip), %eax	# PL_perldb, PL_perldb.431
	testl	%eax, %eax	# PL_perldb.431
	je	.L253	#,
	.loc 1 2241 0 is_stmt 0 discriminator 1
	movl	PL_perldb(%rip), %eax	# PL_perldb, PL_perldb.432
	andl	$1, %eax	#, D.14777
	testl	%eax, %eax	# D.14777
	je	.L253	#,
	movq	PL_curstash(%rip), %rdx	# PL_curstash, PL_curstash.433
	movq	PL_debstash(%rip), %rax	# PL_debstash, PL_debstash.434
	cmpq	%rax, %rdx	# PL_debstash.434, PL_curstash.433
	je	.L253	#,
	.loc 1 2243 0 is_stmt 1
	movq	PL_DBcv(%rip), %rax	# PL_DBcv, PL_DBcv.435
	testq	%rax, %rax	# PL_DBcv.435
	jne	.L254	#,
	.loc 1 2243 0 is_stmt 0 discriminator 1
	movq	PL_DBsub(%rip), %rax	# PL_DBsub, PL_DBsub.436
	movq	(%rax), %rax	# PL_DBsub.436_46->sv_any, D.14778
	movq	56(%rax), %rax	# _47->xgv_gp, D.14779
	movq	56(%rax), %rax	# _48->gp_cv, PL_DBcv.437
	movq	%rax, PL_DBcv(%rip)	# PL_DBcv.437, PL_DBcv
	movq	PL_DBcv(%rip), %rax	# PL_DBcv, PL_DBcv.438
	testq	%rax, %rax	# PL_DBcv.438
	je	.L253	#,
.L254:
	.loc 1 2246 0 is_stmt 1
	movq	-424(%rbp), %rax	# sv, tmp277
	movl	12(%rax), %eax	# sv_36(D)->sv_flags, D.14777
	movzbl	%al, %eax	# D.14777, D.14777
	cmpl	$12, %eax	#, D.14777
	jne	.L255	#,
	.loc 1 2246 0 is_stmt 0 discriminator 1
	movq	-424(%rbp), %rax	# sv, tmp278
	movq	(%rax), %rax	# MEM[(struct CV *)sv_36(D)].sv_any, D.14780
	movq	56(%rax), %rdx	# _53->xcv_stash, D.14781
	movq	PL_debstash(%rip), %rax	# PL_debstash, PL_debstash.439
	cmpq	%rax, %rdx	# PL_debstash.439, D.14781
	je	.L253	#,
.L255:
	.loc 1 2247 0 is_stmt 1
	movl	-428(%rbp), %eax	# flags, tmp279
	andl	$32, %eax	#, D.14773
	testl	%eax, %eax	# D.14773
	jne	.L253	#,
	.loc 1 2248 0
	movq	PL_op(%rip), %rax	# PL_op, PL_op.440
	movq	PL_op(%rip), %rdx	# PL_op, PL_op.441
	movzbl	37(%rdx), %edx	# PL_op.441_58->op_private, D.14774
	orl	$16, %edx	#, D.14774
	movb	%dl, 37(%rax)	# D.14774, PL_op.440_57->op_private
.L253:
	.loc 1 2250 0
	movl	-428(%rbp), %eax	# flags, tmp280
	andl	$64, %eax	#, D.14773
	testl	%eax, %eax	# D.14773
	je	.L256	#,
	.loc 1 2251 0
	leaq	-352(%rbp), %rax	#, tmp281
	movl	$48, %edx	#,
	movl	$0, %esi	#,
	movq	%rax, %rdi	# tmp281,
	call	memset	#
	.loc 1 2252 0
	movq	PL_op(%rip), %rax	# PL_op, PL_op.442
	movq	%rax, -352(%rbp)	# PL_op.442, method_op.op_next
	.loc 1 2253 0
	movq	PL_ppaddr+1320(%rip), %rax	# PL_ppaddr, D.14782
	movq	%rax, -336(%rbp)	# D.14782, method_op.op_ppaddr
	.loc 1 2254 0
	movq	PL_ppaddr+1328(%rip), %rax	# PL_ppaddr, D.14782
	movq	%rax, -288(%rbp)	# D.14782, myop.op_ppaddr
	.loc 1 2255 0
	leaq	-352(%rbp), %rax	#, tmp282
	movq	%rax, PL_op(%rip)	# tmp282, PL_op
.L256:
	.loc 1 2258 0
	movl	-428(%rbp), %eax	# flags, tmp283
	andl	$4, %eax	#, D.14773
	testl	%eax, %eax	# D.14773
	jne	.L257	#,
	.loc 1 2259 0
	movq	PL_top_env(%rip), %rax	# PL_top_env, PL_top_env.443
	movb	$1, 212(%rax)	#, PL_top_env.443_66->je_mustcatch
	.loc 1 2260 0
	leaq	-304(%rbp), %rax	#, tmp284
	movl	$0, %esi	#,
	movq	%rax, %rdi	# tmp284,
	call	S_call_body	#
	.loc 1 2261 0
	movq	PL_stack_sp(%rip), %rax	# PL_stack_sp, PL_stack_sp.444
	movq	%rax, %rdx	# PL_stack_sp.444, PL_stack_sp.445
	movq	PL_stack_base(%rip), %rax	# PL_stack_base, PL_stack_base.446
	movl	-400(%rbp), %ecx	# oldmark, tmp285
	movslq	%ecx, %rcx	# tmp285, D.14783
	salq	$3, %rcx	#, D.14783
	addq	%rcx, %rax	# D.14783, D.14784
	subq	%rax, %rdx	# D.14776, D.14776
	movq	%rdx, %rax	# D.14776, D.14776
	sarq	$3, %rax	#, tmp286
	movl	%eax, -404(%rbp)	# retval.447, retval
	.loc 1 2262 0
	movq	PL_top_env(%rip), %rax	# PL_top_env, PL_top_env.448
	movzbl	-405(%rbp), %edx	# oldcatch, tmp287
	movb	%dl, 212(%rax)	# tmp287, PL_top_env.448_77->je_mustcatch
	jmp	.L258	#
.L257:
	.loc 1 2265 0
	leaq	-304(%rbp), %rax	#, tmp288
	movq	%rax, -256(%rbp)	# tmp288, myop.op_other
	.loc 1 2266 0
	movq	PL_markstack_ptr(%rip), %rax	# PL_markstack_ptr, PL_markstack_ptr.449
	subq	$4, %rax	#, PL_markstack_ptr.450
	movq	%rax, PL_markstack_ptr(%rip)	# PL_markstack_ptr.450, PL_markstack_ptr
.LBB25:
	.loc 1 2270 0
	movq	PL_op(%rip), %rax	# PL_op, PL_op.452
	movzbl	36(%rax), %eax	# PL_op.452_80->op_flags, D.14774
	movzbl	%al, %eax	# D.14774, D.14773
	andl	$3, %eax	#, D.14773
	cmpl	$1, %eax	#, D.14773
	je	.L259	#,
	.loc 1 2270 0 is_stmt 0 discriminator 1
	movq	PL_op(%rip), %rax	# PL_op, PL_op.454
	movzbl	36(%rax), %eax	# PL_op.454_84->op_flags, D.14774
	movzbl	%al, %eax	# D.14774, D.14773
	andl	$3, %eax	#, D.14773
	cmpl	$2, %eax	#, D.14773
	je	.L260	#,
	movq	PL_op(%rip), %rax	# PL_op, PL_op.456
	movzbl	36(%rax), %eax	# PL_op.456_88->op_flags, D.14774
	movzbl	%al, %eax	# D.14774, D.14773
	andl	$3, %eax	#, D.14773
	cmpl	$3, %eax	#, D.14773
	je	.L261	#,
	call	Perl_block_gimme	#
	jmp	.L264	#
.L261:
	.loc 1 2270 0 discriminator 2
	movl	$1, %eax	#, iftmp.455
	jmp	.L264	#
.L260:
	movl	$0, %eax	#, iftmp.453
	jmp	.L264	#
.L259:
	movl	$128, %eax	#, iftmp.451
.L264:
	.loc 1 2270 0 discriminator 3
	movl	%eax, -392(%rbp)	# iftmp.451, gimme
	.loc 1 2272 0 is_stmt 1 discriminator 3
	call	Perl_push_scope	#
	.loc 1 2273 0 discriminator 3
	movl	$PL_tmps_floor, %edi	#,
	call	Perl_save_int	#
	movl	PL_tmps_ix(%rip), %eax	# PL_tmps_ix, PL_tmps_ix.457
	movl	%eax, PL_tmps_floor(%rip)	# PL_tmps_ix.457, PL_tmps_floor
	.loc 1 2275 0 discriminator 3
	movl	$0, %edi	#,
	call	Perl_push_return	#
	.loc 1 2276 0 discriminator 3
	movq	PL_curstackinfo(%rip), %rax	# PL_curstackinfo, PL_curstackinfo.459
	movl	16(%rax), %edx	# PL_curstackinfo.459_100->si_cxix, D.14773
	movq	PL_curstackinfo(%rip), %rax	# PL_curstackinfo, PL_curstackinfo.460
	movl	20(%rax), %eax	# PL_curstackinfo.460_102->si_cxmax, D.14773
	cmpl	%eax, %edx	# D.14773, D.14773
	jge	.L265	#,
	.loc 1 2276 0 is_stmt 0 discriminator 1
	movq	PL_curstackinfo(%rip), %rax	# PL_curstackinfo, PL_curstackinfo.461
	movl	16(%rax), %edx	# PL_curstackinfo.461_104->si_cxix, D.14773
	addl	$1, %edx	#, D.14773
	movl	%edx, 16(%rax)	# D.14773, PL_curstackinfo.461_104->si_cxix
	jmp	.L266	#
.L265:
	.loc 1 2276 0 discriminator 2
	movq	PL_curstackinfo(%rip), %rbx	# PL_curstackinfo, PL_curstackinfo.462
	call	Perl_cxinc	#
	movl	%eax, 16(%rbx)	# D.14773, PL_curstackinfo.462_108->si_cxix
.L266:
	.loc 1 2276 0 discriminator 3
	movq	PL_curstackinfo(%rip), %rax	# PL_curstackinfo, PL_curstackinfo.463
	movq	8(%rax), %rcx	# PL_curstackinfo.463_111->si_cxstack, D.14785
	movq	PL_curstackinfo(%rip), %rax	# PL_curstackinfo, PL_curstackinfo.464
	movl	16(%rax), %eax	# PL_curstackinfo.464_113->si_cxix, D.14773
	movslq	%eax, %rdx	# D.14773, D.14783
	movq	%rdx, %rax	# D.14783, tmp289
	salq	$3, %rax	#, tmp289
	addq	%rdx, %rax	# D.14783, tmp289
	salq	$4, %rax	#, tmp290
	leaq	(%rcx,%rax), %rbx	#, cx
	movl	$514, (%rbx)	#, cx_117->cx_type
	movq	PL_stack_sp(%rip), %rax	# PL_stack_sp, PL_stack_sp.465
	movq	%rax, %rdx	# PL_stack_sp.465, PL_stack_sp.466
	movq	PL_stack_base(%rip), %rax	# PL_stack_base, PL_stack_base.467
	subq	%rax, %rdx	# PL_stack_base.468, D.14776
	movq	%rdx, %rax	# D.14776, D.14776
	sarq	$3, %rax	#, tmp291
	movl	%eax, 8(%rbx)	# D.14773, cx_117->cx_u.cx_blk.blku_oldsp
	movq	PL_curcop(%rip), %rax	# PL_curcop, PL_curcop.469
	movq	%rax, 16(%rbx)	# PL_curcop.469, cx_117->cx_u.cx_blk.blku_oldcop
	movq	PL_markstack_ptr(%rip), %rax	# PL_markstack_ptr, PL_markstack_ptr.470
	movq	%rax, %rdx	# PL_markstack_ptr.470, PL_markstack_ptr.471
	movq	PL_markstack(%rip), %rax	# PL_markstack, PL_markstack.472
	subq	%rax, %rdx	# PL_markstack.473, D.14776
	movq	%rdx, %rax	# D.14776, D.14776
	sarq	$2, %rax	#, tmp292
	movl	%eax, 28(%rbx)	# D.14773, cx_117->cx_u.cx_blk.blku_oldmarksp
	movl	PL_scopestack_ix(%rip), %eax	# PL_scopestack_ix, PL_scopestack_ix.474
	movl	%eax, 32(%rbx)	# PL_scopestack_ix.474, cx_117->cx_u.cx_blk.blku_oldscopesp
	movl	PL_retstack_ix(%rip), %eax	# PL_retstack_ix, PL_retstack_ix.475
	movl	%eax, 24(%rbx)	# PL_retstack_ix.475, cx_117->cx_u.cx_blk.blku_oldretsp
	movq	PL_curpm(%rip), %rax	# PL_curpm, PL_curpm.476
	movq	%rax, 40(%rbx)	# PL_curpm.476, cx_117->cx_u.cx_blk.blku_oldpm
	movl	-392(%rbp), %eax	# gimme, tmp293
	movb	%al, 48(%rbx)	# D.14774, cx_117->cx_u.cx_blk.blku_gimme
.LBB26:
	.loc 1 2277 0 is_stmt 1 discriminator 3
	movl	PL_in_eval(%rip), %eax	# PL_in_eval, PL_in_eval.477
	movl	%eax, 56(%rbx)	# PL_in_eval.477, cx_117->cx_u.cx_blk.blk_u.blku_eval.old_in_eval
	movq	PL_op(%rip), %rax	# PL_op, PL_op.478
	movzwl	32(%rax), %eax	# PL_op.478_138->op_type, D.14786
	movzwl	%ax, %eax	# D.14786, D.14773
	movl	%eax, 60(%rbx)	# D.14773, cx_117->cx_u.cx_blk.blk_u.blku_eval.old_op_type
	movq	$0, 64(%rbx)	#, cx_117->cx_u.cx_blk.blk_u.blku_eval.old_namesv
	movq	PL_eval_root(%rip), %rax	# PL_eval_root, PL_eval_root.479
	movq	%rax, 72(%rbx)	# PL_eval_root.479, cx_117->cx_u.cx_blk.blk_u.blku_eval.old_eval_root
	movq	PL_linestr(%rip), %rax	# PL_linestr, PL_linestr.480
	movq	%rax, 80(%rbx)	# PL_linestr.480, cx_117->cx_u.cx_blk.blk_u.blku_eval.cur_text
	movq	$0, 88(%rbx)	#, cx_117->cx_u.cx_blk.blk_u.blku_eval.cv
.LBE26:
	.loc 1 2278 0 discriminator 3
	movq	PL_op(%rip), %rax	# PL_op, PL_op.481
	movq	%rax, PL_eval_root(%rip)	# PL_op.481, PL_eval_root
	.loc 1 2280 0 discriminator 3
	movl	$1, PL_in_eval(%rip)	#, PL_in_eval
	.loc 1 2281 0 discriminator 3
	movl	-428(%rbp), %eax	# flags, tmp294
	andl	$16, %eax	#, D.14773
	testl	%eax, %eax	# D.14773
	je	.L267	#,
	.loc 1 2282 0
	movl	PL_in_eval(%rip), %eax	# PL_in_eval, PL_in_eval.482
	orl	$4, %eax	#, PL_in_eval.483
	movl	%eax, PL_in_eval(%rip)	# PL_in_eval.483, PL_in_eval
	jmp	.L268	#
.L267:
	.loc 1 2284 0
	movq	PL_errgv(%rip), %rax	# PL_errgv, PL_errgv.484
	movq	(%rax), %rax	# PL_errgv.484_148->sv_any, D.14778
	movq	56(%rax), %rax	# _149->xgv_gp, D.14779
	movq	(%rax), %rax	# _150->gp_sv, D.14788
	movl	$.LC2, %esi	#,
	movq	%rax, %rdi	# D.14788,
	call	Perl_sv_setpv	#
.L268:
.LBE25:
	.loc 1 2286 0
	movq	PL_markstack_ptr(%rip), %rax	# PL_markstack_ptr, PL_markstack_ptr.485
	addq	$4, %rax	#, PL_markstack_ptr.486
	movq	%rax, PL_markstack_ptr(%rip)	# PL_markstack_ptr.486, PL_markstack_ptr
.LBB27:
	.loc 1 2293 0
	movq	PL_top_env(%rip), %rax	# PL_top_env, PL_top_env.487
	movq	%rax, -40(%rbp)	# PL_top_env.487, cur_env.je_prev
	leaq	-240(%rbp), %rax	#, tmp295
	movl	$0, %esi	#,
	movq	%rax, %rdi	# tmp295,
	call	__sigsetjmp	#
	movl	%eax, -32(%rbp)	# D.14773, cur_env.je_ret
	leaq	-240(%rbp), %rax	#, tmp296
	movq	%rax, PL_top_env(%rip)	# tmp296, PL_top_env
	movb	$0, -28(%rbp)	#, cur_env.je_mustcatch
	movl	-32(%rbp), %eax	# cur_env.je_ret, tmp297
	movl	%eax, -388(%rbp)	# tmp297, ret
.LBE27:
	.loc 1 2295 0
	movl	-388(%rbp), %eax	# ret, ret
	cmpl	$1, %eax	#, ret
	je	.L270	#,
	cmpl	$1, %eax	#, ret
	jg	.L271	#,
	testl	%eax, %eax	# ret
	je	.L272	#,
	jmp	.L269	#
.L271:
	cmpl	$2, %eax	#, ret
	je	.L273	#,
	cmpl	$3, %eax	#, ret
	je	.L274	#,
	jmp	.L269	#
.L272:
	.loc 1 2299 0
	leaq	-304(%rbp), %rax	#, tmp299
	movl	$0, %esi	#,
	movq	%rax, %rdi	# tmp299,
	call	S_call_body	#
	.loc 1 2301 0
	movq	PL_stack_sp(%rip), %rax	# PL_stack_sp, PL_stack_sp.488
	movq	%rax, %rdx	# PL_stack_sp.488, PL_stack_sp.489
	movq	PL_stack_base(%rip), %rax	# PL_stack_base, PL_stack_base.490
	movl	-400(%rbp), %ecx	# oldmark, tmp300
	movslq	%ecx, %rcx	# tmp300, D.14783
	salq	$3, %rcx	#, D.14783
	addq	%rcx, %rax	# D.14783, D.14784
	subq	%rax, %rdx	# D.14776, D.14776
	movq	%rdx, %rax	# D.14776, D.14776
	sarq	$3, %rax	#, tmp301
	movl	%eax, -404(%rbp)	# retval.491, retval
	.loc 1 2302 0
	movl	-428(%rbp), %eax	# flags, tmp302
	andl	$16, %eax	#, D.14773
	testl	%eax, %eax	# D.14773
	jne	.L275	#,
	.loc 1 2303 0
	movq	PL_errgv(%rip), %rax	# PL_errgv, PL_errgv.492
	movq	(%rax), %rax	# PL_errgv.492_187->sv_any, D.14778
	movq	56(%rax), %rax	# _188->xgv_gp, D.14779
	movq	(%rax), %rax	# _189->gp_sv, D.14788
	movl	$.LC2, %esi	#,
	movq	%rax, %rdi	# D.14788,
	call	Perl_sv_setpv	#
	.loc 1 2304 0
	jmp	.L269	#
.L275:
	jmp	.L269	#
.L270:
	.loc 1 2306 0
	movl	$1, PL_statusvalue(%rip)	#, PL_statusvalue
.L273:
	.loc 1 2310 0
	movq	PL_defstash(%rip), %rax	# PL_defstash, PL_defstash.493
	movq	%rax, PL_curstash(%rip)	# PL_defstash.493, PL_curstash
	.loc 1 2311 0
	movl	PL_tmps_ix(%rip), %edx	# PL_tmps_ix, PL_tmps_ix.494
	movl	PL_tmps_floor(%rip), %eax	# PL_tmps_floor, PL_tmps_floor.495
	cmpl	%eax, %edx	# PL_tmps_floor.495, PL_tmps_ix.494
	jle	.L276	#,
	.loc 1 2311 0 is_stmt 0 discriminator 1
	call	Perl_free_tmps	#
.L276:
	.loc 1 2312 0 is_stmt 1
	movq	-40(%rbp), %rax	# cur_env.je_prev, PL_top_env.496
	movq	%rax, PL_top_env(%rip)	# PL_top_env.496, PL_top_env
	.loc 1 2313 0
	movl	PL_statusvalue(%rip), %eax	# PL_statusvalue, PL_statusvalue.497
	testl	%eax, %eax	# PL_statusvalue.497
	je	.L277	#,
	.loc 1 2313 0 is_stmt 0 discriminator 1
	movzbl	PL_exit_flags(%rip), %eax	# PL_exit_flags, PL_exit_flags.498
	movzbl	%al, %eax	# PL_exit_flags.498, D.14773
	andl	$1, %eax	#, D.14773
	testl	%eax, %eax	# D.14773
	jne	.L277	#,
	.loc 1 2314 0 is_stmt 1
	movl	$.LC52, %edi	#,
	movl	$0, %eax	#,
	call	Perl_croak	#
.L277:
	.loc 1 2315 0
	call	S_my_exit_jump	#
.L274:
	.loc 1 2318 0
	movq	PL_restartop(%rip), %rax	# PL_restartop, PL_restartop.499
	testq	%rax, %rax	# PL_restartop.499
	je	.L278	#,
	.loc 1 2319 0
	movq	PL_restartop(%rip), %rax	# PL_restartop, PL_restartop.500
	movq	%rax, PL_op(%rip)	# PL_restartop.500, PL_op
	.loc 1 2320 0
	movq	$0, PL_restartop(%rip)	#, PL_restartop
	.loc 1 2321 0
	jmp	.L272	#
.L278:
	.loc 1 2323 0
	movq	PL_stack_base(%rip), %rax	# PL_stack_base, PL_stack_base.501
	movl	-400(%rbp), %edx	# oldmark, tmp303
	movslq	%edx, %rdx	# tmp303, D.14783
	salq	$3, %rdx	#, D.14783
	addq	%rdx, %rax	# D.14783, PL_stack_sp.502
	movq	%rax, PL_stack_sp(%rip)	# PL_stack_sp.502, PL_stack_sp
	.loc 1 2324 0
	movl	-428(%rbp), %eax	# flags, tmp304
	andl	$1, %eax	#, D.14773
	testl	%eax, %eax	# D.14773
	je	.L279	#,
	.loc 1 2325 0
	movl	$0, -404(%rbp)	#, retval
	.loc 1 2330 0
	jmp	.L286	#
.L279:
	.loc 1 2327 0
	movl	$1, -404(%rbp)	#, retval
	.loc 1 2328 0
	movq	PL_stack_sp(%rip), %rax	# PL_stack_sp, PL_stack_sp.503
	addq	$8, %rax	#, PL_stack_sp.504
	movq	%rax, PL_stack_sp(%rip)	# PL_stack_sp.504, PL_stack_sp
	movq	PL_stack_sp(%rip), %rax	# PL_stack_sp, PL_stack_sp.505
	movq	$PL_sv_undef, (%rax)	#, *PL_stack_sp.505_175
.L286:
	.loc 1 2330 0
	nop
.L269:
	.loc 1 2333 0
	movl	PL_scopestack_ix(%rip), %eax	# PL_scopestack_ix, PL_scopestack_ix.506
	cmpl	-396(%rbp), %eax	# oldscope, PL_scopestack_ix.506
	jle	.L281	#,
.LBB28:
	.loc 1 2340 0
	movq	PL_curstackinfo(%rip), %rax	# PL_curstackinfo, PL_curstackinfo.507
	movq	8(%rax), %rsi	# PL_curstackinfo.507_192->si_cxstack, D.14785
	movq	PL_curstackinfo(%rip), %rax	# PL_curstackinfo, PL_curstackinfo.508
	movl	16(%rax), %edx	# PL_curstackinfo.508_194->si_cxix, D.14773
	leal	-1(%rdx), %ecx	#, D.14773
	movl	%ecx, 16(%rax)	# D.14773, PL_curstackinfo.508_194->si_cxix
	movslq	%edx, %rdx	# D.14773, D.14783
	movq	%rdx, %rax	# D.14783, tmp305
	salq	$3, %rax	#, tmp305
	addq	%rdx, %rax	# D.14783, tmp305
	salq	$4, %rax	#, tmp306
	leaq	(%rsi,%rax), %rbx	#, cx
	movq	PL_stack_base(%rip), %rax	# PL_stack_base, PL_stack_base.509
	movl	8(%rbx), %edx	# cx_200->cx_u.cx_blk.blku_oldsp, D.14773
	movslq	%edx, %rdx	# D.14773, D.14783
	salq	$3, %rdx	#, D.14783
	addq	%rdx, %rax	# D.14783, tmp307
	movq	%rax, -368(%rbp)	# tmp307, newsp
	movq	16(%rbx), %rax	# cx_200->cx_u.cx_blk.blku_oldcop, PL_curcop.510
	movq	%rax, PL_curcop(%rip)	# PL_curcop.510, PL_curcop
	movq	PL_markstack(%rip), %rax	# PL_markstack, PL_markstack.511
	movl	28(%rbx), %edx	# cx_200->cx_u.cx_blk.blku_oldmarksp, D.14773
	movslq	%edx, %rdx	# D.14773, D.14783
	salq	$2, %rdx	#, D.14783
	addq	%rdx, %rax	# D.14783, PL_markstack_ptr.512
	movq	%rax, PL_markstack_ptr(%rip)	# PL_markstack_ptr.512, PL_markstack_ptr
	movl	32(%rbx), %eax	# cx_200->cx_u.cx_blk.blku_oldscopesp, PL_scopestack_ix.513
	movl	%eax, PL_scopestack_ix(%rip)	# PL_scopestack_ix.513, PL_scopestack_ix
	movl	24(%rbx), %eax	# cx_200->cx_u.cx_blk.blku_oldretsp, PL_retstack_ix.514
	movl	%eax, PL_retstack_ix(%rip)	# PL_retstack_ix.514, PL_retstack_ix
	movq	40(%rbx), %rax	# cx_200->cx_u.cx_blk.blku_oldpm, tmp308
	movq	%rax, -360(%rbp)	# tmp308, newpm
	movzbl	48(%rbx), %eax	# cx_200->cx_u.cx_blk.blku_gimme, D.14774
	movzbl	%al, %eax	# D.14774, tmp309
	movl	%eax, -384(%rbp)	# tmp309, gimme
.LBB29:
	.loc 1 2341 0
	movl	56(%rbx), %eax	# cx_200->cx_u.cx_blk.blk_u.blku_eval.old_in_eval, PL_in_eval.515
	movl	%eax, PL_in_eval(%rip)	# PL_in_eval.515, PL_in_eval
	movl	60(%rbx), %eax	# cx_200->cx_u.cx_blk.blk_u.blku_eval.old_op_type, tmp310
	movl	%eax, -380(%rbp)	# tmp310, optype
	movq	72(%rbx), %rax	# cx_200->cx_u.cx_blk.blk_u.blku_eval.old_eval_root, PL_eval_root.516
	movq	%rax, PL_eval_root(%rip)	# PL_eval_root.516, PL_eval_root
	movq	64(%rbx), %rax	# cx_200->cx_u.cx_blk.blk_u.blku_eval.old_namesv, D.14788
	testq	%rax, %rax	# D.14788
	je	.L282	#,
	.loc 1 2341 0 is_stmt 0 discriminator 1
	movq	64(%rbx), %rax	# cx_200->cx_u.cx_blk.blk_u.blku_eval.old_namesv, D.14788
	movq	%rax, %rdi	# D.14788,
	call	Perl_sv_2mortal	#
.L282:
.LBE29:
	.loc 1 2342 0 is_stmt 1
	call	Perl_pop_return	#
	.loc 1 2343 0
	movq	-360(%rbp), %rax	# newpm, tmp311
	movq	%rax, PL_curpm(%rip)	# tmp311, PL_curpm
	.loc 1 2344 0
	call	Perl_pop_scope	#
.L281:
.LBE28:
	.loc 1 2346 0
	movq	-40(%rbp), %rax	# cur_env.je_prev, PL_top_env.517
	movq	%rax, PL_top_env(%rip)	# PL_top_env.517, PL_top_env
.L258:
	.loc 1 2349 0
	movl	-428(%rbp), %eax	# flags, tmp312
	andl	$2, %eax	#, D.14773
	testl	%eax, %eax	# D.14773
	je	.L283	#,
	.loc 1 2350 0
	movq	PL_stack_base(%rip), %rax	# PL_stack_base, PL_stack_base.518
	movl	-400(%rbp), %edx	# oldmark, tmp313
	movslq	%edx, %rdx	# tmp313, D.14783
	salq	$3, %rdx	#, D.14783
	addq	%rdx, %rax	# D.14783, PL_stack_sp.519
	movq	%rax, PL_stack_sp(%rip)	# PL_stack_sp.519, PL_stack_sp
	.loc 1 2351 0
	movl	$0, -404(%rbp)	#, retval
	.loc 1 2352 0
	movl	PL_tmps_ix(%rip), %edx	# PL_tmps_ix, PL_tmps_ix.520
	movl	PL_tmps_floor(%rip), %eax	# PL_tmps_floor, PL_tmps_floor.521
	cmpl	%eax, %edx	# PL_tmps_floor.521, PL_tmps_ix.520
	jle	.L284	#,
	.loc 1 2352 0 is_stmt 0 discriminator 1
	call	Perl_free_tmps	#
.L284:
	.loc 1 2353 0 is_stmt 1
	call	Perl_pop_scope	#
.L283:
	.loc 1 2355 0
	movq	-376(%rbp), %rax	# oldop, tmp314
	movq	%rax, PL_op(%rip)	# tmp314, PL_op
	.loc 1 2356 0
	movl	-404(%rbp), %eax	# retval, D.14789
	.loc 1 2357 0
	addq	$424, %rsp	#,
	popq	%rbx	#
	popq	%rbp	#
	.cfi_def_cfa 7, 8
	ret
	.cfi_endproc
.LFE19:
	.size	Perl_call_sv, .-Perl_call_sv
	.type	S_call_body, @function
S_call_body:
.LFB20:
	.loc 1 2373 0
	.cfi_startproc
	pushq	%rbp	#
	.cfi_def_cfa_offset 16
	.cfi_offset 6, -16
	movq	%rsp, %rbp	#,
	.cfi_def_cfa_register 6
	subq	$16, %rsp	#,
	movq	%rdi, -8(%rbp)	# myop, myop
	movl	%esi, -12(%rbp)	# is_eval, is_eval
	.loc 1 2374 0
	movq	PL_op(%rip), %rax	# PL_op, PL_op.522
	cmpq	-8(%rbp), %rax	# myop, PL_op.522
	jne	.L288	#,
	.loc 1 2375 0
	cmpl	$0, -12(%rbp)	#, is_eval
	je	.L289	#,
	.loc 1 2376 0
	call	Perl_pp_entereval	#
	movq	%rax, PL_op(%rip)	# PL_op.523, PL_op
	jmp	.L288	#
.L289:
	.loc 1 2378 0
	call	Perl_pp_entersub	#
	movq	%rax, PL_op(%rip)	# PL_op.524, PL_op
.L288:
	.loc 1 2380 0
	movq	PL_op(%rip), %rax	# PL_op, PL_op.525
	testq	%rax, %rax	# PL_op.525
	je	.L287	#,
	.loc 1 2381 0
	movq	PL_runops(%rip), %rax	# PL_runops, PL_runops.526
	call	*%rax	# PL_runops.526
.L287:
	.loc 1 2382 0
	leave
	.cfi_def_cfa 7, 8
	ret
	.cfi_endproc
.LFE20:
	.size	S_call_body, .-S_call_body
	.section	.rodata
.LC53:
	.string	"eval_sv()"
	.text
	.globl	Perl_eval_sv
	.type	Perl_eval_sv, @function
Perl_eval_sv:
.LFB21:
	.loc 1 2398 0
	.cfi_startproc
	pushq	%rbp	#
	.cfi_def_cfa_offset 16
	.cfi_offset 6, -16
	movq	%rsp, %rbp	#,
	.cfi_def_cfa_register 6
	pushq	%rbx	#
	subq	$328, %rsp	#,
	.cfi_offset 3, -24
	movq	%rdi, -328(%rbp)	# sv, sv
	movl	%esi, -332(%rbp)	# flags, flags
	.loc 1 2399 0
	movq	PL_stack_sp(%rip), %rbx	# PL_stack_sp, sp
	.loc 1 2401 0
	movq	%rbx, %rdx	# sp, sp.527
	movq	PL_stack_base(%rip), %rax	# PL_stack_base, PL_stack_base.528
	subq	%rax, %rdx	# PL_stack_base.529, D.14792
	movq	%rdx, %rax	# D.14792, D.14792
	sarq	$3, %rax	#, tmp140
	movl	%eax, -312(%rbp)	# oldmark.530, oldmark
	.loc 1 2402 0
	movl	$0, -308(%rbp)	#, retval
	.loc 1 2405 0
	movq	PL_op(%rip), %rax	# PL_op, tmp141
	movq	%rax, -296(%rbp)	# tmp141, oldop
	.loc 1 2408 0
	movl	-332(%rbp), %eax	# flags, tmp142
	andl	$2, %eax	#, D.14793
	testl	%eax, %eax	# D.14793
	je	.L292	#,
	.loc 1 2409 0
	call	Perl_push_scope	#
	.loc 1 2410 0
	movl	$PL_tmps_floor, %edi	#,
	call	Perl_save_int	#
	movl	PL_tmps_ix(%rip), %eax	# PL_tmps_ix, PL_tmps_ix.531
	movl	%eax, PL_tmps_floor(%rip)	# PL_tmps_ix.531, PL_tmps_floor
.L292:
	.loc 1 2413 0
	call	Perl_save_op	#
	.loc 1 2414 0
	leaq	-288(%rbp), %rax	#, tmp143
	movq	%rax, PL_op(%rip)	# tmp143, PL_op
	.loc 1 2415 0
	movq	PL_op(%rip), %rax	# PL_op, PL_op.532
	movl	$48, %edx	#,
	movl	$0, %esi	#,
	movq	%rax, %rdi	# PL_op.532,
	call	memset	#
	.loc 1 2416 0
	movq	PL_stack_max(%rip), %rax	# PL_stack_max, PL_stack_max.533
	movq	%rax, %rdx	# PL_stack_max.533, PL_stack_max.534
	movq	PL_stack_sp(%rip), %rax	# PL_stack_sp, PL_stack_sp.535
	subq	%rax, %rdx	# PL_stack_sp.536, D.14792
	movq	%rdx, %rax	# D.14792, D.14792
	cmpq	$7, %rax	#, D.14792
	jg	.L293	#,
	.loc 1 2416 0 is_stmt 0 discriminator 1
	movq	PL_stack_sp(%rip), %rax	# PL_stack_sp, PL_stack_sp.537
	movl	$1, %edx	#,
	movq	%rax, %rsi	# PL_stack_sp.537,
	movq	%rbx, %rdi	# sp,
	call	Perl_stack_grow	#
	movq	%rax, %rbx	#, sp
.L293:
	.loc 1 2417 0 is_stmt 1
	movq	PL_stack_sp(%rip), %rax	# PL_stack_sp, PL_stack_sp.538
	addq	$8, %rax	#, PL_stack_sp.539
	movq	%rax, PL_stack_sp(%rip)	# PL_stack_sp.539, PL_stack_sp
	movq	PL_stack_sp(%rip), %rax	# PL_stack_sp, PL_stack_sp.540
	movq	-328(%rbp), %rdx	# sv, tmp144
	movq	%rdx, (%rax)	# tmp144, *PL_stack_sp.540_24
	.loc 1 2418 0
	movl	PL_scopestack_ix(%rip), %eax	# PL_scopestack_ix, tmp145
	movl	%eax, -304(%rbp)	# tmp145, oldscope
	.loc 1 2420 0
	movl	-332(%rbp), %eax	# flags, tmp146
	andl	$8, %eax	#, D.14793
	testl	%eax, %eax	# D.14793
	jne	.L294	#,
	.loc 1 2421 0
	movb	$64, -252(%rbp)	#, myop.op_flags
.L294:
	.loc 1 2422 0
	movq	$0, -288(%rbp)	#, myop.op_next
	.loc 1 2423 0
	movw	$311, -256(%rbp)	#, myop.op_type
	.loc 1 2424 0
	movzbl	-252(%rbp), %eax	# myop.op_flags, D.14794
	movl	%eax, %edx	# D.14794, D.14795
	movl	-332(%rbp), %eax	# flags, tmp147
	andl	$128, %eax	#, D.14793
	testl	%eax, %eax	# D.14793
	jne	.L295	#,
	.loc 1 2425 0 discriminator 1
	movl	-332(%rbp), %eax	# flags, tmp148
	andl	$1, %eax	#, D.14793
	.loc 1 2424 0 discriminator 1
	testl	%eax, %eax	# D.14793
	je	.L296	#,
	.loc 1 2424 0 is_stmt 0 discriminator 3
	movl	$3, %eax	#, iftmp.542
	jmp	.L298	#
.L296:
	.loc 1 2424 0 discriminator 4
	movl	$2, %eax	#, iftmp.542
	jmp	.L298	#
.L295:
	.loc 1 2424 0 discriminator 2
	movl	$1, %eax	#, iftmp.541
.L298:
	.loc 1 2424 0 discriminator 5
	orl	%edx, %eax	# D.14795, D.14795
	movb	%al, -252(%rbp)	# D.14794, myop.op_flags
	.loc 1 2427 0 is_stmt 1 discriminator 5
	movl	-332(%rbp), %eax	# flags, tmp149
	andl	$16, %eax	#, D.14793
	testl	%eax, %eax	# D.14793
	je	.L299	#,
	.loc 1 2428 0
	movzbl	-252(%rbp), %eax	# myop.op_flags, D.14794
	orl	$-128, %eax	#, D.14794
	movb	%al, -252(%rbp)	# D.14794, myop.op_flags
.L299:
	.loc 1 2437 0
	movzbl	PL_tainting(%rip), %eax	# PL_tainting, PL_tainting.543
	testb	%al, %al	# PL_tainting.543
	je	.L300	#,
	.loc 1 2437 0 is_stmt 0 discriminator 1
	movl	$.LC53, %esi	#,
	movl	$0, %edi	#,
	call	Perl_taint_proper	#
.L300:
.LBB30:
	.loc 1 2439 0 is_stmt 1
	movq	PL_top_env(%rip), %rax	# PL_top_env, PL_top_env.544
	movq	%rax, -40(%rbp)	# PL_top_env.544, cur_env.je_prev
	leaq	-240(%rbp), %rax	#, tmp150
	movl	$0, %esi	#,
	movq	%rax, %rdi	# tmp150,
	call	__sigsetjmp	#
	movl	%eax, -32(%rbp)	# D.14793, cur_env.je_ret
	leaq	-240(%rbp), %rax	#, tmp151
	movq	%rax, PL_top_env(%rip)	# tmp151, PL_top_env
	movb	$0, -28(%rbp)	#, cur_env.je_mustcatch
	movl	-32(%rbp), %eax	# cur_env.je_ret, tmp152
	movl	%eax, -300(%rbp)	# tmp152, ret
.LBE30:
	.loc 1 2441 0
	movl	-300(%rbp), %eax	# ret, ret
	cmpl	$1, %eax	#, ret
	je	.L302	#,
	cmpl	$1, %eax	#, ret
	jg	.L303	#,
	testl	%eax, %eax	# ret
	je	.L304	#,
	jmp	.L301	#
.L303:
	cmpl	$2, %eax	#, ret
	je	.L305	#,
	cmpl	$3, %eax	#, ret
	je	.L306	#,
	jmp	.L301	#
.L304:
	.loc 1 2445 0
	leaq	-288(%rbp), %rax	#, tmp154
	movl	$1, %esi	#,
	movq	%rax, %rdi	# tmp154,
	call	S_call_body	#
	.loc 1 2447 0
	movq	PL_stack_sp(%rip), %rax	# PL_stack_sp, PL_stack_sp.545
	movq	%rax, %rdx	# PL_stack_sp.545, PL_stack_sp.546
	movq	PL_stack_base(%rip), %rax	# PL_stack_base, PL_stack_base.547
	movl	-312(%rbp), %ecx	# oldmark, oldmark.548
	movslq	%ecx, %rcx	# oldmark.548, D.14796
	salq	$3, %rcx	#, D.14796
	addq	%rcx, %rax	# D.14796, D.14797
	subq	%rax, %rdx	# D.14792, D.14792
	movq	%rdx, %rax	# D.14792, D.14792
	sarq	$3, %rax	#, tmp155
	movl	%eax, -308(%rbp)	# retval.549, retval
	.loc 1 2448 0
	movl	-332(%rbp), %eax	# flags, tmp156
	andl	$16, %eax	#, D.14793
	testl	%eax, %eax	# D.14793
	jne	.L307	#,
	.loc 1 2449 0
	movq	PL_errgv(%rip), %rax	# PL_errgv, PL_errgv.550
	movq	(%rax), %rax	# PL_errgv.550_77->sv_any, D.14798
	movq	56(%rax), %rax	# _78->xgv_gp, D.14799
	movq	(%rax), %rax	# _79->gp_sv, D.14800
	movl	$.LC2, %esi	#,
	movq	%rax, %rdi	# D.14800,
	call	Perl_sv_setpv	#
	.loc 1 2450 0
	jmp	.L301	#
.L307:
	jmp	.L301	#
.L302:
	.loc 1 2452 0
	movl	$1, PL_statusvalue(%rip)	#, PL_statusvalue
.L305:
	.loc 1 2456 0
	movq	PL_defstash(%rip), %rax	# PL_defstash, PL_defstash.551
	movq	%rax, PL_curstash(%rip)	# PL_defstash.551, PL_curstash
	.loc 1 2457 0
	movl	PL_tmps_ix(%rip), %edx	# PL_tmps_ix, PL_tmps_ix.552
	movl	PL_tmps_floor(%rip), %eax	# PL_tmps_floor, PL_tmps_floor.553
	cmpl	%eax, %edx	# PL_tmps_floor.553, PL_tmps_ix.552
	jle	.L308	#,
	.loc 1 2457 0 is_stmt 0 discriminator 1
	call	Perl_free_tmps	#
.L308:
	.loc 1 2458 0 is_stmt 1
	movq	-40(%rbp), %rax	# cur_env.je_prev, PL_top_env.554
	movq	%rax, PL_top_env(%rip)	# PL_top_env.554, PL_top_env
	.loc 1 2459 0
	movl	PL_statusvalue(%rip), %eax	# PL_statusvalue, PL_statusvalue.555
	testl	%eax, %eax	# PL_statusvalue.555
	je	.L309	#,
	.loc 1 2459 0 is_stmt 0 discriminator 1
	movzbl	PL_exit_flags(%rip), %eax	# PL_exit_flags, PL_exit_flags.556
	movzbl	%al, %eax	# PL_exit_flags.556, D.14793
	andl	$1, %eax	#, D.14793
	testl	%eax, %eax	# D.14793
	jne	.L309	#,
	.loc 1 2460 0 is_stmt 1
	movl	$.LC52, %edi	#,
	movl	$0, %eax	#,
	call	Perl_croak	#
.L309:
	.loc 1 2461 0
	call	S_my_exit_jump	#
.L306:
	.loc 1 2464 0
	movq	PL_restartop(%rip), %rax	# PL_restartop, PL_restartop.557
	testq	%rax, %rax	# PL_restartop.557
	je	.L310	#,
	.loc 1 2465 0
	movq	PL_restartop(%rip), %rax	# PL_restartop, PL_restartop.558
	movq	%rax, PL_op(%rip)	# PL_restartop.558, PL_op
	.loc 1 2466 0
	movq	$0, PL_restartop(%rip)	#, PL_restartop
	.loc 1 2467 0
	jmp	.L304	#
.L310:
	.loc 1 2469 0
	movq	PL_stack_base(%rip), %rax	# PL_stack_base, PL_stack_base.559
	movl	-312(%rbp), %edx	# oldmark, oldmark.560
	movslq	%edx, %rdx	# oldmark.560, D.14796
	salq	$3, %rdx	#, D.14796
	addq	%rdx, %rax	# D.14796, PL_stack_sp.561
	movq	%rax, PL_stack_sp(%rip)	# PL_stack_sp.561, PL_stack_sp
	.loc 1 2470 0
	movl	-332(%rbp), %eax	# flags, tmp157
	andl	$1, %eax	#, D.14793
	testl	%eax, %eax	# D.14793
	je	.L311	#,
	.loc 1 2471 0
	movl	$0, -308(%rbp)	#, retval
	.loc 1 2476 0
	jmp	.L316	#
.L311:
	.loc 1 2473 0
	movl	$1, -308(%rbp)	#, retval
	.loc 1 2474 0
	movq	PL_stack_sp(%rip), %rax	# PL_stack_sp, PL_stack_sp.562
	addq	$8, %rax	#, PL_stack_sp.563
	movq	%rax, PL_stack_sp(%rip)	# PL_stack_sp.563, PL_stack_sp
	movq	PL_stack_sp(%rip), %rax	# PL_stack_sp, PL_stack_sp.564
	movq	$PL_sv_undef, (%rax)	#, *PL_stack_sp.564_64
.L316:
	.loc 1 2476 0
	nop
.L301:
	.loc 1 2479 0
	movq	-40(%rbp), %rax	# cur_env.je_prev, PL_top_env.565
	movq	%rax, PL_top_env(%rip)	# PL_top_env.565, PL_top_env
	.loc 1 2480 0
	movl	-332(%rbp), %eax	# flags, tmp158
	andl	$2, %eax	#, D.14793
	testl	%eax, %eax	# D.14793
	je	.L313	#,
	.loc 1 2481 0
	movq	PL_stack_base(%rip), %rax	# PL_stack_base, PL_stack_base.566
	movl	-312(%rbp), %edx	# oldmark, oldmark.567
	movslq	%edx, %rdx	# oldmark.567, D.14796
	salq	$3, %rdx	#, D.14796
	addq	%rdx, %rax	# D.14796, PL_stack_sp.568
	movq	%rax, PL_stack_sp(%rip)	# PL_stack_sp.568, PL_stack_sp
	.loc 1 2482 0
	movl	$0, -308(%rbp)	#, retval
	.loc 1 2483 0
	movl	PL_tmps_ix(%rip), %edx	# PL_tmps_ix, PL_tmps_ix.569
	movl	PL_tmps_floor(%rip), %eax	# PL_tmps_floor, PL_tmps_floor.570
	cmpl	%eax, %edx	# PL_tmps_floor.570, PL_tmps_ix.569
	jle	.L314	#,
	.loc 1 2483 0 is_stmt 0 discriminator 1
	call	Perl_free_tmps	#
.L314:
	.loc 1 2484 0 is_stmt 1
	call	Perl_pop_scope	#
.L313:
	.loc 1 2486 0
	movq	-296(%rbp), %rax	# oldop, tmp159
	movq	%rax, PL_op(%rip)	# tmp159, PL_op
	.loc 1 2487 0
	movl	-308(%rbp), %eax	# retval, D.14801
	.loc 1 2488 0
	addq	$328, %rsp	#,
	popq	%rbx	#
	popq	%rbp	#
	.cfi_def_cfa 7, 8
	ret
	.cfi_endproc
.LFE21:
	.size	Perl_eval_sv, .-Perl_eval_sv
	.globl	Perl_eval_pv
	.type	Perl_eval_pv, @function
Perl_eval_pv:
.LFB22:
	.loc 1 2500 0
	.cfi_startproc
	pushq	%rbp	#
	.cfi_def_cfa_offset 16
	.cfi_offset 6, -16
	movq	%rsp, %rbp	#,
	.cfi_def_cfa_register 6
	pushq	%rbx	#
	subq	$40, %rsp	#,
	.cfi_offset 3, -24
	movq	%rdi, -40(%rbp)	# p, p
	movl	%esi, -44(%rbp)	# croak_on_error, croak_on_error
	.loc 1 2501 0
	movq	PL_stack_sp(%rip), %rbx	# PL_stack_sp, sp
	.loc 1 2502 0
	movq	-40(%rbp), %rax	# p, tmp134
	movl	$0, %esi	#,
	movq	%rax, %rdi	# tmp134,
	call	Perl_newSVpv	#
	movq	%rax, -24(%rbp)	# tmp135, sv
	.loc 1 2504 0
	movq	-24(%rbp), %rax	# sv, tmp136
	movl	$0, %esi	#,
	movq	%rax, %rdi	# tmp136,
	call	Perl_eval_sv	#
	.loc 1 2505 0
	movq	-24(%rbp), %rax	# sv, tmp137
	movq	%rax, %rdi	# tmp137,
	call	Perl_sv_free	#
	.loc 1 2507 0
	movq	PL_stack_sp(%rip), %rbx	# PL_stack_sp, sp
	.loc 1 2508 0
	movq	%rbx, %rax	# sp, sp.571
	leaq	-8(%rax), %rbx	#, sp
	movq	(%rax), %rax	# *sp.571_11, tmp138
	movq	%rax, -24(%rbp)	# tmp138, sv
	.loc 1 2509 0
	movq	%rbx, PL_stack_sp(%rip)	# sp, PL_stack_sp
	.loc 1 2511 0
	cmpl	$0, -44(%rbp)	#, croak_on_error
	je	.L318	#,
	.loc 1 2511 0 is_stmt 0 discriminator 1
	movq	PL_errgv(%rip), %rax	# PL_errgv, PL_errgv.573
	movq	(%rax), %rax	# PL_errgv.573_15->sv_any, D.14804
	movq	56(%rax), %rax	# _16->xgv_gp, D.14805
	movq	(%rax), %rax	# _17->gp_sv, D.14806
	testq	%rax, %rax	# D.14806
	je	.L319	#,
	movq	PL_errgv(%rip), %rax	# PL_errgv, PL_errgv.575
	movq	(%rax), %rax	# PL_errgv.575_19->sv_any, D.14804
	movq	56(%rax), %rax	# _20->xgv_gp, D.14805
	movq	(%rax), %rax	# _21->gp_sv, D.14806
	movl	12(%rax), %eax	# _22->sv_flags, D.14807
	andl	$262144, %eax	#, D.14807
	testl	%eax, %eax	# D.14807
	je	.L320	#,
	.loc 1 2511 0 discriminator 3
	movq	PL_errgv(%rip), %rax	# PL_errgv, PL_errgv.577
	movq	(%rax), %rax	# PL_errgv.577_25->sv_any, D.14804
	movq	56(%rax), %rax	# _26->xgv_gp, D.14805
	movq	(%rax), %rax	# _27->gp_sv, D.14806
	movq	(%rax), %rax	# _28->sv_any, PL_Xpv.578
	movq	%rax, PL_Xpv(%rip)	# PL_Xpv.578, PL_Xpv
	movq	PL_Xpv(%rip), %rax	# PL_Xpv, PL_Xpv.579
	testq	%rax, %rax	# PL_Xpv.579
	je	.L321	#,
	.loc 1 2511 0 discriminator 5
	movq	PL_Xpv(%rip), %rax	# PL_Xpv, PL_Xpv.580
	movq	8(%rax), %rax	# PL_Xpv.580_31->xpv_cur, D.14808
	cmpq	$1, %rax	#, D.14808
	ja	.L322	#,
	.loc 1 2511 0 discriminator 8
	movq	PL_Xpv(%rip), %rax	# PL_Xpv, PL_Xpv.581
	movq	8(%rax), %rax	# PL_Xpv.581_33->xpv_cur, D.14808
	testq	%rax, %rax	# D.14808
	je	.L321	#,
	.loc 1 2511 0 discriminator 1
	movq	PL_Xpv(%rip), %rax	# PL_Xpv, PL_Xpv.582
	movq	(%rax), %rax	# PL_Xpv.582_35->xpv_pv, D.14809
	movzbl	(%rax), %eax	# *_36, D.14810
	cmpb	$48, %al	#, D.14810
	je	.L321	#,
.L322:
	.loc 1 2511 0 discriminator 7
	movl	$1, %eax	#, iftmp.576
	jmp	.L323	#
.L321:
	.loc 1 2511 0 discriminator 6
	movl	$0, %eax	#, iftmp.576
.L323:
	.loc 1 2511 0 discriminator 9
	andl	$1, %eax	#, iftmp.574
	jmp	.L329	#
.L320:
	.loc 1 2511 0 discriminator 4
	movq	PL_errgv(%rip), %rax	# PL_errgv, PL_errgv.584
	movq	(%rax), %rax	# PL_errgv.584_41->sv_any, D.14804
	movq	56(%rax), %rax	# _42->xgv_gp, D.14805
	movq	(%rax), %rax	# _43->gp_sv, D.14806
	movl	12(%rax), %eax	# _44->sv_flags, D.14807
	andl	$65536, %eax	#, D.14807
	testl	%eax, %eax	# D.14807
	je	.L325	#,
	.loc 1 2511 0 discriminator 10
	movq	PL_errgv(%rip), %rax	# PL_errgv, PL_errgv.585
	movq	(%rax), %rax	# PL_errgv.585_47->sv_any, D.14804
	movq	56(%rax), %rax	# _48->xgv_gp, D.14805
	movq	(%rax), %rax	# _49->gp_sv, D.14806
	movq	(%rax), %rax	# _50->sv_any, D.14811
	movq	24(%rax), %rax	# MEM[(struct XPVIV *)_51].xiv_iv, D.14812
	testq	%rax, %rax	# D.14812
	setne	%al	#, iftmp.583
	jmp	.L329	#
.L325:
	.loc 1 2511 0 discriminator 11
	movq	PL_errgv(%rip), %rax	# PL_errgv, PL_errgv.587
	movq	(%rax), %rax	# PL_errgv.587_54->sv_any, D.14804
	movq	56(%rax), %rax	# _55->xgv_gp, D.14805
	movq	(%rax), %rax	# _56->gp_sv, D.14806
	movl	12(%rax), %eax	# _57->sv_flags, D.14807
	andl	$131072, %eax	#, D.14807
	testl	%eax, %eax	# D.14807
	je	.L327	#,
	.loc 1 2511 0 discriminator 12
	movq	PL_errgv(%rip), %rax	# PL_errgv, PL_errgv.588
	movq	(%rax), %rax	# PL_errgv.588_60->sv_any, D.14804
	movq	56(%rax), %rax	# _61->xgv_gp, D.14805
	movq	(%rax), %rax	# _62->gp_sv, D.14806
	movq	(%rax), %rax	# _63->sv_any, D.14811
	movsd	32(%rax), %xmm0	# MEM[(struct XPVNV *)_64].xnv_nv, D.14813
	xorpd	%xmm1, %xmm1	# tmp140
	ucomisd	%xmm1, %xmm0	# tmp140, D.14813
	setp	%dl	#, tmp139
	movl	$1, %eax	#, tmp142
	xorpd	%xmm1, %xmm1	# tmp141
	ucomisd	%xmm1, %xmm0	# tmp141, D.14813
	cmove	%edx, %eax	# tmp139,, iftmp.586
	jmp	.L329	#
.L327:
	.loc 1 2511 0 discriminator 13
	movq	PL_errgv(%rip), %rax	# PL_errgv, PL_errgv.589
	movq	(%rax), %rax	# PL_errgv.589_67->sv_any, D.14804
	movq	56(%rax), %rax	# _68->xgv_gp, D.14805
	movq	(%rax), %rax	# _69->gp_sv, D.14806
	movq	%rax, %rdi	# D.14806,
	call	Perl_sv_2bool	#
	testb	%al, %al	# D.14810
	setne	%al	#, iftmp.586
	jmp	.L329	#
.L319:
	.loc 1 2511 0 discriminator 2
	movl	$0, %eax	#, iftmp.572
.L329:
	.loc 1 2511 0 discriminator 16
	testb	%al, %al	# iftmp.572
	je	.L318	#,
.LBB31:
	.loc 1 2513 0 is_stmt 1
	movq	PL_errgv(%rip), %rax	# PL_errgv, PL_errgv.590
	movq	(%rax), %rax	# PL_errgv.590_77->sv_any, D.14804
	movq	56(%rax), %rax	# _78->xgv_gp, D.14805
	movq	(%rax), %rax	# _79->gp_sv, PL_Sv.591
	movq	%rax, PL_Sv(%rip)	# PL_Sv.591, PL_Sv
	movq	PL_Sv(%rip), %rax	# PL_Sv, PL_Sv.593
	movl	12(%rax), %eax	# PL_Sv.593_81->sv_flags, D.14807
	andl	$262144, %eax	#, D.14807
	testl	%eax, %eax	# D.14807
	je	.L330	#,
	.loc 1 2513 0 is_stmt 0 discriminator 1
	movq	PL_Sv(%rip), %rax	# PL_Sv, PL_Sv.594
	movq	(%rax), %rax	# PL_Sv.594_84->sv_any, D.14811
	movq	8(%rax), %rax	# MEM[(struct XPV *)_85].xpv_cur, n_a.595
	movq	%rax, -32(%rbp)	# n_a.595, n_a
	movq	PL_Sv(%rip), %rax	# PL_Sv, PL_Sv.596
	movq	(%rax), %rax	# PL_Sv.596_87->sv_any, D.14811
	movq	(%rax), %rax	# MEM[(struct XPV *)_88].xpv_pv, iftmp.592
	jmp	.L331	#
.L330:
	.loc 1 2513 0 discriminator 2
	movq	PL_Sv(%rip), %rax	# PL_Sv, PL_Sv.597
	leaq	-32(%rbp), %rcx	#, tmp143
	movl	$2, %edx	#,
	movq	%rcx, %rsi	# tmp143,
	movq	%rax, %rdi	# PL_Sv.597,
	call	Perl_sv_2pv_flags	#
.L331:
	.loc 1 2513 0 discriminator 1
	movq	%rax, %rdi	# iftmp.592,
	movl	$0, %eax	#,
	call	Perl_croak	#
.L318:
.LBE31:
	.loc 1 2516 0 is_stmt 1
	movq	-24(%rbp), %rax	# sv, D.14806
	.loc 1 2517 0
	addq	$40, %rsp	#,
	popq	%rbx	#
	popq	%rbp	#
	.cfi_def_cfa 7, 8
	ret
	.cfi_endproc
.LFE22:
	.size	Perl_eval_pv, .-Perl_eval_pv
	.section	.rodata
.LC55:
	.string	"require '"
.LC56:
	.string	"'"
	.text
	.globl	Perl_require_pv
	.type	Perl_require_pv, @function
Perl_require_pv:
.LFB23:
	.loc 1 2534 0
	.cfi_startproc
	pushq	%rbp	#
	.cfi_def_cfa_offset 16
	.cfi_offset 6, -16
	movq	%rsp, %rbp	#,
	.cfi_def_cfa_register 6
	pushq	%rbx	#
	subq	$56, %rsp	#,
	.cfi_offset 3, -24
	movq	%rdi, -56(%rbp)	# pv, pv
	.loc 1 2536 0
	movq	PL_stack_sp(%rip), %rbx	# PL_stack_sp, sp
.LBB32:
	.loc 1 2537 0
	movq	PL_curstackinfo(%rip), %rax	# PL_curstackinfo, PL_curstackinfo.598
	movq	40(%rax), %rax	# PL_curstackinfo.598_4->si_next, tmp140
	movq	%rax, -40(%rbp)	# tmp140, next
	cmpq	$0, -40(%rbp)	#, next
	jne	.L334	#,
	.loc 1 2537 0 is_stmt 0 discriminator 1
	movl	$13, %esi	#,
	movl	$32, %edi	#,
	call	Perl_new_stackinfo	#
	movq	%rax, -40(%rbp)	# tmp141, next
	movq	PL_curstackinfo(%rip), %rdx	# PL_curstackinfo, PL_curstackinfo.599
	movq	-40(%rbp), %rax	# next, tmp142
	movq	%rdx, 32(%rax)	# PL_curstackinfo.599, next_6->si_prev
	movq	PL_curstackinfo(%rip), %rax	# PL_curstackinfo, PL_curstackinfo.600
	movq	-40(%rbp), %rdx	# next, tmp143
	movq	%rdx, 40(%rax)	# tmp143, PL_curstackinfo.600_8->si_next
.L334:
	.loc 1 2537 0 discriminator 2
	movq	-40(%rbp), %rax	# next, tmp144
	movl	$9, 24(%rax)	#, next_1->si_type
	movq	-40(%rbp), %rax	# next, tmp145
	movl	$-1, 16(%rax)	#, next_1->si_cxix
	movq	-40(%rbp), %rax	# next, tmp146
	movq	(%rax), %rax	# next_1->si_stack, D.14814
	movq	(%rax), %rax	# _9->sv_any, D.14815
	movq	$0, 8(%rax)	#, _10->xav_fill
.LBB33:
	movq	PL_curstack(%rip), %rax	# PL_curstack, PL_curstack.601
	movq	(%rax), %rax	# PL_curstack.601_11->sv_any, D.14815
	movq	%rbx, %rcx	# sp, sp.602
	movq	PL_stack_base(%rip), %rdx	# PL_stack_base, PL_stack_base.603
	subq	%rdx, %rcx	# PL_stack_base.604, D.14816
	movq	%rcx, %rdx	# D.14816, D.14816
	sarq	$3, %rdx	#, tmp147
	movq	%rdx, 8(%rax)	# D.14816, _12->xav_fill
	movq	-40(%rbp), %rax	# next, tmp148
	movq	(%rax), %rax	# next_1->si_stack, D.14814
	movq	(%rax), %rax	# _18->sv_any, D.14815
	movq	(%rax), %rax	# _19->xav_array, PL_stack_base.605
	movq	%rax, PL_stack_base(%rip)	# PL_stack_base.605, PL_stack_base
	movq	PL_stack_base(%rip), %rdx	# PL_stack_base, PL_stack_base.606
	movq	-40(%rbp), %rax	# next, tmp149
	movq	(%rax), %rax	# next_1->si_stack, D.14814
	movq	(%rax), %rax	# _22->sv_any, D.14815
	movq	16(%rax), %rax	# _23->xav_max, D.14816
	salq	$3, %rax	#, D.14817
	addq	%rdx, %rax	# PL_stack_base.606, PL_stack_max.607
	movq	%rax, PL_stack_max(%rip)	# PL_stack_max.607, PL_stack_max
	movq	PL_stack_base(%rip), %rdx	# PL_stack_base, PL_stack_base.608
	movq	-40(%rbp), %rax	# next, tmp150
	movq	(%rax), %rax	# next_1->si_stack, D.14814
	movq	(%rax), %rax	# _29->sv_any, D.14815
	movq	8(%rax), %rax	# _30->xav_fill, D.14816
	salq	$3, %rax	#, D.14817
	addq	%rdx, %rax	# PL_stack_base.608, PL_stack_sp.609
	movq	%rax, PL_stack_sp(%rip)	# PL_stack_sp.609, PL_stack_sp
	movq	PL_stack_sp(%rip), %rbx	# PL_stack_sp, sp
	movq	-40(%rbp), %rax	# next, tmp151
	movq	(%rax), %rax	# next_1->si_stack, PL_curstack.610
	movq	%rax, PL_curstack(%rip)	# PL_curstack.610, PL_curstack
.LBE33:
	movq	-40(%rbp), %rax	# next, tmp152
	movq	%rax, PL_curstackinfo(%rip)	# tmp152, PL_curstackinfo
.LBE32:
	.loc 1 2538 0 is_stmt 1 discriminator 2
	movq	%rbx, PL_stack_sp(%rip)	# sp, PL_stack_sp
	.loc 1 2539 0 discriminator 2
	call	Perl_sv_newmortal	#
	movq	%rax, -32(%rbp)	# tmp153, sv
	.loc 1 2540 0 discriminator 2
	movq	-32(%rbp), %rax	# sv, tmp154
	movl	$.LC55, %esi	#,
	movq	%rax, %rdi	# tmp154,
	call	Perl_sv_setpv	#
	.loc 1 2541 0 discriminator 2
	movq	-56(%rbp), %rdx	# pv, tmp155
	movq	-32(%rbp), %rax	# sv, tmp156
	movq	%rdx, %rsi	# tmp155,
	movq	%rax, %rdi	# tmp156,
	call	Perl_sv_catpv	#
	.loc 1 2542 0 discriminator 2
	movq	-32(%rbp), %rax	# sv, tmp157
	movl	$.LC56, %esi	#,
	movq	%rax, %rdi	# tmp157,
	call	Perl_sv_catpv	#
	.loc 1 2543 0 discriminator 2
	movq	-32(%rbp), %rax	# sv, tmp158
	movl	$2, %esi	#,
	movq	%rax, %rdi	# tmp158,
	call	Perl_eval_sv	#
	.loc 1 2544 0 discriminator 2
	movq	PL_stack_sp(%rip), %rbx	# PL_stack_sp, sp
.LBB34:
	.loc 1 2545 0 discriminator 2
	movq	PL_stack_sp(%rip), %rbx	# PL_stack_sp, sp
	movq	PL_curstackinfo(%rip), %rax	# PL_curstackinfo, PL_curstackinfo.611
	movq	32(%rax), %rax	# PL_curstackinfo.611_42->si_prev, tmp159
	movq	%rax, -24(%rbp)	# tmp159, prev
	cmpq	$0, -24(%rbp)	#, prev
	jne	.L335	#,
	.loc 1 2545 0 is_stmt 0 discriminator 1
	movq	PL_stderrgv(%rip), %rax	# PL_stderrgv, PL_stderrgv.613
	testq	%rax, %rax	# PL_stderrgv.613
	je	.L336	#,
	movq	PL_stderrgv(%rip), %rax	# PL_stderrgv, PL_stderrgv.614
	movl	12(%rax), %eax	# PL_stderrgv.614_45->sv_flags, D.14818
	movzbl	%al, %eax	# D.14818, D.14818
	cmpl	$13, %eax	#, D.14818
	jne	.L336	#,
	movq	PL_stderrgv(%rip), %rax	# PL_stderrgv, PL_stderrgv.615
	movq	(%rax), %rax	# PL_stderrgv.615_48->sv_any, D.14819
	movq	56(%rax), %rax	# _49->xgv_gp, D.14820
	movq	16(%rax), %rax	# _50->gp_io, D.14821
	testq	%rax, %rax	# D.14821
	je	.L336	#,
	movq	PL_stderrgv(%rip), %rax	# PL_stderrgv, PL_stderrgv.616
	movq	(%rax), %rax	# PL_stderrgv.616_52->sv_any, D.14819
	movq	56(%rax), %rax	# _53->xgv_gp, D.14820
	movq	16(%rax), %rax	# _54->gp_io, D.14821
	movq	(%rax), %rax	# _55->sv_any, D.14822
	movq	64(%rax), %rax	# _56->xio_ofp, D.14823
	testq	%rax, %rax	# D.14823
	je	.L336	#,
	movq	PL_stderrgv(%rip), %rax	# PL_stderrgv, PL_stderrgv.617
	movq	(%rax), %rax	# PL_stderrgv.617_58->sv_any, D.14819
	movq	56(%rax), %rax	# _59->xgv_gp, D.14820
	movq	16(%rax), %rax	# _60->gp_io, D.14821
	movq	(%rax), %rax	# _61->sv_any, D.14822
	movq	64(%rax), %rax	# _62->xio_ofp, iftmp.612
	jmp	.L337	#
.L336:
	.loc 1 2545 0 discriminator 2
	call	Perl_PerlIO_stderr	#
.L337:
	.loc 1 2545 0 discriminator 3
	movl	$.LC49, %esi	#,
	movq	%rax, %rdi	# iftmp.612,
	movl	$0, %eax	#,
	call	PerlIO_printf	#
	movl	$1, %edi	#,
	call	Perl_my_exit	#
.L335:
.LBB35:
	.loc 1 2545 0 discriminator 2
	movq	PL_curstack(%rip), %rax	# PL_curstack, PL_curstack.618
	movq	(%rax), %rax	# PL_curstack.618_65->sv_any, D.14815
	movq	%rbx, %rcx	# sp, sp.619
	movq	PL_stack_base(%rip), %rdx	# PL_stack_base, PL_stack_base.620
	subq	%rdx, %rcx	# PL_stack_base.621, D.14816
	movq	%rcx, %rdx	# D.14816, D.14816
	sarq	$3, %rdx	#, tmp160
	movq	%rdx, 8(%rax)	# D.14816, _66->xav_fill
	movq	-24(%rbp), %rax	# prev, tmp161
	movq	(%rax), %rax	# prev_43->si_stack, D.14814
	movq	(%rax), %rax	# _72->sv_any, D.14815
	movq	(%rax), %rax	# _73->xav_array, PL_stack_base.622
	movq	%rax, PL_stack_base(%rip)	# PL_stack_base.622, PL_stack_base
	movq	PL_stack_base(%rip), %rdx	# PL_stack_base, PL_stack_base.623
	movq	-24(%rbp), %rax	# prev, tmp162
	movq	(%rax), %rax	# prev_43->si_stack, D.14814
	movq	(%rax), %rax	# _76->sv_any, D.14815
	movq	16(%rax), %rax	# _77->xav_max, D.14816
	salq	$3, %rax	#, D.14817
	addq	%rdx, %rax	# PL_stack_base.623, PL_stack_max.624
	movq	%rax, PL_stack_max(%rip)	# PL_stack_max.624, PL_stack_max
	movq	PL_stack_base(%rip), %rdx	# PL_stack_base, PL_stack_base.625
	movq	-24(%rbp), %rax	# prev, tmp163
	movq	(%rax), %rax	# prev_43->si_stack, D.14814
	movq	(%rax), %rax	# _83->sv_any, D.14815
	movq	8(%rax), %rax	# _84->xav_fill, D.14816
	salq	$3, %rax	#, D.14817
	addq	%rdx, %rax	# PL_stack_base.625, PL_stack_sp.626
	movq	%rax, PL_stack_sp(%rip)	# PL_stack_sp.626, PL_stack_sp
	movq	PL_stack_sp(%rip), %rbx	# PL_stack_sp, sp
	movq	-24(%rbp), %rax	# prev, tmp164
	movq	(%rax), %rax	# prev_43->si_stack, PL_curstack.627
	movq	%rax, PL_curstack(%rip)	# PL_curstack.627, PL_curstack
.LBE35:
	movq	-24(%rbp), %rax	# prev, tmp165
	movq	%rax, PL_curstackinfo(%rip)	# tmp165, PL_curstackinfo
.LBE34:
	.loc 1 2546 0 is_stmt 1 discriminator 2
	addq	$56, %rsp	#,
	popq	%rbx	#
	popq	%rbp	#
	.cfi_def_cfa 7, 8
	ret
	.cfi_endproc
.LFE23:
	.size	Perl_require_pv, .-Perl_require_pv
	.globl	Perl_magicname
	.type	Perl_magicname, @function
Perl_magicname:
.LFB24:
	.loc 1 2550 0
	.cfi_startproc
	pushq	%rbp	#
	.cfi_def_cfa_offset 16
	.cfi_offset 6, -16
	movq	%rsp, %rbp	#,
	.cfi_def_cfa_register 6
	pushq	%rbx	#
	subq	$40, %rsp	#,
	.cfi_offset 3, -24
	movq	%rdi, -24(%rbp)	# sym, sym
	movq	%rsi, -32(%rbp)	# name, name
	movl	%edx, -36(%rbp)	# namlen, namlen
	.loc 1 2553 0
	movq	-24(%rbp), %rax	# sym, tmp63
	movl	$4, %edx	#,
	movl	$1, %esi	#,
	movq	%rax, %rdi	# tmp63,
	call	Perl_gv_fetchpv	#
	movq	%rax, %rbx	#, gv
	testq	%rbx, %rbx	# gv
	je	.L338	#,
	.loc 1 2554 0
	movq	(%rbx), %rax	# gv_2->sv_any, D.14827
	movq	56(%rax), %rax	# _3->xgv_gp, D.14828
	movq	(%rax), %rax	# _4->gp_sv, D.14829
	movl	-36(%rbp), %ecx	# namlen, tmp64
	movq	-32(%rbp), %rdx	# name, tmp65
	movl	%ecx, %r8d	# tmp64,
	movq	%rdx, %rcx	# tmp65,
	movl	$0, %edx	#,
	movq	%rbx, %rsi	# gv,
	movq	%rax, %rdi	# D.14829,
	call	Perl_sv_magic	#
.L338:
	.loc 1 2555 0
	addq	$40, %rsp	#,
	popq	%rbx	#
	popq	%rbp	#
	.cfi_def_cfa 7, 8
	ret
	.cfi_endproc
.LFE24:
	.size	Perl_magicname, .-Perl_magicname
	.section	.rodata
	.align 8
.LC57:
	.string	"\nUsage: %s [switches] [--] [programfile] [arguments]"
.LC58:
	.string	"\n  %s"
	.text
	.type	S_usage, @function
S_usage:
.LFB25:
	.loc 1 2559 0
	.cfi_startproc
	pushq	%rbp	#
	.cfi_def_cfa_offset 16
	.cfi_offset 6, -16
	movq	%rsp, %rbp	#,
	.cfi_def_cfa_register 6
	pushq	%rbx	#
	subq	$40, %rsp	#,
	.cfi_offset 3, -24
	movq	%rdi, -40(%rbp)	# name, name
	.loc 1 2597 0
	movq	$usage_msg.10653, -24(%rbp)	#, p
	.loc 1 2599 0
	call	Perl_PerlIO_stdout	#
	movq	-40(%rbp), %rdx	# name, tmp64
	movl	$.LC57, %esi	#,
	movq	%rax, %rdi	# D.14830,
	movl	$0, %eax	#,
	call	PerlIO_printf	#
	.loc 1 2602 0
	jmp	.L341	#
.L342:
	.loc 1 2603 0
	movq	-24(%rbp), %rax	# p, p.628
	leaq	8(%rax), %rdx	#, tmp65
	movq	%rdx, -24(%rbp)	# tmp65, p
	movq	(%rax), %rbx	# *p.628_6, D.14831
	call	Perl_PerlIO_stdout	#
	movq	%rbx, %rdx	# D.14831,
	movl	$.LC58, %esi	#,
	movq	%rax, %rdi	# D.14830,
	movl	$0, %eax	#,
	call	PerlIO_printf	#
.L341:
	.loc 1 2602 0 discriminator 1
	movq	-24(%rbp), %rax	# p, tmp66
	movq	(%rax), %rax	# *p_1, D.14831
	testq	%rax, %rax	# D.14831
	jne	.L342	#,
	.loc 1 2604 0
	addq	$40, %rsp	#,
	popq	%rbx	#
	popq	%rbp	#
	.cfi_def_cfa 7, 8
	ret
	.cfi_endproc
.LFE25:
	.size	S_usage, .-S_usage
	.section	.rodata
.LC59:
	.string	"/"
.LC60:
	.string	"-d"
.LC61:
	.string	"1"
.LC62:
	.string	"PERL5DB_THREADED"
.LC63:
	.string	"use Devel::"
.LC64:
	.string	" split(/,/,q{"
.LC65:
	.string	"})"
.LC66:
	.string	"PERL5DB"
	.align 8
.LC67:
	.string	"Recompile perl with -DDEBUGGING to use -D switch (did you mean -d ?)\n"
.LC68:
	.string	"\n\n"
.LC69:
	.string	"-M"
.LC70:
	.string	"-m"
.LC71:
	.string	"use "
.LC72:
	.string	"no "
.LC73:
	.string	"Can't use '%c' after -mname"
.LC74:
	.string	" ()"
	.align 8
.LC75:
	.string	"Module name required with -%c option"
.LC76:
	.string	" split(/,/,q"
.LC77:
	.string	""
	.string	")"
.LC78:
	.string	"Missing argument to -%c"
.LC79:
	.string	"-s"
	.align 8
.LC80:
	.string	"\"-%c\" is on the #! line, it must also be used on the command line%s"
.LC81:
	.string	"spec-cpu"
	.align 8
.LC82:
	.string	"\nThis is perl, v%vd built for %s"
	.align 8
.LC83:
	.string	"\n\nCopyright 1987-2005, Larry Wall\n"
	.align 8
.LC84:
	.ascii	"\nPerl may be copied only under the terms of either the Arti"
	.ascii	"stic License or the\nGNU General Public License, which may b"
	.ascii	"e "
	.string	"found in the Perl 5 source kit.\n\nComplete documentation for Perl, including FAQ lists, should be found on\nthis system using `man perl' or `perldoc perl'.  If you have access to the\nInternet, point your browser at http://www.perl.org/, the Perl Home Page.\n\n"
	.align 8
.LC85:
	.string	"Can't emulate -%.1s on #! line"
	.text
	.globl	Perl_moreswitches
	.type	Perl_moreswitches, @function
Perl_moreswitches:
.LFB26:
	.loc 1 2682 0
	.cfi_startproc
	pushq	%rbp	#
	.cfi_def_cfa_offset 16
	.cfi_offset 6, -16
	movq	%rsp, %rbp	#,
	.cfi_def_cfa_register 6
	pushq	%rbx	#
	subq	$120, %rsp	#,
	.cfi_offset 3, -24
	movq	%rdi, -120(%rbp)	# s, s
	.loc 1 2686 0
	movq	-120(%rbp), %rax	# s, s.629
	movzbl	(%rax), %eax	# *s.629_31, D.14835
	movsbl	%al, %eax	# D.14835, D.14836
	cmpl	$119, %eax	#, D.14836
	ja	.L344	#,
	movl	%eax, %eax	# D.14836, tmp476
	movq	.L346(,%rax,8), %rax	#, tmp477
	jmp	*%rax	# tmp477
	.section	.rodata
	.align 8
	.align 4
.L346:
	.quad	.L497
	.quad	.L344
	.quad	.L344
	.quad	.L344
	.quad	.L344
	.quad	.L344
	.quad	.L344
	.quad	.L344
	.quad	.L344
	.quad	.L497
	.quad	.L497
	.quad	.L344
	.quad	.L344
	.quad	.L497
	.quad	.L344
	.quad	.L344
	.quad	.L344
	.quad	.L344
	.quad	.L344
	.quad	.L344
	.quad	.L344
	.quad	.L344
	.quad	.L344
	.quad	.L344
	.quad	.L344
	.quad	.L344
	.quad	.L344
	.quad	.L344
	.quad	.L344
	.quad	.L344
	.quad	.L344
	.quad	.L344
	.quad	.L347
	.quad	.L344
	.quad	.L344
	.quad	.L344
	.quad	.L344
	.quad	.L344
	.quad	.L344
	.quad	.L344
	.quad	.L344
	.quad	.L344
	.quad	.L347
	.quad	.L344
	.quad	.L344
	.quad	.L497
	.quad	.L344
	.quad	.L344
	.quad	.L348
	.quad	.L344
	.quad	.L344
	.quad	.L344
	.quad	.L344
	.quad	.L344
	.quad	.L344
	.quad	.L344
	.quad	.L344
	.quad	.L344
	.quad	.L344
	.quad	.L344
	.quad	.L344
	.quad	.L344
	.quad	.L344
	.quad	.L344
	.quad	.L344
	.quad	.L344
	.quad	.L344
	.quad	.L349
	.quad	.L350
	.quad	.L344
	.quad	.L351
	.quad	.L344
	.quad	.L344
	.quad	.L352
	.quad	.L344
	.quad	.L344
	.quad	.L344
	.quad	.L353
	.quad	.L344
	.quad	.L344
	.quad	.L354
	.quad	.L344
	.quad	.L344
	.quad	.L344
	.quad	.L355
	.quad	.L356
	.quad	.L344
	.quad	.L357
	.quad	.L358
	.quad	.L344
	.quad	.L344
	.quad	.L344
	.quad	.L344
	.quad	.L344
	.quad	.L344
	.quad	.L344
	.quad	.L344
	.quad	.L359
	.quad	.L344
	.quad	.L360
	.quad	.L361
	.quad	.L344
	.quad	.L344
	.quad	.L344
	.quad	.L362
	.quad	.L363
	.quad	.L344
	.quad	.L344
	.quad	.L364
	.quad	.L365
	.quad	.L366
	.quad	.L344
	.quad	.L367
	.quad	.L344
	.quad	.L344
	.quad	.L368
	.quad	.L369
	.quad	.L370
	.quad	.L371
	.quad	.L372
	.text
.L348:
.LBB36:
	.loc 1 2689 0
	movl	$0, -108(%rbp)	#, flags
	.loc 1 2691 0
	movq	PL_rs(%rip), %rax	# PL_rs, PL_rs.630
	movq	%rax, %rdi	# PL_rs.630,
	call	Perl_sv_free	#
	.loc 1 2692 0
	movq	-120(%rbp), %rax	# s, s.631
	addq	$1, %rax	#, D.14834
	movzbl	(%rax), %eax	# *_36, D.14835
	cmpb	$120, %al	#, D.14835
	jne	.L373	#,
	.loc 1 2692 0 is_stmt 0 discriminator 1
	movq	-120(%rbp), %rax	# s, s.632
	addq	$2, %rax	#, D.14834
	movzbl	(%rax), %eax	# *_39, D.14835
	testb	%al, %al	# D.14835
	je	.L373	#,
.LBB37:
	.loc 1 2696 0 is_stmt 1
	movq	-120(%rbp), %rax	# s, s.633
	addq	$2, %rax	#, s.634
	movq	%rax, -120(%rbp)	# s.634, s
	movq	-120(%rbp), %rax	# s, tmp478
	movq	%rax, -88(%rbp)	# tmp478, e
	jmp	.L374	#
.L375:
	.loc 1 2696 0 is_stmt 0 discriminator 2
	addq	$1, -88(%rbp)	#, e
.L374:
	.loc 1 2696 0 discriminator 1
	movq	-88(%rbp), %rax	# e, tmp479
	movzbl	(%rax), %eax	# *e_2, D.14835
	testb	%al, %al	# D.14835
	jne	.L375	#,
	.loc 1 2697 0 is_stmt 1
	movq	-88(%rbp), %rdx	# e, e.635
	movq	-120(%rbp), %rax	# s, s.636
	subq	%rax, %rdx	# s.637, D.14837
	movq	%rdx, %rax	# D.14837, D.14837
	movq	%rax, -104(%rbp)	# numlen.638, numlen
	.loc 1 2698 0
	movl	$4, -108(%rbp)	#, flags
	.loc 1 2699 0
	movq	-120(%rbp), %rax	# s, s.639
	leaq	-108(%rbp), %rdx	#, tmp480
	leaq	-104(%rbp), %rsi	#, tmp481
	movl	$0, %ecx	#,
	movq	%rax, %rdi	# s.639,
	call	Perl_grok_hex	#
	movl	%eax, %eax	# D.14839, tmp545
	movq	%rax, -96(%rbp)	# tmp545, rschar
	.loc 1 2700 0
	movq	-120(%rbp), %rdx	# s, s.640
	movq	-104(%rbp), %rax	# numlen, numlen.641
	addq	%rdx, %rax	# s.640, D.14834
	cmpq	-88(%rbp), %rax	# e, D.14834
	jae	.L376	#,
	.loc 1 2701 0
	movq	$0, -96(%rbp)	#, rschar
	.loc 1 2702 0
	movq	$0, -104(%rbp)	#, numlen
	.loc 1 2703 0
	movq	-120(%rbp), %rax	# s, s.642
	subq	$1, %rax	#, s.643
	movq	%rax, -120(%rbp)	# s.643, s
.L376:
	.loc 1 2705 0
	movl	$0, %esi	#,
	movl	$.LC2, %edi	#,
	call	Perl_newSVpvn	#
	movq	%rax, PL_rs(%rip)	# PL_rs.644, PL_rs
	.loc 1 2706 0
	movq	PL_rs(%rip), %rax	# PL_rs, PL_rs.646
	movq	(%rax), %rax	# PL_rs.646_62->sv_any, D.14840
	movq	16(%rax), %rdx	# MEM[(struct XPV *)_63].xpv_len, D.14838
	cmpq	$127, -96(%rbp)	#, rschar
	jbe	.L377	#,
	.loc 1 2706 0 is_stmt 0 discriminator 1
	cmpq	$2047, -96(%rbp)	#, rschar
	jbe	.L378	#,
	.loc 1 2706 0 discriminator 3
	cmpq	$65535, -96(%rbp)	#, rschar
	jbe	.L379	#,
	.loc 1 2706 0 discriminator 5
	cmpq	$2097151, -96(%rbp)	#, rschar
	jbe	.L380	#,
	.loc 1 2706 0 discriminator 7
	cmpq	$67108863, -96(%rbp)	#, rschar
	jbe	.L381	#,
	.loc 1 2706 0 discriminator 9
	cmpq	$2147483647, -96(%rbp)	#, rschar
	jbe	.L382	#,
	.loc 1 2706 0 discriminator 11
	movabsq	$68719476735, %rax	#, tmp482
	cmpq	%rax, -96(%rbp)	# tmp482, rschar
	ja	.L383	#,
	.loc 1 2706 0 discriminator 13
	movl	$8, %eax	#, iftmp.653
	jmp	.L390	#
.L383:
	.loc 1 2706 0 discriminator 14
	movl	$14, %eax	#, iftmp.653
	jmp	.L390	#
.L382:
	.loc 1 2706 0 discriminator 12
	movl	$7, %eax	#, iftmp.652
	jmp	.L390	#
.L381:
	.loc 1 2706 0 discriminator 10
	movl	$6, %eax	#, iftmp.651
	jmp	.L390	#
.L380:
	.loc 1 2706 0 discriminator 8
	movl	$5, %eax	#, iftmp.650
	jmp	.L390	#
.L379:
	.loc 1 2706 0 discriminator 6
	movl	$4, %eax	#, iftmp.649
	jmp	.L390	#
.L378:
	.loc 1 2706 0 discriminator 4
	movl	$3, %eax	#, iftmp.648
	jmp	.L390	#
.L377:
	.loc 1 2706 0 discriminator 2
	movl	$2, %eax	#, iftmp.647
.L390:
	.loc 1 2706 0 discriminator 15
	cmpq	%rax, %rdx	# iftmp.647, D.14838
	jae	.L406	#,
	.loc 1 2706 0 discriminator 1
	cmpq	$127, -96(%rbp)	#, rschar
	jbe	.L392	#,
	cmpq	$2047, -96(%rbp)	#, rschar
	jbe	.L393	#,
	cmpq	$65535, -96(%rbp)	#, rschar
	jbe	.L394	#,
	.loc 1 2706 0 discriminator 3
	cmpq	$2097151, -96(%rbp)	#, rschar
	jbe	.L395	#,
	.loc 1 2706 0 discriminator 5
	cmpq	$67108863, -96(%rbp)	#, rschar
	jbe	.L396	#,
	.loc 1 2706 0 discriminator 7
	cmpq	$2147483647, -96(%rbp)	#, rschar
	jbe	.L397	#,
	.loc 1 2706 0 discriminator 9
	movabsq	$68719476735, %rax	#, tmp483
	cmpq	%rax, -96(%rbp)	# tmp483, rschar
	ja	.L398	#,
	.loc 1 2706 0 discriminator 11
	movl	$8, %eax	#, iftmp.660
	jmp	.L405	#
.L398:
	.loc 1 2706 0 discriminator 12
	movl	$14, %eax	#, iftmp.660
	jmp	.L405	#
.L397:
	.loc 1 2706 0 discriminator 10
	movl	$7, %eax	#, iftmp.659
	jmp	.L405	#
.L396:
	.loc 1 2706 0 discriminator 8
	movl	$6, %eax	#, iftmp.658
	jmp	.L405	#
.L395:
	.loc 1 2706 0 discriminator 6
	movl	$5, %eax	#, iftmp.657
	jmp	.L405	#
.L394:
	.loc 1 2706 0 discriminator 4
	movl	$4, %eax	#, iftmp.656
	jmp	.L405	#
.L393:
	.loc 1 2706 0 discriminator 2
	movl	$3, %eax	#, iftmp.655
	jmp	.L405	#
.L392:
	movl	$2, %eax	#, iftmp.654
.L405:
	.loc 1 2706 0 discriminator 13
	movq	PL_rs(%rip), %rdx	# PL_rs, PL_rs.661
	movq	%rax, %rsi	# iftmp.654,
	movq	%rdx, %rdi	# PL_rs.661,
	call	Perl_sv_grow	#
.L406:
	.loc 1 2707 0 is_stmt 1
	movq	PL_rs(%rip), %rax	# PL_rs, PL_rs.663
	movq	(%rax), %rax	# PL_rs.663_98->sv_any, D.14840
	movq	(%rax), %rax	# MEM[(struct XPV *)_99].xpv_pv, tmp484
	movq	%rax, -56(%rbp)	# tmp484, tmps
	.loc 1 2708 0
	movq	-96(%rbp), %rdx	# rschar, tmp485
	movq	-56(%rbp), %rax	# tmps, tmp486
	movq	%rdx, %rsi	# tmp485,
	movq	%rax, %rdi	# tmp486,
	call	Perl_uvuni_to_utf8	#
	.loc 1 2709 0
	movq	PL_rs(%rip), %rax	# PL_rs, PL_rs.664
	movq	(%rax), %rdx	# PL_rs.664_101->sv_any, D.14840
	cmpq	$127, -96(%rbp)	#, rschar
	jbe	.L407	#,
	.loc 1 2709 0 is_stmt 0 discriminator 1
	cmpq	$2047, -96(%rbp)	#, rschar
	jbe	.L408	#,
	.loc 1 2709 0 discriminator 3
	cmpq	$65535, -96(%rbp)	#, rschar
	jbe	.L409	#,
	.loc 1 2709 0 discriminator 5
	cmpq	$2097151, -96(%rbp)	#, rschar
	jbe	.L410	#,
	.loc 1 2709 0 discriminator 7
	cmpq	$67108863, -96(%rbp)	#, rschar
	jbe	.L411	#,
	.loc 1 2709 0 discriminator 9
	cmpq	$2147483647, -96(%rbp)	#, rschar
	jbe	.L412	#,
	.loc 1 2709 0 discriminator 11
	movabsq	$68719476735, %rax	#, tmp487
	cmpq	%rax, -96(%rbp)	# tmp487, rschar
	ja	.L413	#,
	.loc 1 2709 0 discriminator 13
	movl	$7, %eax	#, iftmp.671
	jmp	.L420	#
.L413:
	.loc 1 2709 0 discriminator 14
	movl	$13, %eax	#, iftmp.671
	jmp	.L420	#
.L412:
	.loc 1 2709 0 discriminator 12
	movl	$6, %eax	#, iftmp.670
	jmp	.L420	#
.L411:
	.loc 1 2709 0 discriminator 10
	movl	$5, %eax	#, iftmp.669
	jmp	.L420	#
.L410:
	.loc 1 2709 0 discriminator 8
	movl	$4, %eax	#, iftmp.668
	jmp	.L420	#
.L409:
	.loc 1 2709 0 discriminator 6
	movl	$3, %eax	#, iftmp.667
	jmp	.L420	#
.L408:
	.loc 1 2709 0 discriminator 4
	movl	$2, %eax	#, iftmp.666
	jmp	.L420	#
.L407:
	.loc 1 2709 0 discriminator 2
	movl	$1, %eax	#, iftmp.665
.L420:
	.loc 1 2709 0 discriminator 15
	movq	%rax, 8(%rdx)	# iftmp.665, MEM[(struct XPV *)_102].xpv_cur
	.loc 1 2710 0 is_stmt 1 discriminator 15
	movq	PL_rs(%rip), %rax	# PL_rs, PL_rs.672
	movq	PL_rs(%rip), %rdx	# PL_rs, PL_rs.673
	movl	12(%rdx), %edx	# PL_rs.673_118->sv_flags, D.14839
	orl	$536870912, %edx	#, D.14839
	movl	%edx, 12(%rax)	# D.14839, PL_rs.672_117->sv_flags
.LBE37:
	.loc 1 2692 0 discriminator 15
	jmp	.L421	#
.L373:
	.loc 1 2713 0
	movq	$4, -104(%rbp)	#, numlen
	.loc 1 2714 0
	movq	-120(%rbp), %rax	# s, s.674
	leaq	-108(%rbp), %rdx	#, tmp488
	leaq	-104(%rbp), %rsi	#, tmp489
	movl	$0, %ecx	#,
	movq	%rax, %rdi	# s.674,
	call	Perl_grok_oct	#
	movl	%eax, %eax	# D.14839, tmp546
	movq	%rax, -96(%rbp)	# tmp546, rschar
	.loc 1 2715 0
	movq	-96(%rbp), %rax	# rschar, tmp490
	movb	$0, %al	#, D.14838
	testq	%rax, %rax	# D.14838
	je	.L422	#,
	.loc 1 2716 0
	movq	$PL_sv_undef, PL_rs(%rip)	#, PL_rs
	jmp	.L421	#
.L422:
	.loc 1 2717 0
	cmpq	$0, -96(%rbp)	#, rschar
	jne	.L423	#,
	.loc 1 2717 0 is_stmt 0 discriminator 1
	movq	-104(%rbp), %rax	# numlen, numlen.675
	cmpq	$1, %rax	#, numlen.675
	jbe	.L423	#,
	.loc 1 2718 0 is_stmt 1
	movl	$0, %esi	#,
	movl	$.LC2, %edi	#,
	call	Perl_newSVpvn	#
	movq	%rax, PL_rs(%rip)	# PL_rs.676, PL_rs
	jmp	.L421	#
.L423:
.LBB38:
	.loc 1 2720 0
	movq	-96(%rbp), %rax	# rschar, tmp491
	movb	%al, -109(%rbp)	# ch.677, ch
	.loc 1 2721 0
	leaq	-109(%rbp), %rax	#, tmp492
	movl	$1, %esi	#,
	movq	%rax, %rdi	# tmp492,
	call	Perl_newSVpvn	#
	movq	%rax, PL_rs(%rip)	# PL_rs.678, PL_rs
.L421:
.LBE38:
	.loc 1 2724 0
	movq	PL_rs(%rip), %rbx	# PL_rs, PL_rs.679
	movl	$1, %esi	#,
	movl	$.LC59, %edi	#,
	call	Perl_get_sv	#
	movl	$2, %edx	#,
	movq	%rbx, %rsi	# PL_rs.679,
	movq	%rax, %rdi	# D.14841,
	call	Perl_sv_setsv_flags	#
	.loc 1 2725 0
	movq	-120(%rbp), %rdx	# s, s.680
	movq	-104(%rbp), %rax	# numlen, numlen.681
	addq	%rdx, %rax	# s.680, D.14834
	jmp	.L496	#
.L349:
.LBE36:
	.loc 1 2728 0
	movq	-120(%rbp), %rax	# s, s.682
	addq	$1, %rax	#, s.683
	movq	%rax, -120(%rbp)	# s.683, s
	.loc 1 2729 0
	leaq	-120(%rbp), %rax	#, tmp493
	movq	%rax, %rdi	# tmp493,
	call	Perl_parse_unicode_opts	#
	movl	%eax, PL_unicode(%rip)	# PL_unicode.684, PL_unicode
	.loc 1 2730 0
	movq	-120(%rbp), %rax	# s, D.14834
	jmp	.L496	#
.L351:
	.loc 1 2732 0
	movb	$1, PL_minus_F(%rip)	#, PL_minus_F
	.loc 1 2733 0
	movq	-120(%rbp), %rax	# s, s.685
	addq	$1, %rax	#, s.686
	movq	%rax, -120(%rbp)	# s.686, s
	movq	-120(%rbp), %rax	# s, s.687
	movq	%rax, PL_splitstr(%rip)	# s.687, PL_splitstr
	.loc 1 2734 0
	jmp	.L425	#
.L427:
	.loc 1 2734 0 is_stmt 0 discriminator 1
	movq	-120(%rbp), %rax	# s, s.688
	addq	$1, %rax	#, s.689
	movq	%rax, -120(%rbp)	# s.689, s
.L425:
	movq	-120(%rbp), %rax	# s, s.690
	movzbl	(%rax), %eax	# *s.690_142, D.14835
	testb	%al, %al	# D.14835
	je	.L426	#,
	.loc 1 2734 0 discriminator 2
	movq	-120(%rbp), %rax	# s, s.691
	movzbl	(%rax), %eax	# *s.691_144, D.14835
	cmpb	$32, %al	#, D.14835
	je	.L426	#,
	.loc 1 2734 0 discriminator 1
	movq	-120(%rbp), %rax	# s, s.692
	movzbl	(%rax), %eax	# *s.692_146, D.14835
	cmpb	$9, %al	#, D.14835
	je	.L426	#,
	movq	-120(%rbp), %rax	# s, s.693
	movzbl	(%rax), %eax	# *s.693_148, D.14835
	cmpb	$10, %al	#, D.14835
	je	.L426	#,
	movq	-120(%rbp), %rax	# s, s.694
	movzbl	(%rax), %eax	# *s.694_150, D.14835
	cmpb	$13, %al	#, D.14835
	je	.L426	#,
	movq	-120(%rbp), %rax	# s, s.695
	movzbl	(%rax), %eax	# *s.695_152, D.14835
	cmpb	$12, %al	#, D.14835
	jne	.L427	#,
.L426:
	.loc 1 2735 0 is_stmt 1
	movq	-120(%rbp), %rax	# s, s.696
	movb	$0, (%rax)	#, *s.696_156
	.loc 1 2736 0
	movq	PL_splitstr(%rip), %rax	# PL_splitstr, PL_splitstr.697
	movq	%rax, %rdi	# PL_splitstr.697,
	call	Perl_savepv	#
	movq	%rax, PL_splitstr(%rip)	# PL_splitstr.698, PL_splitstr
	.loc 1 2737 0
	movq	-120(%rbp), %rax	# s, D.14834
	jmp	.L496	#
.L359:
	.loc 1 2739 0
	movb	$1, PL_minus_a(%rip)	#, PL_minus_a
	.loc 1 2740 0
	movq	-120(%rbp), %rax	# s, s.699
	addq	$1, %rax	#, s.700
	movq	%rax, -120(%rbp)	# s.700, s
	.loc 1 2741 0
	movq	-120(%rbp), %rax	# s, D.14834
	jmp	.L496	#
.L360:
	.loc 1 2743 0
	movb	$1, PL_minus_c(%rip)	#, PL_minus_c
	.loc 1 2744 0
	movq	-120(%rbp), %rax	# s, s.701
	addq	$1, %rax	#, s.702
	movq	%rax, -120(%rbp)	# s.702, s
	.loc 1 2745 0
	movq	-120(%rbp), %rax	# s, D.14834
	jmp	.L496	#
.L361:
	.loc 1 2747 0
	movl	$.LC60, %edi	#,
	call	S_forbid_setid	#
	.loc 1 2748 0
	movq	-120(%rbp), %rax	# s, s.703
	addq	$1, %rax	#, s.704
	movq	%rax, -120(%rbp)	# s.704, s
	.loc 1 2751 0
	movq	-120(%rbp), %rax	# s, s.705
	movzbl	(%rax), %eax	# *s.705_168, D.14835
	cmpb	$116, %al	#, D.14835
	jne	.L428	#,
	.loc 1 2751 0 is_stmt 0 discriminator 1
	movq	-120(%rbp), %rax	# s, s.706
	addq	$1, %rax	#, D.14834
	movzbl	(%rax), %eax	# *_171, D.14835
	cmpb	$64, %al	#, D.14835
	jle	.L429	#,
	.loc 1 2751 0 discriminator 2
	movq	-120(%rbp), %rax	# s, s.707
	addq	$1, %rax	#, D.14834
	movzbl	(%rax), %eax	# *_174, D.14835
	cmpb	$90, %al	#, D.14835
	jle	.L428	#,
.L429:
	.loc 1 2751 0 discriminator 1
	movq	-120(%rbp), %rax	# s, s.708
	addq	$1, %rax	#, D.14834
	movzbl	(%rax), %eax	# *_177, D.14835
	cmpb	$96, %al	#, D.14835
	jle	.L430	#,
	.loc 1 2751 0 discriminator 2
	movq	-120(%rbp), %rax	# s, s.709
	addq	$1, %rax	#, D.14834
	movzbl	(%rax), %eax	# *_180, D.14835
	cmpb	$122, %al	#, D.14835
	jle	.L428	#,
.L430:
	.loc 1 2751 0 discriminator 1
	movq	-120(%rbp), %rax	# s, s.710
	addq	$1, %rax	#, D.14834
	movzbl	(%rax), %eax	# *_183, D.14835
	cmpb	$47, %al	#, D.14835
	jle	.L431	#,
	.loc 1 2751 0 discriminator 2
	movq	-120(%rbp), %rax	# s, s.711
	addq	$1, %rax	#, D.14834
	movzbl	(%rax), %eax	# *_186, D.14835
	cmpb	$57, %al	#, D.14835
	jle	.L428	#,
.L431:
	.loc 1 2751 0 discriminator 1
	movq	-120(%rbp), %rax	# s, s.712
	addq	$1, %rax	#, D.14834
	movzbl	(%rax), %eax	# *_189, D.14835
	cmpb	$95, %al	#, D.14835
	je	.L428	#,
	.loc 1 2752 0 is_stmt 1
	movq	-120(%rbp), %rax	# s, s.713
	addq	$1, %rax	#, s.714
	movq	%rax, -120(%rbp)	# s.714, s
	.loc 1 2753 0
	movl	$.LC61, %esi	#,
	movl	$.LC62, %edi	#,
	call	Perl_my_setenv	#
.L428:
	.loc 1 2758 0
	movq	-120(%rbp), %rax	# s, s.715
	movzbl	(%rax), %eax	# *s.715_193, D.14835
	cmpb	$58, %al	#, D.14835
	je	.L432	#,
	.loc 1 2758 0 is_stmt 0 discriminator 1
	movq	-120(%rbp), %rax	# s, s.716
	movzbl	(%rax), %eax	# *s.716_195, D.14835
	cmpb	$61, %al	#, D.14835
	jne	.L433	#,
.L432:
.LBB39:
	.loc 1 2761 0 is_stmt 1
	movl	$0, %esi	#,
	movl	$.LC63, %edi	#,
	call	Perl_newSVpv	#
	movq	%rax, -48(%rbp)	# tmp494, sv
	.loc 1 2762 0
	movq	-120(%rbp), %rax	# s, s.717
	addq	$1, %rax	#, s.718
	movq	%rax, -120(%rbp)	# s.718, s
	movq	-120(%rbp), %rax	# s, tmp495
	movq	%rax, -40(%rbp)	# tmp495, start
	.loc 1 2764 0
	jmp	.L434	#
.L436:
	.loc 1 2764 0 is_stmt 0 discriminator 1
	movq	-120(%rbp), %rax	# s, s.719
	addq	$1, %rax	#, s.720
	movq	%rax, -120(%rbp)	# s.720, s
.L434:
	movq	-120(%rbp), %rax	# s, s.721
	movzbl	(%rax), %eax	# *s.721_201, D.14835
	cmpb	$64, %al	#, D.14835
	jle	.L435	#,
	.loc 1 2764 0 discriminator 2
	movq	-120(%rbp), %rax	# s, s.722
	movzbl	(%rax), %eax	# *s.722_203, D.14835
	cmpb	$90, %al	#, D.14835
	jle	.L436	#,
.L435:
	.loc 1 2764 0 discriminator 3
	movq	-120(%rbp), %rax	# s, s.723
	movzbl	(%rax), %eax	# *s.723_205, D.14835
	cmpb	$96, %al	#, D.14835
	jle	.L437	#,
	.loc 1 2764 0 discriminator 1
	movq	-120(%rbp), %rax	# s, s.724
	movzbl	(%rax), %eax	# *s.724_207, D.14835
	cmpb	$122, %al	#, D.14835
	jle	.L436	#,
.L437:
	.loc 1 2764 0 discriminator 2
	movq	-120(%rbp), %rax	# s, s.725
	movzbl	(%rax), %eax	# *s.725_209, D.14835
	cmpb	$47, %al	#, D.14835
	jle	.L438	#,
	.loc 1 2764 0 discriminator 1
	movq	-120(%rbp), %rax	# s, s.726
	movzbl	(%rax), %eax	# *s.726_211, D.14835
	cmpb	$57, %al	#, D.14835
	jle	.L436	#,
.L438:
	.loc 1 2764 0 discriminator 2
	movq	-120(%rbp), %rax	# s, s.727
	movzbl	(%rax), %eax	# *s.727_213, D.14835
	cmpb	$95, %al	#, D.14835
	je	.L436	#,
	.loc 1 2764 0 discriminator 1
	movq	-120(%rbp), %rax	# s, s.728
	movzbl	(%rax), %eax	# *s.728_215, D.14835
	cmpb	$58, %al	#, D.14835
	je	.L436	#,
	.loc 1 2765 0 is_stmt 1
	movq	-120(%rbp), %rax	# s, s.729
	movzbl	(%rax), %eax	# *s.729_217, D.14835
	cmpb	$61, %al	#, D.14835
	je	.L439	#,
	.loc 1 2766 0
	movq	-40(%rbp), %rdx	# start, tmp496
	movq	-48(%rbp), %rax	# sv, tmp497
	movq	%rdx, %rsi	# tmp496,
	movq	%rax, %rdi	# tmp497,
	call	Perl_sv_catpv	#
	jmp	.L440	#
.L439:
	.loc 1 2768 0
	movq	-120(%rbp), %rax	# s, s.730
	movq	%rax, %rdx	# s.730, s.731
	movq	-40(%rbp), %rax	# start, start.732
	subq	%rax, %rdx	# start.732, D.14837
	movq	%rdx, %rax	# D.14837, D.14837
	movq	%rax, %rdx	# D.14837, D.14838
	movq	-40(%rbp), %rsi	# start, tmp498
	movq	-48(%rbp), %rax	# sv, tmp499
	movl	$2, %ecx	#,
	movq	%rax, %rdi	# tmp499,
	call	Perl_sv_catpvn_flags	#
	.loc 1 2769 0
	movq	-48(%rbp), %rax	# sv, tmp500
	movl	$.LC64, %esi	#,
	movq	%rax, %rdi	# tmp500,
	call	Perl_sv_catpv	#
	.loc 1 2770 0
	movq	-120(%rbp), %rax	# s, s.733
	addq	$1, %rax	#, s.734
	movq	%rax, -120(%rbp)	# s.734, s
	movq	-120(%rbp), %rdx	# s, s.735
	movq	-48(%rbp), %rax	# sv, tmp501
	movq	%rdx, %rsi	# s.735,
	movq	%rax, %rdi	# tmp501,
	call	Perl_sv_catpv	#
	.loc 1 2771 0
	movq	-48(%rbp), %rax	# sv, tmp502
	movl	$.LC65, %esi	#,
	movq	%rax, %rdi	# tmp502,
	call	Perl_sv_catpv	#
.L440:
	.loc 1 2773 0
	movq	-120(%rbp), %rbx	# s, s.736
	movq	-120(%rbp), %rax	# s, s.737
	movq	%rax, %rdi	# s.737,
	call	strlen	#
	addq	%rbx, %rax	# s.736, s.738
	movq	%rax, -120(%rbp)	# s.738, s
	.loc 1 2774 0
	movq	-48(%rbp), %rax	# sv, tmp503
	movl	12(%rax), %eax	# sv_197->sv_flags, D.14839
	andl	$262144, %eax	#, D.14839
	testl	%eax, %eax	# D.14839
	je	.L441	#,
	.loc 1 2774 0 is_stmt 0 discriminator 1
	movq	-48(%rbp), %rax	# sv, tmp504
	movq	(%rax), %rax	# sv_197->sv_any, D.14840
	movq	8(%rax), %rax	# MEM[(struct XPV *)_233].xpv_cur, PL_na.740
	movq	%rax, PL_na(%rip)	# PL_na.740, PL_na
	movq	-48(%rbp), %rax	# sv, tmp505
	movq	(%rax), %rax	# sv_197->sv_any, D.14840
	movq	(%rax), %rax	# MEM[(struct XPV *)_235].xpv_pv, iftmp.739
	jmp	.L442	#
.L441:
	.loc 1 2774 0 discriminator 2
	movq	-48(%rbp), %rax	# sv, tmp506
	movl	$2, %edx	#,
	movl	$PL_na, %esi	#,
	movq	%rax, %rdi	# tmp506,
	call	Perl_sv_2pv_flags	#
.L442:
	.loc 1 2774 0 discriminator 3
	movq	%rax, %rsi	# iftmp.739,
	movl	$.LC66, %edi	#,
	call	Perl_my_setenv	#
.L433:
.LBE39:
	.loc 1 2776 0 is_stmt 1
	movl	PL_perldb(%rip), %eax	# PL_perldb, PL_perldb.741
	testl	%eax, %eax	# PL_perldb.741
	jne	.L443	#,
	.loc 1 2777 0
	movl	$831, PL_perldb(%rip)	#, PL_perldb
	.loc 1 2778 0
	call	Perl_init_debugger	#
.L443:
	.loc 1 2780 0
	movq	-120(%rbp), %rax	# s, D.14834
	jmp	.L496	#
.L350:
	.loc 1 2788 0
	movq	PL_curcop(%rip), %rax	# PL_curcop, PL_curcop.742
	movq	80(%rax), %rax	# PL_curcop.742_242->cop_warnings, D.14841
	testq	%rax, %rax	# D.14841
	je	.L444	#,
	.loc 1 2788 0 is_stmt 0 discriminator 1
	movq	PL_curcop(%rip), %rax	# PL_curcop, PL_curcop.743
	movq	80(%rax), %rax	# PL_curcop.743_244->cop_warnings, D.14841
	cmpq	$16, %rax	#, D.14841
	je	.L444	#,
	movq	PL_curcop(%rip), %rax	# PL_curcop, PL_curcop.744
	movq	80(%rax), %rax	# PL_curcop.744_246->cop_warnings, D.14841
	cmpq	$32, %rax	#, D.14841
	je	.L445	#,
	movq	PL_curcop(%rip), %rax	# PL_curcop, PL_curcop.745
	movq	80(%rax), %rax	# PL_curcop.745_248->cop_warnings, D.14841
	movq	(%rax), %rax	# _249->sv_any, D.14840
	movq	(%rax), %rax	# MEM[(struct XPV *)_250].xpv_pv, D.14834
	addq	$5, %rax	#, D.14834
	movzbl	(%rax), %eax	# *_252, D.14835
	movsbl	%al, %eax	# D.14835, D.14836
	andl	$16, %eax	#, D.14836
	testl	%eax, %eax	# D.14836
	je	.L445	#,
.L444:
	.loc 1 2789 0 is_stmt 1
	movl	$.LC67, %esi	#,
	movl	$22, %edi	#,
	movl	$0, %eax	#,
	call	Perl_warner	#
.L445:
	.loc 1 2791 0
	movq	-120(%rbp), %rax	# s, s.746
	addq	$1, %rax	#, s.747
	movq	%rax, -120(%rbp)	# s.747, s
	jmp	.L446	#
.L448:
	.loc 1 2791 0 is_stmt 0 discriminator 1
	movq	-120(%rbp), %rax	# s, s.748
	addq	$1, %rax	#, s.749
	movq	%rax, -120(%rbp)	# s.749, s
.L446:
	movq	-120(%rbp), %rax	# s, s.750
	movzbl	(%rax), %eax	# *s.750_258, D.14835
	cmpb	$64, %al	#, D.14835
	jle	.L447	#,
	.loc 1 2791 0 discriminator 2
	movq	-120(%rbp), %rax	# s, s.751
	movzbl	(%rax), %eax	# *s.751_260, D.14835
	cmpb	$90, %al	#, D.14835
	jle	.L448	#,
.L447:
	.loc 1 2791 0 discriminator 3
	movq	-120(%rbp), %rax	# s, s.752
	movzbl	(%rax), %eax	# *s.752_262, D.14835
	cmpb	$96, %al	#, D.14835
	jle	.L449	#,
	.loc 1 2791 0 discriminator 1
	movq	-120(%rbp), %rax	# s, s.753
	movzbl	(%rax), %eax	# *s.753_264, D.14835
	cmpb	$122, %al	#, D.14835
	jle	.L448	#,
.L449:
	.loc 1 2791 0 discriminator 2
	movq	-120(%rbp), %rax	# s, s.754
	movzbl	(%rax), %eax	# *s.754_266, D.14835
	cmpb	$47, %al	#, D.14835
	jle	.L450	#,
	.loc 1 2791 0 discriminator 1
	movq	-120(%rbp), %rax	# s, s.755
	movzbl	(%rax), %eax	# *s.755_268, D.14835
	cmpb	$57, %al	#, D.14835
	jle	.L448	#,
.L450:
	.loc 1 2791 0 discriminator 2
	movq	-120(%rbp), %rax	# s, s.756
	movzbl	(%rax), %eax	# *s.756_270, D.14835
	cmpb	$95, %al	#, D.14835
	je	.L448	#,
	.loc 1 2794 0 is_stmt 1
	movq	-120(%rbp), %rax	# s, D.14834
	jmp	.L496	#
.L362:
	.loc 1 2797 0
	movq	PL_origargv(%rip), %rax	# PL_origargv, PL_origargv.757
	movq	(%rax), %rax	# *PL_origargv.757_275, D.14834
	movq	%rax, %rdi	# D.14834,
	call	S_usage	#
	.loc 1 2798 0
	movl	$0, %edi	#,
	call	Perl_my_exit	#
.L363:
	.loc 1 2800 0
	movq	PL_inplace(%rip), %rax	# PL_inplace, PL_inplace.758
	testq	%rax, %rax	# PL_inplace.758
	je	.L451	#,
	.loc 1 2801 0
	movq	PL_inplace(%rip), %rax	# PL_inplace, PL_inplace.759
	movq	%rax, %rdi	# PL_inplace.759,
	call	Perl_safesysfree	#
.L451:
	.loc 1 2808 0
	movq	-120(%rbp), %rax	# s, s.760
	addq	$1, %rax	#, D.14842
	movq	%rax, %rdi	# D.14842,
	call	Perl_savepv	#
	movq	%rax, PL_inplace(%rip)	# PL_inplace.761, PL_inplace
	.loc 1 2810 0
	movq	PL_inplace(%rip), %rax	# PL_inplace, PL_inplace.762
	movq	%rax, -120(%rbp)	# PL_inplace.762, s
	jmp	.L452	#
.L454:
	.loc 1 2810 0 is_stmt 0 discriminator 1
	movq	-120(%rbp), %rax	# s, s.763
	addq	$1, %rax	#, s.764
	movq	%rax, -120(%rbp)	# s.764, s
.L452:
	movq	-120(%rbp), %rax	# s, s.765
	movzbl	(%rax), %eax	# *s.765_283, D.14835
	testb	%al, %al	# D.14835
	je	.L453	#,
	.loc 1 2810 0 discriminator 2
	movq	-120(%rbp), %rax	# s, s.766
	movzbl	(%rax), %eax	# *s.766_285, D.14835
	cmpb	$32, %al	#, D.14835
	je	.L453	#,
	.loc 1 2810 0 discriminator 1
	movq	-120(%rbp), %rax	# s, s.767
	movzbl	(%rax), %eax	# *s.767_287, D.14835
	cmpb	$9, %al	#, D.14835
	je	.L453	#,
	movq	-120(%rbp), %rax	# s, s.768
	movzbl	(%rax), %eax	# *s.768_289, D.14835
	cmpb	$10, %al	#, D.14835
	je	.L453	#,
	movq	-120(%rbp), %rax	# s, s.769
	movzbl	(%rax), %eax	# *s.769_291, D.14835
	cmpb	$13, %al	#, D.14835
	je	.L453	#,
	movq	-120(%rbp), %rax	# s, s.770
	movzbl	(%rax), %eax	# *s.770_293, D.14835
	cmpb	$12, %al	#, D.14835
	jne	.L454	#,
.L453:
	.loc 1 2811 0 is_stmt 1
	movq	-120(%rbp), %rax	# s, s.771
	movzbl	(%rax), %eax	# *s.771_297, D.14835
	testb	%al, %al	# D.14835
	je	.L455	#,
	.loc 1 2812 0
	movq	-120(%rbp), %rax	# s, s.772
	leaq	1(%rax), %rdx	#, s.774
	movq	%rdx, -120(%rbp)	# s.774, s
	movb	$0, (%rax)	#, *s.773_300
	.loc 1 2813 0
	movq	-120(%rbp), %rax	# s, s.775
	movzbl	(%rax), %eax	# *s.775_302, D.14835
	cmpb	$45, %al	#, D.14835
	jne	.L455	#,
	.loc 1 2814 0
	movq	-120(%rbp), %rax	# s, s.776
	addq	$1, %rax	#, s.777
	movq	%rax, -120(%rbp)	# s.777, s
.L455:
	.loc 1 2816 0
	movq	-120(%rbp), %rax	# s, D.14834
	jmp	.L496	#
.L352:
	.loc 1 2818 0
	movl	$.LC13, %edi	#,
	call	S_forbid_setid	#
	.loc 1 2819 0
	movq	-120(%rbp), %rax	# s, s.778
	addq	$1, %rax	#, s.779
	movq	%rax, -120(%rbp)	# s.779, s
	.loc 1 2820 0
	jmp	.L456	#
.L458:
	.loc 1 2821 0
	movq	-120(%rbp), %rax	# s, s.780
	addq	$1, %rax	#, s.781
	movq	%rax, -120(%rbp)	# s.781, s
.L456:
	.loc 1 2820 0 discriminator 1
	movq	-120(%rbp), %rax	# s, s.782
	movzbl	(%rax), %eax	# *s.782_309, D.14835
	testb	%al, %al	# D.14835
	je	.L457	#,
	.loc 1 2820 0 is_stmt 0 discriminator 2
	movq	-120(%rbp), %rax	# s, s.783
	movzbl	(%rax), %eax	# *s.783_311, D.14835
	cmpb	$32, %al	#, D.14835
	je	.L458	#,
	.loc 1 2820 0 discriminator 1
	movq	-120(%rbp), %rax	# s, s.784
	movzbl	(%rax), %eax	# *s.784_313, D.14835
	cmpb	$9, %al	#, D.14835
	je	.L458	#,
	movq	-120(%rbp), %rax	# s, s.785
	movzbl	(%rax), %eax	# *s.785_315, D.14835
	cmpb	$10, %al	#, D.14835
	je	.L458	#,
	movq	-120(%rbp), %rax	# s, s.786
	movzbl	(%rax), %eax	# *s.786_317, D.14835
	cmpb	$13, %al	#, D.14835
	je	.L458	#,
	movq	-120(%rbp), %rax	# s, s.787
	movzbl	(%rax), %eax	# *s.787_319, D.14835
	cmpb	$12, %al	#, D.14835
	je	.L458	#,
.L457:
	.loc 1 2822 0 is_stmt 1
	movq	-120(%rbp), %rax	# s, s.788
	movzbl	(%rax), %eax	# *s.788_323, D.14835
	testb	%al, %al	# D.14835
	je	.L459	#,
.LBB40:
	.loc 1 2824 0
	movq	-120(%rbp), %rax	# s, tmp507
	movq	%rax, -72(%rbp)	# tmp507, p
.L466:
	.loc 1 2827 0
	movq	-72(%rbp), %rax	# p, tmp508
	movq	%rax, -80(%rbp)	# tmp508, e
	jmp	.L460	#
.L462:
	.loc 1 2827 0 is_stmt 0 discriminator 1
	addq	$1, -80(%rbp)	#, e
.L460:
	movq	-80(%rbp), %rax	# e, tmp509
	movzbl	(%rax), %eax	# *e_3, D.14835
	testb	%al, %al	# D.14835
	je	.L461	#,
	.loc 1 2827 0 discriminator 2
	movq	-80(%rbp), %rax	# e, tmp510
	movzbl	(%rax), %eax	# *e_3, D.14835
	cmpb	$32, %al	#, D.14835
	je	.L461	#,
	.loc 1 2827 0 discriminator 1
	movq	-80(%rbp), %rax	# e, tmp511
	movzbl	(%rax), %eax	# *e_3, D.14835
	cmpb	$9, %al	#, D.14835
	je	.L461	#,
	movq	-80(%rbp), %rax	# e, tmp512
	movzbl	(%rax), %eax	# *e_3, D.14835
	cmpb	$10, %al	#, D.14835
	je	.L461	#,
	movq	-80(%rbp), %rax	# e, tmp513
	movzbl	(%rax), %eax	# *e_3, D.14835
	cmpb	$13, %al	#, D.14835
	je	.L461	#,
	movq	-80(%rbp), %rax	# e, tmp514
	movzbl	(%rax), %eax	# *e_3, D.14835
	cmpb	$12, %al	#, D.14835
	jne	.L462	#,
.L461:
	.loc 1 2828 0 is_stmt 1
	movq	-80(%rbp), %rax	# e, tmp515
	movq	%rax, -72(%rbp)	# tmp515, p
	.loc 1 2829 0
	jmp	.L463	#
.L464:
	.loc 1 2830 0
	addq	$1, -72(%rbp)	#, p
.L463:
	.loc 1 2829 0 discriminator 1
	movq	-72(%rbp), %rax	# p, tmp516
	movzbl	(%rax), %eax	# *p_5, D.14835
	cmpb	$32, %al	#, D.14835
	je	.L464	#,
	.loc 1 2829 0 is_stmt 0 discriminator 2
	movq	-72(%rbp), %rax	# p, tmp517
	movzbl	(%rax), %eax	# *p_5, D.14835
	cmpb	$9, %al	#, D.14835
	je	.L464	#,
	.loc 1 2829 0 discriminator 1
	movq	-72(%rbp), %rax	# p, tmp518
	movzbl	(%rax), %eax	# *p_5, D.14835
	cmpb	$10, %al	#, D.14835
	je	.L464	#,
	movq	-72(%rbp), %rax	# p, tmp519
	movzbl	(%rax), %eax	# *p_5, D.14835
	cmpb	$13, %al	#, D.14835
	je	.L464	#,
	movq	-72(%rbp), %rax	# p, tmp520
	movzbl	(%rax), %eax	# *p_5, D.14835
	cmpb	$12, %al	#, D.14835
	je	.L464	#,
	.loc 1 2831 0 is_stmt 1
	movq	-72(%rbp), %rax	# p, tmp521
	movzbl	(%rax), %eax	# *p_5, D.14835
	testb	%al, %al	# D.14835
	je	.L465	#,
	.loc 1 2831 0 is_stmt 0 discriminator 1
	movq	-72(%rbp), %rax	# p, tmp522
	movzbl	(%rax), %eax	# *p_5, D.14835
	cmpb	$45, %al	#, D.14835
	jne	.L466	#,
.L465:
	.loc 1 2832 0 is_stmt 1
	movq	-80(%rbp), %rdx	# e, e.789
	movq	-120(%rbp), %rax	# s, s.790
	subq	%rax, %rdx	# s.791, D.14837
	movq	%rdx, %rax	# D.14837, D.14837
	movl	%eax, %edx	# D.14837, D.14836
	movq	-120(%rbp), %rax	# s, s.792
	movl	%edx, %esi	# D.14836,
	movq	%rax, %rdi	# s.792,
	call	Perl_savepvn	#
	movq	%rax, -80(%rbp)	# tmp523, e
	.loc 1 2833 0
	movq	-80(%rbp), %rax	# e, tmp524
	movl	$0, %ecx	#,
	movl	$1, %edx	#,
	movl	$1, %esi	#,
	movq	%rax, %rdi	# tmp524,
	call	S_incpush	#
	.loc 1 2834 0
	movq	-80(%rbp), %rax	# e, tmp525
	movq	%rax, %rdi	# tmp525,
	call	Perl_safesysfree	#
	.loc 1 2835 0
	movq	-72(%rbp), %rax	# p, tmp526
	movq	%rax, -120(%rbp)	# tmp526, s
	.loc 1 2836 0
	movq	-120(%rbp), %rax	# s, s.793
	movzbl	(%rax), %eax	# *s.793_349, D.14835
	cmpb	$45, %al	#, D.14835
	jne	.L467	#,
	.loc 1 2837 0
	movq	-120(%rbp), %rax	# s, s.794
	addq	$1, %rax	#, s.795
	movq	%rax, -120(%rbp)	# s.795, s
.LBE40:
	jmp	.L468	#
.L467:
	jmp	.L468	#
.L459:
	.loc 1 2840 0
	movl	$.LC15, %edi	#,
	movl	$0, %eax	#,
	call	Perl_croak	#
.L468:
	.loc 1 2841 0
	movq	-120(%rbp), %rax	# s, D.14834
	jmp	.L496	#
.L364:
	.loc 1 2843 0
	movb	$1, PL_minus_l(%rip)	#, PL_minus_l
	.loc 1 2844 0
	movq	-120(%rbp), %rax	# s, s.796
	addq	$1, %rax	#, s.797
	movq	%rax, -120(%rbp)	# s.797, s
	.loc 1 2845 0
	movq	PL_ors_sv(%rip), %rax	# PL_ors_sv, PL_ors_sv.798
	testq	%rax, %rax	# PL_ors_sv.798
	je	.L469	#,
	.loc 1 2846 0
	movq	PL_ors_sv(%rip), %rax	# PL_ors_sv, PL_ors_sv.799
	movq	%rax, %rdi	# PL_ors_sv.799,
	call	Perl_sv_free	#
	.loc 1 2847 0
	movq	$0, PL_ors_sv(%rip)	#, PL_ors_sv
.L469:
	.loc 1 2849 0
	movq	-120(%rbp), %rax	# s, s.800
	movzbl	(%rax), %eax	# *s.800_359, D.14835
	cmpb	$47, %al	#, D.14835
	jle	.L470	#,
	.loc 1 2849 0 is_stmt 0 discriminator 1
	movq	-120(%rbp), %rax	# s, s.801
	movzbl	(%rax), %eax	# *s.801_361, D.14835
	cmpb	$57, %al	#, D.14835
	jg	.L470	#,
.LBB41:
	.loc 1 2850 0 is_stmt 1
	movl	$0, -108(%rbp)	#, flags
	.loc 1 2851 0
	movl	$1, %esi	#,
	movl	$.LC0, %edi	#,
	call	Perl_newSVpvn	#
	movq	%rax, PL_ors_sv(%rip)	# PL_ors_sv.802, PL_ors_sv
	.loc 1 2852 0
	movq	-120(%rbp), %rax	# s, s.804
	movzbl	(%rax), %eax	# *s.804_364, D.14835
	cmpb	$48, %al	#, D.14835
	jne	.L471	#,
	.loc 1 2852 0 is_stmt 0 discriminator 1
	movl	$4, %eax	#, iftmp.803
	jmp	.L472	#
.L471:
	.loc 1 2852 0 discriminator 2
	movl	$3, %eax	#, iftmp.803
.L472:
	.loc 1 2852 0 discriminator 3
	movq	%rax, -104(%rbp)	# iftmp.803, numlen
	.loc 1 2853 0 is_stmt 1 discriminator 3
	movq	PL_ors_sv(%rip), %rax	# PL_ors_sv, PL_ors_sv.805
	movq	(%rax), %rax	# PL_ors_sv.805_368->sv_any, D.14840
	movq	(%rax), %rbx	# MEM[(struct XPV *)_369].xpv_pv, D.14834
	movq	-120(%rbp), %rax	# s, s.806
	leaq	-108(%rbp), %rdx	#, tmp527
	leaq	-104(%rbp), %rsi	#, tmp528
	movl	$0, %ecx	#,
	movq	%rax, %rdi	# s.806,
	call	Perl_grok_oct	#
	movb	%al, (%rbx)	# D.14835, *_370
	.loc 1 2854 0 discriminator 3
	movq	-120(%rbp), %rdx	# s, s.807
	movq	-104(%rbp), %rax	# numlen, numlen.808
	addq	%rdx, %rax	# s.807, s.809
	movq	%rax, -120(%rbp)	# s.809, s
.LBE41:
	.loc 1 2849 0 discriminator 3
	jmp	.L473	#
.L470:
	.loc 1 2857 0
	movq	PL_rs(%rip), %rax	# PL_rs, PL_rs.810
	movl	12(%rax), %eax	# PL_rs.810_377->sv_flags, D.14839
	andl	$262144, %eax	#, D.14839
	testl	%eax, %eax	# D.14839
	je	.L474	#,
	.loc 1 2857 0 is_stmt 0 discriminator 1
	movq	PL_rs(%rip), %rax	# PL_rs, PL_rs.811
	movq	(%rax), %rax	# PL_rs.811_380->sv_any, D.14840
	movq	8(%rax), %rax	# MEM[(struct XPV *)_381].xpv_cur, D.14838
	testq	%rax, %rax	# D.14838
	jne	.L474	#,
	.loc 1 2858 0 is_stmt 1
	movl	$2, %esi	#,
	movl	$.LC68, %edi	#,
	call	Perl_newSVpvn	#
	movq	%rax, PL_ors_sv(%rip)	# PL_ors_sv.812, PL_ors_sv
	jmp	.L473	#
.L474:
	.loc 1 2861 0
	movq	PL_rs(%rip), %rax	# PL_rs, PL_rs.813
	movq	%rax, %rdi	# PL_rs.813,
	call	Perl_newSVsv	#
	movq	%rax, PL_ors_sv(%rip)	# PL_ors_sv.814, PL_ors_sv
.L473:
	.loc 1 2864 0
	movq	-120(%rbp), %rax	# s, D.14834
	jmp	.L496	#
.L353:
	.loc 1 2866 0
	movl	$.LC69, %edi	#,
	call	S_forbid_setid	#
.L365:
	.loc 1 2869 0
	movl	$.LC70, %edi	#,
	call	S_forbid_setid	#
	.loc 1 2870 0
	movq	-120(%rbp), %rax	# s, s.815
	addq	$1, %rax	#, s.816
	movq	%rax, -120(%rbp)	# s.816, s
	movq	-120(%rbp), %rax	# s, s.817
	movzbl	(%rax), %eax	# *s.817_389, D.14835
	testb	%al, %al	# D.14835
	je	.L475	#,
.LBB42:
	.loc 1 2873 0
	movq	$.LC71, -64(%rbp)	#, use
	.loc 1 2875 0
	movq	-120(%rbp), %rax	# s, s.818
	movzbl	(%rax), %eax	# *s.818_392, D.14835
	cmpb	$45, %al	#, D.14835
	jne	.L476	#,
	.loc 1 2875 0 is_stmt 0 discriminator 1
	movq	$.LC72, -64(%rbp)	#, use
	movq	-120(%rbp), %rax	# s, s.819
	addq	$1, %rax	#, s.820
	movq	%rax, -120(%rbp)	# s.820, s
.L476:
	.loc 1 2876 0 is_stmt 1
	movq	-64(%rbp), %rax	# use, tmp529
	movl	$0, %esi	#,
	movq	%rax, %rdi	# tmp529,
	call	Perl_newSVpv	#
	movq	%rax, -32(%rbp)	# tmp530, sv
	.loc 1 2877 0
	movq	-120(%rbp), %rax	# s, tmp531
	movq	%rax, -24(%rbp)	# tmp531, start
	.loc 1 2879 0
	jmp	.L477	#
.L479:
	.loc 1 2879 0 is_stmt 0 discriminator 1
	movq	-120(%rbp), %rax	# s, s.821
	addq	$1, %rax	#, s.822
	movq	%rax, -120(%rbp)	# s.822, s
.L477:
	movq	-120(%rbp), %rax	# s, s.823
	movzbl	(%rax), %eax	# *s.823_399, D.14835
	cmpb	$64, %al	#, D.14835
	jle	.L478	#,
	.loc 1 2879 0 discriminator 2
	movq	-120(%rbp), %rax	# s, s.824
	movzbl	(%rax), %eax	# *s.824_401, D.14835
	cmpb	$90, %al	#, D.14835
	jle	.L479	#,
.L478:
	.loc 1 2879 0 discriminator 3
	movq	-120(%rbp), %rax	# s, s.825
	movzbl	(%rax), %eax	# *s.825_403, D.14835
	cmpb	$96, %al	#, D.14835
	jle	.L480	#,
	.loc 1 2879 0 discriminator 1
	movq	-120(%rbp), %rax	# s, s.826
	movzbl	(%rax), %eax	# *s.826_405, D.14835
	cmpb	$122, %al	#, D.14835
	jle	.L479	#,
.L480:
	.loc 1 2879 0 discriminator 2
	movq	-120(%rbp), %rax	# s, s.827
	movzbl	(%rax), %eax	# *s.827_407, D.14835
	cmpb	$47, %al	#, D.14835
	jle	.L481	#,
	.loc 1 2879 0 discriminator 1
	movq	-120(%rbp), %rax	# s, s.828
	movzbl	(%rax), %eax	# *s.828_409, D.14835
	cmpb	$57, %al	#, D.14835
	jle	.L479	#,
.L481:
	.loc 1 2879 0 discriminator 2
	movq	-120(%rbp), %rax	# s, s.829
	movzbl	(%rax), %eax	# *s.829_411, D.14835
	cmpb	$95, %al	#, D.14835
	je	.L479	#,
	.loc 1 2879 0 discriminator 1
	movq	-120(%rbp), %rax	# s, s.830
	movzbl	(%rax), %eax	# *s.830_413, D.14835
	cmpb	$58, %al	#, D.14835
	je	.L479	#,
	.loc 1 2880 0 is_stmt 1
	movq	-120(%rbp), %rax	# s, s.831
	movzbl	(%rax), %eax	# *s.831_415, D.14835
	cmpb	$61, %al	#, D.14835
	je	.L482	#,
	.loc 1 2881 0
	movq	-24(%rbp), %rdx	# start, tmp532
	movq	-32(%rbp), %rax	# sv, tmp533
	movq	%rdx, %rsi	# tmp532,
	movq	%rax, %rdi	# tmp533,
	call	Perl_sv_catpv	#
	.loc 1 2882 0
	movq	-24(%rbp), %rax	# start, tmp534
	subq	$1, %rax	#, D.14834
	movzbl	(%rax), %eax	# *_417, D.14835
	cmpb	$109, %al	#, D.14835
	jne	.L485	#,
	.loc 1 2883 0
	movq	-120(%rbp), %rax	# s, s.832
	movzbl	(%rax), %eax	# *s.832_419, D.14835
	testb	%al, %al	# D.14835
	je	.L484	#,
	.loc 1 2884 0
	movq	-120(%rbp), %rax	# s, s.833
	movzbl	(%rax), %eax	# *s.833_421, D.14835
	movsbl	%al, %eax	# D.14835, D.14836
	movl	%eax, %esi	# D.14836,
	movl	$.LC73, %edi	#,
	movl	$0, %eax	#,
	call	Perl_croak	#
.L484:
	.loc 1 2885 0
	movq	-32(%rbp), %rax	# sv, tmp535
	movl	$.LC74, %esi	#,
	movq	%rax, %rdi	# tmp535,
	call	Perl_sv_catpv	#
	jmp	.L485	#
.L482:
	.loc 1 2888 0
	movq	-120(%rbp), %rax	# s, s.834
	cmpq	-24(%rbp), %rax	# start, s.834
	jne	.L486	#,
	.loc 1 2890 0
	movq	-120(%rbp), %rax	# s, s.835
	subq	$1, %rax	#, D.14834
	movzbl	(%rax), %eax	# *_426, D.14835
	.loc 1 2889 0
	movsbl	%al, %eax	# D.14835, D.14836
	movl	%eax, %esi	# D.14836,
	movl	$.LC75, %edi	#,
	movl	$0, %eax	#,
	call	Perl_croak	#
.L486:
	.loc 1 2891 0
	movq	-120(%rbp), %rax	# s, s.836
	movq	%rax, %rdx	# s.836, s.837
	movq	-24(%rbp), %rax	# start, start.838
	subq	%rax, %rdx	# start.838, D.14837
	movq	%rdx, %rax	# D.14837, D.14837
	movq	%rax, %rdx	# D.14837, D.14838
	movq	-24(%rbp), %rsi	# start, tmp536
	movq	-32(%rbp), %rax	# sv, tmp537
	movl	$2, %ecx	#,
	movq	%rax, %rdi	# tmp537,
	call	Perl_sv_catpvn_flags	#
	.loc 1 2892 0
	movq	-32(%rbp), %rax	# sv, tmp538
	movl	$.LC76, %esi	#,
	movq	%rax, %rdi	# tmp538,
	call	Perl_sv_catpv	#
	.loc 1 2893 0
	movq	-32(%rbp), %rax	# sv, tmp539
	movl	$2, %ecx	#,
	movl	$1, %edx	#,
	movl	$.LC77, %esi	#,
	movq	%rax, %rdi	# tmp539,
	call	Perl_sv_catpvn_flags	#
	.loc 1 2894 0
	movq	-120(%rbp), %rax	# s, s.839
	addq	$1, %rax	#, s.840
	movq	%rax, -120(%rbp)	# s.840, s
	movq	-120(%rbp), %rdx	# s, s.841
	movq	-32(%rbp), %rax	# sv, tmp540
	movq	%rdx, %rsi	# s.841,
	movq	%rax, %rdi	# tmp540,
	call	Perl_sv_catpv	#
	.loc 1 2895 0
	movq	-32(%rbp), %rax	# sv, tmp541
	movl	$2, %ecx	#,
	movl	$2, %edx	#,
	movl	$.LC77, %esi	#,
	movq	%rax, %rdi	# tmp541,
	call	Perl_sv_catpvn_flags	#
.L485:
	.loc 1 2897 0
	movq	-120(%rbp), %rbx	# s, s.842
	movq	-120(%rbp), %rax	# s, s.843
	movq	%rax, %rdi	# s.843,
	call	strlen	#
	addq	%rbx, %rax	# s.842, s.844
	movq	%rax, -120(%rbp)	# s.844, s
	.loc 1 2898 0
	movq	PL_preambleav(%rip), %rax	# PL_preambleav, PL_preambleav.845
	testq	%rax, %rax	# PL_preambleav.845
	jne	.L487	#,
	.loc 1 2899 0
	call	Perl_newAV	#
	movq	%rax, PL_preambleav(%rip)	# PL_preambleav.846, PL_preambleav
.L487:
	.loc 1 2900 0
	movq	PL_preambleav(%rip), %rax	# PL_preambleav, PL_preambleav.847
	movq	-32(%rbp), %rdx	# sv, tmp542
	movq	%rdx, %rsi	# tmp542,
	movq	%rax, %rdi	# PL_preambleav.847,
	call	Perl_av_push	#
.LBE42:
	jmp	.L488	#
.L475:
	.loc 1 2903 0
	movq	-120(%rbp), %rax	# s, s.848
	subq	$1, %rax	#, D.14834
	movzbl	(%rax), %eax	# *_447, D.14835
	movsbl	%al, %eax	# D.14835, D.14836
	movl	%eax, %esi	# D.14836,
	movl	$.LC78, %edi	#,
	movl	$0, %eax	#,
	call	Perl_croak	#
.L488:
	.loc 1 2904 0
	movq	-120(%rbp), %rax	# s, D.14834
	jmp	.L496	#
.L366:
	.loc 1 2906 0
	movb	$1, PL_minus_n(%rip)	#, PL_minus_n
	.loc 1 2907 0
	movq	-120(%rbp), %rax	# s, s.849
	addq	$1, %rax	#, s.850
	movq	%rax, -120(%rbp)	# s.850, s
	.loc 1 2908 0
	movq	-120(%rbp), %rax	# s, D.14834
	jmp	.L496	#
.L367:
	.loc 1 2910 0
	movb	$1, PL_minus_p(%rip)	#, PL_minus_p
	.loc 1 2911 0
	movq	-120(%rbp), %rax	# s, s.851
	addq	$1, %rax	#, s.852
	movq	%rax, -120(%rbp)	# s.852, s
	.loc 1 2912 0
	movq	-120(%rbp), %rax	# s, D.14834
	jmp	.L496	#
.L368:
	.loc 1 2914 0
	movl	$.LC79, %edi	#,
	call	S_forbid_setid	#
	.loc 1 2915 0
	movb	$1, PL_doswitches(%rip)	#, PL_doswitches
	.loc 1 2916 0
	movq	-120(%rbp), %rax	# s, s.853
	addq	$1, %rax	#, s.854
	movq	%rax, -120(%rbp)	# s.854, s
	.loc 1 2917 0
	movq	-120(%rbp), %rax	# s, D.14834
	jmp	.L496	#
.L369:
	.loc 1 2919 0
	movzbl	PL_tainting(%rip), %eax	# PL_tainting, PL_tainting.855
	testb	%al, %al	# PL_tainting.855
	jne	.L489	#,
	.loc 1 2920 0
	movl	$.LC2, %edx	#,
	movl	$116, %esi	#,
	movl	$.LC80, %edi	#,
	movl	$0, %eax	#,
	call	Perl_croak	#
.L489:
	.loc 1 2921 0
	movq	-120(%rbp), %rax	# s, s.856
	addq	$1, %rax	#, s.857
	movq	%rax, -120(%rbp)	# s.857, s
	.loc 1 2922 0
	movq	-120(%rbp), %rax	# s, D.14834
	jmp	.L496	#
.L355:
	.loc 1 2924 0
	movzbl	PL_tainting(%rip), %eax	# PL_tainting, PL_tainting.858
	testb	%al, %al	# PL_tainting.858
	jne	.L490	#,
	.loc 1 2925 0
	movl	$.LC2, %edx	#,
	movl	$84, %esi	#,
	movl	$.LC80, %edi	#,
	movl	$0, %eax	#,
	call	Perl_croak	#
.L490:
	.loc 1 2926 0
	movq	-120(%rbp), %rax	# s, s.859
	addq	$1, %rax	#, s.860
	movq	%rax, -120(%rbp)	# s.860, s
	.loc 1 2927 0
	movq	-120(%rbp), %rax	# s, D.14834
	jmp	.L496	#
.L370:
	.loc 1 2932 0
	movb	$1, PL_do_undump(%rip)	#, PL_do_undump
	.loc 1 2933 0
	movq	-120(%rbp), %rax	# s, s.861
	addq	$1, %rax	#, s.862
	movq	%rax, -120(%rbp)	# s.862, s
	.loc 1 2934 0
	movq	-120(%rbp), %rax	# s, D.14834
	jmp	.L496	#
.L356:
	.loc 1 2936 0
	movb	$1, PL_unsafe(%rip)	#, PL_unsafe
	.loc 1 2937 0
	movq	-120(%rbp), %rax	# s, s.863
	addq	$1, %rax	#, s.864
	movq	%rax, -120(%rbp)	# s.864, s
	.loc 1 2938 0
	movq	-120(%rbp), %rax	# s, D.14834
	jmp	.L496	#
.L371:
	.loc 1 2941 0
	movq	PL_patchlevel(%rip), %rax	# PL_patchlevel, PL_patchlevel.865
	.loc 1 2942 0
	movl	$.LC81, %edx	#,
	movq	%rax, %rsi	# PL_patchlevel.865,
	movl	$.LC82, %edi	#,
	movl	$0, %eax	#,
	call	Perl_form	#
	movq	%rax, %rbx	#, D.14834
	.loc 1 2941 0
	call	Perl_PerlIO_stdout	#
	movq	%rbx, %rsi	# D.14834,
	movq	%rax, %rdi	# D.14843,
	movl	$0, %eax	#,
	call	PerlIO_printf	#
	.loc 1 2965 0
	call	Perl_PerlIO_stdout	#
	movl	$.LC83, %esi	#,
	movq	%rax, %rdi	# D.14843,
	movl	$0, %eax	#,
	call	PerlIO_printf	#
	.loc 1 3030 0
	call	Perl_PerlIO_stdout	#
	movl	$.LC84, %esi	#,
	movq	%rax, %rdi	# D.14843,
	movl	$0, %eax	#,
	call	PerlIO_printf	#
	.loc 1 3037 0
	movl	$0, %edi	#,
	call	Perl_my_exit	#
.L372:
	.loc 1 3039 0
	movzbl	PL_dowarn(%rip), %eax	# PL_dowarn, PL_dowarn.866
	movzbl	%al, %eax	# PL_dowarn.866, D.14836
	andl	$6, %eax	#, D.14836
	testl	%eax, %eax	# D.14836
	jne	.L491	#,
	.loc 1 3040 0
	movzbl	PL_dowarn(%rip), %eax	# PL_dowarn, PL_dowarn.867
	orl	$1, %eax	#, PL_dowarn.868
	movb	%al, PL_dowarn(%rip)	# PL_dowarn.868, PL_dowarn
.L491:
	.loc 1 3041 0
	movq	-120(%rbp), %rax	# s, s.869
	addq	$1, %rax	#, s.870
	movq	%rax, -120(%rbp)	# s.870, s
	.loc 1 3042 0
	movq	-120(%rbp), %rax	# s, D.14834
	jmp	.L496	#
.L357:
	.loc 1 3044 0
	movb	$3, PL_dowarn(%rip)	#, PL_dowarn
	.loc 1 3045 0
	movq	PL_compiling+80(%rip), %rax	# PL_compiling.cop_warnings, D.14841
	testq	%rax, %rax	# D.14841
	je	.L492	#,
	.loc 1 3045 0 is_stmt 0 discriminator 1
	movq	PL_compiling+80(%rip), %rax	# PL_compiling.cop_warnings, D.14841
	cmpq	$16, %rax	#, D.14841
	je	.L492	#,
	movq	PL_compiling+80(%rip), %rax	# PL_compiling.cop_warnings, D.14841
	cmpq	$32, %rax	#, D.14841
	je	.L492	#,
	.loc 1 3046 0 is_stmt 1
	movq	PL_compiling+80(%rip), %rax	# PL_compiling.cop_warnings, D.14841
	movq	%rax, %rdi	# D.14841,
	call	Perl_sv_free	#
.L492:
	.loc 1 3047 0
	movq	$16, PL_compiling+80(%rip)	#, PL_compiling.cop_warnings
	.loc 1 3048 0
	movq	-120(%rbp), %rax	# s, s.871
	addq	$1, %rax	#, s.872
	movq	%rax, -120(%rbp)	# s.872, s
	.loc 1 3049 0
	movq	-120(%rbp), %rax	# s, D.14834
	jmp	.L496	#
.L358:
	.loc 1 3051 0
	movb	$4, PL_dowarn(%rip)	#, PL_dowarn
	.loc 1 3052 0
	movq	PL_compiling+80(%rip), %rax	# PL_compiling.cop_warnings, D.14841
	testq	%rax, %rax	# D.14841
	je	.L493	#,
	.loc 1 3052 0 is_stmt 0 discriminator 1
	movq	PL_compiling+80(%rip), %rax	# PL_compiling.cop_warnings, D.14841
	cmpq	$16, %rax	#, D.14841
	je	.L493	#,
	movq	PL_compiling+80(%rip), %rax	# PL_compiling.cop_warnings, D.14841
	cmpq	$32, %rax	#, D.14841
	je	.L493	#,
	.loc 1 3053 0 is_stmt 1
	movq	PL_compiling+80(%rip), %rax	# PL_compiling.cop_warnings, D.14841
	movq	%rax, %rdi	# D.14841,
	call	Perl_sv_free	#
.L493:
	.loc 1 3054 0
	movq	$32, PL_compiling+80(%rip)	#, PL_compiling.cop_warnings
	.loc 1 3055 0
	movq	-120(%rbp), %rax	# s, s.873
	addq	$1, %rax	#, s.874
	movq	%rax, -120(%rbp)	# s.874, s
	.loc 1 3056 0
	movq	-120(%rbp), %rax	# s, D.14834
	jmp	.L496	#
.L347:
	.loc 1 3059 0
	movq	-120(%rbp), %rax	# s, s.875
	addq	$1, %rax	#, D.14834
	movzbl	(%rax), %eax	# *_502, D.14835
	cmpb	$45, %al	#, D.14835
	jne	.L494	#,
	.loc 1 3060 0
	movq	-120(%rbp), %rax	# s, s.876
	addq	$2, %rax	#, D.14834
	jmp	.L496	#
.L494:
	.loc 1 3061 0
	jmp	.L495	#
.L354:
	.loc 1 3075 0
	movzbl	PL_preprocess(%rip), %eax	# PL_preprocess, PL_preprocess.877
	testb	%al, %al	# PL_preprocess.877
	je	.L344	#,
	.loc 1 3076 0
	movq	-120(%rbp), %rax	# s, s.878
	addq	$1, %rax	#, D.14834
	jmp	.L496	#
.L344:
	.loc 1 3079 0
	movq	-120(%rbp), %rax	# s, s.879
	movq	%rax, %rsi	# s.879,
	movl	$.LC85, %edi	#,
	movl	$0, %eax	#,
	call	Perl_croak	#
	jmp	.L495	#
.L497:
	.loc 1 3069 0
	nop
.L495:
	.loc 1 3081 0
	movl	$0, %eax	#, D.14834
.L496:
	.loc 1 3082 0
	addq	$120, %rsp	#,
	popq	%rbx	#
	popq	%rbp	#
	.cfi_def_cfa 7, 8
	ret
	.cfi_endproc
.LFE26:
	.size	Perl_moreswitches, .-Perl_moreswitches
	.globl	Perl_my_unexec
	.type	Perl_my_unexec, @function
Perl_my_unexec:
.LFB27:
	.loc 1 3091 0
	.cfi_startproc
	pushq	%rbp	#
	.cfi_def_cfa_offset 16
	.cfi_offset 6, -16
	movq	%rsp, %rbp	#,
	.cfi_def_cfa_register 6
	.loc 1 3116 0
	popq	%rbp	#
	.cfi_def_cfa 7, 8
	ret
	.cfi_endproc
.LFE27:
	.size	Perl_my_unexec, .-Perl_my_unexec
	.section	.rodata
.LC86:
	.string	"/bin/sh"
.LC87:
	.string	" \n-"
	.text
	.type	S_init_interp, @function
S_init_interp:
.LFB28:
	.loc 1 3121 0
	.cfi_startproc
	pushq	%rbp	#
	.cfi_def_cfa_offset 16
	.cfi_offset 6, -16
	movq	%rsp, %rbp	#,
	.cfi_def_cfa_register 6
	.file 2 "intrpvar.h"
	.loc 2 33 0
	movq	$.LC14, PL_splitstr(%rip)	#, PL_splitstr
	.loc 2 63 0
	movl	$0, PL_perl_destruct_level(%rip)	#, PL_perl_destruct_level
	.loc 2 70 0
	movl	$2, PL_maxsysfd(%rip)	#, PL_maxsysfd
	.loc 2 137 0
	movl	$1, PL_sub_generation(%rip)	#, PL_sub_generation
	.loc 2 153 0
	movq	$0, PL_op_mask(%rip)	#, PL_op_mask
	.loc 2 163 0
	movq	$0, PL_curcopdb(%rip)	#, PL_curcopdb
	.loc 2 164 0
	movl	$-1, PL_copline(%rip)	#, PL_copline
	.loc 2 172 0
	movl	$0, PL_gensym(%rip)	#, PL_gensym
	.loc 2 175 0
	movl	$-1, PL_laststatval(%rip)	#, PL_laststatval
	.loc 2 176 0
	movl	$235, PL_laststype(%rip)	#, PL_laststype
	.loc 2 184 0
	movq	$0, PL_exitlist(%rip)	#, PL_exitlist
	.loc 2 186 0
	movl	$0, PL_exitlistlen(%rip)	#, PL_exitlistlen
	.loc 2 203 0
	movq	$0, PL_profiledata(%rip)	#, PL_profiledata
	.loc 2 204 0
	movq	$0, PL_rsfp(%rip)	#, PL_rsfp
	.loc 2 205 0
	movq	$0, PL_rsfp_filters(%rip)	#, PL_rsfp_filters
	.loc 2 221 0
	movl	$100, PL_generation(%rip)	#, PL_generation
	.loc 2 224 0
	movb	$0, PL_in_clean_objs(%rip)	#, PL_in_clean_objs
	.loc 2 225 0
	movb	$0, PL_in_clean_all(%rip)	#, PL_in_clean_all
	.loc 2 242 0
	movl	$0, PL_an(%rip)	#, PL_an
	.loc 2 243 0
	movl	$0, PL_cop_seqmax(%rip)	#, PL_cop_seqmax
	.loc 2 244 0
	movw	$0, PL_op_seqmax(%rip)	#, PL_op_seqmax
	.loc 2 245 0
	movl	$0, PL_evalseq(%rip)	#, PL_evalseq
	.loc 2 249 0
	movl	$352, PL_maxo(%rip)	#, PL_maxo
	.loc 2 253 0
	movq	$.LC86, PL_sh_path_compat(%rip)	#, PL_sh_path_compat
	.loc 2 274 0
	movq	$Perl_runops_standard, PL_runops(%rip)	#, PL_runops
	.loc 2 298 0
	movq	$.LC2, PL_cshname(%rip)	#, PL_cshname
	.loc 2 299 0
	movl	$0, PL_cshlen(%rip)	#, PL_cshlen
	.loc 2 328 0
	movl	$3, PL_expect(%rip)	#, PL_expect
	.loc 2 358 0
	movq	$0, PL_amagic_generation(%rip)	#, PL_amagic_generation
	.loc 2 414 0
	movl	$0, PL_glob_index(%rip)	#, PL_glob_index
	.loc 2 457 0
	movq	$0, PL_beginav_save(%rip)	#, PL_beginav_save
	.loc 2 482 0
	movl	$0, PL_sig_pending(%rip)	#, PL_sig_pending
	.loc 2 500 0
	movb	$0, PL_savebegin(%rip)	#, PL_savebegin
	.loc 2 506 0
	movq	$0, PL_perlio(%rip)	#, PL_perlio
	.loc 2 507 0
	movq	$0, PL_known_layers(%rip)	#, PL_known_layers
	.loc 2 508 0
	movq	$0, PL_def_layerlist(%rip)	#, PL_def_layerlist
	.loc 2 511 0
	movq	$0, PL_encoding(%rip)	#, PL_encoding
	.loc 2 530 0
	movq	$0, PL_checkav_save(%rip)	#, PL_checkav_save
	.loc 2 532 0
	movq	$0, PL_clocktick(%rip)	#, PL_clocktick
	.loc 2 534 0
	movl	$0, PL_in_load_module(%rip)	#, PL_in_load_module
	.loc 2 545 0
	movq	$Perl_sv_nosharing, PL_sharehook(%rip)	#, PL_sharehook
	.loc 2 546 0
	movq	$Perl_sv_nolocking, PL_lockhook(%rip)	#, PL_lockhook
	.loc 2 547 0
	movq	$Perl_sv_nounlocking, PL_unlockhook(%rip)	#, PL_unlockhook
	.loc 2 548 0
	movq	$Perl_nothreadhook, PL_threadhook(%rip)	#, PL_threadhook
	.loc 2 551 0
	movq	$Perl_runops_standard, PL_runops_std(%rip)	#, PL_runops_std
	.loc 2 552 0
	movq	$Perl_runops_debug, PL_runops_dbg(%rip)	#, PL_runops_dbg
	.loc 2 559 0
	movq	$0, PL_hash_seed(%rip)	#, PL_hash_seed
	.loc 2 561 0
	movb	$0, PL_hash_seed_set(%rip)	#, PL_hash_seed_set
	.loc 2 563 0
	movq	$0, PL_rehash_seed(%rip)	#, PL_rehash_seed
	.loc 2 565 0
	movb	$0, PL_rehash_seed_set(%rip)	#, PL_rehash_seed_set
	.loc 2 570 0
	movl	$-1, PL_fdscript(%rip)	#, PL_fdscript
	.loc 2 571 0
	movl	$-1, PL_suidscript(%rip)	#, PL_suidscript
	.file 3 "thrdvar.h"
	.loc 3 55 0
	movl	$-1, PL_tmps_ix(%rip)	#, PL_tmps_ix
	.loc 3 56 0
	movl	$-1, PL_tmps_floor(%rip)	#, PL_tmps_floor
	.loc 3 88 0
	movq	$0, PL_statname(%rip)	#, PL_statname
	.loc 3 119 0
	movq	$.LC87, PL_chopset(%rip)	#, PL_chopset
	.loc 3 129 0
	movq	$PL_compiling, PL_curcop(%rip)	#, PL_curcop
	.loc 3 132 0
	movb	$0, PL_dirty(%rip)	#, PL_dirty
	.loc 3 144 0
	movq	$0, PL_errors(%rip)	#, PL_errors
	.loc 3 154 0
	movl	$4, PL_dumpindent(%rip)	#, PL_dumpindent
	.loc 3 171 0
	movl	$-1, PL_maxscream(%rip)	#, PL_maxscream
	.loc 3 210 0
	movl	$0, PL_regindent(%rip)	#, PL_regindent
	.loc 3 218 0
	movq	$0, PL_reg_oldcurpm(%rip)	#, PL_reg_oldcurpm
	.loc 3 219 0
	movq	$0, PL_reg_curpm(%rip)	#, PL_reg_curpm
	.loc 3 224 0
	movq	$0, PL_reg_poscache(%rip)	#, PL_reg_poscache
	.loc 3 227 0
	movq	$Perl_peep, PL_peepp(%rip)	#, PL_peepp
	.loc 3 229 0
	movq	$Perl_pregcomp, PL_regcompp(%rip)	#, PL_regcompp
	.loc 3 231 0
	movq	$Perl_regexec_flags, PL_regexecp(%rip)	#, PL_regexecp
	.loc 3 233 0
	movq	$Perl_re_intuit_start, PL_regint_start(%rip)	#, PL_regint_start
	.loc 3 235 0
	movq	$Perl_re_intuit_string, PL_regint_string(%rip)	#, PL_regint_string
	.loc 3 237 0
	movq	$Perl_pregfree, PL_regfree(%rip)	#, PL_regfree
	.loc 3 240 0
	movl	$0, PL_reginterp_cnt(%rip)	#, PL_reginterp_cnt
	.loc 3 242 0
	movq	$0, PL_reg_starttry(%rip)	#, PL_reg_starttry
	.loc 3 243 0
	movq	$0, PL_watchaddr(%rip)	#, PL_watchaddr
	.loc 1 3161 0
	popq	%rbp	#
	.cfi_def_cfa 7, 8
	ret
	.cfi_endproc
.LFE28:
	.size	S_init_interp, .-S_init_interp
	.section	.rodata
.LC88:
	.string	"main"
.LC89:
	.string	"main::"
.LC90:
	.string	"INC"
.LC91:
	.string	"\b"
.LC92:
	.string	"_"
.LC93:
	.string	"@"
.LC94:
	.string	"\022"
.LC95:
	.string	"%240s"
.LC96:
	.string	"DB::"
.LC97:
	.string	"CORE::GLOBAL::"
.LC98:
	.string	"<none>::"
	.text
	.type	S_init_main_stash, @function
S_init_main_stash:
.LFB29:
	.loc 1 3165 0
	.cfi_startproc
	pushq	%rbp	#
	.cfi_def_cfa_offset 16
	.cfi_offset 6, -16
	movq	%rsp, %rbp	#,
	.cfi_def_cfa_register 6
	pushq	%rbx	#
	subq	$24, %rsp	#,
	.cfi_offset 3, -24
	.loc 1 3168 0
	call	Perl_newHV	#
	movq	%rax, PL_defstash(%rip)	# PL_defstash.880, PL_defstash
	movq	PL_defstash(%rip), %rax	# PL_defstash, PL_defstash.881
	movq	%rax, PL_curstash(%rip)	# PL_defstash.881, PL_curstash
	.loc 1 3169 0
	movl	$4, %esi	#,
	movl	$.LC88, %edi	#,
	call	Perl_newSVpvn	#
	movq	%rax, PL_curstname(%rip)	# PL_curstname.882, PL_curstname
	.loc 1 3170 0
	movl	$11, %edx	#,
	movl	$1, %esi	#,
	movl	$.LC89, %edi	#,
	call	Perl_gv_fetchpv	#
	movq	%rax, -24(%rbp)	# tmp136, gv
	.loc 1 3171 0
	movq	-24(%rbp), %rax	# gv, tmp137
	movq	(%rax), %rax	# gv_4->sv_any, D.14874
	movq	56(%rax), %rax	# _5->xgv_gp, D.14875
	movq	40(%rax), %rax	# _6->gp_hv, D.14876
	movq	%rax, %rdi	# D.14876,
	call	Perl_sv_free	#
	.loc 1 3172 0
	movq	PL_defstash(%rip), %rax	# PL_defstash, PL_defstash.883
	movq	%rax, PL_Sv(%rip)	# PL_defstash.883, PL_Sv
	movq	PL_Sv(%rip), %rax	# PL_Sv, PL_Sv.885
	testq	%rax, %rax	# PL_Sv.885
	je	.L502	#,
	.loc 1 3172 0 is_stmt 0 discriminator 1
	movq	PL_Sv(%rip), %rax	# PL_Sv, PL_Sv.886
	movl	8(%rax), %edx	# PL_Sv.886_10->sv_refcnt, D.14877
	addl	$1, %edx	#, D.14877
	movl	%edx, 8(%rax)	# D.14877, PL_Sv.886_10->sv_refcnt
	movl	8(%rax), %eax	# PL_Sv.886_10->sv_refcnt, D.14877
	testl	%eax, %eax	# D.14877
	je	.L502	#,
	.loc 1 3172 0
	nop
.L502:
	.loc 1 3172 0 discriminator 4
	movq	-24(%rbp), %rax	# gv, tmp138
	movq	(%rax), %rax	# gv_4->sv_any, D.14874
	movq	56(%rax), %rax	# _16->xgv_gp, D.14875
	movq	PL_Sv(%rip), %rdx	# PL_Sv, PL_Sv.887
	movq	%rdx, 40(%rax)	# PL_Sv.887, _17->gp_hv
	.loc 1 3173 0 is_stmt 1 discriminator 4
	movq	-24(%rbp), %rax	# gv, tmp139
	movl	12(%rax), %eax	# gv_4->sv_flags, D.14877
	orl	$8388608, %eax	#, D.14877
	movl	%eax, %edx	# D.14877, D.14877
	movq	-24(%rbp), %rax	# gv, tmp140
	movl	%edx, 12(%rax)	# D.14877, gv_4->sv_flags
	.loc 1 3174 0 discriminator 4
	movq	PL_defstash(%rip), %rax	# PL_defstash, PL_defstash.888
	movq	(%rax), %rbx	# PL_defstash.888_21->sv_any, D.14878
	movl	$.LC88, %edi	#,
	call	Perl_savepv	#
	movq	%rax, 80(%rbx)	# D.14879, _22->xhv_name
	.loc 1 3175 0 discriminator 4
	movl	$10, %edx	#,
	movl	$1, %esi	#,
	movl	$.LC90, %edi	#,
	call	Perl_gv_fetchpv	#
	movq	%rax, %rdi	# D.14880,
	call	Perl_gv_AVadd	#
	movq	%rax, %rdi	# D.14880,
	call	Perl_gv_HVadd	#
	movq	%rax, PL_incgv(%rip)	# PL_incgv.889, PL_incgv
	.loc 1 3176 0 discriminator 4
	movq	PL_incgv(%rip), %rax	# PL_incgv, PL_incgv.890
	movq	(%rax), %rax	# PL_incgv.890_27->sv_any, D.14874
	movq	PL_incgv(%rip), %rdx	# PL_incgv, PL_incgv.891
	movq	(%rdx), %rdx	# PL_incgv.891_29->sv_any, D.14874
	movzbl	88(%rdx), %edx	# _30->xgv_flags, D.14881
	orl	$2, %edx	#, D.14881
	movb	%dl, 88(%rax)	# D.14881, _28->xgv_flags
	.loc 1 3177 0 discriminator 4
	movl	$4, %edx	#,
	movl	$1, %esi	#,
	movl	$.LC91, %edi	#,
	call	Perl_gv_fetchpv	#
	movq	%rax, PL_hintgv(%rip)	# PL_hintgv.892, PL_hintgv
	.loc 1 3178 0 discriminator 4
	movq	PL_hintgv(%rip), %rax	# PL_hintgv, PL_hintgv.893
	movq	(%rax), %rax	# PL_hintgv.893_34->sv_any, D.14874
	movq	PL_hintgv(%rip), %rdx	# PL_hintgv, PL_hintgv.894
	movq	(%rdx), %rdx	# PL_hintgv.894_36->sv_any, D.14874
	movzbl	88(%rdx), %edx	# _37->xgv_flags, D.14881
	orl	$2, %edx	#, D.14881
	movb	%dl, 88(%rax)	# D.14881, _35->xgv_flags
	.loc 1 3179 0 discriminator 4
	movl	$10, %edx	#,
	movl	$1, %esi	#,
	movl	$.LC92, %edi	#,
	call	Perl_gv_fetchpv	#
	movq	%rax, PL_defgv(%rip)	# PL_defgv.895, PL_defgv
	.loc 1 3180 0 discriminator 4
	movl	$4, %edx	#,
	movl	$1, %esi	#,
	movl	$.LC93, %edi	#,
	call	Perl_gv_fetchpv	#
	movq	%rax, %rdi	# D.14880,
	call	Perl_gv_HVadd	#
	movq	%rax, PL_errgv(%rip)	# PL_errgv.896, PL_errgv
	.loc 1 3181 0 discriminator 4
	movq	PL_errgv(%rip), %rax	# PL_errgv, PL_errgv.897
	movq	(%rax), %rax	# PL_errgv.897_43->sv_any, D.14874
	movq	PL_errgv(%rip), %rdx	# PL_errgv, PL_errgv.898
	movq	(%rdx), %rdx	# PL_errgv.898_45->sv_any, D.14874
	movzbl	88(%rdx), %edx	# _46->xgv_flags, D.14881
	orl	$2, %edx	#, D.14881
	movb	%dl, 88(%rax)	# D.14881, _44->xgv_flags
	.loc 1 3182 0 discriminator 4
	movl	$4, %edx	#,
	movl	$1, %esi	#,
	movl	$.LC94, %edi	#,
	call	Perl_gv_fetchpv	#
	movq	%rax, PL_replgv(%rip)	# PL_replgv.899, PL_replgv
	.loc 1 3183 0 discriminator 4
	movq	PL_replgv(%rip), %rax	# PL_replgv, PL_replgv.900
	movq	(%rax), %rax	# PL_replgv.900_50->sv_any, D.14874
	movq	PL_replgv(%rip), %rdx	# PL_replgv, PL_replgv.901
	movq	(%rdx), %rdx	# PL_replgv.901_52->sv_any, D.14874
	movzbl	88(%rdx), %edx	# _53->xgv_flags, D.14881
	orl	$2, %edx	#, D.14881
	movb	%dl, 88(%rax)	# D.14881, _51->xgv_flags
	.loc 1 3184 0 discriminator 4
	movl	$.LC2, %esi	#,
	movl	$.LC95, %edi	#,
	movl	$0, %eax	#,
	call	Perl_form	#
	.loc 1 3185 0 discriminator 4
	movq	PL_errgv(%rip), %rax	# PL_errgv, PL_errgv.902
	movq	(%rax), %rax	# PL_errgv.902_56->sv_any, D.14874
	movq	56(%rax), %rax	# _57->xgv_gp, D.14875
	movq	(%rax), %rax	# _58->gp_sv, D.14882
	movl	$240, %esi	#,
	movq	%rax, %rdi	# D.14882,
	call	Perl_sv_grow	#
	.loc 1 3186 0 discriminator 4
	movq	PL_errgv(%rip), %rax	# PL_errgv, PL_errgv.903
	movq	(%rax), %rax	# PL_errgv.903_60->sv_any, D.14874
	movq	56(%rax), %rax	# _61->xgv_gp, D.14875
	movq	(%rax), %rax	# _62->gp_sv, D.14882
	movl	$0, %edx	#,
	movl	$.LC2, %esi	#,
	movq	%rax, %rdi	# D.14882,
	call	Perl_sv_setpvn	#
	.loc 1 3187 0 discriminator 4
	movq	PL_defstash(%rip), %rax	# PL_defstash, PL_defstash.904
	movq	%rax, PL_curstash(%rip)	# PL_defstash.904, PL_curstash
	.loc 1 3188 0 discriminator 4
	movq	PL_defstash(%rip), %rax	# PL_defstash, PL_defstash.905
	movq	%rax, PL_compiling+48(%rip)	# PL_defstash.905, PL_compiling.cop_stash
	.loc 1 3189 0 discriminator 4
	movl	$11, %edx	#,
	movl	$2, %esi	#,
	movl	$.LC96, %edi	#,
	call	Perl_gv_fetchpv	#
	movq	(%rax), %rax	# _66->sv_any, D.14874
	movq	56(%rax), %rax	# _67->xgv_gp, D.14875
	movq	40(%rax), %rax	# _68->gp_hv, PL_debstash.906
	movq	%rax, PL_debstash(%rip)	# PL_debstash.906, PL_debstash
	.loc 1 3190 0 discriminator 4
	movl	$11, %edx	#,
	movl	$2, %esi	#,
	movl	$.LC97, %edi	#,
	call	Perl_gv_fetchpv	#
	movq	(%rax), %rax	# _70->sv_any, D.14874
	movq	56(%rax), %rax	# _71->xgv_gp, D.14875
	movq	40(%rax), %rax	# _72->gp_hv, PL_globalstash.907
	movq	%rax, PL_globalstash(%rip)	# PL_globalstash.907, PL_globalstash
	.loc 1 3191 0 discriminator 4
	movl	$11, %edx	#,
	movl	$2, %esi	#,
	movl	$.LC98, %edi	#,
	call	Perl_gv_fetchpv	#
	movq	(%rax), %rax	# _74->sv_any, D.14874
	movq	56(%rax), %rax	# _75->xgv_gp, D.14875
	movq	40(%rax), %rax	# _76->gp_hv, PL_nullstash.908
	movq	%rax, PL_nullstash(%rip)	# PL_nullstash.908, PL_nullstash
	.loc 1 3193 0 discriminator 4
	movl	$1, %esi	#,
	movl	$.LC59, %edi	#,
	call	Perl_get_sv	#
	movl	$1, %edx	#,
	movl	$.LC0, %esi	#,
	movq	%rax, %rdi	# D.14882,
	call	Perl_sv_setpvn	#
	.loc 1 3194 0 discriminator 4
	addq	$24, %rsp	#,
	popq	%rbx	#
	popq	%rbp	#
	.cfi_def_cfa 7, 8
	ret
	.cfi_endproc
.LFE29:
	.size	S_init_main_stash, .-S_init_main_stash
	.section	.rodata
.LC99:
	.string	"/dev/fd/"
	.align 8
.LC100:
	.string	"Wrong syntax (suid) fd script name \"%s\"\n"
	.align 8
.LC101:
	.string	"Missing (suid) fd script name\n"
.LC102:
	.string	"r"
.LC103:
	.string	"program input from stdin"
	.align 8
.LC104:
	.string	"Can't open perl script \"%s\": %s\n"
	.text
	.type	S_open_script, @function
S_open_script:
.LFB30:
	.loc 1 3199 0
	.cfi_startproc
	pushq	%rbp	#
	.cfi_def_cfa_offset 16
	.cfi_offset 6, -16
	movq	%rsp, %rbp	#,
	.cfi_def_cfa_register 6
	subq	$48, %rsp	#,
	movq	%rdi, -24(%rbp)	# scriptname, scriptname
	movl	%esi, %eax	# dosearch, tmp127
	movq	%rdx, -40(%rbp)	# sv, sv
	movb	%al, -28(%rbp)	# tmp127, dosearch
	.loc 1 3207 0
	movl	$-1, PL_fdscript(%rip)	#, PL_fdscript
	.loc 1 3208 0
	movl	$-1, PL_suidscript(%rip)	#, PL_suidscript
	.loc 1 3210 0
	movq	PL_e_script(%rip), %rax	# PL_e_script, PL_e_script.909
	testq	%rax, %rax	# PL_e_script.909
	je	.L504	#,
	.loc 1 3211 0
	movl	$.LC11, %edi	#,
	call	Perl_savepv	#
	movq	%rax, PL_origfilename(%rip)	# PL_origfilename.910, PL_origfilename
	jmp	.L505	#
.L504:
	.loc 1 3215 0
	movsbl	-28(%rbp), %esi	# dosearch, D.14894
	movq	-24(%rbp), %rax	# scriptname, tmp128
	movl	$1, %ecx	#,
	movl	$0, %edx	#,
	movq	%rax, %rdi	# tmp128,
	call	Perl_find_script	#
	movq	%rax, -24(%rbp)	# tmp129, scriptname
	movq	-24(%rbp), %rax	# scriptname, tmp130
	movq	%rax, PL_origfilename(%rip)	# tmp130, PL_origfilename
	.loc 1 3217 0
	movq	-24(%rbp), %rax	# scriptname, tmp131
	movl	$8, %edx	#,
	movl	$.LC99, %esi	#,
	movq	%rax, %rdi	# tmp131,
	call	strncmp	#
	testl	%eax, %eax	# D.14894
	jne	.L505	#,
	.loc 1 3217 0 is_stmt 0 discriminator 1
	movq	-24(%rbp), %rax	# scriptname, tmp132
	addq	$8, %rax	#, D.14895
	movzbl	(%rax), %eax	# *_13, D.14896
	cmpb	$47, %al	#, D.14896
	jle	.L505	#,
	movq	-24(%rbp), %rax	# scriptname, tmp133
	addq	$8, %rax	#, D.14895
	movzbl	(%rax), %eax	# *_15, D.14896
	cmpb	$57, %al	#, D.14896
	jg	.L505	#,
.LBB43:
	.loc 1 3218 0 is_stmt 1
	movq	-24(%rbp), %rax	# scriptname, tmp137
	addq	$8, %rax	#, tmp136
	movq	%rax, -8(%rbp)	# tmp136, s
	.loc 1 3219 0
	movq	-8(%rbp), %rax	# s, tmp138
	movq	%rax, %rdi	# tmp138,
	call	atoi	#
	movl	%eax, PL_fdscript(%rip)	# PL_fdscript.911, PL_fdscript
	.loc 1 3220 0
	jmp	.L506	#
.L508:
	.loc 1 3221 0
	addq	$1, -8(%rbp)	#, s
.L506:
	.loc 1 3220 0 discriminator 1
	movq	-8(%rbp), %rax	# s, tmp139
	movzbl	(%rax), %eax	# *s_3, D.14896
	cmpb	$47, %al	#, D.14896
	jle	.L507	#,
	.loc 1 3220 0 is_stmt 0 discriminator 2
	movq	-8(%rbp), %rax	# s, tmp140
	movzbl	(%rax), %eax	# *s_3, D.14896
	cmpb	$57, %al	#, D.14896
	jle	.L508	#,
.L507:
	.loc 1 3222 0 is_stmt 1
	movq	-8(%rbp), %rax	# s, tmp141
	movzbl	(%rax), %eax	# *s_3, D.14896
	testb	%al, %al	# D.14896
	je	.L505	#,
	.loc 1 3232 0
	movl	$1, PL_suidscript(%rip)	#, PL_suidscript
	.loc 1 3237 0
	movq	-8(%rbp), %rax	# s, tmp142
	movzbl	(%rax), %eax	# *s_3, D.14896
	cmpb	$47, %al	#, D.14896
	je	.L509	#,
	.loc 1 3238 0
	movq	-8(%rbp), %rax	# s, tmp143
	movq	%rax, %rsi	# tmp143,
	movl	$.LC100, %edi	#,
	movl	$0, %eax	#,
	call	Perl_croak	#
.L509:
	.loc 1 3240 0
	movq	-8(%rbp), %rax	# s, tmp144
	addq	$1, %rax	#, D.14895
	movzbl	(%rax), %eax	# *_24, D.14896
	testb	%al, %al	# D.14896
	jne	.L510	#,
	.loc 1 3241 0
	movl	$.LC101, %edi	#,
	movl	$0, %eax	#,
	call	Perl_croak	#
.L510:
	.loc 1 3243 0
	movq	-8(%rbp), %rax	# s, tmp145
	addq	$1, %rax	#, D.14897
	movq	%rax, %rdi	# D.14897,
	call	Perl_savepv	#
	movq	%rax, -24(%rbp)	# tmp146, scriptname
	.loc 1 3244 0
	movq	PL_origfilename(%rip), %rax	# PL_origfilename, PL_origfilename.912
	movq	%rax, %rdi	# PL_origfilename.912,
	call	Perl_safesysfree	#
	.loc 1 3245 0
	movq	-24(%rbp), %rax	# scriptname, tmp147
	movq	%rax, PL_origfilename(%rip)	# tmp147, PL_origfilename
.L505:
.LBE43:
	.loc 1 3250 0
	movq	PL_curcop(%rip), %rax	# PL_curcop, PL_curcop.913
	movq	56(%rax), %rax	# PL_curcop.913_29->cop_filegv, D.14898
	movq	%rax, %rdi	# D.14898,
	call	Perl_sv_free	#
	movq	PL_curcop(%rip), %rax	# PL_curcop, PL_curcop.914
	movq	$0, 56(%rax)	#, PL_curcop.914_31->cop_filegv
	.loc 1 3251 0
	movq	PL_origfilename(%rip), %rax	# PL_origfilename, PL_origfilename.915
	movq	%rax, %rdi	# PL_origfilename.915,
	call	Perl_gv_fetchfile	#
	movq	%rax, PL_Sv(%rip)	# PL_Sv.916, PL_Sv
	movq	PL_Sv(%rip), %rax	# PL_Sv, PL_Sv.918
	testq	%rax, %rax	# PL_Sv.918
	je	.L512	#,
	.loc 1 3251 0 is_stmt 0 discriminator 1
	movq	PL_Sv(%rip), %rax	# PL_Sv, PL_Sv.919
	movl	8(%rax), %edx	# PL_Sv.919_35->sv_refcnt, D.14899
	addl	$1, %edx	#, D.14899
	movl	%edx, 8(%rax)	# D.14899, PL_Sv.919_35->sv_refcnt
	movl	8(%rax), %eax	# PL_Sv.919_35->sv_refcnt, D.14899
	testl	%eax, %eax	# D.14899
	je	.L512	#,
	.loc 1 3251 0
	nop
.L512:
	.loc 1 3251 0 discriminator 4
	movq	PL_curcop(%rip), %rax	# PL_curcop, PL_curcop.920
	movq	PL_Sv(%rip), %rdx	# PL_Sv, PL_Sv.921
	movq	%rdx, 56(%rax)	# PL_Sv.921, PL_curcop.920_41->cop_filegv
	.loc 1 3252 0 is_stmt 1 discriminator 4
	movq	PL_origfilename(%rip), %rax	# PL_origfilename, PL_origfilename.922
	movzbl	(%rax), %eax	# *PL_origfilename.922_43, D.14896
	cmpb	$45, %al	#, D.14896
	jne	.L513	#,
	.loc 1 3252 0 is_stmt 0 discriminator 1
	movq	PL_origfilename(%rip), %rax	# PL_origfilename, PL_origfilename.923
	addq	$1, %rax	#, D.14895
	movzbl	(%rax), %eax	# *_46, D.14896
	testb	%al, %al	# D.14896
	jne	.L513	#,
	.loc 1 3253 0 is_stmt 1
	movq	$.LC2, -24(%rbp)	#, scriptname
.L513:
	.loc 1 3254 0
	movl	PL_fdscript(%rip), %eax	# PL_fdscript, PL_fdscript.924
	testl	%eax, %eax	# PL_fdscript.924
	js	.L514	#,
	.loc 1 3255 0
	movl	PL_fdscript(%rip), %eax	# PL_fdscript, PL_fdscript.925
	movl	$.LC102, %esi	#,
	movl	%eax, %edi	# PL_fdscript.925,
	call	PerlIO_fdopen	#
	movq	%rax, PL_rsfp(%rip)	# PL_rsfp.926, PL_rsfp
	.loc 1 3257 0
	movq	PL_rsfp(%rip), %rax	# PL_rsfp, PL_rsfp.927
	testq	%rax, %rax	# PL_rsfp.927
	je	.L516	#,
	.loc 1 3259 0
	movq	PL_rsfp(%rip), %rax	# PL_rsfp, PL_rsfp.928
	movq	%rax, %rdi	# PL_rsfp.928,
	call	Perl_PerlIO_fileno	#
	movl	$1, %edx	#,
	movl	$2, %esi	#,
	movl	%eax, %edi	# D.14894,
	movl	$0, %eax	#,
	call	fcntl	#
	jmp	.L516	#
.L514:
	.loc 1 3346 0
	movq	-24(%rbp), %rax	# scriptname, tmp148
	movzbl	(%rax), %eax	# *scriptname_2, D.14896
	testb	%al, %al	# D.14896
	jne	.L517	#,
	.loc 1 3347 0
	movl	$.LC103, %edi	#,
	call	S_forbid_setid	#
	.loc 1 3348 0
	call	Perl_PerlIO_stdin	#
	movq	%rax, PL_rsfp(%rip)	# PL_rsfp.929, PL_rsfp
	jmp	.L516	#
.L517:
	.loc 1 3351 0
	movq	-24(%rbp), %rax	# scriptname, tmp149
	movl	$.LC102, %esi	#,
	movq	%rax, %rdi	# tmp149,
	call	PerlIO_open	#
	movq	%rax, PL_rsfp(%rip)	# PL_rsfp.930, PL_rsfp
	.loc 1 3353 0
	movq	PL_rsfp(%rip), %rax	# PL_rsfp, PL_rsfp.931
	testq	%rax, %rax	# PL_rsfp.931
	je	.L516	#,
	.loc 1 3355 0
	movq	PL_rsfp(%rip), %rax	# PL_rsfp, PL_rsfp.932
	movq	%rax, %rdi	# PL_rsfp.932,
	call	Perl_PerlIO_fileno	#
	movl	$1, %edx	#,
	movl	$2, %esi	#,
	movl	%eax, %edi	# D.14894,
	movl	$0, %eax	#,
	call	fcntl	#
.L516:
	.loc 1 3359 0
	movq	PL_rsfp(%rip), %rax	# PL_rsfp, PL_rsfp.933
	testq	%rax, %rax	# PL_rsfp.933
	jne	.L503	#,
	.loc 1 3362 0
	call	__errno_location	#
	.loc 1 3361 0
	movl	(%rax), %eax	# *_62, D.14894
	movl	%eax, %edi	# D.14894,
	call	strerror	#
	movq	%rax, %rdx	#, D.14895
	.loc 1 3362 0
	movq	PL_curcop(%rip), %rax	# PL_curcop, PL_curcop.935
	movq	56(%rax), %rax	# PL_curcop.935_65->cop_filegv, D.14898
	.loc 1 3361 0
	testq	%rax, %rax	# D.14898
	je	.L519	#,
	.loc 1 3362 0
	movq	PL_curcop(%rip), %rax	# PL_curcop, PL_curcop.936
	movq	56(%rax), %rax	# PL_curcop.936_67->cop_filegv, D.14898
	movq	(%rax), %rax	# _68->sv_any, D.14901
	movq	56(%rax), %rax	# _69->xgv_gp, D.14902
	movq	(%rax), %rax	# _70->gp_sv, D.14903
	testq	%rax, %rax	# D.14903
	je	.L519	#,
	.loc 1 3362 0 is_stmt 0 discriminator 1
	movq	PL_curcop(%rip), %rax	# PL_curcop, PL_curcop.938
	movq	56(%rax), %rax	# PL_curcop.938_72->cop_filegv, D.14898
	testq	%rax, %rax	# D.14898
	je	.L520	#,
	movq	PL_curcop(%rip), %rax	# PL_curcop, PL_curcop.939
	movq	56(%rax), %rax	# PL_curcop.939_74->cop_filegv, D.14898
	movq	(%rax), %rax	# _75->sv_any, D.14901
	movq	56(%rax), %rax	# _76->xgv_gp, D.14902
	movq	(%rax), %rax	# _77->gp_sv, iftmp.937
	jmp	.L521	#
.L520:
	.loc 1 3362 0 discriminator 2
	movl	$0, %eax	#, iftmp.937
.L521:
	.loc 1 3362 0 discriminator 3
	movq	(%rax), %rax	# iftmp.937_5->sv_any, D.14904
	.loc 1 3361 0 is_stmt 1 discriminator 3
	movq	(%rax), %rax	# MEM[(struct XPV *)_80].xpv_pv, iftmp.934
	jmp	.L522	#
.L519:
	.loc 1 3361 0 is_stmt 0 discriminator 1
	movl	$0, %eax	#, iftmp.934
.L522:
	.loc 1 3361 0 discriminator 2
	movq	%rax, %rsi	# iftmp.934,
	movl	$.LC104, %edi	#,
	movl	$0, %eax	#,
	call	Perl_croak	#
.L503:
	.loc 1 3364 0 is_stmt 1
	leave
	.cfi_def_cfa 7, 8
	ret
	.cfi_endproc
.LFE30:
	.size	S_open_script, .-S_open_script
	.section	.rodata
	.align 8
.LC105:
	.string	"YOU HAVEN'T DISABLED SET-ID SCRIPTS IN THE KERNEL YET!\nFIX YOUR KERNEL, PUT A C WRAPPER AROUND THIS SCRIPT, OR USE -u AND UNDUMP!\n"
	.text
	.type	S_validate_suid, @function
S_validate_suid:
.LFB31:
	.loc 1 3503 0
	.cfi_startproc
	pushq	%rbp	#
	.cfi_def_cfa_offset 16
	.cfi_offset 6, -16
	movq	%rsp, %rbp	#,
	.cfi_def_cfa_register 6
	subq	$16, %rsp	#,
	movq	%rdi, -8(%rbp)	# validarg, validarg
	movq	%rsi, -16(%rbp)	# scriptname, scriptname
	.loc 1 3882 0
	movl	PL_euid(%rip), %edx	# PL_euid, PL_euid.940
	movl	PL_uid(%rip), %eax	# PL_uid, PL_uid.941
	cmpl	%eax, %edx	# PL_uid.941, PL_euid.940
	jne	.L524	#,
	.loc 1 3882 0 is_stmt 0 discriminator 1
	movl	PL_egid(%rip), %edx	# PL_egid, PL_egid.942
	movl	PL_gid(%rip), %eax	# PL_gid, PL_gid.943
	cmpl	%eax, %edx	# PL_gid.943, PL_egid.942
	je	.L523	#,
.L524:
	.loc 1 3884 0 is_stmt 1
	movq	PL_rsfp(%rip), %rax	# PL_rsfp, PL_rsfp.944
	movq	%rax, %rdi	# PL_rsfp.944,
	call	Perl_PerlIO_fileno	#
	movl	$PL_statbuf, %esi	#,
	movl	%eax, %edi	# D.14911,
	call	fstat	#
	.loc 1 3885 0
	movl	PL_euid(%rip), %edx	# PL_euid, PL_euid.945
	movl	PL_uid(%rip), %eax	# PL_uid, PL_uid.946
	cmpl	%eax, %edx	# PL_uid.946, PL_euid.945
	je	.L526	#,
	.loc 1 3885 0 is_stmt 0 discriminator 1
	movl	PL_statbuf+28(%rip), %edx	# PL_statbuf.st_uid, D.14912
	movl	PL_euid(%rip), %eax	# PL_euid, PL_euid.947
	cmpl	%eax, %edx	# PL_euid.947, D.14912
	jne	.L526	#,
	movl	PL_statbuf+24(%rip), %eax	# PL_statbuf.st_mode, D.14912
	andl	$2048, %eax	#, D.14912
	testl	%eax, %eax	# D.14912
	jne	.L527	#,
.L526:
	.loc 1 3887 0 is_stmt 1
	movl	PL_egid(%rip), %edx	# PL_egid, PL_egid.948
	movl	PL_gid(%rip), %eax	# PL_gid, PL_gid.949
	.loc 1 3886 0
	cmpl	%eax, %edx	# PL_gid.949, PL_egid.948
	je	.L523	#,
	.loc 1 3887 0
	movl	PL_statbuf+32(%rip), %edx	# PL_statbuf.st_gid, D.14912
	movl	PL_egid(%rip), %eax	# PL_egid, PL_egid.950
	cmpl	%eax, %edx	# PL_egid.950, D.14912
	jne	.L523	#,
	.loc 1 3887 0 is_stmt 0 discriminator 1
	movl	PL_statbuf+24(%rip), %eax	# PL_statbuf.st_mode, D.14912
	andl	$1024, %eax	#, D.14912
	testl	%eax, %eax	# D.14912
	je	.L523	#,
.L527:
	.loc 1 3889 0 is_stmt 1
	movzbl	PL_do_undump(%rip), %eax	# PL_do_undump, PL_do_undump.951
	testb	%al, %al	# PL_do_undump.951
	jne	.L523	#,
	.loc 1 3890 0
	movl	$.LC105, %edi	#,
	movl	$0, %eax	#,
	call	Perl_croak	#
.L523:
	.loc 1 3896 0
	leave
	.cfi_def_cfa 7, 8
	ret
	.cfi_endproc
.LFE31:
	.size	S_validate_suid, .-S_validate_suid
	.section	.rodata
.LC106:
	.string	"-x"
	.align 8
.LC107:
	.string	"No Perl script found in input\n"
.LC108:
	.string	"perl"
.LC109:
	.string	"PERL"
	.text
	.type	S_find_beginning, @function
S_find_beginning:
.LFB32:
	.loc 1 3900 0
	.cfi_startproc
	pushq	%rbp	#
	.cfi_def_cfa_offset 16
	.cfi_offset 6, -16
	movq	%rsp, %rbp	#,
	.cfi_def_cfa_register 6
	pushq	%r12	#
	pushq	%rbx	#
	.cfi_offset 12, -24
	.cfi_offset 3, -32
	.loc 1 3908 0
	movl	$.LC106, %edi	#,
	call	S_forbid_setid	#
	.loc 1 3929 0
	jmp	.L529	#
.L541:
	.loc 1 3930 0
	movq	PL_rsfp(%rip), %rcx	# PL_rsfp, PL_rsfp.952
	movq	PL_linestr(%rip), %rax	# PL_linestr, PL_linestr.953
	movl	$0, %edx	#,
	movq	%rcx, %rsi	# PL_rsfp.952,
	movq	%rax, %rdi	# PL_linestr.953,
	call	Perl_sv_gets	#
	movq	%rax, %rbx	#, s
	testq	%rbx, %rbx	# s
	jne	.L530	#,
	.loc 1 3931 0
	movl	$.LC107, %edi	#,
	movl	$0, %eax	#,
	call	Perl_croak	#
.L530:
	.loc 1 3933 0
	movq	%rbx, %r12	# s, s2
	.loc 1 3934 0
	movzbl	(%rbx), %eax	# *s_9, D.14914
	cmpb	$35, %al	#, D.14914
	jne	.L529	#,
	.loc 1 3934 0 is_stmt 0 discriminator 1
	leaq	1(%rbx), %rax	#, D.14915
	movzbl	(%rax), %eax	# *_12, D.14914
	cmpb	$33, %al	#, D.14914
	jne	.L529	#,
	movl	$.LC108, %esi	#,
	movq	%rbx, %rdi	# s,
	call	Perl_instr	#
	movq	%rax, %rbx	#, s
	testq	%rbx, %rbx	# s
	jne	.L531	#,
	movl	$.LC109, %esi	#,
	movq	%r12, %rdi	# s2,
	call	Perl_instr	#
	movq	%rax, %rbx	#, s
	testq	%rbx, %rbx	# s
	je	.L529	#,
.L531:
	.loc 1 3935 0 is_stmt 1
	movq	PL_rsfp(%rip), %rax	# PL_rsfp, PL_rsfp.954
	movl	$10, %esi	#,
	movq	%rax, %rdi	# PL_rsfp.954,
	call	PerlIO_ungetc	#
	.loc 1 3936 0
	movb	$0, PL_doextract(%rip)	#, PL_doextract
	.loc 1 3937 0
	jmp	.L532	#
.L534:
	.loc 1 3937 0 is_stmt 0 discriminator 1
	addq	$1, %rbx	#, s
.L532:
	movzbl	(%rbx), %eax	# *s_2, D.14914
	testb	%al, %al	# D.14914
	je	.L533	#,
	.loc 1 3937 0 discriminator 2
	movzbl	(%rbx), %eax	# *s_2, D.14914
	cmpb	$32, %al	#, D.14914
	je	.L533	#,
	.loc 1 3937 0 discriminator 1
	movzbl	(%rbx), %eax	# *s_2, D.14914
	cmpb	$9, %al	#, D.14914
	je	.L533	#,
	movzbl	(%rbx), %eax	# *s_2, D.14914
	cmpb	$10, %al	#, D.14914
	je	.L533	#,
	movzbl	(%rbx), %eax	# *s_2, D.14914
	cmpb	$13, %al	#, D.14914
	je	.L533	#,
	movzbl	(%rbx), %eax	# *s_2, D.14914
	cmpb	$12, %al	#, D.14914
	je	.L533	#,
	movzbl	(%rbx), %eax	# *s_2, D.14914
	cmpb	$35, %al	#, D.14914
	jne	.L534	#,
.L533:
	.loc 1 3938 0 is_stmt 1
	movq	%rbx, %r12	# s, s2
	.loc 1 3939 0
	jmp	.L535	#
.L536:
	.loc 1 3939 0 is_stmt 0 discriminator 2
	addq	$1, %rbx	#, s
.L535:
	.loc 1 3939 0 discriminator 1
	movzbl	(%rbx), %eax	# *s_3, D.14914
	cmpb	$32, %al	#, D.14914
	je	.L536	#,
	.loc 1 3939 0 discriminator 3
	movzbl	(%rbx), %eax	# *s_3, D.14914
	cmpb	$9, %al	#, D.14914
	je	.L536	#,
	.loc 1 3940 0 is_stmt 1
	movq	%rbx, %rax	# s, s.955
	leaq	1(%rax), %rbx	#, s
	movzbl	(%rax), %eax	# *s.955_28, D.14914
	cmpb	$45, %al	#, D.14914
	jne	.L529	#,
	.loc 1 3941 0
	jmp	.L537	#
.L539:
	.loc 1 3942 0 discriminator 1
	subq	$1, %r12	#, s2
.L537:
	.loc 1 3941 0 discriminator 1
	leaq	-1(%r12), %rax	#, D.14915
	movzbl	(%rax), %eax	# *_31, D.14914
	cmpb	$47, %al	#, D.14914
	jle	.L538	#,
	.loc 1 3941 0 is_stmt 0 discriminator 2
	leaq	-1(%r12), %rax	#, D.14915
	movzbl	(%rax), %eax	# *_33, D.14914
	cmpb	$57, %al	#, D.14914
	jle	.L539	#,
.L538:
	.loc 1 3941 0 discriminator 3
	leaq	-1(%r12), %rax	#, D.14915
	movzbl	(%rax), %eax	# *_35, D.14914
	cmpb	$45, %al	#, D.14914
	je	.L539	#,
	.loc 1 3941 0 discriminator 1
	leaq	-1(%r12), %rax	#, D.14915
	movzbl	(%rax), %eax	# *_37, D.14914
	cmpb	$46, %al	#, D.14914
	je	.L539	#,
	.loc 1 3942 0 is_stmt 1
	leaq	-1(%r12), %rax	#, D.14915
	movzbl	(%rax), %eax	# *_39, D.14914
	cmpb	$95, %al	#, D.14914
	je	.L539	#,
	.loc 1 3943 0
	leaq	-4(%r12), %rax	#, D.14916
	movl	$4, %edx	#,
	movl	$.LC108, %esi	#,
	movq	%rax, %rdi	# D.14916,
	call	strncmp	#
	testl	%eax, %eax	# D.14917
	jne	.L529	#,
.L540:
	.loc 1 3945 0 discriminator 1
	movq	%rbx, %rdi	# s,
	call	Perl_moreswitches	#
	movq	%rax, %rbx	#, s
	testq	%rbx, %rbx	# s
	jne	.L540	#,
.L529:
	.loc 1 3929 0 discriminator 1
	movzbl	PL_doextract(%rip), %eax	# PL_doextract, PL_doextract.956
	testb	%al, %al	# PL_doextract.956
	jne	.L541	#,
	.loc 1 3964 0
	popq	%rbx	#
	popq	%r12	#
	popq	%rbp	#
	.cfi_def_cfa 7, 8
	ret
	.cfi_endproc
.LFE32:
	.size	S_find_beginning, .-S_find_beginning
	.type	S_init_ids, @function
S_init_ids:
.LFB33:
	.loc 1 3969 0
	.cfi_startproc
	pushq	%rbp	#
	.cfi_def_cfa_offset 16
	.cfi_offset 6, -16
	movq	%rsp, %rbp	#,
	.cfi_def_cfa_register 6
	.loc 1 3970 0
	call	getuid	#
	movl	%eax, PL_uid(%rip)	# PL_uid.957, PL_uid
	.loc 1 3971 0
	call	geteuid	#
	movl	%eax, PL_euid(%rip)	# PL_euid.958, PL_euid
	.loc 1 3972 0
	call	getgid	#
	movl	%eax, PL_gid(%rip)	# PL_gid.959, PL_gid
	.loc 1 3973 0
	call	getegid	#
	movl	%eax, PL_egid(%rip)	# PL_egid.960, PL_egid
	.loc 1 3980 0
	movl	PL_uid(%rip), %eax	# PL_uid, PL_uid.962
	testl	%eax, %eax	# PL_uid.962
	je	.L543	#,
	.loc 1 3980 0 is_stmt 0 discriminator 1
	movl	PL_euid(%rip), %edx	# PL_euid, PL_euid.963
	movl	PL_uid(%rip), %eax	# PL_uid, PL_uid.964
	cmpl	%eax, %edx	# PL_uid.964, PL_euid.963
	jne	.L544	#,
	.loc 1 3980 0 discriminator 4
	movl	PL_egid(%rip), %edx	# PL_egid, PL_egid.965
	movl	PL_gid(%rip), %eax	# PL_gid, PL_gid.966
	cmpl	%eax, %edx	# PL_gid.966, PL_egid.965
	je	.L543	#,
.L544:
	.loc 1 3980 0 discriminator 3
	movl	$1, %eax	#, iftmp.961
	jmp	.L545	#
.L543:
	.loc 1 3980 0 discriminator 2
	movl	$0, %eax	#, iftmp.961
.L545:
	.loc 1 3980 0 discriminator 5
	movl	%eax, %edx	# iftmp.961, D.14922
	movzbl	PL_tainting(%rip), %eax	# PL_tainting, PL_tainting.967
	orl	%edx, %eax	# D.14922, PL_tainting.968
	movb	%al, PL_tainting(%rip)	# PL_tainting.968, PL_tainting
	.loc 1 3990 0 is_stmt 1 discriminator 5
	popq	%rbp	#
	.cfi_def_cfa 7, 8
	ret
	.cfi_endproc
.LFE33:
	.size	S_init_ids, .-S_init_ids
	.globl	Perl_doing_taint
	.type	Perl_doing_taint, @function
Perl_doing_taint:
.LFB34:
	.loc 1 3997 0
	.cfi_startproc
	pushq	%rbp	#
	.cfi_def_cfa_offset 16
	.cfi_offset 6, -16
	movq	%rsp, %rbp	#,
	.cfi_def_cfa_register 6
	subq	$48, %rsp	#,
	movl	%edi, -20(%rbp)	# argc, argc
	movq	%rsi, -32(%rbp)	# argv, argv
	movq	%rdx, -40(%rbp)	# envp, envp
	.loc 1 4007 0
	call	getuid	#
	movl	%eax, -16(%rbp)	# D.14924, uid
	.loc 1 4008 0
	call	geteuid	#
	movl	%eax, -12(%rbp)	# D.14924, euid
	.loc 1 4009 0
	call	getgid	#
	movl	%eax, -8(%rbp)	# D.14924, gid
	.loc 1 4010 0
	call	getegid	#
	movl	%eax, -4(%rbp)	# D.14924, egid
	.loc 1 4016 0
	cmpl	$0, -16(%rbp)	#, uid
	je	.L547	#,
	.loc 1 4016 0 is_stmt 0 discriminator 1
	movl	-12(%rbp), %eax	# euid, tmp76
	cmpl	-16(%rbp), %eax	# uid, tmp76
	jne	.L548	#,
	movl	-4(%rbp), %eax	# egid, tmp77
	cmpl	-8(%rbp), %eax	# gid, tmp77
	je	.L547	#,
.L548:
	.loc 1 4017 0 is_stmt 1
	movl	$1, %eax	#, D.14923
	jmp	.L549	#
.L547:
	.loc 1 4022 0
	cmpl	$1, -20(%rbp)	#, argc
	jle	.L550	#,
	.loc 1 4022 0 is_stmt 0 discriminator 1
	movq	-32(%rbp), %rax	# argv, tmp78
	addq	$8, %rax	#, D.14925
	movq	(%rax), %rax	# *_13, D.14926
	movzbl	(%rax), %eax	# *_14, D.14923
	cmpb	$45, %al	#, D.14923
	jne	.L550	#,
	.loc 1 4023 0 is_stmt 1
	movq	-32(%rbp), %rax	# argv, tmp79
	addq	$8, %rax	#, D.14925
	movq	(%rax), %rax	# *_16, D.14926
	addq	$1, %rax	#, D.14926
	movzbl	(%rax), %eax	# *_18, D.14923
	cmpb	$116, %al	#, D.14923
	je	.L551	#,
	.loc 1 4023 0 is_stmt 0 discriminator 1
	movq	-32(%rbp), %rax	# argv, tmp80
	addq	$8, %rax	#, D.14925
	movq	(%rax), %rax	# *_20, D.14926
	addq	$1, %rax	#, D.14926
	movzbl	(%rax), %eax	# *_22, D.14923
	cmpb	$84, %al	#, D.14923
	jne	.L550	#,
.L551:
	.loc 1 4024 0 is_stmt 1
	movl	$1, %eax	#, D.14923
	jmp	.L549	#
.L550:
	.loc 1 4025 0
	movl	$0, %eax	#, D.14923
.L549:
	.loc 1 4026 0
	leave
	.cfi_def_cfa 7, 8
	ret
	.cfi_endproc
.LFE34:
	.size	Perl_doing_taint, .-Perl_doing_taint
	.section	.rodata
	.align 8
.LC110:
	.string	"No %s allowed with (suid) fdscript"
	.text
	.type	S_forbid_setid, @function
S_forbid_setid:
.LFB35:
	.loc 1 4030 0
	.cfi_startproc
	pushq	%rbp	#
	.cfi_def_cfa_offset 16
	.cfi_offset 6, -16
	movq	%rsp, %rbp	#,
	.cfi_def_cfa_register 6
	subq	$16, %rsp	#,
	movq	%rdi, -8(%rbp)	# s, s
	.loc 1 4059 0
	movl	PL_suidscript(%rip), %eax	# PL_suidscript, PL_suidscript.969
	testl	%eax, %eax	# PL_suidscript.969
	js	.L552	#,
	.loc 1 4060 0
	movq	-8(%rbp), %rax	# s, tmp60
	movq	%rax, %rsi	# tmp60,
	movl	$.LC110, %edi	#,
	movl	$0, %eax	#,
	call	Perl_croak	#
.L552:
	.loc 1 4065 0
	leave
	.cfi_def_cfa 7, 8
	ret
	.cfi_endproc
.LFE35:
	.size	S_forbid_setid, .-S_forbid_setid
	.section	.rodata
.LC111:
	.string	"DB::args"
.LC112:
	.string	"DB::DB"
.LC113:
	.string	"DB::dbline"
.LC114:
	.string	"DB::sub"
.LC115:
	.string	"DB::single"
.LC116:
	.string	"DB::trace"
.LC117:
	.string	"DB::signal"
	.text
	.globl	Perl_init_debugger
	.type	Perl_init_debugger, @function
Perl_init_debugger:
.LFB36:
	.loc 1 4069 0
	.cfi_startproc
	pushq	%rbp	#
	.cfi_def_cfa_offset 16
	.cfi_offset 6, -16
	movq	%rsp, %rbp	#,
	.cfi_def_cfa_register 6
	subq	$16, %rsp	#,
	.loc 1 4070 0
	movq	PL_curstash(%rip), %rax	# PL_curstash, tmp94
	movq	%rax, -8(%rbp)	# tmp94, ostash
	.loc 1 4072 0
	movq	PL_debstash(%rip), %rax	# PL_debstash, PL_debstash.970
	movq	%rax, PL_curstash(%rip)	# PL_debstash.970, PL_curstash
	.loc 1 4073 0
	movl	$10, %edx	#,
	movl	$2, %esi	#,
	movl	$.LC111, %edi	#,
	call	Perl_gv_fetchpv	#
	movq	%rax, %rdi	# D.14928,
	call	Perl_gv_AVadd	#
	movq	(%rax), %rax	# _4->sv_any, D.14929
	movq	56(%rax), %rax	# _5->xgv_gp, D.14930
	movq	32(%rax), %rax	# _6->gp_av, PL_dbargs.971
	movq	%rax, PL_dbargs(%rip)	# PL_dbargs.971, PL_dbargs
	.loc 1 4074 0
	movq	PL_dbargs(%rip), %rax	# PL_dbargs, PL_dbargs.972
	movq	(%rax), %rax	# PL_dbargs.972_8->sv_any, D.14931
	movq	PL_dbargs(%rip), %rdx	# PL_dbargs, PL_dbargs.973
	movq	(%rdx), %rdx	# PL_dbargs.973_10->sv_any, D.14931
	movzbl	72(%rdx), %edx	# _11->xav_flags, D.14932
	andl	$-2, %edx	#, D.14932
	movb	%dl, 72(%rax)	# D.14932, _9->xav_flags
	.loc 1 4075 0
	movl	$13, %edx	#,
	movl	$2, %esi	#,
	movl	$.LC112, %edi	#,
	call	Perl_gv_fetchpv	#
	movq	%rax, PL_DBgv(%rip)	# PL_DBgv.974, PL_DBgv
	.loc 1 4076 0
	movl	$10, %edx	#,
	movl	$2, %esi	#,
	movl	$.LC113, %edi	#,
	call	Perl_gv_fetchpv	#
	movq	%rax, PL_DBline(%rip)	# PL_DBline.975, PL_DBline
	.loc 1 4077 0
	movl	$11, %edx	#,
	movl	$2, %esi	#,
	movl	$.LC114, %edi	#,
	call	Perl_gv_fetchpv	#
	movq	%rax, %rdi	# D.14928,
	call	Perl_gv_HVadd	#
	movq	%rax, PL_DBsub(%rip)	# PL_DBsub.976, PL_DBsub
	.loc 1 4078 0
	movq	PL_DBsub(%rip), %rax	# PL_DBsub, PL_DBsub.977
	movq	(%rax), %rax	# PL_DBsub.977_18->sv_any, D.14929
	movq	56(%rax), %rax	# _19->xgv_gp, D.14930
	movq	(%rax), %rax	# _20->gp_sv, D.14933
	movl	$1, %esi	#,
	movq	%rax, %rdi	# D.14933,
	call	Perl_sv_upgrade	#
	.loc 1 4079 0
	movl	$4, %edx	#,
	movl	$2, %esi	#,
	movl	$.LC115, %edi	#,
