	.file	"pp.c"
# GNU C (Ubuntu/Linaro 4.8.1-10ubuntu9) version 4.8.1 (x86_64-linux-gnu)
#	compiled by GNU C version 4.8.1, GMP version 5.1.2, MPFR version 3.1.1-p2, MPC version 1.0.1
# GGC heuristics: --param ggc-min-expand=100 --param ggc-min-heapsize=131072
# options passed:  -imultiarch x86_64-linux-gnu -D SPEC_CPU -D NDEBUG
# -D PERL_CORE -D SPEC_CPU_LP64 -D SPEC_CPU_LINUX_X64 pp.c -mtune=generic
# -march=x86-64 -g -fverbose-asm -fno-strict-aliasing -fstack-protector
# -Wformat -Wformat-security
# options enabled:  -faggressive-loop-optimizations
# -fasynchronous-unwind-tables -fauto-inc-dec -fbranch-count-reg -fcommon
# -fdelete-null-pointer-checks -fdwarf2-cfi-asm -fearly-inlining
# -feliminate-unused-debug-types -ffunction-cse -fgcse-lm -fgnu-runtime
# -fident -finline-atomics -fira-hoist-pressure -fira-share-save-slots
# -fira-share-spill-slots -fivopts -fkeep-static-consts
# -fleading-underscore -fmath-errno -fmerge-debug-strings
# -fmove-loop-invariants -fpeephole -fprefetch-loop-arrays
# -freg-struct-return -fsched-critical-path-heuristic
# -fsched-dep-count-heuristic -fsched-group-heuristic -fsched-interblock
# -fsched-last-insn-heuristic -fsched-rank-heuristic -fsched-spec
# -fsched-spec-insn-heuristic -fsched-stalled-insns-dep -fshow-column
# -fsigned-zeros -fsplit-ivs-in-unroller -fstack-protector
# -fstrict-volatile-bitfields -fsync-libcalls -ftrapping-math
# -ftree-coalesce-vars -ftree-cselim -ftree-forwprop -ftree-loop-if-convert
# -ftree-loop-im -ftree-loop-ivcanon -ftree-loop-optimize
# -ftree-parallelize-loops= -ftree-phiprop -ftree-pta -ftree-reassoc
# -ftree-scev-cprop -ftree-slp-vectorize -ftree-vect-loop-version
# -funit-at-a-time -funwind-tables -fverbose-asm -fzero-initialized-in-bss
# -m128bit-long-double -m64 -m80387 -maccumulate-outgoing-args
# -malign-stringops -mfancy-math-387 -mfp-ret-in-387 -mfxsr -mglibc
# -mieee-fp -mlong-double-80 -mmmx -mno-sse4 -mpush-args -mred-zone -msse
# -msse2 -mtls-direct-seg-refs

	.text
.Ltext0:
	.globl	Perl_pp_stub
	.type	Perl_pp_stub, @function
Perl_pp_stub:
.LFB2:
	.file 1 "pp.c"
	.loc 1 45 0
	.cfi_startproc
	pushq	%rbp	#
	.cfi_def_cfa_offset 16
	.cfi_offset 6, -16
	movq	%rsp, %rbp	#,
	.cfi_def_cfa_register 6
	pushq	%rbx	#
	subq	$8, %rsp	#,
	.cfi_offset 3, -24
	.loc 1 46 0
	movq	PL_stack_sp(%rip), %rbx	# PL_stack_sp, sp
	.loc 1 47 0
	movq	PL_op(%rip), %rax	# PL_op, PL_op.0
	movzbl	36(%rax), %eax	# PL_op.0_4->op_flags, D.23708
	movzbl	%al, %eax	# D.23708, D.23709
	andl	$3, %eax	#, D.23709
	cmpl	$1, %eax	#, D.23709
	je	.L2	#,
	.loc 1 47 0 is_stmt 0 discriminator 1
	movq	PL_op(%rip), %rax	# PL_op, PL_op.1
	movzbl	36(%rax), %eax	# PL_op.1_8->op_flags, D.23708
	movzbl	%al, %eax	# D.23708, D.23709
	andl	$3, %eax	#, D.23709
	cmpl	$2, %eax	#, D.23709
	je	.L3	#,
	movq	PL_op(%rip), %rax	# PL_op, PL_op.2
	movzbl	36(%rax), %eax	# PL_op.2_12->op_flags, D.23708
	movzbl	%al, %eax	# D.23708, D.23709
	andl	$3, %eax	#, D.23709
	cmpl	$3, %eax	#, D.23709
	je	.L2	#,
	.loc 1 47 0 discriminator 2
	call	Perl_block_gimme	#
	testl	%eax, %eax	# D.23709
	jne	.L2	#,
.L3:
.LBB2:
	.loc 1 48 0 is_stmt 1
	movq	PL_stack_max(%rip), %rax	# PL_stack_max, PL_stack_max.3
	movq	%rax, %rdx	# PL_stack_max.3, PL_stack_max.4
	movq	%rbx, %rax	# sp, sp.5
	subq	%rax, %rdx	# sp.5, D.23710
	movq	%rdx, %rax	# D.23710, D.23710
	cmpq	$7, %rax	#, D.23710
	jg	.L4	#,
	.loc 1 48 0 is_stmt 0 discriminator 1
	movl	$1, %edx	#,
	movq	%rbx, %rsi	# sp,
	movq	%rbx, %rdi	# sp,
	call	Perl_stack_grow	#
	movq	%rax, %rbx	#, sp
.L4:
	.loc 1 48 0 discriminator 2
	addq	$8, %rbx	#, sp
	movq	$PL_sv_undef, (%rbx)	#, *sp_22
.L2:
.LBE2:
	.loc 1 49 0 is_stmt 1
	movq	%rbx, PL_stack_sp(%rip)	# sp, PL_stack_sp
	movq	PL_op(%rip), %rax	# PL_op, PL_op.6
	movq	(%rax), %rax	# PL_op.6_24->op_next, D.23712
	.loc 1 50 0
	addq	$8, %rsp	#,
	popq	%rbx	#
	popq	%rbp	#
	.cfi_def_cfa 7, 8
	ret
	.cfi_endproc
.LFE2:
	.size	Perl_pp_stub, .-Perl_pp_stub
	.globl	Perl_pp_scalar
	.type	Perl_pp_scalar, @function
Perl_pp_scalar:
.LFB3:
	.loc 1 53 0
	.cfi_startproc
	pushq	%rbp	#
	.cfi_def_cfa_offset 16
	.cfi_offset 6, -16
	movq	%rsp, %rbp	#,
	.cfi_def_cfa_register 6
	.loc 1 54 0
	movq	PL_op(%rip), %rax	# PL_op, PL_op.7
	movq	(%rax), %rax	# PL_op.7_1->op_next, D.23713
	.loc 1 55 0
	popq	%rbp	#
	.cfi_def_cfa 7, 8
	ret
	.cfi_endproc
.LFE3:
	.size	Perl_pp_scalar, .-Perl_pp_scalar
	.section	.rodata
	.align 8
.LC0:
	.string	"Can't return array to lvalue scalar context"
	.text
	.globl	Perl_pp_padav
	.type	Perl_pp_padav, @function
Perl_pp_padav:
.LFB4:
	.loc 1 60 0
	.cfi_startproc
	pushq	%rbp	#
	.cfi_def_cfa_offset 16
	.cfi_offset 6, -16
	movq	%rsp, %rbp	#,
	.cfi_def_cfa_register 6
	pushq	%rbx	#
	subq	$56, %rsp	#,
	.cfi_offset 3, -24
	.loc 1 61 0
	movq	PL_stack_sp(%rip), %rbx	# PL_stack_sp, sp
	movq	PL_curpad(%rip), %rdx	# PL_curpad, PL_curpad.8
	movq	PL_op(%rip), %rax	# PL_op, PL_op.9
	movq	24(%rax), %rax	# PL_op.9_15->op_targ, D.23715
	salq	$3, %rax	#, D.23715
	addq	%rdx, %rax	# PL_curpad.8, D.23716
	movq	(%rax), %rax	# *_18, tmp159
	movq	%rax, -40(%rbp)	# tmp159, targ
	.loc 1 63 0
	movq	PL_op(%rip), %rax	# PL_op, PL_op.10
	movzbl	37(%rax), %eax	# PL_op.10_20->op_private, D.23717
	testb	%al, %al	# D.23718
	jns	.L9	#,
	.loc 1 64 0
	movq	PL_curpad(%rip), %rdx	# PL_curpad, PL_curpad.11
	movq	PL_op(%rip), %rax	# PL_op, PL_op.12
	movq	24(%rax), %rax	# PL_op.12_24->op_targ, D.23715
	salq	$3, %rax	#, D.23715
	addq	%rdx, %rax	# PL_curpad.11, D.23716
	movq	%rax, %rdi	# D.23716,
	call	Perl_save_clearsv	#
.L9:
	.loc 1 65 0
	movq	PL_stack_max(%rip), %rax	# PL_stack_max, PL_stack_max.13
	movq	%rax, %rdx	# PL_stack_max.13, PL_stack_max.14
	movq	%rbx, %rax	# sp, sp.15
	subq	%rax, %rdx	# sp.15, D.23719
	movq	%rdx, %rax	# D.23719, D.23719
	cmpq	$7, %rax	#, D.23719
	jg	.L10	#,
	.loc 1 65 0 is_stmt 0 discriminator 1
	movl	$1, %edx	#,
	movq	%rbx, %rsi	# sp,
	movq	%rbx, %rdi	# sp,
	call	Perl_stack_grow	#
	movq	%rax, %rbx	#, sp
.L10:
	.loc 1 66 0 is_stmt 1
	movq	PL_op(%rip), %rax	# PL_op, PL_op.16
	movzbl	36(%rax), %eax	# PL_op.16_33->op_flags, D.23717
	movzbl	%al, %eax	# D.23717, D.23720
	andl	$16, %eax	#, D.23720
	testl	%eax, %eax	# D.23720
	je	.L11	#,
	.loc 1 67 0
	addq	$8, %rbx	#, sp
	movq	-40(%rbp), %rax	# targ, tmp160
	movq	%rax, (%rbx)	# tmp160, *sp_37
	.loc 1 68 0
	movq	%rbx, PL_stack_sp(%rip)	# sp, PL_stack_sp
	movq	PL_op(%rip), %rax	# PL_op, PL_op.17
	movq	(%rax), %rax	# PL_op.17_38->op_next, D.23714
	jmp	.L12	#
.L11:
	.loc 1 69 0
	movq	PL_op(%rip), %rax	# PL_op, PL_op.18
	movzbl	37(%rax), %eax	# PL_op.18_40->op_private, D.23717
	movzbl	%al, %eax	# D.23717, D.23720
	andl	$8, %eax	#, D.23720
	testl	%eax, %eax	# D.23720
	je	.L13	#,
	.loc 1 69 0 is_stmt 0 discriminator 1
	call	Perl_is_lvalue_sub	#
	testl	%eax, %eax	# D.23720
	je	.L13	#,
	.loc 1 70 0 is_stmt 1
	movq	PL_op(%rip), %rax	# PL_op, PL_op.20
	movzbl	36(%rax), %eax	# PL_op.20_45->op_flags, D.23717
	movzbl	%al, %eax	# D.23717, D.23720
	andl	$3, %eax	#, D.23720
	testl	%eax, %eax	# D.23720
	je	.L14	#,
	.loc 1 70 0 is_stmt 0 discriminator 1
	movq	PL_op(%rip), %rax	# PL_op, PL_op.21
	movzbl	36(%rax), %eax	# PL_op.21_49->op_flags, D.23717
	movzbl	%al, %eax	# D.23717, D.23720
	andl	$3, %eax	#, D.23720
	cmpl	$3, %eax	#, D.23720
	setne	%al	#, iftmp.19
	jmp	.L15	#
.L14:
	.loc 1 70 0 discriminator 2
	call	Perl_dowantarray	#
	testl	%eax, %eax	# D.23720
	sete	%al	#, iftmp.19
.L15:
	.loc 1 70 0 discriminator 3
	testb	%al, %al	# iftmp.19
	je	.L16	#,
	.loc 1 71 0 is_stmt 1
	movl	$.LC0, %edi	#,
	movl	$0, %eax	#,
	call	Perl_croak	#
.L16:
	.loc 1 72 0
	addq	$8, %rbx	#, sp
	movq	-40(%rbp), %rax	# targ, tmp161
	movq	%rax, (%rbx)	# tmp161, *sp_56
	.loc 1 73 0
	movq	%rbx, PL_stack_sp(%rip)	# sp, PL_stack_sp
	movq	PL_op(%rip), %rax	# PL_op, PL_op.22
	movq	(%rax), %rax	# PL_op.22_57->op_next, D.23714
	jmp	.L12	#
.L13:
	.loc 1 75 0
	movq	PL_op(%rip), %rax	# PL_op, PL_op.24
	movzbl	36(%rax), %eax	# PL_op.24_59->op_flags, D.23717
	movzbl	%al, %eax	# D.23717, D.23720
	andl	$3, %eax	#, D.23720
	cmpl	$1, %eax	#, D.23720
	je	.L17	#,
	.loc 1 75 0 is_stmt 0 discriminator 1
	movq	PL_op(%rip), %rax	# PL_op, PL_op.26
	movzbl	36(%rax), %eax	# PL_op.26_63->op_flags, D.23717
	movzbl	%al, %eax	# D.23717, D.23720
	andl	$3, %eax	#, D.23720
	cmpl	$2, %eax	#, D.23720
	je	.L18	#,
	movq	PL_op(%rip), %rax	# PL_op, PL_op.28
	movzbl	36(%rax), %eax	# PL_op.28_67->op_flags, D.23717
	movzbl	%al, %eax	# D.23717, D.23720
	andl	$3, %eax	#, D.23720
	cmpl	$3, %eax	#, D.23720
	je	.L19	#,
	call	Perl_block_gimme	#
	jmp	.L22	#
.L19:
	.loc 1 75 0 discriminator 2
	movl	$1, %eax	#, iftmp.27
	jmp	.L22	#
.L18:
	movl	$0, %eax	#, iftmp.25
	jmp	.L22	#
.L17:
	movl	$128, %eax	#, iftmp.23
.L22:
	.loc 1 75 0 discriminator 3
	movl	%eax, -52(%rbp)	# iftmp.23, gimme
	.loc 1 76 0 is_stmt 1 discriminator 3
	cmpl	$1, -52(%rbp)	#, gimme
	jne	.L23	#,
.LBB3:
	.loc 1 77 0
	movq	-40(%rbp), %rax	# targ, tmp162
	movl	12(%rax), %eax	# targ_19->sv_flags, D.23721
	andl	$32768, %eax	#, D.23721
	testl	%eax, %eax	# D.23721
	je	.L24	#,
	.loc 1 77 0 is_stmt 0 discriminator 1
	movq	-40(%rbp), %rax	# targ, tmp163
	movq	%rax, %rdi	# tmp163,
	call	Perl_mg_size	#
	addl	$1, %eax	#, D.23722
	jmp	.L25	#
.L24:
	.loc 1 77 0 discriminator 2
	movq	-40(%rbp), %rax	# targ, tmp164
	movq	(%rax), %rax	# MEM[(struct AV *)targ_19].sv_any, D.23723
	movq	8(%rax), %rax	# _84->xav_fill, D.23719
	addl	$1, %eax	#, D.23722
.L25:
	.loc 1 77 0 discriminator 3
	movl	%eax, -48(%rbp)	# iftmp.29, maxarg
	.loc 1 78 0 is_stmt 1 discriminator 3
	movq	PL_stack_max(%rip), %rax	# PL_stack_max, PL_stack_max.30
	movq	%rax, %rdx	# PL_stack_max.30, PL_stack_max.31
	movq	%rbx, %rax	# sp, sp.32
	subq	%rax, %rdx	# sp.32, D.23719
	movq	%rdx, %rax	# D.23719, D.23719
	sarq	$3, %rax	#, tmp165
	movq	%rax, %rdx	# tmp165, D.23719
	movl	-48(%rbp), %eax	# maxarg, tmp166
	cltq
	cmpq	%rax, %rdx	# D.23719, D.23719
	jge	.L26	#,
	.loc 1 78 0 is_stmt 0 discriminator 1
	movl	-48(%rbp), %eax	# maxarg, tmp167
	movl	%eax, %edx	# tmp167,
	movq	%rbx, %rsi	# sp,
	movq	%rbx, %rdi	# sp,
	call	Perl_stack_grow	#
	movq	%rax, %rbx	#, sp
.L26:
	.loc 1 79 0 is_stmt 1
	movq	-40(%rbp), %rax	# targ, tmp168
	movl	12(%rax), %eax	# targ_19->sv_flags, D.23721
	andl	$57344, %eax	#, D.23721
	testl	%eax, %eax	# D.23721
	je	.L27	#,
.LBB4:
	.loc 1 81 0
	movl	$0, -56(%rbp)	#, i
	jmp	.L28	#
.L31:
.LBB5:
	.loc 1 82 0
	movl	-56(%rbp), %ecx	# i, i.33
	movq	-40(%rbp), %rax	# targ, tmp169
	movl	$0, %edx	#,
	movl	%ecx, %esi	# i.33,
	movq	%rax, %rdi	# tmp169,
	call	Perl_av_fetch	#
	movq	%rax, -32(%rbp)	# tmp170, svp
	.loc 1 83 0
	movl	-56(%rbp), %eax	# i, tmp171
	addl	$1, %eax	#, D.23721
	movl	%eax, %eax	# D.23721, D.23715
	salq	$3, %rax	#, D.23715
	leaq	(%rbx,%rax), %rdx	#, D.23716
	cmpq	$0, -32(%rbp)	#, svp
	je	.L29	#,
	.loc 1 83 0 is_stmt 0 discriminator 1
	movq	-32(%rbp), %rax	# svp, tmp172
	movq	(%rax), %rax	# *svp_102, iftmp.34
	jmp	.L30	#
.L29:
	.loc 1 83 0 discriminator 2
	movl	$PL_sv_undef, %eax	#, iftmp.34
.L30:
	.loc 1 83 0 discriminator 3
	movq	%rax, (%rdx)	# iftmp.34, *_106
.LBE5:
	.loc 1 81 0 is_stmt 1 discriminator 3
	addl	$1, -56(%rbp)	#, i
.L28:
	.loc 1 81 0 is_stmt 0 discriminator 1
	movl	-48(%rbp), %eax	# maxarg, maxarg.35
	cmpl	-56(%rbp), %eax	# i, maxarg.35
	ja	.L31	#,
.LBE4:
	jmp	.L32	#
.L27:
	.loc 1 87 0 is_stmt 1
	movl	-48(%rbp), %eax	# maxarg, tmp173
	cltq
	leaq	0(,%rax,8), %rdx	#, D.23715
	movq	-40(%rbp), %rax	# targ, tmp174
	movq	(%rax), %rax	# MEM[(struct AV *)targ_19].sv_any, D.23723
	movq	(%rax), %rcx	# _112->xav_array, D.23724
	leaq	8(%rbx), %rax	#, D.23724
	movq	%rcx, %rsi	# D.23724,
	movq	%rax, %rdi	# D.23724,
	call	memcpy	#
.L32:
	.loc 1 89 0 discriminator 1
	movl	-48(%rbp), %eax	# maxarg, tmp175
	cltq
	salq	$3, %rax	#, D.23715
	addq	%rax, %rbx	# D.23715, sp
.LBE3:
	jmp	.L33	#
.L23:
	.loc 1 91 0
	cmpl	$0, -52(%rbp)	#, gimme
	jne	.L33	#,
.LBB6:
	.loc 1 92 0
	call	Perl_sv_newmortal	#
	movq	%rax, -24(%rbp)	# tmp176, sv
	.loc 1 93 0
	movq	-40(%rbp), %rax	# targ, tmp177
	movl	12(%rax), %eax	# targ_19->sv_flags, D.23721
	andl	$32768, %eax	#, D.23721
	testl	%eax, %eax	# D.23721
	je	.L34	#,
	.loc 1 93 0 is_stmt 0 discriminator 1
	movq	-40(%rbp), %rax	# targ, tmp178
	movq	%rax, %rdi	# tmp178,
	call	Perl_mg_size	#
	addl	$1, %eax	#, D.23722
	jmp	.L35	#
.L34:
	.loc 1 93 0 discriminator 2
	movq	-40(%rbp), %rax	# targ, tmp179
	movq	(%rax), %rax	# MEM[(struct AV *)targ_19].sv_any, D.23723
	movq	8(%rax), %rax	# _125->xav_fill, D.23719
	addl	$1, %eax	#, D.23722
.L35:
	.loc 1 93 0 discriminator 3
	movl	%eax, -44(%rbp)	# iftmp.36, maxarg
	.loc 1 94 0 is_stmt 1 discriminator 3
	movl	-44(%rbp), %eax	# maxarg, tmp180
	movslq	%eax, %rdx	# tmp180, D.23719
	movq	-24(%rbp), %rax	# sv, tmp181
	movq	%rdx, %rsi	# D.23719,
	movq	%rax, %rdi	# tmp181,
	call	Perl_sv_setiv	#
	.loc 1 95 0 discriminator 3
	addq	$8, %rbx	#, sp
	movq	-24(%rbp), %rax	# sv, tmp182
	movq	%rax, (%rbx)	# tmp182, *sp_132
.L33:
.LBE6:
	.loc 1 97 0
	movq	%rbx, PL_stack_sp(%rip)	# sp, PL_stack_sp
	movq	PL_op(%rip), %rax	# PL_op, PL_op.37
	movq	(%rax), %rax	# PL_op.37_133->op_next, D.23714
.L12:
	.loc 1 98 0
	addq	$56, %rsp	#,
	popq	%rbx	#
	popq	%rbp	#
	.cfi_def_cfa 7, 8
	ret
	.cfi_endproc
.LFE4:
	.size	Perl_pp_padav, .-Perl_pp_padav
	.section	.rodata
	.align 8
.LC1:
	.string	"Can't return hash to lvalue scalar context"
	.text
	.globl	Perl_pp_padhv
	.type	Perl_pp_padhv, @function
Perl_pp_padhv:
.LFB5:
	.loc 1 101 0
	.cfi_startproc
	pushq	%rbp	#
	.cfi_def_cfa_offset 16
	.cfi_offset 6, -16
	movq	%rsp, %rbp	#,
	.cfi_def_cfa_register 6
	pushq	%rbx	#
	subq	$40, %rsp	#,
	.cfi_offset 3, -24
	.loc 1 102 0
	movq	PL_stack_sp(%rip), %rbx	# PL_stack_sp, sp
	movq	PL_curpad(%rip), %rdx	# PL_curpad, PL_curpad.38
	movq	PL_op(%rip), %rax	# PL_op, PL_op.39
	movq	24(%rax), %rax	# PL_op.39_9->op_targ, D.23727
	salq	$3, %rax	#, D.23727
	addq	%rdx, %rax	# PL_curpad.38, D.23728
	movq	(%rax), %rax	# *_12, tmp117
	movq	%rax, -32(%rbp)	# tmp117, targ
.LBB7:
	.loc 1 105 0
	movq	PL_stack_max(%rip), %rax	# PL_stack_max, PL_stack_max.40
	movq	%rax, %rdx	# PL_stack_max.40, PL_stack_max.41
	movq	%rbx, %rax	# sp, sp.42
	subq	%rax, %rdx	# sp.42, D.23729
	movq	%rdx, %rax	# D.23729, D.23729
	cmpq	$7, %rax	#, D.23729
	jg	.L37	#,
	.loc 1 105 0 is_stmt 0 discriminator 1
	movl	$1, %edx	#,
	movq	%rbx, %rsi	# sp,
	movq	%rbx, %rdi	# sp,
	call	Perl_stack_grow	#
	movq	%rax, %rbx	#, sp
.L37:
	.loc 1 105 0 discriminator 2
	addq	$8, %rbx	#, sp
	movq	-32(%rbp), %rax	# targ, tmp118
	movq	%rax, (%rbx)	# tmp118, *sp_19
.LBE7:
	.loc 1 106 0 is_stmt 1 discriminator 2
	movq	PL_op(%rip), %rax	# PL_op, PL_op.43
	movzbl	37(%rax), %eax	# PL_op.43_21->op_private, D.23731
	testb	%al, %al	# D.23732
	jns	.L38	#,
	.loc 1 107 0
	movq	PL_curpad(%rip), %rdx	# PL_curpad, PL_curpad.44
	movq	PL_op(%rip), %rax	# PL_op, PL_op.45
	movq	24(%rax), %rax	# PL_op.45_25->op_targ, D.23727
	salq	$3, %rax	#, D.23727
	addq	%rdx, %rax	# PL_curpad.44, D.23728
	movq	%rax, %rdi	# D.23728,
	call	Perl_save_clearsv	#
.L38:
	.loc 1 108 0
	movq	PL_op(%rip), %rax	# PL_op, PL_op.46
	movzbl	36(%rax), %eax	# PL_op.46_29->op_flags, D.23731
	movzbl	%al, %eax	# D.23731, D.23733
	andl	$16, %eax	#, D.23733
	testl	%eax, %eax	# D.23733
	je	.L39	#,
	.loc 1 109 0
	movq	%rbx, PL_stack_sp(%rip)	# sp, PL_stack_sp
	movq	PL_op(%rip), %rax	# PL_op, PL_op.47
	movq	(%rax), %rax	# PL_op.47_33->op_next, D.23726
	jmp	.L40	#
.L39:
	.loc 1 110 0
	movq	PL_op(%rip), %rax	# PL_op, PL_op.48
	movzbl	37(%rax), %eax	# PL_op.48_35->op_private, D.23731
	movzbl	%al, %eax	# D.23731, D.23733
	andl	$8, %eax	#, D.23733
	testl	%eax, %eax	# D.23733
	je	.L41	#,
	.loc 1 110 0 is_stmt 0 discriminator 1
	call	Perl_is_lvalue_sub	#
	testl	%eax, %eax	# D.23733
	je	.L41	#,
	.loc 1 111 0 is_stmt 1
	movq	PL_op(%rip), %rax	# PL_op, PL_op.50
	movzbl	36(%rax), %eax	# PL_op.50_40->op_flags, D.23731
	movzbl	%al, %eax	# D.23731, D.23733
	andl	$3, %eax	#, D.23733
	testl	%eax, %eax	# D.23733
	je	.L42	#,
	.loc 1 111 0 is_stmt 0 discriminator 1
	movq	PL_op(%rip), %rax	# PL_op, PL_op.51
	movzbl	36(%rax), %eax	# PL_op.51_44->op_flags, D.23731
	movzbl	%al, %eax	# D.23731, D.23733
	andl	$3, %eax	#, D.23733
	cmpl	$3, %eax	#, D.23733
	setne	%al	#, iftmp.49
	jmp	.L43	#
.L42:
	.loc 1 111 0 discriminator 2
	call	Perl_dowantarray	#
	testl	%eax, %eax	# D.23733
	sete	%al	#, iftmp.49
.L43:
	.loc 1 111 0 discriminator 3
	testb	%al, %al	# iftmp.49
	je	.L44	#,
	.loc 1 112 0 is_stmt 1
	movl	$.LC1, %edi	#,
	movl	$0, %eax	#,
	call	Perl_croak	#
.L44:
	.loc 1 113 0
	movq	%rbx, PL_stack_sp(%rip)	# sp, PL_stack_sp
	movq	PL_op(%rip), %rax	# PL_op, PL_op.52
	movq	(%rax), %rax	# PL_op.52_51->op_next, D.23726
	jmp	.L40	#
.L41:
	.loc 1 115 0
	movq	PL_op(%rip), %rax	# PL_op, PL_op.54
	movzbl	36(%rax), %eax	# PL_op.54_53->op_flags, D.23731
	movzbl	%al, %eax	# D.23731, D.23733
	andl	$3, %eax	#, D.23733
	cmpl	$1, %eax	#, D.23733
	je	.L45	#,
	.loc 1 115 0 is_stmt 0 discriminator 1
	movq	PL_op(%rip), %rax	# PL_op, PL_op.56
	movzbl	36(%rax), %eax	# PL_op.56_57->op_flags, D.23731
	movzbl	%al, %eax	# D.23731, D.23733
	andl	$3, %eax	#, D.23733
	cmpl	$2, %eax	#, D.23733
	je	.L46	#,
	movq	PL_op(%rip), %rax	# PL_op, PL_op.58
	movzbl	36(%rax), %eax	# PL_op.58_61->op_flags, D.23731
	movzbl	%al, %eax	# D.23731, D.23733
	andl	$3, %eax	#, D.23733
	cmpl	$3, %eax	#, D.23733
	je	.L47	#,
	call	Perl_block_gimme	#
	jmp	.L50	#
.L47:
	.loc 1 115 0 discriminator 2
	movl	$1, %eax	#, iftmp.57
	jmp	.L50	#
.L46:
	movl	$0, %eax	#, iftmp.55
	jmp	.L50	#
.L45:
	movl	$128, %eax	#, iftmp.53
.L50:
	.loc 1 115 0 discriminator 3
	movl	%eax, -36(%rbp)	# iftmp.53, gimme
	.loc 1 116 0 is_stmt 1 discriminator 3
	cmpl	$1, -36(%rbp)	#, gimme
	jne	.L51	#,
	.loc 1 117 0
	movq	%rbx, PL_stack_sp(%rip)	# sp, PL_stack_sp
	call	Perl_do_kv	#
	jmp	.L40	#
.L51:
	.loc 1 119 0
	cmpl	$0, -36(%rbp)	#, gimme
	jne	.L52	#,
.LBB8:
	.loc 1 120 0
	movq	-32(%rbp), %rax	# targ, tmp119
	movq	%rax, %rdi	# tmp119,
	call	Perl_hv_scalar	#
	movq	%rax, -24(%rbp)	# tmp120, sv
	.loc 1 121 0
	movq	-24(%rbp), %rax	# sv, tmp121
	movq	%rax, (%rbx)	# tmp121, *sp_19
.L52:
.LBE8:
	.loc 1 123 0
	movq	%rbx, PL_stack_sp(%rip)	# sp, PL_stack_sp
	movq	PL_op(%rip), %rax	# PL_op, PL_op.59
	movq	(%rax), %rax	# PL_op.59_74->op_next, D.23726
.L40:
	.loc 1 124 0
	addq	$40, %rsp	#,
	popq	%rbx	#
	popq	%rbp	#
	.cfi_def_cfa 7, 8
	ret
	.cfi_endproc
.LFE5:
	.size	Perl_pp_padhv, .-Perl_pp_padhv
	.section	.rodata
.LC2:
	.string	"NOT IMPL LINE %d"
	.text
	.globl	Perl_pp_padany
	.type	Perl_pp_padany, @function
Perl_pp_padany:
.LFB6:
	.loc 1 127 0
	.cfi_startproc
	pushq	%rbp	#
	.cfi_def_cfa_offset 16
	.cfi_offset 6, -16
	movq	%rsp, %rbp	#,
	.cfi_def_cfa_register 6
	.loc 1 128 0
	movl	$128, %esi	#,
	movl	$.LC2, %edi	#,
	movl	$0, %eax	#,
	call	Perl_die	#
	.loc 1 129 0
	popq	%rbp	#
	.cfi_def_cfa 7, 8
	ret
	.cfi_endproc
.LFE6:
	.size	Perl_pp_padany, .-Perl_pp_padany
	.section	.rodata
	.align 8
.LC3:
	.string	"Overloaded dereference did not return a reference"
.LC4:
	.string	""
.LC5:
	.string	"Not a GLOB reference"
.LC6:
	.string	"a symbol"
	.text
	.globl	Perl_pp_rv2gv
	.type	Perl_pp_rv2gv, @function
Perl_pp_rv2gv:
.LFB7:
	.loc 1 134 0
	.cfi_startproc
	pushq	%rbp	#
	.cfi_def_cfa_offset 16
	.cfi_offset 6, -16
	movq	%rsp, %rbp	#,
	.cfi_def_cfa_register 6
	pushq	%rbx	#
	subq	$88, %rsp	#,
	.cfi_offset 3, -24
	.loc 1 135 0
	movq	PL_stack_sp(%rip), %rbx	# PL_stack_sp, sp
	movq	(%rbx), %rax	# *sp_16, tmp201
	movq	%rax, -80(%rbp)	# tmp201, sv
	.loc 1 137 0
	movq	-80(%rbp), %rax	# sv, tmp202
	movl	12(%rax), %eax	# sv_17->sv_flags, D.23738
	andl	$524288, %eax	#, D.23738
	testl	%eax, %eax	# D.23738
	je	.L56	#,
.L57:
	.loc 1 139 0
	movq	PL_amagic_generation(%rip), %rax	# PL_amagic_generation, PL_amagic_generation.60
	testq	%rax, %rax	# PL_amagic_generation.60
	je	.L58	#,
.LBB9:
	.loc 1 139 0 is_stmt 0 discriminator 1
	movq	(%rbx), %rax	# *sp_16, tmp203
	movq	%rax, -72(%rbp)	# tmp203, arg
.L59:
	.loc 1 139 0 discriminator 2
	movq	-72(%rbp), %rax	# arg, tmp204
	movl	12(%rax), %eax	# arg_9->sv_flags, D.23738
	andl	$268435456, %eax	#, D.23738
	testl	%eax, %eax	# D.23738
	je	.L58	#,
	.loc 1 139 0 discriminator 1
	movq	-72(%rbp), %rax	# arg, tmp205
	movl	$9, %ecx	#,
	movl	$61, %edx	#,
	movl	$PL_sv_undef, %esi	#,
	movq	%rax, %rdi	# tmp205,
	call	Perl_amagic_call	#
	movq	%rax, -32(%rbp)	# tmp206, tmpsv
	cmpq	$0, -32(%rbp)	#, tmpsv
	je	.L58	#,
	movq	PL_stack_sp(%rip), %rbx	# PL_stack_sp, sp
.LBB10:
	movq	-32(%rbp), %rax	# tmpsv, tmp207
	movq	%rax, -80(%rbp)	# tmp207, sv
	movq	-32(%rbp), %rax	# tmpsv, tmp208
	movl	12(%rax), %eax	# tmpsv_145->sv_flags, D.23738
	andl	$524288, %eax	#, D.23738
	testl	%eax, %eax	# D.23738
	jne	.L60	#,
	movl	$.LC3, %edi	#,
	movl	$0, %eax	#,
	call	Perl_croak	#
.L60:
	.loc 1 139 0 discriminator 2
	movq	-32(%rbp), %rax	# tmpsv, tmp209
	cmpq	-72(%rbp), %rax	# arg, tmp209
	je	.L58	#,
	.loc 1 139 0 discriminator 1
	movq	-32(%rbp), %rax	# tmpsv, tmp210
	movq	(%rax), %rax	# tmpsv_145->sv_any, D.23743
	movq	(%rax), %rdx	# MEM[(struct XRV *)_150].xrv_rv, D.23747
	movq	-72(%rbp), %rax	# arg, tmp211
	movq	(%rax), %rax	# arg_9->sv_any, D.23743
	movq	(%rax), %rax	# MEM[(struct XRV *)_152].xrv_rv, D.23747
	cmpq	%rax, %rdx	# D.23747, D.23747
	je	.L58	#,
	movq	-32(%rbp), %rax	# tmpsv, tmp212
	movq	%rax, -72(%rbp)	# tmp212, arg
	jmp	.L59	#
.L58:
.LBE10:
.LBE9:
	.loc 1 141 0 is_stmt 1
	movq	-80(%rbp), %rax	# sv, tmp213
	movq	(%rax), %rax	# sv_5->sv_any, D.23743
	movq	(%rax), %rax	# MEM[(struct XRV *)_155].xrv_rv, tmp214
	movq	%rax, -80(%rbp)	# tmp214, sv
	.loc 1 142 0
	movq	-80(%rbp), %rax	# sv, tmp215
	movl	12(%rax), %eax	# sv_156->sv_flags, D.23738
	movzbl	%al, %eax	# D.23738, D.23738
	cmpl	$15, %eax	#, D.23738
	jne	.L61	#,
.LBB11:
	.loc 1 143 0
	call	Perl_sv_newmortal	#
	movq	%rax, -24(%rbp)	# tmp216, gv
	.loc 1 144 0
	movq	-24(%rbp), %rax	# gv, tmp217
	movl	$0, %r8d	#,
	movl	$0, %ecx	#,
	movl	$.LC4, %edx	#,
	movl	$0, %esi	#,
	movq	%rax, %rdi	# tmp217,
	call	Perl_gv_init	#
	.loc 1 145 0
	movq	-24(%rbp), %rax	# gv, tmp218
	movq	(%rax), %rax	# gv_159->sv_any, D.23750
	movq	56(%rax), %rax	# _160->xgv_gp, D.23751
	movq	-80(%rbp), %rdx	# sv, tmp219
	movq	%rdx, 16(%rax)	# tmp219, _161->gp_io
	.loc 1 146 0
	movq	-80(%rbp), %rax	# sv, tmp220
	movq	%rax, PL_Sv(%rip)	# tmp220, PL_Sv
	movq	PL_Sv(%rip), %rax	# PL_Sv, PL_Sv.62
	testq	%rax, %rax	# PL_Sv.62
	je	.L63	#,
	.loc 1 146 0 is_stmt 0 discriminator 1
	movq	PL_Sv(%rip), %rax	# PL_Sv, PL_Sv.63
	movl	8(%rax), %edx	# PL_Sv.63_163->sv_refcnt, D.23738
	addl	$1, %edx	#, D.23738
	movl	%edx, 8(%rax)	# D.23738, PL_Sv.63_163->sv_refcnt
	movl	8(%rax), %eax	# PL_Sv.63_163->sv_refcnt, D.23738
	testl	%eax, %eax	# D.23738
	je	.L63	#,
	.loc 1 146 0
	nop
.L63:
	.loc 1 147 0 is_stmt 1
	movq	-24(%rbp), %rax	# gv, tmp221
	movq	%rax, -80(%rbp)	# tmp221, sv
.LBE11:
	jmp	.L64	#
.L61:
	.loc 1 149 0
	movq	-80(%rbp), %rax	# sv, tmp222
	movl	12(%rax), %eax	# sv_156->sv_flags, D.23738
	movzbl	%al, %eax	# D.23738, D.23738
	cmpl	$13, %eax	#, D.23738
	je	.L64	#,
	.loc 1 150 0
	movl	$.LC5, %edi	#,
	movl	$0, %eax	#,
	call	Perl_die	#
	jmp	.L65	#
.L56:
	.loc 1 153 0
	movq	-80(%rbp), %rax	# sv, tmp223
	movl	12(%rax), %eax	# sv_17->sv_flags, D.23738
	movzbl	%al, %eax	# D.23738, D.23738
	cmpl	$13, %eax	#, D.23738
	je	.L64	#,
.LBB12:
	.loc 1 157 0
	movq	-80(%rbp), %rax	# sv, tmp224
	movl	12(%rax), %eax	# sv_17->sv_flags, D.23738
	andl	$8192, %eax	#, D.23738
	testl	%eax, %eax	# D.23738
	je	.L66	#,
	.loc 1 158 0
	movq	-80(%rbp), %rax	# sv, tmp225
	movq	%rax, %rdi	# tmp225,
	call	Perl_mg_get	#
	.loc 1 159 0
	movq	-80(%rbp), %rax	# sv, tmp226
	movl	12(%rax), %eax	# sv_17->sv_flags, D.23738
	andl	$524288, %eax	#, D.23738
	testl	%eax, %eax	# D.23738
	je	.L66	#,
	.loc 1 160 0
	jmp	.L57	#
.L66:
	.loc 1 162 0
	movq	-80(%rbp), %rax	# sv, tmp227
	movl	12(%rax), %eax	# sv_17->sv_flags, D.23738
	andl	$118423552, %eax	#, D.23738
	testl	%eax, %eax	# D.23738
	jne	.L68	#,
	.loc 1 162 0 is_stmt 0 discriminator 1
	cmpq	$PL_sv_undef, -80(%rbp)	#, sv
	je	.L68	#,
	.loc 1 166 0 is_stmt 1
	movq	-80(%rbp), %rax	# sv, tmp228
	movl	12(%rax), %eax	# sv_17->sv_flags, D.23738
	andl	$8388608, %eax	#, D.23738
	testl	%eax, %eax	# D.23738
	je	.L69	#,
	.loc 1 167 0
	movl	$PL_no_modify, %edi	#,
	movl	$0, %eax	#,
	call	Perl_croak	#
.L69:
	.loc 1 168 0
	movq	PL_op(%rip), %rax	# PL_op, PL_op.64
	movzbl	37(%rax), %eax	# PL_op.64_30->op_private, D.23739
	movzbl	%al, %eax	# D.23739, D.23740
	andl	$96, %eax	#, D.23740
	testl	%eax, %eax	# D.23740
	je	.L70	#,
.LBB13:
	.loc 1 171 0
	movq	PL_op(%rip), %rax	# PL_op, PL_op.65
	movq	24(%rax), %rax	# MEM[(struct UNOP *)PL_op.65_34].op_targ, D.23741
	testq	%rax, %rax	# D.23741
	je	.L71	#,
.LBB14:
	.loc 1 173 0
	movq	PL_curpad(%rip), %rdx	# PL_curpad, PL_curpad.66
	movq	PL_op(%rip), %rax	# PL_op, PL_op.67
	movq	24(%rax), %rax	# MEM[(struct UNOP *)PL_op.67_37].op_targ, D.23741
	salq	$3, %rax	#, D.23741
	addq	%rdx, %rax	# PL_curpad.66, D.23742
	movq	(%rax), %rax	# *_40, tmp229
	movq	%rax, -56(%rbp)	# tmp229, namesv
	.loc 1 174 0
	movq	-56(%rbp), %rax	# namesv, tmp230
	movl	12(%rax), %eax	# namesv_41->sv_flags, D.23738
	andl	$262144, %eax	#, D.23738
	testl	%eax, %eax	# D.23738
	je	.L72	#,
	.loc 1 174 0 is_stmt 0 discriminator 1
	movq	-56(%rbp), %rax	# namesv, tmp231
	movq	(%rax), %rax	# namesv_41->sv_any, D.23743
	movq	8(%rax), %rax	# MEM[(struct XPV *)_44].xpv_cur, len.69
	movq	%rax, -88(%rbp)	# len.69, len
	movq	-56(%rbp), %rax	# namesv, tmp232
	movq	(%rax), %rax	# namesv_41->sv_any, D.23743
	movq	(%rax), %rax	# MEM[(struct XPV *)_46].xpv_pv, iftmp.68
	jmp	.L73	#
.L72:
	.loc 1 174 0 discriminator 2
	leaq	-88(%rbp), %rcx	#, tmp233
	movq	-56(%rbp), %rax	# namesv, tmp234
	movl	$2, %edx	#,
	movq	%rcx, %rsi	# tmp233,
	movq	%rax, %rdi	# tmp234,
	call	Perl_sv_2pv_flags	#
.L73:
	.loc 1 174 0 discriminator 1
	movq	%rax, -48(%rbp)	# iftmp.68, name
	.loc 1 175 0 is_stmt 1 discriminator 1
	movl	$0, %edi	#,
	call	Perl_newSV	#
	movq	%rax, -64(%rbp)	# tmp235, gv
	.loc 1 176 0 discriminator 1
	movq	-88(%rbp), %rcx	# len, len.70
	movq	PL_curcop(%rip), %rax	# PL_curcop, PL_curcop.71
	movq	48(%rax), %rsi	# PL_curcop.71_52->cop_stash, D.23744
	movq	-48(%rbp), %rdx	# name, tmp236
	movq	-64(%rbp), %rax	# gv, tmp237
	movl	$0, %r8d	#,
	movq	%rax, %rdi	# tmp237,
	call	Perl_gv_init	#
.LBE14:
	jmp	.L74	#
.L71:
	.loc 1 179 0
	movq	PL_curcop(%rip), %rax	# PL_curcop, PL_curcop.73
	movq	48(%rax), %rax	# PL_curcop.73_54->cop_stash, D.23744
	testq	%rax, %rax	# D.23744
	je	.L75	#,
	.loc 1 179 0 is_stmt 0 discriminator 1
	movq	PL_curcop(%rip), %rax	# PL_curcop, PL_curcop.74
	movq	48(%rax), %rax	# PL_curcop.74_56->cop_stash, D.23744
	movq	(%rax), %rax	# _57->sv_any, D.23745
	movq	80(%rax), %rax	# _58->xhv_name, iftmp.72
	jmp	.L76	#
.L75:
	.loc 1 179 0 discriminator 2
	movl	$0, %eax	#, iftmp.72
.L76:
	.loc 1 179 0 discriminator 3
	movq	%rax, -48(%rbp)	# iftmp.72, name
	.loc 1 180 0 is_stmt 1 discriminator 3
	movq	-48(%rbp), %rax	# name, tmp238
	movq	%rax, %rdi	# tmp238,
	call	Perl_newGVgen	#
	movq	%rax, -64(%rbp)	# tmp239, gv
.L74:
	.loc 1 182 0
	movq	-80(%rbp), %rax	# sv, tmp240
	movl	12(%rax), %eax	# sv_17->sv_flags, D.23738
	movzbl	%al, %eax	# D.23738, D.23738
	cmpl	$2, %eax	#, D.23738
	ja	.L77	#,
	.loc 1 183 0
	movq	-80(%rbp), %rax	# sv, tmp241
	movl	$3, %esi	#,
	movq	%rax, %rdi	# tmp241,
	call	Perl_sv_upgrade	#
.L77:
	.loc 1 184 0
	movq	-80(%rbp), %rax	# sv, tmp242
	movq	(%rax), %rax	# sv_17->sv_any, D.23743
	movq	(%rax), %rax	# MEM[(struct XPV *)_65].xpv_pv, D.23746
	testq	%rax, %rax	# D.23746
	je	.L78	#,
	.loc 1 185 0
	movq	-80(%rbp), %rax	# sv, tmp243
	movl	12(%rax), %eax	# sv_17->sv_flags, D.23738
	andl	$2097152, %eax	#, D.23738
	testl	%eax, %eax	# D.23738
	je	.L80	#,
	.loc 1 185 0 is_stmt 0 discriminator 1
	movq	-80(%rbp), %rax	# sv, tmp244
	movq	%rax, %rdi	# tmp244,
	call	Perl_sv_backoff	#
	testl	%eax, %eax	# D.23740
	je	.L80	#,
	.loc 1 185 0
	nop
.L80:
	.loc 1 186 0 is_stmt 1
	movq	-80(%rbp), %rax	# sv, tmp245
	movq	(%rax), %rax	# sv_17->sv_any, D.23743
	movq	16(%rax), %rax	# MEM[(struct XPV *)_72].xpv_len, D.23741
	testq	%rax, %rax	# D.23741
	je	.L81	#,
	.loc 1 187 0
	movq	-80(%rbp), %rax	# sv, tmp246
	movq	(%rax), %rax	# sv_17->sv_any, D.23743
	movq	(%rax), %rax	# MEM[(struct XPV *)_74].xpv_pv, D.23746
	movq	%rax, %rdi	# D.23746,
	call	Perl_safesysfree	#
.L81:
	.loc 1 188 0
	movq	-80(%rbp), %rax	# sv, tmp247
	movq	(%rax), %rdx	# sv_17->sv_any, D.23743
	movq	-80(%rbp), %rax	# sv, tmp248
	movq	(%rax), %rax	# sv_17->sv_any, D.23743
	movq	$0, 8(%rax)	#, MEM[(struct XPV *)_77].xpv_cur
	movq	8(%rax), %rax	# MEM[(struct XPV *)_77].xpv_cur, D.23741
	movq	%rax, 16(%rdx)	# D.23741, MEM[(struct XPV *)_76].xpv_len
.L78:
	.loc 1 190 0
	movq	-80(%rbp), %rax	# sv, tmp249
	movq	(%rax), %rax	# sv_17->sv_any, D.23743
	movq	-64(%rbp), %rdx	# gv, tmp250
	movq	%rdx, (%rax)	# tmp250, MEM[(struct XRV *)_79].xrv_rv
	.loc 1 191 0
	movq	-80(%rbp), %rax	# sv, tmp251
	movl	12(%rax), %eax	# sv_17->sv_flags, D.23738
	orl	$524288, %eax	#, D.23738
	movl	%eax, %edx	# D.23738, D.23738
	movq	-80(%rbp), %rax	# sv, tmp252
	movl	%edx, 12(%rax)	# D.23738, sv_17->sv_flags
	.loc 1 192 0
	movq	-80(%rbp), %rax	# sv, tmp253
	movl	12(%rax), %eax	# sv_17->sv_flags, D.23738
	andl	$16384, %eax	#, D.23738
	testl	%eax, %eax	# D.23738
	je	.L82	#,
	.loc 1 192 0 is_stmt 0 discriminator 1
	movq	-80(%rbp), %rax	# sv, tmp254
	movq	%rax, %rdi	# tmp254,
	call	Perl_mg_set	#
	.loc 1 193 0 is_stmt 1 discriminator 1
	jmp	.L57	#
.L82:
	.loc 1 193 0 is_stmt 0
	nop
	jmp	.L57	#
.L70:
.LBE13:
	.loc 1 195 0 is_stmt 1
	movq	PL_op(%rip), %rax	# PL_op, PL_op.76
	movzbl	36(%rax), %eax	# PL_op.76_84->op_flags, D.23739
	movzbl	%al, %eax	# D.23739, D.23740
	andl	$16, %eax	#, D.23740
	testl	%eax, %eax	# D.23740
	jne	.L83	#,
	.loc 1 196 0 discriminator 1
	movq	PL_op(%rip), %rax	# PL_op, PL_op.77
	movzbl	37(%rax), %eax	# PL_op.77_88->op_private, D.23739
	movzbl	%al, %eax	# D.23739, D.23740
	andl	$2, %eax	#, D.23740
	.loc 1 195 0 discriminator 1
	testl	%eax, %eax	# D.23740
	je	.L84	#,
.L83:
	.loc 1 197 0
	movl	$.LC6, %esi	#,
	movl	$PL_no_usym, %edi	#,
	movl	$0, %eax	#,
	call	Perl_die	#
	jmp	.L65	#
.L84:
	.loc 1 198 0
	movq	PL_curcop(%rip), %rax	# PL_curcop, PL_curcop.78
	movq	80(%rax), %rax	# PL_curcop.78_92->cop_warnings, D.23747
	testq	%rax, %rax	# D.23747
	je	.L86	#,
	.loc 1 198 0 is_stmt 0 discriminator 1
	movq	PL_curcop(%rip), %rax	# PL_curcop, PL_curcop.79
	movq	80(%rax), %rax	# PL_curcop.79_94->cop_warnings, D.23747
	cmpq	$32, %rax	#, D.23747
	je	.L86	#,
	movq	PL_curcop(%rip), %rax	# PL_curcop, PL_curcop.80
	movq	80(%rax), %rax	# PL_curcop.80_96->cop_warnings, D.23747
	cmpq	$16, %rax	#, D.23747
	je	.L87	#,
	movq	PL_curcop(%rip), %rax	# PL_curcop, PL_curcop.81
	movq	80(%rax), %rax	# PL_curcop.81_98->cop_warnings, D.23747
	movq	(%rax), %rax	# _99->sv_any, D.23743
	movq	(%rax), %rax	# MEM[(struct XPV *)_100].xpv_pv, D.23746
	addq	$10, %rax	#, D.23746
	movzbl	(%rax), %eax	# *_102, D.23748
	movsbl	%al, %eax	# D.23748, D.23740
	andl	$4, %eax	#, D.23740
	testl	%eax, %eax	# D.23740
	jne	.L87	#,
.L86:
	.loc 1 198 0 discriminator 2
	movq	PL_curcop(%rip), %rax	# PL_curcop, PL_curcop.82
	movq	80(%rax), %rax	# PL_curcop.82_106->cop_warnings, D.23747
	testq	%rax, %rax	# D.23747
	jne	.L88	#,
	.loc 1 198 0 discriminator 1
	movzbl	PL_dowarn(%rip), %eax	# PL_dowarn, PL_dowarn.83
	movzbl	%al, %eax	# PL_dowarn.83, D.23740
	andl	$1, %eax	#, D.23740
	testl	%eax, %eax	# D.23740
	je	.L88	#,
.L87:
	.loc 1 199 0 is_stmt 1
	call	Perl_report_uninit	#
.L88:
	.loc 1 200 0
	movq	$PL_sv_undef, (%rbx)	#, *sp_16
	movq	%rbx, PL_stack_sp(%rip)	# sp, PL_stack_sp
	movq	PL_op(%rip), %rax	# PL_op, PL_op.84
	movq	(%rax), %rax	# PL_op.84_111->op_next, D.23737
	jmp	.L65	#
.L68:
	.loc 1 202 0
	movq	-80(%rbp), %rax	# sv, tmp255
	movl	12(%rax), %eax	# sv_17->sv_flags, D.23738
	andl	$262144, %eax	#, D.23738
	testl	%eax, %eax	# D.23738
	je	.L89	#,
	.loc 1 202 0 is_stmt 0 discriminator 1
	movq	-80(%rbp), %rax	# sv, tmp256
	movq	(%rax), %rax	# sv_17->sv_any, D.23743
	movq	8(%rax), %rax	# MEM[(struct XPV *)_116].xpv_cur, len.86
	movq	%rax, -88(%rbp)	# len.86, len
	movq	-80(%rbp), %rax	# sv, tmp257
	movq	(%rax), %rax	# sv_17->sv_any, D.23743
	movq	(%rax), %rax	# MEM[(struct XPV *)_118].xpv_pv, iftmp.85
	jmp	.L90	#
.L89:
	.loc 1 202 0 discriminator 2
	leaq	-88(%rbp), %rcx	#, tmp258
	movq	-80(%rbp), %rax	# sv, tmp259
	movl	$2, %edx	#,
	movq	%rcx, %rsi	# tmp258,
	movq	%rax, %rdi	# tmp259,
	call	Perl_sv_2pv_flags	#
.L90:
	.loc 1 202 0 discriminator 3
	movq	%rax, -40(%rbp)	# iftmp.85, sym
	.loc 1 203 0 is_stmt 1 discriminator 3
	movq	PL_op(%rip), %rax	# PL_op, PL_op.87
	movzbl	36(%rax), %eax	# PL_op.87_122->op_flags, D.23739
	testb	%al, %al	# D.23749
	jns	.L91	#,
	.loc 1 204 0 discriminator 1
	movq	PL_op(%rip), %rax	# PL_op, PL_op.88
	movzbl	36(%rax), %eax	# PL_op.88_125->op_flags, D.23739
	movzbl	%al, %eax	# D.23739, D.23740
	andl	$32, %eax	#, D.23740
	.loc 1 203 0 discriminator 1
	testl	%eax, %eax	# D.23740
	jne	.L91	#,
	.loc 1 206 0
	movq	-40(%rbp), %rax	# sym, tmp260
	movl	$13, %edx	#,
	movl	$0, %esi	#,
	movq	%rax, %rdi	# tmp260,
	call	Perl_gv_fetchpv	#
	movq	%rax, -80(%rbp)	# tmp261, sv
	.loc 1 207 0
	cmpq	$0, -80(%rbp)	#, sv
	jne	.L92	#,
	.loc 1 208 0
	movq	-88(%rbp), %rcx	# len, len.89
	movq	-40(%rbp), %rax	# sym, tmp262
	movl	$0, %edx	#,
	movq	%rcx, %rsi	# len.89,
	movq	%rax, %rdi	# tmp262,
	call	Perl_is_gv_magical	#
	testb	%al, %al	# D.23748
	je	.L93	#,
	.loc 1 209 0
	movq	-40(%rbp), %rax	# sym, tmp263
	movl	$13, %edx	#,
	movl	$1, %esi	#,
	movq	%rax, %rdi	# tmp263,
	call	Perl_gv_fetchpv	#
	movq	%rax, -80(%rbp)	# tmp264, sv
	cmpq	$0, -80(%rbp)	#, sv
	jne	.L92	#,
.L93:
	.loc 1 211 0
	movq	$PL_sv_undef, (%rbx)	#, *sp_16
	movq	%rbx, PL_stack_sp(%rip)	# sp, PL_stack_sp
	movq	PL_op(%rip), %rax	# PL_op, PL_op.90
	movq	(%rax), %rax	# PL_op.90_133->op_next, D.23737
	jmp	.L65	#
.L92:
	.loc 1 207 0 discriminator 1
	nop
	jmp	.L64	#
.L91:
	.loc 1 215 0
	movq	PL_op(%rip), %rax	# PL_op, PL_op.91
	movzbl	37(%rax), %eax	# PL_op.91_135->op_private, D.23739
	movzbl	%al, %eax	# D.23739, D.23740
	andl	$2, %eax	#, D.23740
	testl	%eax, %eax	# D.23740
	je	.L95	#,
	.loc 1 216 0
	movq	-40(%rbp), %rax	# sym, tmp265
	movl	$.LC6, %edx	#,
	movq	%rax, %rsi	# tmp265,
	movl	$PL_no_symref, %edi	#,
	movl	$0, %eax	#,
	call	Perl_die	#
	jmp	.L65	#
.L95:
	.loc 1 217 0
	movq	-40(%rbp), %rax	# sym, tmp266
	movl	$13, %edx	#,
	movl	$1, %esi	#,
	movq	%rax, %rdi	# tmp266,
	call	Perl_gv_fetchpv	#
	movq	%rax, -80(%rbp)	# tmp267, sv
.L64:
.LBE12:
	.loc 1 221 0
	movq	PL_op(%rip), %rax	# PL_op, PL_op.92
	movzbl	37(%rax), %eax	# PL_op.92_173->op_private, D.23739
	testb	%al, %al	# D.23749
	jns	.L96	#,
	.loc 1 222 0
	movq	PL_op(%rip), %rax	# PL_op, PL_op.93
	movzbl	36(%rax), %eax	# PL_op.93_176->op_flags, D.23739
	notl	%eax	# tmp268
	shrb	$7, %al	#, D.23752
	movzbl	%al, %edx	# D.23752, D.23740
	movq	-80(%rbp), %rax	# sv, tmp269
	movl	%edx, %esi	# D.23740,
	movq	%rax, %rdi	# tmp269,
	call	Perl_save_gp	#
.L96:
	.loc 1 223 0
	movq	-80(%rbp), %rax	# sv, tmp270
	movq	%rax, (%rbx)	# tmp270, *sp_3
	.loc 1 224 0
	movq	%rbx, PL_stack_sp(%rip)	# sp, PL_stack_sp
	movq	PL_op(%rip), %rax	# PL_op, PL_op.94
	movq	(%rax), %rax	# PL_op.94_181->op_next, D.23737
.L65:
	.loc 1 225 0
	addq	$88, %rsp	#,
	popq	%rbx	#
	popq	%rbp	#
	.cfi_def_cfa 7, 8
	ret
	.cfi_endproc
.LFE7:
	.size	Perl_pp_rv2gv, .-Perl_pp_rv2gv
	.section	.rodata
.LC7:
	.string	"Not a SCALAR reference"
.LC8:
	.string	"a SCALAR"
	.text
	.globl	Perl_pp_rv2sv
	.type	Perl_pp_rv2sv, @function
Perl_pp_rv2sv:
.LFB8:
	.loc 1 228 0
	.cfi_startproc
	pushq	%rbp	#
	.cfi_def_cfa_offset 16
	.cfi_offset 6, -16
	movq	%rsp, %rbp	#,
	.cfi_def_cfa_register 6
	pushq	%rbx	#
	subq	$56, %rsp	#,
	.cfi_offset 3, -24
	.loc 1 229 0
	movq	$0, -56(%rbp)	#, gv
	.loc 1 230 0
	movq	PL_stack_sp(%rip), %rbx	# PL_stack_sp, sp
	movq	(%rbx), %rax	# *sp_18, tmp154
	movq	%rax, -48(%rbp)	# tmp154, sv
	.loc 1 232 0
	movq	-48(%rbp), %rax	# sv, tmp155
	movl	12(%rax), %eax	# sv_19->sv_flags, D.23759
	andl	$524288, %eax	#, D.23759
	testl	%eax, %eax	# D.23759
	je	.L98	#,
.L99:
	.loc 1 234 0
	movq	PL_amagic_generation(%rip), %rax	# PL_amagic_generation, PL_amagic_generation.95
	testq	%rax, %rax	# PL_amagic_generation.95
	je	.L100	#,
.LBB15:
	.loc 1 234 0 is_stmt 0 discriminator 1
	movq	(%rbx), %rax	# *sp_18, tmp156
	movq	%rax, -40(%rbp)	# tmp156, arg
.L101:
	.loc 1 234 0 discriminator 2
	movq	-40(%rbp), %rax	# arg, tmp157
	movl	12(%rax), %eax	# arg_13->sv_flags, D.23759
	andl	$268435456, %eax	#, D.23759
	testl	%eax, %eax	# D.23759
	je	.L100	#,
	.loc 1 234 0 discriminator 1
	movq	-40(%rbp), %rax	# arg, tmp158
	movl	$9, %ecx	#,
	movl	$58, %edx	#,
	movl	$PL_sv_undef, %esi	#,
	movq	%rax, %rdi	# tmp158,
	call	Perl_amagic_call	#
	movq	%rax, -24(%rbp)	# tmp159, tmpsv
	cmpq	$0, -24(%rbp)	#, tmpsv
	je	.L100	#,
	movq	PL_stack_sp(%rip), %rbx	# PL_stack_sp, sp
.LBB16:
	movq	-24(%rbp), %rax	# tmpsv, tmp160
	movq	%rax, -48(%rbp)	# tmp160, sv
	movq	-24(%rbp), %rax	# tmpsv, tmp161
	movl	12(%rax), %eax	# tmpsv_95->sv_flags, D.23759
	andl	$524288, %eax	#, D.23759
	testl	%eax, %eax	# D.23759
	jne	.L102	#,
	movl	$.LC3, %edi	#,
	movl	$0, %eax	#,
	call	Perl_croak	#
.L102:
	.loc 1 234 0 discriminator 2
	movq	-24(%rbp), %rax	# tmpsv, tmp162
	cmpq	-40(%rbp), %rax	# arg, tmp162
	je	.L100	#,
	.loc 1 234 0 discriminator 1
	movq	-24(%rbp), %rax	# tmpsv, tmp163
	movq	(%rax), %rax	# tmpsv_95->sv_any, D.23763
	movq	(%rax), %rdx	# MEM[(struct XRV *)_100].xrv_rv, D.23762
	movq	-40(%rbp), %rax	# arg, tmp164
	movq	(%rax), %rax	# arg_13->sv_any, D.23763
	movq	(%rax), %rax	# MEM[(struct XRV *)_102].xrv_rv, D.23762
	cmpq	%rax, %rdx	# D.23762, D.23762
	je	.L100	#,
	movq	-24(%rbp), %rax	# tmpsv, tmp165
	movq	%rax, -40(%rbp)	# tmp165, arg
	jmp	.L101	#
.L100:
.LBE16:
.LBE15:
	.loc 1 236 0 is_stmt 1
	movq	-48(%rbp), %rax	# sv, tmp166
	movq	(%rax), %rax	# sv_9->sv_any, D.23763
	movq	(%rax), %rax	# MEM[(struct XRV *)_105].xrv_rv, tmp167
	movq	%rax, -48(%rbp)	# tmp167, sv
	.loc 1 237 0
	movq	-48(%rbp), %rax	# sv, tmp168
	movl	12(%rax), %eax	# sv_106->sv_flags, D.23759
	movzbl	%al, %eax	# D.23759, D.23759
	subl	$10, %eax	#, tmp169
	cmpl	$2, %eax	#, tmp169
	ja	.L106	#,
	.loc 1 241 0
	movl	$.LC7, %edi	#,
	movl	$0, %eax	#,
	call	Perl_die	#
	jmp	.L105	#
.L98:
.LBB17:
	.loc 1 247 0
	movq	-48(%rbp), %rax	# sv, tmp170
	movq	%rax, -56(%rbp)	# tmp170, gv
	.loc 1 249 0
	movq	-56(%rbp), %rax	# gv, tmp171
	movl	12(%rax), %eax	# gv_22->sv_flags, D.23759
	movzbl	%al, %eax	# D.23759, D.23759
	cmpl	$13, %eax	#, D.23759
	je	.L107	#,
	.loc 1 250 0
	movq	-48(%rbp), %rax	# sv, tmp172
	movl	12(%rax), %eax	# sv_19->sv_flags, D.23759
	andl	$8192, %eax	#, D.23759
	testl	%eax, %eax	# D.23759
	je	.L108	#,
	.loc 1 251 0
	movq	-48(%rbp), %rax	# sv, tmp173
	movq	%rax, %rdi	# tmp173,
	call	Perl_mg_get	#
	.loc 1 252 0
	movq	-48(%rbp), %rax	# sv, tmp174
	movl	12(%rax), %eax	# sv_19->sv_flags, D.23759
	andl	$524288, %eax	#, D.23759
	testl	%eax, %eax	# D.23759
	jne	.L99	#,
.L108:
	.loc 1 255 0
	movq	-48(%rbp), %rax	# sv, tmp175
	movl	12(%rax), %eax	# sv_19->sv_flags, D.23759
	andl	$118423552, %eax	#, D.23759
	testl	%eax, %eax	# D.23759
	jne	.L109	#,
	.loc 1 256 0
	movq	PL_op(%rip), %rax	# PL_op, PL_op.96
	movzbl	36(%rax), %eax	# PL_op.96_31->op_flags, D.23760
	movzbl	%al, %eax	# D.23760, D.23761
	andl	$16, %eax	#, D.23761
	testl	%eax, %eax	# D.23761
	jne	.L110	#,
	.loc 1 257 0 discriminator 1
	movq	PL_op(%rip), %rax	# PL_op, PL_op.97
	movzbl	37(%rax), %eax	# PL_op.97_35->op_private, D.23760
	movzbl	%al, %eax	# D.23760, D.23761
	andl	$2, %eax	#, D.23761
	.loc 1 256 0 discriminator 1
	testl	%eax, %eax	# D.23761
	je	.L111	#,
.L110:
	.loc 1 258 0
	movl	$.LC8, %esi	#,
	movl	$PL_no_usym, %edi	#,
	movl	$0, %eax	#,
	call	Perl_die	#
	jmp	.L105	#
.L111:
	.loc 1 259 0
	movq	PL_curcop(%rip), %rax	# PL_curcop, PL_curcop.98
	movq	80(%rax), %rax	# PL_curcop.98_39->cop_warnings, D.23762
	testq	%rax, %rax	# D.23762
	je	.L113	#,
	.loc 1 259 0 is_stmt 0 discriminator 1
	movq	PL_curcop(%rip), %rax	# PL_curcop, PL_curcop.99
	movq	80(%rax), %rax	# PL_curcop.99_41->cop_warnings, D.23762
	cmpq	$32, %rax	#, D.23762
	je	.L113	#,
	movq	PL_curcop(%rip), %rax	# PL_curcop, PL_curcop.100
	movq	80(%rax), %rax	# PL_curcop.100_43->cop_warnings, D.23762
	cmpq	$16, %rax	#, D.23762
	je	.L114	#,
	movq	PL_curcop(%rip), %rax	# PL_curcop, PL_curcop.101
	movq	80(%rax), %rax	# PL_curcop.101_45->cop_warnings, D.23762
	movq	(%rax), %rax	# _46->sv_any, D.23763
	movq	(%rax), %rax	# MEM[(struct XPV *)_47].xpv_pv, D.23764
	addq	$10, %rax	#, D.23764
	movzbl	(%rax), %eax	# *_49, D.23765
	movsbl	%al, %eax	# D.23765, D.23761
	andl	$4, %eax	#, D.23761
	testl	%eax, %eax	# D.23761
	jne	.L114	#,
.L113:
	.loc 1 259 0 discriminator 2
	movq	PL_curcop(%rip), %rax	# PL_curcop, PL_curcop.102
	movq	80(%rax), %rax	# PL_curcop.102_53->cop_warnings, D.23762
	testq	%rax, %rax	# D.23762
	jne	.L115	#,
	.loc 1 259 0 discriminator 1
	movzbl	PL_dowarn(%rip), %eax	# PL_dowarn, PL_dowarn.103
	movzbl	%al, %eax	# PL_dowarn.103, D.23761
	andl	$1, %eax	#, D.23761
	testl	%eax, %eax	# D.23761
	je	.L115	#,
.L114:
	.loc 1 260 0 is_stmt 1
	call	Perl_report_uninit	#
.L115:
	.loc 1 261 0
	movq	$PL_sv_undef, (%rbx)	#, *sp_18
	movq	%rbx, PL_stack_sp(%rip)	# sp, PL_stack_sp
	movq	PL_op(%rip), %rax	# PL_op, PL_op.104
	movq	(%rax), %rax	# PL_op.104_58->op_next, D.23758
	jmp	.L105	#
.L109:
	.loc 1 263 0
	movq	-48(%rbp), %rax	# sv, tmp176
	movl	12(%rax), %eax	# sv_19->sv_flags, D.23759
	andl	$262144, %eax	#, D.23759
	testl	%eax, %eax	# D.23759
	je	.L116	#,
	.loc 1 263 0 is_stmt 0 discriminator 1
	movq	-48(%rbp), %rax	# sv, tmp177
	movq	(%rax), %rax	# sv_19->sv_any, D.23763
	movq	8(%rax), %rax	# MEM[(struct XPV *)_63].xpv_cur, len.106
	movq	%rax, -64(%rbp)	# len.106, len
	movq	-48(%rbp), %rax	# sv, tmp178
	movq	(%rax), %rax	# sv_19->sv_any, D.23763
	movq	(%rax), %rax	# MEM[(struct XPV *)_65].xpv_pv, iftmp.105
	jmp	.L117	#
.L116:
	.loc 1 263 0 discriminator 2
	leaq	-64(%rbp), %rcx	#, tmp179
	movq	-48(%rbp), %rax	# sv, tmp180
	movl	$2, %edx	#,
	movq	%rcx, %rsi	# tmp179,
	movq	%rax, %rdi	# tmp180,
	call	Perl_sv_2pv_flags	#
.L117:
	.loc 1 263 0 discriminator 3
	movq	%rax, -32(%rbp)	# iftmp.105, sym
	.loc 1 264 0 is_stmt 1 discriminator 3
	movq	PL_op(%rip), %rax	# PL_op, PL_op.107
	movzbl	36(%rax), %eax	# PL_op.107_69->op_flags, D.23760
	testb	%al, %al	# D.23766
	jns	.L118	#,
	.loc 1 265 0 discriminator 1
	movq	PL_op(%rip), %rax	# PL_op, PL_op.108
	movzbl	36(%rax), %eax	# PL_op.108_72->op_flags, D.23760
	movzbl	%al, %eax	# D.23760, D.23761
	andl	$32, %eax	#, D.23761
	.loc 1 264 0 discriminator 1
	testl	%eax, %eax	# D.23761
	jne	.L118	#,
	.loc 1 267 0
	movq	-32(%rbp), %rax	# sym, tmp181
	movl	$4, %edx	#,
	movl	$0, %esi	#,
	movq	%rax, %rdi	# tmp181,
	call	Perl_gv_fetchpv	#
	movq	%rax, -56(%rbp)	# tmp182, gv
	.loc 1 268 0
	cmpq	$0, -56(%rbp)	#, gv
	jne	.L119	#,
	.loc 1 269 0
	movq	-64(%rbp), %rcx	# len, len.109
	movq	-32(%rbp), %rax	# sym, tmp183
	movl	$0, %edx	#,
	movq	%rcx, %rsi	# len.109,
	movq	%rax, %rdi	# tmp183,
	call	Perl_is_gv_magical	#
	testb	%al, %al	# D.23765
	je	.L120	#,
	.loc 1 270 0
	movq	-32(%rbp), %rax	# sym, tmp184
	movl	$4, %edx	#,
	movl	$1, %esi	#,
	movq	%rax, %rdi	# tmp184,
	call	Perl_gv_fetchpv	#
	movq	%rax, -56(%rbp)	# tmp185, gv
	cmpq	$0, -56(%rbp)	#, gv
	jne	.L119	#,
.L120:
	.loc 1 272 0
	movq	$PL_sv_undef, (%rbx)	#, *sp_18
	movq	%rbx, PL_stack_sp(%rip)	# sp, PL_stack_sp
	movq	PL_op(%rip), %rax	# PL_op, PL_op.110
	movq	(%rax), %rax	# PL_op.110_80->op_next, D.23758
	jmp	.L105	#
.L119:
	.loc 1 268 0 discriminator 1
	jmp	.L107	#
.L118:
	.loc 1 276 0
	movq	PL_op(%rip), %rax	# PL_op, PL_op.111
	movzbl	37(%rax), %eax	# PL_op.111_82->op_private, D.23760
	movzbl	%al, %eax	# D.23760, D.23761
	andl	$2, %eax	#, D.23761
	testl	%eax, %eax	# D.23761
	je	.L121	#,
	.loc 1 277 0
	movq	-32(%rbp), %rax	# sym, tmp186
	movl	$.LC8, %edx	#,
	movq	%rax, %rsi	# tmp186,
	movl	$PL_no_symref, %edi	#,
	movl	$0, %eax	#,
	call	Perl_die	#
	jmp	.L105	#
.L121:
	.loc 1 278 0
	movq	-32(%rbp), %rax	# sym, tmp187
	movl	$4, %edx	#,
	movl	$1, %esi	#,
	movq	%rax, %rdi	# tmp187,
	call	Perl_gv_fetchpv	#
	movq	%rax, -56(%rbp)	# tmp188, gv
.L107:
	.loc 1 281 0
	movq	-56(%rbp), %rax	# gv, tmp189
	movq	(%rax), %rax	# gv_3->sv_any, D.23767
	movq	56(%rax), %rax	# _88->xgv_gp, D.23768
	movq	(%rax), %rax	# _89->gp_sv, tmp190
	movq	%rax, -48(%rbp)	# tmp190, sv
.L106:
.LBE17:
	.loc 1 283 0
	movq	PL_op(%rip), %rax	# PL_op, PL_op.112
	movzbl	36(%rax), %eax	# PL_op.112_110->op_flags, D.23760
	movzbl	%al, %eax	# D.23760, D.23761
	andl	$32, %eax	#, D.23761
	testl	%eax, %eax	# D.23761
	je	.L122	#,
	.loc 1 284 0
	movq	PL_op(%rip), %rax	# PL_op, PL_op.113
	movzbl	37(%rax), %eax	# PL_op.113_114->op_private, D.23760
	testb	%al, %al	# D.23766
	jns	.L123	#,
	.loc 1 285 0
	movq	PL_op(%rip), %rax	# PL_op, PL_op.114
	movq	40(%rax), %rax	# MEM[(struct UNOP *)PL_op.114_117].op_first, D.23758
	movzwl	32(%rax), %eax	# _118->op_type, D.23769
	testw	%ax, %ax	# D.23769
	jne	.L124	#,
	.loc 1 286 0
	movq	(%rbx), %rax	# *sp_7, D.23762
	movq	%rax, %rdi	# D.23762,
	call	Perl_save_scalar	#
	movq	%rax, -48(%rbp)	# tmp191, sv
	jmp	.L122	#
.L124:
	.loc 1 287 0
	cmpq	$0, -56(%rbp)	#, gv
	je	.L126	#,
	.loc 1 288 0
	movq	-56(%rbp), %rax	# gv, tmp192
	movq	%rax, %rdi	# tmp192,
	call	Perl_save_scalar	#
	movq	%rax, -48(%rbp)	# tmp193, sv
	jmp	.L122	#
.L126:
	.loc 1 290 0
	movl	$PL_no_localize_ref, %edi	#,
	movl	$0, %eax	#,
	call	Perl_croak	#
	jmp	.L122	#
.L123:
	.loc 1 292 0
	movq	PL_op(%rip), %rax	# PL_op, PL_op.115
	movzbl	37(%rax), %eax	# PL_op.115_123->op_private, D.23760
	movzbl	%al, %eax	# D.23760, D.23761
	andl	$96, %eax	#, D.23761
	testl	%eax, %eax	# D.23761
	je	.L122	#,
	.loc 1 293 0
	movq	PL_op(%rip), %rax	# PL_op, PL_op.116
	movzbl	37(%rax), %eax	# PL_op.116_127->op_private, D.23760
	movzbl	%al, %eax	# D.23760, D.23759
	andl	$96, %eax	#, D.23759
	movl	%eax, %edx	# D.23759, D.23759
	movq	-48(%rbp), %rax	# sv, tmp194
	movl	%edx, %esi	# D.23759,
	movq	%rax, %rdi	# tmp194,
	call	Perl_vivify_ref	#
.L122:
	.loc 1 295 0
	movq	-48(%rbp), %rax	# sv, tmp195
	movq	%rax, (%rbx)	# tmp195, *sp_7
	.loc 1 296 0
	movq	%rbx, PL_stack_sp(%rip)	# sp, PL_stack_sp
	movq	PL_op(%rip), %rax	# PL_op, PL_op.117
	movq	(%rax), %rax	# PL_op.117_131->op_next, D.23758
.L105:
	.loc 1 297 0
	addq	$56, %rsp	#,
	popq	%rbx	#
	popq	%rbp	#
	.cfi_def_cfa 7, 8
	ret
	.cfi_endproc
.LFE8:
	.size	Perl_pp_rv2sv, .-Perl_pp_rv2sv
	.globl	Perl_pp_av2arylen
	.type	Perl_pp_av2arylen, @function
Perl_pp_av2arylen:
.LFB9:
	.loc 1 300 0
	.cfi_startproc
	pushq	%rbp	#
	.cfi_def_cfa_offset 16
	.cfi_offset 6, -16
	movq	%rsp, %rbp	#,
	.cfi_def_cfa_register 6
	pushq	%r12	#
	pushq	%rbx	#
	subq	$16, %rsp	#,
	.cfi_offset 12, -24
	.cfi_offset 3, -32
	.loc 1 301 0
	movq	PL_stack_sp(%rip), %rbx	# PL_stack_sp, sp
	.loc 1 302 0
	movq	(%rbx), %rax	# *sp_2, tmp65
	movq	%rax, -24(%rbp)	# tmp65, av
	.loc 1 303 0
	movq	-24(%rbp), %rax	# av, tmp66
	movq	(%rax), %rax	# av_3->sv_any, D.23772
	movq	64(%rax), %rax	# _4->xav_arylen, tmp67
	movq	%rax, -32(%rbp)	# tmp67, sv
	.loc 1 304 0
	cmpq	$0, -32(%rbp)	#, sv
	jne	.L128	#,
	.loc 1 305 0
	movq	-24(%rbp), %rax	# av, tmp68
	movq	(%rax), %r12	# av_3->sv_any, D.23772
	movl	$0, %edi	#,
	call	Perl_newSV	#
	movq	%rax, -32(%rbp)	# tmp69, sv
	movq	-32(%rbp), %rax	# sv, tmp70
	movq	%rax, 64(%r12)	# tmp70, _6->xav_arylen
	.loc 1 306 0
	movq	-32(%rbp), %rax	# sv, tmp71
	movl	$1, %esi	#,
	movq	%rax, %rdi	# tmp71,
	call	Perl_sv_upgrade	#
	.loc 1 307 0
	movq	-24(%rbp), %rsi	# av, tmp72
	movq	-32(%rbp), %rax	# sv, tmp73
	movl	$0, %r8d	#,
	movl	$0, %ecx	#,
	movl	$35, %edx	#,
	movq	%rax, %rdi	# tmp73,
	call	Perl_sv_magic	#
.L128:
	.loc 1 309 0
	movq	-32(%rbp), %rax	# sv, tmp74
	movq	%rax, (%rbx)	# tmp74, *sp_2
	.loc 1 310 0
	movq	%rbx, PL_stack_sp(%rip)	# sp, PL_stack_sp
	movq	PL_op(%rip), %rax	# PL_op, PL_op.118
	movq	(%rax), %rax	# PL_op.118_8->op_next, D.23773
	.loc 1 311 0
	addq	$16, %rsp	#,
	popq	%rbx	#
	popq	%r12	#
	popq	%rbp	#
	.cfi_def_cfa 7, 8
	ret
	.cfi_endproc
.LFE9:
	.size	Perl_pp_av2arylen, .-Perl_pp_av2arylen
	.globl	Perl_pp_pos
	.type	Perl_pp_pos, @function
Perl_pp_pos:
.LFB10:
	.loc 1 314 0
	.cfi_startproc
	pushq	%rbp	#
	.cfi_def_cfa_offset 16
	.cfi_offset 6, -16
	movq	%rsp, %rbp	#,
	.cfi_def_cfa_register 6
	pushq	%rbx	#
	subq	$40, %rsp	#,
	.cfi_offset 3, -24
	.loc 1 315 0
	movq	PL_stack_sp(%rip), %rbx	# PL_stack_sp, sp
	movq	PL_curpad(%rip), %rdx	# PL_curpad, PL_curpad.119
	movq	PL_op(%rip), %rax	# PL_op, PL_op.120
	movq	24(%rax), %rax	# PL_op.120_4->op_targ, D.23775
	salq	$3, %rax	#, D.23775
	addq	%rdx, %rax	# PL_curpad.119, D.23776
	movq	(%rax), %rax	# *_7, tmp118
	movq	%rax, -40(%rbp)	# tmp118, targ
	movq	%rbx, %rax	# sp, sp.121
	leaq	-8(%rax), %rbx	#, sp
	movq	(%rax), %rax	# *sp.121_9, tmp119
	movq	%rax, -32(%rbp)	# tmp119, sv
	.loc 1 317 0
	movq	PL_op(%rip), %rax	# PL_op, PL_op.122
	movzbl	36(%rax), %eax	# PL_op.122_12->op_flags, D.23777
	movzbl	%al, %eax	# D.23777, D.23778
	andl	$32, %eax	#, D.23778
	testl	%eax, %eax	# D.23778
	jne	.L131	#,
	.loc 1 317 0 is_stmt 0 discriminator 1
	movq	PL_op(%rip), %rax	# PL_op, PL_op.123
	movzbl	37(%rax), %eax	# PL_op.123_16->op_private, D.23777
	movzbl	%al, %eax	# D.23777, D.23778
	andl	$8, %eax	#, D.23778
	testl	%eax, %eax	# D.23778
	je	.L132	#,
	call	Perl_is_lvalue_sub	#
	testl	%eax, %eax	# D.23778
	je	.L132	#,
.L131:
	.loc 1 318 0 is_stmt 1
	movq	-40(%rbp), %rax	# targ, tmp120
	movl	12(%rax), %eax	# targ_8->sv_flags, D.23779
	movzbl	%al, %eax	# D.23779, D.23779
	cmpl	$8, %eax	#, D.23779
	ja	.L133	#,
	.loc 1 319 0
	movq	-40(%rbp), %rax	# targ, tmp121
	movl	$9, %esi	#,
	movq	%rax, %rdi	# tmp121,
	call	Perl_sv_upgrade	#
	.loc 1 320 0
	movq	-40(%rbp), %rax	# targ, tmp122
	movl	$0, %r8d	#,
	movl	$0, %ecx	#,
	movl	$46, %edx	#,
	movl	$0, %esi	#,
	movq	%rax, %rdi	# tmp122,
	call	Perl_sv_magic	#
.L133:
	.loc 1 323 0
	movq	-40(%rbp), %rax	# targ, tmp123
	movq	(%rax), %rax	# targ_8->sv_any, D.23780
	movb	$46, 80(%rax)	#, MEM[(struct XPVLV *)_50].xlv_type
	.loc 1 324 0
	movq	-40(%rbp), %rax	# targ, tmp124
	movq	(%rax), %rax	# targ_8->sv_any, D.23780
	movq	72(%rax), %rax	# MEM[(struct XPVLV *)_51].xlv_targ, D.23783
	cmpq	-32(%rbp), %rax	# sv, D.23783
	je	.L134	#,
	.loc 1 325 0
	movq	-40(%rbp), %rax	# targ, tmp125
	movq	(%rax), %rax	# targ_8->sv_any, D.23780
	movq	72(%rax), %rax	# MEM[(struct XPVLV *)_53].xlv_targ, D.23783
	testq	%rax, %rax	# D.23783
	je	.L135	#,
	.loc 1 326 0
	movq	-40(%rbp), %rax	# targ, tmp126
	movq	(%rax), %rax	# targ_8->sv_any, D.23780
	movq	72(%rax), %rax	# MEM[(struct XPVLV *)_55].xlv_targ, D.23783
	movq	%rax, %rdi	# D.23783,
	call	Perl_sv_free	#
.L135:
	.loc 1 327 0
	movq	-32(%rbp), %rax	# sv, tmp127
	movq	%rax, PL_Sv(%rip)	# tmp127, PL_Sv
	movq	PL_Sv(%rip), %rax	# PL_Sv, PL_Sv.125
	testq	%rax, %rax	# PL_Sv.125
	je	.L137	#,
	.loc 1 327 0 is_stmt 0 discriminator 1
	movq	PL_Sv(%rip), %rax	# PL_Sv, PL_Sv.126
	movl	8(%rax), %edx	# PL_Sv.126_58->sv_refcnt, D.23779
	addl	$1, %edx	#, D.23779
	movl	%edx, 8(%rax)	# D.23779, PL_Sv.126_58->sv_refcnt
	movl	8(%rax), %eax	# PL_Sv.126_58->sv_refcnt, D.23779
	testl	%eax, %eax	# D.23779
	je	.L137	#,
	.loc 1 327 0
	nop
.L137:
	.loc 1 327 0 discriminator 4
	movq	-40(%rbp), %rax	# targ, tmp128
	movq	(%rax), %rax	# targ_8->sv_any, D.23780
	movq	PL_Sv(%rip), %rdx	# PL_Sv, PL_Sv.127
	movq	%rdx, 72(%rax)	# PL_Sv.127, MEM[(struct XPVLV *)_64].xlv_targ
.L134:
	.loc 1 329 0 is_stmt 1
	addq	$8, %rbx	#, sp
	movq	-40(%rbp), %rax	# targ, tmp129
	movq	%rax, (%rbx)	# tmp129, *sp_66
	.loc 1 330 0
	movq	%rbx, PL_stack_sp(%rip)	# sp, PL_stack_sp
	movq	PL_op(%rip), %rax	# PL_op, PL_op.128
	movq	(%rax), %rax	# PL_op.128_67->op_next, D.23774
	jmp	.L138	#
.L132:
.LBB18:
	.loc 1 335 0
	movq	-32(%rbp), %rax	# sv, tmp130
	movl	12(%rax), %eax	# sv_11->sv_flags, D.23779
	movzbl	%al, %eax	# D.23779, D.23779
	cmpl	$6, %eax	#, D.23779
	jbe	.L139	#,
	.loc 1 335 0 is_stmt 0 discriminator 1
	movq	-32(%rbp), %rax	# sv, tmp131
	movq	(%rax), %rax	# sv_11->sv_any, D.23780
	movq	40(%rax), %rax	# MEM[(struct XPVMG *)_23].xmg_magic, D.23781
	testq	%rax, %rax	# D.23781
	je	.L139	#,
	.loc 1 336 0 is_stmt 1
	movq	-32(%rbp), %rax	# sv, tmp132
	movl	$103, %esi	#,
	movq	%rax, %rdi	# tmp132,
	call	Perl_mg_find	#
	movq	%rax, -24(%rbp)	# tmp133, mg
	.loc 1 337 0
	cmpq	$0, -24(%rbp)	#, mg
	je	.L139	#,
	.loc 1 337 0 is_stmt 0 discriminator 1
	movq	-24(%rbp), %rax	# mg, tmp134
	movl	40(%rax), %eax	# mg_25->mg_len, D.23778
	testl	%eax, %eax	# D.23778
	js	.L139	#,
.LBB19:
	.loc 1 338 0 is_stmt 1
	movq	-24(%rbp), %rax	# mg, tmp135
	movl	40(%rax), %eax	# mg_25->mg_len, i.129
	movl	%eax, -44(%rbp)	# i.129, i
	.loc 1 339 0
	movq	-32(%rbp), %rax	# sv, tmp136
	movl	12(%rax), %eax	# sv_11->sv_flags, D.23779
	andl	$536870912, %eax	#, D.23779
	testl	%eax, %eax	# D.23779
	je	.L140	#,
	.loc 1 339 0 is_stmt 0 discriminator 1
	movq	PL_curcop(%rip), %rax	# PL_curcop, PL_curcop.130
	movzbl	37(%rax), %eax	# PL_curcop.130_30->op_private, D.23777
	movzbl	%al, %eax	# D.23777, D.23778
	andl	$8, %eax	#, D.23778
	testl	%eax, %eax	# D.23778
	jne	.L140	#,
	.loc 1 340 0 is_stmt 1
	leaq	-44(%rbp), %rdx	#, tmp137
	movq	-32(%rbp), %rax	# sv, tmp138
	movq	%rdx, %rsi	# tmp137,
	movq	%rax, %rdi	# tmp138,
	call	Perl_sv_pos_b2u	#
.L140:
.LBB20:
	.loc 1 341 0
	movq	PL_curcop(%rip), %rax	# PL_curcop, PL_curcop.131
	movl	68(%rax), %edx	# PL_curcop.131_34->cop_arybase, D.23778
	movl	-44(%rbp), %eax	# i, i.132
	addl	%edx, %eax	# D.23778, D.23778
	movslq	%eax, %rdx	# D.23778, D.23782
	movq	-40(%rbp), %rax	# targ, tmp139
	movq	%rdx, %rsi	# D.23782,
	movq	%rax, %rdi	# tmp139,
	call	Perl_sv_setiv	#
.LBB21:
	movq	-40(%rbp), %rax	# targ, tmp140
	movl	12(%rax), %eax	# targ_8->sv_flags, D.23779
	andl	$16384, %eax	#, D.23779
	testl	%eax, %eax	# D.23779
	je	.L141	#,
	.loc 1 341 0 is_stmt 0 discriminator 1
	movq	-40(%rbp), %rax	# targ, tmp141
	movq	%rax, %rdi	# tmp141,
	call	Perl_mg_set	#
.L141:
	.loc 1 341 0 discriminator 2
	addq	$8, %rbx	#, sp
	movq	-40(%rbp), %rax	# targ, tmp142
	movq	%rax, (%rbx)	# tmp142, *sp_41
.LBE21:
.LBE20:
	.loc 1 342 0 is_stmt 1 discriminator 2
	movq	%rbx, PL_stack_sp(%rip)	# sp, PL_stack_sp
	movq	PL_op(%rip), %rax	# PL_op, PL_op.133
	movq	(%rax), %rax	# PL_op.133_43->op_next, D.23774
	jmp	.L138	#
.L139:
.LBE19:
	.loc 1 345 0
	addq	$8, %rbx	#, sp
	movq	$PL_sv_undef, (%rbx)	#, *sp_45
	movq	%rbx, PL_stack_sp(%rip)	# sp, PL_stack_sp
	movq	PL_op(%rip), %rax	# PL_op, PL_op.134
	movq	(%rax), %rax	# PL_op.134_46->op_next, D.23774
.L138:
.LBE18:
	.loc 1 347 0
	addq	$40, %rsp	#,
	popq	%rbx	#
	popq	%rbp	#
	.cfi_def_cfa 7, 8
	ret
	.cfi_endproc
.LFE10:
	.size	Perl_pp_pos, .-Perl_pp_pos
	.section	.rodata
	.align 8
.LC9:
	.string	"Can't modify non-lvalue subroutine call"
	.text
	.globl	Perl_pp_rv2cv
	.type	Perl_pp_rv2cv, @function
Perl_pp_rv2cv:
.LFB11:
	.loc 1 350 0
	.cfi_startproc
	pushq	%rbp	#
	.cfi_def_cfa_offset 16
	.cfi_offset 6, -16
	movq	%rsp, %rbp	#,
	.cfi_def_cfa_register 6
	pushq	%rbx	#
	subq	$40, %rsp	#,
	.cfi_offset 3, -24
	.loc 1 351 0
	movq	PL_stack_sp(%rip), %rbx	# PL_stack_sp, sp
	.loc 1 357 0
	movq	PL_op(%rip), %rax	# PL_op, PL_op.135
	movzbl	36(%rax), %eax	# PL_op.135_6->op_flags, D.23785
	notl	%eax	# tmp100
	shrb	$7, %al	#, D.23787
	movzbl	%al, %ecx	# D.23787, D.23788
	movq	(%rbx), %rax	# *sp_5, D.23789
	leaq	-40(%rbp), %rdx	#, tmp101
	leaq	-32(%rbp), %rsi	#, tmp102
	movq	%rax, %rdi	# D.23789,
	call	Perl_sv_2cv	#
	movq	%rax, -24(%rbp)	# tmp103, cv
	.loc 1 358 0
	cmpq	$0, -24(%rbp)	#, cv
	je	.L143	#,
	.loc 1 359 0
	movq	-24(%rbp), %rax	# cv, tmp104
	movq	(%rax), %rax	# cv_12->sv_any, D.23790
	movzwl	136(%rax), %eax	# _13->xcv_flags, D.23791
	movzwl	%ax, %eax	# D.23791, D.23788
	andl	$1, %eax	#, D.23788
	testl	%eax, %eax	# D.23788
	je	.L144	#,
	.loc 1 360 0
	movq	-24(%rbp), %rax	# cv, tmp105
	movq	%rax, %rdi	# tmp105,
	call	Perl_cv_clone	#
	movq	%rax, %rdi	# D.23792,
	call	Perl_sv_2mortal	#
	movq	%rax, -24(%rbp)	# tmp106, cv
.L144:
	.loc 1 361 0
	movq	PL_op(%rip), %rax	# PL_op, PL_op.136
	movzbl	37(%rax), %eax	# PL_op.136_19->op_private, D.23785
	testb	%al, %al	# D.23786
	jns	.L145	#,
	.loc 1 362 0
	movq	-40(%rbp), %rax	# gv, gv.137
	testq	%rax, %rax	# gv.137
	je	.L146	#,
	.loc 1 362 0 is_stmt 0 discriminator 1
	movq	-40(%rbp), %rax	# gv, gv.138
	movq	(%rax), %rax	# gv.138_23->sv_any, D.23793
	movq	56(%rax), %rax	# _24->xgv_gp, D.23794
	movq	56(%rax), %rax	# _25->gp_cv, D.23792
	cmpq	-24(%rbp), %rax	# cv, D.23792
	jne	.L146	#,
	movq	-40(%rbp), %rax	# gv, gv.139
	movq	(%rax), %rax	# gv.139_27->sv_any, D.23793
	movq	72(%rax), %rdx	# _28->xgv_namelen, D.23795
	movq	-40(%rbp), %rax	# gv, gv.140
	movq	(%rax), %rax	# gv.140_30->sv_any, D.23793
	movq	64(%rax), %rsi	# _31->xgv_name, D.23796
	movq	-40(%rbp), %rax	# gv, gv.141
	movq	(%rax), %rax	# gv.141_33->sv_any, D.23793
	movq	80(%rax), %rax	# _34->xgv_stash, D.23797
	movl	$0, %ecx	#,
	movq	%rax, %rdi	# D.23797,
	call	Perl_gv_autoload4	#
	movq	%rax, -40(%rbp)	# gv.142, gv
	movq	-40(%rbp), %rax	# gv, gv.143
	testq	%rax, %rax	# gv.143
	je	.L146	#,
	.loc 1 363 0 is_stmt 1
	movq	-40(%rbp), %rax	# gv, gv.144
	movq	(%rax), %rax	# gv.144_38->sv_any, D.23793
	movq	56(%rax), %rax	# _39->xgv_gp, D.23794
	movq	56(%rax), %rax	# _40->gp_cv, tmp107
	movq	%rax, -24(%rbp)	# tmp107, cv
.L146:
	.loc 1 364 0
	movq	-24(%rbp), %rax	# cv, tmp108
	movq	(%rax), %rax	# cv_2->sv_any, D.23790
	movzwl	136(%rax), %eax	# _42->xcv_flags, D.23791
	movzwl	%ax, %eax	# D.23791, D.23788
	andl	$256, %eax	#, D.23788
	testl	%eax, %eax	# D.23788
	jne	.L145	#,
	.loc 1 365 0
	movl	$.LC9, %edi	#,
	movl	$0, %eax	#,
	call	Perl_die	#
	jmp	.L148	#
.L143:
	.loc 1 369 0
	movq	$PL_sv_undef, -24(%rbp)	#, cv
.L145:
	.loc 1 370 0
	movq	-24(%rbp), %rax	# cv, tmp109
	movq	%rax, (%rbx)	# tmp109, *sp_5
	.loc 1 371 0
	movq	%rbx, PL_stack_sp(%rip)	# sp, PL_stack_sp
	movq	PL_op(%rip), %rax	# PL_op, PL_op.145
	movq	(%rax), %rax	# PL_op.145_48->op_next, D.23784
.L148:
	.loc 1 372 0
	addq	$40, %rsp	#,
	popq	%rbx	#
	popq	%rbp	#
	.cfi_def_cfa 7, 8
	ret
	.cfi_endproc
.LFE11:
	.size	Perl_pp_rv2cv, .-Perl_pp_rv2cv
	.section	.rodata
.LC10:
	.string	"CORE::"
	.align 8
.LC12:
	.string	"Can't find an opnumber for \"%s\""
.LC11:
	.string	"?$@@%&*$"
	.text
	.globl	Perl_pp_prototype
	.type	Perl_pp_prototype, @function
Perl_pp_prototype:
.LFB12:
	.loc 1 375 0
	.cfi_startproc
	pushq	%rbp	#
	.cfi_def_cfa_offset 16
	.cfi_offset 6, -16
	movq	%rsp, %rbp	#,
	.cfi_def_cfa_register 6
	pushq	%rbx	#
	subq	$104, %rsp	#,
	.cfi_offset 3, -24
	.loc 1 375 0
	movq	%fs:40, %rax	#, tmp149
	movq	%rax, -24(%rbp)	# tmp149, D.23810
	xorl	%eax, %eax	# tmp149
	.loc 1 376 0
	movq	PL_stack_sp(%rip), %rbx	# PL_stack_sp, sp
	.loc 1 382 0
	movq	$PL_sv_undef, -72(%rbp)	#, ret
	.loc 1 383 0
	movq	(%rbx), %rax	# *sp_11, D.23800
	movl	12(%rax), %eax	# _13->sv_flags, D.23801
	andl	$262144, %eax	#, D.23801
	testl	%eax, %eax	# D.23801
	je	.L150	#,
	.loc 1 383 0 is_stmt 0 discriminator 1
	movq	(%rbx), %rax	# *sp_11, D.23800
	movq	(%rax), %rax	# _16->sv_any, D.23802
	movq	8(%rax), %rax	# MEM[(struct XPV *)_17].xpv_cur, D.23803
	cmpq	$6, %rax	#, D.23803
	jbe	.L150	#,
.LBB22:
	.loc 1 384 0 is_stmt 1
	movq	(%rbx), %rax	# *sp_11, D.23800
	movq	(%rax), %rax	# _19->sv_any, D.23802
	movq	(%rax), %rax	# MEM[(struct XPV *)_20].xpv_pv, tmp110
	movq	%rax, -64(%rbp)	# tmp110, s
	.loc 1 385 0
	movq	-64(%rbp), %rax	# s, tmp111
	movl	$6, %edx	#,
	movl	$.LC10, %esi	#,
	movq	%rax, %rdi	# tmp111,
	call	strncmp	#
	testl	%eax, %eax	# D.23804
	jne	.L150	#,
.LBB23:
	.loc 1 388 0
	movq	(%rbx), %rax	# *sp_11, D.23800
	movq	(%rax), %rax	# _23->sv_any, D.23802
	movq	8(%rax), %rax	# MEM[(struct XPV *)_24].xpv_cur, D.23803
	subl	$6, %eax	#, D.23805
	movq	-64(%rbp), %rdx	# s, tmp112
	addq	$6, %rdx	#, D.23806
	movl	%eax, %esi	# D.23804,
	movq	%rdx, %rdi	# D.23806,
	call	Perl_keyword	#
	movl	%eax, -92(%rbp)	# tmp113, code
	.loc 1 389 0
	cmpl	$0, -92(%rbp)	#, code
	jns	.L151	#,
.LBB24:
	.loc 1 391 0
	movl	$0, -108(%rbp)	#, i
	movl	$0, -104(%rbp)	#, n
	movl	$0, -100(%rbp)	#, seen_question
	.loc 1 395 0
	cmpl	$-25, -92(%rbp)	#, code
	je	.L162	#,
	.loc 1 395 0 is_stmt 0 discriminator 1
	cmpl	$-24, -92(%rbp)	#, code
	je	.L162	#,
	.loc 1 397 0 is_stmt 1
	jmp	.L153	#
.L155:
	.loc 1 398 0
	movl	-108(%rbp), %eax	# i, tmp115
	cltq
	movq	PL_op_name(,%rax,8), %rax	# PL_op_name, D.23806
	movq	-64(%rbp), %rdx	# s, tmp116
	addq	$6, %rdx	#, D.23807
	movq	%rax, %rsi	# D.23806,
	movq	%rdx, %rdi	# D.23807,
	call	strcmp	#
	testl	%eax, %eax	# D.23804
	je	.L154	#,
	.loc 1 399 0
	movl	-108(%rbp), %eax	# i, tmp118
	cltq
	movq	PL_op_desc(,%rax,8), %rax	# PL_op_desc, D.23806
	movq	-64(%rbp), %rdx	# s, tmp119
	addq	$6, %rdx	#, D.23807
	movq	%rax, %rsi	# D.23806,
	movq	%rdx, %rdi	# D.23807,
	call	strcmp	#
	testl	%eax, %eax	# D.23804
	je	.L154	#,
	.loc 1 403 0
	addl	$1, -108(%rbp)	#, i
.L153:
	.loc 1 397 0 discriminator 1
	cmpl	$351, -108(%rbp)	#, i
	jle	.L155	#,
	jmp	.L156	#
.L154:
	.loc 1 407 0
	movl	-108(%rbp), %eax	# i, tmp121
	cltq
	movl	PL_opargs(,%rax,4), %eax	# PL_opargs, D.23801
	shrl	$13, %eax	#, D.23801
	movl	%eax, -96(%rbp)	# D.23801, oa
	.loc 1 408 0
	jmp	.L157	#
.L161:
	.loc 1 409 0
	movl	-96(%rbp), %eax	# oa, tmp122
	andl	$8, %eax	#, D.23804
	testl	%eax, %eax	# D.23804
	je	.L158	#,
	.loc 1 409 0 is_stmt 0 discriminator 1
	cmpl	$0, -100(%rbp)	#, seen_question
	jne	.L158	#,
	.loc 1 410 0 is_stmt 1
	movl	$1, -100(%rbp)	#, seen_question
	.loc 1 411 0
	movl	-104(%rbp), %eax	# n, n.146
	leal	1(%rax), %edx	#, tmp123
	movl	%edx, -104(%rbp)	# tmp123, n
	cltq
	movb	$59, -48(%rbp,%rax)	#, str
	jmp	.L159	#
.L158:
	.loc 1 413 0
	cmpl	$0, -104(%rbp)	#, n
	je	.L159	#,
	.loc 1 413 0 is_stmt 0 discriminator 1
	movzbl	-48(%rbp), %eax	# str, D.23808
	cmpb	$59, %al	#, D.23808
	jne	.L159	#,
	cmpl	$0, -100(%rbp)	#, seen_question
	je	.L159	#,
	.loc 1 414 0 is_stmt 1
	nop
	jmp	.L162	#
.L159:
	.loc 1 415 0
	movl	-96(%rbp), %eax	# oa, tmp125
	andl	$7, %eax	#, D.23804
	cmpl	$2, %eax	#, D.23804
	jle	.L160	#,
	.loc 1 416 0
	movl	-96(%rbp), %eax	# oa, tmp126
	andl	$7, %eax	#, D.23804
	cmpl	$7, %eax	#, D.23804
	jg	.L160	#,
	.loc 1 418 0
	movl	-96(%rbp), %eax	# oa, tmp127
	andl	$7, %eax	#, D.23804
	cmpl	$6, %eax	#, D.23804
	je	.L160	#,
	.loc 1 420 0
	movl	-104(%rbp), %eax	# n, n.147
	leal	1(%rax), %edx	#, tmp128
	movl	%edx, -104(%rbp)	# tmp128, n
	cltq
	movb	$92, -48(%rbp,%rax)	#, str
.L160:
	.loc 1 422 0
	movl	-104(%rbp), %eax	# n, n.148
	leal	1(%rax), %edx	#, tmp130
	movl	%edx, -104(%rbp)	# tmp130, n
	movl	-96(%rbp), %edx	# oa, tmp131
	andl	$7, %edx	#, D.23804
	movslq	%edx, %rdx	# D.23804, tmp132
	movzbl	.LC11(%rdx), %edx	#, D.23808
	cltq
	movb	%dl, -48(%rbp,%rax)	# D.23808, str
	.loc 1 423 0
	sarl	$4, -96(%rbp)	#, oa
.L157:
	.loc 1 408 0 discriminator 1
	cmpl	$0, -96(%rbp)	#, oa
	jne	.L161	#,
	.loc 1 425 0
	movl	-104(%rbp), %eax	# n, n.149
	leal	1(%rax), %edx	#, tmp134
	movl	%edx, -104(%rbp)	# tmp134, n
	cltq
	movb	$0, -48(%rbp,%rax)	#, str
	.loc 1 426 0
	movl	-104(%rbp), %eax	# n, tmp136
	subl	$1, %eax	#, D.23804
	movslq	%eax, %rdx	# D.23804, D.23803
	leaq	-48(%rbp), %rax	#, tmp137
	movq	%rdx, %rsi	# D.23803,
	movq	%rax, %rdi	# tmp137,
	call	Perl_newSVpvn	#
	movq	%rax, %rdi	# D.23800,
	call	Perl_sv_2mortal	#
	movq	%rax, -72(%rbp)	# tmp138, ret
.LBE24:
	jmp	.L150	#
.L151:
	.loc 1 428 0
	cmpl	$0, -92(%rbp)	#, code
	je	.L156	#,
	.loc 1 429 0
	jmp	.L162	#
.L156:
	.loc 1 432 0
	movq	-64(%rbp), %rax	# s, tmp139
	addq	$6, %rax	#, D.23806
	movq	%rax, %rsi	# D.23806,
	movl	$.LC12, %edi	#,
	movl	$0, %eax	#,
	call	Perl_die	#
	jmp	.L164	#
.L150:
.LBE23:
.LBE22:
	.loc 1 436 0
	movq	(%rbx), %rax	# *sp_11, D.23800
	leaq	-80(%rbp), %rdx	#, tmp140
	leaq	-88(%rbp), %rsi	#, tmp141
	movl	$0, %ecx	#,
	movq	%rax, %rdi	# D.23800,
	call	Perl_sv_2cv	#
	movq	%rax, -56(%rbp)	# tmp142, cv
	.loc 1 437 0
	cmpq	$0, -56(%rbp)	#, cv
	je	.L162	#,
	.loc 1 437 0 is_stmt 0 discriminator 1
	movq	-56(%rbp), %rax	# cv, tmp143
	movl	12(%rax), %eax	# cv_68->sv_flags, D.23801
	andl	$262144, %eax	#, D.23801
	testl	%eax, %eax	# D.23801
	je	.L162	#,
	.loc 1 438 0 is_stmt 1
	movq	-56(%rbp), %rax	# cv, tmp144
	movq	(%rax), %rax	# cv_68->sv_any, D.23809
	movq	8(%rax), %rdx	# MEM[(struct XPV *)_71].xpv_cur, D.23803
	movq	-56(%rbp), %rax	# cv, tmp145
	movq	(%rax), %rax	# cv_68->sv_any, D.23809
	movq	(%rax), %rax	# MEM[(struct XPV *)_73].xpv_pv, D.23806
	movq	%rdx, %rsi	# D.23803,
	movq	%rax, %rdi	# D.23806,
	call	Perl_newSVpvn	#
	movq	%rax, %rdi	# D.23800,
	call	Perl_sv_2mortal	#
	movq	%rax, -72(%rbp)	# tmp146, ret
.L162:
	.loc 1 440 0
	movq	-72(%rbp), %rax	# ret, tmp147
	movq	%rax, (%rbx)	# tmp147, *sp_11
	.loc 1 441 0
	movq	%rbx, PL_stack_sp(%rip)	# sp, PL_stack_sp
	movq	PL_op(%rip), %rax	# PL_op, PL_op.150
	movq	(%rax), %rax	# PL_op.150_77->op_next, D.23799
.L164:
	.loc 1 442 0
	movq	-24(%rbp), %rcx	# D.23810, tmp150
	xorq	%fs:40, %rcx	#, tmp150
	je	.L165	#,
	call	__stack_chk_fail	#
.L165:
	addq	$104, %rsp	#,
	popq	%rbx	#
	popq	%rbp	#
	.cfi_def_cfa 7, 8
	ret
	.cfi_endproc
.LFE12:
	.size	Perl_pp_prototype, .-Perl_pp_prototype
	.globl	Perl_pp_anoncode
	.type	Perl_pp_anoncode, @function
Perl_pp_anoncode:
.LFB13:
	.loc 1 445 0
	.cfi_startproc
	pushq	%rbp	#
	.cfi_def_cfa_offset 16
	.cfi_offset 6, -16
	movq	%rsp, %rbp	#,
	.cfi_def_cfa_register 6
	pushq	%rbx	#
	subq	$24, %rsp	#,
	.cfi_offset 3, -24
	.loc 1 446 0
	movq	PL_stack_sp(%rip), %rbx	# PL_stack_sp, sp
	.loc 1 447 0
	movq	PL_curpad(%rip), %rdx	# PL_curpad, PL_curpad.151
	movq	PL_op(%rip), %rax	# PL_op, PL_op.152
	movq	24(%rax), %rax	# PL_op.152_5->op_targ, D.23816
	salq	$3, %rax	#, D.23816
	addq	%rdx, %rax	# PL_curpad.151, D.23817
	movq	(%rax), %rax	# *_8, tmp77
	movq	%rax, -24(%rbp)	# tmp77, cv
	.loc 1 448 0
	movq	-24(%rbp), %rax	# cv, tmp78
	movq	(%rax), %rax	# cv_9->sv_any, D.23818
	movzwl	136(%rax), %eax	# _10->xcv_flags, D.23819
	movzwl	%ax, %eax	# D.23819, D.23820
	andl	$1, %eax	#, D.23820
	testl	%eax, %eax	# D.23820
	je	.L167	#,
	.loc 1 449 0
	movq	-24(%rbp), %rax	# cv, tmp79
	movq	%rax, %rdi	# tmp79,
	call	Perl_cv_clone	#
	movq	%rax, %rdi	# D.23821,
	call	Perl_sv_2mortal	#
	movq	%rax, -24(%rbp)	# tmp80, cv
.L167:
	.loc 1 450 0
	movq	PL_stack_max(%rip), %rax	# PL_stack_max, PL_stack_max.153
	movq	%rax, %rdx	# PL_stack_max.153, PL_stack_max.154
	movq	%rbx, %rax	# sp, sp.155
	subq	%rax, %rdx	# sp.155, D.23822
	movq	%rdx, %rax	# D.23822, D.23822
	cmpq	$7, %rax	#, D.23822
	jg	.L168	#,
	.loc 1 450 0 is_stmt 0 discriminator 1
	movl	$1, %edx	#,
	movq	%rbx, %rsi	# sp,
	movq	%rbx, %rdi	# sp,
	call	Perl_stack_grow	#
	movq	%rax, %rbx	#, sp
.L168:
	.loc 1 451 0 is_stmt 1
	addq	$8, %rbx	#, sp
	movq	-24(%rbp), %rax	# cv, tmp81
	movq	%rax, (%rbx)	# tmp81, *sp_21
	.loc 1 452 0
	movq	%rbx, PL_stack_sp(%rip)	# sp, PL_stack_sp
	movq	PL_op(%rip), %rax	# PL_op, PL_op.156
	movq	(%rax), %rax	# PL_op.156_22->op_next, D.23823
	.loc 1 453 0
	addq	$24, %rsp	#,
	popq	%rbx	#
	popq	%rbp	#
	.cfi_def_cfa 7, 8
	ret
	.cfi_endproc
.LFE13:
	.size	Perl_pp_anoncode, .-Perl_pp_anoncode
	.globl	Perl_pp_srefgen
	.type	Perl_pp_srefgen, @function
Perl_pp_srefgen:
.LFB14:
	.loc 1 456 0
	.cfi_startproc
	pushq	%rbp	#
	.cfi_def_cfa_offset 16
	.cfi_offset 6, -16
	movq	%rsp, %rbp	#,
	.cfi_def_cfa_register 6
	pushq	%rbx	#
	subq	$8, %rsp	#,
	.cfi_offset 3, -24
	.loc 1 457 0
	movq	PL_stack_sp(%rip), %rbx	# PL_stack_sp, sp
	.loc 1 458 0
	movq	(%rbx), %rax	# *sp_1, D.23824
	movq	%rax, %rdi	# D.23824,
	call	S_refto	#
	movq	%rax, (%rbx)	# D.23824, *sp_1
	.loc 1 459 0
	movq	%rbx, PL_stack_sp(%rip)	# sp, PL_stack_sp
	movq	PL_op(%rip), %rax	# PL_op, PL_op.157
	movq	(%rax), %rax	# PL_op.157_4->op_next, D.23825
	.loc 1 460 0
	addq	$8, %rsp	#,
	popq	%rbx	#
	popq	%rbp	#
	.cfi_def_cfa 7, 8
	ret
	.cfi_endproc
.LFE14:
	.size	Perl_pp_srefgen, .-Perl_pp_srefgen
	.globl	Perl_pp_refgen
	.type	Perl_pp_refgen, @function
Perl_pp_refgen:
.LFB15:
	.loc 1 463 0
	.cfi_startproc
	pushq	%rbp	#
	.cfi_def_cfa_offset 16
	.cfi_offset 6, -16
	movq	%rsp, %rbp	#,
	.cfi_def_cfa_register 6
	pushq	%r12	#
	pushq	%rbx	#
	.cfi_offset 12, -24
	.cfi_offset 3, -32
	.loc 1 464 0
	movq	PL_stack_sp(%rip), %r12	# PL_stack_sp, sp
	movq	PL_stack_base(%rip), %rcx	# PL_stack_base, PL_stack_base.158
	movq	PL_markstack_ptr(%rip), %rax	# PL_markstack_ptr, PL_markstack_ptr.159
	leaq	-4(%rax), %rdx	#, PL_markstack_ptr.161
	movq	%rdx, PL_markstack_ptr(%rip)	# PL_markstack_ptr.161, PL_markstack_ptr
	movl	(%rax), %eax	# *PL_markstack_ptr.160_7, D.23827
	cltq
	salq	$3, %rax	#, D.23828
	leaq	(%rcx,%rax), %rbx	#, mark
	.loc 1 465 0
	movq	PL_op(%rip), %rax	# PL_op, PL_op.163
	movzbl	36(%rax), %eax	# PL_op.163_13->op_flags, D.23829
	movzbl	%al, %eax	# D.23829, D.23827
	andl	$3, %eax	#, D.23827
	testl	%eax, %eax	# D.23827
	je	.L173	#,
	.loc 1 465 0 is_stmt 0 discriminator 1
	movq	PL_op(%rip), %rax	# PL_op, PL_op.164
	movzbl	36(%rax), %eax	# PL_op.164_17->op_flags, D.23829
	movzbl	%al, %eax	# D.23829, D.23827
	andl	$3, %eax	#, D.23827
	cmpl	$3, %eax	#, D.23827
	setne	%al	#, iftmp.162
	jmp	.L174	#
.L173:
	.loc 1 465 0 discriminator 2
	call	Perl_dowantarray	#
	cmpl	$1, %eax	#, D.23827
	setne	%al	#, iftmp.162
.L174:
	.loc 1 465 0 discriminator 3
	testb	%al, %al	# iftmp.162
	je	.L175	#,
	.loc 1 466 0 is_stmt 1
	addq	$8, %rbx	#, mark
	cmpq	%r12, %rbx	# sp, mark
	ja	.L176	#,
	.loc 1 467 0
	movq	(%r12), %rax	# *sp_4, D.23830
	movq	%rax, (%rbx)	# D.23830, *mark_24
	jmp	.L177	#
.L176:
	.loc 1 469 0
	movq	$PL_sv_undef, (%rbx)	#, *mark_24
.L177:
	.loc 1 470 0
	movq	(%rbx), %rax	# *mark_24, D.23830
	movq	%rax, %rdi	# D.23830,
	call	S_refto	#
	movq	%rax, (%rbx)	# D.23830, *mark_24
	.loc 1 471 0
	movq	%rbx, %r12	# mark, sp
	.loc 1 472 0
	movq	%r12, PL_stack_sp(%rip)	# sp, PL_stack_sp
	movq	PL_op(%rip), %rax	# PL_op, PL_op.165
	movq	(%rax), %rax	# PL_op.165_29->op_next, D.23826
	jmp	.L178	#
.L175:
	.loc 1 474 0
	movl	PL_tmps_ix(%rip), %eax	# PL_tmps_ix, PL_tmps_ix.166
	movslq	%eax, %rdx	# PL_tmps_ix.166, D.23831
	movq	%r12, %rcx	# sp, sp.167
	movq	%rbx, %rax	# mark, mark.168
	subq	%rax, %rcx	# mark.168, D.23831
	movq	%rcx, %rax	# D.23831, D.23831
	sarq	$3, %rax	#, tmp101
	addq	%rax, %rdx	# D.23831, D.23831
	movl	PL_tmps_max(%rip), %eax	# PL_tmps_max, PL_tmps_max.169
	cltq
	cmpq	%rax, %rdx	# D.23831, D.23831
	jl	.L179	#,
	.loc 1 474 0 is_stmt 0 discriminator 1
	movq	%r12, %rdx	# sp, sp.170
	movq	%rbx, %rax	# mark, mark.171
	subq	%rax, %rdx	# mark.171, D.23831
	movq	%rdx, %rax	# D.23831, D.23831
	sarq	$3, %rax	#, tmp102
	movl	%eax, %edi	# D.23827,
	call	Perl_tmps_grow	#
	.loc 1 475 0 is_stmt 1 discriminator 1
	jmp	.L180	#
.L179:
	.loc 1 475 0 is_stmt 0
	jmp	.L180	#
.L181:
	.loc 1 476 0 is_stmt 1
	movq	(%rbx), %rax	# *mark_45, D.23830
	movq	%rax, %rdi	# D.23830,
	call	S_refto	#
	movq	%rax, (%rbx)	# D.23830, *mark_45
.L180:
	.loc 1 475 0 discriminator 1
	addq	$8, %rbx	#, mark
	cmpq	%r12, %rbx	# sp, mark
	jbe	.L181	#,
	.loc 1 477 0
	movq	%r12, PL_stack_sp(%rip)	# sp, PL_stack_sp
	movq	PL_op(%rip), %rax	# PL_op, PL_op.172
	movq	(%rax), %rax	# PL_op.172_48->op_next, D.23826
.L178:
	.loc 1 478 0
	popq	%rbx	#
	popq	%r12	#
	popq	%rbp	#
	.cfi_def_cfa 7, 8
	ret
	.cfi_endproc
.LFE15:
	.size	Perl_pp_refgen, .-Perl_pp_refgen
	.type	S_refto, @function
S_refto:
.LFB16:
	.loc 1 482 0
	.cfi_startproc
	pushq	%rbp	#
	.cfi_def_cfa_offset 16
	.cfi_offset 6, -16
	movq	%rsp, %rbp	#,
	.cfi_def_cfa_register 6
	subq	$32, %rsp	#,
	movq	%rdi, -24(%rbp)	# sv, sv
	.loc 1 485 0
	movq	-24(%rbp), %rax	# sv, tmp108
	movl	12(%rax), %eax	# sv_3(D)->sv_flags, D.23832
	movzbl	%al, %eax	# D.23832, D.23832
	cmpl	$9, %eax	#, D.23832
	jne	.L183	#,
	.loc 1 485 0 is_stmt 0 discriminator 1
	movq	-24(%rbp), %rax	# sv, tmp109
	movq	(%rax), %rax	# sv_3(D)->sv_any, D.23833
	movzbl	80(%rax), %eax	# MEM[(struct XPVLV *)_6].xlv_type, D.23834
	cmpb	$121, %al	#, D.23834
	jne	.L183	#,
	.loc 1 486 0 is_stmt 1
	movq	-24(%rbp), %rax	# sv, tmp110
	movq	(%rax), %rax	# sv_3(D)->sv_any, D.23833
	movq	64(%rax), %rax	# MEM[(struct XPVLV *)_8].xlv_targlen, D.23835
	testq	%rax, %rax	# D.23835
	je	.L184	#,
	.loc 1 487 0
	movq	-24(%rbp), %rax	# sv, tmp111
	movq	%rax, %rdi	# tmp111,
	call	Perl_vivify_defelem	#
.L184:
	.loc 1 488 0
	movq	-24(%rbp), %rax	# sv, tmp112
	movq	(%rax), %rax	# sv_3(D)->sv_any, D.23833
	movq	72(%rax), %rax	# MEM[(struct XPVLV *)_10].xlv_targ, tmp113
	movq	%rax, -24(%rbp)	# tmp113, sv
	cmpq	$0, -24(%rbp)	#, sv
	jne	.L185	#,
	.loc 1 489 0
	movq	$PL_sv_undef, -24(%rbp)	#, sv
	jmp	.L186	#
.L185:
	.loc 1 491 0
	movq	-24(%rbp), %rax	# sv, tmp114
	movq	%rax, PL_Sv(%rip)	# tmp114, PL_Sv
	movq	PL_Sv(%rip), %rax	# PL_Sv, PL_Sv.174
	testq	%rax, %rax	# PL_Sv.174
	je	.L187	#,
	.loc 1 491 0 is_stmt 0 discriminator 1
	movq	PL_Sv(%rip), %rax	# PL_Sv, PL_Sv.175
	movl	8(%rax), %edx	# PL_Sv.175_14->sv_refcnt, D.23832
	addl	$1, %edx	#, D.23832
	movl	%edx, 8(%rax)	# D.23832, PL_Sv.175_14->sv_refcnt
	movl	8(%rax), %eax	# PL_Sv.175_14->sv_refcnt, D.23832
	testl	%eax, %eax	# D.23832
	je	.L187	#,
	.loc 1 491 0 discriminator 3
	jmp	.L186	#
.L187:
	.loc 1 488 0 is_stmt 1 discriminator 2
	jmp	.L188	#
.L186:
	.loc 1 488 0 is_stmt 0
	jmp	.L188	#
.L183:
	.loc 1 493 0 is_stmt 1
	movq	-24(%rbp), %rax	# sv, tmp115
	movl	12(%rax), %eax	# sv_3(D)->sv_flags, D.23832
	movzbl	%al, %eax	# D.23832, D.23832
	cmpl	$10, %eax	#, D.23832
	jne	.L189	#,
	.loc 1 494 0
	movq	-24(%rbp), %rax	# sv, tmp116
	movq	(%rax), %rax	# MEM[(struct AV *)sv_3(D)].sv_any, D.23836
	movzbl	72(%rax), %eax	# _22->xav_flags, D.23837
	movzbl	%al, %eax	# D.23837, D.23838
	andl	$1, %eax	#, D.23838
	testl	%eax, %eax	# D.23838
	jne	.L190	#,
	.loc 1 494 0 is_stmt 0 discriminator 1
	movq	-24(%rbp), %rax	# sv, tmp117
	movq	(%rax), %rax	# MEM[(struct AV *)sv_3(D)].sv_any, D.23836
	movzbl	72(%rax), %eax	# _26->xav_flags, D.23837
	movzbl	%al, %eax	# D.23837, D.23838
	andl	$2, %eax	#, D.23838
	testl	%eax, %eax	# D.23838
	je	.L190	#,
	.loc 1 495 0 is_stmt 1
	movq	-24(%rbp), %rax	# sv, tmp118
	movq	%rax, %rdi	# tmp118,
	call	Perl_av_reify	#
.L190:
	.loc 1 496 0
	movq	-24(%rbp), %rax	# sv, tmp119
	movl	12(%rax), %eax	# sv_3(D)->sv_flags, D.23832
	andb	$247, %ah	#, D.23832
	movl	%eax, %edx	# D.23832, D.23832
	movq	-24(%rbp), %rax	# sv, tmp120
	movl	%edx, 12(%rax)	# D.23832, sv_3(D)->sv_flags
	.loc 1 497 0
	movq	-24(%rbp), %rax	# sv, tmp121
	movq	%rax, PL_Sv(%rip)	# tmp121, PL_Sv
	movq	PL_Sv(%rip), %rax	# PL_Sv, PL_Sv.177
	testq	%rax, %rax	# PL_Sv.177
	je	.L188	#,
	.loc 1 497 0 is_stmt 0 discriminator 1
	movq	PL_Sv(%rip), %rax	# PL_Sv, PL_Sv.178
	movl	8(%rax), %edx	# PL_Sv.178_33->sv_refcnt, D.23832
	addl	$1, %edx	#, D.23832
	movl	%edx, 8(%rax)	# D.23832, PL_Sv.178_33->sv_refcnt
	movl	8(%rax), %eax	# PL_Sv.178_33->sv_refcnt, D.23832
	testl	%eax, %eax	# D.23832
	je	.L188	#,
	.loc 1 497 0 discriminator 3
	jmp	.L188	#
.L189:
	.loc 1 499 0 is_stmt 1
	movq	-24(%rbp), %rax	# sv, tmp122
	movl	12(%rax), %eax	# sv_3(D)->sv_flags, D.23832
	andl	$512, %eax	#, D.23832
	testl	%eax, %eax	# D.23832
	je	.L193	#,
	.loc 1 500 0
	movq	-24(%rbp), %rax	# sv, tmp123
	movq	%rax, %rdi	# tmp123,
	call	Perl_newSVsv	#
	movq	%rax, -24(%rbp)	# tmp124, sv
	jmp	.L188	#
.L193:
	.loc 1 502 0
	movq	-24(%rbp), %rax	# sv, tmp125
	movl	12(%rax), %eax	# sv_3(D)->sv_flags, D.23832
	andb	$247, %ah	#, D.23832
	movl	%eax, %edx	# D.23832, D.23832
	movq	-24(%rbp), %rax	# sv, tmp126
	movl	%edx, 12(%rax)	# D.23832, sv_3(D)->sv_flags
	.loc 1 503 0
	movq	-24(%rbp), %rax	# sv, tmp127
	movq	%rax, PL_Sv(%rip)	# tmp127, PL_Sv
	movq	PL_Sv(%rip), %rax	# PL_Sv, PL_Sv.180
	testq	%rax, %rax	# PL_Sv.180
	je	.L188	#,
	.loc 1 503 0 is_stmt 0 discriminator 1
	movq	PL_Sv(%rip), %rax	# PL_Sv, PL_Sv.181
	movl	8(%rax), %edx	# PL_Sv.181_45->sv_refcnt, D.23832
	addl	$1, %edx	#, D.23832
	movl	%edx, 8(%rax)	# D.23832, PL_Sv.181_45->sv_refcnt
	movl	8(%rax), %eax	# PL_Sv.181_45->sv_refcnt, D.23832
	testl	%eax, %eax	# D.23832
	je	.L188	#,
	.loc 1 503 0
	nop
.L188:
	.loc 1 505 0 is_stmt 1
	call	Perl_sv_newmortal	#
	movq	%rax, -8(%rbp)	# tmp128, rv
	.loc 1 506 0
	movq	-8(%rbp), %rax	# rv, tmp129
	movl	$3, %esi	#,
	movq	%rax, %rdi	# tmp129,
	call	Perl_sv_upgrade	#
	.loc 1 507 0
	movq	-8(%rbp), %rax	# rv, tmp130
	movq	(%rax), %rax	# rv_51->sv_any, D.23833
	movq	-24(%rbp), %rdx	# sv, tmp131
	movq	%rdx, (%rax)	# tmp131, MEM[(struct XRV *)_52].xrv_rv
	.loc 1 508 0
	movq	-8(%rbp), %rax	# rv, tmp132
	movl	12(%rax), %eax	# rv_51->sv_flags, D.23832
	orl	$524288, %eax	#, D.23832
	movl	%eax, %edx	# D.23832, D.23832
	movq	-8(%rbp), %rax	# rv, tmp133
	movl	%edx, 12(%rax)	# D.23832, rv_51->sv_flags
	.loc 1 509 0
	movq	-8(%rbp), %rax	# rv, D.23839
	.loc 1 510 0
	leave
	.cfi_def_cfa 7, 8
	ret
	.cfi_endproc
.LFE16:
	.size	S_refto, .-S_refto
	.globl	Perl_pp_ref
	.type	Perl_pp_ref, @function
Perl_pp_ref:
.LFB17:
	.loc 1 513 0
	.cfi_startproc
	pushq	%rbp	#
	.cfi_def_cfa_offset 16
	.cfi_offset 6, -16
	movq	%rsp, %rbp	#,
	.cfi_def_cfa_register 6
	pushq	%rbx	#
	subq	$40, %rsp	#,
	.cfi_offset 3, -24
	.loc 1 514 0
	movq	PL_stack_sp(%rip), %rbx	# PL_stack_sp, sp
	movq	PL_curpad(%rip), %rdx	# PL_curpad, PL_curpad.182
	movq	PL_op(%rip), %rax	# PL_op, PL_op.183
	movq	24(%rax), %rax	# PL_op.183_4->op_targ, D.23841
	salq	$3, %rax	#, D.23841
	addq	%rdx, %rax	# PL_curpad.182, D.23842
	movq	(%rax), %rax	# *_7, tmp79
	movq	%rax, -40(%rbp)	# tmp79, targ
	.loc 1 518 0
	movq	%rbx, %rax	# sp, sp.184
	leaq	-8(%rax), %rbx	#, sp
	movq	(%rax), %rax	# *sp.184_9, tmp80
	movq	%rax, -32(%rbp)	# tmp80, sv
	.loc 1 520 0
	cmpq	$0, -32(%rbp)	#, sv
	je	.L197	#,
	.loc 1 520 0 is_stmt 0 discriminator 1
	movq	-32(%rbp), %rax	# sv, tmp81
	movl	12(%rax), %eax	# sv_11->sv_flags, D.23843
	andl	$8192, %eax	#, D.23843
	testl	%eax, %eax	# D.23843
	je	.L197	#,
	.loc 1 521 0 is_stmt 1
	movq	-32(%rbp), %rax	# sv, tmp82
	movq	%rax, %rdi	# tmp82,
	call	Perl_mg_get	#
.L197:
	.loc 1 523 0
	cmpq	$0, -32(%rbp)	#, sv
	je	.L198	#,
	.loc 1 523 0 is_stmt 0 discriminator 1
	movq	-32(%rbp), %rax	# sv, tmp83
	movl	12(%rax), %eax	# sv_11->sv_flags, D.23843
	andl	$524288, %eax	#, D.23843
	testl	%eax, %eax	# D.23843
	jne	.L199	#,
.L198:
	.loc 1 524 0 is_stmt 1
	addq	$8, %rbx	#, sp
	movq	$PL_sv_no, (%rbx)	#, *sp_26
	movq	%rbx, PL_stack_sp(%rip)	# sp, PL_stack_sp
	movq	PL_op(%rip), %rax	# PL_op, PL_op.185
	movq	(%rax), %rax	# PL_op.185_27->op_next, D.23840
	jmp	.L200	#
.L199:
	.loc 1 526 0
	movq	-32(%rbp), %rax	# sv, tmp84
	movq	(%rax), %rax	# sv_11->sv_any, D.23844
	movq	(%rax), %rax	# MEM[(struct XRV *)_16].xrv_rv, tmp85
	movq	%rax, -32(%rbp)	# tmp85, sv
	.loc 1 527 0
	movq	-32(%rbp), %rax	# sv, tmp86
	movl	$1, %esi	#,
	movq	%rax, %rdi	# tmp86,
	call	Perl_sv_reftype	#
	movq	%rax, -24(%rbp)	# tmp87, pv
.LBB25:
	.loc 1 528 0
	movq	-24(%rbp), %rax	# pv, tmp88
	movq	%rax, %rdi	# tmp88,
	call	strlen	#
	movq	%rax, %rdx	#, D.23841
	movq	-24(%rbp), %rcx	# pv, tmp89
	movq	-40(%rbp), %rax	# targ, tmp90
	movq	%rcx, %rsi	# tmp89,
	movq	%rax, %rdi	# tmp90,
	call	Perl_sv_setpvn	#
.LBB26:
	movq	-40(%rbp), %rax	# targ, tmp91
	movl	12(%rax), %eax	# targ_8->sv_flags, D.23843
	andl	$16384, %eax	#, D.23843
	testl	%eax, %eax	# D.23843
	je	.L201	#,
	.loc 1 528 0 is_stmt 0 discriminator 1
	movq	-40(%rbp), %rax	# targ, tmp92
	movq	%rax, %rdi	# tmp92,
	call	Perl_mg_set	#
.L201:
	.loc 1 528 0 discriminator 2
	addq	$8, %rbx	#, sp
	movq	-40(%rbp), %rax	# targ, tmp93
	movq	%rax, (%rbx)	# tmp93, *sp_22
.LBE26:
.LBE25:
	.loc 1 529 0 is_stmt 1 discriminator 2
	movq	%rbx, PL_stack_sp(%rip)	# sp, PL_stack_sp
	movq	PL_op(%rip), %rax	# PL_op, PL_op.186
	movq	(%rax), %rax	# PL_op.186_24->op_next, D.23840
.L200:
	.loc 1 530 0
	addq	$40, %rsp	#,
	popq	%rbx	#
	popq	%rbp	#
	.cfi_def_cfa 7, 8
	ret
	.cfi_endproc
.LFE17:
	.size	Perl_pp_ref, .-Perl_pp_ref
	.section	.rodata
	.align 8
.LC13:
	.string	"Attempt to bless into a reference"
	.align 8
.LC14:
	.string	"Explicit blessing to '' (assuming package main)"
	.text
	.globl	Perl_pp_bless
	.type	Perl_pp_bless, @function
Perl_pp_bless:
.LFB18:
	.loc 1 533 0
	.cfi_startproc
	pushq	%rbp	#
	.cfi_def_cfa_offset 16
	.cfi_offset 6, -16
	movq	%rsp, %rbp	#,
	.cfi_def_cfa_register 6
	pushq	%rbx	#
	subq	$40, %rsp	#,
	.cfi_offset 3, -24
	.loc 1 534 0
	movq	PL_stack_sp(%rip), %rbx	# PL_stack_sp, sp
	.loc 1 537 0
	movq	PL_op(%rip), %rax	# PL_op, PL_op.187
	movzbl	37(%rax), %eax	# PL_op.187_5->op_private, D.23846
	movzbl	%al, %eax	# D.23846, D.23847
	andl	$15, %eax	#, D.23847
	cmpl	$1, %eax	#, D.23847
	jne	.L203	#,
	.loc 1 538 0
	movq	PL_curcop(%rip), %rax	# PL_curcop, PL_curcop.188
	movq	48(%rax), %rax	# PL_curcop.188_9->cop_stash, tmp104
	movq	%rax, -40(%rbp)	# tmp104, stash
	jmp	.L204	#
.L203:
.LBB27:
	.loc 1 540 0
	movq	%rbx, %rax	# sp, sp.189
	leaq	-8(%rax), %rbx	#, sp
	movq	(%rax), %rax	# *sp.189_11, tmp105
	movq	%rax, -32(%rbp)	# tmp105, ssv
	.loc 1 544 0
	cmpq	$0, -32(%rbp)	#, ssv
	je	.L205	#,
	.loc 1 544 0 is_stmt 0 discriminator 1
	movq	-32(%rbp), %rax	# ssv, tmp106
	movl	12(%rax), %eax	# ssv_13->sv_flags, D.23848
	andl	$8192, %eax	#, D.23848
	testl	%eax, %eax	# D.23848
	jne	.L205	#,
	movq	-32(%rbp), %rax	# ssv, tmp107
	movl	12(%rax), %eax	# ssv_13->sv_flags, D.23848
	andl	$268435456, %eax	#, D.23848
	testl	%eax, %eax	# D.23848
	jne	.L205	#,
	movq	-32(%rbp), %rax	# ssv, tmp108
	movl	12(%rax), %eax	# ssv_13->sv_flags, D.23848
	andl	$524288, %eax	#, D.23848
	testl	%eax, %eax	# D.23848
	je	.L205	#,
	.loc 1 545 0 is_stmt 1
	movl	$.LC13, %edi	#,
	movl	$0, %eax	#,
	call	Perl_croak	#
.L205:
	.loc 1 546 0
	movq	-32(%rbp), %rax	# ssv, tmp109
	movl	12(%rax), %eax	# ssv_13->sv_flags, D.23848
	andl	$262144, %eax	#, D.23848
	testl	%eax, %eax	# D.23848
	je	.L206	#,
	.loc 1 546 0 is_stmt 0 discriminator 1
	movq	-32(%rbp), %rax	# ssv, tmp110
	movq	(%rax), %rax	# ssv_13->sv_any, D.23849
	movq	8(%rax), %rax	# MEM[(struct XPV *)_22].xpv_cur, len.191
	movq	%rax, -48(%rbp)	# len.191, len
	movq	-32(%rbp), %rax	# ssv, tmp111
	movq	(%rax), %rax	# ssv_13->sv_any, D.23849
	movq	(%rax), %rax	# MEM[(struct XPV *)_24].xpv_pv, iftmp.190
	jmp	.L207	#
.L206:
	.loc 1 546 0 discriminator 2
	leaq	-48(%rbp), %rcx	#, tmp112
	movq	-32(%rbp), %rax	# ssv, tmp113
	movl	$2, %edx	#,
	movq	%rcx, %rsi	# tmp112,
	movq	%rax, %rdi	# tmp113,
	call	Perl_sv_2pv_flags	#
.L207:
	.loc 1 546 0 discriminator 3
	movq	%rax, -24(%rbp)	# iftmp.190, ptr
	.loc 1 547 0 is_stmt 1 discriminator 3
	movq	PL_curcop(%rip), %rax	# PL_curcop, PL_curcop.192
	movq	80(%rax), %rax	# PL_curcop.192_28->cop_warnings, D.23850
	testq	%rax, %rax	# D.23850
	je	.L208	#,
	.loc 1 547 0 is_stmt 0 discriminator 1
	movq	PL_curcop(%rip), %rax	# PL_curcop, PL_curcop.193
	movq	80(%rax), %rax	# PL_curcop.193_30->cop_warnings, D.23850
	cmpq	$32, %rax	#, D.23850
	je	.L208	#,
	movq	PL_curcop(%rip), %rax	# PL_curcop, PL_curcop.194
	movq	80(%rax), %rax	# PL_curcop.194_32->cop_warnings, D.23850
	cmpq	$16, %rax	#, D.23850
	je	.L209	#,
	.loc 1 547 0 discriminator 2
	movq	PL_curcop(%rip), %rax	# PL_curcop, PL_curcop.195
	movq	80(%rax), %rax	# PL_curcop.195_34->cop_warnings, D.23850
	movq	(%rax), %rax	# _35->sv_any, D.23849
	movq	(%rax), %rax	# MEM[(struct XPV *)_36].xpv_pv, D.23851
	addq	$3, %rax	#, D.23851
	movzbl	(%rax), %eax	# *_38, D.23852
	movsbl	%al, %eax	# D.23852, D.23847
	andl	$1, %eax	#, D.23847
	testl	%eax, %eax	# D.23847
	jne	.L209	#,
.L208:
	movq	PL_curcop(%rip), %rax	# PL_curcop, PL_curcop.196
	movq	80(%rax), %rax	# PL_curcop.196_42->cop_warnings, D.23850
	testq	%rax, %rax	# D.23850
	jne	.L210	#,
	.loc 1 547 0 discriminator 1
	movzbl	PL_dowarn(%rip), %eax	# PL_dowarn, PL_dowarn.197
	movzbl	%al, %eax	# PL_dowarn.197, D.23847
	andl	$1, %eax	#, D.23847
	testl	%eax, %eax	# D.23847
	je	.L210	#,
.L209:
	movq	-48(%rbp), %rax	# len, len.198
	testq	%rax, %rax	# len.198
	jne	.L210	#,
	.loc 1 548 0 is_stmt 1
	movl	$.LC14, %esi	#,
	movl	$12, %edi	#,
	movl	$0, %eax	#,
	call	Perl_warner	#
.L210:
	.loc 1 550 0
	movq	-48(%rbp), %rax	# len, len.199
	movl	%eax, %ecx	# len.199, D.23848
	movq	-24(%rbp), %rax	# ptr, tmp114
	movl	$1, %edx	#,
	movl	%ecx, %esi	# D.23848,
	movq	%rax, %rdi	# tmp114,
	call	Perl_gv_stashpvn	#
	movq	%rax, -40(%rbp)	# tmp115, stash
.L204:
.LBE27:
	.loc 1 553 0
	movq	(%rbx), %rax	# *sp_1, D.23850
	movq	-40(%rbp), %rdx	# stash, tmp116
	movq	%rdx, %rsi	# tmp116,
	movq	%rax, %rdi	# D.23850,
	call	Perl_sv_bless	#
	.loc 1 554 0
	movq	%rbx, PL_stack_sp(%rip)	# sp, PL_stack_sp
	movq	PL_op(%rip), %rax	# PL_op, PL_op.200
	movq	(%rax), %rax	# PL_op.200_52->op_next, D.23853
	.loc 1 555 0
	addq	$40, %rsp	#,
	popq	%rbx	#
	popq	%rbp	#
	.cfi_def_cfa 7, 8
	ret
	.cfi_endproc
.LFE18:
	.size	Perl_pp_bless, .-Perl_pp_bless
	.section	.rodata
.LC15:
	.string	"RRAY"
.LC16:
	.string	"ODE"
.LC17:
	.string	"ILEHANDLE"
.LC18:
	.string	"*glob{FILEHANDLE}"
.LC19:
	.string	"ORMAT"
.LC20:
	.string	"LOB"
.LC21:
	.string	"ASH"
.LC22:
	.string	"AME"
.LC23:
	.string	"ACKAGE"
.LC24:
	.string	"__ANON__"
.LC25:
	.string	"CALAR"
	.text
	.globl	Perl_pp_gelem
	.type	Perl_pp_gelem, @function
Perl_pp_gelem:
.LFB19:
	.loc 1 558 0
	.cfi_startproc
	pushq	%rbp	#
	.cfi_def_cfa_offset 16
	.cfi_offset 6, -16
	movq	%rsp, %rbp	#,
	.cfi_def_cfa_register 6
	pushq	%rbx	#
	subq	$72, %rsp	#,
	.cfi_offset 3, -24
	.loc 1 563 0
	movq	PL_stack_sp(%rip), %rbx	# PL_stack_sp, sp
	.loc 1 566 0
	movq	%rbx, %rax	# sp, sp.201
	leaq	-8(%rax), %rbx	#, sp
	movq	(%rax), %rax	# *sp.201_19, tmp116
	movq	%rax, -64(%rbp)	# tmp116, sv
	.loc 1 567 0
	movq	-64(%rbp), %rax	# sv, tmp117
	movl	12(%rax), %eax	# sv_21->sv_flags, D.23856
	andl	$262144, %eax	#, D.23856
	testl	%eax, %eax	# D.23856
	je	.L213	#,
	.loc 1 567 0 is_stmt 0 discriminator 1
	movq	-64(%rbp), %rax	# sv, tmp118
	movq	(%rax), %rax	# sv_21->sv_any, D.23857
	movq	8(%rax), %rax	# MEM[(struct XPV *)_24].xpv_cur, n_a.203
	movq	%rax, -72(%rbp)	# n_a.203, n_a
	movq	-64(%rbp), %rax	# sv, tmp119
	movq	(%rax), %rax	# sv_21->sv_any, D.23857
	movq	(%rax), %rax	# MEM[(struct XPV *)_26].xpv_pv, iftmp.202
	jmp	.L214	#
.L213:
	.loc 1 567 0 discriminator 2
	leaq	-72(%rbp), %rcx	#, tmp120
	movq	-64(%rbp), %rax	# sv, tmp121
	movl	$2, %edx	#,
	movq	%rcx, %rsi	# tmp120,
	movq	%rax, %rdi	# tmp121,
	call	Perl_sv_2pv_flags	#
.L214:
	.loc 1 567 0 discriminator 3
	movq	%rax, -48(%rbp)	# iftmp.202, elem
	.loc 1 568 0 is_stmt 1 discriminator 3
	movq	%rbx, %rax	# sp, sp.204
	leaq	-8(%rax), %rbx	#, sp
	movq	(%rax), %rax	# *sp.204_30, tmp122
	movq	%rax, -40(%rbp)	# tmp122, gv
	.loc 1 569 0 discriminator 3
	movq	$0, -56(%rbp)	#, tmpRef
	.loc 1 570 0 discriminator 3
	movq	$0, -64(%rbp)	#, sv
	.loc 1 571 0 discriminator 3
	cmpq	$0, -48(%rbp)	#, elem
	je	.L215	#,
.LBB28:
	.loc 1 573 0
	movq	-48(%rbp), %rax	# elem, tmp126
	addq	$1, %rax	#, tmp125
	movq	%rax, -32(%rbp)	# tmp125, elem2
	.loc 1 574 0
	movq	-48(%rbp), %rax	# elem, tmp127
	movzbl	(%rax), %eax	# *elem_29, D.23858
	movsbl	%al, %eax	# D.23858, D.23859
	subl	$65, %eax	#, tmp128
	cmpl	$18, %eax	#, tmp128
	ja	.L215	#,
	movl	%eax, %eax	# tmp128, tmp129
	movq	.L217(,%rax,8), %rax	#, tmp130
	jmp	*%rax	# tmp130
	.section	.rodata
	.align 8
	.align 4
.L217:
	.quad	.L216
	.quad	.L215
	.quad	.L218
	.quad	.L215
	.quad	.L215
	.quad	.L219
	.quad	.L220
	.quad	.L221
	.quad	.L222
	.quad	.L215
	.quad	.L215
	.quad	.L215
	.quad	.L215
	.quad	.L223
	.quad	.L215
	.quad	.L224
	.quad	.L215
	.quad	.L215
	.quad	.L225
	.text
.L216:
	.loc 1 576 0
	movq	-32(%rbp), %rax	# elem2, tmp131
	movl	$.LC15, %esi	#,
	movq	%rax, %rdi	# tmp131,
	call	strcmp	#
	testl	%eax, %eax	# D.23859
	jne	.L226	#,
	.loc 1 577 0
	movq	-40(%rbp), %rax	# gv, tmp132
	movq	(%rax), %rax	# gv_32->sv_any, D.23860
	movq	56(%rax), %rax	# _39->xgv_gp, D.23861
	movq	32(%rax), %rax	# _40->gp_av, tmp133
	movq	%rax, -56(%rbp)	# tmp133, tmpRef
	.loc 1 578 0
	jmp	.L215	#
.L226:
	jmp	.L215	#
.L218:
	.loc 1 580 0
	movq	-32(%rbp), %rax	# elem2, tmp134
	movl	$.LC16, %esi	#,
	movq	%rax, %rdi	# tmp134,
	call	strcmp	#
	testl	%eax, %eax	# D.23859
	jne	.L227	#,
	.loc 1 581 0
	movq	-40(%rbp), %rax	# gv, tmp135
	movq	(%rax), %rax	# gv_32->sv_any, D.23860
	movq	56(%rax), %rax	# _43->xgv_gp, D.23861
	movl	64(%rax), %eax	# _44->gp_cvgen, D.23856
	testl	%eax, %eax	# D.23856
	jne	.L228	#,
	.loc 1 581 0 is_stmt 0 discriminator 1
	movq	-40(%rbp), %rax	# gv, tmp136
	movq	(%rax), %rax	# gv_32->sv_any, D.23860
	movq	56(%rax), %rax	# _46->xgv_gp, D.23861
	movq	56(%rax), %rax	# _47->gp_cv, iftmp.205
	jmp	.L229	#
.L228:
	.loc 1 581 0 discriminator 2
	movl	$0, %eax	#, iftmp.205
.L229:
	.loc 1 581 0 discriminator 3
	movq	%rax, -56(%rbp)	# iftmp.205, tmpRef
	.loc 1 582 0 is_stmt 1 discriminator 3
	jmp	.L215	#
.L227:
	.loc 1 582 0 is_stmt 0
	jmp	.L215	#
.L219:
	.loc 1 584 0 is_stmt 1
	movq	-32(%rbp), %rax	# elem2, tmp137
	movl	$.LC17, %esi	#,
	movq	%rax, %rdi	# tmp137,
	call	strcmp	#
	testl	%eax, %eax	# D.23859
	jne	.L230	#,
	.loc 1 586 0
	movl	$.LC18, %edi	#,
	call	Perl_deprecate	#
	.loc 1 587 0
	movq	-40(%rbp), %rax	# gv, tmp138
	movq	(%rax), %rax	# gv_32->sv_any, D.23860
	movq	56(%rax), %rax	# _52->xgv_gp, D.23861
	movq	16(%rax), %rax	# _53->gp_io, tmp139
	movq	%rax, -56(%rbp)	# tmp139, tmpRef
	jmp	.L231	#
.L230:
	.loc 1 590 0
	movq	-32(%rbp), %rax	# elem2, tmp140
	movl	$.LC19, %esi	#,
	movq	%rax, %rdi	# tmp140,
	call	strcmp	#
	testl	%eax, %eax	# D.23859
	jne	.L231	#,
	.loc 1 591 0
	movq	-40(%rbp), %rax	# gv, tmp141
	movq	(%rax), %rax	# gv_32->sv_any, D.23860
	movq	56(%rax), %rax	# _56->xgv_gp, D.23861
	movq	24(%rax), %rax	# _57->gp_form, tmp142
	movq	%rax, -56(%rbp)	# tmp142, tmpRef
	.loc 1 592 0
	jmp	.L215	#
.L231:
	jmp	.L215	#
.L220:
	.loc 1 594 0
	movq	-32(%rbp), %rax	# elem2, tmp143
	movl	$.LC20, %esi	#,
	movq	%rax, %rdi	# tmp143,
	call	strcmp	#
	testl	%eax, %eax	# D.23859
	jne	.L232	#,
	.loc 1 595 0
	movq	-40(%rbp), %rax	# gv, tmp144
	movq	%rax, -56(%rbp)	# tmp144, tmpRef
	.loc 1 596 0
	jmp	.L215	#
.L232:
	jmp	.L215	#
.L221:
	.loc 1 598 0
	movq	-32(%rbp), %rax	# elem2, tmp145
	movl	$.LC21, %esi	#,
	movq	%rax, %rdi	# tmp145,
	call	strcmp	#
	testl	%eax, %eax	# D.23859
	jne	.L233	#,
	.loc 1 599 0
	movq	-40(%rbp), %rax	# gv, tmp146
	movq	(%rax), %rax	# gv_32->sv_any, D.23860
	movq	56(%rax), %rax	# _62->xgv_gp, D.23861
	movq	40(%rax), %rax	# _63->gp_hv, tmp147
	movq	%rax, -56(%rbp)	# tmp147, tmpRef
	.loc 1 600 0
	jmp	.L215	#
.L233:
	jmp	.L215	#
.L222:
	.loc 1 602 0
	movq	-32(%rbp), %rax	# elem2, tmp148
	movzbl	(%rax), %eax	# *elem2_35, D.23858
	cmpb	$79, %al	#, D.23858
	jne	.L234	#,
	.loc 1 602 0 is_stmt 0 discriminator 1
	movq	-48(%rbp), %rax	# elem, tmp149
	addq	$2, %rax	#, D.23862
	movzbl	(%rax), %eax	# *_66, D.23858
	testb	%al, %al	# D.23858
	jne	.L234	#,
	.loc 1 603 0 is_stmt 1
	movq	-40(%rbp), %rax	# gv, tmp150
	movq	(%rax), %rax	# gv_32->sv_any, D.23860
	movq	56(%rax), %rax	# _68->xgv_gp, D.23861
	movq	16(%rax), %rax	# _69->gp_io, tmp151
	movq	%rax, -56(%rbp)	# tmp151, tmpRef
	.loc 1 604 0
	jmp	.L215	#
.L234:
	jmp	.L215	#
.L223:
	.loc 1 606 0
	movq	-32(%rbp), %rax	# elem2, tmp152
	movl	$.LC22, %esi	#,
	movq	%rax, %rdi	# tmp152,
	call	strcmp	#
	testl	%eax, %eax	# D.23859
	jne	.L235	#,
	.loc 1 607 0
	movq	-40(%rbp), %rax	# gv, tmp153
	movq	(%rax), %rax	# gv_32->sv_any, D.23860
	movq	72(%rax), %rdx	# _72->xgv_namelen, D.23863
	movq	-40(%rbp), %rax	# gv, tmp154
	movq	(%rax), %rax	# gv_32->sv_any, D.23860
	movq	64(%rax), %rax	# _74->xgv_name, D.23862
	movq	%rdx, %rsi	# D.23863,
	movq	%rax, %rdi	# D.23862,
	call	Perl_newSVpvn	#
	movq	%rax, -64(%rbp)	# tmp155, sv
	.loc 1 608 0
	jmp	.L215	#
.L235:
	jmp	.L215	#
.L224:
	.loc 1 610 0
	movq	-32(%rbp), %rax	# elem2, tmp156
	movl	$.LC23, %esi	#,
	movq	%rax, %rdi	# tmp156,
	call	strcmp	#
	testl	%eax, %eax	# D.23859
	jne	.L236	#,
.LBB29:
	.loc 1 611 0
	movq	-40(%rbp), %rax	# gv, tmp157
	movq	(%rax), %rax	# gv_32->sv_any, D.23860
	movq	80(%rax), %rax	# _78->xgv_stash, D.23864
	movq	(%rax), %rax	# _79->sv_any, D.23865
	movq	80(%rax), %rax	# _80->xhv_name, tmp158
	movq	%rax, -24(%rbp)	# tmp158, name
	.loc 1 612 0
	cmpq	$0, -24(%rbp)	#, name
	je	.L237	#,
	.loc 1 612 0 is_stmt 0 discriminator 1
	movq	-24(%rbp), %rax	# name, iftmp.206
	jmp	.L238	#
.L237:
	.loc 1 612 0 discriminator 2
	movl	$.LC24, %eax	#, iftmp.206
.L238:
	.loc 1 612 0 discriminator 3
	movl	$0, %esi	#,
	movq	%rax, %rdi	# iftmp.206,
	call	Perl_newSVpv	#
	movq	%rax, -64(%rbp)	# tmp159, sv
.LBE29:
	.loc 1 614 0 is_stmt 1 discriminator 3
	jmp	.L215	#
.L236:
	.loc 1 614 0 is_stmt 0
	jmp	.L215	#
.L225:
	.loc 1 616 0 is_stmt 1
	movq	-32(%rbp), %rax	# elem2, tmp160
	movl	$.LC25, %esi	#,
	movq	%rax, %rdi	# tmp160,
	call	strcmp	#
	testl	%eax, %eax	# D.23859
	jne	.L239	#,
	.loc 1 617 0
	movq	-40(%rbp), %rax	# gv, tmp161
	movq	(%rax), %rax	# gv_32->sv_any, D.23860
	movq	56(%rax), %rax	# _86->xgv_gp, D.23861
	movq	(%rax), %rax	# _87->gp_sv, tmp162
	movq	%rax, -56(%rbp)	# tmp162, tmpRef
	.loc 1 618 0
	jmp	.L245	#
.L239:
.L245:
	nop
.L215:
.LBE28:
	.loc 1 621 0
	cmpq	$0, -56(%rbp)	#, tmpRef
	je	.L240	#,
	.loc 1 622 0
	movq	-56(%rbp), %rax	# tmpRef, tmp163
	movq	%rax, %rdi	# tmp163,
	call	Perl_newRV	#
	movq	%rax, -64(%rbp)	# tmp164, sv
.L240:
	.loc 1 623 0
	cmpq	$0, -64(%rbp)	#, sv
	je	.L241	#,
	.loc 1 624 0
	movq	-64(%rbp), %rax	# sv, tmp165
	movq	%rax, %rdi	# tmp165,
	call	Perl_sv_2mortal	#
	jmp	.L242	#
.L241:
	.loc 1 626 0
	movq	$PL_sv_undef, -64(%rbp)	#, sv
.L242:
.LBB30:
	.loc 1 627 0
	movq	PL_stack_max(%rip), %rax	# PL_stack_max, PL_stack_max.207
	movq	%rax, %rdx	# PL_stack_max.207, PL_stack_max.208
	movq	%rbx, %rax	# sp, sp.209
	subq	%rax, %rdx	# sp.209, D.23866
	movq	%rdx, %rax	# D.23866, D.23866
	cmpq	$7, %rax	#, D.23866
	jg	.L243	#,
	.loc 1 627 0 is_stmt 0 discriminator 1
	movl	$1, %edx	#,
	movq	%rbx, %rsi	# sp,
	movq	%rbx, %rdi	# sp,
	call	Perl_stack_grow	#
	movq	%rax, %rbx	#, sp
.L243:
	.loc 1 627 0 discriminator 2
	addq	$8, %rbx	#, sp
	movq	-64(%rbp), %rax	# sv, tmp166
	movq	%rax, (%rbx)	# tmp166, *sp_96
.LBE30:
	.loc 1 628 0 is_stmt 1 discriminator 2
	movq	%rbx, PL_stack_sp(%rip)	# sp, PL_stack_sp
	movq	PL_op(%rip), %rax	# PL_op, PL_op.210
	movq	(%rax), %rax	# PL_op.210_98->op_next, D.23868
	.loc 1 629 0 discriminator 2
	addq	$72, %rsp	#,
	popq	%rbx	#
	popq	%rbp	#
	.cfi_def_cfa 7, 8
	ret
	.cfi_endproc
.LFE19:
	.size	Perl_pp_gelem, .-Perl_pp_gelem
	.section	.rodata
.LC26:
	.string	"do_study: out of memory"
	.text
	.globl	Perl_pp_study
	.type	Perl_pp_study, @function
Perl_pp_study:
.LFB20:
	.loc 1 634 0
	.cfi_startproc
	pushq	%rbp	#
	.cfi_def_cfa_offset 16
	.cfi_offset 6, -16
	movq	%rsp, %rbp	#,
	.cfi_def_cfa_register 6
	pushq	%r15	#
	pushq	%r14	#
	pushq	%r13	#
	pushq	%r12	#
	pushq	%rbx	#
	subq	$40, %rsp	#,
	.cfi_offset 15, -24
	.cfi_offset 14, -32
	.cfi_offset 13, -40
	.cfi_offset 12, -48
	.cfi_offset 3, -56
	.loc 1 635 0
	movq	PL_stack_sp(%rip), %rbx	# PL_stack_sp, sp
	movq	%rbx, %rax	# sp, sp.211
	leaq	-8(%rax), %rbx	#, sp
	movq	(%rax), %rax	# *sp.211_7, tmp135
	movq	%rax, -56(%rbp)	# tmp135, sv
	.loc 1 643 0
	movq	PL_lastscream(%rip), %rax	# PL_lastscream, PL_lastscream.212
	cmpq	%rax, -56(%rbp)	# PL_lastscream.212, sv
	jne	.L247	#,
	.loc 1 644 0
	movq	-56(%rbp), %rax	# sv, tmp136
	movl	12(%rax), %eax	# sv_9->sv_flags, D.23881
	andl	$134217728, %eax	#, D.23881
	testl	%eax, %eax	# D.23881
	je	.L248	#,
	.loc 1 645 0
	addq	$8, %rbx	#, sp
	movq	$PL_sv_yes, (%rbx)	#, *sp_13
	movq	%rbx, PL_stack_sp(%rip)	# sp, PL_stack_sp
	movq	PL_op(%rip), %rax	# PL_op, PL_op.213
	movq	(%rax), %rax	# PL_op.213_14->op_next, D.23880
	jmp	.L266	#
.L247:
	.loc 1 648 0
	movq	PL_lastscream(%rip), %rax	# PL_lastscream, PL_lastscream.214
	testq	%rax, %rax	# PL_lastscream.214
	je	.L250	#,
	.loc 1 649 0
	movq	PL_lastscream(%rip), %rax	# PL_lastscream, PL_lastscream.215
	movq	PL_lastscream(%rip), %rdx	# PL_lastscream, PL_lastscream.216
	movl	12(%rdx), %edx	# PL_lastscream.216_18->sv_flags, D.23881
	andl	$-134217729, %edx	#, D.23881
	movl	%edx, 12(%rax)	# D.23881, PL_lastscream.215_17->sv_flags
	.loc 1 650 0
	movq	PL_lastscream(%rip), %rax	# PL_lastscream, PL_lastscream.217
	movq	%rax, %rdi	# PL_lastscream.217,
	call	Perl_sv_free	#
.L250:
	.loc 1 652 0
	movq	-56(%rbp), %rax	# sv, tmp137
	movq	%rax, PL_Sv(%rip)	# tmp137, PL_Sv
	movq	PL_Sv(%rip), %rax	# PL_Sv, PL_Sv.219
	testq	%rax, %rax	# PL_Sv.219
	je	.L252	#,
	.loc 1 652 0 is_stmt 0 discriminator 1
	movq	PL_Sv(%rip), %rax	# PL_Sv, PL_Sv.220
	movl	8(%rax), %edx	# PL_Sv.220_23->sv_refcnt, D.23881
	addl	$1, %edx	#, D.23881
	movl	%edx, 8(%rax)	# D.23881, PL_Sv.220_23->sv_refcnt
	movl	8(%rax), %eax	# PL_Sv.220_23->sv_refcnt, D.23881
	testl	%eax, %eax	# D.23881
	je	.L252	#,
	.loc 1 652 0
	nop
.L252:
	.loc 1 652 0 discriminator 4
	movq	PL_Sv(%rip), %rax	# PL_Sv, PL_Sv.221
	movq	%rax, PL_lastscream(%rip)	# PL_Sv.221, PL_lastscream
.L248:
	.loc 1 655 0 is_stmt 1
	movq	-56(%rbp), %rax	# sv, tmp138
	movl	12(%rax), %eax	# sv_9->sv_flags, D.23881
	andl	$262144, %eax	#, D.23881
	testl	%eax, %eax	# D.23881
	je	.L253	#,
	.loc 1 655 0 is_stmt 0 discriminator 1
	movq	-56(%rbp), %rax	# sv, tmp139
	movq	(%rax), %rax	# sv_9->sv_any, D.23882
	movq	8(%rax), %rax	# MEM[(struct XPV *)_32].xpv_cur, len.223
	movq	%rax, -64(%rbp)	# len.223, len
	movq	-56(%rbp), %rax	# sv, tmp140
	movq	(%rax), %rax	# sv_9->sv_any, D.23882
	movq	(%rax), %rax	# MEM[(struct XPV *)_34].xpv_pv, iftmp.222
	jmp	.L254	#
.L253:
	.loc 1 655 0 discriminator 2
	leaq	-64(%rbp), %rcx	#, tmp141
	movq	-56(%rbp), %rax	# sv, tmp142
	movl	$2, %edx	#,
	movq	%rcx, %rsi	# tmp141,
	movq	%rax, %rdi	# tmp142,
	call	Perl_sv_2pv_flags	#
.L254:
	.loc 1 655 0 discriminator 3
	movq	%rax, -72(%rbp)	# iftmp.222, %sfp
	.loc 1 656 0 is_stmt 1 discriminator 3
	movq	-64(%rbp), %rax	# len, len.224
	movl	%eax, %r12d	# len.224, pos
	.loc 1 657 0 discriminator 3
	testl	%r12d, %r12d	# pos
	jg	.L255	#,
	.loc 1 658 0
	addq	$8, %rbx	#, sp
	movq	$PL_sv_no, (%rbx)	#, *sp_40
	movq	%rbx, PL_stack_sp(%rip)	# sp, PL_stack_sp
	movq	PL_op(%rip), %rax	# PL_op, PL_op.225
	movq	(%rax), %rax	# PL_op.225_41->op_next, D.23880
	jmp	.L266	#
.L255:
	.loc 1 659 0
	movl	PL_maxscream(%rip), %eax	# PL_maxscream, PL_maxscream.226
	cmpl	%eax, %r12d	# PL_maxscream.226, pos
	jle	.L256	#,
	.loc 1 660 0
	movl	PL_maxscream(%rip), %eax	# PL_maxscream, PL_maxscream.227
	testl	%eax, %eax	# PL_maxscream.227
	jns	.L257	#,
	.loc 1 661 0
	leal	80(%r12), %eax	#, PL_maxscream.228
	movl	%eax, PL_maxscream(%rip)	# PL_maxscream.228, PL_maxscream
	.loc 1 662 0
	movl	$1024, %edi	#,
	call	Perl_safesysmalloc	#
	movq	%rax, PL_screamfirst(%rip)	# PL_screamfirst.229, PL_screamfirst
	.loc 1 663 0
	movl	PL_maxscream(%rip), %eax	# PL_maxscream, PL_maxscream.230
	cltq
	salq	$2, %rax	#, D.23883
	movq	%rax, %rdi	# D.23883,
	call	Perl_safesysmalloc	#
	movq	%rax, PL_screamnext(%rip)	# PL_screamnext.231, PL_screamnext
	jmp	.L256	#
.L257:
	.loc 1 666 0
	movl	%r12d, %eax	# pos, tmp143
	leal	3(%rax), %edx	#, tmp144
	testl	%eax, %eax	# tmp143
	cmovs	%edx, %eax	# tmp144,, tmp143
	sarl	$2, %eax	#, tmp145
	addl	%r12d, %eax	# pos, PL_maxscream.232
	movl	%eax, PL_maxscream(%rip)	# PL_maxscream.232, PL_maxscream
	.loc 1 667 0
	movl	PL_maxscream(%rip), %eax	# PL_maxscream, PL_maxscream.233
	cltq
	leaq	0(,%rax,4), %rdx	#, D.23883
	movq	PL_screamnext(%rip), %rax	# PL_screamnext, PL_screamnext.234
	movq	%rdx, %rsi	# D.23883,
	movq	%rax, %rdi	# PL_screamnext.234,
	call	Perl_safesysrealloc	#
	movq	%rax, PL_screamnext(%rip)	# PL_screamnext.235, PL_screamnext
.L256:
	.loc 1 671 0
	movq	PL_screamfirst(%rip), %r13	# PL_screamfirst, sfirst
	.loc 1 672 0
	movq	PL_screamnext(%rip), %r15	# PL_screamnext, snext
	.loc 1 674 0
	testq	%r13, %r13	# sfirst
	je	.L258	#,
	.loc 1 674 0 is_stmt 0 discriminator 1
	testq	%r15, %r15	# snext
	jne	.L259	#,
.L258:
	.loc 1 675 0 is_stmt 1
	movl	$.LC26, %edi	#,
	movl	$0, %eax	#,
	call	Perl_die	#
	jmp	.L266	#
.L259:
	.loc 1 677 0
	movl	$256, %r14d	#, ch
	jmp	.L260	#
.L261:
	.loc 1 678 0 discriminator 2
	movq	%r13, %rax	# sfirst, sfirst.236
	leaq	4(%rax), %r13	#, sfirst
	movl	$-1, (%rax)	#, *sfirst.236_61
	.loc 1 677 0 discriminator 2
	subl	$1, %r14d	#, ch
.L260:
	.loc 1 677 0 is_stmt 0 discriminator 1
	testl	%r14d, %r14d	# ch
	jne	.L261	#,
	.loc 1 679 0 is_stmt 1
	subq	$1024, %r13	#, sfirst
	.loc 1 681 0
	jmp	.L262	#
.L265:
	.loc 1 682 0
	movslq	%r12d, %rax	# pos, D.23885
	addq	-72(%rbp), %rax	# %sfp, D.23886
	movzbl	(%rax), %eax	# *_67, D.23887
	movzbl	%al, %r14d	# D.23887, ch
	.loc 1 683 0
	movslq	%r14d, %rax	# ch, D.23883
	salq	$2, %rax	#, D.23883
	addq	%r13, %rax	# sfirst, D.23888
	movl	(%rax), %eax	# *_72, D.23884
	testl	%eax, %eax	# D.23884
	js	.L263	#,
	.loc 1 684 0
	movslq	%r12d, %rax	# pos, D.23883
	salq	$2, %rax	#, D.23883
	addq	%r15, %rax	# snext, D.23888
	movslq	%r14d, %rdx	# ch, D.23883
	salq	$2, %rdx	#, D.23883
	addq	%r13, %rdx	# sfirst, D.23888
	movl	(%rdx), %edx	# *_79, D.23884
	subl	%r12d, %edx	# pos, D.23884
	movl	%edx, (%rax)	# D.23884, *_76
	jmp	.L264	#
.L263:
	.loc 1 686 0
	movslq	%r12d, %rax	# pos, D.23883
	salq	$2, %rax	#, D.23883
	addq	%r15, %rax	# snext, D.23888
	movl	%r12d, %edx	# pos, D.23884
	negl	%edx	# D.23884
	movl	%edx, (%rax)	# D.23884, *_84
.L264:
	.loc 1 687 0
	movslq	%r14d, %rax	# ch, D.23883
	salq	$2, %rax	#, D.23883
	addq	%r13, %rax	# sfirst, D.23888
	movl	%r12d, (%rax)	# pos, *_88
.L262:
	.loc 1 681 0 discriminator 1
	subl	$1, %r12d	#, pos
	testl	%r12d, %r12d	# pos
	jns	.L265	#,
	.loc 1 690 0
	movq	-56(%rbp), %rax	# sv, tmp146
	movl	12(%rax), %eax	# sv_9->sv_flags, D.23881
	orl	$134217728, %eax	#, D.23881
	movl	%eax, %edx	# D.23881, D.23881
	movq	-56(%rbp), %rax	# sv, tmp147
	movl	%edx, 12(%rax)	# D.23881, sv_9->sv_flags
	.loc 1 692 0
	movq	-56(%rbp), %rax	# sv, tmp148
	movl	$0, %r8d	#,
	movl	$0, %ecx	#,
	movl	$103, %edx	#,
	movl	$0, %esi	#,
	movq	%rax, %rdi	# tmp148,
	call	Perl_sv_magic	#
	.loc 1 693 0
	addq	$8, %rbx	#, sp
	movq	$PL_sv_yes, (%rbx)	#, *sp_91
	movq	%rbx, PL_stack_sp(%rip)	# sp, PL_stack_sp
	movq	PL_op(%rip), %rax	# PL_op, PL_op.237
	movq	(%rax), %rax	# PL_op.237_92->op_next, D.23880
.L266:
	.loc 1 694 0
	addq	$40, %rsp	#,
	popq	%rbx	#
	popq	%r12	#
	popq	%r13	#
	popq	%r14	#
	popq	%r15	#
	popq	%rbp	#
	.cfi_def_cfa 7, 8
	ret
	.cfi_endproc
.LFE20:
	.size	Perl_pp_study, .-Perl_pp_study
	.globl	Perl_pp_trans
	.type	Perl_pp_trans, @function
Perl_pp_trans:
.LFB21:
	.loc 1 697 0
	.cfi_startproc
	pushq	%rbp	#
	.cfi_def_cfa_offset 16
	.cfi_offset 6, -16
	movq	%rsp, %rbp	#,
	.cfi_def_cfa_register 6
	pushq	%rbx	#
	subq	$24, %rsp	#,
	.cfi_offset 3, -24
	.loc 1 698 0
	movq	PL_stack_sp(%rip), %rbx	# PL_stack_sp, sp
	.loc 1 701 0
	movq	PL_op(%rip), %rax	# PL_op, PL_op.238
	movzbl	36(%rax), %eax	# PL_op.238_4->op_flags, D.23891
	movzbl	%al, %eax	# D.23891, D.23892
	andl	$64, %eax	#, D.23892
	testl	%eax, %eax	# D.23892
	je	.L268	#,
	.loc 1 702 0
	movq	%rbx, %rax	# sp, sp.239
	leaq	-8(%rax), %rbx	#, sp
	movq	(%rax), %rax	# *sp.239_8, tmp80
	movq	%rax, -32(%rbp)	# tmp80, sv
	jmp	.L269	#
.L268:
	.loc 1 704 0
	movq	PL_defgv(%rip), %rax	# PL_defgv, PL_defgv.240
	movq	(%rax), %rax	# PL_defgv.240_11->sv_any, D.23893
	movq	56(%rax), %rax	# _12->xgv_gp, D.23894
	movq	(%rax), %rax	# _13->gp_sv, tmp81
	movq	%rax, -32(%rbp)	# tmp81, sv
	.loc 1 705 0
	movq	PL_stack_max(%rip), %rax	# PL_stack_max, PL_stack_max.241
	movq	%rax, %rdx	# PL_stack_max.241, PL_stack_max.242
	movq	%rbx, %rax	# sp, sp.243
	subq	%rax, %rdx	# sp.243, D.23895
	movq	%rdx, %rax	# D.23895, D.23895
	cmpq	$7, %rax	#, D.23895
	jg	.L269	#,
	.loc 1 705 0 is_stmt 0 discriminator 1
	movl	$1, %edx	#,
	movq	%rbx, %rsi	# sp,
	movq	%rbx, %rdi	# sp,
	call	Perl_stack_grow	#
	movq	%rax, %rbx	#, sp
.L269:
	.loc 1 707 0 is_stmt 1
	call	Perl_sv_newmortal	#
	movq	%rax, -24(%rbp)	# tmp82, targ
.LBB31:
	.loc 1 708 0
	movq	-32(%rbp), %rax	# sv, tmp83
	movq	%rax, %rdi	# tmp83,
	call	Perl_do_trans	#
	movslq	%eax, %rdx	# D.23892, D.23895
	movq	-24(%rbp), %rax	# targ, tmp84
	movq	%rdx, %rsi	# D.23895,
	movq	%rax, %rdi	# tmp84,
	call	Perl_sv_setiv	#
.LBB32:
	movq	-24(%rbp), %rax	# targ, tmp85
	movl	12(%rax), %eax	# targ_20->sv_flags, D.23896
	andl	$16384, %eax	#, D.23896
	testl	%eax, %eax	# D.23896
	je	.L270	#,
	.loc 1 708 0 is_stmt 0 discriminator 1
	movq	-24(%rbp), %rax	# targ, tmp86
	movq	%rax, %rdi	# tmp86,
	call	Perl_mg_set	#
.L270:
	.loc 1 708 0 discriminator 2
	addq	$8, %rbx	#, sp
	movq	-24(%rbp), %rax	# targ, tmp87
	movq	%rax, (%rbx)	# tmp87, *sp_25
.LBE32:
.LBE31:
	.loc 1 709 0 is_stmt 1 discriminator 2
	movq	%rbx, PL_stack_sp(%rip)	# sp, PL_stack_sp
	movq	PL_op(%rip), %rax	# PL_op, PL_op.244
	movq	(%rax), %rax	# PL_op.244_27->op_next, D.23898
	.loc 1 710 0 discriminator 2
	addq	$24, %rsp	#,
	popq	%rbx	#
	popq	%rbp	#
	.cfi_def_cfa 7, 8
	ret
	.cfi_endproc
.LFE21:
	.size	Perl_pp_trans, .-Perl_pp_trans
	.globl	Perl_pp_schop
	.type	Perl_pp_schop, @function
Perl_pp_schop:
.LFB22:
	.loc 1 715 0
	.cfi_startproc
	pushq	%rbp	#
	.cfi_def_cfa_offset 16
	.cfi_offset 6, -16
	movq	%rsp, %rbp	#,
	.cfi_def_cfa_register 6
	pushq	%rbx	#
	subq	$24, %rsp	#,
	.cfi_offset 3, -24
	.loc 1 716 0
	movq	PL_stack_sp(%rip), %rbx	# PL_stack_sp, sp
	movq	PL_curpad(%rip), %rdx	# PL_curpad, PL_curpad.245
	movq	PL_op(%rip), %rax	# PL_op, PL_op.246
	movq	24(%rax), %rax	# PL_op.246_3->op_targ, D.23899
	salq	$3, %rax	#, D.23899
	addq	%rdx, %rax	# PL_curpad.245, D.23900
	movq	(%rax), %rax	# *_6, tmp72
	movq	%rax, -24(%rbp)	# tmp72, targ
	.loc 1 717 0
	movq	(%rbx), %rdx	# *sp_1, D.23901
	movq	-24(%rbp), %rax	# targ, tmp73
	movq	%rdx, %rsi	# D.23901,
	movq	%rax, %rdi	# tmp73,
	call	Perl_do_chop	#
.LBB33:
	.loc 1 718 0
	movq	-24(%rbp), %rax	# targ, tmp74
	movl	12(%rax), %eax	# targ_7->sv_flags, D.23902
	andl	$16384, %eax	#, D.23902
	testl	%eax, %eax	# D.23902
	je	.L273	#,
	.loc 1 718 0 is_stmt 0 discriminator 1
	movq	-24(%rbp), %rax	# targ, tmp75
	movq	%rax, %rdi	# tmp75,
	call	Perl_mg_set	#
.L273:
	.loc 1 718 0 discriminator 2
	movq	-24(%rbp), %rax	# targ, tmp76
	movq	%rax, (%rbx)	# tmp76, *sp_1
.LBE33:
	.loc 1 719 0 is_stmt 1 discriminator 2
	movq	%rbx, PL_stack_sp(%rip)	# sp, PL_stack_sp
	movq	PL_op(%rip), %rax	# PL_op, PL_op.247
	movq	(%rax), %rax	# PL_op.247_12->op_next, D.23903
	.loc 1 720 0 discriminator 2
	addq	$24, %rsp	#,
	popq	%rbx	#
	popq	%rbp	#
	.cfi_def_cfa 7, 8
	ret
	.cfi_endproc
.LFE22:
	.size	Perl_pp_schop, .-Perl_pp_schop
	.globl	Perl_pp_chop
	.type	Perl_pp_chop, @function
Perl_pp_chop:
.LFB23:
	.loc 1 723 0
	.cfi_startproc
	pushq	%rbp	#
	.cfi_def_cfa_offset 16
	.cfi_offset 6, -16
	movq	%rsp, %rbp	#,
	.cfi_def_cfa_register 6
	pushq	%r12	#
	pushq	%rbx	#
	subq	$16, %rsp	#,
	.cfi_offset 12, -24
	.cfi_offset 3, -32
	.loc 1 724 0
	movq	PL_stack_sp(%rip), %rbx	# PL_stack_sp, sp
	movq	PL_stack_base(%rip), %rcx	# PL_stack_base, PL_stack_base.248
	movq	PL_markstack_ptr(%rip), %rax	# PL_markstack_ptr, PL_markstack_ptr.249
	leaq	-4(%rax), %rdx	#, PL_markstack_ptr.251
	movq	%rdx, PL_markstack_ptr(%rip)	# PL_markstack_ptr.251, PL_markstack_ptr
	movl	(%rax), %eax	# *PL_markstack_ptr.250_5, D.23904
	cltq
	salq	$3, %rax	#, D.23905
	leaq	(%rcx,%rax), %r12	#, mark
	movq	PL_curpad(%rip), %rdx	# PL_curpad, PL_curpad.252
	movq	PL_op(%rip), %rax	# PL_op, PL_op.253
	movq	24(%rax), %rax	# PL_op.253_12->op_targ, D.23905
	salq	$3, %rax	#, D.23905
	addq	%rdx, %rax	# PL_curpad.252, D.23906
	movq	(%rax), %rax	# *_15, tmp88
	movq	%rax, -24(%rbp)	# tmp88, targ
	movq	%r12, %rdx	# mark, mark.254
	movq	PL_stack_base(%rip), %rax	# PL_stack_base, PL_stack_base.255
	subq	%rax, %rdx	# PL_stack_base.256, D.23907
	movq	%rdx, %rax	# D.23907, D.23907
	sarq	$3, %rax	#, tmp89
	movl	%eax, -28(%rbp)	# D.23907, origmark
	.loc 1 725 0
	jmp	.L276	#
.L277:
	.loc 1 726 0
	addq	$8, %r12	#, mark
	movq	(%r12), %rdx	# *mark_23, D.23908
	movq	-24(%rbp), %rax	# targ, tmp90
	movq	%rdx, %rsi	# D.23908,
	movq	%rax, %rdi	# tmp90,
	call	Perl_do_chop	#
.L276:
	.loc 1 725 0 discriminator 1
	cmpq	%rbx, %r12	# sp, mark
	jb	.L277	#,
	.loc 1 727 0
	movq	PL_stack_base(%rip), %rax	# PL_stack_base, PL_stack_base.257
	movl	-28(%rbp), %edx	# origmark, tmp91
	movslq	%edx, %rdx	# tmp91, D.23905
	salq	$3, %rdx	#, D.23905
	leaq	(%rax,%rdx), %rbx	#, sp
.LBB34:
	.loc 1 728 0
	movq	-24(%rbp), %rax	# targ, tmp92
	movl	12(%rax), %eax	# targ_16->sv_flags, D.23909
	andl	$16384, %eax	#, D.23909
	testl	%eax, %eax	# D.23909
	je	.L278	#,
	.loc 1 728 0 is_stmt 0 discriminator 1
	movq	-24(%rbp), %rax	# targ, tmp93
	movq	%rax, %rdi	# tmp93,
	call	Perl_mg_set	#
.L278:
	.loc 1 728 0 discriminator 2
	addq	$8, %rbx	#, sp
	movq	-24(%rbp), %rax	# targ, tmp94
	movq	%rax, (%rbx)	# tmp94, *sp_31
.LBE34:
	.loc 1 729 0 is_stmt 1 discriminator 2
	movq	%rbx, PL_stack_sp(%rip)	# sp, PL_stack_sp
	movq	PL_op(%rip), %rax	# PL_op, PL_op.258
	movq	(%rax), %rax	# PL_op.258_33->op_next, D.23910
	.loc 1 730 0 discriminator 2
	addq	$16, %rsp	#,
	popq	%rbx	#
	popq	%r12	#
	popq	%rbp	#
	.cfi_def_cfa 7, 8
	ret
	.cfi_endproc
.LFE23:
	.size	Perl_pp_chop, .-Perl_pp_chop
	.globl	Perl_pp_schomp
	.type	Perl_pp_schomp, @function
Perl_pp_schomp:
.LFB24:
	.loc 1 733 0
	.cfi_startproc
	pushq	%rbp	#
	.cfi_def_cfa_offset 16
	.cfi_offset 6, -16
	movq	%rsp, %rbp	#,
	.cfi_def_cfa_register 6
	pushq	%rbx	#
	subq	$24, %rsp	#,
	.cfi_offset 3, -24
	.loc 1 734 0
	movq	PL_stack_sp(%rip), %rbx	# PL_stack_sp, sp
	movq	PL_curpad(%rip), %rdx	# PL_curpad, PL_curpad.259
	movq	PL_op(%rip), %rax	# PL_op, PL_op.260
	movq	24(%rax), %rax	# PL_op.260_3->op_targ, D.23911
	salq	$3, %rax	#, D.23911
	addq	%rdx, %rax	# PL_curpad.259, D.23912
	movq	(%rax), %rax	# *_6, tmp74
	movq	%rax, -24(%rbp)	# tmp74, targ
.LBB35:
	.loc 1 735 0
	movq	(%rbx), %rax	# *sp_1, D.23913
	movq	%rax, %rdi	# D.23913,
	call	Perl_do_chomp	#
	movslq	%eax, %rdx	# D.23914, D.23915
	movq	-24(%rbp), %rax	# targ, tmp75
	movq	%rdx, %rsi	# D.23915,
	movq	%rax, %rdi	# tmp75,
	call	Perl_sv_setiv	#
.LBB36:
	movq	-24(%rbp), %rax	# targ, tmp76
	movl	12(%rax), %eax	# targ_7->sv_flags, D.23916
	andl	$16384, %eax	#, D.23916
	testl	%eax, %eax	# D.23916
	je	.L281	#,
	.loc 1 735 0 is_stmt 0 discriminator 1
	movq	-24(%rbp), %rax	# targ, tmp77
	movq	%rax, %rdi	# tmp77,
	call	Perl_mg_set	#
.L281:
	.loc 1 735 0 discriminator 2
	movq	-24(%rbp), %rax	# targ, tmp78
	movq	%rax, (%rbx)	# tmp78, *sp_1
.LBE36:
.LBE35:
	.loc 1 736 0 is_stmt 1 discriminator 2
	movq	%rbx, PL_stack_sp(%rip)	# sp, PL_stack_sp
	movq	PL_op(%rip), %rax	# PL_op, PL_op.261
	movq	(%rax), %rax	# PL_op.261_14->op_next, D.23917
	.loc 1 737 0 discriminator 2
	addq	$24, %rsp	#,
	popq	%rbx	#
	popq	%rbp	#
	.cfi_def_cfa 7, 8
	ret
	.cfi_endproc
.LFE24:
	.size	Perl_pp_schomp, .-Perl_pp_schomp
	.globl	Perl_pp_chomp
	.type	Perl_pp_chomp, @function
Perl_pp_chomp:
.LFB25:
	.loc 1 740 0
	.cfi_startproc
	pushq	%rbp	#
	.cfi_def_cfa_offset 16
	.cfi_offset 6, -16
	movq	%rsp, %rbp	#,
	.cfi_def_cfa_register 6
	pushq	%r13	#
	pushq	%r12	#
	pushq	%rbx	#
	subq	$24, %rsp	#,
	.cfi_offset 13, -24
	.cfi_offset 12, -32
	.cfi_offset 3, -40
	.loc 1 741 0
	movq	PL_stack_sp(%rip), %rbx	# PL_stack_sp, sp
	movq	PL_stack_base(%rip), %rcx	# PL_stack_base, PL_stack_base.262
	movq	PL_markstack_ptr(%rip), %rax	# PL_markstack_ptr, PL_markstack_ptr.263
	leaq	-4(%rax), %rdx	#, PL_markstack_ptr.265
	movq	%rdx, PL_markstack_ptr(%rip)	# PL_markstack_ptr.265, PL_markstack_ptr
	movl	(%rax), %eax	# *PL_markstack_ptr.264_6, D.23918
	cltq
	salq	$3, %rax	#, D.23919
	leaq	(%rcx,%rax), %r13	#, mark
	movq	PL_curpad(%rip), %rdx	# PL_curpad, PL_curpad.266
	movq	PL_op(%rip), %rax	# PL_op, PL_op.267
	movq	24(%rax), %rax	# PL_op.267_13->op_targ, D.23919
	salq	$3, %rax	#, D.23919
	addq	%rdx, %rax	# PL_curpad.266, D.23920
	movq	(%rax), %rax	# *_16, tmp84
	movq	%rax, -40(%rbp)	# tmp84, targ
	.loc 1 742 0
	movl	$0, %r12d	#, count
	.loc 1 744 0
	jmp	.L284	#
.L285:
	.loc 1 745 0
	movq	%rbx, %rax	# sp, sp.268
	leaq	-8(%rax), %rbx	#, sp
	movq	(%rax), %rax	# *sp.268_19, D.23921
	movq	%rax, %rdi	# D.23921,
	call	Perl_do_chomp	#
	addl	%eax, %r12d	# D.23918, count
.L284:
	.loc 1 744 0 discriminator 1
	cmpq	%r13, %rbx	# mark, sp
	ja	.L285	#,
.LBB37:
	.loc 1 746 0
	movslq	%r12d, %rdx	# count, D.23922
	movq	-40(%rbp), %rax	# targ, tmp85
	movq	%rdx, %rsi	# D.23922,
	movq	%rax, %rdi	# tmp85,
	call	Perl_sv_setiv	#
.LBB38:
	movq	-40(%rbp), %rax	# targ, tmp86
	movl	12(%rax), %eax	# targ_17->sv_flags, D.23923
	andl	$16384, %eax	#, D.23923
	testl	%eax, %eax	# D.23923
	je	.L286	#,
	.loc 1 746 0 is_stmt 0 discriminator 1
	movq	-40(%rbp), %rax	# targ, tmp87
	movq	%rax, %rdi	# tmp87,
	call	Perl_mg_set	#
.L286:
	.loc 1 746 0 discriminator 2
	addq	$8, %rbx	#, sp
	movq	-40(%rbp), %rax	# targ, tmp88
	movq	%rax, (%rbx)	# tmp88, *sp_27
.LBE38:
.LBE37:
	.loc 1 747 0 is_stmt 1 discriminator 2
	movq	%rbx, PL_stack_sp(%rip)	# sp, PL_stack_sp
	movq	PL_op(%rip), %rax	# PL_op, PL_op.269
	movq	(%rax), %rax	# PL_op.269_29->op_next, D.23924
	.loc 1 748 0 discriminator 2
	addq	$24, %rsp	#,
	popq	%rbx	#
	popq	%r12	#
	popq	%r13	#
	popq	%rbp	#
	.cfi_def_cfa 7, 8
	ret
	.cfi_endproc
.LFE25:
	.size	Perl_pp_chomp, .-Perl_pp_chomp
	.globl	Perl_pp_defined
	.type	Perl_pp_defined, @function
Perl_pp_defined:
.LFB26:
	.loc 1 751 0
	.cfi_startproc
	pushq	%rbp	#
	.cfi_def_cfa_offset 16
	.cfi_offset 6, -16
	movq	%rsp, %rbp	#,
	.cfi_def_cfa_register 6
	pushq	%r12	#
	pushq	%rbx	#
	.cfi_offset 12, -24
	.cfi_offset 3, -32
	.loc 1 752 0
	movq	PL_stack_sp(%rip), %rbx	# PL_stack_sp, sp
	.loc 1 755 0
	movq	%rbx, %rax	# sp, sp.270
	leaq	-8(%rax), %rbx	#, sp
	movq	(%rax), %r12	# *sp.270_3, sv
	.loc 1 756 0
	testq	%r12, %r12	# sv
	je	.L289	#,
	.loc 1 756 0 is_stmt 0 discriminator 1
	movq	(%r12), %rax	# sv_5->sv_any, D.23926
	testq	%rax, %rax	# D.23926
	jne	.L290	#,
.L289:
	.loc 1 757 0 is_stmt 1
	addq	$8, %rbx	#, sp
	movq	$PL_sv_no, (%rbx)	#, *sp_47
	movq	%rbx, PL_stack_sp(%rip)	# sp, PL_stack_sp
	movq	PL_op(%rip), %rax	# PL_op, PL_op.271
	movq	(%rax), %rax	# PL_op.271_48->op_next, D.23925
	jmp	.L291	#
.L290:
	.loc 1 758 0
	movl	12(%r12), %eax	# sv_5->sv_flags, D.23927
	movzbl	%al, %eax	# D.23927, D.23927
	cmpl	$11, %eax	#, D.23927
	je	.L293	#,
	cmpl	$12, %eax	#, D.23927
	je	.L294	#,
	cmpl	$10, %eax	#, D.23927
	jne	.L304	#,
	.loc 1 760 0
	movq	(%r12), %rax	# sv_5->sv_any, D.23926
	movq	16(%rax), %rax	# MEM[(struct XPVAV *)_9].xav_max, D.23928
	testq	%rax, %rax	# D.23928
	jns	.L296	#,
	.loc 1 760 0 is_stmt 0 discriminator 1
	movl	12(%r12), %eax	# sv_5->sv_flags, D.23927
	andl	$8192, %eax	#, D.23927
	testl	%eax, %eax	# D.23927
	jne	.L296	#,
	.loc 1 761 0 is_stmt 1
	movl	12(%r12), %eax	# sv_5->sv_flags, D.23927
	andl	$32768, %eax	#, D.23927
	testl	%eax, %eax	# D.23927
	je	.L297	#,
	.loc 1 761 0 is_stmt 0 discriminator 1
	movl	$80, %esi	#,
	movq	%r12, %rdi	# sv,
	call	Perl_mg_find	#
	testq	%rax, %rax	# D.23929
	je	.L297	#,
.L296:
	.loc 1 762 0 is_stmt 1
	addq	$8, %rbx	#, sp
	movq	$PL_sv_yes, (%rbx)	#, *sp_16
	movq	%rbx, PL_stack_sp(%rip)	# sp, PL_stack_sp
	movq	PL_op(%rip), %rax	# PL_op, PL_op.272
	movq	(%rax), %rax	# PL_op.272_17->op_next, D.23925
	jmp	.L291	#
.L297:
	.loc 1 763 0
	jmp	.L298	#
.L293:
	.loc 1 765 0
	movq	(%r12), %rax	# sv_5->sv_any, D.23926
	movq	(%rax), %rax	# MEM[(struct HE * * *)_20], D.23931
	testq	%rax, %rax	# D.23931
	jne	.L299	#,
	.loc 1 765 0 is_stmt 0 discriminator 1
	movl	12(%r12), %eax	# sv_5->sv_flags, D.23927
	andl	$8192, %eax	#, D.23927
	testl	%eax, %eax	# D.23927
	jne	.L299	#,
	.loc 1 766 0 is_stmt 1
	movl	12(%r12), %eax	# sv_5->sv_flags, D.23927
	andl	$32768, %eax	#, D.23927
	testl	%eax, %eax	# D.23927
	je	.L300	#,
	.loc 1 766 0 is_stmt 0 discriminator 1
	movl	$80, %esi	#,
	movq	%r12, %rdi	# sv,
	call	Perl_mg_find	#
	testq	%rax, %rax	# D.23929
	je	.L300	#,
.L299:
	.loc 1 767 0 is_stmt 1
	addq	$8, %rbx	#, sp
	movq	$PL_sv_yes, (%rbx)	#, *sp_27
	movq	%rbx, PL_stack_sp(%rip)	# sp, PL_stack_sp
	movq	PL_op(%rip), %rax	# PL_op, PL_op.273
	movq	(%rax), %rax	# PL_op.273_28->op_next, D.23925
	jmp	.L291	#
.L300:
	.loc 1 768 0
	jmp	.L298	#
.L294:
	.loc 1 770 0
	movq	(%r12), %rax	# sv_5->sv_any, D.23926
	movq	72(%rax), %rax	# MEM[(struct XPVCV *)_30].xcv_root, D.23925
	testq	%rax, %rax	# D.23925
	jne	.L301	#,
	.loc 1 770 0 is_stmt 0 discriminator 1
	movq	(%r12), %rax	# sv_5->sv_any, D.23926
	movq	80(%rax), %rax	# MEM[(struct XPVCV *)_32].xcv_xsub, D.23932
	testq	%rax, %rax	# D.23932
	je	.L302	#,
.L301:
	.loc 1 771 0 is_stmt 1
	addq	$8, %rbx	#, sp
	movq	$PL_sv_yes, (%rbx)	#, *sp_34
	movq	%rbx, PL_stack_sp(%rip)	# sp, PL_stack_sp
	movq	PL_op(%rip), %rax	# PL_op, PL_op.274
	movq	(%rax), %rax	# PL_op.274_35->op_next, D.23925
	jmp	.L291	#
.L302:
	.loc 1 772 0
	jmp	.L298	#
.L304:
	.loc 1 774 0
	movl	12(%r12), %eax	# sv_5->sv_flags, D.23927
	andl	$8192, %eax	#, D.23927
	testl	%eax, %eax	# D.23927
	je	.L303	#,
	.loc 1 775 0
	movq	%r12, %rdi	# sv,
	call	Perl_mg_get	#
.L303:
	.loc 1 776 0
	movl	12(%r12), %eax	# sv_5->sv_flags, D.23927
	andl	$118423552, %eax	#, D.23927
	testl	%eax, %eax	# D.23927
	je	.L298	#,
	.loc 1 777 0
	addq	$8, %rbx	#, sp
	movq	$PL_sv_yes, (%rbx)	#, *sp_41
	movq	%rbx, PL_stack_sp(%rip)	# sp, PL_stack_sp
	movq	PL_op(%rip), %rax	# PL_op, PL_op.275
	movq	(%rax), %rax	# PL_op.275_42->op_next, D.23925
	jmp	.L291	#
.L298:
	.loc 1 779 0
	addq	$8, %rbx	#, sp
	movq	$PL_sv_no, (%rbx)	#, *sp_44
	movq	%rbx, PL_stack_sp(%rip)	# sp, PL_stack_sp
	movq	PL_op(%rip), %rax	# PL_op, PL_op.276
	movq	(%rax), %rax	# PL_op.276_45->op_next, D.23925
.L291:
	.loc 1 780 0
	popq	%rbx	#
	popq	%r12	#
	popq	%rbp	#
	.cfi_def_cfa 7, 8
	ret
	.cfi_endproc
.LFE26:
	.size	Perl_pp_defined, .-Perl_pp_defined
	.section	.rodata
.LC27:
	.string	"(anonymous)"
	.align 8
.LC28:
	.string	"Constant subroutine %s undefined"
	.text
	.globl	Perl_pp_undef
	.type	Perl_pp_undef, @function
Perl_pp_undef:
.LFB27:
	.loc 1 783 0
	.cfi_startproc
	pushq	%rbp	#
	.cfi_def_cfa_offset 16
	.cfi_offset 6, -16
	movq	%rsp, %rbp	#,
	.cfi_def_cfa_register 6
	pushq	%r12	#
	pushq	%rbx	#
	subq	$32, %rsp	#,
	.cfi_offset 12, -24
	.cfi_offset 3, -32
	.loc 1 784 0
	movq	PL_stack_sp(%rip), %rbx	# PL_stack_sp, sp
	.loc 1 787 0
	movq	PL_op(%rip), %rax	# PL_op, PL_op.277
	movzbl	37(%rax), %eax	# PL_op.277_6->op_private, D.23934
	testb	%al, %al	# D.23934
	jne	.L306	#,
	.loc 1 788 0
	movq	PL_stack_max(%rip), %rax	# PL_stack_max, PL_stack_max.278
	movq	%rax, %rdx	# PL_stack_max.278, PL_stack_max.279
	movq	%rbx, %rax	# sp, sp.280
	subq	%rax, %rdx	# sp.280, D.23935
	movq	%rdx, %rax	# D.23935, D.23935
	cmpq	$7, %rax	#, D.23935
	jg	.L307	#,
	.loc 1 788 0 is_stmt 0 discriminator 1
	movl	$1, %edx	#,
	movq	%rbx, %rsi	# sp,
	movq	%rbx, %rdi	# sp,
	call	Perl_stack_grow	#
	movq	%rax, %rbx	#, sp
.L307:
	.loc 1 789 0 is_stmt 1
	addq	$8, %rbx	#, sp
	movq	$PL_sv_undef, (%rbx)	#, *sp_13
	movq	%rbx, PL_stack_sp(%rip)	# sp, PL_stack_sp
	movq	PL_op(%rip), %rax	# PL_op, PL_op.281
	movq	(%rax), %rax	# PL_op.281_14->op_next, D.23933
	jmp	.L308	#
.L306:
	.loc 1 792 0
	movq	%rbx, %rax	# sp, sp.282
	leaq	-8(%rax), %rbx	#, sp
	movq	(%rax), %rax	# *sp.282_16, tmp158
	movq	%rax, -40(%rbp)	# tmp158, sv
	.loc 1 793 0
	cmpq	$0, -40(%rbp)	#, sv
	jne	.L309	#,
	.loc 1 794 0
	addq	$8, %rbx	#, sp
	movq	$PL_sv_undef, (%rbx)	#, *sp_19
	movq	%rbx, PL_stack_sp(%rip)	# sp, PL_stack_sp
	movq	PL_op(%rip), %rax	# PL_op, PL_op.283
	movq	(%rax), %rax	# PL_op.283_20->op_next, D.23933
	jmp	.L308	#
.L309:
	.loc 1 796 0
	movq	-40(%rbp), %rax	# sv, tmp159
	movl	12(%rax), %eax	# sv_18->sv_flags, D.23936
	andl	$9961472, %eax	#, D.23936
	testl	%eax, %eax	# D.23936
	je	.L310	#,
	.loc 1 797 0
	movq	-40(%rbp), %rax	# sv, tmp160
	movq	%rax, %rdi	# tmp160,
	call	Perl_sv_force_normal	#
.L310:
	.loc 1 799 0
	movq	-40(%rbp), %rax	# sv, tmp161
	movl	12(%rax), %eax	# sv_18->sv_flags, D.23936
	movzbl	%al, %eax	# D.23936, D.23936
	cmpl	$14, %eax	#, D.23936
	ja	.L311	#,
	movl	%eax, %eax	# D.23936, tmp162
	movq	.L313(,%rax,8), %rax	#, tmp163
	jmp	*%rax	# tmp163
	.section	.rodata
	.align 8
	.align 4
.L313:
	.quad	.L334
	.quad	.L311
	.quad	.L311
	.quad	.L311
	.quad	.L311
	.quad	.L311
	.quad	.L311
	.quad	.L311
	.quad	.L311
	.quad	.L311
	.quad	.L314
	.quad	.L315
	.quad	.L316
	.quad	.L317
	.quad	.L318
	.text
.L314:
	.loc 1 803 0
	movq	-40(%rbp), %rax	# sv, tmp164
	movq	%rax, %rdi	# tmp164,
	call	Perl_av_undef	#
	.loc 1 804 0
	jmp	.L319	#
.L315:
	.loc 1 806 0
	movq	-40(%rbp), %rax	# sv, tmp165
	movq	%rax, %rdi	# tmp165,
	call	Perl_hv_undef	#
	.loc 1 807 0
	jmp	.L319	#
.L316:
	.loc 1 809 0
	movq	PL_curcop(%rip), %rax	# PL_curcop, PL_curcop.284
	movq	80(%rax), %rax	# PL_curcop.284_26->cop_warnings, D.23937
	testq	%rax, %rax	# D.23937
	je	.L320	#,
	.loc 1 809 0 is_stmt 0 discriminator 1
	movq	PL_curcop(%rip), %rax	# PL_curcop, PL_curcop.285
	movq	80(%rax), %rax	# PL_curcop.285_28->cop_warnings, D.23937
	cmpq	$32, %rax	#, D.23937
	je	.L320	#,
	movq	PL_curcop(%rip), %rax	# PL_curcop, PL_curcop.286
	movq	80(%rax), %rax	# PL_curcop.286_30->cop_warnings, D.23937
	cmpq	$16, %rax	#, D.23937
	je	.L321	#,
	.loc 1 809 0 discriminator 2
	movq	PL_curcop(%rip), %rax	# PL_curcop, PL_curcop.287
	movq	80(%rax), %rax	# PL_curcop.287_32->cop_warnings, D.23937
	movq	(%rax), %rax	# _33->sv_any, D.23938
	movq	(%rax), %rax	# MEM[(struct XPV *)_34].xpv_pv, D.23939
	addq	$3, %rax	#, D.23939
	movzbl	(%rax), %eax	# *_36, D.23940
	movsbl	%al, %eax	# D.23940, D.23941
	andl	$1, %eax	#, D.23941
	testl	%eax, %eax	# D.23941
	jne	.L321	#,
.L320:
	movq	PL_curcop(%rip), %rax	# PL_curcop, PL_curcop.288
	movq	80(%rax), %rax	# PL_curcop.288_40->cop_warnings, D.23937
	testq	%rax, %rax	# D.23937
	jne	.L318	#,
	.loc 1 809 0 discriminator 1
	movzbl	PL_dowarn(%rip), %eax	# PL_dowarn, PL_dowarn.289
	movzbl	%al, %eax	# PL_dowarn.289, D.23941
	andl	$1, %eax	#, D.23941
	testl	%eax, %eax	# D.23941
	je	.L318	#,
.L321:
	movq	-40(%rbp), %rax	# sv, tmp166
	movq	%rax, %rdi	# tmp166,
	call	Perl_cv_const_sv	#
	testq	%rax, %rax	# D.23937
	je	.L318	#,
	.loc 1 811 0 is_stmt 1
	movq	-40(%rbp), %rax	# sv, tmp167
	movq	(%rax), %rax	# MEM[(struct CV *)sv_18].sv_any, D.23942
	movzwl	136(%rax), %eax	# _46->xcv_flags, D.23943
	movzwl	%ax, %eax	# D.23943, D.23941
	andl	$4, %eax	#, D.23941
	.loc 1 810 0
	testl	%eax, %eax	# D.23941
	jne	.L322	#,
	.loc 1 811 0
	movq	-40(%rbp), %rax	# sv, tmp168
	movq	(%rax), %rax	# MEM[(struct CV *)sv_18].sv_any, D.23942
	movq	96(%rax), %rax	# _50->xcv_gv, D.23944
	movq	(%rax), %rax	# _51->sv_any, D.23945
	movq	56(%rax), %rax	# _52->xgv_gp, D.23946
	movq	48(%rax), %rax	# _53->gp_egv, D.23944
	testq	%rax, %rax	# D.23944
	je	.L323	#,
	.loc 1 811 0 is_stmt 0 discriminator 1
	movq	-40(%rbp), %rax	# sv, tmp169
	movq	(%rax), %rax	# MEM[(struct CV *)sv_18].sv_any, D.23942
	movq	96(%rax), %rax	# _55->xcv_gv, D.23944
	movq	(%rax), %rax	# _56->sv_any, D.23945
	movq	56(%rax), %rax	# _57->xgv_gp, D.23946
	movq	48(%rax), %rax	# _58->gp_egv, iftmp.291
	jmp	.L324	#
.L323:
	.loc 1 811 0 discriminator 2
	movq	-40(%rbp), %rax	# sv, tmp170
	movq	(%rax), %rax	# MEM[(struct CV *)sv_18].sv_any, D.23942
	movq	96(%rax), %rax	# _60->xcv_gv, iftmp.291
.L324:
	.loc 1 811 0 discriminator 1
	movq	(%rax), %rax	# iftmp.291_4->sv_any, D.23945
	.loc 1 810 0 is_stmt 1 discriminator 1
	movq	64(%rax), %rax	# _62->xgv_name, iftmp.290
	jmp	.L325	#
.L322:
	movl	$.LC27, %eax	#, iftmp.290
.L325:
	.loc 1 810 0 is_stmt 0 discriminator 2
	movq	%rax, %rdx	# iftmp.290,
	movl	$.LC28, %esi	#,
	movl	$12, %edi	#,
	movl	$0, %eax	#,
	call	Perl_warner	#
.L318:
.LBB39:
	.loc 1 816 0 is_stmt 1
	movq	-40(%rbp), %rax	# sv, tmp171
	movq	(%rax), %rax	# MEM[(struct CV *)sv_18].sv_any, D.23942
	movq	96(%rax), %rax	# _65->xcv_gv, tmp172
	movq	%rax, -32(%rbp)	# tmp172, gv
	.loc 1 817 0
	movq	-40(%rbp), %rax	# sv, tmp173
	movq	%rax, %rdi	# tmp173,
	call	Perl_cv_undef	#
	.loc 1 818 0
	movq	-40(%rbp), %rax	# sv, tmp174
	movq	(%rax), %rax	# MEM[(struct CV *)sv_18].sv_any, D.23942
	movq	-32(%rbp), %rdx	# gv, tmp175
	movq	%rdx, 96(%rax)	# tmp175, _67->xcv_gv
.LBE39:
	.loc 1 820 0
	jmp	.L319	#
.L317:
	.loc 1 822 0
	movq	-40(%rbp), %rax	# sv, tmp176
	movl	12(%rax), %eax	# sv_18->sv_flags, D.23936
	andl	$1048576, %eax	#, D.23936
	testl	%eax, %eax	# D.23936
	je	.L326	#,
	.loc 1 823 0
	cmpq	$PL_sv_undef, -40(%rbp)	#, sv
	je	.L328	#,
	.loc 1 823 0 is_stmt 0 discriminator 1
	movq	-40(%rbp), %rax	# sv, tmp177
	movl	$2, %edx	#,
	movl	$PL_sv_undef, %esi	#,
	movq	%rax, %rdi	# tmp177,
	call	Perl_sv_setsv_flags	#
	movq	-40(%rbp), %rax	# sv, tmp178
	movl	12(%rax), %eax	# sv_18->sv_flags, D.23936
	andl	$16384, %eax	#, D.23936
	testl	%eax, %eax	# D.23936
	je	.L328	#,
	movq	-40(%rbp), %rax	# sv, tmp179
	movq	%rax, %rdi	# tmp179,
	call	Perl_mg_set	#
	.loc 1 834 0 is_stmt 1 discriminator 1
	jmp	.L319	#
.L326:
.LBB40:
	.loc 1 826 0
	movq	-40(%rbp), %rax	# sv, tmp180
	movq	%rax, %rdi	# tmp180,
	call	Perl_gp_free	#
	.loc 1 827 0
	movl	$88, %edi	#,
	call	Perl_safesysmalloc	#
	movq	%rax, -24(%rbp)	# tmp181, gp
	movq	-24(%rbp), %rax	# gp, tmp182
	movl	$88, %edx	#,
	movl	$0, %esi	#,
	movq	%rax, %rdi	# tmp182,
	call	memset	#
	.loc 1 828 0
	movq	-40(%rbp), %rax	# sv, tmp183
	movq	(%rax), %r12	# sv_18->sv_any, D.23938
	movq	-24(%rbp), %rax	# gp, tmp184
	movq	%rax, %rdi	# tmp184,
	call	Perl_gp_ref	#
	movq	%rax, 56(%r12)	# D.23946, MEM[(struct XPVGV *)_73].xgv_gp
	.loc 1 829 0
	movq	-40(%rbp), %rax	# sv, tmp185
	movq	(%rax), %rax	# sv_18->sv_any, D.23938
	movq	56(%rax), %r12	# MEM[(struct XPVGV *)_75].xgv_gp, D.23946
	movl	$0, %edi	#,
	call	Perl_newSV	#
	movq	%rax, (%r12)	# D.23937, _76->gp_sv
	.loc 1 830 0
	movq	-40(%rbp), %rax	# sv, tmp186
	movq	(%rax), %rax	# sv_18->sv_any, D.23938
	movq	56(%rax), %rax	# MEM[(struct XPVGV *)_78].xgv_gp, D.23946
	movq	PL_curcop(%rip), %rdx	# PL_curcop, PL_curcop.292
	movl	72(%rdx), %edx	# PL_curcop.292_80->cop_line, D.23936
	movl	%edx, 72(%rax)	# D.23936, _79->gp_line
	.loc 1 831 0
	movq	-40(%rbp), %rax	# sv, tmp187
	movq	(%rax), %rax	# sv_18->sv_any, D.23938
	movq	56(%rax), %rax	# MEM[(struct XPVGV *)_82].xgv_gp, D.23946
	movq	-40(%rbp), %rdx	# sv, tmp188
	movq	%rdx, 48(%rax)	# tmp188, _83->gp_egv
	.loc 1 832 0
	movq	-40(%rbp), %rax	# sv, tmp189
	movq	(%rax), %rax	# sv_18->sv_any, D.23938
	movq	-40(%rbp), %rdx	# sv, tmp190
	movq	(%rdx), %rdx	# sv_18->sv_any, D.23938
	movzbl	88(%rdx), %edx	# MEM[(struct XPVGV *)_85].xgv_flags, D.23934
	orl	$2, %edx	#, D.23934
	movb	%dl, 88(%rax)	# D.23934, MEM[(struct XPVGV *)_84].xgv_flags
.LBE40:
	.loc 1 834 0
	jmp	.L319	#
.L328:
	jmp	.L319	#
.L311:
	.loc 1 836 0
	movq	-40(%rbp), %rax	# sv, tmp191
	movl	12(%rax), %eax	# sv_18->sv_flags, D.23936
	movzbl	%al, %eax	# D.23936, D.23936
	cmpl	$3, %eax	#, D.23936
	jbe	.L329	#,
	.loc 1 836 0 is_stmt 0 discriminator 1
	movq	-40(%rbp), %rax	# sv, tmp192
	movq	(%rax), %rax	# sv_18->sv_any, D.23938
	movq	(%rax), %rax	# MEM[(struct XPV *)_90].xpv_pv, D.23939
	testq	%rax, %rax	# D.23939
	je	.L329	#,
	movq	-40(%rbp), %rax	# sv, tmp193
	movq	(%rax), %rax	# sv_18->sv_any, D.23938
	movq	16(%rax), %rax	# MEM[(struct XPV *)_92].xpv_len, D.23947
	testq	%rax, %rax	# D.23947
	je	.L329	#,
	.loc 1 837 0 is_stmt 1
	movq	-40(%rbp), %rax	# sv, tmp194
	movl	12(%rax), %eax	# sv_18->sv_flags, D.23936
	andl	$2097152, %eax	#, D.23936
	testl	%eax, %eax	# D.23936
	je	.L331	#,
	.loc 1 837 0 is_stmt 0 discriminator 1
	movq	-40(%rbp), %rax	# sv, tmp195
	movq	%rax, %rdi	# tmp195,
	call	Perl_sv_backoff	#
	testl	%eax, %eax	# D.23941
	je	.L331	#,
	.loc 1 837 0
	nop
.L331:
	.loc 1 838 0 is_stmt 1
	movq	-40(%rbp), %rax	# sv, tmp196
	movq	(%rax), %rax	# sv_18->sv_any, D.23938
	movq	(%rax), %rax	# MEM[(struct XPV *)_99].xpv_pv, D.23939
	movq	%rax, %rdi	# D.23939,
	call	Perl_safesysfree	#
	.loc 1 839 0
	movq	-40(%rbp), %rax	# sv, tmp197
	movq	(%rax), %rax	# sv_18->sv_any, D.23938
	movq	$0, (%rax)	#, MEM[(struct XPV *)_101].xpv_pv
	.loc 1 840 0
	movq	-40(%rbp), %rax	# sv, tmp198
	movq	(%rax), %rax	# sv_18->sv_any, D.23938
	movq	$0, 16(%rax)	#, MEM[(struct XPV *)_102].xpv_len
.L329:
	.loc 1 842 0
	movq	-40(%rbp), %rax	# sv, tmp199
	movl	12(%rax), %eax	# sv_18->sv_flags, D.23936
	andl	$1223753727, %eax	#, D.23936
	movl	%eax, %edx	# D.23936, D.23936
	movq	-40(%rbp), %rax	# sv, tmp200
	movl	%edx, 12(%rax)	# D.23936, sv_18->sv_flags
	movq	-40(%rbp), %rax	# sv, tmp201
	movl	12(%rax), %eax	# sv_18->sv_flags, D.23936
	andl	$2097152, %eax	#, D.23936
	testl	%eax, %eax	# D.23936
	je	.L333	#,
	.loc 1 842 0 is_stmt 0 discriminator 1
	movq	-40(%rbp), %rax	# sv, tmp202
	movq	%rax, %rdi	# tmp202,
	call	Perl_sv_backoff	#
	testl	%eax, %eax	# D.23941
	je	.L333	#,
	.loc 1 842 0
	nop
.L333:
	.loc 1 843 0 is_stmt 1
	movq	-40(%rbp), %rax	# sv, tmp203
	movl	12(%rax), %eax	# sv_18->sv_flags, D.23936
	andl	$16384, %eax	#, D.23936
	testl	%eax, %eax	# D.23936
	je	.L319	#,
	.loc 1 843 0 is_stmt 0 discriminator 1
	movq	-40(%rbp), %rax	# sv, tmp204
	movq	%rax, %rdi	# tmp204,
	call	Perl_mg_set	#
	jmp	.L319	#
.L334:
	.loc 1 801 0 is_stmt 1
	nop
.L319:
	.loc 1 846 0
	addq	$8, %rbx	#, sp
	movq	$PL_sv_undef, (%rbx)	#, *sp_112
	movq	%rbx, PL_stack_sp(%rip)	# sp, PL_stack_sp
	movq	PL_op(%rip), %rax	# PL_op, PL_op.295
	movq	(%rax), %rax	# PL_op.295_113->op_next, D.23933
.L308:
	.loc 1 847 0
	addq	$32, %rsp	#,
	popq	%rbx	#
	popq	%r12	#
	popq	%rbp	#
	.cfi_def_cfa 7, 8
	ret
	.cfi_endproc
.LFE27:
	.size	Perl_pp_undef, .-Perl_pp_undef
	.globl	Perl_pp_predec
	.type	Perl_pp_predec, @function
Perl_pp_predec:
.LFB28:
	.loc 1 850 0
	.cfi_startproc
	pushq	%rbp	#
	.cfi_def_cfa_offset 16
	.cfi_offset 6, -16
	movq	%rsp, %rbp	#,
	.cfi_def_cfa_register 6
	pushq	%rbx	#
	subq	$8, %rsp	#,
	.cfi_offset 3, -24
	.loc 1 851 0
	movq	PL_stack_sp(%rip), %rbx	# PL_stack_sp, sp
	.loc 1 852 0
	movq	(%rbx), %rax	# *sp_2, D.23951
	movl	12(%rax), %eax	# _3->sv_flags, D.23952
	movzbl	%al, %eax	# D.23952, D.23952
	cmpl	$9, %eax	#, D.23952
	jbe	.L336	#,
	.loc 1 853 0
	movl	$PL_no_modify, %edi	#,
	movl	$0, %eax	#,
	call	Perl_die	#
	jmp	.L337	#
.L336:
	.loc 1 854 0
	movq	(%rbx), %rax	# *sp_2, D.23951
	movl	12(%rax), %eax	# _7->sv_flags, D.23952
	andl	$8388608, %eax	#, D.23952
	testl	%eax, %eax	# D.23952
	jne	.L338	#,
	.loc 1 854 0 is_stmt 0 discriminator 1
	movq	(%rbx), %rax	# *sp_2, D.23951
	movl	12(%rax), %eax	# _10->sv_flags, D.23952
	andl	$-2147418112, %eax	#, D.23952
	cmpl	$65536, %eax	#, D.23952
	jne	.L338	#,
	movq	(%rbx), %rax	# *sp_2, D.23951
	movl	12(%rax), %eax	# _13->sv_flags, D.23952
	andl	$131072, %eax	#, D.23952
	testl	%eax, %eax	# D.23952
	jne	.L338	#,
	movq	(%rbx), %rax	# *sp_2, D.23951
	movl	12(%rax), %eax	# _16->sv_flags, D.23952
	andl	$262144, %eax	#, D.23952
	testl	%eax, %eax	# D.23952
	jne	.L338	#,
	.loc 1 855 0 is_stmt 1
	movq	(%rbx), %rax	# *sp_2, D.23951
	movq	(%rax), %rax	# _19->sv_any, D.23953
	movq	24(%rax), %rdx	# MEM[(struct XPVIV *)_20].xiv_iv, D.23954
	movabsq	$-9223372036854775808, %rax	#, tmp94
	cmpq	%rax, %rdx	# tmp94, D.23954
	je	.L338	#,
	.loc 1 857 0
	movq	(%rbx), %rax	# *sp_2, D.23951
	movq	(%rax), %rax	# _22->sv_any, D.23953
	movq	24(%rax), %rdx	# MEM[(struct XPVIV *)_23].xiv_iv, D.23954
	subq	$1, %rdx	#, D.23954
	movq	%rdx, 24(%rax)	# D.23954, MEM[(struct XPVIV *)_23].xiv_iv
	.loc 1 858 0
	movq	(%rbx), %rax	# *sp_2, D.23951
	movq	(%rbx), %rdx	# *sp_2, D.23951
	movl	12(%rdx), %edx	# _27->sv_flags, D.23952
	andl	$-100663297, %edx	#, D.23952
	movl	%edx, 12(%rax)	# D.23952, _26->sv_flags
	jmp	.L339	#
.L338:
	.loc 1 861 0
	movq	(%rbx), %rax	# *sp_2, D.23951
	movq	%rax, %rdi	# D.23951,
	call	Perl_sv_dec	#
.L339:
	.loc 1 862 0
	movq	(%rbx), %rax	# *sp_2, D.23951
	movl	12(%rax), %eax	# _31->sv_flags, D.23952
	andl	$16384, %eax	#, D.23952
	testl	%eax, %eax	# D.23952
	je	.L340	#,
	.loc 1 862 0 is_stmt 0 discriminator 1
	movq	(%rbx), %rax	# *sp_2, D.23951
	movq	%rax, %rdi	# D.23951,
	call	Perl_mg_set	#
.L340:
	.loc 1 863 0 is_stmt 1
	movq	PL_op(%rip), %rax	# PL_op, PL_op.296
	movq	(%rax), %rax	# PL_op.296_35->op_next, D.23950
.L337:
	.loc 1 864 0
	addq	$8, %rsp	#,
	popq	%rbx	#
	popq	%rbp	#
	.cfi_def_cfa 7, 8
	ret
	.cfi_endproc
.LFE28:
	.size	Perl_pp_predec, .-Perl_pp_predec
	.globl	Perl_pp_postinc
	.type	Perl_pp_postinc, @function
Perl_pp_postinc:
.LFB29:
	.loc 1 867 0
	.cfi_startproc
	pushq	%rbp	#
	.cfi_def_cfa_offset 16
	.cfi_offset 6, -16
	movq	%rsp, %rbp	#,
	.cfi_def_cfa_register 6
	pushq	%rbx	#
	subq	$24, %rsp	#,
	.cfi_offset 3, -24
	.loc 1 868 0
	movq	PL_stack_sp(%rip), %rbx	# PL_stack_sp, sp
	movq	PL_curpad(%rip), %rdx	# PL_curpad, PL_curpad.297
	movq	PL_op(%rip), %rax	# PL_op, PL_op.298
	movq	24(%rax), %rax	# PL_op.298_4->op_targ, D.23956
	salq	$3, %rax	#, D.23956
	addq	%rdx, %rax	# PL_curpad.297, D.23957
	movq	(%rax), %rax	# *_7, tmp102
	movq	%rax, -24(%rbp)	# tmp102, targ
	.loc 1 869 0
	movq	(%rbx), %rax	# *sp_2, D.23958
	movl	12(%rax), %eax	# _9->sv_flags, D.23959
	movzbl	%al, %eax	# D.23959, D.23959
	cmpl	$9, %eax	#, D.23959
	jbe	.L342	#,
	.loc 1 870 0
	movl	$PL_no_modify, %edi	#,
	movl	$0, %eax	#,
	call	Perl_die	#
	jmp	.L343	#
.L342:
	.loc 1 871 0
	movq	(%rbx), %rcx	# *sp_2, D.23958
	movq	-24(%rbp), %rax	# targ, tmp103
	movl	$2, %edx	#,
	movq	%rcx, %rsi	# D.23958,
	movq	%rax, %rdi	# tmp103,
	call	Perl_sv_setsv_flags	#
	.loc 1 872 0
	movq	(%rbx), %rax	# *sp_2, D.23958
	movl	12(%rax), %eax	# _14->sv_flags, D.23959
	andl	$8388608, %eax	#, D.23959
	testl	%eax, %eax	# D.23959
	jne	.L344	#,
	.loc 1 872 0 is_stmt 0 discriminator 1
	movq	(%rbx), %rax	# *sp_2, D.23958
	movl	12(%rax), %eax	# _17->sv_flags, D.23959
	andl	$-2147418112, %eax	#, D.23959
	cmpl	$65536, %eax	#, D.23959
	jne	.L344	#,
	movq	(%rbx), %rax	# *sp_2, D.23958
	movl	12(%rax), %eax	# _20->sv_flags, D.23959
	andl	$131072, %eax	#, D.23959
	testl	%eax, %eax	# D.23959
	jne	.L344	#,
	movq	(%rbx), %rax	# *sp_2, D.23958
	movl	12(%rax), %eax	# _23->sv_flags, D.23959
	andl	$262144, %eax	#, D.23959
	testl	%eax, %eax	# D.23959
	jne	.L344	#,
	.loc 1 873 0 is_stmt 1
	movq	(%rbx), %rax	# *sp_2, D.23958
	movq	(%rax), %rax	# _26->sv_any, D.23960
	movq	24(%rax), %rdx	# MEM[(struct XPVIV *)_27].xiv_iv, D.23961
	movabsq	$9223372036854775807, %rax	#, tmp104
	cmpq	%rax, %rdx	# tmp104, D.23961
	je	.L344	#,
	.loc 1 875 0
	movq	(%rbx), %rax	# *sp_2, D.23958
	movq	(%rax), %rax	# _29->sv_any, D.23960
	movq	24(%rax), %rdx	# MEM[(struct XPVIV *)_30].xiv_iv, D.23961
	addq	$1, %rdx	#, D.23961
	movq	%rdx, 24(%rax)	# D.23961, MEM[(struct XPVIV *)_30].xiv_iv
	.loc 1 876 0
	movq	(%rbx), %rax	# *sp_2, D.23958
	movq	(%rbx), %rdx	# *sp_2, D.23958
	movl	12(%rdx), %edx	# _34->sv_flags, D.23959
	andl	$-100663297, %edx	#, D.23959
	movl	%edx, 12(%rax)	# D.23959, _33->sv_flags
	jmp	.L345	#
.L344:
	.loc 1 879 0
	movq	(%rbx), %rax	# *sp_2, D.23958
	movq	%rax, %rdi	# D.23958,
	call	Perl_sv_inc	#
.L345:
	.loc 1 880 0
	movq	(%rbx), %rax	# *sp_2, D.23958
	movl	12(%rax), %eax	# _38->sv_flags, D.23959
	andl	$16384, %eax	#, D.23959
	testl	%eax, %eax	# D.23959
	je	.L346	#,
	.loc 1 880 0 is_stmt 0 discriminator 1
	movq	(%rbx), %rax	# *sp_2, D.23958
	movq	%rax, %rdi	# D.23958,
	call	Perl_mg_set	#
.L346:
	.loc 1 882 0 is_stmt 1
	movq	-24(%rbp), %rax	# targ, tmp105
	movl	12(%rax), %eax	# targ_8->sv_flags, D.23959
	andl	$118423552, %eax	#, D.23959
	testl	%eax, %eax	# D.23959
	jne	.L347	#,
	.loc 1 883 0
	movq	-24(%rbp), %rax	# targ, tmp106
	movl	$0, %esi	#,
	movq	%rax, %rdi	# tmp106,
	call	Perl_sv_setiv	#
.L347:
	.loc 1 884 0
	movq	-24(%rbp), %rax	# targ, tmp107
	movq	%rax, (%rbx)	# tmp107, *sp_2
	.loc 1 885 0
	movq	PL_op(%rip), %rax	# PL_op, PL_op.299
	movq	(%rax), %rax	# PL_op.299_44->op_next, D.23955
.L343:
	.loc 1 886 0
	addq	$24, %rsp	#,
	popq	%rbx	#
	popq	%rbp	#
	.cfi_def_cfa 7, 8
	ret
	.cfi_endproc
.LFE29:
	.size	Perl_pp_postinc, .-Perl_pp_postinc
	.globl	Perl_pp_postdec
	.type	Perl_pp_postdec, @function
Perl_pp_postdec:
.LFB30:
	.loc 1 889 0
	.cfi_startproc
	pushq	%rbp	#
	.cfi_def_cfa_offset 16
	.cfi_offset 6, -16
	movq	%rsp, %rbp	#,
	.cfi_def_cfa_register 6
	pushq	%rbx	#
	subq	$24, %rsp	#,
	.cfi_offset 3, -24
	.loc 1 890 0
	movq	PL_stack_sp(%rip), %rbx	# PL_stack_sp, sp
	movq	PL_curpad(%rip), %rdx	# PL_curpad, PL_curpad.300
	movq	PL_op(%rip), %rax	# PL_op, PL_op.301
	movq	24(%rax), %rax	# PL_op.301_4->op_targ, D.23963
	salq	$3, %rax	#, D.23963
	addq	%rdx, %rax	# PL_curpad.300, D.23964
	movq	(%rax), %rax	# *_7, tmp100
	movq	%rax, -24(%rbp)	# tmp100, targ
	.loc 1 891 0
	movq	(%rbx), %rax	# *sp_2, D.23965
	movl	12(%rax), %eax	# _9->sv_flags, D.23966
	movzbl	%al, %eax	# D.23966, D.23966
	cmpl	$9, %eax	#, D.23966
	jbe	.L349	#,
	.loc 1 892 0
	movl	$PL_no_modify, %edi	#,
	movl	$0, %eax	#,
	call	Perl_die	#
	jmp	.L350	#
.L349:
	.loc 1 893 0
	movq	(%rbx), %rcx	# *sp_2, D.23965
	movq	-24(%rbp), %rax	# targ, tmp101
	movl	$2, %edx	#,
	movq	%rcx, %rsi	# D.23965,
	movq	%rax, %rdi	# tmp101,
	call	Perl_sv_setsv_flags	#
	.loc 1 894 0
	movq	(%rbx), %rax	# *sp_2, D.23965
	movl	12(%rax), %eax	# _14->sv_flags, D.23966
	andl	$8388608, %eax	#, D.23966
	testl	%eax, %eax	# D.23966
	jne	.L351	#,
	.loc 1 894 0 is_stmt 0 discriminator 1
	movq	(%rbx), %rax	# *sp_2, D.23965
	movl	12(%rax), %eax	# _17->sv_flags, D.23966
	andl	$-2147418112, %eax	#, D.23966
	cmpl	$65536, %eax	#, D.23966
	jne	.L351	#,
	movq	(%rbx), %rax	# *sp_2, D.23965
	movl	12(%rax), %eax	# _20->sv_flags, D.23966
	andl	$131072, %eax	#, D.23966
	testl	%eax, %eax	# D.23966
	jne	.L351	#,
	movq	(%rbx), %rax	# *sp_2, D.23965
	movl	12(%rax), %eax	# _23->sv_flags, D.23966
	andl	$262144, %eax	#, D.23966
	testl	%eax, %eax	# D.23966
	jne	.L351	#,
	.loc 1 895 0 is_stmt 1
	movq	(%rbx), %rax	# *sp_2, D.23965
	movq	(%rax), %rax	# _26->sv_any, D.23967
	movq	24(%rax), %rdx	# MEM[(struct XPVIV *)_27].xiv_iv, D.23968
	movabsq	$-9223372036854775808, %rax	#, tmp102
	cmpq	%rax, %rdx	# tmp102, D.23968
	je	.L351	#,
	.loc 1 897 0
	movq	(%rbx), %rax	# *sp_2, D.23965
	movq	(%rax), %rax	# _29->sv_any, D.23967
	movq	24(%rax), %rdx	# MEM[(struct XPVIV *)_30].xiv_iv, D.23968
	subq	$1, %rdx	#, D.23968
	movq	%rdx, 24(%rax)	# D.23968, MEM[(struct XPVIV *)_30].xiv_iv
	.loc 1 898 0
	movq	(%rbx), %rax	# *sp_2, D.23965
	movq	(%rbx), %rdx	# *sp_2, D.23965
	movl	12(%rdx), %edx	# _34->sv_flags, D.23966
	andl	$-100663297, %edx	#, D.23966
	movl	%edx, 12(%rax)	# D.23966, _33->sv_flags
	jmp	.L352	#
.L351:
	.loc 1 901 0
	movq	(%rbx), %rax	# *sp_2, D.23965
	movq	%rax, %rdi	# D.23965,
	call	Perl_sv_dec	#
.L352:
	.loc 1 902 0
	movq	(%rbx), %rax	# *sp_2, D.23965
	movl	12(%rax), %eax	# _38->sv_flags, D.23966
	andl	$16384, %eax	#, D.23966
	testl	%eax, %eax	# D.23966
	je	.L353	#,
	.loc 1 902 0 is_stmt 0 discriminator 1
	movq	(%rbx), %rax	# *sp_2, D.23965
	movq	%rax, %rdi	# D.23965,
	call	Perl_mg_set	#
.L353:
	.loc 1 903 0 is_stmt 1
	movq	-24(%rbp), %rax	# targ, tmp103
	movq	%rax, (%rbx)	# tmp103, *sp_2
	.loc 1 904 0
	movq	PL_op(%rip), %rax	# PL_op, PL_op.302
	movq	(%rax), %rax	# PL_op.302_42->op_next, D.23962
.L350:
	.loc 1 905 0
	addq	$24, %rsp	#,
	popq	%rbx	#
	popq	%rbp	#
	.cfi_def_cfa 7, 8
	ret
	.cfi_endproc
.LFE30:
	.size	Perl_pp_postdec, .-Perl_pp_postdec
	.globl	Perl_pp_pow
	.type	Perl_pp_pow, @function
Perl_pp_pow:
.LFB31:
	.loc 1 910 0
	.cfi_startproc
	pushq	%rbp	#
	.cfi_def_cfa_offset 16
	.cfi_offset 6, -16
	movq	%rsp, %rbp	#,
	.cfi_def_cfa_register 6
	pushq	%r15	#
	pushq	%r14	#
	pushq	%r13	#
	pushq	%r12	#
	pushq	%rbx	#
	subq	$136, %rsp	#,
	.cfi_offset 15, -24
	.cfi_offset 14, -32
	.cfi_offset 13, -40
	.cfi_offset 12, -48
	.cfi_offset 3, -56
	.loc 1 911 0
	movq	PL_stack_sp(%rip), %rbx	# PL_stack_sp, sp
	movq	PL_op(%rip), %rax	# PL_op, PL_op.304
	movzbl	36(%rax), %eax	# PL_op.304_28->op_flags, D.23970
	movzbl	%al, %eax	# D.23970, D.23971
	andl	$64, %eax	#, D.23971
	testl	%eax, %eax	# D.23971
	je	.L355	#,
	.loc 1 911 0 is_stmt 0 discriminator 1
	movq	-8(%rbx), %rax	# MEM[(struct SV * *)sp_27 + -8B], iftmp.303
	jmp	.L356	#
.L355:
	.loc 1 911 0 discriminator 2
	movq	PL_curpad(%rip), %rdx	# PL_curpad, PL_curpad.305
	movq	PL_op(%rip), %rax	# PL_op, PL_op.306
	movq	24(%rax), %rax	# PL_op.306_34->op_targ, D.23972
	salq	$3, %rax	#, D.23972
	addq	%rdx, %rax	# PL_curpad.305, D.23973
	movq	(%rax), %rax	# *_37, iftmp.303
.L356:
	.loc 1 911 0 discriminator 3
	movq	%rax, -120(%rbp)	# iftmp.303, targ
	.loc 1 913 0 is_stmt 1 discriminator 3
	movb	$0, -159(%rbp)	#, is_int
	.loc 1 915 0 discriminator 3
	movq	PL_amagic_generation(%rip), %rax	# PL_amagic_generation, PL_amagic_generation.307
	testq	%rax, %rax	# PL_amagic_generation.307
	je	.L357	#,
.LBB41:
	.loc 1 915 0 is_stmt 0 discriminator 1
	movq	(%rbx), %rax	# *sp_27, tmp259
	movq	%rax, -112(%rbp)	# tmp259, right
	movq	-8(%rbx), %rax	# MEM[(struct SV * *)sp_27 + -8B], tmp260
	movq	%rax, -104(%rbp)	# tmp260, left
	movq	-104(%rbp), %rax	# left, tmp261
	movl	12(%rax), %eax	# left_43->sv_flags, D.23974
	andl	$268435456, %eax	#, D.23974
	testl	%eax, %eax	# D.23974
	jne	.L358	#,
	.loc 1 915 0 discriminator 2
	movq	-112(%rbp), %rax	# right, tmp262
	movl	12(%rax), %eax	# right_42->sv_flags, D.23974
	andl	$268435456, %eax	#, D.23974
	testl	%eax, %eax	# D.23974
	je	.L357	#,
.L358:
	.loc 1 915 0 discriminator 1
	movq	PL_op(%rip), %rax	# PL_op, PL_op.309
	movzbl	36(%rax), %eax	# PL_op.309_48->op_flags, D.23970
	movzbl	%al, %eax	# D.23970, D.23971
	andl	$64, %eax	#, D.23971
	testl	%eax, %eax	# D.23971
	je	.L359	#,
	movl	$4, %eax	#, iftmp.308
	jmp	.L360	#
.L359:
	.loc 1 915 0 discriminator 2
	movl	$0, %eax	#, iftmp.308
.L360:
	.loc 1 915 0 discriminator 3
	movq	-112(%rbp), %rsi	# right, tmp263
	movq	-104(%rbp), %rdi	# left, tmp264
	movl	%eax, %ecx	# iftmp.308,
	movl	$16, %edx	#,
	call	Perl_amagic_call	#
	movq	%rax, -96(%rbp)	# tmp265, tmpsv
	cmpq	$0, -96(%rbp)	#, tmpsv
	je	.L357	#,
	.loc 1 915 0 discriminator 1
	movq	PL_stack_sp(%rip), %rbx	# PL_stack_sp, sp
	movq	%rbx, %rax	# sp, sp.310
	leaq	-8(%rax), %rbx	#, sp
	movq	PL_op(%rip), %rax	# PL_op, PL_op.311
	movzbl	36(%rax), %eax	# PL_op.311_58->op_flags, D.23970
	movzbl	%al, %eax	# D.23970, D.23971
	andl	$64, %eax	#, D.23971
	testl	%eax, %eax	# D.23971
	jne	.L361	#,
	.loc 1 915 0 discriminator 2
	movq	-120(%rbp), %rax	# targ, tmp266
	movl	12(%rax), %eax	# targ_39->sv_flags, D.23974
	andl	$1024, %eax	#, D.23974
	testl	%eax, %eax	# D.23974
	je	.L362	#,
.L361:
	.loc 1 915 0 discriminator 1
	movq	-96(%rbp), %rcx	# tmpsv, tmp267
	movq	-120(%rbp), %rax	# targ, tmp268
	movl	$2, %edx	#,
	movq	%rcx, %rsi	# tmp267,
	movq	%rax, %rdi	# tmp268,
	call	Perl_sv_setsv_flags	#
.LBB42:
	movq	-120(%rbp), %rax	# targ, tmp269
	movl	12(%rax), %eax	# targ_39->sv_flags, D.23974
	andl	$16384, %eax	#, D.23974
	testl	%eax, %eax	# D.23974
	je	.L363	#,
	movq	-120(%rbp), %rax	# targ, tmp270
	movq	%rax, %rdi	# tmp270,
	call	Perl_mg_set	#
.L363:
	.loc 1 915 0 discriminator 2
	movq	-120(%rbp), %rax	# targ, tmp271
	movq	%rax, (%rbx)	# tmp271, *sp_57
.LBE42:
	jmp	.L364	#
.L362:
	.loc 1 915 0 discriminator 1
	movq	-96(%rbp), %rax	# tmpsv, tmp272
	movq	%rax, (%rbx)	# tmp272, *sp_57
.L364:
	movq	%rbx, PL_stack_sp(%rip)	# sp, PL_stack_sp
	movq	PL_op(%rip), %rax	# PL_op, PL_op.312
	movq	(%rax), %rax	# PL_op.312_67->op_next, D.23969
	jmp	.L365	#
.L357:
.LBE41:
	.loc 1 921 0 is_stmt 1
	leaq	-8(%rbx), %rax	#, D.23973
	movq	(%rax), %rax	# *_69, D.23975
	movl	12(%rax), %eax	# _70->sv_flags, D.23974
	andl	$16777216, %eax	#, D.23974
	testl	%eax, %eax	# D.23974
	jne	.L366	#,
	.loc 1 921 0 is_stmt 0 discriminator 1
	leaq	-8(%rbx), %rax	#, D.23973
	movq	(%rax), %rax	# *_73, D.23975
	movl	12(%rax), %eax	# _74->sv_flags, D.23974
	andl	$131072, %eax	#, D.23974
	testl	%eax, %eax	# D.23974
	jne	.L367	#,
	.loc 1 921 0 discriminator 2
	leaq	-8(%rbx), %rax	#, D.23973
	movq	(%rax), %rax	# *_77, D.23975
	movl	12(%rax), %eax	# _78->sv_flags, D.23974
	andl	$262144, %eax	#, D.23974
	testl	%eax, %eax	# D.23974
	je	.L366	#,
.L367:
	.loc 1 921 0 discriminator 1
	leaq	-8(%rbx), %rax	#, D.23973
	movq	(%rax), %rax	# *_81, D.23975
	movl	12(%rax), %eax	# _82->sv_flags, D.23974
	andl	$65536, %eax	#, D.23974
	testl	%eax, %eax	# D.23974
	jne	.L366	#,
	.loc 1 921 0 discriminator 2
	leaq	-8(%rbx), %rax	#, D.23973
	movq	(%rax), %rax	# *_89, D.23975
	movq	%rax, %rdi	# D.23975,
	call	Perl_sv_2iv	#
.L366:
	.loc 1 922 0 is_stmt 1
	leaq	-8(%rbx), %rax	#, D.23973
	movq	(%rax), %rax	# *_92, D.23975
	movl	12(%rax), %eax	# _93->sv_flags, D.23974
	andl	$65536, %eax	#, D.23974
	testl	%eax, %eax	# D.23974
	je	.L369	#,
.LBB43:
	.loc 1 923 0
	leaq	-8(%rbx), %rax	#, D.23973
	movq	(%rax), %rax	# *_96, D.23975
	movl	12(%rax), %eax	# _97->sv_flags, D.23974
	andl	$-2147418112, %eax	#, D.23974
	cmpl	$-2147418112, %eax	#, D.23974
	sete	%al	#, D.23977
	movb	%al, -158(%rbp)	# D.23977, baseuok
	.loc 1 926 0
	cmpb	$0, -158(%rbp)	#, baseuok
	je	.L370	#,
	.loc 1 927 0
	leaq	-8(%rbx), %rax	#, D.23973
	movq	(%rax), %rax	# *_102, D.23975
	movq	(%rax), %rax	# _103->sv_any, D.23976
	movq	24(%rax), %rax	# MEM[(struct XPVUV *)_104].xuv_uv, tmp273
	movq	%rax, -152(%rbp)	# tmp273, baseuv
	jmp	.L371	#
.L370:
.LBB44:
	.loc 1 929 0
	leaq	-8(%rbx), %rax	#, D.23973
	movq	(%rax), %rax	# *_106, D.23975
	movq	(%rax), %rax	# _107->sv_any, D.23976
	movq	24(%rax), %rax	# MEM[(struct XPVIV *)_108].xiv_iv, tmp274
	movq	%rax, -88(%rbp)	# tmp274, iv
	.loc 1 930 0
	cmpq	$0, -88(%rbp)	#, iv
	js	.L372	#,
	.loc 1 931 0
	movq	-88(%rbp), %rax	# iv, tmp275
	movq	%rax, -152(%rbp)	# tmp275, baseuv
	.loc 1 932 0
	movb	$1, -158(%rbp)	#, baseuok
	jmp	.L371	#
.L372:
	.loc 1 934 0
	movq	-88(%rbp), %rax	# iv, tmp276
	negq	%rax	# D.23978
	movq	%rax, -152(%rbp)	# D.23978, baseuv
.L371:
.LBE44:
	.loc 1 937 0
	movq	(%rbx), %rax	# *sp_27, D.23975
	movl	12(%rax), %eax	# _114->sv_flags, D.23974
	andl	$16777216, %eax	#, D.23974
	testl	%eax, %eax	# D.23974
	jne	.L373	#,
	.loc 1 937 0 is_stmt 0 discriminator 1
	movq	(%rbx), %rax	# *sp_27, D.23975
	movl	12(%rax), %eax	# _117->sv_flags, D.23974
	andl	$131072, %eax	#, D.23974
	testl	%eax, %eax	# D.23974
	jne	.L374	#,
	.loc 1 937 0 discriminator 2
	movq	(%rbx), %rax	# *sp_27, D.23975
	movl	12(%rax), %eax	# _120->sv_flags, D.23974
	andl	$262144, %eax	#, D.23974
	testl	%eax, %eax	# D.23974
	je	.L373	#,
.L374:
	.loc 1 937 0 discriminator 1
	movq	(%rbx), %rax	# *sp_27, D.23975
	movl	12(%rax), %eax	# _123->sv_flags, D.23974
	andl	$65536, %eax	#, D.23974
	testl	%eax, %eax	# D.23974
	jne	.L373	#,
	.loc 1 937 0 discriminator 2
	movq	(%rbx), %rax	# *sp_27, D.23975
	movq	%rax, %rdi	# D.23975,
	call	Perl_sv_2iv	#
.L373:
	.loc 1 938 0 is_stmt 1
	movq	(%rbx), %rax	# *sp_27, D.23975
	movl	12(%rax), %eax	# _131->sv_flags, D.23974
	andl	$65536, %eax	#, D.23974
	testl	%eax, %eax	# D.23974
	je	.L369	#,
.LBB45:
	.loc 1 941 0
	movq	(%rbx), %rax	# *sp_27, D.23975
	movl	12(%rax), %eax	# _134->sv_flags, D.23974
	andl	$-2147418112, %eax	#, D.23974
	cmpl	$-2147418112, %eax	#, D.23974
	jne	.L376	#,
	.loc 1 942 0
	movq	(%rbx), %rax	# *sp_27, D.23975
	movq	(%rax), %rax	# _137->sv_any, D.23976
	movq	24(%rax), %rax	# MEM[(struct XPVUV *)_138].xuv_uv, tmp277
	movq	%rax, -144(%rbp)	# tmp277, power
	jmp	.L377	#
.L376:
.LBB46:
	.loc 1 944 0
	movq	(%rbx), %rax	# *sp_27, D.23975
	movq	(%rax), %rax	# _140->sv_any, D.23976
	movq	24(%rax), %rax	# MEM[(struct XPVIV *)_141].xiv_iv, tmp278
	movq	%rax, -80(%rbp)	# tmp278, iv
	.loc 1 945 0
	cmpq	$0, -80(%rbp)	#, iv
	js	.L378	#,
	.loc 1 946 0
	movq	-80(%rbp), %rax	# iv, tmp279
	movq	%rax, -144(%rbp)	# tmp279, power
	jmp	.L377	#
.L378:
	.loc 1 948 0
	jmp	.L369	#
.L377:
.LBE46:
	.loc 1 952 0
	movb	$1, -159(%rbp)	#, is_int
	.loc 1 955 0
	movq	-152(%rbp), %rax	# baseuv, tmp280
	subq	$1, %rax	#, D.23972
	andq	-152(%rbp), %rax	# baseuv, D.23972
	testq	%rax, %rax	# D.23972
	jne	.L379	#,
.LBB47:
	.loc 1 964 0
	movabsq	$4607182418800017408, %rax	#, tmp281
	movq	%rax, -136(%rbp)	# tmp281, result
	.loc 1 965 0
	cmpb	$0, -158(%rbp)	#, baseuok
	je	.L380	#,
	.loc 1 965 0 is_stmt 0 discriminator 1
	movq	-152(%rbp), %rax	# baseuv, tmp282
	testq	%rax, %rax	# tmp282
	js	.L381	#,
	cvtsi2sdq	%rax, %xmm0	# tmp282, iftmp.315
	jmp	.L383	#
.L381:
	movq	%rax, %rdx	# tmp282, tmp284
	shrq	%rdx	# tmp284
	andl	$1, %eax	#, tmp285
	orq	%rax, %rdx	# tmp285, tmp284
	cvtsi2sdq	%rdx, %xmm0	# tmp284, tmp283
	addsd	%xmm0, %xmm0	# tmp283, iftmp.315
	jmp	.L383	#
.L380:
	.loc 1 965 0 discriminator 2
	movq	-152(%rbp), %rax	# baseuv, tmp286
	testq	%rax, %rax	# tmp286
	js	.L384	#,
	cvtsi2sdq	%rax, %xmm0	# tmp286, D.23979
	jmp	.L385	#
.L384:
	movq	%rax, %rdx	# tmp286, tmp288
	shrq	%rdx	# tmp288
	andl	$1, %eax	#, tmp289
	orq	%rax, %rdx	# tmp289, tmp288
	cvtsi2sdq	%rdx, %xmm0	# tmp288, tmp287
	addsd	%xmm0, %xmm0	# tmp287, D.23979
.L385:
	movsd	.LC30(%rip), %xmm1	#, tmp290
	xorpd	%xmm1, %xmm0	# tmp290, iftmp.315
.L383:
	.loc 1 965 0 discriminator 3
	movsd	%xmm0, -128(%rbp)	# iftmp.315, base
	.loc 1 966 0 is_stmt 1 discriminator 3
	movl	$0, -156(%rbp)	#, n
	.loc 1 968 0 discriminator 3
	jmp	.L386	#
.L389:
.LBB48:
	.loc 1 971 0
	movl	-156(%rbp), %eax	# n, tmp291
	movl	$1, %edx	#, tmp292
	movl	%eax, %ecx	# tmp291, tmp341
	salq	%cl, %rdx	# tmp341, tmp293
	movq	%rdx, %rax	# tmp293, tmp293
	movq	%rax, -72(%rbp)	# tmp293, bit
	.loc 1 972 0
	movq	-72(%rbp), %rax	# bit, tmp294
	movq	-144(%rbp), %rdx	# power, tmp295
	andq	%rdx, %rax	# tmp295, D.23972
	testq	%rax, %rax	# D.23972
	je	.L387	#,
	.loc 1 973 0
	movsd	-136(%rbp), %xmm0	# result, tmp297
	mulsd	-128(%rbp), %xmm0	# base, tmp296
	movsd	%xmm0, -136(%rbp)	# tmp296, result
	.loc 1 975 0
	movq	-72(%rbp), %rax	# bit, tmp298
	subq	%rax, -144(%rbp)	# tmp298, power
	.loc 1 977 0
	cmpq	$0, -144(%rbp)	#, power
	jne	.L387	#,
	.loc 1 977 0 is_stmt 0 discriminator 1
	jmp	.L388	#
.L387:
.LBE48:
	.loc 1 968 0 is_stmt 1
	movsd	-128(%rbp), %xmm0	# base, tmp300
	mulsd	-128(%rbp), %xmm0	# base, tmp299
	movsd	%xmm0, -128(%rbp)	# tmp299, base
	addl	$1, -156(%rbp)	#, n
.L386:
	.loc 1 968 0 is_stmt 0 discriminator 1
	cmpq	$0, -144(%rbp)	#, power
	jne	.L389	#,
.L388:
	.loc 1 980 0 is_stmt 1
	subq	$8, %rbx	#, sp
.LBB49:
	.loc 1 981 0
	movq	-136(%rbp), %rax	# result, tmp301
	movq	-120(%rbp), %rdx	# targ, tmp302
	movq	%rax, -168(%rbp)	# tmp301, %sfp
	movsd	-168(%rbp), %xmm0	# %sfp,
	movq	%rdx, %rdi	# tmp302,
	call	Perl_sv_setnv	#
.LBB50:
	movq	-120(%rbp), %rax	# targ, tmp303
	movl	12(%rax), %eax	# targ_39->sv_flags, D.23974
	andl	$16384, %eax	#, D.23974
	testl	%eax, %eax	# D.23974
	je	.L390	#,
	.loc 1 981 0 is_stmt 0 discriminator 1
	movq	-120(%rbp), %rax	# targ, tmp304
	movq	%rax, %rdi	# tmp304,
	call	Perl_mg_set	#
.L390:
	.loc 1 981 0 discriminator 2
	movq	-120(%rbp), %rax	# targ, tmp305
	movq	%rax, (%rbx)	# tmp305, *sp_159
.LBE50:
.LBE49:
	.loc 1 982 0 is_stmt 1 discriminator 2
	movq	(%rbx), %rax	# *sp_159, D.23975
	movl	12(%rax), %eax	# _163->sv_flags, D.23974
	andl	$16777216, %eax	#, D.23974
	testl	%eax, %eax	# D.23974
	jne	.L391	#,
	.loc 1 982 0 is_stmt 0 discriminator 1
	movq	(%rbx), %rax	# *sp_159, D.23975
	movl	12(%rax), %eax	# _166->sv_flags, D.23974
	andl	$131072, %eax	#, D.23974
	testl	%eax, %eax	# D.23974
	jne	.L392	#,
	.loc 1 982 0 discriminator 2
	movq	(%rbx), %rax	# *sp_159, D.23975
	movl	12(%rax), %eax	# _169->sv_flags, D.23974
	andl	$262144, %eax	#, D.23974
	testl	%eax, %eax	# D.23974
	je	.L391	#,
.L392:
	.loc 1 982 0 discriminator 1
	movq	(%rbx), %rax	# *sp_159, D.23975
	movl	12(%rax), %eax	# _172->sv_flags, D.23974
	andl	$65536, %eax	#, D.23974
	testl	%eax, %eax	# D.23974
	jne	.L391	#,
	.loc 1 982 0 discriminator 2
	movq	(%rbx), %rax	# *sp_159, D.23975
	movq	%rax, %rdi	# D.23975,
	call	Perl_sv_2iv	#
.L391:
	.loc 1 983 0 is_stmt 1
	movq	%rbx, PL_stack_sp(%rip)	# sp, PL_stack_sp
	movq	PL_op(%rip), %rax	# PL_op, PL_op.317
	movq	(%rax), %rax	# PL_op.317_180->op_next, D.23969
	jmp	.L365	#
.L379:
.LBE47:
.LBB51:
	.loc 1 985 0
	movl	$64, %r14d	#, highbit
	.loc 1 986 0
	movl	$0, %r13d	#, lowbit
	.loc 1 988 0
	movq	-144(%rbp), %rax	# power, tmp306
	andl	$1, %eax	#, tmp307
	movb	%al, -157(%rbp)	# tmp307, odd_power
	.loc 1 989 0
	jmp	.L394	#
.L396:
	.loc 1 990 0
	leal	0(%r13,%r12), %eax	#, D.23974
	movl	$1, %edx	#, tmp308
	movl	%eax, %ecx	# D.23971, tmp344
	sall	%cl, %edx	# tmp344, D.23971
	movl	%edx, %eax	# D.23971, D.23971
	negl	%eax	# D.23971
	cltq
	andq	-152(%rbp), %rax	# baseuv, D.23972
	testq	%rax, %rax	# D.23972
	je	.L395	#,
	.loc 1 991 0
	addl	%r12d, %r13d	# diff, lowbit
	jmp	.L394	#
.L395:
	.loc 1 993 0
	subl	%r12d, %r14d	# diff, highbit
.L394:
	.loc 1 989 0 discriminator 1
	movl	%r14d, %eax	# highbit, D.23974
	subl	%r13d, %eax	# lowbit, D.23974
	shrl	%eax	# diff
	movl	%eax, %r12d	# diff, diff
	testl	%r12d, %r12d	# diff
	jne	.L396	#,
	.loc 1 996 0
	movl	%r14d, %eax	# highbit, D.23972
	imulq	-144(%rbp), %rax	# power, D.23972
	cmpq	$64, %rax	#, D.23972
	ja	.L369	#,
.LBB52:
	.loc 1 999 0
	movl	$1, %r12d	#, result
	.loc 1 1000 0
	movq	-152(%rbp), %r13	# baseuv, base
	.loc 1 1001 0
	movl	$0, %r14d	#, n
	.loc 1 1002 0
	jmp	.L397	#
.L400:
.LBB53:
	.loc 1 1003 0
	movl	$1, %eax	#, tmp309
	movl	%r14d, %ecx	# n, tmp348
	salq	%cl, %rax	# tmp348, bit
	movq	%rax, %r15	# bit, bit
	.loc 1 1004 0
	movq	%r15, %rax	# bit, D.23972
	andq	-144(%rbp), %rax	# power, D.23972
	testq	%rax, %rax	# D.23972
	je	.L398	#,
	.loc 1 1005 0
	imulq	%r13, %r12	# base, result
	.loc 1 1006 0
	subq	%r15, -144(%rbp)	# bit, power
	.loc 1 1007 0
	cmpq	$0, -144(%rbp)	#, power
	jne	.L398	#,
	.loc 1 1007 0 is_stmt 0 discriminator 1
	jmp	.L399	#
.L398:
.LBE53:
	.loc 1 1002 0 is_stmt 1
	imulq	%r13, %r13	# base, base
	addl	$1, %r14d	#, n
.L397:
	.loc 1 1002 0 is_stmt 0 discriminator 1
	cmpq	$0, -144(%rbp)	#, power
	jne	.L400	#,
.L399:
	.loc 1 1010 0 is_stmt 1
	subq	$8, %rbx	#, sp
	.loc 1 1011 0
	cmpb	$0, -158(%rbp)	#, baseuok
	jne	.L401	#,
	.loc 1 1011 0 is_stmt 0 discriminator 1
	cmpb	$0, -157(%rbp)	#, odd_power
	jne	.L402	#,
.L401:
.LBB54:
	.loc 1 1013 0 is_stmt 1
	movq	-120(%rbp), %rax	# targ, tmp310
	movq	%r12, %rsi	# result,
	movq	%rax, %rdi	# tmp310,
	call	Perl_sv_setuv	#
.LBB55:
	movq	-120(%rbp), %rax	# targ, tmp311
	movl	12(%rax), %eax	# targ_39->sv_flags, D.23974
	andl	$16384, %eax	#, D.23974
	testl	%eax, %eax	# D.23974
	je	.L403	#,
	.loc 1 1013 0 is_stmt 0 discriminator 1
	movq	-120(%rbp), %rax	# targ, tmp312
	movq	%rax, %rdi	# tmp312,
	call	Perl_mg_set	#
.L403:
	.loc 1 1013 0 discriminator 2
	movq	-120(%rbp), %rax	# targ, tmp313
	movq	%rax, (%rbx)	# tmp313, *sp_207
.LBE55:
.LBE54:
	jmp	.L404	#
.L402:
	.loc 1 1014 0 is_stmt 1
	movq	%r12, %rax	# result, result.318
	testq	%rax, %rax	# result.318
	js	.L405	#,
.LBB56:
	.loc 1 1016 0
	movq	%r12, %rax	# result, result.319
	negq	%rax	# D.23978
	movq	%rax, %rdx	# D.23978, D.23978
	movq	-120(%rbp), %rax	# targ, tmp314
	movq	%rdx, %rsi	# D.23978,
	movq	%rax, %rdi	# tmp314,
	call	Perl_sv_setiv	#
.LBB57:
	movq	-120(%rbp), %rax	# targ, tmp315
	movl	12(%rax), %eax	# targ_39->sv_flags, D.23974
	andl	$16384, %eax	#, D.23974
	testl	%eax, %eax	# D.23974
	je	.L406	#,
	.loc 1 1016 0 is_stmt 0 discriminator 1
	movq	-120(%rbp), %rax	# targ, tmp316
	movq	%rax, %rdi	# tmp316,
	call	Perl_mg_set	#
.L406:
	.loc 1 1016 0 discriminator 2
	movq	-120(%rbp), %rax	# targ, tmp317
	movq	%rax, (%rbx)	# tmp317, *sp_207
.LBE57:
.LBE56:
	jmp	.L404	#
.L405:
	.loc 1 1017 0 is_stmt 1
	movabsq	$-9223372036854775808, %rax	#, tmp318
	cmpq	%rax, %r12	# tmp318, result
	jne	.L407	#,
.LBB58:
	.loc 1 1019 0
	movq	-120(%rbp), %rax	# targ, tmp319
	movabsq	$-9223372036854775808, %rsi	#,
	movq	%rax, %rdi	# tmp319,
	call	Perl_sv_setiv	#
.LBB59:
	movq	-120(%rbp), %rax	# targ, tmp320
	movl	12(%rax), %eax	# targ_39->sv_flags, D.23974
	andl	$16384, %eax	#, D.23974
	testl	%eax, %eax	# D.23974
	je	.L408	#,
	.loc 1 1019 0 is_stmt 0 discriminator 1
	movq	-120(%rbp), %rax	# targ, tmp321
	movq	%rax, %rdi	# tmp321,
	call	Perl_mg_set	#
.L408:
	.loc 1 1019 0 discriminator 2
	movq	-120(%rbp), %rax	# targ, tmp322
	movq	%rax, (%rbx)	# tmp322, *sp_207
.LBE59:
.LBE58:
	jmp	.L404	#
.L407:
.LBB60:
	.loc 1 1022 0 is_stmt 1
	testq	%r12, %r12	# result
	js	.L409	#,
	cvtsi2sdq	%r12, %xmm0	# result, D.23979
	jmp	.L410	#
.L409:
	movq	%r12, %rax	# result, tmp324
	shrq	%rax	# tmp324
	movq	%r12, %rdx	# result, tmp325
	andl	$1, %edx	#, tmp325
	orq	%rdx, %rax	# tmp325, tmp324
	cvtsi2sdq	%rax, %xmm0	# tmp324, tmp323
	addsd	%xmm0, %xmm0	# tmp323, D.23979
.L410:
	movsd	.LC30(%rip), %xmm1	#, tmp326
	xorpd	%xmm1, %xmm0	# tmp326, D.23979
	movq	-120(%rbp), %rax	# targ, tmp327
	movq	%rax, %rdi	# tmp327,
	call	Perl_sv_setnv	#
.LBB61:
	movq	-120(%rbp), %rax	# targ, tmp328
	movl	12(%rax), %eax	# targ_39->sv_flags, D.23974
	andl	$16384, %eax	#, D.23974
	testl	%eax, %eax	# D.23974
	je	.L411	#,
	.loc 1 1022 0 is_stmt 0 discriminator 1
	movq	-120(%rbp), %rax	# targ, tmp329
	movq	%rax, %rdi	# tmp329,
	call	Perl_mg_set	#
.L411:
	.loc 1 1022 0 discriminator 2
	movq	-120(%rbp), %rax	# targ, tmp330
	movq	%rax, (%rbx)	# tmp330, *sp_207
.L404:
.LBE61:
.LBE60:
	.loc 1 1023 0 is_stmt 1
	movq	%rbx, PL_stack_sp(%rip)	# sp, PL_stack_sp
	movq	PL_op(%rip), %rax	# PL_op, PL_op.320
	movq	(%rax), %rax	# PL_op.320_225->op_next, D.23969
	jmp	.L365	#
.L369:
.LBE52:
.LBE51:
.LBE45:
.LBE43:
.LBB62:
	.loc 1 1032 0
	movq	%rbx, %rax	# sp, sp.321
	leaq	-8(%rax), %rbx	#, sp
	movq	(%rax), %rax	# *sp.321_227, PL_Sv.322
	movq	%rax, PL_Sv(%rip)	# PL_Sv.322, PL_Sv
	movq	PL_Sv(%rip), %rax	# PL_Sv, PL_Sv.324
	movl	12(%rax), %eax	# PL_Sv.324_230->sv_flags, D.23974
	andl	$131072, %eax	#, D.23974
	testl	%eax, %eax	# D.23974
	je	.L412	#,
	.loc 1 1032 0 is_stmt 0 discriminator 1
	movq	PL_Sv(%rip), %rax	# PL_Sv, PL_Sv.325
	movq	(%rax), %rax	# PL_Sv.325_233->sv_any, D.23976
	movq	32(%rax), %rax	# MEM[(struct XPVNV *)_234].xnv_nv, iftmp.323
	jmp	.L413	#
.L412:
	.loc 1 1032 0 discriminator 2
	movq	PL_Sv(%rip), %rax	# PL_Sv, PL_Sv.326
	movq	%rax, %rdi	# PL_Sv.326,
	call	Perl_sv_2nv	#
	movsd	%xmm0, -168(%rbp)	#, %sfp
	movq	-168(%rbp), %rax	# %sfp, iftmp.323
.L413:
	.loc 1 1032 0 discriminator 3
	movq	%rax, -64(%rbp)	# iftmp.323, right
	movq	(%rbx), %rax	# *sp_228, D.23975
	movl	12(%rax), %eax	# _239->sv_flags, D.23974
	andl	$131072, %eax	#, D.23974
	testl	%eax, %eax	# D.23974
	je	.L414	#,
	.loc 1 1032 0 discriminator 1
	movq	(%rbx), %rax	# *sp_228, D.23975
	movq	(%rax), %rax	# _242->sv_any, D.23976
	movq	32(%rax), %rax	# MEM[(struct XPVNV *)_243].xnv_nv, iftmp.327
	jmp	.L415	#
.L414:
	.loc 1 1032 0 discriminator 2
	movq	(%rbx), %rax	# *sp_228, D.23975
	movq	%rax, %rdi	# D.23975,
	call	Perl_sv_2nv	#
	movsd	%xmm0, -168(%rbp)	#, %sfp
	movq	-168(%rbp), %rax	# %sfp, iftmp.327
.L415:
	.loc 1 1032 0 discriminator 3
	movq	%rax, -56(%rbp)	# iftmp.327, left
.LBB63:
	.loc 1 1033 0 is_stmt 1 discriminator 3
	movq	-64(%rbp), %rdx	# right, tmp331
	movq	-56(%rbp), %rax	# left, tmp332
	movq	%rdx, -168(%rbp)	# tmp331, %sfp
	movsd	-168(%rbp), %xmm1	# %sfp,
	movq	%rax, -168(%rbp)	# tmp332, %sfp
	movsd	-168(%rbp), %xmm0	# %sfp,
	call	pow	#
	movsd	%xmm0, -168(%rbp)	#, %sfp
	movq	-168(%rbp), %rax	# %sfp, D.23979
	movq	-120(%rbp), %rdx	# targ, tmp333
	movq	%rax, -168(%rbp)	# D.23979, %sfp
	movsd	-168(%rbp), %xmm0	# %sfp,
	movq	%rdx, %rdi	# tmp333,
	call	Perl_sv_setnv	#
.LBB64:
	movq	-120(%rbp), %rax	# targ, tmp334
	movl	12(%rax), %eax	# targ_39->sv_flags, D.23974
	andl	$16384, %eax	#, D.23974
	testl	%eax, %eax	# D.23974
	je	.L416	#,
	.loc 1 1033 0 is_stmt 0 discriminator 1
	movq	-120(%rbp), %rax	# targ, tmp335
	movq	%rax, %rdi	# tmp335,
	call	Perl_mg_set	#
.L416:
	.loc 1 1033 0 discriminator 2
	movq	-120(%rbp), %rax	# targ, tmp336
	movq	%rax, (%rbx)	# tmp336, *sp_228
.LBE64:
.LBE63:
	.loc 1 1035 0 is_stmt 1 discriminator 2
	cmpb	$0, -159(%rbp)	#, is_int
	je	.L417	#,
	.loc 1 1036 0
	movq	(%rbx), %rax	# *sp_228, D.23975
	movl	12(%rax), %eax	# _252->sv_flags, D.23974
	andl	$16777216, %eax	#, D.23974
	testl	%eax, %eax	# D.23974
	jne	.L417	#,
	.loc 1 1036 0 is_stmt 0 discriminator 1
	movq	(%rbx), %rax	# *sp_228, D.23975
	movl	12(%rax), %eax	# _255->sv_flags, D.23974
	andl	$131072, %eax	#, D.23974
	testl	%eax, %eax	# D.23974
	jne	.L418	#,
	.loc 1 1036 0 discriminator 2
	movq	(%rbx), %rax	# *sp_228, D.23975
	movl	12(%rax), %eax	# _258->sv_flags, D.23974
	andl	$262144, %eax	#, D.23974
	testl	%eax, %eax	# D.23974
	je	.L417	#,
.L418:
	.loc 1 1036 0 discriminator 1
	movq	(%rbx), %rax	# *sp_228, D.23975
	movl	12(%rax), %eax	# _261->sv_flags, D.23974
	andl	$65536, %eax	#, D.23974
	testl	%eax, %eax	# D.23974
	jne	.L417	#,
	.loc 1 1036 0 discriminator 2
	movq	(%rbx), %rax	# *sp_228, D.23975
	movq	%rax, %rdi	# D.23975,
	call	Perl_sv_2iv	#
.L417:
	.loc 1 1038 0 is_stmt 1
	movq	%rbx, PL_stack_sp(%rip)	# sp, PL_stack_sp
	movq	PL_op(%rip), %rax	# PL_op, PL_op.329
	movq	(%rax), %rax	# PL_op.329_269->op_next, D.23969
.L365:
.LBE62:
	.loc 1 1040 0
	addq	$136, %rsp	#,
	popq	%rbx	#
	popq	%r12	#
	popq	%r13	#
	popq	%r14	#
	popq	%r15	#
	popq	%rbp	#
	.cfi_def_cfa 7, 8
	ret
	.cfi_endproc
.LFE31:
	.size	Perl_pp_pow, .-Perl_pp_pow
	.globl	Perl_pp_multiply
	.type	Perl_pp_multiply, @function
Perl_pp_multiply:
.LFB32:
	.loc 1 1043 0
	.cfi_startproc
	pushq	%rbp	#
	.cfi_def_cfa_offset 16
	.cfi_offset 6, -16
	movq	%rsp, %rbp	#,
	.cfi_def_cfa_register 6
	pushq	%rbx	#
	subq	$168, %rsp	#,
	.cfi_offset 3, -24
	.loc 1 1044 0
	movq	PL_stack_sp(%rip), %rbx	# PL_stack_sp, sp
	movq	PL_op(%rip), %rax	# PL_op, PL_op.331
	movzbl	36(%rax), %eax	# PL_op.331_14->op_flags, D.23982
	movzbl	%al, %eax	# D.23982, D.23983
	andl	$64, %eax	#, D.23983
	testl	%eax, %eax	# D.23983
	je	.L421	#,
	.loc 1 1044 0 is_stmt 0 discriminator 1
	movq	-8(%rbx), %rax	# MEM[(struct SV * *)sp_13 + -8B], iftmp.330
	jmp	.L422	#
.L421:
	.loc 1 1044 0 discriminator 2
	movq	PL_curpad(%rip), %rdx	# PL_curpad, PL_curpad.332
	movq	PL_op(%rip), %rax	# PL_op, PL_op.333
	movq	24(%rax), %rax	# PL_op.333_20->op_targ, D.23984
	salq	$3, %rax	#, D.23984
	addq	%rdx, %rax	# PL_curpad.332, D.23985
	movq	(%rax), %rax	# *_23, iftmp.330
.L422:
	.loc 1 1044 0 discriminator 3
	movq	%rax, -128(%rbp)	# iftmp.330, targ
	movq	PL_amagic_generation(%rip), %rax	# PL_amagic_generation, PL_amagic_generation.334
	testq	%rax, %rax	# PL_amagic_generation.334
	je	.L423	#,
.LBB65:
	.loc 1 1044 0 discriminator 1
	movq	(%rbx), %rax	# *sp_13, tmp203
	movq	%rax, -120(%rbp)	# tmp203, right
	movq	-8(%rbx), %rax	# MEM[(struct SV * *)sp_13 + -8B], tmp204
	movq	%rax, -112(%rbp)	# tmp204, left
	movq	-112(%rbp), %rax	# left, tmp205
	movl	12(%rax), %eax	# left_28->sv_flags, D.23986
	andl	$268435456, %eax	#, D.23986
	testl	%eax, %eax	# D.23986
	jne	.L424	#,
	.loc 1 1044 0 discriminator 2
	movq	-120(%rbp), %rax	# right, tmp206
	movl	12(%rax), %eax	# right_27->sv_flags, D.23986
	andl	$268435456, %eax	#, D.23986
	testl	%eax, %eax	# D.23986
	je	.L423	#,
.L424:
	.loc 1 1044 0 discriminator 1
	movq	PL_op(%rip), %rax	# PL_op, PL_op.336
	movzbl	36(%rax), %eax	# PL_op.336_33->op_flags, D.23982
	movzbl	%al, %eax	# D.23982, D.23983
	andl	$64, %eax	#, D.23983
	testl	%eax, %eax	# D.23983
	je	.L425	#,
	movl	$4, %eax	#, iftmp.335
	jmp	.L426	#
.L425:
	.loc 1 1044 0 discriminator 2
	movl	$0, %eax	#, iftmp.335
.L426:
	.loc 1 1044 0 discriminator 3
	movq	-120(%rbp), %rsi	# right, tmp207
	movq	-112(%rbp), %rdi	# left, tmp208
	movl	%eax, %ecx	# iftmp.335,
	movl	$10, %edx	#,
	call	Perl_amagic_call	#
	movq	%rax, -104(%rbp)	# tmp209, tmpsv
	cmpq	$0, -104(%rbp)	#, tmpsv
	je	.L423	#,
	.loc 1 1044 0 discriminator 1
	movq	PL_stack_sp(%rip), %rbx	# PL_stack_sp, sp
	movq	%rbx, %rax	# sp, sp.337
	leaq	-8(%rax), %rbx	#, sp
	movq	PL_op(%rip), %rax	# PL_op, PL_op.338
	movzbl	36(%rax), %eax	# PL_op.338_43->op_flags, D.23982
	movzbl	%al, %eax	# D.23982, D.23983
	andl	$64, %eax	#, D.23983
	testl	%eax, %eax	# D.23983
	jne	.L427	#,
	.loc 1 1044 0 discriminator 2
	movq	-128(%rbp), %rax	# targ, tmp210
	movl	12(%rax), %eax	# targ_25->sv_flags, D.23986
	andl	$1024, %eax	#, D.23986
	testl	%eax, %eax	# D.23986
	je	.L428	#,
.L427:
	.loc 1 1044 0 discriminator 1
	movq	-104(%rbp), %rcx	# tmpsv, tmp211
	movq	-128(%rbp), %rax	# targ, tmp212
	movl	$2, %edx	#,
	movq	%rcx, %rsi	# tmp211,
	movq	%rax, %rdi	# tmp212,
	call	Perl_sv_setsv_flags	#
.LBB66:
	movq	-128(%rbp), %rax	# targ, tmp213
	movl	12(%rax), %eax	# targ_25->sv_flags, D.23986
	andl	$16384, %eax	#, D.23986
	testl	%eax, %eax	# D.23986
	je	.L429	#,
	movq	-128(%rbp), %rax	# targ, tmp214
	movq	%rax, %rdi	# tmp214,
	call	Perl_mg_set	#
.L429:
	.loc 1 1044 0 discriminator 2
	movq	-128(%rbp), %rax	# targ, tmp215
	movq	%rax, (%rbx)	# tmp215, *sp_42
.LBE66:
	jmp	.L430	#
.L428:
	.loc 1 1044 0 discriminator 1
	movq	-104(%rbp), %rax	# tmpsv, tmp216
	movq	%rax, (%rbx)	# tmp216, *sp_42
.L430:
	movq	%rbx, PL_stack_sp(%rip)	# sp, PL_stack_sp
	movq	PL_op(%rip), %rax	# PL_op, PL_op.339
	movq	(%rax), %rax	# PL_op.339_52->op_next, D.23981
	jmp	.L431	#
.L423:
.LBE65:
	.loc 1 1046 0 is_stmt 1
	movq	(%rbx), %rax	# *sp_13, D.23987
	movl	12(%rax), %eax	# _54->sv_flags, D.23986
	andl	$16777216, %eax	#, D.23986
	testl	%eax, %eax	# D.23986
	jne	.L432	#,
	.loc 1 1046 0 is_stmt 0 discriminator 1
	movq	(%rbx), %rax	# *sp_13, D.23987
	movl	12(%rax), %eax	# _57->sv_flags, D.23986
	andl	$131072, %eax	#, D.23986
	testl	%eax, %eax	# D.23986
	jne	.L433	#,
	.loc 1 1046 0 discriminator 2
	movq	(%rbx), %rax	# *sp_13, D.23987
	movl	12(%rax), %eax	# _60->sv_flags, D.23986
	andl	$262144, %eax	#, D.23986
	testl	%eax, %eax	# D.23986
	je	.L432	#,
.L433:
	.loc 1 1046 0 discriminator 1
	movq	(%rbx), %rax	# *sp_13, D.23987
	movl	12(%rax), %eax	# _63->sv_flags, D.23986
	andl	$65536, %eax	#, D.23986
	testl	%eax, %eax	# D.23986
	jne	.L432	#,
	.loc 1 1046 0 discriminator 2
	movq	(%rbx), %rax	# *sp_13, D.23987
	movq	%rax, %rdi	# D.23987,
	call	Perl_sv_2iv	#
.L432:
	.loc 1 1047 0 is_stmt 1
	movq	(%rbx), %rax	# *sp_13, D.23987
	movl	12(%rax), %eax	# _71->sv_flags, D.23986
	andl	$65536, %eax	#, D.23986
	testl	%eax, %eax	# D.23986
	je	.L435	#,
	.loc 1 1052 0
	leaq	-8(%rbx), %rax	#, D.23985
	movq	(%rax), %rax	# *_74, D.23987
	movl	12(%rax), %eax	# _75->sv_flags, D.23986
	andl	$16777216, %eax	#, D.23986
	testl	%eax, %eax	# D.23986
	jne	.L436	#,
	.loc 1 1052 0 is_stmt 0 discriminator 1
	leaq	-8(%rbx), %rax	#, D.23985
	movq	(%rax), %rax	# *_78, D.23987
	movl	12(%rax), %eax	# _79->sv_flags, D.23986
	andl	$131072, %eax	#, D.23986
	testl	%eax, %eax	# D.23986
	jne	.L437	#,
	.loc 1 1052 0 discriminator 2
	leaq	-8(%rbx), %rax	#, D.23985
	movq	(%rax), %rax	# *_82, D.23987
	movl	12(%rax), %eax	# _83->sv_flags, D.23986
	andl	$262144, %eax	#, D.23986
	testl	%eax, %eax	# D.23986
	je	.L436	#,
.L437:
	.loc 1 1052 0 discriminator 1
	leaq	-8(%rbx), %rax	#, D.23985
	movq	(%rax), %rax	# *_86, D.23987
	movl	12(%rax), %eax	# _87->sv_flags, D.23986
	andl	$65536, %eax	#, D.23986
	testl	%eax, %eax	# D.23986
	jne	.L436	#,
	.loc 1 1052 0 discriminator 2
	leaq	-8(%rbx), %rax	#, D.23985
	movq	(%rax), %rax	# *_94, D.23987
	movq	%rax, %rdi	# D.23987,
	call	Perl_sv_2iv	#
.L436:
	.loc 1 1053 0 is_stmt 1
	leaq	-8(%rbx), %rax	#, D.23985
	movq	(%rax), %rax	# *_97, D.23987
	movl	12(%rax), %eax	# _98->sv_flags, D.23986
	andl	$65536, %eax	#, D.23986
	testl	%eax, %eax	# D.23986
	je	.L435	#,
.LBB67:
	.loc 1 1054 0
	leaq	-8(%rbx), %rax	#, D.23985
	movq	(%rax), %rax	# *_101, D.23987
	movl	12(%rax), %eax	# _102->sv_flags, D.23986
	andl	$-2147418112, %eax	#, D.23986
	cmpl	$-2147418112, %eax	#, D.23986
	sete	%al	#, D.23989
	movb	%al, -154(%rbp)	# D.23989, auvok
	.loc 1 1055 0
	movq	(%rbx), %rax	# *sp_13, D.23987
	movl	12(%rax), %eax	# _107->sv_flags, D.23986
	andl	$-2147418112, %eax	#, D.23986
	cmpl	$-2147418112, %eax	#, D.23986
	sete	%al	#, D.23989
	movb	%al, -153(%rbp)	# D.23989, buvok
	.loc 1 1056 0
	movabsq	$-4294967296, %rax	#, tmp277
	movq	%rax, -96(%rbp)	# tmp277, topmask
	.loc 1 1057 0
	movl	$4294967295, %eax	#, tmp278
	movq	%rax, -88(%rbp)	# tmp278, botmask
	.loc 1 1063 0
	cmpb	$0, -154(%rbp)	#, auvok
	je	.L439	#,
	.loc 1 1064 0
	leaq	-8(%rbx), %rax	#, D.23985
	movq	(%rax), %rax	# *_114, D.23987
	movq	(%rax), %rax	# _115->sv_any, D.23988
	movq	24(%rax), %rax	# MEM[(struct XPVUV *)_116].xuv_uv, tmp217
	movq	%rax, -152(%rbp)	# tmp217, alow
	jmp	.L440	#
.L439:
.LBB68:
	.loc 1 1066 0
	leaq	-8(%rbx), %rax	#, D.23985
	movq	(%rax), %rax	# *_118, D.23987
	movq	(%rax), %rax	# _119->sv_any, D.23988
	movq	24(%rax), %rax	# MEM[(struct XPVIV *)_120].xiv_iv, tmp218
	movq	%rax, -80(%rbp)	# tmp218, aiv
	.loc 1 1067 0
	cmpq	$0, -80(%rbp)	#, aiv
	js	.L441	#,
	.loc 1 1068 0
	movq	-80(%rbp), %rax	# aiv, tmp219
	movq	%rax, -152(%rbp)	# tmp219, alow
	.loc 1 1069 0
	movb	$1, -154(%rbp)	#, auvok
	jmp	.L440	#
.L441:
	.loc 1 1071 0
	movq	-80(%rbp), %rax	# aiv, tmp220
	negq	%rax	# D.23990
	movq	%rax, -152(%rbp)	# D.23990, alow
.L440:
.LBE68:
	.loc 1 1074 0
	cmpb	$0, -153(%rbp)	#, buvok
	je	.L442	#,
	.loc 1 1075 0
	movq	(%rbx), %rax	# *sp_13, D.23987
	movq	(%rax), %rax	# _126->sv_any, D.23988
	movq	24(%rax), %rax	# MEM[(struct XPVUV *)_127].xuv_uv, tmp221
	movq	%rax, -136(%rbp)	# tmp221, blow
	jmp	.L443	#
.L442:
.LBB69:
	.loc 1 1077 0
	movq	(%rbx), %rax	# *sp_13, D.23987
	movq	(%rax), %rax	# _129->sv_any, D.23988
	movq	24(%rax), %rax	# MEM[(struct XPVIV *)_130].xiv_iv, tmp222
	movq	%rax, -72(%rbp)	# tmp222, biv
	.loc 1 1078 0
	cmpq	$0, -72(%rbp)	#, biv
	js	.L444	#,
	.loc 1 1079 0
	movq	-72(%rbp), %rax	# biv, tmp223
	movq	%rax, -136(%rbp)	# tmp223, blow
	.loc 1 1080 0
	movb	$1, -153(%rbp)	#, buvok
	jmp	.L443	#
.L444:
	.loc 1 1082 0
	movq	-72(%rbp), %rax	# biv, tmp224
	negq	%rax	# D.23990
	movq	%rax, -136(%rbp)	# D.23990, blow
.L443:
.LBE69:
	.loc 1 1087 0
	movq	-152(%rbp), %rax	# alow, tmp228
	shrq	$32, %rax	#, tmp227
	movq	%rax, -144(%rbp)	# tmp227, ahigh
	.loc 1 1088 0
	movq	-88(%rbp), %rax	# botmask, tmp229
	andq	%rax, -152(%rbp)	# tmp229, alow
	.loc 1 1089 0
	movq	-136(%rbp), %rax	# blow, tmp233
	shrq	$32, %rax	#, tmp232
	movq	%rax, -64(%rbp)	# tmp232, bhigh
	.loc 1 1090 0
	movq	-88(%rbp), %rax	# botmask, tmp234
	andq	%rax, -136(%rbp)	# tmp234, blow
	.loc 1 1091 0
	cmpq	$0, -144(%rbp)	#, ahigh
	je	.L445	#,
	.loc 1 1091 0 is_stmt 0 discriminator 1
	cmpq	$0, -64(%rbp)	#, bhigh
	je	.L445	#,
	jmp	.L435	#
.L445:
	.loc 1 1094 0 is_stmt 1
	cmpq	$0, -144(%rbp)	#, ahigh
	jne	.L446	#,
	.loc 1 1094 0 is_stmt 0 discriminator 1
	cmpq	$0, -64(%rbp)	#, bhigh
	jne	.L446	#,
.LBB70:
	.loc 1 1097 0 is_stmt 1
	movq	-152(%rbp), %rax	# alow, tmp236
	imulq	-136(%rbp), %rax	# blow, tmp235
	movq	%rax, -56(%rbp)	# tmp235, product
	.loc 1 1098 0
	movzbl	-154(%rbp), %eax	# auvok, tmp237
	cmpb	-153(%rbp), %al	# buvok, tmp237
	jne	.L447	#,
	.loc 1 1100 0
	subq	$8, %rbx	#, sp
.LBB71:
	.loc 1 1101 0
	movq	-56(%rbp), %rdx	# product, tmp238
	movq	-128(%rbp), %rax	# targ, tmp239
	movq	%rdx, %rsi	# tmp238,
	movq	%rax, %rdi	# tmp239,
	call	Perl_sv_setuv	#
.LBB72:
	movq	-128(%rbp), %rax	# targ, tmp240
	movl	12(%rax), %eax	# targ_25->sv_flags, D.23986
	andl	$16384, %eax	#, D.23986
	testl	%eax, %eax	# D.23986
	je	.L448	#,
	.loc 1 1101 0 is_stmt 0 discriminator 1
	movq	-128(%rbp), %rax	# targ, tmp241
	movq	%rax, %rdi	# tmp241,
	call	Perl_mg_set	#
.L448:
	.loc 1 1101 0 discriminator 2
	movq	-128(%rbp), %rax	# targ, tmp242
	movq	%rax, (%rbx)	# tmp242, *sp_141
.LBE72:
.LBE71:
	.loc 1 1102 0 is_stmt 1 discriminator 2
	movq	%rbx, PL_stack_sp(%rip)	# sp, PL_stack_sp
	movq	PL_op(%rip), %rax	# PL_op, PL_op.342
	movq	(%rax), %rax	# PL_op.342_145->op_next, D.23981
	jmp	.L431	#
.L447:
	.loc 1 1103 0
	movabsq	$-9223372036854775808, %rax	#, tmp243
	cmpq	%rax, -56(%rbp)	# tmp243, product
	ja	.L449	#,
	.loc 1 1106 0
	subq	$8, %rbx	#, sp
.LBB73:
	.loc 1 1107 0
	movq	-56(%rbp), %rax	# product, product.343
	negq	%rax	# D.23990
	movq	%rax, %rdx	# D.23990, D.23990
	movq	-128(%rbp), %rax	# targ, tmp244
	movq	%rdx, %rsi	# D.23990,
	movq	%rax, %rdi	# tmp244,
	call	Perl_sv_setiv	#
.LBB74:
	movq	-128(%rbp), %rax	# targ, tmp245
	movl	12(%rax), %eax	# targ_25->sv_flags, D.23986
	andl	$16384, %eax	#, D.23986
	testl	%eax, %eax	# D.23986
	je	.L450	#,
	.loc 1 1107 0 is_stmt 0 discriminator 1
	movq	-128(%rbp), %rax	# targ, tmp246
	movq	%rax, %rdi	# tmp246,
	call	Perl_mg_set	#
.L450:
	.loc 1 1107 0 discriminator 2
	movq	-128(%rbp), %rax	# targ, tmp247
	movq	%rax, (%rbx)	# tmp247, *sp_147
.LBE74:
.LBE73:
	.loc 1 1108 0 is_stmt 1 discriminator 2
	movq	%rbx, PL_stack_sp(%rip)	# sp, PL_stack_sp
	movq	PL_op(%rip), %rax	# PL_op, PL_op.344
	movq	(%rax), %rax	# PL_op.344_153->op_next, D.23981
	jmp	.L431	#
.L449:
.LBE70:
	.loc 1 1094 0
	jmp	.L435	#
.L446:
.LBB75:
	.loc 1 1113 0
	cmpq	$0, -64(%rbp)	#, bhigh
	je	.L451	#,
	.loc 1 1115 0
	movq	-64(%rbp), %rax	# bhigh, tmp248
	movq	%rax, -144(%rbp)	# tmp248, ahigh
	.loc 1 1116 0
	movq	-136(%rbp), %rax	# blow, tmp249
	movq	%rax, -64(%rbp)	# tmp249, bhigh
	.loc 1 1117 0
	movq	-152(%rbp), %rax	# alow, tmp250
	movq	%rax, -136(%rbp)	# tmp250, blow
	.loc 1 1118 0
	movq	-64(%rbp), %rax	# bhigh, tmp251
	movq	%rax, -152(%rbp)	# tmp251, alow
.L451:
	.loc 1 1122 0
	movq	-144(%rbp), %rax	# ahigh, tmp253
	imulq	-136(%rbp), %rax	# blow, tmp252
	movq	%rax, -48(%rbp)	# tmp252, product_middle
	.loc 1 1123 0
	movq	-96(%rbp), %rax	# topmask, tmp254
	movq	-48(%rbp), %rdx	# product_middle, tmp255
	andq	%rdx, %rax	# tmp255, D.23984
	testq	%rax, %rax	# D.23984
	jne	.L435	#,
.LBB76:
	.loc 1 1126 0
	salq	$32, -48(%rbp)	#, product_middle
	.loc 1 1127 0
	movq	-152(%rbp), %rax	# alow, tmp257
	imulq	-136(%rbp), %rax	# blow, tmp256
	movq	%rax, -40(%rbp)	# tmp256, product_low
	.loc 1 1132 0
	movq	-48(%rbp), %rax	# product_middle, tmp258
	addq	%rax, -40(%rbp)	# tmp258, product_low
	.loc 1 1133 0
	movq	-40(%rbp), %rax	# product_low, tmp259
	cmpq	-48(%rbp), %rax	# product_middle, tmp259
	jb	.L435	#,
	.loc 1 1135 0
	movzbl	-154(%rbp), %eax	# auvok, tmp260
	cmpb	-153(%rbp), %al	# buvok, tmp260
	jne	.L452	#,
	.loc 1 1137 0
	subq	$8, %rbx	#, sp
.LBB77:
	.loc 1 1138 0
	movq	-40(%rbp), %rdx	# product_low, tmp261
	movq	-128(%rbp), %rax	# targ, tmp262
	movq	%rdx, %rsi	# tmp261,
	movq	%rax, %rdi	# tmp262,
	call	Perl_sv_setuv	#
.LBB78:
	movq	-128(%rbp), %rax	# targ, tmp263
	movl	12(%rax), %eax	# targ_25->sv_flags, D.23986
	andl	$16384, %eax	#, D.23986
	testl	%eax, %eax	# D.23986
	je	.L453	#,
	.loc 1 1138 0 is_stmt 0 discriminator 1
	movq	-128(%rbp), %rax	# targ, tmp264
	movq	%rax, %rdi	# tmp264,
	call	Perl_mg_set	#
.L453:
	.loc 1 1138 0 discriminator 2
	movq	-128(%rbp), %rax	# targ, tmp265
	movq	%rax, (%rbx)	# tmp265, *sp_164
.LBE78:
.LBE77:
	.loc 1 1139 0 is_stmt 1 discriminator 2
	movq	%rbx, PL_stack_sp(%rip)	# sp, PL_stack_sp
	movq	PL_op(%rip), %rax	# PL_op, PL_op.345
	movq	(%rax), %rax	# PL_op.345_168->op_next, D.23981
	jmp	.L431	#
.L452:
	.loc 1 1140 0
	movabsq	$-9223372036854775808, %rax	#, tmp266
	cmpq	%rax, -40(%rbp)	# tmp266, product_low
	ja	.L435	#,
	.loc 1 1143 0
	subq	$8, %rbx	#, sp
.LBB79:
	.loc 1 1144 0
	movq	-40(%rbp), %rax	# product_low, product_low.346
	negq	%rax	# D.23990
	movq	%rax, %rdx	# D.23990, D.23990
	movq	-128(%rbp), %rax	# targ, tmp267
	movq	%rdx, %rsi	# D.23990,
	movq	%rax, %rdi	# tmp267,
	call	Perl_sv_setiv	#
.LBB80:
	movq	-128(%rbp), %rax	# targ, tmp268
	movl	12(%rax), %eax	# targ_25->sv_flags, D.23986
	andl	$16384, %eax	#, D.23986
	testl	%eax, %eax	# D.23986
	je	.L454	#,
	.loc 1 1144 0 is_stmt 0 discriminator 1
	movq	-128(%rbp), %rax	# targ, tmp269
	movq	%rax, %rdi	# tmp269,
	call	Perl_mg_set	#
.L454:
	.loc 1 1144 0 discriminator 2
	movq	-128(%rbp), %rax	# targ, tmp270
	movq	%rax, (%rbx)	# tmp270, *sp_170
.LBE80:
.LBE79:
	.loc 1 1145 0 is_stmt 1 discriminator 2
	movq	%rbx, PL_stack_sp(%rip)	# sp, PL_stack_sp
	movq	PL_op(%rip), %rax	# PL_op, PL_op.347
	movq	(%rax), %rax	# PL_op.347_176->op_next, D.23981
	jmp	.L431	#
.L435:
.LBE76:
.LBE75:
.LBE67:
.LBB81:
	.loc 1 1154 0
	movq	%rbx, %rax	# sp, sp.348
	leaq	-8(%rax), %rbx	#, sp
	movq	(%rax), %rax	# *sp.348_178, PL_Sv.349
	movq	%rax, PL_Sv(%rip)	# PL_Sv.349, PL_Sv
	movq	PL_Sv(%rip), %rax	# PL_Sv, PL_Sv.351
	movl	12(%rax), %eax	# PL_Sv.351_181->sv_flags, D.23986
	andl	$131072, %eax	#, D.23986
	testl	%eax, %eax	# D.23986
	je	.L455	#,
	.loc 1 1154 0 is_stmt 0 discriminator 1
	movq	PL_Sv(%rip), %rax	# PL_Sv, PL_Sv.352
	movq	(%rax), %rax	# PL_Sv.352_184->sv_any, D.23988
	movq	32(%rax), %rax	# MEM[(struct XPVNV *)_185].xnv_nv, iftmp.350
	jmp	.L456	#
.L455:
	.loc 1 1154 0 discriminator 2
	movq	PL_Sv(%rip), %rax	# PL_Sv, PL_Sv.353
	movq	%rax, %rdi	# PL_Sv.353,
	call	Perl_sv_2nv	#
	movsd	%xmm0, -168(%rbp)	#, %sfp
	movq	-168(%rbp), %rax	# %sfp, iftmp.350
.L456:
	.loc 1 1154 0 discriminator 3
	movq	%rax, -32(%rbp)	# iftmp.350, right
	movq	(%rbx), %rax	# *sp_179, D.23987
	movl	12(%rax), %eax	# _190->sv_flags, D.23986
	andl	$131072, %eax	#, D.23986
	testl	%eax, %eax	# D.23986
	je	.L457	#,
	.loc 1 1154 0 discriminator 1
	movq	(%rbx), %rax	# *sp_179, D.23987
	movq	(%rax), %rax	# _193->sv_any, D.23988
	movq	32(%rax), %rax	# MEM[(struct XPVNV *)_194].xnv_nv, iftmp.354
	jmp	.L458	#
.L457:
	.loc 1 1154 0 discriminator 2
	movq	(%rbx), %rax	# *sp_179, D.23987
	movq	%rax, %rdi	# D.23987,
	call	Perl_sv_2nv	#
	movsd	%xmm0, -168(%rbp)	#, %sfp
	movq	-168(%rbp), %rax	# %sfp, iftmp.354
.L458:
	.loc 1 1154 0 discriminator 3
	movq	%rax, -24(%rbp)	# iftmp.354, left
.LBB82:
	.loc 1 1155 0 is_stmt 1 discriminator 3
	movsd	-24(%rbp), %xmm0	# left, tmp271
	mulsd	-32(%rbp), %xmm0	# right, D.23991
	movq	-128(%rbp), %rax	# targ, tmp272
	movq	%rax, %rdi	# tmp272,
	call	Perl_sv_setnv	#
.LBB83:
	movq	-128(%rbp), %rax	# targ, tmp273
	movl	12(%rax), %eax	# targ_25->sv_flags, D.23986
	andl	$16384, %eax	#, D.23986
	testl	%eax, %eax	# D.23986
	je	.L459	#,
	.loc 1 1155 0 is_stmt 0 discriminator 1
	movq	-128(%rbp), %rax	# targ, tmp274
	movq	%rax, %rdi	# tmp274,
	call	Perl_mg_set	#
.L459:
	.loc 1 1155 0 discriminator 2
	movq	-128(%rbp), %rax	# targ, tmp275
	movq	%rax, (%rbx)	# tmp275, *sp_179
.LBE83:
.LBE82:
	.loc 1 1156 0 is_stmt 1 discriminator 2
	movq	%rbx, PL_stack_sp(%rip)	# sp, PL_stack_sp
	movq	PL_op(%rip), %rax	# PL_op, PL_op.355
	movq	(%rax), %rax	# PL_op.355_203->op_next, D.23981
.L431:
.LBE81:
	.loc 1 1158 0
	addq	$168, %rsp	#,
	popq	%rbx	#
	popq	%rbp	#
	.cfi_def_cfa 7, 8
	ret
	.cfi_endproc
.LFE32:
	.size	Perl_pp_multiply, .-Perl_pp_multiply
	.section	.rodata
.LC31:
	.string	"Illegal division by zero"
	.text
	.globl	Perl_pp_divide
	.type	Perl_pp_divide, @function
Perl_pp_divide:
.LFB33:
	.loc 1 1161 0
	.cfi_startproc
	pushq	%rbp	#
	.cfi_def_cfa_offset 16
	.cfi_offset 6, -16
	movq	%rsp, %rbp	#,
	.cfi_def_cfa_register 6
	pushq	%rbx	#
	subq	$120, %rsp	#,
	.cfi_offset 3, -24
	.loc 1 1162 0
	movq	PL_stack_sp(%rip), %rbx	# PL_stack_sp, sp
	movq	PL_op(%rip), %rax	# PL_op, PL_op.357
	movzbl	36(%rax), %eax	# PL_op.357_11->op_flags, D.23993
	movzbl	%al, %eax	# D.23993, D.23994
	andl	$64, %eax	#, D.23994
	testl	%eax, %eax	# D.23994
	je	.L461	#,
	.loc 1 1162 0 is_stmt 0 discriminator 1
	movq	-8(%rbx), %rax	# MEM[(struct SV * *)sp_10 + -8B], iftmp.356
	jmp	.L462	#
.L461:
	.loc 1 1162 0 discriminator 2
	movq	PL_curpad(%rip), %rdx	# PL_curpad, PL_curpad.358
	movq	PL_op(%rip), %rax	# PL_op, PL_op.359
	movq	24(%rax), %rax	# PL_op.359_17->op_targ, D.23995
	salq	$3, %rax	#, D.23995
	addq	%rdx, %rax	# PL_curpad.358, D.23996
	movq	(%rax), %rax	# *_20, iftmp.356
.L462:
	.loc 1 1162 0 discriminator 3
	movq	%rax, -88(%rbp)	# iftmp.356, targ
	movq	PL_amagic_generation(%rip), %rax	# PL_amagic_generation, PL_amagic_generation.360
	testq	%rax, %rax	# PL_amagic_generation.360
	je	.L463	#,
.LBB84:
	.loc 1 1162 0 discriminator 1
	movq	(%rbx), %rax	# *sp_10, tmp200
	movq	%rax, -80(%rbp)	# tmp200, right
	movq	-8(%rbx), %rax	# MEM[(struct SV * *)sp_10 + -8B], tmp201
	movq	%rax, -72(%rbp)	# tmp201, left
	movq	-72(%rbp), %rax	# left, tmp202
	movl	12(%rax), %eax	# left_25->sv_flags, D.23997
	andl	$268435456, %eax	#, D.23997
	testl	%eax, %eax	# D.23997
	jne	.L464	#,
	.loc 1 1162 0 discriminator 2
	movq	-80(%rbp), %rax	# right, tmp203
	movl	12(%rax), %eax	# right_24->sv_flags, D.23997
	andl	$268435456, %eax	#, D.23997
	testl	%eax, %eax	# D.23997
	je	.L463	#,
.L464:
	.loc 1 1162 0 discriminator 1
	movq	PL_op(%rip), %rax	# PL_op, PL_op.362
	movzbl	36(%rax), %eax	# PL_op.362_30->op_flags, D.23993
	movzbl	%al, %eax	# D.23993, D.23994
	andl	$64, %eax	#, D.23994
	testl	%eax, %eax	# D.23994
	je	.L465	#,
	movl	$4, %eax	#, iftmp.361
	jmp	.L466	#
.L465:
	.loc 1 1162 0 discriminator 2
	movl	$0, %eax	#, iftmp.361
.L466:
	.loc 1 1162 0 discriminator 3
	movq	-80(%rbp), %rsi	# right, tmp204
	movq	-72(%rbp), %rdi	# left, tmp205
	movl	%eax, %ecx	# iftmp.361,
	movl	$12, %edx	#,
	call	Perl_amagic_call	#
	movq	%rax, -64(%rbp)	# tmp206, tmpsv
	cmpq	$0, -64(%rbp)	#, tmpsv
	je	.L463	#,
	.loc 1 1162 0 discriminator 1
	movq	PL_stack_sp(%rip), %rbx	# PL_stack_sp, sp
	movq	%rbx, %rax	# sp, sp.363
	leaq	-8(%rax), %rbx	#, sp
	movq	PL_op(%rip), %rax	# PL_op, PL_op.364
	movzbl	36(%rax), %eax	# PL_op.364_40->op_flags, D.23993
	movzbl	%al, %eax	# D.23993, D.23994
	andl	$64, %eax	#, D.23994
	testl	%eax, %eax	# D.23994
	jne	.L467	#,
	.loc 1 1162 0 discriminator 2
	movq	-88(%rbp), %rax	# targ, tmp207
	movl	12(%rax), %eax	# targ_22->sv_flags, D.23997
	andl	$1024, %eax	#, D.23997
	testl	%eax, %eax	# D.23997
	je	.L468	#,
.L467:
	.loc 1 1162 0 discriminator 1
	movq	-64(%rbp), %rcx	# tmpsv, tmp208
	movq	-88(%rbp), %rax	# targ, tmp209
	movl	$2, %edx	#,
	movq	%rcx, %rsi	# tmp208,
	movq	%rax, %rdi	# tmp209,
	call	Perl_sv_setsv_flags	#
.LBB85:
	movq	-88(%rbp), %rax	# targ, tmp210
	movl	12(%rax), %eax	# targ_22->sv_flags, D.23997
	andl	$16384, %eax	#, D.23997
	testl	%eax, %eax	# D.23997
	je	.L469	#,
	movq	-88(%rbp), %rax	# targ, tmp211
	movq	%rax, %rdi	# tmp211,
	call	Perl_mg_set	#
.L469:
	.loc 1 1162 0 discriminator 2
	movq	-88(%rbp), %rax	# targ, tmp212
	movq	%rax, (%rbx)	# tmp212, *sp_39
.LBE85:
	jmp	.L470	#
.L468:
	.loc 1 1162 0 discriminator 1
	movq	-64(%rbp), %rax	# tmpsv, tmp213
	movq	%rax, (%rbx)	# tmp213, *sp_39
.L470:
	movq	%rbx, PL_stack_sp(%rip)	# sp, PL_stack_sp
	movq	PL_op(%rip), %rax	# PL_op, PL_op.365
	movq	(%rax), %rax	# PL_op.365_49->op_next, D.23992
	jmp	.L471	#
.L463:
.LBE84:
	.loc 1 1185 0 is_stmt 1
	movq	(%rbx), %rax	# *sp_10, D.23998
	movl	12(%rax), %eax	# _51->sv_flags, D.23997
	andl	$16777216, %eax	#, D.23997
	testl	%eax, %eax	# D.23997
	jne	.L472	#,
	.loc 1 1185 0 is_stmt 0 discriminator 1
	movq	(%rbx), %rax	# *sp_10, D.23998
	movl	12(%rax), %eax	# _54->sv_flags, D.23997
	andl	$131072, %eax	#, D.23997
	testl	%eax, %eax	# D.23997
	jne	.L473	#,
	.loc 1 1185 0 discriminator 2
	movq	(%rbx), %rax	# *sp_10, D.23998
	movl	12(%rax), %eax	# _57->sv_flags, D.23997
	andl	$262144, %eax	#, D.23997
	testl	%eax, %eax	# D.23997
	je	.L472	#,
.L473:
	.loc 1 1185 0 discriminator 1
	movq	(%rbx), %rax	# *sp_10, D.23998
	movl	12(%rax), %eax	# _60->sv_flags, D.23997
	andl	$65536, %eax	#, D.23997
	testl	%eax, %eax	# D.23997
	jne	.L472	#,
	.loc 1 1185 0 discriminator 2
	movq	(%rbx), %rax	# *sp_10, D.23998
	movq	%rax, %rdi	# D.23998,
	call	Perl_sv_2iv	#
.L472:
	.loc 1 1186 0 is_stmt 1
	movq	(%rbx), %rax	# *sp_10, D.23998
	movl	12(%rax), %eax	# _68->sv_flags, D.23997
	andl	$65536, %eax	#, D.23997
	testl	%eax, %eax	# D.23997
	je	.L475	#,
	.loc 1 1187 0
	leaq	-8(%rbx), %rax	#, D.23996
	movq	(%rax), %rax	# *_71, D.23998
	movl	12(%rax), %eax	# _72->sv_flags, D.23997
	andl	$16777216, %eax	#, D.23997
	testl	%eax, %eax	# D.23997
	jne	.L476	#,
	.loc 1 1187 0 is_stmt 0 discriminator 1
	leaq	-8(%rbx), %rax	#, D.23996
	movq	(%rax), %rax	# *_75, D.23998
	movl	12(%rax), %eax	# _76->sv_flags, D.23997
	andl	$131072, %eax	#, D.23997
	testl	%eax, %eax	# D.23997
	jne	.L477	#,
	.loc 1 1187 0 discriminator 2
	leaq	-8(%rbx), %rax	#, D.23996
	movq	(%rax), %rax	# *_79, D.23998
	movl	12(%rax), %eax	# _80->sv_flags, D.23997
	andl	$262144, %eax	#, D.23997
	testl	%eax, %eax	# D.23997
	je	.L476	#,
.L477:
	.loc 1 1187 0 discriminator 1
	leaq	-8(%rbx), %rax	#, D.23996
	movq	(%rax), %rax	# *_83, D.23998
	movl	12(%rax), %eax	# _84->sv_flags, D.23997
	andl	$65536, %eax	#, D.23997
	testl	%eax, %eax	# D.23997
	jne	.L476	#,
	.loc 1 1187 0 discriminator 2
	leaq	-8(%rbx), %rax	#, D.23996
	movq	(%rax), %rax	# *_91, D.23998
	movq	%rax, %rdi	# D.23998,
	call	Perl_sv_2iv	#
.L476:
	.loc 1 1188 0 is_stmt 1
	leaq	-8(%rbx), %rax	#, D.23996
	movq	(%rax), %rax	# *_94, D.23998
	movl	12(%rax), %eax	# _95->sv_flags, D.23997
	andl	$65536, %eax	#, D.23997
	testl	%eax, %eax	# D.23997
	je	.L475	#,
.LBB86:
	.loc 1 1189 0
	leaq	-8(%rbx), %rax	#, D.23996
	movq	(%rax), %rax	# *_98, D.23998
	movl	12(%rax), %eax	# _99->sv_flags, D.23997
	andl	$-2147418112, %eax	#, D.23997
	cmpl	$-2147418112, %eax	#, D.23997
	sete	%al	#, D.24000
	movb	%al, -106(%rbp)	# D.24000, left_non_neg
	.loc 1 1190 0
	movq	(%rbx), %rax	# *sp_10, D.23998
	movl	12(%rax), %eax	# _104->sv_flags, D.23997
	andl	$-2147418112, %eax	#, D.23997
	cmpl	$-2147418112, %eax	#, D.23997
	sete	%al	#, D.24000
	movb	%al, -105(%rbp)	# D.24000, right_non_neg
	.loc 1 1194 0
	cmpb	$0, -105(%rbp)	#, right_non_neg
	je	.L479	#,
	.loc 1 1195 0
	movq	(%rbx), %rax	# *sp_10, D.23998
	movq	(%rax), %rax	# _109->sv_any, D.23999
	movq	24(%rax), %rax	# MEM[(struct XPVUV *)_110].xuv_uv, tmp214
	movq	%rax, -96(%rbp)	# tmp214, right
	jmp	.L480	#
.L479:
.LBB87:
	.loc 1 1198 0
	movq	(%rbx), %rax	# *sp_10, D.23998
	movq	(%rax), %rax	# _112->sv_any, D.23999
	movq	24(%rax), %rax	# MEM[(struct XPVIV *)_113].xiv_iv, tmp215
	movq	%rax, -56(%rbp)	# tmp215, biv
	.loc 1 1199 0
	cmpq	$0, -56(%rbp)	#, biv
	js	.L481	#,
	.loc 1 1200 0
	movq	-56(%rbp), %rax	# biv, tmp216
	movq	%rax, -96(%rbp)	# tmp216, right
	.loc 1 1201 0
	movb	$1, -105(%rbp)	#, right_non_neg
	jmp	.L480	#
.L481:
	.loc 1 1204 0
	movq	-56(%rbp), %rax	# biv, tmp217
	negq	%rax	# D.24001
	movq	%rax, -96(%rbp)	# D.24001, right
.L480:
.LBE87:
	.loc 1 1212 0
	cmpq	$0, -96(%rbp)	#, right
	jne	.L482	#,
	.loc 1 1213 0
	movl	$.LC31, %edi	#,
	movl	$0, %eax	#,
	call	Perl_die	#
	jmp	.L471	#
.L482:
	.loc 1 1215 0
	cmpb	$0, -106(%rbp)	#, left_non_neg
	je	.L483	#,
	.loc 1 1216 0
	leaq	-8(%rbx), %rax	#, D.23996
	movq	(%rax), %rax	# *_120, D.23998
	movq	(%rax), %rax	# _121->sv_any, D.23999
	movq	24(%rax), %rax	# MEM[(struct XPVUV *)_122].xuv_uv, tmp218
	movq	%rax, -104(%rbp)	# tmp218, left
	jmp	.L484	#
.L483:
.LBB88:
	.loc 1 1219 0
	leaq	-8(%rbx), %rax	#, D.23996
	movq	(%rax), %rax	# *_124, D.23998
	movq	(%rax), %rax	# _125->sv_any, D.23999
	movq	24(%rax), %rax	# MEM[(struct XPVIV *)_126].xiv_iv, tmp219
	movq	%rax, -48(%rbp)	# tmp219, aiv
	.loc 1 1220 0
	cmpq	$0, -48(%rbp)	#, aiv
	js	.L485	#,
	.loc 1 1221 0
	movq	-48(%rbp), %rax	# aiv, tmp220
	movq	%rax, -104(%rbp)	# tmp220, left
	.loc 1 1222 0
	movb	$1, -106(%rbp)	#, left_non_neg
	jmp	.L484	#
.L485:
	.loc 1 1225 0
	movq	-48(%rbp), %rax	# aiv, tmp221
	negq	%rax	# D.24001
	movq	%rax, -104(%rbp)	# D.24001, left
.L484:
.LBE88:
	.loc 1 1229 0
	movq	-104(%rbp), %rax	# left, tmp222
	cmpq	-96(%rbp), %rax	# right, tmp222
	jb	.L475	#,
	.loc 1 1241 0
	movabsq	$4294967296, %rax	#, tmp223
	cmpq	%rax, -104(%rbp)	# tmp223, left
	jbe	.L475	#,
.LBB89:
	.loc 1 1245 0
	movq	-104(%rbp), %rax	# left, tmp227
	movl	$0, %edx	#, tmp226
	divq	-96(%rbp)	# right
	movq	%rax, -40(%rbp)	# tmp225, result
	.loc 1 1246 0
	movq	-40(%rbp), %rax	# result, tmp228
	imulq	-96(%rbp), %rax	# right, D.23995
	cmpq	-104(%rbp), %rax	# left, D.23995
	jne	.L475	#,
	.loc 1 1247 0
	subq	$8, %rbx	#, sp
	.loc 1 1248 0
	movzbl	-106(%rbp), %eax	# left_non_neg, tmp229
	cmpb	-105(%rbp), %al	# right_non_neg, tmp229
	jne	.L486	#,
.LBB90:
	.loc 1 1250 0
	movq	-40(%rbp), %rdx	# result, tmp230
	movq	-88(%rbp), %rax	# targ, tmp231
	movq	%rdx, %rsi	# tmp230,
	movq	%rax, %rdi	# tmp231,
	call	Perl_sv_setuv	#
.LBB91:
	movq	-88(%rbp), %rax	# targ, tmp232
	movl	12(%rax), %eax	# targ_22->sv_flags, D.23997
	andl	$16384, %eax	#, D.23997
	testl	%eax, %eax	# D.23997
	je	.L487	#,
	.loc 1 1250 0 is_stmt 0 discriminator 1
	movq	-88(%rbp), %rax	# targ, tmp233
	movq	%rax, %rdi	# tmp233,
	call	Perl_mg_set	#
.L487:
	.loc 1 1250 0 discriminator 2
	movq	-88(%rbp), %rax	# targ, tmp234
	movq	%rax, (%rbx)	# tmp234, *sp_134
.LBE91:
.LBE90:
	.loc 1 1251 0 is_stmt 1 discriminator 2
	movq	%rbx, PL_stack_sp(%rip)	# sp, PL_stack_sp
	movq	PL_op(%rip), %rax	# PL_op, PL_op.368
	movq	(%rax), %rax	# PL_op.368_138->op_next, D.23992
	jmp	.L471	#
.L486:
	.loc 1 1254 0
	movabsq	$-9223372036854775808, %rax	#, tmp235
	cmpq	%rax, -40(%rbp)	# tmp235, result
	ja	.L488	#,
.LBB92:
	.loc 1 1255 0
	movq	-40(%rbp), %rax	# result, result.369
	negq	%rax	# D.24001
	movq	%rax, %rdx	# D.24001, D.24001
	movq	-88(%rbp), %rax	# targ, tmp236
	movq	%rdx, %rsi	# D.24001,
	movq	%rax, %rdi	# tmp236,
	call	Perl_sv_setiv	#
.LBB93:
	movq	-88(%rbp), %rax	# targ, tmp237
	movl	12(%rax), %eax	# targ_22->sv_flags, D.23997
	andl	$16384, %eax	#, D.23997
	testl	%eax, %eax	# D.23997
	je	.L489	#,
	.loc 1 1255 0 is_stmt 0 discriminator 1
	movq	-88(%rbp), %rax	# targ, tmp238
	movq	%rax, %rdi	# tmp238,
	call	Perl_mg_set	#
.L489:
	.loc 1 1255 0 discriminator 2
	movq	-88(%rbp), %rax	# targ, tmp239
	movq	%rax, (%rbx)	# tmp239, *sp_134
.LBE93:
.LBE92:
	jmp	.L490	#
.L488:
.LBB94:
	.loc 1 1258 0 is_stmt 1
	movq	-40(%rbp), %rax	# result, tmp240
	testq	%rax, %rax	# tmp240
	js	.L491	#,
	cvtsi2sdq	%rax, %xmm0	# tmp240, D.24002
	jmp	.L492	#
.L491:
	movq	%rax, %rdx	# tmp240, tmp242
	shrq	%rdx	# tmp242
	andl	$1, %eax	#, tmp243
	orq	%rax, %rdx	# tmp243, tmp242
	cvtsi2sdq	%rdx, %xmm0	# tmp242, tmp241
	addsd	%xmm0, %xmm0	# tmp241, D.24002
.L492:
	movsd	.LC30(%rip), %xmm1	#, tmp244
	xorpd	%xmm1, %xmm0	# tmp244, D.24002
	movq	-88(%rbp), %rax	# targ, tmp245
	movq	%rax, %rdi	# tmp245,
	call	Perl_sv_setnv	#
.LBB95:
	movq	-88(%rbp), %rax	# targ, tmp246
	movl	12(%rax), %eax	# targ_22->sv_flags, D.23997
	andl	$16384, %eax	#, D.23997
	testl	%eax, %eax	# D.23997
	je	.L493	#,
	.loc 1 1258 0 is_stmt 0 discriminator 1
	movq	-88(%rbp), %rax	# targ, tmp247
	movq	%rax, %rdi	# tmp247,
	call	Perl_mg_set	#
.L493:
	.loc 1 1258 0 discriminator 2
	movq	-88(%rbp), %rax	# targ, tmp248
	movq	%rax, (%rbx)	# tmp248, *sp_134
.L490:
.LBE95:
.LBE94:
	.loc 1 1260 0 is_stmt 1
	movq	%rbx, PL_stack_sp(%rip)	# sp, PL_stack_sp
	movq	PL_op(%rip), %rax	# PL_op, PL_op.370
	movq	(%rax), %rax	# PL_op.370_150->op_next, D.23992
	jmp	.L471	#
.L475:
.LBE89:
.LBE86:
.LBB96:
	.loc 1 1267 0
	movq	%rbx, %rax	# sp, sp.371
	leaq	-8(%rax), %rbx	#, sp
	movq	(%rax), %rax	# *sp.371_152, PL_Sv.372
	movq	%rax, PL_Sv(%rip)	# PL_Sv.372, PL_Sv
	movq	PL_Sv(%rip), %rax	# PL_Sv, PL_Sv.374
	movl	12(%rax), %eax	# PL_Sv.374_155->sv_flags, D.23997
	andl	$131072, %eax	#, D.23997
	testl	%eax, %eax	# D.23997
	je	.L494	#,
	.loc 1 1267 0 is_stmt 0 discriminator 1
	movq	PL_Sv(%rip), %rax	# PL_Sv, PL_Sv.375
	movq	(%rax), %rax	# PL_Sv.375_158->sv_any, D.23999
	movq	32(%rax), %rax	# MEM[(struct XPVNV *)_159].xnv_nv, iftmp.373
	jmp	.L495	#
.L494:
	.loc 1 1267 0 discriminator 2
	movq	PL_Sv(%rip), %rax	# PL_Sv, PL_Sv.376
	movq	%rax, %rdi	# PL_Sv.376,
	call	Perl_sv_2nv	#
	movsd	%xmm0, -120(%rbp)	#, %sfp
	movq	-120(%rbp), %rax	# %sfp, iftmp.373
.L495:
	.loc 1 1267 0 discriminator 3
	movq	%rax, -32(%rbp)	# iftmp.373, right
	movq	%rbx, %rax	# sp, sp.377
	leaq	-8(%rax), %rbx	#, sp
	movq	(%rax), %rax	# *sp.377_164, PL_Sv.378
	movq	%rax, PL_Sv(%rip)	# PL_Sv.378, PL_Sv
	movq	PL_Sv(%rip), %rax	# PL_Sv, PL_Sv.380
	movl	12(%rax), %eax	# PL_Sv.380_167->sv_flags, D.23997
	andl	$131072, %eax	#, D.23997
	testl	%eax, %eax	# D.23997
	je	.L496	#,
	.loc 1 1267 0 discriminator 1
	movq	PL_Sv(%rip), %rax	# PL_Sv, PL_Sv.381
	movq	(%rax), %rax	# PL_Sv.381_170->sv_any, D.23999
	movq	32(%rax), %rax	# MEM[(struct XPVNV *)_171].xnv_nv, iftmp.379
	jmp	.L497	#
.L496:
	.loc 1 1267 0 discriminator 2
	movq	PL_Sv(%rip), %rax	# PL_Sv, PL_Sv.382
	movq	%rax, %rdi	# PL_Sv.382,
	call	Perl_sv_2nv	#
	movsd	%xmm0, -120(%rbp)	#, %sfp
	movq	-120(%rbp), %rax	# %sfp, iftmp.379
.L497:
	.loc 1 1267 0 discriminator 3
	movq	%rax, -24(%rbp)	# iftmp.379, left
	.loc 1 1268 0 is_stmt 1 discriminator 3
	xorpd	%xmm0, %xmm0	# tmp249
	ucomisd	-32(%rbp), %xmm0	# right, tmp249
	jp	.L498	#,
	xorpd	%xmm0, %xmm0	# tmp250
	ucomisd	-32(%rbp), %xmm0	# right, tmp250
	jne	.L498	#,
	.loc 1 1269 0
	movl	$.LC31, %edi	#,
	movl	$0, %eax	#,
	call	Perl_die	#
	jmp	.L471	#
.L498:
.LBB97:
	.loc 1 1270 0
	movsd	-24(%rbp), %xmm0	# left, tmp251
	divsd	-32(%rbp), %xmm0	# right, D.24002
	movq	-88(%rbp), %rax	# targ, tmp252
	movq	%rax, %rdi	# tmp252,
	call	Perl_sv_setnv	#
.LBB98:
	movq	-88(%rbp), %rax	# targ, tmp253
	movl	12(%rax), %eax	# targ_22->sv_flags, D.23997
	andl	$16384, %eax	#, D.23997
	testl	%eax, %eax	# D.23997
	je	.L500	#,
	.loc 1 1270 0 is_stmt 0 discriminator 1
	movq	-88(%rbp), %rax	# targ, tmp254
	movq	%rax, %rdi	# tmp254,
	call	Perl_mg_set	#
.L500:
	.loc 1 1270 0 discriminator 2
	addq	$8, %rbx	#, sp
	movq	-88(%rbp), %rax	# targ, tmp255
	movq	%rax, (%rbx)	# tmp255, *sp_180
.LBE98:
.LBE97:
	.loc 1 1271 0 is_stmt 1 discriminator 2
	movq	%rbx, PL_stack_sp(%rip)	# sp, PL_stack_sp
	movq	PL_op(%rip), %rax	# PL_op, PL_op.383
	movq	(%rax), %rax	# PL_op.383_182->op_next, D.23992
.L471:
.LBE96:
	.loc 1 1273 0
	addq	$120, %rsp	#,
	popq	%rbx	#
	popq	%rbp	#
	.cfi_def_cfa 7, 8
	ret
	.cfi_endproc
.LFE33:
	.size	Perl_pp_divide, .-Perl_pp_divide
	.section	.rodata
.LC35:
	.string	"Illegal modulus zero"
	.text
	.globl	Perl_pp_modulo
	.type	Perl_pp_modulo, @function
Perl_pp_modulo:
.LFB34:
	.loc 1 1276 0
	.cfi_startproc
	pushq	%rbp	#
	.cfi_def_cfa_offset 16
	.cfi_offset 6, -16
	movq	%rsp, %rbp	#,
	.cfi_def_cfa_register 6
	pushq	%rbx	#
	subq	$136, %rsp	#,
	.cfi_offset 3, -24
	.loc 1 1277 0
	movq	PL_stack_sp(%rip), %rbx	# PL_stack_sp, sp
	movq	PL_op(%rip), %rax	# PL_op, PL_op.385
	movzbl	36(%rax), %eax	# PL_op.385_30->op_flags, D.24006
	movzbl	%al, %eax	# D.24006, D.24007
	andl	$64, %eax	#, D.24007
	testl	%eax, %eax	# D.24007
	je	.L503	#,
	.loc 1 1277 0 is_stmt 0 discriminator 1
	movq	-8(%rbx), %rax	# MEM[(struct SV * *)sp_29 + -8B], iftmp.384
	jmp	.L504	#
.L503:
	.loc 1 1277 0 discriminator 2
	movq	PL_curpad(%rip), %rdx	# PL_curpad, PL_curpad.386
	movq	PL_op(%rip), %rax	# PL_op, PL_op.387
	movq	24(%rax), %rax	# PL_op.387_36->op_targ, D.24008
	salq	$3, %rax	#, D.24008
	addq	%rdx, %rax	# PL_curpad.386, D.24009
	movq	(%rax), %rax	# *_39, iftmp.384
.L504:
	.loc 1 1277 0 discriminator 3
	movq	%rax, -64(%rbp)	# iftmp.384, targ
	movq	PL_amagic_generation(%rip), %rax	# PL_amagic_generation, PL_amagic_generation.388
	testq	%rax, %rax	# PL_amagic_generation.388
	je	.L505	#,
.LBB99:
	.loc 1 1277 0 discriminator 1
	movq	(%rbx), %rax	# *sp_29, tmp188
	movq	%rax, -56(%rbp)	# tmp188, right
	movq	-8(%rbx), %rax	# MEM[(struct SV * *)sp_29 + -8B], tmp189
	movq	%rax, -48(%rbp)	# tmp189, left
	movq	-48(%rbp), %rax	# left, tmp190
	movl	12(%rax), %eax	# left_44->sv_flags, D.24010
	andl	$268435456, %eax	#, D.24010
	testl	%eax, %eax	# D.24010
	jne	.L506	#,
	.loc 1 1277 0 discriminator 2
	movq	-56(%rbp), %rax	# right, tmp191
	movl	12(%rax), %eax	# right_43->sv_flags, D.24010
	andl	$268435456, %eax	#, D.24010
	testl	%eax, %eax	# D.24010
	je	.L505	#,
.L506:
	.loc 1 1277 0 discriminator 1
	movq	PL_op(%rip), %rax	# PL_op, PL_op.390
	movzbl	36(%rax), %eax	# PL_op.390_49->op_flags, D.24006
	movzbl	%al, %eax	# D.24006, D.24007
	andl	$64, %eax	#, D.24007
	testl	%eax, %eax	# D.24007
	je	.L507	#,
	movl	$4, %eax	#, iftmp.389
	jmp	.L508	#
.L507:
	.loc 1 1277 0 discriminator 2
	movl	$0, %eax	#, iftmp.389
.L508:
	.loc 1 1277 0 discriminator 3
	movq	-56(%rbp), %rsi	# right, tmp192
	movq	-48(%rbp), %rdi	# left, tmp193
	movl	%eax, %ecx	# iftmp.389,
	movl	$14, %edx	#,
	call	Perl_amagic_call	#
	movq	%rax, -40(%rbp)	# tmp194, tmpsv
	cmpq	$0, -40(%rbp)	#, tmpsv
	je	.L505	#,
	.loc 1 1277 0 discriminator 1
	movq	PL_stack_sp(%rip), %rbx	# PL_stack_sp, sp
	movq	%rbx, %rax	# sp, sp.391
	leaq	-8(%rax), %rbx	#, sp
	movq	PL_op(%rip), %rax	# PL_op, PL_op.392
	movzbl	36(%rax), %eax	# PL_op.392_59->op_flags, D.24006
	movzbl	%al, %eax	# D.24006, D.24007
	andl	$64, %eax	#, D.24007
	testl	%eax, %eax	# D.24007
	jne	.L509	#,
	.loc 1 1277 0 discriminator 2
	movq	-64(%rbp), %rax	# targ, tmp195
	movl	12(%rax), %eax	# targ_41->sv_flags, D.24010
	andl	$1024, %eax	#, D.24010
	testl	%eax, %eax	# D.24010
	je	.L510	#,
.L509:
	.loc 1 1277 0 discriminator 1
	movq	-40(%rbp), %rcx	# tmpsv, tmp196
	movq	-64(%rbp), %rax	# targ, tmp197
	movl	$2, %edx	#,
	movq	%rcx, %rsi	# tmp196,
	movq	%rax, %rdi	# tmp197,
	call	Perl_sv_setsv_flags	#
.LBB100:
	movq	-64(%rbp), %rax	# targ, tmp198
	movl	12(%rax), %eax	# targ_41->sv_flags, D.24010
	andl	$16384, %eax	#, D.24010
	testl	%eax, %eax	# D.24010
	je	.L511	#,
	movq	-64(%rbp), %rax	# targ, tmp199
	movq	%rax, %rdi	# tmp199,
	call	Perl_mg_set	#
.L511:
	.loc 1 1277 0 discriminator 2
	movq	-64(%rbp), %rax	# targ, tmp200
	movq	%rax, (%rbx)	# tmp200, *sp_58
.LBE100:
	jmp	.L512	#
.L510:
	.loc 1 1277 0 discriminator 1
	movq	-40(%rbp), %rax	# tmpsv, tmp201
	movq	%rax, (%rbx)	# tmp201, *sp_58
.L512:
	movq	%rbx, PL_stack_sp(%rip)	# sp, PL_stack_sp
	movq	PL_op(%rip), %rax	# PL_op, PL_op.393
	movq	(%rax), %rax	# PL_op.393_68->op_next, D.24005
	jmp	.L513	#
.L505:
.LBE99:
.LBB101:
	.loc 1 1279 0 is_stmt 1
	movq	$0, -112(%rbp)	#, left
	.loc 1 1280 0
	movq	$0, -104(%rbp)	#, right
	.loc 1 1281 0
	movb	$0, -116(%rbp)	#, left_neg
	.loc 1 1282 0
	movb	$0, -115(%rbp)	#, right_neg
	.loc 1 1283 0
	movb	$0, -114(%rbp)	#, use_double
	.loc 1 1284 0
	movb	$0, -113(%rbp)	#, dright_valid
	.loc 1 1285 0
	movl	$0, %eax	#, tmp202
	movq	%rax, -96(%rbp)	# tmp202, dright
	.loc 1 1286 0
	movl	$0, %eax	#, tmp203
	movq	%rax, -88(%rbp)	# tmp203, dleft
	.loc 1 1288 0
	movq	(%rbx), %rax	# *sp_29, D.24011
	movl	12(%rax), %eax	# _78->sv_flags, D.24010
	andl	$16777216, %eax	#, D.24010
	testl	%eax, %eax	# D.24010
	jne	.L514	#,
	.loc 1 1288 0 is_stmt 0 discriminator 1
	movq	(%rbx), %rax	# *sp_29, D.24011
	movl	12(%rax), %eax	# _81->sv_flags, D.24010
	andl	$131072, %eax	#, D.24010
	testl	%eax, %eax	# D.24010
	jne	.L515	#,
	.loc 1 1288 0 discriminator 2
	movq	(%rbx), %rax	# *sp_29, D.24011
	movl	12(%rax), %eax	# _84->sv_flags, D.24010
	andl	$262144, %eax	#, D.24010
	testl	%eax, %eax	# D.24010
	je	.L514	#,
.L515:
	.loc 1 1288 0 discriminator 1
	movq	(%rbx), %rax	# *sp_29, D.24011
	movl	12(%rax), %eax	# _87->sv_flags, D.24010
	andl	$65536, %eax	#, D.24010
	testl	%eax, %eax	# D.24010
	jne	.L514	#,
	.loc 1 1288 0 discriminator 2
	movq	(%rbx), %rax	# *sp_29, D.24011
	movq	%rax, %rdi	# D.24011,
	call	Perl_sv_2iv	#
.L514:
	.loc 1 1289 0 is_stmt 1
	movq	(%rbx), %rax	# *sp_29, D.24011
	movl	12(%rax), %eax	# _95->sv_flags, D.24010
	andl	$65536, %eax	#, D.24010
	testl	%eax, %eax	# D.24010
	je	.L517	#,
	.loc 1 1290 0
	movq	(%rbx), %rax	# *sp_29, D.24011
	movl	12(%rax), %eax	# _98->sv_flags, D.24010
	andl	$-2147418112, %eax	#, D.24010
	cmpl	$-2147418112, %eax	#, D.24010
	setne	%al	#, D.24013
	movb	%al, -115(%rbp)	# D.24013, right_neg
	.loc 1 1291 0
	cmpb	$0, -115(%rbp)	#, right_neg
	jne	.L518	#,
	.loc 1 1292 0
	movq	%rbx, %rax	# sp, sp.395
	leaq	-8(%rax), %rbx	#, sp
	movq	(%rax), %rax	# *sp.395_103, D.24011
	movq	(%rax), %rax	# _105->sv_any, D.24012
	movq	24(%rax), %rax	# MEM[(struct XPVUV *)_106].xuv_uv, tmp204
	movq	%rax, -104(%rbp)	# tmp204, right
	jmp	.L521	#
.L518:
.LBB102:
	.loc 1 1294 0
	movq	%rbx, %rax	# sp, sp.396
	leaq	-8(%rax), %rbx	#, sp
	movq	(%rax), %rax	# *sp.396_108, D.24011
	movq	(%rax), %rax	# _110->sv_any, D.24012
	movq	24(%rax), %rax	# MEM[(struct XPVIV *)_111].xiv_iv, tmp205
	movq	%rax, -32(%rbp)	# tmp205, biv
	.loc 1 1295 0
	cmpq	$0, -32(%rbp)	#, biv
	js	.L520	#,
	.loc 1 1296 0
	movq	-32(%rbp), %rax	# biv, tmp206
	movq	%rax, -104(%rbp)	# tmp206, right
	.loc 1 1297 0
	movb	$0, -115(%rbp)	#, right_neg
	jmp	.L521	#
.L520:
	.loc 1 1299 0
	movq	-32(%rbp), %rax	# biv, tmp207
	negq	%rax	# D.24014
	movq	%rax, -104(%rbp)	# D.24014, right
.LBE102:
	jmp	.L521	#
.L517:
	.loc 1 1304 0
	movq	%rbx, %rax	# sp, sp.397
	leaq	-8(%rax), %rbx	#, sp
	movq	(%rax), %rax	# *sp.397_117, PL_Sv.398
	movq	%rax, PL_Sv(%rip)	# PL_Sv.398, PL_Sv
	movq	PL_Sv(%rip), %rax	# PL_Sv, PL_Sv.400
	movl	12(%rax), %eax	# PL_Sv.400_120->sv_flags, D.24010
	andl	$131072, %eax	#, D.24010
	testl	%eax, %eax	# D.24010
	je	.L522	#,
	.loc 1 1304 0 is_stmt 0 discriminator 1
	movq	PL_Sv(%rip), %rax	# PL_Sv, PL_Sv.401
	movq	(%rax), %rax	# PL_Sv.401_123->sv_any, D.24012
	movq	32(%rax), %rax	# MEM[(struct XPVNV *)_124].xnv_nv, iftmp.399
	jmp	.L523	#
.L522:
	.loc 1 1304 0 discriminator 2
	movq	PL_Sv(%rip), %rax	# PL_Sv, PL_Sv.402
	movq	%rax, %rdi	# PL_Sv.402,
	call	Perl_sv_2nv	#
	movsd	%xmm0, -136(%rbp)	#, %sfp
	movq	-136(%rbp), %rax	# %sfp, iftmp.399
.L523:
	.loc 1 1304 0 discriminator 3
	movq	%rax, -96(%rbp)	# iftmp.399, dright
	.loc 1 1305 0 is_stmt 1 discriminator 3
	xorpd	%xmm0, %xmm0	# tmp208
	ucomisd	-96(%rbp), %xmm0	# dright, tmp208
	seta	%al	#, D.24013
	movb	%al, -115(%rbp)	# D.24013, right_neg
	.loc 1 1306 0 discriminator 3
	cmpb	$0, -115(%rbp)	#, right_neg
	je	.L524	#,
	.loc 1 1307 0
	movsd	-96(%rbp), %xmm1	# dright, tmp210
	movsd	.LC30(%rip), %xmm0	#, tmp211
	xorpd	%xmm1, %xmm0	# tmp210, tmp209
	movsd	%xmm0, -96(%rbp)	# tmp209, dright
.L524:
	.loc 1 1308 0
	movsd	.LC33(%rip), %xmm0	#, tmp212
	ucomisd	-96(%rbp), %xmm0	# dright, tmp212
	jbe	.L562	#,
	.loc 1 1309 0
	movq	-96(%rbp), %rax	# dright, tmp213
	movq	%rax, -136(%rbp)	# tmp213, %sfp
	movsd	-136(%rbp), %xmm0	# %sfp,
	call	Perl_cast_uv	#
	movq	%rax, -104(%rbp)	# tmp214, right
	.loc 1 1310 0
	movb	$1, -113(%rbp)	#, dright_valid
	jmp	.L521	#
.L562:
	.loc 1 1312 0
	movb	$1, -114(%rbp)	#, use_double
.L521:
	.loc 1 1319 0
	movq	(%rbx), %rax	# *sp_2, D.24011
	movl	12(%rax), %eax	# _135->sv_flags, D.24010
	andl	$16777216, %eax	#, D.24010
	testl	%eax, %eax	# D.24010
	jne	.L527	#,
	.loc 1 1319 0 is_stmt 0 discriminator 1
	movq	(%rbx), %rax	# *sp_2, D.24011
	movl	12(%rax), %eax	# _138->sv_flags, D.24010
	andl	$131072, %eax	#, D.24010
	testl	%eax, %eax	# D.24010
	jne	.L528	#,
	.loc 1 1319 0 discriminator 2
	movq	(%rbx), %rax	# *sp_2, D.24011
	movl	12(%rax), %eax	# _141->sv_flags, D.24010
	andl	$262144, %eax	#, D.24010
	testl	%eax, %eax	# D.24010
	je	.L527	#,
.L528:
	.loc 1 1319 0 discriminator 1
	movq	(%rbx), %rax	# *sp_2, D.24011
	movl	12(%rax), %eax	# _144->sv_flags, D.24010
	andl	$65536, %eax	#, D.24010
	testl	%eax, %eax	# D.24010
	jne	.L527	#,
	.loc 1 1319 0 discriminator 2
	movq	(%rbx), %rax	# *sp_2, D.24011
	movq	%rax, %rdi	# D.24011,
	call	Perl_sv_2iv	#
.L527:
	.loc 1 1320 0 is_stmt 1
	cmpb	$0, -114(%rbp)	#, use_double
	jne	.L530	#,
	.loc 1 1320 0 is_stmt 0 discriminator 1
	movq	(%rbx), %rax	# *sp_2, D.24011
	movl	12(%rax), %eax	# _152->sv_flags, D.24010
	andl	$65536, %eax	#, D.24010
	testl	%eax, %eax	# D.24010
	je	.L530	#,
	.loc 1 1321 0 is_stmt 1
	movq	(%rbx), %rax	# *sp_2, D.24011
	movl	12(%rax), %eax	# _155->sv_flags, D.24010
	andl	$65536, %eax	#, D.24010
	testl	%eax, %eax	# D.24010
	je	.L531	#,
	.loc 1 1322 0
	movq	(%rbx), %rax	# *sp_2, D.24011
	movl	12(%rax), %eax	# _158->sv_flags, D.24010
	andl	$-2147418112, %eax	#, D.24010
	cmpl	$-2147418112, %eax	#, D.24010
	setne	%al	#, D.24013
	movb	%al, -116(%rbp)	# D.24013, left_neg
	.loc 1 1323 0
	cmpb	$0, -116(%rbp)	#, left_neg
	jne	.L532	#,
	.loc 1 1324 0
	movq	%rbx, %rax	# sp, sp.404
	leaq	-8(%rax), %rbx	#, sp
	movq	(%rax), %rax	# *sp.404_163, D.24011
	movq	(%rax), %rax	# _165->sv_any, D.24012
	movq	24(%rax), %rax	# MEM[(struct XPVUV *)_166].xuv_uv, tmp215
	movq	%rax, -112(%rbp)	# tmp215, left
	jmp	.L531	#
.L532:
.LBB103:
	.loc 1 1326 0
	movq	%rbx, %rax	# sp, sp.405
	leaq	-8(%rax), %rbx	#, sp
	movq	(%rax), %rax	# *sp.405_168, D.24011
	movq	(%rax), %rax	# _170->sv_any, D.24012
	movq	24(%rax), %rax	# MEM[(struct XPVIV *)_171].xiv_iv, tmp216
	movq	%rax, -24(%rbp)	# tmp216, aiv
	.loc 1 1327 0
	cmpq	$0, -24(%rbp)	#, aiv
	js	.L533	#,
	.loc 1 1328 0
	movq	-24(%rbp), %rax	# aiv, tmp217
	movq	%rax, -112(%rbp)	# tmp217, left
	.loc 1 1329 0
	movb	$0, -116(%rbp)	#, left_neg
	jmp	.L531	#
.L533:
	.loc 1 1331 0
	movq	-24(%rbp), %rax	# aiv, tmp218
	negq	%rax	# D.24014
	movq	%rax, -112(%rbp)	# D.24014, left
.LBE103:
	.loc 1 1321 0
	jmp	.L534	#
.L531:
	.loc 1 1321 0 is_stmt 0 discriminator 1
	jmp	.L534	#
.L530:
	.loc 1 1337 0 is_stmt 1
	movq	%rbx, %rax	# sp, sp.406
	leaq	-8(%rax), %rbx	#, sp
	movq	(%rax), %rax	# *sp.406_177, PL_Sv.407
	movq	%rax, PL_Sv(%rip)	# PL_Sv.407, PL_Sv
	movq	PL_Sv(%rip), %rax	# PL_Sv, PL_Sv.409
	movl	12(%rax), %eax	# PL_Sv.409_180->sv_flags, D.24010
	andl	$131072, %eax	#, D.24010
	testl	%eax, %eax	# D.24010
	je	.L535	#,
	.loc 1 1337 0 is_stmt 0 discriminator 1
	movq	PL_Sv(%rip), %rax	# PL_Sv, PL_Sv.410
	movq	(%rax), %rax	# PL_Sv.410_183->sv_any, D.24012
	movq	32(%rax), %rax	# MEM[(struct XPVNV *)_184].xnv_nv, iftmp.408
	jmp	.L536	#
.L535:
	.loc 1 1337 0 discriminator 2
	movq	PL_Sv(%rip), %rax	# PL_Sv, PL_Sv.411
	movq	%rax, %rdi	# PL_Sv.411,
	call	Perl_sv_2nv	#
	movsd	%xmm0, -136(%rbp)	#, %sfp
	movq	-136(%rbp), %rax	# %sfp, iftmp.408
.L536:
	.loc 1 1337 0 discriminator 3
	movq	%rax, -88(%rbp)	# iftmp.408, dleft
	.loc 1 1338 0 is_stmt 1 discriminator 3
	xorpd	%xmm0, %xmm0	# tmp219
	ucomisd	-88(%rbp), %xmm0	# dleft, tmp219
	seta	%al	#, D.24013
	movb	%al, -116(%rbp)	# D.24013, left_neg
	.loc 1 1339 0 discriminator 3
	cmpb	$0, -116(%rbp)	#, left_neg
	je	.L537	#,
	.loc 1 1340 0
	movsd	-88(%rbp), %xmm1	# dleft, tmp221
	movsd	.LC30(%rip), %xmm0	#, tmp222
	xorpd	%xmm1, %xmm0	# tmp221, tmp220
	movsd	%xmm0, -88(%rbp)	# tmp220, dleft
.L537:
	.loc 1 1344 0
	cmpb	$0, -114(%rbp)	#, use_double
	jne	.L534	#,
	.loc 1 1345 0
	movsd	.LC33(%rip), %xmm0	#, tmp223
	ucomisd	-88(%rbp), %xmm0	# dleft, tmp223
	jbe	.L563	#,
	.loc 1 1348 0
	movq	-88(%rbp), %rax	# dleft, tmp224
	movq	%rax, -136(%rbp)	# tmp224, %sfp
	movsd	-136(%rbp), %xmm0	# %sfp,
	call	Perl_cast_uv	#
	movq	%rax, -112(%rbp)	# tmp225, left
	jmp	.L534	#
.L563:
	.loc 1 1356 0
	movsd	-88(%rbp), %xmm1	# dleft, tmp226
	movsd	.LC34(%rip), %xmm0	#, tmp227
	addsd	%xmm1, %xmm0	# tmp226, D.24015
	call	floor	#
	movsd	%xmm0, -136(%rbp)	#, %sfp
	movq	-136(%rbp), %rax	# %sfp, tmp228
	movq	%rax, -88(%rbp)	# tmp228, dleft
	.loc 1 1357 0
	movb	$1, -114(%rbp)	#, use_double
	.loc 1 1358 0
	cmpb	$0, -113(%rbp)	#, dright_valid
	je	.L540	#,
	.loc 1 1359 0
	movsd	-96(%rbp), %xmm1	# dright, tmp229
	movsd	.LC34(%rip), %xmm0	#, tmp230
	addsd	%xmm1, %xmm0	# tmp229, D.24015
	call	floor	#
	movsd	%xmm0, -136(%rbp)	#, %sfp
	movq	-136(%rbp), %rax	# %sfp, tmp231
	movq	%rax, -96(%rbp)	# tmp231, dright
	jmp	.L534	#
.L540:
	.loc 1 1361 0
	movq	-104(%rbp), %rax	# right, tmp233
	testq	%rax, %rax	# tmp233
	js	.L541	#,
	cvtsi2sdq	%rax, %xmm0	# tmp233, tmp232
	jmp	.L542	#
.L541:
	movq	%rax, %rdx	# tmp233, tmp235
	shrq	%rdx	# tmp235
	andl	$1, %eax	#, tmp236
	orq	%rax, %rdx	# tmp236, tmp235
	cvtsi2sdq	%rdx, %xmm0	# tmp235, tmp234
	addsd	%xmm0, %xmm0	# tmp234, tmp232
.L542:
	movsd	%xmm0, -96(%rbp)	# tmp232, dright
.L534:
	.loc 1 1365 0
	cmpb	$0, -114(%rbp)	#, use_double
	je	.L543	#,
.LBB104:
	.loc 1 1368 0
	xorpd	%xmm0, %xmm0	# tmp237
	ucomisd	-96(%rbp), %xmm0	# dright, tmp237
	jp	.L544	#,
	xorpd	%xmm0, %xmm0	# tmp238
	ucomisd	-96(%rbp), %xmm0	# dright, tmp238
	jne	.L544	#,
	.loc 1 1369 0
	movl	$.LC35, %edi	#,
	movl	$0, %eax	#,
	call	Perl_die	#
	jmp	.L513	#
.L544:
	.loc 1 1371 0
	movq	-96(%rbp), %rdx	# dright, tmp239
	movq	-88(%rbp), %rax	# dleft, tmp240
	movq	%rdx, -136(%rbp)	# tmp239, %sfp
	movsd	-136(%rbp), %xmm1	# %sfp,
	movq	%rax, -136(%rbp)	# tmp240, %sfp
	movsd	-136(%rbp), %xmm0	# %sfp,
	call	fmod	#
	movsd	%xmm0, -136(%rbp)	#, %sfp
	movq	-136(%rbp), %rax	# %sfp, tmp241
	movq	%rax, -80(%rbp)	# tmp241, dans
	.loc 1 1372 0
	movzbl	-116(%rbp), %eax	# left_neg, tmp242
	cmpb	-115(%rbp), %al	# right_neg, tmp242
	je	.L546	#,
	.loc 1 1372 0 is_stmt 0 discriminator 1
	xorpd	%xmm0, %xmm0	# tmp243
	ucomisd	-80(%rbp), %xmm0	# dans, tmp243
	jp	.L561	#,
	xorpd	%xmm0, %xmm0	# tmp244
	ucomisd	-80(%rbp), %xmm0	# dans, tmp244
	je	.L546	#,
.L561:
	.loc 1 1373 0 is_stmt 1
	movsd	-96(%rbp), %xmm0	# dright, tmp246
	subsd	-80(%rbp), %xmm0	# dans, tmp245
	movsd	%xmm0, -80(%rbp)	# tmp245, dans
.L546:
	.loc 1 1374 0
	cmpb	$0, -115(%rbp)	#, right_neg
	je	.L548	#,
	.loc 1 1375 0
	movsd	-80(%rbp), %xmm1	# dans, tmp248
	movsd	.LC30(%rip), %xmm0	#, tmp249
	xorpd	%xmm1, %xmm0	# tmp248, tmp247
	movsd	%xmm0, -80(%rbp)	# tmp247, dans
.L548:
	.loc 1 1376 0
	movq	-80(%rbp), %rax	# dans, tmp250
	movq	-64(%rbp), %rdx	# targ, tmp251
	movq	%rax, -136(%rbp)	# tmp250, %sfp
	movsd	-136(%rbp), %xmm0	# %sfp,
	movq	%rdx, %rdi	# tmp251,
	call	Perl_sv_setnv	#
.LBE104:
	jmp	.L549	#
.L543:
.LBB105:
	.loc 1 1381 0
	cmpq	$0, -104(%rbp)	#, right
	jne	.L550	#,
	.loc 1 1382 0
	movl	$.LC35, %edi	#,
	movl	$0, %eax	#,
	call	Perl_die	#
	jmp	.L513	#
.L550:
	.loc 1 1384 0
	movq	-112(%rbp), %rax	# left, tmp253
	movl	$0, %edx	#, tmp254
	divq	-104(%rbp)	# right
	movq	%rdx, -72(%rbp)	# tmp254, ans
	.loc 1 1385 0
	movzbl	-116(%rbp), %eax	# left_neg, tmp256
	cmpb	-115(%rbp), %al	# right_neg, tmp256
	je	.L551	#,
	.loc 1 1385 0 is_stmt 0 discriminator 1
	cmpq	$0, -72(%rbp)	#, ans
	je	.L551	#,
	.loc 1 1386 0 is_stmt 1
	movq	-72(%rbp), %rax	# ans, tmp261
	movq	-104(%rbp), %rdx	# right, tmp262
	subq	%rax, %rdx	# tmp261, tmp260
	movq	%rdx, %rax	# tmp260, tmp260
	movq	%rax, -72(%rbp)	# tmp260, ans
.L551:
	.loc 1 1387 0
	cmpb	$0, -115(%rbp)	#, right_neg
	je	.L552	#,
	.loc 1 1390 0
	movabsq	$-9223372036854775807, %rax	#, tmp263
	cmpq	%rax, -72(%rbp)	# tmp263, ans
	ja	.L553	#,
	.loc 1 1391 0
	movq	-72(%rbp), %rax	# ans, tmp264
	negq	%rax	# D.24008
	movq	%rax, %rdx	# D.24008, D.24014
	movq	-64(%rbp), %rax	# targ, tmp265
	movq	%rdx, %rsi	# D.24014,
	movq	%rax, %rdi	# tmp265,
	call	Perl_sv_setiv	#
	jmp	.L549	#
.L553:
	.loc 1 1393 0
	movq	-72(%rbp), %rax	# ans, tmp266
	testq	%rax, %rax	# tmp266
	js	.L555	#,
	cvtsi2sdq	%rax, %xmm0	# tmp266, D.24015
	jmp	.L556	#
.L555:
	movq	%rax, %rdx	# tmp266, tmp268
	shrq	%rdx	# tmp268
	andl	$1, %eax	#, tmp269
	orq	%rax, %rdx	# tmp269, tmp268
	cvtsi2sdq	%rdx, %xmm0	# tmp268, tmp267
	addsd	%xmm0, %xmm0	# tmp267, D.24015
.L556:
	movsd	.LC30(%rip), %xmm1	#, tmp270
	xorpd	%xmm1, %xmm0	# tmp270, D.24015
	movq	-64(%rbp), %rax	# targ, tmp271
	movq	%rax, %rdi	# tmp271,
	call	Perl_sv_setnv	#
	jmp	.L549	#
.L552:
	.loc 1 1396 0
	movq	-72(%rbp), %rdx	# ans, tmp272
	movq	-64(%rbp), %rax	# targ, tmp273
	movq	%rdx, %rsi	# tmp272,
	movq	%rax, %rdi	# tmp273,
	call	Perl_sv_setuv	#
.L549:
.LBE105:
.LBB106:
	.loc 1 1398 0
	movq	-64(%rbp), %rax	# targ, tmp274
	movl	12(%rax), %eax	# targ_41->sv_flags, D.24010
	andl	$16384, %eax	#, D.24010
	testl	%eax, %eax	# D.24010
	je	.L557	#,
	.loc 1 1398 0 is_stmt 0 discriminator 1
	movq	-64(%rbp), %rax	# targ, tmp275
	movq	%rax, %rdi	# tmp275,
	call	Perl_mg_set	#
.L557:
	.loc 1 1398 0 discriminator 2
	addq	$8, %rbx	#, sp
	movq	-64(%rbp), %rax	# targ, tmp276
	movq	%rax, (%rbx)	# tmp276, *sp_212
.LBE106:
	.loc 1 1399 0 is_stmt 1 discriminator 2
	movq	%rbx, PL_stack_sp(%rip)	# sp, PL_stack_sp
	movq	PL_op(%rip), %rax	# PL_op, PL_op.412
	movq	(%rax), %rax	# PL_op.412_214->op_next, D.24005
.L513:
.LBE101:
	.loc 1 1401 0
	addq	$136, %rsp	#,
	popq	%rbx	#
	popq	%rbp	#
	.cfi_def_cfa 7, 8
	ret
	.cfi_endproc
.LFE34:
	.size	Perl_pp_modulo, .-Perl_pp_modulo
	.globl	Perl_pp_repeat
	.type	Perl_pp_repeat, @function
Perl_pp_repeat:
.LFB35:
	.loc 1 1404 0
	.cfi_startproc
	pushq	%rbp	#
	.cfi_def_cfa_offset 16
	.cfi_offset 6, -16
	movq	%rsp, %rbp	#,
	.cfi_def_cfa_register 6
	pushq	%r13	#
	pushq	%r12	#
	pushq	%rbx	#
	subq	$136, %rsp	#,
	.cfi_offset 13, -24
	.cfi_offset 12, -32
	.cfi_offset 3, -40
	.loc 1 1405 0
	movq	PL_stack_sp(%rip), %rbx	# PL_stack_sp, sp
	movq	PL_op(%rip), %rax	# PL_op, PL_op.414
	movzbl	36(%rax), %eax	# PL_op.414_20->op_flags, D.24019
	movzbl	%al, %eax	# D.24019, D.24020
	andl	$64, %eax	#, D.24020
	testl	%eax, %eax	# D.24020
	je	.L565	#,
	.loc 1 1405 0 is_stmt 0 discriminator 1
	movq	-8(%rbx), %rax	# MEM[(struct SV * *)sp_19 + -8B], iftmp.413
	jmp	.L566	#
.L565:
	.loc 1 1405 0 discriminator 2
	movq	PL_curpad(%rip), %rdx	# PL_curpad, PL_curpad.415
	movq	PL_op(%rip), %rax	# PL_op, PL_op.416
	movq	24(%rax), %rax	# PL_op.416_26->op_targ, D.24021
	salq	$3, %rax	#, D.24021
	addq	%rdx, %rax	# PL_curpad.415, D.24022
	movq	(%rax), %rax	# *_29, iftmp.413
.L566:
	.loc 1 1405 0 discriminator 3
	movq	%rax, -112(%rbp)	# iftmp.413, targ
	movq	PL_amagic_generation(%rip), %rax	# PL_amagic_generation, PL_amagic_generation.417
	testq	%rax, %rax	# PL_amagic_generation.417
	je	.L567	#,
.LBB107:
	.loc 1 1405 0 discriminator 1
	movq	(%rbx), %rax	# *sp_19, tmp258
	movq	%rax, -104(%rbp)	# tmp258, right
	movq	-8(%rbx), %rax	# MEM[(struct SV * *)sp_19 + -8B], tmp259
	movq	%rax, -96(%rbp)	# tmp259, left
	movq	-96(%rbp), %rax	# left, tmp260
	movl	12(%rax), %eax	# left_34->sv_flags, D.24023
	andl	$268435456, %eax	#, D.24023
	testl	%eax, %eax	# D.24023
	jne	.L568	#,
	.loc 1 1405 0 discriminator 2
	movq	-104(%rbp), %rax	# right, tmp261
	movl	12(%rax), %eax	# right_33->sv_flags, D.24023
	andl	$268435456, %eax	#, D.24023
	testl	%eax, %eax	# D.24023
	je	.L567	#,
.L568:
	.loc 1 1405 0 discriminator 1
	movq	PL_op(%rip), %rax	# PL_op, PL_op.419
	movzbl	36(%rax), %eax	# PL_op.419_39->op_flags, D.24019
	movzbl	%al, %eax	# D.24019, D.24020
	andl	$64, %eax	#, D.24020
	testl	%eax, %eax	# D.24020
	je	.L569	#,
	movl	$4, %eax	#, iftmp.418
	jmp	.L570	#
.L569:
	.loc 1 1405 0 discriminator 2
	movl	$0, %eax	#, iftmp.418
.L570:
	.loc 1 1405 0 discriminator 3
	movq	-104(%rbp), %rsi	# right, tmp262
	movq	-96(%rbp), %rdi	# left, tmp263
	movl	%eax, %ecx	# iftmp.418,
	movl	$52, %edx	#,
	call	Perl_amagic_call	#
	movq	%rax, -88(%rbp)	# tmp264, tmpsv
	cmpq	$0, -88(%rbp)	#, tmpsv
	je	.L567	#,
	.loc 1 1405 0 discriminator 1
	movq	PL_stack_sp(%rip), %rbx	# PL_stack_sp, sp
	movq	%rbx, %rax	# sp, sp.420
	leaq	-8(%rax), %rbx	#, sp
	movq	PL_op(%rip), %rax	# PL_op, PL_op.421
	movzbl	36(%rax), %eax	# PL_op.421_49->op_flags, D.24019
	movzbl	%al, %eax	# D.24019, D.24020
	andl	$64, %eax	#, D.24020
	testl	%eax, %eax	# D.24020
	jne	.L571	#,
	.loc 1 1405 0 discriminator 2
	movq	-112(%rbp), %rax	# targ, tmp265
	movl	12(%rax), %eax	# targ_31->sv_flags, D.24023
	andl	$1024, %eax	#, D.24023
	testl	%eax, %eax	# D.24023
	je	.L572	#,
.L571:
	.loc 1 1405 0 discriminator 1
	movq	-88(%rbp), %rcx	# tmpsv, tmp266
	movq	-112(%rbp), %rax	# targ, tmp267
	movl	$2, %edx	#,
	movq	%rcx, %rsi	# tmp266,
	movq	%rax, %rdi	# tmp267,
	call	Perl_sv_setsv_flags	#
.LBB108:
	movq	-112(%rbp), %rax	# targ, tmp268
	movl	12(%rax), %eax	# targ_31->sv_flags, D.24023
	andl	$16384, %eax	#, D.24023
	testl	%eax, %eax	# D.24023
	je	.L573	#,
	movq	-112(%rbp), %rax	# targ, tmp269
	movq	%rax, %rdi	# tmp269,
	call	Perl_mg_set	#
.L573:
	.loc 1 1405 0 discriminator 2
	movq	-112(%rbp), %rax	# targ, tmp270
	movq	%rax, (%rbx)	# tmp270, *sp_48
.LBE108:
	jmp	.L574	#
.L572:
	.loc 1 1405 0 discriminator 1
	movq	-88(%rbp), %rax	# tmpsv, tmp271
	movq	%rax, (%rbx)	# tmp271, *sp_48
.L574:
	movq	%rbx, PL_stack_sp(%rip)	# sp, PL_stack_sp
	movq	PL_op(%rip), %rax	# PL_op, PL_op.422
	movq	(%rax), %rax	# PL_op.422_58->op_next, D.24018
	jmp	.L575	#
.L567:
.LBE107:
.LBB109:
	.loc 1 1408 0 is_stmt 1
	movq	%rbx, %rax	# sp, sp.423
	leaq	-8(%rax), %rbx	#, sp
	movq	(%rax), %rax	# *sp.423_60, tmp272
	movq	%rax, -80(%rbp)	# tmp272, sv
	.loc 1 1409 0
	movq	-80(%rbp), %rax	# sv, tmp273
	movl	12(%rax), %eax	# sv_62->sv_flags, D.24023
	andl	$8192, %eax	#, D.24023
	testl	%eax, %eax	# D.24023
	je	.L576	#,
	.loc 1 1410 0
	movq	-80(%rbp), %rax	# sv, tmp274
	movq	%rax, %rdi	# tmp274,
	call	Perl_mg_get	#
.L576:
	.loc 1 1411 0
	movq	-80(%rbp), %rax	# sv, tmp275
	movl	12(%rax), %eax	# sv_62->sv_flags, D.24023
	andl	$16777216, %eax	#, D.24023
	testl	%eax, %eax	# D.24023
	je	.L577	#,
	.loc 1 1412 0
	movq	-80(%rbp), %rax	# sv, tmp276
	movl	12(%rax), %eax	# sv_62->sv_flags, D.24023
	andl	$-2147418112, %eax	#, D.24023
	cmpl	$-2147418112, %eax	#, D.24023
	jne	.L578	#,
.LBB110:
	.loc 1 1413 0
	movq	-80(%rbp), %rax	# sv, tmp277
	movl	12(%rax), %eax	# sv_62->sv_flags, D.24023
	andl	$65536, %eax	#, D.24023
	testl	%eax, %eax	# D.24023
	je	.L579	#,
	.loc 1 1413 0 is_stmt 0 discriminator 1
	movq	-80(%rbp), %rax	# sv, tmp278
	movq	(%rax), %rax	# sv_62->sv_any, D.24025
	movq	24(%rax), %rax	# MEM[(struct XPVUV *)_71].xuv_uv, iftmp.424
	jmp	.L580	#
.L579:
	.loc 1 1413 0 discriminator 2
	movq	-80(%rbp), %rax	# sv, tmp279
	movq	%rax, %rdi	# tmp279,
	call	Perl_sv_2uv	#
.L580:
	.loc 1 1413 0 discriminator 3
	movq	%rax, -72(%rbp)	# iftmp.424, uv
	.loc 1 1414 0 is_stmt 1 discriminator 3
	movq	-72(%rbp), %rax	# uv, uv.425
	testq	%rax, %rax	# uv.425
	jns	.L581	#,
	.loc 1 1415 0
	movabsq	$9223372036854775807, %r12	#, count
	jmp	.L587	#
.L581:
	.loc 1 1417 0
	movq	-72(%rbp), %r12	# uv, count
.LBE110:
	jmp	.L587	#
.L578:
.LBB111:
	.loc 1 1419 0
	movq	-80(%rbp), %rax	# sv, tmp280
	movl	12(%rax), %eax	# sv_62->sv_flags, D.24023
	andl	$65536, %eax	#, D.24023
	testl	%eax, %eax	# D.24023
	je	.L584	#,
	.loc 1 1419 0 is_stmt 0 discriminator 1
	movq	-80(%rbp), %rax	# sv, tmp281
	movq	(%rax), %rax	# sv_62->sv_any, D.24025
	movq	24(%rax), %rax	# MEM[(struct XPVIV *)_80].xiv_iv, iftmp.426
	jmp	.L585	#
.L584:
	.loc 1 1419 0 discriminator 2
	movq	-80(%rbp), %rax	# sv, tmp282
	movq	%rax, %rdi	# tmp282,
	call	Perl_sv_2iv	#
.L585:
	.loc 1 1419 0 discriminator 3
	movq	%rax, -64(%rbp)	# iftmp.426, iv
	.loc 1 1420 0 is_stmt 1 discriminator 3
	cmpq	$0, -64(%rbp)	#, iv
	jns	.L586	#,
	.loc 1 1421 0
	movl	$0, %r12d	#, count
	jmp	.L587	#
.L586:
	.loc 1 1423 0
	movq	-64(%rbp), %r12	# iv, count
.LBE111:
	jmp	.L587	#
.L577:
	.loc 1 1426 0
	movq	-80(%rbp), %rax	# sv, tmp283
	movl	12(%rax), %eax	# sv_62->sv_flags, D.24023
	andl	$33554432, %eax	#, D.24023
	testl	%eax, %eax	# D.24023
	je	.L588	#,
.LBB112:
	.loc 1 1427 0
	movq	-80(%rbp), %rax	# sv, tmp284
	movl	12(%rax), %eax	# sv_62->sv_flags, D.24023
	andl	$131072, %eax	#, D.24023
	testl	%eax, %eax	# D.24023
	je	.L589	#,
	.loc 1 1427 0 is_stmt 0 discriminator 1
	movq	-80(%rbp), %rax	# sv, tmp285
	movq	(%rax), %rax	# sv_62->sv_any, D.24025
	movq	32(%rax), %rax	# MEM[(struct XPVNV *)_90].xnv_nv, iftmp.427
	jmp	.L590	#
.L589:
	.loc 1 1427 0 discriminator 2
	movq	-80(%rbp), %rax	# sv, tmp286
	movq	%rax, %rdi	# tmp286,
	call	Perl_sv_2nv	#
	movsd	%xmm0, -152(%rbp)	#, %sfp
	movq	-152(%rbp), %rax	# %sfp, iftmp.427
.L590:
	.loc 1 1427 0 discriminator 3
	movq	%rax, -56(%rbp)	# iftmp.427, nv
	.loc 1 1428 0 is_stmt 1 discriminator 3
	xorpd	%xmm0, %xmm0	# tmp287
	ucomisd	-56(%rbp), %xmm0	# nv, tmp287
	jbe	.L624	#,
	.loc 1 1429 0
	movl	$0, %r12d	#, count
	jmp	.L587	#
.L624:
	.loc 1 1431 0
	movsd	-56(%rbp), %xmm0	# nv, tmp288
	cvttsd2siq	%xmm0, %r12	# tmp288, count
.LBE112:
	jmp	.L587	#
.L588:
	.loc 1 1434 0
	movq	-80(%rbp), %rax	# sv, tmp289
	movq	%rax, PL_Sv(%rip)	# tmp289, PL_Sv
	movq	PL_Sv(%rip), %rax	# PL_Sv, PL_Sv.429
	movl	12(%rax), %eax	# PL_Sv.429_96->sv_flags, D.24023
	andl	$65536, %eax	#, D.24023
	testl	%eax, %eax	# D.24023
	je	.L594	#,
	.loc 1 1434 0 is_stmt 0 discriminator 1
	movq	PL_Sv(%rip), %rax	# PL_Sv, PL_Sv.430
	movq	(%rax), %rax	# PL_Sv.430_99->sv_any, D.24025
	movq	24(%rax), %rax	# MEM[(struct XPVIV *)_100].xiv_iv, iftmp.428
	jmp	.L595	#
.L594:
	.loc 1 1434 0 discriminator 2
	movq	PL_Sv(%rip), %rax	# PL_Sv, PL_Sv.431
	movq	%rax, %rdi	# PL_Sv.431,
	call	Perl_sv_2iv	#
.L595:
	.loc 1 1434 0 discriminator 3
	movq	%rax, %r12	# iftmp.428, count
.L587:
	.loc 1 1435 0 is_stmt 1
	movq	PL_op(%rip), %rax	# PL_op, PL_op.432
	movzbl	36(%rax), %eax	# PL_op.432_105->op_flags, D.24019
	movzbl	%al, %eax	# D.24019, D.24020
	andl	$3, %eax	#, D.24020
	testl	%eax, %eax	# D.24020
	je	.L596	#,
	.loc 1 1435 0 is_stmt 0 discriminator 1
	movq	PL_op(%rip), %rax	# PL_op, PL_op.433
	movzbl	36(%rax), %eax	# PL_op.433_109->op_flags, D.24019
	movzbl	%al, %eax	# D.24019, D.24020
	andl	$3, %eax	#, D.24020
	cmpl	$3, %eax	#, D.24020
	je	.L597	#,
	jmp	.L598	#
.L596:
	.loc 1 1435 0 discriminator 2
	call	Perl_dowantarray	#
	cmpl	$1, %eax	#, D.24020
	jne	.L598	#,
.L597:
	.loc 1 1435 0 discriminator 1
	movq	PL_op(%rip), %rax	# PL_op, PL_op.434
	movzbl	37(%rax), %eax	# PL_op.434_114->op_private, D.24019
	movzbl	%al, %eax	# D.24019, D.24020
	andl	$64, %eax	#, D.24020
	testl	%eax, %eax	# D.24020
	je	.L598	#,
.LBB113:
	.loc 1 1436 0 is_stmt 1
	movq	PL_stack_base(%rip), %rcx	# PL_stack_base, PL_stack_base.435
	movq	PL_markstack_ptr(%rip), %rax	# PL_markstack_ptr, PL_markstack_ptr.436
	leaq	-4(%rax), %rdx	#, PL_markstack_ptr.438
	movq	%rdx, PL_markstack_ptr(%rip)	# PL_markstack_ptr.438, PL_markstack_ptr
	movl	(%rax), %eax	# *PL_markstack_ptr.437_120, D.24020
	cltq
	salq	$3, %rax	#, D.24021
	leaq	(%rcx,%rax), %r13	#, mark
	.loc 1 1437 0
	movq	%rbx, %rdx	# sp, sp.439
	movq	%r13, %rax	# mark, mark.440
	subq	%rax, %rdx	# mark.440, D.24026
	movq	%rdx, %rax	# D.24026, D.24026
	sarq	$3, %rax	#, tmp290
	movl	%eax, -132(%rbp)	# D.24026, items
	.loc 1 1442 0
	movl	%r12d, %edx	# count, D.24027
	movl	-132(%rbp), %eax	# items, items.441
	imull	%edx, %eax	# D.24027, D.24027
	movl	%eax, -128(%rbp)	# D.24027, max
	.loc 1 1445 0
	cmpl	$0, -132(%rbp)	#, items
	jle	.L599	#,
	.loc 1 1445 0 is_stmt 0 discriminator 1
	cmpl	$0, -128(%rbp)	#, max
	jle	.L599	#,
	movl	-128(%rbp), %eax	# max, tmp291
	cmpl	-132(%rbp), %eax	# items, tmp291
	jl	.L600	#,
	movl	-128(%rbp), %eax	# max, tmp292
	cltq
	cmpq	%r12, %rax	# count, D.24026
	jge	.L599	#,
.L600:
	.loc 1 1446 0 is_stmt 1
	movl	$oom_list_extend.10698, %edi	#,
	movl	$0, %eax	#,
	call	Perl_croak	#
.L599:
	.loc 1 1447 0
	movq	PL_stack_max(%rip), %rax	# PL_stack_max, PL_stack_max.442
	movq	%rax, %rdx	# PL_stack_max.442, PL_stack_max.443
	movq	%r13, %rax	# mark, mark.444
	subq	%rax, %rdx	# mark.444, D.24026
	movq	%rdx, %rax	# D.24026, D.24026
	sarq	$3, %rax	#, tmp293
	movq	%rax, %rdx	# tmp293, D.24026
	movl	-128(%rbp), %eax	# max, tmp294
	cltq
	cmpq	%rax, %rdx	# D.24026, D.24026
	jge	.L601	#,
.LBB114:
	.loc 1 1447 0 is_stmt 0 discriminator 1
	movq	%r13, %rdx	# mark, mark.445
	movq	PL_stack_base(%rip), %rax	# PL_stack_base, PL_stack_base.446
	subq	%rax, %rdx	# PL_stack_base.447, D.24026
	movq	%rdx, %rax	# D.24026, D.24026
	sarq	$3, %rax	#, tmp295
	movl	%eax, -124(%rbp)	# D.24026, markoff
	movl	-128(%rbp), %eax	# max, tmp296
	movl	%eax, %edx	# tmp296,
	movq	%r13, %rsi	# mark,
	movq	%rbx, %rdi	# sp,
	call	Perl_stack_grow	#
	movq	%rax, %rbx	#, sp
	movq	PL_stack_base(%rip), %rax	# PL_stack_base, PL_stack_base.448
	movl	-124(%rbp), %edx	# markoff, tmp297
	movslq	%edx, %rdx	# tmp297, D.24021
	salq	$3, %rdx	#, D.24021
	leaq	(%rax,%rdx), %r13	#, mark
.L601:
.LBE114:
	.loc 1 1448 0 is_stmt 1
	cmpq	$1, %r12	#, count
	jle	.L602	#,
	.loc 1 1449 0
	jmp	.L603	#
.L605:
	.loc 1 1474 0
	movq	(%rbx), %rax	# *sp_2, D.24024
	testq	%rax, %rax	# D.24024
	je	.L604	#,
	.loc 1 1475 0
	movq	(%rbx), %rax	# *sp_2, D.24024
	movq	(%rbx), %rdx	# *sp_2, D.24024
	movl	12(%rdx), %edx	# _155->sv_flags, D.24023
	andb	$247, %dh	#, D.24023
	movl	%edx, 12(%rax)	# D.24023, _154->sv_flags
.L604:
	.loc 1 1477 0
	subq	$8, %rbx	#, sp
.L603:
	.loc 1 1449 0 discriminator 1
	cmpq	%r13, %rbx	# mark, sp
	ja	.L605	#,
	.loc 1 1479 0
	addq	$8, %r13	#, mark
	.loc 1 1480 0
	movl	%r12d, %eax	# count, D.24027
	subl	$1, %eax	#, D.24027
	movl	%eax, %edx	# D.24027, D.24020
	movl	-132(%rbp), %eax	# items, items.449
	sall	$3, %eax	#, D.24027
	movl	-132(%rbp), %ecx	# items, tmp298
	movslq	%ecx, %rcx	# tmp298, D.24021
	salq	$3, %rcx	#, D.24021
	leaq	0(%r13,%rcx), %rdi	#, D.24028
	movl	%edx, %ecx	# D.24020,
	movl	%eax, %edx	# D.24020,
	movq	%r13, %rsi	# mark,
	call	Perl_repeatcpy	#
	.loc 1 1482 0
	movl	-128(%rbp), %eax	# max, tmp299
	cltq
	salq	$3, %rax	#, D.24021
	addq	%rax, %rbx	# D.24021, sp
	jmp	.L606	#
.L602:
	.loc 1 1484 0
	testq	%r12, %r12	# count
	jg	.L606	#,
	.loc 1 1485 0
	movl	-132(%rbp), %eax	# items, tmp300
	cltq
	salq	$3, %rax	#, D.24021
	negq	%rax	# D.24029
	addq	%rax, %rbx	# D.24029, sp
.LBE113:
	.loc 1 1435 0
	jmp	.L607	#
.L606:
	jmp	.L607	#
.L598:
.LBB115:
	.loc 1 1488 0
	movq	%rbx, %rax	# sp, sp.450
	leaq	-8(%rax), %rbx	#, sp
	movq	(%rax), %rax	# *sp.450_176, tmp301
	movq	%rax, -48(%rbp)	# tmp301, tmpstr
	.loc 1 1494 0
	movq	-112(%rbp), %rax	# targ, tmp302
	cmpq	-48(%rbp), %rax	# tmpstr, tmp302
	je	.L608	#,
	.loc 1 1494 0 is_stmt 0 discriminator 1
	movq	-48(%rbp), %rcx	# tmpstr, tmp303
	movq	-112(%rbp), %rax	# targ, tmp304
	movl	$2, %edx	#,
	movq	%rcx, %rsi	# tmp303,
	movq	%rax, %rdi	# tmp304,
	call	Perl_sv_setsv_flags	#
.L608:
	.loc 1 1495 0 is_stmt 1
	movq	-112(%rbp), %rax	# targ, tmp305
	movl	12(%rax), %eax	# targ_31->sv_flags, D.24023
	andl	$10223616, %eax	#, D.24023
	cmpl	$262144, %eax	#, D.24023
	jne	.L609	#,
	.loc 1 1495 0 is_stmt 0 discriminator 1
	movq	-112(%rbp), %rax	# targ, tmp306
	movq	(%rax), %rax	# targ_31->sv_any, D.24025
	movq	8(%rax), %rax	# MEM[(struct XPV *)_181].xpv_cur, len.452
	movq	%rax, -120(%rbp)	# len.452, len
	jmp	.L610	#
.L609:
	.loc 1 1495 0 discriminator 2
	leaq	-120(%rbp), %rcx	#, tmp308
	movq	-112(%rbp), %rax	# targ, tmp309
	movl	$2, %edx	#,
	movq	%rcx, %rsi	# tmp308,
	movq	%rax, %rdi	# tmp309,
	call	Perl_sv_pvn_force_flags	#
.L610:
	.loc 1 1496 0 is_stmt 1
	movq	-112(%rbp), %rax	# targ, tmp310
	movl	12(%rax), %eax	# targ_31->sv_flags, D.24023
	andl	$536870912, %eax	#, D.24023
	testl	%eax, %eax	# D.24023
	je	.L611	#,
	.loc 1 1496 0 is_stmt 0 discriminator 1
	movq	PL_curcop(%rip), %rax	# PL_curcop, PL_curcop.454
	movzbl	37(%rax), %eax	# PL_curcop.454_188->op_private, D.24019
	movzbl	%al, %eax	# D.24019, D.24020
	andl	$8, %eax	#, D.24020
	testl	%eax, %eax	# D.24020
	jne	.L611	#,
	.loc 1 1496 0 discriminator 3
	movl	$1, %eax	#, iftmp.453
	jmp	.L612	#
.L611:
	.loc 1 1496 0 discriminator 2
	movl	$0, %eax	#, iftmp.453
.L612:
	.loc 1 1496 0 discriminator 4
	movb	%al, -133(%rbp)	# iftmp.453, isutf
	.loc 1 1497 0 is_stmt 1 discriminator 4
	cmpq	$1, %r12	#, count
	je	.L613	#,
	.loc 1 1498 0
	testq	%r12, %r12	# count
	jg	.L614	#,
	.loc 1 1499 0
	movq	-112(%rbp), %rax	# targ, tmp311
	movq	(%rax), %rax	# targ_31->sv_any, D.24025
	movq	$0, 8(%rax)	#, MEM[(struct XPV *)_195].xpv_cur
	jmp	.L615	#
.L614:
.LBB116:
	.loc 1 1501 0
	movq	%r12, %rdx	# count, count.455
	movq	-120(%rbp), %rax	# len, len.456
	imulq	%rdx, %rax	# count.455, tmp312
	movq	%rax, -40(%rbp)	# tmp312, max
	.loc 1 1502 0
	movq	%r12, %rsi	# count, count.457
	movq	$-1, %rax	#, tmp315
	movl	$0, %edx	#, tmp314
	divq	%rsi	# count.457
	movq	%rax, %rdx	# tmp313, D.24021
	movq	-120(%rbp), %rax	# len, len.458
	cmpq	%rax, %rdx	# len.458, D.24021
	jae	.L616	#,
	.loc 1 1503 0
	movl	$oom_string_extend.10706, %edi	#,
	movl	$0, %eax	#,
	call	Perl_croak	#
.L616:
	.loc 1 1505 0
	movq	-112(%rbp), %rax	# targ, tmp316
	movq	(%rax), %rax	# targ_31->sv_any, D.24025
	movq	16(%rax), %rax	# MEM[(struct XPV *)_202].xpv_len, D.24021
	movq	-40(%rbp), %rdx	# max, tmp317
	addq	$1, %rdx	#, D.24021
	cmpq	%rdx, %rax	# D.24021, D.24021
	jae	.L618	#,
	.loc 1 1505 0 is_stmt 0 discriminator 1
	movq	-40(%rbp), %rax	# max, tmp318
	leaq	1(%rax), %rdx	#, D.24021
	movq	-112(%rbp), %rax	# targ, tmp319
	movq	%rdx, %rsi	# D.24021,
	movq	%rax, %rdi	# tmp319,
	call	Perl_sv_grow	#
.L618:
	.loc 1 1506 0 is_stmt 1
	movl	%r12d, %eax	# count, D.24027
	subl	$1, %eax	#, D.24027
	movl	%eax, %ecx	# D.24027, D.24020
	movq	-120(%rbp), %rax	# len, len.460
	movl	%eax, %edx	# len.460, D.24020
	movq	-112(%rbp), %rax	# targ, tmp321
	movq	(%rax), %rax	# targ_31->sv_any, D.24025
	movq	(%rax), %rax	# MEM[(struct XPV *)_214].xpv_pv, D.24028
	movq	-112(%rbp), %rsi	# targ, tmp322
	movq	(%rsi), %rsi	# targ_31->sv_any, D.24025
	movq	(%rsi), %rdi	# MEM[(struct XPV *)_216].xpv_pv, D.24028
	movq	-120(%rbp), %rsi	# len, len.461
	addq	%rsi, %rdi	# len.461, D.24028
	movq	%rax, %rsi	# D.24028,
	call	Perl_repeatcpy	#
	.loc 1 1507 0
	movq	-112(%rbp), %rax	# targ, tmp323
	movq	(%rax), %rax	# targ_31->sv_any, D.24025
	movq	-112(%rbp), %rdx	# targ, tmp324
	movq	(%rdx), %rdx	# targ_31->sv_any, D.24025
	movq	8(%rdx), %rcx	# MEM[(struct XPV *)_221].xpv_cur, D.24021
	movq	%r12, %rdx	# count, count.462
	imulq	%rcx, %rdx	# D.24021, D.24021
	movq	%rdx, 8(%rax)	# D.24021, MEM[(struct XPV *)_220].xpv_cur
.L615:
.LBE116:
	.loc 1 1509 0
	movq	-112(%rbp), %rax	# targ, tmp325
	movq	(%rax), %rax	# targ_31->sv_any, D.24025
	movq	(%rax), %rdx	# MEM[(struct XPV *)_225].xpv_pv, D.24028
	movq	-112(%rbp), %rax	# targ, tmp326
	movq	(%rax), %rax	# targ_31->sv_any, D.24025
	movq	8(%rax), %rax	# MEM[(struct XPV *)_227].xpv_cur, D.24021
	addq	%rdx, %rax	# D.24028, D.24028
	movb	$0, (%rax)	#, *_229
.L613:
	.loc 1 1511 0
	cmpb	$0, -133(%rbp)	#, isutf
	je	.L619	#,
	.loc 1 1512 0
	movq	-112(%rbp), %rax	# targ, tmp327
	movl	12(%rax), %eax	# targ_31->sv_flags, D.24023
	andl	$1760624639, %eax	#, D.24023
	movl	%eax, %edx	# D.24023, D.24023
	movq	-112(%rbp), %rax	# targ, tmp328
	movl	%edx, 12(%rax)	# D.24023, targ_31->sv_flags
	movq	-112(%rbp), %rax	# targ, tmp329
	movl	12(%rax), %eax	# targ_31->sv_flags, D.24023
	orl	$67371008, %eax	#, D.24023
	movl	%eax, %edx	# D.24023, D.24023
	movq	-112(%rbp), %rax	# targ, tmp330
	movl	%edx, 12(%rax)	# D.24023, targ_31->sv_flags
	jmp	.L620	#
.L619:
	.loc 1 1514 0
	movq	-112(%rbp), %rax	# targ, tmp331
	movl	12(%rax), %eax	# targ_31->sv_flags, D.24023
	andl	$1223753727, %eax	#, D.24023
	movl	%eax, %edx	# D.24023, D.24023
	movq	-112(%rbp), %rax	# targ, tmp332
	movl	%edx, 12(%rax)	# D.24023, targ_31->sv_flags
	movq	-112(%rbp), %rax	# targ, tmp333
	movl	12(%rax), %eax	# targ_31->sv_flags, D.24023
	orl	$67371008, %eax	#, D.24023
	movl	%eax, %edx	# D.24023, D.24023
	movq	-112(%rbp), %rax	# targ, tmp334
	movl	%edx, 12(%rax)	# D.24023, targ_31->sv_flags
.L620:
	.loc 1 1516 0
	movq	PL_op(%rip), %rax	# PL_op, PL_op.463
	movzbl	37(%rax), %eax	# PL_op.463_238->op_private, D.24019
	movzbl	%al, %eax	# D.24019, D.24020
	andl	$64, %eax	#, D.24020
	testl	%eax, %eax	# D.24020
	je	.L621	#,
.LBB117:
	.loc 1 1522 0
	movq	PL_stack_base(%rip), %rcx	# PL_stack_base, PL_stack_base.464
	movq	PL_markstack_ptr(%rip), %rax	# PL_markstack_ptr, PL_markstack_ptr.465
	leaq	-4(%rax), %rdx	#, PL_markstack_ptr.467
	movq	%rdx, PL_markstack_ptr(%rip)	# PL_markstack_ptr.467, PL_markstack_ptr
	movl	(%rax), %eax	# *PL_markstack_ptr.466_244, D.24020
	cltq
	salq	$3, %rax	#, D.24021
	leaq	(%rcx,%rax), %rbx	#, mark
.L621:
.LBE117:
.LBB118:
	.loc 1 1525 0
	movq	-112(%rbp), %rax	# targ, tmp335
	movl	12(%rax), %eax	# targ_31->sv_flags, D.24023
	andl	$16384, %eax	#, D.24023
	testl	%eax, %eax	# D.24023
	je	.L622	#,
	.loc 1 1525 0 is_stmt 0 discriminator 1
	movq	-112(%rbp), %rax	# targ, tmp336
	movq	%rax, %rdi	# tmp336,
	call	Perl_mg_set	#
.L622:
	.loc 1 1525 0 discriminator 2
	addq	$8, %rbx	#, sp
	movq	-112(%rbp), %rax	# targ, tmp337
	movq	%rax, (%rbx)	# tmp337, *sp_253
.L607:
.LBE118:
.LBE115:
	.loc 1 1527 0 is_stmt 1
	movq	%rbx, PL_stack_sp(%rip)	# sp, PL_stack_sp
	movq	PL_op(%rip), %rax	# PL_op, PL_op.468
	movq	(%rax), %rax	# PL_op.468_255->op_next, D.24018
.L575:
.LBE109:
	.loc 1 1529 0
	addq	$136, %rsp	#,
	popq	%rbx	#
	popq	%r12	#
	popq	%r13	#
	popq	%rbp	#
	.cfi_def_cfa 7, 8
	ret
	.cfi_endproc
.LFE35:
	.size	Perl_pp_repeat, .-Perl_pp_repeat
	.globl	Perl_pp_subtract
	.type	Perl_pp_subtract, @function
Perl_pp_subtract:
.LFB36:
	.loc 1 1532 0
	.cfi_startproc
	pushq	%rbp	#
	.cfi_def_cfa_offset 16
	.cfi_offset 6, -16
	movq	%rsp, %rbp	#,
	.cfi_def_cfa_register 6
	pushq	%r13	#
	pushq	%r12	#
	pushq	%rbx	#
	subq	$88, %rsp	#,
	.cfi_offset 13, -24
	.cfi_offset 12, -32
	.cfi_offset 3, -40
	.loc 1 1533 0
	movq	PL_stack_sp(%rip), %rbx	# PL_stack_sp, sp
	movq	PL_op(%rip), %rax	# PL_op, PL_op.470
	movzbl	36(%rax), %eax	# PL_op.470_21->op_flags, D.24031
	movzbl	%al, %eax	# D.24031, D.24032
	andl	$64, %eax	#, D.24032
	testl	%eax, %eax	# D.24032
	je	.L626	#,
	.loc 1 1533 0 is_stmt 0 discriminator 1
	movq	-8(%rbx), %rax	# MEM[(struct SV * *)sp_20 + -8B], iftmp.469
	jmp	.L627	#
.L626:
	.loc 1 1533 0 discriminator 2
	movq	PL_curpad(%rip), %rdx	# PL_curpad, PL_curpad.471
	movq	PL_op(%rip), %rax	# PL_op, PL_op.472
	movq	24(%rax), %rax	# PL_op.472_27->op_targ, D.24033
	salq	$3, %rax	#, D.24033
	addq	%rdx, %rax	# PL_curpad.471, D.24034
	movq	(%rax), %rax	# *_30, iftmp.469
.L627:
	.loc 1 1533 0 discriminator 3
	movq	%rax, -72(%rbp)	# iftmp.469, targ
	movq	PL_amagic_generation(%rip), %rax	# PL_amagic_generation, PL_amagic_generation.473
	testq	%rax, %rax	# PL_amagic_generation.473
	je	.L628	#,
.LBB119:
	.loc 1 1533 0 discriminator 1
	movq	(%rbx), %rax	# *sp_20, tmp232
	movq	%rax, -64(%rbp)	# tmp232, right
	movq	-8(%rbx), %rax	# MEM[(struct SV * *)sp_20 + -8B], tmp233
	movq	%rax, -56(%rbp)	# tmp233, left
	movq	-56(%rbp), %rax	# left, tmp234
	movl	12(%rax), %eax	# left_35->sv_flags, D.24035
	andl	$268435456, %eax	#, D.24035
	testl	%eax, %eax	# D.24035
	jne	.L629	#,
	.loc 1 1533 0 discriminator 2
	movq	-64(%rbp), %rax	# right, tmp235
	movl	12(%rax), %eax	# right_34->sv_flags, D.24035
	andl	$268435456, %eax	#, D.24035
	testl	%eax, %eax	# D.24035
	je	.L628	#,
.L629:
	.loc 1 1533 0 discriminator 1
	movq	PL_op(%rip), %rax	# PL_op, PL_op.475
	movzbl	36(%rax), %eax	# PL_op.475_40->op_flags, D.24031
	movzbl	%al, %eax	# D.24031, D.24032
	andl	$64, %eax	#, D.24032
	testl	%eax, %eax	# D.24032
	je	.L630	#,
	movl	$4, %eax	#, iftmp.474
	jmp	.L631	#
.L630:
	.loc 1 1533 0 discriminator 2
	movl	$0, %eax	#, iftmp.474
.L631:
	.loc 1 1533 0 discriminator 3
	movq	-64(%rbp), %rsi	# right, tmp236
	movq	-56(%rbp), %rdi	# left, tmp237
	movl	%eax, %ecx	# iftmp.474,
	movl	$8, %edx	#,
	call	Perl_amagic_call	#
	movq	%rax, -48(%rbp)	# tmp238, tmpsv
	cmpq	$0, -48(%rbp)	#, tmpsv
	je	.L628	#,
	.loc 1 1533 0 discriminator 1
	movq	PL_stack_sp(%rip), %rbx	# PL_stack_sp, sp
	movq	%rbx, %rax	# sp, sp.476
	leaq	-8(%rax), %rbx	#, sp
	movq	PL_op(%rip), %rax	# PL_op, PL_op.477
	movzbl	36(%rax), %eax	# PL_op.477_50->op_flags, D.24031
	movzbl	%al, %eax	# D.24031, D.24032
	andl	$64, %eax	#, D.24032
	testl	%eax, %eax	# D.24032
	jne	.L632	#,
	.loc 1 1533 0 discriminator 2
	movq	-72(%rbp), %rax	# targ, tmp239
	movl	12(%rax), %eax	# targ_32->sv_flags, D.24035
	andl	$1024, %eax	#, D.24035
	testl	%eax, %eax	# D.24035
	je	.L633	#,
.L632:
	.loc 1 1533 0 discriminator 1
	movq	-48(%rbp), %rcx	# tmpsv, tmp240
	movq	-72(%rbp), %rax	# targ, tmp241
	movl	$2, %edx	#,
	movq	%rcx, %rsi	# tmp240,
	movq	%rax, %rdi	# tmp241,
	call	Perl_sv_setsv_flags	#
.LBB120:
	movq	-72(%rbp), %rax	# targ, tmp242
	movl	12(%rax), %eax	# targ_32->sv_flags, D.24035
	andl	$16384, %eax	#, D.24035
	testl	%eax, %eax	# D.24035
	je	.L634	#,
	movq	-72(%rbp), %rax	# targ, tmp243
	movq	%rax, %rdi	# tmp243,
	call	Perl_mg_set	#
.L634:
	.loc 1 1533 0 discriminator 2
	movq	-72(%rbp), %rax	# targ, tmp244
	movq	%rax, (%rbx)	# tmp244, *sp_49
.LBE120:
	jmp	.L635	#
.L633:
	.loc 1 1533 0 discriminator 1
	movq	-48(%rbp), %rax	# tmpsv, tmp245
	movq	%rax, (%rbx)	# tmp245, *sp_49
.L635:
	movq	%rbx, PL_stack_sp(%rip)	# sp, PL_stack_sp
	movq	PL_op(%rip), %rax	# PL_op, PL_op.478
	movq	(%rax), %rax	# PL_op.478_59->op_next, D.24030
	jmp	.L636	#
.L628:
.LBE119:
	.loc 1 1534 0 is_stmt 1
	leaq	-8(%rbx), %rax	#, D.24034
	movq	(%rax), %rax	# *_61, D.24036
	movl	12(%rax), %eax	# _62->sv_flags, D.24035
	andl	$118423552, %eax	#, D.24035
	testl	%eax, %eax	# D.24035
	jne	.L637	#,
	.loc 1 1534 0 is_stmt 0 discriminator 2
	leaq	-8(%rbx), %rax	#, D.24034
	movq	(%rax), %rax	# *_65, D.24036
	movl	12(%rax), %eax	# _66->sv_flags, D.24035
	andl	$8192, %eax	#, D.24035
	testl	%eax, %eax	# D.24035
	jne	.L637	#,
	.loc 1 1534 0 discriminator 1
	movq	PL_op(%rip), %rax	# PL_op, PL_op.480
	movzbl	36(%rax), %eax	# PL_op.480_69->op_flags, D.24031
	movzbl	%al, %eax	# D.24031, D.24032
	andl	$64, %eax	#, D.24032
	testl	%eax, %eax	# D.24032
	jne	.L638	#,
.L637:
	movl	$1, %eax	#, iftmp.479
	jmp	.L639	#
.L638:
	.loc 1 1534 0 discriminator 3
	movl	$0, %eax	#, iftmp.479
.L639:
	.loc 1 1534 0 discriminator 4
	movb	%al, -81(%rbp)	# iftmp.479, useleft
	.loc 1 1538 0 is_stmt 1 discriminator 4
	movq	(%rbx), %rax	# *sp_20, D.24036
	movl	12(%rax), %eax	# _76->sv_flags, D.24035
	andl	$16777216, %eax	#, D.24035
	testl	%eax, %eax	# D.24035
	jne	.L640	#,
	.loc 1 1538 0 is_stmt 0 discriminator 1
	movq	(%rbx), %rax	# *sp_20, D.24036
	movl	12(%rax), %eax	# _79->sv_flags, D.24035
	andl	$131072, %eax	#, D.24035
	testl	%eax, %eax	# D.24035
	jne	.L641	#,
	.loc 1 1538 0 discriminator 2
	movq	(%rbx), %rax	# *sp_20, D.24036
	movl	12(%rax), %eax	# _82->sv_flags, D.24035
	andl	$262144, %eax	#, D.24035
	testl	%eax, %eax	# D.24035
	je	.L640	#,
.L641:
	.loc 1 1538 0 discriminator 1
	movq	(%rbx), %rax	# *sp_20, D.24036
	movl	12(%rax), %eax	# _85->sv_flags, D.24035
	andl	$65536, %eax	#, D.24035
	testl	%eax, %eax	# D.24035
	jne	.L640	#,
	.loc 1 1538 0 discriminator 2
	movq	(%rbx), %rax	# *sp_20, D.24036
	movq	%rax, %rdi	# D.24036,
	call	Perl_sv_2iv	#
.L640:
	.loc 1 1539 0 is_stmt 1
	movq	(%rbx), %rax	# *sp_20, D.24036
	movl	12(%rax), %eax	# _93->sv_flags, D.24035
	andl	$65536, %eax	#, D.24035
	testl	%eax, %eax	# D.24035
	je	.L643	#,
.LBB121:
	.loc 1 1543 0
	movl	$0, %r12d	#, auv
	.loc 1 1544 0
	movb	$0, -85(%rbp)	#, auvok
	.loc 1 1545 0
	movb	$0, -84(%rbp)	#, a_valid
	.loc 1 1547 0
	cmpb	$0, -81(%rbp)	#, useleft
	jne	.L644	#,
	.loc 1 1548 0
	movl	$0, %r12d	#, auv
	.loc 1 1549 0
	movb	$1, -85(%rbp)	#, auvok
	movzbl	-85(%rbp), %eax	# auvok, tmp246
	movb	%al, -84(%rbp)	# tmp246, a_valid
	jmp	.L645	#
.L644:
	.loc 1 1553 0
	leaq	-8(%rbx), %rax	#, D.24034
	movq	(%rax), %rax	# *_102, D.24036
	movl	12(%rax), %eax	# _103->sv_flags, D.24035
	andl	$16777216, %eax	#, D.24035
	testl	%eax, %eax	# D.24035
	jne	.L646	#,
	.loc 1 1553 0 is_stmt 0 discriminator 1
	leaq	-8(%rbx), %rax	#, D.24034
	movq	(%rax), %rax	# *_106, D.24036
	movl	12(%rax), %eax	# _107->sv_flags, D.24035
	andl	$131072, %eax	#, D.24035
	testl	%eax, %eax	# D.24035
	jne	.L647	#,
	.loc 1 1553 0 discriminator 2
	leaq	-8(%rbx), %rax	#, D.24034
	movq	(%rax), %rax	# *_110, D.24036
	movl	12(%rax), %eax	# _111->sv_flags, D.24035
	andl	$262144, %eax	#, D.24035
	testl	%eax, %eax	# D.24035
	je	.L646	#,
.L647:
	.loc 1 1553 0 discriminator 1
	leaq	-8(%rbx), %rax	#, D.24034
	movq	(%rax), %rax	# *_114, D.24036
	movl	12(%rax), %eax	# _115->sv_flags, D.24035
	andl	$65536, %eax	#, D.24035
	testl	%eax, %eax	# D.24035
	jne	.L646	#,
	.loc 1 1553 0 discriminator 2
	leaq	-8(%rbx), %rax	#, D.24034
	movq	(%rax), %rax	# *_122, D.24036
	movq	%rax, %rdi	# D.24036,
	call	Perl_sv_2iv	#
.L646:
	.loc 1 1554 0 is_stmt 1
	leaq	-8(%rbx), %rax	#, D.24034
	movq	(%rax), %rax	# *_125, D.24036
	movl	12(%rax), %eax	# _126->sv_flags, D.24035
	andl	$65536, %eax	#, D.24035
	testl	%eax, %eax	# D.24035
	je	.L645	#,
	.loc 1 1555 0
	leaq	-8(%rbx), %rax	#, D.24034
	movq	(%rax), %rax	# *_129, D.24036
	movl	12(%rax), %eax	# _130->sv_flags, D.24035
	andl	$-2147418112, %eax	#, D.24035
	cmpl	$-2147418112, %eax	#, D.24035
	sete	%al	#, D.24038
	movb	%al, -85(%rbp)	# D.24038, auvok
	cmpb	$0, -85(%rbp)	#, auvok
	je	.L649	#,
	.loc 1 1556 0
	leaq	-8(%rbx), %rax	#, D.24034
	movq	(%rax), %rax	# *_135, D.24036
	movq	(%rax), %rax	# _136->sv_any, D.24037
	movq	24(%rax), %r12	# MEM[(struct XPVUV *)_137].xuv_uv, auv
	jmp	.L650	#
.L649:
.LBB122:
	.loc 1 1558 0
	leaq	-8(%rbx), %rax	#, D.24034
	movq	(%rax), %rax	# *_139, D.24036
	movq	(%rax), %rax	# _140->sv_any, D.24037
	movq	24(%rax), %r12	# MEM[(struct XPVIV *)_141].xiv_iv, aiv
	.loc 1 1559 0
	testq	%r12, %r12	# aiv
	js	.L651	#,
	.loc 1 1561 0
	movb	$1, -85(%rbp)	#, auvok
	jmp	.L650	#
.L651:
	.loc 1 1563 0
	movq	%r12, %rax	# aiv, D.24039
	negq	%rax	# D.24039
	movq	%rax, %r12	# D.24039, auv
.L650:
.LBE122:
	.loc 1 1566 0
	movb	$1, -84(%rbp)	#, a_valid
.L645:
	.loc 1 1569 0
	cmpb	$0, -84(%rbp)	#, a_valid
	je	.L643	#,
.LBB123:
	.loc 1 1570 0
	movb	$0, -83(%rbp)	#, result_good
	.loc 1 1573 0
	movq	(%rbx), %rax	# *sp_20, D.24036
	movl	12(%rax), %eax	# _149->sv_flags, D.24035
	andl	$-2147418112, %eax	#, D.24035
	cmpl	$-2147418112, %eax	#, D.24035
	sete	%al	#, D.24038
	movb	%al, -82(%rbp)	# D.24038, buvok
	.loc 1 1575 0
	cmpb	$0, -82(%rbp)	#, buvok
	je	.L652	#,
	.loc 1 1576 0
	movq	(%rbx), %rax	# *sp_20, D.24036
	movq	(%rax), %rax	# _154->sv_any, D.24037
	movq	24(%rax), %r13	# MEM[(struct XPVUV *)_155].xuv_uv, buv
	jmp	.L653	#
.L652:
.LBB124:
	.loc 1 1578 0
	movq	(%rbx), %rax	# *sp_20, D.24036
	movq	(%rax), %rax	# _157->sv_any, D.24037
	movq	24(%rax), %r13	# MEM[(struct XPVIV *)_158].xiv_iv, biv
	.loc 1 1579 0
	testq	%r13, %r13	# biv
	js	.L654	#,
	.loc 1 1581 0
	movb	$1, -82(%rbp)	#, buvok
	jmp	.L653	#
.L654:
	.loc 1 1583 0
	movq	%r13, %rax	# biv, D.24039
	negq	%rax	# D.24039
	movq	%rax, %r13	# D.24039, buv
.L653:
.LBE124:
	.loc 1 1595 0
	movzbl	-85(%rbp), %eax	# auvok, tmp247
	cmpb	-82(%rbp), %al	# buvok, tmp247
	je	.L655	#,
	.loc 1 1597 0
	leaq	(%r12,%r13), %rax	#, tmp248
	movq	%rax, -80(%rbp)	# tmp248, result
	.loc 1 1598 0
	cmpq	%r12, -80(%rbp)	# auv, result
	jb	.L657	#,
	.loc 1 1599 0
	movb	$1, -83(%rbp)	#, result_good
	jmp	.L657	#
.L655:
	.loc 1 1602 0
	cmpq	%r13, %r12	# buv, auv
	jb	.L658	#,
	.loc 1 1603 0
	movq	%r12, %rax	# auv, tmp249
	subq	%r13, %rax	# buv, tmp249
	movq	%rax, -80(%rbp)	# tmp249, result
	.loc 1 1605 0
	cmpq	%r12, -80(%rbp)	# auv, result
	ja	.L657	#,
	.loc 1 1606 0
	movb	$1, -83(%rbp)	#, result_good
	jmp	.L657	#
.L658:
	.loc 1 1608 0
	movq	%r13, %rax	# buv, tmp250
	subq	%r12, %rax	# auv, tmp250
	movq	%rax, -80(%rbp)	# tmp250, result
	.loc 1 1609 0
	cmpq	%r13, -80(%rbp)	# buv, result
	ja	.L657	#,
	.loc 1 1612 0
	cmpb	$0, -85(%rbp)	#, auvok
	sete	%al	#, D.24038
	movb	%al, -85(%rbp)	# D.24038, auvok
	.loc 1 1613 0
	movb	$1, -83(%rbp)	#, result_good
.L657:
	.loc 1 1617 0
	cmpb	$0, -83(%rbp)	#, result_good
	je	.L643	#,
	.loc 1 1618 0
	subq	$8, %rbx	#, sp
	.loc 1 1619 0
	cmpb	$0, -85(%rbp)	#, auvok
	je	.L660	#,
.LBB125:
	.loc 1 1620 0
	movq	-80(%rbp), %rdx	# result, tmp251
	movq	-72(%rbp), %rax	# targ, tmp252
	movq	%rdx, %rsi	# tmp251,
	movq	%rax, %rdi	# tmp252,
	call	Perl_sv_setuv	#
.LBB126:
	movq	-72(%rbp), %rax	# targ, tmp253
	movl	12(%rax), %eax	# targ_32->sv_flags, D.24035
	andl	$16384, %eax	#, D.24035
	testl	%eax, %eax	# D.24035
	je	.L661	#,
	.loc 1 1620 0 is_stmt 0 discriminator 1
	movq	-72(%rbp), %rax	# targ, tmp254
	movq	%rax, %rdi	# tmp254,
	call	Perl_mg_set	#
.L661:
	.loc 1 1620 0 discriminator 2
	movq	-72(%rbp), %rax	# targ, tmp255
	movq	%rax, (%rbx)	# tmp255, *sp_172
.LBE126:
.LBE125:
	jmp	.L662	#
.L660:
	.loc 1 1623 0 is_stmt 1
	movabsq	$-9223372036854775808, %rax	#, tmp256
	cmpq	%rax, -80(%rbp)	# tmp256, result
	ja	.L663	#,
.LBB127:
	.loc 1 1624 0
	movq	-80(%rbp), %rax	# result, result.483
	negq	%rax	# D.24039
	movq	%rax, %rdx	# D.24039, D.24039
	movq	-72(%rbp), %rax	# targ, tmp257
	movq	%rdx, %rsi	# D.24039,
	movq	%rax, %rdi	# tmp257,
	call	Perl_sv_setiv	#
.LBB128:
	movq	-72(%rbp), %rax	# targ, tmp258
	movl	12(%rax), %eax	# targ_32->sv_flags, D.24035
	andl	$16384, %eax	#, D.24035
	testl	%eax, %eax	# D.24035
	je	.L664	#,
	.loc 1 1624 0 is_stmt 0 discriminator 1
	movq	-72(%rbp), %rax	# targ, tmp259
	movq	%rax, %rdi	# tmp259,
	call	Perl_mg_set	#
.L664:
	.loc 1 1624 0 discriminator 2
	movq	-72(%rbp), %rax	# targ, tmp260
	movq	%rax, (%rbx)	# tmp260, *sp_172
.LBE128:
.LBE127:
	jmp	.L662	#
.L663:
.LBB129:
	.loc 1 1627 0 is_stmt 1
	movq	-80(%rbp), %rax	# result, tmp261
	testq	%rax, %rax	# tmp261
	js	.L665	#,
	cvtsi2sdq	%rax, %xmm0	# tmp261, D.24040
	jmp	.L666	#
.L665:
	movq	%rax, %rdx	# tmp261, tmp263
	shrq	%rdx	# tmp263
	andl	$1, %eax	#, tmp264
	orq	%rax, %rdx	# tmp264, tmp263
	cvtsi2sdq	%rdx, %xmm0	# tmp263, tmp262
	addsd	%xmm0, %xmm0	# tmp262, D.24040
.L666:
	movsd	.LC30(%rip), %xmm1	#, tmp265
	xorpd	%xmm1, %xmm0	# tmp265, D.24040
	movq	-72(%rbp), %rax	# targ, tmp266
	movq	%rax, %rdi	# tmp266,
	call	Perl_sv_setnv	#
.LBB130:
	movq	-72(%rbp), %rax	# targ, tmp267
	movl	12(%rax), %eax	# targ_32->sv_flags, D.24035
	andl	$16384, %eax	#, D.24035
	testl	%eax, %eax	# D.24035
	je	.L667	#,
	.loc 1 1627 0 is_stmt 0 discriminator 1
	movq	-72(%rbp), %rax	# targ, tmp268
	movq	%rax, %rdi	# tmp268,
	call	Perl_mg_set	#
.L667:
	.loc 1 1627 0 discriminator 2
	movq	-72(%rbp), %rax	# targ, tmp269
	movq	%rax, (%rbx)	# tmp269, *sp_172
.L662:
.LBE130:
.LBE129:
	.loc 1 1630 0 is_stmt 1
	movq	%rbx, PL_stack_sp(%rip)	# sp, PL_stack_sp
	movq	PL_op(%rip), %rax	# PL_op, PL_op.484
	movq	(%rax), %rax	# PL_op.484_186->op_next, D.24030
	jmp	.L636	#
.L643:
.LBE123:
.LBE121:
	.loc 1 1635 0
	leaq	-8(%rbx), %rax	#, D.24034
	movq	(%rax), %rax	# *_188, D.24036
	movl	12(%rax), %eax	# _189->sv_flags, D.24035
	andl	$118423552, %eax	#, D.24035
	testl	%eax, %eax	# D.24035
	jne	.L668	#,
	.loc 1 1635 0 is_stmt 0 discriminator 2
	leaq	-8(%rbx), %rax	#, D.24034
	movq	(%rax), %rax	# *_192, D.24036
	movl	12(%rax), %eax	# _193->sv_flags, D.24035
	andl	$8192, %eax	#, D.24035
	testl	%eax, %eax	# D.24035
	jne	.L668	#,
	.loc 1 1635 0 discriminator 1
	movq	PL_op(%rip), %rax	# PL_op, PL_op.486
	movzbl	36(%rax), %eax	# PL_op.486_196->op_flags, D.24031
	movzbl	%al, %eax	# D.24031, D.24032
	andl	$64, %eax	#, D.24032
	testl	%eax, %eax	# D.24032
	jne	.L669	#,
.L668:
	movl	$1, %eax	#, iftmp.485
	jmp	.L670	#
.L669:
	.loc 1 1635 0 discriminator 3
	movl	$0, %eax	#, iftmp.485
.L670:
	.loc 1 1635 0 discriminator 4
	movb	%al, -81(%rbp)	# iftmp.485, useleft
.LBB131:
	.loc 1 1637 0 is_stmt 1 discriminator 4
	movq	%rbx, %rax	# sp, sp.487
	leaq	-8(%rax), %rbx	#, sp
	movq	(%rax), %rax	# *sp.487_203, PL_Sv.488
	movq	%rax, PL_Sv(%rip)	# PL_Sv.488, PL_Sv
	movq	PL_Sv(%rip), %rax	# PL_Sv, PL_Sv.490
	movl	12(%rax), %eax	# PL_Sv.490_206->sv_flags, D.24035
	andl	$131072, %eax	#, D.24035
	testl	%eax, %eax	# D.24035
	je	.L671	#,
	.loc 1 1637 0 is_stmt 0 discriminator 1
	movq	PL_Sv(%rip), %rax	# PL_Sv, PL_Sv.491
	movq	(%rax), %rax	# PL_Sv.491_209->sv_any, D.24037
	movq	32(%rax), %rax	# MEM[(struct XPVNV *)_210].xnv_nv, iftmp.489
	jmp	.L672	#
.L671:
	.loc 1 1637 0 discriminator 2
	movq	PL_Sv(%rip), %rax	# PL_Sv, PL_Sv.492
	movq	%rax, %rdi	# PL_Sv.492,
	call	Perl_sv_2nv	#
	movsd	%xmm0, -104(%rbp)	#, %sfp
	movq	-104(%rbp), %rax	# %sfp, iftmp.489
.L672:
	.loc 1 1637 0 discriminator 3
	movq	%rax, -40(%rbp)	# iftmp.489, value
	.loc 1 1638 0 is_stmt 1 discriminator 3
	cmpb	$0, -81(%rbp)	#, useleft
	jne	.L673	#,
.LBB132:
	.loc 1 1640 0
	movsd	-40(%rbp), %xmm1	# value, tmp270
	movsd	.LC30(%rip), %xmm0	#, tmp271
	xorpd	%xmm1, %xmm0	# tmp270, D.24040
	movq	-72(%rbp), %rax	# targ, tmp272
	movq	%rax, %rdi	# tmp272,
	call	Perl_sv_setnv	#
.LBB133:
	movq	-72(%rbp), %rax	# targ, tmp273
	movl	12(%rax), %eax	# targ_32->sv_flags, D.24035
	andl	$16384, %eax	#, D.24035
	testl	%eax, %eax	# D.24035
	je	.L674	#,
	.loc 1 1640 0 is_stmt 0 discriminator 1
	movq	-72(%rbp), %rax	# targ, tmp274
	movq	%rax, %rdi	# tmp274,
	call	Perl_mg_set	#
.L674:
	.loc 1 1640 0 discriminator 2
	movq	-72(%rbp), %rax	# targ, tmp275
	movq	%rax, (%rbx)	# tmp275, *sp_204
.LBE133:
.LBE132:
	.loc 1 1641 0 is_stmt 1 discriminator 2
	movq	%rbx, PL_stack_sp(%rip)	# sp, PL_stack_sp
	movq	PL_op(%rip), %rax	# PL_op, PL_op.493
	movq	(%rax), %rax	# PL_op.493_219->op_next, D.24030
	jmp	.L636	#
.L673:
.LBB134:
	.loc 1 1643 0
	movq	(%rbx), %rax	# *sp_204, D.24036
	movl	12(%rax), %eax	# _221->sv_flags, D.24035
	andl	$131072, %eax	#, D.24035
	testl	%eax, %eax	# D.24035
	je	.L675	#,
	.loc 1 1643 0 is_stmt 0 discriminator 1
	movq	(%rbx), %rax	# *sp_204, D.24036
	movq	(%rax), %rax	# _224->sv_any, D.24037
	movq	32(%rax), %rax	# MEM[(struct XPVNV *)_225].xnv_nv, iftmp.494
	jmp	.L676	#
.L675:
	.loc 1 1643 0 discriminator 2
	movq	(%rbx), %rax	# *sp_204, D.24036
	movq	%rax, %rdi	# D.24036,
	call	Perl_sv_2nv	#
	movsd	%xmm0, -104(%rbp)	#, %sfp
	movq	-104(%rbp), %rax	# %sfp, iftmp.494
.L676:
	.loc 1 1643 0 discriminator 3
	movq	%rax, -104(%rbp)	# iftmp.494, %sfp
	movsd	-104(%rbp), %xmm0	# %sfp, D.24040
	subsd	-40(%rbp), %xmm0	# value, D.24040
	movq	-72(%rbp), %rax	# targ, tmp276
	movq	%rax, %rdi	# tmp276,
	call	Perl_sv_setnv	#
.LBB135:
	movq	-72(%rbp), %rax	# targ, tmp277
	movl	12(%rax), %eax	# targ_32->sv_flags, D.24035
	andl	$16384, %eax	#, D.24035
	testl	%eax, %eax	# D.24035
	je	.L677	#,
	.loc 1 1643 0 discriminator 1
	movq	-72(%rbp), %rax	# targ, tmp278
	movq	%rax, %rdi	# tmp278,
	call	Perl_mg_set	#
.L677:
	.loc 1 1643 0 discriminator 2
	movq	-72(%rbp), %rax	# targ, tmp279
	movq	%rax, (%rbx)	# tmp279, *sp_204
.LBE135:
.LBE134:
	.loc 1 1644 0 is_stmt 1 discriminator 2
	movq	%rbx, PL_stack_sp(%rip)	# sp, PL_stack_sp
	movq	PL_op(%rip), %rax	# PL_op, PL_op.495
	movq	(%rax), %rax	# PL_op.495_233->op_next, D.24030
.L636:
.LBE131:
	.loc 1 1646 0
	addq	$88, %rsp	#,
	popq	%rbx	#
	popq	%r12	#
	popq	%r13	#
	popq	%rbp	#
	.cfi_def_cfa 7, 8
	ret
	.cfi_endproc
.LFE36:
	.size	Perl_pp_subtract, .-Perl_pp_subtract
	.globl	Perl_pp_left_shift
	.type	Perl_pp_left_shift, @function
Perl_pp_left_shift:
.LFB37:
	.loc 1 1649 0
	.cfi_startproc
	pushq	%rbp	#
	.cfi_def_cfa_offset 16
	.cfi_offset 6, -16
	movq	%rsp, %rbp	#,
	.cfi_def_cfa_register 6
	pushq	%rbx	#
	subq	$72, %rsp	#,
	.cfi_offset 3, -24
	.loc 1 1650 0
	movq	PL_stack_sp(%rip), %rbx	# PL_stack_sp, sp
	movq	PL_op(%rip), %rax	# PL_op, PL_op.497
	movzbl	36(%rax), %eax	# PL_op.497_8->op_flags, D.24042
	movzbl	%al, %eax	# D.24042, D.24043
	andl	$64, %eax	#, D.24043
	testl	%eax, %eax	# D.24043
	je	.L679	#,
	.loc 1 1650 0 is_stmt 0 discriminator 1
	movq	-8(%rbx), %rax	# MEM[(struct SV * *)sp_7 + -8B], iftmp.496
	jmp	.L680	#
.L679:
	.loc 1 1650 0 discriminator 2
	movq	PL_curpad(%rip), %rdx	# PL_curpad, PL_curpad.498
	movq	PL_op(%rip), %rax	# PL_op, PL_op.499
	movq	24(%rax), %rax	# PL_op.499_14->op_targ, D.24044
	salq	$3, %rax	#, D.24044
	addq	%rdx, %rax	# PL_curpad.498, D.24045
	movq	(%rax), %rax	# *_17, iftmp.496
.L680:
	.loc 1 1650 0 discriminator 3
	movq	%rax, -72(%rbp)	# iftmp.496, targ
	movq	PL_amagic_generation(%rip), %rax	# PL_amagic_generation, PL_amagic_generation.500
	testq	%rax, %rax	# PL_amagic_generation.500
	je	.L681	#,
.LBB136:
	.loc 1 1650 0 discriminator 1
	movq	(%rbx), %rax	# *sp_7, tmp131
	movq	%rax, -64(%rbp)	# tmp131, right
	movq	-8(%rbx), %rax	# MEM[(struct SV * *)sp_7 + -8B], tmp132
	movq	%rax, -56(%rbp)	# tmp132, left
	movq	-56(%rbp), %rax	# left, tmp133
	movl	12(%rax), %eax	# left_22->sv_flags, D.24046
	andl	$268435456, %eax	#, D.24046
	testl	%eax, %eax	# D.24046
	jne	.L682	#,
	.loc 1 1650 0 discriminator 2
	movq	-64(%rbp), %rax	# right, tmp134
	movl	12(%rax), %eax	# right_21->sv_flags, D.24046
	andl	$268435456, %eax	#, D.24046
	testl	%eax, %eax	# D.24046
	je	.L681	#,
.L682:
	.loc 1 1650 0 discriminator 1
	movq	PL_op(%rip), %rax	# PL_op, PL_op.502
	movzbl	36(%rax), %eax	# PL_op.502_27->op_flags, D.24042
	movzbl	%al, %eax	# D.24042, D.24043
	andl	$64, %eax	#, D.24043
	testl	%eax, %eax	# D.24043
	je	.L683	#,
	movl	$4, %eax	#, iftmp.501
	jmp	.L684	#
.L683:
	.loc 1 1650 0 discriminator 2
	movl	$0, %eax	#, iftmp.501
.L684:
	.loc 1 1650 0 discriminator 3
	movq	-64(%rbp), %rsi	# right, tmp135
	movq	-56(%rbp), %rdi	# left, tmp136
	movl	%eax, %ecx	# iftmp.501,
	movl	$18, %edx	#,
	call	Perl_amagic_call	#
	movq	%rax, -48(%rbp)	# tmp137, tmpsv
	cmpq	$0, -48(%rbp)	#, tmpsv
	je	.L681	#,
	.loc 1 1650 0 discriminator 1
	movq	PL_stack_sp(%rip), %rbx	# PL_stack_sp, sp
	movq	%rbx, %rax	# sp, sp.503
	leaq	-8(%rax), %rbx	#, sp
	movq	PL_op(%rip), %rax	# PL_op, PL_op.504
	movzbl	36(%rax), %eax	# PL_op.504_37->op_flags, D.24042
	movzbl	%al, %eax	# D.24042, D.24043
	andl	$64, %eax	#, D.24043
	testl	%eax, %eax	# D.24043
	jne	.L685	#,
	.loc 1 1650 0 discriminator 2
	movq	-72(%rbp), %rax	# targ, tmp138
	movl	12(%rax), %eax	# targ_19->sv_flags, D.24046
	andl	$1024, %eax	#, D.24046
	testl	%eax, %eax	# D.24046
	je	.L686	#,
.L685:
	.loc 1 1650 0 discriminator 1
	movq	-48(%rbp), %rcx	# tmpsv, tmp139
	movq	-72(%rbp), %rax	# targ, tmp140
	movl	$2, %edx	#,
	movq	%rcx, %rsi	# tmp139,
	movq	%rax, %rdi	# tmp140,
	call	Perl_sv_setsv_flags	#
.LBB137:
	movq	-72(%rbp), %rax	# targ, tmp141
	movl	12(%rax), %eax	# targ_19->sv_flags, D.24046
	andl	$16384, %eax	#, D.24046
	testl	%eax, %eax	# D.24046
	je	.L687	#,
	movq	-72(%rbp), %rax	# targ, tmp142
	movq	%rax, %rdi	# tmp142,
	call	Perl_mg_set	#
.L687:
	.loc 1 1650 0 discriminator 2
	movq	-72(%rbp), %rax	# targ, tmp143
	movq	%rax, (%rbx)	# tmp143, *sp_36
.LBE137:
	jmp	.L688	#
.L686:
	.loc 1 1650 0 discriminator 1
	movq	-48(%rbp), %rax	# tmpsv, tmp144
	movq	%rax, (%rbx)	# tmp144, *sp_36
.L688:
	movq	%rbx, PL_stack_sp(%rip)	# sp, PL_stack_sp
	movq	PL_op(%rip), %rax	# PL_op, PL_op.505
	movq	(%rax), %rax	# PL_op.505_46->op_next, D.24041
	jmp	.L689	#
.L681:
.LBE136:
.LBB138:
	.loc 1 1652 0 is_stmt 1
	movq	%rbx, %rax	# sp, sp.506
	leaq	-8(%rax), %rbx	#, sp
	movq	(%rax), %rax	# *sp.506_48, PL_Sv.507
	movq	%rax, PL_Sv(%rip)	# PL_Sv.507, PL_Sv
	movq	PL_Sv(%rip), %rax	# PL_Sv, PL_Sv.509
	movl	12(%rax), %eax	# PL_Sv.509_51->sv_flags, D.24046
	andl	$65536, %eax	#, D.24046
	testl	%eax, %eax	# D.24046
	je	.L690	#,
	.loc 1 1652 0 is_stmt 0 discriminator 1
	movq	PL_Sv(%rip), %rax	# PL_Sv, PL_Sv.510
	movq	(%rax), %rax	# PL_Sv.510_54->sv_any, D.24048
	movq	24(%rax), %rax	# MEM[(struct XPVIV *)_55].xiv_iv, iftmp.508
	jmp	.L691	#
.L690:
	.loc 1 1652 0 discriminator 2
	movq	PL_Sv(%rip), %rax	# PL_Sv, PL_Sv.511
	movq	%rax, %rdi	# PL_Sv.511,
	call	Perl_sv_2iv	#
.L691:
	.loc 1 1652 0 discriminator 3
	movq	%rax, -40(%rbp)	# iftmp.508, shift
	.loc 1 1653 0 is_stmt 1 discriminator 3
	movq	PL_op(%rip), %rax	# PL_op, PL_op.512
	movzbl	37(%rax), %eax	# PL_op.512_60->op_private, D.24042
	movzbl	%al, %eax	# D.24042, D.24043
	andl	$1, %eax	#, D.24043
	testl	%eax, %eax	# D.24043
	je	.L692	#,
.LBB139:
	.loc 1 1654 0
