	.file	"pp_hot.c"
# GNU C (Ubuntu/Linaro 4.8.1-10ubuntu9) version 4.8.1 (x86_64-linux-gnu)
#	compiled by GNU C version 4.8.1, GMP version 5.1.2, MPFR version 3.1.1-p2, MPC version 1.0.1
# GGC heuristics: --param ggc-min-expand=100 --param ggc-min-heapsize=131072
# options passed:  -imultiarch x86_64-linux-gnu -D SPEC_CPU -D NDEBUG
# -D PERL_CORE -D SPEC_CPU_LP64 -D SPEC_CPU_LINUX_X64 pp_hot.c
# -mtune=generic -march=x86-64 -g -fverbose-asm -fno-strict-aliasing
# -fstack-protector -Wformat -Wformat-security
# options enabled:  -faggressive-loop-optimizations
# -fasynchronous-unwind-tables -fauto-inc-dec -fbranch-count-reg -fcommon
# -fdelete-null-pointer-checks -fdwarf2-cfi-asm -fearly-inlining
# -feliminate-unused-debug-types -ffunction-cse -fgcse-lm -fgnu-runtime
# -fident -finline-atomics -fira-hoist-pressure -fira-share-save-slots
# -fira-share-spill-slots -fivopts -fkeep-static-consts
# -fleading-underscore -fmath-errno -fmerge-debug-strings
# -fmove-loop-invariants -fpeephole -fprefetch-loop-arrays
# -freg-struct-return -fsched-critical-path-heuristic
# -fsched-dep-count-heuristic -fsched-group-heuristic -fsched-interblock
# -fsched-last-insn-heuristic -fsched-rank-heuristic -fsched-spec
# -fsched-spec-insn-heuristic -fsched-stalled-insns-dep -fshow-column
# -fsigned-zeros -fsplit-ivs-in-unroller -fstack-protector
# -fstrict-volatile-bitfields -fsync-libcalls -ftrapping-math
# -ftree-coalesce-vars -ftree-cselim -ftree-forwprop -ftree-loop-if-convert
# -ftree-loop-im -ftree-loop-ivcanon -ftree-loop-optimize
# -ftree-parallelize-loops= -ftree-phiprop -ftree-pta -ftree-reassoc
# -ftree-scev-cprop -ftree-slp-vectorize -ftree-vect-loop-version
# -funit-at-a-time -funwind-tables -fverbose-asm -fzero-initialized-in-bss
# -m128bit-long-double -m64 -m80387 -maccumulate-outgoing-args
# -malign-stringops -mfancy-math-387 -mfp-ret-in-387 -mfxsr -mglibc
# -mieee-fp -mlong-double-80 -mmmx -mno-sse4 -mpush-args -mred-zone -msse
# -msse2 -mtls-direct-seg-refs

	.text
.Ltext0:
	.globl	Perl_pp_const
	.type	Perl_pp_const, @function
Perl_pp_const:
.LFB2:
	.file 1 "pp_hot.c"
	.loc 1 43 0
	.cfi_startproc
	pushq	%rbp	#
	.cfi_def_cfa_offset 16
	.cfi_offset 6, -16
	movq	%rsp, %rbp	#,
	.cfi_def_cfa_register 6
	pushq	%rbx	#
	subq	$8, %rsp	#,
	.cfi_offset 3, -24
	.loc 1 44 0
	movq	PL_stack_sp(%rip), %rbx	# PL_stack_sp, sp
.LBB2:
	.loc 1 45 0
	movq	PL_stack_max(%rip), %rax	# PL_stack_max, PL_stack_max.0
	movq	%rax, %rdx	# PL_stack_max.0, PL_stack_max.1
	movq	%rbx, %rax	# sp, sp.2
	subq	%rax, %rdx	# sp.2, D.17945
	movq	%rdx, %rax	# D.17945, D.17945
	cmpq	$7, %rax	#, D.17945
	jg	.L2	#,
	.loc 1 45 0 is_stmt 0 discriminator 1
	movl	$1, %edx	#,
	movq	%rbx, %rsi	# sp,
	movq	%rbx, %rdi	# sp,
	call	Perl_stack_grow	#
	movq	%rax, %rbx	#, sp
.L2:
	.loc 1 45 0 discriminator 2
	addq	$8, %rbx	#, sp
	movq	PL_op(%rip), %rax	# PL_op, PL_op.3
	movq	40(%rax), %rax	# MEM[(struct SVOP *)PL_op.3_9].op_sv, D.17946
	movq	%rax, (%rbx)	# D.17946, *sp_8
.LBE2:
	.loc 1 46 0 is_stmt 1 discriminator 2
	movq	%rbx, PL_stack_sp(%rip)	# sp, PL_stack_sp
	movq	PL_op(%rip), %rax	# PL_op, PL_op.4
	movq	(%rax), %rax	# PL_op.4_12->op_next, D.17947
	.loc 1 47 0 discriminator 2
	addq	$8, %rsp	#,
	popq	%rbx	#
	popq	%rbp	#
	.cfi_def_cfa 7, 8
	ret
	.cfi_endproc
.LFE2:
	.size	Perl_pp_const, .-Perl_pp_const
	.globl	Perl_pp_nextstate
	.type	Perl_pp_nextstate, @function
Perl_pp_nextstate:
.LFB3:
	.loc 1 50 0
	.cfi_startproc
	pushq	%rbp	#
	.cfi_def_cfa_offset 16
	.cfi_offset 6, -16
	movq	%rsp, %rbp	#,
	.cfi_def_cfa_register 6
	.loc 1 51 0
	movq	PL_op(%rip), %rax	# PL_op, PL_op.5
	movq	%rax, PL_curcop(%rip)	# PL_op.5, PL_curcop
	.loc 1 52 0
	movb	$0, PL_tainted(%rip)	#, PL_tainted
	.loc 1 53 0
	movq	PL_stack_base(%rip), %rcx	# PL_stack_base, PL_stack_base.6
	movq	PL_curstackinfo(%rip), %rax	# PL_curstackinfo, PL_curstackinfo.7
	movq	8(%rax), %rsi	# PL_curstackinfo.7_3->si_cxstack, D.17948
	movq	PL_curstackinfo(%rip), %rax	# PL_curstackinfo, PL_curstackinfo.8
	movl	16(%rax), %eax	# PL_curstackinfo.8_5->si_cxix, D.17949
	movslq	%eax, %rdx	# D.17949, D.17950
	movq	%rdx, %rax	# D.17950, tmp77
	salq	$3, %rax	#, tmp77
	addq	%rdx, %rax	# D.17950, tmp77
	salq	$4, %rax	#, tmp78
	addq	%rsi, %rax	# D.17948, D.17948
	movl	8(%rax), %eax	# _9->cx_u.cx_blk.blku_oldsp, D.17949
	cltq
	salq	$3, %rax	#, D.17950
	addq	%rcx, %rax	# PL_stack_base.6, PL_stack_sp.9
	movq	%rax, PL_stack_sp(%rip)	# PL_stack_sp.9, PL_stack_sp
	.loc 1 54 0
	movl	PL_tmps_ix(%rip), %edx	# PL_tmps_ix, PL_tmps_ix.10
	movl	PL_tmps_floor(%rip), %eax	# PL_tmps_floor, PL_tmps_floor.11
	cmpl	%eax, %edx	# PL_tmps_floor.11, PL_tmps_ix.10
	jle	.L5	#,
	.loc 1 54 0 is_stmt 0 discriminator 1
	call	Perl_free_tmps	#
.L5:
	.loc 1 55 0 is_stmt 1
	movq	PL_op(%rip), %rax	# PL_op, PL_op.12
	movq	(%rax), %rax	# PL_op.12_16->op_next, D.17951
	.loc 1 56 0
	popq	%rbp	#
	.cfi_def_cfa 7, 8
	ret
	.cfi_endproc
.LFE3:
	.size	Perl_pp_nextstate, .-Perl_pp_nextstate
	.globl	Perl_pp_gvsv
	.type	Perl_pp_gvsv, @function
Perl_pp_gvsv:
.LFB4:
	.loc 1 59 0
	.cfi_startproc
	pushq	%rbp	#
	.cfi_def_cfa_offset 16
	.cfi_offset 6, -16
	movq	%rsp, %rbp	#,
	.cfi_def_cfa_register 6
	pushq	%rbx	#
	subq	$8, %rsp	#,
	.cfi_offset 3, -24
	.loc 1 60 0
	movq	PL_stack_sp(%rip), %rbx	# PL_stack_sp, sp
	.loc 1 61 0
	movq	PL_stack_max(%rip), %rax	# PL_stack_max, PL_stack_max.13
	movq	%rax, %rdx	# PL_stack_max.13, PL_stack_max.14
	movq	%rbx, %rax	# sp, sp.15
	subq	%rax, %rdx	# sp.15, D.17952
	movq	%rdx, %rax	# D.17952, D.17952
	cmpq	$7, %rax	#, D.17952
	jg	.L8	#,
	.loc 1 61 0 is_stmt 0 discriminator 1
	movl	$1, %edx	#,
	movq	%rbx, %rsi	# sp,
	movq	%rbx, %rdi	# sp,
	call	Perl_stack_grow	#
	movq	%rax, %rbx	#, sp
.L8:
	.loc 1 62 0 is_stmt 1
	movq	PL_op(%rip), %rax	# PL_op, PL_op.16
	movzbl	37(%rax), %eax	# PL_op.16_9->op_private, D.17953
	testb	%al, %al	# D.17954
	jns	.L9	#,
	.loc 1 63 0
	addq	$8, %rbx	#, sp
	movq	PL_op(%rip), %rax	# PL_op, PL_op.17
	movq	40(%rax), %rax	# MEM[(struct SVOP *)PL_op.17_13].op_sv, D.17955
	movq	%rax, %rdi	# D.17955,
	call	Perl_save_scalar	#
	movq	%rax, (%rbx)	# D.17955, *sp_12
	jmp	.L10	#
.L9:
	.loc 1 65 0
	addq	$8, %rbx	#, sp
	movq	PL_op(%rip), %rax	# PL_op, PL_op.18
	movq	40(%rax), %rax	# MEM[(struct SVOP *)PL_op.18_17].op_sv, D.17955
	movq	(%rax), %rax	# MEM[(struct GV *)_18].sv_any, D.17956
	movq	56(%rax), %rax	# _19->xgv_gp, D.17957
	movq	(%rax), %rax	# _20->gp_sv, D.17955
	movq	%rax, (%rbx)	# D.17955, *sp_16
.L10:
	.loc 1 66 0
	movq	%rbx, PL_stack_sp(%rip)	# sp, PL_stack_sp
	movq	PL_op(%rip), %rax	# PL_op, PL_op.19
	movq	(%rax), %rax	# PL_op.19_22->op_next, D.17958
	.loc 1 67 0
	addq	$8, %rsp	#,
	popq	%rbx	#
	popq	%rbp	#
	.cfi_def_cfa 7, 8
	ret
	.cfi_endproc
.LFE4:
	.size	Perl_pp_gvsv, .-Perl_pp_gvsv
	.globl	Perl_pp_null
	.type	Perl_pp_null, @function
Perl_pp_null:
.LFB5:
	.loc 1 70 0
	.cfi_startproc
	pushq	%rbp	#
	.cfi_def_cfa_offset 16
	.cfi_offset 6, -16
	movq	%rsp, %rbp	#,
	.cfi_def_cfa_register 6
	.loc 1 71 0
	movq	PL_op(%rip), %rax	# PL_op, PL_op.20
	movq	(%rax), %rax	# PL_op.20_1->op_next, D.17959
	.loc 1 72 0
	popq	%rbp	#
	.cfi_def_cfa 7, 8
	ret
	.cfi_endproc
.LFE5:
	.size	Perl_pp_null, .-Perl_pp_null
	.globl	Perl_pp_setstate
	.type	Perl_pp_setstate, @function
Perl_pp_setstate:
.LFB6:
	.loc 1 75 0
	.cfi_startproc
	pushq	%rbp	#
	.cfi_def_cfa_offset 16
	.cfi_offset 6, -16
	movq	%rsp, %rbp	#,
	.cfi_def_cfa_register 6
	.loc 1 76 0
	movq	PL_op(%rip), %rax	# PL_op, PL_op.21
	movq	%rax, PL_curcop(%rip)	# PL_op.21, PL_curcop
	.loc 1 77 0
	movq	PL_op(%rip), %rax	# PL_op, PL_op.22
	movq	(%rax), %rax	# PL_op.22_2->op_next, D.17960
	.loc 1 78 0
	popq	%rbp	#
	.cfi_def_cfa 7, 8
	ret
	.cfi_endproc
.LFE6:
	.size	Perl_pp_setstate, .-Perl_pp_setstate
	.globl	Perl_pp_pushmark
	.type	Perl_pp_pushmark, @function
Perl_pp_pushmark:
.LFB7:
	.loc 1 81 0
	.cfi_startproc
	pushq	%rbp	#
	.cfi_def_cfa_offset 16
	.cfi_offset 6, -16
	movq	%rsp, %rbp	#,
	.cfi_def_cfa_register 6
.LBB3:
	.loc 1 82 0
	movq	PL_markstack_ptr(%rip), %rax	# PL_markstack_ptr, PL_markstack_ptr.23
	addq	$4, %rax	#, PL_markstack_ptr.24
	movq	%rax, PL_markstack_ptr(%rip)	# PL_markstack_ptr.24, PL_markstack_ptr
	movq	PL_markstack_ptr(%rip), %rdx	# PL_markstack_ptr, PL_markstack_ptr.25
	movq	PL_markstack_max(%rip), %rax	# PL_markstack_max, PL_markstack_max.26
	cmpq	%rax, %rdx	# PL_markstack_max.26, PL_markstack_ptr.25
	jne	.L17	#,
	.loc 1 82 0 is_stmt 0 discriminator 1
	call	Perl_markstack_grow	#
.L17:
	.loc 1 82 0 discriminator 2
	movq	PL_markstack_ptr(%rip), %rax	# PL_markstack_ptr, PL_markstack_ptr.27
	movq	PL_stack_sp(%rip), %rdx	# PL_stack_sp, PL_stack_sp.28
	movq	%rdx, %rcx	# PL_stack_sp.28, PL_stack_sp.29
	movq	PL_stack_base(%rip), %rdx	# PL_stack_base, PL_stack_base.30
	subq	%rdx, %rcx	# PL_stack_base.31, D.17961
	movq	%rcx, %rdx	# D.17961, D.17961
	sarq	$3, %rdx	#, tmp75
	movl	%edx, (%rax)	# D.17962, *PL_markstack_ptr.27_5
.LBE3:
	.loc 1 83 0 is_stmt 1 discriminator 2
	movq	PL_op(%rip), %rax	# PL_op, PL_op.32
	movq	(%rax), %rax	# PL_op.32_14->op_next, D.17964
	.loc 1 84 0 discriminator 2
	popq	%rbp	#
	.cfi_def_cfa 7, 8
	ret
	.cfi_endproc
.LFE7:
	.size	Perl_pp_pushmark, .-Perl_pp_pushmark
	.globl	Perl_pp_stringify
	.type	Perl_pp_stringify, @function
Perl_pp_stringify:
.LFB8:
	.loc 1 87 0
	.cfi_startproc
	pushq	%rbp	#
	.cfi_def_cfa_offset 16
	.cfi_offset 6, -16
	movq	%rsp, %rbp	#,
	.cfi_def_cfa_register 6
	pushq	%rbx	#
	subq	$24, %rsp	#,
	.cfi_offset 3, -24
	.loc 1 88 0
	movq	PL_stack_sp(%rip), %rbx	# PL_stack_sp, sp
	movq	PL_curpad(%rip), %rdx	# PL_curpad, PL_curpad.33
	movq	PL_op(%rip), %rax	# PL_op, PL_op.34
	movq	24(%rax), %rax	# PL_op.34_3->op_targ, D.17965
	salq	$3, %rax	#, D.17965
	addq	%rdx, %rax	# PL_curpad.33, D.17966
	movq	(%rax), %rax	# *_6, tmp72
	movq	%rax, -24(%rbp)	# tmp72, targ
	.loc 1 89 0
	movq	(%rbx), %rdx	# *sp_1, D.17967
	movq	-24(%rbp), %rax	# targ, tmp73
	movq	%rdx, %rsi	# D.17967,
	movq	%rax, %rdi	# tmp73,
	call	Perl_sv_copypv	#
.LBB4:
	.loc 1 90 0
	movq	-24(%rbp), %rax	# targ, tmp74
	movl	12(%rax), %eax	# targ_7->sv_flags, D.17968
	andl	$16384, %eax	#, D.17968
	testl	%eax, %eax	# D.17968
	je	.L20	#,
	.loc 1 90 0 is_stmt 0 discriminator 1
	movq	-24(%rbp), %rax	# targ, tmp75
	movq	%rax, %rdi	# tmp75,
	call	Perl_mg_set	#
.L20:
	.loc 1 90 0 discriminator 2
	movq	-24(%rbp), %rax	# targ, tmp76
	movq	%rax, (%rbx)	# tmp76, *sp_1
.LBE4:
	.loc 1 91 0 is_stmt 1 discriminator 2
	movq	%rbx, PL_stack_sp(%rip)	# sp, PL_stack_sp
	movq	PL_op(%rip), %rax	# PL_op, PL_op.35
	movq	(%rax), %rax	# PL_op.35_12->op_next, D.17969
	.loc 1 92 0 discriminator 2
	addq	$24, %rsp	#,
	popq	%rbx	#
	popq	%rbp	#
	.cfi_def_cfa 7, 8
	ret
	.cfi_endproc
.LFE8:
	.size	Perl_pp_stringify, .-Perl_pp_stringify
	.globl	Perl_pp_gv
	.type	Perl_pp_gv, @function
Perl_pp_gv:
.LFB9:
	.loc 1 95 0
	.cfi_startproc
	pushq	%rbp	#
	.cfi_def_cfa_offset 16
	.cfi_offset 6, -16
	movq	%rsp, %rbp	#,
	.cfi_def_cfa_register 6
	pushq	%rbx	#
	subq	$8, %rsp	#,
	.cfi_offset 3, -24
	.loc 1 96 0
	movq	PL_stack_sp(%rip), %rbx	# PL_stack_sp, sp
.LBB5:
	.loc 1 97 0
	movq	PL_stack_max(%rip), %rax	# PL_stack_max, PL_stack_max.36
	movq	%rax, %rdx	# PL_stack_max.36, PL_stack_max.37
	movq	%rbx, %rax	# sp, sp.38
	subq	%rax, %rdx	# sp.38, D.17970
	movq	%rdx, %rax	# D.17970, D.17970
	cmpq	$7, %rax	#, D.17970
	jg	.L23	#,
	.loc 1 97 0 is_stmt 0 discriminator 1
	movl	$1, %edx	#,
	movq	%rbx, %rsi	# sp,
	movq	%rbx, %rdi	# sp,
	call	Perl_stack_grow	#
	movq	%rax, %rbx	#, sp
.L23:
	.loc 1 97 0 discriminator 2
	addq	$8, %rbx	#, sp
	movq	PL_op(%rip), %rax	# PL_op, PL_op.39
	movq	40(%rax), %rax	# MEM[(struct SVOP *)PL_op.39_9].op_sv, D.17971
	movq	%rax, (%rbx)	# D.17971, *sp_8
.LBE5:
	.loc 1 98 0 is_stmt 1 discriminator 2
	movq	%rbx, PL_stack_sp(%rip)	# sp, PL_stack_sp
	movq	PL_op(%rip), %rax	# PL_op, PL_op.40
	movq	(%rax), %rax	# PL_op.40_12->op_next, D.17972
	.loc 1 99 0 discriminator 2
	addq	$8, %rsp	#,
	popq	%rbx	#
	popq	%rbp	#
	.cfi_def_cfa 7, 8
	ret
	.cfi_endproc
.LFE9:
	.size	Perl_pp_gv, .-Perl_pp_gv
	.globl	Perl_pp_and
	.type	Perl_pp_and, @function
Perl_pp_and:
.LFB10:
	.loc 1 102 0
	.cfi_startproc
	pushq	%rbp	#
	.cfi_def_cfa_offset 16
	.cfi_offset 6, -16
	movq	%rsp, %rbp	#,
	.cfi_def_cfa_register 6
	pushq	%rbx	#
	subq	$8, %rsp	#,
	.cfi_offset 3, -24
	.loc 1 103 0
	movq	PL_stack_sp(%rip), %rbx	# PL_stack_sp, sp
	.loc 1 104 0
	movq	(%rbx), %rax	# *sp_7, D.17974
	testq	%rax, %rax	# D.17974
	je	.L26	#,
	.loc 1 104 0 is_stmt 0 discriminator 1
	movq	(%rbx), %rax	# *sp_7, D.17974
	movl	12(%rax), %eax	# _9->sv_flags, D.17975
	andl	$262144, %eax	#, D.17975
	testl	%eax, %eax	# D.17975
	je	.L27	#,
	.loc 1 104 0 discriminator 3
	movq	(%rbx), %rax	# *sp_7, D.17974
	movq	(%rax), %rax	# _12->sv_any, PL_Xpv.44
	movq	%rax, PL_Xpv(%rip)	# PL_Xpv.44, PL_Xpv
	movq	PL_Xpv(%rip), %rax	# PL_Xpv, PL_Xpv.45
	testq	%rax, %rax	# PL_Xpv.45
	je	.L28	#,
	.loc 1 104 0 discriminator 6
	movq	PL_Xpv(%rip), %rax	# PL_Xpv, PL_Xpv.46
	movq	8(%rax), %rax	# PL_Xpv.46_15->xpv_cur, D.17976
	cmpq	$1, %rax	#, D.17976
	ja	.L29	#,
	.loc 1 104 0 discriminator 7
	movq	PL_Xpv(%rip), %rax	# PL_Xpv, PL_Xpv.47
	movq	8(%rax), %rax	# PL_Xpv.47_17->xpv_cur, D.17976
	testq	%rax, %rax	# D.17976
	je	.L28	#,
	.loc 1 104 0 discriminator 1
	movq	PL_Xpv(%rip), %rax	# PL_Xpv, PL_Xpv.48
	movq	(%rax), %rax	# PL_Xpv.48_19->xpv_pv, D.17977
	movzbl	(%rax), %eax	# *_20, D.17978
	cmpb	$48, %al	#, D.17978
	jne	.L29	#,
.L28:
	.loc 1 104 0 discriminator 5
	movl	$1, %eax	#, iftmp.43
	jmp	.L30	#
.L29:
	.loc 1 104 0 discriminator 8
	movl	$0, %eax	#, iftmp.43
.L30:
	.loc 1 104 0 discriminator 9
	andl	$1, %eax	#, iftmp.42
	jmp	.L36	#
.L27:
	.loc 1 104 0 discriminator 4
	movq	(%rbx), %rax	# *sp_7, D.17974
	movl	12(%rax), %eax	# _25->sv_flags, D.17975
	andl	$65536, %eax	#, D.17975
	testl	%eax, %eax	# D.17975
	je	.L32	#,
	.loc 1 104 0 discriminator 10
	movq	(%rbx), %rax	# *sp_7, D.17974
	movq	(%rax), %rax	# _28->sv_any, D.17979
	movq	24(%rax), %rax	# MEM[(struct XPVIV *)_29].xiv_iv, D.17980
	testq	%rax, %rax	# D.17980
	sete	%al	#, iftmp.49
	jmp	.L36	#
.L32:
	.loc 1 104 0 discriminator 11
	movq	(%rbx), %rax	# *sp_7, D.17974
	movl	12(%rax), %eax	# _32->sv_flags, D.17975
	andl	$131072, %eax	#, D.17975
	testl	%eax, %eax	# D.17975
	je	.L34	#,
	.loc 1 104 0 discriminator 12
	movq	(%rbx), %rax	# *sp_7, D.17974
	movq	(%rax), %rax	# _35->sv_any, D.17979
	movsd	32(%rax), %xmm0	# MEM[(struct XPVNV *)_36].xnv_nv, D.17981
	xorpd	%xmm1, %xmm1	# tmp98
	ucomisd	%xmm1, %xmm0	# tmp98, D.17981
	setnp	%dl	#, tmp97
	movl	$0, %eax	#, tmp100
	xorpd	%xmm1, %xmm1	# tmp99
	ucomisd	%xmm1, %xmm0	# tmp99, D.17981
	cmove	%edx, %eax	# tmp97,, iftmp.50
	jmp	.L36	#
.L34:
	.loc 1 104 0 discriminator 13
	movq	(%rbx), %rax	# *sp_7, D.17974
	movq	%rax, %rdi	# D.17974,
	call	Perl_sv_2bool	#
	testb	%al, %al	# D.17978
	sete	%al	#, iftmp.50
	jmp	.L36	#
.L26:
	.loc 1 104 0 discriminator 2
	movl	$1, %eax	#, iftmp.41
.L36:
	.loc 1 104 0 discriminator 16
	testb	%al, %al	# iftmp.41
	je	.L37	#,
	.loc 1 105 0 is_stmt 1
	movq	%rbx, PL_stack_sp(%rip)	# sp, PL_stack_sp
	movq	PL_op(%rip), %rax	# PL_op, PL_op.51
	movq	(%rax), %rax	# PL_op.51_46->op_next, D.17973
	jmp	.L38	#
.L37:
	.loc 1 107 0
	subq	$8, %rbx	#, sp
	.loc 1 108 0
	movq	%rbx, PL_stack_sp(%rip)	# sp, PL_stack_sp
	movq	PL_op(%rip), %rax	# PL_op, PL_op.52
	movq	48(%rax), %rax	# MEM[(struct LOGOP *)PL_op.52_49].op_other, D.17973
.L38:
	.loc 1 110 0
	addq	$8, %rsp	#,
	popq	%rbx	#
	popq	%rbp	#
	.cfi_def_cfa 7, 8
	ret
	.cfi_endproc
.LFE10:
	.size	Perl_pp_and, .-Perl_pp_and
	.globl	Perl_pp_sassign
	.type	Perl_pp_sassign, @function
Perl_pp_sassign:
.LFB11:
	.loc 1 113 0
	.cfi_startproc
	pushq	%rbp	#
	.cfi_def_cfa_offset 16
	.cfi_offset 6, -16
	movq	%rsp, %rbp	#,
	.cfi_def_cfa_register 6
	pushq	%rbx	#
	subq	$40, %rsp	#,
	.cfi_offset 3, -24
	.loc 1 114 0
	movq	PL_stack_sp(%rip), %rbx	# PL_stack_sp, sp
	movq	%rbx, %rax	# sp, sp.53
	leaq	-8(%rax), %rbx	#, sp
	movq	(%rax), %rax	# *sp.53_4, tmp75
	movq	%rax, -40(%rbp)	# tmp75, right
	movq	(%rbx), %rax	# *sp_5, tmp76
	movq	%rax, -32(%rbp)	# tmp76, left
	.loc 1 116 0
	movq	PL_op(%rip), %rax	# PL_op, PL_op.54
	movzbl	37(%rax), %eax	# PL_op.54_8->op_private, D.17982
	movzbl	%al, %eax	# D.17982, D.17983
	andl	$64, %eax	#, D.17983
	testl	%eax, %eax	# D.17983
	je	.L40	#,
.LBB6:
	.loc 1 118 0
	movq	-32(%rbp), %rax	# left, tmp77
	movq	%rax, -24(%rbp)	# tmp77, temp
	movq	-40(%rbp), %rax	# right, tmp78
	movq	%rax, -32(%rbp)	# tmp78, left
	movq	-24(%rbp), %rax	# temp, tmp79
	movq	%rax, -40(%rbp)	# tmp79, right
.L40:
.LBE6:
	.loc 1 120 0
	movzbl	PL_tainting(%rip), %eax	# PL_tainting, PL_tainting.55
	testb	%al, %al	# PL_tainting.55
	je	.L41	#,
	.loc 1 120 0 is_stmt 0 discriminator 1
	movzbl	PL_tainted(%rip), %eax	# PL_tainted, PL_tainted.56
	testb	%al, %al	# PL_tainted.56
	je	.L41	#,
	movq	-32(%rbp), %rax	# left, tmp80
	movl	12(%rax), %eax	# left_2->sv_flags, D.17984
	andl	$57344, %eax	#, D.17984
	testl	%eax, %eax	# D.17984
	je	.L42	#,
	movq	-32(%rbp), %rax	# left, tmp81
	movq	%rax, %rdi	# tmp81,
	call	Perl_sv_tainted	#
	testb	%al, %al	# D.17985
	jne	.L41	#,
.L42:
	.loc 1 121 0 is_stmt 1
	movb	$0, PL_tainted(%rip)	#, PL_tainted
.L41:
	.loc 1 122 0
	movq	-40(%rbp), %rax	# right, tmp82
	cmpq	-32(%rbp), %rax	# left, tmp82
	je	.L43	#,
	.loc 1 122 0 is_stmt 0 discriminator 1
	movq	-32(%rbp), %rcx	# left, tmp83
	movq	-40(%rbp), %rax	# right, tmp84
	movl	$2, %edx	#,
	movq	%rcx, %rsi	# tmp83,
	movq	%rax, %rdi	# tmp84,
	call	Perl_sv_setsv_flags	#
	movq	-40(%rbp), %rax	# right, tmp85
	movl	12(%rax), %eax	# right_1->sv_flags, D.17984
	andl	$16384, %eax	#, D.17984
	testl	%eax, %eax	# D.17984
	je	.L43	#,
	movq	-40(%rbp), %rax	# right, tmp86
	movq	%rax, %rdi	# tmp86,
	call	Perl_mg_set	#
.L43:
	.loc 1 123 0 is_stmt 1
	movq	-40(%rbp), %rax	# right, tmp87
	movq	%rax, (%rbx)	# tmp87, *sp_5
	.loc 1 124 0
	movq	%rbx, PL_stack_sp(%rip)	# sp, PL_stack_sp
	movq	PL_op(%rip), %rax	# PL_op, PL_op.57
	movq	(%rax), %rax	# PL_op.57_22->op_next, D.17986
	.loc 1 125 0
	addq	$40, %rsp	#,
	popq	%rbx	#
	popq	%rbp	#
	.cfi_def_cfa 7, 8
	ret
	.cfi_endproc
.LFE11:
	.size	Perl_pp_sassign, .-Perl_pp_sassign
	.globl	Perl_pp_cond_expr
	.type	Perl_pp_cond_expr, @function
Perl_pp_cond_expr:
.LFB12:
	.loc 1 128 0
	.cfi_startproc
	pushq	%rbp	#
	.cfi_def_cfa_offset 16
	.cfi_offset 6, -16
	movq	%rsp, %rbp	#,
	.cfi_def_cfa_register 6
	pushq	%rbx	#
	subq	$8, %rsp	#,
	.cfi_offset 3, -24
	.loc 1 129 0
	movq	PL_stack_sp(%rip), %rbx	# PL_stack_sp, sp
	.loc 1 130 0
	movq	%rbx, %rax	# sp, sp.58
	leaq	-8(%rax), %rbx	#, sp
	movq	(%rax), %rax	# *sp.58_8, PL_Sv.59
	movq	%rax, PL_Sv(%rip)	# PL_Sv.59, PL_Sv
	movq	PL_Sv(%rip), %rax	# PL_Sv, PL_Sv.61
	testq	%rax, %rax	# PL_Sv.61
	je	.L46	#,
	.loc 1 130 0 is_stmt 0 discriminator 1
	movq	PL_Sv(%rip), %rax	# PL_Sv, PL_Sv.63
	movl	12(%rax), %eax	# PL_Sv.63_12->sv_flags, D.17988
	andl	$262144, %eax	#, D.17988
	testl	%eax, %eax	# D.17988
	je	.L47	#,
	.loc 1 130 0 discriminator 3
	movq	PL_Sv(%rip), %rax	# PL_Sv, PL_Sv.65
	movq	(%rax), %rax	# PL_Sv.65_15->sv_any, PL_Xpv.66
	movq	%rax, PL_Xpv(%rip)	# PL_Xpv.66, PL_Xpv
	movq	PL_Xpv(%rip), %rax	# PL_Xpv, PL_Xpv.67
	testq	%rax, %rax	# PL_Xpv.67
	je	.L48	#,
	.loc 1 130 0 discriminator 1
	movq	PL_Xpv(%rip), %rax	# PL_Xpv, PL_Xpv.68
	movq	8(%rax), %rax	# PL_Xpv.68_18->xpv_cur, D.17989
	cmpq	$1, %rax	#, D.17989
	ja	.L49	#,
	.loc 1 130 0 discriminator 4
	movq	PL_Xpv(%rip), %rax	# PL_Xpv, PL_Xpv.69
	movq	8(%rax), %rax	# PL_Xpv.69_20->xpv_cur, D.17989
	testq	%rax, %rax	# D.17989
	je	.L48	#,
	.loc 1 130 0 discriminator 1
	movq	PL_Xpv(%rip), %rax	# PL_Xpv, PL_Xpv.70
	movq	(%rax), %rax	# PL_Xpv.70_22->xpv_pv, D.17990
	movzbl	(%rax), %eax	# *_23, D.17991
	cmpb	$48, %al	#, D.17991
	je	.L48	#,
.L49:
	.loc 1 130 0 discriminator 3
	movl	$1, %eax	#, iftmp.64
	jmp	.L50	#
.L48:
	.loc 1 130 0 discriminator 2
	movl	$0, %eax	#, iftmp.64
.L50:
	.loc 1 130 0 discriminator 5
	testl	%eax, %eax	# iftmp.64
	setne	%al	#, iftmp.62
	jmp	.L56	#
.L47:
	.loc 1 130 0 discriminator 4
	movq	PL_Sv(%rip), %rax	# PL_Sv, PL_Sv.72
	movl	12(%rax), %eax	# PL_Sv.72_28->sv_flags, D.17988
	andl	$65536, %eax	#, D.17988
	testl	%eax, %eax	# D.17988
	je	.L52	#,
	.loc 1 130 0 discriminator 5
	movq	PL_Sv(%rip), %rax	# PL_Sv, PL_Sv.73
	movq	(%rax), %rax	# PL_Sv.73_31->sv_any, D.17992
	movq	24(%rax), %rax	# MEM[(struct XPVIV *)_32].xiv_iv, D.17993
	testq	%rax, %rax	# D.17993
	setne	%al	#, iftmp.71
	jmp	.L56	#
.L52:
	.loc 1 130 0 discriminator 6
	movq	PL_Sv(%rip), %rax	# PL_Sv, PL_Sv.75
	movl	12(%rax), %eax	# PL_Sv.75_35->sv_flags, D.17988
	andl	$131072, %eax	#, D.17988
	testl	%eax, %eax	# D.17988
	je	.L54	#,
	.loc 1 130 0 discriminator 7
	movq	PL_Sv(%rip), %rax	# PL_Sv, PL_Sv.76
	movq	(%rax), %rax	# PL_Sv.76_38->sv_any, D.17992
	movsd	32(%rax), %xmm0	# MEM[(struct XPVNV *)_39].xnv_nv, D.17994
	xorpd	%xmm1, %xmm1	# tmp100
	ucomisd	%xmm1, %xmm0	# tmp100, D.17994
	setp	%dl	#, tmp99
	movl	$1, %eax	#, tmp102
	xorpd	%xmm1, %xmm1	# tmp101
	ucomisd	%xmm1, %xmm0	# tmp101, D.17994
	cmove	%edx, %eax	# tmp99,, iftmp.74
	jmp	.L56	#
.L54:
	.loc 1 130 0 discriminator 8
	movq	PL_Sv(%rip), %rax	# PL_Sv, PL_Sv.77
	movq	%rax, %rdi	# PL_Sv.77,
	call	Perl_sv_2bool	#
	testb	%al, %al	# D.17991
	setne	%al	#, iftmp.74
	jmp	.L56	#
.L46:
	.loc 1 130 0 discriminator 2
	movl	$0, %eax	#, iftmp.60
.L56:
	.loc 1 130 0 discriminator 11
	testb	%al, %al	# iftmp.60
	je	.L57	#,
	.loc 1 131 0 is_stmt 1
	movq	%rbx, PL_stack_sp(%rip)	# sp, PL_stack_sp
	movq	PL_op(%rip), %rax	# PL_op, PL_op.78
	movq	48(%rax), %rax	# MEM[(struct LOGOP *)PL_op.78_49].op_other, D.17987
	jmp	.L58	#
.L57:
	.loc 1 133 0
	movq	%rbx, PL_stack_sp(%rip)	# sp, PL_stack_sp
	movq	PL_op(%rip), %rax	# PL_op, PL_op.79
	movq	(%rax), %rax	# MEM[(struct LOGOP *)PL_op.79_51].op_next, D.17987
.L58:
	.loc 1 134 0
	addq	$8, %rsp	#,
	popq	%rbx	#
	popq	%rbp	#
	.cfi_def_cfa 7, 8
	ret
	.cfi_endproc
.LFE12:
	.size	Perl_pp_cond_expr, .-Perl_pp_cond_expr
	.globl	Perl_pp_unstack
	.type	Perl_pp_unstack, @function
Perl_pp_unstack:
.LFB13:
	.loc 1 137 0
	.cfi_startproc
	pushq	%rbp	#
	.cfi_def_cfa_offset 16
	.cfi_offset 6, -16
	movq	%rsp, %rbp	#,
	.cfi_def_cfa_register 6
	subq	$16, %rsp	#,
	.loc 1 139 0
	movb	$0, PL_tainted(%rip)	#, PL_tainted
	.loc 1 140 0
	movq	PL_stack_base(%rip), %rcx	# PL_stack_base, PL_stack_base.80
	movq	PL_curstackinfo(%rip), %rax	# PL_curstackinfo, PL_curstackinfo.81
	movq	8(%rax), %rsi	# PL_curstackinfo.81_2->si_cxstack, D.17995
	movq	PL_curstackinfo(%rip), %rax	# PL_curstackinfo, PL_curstackinfo.82
	movl	16(%rax), %eax	# PL_curstackinfo.82_4->si_cxix, D.17996
	movslq	%eax, %rdx	# D.17996, D.17997
	movq	%rdx, %rax	# D.17997, tmp83
	salq	$3, %rax	#, tmp83
	addq	%rdx, %rax	# D.17997, tmp83
	salq	$4, %rax	#, tmp84
	addq	%rsi, %rax	# D.17995, D.17995
	movl	8(%rax), %eax	# _8->cx_u.cx_blk.blku_oldsp, D.17996
	cltq
	salq	$3, %rax	#, D.17997
	addq	%rcx, %rax	# PL_stack_base.80, PL_stack_sp.83
	movq	%rax, PL_stack_sp(%rip)	# PL_stack_sp.83, PL_stack_sp
	.loc 1 141 0
	movl	PL_tmps_ix(%rip), %edx	# PL_tmps_ix, PL_tmps_ix.84
	movl	PL_tmps_floor(%rip), %eax	# PL_tmps_floor, PL_tmps_floor.85
	cmpl	%eax, %edx	# PL_tmps_floor.85, PL_tmps_ix.84
	jle	.L60	#,
	.loc 1 141 0 is_stmt 0 discriminator 1
	call	Perl_free_tmps	#
.L60:
	.loc 1 142 0 is_stmt 1
	movq	PL_scopestack(%rip), %rax	# PL_scopestack, PL_scopestack.86
	movl	PL_scopestack_ix(%rip), %edx	# PL_scopestack_ix, PL_scopestack_ix.87
	movslq	%edx, %rdx	# PL_scopestack_ix.87, D.17997
	salq	$2, %rdx	#, D.17997
	subq	$4, %rdx	#, D.17998
	addq	%rdx, %rax	# D.17998, D.17999
	movl	(%rax), %eax	# *_20, tmp85
	movl	%eax, -4(%rbp)	# tmp85, oldsave
	.loc 1 143 0
	movl	PL_savestack_ix(%rip), %eax	# PL_savestack_ix, PL_savestack_ix.88
	cmpl	-4(%rbp), %eax	# oldsave, PL_savestack_ix.88
	jle	.L61	#,
	.loc 1 143 0 is_stmt 0 discriminator 1
	movl	-4(%rbp), %eax	# oldsave, tmp86
	movl	%eax, %edi	# tmp86,
	call	Perl_leave_scope	#
.L61:
	.loc 1 144 0 is_stmt 1
	movq	PL_op(%rip), %rax	# PL_op, PL_op.89
	movq	(%rax), %rax	# PL_op.89_23->op_next, D.18000
	.loc 1 145 0
	leave
	.cfi_def_cfa 7, 8
	ret
	.cfi_endproc
.LFE13:
	.size	Perl_pp_unstack, .-Perl_pp_unstack
	.section	.rodata
.LC1:
	.string	""
	.text
	.globl	Perl_pp_concat
	.type	Perl_pp_concat, @function
Perl_pp_concat:
.LFB14:
	.loc 1 148 0
	.cfi_startproc
	pushq	%rbp	#
	.cfi_def_cfa_offset 16
	.cfi_offset 6, -16
	movq	%rsp, %rbp	#,
	.cfi_def_cfa_register 6
	pushq	%rbx	#
	subq	$104, %rsp	#,
	.cfi_offset 3, -24
	.loc 1 149 0
	movq	PL_stack_sp(%rip), %rbx	# PL_stack_sp, sp
	movq	PL_op(%rip), %rax	# PL_op, PL_op.91
	movzbl	36(%rax), %eax	# PL_op.91_19->op_flags, D.18002
	movzbl	%al, %eax	# D.18002, D.18003
	andl	$64, %eax	#, D.18003
	testl	%eax, %eax	# D.18003
	je	.L64	#,
	.loc 1 149 0 is_stmt 0 discriminator 1
	movq	-8(%rbx), %rax	# MEM[(struct SV * *)sp_18 + -8B], iftmp.90
	jmp	.L65	#
.L64:
	.loc 1 149 0 discriminator 2
	movq	PL_curpad(%rip), %rdx	# PL_curpad, PL_curpad.92
	movq	PL_op(%rip), %rax	# PL_op, PL_op.93
	movq	24(%rax), %rax	# PL_op.93_25->op_targ, D.18004
	salq	$3, %rax	#, D.18004
	addq	%rdx, %rax	# PL_curpad.92, D.18005
	movq	(%rax), %rax	# *_28, iftmp.90
.L65:
	.loc 1 149 0 discriminator 3
	movq	%rax, -64(%rbp)	# iftmp.90, targ
	movq	PL_amagic_generation(%rip), %rax	# PL_amagic_generation, PL_amagic_generation.94
	testq	%rax, %rax	# PL_amagic_generation.94
	je	.L66	#,
.LBB7:
	.loc 1 149 0 discriminator 1
	movq	(%rbx), %rax	# *sp_18, tmp169
	movq	%rax, -56(%rbp)	# tmp169, right
	movq	-8(%rbx), %rax	# MEM[(struct SV * *)sp_18 + -8B], tmp170
	movq	%rax, -48(%rbp)	# tmp170, left
	movq	-48(%rbp), %rax	# left, tmp171
	movl	12(%rax), %eax	# left_33->sv_flags, D.18006
	andl	$268435456, %eax	#, D.18006
	testl	%eax, %eax	# D.18006
	jne	.L67	#,
	.loc 1 149 0 discriminator 2
	movq	-56(%rbp), %rax	# right, tmp172
	movl	12(%rax), %eax	# right_32->sv_flags, D.18006
	andl	$268435456, %eax	#, D.18006
	testl	%eax, %eax	# D.18006
	je	.L66	#,
.L67:
	.loc 1 149 0 discriminator 1
	movq	PL_op(%rip), %rax	# PL_op, PL_op.96
	movzbl	36(%rax), %eax	# PL_op.96_38->op_flags, D.18002
	movzbl	%al, %eax	# D.18002, D.18003
	andl	$64, %eax	#, D.18003
	testl	%eax, %eax	# D.18003
	je	.L68	#,
	movl	$4, %eax	#, iftmp.95
	jmp	.L69	#
.L68:
	.loc 1 149 0 discriminator 2
	movl	$0, %eax	#, iftmp.95
.L69:
	.loc 1 149 0 discriminator 3
	movq	-56(%rbp), %rsi	# right, tmp173
	movq	-48(%rbp), %rdi	# left, tmp174
	movl	%eax, %ecx	# iftmp.95,
	movl	$54, %edx	#,
	call	Perl_amagic_call	#
	movq	%rax, -40(%rbp)	# tmp175, tmpsv
	cmpq	$0, -40(%rbp)	#, tmpsv
	je	.L66	#,
	.loc 1 149 0 discriminator 1
	movq	PL_stack_sp(%rip), %rbx	# PL_stack_sp, sp
	movq	%rbx, %rax	# sp, sp.97
	leaq	-8(%rax), %rbx	#, sp
	movq	PL_op(%rip), %rax	# PL_op, PL_op.98
	movzbl	36(%rax), %eax	# PL_op.98_48->op_flags, D.18002
	movzbl	%al, %eax	# D.18002, D.18003
	andl	$64, %eax	#, D.18003
	testl	%eax, %eax	# D.18003
	jne	.L70	#,
	.loc 1 149 0 discriminator 2
	movq	-64(%rbp), %rax	# targ, tmp176
	movl	12(%rax), %eax	# targ_30->sv_flags, D.18006
	andl	$1024, %eax	#, D.18006
	testl	%eax, %eax	# D.18006
	je	.L71	#,
.L70:
	.loc 1 149 0 discriminator 1
	movq	-40(%rbp), %rcx	# tmpsv, tmp177
	movq	-64(%rbp), %rax	# targ, tmp178
	movl	$2, %edx	#,
	movq	%rcx, %rsi	# tmp177,
	movq	%rax, %rdi	# tmp178,
	call	Perl_sv_setsv_flags	#
.LBB8:
	movq	-64(%rbp), %rax	# targ, tmp179
	movl	12(%rax), %eax	# targ_30->sv_flags, D.18006
	andl	$16384, %eax	#, D.18006
	testl	%eax, %eax	# D.18006
	je	.L72	#,
	movq	-64(%rbp), %rax	# targ, tmp180
	movq	%rax, %rdi	# tmp180,
	call	Perl_mg_set	#
.L72:
	.loc 1 149 0 discriminator 2
	movq	-64(%rbp), %rax	# targ, tmp181
	movq	%rax, (%rbx)	# tmp181, *sp_47
.LBE8:
	jmp	.L73	#
.L71:
	.loc 1 149 0 discriminator 1
	movq	-40(%rbp), %rax	# tmpsv, tmp182
	movq	%rax, (%rbx)	# tmp182, *sp_47
.L73:
	movq	%rbx, PL_stack_sp(%rip)	# sp, PL_stack_sp
	movq	PL_op(%rip), %rax	# PL_op, PL_op.99
	movq	(%rax), %rax	# PL_op.99_57->op_next, D.18001
	jmp	.L74	#
.L66:
.LBE7:
.LBB9:
	.loc 1 151 0 is_stmt 1
	movq	%rbx, %rax	# sp, sp.100
	leaq	-8(%rax), %rbx	#, sp
	movq	(%rax), %rax	# *sp.100_59, tmp183
	movq	%rax, -80(%rbp)	# tmp183, right
	movq	(%rbx), %rax	# *sp_60, tmp184
	movq	%rax, -32(%rbp)	# tmp184, left
	.loc 1 156 0
	movq	-80(%rbp), %rax	# right, tmp185
	movl	12(%rax), %eax	# right_61->sv_flags, D.18006
	andl	$262144, %eax	#, D.18006
	testl	%eax, %eax	# D.18006
	je	.L75	#,
	.loc 1 156 0 is_stmt 0 discriminator 1
	movq	-80(%rbp), %rax	# right, tmp186
	movq	(%rax), %rax	# right_61->sv_any, D.18008
	movq	8(%rax), %rax	# MEM[(struct XPV *)_65].xpv_cur, rlen.102
	movq	%rax, -88(%rbp)	# rlen.102, rlen
	movq	-80(%rbp), %rax	# right, tmp187
	movq	(%rax), %rax	# right_61->sv_any, D.18008
	movq	(%rax), %rax	# MEM[(struct XPV *)_67].xpv_pv, iftmp.101
	jmp	.L76	#
.L75:
	.loc 1 156 0 discriminator 2
	leaq	-88(%rbp), %rcx	#, tmp188
	movq	-80(%rbp), %rax	# right, tmp189
	movl	$2, %edx	#,
	movq	%rcx, %rsi	# tmp188,
	movq	%rax, %rdi	# tmp189,
	call	Perl_sv_2pv_flags	#
.L76:
	.loc 1 156 0 discriminator 3
	movq	%rax, -72(%rbp)	# iftmp.101, rpv
	.loc 1 157 0 is_stmt 1 discriminator 3
	movq	-80(%rbp), %rax	# right, tmp190
	movl	12(%rax), %eax	# right_61->sv_flags, D.18006
	andl	$536870912, %eax	#, D.18006
	testl	%eax, %eax	# D.18006
	je	.L77	#,
	.loc 1 157 0 is_stmt 0 discriminator 2
	movq	PL_curcop(%rip), %rax	# PL_curcop, PL_curcop.104
	movzbl	37(%rax), %eax	# PL_curcop.104_73->op_private, D.18002
	movzbl	%al, %eax	# D.18002, D.18003
	andl	$8, %eax	#, D.18003
	testl	%eax, %eax	# D.18003
	je	.L78	#,
.L77:
	.loc 1 157 0 discriminator 1
	movl	$1, %eax	#, iftmp.103
	jmp	.L79	#
.L78:
	.loc 1 157 0 discriminator 3
	movl	$0, %eax	#, iftmp.103
.L79:
	.loc 1 157 0 discriminator 4
	movb	%al, -97(%rbp)	# iftmp.103, rbyte
	movb	$0, -98(%rbp)	#, rcopied
	.loc 1 159 0 is_stmt 1 discriminator 4
	movq	-64(%rbp), %rax	# targ, tmp191
	cmpq	-80(%rbp), %rax	# right, tmp191
	jne	.L80	#,
	.loc 1 159 0 is_stmt 0 discriminator 1
	movq	-80(%rbp), %rax	# right, tmp192
	cmpq	-32(%rbp), %rax	# left, tmp192
	je	.L80	#,
	.loc 1 160 0 is_stmt 1
	movq	-88(%rbp), %rdx	# rlen, rlen.105
	movq	-72(%rbp), %rax	# rpv, tmp193
	movq	%rdx, %rsi	# rlen.105,
	movq	%rax, %rdi	# tmp193,
	call	Perl_newSVpvn	#
	movq	%rax, %rdi	# D.18007,
	call	Perl_sv_2mortal	#
	movq	%rax, -80(%rbp)	# tmp194, right
	.loc 1 161 0
	movq	-80(%rbp), %rax	# right, tmp195
	movl	12(%rax), %eax	# right_83->sv_flags, D.18006
	andl	$262144, %eax	#, D.18006
	testl	%eax, %eax	# D.18006
	je	.L81	#,
	.loc 1 161 0 is_stmt 0 discriminator 1
	movq	-80(%rbp), %rax	# right, tmp196
	movq	(%rax), %rax	# right_83->sv_any, D.18008
	movq	8(%rax), %rax	# MEM[(struct XPV *)_86].xpv_cur, rlen.107
	movq	%rax, -88(%rbp)	# rlen.107, rlen
	movq	-80(%rbp), %rax	# right, tmp197
	movq	(%rax), %rax	# right_83->sv_any, D.18008
	movq	(%rax), %rax	# MEM[(struct XPV *)_88].xpv_pv, iftmp.106
	jmp	.L82	#
.L81:
	.loc 1 161 0 discriminator 2
	leaq	-88(%rbp), %rcx	#, tmp198
	movq	-80(%rbp), %rax	# right, tmp199
	movl	$2, %edx	#,
	movq	%rcx, %rsi	# tmp198,
	movq	%rax, %rdi	# tmp199,
	call	Perl_sv_2pv_flags	#
.L82:
	.loc 1 161 0 discriminator 3
	movq	%rax, -72(%rbp)	# iftmp.106, rpv
	.loc 1 162 0 is_stmt 1 discriminator 3
	movb	$1, -98(%rbp)	#, rcopied
.L80:
	.loc 1 165 0
	movq	-64(%rbp), %rax	# targ, tmp200
	cmpq	-32(%rbp), %rax	# left, tmp200
	je	.L83	#,
	.loc 1 166 0
	movq	-32(%rbp), %rax	# left, tmp201
	movl	12(%rax), %eax	# left_62->sv_flags, D.18006
	andl	$262144, %eax	#, D.18006
	testl	%eax, %eax	# D.18006
	je	.L84	#,
	.loc 1 166 0 is_stmt 0 discriminator 1
	movq	-32(%rbp), %rax	# left, tmp202
	movq	(%rax), %rax	# left_62->sv_any, D.18008
	movq	8(%rax), %rax	# MEM[(struct XPV *)_95].xpv_cur, llen.109
	movq	%rax, -96(%rbp)	# llen.109, llen
	movq	-32(%rbp), %rax	# left, tmp203
	movq	(%rax), %rax	# left_62->sv_any, D.18008
	movq	(%rax), %rax	# MEM[(struct XPV *)_97].xpv_pv, iftmp.108
	jmp	.L85	#
.L84:
	.loc 1 166 0 discriminator 2
	leaq	-96(%rbp), %rcx	#, tmp204
	movq	-32(%rbp), %rax	# left, tmp205
	movl	$2, %edx	#,
	movq	%rcx, %rsi	# tmp204,
	movq	%rax, %rdi	# tmp205,
	call	Perl_sv_2pv_flags	#
.L85:
	.loc 1 166 0 discriminator 3
	movq	%rax, -24(%rbp)	# iftmp.108, lpv
	.loc 1 167 0 is_stmt 1 discriminator 3
	movq	-32(%rbp), %rax	# left, tmp206
	movl	12(%rax), %eax	# left_62->sv_flags, D.18006
	andl	$536870912, %eax	#, D.18006
	testl	%eax, %eax	# D.18006
	je	.L86	#,
	.loc 1 167 0 is_stmt 0 discriminator 2
	movq	PL_curcop(%rip), %rax	# PL_curcop, PL_curcop.111
	movzbl	37(%rax), %eax	# PL_curcop.111_103->op_private, D.18002
	movzbl	%al, %eax	# D.18002, D.18003
	andl	$8, %eax	#, D.18003
	testl	%eax, %eax	# D.18003
	je	.L87	#,
.L86:
	.loc 1 167 0 discriminator 1
	movl	$1, %eax	#, iftmp.110
	jmp	.L88	#
.L87:
	.loc 1 167 0 discriminator 3
	movl	$0, %eax	#, iftmp.110
.L88:
	.loc 1 167 0 discriminator 4
	movb	%al, -99(%rbp)	# iftmp.110, lbyte
	.loc 1 168 0 is_stmt 1 discriminator 4
	movq	-96(%rbp), %rdx	# llen, llen.112
	movq	-24(%rbp), %rcx	# lpv, tmp207
	movq	-64(%rbp), %rax	# targ, tmp208
	movq	%rcx, %rsi	# tmp207,
	movq	%rax, %rdi	# tmp208,
	call	Perl_sv_setpvn	#
	.loc 1 169 0 discriminator 4
	cmpb	$0, -99(%rbp)	#, lbyte
	jne	.L89	#,
	.loc 1 170 0
	movq	-64(%rbp), %rax	# targ, tmp209
	movl	12(%rax), %eax	# targ_30->sv_flags, D.18006
	orl	$536870912, %eax	#, D.18006
	movl	%eax, %edx	# D.18006, D.18006
	movq	-64(%rbp), %rax	# targ, tmp210
	movl	%edx, 12(%rax)	# D.18006, targ_30->sv_flags
	jmp	.L91	#
.L89:
	.loc 1 172 0
	movq	-64(%rbp), %rax	# targ, tmp211
	movl	12(%rax), %eax	# targ_30->sv_flags, D.18006
	andl	$-536870913, %eax	#, D.18006
	movl	%eax, %edx	# D.18006, D.18006
	movq	-64(%rbp), %rax	# targ, tmp212
	movl	%edx, 12(%rax)	# D.18006, targ_30->sv_flags
	jmp	.L91	#
.L83:
	.loc 1 175 0
	movq	-32(%rbp), %rax	# left, tmp213
	movl	12(%rax), %eax	# left_62->sv_flags, D.18006
	andl	$8192, %eax	#, D.18006
	testl	%eax, %eax	# D.18006
	je	.L92	#,
	.loc 1 176 0
	movq	-32(%rbp), %rax	# left, tmp214
	movq	%rax, %rdi	# tmp214,
	call	Perl_mg_get	#
.L92:
	.loc 1 177 0
	movq	-64(%rbp), %rax	# targ, tmp215
	movl	12(%rax), %eax	# targ_30->sv_flags, D.18006
	andl	$118423552, %eax	#, D.18006
	testl	%eax, %eax	# D.18006
	jne	.L93	#,
	.loc 1 178 0
	movq	-32(%rbp), %rax	# left, tmp216
	movl	$.LC1, %esi	#,
	movq	%rax, %rdi	# tmp216,
	call	Perl_sv_setpv	#
.L93:
	.loc 1 179 0
	movq	-32(%rbp), %rax	# left, tmp217
	movl	12(%rax), %eax	# left_62->sv_flags, D.18006
	andl	$262144, %eax	#, D.18006
	testl	%eax, %eax	# D.18006
	je	.L94	#,
	.loc 1 179 0 is_stmt 0 discriminator 1
	movq	-32(%rbp), %rax	# left, tmp218
	movq	(%rax), %rax	# left_62->sv_any, D.18008
	movq	8(%rax), %rax	# MEM[(struct XPV *)_121].xpv_cur, llen.114
	movq	%rax, -96(%rbp)	# llen.114, llen
	movq	-32(%rbp), %rax	# left, tmp219
	movq	(%rax), %rax	# left_62->sv_any, D.18008
	movq	(%rax), %rax	# MEM[(struct XPV *)_123].xpv_pv, iftmp.113
	jmp	.L95	#
.L94:
	.loc 1 179 0 discriminator 2
	leaq	-96(%rbp), %rcx	#, tmp220
	movq	-32(%rbp), %rax	# left, tmp221
	movl	$0, %edx	#,
	movq	%rcx, %rsi	# tmp220,
	movq	%rax, %rdi	# tmp221,
	call	Perl_sv_2pv_flags	#
.L95:
	.loc 1 179 0 discriminator 3
	movq	%rax, -24(%rbp)	# iftmp.113, lpv
	.loc 1 180 0 is_stmt 1 discriminator 3
	movq	-32(%rbp), %rax	# left, tmp222
	movl	12(%rax), %eax	# left_62->sv_flags, D.18006
	andl	$536870912, %eax	#, D.18006
	testl	%eax, %eax	# D.18006
	je	.L96	#,
	.loc 1 180 0 is_stmt 0 discriminator 2
	movq	PL_curcop(%rip), %rax	# PL_curcop, PL_curcop.116
	movzbl	37(%rax), %eax	# PL_curcop.116_129->op_private, D.18002
	movzbl	%al, %eax	# D.18002, D.18003
	andl	$8, %eax	#, D.18003
	testl	%eax, %eax	# D.18003
	je	.L97	#,
.L96:
	.loc 1 180 0 discriminator 1
	movl	$1, %eax	#, iftmp.115
	jmp	.L98	#
.L97:
	.loc 1 180 0 discriminator 3
	movl	$0, %eax	#, iftmp.115
.L98:
	.loc 1 180 0 discriminator 4
	movb	%al, -99(%rbp)	# iftmp.115, lbyte
	.loc 1 181 0 is_stmt 1 discriminator 4
	movq	PL_curcop(%rip), %rax	# PL_curcop, PL_curcop.117
	movzbl	37(%rax), %eax	# PL_curcop.117_136->op_private, D.18002
	movzbl	%al, %eax	# D.18002, D.18003
	andl	$8, %eax	#, D.18003
	testl	%eax, %eax	# D.18003
	je	.L91	#,
	.loc 1 182 0
	movq	-64(%rbp), %rax	# targ, tmp223
	movl	12(%rax), %eax	# targ_30->sv_flags, D.18006
	andl	$-536870913, %eax	#, D.18006
	movl	%eax, %edx	# D.18006, D.18006
	movq	-64(%rbp), %rax	# targ, tmp224
	movl	%edx, 12(%rax)	# D.18006, targ_30->sv_flags
.L91:
	.loc 1 196 0
	movzbl	-99(%rbp), %eax	# lbyte, tmp225
	cmpb	-97(%rbp), %al	# rbyte, tmp225
	je	.L99	#,
	.loc 1 197 0
	cmpb	$0, -99(%rbp)	#, lbyte
	je	.L100	#,
	.loc 1 198 0
	movq	-64(%rbp), %rax	# targ, tmp226
	movl	$0, %esi	#,
	movq	%rax, %rdi	# tmp226,
	call	Perl_sv_utf8_upgrade_flags	#
	jmp	.L99	#
.L100:
	.loc 1 200 0
	cmpb	$0, -98(%rbp)	#, rcopied
	jne	.L101	#,
	.loc 1 201 0
	movq	-88(%rbp), %rdx	# rlen, rlen.118
	movq	-72(%rbp), %rax	# rpv, tmp227
	movq	%rdx, %rsi	# rlen.118,
	movq	%rax, %rdi	# tmp227,
	call	Perl_newSVpvn	#
	movq	%rax, %rdi	# D.18007,
	call	Perl_sv_2mortal	#
	movq	%rax, -80(%rbp)	# tmp228, right
.L101:
	.loc 1 202 0
	movq	-80(%rbp), %rax	# right, tmp229
	movl	$0, %esi	#,
	movq	%rax, %rdi	# tmp229,
	call	Perl_sv_utf8_upgrade_flags	#
	.loc 1 203 0
	movq	-80(%rbp), %rax	# right, tmp230
	movl	12(%rax), %eax	# right_2->sv_flags, D.18006
	andl	$262144, %eax	#, D.18006
	testl	%eax, %eax	# D.18006
	je	.L102	#,
	.loc 1 203 0 is_stmt 0 discriminator 1
	movq	-80(%rbp), %rax	# right, tmp231
	movq	(%rax), %rax	# right_2->sv_any, D.18008
	movq	8(%rax), %rax	# MEM[(struct XPV *)_147].xpv_cur, rlen.120
	movq	%rax, -88(%rbp)	# rlen.120, rlen
	movq	-80(%rbp), %rax	# right, tmp232
	movq	(%rax), %rax	# right_2->sv_any, D.18008
	movq	(%rax), %rax	# MEM[(struct XPV *)_149].xpv_pv, iftmp.119
	jmp	.L103	#
.L102:
	.loc 1 203 0 discriminator 2
	leaq	-88(%rbp), %rcx	#, tmp233
	movq	-80(%rbp), %rax	# right, tmp234
	movl	$2, %edx	#,
	movq	%rcx, %rsi	# tmp233,
	movq	%rax, %rdi	# tmp234,
	call	Perl_sv_2pv_flags	#
.L103:
	.loc 1 203 0 discriminator 3
	movq	%rax, -72(%rbp)	# iftmp.119, rpv
.L99:
	.loc 1 206 0 is_stmt 1
	movq	-88(%rbp), %rdx	# rlen, rlen.121
	movq	-72(%rbp), %rsi	# rpv, tmp235
	movq	-64(%rbp), %rax	# targ, tmp236
	movl	$0, %ecx	#,
	movq	%rax, %rdi	# tmp236,
	call	Perl_sv_catpvn_flags	#
.LBB10:
	.loc 1 208 0
	movq	-64(%rbp), %rax	# targ, tmp237
	movl	12(%rax), %eax	# targ_30->sv_flags, D.18006
	andl	$16384, %eax	#, D.18006
	testl	%eax, %eax	# D.18006
	je	.L104	#,
	.loc 1 208 0 is_stmt 0 discriminator 1
	movq	-64(%rbp), %rax	# targ, tmp238
	movq	%rax, %rdi	# tmp238,
	call	Perl_mg_set	#
.L104:
	.loc 1 208 0 discriminator 2
	movq	-64(%rbp), %rax	# targ, tmp239
	movq	%rax, (%rbx)	# tmp239, *sp_60
.LBE10:
	.loc 1 209 0 is_stmt 1 discriminator 2
	movq	%rbx, PL_stack_sp(%rip)	# sp, PL_stack_sp
	movq	PL_op(%rip), %rax	# PL_op, PL_op.122
	movq	(%rax), %rax	# PL_op.122_157->op_next, D.18001
.L74:
.LBE9:
	.loc 1 211 0
	addq	$104, %rsp	#,
	popq	%rbx	#
	popq	%rbp	#
	.cfi_def_cfa 7, 8
	ret
	.cfi_endproc
.LFE14:
	.size	Perl_pp_concat, .-Perl_pp_concat
	.globl	Perl_pp_padsv
	.type	Perl_pp_padsv, @function
Perl_pp_padsv:
.LFB15:
	.loc 1 214 0
	.cfi_startproc
	pushq	%rbp	#
	.cfi_def_cfa_offset 16
	.cfi_offset 6, -16
	movq	%rsp, %rbp	#,
	.cfi_def_cfa_register 6
	pushq	%rbx	#
	subq	$24, %rsp	#,
	.cfi_offset 3, -24
	.loc 1 215 0
	movq	PL_stack_sp(%rip), %rbx	# PL_stack_sp, sp
	movq	PL_curpad(%rip), %rdx	# PL_curpad, PL_curpad.123
	movq	PL_op(%rip), %rax	# PL_op, PL_op.124
	movq	24(%rax), %rax	# PL_op.124_5->op_targ, D.18010
	salq	$3, %rax	#, D.18010
	addq	%rdx, %rax	# PL_curpad.123, D.18011
	movq	(%rax), %rax	# *_8, tmp99
	movq	%rax, -24(%rbp)	# tmp99, targ
.LBB11:
	.loc 1 216 0
	movq	PL_stack_max(%rip), %rax	# PL_stack_max, PL_stack_max.125
	movq	%rax, %rdx	# PL_stack_max.125, PL_stack_max.126
	movq	%rbx, %rax	# sp, sp.127
	subq	%rax, %rdx	# sp.127, D.18012
	movq	%rdx, %rax	# D.18012, D.18012
	cmpq	$7, %rax	#, D.18012
	jg	.L106	#,
	.loc 1 216 0 is_stmt 0 discriminator 1
	movl	$1, %edx	#,
	movq	%rbx, %rsi	# sp,
	movq	%rbx, %rdi	# sp,
	call	Perl_stack_grow	#
	movq	%rax, %rbx	#, sp
.L106:
	.loc 1 216 0 discriminator 2
	addq	$8, %rbx	#, sp
	movq	-24(%rbp), %rax	# targ, tmp100
	movq	%rax, (%rbx)	# tmp100, *sp_15
.LBE11:
	.loc 1 217 0 is_stmt 1 discriminator 2
	movq	PL_op(%rip), %rax	# PL_op, PL_op.128
	movzbl	36(%rax), %eax	# PL_op.128_17->op_flags, D.18014
	movzbl	%al, %eax	# D.18014, D.18015
	andl	$32, %eax	#, D.18015
	testl	%eax, %eax	# D.18015
	je	.L107	#,
	.loc 1 218 0
	movq	PL_op(%rip), %rax	# PL_op, PL_op.129
	movzbl	37(%rax), %eax	# PL_op.129_21->op_private, D.18014
	testb	%al, %al	# D.18016
	jns	.L108	#,
	.loc 1 219 0
	movq	PL_curpad(%rip), %rdx	# PL_curpad, PL_curpad.130
	movq	PL_op(%rip), %rax	# PL_op, PL_op.131
	movq	24(%rax), %rax	# PL_op.131_25->op_targ, D.18010
	salq	$3, %rax	#, D.18010
	addq	%rdx, %rax	# PL_curpad.130, D.18011
	movq	%rax, %rdi	# D.18011,
	call	Perl_save_clearsv	#
	jmp	.L107	#
.L108:
	.loc 1 220 0
	movq	PL_op(%rip), %rax	# PL_op, PL_op.132
	movzbl	37(%rax), %eax	# PL_op.132_29->op_private, D.18014
	movzbl	%al, %eax	# D.18014, D.18015
	andl	$96, %eax	#, D.18015
	testl	%eax, %eax	# D.18015
	je	.L107	#,
	.loc 1 221 0
	movq	%rbx, PL_stack_sp(%rip)	# sp, PL_stack_sp
	.loc 1 222 0
	movq	PL_op(%rip), %rax	# PL_op, PL_op.133
	movzbl	37(%rax), %eax	# PL_op.133_33->op_private, D.18014
	movzbl	%al, %eax	# D.18014, D.18017
	andl	$96, %eax	#, D.18017
	movl	%eax, %edx	# D.18017, D.18017
	movq	PL_curpad(%rip), %rcx	# PL_curpad, PL_curpad.134
	movq	PL_op(%rip), %rax	# PL_op, PL_op.135
	movq	24(%rax), %rax	# PL_op.135_38->op_targ, D.18010
	salq	$3, %rax	#, D.18010
	addq	%rcx, %rax	# PL_curpad.134, D.18011
	movq	(%rax), %rax	# *_41, D.18013
	movl	%edx, %esi	# D.18017,
	movq	%rax, %rdi	# D.18013,
	call	Perl_vivify_ref	#
	.loc 1 223 0
	movq	PL_stack_sp(%rip), %rbx	# PL_stack_sp, sp
.L107:
	.loc 1 226 0
	movq	%rbx, PL_stack_sp(%rip)	# sp, PL_stack_sp
	movq	PL_op(%rip), %rax	# PL_op, PL_op.136
	movq	(%rax), %rax	# PL_op.136_44->op_next, D.18018
	.loc 1 227 0
	addq	$24, %rsp	#,
	popq	%rbx	#
	popq	%rbp	#
	.cfi_def_cfa 7, 8
	ret
	.cfi_endproc
.LFE15:
	.size	Perl_pp_padsv, .-Perl_pp_padsv
	.globl	Perl_pp_readline
	.type	Perl_pp_readline, @function
Perl_pp_readline:
.LFB16:
	.loc 1 230 0
	.cfi_startproc
	pushq	%rbp	#
	.cfi_def_cfa_offset 16
	.cfi_offset 6, -16
	movq	%rsp, %rbp	#,
	.cfi_def_cfa_register 6
	pushq	%rbx	#
	subq	$40, %rsp	#,
	.cfi_offset 3, -24
.LBB12:
	.loc 1 231 0
	movq	PL_stack_sp(%rip), %rbx	# PL_stack_sp, sp
	subq	$8, %rbx	#, sp
.LBB13:
	movq	PL_op(%rip), %rax	# PL_op, PL_op.138
	movzbl	36(%rax), %eax	# PL_op.138_6->op_flags, D.18020
	movzbl	%al, %eax	# D.18020, D.18021
	andl	$64, %eax	#, D.18021
	testl	%eax, %eax	# D.18021
	je	.L111	#,
	.loc 1 231 0 is_stmt 0 discriminator 1
	movq	%rbx, %rax	# sp, sp.139
	leaq	-8(%rax), %rbx	#, sp
	movq	(%rax), %rax	# *sp.139_10, iftmp.137
	jmp	.L112	#
.L111:
	.loc 1 231 0 discriminator 2
	movq	PL_curpad(%rip), %rdx	# PL_curpad, PL_curpad.140
	movq	PL_op(%rip), %rax	# PL_op, PL_op.141
	movq	24(%rax), %rax	# PL_op.141_14->op_targ, D.18022
	salq	$3, %rax	#, D.18022
	addq	%rdx, %rax	# PL_curpad.140, D.18023
	movq	(%rax), %rax	# *_17, iftmp.137
.L112:
	.loc 1 231 0 discriminator 3
	movq	%rax, -40(%rbp)	# iftmp.137, targ
.LBB14:
	movq	PL_stack_sp(%rip), %rbx	# PL_stack_sp, sp
	movq	PL_amagic_generation(%rip), %rax	# PL_amagic_generation, PL_amagic_generation.142
	testq	%rax, %rax	# PL_amagic_generation.142
	je	.L113	#,
.LBB15:
	.loc 1 231 0 discriminator 1
	movq	(%rbx), %rax	# *sp_20, tmp110
	movq	%rax, -32(%rbp)	# tmp110, arg
.L114:
	movq	-32(%rbp), %rax	# arg, tmp111
	movl	12(%rax), %eax	# arg_22->sv_flags, D.18024
	andl	$268435456, %eax	#, D.18024
	testl	%eax, %eax	# D.18024
	je	.L113	#,
	movq	-32(%rbp), %rax	# arg, tmp112
	movl	$9, %ecx	#,
	movl	$63, %edx	#,
	movl	$PL_sv_undef, %esi	#,
	movq	%rax, %rdi	# tmp112,
	call	Perl_amagic_call	#
	movq	%rax, -24(%rbp)	# tmp113, tmpsv
	cmpq	$0, -24(%rbp)	#, tmpsv
	je	.L113	#,
	movq	PL_stack_sp(%rip), %rbx	# PL_stack_sp, sp
.LBB16:
	movq	-24(%rbp), %rcx	# tmpsv, tmp114
	movq	-40(%rbp), %rax	# targ, tmp115
	movl	$2, %edx	#,
	movq	%rcx, %rsi	# tmp114,
	movq	%rax, %rdi	# tmp115,
	call	Perl_sv_setsv_flags	#
.LBB17:
	movq	-40(%rbp), %rax	# targ, tmp116
	movl	12(%rax), %eax	# targ_19->sv_flags, D.18024
	andl	$16384, %eax	#, D.18024
	testl	%eax, %eax	# D.18024
	je	.L115	#,
	movq	-40(%rbp), %rax	# targ, tmp117
	movq	%rax, %rdi	# tmp117,
	call	Perl_mg_set	#
.L115:
	.loc 1 231 0 discriminator 2
	movq	-40(%rbp), %rax	# targ, tmp118
	movq	%rax, (%rbx)	# tmp118, *sp_26
.LBE17:
.LBE16:
	movq	%rbx, PL_stack_sp(%rip)	# sp, PL_stack_sp
	movq	PL_op(%rip), %rax	# PL_op, PL_op.143
	movq	(%rax), %rax	# PL_op.143_30->op_next, D.18019
	jmp	.L116	#
.L113:
.LBE15:
.LBE14:
.LBE13:
.LBE12:
	.loc 1 232 0 is_stmt 1
	movq	PL_stack_sp(%rip), %rax	# PL_stack_sp, PL_stack_sp.144
	leaq	-8(%rax), %rdx	#, PL_stack_sp.146
	movq	%rdx, PL_stack_sp(%rip)	# PL_stack_sp.146, PL_stack_sp
	movq	(%rax), %rax	# *PL_stack_sp.145_33, PL_last_in_gv.147
	movq	%rax, PL_last_in_gv(%rip)	# PL_last_in_gv.147, PL_last_in_gv
	.loc 1 233 0
	movq	PL_last_in_gv(%rip), %rax	# PL_last_in_gv, PL_last_in_gv.148
	movl	12(%rax), %eax	# PL_last_in_gv.148_36->sv_flags, D.18024
	movzbl	%al, %eax	# D.18024, D.18024
	cmpl	$13, %eax	#, D.18024
	je	.L117	#,
	.loc 1 234 0
	movq	PL_last_in_gv(%rip), %rax	# PL_last_in_gv, PL_last_in_gv.149
	movl	12(%rax), %eax	# PL_last_in_gv.149_39->sv_flags, D.18024
	andl	$524288, %eax	#, D.18024
	testl	%eax, %eax	# D.18024
	je	.L118	#,
	.loc 1 234 0 is_stmt 0 discriminator 1
	movq	PL_last_in_gv(%rip), %rax	# PL_last_in_gv, PL_last_in_gv.150
	movq	(%rax), %rax	# PL_last_in_gv.150_42->sv_any, D.18026
	movq	(%rax), %rax	# MEM[(struct XRV *)_43].xrv_rv, D.18025
	movl	12(%rax), %eax	# _44->sv_flags, D.18024
	movzbl	%al, %eax	# D.18024, D.18024
	cmpl	$13, %eax	#, D.18024
	jne	.L118	#,
	.loc 1 235 0 is_stmt 1
	movq	PL_last_in_gv(%rip), %rax	# PL_last_in_gv, PL_last_in_gv.151
	movq	(%rax), %rax	# PL_last_in_gv.151_47->sv_any, D.18026
	movq	(%rax), %rax	# MEM[(struct XRV *)_48].xrv_rv, PL_last_in_gv.152
	movq	%rax, PL_last_in_gv(%rip)	# PL_last_in_gv.152, PL_last_in_gv
	jmp	.L117	#
.L118:
.LBB18:
	.loc 1 237 0
	movq	PL_stack_sp(%rip), %rbx	# PL_stack_sp, sp
.LBB19:
	.loc 1 238 0
	movq	PL_stack_max(%rip), %rax	# PL_stack_max, PL_stack_max.153
	movq	%rax, %rdx	# PL_stack_max.153, PL_stack_max.154
	movq	%rbx, %rax	# sp, sp.155
	subq	%rax, %rdx	# sp.155, D.18027
	movq	%rdx, %rax	# D.18027, D.18027
	cmpq	$7, %rax	#, D.18027
	jg	.L119	#,
	.loc 1 238 0 is_stmt 0 discriminator 1
	movl	$1, %edx	#,
	movq	%rbx, %rsi	# sp,
	movq	%rbx, %rdi	# sp,
	call	Perl_stack_grow	#
	movq	%rax, %rbx	#, sp
.L119:
	.loc 1 238 0 discriminator 2
	addq	$8, %rbx	#, sp
	movq	PL_last_in_gv(%rip), %rax	# PL_last_in_gv, PL_last_in_gv.156
	movq	%rax, (%rbx)	# PL_last_in_gv.156, *sp_56
.LBE19:
	.loc 1 239 0 is_stmt 1 discriminator 2
	movq	%rbx, PL_stack_sp(%rip)	# sp, PL_stack_sp
	.loc 1 240 0 discriminator 2
	call	Perl_pp_rv2gv	#
	.loc 1 241 0 discriminator 2
	movq	PL_stack_sp(%rip), %rax	# PL_stack_sp, PL_stack_sp.157
	leaq	-8(%rax), %rdx	#, PL_stack_sp.159
	movq	%rdx, PL_stack_sp(%rip)	# PL_stack_sp.159, PL_stack_sp
	movq	(%rax), %rax	# *PL_stack_sp.158_60, PL_last_in_gv.160
	movq	%rax, PL_last_in_gv(%rip)	# PL_last_in_gv.160, PL_last_in_gv
.L117:
.LBE18:
	.loc 1 244 0
	call	Perl_do_readline	#
.L116:
	.loc 1 245 0
	addq	$40, %rsp	#,
	popq	%rbx	#
	popq	%rbp	#
	.cfi_def_cfa 7, 8
	ret
	.cfi_endproc
.LFE16:
	.size	Perl_pp_readline, .-Perl_pp_readline
	.globl	Perl_pp_eq
	.type	Perl_pp_eq, @function
Perl_pp_eq:
.LFB17:
	.loc 1 248 0
	.cfi_startproc
	pushq	%rbp	#
	.cfi_def_cfa_offset 16
	.cfi_offset 6, -16
	movq	%rsp, %rbp	#,
	.cfi_def_cfa_register 6
	pushq	%rbx	#
	subq	$104, %rsp	#,
	.cfi_offset 3, -24
	.loc 1 249 0
	movq	PL_stack_sp(%rip), %rbx	# PL_stack_sp, sp
	movq	PL_amagic_generation(%rip), %rax	# PL_amagic_generation, PL_amagic_generation.161
	testq	%rax, %rax	# PL_amagic_generation.161
	je	.L121	#,
.LBB20:
	.loc 1 249 0 is_stmt 0 discriminator 1
	movq	(%rbx), %rax	# *sp_11, tmp180
	movq	%rax, -72(%rbp)	# tmp180, right
	movq	-8(%rbx), %rax	# MEM[(struct SV * *)sp_11 + -8B], tmp181
	movq	%rax, -64(%rbp)	# tmp181, left
	movq	-64(%rbp), %rax	# left, tmp182
	movl	12(%rax), %eax	# left_14->sv_flags, D.18029
	andl	$268435456, %eax	#, D.18029
	testl	%eax, %eax	# D.18029
	jne	.L122	#,
	.loc 1 249 0 discriminator 2
	movq	-72(%rbp), %rax	# right, tmp183
	movl	12(%rax), %eax	# right_13->sv_flags, D.18029
	andl	$268435456, %eax	#, D.18029
	testl	%eax, %eax	# D.18029
	je	.L121	#,
.L122:
	.loc 1 249 0 discriminator 1
	movq	-72(%rbp), %rsi	# right, tmp184
	movq	-64(%rbp), %rax	# left, tmp185
	movl	$0, %ecx	#,
	movl	$32, %edx	#,
	movq	%rax, %rdi	# tmp185,
	call	Perl_amagic_call	#
	movq	%rax, -56(%rbp)	# tmp186, tmpsv
	cmpq	$0, -56(%rbp)	#, tmpsv
	je	.L121	#,
	movq	PL_stack_sp(%rip), %rbx	# PL_stack_sp, sp
	movq	%rbx, %rax	# sp, sp.162
	leaq	-8(%rax), %rbx	#, sp
	movq	-56(%rbp), %rax	# tmpsv, tmp187
	movq	%rax, (%rbx)	# tmp187, *sp_22
	movq	%rbx, PL_stack_sp(%rip)	# sp, PL_stack_sp
	movq	PL_op(%rip), %rax	# PL_op, PL_op.163
	movq	(%rax), %rax	# PL_op.163_23->op_next, D.18028
	jmp	.L123	#
.L121:
.LBE20:
	.loc 1 251 0 is_stmt 1
	movq	(%rbx), %rax	# *sp_11, D.18030
	movl	12(%rax), %eax	# _25->sv_flags, D.18029
	andl	$524288, %eax	#, D.18029
	testl	%eax, %eax	# D.18029
	je	.L124	#,
	.loc 1 251 0 is_stmt 0 discriminator 1
	movq	(%rbx), %rax	# *sp_11, D.18030
	movl	12(%rax), %eax	# _28->sv_flags, D.18029
	andl	$268435456, %eax	#, D.18029
	testl	%eax, %eax	# D.18029
	jne	.L124	#,
	leaq	-8(%rbx), %rax	#, D.18031
	movq	(%rax), %rax	# *_31, D.18030
	movl	12(%rax), %eax	# _32->sv_flags, D.18029
	andl	$524288, %eax	#, D.18029
	testl	%eax, %eax	# D.18029
	je	.L124	#,
	leaq	-8(%rbx), %rax	#, D.18031
	movq	(%rax), %rax	# *_35, D.18030
	movl	12(%rax), %eax	# _36->sv_flags, D.18029
	andl	$268435456, %eax	#, D.18029
	testl	%eax, %eax	# D.18029
	jne	.L124	#,
	.loc 1 252 0 is_stmt 1
	subq	$8, %rbx	#, sp
	.loc 1 253 0
	movq	(%rbx), %rax	# *sp_39, D.18030
	movq	(%rax), %rax	# _40->sv_any, D.18032
	movq	(%rax), %rdx	# MEM[(struct XRV *)_41].xrv_rv, D.18030
	leaq	8(%rbx), %rax	#, D.18031
	movq	(%rax), %rax	# *_43, D.18030
	movq	(%rax), %rax	# _44->sv_any, D.18032
	movq	(%rax), %rax	# MEM[(struct XRV *)_45].xrv_rv, D.18030
	cmpq	%rax, %rdx	# D.18030, D.18030
	jne	.L125	#,
	.loc 1 253 0 is_stmt 0 discriminator 1
	movl	$PL_sv_yes, %eax	#, iftmp.164
	jmp	.L126	#
.L125:
	.loc 1 253 0 discriminator 2
	movl	$PL_sv_no, %eax	#, iftmp.164
.L126:
	.loc 1 253 0 discriminator 3
	movq	%rax, (%rbx)	# iftmp.164, *sp_39
	.loc 1 254 0 is_stmt 1 discriminator 3
	movq	%rbx, PL_stack_sp(%rip)	# sp, PL_stack_sp
	movq	PL_op(%rip), %rax	# PL_op, PL_op.165
	movq	(%rax), %rax	# PL_op.165_49->op_next, D.18028
	jmp	.L123	#
.L124:
	.loc 1 258 0
	movq	(%rbx), %rax	# *sp_11, D.18030
	movl	12(%rax), %eax	# _51->sv_flags, D.18029
	andl	$16777216, %eax	#, D.18029
	testl	%eax, %eax	# D.18029
	jne	.L127	#,
	.loc 1 258 0 is_stmt 0 discriminator 1
	movq	(%rbx), %rax	# *sp_11, D.18030
	movl	12(%rax), %eax	# _54->sv_flags, D.18029
	andl	$131072, %eax	#, D.18029
	testl	%eax, %eax	# D.18029
	jne	.L128	#,
	.loc 1 258 0 discriminator 2
	movq	(%rbx), %rax	# *sp_11, D.18030
	movl	12(%rax), %eax	# _57->sv_flags, D.18029
	andl	$262144, %eax	#, D.18029
	testl	%eax, %eax	# D.18029
	je	.L127	#,
.L128:
	.loc 1 258 0 discriminator 1
	movq	(%rbx), %rax	# *sp_11, D.18030
	movl	12(%rax), %eax	# _60->sv_flags, D.18029
	andl	$65536, %eax	#, D.18029
	testl	%eax, %eax	# D.18029
	jne	.L127	#,
	.loc 1 258 0 discriminator 2
	movq	(%rbx), %rax	# *sp_11, D.18030
	movq	%rax, %rdi	# D.18030,
	call	Perl_sv_2iv	#
.L127:
	.loc 1 259 0 is_stmt 1
	movq	(%rbx), %rax	# *sp_11, D.18030
	movl	12(%rax), %eax	# _68->sv_flags, D.18029
	andl	$65536, %eax	#, D.18029
	testl	%eax, %eax	# D.18029
	je	.L130	#,
	.loc 1 263 0
	leaq	-8(%rbx), %rax	#, D.18031
	movq	(%rax), %rax	# *_71, D.18030
	movl	12(%rax), %eax	# _72->sv_flags, D.18029
	andl	$16777216, %eax	#, D.18029
	testl	%eax, %eax	# D.18029
	jne	.L131	#,
	.loc 1 263 0 is_stmt 0 discriminator 1
	leaq	-8(%rbx), %rax	#, D.18031
	movq	(%rax), %rax	# *_75, D.18030
	movl	12(%rax), %eax	# _76->sv_flags, D.18029
	andl	$131072, %eax	#, D.18029
	testl	%eax, %eax	# D.18029
	jne	.L132	#,
	.loc 1 263 0 discriminator 2
	leaq	-8(%rbx), %rax	#, D.18031
	movq	(%rax), %rax	# *_79, D.18030
	movl	12(%rax), %eax	# _80->sv_flags, D.18029
	andl	$262144, %eax	#, D.18029
	testl	%eax, %eax	# D.18029
	je	.L131	#,
.L132:
	.loc 1 263 0 discriminator 1
	leaq	-8(%rbx), %rax	#, D.18031
	movq	(%rax), %rax	# *_83, D.18030
	movl	12(%rax), %eax	# _84->sv_flags, D.18029
	andl	$65536, %eax	#, D.18029
	testl	%eax, %eax	# D.18029
	jne	.L131	#,
	.loc 1 263 0 discriminator 2
	leaq	-8(%rbx), %rax	#, D.18031
	movq	(%rax), %rax	# *_91, D.18030
	movq	%rax, %rdi	# D.18030,
	call	Perl_sv_2iv	#
.L131:
	.loc 1 264 0 is_stmt 1
	leaq	-8(%rbx), %rax	#, D.18031
	movq	(%rax), %rax	# *_94, D.18030
	movl	12(%rax), %eax	# _95->sv_flags, D.18029
	andl	$65536, %eax	#, D.18029
	testl	%eax, %eax	# D.18029
	je	.L130	#,
.LBB21:
	.loc 1 265 0
	leaq	-8(%rbx), %rax	#, D.18031
	movq	(%rax), %rax	# *_98, D.18030
	movl	12(%rax), %eax	# _99->sv_flags, D.18029
	andl	$-2147418112, %eax	#, D.18029
	cmpl	$-2147418112, %eax	#, D.18029
	sete	%al	#, D.18033
	movb	%al, -90(%rbp)	# D.18033, auvok
	.loc 1 266 0
	movq	(%rbx), %rax	# *sp_11, D.18030
	movl	12(%rax), %eax	# _104->sv_flags, D.18029
	andl	$-2147418112, %eax	#, D.18029
	cmpl	$-2147418112, %eax	#, D.18029
	sete	%al	#, D.18033
	movb	%al, -89(%rbp)	# D.18033, buvok
	.loc 1 268 0
	movzbl	-90(%rbp), %eax	# auvok, tmp188
	cmpb	-89(%rbp), %al	# buvok, tmp188
	jne	.L134	#,
.LBB22:
	.loc 1 275 0
	movq	%rbx, %rax	# sp, sp.168
	leaq	-8(%rax), %rbx	#, sp
	movq	(%rax), %rax	# *sp.168_109, D.18030
	movq	(%rax), %rax	# _111->sv_any, D.18032
	movq	24(%rax), %rax	# MEM[(struct XPVUV *)_112].xuv_uv, tmp189
	movq	%rax, -48(%rbp)	# tmp189, buv
	.loc 1 276 0
	movq	(%rbx), %rax	# *sp_110, D.18030
	movq	(%rax), %rax	# _114->sv_any, D.18032
	movq	24(%rax), %rax	# MEM[(struct XPVUV *)_115].xuv_uv, tmp190
	movq	%rax, -40(%rbp)	# tmp190, auv
	.loc 1 278 0
	movq	-40(%rbp), %rax	# auv, tmp191
	cmpq	-48(%rbp), %rax	# buv, tmp191
	jne	.L135	#,
	.loc 1 278 0 is_stmt 0 discriminator 1
	movl	$PL_sv_yes, %eax	#, iftmp.169
	jmp	.L136	#
.L135:
	.loc 1 278 0 discriminator 2
	movl	$PL_sv_no, %eax	#, iftmp.169
.L136:
	.loc 1 278 0 discriminator 3
	movq	%rax, (%rbx)	# iftmp.169, *sp_110
	.loc 1 279 0 is_stmt 1 discriminator 3
	movq	%rbx, PL_stack_sp(%rip)	# sp, PL_stack_sp
	movq	PL_op(%rip), %rax	# PL_op, PL_op.170
	movq	(%rax), %rax	# PL_op.170_119->op_next, D.18028
	jmp	.L123	#
.L134:
.LBE22:
.LBB23:
	.loc 1 286 0
	cmpb	$0, -90(%rbp)	#, auvok
	je	.L137	#,
	.loc 1 288 0
	movq	(%rbx), %rax	# *sp_11, tmp192
	movq	%rax, -88(%rbp)	# tmp192, ivp
	.loc 1 289 0
	subq	$8, %rbx	#, sp
	movq	(%rbx), %rax	# *sp_122, tmp193
	movq	%rax, -80(%rbp)	# tmp193, uvp
	jmp	.L138	#
.L137:
	.loc 1 291 0
	movq	(%rbx), %rax	# *sp_11, tmp194
	movq	%rax, -80(%rbp)	# tmp194, uvp
	.loc 1 292 0
	subq	$8, %rbx	#, sp
	movq	(%rbx), %rax	# *sp_125, tmp195
	movq	%rax, -88(%rbp)	# tmp195, ivp
.L138:
	.loc 1 294 0
	movq	-88(%rbp), %rax	# ivp, tmp196
	movq	(%rax), %rax	# ivp_2->sv_any, D.18032
	movq	24(%rax), %rax	# MEM[(struct XPVIV *)_127].xiv_iv, tmp197
	movq	%rax, -32(%rbp)	# tmp197, iv
	.loc 1 295 0
	cmpq	$0, -32(%rbp)	#, iv
	jns	.L139	#,
	.loc 1 297 0
	movq	$PL_sv_no, (%rbx)	#, *sp_1
	.loc 1 298 0
	movq	%rbx, PL_stack_sp(%rip)	# sp, PL_stack_sp
	movq	PL_op(%rip), %rax	# PL_op, PL_op.171
	movq	(%rax), %rax	# PL_op.171_129->op_next, D.18028
	jmp	.L123	#
.L139:
	.loc 1 301 0
	movq	-32(%rbp), %rdx	# iv, iv.173
	movq	-80(%rbp), %rax	# uvp, tmp198
	movq	(%rax), %rax	# uvp_3->sv_any, D.18032
	movq	24(%rax), %rax	# MEM[(struct XPVUV *)_132].xuv_uv, D.18034
	cmpq	%rax, %rdx	# D.18034, iv.173
	jne	.L140	#,
	.loc 1 301 0 is_stmt 0 discriminator 1
	movl	$PL_sv_yes, %eax	#, iftmp.172
	jmp	.L141	#
.L140:
	.loc 1 301 0 discriminator 2
	movl	$PL_sv_no, %eax	#, iftmp.172
.L141:
	.loc 1 301 0 discriminator 3
	movq	%rax, (%rbx)	# iftmp.172, *sp_1
	.loc 1 302 0 is_stmt 1 discriminator 3
	movq	%rbx, PL_stack_sp(%rip)	# sp, PL_stack_sp
	movq	PL_op(%rip), %rax	# PL_op, PL_op.174
	movq	(%rax), %rax	# PL_op.174_136->op_next, D.18028
	jmp	.L123	#
.L130:
.LBE23:
.LBE21:
.LBB24:
	.loc 1 308 0
	movq	%rbx, %rax	# sp, sp.175
	leaq	-8(%rax), %rbx	#, sp
	movq	(%rax), %rax	# *sp.175_138, PL_Sv.176
	movq	%rax, PL_Sv(%rip)	# PL_Sv.176, PL_Sv
	movq	PL_Sv(%rip), %rax	# PL_Sv, PL_Sv.178
	movl	12(%rax), %eax	# PL_Sv.178_141->sv_flags, D.18029
	andl	$131072, %eax	#, D.18029
	testl	%eax, %eax	# D.18029
	je	.L142	#,
	.loc 1 308 0 is_stmt 0 discriminator 1
	movq	PL_Sv(%rip), %rax	# PL_Sv, PL_Sv.179
	movq	(%rax), %rax	# PL_Sv.179_144->sv_any, D.18032
	movq	32(%rax), %rax	# MEM[(struct XPVNV *)_145].xnv_nv, iftmp.177
	jmp	.L143	#
.L142:
	.loc 1 308 0 discriminator 2
	movq	PL_Sv(%rip), %rax	# PL_Sv, PL_Sv.180
	movq	%rax, %rdi	# PL_Sv.180,
	call	Perl_sv_2nv	#
	movsd	%xmm0, -104(%rbp)	#, %sfp
	movq	-104(%rbp), %rax	# %sfp, iftmp.177
.L143:
	.loc 1 308 0 discriminator 3
	movq	%rax, -24(%rbp)	# iftmp.177, value
	.loc 1 309 0 is_stmt 1 discriminator 3
	movq	(%rbx), %rax	# *sp_139, D.18030
	movl	12(%rax), %eax	# _150->sv_flags, D.18029
	andl	$131072, %eax	#, D.18029
	testl	%eax, %eax	# D.18029
	je	.L144	#,
	.loc 1 309 0 is_stmt 0 discriminator 1
	movq	(%rbx), %rax	# *sp_139, D.18030
	movq	(%rax), %rax	# _153->sv_any, D.18032
	movsd	32(%rax), %xmm0	# MEM[(struct XPVNV *)_154].xnv_nv, iftmp.182
	jmp	.L145	#
.L144:
	.loc 1 309 0 discriminator 2
	movq	(%rbx), %rax	# *sp_139, D.18030
	movq	%rax, %rdi	# D.18030,
	call	Perl_sv_2nv	#
.L145:
	.loc 1 309 0 discriminator 3
	ucomisd	-24(%rbp), %xmm0	# value, iftmp.182
	jp	.L146	#,
	ucomisd	-24(%rbp), %xmm0	# value, iftmp.182
	jne	.L146	#,
	.loc 1 309 0 discriminator 1
	movl	$PL_sv_yes, %eax	#, iftmp.181
	jmp	.L148	#
.L146:
	.loc 1 309 0 discriminator 2
	movl	$PL_sv_no, %eax	#, iftmp.181
.L148:
	.loc 1 309 0 discriminator 3
	movq	%rax, (%rbx)	# iftmp.181, *sp_139
	.loc 1 310 0 is_stmt 1 discriminator 3
	movq	%rbx, PL_stack_sp(%rip)	# sp, PL_stack_sp
	movq	PL_op(%rip), %rax	# PL_op, PL_op.183
	movq	(%rax), %rax	# PL_op.183_160->op_next, D.18028
.L123:
.LBE24:
	.loc 1 312 0
	addq	$104, %rsp	#,
	popq	%rbx	#
	popq	%rbp	#
	.cfi_def_cfa 7, 8
	ret
	.cfi_endproc
.LFE17:
	.size	Perl_pp_eq, .-Perl_pp_eq
	.globl	Perl_pp_preinc
	.type	Perl_pp_preinc, @function
Perl_pp_preinc:
.LFB18:
	.loc 1 315 0
	.cfi_startproc
	pushq	%rbp	#
	.cfi_def_cfa_offset 16
	.cfi_offset 6, -16
	movq	%rsp, %rbp	#,
	.cfi_def_cfa_register 6
	pushq	%rbx	#
	subq	$8, %rsp	#,
	.cfi_offset 3, -24
	.loc 1 316 0
	movq	PL_stack_sp(%rip), %rbx	# PL_stack_sp, sp
	.loc 1 317 0
	movq	(%rbx), %rax	# *sp_2, D.18037
	movl	12(%rax), %eax	# _3->sv_flags, D.18038
	movzbl	%al, %eax	# D.18038, D.18038
	cmpl	$9, %eax	#, D.18038
	jbe	.L151	#,
	.loc 1 318 0
	movl	$PL_no_modify, %edi	#,
	movl	$0, %eax	#,
	call	Perl_die	#
	jmp	.L152	#
.L151:
	.loc 1 319 0
	movq	(%rbx), %rax	# *sp_2, D.18037
	movl	12(%rax), %eax	# _7->sv_flags, D.18038
	andl	$8388608, %eax	#, D.18038
	testl	%eax, %eax	# D.18038
	jne	.L153	#,
	.loc 1 319 0 is_stmt 0 discriminator 1
	movq	(%rbx), %rax	# *sp_2, D.18037
	movl	12(%rax), %eax	# _10->sv_flags, D.18038
	andl	$-2147418112, %eax	#, D.18038
	cmpl	$65536, %eax	#, D.18038
	jne	.L153	#,
	movq	(%rbx), %rax	# *sp_2, D.18037
	movl	12(%rax), %eax	# _13->sv_flags, D.18038
	andl	$131072, %eax	#, D.18038
	testl	%eax, %eax	# D.18038
	jne	.L153	#,
	movq	(%rbx), %rax	# *sp_2, D.18037
	movl	12(%rax), %eax	# _16->sv_flags, D.18038
	andl	$262144, %eax	#, D.18038
	testl	%eax, %eax	# D.18038
	jne	.L153	#,
	.loc 1 320 0 is_stmt 1
	movq	(%rbx), %rax	# *sp_2, D.18037
	movq	(%rax), %rax	# _19->sv_any, D.18039
	movq	24(%rax), %rdx	# MEM[(struct XPVIV *)_20].xiv_iv, D.18040
	movabsq	$9223372036854775807, %rax	#, tmp94
	cmpq	%rax, %rdx	# tmp94, D.18040
	je	.L153	#,
	.loc 1 322 0
	movq	(%rbx), %rax	# *sp_2, D.18037
	movq	(%rax), %rax	# _22->sv_any, D.18039
	movq	24(%rax), %rdx	# MEM[(struct XPVIV *)_23].xiv_iv, D.18040
	addq	$1, %rdx	#, D.18040
	movq	%rdx, 24(%rax)	# D.18040, MEM[(struct XPVIV *)_23].xiv_iv
	.loc 1 323 0
	movq	(%rbx), %rax	# *sp_2, D.18037
	movq	(%rbx), %rdx	# *sp_2, D.18037
	movl	12(%rdx), %edx	# _27->sv_flags, D.18038
	andl	$-100663297, %edx	#, D.18038
	movl	%edx, 12(%rax)	# D.18038, _26->sv_flags
	jmp	.L154	#
.L153:
	.loc 1 326 0
	movq	(%rbx), %rax	# *sp_2, D.18037
	movq	%rax, %rdi	# D.18037,
	call	Perl_sv_inc	#
.L154:
	.loc 1 327 0
	movq	(%rbx), %rax	# *sp_2, D.18037
	movl	12(%rax), %eax	# _31->sv_flags, D.18038
	andl	$16384, %eax	#, D.18038
	testl	%eax, %eax	# D.18038
	je	.L155	#,
	.loc 1 327 0 is_stmt 0 discriminator 1
	movq	(%rbx), %rax	# *sp_2, D.18037
	movq	%rax, %rdi	# D.18037,
	call	Perl_mg_set	#
.L155:
	.loc 1 328 0 is_stmt 1
	movq	PL_op(%rip), %rax	# PL_op, PL_op.184
	movq	(%rax), %rax	# PL_op.184_35->op_next, D.18036
.L152:
	.loc 1 329 0
	addq	$8, %rsp	#,
	popq	%rbx	#
	popq	%rbp	#
	.cfi_def_cfa 7, 8
	ret
	.cfi_endproc
.LFE18:
	.size	Perl_pp_preinc, .-Perl_pp_preinc
	.globl	Perl_pp_or
	.type	Perl_pp_or, @function
Perl_pp_or:
.LFB19:
	.loc 1 332 0
	.cfi_startproc
	pushq	%rbp	#
	.cfi_def_cfa_offset 16
	.cfi_offset 6, -16
	movq	%rsp, %rbp	#,
	.cfi_def_cfa_register 6
	pushq	%rbx	#
	subq	$8, %rsp	#,
	.cfi_offset 3, -24
	.loc 1 333 0
	movq	PL_stack_sp(%rip), %rbx	# PL_stack_sp, sp
	.loc 1 334 0
	movq	(%rbx), %rax	# *sp_7, D.18042
	testq	%rax, %rax	# D.18042
	je	.L157	#,
	.loc 1 334 0 is_stmt 0 discriminator 1
	movq	(%rbx), %rax	# *sp_7, D.18042
	movl	12(%rax), %eax	# _9->sv_flags, D.18043
	andl	$262144, %eax	#, D.18043
	testl	%eax, %eax	# D.18043
	je	.L158	#,
	.loc 1 334 0 discriminator 3
	movq	(%rbx), %rax	# *sp_7, D.18042
	movq	(%rax), %rax	# _12->sv_any, PL_Xpv.188
	movq	%rax, PL_Xpv(%rip)	# PL_Xpv.188, PL_Xpv
	movq	PL_Xpv(%rip), %rax	# PL_Xpv, PL_Xpv.189
	testq	%rax, %rax	# PL_Xpv.189
	je	.L159	#,
	.loc 1 334 0 discriminator 5
	movq	PL_Xpv(%rip), %rax	# PL_Xpv, PL_Xpv.190
	movq	8(%rax), %rax	# PL_Xpv.190_15->xpv_cur, D.18044
	cmpq	$1, %rax	#, D.18044
	ja	.L160	#,
	.loc 1 334 0 discriminator 8
	movq	PL_Xpv(%rip), %rax	# PL_Xpv, PL_Xpv.191
	movq	8(%rax), %rax	# PL_Xpv.191_17->xpv_cur, D.18044
	testq	%rax, %rax	# D.18044
	je	.L159	#,
	.loc 1 334 0 discriminator 1
	movq	PL_Xpv(%rip), %rax	# PL_Xpv, PL_Xpv.192
	movq	(%rax), %rax	# PL_Xpv.192_19->xpv_pv, D.18045
	movzbl	(%rax), %eax	# *_20, D.18046
	cmpb	$48, %al	#, D.18046
	je	.L159	#,
.L160:
	.loc 1 334 0 discriminator 7
	movl	$1, %eax	#, iftmp.187
	jmp	.L161	#
.L159:
	.loc 1 334 0 discriminator 6
	movl	$0, %eax	#, iftmp.187
.L161:
	.loc 1 334 0 discriminator 9
	andl	$1, %eax	#, iftmp.186
	jmp	.L167	#
.L158:
	.loc 1 334 0 discriminator 4
	movq	(%rbx), %rax	# *sp_7, D.18042
	movl	12(%rax), %eax	# _25->sv_flags, D.18043
	andl	$65536, %eax	#, D.18043
	testl	%eax, %eax	# D.18043
	je	.L163	#,
	.loc 1 334 0 discriminator 10
	movq	(%rbx), %rax	# *sp_7, D.18042
	movq	(%rax), %rax	# _28->sv_any, D.18047
	movq	24(%rax), %rax	# MEM[(struct XPVIV *)_29].xiv_iv, D.18048
	testq	%rax, %rax	# D.18048
	setne	%al	#, iftmp.193
	jmp	.L167	#
.L163:
	.loc 1 334 0 discriminator 11
	movq	(%rbx), %rax	# *sp_7, D.18042
	movl	12(%rax), %eax	# _32->sv_flags, D.18043
	andl	$131072, %eax	#, D.18043
	testl	%eax, %eax	# D.18043
	je	.L165	#,
	.loc 1 334 0 discriminator 12
	movq	(%rbx), %rax	# *sp_7, D.18042
	movq	(%rax), %rax	# _35->sv_any, D.18047
	movsd	32(%rax), %xmm0	# MEM[(struct XPVNV *)_36].xnv_nv, D.18049
	xorpd	%xmm1, %xmm1	# tmp98
	ucomisd	%xmm1, %xmm0	# tmp98, D.18049
	setp	%dl	#, tmp97
	movl	$1, %eax	#, tmp100
	xorpd	%xmm1, %xmm1	# tmp99
	ucomisd	%xmm1, %xmm0	# tmp99, D.18049
	cmove	%edx, %eax	# tmp97,, iftmp.194
	jmp	.L167	#
.L165:
	.loc 1 334 0 discriminator 13
	movq	(%rbx), %rax	# *sp_7, D.18042
	movq	%rax, %rdi	# D.18042,
	call	Perl_sv_2bool	#
	testb	%al, %al	# D.18046
	setne	%al	#, iftmp.194
	jmp	.L167	#
.L157:
	.loc 1 334 0 discriminator 2
	movl	$0, %eax	#, iftmp.185
.L167:
	.loc 1 334 0 discriminator 16
	testb	%al, %al	# iftmp.185
	je	.L168	#,
	.loc 1 335 0 is_stmt 1
	movq	%rbx, PL_stack_sp(%rip)	# sp, PL_stack_sp
	movq	PL_op(%rip), %rax	# PL_op, PL_op.195
	movq	(%rax), %rax	# PL_op.195_46->op_next, D.18041
	jmp	.L169	#
.L168:
	.loc 1 337 0
	subq	$8, %rbx	#, sp
	.loc 1 338 0
	movq	%rbx, PL_stack_sp(%rip)	# sp, PL_stack_sp
	movq	PL_op(%rip), %rax	# PL_op, PL_op.196
	movq	48(%rax), %rax	# MEM[(struct LOGOP *)PL_op.196_49].op_other, D.18041
.L169:
	.loc 1 340 0
	addq	$8, %rsp	#,
	popq	%rbx	#
	popq	%rbp	#
	.cfi_def_cfa 7, 8
	ret
	.cfi_endproc
.LFE19:
	.size	Perl_pp_or, .-Perl_pp_or
	.globl	Perl_pp_add
	.type	Perl_pp_add, @function
Perl_pp_add:
.LFB20:
	.loc 1 343 0
	.cfi_startproc
	pushq	%rbp	#
	.cfi_def_cfa_offset 16
	.cfi_offset 6, -16
	movq	%rsp, %rbp	#,
	.cfi_def_cfa_register 6
	pushq	%r13	#
	pushq	%r12	#
	pushq	%rbx	#
	subq	$88, %rsp	#,
	.cfi_offset 13, -24
	.cfi_offset 12, -32
	.cfi_offset 3, -40
	.loc 1 344 0
	movq	PL_stack_sp(%rip), %rbx	# PL_stack_sp, sp
	movq	PL_op(%rip), %rax	# PL_op, PL_op.198
	movzbl	36(%rax), %eax	# PL_op.198_22->op_flags, D.18051
	movzbl	%al, %eax	# D.18051, D.18052
	andl	$64, %eax	#, D.18052
	testl	%eax, %eax	# D.18052
	je	.L171	#,
	.loc 1 344 0 is_stmt 0 discriminator 1
	movq	-8(%rbx), %rax	# MEM[(struct SV * *)sp_21 + -8B], iftmp.197
	jmp	.L172	#
.L171:
	.loc 1 344 0 discriminator 2
	movq	PL_curpad(%rip), %rdx	# PL_curpad, PL_curpad.199
	movq	PL_op(%rip), %rax	# PL_op, PL_op.200
	movq	24(%rax), %rax	# PL_op.200_28->op_targ, D.18053
	salq	$3, %rax	#, D.18053
	addq	%rdx, %rax	# PL_curpad.199, D.18054
	movq	(%rax), %rax	# *_31, iftmp.197
.L172:
	.loc 1 344 0 discriminator 3
	movq	%rax, -72(%rbp)	# iftmp.197, targ
	movq	PL_amagic_generation(%rip), %rax	# PL_amagic_generation, PL_amagic_generation.201
	testq	%rax, %rax	# PL_amagic_generation.201
	je	.L173	#,
.LBB25:
	.loc 1 344 0 discriminator 1
	movq	(%rbx), %rax	# *sp_21, tmp218
	movq	%rax, -64(%rbp)	# tmp218, right
	movq	-8(%rbx), %rax	# MEM[(struct SV * *)sp_21 + -8B], tmp219
	movq	%rax, -56(%rbp)	# tmp219, left
	movq	-56(%rbp), %rax	# left, tmp220
	movl	12(%rax), %eax	# left_36->sv_flags, D.18055
	andl	$268435456, %eax	#, D.18055
	testl	%eax, %eax	# D.18055
	jne	.L174	#,
	.loc 1 344 0 discriminator 2
	movq	-64(%rbp), %rax	# right, tmp221
	movl	12(%rax), %eax	# right_35->sv_flags, D.18055
	andl	$268435456, %eax	#, D.18055
	testl	%eax, %eax	# D.18055
	je	.L173	#,
.L174:
	.loc 1 344 0 discriminator 1
	movq	PL_op(%rip), %rax	# PL_op, PL_op.203
	movzbl	36(%rax), %eax	# PL_op.203_41->op_flags, D.18051
	movzbl	%al, %eax	# D.18051, D.18052
	andl	$64, %eax	#, D.18052
	testl	%eax, %eax	# D.18052
	je	.L175	#,
	movl	$4, %eax	#, iftmp.202
	jmp	.L176	#
.L175:
	.loc 1 344 0 discriminator 2
	movl	$0, %eax	#, iftmp.202
.L176:
	.loc 1 344 0 discriminator 3
	movq	-64(%rbp), %rsi	# right, tmp222
	movq	-56(%rbp), %rdi	# left, tmp223
	movl	%eax, %ecx	# iftmp.202,
	movl	$6, %edx	#,
	call	Perl_amagic_call	#
	movq	%rax, -48(%rbp)	# tmp224, tmpsv
	cmpq	$0, -48(%rbp)	#, tmpsv
	je	.L173	#,
	.loc 1 344 0 discriminator 1
	movq	PL_stack_sp(%rip), %rbx	# PL_stack_sp, sp
	movq	%rbx, %rax	# sp, sp.204
	leaq	-8(%rax), %rbx	#, sp
	movq	PL_op(%rip), %rax	# PL_op, PL_op.205
	movzbl	36(%rax), %eax	# PL_op.205_51->op_flags, D.18051
	movzbl	%al, %eax	# D.18051, D.18052
	andl	$64, %eax	#, D.18052
	testl	%eax, %eax	# D.18052
	jne	.L177	#,
	.loc 1 344 0 discriminator 2
	movq	-72(%rbp), %rax	# targ, tmp225
	movl	12(%rax), %eax	# targ_33->sv_flags, D.18055
	andl	$1024, %eax	#, D.18055
	testl	%eax, %eax	# D.18055
	je	.L178	#,
.L177:
	.loc 1 344 0 discriminator 1
	movq	-48(%rbp), %rcx	# tmpsv, tmp226
	movq	-72(%rbp), %rax	# targ, tmp227
	movl	$2, %edx	#,
	movq	%rcx, %rsi	# tmp226,
	movq	%rax, %rdi	# tmp227,
	call	Perl_sv_setsv_flags	#
.LBB26:
	movq	-72(%rbp), %rax	# targ, tmp228
	movl	12(%rax), %eax	# targ_33->sv_flags, D.18055
	andl	$16384, %eax	#, D.18055
	testl	%eax, %eax	# D.18055
	je	.L179	#,
	movq	-72(%rbp), %rax	# targ, tmp229
	movq	%rax, %rdi	# tmp229,
	call	Perl_mg_set	#
.L179:
	.loc 1 344 0 discriminator 2
	movq	-72(%rbp), %rax	# targ, tmp230
	movq	%rax, (%rbx)	# tmp230, *sp_50
.LBE26:
	jmp	.L180	#
.L178:
	.loc 1 344 0 discriminator 1
	movq	-48(%rbp), %rax	# tmpsv, tmp231
	movq	%rax, (%rbx)	# tmp231, *sp_50
.L180:
	movq	%rbx, PL_stack_sp(%rip)	# sp, PL_stack_sp
	movq	PL_op(%rip), %rax	# PL_op, PL_op.206
	movq	(%rax), %rax	# PL_op.206_60->op_next, D.18050
	jmp	.L181	#
.L173:
.LBE25:
	.loc 1 345 0 is_stmt 1
	leaq	-8(%rbx), %rax	#, D.18054
	movq	(%rax), %rax	# *_62, D.18056
	movl	12(%rax), %eax	# _63->sv_flags, D.18055
	andl	$118423552, %eax	#, D.18055
	testl	%eax, %eax	# D.18055
	jne	.L182	#,
	.loc 1 345 0 is_stmt 0 discriminator 2
	leaq	-8(%rbx), %rax	#, D.18054
	movq	(%rax), %rax	# *_66, D.18056
	movl	12(%rax), %eax	# _67->sv_flags, D.18055
	andl	$8192, %eax	#, D.18055
	testl	%eax, %eax	# D.18055
	jne	.L182	#,
	.loc 1 345 0 discriminator 1
	movq	PL_op(%rip), %rax	# PL_op, PL_op.208
	movzbl	36(%rax), %eax	# PL_op.208_70->op_flags, D.18051
	movzbl	%al, %eax	# D.18051, D.18052
	andl	$64, %eax	#, D.18052
	testl	%eax, %eax	# D.18052
	jne	.L183	#,
.L182:
	movl	$1, %eax	#, iftmp.207
	jmp	.L184	#
.L183:
	.loc 1 345 0 discriminator 3
	movl	$0, %eax	#, iftmp.207
.L184:
	.loc 1 345 0 discriminator 4
	movb	%al, -81(%rbp)	# iftmp.207, useleft
	.loc 1 393 0 is_stmt 1 discriminator 4
	movq	(%rbx), %rax	# *sp_21, D.18056
	movl	12(%rax), %eax	# _77->sv_flags, D.18055
	andl	$16777216, %eax	#, D.18055
	testl	%eax, %eax	# D.18055
	jne	.L185	#,
	.loc 1 393 0 is_stmt 0 discriminator 1
	movq	(%rbx), %rax	# *sp_21, D.18056
	movl	12(%rax), %eax	# _80->sv_flags, D.18055
	andl	$131072, %eax	#, D.18055
	testl	%eax, %eax	# D.18055
	jne	.L186	#,
	.loc 1 393 0 discriminator 2
	movq	(%rbx), %rax	# *sp_21, D.18056
	movl	12(%rax), %eax	# _83->sv_flags, D.18055
	andl	$262144, %eax	#, D.18055
	testl	%eax, %eax	# D.18055
	je	.L185	#,
.L186:
	.loc 1 393 0 discriminator 1
	movq	(%rbx), %rax	# *sp_21, D.18056
	movl	12(%rax), %eax	# _86->sv_flags, D.18055
	andl	$65536, %eax	#, D.18055
	testl	%eax, %eax	# D.18055
	jne	.L185	#,
	.loc 1 393 0 discriminator 2
	movq	(%rbx), %rax	# *sp_21, D.18056
	movq	%rax, %rdi	# D.18056,
	call	Perl_sv_2iv	#
.L185:
	.loc 1 394 0 is_stmt 1
	movq	(%rbx), %rax	# *sp_21, D.18056
	movl	12(%rax), %eax	# _94->sv_flags, D.18055
	andl	$65536, %eax	#, D.18055
	testl	%eax, %eax	# D.18055
	je	.L188	#,
.LBB27:
	.loc 1 398 0
	movl	$0, %r12d	#, auv
	.loc 1 399 0
	movb	$0, -85(%rbp)	#, auvok
	.loc 1 400 0
	movb	$0, -84(%rbp)	#, a_valid
	.loc 1 402 0
	cmpb	$0, -81(%rbp)	#, useleft
	jne	.L189	#,
	.loc 1 403 0
	movl	$0, %r12d	#, auv
	.loc 1 404 0
	movb	$1, -85(%rbp)	#, auvok
	movzbl	-85(%rbp), %eax	# auvok, tmp232
	movb	%al, -84(%rbp)	# tmp232, a_valid
	jmp	.L190	#
.L189:
	.loc 1 410 0
	leaq	-8(%rbx), %rax	#, D.18054
	movq	(%rax), %rax	# *_103, D.18056
	movl	12(%rax), %eax	# _104->sv_flags, D.18055
	andl	$16777216, %eax	#, D.18055
	testl	%eax, %eax	# D.18055
	jne	.L191	#,
	.loc 1 410 0 is_stmt 0 discriminator 1
	leaq	-8(%rbx), %rax	#, D.18054
	movq	(%rax), %rax	# *_107, D.18056
	movl	12(%rax), %eax	# _108->sv_flags, D.18055
	andl	$131072, %eax	#, D.18055
	testl	%eax, %eax	# D.18055
	jne	.L192	#,
	.loc 1 410 0 discriminator 2
	leaq	-8(%rbx), %rax	#, D.18054
	movq	(%rax), %rax	# *_111, D.18056
	movl	12(%rax), %eax	# _112->sv_flags, D.18055
	andl	$262144, %eax	#, D.18055
	testl	%eax, %eax	# D.18055
	je	.L191	#,
.L192:
	.loc 1 410 0 discriminator 1
	leaq	-8(%rbx), %rax	#, D.18054
	movq	(%rax), %rax	# *_115, D.18056
	movl	12(%rax), %eax	# _116->sv_flags, D.18055
	andl	$65536, %eax	#, D.18055
	testl	%eax, %eax	# D.18055
	jne	.L191	#,
	.loc 1 410 0 discriminator 2
	leaq	-8(%rbx), %rax	#, D.18054
	movq	(%rax), %rax	# *_123, D.18056
	movq	%rax, %rdi	# D.18056,
	call	Perl_sv_2iv	#
.L191:
	.loc 1 411 0 is_stmt 1
	leaq	-8(%rbx), %rax	#, D.18054
	movq	(%rax), %rax	# *_126, D.18056
	movl	12(%rax), %eax	# _127->sv_flags, D.18055
	andl	$65536, %eax	#, D.18055
	testl	%eax, %eax	# D.18055
	je	.L190	#,
	.loc 1 412 0
	leaq	-8(%rbx), %rax	#, D.18054
	movq	(%rax), %rax	# *_130, D.18056
	movl	12(%rax), %eax	# _131->sv_flags, D.18055
	andl	$-2147418112, %eax	#, D.18055
	cmpl	$-2147418112, %eax	#, D.18055
	sete	%al	#, D.18058
	movb	%al, -85(%rbp)	# D.18058, auvok
	cmpb	$0, -85(%rbp)	#, auvok
	je	.L194	#,
	.loc 1 413 0
	leaq	-8(%rbx), %rax	#, D.18054
	movq	(%rax), %rax	# *_136, D.18056
	movq	(%rax), %rax	# _137->sv_any, D.18057
	movq	24(%rax), %r12	# MEM[(struct XPVUV *)_138].xuv_uv, auv
	jmp	.L195	#
.L194:
.LBB28:
	.loc 1 415 0
	leaq	-8(%rbx), %rax	#, D.18054
	movq	(%rax), %rax	# *_140, D.18056
	movq	(%rax), %rax	# _141->sv_any, D.18057
	movq	24(%rax), %r12	# MEM[(struct XPVIV *)_142].xiv_iv, aiv
	.loc 1 416 0
	testq	%r12, %r12	# aiv
	js	.L196	#,
	.loc 1 418 0
	movb	$1, -85(%rbp)	#, auvok
	jmp	.L195	#
.L196:
	.loc 1 420 0
	movq	%r12, %rax	# aiv, D.18059
	negq	%rax	# D.18059
	movq	%rax, %r12	# D.18059, auv
.L195:
.LBE28:
	.loc 1 423 0
	movb	$1, -84(%rbp)	#, a_valid
.L190:
	.loc 1 426 0
	cmpb	$0, -84(%rbp)	#, a_valid
	je	.L188	#,
.LBB29:
	.loc 1 427 0
	movb	$0, -83(%rbp)	#, result_good
	.loc 1 430 0
	movq	(%rbx), %rax	# *sp_21, D.18056
	movl	12(%rax), %eax	# _150->sv_flags, D.18055
	andl	$-2147418112, %eax	#, D.18055
	cmpl	$-2147418112, %eax	#, D.18055
	sete	%al	#, D.18058
	movb	%al, -82(%rbp)	# D.18058, buvok
	.loc 1 432 0
	cmpb	$0, -82(%rbp)	#, buvok
	je	.L197	#,
	.loc 1 433 0
	movq	(%rbx), %rax	# *sp_21, D.18056
	movq	(%rax), %rax	# _155->sv_any, D.18057
	movq	24(%rax), %r13	# MEM[(struct XPVUV *)_156].xuv_uv, buv
	jmp	.L198	#
.L197:
.LBB30:
	.loc 1 435 0
	movq	(%rbx), %rax	# *sp_21, D.18056
	movq	(%rax), %rax	# _158->sv_any, D.18057
	movq	24(%rax), %r13	# MEM[(struct XPVIV *)_159].xiv_iv, biv
	.loc 1 436 0
	testq	%r13, %r13	# biv
	js	.L199	#,
	.loc 1 438 0
	movb	$1, -82(%rbp)	#, buvok
	jmp	.L198	#
.L199:
	.loc 1 440 0
	movq	%r13, %rax	# biv, D.18059
	negq	%rax	# D.18059
	movq	%rax, %r13	# D.18059, buv
.L198:
.LBE30:
	.loc 1 452 0
	movzbl	-85(%rbp), %eax	# auvok, tmp233
	cmpb	-82(%rbp), %al	# buvok, tmp233
	je	.L200	#,
	.loc 1 454 0
	cmpq	%r13, %r12	# buv, auv
	jb	.L201	#,
	.loc 1 455 0
	movq	%r12, %rax	# auv, tmp234
	subq	%r13, %rax	# buv, tmp234
	movq	%rax, -80(%rbp)	# tmp234, result
	.loc 1 457 0
	cmpq	%r12, -80(%rbp)	# auv, result
	ja	.L204	#,
	.loc 1 458 0
	movb	$1, -83(%rbp)	#, result_good
	jmp	.L204	#
.L201:
	.loc 1 460 0
	movq	%r13, %rax	# buv, tmp235
	subq	%r12, %rax	# auv, tmp235
	movq	%rax, -80(%rbp)	# tmp235, result
	.loc 1 461 0
	cmpq	%r13, -80(%rbp)	# buv, result
	ja	.L204	#,
	.loc 1 464 0
	cmpb	$0, -85(%rbp)	#, auvok
	sete	%al	#, D.18058
	movb	%al, -85(%rbp)	# D.18058, auvok
	.loc 1 465 0
	movb	$1, -83(%rbp)	#, result_good
	jmp	.L204	#
.L200:
	.loc 1 470 0
	leaq	(%r12,%r13), %rax	#, tmp236
	movq	%rax, -80(%rbp)	# tmp236, result
	.loc 1 471 0
	cmpq	%r12, -80(%rbp)	# auv, result
	jb	.L204	#,
	.loc 1 472 0
	movb	$1, -83(%rbp)	#, result_good
.L204:
	.loc 1 474 0
	cmpb	$0, -83(%rbp)	#, result_good
	je	.L188	#,
	.loc 1 475 0
	subq	$8, %rbx	#, sp
	.loc 1 476 0
	cmpb	$0, -85(%rbp)	#, auvok
	je	.L205	#,
.LBB31:
	.loc 1 477 0
	movq	-80(%rbp), %rdx	# result, tmp237
	movq	-72(%rbp), %rax	# targ, tmp238
	movq	%rdx, %rsi	# tmp237,
	movq	%rax, %rdi	# tmp238,
	call	Perl_sv_setuv	#
.LBB32:
	movq	-72(%rbp), %rax	# targ, tmp239
	movl	12(%rax), %eax	# targ_33->sv_flags, D.18055
	andl	$16384, %eax	#, D.18055
	testl	%eax, %eax	# D.18055
	je	.L206	#,
	.loc 1 477 0 is_stmt 0 discriminator 1
	movq	-72(%rbp), %rax	# targ, tmp240
	movq	%rax, %rdi	# tmp240,
	call	Perl_mg_set	#
.L206:
	.loc 1 477 0 discriminator 2
	movq	-72(%rbp), %rax	# targ, tmp241
	movq	%rax, (%rbx)	# tmp241, *sp_173
.LBE32:
.LBE31:
	jmp	.L207	#
.L205:
	.loc 1 480 0 is_stmt 1
	movabsq	$-9223372036854775808, %rax	#, tmp242
	cmpq	%rax, -80(%rbp)	# tmp242, result
	ja	.L208	#,
.LBB33:
	.loc 1 481 0
	movq	-80(%rbp), %rax	# result, result.211
	negq	%rax	# D.18059
	movq	%rax, %rdx	# D.18059, D.18059
	movq	-72(%rbp), %rax	# targ, tmp243
	movq	%rdx, %rsi	# D.18059,
	movq	%rax, %rdi	# tmp243,
	call	Perl_sv_setiv	#
.LBB34:
	movq	-72(%rbp), %rax	# targ, tmp244
	movl	12(%rax), %eax	# targ_33->sv_flags, D.18055
	andl	$16384, %eax	#, D.18055
	testl	%eax, %eax	# D.18055
	je	.L209	#,
	.loc 1 481 0 is_stmt 0 discriminator 1
	movq	-72(%rbp), %rax	# targ, tmp245
	movq	%rax, %rdi	# tmp245,
	call	Perl_mg_set	#
.L209:
	.loc 1 481 0 discriminator 2
	movq	-72(%rbp), %rax	# targ, tmp246
	movq	%rax, (%rbx)	# tmp246, *sp_173
.LBE34:
.LBE33:
	jmp	.L207	#
.L208:
.LBB35:
	.loc 1 484 0 is_stmt 1
	movq	-80(%rbp), %rax	# result, tmp247
	testq	%rax, %rax	# tmp247
	js	.L210	#,
	cvtsi2sdq	%rax, %xmm0	# tmp247, D.18060
	jmp	.L211	#
.L210:
	movq	%rax, %rdx	# tmp247, tmp249
	shrq	%rdx	# tmp249
	andl	$1, %eax	#, tmp250
	orq	%rax, %rdx	# tmp250, tmp249
	cvtsi2sdq	%rdx, %xmm0	# tmp249, tmp248
	addsd	%xmm0, %xmm0	# tmp248, D.18060
.L211:
	movsd	.LC2(%rip), %xmm1	#, tmp251
	xorpd	%xmm1, %xmm0	# tmp251, D.18060
	movq	-72(%rbp), %rax	# targ, tmp252
	movq	%rax, %rdi	# tmp252,
	call	Perl_sv_setnv	#
.LBB36:
	movq	-72(%rbp), %rax	# targ, tmp253
	movl	12(%rax), %eax	# targ_33->sv_flags, D.18055
	andl	$16384, %eax	#, D.18055
	testl	%eax, %eax	# D.18055
	je	.L212	#,
	.loc 1 484 0 is_stmt 0 discriminator 1
	movq	-72(%rbp), %rax	# targ, tmp254
	movq	%rax, %rdi	# tmp254,
	call	Perl_mg_set	#
.L212:
	.loc 1 484 0 discriminator 2
	movq	-72(%rbp), %rax	# targ, tmp255
	movq	%rax, (%rbx)	# tmp255, *sp_173
.L207:
.LBE36:
.LBE35:
	.loc 1 487 0 is_stmt 1
	movq	%rbx, PL_stack_sp(%rip)	# sp, PL_stack_sp
	movq	PL_op(%rip), %rax	# PL_op, PL_op.212
	movq	(%rax), %rax	# PL_op.212_187->op_next, D.18050
	jmp	.L181	#
.L188:
.LBE29:
.LBE27:
.LBB37:
	.loc 1 493 0
	movq	%rbx, %rax	# sp, sp.213
	leaq	-8(%rax), %rbx	#, sp
	movq	(%rax), %rax	# *sp.213_189, PL_Sv.214
	movq	%rax, PL_Sv(%rip)	# PL_Sv.214, PL_Sv
	movq	PL_Sv(%rip), %rax	# PL_Sv, PL_Sv.216
	movl	12(%rax), %eax	# PL_Sv.216_192->sv_flags, D.18055
	andl	$131072, %eax	#, D.18055
	testl	%eax, %eax	# D.18055
	je	.L213	#,
	.loc 1 493 0 is_stmt 0 discriminator 1
	movq	PL_Sv(%rip), %rax	# PL_Sv, PL_Sv.217
	movq	(%rax), %rax	# PL_Sv.217_195->sv_any, D.18057
	movq	32(%rax), %rax	# MEM[(struct XPVNV *)_196].xnv_nv, iftmp.215
	jmp	.L214	#
.L213:
	.loc 1 493 0 discriminator 2
	movq	PL_Sv(%rip), %rax	# PL_Sv, PL_Sv.218
	movq	%rax, %rdi	# PL_Sv.218,
	call	Perl_sv_2nv	#
	movsd	%xmm0, -104(%rbp)	#, %sfp
	movq	-104(%rbp), %rax	# %sfp, iftmp.215
.L214:
	.loc 1 493 0 discriminator 3
	movq	%rax, -40(%rbp)	# iftmp.215, value
	.loc 1 494 0 is_stmt 1 discriminator 3
	cmpb	$0, -81(%rbp)	#, useleft
	jne	.L215	#,
.LBB38:
	.loc 1 496 0
	movq	-40(%rbp), %rax	# value, tmp256
	movq	-72(%rbp), %rdx	# targ, tmp257
	movq	%rax, -104(%rbp)	# tmp256, %sfp
	movsd	-104(%rbp), %xmm0	# %sfp,
	movq	%rdx, %rdi	# tmp257,
	call	Perl_sv_setnv	#
.LBB39:
	movq	-72(%rbp), %rax	# targ, tmp258
	movl	12(%rax), %eax	# targ_33->sv_flags, D.18055
	andl	$16384, %eax	#, D.18055
	testl	%eax, %eax	# D.18055
	je	.L216	#,
	.loc 1 496 0 is_stmt 0 discriminator 1
	movq	-72(%rbp), %rax	# targ, tmp259
	movq	%rax, %rdi	# tmp259,
	call	Perl_mg_set	#
.L216:
	.loc 1 496 0 discriminator 2
	movq	-72(%rbp), %rax	# targ, tmp260
	movq	%rax, (%rbx)	# tmp260, *sp_190
.LBE39:
.LBE38:
	.loc 1 497 0 is_stmt 1 discriminator 2
	movq	%rbx, PL_stack_sp(%rip)	# sp, PL_stack_sp
	movq	PL_op(%rip), %rax	# PL_op, PL_op.219
	movq	(%rax), %rax	# PL_op.219_204->op_next, D.18050
	jmp	.L181	#
.L215:
.LBB40:
	.loc 1 499 0
	movq	(%rbx), %rax	# *sp_190, D.18056
	movl	12(%rax), %eax	# _206->sv_flags, D.18055
	andl	$131072, %eax	#, D.18055
	testl	%eax, %eax	# D.18055
	je	.L217	#,
	.loc 1 499 0 is_stmt 0 discriminator 1
	movq	(%rbx), %rax	# *sp_190, D.18056
	movq	(%rax), %rax	# _209->sv_any, D.18057
	movq	32(%rax), %rax	# MEM[(struct XPVNV *)_210].xnv_nv, iftmp.220
	jmp	.L218	#
.L217:
	.loc 1 499 0 discriminator 2
	movq	(%rbx), %rax	# *sp_190, D.18056
	movq	%rax, %rdi	# D.18056,
	call	Perl_sv_2nv	#
	movsd	%xmm0, -104(%rbp)	#, %sfp
	movq	-104(%rbp), %rax	# %sfp, iftmp.220
.L218:
	.loc 1 499 0 discriminator 3
	movq	%rax, -104(%rbp)	# iftmp.220, %sfp
	movsd	-104(%rbp), %xmm0	# %sfp, D.18060
	addsd	-40(%rbp), %xmm0	# value, D.18060
	movq	-72(%rbp), %rax	# targ, tmp261
	movq	%rax, %rdi	# tmp261,
	call	Perl_sv_setnv	#
.LBB41:
	movq	-72(%rbp), %rax	# targ, tmp262
	movl	12(%rax), %eax	# targ_33->sv_flags, D.18055
	andl	$16384, %eax	#, D.18055
	testl	%eax, %eax	# D.18055
	je	.L219	#,
	.loc 1 499 0 discriminator 1
	movq	-72(%rbp), %rax	# targ, tmp263
	movq	%rax, %rdi	# tmp263,
	call	Perl_mg_set	#
.L219:
	.loc 1 499 0 discriminator 2
	movq	-72(%rbp), %rax	# targ, tmp264
	movq	%rax, (%rbx)	# tmp264, *sp_190
.LBE41:
.LBE40:
	.loc 1 500 0 is_stmt 1 discriminator 2
	movq	%rbx, PL_stack_sp(%rip)	# sp, PL_stack_sp
	movq	PL_op(%rip), %rax	# PL_op, PL_op.221
	movq	(%rax), %rax	# PL_op.221_218->op_next, D.18050
.L181:
.LBE37:
	.loc 1 502 0
	addq	$88, %rsp	#,
	popq	%rbx	#
	popq	%r12	#
	popq	%r13	#
	popq	%rbp	#
	.cfi_def_cfa 7, 8
	ret
	.cfi_endproc
.LFE20:
	.size	Perl_pp_add, .-Perl_pp_add
	.globl	Perl_pp_aelemfast
	.type	Perl_pp_aelemfast, @function
Perl_pp_aelemfast:
.LFB21:
	.loc 1 505 0
	.cfi_startproc
	pushq	%rbp	#
	.cfi_def_cfa_offset 16
	.cfi_offset 6, -16
	movq	%rsp, %rbp	#,
	.cfi_def_cfa_register 6
	pushq	%rbx	#
	subq	$40, %rsp	#,
	.cfi_offset 3, -24
	.loc 1 506 0
	movq	PL_stack_sp(%rip), %rbx	# PL_stack_sp, sp
	.loc 1 507 0
	movq	PL_op(%rip), %rax	# PL_op, PL_op.223
	movzbl	36(%rax), %eax	# PL_op.223_6->op_flags, D.18061
	.loc 1 508 0
	testb	%al, %al	# D.18062
	jns	.L221	#,
	.loc 1 508 0 is_stmt 0 discriminator 1
	movq	PL_curpad(%rip), %rdx	# PL_curpad, PL_curpad.224
	movq	PL_op(%rip), %rax	# PL_op, PL_op.225
	movq	24(%rax), %rax	# PL_op.225_10->op_targ, D.18063
	salq	$3, %rax	#, D.18063
	addq	%rdx, %rax	# PL_curpad.224, D.18064
	movq	(%rax), %rax	# *_13, iftmp.222
	jmp	.L222	#
.L221:
	.loc 1 508 0 discriminator 2
	movq	PL_op(%rip), %rax	# PL_op, PL_op.226
	movq	40(%rax), %rax	# MEM[(struct SVOP *)PL_op.226_15].op_sv, D.18065
	movq	(%rax), %rax	# MEM[(struct GV *)_16].sv_any, D.18066
	movq	56(%rax), %rax	# _17->xgv_gp, D.18067
	movq	32(%rax), %rax	# _18->gp_av, iftmp.222
.L222:
	.loc 1 507 0 is_stmt 1
	movq	%rax, -32(%rbp)	# iftmp.222, av
	.loc 1 509 0
	movq	PL_op(%rip), %rax	# PL_op, PL_op.227
	movzbl	36(%rax), %eax	# PL_op.227_21->op_flags, D.18061
	movzbl	%al, %eax	# D.18061, D.18068
	andl	$32, %eax	#, tmp90
	movl	%eax, -44(%rbp)	# tmp90, lval
	.loc 1 510 0
	movl	-44(%rbp), %edx	# lval, lval.228
	movq	PL_op(%rip), %rax	# PL_op, PL_op.229
	movzbl	37(%rax), %eax	# PL_op.229_26->op_private, D.18061
	movzbl	%al, %ecx	# D.18061, D.18069
	movq	-32(%rbp), %rax	# av, tmp91
	movl	%ecx, %esi	# D.18069,
	movq	%rax, %rdi	# tmp91,
	call	Perl_av_fetch	#
	movq	%rax, -24(%rbp)	# tmp92, svp
	.loc 1 511 0
	cmpq	$0, -24(%rbp)	#, svp
	je	.L223	#,
	.loc 1 511 0 is_stmt 0 discriminator 1
	movq	-24(%rbp), %rax	# svp, tmp93
	movq	(%rax), %rax	# *svp_29, iftmp.230
	jmp	.L224	#
.L223:
	.loc 1 511 0 discriminator 2
	movl	$PL_sv_undef, %eax	#, iftmp.230
.L224:
	.loc 1 511 0 discriminator 3
	movq	%rax, -40(%rbp)	# iftmp.230, sv
	.loc 1 512 0 is_stmt 1 discriminator 3
	movq	PL_stack_max(%rip), %rax	# PL_stack_max, PL_stack_max.231
	movq	%rax, %rdx	# PL_stack_max.231, PL_stack_max.232
	movq	%rbx, %rax	# sp, sp.233
	subq	%rax, %rdx	# sp.233, D.18070
	movq	%rdx, %rax	# D.18070, D.18070
	cmpq	$7, %rax	#, D.18070
	jg	.L225	#,
	.loc 1 512 0 is_stmt 0 discriminator 1
	movl	$1, %edx	#,
	movq	%rbx, %rsi	# sp,
	movq	%rbx, %rdi	# sp,
	call	Perl_stack_grow	#
	movq	%rax, %rbx	#, sp
.L225:
	.loc 1 513 0 is_stmt 1
	cmpl	$0, -44(%rbp)	#, lval
	jne	.L226	#,
	.loc 1 513 0 is_stmt 0 discriminator 1
	movq	-40(%rbp), %rax	# sv, tmp94
	movl	12(%rax), %eax	# sv_32->sv_flags, D.18068
	andl	$8192, %eax	#, D.18068
	testl	%eax, %eax	# D.18068
	je	.L226	#,
	.loc 1 514 0 is_stmt 1
	movq	-40(%rbp), %rax	# sv, tmp95
	movq	%rax, %rdi	# tmp95,
	call	Perl_sv_mortalcopy	#
	movq	%rax, -40(%rbp)	# tmp96, sv
.L226:
	.loc 1 515 0
	addq	$8, %rbx	#, sp
	movq	-40(%rbp), %rax	# sv, tmp97
	movq	%rax, (%rbx)	# tmp97, *sp_41
	.loc 1 516 0
	movq	%rbx, PL_stack_sp(%rip)	# sp, PL_stack_sp
	movq	PL_op(%rip), %rax	# PL_op, PL_op.234
	movq	(%rax), %rax	# PL_op.234_42->op_next, D.18071
	.loc 1 517 0
	addq	$40, %rsp	#,
	popq	%rbx	#
	popq	%rbp	#
	.cfi_def_cfa 7, 8
	ret
	.cfi_endproc
.LFE21:
	.size	Perl_pp_aelemfast, .-Perl_pp_aelemfast
	.globl	Perl_pp_join
	.type	Perl_pp_join, @function
Perl_pp_join:
.LFB22:
	.loc 1 520 0
	.cfi_startproc
	pushq	%rbp	#
	.cfi_def_cfa_offset 16
	.cfi_offset 6, -16
	movq	%rsp, %rbp	#,
	.cfi_def_cfa_register 6
	pushq	%r12	#
	pushq	%rbx	#
	subq	$16, %rsp	#,
	.cfi_offset 12, -24
	.cfi_offset 3, -32
	.loc 1 521 0
	movq	PL_stack_sp(%rip), %rbx	# PL_stack_sp, sp
	movq	PL_stack_base(%rip), %rcx	# PL_stack_base, PL_stack_base.235
	movq	PL_markstack_ptr(%rip), %rax	# PL_markstack_ptr, PL_markstack_ptr.236
	leaq	-4(%rax), %rdx	#, PL_markstack_ptr.238
	movq	%rdx, PL_markstack_ptr(%rip)	# PL_markstack_ptr.238, PL_markstack_ptr
	movl	(%rax), %eax	# *PL_markstack_ptr.237_4, D.18072
	cltq
	salq	$3, %rax	#, D.18073
	leaq	(%rcx,%rax), %r12	#, mark
	movq	PL_curpad(%rip), %rdx	# PL_curpad, PL_curpad.239
	movq	PL_op(%rip), %rax	# PL_op, PL_op.240
	movq	24(%rax), %rax	# PL_op.240_11->op_targ, D.18073
	salq	$3, %rax	#, D.18073
	addq	%rdx, %rax	# PL_curpad.239, D.18074
	movq	(%rax), %rax	# *_14, tmp77
	movq	%rax, -24(%rbp)	# tmp77, targ
	.loc 1 522 0
	addq	$8, %r12	#, mark
	.loc 1 523 0
	movq	(%r12), %rsi	# *mark_16, D.18075
	movq	-24(%rbp), %rax	# targ, tmp78
	movq	%rbx, %rcx	# sp,
	movq	%r12, %rdx	# mark,
	movq	%rax, %rdi	# tmp78,
	call	Perl_do_join	#
	.loc 1 524 0
	movq	%r12, %rbx	# mark, sp
	.loc 1 525 0
	movq	-24(%rbp), %rax	# targ, tmp79
	movq	%rax, (%rbx)	# tmp79, *sp_18
	.loc 1 526 0
	movq	%rbx, PL_stack_sp(%rip)	# sp, PL_stack_sp
	movq	PL_op(%rip), %rax	# PL_op, PL_op.241
	movq	(%rax), %rax	# PL_op.241_19->op_next, D.18076
	.loc 1 527 0
	addq	$16, %rsp	#,
	popq	%rbx	#
	popq	%r12	#
	popq	%rbp	#
	.cfi_def_cfa 7, 8
	ret
	.cfi_endproc
.LFE22:
	.size	Perl_pp_join, .-Perl_pp_join
	.globl	Perl_pp_pushre
	.type	Perl_pp_pushre, @function
Perl_pp_pushre:
.LFB23:
	.loc 1 530 0
	.cfi_startproc
	pushq	%rbp	#
	.cfi_def_cfa_offset 16
	.cfi_offset 6, -16
	movq	%rsp, %rbp	#,
	.cfi_def_cfa_register 6
	pushq	%rbx	#
	subq	$8, %rsp	#,
	.cfi_offset 3, -24
	.loc 1 531 0
	movq	PL_stack_sp(%rip), %rbx	# PL_stack_sp, sp
.LBB42:
	.loc 1 543 0
	movq	PL_stack_max(%rip), %rax	# PL_stack_max, PL_stack_max.242
	movq	%rax, %rdx	# PL_stack_max.242, PL_stack_max.243
	movq	%rbx, %rax	# sp, sp.244
	subq	%rax, %rdx	# sp.244, D.18077
	movq	%rdx, %rax	# D.18077, D.18077
	cmpq	$7, %rax	#, D.18077
	jg	.L231	#,
	.loc 1 543 0 is_stmt 0 discriminator 1
	movl	$1, %edx	#,
	movq	%rbx, %rsi	# sp,
	movq	%rbx, %rdi	# sp,
	call	Perl_stack_grow	#
	movq	%rax, %rbx	#, sp
.L231:
	.loc 1 543 0 discriminator 2
	addq	$8, %rbx	#, sp
	movq	PL_op(%rip), %rax	# PL_op, PL_op.245
	movq	%rax, (%rbx)	# PL_op.245, *sp_8
.LBE42:
	.loc 1 545 0 is_stmt 1 discriminator 2
	movq	%rbx, PL_stack_sp(%rip)	# sp, PL_stack_sp
	movq	PL_op(%rip), %rax	# PL_op, PL_op.246
	movq	(%rax), %rax	# PL_op.246_11->op_next, D.18079
	.loc 1 546 0 discriminator 2
	addq	$8, %rsp	#,
	popq	%rbx	#
	popq	%rbp	#
	.cfi_def_cfa 7, 8
	ret
	.cfi_endproc
.LFE23:
	.size	Perl_pp_pushre, .-Perl_pp_pushre
	.section	.rodata
.LC3:
	.string	"PRINT"
	.text
	.globl	Perl_pp_print
	.type	Perl_pp_print, @function
Perl_pp_print:
.LFB24:
	.loc 1 551 0
	.cfi_startproc
	pushq	%rbp	#
	.cfi_def_cfa_offset 16
	.cfi_offset 6, -16
	movq	%rsp, %rbp	#,
	.cfi_def_cfa_register 6
	pushq	%r13	#
	pushq	%r12	#
	pushq	%rbx	#
	subq	$40, %rsp	#,
	.cfi_offset 13, -24
	.cfi_offset 12, -32
	.cfi_offset 3, -40
	.loc 1 552 0
	movq	PL_stack_sp(%rip), %r12	# PL_stack_sp, sp
	movq	PL_stack_base(%rip), %rcx	# PL_stack_base, PL_stack_base.247
	movq	PL_markstack_ptr(%rip), %rax	# PL_markstack_ptr, PL_markstack_ptr.248
	leaq	-4(%rax), %rdx	#, PL_markstack_ptr.250
	movq	%rdx, PL_markstack_ptr(%rip)	# PL_markstack_ptr.250, PL_markstack_ptr
	movl	(%rax), %eax	# *PL_markstack_ptr.249_24, D.18081
	cltq
	salq	$3, %rax	#, D.18082
	leaq	(%rcx,%rax), %rbx	#, mark
	movq	%rbx, %rdx	# mark, mark.251
	movq	PL_stack_base(%rip), %rax	# PL_stack_base, PL_stack_base.252
	subq	%rax, %rdx	# PL_stack_base.253, D.18083
	movq	%rdx, %rax	# D.18083, D.18083
	sarq	$3, %rax	#, tmp289
	movl	%eax, -64(%rbp)	# D.18083, origmark
	.loc 1 558 0
	movq	PL_op(%rip), %rax	# PL_op, PL_op.254
	movzbl	36(%rax), %eax	# PL_op.254_36->op_flags, D.18084
	movzbl	%al, %eax	# D.18084, D.18081
	andl	$64, %eax	#, D.18081
	testl	%eax, %eax	# D.18081
	je	.L234	#,
	.loc 1 559 0
	addq	$8, %rbx	#, mark
	movq	(%rbx), %rax	# *mark_40, tmp290
	movq	%rax, -56(%rbp)	# tmp290, gv
	jmp	.L235	#
.L234:
	.loc 1 561 0
	movq	PL_defoutgv(%rip), %rax	# PL_defoutgv, tmp291
	movq	%rax, -56(%rbp)	# tmp291, gv
.L235:
	.loc 1 563 0
	cmpq	$0, -56(%rbp)	#, gv
	je	.L236	#,
	.loc 1 563 0 is_stmt 0 discriminator 1
	cmpq	$0, -56(%rbp)	#, gv
	je	.L237	#,
	movq	-56(%rbp), %rax	# gv, tmp292
	movl	12(%rax), %eax	# MEM[(struct SV *)gv_10].sv_flags, D.18085
	movzbl	%al, %eax	# D.18085, D.18085
	cmpl	$13, %eax	#, D.18085
	jne	.L237	#,
	movq	-56(%rbp), %rax	# gv, tmp293
	movq	(%rax), %rax	# gv_10->sv_any, D.18086
	movq	56(%rax), %rax	# _45->xgv_gp, D.18087
	testq	%rax, %rax	# D.18087
	je	.L237	#,
	movq	-56(%rbp), %rax	# gv, tmp294
	movq	(%rax), %rax	# gv_10->sv_any, D.18086
	movq	56(%rax), %rax	# _47->xgv_gp, D.18087
	movq	16(%rax), %rax	# _48->gp_io, iftmp.255
	jmp	.L238	#
.L237:
	.loc 1 563 0 discriminator 2
	movl	$0, %eax	#, iftmp.255
.L238:
	.loc 1 563 0 discriminator 3
	movq	%rax, -48(%rbp)	# iftmp.255, io
	cmpq	$0, -48(%rbp)	#, io
	je	.L236	#,
	.loc 1 564 0 is_stmt 1
	movq	-48(%rbp), %rax	# io, tmp295
	movl	12(%rax), %eax	# MEM[(struct SV *)io_51].sv_flags, D.18085
	andl	$32768, %eax	#, D.18085
	testl	%eax, %eax	# D.18085
	je	.L239	#,
	.loc 1 564 0 is_stmt 0 discriminator 1
	movq	-48(%rbp), %rax	# io, tmp296
	movl	$113, %esi	#,
	movq	%rax, %rdi	# tmp296,
	call	Perl_mg_find	#
	jmp	.L240	#
.L239:
	.loc 1 564 0 discriminator 2
	movl	$0, %eax	#, iftmp.256
.L240:
	.loc 1 564 0 discriminator 3
	movq	%rax, -40(%rbp)	# iftmp.256, mg
	cmpq	$0, -40(%rbp)	#, mg
	je	.L236	#,
.L241:
	.loc 1 567 0 is_stmt 1
	movq	PL_stack_base(%rip), %rax	# PL_stack_base, PL_stack_base.257
	movl	-64(%rbp), %edx	# origmark, tmp297
	movslq	%edx, %rdx	# tmp297, D.18082
	salq	$3, %rdx	#, D.18082
	addq	%rdx, %rax	# D.18082, D.18097
	cmpq	%rbx, %rax	# mark, D.18097
	jne	.L242	#,
	.loc 1 571 0
	movq	PL_stack_max(%rip), %rax	# PL_stack_max, PL_stack_max.258
	movq	%rax, %rdx	# PL_stack_max.258, PL_stack_max.259
	movq	%r12, %rax	# sp, sp.260
	subq	%rax, %rdx	# sp.260, D.18083
	movq	%rdx, %rax	# D.18083, D.18083
	cmpq	$7, %rax	#, D.18083
	jg	.L243	#,
.LBB43:
	.loc 1 571 0 is_stmt 0 discriminator 1
	movq	%rbx, %rdx	# mark, mark.261
	movq	PL_stack_base(%rip), %rax	# PL_stack_base, PL_stack_base.262
	subq	%rax, %rdx	# PL_stack_base.263, D.18083
	movq	%rdx, %rax	# D.18083, D.18083
	sarq	$3, %rax	#, tmp298
	movl	%eax, -60(%rbp)	# D.18083, markoff
	movl	$1, %edx	#,
	movq	%r12, %rsi	# sp,
	movq	%r12, %rdi	# sp,
	call	Perl_stack_grow	#
	movq	%rax, %r12	#, sp
	movq	PL_stack_base(%rip), %rax	# PL_stack_base, PL_stack_base.264
	movl	-60(%rbp), %edx	# markoff, tmp299
	movslq	%edx, %rdx	# tmp299, D.18082
	salq	$3, %rdx	#, D.18082
	leaq	(%rax,%rdx), %rbx	#, mark
.L243:
.LBE43:
	.loc 1 572 0 is_stmt 1
	addq	$8, %rbx	#, mark
	.loc 1 573 0
	movq	%r12, %rdx	# sp, sp.265
	movq	%rbx, %rax	# mark, mark.266
	subq	%rax, %rdx	# mark.266, D.18083
	movq	%rdx, %rax	# D.18083, D.18083
	sarq	$3, %rax	#, tmp300
	addq	$1, %rax	#, D.18083
	leaq	0(,%rax,8), %rdx	#, D.18082
	leaq	8(%rbx), %rax	#, D.18090
	movq	%rbx, %rsi	# mark,
	movq	%rax, %rdi	# D.18090,
	call	memmove	#
	.loc 1 574 0
	addq	$8, %r12	#, sp
.L242:
.LBB44:
	.loc 1 576 0
	movq	PL_markstack_ptr(%rip), %rax	# PL_markstack_ptr, PL_markstack_ptr.267
	addq	$4, %rax	#, PL_markstack_ptr.268
	movq	%rax, PL_markstack_ptr(%rip)	# PL_markstack_ptr.268, PL_markstack_ptr
	movq	PL_markstack_ptr(%rip), %rdx	# PL_markstack_ptr, PL_markstack_ptr.269
	movq	PL_markstack_max(%rip), %rax	# PL_markstack_max, PL_markstack_max.270
	cmpq	%rax, %rdx	# PL_markstack_max.270, PL_markstack_ptr.269
	jne	.L244	#,
	.loc 1 576 0 is_stmt 0 discriminator 1
	call	Perl_markstack_grow	#
.L244:
	.loc 1 576 0 discriminator 2
	movq	PL_markstack_ptr(%rip), %rax	# PL_markstack_ptr, PL_markstack_ptr.271
	leaq	-8(%rbx), %rdx	#, D.18097
	movq	%rdx, %rcx	# D.18097, D.18083
	movq	PL_stack_base(%rip), %rdx	# PL_stack_base, PL_stack_base.272
	subq	%rdx, %rcx	# PL_stack_base.273, D.18083
	movq	%rcx, %rdx	# D.18083, D.18083
	sarq	$3, %rdx	#, tmp301
	movl	%edx, (%rax)	# D.18081, *PL_markstack_ptr.271_260
.LBE44:
	.loc 1 577 0 is_stmt 1 discriminator 2
	movq	-40(%rbp), %rax	# mg, tmp302
	movq	24(%rax), %rax	# mg_13->mg_obj, D.18089
	testq	%rax, %rax	# D.18089
	je	.L245	#,
	.loc 1 577 0 is_stmt 0 discriminator 1
	movq	-40(%rbp), %rax	# mg, tmp303
	movq	24(%rax), %rax	# mg_13->mg_obj, iftmp.274
	jmp	.L246	#
.L245:
	.loc 1 577 0 discriminator 2
	movq	-48(%rbp), %rax	# io, tmp304
	movq	%rax, %rdi	# tmp304,
	call	Perl_newRV	#
	movq	%rax, %rdi	# D.18089,
	call	Perl_sv_2mortal	#
.L246:
	.loc 1 577 0 discriminator 3
	movq	%rax, (%rbx)	# iftmp.274, *mark_5
	.loc 1 578 0 is_stmt 1 discriminator 3
	movq	%r12, PL_stack_sp(%rip)	# sp, PL_stack_sp
	.loc 1 579 0 discriminator 3
	call	Perl_push_scope	#
	.loc 1 580 0 discriminator 3
	movl	$0, %esi	#,
	movl	$.LC3, %edi	#,
	call	Perl_call_method	#
	.loc 1 581 0 discriminator 3
	call	Perl_pop_scope	#
	.loc 1 582 0 discriminator 3
	movq	PL_stack_sp(%rip), %r12	# PL_stack_sp, sp
	.loc 1 583 0 discriminator 3
	movq	PL_stack_base(%rip), %rax	# PL_stack_base, PL_stack_base.275
	movl	-64(%rbp), %edx	# origmark, tmp305
	movslq	%edx, %rdx	# tmp305, D.18099
	addq	$1, %rdx	#, D.18099
	salq	$3, %rdx	#, D.18099
	leaq	(%rax,%rdx), %rbx	#, mark
	.loc 1 584 0 discriminator 3
	movq	(%r12), %rax	# *sp_273, D.18089
	movq	%rax, (%rbx)	# D.18089, *mark_278
	.loc 1 585 0 discriminator 3
	movq	%rbx, %r12	# mark, sp
	.loc 1 586 0 discriminator 3
	movq	%r12, PL_stack_sp(%rip)	# sp, PL_stack_sp
	movq	PL_op(%rip), %rax	# PL_op, PL_op.276
	movq	(%rax), %rax	# PL_op.276_281->op_next, D.18080
	jmp	.L247	#
.L236:
	.loc 1 588 0
	cmpq	$0, -56(%rbp)	#, gv
	je	.L248	#,
	.loc 1 588 0 is_stmt 0 discriminator 1
	movq	-56(%rbp), %rax	# gv, tmp306
	movl	12(%rax), %eax	# MEM[(struct SV *)gv_10].sv_flags, D.18085
	movzbl	%al, %eax	# D.18085, D.18085
	cmpl	$13, %eax	#, D.18085
	jne	.L248	#,
	movq	-56(%rbp), %rax	# gv, tmp307
	movq	(%rax), %rax	# gv_10->sv_any, D.18086
	movq	56(%rax), %rax	# _59->xgv_gp, D.18087
	testq	%rax, %rax	# D.18087
	je	.L248	#,
	movq	-56(%rbp), %rax	# gv, tmp308
	movq	(%rax), %rax	# gv_10->sv_any, D.18086
	movq	56(%rax), %rax	# _61->xgv_gp, D.18087
	movq	16(%rax), %rax	# _62->gp_io, iftmp.277
	jmp	.L249	#
.L248:
	.loc 1 588 0 discriminator 2
	movl	$0, %eax	#, iftmp.277
.L249:
	.loc 1 588 0 discriminator 3
	movq	%rax, -48(%rbp)	# iftmp.277, io
	cmpq	$0, -48(%rbp)	#, io
	jne	.L250	#,
	.loc 1 589 0 is_stmt 1
	movq	-56(%rbp), %rax	# gv, tmp309
	movq	(%rax), %rax	# gv_10->sv_any, D.18086
	movq	56(%rax), %rax	# _66->xgv_gp, D.18087
	movq	48(%rax), %rax	# _67->gp_egv, D.18088
	testq	%rax, %rax	# D.18088
	je	.L251	#,
	.loc 1 589 0 is_stmt 0 discriminator 1
	movq	-56(%rbp), %rax	# gv, tmp310
	movq	(%rax), %rax	# gv_10->sv_any, D.18086
	movq	56(%rax), %rax	# _69->xgv_gp, D.18087
	movq	48(%rax), %rax	# _70->gp_egv, D.18088
	testq	%rax, %rax	# D.18088
	je	.L252	#,
	movq	-56(%rbp), %rax	# gv, tmp311
	movq	(%rax), %rax	# gv_10->sv_any, D.18086
	movq	56(%rax), %rax	# _72->xgv_gp, D.18087
	movq	48(%rax), %rax	# _73->gp_egv, D.18088
	movl	12(%rax), %eax	# MEM[(struct SV *)_74].sv_flags, D.18085
	movzbl	%al, %eax	# D.18085, D.18085
	cmpl	$13, %eax	#, D.18085
	jne	.L252	#,
	movq	-56(%rbp), %rax	# gv, tmp312
	movq	(%rax), %rax	# gv_10->sv_any, D.18086
	movq	56(%rax), %rax	# _77->xgv_gp, D.18087
	movq	48(%rax), %rax	# _78->gp_egv, D.18088
	movq	(%rax), %rax	# _79->sv_any, D.18086
	movq	56(%rax), %rax	# _80->xgv_gp, D.18087
	testq	%rax, %rax	# D.18087
	je	.L252	#,
	movq	-56(%rbp), %rax	# gv, tmp313
	movq	(%rax), %rax	# gv_10->sv_any, D.18086
	movq	56(%rax), %rax	# _82->xgv_gp, D.18087
	movq	48(%rax), %rax	# _83->gp_egv, D.18088
	movq	(%rax), %rax	# _84->sv_any, D.18086
	movq	56(%rax), %rax	# _85->xgv_gp, D.18087
	movq	16(%rax), %rax	# _86->gp_io, iftmp.278
	jmp	.L253	#
.L252:
	.loc 1 589 0 discriminator 2
	movl	$0, %eax	#, iftmp.278
.L253:
	.loc 1 589 0 discriminator 3
	movq	%rax, -48(%rbp)	# iftmp.278, io
	cmpq	$0, -48(%rbp)	#, io
	je	.L251	#,
	.loc 1 590 0 is_stmt 1
	movq	-48(%rbp), %rax	# io, tmp314
	movl	12(%rax), %eax	# MEM[(struct SV *)io_89].sv_flags, D.18085
	andl	$32768, %eax	#, D.18085
	testl	%eax, %eax	# D.18085
	je	.L254	#,
	.loc 1 590 0 is_stmt 0 discriminator 1
	movq	-48(%rbp), %rax	# io, tmp315
	movl	$113, %esi	#,
	movq	%rax, %rdi	# tmp315,
	call	Perl_mg_find	#
	jmp	.L255	#
.L254:
	.loc 1 590 0 discriminator 2
	movl	$0, %eax	#, iftmp.279
.L255:
	.loc 1 590 0 discriminator 3
	movq	%rax, -40(%rbp)	# iftmp.279, mg
	cmpq	$0, -40(%rbp)	#, mg
	je	.L251	#,
	.loc 1 591 0 is_stmt 1
	jmp	.L241	#
.L251:
	.loc 1 592 0
	movq	PL_curcop(%rip), %rax	# PL_curcop, PL_curcop.280
	movq	80(%rax), %rax	# PL_curcop.280_95->cop_warnings, D.18089
	testq	%rax, %rax	# D.18089
	je	.L256	#,
	.loc 1 592 0 is_stmt 0 discriminator 1
	movq	PL_curcop(%rip), %rax	# PL_curcop, PL_curcop.281
	movq	80(%rax), %rax	# PL_curcop.281_97->cop_warnings, D.18089
	cmpq	$32, %rax	#, D.18089
	je	.L256	#,
	movq	PL_curcop(%rip), %rax	# PL_curcop, PL_curcop.282
	movq	80(%rax), %rax	# PL_curcop.282_99->cop_warnings, D.18089
	cmpq	$16, %rax	#, D.18089
	je	.L257	#,
	movq	PL_curcop(%rip), %rax	# PL_curcop, PL_curcop.283
	movq	80(%rax), %rax	# PL_curcop.283_101->cop_warnings, D.18089
	movq	(%rax), %rax	# _102->sv_any, D.18090
	movq	(%rax), %rax	# MEM[(struct XPV *)_103].xpv_pv, D.18091
	addq	$2, %rax	#, D.18091
	movzbl	(%rax), %eax	# *_105, D.18092
	movsbl	%al, %eax	# D.18092, D.18081
	andl	$64, %eax	#, D.18081
	testl	%eax, %eax	# D.18081
	jne	.L257	#,
	movq	PL_curcop(%rip), %rax	# PL_curcop, PL_curcop.284
	movq	80(%rax), %rax	# PL_curcop.284_109->cop_warnings, D.18089
	movq	(%rax), %rax	# _110->sv_any, D.18090
	movq	(%rax), %rax	# MEM[(struct XPV *)_111].xpv_pv, D.18091
	addq	$1, %rax	#, D.18091
	movzbl	(%rax), %eax	# *_113, D.18092
	movsbl	%al, %eax	# D.18092, D.18081
	andl	$16, %eax	#, D.18081
	testl	%eax, %eax	# D.18081
	jne	.L257	#,
.L256:
	.loc 1 592 0 discriminator 2
	movq	PL_curcop(%rip), %rax	# PL_curcop, PL_curcop.285
	movq	80(%rax), %rax	# PL_curcop.285_117->cop_warnings, D.18089
	testq	%rax, %rax	# D.18089
	jne	.L258	#,
	.loc 1 592 0 discriminator 1
	movzbl	PL_dowarn(%rip), %eax	# PL_dowarn, PL_dowarn.286
	movzbl	%al, %eax	# PL_dowarn.286, D.18081
	andl	$1, %eax	#, D.18081
	testl	%eax, %eax	# D.18081
	je	.L258	#,
.L257:
	.loc 1 593 0 is_stmt 1
	movq	PL_op(%rip), %rax	# PL_op, PL_op.287
	movzwl	32(%rax), %eax	# PL_op.287_122->op_type, D.18093
	movzwl	%ax, %edx	# D.18093, D.18081
	movq	-48(%rbp), %rcx	# io, tmp316
	movq	-56(%rbp), %rax	# gv, tmp317
	movq	%rcx, %rsi	# tmp316,
	movq	%rax, %rdi	# tmp317,
	call	Perl_report_evil_fh	#
.L258:
	.loc 1 594 0
	call	__errno_location	#
	movl	$9, (%rax)	#, *_125
	.loc 1 595 0
	jmp	.L259	#
.L250:
	.loc 1 597 0
	movq	-48(%rbp), %rax	# io, tmp318
	movq	(%rax), %rax	# io_65->sv_any, D.18095
	movq	64(%rax), %r13	# _126->xio_ofp, fp
	testq	%r13, %r13	# fp
	jne	.L260	#,
	.loc 1 598 0
	movq	PL_curcop(%rip), %rax	# PL_curcop, PL_curcop.288
	movq	80(%rax), %rax	# PL_curcop.288_128->cop_warnings, D.18089
	testq	%rax, %rax	# D.18089
	je	.L261	#,
	.loc 1 598 0 is_stmt 0 discriminator 1
	movq	PL_curcop(%rip), %rax	# PL_curcop, PL_curcop.289
	movq	80(%rax), %rax	# PL_curcop.289_130->cop_warnings, D.18089
	cmpq	$32, %rax	#, D.18089
	je	.L261	#,
	movq	PL_curcop(%rip), %rax	# PL_curcop, PL_curcop.290
	movq	80(%rax), %rax	# PL_curcop.290_132->cop_warnings, D.18089
	cmpq	$16, %rax	#, D.18089
	je	.L262	#,
	movq	PL_curcop(%rip), %rax	# PL_curcop, PL_curcop.291
	movq	80(%rax), %rax	# PL_curcop.291_134->cop_warnings, D.18089
	movq	(%rax), %rax	# _135->sv_any, D.18090
	movq	(%rax), %rax	# MEM[(struct XPV *)_136].xpv_pv, D.18091
	addq	$1, %rax	#, D.18091
	movzbl	(%rax), %eax	# *_138, D.18092
	movsbl	%al, %eax	# D.18092, D.18081
	andl	$16, %eax	#, D.18081
	testl	%eax, %eax	# D.18081
	jne	.L262	#,
	movq	PL_curcop(%rip), %rax	# PL_curcop, PL_curcop.292
	movq	80(%rax), %rax	# PL_curcop.292_142->cop_warnings, D.18089
	movq	(%rax), %rax	# _143->sv_any, D.18090
	movq	(%rax), %rax	# MEM[(struct XPV *)_144].xpv_pv, D.18091
	addq	$1, %rax	#, D.18091
	movzbl	(%rax), %eax	# *_146, D.18092
	movsbl	%al, %eax	# D.18092, D.18081
	andl	$4, %eax	#, D.18081
	testl	%eax, %eax	# D.18081
	jne	.L262	#,
.L261:
	.loc 1 598 0 discriminator 2
	movq	PL_curcop(%rip), %rax	# PL_curcop, PL_curcop.293
	movq	80(%rax), %rax	# PL_curcop.293_150->cop_warnings, D.18089
	testq	%rax, %rax	# D.18089
	jne	.L263	#,
	.loc 1 598 0 discriminator 1
	movzbl	PL_dowarn(%rip), %eax	# PL_dowarn, PL_dowarn.294
	movzbl	%al, %eax	# PL_dowarn.294, D.18081
	andl	$1, %eax	#, D.18081
	testl	%eax, %eax	# D.18081
	je	.L263	#,
.L262:
	.loc 1 599 0 is_stmt 1
	movq	-48(%rbp), %rax	# io, tmp319
	movq	(%rax), %rax	# io_65->sv_any, D.18095
	movq	56(%rax), %rax	# _155->xio_ifp, D.18096
	testq	%rax, %rax	# D.18096
	je	.L264	#,
	.loc 1 600 0
	movq	-48(%rbp), %rcx	# io, tmp320
	movq	-56(%rbp), %rax	# gv, tmp321
	movl	$-1, %edx	#,
	movq	%rcx, %rsi	# tmp320,
	movq	%rax, %rdi	# tmp321,
	call	Perl_report_evil_fh	#
	jmp	.L263	#
.L264:
	.loc 1 601 0
	movq	PL_curcop(%rip), %rax	# PL_curcop, PL_curcop.295
	movq	80(%rax), %rax	# PL_curcop.295_157->cop_warnings, D.18089
	testq	%rax, %rax	# D.18089
	je	.L265	#,
	.loc 1 601 0 is_stmt 0 discriminator 1
	movq	PL_curcop(%rip), %rax	# PL_curcop, PL_curcop.296
	movq	80(%rax), %rax	# PL_curcop.296_159->cop_warnings, D.18089
	cmpq	$32, %rax	#, D.18089
	je	.L265	#,
	movq	PL_curcop(%rip), %rax	# PL_curcop, PL_curcop.297
	movq	80(%rax), %rax	# PL_curcop.297_161->cop_warnings, D.18089
	cmpq	$16, %rax	#, D.18089
	je	.L266	#,
	movq	PL_curcop(%rip), %rax	# PL_curcop, PL_curcop.298
	movq	80(%rax), %rax	# PL_curcop.298_163->cop_warnings, D.18089
	movq	(%rax), %rax	# _164->sv_any, D.18090
	movq	(%rax), %rax	# MEM[(struct XPV *)_165].xpv_pv, D.18091
	addq	$2, %rax	#, D.18091
	movzbl	(%rax), %eax	# *_167, D.18092
	movsbl	%al, %eax	# D.18092, D.18081
	andl	$64, %eax	#, D.18081
	testl	%eax, %eax	# D.18081
	jne	.L266	#,
	movq	PL_curcop(%rip), %rax	# PL_curcop, PL_curcop.299
	movq	80(%rax), %rax	# PL_curcop.299_171->cop_warnings, D.18089
	movq	(%rax), %rax	# _172->sv_any, D.18090
	movq	(%rax), %rax	# MEM[(struct XPV *)_173].xpv_pv, D.18091
	addq	$1, %rax	#, D.18091
	movzbl	(%rax), %eax	# *_175, D.18092
	movsbl	%al, %eax	# D.18092, D.18081
	andl	$16, %eax	#, D.18081
	testl	%eax, %eax	# D.18081
	jne	.L266	#,
.L265:
	.loc 1 601 0 discriminator 2
	movq	PL_curcop(%rip), %rax	# PL_curcop, PL_curcop.300
	movq	80(%rax), %rax	# PL_curcop.300_179->cop_warnings, D.18089
	testq	%rax, %rax	# D.18089
	jne	.L263	#,
	.loc 1 601 0 discriminator 1
	movzbl	PL_dowarn(%rip), %eax	# PL_dowarn, PL_dowarn.301
	movzbl	%al, %eax	# PL_dowarn.301, D.18081
	andl	$1, %eax	#, D.18081
	testl	%eax, %eax	# D.18081
	je	.L263	#,
.L266:
	.loc 1 602 0 is_stmt 1
	movq	PL_op(%rip), %rax	# PL_op, PL_op.302
	movzwl	32(%rax), %eax	# PL_op.302_184->op_type, D.18093
	movzwl	%ax, %edx	# D.18093, D.18081
	movq	-48(%rbp), %rcx	# io, tmp322
	movq	-56(%rbp), %rax	# gv, tmp323
	movq	%rcx, %rsi	# tmp322,
	movq	%rax, %rdi	# tmp323,
	call	Perl_report_evil_fh	#
.L263:
	.loc 1 604 0
	call	__errno_location	#
	movl	$9, (%rax)	#, *_187
	.loc 1 605 0
	jmp	.L259	#
.L260:
	.loc 1 608 0
	addq	$8, %rbx	#, mark
	.loc 1 609 0
	movq	PL_ofs_sv(%rip), %rax	# PL_ofs_sv, PL_ofs_sv.303
	testq	%rax, %rax	# PL_ofs_sv.303
	je	.L267	#,
	.loc 1 609 0 is_stmt 0 discriminator 1
	movq	PL_ofs_sv(%rip), %rax	# PL_ofs_sv, PL_ofs_sv.304
	movl	12(%rax), %eax	# PL_ofs_sv.304_190->sv_flags, D.18085
	andl	$118423552, %eax	#, D.18085
	testl	%eax, %eax	# D.18085
	je	.L267	#,
	.loc 1 610 0 is_stmt 1
	jmp	.L268	#
.L271:
	.loc 1 611 0
	movq	(%rbx), %rax	# *mark_6, D.18089
	movq	%r13, %rsi	# fp,
	movq	%rax, %rdi	# D.18089,
	call	Perl_do_print	#
	testb	%al, %al	# D.18092
	jne	.L269	#,
	.loc 1 612 0
	jmp	.L270	#
.L269:
	.loc 1 613 0
	addq	$8, %rbx	#, mark
	.loc 1 614 0
	cmpq	%r12, %rbx	# sp, mark
	ja	.L268	#,
	.loc 1 615 0
	movq	PL_ofs_sv(%rip), %rax	# PL_ofs_sv, PL_ofs_sv.305
	movq	%r13, %rsi	# fp,
	movq	%rax, %rdi	# PL_ofs_sv.305,
	call	Perl_do_print	#
	testb	%al, %al	# D.18092
	jne	.L268	#,
	.loc 1 616 0
	subq	$8, %rbx	#, mark
	.loc 1 617 0
	jmp	.L270	#
.L268:
	.loc 1 610 0 discriminator 1
	cmpq	%r12, %rbx	# sp, mark
	jbe	.L271	#,
.L270:
	.loc 1 609 0
	jmp	.L272	#
.L267:
	.loc 1 623 0
	jmp	.L273	#
.L275:
	.loc 1 624 0
	movq	(%rbx), %rax	# *mark_8, D.18089
	movq	%r13, %rsi	# fp,
	movq	%rax, %rdi	# D.18089,
	call	Perl_do_print	#
	testb	%al, %al	# D.18092
	jne	.L274	#,
	.loc 1 625 0
	jmp	.L272	#
.L274:
	.loc 1 626 0
	addq	$8, %rbx	#, mark
.L273:
	.loc 1 623 0 discriminator 1
	cmpq	%r12, %rbx	# sp, mark
	jbe	.L275	#,
.L272:
	.loc 1 629 0
	cmpq	%r12, %rbx	# sp, mark
	ja	.L276	#,
	.loc 1 630 0
	jmp	.L259	#
.L276:
	.loc 1 632 0
	movq	PL_ors_sv(%rip), %rax	# PL_ors_sv, PL_ors_sv.306
	testq	%rax, %rax	# PL_ors_sv.306
	je	.L277	#,
	.loc 1 632 0 is_stmt 0 discriminator 1
	movq	PL_ors_sv(%rip), %rax	# PL_ors_sv, PL_ors_sv.307
	movl	12(%rax), %eax	# PL_ors_sv.307_203->sv_flags, D.18085
	andl	$118423552, %eax	#, D.18085
	testl	%eax, %eax	# D.18085
	je	.L277	#,
	.loc 1 633 0 is_stmt 1
	movq	PL_ors_sv(%rip), %rax	# PL_ors_sv, PL_ors_sv.308
	movq	%r13, %rsi	# fp,
	movq	%rax, %rdi	# PL_ors_sv.308,
	call	Perl_do_print	#
	testb	%al, %al	# D.18092
	jne	.L277	#,
	.loc 1 634 0
	jmp	.L259	#
.L277:
	.loc 1 636 0
	movq	-48(%rbp), %rax	# io, tmp324
	movq	(%rax), %rax	# io_65->sv_any, D.18095
	movzbl	163(%rax), %eax	# _208->xio_flags, D.18092
	movsbl	%al, %eax	# D.18092, D.18081
	andl	$4, %eax	#, D.18081
	testl	%eax, %eax	# D.18081
	je	.L278	#,
	.loc 1 637 0
	movq	%r13, %rdi	# fp,
	call	Perl_PerlIO_flush	#
	cmpl	$-1, %eax	#, D.18081
	jne	.L278	#,
	.loc 1 638 0
	jmp	.L259	#
.L278:
	.loc 1 641 0
	movq	PL_stack_base(%rip), %rax	# PL_stack_base, PL_stack_base.309
	movl	-64(%rbp), %edx	# origmark, tmp325
	movslq	%edx, %rdx	# tmp325, D.18082
	salq	$3, %rdx	#, D.18082
	leaq	(%rax,%rdx), %r12	#, sp
	.loc 1 642 0
	addq	$8, %r12	#, sp
	movq	$PL_sv_yes, (%r12)	#, *sp_217
	.loc 1 643 0
	movq	%r12, PL_stack_sp(%rip)	# sp, PL_stack_sp
	movq	PL_op(%rip), %rax	# PL_op, PL_op.310
	movq	(%rax), %rax	# PL_op.310_218->op_next, D.18080
	jmp	.L247	#
.L259:
	.loc 1 646 0
	movq	PL_stack_base(%rip), %rax	# PL_stack_base, PL_stack_base.311
	movl	-64(%rbp), %edx	# origmark, tmp326
	movslq	%edx, %rdx	# tmp326, D.18082
	salq	$3, %rdx	#, D.18082
	leaq	(%rax,%rdx), %r12	#, sp
	.loc 1 647 0
	addq	$8, %r12	#, sp
	movq	$PL_sv_undef, (%r12)	#, *sp_224
	.loc 1 648 0
	movq	%r12, PL_stack_sp(%rip)	# sp, PL_stack_sp
	movq	PL_op(%rip), %rax	# PL_op, PL_op.312
	movq	(%rax), %rax	# PL_op.312_225->op_next, D.18080
.L247:
	.loc 1 649 0
	addq	$40, %rsp	#,
	popq	%rbx	#
	popq	%r12	#
	popq	%r13	#
	popq	%rbp	#
	.cfi_def_cfa 7, 8
	ret
	.cfi_endproc
.LFE24:
	.size	Perl_pp_print, .-Perl_pp_print
	.section	.rodata
	.align 8
.LC4:
	.string	"Overloaded dereference did not return a reference"
.LC5:
	.string	"Not an ARRAY reference"
	.align 8
.LC6:
	.string	"Can't return array to lvalue scalar context"
.LC7:
	.string	"an ARRAY"
	.text
	.globl	Perl_pp_rv2av
	.type	Perl_pp_rv2av, @function
Perl_pp_rv2av:
.LFB25:
	.loc 1 652 0
	.cfi_startproc
	pushq	%rbp	#
	.cfi_def_cfa_offset 16
	.cfi_offset 6, -16
	movq	%rsp, %rbp	#,
	.cfi_def_cfa_register 6
	pushq	%r12	#
	pushq	%rbx	#
	subq	$96, %rsp	#,
	.cfi_offset 12, -24
	.cfi_offset 3, -32
	.loc 1 653 0
	movq	PL_stack_sp(%rip), %rbx	# PL_stack_sp, sp
	movq	(%rbx), %rax	# *sp_28, tmp309
	movq	%rax, -80(%rbp)	# tmp309, sv
	.loc 1 656 0
	movq	-80(%rbp), %rax	# sv, tmp310
	movl	12(%rax), %eax	# sv_29->sv_flags, D.18102
	andl	$524288, %eax	#, D.18102
	testl	%eax, %eax	# D.18102
	je	.L280	#,
.L281:
	.loc 1 658 0
	movq	PL_amagic_generation(%rip), %rax	# PL_amagic_generation, PL_amagic_generation.313
	testq	%rax, %rax	# PL_amagic_generation.313
	je	.L282	#,
.LBB45:
	.loc 1 658 0 is_stmt 0 discriminator 1
	movq	(%rbx), %rax	# *sp_28, tmp311
	movq	%rax, -64(%rbp)	# tmp311, arg
.L283:
	.loc 1 658 0 discriminator 2
	movq	-64(%rbp), %rax	# arg, tmp312
	movl	12(%rax), %eax	# arg_10->sv_flags, D.18102
	andl	$268435456, %eax	#, D.18102
	testl	%eax, %eax	# D.18102
	je	.L282	#,
	.loc 1 658 0 discriminator 1
	movq	-64(%rbp), %rax	# arg, tmp313
	movl	$9, %ecx	#,
	movl	$59, %edx	#,
	movl	$PL_sv_undef, %esi	#,
	movq	%rax, %rdi	# tmp313,
	call	Perl_amagic_call	#
	movq	%rax, -40(%rbp)	# tmp314, tmpsv
	cmpq	$0, -40(%rbp)	#, tmpsv
	je	.L282	#,
	movq	PL_stack_sp(%rip), %rbx	# PL_stack_sp, sp
.LBB46:
	movq	-40(%rbp), %rax	# tmpsv, tmp315
	movq	%rax, -80(%rbp)	# tmp315, sv
	movq	-40(%rbp), %rax	# tmpsv, tmp316
	movl	12(%rax), %eax	# tmpsv_183->sv_flags, D.18102
	andl	$524288, %eax	#, D.18102
	testl	%eax, %eax	# D.18102
	jne	.L284	#,
	movl	$.LC4, %edi	#,
	movl	$0, %eax	#,
	call	Perl_croak	#
.L284:
	.loc 1 658 0 discriminator 2
	movq	-40(%rbp), %rax	# tmpsv, tmp317
	cmpq	-64(%rbp), %rax	# arg, tmp317
	je	.L282	#,
	.loc 1 658 0 discriminator 1
	movq	-40(%rbp), %rax	# tmpsv, tmp318
	movq	(%rax), %rax	# tmpsv_183->sv_any, D.18106
	movq	(%rax), %rdx	# MEM[(struct XRV *)_188].xrv_rv, D.18105
	movq	-64(%rbp), %rax	# arg, tmp319
	movq	(%rax), %rax	# arg_10->sv_any, D.18106
	movq	(%rax), %rax	# MEM[(struct XRV *)_190].xrv_rv, D.18105
	cmpq	%rax, %rdx	# D.18105, D.18105
	je	.L282	#,
	movq	-40(%rbp), %rax	# tmpsv, tmp320
	movq	%rax, -64(%rbp)	# tmp320, arg
	jmp	.L283	#
.L282:
.LBE46:
.LBE45:
	.loc 1 660 0 is_stmt 1
	movq	-80(%rbp), %rax	# sv, tmp321
	movq	(%rax), %rax	# sv_7->sv_any, D.18106
	movq	(%rax), %rax	# MEM[(struct XRV *)_193].xrv_rv, tmp322
	movq	%rax, -72(%rbp)	# tmp322, av
	.loc 1 661 0
	movq	-72(%rbp), %rax	# av, tmp323
	movl	12(%rax), %eax	# av_194->sv_flags, D.18102
	movzbl	%al, %eax	# D.18102, D.18102
	cmpl	$10, %eax	#, D.18102
	je	.L285	#,
	.loc 1 662 0
	movl	$.LC5, %edi	#,
	movl	$0, %eax	#,
	call	Perl_die	#
	jmp	.L286	#
.L285:
	.loc 1 663 0
	movq	PL_op(%rip), %rax	# PL_op, PL_op.314
	movzbl	36(%rax), %eax	# PL_op.314_198->op_flags, D.18103
	movzbl	%al, %eax	# D.18103, D.18104
	andl	$16, %eax	#, D.18104
	testl	%eax, %eax	# D.18104
	je	.L287	#,
	.loc 1 664 0
	movq	-72(%rbp), %rax	# av, tmp324
	movq	%rax, (%rbx)	# tmp324, *sp_2
	.loc 1 665 0
	movq	%rbx, PL_stack_sp(%rip)	# sp, PL_stack_sp
	movq	PL_op(%rip), %rax	# PL_op, PL_op.315
	movq	(%rax), %rax	# PL_op.315_202->op_next, D.18101
	jmp	.L286	#
.L287:
	.loc 1 667 0
	movq	PL_op(%rip), %rax	# PL_op, PL_op.316
	movzbl	37(%rax), %eax	# PL_op.316_204->op_private, D.18103
	movzbl	%al, %eax	# D.18103, D.18104
	andl	$8, %eax	#, D.18104
	testl	%eax, %eax	# D.18104
	je	.L288	#,
	.loc 1 667 0 is_stmt 0 discriminator 1
	call	Perl_is_lvalue_sub	#
	testl	%eax, %eax	# D.18104
	je	.L288	#,
	.loc 1 668 0 is_stmt 1
	movq	PL_op(%rip), %rax	# PL_op, PL_op.318
	movzbl	36(%rax), %eax	# PL_op.318_209->op_flags, D.18103
	movzbl	%al, %eax	# D.18103, D.18104
	andl	$3, %eax	#, D.18104
	testl	%eax, %eax	# D.18104
	je	.L289	#,
	.loc 1 668 0 is_stmt 0 discriminator 1
	movq	PL_op(%rip), %rax	# PL_op, PL_op.319
	movzbl	36(%rax), %eax	# PL_op.319_213->op_flags, D.18103
	movzbl	%al, %eax	# D.18103, D.18104
	andl	$3, %eax	#, D.18104
	cmpl	$3, %eax	#, D.18104
	setne	%al	#, iftmp.317
	jmp	.L290	#
.L289:
	.loc 1 668 0 discriminator 2
	call	Perl_dowantarray	#
	testl	%eax, %eax	# D.18104
	sete	%al	#, iftmp.317
.L290:
	.loc 1 668 0 discriminator 3
	testb	%al, %al	# iftmp.317
	je	.L291	#,
	.loc 1 669 0 is_stmt 1
	movl	$.LC6, %edi	#,
	movl	$0, %eax	#,
	call	Perl_croak	#
.L291:
	.loc 1 670 0
	movq	-72(%rbp), %rax	# av, tmp325
	movq	%rax, (%rbx)	# tmp325, *sp_2
	.loc 1 671 0
	movq	%rbx, PL_stack_sp(%rip)	# sp, PL_stack_sp
	movq	PL_op(%rip), %rax	# PL_op, PL_op.320
	movq	(%rax), %rax	# PL_op.320_220->op_next, D.18101
	jmp	.L286	#
.L288:
	.loc 1 673 0
	movq	PL_op(%rip), %rax	# PL_op, PL_op.321
	movzbl	36(%rax), %eax	# PL_op.321_222->op_flags, D.18103
	movzbl	%al, %eax	# D.18103, D.18104
	andl	$32, %eax	#, D.18104
	testl	%eax, %eax	# D.18104
	je	.L293	#,
	.loc 1 674 0
	movq	PL_op(%rip), %rax	# PL_op, PL_op.322
	movzbl	37(%rax), %eax	# PL_op.322_226->op_private, D.18103
	testb	%al, %al	# D.18109
	jns	.L293	#,
	.loc 1 675 0
	movl	$PL_no_localize_ref, %edi	#,
	movl	$0, %eax	#,
	call	Perl_croak	#
	jmp	.L293	#
.L280:
	.loc 1 678 0
	movq	-80(%rbp), %rax	# sv, tmp326
	movl	12(%rax), %eax	# sv_29->sv_flags, D.18102
	movzbl	%al, %eax	# D.18102, D.18102
	cmpl	$10, %eax	#, D.18102
	jne	.L294	#,
	.loc 1 679 0
	movq	-80(%rbp), %rax	# sv, tmp327
	movq	%rax, -72(%rbp)	# tmp327, av
	.loc 1 680 0
	movq	PL_op(%rip), %rax	# PL_op, PL_op.323
	movzbl	36(%rax), %eax	# PL_op.323_35->op_flags, D.18103
	movzbl	%al, %eax	# D.18103, D.18104
	andl	$16, %eax	#, D.18104
	testl	%eax, %eax	# D.18104
	je	.L295	#,
	.loc 1 681 0
	movq	-72(%rbp), %rax	# av, tmp328
	movq	%rax, (%rbx)	# tmp328, *sp_28
	.loc 1 682 0
	movq	%rbx, PL_stack_sp(%rip)	# sp, PL_stack_sp
	movq	PL_op(%rip), %rax	# PL_op, PL_op.324
	movq	(%rax), %rax	# PL_op.324_39->op_next, D.18101
	jmp	.L286	#
.L295:
	.loc 1 684 0
	movq	PL_op(%rip), %rax	# PL_op, PL_op.325
	movzbl	37(%rax), %eax	# PL_op.325_41->op_private, D.18103
	movzbl	%al, %eax	# D.18103, D.18104
	andl	$8, %eax	#, D.18104
	testl	%eax, %eax	# D.18104
	je	.L293	#,
	.loc 1 684 0 is_stmt 0 discriminator 1
	call	Perl_is_lvalue_sub	#
	testl	%eax, %eax	# D.18104
	je	.L293	#,
	.loc 1 685 0 is_stmt 1
	movq	PL_op(%rip), %rax	# PL_op, PL_op.327
	movzbl	36(%rax), %eax	# PL_op.327_46->op_flags, D.18103
	movzbl	%al, %eax	# D.18103, D.18104
	andl	$3, %eax	#, D.18104
	testl	%eax, %eax	# D.18104
	je	.L296	#,
	.loc 1 685 0 is_stmt 0 discriminator 1
	movq	PL_op(%rip), %rax	# PL_op, PL_op.328
	movzbl	36(%rax), %eax	# PL_op.328_50->op_flags, D.18103
	movzbl	%al, %eax	# D.18103, D.18104
	andl	$3, %eax	#, D.18104
	cmpl	$3, %eax	#, D.18104
	setne	%al	#, iftmp.326
	jmp	.L297	#
.L296:
	.loc 1 685 0 discriminator 2
	call	Perl_dowantarray	#
	testl	%eax, %eax	# D.18104
	sete	%al	#, iftmp.326
.L297:
	.loc 1 685 0 discriminator 3
	testb	%al, %al	# iftmp.326
	je	.L298	#,
	.loc 1 686 0 is_stmt 1
	movl	$.LC6, %edi	#,
	movl	$0, %eax	#,
	call	Perl_croak	#
.L298:
	.loc 1 688 0
	movq	-72(%rbp), %rax	# av, tmp329
	movq	%rax, (%rbx)	# tmp329, *sp_28
	.loc 1 689 0
	movq	%rbx, PL_stack_sp(%rip)	# sp, PL_stack_sp
	movq	PL_op(%rip), %rax	# PL_op, PL_op.329
	movq	(%rax), %rax	# PL_op.329_57->op_next, D.18101
	jmp	.L286	#
.L294:
.LBB47:
	.loc 1 695 0
	movq	-80(%rbp), %rax	# sv, tmp330
	movl	12(%rax), %eax	# sv_29->sv_flags, D.18102
	movzbl	%al, %eax	# D.18102, D.18102
	cmpl	$13, %eax	#, D.18102
	je	.L299	#,
.LBB48:
	.loc 1 699 0
	movq	-80(%rbp), %rax	# sv, tmp331
	movl	12(%rax), %eax	# sv_29->sv_flags, D.18102
	andl	$8192, %eax	#, D.18102
	testl	%eax, %eax	# D.18102
	je	.L300	#,
	.loc 1 700 0
	movq	-80(%rbp), %rax	# sv, tmp332
	movq	%rax, %rdi	# tmp332,
	call	Perl_mg_get	#
	.loc 1 701 0
	movq	-80(%rbp), %rax	# sv, tmp333
	movl	12(%rax), %eax	# sv_29->sv_flags, D.18102
	andl	$524288, %eax	#, D.18102
	testl	%eax, %eax	# D.18102
	jne	.L281	#,
.L300:
	.loc 1 704 0
	movq	-80(%rbp), %rax	# sv, tmp334
	movl	12(%rax), %eax	# sv_29->sv_flags, D.18102
	andl	$118423552, %eax	#, D.18102
	testl	%eax, %eax	# D.18102
	jne	.L301	#,
	.loc 1 705 0
	movq	PL_op(%rip), %rax	# PL_op, PL_op.330
	movzbl	36(%rax), %eax	# PL_op.330_67->op_flags, D.18103
	movzbl	%al, %eax	# D.18103, D.18104
	andl	$16, %eax	#, D.18104
	testl	%eax, %eax	# D.18104
	jne	.L302	#,
	.loc 1 706 0 discriminator 1
	movq	PL_op(%rip), %rax	# PL_op, PL_op.331
	movzbl	37(%rax), %eax	# PL_op.331_71->op_private, D.18103
	movzbl	%al, %eax	# D.18103, D.18104
	andl	$2, %eax	#, D.18104
	.loc 1 705 0 discriminator 1
	testl	%eax, %eax	# D.18104
	je	.L303	#,
.L302:
	.loc 1 707 0
	movl	$.LC7, %esi	#,
	movl	$PL_no_usym, %edi	#,
	movl	$0, %eax	#,
	call	Perl_die	#
	jmp	.L286	#
.L303:
	.loc 1 708 0
	movq	PL_curcop(%rip), %rax	# PL_curcop, PL_curcop.332
	movq	80(%rax), %rax	# PL_curcop.332_75->cop_warnings, D.18105
	testq	%rax, %rax	# D.18105
	je	.L305	#,
	.loc 1 708 0 is_stmt 0 discriminator 1
	movq	PL_curcop(%rip), %rax	# PL_curcop, PL_curcop.333
	movq	80(%rax), %rax	# PL_curcop.333_77->cop_warnings, D.18105
	cmpq	$32, %rax	#, D.18105
	je	.L305	#,
	movq	PL_curcop(%rip), %rax	# PL_curcop, PL_curcop.334
	movq	80(%rax), %rax	# PL_curcop.334_79->cop_warnings, D.18105
	cmpq	$16, %rax	#, D.18105
	je	.L306	#,
	movq	PL_curcop(%rip), %rax	# PL_curcop, PL_curcop.335
	movq	80(%rax), %rax	# PL_curcop.335_81->cop_warnings, D.18105
	movq	(%rax), %rax	# _82->sv_any, D.18106
	movq	(%rax), %rax	# MEM[(struct XPV *)_83].xpv_pv, D.18107
	addq	$10, %rax	#, D.18107
	movzbl	(%rax), %eax	# *_85, D.18108
	movsbl	%al, %eax	# D.18108, D.18104
	andl	$4, %eax	#, D.18104
	testl	%eax, %eax	# D.18104
	jne	.L306	#,
.L305:
	.loc 1 708 0 discriminator 2
	movq	PL_curcop(%rip), %rax	# PL_curcop, PL_curcop.336
	movq	80(%rax), %rax	# PL_curcop.336_89->cop_warnings, D.18105
	testq	%rax, %rax	# D.18105
	jne	.L307	#,
	.loc 1 708 0 discriminator 1
	movzbl	PL_dowarn(%rip), %eax	# PL_dowarn, PL_dowarn.337
	movzbl	%al, %eax	# PL_dowarn.337, D.18104
	andl	$1, %eax	#, D.18104
	testl	%eax, %eax	# D.18104
	je	.L307	#,
.L306:
	.loc 1 709 0 is_stmt 1
	call	Perl_report_uninit	#
.L307:
	.loc 1 710 0
	movq	PL_op(%rip), %rax	# PL_op, PL_op.339
	movzbl	36(%rax), %eax	# PL_op.339_94->op_flags, D.18103
	movzbl	%al, %eax	# D.18103, D.18104
	andl	$3, %eax	#, D.18104
	testl	%eax, %eax	# D.18104
	je	.L308	#,
	.loc 1 710 0 is_stmt 0 discriminator 1
	movq	PL_op(%rip), %rax	# PL_op, PL_op.340
	movzbl	36(%rax), %eax	# PL_op.340_98->op_flags, D.18103
	movzbl	%al, %eax	# D.18103, D.18104
	andl	$3, %eax	#, D.18104
	cmpl	$3, %eax	#, D.18104
	sete	%al	#, iftmp.338
	jmp	.L309	#
.L308:
	.loc 1 710 0 discriminator 2
	call	Perl_dowantarray	#
	cmpl	$1, %eax	#, D.18104
	sete	%al	#, iftmp.338
.L309:
	.loc 1 710 0 discriminator 3
	testb	%al, %al	# iftmp.338
	je	.L310	#,
	.loc 1 711 0 is_stmt 1
	movq	%rbx, %rax	# sp, sp.341
	leaq	-8(%rax), %rbx	#, sp
	.loc 1 712 0
	movq	%rbx, PL_stack_sp(%rip)	# sp, PL_stack_sp
	movq	PL_op(%rip), %rax	# PL_op, PL_op.342
	movq	(%rax), %rax	# PL_op.342_107->op_next, D.18101
	jmp	.L286	#
.L310:
	.loc 1 714 0
	movq	$PL_sv_undef, (%rbx)	#, *sp_28
	movq	%rbx, PL_stack_sp(%rip)	# sp, PL_stack_sp
	movq	PL_op(%rip), %rax	# PL_op, PL_op.343
	movq	(%rax), %rax	# PL_op.343_109->op_next, D.18101
	jmp	.L286	#
.L301:
	.loc 1 716 0
	movq	-80(%rbp), %rax	# sv, tmp335
	movl	12(%rax), %eax	# sv_29->sv_flags, D.18102
	andl	$262144, %eax	#, D.18102
	testl	%eax, %eax	# D.18102
	je	.L311	#,
	.loc 1 716 0 is_stmt 0 discriminator 1
	movq	-80(%rbp), %rax	# sv, tmp336
	movq	(%rax), %rax	# sv_29->sv_any, D.18106
	movq	8(%rax), %rax	# MEM[(struct XPV *)_114].xpv_cur, len.345
	movq	%rax, -88(%rbp)	# len.345, len
	movq	-80(%rbp), %rax	# sv, tmp337
	movq	(%rax), %rax	# sv_29->sv_any, D.18106
	movq	(%rax), %rax	# MEM[(struct XPV *)_116].xpv_pv, iftmp.344
	jmp	.L312	#
.L311:
	.loc 1 716 0 discriminator 2
	leaq	-88(%rbp), %rcx	#, tmp338
	movq	-80(%rbp), %rax	# sv, tmp339
	movl	$2, %edx	#,
	movq	%rcx, %rsi	# tmp338,
	movq	%rax, %rdi	# tmp339,
	call	Perl_sv_2pv_flags	#
.L312:
	.loc 1 716 0 discriminator 3
	movq	%rax, -48(%rbp)	# iftmp.344, sym
	.loc 1 717 0 is_stmt 1 discriminator 3
	movq	PL_op(%rip), %rax	# PL_op, PL_op.346
	movzbl	36(%rax), %eax	# PL_op.346_120->op_flags, D.18103
	testb	%al, %al	# D.18109
	jns	.L313	#,
	.loc 1 718 0 discriminator 1
	movq	PL_op(%rip), %rax	# PL_op, PL_op.347
	movzbl	36(%rax), %eax	# PL_op.347_123->op_flags, D.18103
	movzbl	%al, %eax	# D.18103, D.18104
	andl	$32, %eax	#, D.18104
	.loc 1 717 0 discriminator 1
	testl	%eax, %eax	# D.18104
	jne	.L313	#,
	.loc 1 720 0
	movq	-48(%rbp), %rax	# sym, tmp340
	movl	$10, %edx	#,
	movl	$0, %esi	#,
	movq	%rax, %rdi	# tmp340,
	call	Perl_gv_fetchpv	#
	movq	%rax, -56(%rbp)	# tmp341, gv
	.loc 1 721 0
	cmpq	$0, -56(%rbp)	#, gv
	jne	.L314	#,
	.loc 1 722 0
	movq	-88(%rbp), %rcx	# len, len.348
	movq	-48(%rbp), %rax	# sym, tmp342
	movl	$0, %edx	#,
	movq	%rcx, %rsi	# len.348,
	movq	%rax, %rdi	# tmp342,
	call	Perl_is_gv_magical	#
	testb	%al, %al	# D.18108
	je	.L315	#,
	.loc 1 723 0
	movq	-48(%rbp), %rax	# sym, tmp343
	movl	$10, %edx	#,
	movl	$1, %esi	#,
	movq	%rax, %rdi	# tmp343,
	call	Perl_gv_fetchpv	#
	movq	%rax, -56(%rbp)	# tmp344, gv
	cmpq	$0, -56(%rbp)	#, gv
	jne	.L314	#,
.L315:
	.loc 1 725 0
	movq	$PL_sv_undef, (%rbx)	#, *sp_28
	movq	%rbx, PL_stack_sp(%rip)	# sp, PL_stack_sp
	movq	PL_op(%rip), %rax	# PL_op, PL_op.349
	movq	(%rax), %rax	# PL_op.349_131->op_next, D.18101
	jmp	.L286	#
.L314:
	.loc 1 721 0 discriminator 1
	nop
	jmp	.L318	#
.L313:
	.loc 1 729 0
	movq	PL_op(%rip), %rax	# PL_op, PL_op.350
	movzbl	37(%rax), %eax	# PL_op.350_133->op_private, D.18103
	movzbl	%al, %eax	# D.18103, D.18104
	andl	$2, %eax	#, D.18104
	testl	%eax, %eax	# D.18104
	je	.L317	#,
	.loc 1 730 0
	movq	-48(%rbp), %rax	# sym, tmp345
	movl	$.LC7, %edx	#,
	movq	%rax, %rsi	# tmp345,
	movl	$PL_no_symref, %edi	#,
	movl	$0, %eax	#,
	call	Perl_die	#
	jmp	.L286	#
.L317:
	.loc 1 731 0
	movq	-48(%rbp), %rax	# sym, tmp346
	movl	$10, %edx	#,
	movl	$1, %esi	#,
	movq	%rax, %rdi	# tmp346,
	call	Perl_gv_fetchpv	#
	movq	%rax, -56(%rbp)	# tmp347, gv
.LBE48:
	jmp	.L318	#
.L299:
	.loc 1 735 0
	movq	-80(%rbp), %rax	# sv, tmp348
	movq	%rax, -56(%rbp)	# tmp348, gv
.L318:
	.loc 1 737 0
	movq	-56(%rbp), %rax	# gv, tmp349
	movq	(%rax), %rax	# gv_13->sv_any, D.18110
	movq	56(%rax), %rax	# _140->xgv_gp, D.18111
	movq	32(%rax), %rax	# _141->gp_av, D.18112
	testq	%rax, %rax	# D.18112
	je	.L319	#,
	.loc 1 737 0 is_stmt 0 discriminator 1
	movq	-56(%rbp), %rax	# gv, tmp350
	movq	(%rax), %rax	# gv_13->sv_any, D.18110
	movq	56(%rax), %rax	# _143->xgv_gp, D.18111
	movq	32(%rax), %rax	# _144->gp_av, iftmp.351
	jmp	.L320	#
.L319:
	.loc 1 737 0 discriminator 2
	movq	-56(%rbp), %rax	# gv, tmp351
	movq	%rax, %rdi	# tmp351,
	call	Perl_gv_AVadd	#
	movq	(%rax), %rax	# _146->sv_any, D.18110
	movq	56(%rax), %rax	# _147->xgv_gp, D.18111
	movq	32(%rax), %rax	# _148->gp_av, iftmp.351
.L320:
	.loc 1 737 0 discriminator 3
	movq	%rax, -72(%rbp)	# iftmp.351, av
	.loc 1 738 0 is_stmt 1 discriminator 3
	movq	PL_op(%rip), %rax	# PL_op, PL_op.352
	movzbl	37(%rax), %eax	# PL_op.352_151->op_private, D.18103
	testb	%al, %al	# D.18109
	jns	.L321	#,
	.loc 1 739 0
	movq	-56(%rbp), %rax	# gv, tmp352
	movq	%rax, %rdi	# tmp352,
	call	Perl_save_ary	#
	movq	%rax, -72(%rbp)	# tmp353, av
.L321:
	.loc 1 740 0
	movq	PL_op(%rip), %rax	# PL_op, PL_op.353
	movzbl	36(%rax), %eax	# PL_op.353_155->op_flags, D.18103
	movzbl	%al, %eax	# D.18103, D.18104
	andl	$16, %eax	#, D.18104
	testl	%eax, %eax	# D.18104
	je	.L322	#,
	.loc 1 741 0
	movq	-72(%rbp), %rax	# av, tmp354
	movq	%rax, (%rbx)	# tmp354, *sp_28
	.loc 1 742 0
	movq	%rbx, PL_stack_sp(%rip)	# sp, PL_stack_sp
	movq	PL_op(%rip), %rax	# PL_op, PL_op.354
	movq	(%rax), %rax	# PL_op.354_159->op_next, D.18101
	jmp	.L286	#
.L322:
	.loc 1 744 0
	movq	PL_op(%rip), %rax	# PL_op, PL_op.355
	movzbl	37(%rax), %eax	# PL_op.355_161->op_private, D.18103
	movzbl	%al, %eax	# D.18103, D.18104
	andl	$8, %eax	#, D.18104
	testl	%eax, %eax	# D.18104
	je	.L293	#,
	.loc 1 744 0 is_stmt 0 discriminator 1
	call	Perl_is_lvalue_sub	#
	testl	%eax, %eax	# D.18104
	je	.L293	#,
	.loc 1 745 0 is_stmt 1
	movq	PL_op(%rip), %rax	# PL_op, PL_op.357
	movzbl	36(%rax), %eax	# PL_op.357_166->op_flags, D.18103
	movzbl	%al, %eax	# D.18103, D.18104
	andl	$3, %eax	#, D.18104
	testl	%eax, %eax	# D.18104
	je	.L323	#,
	.loc 1 745 0 is_stmt 0 discriminator 1
	movq	PL_op(%rip), %rax	# PL_op, PL_op.358
	movzbl	36(%rax), %eax	# PL_op.358_170->op_flags, D.18103
	movzbl	%al, %eax	# D.18103, D.18104
	andl	$3, %eax	#, D.18104
	cmpl	$3, %eax	#, D.18104
	setne	%al	#, iftmp.356
	jmp	.L324	#
.L323:
	.loc 1 745 0 discriminator 2
	call	Perl_dowantarray	#
	testl	%eax, %eax	# D.18104
	sete	%al	#, iftmp.356
.L324:
	.loc 1 745 0 discriminator 3
	testb	%al, %al	# iftmp.356
	je	.L325	#,
	.loc 1 746 0 is_stmt 1
	movl	$.LC6, %edi	#,
	movl	$0, %eax	#,
	call	Perl_croak	#
.L325:
	.loc 1 748 0
	movq	-72(%rbp), %rax	# av, tmp355
	movq	%rax, (%rbx)	# tmp355, *sp_28
	.loc 1 749 0
	movq	%rbx, PL_stack_sp(%rip)	# sp, PL_stack_sp
	movq	PL_op(%rip), %rax	# PL_op, PL_op.359
	movq	(%rax), %rax	# PL_op.359_177->op_next, D.18101
	jmp	.L286	#
.L293:
.LBE47:
	.loc 1 754 0
	movq	PL_op(%rip), %rax	# PL_op, PL_op.361
	movzbl	36(%rax), %eax	# PL_op.361_229->op_flags, D.18103
	movzbl	%al, %eax	# D.18103, D.18104
	andl	$3, %eax	#, D.18104
	testl	%eax, %eax	# D.18104
	je	.L326	#,
	.loc 1 754 0 is_stmt 0 discriminator 1
	movq	PL_op(%rip), %rax	# PL_op, PL_op.362
	movzbl	36(%rax), %eax	# PL_op.362_233->op_flags, D.18103
	movzbl	%al, %eax	# D.18103, D.18104
	andl	$3, %eax	#, D.18104
	cmpl	$3, %eax	#, D.18104
	sete	%al	#, iftmp.360
	jmp	.L327	#
.L326:
	.loc 1 754 0 discriminator 2
	call	Perl_dowantarray	#
	cmpl	$1, %eax	#, D.18104
	sete	%al	#, iftmp.360
.L327:
	.loc 1 754 0 discriminator 3
	testb	%al, %al	# iftmp.360
	je	.L328	#,
.LBB49:
	.loc 1 755 0 is_stmt 1
	movq	-72(%rbp), %rax	# av, tmp356
	movl	12(%rax), %eax	# MEM[(struct SV *)av_9].sv_flags, D.18102
	andl	$32768, %eax	#, D.18102
	testl	%eax, %eax	# D.18102
	je	.L329	#,
	.loc 1 755 0 is_stmt 0 discriminator 1
	movq	-72(%rbp), %rax	# av, tmp357
	movq	%rax, %rdi	# tmp357,
	call	Perl_mg_size	#
	addl	$1, %eax	#, D.18114
	jmp	.L330	#
.L329:
	.loc 1 755 0 discriminator 2
	movq	-72(%rbp), %rax	# av, tmp358
	movq	(%rax), %rax	# av_9->sv_any, D.18115
	movq	8(%rax), %rax	# _246->xav_fill, D.18116
	addl	$1, %eax	#, D.18114
.L330:
	.loc 1 755 0 discriminator 3
	movl	%eax, -96(%rbp)	# iftmp.363, maxarg
	.loc 1 756 0 is_stmt 1 discriminator 3
	movq	%rbx, %rax	# sp, sp.364
	leaq	-8(%rax), %rbx	#, sp
	.loc 1 757 0 discriminator 3
	movq	PL_stack_max(%rip), %rax	# PL_stack_max, PL_stack_max.365
	movq	%rax, %rdx	# PL_stack_max.365, PL_stack_max.366
	movq	%rbx, %rax	# sp, sp.367
	subq	%rax, %rdx	# sp.367, D.18116
	movq	%rdx, %rax	# D.18116, D.18116
	sarq	$3, %rax	#, tmp359
	movq	%rax, %rdx	# tmp359, D.18116
	movl	-96(%rbp), %eax	# maxarg, tmp360
	cltq
	cmpq	%rax, %rdx	# D.18116, D.18116
	jge	.L331	#,
	.loc 1 757 0 is_stmt 0 discriminator 1
	movl	-96(%rbp), %eax	# maxarg, tmp361
	movl	%eax, %edx	# tmp361,
	movq	%rbx, %rsi	# sp,
	movq	%rbx, %rdi	# sp,
	call	Perl_stack_grow	#
	movq	%rax, %rbx	#, sp
.L331:
	.loc 1 758 0 is_stmt 1
	movq	-72(%rbp), %rax	# av, tmp362
	movl	12(%rax), %eax	# av_9->sv_flags, D.18102
	andl	$32768, %eax	#, D.18102
	testl	%eax, %eax	# D.18102
	je	.L332	#,
.LBB50:
	.loc 1 760 0
	movl	$0, -100(%rbp)	#, i
	jmp	.L333	#
.L338:
.LBB51:
	.loc 1 761 0
	movl	-100(%rbp), %ecx	# i, i.368
	movq	-72(%rbp), %rax	# av, tmp363
	movl	$0, %edx	#,
	movl	%ecx, %esi	# i.368,
	movq	%rax, %rdi	# tmp363,
	call	Perl_av_fetch	#
	movq	%rax, -32(%rbp)	# tmp364, svp
	.loc 1 763 0
	movl	-100(%rbp), %eax	# i, tmp365
	addl	$1, %eax	#, D.18102
	movl	%eax, %eax	# D.18102, D.18117
	salq	$3, %rax	#, D.18117
	leaq	(%rbx,%rax), %r12	#, D.18118
	.loc 1 765 0
	cmpq	$0, -32(%rbp)	#, svp
	je	.L334	#,
	.loc 1 764 0
	movq	-32(%rbp), %rax	# svp, tmp366
	movq	(%rax), %rax	# *svp_266, D.18105
	movl	12(%rax), %eax	# _271->sv_flags, D.18102
	andl	$8192, %eax	#, D.18102
	testl	%eax, %eax	# D.18102
	je	.L335	#,
	.loc 1 764 0 is_stmt 0 discriminator 1
	movq	-32(%rbp), %rax	# svp, tmp367
	movq	(%rax), %rax	# *svp_266, D.18105
	movq	%rax, %rdi	# D.18105,
	call	Perl_sv_mortalcopy	#
	jmp	.L337	#
.L335:
	.loc 1 764 0 discriminator 2
	movq	-32(%rbp), %rax	# svp, tmp368
	movq	(%rax), %rax	# *svp_266, iftmp.370
	jmp	.L337	#
.L334:
	.loc 1 765 0 is_stmt 1 discriminator 1
	movl	$PL_sv_undef, %eax	#, iftmp.369
.L337:
	.loc 1 763 0
	movq	%rax, (%r12)	# iftmp.369, *_270
.LBE51:
	.loc 1 760 0
	addl	$1, -100(%rbp)	#, i
.L333:
	.loc 1 760 0 is_stmt 0 discriminator 1
	movl	-96(%rbp), %eax	# maxarg, maxarg.371
	cmpl	-100(%rbp), %eax	# i, maxarg.371
	ja	.L338	#,
.LBE50:
	jmp	.L339	#
.L332:
	.loc 1 769 0 is_stmt 1
	movl	-96(%rbp), %eax	# maxarg, tmp369
	cltq
	leaq	0(,%rax,8), %rdx	#, D.18117
	movq	-72(%rbp), %rax	# av, tmp370
	movq	(%rax), %rax	# av_9->sv_any, D.18115
	movq	(%rax), %rcx	# _282->xav_array, D.18107
	leaq	8(%rbx), %rax	#, D.18107
	movq	%rcx, %rsi	# D.18107,
	movq	%rax, %rdi	# D.18107,
	call	memcpy	#
.L339:
	.loc 1 771 0 discriminator 1
	movl	-96(%rbp), %eax	# maxarg, tmp371
	cltq
	salq	$3, %rax	#, D.18117
	addq	%rax, %rbx	# D.18117, sp
.LBE49:
	jmp	.L340	#
.L328:
	.loc 1 773 0
	movq	PL_op(%rip), %rax	# PL_op, PL_op.372
	movzbl	36(%rax), %eax	# PL_op.372_288->op_flags, D.18103
	movzbl	%al, %eax	# D.18103, D.18104
	andl	$3, %eax	#, D.18104
	cmpl	$1, %eax	#, D.18104
	je	.L340	#,
	.loc 1 773 0 is_stmt 0 discriminator 1
	movq	PL_op(%rip), %rax	# PL_op, PL_op.373
	movzbl	36(%rax), %eax	# PL_op.373_292->op_flags, D.18103
	movzbl	%al, %eax	# D.18103, D.18104
	andl	$3, %eax	#, D.18104
	cmpl	$2, %eax	#, D.18104
	je	.L341	#,
	movq	PL_op(%rip), %rax	# PL_op, PL_op.374
	movzbl	36(%rax), %eax	# PL_op.374_296->op_flags, D.18103
	movzbl	%al, %eax	# D.18103, D.18104
	andl	$3, %eax	#, D.18104
	cmpl	$3, %eax	#, D.18104
	je	.L340	#,
	.loc 1 773 0 discriminator 2
	call	Perl_block_gimme	#
	testl	%eax, %eax	# D.18104
	jne	.L340	#,
.L341:
.LBB52:
	.loc 1 774 0 is_stmt 1
	movq	PL_curpad(%rip), %rdx	# PL_curpad, PL_curpad.375
	movq	PL_op(%rip), %rax	# PL_op, PL_op.376
	movq	24(%rax), %rax	# PL_op.376_302->op_targ, D.18117
	salq	$3, %rax	#, D.18117
	addq	%rdx, %rax	# PL_curpad.375, D.18118
	movq	(%rax), %rax	# *_305, tmp372
	movq	%rax, -24(%rbp)	# tmp372, targ
	.loc 1 775 0
	movq	-72(%rbp), %rax	# av, tmp373
	movl	12(%rax), %eax	# MEM[(struct SV *)av_9].sv_flags, D.18102
	andl	$32768, %eax	#, D.18102
	testl	%eax, %eax	# D.18102
	je	.L342	#,
	.loc 1 775 0 is_stmt 0 discriminator 1
	movq	-72(%rbp), %rax	# av, tmp374
	movq	%rax, %rdi	# tmp374,
	call	Perl_mg_size	#
	addl	$1, %eax	#, D.18114
	jmp	.L343	#
.L342:
	.loc 1 775 0 discriminator 2
	movq	-72(%rbp), %rax	# av, tmp375
	movq	(%rax), %rax	# av_9->sv_any, D.18115
	movq	8(%rax), %rax	# _313->xav_fill, D.18116
	addl	$1, %eax	#, D.18114
.L343:
	.loc 1 775 0 discriminator 3
	movl	%eax, -92(%rbp)	# iftmp.377, maxarg
.LBB53:
	.loc 1 776 0 is_stmt 1 discriminator 3
	movl	-92(%rbp), %eax	# maxarg, tmp376
	movslq	%eax, %rdx	# tmp376, D.18116
	movq	-24(%rbp), %rax	# targ, tmp377
	movq	%rdx, %rsi	# D.18116,
	movq	%rax, %rdi	# tmp377,
	call	Perl_sv_setiv	#
.LBB54:
	movq	-24(%rbp), %rax	# targ, tmp378
	movl	12(%rax), %eax	# targ_306->sv_flags, D.18102
	andl	$16384, %eax	#, D.18102
	testl	%eax, %eax	# D.18102
	je	.L344	#,
	.loc 1 776 0 is_stmt 0 discriminator 1
	movq	-24(%rbp), %rax	# targ, tmp379
	movq	%rax, %rdi	# tmp379,
	call	Perl_mg_set	#
.L344:
	.loc 1 776 0 discriminator 2
	movq	-24(%rbp), %rax	# targ, tmp380
	movq	%rax, (%rbx)	# tmp380, *sp_3
.L340:
.LBE54:
.LBE53:
.LBE52:
	.loc 1 778 0 is_stmt 1
	movq	%rbx, PL_stack_sp(%rip)	# sp, PL_stack_sp
	movq	PL_op(%rip), %rax	# PL_op, PL_op.378
	movq	(%rax), %rax	# PL_op.378_323->op_next, D.18101
.L286:
	.loc 1 779 0
	addq	$96, %rsp	#,
	popq	%rbx	#
	popq	%r12	#
	popq	%rbp	#
	.cfi_def_cfa 7, 8
	ret
	.cfi_endproc
.LFE25:
	.size	Perl_pp_rv2av, .-Perl_pp_rv2av
	.section	.rodata
.LC8:
	.string	"Not a HASH reference"
	.align 8
.LC9:
	.string	"Can't return hash to lvalue scalar context"
.LC10:
	.string	"a HASH"
	.text
	.globl	Perl_pp_rv2hv
	.type	Perl_pp_rv2hv, @function
Perl_pp_rv2hv:
.LFB26:
	.loc 1 782 0
	.cfi_startproc
	pushq	%rbp	#
	.cfi_def_cfa_offset 16
	.cfi_offset 6, -16
	movq	%rsp, %rbp	#,
	.cfi_def_cfa_register 6
	pushq	%rbx	#
	subq	$88, %rsp	#,
	.cfi_offset 3, -24
	.loc 1 783 0
	movq	PL_stack_sp(%rip), %rbx	# PL_stack_sp, sp
	movq	(%rbx), %rax	# *sp_20, tmp218
	movq	%rax, -72(%rbp)	# tmp218, sv
	.loc 1 785 0
	movq	PL_op(%rip), %rax	# PL_op, PL_op.380
	movzbl	36(%rax), %eax	# PL_op.380_22->op_flags, D.18124
	movzbl	%al, %eax	# D.18124, D.18125
	andl	$3, %eax	#, D.18125
	cmpl	$1, %eax	#, D.18125
	je	.L346	#,
	.loc 1 785 0 is_stmt 0 discriminator 1
	movq	PL_op(%rip), %rax	# PL_op, PL_op.382
	movzbl	36(%rax), %eax	# PL_op.382_26->op_flags, D.18124
	movzbl	%al, %eax	# D.18124, D.18125
	andl	$3, %eax	#, D.18125
	cmpl	$2, %eax	#, D.18125
	je	.L347	#,
	movq	PL_op(%rip), %rax	# PL_op, PL_op.384
	movzbl	36(%rax), %eax	# PL_op.384_30->op_flags, D.18124
	movzbl	%al, %eax	# D.18124, D.18125
	andl	$3, %eax	#, D.18125
	cmpl	$3, %eax	#, D.18125
	je	.L348	#,
	call	Perl_block_gimme	#
	jmp	.L351	#
.L348:
	.loc 1 785 0 discriminator 2
	movl	$1, %eax	#, iftmp.383
	jmp	.L351	#
.L347:
	movl	$0, %eax	#, iftmp.381
	jmp	.L351	#
.L346:
	movl	$128, %eax	#, iftmp.379
.L351:
	.loc 1 785 0 discriminator 3
	movl	%eax, -84(%rbp)	# iftmp.379, gimme
	.loc 1 787 0 is_stmt 1 discriminator 3
	movq	-72(%rbp), %rax	# sv, tmp219
	movl	12(%rax), %eax	# sv_21->sv_flags, D.18126
	andl	$524288, %eax	#, D.18126
	testl	%eax, %eax	# D.18126
	je	.L352	#,
.L353:
	.loc 1 789 0
	movq	PL_amagic_generation(%rip), %rax	# PL_amagic_generation, PL_amagic_generation.385
	testq	%rax, %rax	# PL_amagic_generation.385
	je	.L354	#,
.LBB55:
	.loc 1 789 0 is_stmt 0 discriminator 1
	movq	(%rbx), %rax	# *sp_20, tmp220
	movq	%rax, -56(%rbp)	# tmp220, arg
.L355:
	.loc 1 789 0 discriminator 2
	movq	-56(%rbp), %rax	# arg, tmp221
	movl	12(%rax), %eax	# arg_9->sv_flags, D.18126
	andl	$268435456, %eax	#, D.18126
	testl	%eax, %eax	# D.18126
	je	.L354	#,
	.loc 1 789 0 discriminator 1
	movq	-56(%rbp), %rax	# arg, tmp222
	movl	$9, %ecx	#,
	movl	$60, %edx	#,
	movl	$PL_sv_undef, %esi	#,
	movq	%rax, %rdi	# tmp222,
	call	Perl_amagic_call	#
	movq	%rax, -32(%rbp)	# tmp223, tmpsv
	cmpq	$0, -32(%rbp)	#, tmpsv
	je	.L354	#,
	movq	PL_stack_sp(%rip), %rbx	# PL_stack_sp, sp
.LBB56:
	movq	-32(%rbp), %rax	# tmpsv, tmp224
	movq	%rax, -72(%rbp)	# tmp224, sv
	movq	-32(%rbp), %rax	# tmpsv, tmp225
	movl	12(%rax), %eax	# tmpsv_162->sv_flags, D.18126
	andl	$524288, %eax	#, D.18126
	testl	%eax, %eax	# D.18126
	jne	.L356	#,
	movl	$.LC4, %edi	#,
	movl	$0, %eax	#,
	call	Perl_croak	#
.L356:
	.loc 1 789 0 discriminator 2
	movq	-32(%rbp), %rax	# tmpsv, tmp226
	cmpq	-56(%rbp), %rax	# arg, tmp226
	je	.L354	#,
	.loc 1 789 0 discriminator 1
	movq	-32(%rbp), %rax	# tmpsv, tmp227
	movq	(%rax), %rax	# tmpsv_162->sv_any, D.18128
	movq	(%rax), %rdx	# MEM[(struct XRV *)_167].xrv_rv, D.18127
	movq	-56(%rbp), %rax	# arg, tmp228
	movq	(%rax), %rax	# arg_9->sv_any, D.18128
	movq	(%rax), %rax	# MEM[(struct XRV *)_169].xrv_rv, D.18127
	cmpq	%rax, %rdx	# D.18127, D.18127
	je	.L354	#,
	movq	-32(%rbp), %rax	# tmpsv, tmp229
	movq	%rax, -56(%rbp)	# tmp229, arg
	jmp	.L355	#
.L354:
.LBE56:
.LBE55:
	.loc 1 791 0 is_stmt 1
	movq	-72(%rbp), %rax	# sv, tmp230
	movq	(%rax), %rax	# sv_5->sv_any, D.18128
	movq	(%rax), %rax	# MEM[(struct XRV *)_172].xrv_rv, tmp231
	movq	%rax, -64(%rbp)	# tmp231, hv
	.loc 1 792 0
	movq	-64(%rbp), %rax	# hv, tmp232
	movl	12(%rax), %eax	# hv_173->sv_flags, D.18126
	movzbl	%al, %eax	# D.18126, D.18126
	cmpl	$11, %eax	#, D.18126
	je	.L357	#,
	.loc 1 792 0 is_stmt 0 discriminator 1
	movq	-64(%rbp), %rax	# hv, tmp233
	movl	12(%rax), %eax	# hv_173->sv_flags, D.18126
	movzbl	%al, %eax	# D.18126, D.18126
	cmpl	$10, %eax	#, D.18126
	je	.L357	#,
	.loc 1 793 0 is_stmt 1
	movl	$.LC8, %edi	#,
	movl	$0, %eax	#,
	call	Perl_die	#
	jmp	.L358	#
.L357:
	.loc 1 794 0
	movq	PL_op(%rip), %rax	# PL_op, PL_op.386
	movzbl	36(%rax), %eax	# PL_op.386_179->op_flags, D.18124
	movzbl	%al, %eax	# D.18124, D.18125
	andl	$16, %eax	#, D.18125
	testl	%eax, %eax	# D.18125
	je	.L359	#,
	.loc 1 795 0
	movq	-64(%rbp), %rax	# hv, tmp234
	movq	%rax, (%rbx)	# tmp234, *sp_2
	.loc 1 796 0
	movq	%rbx, PL_stack_sp(%rip)	# sp, PL_stack_sp
	movq	PL_op(%rip), %rax	# PL_op, PL_op.387
	movq	(%rax), %rax	# PL_op.387_183->op_next, D.18123
	jmp	.L358	#
.L359:
	.loc 1 798 0
	movq	PL_op(%rip), %rax	# PL_op, PL_op.388
	movzbl	37(%rax), %eax	# PL_op.388_185->op_private, D.18124
	movzbl	%al, %eax	# D.18124, D.18125
	andl	$8, %eax	#, D.18125
	testl	%eax, %eax	# D.18125
	je	.L360	#,
	.loc 1 798 0 is_stmt 0 discriminator 1
	call	Perl_is_lvalue_sub	#
	testl	%eax, %eax	# D.18125
	je	.L360	#,
	.loc 1 799 0 is_stmt 1
	cmpl	$1, -84(%rbp)	#, gimme
	je	.L361	#,
	.loc 1 800 0
	movl	$.LC9, %edi	#,
	movl	$0, %eax	#,
	call	Perl_croak	#
.L361:
	.loc 1 801 0
	movq	-64(%rbp), %rax	# hv, tmp235
	movq	%rax, (%rbx)	# tmp235, *sp_2
	.loc 1 802 0
	movq	%rbx, PL_stack_sp(%rip)	# sp, PL_stack_sp
	movq	PL_op(%rip), %rax	# PL_op, PL_op.389
	movq	(%rax), %rax	# PL_op.389_190->op_next, D.18123
	jmp	.L358	#
.L360:
	.loc 1 804 0
	movq	PL_op(%rip), %rax	# PL_op, PL_op.390
	movzbl	36(%rax), %eax	# PL_op.390_192->op_flags, D.18124
	movzbl	%al, %eax	# D.18124, D.18125
	andl	$32, %eax	#, D.18125
	testl	%eax, %eax	# D.18125
	je	.L363	#,
	.loc 1 805 0
	movq	PL_op(%rip), %rax	# PL_op, PL_op.391
	movzbl	37(%rax), %eax	# PL_op.391_196->op_private, D.18124
	testb	%al, %al	# D.18131
	jns	.L363	#,
	.loc 1 806 0
	movl	$PL_no_localize_ref, %edi	#,
	movl	$0, %eax	#,
	call	Perl_croak	#
	jmp	.L363	#
.L352:
	.loc 1 809 0
	movq	-72(%rbp), %rax	# sv, tmp236
	movl	12(%rax), %eax	# sv_21->sv_flags, D.18126
	movzbl	%al, %eax	# D.18126, D.18126
	cmpl	$11, %eax	#, D.18126
	je	.L364	#,
	.loc 1 809 0 is_stmt 0 discriminator 1
	movq	-72(%rbp), %rax	# sv, tmp237
	movl	12(%rax), %eax	# sv_21->sv_flags, D.18126
	movzbl	%al, %eax	# D.18126, D.18126
	cmpl	$10, %eax	#, D.18126
	jne	.L365	#,
.L364:
	.loc 1 810 0 is_stmt 1
	movq	-72(%rbp), %rax	# sv, tmp238
	movq	%rax, -64(%rbp)	# tmp238, hv
	.loc 1 811 0
	movq	PL_op(%rip), %rax	# PL_op, PL_op.392
	movzbl	36(%rax), %eax	# PL_op.392_145->op_flags, D.18124
	movzbl	%al, %eax	# D.18124, D.18125
	andl	$16, %eax	#, D.18125
	testl	%eax, %eax	# D.18125
	je	.L366	#,
	.loc 1 812 0
	movq	-64(%rbp), %rax	# hv, tmp239
	movq	%rax, (%rbx)	# tmp239, *sp_20
	.loc 1 813 0
	movq	%rbx, PL_stack_sp(%rip)	# sp, PL_stack_sp
	movq	PL_op(%rip), %rax	# PL_op, PL_op.393
	movq	(%rax), %rax	# PL_op.393_149->op_next, D.18123
	jmp	.L358	#
.L366:
	.loc 1 815 0
	movq	PL_op(%rip), %rax	# PL_op, PL_op.394
	movzbl	37(%rax), %eax	# PL_op.394_151->op_private, D.18124
	movzbl	%al, %eax	# D.18124, D.18125
	andl	$8, %eax	#, D.18125
	testl	%eax, %eax	# D.18125
	je	.L367	#,
	.loc 1 815 0 is_stmt 0 discriminator 1
	call	Perl_is_lvalue_sub	#
	testl	%eax, %eax	# D.18125
	je	.L367	#,
	.loc 1 816 0 is_stmt 1
	cmpl	$1, -84(%rbp)	#, gimme
	je	.L368	#,
	.loc 1 817 0
	movl	$.LC9, %edi	#,
	movl	$0, %eax	#,
	call	Perl_croak	#
.L368:
	.loc 1 819 0
	movq	-64(%rbp), %rax	# hv, tmp240
	movq	%rax, (%rbx)	# tmp240, *sp_20
	.loc 1 820 0
	movq	%rbx, PL_stack_sp(%rip)	# sp, PL_stack_sp
	movq	PL_op(%rip), %rax	# PL_op, PL_op.395
	movq	(%rax), %rax	# PL_op.395_156->op_next, D.18123
	jmp	.L358	#
.L367:
	.loc 1 811 0
	jmp	.L363	#
.L365:
.LBB57:
	.loc 1 826 0
	movq	-72(%rbp), %rax	# sv, tmp241
	movl	12(%rax), %eax	# sv_21->sv_flags, D.18126
	movzbl	%al, %eax	# D.18126, D.18126
	cmpl	$13, %eax	#, D.18126
	je	.L369	#,
.LBB58:
	.loc 1 830 0
	movq	-72(%rbp), %rax	# sv, tmp242
	movl	12(%rax), %eax	# sv_21->sv_flags, D.18126
	andl	$8192, %eax	#, D.18126
	testl	%eax, %eax	# D.18126
	je	.L370	#,
	.loc 1 831 0
	movq	-72(%rbp), %rax	# sv, tmp243
	movq	%rax, %rdi	# tmp243,
	call	Perl_mg_get	#
	.loc 1 832 0
	movq	-72(%rbp), %rax	# sv, tmp244
	movl	12(%rax), %eax	# sv_21->sv_flags, D.18126
	andl	$524288, %eax	#, D.18126
	testl	%eax, %eax	# D.18126
	jne	.L353	#,
.L370:
	.loc 1 835 0
	movq	-72(%rbp), %rax	# sv, tmp245
	movl	12(%rax), %eax	# sv_21->sv_flags, D.18126
	andl	$118423552, %eax	#, D.18126
	testl	%eax, %eax	# D.18126
	jne	.L371	#,
	.loc 1 836 0
	movq	PL_op(%rip), %rax	# PL_op, PL_op.396
	movzbl	36(%rax), %eax	# PL_op.396_55->op_flags, D.18124
	movzbl	%al, %eax	# D.18124, D.18125
	andl	$16, %eax	#, D.18125
	testl	%eax, %eax	# D.18125
	jne	.L372	#,
	.loc 1 837 0 discriminator 1
	movq	PL_op(%rip), %rax	# PL_op, PL_op.397
	movzbl	37(%rax), %eax	# PL_op.397_59->op_private, D.18124
	movzbl	%al, %eax	# D.18124, D.18125
	andl	$2, %eax	#, D.18125
	.loc 1 836 0 discriminator 1
	testl	%eax, %eax	# D.18125
	je	.L373	#,
.L372:
	.loc 1 838 0
	movl	$.LC10, %esi	#,
	movl	$PL_no_usym, %edi	#,
	movl	$0, %eax	#,
	call	Perl_die	#
	jmp	.L358	#
.L373:
	.loc 1 839 0
	movq	PL_curcop(%rip), %rax	# PL_curcop, PL_curcop.398
	movq	80(%rax), %rax	# PL_curcop.398_63->cop_warnings, D.18127
	testq	%rax, %rax	# D.18127
	je	.L375	#,
	.loc 1 839 0 is_stmt 0 discriminator 1
	movq	PL_curcop(%rip), %rax	# PL_curcop, PL_curcop.399
	movq	80(%rax), %rax	# PL_curcop.399_65->cop_warnings, D.18127
	cmpq	$32, %rax	#, D.18127
	je	.L375	#,
	movq	PL_curcop(%rip), %rax	# PL_curcop, PL_curcop.400
	movq	80(%rax), %rax	# PL_curcop.400_67->cop_warnings, D.18127
	cmpq	$16, %rax	#, D.18127
	je	.L376	#,
	movq	PL_curcop(%rip), %rax	# PL_curcop, PL_curcop.401
	movq	80(%rax), %rax	# PL_curcop.401_69->cop_warnings, D.18127
	movq	(%rax), %rax	# _70->sv_any, D.18128
	movq	(%rax), %rax	# MEM[(struct XPV *)_71].xpv_pv, D.18129
	addq	$10, %rax	#, D.18129
	movzbl	(%rax), %eax	# *_73, D.18130
	movsbl	%al, %eax	# D.18130, D.18125
	andl	$4, %eax	#, D.18125
	testl	%eax, %eax	# D.18125
	jne	.L376	#,
.L375:
	.loc 1 839 0 discriminator 2
	movq	PL_curcop(%rip), %rax	# PL_curcop, PL_curcop.402
	movq	80(%rax), %rax	# PL_curcop.402_77->cop_warnings, D.18127
	testq	%rax, %rax	# D.18127
	jne	.L377	#,
	.loc 1 839 0 discriminator 1
	movzbl	PL_dowarn(%rip), %eax	# PL_dowarn, PL_dowarn.403
	movzbl	%al, %eax	# PL_dowarn.403, D.18125
	andl	$1, %eax	#, D.18125
	testl	%eax, %eax	# D.18125
	je	.L377	#,
.L376:
	.loc 1 840 0 is_stmt 1
	call	Perl_report_uninit	#
.L377:
	.loc 1 841 0
	cmpl	$1, -84(%rbp)	#, gimme
	jne	.L378	#,
	.loc 1 842 0
	subq	$8, %rbx	#, sp
	.loc 1 843 0
	movq	%rbx, PL_stack_sp(%rip)	# sp, PL_stack_sp
	movq	PL_op(%rip), %rax	# PL_op, PL_op.404
	movq	(%rax), %rax	# PL_op.404_83->op_next, D.18123
	jmp	.L358	#
.L378:
	.loc 1 845 0
	movq	$PL_sv_undef, (%rbx)	#, *sp_20
	movq	%rbx, PL_stack_sp(%rip)	# sp, PL_stack_sp
	movq	PL_op(%rip), %rax	# PL_op, PL_op.405
	movq	(%rax), %rax	# PL_op.405_85->op_next, D.18123
	jmp	.L358	#
.L371:
	.loc 1 847 0
	movq	-72(%rbp), %rax	# sv, tmp246
	movl	12(%rax), %eax	# sv_21->sv_flags, D.18126
	andl	$262144, %eax	#, D.18126
	testl	%eax, %eax	# D.18126
	je	.L379	#,
	.loc 1 847 0 is_stmt 0 discriminator 1
	movq	-72(%rbp), %rax	# sv, tmp247
	movq	(%rax), %rax	# sv_21->sv_any, D.18128
	movq	8(%rax), %rax	# MEM[(struct XPV *)_90].xpv_cur, len.407
	movq	%rax, -80(%rbp)	# len.407, len
	movq	-72(%rbp), %rax	# sv, tmp248
	movq	(%rax), %rax	# sv_21->sv_any, D.18128
	movq	(%rax), %rax	# MEM[(struct XPV *)_92].xpv_pv, iftmp.406
	jmp	.L380	#
.L379:
	.loc 1 847 0 discriminator 2
	leaq	-80(%rbp), %rcx	#, tmp249
	movq	-72(%rbp), %rax	# sv, tmp250
	movl	$2, %edx	#,
	movq	%rcx, %rsi	# tmp249,
	movq	%rax, %rdi	# tmp250,
	call	Perl_sv_2pv_flags	#
.L380:
	.loc 1 847 0 discriminator 3
	movq	%rax, -40(%rbp)	# iftmp.406, sym
	.loc 1 848 0 is_stmt 1 discriminator 3
	movq	PL_op(%rip), %rax	# PL_op, PL_op.408
	movzbl	36(%rax), %eax	# PL_op.408_96->op_flags, D.18124
	testb	%al, %al	# D.18131
	jns	.L381	#,
	.loc 1 849 0 discriminator 1
	movq	PL_op(%rip), %rax	# PL_op, PL_op.409
	movzbl	36(%rax), %eax	# PL_op.409_99->op_flags, D.18124
	movzbl	%al, %eax	# D.18124, D.18125
	andl	$32, %eax	#, D.18125
	.loc 1 848 0 discriminator 1
	testl	%eax, %eax	# D.18125
	jne	.L381	#,
	.loc 1 851 0
	movq	-40(%rbp), %rax	# sym, tmp251
	movl	$11, %edx	#,
	movl	$0, %esi	#,
	movq	%rax, %rdi	# tmp251,
	call	Perl_gv_fetchpv	#
	movq	%rax, -48(%rbp)	# tmp252, gv
	.loc 1 852 0
	cmpq	$0, -48(%rbp)	#, gv
	jne	.L382	#,
	.loc 1 853 0
	movq	-80(%rbp), %rcx	# len, len.410
	movq	-40(%rbp), %rax	# sym, tmp253
	movl	$0, %edx	#,
	movq	%rcx, %rsi	# len.410,
	movq	%rax, %rdi	# tmp253,
	call	Perl_is_gv_magical	#
	testb	%al, %al	# D.18130
	je	.L383	#,
	.loc 1 854 0
	movq	-40(%rbp), %rax	# sym, tmp254
	movl	$11, %edx	#,
	movl	$1, %esi	#,
	movq	%rax, %rdi	# tmp254,
	call	Perl_gv_fetchpv	#
	movq	%rax, -48(%rbp)	# tmp255, gv
	cmpq	$0, -48(%rbp)	#, gv
	jne	.L382	#,
.L383:
	.loc 1 856 0
	movq	$PL_sv_undef, (%rbx)	#, *sp_20
	movq	%rbx, PL_stack_sp(%rip)	# sp, PL_stack_sp
	movq	PL_op(%rip), %rax	# PL_op, PL_op.411
	movq	(%rax), %rax	# PL_op.411_107->op_next, D.18123
	jmp	.L358	#
.L382:
	.loc 1 852 0 discriminator 1
	nop
	jmp	.L386	#
.L381:
	.loc 1 860 0
	movq	PL_op(%rip), %rax	# PL_op, PL_op.412
	movzbl	37(%rax), %eax	# PL_op.412_109->op_private, D.18124
	movzbl	%al, %eax	# D.18124, D.18125
	andl	$2, %eax	#, D.18125
	testl	%eax, %eax	# D.18125
	je	.L385	#,
	.loc 1 861 0
	movq	-40(%rbp), %rax	# sym, tmp256
	movl	$.LC10, %edx	#,
	movq	%rax, %rsi	# tmp256,
	movl	$PL_no_symref, %edi	#,
	movl	$0, %eax	#,
	call	Perl_die	#
	jmp	.L358	#
.L385:
	.loc 1 862 0
	movq	-40(%rbp), %rax	# sym, tmp257
	movl	$11, %edx	#,
	movl	$1, %esi	#,
	movq	%rax, %rdi	# tmp257,
	call	Perl_gv_fetchpv	#
	movq	%rax, -48(%rbp)	# tmp258, gv
.LBE58:
	jmp	.L386	#
.L369:
	.loc 1 866 0
	movq	-72(%rbp), %rax	# sv, tmp259
	movq	%rax, -48(%rbp)	# tmp259, gv
.L386:
	.loc 1 868 0
	movq	-48(%rbp), %rax	# gv, tmp260
	movq	(%rax), %rax	# gv_12->sv_any, D.18132
	movq	56(%rax), %rax	# _116->xgv_gp, D.18133
	movq	40(%rax), %rax	# _117->gp_hv, D.18134
	testq	%rax, %rax	# D.18134
	je	.L387	#,
	.loc 1 868 0 is_stmt 0 discriminator 1
	movq	-48(%rbp), %rax	# gv, tmp261
	movq	(%rax), %rax	# gv_12->sv_any, D.18132
	movq	56(%rax), %rax	# _119->xgv_gp, D.18133
	movq	40(%rax), %rax	# _120->gp_hv, iftmp.413
	jmp	.L388	#
.L387:
	.loc 1 868 0 discriminator 2
	movq	-48(%rbp), %rax	# gv, tmp262
	movq	%rax, %rdi	# tmp262,
	call	Perl_gv_HVadd	#
	movq	(%rax), %rax	# _122->sv_any, D.18132
	movq	56(%rax), %rax	# _123->xgv_gp, D.18133
	movq	40(%rax), %rax	# _124->gp_hv, iftmp.413
.L388:
	.loc 1 868 0 discriminator 3
	movq	%rax, -64(%rbp)	# iftmp.413, hv
	.loc 1 869 0 is_stmt 1 discriminator 3
	movq	PL_op(%rip), %rax	# PL_op, PL_op.414
	movzbl	37(%rax), %eax	# PL_op.414_127->op_private, D.18124
	testb	%al, %al	# D.18131
	jns	.L389	#,
	.loc 1 870 0
	movq	-48(%rbp), %rax	# gv, tmp263
	movq	%rax, %rdi	# tmp263,
	call	Perl_save_hash	#
	movq	%rax, -64(%rbp)	# tmp264, hv
.L389:
	.loc 1 871 0
	movq	PL_op(%rip), %rax	# PL_op, PL_op.415
	movzbl	36(%rax), %eax	# PL_op.415_131->op_flags, D.18124
	movzbl	%al, %eax	# D.18124, D.18125
	andl	$16, %eax	#, D.18125
	testl	%eax, %eax	# D.18125
	je	.L390	#,
	.loc 1 872 0
	movq	-64(%rbp), %rax	# hv, tmp265
	movq	%rax, (%rbx)	# tmp265, *sp_20
	.loc 1 873 0
	movq	%rbx, PL_stack_sp(%rip)	# sp, PL_stack_sp
	movq	PL_op(%rip), %rax	# PL_op, PL_op.416
	movq	(%rax), %rax	# PL_op.416_135->op_next, D.18123
	jmp	.L358	#
.L390:
	.loc 1 875 0
	movq	PL_op(%rip), %rax	# PL_op, PL_op.417
	movzbl	37(%rax), %eax	# PL_op.417_137->op_private, D.18124
	movzbl	%al, %eax	# D.18124, D.18125
	andl	$8, %eax	#, D.18125
	testl	%eax, %eax	# D.18125
	je	.L363	#,
	.loc 1 875 0 is_stmt 0 discriminator 1
	call	Perl_is_lvalue_sub	#
	testl	%eax, %eax	# D.18125
	je	.L363	#,
	.loc 1 876 0 is_stmt 1
	cmpl	$1, -84(%rbp)	#, gimme
	je	.L391	#,
	.loc 1 877 0
	movl	$.LC9, %edi	#,
	movl	$0, %eax	#,
	call	Perl_croak	#
.L391:
	.loc 1 879 0
	movq	-64(%rbp), %rax	# hv, tmp266
	movq	%rax, (%rbx)	# tmp266, *sp_20
	.loc 1 880 0
	movq	%rbx, PL_stack_sp(%rip)	# sp, PL_stack_sp
	movq	PL_op(%rip), %rax	# PL_op, PL_op.418
	movq	(%rax), %rax	# PL_op.418_142->op_next, D.18123
	jmp	.L358	#
.L363:
.LBE57:
	.loc 1 885 0
	cmpl	$1, -84(%rbp)	#, gimme
	jne	.L392	#,
	.loc 1 886 0
	movq	PL_stack_sp(%rip), %rax	# PL_stack_sp, PL_stack_sp.419
	movq	-64(%rbp), %rdx	# hv, tmp267
	movq	%rdx, (%rax)	# tmp267, *PL_stack_sp.419_199
	.loc 1 887 0
	call	Perl_do_kv	#
	jmp	.L358	#
.L392:
	.loc 1 889 0
	cmpl	$0, -84(%rbp)	#, gimme
	jne	.L393	#,
.LBB59:
	.loc 1 890 0
	movq	PL_curpad(%rip), %rdx	# PL_curpad, PL_curpad.420
	movq	PL_op(%rip), %rax	# PL_op, PL_op.421
	movq	24(%rax), %rax	# PL_op.421_202->op_targ, D.18136
	salq	$3, %rax	#, D.18136
	addq	%rdx, %rax	# PL_curpad.420, D.18137
	movq	(%rax), %rax	# *_205, tmp268
	movq	%rax, -24(%rbp)	# tmp268, targ
	.loc 1 892 0
	movq	-64(%rbp), %rax	# hv, tmp269
	movl	12(%rax), %eax	# hv_7->sv_flags, D.18126
	movzbl	%al, %eax	# D.18126, D.18126
	cmpl	$10, %eax	#, D.18126
	jne	.L394	#,
	.loc 1 893 0
	movq	-64(%rbp), %rax	# hv, tmp270
	movq	%rax, %rdi	# tmp270,
	call	Perl_avhv_keys	#
	movq	%rax, -64(%rbp)	# tmp271, hv
.L394:
	.loc 1 895 0
	movq	-64(%rbp), %rax	# hv, tmp272
	movq	%rax, %rdi	# tmp272,
	call	Perl_hv_scalar	#
	movq	%rax, -24(%rbp)	# tmp273, targ
.LBB60:
	.loc 1 896 0
	movq	-24(%rbp), %rax	# targ, tmp274
	movl	12(%rax), %eax	# targ_210->sv_flags, D.18126
	andl	$16384, %eax	#, D.18126
	testl	%eax, %eax	# D.18126
	je	.L395	#,
	.loc 1 896 0 is_stmt 0 discriminator 1
	movq	-24(%rbp), %rax	# targ, tmp275
	movq	%rax, %rdi	# tmp275,
	call	Perl_mg_set	#
.L395:
	.loc 1 896 0 discriminator 2
	movq	-24(%rbp), %rax	# targ, tmp276
	movq	%rax, (%rbx)	# tmp276, *sp_3
.L393:
.LBE60:
.LBE59:
	.loc 1 898 0 is_stmt 1
	movq	%rbx, PL_stack_sp(%rip)	# sp, PL_stack_sp
	movq	PL_op(%rip), %rax	# PL_op, PL_op.422
	movq	(%rax), %rax	# PL_op.422_214->op_next, D.18123
.L358:
	.loc 1 899 0
	addq	$88, %rsp	#,
	popq	%rbx	#
	popq	%rbp	#
	.cfi_def_cfa 7, 8
	ret
	.cfi_endproc
.LFE26:
	.size	Perl_pp_rv2hv, .-Perl_pp_rv2hv
	.type	S_do_maybe_phash, @function
S_do_maybe_phash:
.LFB27:
	.loc 1 904 0
	.cfi_startproc
	pushq	%rbp	#
	.cfi_def_cfa_offset 16
	.cfi_offset 6, -16
	movq	%rsp, %rbp	#,
	.cfi_def_cfa_register 6
	subq	$80, %rsp	#,
	movq	%rdi, -40(%rbp)	# ary, ary
	movq	%rsi, -48(%rbp)	# lelem, lelem
	movq	%rdx, -56(%rbp)	# firstlelem, firstlelem
	movq	%rcx, -64(%rbp)	# relem, relem
	movq	%r8, -72(%rbp)	# lastrelem, lastrelem
	.loc 1 908 0
	movq	PL_op(%rip), %rax	# PL_op, PL_op.423
	movq	48(%rax), %rax	# MEM[(struct BINOP *)PL_op.423_6].op_last, tmp84
	movq	%rax, -16(%rbp)	# tmp84, leftop
	.loc 1 911 0
	movq	-16(%rbp), %rax	# leftop, tmp85
	movq	40(%rax), %rax	# MEM[(struct LISTOP *)leftop_7].op_first, tmp86
	movq	%rax, -16(%rbp)	# tmp86, leftop
	.loc 1 914 0
	movq	-48(%rbp), %rdx	# lelem, lelem.424
	movq	-56(%rbp), %rax	# firstlelem, firstlelem.425
	subq	%rax, %rdx	# firstlelem.425, D.18142
	movq	%rdx, %rax	# D.18142, D.18142
	sarq	$3, %rax	#, tmp87
	movl	%eax, -20(%rbp)	# D.18142, i
	jmp	.L397	#
.L398:
	.loc 1 915 0 discriminator 2
	movq	-16(%rbp), %rax	# leftop, tmp88
	movq	8(%rax), %rax	# leftop_3->op_sibling, tmp89
	movq	%rax, -16(%rbp)	# tmp89, leftop
	.loc 1 914 0 discriminator 2
	subl	$1, -20(%rbp)	#, i
.L397:
	.loc 1 914 0 is_stmt 0 discriminator 1
	cmpl	$0, -20(%rbp)	#, i
	jg	.L398	#,
	.loc 1 918 0 is_stmt 1
	movq	-16(%rbp), %rax	# leftop, tmp90
	movzwl	32(%rax), %eax	# leftop_3->op_type, D.18143
	cmpw	$134, %ax	#, D.18143
	je	.L399	#,
	.loc 1 919 0
	movl	$0, %eax	#, D.18141
	jmp	.L400	#
.L399:
	.loc 1 922 0
	movq	-40(%rbp), %rax	# ary, tmp91
	movq	%rax, %rdi	# tmp91,
	call	Perl_av_len	#
	testl	%eax, %eax	# D.18141
	jle	.L401	#,
	.loc 1 923 0
	movq	-40(%rbp), %rax	# ary, tmp92
	movl	$0, %esi	#,
	movq	%rax, %rdi	# tmp92,
	call	Perl_av_fill	#
.L401:
	.loc 1 924 0
	movq	-72(%rbp), %rax	# lastrelem, tmp93
	cmpq	-64(%rbp), %rax	# relem, tmp93
	jb	.L402	#,
	.loc 1 925 0
	jmp	.L403	#
.L407:
.LBB61:
	.loc 1 930 0
	call	Perl_sv_newmortal	#
	movq	%rax, -8(%rbp)	# tmp94, tmpstr
	.loc 1 931 0
	movq	-64(%rbp), %rax	# relem, tmp95
	addq	$8, %rax	#, D.18144
	movq	(%rax), %rcx	# *_25, D.18145
	movq	-8(%rbp), %rax	# tmpstr, tmp96
	movl	$2, %edx	#,
	movq	%rcx, %rsi	# D.18145,
	movq	%rax, %rdi	# tmp96,
	call	Perl_sv_setsv_flags	#
	.loc 1 932 0
	movq	-64(%rbp), %rax	# relem, tmp97
	leaq	8(%rax), %rdx	#, D.18144
	movq	-8(%rbp), %rax	# tmpstr, tmp98
	movq	%rax, (%rdx)	# tmp98, *_27
	.loc 1 933 0
	movq	-64(%rbp), %rax	# relem, tmp99
	movq	(%rax), %rsi	# *relem_1, D.18145
	movq	-8(%rbp), %rdx	# tmpstr, tmp100
	movq	-40(%rbp), %rax	# ary, tmp101
	movl	$0, %ecx	#,
	movq	%rax, %rdi	# tmp101,
	call	Perl_avhv_store_ent	#
	testq	%rax, %rax	# D.18144
	je	.L404	#,
	.loc 1 934 0
	movq	-8(%rbp), %rax	# tmpstr, tmp102
	movq	%rax, PL_Sv(%rip)	# tmp102, PL_Sv
	movq	PL_Sv(%rip), %rax	# PL_Sv, PL_Sv.427
	testq	%rax, %rax	# PL_Sv.427
	je	.L404	#,
	.loc 1 934 0 is_stmt 0 discriminator 1
	movq	PL_Sv(%rip), %rax	# PL_Sv, PL_Sv.428
	movl	8(%rax), %edx	# PL_Sv.428_31->sv_refcnt, D.18146
	addl	$1, %edx	#, D.18146
	movl	%edx, 8(%rax)	# D.18146, PL_Sv.428_31->sv_refcnt
	movl	8(%rax), %eax	# PL_Sv.428_31->sv_refcnt, D.18146
	testl	%eax, %eax	# D.18146
	je	.L404	#,
	.loc 1 934 0
	nop
.L404:
	.loc 1 935 0 is_stmt 1
	movq	-40(%rbp), %rax	# ary, tmp103
	movl	12(%rax), %eax	# ary_20(D)->sv_flags, D.18146
	andl	$57344, %eax	#, D.18146
	testl	%eax, %eax	# D.18146
	je	.L406	#,
	.loc 1 935 0 is_stmt 0 discriminator 1
	movq	-8(%rbp), %rax	# tmpstr, tmp104
	movl	12(%rax), %eax	# tmpstr_24->sv_flags, D.18146
	andl	$16384, %eax	#, D.18146
	testl	%eax, %eax	# D.18146
	je	.L406	#,
	.loc 1 936 0 is_stmt 1
	movq	-8(%rbp), %rax	# tmpstr, tmp105
	movq	%rax, %rdi	# tmp105,
	call	Perl_mg_set	#
.L406:
	.loc 1 937 0
	addq	$16, -64(%rbp)	#, relem
	.loc 1 938 0
	movb	$0, PL_tainted(%rip)	#, PL_tainted
.L403:
.LBE61:
	.loc 1 925 0 discriminator 1
	movq	-64(%rbp), %rax	# relem, tmp106
	cmpq	-72(%rbp), %rax	# lastrelem, tmp106
	jb	.L407	#,
.L402:
	.loc 1 941 0
	movq	-64(%rbp), %rax	# relem, tmp107
	cmpq	-72(%rbp), %rax	# lastrelem, tmp107
	jne	.L408	#,
	.loc 1 942 0
	movl	$1, %eax	#, D.18141
	jmp	.L400	#
.L408:
	.loc 1 943 0
	movl	$2, %eax	#, D.18141
.L400:
	.loc 1 944 0
	leave
	.cfi_def_cfa 7, 8
	ret
	.cfi_endproc
.LFE27:
	.size	S_do_maybe_phash, .-S_do_maybe_phash
	.section	.rodata
	.align 8
.LC11:
	.string	"Reference found where even-sized list expected"
	.align 8
.LC12:
	.string	"Odd number of elements in hash assignment"
	.text
	.type	S_do_oddball, @function
S_do_oddball:
.LFB28:
	.loc 1 948 0
	.cfi_startproc
	pushq	%rbp	#
	.cfi_def_cfa_offset 16
	.cfi_offset 6, -16
	movq	%rsp, %rbp	#,
	.cfi_def_cfa_register 6
	subq	$48, %rsp	#,
	movq	%rdi, -24(%rbp)	# hash, hash
	movq	%rsi, -32(%rbp)	# relem, relem
	movq	%rdx, -40(%rbp)	# firstrelem, firstrelem
	.loc 1 949 0
	movq	-32(%rbp), %rax	# relem, tmp112
	movq	(%rax), %rax	# *relem_1(D), D.18147
	testq	%rax, %rax	# D.18147
	je	.L409	#,
.LBB62:
	.loc 1 951 0
	movq	PL_curcop(%rip), %rax	# PL_curcop, PL_curcop.429
	movq	80(%rax), %rax	# PL_curcop.429_3->cop_warnings, D.18147
	testq	%rax, %rax	# D.18147
	je	.L411	#,
	.loc 1 951 0 is_stmt 0 discriminator 1
	movq	PL_curcop(%rip), %rax	# PL_curcop, PL_curcop.430
	movq	80(%rax), %rax	# PL_curcop.430_5->cop_warnings, D.18147
	cmpq	$32, %rax	#, D.18147
	je	.L411	#,
	movq	PL_curcop(%rip), %rax	# PL_curcop, PL_curcop.431
	movq	80(%rax), %rax	# PL_curcop.431_7->cop_warnings, D.18147
	cmpq	$16, %rax	#, D.18147
	je	.L412	#,
	movq	PL_curcop(%rip), %rax	# PL_curcop, PL_curcop.432
	movq	80(%rax), %rax	# PL_curcop.432_9->cop_warnings, D.18147
	movq	(%rax), %rax	# _10->sv_any, D.18148
	movq	(%rax), %rax	# MEM[(struct XPV *)_11].xpv_pv, D.18149
	addq	$3, %rax	#, D.18149
	movzbl	(%rax), %eax	# *_13, D.18150
	movsbl	%al, %eax	# D.18150, D.18151
	andl	$1, %eax	#, D.18151
	testl	%eax, %eax	# D.18151
	jne	.L412	#,
.L411:
	.loc 1 951 0 discriminator 2
	movq	PL_curcop(%rip), %rax	# PL_curcop, PL_curcop.433
	movq	80(%rax), %rax	# PL_curcop.433_17->cop_warnings, D.18147
	testq	%rax, %rax	# D.18147
	jne	.L413	#,
	.loc 1 951 0 discriminator 1
	movzbl	PL_dowarn(%rip), %eax	# PL_dowarn, PL_dowarn.434
	movzbl	%al, %eax	# PL_dowarn.434, D.18151
	andl	$1, %eax	#, D.18151
	testl	%eax, %eax	# D.18151
	je	.L413	#,
.L412:
	.loc 1 952 0 is_stmt 1
	movq	-32(%rbp), %rax	# relem, tmp113
	cmpq	-40(%rbp), %rax	# firstrelem, tmp113
	jne	.L414	#,
	.loc 1 953 0 discriminator 1
	movq	-32(%rbp), %rax	# relem, tmp114
	movq	(%rax), %rax	# *relem_1(D), D.18147
	movl	12(%rax), %eax	# _23->sv_flags, D.18152
	andl	$524288, %eax	#, D.18152
	.loc 1 952 0 discriminator 1
	testl	%eax, %eax	# D.18152
	je	.L414	#,
	.loc 1 954 0
	movq	-32(%rbp), %rax	# relem, tmp115
	movq	(%rax), %rax	# *relem_1(D), D.18147
	movq	(%rax), %rax	# _26->sv_any, D.18148
	movq	(%rax), %rax	# MEM[(struct XRV *)_27].xrv_rv, D.18147
	movl	12(%rax), %eax	# _28->sv_flags, D.18152
	movzbl	%al, %eax	# D.18152, D.18152
	.loc 1 953 0
	cmpl	$10, %eax	#, D.18152
	je	.L415	#,
	.loc 1 955 0
	movq	-32(%rbp), %rax	# relem, tmp116
	movq	(%rax), %rax	# *relem_1(D), D.18147
	movq	(%rax), %rax	# _31->sv_any, D.18148
	movq	(%rax), %rax	# MEM[(struct XRV *)_32].xrv_rv, D.18147
	movl	12(%rax), %eax	# _33->sv_flags, D.18152
	movzbl	%al, %eax	# D.18152, D.18152
	.loc 1 954 0
	cmpl	$11, %eax	#, D.18152
	jne	.L414	#,
.L415:
	.loc 1 957 0
	movl	$.LC11, %esi	#,
	movl	$12, %edi	#,
	movl	$0, %eax	#,
	call	Perl_warner	#
	jmp	.L413	#
.L414:
	.loc 1 961 0
	movl	$.LC12, %esi	#,
	movl	$12, %edi	#,
	movl	$0, %eax	#,
	call	Perl_warner	#
.L413:
	.loc 1 964 0
	movq	-24(%rbp), %rax	# hash, tmp117
	movl	12(%rax), %eax	# hash_36(D)->sv_flags, D.18152
	movzbl	%al, %eax	# D.18152, D.18152
	cmpl	$10, %eax	#, D.18152
	jne	.L416	#,
	.loc 1 966 0
	call	Perl_sv_newmortal	#
	movq	%rax, -16(%rbp)	# tmp118, tmpstr
	.loc 1 967 0
	movq	-32(%rbp), %rax	# relem, tmp119
	movq	(%rax), %rsi	# *relem_1(D), D.18147
	movq	-16(%rbp), %rdx	# tmpstr, tmp120
	movq	-24(%rbp), %rax	# hash, tmp121
	movl	$0, %ecx	#,
	movq	%rax, %rdi	# tmp121,
	call	Perl_avhv_store_ent	#
	testq	%rax, %rax	# D.18153
	je	.L417	#,
	.loc 1 968 0
	movq	-16(%rbp), %rax	# tmpstr, tmp122
	movq	%rax, PL_Sv(%rip)	# tmp122, PL_Sv
	movq	PL_Sv(%rip), %rax	# PL_Sv, PL_Sv.436
	testq	%rax, %rax	# PL_Sv.436
	je	.L417	#,
	.loc 1 968 0 is_stmt 0 discriminator 1
	movq	PL_Sv(%rip), %rax	# PL_Sv, PL_Sv.437
	movl	8(%rax), %edx	# PL_Sv.437_43->sv_refcnt, D.18152
	addl	$1, %edx	#, D.18152
	movl	%edx, 8(%rax)	# D.18152, PL_Sv.437_43->sv_refcnt
	movl	8(%rax), %eax	# PL_Sv.437_43->sv_refcnt, D.18152
	testl	%eax, %eax	# D.18152
	je	.L417	#,
	.loc 1 968 0
	nop
.L417:
	.loc 1 969 0 is_stmt 1
	movq	-24(%rbp), %rax	# hash, tmp123
	movl	12(%rax), %eax	# hash_36(D)->sv_flags, D.18152
	andl	$57344, %eax	#, D.18152
	testl	%eax, %eax	# D.18152
	je	.L420	#,
	.loc 1 969 0 is_stmt 0 discriminator 1
	movq	-16(%rbp), %rax	# tmpstr, tmp124
	movl	12(%rax), %eax	# tmpstr_39->sv_flags, D.18152
	andl	$16384, %eax	#, D.18152
	testl	%eax, %eax	# D.18152
	je	.L420	#,
	.loc 1 970 0 is_stmt 1
	movq	-16(%rbp), %rax	# tmpstr, tmp125
	movq	%rax, %rdi	# tmp125,
	call	Perl_mg_set	#
	jmp	.L420	#
.L416:
.LBB63:
	.loc 1 974 0
	movl	$0, %edi	#,
	call	Perl_newSV	#
	movq	%rax, -16(%rbp)	# tmp126, tmpstr
	.loc 1 975 0
	movq	-32(%rbp), %rax	# relem, tmp127
	movq	(%rax), %rsi	# *relem_1(D), D.18147
	movq	-16(%rbp), %rdx	# tmpstr, tmp128
	movq	-24(%rbp), %rax	# hash, tmp129
	movl	$0, %ecx	#,
	movq	%rax, %rdi	# tmp129,
	call	Perl_hv_store_ent	#
	movq	%rax, -8(%rbp)	# tmp130, didstore
	.loc 1 976 0
	movq	-24(%rbp), %rax	# hash, tmp131
	movl	12(%rax), %eax	# hash_36(D)->sv_flags, D.18152
	andl	$57344, %eax	#, D.18152
	testl	%eax, %eax	# D.18152
	je	.L420	#,
	.loc 1 977 0
	movq	-16(%rbp), %rax	# tmpstr, tmp132
	movl	12(%rax), %eax	# tmpstr_53->sv_flags, D.18152
	andl	$16384, %eax	#, D.18152
	testl	%eax, %eax	# D.18152
	je	.L421	#,
	.loc 1 978 0
	movq	-16(%rbp), %rax	# tmpstr, tmp133
	movq	%rax, %rdi	# tmp133,
	call	Perl_mg_set	#
.L421:
	.loc 1 979 0
	cmpq	$0, -8(%rbp)	#, didstore
	jne	.L420	#,
	.loc 1 980 0
	movq	-16(%rbp), %rax	# tmpstr, tmp134
	movq	%rax, %rdi	# tmp134,
	call	Perl_sv_2mortal	#
.L420:
.LBE63:
	.loc 1 983 0
	movb	$0, PL_tainted(%rip)	#, PL_tainted
.L409:
.LBE62:
	.loc 1 985 0
	leave
	.cfi_def_cfa 7, 8
	ret
	.cfi_endproc
.LFE28:
	.size	S_do_oddball, .-S_do_oddball
	.section	.rodata
.LC13:
	.string	"No setreuid available"
.LC14:
	.string	"No setregid available"
	.text
	.globl	Perl_pp_aassign
	.type	Perl_pp_aassign, @function
Perl_pp_aassign:
.LFB29:
	.loc 1 988 0
	.cfi_startproc
	pushq	%rbp	#
	.cfi_def_cfa_offset 16
	.cfi_offset 6, -16
	movq	%rsp, %rbp	#,
	.cfi_def_cfa_register 6
	pushq	%r14	#
	pushq	%r13	#
	pushq	%r12	#
	pushq	%rbx	#
	subq	$96, %rsp	#,
	.cfi_offset 14, -24
	.cfi_offset 13, -32
	.cfi_offset 12, -40
	.cfi_offset 3, -48
	.loc 1 989 0
	movq	PL_stack_sp(%rip), %r12	# PL_stack_sp, sp
	.loc 1 990 0
	movq	PL_stack_sp(%rip), %rax	# PL_stack_sp, tmp222
	movq	%rax, -88(%rbp)	# tmp222, lastlelem
	.loc 1 991 0
	movq	PL_stack_base(%rip), %rcx	# PL_stack_base, PL_stack_base.438
	movq	PL_markstack_ptr(%rip), %rax	# PL_markstack_ptr, PL_markstack_ptr.439
	leaq	-4(%rax), %rdx	#, PL_markstack_ptr.441
	movq	%rdx, PL_markstack_ptr(%rip)	# PL_markstack_ptr.441, PL_markstack_ptr
	movl	(%rax), %eax	# *PL_markstack_ptr.440_34, D.18157
	cltq
	salq	$3, %rax	#, D.18158
	addq	%rcx, %rax	# PL_stack_base.438, tmp223
	movq	%rax, -112(%rbp)	# tmp223, lastrelem
	.loc 1 992 0
	movq	PL_stack_base(%rip), %rcx	# PL_stack_base, PL_stack_base.442
	movq	PL_markstack_ptr(%rip), %rax	# PL_markstack_ptr, PL_markstack_ptr.443
	leaq	-4(%rax), %rdx	#, PL_markstack_ptr.445
	movq	%rdx, PL_markstack_ptr(%rip)	# PL_markstack_ptr.445, PL_markstack_ptr
	movl	(%rax), %eax	# *PL_markstack_ptr.444_42, D.18157
	cltq
	addq	$1, %rax	#, D.18159
	salq	$3, %rax	#, D.18159
	addq	%rcx, %rax	# PL_stack_base.442, tmp224
	movq	%rax, -80(%rbp)	# tmp224, firstrelem
	.loc 1 993 0
	movq	-112(%rbp), %rax	# lastrelem, tmp228
	addq	$8, %rax	#, tmp227
	movq	%rax, -72(%rbp)	# tmp227, firstlelem
	.loc 1 1005 0
	movl	$0, -124(%rbp)	#, duplicates
	.loc 1 1006 0
	movq	$0, -96(%rbp)	#, firsthashrelem
	.loc 1 1009 0
	movl	$256, PL_delaymagic(%rip)	#, PL_delaymagic
	.loc 1 1010 0
	movq	PL_op(%rip), %rax	# PL_op, PL_op.447
	movzbl	36(%rax), %eax	# PL_op.447_52->op_flags, D.18160
	movzbl	%al, %eax	# D.18160, D.18157
	andl	$3, %eax	#, D.18157
	cmpl	$1, %eax	#, D.18157
	je	.L423	#,
	.loc 1 1010 0 is_stmt 0 discriminator 1
	movq	PL_op(%rip), %rax	# PL_op, PL_op.449
	movzbl	36(%rax), %eax	# PL_op.449_56->op_flags, D.18160
	movzbl	%al, %eax	# D.18160, D.18157
	andl	$3, %eax	#, D.18157
	cmpl	$2, %eax	#, D.18157
	je	.L424	#,
	movq	PL_op(%rip), %rax	# PL_op, PL_op.451
	movzbl	36(%rax), %eax	# PL_op.451_60->op_flags, D.18160
	movzbl	%al, %eax	# D.18160, D.18157
	andl	$3, %eax	#, D.18157
	cmpl	$3, %eax	#, D.18157
	je	.L425	#,
	call	Perl_block_gimme	#
	jmp	.L428	#
.L425:
	.loc 1 1010 0 discriminator 2
	movl	$1, %eax	#, iftmp.450
	jmp	.L428	#
.L424:
	movl	$0, %eax	#, iftmp.448
	jmp	.L428	#
.L423:
	movl	$128, %eax	#, iftmp.446
.L428:
	.loc 1 1010 0 discriminator 3
	movl	%eax, -120(%rbp)	# iftmp.446, gimme
	.loc 1 1016 0 is_stmt 1 discriminator 3
	movq	PL_op(%rip), %rax	# PL_op, PL_op.452
	movzbl	37(%rax), %eax	# PL_op.452_71->op_private, D.18160
	movzbl	%al, %eax	# D.18160, D.18157
	andl	$64, %eax	#, D.18157
	testl	%eax, %eax	# D.18157
	je	.L429	#,
	.loc 1 1017 0
	movl	PL_tmps_ix(%rip), %eax	# PL_tmps_ix, PL_tmps_ix.453
	cltq
	movq	-112(%rbp), %rcx	# lastrelem, lastrelem.454
	movq	-80(%rbp), %rdx	# firstrelem, firstrelem.455
	subq	%rdx, %rcx	# firstrelem.455, D.18161
	movq	%rcx, %rdx	# D.18161, D.18161
	sarq	$3, %rdx	#, tmp229
	addq	$1, %rdx	#, D.18161
	addq	%rax, %rdx	# D.18161, D.18161
	movl	PL_tmps_max(%rip), %eax	# PL_tmps_max, PL_tmps_max.456
	cltq
	cmpq	%rax, %rdx	# D.18161, D.18161
	jl	.L430	#,
	.loc 1 1017 0 is_stmt 0 discriminator 1
	movq	-112(%rbp), %rdx	# lastrelem, lastrelem.457
	movq	-80(%rbp), %rax	# firstrelem, firstrelem.458
	subq	%rax, %rdx	# firstrelem.458, D.18161
	movq	%rdx, %rax	# D.18161, D.18161
	sarq	$3, %rax	#, tmp230
	addl	$1, %eax	#, D.18162
	movl	%eax, %edi	# D.18157,
	call	Perl_tmps_grow	#
.L430:
	.loc 1 1018 0 is_stmt 1
	movq	-80(%rbp), %rbx	# firstrelem, relem
	jmp	.L431	#
.L433:
	.loc 1 1020 0
	movq	(%rbx), %r12	# *relem_4, sv
	testq	%r12, %r12	# sv
	je	.L432	#,
	.loc 1 1021 0
	movb	$0, PL_tainted(%rip)	#, PL_tainted
	.loc 1 1022 0
	movq	%r12, %rdi	# sv,
	call	Perl_sv_mortalcopy	#
	movq	%rax, (%rbx)	# D.18163, *relem_4
.L432:
	.loc 1 1018 0
	addq	$8, %rbx	#, relem
.L431:
	.loc 1 1018 0 is_stmt 0 discriminator 1
	cmpq	-112(%rbp), %rbx	# lastrelem, relem
	jbe	.L433	#,
.L429:
	.loc 1 1027 0 is_stmt 1
	movq	-80(%rbp), %rbx	# firstrelem, relem
	.loc 1 1028 0
	movq	-72(%rbp), %r13	# firstlelem, lelem
	.loc 1 1029 0
	movl	$0, %r14d	#, ary
	.loc 1 1030 0
	movq	$0, -104(%rbp)	#, hash
	.loc 1 1032 0
	jmp	.L434	#
.L461:
	.loc 1 1033 0
	movb	$0, PL_tainted(%rip)	#, PL_tainted
	.loc 1 1034 0
	movq	%r13, %rax	# lelem, lelem.459
	leaq	8(%rax), %r13	#, lelem
	movq	(%rax), %r12	# *lelem.459_100, sv
	.loc 1 1035 0
	movl	12(%r12), %eax	# sv_102->sv_flags, D.18164
	movzbl	%al, %eax	# D.18164, D.18164
	cmpl	$10, %eax	#, D.18164
	je	.L436	#,
	cmpl	$11, %eax	#, D.18164
	je	.L437	#,
	jmp	.L485	#
.L436:
	.loc 1 1037 0
	movq	%r12, %r14	# sv, ary
	.loc 1 1038 0
	movl	12(%r14), %eax	# ary_105->sv_flags, D.18164
	andl	$57344, %eax	#, D.18164
	testl	%eax, %eax	# D.18164
	setne	%al	#, D.18165
	movzbl	%al, %eax	# D.18165, tmp231
	movl	%eax, -116(%rbp)	# tmp231, magic
	.loc 1 1039 0
	movq	PL_op(%rip), %rax	# PL_op, PL_op.460
	movzbl	37(%rax), %eax	# PL_op.460_110->op_private, D.18160
	movzbl	%al, %eax	# D.18160, D.18157
	andl	$32, %eax	#, D.18157
	testl	%eax, %eax	# D.18157
	je	.L438	#,
	.loc 1 1040 0
	movq	-112(%rbp), %rdx	# lastrelem, tmp232
	movq	-72(%rbp), %rax	# firstlelem, tmp233
	movq	%rdx, %r8	# tmp232,
	movq	%rbx, %rcx	# relem,
	movq	%rax, %rdx	# tmp233,
	movq	%r13, %rsi	# lelem,
	movq	%r14, %rdi	# ary,
	call	S_do_maybe_phash	#
	testl	%eax, %eax	# D.18157
	je	.L486	#,
	cmpl	$1, %eax	#, D.18157
	jne	.L439	#,
	.loc 1 1046 0
	movq	-80(%rbp), %rax	# firstrelem, tmp234
	movq	%rax, %rdx	# tmp234,
	movq	%rbx, %rsi	# relem,
	movq	%r14, %rdi	# ary,
	call	S_do_oddball	#
.L439:
	.loc 1 1048 0
	movq	-112(%rbp), %rax	# lastrelem, tmp235
	leaq	8(%rax), %rbx	#, relem
	.loc 1 1049 0
	jmp	.L434	#
.L486:
	.loc 1 1044 0
	nop
.L438:
	.loc 1 1052 0
	movq	%r14, %rdi	# ary,
	call	Perl_av_clear	#
	.loc 1 1053 0
	movq	-112(%rbp), %rdx	# lastrelem, lastrelem.461
	movq	%rbx, %rax	# relem, relem.462
	subq	%rax, %rdx	# relem.462, D.18161
	movq	%rdx, %rax	# D.18161, D.18161
	sarq	$3, %rax	#, tmp236
	movl	%eax, %esi	# D.18157,
	movq	%r14, %rdi	# ary,
	call	Perl_av_extend	#
	.loc 1 1054 0
	movl	$0, -128(%rbp)	#, i
	.loc 1 1055 0
	jmp	.L442	#
.L445:
.LBB64:
	.loc 1 1058 0
	movq	(%rbx), %rax	# *relem_5, D.18163
	movq	%rax, %rdi	# D.18163,
	call	Perl_newSVsv	#
	movq	%rax, %r12	#, sv
	.loc 1 1059 0
	movq	%rbx, %rax	# relem, relem.463
	leaq	8(%rax), %rbx	#, relem
	movq	%r12, (%rax)	# sv, *relem.463_124
	.loc 1 1060 0
	movl	-128(%rbp), %eax	# i, i.464
	leal	1(%rax), %edx	#, tmp237
	movl	%edx, -128(%rbp)	# tmp237, i
	movq	%r12, %rdx	# sv,
	movl	%eax, %esi	# i.464,
	movq	%r14, %rdi	# ary,
	call	Perl_av_store	#
	movq	%rax, -64(%rbp)	# tmp238, didstore
	.loc 1 1061 0
	cmpl	$0, -116(%rbp)	#, magic
	je	.L443	#,
	.loc 1 1062 0
	movl	12(%r12), %eax	# sv_123->sv_flags, D.18164
	andl	$16384, %eax	#, D.18164
	testl	%eax, %eax	# D.18164
	je	.L444	#,
	.loc 1 1063 0
	movq	%r12, %rdi	# sv,
	call	Perl_mg_set	#
.L444:
	.loc 1 1064 0
	cmpq	$0, -64(%rbp)	#, didstore
	jne	.L443	#,
	.loc 1 1065 0
	movq	%r12, %rdi	# sv,
	call	Perl_sv_2mortal	#
.L443:
	.loc 1 1067 0
	movb	$0, PL_tainted(%rip)	#, PL_tainted
.L442:
.LBE64:
	.loc 1 1055 0 discriminator 1
	cmpq	-112(%rbp), %rbx	# lastrelem, relem
	jbe	.L445	#,
	.loc 1 1069 0
	jmp	.L434	#
.L437:
.LBB65:
	.loc 1 1073 0
	movq	%r12, -104(%rbp)	# sv, hash
	.loc 1 1074 0
	movq	-104(%rbp), %rax	# hash, tmp239
	movl	12(%rax), %eax	# hash_131->sv_flags, D.18164
	andl	$57344, %eax	#, D.18164
	testl	%eax, %eax	# D.18164
	setne	%al	#, D.18165
	movzbl	%al, %eax	# D.18165, tmp240
	movl	%eax, -116(%rbp)	# tmp240, magic
	.loc 1 1075 0
	movq	-104(%rbp), %rax	# hash, tmp241
	movq	%rax, %rdi	# tmp241,
	call	Perl_hv_clear	#
	.loc 1 1076 0
	movq	%rbx, -96(%rbp)	# relem, firsthashrelem
	.loc 1 1078 0
	jmp	.L446	#
.L453:
.LBB66:
	.loc 1 1080 0
	movq	(%rbx), %rax	# *relem_7, D.18163
	testq	%rax, %rax	# D.18163
	je	.L447	#,
	.loc 1 1081 0
	movq	%rbx, %rax	# relem, relem.465
	leaq	8(%rax), %rbx	#, relem
	movq	(%rax), %r12	# *relem.465_138, sv
	jmp	.L448	#
.L447:
	.loc 1 1083 0
	movl	$PL_sv_no, %r12d	#, sv
	addq	$8, %rbx	#, relem
.L448:
	.loc 1 1084 0
	movl	$0, %edi	#,
	call	Perl_newSV	#
	movq	%rax, -56(%rbp)	# tmp242, tmpstr
	.loc 1 1085 0
	movq	(%rbx), %rax	# *relem_6, D.18163
	testq	%rax, %rax	# D.18163
	je	.L449	#,
	.loc 1 1086 0
	movq	(%rbx), %rcx	# *relem_6, D.18163
	movq	-56(%rbp), %rax	# tmpstr, tmp243
	movl	$2, %edx	#,
	movq	%rcx, %rsi	# D.18163,
	movq	%rax, %rdi	# tmp243,
	call	Perl_sv_setsv_flags	#
.L449:
	.loc 1 1087 0
	movq	%rbx, %rax	# relem, relem.466
	leaq	8(%rax), %rbx	#, relem
	movq	-56(%rbp), %rdx	# tmpstr, tmp244
	movq	%rdx, (%rax)	# tmp244, *relem.466_146
	.loc 1 1088 0
	cmpl	$128, -120(%rbp)	#, gimme
	je	.L450	#,
	.loc 1 1088 0 is_stmt 0 discriminator 1
	movq	-104(%rbp), %rax	# hash, tmp245
	movl	$0, %edx	#,
	movq	%r12, %rsi	# sv,
	movq	%rax, %rdi	# tmp245,
	call	Perl_hv_exists_ent	#
	testb	%al, %al	# D.18166
	je	.L450	#,
	.loc 1 1090 0 is_stmt 1
	addl	$2, -124(%rbp)	#, duplicates
.L450:
	.loc 1 1091 0
	movq	-56(%rbp), %rdx	# tmpstr, tmp246
	movq	-104(%rbp), %rax	# hash, tmp247
	movl	$0, %ecx	#,
	movq	%r12, %rsi	# sv,
	movq	%rax, %rdi	# tmp247,
	call	Perl_hv_store_ent	#
	movq	%rax, -48(%rbp)	# tmp248, didstore
	.loc 1 1092 0
	cmpl	$0, -116(%rbp)	#, magic
	je	.L451	#,
	.loc 1 1093 0
	movq	-56(%rbp), %rax	# tmpstr, tmp249
	movl	12(%rax), %eax	# tmpstr_143->sv_flags, D.18164
	andl	$16384, %eax	#, D.18164
	testl	%eax, %eax	# D.18164
	je	.L452	#,
	.loc 1 1094 0
	movq	-56(%rbp), %rax	# tmpstr, tmp250
	movq	%rax, %rdi	# tmp250,
	call	Perl_mg_set	#
.L452:
	.loc 1 1095 0
	cmpq	$0, -48(%rbp)	#, didstore
	jne	.L451	#,
	.loc 1 1096 0
	movq	-56(%rbp), %rax	# tmpstr, tmp251
	movq	%rax, %rdi	# tmp251,
	call	Perl_sv_2mortal	#
.L451:
	.loc 1 1098 0
	movb	$0, PL_tainted(%rip)	#, PL_tainted
.L446:
.LBE66:
	.loc 1 1078 0 discriminator 1
	cmpq	-112(%rbp), %rbx	# lastrelem, relem
	jb	.L453	#,
	.loc 1 1100 0
	cmpq	-112(%rbp), %rbx	# lastrelem, relem
	jne	.L454	#,
	.loc 1 1101 0
	movq	-80(%rbp), %rdx	# firstrelem, tmp252
	movq	-104(%rbp), %rax	# hash, tmp253
	movq	%rbx, %rsi	# relem,
	movq	%rax, %rdi	# tmp253,
	call	S_do_oddball	#
	.loc 1 1102 0
	addq	$8, %rbx	#, relem
.LBE65:
	.loc 1 1105 0
	jmp	.L434	#
.L454:
	jmp	.L434	#
.L485:
	.loc 1 1107 0
	cmpq	$PL_sv_undef, %r12	#, sv
	je	.L455	#,
	.loc 1 1107 0 is_stmt 0 discriminator 1
	cmpq	$PL_sv_yes, %r12	#, sv
	je	.L455	#,
	cmpq	$PL_sv_no, %r12	#, sv
	je	.L455	#,
	cmpq	$PL_sv_placeholder, %r12	#, sv
	jne	.L456	#,
.L455:
	.loc 1 1108 0 is_stmt 1
	cmpq	-112(%rbp), %rbx	# lastrelem, relem
	ja	.L457	#,
	.loc 1 1109 0
	addq	$8, %rbx	#, relem
	.loc 1 1110 0
	jmp	.L434	#
.L457:
	jmp	.L434	#
.L456:
	.loc 1 1112 0
	cmpq	-112(%rbp), %rbx	# lastrelem, relem
	ja	.L458	#,
	.loc 1 1113 0
	movq	(%rbx), %rax	# *relem_11, D.18163
	movl	$2, %edx	#,
	movq	%rax, %rsi	# D.18163,
	movq	%r12, %rdi	# sv,
	call	Perl_sv_setsv_flags	#
	.loc 1 1114 0
	movq	%rbx, %rax	# relem, relem.467
	leaq	8(%rax), %rbx	#, relem
	movq	%r12, (%rax)	# sv, *relem.467_155
	jmp	.L459	#
.L458:
	.loc 1 1117 0
	movl	$2, %edx	#,
	movl	$PL_sv_undef, %esi	#,
	movq	%r12, %rdi	# sv,
	call	Perl_sv_setsv_flags	#
.L459:
	.loc 1 1118 0
	movl	12(%r12), %eax	# sv_102->sv_flags, D.18164
	andl	$16384, %eax	#, D.18164
	testl	%eax, %eax	# D.18164
	je	.L460	#,
	.loc 1 1118 0 is_stmt 0 discriminator 1
	movq	%r12, %rdi	# sv,
	call	Perl_mg_set	#
	.loc 1 1119 0 is_stmt 1 discriminator 1
	jmp	.L487	#
.L460:
.L487:
	.loc 1 1119 0 is_stmt 0
	nop
.L434:
	.loc 1 1032 0 is_stmt 1 discriminator 1
	cmpq	-88(%rbp), %r13	# lastlelem, lelem
	jbe	.L461	#,
	.loc 1 1122 0
	movl	PL_delaymagic(%rip), %eax	# PL_delaymagic, PL_delaymagic.468
	andb	$254, %ah	#, D.18157
	testl	%eax, %eax	# D.18157
	je	.L462	#,
	.loc 1 1123 0
	movl	PL_delaymagic(%rip), %eax	# PL_delaymagic, PL_delaymagic.469
	andl	$3, %eax	#, D.18157
	testl	%eax, %eax	# D.18157
	je	.L463	#,
	.loc 1 1145 0
	movl	PL_delaymagic(%rip), %eax	# PL_delaymagic, PL_delaymagic.470
	andl	$3, %eax	#, D.18157
	testl	%eax, %eax	# D.18157
	je	.L464	#,
	.loc 1 1146 0
	movl	PL_uid(%rip), %edx	# PL_uid, PL_uid.471
	movl	PL_euid(%rip), %eax	# PL_euid, PL_euid.472
	cmpl	%eax, %edx	# PL_euid.472, PL_uid.471
	je	.L465	#,
	.loc 1 1147 0
	movl	$.LC13, %edi	#,
	movl	$0, %eax	#,
	call	Perl_die	#
	jmp	.L466	#
.L465:
	.loc 1 1148 0
	movl	PL_uid(%rip), %eax	# PL_uid, PL_uid.473
	movl	%eax, %edi	# PL_uid.473,
	call	setuid	#
.L464:
	.loc 1 1152 0
	call	getuid	#
	movl	%eax, PL_uid(%rip)	# PL_uid.474, PL_uid
	.loc 1 1153 0
	call	geteuid	#
	movl	%eax, PL_euid(%rip)	# PL_euid.475, PL_euid
.L463:
	.loc 1 1155 0
	movl	PL_delaymagic(%rip), %eax	# PL_delaymagic, PL_delaymagic.476
	andl	$48, %eax	#, D.18157
	testl	%eax, %eax	# D.18157
	je	.L467	#,
	.loc 1 1177 0
	movl	PL_delaymagic(%rip), %eax	# PL_delaymagic, PL_delaymagic.477
	andl	$48, %eax	#, D.18157
	testl	%eax, %eax	# D.18157
	je	.L468	#,
	.loc 1 1178 0
	movl	PL_gid(%rip), %edx	# PL_gid, PL_gid.478
	movl	PL_egid(%rip), %eax	# PL_egid, PL_egid.479
	cmpl	%eax, %edx	# PL_egid.479, PL_gid.478
	je	.L469	#,
	.loc 1 1179 0
	movl	$.LC14, %edi	#,
	movl	$0, %eax	#,
	call	Perl_die	#
	jmp	.L466	#
.L469:
	.loc 1 1180 0
	movl	PL_gid(%rip), %eax	# PL_gid, PL_gid.480
	movl	%eax, %edi	# PL_gid.480,
	call	setgid	#
.L468:
	.loc 1 1184 0
	call	getgid	#
	movl	%eax, PL_gid(%rip)	# PL_gid.481, PL_gid
	.loc 1 1185 0
	call	getegid	#
	movl	%eax, PL_egid(%rip)	# PL_egid.482, PL_egid
.L467:
	.loc 1 1187 0
	movl	PL_uid(%rip), %eax	# PL_uid, PL_uid.484
	testl	%eax, %eax	# PL_uid.484
	je	.L470	#,
	.loc 1 1187 0 is_stmt 0 discriminator 1
	movl	PL_euid(%rip), %edx	# PL_euid, PL_euid.485
	movl	PL_uid(%rip), %eax	# PL_uid, PL_uid.486
	cmpl	%eax, %edx	# PL_uid.486, PL_euid.485
	jne	.L471	#,
	.loc 1 1187 0 discriminator 4
	movl	PL_egid(%rip), %edx	# PL_egid, PL_egid.487
	movl	PL_gid(%rip), %eax	# PL_gid, PL_gid.488
	cmpl	%eax, %edx	# PL_gid.488, PL_egid.487
	je	.L470	#,
.L471:
	.loc 1 1187 0 discriminator 3
	movl	$1, %eax	#, iftmp.483
	jmp	.L472	#
.L470:
	.loc 1 1187 0 discriminator 2
	movl	$0, %eax	#, iftmp.483
.L472:
	.loc 1 1187 0 discriminator 5
	movl	%eax, %edx	# iftmp.483, D.18166
	movzbl	PL_tainting(%rip), %eax	# PL_tainting, PL_tainting.489
	orl	%edx, %eax	# D.18166, PL_tainting.490
	movb	%al, PL_tainting(%rip)	# PL_tainting.490, PL_tainting
.L462:
	.loc 1 1189 0 is_stmt 1
	movl	$0, PL_delaymagic(%rip)	#, PL_delaymagic
	.loc 1 1191 0
	cmpl	$128, -120(%rbp)	#, gimme
	jne	.L473	#,
	.loc 1 1192 0
	movq	-80(%rbp), %rax	# firstrelem, tmp254
	leaq	-8(%rax), %r12	#, sp
	jmp	.L474	#
.L473:
	.loc 1 1193 0
	cmpl	$0, -120(%rbp)	#, gimme
	jne	.L475	#,
.LBB67:
	.loc 1 1194 0
	movq	PL_curpad(%rip), %rdx	# PL_curpad, PL_curpad.491
	movq	PL_op(%rip), %rax	# PL_op, PL_op.492
	movq	24(%rax), %rax	# PL_op.492_194->op_targ, D.18158
	salq	$3, %rax	#, D.18158
	addq	%rdx, %rax	# PL_curpad.491, D.18167
	movq	(%rax), %rax	# *_197, tmp255
	movq	%rax, -40(%rbp)	# tmp255, targ
	.loc 1 1195 0
	movq	-80(%rbp), %r12	# firstrelem, sp
.LBB68:
	.loc 1 1196 0
	movq	-112(%rbp), %rdx	# lastrelem, lastrelem.493
	movq	-80(%rbp), %rax	# firstrelem, firstrelem.494
	subq	%rax, %rdx	# firstrelem.494, D.18161
	movq	%rdx, %rax	# D.18161, D.18161
	sarq	$3, %rax	#, tmp256
	leaq	1(%rax), %rdx	#, D.18161
	movl	-124(%rbp), %eax	# duplicates, tmp257
	cltq
	subq	%rax, %rdx	# D.18161, D.18161
	movq	-40(%rbp), %rax	# targ, tmp258
	movq	%rdx, %rsi	# D.18161,
	movq	%rax, %rdi	# tmp258,
	call	Perl_sv_setiv	#
.LBB69:
	movq	-40(%rbp), %rax	# targ, tmp259
	movl	12(%rax), %eax	# targ_198->sv_flags, D.18164
	andl	$16384, %eax	#, D.18164
	testl	%eax, %eax	# D.18164
	je	.L476	#,
	.loc 1 1196 0 is_stmt 0 discriminator 1
	movq	-40(%rbp), %rax	# targ, tmp260
	movq	%rax, %rdi	# tmp260,
	call	Perl_mg_set	#
.L476:
	.loc 1 1196 0 discriminator 2
	movq	-40(%rbp), %rax	# targ, tmp261
	movq	%rax, (%r12)	# tmp261, *sp_199
.LBE69:
.LBE68:
.LBE67:
	jmp	.L474	#
.L475:
	.loc 1 1199 0 is_stmt 1
	testq	%r14, %r14	# ary
	je	.L477	#,
	.loc 1 1200 0
	movq	-112(%rbp), %r12	# lastrelem, sp
	jmp	.L478	#
.L477:
	.loc 1 1201 0
	cmpq	$0, -104(%rbp)	#, hash
	je	.L479	#,
	.loc 1 1202 0
	cmpl	$0, -124(%rbp)	#, duplicates
	je	.L480	#,
	.loc 1 1205 0
	movl	-124(%rbp), %eax	# duplicates, tmp262
	cltq
	leaq	0(,%rax,8), %rdx	#, D.18158
	movl	-124(%rbp), %eax	# duplicates, tmp263
	cltq
	leaq	0(,%rax,8), %rcx	#, D.18158
	movq	-96(%rbp), %rax	# firsthashrelem, tmp264
	addq	%rax, %rcx	# tmp264, D.18168
	movq	-96(%rbp), %rax	# firsthashrelem, tmp265
	movq	%rcx, %rsi	# D.18168,
	movq	%rax, %rdi	# tmp265,
	call	memmove	#
	.loc 1 1207 0
	movl	-124(%rbp), %eax	# duplicates, tmp266
	cltq
	salq	$3, %rax	#, D.18158
	negq	%rax	# D.18159
	addq	%rax, -112(%rbp)	# D.18159, lastrelem
.L480:
	.loc 1 1209 0
	movq	-112(%rbp), %r12	# lastrelem, sp
	jmp	.L478	#
.L479:
	.loc 1 1212 0
	movq	-88(%rbp), %rdx	# lastlelem, lastlelem.495
	movq	-72(%rbp), %rax	# firstlelem, firstlelem.496
	subq	%rax, %rdx	# firstlelem.496, D.18161
	movq	%rdx, %rax	# D.18161, D.18161
	sarq	$3, %rax	#, tmp267
	leaq	0(,%rax,8), %rdx	#, D.18158
	movq	-80(%rbp), %rax	# firstrelem, tmp268
	leaq	(%rdx,%rax), %r12	#, sp
.L478:
	.loc 1 1213 0
	movq	%rbx, %rdx	# relem, relem.497
	movq	-80(%rbp), %rax	# firstrelem, firstrelem.498
	subq	%rax, %rdx	# firstrelem.498, D.18161
	movq	%rdx, %rax	# D.18161, D.18161
	sarq	$3, %rax	#, tmp269
	leaq	0(,%rax,8), %rdx	#, D.18158
	movq	-72(%rbp), %rax	# firstlelem, tmp270
	leaq	(%rdx,%rax), %r13	#, lelem
	.loc 1 1214 0
	jmp	.L481	#
.L484:
	.loc 1 1215 0
	movq	%rbx, %rax	# relem, relem.499
	leaq	8(%rax), %rbx	#, relem
	cmpq	-88(%rbp), %r13	# lastlelem, lelem
	ja	.L482	#,
	.loc 1 1215 0 is_stmt 0 discriminator 1
	movq	%r13, %rdx	# lelem, lelem.501
	leaq	8(%rdx), %r13	#, lelem
	movq	(%rdx), %rdx	# *lelem.501_237, iftmp.500
	jmp	.L483	#
.L482:
	.loc 1 1215 0 discriminator 2
	movl	$PL_sv_undef, %edx	#, iftmp.500
.L483:
	.loc 1 1215 0 discriminator 3
	movq	%rdx, (%rax)	# iftmp.500, *relem.499_235
.L481:
	.loc 1 1214 0 is_stmt 1 discriminator 1
	cmpq	%r12, %rbx	# sp, relem
	jbe	.L484	#,
.L474:
	.loc 1 1217 0
	movq	%r12, PL_stack_sp(%rip)	# sp, PL_stack_sp
	movq	PL_op(%rip), %rax	# PL_op, PL_op.502
	movq	(%rax), %rax	# PL_op.502_241->op_next, D.18156
.L466:
	.loc 1 1218 0
	addq	$96, %rsp	#,
	popq	%rbx	#
	popq	%r12	#
	popq	%r13	#
	popq	%r14	#
	popq	%rbp	#
	.cfi_def_cfa 7, 8
	ret
	.cfi_endproc
.LFE29:
	.size	Perl_pp_aassign, .-Perl_pp_aassign
	.section	.rodata
.LC15:
	.string	"Regexp"
	.text
	.globl	Perl_pp_qr
	.type	Perl_pp_qr, @function
Perl_pp_qr:
.LFB30:
	.loc 1 1221 0
	.cfi_startproc
	pushq	%rbp	#
	.cfi_def_cfa_offset 16
	.cfi_offset 6, -16
	movq	%rsp, %rbp	#,
	.cfi_def_cfa_register 6
	pushq	%r12	#
	pushq	%rbx	#
	subq	$16, %rsp	#,
	.cfi_offset 12, -24
	.cfi_offset 3, -32
	.loc 1 1222 0
	movq	PL_stack_sp(%rip), %r12	# PL_stack_sp, sp
	.loc 1 1223 0
	movq	PL_op(%rip), %rbx	# PL_op, pm
	.loc 1 1224 0
	call	Perl_sv_newmortal	#
	movq	%rax, -32(%rbp)	# tmp75, rv
	.loc 1 1225 0
	movq	-32(%rbp), %rax	# rv, tmp76
	movl	$.LC15, %esi	#,
	movq	%rax, %rdi	# tmp76,
	call	Perl_newSVrv	#
	movq	%rax, -24(%rbp)	# tmp77, sv
	.loc 1 1226 0
	movzbl	96(%rbx), %eax	# pm_2->op_pmdynflags, D.18171
	movzbl	%al, %eax	# D.18171, D.18172
	andl	$2, %eax	#, D.18172
	testl	%eax, %eax	# D.18172
	je	.L489	#,
	.loc 1 1227 0
	movzbl	PL_tainting(%rip), %eax	# PL_tainting, PL_tainting.503
	testb	%al, %al	# PL_tainting.503
	je	.L489	#,
	.loc 1 1227 0 is_stmt 0 discriminator 1
	movq	-32(%rbp), %rax	# rv, tmp78
	movq	%rax, %rdi	# tmp78,
	call	Perl_sv_taint	#
.L489:
	.loc 1 1228 0 is_stmt 1
	movq	80(%rbx), %rax	# pm_2->op_pmregexp, D.18173
	testq	%rax, %rax	# D.18173
	je	.L491	#,
	.loc 1 1228 0 is_stmt 0 discriminator 1
	movq	80(%rbx), %rdx	# pm_2->op_pmregexp, D.18173
	movl	68(%rdx), %eax	# _10->refcnt, D.18172
	leal	1(%rax), %ecx	#, D.18172
	movl	%ecx, 68(%rdx)	# D.18172, _10->refcnt
	testl	%eax, %eax	# D.18172
	je	.L491	#,
	.loc 1 1228 0
	nop
.L491:
	.loc 1 1228 0 discriminator 3
	movq	80(%rbx), %rsi	# pm_2->op_pmregexp, D.18173
	movq	-24(%rbp), %rax	# sv, tmp79
	movl	$0, %r8d	#,
	movl	$0, %ecx	#,
	movl	$114, %edx	#,
	movq	%rax, %rdi	# tmp79,
	call	Perl_sv_magic	#
	.loc 1 1229 0 is_stmt 1 discriminator 3
	addq	$8, %r12	#, sp
	movq	-32(%rbp), %rax	# rv, tmp80
	movq	%rax, (%r12)	# tmp80, *sp_17
	movq	%r12, PL_stack_sp(%rip)	# sp, PL_stack_sp
	movq	PL_op(%rip), %rax	# PL_op, PL_op.505
	movq	(%rax), %rax	# PL_op.505_18->op_next, D.18174
	.loc 1 1230 0 discriminator 3
	addq	$16, %rsp	#,
	popq	%rbx	#
	popq	%r12	#
	popq	%rbp	#
	.cfi_def_cfa 7, 8
	ret
	.cfi_endproc
.LFE30:
	.size	Perl_pp_qr, .-Perl_pp_qr
	.section	.rodata
.LC16:
	.string	"panic: pp_match"
	.align 8
.LC17:
	.string	"panic: pp_match start/end pointers"
	.text
	.globl	Perl_pp_match
	.type	Perl_pp_match, @function
Perl_pp_match:
.LFB31:
	.loc 1 1233 0
	.cfi_startproc
	pushq	%rbp	#
	.cfi_def_cfa_offset 16
	.cfi_offset 6, -16
	movq	%rsp, %rbp	#,
	.cfi_def_cfa_register 6
	pushq	%r15	#
	pushq	%r14	#
	pushq	%r13	#
	pushq	%r12	#
	pushq	%rbx	#
	subq	$152, %rsp	#,
	.cfi_offset 15, -24
	.cfi_offset 14, -32
	.cfi_offset 13, -40
	.cfi_offset 12, -48
	.cfi_offset 3, -56
	.loc 1 1234 0
	movq	PL_stack_sp(%rip), %r12	# PL_stack_sp, sp
	.loc 1 1235 0
	movq	PL_op(%rip), %r14	# PL_op, pm
	.loc 1 1236 0
	movq	%r14, -96(%rbp)	# pm, dynpm
	.loc 1 1241 0
	movl	$2, -172(%rbp)	#, r_flags
	.loc 1 1243 0
	movq	80(%r14), %rbx	# pm_43->op_pmregexp, rx
	.loc 1 1245 0
	movq	PL_op(%rip), %rax	# PL_op, PL_op.507
	movzbl	36(%rax), %eax	# PL_op.507_47->op_flags, D.18177
	movzbl	%al, %eax	# D.18177, D.18178
	andl	$3, %eax	#, D.18178
	testl	%eax, %eax	# D.18178
	je	.L494	#,
	.loc 1 1245 0 is_stmt 0 discriminator 1
	movq	PL_op(%rip), %rax	# PL_op, PL_op.508
	movzbl	36(%rax), %eax	# PL_op.508_51->op_flags, D.18177
	movzbl	%al, %eax	# D.18177, D.18178
	andl	$3, %eax	#, D.18178
	cmpl	$3, %eax	#, D.18178
	sete	%al	#, D.18179
	movzbl	%al, %eax	# D.18179, iftmp.506
	jmp	.L495	#
.L494:
	.loc 1 1245 0 discriminator 2
	call	Perl_dowantarray	#
.L495:
	.loc 1 1245 0 discriminator 3
	movl	%eax, -152(%rbp)	# iftmp.506, gimme
	.loc 1 1247 0 is_stmt 1 discriminator 3
	movl	$0, -168(%rbp)	#, minmatch
	.loc 1 1248 0 discriminator 3
	movl	PL_savestack_ix(%rip), %eax	# PL_savestack_ix, tmp410
	movl	%eax, -148(%rbp)	# tmp410, oldsave
	.loc 1 1249 0 discriminator 3
	movl	$1, -164(%rbp)	#, update_minmatch
	.loc 1 1250 0 discriminator 3
	movl	$0, -160(%rbp)	#, had_zerolen
	.loc 1 1252 0 discriminator 3
	movq	PL_op(%rip), %rax	# PL_op, PL_op.509
	movzbl	36(%rax), %eax	# PL_op.509_63->op_flags, D.18177
	movzbl	%al, %eax	# D.18177, D.18178
	andl	$64, %eax	#, D.18178
	testl	%eax, %eax	# D.18178
	je	.L496	#,
	.loc 1 1253 0
	movq	%r12, %rax	# sp, sp.510
	leaq	-8(%rax), %r12	#, sp
	movq	(%rax), %rax	# *sp.510_67, tmp411
	movq	%rax, -120(%rbp)	# tmp411, targ
	jmp	.L497	#
.L496:
	.loc 1 1255 0
	movq	PL_defgv(%rip), %rax	# PL_defgv, PL_defgv.511
	movq	(%rax), %rax	# PL_defgv.511_70->sv_any, D.18180
	movq	56(%rax), %rax	# _71->xgv_gp, D.18181
	movq	(%rax), %rax	# _72->gp_sv, tmp412
	movq	%rax, -120(%rbp)	# tmp412, targ
	.loc 1 1256 0
	movq	PL_stack_max(%rip), %rax	# PL_stack_max, PL_stack_max.512
	movq	%rax, %rdx	# PL_stack_max.512, PL_stack_max.513
	movq	%r12, %rax	# sp, sp.514
	subq	%rax, %rdx	# sp.514, D.18182
	movq	%rdx, %rax	# D.18182, D.18182
	cmpq	$7, %rax	#, D.18182
	jg	.L497	#,
	.loc 1 1256 0 is_stmt 0 discriminator 1
	movl	$1, %edx	#,
	movq	%r12, %rsi	# sp,
	movq	%r12, %rdi	# sp,
	call	Perl_stack_grow	#
	movq	%rax, %r12	#, sp
.L497:
	.loc 1 1259 0 is_stmt 1
	movq	%r12, PL_stack_sp(%rip)	# sp, PL_stack_sp
	.loc 1 1260 0
	movq	-120(%rbp), %rax	# targ, tmp413
	movl	12(%rax), %eax	# targ_7->sv_flags, D.18183
	andl	$262144, %eax	#, D.18183
	testl	%eax, %eax	# D.18183
	je	.L498	#,
	.loc 1 1260 0 is_stmt 0 discriminator 1
	movq	-120(%rbp), %rax	# targ, tmp414
	movq	(%rax), %rax	# targ_7->sv_any, D.18184
	movq	8(%rax), %rax	# MEM[(struct XPV *)_81].xpv_cur, len.516
	movq	%rax, -128(%rbp)	# len.516, len
	movq	-120(%rbp), %rax	# targ, tmp415
	movq	(%rax), %rax	# targ_7->sv_any, D.18184
	movq	(%rax), %rax	# MEM[(struct XPV *)_83].xpv_pv, iftmp.515
	jmp	.L499	#
.L498:
	.loc 1 1260 0 discriminator 2
	leaq	-128(%rbp), %rcx	#, tmp416
	movq	-120(%rbp), %rax	# targ, tmp417
	movl	$2, %edx	#,
	movq	%rcx, %rsi	# tmp416,
	movq	%rax, %rdi	# tmp417,
	call	Perl_sv_2pv_flags	#
.L499:
	.loc 1 1260 0 discriminator 3
	movq	%rax, %r13	# iftmp.515, s
	.loc 1 1261 0 is_stmt 1 discriminator 3
	movq	-128(%rbp), %rax	# len, len.517
	addq	%r13, %rax	# s, tmp418
	movq	%rax, -88(%rbp)	# tmp418, strend
	.loc 1 1262 0 discriminator 3
	testq	%r13, %r13	# s
	jne	.L500	#,
	.loc 1 1263 0
	movl	$.LC16, %edi	#,
	movl	$0, %eax	#,
	call	Perl_die	#
	jmp	.L573	#
.L500:
	.loc 1 1264 0
	movzbl	96(%r14), %eax	# pm_43->op_pmdynflags, D.18177
	movzbl	%al, %eax	# D.18177, D.18178
	andl	$2, %eax	#, D.18178
	testl	%eax, %eax	# D.18178
	jne	.L502	#,
	.loc 1 1265 0 discriminator 2
	movzbl	PL_tainted(%rip), %eax	# PL_tainted, PL_tainted.519
	.loc 1 1264 0 discriminator 2
	testb	%al, %al	# PL_tainted.519
	je	.L503	#,
	.loc 1 1265 0
	movl	88(%r14), %eax	# pm_43->op_pmflags, D.18183
	andl	$1, %eax	#, D.18183
	testl	%eax, %eax	# D.18183
	je	.L503	#,
.L502:
	.loc 1 1264 0 discriminator 1
	movl	$1, %eax	#, iftmp.518
	jmp	.L504	#
.L503:
	.loc 1 1264 0 is_stmt 0 discriminator 3
	movl	$0, %eax	#, iftmp.518
.L504:
	.loc 1 1264 0 discriminator 4
	movb	%al, -173(%rbp)	# iftmp.518, rxtainted
	.loc 1 1266 0 is_stmt 1 discriminator 4
	movb	$0, PL_tainted(%rip)	#, PL_tainted
	.loc 1 1268 0 discriminator 4
	movq	-120(%rbp), %rax	# targ, tmp419
	movl	12(%rax), %eax	# targ_7->sv_flags, D.18183
	andl	$536870912, %eax	#, D.18183
	testl	%eax, %eax	# D.18183
	je	.L505	#,
	.loc 1 1268 0 is_stmt 0 discriminator 1
	movq	PL_curcop(%rip), %rax	# PL_curcop, PL_curcop.521
	movzbl	37(%rax), %eax	# PL_curcop.521_101->op_private, D.18177
	movzbl	%al, %eax	# D.18177, D.18178
	andl	$8, %eax	#, D.18178
	testl	%eax, %eax	# D.18178
	jne	.L505	#,
	movl	92(%rbx), %eax	# rx_46->reganch, D.18183
	orl	$268435456, %eax	#, D.18183
	movl	%eax, 92(%rbx)	# D.18183, rx_46->reganch
	movb	$1, PL_reg_match_utf8(%rip)	#, PL_reg_match_utf8
	jmp	.L506	#
.L505:
	.loc 1 1268 0 discriminator 2
	movl	92(%rbx), %eax	# rx_46->reganch, D.18183
	andl	$-268435457, %eax	#, D.18183
	movl	%eax, 92(%rbx)	# D.18183, rx_46->reganch
	movb	$0, PL_reg_match_utf8(%rip)	#, PL_reg_match_utf8
.L506:
	.loc 1 1271 0 is_stmt 1
	movzbl	96(%r14), %eax	# pm_43->op_pmdynflags, D.18177
	movzbl	%al, %eax	# D.18177, D.18178
	andl	$1, %eax	#, D.18178
	testl	%eax, %eax	# D.18178
	je	.L507	#,
.L508:
	.loc 1 1273 0
	cmpl	$1, -152(%rbp)	#, gimme
	jne	.L509	#,
	.loc 1 1274 0
	movq	%r12, PL_stack_sp(%rip)	# sp, PL_stack_sp
	movq	PL_op(%rip), %rax	# PL_op, PL_op.522
	movq	(%rax), %rax	# PL_op.522_455->op_next, D.18176
	jmp	.L573	#
.L509:
	.loc 1 1275 0
	addq	$8, %r12	#, sp
	movq	$PL_sv_no, (%r12)	#, *sp_457
	movq	%r12, PL_stack_sp(%rip)	# sp, PL_stack_sp
	movq	PL_op(%rip), %rax	# PL_op, PL_op.523
	movq	(%rax), %rax	# PL_op.523_458->op_next, D.18176
	jmp	.L573	#
.L507:
	.loc 1 1279 0
	movl	76(%rbx), %eax	# rx_46->prelen, D.18178
	testl	%eax, %eax	# D.18178
	jne	.L510	#,
	.loc 1 1279 0 is_stmt 0 discriminator 1
	movq	PL_curpm(%rip), %rax	# PL_curpm, PL_curpm.524
	testq	%rax, %rax	# PL_curpm.524
	je	.L510	#,
	.loc 1 1280 0 is_stmt 1
	movq	PL_curpm(%rip), %r14	# PL_curpm, pm
	.loc 1 1281 0
	movq	80(%r14), %rbx	# pm_116->op_pmregexp, rx
.L510:
	.loc 1 1284 0
	movl	72(%rbx), %edx	# rx_22->minlen, D.18178
	movq	-128(%rbp), %rax	# len, len.525
	cmpl	%eax, %edx	# D.18178, D.18178
	jle	.L511	#,
	.loc 1 1285 0
	jmp	.L508	#
.L511:
	.loc 1 1287 0
	movq	%r13, %r15	# s, t
	movq	%r15, -80(%rbp)	# t, truebase
	.loc 1 1290 0
	movq	-96(%rbp), %rax	# dynpm, tmp420
	movl	88(%rax), %eax	# dynpm_44->op_pmflags, D.18183
	andl	$256, %eax	#, tmp421
	movl	%eax, -144(%rbp)	# tmp421, global
	cmpl	$0, -144(%rbp)	#, global
	je	.L512	#,
	.loc 1 1291 0
	movq	(%rbx), %rax	# rx_22->startp, D.18185
	movl	$-1, (%rax)	#, *_126
	.loc 1 1292 0
	movq	-120(%rbp), %rax	# targ, tmp422
	movl	12(%rax), %eax	# targ_7->sv_flags, D.18183
	movzbl	%al, %eax	# D.18183, D.18183
	cmpl	$6, %eax	#, D.18183
	jbe	.L512	#,
	.loc 1 1292 0 is_stmt 0 discriminator 1
	movq	-120(%rbp), %rax	# targ, tmp423
	movq	(%rax), %rax	# targ_7->sv_any, D.18184
	movq	40(%rax), %rax	# MEM[(struct XPVMG *)_129].xmg_magic, D.18186
	testq	%rax, %rax	# D.18186
	je	.L512	#,
.LBB70:
	.loc 1 1293 0 is_stmt 1
	movq	-120(%rbp), %rax	# targ, tmp424
	movl	$103, %esi	#,
	movq	%rax, %rdi	# tmp424,
	call	Perl_mg_find	#
	movq	%rax, -72(%rbp)	# tmp425, mg
	.loc 1 1294 0
	cmpq	$0, -72(%rbp)	#, mg
	je	.L512	#,
	.loc 1 1294 0 is_stmt 0 discriminator 1
	movq	-72(%rbp), %rax	# mg, tmp426
	movl	40(%rax), %eax	# mg_131->mg_len, D.18178
	testl	%eax, %eax	# D.18178
	js	.L512	#,
	.loc 1 1295 0 is_stmt 1
	movl	92(%rbx), %eax	# rx_22->reganch, D.18183
	andl	$128, %eax	#, D.18183
	testl	%eax, %eax	# D.18183
	jne	.L513	#,
	.loc 1 1296 0
	movq	8(%rbx), %rdx	# rx_22->endp, D.18185
	movq	(%rbx), %rax	# rx_22->startp, D.18185
	movq	-72(%rbp), %rcx	# mg, tmp427
	movl	40(%rcx), %ecx	# mg_131->mg_len, D.18178
	movl	%ecx, (%rax)	# D.18178, *_136
	movl	(%rax), %eax	# *_136, D.18178
	movl	%eax, (%rdx)	# D.18178, *_135
	jmp	.L514	#
.L513:
	.loc 1 1297 0
	movl	92(%rbx), %eax	# rx_22->reganch, D.18183
	andl	$8, %eax	#, D.18183
	testl	%eax, %eax	# D.18183
	je	.L514	#,
	.loc 1 1298 0
	orl	$8, -172(%rbp)	#, r_flags
	.loc 1 1299 0
	movq	8(%rbx), %rdx	# rx_22->endp, D.18185
	movq	(%rbx), %rax	# rx_22->startp, D.18185
	movq	-72(%rbp), %rcx	# mg, tmp428
	movl	40(%rcx), %ecx	# mg_131->mg_len, D.18178
	movl	%ecx, (%rax)	# D.18178, *_143
	movl	(%rax), %eax	# *_143, D.18178
	movl	%eax, (%rdx)	# D.18178, *_142
.L514:
	.loc 1 1301 0
	movq	-72(%rbp), %rax	# mg, tmp429
	movzbl	19(%rax), %eax	# mg_131->mg_flags, D.18177
	movzbl	%al, %eax	# D.18177, D.18178
	andl	$1, %eax	#, tmp430
	movl	%eax, -168(%rbp)	# tmp430, minmatch
	.loc 1 1302 0
	movl	$0, -164(%rbp)	#, update_minmatch
.L512:
.LBE70:
	.loc 1 1306 0
	cmpl	$0, -144(%rbp)	#, global
	jne	.L515	#,
	.loc 1 1306 0 is_stmt 0 discriminator 1
	movl	80(%rbx), %eax	# rx_22->nparens, D.18183
	testl	%eax, %eax	# D.18183
	jne	.L516	#,
.L515:
	.loc 1 1307 0 is_stmt 1
	movq	-120(%rbp), %rax	# targ, tmp431
	movl	12(%rax), %eax	# targ_7->sv_flags, D.18183
	andl	$2048, %eax	#, D.18183
	testl	%eax, %eax	# D.18183
	jne	.L516	#,
	.loc 1 1307 0 is_stmt 0 discriminator 1
	movzbl	PL_sawampersand(%rip), %eax	# PL_sawampersand, PL_sawampersand.526
	testb	%al, %al	# PL_sawampersand.526
	je	.L517	#,
.L516:
	.loc 1 1308 0 is_stmt 1
	orl	$1, -172(%rbp)	#, r_flags
.L517:
	.loc 1 1309 0
	movq	-120(%rbp), %rax	# targ, tmp432
	movl	12(%rax), %eax	# targ_7->sv_flags, D.18183
	andl	$134217728, %eax	#, D.18183
	testl	%eax, %eax	# D.18183
	je	.L518	#,
	.loc 1 1310 0
	orl	$4, -172(%rbp)	#, r_flags
.L518:
	.loc 1 1312 0
	movl	88(%r14), %eax	# pm_8->op_pmflags, D.18183
	andl	$12288, %eax	#, D.18183
	testl	%eax, %eax	# D.18183
	je	.L519	#,
	.loc 1 1313 0
	movl	$PL_multiline, %edi	#,
	call	Perl_save_int	#
	.loc 1 1314 0
	movl	88(%r14), %eax	# pm_8->op_pmflags, D.18183
	andl	$4096, %eax	#, PL_multiline.527
	movl	%eax, PL_multiline(%rip)	# PL_multiline.527, PL_multiline
.L519:
	.loc 1 1318 0
	cmpl	$0, -144(%rbp)	#, global
	je	.L520	#,
	.loc 1 1318 0 is_stmt 0 discriminator 1
	movq	(%rbx), %rax	# rx_22->startp, D.18185
	movl	(%rax), %eax	# *_163, D.18178
	cmpl	$-1, %eax	#, D.18178
	je	.L520	#,
	.loc 1 1319 0 is_stmt 1
	movq	8(%rbx), %rax	# rx_22->endp, D.18185
	movl	(%rax), %eax	# *_165, D.18178
	movslq	%eax, %rdx	# D.18178, D.18187
	movq	-80(%rbp), %rax	# truebase, tmp433
	leaq	(%rdx,%rax), %r13	#, s
	movq	%r13, %r15	# s, t
	.loc 1 1320 0
	movl	72(%rbx), %eax	# rx_22->minlen, D.18178
	cltq
	addq	%r13, %rax	# s, D.18188
	cmpq	-88(%rbp), %rax	# strend, D.18188
	jbe	.L521	#,
	.loc 1 1321 0
	jmp	.L569	#
.L521:
	.loc 1 1322 0
	movl	-164(%rbp), %eax	# update_minmatch, update_minmatch.528
	leal	1(%rax), %edx	#, tmp434
	movl	%edx, -164(%rbp)	# tmp434, update_minmatch
	testl	%eax, %eax	# update_minmatch.528
	je	.L520	#,
	.loc 1 1323 0
	movl	-160(%rbp), %eax	# had_zerolen, tmp435
	movl	%eax, -168(%rbp)	# tmp435, minmatch
.L520:
	.loc 1 1325 0
	movl	92(%rbx), %eax	# rx_22->reganch, D.18183
	andl	$3145728, %eax	#, D.18183
	testl	%eax, %eax	# D.18183
	je	.L523	#,
	.loc 1 1326 0
	movq	-120(%rbp), %rax	# targ, tmp436
	movl	12(%rax), %eax	# targ_7->sv_flags, D.18183
	andl	$536870912, %eax	#, D.18183
	testl	%eax, %eax	# D.18183
	je	.L524	#,
	.loc 1 1326 0 is_stmt 0 discriminator 1
	movq	PL_curcop(%rip), %rax	# PL_curcop, PL_curcop.530
	movzbl	37(%rax), %eax	# PL_curcop.530_180->op_private, D.18177
	movzbl	%al, %eax	# D.18177, D.18178
	andl	$8, %eax	#, D.18178
	testl	%eax, %eax	# D.18178
	jne	.L524	#,
	.loc 1 1326 0 discriminator 3
	movl	$1, %eax	#, iftmp.529
	jmp	.L525	#
.L524:
	.loc 1 1326 0 discriminator 2
	movl	$0, %eax	#, iftmp.529
.L525:
	.loc 1 1326 0 discriminator 4
	andl	$1, %eax	#, D.18179
	xorl	$1, %eax	#, D.18179
	movl	92(%rbx), %edx	# rx_22->reganch, D.18183
	andl	$65536, %edx	#, D.18183
	testl	%edx, %edx	# D.18183
	setne	%dl	#, D.18179
	xorl	%edx, %eax	# D.18179, D.18179
	.loc 1 1325 0 is_stmt 1 discriminator 4
	testb	%al, %al	# D.18179
	je	.L523	#,
	.loc 1 1327 0
	movq	-80(%rbp), %rax	# truebase, tmp437
	movq	%rax, PL_bostr(%rip)	# tmp437, PL_bostr
	.loc 1 1328 0
	movq	PL_regint_start(%rip), %rax	# PL_regint_start, PL_regint_start.531
	movl	-172(%rbp), %ecx	# r_flags, r_flags.532
	movq	-88(%rbp), %rdx	# strend, tmp438
	movq	-120(%rbp), %rsi	# targ, tmp439
	movl	$0, %r9d	#,
	movl	%ecx, %r8d	# r_flags.532,
	movq	%rdx, %rcx	# tmp438,
	movq	%r13, %rdx	# s,
	movq	%rbx, %rdi	# rx,
	call	*%rax	# PL_regint_start.531
	movq	%rax, %r13	#, s
	.loc 1 1330 0
	testq	%r13, %r13	# s
	jne	.L526	#,
	.loc 1 1331 0
	jmp	.L569	#
.L526:
	.loc 1 1332 0
	movl	92(%rbx), %eax	# rx_22->reganch, D.18183
	andl	$256, %eax	#, D.18183
	testl	%eax, %eax	# D.18183
	je	.L523	#,
	.loc 1 1333 0
	movzbl	PL_sawampersand(%rip), %eax	# PL_sawampersand, PL_sawampersand.533
	testb	%al, %al	# PL_sawampersand.533
	jne	.L523	#,
	.loc 1 1334 0
	movl	92(%rbx), %eax	# rx_22->reganch, D.18183
	andl	$64, %eax	#, D.18183
	testl	%eax, %eax	# D.18183
	jne	.L527	#,
	.loc 1 1335 0
	movl	92(%rbx), %eax	# rx_22->reganch, D.18183
	andl	$134217728, %eax	#, D.18183
	testl	%eax, %eax	# D.18183
	je	.L527	#,
	.loc 1 1336 0 discriminator 1
	movl	-172(%rbp), %eax	# r_flags, tmp440
	andl	$4, %eax	#, D.18178
	.loc 1 1335 0 discriminator 1
	testl	%eax, %eax	# D.18178
	jne	.L523	#,
.L527:
	.loc 1 1337 0
	movq	-120(%rbp), %rax	# targ, tmp441
	movl	12(%rax), %eax	# targ_7->sv_flags, D.18183
	andl	$524288, %eax	#, D.18183
	testl	%eax, %eax	# D.18183
	jne	.L523	#,
	.loc 1 1338 0
	nop
.L528:
	.loc 1 1430 0
	cmpb	$0, -173(%rbp)	#, rxtainted
	je	.L559	#,
	jmp	.L574	#
.L523:
	.loc 1 1340 0
	movq	PL_regexecp(%rip), %rax	# PL_regexecp, PL_regexecp.534
	movl	-172(%rbp), %esi	# r_flags, r_flags.535
	movq	-120(%rbp), %r8	# targ, tmp442
	movl	-168(%rbp), %edi	# minmatch, tmp443
	movq	-80(%rbp), %rcx	# truebase, tmp444
	movq	-88(%rbp), %rdx	# strend, tmp445
	movl	%esi, 8(%rsp)	# r_flags.535,
	movq	$0, (%rsp)	#,
	movq	%r8, %r9	# tmp442,
	movl	%edi, %r8d	# tmp443,
	movq	%r13, %rsi	# s,
	movq	%rbx, %rdi	# rx,
	call	*%rax	# PL_regexecp.534
	testl	%eax, %eax	# D.18178
	je	.L529	#,
	.loc 1 1342 0
	movq	%r14, PL_curpm(%rip)	# pm, PL_curpm
	.loc 1 1343 0
	movq	-96(%rbp), %rax	# dynpm, tmp446
	movl	88(%rax), %eax	# dynpm_44->op_pmflags, D.18183
	andl	$2, %eax	#, D.18183
	testl	%eax, %eax	# D.18183
	je	.L530	#,
	.loc 1 1344 0
	movq	-96(%rbp), %rax	# dynpm, tmp447
	movzbl	96(%rax), %eax	# dynpm_44->op_pmdynflags, D.18177
	orl	$1, %eax	#, D.18177
	movl	%eax, %edx	# D.18177, D.18177
	movq	-96(%rbp), %rax	# dynpm, tmp448
	movb	%dl, 96(%rax)	# D.18177, dynpm_44->op_pmdynflags
	.loc 1 1345 0
	jmp	.L531	#
.L530:
	jmp	.L531	#
.L529:
	.loc 1 1348 0
	jmp	.L569	#
.L531:
	.loc 1 1352 0
	cmpb	$0, -173(%rbp)	#, rxtainted
	je	.L532	#,
	.loc 1 1353 0
	movl	92(%rbx), %eax	# rx_22->reganch, D.18183
	orl	$524288, %eax	#, D.18183
	movl	%eax, 92(%rbx)	# D.18183, rx_22->reganch
.L532:
	.loc 1 1354 0
	movl	92(%rbx), %eax	# rx_22->reganch, D.18183
	andl	$524288, %eax	#, D.18183
	testl	%eax, %eax	# D.18183
	je	.L533	#,
	.loc 1 1354 0 is_stmt 0 discriminator 1
	movb	$1, PL_tainted(%rip)	#, PL_tainted
.L533:
	.loc 1 1355 0 is_stmt 1
	cmpl	$1, -152(%rbp)	#, gimme
	jne	.L534	#,
.LBB71:
	.loc 1 1358 0
	movl	80(%rbx), %eax	# rx_22->nparens, D.18183
	movl	%eax, -136(%rbp)	# D.18183, nparens
	.loc 1 1359 0
	cmpl	$0, -144(%rbp)	#, global
	je	.L535	#,
	.loc 1 1359 0 is_stmt 0 discriminator 1
	cmpl	$0, -136(%rbp)	#, nparens
	jne	.L535	#,
	.loc 1 1360 0 is_stmt 1
	movl	$1, -156(%rbp)	#, i
	jmp	.L536	#
.L535:
	.loc 1 1362 0
	movl	$0, -156(%rbp)	#, i
.L536:
	.loc 1 1363 0
	movq	PL_stack_sp(%rip), %r12	# PL_stack_sp, sp
	.loc 1 1364 0
	movq	PL_stack_max(%rip), %rax	# PL_stack_max, PL_stack_max.536
	movq	%rax, %rdx	# PL_stack_max.536, PL_stack_max.537
	movq	%r12, %rax	# sp, sp.538
	subq	%rax, %rdx	# sp.538, D.18182
	movq	%rdx, %rax	# D.18182, D.18182
	sarq	$3, %rax	#, tmp449
	movq	%rax, %rdx	# tmp449, D.18182
	movl	-156(%rbp), %eax	# i, tmp450
	movl	-136(%rbp), %ecx	# nparens, tmp451
	addl	%ecx, %eax	# tmp451, D.18178
	cltq
	cmpq	%rax, %rdx	# D.18182, D.18182
	jge	.L537	#,
	.loc 1 1364 0 is_stmt 0 discriminator 1
	movl	-156(%rbp), %eax	# i, tmp452
	movl	-136(%rbp), %edx	# nparens, tmp453
	addl	%edx, %eax	# tmp453, D.18178
	movl	%eax, %edx	# D.18178,
	movq	%r12, %rsi	# sp,
	movq	%r12, %rdi	# sp,
	call	Perl_stack_grow	#
	movq	%rax, %r12	#, sp
.L537:
	.loc 1 1365 0 is_stmt 1
	movl	-156(%rbp), %eax	# i, tmp454
	movl	-136(%rbp), %edx	# nparens, tmp455
	addl	%eax, %edx	# tmp454, D.18178
	movl	PL_tmps_ix(%rip), %eax	# PL_tmps_ix, PL_tmps_ix.539
	addl	%eax, %edx	# PL_tmps_ix.539, D.18178
	movl	PL_tmps_max(%rip), %eax	# PL_tmps_max, PL_tmps_max.540
	cmpl	%eax, %edx	# PL_tmps_max.540, D.18178
	jl	.L538	#,
	.loc 1 1365 0 is_stmt 0 discriminator 1
	movl	-156(%rbp), %eax	# i, tmp456
	movl	-136(%rbp), %edx	# nparens, tmp457
	addl	%edx, %eax	# tmp457, D.18178
	movl	%eax, %edi	# D.18178,
	call	Perl_tmps_grow	#
.L538:
	.loc 1 1366 0 is_stmt 1
	cmpl	$0, -156(%rbp)	#, i
	sete	%al	#, D.18179
	movzbl	%al, %eax	# D.18179, tmp458
	movl	%eax, -156(%rbp)	# tmp458, i
	jmp	.L539	#
.L543:
	.loc 1 1367 0
	addq	$8, %r12	#, sp
	call	Perl_sv_newmortal	#
	movq	%rax, (%r12)	# D.18190, *sp_318
	.loc 1 1369 0
	movq	(%rbx), %rax	# rx_22->startp, D.18185
	movl	-156(%rbp), %edx	# i, tmp459
	movslq	%edx, %rdx	# tmp459, D.18191
	salq	$2, %rdx	#, D.18191
	addq	%rdx, %rax	# D.18191, D.18185
	movl	(%rax), %eax	# *_323, D.18178
	cmpl	$-1, %eax	#, D.18178
	je	.L540	#,
	.loc 1 1369 0 is_stmt 0 discriminator 1
	movq	8(%rbx), %rax	# rx_22->endp, D.18185
	movl	-156(%rbp), %edx	# i, tmp460
	movslq	%edx, %rdx	# tmp460, D.18191
	salq	$2, %rdx	#, D.18191
	addq	%rdx, %rax	# D.18191, D.18185
	movl	(%rax), %eax	# *_328, D.18178
	cmpl	$-1, %eax	#, D.18178
	je	.L540	#,
	.loc 1 1370 0 is_stmt 1
	movq	8(%rbx), %rax	# rx_22->endp, D.18185
	movl	-156(%rbp), %edx	# i, tmp461
	movslq	%edx, %rdx	# tmp461, D.18191
	salq	$2, %rdx	#, D.18191
	addq	%rdx, %rax	# D.18191, D.18185
	movl	(%rax), %edx	# *_333, D.18178
	movq	(%rbx), %rax	# rx_22->startp, D.18185
	movl	-156(%rbp), %ecx	# i, tmp462
	movslq	%ecx, %rcx	# tmp462, D.18191
	salq	$2, %rcx	#, D.18191
	addq	%rcx, %rax	# D.18191, D.18185
	movl	(%rax), %eax	# *_338, D.18178
	subl	%eax, %edx	# D.18178, tmp463
	movl	%edx, %eax	# tmp463, tmp463
	movl	%eax, -132(%rbp)	# tmp463, len
	.loc 1 1371 0
	movq	(%rbx), %rax	# rx_22->startp, D.18185
	movl	-156(%rbp), %edx	# i, tmp464
	movslq	%edx, %rdx	# tmp464, D.18191
	salq	$2, %rdx	#, D.18191
	addq	%rdx, %rax	# D.18191, D.18185
	movl	(%rax), %eax	# *_344, D.18178
	movslq	%eax, %rdx	# D.18178, D.18187
	movq	-80(%rbp), %rax	# truebase, tmp465
	leaq	(%rdx,%rax), %r13	#, s
	.loc 1 1372 0
	movq	8(%rbx), %rax	# rx_22->endp, D.18185
	movl	-156(%rbp), %edx	# i, tmp466
	movslq	%edx, %rdx	# tmp466, D.18191
	salq	$2, %rdx	#, D.18191
	addq	%rdx, %rax	# D.18191, D.18185
	movl	(%rax), %eax	# *_351, D.18178
	testl	%eax, %eax	# D.18178
	js	.L541	#,
	.loc 1 1372 0 is_stmt 0 discriminator 1
	movq	(%rbx), %rax	# rx_22->startp, D.18185
	movl	-156(%rbp), %edx	# i, tmp467
	movslq	%edx, %rdx	# tmp467, D.18191
	salq	$2, %rdx	#, D.18191
	addq	%rdx, %rax	# D.18191, D.18185
	movl	(%rax), %eax	# *_356, D.18178
	testl	%eax, %eax	# D.18178
	js	.L541	#,
	cmpl	$0, -132(%rbp)	#, len
	js	.L541	#,
	.loc 1 1373 0 is_stmt 1
	movl	-132(%rbp), %eax	# len, tmp468
	cltq
	movq	-88(%rbp), %rcx	# strend, strend.541
	movq	%r13, %rdx	# s, s.542
	subq	%rdx, %rcx	# s.542, D.18182
	movq	%rcx, %rdx	# D.18182, D.18182
	cmpq	%rdx, %rax	# D.18182, D.18182
	jle	.L542	#,
.L541:
	.loc 1 1374 0
	movl	$.LC17, %edi	#,
	movl	$0, %eax	#,
	call	Perl_die	#
	jmp	.L573	#
.L542:
	.loc 1 1375 0
	movl	-132(%rbp), %eax	# len, tmp469
	movslq	%eax, %rdx	# tmp469, D.18191
	movq	(%r12), %rax	# *sp_318, D.18190
	movq	%r13, %rsi	# s,
	movq	%rax, %rdi	# D.18190,
	call	Perl_sv_setpvn	#
	.loc 1 1376 0
	movq	-120(%rbp), %rax	# targ, tmp470
	movl	12(%rax), %eax	# targ_7->sv_flags, D.18183
	andl	$536870912, %eax	#, D.18183
	testl	%eax, %eax	# D.18183
	je	.L540	#,
	.loc 1 1376 0 is_stmt 0 discriminator 1
	movq	PL_curcop(%rip), %rax	# PL_curcop, PL_curcop.543
	movzbl	37(%rax), %eax	# PL_curcop.543_366->op_private, D.18177
	movzbl	%al, %eax	# D.18177, D.18178
	andl	$8, %eax	#, D.18178
	testl	%eax, %eax	# D.18178
	jne	.L540	#,
	movl	-132(%rbp), %eax	# len, tmp471
	cltq
	movq	%rax, %rsi	# D.18191,
	movq	%r13, %rdi	# s,
	call	Perl_is_utf8_string	#
	testb	%al, %al	# D.18192
	je	.L540	#,
	.loc 1 1377 0 is_stmt 1
	movq	(%r12), %rax	# *sp_318, D.18190
	movq	(%r12), %rdx	# *sp_318, D.18190
	movl	12(%rdx), %edx	# _373->sv_flags, D.18183
	orl	$536870912, %edx	#, D.18183
	movl	%edx, 12(%rax)	# D.18183, _372->sv_flags
.L540:
	.loc 1 1366 0
	addl	$1, -156(%rbp)	#, i
.L539:
	.loc 1 1366 0 is_stmt 0 discriminator 1
	movl	-156(%rbp), %eax	# i, tmp472
	cmpl	-136(%rbp), %eax	# nparens, tmp472
	jle	.L543	#,
	.loc 1 1380 0 is_stmt 1
	cmpl	$0, -144(%rbp)	#, global
	je	.L544	#,
	.loc 1 1381 0
	movq	-96(%rbp), %rax	# dynpm, tmp473
	movl	88(%rax), %eax	# dynpm_44->op_pmflags, D.18183
	andl	$512, %eax	#, D.18183
	testl	%eax, %eax	# D.18183
	je	.L545	#,
.LBB72:
	.loc 1 1382 0
	movq	$0, -112(%rbp)	#, mg
	.loc 1 1383 0
	movq	-120(%rbp), %rax	# targ, tmp474
	movl	12(%rax), %eax	# targ_7->sv_flags, D.18183
	movzbl	%al, %eax	# D.18183, D.18183
	cmpl	$6, %eax	#, D.18183
	jbe	.L546	#,
	.loc 1 1383 0 is_stmt 0 discriminator 1
	movq	-120(%rbp), %rax	# targ, tmp475
	movq	(%rax), %rax	# targ_7->sv_any, D.18184
	movq	40(%rax), %rax	# MEM[(struct XPVMG *)_383].xmg_magic, D.18186
	testq	%rax, %rax	# D.18186
	je	.L546	#,
	.loc 1 1384 0 is_stmt 1
	movq	-120(%rbp), %rax	# targ, tmp476
	movl	$103, %esi	#,
	movq	%rax, %rdi	# tmp476,
	call	Perl_mg_find	#
	movq	%rax, -112(%rbp)	# tmp477, mg
.L546:
	.loc 1 1385 0
	cmpq	$0, -112(%rbp)	#, mg
	jne	.L547	#,
	.loc 1 1386 0
	movq	-120(%rbp), %rax	# targ, tmp478
	movl	$0, %r8d	#,
	movl	$0, %ecx	#,
	movl	$103, %edx	#,
	movl	$0, %esi	#,
	movq	%rax, %rdi	# tmp478,
	call	Perl_sv_magic	#
	.loc 1 1387 0
	movq	-120(%rbp), %rax	# targ, tmp479
	movl	$103, %esi	#,
	movq	%rax, %rdi	# tmp479,
	call	Perl_mg_find	#
	movq	%rax, -112(%rbp)	# tmp480, mg
.L547:
	.loc 1 1389 0
	movq	(%rbx), %rax	# rx_22->startp, D.18185
	movl	(%rax), %eax	# *_387, D.18178
	cmpl	$-1, %eax	#, D.18178
	je	.L545	#,
	.loc 1 1390 0
	movq	8(%rbx), %rax	# rx_22->endp, D.18185
	movl	(%rax), %edx	# *_389, D.18178
	movq	-112(%rbp), %rax	# mg, tmp481
	movl	%edx, 40(%rax)	# D.18178, mg_33->mg_len
	.loc 1 1391 0
	movq	(%rbx), %rax	# rx_22->startp, D.18185
	movl	(%rax), %edx	# *_391, D.18178
	movq	8(%rbx), %rax	# rx_22->endp, D.18185
	movl	(%rax), %eax	# *_393, D.18178
	cmpl	%eax, %edx	# D.18178, D.18178
	jne	.L548	#,
	.loc 1 1392 0
	movq	-112(%rbp), %rax	# mg, tmp482
	movzbl	19(%rax), %eax	# mg_33->mg_flags, D.18177
	orl	$1, %eax	#, D.18177
	movl	%eax, %edx	# D.18177, D.18177
	movq	-112(%rbp), %rax	# mg, tmp483
	movb	%dl, 19(%rax)	# D.18177, mg_33->mg_flags
	jmp	.L545	#
.L548:
	.loc 1 1394 0
	movq	-112(%rbp), %rax	# mg, tmp484
	movzbl	19(%rax), %eax	# mg_33->mg_flags, D.18177
	andl	$-2, %eax	#, D.18177
	movl	%eax, %edx	# D.18177, D.18177
	movq	-112(%rbp), %rax	# mg, tmp485
	movb	%dl, 19(%rax)	# D.18177, mg_33->mg_flags
.L545:
.LBE72:
	.loc 1 1397 0
	movq	(%rbx), %rax	# rx_22->startp, D.18185
	movl	(%rax), %eax	# *_399, D.18178
	.loc 1 1398 0
	cmpl	$-1, %eax	#, D.18178
	je	.L549	#,
	.loc 1 1398 0 is_stmt 0 discriminator 1
	movq	(%rbx), %rax	# rx_22->startp, D.18185
	movl	(%rax), %edx	# *_401, D.18178
	movq	8(%rbx), %rax	# rx_22->endp, D.18185
	movl	(%rax), %eax	# *_403, D.18178
	cmpl	%eax, %edx	# D.18178, D.18178
	jne	.L549	#,
	.loc 1 1398 0 discriminator 3
	movl	$1, %eax	#, iftmp.544
	jmp	.L550	#
.L549:
	.loc 1 1398 0 discriminator 2
	movl	$0, %eax	#, iftmp.544
.L550:
	.loc 1 1397 0 is_stmt 1
	movl	%eax, -160(%rbp)	# iftmp.544, had_zerolen
	.loc 1 1399 0
	movq	%r12, PL_stack_sp(%rip)	# sp, PL_stack_sp
	.loc 1 1400 0
	orl	$24, -172(%rbp)	#, r_flags
	.loc 1 1401 0
	jmp	.L519	#
.L544:
	.loc 1 1403 0
	cmpl	$0, -136(%rbp)	#, nparens
	jne	.L551	#,
.LBB73:
	.loc 1 1404 0
	movq	PL_stack_max(%rip), %rax	# PL_stack_max, PL_stack_max.545
	movq	%rax, %rdx	# PL_stack_max.545, PL_stack_max.546
	movq	%r12, %rax	# sp, sp.547
	subq	%rax, %rdx	# sp.547, D.18182
	movq	%rdx, %rax	# D.18182, D.18182
	cmpq	$7, %rax	#, D.18182
	jg	.L552	#,
	.loc 1 1404 0 is_stmt 0 discriminator 1
	movl	$1, %edx	#,
	movq	%r12, %rsi	# sp,
	movq	%r12, %rdi	# sp,
	call	Perl_stack_grow	#
	movq	%rax, %r12	#, sp
.L552:
	.loc 1 1404 0 discriminator 2
	addq	$8, %r12	#, sp
	movq	$PL_sv_yes, (%r12)	#, *sp_414
.L551:
.LBE73:
	.loc 1 1405 0 is_stmt 1
	movl	PL_savestack_ix(%rip), %eax	# PL_savestack_ix, PL_savestack_ix.548
	cmpl	-148(%rbp), %eax	# oldsave, PL_savestack_ix.548
	jle	.L553	#,
	.loc 1 1405 0 is_stmt 0 discriminator 1
	movl	-148(%rbp), %eax	# oldsave, tmp486
	movl	%eax, %edi	# tmp486,
	call	Perl_leave_scope	#
.L553:
	.loc 1 1406 0 is_stmt 1
	movq	%r12, PL_stack_sp(%rip)	# sp, PL_stack_sp
	movq	PL_op(%rip), %rax	# PL_op, PL_op.549
	movq	(%rax), %rax	# PL_op.549_417->op_next, D.18176
	jmp	.L573	#
.L534:
.LBE71:
	.loc 1 1409 0
	cmpl	$0, -144(%rbp)	#, global
	je	.L554	#,
.LBB74:
	.loc 1 1410 0
	movq	$0, -104(%rbp)	#, mg
	.loc 1 1411 0
	movq	-120(%rbp), %rax	# targ, tmp487
	movl	12(%rax), %eax	# targ_7->sv_flags, D.18183
	movzbl	%al, %eax	# D.18183, D.18183
	cmpl	$6, %eax	#, D.18183
	jbe	.L555	#,
	.loc 1 1411 0 is_stmt 0 discriminator 1
	movq	-120(%rbp), %rax	# targ, tmp488
	movq	(%rax), %rax	# targ_7->sv_any, D.18184
	movq	40(%rax), %rax	# MEM[(struct XPVMG *)_422].xmg_magic, D.18186
	testq	%rax, %rax	# D.18186
	je	.L555	#,
	.loc 1 1412 0 is_stmt 1
	movq	-120(%rbp), %rax	# targ, tmp489
	movl	$103, %esi	#,
	movq	%rax, %rdi	# tmp489,
	call	Perl_mg_find	#
	movq	%rax, -104(%rbp)	# tmp490, mg
.L555:
	.loc 1 1413 0
	cmpq	$0, -104(%rbp)	#, mg
	jne	.L556	#,
	.loc 1 1414 0
	movq	-120(%rbp), %rax	# targ, tmp491
	movl	$0, %r8d	#,
	movl	$0, %ecx	#,
	movl	$103, %edx	#,
	movl	$0, %esi	#,
	movq	%rax, %rdi	# tmp491,
	call	Perl_sv_magic	#
	.loc 1 1415 0
	movq	-120(%rbp), %rax	# targ, tmp492
	movl	$103, %esi	#,
	movq	%rax, %rdi	# tmp492,
	call	Perl_mg_find	#
	movq	%rax, -104(%rbp)	# tmp493, mg
.L556:
	.loc 1 1417 0
	movq	(%rbx), %rax	# rx_22->startp, D.18185
	movl	(%rax), %eax	# *_426, D.18178
	cmpl	$-1, %eax	#, D.18178
	je	.L554	#,
	.loc 1 1418 0
	movq	8(%rbx), %rax	# rx_22->endp, D.18185
	movl	(%rax), %edx	# *_428, D.18178
	movq	-104(%rbp), %rax	# mg, tmp494
	movl	%edx, 40(%rax)	# D.18178, mg_35->mg_len
	.loc 1 1419 0
	movq	(%rbx), %rax	# rx_22->startp, D.18185
	movl	(%rax), %edx	# *_430, D.18178
	movq	8(%rbx), %rax	# rx_22->endp, D.18185
	movl	(%rax), %eax	# *_432, D.18178
	cmpl	%eax, %edx	# D.18178, D.18178
	jne	.L557	#,
	.loc 1 1420 0
	movq	-104(%rbp), %rax	# mg, tmp495
	movzbl	19(%rax), %eax	# mg_35->mg_flags, D.18177
	orl	$1, %eax	#, D.18177
	movl	%eax, %edx	# D.18177, D.18177
	movq	-104(%rbp), %rax	# mg, tmp496
	movb	%dl, 19(%rax)	# D.18177, mg_35->mg_flags
	jmp	.L554	#
.L557:
	.loc 1 1422 0
	movq	-104(%rbp), %rax	# mg, tmp497
	movzbl	19(%rax), %eax	# mg_35->mg_flags, D.18177
	andl	$-2, %eax	#, D.18177
	movl	%eax, %edx	# D.18177, D.18177
	movq	-104(%rbp), %rax	# mg, tmp498
	movb	%dl, 19(%rax)	# D.18177, mg_35->mg_flags
.L554:
.LBE74:
	.loc 1 1425 0
	movl	PL_savestack_ix(%rip), %eax	# PL_savestack_ix, PL_savestack_ix.550
	cmpl	-148(%rbp), %eax	# oldsave, PL_savestack_ix.550
	jle	.L558	#,
	.loc 1 1425 0 is_stmt 0 discriminator 1
	movl	-148(%rbp), %eax	# oldsave, tmp499
	movl	%eax, %edi	# tmp499,
	call	Perl_leave_scope	#
.L558:
	.loc 1 1426 0 is_stmt 1
	addq	$8, %r12	#, sp
	movq	$PL_sv_yes, (%r12)	#, *sp_439
	movq	%r12, PL_stack_sp(%rip)	# sp, PL_stack_sp
	movq	PL_op(%rip), %rax	# PL_op, PL_op.551
	movq	(%rax), %rax	# PL_op.551_440->op_next, D.18176
	jmp	.L573	#
.L574:
	.loc 1 1431 0
	movl	92(%rbx), %eax	# rx_22->reganch, D.18183
	orl	$524288, %eax	#, D.18183
	movl	%eax, 92(%rbx)	# D.18183, rx_22->reganch
.L559:
	.loc 1 1432 0
	movl	92(%rbx), %eax	# rx_22->reganch, D.18183
	andl	$524288, %eax	#, D.18183
	testl	%eax, %eax	# D.18183
	je	.L560	#,
	.loc 1 1432 0 is_stmt 0 discriminator 1
	movb	$1, PL_tainted(%rip)	#, PL_tainted
.L560:
	.loc 1 1433 0 is_stmt 1
	movq	%r14, PL_curpm(%rip)	# pm, PL_curpm
	.loc 1 1434 0
	movq	-96(%rbp), %rax	# dynpm, tmp500
	movl	88(%rax), %eax	# dynpm_44->op_pmflags, D.18183
	andl	$2, %eax	#, D.18183
	testl	%eax, %eax	# D.18183
	je	.L561	#,
	.loc 1 1435 0
	movq	-96(%rbp), %rax	# dynpm, tmp501
	movzbl	96(%rax), %eax	# dynpm_44->op_pmdynflags, D.18177
	orl	$1, %eax	#, D.18177
	movl	%eax, %edx	# D.18177, D.18177
	movq	-96(%rbp), %rax	# dynpm, tmp502
	movb	%dl, 96(%rax)	# D.18177, dynpm_44->op_pmdynflags
.L561:
	.loc 1 1436 0
	movl	92(%rbx), %eax	# rx_22->reganch, D.18183
	andl	$262144, %eax	#, D.18183
	testl	%eax, %eax	# D.18183
	je	.L562	#,
	.loc 1 1437 0
	movq	48(%rbx), %rax	# rx_22->subbeg, D.18188
	movq	%rax, %rdi	# D.18188,
	call	Perl_safesysfree	#
.L562:
	.loc 1 1438 0
	movl	92(%rbx), %eax	# rx_22->reganch, D.18183
	andl	$-262145, %eax	#, D.18183
	movl	%eax, 92(%rbx)	# D.18183, rx_22->reganch
	.loc 1 1439 0
	movq	$0, 48(%rbx)	#, rx_22->subbeg
	.loc 1 1440 0
	cmpl	$0, -144(%rbp)	#, global
	je	.L563	#,
	.loc 1 1441 0
	movq	-80(%rbp), %rax	# truebase, tmp503
	movq	%rax, 48(%rbx)	# tmp503, rx_22->subbeg
	.loc 1 1442 0
	movq	(%rbx), %rax	# rx_22->startp, D.18185
	movq	%r13, %rcx	# s, s.552
	movq	-80(%rbp), %rdx	# truebase, truebase.553
	subq	%rdx, %rcx	# truebase.553, D.18182
	movq	%rcx, %rdx	# D.18182, D.18182
	movl	%edx, (%rax)	# D.18178, *_218
	.loc 1 1443 0
	movl	92(%rbx), %eax	# rx_22->reganch, D.18183
	andl	$268435456, %eax	#, D.18183
	testl	%eax, %eax	# D.18183
	je	.L564	#,
.LBB75:
	.loc 1 1444 0
	movl	72(%rbx), %eax	# rx_22->minlen, D.18178
	movl	%eax, %esi	# D.18178,
	movq	%r13, %rdi	# s,
	call	Perl_utf8_hop	#
	movq	%rax, -64(%rbp)	# tmp504, t
	.loc 1 1445 0
	movq	8(%rbx), %rax	# rx_22->endp, D.18185
	movq	-64(%rbp), %rcx	# t, t.554
	movq	-80(%rbp), %rdx	# truebase, truebase.555
	subq	%rdx, %rcx	# truebase.555, D.18182
	movq	%rcx, %rdx	# D.18182, D.18182
	movl	%edx, (%rax)	# D.18178, *_227
.LBE75:
	jmp	.L565	#
.L564:
	.loc 1 1448 0
	movq	8(%rbx), %rax	# rx_22->endp, D.18185
	movq	%r13, %rcx	# s, s.556
	movq	-80(%rbp), %rdx	# truebase, truebase.557
	subq	%rdx, %rcx	# truebase.557, D.18182
	movq	%rcx, %rdx	# D.18182, D.18182
	movl	%edx, %ecx	# D.18182, D.18189
	movl	72(%rbx), %edx	# rx_22->minlen, D.18178
	addl	%ecx, %edx	# D.18189, D.18189
	movl	%edx, (%rax)	# D.18178, *_232
.L565:
	.loc 1 1450 0
	movq	-88(%rbp), %rdx	# strend, strend.558
	movq	-80(%rbp), %rax	# truebase, truebase.559
	subq	%rax, %rdx	# truebase.559, D.18182
	movq	%rdx, %rax	# D.18182, D.18182
	movl	%eax, 64(%rbx)	# D.18178, rx_22->sublen
	.loc 1 1451 0
	jmp	.L531	#
.L563:
	.loc 1 1453 0
	movzbl	PL_sawampersand(%rip), %eax	# PL_sawampersand, PL_sawampersand.560
	testb	%al, %al	# PL_sawampersand.560
	je	.L566	#,
.LBB76:
	.loc 1 1456 0
	movq	-88(%rbp), %rdx	# strend, strend.561
	movq	%r15, %rax	# t, t.562
	subq	%rax, %rdx	# t.562, D.18182
	movq	%rdx, %rax	# D.18182, D.18182
	movl	%eax, %esi	# D.18178,
	movq	%r15, %rdi	# t,
	call	Perl_savepvn	#
	movq	%rax, 48(%rbx)	# D.18188, rx_22->subbeg
	.loc 1 1457 0
	movq	-88(%rbp), %rdx	# strend, strend.563
	movq	%r15, %rax	# t, t.564
	subq	%rax, %rdx	# t.564, D.18182
	movq	%rdx, %rax	# D.18182, D.18182
	movl	%eax, 64(%rbx)	# D.18178, rx_22->sublen
	.loc 1 1458 0
	movl	92(%rbx), %eax	# rx_22->reganch, D.18183
	orl	$262144, %eax	#, D.18183
	movl	%eax, 92(%rbx)	# D.18183, rx_22->reganch
	.loc 1 1459 0
	movq	(%rbx), %rax	# rx_22->startp, D.18185
	movq	%r13, %rcx	# s, s.565
	movq	%r15, %rdx	# t, t.566
	subq	%rdx, %rcx	# t.566, D.18182
	movq	%rcx, %rdx	# D.18182, D.18182
	movl	%edx, (%rax)	# D.18178, *_257
	movl	(%rax), %eax	# *_257, tmp505
	movl	%eax, -140(%rbp)	# tmp505, off
	.loc 1 1460 0
	movq	8(%rbx), %rax	# rx_22->endp, D.18185
	movl	72(%rbx), %ecx	# rx_22->minlen, D.18178
	movl	-140(%rbp), %edx	# off, tmp506
	addl	%ecx, %edx	# D.18178, D.18178
	movl	%edx, (%rax)	# D.18178, *_263
.LBE76:
	jmp	.L567	#
.L566:
	.loc 1 1463 0
	movq	(%rbx), %rax	# rx_22->startp, D.18185
	movq	%r13, %rcx	# s, s.567
	movq	-80(%rbp), %rdx	# truebase, truebase.568
	subq	%rdx, %rcx	# truebase.568, D.18182
	movq	%rcx, %rdx	# D.18182, D.18182
	movl	%edx, (%rax)	# D.18178, *_266
	.loc 1 1464 0
	movq	8(%rbx), %rax	# rx_22->endp, D.18185
	movq	%r13, %rcx	# s, s.569
	movq	-80(%rbp), %rdx	# truebase, truebase.570
	subq	%rdx, %rcx	# truebase.570, D.18182
	movq	%rcx, %rdx	# D.18182, D.18182
	movl	%edx, %ecx	# D.18182, D.18189
	movl	72(%rbx), %edx	# rx_22->minlen, D.18178
	addl	%ecx, %edx	# D.18189, D.18189
	movl	%edx, (%rax)	# D.18178, *_271
.L567:
	.loc 1 1466 0
	movl	$0, 88(%rbx)	#, rx_22->lastcloseparen
	movl	88(%rbx), %eax	# rx_22->lastcloseparen, D.18183
	movl	%eax, 84(%rbx)	# D.18183, rx_22->lastparen
	movl	84(%rbx), %eax	# rx_22->lastparen, D.18183
	movl	%eax, 80(%rbx)	# D.18183, rx_22->nparens
	.loc 1 1467 0
	movl	PL_savestack_ix(%rip), %eax	# PL_savestack_ix, PL_savestack_ix.571
	cmpl	-148(%rbp), %eax	# oldsave, PL_savestack_ix.571
	jle	.L568	#,
	.loc 1 1467 0 is_stmt 0 discriminator 1
	movl	-148(%rbp), %eax	# oldsave, tmp507
	movl	%eax, %edi	# tmp507,
	call	Perl_leave_scope	#
.L568:
	.loc 1 1468 0 is_stmt 1
	addq	$8, %r12	#, sp
	movq	$PL_sv_yes, (%r12)	#, *sp_283
	movq	%r12, PL_stack_sp(%rip)	# sp, PL_stack_sp
	movq	PL_op(%rip), %rax	# PL_op, PL_op.572
	movq	(%rax), %rax	# PL_op.572_284->op_next, D.18176
	jmp	.L573	#
.L522:
.L569:
	.loc 1 1472 0
	cmpl	$0, -144(%rbp)	#, global
	je	.L570	#,
	.loc 1 1472 0 is_stmt 0 discriminator 1
	movq	-96(%rbp), %rax	# dynpm, tmp508
	movl	88(%rax), %eax	# dynpm_44->op_pmflags, D.18183
	andl	$512, %eax	#, D.18183
	testl	%eax, %eax	# D.18183
	jne	.L570	#,
	.loc 1 1473 0 is_stmt 1
	movq	-120(%rbp), %rax	# targ, tmp509
	movl	12(%rax), %eax	# targ_7->sv_flags, D.18183
	movzbl	%al, %eax	# D.18183, D.18183
	cmpl	$6, %eax	#, D.18183
	jbe	.L570	#,
	.loc 1 1473 0 is_stmt 0 discriminator 1
	movq	-120(%rbp), %rax	# targ, tmp510
	movq	(%rax), %rax	# targ_7->sv_any, D.18184
	movq	40(%rax), %rax	# MEM[(struct XPVMG *)_446].xmg_magic, D.18186
	testq	%rax, %rax	# D.18186
	je	.L570	#,
.LBB77:
	.loc 1 1474 0 is_stmt 1
	movq	-120(%rbp), %rax	# targ, tmp511
	movl	$103, %esi	#,
	movq	%rax, %rdi	# tmp511,
	call	Perl_mg_find	#
	movq	%rax, -56(%rbp)	# tmp512, mg
	.loc 1 1475 0
	cmpq	$0, -56(%rbp)	#, mg
	je	.L570	#,
	.loc 1 1476 0
	movq	-56(%rbp), %rax	# mg, tmp513
	movl	$-1, 40(%rax)	#, mg_448->mg_len
.L570:
.LBE77:
	.loc 1 1479 0
	movl	PL_savestack_ix(%rip), %eax	# PL_savestack_ix, PL_savestack_ix.573
	cmpl	-148(%rbp), %eax	# oldsave, PL_savestack_ix.573
	jle	.L571	#,
	.loc 1 1479 0 is_stmt 0 discriminator 1
	movl	-148(%rbp), %eax	# oldsave, tmp514
	movl	%eax, %edi	# tmp514,
	call	Perl_leave_scope	#
.L571:
	.loc 1 1480 0 is_stmt 1
	cmpl	$1, -152(%rbp)	#, gimme
	jne	.L572	#,
	.loc 1 1481 0
	movq	%r12, PL_stack_sp(%rip)	# sp, PL_stack_sp
	movq	PL_op(%rip), %rax	# PL_op, PL_op.574
	movq	(%rax), %rax	# PL_op.574_450->op_next, D.18176
	jmp	.L573	#
.L572:
	.loc 1 1482 0
	addq	$8, %r12	#, sp
	movq	$PL_sv_no, (%r12)	#, *sp_452
	movq	%r12, PL_stack_sp(%rip)	# sp, PL_stack_sp
	movq	PL_op(%rip), %rax	# PL_op, PL_op.575
	movq	(%rax), %rax	# PL_op.575_453->op_next, D.18176
.L573:
	.loc 1 1483 0
	addq	$152, %rsp	#,
	popq	%rbx	#
	popq	%r12	#
	popq	%r13	#
	popq	%r14	#
	popq	%r15	#
	popq	%rbp	#
	.cfi_def_cfa 7, 8
	ret
	.cfi_endproc
.LFE31:
	.size	Perl_pp_match, .-Perl_pp_match
	.section	.rodata
.LC18:
	.string	"READLINE"
.LC19:
	.string	"-"
	.align 8
.LC20:
	.string	"glob failed (can't start child: %s)"
.LC21:
	.string	", core dumped"
	.align 8
.LC22:
	.string	"glob failed (child exited with status %d%s)"
.LC23:
	.string	"$&*(){}[]'\";\\|?<>~`"
	.align 8
.LC24:
	.string	"utf8 \"\\x%02X\" does not map to Unicode"
	.text
	.globl	Perl_do_readline
	.type	Perl_do_readline, @function
Perl_do_readline:
.LFB32:
	.loc 1 1487 0
	.cfi_startproc
	pushq	%rbp	#
	.cfi_def_cfa_offset 16
	.cfi_offset 6, -16
	movq	%rsp, %rbp	#,
	.cfi_def_cfa_register 6
	pushq	%r15	#
	pushq	%r14	#
	pushq	%r13	#
	pushq	%r12	#
	pushq	%rbx	#
	subq	$120, %rsp	#,
	.cfi_offset 15, -24
	.cfi_offset 14, -32
	.cfi_offset 13, -40
	.cfi_offset 12, -48
	.cfi_offset 3, -56
	.loc 1 1488 0
	movq	PL_stack_sp(%rip), %r12	# PL_stack_sp, sp
	movq	PL_op(%rip), %rax	# PL_op, PL_op.577
	movzbl	36(%rax), %eax	# PL_op.577_35->op_flags, D.18196
	movzbl	%al, %eax	# D.18196, D.18197
	andl	$64, %eax	#, D.18197
	testl	%eax, %eax	# D.18197
	je	.L576	#,
	.loc 1 1488 0 is_stmt 0 discriminator 1
	movq	%r12, %rax	# sp, sp.578
	leaq	-8(%rax), %r12	#, sp
	movq	(%rax), %rax	# *sp.578_39, iftmp.576
	jmp	.L577	#
.L576:
	.loc 1 1488 0 discriminator 2
	movq	PL_curpad(%rip), %rdx	# PL_curpad, PL_curpad.579
	movq	PL_op(%rip), %rax	# PL_op, PL_op.580
	movq	24(%rax), %rax	# PL_op.580_43->op_targ, D.18198
	salq	$3, %rax	#, D.18198
	addq	%rdx, %rax	# PL_curpad.579, D.18199
	movq	(%rax), %rax	# *_46, iftmp.576
.L577:
	.loc 1 1488 0 discriminator 3
	movq	%rax, -88(%rbp)	# iftmp.576, targ
	.loc 1 1490 0 is_stmt 1 discriminator 3
	movq	$0, -120(%rbp)	#, tmplen
	.loc 1 1493 0 discriminator 3
	movq	PL_last_in_gv(%rip), %rax	# PL_last_in_gv, PL_last_in_gv.582
	testq	%rax, %rax	# PL_last_in_gv.582
	je	.L578	#,
	.loc 1 1493 0 is_stmt 0 discriminator 1
	movq	PL_last_in_gv(%rip), %rax	# PL_last_in_gv, PL_last_in_gv.583
	movl	12(%rax), %eax	# MEM[(struct SV *)PL_last_in_gv.583_51].sv_flags, D.18200
	movzbl	%al, %eax	# D.18200, D.18200
	cmpl	$13, %eax	#, D.18200
	jne	.L578	#,
	movq	PL_last_in_gv(%rip), %rax	# PL_last_in_gv, PL_last_in_gv.584
	movq	(%rax), %rax	# PL_last_in_gv.584_54->sv_any, D.18201
	movq	56(%rax), %rax	# _55->xgv_gp, D.18202
	testq	%rax, %rax	# D.18202
	je	.L578	#,
	movq	PL_last_in_gv(%rip), %rax	# PL_last_in_gv, PL_last_in_gv.585
	movq	(%rax), %rax	# PL_last_in_gv.585_57->sv_any, D.18201
	movq	56(%rax), %rax	# _58->xgv_gp, D.18202
	movq	16(%rax), %rax	# _59->gp_io, iftmp.581
	jmp	.L579	#
.L578:
	.loc 1 1493 0 discriminator 2
	movl	$0, %eax	#, iftmp.581
.L579:
	.loc 1 1493 0 discriminator 3
	movq	%rax, %r13	# iftmp.581, io
	.loc 1 1494 0 is_stmt 1 discriminator 3
	movq	PL_op(%rip), %rax	# PL_op, PL_op.586
	movzwl	32(%rax), %eax	# PL_op.586_63->op_type, D.18203
	movzwl	%ax, %r14d	# D.18203, type
	.loc 1 1495 0 discriminator 3
	movq	PL_op(%rip), %rax	# PL_op, PL_op.588
	movzbl	36(%rax), %eax	# PL_op.588_66->op_flags, D.18196
	movzbl	%al, %eax	# D.18196, D.18197
	andl	$3, %eax	#, D.18197
	cmpl	$1, %eax	#, D.18197
	je	.L580	#,
	.loc 1 1495 0 is_stmt 0 discriminator 1
	movq	PL_op(%rip), %rax	# PL_op, PL_op.590
	movzbl	36(%rax), %eax	# PL_op.590_70->op_flags, D.18196
	movzbl	%al, %eax	# D.18196, D.18197
	andl	$3, %eax	#, D.18197
	cmpl	$2, %eax	#, D.18197
	je	.L581	#,
	movq	PL_op(%rip), %rax	# PL_op, PL_op.592
	movzbl	36(%rax), %eax	# PL_op.592_74->op_flags, D.18196
	movzbl	%al, %eax	# D.18196, D.18197
	andl	$3, %eax	#, D.18197
	cmpl	$3, %eax	#, D.18197
	je	.L582	#,
	call	Perl_block_gimme	#
	jmp	.L585	#
.L582:
	.loc 1 1495 0 discriminator 2
	movl	$1, %eax	#, iftmp.591
	jmp	.L585	#
.L581:
	movl	$0, %eax	#, iftmp.589
	jmp	.L585	#
.L580:
	movl	$128, %eax	#, iftmp.587
.L585:
	.loc 1 1495 0 discriminator 3
	movl	%eax, -132(%rbp)	# iftmp.587, gimme
	.loc 1 1498 0 is_stmt 1 discriminator 3
	testq	%r13, %r13	# io
	je	.L586	#,
	.loc 1 1498 0 is_stmt 0 discriminator 1
	movl	12(%r13), %eax	# MEM[(struct SV *)io_62].sv_flags, D.18200
	andl	$32768, %eax	#, D.18200
	testl	%eax, %eax	# D.18200
	je	.L587	#,
	movl	$113, %esi	#,
	movq	%r13, %rdi	# io,
	call	Perl_mg_find	#
	jmp	.L588	#
.L587:
	.loc 1 1498 0 discriminator 2
	movl	$0, %eax	#, iftmp.593
.L588:
	.loc 1 1498 0 discriminator 3
	movq	%rax, -80(%rbp)	# iftmp.593, mg
	cmpq	$0, -80(%rbp)	#, mg
	je	.L586	#,
.LBB78:
	.loc 1 1499 0 is_stmt 1
	movq	PL_markstack_ptr(%rip), %rax	# PL_markstack_ptr, PL_markstack_ptr.594
	addq	$4, %rax	#, PL_markstack_ptr.595
	movq	%rax, PL_markstack_ptr(%rip)	# PL_markstack_ptr.595, PL_markstack_ptr
	movq	PL_markstack_ptr(%rip), %rdx	# PL_markstack_ptr, PL_markstack_ptr.596
	movq	PL_markstack_max(%rip), %rax	# PL_markstack_max, PL_markstack_max.597
	cmpq	%rax, %rdx	# PL_markstack_max.597, PL_markstack_ptr.596
	jne	.L589	#,
	.loc 1 1499 0 is_stmt 0 discriminator 1
	call	Perl_markstack_grow	#
.L589:
	.loc 1 1499 0 discriminator 2
	movq	PL_markstack_ptr(%rip), %rax	# PL_markstack_ptr, PL_markstack_ptr.598
	movq	%r12, %rcx	# sp, sp.599
	movq	PL_stack_base(%rip), %rdx	# PL_stack_base, PL_stack_base.600
	subq	%rdx, %rcx	# PL_stack_base.601, D.18204
	movq	%rcx, %rdx	# D.18204, D.18204
	sarq	$3, %rdx	#, tmp458
	movl	%edx, (%rax)	# D.18197, *PL_markstack_ptr.598_94
.LBE78:
.LBB79:
	.loc 1 1500 0 is_stmt 1 discriminator 2
	movq	PL_stack_max(%rip), %rax	# PL_stack_max, PL_stack_max.602
	movq	%rax, %rdx	# PL_stack_max.602, PL_stack_max.603
	movq	%r12, %rax	# sp, sp.604
	subq	%rax, %rdx	# sp.604, D.18204
	movq	%rdx, %rax	# D.18204, D.18204
	cmpq	$7, %rax	#, D.18204
	jg	.L590	#,
	.loc 1 1500 0 is_stmt 0 discriminator 1
	movl	$1, %edx	#,
	movq	%r12, %rsi	# sp,
	movq	%r12, %rdi	# sp,
	call	Perl_stack_grow	#
	movq	%rax, %r12	#, sp
.L590:
	.loc 1 1500 0 discriminator 2
	addq	$8, %r12	#, sp
	movq	-80(%rbp), %rax	# mg, tmp459
	movq	24(%rax), %rax	# mg_89->mg_obj, D.18206
	testq	%rax, %rax	# D.18206
	je	.L591	#,
	.loc 1 1500 0 discriminator 1
	movq	-80(%rbp), %rax	# mg, tmp460
	movq	24(%rax), %rax	# mg_89->mg_obj, iftmp.605
	jmp	.L592	#
.L591:
	.loc 1 1500 0 discriminator 2
	movq	%r13, %rdi	# io,
	call	Perl_newRV	#
	movq	%rax, %rdi	# D.18206,
	call	Perl_sv_2mortal	#
.L592:
	.loc 1 1500 0 discriminator 3
	movq	%rax, (%r12)	# iftmp.605, *sp_107
.LBE79:
	.loc 1 1501 0 is_stmt 1 discriminator 3
	movq	%r12, PL_stack_sp(%rip)	# sp, PL_stack_sp
	.loc 1 1502 0 discriminator 3
	call	Perl_push_scope	#
	.loc 1 1503 0 discriminator 3
	movl	-132(%rbp), %eax	# gimme, tmp461
	movl	%eax, %esi	# tmp461,
	movl	$.LC18, %edi	#,
	call	Perl_call_method	#
	.loc 1 1504 0 discriminator 3
	call	Perl_pop_scope	#
	.loc 1 1505 0 discriminator 3
	movq	PL_stack_sp(%rip), %r12	# PL_stack_sp, sp
	.loc 1 1506 0 discriminator 3
	cmpl	$0, -132(%rbp)	#, gimme
	jne	.L593	#,
.LBB80:
	.loc 1 1507 0
	movq	%r12, %rax	# sp, sp.606
	leaq	-8(%rax), %r12	#, sp
	movq	(%rax), %rax	# *sp.606_114, tmp462
	movq	%rax, -72(%rbp)	# tmp462, result
	.loc 1 1508 0
	movq	-88(%rbp), %rax	# targ, tmp463
	cmpq	-72(%rbp), %rax	# result, tmp463
	je	.L594	#,
	.loc 1 1508 0 is_stmt 0 discriminator 1
	movq	-72(%rbp), %rcx	# result, tmp464
	movq	-88(%rbp), %rax	# targ, tmp465
	movl	$18, %edx	#,
	movq	%rcx, %rsi	# tmp464,
	movq	%rax, %rdi	# tmp465,
	call	Perl_sv_setsv_flags	#
.L594:
.LBB81:
	.loc 1 1509 0 is_stmt 1
	movq	-88(%rbp), %rax	# targ, tmp466
	movl	12(%rax), %eax	# targ_48->sv_flags, D.18200
	andl	$16384, %eax	#, D.18200
	testl	%eax, %eax	# D.18200
	je	.L595	#,
	.loc 1 1509 0 is_stmt 0 discriminator 1
	movq	-88(%rbp), %rax	# targ, tmp467
	movq	%rax, %rdi	# tmp467,
	call	Perl_mg_set	#
.L595:
	.loc 1 1509 0 discriminator 2
	addq	$8, %r12	#, sp
	movq	-88(%rbp), %rax	# targ, tmp468
	movq	%rax, (%r12)	# tmp468, *sp_119
.L593:
.LBE81:
.LBE80:
	.loc 1 1511 0 is_stmt 1
	movq	%r12, PL_stack_sp(%rip)	# sp, PL_stack_sp
	movq	PL_op(%rip), %rax	# PL_op, PL_op.607
	movq	(%rax), %rax	# PL_op.607_121->op_next, D.18195
	jmp	.L596	#
.L586:
	.loc 1 1513 0
	movq	$0, -104(%rbp)	#, fp
	.loc 1 1514 0
	testq	%r13, %r13	# io
	je	.L597	#,
	.loc 1 1515 0
	movq	0(%r13), %rax	# io_62->sv_any, D.18207
	movq	56(%rax), %rax	# _124->xio_ifp, tmp469
	movq	%rax, -104(%rbp)	# tmp469, fp
	.loc 1 1516 0
	cmpq	$0, -104(%rbp)	#, fp
	jne	.L598	#,
	.loc 1 1517 0
	movq	0(%r13), %rax	# io_62->sv_any, D.18207
	movzbl	163(%rax), %eax	# _126->xio_flags, D.18208
	movsbl	%al, %eax	# D.18208, D.18197
	andl	$1, %eax	#, D.18197
	testl	%eax, %eax	# D.18197
	je	.L599	#,
	.loc 1 1518 0
	movq	0(%r13), %rax	# io_62->sv_any, D.18207
	movzbl	163(%rax), %eax	# _130->xio_flags, D.18208
	movsbl	%al, %eax	# D.18208, D.18197
	andl	$2, %eax	#, D.18197
	testl	%eax, %eax	# D.18197
	je	.L600	#,
	.loc 1 1519 0
	movq	0(%r13), %rax	# io_62->sv_any, D.18207
	movq	$0, 80(%rax)	#, _134->xio_lines
	.loc 1 1520 0
	movq	PL_last_in_gv(%rip), %rax	# PL_last_in_gv, PL_last_in_gv.609
	movq	(%rax), %rax	# PL_last_in_gv.609_135->sv_any, D.18201
	movq	56(%rax), %rax	# _136->xgv_gp, D.18202
	movq	32(%rax), %rax	# _137->gp_av, D.18209
	testq	%rax, %rax	# D.18209
	je	.L601	#,
	.loc 1 1520 0 is_stmt 0 discriminator 1
	movq	PL_last_in_gv(%rip), %rax	# PL_last_in_gv, PL_last_in_gv.610
	movq	(%rax), %rax	# PL_last_in_gv.610_139->sv_any, D.18201
	movq	56(%rax), %rax	# _140->xgv_gp, D.18202
	movq	32(%rax), %rax	# _141->gp_av, iftmp.608
	jmp	.L602	#
.L601:
	.loc 1 1520 0 discriminator 2
	movq	PL_last_in_gv(%rip), %rax	# PL_last_in_gv, PL_last_in_gv.611
	movq	%rax, %rdi	# PL_last_in_gv.611,
	call	Perl_gv_AVadd	#
	movq	(%rax), %rax	# _144->sv_any, D.18201
	movq	56(%rax), %rax	# _145->xgv_gp, D.18202
	movq	32(%rax), %rax	# _146->gp_av, iftmp.608
.L602:
	.loc 1 1520 0 discriminator 3
	movq	%rax, %rdi	# iftmp.608,
	call	Perl_av_len	#
	testl	%eax, %eax	# D.18197
	jns	.L600	#,
	.loc 1 1521 0 is_stmt 1
	movq	0(%r13), %rax	# io_62->sv_any, D.18207
	movq	0(%r13), %rdx	# io_62->sv_any, D.18207
	movzbl	163(%rdx), %edx	# _150->xio_flags, D.18208
	andl	$-3, %edx	#, D.18208
	movb	%dl, 163(%rax)	# D.18208, _149->xio_flags
	.loc 1 1522 0
	movq	PL_last_in_gv(%rip), %rax	# PL_last_in_gv, PL_last_in_gv.612
	movq	$0, (%rsp)	#,
	movl	$0, %r9d	#,
	movl	$0, %r8d	#,
	movl	$0, %ecx	#,
	movl	$1, %edx	#,
	movl	$.LC19, %esi	#,
	movq	%rax, %rdi	# PL_last_in_gv.612,
	call	Perl_do_open	#
	.loc 1 1523 0
	movq	PL_last_in_gv(%rip), %rax	# PL_last_in_gv, PL_last_in_gv.613
	movq	(%rax), %rax	# PL_last_in_gv.613_154->sv_any, D.18201
	movq	56(%rax), %rax	# _155->xgv_gp, D.18202
	movq	(%rax), %rax	# _156->gp_sv, D.18206
	movl	$1, %edx	#,
	movl	$.LC19, %esi	#,
	movq	%rax, %rdi	# D.18206,
	call	Perl_sv_setpvn	#
	.loc 1 1524 0
	movq	PL_last_in_gv(%rip), %rax	# PL_last_in_gv, PL_last_in_gv.614
	movq	(%rax), %rax	# PL_last_in_gv.614_158->sv_any, D.18201
	movq	56(%rax), %rax	# _159->xgv_gp, D.18202
	movq	(%rax), %rax	# _160->gp_sv, D.18206
	movl	12(%rax), %eax	# _161->sv_flags, D.18200
	andl	$16384, %eax	#, D.18200
	testl	%eax, %eax	# D.18200
	je	.L603	#,
	.loc 1 1524 0 is_stmt 0 discriminator 1
	movq	PL_last_in_gv(%rip), %rax	# PL_last_in_gv, PL_last_in_gv.615
	movq	(%rax), %rax	# PL_last_in_gv.615_164->sv_any, D.18201
	movq	56(%rax), %rax	# _165->xgv_gp, D.18202
	movq	(%rax), %rax	# _166->gp_sv, D.18206
	movq	%rax, %rdi	# D.18206,
	call	Perl_mg_set	#
.L603:
	.loc 1 1525 0 is_stmt 1
	movq	0(%r13), %rax	# io_62->sv_any, D.18207
	movq	56(%rax), %rax	# _168->xio_ifp, tmp470
	movq	%rax, -104(%rbp)	# tmp470, fp
	.loc 1 1526 0
	jmp	.L604	#
.L600:
	.loc 1 1529 0
	movq	PL_last_in_gv(%rip), %rax	# PL_last_in_gv, PL_last_in_gv.616
	movq	%rax, %rdi	# PL_last_in_gv.616,
	call	Perl_nextargv	#
	movq	%rax, -104(%rbp)	# tmp471, fp
	.loc 1 1530 0
	cmpq	$0, -104(%rbp)	#, fp
	jne	.L597	#,
	.loc 1 1531 0
	movq	PL_last_in_gv(%rip), %rax	# PL_last_in_gv, PL_last_in_gv.617
	movl	$0, %esi	#,
	movq	%rax, %rdi	# PL_last_in_gv.617,
	call	Perl_do_close	#
	jmp	.L597	#
.L599:
	.loc 1 1534 0
	cmpl	$25, %r14d	#, type
	jne	.L597	#,
	.loc 1 1535 0
	movq	%r12, %rax	# sp, sp.618
	leaq	-8(%rax), %r12	#, sp
	movq	(%rax), %rax	# *sp.618_173, D.18206
	movq	%r13, %rsi	# io,
	movq	%rax, %rdi	# D.18206,
	call	Perl_start_glob	#
	movq	%rax, -104(%rbp)	# tmp472, fp
	jmp	.L597	#
.L598:
	.loc 1 1537 0
	cmpl	$25, %r14d	#, type
	jne	.L607	#,
	.loc 1 1538 0
	subq	$8, %r12	#, sp
	jmp	.L597	#
.L607:
	.loc 1 1539 0
	movq	PL_curcop(%rip), %rax	# PL_curcop, PL_curcop.619
	movq	80(%rax), %rax	# PL_curcop.619_178->cop_warnings, D.18206
	testq	%rax, %rax	# D.18206
	je	.L608	#,
	.loc 1 1539 0 is_stmt 0 discriminator 1
	movq	PL_curcop(%rip), %rax	# PL_curcop, PL_curcop.620
	movq	80(%rax), %rax	# PL_curcop.620_180->cop_warnings, D.18206
	cmpq	$32, %rax	#, D.18206
	je	.L608	#,
	movq	PL_curcop(%rip), %rax	# PL_curcop, PL_curcop.621
	movq	80(%rax), %rax	# PL_curcop.621_182->cop_warnings, D.18206
	cmpq	$16, %rax	#, D.18206
	je	.L609	#,
	.loc 1 1539 0 discriminator 2
	movq	PL_curcop(%rip), %rax	# PL_curcop, PL_curcop.622
	movq	80(%rax), %rax	# PL_curcop.622_184->cop_warnings, D.18206
	movq	(%rax), %rax	# _185->sv_any, D.18211
	movq	(%rax), %rax	# MEM[(struct XPV *)_186].xpv_pv, D.18212
	addq	$1, %rax	#, D.18212
	movzbl	(%rax), %eax	# *_188, D.18208
	movsbl	%al, %eax	# D.18208, D.18197
	andl	$4, %eax	#, D.18197
	testl	%eax, %eax	# D.18197
	jne	.L609	#,
.L608:
	movq	PL_curcop(%rip), %rax	# PL_curcop, PL_curcop.623
	movq	80(%rax), %rax	# PL_curcop.623_192->cop_warnings, D.18206
	testq	%rax, %rax	# D.18206
	jne	.L597	#,
	.loc 1 1539 0 discriminator 1
	movzbl	PL_dowarn(%rip), %eax	# PL_dowarn, PL_dowarn.624
	movzbl	%al, %eax	# PL_dowarn.624, D.18197
	andl	$1, %eax	#, D.18197
	testl	%eax, %eax	# D.18197
	je	.L597	#,
.L609:
	movq	0(%r13), %rax	# io_62->sv_any, D.18207
	movzbl	162(%rax), %eax	# _197->xio_type, D.18208
	cmpb	$62, %al	#, D.18208
	jne	.L597	#,
	.loc 1 1540 0 is_stmt 1
	movq	PL_last_in_gv(%rip), %rax	# PL_last_in_gv, PL_last_in_gv.625
	movl	$-2, %edx	#,
	movq	%r13, %rsi	# io,
	movq	%rax, %rdi	# PL_last_in_gv.625,
	call	Perl_report_evil_fh	#
.L597:
	.loc 1 1543 0
	cmpq	$0, -104(%rbp)	#, fp
	jne	.L604	#,
	.loc 1 1544 0
	movq	PL_curcop(%rip), %rax	# PL_curcop, PL_curcop.626
	movq	80(%rax), %rax	# PL_curcop.626_200->cop_warnings, D.18206
	testq	%rax, %rax	# D.18206
	je	.L610	#,
	.loc 1 1544 0 is_stmt 0 discriminator 1
	movq	PL_curcop(%rip), %rax	# PL_curcop, PL_curcop.627
	movq	80(%rax), %rax	# PL_curcop.627_202->cop_warnings, D.18206
	cmpq	$32, %rax	#, D.18206
	je	.L610	#,
	movq	PL_curcop(%rip), %rax	# PL_curcop, PL_curcop.628
	movq	80(%rax), %rax	# PL_curcop.628_204->cop_warnings, D.18206
	cmpq	$16, %rax	#, D.18206
	je	.L611	#,
	movq	PL_curcop(%rip), %rax	# PL_curcop, PL_curcop.629
	movq	80(%rax), %rax	# PL_curcop.629_206->cop_warnings, D.18206
	movq	(%rax), %rax	# _207->sv_any, D.18211
	movq	(%rax), %rax	# MEM[(struct XPV *)_208].xpv_pv, D.18212
	addq	$1, %rax	#, D.18212
	movzbl	(%rax), %eax	# *_210, D.18208
	movsbl	%al, %eax	# D.18208, D.18197
	andl	$1, %eax	#, D.18197
	testl	%eax, %eax	# D.18197
	jne	.L611	#,
	movq	PL_curcop(%rip), %rax	# PL_curcop, PL_curcop.630
	movq	80(%rax), %rax	# PL_curcop.630_214->cop_warnings, D.18206
	movq	(%rax), %rax	# _215->sv_any, D.18211
	movq	(%rax), %rax	# MEM[(struct XPV *)_216].xpv_pv, D.18212
	addq	$1, %rax	#, D.18212
	movzbl	(%rax), %eax	# *_218, D.18208
	movsbl	%al, %eax	# D.18208, D.18197
	andl	$16, %eax	#, D.18197
	testl	%eax, %eax	# D.18197
	jne	.L611	#,
.L610:
	.loc 1 1544 0 discriminator 2
	movq	PL_curcop(%rip), %rax	# PL_curcop, PL_curcop.631
	movq	80(%rax), %rax	# PL_curcop.631_222->cop_warnings, D.18206
	testq	%rax, %rax	# D.18206
	jne	.L612	#,
	.loc 1 1544 0 discriminator 1
	movzbl	PL_dowarn(%rip), %eax	# PL_dowarn, PL_dowarn.632
	movzbl	%al, %eax	# PL_dowarn.632, D.18197
	andl	$1, %eax	#, D.18197
	testl	%eax, %eax	# D.18197
	je	.L612	#,
.L611:
	.loc 1 1545 0 is_stmt 1
	testq	%r13, %r13	# io
	je	.L613	#,
	.loc 1 1545 0 is_stmt 0 discriminator 1
	movq	0(%r13), %rax	# io_62->sv_any, D.18207
	movzbl	163(%rax), %eax	# _227->xio_flags, D.18208
	movsbl	%al, %eax	# D.18208, D.18197
	andl	$2, %eax	#, D.18197
	testl	%eax, %eax	# D.18197
	jne	.L612	#,
.L613:
	.loc 1 1546 0 is_stmt 1
	cmpl	$25, %r14d	#, type
	jne	.L614	#,
	.loc 1 1549 0
	call	__errno_location	#
	.loc 1 1547 0
	movl	(%rax), %eax	# *_231, D.18197
	movl	%eax, %edi	# D.18197,
	call	strerror	#
	movq	%rax, %rdx	# D.18212,
	movl	$.LC20, %esi	#,
	movl	$4, %edi	#,
	movl	$0, %eax	#,
	call	Perl_warner	#
	jmp	.L612	#
.L614:
	.loc 1 1551 0
	movq	PL_op(%rip), %rax	# PL_op, PL_op.633
	movzwl	32(%rax), %eax	# PL_op.633_234->op_type, D.18203
	movzwl	%ax, %edx	# D.18203, D.18197
	movq	PL_last_in_gv(%rip), %rax	# PL_last_in_gv, PL_last_in_gv.634
	movq	%r13, %rsi	# io,
	movq	%rax, %rdi	# PL_last_in_gv.634,
	call	Perl_report_evil_fh	#
.L612:
	.loc 1 1553 0
	cmpl	$0, -132(%rbp)	#, gimme
	jne	.L615	#,
	.loc 1 1555 0
	cmpl	$27, %r14d	#, type
	je	.L616	#,
	.loc 1 1556 0
	movq	-88(%rbp), %rax	# targ, tmp473
	movl	12(%rax), %eax	# targ_48->sv_flags, D.18200
	andl	$9961472, %eax	#, D.18200
	testl	%eax, %eax	# D.18200
	je	.L617	#,
	.loc 1 1556 0 is_stmt 0 discriminator 1
	movq	-88(%rbp), %rax	# targ, tmp474
	movq	%rax, %rdi	# tmp474,
	call	Perl_sv_force_normal	#
.L617:
	.loc 1 1557 0 is_stmt 1
	movq	-88(%rbp), %rax	# targ, tmp475
	movl	12(%rax), %eax	# targ_48->sv_flags, D.18200
	andl	$1223753727, %eax	#, D.18200
	movl	%eax, %edx	# D.18200, D.18200
	movq	-88(%rbp), %rax	# targ, tmp476
	movl	%edx, 12(%rax)	# D.18200, targ_48->sv_flags
	movq	-88(%rbp), %rax	# targ, tmp477
	movl	12(%rax), %eax	# targ_48->sv_flags, D.18200
	andl	$2097152, %eax	#, D.18200
	testl	%eax, %eax	# D.18200
	je	.L616	#,
	.loc 1 1557 0 is_stmt 0 discriminator 1
	movq	-88(%rbp), %rax	# targ, tmp478
	movq	%rax, %rdi	# tmp478,
	call	Perl_sv_backoff	#
	testl	%eax, %eax	# D.18197
	je	.L616	#,
	.loc 1 1557 0
	nop
.L616:
.LBB82:
	.loc 1 1559 0 is_stmt 1
	movq	-88(%rbp), %rax	# targ, tmp479
	movl	12(%rax), %eax	# targ_48->sv_flags, D.18200
	andl	$16384, %eax	#, D.18200
	testl	%eax, %eax	# D.18200
	je	.L619	#,
	.loc 1 1559 0 is_stmt 0 discriminator 1
	movq	-88(%rbp), %rax	# targ, tmp480
	movq	%rax, %rdi	# tmp480,
	call	Perl_mg_set	#
.L619:
	.loc 1 1559 0 discriminator 2
	addq	$8, %r12	#, sp
	movq	-88(%rbp), %rax	# targ, tmp481
	movq	%rax, (%r12)	# tmp481, *sp_249
.L615:
.LBE82:
	.loc 1 1561 0 is_stmt 1
	movq	%r12, PL_stack_sp(%rip)	# sp, PL_stack_sp
	movq	PL_op(%rip), %rax	# PL_op, PL_op.636
	movq	(%rax), %rax	# PL_op.636_251->op_next, D.18195
	jmp	.L596	#
.L604:
	.loc 1 1564 0
	cmpl	$0, -132(%rbp)	#, gimme
	jne	.L620	#,
	.loc 1 1565 0
	movq	-88(%rbp), %rbx	# targ, sv
	.loc 1 1566 0
	movl	12(%rbx), %eax	# sv_253->sv_flags, D.18200
	andl	$524288, %eax	#, D.18200
	testl	%eax, %eax	# D.18200
	je	.L621	#,
	.loc 1 1567 0
	movq	%rbx, %rdi	# sv,
	call	Perl_sv_unref	#
.L621:
	.loc 1 1568 0
	movl	12(%rbx), %eax	# sv_253->sv_flags, D.18200
	movzbl	%al, %eax	# D.18200, D.18200
	cmpl	$3, %eax	#, D.18200
	ja	.L622	#,
	.loc 1 1568 0 is_stmt 0 discriminator 2
	movl	$4, %esi	#,
	movq	%rbx, %rdi	# sv,
	call	Perl_sv_upgrade	#
	testb	%al, %al	# D.18208
	je	.L624	#,
.L622:
	.loc 1 1568 0 discriminator 1
	nop
.L624:
	.loc 1 1569 0 is_stmt 1
	movq	(%rbx), %rax	# sv_253->sv_any, D.18211
	movq	16(%rax), %rax	# MEM[(struct XPV *)_261].xpv_len, tmp482
	movq	%rax, -120(%rbp)	# tmp482, tmplen
	.loc 1 1570 0
	cmpq	$0, -120(%rbp)	#, tmplen
	jne	.L625	#,
	.loc 1 1570 0 is_stmt 0 discriminator 1
	movl	12(%rbx), %eax	# sv_253->sv_flags, D.18200
	andl	$8388608, %eax	#, D.18200
	testl	%eax, %eax	# D.18200
	jne	.L625	#,
	.loc 1 1571 0 is_stmt 1
	movl	$80, %esi	#,
	movq	%rbx, %rdi	# sv,
	call	Perl_sv_grow	#
.L625:
	.loc 1 1572 0
	movq	$0, -112(%rbp)	#, offset
	.loc 1 1573 0
	cmpl	$27, %r14d	#, type
	jne	.L630	#,
	.loc 1 1573 0 is_stmt 0 discriminator 1
	movl	12(%rbx), %eax	# sv_253->sv_flags, D.18200
	andl	$118423552, %eax	#, D.18200
	testl	%eax, %eax	# D.18200
	je	.L630	#,
	.loc 1 1574 0 is_stmt 1
	movl	12(%rbx), %eax	# sv_253->sv_flags, D.18200
	andl	$262144, %eax	#, D.18200
	testl	%eax, %eax	# D.18200
	jne	.L627	#,
.LBB83:
	.loc 1 1576 0
	movl	12(%rbx), %eax	# sv_253->sv_flags, D.18200
	andl	$10223616, %eax	#, D.18200
	cmpl	$262144, %eax	#, D.18200
	jne	.L628	#,
	.loc 1 1576 0 is_stmt 0 discriminator 1
	movq	(%rbx), %rax	# sv_253->sv_any, D.18211
	movq	8(%rax), %rax	# MEM[(struct XPV *)_272].xpv_cur, n_a.638
	movq	%rax, -128(%rbp)	# n_a.638, n_a
	jmp	.L627	#
.L628:
	.loc 1 1576 0 discriminator 2
	leaq	-128(%rbp), %rax	#, tmp483
	movl	$2, %edx	#,
	movq	%rax, %rsi	# tmp483,
	movq	%rbx, %rdi	# sv,
	call	Perl_sv_pvn_force_flags	#
.L627:
.LBE83:
	.loc 1 1578 0 is_stmt 1
	movq	(%rbx), %rax	# sv_253->sv_any, D.18211
	movq	8(%rax), %rax	# MEM[(struct XPV *)_275].xpv_cur, tmp484
	movq	%rax, -112(%rbp)	# tmp484, offset
	jmp	.L630	#
.L620:
	.loc 1 1582 0
	movl	$80, %edi	#,
	call	Perl_newSV	#
	movq	%rax, %rdi	# D.18206,
	call	Perl_sv_2mortal	#
	movq	%rax, %rbx	#, sv
	.loc 1 1583 0
	movq	$0, -112(%rbp)	#, offset
.L630:
	.loc 1 1599 0
	movq	%r12, PL_stack_sp(%rip)	# sp, PL_stack_sp
	.loc 1 1600 0
	movq	-112(%rbp), %rax	# offset, tmp485
	movl	%eax, %edx	# tmp485, D.18197
	movq	-104(%rbp), %rax	# fp, tmp486
	movq	%rax, %rsi	# tmp486,
	movq	%rbx, %rdi	# sv,
	call	Perl_sv_gets	#
	testq	%rax, %rax	# D.18212
	jne	.L631	#,
	.loc 1 1601 0
	cmpl	$25, %r14d	#, type
	je	.L632	#,
	.loc 1 1602 0
	cmpl	$0, -132(%rbp)	#, gimme
	jne	.L632	#,
	.loc 1 1602 0 is_stmt 0 discriminator 1
	movq	(%rbx), %rax	# sv_12->sv_any, D.18211
	movq	8(%rax), %rax	# MEM[(struct XPV *)_282].xpv_cur, D.18198
	testq	%rax, %rax	# D.18198
	jne	.L632	#,
	movq	0(%r13), %rax	# io_62->sv_any, D.18207
	movzbl	163(%rax), %eax	# _284->xio_flags, D.18208
	movsbl	%al, %eax	# D.18208, D.18197
	andl	$32, %eax	#, D.18197
	testl	%eax, %eax	# D.18197
	jne	.L632	#,
	movq	PL_rs(%rip), %rax	# PL_rs, PL_rs.639
	movl	12(%rax), %eax	# PL_rs.639_288->sv_flags, D.18200
	andl	$118423552, %eax	#, D.18200
	testl	%eax, %eax	# D.18200
	jne	.L632	#,
	.loc 1 1603 0 is_stmt 1
	movq	-104(%rbp), %rax	# fp, tmp487
	movq	%rax, %rdi	# tmp487,
	call	Perl_PerlIO_error	#
	testl	%eax, %eax	# D.18197
	je	.L631	#,
.L632:
	.loc 1 1605 0
	movq	-104(%rbp), %rax	# fp, tmp488
	movq	%rax, %rdi	# tmp488,
	call	Perl_PerlIO_clearerr	#
	.loc 1 1606 0
	movq	0(%r13), %rax	# io_62->sv_any, D.18207
	movzbl	163(%rax), %eax	# _292->xio_flags, D.18208
	movsbl	%al, %eax	# D.18208, D.18197
	andl	$1, %eax	#, D.18197
	testl	%eax, %eax	# D.18197
	je	.L633	#,
	.loc 1 1607 0
	movq	PL_last_in_gv(%rip), %rax	# PL_last_in_gv, PL_last_in_gv.640
	movq	%rax, %rdi	# PL_last_in_gv.640,
	call	Perl_nextargv	#
	movq	%rax, -104(%rbp)	# tmp489, fp
	.loc 1 1608 0
	cmpq	$0, -104(%rbp)	#, fp
	je	.L634	#,
	.loc 1 1609 0
	jmp	.L635	#
.L634:
	.loc 1 1610 0
	movq	PL_last_in_gv(%rip), %rax	# PL_last_in_gv, PL_last_in_gv.641
	movl	$0, %esi	#,
	movq	%rax, %rdi	# PL_last_in_gv.641,
	call	Perl_do_close	#
	jmp	.L636	#
.L633:
	.loc 1 1612 0
	cmpl	$25, %r14d	#, type
	jne	.L636	#,
	.loc 1 1613 0
	movq	PL_last_in_gv(%rip), %rax	# PL_last_in_gv, PL_last_in_gv.642
	movl	$0, %esi	#,
	movq	%rax, %rdi	# PL_last_in_gv.642,
	call	Perl_do_close	#
	testb	%al, %al	# D.18208
	jne	.L636	#,
	.loc 1 1613 0 is_stmt 0 discriminator 1
	movq	PL_curcop(%rip), %rax	# PL_curcop, PL_curcop.643
	movq	80(%rax), %rax	# PL_curcop.643_301->cop_warnings, D.18206
	testq	%rax, %rax	# D.18206
	je	.L637	#,
	movq	PL_curcop(%rip), %rax	# PL_curcop, PL_curcop.644
	movq	80(%rax), %rax	# PL_curcop.644_303->cop_warnings, D.18206
	cmpq	$32, %rax	#, D.18206
	je	.L637	#,
	movq	PL_curcop(%rip), %rax	# PL_curcop, PL_curcop.645
	movq	80(%rax), %rax	# PL_curcop.645_305->cop_warnings, D.18206
	cmpq	$16, %rax	#, D.18206
	je	.L638	#,
	movq	PL_curcop(%rip), %rax	# PL_curcop, PL_curcop.646
	movq	80(%rax), %rax	# PL_curcop.646_307->cop_warnings, D.18206
	movq	(%rax), %rax	# _308->sv_any, D.18211
	movq	(%rax), %rax	# MEM[(struct XPV *)_309].xpv_pv, D.18212
	addq	$1, %rax	#, D.18212
	movzbl	(%rax), %eax	# *_311, D.18208
	movsbl	%al, %eax	# D.18208, D.18197
	andl	$1, %eax	#, D.18197
	testl	%eax, %eax	# D.18197
	jne	.L638	#,
.L637:
	.loc 1 1613 0 discriminator 2
	movq	PL_curcop(%rip), %rax	# PL_curcop, PL_curcop.647
	movq	80(%rax), %rax	# PL_curcop.647_315->cop_warnings, D.18206
	testq	%rax, %rax	# D.18206
	jne	.L636	#,
	.loc 1 1613 0 discriminator 1
	movzbl	PL_dowarn(%rip), %eax	# PL_dowarn, PL_dowarn.648
	movzbl	%al, %eax	# PL_dowarn.648, D.18197
	andl	$1, %eax	#, D.18197
	testl	%eax, %eax	# D.18197
	je	.L636	#,
.L638:
	.loc 1 1617 0 is_stmt 1
	movl	PL_statusvalue(%rip), %eax	# PL_statusvalue, PL_statusvalue.650
	andl	$128, %eax	#, D.18197
	.loc 1 1614 0
	testl	%eax, %eax	# D.18197
	je	.L639	#,
	.loc 1 1614 0 is_stmt 0 discriminator 1
	movl	$.LC21, %eax	#, iftmp.649
	jmp	.L640	#
.L639:
	.loc 1 1614 0 discriminator 2
	movl	$.LC1, %eax	#, iftmp.649
.L640:
	.loc 1 1614 0 discriminator 3
	movl	PL_statusvalue(%rip), %edx	# PL_statusvalue, PL_statusvalue.651
	sarl	$8, %edx	#, D.18197
	movq	%rax, %rcx	# iftmp.649,
	movl	$.LC22, %esi	#,
	movl	$4, %edi	#,
	movl	$0, %eax	#,
	call	Perl_warner	#
.L636:
	.loc 1 1620 0 is_stmt 1
	cmpl	$0, -132(%rbp)	#, gimme
	jne	.L641	#,
	.loc 1 1621 0
	cmpl	$27, %r14d	#, type
	je	.L642	#,
	.loc 1 1622 0
	movq	-88(%rbp), %rax	# targ, tmp490
	movl	12(%rax), %eax	# targ_48->sv_flags, D.18200
	andl	$9961472, %eax	#, D.18200
	testl	%eax, %eax	# D.18200
	je	.L643	#,
	.loc 1 1622 0 is_stmt 0 discriminator 1
	movq	-88(%rbp), %rax	# targ, tmp491
	movq	%rax, %rdi	# tmp491,
	call	Perl_sv_force_normal	#
.L643:
	.loc 1 1623 0 is_stmt 1
	movq	-88(%rbp), %rax	# targ, tmp492
	movl	12(%rax), %eax	# targ_48->sv_flags, D.18200
	andl	$1223753727, %eax	#, D.18200
	movl	%eax, %edx	# D.18200, D.18200
	movq	-88(%rbp), %rax	# targ, tmp493
	movl	%edx, 12(%rax)	# D.18200, targ_48->sv_flags
	movq	-88(%rbp), %rax	# targ, tmp494
	movl	12(%rax), %eax	# targ_48->sv_flags, D.18200
	andl	$2097152, %eax	#, D.18200
	testl	%eax, %eax	# D.18200
	je	.L642	#,
	.loc 1 1623 0 is_stmt 0 discriminator 1
	movq	-88(%rbp), %rax	# targ, tmp495
	movq	%rax, %rdi	# tmp495,
	call	Perl_sv_backoff	#
	testl	%eax, %eax	# D.18197
	je	.L642	#,
	.loc 1 1623 0
	nop
.L642:
	.loc 1 1625 0 is_stmt 1
	movq	PL_stack_sp(%rip), %r12	# PL_stack_sp, sp
.LBB84:
	.loc 1 1626 0
	movq	-88(%rbp), %rax	# targ, tmp496
	movl	12(%rax), %eax	# targ_48->sv_flags, D.18200
	andl	$16384, %eax	#, D.18200
	testl	%eax, %eax	# D.18200
	je	.L645	#,
	.loc 1 1626 0 is_stmt 0 discriminator 1
	movq	-88(%rbp), %rax	# targ, tmp497
	movq	%rax, %rdi	# tmp497,
	call	Perl_mg_set	#
.L645:
	.loc 1 1626 0 discriminator 2
	addq	$8, %r12	#, sp
	movq	-88(%rbp), %rax	# targ, tmp498
	movq	%rax, (%r12)	# tmp498, *sp_338
.L641:
.LBE84:
	.loc 1 1628 0 is_stmt 1
	movq	0(%r13), %rax	# io_62->sv_any, D.18207
	movzbl	163(%rax), %eax	# _340->xio_flags, D.18208
	movsbl	%al, %eax	# D.18208, D.18197
	andl	$16, %eax	#, D.18197
	testl	%eax, %eax	# D.18197
	jne	.L646	#,
	.loc 1 1628 0 is_stmt 0 discriminator 1
	movb	$1, PL_tainted(%rip)	#, PL_tainted
	movzbl	PL_tainting(%rip), %eax	# PL_tainting, PL_tainting.653
	testb	%al, %al	# PL_tainting.653
	je	.L646	#,
	movq	%rbx, %rdi	# sv,
	call	Perl_sv_taint	#
.L646:
	.loc 1 1629 0 is_stmt 1
	movq	%r12, PL_stack_sp(%rip)	# sp, PL_stack_sp
	movq	PL_op(%rip), %rax	# PL_op, PL_op.654
	movq	(%rax), %rax	# PL_op.654_345->op_next, D.18195
	jmp	.L596	#
.L631:
	.loc 1 1631 0
	movq	0(%r13), %rax	# io_62->sv_any, D.18207
	movzbl	163(%rax), %eax	# _347->xio_flags, D.18208
	movsbl	%al, %eax	# D.18208, D.18197
	andl	$16, %eax	#, D.18197
	testl	%eax, %eax	# D.18197
	jne	.L647	#,
	.loc 1 1631 0 is_stmt 0 discriminator 1
	movb	$1, PL_tainted(%rip)	#, PL_tainted
	movzbl	PL_tainting(%rip), %eax	# PL_tainting, PL_tainting.655
	testb	%al, %al	# PL_tainting.655
	je	.L647	#,
	movq	%rbx, %rdi	# sv,
	call	Perl_sv_taint	#
.L647:
	.loc 1 1632 0 is_stmt 1
	movq	0(%r13), %rax	# io_62->sv_any, D.18207
	movq	80(%rax), %rdx	# _352->xio_lines, D.18204
	addq	$1, %rdx	#, D.18204
	movq	%rdx, 80(%rax)	# D.18204, _352->xio_lines
	.loc 1 1633 0
	movq	0(%r13), %rax	# io_62->sv_any, D.18207
	movq	0(%r13), %rdx	# io_62->sv_any, D.18207
	movzbl	163(%rdx), %edx	# _356->xio_flags, D.18208
	orl	$32, %edx	#, D.18214
	movb	%dl, 163(%rax)	# D.18214, _355->xio_flags
	.loc 1 1634 0
	movl	12(%rbx), %eax	# sv_12->sv_flags, D.18200
	andl	$16384, %eax	#, D.18200
	testl	%eax, %eax	# D.18200
	je	.L648	#,
	.loc 1 1634 0 is_stmt 0 discriminator 1
	movq	%rbx, %rdi	# sv,
	call	Perl_mg_set	#
.L648:
	.loc 1 1635 0 is_stmt 1
	movq	PL_stack_sp(%rip), %r12	# PL_stack_sp, sp
.LBB85:
	.loc 1 1636 0
	movq	PL_stack_max(%rip), %rax	# PL_stack_max, PL_stack_max.656
	movq	%rax, %rdx	# PL_stack_max.656, PL_stack_max.657
	movq	%r12, %rax	# sp, sp.658
	subq	%rax, %rdx	# sp.658, D.18204
	movq	%rdx, %rax	# D.18204, D.18204
	cmpq	$7, %rax	#, D.18204
	jg	.L649	#,
	.loc 1 1636 0 is_stmt 0 discriminator 1
	movl	$1, %edx	#,
	movq	%r12, %rsi	# sp,
	movq	%r12, %rdi	# sp,
	call	Perl_stack_grow	#
	movq	%rax, %r12	#, sp
.L649:
	.loc 1 1636 0 discriminator 2
	addq	$8, %r12	#, sp
	movq	%rbx, (%r12)	# sv, *sp_367
.LBE85:
	.loc 1 1637 0 is_stmt 1 discriminator 2
	cmpl	$25, %r14d	#, type
	jne	.L650	#,
.LBB86:
	.loc 1 1640 0
	movq	(%rbx), %rax	# sv_12->sv_any, D.18211
	movq	8(%rax), %rax	# MEM[(struct XPV *)_369].xpv_cur, D.18198
	testq	%rax, %rax	# D.18198
	je	.L651	#,
	.loc 1 1640 0 is_stmt 0 discriminator 1
	movq	PL_rs(%rip), %rax	# PL_rs, PL_rs.659
	movq	(%rax), %rax	# PL_rs.659_371->sv_any, D.18211
	movq	8(%rax), %rax	# MEM[(struct XPV *)_372].xpv_cur, D.18198
	testq	%rax, %rax	# D.18198
	je	.L651	#,
	.loc 1 1641 0 is_stmt 1
	movq	(%rbx), %rax	# sv_12->sv_any, D.18211
	movq	(%rax), %rdx	# MEM[(struct XPV *)_374].xpv_pv, D.18212
	movq	(%rbx), %rax	# sv_12->sv_any, D.18211
	movq	8(%rax), %rax	# MEM[(struct XPV *)_376].xpv_cur, D.18198
	subq	$1, %rax	#, D.18215
	addq	%rdx, %rax	# D.18212, tmp499
	movq	%rax, -96(%rbp)	# tmp499, tmps
	.loc 1 1642 0
	movq	-96(%rbp), %rax	# tmps, tmp500
	movzbl	(%rax), %edx	# *tmps_379, D.18208
	movq	PL_rs(%rip), %rax	# PL_rs, PL_rs.660
	movq	(%rax), %rax	# PL_rs.660_381->sv_any, D.18211
	movq	(%rax), %rax	# MEM[(struct XPV *)_382].xpv_pv, D.18212
	movzbl	(%rax), %eax	# *_383, D.18208
	cmpb	%al, %dl	# D.18208, D.18208
	jne	.L651	#,
	.loc 1 1643 0
	movq	-96(%rbp), %rax	# tmps, tmp501
	movb	$0, (%rax)	#, *tmps_379
	.loc 1 1644 0
	movq	(%rbx), %rax	# sv_12->sv_any, D.18211
	movq	8(%rax), %rdx	# MEM[(struct XPV *)_385].xpv_cur, D.18198
	subq	$1, %rdx	#, D.18198
	movq	%rdx, 8(%rax)	# D.18198, MEM[(struct XPV *)_385].xpv_cur
.L651:
	.loc 1 1647 0
	movq	(%rbx), %rax	# sv_12->sv_any, D.18211
	movq	(%rax), %rax	# MEM[(struct XPV *)_388].xpv_pv, tmp502
	movq	%rax, -96(%rbp)	# tmp502, tmps
	jmp	.L652	#
.L658:
	.loc 1 1648 0
	movq	-96(%rbp), %rax	# tmps, tmp503
	movzbl	(%rax), %eax	# *tmps_22, D.18208
	cmpb	$64, %al	#, D.18208
	jle	.L653	#,
	.loc 1 1648 0 is_stmt 0 discriminator 2
	movq	-96(%rbp), %rax	# tmps, tmp504
	movzbl	(%rax), %eax	# *tmps_22, D.18208
	cmpb	$90, %al	#, D.18208
	jle	.L654	#,
.L653:
	.loc 1 1648 0 discriminator 1
	movq	-96(%rbp), %rax	# tmps, tmp505
	movzbl	(%rax), %eax	# *tmps_22, D.18208
	cmpb	$96, %al	#, D.18208
	jle	.L655	#,
	.loc 1 1648 0 discriminator 2
	movq	-96(%rbp), %rax	# tmps, tmp506
	movzbl	(%rax), %eax	# *tmps_22, D.18208
	cmpb	$122, %al	#, D.18208
	jle	.L654	#,
.L655:
	.loc 1 1648 0 discriminator 1
	movq	-96(%rbp), %rax	# tmps, tmp507
	movzbl	(%rax), %eax	# *tmps_22, D.18208
	cmpb	$47, %al	#, D.18208
	jle	.L656	#,
	.loc 1 1648 0 discriminator 2
	movq	-96(%rbp), %rax	# tmps, tmp508
	movzbl	(%rax), %eax	# *tmps_22, D.18208
	cmpb	$57, %al	#, D.18208
	jle	.L654	#,
.L656:
	.loc 1 1649 0 is_stmt 1 discriminator 1
	movq	-96(%rbp), %rax	# tmps, tmp509
	movzbl	(%rax), %eax	# *tmps_22, D.18208
	movsbl	%al, %eax	# D.18208, D.18197
	movl	%eax, %esi	# D.18197,
	movl	$.LC23, %edi	#,
	call	strchr	#
	.loc 1 1648 0 discriminator 1
	testq	%rax, %rax	# D.18212
	je	.L654	#,
	.loc 1 1650 0
	jmp	.L657	#
.L654:
	.loc 1 1647 0
	addq	$1, -96(%rbp)	#, tmps
.L652:
	.loc 1 1647 0 is_stmt 0 discriminator 1
	movq	-96(%rbp), %rax	# tmps, tmp510
	movzbl	(%rax), %eax	# *tmps_22, D.18208
	testb	%al, %al	# D.18208
	jne	.L658	#,
.L657:
	.loc 1 1651 0 is_stmt 1
	movq	-96(%rbp), %rax	# tmps, tmp511
	movzbl	(%rax), %eax	# *tmps_22, D.18208
	testb	%al, %al	# D.18208
	je	.L659	#,
	.loc 1 1651 0 is_stmt 0 discriminator 1
	movq	(%rbx), %rax	# sv_12->sv_any, D.18211
	movq	(%rax), %rax	# MEM[(struct XPV *)_402].xpv_pv, D.18212
	movl	$PL_statbuf, %esi	#,
	movq	%rax, %rdi	# D.18212,
	call	stat	#
	testl	%eax, %eax	# D.18197
	jns	.L659	#,
	.loc 1 1652 0 is_stmt 1
	movq	%r12, %rax	# sp, sp.661
	leaq	-8(%rax), %r12	#, sp
	.loc 1 1653 0
	jmp	.L635	#
.L659:
.LBE86:
	jmp	.L660	#
.L650:
	.loc 1 1655 0
	movl	12(%rbx), %eax	# sv_12->sv_flags, D.18200
	andl	$536870912, %eax	#, D.18200
	testl	%eax, %eax	# D.18200
	je	.L660	#,
.LBB87:
	.loc 1 1656 0
	movq	(%rbx), %rax	# sv_12->sv_any, D.18211
	movq	(%rax), %rdx	# MEM[(struct XPV *)_409].xpv_pv, D.18212
	movq	-112(%rbp), %rax	# offset, tmp515
	addq	%rdx, %rax	# D.18212, tmp514
	movq	%rax, -64(%rbp)	# tmp514, s
	.loc 1 1657 0
	movq	(%rbx), %rax	# sv_12->sv_any, D.18211
	movq	8(%rax), %rax	# MEM[(struct XPV *)_412].xpv_cur, D.18198
	subq	-112(%rbp), %rax	# offset, tmp517
	movq	%rax, -56(%rbp)	# tmp517, len
	.loc 1 1660 0
	movq	PL_curcop(%rip), %rax	# PL_curcop, PL_curcop.662
	movq	80(%rax), %rax	# PL_curcop.662_415->cop_warnings, D.18206
	testq	%rax, %rax	# D.18206
	je	.L661	#,
	.loc 1 1660 0 is_stmt 0 discriminator 1
	movq	PL_curcop(%rip), %rax	# PL_curcop, PL_curcop.663
	movq	80(%rax), %rax	# PL_curcop.663_417->cop_warnings, D.18206
	cmpq	$32, %rax	#, D.18206
	je	.L661	#,
	movq	PL_curcop(%rip), %rax	# PL_curcop, PL_curcop.664
	movq	80(%rax), %rax	# PL_curcop.664_419->cop_warnings, D.18206
	cmpq	$16, %rax	#, D.18206
	je	.L662	#,
	.loc 1 1660 0 discriminator 2
	movq	PL_curcop(%rip), %rax	# PL_curcop, PL_curcop.665
	movq	80(%rax), %rax	# PL_curcop.665_421->cop_warnings, D.18206
	movq	(%rax), %rax	# _422->sv_any, D.18211
	movq	(%rax), %rax	# MEM[(struct XPV *)_423].xpv_pv, D.18212
	addq	$11, %rax	#, D.18212
	movzbl	(%rax), %eax	# *_425, D.18208
	movsbl	%al, %eax	# D.18208, D.18197
	andl	$1, %eax	#, D.18197
	testl	%eax, %eax	# D.18197
	jne	.L662	#,
.L661:
	movq	PL_curcop(%rip), %rax	# PL_curcop, PL_curcop.666
	movq	80(%rax), %rax	# PL_curcop.666_429->cop_warnings, D.18206
	testq	%rax, %rax	# D.18206
	jne	.L660	#,
	.loc 1 1660 0 discriminator 1
	movzbl	PL_dowarn(%rip), %eax	# PL_dowarn, PL_dowarn.667
	movzbl	%al, %eax	# PL_dowarn.667, D.18197
	andl	$1, %eax	#, D.18197
	testl	%eax, %eax	# D.18197
	je	.L660	#,
.L662:
	.loc 1 1661 0 is_stmt 1 discriminator 1
	leaq	-128(%rbp), %rdx	#, tmp518
	movq	-56(%rbp), %rcx	# len, tmp519
	movq	-64(%rbp), %rax	# s, tmp520
	movq	%rcx, %rsi	# tmp519,
