	.file	"pp_sys.c"
# GNU C (Ubuntu/Linaro 4.8.1-10ubuntu9) version 4.8.1 (x86_64-linux-gnu)
#	compiled by GNU C version 4.8.1, GMP version 5.1.2, MPFR version 3.1.1-p2, MPC version 1.0.1
# GGC heuristics: --param ggc-min-expand=100 --param ggc-min-heapsize=131072
# options passed:  -imultiarch x86_64-linux-gnu -D SPEC_CPU -D NDEBUG
# -D PERL_CORE -D SPEC_CPU_LP64 -D SPEC_CPU_LINUX_X64 pp_sys.c
# -mtune=generic -march=x86-64 -g -fverbose-asm -fno-strict-aliasing
# -fstack-protector -Wformat -Wformat-security
# options enabled:  -faggressive-loop-optimizations
# -fasynchronous-unwind-tables -fauto-inc-dec -fbranch-count-reg -fcommon
# -fdelete-null-pointer-checks -fdwarf2-cfi-asm -fearly-inlining
# -feliminate-unused-debug-types -ffunction-cse -fgcse-lm -fgnu-runtime
# -fident -finline-atomics -fira-hoist-pressure -fira-share-save-slots
# -fira-share-spill-slots -fivopts -fkeep-static-consts
# -fleading-underscore -fmath-errno -fmerge-debug-strings
# -fmove-loop-invariants -fpeephole -fprefetch-loop-arrays
# -freg-struct-return -fsched-critical-path-heuristic
# -fsched-dep-count-heuristic -fsched-group-heuristic -fsched-interblock
# -fsched-last-insn-heuristic -fsched-rank-heuristic -fsched-spec
# -fsched-spec-insn-heuristic -fsched-stalled-insns-dep -fshow-column
# -fsigned-zeros -fsplit-ivs-in-unroller -fstack-protector
# -fstrict-volatile-bitfields -fsync-libcalls -ftrapping-math
# -ftree-coalesce-vars -ftree-cselim -ftree-forwprop -ftree-loop-if-convert
# -ftree-loop-im -ftree-loop-ivcanon -ftree-loop-optimize
# -ftree-parallelize-loops= -ftree-phiprop -ftree-pta -ftree-reassoc
# -ftree-scev-cprop -ftree-slp-vectorize -ftree-vect-loop-version
# -funit-at-a-time -funwind-tables -fverbose-asm -fzero-initialized-in-bss
# -m128bit-long-double -m64 -m80387 -maccumulate-outgoing-args
# -malign-stringops -mfancy-math-387 -mfp-ret-in-387 -mfxsr -mglibc
# -mieee-fp -mlong-double-80 -mmmx -mno-sse4 -mpush-args -mred-zone -msse
# -msse2 -mtls-direct-seg-refs

	.text
.Ltext0:
	.data
	.type	zero_but_true, @object
	.size	zero_but_true, 11
zero_but_true:
	.string	"0 but true"
	.section	.rodata
	.align 8
.LC0:
	.string	"switching effective uid is not implemented"
	.text
	.type	S_emulate_eaccess, @function
S_emulate_eaccess:
.LFB2:
	.file 1 "pp_sys.c"
	.loc 1 309 0
	.cfi_startproc
	pushq	%rbp	#
	.cfi_def_cfa_offset 16
	.cfi_offset 6, -16
	movq	%rsp, %rbp	#,
	.cfi_def_cfa_register 6
	subq	$16, %rsp	#,
	movq	%rdi, -8(%rbp)	# path, path
	movl	%esi, -12(%rbp)	# mode, mode
	.loc 1 310 0
	movl	$.LC0, %edi	#,
	movl	$0, %eax	#,
	call	Perl_croak	#
	.loc 1 312 0
	movl	$-1, %eax	#, D.18085
	.loc 1 313 0
	leave
	.cfi_def_cfa 7, 8
	ret
	.cfi_endproc
.LFE2:
	.size	S_emulate_eaccess, .-S_emulate_eaccess
	.section	.rodata
.LC1:
	.string	"r"
.LC2:
	.string	"``"
.LC3:
	.string	"rb"
.LC4:
	.string	"rt"
.LC5:
	.string	""
	.text
	.globl	Perl_pp_backtick
	.type	Perl_pp_backtick, @function
Perl_pp_backtick:
.LFB3:
	.loc 1 317 0
	.cfi_startproc
	pushq	%rbp	#
	.cfi_def_cfa_offset 16
	.cfi_offset 6, -16
	movq	%rsp, %rbp	#,
	.cfi_def_cfa_register 6
	pushq	%r12	#
	pushq	%rbx	#
	subq	$336, %rsp	#,
	.cfi_offset 12, -24
	.cfi_offset 3, -32
	.loc 1 317 0
	movq	%fs:40, %rax	#, tmp191
	movq	%rax, -24(%rbp)	# tmp191, D.18098
	xorl	%eax, %eax	# tmp191
	.loc 1 318 0
	movq	PL_stack_sp(%rip), %rbx	# PL_stack_sp, sp
	movq	PL_curpad(%rip), %rdx	# PL_curpad, PL_curpad.0
	movq	PL_op(%rip), %rax	# PL_op, PL_op.1
	movq	24(%rax), %rax	# PL_op.1_16->op_targ, D.18088
	salq	$3, %rax	#, D.18088
	addq	%rdx, %rax	# PL_curpad.0, D.18089
	movq	(%rax), %rax	# *_19, tmp159
	movq	%rax, -320(%rbp)	# tmp159, targ
	.loc 1 321 0
	movq	%rbx, %rax	# sp, sp.2
	leaq	-8(%rax), %rbx	#, sp
	movq	(%rax), %rax	# *sp.2_21, PL_Sv.3
	movq	%rax, PL_Sv(%rip)	# PL_Sv.3, PL_Sv
	movq	PL_Sv(%rip), %rax	# PL_Sv, PL_Sv.5
	movl	12(%rax), %eax	# PL_Sv.5_24->sv_flags, D.18090
	andl	$262144, %eax	#, D.18090
	testl	%eax, %eax	# D.18090
	je	.L4	#,
	.loc 1 321 0 is_stmt 0 discriminator 1
	movq	PL_Sv(%rip), %rax	# PL_Sv, PL_Sv.6
	movq	(%rax), %rax	# PL_Sv.6_27->sv_any, D.18091
	movq	8(%rax), %rax	# MEM[(struct XPV *)_28].xpv_cur, n_a.7
	movq	%rax, -344(%rbp)	# n_a.7, n_a
	movq	PL_Sv(%rip), %rax	# PL_Sv, PL_Sv.8
	movq	(%rax), %rax	# PL_Sv.8_30->sv_any, D.18091
	movq	(%rax), %rax	# MEM[(struct XPV *)_31].xpv_pv, iftmp.4
	jmp	.L5	#
.L4:
	.loc 1 321 0 discriminator 2
	movq	PL_Sv(%rip), %rax	# PL_Sv, PL_Sv.9
	leaq	-344(%rbp), %rcx	#, tmp160
	movl	$2, %edx	#,
	movq	%rcx, %rsi	# tmp160,
	movq	%rax, %rdi	# PL_Sv.9,
	call	Perl_sv_2pv_flags	#
.L5:
	.loc 1 321 0 discriminator 3
	movq	%rax, -312(%rbp)	# iftmp.4, tmps
	.loc 1 322 0 is_stmt 1 discriminator 3
	movq	PL_op(%rip), %rax	# PL_op, PL_op.11
	movzbl	36(%rax), %eax	# PL_op.11_36->op_flags, D.18092
	movzbl	%al, %eax	# D.18092, D.18093
	andl	$3, %eax	#, D.18093
	cmpl	$1, %eax	#, D.18093
	je	.L6	#,
	.loc 1 322 0 is_stmt 0 discriminator 1
	movq	PL_op(%rip), %rax	# PL_op, PL_op.13
	movzbl	36(%rax), %eax	# PL_op.13_40->op_flags, D.18092
	movzbl	%al, %eax	# D.18092, D.18093
	andl	$3, %eax	#, D.18093
	cmpl	$2, %eax	#, D.18093
	je	.L7	#,
	movq	PL_op(%rip), %rax	# PL_op, PL_op.15
	movzbl	36(%rax), %eax	# PL_op.15_44->op_flags, D.18092
	movzbl	%al, %eax	# D.18092, D.18093
	andl	$3, %eax	#, D.18093
	cmpl	$3, %eax	#, D.18093
	je	.L8	#,
	call	Perl_block_gimme	#
	jmp	.L11	#
.L8:
	.loc 1 322 0 discriminator 2
	movl	$1, %eax	#, iftmp.14
	jmp	.L11	#
.L7:
	movl	$0, %eax	#, iftmp.12
	jmp	.L11	#
.L6:
	movl	$128, %eax	#, iftmp.10
.L11:
	.loc 1 322 0 discriminator 3
	movl	%eax, -348(%rbp)	# iftmp.10, gimme
	.loc 1 323 0 is_stmt 1 discriminator 3
	movq	$.LC1, -336(%rbp)	#, mode
	.loc 1 325 0 discriminator 3
	movzbl	PL_tainting(%rip), %eax	# PL_tainting, PL_tainting.16
	testb	%al, %al	# PL_tainting.16
	je	.L12	#,
	.loc 1 325 0 is_stmt 0 discriminator 1
	movl	$.LC2, %esi	#,
	movl	$0, %edi	#,
	call	Perl_taint_proper	#
.L12:
	.loc 1 326 0 is_stmt 1
	movq	PL_op(%rip), %rax	# PL_op, PL_op.17
	movzbl	37(%rax), %eax	# PL_op.17_57->op_private, D.18092
	movzbl	%al, %eax	# D.18092, D.18093
	andl	$16, %eax	#, D.18093
	testl	%eax, %eax	# D.18093
	je	.L13	#,
	.loc 1 327 0
	movq	$.LC3, -336(%rbp)	#, mode
	jmp	.L14	#
.L13:
	.loc 1 328 0
	movq	PL_op(%rip), %rax	# PL_op, PL_op.18
	movzbl	37(%rax), %eax	# PL_op.18_62->op_private, D.18092
	movzbl	%al, %eax	# D.18092, D.18093
	andl	$32, %eax	#, D.18093
	testl	%eax, %eax	# D.18093
	je	.L14	#,
	.loc 1 329 0
	movq	$.LC4, -336(%rbp)	#, mode
.L14:
	.loc 1 330 0
	movq	-336(%rbp), %rdx	# mode, tmp161
	movq	-312(%rbp), %rax	# tmps, tmp162
	movq	%rdx, %rsi	# tmp161,
	movq	%rax, %rdi	# tmp162,
	call	Perl_my_popen	#
	movq	%rax, -304(%rbp)	# tmp163, fp
	.loc 1 331 0
	cmpq	$0, -304(%rbp)	#, fp
	je	.L15	#,
.LBB2:
	.loc 1 332 0
	movq	$0, -328(%rbp)	#, type
	.loc 1 333 0
	movq	PL_curcop(%rip), %rax	# PL_curcop, PL_curcop.19
	movq	88(%rax), %rax	# PL_curcop.19_69->cop_io, D.18094
	testq	%rax, %rax	# D.18094
	je	.L16	#,
	.loc 1 334 0
	movq	PL_curcop(%rip), %rax	# PL_curcop, PL_curcop.21
	movq	88(%rax), %rax	# PL_curcop.21_71->cop_io, D.18094
	movl	12(%rax), %eax	# _72->sv_flags, D.18090
	andl	$262144, %eax	#, D.18090
	testl	%eax, %eax	# D.18090
	je	.L17	#,
	.loc 1 334 0 is_stmt 0 discriminator 1
	movq	PL_curcop(%rip), %rax	# PL_curcop, PL_curcop.22
	movq	88(%rax), %rax	# PL_curcop.22_75->cop_io, D.18094
	movq	(%rax), %rax	# _76->sv_any, D.18091
	movq	(%rax), %rax	# MEM[(struct XPV *)_77].xpv_pv, iftmp.20
	jmp	.L18	#
.L17:
	.loc 1 334 0 discriminator 2
	movq	PL_curcop(%rip), %rax	# PL_curcop, PL_curcop.23
	movq	88(%rax), %rax	# PL_curcop.23_79->cop_io, D.18094
	movq	%rax, %rdi	# D.18094,
	call	Perl_sv_2pv_nolen	#
.L18:
	.loc 1 334 0 discriminator 3
	movq	%rax, -328(%rbp)	# iftmp.20, type
.L16:
	.loc 1 336 0 is_stmt 1
	cmpq	$0, -328(%rbp)	#, type
	je	.L19	#,
	.loc 1 336 0 is_stmt 0 discriminator 1
	movq	-328(%rbp), %rax	# type, tmp164
	movzbl	(%rax), %eax	# *type_7, D.18095
	testb	%al, %al	# D.18095
	je	.L19	#,
	.loc 1 337 0 is_stmt 1
	movq	-328(%rbp), %rdx	# type, tmp165
	movq	-336(%rbp), %rcx	# mode, tmp166
	movq	-304(%rbp), %rax	# fp, tmp167
	movq	%rcx, %rsi	# tmp166,
	movq	%rax, %rdi	# tmp167,
	call	PerlIO_apply_layers	#
.L19:
	.loc 1 339 0
	cmpl	$128, -348(%rbp)	#, gimme
	jne	.L20	#,
.LBB3:
	.loc 1 341 0
	nop
.L21:
	.loc 1 341 0 is_stmt 0 discriminator 1
	leaq	-288(%rbp), %rcx	#, tmp168
	movq	-304(%rbp), %rax	# fp, tmp169
	movl	$256, %edx	#,
	movq	%rcx, %rsi	# tmp168,
	movq	%rax, %rdi	# tmp169,
	call	Perl_PerlIO_read	#
	testq	%rax, %rax	# D.18096
	jg	.L21	#,
.LBE3:
	jmp	.L22	#
.L20:
	.loc 1 345 0 is_stmt 1
	cmpl	$0, -348(%rbp)	#, gimme
	jne	.L23	#,
	.loc 1 346 0
	call	Perl_push_scope	#
	.loc 1 347 0
	movl	$PL_rs, %edi	#,
	call	Perl_save_sptr	#
	.loc 1 348 0
	movq	$PL_sv_undef, PL_rs(%rip)	#, PL_rs
	.loc 1 349 0
	movq	-320(%rbp), %rax	# targ, tmp170
	movl	$.LC5, %esi	#,
	movq	%rax, %rdi	# tmp170,
	call	Perl_sv_setpv	#
	.loc 1 350 0
	nop
.L24:
	.loc 1 350 0 is_stmt 0 discriminator 1
	movq	-320(%rbp), %rax	# targ, tmp171
	movq	(%rax), %rax	# targ_20->sv_any, D.18091
	movq	8(%rax), %rax	# MEM[(struct XPV *)_85].xpv_cur, D.18088
	movl	%eax, %edx	# D.18088, D.18093
	movq	-304(%rbp), %rcx	# fp, tmp172
	movq	-320(%rbp), %rax	# targ, tmp173
	movq	%rcx, %rsi	# tmp172,
	movq	%rax, %rdi	# tmp173,
	call	Perl_sv_gets	#
	testq	%rax, %rax	# D.18097
	jne	.L24	#,
	.loc 1 353 0 is_stmt 1
	call	Perl_pop_scope	#
.LBB4:
	.loc 1 354 0
	movq	PL_stack_max(%rip), %rax	# PL_stack_max, PL_stack_max.24
	movq	%rax, %rdx	# PL_stack_max.24, PL_stack_max.25
	movq	%rbx, %rax	# sp, sp.26
	subq	%rax, %rdx	# sp.26, D.18096
	movq	%rdx, %rax	# D.18096, D.18096
	cmpq	$7, %rax	#, D.18096
	jg	.L25	#,
	.loc 1 354 0 is_stmt 0 discriminator 1
	movl	$1, %edx	#,
	movq	%rbx, %rsi	# sp,
	movq	%rbx, %rdi	# sp,
	call	Perl_stack_grow	#
	movq	%rax, %rbx	#, sp
.L25:
	.loc 1 354 0 discriminator 2
	addq	$8, %rbx	#, sp
	movq	-320(%rbp), %rax	# targ, tmp174
	movq	%rax, (%rbx)	# tmp174, *sp_94
.LBE4:
	.loc 1 355 0 is_stmt 1 discriminator 2
	movzbl	PL_tainting(%rip), %eax	# PL_tainting, PL_tainting.27
	testb	%al, %al	# PL_tainting.27
	je	.L22	#,
	.loc 1 355 0 is_stmt 0 discriminator 1
	movq	-320(%rbp), %rax	# targ, tmp175
	movq	%rax, %rdi	# tmp175,
	call	Perl_sv_taint	#
	jmp	.L22	#
.L23:
.LBB5:
	.loc 1 361 0 is_stmt 1
	movl	$79, %edi	#,
	call	Perl_newSV	#
	movq	%rax, -296(%rbp)	# tmp176, sv
	.loc 1 362 0
	movq	-304(%rbp), %rcx	# fp, tmp177
	movq	-296(%rbp), %rax	# sv, tmp178
	movl	$0, %edx	#,
	movq	%rcx, %rsi	# tmp177,
	movq	%rax, %rdi	# tmp178,
	call	Perl_sv_gets	#
	testq	%rax, %rax	# D.18097
	jne	.L27	#,
	.loc 1 363 0
	movq	-296(%rbp), %rax	# sv, tmp179
	movq	%rax, %rdi	# tmp179,
	call	Perl_sv_free	#
	.loc 1 364 0
	jmp	.L22	#
.L27:
.LBB6:
	.loc 1 366 0
	movq	PL_stack_max(%rip), %rax	# PL_stack_max, PL_stack_max.28
	movq	%rax, %rdx	# PL_stack_max.28, PL_stack_max.29
	movq	%rbx, %rax	# sp, sp.30
	subq	%rax, %rdx	# sp.30, D.18096
	movq	%rdx, %rax	# D.18096, D.18096
	cmpq	$7, %rax	#, D.18096
	jg	.L28	#,
	.loc 1 366 0 is_stmt 0 discriminator 1
	movl	$1, %edx	#,
	movq	%rbx, %rsi	# sp,
	movq	%rbx, %rdi	# sp,
	call	Perl_stack_grow	#
	movq	%rax, %rbx	#, sp
.L28:
	.loc 1 366 0 discriminator 2
	addq	$8, %rbx	#, sp
	movq	-296(%rbp), %rax	# sv, tmp180
	movq	%rax, %rdi	# tmp180,
	call	Perl_sv_2mortal	#
	movq	%rax, (%rbx)	# D.18094, *sp_104
.LBE6:
	.loc 1 367 0 is_stmt 1 discriminator 2
	movq	-296(%rbp), %rax	# sv, tmp181
	movq	(%rax), %rax	# sv_97->sv_any, D.18091
	movq	16(%rax), %rdx	# MEM[(struct XPV *)_107].xpv_len, D.18088
	movq	-296(%rbp), %rax	# sv, tmp182
	movq	(%rax), %rax	# sv_97->sv_any, D.18091
	movq	8(%rax), %rax	# MEM[(struct XPV *)_109].xpv_cur, D.18088
	subq	%rax, %rdx	# D.18088, D.18088
	movq	%rdx, %rax	# D.18088, D.18088
	cmpq	$20, %rax	#, D.18088
	jbe	.L29	#,
	.loc 1 368 0
	movq	-296(%rbp), %rax	# sv, tmp183
	movq	(%rax), %rax	# sv_97->sv_any, D.18091
	movq	-296(%rbp), %rdx	# sv, tmp184
	movq	(%rdx), %rdx	# sv_97->sv_any, D.18091
	movq	8(%rdx), %rdx	# MEM[(struct XPV *)_113].xpv_cur, D.18088
	addq	$1, %rdx	#, D.18088
	movq	%rdx, 16(%rax)	# D.18088, MEM[(struct XPV *)_112].xpv_len
	.loc 1 369 0
	movq	-296(%rbp), %rax	# sv, tmp185
	movq	(%rax), %r12	# sv_97->sv_any, D.18091
	movq	-296(%rbp), %rax	# sv, tmp186
	movq	(%rax), %rax	# sv_97->sv_any, D.18091
	movq	16(%rax), %rdx	# MEM[(struct XPV *)_117].xpv_len, D.18088
	movq	-296(%rbp), %rax	# sv, tmp187
	movq	(%rax), %rax	# sv_97->sv_any, D.18091
	movq	(%rax), %rax	# MEM[(struct XPV *)_119].xpv_pv, D.18097
	movq	%rdx, %rsi	# D.18088,
	movq	%rax, %rdi	# D.18097,
	call	Perl_safesysrealloc	#
	movq	%rax, (%r12)	# D.18091, MEM[(struct XPV *)_116].xpv_pv
.L29:
	.loc 1 371 0
	movzbl	PL_tainting(%rip), %eax	# PL_tainting, PL_tainting.31
	testb	%al, %al	# PL_tainting.31
	je	.L30	#,
	.loc 1 371 0 is_stmt 0 discriminator 1
	movq	-296(%rbp), %rax	# sv, tmp188
	movq	%rax, %rdi	# tmp188,
	call	Perl_sv_taint	#
	.loc 1 372 0 is_stmt 1 discriminator 1
	jmp	.L23	#
.L30:
	.loc 1 372 0 is_stmt 0
	jmp	.L23	#
.L22:
.LBE5:
.LBB7:
	.loc 1 374 0 is_stmt 1
	movq	-304(%rbp), %rax	# fp, tmp189
	movq	%rax, %rdi	# tmp189,
	call	Perl_my_pclose	#
	movl	%eax, PL_statusvalue(%rip)	# PL_statusvalue.32, PL_statusvalue
	movl	PL_statusvalue(%rip), %eax	# PL_statusvalue, PL_statusvalue.33
	cmpl	$-1, %eax	#, PL_statusvalue.33
	je	.L31	#,
	.loc 1 374 0 is_stmt 0 discriminator 1
	movl	PL_statusvalue(%rip), %eax	# PL_statusvalue, PL_statusvalue.34
	movzwl	%ax, %eax	# PL_statusvalue.34, PL_statusvalue.35
	movl	%eax, PL_statusvalue(%rip)	# PL_statusvalue.35, PL_statusvalue
.L31:
.LBE7:
	.loc 1 375 0 is_stmt 1
	movb	$1, PL_tainted(%rip)	#, PL_tainted
.LBE2:
	jmp	.L32	#
.L15:
.LBB8:
	.loc 1 378 0
	movl	$-1, PL_statusvalue(%rip)	#, PL_statusvalue
	movl	PL_statusvalue(%rip), %eax	# PL_statusvalue, PL_statusvalue.36
	cmpl	$-1, %eax	#, PL_statusvalue.36
	je	.L33	#,
	.loc 1 378 0 is_stmt 0 discriminator 1
	movl	PL_statusvalue(%rip), %eax	# PL_statusvalue, PL_statusvalue.37
	movzwl	%ax, %eax	# PL_statusvalue.37, PL_statusvalue.38
	movl	%eax, PL_statusvalue(%rip)	# PL_statusvalue.38, PL_statusvalue
.L33:
.LBE8:
	.loc 1 379 0 is_stmt 1
	cmpl	$0, -348(%rbp)	#, gimme
	jne	.L32	#,
	.loc 1 380 0
	addq	$8, %rbx	#, sp
	movq	$PL_sv_undef, (%rbx)	#, *sp_130
	movq	%rbx, PL_stack_sp(%rip)	# sp, PL_stack_sp
	movq	PL_op(%rip), %rax	# PL_op, PL_op.39
	movq	(%rax), %rax	# PL_op.39_131->op_next, D.18087
	jmp	.L35	#
.L32:
	.loc 1 383 0
	movq	%rbx, PL_stack_sp(%rip)	# sp, PL_stack_sp
	movq	PL_op(%rip), %rax	# PL_op, PL_op.40
	movq	(%rax), %rax	# PL_op.40_133->op_next, D.18087
.L35:
	.loc 1 384 0
	movq	-24(%rbp), %rcx	# D.18098, tmp192
	xorq	%fs:40, %rcx	#, tmp192
	je	.L36	#,
	call	__stack_chk_fail	#
.L36:
	addq	$336, %rsp	#,
	popq	%rbx	#
	popq	%r12	#
	popq	%rbp	#
	.cfi_def_cfa 7, 8
	ret
	.cfi_endproc
.LFE3:
	.size	Perl_pp_backtick, .-Perl_pp_backtick
	.section	.rodata
.LC6:
	.string	"glob"
.LC7:
	.string	""
	.string	""
	.text
	.globl	Perl_pp_glob
	.type	Perl_pp_glob, @function
Perl_pp_glob:
.LFB4:
	.loc 1 387 0
	.cfi_startproc
	pushq	%rbp	#
	.cfi_def_cfa_offset 16
	.cfi_offset 6, -16
	movq	%rsp, %rbp	#,
	.cfi_def_cfa_register 6
	pushq	%rbx	#
	subq	$40, %rsp	#,
	.cfi_offset 3, -24
.LBB9:
	.loc 1 389 0
	movq	PL_stack_sp(%rip), %rbx	# PL_stack_sp, sp
	subq	$8, %rbx	#, sp
.LBB10:
	movq	PL_op(%rip), %rax	# PL_op, PL_op.42
	movzbl	36(%rax), %eax	# PL_op.42_5->op_flags, D.18107
	movzbl	%al, %eax	# D.18107, D.18108
	andl	$64, %eax	#, D.18108
	testl	%eax, %eax	# D.18108
	je	.L38	#,
	.loc 1 389 0 is_stmt 0 discriminator 1
	movq	%rbx, %rax	# sp, sp.43
	leaq	-8(%rax), %rbx	#, sp
	movq	(%rax), %rax	# *sp.43_9, iftmp.41
	jmp	.L39	#
.L38:
	.loc 1 389 0 discriminator 2
	movq	PL_curpad(%rip), %rdx	# PL_curpad, PL_curpad.44
	movq	PL_op(%rip), %rax	# PL_op, PL_op.45
	movq	24(%rax), %rax	# PL_op.45_13->op_targ, D.18109
	salq	$3, %rax	#, D.18109
	addq	%rdx, %rax	# PL_curpad.44, D.18110
	movq	(%rax), %rax	# *_16, iftmp.41
.L39:
	.loc 1 389 0 discriminator 3
	movq	%rax, -48(%rbp)	# iftmp.41, targ
.LBB11:
	movq	PL_stack_sp(%rip), %rbx	# PL_stack_sp, sp
	movq	PL_amagic_generation(%rip), %rax	# PL_amagic_generation, PL_amagic_generation.46
	testq	%rax, %rax	# PL_amagic_generation.46
	je	.L40	#,
.LBB12:
	.loc 1 389 0 discriminator 1
	movq	-8(%rbx), %rax	# MEM[(struct SV * *)sp_19 + -8B], tmp88
	movq	%rax, -40(%rbp)	# tmp88, arg
.L41:
	movq	-40(%rbp), %rax	# arg, tmp89
	movl	12(%rax), %eax	# arg_21->sv_flags, D.18111
	andl	$268435456, %eax	#, D.18111
	testl	%eax, %eax	# D.18111
	je	.L40	#,
	movq	-40(%rbp), %rax	# arg, tmp90
	movl	$9, %ecx	#,
	movl	$63, %edx	#,
	movl	$PL_sv_undef, %esi	#,
	movq	%rax, %rdi	# tmp90,
	call	Perl_amagic_call	#
	movq	%rax, -32(%rbp)	# tmp91, tmpsv
	cmpq	$0, -32(%rbp)	#, tmpsv
	je	.L40	#,
	movq	PL_stack_sp(%rip), %rbx	# PL_stack_sp, sp
	subq	$8, %rbx	#, sp
.LBB13:
	movq	-32(%rbp), %rcx	# tmpsv, tmp92
	movq	-48(%rbp), %rax	# targ, tmp93
	movl	$2, %edx	#,
	movq	%rcx, %rsi	# tmp92,
	movq	%rax, %rdi	# tmp93,
	call	Perl_sv_setsv_flags	#
.LBB14:
	movq	-48(%rbp), %rax	# targ, tmp94
	movl	12(%rax), %eax	# targ_18->sv_flags, D.18111
	andl	$16384, %eax	#, D.18111
	testl	%eax, %eax	# D.18111
	je	.L42	#,
	movq	-48(%rbp), %rax	# targ, tmp95
	movq	%rax, %rdi	# tmp95,
	call	Perl_mg_set	#
.L42:
	.loc 1 389 0 discriminator 2
	movq	-48(%rbp), %rax	# targ, tmp96
	movq	%rax, (%rbx)	# tmp96, *sp_26
.LBE14:
.LBE13:
	movq	%rbx, PL_stack_sp(%rip)	# sp, PL_stack_sp
	movq	PL_op(%rip), %rax	# PL_op, PL_op.47
	movq	(%rax), %rax	# PL_op.47_30->op_next, D.18106
	jmp	.L43	#
.L40:
.LBE12:
.LBE11:
.LBE10:
.LBE9:
	.loc 1 395 0 is_stmt 1
	call	Perl_push_scope	#
	.loc 1 398 0
	movzbl	PL_tainting(%rip), %eax	# PL_tainting, PL_tainting.48
	testb	%al, %al	# PL_tainting.48
	je	.L44	#,
	.loc 1 403 0
	movb	$1, PL_tainted(%rip)	#, PL_tainted
	.loc 1 404 0
	movl	$.LC6, %esi	#,
	movl	$PL_no_security, %edi	#,
	call	Perl_taint_proper	#
.L44:
	.loc 1 408 0
	movl	$PL_last_in_gv, %edi	#,
	call	Perl_save_sptr	#
	.loc 1 409 0
	movq	PL_stack_sp(%rip), %rax	# PL_stack_sp, PL_stack_sp.49
	leaq	-8(%rax), %rdx	#, PL_stack_sp.51
	movq	%rdx, PL_stack_sp(%rip)	# PL_stack_sp.51, PL_stack_sp
	movq	(%rax), %rax	# *PL_stack_sp.50_34, PL_last_in_gv.52
	movq	%rax, PL_last_in_gv(%rip)	# PL_last_in_gv.52, PL_last_in_gv
	.loc 1 411 0
	movl	$PL_rs, %edi	#,
	call	Perl_save_sptr	#
	.loc 1 412 0
	movl	$1, %esi	#,
	movl	$.LC7, %edi	#,
	call	Perl_newSVpvn	#
	movq	%rax, %rdi	# D.18112,
	call	Perl_sv_2mortal	#
	movq	%rax, PL_rs(%rip)	# PL_rs.53, PL_rs
	.loc 1 419 0
	call	Perl_do_readline	#
	movq	%rax, -24(%rbp)	# tmp97, result
	.loc 1 420 0
	call	Perl_pop_scope	#
	.loc 1 421 0
	movq	-24(%rbp), %rax	# result, D.18106
.L43:
	.loc 1 422 0
	addq	$40, %rsp	#,
	popq	%rbx	#
	popq	%rbp	#
	.cfi_def_cfa 7, 8
	ret
	.cfi_endproc
.LFE4:
	.size	Perl_pp_glob, .-Perl_pp_glob
	.globl	Perl_pp_rcatline
	.type	Perl_pp_rcatline, @function
Perl_pp_rcatline:
.LFB5:
	.loc 1 425 0
	.cfi_startproc
	pushq	%rbp	#
	.cfi_def_cfa_offset 16
	.cfi_offset 6, -16
	movq	%rsp, %rbp	#,
	.cfi_def_cfa_register 6
	.loc 1 426 0
	movq	PL_op(%rip), %rax	# PL_op, PL_op.54
	movq	40(%rax), %rax	# MEM[(struct SVOP *)PL_op.54_1].op_sv, PL_last_in_gv.55
	movq	%rax, PL_last_in_gv(%rip)	# PL_last_in_gv.55, PL_last_in_gv
	.loc 1 427 0
	call	Perl_do_readline	#
	.loc 1 428 0
	popq	%rbp	#
	.cfi_def_cfa 7, 8
	ret
	.cfi_endproc
.LFE5:
	.size	Perl_pp_rcatline, .-Perl_pp_rcatline
	.section	.rodata
.LC8:
	.string	"\t...caught"
.LC9:
	.string	"Warning: something's wrong"
.LC10:
	.string	"%_"
	.text
	.globl	Perl_pp_warn
	.type	Perl_pp_warn, @function
Perl_pp_warn:
.LFB6:
	.loc 1 431 0
	.cfi_startproc
	pushq	%rbp	#
	.cfi_def_cfa_offset 16
	.cfi_offset 6, -16
	movq	%rsp, %rbp	#,
	.cfi_def_cfa_register 6
	pushq	%r12	#
	pushq	%rbx	#
	subq	$48, %rsp	#,
	.cfi_offset 12, -24
	.cfi_offset 3, -32
	.loc 1 432 0
	movq	PL_stack_sp(%rip), %rbx	# PL_stack_sp, sp
	movq	PL_stack_base(%rip), %rcx	# PL_stack_base, PL_stack_base.56
	movq	PL_markstack_ptr(%rip), %rax	# PL_markstack_ptr, PL_markstack_ptr.57
	leaq	-4(%rax), %rdx	#, PL_markstack_ptr.59
	movq	%rdx, PL_markstack_ptr(%rip)	# PL_markstack_ptr.59, PL_markstack_ptr
	movl	(%rax), %eax	# *PL_markstack_ptr.58_11, D.18116
	cltq
	salq	$3, %rax	#, D.18117
	leaq	(%rcx,%rax), %r12	#, mark
	.loc 1 436 0
	movq	%rbx, %rdx	# sp, sp.60
	movq	%r12, %rax	# mark, mark.61
	subq	%rax, %rdx	# mark.61, D.18118
	movq	%rdx, %rax	# D.18118, D.18118
	subq	$8, %rax	#, D.18119
	cmpq	$7, %rax	#, D.18119
	jbe	.L48	#,
.LBB15:
	.loc 1 437 0
	movq	PL_curpad(%rip), %rdx	# PL_curpad, PL_curpad.62
	movq	PL_op(%rip), %rax	# PL_op, PL_op.63
	movq	24(%rax), %rax	# PL_op.63_23->op_targ, D.18117
	salq	$3, %rax	#, D.18117
	addq	%rdx, %rax	# PL_curpad.62, D.18120
	movq	(%rax), %rax	# *_26, tmp109
	movq	%rax, -32(%rbp)	# tmp109, targ
	.loc 1 438 0
	movq	-32(%rbp), %rax	# targ, tmp110
	movq	%rbx, %rcx	# sp,
	movq	%r12, %rdx	# mark,
	movl	$PL_sv_no, %esi	#,
	movq	%rax, %rdi	# tmp110,
	call	Perl_do_join	#
	.loc 1 439 0
	movq	-32(%rbp), %rax	# targ, tmp111
	movq	%rax, -48(%rbp)	# tmp111, tmpsv
	.loc 1 440 0
	leaq	8(%r12), %rbx	#, sp
.LBE15:
	jmp	.L49	#
.L48:
	.loc 1 443 0
	movq	(%rbx), %rax	# *sp_8, tmp112
	movq	%rax, -48(%rbp)	# tmp112, tmpsv
.L49:
	.loc 1 445 0
	movq	-48(%rbp), %rax	# tmpsv, tmp113
	movl	12(%rax), %eax	# tmpsv_2->sv_flags, D.18121
	andl	$262144, %eax	#, D.18121
	testl	%eax, %eax	# D.18121
	je	.L50	#,
	.loc 1 445 0 is_stmt 0 discriminator 1
	movq	-48(%rbp), %rax	# tmpsv, tmp114
	movq	(%rax), %rax	# tmpsv_2->sv_any, D.18122
	movq	8(%rax), %rax	# MEM[(struct XPV *)_33].xpv_cur, len.65
	movq	%rax, -56(%rbp)	# len.65, len
	movq	-48(%rbp), %rax	# tmpsv, tmp115
	movq	(%rax), %rax	# tmpsv_2->sv_any, D.18122
	movq	(%rax), %rax	# MEM[(struct XPV *)_35].xpv_pv, iftmp.64
	jmp	.L51	#
.L50:
	.loc 1 445 0 discriminator 2
	leaq	-56(%rbp), %rcx	#, tmp116
	movq	-48(%rbp), %rax	# tmpsv, tmp117
	movl	$2, %edx	#,
	movq	%rcx, %rsi	# tmp116,
	movq	%rax, %rdi	# tmp117,
	call	Perl_sv_2pv_flags	#
.L51:
	.loc 1 445 0 discriminator 3
	movq	%rax, -40(%rbp)	# iftmp.64, tmps
	.loc 1 446 0 is_stmt 1 discriminator 3
	cmpq	$0, -40(%rbp)	#, tmps
	je	.L52	#,
	.loc 1 446 0 is_stmt 0 discriminator 2
	movq	-56(%rbp), %rax	# len, len.66
	testq	%rax, %rax	# len.66
	jne	.L53	#,
.L52:
	.loc 1 446 0 discriminator 1
	movq	PL_errgv(%rip), %rax	# PL_errgv, PL_errgv.67
	testq	%rax, %rax	# PL_errgv.67
	je	.L53	#,
.LBB16:
	.loc 1 447 0 is_stmt 1
	movq	PL_errgv(%rip), %rax	# PL_errgv, PL_errgv.68
	movq	(%rax), %rax	# PL_errgv.68_41->sv_any, D.18123
	movq	56(%rax), %rax	# _42->xgv_gp, D.18124
	movq	(%rax), %rax	# _43->gp_sv, tmp118
	movq	%rax, -24(%rbp)	# tmp118, error
	.loc 1 448 0
	movq	-24(%rbp), %rax	# error, tmp119
	movl	12(%rax), %eax	# error_44->sv_flags, D.18121
	movzbl	%al, %eax	# D.18121, D.18121
	cmpl	$3, %eax	#, D.18121
	ja	.L54	#,
	.loc 1 448 0 is_stmt 0 discriminator 2
	movq	-24(%rbp), %rax	# error, tmp120
	movl	$4, %esi	#,
	movq	%rax, %rdi	# tmp120,
	call	Perl_sv_upgrade	#
	testb	%al, %al	# D.18125
	je	.L56	#,
.L54:
	.loc 1 448 0 discriminator 1
	nop
.L56:
	.loc 1 449 0 is_stmt 1
	movq	-24(%rbp), %rax	# error, tmp121
	movl	12(%rax), %eax	# error_44->sv_flags, D.18121
	andl	$262144, %eax	#, D.18121
	testl	%eax, %eax	# D.18121
	je	.L57	#,
	.loc 1 449 0 is_stmt 0 discriminator 1
	movq	-24(%rbp), %rax	# error, tmp122
	movq	(%rax), %rax	# error_44->sv_any, D.18122
	movq	8(%rax), %rax	# MEM[(struct XPV *)_52].xpv_cur, D.18117
	testq	%rax, %rax	# D.18117
	je	.L57	#,
	.loc 1 450 0 is_stmt 1
	movq	-24(%rbp), %rax	# error, tmp123
	movl	$.LC8, %esi	#,
	movq	%rax, %rdi	# tmp123,
	call	Perl_sv_catpv	#
.L57:
	.loc 1 451 0
	movq	-24(%rbp), %rax	# error, tmp124
	movq	%rax, -48(%rbp)	# tmp124, tmpsv
	.loc 1 452 0
	movq	-48(%rbp), %rax	# tmpsv, tmp125
	movl	12(%rax), %eax	# tmpsv_54->sv_flags, D.18121
	andl	$262144, %eax	#, D.18121
	testl	%eax, %eax	# D.18121
	je	.L58	#,
	.loc 1 452 0 is_stmt 0 discriminator 1
	movq	-48(%rbp), %rax	# tmpsv, tmp126
	movq	(%rax), %rax	# tmpsv_54->sv_any, D.18122
	movq	8(%rax), %rax	# MEM[(struct XPV *)_57].xpv_cur, len.71
	movq	%rax, -56(%rbp)	# len.71, len
	movq	-48(%rbp), %rax	# tmpsv, tmp127
	movq	(%rax), %rax	# tmpsv_54->sv_any, D.18122
	movq	(%rax), %rax	# MEM[(struct XPV *)_59].xpv_pv, iftmp.70
	jmp	.L59	#
.L58:
	.loc 1 452 0 discriminator 2
	leaq	-56(%rbp), %rcx	#, tmp128
	movq	-48(%rbp), %rax	# tmpsv, tmp129
	movl	$2, %edx	#,
	movq	%rcx, %rsi	# tmp128,
	movq	%rax, %rdi	# tmp129,
	call	Perl_sv_2pv_flags	#
.L59:
	.loc 1 452 0 discriminator 3
	movq	%rax, -40(%rbp)	# iftmp.70, tmps
.L53:
.LBE16:
	.loc 1 454 0 is_stmt 1
	cmpq	$0, -40(%rbp)	#, tmps
	je	.L60	#,
	.loc 1 454 0 is_stmt 0 discriminator 1
	movq	-56(%rbp), %rax	# len, len.72
	testq	%rax, %rax	# len.72
	jne	.L61	#,
.L60:
	.loc 1 455 0 is_stmt 1
	movl	$26, %esi	#,
	movl	$.LC9, %edi	#,
	call	Perl_newSVpvn	#
	movq	%rax, %rdi	# D.18126,
	call	Perl_sv_2mortal	#
	movq	%rax, -48(%rbp)	# tmp130, tmpsv
.L61:
	.loc 1 457 0
	movq	-48(%rbp), %rax	# tmpsv, tmp131
	movq	%rax, %rsi	# tmp131,
	movl	$.LC10, %edi	#,
	movl	$0, %eax	#,
	call	Perl_warn	#
	.loc 1 458 0
	movq	$PL_sv_yes, (%rbx)	#, *sp_1
	movq	%rbx, PL_stack_sp(%rip)	# sp, PL_stack_sp
	movq	PL_op(%rip), %rax	# PL_op, PL_op.73
	movq	(%rax), %rax	# PL_op.73_66->op_next, D.18127
	.loc 1 459 0
	addq	$48, %rsp	#,
	popq	%rbx	#
	popq	%r12	#
	popq	%rbp	#
	.cfi_def_cfa 7, 8
	ret
	.cfi_endproc
.LFE6:
	.size	Perl_pp_warn, .-Perl_pp_warn
	.section	.rodata
.LC11:
	.string	"PROPAGATE"
.LC12:
	.string	"\t...propagated"
.LC13:
	.string	"Died"
	.text
	.globl	Perl_pp_die
	.type	Perl_pp_die, @function
Perl_pp_die:
.LFB7:
	.loc 1 462 0
	.cfi_startproc
	pushq	%rbp	#
	.cfi_def_cfa_offset 16
	.cfi_offset 6, -16
	movq	%rsp, %rbp	#,
	.cfi_def_cfa_register 6
	pushq	%r12	#
	pushq	%rbx	#
	subq	$80, %rsp	#,
	.cfi_offset 12, -24
	.cfi_offset 3, -32
	.loc 1 463 0
	movq	PL_stack_sp(%rip), %rbx	# PL_stack_sp, sp
	movq	PL_stack_base(%rip), %rcx	# PL_stack_base, PL_stack_base.74
	movq	PL_markstack_ptr(%rip), %rax	# PL_markstack_ptr, PL_markstack_ptr.75
	leaq	-4(%rax), %rdx	#, PL_markstack_ptr.77
	movq	%rdx, PL_markstack_ptr(%rip)	# PL_markstack_ptr.77, PL_markstack_ptr
	movl	(%rax), %eax	# *PL_markstack_ptr.76_20, D.18132
	cltq
	salq	$3, %rax	#, D.18133
	leaq	(%rcx,%rax), %r12	#, mark
	.loc 1 467 0
	movb	$0, -89(%rbp)	#, multiarg
	.loc 1 471 0
	movq	%rbx, %rdx	# sp, sp.78
	movq	%r12, %rax	# mark, mark.79
	subq	%rax, %rdx	# mark.79, D.18134
	movq	%rdx, %rax	# D.18134, D.18134
	subq	$8, %rax	#, D.18135
	cmpq	$7, %rax	#, D.18135
	jbe	.L64	#,
.LBB17:
	.loc 1 472 0
	movq	PL_curpad(%rip), %rdx	# PL_curpad, PL_curpad.80
	movq	PL_op(%rip), %rax	# PL_op, PL_op.81
	movq	24(%rax), %rax	# PL_op.81_33->op_targ, D.18133
	salq	$3, %rax	#, D.18133
	addq	%rdx, %rax	# PL_curpad.80, D.18136
	movq	(%rax), %rax	# *_36, tmp169
	movq	%rax, -64(%rbp)	# tmp169, targ
	.loc 1 473 0
	movq	-64(%rbp), %rax	# targ, tmp170
	movq	%rbx, %rcx	# sp,
	movq	%r12, %rdx	# mark,
	movl	$PL_sv_no, %esi	#,
	movq	%rax, %rdi	# tmp170,
	call	Perl_do_join	#
	.loc 1 474 0
	movq	-64(%rbp), %rax	# targ, tmp171
	movq	%rax, -72(%rbp)	# tmp171, tmpsv
	.loc 1 475 0
	movq	-72(%rbp), %rax	# tmpsv, tmp172
	movl	12(%rax), %eax	# tmpsv_38->sv_flags, D.18137
	andl	$262144, %eax	#, D.18137
	testl	%eax, %eax	# D.18137
	je	.L65	#,
	.loc 1 475 0 is_stmt 0 discriminator 1
	movq	-72(%rbp), %rax	# tmpsv, tmp173
	movq	(%rax), %rax	# tmpsv_38->sv_any, D.18138
	movq	8(%rax), %rax	# MEM[(struct XPV *)_41].xpv_cur, len.83
	movq	%rax, -88(%rbp)	# len.83, len
	movq	-72(%rbp), %rax	# tmpsv, tmp174
	movq	(%rax), %rax	# tmpsv_38->sv_any, D.18138
	movq	(%rax), %rax	# MEM[(struct XPV *)_43].xpv_pv, iftmp.82
	jmp	.L66	#
.L65:
	.loc 1 475 0 discriminator 2
	leaq	-88(%rbp), %rcx	#, tmp175
	movq	-72(%rbp), %rax	# tmpsv, tmp176
	movl	$2, %edx	#,
	movq	%rcx, %rsi	# tmp175,
	movq	%rax, %rdi	# tmp176,
	call	Perl_sv_2pv_flags	#
.L66:
	.loc 1 475 0 discriminator 1
	movq	%rax, -80(%rbp)	# iftmp.82, tmps
	.loc 1 476 0 is_stmt 1 discriminator 1
	movb	$1, -89(%rbp)	#, multiarg
	.loc 1 477 0 discriminator 1
	leaq	8(%r12), %rbx	#, sp
.LBE17:
	jmp	.L67	#
.L64:
	.loc 1 480 0
	movq	(%rbx), %rax	# *sp_17, tmp177
	movq	%rax, -72(%rbp)	# tmp177, tmpsv
	.loc 1 481 0
	movq	-72(%rbp), %rax	# tmpsv, tmp178
	movl	12(%rax), %eax	# tmpsv_49->sv_flags, D.18137
	andl	$524288, %eax	#, D.18137
	testl	%eax, %eax	# D.18137
	jne	.L68	#,
	.loc 1 481 0 is_stmt 0 discriminator 1
	movq	-72(%rbp), %rax	# tmpsv, tmp179
	movl	12(%rax), %eax	# tmpsv_49->sv_flags, D.18137
	andl	$262144, %eax	#, D.18137
	testl	%eax, %eax	# D.18137
	je	.L69	#,
	movq	-72(%rbp), %rax	# tmpsv, tmp180
	movq	(%rax), %rax	# tmpsv_49->sv_any, D.18138
	movq	8(%rax), %rax	# MEM[(struct XPV *)_54].xpv_cur, len.86
	movq	%rax, -88(%rbp)	# len.86, len
	movq	-72(%rbp), %rax	# tmpsv, tmp181
	movq	(%rax), %rax	# tmpsv_49->sv_any, D.18138
	movq	(%rax), %rax	# MEM[(struct XPV *)_56].xpv_pv, iftmp.85
	jmp	.L71	#
.L69:
	.loc 1 481 0 discriminator 2
	leaq	-88(%rbp), %rcx	#, tmp182
	movq	-72(%rbp), %rax	# tmpsv, tmp183
	movl	$2, %edx	#,
	movq	%rcx, %rsi	# tmp182,
	movq	%rax, %rdi	# tmp183,
	call	Perl_sv_2pv_flags	#
	jmp	.L71	#
.L68:
	movl	$0, %eax	#, iftmp.84
.L71:
	.loc 1 481 0 discriminator 3
	movq	%rax, -80(%rbp)	# iftmp.84, tmps
.L67:
	.loc 1 483 0 is_stmt 1
	cmpq	$0, -80(%rbp)	#, tmps
	je	.L72	#,
	.loc 1 483 0 is_stmt 0 discriminator 1
	movq	-88(%rbp), %rax	# len, len.87
	testq	%rax, %rax	# len.87
	jne	.L73	#,
.L72:
.LBB18:
	.loc 1 484 0 is_stmt 1
	movq	PL_errgv(%rip), %rax	# PL_errgv, PL_errgv.88
	movq	(%rax), %rax	# PL_errgv.88_63->sv_any, D.18139
	movq	56(%rax), %rax	# _64->xgv_gp, D.18140
	movq	(%rax), %rax	# _65->gp_sv, tmp184
	movq	%rax, -56(%rbp)	# tmp184, error
	.loc 1 485 0
	movq	-56(%rbp), %rax	# error, tmp185
	movl	12(%rax), %eax	# error_66->sv_flags, D.18137
	movzbl	%al, %eax	# D.18137, D.18137
	cmpl	$3, %eax	#, D.18137
	ja	.L74	#,
	.loc 1 485 0 is_stmt 0 discriminator 2
	movq	-56(%rbp), %rax	# error, tmp186
	movl	$4, %esi	#,
	movq	%rax, %rdi	# tmp186,
	call	Perl_sv_upgrade	#
	testb	%al, %al	# D.18141
	je	.L76	#,
.L74:
	.loc 1 485 0 discriminator 1
	nop
.L76:
	.loc 1 486 0 is_stmt 1
	cmpb	$0, -89(%rbp)	#, multiarg
	je	.L77	#,
	.loc 1 486 0 is_stmt 0 discriminator 1
	movq	-56(%rbp), %rax	# error, tmp187
	movl	12(%rax), %eax	# error_66->sv_flags, D.18137
	andl	$524288, %eax	#, D.18137
	testl	%eax, %eax	# D.18137
	setne	%al	#, iftmp.90
	jmp	.L78	#
.L77:
	.loc 1 486 0 discriminator 2
	movq	-72(%rbp), %rax	# tmpsv, tmp188
	movl	12(%rax), %eax	# tmpsv_5->sv_flags, D.18137
	andl	$524288, %eax	#, D.18137
	testl	%eax, %eax	# D.18137
	setne	%al	#, iftmp.90
.L78:
	.loc 1 486 0 discriminator 3
	testb	%al, %al	# iftmp.90
	je	.L79	#,
	.loc 1 487 0 is_stmt 1
	cmpb	$0, -89(%rbp)	#, multiarg
	jne	.L80	#,
	.loc 1 488 0
	movq	-56(%rbp), %rax	# error, tmp189
	cmpq	-72(%rbp), %rax	# tmpsv, tmp189
	je	.L82	#,
	.loc 1 488 0 is_stmt 0 discriminator 1
	movq	-72(%rbp), %rcx	# tmpsv, tmp190
	movq	-56(%rbp), %rax	# error, tmp191
	movl	$2, %edx	#,
	movq	%rcx, %rsi	# tmp190,
	movq	%rax, %rdi	# tmp191,
	call	Perl_sv_setsv_flags	#
	jmp	.L82	#
.L80:
	.loc 1 489 0 is_stmt 1
	movq	-56(%rbp), %rax	# error, tmp192
	movq	%rax, %rdi	# tmp192,
	call	Perl_sv_isobject	#
	testl	%eax, %eax	# D.18132
	je	.L82	#,
.LBB19:
	.loc 1 490 0
	movq	-56(%rbp), %rax	# error, tmp193
	movq	(%rax), %rax	# error_66->sv_any, D.18138
	movq	(%rax), %rax	# MEM[(struct XRV *)_79].xrv_rv, D.18142
	movq	(%rax), %rax	# _80->sv_any, D.18138
	movq	48(%rax), %rax	# MEM[(struct XPVMG *)_81].xmg_stash, tmp194
	movq	%rax, -48(%rbp)	# tmp194, stash
	.loc 1 491 0
	movq	-48(%rbp), %rax	# stash, tmp195
	movl	$.LC11, %esi	#,
	movq	%rax, %rdi	# tmp195,
	call	Perl_gv_fetchmethod	#
	movq	%rax, -40(%rbp)	# tmp196, gv
	.loc 1 492 0
	cmpq	$0, -40(%rbp)	#, gv
	je	.L82	#,
.LBB20:
	.loc 1 493 0
	movq	PL_curcop(%rip), %rax	# PL_curcop, PL_curcop.92
	movq	56(%rax), %rax	# PL_curcop.92_84->cop_filegv, D.18143
	testq	%rax, %rax	# D.18143
	je	.L83	#,
	.loc 1 493 0 is_stmt 0 discriminator 1
	movq	PL_curcop(%rip), %rax	# PL_curcop, PL_curcop.93
	movq	56(%rax), %rax	# PL_curcop.93_86->cop_filegv, D.18143
	movq	(%rax), %rax	# _87->sv_any, D.18139
	movq	56(%rax), %rax	# _88->xgv_gp, D.18140
	movq	(%rax), %rax	# _89->gp_sv, D.18142
	testq	%rax, %rax	# D.18142
	je	.L83	#,
	movq	PL_curcop(%rip), %rax	# PL_curcop, PL_curcop.95
	movq	56(%rax), %rax	# PL_curcop.95_91->cop_filegv, D.18143
	testq	%rax, %rax	# D.18143
	je	.L84	#,
	movq	PL_curcop(%rip), %rax	# PL_curcop, PL_curcop.96
	movq	56(%rax), %rax	# PL_curcop.96_93->cop_filegv, D.18143
	movq	(%rax), %rax	# _94->sv_any, D.18139
	movq	56(%rax), %rax	# _95->xgv_gp, D.18140
	movq	(%rax), %rax	# _96->gp_sv, iftmp.94
	jmp	.L85	#
.L84:
	.loc 1 493 0 discriminator 2
	movl	$0, %eax	#, iftmp.94
.L85:
	.loc 1 493 0 discriminator 3
	movq	(%rax), %rax	# iftmp.94_14->sv_any, D.18138
	movq	(%rax), %rax	# MEM[(struct XPV *)_99].xpv_pv, iftmp.91
	jmp	.L86	#
.L83:
	.loc 1 493 0 discriminator 2
	movl	$0, %eax	#, iftmp.91
.L86:
	.loc 1 493 0 discriminator 3
	movl	$0, %esi	#,
	movq	%rax, %rdi	# iftmp.91,
	call	Perl_newSVpv	#
	movq	%rax, %rdi	# D.18142,
	call	Perl_sv_2mortal	#
	movq	%rax, -32(%rbp)	# tmp197, file
	.loc 1 494 0 is_stmt 1 discriminator 3
	movq	PL_curcop(%rip), %rax	# PL_curcop, PL_curcop.97
	movl	72(%rax), %eax	# PL_curcop.97_104->cop_line, D.18137
	movl	%eax, %eax	# D.18137, D.18133
	movq	%rax, %rdi	# D.18133,
	call	Perl_newSVuv	#
	movq	%rax, %rdi	# D.18142,
	call	Perl_sv_2mortal	#
	movq	%rax, -24(%rbp)	# tmp198, line
	.loc 1 495 0 discriminator 3
	movq	PL_stack_max(%rip), %rax	# PL_stack_max, PL_stack_max.98
	movq	%rax, %rdx	# PL_stack_max.98, PL_stack_max.99
	movq	%rbx, %rax	# sp, sp.100
	subq	%rax, %rdx	# sp.100, D.18134
	movq	%rdx, %rax	# D.18134, D.18134
	cmpq	$23, %rax	#, D.18134
	jg	.L87	#,
	.loc 1 495 0 is_stmt 0 discriminator 1
	movl	$3, %edx	#,
	movq	%rbx, %rsi	# sp,
	movq	%rbx, %rdi	# sp,
	call	Perl_stack_grow	#
	movq	%rax, %rbx	#, sp
.L87:
.LBB21:
	.loc 1 496 0 is_stmt 1
	movq	PL_markstack_ptr(%rip), %rax	# PL_markstack_ptr, PL_markstack_ptr.101
	addq	$4, %rax	#, PL_markstack_ptr.102
	movq	%rax, PL_markstack_ptr(%rip)	# PL_markstack_ptr.102, PL_markstack_ptr
	movq	PL_markstack_ptr(%rip), %rdx	# PL_markstack_ptr, PL_markstack_ptr.103
	movq	PL_markstack_max(%rip), %rax	# PL_markstack_max, PL_markstack_max.104
	cmpq	%rax, %rdx	# PL_markstack_max.104, PL_markstack_ptr.103
	jne	.L88	#,
	.loc 1 496 0 is_stmt 0 discriminator 1
	call	Perl_markstack_grow	#
.L88:
	.loc 1 496 0 discriminator 2
	movq	PL_markstack_ptr(%rip), %rax	# PL_markstack_ptr, PL_markstack_ptr.105
	movq	%rbx, %rcx	# sp, sp.106
	movq	PL_stack_base(%rip), %rdx	# PL_stack_base, PL_stack_base.107
	subq	%rdx, %rcx	# PL_stack_base.108, D.18134
	movq	%rcx, %rdx	# D.18134, D.18134
	sarq	$3, %rdx	#, tmp199
	movl	%edx, (%rax)	# D.18132, *PL_markstack_ptr.105_118
.LBE21:
	.loc 1 497 0 is_stmt 1 discriminator 2
	addq	$8, %rbx	#, sp
	movq	-56(%rbp), %rax	# error, tmp200
	movq	%rax, (%rbx)	# tmp200, *sp_126
	.loc 1 498 0 discriminator 2
	addq	$8, %rbx	#, sp
	movq	-32(%rbp), %rax	# file, tmp201
	movq	%rax, (%rbx)	# tmp201, *sp_127
	.loc 1 499 0 discriminator 2
	addq	$8, %rbx	#, sp
	movq	-24(%rbp), %rax	# line, tmp202
	movq	%rax, (%rbx)	# tmp202, *sp_128
	.loc 1 500 0 discriminator 2
	movq	%rbx, PL_stack_sp(%rip)	# sp, PL_stack_sp
	.loc 1 501 0 discriminator 2
	movq	-40(%rbp), %rax	# gv, tmp203
	movq	(%rax), %rax	# gv_83->sv_any, D.18139
	movq	56(%rax), %rax	# _129->xgv_gp, D.18140
	movq	56(%rax), %rax	# _130->gp_cv, D.18145
	movl	$20, %esi	#,
	movq	%rax, %rdi	# D.18145,
	call	Perl_call_sv	#
	.loc 1 503 0 discriminator 2
	movq	PL_stack_sp(%rip), %rax	# PL_stack_sp, PL_stack_sp.109
	leaq	-8(%rax), %rdx	#, PL_stack_sp.111
	movq	%rdx, PL_stack_sp(%rip)	# PL_stack_sp.111, PL_stack_sp
	movq	(%rax), %rcx	# *PL_stack_sp.110_133, D.18142
	movq	-56(%rbp), %rax	# error, tmp204
	movl	$2, %edx	#,
	movq	%rcx, %rsi	# D.18142,
	movq	%rax, %rdi	# tmp204,
	call	Perl_sv_setsv_flags	#
.L82:
.LBE20:
.LBE19:
	.loc 1 506 0
	movl	$0, %edi	#,
	movl	$0, %eax	#,
	call	Perl_die	#
	jmp	.L95	#
.L79:
	.loc 1 509 0
	movq	-56(%rbp), %rax	# error, tmp205
	movl	12(%rax), %eax	# error_66->sv_flags, D.18137
	andl	$262144, %eax	#, D.18137
	testl	%eax, %eax	# D.18137
	je	.L90	#,
	.loc 1 509 0 is_stmt 0 discriminator 1
	movq	-56(%rbp), %rax	# error, tmp206
	movq	(%rax), %rax	# error_66->sv_any, D.18138
	movq	8(%rax), %rax	# MEM[(struct XPV *)_139].xpv_cur, D.18133
	testq	%rax, %rax	# D.18133
	je	.L90	#,
	.loc 1 510 0 is_stmt 1
	movq	-56(%rbp), %rax	# error, tmp207
	movl	$.LC12, %esi	#,
	movq	%rax, %rdi	# tmp207,
	call	Perl_sv_catpv	#
.L90:
	.loc 1 511 0
	movq	-56(%rbp), %rax	# error, tmp208
	movq	%rax, -72(%rbp)	# tmp208, tmpsv
	.loc 1 512 0
	movq	-72(%rbp), %rax	# tmpsv, tmp209
	movl	12(%rax), %eax	# tmpsv_141->sv_flags, D.18137
	andl	$262144, %eax	#, D.18137
	testl	%eax, %eax	# D.18137
	je	.L91	#,
	.loc 1 512 0 is_stmt 0 discriminator 1
	movq	-72(%rbp), %rax	# tmpsv, tmp210
	movq	(%rax), %rax	# tmpsv_141->sv_any, D.18138
	movq	8(%rax), %rax	# MEM[(struct XPV *)_144].xpv_cur, len.113
	movq	%rax, -88(%rbp)	# len.113, len
	movq	-72(%rbp), %rax	# tmpsv, tmp211
	movq	(%rax), %rax	# tmpsv_141->sv_any, D.18138
	movq	(%rax), %rax	# MEM[(struct XPV *)_146].xpv_pv, iftmp.112
	jmp	.L92	#
.L91:
	.loc 1 512 0 discriminator 2
	leaq	-88(%rbp), %rcx	#, tmp212
	movq	-72(%rbp), %rax	# tmpsv, tmp213
	movl	$2, %edx	#,
	movq	%rcx, %rsi	# tmp212,
	movq	%rax, %rdi	# tmp213,
	call	Perl_sv_2pv_flags	#
.L92:
	.loc 1 512 0 discriminator 3
	movq	%rax, -80(%rbp)	# iftmp.112, tmps
.L73:
.LBE18:
	.loc 1 515 0 is_stmt 1
	cmpq	$0, -80(%rbp)	#, tmps
	je	.L93	#,
	.loc 1 515 0 is_stmt 0 discriminator 1
	movq	-88(%rbp), %rax	# len, len.114
	testq	%rax, %rax	# len.114
	jne	.L94	#,
.L93:
	.loc 1 516 0 is_stmt 1
	movl	$4, %esi	#,
	movl	$.LC13, %edi	#,
	call	Perl_newSVpvn	#
	movq	%rax, %rdi	# D.18142,
	call	Perl_sv_2mortal	#
	movq	%rax, -72(%rbp)	# tmp214, tmpsv
.L94:
	.loc 1 518 0
	movq	-72(%rbp), %rax	# tmpsv, tmp215
	movq	%rax, %rsi	# tmp215,
	movl	$.LC10, %edi	#,
	movl	$0, %eax	#,
	call	Perl_die	#
.L95:
	.loc 1 519 0
	addq	$80, %rsp	#,
	popq	%rbx	#
	popq	%r12	#
	popq	%rbp	#
	.cfi_def_cfa 7, 8
	ret
	.cfi_endproc
.LFE7:
	.size	Perl_pp_die, .-Perl_pp_die
	.section	.rodata
.LC14:
	.string	"filehandle"
.LC15:
	.string	"OPEN"
	.text
	.globl	Perl_pp_open
	.type	Perl_pp_open, @function
Perl_pp_open:
.LFB8:
	.loc 1 524 0
	.cfi_startproc
	pushq	%rbp	#
	.cfi_def_cfa_offset 16
	.cfi_offset 6, -16
	movq	%rsp, %rbp	#,
	.cfi_def_cfa_register 6
	pushq	%r13	#
	pushq	%r12	#
	pushq	%rbx	#
	subq	$104, %rsp	#,
	.cfi_offset 13, -24
	.cfi_offset 12, -32
	.cfi_offset 3, -40
	.loc 1 525 0
	movq	PL_stack_sp(%rip), %rbx	# PL_stack_sp, sp
	.loc 1 526 0
	movq	PL_stack_base(%rip), %rcx	# PL_stack_base, PL_stack_base.115
	movq	PL_markstack_ptr(%rip), %rax	# PL_markstack_ptr, PL_markstack_ptr.116
	leaq	-4(%rax), %rdx	#, PL_markstack_ptr.118
	movq	%rdx, PL_markstack_ptr(%rip)	# PL_markstack_ptr.118, PL_markstack_ptr
	movl	(%rax), %eax	# *PL_markstack_ptr.117_11, D.18150
	cltq
	salq	$3, %rax	#, D.18151
	leaq	(%rcx,%rax), %r12	#, mark
	movq	%r12, %rdx	# mark, mark.119
	movq	PL_stack_base(%rip), %rax	# PL_stack_base, PL_stack_base.120
	subq	%rax, %rdx	# PL_stack_base.121, D.18152
	movq	%rdx, %rax	# D.18152, D.18152
	sarq	$3, %rax	#, tmp144
	movl	%eax, -92(%rbp)	# D.18152, origmark
	.loc 1 527 0
	movq	PL_curpad(%rip), %rdx	# PL_curpad, PL_curpad.122
	movq	PL_op(%rip), %rax	# PL_op, PL_op.123
	movq	24(%rax), %rax	# PL_op.123_24->op_targ, D.18151
	salq	$3, %rax	#, D.18151
	addq	%rdx, %rax	# PL_curpad.122, D.18153
	movq	(%rax), %rax	# *_27, tmp145
	movq	%rax, -72(%rbp)	# tmp145, targ
	.loc 1 536 0
	addq	$8, %r12	#, mark
	movq	(%r12), %rax	# *mark_29, tmp146
	movq	%rax, -64(%rbp)	# tmp146, gv
	.loc 1 537 0
	movq	-64(%rbp), %rax	# gv, tmp147
	movl	12(%rax), %eax	# gv_30->sv_flags, D.18154
	movzbl	%al, %eax	# D.18154, D.18154
	cmpl	$13, %eax	#, D.18154
	je	.L97	#,
	.loc 1 538 0
	movl	$.LC14, %esi	#,
	movl	$PL_no_usym, %edi	#,
	movl	$0, %eax	#,
	call	Perl_die	#
	jmp	.L115	#
.L97:
	.loc 1 539 0
	movq	-64(%rbp), %rax	# gv, tmp148
	movq	(%rax), %rax	# gv_30->sv_any, D.18155
	movq	56(%rax), %rax	# _34->xgv_gp, D.18156
	movq	16(%rax), %rax	# _35->gp_io, tmp149
	movq	%rax, -56(%rbp)	# tmp149, io
	cmpq	$0, -56(%rbp)	#, io
	je	.L99	#,
	.loc 1 540 0
	movq	-64(%rbp), %rax	# gv, tmp150
	movq	(%rax), %rax	# gv_30->sv_any, D.18155
	movq	56(%rax), %rax	# _37->xgv_gp, D.18156
	movq	16(%rax), %rax	# _38->gp_io, D.18157
	movq	(%rax), %rax	# _39->sv_any, D.18158
	movq	-64(%rbp), %rdx	# gv, tmp151
	movq	(%rdx), %rdx	# gv_30->sv_any, D.18155
	movq	56(%rdx), %rdx	# _41->xgv_gp, D.18156
	movq	16(%rdx), %rdx	# _42->gp_io, D.18157
	movq	(%rdx), %rdx	# _43->sv_any, D.18158
	movzbl	163(%rdx), %edx	# _44->xio_flags, D.18159
	andl	$-17, %edx	#, D.18159
	movb	%dl, 163(%rax)	# D.18159, _40->xio_flags
.L99:
	.loc 1 542 0
	cmpq	$0, -56(%rbp)	#, io
	je	.L100	#,
	.loc 1 542 0 is_stmt 0 discriminator 1
	movq	-56(%rbp), %rax	# io, tmp152
	movl	12(%rax), %eax	# MEM[(struct SV *)io_36].sv_flags, D.18154
	andl	$32768, %eax	#, D.18154
	testl	%eax, %eax	# D.18154
	je	.L101	#,
	movq	-56(%rbp), %rax	# io, tmp153
	movl	$113, %esi	#,
	movq	%rax, %rdi	# tmp153,
	call	Perl_mg_find	#
	jmp	.L102	#
.L101:
	.loc 1 542 0 discriminator 2
	movl	$0, %eax	#, iftmp.124
.L102:
	.loc 1 542 0 discriminator 3
	movq	%rax, -48(%rbp)	# iftmp.124, mg
	cmpq	$0, -48(%rbp)	#, mg
	je	.L100	#,
	.loc 1 545 0 is_stmt 1
	movq	%r12, %r13	# mark, mark.125
	leaq	-8(%r13), %r12	#, mark
	movq	-48(%rbp), %rax	# mg, tmp154
	movq	24(%rax), %rax	# mg_51->mg_obj, D.18160
	testq	%rax, %rax	# D.18160
	je	.L103	#,
	.loc 1 545 0 is_stmt 0 discriminator 1
	movq	-48(%rbp), %rax	# mg, tmp155
	movq	24(%rax), %rax	# mg_51->mg_obj, iftmp.126
	jmp	.L104	#
.L103:
	.loc 1 545 0 discriminator 2
	movq	-56(%rbp), %rax	# io, tmp156
	movq	%rax, %rdi	# tmp156,
	call	Perl_newRV	#
	movq	%rax, %rdi	# D.18160,
	call	Perl_sv_2mortal	#
.L104:
	.loc 1 545 0 discriminator 3
	movq	%rax, 0(%r13)	# iftmp.126, *mark.125_52
.LBB22:
	.loc 1 546 0 is_stmt 1 discriminator 3
	movq	PL_markstack_ptr(%rip), %rax	# PL_markstack_ptr, PL_markstack_ptr.127
	addq	$4, %rax	#, PL_markstack_ptr.128
	movq	%rax, PL_markstack_ptr(%rip)	# PL_markstack_ptr.128, PL_markstack_ptr
	movq	PL_markstack_ptr(%rip), %rdx	# PL_markstack_ptr, PL_markstack_ptr.129
	movq	PL_markstack_max(%rip), %rax	# PL_markstack_max, PL_markstack_max.130
	cmpq	%rax, %rdx	# PL_markstack_max.130, PL_markstack_ptr.129
	jne	.L105	#,
	.loc 1 546 0 is_stmt 0 discriminator 1
	call	Perl_markstack_grow	#
.L105:
	.loc 1 546 0 discriminator 2
	movq	PL_markstack_ptr(%rip), %rax	# PL_markstack_ptr, PL_markstack_ptr.131
	movq	%r12, %rcx	# mark, mark.132
	movq	PL_stack_base(%rip), %rdx	# PL_stack_base, PL_stack_base.133
	subq	%rdx, %rcx	# PL_stack_base.134, D.18152
	movq	%rcx, %rdx	# D.18152, D.18152
	sarq	$3, %rdx	#, tmp157
	movl	%edx, (%rax)	# D.18150, *PL_markstack_ptr.131_62
.LBE22:
	.loc 1 547 0 is_stmt 1 discriminator 2
	movq	%rbx, PL_stack_sp(%rip)	# sp, PL_stack_sp
	.loc 1 548 0 discriminator 2
	call	Perl_push_scope	#
	.loc 1 549 0 discriminator 2
	movl	$0, %esi	#,
	movl	$.LC15, %edi	#,
	call	Perl_call_method	#
	.loc 1 550 0 discriminator 2
	call	Perl_pop_scope	#
	.loc 1 551 0 discriminator 2
	movq	PL_stack_sp(%rip), %rbx	# PL_stack_sp, sp
	.loc 1 552 0 discriminator 2
	movq	%rbx, PL_stack_sp(%rip)	# sp, PL_stack_sp
	movq	PL_op(%rip), %rax	# PL_op, PL_op.135
	movq	(%rax), %rax	# PL_op.135_71->op_next, D.18149
	jmp	.L115	#
.L100:
	.loc 1 555 0
	cmpq	%rbx, %r12	# sp, mark
	jae	.L106	#,
	.loc 1 556 0
	addq	$8, %r12	#, mark
	movq	(%r12), %rax	# *mark_73, tmp158
	movq	%rax, -80(%rbp)	# tmp158, sv
	jmp	.L107	#
.L106:
	.loc 1 559 0
	movq	-64(%rbp), %rax	# gv, tmp159
	movq	(%rax), %rax	# gv_30->sv_any, D.18155
	movq	56(%rax), %rax	# _75->xgv_gp, D.18156
	movq	(%rax), %rax	# _76->gp_sv, tmp160
	movq	%rax, -80(%rbp)	# tmp160, sv
.L107:
	.loc 1 562 0
	movq	-80(%rbp), %rax	# sv, tmp161
	movl	12(%rax), %eax	# sv_3->sv_flags, D.18154
	andl	$262144, %eax	#, D.18154
	testl	%eax, %eax	# D.18154
	je	.L108	#,
	.loc 1 562 0 is_stmt 0 discriminator 1
	movq	-80(%rbp), %rax	# sv, tmp162
	movq	(%rax), %rax	# sv_3->sv_any, D.18162
	movq	8(%rax), %rax	# MEM[(struct XPV *)_80].xpv_cur, len.137
	movq	%rax, -88(%rbp)	# len.137, len
	movq	-80(%rbp), %rax	# sv, tmp163
	movq	(%rax), %rax	# sv_3->sv_any, D.18162
	movq	(%rax), %rax	# MEM[(struct XPV *)_82].xpv_pv, iftmp.136
	jmp	.L109	#
.L108:
	.loc 1 562 0 discriminator 2
	leaq	-88(%rbp), %rcx	#, tmp164
	movq	-80(%rbp), %rax	# sv, tmp165
	movl	$2, %edx	#,
	movq	%rcx, %rsi	# tmp164,
	movq	%rax, %rdi	# tmp165,
	call	Perl_sv_2pv_flags	#
.L109:
	.loc 1 562 0 discriminator 3
	movq	%rax, -40(%rbp)	# iftmp.136, tmps
	.loc 1 563 0 is_stmt 1 discriminator 3
	movq	%rbx, %rdx	# sp, sp.138
	movq	%r12, %rax	# mark, mark.139
	subq	%rax, %rdx	# mark.139, D.18152
	movq	%rdx, %rax	# D.18152, D.18152
	sarq	$3, %rax	#, tmp166
	movl	%eax, %ecx	# D.18152, D.18150
	leaq	8(%r12), %rdi	#, D.18153
	movq	-88(%rbp), %rax	# len, len.140
	movl	%eax, %edx	# len.140, D.18150
	movq	-40(%rbp), %rsi	# tmps, tmp167
	movq	-64(%rbp), %rax	# gv, tmp168
	movl	%ecx, 16(%rsp)	# D.18150,
	movq	%rdi, 8(%rsp)	# D.18153,
	movq	$0, (%rsp)	#,
	movl	$0, %r9d	#,
	movl	$0, %r8d	#,
	movl	$0, %ecx	#,
	movq	%rax, %rdi	# tmp168,
	call	Perl_do_openn	#
	movb	%al, -93(%rbp)	# tmp169, ok
	.loc 1 564 0 discriminator 3
	movq	PL_stack_base(%rip), %rax	# PL_stack_base, PL_stack_base.141
	movl	-92(%rbp), %edx	# origmark, tmp170
	movslq	%edx, %rdx	# tmp170, D.18151
	salq	$3, %rdx	#, D.18151
	leaq	(%rax,%rdx), %rbx	#, sp
	.loc 1 565 0 discriminator 3
	cmpb	$0, -93(%rbp)	#, ok
	je	.L110	#,
.LBB23:
	.loc 1 566 0
	movl	PL_forkprocess(%rip), %eax	# PL_forkprocess, PL_forkprocess.142
	movslq	%eax, %rdx	# PL_forkprocess.142, D.18152
	movq	-72(%rbp), %rax	# targ, tmp171
	movq	%rdx, %rsi	# D.18152,
	movq	%rax, %rdi	# tmp171,
	call	Perl_sv_setiv	#
.LBB24:
	movq	-72(%rbp), %rax	# targ, tmp172
	movl	12(%rax), %eax	# targ_28->sv_flags, D.18154
	andl	$16384, %eax	#, D.18154
	testl	%eax, %eax	# D.18154
	je	.L111	#,
	.loc 1 566 0 is_stmt 0 discriminator 1
	movq	-72(%rbp), %rax	# targ, tmp173
	movq	%rax, %rdi	# tmp173,
	call	Perl_mg_set	#
.L111:
	.loc 1 566 0 discriminator 2
	addq	$8, %rbx	#, sp
	movq	-72(%rbp), %rax	# targ, tmp174
	movq	%rax, (%rbx)	# tmp174, *sp_103
.LBE24:
.LBE23:
	jmp	.L112	#
.L110:
	.loc 1 567 0 is_stmt 1
	movl	PL_forkprocess(%rip), %eax	# PL_forkprocess, PL_forkprocess.143
	testl	%eax, %eax	# PL_forkprocess.143
	jne	.L113	#,
.LBB25:
	.loc 1 568 0
	movq	-72(%rbp), %rax	# targ, tmp175
	movl	$0, %esi	#,
	movq	%rax, %rdi	# tmp175,
	call	Perl_sv_setiv	#
.LBB26:
	movq	-72(%rbp), %rax	# targ, tmp176
	movl	12(%rax), %eax	# targ_28->sv_flags, D.18154
	andl	$16384, %eax	#, D.18154
	testl	%eax, %eax	# D.18154
	je	.L114	#,
	.loc 1 568 0 is_stmt 0 discriminator 1
	movq	-72(%rbp), %rax	# targ, tmp177
	movq	%rax, %rdi	# tmp177,
	call	Perl_mg_set	#
.L114:
	.loc 1 568 0 discriminator 2
	addq	$8, %rbx	#, sp
	movq	-72(%rbp), %rax	# targ, tmp178
	movq	%rax, (%rbx)	# tmp178, *sp_108
.LBE26:
.LBE25:
	jmp	.L112	#
.L113:
	.loc 1 570 0 is_stmt 1
	addq	$8, %rbx	#, sp
	movq	$PL_sv_undef, (%rbx)	#, *sp_110
	movq	%rbx, PL_stack_sp(%rip)	# sp, PL_stack_sp
	movq	PL_op(%rip), %rax	# PL_op, PL_op.144
	movq	(%rax), %rax	# PL_op.144_111->op_next, D.18149
	jmp	.L115	#
.L112:
	.loc 1 571 0
	movq	%rbx, PL_stack_sp(%rip)	# sp, PL_stack_sp
	movq	PL_op(%rip), %rax	# PL_op, PL_op.145
	movq	(%rax), %rax	# PL_op.145_113->op_next, D.18149
.L115:
	.loc 1 572 0
	addq	$104, %rsp	#,
	popq	%rbx	#
	popq	%r12	#
	popq	%r13	#
	popq	%rbp	#
	.cfi_def_cfa 7, 8
	ret
	.cfi_endproc
.LFE8:
	.size	Perl_pp_open, .-Perl_pp_open
	.section	.rodata
.LC16:
	.string	"CLOSE"
	.text
	.globl	Perl_pp_close
	.type	Perl_pp_close, @function
Perl_pp_close:
.LFB9:
	.loc 1 575 0
	.cfi_startproc
	pushq	%rbp	#
	.cfi_def_cfa_offset 16
	.cfi_offset 6, -16
	movq	%rsp, %rbp	#,
	.cfi_def_cfa_register 6
	pushq	%rbx	#
	subq	$40, %rsp	#,
	.cfi_offset 3, -24
	.loc 1 576 0
	movq	PL_stack_sp(%rip), %rbx	# PL_stack_sp, sp
	.loc 1 581 0
	movq	PL_op(%rip), %rax	# PL_op, PL_op.146
	movzbl	37(%rax), %eax	# PL_op.146_11->op_private, D.18166
	movzbl	%al, %eax	# D.18166, D.18167
	andl	$15, %eax	#, D.18167
	testl	%eax, %eax	# D.18167
	jne	.L117	#,
	.loc 1 582 0
	movq	PL_defoutgv(%rip), %rax	# PL_defoutgv, tmp105
	movq	%rax, -40(%rbp)	# tmp105, gv
	jmp	.L118	#
.L117:
	.loc 1 584 0
	movq	%rbx, %rax	# sp, sp.147
	leaq	-8(%rax), %rbx	#, sp
	movq	(%rax), %rax	# *sp.147_16, tmp106
	movq	%rax, -40(%rbp)	# tmp106, gv
.L118:
	.loc 1 586 0
	cmpq	$0, -40(%rbp)	#, gv
	je	.L119	#,
	.loc 1 586 0 is_stmt 0 discriminator 1
	cmpq	$0, -40(%rbp)	#, gv
	je	.L120	#,
	movq	-40(%rbp), %rax	# gv, tmp107
	movl	12(%rax), %eax	# MEM[(struct SV *)gv_4].sv_flags, D.18168
	movzbl	%al, %eax	# D.18168, D.18168
	cmpl	$13, %eax	#, D.18168
	jne	.L120	#,
	movq	-40(%rbp), %rax	# gv, tmp108
	movq	(%rax), %rax	# gv_4->sv_any, D.18169
	movq	56(%rax), %rax	# _21->xgv_gp, D.18170
	testq	%rax, %rax	# D.18170
	je	.L120	#,
	movq	-40(%rbp), %rax	# gv, tmp109
	movq	(%rax), %rax	# gv_4->sv_any, D.18169
	movq	56(%rax), %rax	# _23->xgv_gp, D.18170
	movq	16(%rax), %rax	# _24->gp_io, iftmp.148
	jmp	.L121	#
.L120:
	.loc 1 586 0 discriminator 2
	movl	$0, %eax	#, iftmp.148
.L121:
	.loc 1 586 0 discriminator 3
	movq	%rax, -32(%rbp)	# iftmp.148, io
	cmpq	$0, -32(%rbp)	#, io
	je	.L119	#,
	.loc 1 587 0 is_stmt 1
	movq	-32(%rbp), %rax	# io, tmp110
	movl	12(%rax), %eax	# MEM[(struct SV *)io_27].sv_flags, D.18168
	andl	$32768, %eax	#, D.18168
	testl	%eax, %eax	# D.18168
	je	.L122	#,
	.loc 1 587 0 is_stmt 0 discriminator 1
	movq	-32(%rbp), %rax	# io, tmp111
	movl	$113, %esi	#,
	movq	%rax, %rdi	# tmp111,
	call	Perl_mg_find	#
	jmp	.L123	#
.L122:
	.loc 1 587 0 discriminator 2
	movl	$0, %eax	#, iftmp.149
.L123:
	.loc 1 587 0 discriminator 3
	movq	%rax, -24(%rbp)	# iftmp.149, mg
	cmpq	$0, -24(%rbp)	#, mg
	je	.L119	#,
.LBB27:
	.loc 1 589 0 is_stmt 1
	movq	PL_markstack_ptr(%rip), %rax	# PL_markstack_ptr, PL_markstack_ptr.150
	addq	$4, %rax	#, PL_markstack_ptr.151
	movq	%rax, PL_markstack_ptr(%rip)	# PL_markstack_ptr.151, PL_markstack_ptr
	movq	PL_markstack_ptr(%rip), %rdx	# PL_markstack_ptr, PL_markstack_ptr.152
	movq	PL_markstack_max(%rip), %rax	# PL_markstack_max, PL_markstack_max.153
	cmpq	%rax, %rdx	# PL_markstack_max.153, PL_markstack_ptr.152
	jne	.L124	#,
	.loc 1 589 0 is_stmt 0 discriminator 1
	call	Perl_markstack_grow	#
.L124:
	.loc 1 589 0 discriminator 2
	movq	PL_markstack_ptr(%rip), %rax	# PL_markstack_ptr, PL_markstack_ptr.154
	movq	%rbx, %rcx	# sp, sp.155
	movq	PL_stack_base(%rip), %rdx	# PL_stack_base, PL_stack_base.156
	subq	%rdx, %rcx	# PL_stack_base.157, D.18171
	movq	%rcx, %rdx	# D.18171, D.18171
	sarq	$3, %rdx	#, tmp112
	movl	%edx, (%rax)	# D.18167, *PL_markstack_ptr.154_37
.LBE27:
.LBB28:
	.loc 1 590 0 is_stmt 1 discriminator 2
	movq	PL_stack_max(%rip), %rax	# PL_stack_max, PL_stack_max.158
	movq	%rax, %rdx	# PL_stack_max.158, PL_stack_max.159
	movq	%rbx, %rax	# sp, sp.160
	subq	%rax, %rdx	# sp.160, D.18171
	movq	%rdx, %rax	# D.18171, D.18171
	cmpq	$7, %rax	#, D.18171
	jg	.L125	#,
	.loc 1 590 0 is_stmt 0 discriminator 1
	movl	$1, %edx	#,
	movq	%rbx, %rsi	# sp,
	movq	%rbx, %rdi	# sp,
	call	Perl_stack_grow	#
	movq	%rax, %rbx	#, sp
.L125:
	.loc 1 590 0 discriminator 2
	addq	$8, %rbx	#, sp
	movq	-24(%rbp), %rax	# mg, tmp113
	movq	24(%rax), %rax	# mg_32->mg_obj, D.18173
	testq	%rax, %rax	# D.18173
	je	.L126	#,
	.loc 1 590 0 discriminator 1
	movq	-24(%rbp), %rax	# mg, tmp114
	movq	24(%rax), %rax	# mg_32->mg_obj, iftmp.161
	jmp	.L127	#
.L126:
	.loc 1 590 0 discriminator 2
	movq	-32(%rbp), %rax	# io, tmp115
	movq	%rax, %rdi	# tmp115,
	call	Perl_newRV	#
	movq	%rax, %rdi	# D.18173,
	call	Perl_sv_2mortal	#
.L127:
	.loc 1 590 0 discriminator 3
	movq	%rax, (%rbx)	# iftmp.161, *sp_50
.LBE28:
	.loc 1 591 0 is_stmt 1 discriminator 3
	movq	%rbx, PL_stack_sp(%rip)	# sp, PL_stack_sp
	.loc 1 592 0 discriminator 3
	call	Perl_push_scope	#
	.loc 1 593 0 discriminator 3
	movl	$0, %esi	#,
	movl	$.LC16, %edi	#,
	call	Perl_call_method	#
	.loc 1 594 0 discriminator 3
	call	Perl_pop_scope	#
	.loc 1 595 0 discriminator 3
	movq	PL_stack_sp(%rip), %rbx	# PL_stack_sp, sp
	.loc 1 596 0 discriminator 3
	movq	%rbx, PL_stack_sp(%rip)	# sp, PL_stack_sp
	movq	PL_op(%rip), %rax	# PL_op, PL_op.162
	movq	(%rax), %rax	# PL_op.162_57->op_next, D.18165
	jmp	.L128	#
.L119:
	.loc 1 598 0
	movq	PL_stack_max(%rip), %rax	# PL_stack_max, PL_stack_max.163
	movq	%rax, %rdx	# PL_stack_max.163, PL_stack_max.164
	movq	%rbx, %rax	# sp, sp.165
	subq	%rax, %rdx	# sp.165, D.18171
	movq	%rdx, %rax	# D.18171, D.18171
	cmpq	$7, %rax	#, D.18171
	jg	.L129	#,
	.loc 1 598 0 is_stmt 0 discriminator 1
	movl	$1, %edx	#,
	movq	%rbx, %rsi	# sp,
	movq	%rbx, %rdi	# sp,
	call	Perl_stack_grow	#
	movq	%rax, %rbx	#, sp
.L129:
	.loc 1 599 0 is_stmt 1
	addq	$8, %rbx	#, sp
	movq	-40(%rbp), %rax	# gv, tmp116
	movl	$1, %esi	#,
	movq	%rax, %rdi	# tmp116,
	call	Perl_do_close	#
	testb	%al, %al	# D.18174
	je	.L130	#,
	.loc 1 599 0 is_stmt 0 discriminator 1
	movl	$PL_sv_yes, %eax	#, iftmp.166
	jmp	.L131	#
.L130:
	.loc 1 599 0 discriminator 2
	movl	$PL_sv_no, %eax	#, iftmp.166
.L131:
	.loc 1 599 0 discriminator 3
	movq	%rax, (%rbx)	# iftmp.166, *sp_64
	.loc 1 600 0 is_stmt 1 discriminator 3
	movq	%rbx, PL_stack_sp(%rip)	# sp, PL_stack_sp
	movq	PL_op(%rip), %rax	# PL_op, PL_op.167
	movq	(%rax), %rax	# PL_op.167_68->op_next, D.18165
.L128:
	.loc 1 601 0
	addq	$40, %rsp	#,
	popq	%rbx	#
	popq	%rbp	#
	.cfi_def_cfa 7, 8
	ret
	.cfi_endproc
.LFE9:
	.size	Perl_pp_close, .-Perl_pp_close
	.section	.rodata
.LC17:
	.string	"pipe"
	.text
	.globl	Perl_pp_pipe_op
	.type	Perl_pp_pipe_op, @function
Perl_pp_pipe_op:
.LFB10:
	.loc 1 604 0
	.cfi_startproc
	pushq	%rbp	#
	.cfi_def_cfa_offset 16
	.cfi_offset 6, -16
	movq	%rsp, %rbp	#,
	.cfi_def_cfa_register 6
	.loc 1 655 0
	movl	$.LC17, %esi	#,
	movl	$PL_no_func, %edi	#,
	movl	$0, %eax	#,
	call	Perl_die	#
	.loc 1 657 0
	popq	%rbp	#
	.cfi_def_cfa 7, 8
	ret
	.cfi_endproc
.LFE10:
	.size	Perl_pp_pipe_op, .-Perl_pp_pipe_op
	.section	.rodata
.LC18:
	.string	"FILENO"
	.text
	.globl	Perl_pp_fileno
	.type	Perl_pp_fileno, @function
Perl_pp_fileno:
.LFB11:
	.loc 1 660 0
	.cfi_startproc
	pushq	%rbp	#
	.cfi_def_cfa_offset 16
	.cfi_offset 6, -16
	movq	%rsp, %rbp	#,
	.cfi_def_cfa_register 6
	pushq	%rbx	#
	subq	$56, %rsp	#,
	.cfi_offset 3, -24
	.loc 1 661 0
	movq	PL_stack_sp(%rip), %rbx	# PL_stack_sp, sp
	movq	PL_curpad(%rip), %rdx	# PL_curpad, PL_curpad.168
	movq	PL_op(%rip), %rax	# PL_op, PL_op.169
	movq	24(%rax), %rax	# PL_op.169_9->op_targ, D.18179
	salq	$3, %rax	#, D.18179
	addq	%rdx, %rax	# PL_curpad.168, D.18180
	movq	(%rax), %rax	# *_12, tmp119
	movq	%rax, -56(%rbp)	# tmp119, targ
	.loc 1 667 0
	movq	PL_op(%rip), %rax	# PL_op, PL_op.170
	movzbl	37(%rax), %eax	# PL_op.170_14->op_private, D.18181
	movzbl	%al, %eax	# D.18181, D.18182
	andl	$15, %eax	#, D.18182
	testl	%eax, %eax	# D.18182
	jg	.L135	#,
	.loc 1 668 0
	addq	$8, %rbx	#, sp
	movq	$PL_sv_undef, (%rbx)	#, *sp_18
	movq	%rbx, PL_stack_sp(%rip)	# sp, PL_stack_sp
	movq	PL_op(%rip), %rax	# PL_op, PL_op.171
	movq	(%rax), %rax	# PL_op.171_19->op_next, D.18178
	jmp	.L136	#
.L135:
	.loc 1 669 0
	movq	%rbx, %rax	# sp, sp.172
	leaq	-8(%rax), %rbx	#, sp
	movq	(%rax), %rax	# *sp.172_21, tmp120
	movq	%rax, -48(%rbp)	# tmp120, gv
	.loc 1 671 0
	cmpq	$0, -48(%rbp)	#, gv
	je	.L137	#,
	.loc 1 671 0 is_stmt 0 discriminator 1
	cmpq	$0, -48(%rbp)	#, gv
	je	.L138	#,
	movq	-48(%rbp), %rax	# gv, tmp121
	movl	12(%rax), %eax	# MEM[(struct SV *)gv_23].sv_flags, D.18183
	movzbl	%al, %eax	# D.18183, D.18183
	cmpl	$13, %eax	#, D.18183
	jne	.L138	#,
	movq	-48(%rbp), %rax	# gv, tmp122
	movq	(%rax), %rax	# gv_23->sv_any, D.18184
	movq	56(%rax), %rax	# _26->xgv_gp, D.18185
	testq	%rax, %rax	# D.18185
	je	.L138	#,
	movq	-48(%rbp), %rax	# gv, tmp123
	movq	(%rax), %rax	# gv_23->sv_any, D.18184
	movq	56(%rax), %rax	# _28->xgv_gp, D.18185
	movq	16(%rax), %rax	# _29->gp_io, iftmp.173
	jmp	.L139	#
.L138:
	.loc 1 671 0 discriminator 2
	movl	$0, %eax	#, iftmp.173
.L139:
	.loc 1 671 0 discriminator 3
	movq	%rax, -40(%rbp)	# iftmp.173, io
	cmpq	$0, -40(%rbp)	#, io
	je	.L137	#,
	.loc 1 672 0 is_stmt 1
	movq	-40(%rbp), %rax	# io, tmp124
	movl	12(%rax), %eax	# MEM[(struct SV *)io_32].sv_flags, D.18183
	andl	$32768, %eax	#, D.18183
	testl	%eax, %eax	# D.18183
	je	.L140	#,
	.loc 1 672 0 is_stmt 0 discriminator 1
	movq	-40(%rbp), %rax	# io, tmp125
	movl	$113, %esi	#,
	movq	%rax, %rdi	# tmp125,
	call	Perl_mg_find	#
	jmp	.L141	#
.L140:
	.loc 1 672 0 discriminator 2
	movl	$0, %eax	#, iftmp.174
.L141:
	.loc 1 672 0 discriminator 3
	movq	%rax, -32(%rbp)	# iftmp.174, mg
	cmpq	$0, -32(%rbp)	#, mg
	je	.L137	#,
.LBB29:
	.loc 1 674 0 is_stmt 1
	movq	PL_markstack_ptr(%rip), %rax	# PL_markstack_ptr, PL_markstack_ptr.175
	addq	$4, %rax	#, PL_markstack_ptr.176
	movq	%rax, PL_markstack_ptr(%rip)	# PL_markstack_ptr.176, PL_markstack_ptr
	movq	PL_markstack_ptr(%rip), %rdx	# PL_markstack_ptr, PL_markstack_ptr.177
	movq	PL_markstack_max(%rip), %rax	# PL_markstack_max, PL_markstack_max.178
	cmpq	%rax, %rdx	# PL_markstack_max.178, PL_markstack_ptr.177
	jne	.L142	#,
	.loc 1 674 0 is_stmt 0 discriminator 1
	call	Perl_markstack_grow	#
.L142:
	.loc 1 674 0 discriminator 2
	movq	PL_markstack_ptr(%rip), %rax	# PL_markstack_ptr, PL_markstack_ptr.179
	movq	%rbx, %rcx	# sp, sp.180
	movq	PL_stack_base(%rip), %rdx	# PL_stack_base, PL_stack_base.181
	subq	%rdx, %rcx	# PL_stack_base.182, D.18186
	movq	%rcx, %rdx	# D.18186, D.18186
	sarq	$3, %rdx	#, tmp126
	movl	%edx, (%rax)	# D.18182, *PL_markstack_ptr.179_42
.LBE29:
.LBB30:
	.loc 1 675 0 is_stmt 1 discriminator 2
	movq	PL_stack_max(%rip), %rax	# PL_stack_max, PL_stack_max.183
	movq	%rax, %rdx	# PL_stack_max.183, PL_stack_max.184
	movq	%rbx, %rax	# sp, sp.185
	subq	%rax, %rdx	# sp.185, D.18186
	movq	%rdx, %rax	# D.18186, D.18186
	cmpq	$7, %rax	#, D.18186
	jg	.L143	#,
	.loc 1 675 0 is_stmt 0 discriminator 1
	movl	$1, %edx	#,
	movq	%rbx, %rsi	# sp,
	movq	%rbx, %rdi	# sp,
	call	Perl_stack_grow	#
	movq	%rax, %rbx	#, sp
.L143:
	.loc 1 675 0 discriminator 2
	addq	$8, %rbx	#, sp
	movq	-32(%rbp), %rax	# mg, tmp127
	movq	24(%rax), %rax	# mg_37->mg_obj, D.18188
	testq	%rax, %rax	# D.18188
	je	.L144	#,
	.loc 1 675 0 discriminator 1
	movq	-32(%rbp), %rax	# mg, tmp128
	movq	24(%rax), %rax	# mg_37->mg_obj, iftmp.186
	jmp	.L145	#
.L144:
	.loc 1 675 0 discriminator 2
	movq	-40(%rbp), %rax	# io, tmp129
	movq	%rax, %rdi	# tmp129,
	call	Perl_newRV	#
	movq	%rax, %rdi	# D.18188,
	call	Perl_sv_2mortal	#
.L145:
	.loc 1 675 0 discriminator 3
	movq	%rax, (%rbx)	# iftmp.186, *sp_55
.LBE30:
	.loc 1 676 0 is_stmt 1 discriminator 3
	movq	%rbx, PL_stack_sp(%rip)	# sp, PL_stack_sp
	.loc 1 677 0 discriminator 3
	call	Perl_push_scope	#
	.loc 1 678 0 discriminator 3
	movl	$0, %esi	#,
	movl	$.LC18, %edi	#,
	call	Perl_call_method	#
	.loc 1 679 0 discriminator 3
	call	Perl_pop_scope	#
	.loc 1 680 0 discriminator 3
	movq	PL_stack_sp(%rip), %rbx	# PL_stack_sp, sp
	.loc 1 681 0 discriminator 3
	movq	%rbx, PL_stack_sp(%rip)	# sp, PL_stack_sp
	movq	PL_op(%rip), %rax	# PL_op, PL_op.187
	movq	(%rax), %rax	# PL_op.187_62->op_next, D.18178
	jmp	.L136	#
.L137:
	.loc 1 684 0
	cmpq	$0, -48(%rbp)	#, gv
	je	.L146	#,
	.loc 1 684 0 is_stmt 0 discriminator 1
	cmpq	$0, -48(%rbp)	#, gv
	je	.L147	#,
	movq	-48(%rbp), %rax	# gv, tmp130
	movl	12(%rax), %eax	# MEM[(struct SV *)gv_23].sv_flags, D.18183
	movzbl	%al, %eax	# D.18183, D.18183
	cmpl	$13, %eax	#, D.18183
	jne	.L147	#,
	movq	-48(%rbp), %rax	# gv, tmp131
	movq	(%rax), %rax	# gv_23->sv_any, D.18184
	movq	56(%rax), %rax	# _66->xgv_gp, D.18185
	testq	%rax, %rax	# D.18185
	je	.L147	#,
	movq	-48(%rbp), %rax	# gv, tmp132
	movq	(%rax), %rax	# gv_23->sv_any, D.18184
	movq	56(%rax), %rax	# _68->xgv_gp, D.18185
	movq	16(%rax), %rax	# _69->gp_io, iftmp.188
	jmp	.L148	#
.L147:
	.loc 1 684 0 discriminator 2
	movl	$0, %eax	#, iftmp.188
.L148:
	.loc 1 684 0 discriminator 3
	movq	%rax, -40(%rbp)	# iftmp.188, io
	cmpq	$0, -40(%rbp)	#, io
	je	.L146	#,
	.loc 1 684 0 discriminator 1
	movq	-40(%rbp), %rax	# io, tmp133
	movq	(%rax), %rax	# io_72->sv_any, D.18189
	movq	56(%rax), %rax	# _73->xio_ifp, tmp134
	movq	%rax, -24(%rbp)	# tmp134, fp
	cmpq	$0, -24(%rbp)	#, fp
	jne	.L149	#,
.L146:
	.loc 1 690 0 is_stmt 1
	addq	$8, %rbx	#, sp
	movq	$PL_sv_undef, (%rbx)	#, *sp_83
	movq	%rbx, PL_stack_sp(%rip)	# sp, PL_stack_sp
	movq	PL_op(%rip), %rax	# PL_op, PL_op.189
	movq	(%rax), %rax	# PL_op.189_84->op_next, D.18178
	jmp	.L136	#
.L149:
.LBB31:
	.loc 1 693 0
	movq	-24(%rbp), %rax	# fp, tmp135
	movq	%rax, %rdi	# tmp135,
	call	Perl_PerlIO_fileno	#
	movslq	%eax, %rdx	# D.18182, D.18186
	movq	-56(%rbp), %rax	# targ, tmp136
	movq	%rdx, %rsi	# D.18186,
	movq	%rax, %rdi	# tmp136,
	call	Perl_sv_setiv	#
.LBB32:
	movq	-56(%rbp), %rax	# targ, tmp137
	movl	12(%rax), %eax	# targ_13->sv_flags, D.18183
	andl	$16384, %eax	#, D.18183
	testl	%eax, %eax	# D.18183
	je	.L150	#,
	.loc 1 693 0 is_stmt 0 discriminator 1
	movq	-56(%rbp), %rax	# targ, tmp138
	movq	%rax, %rdi	# tmp138,
	call	Perl_mg_set	#
.L150:
	.loc 1 693 0 discriminator 2
	addq	$8, %rbx	#, sp
	movq	-56(%rbp), %rax	# targ, tmp139
	movq	%rax, (%rbx)	# tmp139, *sp_79
.LBE32:
.LBE31:
	.loc 1 694 0 is_stmt 1 discriminator 2
	movq	%rbx, PL_stack_sp(%rip)	# sp, PL_stack_sp
	movq	PL_op(%rip), %rax	# PL_op, PL_op.190
	movq	(%rax), %rax	# PL_op.190_81->op_next, D.18178
.L136:
	.loc 1 695 0
	addq	$56, %rsp	#,
	popq	%rbx	#
	popq	%rbp	#
	.cfi_def_cfa 7, 8
	ret
	.cfi_endproc
.LFE11:
	.size	Perl_pp_fileno, .-Perl_pp_fileno
	.section	.rodata
.LC19:
	.string	"umask not implemented"
	.text
	.globl	Perl_pp_umask
	.type	Perl_pp_umask, @function
Perl_pp_umask:
.LFB12:
	.loc 1 698 0
	.cfi_startproc
	pushq	%rbp	#
	.cfi_def_cfa_offset 16
	.cfi_offset 6, -16
	movq	%rsp, %rbp	#,
	.cfi_def_cfa_register 6
	pushq	%rbx	#
	subq	$24, %rsp	#,
	.cfi_offset 3, -24
	.loc 1 699 0
	movq	PL_stack_sp(%rip), %rbx	# PL_stack_sp, sp
	movq	PL_curpad(%rip), %rdx	# PL_curpad, PL_curpad.191
	movq	PL_op(%rip), %rax	# PL_op, PL_op.192
	movq	24(%rax), %rax	# PL_op.192_7->op_targ, D.18192
	salq	$3, %rax	#, D.18192
	addq	%rdx, %rax	# PL_curpad.191, D.18193
	movq	(%rax), %rax	# *_10, tmp90
	movq	%rax, -24(%rbp)	# tmp90, targ
	.loc 1 715 0
	movq	PL_op(%rip), %rax	# PL_op, PL_op.193
	movzbl	37(%rax), %eax	# PL_op.193_12->op_private, D.18194
	movzbl	%al, %eax	# D.18194, D.18195
	andl	$15, %eax	#, D.18195
	testl	%eax, %eax	# D.18195
	jle	.L152	#,
	.loc 1 715 0 is_stmt 0 discriminator 1
	movq	%rbx, %rax	# sp, sp.194
	leaq	-8(%rax), %rbx	#, sp
	movq	(%rax), %rax	# *sp.194_16, PL_Sv.195
	movq	%rax, PL_Sv(%rip)	# PL_Sv.195, PL_Sv
	movq	PL_Sv(%rip), %rax	# PL_Sv, PL_Sv.197
	movl	12(%rax), %eax	# PL_Sv.197_19->sv_flags, D.18196
	andl	$65536, %eax	#, D.18196
	testl	%eax, %eax	# D.18196
	je	.L153	#,
	movq	PL_Sv(%rip), %rax	# PL_Sv, PL_Sv.198
	movq	(%rax), %rax	# PL_Sv.198_22->sv_any, D.18197
	movq	24(%rax), %rax	# MEM[(struct XPVIV *)_23].xiv_iv, D.18198
	andl	$448, %eax	#, D.18198
	testq	%rax, %rax	# D.18198
	setne	%al	#, iftmp.196
	jmp	.L154	#
.L153:
	.loc 1 715 0 discriminator 2
	movq	PL_Sv(%rip), %rax	# PL_Sv, PL_Sv.199
	movq	%rax, %rdi	# PL_Sv.199,
	call	Perl_sv_2iv	#
	andl	$448, %eax	#, D.18198
	testq	%rax, %rax	# D.18198
	setne	%al	#, iftmp.196
.L154:
	.loc 1 715 0 discriminator 3
	testb	%al, %al	# iftmp.196
	je	.L152	#,
	.loc 1 716 0 is_stmt 1
	movl	$.LC19, %edi	#,
	movl	$0, %eax	#,
	call	Perl_die	#
	jmp	.L155	#
.L152:
.LBB33:
	.loc 1 717 0
	movq	PL_stack_max(%rip), %rax	# PL_stack_max, PL_stack_max.200
	movq	%rax, %rdx	# PL_stack_max.200, PL_stack_max.201
	movq	%rbx, %rax	# sp, sp.202
	subq	%rax, %rdx	# sp.202, D.18198
	movq	%rdx, %rax	# D.18198, D.18198
	cmpq	$7, %rax	#, D.18198
	jg	.L156	#,
	.loc 1 717 0 is_stmt 0 discriminator 1
	movl	$1, %edx	#,
	movq	%rbx, %rsi	# sp,
	movq	%rbx, %rdi	# sp,
	call	Perl_stack_grow	#
	movq	%rax, %rbx	#, sp
.L156:
	.loc 1 717 0 discriminator 2
	addq	$8, %rbx	#, sp
	movq	$PL_sv_undef, (%rbx)	#, *sp_37
.LBE33:
	.loc 1 719 0 is_stmt 1 discriminator 2
	movq	%rbx, PL_stack_sp(%rip)	# sp, PL_stack_sp
	movq	PL_op(%rip), %rax	# PL_op, PL_op.203
	movq	(%rax), %rax	# PL_op.203_39->op_next, D.18191
.L155:
	.loc 1 720 0
	addq	$24, %rsp	#,
	popq	%rbx	#
	popq	%rbp	#
	.cfi_def_cfa 7, 8
	ret
	.cfi_endproc
.LFE12:
	.size	Perl_pp_umask, .-Perl_pp_umask
	.section	.rodata
.LC20:
	.string	"BINMODE"
	.text
	.globl	Perl_pp_binmode
	.type	Perl_pp_binmode, @function
Perl_pp_binmode:
.LFB13:
	.loc 1 723 0
	.cfi_startproc
	pushq	%rbp	#
	.cfi_def_cfa_offset 16
	.cfi_offset 6, -16
	movq	%rsp, %rbp	#,
	.cfi_def_cfa_register 6
	pushq	%rbx	#
	subq	$56, %rsp	#,
	.cfi_offset 3, -24
	.loc 1 724 0
	movq	PL_stack_sp(%rip), %rbx	# PL_stack_sp, sp
	.loc 1 729 0
	movq	$0, -56(%rbp)	#, discp
	.loc 1 731 0
	movq	PL_op(%rip), %rax	# PL_op, PL_op.204
	movzbl	37(%rax), %eax	# PL_op.204_18->op_private, D.18202
	movzbl	%al, %eax	# D.18202, D.18203
	andl	$15, %eax	#, D.18203
	testl	%eax, %eax	# D.18203
	jg	.L158	#,
	.loc 1 732 0
	addq	$8, %rbx	#, sp
	movq	$PL_sv_undef, (%rbx)	#, *sp_22
	movq	%rbx, PL_stack_sp(%rip)	# sp, PL_stack_sp
	movq	PL_op(%rip), %rax	# PL_op, PL_op.205
	movq	(%rax), %rax	# PL_op.205_23->op_next, D.18201
	jmp	.L159	#
.L158:
	.loc 1 733 0
	movq	PL_op(%rip), %rax	# PL_op, PL_op.206
	movzbl	37(%rax), %eax	# PL_op.206_25->op_private, D.18202
	movzbl	%al, %eax	# D.18202, D.18203
	andl	$15, %eax	#, D.18203
	cmpl	$1, %eax	#, D.18203
	jle	.L160	#,
	.loc 1 734 0
	movq	%rbx, %rax	# sp, sp.207
	leaq	-8(%rax), %rbx	#, sp
	movq	(%rax), %rax	# *sp.207_29, tmp184
	movq	%rax, -56(%rbp)	# tmp184, discp
.L160:
	.loc 1 737 0
	movq	%rbx, %rax	# sp, sp.208
	leaq	-8(%rax), %rbx	#, sp
	movq	(%rax), %rax	# *sp.208_32, tmp185
	movq	%rax, -48(%rbp)	# tmp185, gv
	.loc 1 739 0
	cmpq	$0, -48(%rbp)	#, gv
	je	.L161	#,
	.loc 1 739 0 is_stmt 0 discriminator 1
	cmpq	$0, -48(%rbp)	#, gv
	je	.L162	#,
	movq	-48(%rbp), %rax	# gv, tmp186
	movl	12(%rax), %eax	# MEM[(struct SV *)gv_34].sv_flags, D.18204
	movzbl	%al, %eax	# D.18204, D.18204
	cmpl	$13, %eax	#, D.18204
	jne	.L162	#,
	movq	-48(%rbp), %rax	# gv, tmp187
	movq	(%rax), %rax	# gv_34->sv_any, D.18205
	movq	56(%rax), %rax	# _37->xgv_gp, D.18206
	testq	%rax, %rax	# D.18206
	je	.L162	#,
	movq	-48(%rbp), %rax	# gv, tmp188
	movq	(%rax), %rax	# gv_34->sv_any, D.18205
	movq	56(%rax), %rax	# _39->xgv_gp, D.18206
	movq	16(%rax), %rax	# _40->gp_io, iftmp.209
	jmp	.L163	#
.L162:
	.loc 1 739 0 discriminator 2
	movl	$0, %eax	#, iftmp.209
.L163:
	.loc 1 739 0 discriminator 3
	movq	%rax, -40(%rbp)	# iftmp.209, io
	cmpq	$0, -40(%rbp)	#, io
	je	.L161	#,
	.loc 1 740 0 is_stmt 1
	movq	-40(%rbp), %rax	# io, tmp189
	movl	12(%rax), %eax	# MEM[(struct SV *)io_43].sv_flags, D.18204
	andl	$32768, %eax	#, D.18204
	testl	%eax, %eax	# D.18204
	je	.L164	#,
	.loc 1 740 0 is_stmt 0 discriminator 1
	movq	-40(%rbp), %rax	# io, tmp190
	movl	$113, %esi	#,
	movq	%rax, %rdi	# tmp190,
	call	Perl_mg_find	#
	jmp	.L165	#
.L164:
	.loc 1 740 0 discriminator 2
	movl	$0, %eax	#, iftmp.210
.L165:
	.loc 1 740 0 discriminator 3
	movq	%rax, -32(%rbp)	# iftmp.210, mg
	cmpq	$0, -32(%rbp)	#, mg
	je	.L161	#,
.LBB34:
	.loc 1 742 0 is_stmt 1
	movq	PL_markstack_ptr(%rip), %rax	# PL_markstack_ptr, PL_markstack_ptr.211
	addq	$4, %rax	#, PL_markstack_ptr.212
	movq	%rax, PL_markstack_ptr(%rip)	# PL_markstack_ptr.212, PL_markstack_ptr
	movq	PL_markstack_ptr(%rip), %rdx	# PL_markstack_ptr, PL_markstack_ptr.213
	movq	PL_markstack_max(%rip), %rax	# PL_markstack_max, PL_markstack_max.214
	cmpq	%rax, %rdx	# PL_markstack_max.214, PL_markstack_ptr.213
	jne	.L166	#,
	.loc 1 742 0 is_stmt 0 discriminator 1
	call	Perl_markstack_grow	#
.L166:
	.loc 1 742 0 discriminator 2
	movq	PL_markstack_ptr(%rip), %rax	# PL_markstack_ptr, PL_markstack_ptr.215
	movq	%rbx, %rcx	# sp, sp.216
	movq	PL_stack_base(%rip), %rdx	# PL_stack_base, PL_stack_base.217
	subq	%rdx, %rcx	# PL_stack_base.218, D.18207
	movq	%rcx, %rdx	# D.18207, D.18207
	sarq	$3, %rdx	#, tmp191
	movl	%edx, (%rax)	# D.18203, *PL_markstack_ptr.215_53
.LBE34:
.LBB35:
	.loc 1 743 0 is_stmt 1 discriminator 2
	movq	PL_stack_max(%rip), %rax	# PL_stack_max, PL_stack_max.219
	movq	%rax, %rdx	# PL_stack_max.219, PL_stack_max.220
	movq	%rbx, %rax	# sp, sp.221
	subq	%rax, %rdx	# sp.221, D.18207
	movq	%rdx, %rax	# D.18207, D.18207
	cmpq	$7, %rax	#, D.18207
	jg	.L167	#,
	.loc 1 743 0 is_stmt 0 discriminator 1
	movl	$1, %edx	#,
	movq	%rbx, %rsi	# sp,
	movq	%rbx, %rdi	# sp,
	call	Perl_stack_grow	#
	movq	%rax, %rbx	#, sp
.L167:
	.loc 1 743 0 discriminator 2
	addq	$8, %rbx	#, sp
	movq	-32(%rbp), %rax	# mg, tmp192
	movq	24(%rax), %rax	# mg_48->mg_obj, D.18209
	testq	%rax, %rax	# D.18209
	je	.L168	#,
	.loc 1 743 0 discriminator 1
	movq	-32(%rbp), %rax	# mg, tmp193
	movq	24(%rax), %rax	# mg_48->mg_obj, iftmp.222
	jmp	.L169	#
.L168:
	.loc 1 743 0 discriminator 2
	movq	-40(%rbp), %rax	# io, tmp194
	movq	%rax, %rdi	# tmp194,
	call	Perl_newRV	#
	movq	%rax, %rdi	# D.18209,
	call	Perl_sv_2mortal	#
.L169:
	.loc 1 743 0 discriminator 3
	movq	%rax, (%rbx)	# iftmp.222, *sp_66
.LBE35:
	.loc 1 744 0 is_stmt 1 discriminator 3
	cmpq	$0, -56(%rbp)	#, discp
	je	.L170	#,
.LBB36:
	.loc 1 745 0
	movq	PL_stack_max(%rip), %rax	# PL_stack_max, PL_stack_max.223
	movq	%rax, %rdx	# PL_stack_max.223, PL_stack_max.224
	movq	%rbx, %rax	# sp, sp.225
	subq	%rax, %rdx	# sp.225, D.18207
	movq	%rdx, %rax	# D.18207, D.18207
	cmpq	$7, %rax	#, D.18207
	jg	.L171	#,
	.loc 1 745 0 is_stmt 0 discriminator 1
	movl	$1, %edx	#,
	movq	%rbx, %rsi	# sp,
	movq	%rbx, %rdi	# sp,
	call	Perl_stack_grow	#
	movq	%rax, %rbx	#, sp
.L171:
	.loc 1 745 0 discriminator 2
	addq	$8, %rbx	#, sp
	movq	-56(%rbp), %rax	# discp, tmp195
	movq	%rax, (%rbx)	# tmp195, *sp_77
.L170:
.LBE36:
	.loc 1 746 0 is_stmt 1
	movq	%rbx, PL_stack_sp(%rip)	# sp, PL_stack_sp
	.loc 1 747 0
	call	Perl_push_scope	#
	.loc 1 748 0
	movl	$0, %esi	#,
	movl	$.LC20, %edi	#,
	call	Perl_call_method	#
	.loc 1 749 0
	call	Perl_pop_scope	#
	.loc 1 750 0
	movq	PL_stack_sp(%rip), %rbx	# PL_stack_sp, sp
	.loc 1 751 0
	movq	%rbx, PL_stack_sp(%rip)	# sp, PL_stack_sp
	movq	PL_op(%rip), %rax	# PL_op, PL_op.226
	movq	(%rax), %rax	# PL_op.226_80->op_next, D.18201
	jmp	.L159	#
.L161:
	.loc 1 754 0
	movq	PL_stack_max(%rip), %rax	# PL_stack_max, PL_stack_max.227
	movq	%rax, %rdx	# PL_stack_max.227, PL_stack_max.228
	movq	%rbx, %rax	# sp, sp.229
	subq	%rax, %rdx	# sp.229, D.18207
	movq	%rdx, %rax	# D.18207, D.18207
	cmpq	$7, %rax	#, D.18207
	jg	.L172	#,
	.loc 1 754 0 is_stmt 0 discriminator 1
	movl	$1, %edx	#,
	movq	%rbx, %rsi	# sp,
	movq	%rbx, %rdi	# sp,
	call	Perl_stack_grow	#
	movq	%rax, %rbx	#, sp
.L172:
	.loc 1 755 0 is_stmt 1
	cmpq	$0, -48(%rbp)	#, gv
	je	.L173	#,
	.loc 1 755 0 is_stmt 0 discriminator 1
	movq	-48(%rbp), %rax	# gv, tmp196
	movl	12(%rax), %eax	# MEM[(struct SV *)gv_34].sv_flags, D.18204
	movzbl	%al, %eax	# D.18204, D.18204
	cmpl	$13, %eax	#, D.18204
	jne	.L173	#,
	movq	-48(%rbp), %rax	# gv, tmp197
	movq	(%rax), %rax	# gv_34->sv_any, D.18205
	movq	56(%rax), %rax	# _89->xgv_gp, D.18206
	testq	%rax, %rax	# D.18206
	je	.L173	#,
	movq	-48(%rbp), %rax	# gv, tmp198
	movq	(%rax), %rax	# gv_34->sv_any, D.18205
	movq	56(%rax), %rax	# _91->xgv_gp, D.18206
	movq	16(%rax), %rax	# _92->gp_io, iftmp.230
	jmp	.L174	#
.L173:
	.loc 1 755 0 discriminator 2
	movl	$0, %eax	#, iftmp.230
.L174:
	.loc 1 755 0 discriminator 3
	movq	%rax, -40(%rbp)	# iftmp.230, io
	cmpq	$0, -40(%rbp)	#, io
	je	.L175	#,
	.loc 1 755 0 discriminator 1
	movq	-40(%rbp), %rax	# io, tmp199
	movq	(%rax), %rax	# io_95->sv_any, D.18210
	movq	56(%rax), %rax	# _96->xio_ifp, tmp200
	movq	%rax, -24(%rbp)	# tmp200, fp
	cmpq	$0, -24(%rbp)	#, fp
	jne	.L176	#,
.L175:
	.loc 1 756 0 is_stmt 1
	movq	PL_curcop(%rip), %rax	# PL_curcop, PL_curcop.231
	movq	80(%rax), %rax	# PL_curcop.231_142->cop_warnings, D.18209
	testq	%rax, %rax	# D.18209
	je	.L177	#,
	.loc 1 756 0 is_stmt 0 discriminator 1
	movq	PL_curcop(%rip), %rax	# PL_curcop, PL_curcop.232
	movq	80(%rax), %rax	# PL_curcop.232_144->cop_warnings, D.18209
	cmpq	$32, %rax	#, D.18209
	je	.L177	#,
	movq	PL_curcop(%rip), %rax	# PL_curcop, PL_curcop.233
	movq	80(%rax), %rax	# PL_curcop.233_146->cop_warnings, D.18209
	cmpq	$16, %rax	#, D.18209
	je	.L178	#,
	movq	PL_curcop(%rip), %rax	# PL_curcop, PL_curcop.234
	movq	80(%rax), %rax	# PL_curcop.234_148->cop_warnings, D.18209
	movq	(%rax), %rax	# _149->sv_any, D.18211
	movq	(%rax), %rax	# MEM[(struct XPV *)_150].xpv_pv, D.18214
	addq	$2, %rax	#, D.18214
	movzbl	(%rax), %eax	# *_152, D.18212
	movsbl	%al, %eax	# D.18212, D.18203
	andl	$64, %eax	#, D.18203
	testl	%eax, %eax	# D.18203
	jne	.L178	#,
	movq	PL_curcop(%rip), %rax	# PL_curcop, PL_curcop.235
	movq	80(%rax), %rax	# PL_curcop.235_156->cop_warnings, D.18209
	movq	(%rax), %rax	# _157->sv_any, D.18211
	movq	(%rax), %rax	# MEM[(struct XPV *)_158].xpv_pv, D.18214
	addq	$1, %rax	#, D.18214
	movzbl	(%rax), %eax	# *_160, D.18212
	movsbl	%al, %eax	# D.18212, D.18203
	andl	$16, %eax	#, D.18203
	testl	%eax, %eax	# D.18203
	jne	.L178	#,
.L177:
	.loc 1 756 0 discriminator 2
	movq	PL_curcop(%rip), %rax	# PL_curcop, PL_curcop.236
	movq	80(%rax), %rax	# PL_curcop.236_164->cop_warnings, D.18209
	testq	%rax, %rax	# D.18209
	jne	.L179	#,
	.loc 1 756 0 discriminator 1
	movzbl	PL_dowarn(%rip), %eax	# PL_dowarn, PL_dowarn.237
	movzbl	%al, %eax	# PL_dowarn.237, D.18203
	andl	$1, %eax	#, D.18203
	testl	%eax, %eax	# D.18203
	je	.L179	#,
.L178:
	.loc 1 757 0 is_stmt 1
	movq	PL_op(%rip), %rax	# PL_op, PL_op.238
	movzwl	32(%rax), %eax	# PL_op.238_169->op_type, D.18215
	movzwl	%ax, %edx	# D.18215, D.18203
	movq	-40(%rbp), %rcx	# io, tmp201
	movq	-48(%rbp), %rax	# gv, tmp202
	movq	%rcx, %rsi	# tmp201,
	movq	%rax, %rdi	# tmp202,
	call	Perl_report_evil_fh	#
.L179:
	.loc 1 758 0
	call	__errno_location	#
	movl	$9, (%rax)	#, *_172
	.loc 1 759 0
	addq	$8, %rbx	#, sp
	movq	$PL_sv_undef, (%rbx)	#, *sp_173
	movq	%rbx, PL_stack_sp(%rip)	# sp, PL_stack_sp
	movq	PL_op(%rip), %rax	# PL_op, PL_op.239
	movq	(%rax), %rax	# PL_op.239_174->op_next, D.18201
	jmp	.L159	#
.L176:
	.loc 1 762 0
	movq	%rbx, PL_stack_sp(%rip)	# sp, PL_stack_sp
	.loc 1 763 0
	cmpq	$0, -56(%rbp)	#, discp
	je	.L180	#,
	.loc 1 764 0 discriminator 1
	movq	-56(%rbp), %rax	# discp, tmp203
	movl	12(%rax), %eax	# discp_6->sv_flags, D.18204
	andl	$262144, %eax	#, D.18204
	.loc 1 763 0 discriminator 1
	testl	%eax, %eax	# D.18204
	je	.L181	#,
	.loc 1 764 0
	movq	-56(%rbp), %rax	# discp, tmp204
	movq	(%rax), %rax	# discp_6->sv_any, D.18211
	.loc 1 763 0
	movq	(%rax), %rax	# MEM[(struct XPV *)_100].xpv_pv, iftmp.241
	jmp	.L182	#
.L181:
	.loc 1 763 0 is_stmt 0 discriminator 3
	movq	-56(%rbp), %rax	# discp, tmp205
	movq	%rax, %rdi	# tmp205,
	call	Perl_sv_2pv_nolen	#
.L182:
	.loc 1 763 0 discriminator 1
	movq	%rax, %rbx	# iftmp.241, iftmp.240
	jmp	.L183	#
.L180:
	.loc 1 763 0 discriminator 2
	movl	$0, %ebx	#, iftmp.240
.L183:
	.loc 1 763 0 discriminator 4
	movq	-56(%rbp), %rax	# discp, tmp206
	movq	%rax, %rdi	# tmp206,
	call	Perl_mode_from_discipline	#
	movl	%eax, %edx	#, D.18203
	movq	-40(%rbp), %rax	# io, tmp207
	movq	(%rax), %rax	# io_95->sv_any, D.18210
	movzbl	162(%rax), %eax	# _106->xio_type, D.18212
	movsbl	%al, %esi	# D.18212, D.18203
	movq	-24(%rbp), %rax	# fp, tmp208
	movq	%rbx, %rcx	# iftmp.240,
	movq	%rax, %rdi	# tmp208,
	call	PerlIO_binmode	#
	testl	%eax, %eax	# D.18203
	je	.L184	#,
	.loc 1 765 0 is_stmt 1
	movq	-40(%rbp), %rax	# io, tmp209
	movq	(%rax), %rax	# io_95->sv_any, D.18210
	movq	64(%rax), %rax	# _110->xio_ofp, D.18213
	testq	%rax, %rax	# D.18213
	je	.L185	#,
	.loc 1 765 0 is_stmt 0 discriminator 1
	movq	-40(%rbp), %rax	# io, tmp210
	movq	(%rax), %rax	# io_95->sv_any, D.18210
	movq	64(%rax), %rdx	# _112->xio_ofp, D.18213
	movq	-40(%rbp), %rax	# io, tmp211
	movq	(%rax), %rax	# io_95->sv_any, D.18210
	movq	56(%rax), %rax	# _114->xio_ifp, D.18213
	cmpq	%rax, %rdx	# D.18213, D.18213
	je	.L185	#,
	.loc 1 766 0 is_stmt 1
	cmpq	$0, -56(%rbp)	#, discp
	je	.L186	#,
	.loc 1 768 0 discriminator 1
	movq	-56(%rbp), %rax	# discp, tmp212
	movl	12(%rax), %eax	# discp_6->sv_flags, D.18204
	andl	$262144, %eax	#, D.18204
	.loc 1 766 0 discriminator 1
	testl	%eax, %eax	# D.18204
	je	.L187	#,
	.loc 1 768 0
	movq	-56(%rbp), %rax	# discp, tmp213
	movq	(%rax), %rax	# discp_6->sv_any, D.18211
	.loc 1 766 0
	movq	(%rax), %rax	# MEM[(struct XPV *)_118].xpv_pv, iftmp.243
	jmp	.L188	#
.L187:
	.loc 1 766 0 is_stmt 0 discriminator 3
	movq	-56(%rbp), %rax	# discp, tmp214
	movq	%rax, %rdi	# tmp214,
	call	Perl_sv_2pv_nolen	#
.L188:
	.loc 1 766 0 discriminator 2
	movq	%rax, %rbx	# iftmp.243, iftmp.242
	jmp	.L189	#
.L186:
	movl	$0, %ebx	#, iftmp.242
.L189:
	.loc 1 766 0 discriminator 4
	movq	-56(%rbp), %rax	# discp, tmp215
	movq	%rax, %rdi	# tmp215,
	call	Perl_mode_from_discipline	#
	movl	%eax, %edx	#, D.18203
	movq	-40(%rbp), %rax	# io, tmp216
	movq	(%rax), %rax	# io_95->sv_any, D.18210
	movzbl	162(%rax), %eax	# _124->xio_type, D.18212
	movsbl	%al, %esi	# D.18212, D.18203
	movq	-40(%rbp), %rax	# io, tmp217
	movq	(%rax), %rax	# io_95->sv_any, D.18210
	movq	64(%rax), %rax	# _127->xio_ofp, D.18213
	movq	%rbx, %rcx	# iftmp.242,
	movq	%rax, %rdi	# D.18213,
	call	PerlIO_binmode	#
	testl	%eax, %eax	# D.18203
	jne	.L185	#,
	.loc 1 769 0 is_stmt 1
	movq	PL_stack_sp(%rip), %rbx	# PL_stack_sp, sp
	.loc 1 770 0
	addq	$8, %rbx	#, sp
	movq	$PL_sv_undef, (%rbx)	#, *sp_131
	movq	%rbx, PL_stack_sp(%rip)	# sp, PL_stack_sp
	movq	PL_op(%rip), %rax	# PL_op, PL_op.244
	movq	(%rax), %rax	# PL_op.244_132->op_next, D.18201
	jmp	.L159	#
.L185:
	.loc 1 773 0
	movq	PL_stack_sp(%rip), %rbx	# PL_stack_sp, sp
	.loc 1 774 0
	addq	$8, %rbx	#, sp
	movq	$PL_sv_yes, (%rbx)	#, *sp_135
	movq	%rbx, PL_stack_sp(%rip)	# sp, PL_stack_sp
	movq	PL_op(%rip), %rax	# PL_op, PL_op.245
	movq	(%rax), %rax	# PL_op.245_136->op_next, D.18201
	jmp	.L159	#
.L184:
	.loc 1 777 0
	movq	PL_stack_sp(%rip), %rbx	# PL_stack_sp, sp
	.loc 1 778 0
	addq	$8, %rbx	#, sp
	movq	$PL_sv_undef, (%rbx)	#, *sp_139
	movq	%rbx, PL_stack_sp(%rip)	# sp, PL_stack_sp
	movq	PL_op(%rip), %rax	# PL_op, PL_op.246
	movq	(%rax), %rax	# PL_op.246_140->op_next, D.18201
.L159:
	.loc 1 780 0
	addq	$56, %rsp	#,
	popq	%rbx	#
	popq	%rbp	#
	.cfi_def_cfa 7, 8
	ret
	.cfi_endproc
.LFE13:
	.size	Perl_pp_binmode, .-Perl_pp_binmode
	.section	.rodata
.LC21:
	.string	"TIEHASH"
.LC22:
	.string	"TIEARRAY"
.LC23:
	.string	"TIEHANDLE"
.LC24:
	.string	"TIESCALAR"
	.align 8
.LC25:
	.string	"Can't locate object method \"%s\" via package \"%_\""
.LC26:
	.string	"panic: POPSTACK\n"
	.align 8
.LC27:
	.string	"Self-ties of arrays and hashes are not supported"
	.text
	.globl	Perl_pp_tie
	.type	Perl_pp_tie, @function
Perl_pp_tie:
.LFB14:
	.loc 1 783 0
	.cfi_startproc
	pushq	%rbp	#
	.cfi_def_cfa_offset 16
	.cfi_offset 6, -16
	movq	%rsp, %rbp	#,
	.cfi_def_cfa_register 6
	pushq	%r13	#
	pushq	%r12	#
	pushq	%rbx	#
	subq	$88, %rsp	#,
	.cfi_offset 13, -24
	.cfi_offset 12, -32
	.cfi_offset 3, -40
	.loc 1 784 0
	movq	PL_stack_sp(%rip), %rbx	# PL_stack_sp, sp
	.loc 1 785 0
	movq	PL_stack_base(%rip), %rcx	# PL_stack_base, PL_stack_base.247
	movq	PL_markstack_ptr(%rip), %rax	# PL_markstack_ptr, PL_markstack_ptr.248
	leaq	-4(%rax), %rdx	#, PL_markstack_ptr.250
	movq	%rdx, PL_markstack_ptr(%rip)	# PL_markstack_ptr.250, PL_markstack_ptr
	movl	(%rax), %eax	# *PL_markstack_ptr.249_20, D.18219
	cltq
	salq	$3, %rax	#, D.18220
	leaq	(%rcx,%rax), %r12	#, mark
	.loc 1 790 0
	movq	%r12, %rdx	# mark, mark.251
	movq	PL_stack_base(%rip), %rax	# PL_stack_base, PL_stack_base.252
	subq	%rax, %rdx	# PL_stack_base.253, D.18221
	movq	%rdx, %rax	# D.18221, D.18221
	sarq	$3, %rax	#, tmp269
	movl	%eax, -100(%rbp)	# D.18221, markoff
	.loc 1 792 0
	movl	$80, -108(%rbp)	#, how
	.loc 1 795 0
	addq	$8, %r12	#, mark
	movq	(%r12), %rax	# *mark_33, tmp270
	movq	%rax, -96(%rbp)	# tmp270, varsv
	.loc 1 796 0
	movq	-96(%rbp), %rax	# varsv, tmp271
	movl	12(%rax), %eax	# varsv_34->sv_flags, D.18222
	movzbl	%al, %eax	# D.18222, D.18222
	cmpl	$11, %eax	#, D.18222
	je	.L192	#,
	cmpl	$13, %eax	#, D.18222
	je	.L193	#,
	cmpl	$10, %eax	#, D.18222
	je	.L194	#,
	jmp	.L220	#
.L192:
	.loc 1 798 0
	movq	$.LC21, -88(%rbp)	#, methname
	.loc 1 799 0
	movq	-96(%rbp), %rax	# varsv, tmp272
	movq	(%rax), %rax	# MEM[(struct HV *)varsv_34].sv_any, D.18223
	movq	$0, 64(%rax)	#, _38->xhv_eiter
	.loc 1 800 0
	jmp	.L195	#
.L194:
	.loc 1 802 0
	movq	$.LC22, -88(%rbp)	#, methname
	.loc 1 803 0
	jmp	.L195	#
.L193:
	.loc 1 810 0
	movq	$.LC23, -88(%rbp)	#, methname
	.loc 1 811 0
	movl	$113, -108(%rbp)	#, how
	.loc 1 814 0
	movq	-96(%rbp), %rax	# varsv, tmp273
	movq	(%rax), %rax	# varsv_34->sv_any, D.18224
	movq	56(%rax), %rax	# MEM[(struct XPVGV *)_42].xgv_gp, D.18225
	movq	16(%rax), %rax	# _43->gp_io, D.18226
	testq	%rax, %rax	# D.18226
	jne	.L196	#,
	.loc 1 815 0
	movq	-96(%rbp), %rax	# varsv, tmp274
	movq	(%rax), %rax	# varsv_34->sv_any, D.18224
	movq	56(%rax), %r13	# MEM[(struct XPVGV *)_45].xgv_gp, D.18225
	call	Perl_newIO	#
	movq	%rax, 16(%r13)	# D.18227, _46->gp_io
.L196:
	.loc 1 816 0
	movq	-96(%rbp), %rax	# varsv, tmp275
	movq	(%rax), %rax	# varsv_34->sv_any, D.18224
	movq	56(%rax), %rax	# MEM[(struct XPVGV *)_48].xgv_gp, D.18225
	movq	16(%rax), %rax	# _49->gp_io, tmp276
	movq	%rax, -96(%rbp)	# tmp276, varsv
	.loc 1 817 0
	jmp	.L195	#
.L220:
	.loc 1 819 0
	movq	$.LC24, -88(%rbp)	#, methname
	.loc 1 820 0
	movl	$113, -108(%rbp)	#, how
	.loc 1 821 0
	nop
.L195:
	.loc 1 823 0
	movq	%rbx, %rdx	# sp, sp.254
	movq	%r12, %rax	# mark, mark.255
	leaq	8(%rax), %r12	#, mark
	subq	%rax, %rdx	# mark.256, D.18221
	movq	%rdx, %rax	# D.18221, D.18221
	sarq	$3, %rax	#, tmp277
	movl	%eax, -104(%rbp)	# D.18221, items
	.loc 1 824 0
	movq	(%r12), %rax	# *mark_55, D.18228
	movq	%rax, %rdi	# D.18228,
	call	Perl_sv_isobject	#
	testl	%eax, %eax	# D.18219
	je	.L197	#,
	.loc 1 825 0
	call	Perl_push_scope	#
.LBB37:
	.loc 1 826 0
	movq	PL_curstackinfo(%rip), %rax	# PL_curstackinfo, PL_curstackinfo.257
	movq	40(%rax), %rax	# PL_curstackinfo.257_62->si_next, tmp278
	movq	%rax, -80(%rbp)	# tmp278, next
	cmpq	$0, -80(%rbp)	#, next
	jne	.L198	#,
	.loc 1 826 0 is_stmt 0 discriminator 1
	movl	$13, %esi	#,
	movl	$32, %edi	#,
	call	Perl_new_stackinfo	#
	movq	%rax, -80(%rbp)	# tmp279, next
	movq	PL_curstackinfo(%rip), %rdx	# PL_curstackinfo, PL_curstackinfo.258
	movq	-80(%rbp), %rax	# next, tmp280
	movq	%rdx, 32(%rax)	# PL_curstackinfo.258, next_64->si_prev
	movq	PL_curstackinfo(%rip), %rax	# PL_curstackinfo, PL_curstackinfo.259
	movq	-80(%rbp), %rdx	# next, tmp281
	movq	%rdx, 40(%rax)	# tmp281, PL_curstackinfo.259_66->si_next
.L198:
	.loc 1 826 0 discriminator 2
	movq	-80(%rbp), %rax	# next, tmp282
	movl	$2, 24(%rax)	#, next_12->si_type
	movq	-80(%rbp), %rax	# next, tmp283
	movl	$-1, 16(%rax)	#, next_12->si_cxix
	movq	-80(%rbp), %rax	# next, tmp284
	movq	(%rax), %rax	# next_12->si_stack, D.18229
	movq	(%rax), %rax	# _67->sv_any, D.18230
	movq	$0, 8(%rax)	#, _68->xav_fill
.LBB38:
	movq	PL_curstack(%rip), %rax	# PL_curstack, PL_curstack.260
	movq	(%rax), %rax	# PL_curstack.260_69->sv_any, D.18230
	movq	%rbx, %rcx	# sp, sp.261
	movq	PL_stack_base(%rip), %rdx	# PL_stack_base, PL_stack_base.262
	subq	%rdx, %rcx	# PL_stack_base.263, D.18221
	movq	%rcx, %rdx	# D.18221, D.18221
	sarq	$3, %rdx	#, tmp285
	movq	%rdx, 8(%rax)	# D.18221, _70->xav_fill
	movq	-80(%rbp), %rax	# next, tmp286
	movq	(%rax), %rax	# next_12->si_stack, D.18229
	movq	(%rax), %rax	# _76->sv_any, D.18230
	movq	(%rax), %rax	# _77->xav_array, PL_stack_base.264
	movq	%rax, PL_stack_base(%rip)	# PL_stack_base.264, PL_stack_base
	movq	PL_stack_base(%rip), %rdx	# PL_stack_base, PL_stack_base.265
	movq	-80(%rbp), %rax	# next, tmp287
	movq	(%rax), %rax	# next_12->si_stack, D.18229
	movq	(%rax), %rax	# _80->sv_any, D.18230
	movq	16(%rax), %rax	# _81->xav_max, D.18221
	salq	$3, %rax	#, D.18220
	addq	%rdx, %rax	# PL_stack_base.265, PL_stack_max.266
	movq	%rax, PL_stack_max(%rip)	# PL_stack_max.266, PL_stack_max
	movq	PL_stack_base(%rip), %rdx	# PL_stack_base, PL_stack_base.267
	movq	-80(%rbp), %rax	# next, tmp288
	movq	(%rax), %rax	# next_12->si_stack, D.18229
	movq	(%rax), %rax	# _87->sv_any, D.18230
	movq	8(%rax), %rax	# _88->xav_fill, D.18221
	salq	$3, %rax	#, D.18220
	addq	%rdx, %rax	# PL_stack_base.267, PL_stack_sp.268
	movq	%rax, PL_stack_sp(%rip)	# PL_stack_sp.268, PL_stack_sp
	movq	PL_stack_sp(%rip), %rbx	# PL_stack_sp, sp
	movq	-80(%rbp), %rax	# next, tmp289
	movq	(%rax), %rax	# next_12->si_stack, PL_curstack.269
	movq	%rax, PL_curstack(%rip)	# PL_curstack.269, PL_curstack
.LBE38:
	movq	-80(%rbp), %rax	# next, tmp290
	movq	%rax, PL_curstackinfo(%rip)	# tmp290, PL_curstackinfo
.LBE37:
.LBB39:
	.loc 1 827 0 is_stmt 1 discriminator 2
	movq	PL_markstack_ptr(%rip), %rax	# PL_markstack_ptr, PL_markstack_ptr.270
	addq	$4, %rax	#, PL_markstack_ptr.271
	movq	%rax, PL_markstack_ptr(%rip)	# PL_markstack_ptr.271, PL_markstack_ptr
	movq	PL_markstack_ptr(%rip), %rdx	# PL_markstack_ptr, PL_markstack_ptr.272
	movq	PL_markstack_max(%rip), %rax	# PL_markstack_max, PL_markstack_max.273
	cmpq	%rax, %rdx	# PL_markstack_max.273, PL_markstack_ptr.272
	jne	.L199	#,
	.loc 1 827 0 is_stmt 0 discriminator 1
	call	Perl_markstack_grow	#
.L199:
	.loc 1 827 0 discriminator 2
	movq	PL_markstack_ptr(%rip), %rax	# PL_markstack_ptr, PL_markstack_ptr.274
	movq	%rbx, %rcx	# sp, sp.275
	movq	PL_stack_base(%rip), %rdx	# PL_stack_base, PL_stack_base.276
	subq	%rdx, %rcx	# PL_stack_base.277, D.18221
	movq	%rcx, %rdx	# D.18221, D.18221
	sarq	$3, %rdx	#, tmp291
	movl	%edx, (%rax)	# D.18219, *PL_markstack_ptr.274_100
.LBE39:
	.loc 1 828 0 is_stmt 1 discriminator 2
	movq	PL_stack_max(%rip), %rax	# PL_stack_max, PL_stack_max.278
	movq	%rax, %rdx	# PL_stack_max.278, PL_stack_max.279
	movq	%rbx, %rax	# sp, sp.280
	subq	%rax, %rdx	# sp.280, D.18221
	movq	%rdx, %rax	# D.18221, D.18221
	sarq	$3, %rax	#, tmp292
	movq	%rax, %rdx	# tmp292, D.18221
	movl	-104(%rbp), %eax	# items, items.281
	cltq
	cmpq	%rax, %rdx	# D.18221, D.18221
	jge	.L200	#,
	.loc 1 828 0 is_stmt 0 discriminator 1
	movl	-104(%rbp), %eax	# items, items.282
	movl	%eax, %edx	# items.282,
	movq	%rbx, %rsi	# sp,
	movq	%rbx, %rdi	# sp,
	call	Perl_stack_grow	#
	movq	%rax, %rbx	#, sp
	.loc 1 829 0 is_stmt 1 discriminator 1
	jmp	.L201	#
.L200:
	.loc 1 829 0 is_stmt 0
	jmp	.L201	#
.L202:
	.loc 1 830 0 is_stmt 1
	addq	$8, %rbx	#, sp
	movq	%r12, %rax	# mark, mark.283
	leaq	8(%rax), %r12	#, mark
	movq	(%rax), %rax	# *mark.283_120, D.18228
	movq	%rax, (%rbx)	# D.18228, *sp_119
.L201:
	.loc 1 829 0 discriminator 1
	movl	-104(%rbp), %eax	# items, items.284
	leal	-1(%rax), %edx	#, tmp293
	movl	%edx, -104(%rbp)	# tmp293, items
	testl	%eax, %eax	# items.284
	jne	.L202	#,
	.loc 1 831 0
	movq	%rbx, PL_stack_sp(%rip)	# sp, PL_stack_sp
	.loc 1 832 0
	movq	-88(%rbp), %rax	# methname, tmp294
	movl	$0, %esi	#,
	movq	%rax, %rdi	# tmp294,
	call	Perl_call_method	#
	jmp	.L203	#
.L197:
	.loc 1 838 0
	movq	(%r12), %rax	# *mark_55, D.18228
	movl	$0, %esi	#,
	movq	%rax, %rdi	# D.18228,
	call	Perl_gv_stashsv	#
	movq	%rax, -64(%rbp)	# tmp295, stash
	.loc 1 839 0
	cmpq	$0, -64(%rbp)	#, stash
	je	.L204	#,
	.loc 1 839 0 is_stmt 0 discriminator 1
	movq	-88(%rbp), %rdx	# methname, tmp296
	movq	-64(%rbp), %rax	# stash, tmp297
	movq	%rdx, %rsi	# tmp296,
	movq	%rax, %rdi	# tmp297,
	call	Perl_gv_fetchmethod	#
	movq	%rax, -56(%rbp)	# tmp298, gv
	cmpq	$0, -56(%rbp)	#, gv
	jne	.L205	#,
.L204:
	.loc 1 840 0 is_stmt 1
	movq	(%r12), %rdx	# *mark_55, D.18228
	movq	-88(%rbp), %rax	# methname, tmp299
	movq	%rax, %rsi	# tmp299,
	movl	$.LC25, %edi	#,
	movl	$0, %eax	#,
	call	Perl_die	#
	jmp	.L206	#
.L205:
	.loc 1 843 0
	call	Perl_push_scope	#
.LBB40:
	.loc 1 844 0
	movq	PL_curstackinfo(%rip), %rax	# PL_curstackinfo, PL_curstackinfo.285
	movq	40(%rax), %rax	# PL_curstackinfo.285_126->si_next, tmp300
	movq	%rax, -72(%rbp)	# tmp300, next
	cmpq	$0, -72(%rbp)	#, next
	jne	.L207	#,
	.loc 1 844 0 is_stmt 0 discriminator 1
	movl	$13, %esi	#,
	movl	$32, %edi	#,
	call	Perl_new_stackinfo	#
	movq	%rax, -72(%rbp)	# tmp301, next
	movq	PL_curstackinfo(%rip), %rdx	# PL_curstackinfo, PL_curstackinfo.286
	movq	-72(%rbp), %rax	# next, tmp302
	movq	%rdx, 32(%rax)	# PL_curstackinfo.286, next_128->si_prev
	movq	PL_curstackinfo(%rip), %rax	# PL_curstackinfo, PL_curstackinfo.287
	movq	-72(%rbp), %rdx	# next, tmp303
	movq	%rdx, 40(%rax)	# tmp303, PL_curstackinfo.287_130->si_next
.L207:
	.loc 1 844 0 discriminator 2
	movq	-72(%rbp), %rax	# next, tmp304
	movl	$2, 24(%rax)	#, next_13->si_type
	movq	-72(%rbp), %rax	# next, tmp305
	movl	$-1, 16(%rax)	#, next_13->si_cxix
	movq	-72(%rbp), %rax	# next, tmp306
	movq	(%rax), %rax	# next_13->si_stack, D.18229
	movq	(%rax), %rax	# _131->sv_any, D.18230
	movq	$0, 8(%rax)	#, _132->xav_fill
.LBB41:
	movq	PL_curstack(%rip), %rax	# PL_curstack, PL_curstack.288
	movq	(%rax), %rax	# PL_curstack.288_133->sv_any, D.18230
	movq	%rbx, %rcx	# sp, sp.289
	movq	PL_stack_base(%rip), %rdx	# PL_stack_base, PL_stack_base.290
	subq	%rdx, %rcx	# PL_stack_base.291, D.18221
	movq	%rcx, %rdx	# D.18221, D.18221
	sarq	$3, %rdx	#, tmp307
	movq	%rdx, 8(%rax)	# D.18221, _134->xav_fill
	movq	-72(%rbp), %rax	# next, tmp308
	movq	(%rax), %rax	# next_13->si_stack, D.18229
	movq	(%rax), %rax	# _140->sv_any, D.18230
	movq	(%rax), %rax	# _141->xav_array, PL_stack_base.292
	movq	%rax, PL_stack_base(%rip)	# PL_stack_base.292, PL_stack_base
	movq	PL_stack_base(%rip), %rdx	# PL_stack_base, PL_stack_base.293
	movq	-72(%rbp), %rax	# next, tmp309
	movq	(%rax), %rax	# next_13->si_stack, D.18229
	movq	(%rax), %rax	# _144->sv_any, D.18230
	movq	16(%rax), %rax	# _145->xav_max, D.18221
	salq	$3, %rax	#, D.18220
	addq	%rdx, %rax	# PL_stack_base.293, PL_stack_max.294
	movq	%rax, PL_stack_max(%rip)	# PL_stack_max.294, PL_stack_max
	movq	PL_stack_base(%rip), %rdx	# PL_stack_base, PL_stack_base.295
	movq	-72(%rbp), %rax	# next, tmp310
	movq	(%rax), %rax	# next_13->si_stack, D.18229
	movq	(%rax), %rax	# _151->sv_any, D.18230
	movq	8(%rax), %rax	# _152->xav_fill, D.18221
	salq	$3, %rax	#, D.18220
	addq	%rdx, %rax	# PL_stack_base.295, PL_stack_sp.296
	movq	%rax, PL_stack_sp(%rip)	# PL_stack_sp.296, PL_stack_sp
	movq	PL_stack_sp(%rip), %rbx	# PL_stack_sp, sp
	movq	-72(%rbp), %rax	# next, tmp311
	movq	(%rax), %rax	# next_13->si_stack, PL_curstack.297
	movq	%rax, PL_curstack(%rip)	# PL_curstack.297, PL_curstack
.LBE41:
	movq	-72(%rbp), %rax	# next, tmp312
	movq	%rax, PL_curstackinfo(%rip)	# tmp312, PL_curstackinfo
.LBE40:
.LBB42:
	.loc 1 845 0 is_stmt 1 discriminator 2
	movq	PL_markstack_ptr(%rip), %rax	# PL_markstack_ptr, PL_markstack_ptr.298
	addq	$4, %rax	#, PL_markstack_ptr.299
	movq	%rax, PL_markstack_ptr(%rip)	# PL_markstack_ptr.299, PL_markstack_ptr
	movq	PL_markstack_ptr(%rip), %rdx	# PL_markstack_ptr, PL_markstack_ptr.300
	movq	PL_markstack_max(%rip), %rax	# PL_markstack_max, PL_markstack_max.301
	cmpq	%rax, %rdx	# PL_markstack_max.301, PL_markstack_ptr.300
	jne	.L208	#,
	.loc 1 845 0 is_stmt 0 discriminator 1
	call	Perl_markstack_grow	#
.L208:
	.loc 1 845 0 discriminator 2
	movq	PL_markstack_ptr(%rip), %rax	# PL_markstack_ptr, PL_markstack_ptr.302
	movq	%rbx, %rcx	# sp, sp.303
	movq	PL_stack_base(%rip), %rdx	# PL_stack_base, PL_stack_base.304
	subq	%rdx, %rcx	# PL_stack_base.305, D.18221
	movq	%rcx, %rdx	# D.18221, D.18221
	sarq	$3, %rdx	#, tmp313
	movl	%edx, (%rax)	# D.18219, *PL_markstack_ptr.302_164
.LBE42:
	.loc 1 846 0 is_stmt 1 discriminator 2
	movq	PL_stack_max(%rip), %rax	# PL_stack_max, PL_stack_max.306
	movq	%rax, %rdx	# PL_stack_max.306, PL_stack_max.307
	movq	%rbx, %rax	# sp, sp.308
	subq	%rax, %rdx	# sp.308, D.18221
	movq	%rdx, %rax	# D.18221, D.18221
	sarq	$3, %rax	#, tmp314
	movq	%rax, %rdx	# tmp314, D.18221
	movl	-104(%rbp), %eax	# items, items.309
	cltq
	cmpq	%rax, %rdx	# D.18221, D.18221
	jge	.L209	#,
	.loc 1 846 0 is_stmt 0 discriminator 1
	movl	-104(%rbp), %eax	# items, items.310
	movl	%eax, %edx	# items.310,
	movq	%rbx, %rsi	# sp,
	movq	%rbx, %rdi	# sp,
	call	Perl_stack_grow	#
	movq	%rax, %rbx	#, sp
	.loc 1 847 0 is_stmt 1 discriminator 1
	jmp	.L210	#
.L209:
	.loc 1 847 0 is_stmt 0
	jmp	.L210	#
.L211:
	.loc 1 848 0 is_stmt 1
	addq	$8, %rbx	#, sp
	movq	%r12, %rax	# mark, mark.311
	leaq	8(%rax), %r12	#, mark
	movq	(%rax), %rax	# *mark.311_184, D.18228
	movq	%rax, (%rbx)	# D.18228, *sp_183
.L210:
	.loc 1 847 0 discriminator 1
	movl	-104(%rbp), %eax	# items, items.312
	leal	-1(%rax), %edx	#, tmp315
	movl	%edx, -104(%rbp)	# tmp315, items
	testl	%eax, %eax	# items.312
	jne	.L211	#,
	.loc 1 849 0
	movq	%rbx, PL_stack_sp(%rip)	# sp, PL_stack_sp
	.loc 1 850 0
	movq	-56(%rbp), %rax	# gv, tmp316
	movq	(%rax), %rax	# gv_125->sv_any, D.18232
	movq	56(%rax), %rax	# _187->xgv_gp, D.18225
	movq	56(%rax), %rax	# _188->gp_cv, D.18233
	movl	$0, %esi	#,
	movq	%rax, %rdi	# D.18233,
	call	Perl_call_sv	#
.L203:
	.loc 1 852 0
	movq	PL_stack_sp(%rip), %rbx	# PL_stack_sp, sp
	.loc 1 854 0
	movq	(%rbx), %rax	# *sp_192, tmp317
	movq	%rax, -48(%rbp)	# tmp317, sv
.LBB43:
	.loc 1 855 0
	movq	PL_stack_sp(%rip), %rbx	# PL_stack_sp, sp
	movq	PL_curstackinfo(%rip), %rax	# PL_curstackinfo, PL_curstackinfo.313
	movq	32(%rax), %rax	# PL_curstackinfo.313_195->si_prev, tmp318
	movq	%rax, -40(%rbp)	# tmp318, prev
	cmpq	$0, -40(%rbp)	#, prev
	jne	.L212	#,
	.loc 1 855 0 is_stmt 0 discriminator 1
	movq	PL_stderrgv(%rip), %rax	# PL_stderrgv, PL_stderrgv.315
	testq	%rax, %rax	# PL_stderrgv.315
	je	.L213	#,
	movq	PL_stderrgv(%rip), %rax	# PL_stderrgv, PL_stderrgv.316
	movl	12(%rax), %eax	# PL_stderrgv.316_198->sv_flags, D.18222
	movzbl	%al, %eax	# D.18222, D.18222
	cmpl	$13, %eax	#, D.18222
	jne	.L213	#,
	movq	PL_stderrgv(%rip), %rax	# PL_stderrgv, PL_stderrgv.317
	movq	(%rax), %rax	# PL_stderrgv.317_201->sv_any, D.18232
	movq	56(%rax), %rax	# _202->xgv_gp, D.18225
	movq	16(%rax), %rax	# _203->gp_io, D.18226
	testq	%rax, %rax	# D.18226
	je	.L213	#,
	movq	PL_stderrgv(%rip), %rax	# PL_stderrgv, PL_stderrgv.318
	movq	(%rax), %rax	# PL_stderrgv.318_205->sv_any, D.18232
	movq	56(%rax), %rax	# _206->xgv_gp, D.18225
	movq	16(%rax), %rax	# _207->gp_io, D.18226
	movq	(%rax), %rax	# _208->sv_any, D.18234
	movq	64(%rax), %rax	# _209->xio_ofp, D.18235
	testq	%rax, %rax	# D.18235
	je	.L213	#,
	movq	PL_stderrgv(%rip), %rax	# PL_stderrgv, PL_stderrgv.319
	movq	(%rax), %rax	# PL_stderrgv.319_211->sv_any, D.18232
	movq	56(%rax), %rax	# _212->xgv_gp, D.18225
	movq	16(%rax), %rax	# _213->gp_io, D.18226
	movq	(%rax), %rax	# _214->sv_any, D.18234
	movq	64(%rax), %rax	# _215->xio_ofp, iftmp.314
	jmp	.L214	#
.L213:
	.loc 1 855 0 discriminator 2
	call	Perl_PerlIO_stderr	#
.L214:
	.loc 1 855 0 discriminator 3
	movl	$.LC26, %esi	#,
	movq	%rax, %rdi	# iftmp.314,
	movl	$0, %eax	#,
	call	PerlIO_printf	#
	movl	$1, %edi	#,
	call	Perl_my_exit	#
.L212:
.LBB44:
	.loc 1 855 0 discriminator 2
	movq	PL_curstack(%rip), %rax	# PL_curstack, PL_curstack.320
	movq	(%rax), %rax	# PL_curstack.320_218->sv_any, D.18230
	movq	%rbx, %rcx	# sp, sp.321
	movq	PL_stack_base(%rip), %rdx	# PL_stack_base, PL_stack_base.322
	subq	%rdx, %rcx	# PL_stack_base.323, D.18221
	movq	%rcx, %rdx	# D.18221, D.18221
	sarq	$3, %rdx	#, tmp319
	movq	%rdx, 8(%rax)	# D.18221, _219->xav_fill
	movq	-40(%rbp), %rax	# prev, tmp320
	movq	(%rax), %rax	# prev_196->si_stack, D.18229
	movq	(%rax), %rax	# _225->sv_any, D.18230
	movq	(%rax), %rax	# _226->xav_array, PL_stack_base.324
	movq	%rax, PL_stack_base(%rip)	# PL_stack_base.324, PL_stack_base
	movq	PL_stack_base(%rip), %rdx	# PL_stack_base, PL_stack_base.325
	movq	-40(%rbp), %rax	# prev, tmp321
	movq	(%rax), %rax	# prev_196->si_stack, D.18229
	movq	(%rax), %rax	# _229->sv_any, D.18230
	movq	16(%rax), %rax	# _230->xav_max, D.18221
	salq	$3, %rax	#, D.18220
	addq	%rdx, %rax	# PL_stack_base.325, PL_stack_max.326
	movq	%rax, PL_stack_max(%rip)	# PL_stack_max.326, PL_stack_max
	movq	PL_stack_base(%rip), %rdx	# PL_stack_base, PL_stack_base.327
	movq	-40(%rbp), %rax	# prev, tmp322
	movq	(%rax), %rax	# prev_196->si_stack, D.18229
	movq	(%rax), %rax	# _236->sv_any, D.18230
	movq	8(%rax), %rax	# _237->xav_fill, D.18221
	salq	$3, %rax	#, D.18220
	addq	%rdx, %rax	# PL_stack_base.327, PL_stack_sp.328
	movq	%rax, PL_stack_sp(%rip)	# PL_stack_sp.328, PL_stack_sp
	movq	PL_stack_sp(%rip), %rbx	# PL_stack_sp, sp
	movq	-40(%rbp), %rax	# prev, tmp323
	movq	(%rax), %rax	# prev_196->si_stack, PL_curstack.329
	movq	%rax, PL_curstack(%rip)	# PL_curstack.329, PL_curstack
.LBE44:
	movq	-40(%rbp), %rax	# prev, tmp324
	movq	%rax, PL_curstackinfo(%rip)	# tmp324, PL_curstackinfo
.LBE43:
	.loc 1 856 0 is_stmt 1 discriminator 2
	movq	-48(%rbp), %rax	# sv, tmp325
	movq	%rax, %rdi	# tmp325,
	call	Perl_sv_isobject	#
	testl	%eax, %eax	# D.18219
	je	.L215	#,
	.loc 1 857 0
	movl	-108(%rbp), %edx	# how, tmp326
	movq	-96(%rbp), %rax	# varsv, tmp327
	movl	%edx, %esi	# tmp326,
	movq	%rax, %rdi	# tmp327,
	call	Perl_sv_unmagic	#
	.loc 1 859 0
	movq	-48(%rbp), %rax	# sv, tmp328
	movq	(%rax), %rax	# sv_193->sv_any, D.18224
	movq	(%rax), %rax	# MEM[(struct XRV *)_247].xrv_rv, D.18228
	cmpq	-96(%rbp), %rax	# varsv, D.18228
	jne	.L216	#,
	.loc 1 860 0 discriminator 1
	movq	-96(%rbp), %rax	# varsv, tmp329
	movl	12(%rax), %eax	# varsv_7->sv_flags, D.18222
	movzbl	%al, %eax	# D.18222, D.18222
	.loc 1 859 0 discriminator 1
	cmpl	$10, %eax	#, D.18222
	je	.L217	#,
	.loc 1 861 0
	movq	-96(%rbp), %rax	# varsv, tmp330
	movl	12(%rax), %eax	# varsv_7->sv_flags, D.18222
	movzbl	%al, %eax	# D.18222, D.18222
	.loc 1 860 0
	cmpl	$11, %eax	#, D.18222
	jne	.L216	#,
.L217:
	.loc 1 862 0
	movl	$.LC27, %edi	#,
	movl	$0, %eax	#,
	call	Perl_croak	#
.L216:
	.loc 1 864 0
	movq	-48(%rbp), %rax	# sv, tmp331
	movq	(%rax), %rax	# sv_193->sv_any, D.18224
	movq	(%rax), %rax	# MEM[(struct XRV *)_253].xrv_rv, D.18228
	cmpq	-96(%rbp), %rax	# varsv, D.18228
	je	.L218	#,
	.loc 1 864 0 is_stmt 0 discriminator 1
	movq	-48(%rbp), %rax	# sv, iftmp.330
	jmp	.L219	#
.L218:
	.loc 1 864 0 discriminator 2
	movl	$0, %eax	#, iftmp.330
.L219:
	.loc 1 864 0 discriminator 3
	movl	-108(%rbp), %edx	# how, tmp332
	movq	-96(%rbp), %rdi	# varsv, tmp333
	movl	$0, %r8d	#,
	movl	$0, %ecx	#,
	movq	%rax, %rsi	# iftmp.330,
	call	Perl_sv_magic	#
.L215:
	.loc 1 866 0 is_stmt 1
	call	Perl_pop_scope	#
	.loc 1 867 0
	movq	PL_stack_base(%rip), %rax	# PL_stack_base, PL_stack_base.331
	movl	-100(%rbp), %edx	# markoff, tmp334
	movslq	%edx, %rdx	# tmp334, D.18220
	salq	$3, %rdx	#, D.18220
	leaq	(%rax,%rdx), %rbx	#, sp
	.loc 1 868 0
	addq	$8, %rbx	#, sp
	movq	-48(%rbp), %rax	# sv, tmp335
	movq	%rax, (%rbx)	# tmp335, *sp_261
	.loc 1 869 0
	movq	%rbx, PL_stack_sp(%rip)	# sp, PL_stack_sp
	movq	PL_op(%rip), %rax	# PL_op, PL_op.332
	movq	(%rax), %rax	# PL_op.332_262->op_next, D.18218
.L206:
	.loc 1 870 0
	addq	$88, %rsp	#,
	popq	%rbx	#
	popq	%r12	#
	popq	%r13	#
	popq	%rbp	#
	.cfi_def_cfa 7, 8
	ret
	.cfi_endproc
.LFE14:
	.size	Perl_pp_tie, .-Perl_pp_tie
	.section	.rodata
.LC28:
	.string	"UNTIE"
	.align 8
.LC29:
	.string	"untie attempted while %lu inner references still exist"
	.text
	.globl	Perl_pp_untie
	.type	Perl_pp_untie, @function
Perl_pp_untie:
.LFB15:
	.loc 1 873 0
	.cfi_startproc
	pushq	%rbp	#
	.cfi_def_cfa_offset 16
	.cfi_offset 6, -16
	movq	%rsp, %rbp	#,
	.cfi_def_cfa_register 6
	pushq	%rbx	#
	subq	$56, %rsp	#,
	.cfi_offset 3, -24
	.loc 1 874 0
	movq	PL_stack_sp(%rip), %rbx	# PL_stack_sp, sp
	.loc 1 876 0
	movq	%rbx, %rax	# sp, sp.333
	leaq	-8(%rax), %rbx	#, sp
	movq	(%rax), %rax	# *sp.333_11, tmp142
	movq	%rax, -56(%rbp)	# tmp142, sv
	.loc 1 877 0
	movq	-56(%rbp), %rax	# sv, tmp143
	movl	12(%rax), %eax	# sv_13->sv_flags, D.18245
	movzbl	%al, %eax	# D.18245, D.18245
	cmpl	$11, %eax	#, D.18245
	je	.L222	#,
	.loc 1 877 0 is_stmt 0 discriminator 2
	movq	-56(%rbp), %rax	# sv, tmp144
	movl	12(%rax), %eax	# sv_13->sv_flags, D.18245
	movzbl	%al, %eax	# D.18245, D.18245
	cmpl	$10, %eax	#, D.18245
	jne	.L223	#,
.L222:
	.loc 1 877 0 discriminator 1
	movl	$80, %eax	#, iftmp.334
	jmp	.L224	#
.L223:
	movl	$113, %eax	#, iftmp.334
.L224:
	.loc 1 877 0 discriminator 3
	movb	%al, -57(%rbp)	# iftmp.334, how
	.loc 1 880 0 is_stmt 1 discriminator 3
	movq	-56(%rbp), %rax	# sv, tmp145
	movl	12(%rax), %eax	# sv_13->sv_flags, D.18245
	movzbl	%al, %eax	# D.18245, D.18245
	cmpl	$13, %eax	#, D.18245
	jne	.L225	#,
	.loc 1 880 0 is_stmt 0 discriminator 1
	movq	-56(%rbp), %rax	# sv, tmp146
	movq	(%rax), %rax	# sv_13->sv_any, D.18246
	movq	56(%rax), %rax	# MEM[(struct XPVGV *)_23].xgv_gp, D.18247
	movq	16(%rax), %rax	# _24->gp_io, tmp147
	movq	%rax, -56(%rbp)	# tmp147, sv
	cmpq	$0, -56(%rbp)	#, sv
	jne	.L225	#,
	.loc 1 881 0 is_stmt 1
	addq	$8, %rbx	#, sp
	movq	$PL_sv_yes, (%rbx)	#, *sp_26
	movq	%rbx, PL_stack_sp(%rip)	# sp, PL_stack_sp
	movq	PL_op(%rip), %rax	# PL_op, PL_op.335
	movq	(%rax), %rax	# PL_op.335_27->op_next, D.18244
	jmp	.L226	#
.L225:
	.loc 1 883 0
	movq	-56(%rbp), %rax	# sv, tmp148
	movl	12(%rax), %eax	# sv_4->sv_flags, D.18245
	andl	$32768, %eax	#, D.18245
	testl	%eax, %eax	# D.18245
	je	.L227	#,
	.loc 1 883 0 is_stmt 0 discriminator 1
	movsbl	-57(%rbp), %edx	# how, D.18248
	movq	-56(%rbp), %rax	# sv, tmp149
	movl	%edx, %esi	# D.18248,
	movq	%rax, %rdi	# tmp149,
	call	Perl_mg_find	#
	jmp	.L228	#
.L227:
	.loc 1 883 0 discriminator 2
	movl	$0, %eax	#, iftmp.336
.L228:
	.loc 1 883 0 discriminator 3
	movq	%rax, -48(%rbp)	# iftmp.336, mg
	cmpq	$0, -48(%rbp)	#, mg
	je	.L229	#,
.LBB45:
	.loc 1 884 0 is_stmt 1
	movq	-48(%rbp), %rax	# mg, tmp150
	movq	24(%rax), %rax	# mg_34->mg_obj, D.18249
	testq	%rax, %rax	# D.18249
	je	.L230	#,
	.loc 1 884 0 is_stmt 0 discriminator 1
	movq	-48(%rbp), %rax	# mg, tmp151
	movq	24(%rax), %rax	# mg_34->mg_obj, iftmp.337
	jmp	.L231	#
.L230:
	.loc 1 884 0 discriminator 2
	movq	-56(%rbp), %rax	# sv, tmp152
	movq	%rax, %rdi	# tmp152,
	call	Perl_newRV	#
	movq	%rax, %rdi	# D.18249,
	call	Perl_sv_2mortal	#
.L231:
	.loc 1 884 0 discriminator 3
	movq	(%rax), %rax	# iftmp.337_8->sv_any, D.18246
	movq	(%rax), %rax	# MEM[(struct XRV *)_39].xrv_rv, tmp153
	movq	%rax, -40(%rbp)	# tmp153, obj
	.loc 1 886 0 is_stmt 1 discriminator 3
	movq	$0, -32(%rbp)	#, cv
	.loc 1 887 0 discriminator 3
	cmpq	$0, -40(%rbp)	#, obj
	je	.L229	#,
	.loc 1 888 0
	movq	-40(%rbp), %rax	# obj, tmp154
	movq	(%rax), %rax	# obj_40->sv_any, D.18246
	movq	48(%rax), %rax	# MEM[(struct XPVMG *)_42].xmg_stash, D.18250
	movl	$0, %edx	#,
	movl	$.LC28, %esi	#,
	movq	%rax, %rdi	# D.18250,
	call	Perl_gv_fetchmethod_autoload	#
	movq	%rax, -24(%rbp)	# tmp155, gv
	cmpq	$0, -24(%rbp)	#, gv
	je	.L232	#,
	.loc 1 889 0 discriminator 1
	movq	-24(%rbp), %rax	# gv, tmp156
	movl	12(%rax), %eax	# gv_44->sv_flags, D.18245
	movzbl	%al, %eax	# D.18245, D.18245
	.loc 1 888 0 discriminator 1
	cmpl	$13, %eax	#, D.18245
	jne	.L232	#,
	.loc 1 889 0
	movq	-24(%rbp), %rax	# gv, tmp157
	movq	(%rax), %rax	# gv_44->sv_any, D.18251
	movq	56(%rax), %rax	# _47->xgv_gp, D.18247
	movq	56(%rax), %rax	# _48->gp_cv, tmp158
	movq	%rax, -32(%rbp)	# tmp158, cv
	cmpq	$0, -32(%rbp)	#, cv
	je	.L232	#,
.LBB46:
	.loc 1 890 0
	movq	PL_markstack_ptr(%rip), %rax	# PL_markstack_ptr, PL_markstack_ptr.338
	addq	$4, %rax	#, PL_markstack_ptr.339
	movq	%rax, PL_markstack_ptr(%rip)	# PL_markstack_ptr.339, PL_markstack_ptr
	movq	PL_markstack_ptr(%rip), %rdx	# PL_markstack_ptr, PL_markstack_ptr.340
	movq	PL_markstack_max(%rip), %rax	# PL_markstack_max, PL_markstack_max.341
	cmpq	%rax, %rdx	# PL_markstack_max.341, PL_markstack_ptr.340
	jne	.L233	#,
	.loc 1 890 0 is_stmt 0 discriminator 1
	call	Perl_markstack_grow	#
.L233:
	.loc 1 890 0 discriminator 2
	movq	PL_markstack_ptr(%rip), %rax	# PL_markstack_ptr, PL_markstack_ptr.342
	movq	%rbx, %rcx	# sp, sp.343
	movq	PL_stack_base(%rip), %rdx	# PL_stack_base, PL_stack_base.344
	subq	%rdx, %rcx	# PL_stack_base.345, D.18252
	movq	%rcx, %rdx	# D.18252, D.18252
	sarq	$3, %rdx	#, tmp159
	movl	%edx, (%rax)	# D.18248, *PL_markstack_ptr.342_54
.LBE46:
.LBB47:
	.loc 1 891 0 is_stmt 1 discriminator 2
	movq	PL_stack_max(%rip), %rax	# PL_stack_max, PL_stack_max.346
	movq	%rax, %rdx	# PL_stack_max.346, PL_stack_max.347
	movq	%rbx, %rax	# sp, sp.348
	subq	%rax, %rdx	# sp.348, D.18252
	movq	%rdx, %rax	# D.18252, D.18252
	cmpq	$7, %rax	#, D.18252
	jg	.L234	#,
	.loc 1 891 0 is_stmt 0 discriminator 1
	movl	$1, %edx	#,
	movq	%rbx, %rsi	# sp,
	movq	%rbx, %rdi	# sp,
	call	Perl_stack_grow	#
	movq	%rax, %rbx	#, sp
.L234:
	.loc 1 891 0 discriminator 2
	addq	$8, %rbx	#, sp
	movq	-48(%rbp), %rax	# mg, tmp160
	movq	24(%rax), %rax	# mg_34->mg_obj, D.18249
	testq	%rax, %rax	# D.18249
	je	.L235	#,
	.loc 1 891 0 discriminator 1
	movq	-48(%rbp), %rax	# mg, tmp161
	movq	24(%rax), %rax	# mg_34->mg_obj, iftmp.349
	jmp	.L236	#
.L235:
	.loc 1 891 0 discriminator 2
	movq	-24(%rbp), %rax	# gv, tmp162
	movq	%rax, %rdi	# tmp162,
	call	Perl_newRV	#
	movq	%rax, %rdi	# D.18249,
	call	Perl_sv_2mortal	#
.L236:
	.loc 1 891 0 discriminator 3
	movq	%rax, (%rbx)	# iftmp.349, *sp_67
.LBE47:
.LBB48:
	.loc 1 892 0 is_stmt 1 discriminator 3
	movq	PL_stack_max(%rip), %rax	# PL_stack_max, PL_stack_max.350
	movq	%rax, %rdx	# PL_stack_max.350, PL_stack_max.351
	movq	%rbx, %rax	# sp, sp.352
	subq	%rax, %rdx	# sp.352, D.18252
	movq	%rdx, %rax	# D.18252, D.18252
	cmpq	$7, %rax	#, D.18252
	jg	.L237	#,
	.loc 1 892 0 is_stmt 0 discriminator 1
	movl	$1, %edx	#,
	movq	%rbx, %rsi	# sp,
	movq	%rbx, %rdi	# sp,
	call	Perl_stack_grow	#
	movq	%rax, %rbx	#, sp
.L237:
	.loc 1 892 0 discriminator 2
	addq	$8, %rbx	#, sp
	movq	-40(%rbp), %rax	# obj, tmp163
	movl	8(%rax), %eax	# obj_40->sv_refcnt, D.18245
	subl	$1, %eax	#, D.18245
	movl	%eax, %eax	# D.18245, D.18252
	movq	%rax, %rdi	# D.18252,
	call	Perl_newSViv	#
	movq	%rax, %rdi	# D.18249,
	call	Perl_sv_2mortal	#
	movq	%rax, (%rbx)	# D.18249, *sp_78
.LBE48:
	.loc 1 893 0 is_stmt 1 discriminator 2
	movq	%rbx, PL_stack_sp(%rip)	# sp, PL_stack_sp
	.loc 1 894 0 discriminator 2
	call	Perl_push_scope	#
	.loc 1 895 0 discriminator 2
	movq	-32(%rbp), %rax	# cv, tmp164
	movl	$128, %esi	#,
	movq	%rax, %rdi	# tmp164,
	call	Perl_call_sv	#
	.loc 1 896 0 discriminator 2
	call	Perl_pop_scope	#
	.loc 1 897 0 discriminator 2
	movq	PL_stack_sp(%rip), %rbx	# PL_stack_sp, sp
	jmp	.L229	#
.L232:
	.loc 1 899 0
	movq	PL_curcop(%rip), %rax	# PL_curcop, PL_curcop.353
	movq	80(%rax), %rax	# PL_curcop.353_86->cop_warnings, D.18249
	testq	%rax, %rax	# D.18249
	je	.L238	#,
	.loc 1 899 0 is_stmt 0 discriminator 1
	movq	PL_curcop(%rip), %rax	# PL_curcop, PL_curcop.354
	movq	80(%rax), %rax	# PL_curcop.354_88->cop_warnings, D.18249
	cmpq	$32, %rax	#, D.18249
	je	.L238	#,
	movq	PL_curcop(%rip), %rax	# PL_curcop, PL_curcop.355
	movq	80(%rax), %rax	# PL_curcop.355_90->cop_warnings, D.18249
	cmpq	$16, %rax	#, D.18249
	je	.L239	#,
	movq	PL_curcop(%rip), %rax	# PL_curcop, PL_curcop.356
	movq	80(%rax), %rax	# PL_curcop.356_92->cop_warnings, D.18249
	movq	(%rax), %rax	# _93->sv_any, D.18246
	movq	(%rax), %rax	# MEM[(struct XPV *)_94].xpv_pv, D.18254
	addq	$10, %rax	#, D.18254
	movzbl	(%rax), %eax	# *_96, D.18255
	movsbl	%al, %eax	# D.18255, D.18248
	andl	$64, %eax	#, D.18248
	testl	%eax, %eax	# D.18248
	jne	.L239	#,
.L238:
	.loc 1 899 0 discriminator 2
	movq	PL_curcop(%rip), %rax	# PL_curcop, PL_curcop.357
	movq	80(%rax), %rax	# PL_curcop.357_100->cop_warnings, D.18249
	testq	%rax, %rax	# D.18249
	jne	.L229	#,
	.loc 1 899 0 discriminator 1
	movzbl	PL_dowarn(%rip), %eax	# PL_dowarn, PL_dowarn.358
	movzbl	%al, %eax	# PL_dowarn.358, D.18248
	andl	$1, %eax	#, D.18248
	testl	%eax, %eax	# D.18248
	je	.L229	#,
.L239:
	.loc 1 900 0 is_stmt 1
	cmpq	$0, -48(%rbp)	#, mg
	je	.L229	#,
	.loc 1 900 0 is_stmt 0 discriminator 1
	movq	-40(%rbp), %rax	# obj, tmp165
	movl	8(%rax), %eax	# obj_40->sv_refcnt, D.18245
	cmpl	$1, %eax	#, D.18245
	jbe	.L229	#,
	.loc 1 903 0 is_stmt 1
	movq	-40(%rbp), %rax	# obj, tmp166
	movl	8(%rax), %eax	# obj_40->sv_refcnt, D.18245
	movl	%eax, %eax	# D.18245, D.18256
	.loc 1 901 0
	subq	$1, %rax	#, D.18256
	movq	%rax, %rdx	# D.18256,
	movl	$.LC29, %esi	#,
	movl	$43, %edi	#,
	movl	$0, %eax	#,
	call	Perl_warner	#
.L229:
.LBE45:
	.loc 1 907 0
	movsbl	-57(%rbp), %edx	# how, D.18248
	movq	-56(%rbp), %rax	# sv, tmp167
	movl	%edx, %esi	# D.18248,
	movq	%rax, %rdi	# tmp167,
	call	Perl_sv_unmagic	#
	.loc 1 908 0
	addq	$8, %rbx	#, sp
	movq	$PL_sv_yes, (%rbx)	#, *sp_110
	movq	%rbx, PL_stack_sp(%rip)	# sp, PL_stack_sp
	movq	PL_op(%rip), %rax	# PL_op, PL_op.359
	movq	(%rax), %rax	# PL_op.359_111->op_next, D.18244
.L226:
	.loc 1 909 0
	addq	$56, %rsp	#,
	popq	%rbx	#
	popq	%rbp	#
	.cfi_def_cfa 7, 8
	ret
	.cfi_endproc
.LFE15:
	.size	Perl_pp_untie, .-Perl_pp_untie
	.globl	Perl_pp_tied
	.type	Perl_pp_tied, @function
Perl_pp_tied:
.LFB16:
	.loc 1 912 0
	.cfi_startproc
	pushq	%rbp	#
	.cfi_def_cfa_offset 16
	.cfi_offset 6, -16
	movq	%rsp, %rbp	#,
	.cfi_def_cfa_register 6
	pushq	%rbx	#
	subq	$40, %rsp	#,
	.cfi_offset 3, -24
	.loc 1 913 0
	movq	PL_stack_sp(%rip), %rbx	# PL_stack_sp, sp
	.loc 1 915 0
	movq	%rbx, %rax	# sp, sp.360
	leaq	-8(%rax), %rbx	#, sp
	movq	(%rax), %rax	# *sp.360_8, tmp83
	movq	%rax, -40(%rbp)	# tmp83, sv
	.loc 1 916 0
	movq	-40(%rbp), %rax	# sv, tmp84
	movl	12(%rax), %eax	# sv_10->sv_flags, D.18260
	movzbl	%al, %eax	# D.18260, D.18260
	cmpl	$11, %eax	#, D.18260
	je	.L241	#,
	.loc 1 916 0 is_stmt 0 discriminator 2
	movq	-40(%rbp), %rax	# sv, tmp85
	movl	12(%rax), %eax	# sv_10->sv_flags, D.18260
	movzbl	%al, %eax	# D.18260, D.18260
	cmpl	$10, %eax	#, D.18260
	jne	.L242	#,
.L241:
	.loc 1 916 0 discriminator 1
	movl	$80, %eax	#, iftmp.361
	jmp	.L243	#
.L242:
	movl	$113, %eax	#, iftmp.361
.L243:
	.loc 1 916 0 discriminator 3
	movb	%al, -41(%rbp)	# iftmp.361, how
	.loc 1 919 0 is_stmt 1 discriminator 3
	movq	-40(%rbp), %rax	# sv, tmp86
	movl	12(%rax), %eax	# sv_10->sv_flags, D.18260
	movzbl	%al, %eax	# D.18260, D.18260
	cmpl	$13, %eax	#, D.18260
	jne	.L244	#,
	.loc 1 919 0 is_stmt 0 discriminator 1
	movq	-40(%rbp), %rax	# sv, tmp87
	movq	(%rax), %rax	# sv_10->sv_any, D.18261
	movq	56(%rax), %rax	# MEM[(struct XPVGV *)_20].xgv_gp, D.18262
	movq	16(%rax), %rax	# _21->gp_io, tmp88
	movq	%rax, -40(%rbp)	# tmp88, sv
	cmpq	$0, -40(%rbp)	#, sv
	jne	.L244	#,
	.loc 1 920 0 is_stmt 1
	addq	$8, %rbx	#, sp
	movq	$PL_sv_undef, (%rbx)	#, *sp_23
	movq	%rbx, PL_stack_sp(%rip)	# sp, PL_stack_sp
	movq	PL_op(%rip), %rax	# PL_op, PL_op.362
	movq	(%rax), %rax	# PL_op.362_24->op_next, D.18259
	jmp	.L245	#
.L244:
	.loc 1 922 0
	movq	-40(%rbp), %rax	# sv, tmp89
	movl	12(%rax), %eax	# sv_1->sv_flags, D.18260
	andl	$32768, %eax	#, D.18260
	testl	%eax, %eax	# D.18260
	je	.L246	#,
	.loc 1 922 0 is_stmt 0 discriminator 1
	movsbl	-41(%rbp), %edx	# how, D.18263
	movq	-40(%rbp), %rax	# sv, tmp90
	movl	%edx, %esi	# D.18263,
	movq	%rax, %rdi	# tmp90,
	call	Perl_mg_find	#
	jmp	.L247	#
.L246:
	.loc 1 922 0 discriminator 2
	movl	$0, %eax	#, iftmp.363
.L247:
	.loc 1 922 0 discriminator 3
	movq	%rax, -24(%rbp)	# iftmp.363, mg
	cmpq	$0, -24(%rbp)	#, mg
	je	.L248	#,
.LBB49:
	.loc 1 923 0 is_stmt 1
	movq	-24(%rbp), %rax	# mg, tmp91
	movq	24(%rax), %rax	# mg_31->mg_obj, D.18264
	testq	%rax, %rax	# D.18264
	je	.L249	#,
	.loc 1 923 0 is_stmt 0 discriminator 1
	movq	-24(%rbp), %rax	# mg, tmp92
	movq	24(%rax), %rax	# mg_31->mg_obj, iftmp.364
	jmp	.L250	#
.L249:
	.loc 1 923 0 discriminator 2
	movq	-40(%rbp), %rax	# sv, tmp93
	movq	%rax, %rdi	# tmp93,
	call	Perl_newRV	#
	movq	%rax, %rdi	# D.18264,
	call	Perl_sv_2mortal	#
.L250:
	.loc 1 923 0 discriminator 3
	movq	%rax, -32(%rbp)	# iftmp.364, osv
	.loc 1 924 0 is_stmt 1 discriminator 3
	movq	-24(%rbp), %rax	# mg, tmp94
	movq	24(%rax), %rax	# mg_31->mg_obj, D.18264
	cmpq	-32(%rbp), %rax	# osv, D.18264
	jne	.L251	#,
	.loc 1 925 0
	movq	-32(%rbp), %rax	# osv, tmp95
	movq	%rax, %rdi	# tmp95,
	call	Perl_sv_mortalcopy	#
	movq	%rax, -32(%rbp)	# tmp96, osv
.L251:
	.loc 1 926 0
	addq	$8, %rbx	#, sp
	movq	-32(%rbp), %rax	# osv, tmp97
	movq	%rax, (%rbx)	# tmp97, *sp_39
	.loc 1 927 0
	movq	%rbx, PL_stack_sp(%rip)	# sp, PL_stack_sp
	movq	PL_op(%rip), %rax	# PL_op, PL_op.365
	movq	(%rax), %rax	# PL_op.365_40->op_next, D.18259
	jmp	.L245	#
.L248:
.LBE49:
	.loc 1 929 0
	addq	$8, %rbx	#, sp
	movq	$PL_sv_undef, (%rbx)	#, *sp_42
	movq	%rbx, PL_stack_sp(%rip)	# sp, PL_stack_sp
	movq	PL_op(%rip), %rax	# PL_op, PL_op.366
	movq	(%rax), %rax	# PL_op.366_43->op_next, D.18259
.L245:
	.loc 1 930 0
	addq	$40, %rsp	#,
	popq	%rbx	#
	popq	%rbp	#
	.cfi_def_cfa 7, 8
	ret
	.cfi_endproc
.LFE16:
	.size	Perl_pp_tied, .-Perl_pp_tied
	.section	.rodata
.LC30:
	.string	"AnyDBM_File"
.LC31:
	.string	"AnyDBM_File.pm"
.LC32:
	.string	"No dbm on this machine"
	.text
	.globl	Perl_pp_dbmopen
	.type	Perl_pp_dbmopen, @function
Perl_pp_dbmopen:
.LFB17:
	.loc 1 933 0
	.cfi_startproc
	pushq	%rbp	#
	.cfi_def_cfa_offset 16
	.cfi_offset 6, -16
	movq	%rsp, %rbp	#,
	.cfi_def_cfa_register 6
	pushq	%rbx	#
	subq	$56, %rsp	#,
	.cfi_offset 3, -24
	.loc 1 934 0
	movq	PL_stack_sp(%rip), %rbx	# PL_stack_sp, sp
	.loc 1 936 0
	movq	%rbx, %rax	# sp, sp.367
	leaq	-8(%rax), %rbx	#, sp
	movq	(%rax), %rax	# *sp.367_9, tmp117
	movq	%rax, -56(%rbp)	# tmp117, right
	movq	%rbx, %rax	# sp, sp.368
	leaq	-8(%rax), %rbx	#, sp
	movq	(%rax), %rax	# *sp.368_12, tmp118
	movq	%rax, -48(%rbp)	# tmp118, left
	.loc 1 941 0
	movq	%rbx, %rax	# sp, sp.369
	leaq	-8(%rax), %rbx	#, sp
	movq	(%rax), %rax	# *sp.369_15, tmp119
	movq	%rax, -40(%rbp)	# tmp119, hv
	.loc 1 943 0
	movl	$PL_sv_no, %edi	#,
	call	Perl_sv_mortalcopy	#
	movq	%rax, -32(%rbp)	# tmp120, sv
	.loc 1 944 0
	movq	-32(%rbp), %rax	# sv, tmp121
	movl	$.LC30, %esi	#,
	movq	%rax, %rdi	# tmp121,
	call	Perl_sv_setpv	#
	.loc 1 945 0
	movq	-32(%rbp), %rax	# sv, tmp122
	movl	$0, %esi	#,
	movq	%rax, %rdi	# tmp122,
	call	Perl_gv_stashsv	#
	movq	%rax, -24(%rbp)	# tmp123, stash
	.loc 1 946 0
	cmpq	$0, -24(%rbp)	#, stash
	je	.L253	#,
	.loc 1 946 0 is_stmt 0 discriminator 1
	movq	-24(%rbp), %rax	# stash, tmp124
	movl	$.LC21, %esi	#,
	movq	%rax, %rdi	# tmp124,
	call	Perl_gv_fetchmethod	#
	movq	%rax, -64(%rbp)	# tmp125, gv
	cmpq	$0, -64(%rbp)	#, gv
	jne	.L254	#,
.L253:
	.loc 1 947 0 is_stmt 1
	movq	%rbx, PL_stack_sp(%rip)	# sp, PL_stack_sp
	.loc 1 948 0
	movl	$.LC31, %edi	#,
	call	Perl_require_pv	#
	.loc 1 949 0
	movq	PL_stack_sp(%rip), %rbx	# PL_stack_sp, sp
	.loc 1 950 0
	movq	-24(%rbp), %rax	# stash, tmp126
	movl	$.LC21, %esi	#,
	movq	%rax, %rdi	# tmp126,
	call	Perl_gv_fetchmethod	#
	movq	%rax, -64(%rbp)	# tmp127, gv
	cmpq	$0, -64(%rbp)	#, gv
	jne	.L254	#,
	.loc 1 951 0
	movl	$.LC32, %edi	#,
	movl	$0, %eax	#,
	call	Perl_die	#
	jmp	.L255	#
.L254:
	.loc 1 954 0
	call	Perl_push_scope	#
.LBB50:
	.loc 1 955 0
	movq	PL_markstack_ptr(%rip), %rax	# PL_markstack_ptr, PL_markstack_ptr.370
	addq	$4, %rax	#, PL_markstack_ptr.371
	movq	%rax, PL_markstack_ptr(%rip)	# PL_markstack_ptr.371, PL_markstack_ptr
	movq	PL_markstack_ptr(%rip), %rdx	# PL_markstack_ptr, PL_markstack_ptr.372
	movq	PL_markstack_max(%rip), %rax	# PL_markstack_max, PL_markstack_max.373
	cmpq	%rax, %rdx	# PL_markstack_max.373, PL_markstack_ptr.372
	jne	.L256	#,
	.loc 1 955 0 is_stmt 0 discriminator 1
	call	Perl_markstack_grow	#
.L256:
	.loc 1 955 0 discriminator 2
	movq	PL_markstack_ptr(%rip), %rax	# PL_markstack_ptr, PL_markstack_ptr.374
	movq	%rbx, %rcx	# sp, sp.375
	movq	PL_stack_base(%rip), %rdx	# PL_stack_base, PL_stack_base.376
	subq	%rdx, %rcx	# PL_stack_base.377, D.18266
	movq	%rcx, %rdx	# D.18266, D.18266
	sarq	$3, %rdx	#, tmp128
	movl	%edx, (%rax)	# D.18267, *PL_markstack_ptr.374_28
.LBE50:
	.loc 1 957 0 is_stmt 1 discriminator 2
	movq	PL_stack_max(%rip), %rax	# PL_stack_max, PL_stack_max.378
	movq	%rax, %rdx	# PL_stack_max.378, PL_stack_max.379
	movq	%rbx, %rax	# sp, sp.380
	subq	%rax, %rdx	# sp.380, D.18266
	movq	%rdx, %rax	# D.18266, D.18266
	cmpq	$39, %rax	#, D.18266
	jg	.L257	#,
	.loc 1 957 0 is_stmt 0 discriminator 1
	movl	$5, %edx	#,
	movq	%rbx, %rsi	# sp,
	movq	%rbx, %rdi	# sp,
	call	Perl_stack_grow	#
	movq	%rax, %rbx	#, sp
.L257:
	.loc 1 958 0 is_stmt 1
	addq	$8, %rbx	#, sp
	movq	-32(%rbp), %rax	# sv, tmp129
	movq	%rax, (%rbx)	# tmp129, *sp_41
	.loc 1 959 0
	addq	$8, %rbx	#, sp
	movq	-48(%rbp), %rax	# left, tmp130
	movq	%rax, (%rbx)	# tmp130, *sp_42
	.loc 1 960 0
	movq	-56(%rbp), %rax	# right, tmp131
	movl	12(%rax), %eax	# right_11->sv_flags, D.18269
	andl	$65536, %eax	#, D.18269
	testl	%eax, %eax	# D.18269
	je	.L258	#,
	.loc 1 960 0 is_stmt 0 discriminator 1
	movq	-56(%rbp), %rax	# right, tmp132
	movq	(%rax), %rax	# right_11->sv_any, D.18270
	movq	24(%rax), %rax	# MEM[(struct XPVIV *)_45].xiv_iv, D.18266
	testq	%rax, %rax	# D.18266
	setne	%al	#, iftmp.381
	jmp	.L259	#
.L258:
	.loc 1 960 0 discriminator 2
	movq	-56(%rbp), %rax	# right, tmp133
	movq	%rax, %rdi	# tmp133,
	call	Perl_sv_2iv	#
	testq	%rax, %rax	# D.18266
	setne	%al	#, iftmp.381
.L259:
	.loc 1 960 0 discriminator 3
	testb	%al, %al	# iftmp.381
	je	.L260	#,
	.loc 1 961 0 is_stmt 1
	addq	$8, %rbx	#, sp
	movl	$66, %edi	#,
	call	Perl_newSVuv	#
	movq	%rax, %rdi	# D.18271,
	call	Perl_sv_2mortal	#
	movq	%rax, (%rbx)	# D.18271, *sp_50
	jmp	.L261	#
.L260:
	.loc 1 963 0
	addq	$8, %rbx	#, sp
	movl	$2, %edi	#,
	call	Perl_newSVuv	#
	movq	%rax, %rdi	# D.18271,
	call	Perl_sv_2mortal	#
	movq	%rax, (%rbx)	# D.18271, *sp_53
.L261:
	.loc 1 964 0
	addq	$8, %rbx	#, sp
	movq	-56(%rbp), %rax	# right, tmp134
	movq	%rax, (%rbx)	# tmp134, *sp_56
	.loc 1 965 0
	movq	%rbx, PL_stack_sp(%rip)	# sp, PL_stack_sp
	.loc 1 966 0
	movq	-64(%rbp), %rax	# gv, tmp135
	movq	(%rax), %rax	# gv_5->sv_any, D.18272
	movq	56(%rax), %rax	# _57->xgv_gp, D.18273
	movq	56(%rax), %rax	# _58->gp_cv, D.18274
	movl	$0, %esi	#,
	movq	%rax, %rdi	# D.18274,
	call	Perl_call_sv	#
	.loc 1 967 0
	movq	PL_stack_sp(%rip), %rbx	# PL_stack_sp, sp
	.loc 1 969 0
	movq	(%rbx), %rax	# *sp_60, D.18271
	movq	%rax, %rdi	# D.18271,
	call	Perl_sv_isobject	#
	testl	%eax, %eax	# D.18267
	jne	.L262	#,
	.loc 1 970 0
	subq	$8, %rbx	#, sp
.LBB51:
	.loc 1 971 0
	movq	PL_markstack_ptr(%rip), %rax	# PL_markstack_ptr, PL_markstack_ptr.382
	addq	$4, %rax	#, PL_markstack_ptr.383
	movq	%rax, PL_markstack_ptr(%rip)	# PL_markstack_ptr.383, PL_markstack_ptr
	movq	PL_markstack_ptr(%rip), %rdx	# PL_markstack_ptr, PL_markstack_ptr.384
	movq	PL_markstack_max(%rip), %rax	# PL_markstack_max, PL_markstack_max.385
	cmpq	%rax, %rdx	# PL_markstack_max.385, PL_markstack_ptr.384
	jne	.L263	#,
	.loc 1 971 0 is_stmt 0 discriminator 1
	call	Perl_markstack_grow	#
.L263:
	.loc 1 971 0 discriminator 2
	movq	PL_markstack_ptr(%rip), %rax	# PL_markstack_ptr, PL_markstack_ptr.386
	movq	%rbx, %rcx	# sp, sp.387
	movq	PL_stack_base(%rip), %rdx	# PL_stack_base, PL_stack_base.388
	subq	%rdx, %rcx	# PL_stack_base.389, D.18266
	movq	%rcx, %rdx	# D.18266, D.18266
	sarq	$3, %rdx	#, tmp136
	movl	%edx, (%rax)	# D.18267, *PL_markstack_ptr.386_68
.LBE51:
	.loc 1 972 0 is_stmt 1 discriminator 2
	addq	$8, %rbx	#, sp
	movq	-32(%rbp), %rax	# sv, tmp137
	movq	%rax, (%rbx)	# tmp137, *sp_76
	.loc 1 973 0 discriminator 2
	addq	$8, %rbx	#, sp
	movq	-48(%rbp), %rax	# left, tmp138
	movq	%rax, (%rbx)	# tmp138, *sp_77
	.loc 1 974 0 discriminator 2
	addq	$8, %rbx	#, sp
	movl	$0, %edi	#,
	call	Perl_newSVuv	#
	movq	%rax, %rdi	# D.18271,
	call	Perl_sv_2mortal	#
	movq	%rax, (%rbx)	# D.18271, *sp_78
	.loc 1 975 0 discriminator 2
	addq	$8, %rbx	#, sp
	movq	-56(%rbp), %rax	# right, tmp139
	movq	%rax, (%rbx)	# tmp139, *sp_81
	.loc 1 976 0 discriminator 2
	movq	%rbx, PL_stack_sp(%rip)	# sp, PL_stack_sp
	.loc 1 977 0 discriminator 2
	movq	-64(%rbp), %rax	# gv, tmp140
	movq	(%rax), %rax	# gv_5->sv_any, D.18272
	movq	56(%rax), %rax	# _82->xgv_gp, D.18273
	movq	56(%rax), %rax	# _83->gp_cv, D.18274
	movl	$0, %esi	#,
	movq	%rax, %rdi	# D.18274,
	call	Perl_call_sv	#
	.loc 1 978 0 discriminator 2
	movq	PL_stack_sp(%rip), %rbx	# PL_stack_sp, sp
.L262:
	.loc 1 981 0
	movq	(%rbx), %rax	# *sp_4, D.18271
	movq	%rax, %rdi	# D.18271,
	call	Perl_sv_isobject	#
	testl	%eax, %eax	# D.18267
	je	.L264	#,
	.loc 1 982 0
	movq	-40(%rbp), %rax	# hv, tmp141
	movl	$80, %esi	#,
	movq	%rax, %rdi	# tmp141,
	call	Perl_sv_unmagic	#
	.loc 1 983 0
	movq	(%rbx), %rsi	# *sp_4, D.18271
	movq	-40(%rbp), %rax	# hv, tmp142
	movl	$0, %r8d	#,
	movl	$0, %ecx	#,
	movl	$80, %edx	#,
	movq	%rax, %rdi	# tmp142,
	call	Perl_sv_magic	#
.L264:
	.loc 1 985 0
	call	Perl_pop_scope	#
	.loc 1 986 0
	movq	%rbx, PL_stack_sp(%rip)	# sp, PL_stack_sp
	movq	PL_op(%rip), %rax	# PL_op, PL_op.390
	movq	(%rax), %rax	# PL_op.390_89->op_next, D.18265
.L255:
	.loc 1 987 0
	addq	$56, %rsp	#,
	popq	%rbx	#
	popq	%rbp	#
	.cfi_def_cfa 7, 8
	ret
	.cfi_endproc
.LFE17:
	.size	Perl_pp_dbmopen, .-Perl_pp_dbmopen
	.globl	Perl_pp_dbmclose
	.type	Perl_pp_dbmclose, @function
Perl_pp_dbmclose:
.LFB18:
	.loc 1 990 0
	.cfi_startproc
	pushq	%rbp	#
	.cfi_def_cfa_offset 16
	.cfi_offset 6, -16
	movq	%rsp, %rbp	#,
	.cfi_def_cfa_register 6
	.loc 1 991 0
	call	Perl_pp_untie	#
	.loc 1 992 0
	popq	%rbp	#
	.cfi_def_cfa 7, 8
	ret
	.cfi_endproc
.LFE18:
	.size	Perl_pp_dbmclose, .-Perl_pp_dbmclose
	.globl	Perl_pp_sselect
	.type	Perl_pp_sselect, @function
Perl_pp_sselect:
.LFB19:
	.loc 1 995 0
	.cfi_startproc
	pushq	%rbp	#
	.cfi_def_cfa_offset 16
	.cfi_offset 6, -16
	movq	%rsp, %rbp	#,
	.cfi_def_cfa_register 6
	pushq	%r15	#
	pushq	%r14	#
	pushq	%r13	#
	pushq	%r12	#
	pushq	%rbx	#
	subq	$120, %rsp	#,
	.cfi_offset 15, -24
	.cfi_offset 14, -32
	.cfi_offset 13, -40
	.cfi_offset 12, -48
	.cfi_offset 3, -56
	.loc 1 997 0
	movq	PL_stack_sp(%rip), %r13	# PL_stack_sp, sp
	movq	PL_curpad(%rip), %rdx	# PL_curpad, PL_curpad.391
	movq	PL_op(%rip), %rax	# PL_op, PL_op.392
	movq	24(%rax), %rax	# PL_op.392_15->op_targ, D.18279
	salq	$3, %rax	#, D.18279
	addq	%rdx, %rax	# PL_curpad.391, D.18280
	movq	(%rax), %rax	# *_18, tmp151
	movq	%rax, -104(%rbp)	# tmp151, targ
	.loc 1 1003 0
	movl	$0, -140(%rbp)	#, maxlen
	.loc 1 1006 0
	leaq	-96(%rbp), %rax	#, tmp152
	movq	%rax, -112(%rbp)	# tmp152, tbuf
	.loc 1 1023 0
	subq	$32, %r13	#, sp
	.loc 1 1024 0
	movl	$1, %r12d	#, i
	jmp	.L268	#
.L271:
	.loc 1 1025 0
	movslq	%r12d, %rax	# i, D.18279
	salq	$3, %rax	#, D.18279
	addq	%r13, %rax	# sp, D.18280
	movq	(%rax), %rax	# *_26, D.18281
	movl	12(%rax), %eax	# _27->sv_flags, D.18282
	andl	$262144, %eax	#, D.18282
	testl	%eax, %eax	# D.18282
	jne	.L269	#,
	.loc 1 1026 0
	jmp	.L270	#
.L269:
	.loc 1 1027 0
	movslq	%r12d, %rax	# i, D.18279
	salq	$3, %rax	#, D.18279
	addq	%r13, %rax	# sp, D.18280
	movq	(%rax), %rax	# *_32, D.18281
	movq	(%rax), %rax	# _33->sv_any, D.18283
	movq	8(%rax), %rax	# MEM[(struct XPV *)_34].xpv_cur, D.18279
	movl	%eax, %r14d	# D.18279, j
	.loc 1 1028 0
	cmpl	%r14d, -140(%rbp)	# j, maxlen
	jge	.L270	#,
	.loc 1 1029 0
	movl	%r14d, -140(%rbp)	# j, maxlen
.L270:
	.loc 1 1024 0
	addl	$1, %r12d	#, i
.L268:
	.loc 1 1024 0 is_stmt 0 discriminator 1
	cmpl	$3, %r12d	#, i
	jle	.L271	#,
	.loc 1 1059 0 is_stmt 1
	movl	-140(%rbp), %eax	# maxlen, tmp153
	cltd
	shrl	$25, %edx	#, tmp155
	addl	%edx, %eax	# tmp155, tmp156
	andl	$127, %eax	#, tmp157
	subl	%edx, %eax	# tmp155, tmp158
	movl	$128, %edx	#, tmp159
	subl	%eax, %edx	# D.18284, D.18284
	movl	-140(%rbp), %eax	# maxlen, tmp163
	addl	%edx, %eax	# D.18284, tmp162
	movl	%eax, -136(%rbp)	# tmp162, growsize
	.loc 1 1062 0
	movq	32(%r13), %rbx	# MEM[(struct SV * *)sp_22 + 32B], sv
	.loc 1 1063 0
	movl	12(%rbx), %eax	# sv_42->sv_flags, D.18282
	andl	$118423552, %eax	#, D.18282
	testl	%eax, %eax	# D.18282
	je	.L272	#,
	.loc 1 1064 0
	movl	12(%rbx), %eax	# sv_42->sv_flags, D.18282
	andl	$131072, %eax	#, D.18282
	testl	%eax, %eax	# D.18282
	je	.L273	#,
	.loc 1 1064 0 is_stmt 0 discriminator 1
	movq	(%rbx), %rax	# sv_42->sv_any, D.18283
	movq	32(%rax), %rax	# MEM[(struct XPVNV *)_47].xnv_nv, iftmp.393
	jmp	.L274	#
.L273:
	.loc 1 1064 0 discriminator 2
	movq	%rbx, %rdi	# sv,
	call	Perl_sv_2nv	#
	movsd	%xmm0, -152(%rbp)	#, %sfp
	movq	-152(%rbp), %rax	# %sfp, iftmp.393
.L274:
	.loc 1 1064 0 discriminator 3
	movq	%rax, -120(%rbp)	# iftmp.393, value
	.loc 1 1065 0 is_stmt 1 discriminator 3
	xorpd	%xmm0, %xmm0	# tmp164
	ucomisd	-120(%rbp), %xmm0	# value, tmp164
	jbe	.L275	#,
	.loc 1 1066 0
	movl	$0, %eax	#, tmp165
	movq	%rax, -120(%rbp)	# tmp165, value
.L275:
	.loc 1 1067 0
	movsd	-120(%rbp), %xmm0	# value, tmp166
	cvttsd2siq	%xmm0, %rax	# tmp166, D.18285
	movq	%rax, -96(%rbp)	# D.18285, timebuf.tv_sec
	.loc 1 1068 0
	movq	-96(%rbp), %rax	# timebuf.tv_sec, D.18285
	cvtsi2sdq	%rax, %xmm0	# D.18285, D.18286
	movsd	-120(%rbp), %xmm1	# value, tmp168
	subsd	%xmm0, %xmm1	# D.18286, tmp167
	movapd	%xmm1, %xmm0	# tmp167, tmp167
	movsd	%xmm0, -120(%rbp)	# tmp167, value
	.loc 1 1069 0
	movsd	-120(%rbp), %xmm1	# value, tmp169
	movsd	.LC34(%rip), %xmm0	#, tmp170
	mulsd	%xmm1, %xmm0	# tmp169, D.18286
	cvttsd2siq	%xmm0, %rax	# D.18286, D.18285
	movq	%rax, -88(%rbp)	# D.18285, timebuf.tv_usec
	jmp	.L277	#
.L272:
	.loc 1 1072 0
	movq	$0, -112(%rbp)	#, tbuf
.L277:
	.loc 1 1074 0
	movl	$1, %r12d	#, i
	jmp	.L278	#
.L286:
	.loc 1 1075 0
	movslq	%r12d, %rax	# i, D.18279
	salq	$3, %rax	#, D.18279
	addq	%r13, %rax	# sp, D.18280
	movq	(%rax), %rbx	# *_62, sv
	.loc 1 1076 0
	movl	12(%rbx), %eax	# sv_63->sv_flags, D.18282
	andl	$118423552, %eax	#, D.18282
	testl	%eax, %eax	# D.18282
	jne	.L279	#,
	.loc 1 1077 0
	movslq	%r12d, %rax	# i, tmp171
	movq	$0, -80(%rbp,%rax,8)	#, fd_sets
	.loc 1 1078 0
	jmp	.L280	#
.L279:
	.loc 1 1080 0
	movl	12(%rbx), %eax	# sv_63->sv_flags, D.18282
	andl	$262144, %eax	#, D.18282
	testl	%eax, %eax	# D.18282
	jne	.L281	#,
	.loc 1 1081 0
	movl	12(%rbx), %eax	# sv_63->sv_flags, D.18282
	andl	$10223616, %eax	#, D.18282
	cmpl	$262144, %eax	#, D.18282
	jne	.L282	#,
	.loc 1 1081 0 is_stmt 0 discriminator 1
	movq	(%rbx), %rax	# sv_63->sv_any, D.18283
	movq	8(%rax), %rax	# MEM[(struct XPV *)_70].xpv_cur, n_a.395
	movq	%rax, -128(%rbp)	# n_a.395, n_a
	jmp	.L281	#
.L282:
	.loc 1 1081 0 discriminator 2
	leaq	-128(%rbp), %rax	#, tmp172
	movl	$2, %edx	#,
	movq	%rax, %rsi	# tmp172,
	movq	%rbx, %rdi	# sv,
	call	Perl_sv_pvn_force_flags	#
.L281:
	.loc 1 1082 0 is_stmt 1
	movq	(%rbx), %rax	# sv_63->sv_any, D.18283
	movq	16(%rax), %rax	# MEM[(struct XPV *)_75].xpv_len, D.18279
	movl	%eax, %r14d	# D.18279, j
	.loc 1 1083 0
	cmpl	-136(%rbp), %r14d	# growsize, j
	jge	.L283	#,
	.loc 1 1084 0
	movl	-136(%rbp), %eax	# growsize, tmp173
	cltq
	movq	%rax, %rsi	# D.18279,
	movq	%rbx, %rdi	# sv,
	call	Perl_sv_grow	#
.L283:
	.loc 1 1086 0
	movq	(%rbx), %rax	# sv_63->sv_any, D.18283
	movq	8(%rax), %rax	# MEM[(struct XPV *)_79].xpv_cur, D.18279
	movl	%eax, %r14d	# D.18279, j
	.loc 1 1087 0
	movq	(%rbx), %rax	# sv_63->sv_any, D.18283
	movq	(%rax), %rdx	# MEM[(struct XPV *)_82].xpv_pv, D.18287
	movslq	%r14d, %rax	# j, D.18288
	leaq	(%rdx,%rax), %r15	#, s
	.loc 1 1088 0
	jmp	.L284	#
.L285:
	.loc 1 1089 0
	movq	%r15, %rax	# s, s.396
	leaq	1(%rax), %r15	#, s
	movb	$0, (%rax)	#, *s.396_87
.L284:
	.loc 1 1088 0 discriminator 1
	addl	$1, %r14d	#, j
	cmpl	-136(%rbp), %r14d	# growsize, j
	jle	.L285	#,
	.loc 1 1100 0
	movq	(%rbx), %rax	# sv_63->sv_any, D.18283
	movq	(%rax), %rdx	# MEM[(struct XPV *)_89].xpv_pv, D.18287
	movslq	%r12d, %rax	# i, tmp174
	movq	%rdx, -80(%rbp,%rax,8)	# D.18287, fd_sets
.L280:
	.loc 1 1074 0
	addl	$1, %r12d	#, i
.L278:
	.loc 1 1074 0 is_stmt 0 discriminator 1
	cmpl	$3, %r12d	#, i
	jle	.L286	#,
	.loc 1 1114 0 is_stmt 1
	movq	-56(%rbp), %rcx	# fd_sets, D.18287
	movq	-64(%rbp), %rdx	# fd_sets, D.18287
	movq	-72(%rbp), %rax	# fd_sets, D.18287
	movl	-140(%rbp), %esi	# maxlen, tmp175
	leal	0(,%rsi,8), %edi	#, D.18284
	movq	-112(%rbp), %rsi	# tbuf, tmp176
	movq	%rsi, %r8	# tmp176,
	movq	%rax, %rsi	# D.18287,
	call	select	#
	movl	%eax, -132(%rbp)	# tmp177, nfound
	.loc 1 1121 0
	movl	$1, %r12d	#, i
	jmp	.L287	#
.L289:
	.loc 1 1122 0
	movslq	%r12d, %rax	# i, tmp178
	movq	-80(%rbp,%rax,8), %rax	# fd_sets, D.18287
	testq	%rax, %rax	# D.18287
	je	.L288	#,
	.loc 1 1123 0
	movslq	%r12d, %rax	# i, D.18279
	salq	$3, %rax	#, D.18279
	addq	%r13, %rax	# sp, D.18280
	movq	(%rax), %rbx	# *_101, sv
	.loc 1 1132 0
	movl	12(%rbx), %eax	# sv_102->sv_flags, D.18282
	andl	$16384, %eax	#, D.18282
	testl	%eax, %eax	# D.18282
	je	.L288	#,
	.loc 1 1132 0 is_stmt 0 discriminator 1
	movq	%rbx, %rdi	# sv,
	call	Perl_mg_set	#
.L288:
	.loc 1 1121 0 is_stmt 1
	addl	$1, %r12d	#, i
.L287:
	.loc 1 1121 0 is_stmt 0 discriminator 1
	cmpl	$3, %r12d	#, i
	jle	.L289	#,
.LBB52:
	.loc 1 1136 0 is_stmt 1
	movl	-132(%rbp), %eax	# nfound, tmp179
	movslq	%eax, %rdx	# tmp179, D.18285
	movq	-104(%rbp), %rax	# targ, tmp180
	movq	%rdx, %rsi	# D.18285,
	movq	%rax, %rdi	# tmp180,
	call	Perl_sv_setiv	#
.LBB53:
	movq	-104(%rbp), %rax	# targ, tmp181
	movl	12(%rax), %eax	# targ_19->sv_flags, D.18282
	andl	$16384, %eax	#, D.18282
	testl	%eax, %eax	# D.18282
	je	.L290	#,
	.loc 1 1136 0 is_stmt 0 discriminator 1
	movq	-104(%rbp), %rax	# targ, tmp182
	movq	%rax, %rdi	# tmp182,
	call	Perl_mg_set	#
.L290:
	.loc 1 1136 0 discriminator 2
	addq	$8, %r13	#, sp
	movq	-104(%rbp), %rax	# targ, tmp183
	movq	%rax, 0(%r13)	# tmp183, *sp_109
.LBE53:
.LBE52:
	.loc 1 1137 0 is_stmt 1 discriminator 2
	movq	PL_op(%rip), %rax	# PL_op, PL_op.398
	movzbl	36(%rax), %eax	# PL_op.398_111->op_flags, D.18289
	movzbl	%al, %eax	# D.18289, D.18284
	andl	$3, %eax	#, D.18284
	testl	%eax, %eax	# D.18284
	je	.L291	#,
	.loc 1 1137 0 is_stmt 0 discriminator 1
	movq	PL_op(%rip), %rax	# PL_op, PL_op.399
	movzbl	36(%rax), %eax	# PL_op.399_115->op_flags, D.18289
	movzbl	%al, %eax	# D.18289, D.18284
	andl	$3, %eax	#, D.18284
	cmpl	$3, %eax	#, D.18284
	sete	%al	#, iftmp.397
	jmp	.L292	#
.L291:
	.loc 1 1137 0 discriminator 2
	call	Perl_dowantarray	#
	cmpl	$1, %eax	#, D.18284
	sete	%al	#, iftmp.397
.L292:
	.loc 1 1137 0 discriminator 3
	testb	%al, %al	# iftmp.397
	je	.L293	#,
	.loc 1 1137 0 discriminator 1
	cmpq	$0, -112(%rbp)	#, tbuf
	je	.L293	#,
	.loc 1 1138 0 is_stmt 1
	movq	-96(%rbp), %rax	# timebuf.tv_sec, D.18285
	cvtsi2sdq	%rax, %xmm1	# D.18285, D.18286
	.loc 1 1139 0
	movq	-88(%rbp), %rax	# timebuf.tv_usec, D.18285
	cvtsi2sdq	%rax, %xmm0	# D.18285, D.18286
	movsd	.LC34(%rip), %xmm2	#, tmp184
	divsd	%xmm2, %xmm0	# tmp184, D.18286
	.loc 1 1138 0
	addsd	%xmm1, %xmm0	# D.18286, tmp185
	movsd	%xmm0, -120(%rbp)	# tmp185, value
	.loc 1 1140 0
	addq	$8, %r13	#, sp
	movl	$PL_sv_no, %edi	#,
	call	Perl_sv_mortalcopy	#
	movq	%rax, %rbx	#, sv
	movq	%rbx, 0(%r13)	# sv, *sp_128
	.loc 1 1141 0
	movq	-120(%rbp), %rax	# value, tmp186
	movq	%rax, -152(%rbp)	# tmp186, %sfp
	movsd	-152(%rbp), %xmm0	# %sfp,
	movq	%rbx, %rdi	# sv,
	call	Perl_sv_setnv	#
.L293:
	.loc 1 1143 0
	movq	%r13, PL_stack_sp(%rip)	# sp, PL_stack_sp
	movq	PL_op(%rip), %rax	# PL_op, PL_op.400
	movq	(%rax), %rax	# PL_op.400_130->op_next, D.18290
	.loc 1 1147 0
	addq	$120, %rsp	#,
	popq	%rbx	#
	popq	%r12	#
	popq	%r13	#
	popq	%r14	#
	popq	%r15	#
	popq	%rbp	#
	.cfi_def_cfa 7, 8
	ret
	.cfi_endproc
.LFE19:
	.size	Perl_pp_sselect, .-Perl_pp_sselect
	.globl	Perl_setdefout
	.type	Perl_setdefout, @function
Perl_setdefout:
.LFB20:
	.loc 1 1151 0
	.cfi_startproc
	pushq	%rbp	#
	.cfi_def_cfa_offset 16
	.cfi_offset 6, -16
	movq	%rsp, %rbp	#,
	.cfi_def_cfa_register 6
	subq	$16, %rsp	#,
	movq	%rdi, -8(%rbp)	# gv, gv
	.loc 1 1152 0
	cmpq	$0, -8(%rbp)	#, gv
	je	.L297	#,
	.loc 1 1153 0
	movq	-8(%rbp), %rax	# gv, tmp68
	movq	%rax, PL_Sv(%rip)	# tmp68, PL_Sv
	movq	PL_Sv(%rip), %rax	# PL_Sv, PL_Sv.402
	testq	%rax, %rax	# PL_Sv.402
	je	.L297	#,
	.loc 1 1153 0 is_stmt 0 discriminator 1
	movq	PL_Sv(%rip), %rax	# PL_Sv, PL_Sv.403
	movl	8(%rax), %edx	# PL_Sv.403_3->sv_refcnt, D.18292
	addl	$1, %edx	#, D.18292
	movl	%edx, 8(%rax)	# D.18292, PL_Sv.403_3->sv_refcnt
	movl	8(%rax), %eax	# PL_Sv.403_3->sv_refcnt, D.18292
	testl	%eax, %eax	# D.18292
	je	.L297	#,
	.loc 1 1153 0
	nop
.L297:
	.loc 1 1154 0 is_stmt 1
	movq	PL_defoutgv(%rip), %rax	# PL_defoutgv, PL_defoutgv.404
	testq	%rax, %rax	# PL_defoutgv.404
	je	.L299	#,
	.loc 1 1155 0
	movq	PL_defoutgv(%rip), %rax	# PL_defoutgv, PL_defoutgv.405
	movq	%rax, %rdi	# PL_defoutgv.405,
	call	Perl_sv_free	#
.L299:
	.loc 1 1156 0
	movq	-8(%rbp), %rax	# gv, tmp69
	movq	%rax, PL_defoutgv(%rip)	# tmp69, PL_defoutgv
	.loc 1 1157 0
	leave
	.cfi_def_cfa 7, 8
	ret
	.cfi_endproc
.LFE20:
	.size	Perl_setdefout, .-Perl_setdefout
	.globl	Perl_pp_select
	.type	Perl_pp_select, @function
Perl_pp_select:
.LFB21:
	.loc 1 1160 0
	.cfi_startproc
	pushq	%rbp	#
	.cfi_def_cfa_offset 16
	.cfi_offset 6, -16
	movq	%rsp, %rbp	#,
	.cfi_def_cfa_register 6
	pushq	%rbx	#
	subq	$56, %rsp	#,
	.cfi_offset 3, -24
	.loc 1 1161 0
	movq	PL_stack_sp(%rip), %rbx	# PL_stack_sp, sp
	movq	PL_curpad(%rip), %rdx	# PL_curpad, PL_curpad.406
	movq	PL_op(%rip), %rax	# PL_op, PL_op.407
	movq	24(%rax), %rax	# PL_op.407_10->op_targ, D.18293
	salq	$3, %rax	#, D.18293
	addq	%rdx, %rax	# PL_curpad.406, D.18294
	movq	(%rax), %rax	# *_13, tmp109
	movq	%rax, -48(%rbp)	# tmp109, targ
	.loc 1 1165 0
	movq	PL_op(%rip), %rax	# PL_op, PL_op.409
	movzbl	37(%rax), %eax	# PL_op.409_15->op_private, D.18295
	testb	%al, %al	# D.18295
	je	.L301	#,
	.loc 1 1165 0 is_stmt 0 discriminator 1
	movq	%rbx, %rax	# sp, sp.410
	leaq	-8(%rax), %rbx	#, sp
	movq	(%rax), %rax	# *sp.410_17, iftmp.408
	jmp	.L302	#
.L301:
	.loc 1 1165 0 discriminator 2
	movl	$0, %eax	#, iftmp.408
.L302:
	.loc 1 1165 0 discriminator 3
	movq	%rax, -40(%rbp)	# iftmp.408, newdefout
	.loc 1 1167 0 is_stmt 1 discriminator 3
	movq	PL_defoutgv(%rip), %rax	# PL_defoutgv, PL_defoutgv.411
	movq	(%rax), %rax	# PL_defoutgv.411_22->sv_any, D.18296
	movq	56(%rax), %rax	# _23->xgv_gp, D.18297
	movq	48(%rax), %rax	# _24->gp_egv, tmp110
	movq	%rax, -56(%rbp)	# tmp110, egv
	.loc 1 1168 0 discriminator 3
	cmpq	$0, -56(%rbp)	#, egv
	jne	.L303	#,
	.loc 1 1169 0
	movq	PL_defoutgv(%rip), %rax	# PL_defoutgv, tmp111
	movq	%rax, -56(%rbp)	# tmp111, egv
.L303:
	.loc 1 1170 0
	movq	-56(%rbp), %rax	# egv, tmp112
	movq	(%rax), %rax	# egv_6->sv_any, D.18296
	movq	80(%rax), %rax	# _27->xgv_stash, tmp113
	movq	%rax, -32(%rbp)	# tmp113, hv
	.loc 1 1171 0
	cmpq	$0, -32(%rbp)	#, hv
	jne	.L304	#,
.LBB54:
	.loc 1 1172 0
	movq	PL_stack_max(%rip), %rax	# PL_stack_max, PL_stack_max.412
	movq	%rax, %rdx	# PL_stack_max.412, PL_stack_max.413
	movq	%rbx, %rax	# sp, sp.414
	subq	%rax, %rdx	# sp.414, D.18298
	movq	%rdx, %rax	# D.18298, D.18298
	cmpq	$7, %rax	#, D.18298
	jg	.L305	#,
	.loc 1 1172 0 is_stmt 0 discriminator 1
	movl	$1, %edx	#,
	movq	%rbx, %rsi	# sp,
	movq	%rbx, %rdi	# sp,
	call	Perl_stack_grow	#
	movq	%rax, %rbx	#, sp
.L305:
	.loc 1 1172 0 discriminator 2
	addq	$8, %rbx	#, sp
	movq	$PL_sv_undef, (%rbx)	#, *sp_34
.LBE54:
	jmp	.L306	#
.L304:
.LBB55:
	.loc 1 1174 0 is_stmt 1
	movq	-56(%rbp), %rax	# egv, tmp114
	movq	(%rax), %rax	# egv_6->sv_any, D.18296
	movq	72(%rax), %rax	# _36->xgv_namelen, D.18293
	movl	%eax, %edx	# D.18293, D.18300
	movq	-56(%rbp), %rax	# egv, tmp115
	movq	(%rax), %rax	# egv_6->sv_any, D.18296
	movq	64(%rax), %rsi	# _39->xgv_name, D.18301
	movq	-32(%rbp), %rax	# hv, tmp116
	movl	$0, %ecx	#,
	movq	%rax, %rdi	# tmp116,
	call	Perl_hv_fetch	#
	movq	%rax, -24(%rbp)	# tmp117, gvp
	.loc 1 1175 0
	cmpq	$0, -24(%rbp)	#, gvp
	je	.L307	#,
	.loc 1 1175 0 is_stmt 0 discriminator 1
	movq	-24(%rbp), %rax	# gvp, tmp118
	movq	(%rax), %rax	# *gvp_41, D.18302
	cmpq	-56(%rbp), %rax	# egv, D.18302
	jne	.L307	#,
	.loc 1 1176 0 is_stmt 1
	movq	PL_defoutgv(%rip), %rsi	# PL_defoutgv, PL_defoutgv.415
	movq	-48(%rbp), %rax	# targ, tmp119
	movl	$1, %ecx	#,
	movl	$0, %edx	#,
	movq	%rax, %rdi	# tmp119,
	call	Perl_gv_efullname4	#
.LBB56:
	.loc 1 1177 0
	movq	-48(%rbp), %rax	# targ, tmp120
	movl	12(%rax), %eax	# targ_14->sv_flags, D.18303
	andl	$16384, %eax	#, D.18303
	testl	%eax, %eax	# D.18303
	je	.L308	#,
	.loc 1 1177 0 is_stmt 0 discriminator 1
	movq	-48(%rbp), %rax	# targ, tmp121
	movq	%rax, %rdi	# tmp121,
	call	Perl_mg_set	#
.L308:
.LBB57:
	.loc 1 1177 0 discriminator 2
	movq	PL_stack_max(%rip), %rax	# PL_stack_max, PL_stack_max.416
	movq	%rax, %rdx	# PL_stack_max.416, PL_stack_max.417
	movq	%rbx, %rax	# sp, sp.418
	subq	%rax, %rdx	# sp.418, D.18298
	movq	%rdx, %rax	# D.18298, D.18298
	cmpq	$7, %rax	#, D.18298
	jg	.L309	#,
	.loc 1 1177 0 discriminator 1
	movl	$1, %edx	#,
	movq	%rbx, %rsi	# sp,
	movq	%rbx, %rdi	# sp,
	call	Perl_stack_grow	#
	movq	%rax, %rbx	#, sp
.L309:
	.loc 1 1177 0 discriminator 2
	addq	$8, %rbx	#, sp
	movq	-48(%rbp), %rax	# targ, tmp122
	movq	%rax, (%rbx)	# tmp122, *sp_51
.LBE57:
.LBE56:
	jmp	.L306	#
.L307:
.LBB58:
	.loc 1 1180 0 is_stmt 1
	movq	PL_stack_max(%rip), %rax	# PL_stack_max, PL_stack_max.419
	movq	%rax, %rdx	# PL_stack_max.419, PL_stack_max.420
	movq	%rbx, %rax	# sp, sp.421
	subq	%rax, %rdx	# sp.421, D.18298
	movq	%rdx, %rax	# D.18298, D.18298
	cmpq	$7, %rax	#, D.18298
	jg	.L310	#,
	.loc 1 1180 0 is_stmt 0 discriminator 1
	movl	$1, %edx	#,
	movq	%rbx, %rsi	# sp,
	movq	%rbx, %rdi	# sp,
	call	Perl_stack_grow	#
	movq	%rax, %rbx	#, sp
.L310:
	.loc 1 1180 0 discriminator 2
	addq	$8, %rbx	#, sp
	movq	-56(%rbp), %rax	# egv, tmp123
	movq	%rax, %rdi	# tmp123,
	call	Perl_newRV	#
	movq	%rax, %rdi	# D.18299,
	call	Perl_sv_2mortal	#
	movq	%rax, (%rbx)	# D.18299, *sp_58
.L306:
.LBE58:
.LBE55:
	.loc 1 1184 0 is_stmt 1
	cmpq	$0, -40(%rbp)	#, newdefout
	je	.L311	#,
	.loc 1 1185 0
	cmpq	$0, -40(%rbp)	#, newdefout
	je	.L312	#,
	.loc 1 1185 0 is_stmt 0 discriminator 1
	movq	-40(%rbp), %rax	# newdefout, tmp124
	movl	12(%rax), %eax	# MEM[(struct SV *)newdefout_21].sv_flags, D.18303
	movzbl	%al, %eax	# D.18303, D.18303
	cmpl	$13, %eax	#, D.18303
	jne	.L312	#,
	movq	-40(%rbp), %rax	# newdefout, tmp125
	movq	(%rax), %rax	# newdefout_21->sv_any, D.18296
	movq	56(%rax), %rax	# _64->xgv_gp, D.18297
	testq	%rax, %rax	# D.18297
	je	.L312	#,
	movq	-40(%rbp), %rax	# newdefout, tmp126
	movq	(%rax), %rax	# newdefout_21->sv_any, D.18296
	movq	56(%rax), %rax	# _66->xgv_gp, D.18297
	movq	16(%rax), %rax	# _67->gp_io, D.18304
	testq	%rax, %rax	# D.18304
	jne	.L313	#,
.L312:
	.loc 1 1186 0 is_stmt 1
	movq	-40(%rbp), %rax	# newdefout, tmp127
	movq	%rax, %rdi	# tmp127,
	call	Perl_gv_IOadd	#
.L313:
	.loc 1 1187 0
	movq	-40(%rbp), %rax	# newdefout, tmp128
	movq	%rax, %rdi	# tmp128,
	call	Perl_setdefout	#
.L311:
	.loc 1 1190 0
	movq	%rbx, PL_stack_sp(%rip)	# sp, PL_stack_sp
	movq	PL_op(%rip), %rax	# PL_op, PL_op.422
	movq	(%rax), %rax	# PL_op.422_69->op_next, D.18305
	.loc 1 1191 0
	addq	$56, %rsp	#,
	popq	%rbx	#
	popq	%rbp	#
	.cfi_def_cfa 7, 8
	ret
	.cfi_endproc
.LFE21:
	.size	Perl_pp_select, .-Perl_pp_select
	.section	.rodata
.LC35:
	.string	"GETC"
.LC36:
	.string	" "
	.text
	.globl	Perl_pp_getc
	.type	Perl_pp_getc, @function
Perl_pp_getc:
.LFB22:
	.loc 1 1194 0
	.cfi_startproc
	pushq	%rbp	#
	.cfi_def_cfa_offset 16
	.cfi_offset 6, -16
	movq	%rsp, %rbp	#,
	.cfi_def_cfa_register 6
	pushq	%r12	#
	pushq	%rbx	#
	subq	$48, %rsp	#,
	.cfi_offset 12, -24
	.cfi_offset 3, -32
	.loc 1 1195 0
	movq	PL_stack_sp(%rip), %rbx	# PL_stack_sp, sp
	movq	PL_curpad(%rip), %rdx	# PL_curpad, PL_curpad.423
	movq	PL_op(%rip), %rax	# PL_op, PL_op.424
	movq	24(%rax), %rax	# PL_op.424_14->op_targ, D.18307
	salq	$3, %rax	#, D.18307
	addq	%rdx, %rax	# PL_curpad.423, D.18308
	movq	(%rax), %rax	# *_17, tmp204
	movq	%rax, -40(%rbp)	# tmp204, targ
	.loc 1 1197 0
	movq	$0, -48(%rbp)	#, io
	.loc 1 1200 0
	movq	PL_op(%rip), %rax	# PL_op, PL_op.425
	movzbl	37(%rax), %eax	# PL_op.425_20->op_private, D.18309
	movzbl	%al, %eax	# D.18309, D.18310
	andl	$15, %eax	#, D.18310
	testl	%eax, %eax	# D.18310
	jne	.L316	#,
	.loc 1 1201 0
	movq	PL_stdingv(%rip), %rax	# PL_stdingv, tmp205
	movq	%rax, -56(%rbp)	# tmp205, gv
	jmp	.L317	#
.L316:
	.loc 1 1203 0
	movq	%rbx, %rax	# sp, sp.426
	leaq	-8(%rax), %rbx	#, sp
	movq	(%rax), %rax	# *sp.426_25, tmp206
	movq	%rax, -56(%rbp)	# tmp206, gv
.L317:
	.loc 1 1205 0
	cmpq	$0, -56(%rbp)	#, gv
	je	.L318	#,
	.loc 1 1205 0 is_stmt 0 discriminator 1
	cmpq	$0, -56(%rbp)	#, gv
	je	.L319	#,
	movq	-56(%rbp), %rax	# gv, tmp207
	movl	12(%rax), %eax	# MEM[(struct SV *)gv_3].sv_flags, D.18311
	movzbl	%al, %eax	# D.18311, D.18311
	cmpl	$13, %eax	#, D.18311
	jne	.L319	#,
	movq	-56(%rbp), %rax	# gv, tmp208
	movq	(%rax), %rax	# gv_3->sv_any, D.18312
	movq	56(%rax), %rax	# _30->xgv_gp, D.18313
	testq	%rax, %rax	# D.18313
	je	.L319	#,
	movq	-56(%rbp), %rax	# gv, tmp209
	movq	(%rax), %rax	# gv_3->sv_any, D.18312
	movq	56(%rax), %rax	# _32->xgv_gp, D.18313
	movq	16(%rax), %rax	# _33->gp_io, iftmp.427
	jmp	.L320	#
.L319:
	.loc 1 1205 0 discriminator 2
	movl	$0, %eax	#, iftmp.427
.L320:
	.loc 1 1205 0 discriminator 3
	movq	%rax, -48(%rbp)	# iftmp.427, io
	cmpq	$0, -48(%rbp)	#, io
	je	.L318	#,
	.loc 1 1206 0 is_stmt 1
	movq	-48(%rbp), %rax	# io, tmp210
	movl	12(%rax), %eax	# MEM[(struct SV *)io_36].sv_flags, D.18311
	andl	$32768, %eax	#, D.18311
	testl	%eax, %eax	# D.18311
	je	.L321	#,
	.loc 1 1206 0 is_stmt 0 discriminator 1
	movq	-48(%rbp), %rax	# io, tmp211
	movl	$113, %esi	#,
	movq	%rax, %rdi	# tmp211,
	call	Perl_mg_find	#
	jmp	.L322	#
.L321:
	.loc 1 1206 0 discriminator 2
	movl	$0, %eax	#, iftmp.428
.L322:
	.loc 1 1206 0 discriminator 3
	movq	%rax, -32(%rbp)	# iftmp.428, mg
	cmpq	$0, -32(%rbp)	#, mg
	je	.L318	#,
.LBB59:
	.loc 1 1208 0 is_stmt 1
	movq	PL_op(%rip), %rax	# PL_op, PL_op.430
	movzbl	36(%rax), %eax	# PL_op.430_42->op_flags, D.18309
	movzbl	%al, %eax	# D.18309, D.18310
	andl	$3, %eax	#, D.18310
	cmpl	$1, %eax	#, D.18310
	je	.L323	#,
	.loc 1 1208 0 is_stmt 0 discriminator 1
	movq	PL_op(%rip), %rax	# PL_op, PL_op.432
	movzbl	36(%rax), %eax	# PL_op.432_46->op_flags, D.18309
	movzbl	%al, %eax	# D.18309, D.18310
	andl	$3, %eax	#, D.18310
	cmpl	$2, %eax	#, D.18310
	je	.L324	#,
	movq	PL_op(%rip), %rax	# PL_op, PL_op.434
	movzbl	36(%rax), %eax	# PL_op.434_50->op_flags, D.18309
	movzbl	%al, %eax	# D.18309, D.18310
	andl	$3, %eax	#, D.18310
	cmpl	$3, %eax	#, D.18310
	je	.L325	#,
	call	Perl_block_gimme	#
	jmp	.L328	#
.L325:
	.loc 1 1208 0 discriminator 2
	movl	$1, %eax	#, iftmp.433
	jmp	.L328	#
.L324:
	movl	$0, %eax	#, iftmp.431
	jmp	.L328	#
.L323:
	movl	$128, %eax	#, iftmp.429
.L328:
	.loc 1 1208 0 discriminator 3
	movl	%eax, -60(%rbp)	# iftmp.429, gimme
.LBB60:
	.loc 1 1209 0 is_stmt 1 discriminator 3
	movq	PL_markstack_ptr(%rip), %rax	# PL_markstack_ptr, PL_markstack_ptr.435
	addq	$4, %rax	#, PL_markstack_ptr.436
	movq	%rax, PL_markstack_ptr(%rip)	# PL_markstack_ptr.436, PL_markstack_ptr
	movq	PL_markstack_ptr(%rip), %rdx	# PL_markstack_ptr, PL_markstack_ptr.437
	movq	PL_markstack_max(%rip), %rax	# PL_markstack_max, PL_markstack_max.438
	cmpq	%rax, %rdx	# PL_markstack_max.438, PL_markstack_ptr.437
	jne	.L329	#,
	.loc 1 1209 0 is_stmt 0 discriminator 1
	call	Perl_markstack_grow	#
.L329:
	.loc 1 1209 0 discriminator 2
	movq	PL_markstack_ptr(%rip), %rax	# PL_markstack_ptr, PL_markstack_ptr.439
	movq	%rbx, %rcx	# sp, sp.440
	movq	PL_stack_base(%rip), %rdx	# PL_stack_base, PL_stack_base.441
	subq	%rdx, %rcx	# PL_stack_base.442, D.18314
	movq	%rcx, %rdx	# D.18314, D.18314
	sarq	$3, %rdx	#, tmp212
	movl	%edx, (%rax)	# D.18310, *PL_markstack_ptr.439_65
.LBE60:
.LBB61:
	.loc 1 1210 0 is_stmt 1 discriminator 2
	movq	PL_stack_max(%rip), %rax	# PL_stack_max, PL_stack_max.443
	movq	%rax, %rdx	# PL_stack_max.443, PL_stack_max.444
	movq	%rbx, %rax	# sp, sp.445
	subq	%rax, %rdx	# sp.445, D.18314
	movq	%rdx, %rax	# D.18314, D.18314
	cmpq	$7, %rax	#, D.18314
	jg	.L330	#,
	.loc 1 1210 0 is_stmt 0 discriminator 1
	movl	$1, %edx	#,
	movq	%rbx, %rsi	# sp,
	movq	%rbx, %rdi	# sp,
	call	Perl_stack_grow	#
	movq	%rax, %rbx	#, sp
.L330:
	.loc 1 1210 0 discriminator 2
	addq	$8, %rbx	#, sp
	movq	-32(%rbp), %rax	# mg, tmp213
	movq	24(%rax), %rax	# mg_41->mg_obj, D.18316
	testq	%rax, %rax	# D.18316
	je	.L331	#,
	.loc 1 1210 0 discriminator 1
	movq	-32(%rbp), %rax	# mg, tmp214
	movq	24(%rax), %rax	# mg_41->mg_obj, iftmp.446
	jmp	.L332	#
.L331:
	.loc 1 1210 0 discriminator 2
	movq	-48(%rbp), %rax	# io, tmp215
	movq	%rax, %rdi	# tmp215,
	call	Perl_newRV	#
	movq	%rax, %rdi	# D.18316,
	call	Perl_sv_2mortal	#
.L332:
	.loc 1 1210 0 discriminator 3
	movq	%rax, (%rbx)	# iftmp.446, *sp_78
.LBE61:
	.loc 1 1211 0 is_stmt 1 discriminator 3
	movq	%rbx, PL_stack_sp(%rip)	# sp, PL_stack_sp
	.loc 1 1212 0 discriminator 3
	call	Perl_push_scope	#
	.loc 1 1213 0 discriminator 3
	movl	-60(%rbp), %eax	# gimme, tmp216
	movl	%eax, %esi	# tmp216,
	movl	$.LC35, %edi	#,
	call	Perl_call_method	#
	.loc 1 1214 0 discriminator 3
	call	Perl_pop_scope	#
	.loc 1 1215 0 discriminator 3
	movq	PL_stack_sp(%rip), %rbx	# PL_stack_sp, sp
	.loc 1 1216 0 discriminator 3
	cmpl	$0, -60(%rbp)	#, gimme
	jne	.L333	#,
	.loc 1 1217 0
	movq	(%rbx), %rax	# *sp_84, D.18316
	cmpq	-40(%rbp), %rax	# targ, D.18316
	je	.L333	#,
	.loc 1 1217 0 is_stmt 0 discriminator 1
	movq	(%rbx), %rcx	# *sp_84, D.18316
	movq	-40(%rbp), %rax	# targ, tmp217
	movl	$18, %edx	#,
	movq	%rcx, %rsi	# D.18316,
	movq	%rax, %rdi	# tmp217,
	call	Perl_sv_setsv_flags	#
	movq	-40(%rbp), %rax	# targ, tmp218
	movl	12(%rax), %eax	# targ_18->sv_flags, D.18311
	andl	$16384, %eax	#, D.18311
	testl	%eax, %eax	# D.18311
	je	.L333	#,
	movq	-40(%rbp), %rax	# targ, tmp219
	movq	%rax, %rdi	# tmp219,
	call	Perl_mg_set	#
.L333:
	.loc 1 1218 0 is_stmt 1
	movq	%rbx, PL_stack_sp(%rip)	# sp, PL_stack_sp
	movq	PL_op(%rip), %rax	# PL_op, PL_op.447
	movq	(%rax), %rax	# PL_op.447_89->op_next, D.18306
	jmp	.L334	#
.L318:
.LBE59:
	.loc 1 1220 0
	cmpq	$0, -56(%rbp)	#, gv
	je	.L335	#,
	.loc 1 1220 0 is_stmt 0 discriminator 1
	movq	-56(%rbp), %rax	# gv, tmp220
	movq	%rax, %rdi	# tmp220,
	call	Perl_do_eof	#
	testb	%al, %al	# D.18317
	je	.L336	#,
.L335:
	.loc 1 1221 0 is_stmt 1
	movq	PL_curcop(%rip), %rax	# PL_curcop, PL_curcop.448
	movq	80(%rax), %rax	# PL_curcop.448_141->cop_warnings, D.18316
	testq	%rax, %rax	# D.18316
	je	.L337	#,
	.loc 1 1221 0 is_stmt 0 discriminator 1
	movq	PL_curcop(%rip), %rax	# PL_curcop, PL_curcop.449
	movq	80(%rax), %rax	# PL_curcop.449_143->cop_warnings, D.18316
	cmpq	$32, %rax	#, D.18316
	je	.L337	#,
	movq	PL_curcop(%rip), %rax	# PL_curcop, PL_curcop.450
	movq	80(%rax), %rax	# PL_curcop.450_145->cop_warnings, D.18316
	cmpq	$16, %rax	#, D.18316
	je	.L338	#,
	movq	PL_curcop(%rip), %rax	# PL_curcop, PL_curcop.451
	movq	80(%rax), %rax	# PL_curcop.451_147->cop_warnings, D.18316
	movq	(%rax), %rax	# _148->sv_any, D.18318
	movq	(%rax), %rax	# MEM[(struct XPV *)_149].xpv_pv, D.18319
	addq	$2, %rax	#, D.18319
	movzbl	(%rax), %eax	# *_151, D.18317
	movsbl	%al, %eax	# D.18317, D.18310
	andl	$64, %eax	#, D.18310
	testl	%eax, %eax	# D.18310
	jne	.L338	#,
	movq	PL_curcop(%rip), %rax	# PL_curcop, PL_curcop.452
	movq	80(%rax), %rax	# PL_curcop.452_155->cop_warnings, D.18316
	movq	(%rax), %rax	# _156->sv_any, D.18318
	movq	(%rax), %rax	# MEM[(struct XPV *)_157].xpv_pv, D.18319
	addq	$1, %rax	#, D.18319
	movzbl	(%rax), %eax	# *_159, D.18317
	movsbl	%al, %eax	# D.18317, D.18310
	andl	$16, %eax	#, D.18310
	testl	%eax, %eax	# D.18310
	jne	.L338	#,
.L337:
	.loc 1 1221 0 discriminator 2
	movq	PL_curcop(%rip), %rax	# PL_curcop, PL_curcop.453
	movq	80(%rax), %rax	# PL_curcop.453_163->cop_warnings, D.18316
	testq	%rax, %rax	# D.18316
	jne	.L339	#,
	.loc 1 1221 0 discriminator 1
	movzbl	PL_dowarn(%rip), %eax	# PL_dowarn, PL_dowarn.454
	movzbl	%al, %eax	# PL_dowarn.454, D.18310
	andl	$1, %eax	#, D.18310
	testl	%eax, %eax	# D.18310
	je	.L339	#,
.L338:
	.loc 1 1222 0 is_stmt 1
	cmpq	$0, -48(%rbp)	#, io
	je	.L340	#,
	.loc 1 1222 0 is_stmt 0 discriminator 1
	movq	-48(%rbp), %rax	# io, tmp221
	movq	(%rax), %rax	# io_4->sv_any, D.18321
	movq	56(%rax), %rax	# _168->xio_ifp, D.18322
	testq	%rax, %rax	# D.18322
	jne	.L339	#,
	movq	-48(%rbp), %rax	# io, tmp222
	movq	(%rax), %rax	# io_4->sv_any, D.18321
	movzbl	162(%rax), %eax	# _170->xio_type, D.18317
	cmpb	$62, %al	#, D.18317
	je	.L339	#,
.L340:
	.loc 1 1223 0 is_stmt 1
	movq	PL_op(%rip), %rax	# PL_op, PL_op.455
	movzwl	32(%rax), %eax	# PL_op.455_172->op_type, D.18323
	movzwl	%ax, %edx	# D.18323, D.18310
	movq	-48(%rbp), %rcx	# io, tmp223
	movq	-56(%rbp), %rax	# gv, tmp224
	movq	%rcx, %rsi	# tmp223,
	movq	%rax, %rdi	# tmp224,
	call	Perl_report_evil_fh	#
.L339:
	.loc 1 1224 0
	call	__errno_location	#
	movl	$9, (%rax)	#, *_175
	.loc 1 1225 0
	addq	$8, %rbx	#, sp
	movq	$PL_sv_undef, (%rbx)	#, *sp_176
	movq	%rbx, PL_stack_sp(%rip)	# sp, PL_stack_sp
	movq	PL_op(%rip), %rax	# PL_op, PL_op.456
	movq	(%rax), %rax	# PL_op.456_177->op_next, D.18306
	jmp	.L334	#
.L336:
	.loc 1 1227 0
	movb	$1, PL_tainted(%rip)	#, PL_tainted
	.loc 1 1228 0
	movq	-40(%rbp), %rax	# targ, tmp225
	movl	$.LC36, %esi	#,
	movq	%rax, %rdi	# tmp225,
	call	Perl_sv_setpv	#
	.loc 1 1229 0
	movq	-40(%rbp), %rax	# targ, tmp226
	movq	(%rax), %rax	# targ_18->sv_any, D.18318
	movq	(%rax), %r12	# MEM[(struct XPV *)_92].xpv_pv, D.18319
	movq	-56(%rbp), %rax	# gv, tmp227
	movq	(%rax), %rax	# gv_3->sv_any, D.18312
	movq	56(%rax), %rax	# _94->xgv_gp, D.18313
	movq	16(%rax), %rax	# _95->gp_io, D.18320
	movq	(%rax), %rax	# _96->sv_any, D.18321
	movq	56(%rax), %rax	# _97->xio_ifp, D.18322
	movq	%rax, %rdi	# D.18322,
	call	PerlIO_getc	#
	movb	%al, (%r12)	# D.18317, *_93
	.loc 1 1230 0
	movq	-56(%rbp), %rax	# gv, tmp228
	movq	(%rax), %rax	# gv_3->sv_any, D.18312
	movq	56(%rax), %rax	# _101->xgv_gp, D.18313
	movq	16(%rax), %rax	# _102->gp_io, D.18320
	movq	(%rax), %rax	# _103->sv_any, D.18321
	movq	56(%rax), %rax	# _104->xio_ifp, D.18322
	movq	%rax, %rdi	# D.18322,
	call	PerlIO_isutf8	#
	testl	%eax, %eax	# D.18310
	je	.L341	#,
.LBB62:
	.loc 1 1232 0
	movq	-40(%rbp), %rax	# targ, tmp229
	movq	(%rax), %rax	# targ_18->sv_any, D.18318
	movq	(%rax), %rax	# MEM[(struct XPV *)_107].xpv_pv, D.18319
	movzbl	(%rax), %eax	# MEM[(U8 *)_108], D.18309
	movzbl	%al, %eax	# D.18309, D.18310
	cltq
	movzbl	PL_utf8skip(%rax), %eax	# PL_utf8skip, D.18309
	movzbl	%al, %eax	# D.18309, tmp231
	movq	%rax, -24(%rbp)	# tmp231, len
	.loc 1 1233 0
	cmpq	$1, -24(%rbp)	#, len
	jbe	.L342	#,
	.loc 1 1234 0
	movq	-40(%rbp), %rax	# targ, tmp232
	movq	(%rax), %rax	# targ_18->sv_any, D.18318
	movq	16(%rax), %rax	# MEM[(struct XPV *)_113].xpv_len, D.18307
	movq	-24(%rbp), %rdx	# len, tmp233
	addq	$1, %rdx	#, D.18307
	cmpq	%rdx, %rax	# D.18307, D.18307
	jae	.L344	#,
	.loc 1 1234 0 is_stmt 0 discriminator 1
	movq	-24(%rbp), %rax	# len, tmp234
	leaq	1(%rax), %rdx	#, D.18307
	movq	-40(%rbp), %rax	# targ, tmp235
	movq	%rdx, %rsi	# D.18307,
	movq	%rax, %rdi	# tmp235,
	call	Perl_sv_grow	#
.L344:
	.loc 1 1235 0 is_stmt 1
	movq	-24(%rbp), %rax	# len, tmp237
	leaq	-1(%rax), %rdx	#, D.18307
	movq	-40(%rbp), %rax	# targ, tmp238
	movq	(%rax), %rax	# targ_18->sv_any, D.18318
	movq	(%rax), %rax	# MEM[(struct XPV *)_121].xpv_pv, D.18319
	leaq	1(%rax), %rcx	#, D.18318
	movq	-56(%rbp), %rax	# gv, tmp239
	movq	(%rax), %rax	# gv_3->sv_any, D.18312
	movq	56(%rax), %rax	# _124->xgv_gp, D.18313
	movq	16(%rax), %rax	# _125->gp_io, D.18320
	movq	(%rax), %rax	# _126->sv_any, D.18321
	movq	56(%rax), %rax	# _127->xio_ifp, D.18322
	movq	%rcx, %rsi	# D.18318,
	movq	%rax, %rdi	# D.18322,
	call	Perl_PerlIO_read	#
	movq	%rax, -24(%rbp)	# D.18314, len
	.loc 1 1236 0
	movq	-40(%rbp), %rax	# targ, tmp240
	movq	(%rax), %rax	# targ_18->sv_any, D.18318
	movq	-24(%rbp), %rdx	# len, tmp241
	addq	$1, %rdx	#, D.18307
	movq	%rdx, 8(%rax)	# D.18307, MEM[(struct XPV *)_131].xpv_cur
.L342:
	.loc 1 1238 0
	movq	-40(%rbp), %rax	# targ, tmp242
	movl	12(%rax), %eax	# targ_18->sv_flags, D.18311
	orl	$536870912, %eax	#, D.18311
	movl	%eax, %edx	# D.18311, D.18311
	movq	-40(%rbp), %rax	# targ, tmp243
	movl	%edx, 12(%rax)	# D.18311, targ_18->sv_flags
.L341:
.LBE62:
.LBB63:
	.loc 1 1240 0
	movq	-40(%rbp), %rax	# targ, tmp244
	movl	12(%rax), %eax	# targ_18->sv_flags, D.18311
	andl	$16384, %eax	#, D.18311
	testl	%eax, %eax	# D.18311
	je	.L345	#,
	.loc 1 1240 0 is_stmt 0 discriminator 1
	movq	-40(%rbp), %rax	# targ, tmp245
	movq	%rax, %rdi	# tmp245,
	call	Perl_mg_set	#
.L345:
	.loc 1 1240 0 discriminator 2
	addq	$8, %rbx	#, sp
	movq	-40(%rbp), %rax	# targ, tmp246
	movq	%rax, (%rbx)	# tmp246, *sp_137
.LBE63:
	.loc 1 1241 0 is_stmt 1 discriminator 2
	movq	%rbx, PL_stack_sp(%rip)	# sp, PL_stack_sp
	movq	PL_op(%rip), %rax	# PL_op, PL_op.458
	movq	(%rax), %rax	# PL_op.458_139->op_next, D.18306
.L334:
	.loc 1 1242 0
	addq	$48, %rsp	#,
	popq	%rbx	#
	popq	%r12	#
	popq	%rbp	#
	.cfi_def_cfa 7, 8
	ret
	.cfi_endproc
.LFE22:
	.size	Perl_pp_getc, .-Perl_pp_getc
	.globl	Perl_pp_read
	.type	Perl_pp_read, @function
Perl_pp_read:
.LFB23:
	.loc 1 1245 0
	.cfi_startproc
	pushq	%rbp	#
	.cfi_def_cfa_offset 16
	.cfi_offset 6, -16
	movq	%rsp, %rbp	#,
	.cfi_def_cfa_register 6
	.loc 1 1246 0
	call	Perl_pp_sysread	#
	.loc 1 1247 0
	popq	%rbp	#
	.cfi_def_cfa 7, 8
	ret
	.cfi_endproc
.LFE23:
	.size	Perl_pp_read, .-Perl_pp_read
	.type	S_doform, @function
S_doform:
.LFB24:
	.loc 1 1251 0
	.cfi_startproc
	pushq	%rbp	#
	.cfi_def_cfa_offset 16
	.cfi_offset 6, -16
	movq	%rsp, %rbp	#,
	.cfi_def_cfa_register 6
	pushq	%rbx	#
	subq	$56, %rsp	#,
	.cfi_offset 3, -24
	movq	%rdi, -40(%rbp)	# cv, cv
	movq	%rsi, -48(%rbp)	# gv, gv
	movq	%rdx, -56(%rbp)	# retop, retop
	.loc 1 1253 0
	movq	PL_op(%rip), %rax	# PL_op, PL_op.460
	movzbl	36(%rax), %eax	# PL_op.460_4->op_flags, D.18328
	movzbl	%al, %eax	# D.18328, D.18329
	andl	$3, %eax	#, D.18329
	cmpl	$1, %eax	#, D.18329
	je	.L349	#,
	.loc 1 1253 0 is_stmt 0 discriminator 1
	movq	PL_op(%rip), %rax	# PL_op, PL_op.462
	movzbl	36(%rax), %eax	# PL_op.462_8->op_flags, D.18328
	movzbl	%al, %eax	# D.18328, D.18329
	andl	$3, %eax	#, D.18329
	cmpl	$2, %eax	#, D.18329
	je	.L350	#,
	movq	PL_op(%rip), %rax	# PL_op, PL_op.464
	movzbl	36(%rax), %eax	# PL_op.464_12->op_flags, D.18328
	movzbl	%al, %eax	# D.18328, D.18329
	andl	$3, %eax	#, D.18329
	cmpl	$3, %eax	#, D.18329
	je	.L351	#,
	call	Perl_block_gimme	#
	jmp	.L354	#
.L351:
	.loc 1 1253 0 discriminator 2
	movl	$1, %eax	#, iftmp.463
	jmp	.L354	#
.L350:
	movl	$0, %eax	#, iftmp.461
	jmp	.L354	#
.L349:
	movl	$128, %eax	#, iftmp.459
.L354:
	.loc 1 1253 0 discriminator 3
	movl	%eax, -20(%rbp)	# iftmp.459, gimme
	.loc 1 1255 0 is_stmt 1 discriminator 3
	call	Perl_push_scope	#
	.loc 1 1256 0 discriminator 3
	movl	$PL_tmps_floor, %edi	#,
	call	Perl_save_int	#
	movl	PL_tmps_ix(%rip), %eax	# PL_tmps_ix, PL_tmps_ix.465
	movl	%eax, PL_tmps_floor(%rip)	# PL_tmps_ix.465, PL_tmps_floor
	.loc 1 1258 0 discriminator 3
	movq	-56(%rbp), %rax	# retop, tmp151
	movq	%rax, %rdi	# tmp151,
	call	Perl_push_return	#
	.loc 1 1259 0 discriminator 3
	movq	PL_curstackinfo(%rip), %rax	# PL_curstackinfo, PL_curstackinfo.467
	movl	16(%rax), %edx	# PL_curstackinfo.467_25->si_cxix, D.18329
	movq	PL_curstackinfo(%rip), %rax	# PL_curstackinfo, PL_curstackinfo.468
	movl	20(%rax), %eax	# PL_curstackinfo.468_27->si_cxmax, D.18329
	cmpl	%eax, %edx	# D.18329, D.18329
	jge	.L355	#,
	.loc 1 1259 0 is_stmt 0 discriminator 1
	movq	PL_curstackinfo(%rip), %rax	# PL_curstackinfo, PL_curstackinfo.469
	movl	16(%rax), %edx	# PL_curstackinfo.469_29->si_cxix, D.18329
	addl	$1, %edx	#, D.18329
	movl	%edx, 16(%rax)	# D.18329, PL_curstackinfo.469_29->si_cxix
	jmp	.L356	#
.L355:
	.loc 1 1259 0 discriminator 2
	movq	PL_curstackinfo(%rip), %rbx	# PL_curstackinfo, PL_curstackinfo.470
	call	Perl_cxinc	#
	movl	%eax, 16(%rbx)	# D.18329, PL_curstackinfo.470_33->si_cxix
.L356:
	.loc 1 1259 0 discriminator 3
	movq	PL_curstackinfo(%rip), %rax	# PL_curstackinfo, PL_curstackinfo.471
	movq	8(%rax), %rcx	# PL_curstackinfo.471_36->si_cxstack, D.18330
	movq	PL_curstackinfo(%rip), %rax	# PL_curstackinfo, PL_curstackinfo.472
	movl	16(%rax), %eax	# PL_curstackinfo.472_38->si_cxix, D.18329
	movslq	%eax, %rdx	# D.18329, D.18331
	movq	%rdx, %rax	# D.18331, tmp152
	salq	$3, %rax	#, tmp152
	addq	%rdx, %rax	# D.18331, tmp152
	salq	$4, %rax	#, tmp153
	leaq	(%rcx,%rax), %rbx	#, cx
	movl	$6, (%rbx)	#, cx_42->cx_type
	movq	PL_stack_sp(%rip), %rax	# PL_stack_sp, PL_stack_sp.473
	movq	%rax, %rdx	# PL_stack_sp.473, PL_stack_sp.474
	movq	PL_stack_base(%rip), %rax	# PL_stack_base, PL_stack_base.475
	subq	%rax, %rdx	# PL_stack_base.476, D.18332
	movq	%rdx, %rax	# D.18332, D.18332
	sarq	$3, %rax	#, tmp154
	movl	%eax, 8(%rbx)	# D.18329, cx_42->cx_u.cx_blk.blku_oldsp
	movq	PL_curcop(%rip), %rax	# PL_curcop, PL_curcop.477
	movq	%rax, 16(%rbx)	# PL_curcop.477, cx_42->cx_u.cx_blk.blku_oldcop
	movq	PL_markstack_ptr(%rip), %rax	# PL_markstack_ptr, PL_markstack_ptr.478
	movq	%rax, %rdx	# PL_markstack_ptr.478, PL_markstack_ptr.479
	movq	PL_markstack(%rip), %rax	# PL_markstack, PL_markstack.480
	subq	%rax, %rdx	# PL_markstack.481, D.18332
	movq	%rdx, %rax	# D.18332, D.18332
	sarq	$2, %rax	#, tmp155
	movl	%eax, 28(%rbx)	# D.18329, cx_42->cx_u.cx_blk.blku_oldmarksp
	movl	PL_scopestack_ix(%rip), %eax	# PL_scopestack_ix, PL_scopestack_ix.482
	movl	%eax, 32(%rbx)	# PL_scopestack_ix.482, cx_42->cx_u.cx_blk.blku_oldscopesp
	movl	PL_retstack_ix(%rip), %eax	# PL_retstack_ix, PL_retstack_ix.483
	movl	%eax, 24(%rbx)	# PL_retstack_ix.483, cx_42->cx_u.cx_blk.blku_oldretsp
	movq	PL_curpm(%rip), %rax	# PL_curpm, PL_curpm.484
	movq	%rax, 40(%rbx)	# PL_curpm.484, cx_42->cx_u.cx_blk.blku_oldpm
	movl	-20(%rbp), %eax	# gimme, tmp156
	movb	%al, 48(%rbx)	# D.18328, cx_42->cx_u.cx_blk.blku_gimme
	.loc 1 1260 0 is_stmt 1 discriminator 3
	movq	-40(%rbp), %rax	# cv, tmp157
	movq	%rax, 56(%rbx)	# tmp157, cx_42->cx_u.cx_blk.blk_u.blku_sub.cv
	movq	-48(%rbp), %rax	# gv, tmp158
	movq	%rax, 64(%rbx)	# tmp158, cx_42->cx_u.cx_blk.blk_u.blku_sub.gv
	movb	$0, 104(%rbx)	#, cx_42->cx_u.cx_blk.blk_u.blku_sub.hasargs
	movq	PL_defoutgv(%rip), %rax	# PL_defoutgv, PL_defoutgv.485
	movq	%rax, 72(%rbx)	# PL_defoutgv.485, cx_42->cx_u.cx_blk.blk_u.blku_sub.dfoutgv
	movq	72(%rbx), %rax	# cx_42->cx_u.cx_blk.blk_u.blku_sub.dfoutgv, PL_Sv.486
	movq	%rax, PL_Sv(%rip)	# PL_Sv.486, PL_Sv
	movq	PL_Sv(%rip), %rax	# PL_Sv, PL_Sv.488
	testq	%rax, %rax	# PL_Sv.488
	je	.L358	#,
	.loc 1 1260 0 is_stmt 0 discriminator 1
	movq	PL_Sv(%rip), %rax	# PL_Sv, PL_Sv.489
	movl	8(%rax), %edx	# PL_Sv.489_67->sv_refcnt, D.18333
	addl	$1, %edx	#, D.18333
	movl	%edx, 8(%rax)	# D.18333, PL_Sv.489_67->sv_refcnt
	movl	8(%rax), %eax	# PL_Sv.489_67->sv_refcnt, D.18333
	testl	%eax, %eax	# D.18333
	je	.L358	#,
	.loc 1 1260 0
	nop
.L358:
.LBB64:
	.loc 1 1261 0 is_stmt 1
	movl	PL_savestack_ix(%rip), %eax	# PL_savestack_ix, PL_savestack_ix.490
	leal	2(%rax), %edx	#, D.18329
	movl	PL_savestack_max(%rip), %eax	# PL_savestack_max, PL_savestack_max.491
	cmpl	%eax, %edx	# PL_savestack_max.491, D.18329
	jle	.L359	#,
	.loc 1 1261 0 is_stmt 0 discriminator 1
	call	Perl_savestack_grow	#
.L359:
	.loc 1 1261 0 discriminator 2
	movq	PL_savestack(%rip), %rcx	# PL_savestack, PL_savestack.492
	movl	PL_savestack_ix(%rip), %eax	# PL_savestack_ix, PL_savestack_ix.493
	leal	1(%rax), %edx	#, PL_savestack_ix.495
	movl	%edx, PL_savestack_ix(%rip)	# PL_savestack_ix.495, PL_savestack_ix
	cltq
	salq	$3, %rax	#, D.18331
	leaq	(%rcx,%rax), %rdx	#, D.18334
	movq	PL_comppad(%rip), %rax	# PL_comppad, PL_comppad.496
	movq	%rax, (%rdx)	# PL_comppad.496, _82->any_ptr
	movq	PL_savestack(%rip), %rcx	# PL_savestack, PL_savestack.497
	movl	PL_savestack_ix(%rip), %eax	# PL_savestack_ix, PL_savestack_ix.498
	leal	1(%rax), %edx	#, PL_savestack_ix.500
	movl	%edx, PL_savestack_ix(%rip)	# PL_savestack_ix.500, PL_savestack_ix
	cltq
	salq	$3, %rax	#, D.18331
	addq	%rcx, %rax	# PL_savestack.497, D.18334
	movl	$33, (%rax)	#, _90->any_i32
.LBE64:
	movq	-40(%rbp), %rax	# cv, tmp159
	movq	(%rax), %rax	# cv_62(D)->sv_any, D.18336
	movq	120(%rax), %rax	# _92->xcv_padlist, D.18337
	movq	(%rax), %rax	# _93->sv_any, D.18338
	movq	(%rax), %rax	# _94->xav_array, D.18339
	movq	8(%rax), %rax	# MEM[(struct SV * *)_95 + 8B], PL_comppad.501
	movq	%rax, PL_comppad(%rip)	# PL_comppad.501, PL_comppad
	movq	PL_comppad(%rip), %rax	# PL_comppad, PL_comppad.502
	movq	(%rax), %rax	# PL_comppad.502_97->sv_any, D.18338
	movq	(%rax), %rax	# _98->xav_array, PL_curpad.503
	movq	%rax, PL_curpad(%rip)	# PL_curpad.503, PL_curpad
	.loc 1 1263 0 is_stmt 1 discriminator 2
	movq	-48(%rbp), %rax	# gv, tmp160
	movq	%rax, %rdi	# tmp160,
	call	Perl_setdefout	#
	.loc 1 1264 0 discriminator 2
	movq	-40(%rbp), %rax	# cv, tmp161
	movq	(%rax), %rax	# cv_62(D)->sv_any, D.18336
	movq	64(%rax), %rax	# _100->xcv_start, D.18340
	.loc 1 1265 0 discriminator 2
	addq	$56, %rsp	#,
	popq	%rbx	#
	popq	%rbp	#
	.cfi_def_cfa 7, 8
	ret
	.cfi_endproc
.LFE24:
	.size	S_doform, .-S_doform
	.section	.rodata
.LC37:
	.string	"Undefined format \"%s\" called"
.LC38:
	.string	"Not a format reference"
	.text
	.globl	Perl_pp_enterwrite
	.type	Perl_pp_enterwrite, @function
Perl_pp_enterwrite:
.LFB25:
	.loc 1 1268 0
	.cfi_startproc
	pushq	%rbp	#
	.cfi_def_cfa_offset 16
	.cfi_offset 6, -16
	movq	%rsp, %rbp	#,
	.cfi_def_cfa_register 6
	pushq	%r13	#
	pushq	%r12	#
	pushq	%rbx	#
	subq	$40, %rsp	#,
	.cfi_offset 13, -24
	.cfi_offset 12, -32
	.cfi_offset 3, -40
	.loc 1 1269 0
	movq	PL_stack_sp(%rip), %r12	# PL_stack_sp, sp
	.loc 1 1275 0
	movq	PL_op(%rip), %rax	# PL_op, PL_op.504
	movzbl	37(%rax), %eax	# PL_op.504_11->op_private, D.18342
	movzbl	%al, %eax	# D.18342, D.18343
	andl	$15, %eax	#, D.18343
	testl	%eax, %eax	# D.18343
	jne	.L362	#,
	.loc 1 1276 0
	movq	PL_defoutgv(%rip), %rbx	# PL_defoutgv, gv
	jmp	.L363	#
.L362:
	.loc 1 1278 0
	movq	%r12, %rax	# sp, sp.505
	leaq	-8(%rax), %r12	#, sp
	movq	(%rax), %rbx	# *sp.505_16, gv
	.loc 1 1279 0
	testq	%rbx, %rbx	# gv
	jne	.L363	#,
	.loc 1 1280 0
	movq	PL_defoutgv(%rip), %rbx	# PL_defoutgv, gv
.L363:
	.loc 1 1282 0
	movq	PL_stack_max(%rip), %rax	# PL_stack_max, PL_stack_max.506
	movq	%rax, %rdx	# PL_stack_max.506, PL_stack_max.507
	movq	%r12, %rax	# sp, sp.508
	subq	%rax, %rdx	# sp.508, D.18344
	movq	%rdx, %rax	# D.18344, D.18344
	cmpq	$7, %rax	#, D.18344
	jg	.L364	#,
	.loc 1 1282 0 is_stmt 0 discriminator 1
	movl	$1, %edx	#,
	movq	%r12, %rsi	# sp,
	movq	%r12, %rdi	# sp,
	call	Perl_stack_grow	#
	movq	%rax, %r12	#, sp
.L364:
	.loc 1 1283 0 is_stmt 1
	testq	%rbx, %rbx	# gv
	je	.L365	#,
	.loc 1 1283 0 is_stmt 0 discriminator 1
	movl	12(%rbx), %eax	# MEM[(struct SV *)gv_3].sv_flags, D.18345
	movzbl	%al, %eax	# D.18345, D.18345
	cmpl	$13, %eax	#, D.18345
	jne	.L365	#,
	movq	(%rbx), %rax	# gv_3->sv_any, D.18346
	movq	56(%rax), %rax	# _27->xgv_gp, D.18347
	testq	%rax, %rax	# D.18347
	je	.L365	#,
	movq	(%rbx), %rax	# gv_3->sv_any, D.18346
	movq	56(%rax), %rax	# _29->xgv_gp, D.18347
	movq	16(%rax), %rax	# _30->gp_io, iftmp.509
	jmp	.L366	#
.L365:
	.loc 1 1283 0 discriminator 2
	movl	$0, %eax	#, iftmp.509
.L366:
	.loc 1 1283 0 discriminator 3
	movq	%rax, %r13	# iftmp.509, io
	.loc 1 1284 0 is_stmt 1 discriminator 3
	testq	%r13, %r13	# io
	jne	.L367	#,
	.loc 1 1285 0
	addq	$8, %r12	#, sp
	movq	$PL_sv_no, (%r12)	#, *sp_34
	movq	%r12, PL_stack_sp(%rip)	# sp, PL_stack_sp
	movq	PL_op(%rip), %rax	# PL_op, PL_op.510
	movq	(%rax), %rax	# PL_op.510_35->op_next, D.18341
	jmp	.L368	#
.L367:
	.loc 1 1287 0
	movq	0(%r13), %rax	# io_33->sv_any, D.18348
	movq	136(%rax), %rax	# _37->xio_fmt_gv, D.18349
	testq	%rax, %rax	# D.18349
	je	.L369	#,
	.loc 1 1288 0
	movq	0(%r13), %rax	# io_33->sv_any, D.18348
	movq	136(%rax), %rax	# _39->xio_fmt_gv, tmp102
	movq	%rax, -64(%rbp)	# tmp102, fgv
	jmp	.L370	#
.L369:
	.loc 1 1290 0
	movq	%rbx, -64(%rbp)	# gv, fgv
.L370:
	.loc 1 1292 0
	movq	-64(%rbp), %rax	# fgv, tmp103
	movq	(%rax), %rax	# fgv_4->sv_any, D.18346
	movq	56(%rax), %rax	# _42->xgv_gp, D.18347
	movq	24(%rax), %rax	# _43->gp_form, tmp104
	movq	%rax, -56(%rbp)	# tmp104, cv
	.loc 1 1293 0
	cmpq	$0, -56(%rbp)	#, cv
	jne	.L371	#,
.LBB65:
	.loc 1 1294 0
	movq	$0, -48(%rbp)	#, name
	.loc 1 1295 0
	cmpq	$0, -64(%rbp)	#, fgv
	je	.L372	#,
.LBB66:
	.loc 1 1296 0
	call	Perl_sv_newmortal	#
	movq	%rax, -40(%rbp)	# tmp105, tmpsv
	.loc 1 1297 0
	movq	-64(%rbp), %rsi	# fgv, tmp106
	movq	-40(%rbp), %rax	# tmpsv, tmp107
	movl	$0, %ecx	#,
	movl	$0, %edx	#,
	movq	%rax, %rdi	# tmp107,
	call	Perl_gv_efullname4	#
	.loc 1 1298 0
	movq	-40(%rbp), %rax	# tmpsv, tmp108
	movl	12(%rax), %eax	# tmpsv_46->sv_flags, D.18345
	andl	$262144, %eax	#, D.18345
	testl	%eax, %eax	# D.18345
	je	.L373	#,
	.loc 1 1298 0 is_stmt 0 discriminator 1
	movq	-40(%rbp), %rax	# tmpsv, tmp109
	movq	(%rax), %rax	# tmpsv_46->sv_any, D.18350
	movq	(%rax), %rax	# MEM[(struct XPV *)_49].xpv_pv, iftmp.511
	jmp	.L374	#
.L373:
	.loc 1 1298 0 discriminator 2
	movq	-40(%rbp), %rax	# tmpsv, tmp110
	movq	%rax, %rdi	# tmp110,
	call	Perl_sv_2pv_nolen	#
.L374:
	.loc 1 1298 0 discriminator 3
	movq	%rax, -48(%rbp)	# iftmp.511, name
.L372:
.LBE66:
	.loc 1 1300 0 is_stmt 1
	cmpq	$0, -48(%rbp)	#, name
	je	.L375	#,
	.loc 1 1300 0 is_stmt 0 discriminator 1
	movq	-48(%rbp), %rax	# name, tmp111
	movzbl	(%rax), %eax	# *name_6, D.18351
	testb	%al, %al	# D.18351
	je	.L375	#,
	.loc 1 1301 0 is_stmt 1
	movq	-48(%rbp), %rax	# name, tmp112
	movq	%rax, %rsi	# tmp112,
	movl	$.LC37, %edi	#,
	movl	$0, %eax	#,
	call	Perl_die	#
	jmp	.L368	#
.L375:
	.loc 1 1302 0
	movl	$.LC38, %edi	#,
	movl	$0, %eax	#,
	call	Perl_die	#
	jmp	.L368	#
.L371:
.LBE65:
	.loc 1 1304 0
	movq	-56(%rbp), %rax	# cv, tmp113
	movq	(%rax), %rax	# cv_44->sv_any, D.18352
	movzwl	136(%rax), %eax	# _56->xcv_flags, D.18353
	movzwl	%ax, %eax	# D.18353, D.18343
	andl	$1, %eax	#, D.18343
	testl	%eax, %eax	# D.18343
	je	.L376	#,
	.loc 1 1305 0
	movq	-56(%rbp), %rax	# cv, tmp114
	movq	%rax, %rdi	# tmp114,
	call	Perl_cv_clone	#
	movq	%rax, %rdi	# D.18354,
	call	Perl_sv_2mortal	#
	movq	%rax, -56(%rbp)	# tmp115, cv
.L376:
	.loc 1 1307 0
	movq	0(%r13), %rax	# io_33->sv_any, D.18348
	movq	0(%r13), %rdx	# io_33->sv_any, D.18348
	movzbl	163(%rdx), %edx	# _63->xio_flags, D.18351
	andl	$-9, %edx	#, D.18351
	movb	%dl, 163(%rax)	# D.18351, _62->xio_flags
	.loc 1 1308 0
	movq	PL_op(%rip), %rax	# PL_op, PL_op.512
	movq	(%rax), %rdx	# PL_op.512_66->op_next, D.18341
	movq	-56(%rbp), %rax	# cv, tmp116
	movq	%rbx, %rsi	# gv,
	movq	%rax, %rdi	# tmp116,
	call	S_doform	#
.L368:
	.loc 1 1309 0
	addq	$40, %rsp	#,
	popq	%rbx	#
	popq	%r12	#
	popq	%r13	#
	popq	%rbp	#
	.cfi_def_cfa 7, 8
	ret
	.cfi_endproc
.LFE25:
	.size	Perl_pp_enterwrite, .-Perl_pp_enterwrite
	.section	.rodata
.LC39:
	.string	"%s_TOP"
.LC40:
	.string	"top"
.LC41:
	.string	"bad top format reference"
	.align 8
.LC42:
	.string	"Undefined top format \"%s\" called"
.LC43:
	.string	"page overflow"
	.text
	.globl	Perl_pp_leavewrite
	.type	Perl_pp_leavewrite, @function
Perl_pp_leavewrite:
.LFB26:
	.loc 1 1312 0
	.cfi_startproc
	pushq	%rbp	#
	.cfi_def_cfa_offset 16
	.cfi_offset 6, -16
	movq	%rsp, %rbp	#,
	.cfi_def_cfa_register 6
	pushq	%r13	#
	pushq	%r12	#
	pushq	%rbx	#
	subq	$120, %rsp	#,
	.cfi_offset 13, -24
	.cfi_offset 12, -32
	.cfi_offset 3, -40
	.loc 1 1313 0
	movq	PL_stack_sp(%rip), %r13	# PL_stack_sp, sp
	.loc 1 1314 0
	movq	PL_curstackinfo(%rip), %rax	# PL_curstackinfo, PL_curstackinfo.513
	movq	8(%rax), %rcx	# PL_curstackinfo.513_10->si_cxstack, D.18358
	movq	PL_curstackinfo(%rip), %rax	# PL_curstackinfo, PL_curstackinfo.514
	movl	16(%rax), %eax	# PL_curstackinfo.514_12->si_cxix, D.18359
	movslq	%eax, %rdx	# D.18359, D.18360
	movq	%rdx, %rax	# D.18360, tmp295
	salq	$3, %rax	#, tmp295
	addq	%rdx, %rax	# D.18360, tmp295
	salq	$4, %rax	#, tmp296
	addq	%rcx, %rax	# D.18358, D.18358
	movq	64(%rax), %rax	# _16->cx_u.cx_blk.blk_u.blku_sub.gv, tmp297
	movq	%rax, -104(%rbp)	# tmp297, gv
	.loc 1 1315 0
	movq	-104(%rbp), %rax	# gv, tmp298
	movq	(%rax), %rax	# gv_17->sv_any, D.18361
	movq	56(%rax), %rax	# _18->xgv_gp, D.18362
	movq	16(%rax), %rbx	# _19->gp_io, io
	.loc 1 1316 0
	movq	(%rbx), %rax	# io_20->sv_any, D.18363
	movq	64(%rax), %rax	# _21->xio_ofp, tmp299
	movq	%rax, -96(%rbp)	# tmp299, ofp
	.loc 1 1324 0
	testq	%rbx, %rbx	# io
	je	.L378	#,
	.loc 1 1324 0 is_stmt 0 discriminator 1
	cmpq	$0, -96(%rbp)	#, ofp
	je	.L378	#,
	.loc 1 1326 0 is_stmt 1
	movq	(%rbx), %rax	# io_20->sv_any, D.18363
	movq	104(%rax), %rdx	# _23->xio_lines_left, D.18364
	movq	PL_formtarget(%rip), %rax	# PL_formtarget, PL_formtarget.515
	movq	(%rax), %rax	# PL_formtarget.515_25->sv_any, D.18365
	movq	144(%rax), %rax	# MEM[(struct XPVFM *)_26].xfm_lines, D.18364
	cmpq	%rax, %rdx	# D.18364, D.18364
	jge	.L378	#,
	.loc 1 1327 0 discriminator 1
	movq	PL_formtarget(%rip), %rdx	# PL_formtarget, PL_formtarget.516
	movq	PL_toptarget(%rip), %rax	# PL_toptarget, PL_toptarget.517
	.loc 1 1326 0 discriminator 1
	cmpq	%rax, %rdx	# PL_toptarget.517, PL_formtarget.516
	je	.L378	#,
.LBB67:
	.loc 1 1331 0
	movq	(%rbx), %rax	# io_20->sv_any, D.18363
	movq	120(%rax), %rax	# _30->xio_top_gv, D.18366
	testq	%rax, %rax	# D.18366
	jne	.L379	#,
.LBB68:
	.loc 1 1335 0
	movq	(%rbx), %rax	# io_20->sv_any, D.18363
	movq	112(%rax), %rax	# _32->xio_top_name, D.18367
	testq	%rax, %rax	# D.18367
	jne	.L380	#,
	.loc 1 1336 0
	movq	(%rbx), %rax	# io_20->sv_any, D.18363
	movq	128(%rax), %rax	# _34->xio_fmt_name, D.18367
	testq	%rax, %rax	# D.18367
	jne	.L381	#,
	.loc 1 1337 0
	movq	(%rbx), %r12	# io_20->sv_any, D.18363
	movq	-104(%rbp), %rax	# gv, tmp300
	movq	(%rax), %rax	# gv_17->sv_any, D.18361
	movq	64(%rax), %rax	# _37->xgv_name, D.18367
	movq	%rax, %rdi	# D.18367,
	call	Perl_savepv	#
	movq	%rax, 128(%r12)	# D.18367, _36->xio_fmt_name
.L381:
	.loc 1 1338 0
	movq	-104(%rbp), %rax	# gv, tmp301
	movq	(%rax), %rax	# gv_17->sv_any, D.18361
	movq	64(%rax), %rax	# _40->xgv_name, D.18367
	movq	%rax, %rsi	# D.18367,
	movl	$.LC39, %edi	#,
	movl	$0, %eax	#,
	call	Perl_newSVpvf	#
	movq	%rax, %rdi	# D.18368,
	call	Perl_sv_2mortal	#
	movq	%rax, -88(%rbp)	# tmp302, topname
	.loc 1 1339 0
	movq	-88(%rbp), %rax	# topname, tmp303
	movq	(%rax), %rax	# topname_43->sv_any, D.18365
	movq	(%rax), %rax	# MEM[(struct XPV *)_44].xpv_pv, D.18367
	movl	$14, %edx	#,
	movl	$0, %esi	#,
	movq	%rax, %rdi	# D.18367,
	call	Perl_gv_fetchpv	#
	movq	%rax, -80(%rbp)	# tmp304, topgv
	.loc 1 1340 0
	cmpq	$0, -80(%rbp)	#, topgv
	je	.L382	#,
	.loc 1 1340 0 is_stmt 0 discriminator 1
	movq	-80(%rbp), %rax	# topgv, tmp305
	movq	(%rax), %rax	# topgv_46->sv_any, D.18361
	movq	56(%rax), %rax	# _47->xgv_gp, D.18362
	movq	24(%rax), %rax	# _48->gp_form, D.18369
	testq	%rax, %rax	# D.18369
	jne	.L383	#,
.L382:
	.loc 1 1341 0 is_stmt 1 discriminator 2
	movl	$14, %edx	#,
	movl	$0, %esi	#,
	movl	$.LC40, %edi	#,
	call	Perl_gv_fetchpv	#
	.loc 1 1340 0 discriminator 2
	testq	%rax, %rax	# D.18366
	jne	.L384	#,
.L383:
	.loc 1 1342 0
	movq	(%rbx), %r12	# io_20->sv_any, D.18363
	movq	-88(%rbp), %rax	# topname, tmp306
	movq	%rax, %rdi	# tmp306,
	call	Perl_savesvpv	#
	movq	%rax, 112(%r12)	# D.18367, _53->xio_top_name
	jmp	.L380	#
.L384:
	.loc 1 1344 0
	movq	(%rbx), %r12	# io_20->sv_any, D.18363
	movl	$.LC40, %edi	#,
	call	Perl_savepv	#
	movq	%rax, 112(%r12)	# D.18367, _51->xio_top_name
.L380:
	.loc 1 1346 0
	movq	(%rbx), %rax	# io_20->sv_any, D.18363
	movq	112(%rax), %rax	# _55->xio_top_name, D.18367
	movl	$14, %edx	#,
	movl	$0, %esi	#,
	movq	%rax, %rdi	# D.18367,
	call	Perl_gv_fetchpv	#
	movq	%rax, -80(%rbp)	# tmp307, topgv
	.loc 1 1347 0
	cmpq	$0, -80(%rbp)	#, topgv
	je	.L385	#,
	.loc 1 1347 0 is_stmt 0 discriminator 1
	movq	-80(%rbp), %rax	# topgv, tmp308
	movq	(%rax), %rax	# topgv_57->sv_any, D.18361
	movq	56(%rax), %rax	# _58->xgv_gp, D.18362
	movq	24(%rax), %rax	# _59->gp_form, D.18369
	testq	%rax, %rax	# D.18369
	jne	.L386	#,
.L385:
	.loc 1 1348 0 is_stmt 1
	movq	(%rbx), %rax	# io_20->sv_any, D.18363
	movq	(%rbx), %rdx	# io_20->sv_any, D.18363
	movq	96(%rdx), %rdx	# _63->xio_page_len, D.18364
	movq	%rdx, 104(%rax)	# D.18364, _62->xio_lines_left
	.loc 1 1349 0
	jmp	.L378	#
.L386:
	.loc 1 1351 0
	movq	(%rbx), %rax	# io_20->sv_any, D.18363
	movq	-80(%rbp), %rdx	# topgv, tmp309
	movq	%rdx, 120(%rax)	# tmp309, _61->xio_top_gv
.L379:
.LBE68:
	.loc 1 1353 0
	movq	(%rbx), %rax	# io_20->sv_any, D.18363
	movzbl	163(%rax), %eax	# _65->xio_flags, D.18370
	movsbl	%al, %eax	# D.18370, D.18359
	andl	$8, %eax	#, D.18359
	testl	%eax, %eax	# D.18359
	je	.L387	#,
.LBB69:
	.loc 1 1354 0
	movq	(%rbx), %rax	# io_20->sv_any, D.18363
	movq	104(%rax), %rax	# _69->xio_lines_left, D.18364
	movl	%eax, -136(%rbp)	# D.18364, lines
	.loc 1 1355 0
	movq	PL_formtarget(%rip), %rax	# PL_formtarget, PL_formtarget.518
	movq	(%rax), %rax	# PL_formtarget.518_72->sv_any, D.18365
	movq	(%rax), %rax	# MEM[(struct XPV *)_73].xpv_pv, tmp310
	movq	%rax, -120(%rbp)	# tmp310, s
	.loc 1 1356 0
	cmpl	$0, -136(%rbp)	#, lines
	jg	.L388	#,
	.loc 1 1357 0
	jmp	.L378	#
.L388:
	.loc 1 1358 0
	jmp	.L389	#
.L392:
	.loc 1 1359 0
	movq	-120(%rbp), %rax	# s, tmp311
	movl	$10, %esi	#,
	movq	%rax, %rdi	# tmp311,
	call	strchr	#
	movq	%rax, -120(%rbp)	# tmp312, s
	.loc 1 1360 0
	cmpq	$0, -120(%rbp)	#, s
	jne	.L390	#,
	.loc 1 1361 0
	jmp	.L391	#
.L390:
	.loc 1 1362 0
	addq	$1, -120(%rbp)	#, s
.L389:
	.loc 1 1358 0 discriminator 1
	movl	-136(%rbp), %eax	# lines, lines.519
	leal	-1(%rax), %edx	#, tmp313
	movl	%edx, -136(%rbp)	# tmp313, lines
	testl	%eax, %eax	# lines.519
	jg	.L392	#,
.L391:
	.loc 1 1364 0
	cmpq	$0, -120(%rbp)	#, s
	je	.L387	#,
.LBB70:
	.loc 1 1365 0
	movq	PL_formtarget(%rip), %rax	# PL_formtarget, PL_formtarget.520
	movq	(%rax), %rax	# PL_formtarget.520_79->sv_any, D.18365
	movq	8(%rax), %rax	# MEM[(struct XPV *)_80].xpv_cur, tmp314
	movq	%rax, -72(%rbp)	# tmp314, save
	.loc 1 1366 0
	movq	PL_formtarget(%rip), %rax	# PL_formtarget, PL_formtarget.521
	movq	(%rax), %rax	# PL_formtarget.521_82->sv_any, D.18365
	movq	-120(%rbp), %rcx	# s, s.522
	movq	PL_formtarget(%rip), %rdx	# PL_formtarget, PL_formtarget.523
	movq	(%rdx), %rdx	# PL_formtarget.523_85->sv_any, D.18365
	movq	(%rdx), %rdx	# MEM[(struct XPV *)_86].xpv_pv, D.18367
	subq	%rdx, %rcx	# D.18364, D.18364
	movq	%rcx, %rdx	# D.18364, D.18364
	movq	%rdx, 8(%rax)	# D.18360, MEM[(struct XPV *)_83].xpv_cur
	.loc 1 1367 0
	movq	PL_formtarget(%rip), %rax	# PL_formtarget, PL_formtarget.524
	movq	-96(%rbp), %rdx	# ofp, tmp315
	movq	%rdx, %rsi	# tmp315,
	movq	%rax, %rdi	# PL_formtarget.524,
	call	Perl_do_print	#
	.loc 1 1368 0
	movq	PL_formtarget(%rip), %rax	# PL_formtarget, PL_formtarget.525
	movq	(%rax), %rax	# PL_formtarget.525_92->sv_any, D.18365
	movq	-72(%rbp), %rdx	# save, tmp316
	movq	%rdx, 8(%rax)	# tmp316, MEM[(struct XPV *)_93].xpv_cur
	.loc 1 1369 0
	movq	PL_formtarget(%rip), %rax	# PL_formtarget, PL_formtarget.526
	movq	-120(%rbp), %rdx	# s, tmp317
	movq	%rdx, %rsi	# tmp317,
	movq	%rax, %rdi	# PL_formtarget.526,
	call	Perl_sv_chop	#
	.loc 1 1370 0
	movq	PL_formtarget(%rip), %rax	# PL_formtarget, PL_formtarget.527
	movq	(%rax), %rax	# PL_formtarget.527_95->sv_any, D.18365
	movq	PL_formtarget(%rip), %rdx	# PL_formtarget, PL_formtarget.528
	movq	(%rdx), %rdx	# PL_formtarget.528_97->sv_any, D.18365
	movq	144(%rdx), %rcx	# MEM[(struct XPVFM *)_98].xfm_lines, D.18364
	movq	(%rbx), %rdx	# io_20->sv_any, D.18363
	movq	104(%rdx), %rdx	# _100->xio_lines_left, D.18364
	subq	%rdx, %rcx	# D.18364, D.18364
	movq	%rcx, %rdx	# D.18364, D.18364
	movq	%rdx, 144(%rax)	# D.18364, MEM[(struct XPVFM *)_96].xfm_lines
.L387:
.LBE70:
.LBE69:
	.loc 1 1373 0
	movq	(%rbx), %rax	# io_20->sv_any, D.18363
	movq	104(%rax), %rax	# _103->xio_lines_left, D.18364
	testq	%rax, %rax	# D.18364
	js	.L393	#,
	.loc 1 1373 0 is_stmt 0 discriminator 1
	movq	(%rbx), %rax	# io_20->sv_any, D.18363
	movq	88(%rax), %rax	# _105->xio_page, D.18364
	testq	%rax, %rax	# D.18364
	jle	.L393	#,
	.loc 1 1374 0 is_stmt 1
	movq	PL_formfeed(%rip), %rax	# PL_formfeed, PL_formfeed.529
	movq	-96(%rbp), %rdx	# ofp, tmp318
	movq	%rdx, %rsi	# tmp318,
	movq	%rax, %rdi	# PL_formfeed.529,
	call	Perl_do_print	#
.L393:
	.loc 1 1375 0
	movq	(%rbx), %rax	# io_20->sv_any, D.18363
	movq	(%rbx), %rdx	# io_20->sv_any, D.18363
	movq	96(%rdx), %rdx	# _109->xio_page_len, D.18364
	movq	%rdx, 104(%rax)	# D.18364, _108->xio_lines_left
	.loc 1 1376 0
	movq	(%rbx), %rax	# io_20->sv_any, D.18363
	movq	88(%rax), %rdx	# _111->xio_page, D.18364
	addq	$1, %rdx	#, D.18364
	movq	%rdx, 88(%rax)	# D.18364, _111->xio_page
	.loc 1 1377 0
	movq	PL_toptarget(%rip), %rax	# PL_toptarget, PL_toptarget.530
	movq	%rax, PL_formtarget(%rip)	# PL_toptarget.530, PL_formtarget
	.loc 1 1378 0
	movq	(%rbx), %rax	# io_20->sv_any, D.18363
	movq	(%rbx), %rdx	# io_20->sv_any, D.18363
	movzbl	163(%rdx), %edx	# _116->xio_flags, D.18370
	orl	$8, %edx	#, D.18371
	movb	%dl, 163(%rax)	# D.18371, _115->xio_flags
	.loc 1 1379 0
	movq	(%rbx), %rax	# io_20->sv_any, D.18363
	movq	120(%rax), %rax	# _119->xio_top_gv, tmp319
	movq	%rax, -64(%rbp)	# tmp319, fgv
	.loc 1 1380 0
	cmpq	$0, -64(%rbp)	#, fgv
	jne	.L394	#,
	.loc 1 1381 0
	movl	$.LC41, %edi	#,
	movl	$0, %eax	#,
	call	Perl_die	#
	jmp	.L395	#
.L394:
	.loc 1 1382 0
	movq	-64(%rbp), %rax	# fgv, tmp320
	movq	(%rax), %rax	# fgv_120->sv_any, D.18361
	movq	56(%rax), %rax	# _122->xgv_gp, D.18362
	movq	24(%rax), %rax	# _123->gp_form, tmp321
	movq	%rax, -128(%rbp)	# tmp321, cv
.LBB71:
	.loc 1 1384 0
	movq	$0, -112(%rbp)	#, name
	.loc 1 1385 0
	cmpq	$0, -128(%rbp)	#, cv
	jne	.L396	#,
.LBB72:
	.loc 1 1386 0
	call	Perl_sv_newmortal	#
	movq	%rax, -56(%rbp)	# tmp322, sv
	.loc 1 1387 0
	movq	-64(%rbp), %rsi	# fgv, tmp323
	movq	-56(%rbp), %rax	# sv, tmp324
	movl	$0, %ecx	#,
	movl	$0, %edx	#,
	movq	%rax, %rdi	# tmp324,
	call	Perl_gv_efullname4	#
	.loc 1 1388 0
	movq	-56(%rbp), %rax	# sv, tmp325
	movl	12(%rax), %eax	# sv_126->sv_flags, D.18372
	andl	$262144, %eax	#, D.18372
	testl	%eax, %eax	# D.18372
	je	.L397	#,
	.loc 1 1388 0 is_stmt 0 discriminator 1
	movq	-56(%rbp), %rax	# sv, tmp326
	movq	(%rax), %rax	# sv_126->sv_any, D.18365
	movq	(%rax), %rax	# MEM[(struct XPV *)_129].xpv_pv, iftmp.531
	jmp	.L398	#
.L397:
	.loc 1 1388 0 discriminator 2
	movq	-56(%rbp), %rax	# sv, tmp327
	movq	%rax, %rdi	# tmp327,
	call	Perl_sv_2pv_nolen	#
.L398:
	.loc 1 1388 0 discriminator 3
	movq	%rax, -112(%rbp)	# iftmp.531, name
.L396:
.LBE72:
	.loc 1 1390 0 is_stmt 1
	cmpq	$0, -112(%rbp)	#, name
	je	.L399	#,
	.loc 1 1390 0 is_stmt 0 discriminator 1
	movq	-112(%rbp), %rax	# name, tmp328
	movzbl	(%rax), %eax	# *name_6, D.18370
	testb	%al, %al	# D.18370
	je	.L399	#,
	.loc 1 1391 0 is_stmt 1
	movq	-112(%rbp), %rax	# name, tmp329
	movq	%rax, %rsi	# tmp329,
	movl	$.LC42, %edi	#,
	movl	$0, %eax	#,
	call	Perl_die	#
	jmp	.L395	#
.L399:
.LBE71:
	.loc 1 1397 0
	movq	-128(%rbp), %rax	# cv, tmp330
	movq	(%rax), %rax	# cv_124->sv_any, D.18373
	movzwl	136(%rax), %eax	# _135->xcv_flags, D.18374
	movzwl	%ax, %eax	# D.18374, D.18359
	andl	$1, %eax	#, D.18359
	testl	%eax, %eax	# D.18359
	je	.L400	#,
	.loc 1 1398 0
	movq	-128(%rbp), %rax	# cv, tmp331
	movq	%rax, %rdi	# tmp331,
	call	Perl_cv_clone	#
	movq	%rax, %rdi	# D.18369,
	call	Perl_sv_2mortal	#
	movq	%rax, -128(%rbp)	# tmp332, cv
.L400:
	.loc 1 1399 0
	movq	PL_op(%rip), %rdx	# PL_op, PL_op.532
	movq	-104(%rbp), %rcx	# gv, tmp333
	movq	-128(%rbp), %rax	# cv, tmp334
	movq	%rcx, %rsi	# tmp333,
	movq	%rax, %rdi	# tmp334,
	call	S_doform	#
	jmp	.L395	#
.L378:
.LBE67:
	.loc 1 1403 0
	movq	PL_curstackinfo(%rip), %rax	# PL_curstackinfo, PL_curstackinfo.533
	movq	8(%rax), %rsi	# PL_curstackinfo.533_143->si_cxstack, D.18358
	movq	PL_curstackinfo(%rip), %rax	# PL_curstackinfo, PL_curstackinfo.534
	movl	16(%rax), %edx	# PL_curstackinfo.534_145->si_cxix, D.18359
	leal	-1(%rdx), %ecx	#, D.18359
	movl	%ecx, 16(%rax)	# D.18359, PL_curstackinfo.534_145->si_cxix
	movslq	%edx, %rdx	# D.18359, D.18360
	movq	%rdx, %rax	# D.18360, tmp335
	salq	$3, %rax	#, tmp335
	addq	%rdx, %rax	# D.18360, tmp335
	salq	$4, %rax	#, tmp336
	leaq	(%rsi,%rax), %r12	#, cx
	movq	PL_stack_base(%rip), %rax	# PL_stack_base, PL_stack_base.535
	movl	8(%r12), %edx	# cx_151->cx_u.cx_blk.blku_oldsp, D.18359
	movslq	%edx, %rdx	# D.18359, D.18360
	salq	$3, %rdx	#, D.18360
	addq	%rdx, %rax	# D.18360, tmp337
	movq	%rax, -48(%rbp)	# tmp337, newsp
	movq	16(%r12), %rax	# cx_151->cx_u.cx_blk.blku_oldcop, PL_curcop.536
	movq	%rax, PL_curcop(%rip)	# PL_curcop.536, PL_curcop
	movq	PL_markstack(%rip), %rax	# PL_markstack, PL_markstack.537
	movl	28(%r12), %edx	# cx_151->cx_u.cx_blk.blku_oldmarksp, D.18359
	movslq	%edx, %rdx	# D.18359, D.18360
	salq	$2, %rdx	#, D.18360
	addq	%rdx, %rax	# D.18360, PL_markstack_ptr.538
	movq	%rax, PL_markstack_ptr(%rip)	# PL_markstack_ptr.538, PL_markstack_ptr
	movl	32(%r12), %eax	# cx_151->cx_u.cx_blk.blku_oldscopesp, PL_scopestack_ix.539
	movl	%eax, PL_scopestack_ix(%rip)	# PL_scopestack_ix.539, PL_scopestack_ix
	movl	24(%r12), %eax	# cx_151->cx_u.cx_blk.blku_oldretsp, PL_retstack_ix.540
	movl	%eax, PL_retstack_ix(%rip)	# PL_retstack_ix.540, PL_retstack_ix
	movq	40(%r12), %rax	# cx_151->cx_u.cx_blk.blku_oldpm, PL_curpm.541
	movq	%rax, PL_curpm(%rip)	# PL_curpm.541, PL_curpm
	movzbl	48(%r12), %eax	# cx_151->cx_u.cx_blk.blku_gimme, D.18375
	movzbl	%al, %eax	# D.18375, tmp338
	movl	%eax, -132(%rbp)	# tmp338, gimme
	.loc 1 1404 0
	movq	72(%r12), %rax	# cx_151->cx_u.cx_blk.blk_u.blku_sub.dfoutgv, D.18366
	movq	%rax, %rdi	# D.18366,
	call	Perl_setdefout	#
	movq	72(%r12), %rax	# cx_151->cx_u.cx_blk.blk_u.blku_sub.dfoutgv, D.18366
	movq	%rax, %rdi	# D.18366,
	call	Perl_sv_free	#
	.loc 1 1405 0
	call	Perl_pop_scope	#
	.loc 1 1407 0
	movq	(%rbx), %rax	# io_20->sv_any, D.18363
	movq	64(%rax), %rax	# _170->xio_ofp, tmp339
	movq	%rax, -40(%rbp)	# tmp339, fp
	.loc 1 1408 0
	cmpq	$0, -40(%rbp)	#, fp
	jne	.L401	#,
	.loc 1 1409 0
	movq	PL_curcop(%rip), %rax	# PL_curcop, PL_curcop.542
	movq	80(%rax), %rax	# PL_curcop.542_172->cop_warnings, D.18368
	testq	%rax, %rax	# D.18368
	je	.L402	#,
	.loc 1 1409 0 is_stmt 0 discriminator 1
	movq	PL_curcop(%rip), %rax	# PL_curcop, PL_curcop.543
	movq	80(%rax), %rax	# PL_curcop.543_174->cop_warnings, D.18368
	cmpq	$32, %rax	#, D.18368
	je	.L402	#,
	movq	PL_curcop(%rip), %rax	# PL_curcop, PL_curcop.544
	movq	80(%rax), %rax	# PL_curcop.544_176->cop_warnings, D.18368
	cmpq	$16, %rax	#, D.18368
	je	.L403	#,
	movq	PL_curcop(%rip), %rax	# PL_curcop, PL_curcop.545
	movq	80(%rax), %rax	# PL_curcop.545_178->cop_warnings, D.18368
	movq	(%rax), %rax	# _179->sv_any, D.18365
	movq	(%rax), %rax	# MEM[(struct XPV *)_180].xpv_pv, D.18367
	addq	$1, %rax	#, D.18367
	movzbl	(%rax), %eax	# *_182, D.18370
	movsbl	%al, %eax	# D.18370, D.18359
	andl	$16, %eax	#, D.18359
	testl	%eax, %eax	# D.18359
	jne	.L403	#,
	movq	PL_curcop(%rip), %rax	# PL_curcop, PL_curcop.546
	movq	80(%rax), %rax	# PL_curcop.546_186->cop_warnings, D.18368
	movq	(%rax), %rax	# _187->sv_any, D.18365
	movq	(%rax), %rax	# MEM[(struct XPV *)_188].xpv_pv, D.18367
	addq	$1, %rax	#, D.18367
	movzbl	(%rax), %eax	# *_190, D.18370
	movsbl	%al, %eax	# D.18370, D.18359
	andl	$4, %eax	#, D.18359
	testl	%eax, %eax	# D.18359
	jne	.L403	#,
.L402:
	.loc 1 1409 0 discriminator 2
	movq	PL_curcop(%rip), %rax	# PL_curcop, PL_curcop.547
	movq	80(%rax), %rax	# PL_curcop.547_194->cop_warnings, D.18368
	testq	%rax, %rax	# D.18368
	jne	.L404	#,
	.loc 1 1409 0 discriminator 1
	movzbl	PL_dowarn(%rip), %eax	# PL_dowarn, PL_dowarn.548
	movzbl	%al, %eax	# PL_dowarn.548, D.18359
	andl	$1, %eax	#, D.18359
	testl	%eax, %eax	# D.18359
	je	.L404	#,
.L403:
	.loc 1 1410 0 is_stmt 1
	movq	(%rbx), %rax	# io_20->sv_any, D.18363
	movq	56(%rax), %rax	# _199->xio_ifp, D.18376
	testq	%rax, %rax	# D.18376
	je	.L405	#,
	.loc 1 1411 0
	movq	-104(%rbp), %rax	# gv, tmp340
	movl	$-1, %edx	#,
	movq	%rbx, %rsi	# io,
	movq	%rax, %rdi	# tmp340,
	call	Perl_report_evil_fh	#
	jmp	.L404	#
.L405:
	.loc 1 1412 0
	movq	PL_curcop(%rip), %rax	# PL_curcop, PL_curcop.549
	movq	80(%rax), %rax	# PL_curcop.549_201->cop_warnings, D.18368
	testq	%rax, %rax	# D.18368
	je	.L406	#,
	.loc 1 1412 0 is_stmt 0 discriminator 1
	movq	PL_curcop(%rip), %rax	# PL_curcop, PL_curcop.550
	movq	80(%rax), %rax	# PL_curcop.550_203->cop_warnings, D.18368
	cmpq	$32, %rax	#, D.18368
	je	.L406	#,
	movq	PL_curcop(%rip), %rax	# PL_curcop, PL_curcop.551
	movq	80(%rax), %rax	# PL_curcop.551_205->cop_warnings, D.18368
	cmpq	$16, %rax	#, D.18368
	je	.L407	#,
	movq	PL_curcop(%rip), %rax	# PL_curcop, PL_curcop.552
	movq	80(%rax), %rax	# PL_curcop.552_207->cop_warnings, D.18368
	movq	(%rax), %rax	# _208->sv_any, D.18365
	movq	(%rax), %rax	# MEM[(struct XPV *)_209].xpv_pv, D.18367
	addq	$1, %rax	#, D.18367
	movzbl	(%rax), %eax	# *_211, D.18370
	movsbl	%al, %eax	# D.18370, D.18359
	andl	$16, %eax	#, D.18359
	testl	%eax, %eax	# D.18359
	jne	.L407	#,
.L406:
	.loc 1 1412 0 discriminator 2
	movq	PL_curcop(%rip), %rax	# PL_curcop, PL_curcop.553
	movq	80(%rax), %rax	# PL_curcop.553_215->cop_warnings, D.18368
	testq	%rax, %rax	# D.18368
	jne	.L404	#,
	.loc 1 1412 0 discriminator 1
	movzbl	PL_dowarn(%rip), %eax	# PL_dowarn, PL_dowarn.554
	movzbl	%al, %eax	# PL_dowarn.554, D.18359
	andl	$1, %eax	#, D.18359
	testl	%eax, %eax	# D.18359
	je	.L404	#,
.L407:
	.loc 1 1413 0 is_stmt 1
	movq	PL_op(%rip), %rax	# PL_op, PL_op.555
	movzwl	32(%rax), %eax	# PL_op.555_220->op_type, D.18374
	movzwl	%ax, %edx	# D.18374, D.18359
	movq	-104(%rbp), %rax	# gv, tmp341
	movq	%rbx, %rsi	# io,
	movq	%rax, %rdi	# tmp341,
	call	Perl_report_evil_fh	#
.L404:
	.loc 1 1415 0 discriminator 1
	addq	$8, %r13	#, sp
	movq	$PL_sv_no, 0(%r13)	#, *sp_223
	jmp	.L408	#
.L401:
	.loc 1 1418 0
	movq	(%rbx), %rax	# io_20->sv_any, D.18363
	movq	(%rbx), %rdx	# io_20->sv_any, D.18363
	movq	104(%rdx), %rcx	# _225->xio_lines_left, D.18364
	movq	PL_formtarget(%rip), %rdx	# PL_formtarget, PL_formtarget.556
	movq	(%rdx), %rdx	# PL_formtarget.556_227->sv_any, D.18365
	movq	144(%rdx), %rdx	# MEM[(struct XPVFM *)_228].xfm_lines, D.18364
	subq	%rdx, %rcx	# D.18364, D.18364
	movq	%rcx, %rdx	# D.18364, D.18364
	movq	%rdx, 104(%rax)	# D.18364, _224->xio_lines_left
	movq	104(%rax), %rax	# _224->xio_lines_left, D.18364
	testq	%rax, %rax	# D.18364
	jns	.L409	#,
	.loc 1 1419 0
	movq	PL_curcop(%rip), %rax	# PL_curcop, PL_curcop.557
	movq	80(%rax), %rax	# PL_curcop.557_232->cop_warnings, D.18368
	testq	%rax, %rax	# D.18368
	je	.L410	#,
	.loc 1 1419 0 is_stmt 0 discriminator 1
	movq	PL_curcop(%rip), %rax	# PL_curcop, PL_curcop.558
	movq	80(%rax), %rax	# PL_curcop.558_234->cop_warnings, D.18368
	cmpq	$32, %rax	#, D.18368
	je	.L410	#,
	movq	PL_curcop(%rip), %rax	# PL_curcop, PL_curcop.559
	movq	80(%rax), %rax	# PL_curcop.559_236->cop_warnings, D.18368
	cmpq	$16, %rax	#, D.18368
	je	.L411	#,
	movq	PL_curcop(%rip), %rax	# PL_curcop, PL_curcop.560
	movq	80(%rax), %rax	# PL_curcop.560_238->cop_warnings, D.18368
	movq	(%rax), %rax	# _239->sv_any, D.18365
	movq	(%rax), %rax	# MEM[(struct XPV *)_240].xpv_pv, D.18367
	addq	$1, %rax	#, D.18367
	movzbl	(%rax), %eax	# *_242, D.18370
	movsbl	%al, %eax	# D.18370, D.18359
	andl	$4, %eax	#, D.18359
	testl	%eax, %eax	# D.18359
	jne	.L411	#,
.L410:
	.loc 1 1419 0 discriminator 2
	movq	PL_curcop(%rip), %rax	# PL_curcop, PL_curcop.561
	movq	80(%rax), %rax	# PL_curcop.561_246->cop_warnings, D.18368
	testq	%rax, %rax	# D.18368
	jne	.L409	#,
	.loc 1 1419 0 discriminator 1
	movzbl	PL_dowarn(%rip), %eax	# PL_dowarn, PL_dowarn.562
	movzbl	%al, %eax	# PL_dowarn.562, D.18359
	andl	$1, %eax	#, D.18359
	testl	%eax, %eax	# D.18359
	je	.L409	#,
.L411:
	.loc 1 1420 0 is_stmt 1
	movl	$.LC43, %esi	#,
	movl	$5, %edi	#,
	movl	$0, %eax	#,
	call	Perl_warner	#
.L409:
	.loc 1 1422 0
	movq	PL_formtarget(%rip), %rax	# PL_formtarget, PL_formtarget.563
	movq	-40(%rbp), %rdx	# fp, tmp342
	movq	%rdx, %rsi	# tmp342,
	movq	%rax, %rdi	# PL_formtarget.563,
	call	Perl_do_print	#
	testb	%al, %al	# D.18370
	jne	.L412	#,
	.loc 1 1423 0
	addq	$8, %r13	#, sp
	movq	$PL_sv_no, 0(%r13)	#, *sp_253
	jmp	.L408	#
.L412:
	.loc 1 1425 0
	movq	PL_formtarget(%rip), %rax	# PL_formtarget, PL_formtarget.564
	movq	(%rax), %rax	# PL_formtarget.564_254->sv_any, D.18365
	movq	$0, 144(%rax)	#, MEM[(struct XPVFM *)_255].xfm_lines
	.loc 1 1426 0
	movq	PL_formtarget(%rip), %rax	# PL_formtarget, PL_formtarget.565
	movq	(%rax), %rax	# PL_formtarget.565_256->sv_any, D.18365
	movq	$0, 8(%rax)	#, MEM[(struct XPV *)_257].xpv_cur
	.loc 1 1427 0
	movq	PL_formtarget(%rip), %rax	# PL_formtarget, PL_formtarget.566
	movq	(%rax), %rax	# PL_formtarget.566_258->sv_any, D.18365
	movq	(%rax), %rdx	# MEM[(struct XPV *)_259].xpv_pv, D.18367
	movq	PL_formtarget(%rip), %rax	# PL_formtarget, PL_formtarget.567
	movq	(%rax), %rax	# PL_formtarget.567_261->sv_any, D.18365
	movq	8(%rax), %rax	# MEM[(struct XPV *)_262].xpv_cur, D.18360
	addq	%rdx, %rax	# D.18367, D.18367
	movb	$0, (%rax)	#, *_264
	.loc 1 1428 0
	movq	(%rbx), %rax	# io_20->sv_any, D.18363
	movzbl	163(%rax), %eax	# _265->xio_flags, D.18370
	movsbl	%al, %eax	# D.18370, D.18359
	andl	$4, %eax	#, D.18359
	testl	%eax, %eax	# D.18359
	je	.L413	#,
	.loc 1 1429 0
	movq	-40(%rbp), %rax	# fp, tmp343
	movq	%rax, %rdi	# tmp343,
	call	Perl_PerlIO_flush	#
.L413:
	.loc 1 1430 0
	addq	$8, %r13	#, sp
	movq	$PL_sv_yes, 0(%r13)	#, *sp_269
.L408:
	.loc 1 1434 0
	movq	PL_bodytarget(%rip), %rax	# PL_bodytarget, PL_bodytarget.568
	movq	%rax, PL_formtarget(%rip)	# PL_bodytarget.568, PL_formtarget
	.loc 1 1435 0
	movq	%r13, PL_stack_sp(%rip)	# sp, PL_stack_sp
	.loc 1 1436 0
	call	Perl_pop_return	#
.L395:
	.loc 1 1437 0
	addq	$120, %rsp	#,
	popq	%rbx	#
	popq	%r12	#
	popq	%r13	#
	popq	%rbp	#
	.cfi_def_cfa 7, 8
	ret
	.cfi_endproc
.LFE26:
	.size	Perl_pp_leavewrite, .-Perl_pp_leavewrite
	.section	.rodata
.LC44:
	.string	"PRINTF"
	.text
	.globl	Perl_pp_prtf
	.type	Perl_pp_prtf, @function
Perl_pp_prtf:
.LFB27:
	.loc 1 1440 0
	.cfi_startproc
	pushq	%rbp	#
	.cfi_def_cfa_offset 16
	.cfi_offset 6, -16
	movq	%rsp, %rbp	#,
	.cfi_def_cfa_register 6
	pushq	%r12	#
	pushq	%rbx	#
	subq	$48, %rsp	#,
	.cfi_offset 12, -24
	.cfi_offset 3, -32
	.loc 1 1441 0
	movq	PL_stack_sp(%rip), %rbx	# PL_stack_sp, sp
	movq	PL_stack_base(%rip), %rcx	# PL_stack_base, PL_stack_base.569
	movq	PL_markstack_ptr(%rip), %rax	# PL_markstack_ptr, PL_markstack_ptr.570
	leaq	-4(%rax), %rdx	#, PL_markstack_ptr.572
	movq	%rdx, PL_markstack_ptr(%rip)	# PL_markstack_ptr.572, PL_markstack_ptr
	movl	(%rax), %eax	# *PL_markstack_ptr.571_15, D.18383
	cltq
	salq	$3, %rax	#, D.18384
	leaq	(%rcx,%rax), %r12	#, mark
	movq	%r12, %rdx	# mark, mark.573
	movq	PL_stack_base(%rip), %rax	# PL_stack_base, PL_stack_base.574
	subq	%rax, %rdx	# PL_stack_base.575, D.18385
	movq	%rdx, %rax	# D.18385, D.18385
	sarq	$3, %rax	#, tmp246
	movl	%eax, -64(%rbp)	# D.18385, origmark
	.loc 1 1448 0
	movq	PL_op(%rip), %rax	# PL_op, PL_op.576
	movzbl	36(%rax), %eax	# PL_op.576_27->op_flags, D.18386
	movzbl	%al, %eax	# D.18386, D.18383
	andl	$64, %eax	#, D.18383
	testl	%eax, %eax	# D.18383
	je	.L415	#,
	.loc 1 1449 0
	addq	$8, %r12	#, mark
	movq	(%r12), %rax	# *mark_31, tmp247
	movq	%rax, -56(%rbp)	# tmp247, gv
	jmp	.L416	#
.L415:
	.loc 1 1451 0
	movq	PL_defoutgv(%rip), %rax	# PL_defoutgv, tmp248
	movq	%rax, -56(%rbp)	# tmp248, gv
.L416:
	.loc 1 1453 0
	cmpq	$0, -56(%rbp)	#, gv
	je	.L417	#,
	.loc 1 1453 0 is_stmt 0 discriminator 1
	cmpq	$0, -56(%rbp)	#, gv
	je	.L418	#,
	movq	-56(%rbp), %rax	# gv, tmp249
	movl	12(%rax), %eax	# MEM[(struct SV *)gv_6].sv_flags, D.18387
	movzbl	%al, %eax	# D.18387, D.18387
	cmpl	$13, %eax	#, D.18387
	jne	.L418	#,
	movq	-56(%rbp), %rax	# gv, tmp250
	movq	(%rax), %rax	# gv_6->sv_any, D.18388
	movq	56(%rax), %rax	# _36->xgv_gp, D.18389
	testq	%rax, %rax	# D.18389
	je	.L418	#,
	movq	-56(%rbp), %rax	# gv, tmp251
	movq	(%rax), %rax	# gv_6->sv_any, D.18388
	movq	56(%rax), %rax	# _38->xgv_gp, D.18389
	movq	16(%rax), %rax	# _39->gp_io, iftmp.577
	jmp	.L419	#
.L418:
	.loc 1 1453 0 discriminator 2
	movl	$0, %eax	#, iftmp.577
.L419:
	.loc 1 1453 0 discriminator 3
	movq	%rax, -48(%rbp)	# iftmp.577, io
	cmpq	$0, -48(%rbp)	#, io
	je	.L417	#,
	.loc 1 1454 0 is_stmt 1
	movq	-48(%rbp), %rax	# io, tmp252
	movl	12(%rax), %eax	# MEM[(struct SV *)io_42].sv_flags, D.18387
	andl	$32768, %eax	#, D.18387
	testl	%eax, %eax	# D.18387
	je	.L420	#,
	.loc 1 1454 0 is_stmt 0 discriminator 1
	movq	-48(%rbp), %rax	# io, tmp253
	movl	$113, %esi	#,
	movq	%rax, %rdi	# tmp253,
	call	Perl_mg_find	#
	jmp	.L421	#
.L420:
	.loc 1 1454 0 discriminator 2
	movl	$0, %eax	#, iftmp.578
.L421:
	.loc 1 1454 0 discriminator 3
	movq	%rax, -40(%rbp)	# iftmp.578, mg
	cmpq	$0, -40(%rbp)	#, mg
	je	.L417	#,
	.loc 1 1456 0 is_stmt 1
	movq	PL_stack_base(%rip), %rax	# PL_stack_base, PL_stack_base.579
	movl	-64(%rbp), %edx	# origmark, tmp254
	movslq	%edx, %rdx	# tmp254, D.18384
	salq	$3, %rdx	#, D.18384
	addq	%rdx, %rax	# D.18384, D.18390
	cmpq	%r12, %rax	# mark, D.18390
	jne	.L422	#,
	.loc 1 1457 0
	movq	PL_stack_max(%rip), %rax	# PL_stack_max, PL_stack_max.580
	movq	%rax, %rdx	# PL_stack_max.580, PL_stack_max.581
	movq	%rbx, %rax	# sp, sp.582
	subq	%rax, %rdx	# sp.582, D.18385
	movq	%rdx, %rax	# D.18385, D.18385
	cmpq	$7, %rax	#, D.18385
	jg	.L423	#,
.LBB73:
	.loc 1 1457 0 is_stmt 0 discriminator 1
	movq	%r12, %rdx	# mark, mark.583
	movq	PL_stack_base(%rip), %rax	# PL_stack_base, PL_stack_base.584
	subq	%rax, %rdx	# PL_stack_base.585, D.18385
	movq	%rdx, %rax	# D.18385, D.18385
	sarq	$3, %rax	#, tmp255
	movl	%eax, -60(%rbp)	# D.18385, markoff
	movl	$1, %edx	#,
	movq	%rbx, %rsi	# sp,
	movq	%rbx, %rdi	# sp,
	call	Perl_stack_grow	#
	movq	%rax, %rbx	#, sp
	movq	PL_stack_base(%rip), %rax	# PL_stack_base, PL_stack_base.586
	movl	-60(%rbp), %edx	# markoff, tmp256
	movslq	%edx, %rdx	# tmp256, D.18384
	salq	$3, %rdx	#, D.18384
	leaq	(%rax,%rdx), %r12	#, mark
.L423:
.LBE73:
	.loc 1 1458 0 is_stmt 1
	addq	$8, %r12	#, mark
	.loc 1 1459 0
	movq	%rbx, %rdx	# sp, sp.587
	movq	%r12, %rax	# mark, mark.588
	subq	%rax, %rdx	# mark.588, D.18385
	movq	%rdx, %rax	# D.18385, D.18385
	sarq	$3, %rax	#, tmp257
	addq	$1, %rax	#, D.18385
	leaq	0(,%rax,8), %rdx	#, D.18384
	leaq	8(%r12), %rax	#, D.18391
	movq	%r12, %rsi	# mark,
	movq	%rax, %rdi	# D.18391,
	call	memmove	#
	.loc 1 1460 0
	addq	$8, %rbx	#, sp
.L422:
.LBB74:
	.loc 1 1462 0
	movq	PL_markstack_ptr(%rip), %rax	# PL_markstack_ptr, PL_markstack_ptr.589
	addq	$4, %rax	#, PL_markstack_ptr.590
	movq	%rax, PL_markstack_ptr(%rip)	# PL_markstack_ptr.590, PL_markstack_ptr
	movq	PL_markstack_ptr(%rip), %rdx	# PL_markstack_ptr, PL_markstack_ptr.591
	movq	PL_markstack_max(%rip), %rax	# PL_markstack_max, PL_markstack_max.592
	cmpq	%rax, %rdx	# PL_markstack_max.592, PL_markstack_ptr.591
	jne	.L424	#,
	.loc 1 1462 0 is_stmt 0 discriminator 1
	call	Perl_markstack_grow	#
.L424:
	.loc 1 1462 0 discriminator 2
	movq	PL_markstack_ptr(%rip), %rax	# PL_markstack_ptr, PL_markstack_ptr.593
	leaq	-8(%r12), %rdx	#, D.18390
	movq	%rdx, %rcx	# D.18390, D.18385
	movq	PL_stack_base(%rip), %rdx	# PL_stack_base, PL_stack_base.594
	subq	%rdx, %rcx	# PL_stack_base.595, D.18385
	movq	%rcx, %rdx	# D.18385, D.18385
	sarq	$3, %rdx	#, tmp258
	movl	%edx, (%rax)	# D.18383, *PL_markstack_ptr.593_81
.LBE74:
	.loc 1 1463 0 is_stmt 1 discriminator 2
	movq	-40(%rbp), %rax	# mg, tmp259
	movq	24(%rax), %rax	# mg_47->mg_obj, D.18393
	testq	%rax, %rax	# D.18393
	je	.L425	#,
	.loc 1 1463 0 is_stmt 0 discriminator 1
	movq	-40(%rbp), %rax	# mg, tmp260
	movq	24(%rax), %rax	# mg_47->mg_obj, iftmp.596
	jmp	.L426	#
.L425:
	.loc 1 1463 0 discriminator 2
	movq	-48(%rbp), %rax	# io, tmp261
	movq	%rax, %rdi	# tmp261,
	call	Perl_newRV	#
	movq	%rax, %rdi	# D.18393,
	call	Perl_sv_2mortal	#
.L426:
	.loc 1 1463 0 discriminator 3
	movq	%rax, (%r12)	# iftmp.596, *mark_5
	.loc 1 1464 0 is_stmt 1 discriminator 3
	movq	%rbx, PL_stack_sp(%rip)	# sp, PL_stack_sp
	.loc 1 1465 0 discriminator 3
	call	Perl_push_scope	#
	.loc 1 1466 0 discriminator 3
	movl	$0, %esi	#,
	movl	$.LC44, %edi	#,
	call	Perl_call_method	#
	.loc 1 1467 0 discriminator 3
	call	Perl_pop_scope	#
	.loc 1 1468 0 discriminator 3
	movq	PL_stack_sp(%rip), %rbx	# PL_stack_sp, sp
	.loc 1 1469 0 discriminator 3
	movq	PL_stack_base(%rip), %rax	# PL_stack_base, PL_stack_base.597
	movl	-64(%rbp), %edx	# origmark, tmp262
	movslq	%edx, %rdx	# tmp262, D.18394
	addq	$1, %rdx	#, D.18394
	salq	$3, %rdx	#, D.18394
	leaq	(%rax,%rdx), %r12	#, mark
	.loc 1 1470 0 discriminator 3
	movq	(%rbx), %rax	# *sp_94, D.18393
	movq	%rax, (%r12)	# D.18393, *mark_99
	.loc 1 1471 0 discriminator 3
	movq	%r12, %rbx	# mark, sp
	.loc 1 1472 0 discriminator 3
	movq	%rbx, PL_stack_sp(%rip)	# sp, PL_stack_sp
	movq	PL_op(%rip), %rax	# PL_op, PL_op.598
	movq	(%rax), %rax	# PL_op.598_102->op_next, D.18382
	jmp	.L427	#
.L417:
	.loc 1 1475 0
	movl	$0, %edi	#,
	call	Perl_newSV	#
	movq	%rax, -32(%rbp)	# tmp263, sv
	.loc 1 1476 0
	cmpq	$0, -56(%rbp)	#, gv
	je	.L428	#,
	.loc 1 1476 0 is_stmt 0 discriminator 1
	movq	-56(%rbp), %rax	# gv, tmp264
	movl	12(%rax), %eax	# MEM[(struct SV *)gv_6].sv_flags, D.18387
	movzbl	%al, %eax	# D.18387, D.18387
	cmpl	$13, %eax	#, D.18387
	jne	.L428	#,
	movq	-56(%rbp), %rax	# gv, tmp265
	movq	(%rax), %rax	# gv_6->sv_any, D.18388
	movq	56(%rax), %rax	# _107->xgv_gp, D.18389
	testq	%rax, %rax	# D.18389
	je	.L428	#,
	movq	-56(%rbp), %rax	# gv, tmp266
	movq	(%rax), %rax	# gv_6->sv_any, D.18388
	movq	56(%rax), %rax	# _109->xgv_gp, D.18389
	movq	16(%rax), %rax	# _110->gp_io, iftmp.599
	jmp	.L429	#
.L428:
	.loc 1 1476 0 discriminator 2
	movl	$0, %eax	#, iftmp.599
.L429:
	.loc 1 1476 0 discriminator 3
	movq	%rax, -48(%rbp)	# iftmp.599, io
	cmpq	$0, -48(%rbp)	#, io
	jne	.L430	#,
	.loc 1 1477 0 is_stmt 1
	movq	PL_curcop(%rip), %rax	# PL_curcop, PL_curcop.600
	movq	80(%rax), %rax	# PL_curcop.600_114->cop_warnings, D.18393
	testq	%rax, %rax	# D.18393
	je	.L431	#,
	.loc 1 1477 0 is_stmt 0 discriminator 1
	movq	PL_curcop(%rip), %rax	# PL_curcop, PL_curcop.601
	movq	80(%rax), %rax	# PL_curcop.601_116->cop_warnings, D.18393
	cmpq	$32, %rax	#, D.18393
	je	.L431	#,
	movq	PL_curcop(%rip), %rax	# PL_curcop, PL_curcop.602
	movq	80(%rax), %rax	# PL_curcop.602_118->cop_warnings, D.18393
	cmpq	$16, %rax	#, D.18393
	je	.L432	#,
	movq	PL_curcop(%rip), %rax	# PL_curcop, PL_curcop.603
	movq	80(%rax), %rax	# PL_curcop.603_120->cop_warnings, D.18393
	movq	(%rax), %rax	# _121->sv_any, D.18391
	movq	(%rax), %rax	# MEM[(struct XPV *)_122].xpv_pv, D.18395
	addq	$2, %rax	#, D.18395
	movzbl	(%rax), %eax	# *_124, D.18396
	movsbl	%al, %eax	# D.18396, D.18383
	andl	$64, %eax	#, D.18383
	testl	%eax, %eax	# D.18383
	jne	.L432	#,
	movq	PL_curcop(%rip), %rax	# PL_curcop, PL_curcop.604
	movq	80(%rax), %rax	# PL_curcop.604_128->cop_warnings, D.18393
	movq	(%rax), %rax	# _129->sv_any, D.18391
	movq	(%rax), %rax	# MEM[(struct XPV *)_130].xpv_pv, D.18395
	addq	$1, %rax	#, D.18395
	movzbl	(%rax), %eax	# *_132, D.18396
	movsbl	%al, %eax	# D.18396, D.18383
	andl	$16, %eax	#, D.18383
	testl	%eax, %eax	# D.18383
	jne	.L432	#,
.L431:
	.loc 1 1477 0 discriminator 2
	movq	PL_curcop(%rip), %rax	# PL_curcop, PL_curcop.605
	movq	80(%rax), %rax	# PL_curcop.605_136->cop_warnings, D.18393
	testq	%rax, %rax	# D.18393
	jne	.L433	#,
	.loc 1 1477 0 discriminator 1
	movzbl	PL_dowarn(%rip), %eax	# PL_dowarn, PL_dowarn.606
	movzbl	%al, %eax	# PL_dowarn.606, D.18383
	andl	$1, %eax	#, D.18383
	testl	%eax, %eax	# D.18383
	je	.L433	#,
.L432:
	.loc 1 1478 0 is_stmt 1
	movq	PL_op(%rip), %rax	# PL_op, PL_op.607
	movzwl	32(%rax), %eax	# PL_op.607_141->op_type, D.18397
	movzwl	%ax, %edx	# D.18397, D.18383
	movq	-48(%rbp), %rcx	# io, tmp267
	movq	-56(%rbp), %rax	# gv, tmp268
	movq	%rcx, %rsi	# tmp267,
	movq	%rax, %rdi	# tmp268,
	call	Perl_report_evil_fh	#
.L433:
	.loc 1 1479 0
	call	__errno_location	#
	movl	$9, (%rax)	#, *_144
	.loc 1 1480 0
	jmp	.L434	#
.L430:
	.loc 1 1482 0
	movq	-48(%rbp), %rax	# io, tmp269
	movq	(%rax), %rax	# io_113->sv_any, D.18399
	movq	64(%rax), %rax	# _145->xio_ofp, tmp270
	movq	%rax, -24(%rbp)	# tmp270, fp
	cmpq	$0, -24(%rbp)	#, fp
	jne	.L435	#,
	.loc 1 1483 0
	movq	PL_curcop(%rip), %rax	# PL_curcop, PL_curcop.608
	movq	80(%rax), %rax	# PL_curcop.608_147->cop_warnings, D.18393
	testq	%rax, %rax	# D.18393
	je	.L436	#,
	.loc 1 1483 0 is_stmt 0 discriminator 1
	movq	PL_curcop(%rip), %rax	# PL_curcop, PL_curcop.609
	movq	80(%rax), %rax	# PL_curcop.609_149->cop_warnings, D.18393
	cmpq	$32, %rax	#, D.18393
	je	.L436	#,
	movq	PL_curcop(%rip), %rax	# PL_curcop, PL_curcop.610
	movq	80(%rax), %rax	# PL_curcop.610_151->cop_warnings, D.18393
	cmpq	$16, %rax	#, D.18393
	je	.L437	#,
	movq	PL_curcop(%rip), %rax	# PL_curcop, PL_curcop.611
	movq	80(%rax), %rax	# PL_curcop.611_153->cop_warnings, D.18393
	movq	(%rax), %rax	# _154->sv_any, D.18391
	movq	(%rax), %rax	# MEM[(struct XPV *)_155].xpv_pv, D.18395
	addq	$1, %rax	#, D.18395
	movzbl	(%rax), %eax	# *_157, D.18396
	movsbl	%al, %eax	# D.18396, D.18383
	andl	$16, %eax	#, D.18383
	testl	%eax, %eax	# D.18383
	jne	.L437	#,
	movq	PL_curcop(%rip), %rax	# PL_curcop, PL_curcop.612
	movq	80(%rax), %rax	# PL_curcop.612_161->cop_warnings, D.18393
	movq	(%rax), %rax	# _162->sv_any, D.18391
	movq	(%rax), %rax	# MEM[(struct XPV *)_163].xpv_pv, D.18395
	addq	$1, %rax	#, D.18395
	movzbl	(%rax), %eax	# *_165, D.18396
	movsbl	%al, %eax	# D.18396, D.18383
	andl	$4, %eax	#, D.18383
	testl	%eax, %eax	# D.18383
	jne	.L437	#,
.L436:
	.loc 1 1483 0 discriminator 2
	movq	PL_curcop(%rip), %rax	# PL_curcop, PL_curcop.613
	movq	80(%rax), %rax	# PL_curcop.613_169->cop_warnings, D.18393
	testq	%rax, %rax	# D.18393
	jne	.L438	#,
	.loc 1 1483 0 discriminator 1
	movzbl	PL_dowarn(%rip), %eax	# PL_dowarn, PL_dowarn.614
	movzbl	%al, %eax	# PL_dowarn.614, D.18383
	andl	$1, %eax	#, D.18383
	testl	%eax, %eax	# D.18383
	je	.L438	#,
.L437:
	.loc 1 1484 0 is_stmt 1
	movq	-48(%rbp), %rax	# io, tmp271
	movq	(%rax), %rax	# io_113->sv_any, D.18399
	movq	56(%rax), %rax	# _174->xio_ifp, D.18400
	testq	%rax, %rax	# D.18400
	je	.L439	#,
	.loc 1 1485 0
	movq	-48(%rbp), %rcx	# io, tmp272
	movq	-56(%rbp), %rax	# gv, tmp273
	movl	$-1, %edx	#,
	movq	%rcx, %rsi	# tmp272,
	movq	%rax, %rdi	# tmp273,
	call	Perl_report_evil_fh	#
	jmp	.L438	#
.L439:
	.loc 1 1486 0
	movq	PL_curcop(%rip), %rax	# PL_curcop, PL_curcop.615
	movq	80(%rax), %rax	# PL_curcop.615_176->cop_warnings, D.18393
	testq	%rax, %rax	# D.18393
	je	.L440	#,
	.loc 1 1486 0 is_stmt 0 discriminator 1
	movq	PL_curcop(%rip), %rax	# PL_curcop, PL_curcop.616
	movq	80(%rax), %rax	# PL_curcop.616_178->cop_warnings, D.18393
	cmpq	$32, %rax	#, D.18393
	je	.L440	#,
	movq	PL_curcop(%rip), %rax	# PL_curcop, PL_curcop.617
	movq	80(%rax), %rax	# PL_curcop.617_180->cop_warnings, D.18393
	cmpq	$16, %rax	#, D.18393
	je	.L441	#,
	movq	PL_curcop(%rip), %rax	# PL_curcop, PL_curcop.618
	movq	80(%rax), %rax	# PL_curcop.618_182->cop_warnings, D.18393
	movq	(%rax), %rax	# _183->sv_any, D.18391
	movq	(%rax), %rax	# MEM[(struct XPV *)_184].xpv_pv, D.18395
	addq	$1, %rax	#, D.18395
	movzbl	(%rax), %eax	# *_186, D.18396
	movsbl	%al, %eax	# D.18396, D.18383
	andl	$16, %eax	#, D.18383
	testl	%eax, %eax	# D.18383
	jne	.L441	#,
.L440:
	.loc 1 1486 0 discriminator 2
	movq	PL_curcop(%rip), %rax	# PL_curcop, PL_curcop.619
	movq	80(%rax), %rax	# PL_curcop.619_190->cop_warnings, D.18393
	testq	%rax, %rax	# D.18393
	jne	.L438	#,
	.loc 1 1486 0 discriminator 1
	movzbl	PL_dowarn(%rip), %eax	# PL_dowarn, PL_dowarn.620
	movzbl	%al, %eax	# PL_dowarn.620, D.18383
	andl	$1, %eax	#, D.18383
	testl	%eax, %eax	# D.18383
	je	.L438	#,
.L441:
	.loc 1 1487 0 is_stmt 1
	movq	PL_op(%rip), %rax	# PL_op, PL_op.621
	movzwl	32(%rax), %eax	# PL_op.621_195->op_type, D.18397
	movzwl	%ax, %edx	# D.18397, D.18383
	movq	-48(%rbp), %rcx	# io, tmp274
	movq	-56(%rbp), %rax	# gv, tmp275
	movq	%rcx, %rsi	# tmp274,
	movq	%rax, %rdi	# tmp275,
	call	Perl_report_evil_fh	#
.L438:
	.loc 1 1489 0
	call	__errno_location	#
	movl	$9, (%rax)	#, *_198
	.loc 1 1490 0
	jmp	.L434	#
.L435:
	.loc 1 1493 0
	leaq	8(%r12), %rdx	#, D.18390
	movq	%rbx, %rcx	# sp, sp.622
	movq	%r12, %rax	# mark, mark.623
	subq	%rax, %rcx	# mark.623, D.18385
	movq	%rcx, %rax	# D.18385, D.18385
	sarq	$3, %rax	#, tmp276
	movl	%eax, %ecx	# D.18385, D.18383
	movq	-32(%rbp), %rax	# sv, tmp277
	movl	%ecx, %esi	# D.18383,
	movq	%rax, %rdi	# tmp277,
	call	Perl_do_sprintf	#
	.loc 1 1494 0
	movq	-24(%rbp), %rdx	# fp, tmp278
	movq	-32(%rbp), %rax	# sv, tmp279
	movq	%rdx, %rsi	# tmp278,
	movq	%rax, %rdi	# tmp279,
	call	Perl_do_print	#
	testb	%al, %al	# D.18396
	jne	.L442	#,
	.loc 1 1495 0
	jmp	.L434	#
.L442:
	.loc 1 1497 0
	movq	-48(%rbp), %rax	# io, tmp280
	movq	(%rax), %rax	# io_113->sv_any, D.18399
	movzbl	163(%rax), %eax	# _206->xio_flags, D.18396
	movsbl	%al, %eax	# D.18396, D.18383
	andl	$4, %eax	#, D.18383
	testl	%eax, %eax	# D.18383
	je	.L443	#,
	.loc 1 1498 0
	movq	-24(%rbp), %rax	# fp, tmp281
	movq	%rax, %rdi	# tmp281,
	call	Perl_PerlIO_flush	#
	cmpl	$-1, %eax	#, D.18383
	jne	.L443	#,
	.loc 1 1499 0
	jmp	.L434	#
.L443:
	.loc 1 1501 0
	movq	-32(%rbp), %rax	# sv, tmp282
	movq	%rax, %rdi	# tmp282,
	call	Perl_sv_free	#
	.loc 1 1502 0
	movq	PL_stack_base(%rip), %rax	# PL_stack_base, PL_stack_base.624
	movl	-64(%rbp), %edx	# origmark, tmp283
	movslq	%edx, %rdx	# tmp283, D.18384
	salq	$3, %rdx	#, D.18384
	leaq	(%rax,%rdx), %rbx	#, sp
	.loc 1 1503 0
	addq	$8, %rbx	#, sp
	movq	$PL_sv_yes, (%rbx)	#, *sp_215
	.loc 1 1504 0
	movq	%rbx, PL_stack_sp(%rip)	# sp, PL_stack_sp
	movq	PL_op(%rip), %rax	# PL_op, PL_op.625
	movq	(%rax), %rax	# PL_op.625_216->op_next, D.18382
	jmp	.L427	#
.L434:
	.loc 1 1507 0
	movq	-32(%rbp), %rax	# sv, tmp284
	movq	%rax, %rdi	# tmp284,
	call	Perl_sv_free	#
	.loc 1 1508 0
	movq	PL_stack_base(%rip), %rax	# PL_stack_base, PL_stack_base.626
	movl	-64(%rbp), %edx	# origmark, tmp285
	movslq	%edx, %rdx	# tmp285, D.18384
	salq	$3, %rdx	#, D.18384
	leaq	(%rax,%rdx), %rbx	#, sp
	.loc 1 1509 0
	addq	$8, %rbx	#, sp
	movq	$PL_sv_undef, (%rbx)	#, *sp_222
	.loc 1 1510 0
	movq	%rbx, PL_stack_sp(%rip)	# sp, PL_stack_sp
	movq	PL_op(%rip), %rax	# PL_op, PL_op.627
	movq	(%rax), %rax	# PL_op.627_223->op_next, D.18382
.L427:
	.loc 1 1511 0
	addq	$48, %rsp	#,
	popq	%rbx	#
	popq	%r12	#
	popq	%rbp	#
	.cfi_def_cfa 7, 8
	ret
	.cfi_endproc
.LFE27:
	.size	Perl_pp_prtf, .-Perl_pp_prtf
	.globl	Perl_pp_sysopen
	.type	Perl_pp_sysopen, @function
Perl_pp_sysopen:
.LFB28:
	.loc 1 1514 0
	.cfi_startproc
	pushq	%rbp	#
	.cfi_def_cfa_offset 16
	.cfi_offset 6, -16
	movq	%rsp, %rbp	#,
	.cfi_def_cfa_register 6
	pushq	%rbx	#
	subq	$72, %rsp	#,
	.cfi_offset 3, -24
	.loc 1 1515 0
	movq	PL_stack_sp(%rip), %rbx	# PL_stack_sp, sp
	.loc 1 1522 0
	movq	PL_op(%rip), %rax	# PL_op, PL_op.628
	movzbl	37(%rax), %eax	# PL_op.628_8->op_private, D.18402
	movzbl	%al, %eax	# D.18402, D.18403
	andl	$15, %eax	#, D.18403
	cmpl	$3, %eax	#, D.18403
	jle	.L445	#,
	.loc 1 1523 0
	movq	%rbx, %rax	# sp, sp.629
	leaq	-8(%rax), %rbx	#, sp
	movq	(%rax), %rax	# *sp.629_12, PL_Sv.630
	movq	%rax, PL_Sv(%rip)	# PL_Sv.630, PL_Sv
	movq	PL_Sv(%rip), %rax	# PL_Sv, PL_Sv.632
	movl	12(%rax), %eax	# PL_Sv.632_15->sv_flags, D.18404
	andl	$65536, %eax	#, D.18404
	testl	%eax, %eax	# D.18404
	je	.L446	#,
	.loc 1 1523 0 is_stmt 0 discriminator 1
	movq	PL_Sv(%rip), %rax	# PL_Sv, PL_Sv.633
	movq	(%rax), %rax	# PL_Sv.633_18->sv_any, D.18405
	movq	24(%rax), %rax	# MEM[(struct XPVIV *)_19].xiv_iv, D.18406
	jmp	.L447	#
.L446:
	.loc 1 1523 0 discriminator 2
	movq	PL_Sv(%rip), %rax	# PL_Sv, PL_Sv.634
	movq	%rax, %rdi	# PL_Sv.634,
	call	Perl_sv_2iv	#
.L447:
	.loc 1 1523 0 discriminator 1
	movl	%eax, -56(%rbp)	# iftmp.631, perm
	jmp	.L448	#
.L445:
	.loc 1 1525 0 is_stmt 1
	movl	$438, -56(%rbp)	#, perm
.L448:
	.loc 1 1526 0
	movq	%rbx, %rax	# sp, sp.635
	leaq	-8(%rax), %rbx	#, sp
	movq	(%rax), %rax	# *sp.635_27, PL_Sv.636
	movq	%rax, PL_Sv(%rip)	# PL_Sv.636, PL_Sv
	movq	PL_Sv(%rip), %rax	# PL_Sv, PL_Sv.638
	movl	12(%rax), %eax	# PL_Sv.638_30->sv_flags, D.18404
	andl	$65536, %eax	#, D.18404
	testl	%eax, %eax	# D.18404
	je	.L449	#,
	.loc 1 1526 0 is_stmt 0 discriminator 1
	movq	PL_Sv(%rip), %rax	# PL_Sv, PL_Sv.639
	movq	(%rax), %rax	# PL_Sv.639_33->sv_any, D.18405
	movq	24(%rax), %rax	# MEM[(struct XPVIV *)_34].xiv_iv, D.18406
	jmp	.L450	#
.L449:
	.loc 1 1526 0 discriminator 2
	movq	PL_Sv(%rip), %rax	# PL_Sv, PL_Sv.640
	movq	%rax, %rdi	# PL_Sv.640,
	call	Perl_sv_2iv	#
.L450:
	.loc 1 1526 0 discriminator 3
	movl	%eax, -52(%rbp)	# iftmp.637, mode
	.loc 1 1527 0 is_stmt 1 discriminator 3
	movq	%rbx, %rax	# sp, sp.641
	leaq	-8(%rax), %rbx	#, sp
	movq	(%rax), %rax	# *sp.641_41, tmp104
	movq	%rax, -40(%rbp)	# tmp104, sv
	.loc 1 1528 0 discriminator 3
	movq	%rbx, %rax	# sp, sp.642
	leaq	-8(%rax), %rbx	#, sp
	movq	(%rax), %rax	# *sp.642_44, tmp105
	movq	%rax, -32(%rbp)	# tmp105, gv
	.loc 1 1532 0 discriminator 3
	movq	-40(%rbp), %rax	# sv, tmp106
	movl	12(%rax), %eax	# sv_43->sv_flags, D.18404
	andl	$262144, %eax	#, D.18404
	testl	%eax, %eax	# D.18404
	je	.L451	#,
	.loc 1 1532 0 is_stmt 0 discriminator 1
	movq	-40(%rbp), %rax	# sv, tmp107
	movq	(%rax), %rax	# sv_43->sv_any, D.18405
	movq	8(%rax), %rax	# MEM[(struct XPV *)_49].xpv_cur, len.644
	movq	%rax, -48(%rbp)	# len.644, len
	movq	-40(%rbp), %rax	# sv, tmp108
	movq	(%rax), %rax	# sv_43->sv_any, D.18405
	movq	(%rax), %rax	# MEM[(struct XPV *)_51].xpv_pv, iftmp.643
	jmp	.L452	#
.L451:
	.loc 1 1532 0 discriminator 2
	leaq	-48(%rbp), %rcx	#, tmp109
	movq	-40(%rbp), %rax	# sv, tmp110
	movl	$2, %edx	#,
	movq	%rcx, %rsi	# tmp109,
	movq	%rax, %rdi	# tmp110,
	call	Perl_sv_2pv_flags	#
.L452:
	.loc 1 1532 0 discriminator 3
	movq	%rax, -24(%rbp)	# iftmp.643, tmps
	.loc 1 1533 0 is_stmt 1 discriminator 3
	movq	-48(%rbp), %rax	# len, len.645
	movl	%eax, %edx	# len.645, D.18403
	movl	-56(%rbp), %edi	# perm, tmp111
	movl	-52(%rbp), %ecx	# mode, tmp112
	movq	-24(%rbp), %rsi	# tmps, tmp113
	movq	-32(%rbp), %rax	# gv, tmp114
	movq	$0, (%rsp)	#,
	movl	%edi, %r9d	# tmp111,
	movl	%ecx, %r8d	# tmp112,
	movl	$1, %ecx	#,
	movq	%rax, %rdi	# tmp114,
	call	Perl_do_open	#
	testb	%al, %al	# D.18407
	je	.L453	#,
	.loc 1 1534 0
	movq	-32(%rbp), %rax	# gv, tmp115
	movq	(%rax), %rax	# gv_46->sv_any, D.18408
	movq	56(%rax), %rax	# _58->xgv_gp, D.18409
	movq	16(%rax), %rax	# _59->gp_io, D.18410
	movq	(%rax), %rax	# _60->sv_any, D.18411
	movq	$0, 80(%rax)	#, _61->xio_lines
	.loc 1 1535 0
	addq	$8, %rbx	#, sp
	movq	$PL_sv_yes, (%rbx)	#, *sp_62
	jmp	.L454	#
.L453:
	.loc 1 1538 0
	addq	$8, %rbx	#, sp
	movq	$PL_sv_undef, (%rbx)	#, *sp_63
.L454:
	.loc 1 1540 0
	movq	%rbx, PL_stack_sp(%rip)	# sp, PL_stack_sp
	movq	PL_op(%rip), %rax	# PL_op, PL_op.646
	movq	(%rax), %rax	# PL_op.646_64->op_next, D.18412
	.loc 1 1541 0
	addq	$72, %rsp	#,
	popq	%rbx	#
	popq	%rbp	#
	.cfi_def_cfa 7, 8
	ret
	.cfi_endproc
.LFE28:
	.size	Perl_pp_sysopen, .-Perl_pp_sysopen
	.section	.rodata
.LC45:
	.string	"READ"
.LC46:
	.string	"Negative length"
.LC47:
	.string	"recv"
.LC48:
	.string	"Offset outside string"
	.text
	.globl	Perl_pp_sysread
	.type	Perl_pp_sysread, @function
Perl_pp_sysread:
.LFB29:
	.loc 1 1544 0
	.cfi_startproc
	pushq	%rbp	#
	.cfi_def_cfa_offset 16
	.cfi_offset 6, -16
	movq	%rsp, %rbp	#,
	.cfi_def_cfa_register 6
	pushq	%r12	#
	pushq	%rbx	#
	subq	$160, %rsp	#,
	.cfi_offset 12, -24
	.cfi_offset 3, -32
	.loc 1 1545 0
	movq	PL_stack_sp(%rip), %rbx	# PL_stack_sp, sp
	movq	PL_stack_base(%rip), %rcx	# PL_stack_base, PL_stack_base.647
	movq	PL_markstack_ptr(%rip), %rax	# PL_markstack_ptr, PL_markstack_ptr.648
	leaq	-4(%rax), %rdx	#, PL_markstack_ptr.650
	movq	%rdx, PL_markstack_ptr(%rip)	# PL_markstack_ptr.650, PL_markstack_ptr
	movl	(%rax), %eax	# *PL_markstack_ptr.649_36, D.18414
	cltq
	salq	$3, %rax	#, D.18415
	leaq	(%rcx,%rax), %r12	#, mark
	movq	%r12, %rdx	# mark, mark.651
	movq	PL_stack_base(%rip), %rax	# PL_stack_base, PL_stack_base.652
	subq	%rax, %rdx	# PL_stack_base.653, D.18416
	movq	%rdx, %rax	# D.18416, D.18416
	sarq	$3, %rax	#, tmp366
	movl	%eax, -156(%rbp)	# D.18416, origmark
	movq	PL_curpad(%rip), %rdx	# PL_curpad, PL_curpad.654
	movq	PL_op(%rip), %rax	# PL_op, PL_op.655
	movq	24(%rax), %rax	# PL_op.655_49->op_targ, D.18415
	salq	$3, %rax	#, D.18415
	addq	%rdx, %rax	# PL_curpad.654, D.18417
	movq	(%rax), %rax	# *_52, tmp367
	movq	%rax, -80(%rbp)	# tmp367, targ
	.loc 1 1559 0
	movq	$0, -104(%rbp)	#, got
	.loc 1 1561 0
	movb	$0, -165(%rbp)	#, charstart
	.loc 1 1562 0
	movq	$0, -96(%rbp)	#, charskip
	.loc 1 1563 0
	movq	$0, -88(%rbp)	#, skip
	.loc 1 1565 0
	addq	$8, %r12	#, mark
	movq	(%r12), %rax	# *mark_58, tmp368
	movq	%rax, -72(%rbp)	# tmp368, gv
	.loc 1 1566 0
	movq	PL_op(%rip), %rax	# PL_op, PL_op.656
	movzwl	32(%rax), %eax	# PL_op.656_60->op_type, D.18418
	cmpw	$205, %ax	#, D.18418
	je	.L457	#,
	.loc 1 1566 0 is_stmt 0 discriminator 1
	movq	PL_op(%rip), %rax	# PL_op, PL_op.657
	movzwl	32(%rax), %eax	# PL_op.657_62->op_type, D.18418
	cmpw	$212, %ax	#, D.18418
	jne	.L458	#,
.L457:
	.loc 1 1567 0 is_stmt 1
	cmpq	$0, -72(%rbp)	#, gv
	je	.L458	#,
	.loc 1 1567 0 is_stmt 0 discriminator 1
	cmpq	$0, -72(%rbp)	#, gv
	je	.L459	#,
	movq	-72(%rbp), %rax	# gv, tmp369
	movl	12(%rax), %eax	# MEM[(struct SV *)gv_59].sv_flags, D.18419
	movzbl	%al, %eax	# D.18419, D.18419
	cmpl	$13, %eax	#, D.18419
	jne	.L459	#,
	movq	-72(%rbp), %rax	# gv, tmp370
	movq	(%rax), %rax	# gv_59->sv_any, D.18420
	movq	56(%rax), %rax	# _66->xgv_gp, D.18421
	testq	%rax, %rax	# D.18421
	je	.L459	#,
	movq	-72(%rbp), %rax	# gv, tmp371
	movq	(%rax), %rax	# gv_59->sv_any, D.18420
	movq	56(%rax), %rax	# _68->xgv_gp, D.18421
	movq	16(%rax), %rax	# _69->gp_io, iftmp.658
	jmp	.L460	#
.L459:
	.loc 1 1567 0 discriminator 2
	movl	$0, %eax	#, iftmp.658
.L460:
	.loc 1 1567 0 discriminator 3
	movq	%rax, -64(%rbp)	# iftmp.658, io
	cmpq	$0, -64(%rbp)	#, io
	je	.L458	#,
	.loc 1 1568 0 is_stmt 1
	movq	-64(%rbp), %rax	# io, tmp372
	movl	12(%rax), %eax	# MEM[(struct SV *)io_72].sv_flags, D.18419
	andl	$32768, %eax	#, D.18419
	testl	%eax, %eax	# D.18419
	je	.L461	#,
	.loc 1 1568 0 is_stmt 0 discriminator 1
	movq	-64(%rbp), %rax	# io, tmp373
	movl	$113, %esi	#,
	movq	%rax, %rdi	# tmp373,
	call	Perl_mg_find	#
	jmp	.L462	#
.L461:
	.loc 1 1568 0 discriminator 2
	movl	$0, %eax	#, iftmp.659
.L462:
	.loc 1 1568 0 discriminator 3
	movq	%rax, -56(%rbp)	# iftmp.659, mg
	cmpq	$0, -56(%rbp)	#, mg
	je	.L458	#,
.LBB75:
.LBB76:
	.loc 1 1572 0 is_stmt 1
	movq	PL_markstack_ptr(%rip), %rax	# PL_markstack_ptr, PL_markstack_ptr.660
	addq	$4, %rax	#, PL_markstack_ptr.661
	movq	%rax, PL_markstack_ptr(%rip)	# PL_markstack_ptr.661, PL_markstack_ptr
	movq	PL_markstack_ptr(%rip), %rdx	# PL_markstack_ptr, PL_markstack_ptr.662
	movq	PL_markstack_max(%rip), %rax	# PL_markstack_max, PL_markstack_max.663
	cmpq	%rax, %rdx	# PL_markstack_max.663, PL_markstack_ptr.662
	jne	.L463	#,
	.loc 1 1572 0 is_stmt 0 discriminator 1
	call	Perl_markstack_grow	#
.L463:
	.loc 1 1572 0 discriminator 2
	movq	PL_markstack_ptr(%rip), %rax	# PL_markstack_ptr, PL_markstack_ptr.664
	leaq	-8(%r12), %rdx	#, D.18417
	movq	%rdx, %rcx	# D.18417, D.18416
	movq	PL_stack_base(%rip), %rdx	# PL_stack_base, PL_stack_base.665
	subq	%rdx, %rcx	# PL_stack_base.666, D.18416
	movq	%rcx, %rdx	# D.18416, D.18416
	sarq	$3, %rdx	#, tmp374
	movl	%edx, (%rax)	# D.18414, *PL_markstack_ptr.664_82
.LBE76:
	.loc 1 1573 0 is_stmt 1 discriminator 2
	movq	-56(%rbp), %rax	# mg, tmp375
	movq	24(%rax), %rax	# mg_77->mg_obj, D.18423
	testq	%rax, %rax	# D.18423
	je	.L464	#,
	.loc 1 1573 0 is_stmt 0 discriminator 1
	movq	-56(%rbp), %rax	# mg, tmp376
	movq	24(%rax), %rax	# mg_77->mg_obj, iftmp.667
	jmp	.L465	#
.L464:
	.loc 1 1573 0 discriminator 2
	movq	-64(%rbp), %rax	# io, tmp377
	movq	%rax, %rdi	# tmp377,
	call	Perl_newRV	#
	movq	%rax, %rdi	# D.18423,
	call	Perl_sv_2mortal	#
.L465:
	.loc 1 1573 0 discriminator 3
	movq	%rax, (%r12)	# iftmp.667, *mark_58
	.loc 1 1574 0 is_stmt 1 discriminator 3
	call	Perl_push_scope	#
	.loc 1 1575 0 discriminator 3
	movl	$0, %esi	#,
	movl	$.LC45, %edi	#,
	call	Perl_call_method	#
	.loc 1 1576 0 discriminator 3
	call	Perl_pop_scope	#
	.loc 1 1577 0 discriminator 3
	movq	PL_stack_sp(%rip), %rbx	# PL_stack_sp, sp
	.loc 1 1578 0 discriminator 3
	movq	%rbx, %rax	# sp, sp.668
	leaq	-8(%rax), %rbx	#, sp
	movq	(%rax), %rax	# *sp.668_96, tmp378
	movq	%rax, -48(%rbp)	# tmp378, sv
	.loc 1 1579 0 discriminator 3
	movq	PL_stack_base(%rip), %rax	# PL_stack_base, PL_stack_base.669
	movl	-156(%rbp), %edx	# origmark, tmp379
	movslq	%edx, %rdx	# tmp379, D.18415
	salq	$3, %rdx	#, D.18415
	leaq	(%rax,%rdx), %rbx	#, sp
	.loc 1 1580 0 discriminator 3
	addq	$8, %rbx	#, sp
	movq	-48(%rbp), %rax	# sv, tmp380
	movq	%rax, (%rbx)	# tmp380, *sp_103
	.loc 1 1581 0 discriminator 3
	movq	%rbx, PL_stack_sp(%rip)	# sp, PL_stack_sp
	movq	PL_op(%rip), %rax	# PL_op, PL_op.670
	movq	(%rax), %rax	# PL_op.670_104->op_next, D.18413
	jmp	.L522	#
.L458:
.LBE75:
	.loc 1 1584 0
	cmpq	$0, -72(%rbp)	#, gv
	jne	.L467	#,
	.loc 1 1585 0
	jmp	.L468	#
.L467:
	.loc 1 1586 0
	addq	$8, %r12	#, mark
	movq	(%r12), %rax	# *mark_106, tmp381
	movq	%rax, -40(%rbp)	# tmp381, bufsv
	.loc 1 1587 0
	movq	-40(%rbp), %rax	# bufsv, tmp382
	movl	12(%rax), %eax	# bufsv_107->sv_flags, D.18419
	andl	$118423552, %eax	#, D.18419
	testl	%eax, %eax	# D.18419
	jne	.L469	#,
	.loc 1 1588 0
	movq	-40(%rbp), %rax	# bufsv, tmp383
	movl	$0, %edx	#,
	movl	$.LC5, %esi	#,
	movq	%rax, %rdi	# tmp383,
	call	Perl_sv_setpvn	#
.L469:
	.loc 1 1589 0
	addq	$8, %r12	#, mark
	movq	(%r12), %rax	# *mark_110, PL_Sv.671
	movq	%rax, PL_Sv(%rip)	# PL_Sv.671, PL_Sv
	movq	PL_Sv(%rip), %rax	# PL_Sv, PL_Sv.673
	movl	12(%rax), %eax	# PL_Sv.673_112->sv_flags, D.18419
	andl	$65536, %eax	#, D.18419
	testl	%eax, %eax	# D.18419
	je	.L470	#,
	.loc 1 1589 0 is_stmt 0 discriminator 1
	movq	PL_Sv(%rip), %rax	# PL_Sv, PL_Sv.674
	movq	(%rax), %rax	# PL_Sv.674_115->sv_any, D.18424
	movq	24(%rax), %rax	# MEM[(struct XPVIV *)_116].xiv_iv, iftmp.672
	jmp	.L471	#
.L470:
	.loc 1 1589 0 discriminator 2
	movq	PL_Sv(%rip), %rax	# PL_Sv, PL_Sv.675
	movq	%rax, %rdi	# PL_Sv.675,
	call	Perl_sv_2iv	#
.L471:
	.loc 1 1589 0 discriminator 3
	movq	%rax, -128(%rbp)	# iftmp.672, length
	.loc 1 1590 0 is_stmt 1 discriminator 3
	call	__errno_location	#
	movl	$0, (%rax)	#, *_121
	.loc 1 1591 0 discriminator 3
	cmpq	%rbx, %r12	# sp, mark
	jae	.L472	#,
	.loc 1 1592 0
	addq	$8, %r12	#, mark
	movq	(%r12), %rax	# *mark_122, PL_Sv.676
	movq	%rax, PL_Sv(%rip)	# PL_Sv.676, PL_Sv
	movq	PL_Sv(%rip), %rax	# PL_Sv, PL_Sv.678
	movl	12(%rax), %eax	# PL_Sv.678_124->sv_flags, D.18419
	andl	$65536, %eax	#, D.18419
	testl	%eax, %eax	# D.18419
	je	.L473	#,
	.loc 1 1592 0 is_stmt 0 discriminator 1
	movq	PL_Sv(%rip), %rax	# PL_Sv, PL_Sv.679
	movq	(%rax), %rax	# PL_Sv.679_127->sv_any, D.18424
	movq	24(%rax), %rax	# MEM[(struct XPVIV *)_128].xiv_iv, D.18416
	jmp	.L474	#
.L473:
	.loc 1 1592 0 discriminator 2
	movq	PL_Sv(%rip), %rax	# PL_Sv, PL_Sv.680
	movq	%rax, %rdi	# PL_Sv.680,
	call	Perl_sv_2iv	#
.L474:
	.loc 1 1592 0 discriminator 1
	movl	%eax, -164(%rbp)	# iftmp.677, offset
	jmp	.L475	#
.L472:
	.loc 1 1594 0 is_stmt 1
	movl	$0, -164(%rbp)	#, offset
.L475:
	.loc 1 1595 0
	cmpq	$0, -72(%rbp)	#, gv
	je	.L476	#,
	.loc 1 1595 0 is_stmt 0 discriminator 1
	movq	-72(%rbp), %rax	# gv, tmp384
	movl	12(%rax), %eax	# MEM[(struct SV *)gv_59].sv_flags, D.18419
	movzbl	%al, %eax	# D.18419, D.18419
	cmpl	$13, %eax	#, D.18419
	jne	.L476	#,
	movq	-72(%rbp), %rax	# gv, tmp385
	movq	(%rax), %rax	# gv_59->sv_any, D.18420
	movq	56(%rax), %rax	# _138->xgv_gp, D.18421
	testq	%rax, %rax	# D.18421
	je	.L476	#,
	movq	-72(%rbp), %rax	# gv, tmp386
	movq	(%rax), %rax	# gv_59->sv_any, D.18420
	movq	56(%rax), %rax	# _140->xgv_gp, D.18421
	movq	16(%rax), %rax	# _141->gp_io, iftmp.681
	jmp	.L477	#
.L476:
	.loc 1 1595 0 discriminator 2
	movl	$0, %eax	#, iftmp.681
.L477:
	.loc 1 1595 0 discriminator 3
	movq	%rax, -64(%rbp)	# iftmp.681, io
	.loc 1 1596 0 is_stmt 1 discriminator 3
	cmpq	$0, -64(%rbp)	#, io
	je	.L478	#,
	.loc 1 1596 0 is_stmt 0 discriminator 1
	movq	-64(%rbp), %rax	# io, tmp387
	movq	(%rax), %rax	# io_144->sv_any, D.18426
	movq	56(%rax), %rax	# _145->xio_ifp, D.18427
	testq	%rax, %rax	# D.18427
	jne	.L479	#,
.L478:
	.loc 1 1597 0 is_stmt 1
	movq	PL_curcop(%rip), %rax	# PL_curcop, PL_curcop.682
	movq	80(%rax), %rax	# PL_curcop.682_378->cop_warnings, D.18423
	testq	%rax, %rax	# D.18423
	je	.L480	#,
	.loc 1 1597 0 is_stmt 0 discriminator 1
	movq	PL_curcop(%rip), %rax	# PL_curcop, PL_curcop.683
	movq	80(%rax), %rax	# PL_curcop.683_380->cop_warnings, D.18423
	cmpq	$32, %rax	#, D.18423
	je	.L480	#,
	movq	PL_curcop(%rip), %rax	# PL_curcop, PL_curcop.684
	movq	80(%rax), %rax	# PL_curcop.684_382->cop_warnings, D.18423
	cmpq	$16, %rax	#, D.18423
	je	.L481	#,
	movq	PL_curcop(%rip), %rax	# PL_curcop, PL_curcop.685
	movq	80(%rax), %rax	# PL_curcop.685_384->cop_warnings, D.18423
	movq	(%rax), %rax	# _385->sv_any, D.18424
	movq	(%rax), %rax	# MEM[(struct XPV *)_386].xpv_pv, D.18433
	addq	$2, %rax	#, D.18433
	movzbl	(%rax), %eax	# *_388, D.18432
	movsbl	%al, %eax	# D.18432, D.18414
	andl	$64, %eax	#, D.18414
	testl	%eax, %eax	# D.18414
	jne	.L481	#,
	movq	PL_curcop(%rip), %rax	# PL_curcop, PL_curcop.686
	movq	80(%rax), %rax	# PL_curcop.686_392->cop_warnings, D.18423
	movq	(%rax), %rax	# _393->sv_any, D.18424
	movq	(%rax), %rax	# MEM[(struct XPV *)_394].xpv_pv, D.18433
	addq	$1, %rax	#, D.18433
	movzbl	(%rax), %eax	# *_396, D.18432
	movsbl	%al, %eax	# D.18432, D.18414
	andl	$16, %eax	#, D.18414
	testl	%eax, %eax	# D.18414
	jne	.L481	#,
.L480:
	.loc 1 1597 0 discriminator 2
	movq	PL_curcop(%rip), %rax	# PL_curcop, PL_curcop.687
	movq	80(%rax), %rax	# PL_curcop.687_400->cop_warnings, D.18423
	testq	%rax, %rax	# D.18423
	jne	.L482	#,
	.loc 1 1597 0 discriminator 1
	movzbl	PL_dowarn(%rip), %eax	# PL_dowarn, PL_dowarn.688
	movzbl	%al, %eax	# PL_dowarn.688, D.18414
	andl	$1, %eax	#, D.18414
	testl	%eax, %eax	# D.18414
	je	.L482	#,
.L481:
	.loc 1 1598 0 is_stmt 1
	movq	PL_op(%rip), %rax	# PL_op, PL_op.689
	movzwl	32(%rax), %eax	# PL_op.689_405->op_type, D.18418
	movzwl	%ax, %edx	# D.18418, D.18414
	movq	-64(%rbp), %rcx	# io, tmp388
	movq	-72(%rbp), %rax	# gv, tmp389
	movq	%rcx, %rsi	# tmp388,
	movq	%rax, %rdi	# tmp389,
	call	Perl_report_evil_fh	#
.L482:
	.loc 1 1599 0
	call	__errno_location	#
	movl	$9, (%rax)	#, *_408
	.loc 1 1600 0
	jmp	.L468	#
.L479:
	.loc 1 1602 0
	movq	-64(%rbp), %rax	# io, tmp390
	movq	(%rax), %rax	# io_144->sv_any, D.18426
	movq	56(%rax), %rax	# _147->xio_ifp, D.18427
	movq	%rax, %rdi	# D.18427,
	call	PerlIO_isutf8	#
	movl	%eax, -152(%rbp)	# tmp391, fp_utf8
	cmpl	$0, -152(%rbp)	#, fp_utf8
	je	.L483	#,
	.loc 1 1602 0 is_stmt 0 discriminator 1
	movq	PL_curcop(%rip), %rax	# PL_curcop, PL_curcop.690
	movzbl	37(%rax), %eax	# PL_curcop.690_150->op_private, D.18428
	movzbl	%al, %eax	# D.18428, D.18414
	andl	$8, %eax	#, D.18414
	testl	%eax, %eax	# D.18414
	jne	.L483	#,
	.loc 1 1603 0 is_stmt 1
	leaq	-144(%rbp), %rdx	#, tmp392
	movq	-40(%rbp), %rax	# bufsv, tmp393
	movq	%rdx, %rsi	# tmp392,
	movq	%rax, %rdi	# tmp393,
	call	Perl_sv_pvutf8n_force	#
	movq	%rax, -136(%rbp)	# tmp394, buffer
	.loc 1 1605 0
	movq	-40(%rbp), %rax	# bufsv, tmp395
	movl	12(%rax), %eax	# bufsv_107->sv_flags, D.18419
	orl	$536870912, %eax	#, D.18419
	movl	%eax, %edx	# D.18419, D.18419
	movq	-40(%rbp), %rax	# bufsv, tmp396
	movl	%edx, 12(%rax)	# D.18419, bufsv_107->sv_flags
	.loc 1 1606 0
	movl	$0, -160(%rbp)	#, buffer_utf8
	jmp	.L484	#
.L483:
	.loc 1 1609 0
	movq	-40(%rbp), %rax	# bufsv, tmp397
	movl	12(%rax), %eax	# bufsv_107->sv_flags, D.18419
	andl	$10223616, %eax	#, D.18419
	cmpl	$262144, %eax	#, D.18419
	jne	.L485	#,
	.loc 1 1609 0 is_stmt 0 discriminator 1
	movq	-40(%rbp), %rax	# bufsv, tmp398
	movq	(%rax), %rax	# bufsv_107->sv_any, D.18424
	movq	8(%rax), %rax	# MEM[(struct XPV *)_160].xpv_cur, blen.692
	movq	%rax, -144(%rbp)	# blen.692, blen
	movq	-40(%rbp), %rax	# bufsv, tmp399
	movq	(%rax), %rax	# bufsv_107->sv_any, D.18424
	movq	(%rax), %rax	# MEM[(struct XPV *)_162].xpv_pv, iftmp.691
	jmp	.L486	#
.L485:
	.loc 1 1609 0 discriminator 2
	leaq	-144(%rbp), %rcx	#, tmp400
	movq	-40(%rbp), %rax	# bufsv, tmp401
	movl	$2, %edx	#,
	movq	%rcx, %rsi	# tmp400,
	movq	%rax, %rdi	# tmp401,
	call	Perl_sv_pvn_force_flags	#
.L486:
	.loc 1 1609 0 discriminator 3
	movq	%rax, -136(%rbp)	# iftmp.691, buffer
	.loc 1 1610 0 is_stmt 1 discriminator 3
	movq	PL_curcop(%rip), %rax	# PL_curcop, PL_curcop.694
	movzbl	37(%rax), %eax	# PL_curcop.694_166->op_private, D.18428
	movzbl	%al, %eax	# D.18428, D.18414
	andl	$8, %eax	#, D.18414
	testl	%eax, %eax	# D.18414
	jne	.L487	#,
	.loc 1 1610 0 is_stmt 0 discriminator 1
	movq	-40(%rbp), %rax	# bufsv, tmp402
	movl	12(%rax), %eax	# bufsv_107->sv_flags, D.18419
	andl	$536870912, %eax	#, D.18419
	testl	%eax, %eax	# D.18419
	je	.L487	#,
	.loc 1 1610 0 discriminator 3
	movl	$1, %eax	#, iftmp.693
	jmp	.L488	#
.L487:
	.loc 1 1610 0 discriminator 2
	movl	$0, %eax	#, iftmp.693
.L488:
	.loc 1 1610 0 discriminator 4
	movl	%eax, -160(%rbp)	# iftmp.693, buffer_utf8
.L484:
	.loc 1 1612 0 is_stmt 1
	cmpq	$0, -128(%rbp)	#, length
	jns	.L489	#,
	.loc 1 1613 0
	movl	$.LC46, %edi	#,
	movl	$0, %eax	#,
	call	Perl_die	#
	jmp	.L522	#
.L489:
	.loc 1 1614 0
	movq	-128(%rbp), %rax	# length, tmp403
	movq	%rax, -32(%rbp)	# tmp403, wanted
	.loc 1 1616 0
	movb	$1, -165(%rbp)	#, charstart
	.loc 1 1617 0
	movq	$0, -96(%rbp)	#, charskip
	.loc 1 1618 0
	movq	$0, -88(%rbp)	#, skip
	.loc 1 1657 0
	movq	PL_op(%rip), %rax	# PL_op, PL_op.695
	movzwl	32(%rax), %eax	# PL_op.695_180->op_type, D.18418
	cmpw	$215, %ax	#, D.18418
	jne	.L490	#,
	.loc 1 1658 0
	movl	$.LC47, %esi	#,
	movl	$PL_no_sock_func, %edi	#,
	movl	$0, %eax	#,
	call	Perl_die	#
	jmp	.L522	#
.L490:
	.loc 1 1660 0
	movq	-40(%rbp), %rax	# bufsv, tmp404
	movl	12(%rax), %eax	# bufsv_107->sv_flags, D.18419
	andl	$536870912, %eax	#, D.18419
	testl	%eax, %eax	# D.18419
	je	.L491	#,
	.loc 1 1660 0 is_stmt 0 discriminator 1
	movq	PL_curcop(%rip), %rax	# PL_curcop, PL_curcop.696
	movzbl	37(%rax), %eax	# PL_curcop.696_185->op_private, D.18428
	movzbl	%al, %eax	# D.18428, D.18414
	andl	$8, %eax	#, D.18414
	testl	%eax, %eax	# D.18414
	jne	.L491	#,
	.loc 1 1662 0 is_stmt 1
	movq	-40(%rbp), %rax	# bufsv, tmp405
	movq	%rax, %rdi	# tmp405,
	call	Perl_sv_len_utf8	#
	movq	%rax, -144(%rbp)	# blen.697, blen
.L491:
	.loc 1 1664 0
	cmpl	$0, -164(%rbp)	#, offset
	jns	.L492	#,
	.loc 1 1665 0
	movl	-164(%rbp), %eax	# offset, tmp406
	negl	%eax	# D.18414
	movl	%eax, %edx	# D.18414, D.18414
	movq	-144(%rbp), %rax	# blen, blen.698
	cmpl	%eax, %edx	# D.18414, D.18414
	jle	.L493	#,
	.loc 1 1666 0
	movl	$.LC48, %edi	#,
	movl	$0, %eax	#,
	call	Perl_die	#
	jmp	.L522	#
.L493:
	.loc 1 1667 0
	movq	-144(%rbp), %rax	# blen, blen.699
	movl	%eax, %edx	# blen.699, D.18429
	movl	-164(%rbp), %eax	# offset, offset.700
	addl	%edx, %eax	# D.18429, D.18429
	movl	%eax, -164(%rbp)	# D.18429, offset
.L492:
	.loc 1 1669 0
	movq	-40(%rbp), %rax	# bufsv, tmp407
	movl	12(%rax), %eax	# bufsv_107->sv_flags, D.18419
	andl	$536870912, %eax	#, D.18419
	testl	%eax, %eax	# D.18419
	je	.L494	#,
	.loc 1 1669 0 is_stmt 0 discriminator 1
	movq	PL_curcop(%rip), %rax	# PL_curcop, PL_curcop.701
	movzbl	37(%rax), %eax	# PL_curcop.701_201->op_private, D.18428
	movzbl	%al, %eax	# D.18428, D.18414
	andl	$8, %eax	#, D.18414
	testl	%eax, %eax	# D.18414
	jne	.L494	#,
	.loc 1 1671 0 is_stmt 1
	movq	-144(%rbp), %rax	# blen, blen.702
	cmpl	-164(%rbp), %eax	# offset, D.18414
	jg	.L495	#,
	.loc 1 1672 0
	movq	-40(%rbp), %rax	# bufsv, tmp408
	movq	(%rax), %rax	# bufsv_107->sv_any, D.18424
	movq	8(%rax), %rax	# MEM[(struct XPV *)_207].xpv_cur, D.18415
	movl	%eax, %edx	# D.18415, D.18429
	movq	-144(%rbp), %rax	# blen, blen.703
	subl	%eax, %edx	# D.18429, D.18429
	movl	-164(%rbp), %eax	# offset, offset.704
	addl	%edx, %eax	# D.18429, D.18429
	movl	%eax, -164(%rbp)	# D.18429, offset
	jmp	.L494	#
.L495:
	.loc 1 1674 0
	movl	-164(%rbp), %edx	# offset, tmp409
	movq	-136(%rbp), %rax	# buffer, tmp410
	movl	%edx, %esi	# tmp409,
	movq	%rax, %rdi	# tmp410,
	call	Perl_utf8_hop	#
	movq	%rax, %rdx	# D.18430, D.18416
	movq	-136(%rbp), %rax	# buffer, buffer.705
	subq	%rax, %rdx	# buffer.705, D.18416
	movq	%rdx, %rax	# D.18416, D.18416
	movl	%eax, -164(%rbp)	# D.18416, offset
.L494:
	.loc 1 1677 0
	movq	-40(%rbp), %rax	# bufsv, tmp411
	movq	(%rax), %rax	# bufsv_107->sv_any, D.18424
	movq	8(%rax), %rax	# MEM[(struct XPV *)_221].xpv_cur, D.18415
	movl	%eax, -148(%rbp)	# D.18415, bufsize
	.loc 1 1683 0
	movq	-40(%rbp), %rax	# bufsv, tmp412
	movq	(%rax), %rax	# bufsv_107->sv_any, D.18424
	movq	16(%rax), %rdx	# MEM[(struct XPV *)_224].xpv_len, D.18415
	movl	-164(%rbp), %eax	# offset, tmp413
	movslq	%eax, %rcx	# tmp413, D.18416
	movq	-128(%rbp), %rax	# length, tmp414
	addq	%rcx, %rax	# D.18416, D.18416
	addq	$1, %rax	#, D.18416
	cmpq	%rax, %rdx	# D.18415, D.18415
	jae	.L496	#,
	.loc 1 1683 0 is_stmt 0 discriminator 1
	movl	-164(%rbp), %eax	# offset, tmp415
	movslq	%eax, %rdx	# tmp415, D.18416
	movq	-128(%rbp), %rax	# length, tmp416
	addq	%rdx, %rax	# D.18416, D.18416
	addq	$1, %rax	#, D.18416
	movq	%rax, %rdx	# D.18416, D.18415
	movq	-40(%rbp), %rax	# bufsv, tmp417
	movq	%rdx, %rsi	# D.18415,
	movq	%rax, %rdi	# tmp417,
	call	Perl_sv_grow	#
	jmp	.L497	#
.L496:
	.loc 1 1683 0 discriminator 2
	movq	-40(%rbp), %rax	# bufsv, tmp418
	movq	(%rax), %rax	# bufsv_107->sv_any, D.18424
	movq	(%rax), %rax	# MEM[(struct XPV *)_235].xpv_pv, iftmp.706
.L497:
	.loc 1 1683 0 discriminator 3
	movq	%rax, -136(%rbp)	# iftmp.706, buffer
	.loc 1 1684 0 is_stmt 1 discriminator 3
	movl	-164(%rbp), %eax	# offset, offset.707
	cmpl	-148(%rbp), %eax	# bufsize, offset.707
	jbe	.L498	#,
	.loc 1 1685 0
	movl	-164(%rbp), %eax	# offset, offset.708
	subl	-148(%rbp), %eax	# bufsize, D.18419
	movl	%eax, %eax	# D.18419, D.18415
	movl	-148(%rbp), %ecx	# bufsize, D.18431
	movq	-136(%rbp), %rdx	# buffer, tmp419
	addq	%rdx, %rcx	# tmp419, D.18424
	movq	%rax, %rdx	# D.18415,
	movl	$0, %esi	#,
	movq	%rcx, %rdi	# D.18424,
	call	memset	#
.L498:
	.loc 1 1687 0
	movl	-164(%rbp), %eax	# offset, tmp420
	cltq
	addq	%rax, -136(%rbp)	# D.18431, buffer
	.loc 1 1688 0
	cmpl	$0, -160(%rbp)	#, buffer_utf8
	jne	.L499	#,
	.loc 1 1689 0
	movq	-40(%rbp), %rax	# bufsv, tmp421
	movq	%rax, -112(%rbp)	# tmp421, read_target
	jmp	.L500	#
.L499:
	.loc 1 1696 0
	movq	-40(%rbp), %rax	# bufsv, tmp422
	movq	(%rax), %rax	# bufsv_107->sv_any, D.18424
	movl	-164(%rbp), %edx	# offset, tmp423
	movslq	%edx, %rdx	# tmp423, D.18415
	movq	%rdx, 8(%rax)	# D.18415, MEM[(struct XPV *)_247].xpv_cur
	.loc 1 1698 0
	call	Perl_sv_newmortal	#
	movq	%rax, -112(%rbp)	# tmp424, read_target
	.loc 1 1699 0
	movq	-112(%rbp), %rax	# read_target, tmp425
	movl	12(%rax), %eax	# read_target_249->sv_flags, D.18419
	movzbl	%al, %eax	# D.18419, D.18419
	cmpl	$3, %eax	#, D.18419
	ja	.L501	#,
	.loc 1 1699 0 is_stmt 0 discriminator 2
	movq	-112(%rbp), %rax	# read_target, tmp426
	movl	$4, %esi	#,
	movq	%rax, %rdi	# tmp426,
	call	Perl_sv_upgrade	#
	testb	%al, %al	# D.18432
	je	.L503	#,
.L501:
	.loc 1 1699 0 discriminator 1
	nop
.L503:
	.loc 1 1700 0 is_stmt 1
	movq	-112(%rbp), %rax	# read_target, tmp427
	movq	(%rax), %rax	# read_target_249->sv_any, D.18424
	movq	16(%rax), %rdx	# MEM[(struct XPV *)_255].xpv_len, D.18415
	movq	-128(%rbp), %rax	# length, tmp428
	addq	$1, %rax	#, D.18416
	cmpq	%rax, %rdx	# D.18415, D.18415
	jae	.L504	#,
	.loc 1 1700 0 is_stmt 0 discriminator 1
	movq	-128(%rbp), %rax	# length, tmp429
	addq	$1, %rax	#, D.18416
	movq	%rax, %rdx	# D.18416, D.18415
	movq	-112(%rbp), %rax	# read_target, tmp430
	movq	%rdx, %rsi	# D.18415,
	movq	%rax, %rdi	# tmp430,
	call	Perl_sv_grow	#
	jmp	.L505	#
.L504:
	.loc 1 1700 0 discriminator 2
	movq	-112(%rbp), %rax	# read_target, tmp431
	movq	(%rax), %rax	# read_target_249->sv_any, D.18424
	movq	(%rax), %rax	# MEM[(struct XPV *)_262].xpv_pv, iftmp.710
.L505:
	.loc 1 1700 0 discriminator 3
	movq	%rax, -136(%rbp)	# iftmp.710, buffer
.L500:
	.loc 1 1703 0 is_stmt 1
	movq	PL_op(%rip), %rax	# PL_op, PL_op.711
	movzwl	32(%rax), %eax	# PL_op.711_265->op_type, D.18418
	cmpw	$212, %ax	#, D.18418
	jne	.L506	#,
	.loc 1 1712 0
	movq	-128(%rbp), %rbx	# length, length.712
	movq	-64(%rbp), %rax	# io, tmp432
	movq	(%rax), %rax	# io_144->sv_any, D.18426
	movq	56(%rax), %rax	# _268->xio_ifp, D.18427
	movq	%rax, %rdi	# D.18427,
	call	Perl_PerlIO_fileno	#
	movq	-136(%rbp), %rcx	# buffer, tmp433
	movq	%rbx, %rdx	# length.712,
	movq	%rcx, %rsi	# tmp433,
	movl	%eax, %edi	# D.18414,
	call	read	#
	movq	%rax, -120(%rbp)	# tmp434, count
	jmp	.L507	#
.L506:
	.loc 1 1731 0
	movq	-128(%rbp), %rdx	# length, length.713
	movq	-64(%rbp), %rax	# io, tmp435
	movq	(%rax), %rax	# io_144->sv_any, D.18426
	movq	56(%rax), %rax	# _273->xio_ifp, D.18427
	movq	-136(%rbp), %rcx	# buffer, tmp436
	movq	%rcx, %rsi	# tmp436,
	movq	%rax, %rdi	# D.18427,
	call	Perl_PerlIO_read	#
	movq	%rax, -120(%rbp)	# tmp437, count
	.loc 1 1733 0
	cmpq	$0, -120(%rbp)	#, count
	jne	.L507	#,
	.loc 1 1733 0 is_stmt 0 discriminator 1
	movq	-64(%rbp), %rax	# io, tmp438
	movq	(%rax), %rax	# io_144->sv_any, D.18426
	movq	56(%rax), %rax	# _276->xio_ifp, D.18427
	movq	%rax, %rdi	# D.18427,
	call	Perl_PerlIO_error	#
	testl	%eax, %eax	# D.18414
	je	.L507	#,
	.loc 1 1734 0 is_stmt 1
	movq	$-1, -120(%rbp)	#, count
.L507:
	.loc 1 1736 0
	cmpq	$0, -120(%rbp)	#, count
	jns	.L508	#,
	.loc 1 1737 0
	movq	-64(%rbp), %rax	# io, tmp439
	movq	(%rax), %rax	# io_144->sv_any, D.18426
	movzbl	162(%rax), %eax	# _280->xio_type, D.18432
	cmpb	$62, %al	#, D.18432
	jne	.L509	#,
	.loc 1 1737 0 is_stmt 0 discriminator 1
	movq	PL_curcop(%rip), %rax	# PL_curcop, PL_curcop.714
	movq	80(%rax), %rax	# PL_curcop.714_282->cop_warnings, D.18423
	testq	%rax, %rax	# D.18423
	je	.L510	#,
	movq	PL_curcop(%rip), %rax	# PL_curcop, PL_curcop.715
	movq	80(%rax), %rax	# PL_curcop.715_284->cop_warnings, D.18423
	cmpq	$32, %rax	#, D.18423
	je	.L510	#,
	movq	PL_curcop(%rip), %rax	# PL_curcop, PL_curcop.716
	movq	80(%rax), %rax	# PL_curcop.716_286->cop_warnings, D.18423
	cmpq	$16, %rax	#, D.18423
	je	.L511	#,
	movq	PL_curcop(%rip), %rax	# PL_curcop, PL_curcop.717
	movq	80(%rax), %rax	# PL_curcop.717_288->cop_warnings, D.18423
	movq	(%rax), %rax	# _289->sv_any, D.18424
	movq	(%rax), %rax	# MEM[(struct XPV *)_290].xpv_pv, D.18433
	addq	$1, %rax	#, D.18433
	movzbl	(%rax), %eax	# *_292, D.18432
	movsbl	%al, %eax	# D.18432, D.18414
	andl	$4, %eax	#, D.18414
	testl	%eax, %eax	# D.18414
	jne	.L511	#,
.L510:
	.loc 1 1737 0 discriminator 2
	movq	PL_curcop(%rip), %rax	# PL_curcop, PL_curcop.718
	movq	80(%rax), %rax	# PL_curcop.718_296->cop_warnings, D.18423
	testq	%rax, %rax	# D.18423
	jne	.L509	#,
	.loc 1 1737 0 discriminator 1
	movzbl	PL_dowarn(%rip), %eax	# PL_dowarn, PL_dowarn.719
	movzbl	%al, %eax	# PL_dowarn.719, D.18414
	andl	$1, %eax	#, D.18414
	testl	%eax, %eax	# D.18414
	je	.L509	#,
.L511:
	.loc 1 1738 0 is_stmt 1
	movq	-64(%rbp), %rcx	# io, tmp440
	movq	-72(%rbp), %rax	# gv, tmp441
	movl	$-2, %edx	#,
	movq	%rcx, %rsi	# tmp440,
	movq	%rax, %rdi	# tmp441,
	call	Perl_report_evil_fh	#
	.loc 1 1739 0
	jmp	.L468	#
.L509:
	jmp	.L468	#
.L508:
	.loc 1 1741 0
	movq	-112(%rbp), %rax	# read_target, tmp442
	movq	(%rax), %rax	# read_target_11->sv_any, D.18424
	movq	-136(%rbp), %rcx	# buffer, buffer.720
	movq	-112(%rbp), %rdx	# read_target, tmp443
	movq	(%rdx), %rdx	# read_target_11->sv_any, D.18424
	movq	(%rdx), %rdx	# MEM[(struct XPV *)_303].xpv_pv, D.18433
	subq	%rdx, %rcx	# D.18416, D.18416
	movq	-120(%rbp), %rdx	# count, tmp444
	addq	%rcx, %rdx	# D.18416, D.18416
	movq	%rdx, 8(%rax)	# D.18415, MEM[(struct XPV *)_301].xpv_cur
	.loc 1 1742 0
	movq	-112(%rbp), %rax	# read_target, tmp445
	movq	(%rax), %rax	# read_target_11->sv_any, D.18424
	movq	(%rax), %rdx	# MEM[(struct XPV *)_309].xpv_pv, D.18433
	movq	-112(%rbp), %rax	# read_target, tmp446
	movq	(%rax), %rax	# read_target_11->sv_any, D.18424
	movq	8(%rax), %rax	# MEM[(struct XPV *)_311].xpv_cur, D.18415
	addq	%rdx, %rax	# D.18433, D.18433
	movb	$0, (%rax)	#, *_313
	.loc 1 1743 0
	movq	-112(%rbp), %rax	# read_target, tmp447
	movl	12(%rax), %eax	# read_target_11->sv_flags, D.18419
	andl	$1223753727, %eax	#, D.18419
	movl	%eax, %edx	# D.18419, D.18419
	movq	-112(%rbp), %rax	# read_target, tmp448
	movl	%edx, 12(%rax)	# D.18419, read_target_11->sv_flags
	movq	-112(%rbp), %rax	# read_target, tmp449
	movl	12(%rax), %eax	# read_target_11->sv_flags, D.18419
	orl	$67371008, %eax	#, D.18419
	movl	%eax, %edx	# D.18419, D.18419
	movq	-112(%rbp), %rax	# read_target, tmp450
	movl	%edx, 12(%rax)	# D.18419, read_target_11->sv_flags
	.loc 1 1744 0
	cmpl	$0, -152(%rbp)	#, fp_utf8
	je	.L512	#,
	.loc 1 1744 0 is_stmt 0 discriminator 1
	movq	PL_curcop(%rip), %rax	# PL_curcop, PL_curcop.721
	movzbl	37(%rax), %eax	# PL_curcop.721_318->op_private, D.18428
	movzbl	%al, %eax	# D.18428, D.18414
	andl	$8, %eax	#, D.18414
	testl	%eax, %eax	# D.18414
	jne	.L512	#,
.LBB77:
	.loc 1 1746 0 is_stmt 1
	movq	-120(%rbp), %rdx	# count, count.722
	movq	-136(%rbp), %rax	# buffer, tmp454
	addq	%rdx, %rax	# count.722, tmp453
	movq	%rax, -24(%rbp)	# tmp453, bend
	.loc 1 1747 0
	jmp	.L513	#
.L516:
	.loc 1 1748 0
	cmpb	$0, -165(%rbp)	#, charstart
	je	.L514	#,
	.loc 1 1749 0
	movq	-136(%rbp), %rax	# buffer, tmp455
	movzbl	(%rax), %eax	# MEM[(U8 *)buffer_6], D.18428
	movzbl	%al, %eax	# D.18428, D.18414
	cltq
	movzbl	PL_utf8skip(%rax), %eax	# PL_utf8skip, D.18428
	movzbl	%al, %eax	# D.18428, tmp457
	movq	%rax, -88(%rbp)	# tmp457, skip
	.loc 1 1750 0
	movq	$0, -96(%rbp)	#, charskip
.L514:
	.loc 1 1752 0
	movq	-96(%rbp), %rax	# charskip, tmp458
	movq	-88(%rbp), %rdx	# skip, tmp459
	subq	%rax, %rdx	# tmp458, D.18431
	movq	-136(%rbp), %rax	# buffer, tmp460
	addq	%rdx, %rax	# D.18431, D.18433
	cmpq	-24(%rbp), %rax	# bend, D.18433
	jbe	.L515	#,
	.loc 1 1754 0
	movq	-136(%rbp), %rdx	# buffer, buffer.723
	movq	-24(%rbp), %rax	# bend, bend.724
	subq	%rax, %rdx	# bend.724, D.18416
	movq	%rdx, %rax	# D.18416, D.18416
	movq	%rax, %rdx	# D.18416, D.18415
	movq	-88(%rbp), %rax	# skip, tmp461
	addq	%rdx, %rax	# D.18415, D.18415
	movq	%rax, -128(%rbp)	# D.18415, length
	.loc 1 1755 0
	movq	-24(%rbp), %rdx	# bend, bend.725
	movq	-40(%rbp), %rax	# bufsv, tmp462
	movq	(%rax), %rax	# bufsv_107->sv_any, D.18424
	movq	(%rax), %rax	# MEM[(struct XPV *)_338].xpv_pv, D.18433
	subq	%rax, %rdx	# D.18416, D.18416
	movq	%rdx, %rax	# D.18416, D.18416
	movl	%eax, -164(%rbp)	# D.18416, offset
	.loc 1 1756 0
	movb	$0, -165(%rbp)	#, charstart
	.loc 1 1757 0
	movq	-120(%rbp), %rax	# count, count.726
	addq	%rax, -96(%rbp)	# count.726, charskip
	.loc 1 1758 0
	jmp	.L494	#
.L515:
	.loc 1 1761 0
	addq	$1, -104(%rbp)	#, got
	.loc 1 1762 0
	movq	-88(%rbp), %rax	# skip, tmp463
	addq	%rax, -136(%rbp)	# tmp463, buffer
	.loc 1 1763 0
	movb	$1, -165(%rbp)	#, charstart
	.loc 1 1764 0
	movq	$0, -96(%rbp)	#, charskip
.L513:
	.loc 1 1747 0 discriminator 1
	movq	-136(%rbp), %rax	# buffer, tmp464
	cmpq	-24(%rbp), %rax	# bend, tmp464
	jb	.L516	#,
	.loc 1 1770 0
	movq	-104(%rbp), %rax	# got, tmp465
	cmpq	-32(%rbp), %rax	# wanted, tmp465
	jae	.L517	#,
	.loc 1 1770 0 is_stmt 0 discriminator 1
	movq	-120(%rbp), %rax	# count, tmp466
	cmpq	-128(%rbp), %rax	# length, tmp466
	jne	.L517	#,
	.loc 1 1771 0 is_stmt 1
	movq	-104(%rbp), %rax	# got, tmp467
	movq	-32(%rbp), %rdx	# wanted, tmp468
	subq	%rax, %rdx	# tmp467, D.18415
	movq	%rdx, %rax	# D.18415, D.18415
	movq	%rax, -128(%rbp)	# D.18415, length
	.loc 1 1772 0
	movq	-24(%rbp), %rdx	# bend, bend.727
	movq	-40(%rbp), %rax	# bufsv, tmp469
	movq	(%rax), %rax	# bufsv_107->sv_any, D.18424
	movq	(%rax), %rax	# MEM[(struct XPV *)_353].xpv_pv, D.18433
	subq	%rax, %rdx	# D.18416, D.18416
	movq	%rdx, %rax	# D.18416, D.18416
	movl	%eax, -164(%rbp)	# D.18416, offset
	.loc 1 1773 0
	jmp	.L494	#
.L517:
	.loc 1 1776 0
	movq	-104(%rbp), %rax	# got, tmp470
	movq	%rax, -120(%rbp)	# tmp470, count
	.loc 1 1777 0
	movq	-40(%rbp), %rax	# bufsv, tmp471
	movl	12(%rax), %eax	# bufsv_107->sv_flags, D.18419
	orl	$536870912, %eax	#, D.18419
	movl	%eax, %edx	# D.18419, D.18419
	movq	-40(%rbp), %rax	# bufsv, tmp472
	movl	%edx, 12(%rax)	# D.18419, bufsv_107->sv_flags
.LBE77:
	.loc 1 1744 0
	jmp	.L518	#
.L512:
	.loc 1 1779 0
	cmpl	$0, -160(%rbp)	#, buffer_utf8
	je	.L518	#,
	.loc 1 1782 0
	movq	-112(%rbp), %rcx	# read_target, tmp473
	movq	-40(%rbp), %rax	# bufsv, tmp474
	movl	$0, %edx	#,
	movq	%rcx, %rsi	# tmp473,
	movq	%rax, %rdi	# tmp474,
	call	Perl_sv_catsv_flags	#
.L518:
	.loc 1 1784 0
	movq	-40(%rbp), %rax	# bufsv, tmp475
	movl	12(%rax), %eax	# bufsv_107->sv_flags, D.18419
	andl	$16384, %eax	#, D.18419
	testl	%eax, %eax	# D.18419
	je	.L519	#,
	.loc 1 1784 0 is_stmt 0 discriminator 1
	movq	-40(%rbp), %rax	# bufsv, tmp476
	movq	%rax, %rdi	# tmp476,
	call	Perl_mg_set	#
.L519:
	.loc 1 1786 0 is_stmt 1
	movq	-64(%rbp), %rax	# io, tmp477
	movq	(%rax), %rax	# io_144->sv_any, D.18426
	movzbl	163(%rax), %eax	# _363->xio_flags, D.18432
	movsbl	%al, %eax	# D.18432, D.18414
	andl	$16, %eax	#, D.18414
	testl	%eax, %eax	# D.18414
	jne	.L520	#,
	.loc 1 1787 0
	movzbl	PL_tainting(%rip), %eax	# PL_tainting, PL_tainting.728
	testb	%al, %al	# PL_tainting.728
	je	.L520	#,
	.loc 1 1787 0 is_stmt 0 discriminator 1
	movq	-40(%rbp), %rax	# bufsv, tmp478
	movq	%rax, %rdi	# tmp478,
	call	Perl_sv_taint	#
.L520:
	.loc 1 1788 0 is_stmt 1
	movq	PL_stack_base(%rip), %rax	# PL_stack_base, PL_stack_base.729
	movl	-156(%rbp), %edx	# origmark, tmp479
	movslq	%edx, %rdx	# tmp479, D.18415
	salq	$3, %rdx	#, D.18415
	leaq	(%rax,%rdx), %rbx	#, sp
.LBB78:
	.loc 1 1789 0
	movq	-120(%rbp), %rdx	# count, tmp480
	movq	-80(%rbp), %rax	# targ, tmp481
	movq	%rdx, %rsi	# tmp480,
	movq	%rax, %rdi	# tmp481,
	call	Perl_sv_setiv	#
.LBB79:
	movq	-80(%rbp), %rax	# targ, tmp482
	movl	12(%rax), %eax	# targ_53->sv_flags, D.18419
	andl	$16384, %eax	#, D.18419
	testl	%eax, %eax	# D.18419
	je	.L521	#,
	.loc 1 1789 0 is_stmt 0 discriminator 1
	movq	-80(%rbp), %rax	# targ, tmp483
	movq	%rax, %rdi	# tmp483,
	call	Perl_mg_set	#
.L521:
	.loc 1 1789 0 discriminator 2
	addq	$8, %rbx	#, sp
	movq	-80(%rbp), %rax	# targ, tmp484
	movq	%rax, (%rbx)	# tmp484, *sp_374
.LBE79:
.LBE78:
	.loc 1 1790 0 is_stmt 1 discriminator 2
	movq	%rbx, PL_stack_sp(%rip)	# sp, PL_stack_sp
	movq	PL_op(%rip), %rax	# PL_op, PL_op.730
	movq	(%rax), %rax	# PL_op.730_376->op_next, D.18413
	jmp	.L522	#
.L468:
	.loc 1 1793 0
	movq	PL_stack_base(%rip), %rax	# PL_stack_base, PL_stack_base.731
	movl	-156(%rbp), %edx	# origmark, tmp485
	movslq	%edx, %rdx	# tmp485, D.18415
	salq	$3, %rdx	#, D.18415
	leaq	(%rax,%rdx), %rbx	#, sp
	.loc 1 1794 0
	addq	$8, %rbx	#, sp
	movq	$PL_sv_undef, (%rbx)	#, *sp_413
	movq	%rbx, PL_stack_sp(%rip)	# sp, PL_stack_sp
	movq	PL_op(%rip), %rax	# PL_op, PL_op.732
	movq	(%rax), %rax	# PL_op.732_414->op_next, D.18413
.L522:
	.loc 1 1795 0
	addq	$160, %rsp	#,
	popq	%rbx	#
	popq	%r12	#
	popq	%rbp	#
	.cfi_def_cfa 7, 8
	ret
	.cfi_endproc
.LFE29:
	.size	Perl_pp_sysread, .-Perl_pp_sysread
	.globl	Perl_pp_syswrite
	.type	Perl_pp_syswrite, @function
Perl_pp_syswrite:
.LFB30:
	.loc 1 1798 0
	.cfi_startproc
	pushq	%rbp	#
	.cfi_def_cfa_offset 16
	.cfi_offset 6, -16
	movq	%rsp, %rbp	#,
	.cfi_def_cfa_register 6
	pushq	%rbx	#
	subq	$24, %rsp	#,
	.cfi_offset 3, -24
	.loc 1 1799 0
	movq	PL_stack_sp(%rip), %rbx	# PL_stack_sp, sp
	.loc 1 1800 0
	movq	%rbx, %rdx	# sp, sp.733
	movq	PL_stack_base(%rip), %rax	# PL_stack_base, PL_stack_base.734
	subq	%rax, %rdx	# PL_stack_base.735, D.18438
	movq	%rdx, %rax	# D.18438, D.18438
	sarq	$3, %rax	#, tmp80
	movl	%eax, %edx	# D.18438, D.18439
	movq	PL_markstack_ptr(%rip), %rax	# PL_markstack_ptr, PL_markstack_ptr.736
	movl	(%rax), %eax	# *PL_markstack_ptr.736_9, D.18440
	subl	%eax, %edx	# D.18439, D.18439
	movl	%edx, %eax	# D.18439, D.18439
	movl	%eax, -28(%rbp)	# D.18439, items
	.loc 1 1801 0
	cmpl	$2, -28(%rbp)	#, items
	jne	.L524	#,
.LBB80:
	.loc 1 1803 0
	movq	PL_stack_max(%rip), %rax	# PL_stack_max, PL_stack_max.737
	movq	%rax, %rdx	# PL_stack_max.737, PL_stack_max.738
	movq	%rbx, %rax	# sp, sp.739
	subq	%rax, %rdx	# sp.739, D.18438
	movq	%rdx, %rax	# D.18438, D.18438
	cmpq	$7, %rax	#, D.18438
	jg	.L525	#,
	.loc 1 1803 0 is_stmt 0 discriminator 1
	movl	$1, %edx	#,
	movq	%rbx, %rsi	# sp,
	movq	%rbx, %rdi	# sp,
	call	Perl_stack_grow	#
	movq	%rax, %rbx	#, sp
.L525:
	.loc 1 1804 0 is_stmt 1
	movq	(%rbx), %rax	# *sp_1, D.18441
	movq	%rax, %rdi	# D.18441,
	call	Perl_sv_len	#
	movq	%rax, %rdi	# D.18438,
	call	Perl_newSViv	#
	movq	%rax, %rdi	# D.18441,
	call	Perl_sv_2mortal	#
	movq	%rax, -24(%rbp)	# tmp81, sv
	.loc 1 1805 0
	addq	$8, %rbx	#, sp
	movq	-24(%rbp), %rax	# sv, tmp82
	movq	%rax, (%rbx)	# tmp82, *sp_24
	.loc 1 1806 0
	movq	%rbx, PL_stack_sp(%rip)	# sp, PL_stack_sp
.L524:
.LBE80:
	.loc 1 1808 0
	call	Perl_pp_send	#
	.loc 1 1809 0
	addq	$24, %rsp	#,
	popq	%rbx	#
	popq	%rbp	#
	.cfi_def_cfa 7, 8
	ret
	.cfi_endproc
.LFE30:
	.size	Perl_pp_syswrite, .-Perl_pp_syswrite
	.section	.rodata
.LC49:
	.string	"WRITE"
.LC50:
	.string	"send"
	.text
	.globl	Perl_pp_send
	.type	Perl_pp_send, @function
Perl_pp_send:
.LFB31:
	.loc 1 1812 0
	.cfi_startproc
	pushq	%rbp	#
	.cfi_def_cfa_offset 16
	.cfi_offset 6, -16
	movq	%rsp, %rbp	#,
	.cfi_def_cfa_register 6
	pushq	%r12	#
	pushq	%rbx	#
	subq	$96, %rsp	#,
	.cfi_offset 12, -24
	.cfi_offset 3, -32
	.loc 1 1813 0
	movq	PL_stack_sp(%rip), %rbx	# PL_stack_sp, sp
	movq	PL_stack_base(%rip), %rcx	# PL_stack_base, PL_stack_base.740
	movq	PL_markstack_ptr(%rip), %rax	# PL_markstack_ptr, PL_markstack_ptr.741
	leaq	-4(%rax), %rdx	#, PL_markstack_ptr.743
	movq	%rdx, PL_markstack_ptr(%rip)	# PL_markstack_ptr.743, PL_markstack_ptr
	movl	(%rax), %eax	# *PL_markstack_ptr.742_23, D.18445
	cltq
	salq	$3, %rax	#, D.18446
	leaq	(%rcx,%rax), %r12	#, mark
	movq	%r12, %rdx	# mark, mark.744
	movq	PL_stack_base(%rip), %rax	# PL_stack_base, PL_stack_base.745
	subq	%rax, %rdx	# PL_stack_base.746, D.18447
	movq	%rdx, %rax	# D.18447, D.18447
	sarq	$3, %rax	#, tmp249
	movl	%eax, -108(%rbp)	# D.18447, origmark
	movq	PL_curpad(%rip), %rdx	# PL_curpad, PL_curpad.747
	movq	PL_op(%rip), %rax	# PL_op, PL_op.748
	movq	24(%rax), %rax	# PL_op.748_36->op_targ, D.18446
	salq	$3, %rax	#, D.18446
	addq	%rdx, %rax	# PL_curpad.747, D.18448
	movq	(%rax), %rax	# *_39, tmp250
	movq	%rax, -56(%rbp)	# tmp250, targ
	.loc 1 1823 0
	addq	$8, %r12	#, mark
	movq	(%r12), %rax	# *mark_41, tmp251
	movq	%rax, -48(%rbp)	# tmp251, gv
	.loc 1 1824 0
	movq	PL_op(%rip), %rax	# PL_op, PL_op.749
	movzwl	32(%rax), %eax	# PL_op.749_43->op_type, D.18449
	cmpw	$213, %ax	#, D.18449
	jne	.L528	#,
	.loc 1 1825 0
	cmpq	$0, -48(%rbp)	#, gv
	je	.L528	#,
	.loc 1 1825 0 is_stmt 0 discriminator 1
	cmpq	$0, -48(%rbp)	#, gv
	je	.L529	#,
	movq	-48(%rbp), %rax	# gv, tmp252
	movl	12(%rax), %eax	# MEM[(struct SV *)gv_42].sv_flags, D.18450
	movzbl	%al, %eax	# D.18450, D.18450
	cmpl	$13, %eax	#, D.18450
	jne	.L529	#,
	movq	-48(%rbp), %rax	# gv, tmp253
	movq	(%rax), %rax	# gv_42->sv_any, D.18451
	movq	56(%rax), %rax	# _47->xgv_gp, D.18452
	testq	%rax, %rax	# D.18452
	je	.L529	#,
	movq	-48(%rbp), %rax	# gv, tmp254
	movq	(%rax), %rax	# gv_42->sv_any, D.18451
	movq	56(%rax), %rax	# _49->xgv_gp, D.18452
	movq	16(%rax), %rax	# _50->gp_io, iftmp.750
	jmp	.L530	#
.L529:
	.loc 1 1825 0 discriminator 2
	movl	$0, %eax	#, iftmp.750
.L530:
	.loc 1 1825 0 discriminator 3
	movq	%rax, -40(%rbp)	# iftmp.750, io
	cmpq	$0, -40(%rbp)	#, io
	je	.L528	#,
	.loc 1 1826 0 is_stmt 1
	movq	-40(%rbp), %rax	# io, tmp255
	movl	12(%rax), %eax	# MEM[(struct SV *)io_53].sv_flags, D.18450
	andl	$32768, %eax	#, D.18450
	testl	%eax, %eax	# D.18450
	je	.L531	#,
	.loc 1 1826 0 is_stmt 0 discriminator 1
	movq	-40(%rbp), %rax	# io, tmp256
	movl	$113, %esi	#,
	movq	%rax, %rdi	# tmp256,
	call	Perl_mg_find	#
	jmp	.L532	#
.L531:
	.loc 1 1826 0 discriminator 2
	movl	$0, %eax	#, iftmp.751
.L532:
	.loc 1 1826 0 discriminator 3
	movq	%rax, -32(%rbp)	# iftmp.751, mg
	cmpq	$0, -32(%rbp)	#, mg
	je	.L528	#,
.LBB81:
.LBB82:
	.loc 1 1830 0 is_stmt 1
	movq	PL_markstack_ptr(%rip), %rax	# PL_markstack_ptr, PL_markstack_ptr.752
	addq	$4, %rax	#, PL_markstack_ptr.753
	movq	%rax, PL_markstack_ptr(%rip)	# PL_markstack_ptr.753, PL_markstack_ptr
	movq	PL_markstack_ptr(%rip), %rdx	# PL_markstack_ptr, PL_markstack_ptr.754
	movq	PL_markstack_max(%rip), %rax	# PL_markstack_max, PL_markstack_max.755
	cmpq	%rax, %rdx	# PL_markstack_max.755, PL_markstack_ptr.754
	jne	.L533	#,
	.loc 1 1830 0 is_stmt 0 discriminator 1
	call	Perl_markstack_grow	#
.L533:
	.loc 1 1830 0 discriminator 2
	movq	PL_markstack_ptr(%rip), %rax	# PL_markstack_ptr, PL_markstack_ptr.756
	leaq	-8(%r12), %rdx	#, D.18448
	movq	%rdx, %rcx	# D.18448, D.18447
	movq	PL_stack_base(%rip), %rdx	# PL_stack_base, PL_stack_base.757
	subq	%rdx, %rcx	# PL_stack_base.758, D.18447
	movq	%rcx, %rdx	# D.18447, D.18447
	sarq	$3, %rdx	#, tmp257
	movl	%edx, (%rax)	# D.18445, *PL_markstack_ptr.756_63
.LBE82:
	.loc 1 1831 0 is_stmt 1 discriminator 2
	movq	-32(%rbp), %rax	# mg, tmp258
	movq	24(%rax), %rax	# mg_58->mg_obj, D.18454
	testq	%rax, %rax	# D.18454
	je	.L534	#,
	.loc 1 1831 0 is_stmt 0 discriminator 1
	movq	-32(%rbp), %rax	# mg, tmp259
	movq	24(%rax), %rax	# mg_58->mg_obj, iftmp.759
	jmp	.L535	#
.L534:
	.loc 1 1831 0 discriminator 2
	movq	-40(%rbp), %rax	# io, tmp260
	movq	%rax, %rdi	# tmp260,
	call	Perl_newRV	#
	movq	%rax, %rdi	# D.18454,
	call	Perl_sv_2mortal	#
.L535:
	.loc 1 1831 0 discriminator 3
	movq	%rax, (%r12)	# iftmp.759, *mark_41
	.loc 1 1832 0 is_stmt 1 discriminator 3
	call	Perl_push_scope	#
	.loc 1 1833 0 discriminator 3
	movl	$0, %esi	#,
	movl	$.LC49, %edi	#,
	call	Perl_call_method	#
	.loc 1 1834 0 discriminator 3
	call	Perl_pop_scope	#
	.loc 1 1835 0 discriminator 3
	movq	PL_stack_sp(%rip), %rbx	# PL_stack_sp, sp
	.loc 1 1836 0 discriminator 3
	movq	%rbx, %rax	# sp, sp.760
	leaq	-8(%rax), %rbx	#, sp
	movq	(%rax), %rax	# *sp.760_77, tmp261
	movq	%rax, -24(%rbp)	# tmp261, sv
	.loc 1 1837 0 discriminator 3
	movq	PL_stack_base(%rip), %rax	# PL_stack_base, PL_stack_base.761
	movl	-108(%rbp), %edx	# origmark, tmp262
	movslq	%edx, %rdx	# tmp262, D.18446
	salq	$3, %rdx	#, D.18446
	leaq	(%rax,%rdx), %rbx	#, sp
	.loc 1 1838 0 discriminator 3
	addq	$8, %rbx	#, sp
	movq	-24(%rbp), %rax	# sv, tmp263
	movq	%rax, (%rbx)	# tmp263, *sp_84
	.loc 1 1839 0 discriminator 3
	movq	%rbx, PL_stack_sp(%rip)	# sp, PL_stack_sp
	movq	PL_op(%rip), %rax	# PL_op, PL_op.762
	movq	(%rax), %rax	# PL_op.762_85->op_next, D.18444
	jmp	.L573	#
.L528:
.LBE81:
	.loc 1 1841 0
	cmpq	$0, -48(%rbp)	#, gv
	jne	.L537	#,
	.loc 1 1842 0
	jmp	.L538	#
.L537:
	.loc 1 1843 0
	addq	$8, %r12	#, mark
	movq	(%r12), %rax	# *mark_87, tmp264
	movq	%rax, -96(%rbp)	# tmp264, bufsv
	.loc 1 1847 0
	addq	$8, %r12	#, mark
	movq	(%r12), %rax	# *mark_89, PL_Sv.763
	movq	%rax, PL_Sv(%rip)	# PL_Sv.763, PL_Sv
	movq	PL_Sv(%rip), %rax	# PL_Sv, PL_Sv.765
	movl	12(%rax), %eax	# PL_Sv.765_91->sv_flags, D.18450
	andl	$65536, %eax	#, D.18450
	testl	%eax, %eax	# D.18450
	je	.L539	#,
	.loc 1 1847 0 is_stmt 0 discriminator 1
	movq	PL_Sv(%rip), %rax	# PL_Sv, PL_Sv.766
	movq	(%rax), %rax	# PL_Sv.766_94->sv_any, D.18455
	movq	24(%rax), %rax	# MEM[(struct XPVIV *)_95].xiv_iv, D.18447
	jmp	.L540	#
.L539:
	.loc 1 1847 0 discriminator 2
	movq	PL_Sv(%rip), %rax	# PL_Sv, PL_Sv.767
	movq	%rax, %rdi	# PL_Sv.767,
	call	Perl_sv_2iv	#
.L540:
	.loc 1 1847 0 discriminator 3
	movq	%rax, -80(%rbp)	# iftmp.764, length
	.loc 1 1849 0 is_stmt 1 discriminator 3
	movq	-80(%rbp), %rax	# length, length.768
	testq	%rax, %rax	# length.768
	jns	.L541	#,
	.loc 1 1850 0
	movl	$.LC46, %edi	#,
	movl	$0, %eax	#,
	call	Perl_die	#
	jmp	.L573	#
.L541:
	.loc 1 1851 0
	call	__errno_location	#
	movl	$0, (%rax)	#, *_104
	.loc 1 1852 0
	cmpq	$0, -48(%rbp)	#, gv
	je	.L542	#,
	.loc 1 1852 0 is_stmt 0 discriminator 1
	movq	-48(%rbp), %rax	# gv, tmp265
	movl	12(%rax), %eax	# MEM[(struct SV *)gv_42].sv_flags, D.18450
	movzbl	%al, %eax	# D.18450, D.18450
	cmpl	$13, %eax	#, D.18450
	jne	.L542	#,
	movq	-48(%rbp), %rax	# gv, tmp266
	movq	(%rax), %rax	# gv_42->sv_any, D.18451
	movq	56(%rax), %rax	# _107->xgv_gp, D.18452
	testq	%rax, %rax	# D.18452
	je	.L542	#,
	movq	-48(%rbp), %rax	# gv, tmp267
	movq	(%rax), %rax	# gv_42->sv_any, D.18451
	movq	56(%rax), %rax	# _109->xgv_gp, D.18452
	movq	16(%rax), %rax	# _110->gp_io, iftmp.769
	jmp	.L543	#
.L542:
	.loc 1 1852 0 discriminator 2
	movl	$0, %eax	#, iftmp.769
.L543:
	.loc 1 1852 0 discriminator 3
	movq	%rax, -40(%rbp)	# iftmp.769, io
	.loc 1 1853 0 is_stmt 1 discriminator 3
	cmpq	$0, -40(%rbp)	#, io
	je	.L544	#,
	.loc 1 1853 0 is_stmt 0 discriminator 1
	movq	-40(%rbp), %rax	# io, tmp268
	movq	(%rax), %rax	# io_113->sv_any, D.18457
	movq	56(%rax), %rax	# _114->xio_ifp, D.18458
	testq	%rax, %rax	# D.18458
	jne	.L545	#,
.L544:
	.loc 1 1854 0 is_stmt 1
	movq	$-1, -72(%rbp)	#, retval
	.loc 1 1855 0
	movq	PL_curcop(%rip), %rax	# PL_curcop, PL_curcop.770
	movq	80(%rax), %rax	# PL_curcop.770_229->cop_warnings, D.18454
	testq	%rax, %rax	# D.18454
	je	.L546	#,
	.loc 1 1855 0 is_stmt 0 discriminator 1
