	.file	"Storable.c"
# GNU C (Ubuntu/Linaro 4.8.1-10ubuntu9) version 4.8.1 (x86_64-linux-gnu)
#	compiled by GNU C version 4.8.1, GMP version 5.1.2, MPFR version 3.1.1-p2, MPC version 1.0.1
# GGC heuristics: --param ggc-min-expand=100 --param ggc-min-heapsize=131072
# options passed:  -imultiarch x86_64-linux-gnu -D SPEC_CPU -D NDEBUG
# -D PERL_CORE -D SPEC_CPU_LP64 -D SPEC_CPU_LINUX_X64 Storable.c
# -mtune=generic -march=x86-64 -g -fverbose-asm -fno-strict-aliasing
# -fstack-protector -Wformat -Wformat-security
# options enabled:  -faggressive-loop-optimizations
# -fasynchronous-unwind-tables -fauto-inc-dec -fbranch-count-reg -fcommon
# -fdelete-null-pointer-checks -fdwarf2-cfi-asm -fearly-inlining
# -feliminate-unused-debug-types -ffunction-cse -fgcse-lm -fgnu-runtime
# -fident -finline-atomics -fira-hoist-pressure -fira-share-save-slots
# -fira-share-spill-slots -fivopts -fkeep-static-consts
# -fleading-underscore -fmath-errno -fmerge-debug-strings
# -fmove-loop-invariants -fpeephole -fprefetch-loop-arrays
# -freg-struct-return -fsched-critical-path-heuristic
# -fsched-dep-count-heuristic -fsched-group-heuristic -fsched-interblock
# -fsched-last-insn-heuristic -fsched-rank-heuristic -fsched-spec
# -fsched-spec-insn-heuristic -fsched-stalled-insns-dep -fshow-column
# -fsigned-zeros -fsplit-ivs-in-unroller -fstack-protector
# -fstrict-volatile-bitfields -fsync-libcalls -ftrapping-math
# -ftree-coalesce-vars -ftree-cselim -ftree-forwprop -ftree-loop-if-convert
# -ftree-loop-im -ftree-loop-ivcanon -ftree-loop-optimize
# -ftree-parallelize-loops= -ftree-phiprop -ftree-pta -ftree-reassoc
# -ftree-scev-cprop -ftree-slp-vectorize -ftree-vect-loop-version
# -funit-at-a-time -funwind-tables -fverbose-asm -fzero-initialized-in-bss
# -m128bit-long-double -m64 -m80387 -maccumulate-outgoing-args
# -malign-stringops -mfancy-math-387 -mfp-ret-in-387 -mfxsr -mglibc
# -mieee-fp -mlong-double-80 -mmmx -mno-sse4 -mpush-args -mred-zone -msse
# -msse2 -mtls-direct-seg-refs

	.text
.Ltext0:
	.local	local_patches
	.comm	local_patches,16,16
	.local	Context_ptr
	.comm	Context_ptr,8,8
	.section	.rodata
	.type	old_magicstr, @object
	.size	old_magicstr, 11
old_magicstr:
	.string	"perl-store"
	.type	magicstr, @object
	.size	magicstr, 5
magicstr:
	.string	"pst0"
	.type	byteorderstr, @object
	.size	byteorderstr, 9
byteorderstr:
	.byte	49
	.byte	50
	.byte	51
	.byte	52
	.byte	53
	.byte	54
	.byte	55
	.byte	56
	.byte	0
	.data
	.align 32
	.type	sv_store, @object
	.size	sv_store, 64
sv_store:
	.quad	store_ref
	.quad	store_scalar
	.quad	store_array
	.quad	store_hash
	.quad	store_tied
	.quad	store_tied_item
	.quad	store_code
	.quad	store_other
	.align 32
	.type	sv_old_retrieve, @object
	.size	sv_old_retrieve, 224
sv_old_retrieve:
	.quad	0
	.quad	retrieve_lscalar
	.quad	old_retrieve_array
	.quad	old_retrieve_hash
	.quad	retrieve_ref
	.quad	retrieve_undef
	.quad	retrieve_integer
	.quad	retrieve_double
	.quad	retrieve_byte
	.quad	retrieve_netint
	.quad	retrieve_scalar
	.quad	retrieve_tied_array
	.quad	retrieve_tied_hash
	.quad	retrieve_tied_scalar
	.quad	retrieve_other
	.quad	retrieve_other
	.quad	retrieve_other
	.quad	retrieve_other
	.quad	retrieve_other
	.quad	retrieve_other
	.quad	retrieve_other
	.quad	retrieve_other
	.quad	retrieve_other
	.quad	retrieve_other
	.quad	retrieve_other
	.quad	retrieve_other
	.quad	retrieve_other
	.quad	retrieve_other
	.align 32
	.type	sv_retrieve, @object
	.size	sv_retrieve, 224
sv_retrieve:
	.quad	0
	.quad	retrieve_lscalar
	.quad	retrieve_array
	.quad	retrieve_hash
	.quad	retrieve_ref
	.quad	retrieve_undef
	.quad	retrieve_integer
	.quad	retrieve_double
	.quad	retrieve_byte
	.quad	retrieve_netint
	.quad	retrieve_scalar
	.quad	retrieve_tied_array
	.quad	retrieve_tied_hash
	.quad	retrieve_tied_scalar
	.quad	retrieve_sv_undef
	.quad	retrieve_sv_yes
	.quad	retrieve_sv_no
	.quad	retrieve_blessed
	.quad	retrieve_idx_blessed
	.quad	retrieve_hook
	.quad	retrieve_overloaded
	.quad	retrieve_tied_key
	.quad	retrieve_tied_idx
	.quad	retrieve_utf8str
	.quad	retrieve_lutf8str
	.quad	retrieve_flag_hash
	.quad	retrieve_code
	.quad	retrieve_other
	.section	.rodata
.LC0:
	.string	"Storable::Cxt"
	.text
	.type	init_perinterp, @function
init_perinterp:
.LFB2:
	.file 1 "Storable.c"
	.loc 1 1165 0
	.cfi_startproc
	pushq	%rbp	#
	.cfi_def_cfa_offset 16
	.cfi_offset 6, -16
	movq	%rsp, %rbp	#,
	.cfi_def_cfa_register 6
	subq	$32, %rsp	#,
	.loc 1 1166 0
	movq	Context_ptr(%rip), %rax	# Context_ptr, tmp62
	movq	%rax, -24(%rbp)	# tmp62, cxt
.LBB2:
	movl	$255, %edi	#,
	call	Perl_newSV	#
	movq	%rax, -16(%rbp)	# tmp63, self
	movq	-16(%rbp), %rax	# self, tmp64
	movq	%rax, %rdi	# tmp64,
	call	Perl_newRV_noinc	#
	movq	%rax, -8(%rbp)	# tmp65, my_sv
	movl	$1, %esi	#,
	movl	$.LC0, %edi	#,
	call	Perl_gv_stashpv	#
	movq	%rax, %rdx	#, D.21937
	movq	-8(%rbp), %rax	# my_sv, tmp66
	movq	%rdx, %rsi	# D.21937,
	movq	%rax, %rdi	# tmp66,
	call	Perl_sv_bless	#
	movq	-16(%rbp), %rax	# self, tmp67
	movq	(%rax), %rax	# self_2->sv_any, D.21938
	movq	(%rax), %rax	# MEM[(struct XPV *)_5].xpv_pv, tmp68
	movq	%rax, -24(%rbp)	# tmp68, cxt
	movq	-24(%rbp), %rax	# cxt, tmp69
	movl	$256, %edx	#,
	movl	$0, %esi	#,
	movq	%rax, %rdi	# tmp69,
	call	memset	#
	movq	-24(%rbp), %rax	# cxt, tmp70
	movq	-8(%rbp), %rdx	# my_sv, tmp71
	movq	%rdx, 248(%rax)	# tmp71, cxt_6->my_sv
.LBE2:
	movq	-24(%rbp), %rax	# cxt, tmp73
	movq	%rax, Context_ptr(%rip)	# tmp73, Context_ptr
	.loc 1 1168 0
	movq	-24(%rbp), %rax	# cxt, tmp74
	movl	$0, 80(%rax)	#, cxt_6->netorder
	.loc 1 1169 0
	movq	-24(%rbp), %rax	# cxt, tmp75
	movl	$-1, 88(%rax)	#, cxt_6->forgive_me
	.loc 1 1170 0
	leave
	.cfi_def_cfa 7, 8
	ret
	.cfi_endproc
.LFE2:
	.size	init_perinterp, .-init_perinterp
	.type	reset_context, @function
reset_context:
.LFB3:
	.loc 1 1179 0
	.cfi_startproc
	pushq	%rbp	#
	.cfi_def_cfa_offset 16
	.cfi_offset 6, -16
	movq	%rsp, %rbp	#,
	.cfi_def_cfa_register 6
	movq	%rdi, -8(%rbp)	# cxt, cxt
	.loc 1 1180 0
	movq	-8(%rbp), %rax	# cxt, tmp61
	movl	$0, (%rax)	#, cxt_1(D)->entry
	.loc 1 1181 0
	movq	-8(%rbp), %rax	# cxt, tmp62
	movl	$0, 112(%rax)	#, cxt_1(D)->s_dirty
	.loc 1 1182 0
	movq	-8(%rbp), %rax	# cxt, tmp63
	movl	4(%rax), %eax	# cxt_1(D)->optype, D.21941
	andl	$-4, %eax	#, D.21941
	movl	%eax, %edx	# D.21941, D.21941
	movq	-8(%rbp), %rax	# cxt, tmp64
	movl	%edx, 4(%rax)	# D.21941, cxt_1(D)->optype
	.loc 1 1183 0
	popq	%rbp	#
	.cfi_def_cfa 7, 8
	ret
	.cfi_endproc
.LFE3:
	.size	reset_context, .-reset_context
	.type	init_store_context, @function
init_store_context:
.LFB4:
	.loc 1 1196 0
	.cfi_startproc
	pushq	%rbp	#
	.cfi_def_cfa_offset 16
	.cfi_offset 6, -16
	movq	%rsp, %rbp	#,
	.cfi_def_cfa_register 6
	subq	$32, %rsp	#,
	movq	%rdi, -8(%rbp)	# cxt, cxt
	movq	%rsi, -16(%rbp)	# f, f
	movl	%edx, -20(%rbp)	# optype, optype
	movl	%ecx, -24(%rbp)	# network_order, network_order
	.loc 1 1199 0
	movq	-8(%rbp), %rax	# cxt, tmp71
	movl	-24(%rbp), %edx	# network_order, tmp72
	movl	%edx, 80(%rax)	# tmp72, cxt_1(D)->netorder
	.loc 1 1200 0
	movq	-8(%rbp), %rax	# cxt, tmp73
	movl	$-1, 88(%rax)	#, cxt_1(D)->forgive_me
	.loc 1 1201 0
	movq	-8(%rbp), %rax	# cxt, tmp74
	movl	$-1, 92(%rax)	#, cxt_1(D)->deparse
	.loc 1 1202 0
	movq	-8(%rbp), %rax	# cxt, tmp75
	movq	$0, 96(%rax)	#, cxt_1(D)->eval
	.loc 1 1203 0
	movq	-8(%rbp), %rax	# cxt, tmp76
	movl	$-1, 104(%rax)	#, cxt_1(D)->canonical
	.loc 1 1204 0
	movq	-8(%rbp), %rax	# cxt, tmp77
	movq	$-1, 64(%rax)	#, cxt_1(D)->tagnum
	.loc 1 1205 0
	movq	-8(%rbp), %rax	# cxt, tmp78
	movq	$-1, 72(%rax)	#, cxt_1(D)->classnum
	.loc 1 1206 0
	movq	-8(%rbp), %rax	# cxt, tmp79
	movq	-16(%rbp), %rdx	# f, tmp80
	movq	%rdx, 216(%rax)	# tmp80, cxt_1(D)->fio
	.loc 1 1207 0
	movq	-8(%rbp), %rax	# cxt, tmp81
	movl	-20(%rbp), %edx	# optype, tmp82
	movl	%edx, 4(%rax)	# tmp82, cxt_1(D)->optype
	.loc 1 1208 0
	movq	-8(%rbp), %rax	# cxt, tmp83
	movl	$1, (%rax)	#, cxt_1(D)->entry
	.loc 1 1222 0
	call	Perl_newHV	#
	movq	-8(%rbp), %rdx	# cxt, tmp84
	movq	%rax, 8(%rdx)	# D.21942, cxt_1(D)->hseen
	.loc 1 1223 0
	movq	-8(%rbp), %rax	# cxt, tmp85
	movq	8(%rax), %rax	# cxt_1(D)->hseen, D.21942
	movq	-8(%rbp), %rdx	# cxt, tmp86
	movq	8(%rdx), %rdx	# cxt_1(D)->hseen, D.21942
	movl	12(%rdx), %edx	# _7->sv_flags, D.21943
	andl	$-536870913, %edx	#, D.21943
	movl	%edx, 12(%rax)	# D.21943, _6->sv_flags
	.loc 1 1243 0
	movq	-8(%rbp), %rax	# cxt, tmp87
	movq	8(%rax), %rax	# cxt_1(D)->hseen, D.21942
	movq	(%rax), %rax	# _10->sv_any, D.21944
	movq	$4095, 16(%rax)	#, _11->xhv_max
	.loc 1 1254 0
	call	Perl_newHV	#
	movq	-8(%rbp), %rdx	# cxt, tmp88
	movq	%rax, 40(%rdx)	# D.21942, cxt_1(D)->hclass
	.loc 1 1257 0
	movq	-8(%rbp), %rax	# cxt, tmp89
	movq	40(%rax), %rax	# cxt_1(D)->hclass, D.21942
	movq	(%rax), %rax	# _13->sv_any, D.21944
	movq	$4095, 16(%rax)	#, _14->xhv_max
	.loc 1 1269 0
	call	Perl_newHV	#
	movq	-8(%rbp), %rdx	# cxt, tmp90
	movq	%rax, 56(%rdx)	# D.21942, cxt_1(D)->hook
	.loc 1 1278 0
	call	Perl_newAV	#
	movq	-8(%rbp), %rdx	# cxt, tmp91
	movq	%rax, 16(%rdx)	# D.21945, cxt_1(D)->hook_seen
	.loc 1 1279 0
	leave
	.cfi_def_cfa 7, 8
	ret
	.cfi_endproc
.LFE4:
	.size	init_store_context, .-init_store_context
	.type	clean_store_context, @function
clean_store_context:
.LFB5:
	.loc 1 1287 0
	.cfi_startproc
	pushq	%rbp	#
	.cfi_def_cfa_offset 16
	.cfi_offset 6, -16
	movq	%rsp, %rbp	#,
	.cfi_def_cfa_register 6
	subq	$64, %rsp	#,
	movq	%rdi, -56(%rbp)	# cxt, cxt
	.loc 1 1298 0
	movq	-56(%rbp), %rax	# cxt, tmp71
	movq	8(%rax), %rax	# cxt_1(D)->hseen, D.21946
	testq	%rax, %rax	# D.21946
	je	.L5	#,
	.loc 1 1299 0
	movq	-56(%rbp), %rax	# cxt, tmp72
	movq	8(%rax), %rax	# cxt_1(D)->hseen, D.21946
	movq	%rax, %rdi	# D.21946,
	call	Perl_hv_iterinit	#
	.loc 1 1300 0
	jmp	.L6	#
.L7:
	.loc 1 1301 0
	movq	-40(%rbp), %rax	# he, tmp73
	movq	$PL_sv_undef, 16(%rax)	#, he_5->hent_val
.L6:
	.loc 1 1300 0 discriminator 1
	movq	-56(%rbp), %rax	# cxt, tmp74
	movq	8(%rax), %rax	# cxt_1(D)->hseen, D.21946
	movq	%rax, %rdi	# D.21946,
	call	Perl_hv_iternext	#
	movq	%rax, -40(%rbp)	# tmp75, he
	cmpq	$0, -40(%rbp)	#, he
	jne	.L7	#,
.L5:
	.loc 1 1304 0
	movq	-56(%rbp), %rax	# cxt, tmp76
	movq	40(%rax), %rax	# cxt_1(D)->hclass, D.21946
	testq	%rax, %rax	# D.21946
	je	.L8	#,
	.loc 1 1305 0
	movq	-56(%rbp), %rax	# cxt, tmp77
	movq	40(%rax), %rax	# cxt_1(D)->hclass, D.21946
	movq	%rax, %rdi	# D.21946,
	call	Perl_hv_iterinit	#
	.loc 1 1306 0
	jmp	.L9	#
.L10:
	.loc 1 1307 0
	movq	-40(%rbp), %rax	# he, tmp78
	movq	$PL_sv_undef, 16(%rax)	#, he_9->hent_val
.L9:
	.loc 1 1306 0 discriminator 1
	movq	-56(%rbp), %rax	# cxt, tmp79
	movq	40(%rax), %rax	# cxt_1(D)->hclass, D.21946
	movq	%rax, %rdi	# D.21946,
	call	Perl_hv_iternext	#
	movq	%rax, -40(%rbp)	# tmp80, he
	cmpq	$0, -40(%rbp)	#, he
	jne	.L10	#,
.L8:
	.loc 1 1320 0
	movq	-56(%rbp), %rax	# cxt, tmp81
	movq	8(%rax), %rax	# cxt_1(D)->hseen, D.21946
	testq	%rax, %rax	# D.21946
	je	.L11	#,
.LBB3:
	.loc 1 1321 0
	movq	-56(%rbp), %rax	# cxt, tmp82
	movq	8(%rax), %rax	# cxt_1(D)->hseen, tmp83
	movq	%rax, -32(%rbp)	# tmp83, hseen
	.loc 1 1322 0
	movq	-56(%rbp), %rax	# cxt, tmp84
	movq	$0, 8(%rax)	#, cxt_1(D)->hseen
	.loc 1 1323 0
	movq	-32(%rbp), %rax	# hseen, tmp85
	movq	%rax, %rdi	# tmp85,
	call	Perl_hv_undef	#
	.loc 1 1324 0
	movq	-32(%rbp), %rax	# hseen, tmp86
	movq	%rax, %rdi	# tmp86,
	call	Perl_sv_free	#
.L11:
.LBE3:
	.loc 1 1327 0
	movq	-56(%rbp), %rax	# cxt, tmp87
	movq	40(%rax), %rax	# cxt_1(D)->hclass, D.21946
	testq	%rax, %rax	# D.21946
	je	.L12	#,
.LBB4:
	.loc 1 1328 0
	movq	-56(%rbp), %rax	# cxt, tmp88
	movq	40(%rax), %rax	# cxt_1(D)->hclass, tmp89
	movq	%rax, -24(%rbp)	# tmp89, hclass
	.loc 1 1329 0
	movq	-56(%rbp), %rax	# cxt, tmp90
	movq	$0, 40(%rax)	#, cxt_1(D)->hclass
	.loc 1 1330 0
	movq	-24(%rbp), %rax	# hclass, tmp91
	movq	%rax, %rdi	# tmp91,
	call	Perl_hv_undef	#
	.loc 1 1331 0
	movq	-24(%rbp), %rax	# hclass, tmp92
	movq	%rax, %rdi	# tmp92,
	call	Perl_sv_free	#
.L12:
.LBE4:
	.loc 1 1334 0
	movq	-56(%rbp), %rax	# cxt, tmp93
	movq	56(%rax), %rax	# cxt_1(D)->hook, D.21946
	testq	%rax, %rax	# D.21946
	je	.L13	#,
.LBB5:
	.loc 1 1335 0
	movq	-56(%rbp), %rax	# cxt, tmp94
	movq	56(%rax), %rax	# cxt_1(D)->hook, tmp95
	movq	%rax, -16(%rbp)	# tmp95, hook
	.loc 1 1336 0
	movq	-56(%rbp), %rax	# cxt, tmp96
	movq	$0, 56(%rax)	#, cxt_1(D)->hook
	.loc 1 1337 0
	movq	-16(%rbp), %rax	# hook, tmp97
	movq	%rax, %rdi	# tmp97,
	call	Perl_hv_undef	#
	.loc 1 1338 0
	movq	-16(%rbp), %rax	# hook, tmp98
	movq	%rax, %rdi	# tmp98,
	call	Perl_sv_free	#
.L13:
.LBE5:
	.loc 1 1341 0
	movq	-56(%rbp), %rax	# cxt, tmp99
	movq	16(%rax), %rax	# cxt_1(D)->hook_seen, D.21947
	testq	%rax, %rax	# D.21947
	je	.L14	#,
.LBB6:
	.loc 1 1342 0
	movq	-56(%rbp), %rax	# cxt, tmp100
	movq	16(%rax), %rax	# cxt_1(D)->hook_seen, tmp101
	movq	%rax, -8(%rbp)	# tmp101, hook_seen
	.loc 1 1343 0
	movq	-56(%rbp), %rax	# cxt, tmp102
	movq	$0, 16(%rax)	#, cxt_1(D)->hook_seen
	.loc 1 1344 0
	movq	-8(%rbp), %rax	# hook_seen, tmp103
	movq	%rax, %rdi	# tmp103,
	call	Perl_av_undef	#
	.loc 1 1345 0
	movq	-8(%rbp), %rax	# hook_seen, tmp104
	movq	%rax, %rdi	# tmp104,
	call	Perl_sv_free	#
.L14:
.LBE6:
	.loc 1 1348 0
	movq	-56(%rbp), %rax	# cxt, tmp105
	movl	$-1, 88(%rax)	#, cxt_1(D)->forgive_me
	.loc 1 1349 0
	movq	-56(%rbp), %rax	# cxt, tmp106
	movl	$-1, 92(%rax)	#, cxt_1(D)->deparse
	.loc 1 1350 0
	movq	-56(%rbp), %rax	# cxt, tmp107
	movq	96(%rax), %rax	# cxt_1(D)->eval, D.21948
	testq	%rax, %rax	# D.21948
	je	.L15	#,
	.loc 1 1351 0
	movq	-56(%rbp), %rax	# cxt, tmp108
	movq	96(%rax), %rax	# cxt_1(D)->eval, D.21948
	movq	%rax, %rdi	# D.21948,
	call	Perl_sv_free	#
.L15:
	.loc 1 1353 0
	movq	-56(%rbp), %rax	# cxt, tmp109
	movq	$0, 96(%rax)	#, cxt_1(D)->eval
	.loc 1 1354 0
	movq	-56(%rbp), %rax	# cxt, tmp110
	movl	$-1, 104(%rax)	#, cxt_1(D)->canonical
	.loc 1 1356 0
	movq	-56(%rbp), %rax	# cxt, tmp111
	movq	%rax, %rdi	# tmp111,
	call	reset_context	#
	.loc 1 1357 0
	leave
	.cfi_def_cfa 7, 8
	ret
	.cfi_endproc
.LFE5:
	.size	clean_store_context, .-clean_store_context
	.type	init_retrieve_context, @function
init_retrieve_context:
.LFB6:
	.loc 1 1365 0
	.cfi_startproc
	pushq	%rbp	#
	.cfi_def_cfa_offset 16
	.cfi_offset 6, -16
	movq	%rsp, %rbp	#,
	.cfi_def_cfa_register 6
	subq	$16, %rsp	#,
	movq	%rdi, -8(%rbp)	# cxt, cxt
	movl	%esi, -12(%rbp)	# optype, optype
	movl	%edx, -16(%rbp)	# is_tainted, is_tainted
	.loc 1 1377 0
	call	Perl_newHV	#
	movq	-8(%rbp), %rdx	# cxt, tmp64
	movq	%rax, 56(%rdx)	# D.21949, cxt_3(D)->hook
	.loc 1 1386 0
	movq	-8(%rbp), %rax	# cxt, tmp65
	movq	232(%rax), %rax	# cxt_3(D)->retrieve_vtbl, D.21950
	.loc 1 1387 0
	cmpq	$sv_old_retrieve, %rax	#, D.21950
	jne	.L17	#,
	.loc 1 1387 0 is_stmt 0 discriminator 1
	call	Perl_newHV	#
	jmp	.L18	#
.L17:
	.loc 1 1387 0 discriminator 2
	movl	$0, %eax	#, iftmp.0
.L18:
	.loc 1 1386 0 is_stmt 1
	movq	-8(%rbp), %rdx	# cxt, tmp66
	movq	%rax, 8(%rdx)	# iftmp.0, cxt_3(D)->hseen
	.loc 1 1389 0
	call	Perl_newAV	#
	movq	-8(%rbp), %rdx	# cxt, tmp67
	movq	%rax, 24(%rdx)	# D.21951, cxt_3(D)->aseen
	.loc 1 1390 0
	movq	-8(%rbp), %rax	# cxt, tmp68
	movq	$-1, 32(%rax)	#, cxt_3(D)->where_is_undef
	.loc 1 1391 0
	call	Perl_newAV	#
	movq	-8(%rbp), %rdx	# cxt, tmp69
	movq	%rax, 48(%rdx)	# D.21951, cxt_3(D)->aclass
	.loc 1 1392 0
	movq	-8(%rbp), %rax	# cxt, tmp70
	movq	$0, 64(%rax)	#, cxt_3(D)->tagnum
	.loc 1 1393 0
	movq	-8(%rbp), %rax	# cxt, tmp71
	movq	$0, 72(%rax)	#, cxt_3(D)->classnum
	.loc 1 1394 0
	movq	-8(%rbp), %rax	# cxt, tmp72
	movl	-12(%rbp), %edx	# optype, tmp73
	movl	%edx, 4(%rax)	# tmp73, cxt_3(D)->optype
	.loc 1 1395 0
	movq	-8(%rbp), %rax	# cxt, tmp74
	movl	-16(%rbp), %edx	# is_tainted, tmp75
	movl	%edx, 84(%rax)	# tmp75, cxt_3(D)->s_tainted
	.loc 1 1396 0
	movq	-8(%rbp), %rax	# cxt, tmp76
	movl	$1, (%rax)	#, cxt_3(D)->entry
	.loc 1 1403 0
	movq	-8(%rbp), %rax	# cxt, tmp77
	movl	$-1, 108(%rax)	#, cxt_3(D)->accept_future_minor
	.loc 1 1404 0
	leave
	.cfi_def_cfa 7, 8
	ret
	.cfi_endproc
.LFE6:
	.size	init_retrieve_context, .-init_retrieve_context
	.type	clean_retrieve_context, @function
clean_retrieve_context:
.LFB7:
	.loc 1 1412 0
	.cfi_startproc
	pushq	%rbp	#
	.cfi_def_cfa_offset 16
	.cfi_offset 6, -16
	movq	%rsp, %rbp	#,
	.cfi_def_cfa_register 6
	subq	$48, %rsp	#,
	movq	%rdi, -40(%rbp)	# cxt, cxt
	.loc 1 1417 0
	movq	-40(%rbp), %rax	# cxt, tmp63
	movq	24(%rax), %rax	# cxt_1(D)->aseen, D.21952
	testq	%rax, %rax	# D.21952
	je	.L20	#,
.LBB7:
	.loc 1 1418 0
	movq	-40(%rbp), %rax	# cxt, tmp64
	movq	24(%rax), %rax	# cxt_1(D)->aseen, tmp65
	movq	%rax, -32(%rbp)	# tmp65, aseen
	.loc 1 1419 0
	movq	-40(%rbp), %rax	# cxt, tmp66
	movq	$0, 24(%rax)	#, cxt_1(D)->aseen
	.loc 1 1420 0
	movq	-32(%rbp), %rax	# aseen, tmp67
	movq	%rax, %rdi	# tmp67,
	call	Perl_av_undef	#
	.loc 1 1421 0
	movq	-32(%rbp), %rax	# aseen, tmp68
	movq	%rax, %rdi	# tmp68,
	call	Perl_sv_free	#
.L20:
.LBE7:
	.loc 1 1423 0
	movq	-40(%rbp), %rax	# cxt, tmp69
	movq	$-1, 32(%rax)	#, cxt_1(D)->where_is_undef
	.loc 1 1425 0
	movq	-40(%rbp), %rax	# cxt, tmp70
	movq	48(%rax), %rax	# cxt_1(D)->aclass, D.21952
	testq	%rax, %rax	# D.21952
	je	.L21	#,
.LBB8:
	.loc 1 1426 0
	movq	-40(%rbp), %rax	# cxt, tmp71
	movq	48(%rax), %rax	# cxt_1(D)->aclass, tmp72
	movq	%rax, -24(%rbp)	# tmp72, aclass
	.loc 1 1427 0
	movq	-40(%rbp), %rax	# cxt, tmp73
	movq	$0, 48(%rax)	#, cxt_1(D)->aclass
	.loc 1 1428 0
	movq	-24(%rbp), %rax	# aclass, tmp74
	movq	%rax, %rdi	# tmp74,
	call	Perl_av_undef	#
	.loc 1 1429 0
	movq	-24(%rbp), %rax	# aclass, tmp75
	movq	%rax, %rdi	# tmp75,
	call	Perl_sv_free	#
.L21:
.LBE8:
	.loc 1 1432 0
	movq	-40(%rbp), %rax	# cxt, tmp76
	movq	56(%rax), %rax	# cxt_1(D)->hook, D.21953
	testq	%rax, %rax	# D.21953
	je	.L22	#,
.LBB9:
	.loc 1 1433 0
	movq	-40(%rbp), %rax	# cxt, tmp77
	movq	56(%rax), %rax	# cxt_1(D)->hook, tmp78
	movq	%rax, -16(%rbp)	# tmp78, hook
	.loc 1 1434 0
	movq	-40(%rbp), %rax	# cxt, tmp79
	movq	$0, 56(%rax)	#, cxt_1(D)->hook
	.loc 1 1435 0
	movq	-16(%rbp), %rax	# hook, tmp80
	movq	%rax, %rdi	# tmp80,
	call	Perl_hv_undef	#
	.loc 1 1436 0
	movq	-16(%rbp), %rax	# hook, tmp81
	movq	%rax, %rdi	# tmp81,
	call	Perl_sv_free	#
.L22:
.LBE9:
	.loc 1 1439 0
	movq	-40(%rbp), %rax	# cxt, tmp82
	movq	8(%rax), %rax	# cxt_1(D)->hseen, D.21953
	testq	%rax, %rax	# D.21953
	je	.L23	#,
.LBB10:
	.loc 1 1440 0
	movq	-40(%rbp), %rax	# cxt, tmp83
	movq	8(%rax), %rax	# cxt_1(D)->hseen, tmp84
	movq	%rax, -8(%rbp)	# tmp84, hseen
	.loc 1 1441 0
	movq	-40(%rbp), %rax	# cxt, tmp85
	movq	$0, 8(%rax)	#, cxt_1(D)->hseen
	.loc 1 1442 0
	movq	-8(%rbp), %rax	# hseen, tmp86
	movq	%rax, %rdi	# tmp86,
	call	Perl_hv_undef	#
	.loc 1 1443 0
	movq	-8(%rbp), %rax	# hseen, tmp87
	movq	%rax, %rdi	# tmp87,
	call	Perl_sv_free	#
.L23:
.LBE10:
	.loc 1 1452 0
	movq	-40(%rbp), %rax	# cxt, tmp88
	movl	$-1, 108(%rax)	#, cxt_1(D)->accept_future_minor
	.loc 1 1454 0
	movq	-40(%rbp), %rax	# cxt, tmp89
	movq	%rax, %rdi	# tmp89,
	call	reset_context	#
	.loc 1 1455 0
	leave
	.cfi_def_cfa 7, 8
	ret
	.cfi_endproc
.LFE7:
	.size	clean_retrieve_context, .-clean_retrieve_context
	.type	clean_context, @function
clean_context:
.LFB8:
	.loc 1 1463 0
	.cfi_startproc
	pushq	%rbp	#
	.cfi_def_cfa_offset 16
	.cfi_offset 6, -16
	movq	%rsp, %rbp	#,
	.cfi_def_cfa_register 6
	subq	$48, %rsp	#,
	movq	%rdi, -40(%rbp)	# cxt, cxt
	.loc 1 1468 0
	movq	-40(%rbp), %rax	# cxt, tmp64
	movl	116(%rax), %eax	# cxt_1(D)->membuf_ro, D.21954
	testl	%eax, %eax	# D.21954
	je	.L25	#,
.LBB11:
	.loc 1 1469 0
	movq	-40(%rbp), %rax	# cxt, tmp65
	movl	$0, 116(%rax)	#, cxt_1(D)->membuf_ro
	movq	-40(%rbp), %rax	# cxt, tmp66
	movq	-40(%rbp), %rdx	# cxt, tmp67
	movq	184(%rdx), %rcx	# cxt_1(D)->msaved, tmp68
	movq	%rcx, 152(%rax)	# tmp68, cxt_1(D)->membuf
	movq	192(%rdx), %rcx	# cxt_1(D)->msaved, tmp69
	movq	%rcx, 160(%rax)	# tmp69, cxt_1(D)->membuf
	movq	200(%rdx), %rcx	# cxt_1(D)->msaved, tmp70
	movq	%rcx, 168(%rax)	# tmp70, cxt_1(D)->membuf
	movq	208(%rdx), %rdx	# cxt_1(D)->msaved, tmp71
	movq	%rdx, 176(%rax)	# tmp71, cxt_1(D)->membuf
	movq	-40(%rbp), %rax	# cxt, tmp72
	movq	152(%rax), %rdx	# cxt_1(D)->membuf, tmp73
	movq	%rdx, -32(%rbp)	# tmp73, D.10517
	movq	160(%rax), %rdx	# cxt_1(D)->membuf, tmp74
	movq	%rdx, -24(%rbp)	# tmp74, D.10517
	movq	168(%rax), %rdx	# cxt_1(D)->membuf, tmp75
	movq	%rdx, -16(%rbp)	# tmp75, D.10517
	movq	176(%rax), %rax	# cxt_1(D)->membuf, tmp76
	movq	%rax, -8(%rbp)	# tmp76, D.10517
.L25:
.LBE11:
	.loc 1 1473 0
	movq	-40(%rbp), %rax	# cxt, tmp77
	movl	4(%rax), %eax	# cxt_1(D)->optype, D.21954
	andl	$2, %eax	#, D.21954
	testl	%eax, %eax	# D.21954
	je	.L26	#,
	.loc 1 1474 0
	movq	-40(%rbp), %rax	# cxt, tmp78
	movq	%rax, %rdi	# tmp78,
	call	clean_retrieve_context	#
	jmp	.L24	#
.L26:
	.loc 1 1475 0
	movq	-40(%rbp), %rax	# cxt, tmp79
	movl	4(%rax), %eax	# cxt_1(D)->optype, D.21954
	andl	$1, %eax	#, D.21954
	testl	%eax, %eax	# D.21954
	je	.L28	#,
	.loc 1 1476 0
	movq	-40(%rbp), %rax	# cxt, tmp80
	movq	%rax, %rdi	# tmp80,
	call	clean_store_context	#
	jmp	.L24	#
.L28:
	.loc 1 1478 0
	movq	-40(%rbp), %rax	# cxt, tmp81
	movq	%rax, %rdi	# tmp81,
	call	reset_context	#
.L24:
	.loc 1 1482 0
	leave
	.cfi_def_cfa 7, 8
	ret
	.cfi_endproc
.LFE8:
	.size	clean_context, .-clean_context
	.type	allocate_context, @function
allocate_context:
.LFB9:
	.loc 1 1491 0
	.cfi_startproc
	pushq	%rbp	#
	.cfi_def_cfa_offset 16
	.cfi_offset 6, -16
	movq	%rsp, %rbp	#,
	.cfi_def_cfa_register 6
	subq	$48, %rsp	#,
	movq	%rdi, -40(%rbp)	# parent_cxt, parent_cxt
.LBB12:
	.loc 1 1498 0
	movl	$255, %edi	#,
	call	Perl_newSV	#
	movq	%rax, -24(%rbp)	# tmp65, self
	movq	-24(%rbp), %rax	# self, tmp66
	movq	%rax, %rdi	# tmp66,
	call	Perl_newRV_noinc	#
	movq	%rax, -16(%rbp)	# tmp67, my_sv
	movl	$1, %esi	#,
	movl	$.LC0, %edi	#,
	call	Perl_gv_stashpv	#
	movq	%rax, %rdx	#, D.21955
	movq	-16(%rbp), %rax	# my_sv, tmp68
	movq	%rdx, %rsi	# D.21955,
	movq	%rax, %rdi	# tmp68,
	call	Perl_sv_bless	#
	movq	-24(%rbp), %rax	# self, tmp69
	movq	(%rax), %rax	# self_1->sv_any, D.21956
	movq	(%rax), %rax	# MEM[(struct XPV *)_4].xpv_pv, tmp70
	movq	%rax, -8(%rbp)	# tmp70, cxt
	movq	-8(%rbp), %rax	# cxt, tmp71
	movl	$256, %edx	#,
	movl	$0, %esi	#,
	movq	%rax, %rdi	# tmp71,
	call	memset	#
	movq	-8(%rbp), %rax	# cxt, tmp72
	movq	-16(%rbp), %rdx	# my_sv, tmp73
	movq	%rdx, 248(%rax)	# tmp73, cxt_5->my_sv
.LBE12:
	.loc 1 1499 0
	movq	-40(%rbp), %rax	# parent_cxt, tmp75
	movq	248(%rax), %rdx	# parent_cxt_7(D)->my_sv, D.21957
	movq	-8(%rbp), %rax	# cxt, tmp76
	movq	%rdx, 240(%rax)	# D.21957, cxt_5->prev
	.loc 1 1500 0
	movq	-8(%rbp), %rax	# cxt, tmp77
	movq	%rax, Context_ptr(%rip)	# tmp77, Context_ptr
	.loc 1 1504 0
	movq	-8(%rbp), %rax	# cxt, D.21958
	.loc 1 1505 0
	leave
	.cfi_def_cfa 7, 8
	ret
	.cfi_endproc
.LFE9:
	.size	allocate_context, .-allocate_context
	.type	free_context, @function
free_context:
.LFB10:
	.loc 1 1514 0
	.cfi_startproc
	pushq	%rbp	#
	.cfi_def_cfa_offset 16
	.cfi_offset 6, -16
	movq	%rsp, %rbp	#,
	.cfi_def_cfa_register 6
	subq	$32, %rsp	#,
	movq	%rdi, -24(%rbp)	# cxt, cxt
	.loc 1 1515 0
	movq	-24(%rbp), %rax	# cxt, tmp66
	movq	240(%rax), %rax	# cxt_2(D)->prev, D.21959
	testq	%rax, %rax	# D.21959
	je	.L32	#,
	.loc 1 1515 0 is_stmt 0 discriminator 1
	movq	-24(%rbp), %rax	# cxt, tmp67
	movq	240(%rax), %rax	# cxt_2(D)->prev, D.21959
	movq	(%rax), %rax	# _4->sv_any, D.21960
	movq	(%rax), %rax	# MEM[(struct XRV *)_5].xrv_rv, D.21959
	movq	(%rax), %rax	# _6->sv_any, D.21960
	movq	(%rax), %rax	# MEM[(struct XPV *)_7].xpv_pv, iftmp.1
	jmp	.L33	#
.L32:
	.loc 1 1515 0 discriminator 2
	movl	$0, %eax	#, iftmp.1
.L33:
	.loc 1 1515 0 discriminator 3
	movq	%rax, -8(%rbp)	# iftmp.1, prev
	.loc 1 1522 0 is_stmt 1 discriminator 3
	movq	-24(%rbp), %rax	# cxt, tmp68
	movq	248(%rax), %rax	# cxt_2(D)->my_sv, D.21959
	movq	%rax, %rdi	# D.21959,
	call	Perl_sv_free	#
	.loc 1 1523 0 discriminator 3
	movq	-8(%rbp), %rax	# prev, tmp69
	movq	%rax, Context_ptr(%rip)	# tmp69, Context_ptr
	.loc 1 1526 0 discriminator 3
	leave
	.cfi_def_cfa 7, 8
	ret
	.cfi_endproc
.LFE10:
	.size	free_context, .-free_context
	.globl	is_storing
	.type	is_storing, @function
is_storing:
.LFB11:
	.loc 1 1538 0
	.cfi_startproc
	pushq	%rbp	#
	.cfi_def_cfa_offset 16
	.cfi_offset 6, -16
	movq	%rsp, %rbp	#,
	.cfi_def_cfa_register 6
	.loc 1 1539 0
	movq	Context_ptr(%rip), %rax	# Context_ptr, tmp65
	movq	%rax, -8(%rbp)	# tmp65, cxt
	.loc 1 1541 0
	movq	-8(%rbp), %rax	# cxt, tmp66
	movl	(%rax), %eax	# cxt_2->entry, D.21961
	testl	%eax, %eax	# D.21961
	je	.L35	#,
	.loc 1 1541 0 is_stmt 0 discriminator 1
	movq	-8(%rbp), %rax	# cxt, tmp67
	movl	4(%rax), %eax	# cxt_2->optype, D.21961
	andl	$1, %eax	#, D.21961
	testl	%eax, %eax	# D.21961
	je	.L35	#,
	.loc 1 1541 0 discriminator 3
	movl	$1, %eax	#, iftmp.2
	jmp	.L36	#
.L35:
	.loc 1 1541 0 discriminator 2
	movl	$0, %eax	#, iftmp.2
.L36:
	.loc 1 1542 0 is_stmt 1 discriminator 4
	popq	%rbp	#
	.cfi_def_cfa 7, 8
	ret
	.cfi_endproc
.LFE11:
	.size	is_storing, .-is_storing
	.globl	is_retrieving
	.type	is_retrieving, @function
is_retrieving:
.LFB12:
	.loc 1 1550 0
	.cfi_startproc
	pushq	%rbp	#
	.cfi_def_cfa_offset 16
	.cfi_offset 6, -16
	movq	%rsp, %rbp	#,
	.cfi_def_cfa_register 6
	.loc 1 1551 0
	movq	Context_ptr(%rip), %rax	# Context_ptr, tmp65
	movq	%rax, -8(%rbp)	# tmp65, cxt
	.loc 1 1553 0
	movq	-8(%rbp), %rax	# cxt, tmp66
	movl	(%rax), %eax	# cxt_2->entry, D.21962
	testl	%eax, %eax	# D.21962
	je	.L39	#,
	.loc 1 1553 0 is_stmt 0 discriminator 1
	movq	-8(%rbp), %rax	# cxt, tmp67
	movl	4(%rax), %eax	# cxt_2->optype, D.21962
	andl	$2, %eax	#, D.21962
	testl	%eax, %eax	# D.21962
	je	.L39	#,
	.loc 1 1553 0 discriminator 3
	movl	$1, %eax	#, iftmp.3
	jmp	.L40	#
.L39:
	.loc 1 1553 0 discriminator 2
	movl	$0, %eax	#, iftmp.3
.L40:
	.loc 1 1554 0 is_stmt 1 discriminator 4
	popq	%rbp	#
	.cfi_def_cfa 7, 8
	ret
	.cfi_endproc
.LFE12:
	.size	is_retrieving, .-is_retrieving
	.globl	last_op_in_netorder
	.type	last_op_in_netorder, @function
last_op_in_netorder:
.LFB13:
	.loc 1 1565 0
	.cfi_startproc
	pushq	%rbp	#
	.cfi_def_cfa_offset 16
	.cfi_offset 6, -16
	movq	%rsp, %rbp	#,
	.cfi_def_cfa_register 6
	.loc 1 1566 0
	movq	Context_ptr(%rip), %rax	# Context_ptr, tmp61
	movq	%rax, -8(%rbp)	# tmp61, cxt
	.loc 1 1568 0
	movq	-8(%rbp), %rax	# cxt, tmp62
	movl	80(%rax), %eax	# cxt_1->netorder, D.21963
	.loc 1 1569 0
	popq	%rbp	#
	.cfi_def_cfa 7, 8
	ret
	.cfi_endproc
.LFE13:
	.size	last_op_in_netorder, .-last_op_in_netorder
	.type	pkg_fetchmeth, @function
pkg_fetchmeth:
.LFB14:
	.loc 1 1588 0
	.cfi_startproc
	pushq	%rbp	#
	.cfi_def_cfa_offset 16
	.cfi_offset 6, -16
	movq	%rsp, %rbp	#,
	.cfi_def_cfa_register 6
	subq	$48, %rsp	#,
	movq	%rdi, -24(%rbp)	# cache, cache
	movq	%rsi, -32(%rbp)	# pkg, pkg
	movq	%rdx, -40(%rbp)	# method, method
	.loc 1 1597 0
	movq	-40(%rbp), %rcx	# method, tmp75
	movq	-32(%rbp), %rax	# pkg, tmp76
	movl	$0, %edx	#,
	movq	%rcx, %rsi	# tmp75,
	movq	%rax, %rdi	# tmp76,
	call	Perl_gv_fetchmethod_autoload	#
	movq	%rax, -8(%rbp)	# tmp77, gv
	.loc 1 1598 0
	cmpq	$0, -8(%rbp)	#, gv
	je	.L45	#,
	.loc 1 1598 0 is_stmt 0 discriminator 1
	movq	-8(%rbp), %rax	# gv, tmp78
	movl	12(%rax), %eax	# gv_5->sv_flags, D.21964
	movzbl	%al, %eax	# D.21964, D.21964
	cmpl	$13, %eax	#, D.21964
	jne	.L45	#,
	.loc 1 1599 0 is_stmt 1
	movq	-8(%rbp), %rax	# gv, tmp79
	movq	(%rax), %rax	# gv_5->sv_any, D.21965
	movq	56(%rax), %rax	# _8->xgv_gp, D.21966
	movq	56(%rax), %rax	# _9->gp_cv, D.21967
	movq	%rax, %rdi	# D.21967,
	call	Perl_newRV	#
	movq	%rax, -16(%rbp)	# tmp80, sv
	jmp	.L46	#
.L45:
	.loc 1 1602 0
	movl	$PL_sv_undef, %edi	#,
	call	Perl_newSVsv	#
	movq	%rax, -16(%rbp)	# tmp81, sv
.L46:
	.loc 1 1611 0
	movq	-32(%rbp), %rax	# pkg, tmp82
	movq	(%rax), %rax	# pkg_3(D)->sv_any, D.21968
	movq	80(%rax), %rax	# _13->xhv_name, D.21969
	movq	%rax, %rdi	# D.21969,
	call	strlen	#
	movl	%eax, %edx	# D.21970, D.21971
	movq	-32(%rbp), %rax	# pkg, tmp83
	movq	(%rax), %rax	# pkg_3(D)->sv_any, D.21968
	movq	80(%rax), %rsi	# _17->xhv_name, D.21969
	movq	-16(%rbp), %rcx	# sv, tmp84
	movq	-24(%rbp), %rax	# cache, tmp85
	movl	$0, %r8d	#,
	movq	%rax, %rdi	# tmp85,
	call	Perl_hv_store	#
	.loc 1 1613 0
	movq	-16(%rbp), %rax	# sv, tmp86
	movl	12(%rax), %eax	# sv_1->sv_flags, D.21964
	andl	$118423552, %eax	#, D.21964
	testl	%eax, %eax	# D.21964
	je	.L47	#,
	.loc 1 1613 0 is_stmt 0 discriminator 1
	movq	-16(%rbp), %rax	# sv, iftmp.4
	jmp	.L48	#
.L47:
	.loc 1 1613 0 discriminator 2
	movl	$0, %eax	#, iftmp.4
.L48:
	.loc 1 1614 0 is_stmt 1 discriminator 3
	leave
	.cfi_def_cfa 7, 8
	ret
	.cfi_endproc
.LFE14:
	.size	pkg_fetchmeth, .-pkg_fetchmeth
	.type	pkg_hide, @function
pkg_hide:
.LFB15:
	.loc 1 1626 0
	.cfi_startproc
	pushq	%rbp	#
	.cfi_def_cfa_offset 16
	.cfi_offset 6, -16
	movq	%rsp, %rbp	#,
	.cfi_def_cfa_register 6
	pushq	%rbx	#
	subq	$40, %rsp	#,
	.cfi_offset 3, -24
	movq	%rdi, -24(%rbp)	# cache, cache
	movq	%rsi, -32(%rbp)	# pkg, pkg
	movq	%rdx, -40(%rbp)	# method, method
	.loc 1 1627 0
	movl	$PL_sv_undef, %edi	#,
	call	Perl_newSVsv	#
	movq	%rax, %rbx	#, D.21973
	.loc 1 1628 0
	movq	-32(%rbp), %rax	# pkg, tmp66
	movq	(%rax), %rax	# pkg_2(D)->sv_any, D.21974
	movq	80(%rax), %rax	# _3->xhv_name, D.21975
	movq	%rax, %rdi	# D.21975,
	call	strlen	#
	.loc 1 1627 0
	movl	%eax, %edx	# D.21976, D.21977
	.loc 1 1628 0
	movq	-32(%rbp), %rax	# pkg, tmp67
	movq	(%rax), %rax	# pkg_2(D)->sv_any, D.21974
	movq	80(%rax), %rsi	# _7->xhv_name, D.21975
	.loc 1 1627 0
	movq	-24(%rbp), %rax	# cache, tmp68
	movl	$0, %r8d	#,
	movq	%rbx, %rcx	# D.21973,
	movq	%rax, %rdi	# tmp68,
	call	Perl_hv_store	#
	.loc 1 1629 0
	addq	$40, %rsp	#,
	popq	%rbx	#
	popq	%rbp	#
	.cfi_def_cfa 7, 8
	ret
	.cfi_endproc
.LFE15:
	.size	pkg_hide, .-pkg_hide
	.type	pkg_uncache, @function
pkg_uncache:
.LFB16:
	.loc 1 1641 0
	.cfi_startproc
	pushq	%rbp	#
	.cfi_def_cfa_offset 16
	.cfi_offset 6, -16
	movq	%rsp, %rbp	#,
	.cfi_def_cfa_register 6
	subq	$32, %rsp	#,
	movq	%rdi, -8(%rbp)	# cache, cache
	movq	%rsi, -16(%rbp)	# pkg, pkg
	movq	%rdx, -24(%rbp)	# method, method
	.loc 1 1642 0
	movq	-16(%rbp), %rax	# pkg, tmp65
	movq	(%rax), %rax	# pkg_1(D)->sv_any, D.21978
	movq	80(%rax), %rax	# _2->xhv_name, D.21979
	movq	%rax, %rdi	# D.21979,
	call	strlen	#
	movl	%eax, %edx	# D.21980, D.21981
	movq	-16(%rbp), %rax	# pkg, tmp66
	movq	(%rax), %rax	# pkg_1(D)->sv_any, D.21978
	movq	80(%rax), %rsi	# _6->xhv_name, D.21979
	movq	-8(%rbp), %rax	# cache, tmp67
	movl	$2, %ecx	#,
	movq	%rax, %rdi	# tmp67,
	call	Perl_hv_delete	#
	.loc 1 1643 0
	leave
	.cfi_def_cfa 7, 8
	ret
	.cfi_endproc
.LFE16:
	.size	pkg_uncache, .-pkg_uncache
	.type	pkg_can, @function
pkg_can:
.LFB17:
	.loc 1 1658 0
	.cfi_startproc
	pushq	%rbp	#
	.cfi_def_cfa_offset 16
	.cfi_offset 6, -16
	movq	%rsp, %rbp	#,
	.cfi_def_cfa_register 6
	subq	$48, %rsp	#,
	movq	%rdi, -24(%rbp)	# cache, cache
	movq	%rsi, -32(%rbp)	# pkg, pkg
	movq	%rdx, -40(%rbp)	# method, method
	.loc 1 1672 0
	movq	-32(%rbp), %rax	# pkg, tmp69
	movq	(%rax), %rax	# pkg_2(D)->sv_any, D.21983
	movq	80(%rax), %rax	# _3->xhv_name, D.21984
	movq	%rax, %rdi	# D.21984,
	call	strlen	#
	movl	%eax, %edx	# D.21985, D.21986
	movq	-32(%rbp), %rax	# pkg, tmp70
	movq	(%rax), %rax	# pkg_2(D)->sv_any, D.21983
	movq	80(%rax), %rsi	# _7->xhv_name, D.21984
	movq	-24(%rbp), %rax	# cache, tmp71
	movl	$0, %ecx	#,
	movq	%rax, %rdi	# tmp71,
	call	Perl_hv_fetch	#
	movq	%rax, -16(%rbp)	# tmp72, svh
	.loc 1 1673 0
	cmpq	$0, -16(%rbp)	#, svh
	je	.L53	#,
	.loc 1 1674 0
	movq	-16(%rbp), %rax	# svh, tmp73
	movq	(%rax), %rax	# *svh_10, tmp74
	movq	%rax, -8(%rbp)	# tmp74, sv
	.loc 1 1675 0
	movq	-8(%rbp), %rax	# sv, tmp75
	movl	12(%rax), %eax	# sv_11->sv_flags, D.21987
	andl	$118423552, %eax	#, D.21987
	testl	%eax, %eax	# D.21987
	jne	.L54	#,
	.loc 1 1677 0
	movl	$0, %eax	#, D.21982
	jmp	.L55	#
.L54:
	.loc 1 1681 0
	movq	-8(%rbp), %rax	# sv, D.21982
	jmp	.L55	#
.L53:
	.loc 1 1686 0
	movq	-40(%rbp), %rdx	# method, tmp76
	movq	-32(%rbp), %rcx	# pkg, tmp77
	movq	-24(%rbp), %rax	# cache, tmp78
	movq	%rcx, %rsi	# tmp77,
	movq	%rax, %rdi	# tmp78,
	call	pkg_fetchmeth	#
.L55:
	.loc 1 1687 0
	leave
	.cfi_def_cfa 7, 8
	ret
	.cfi_endproc
.LFE17:
	.size	pkg_can, .-pkg_can
	.type	scalar_call, @function
scalar_call:
.LFB18:
	.loc 1 1702 0
	.cfi_startproc
	pushq	%rbp	#
	.cfi_def_cfa_offset 16
	.cfi_offset 6, -16
	movq	%rsp, %rbp	#,
	.cfi_def_cfa_register 6
	pushq	%rbx	#
	subq	$72, %rsp	#,
	.cfi_offset 3, -24
	movq	%rdi, -56(%rbp)	# obj, obj
	movq	%rsi, -64(%rbp)	# hook, hook
	movl	%edx, -68(%rbp)	# cloning, cloning
	movq	%rcx, -80(%rbp)	# av, av
	movl	%r8d, -72(%rbp)	# flags, flags
	.loc 1 1703 0
	movq	PL_stack_sp(%rip), %rbx	# PL_stack_sp, sp
	.loc 1 1705 0
	movq	$0, -32(%rbp)	#, sv
	.loc 1 1709 0
	call	Perl_push_scope	#
	.loc 1 1710 0
	movl	$PL_tmps_floor, %edi	#,
	call	Perl_save_int	#
	movl	PL_tmps_ix(%rip), %eax	# PL_tmps_ix, PL_tmps_ix.5
	movl	%eax, PL_tmps_floor(%rip)	# PL_tmps_ix.5, PL_tmps_floor
.LBB13:
	.loc 1 1712 0
	movq	PL_markstack_ptr(%rip), %rax	# PL_markstack_ptr, PL_markstack_ptr.6
	addq	$4, %rax	#, PL_markstack_ptr.7
	movq	%rax, PL_markstack_ptr(%rip)	# PL_markstack_ptr.7, PL_markstack_ptr
	movq	PL_markstack_ptr(%rip), %rdx	# PL_markstack_ptr, PL_markstack_ptr.8
	movq	PL_markstack_max(%rip), %rax	# PL_markstack_max, PL_markstack_max.9
	cmpq	%rax, %rdx	# PL_markstack_max.9, PL_markstack_ptr.8
	jne	.L57	#,
	.loc 1 1712 0 is_stmt 0 discriminator 1
	call	Perl_markstack_grow	#
.L57:
	.loc 1 1712 0 discriminator 2
	movq	PL_markstack_ptr(%rip), %rax	# PL_markstack_ptr, PL_markstack_ptr.10
	movq	%rbx, %rcx	# sp, sp.11
	movq	PL_stack_base(%rip), %rdx	# PL_stack_base, PL_stack_base.12
	subq	%rdx, %rcx	# PL_stack_base.13, D.21988
	movq	%rcx, %rdx	# D.21988, D.21988
	sarq	$3, %rdx	#, tmp120
	movl	%edx, (%rax)	# D.21989, *PL_markstack_ptr.10_17
.LBE13:
.LBB14:
	.loc 1 1713 0 is_stmt 1 discriminator 2
	movq	PL_stack_max(%rip), %rax	# PL_stack_max, PL_stack_max.14
	movq	%rax, %rdx	# PL_stack_max.14, PL_stack_max.15
	movq	%rbx, %rax	# sp, sp.16
	subq	%rax, %rdx	# sp.16, D.21988
	movq	%rdx, %rax	# D.21988, D.21988
	cmpq	$7, %rax	#, D.21988
	jg	.L58	#,
	.loc 1 1713 0 is_stmt 0 discriminator 1
	movl	$1, %edx	#,
	movq	%rbx, %rsi	# sp,
	movq	%rbx, %rdi	# sp,
	call	Perl_stack_grow	#
	movq	%rax, %rbx	#, sp
.L58:
	.loc 1 1713 0 discriminator 2
	addq	$8, %rbx	#, sp
	movq	-56(%rbp), %rax	# obj, tmp121
	movq	%rax, (%rbx)	# tmp121, *sp_30
.LBE14:
.LBB15:
	.loc 1 1714 0 is_stmt 1 discriminator 2
	movq	PL_stack_max(%rip), %rax	# PL_stack_max, PL_stack_max.17
	movq	%rax, %rdx	# PL_stack_max.17, PL_stack_max.18
	movq	%rbx, %rax	# sp, sp.19
	subq	%rax, %rdx	# sp.19, D.21988
	movq	%rdx, %rax	# D.21988, D.21988
	cmpq	$7, %rax	#, D.21988
	jg	.L59	#,
	.loc 1 1714 0 is_stmt 0 discriminator 1
	movl	$1, %edx	#,
	movq	%rbx, %rsi	# sp,
	movq	%rbx, %rdi	# sp,
	call	Perl_stack_grow	#
	movq	%rax, %rbx	#, sp
.L59:
	.loc 1 1714 0 discriminator 2
	addq	$8, %rbx	#, sp
	movl	-68(%rbp), %eax	# cloning, tmp122
	cltq
	movq	%rax, %rdi	# D.21988,
	call	Perl_newSViv	#
	movq	%rax, %rdi	# D.21991,
	call	Perl_sv_2mortal	#
	movq	%rax, (%rbx)	# D.21991, *sp_38
.LBE15:
	.loc 1 1715 0 is_stmt 1 discriminator 2
	cmpq	$0, -80(%rbp)	#, av
	je	.L60	#,
.LBB16:
	.loc 1 1716 0
	movq	-80(%rbp), %rax	# av, tmp123
	movq	(%rax), %rax	# av_44(D)->sv_any, D.21992
	movq	(%rax), %rax	# _45->xav_array, tmp124
	movq	%rax, -24(%rbp)	# tmp124, ary
	.loc 1 1717 0
	movq	-80(%rbp), %rax	# av, tmp125
	movq	(%rax), %rax	# av_44(D)->sv_any, D.21992
	movq	8(%rax), %rax	# _47->xav_fill, D.21988
	addl	$1, %eax	#, D.21993
	movl	%eax, -40(%rbp)	# D.21993, cnt
.LBB17:
	.loc 1 1719 0
	movq	PL_stack_max(%rip), %rax	# PL_stack_max, PL_stack_max.20
	movq	%rax, %rdx	# PL_stack_max.20, PL_stack_max.21
	movq	%rbx, %rax	# sp, sp.22
	subq	%rax, %rdx	# sp.22, D.21988
	movq	%rdx, %rax	# D.21988, D.21988
	cmpq	$7, %rax	#, D.21988
	jg	.L61	#,
	.loc 1 1719 0 is_stmt 0 discriminator 1
	movl	$1, %edx	#,
	movq	%rbx, %rsi	# sp,
	movq	%rbx, %rdi	# sp,
	call	Perl_stack_grow	#
	movq	%rax, %rbx	#, sp
.L61:
	.loc 1 1719 0 discriminator 2
	addq	$8, %rbx	#, sp
	movq	-24(%rbp), %rax	# ary, tmp126
	movq	(%rax), %rax	# *ary_46, D.21991
	movq	%rax, (%rbx)	# D.21991, *sp_57
.LBE17:
	.loc 1 1720 0 is_stmt 1 discriminator 2
	movl	$1, -44(%rbp)	#, i
	jmp	.L62	#
.L64:
.LBB18:
	.loc 1 1723 0
	movq	PL_stack_max(%rip), %rax	# PL_stack_max, PL_stack_max.23
	movq	%rax, %rdx	# PL_stack_max.23, PL_stack_max.24
	movq	%rbx, %rax	# sp, sp.25
	subq	%rax, %rdx	# sp.25, D.21988
	movq	%rdx, %rax	# D.21988, D.21988
	cmpq	$7, %rax	#, D.21988
	jg	.L63	#,
	.loc 1 1723 0 is_stmt 0 discriminator 1
	movl	$1, %edx	#,
	movq	%rbx, %rsi	# sp,
	movq	%rbx, %rdi	# sp,
	call	Perl_stack_grow	#
	movq	%rax, %rbx	#, sp
.L63:
	.loc 1 1723 0 discriminator 2
	addq	$8, %rbx	#, sp
	movl	-44(%rbp), %eax	# i, tmp127
	cltq
	leaq	0(,%rax,8), %rdx	#, D.21994
	movq	-24(%rbp), %rax	# ary, tmp128
	addq	%rdx, %rax	# D.21994, D.21995
	movq	(%rax), %rax	# *_69, D.21991
	movq	%rax, %rdi	# D.21991,
	call	Perl_newRV	#
	movq	%rax, %rdi	# D.21991,
	call	Perl_sv_2mortal	#
	movq	%rax, (%rbx)	# D.21991, *sp_66
.LBE18:
	.loc 1 1720 0 is_stmt 1 discriminator 2
	addl	$1, -44(%rbp)	#, i
.L62:
	.loc 1 1720 0 is_stmt 0 discriminator 1
	movl	-44(%rbp), %eax	# i, tmp129
	cmpl	-40(%rbp), %eax	# cnt, tmp129
	jl	.L64	#,
.L60:
.LBE16:
	.loc 1 1726 0 is_stmt 1
	movq	%rbx, PL_stack_sp(%rip)	# sp, PL_stack_sp
	.loc 1 1729 0
	movl	-72(%rbp), %edx	# flags, tmp130
	movq	-64(%rbp), %rax	# hook, tmp131
	movl	%edx, %esi	# tmp130,
	movq	%rax, %rdi	# tmp131,
	call	Perl_call_sv	#
	movl	%eax, -36(%rbp)	# tmp132, count
	.loc 1 1732 0
	movq	PL_stack_sp(%rip), %rbx	# PL_stack_sp, sp
	.loc 1 1734 0
	cmpl	$0, -36(%rbp)	#, count
	je	.L65	#,
	.loc 1 1735 0
	movq	%rbx, %rax	# sp, sp.26
	leaq	-8(%rax), %rbx	#, sp
	movq	(%rax), %rax	# *sp.26_79, tmp133
	movq	%rax, -32(%rbp)	# tmp133, sv
	.loc 1 1736 0
	movq	-32(%rbp), %rax	# sv, tmp134
	movq	%rax, PL_Sv(%rip)	# tmp134, PL_Sv
	movq	PL_Sv(%rip), %rax	# PL_Sv, PL_Sv.28
	testq	%rax, %rax	# PL_Sv.28
	je	.L65	#,
	.loc 1 1736 0 is_stmt 0 discriminator 1
	movq	PL_Sv(%rip), %rax	# PL_Sv, PL_Sv.29
	movl	8(%rax), %edx	# PL_Sv.29_83->sv_refcnt, D.21996
	addl	$1, %edx	#, D.21996
	movl	%edx, 8(%rax)	# D.21996, PL_Sv.29_83->sv_refcnt
	movl	8(%rax), %eax	# PL_Sv.29_83->sv_refcnt, D.21996
	testl	%eax, %eax	# D.21996
	je	.L65	#,
	.loc 1 1736 0
	nop
.L65:
	.loc 1 1739 0 is_stmt 1
	movq	%rbx, PL_stack_sp(%rip)	# sp, PL_stack_sp
	.loc 1 1740 0
	movl	PL_tmps_ix(%rip), %edx	# PL_tmps_ix, PL_tmps_ix.30
	movl	PL_tmps_floor(%rip), %eax	# PL_tmps_floor, PL_tmps_floor.31
	cmpl	%eax, %edx	# PL_tmps_floor.31, PL_tmps_ix.30
	jle	.L67	#,
	.loc 1 1740 0 is_stmt 0 discriminator 1
	call	Perl_free_tmps	#
.L67:
	.loc 1 1741 0 is_stmt 1
	call	Perl_pop_scope	#
	.loc 1 1743 0
	movq	-32(%rbp), %rax	# sv, D.21991
	.loc 1 1744 0
	addq	$72, %rsp	#,
	popq	%rbx	#
	popq	%rbp	#
	.cfi_def_cfa 7, 8
	ret
	.cfi_endproc
.LFE18:
	.size	scalar_call, .-scalar_call
	.type	array_call, @function
array_call:
.LFB19:
	.loc 1 1757 0
	.cfi_startproc
	pushq	%rbp	#
	.cfi_def_cfa_offset 16
	.cfi_offset 6, -16
	movq	%rsp, %rbp	#,
	.cfi_def_cfa_register 6
	pushq	%rbx	#
	subq	$72, %rsp	#,
	.cfi_offset 3, -24
	movq	%rdi, -56(%rbp)	# obj, obj
	movq	%rsi, -64(%rbp)	# hook, hook
	movl	%edx, -68(%rbp)	# cloning, cloning
	.loc 1 1758 0
	movq	PL_stack_sp(%rip), %rbx	# PL_stack_sp, sp
	.loc 1 1765 0
	call	Perl_push_scope	#
	.loc 1 1766 0
	movl	$PL_tmps_floor, %edi	#,
	call	Perl_save_int	#
	movl	PL_tmps_ix(%rip), %eax	# PL_tmps_ix, PL_tmps_ix.32
	movl	%eax, PL_tmps_floor(%rip)	# PL_tmps_ix.32, PL_tmps_floor
.LBB19:
	.loc 1 1768 0
	movq	PL_markstack_ptr(%rip), %rax	# PL_markstack_ptr, PL_markstack_ptr.33
	addq	$4, %rax	#, PL_markstack_ptr.34
	movq	%rax, PL_markstack_ptr(%rip)	# PL_markstack_ptr.34, PL_markstack_ptr
	movq	PL_markstack_ptr(%rip), %rdx	# PL_markstack_ptr, PL_markstack_ptr.35
	movq	PL_markstack_max(%rip), %rax	# PL_markstack_max, PL_markstack_max.36
	cmpq	%rax, %rdx	# PL_markstack_max.36, PL_markstack_ptr.35
	jne	.L70	#,
	.loc 1 1768 0 is_stmt 0 discriminator 1
	call	Perl_markstack_grow	#
.L70:
	.loc 1 1768 0 discriminator 2
	movq	PL_markstack_ptr(%rip), %rax	# PL_markstack_ptr, PL_markstack_ptr.37
	movq	%rbx, %rcx	# sp, sp.38
	movq	PL_stack_base(%rip), %rdx	# PL_stack_base, PL_stack_base.39
	subq	%rdx, %rcx	# PL_stack_base.40, D.21997
	movq	%rcx, %rdx	# D.21997, D.21997
	sarq	$3, %rdx	#, tmp99
	movl	%edx, (%rax)	# D.21998, *PL_markstack_ptr.37_11
.LBE19:
.LBB20:
	.loc 1 1769 0 is_stmt 1 discriminator 2
	movq	PL_stack_max(%rip), %rax	# PL_stack_max, PL_stack_max.41
	movq	%rax, %rdx	# PL_stack_max.41, PL_stack_max.42
	movq	%rbx, %rax	# sp, sp.43
	subq	%rax, %rdx	# sp.43, D.21997
	movq	%rdx, %rax	# D.21997, D.21997
	cmpq	$7, %rax	#, D.21997
	jg	.L71	#,
	.loc 1 1769 0 is_stmt 0 discriminator 1
	movl	$1, %edx	#,
	movq	%rbx, %rsi	# sp,
	movq	%rbx, %rdi	# sp,
	call	Perl_stack_grow	#
	movq	%rax, %rbx	#, sp
.L71:
	.loc 1 1769 0 discriminator 2
	addq	$8, %rbx	#, sp
	movq	-56(%rbp), %rax	# obj, tmp100
	movq	%rax, (%rbx)	# tmp100, *sp_24
.LBE20:
.LBB21:
	.loc 1 1770 0 is_stmt 1 discriminator 2
	movq	PL_stack_max(%rip), %rax	# PL_stack_max, PL_stack_max.44
	movq	%rax, %rdx	# PL_stack_max.44, PL_stack_max.45
	movq	%rbx, %rax	# sp, sp.46
	subq	%rax, %rdx	# sp.46, D.21997
	movq	%rdx, %rax	# D.21997, D.21997
	cmpq	$7, %rax	#, D.21997
	jg	.L72	#,
	.loc 1 1770 0 is_stmt 0 discriminator 1
	movl	$1, %edx	#,
	movq	%rbx, %rsi	# sp,
	movq	%rbx, %rdi	# sp,
	call	Perl_stack_grow	#
	movq	%rax, %rbx	#, sp
.L72:
	.loc 1 1770 0 discriminator 2
	addq	$8, %rbx	#, sp
	movl	-68(%rbp), %eax	# cloning, tmp101
	cltq
	movq	%rax, %rdi	# D.21997,
	call	Perl_newSViv	#
	movq	%rax, %rdi	# D.22000,
	call	Perl_sv_2mortal	#
	movq	%rax, (%rbx)	# D.22000, *sp_32
.LBE21:
	.loc 1 1771 0 is_stmt 1 discriminator 2
	movq	%rbx, PL_stack_sp(%rip)	# sp, PL_stack_sp
	.loc 1 1773 0 discriminator 2
	movq	-64(%rbp), %rax	# hook, tmp102
	movl	$1, %esi	#,
	movq	%rax, %rdi	# tmp102,
	call	Perl_call_sv	#
	movl	%eax, -36(%rbp)	# tmp103, count
	.loc 1 1775 0 discriminator 2
	movq	PL_stack_sp(%rip), %rbx	# PL_stack_sp, sp
	.loc 1 1777 0 discriminator 2
	call	Perl_newAV	#
	movq	%rax, -32(%rbp)	# tmp104, av
	.loc 1 1778 0 discriminator 2
	movl	-36(%rbp), %eax	# count, tmp108
	subl	$1, %eax	#, tmp107
	movl	%eax, -40(%rbp)	# tmp107, i
	jmp	.L73	#
.L76:
.LBB22:
	.loc 1 1779 0
	movq	%rbx, %rax	# sp, sp.47
	leaq	-8(%rax), %rbx	#, sp
	movq	(%rax), %rax	# *sp.47_43, tmp109
	movq	%rax, -24(%rbp)	# tmp109, sv
	.loc 1 1780 0
	movq	-24(%rbp), %rax	# sv, tmp110
	movq	%rax, PL_Sv(%rip)	# tmp110, PL_Sv
	movq	PL_Sv(%rip), %rax	# PL_Sv, PL_Sv.49
	testq	%rax, %rax	# PL_Sv.49
	je	.L75	#,
	.loc 1 1780 0 is_stmt 0 discriminator 1
	movq	PL_Sv(%rip), %rax	# PL_Sv, PL_Sv.50
	movl	8(%rax), %edx	# PL_Sv.50_47->sv_refcnt, D.22001
	addl	$1, %edx	#, D.22001
	movl	%edx, 8(%rax)	# D.22001, PL_Sv.50_47->sv_refcnt
	movl	8(%rax), %eax	# PL_Sv.50_47->sv_refcnt, D.22001
	testl	%eax, %eax	# D.22001
	je	.L75	#,
	.loc 1 1780 0
	nop
.L75:
	.loc 1 1780 0 discriminator 4
	movq	PL_Sv(%rip), %rdx	# PL_Sv, PL_Sv.51
	movl	-40(%rbp), %ecx	# i, tmp111
	movq	-32(%rbp), %rax	# av, tmp112
	movl	%ecx, %esi	# tmp111,
	movq	%rax, %rdi	# tmp112,
	call	Perl_av_store	#
.LBE22:
	.loc 1 1778 0 is_stmt 1 discriminator 4
	subl	$1, -40(%rbp)	#, i
.L73:
	.loc 1 1778 0 is_stmt 0 discriminator 1
	cmpl	$0, -40(%rbp)	#, i
	jns	.L76	#,
	.loc 1 1783 0 is_stmt 1
	movq	%rbx, PL_stack_sp(%rip)	# sp, PL_stack_sp
	.loc 1 1784 0
	movl	PL_tmps_ix(%rip), %edx	# PL_tmps_ix, PL_tmps_ix.52
	movl	PL_tmps_floor(%rip), %eax	# PL_tmps_floor, PL_tmps_floor.53
	cmpl	%eax, %edx	# PL_tmps_floor.53, PL_tmps_ix.52
	jle	.L77	#,
	.loc 1 1784 0 is_stmt 0 discriminator 1
	call	Perl_free_tmps	#
.L77:
	.loc 1 1785 0 is_stmt 1
	call	Perl_pop_scope	#
	.loc 1 1787 0
	movq	-32(%rbp), %rax	# av, D.22002
	.loc 1 1788 0
	addq	$72, %rsp	#,
	popq	%rbx	#
	popq	%rbp	#
	.cfi_def_cfa 7, 8
	ret
	.cfi_endproc
.LFE19:
	.size	array_call, .-array_call
	.section	.rodata
	.align 8
.LC1:
	.string	"Unable to record new classname"
	.text
	.type	known_class, @function
known_class:
.LFB20:
	.loc 1 1804 0
	.cfi_startproc
	pushq	%rbp	#
	.cfi_def_cfa_offset 16
	.cfi_offset 6, -16
	movq	%rsp, %rbp	#,
	.cfi_def_cfa_register 6
	subq	$48, %rsp	#,
	movq	%rdi, -24(%rbp)	# cxt, cxt
	movq	%rsi, -32(%rbp)	# name, name
	movl	%edx, -36(%rbp)	# len, len
	movq	%rcx, -48(%rbp)	# classnum, classnum
	.loc 1 1806 0
	movq	-24(%rbp), %rax	# cxt, tmp71
	movq	40(%rax), %rax	# cxt_2(D)->hclass, tmp72
	movq	%rax, -16(%rbp)	# tmp72, hclass
	.loc 1 1815 0
	movl	-36(%rbp), %edx	# len, tmp73
	movq	-32(%rbp), %rsi	# name, tmp74
	movq	-16(%rbp), %rax	# hclass, tmp75
	movl	$0, %ecx	#,
	movq	%rax, %rdi	# tmp75,
	call	Perl_hv_fetch	#
	movq	%rax, -8(%rbp)	# tmp76, svh
	.loc 1 1816 0
	cmpq	$0, -8(%rbp)	#, svh
	je	.L80	#,
	.loc 1 1817 0
	movq	-8(%rbp), %rax	# svh, tmp77
	movq	(%rax), %rax	# *svh_6, D.22004
	movl	%eax, %edx	# D.22005, D.22003
	movq	-48(%rbp), %rax	# classnum, tmp78
	movl	%edx, (%rax)	# D.22003, *classnum_10(D)
	.loc 1 1818 0
	movl	$1, %eax	#, D.22003
	jmp	.L81	#
.L80:
	.loc 1 1825 0
	movq	-24(%rbp), %rax	# cxt, tmp79
	movq	72(%rax), %rax	# cxt_2(D)->classnum, D.22005
	leaq	1(%rax), %rdx	#, D.22005
	movq	-24(%rbp), %rax	# cxt, tmp80
	movq	%rdx, 72(%rax)	# D.22005, cxt_2(D)->classnum
	.loc 1 1826 0
	movq	-24(%rbp), %rax	# cxt, tmp81
	movq	72(%rax), %rax	# cxt_2(D)->classnum, D.22005
	movq	%rax, %rcx	# D.22005, D.22004
	movl	-36(%rbp), %edx	# len, tmp82
	movq	-32(%rbp), %rsi	# name, tmp83
	movq	-16(%rbp), %rax	# hclass, tmp84
	movl	$0, %r8d	#,
	movq	%rax, %rdi	# tmp84,
	call	Perl_hv_store	#
	testq	%rax, %rax	# D.22006
	jne	.L82	#,
.LBB23:
	.loc 1 1827 0
	movq	-24(%rbp), %rax	# cxt, tmp85
	movl	$1, 112(%rax)	#, cxt_2(D)->s_dirty
	movl	$.LC1, %edi	#,
	movl	$0, %eax	#,
	call	Perl_croak	#
.L82:
.LBE23:
	.loc 1 1829 0
	movq	-24(%rbp), %rax	# cxt, tmp86
	movq	72(%rax), %rax	# cxt_2(D)->classnum, D.22005
	movl	%eax, %edx	# D.22005, D.22003
	movq	-48(%rbp), %rax	# classnum, tmp87
	movl	%edx, (%rax)	# D.22003, *classnum_10(D)
	.loc 1 1830 0
	movl	$0, %eax	#, D.22003
.L81:
	.loc 1 1831 0
	leave
	.cfi_def_cfa 7, 8
	ret
	.cfi_endproc
.LFE20:
	.size	known_class, .-known_class
	.type	store_ref, @function
store_ref:
.LFB21:
	.loc 1 1844 0
	.cfi_startproc
	pushq	%rbp	#
	.cfi_def_cfa_offset 16
	.cfi_offset 6, -16
	movq	%rsp, %rbp	#,
	.cfi_def_cfa_register 6
	subq	$48, %rsp	#,
	movq	%rdi, -40(%rbp)	# cxt, cxt
	movq	%rsi, -48(%rbp)	# sv, sv
	.loc 1 1851 0
	movq	-48(%rbp), %rax	# sv, tmp154
	movq	(%rax), %rax	# sv_2(D)->sv_any, D.22009
	movq	(%rax), %rax	# MEM[(struct XRV *)_3].xrv_rv, tmp155
	movq	%rax, -48(%rbp)	# tmp155, sv
	.loc 1 1853 0
	movq	-48(%rbp), %rax	# sv, tmp156
	movl	12(%rax), %eax	# sv_4->sv_flags, D.22010
	andl	$4096, %eax	#, D.22010
	testl	%eax, %eax	# D.22010
	je	.L84	#,
.LBB24:
	.loc 1 1854 0
	movq	-48(%rbp), %rax	# sv, tmp157
	movq	(%rax), %rax	# sv_4->sv_any, D.22009
	movq	48(%rax), %rax	# MEM[(struct XPVMG *)_7].xmg_stash, tmp158
	movq	%rax, -8(%rbp)	# tmp158, stash
	.loc 1 1855 0
	cmpq	$0, -8(%rbp)	#, stash
	je	.L85	#,
	.loc 1 1855 0 is_stmt 0 discriminator 1
	movq	PL_amagic_generation(%rip), %rax	# PL_amagic_generation, PL_amagic_generation.54
	testq	%rax, %rax	# PL_amagic_generation.54
	je	.L85	#,
	movq	-8(%rbp), %rax	# stash, tmp159
	movq	%rax, %rdi	# tmp159,
	call	Perl_Gv_AMupdate	#
	testb	%al, %al	# D.22011
	je	.L85	#,
	.loc 1 1857 0 is_stmt 1
	movq	-40(%rbp), %rax	# cxt, tmp160
	movq	216(%rax), %rax	# cxt_11(D)->fio, D.22012
	testq	%rax, %rax	# D.22012
	jne	.L86	#,
	.loc 1 1857 0 is_stmt 0 discriminator 1
	movq	-40(%rbp), %rax	# cxt, tmp161
	movq	168(%rax), %rdx	# cxt_11(D)->membuf.aptr, D.22013
	movq	-40(%rbp), %rax	# cxt, tmp162
	movq	176(%rax), %rax	# cxt_11(D)->membuf.aend, D.22013
	cmpq	%rax, %rdx	# D.22013, D.22013
	jae	.L87	#,
	movq	-40(%rbp), %rax	# cxt, tmp163
	movq	168(%rax), %rax	# cxt_11(D)->membuf.aptr, D.22013
	leaq	1(%rax), %rcx	#, D.22013
	movq	-40(%rbp), %rdx	# cxt, tmp164
	movq	%rcx, 168(%rdx)	# D.22013, cxt_11(D)->membuf.aptr
	movb	$20, (%rax)	#, *_16
	jmp	.L89	#
.L87:
.LBB25:
	.loc 1 1857 0 discriminator 2
	movq	-40(%rbp), %rax	# cxt, tmp165
	movq	160(%rax), %rax	# cxt_11(D)->membuf.asiz, D.22014
	addl	$8192, %eax	#, D.22015
	andl	$-8192, %eax	#, tmp166
	movl	%eax, -32(%rbp)	# tmp166, nsz
	movq	-40(%rbp), %rax	# cxt, tmp167
	movq	168(%rax), %rax	# cxt_11(D)->membuf.aptr, D.22013
	movq	%rax, %rdx	# D.22013, D.22016
	movq	-40(%rbp), %rax	# cxt, tmp168
	movq	152(%rax), %rax	# cxt_11(D)->membuf.arena, D.22013
	subq	%rax, %rdx	# D.22016, D.22016
	movq	%rdx, %rax	# D.22016, D.22016
	movl	%eax, -28(%rbp)	# D.22016, offset
	movl	-32(%rbp), %eax	# nsz, tmp169
	movslq	%eax, %rdx	# tmp169, D.22014
	movq	-40(%rbp), %rax	# cxt, tmp170
	movq	152(%rax), %rax	# cxt_11(D)->membuf.arena, D.22013
	movq	%rdx, %rsi	# D.22014,
	movq	%rax, %rdi	# D.22013,
	call	Perl_safesysrealloc	#
	movq	-40(%rbp), %rdx	# cxt, tmp171
	movq	%rax, 152(%rdx)	# D.22009, cxt_11(D)->membuf.arena
	movl	-32(%rbp), %eax	# nsz, tmp172
	movslq	%eax, %rdx	# tmp172, D.22014
	movq	-40(%rbp), %rax	# cxt, tmp173
	movq	%rdx, 160(%rax)	# D.22014, cxt_11(D)->membuf.asiz
	movq	-40(%rbp), %rax	# cxt, tmp174
	movq	152(%rax), %rdx	# cxt_11(D)->membuf.arena, D.22013
	movl	-28(%rbp), %eax	# offset, tmp175
	cltq
	addq	%rax, %rdx	# D.22017, D.22013
	movq	-40(%rbp), %rax	# cxt, tmp176
	movq	%rdx, 168(%rax)	# D.22013, cxt_11(D)->membuf.aptr
	movq	-40(%rbp), %rax	# cxt, tmp177
	movq	152(%rax), %rdx	# cxt_11(D)->membuf.arena, D.22013
	movl	-32(%rbp), %eax	# nsz, tmp178
	cltq
	addq	%rax, %rdx	# D.22017, D.22013
	movq	-40(%rbp), %rax	# cxt, tmp179
	movq	%rdx, 176(%rax)	# D.22013, cxt_11(D)->membuf.aend
.LBE25:
	movq	-40(%rbp), %rax	# cxt, tmp181
	movq	168(%rax), %rax	# cxt_11(D)->membuf.aptr, D.22013
	leaq	1(%rax), %rcx	#, D.22013
	movq	-40(%rbp), %rdx	# cxt, tmp182
	movq	%rcx, 168(%rdx)	# D.22013, cxt_11(D)->membuf.aptr
	movb	$20, (%rax)	#, *_41
	jmp	.L91	#
.L86:
	movq	-40(%rbp), %rax	# cxt, tmp183
	movq	216(%rax), %rax	# cxt_11(D)->fio, D.22012
	movl	$20, %esi	#,
	movq	%rax, %rdi	# D.22012,
	call	PerlIO_putc	#
	cmpl	$-1, %eax	#, D.22008
	jne	.L89	#,
	.loc 1 1857 0 discriminator 1
	movl	$-1, %eax	#, D.22008
	jmp	.L90	#
.L89:
	.loc 1 1857 0 discriminator 2
	jmp	.L91	#
.L85:
	.loc 1 1859 0 is_stmt 1
	movq	-40(%rbp), %rax	# cxt, tmp184
	movq	216(%rax), %rax	# cxt_11(D)->fio, D.22012
	testq	%rax, %rax	# D.22012
	jne	.L92	#,
	.loc 1 1859 0 is_stmt 0 discriminator 1
	movq	-40(%rbp), %rax	# cxt, tmp185
	movq	168(%rax), %rdx	# cxt_11(D)->membuf.aptr, D.22013
	movq	-40(%rbp), %rax	# cxt, tmp186
	movq	176(%rax), %rax	# cxt_11(D)->membuf.aend, D.22013
	cmpq	%rax, %rdx	# D.22013, D.22013
	jae	.L93	#,
	movq	-40(%rbp), %rax	# cxt, tmp187
	movq	168(%rax), %rax	# cxt_11(D)->membuf.aptr, D.22013
	leaq	1(%rax), %rcx	#, D.22013
	movq	-40(%rbp), %rdx	# cxt, tmp188
	movq	%rcx, 168(%rdx)	# D.22013, cxt_11(D)->membuf.aptr
	movb	$4, (%rax)	#, *_50
	jmp	.L91	#
.L93:
.LBB26:
	.loc 1 1859 0 discriminator 2
	movq	-40(%rbp), %rax	# cxt, tmp189
	movq	160(%rax), %rax	# cxt_11(D)->membuf.asiz, D.22014
	addl	$8192, %eax	#, D.22015
	andl	$-8192, %eax	#, tmp190
	movl	%eax, -24(%rbp)	# tmp190, nsz
	movq	-40(%rbp), %rax	# cxt, tmp191
	movq	168(%rax), %rax	# cxt_11(D)->membuf.aptr, D.22013
	movq	%rax, %rdx	# D.22013, D.22016
	movq	-40(%rbp), %rax	# cxt, tmp192
	movq	152(%rax), %rax	# cxt_11(D)->membuf.arena, D.22013
	subq	%rax, %rdx	# D.22016, D.22016
	movq	%rdx, %rax	# D.22016, D.22016
	movl	%eax, -20(%rbp)	# D.22016, offset
	movl	-24(%rbp), %eax	# nsz, tmp193
	movslq	%eax, %rdx	# tmp193, D.22014
	movq	-40(%rbp), %rax	# cxt, tmp194
	movq	152(%rax), %rax	# cxt_11(D)->membuf.arena, D.22013
	movq	%rdx, %rsi	# D.22014,
	movq	%rax, %rdi	# D.22013,
	call	Perl_safesysrealloc	#
	movq	-40(%rbp), %rdx	# cxt, tmp195
	movq	%rax, 152(%rdx)	# D.22009, cxt_11(D)->membuf.arena
	movl	-24(%rbp), %eax	# nsz, tmp196
	movslq	%eax, %rdx	# tmp196, D.22014
	movq	-40(%rbp), %rax	# cxt, tmp197
	movq	%rdx, 160(%rax)	# D.22014, cxt_11(D)->membuf.asiz
	movq	-40(%rbp), %rax	# cxt, tmp198
	movq	152(%rax), %rdx	# cxt_11(D)->membuf.arena, D.22013
	movl	-20(%rbp), %eax	# offset, tmp199
	cltq
	addq	%rax, %rdx	# D.22017, D.22013
	movq	-40(%rbp), %rax	# cxt, tmp200
	movq	%rdx, 168(%rax)	# D.22013, cxt_11(D)->membuf.aptr
	movq	-40(%rbp), %rax	# cxt, tmp201
	movq	152(%rax), %rdx	# cxt_11(D)->membuf.arena, D.22013
	movl	-24(%rbp), %eax	# nsz, tmp202
	cltq
	addq	%rax, %rdx	# D.22017, D.22013
	movq	-40(%rbp), %rax	# cxt, tmp203
	movq	%rdx, 176(%rax)	# D.22013, cxt_11(D)->membuf.aend
.LBE26:
	movq	-40(%rbp), %rax	# cxt, tmp205
	movq	168(%rax), %rax	# cxt_11(D)->membuf.aptr, D.22013
	leaq	1(%rax), %rcx	#, D.22013
	movq	-40(%rbp), %rdx	# cxt, tmp206
	movq	%rcx, 168(%rdx)	# D.22013, cxt_11(D)->membuf.aptr
	movb	$4, (%rax)	#, *_75
.LBE24:
	jmp	.L95	#
.L92:
.LBB27:
	movq	-40(%rbp), %rax	# cxt, tmp207
	movq	216(%rax), %rax	# cxt_11(D)->fio, D.22012
	movl	$4, %esi	#,
	movq	%rax, %rdi	# D.22012,
	call	PerlIO_putc	#
	cmpl	$-1, %eax	#, D.22008
	jne	.L91	#,
	.loc 1 1859 0 discriminator 1
	movl	$-1, %eax	#, D.22008
	jmp	.L90	#
.L91:
.LBE27:
	jmp	.L95	#
.L84:
	.loc 1 1861 0 is_stmt 1
	movq	-40(%rbp), %rax	# cxt, tmp208
	movq	216(%rax), %rax	# cxt_11(D)->fio, D.22012
	testq	%rax, %rax	# D.22012
	jne	.L96	#,
	.loc 1 1861 0 is_stmt 0 discriminator 1
	movq	-40(%rbp), %rax	# cxt, tmp209
	movq	168(%rax), %rdx	# cxt_11(D)->membuf.aptr, D.22013
	movq	-40(%rbp), %rax	# cxt, tmp210
	movq	176(%rax), %rax	# cxt_11(D)->membuf.aend, D.22013
	cmpq	%rax, %rdx	# D.22013, D.22013
	jae	.L97	#,
	movq	-40(%rbp), %rax	# cxt, tmp211
	movq	168(%rax), %rax	# cxt_11(D)->membuf.aptr, D.22013
	leaq	1(%rax), %rcx	#, D.22013
	movq	-40(%rbp), %rdx	# cxt, tmp212
	movq	%rcx, 168(%rdx)	# D.22013, cxt_11(D)->membuf.aptr
	movb	$4, (%rax)	#, *_84
	jmp	.L95	#
.L97:
.LBB28:
	.loc 1 1861 0 discriminator 2
	movq	-40(%rbp), %rax	# cxt, tmp213
	movq	160(%rax), %rax	# cxt_11(D)->membuf.asiz, D.22014
	addl	$8192, %eax	#, D.22015
	andl	$-8192, %eax	#, tmp214
	movl	%eax, -16(%rbp)	# tmp214, nsz
	movq	-40(%rbp), %rax	# cxt, tmp215
	movq	168(%rax), %rax	# cxt_11(D)->membuf.aptr, D.22013
	movq	%rax, %rdx	# D.22013, D.22016
	movq	-40(%rbp), %rax	# cxt, tmp216
	movq	152(%rax), %rax	# cxt_11(D)->membuf.arena, D.22013
	subq	%rax, %rdx	# D.22016, D.22016
	movq	%rdx, %rax	# D.22016, D.22016
	movl	%eax, -12(%rbp)	# D.22016, offset
	movl	-16(%rbp), %eax	# nsz, tmp217
	movslq	%eax, %rdx	# tmp217, D.22014
	movq	-40(%rbp), %rax	# cxt, tmp218
	movq	152(%rax), %rax	# cxt_11(D)->membuf.arena, D.22013
	movq	%rdx, %rsi	# D.22014,
	movq	%rax, %rdi	# D.22013,
	call	Perl_safesysrealloc	#
	movq	-40(%rbp), %rdx	# cxt, tmp219
	movq	%rax, 152(%rdx)	# D.22009, cxt_11(D)->membuf.arena
	movl	-16(%rbp), %eax	# nsz, tmp220
	movslq	%eax, %rdx	# tmp220, D.22014
	movq	-40(%rbp), %rax	# cxt, tmp221
	movq	%rdx, 160(%rax)	# D.22014, cxt_11(D)->membuf.asiz
	movq	-40(%rbp), %rax	# cxt, tmp222
	movq	152(%rax), %rdx	# cxt_11(D)->membuf.arena, D.22013
	movl	-12(%rbp), %eax	# offset, tmp223
	cltq
	addq	%rax, %rdx	# D.22017, D.22013
	movq	-40(%rbp), %rax	# cxt, tmp224
	movq	%rdx, 168(%rax)	# D.22013, cxt_11(D)->membuf.aptr
	movq	-40(%rbp), %rax	# cxt, tmp225
	movq	152(%rax), %rdx	# cxt_11(D)->membuf.arena, D.22013
	movl	-16(%rbp), %eax	# nsz, tmp226
	cltq
	addq	%rax, %rdx	# D.22017, D.22013
	movq	-40(%rbp), %rax	# cxt, tmp227
	movq	%rdx, 176(%rax)	# D.22013, cxt_11(D)->membuf.aend
.LBE28:
	movq	-40(%rbp), %rax	# cxt, tmp229
	movq	168(%rax), %rax	# cxt_11(D)->membuf.aptr, D.22013
	leaq	1(%rax), %rcx	#, D.22013
	movq	-40(%rbp), %rdx	# cxt, tmp230
	movq	%rcx, 168(%rdx)	# D.22013, cxt_11(D)->membuf.aptr
	movb	$4, (%rax)	#, *_109
	jmp	.L95	#
.L96:
	movq	-40(%rbp), %rax	# cxt, tmp231
	movq	216(%rax), %rax	# cxt_11(D)->fio, D.22012
	movl	$4, %esi	#,
	movq	%rax, %rdi	# D.22012,
	call	PerlIO_putc	#
	cmpl	$-1, %eax	#, D.22008
	jne	.L95	#,
	.loc 1 1861 0 discriminator 1
	movl	$-1, %eax	#, D.22008
	jmp	.L90	#
.L95:
	.loc 1 1863 0 is_stmt 1
	movq	-48(%rbp), %rdx	# sv, tmp232
	movq	-40(%rbp), %rax	# cxt, tmp233
	movq	%rdx, %rsi	# tmp232,
	movq	%rax, %rdi	# tmp233,
	call	store	#
.L90:
	.loc 1 1864 0
	leave
	.cfi_def_cfa 7, 8
	ret
	.cfi_endproc
.LFE21:
	.size	store_ref, .-store_ref
	.section	.rodata
	.align 8
.LC2:
	.string	"Can't determine type of %s(0x%lx)"
	.text
	.type	store_scalar, @function
store_scalar:
.LFB22:
	.loc 1 1878 0
	.cfi_startproc
	pushq	%rbp	#
	.cfi_def_cfa_offset 16
	.cfi_offset 6, -16
	movq	%rsp, %rbp	#,
	.cfi_def_cfa_register 6
	pushq	%rbx	#
	subq	$296, %rsp	#,
	.cfi_offset 3, -24
	movq	%rdi, -280(%rbp)	# cxt, cxt
	movq	%rsi, -288(%rbp)	# sv, sv
	.loc 1 1882 0
	movq	-288(%rbp), %rax	# sv, tmp1022
	movl	12(%rax), %eax	# sv_12(D)->sv_flags, tmp1023
	movl	%eax, -252(%rbp)	# tmp1023, flags
	.loc 1 1892 0
	movl	-252(%rbp), %eax	# flags, tmp1024
	andl	$118423552, %eax	#, D.22019
	testl	%eax, %eax	# D.22019
	jne	.L100	#,
	.loc 1 1893 0
	cmpq	$PL_sv_undef, -288(%rbp)	#, sv
	jne	.L101	#,
	.loc 1 1895 0
	movq	-280(%rbp), %rax	# cxt, tmp1025
	movq	216(%rax), %rax	# cxt_15(D)->fio, D.22020
	testq	%rax, %rax	# D.22020
	jne	.L102	#,
	.loc 1 1895 0 is_stmt 0 discriminator 1
	movq	-280(%rbp), %rax	# cxt, tmp1026
	movq	168(%rax), %rdx	# cxt_15(D)->membuf.aptr, D.22021
	movq	-280(%rbp), %rax	# cxt, tmp1027
	movq	176(%rax), %rax	# cxt_15(D)->membuf.aend, D.22021
	cmpq	%rax, %rdx	# D.22021, D.22021
	jae	.L103	#,
	movq	-280(%rbp), %rax	# cxt, tmp1028
	movq	168(%rax), %rax	# cxt_15(D)->membuf.aptr, D.22021
	leaq	1(%rax), %rcx	#, D.22021
	movq	-280(%rbp), %rdx	# cxt, tmp1029
	movq	%rcx, 168(%rdx)	# D.22021, cxt_15(D)->membuf.aptr
	movb	$14, (%rax)	#, *_20
	jmp	.L105	#
.L103:
.LBB29:
	.loc 1 1895 0 discriminator 2
	movq	-280(%rbp), %rax	# cxt, tmp1030
	movq	160(%rax), %rax	# cxt_15(D)->membuf.asiz, D.22022
	addl	$8192, %eax	#, D.22023
	andl	$-8192, %eax	#, tmp1031
	movl	%eax, -248(%rbp)	# tmp1031, nsz
	movq	-280(%rbp), %rax	# cxt, tmp1032
	movq	168(%rax), %rax	# cxt_15(D)->membuf.aptr, D.22021
	movq	%rax, %rdx	# D.22021, D.22024
	movq	-280(%rbp), %rax	# cxt, tmp1033
	movq	152(%rax), %rax	# cxt_15(D)->membuf.arena, D.22021
	subq	%rax, %rdx	# D.22024, D.22024
	movq	%rdx, %rax	# D.22024, D.22024
	movl	%eax, -244(%rbp)	# D.22024, offset
	movl	-248(%rbp), %eax	# nsz, tmp1034
	movslq	%eax, %rdx	# tmp1034, D.22022
	movq	-280(%rbp), %rax	# cxt, tmp1035
	movq	152(%rax), %rax	# cxt_15(D)->membuf.arena, D.22021
	movq	%rdx, %rsi	# D.22022,
	movq	%rax, %rdi	# D.22021,
	call	Perl_safesysrealloc	#
	movq	-280(%rbp), %rdx	# cxt, tmp1036
	movq	%rax, 152(%rdx)	# D.22025, cxt_15(D)->membuf.arena
	movl	-248(%rbp), %eax	# nsz, tmp1037
	movslq	%eax, %rdx	# tmp1037, D.22022
	movq	-280(%rbp), %rax	# cxt, tmp1038
	movq	%rdx, 160(%rax)	# D.22022, cxt_15(D)->membuf.asiz
	movq	-280(%rbp), %rax	# cxt, tmp1039
	movq	152(%rax), %rdx	# cxt_15(D)->membuf.arena, D.22021
	movl	-244(%rbp), %eax	# offset, tmp1040
	cltq
	addq	%rax, %rdx	# D.22026, D.22021
	movq	-280(%rbp), %rax	# cxt, tmp1041
	movq	%rdx, 168(%rax)	# D.22021, cxt_15(D)->membuf.aptr
	movq	-280(%rbp), %rax	# cxt, tmp1042
	movq	152(%rax), %rdx	# cxt_15(D)->membuf.arena, D.22021
	movl	-248(%rbp), %eax	# nsz, tmp1043
	cltq
	addq	%rax, %rdx	# D.22026, D.22021
	movq	-280(%rbp), %rax	# cxt, tmp1044
	movq	%rdx, 176(%rax)	# D.22021, cxt_15(D)->membuf.aend
.LBE29:
	movq	-280(%rbp), %rax	# cxt, tmp1046
	movq	168(%rax), %rax	# cxt_15(D)->membuf.aptr, D.22021
	leaq	1(%rax), %rcx	#, D.22021
	movq	-280(%rbp), %rdx	# cxt, tmp1047
	movq	%rcx, 168(%rdx)	# D.22021, cxt_15(D)->membuf.aptr
	movb	$14, (%rax)	#, *_45
	jmp	.L105	#
.L102:
	movq	-280(%rbp), %rax	# cxt, tmp1048
	movq	216(%rax), %rax	# cxt_15(D)->fio, D.22020
	movl	$14, %esi	#,
	movq	%rax, %rdi	# D.22020,
	call	PerlIO_putc	#
	cmpl	$-1, %eax	#, D.22018
	jne	.L105	#,
	.loc 1 1895 0 discriminator 1
	movl	$-1, %eax	#, D.22018
	jmp	.L244	#
.L101:
	.loc 1 1898 0 is_stmt 1
	movq	-280(%rbp), %rax	# cxt, tmp1049
	movq	216(%rax), %rax	# cxt_15(D)->fio, D.22020
	testq	%rax, %rax	# D.22020
	jne	.L107	#,
	.loc 1 1898 0 is_stmt 0 discriminator 1
	movq	-280(%rbp), %rax	# cxt, tmp1050
	movq	168(%rax), %rdx	# cxt_15(D)->membuf.aptr, D.22021
	movq	-280(%rbp), %rax	# cxt, tmp1051
	movq	176(%rax), %rax	# cxt_15(D)->membuf.aend, D.22021
	cmpq	%rax, %rdx	# D.22021, D.22021
	jae	.L108	#,
	movq	-280(%rbp), %rax	# cxt, tmp1052
	movq	168(%rax), %rax	# cxt_15(D)->membuf.aptr, D.22021
	leaq	1(%rax), %rcx	#, D.22021
	movq	-280(%rbp), %rdx	# cxt, tmp1053
	movq	%rcx, 168(%rdx)	# D.22021, cxt_15(D)->membuf.aptr
	movb	$5, (%rax)	#, *_54
	jmp	.L105	#
.L108:
.LBB30:
	.loc 1 1898 0 discriminator 2
	movq	-280(%rbp), %rax	# cxt, tmp1054
	movq	160(%rax), %rax	# cxt_15(D)->membuf.asiz, D.22022
	addl	$8192, %eax	#, D.22023
	andl	$-8192, %eax	#, tmp1055
	movl	%eax, -240(%rbp)	# tmp1055, nsz
	movq	-280(%rbp), %rax	# cxt, tmp1056
	movq	168(%rax), %rax	# cxt_15(D)->membuf.aptr, D.22021
	movq	%rax, %rdx	# D.22021, D.22024
	movq	-280(%rbp), %rax	# cxt, tmp1057
	movq	152(%rax), %rax	# cxt_15(D)->membuf.arena, D.22021
	subq	%rax, %rdx	# D.22024, D.22024
	movq	%rdx, %rax	# D.22024, D.22024
	movl	%eax, -236(%rbp)	# D.22024, offset
	movl	-240(%rbp), %eax	# nsz, tmp1058
	movslq	%eax, %rdx	# tmp1058, D.22022
	movq	-280(%rbp), %rax	# cxt, tmp1059
	movq	152(%rax), %rax	# cxt_15(D)->membuf.arena, D.22021
	movq	%rdx, %rsi	# D.22022,
	movq	%rax, %rdi	# D.22021,
	call	Perl_safesysrealloc	#
	movq	-280(%rbp), %rdx	# cxt, tmp1060
	movq	%rax, 152(%rdx)	# D.22025, cxt_15(D)->membuf.arena
	movl	-240(%rbp), %eax	# nsz, tmp1061
	movslq	%eax, %rdx	# tmp1061, D.22022
	movq	-280(%rbp), %rax	# cxt, tmp1062
	movq	%rdx, 160(%rax)	# D.22022, cxt_15(D)->membuf.asiz
	movq	-280(%rbp), %rax	# cxt, tmp1063
	movq	152(%rax), %rdx	# cxt_15(D)->membuf.arena, D.22021
	movl	-236(%rbp), %eax	# offset, tmp1064
	cltq
	addq	%rax, %rdx	# D.22026, D.22021
	movq	-280(%rbp), %rax	# cxt, tmp1065
	movq	%rdx, 168(%rax)	# D.22021, cxt_15(D)->membuf.aptr
	movq	-280(%rbp), %rax	# cxt, tmp1066
	movq	152(%rax), %rdx	# cxt_15(D)->membuf.arena, D.22021
	movl	-240(%rbp), %eax	# nsz, tmp1067
	cltq
	addq	%rax, %rdx	# D.22026, D.22021
	movq	-280(%rbp), %rax	# cxt, tmp1068
	movq	%rdx, 176(%rax)	# D.22021, cxt_15(D)->membuf.aend
.LBE30:
	movq	-280(%rbp), %rax	# cxt, tmp1070
	movq	168(%rax), %rax	# cxt_15(D)->membuf.aptr, D.22021
	leaq	1(%rax), %rcx	#, D.22021
	movq	-280(%rbp), %rdx	# cxt, tmp1071
	movq	%rcx, 168(%rdx)	# D.22021, cxt_15(D)->membuf.aptr
	movb	$5, (%rax)	#, *_79
	jmp	.L105	#
.L107:
	movq	-280(%rbp), %rax	# cxt, tmp1072
	movq	216(%rax), %rax	# cxt_15(D)->fio, D.22020
	movl	$5, %esi	#,
	movq	%rax, %rdi	# D.22020,
	call	PerlIO_putc	#
	cmpl	$-1, %eax	#, D.22018
	jne	.L105	#,
	.loc 1 1898 0 discriminator 1
	movl	$-1, %eax	#, D.22018
	jmp	.L244	#
.L105:
	.loc 1 1900 0 is_stmt 1
	movl	$0, %eax	#, D.22018
	jmp	.L244	#
.L100:
	.loc 1 1934 0
	movl	-252(%rbp), %eax	# flags, tmp1073
	andl	$8781824, %eax	#, D.22019
	cmpl	$8781824, %eax	#, D.22019
	jne	.L110	#,
	.loc 1 1935 0
	cmpq	$PL_sv_yes, -288(%rbp)	#, sv
	jne	.L111	#,
	.loc 1 1937 0
	movq	-280(%rbp), %rax	# cxt, tmp1074
	movq	216(%rax), %rax	# cxt_15(D)->fio, D.22020
	testq	%rax, %rax	# D.22020
	jne	.L112	#,
	.loc 1 1937 0 is_stmt 0 discriminator 1
	movq	-280(%rbp), %rax	# cxt, tmp1075
	movq	168(%rax), %rdx	# cxt_15(D)->membuf.aptr, D.22021
	movq	-280(%rbp), %rax	# cxt, tmp1076
	movq	176(%rax), %rax	# cxt_15(D)->membuf.aend, D.22021
	cmpq	%rax, %rdx	# D.22021, D.22021
	jae	.L113	#,
	movq	-280(%rbp), %rax	# cxt, tmp1077
	movq	168(%rax), %rax	# cxt_15(D)->membuf.aptr, D.22021
	leaq	1(%rax), %rcx	#, D.22021
	movq	-280(%rbp), %rdx	# cxt, tmp1078
	movq	%rcx, 168(%rdx)	# D.22021, cxt_15(D)->membuf.aptr
	movb	$15, (%rax)	#, *_90
	jmp	.L115	#
.L113:
.LBB31:
	.loc 1 1937 0 discriminator 2
	movq	-280(%rbp), %rax	# cxt, tmp1079
	movq	160(%rax), %rax	# cxt_15(D)->membuf.asiz, D.22022
	addl	$8192, %eax	#, D.22023
	andl	$-8192, %eax	#, tmp1080
	movl	%eax, -232(%rbp)	# tmp1080, nsz
	movq	-280(%rbp), %rax	# cxt, tmp1081
	movq	168(%rax), %rax	# cxt_15(D)->membuf.aptr, D.22021
	movq	%rax, %rdx	# D.22021, D.22024
	movq	-280(%rbp), %rax	# cxt, tmp1082
	movq	152(%rax), %rax	# cxt_15(D)->membuf.arena, D.22021
	subq	%rax, %rdx	# D.22024, D.22024
	movq	%rdx, %rax	# D.22024, D.22024
	movl	%eax, -228(%rbp)	# D.22024, offset
	movl	-232(%rbp), %eax	# nsz, tmp1083
	movslq	%eax, %rdx	# tmp1083, D.22022
	movq	-280(%rbp), %rax	# cxt, tmp1084
	movq	152(%rax), %rax	# cxt_15(D)->membuf.arena, D.22021
	movq	%rdx, %rsi	# D.22022,
	movq	%rax, %rdi	# D.22021,
	call	Perl_safesysrealloc	#
	movq	-280(%rbp), %rdx	# cxt, tmp1085
	movq	%rax, 152(%rdx)	# D.22025, cxt_15(D)->membuf.arena
	movl	-232(%rbp), %eax	# nsz, tmp1086
	movslq	%eax, %rdx	# tmp1086, D.22022
	movq	-280(%rbp), %rax	# cxt, tmp1087
	movq	%rdx, 160(%rax)	# D.22022, cxt_15(D)->membuf.asiz
	movq	-280(%rbp), %rax	# cxt, tmp1088
	movq	152(%rax), %rdx	# cxt_15(D)->membuf.arena, D.22021
	movl	-228(%rbp), %eax	# offset, tmp1089
	cltq
	addq	%rax, %rdx	# D.22026, D.22021
	movq	-280(%rbp), %rax	# cxt, tmp1090
	movq	%rdx, 168(%rax)	# D.22021, cxt_15(D)->membuf.aptr
	movq	-280(%rbp), %rax	# cxt, tmp1091
	movq	152(%rax), %rdx	# cxt_15(D)->membuf.arena, D.22021
	movl	-232(%rbp), %eax	# nsz, tmp1092
	cltq
	addq	%rax, %rdx	# D.22026, D.22021
	movq	-280(%rbp), %rax	# cxt, tmp1093
	movq	%rdx, 176(%rax)	# D.22021, cxt_15(D)->membuf.aend
.LBE31:
	movq	-280(%rbp), %rax	# cxt, tmp1095
	movq	168(%rax), %rax	# cxt_15(D)->membuf.aptr, D.22021
	leaq	1(%rax), %rcx	#, D.22021
	movq	-280(%rbp), %rdx	# cxt, tmp1096
	movq	%rcx, 168(%rdx)	# D.22021, cxt_15(D)->membuf.aptr
	movb	$15, (%rax)	#, *_115
	jmp	.L115	#
.L112:
	movq	-280(%rbp), %rax	# cxt, tmp1097
	movq	216(%rax), %rax	# cxt_15(D)->fio, D.22020
	movl	$15, %esi	#,
	movq	%rax, %rdi	# D.22020,
	call	PerlIO_putc	#
	cmpl	$-1, %eax	#, D.22018
	jne	.L115	#,
	.loc 1 1937 0 discriminator 1
	movl	$-1, %eax	#, D.22018
	jmp	.L244	#
.L111:
	.loc 1 1938 0 is_stmt 1
	cmpq	$PL_sv_no, -288(%rbp)	#, sv
	jne	.L116	#,
	.loc 1 1940 0
	movq	-280(%rbp), %rax	# cxt, tmp1098
	movq	216(%rax), %rax	# cxt_15(D)->fio, D.22020
	testq	%rax, %rax	# D.22020
	jne	.L117	#,
	.loc 1 1940 0 is_stmt 0 discriminator 1
	movq	-280(%rbp), %rax	# cxt, tmp1099
	movq	168(%rax), %rdx	# cxt_15(D)->membuf.aptr, D.22021
	movq	-280(%rbp), %rax	# cxt, tmp1100
	movq	176(%rax), %rax	# cxt_15(D)->membuf.aend, D.22021
	cmpq	%rax, %rdx	# D.22021, D.22021
	jae	.L118	#,
	movq	-280(%rbp), %rax	# cxt, tmp1101
	movq	168(%rax), %rax	# cxt_15(D)->membuf.aptr, D.22021
	leaq	1(%rax), %rcx	#, D.22021
	movq	-280(%rbp), %rdx	# cxt, tmp1102
	movq	%rcx, 168(%rdx)	# D.22021, cxt_15(D)->membuf.aptr
	movb	$16, (%rax)	#, *_124
	jmp	.L115	#
.L118:
.LBB32:
	.loc 1 1940 0 discriminator 2
	movq	-280(%rbp), %rax	# cxt, tmp1103
	movq	160(%rax), %rax	# cxt_15(D)->membuf.asiz, D.22022
	addl	$8192, %eax	#, D.22023
	andl	$-8192, %eax	#, tmp1104
	movl	%eax, -224(%rbp)	# tmp1104, nsz
	movq	-280(%rbp), %rax	# cxt, tmp1105
	movq	168(%rax), %rax	# cxt_15(D)->membuf.aptr, D.22021
	movq	%rax, %rdx	# D.22021, D.22024
	movq	-280(%rbp), %rax	# cxt, tmp1106
	movq	152(%rax), %rax	# cxt_15(D)->membuf.arena, D.22021
	subq	%rax, %rdx	# D.22024, D.22024
	movq	%rdx, %rax	# D.22024, D.22024
	movl	%eax, -220(%rbp)	# D.22024, offset
	movl	-224(%rbp), %eax	# nsz, tmp1107
	movslq	%eax, %rdx	# tmp1107, D.22022
	movq	-280(%rbp), %rax	# cxt, tmp1108
	movq	152(%rax), %rax	# cxt_15(D)->membuf.arena, D.22021
	movq	%rdx, %rsi	# D.22022,
	movq	%rax, %rdi	# D.22021,
	call	Perl_safesysrealloc	#
	movq	-280(%rbp), %rdx	# cxt, tmp1109
	movq	%rax, 152(%rdx)	# D.22025, cxt_15(D)->membuf.arena
	movl	-224(%rbp), %eax	# nsz, tmp1110
	movslq	%eax, %rdx	# tmp1110, D.22022
	movq	-280(%rbp), %rax	# cxt, tmp1111
	movq	%rdx, 160(%rax)	# D.22022, cxt_15(D)->membuf.asiz
	movq	-280(%rbp), %rax	# cxt, tmp1112
	movq	152(%rax), %rdx	# cxt_15(D)->membuf.arena, D.22021
	movl	-220(%rbp), %eax	# offset, tmp1113
	cltq
	addq	%rax, %rdx	# D.22026, D.22021
	movq	-280(%rbp), %rax	# cxt, tmp1114
	movq	%rdx, 168(%rax)	# D.22021, cxt_15(D)->membuf.aptr
	movq	-280(%rbp), %rax	# cxt, tmp1115
	movq	152(%rax), %rdx	# cxt_15(D)->membuf.arena, D.22021
	movl	-224(%rbp), %eax	# nsz, tmp1116
	cltq
	addq	%rax, %rdx	# D.22026, D.22021
	movq	-280(%rbp), %rax	# cxt, tmp1117
	movq	%rdx, 176(%rax)	# D.22021, cxt_15(D)->membuf.aend
.LBE32:
	movq	-280(%rbp), %rax	# cxt, tmp1119
	movq	168(%rax), %rax	# cxt_15(D)->membuf.aptr, D.22021
	leaq	1(%rax), %rcx	#, D.22021
	movq	-280(%rbp), %rdx	# cxt, tmp1120
	movq	%rcx, 168(%rdx)	# D.22021, cxt_15(D)->membuf.aptr
	movb	$16, (%rax)	#, *_149
	jmp	.L115	#
.L117:
	movq	-280(%rbp), %rax	# cxt, tmp1121
	movq	216(%rax), %rax	# cxt_15(D)->fio, D.22020
	movl	$16, %esi	#,
	movq	%rax, %rdi	# D.22020,
	call	PerlIO_putc	#
	cmpl	$-1, %eax	#, D.22018
	jne	.L115	#,
	.loc 1 1940 0 discriminator 1
	movl	$-1, %eax	#, D.22018
	jmp	.L244	#
.L116:
	.loc 1 1942 0 is_stmt 1
	movq	-288(%rbp), %rax	# sv, tmp1122
	movl	12(%rax), %eax	# sv_12(D)->sv_flags, D.22019
	andl	$262144, %eax	#, D.22019
	testl	%eax, %eax	# D.22019
	je	.L120	#,
	.loc 1 1942 0 is_stmt 0 discriminator 1
	movq	-288(%rbp), %rax	# sv, tmp1123
	movq	(%rax), %rax	# sv_12(D)->sv_any, D.22025
	movq	8(%rax), %rax	# MEM[(struct XPV *)_156].xpv_cur, len.56
	movq	%rax, -32(%rbp)	# len.56, len
	movq	-288(%rbp), %rax	# sv, tmp1124
	movq	(%rax), %rax	# sv_12(D)->sv_any, D.22025
	movq	(%rax), %rax	# MEM[(struct XPV *)_158].xpv_pv, iftmp.55
	jmp	.L121	#
.L120:
	.loc 1 1942 0 discriminator 2
	leaq	-32(%rbp), %rcx	#, tmp1125
	movq	-288(%rbp), %rax	# sv, tmp1126
	movl	$2, %edx	#,
	movq	%rcx, %rsi	# tmp1125,
	movq	%rax, %rdi	# tmp1126,
	call	Perl_sv_2pv_flags	#
.L121:
	.loc 1 1942 0 discriminator 3
	movq	%rax, -24(%rbp)	# iftmp.55, pv
	.loc 1 1943 0 is_stmt 1 discriminator 3
	jmp	.L122	#
.L110:
	.loc 1 1945 0
	movl	-252(%rbp), %eax	# flags, tmp1127
	andl	$262144, %eax	#, D.22019
	testl	%eax, %eax	# D.22019
	je	.L123	#,
	.loc 1 1947 0
	jmp	.L124	#
.L123:
	.loc 1 1956 0
	movl	-252(%rbp), %eax	# flags, tmp1128
	andl	$65536, %eax	#, D.22019
	.loc 1 1948 0
	testl	%eax, %eax	# D.22019
	je	.L125	#,
	.loc 1 1959 0
	movq	-288(%rbp), %rax	# sv, tmp1129
	movl	12(%rax), %eax	# sv_12(D)->sv_flags, D.22019
	andl	$65536, %eax	#, D.22019
	testl	%eax, %eax	# D.22019
	je	.L126	#,
	.loc 1 1959 0 is_stmt 0 discriminator 1
	movq	-288(%rbp), %rax	# sv, tmp1130
	movq	(%rax), %rax	# sv_12(D)->sv_any, D.22025
	movq	24(%rax), %rax	# MEM[(struct XPVIV *)_166].xiv_iv, iftmp.57
	jmp	.L127	#
.L126:
	.loc 1 1959 0 discriminator 2
	movq	-288(%rbp), %rax	# sv, tmp1131
	movq	%rax, %rdi	# tmp1131,
	call	Perl_sv_2iv	#
.L127:
	.loc 1 1959 0 discriminator 3
	movq	%rax, -40(%rbp)	# iftmp.57, iv
.L128:
	.loc 1 1971 0 is_stmt 1
	movl	-252(%rbp), %eax	# flags, flags.58
	testl	%eax, %eax	# flags.58
	jns	.L129	#,
	.loc 1 1971 0 is_stmt 0 discriminator 1
	movq	-288(%rbp), %rax	# sv, tmp1132
	movl	12(%rax), %eax	# sv_12(D)->sv_flags, D.22019
	andl	$65536, %eax	#, D.22019
	testl	%eax, %eax	# D.22019
	je	.L130	#,
	movq	-288(%rbp), %rax	# sv, tmp1133
	movq	(%rax), %rax	# sv_12(D)->sv_any, D.22025
	movq	24(%rax), %rax	# MEM[(struct XPVUV *)_268].xuv_uv, D.22022
	shrq	$63, %rax	#, tmp1134
	jmp	.L131	#
.L130:
	.loc 1 1971 0 discriminator 2
	movq	-288(%rbp), %rax	# sv, tmp1135
	movq	%rax, %rdi	# tmp1135,
	call	Perl_sv_2uv	#
	shrq	$63, %rax	#, tmp1136
.L131:
	.loc 1 1971 0 discriminator 3
	testb	%al, %al	# iftmp.59
	je	.L129	#,
	.loc 1 1973 0 is_stmt 1
	jmp	.L124	#
.L129:
	.loc 1 1981 0
	movq	-40(%rbp), %rax	# iv, iv.60
	cmpq	$-128, %rax	#, iv.60
	jl	.L132	#,
	.loc 1 1981 0 is_stmt 0 discriminator 1
	movq	-40(%rbp), %rax	# iv, iv.61
	cmpq	$127, %rax	#, iv.61
	jg	.L132	#,
.LBB33:
	.loc 1 1982 0 is_stmt 1
	movq	-40(%rbp), %rax	# iv, iv.62
	addl	$-128, %eax	#, tmp1137
	movb	%al, -263(%rbp)	# tmp1137, siv
	.loc 1 1983 0
	movq	-280(%rbp), %rax	# cxt, tmp1138
	movq	216(%rax), %rax	# cxt_15(D)->fio, D.22020
	testq	%rax, %rax	# D.22020
	jne	.L133	#,
	.loc 1 1983 0 is_stmt 0 discriminator 1
	movq	-280(%rbp), %rax	# cxt, tmp1139
	movq	168(%rax), %rdx	# cxt_15(D)->membuf.aptr, D.22021
	movq	-280(%rbp), %rax	# cxt, tmp1140
	movq	176(%rax), %rax	# cxt_15(D)->membuf.aend, D.22021
	cmpq	%rax, %rdx	# D.22021, D.22021
	jae	.L134	#,
	movq	-280(%rbp), %rax	# cxt, tmp1141
	movq	168(%rax), %rax	# cxt_15(D)->membuf.aptr, D.22021
	leaq	1(%rax), %rcx	#, D.22021
	movq	-280(%rbp), %rdx	# cxt, tmp1142
	movq	%rcx, 168(%rdx)	# D.22021, cxt_15(D)->membuf.aptr
	movb	$8, (%rax)	#, *_284
	jmp	.L136	#
.L134:
.LBB34:
	.loc 1 1983 0 discriminator 2
	movq	-280(%rbp), %rax	# cxt, tmp1143
	movq	160(%rax), %rax	# cxt_15(D)->membuf.asiz, D.22022
	addl	$8192, %eax	#, D.22023
	andl	$-8192, %eax	#, tmp1144
	movl	%eax, -200(%rbp)	# tmp1144, nsz
	movq	-280(%rbp), %rax	# cxt, tmp1145
	movq	168(%rax), %rax	# cxt_15(D)->membuf.aptr, D.22021
	movq	%rax, %rdx	# D.22021, D.22024
	movq	-280(%rbp), %rax	# cxt, tmp1146
	movq	152(%rax), %rax	# cxt_15(D)->membuf.arena, D.22021
	subq	%rax, %rdx	# D.22024, D.22024
	movq	%rdx, %rax	# D.22024, D.22024
	movl	%eax, -196(%rbp)	# D.22024, offset
	movl	-200(%rbp), %eax	# nsz, tmp1147
	movslq	%eax, %rdx	# tmp1147, D.22022
	movq	-280(%rbp), %rax	# cxt, tmp1148
	movq	152(%rax), %rax	# cxt_15(D)->membuf.arena, D.22021
	movq	%rdx, %rsi	# D.22022,
	movq	%rax, %rdi	# D.22021,
	call	Perl_safesysrealloc	#
	movq	-280(%rbp), %rdx	# cxt, tmp1149
	movq	%rax, 152(%rdx)	# D.22025, cxt_15(D)->membuf.arena
	movl	-200(%rbp), %eax	# nsz, tmp1150
	movslq	%eax, %rdx	# tmp1150, D.22022
	movq	-280(%rbp), %rax	# cxt, tmp1151
	movq	%rdx, 160(%rax)	# D.22022, cxt_15(D)->membuf.asiz
	movq	-280(%rbp), %rax	# cxt, tmp1152
	movq	152(%rax), %rdx	# cxt_15(D)->membuf.arena, D.22021
	movl	-196(%rbp), %eax	# offset, tmp1153
	cltq
	addq	%rax, %rdx	# D.22026, D.22021
	movq	-280(%rbp), %rax	# cxt, tmp1154
	movq	%rdx, 168(%rax)	# D.22021, cxt_15(D)->membuf.aptr
	movq	-280(%rbp), %rax	# cxt, tmp1155
	movq	152(%rax), %rdx	# cxt_15(D)->membuf.arena, D.22021
	movl	-200(%rbp), %eax	# nsz, tmp1156
	cltq
	addq	%rax, %rdx	# D.22026, D.22021
	movq	-280(%rbp), %rax	# cxt, tmp1157
	movq	%rdx, 176(%rax)	# D.22021, cxt_15(D)->membuf.aend
.LBE34:
	movq	-280(%rbp), %rax	# cxt, tmp1159
	movq	168(%rax), %rax	# cxt_15(D)->membuf.aptr, D.22021
	leaq	1(%rax), %rcx	#, D.22021
	movq	-280(%rbp), %rdx	# cxt, tmp1160
	movq	%rcx, 168(%rdx)	# D.22021, cxt_15(D)->membuf.aptr
	movb	$8, (%rax)	#, *_309
	jmp	.L136	#
.L133:
	movq	-280(%rbp), %rax	# cxt, tmp1161
	movq	216(%rax), %rax	# cxt_15(D)->fio, D.22020
	movl	$8, %esi	#,
	movq	%rax, %rdi	# D.22020,
	call	PerlIO_putc	#
	cmpl	$-1, %eax	#, D.22018
	jne	.L136	#,
	.loc 1 1983 0 discriminator 1
	movl	$-1, %eax	#, D.22018
	jmp	.L244	#
.L136:
	.loc 1 1984 0 is_stmt 1
	movq	-280(%rbp), %rax	# cxt, tmp1162
	movq	216(%rax), %rax	# cxt_15(D)->fio, D.22020
	testq	%rax, %rax	# D.22020
	jne	.L137	#,
	.loc 1 1984 0 is_stmt 0 discriminator 1
	movq	-280(%rbp), %rax	# cxt, tmp1163
	movq	168(%rax), %rdx	# cxt_15(D)->membuf.aptr, D.22021
	movq	-280(%rbp), %rax	# cxt, tmp1164
	movq	176(%rax), %rax	# cxt_15(D)->membuf.aend, D.22021
	cmpq	%rax, %rdx	# D.22021, D.22021
	jae	.L138	#,
	movq	-280(%rbp), %rax	# cxt, tmp1165
	movq	168(%rax), %rax	# cxt_15(D)->membuf.aptr, D.22021
	leaq	1(%rax), %rcx	#, D.22021
	movq	-280(%rbp), %rdx	# cxt, tmp1166
	movq	%rcx, 168(%rdx)	# D.22021, cxt_15(D)->membuf.aptr
	movzbl	-263(%rbp), %edx	# siv, siv.63
	movb	%dl, (%rax)	# siv.63, *_318
	jmp	.L140	#
.L138:
.LBB35:
	.loc 1 1984 0 discriminator 2
	movq	-280(%rbp), %rax	# cxt, tmp1167
	movq	160(%rax), %rax	# cxt_15(D)->membuf.asiz, D.22022
	addl	$8192, %eax	#, D.22023
	andl	$-8192, %eax	#, tmp1168
	movl	%eax, -192(%rbp)	# tmp1168, nsz
	movq	-280(%rbp), %rax	# cxt, tmp1169
	movq	168(%rax), %rax	# cxt_15(D)->membuf.aptr, D.22021
	movq	%rax, %rdx	# D.22021, D.22024
	movq	-280(%rbp), %rax	# cxt, tmp1170
	movq	152(%rax), %rax	# cxt_15(D)->membuf.arena, D.22021
	subq	%rax, %rdx	# D.22024, D.22024
	movq	%rdx, %rax	# D.22024, D.22024
	movl	%eax, -188(%rbp)	# D.22024, offset
	movl	-192(%rbp), %eax	# nsz, tmp1171
	movslq	%eax, %rdx	# tmp1171, D.22022
	movq	-280(%rbp), %rax	# cxt, tmp1172
	movq	152(%rax), %rax	# cxt_15(D)->membuf.arena, D.22021
	movq	%rdx, %rsi	# D.22022,
	movq	%rax, %rdi	# D.22021,
	call	Perl_safesysrealloc	#
	movq	-280(%rbp), %rdx	# cxt, tmp1173
	movq	%rax, 152(%rdx)	# D.22025, cxt_15(D)->membuf.arena
	movl	-192(%rbp), %eax	# nsz, tmp1174
	movslq	%eax, %rdx	# tmp1174, D.22022
	movq	-280(%rbp), %rax	# cxt, tmp1175
	movq	%rdx, 160(%rax)	# D.22022, cxt_15(D)->membuf.asiz
	movq	-280(%rbp), %rax	# cxt, tmp1176
	movq	152(%rax), %rdx	# cxt_15(D)->membuf.arena, D.22021
	movl	-188(%rbp), %eax	# offset, tmp1177
	cltq
	addq	%rax, %rdx	# D.22026, D.22021
	movq	-280(%rbp), %rax	# cxt, tmp1178
	movq	%rdx, 168(%rax)	# D.22021, cxt_15(D)->membuf.aptr
	movq	-280(%rbp), %rax	# cxt, tmp1179
	movq	152(%rax), %rdx	# cxt_15(D)->membuf.arena, D.22021
	movl	-192(%rbp), %eax	# nsz, tmp1180
	cltq
	addq	%rax, %rdx	# D.22026, D.22021
	movq	-280(%rbp), %rax	# cxt, tmp1181
	movq	%rdx, 176(%rax)	# D.22021, cxt_15(D)->membuf.aend
.LBE35:
	movq	-280(%rbp), %rax	# cxt, tmp1183
	movq	168(%rax), %rax	# cxt_15(D)->membuf.aptr, D.22021
	leaq	1(%rax), %rcx	#, D.22021
	movq	-280(%rbp), %rdx	# cxt, tmp1184
	movq	%rcx, 168(%rdx)	# D.22021, cxt_15(D)->membuf.aptr
	movzbl	-263(%rbp), %edx	# siv, siv.64
	movb	%dl, (%rax)	# siv.64, *_344
.LBE33:
	.loc 1 1981 0 is_stmt 1 discriminator 2
	jmp	.L141	#
.L137:
.LBB36:
	.loc 1 1984 0 discriminator 2
	movzbl	-263(%rbp), %edx	# siv, D.22018
	movq	-280(%rbp), %rax	# cxt, tmp1185
	movq	216(%rax), %rax	# cxt_15(D)->fio, D.22020
	movl	%edx, %esi	# D.22018,
	movq	%rax, %rdi	# D.22020,
	call	PerlIO_putc	#
	cmpl	$-1, %eax	#, D.22018
	jne	.L140	#,
	.loc 1 1984 0 is_stmt 0 discriminator 1
	movl	$-1, %eax	#, D.22018
	jmp	.L244	#
.L140:
.LBE36:
	.loc 1 1981 0 is_stmt 1
	jmp	.L141	#
.L132:
	.loc 1 1986 0
	movq	-280(%rbp), %rax	# cxt, tmp1186
	movl	80(%rax), %eax	# cxt_15(D)->netorder, D.22018
	testl	%eax, %eax	# D.22018
	je	.L142	#,
.LBB37:
	.loc 1 1998 0
	movl	-252(%rbp), %eax	# flags, flags.65
	.loc 1 1995 0
	testl	%eax, %eax	# flags.65
	jns	.L143	#,
	.loc 1 1998 0 discriminator 1
	movq	-288(%rbp), %rax	# sv, tmp1187
	movl	12(%rax), %eax	# sv_12(D)->sv_flags, D.22019
	andl	$65536, %eax	#, D.22019
	.loc 1 1995 0 discriminator 1
	testl	%eax, %eax	# D.22019
	je	.L144	#,
	.loc 1 1998 0
	movq	-288(%rbp), %rax	# sv, tmp1188
	movq	(%rax), %rax	# sv_12(D)->sv_any, D.22025
	movq	24(%rax), %rax	# MEM[(struct XPVUV *)_355].xuv_uv, D.22022
	cmpq	$2147483647, %rax	#, D.22022
	ja	.L124	#,
	jmp	.L143	#
.L144:
	movq	-288(%rbp), %rax	# sv, tmp1189
	movq	%rax, %rdi	# tmp1189,
	call	Perl_sv_2uv	#
	cmpq	$2147483647, %rax	#, D.22022
	ja	.L124	#,
.L143:
	.loc 1 2000 0 discriminator 1
	movq	-40(%rbp), %rax	# iv, iv.66
	.loc 1 1998 0 discriminator 1
	cmpq	$2147483647, %rax	#, iv.66
	jg	.L124	#,
	.loc 1 2000 0
	movq	-40(%rbp), %rax	# iv, iv.67
	cmpq	$2147483647, %rax	#, iv.67
	jle	.L124	#,
	.loc 1 2007 0
	movq	-40(%rbp), %rax	# iv, iv.68
	cltq
	movq	%rax, %rdi	# D.22024,
	call	Perl_my_htonl	#
	movl	%eax, -32(%rbp)	# niv.69, niv
	.loc 1 2009 0
	movq	-280(%rbp), %rax	# cxt, tmp1190
	movq	216(%rax), %rax	# cxt_15(D)->fio, D.22020
	testq	%rax, %rax	# D.22020
	jne	.L146	#,
	.loc 1 2009 0 is_stmt 0 discriminator 1
	movq	-280(%rbp), %rax	# cxt, tmp1191
	movq	168(%rax), %rdx	# cxt_15(D)->membuf.aptr, D.22021
	movq	-280(%rbp), %rax	# cxt, tmp1192
	movq	176(%rax), %rax	# cxt_15(D)->membuf.aend, D.22021
	cmpq	%rax, %rdx	# D.22021, D.22021
	jae	.L147	#,
	movq	-280(%rbp), %rax	# cxt, tmp1193
	movq	168(%rax), %rax	# cxt_15(D)->membuf.aptr, D.22021
	leaq	1(%rax), %rcx	#, D.22021
	movq	-280(%rbp), %rdx	# cxt, tmp1194
	movq	%rcx, 168(%rdx)	# D.22021, cxt_15(D)->membuf.aptr
	movb	$9, (%rax)	#, *_369
	jmp	.L149	#
.L147:
.LBB38:
	.loc 1 2009 0 discriminator 2
	movq	-280(%rbp), %rax	# cxt, tmp1195
	movq	160(%rax), %rax	# cxt_15(D)->membuf.asiz, D.22022
	addl	$8192, %eax	#, D.22023
	andl	$-8192, %eax	#, tmp1196
	movl	%eax, -184(%rbp)	# tmp1196, nsz
	movq	-280(%rbp), %rax	# cxt, tmp1197
	movq	168(%rax), %rax	# cxt_15(D)->membuf.aptr, D.22021
	movq	%rax, %rdx	# D.22021, D.22024
	movq	-280(%rbp), %rax	# cxt, tmp1198
	movq	152(%rax), %rax	# cxt_15(D)->membuf.arena, D.22021
	subq	%rax, %rdx	# D.22024, D.22024
	movq	%rdx, %rax	# D.22024, D.22024
	movl	%eax, -180(%rbp)	# D.22024, offset
	movl	-184(%rbp), %eax	# nsz, tmp1199
	movslq	%eax, %rdx	# tmp1199, D.22022
	movq	-280(%rbp), %rax	# cxt, tmp1200
	movq	152(%rax), %rax	# cxt_15(D)->membuf.arena, D.22021
	movq	%rdx, %rsi	# D.22022,
	movq	%rax, %rdi	# D.22021,
	call	Perl_safesysrealloc	#
	movq	-280(%rbp), %rdx	# cxt, tmp1201
	movq	%rax, 152(%rdx)	# D.22025, cxt_15(D)->membuf.arena
	movl	-184(%rbp), %eax	# nsz, tmp1202
	movslq	%eax, %rdx	# tmp1202, D.22022
	movq	-280(%rbp), %rax	# cxt, tmp1203
	movq	%rdx, 160(%rax)	# D.22022, cxt_15(D)->membuf.asiz
	movq	-280(%rbp), %rax	# cxt, tmp1204
	movq	152(%rax), %rdx	# cxt_15(D)->membuf.arena, D.22021
	movl	-180(%rbp), %eax	# offset, tmp1205
	cltq
	addq	%rax, %rdx	# D.22026, D.22021
	movq	-280(%rbp), %rax	# cxt, tmp1206
	movq	%rdx, 168(%rax)	# D.22021, cxt_15(D)->membuf.aptr
	movq	-280(%rbp), %rax	# cxt, tmp1207
	movq	152(%rax), %rdx	# cxt_15(D)->membuf.arena, D.22021
	movl	-184(%rbp), %eax	# nsz, tmp1208
	cltq
	addq	%rax, %rdx	# D.22026, D.22021
	movq	-280(%rbp), %rax	# cxt, tmp1209
	movq	%rdx, 176(%rax)	# D.22021, cxt_15(D)->membuf.aend
.LBE38:
	movq	-280(%rbp), %rax	# cxt, tmp1211
	movq	168(%rax), %rax	# cxt_15(D)->membuf.aptr, D.22021
	leaq	1(%rax), %rcx	#, D.22021
	movq	-280(%rbp), %rdx	# cxt, tmp1212
	movq	%rcx, 168(%rdx)	# D.22021, cxt_15(D)->membuf.aptr
	movb	$9, (%rax)	#, *_394
	jmp	.L149	#
.L146:
	movq	-280(%rbp), %rax	# cxt, tmp1213
	movq	216(%rax), %rax	# cxt_15(D)->fio, D.22020
	movl	$9, %esi	#,
	movq	%rax, %rdi	# D.22020,
	call	PerlIO_putc	#
	cmpl	$-1, %eax	#, D.22018
	jne	.L149	#,
	.loc 1 2009 0 discriminator 1
	movl	$-1, %eax	#, D.22018
	jmp	.L244	#
.L149:
	.loc 1 2010 0 is_stmt 1
	movq	-280(%rbp), %rax	# cxt, tmp1214
	movq	216(%rax), %rax	# cxt_15(D)->fio, D.22020
	testq	%rax, %rax	# D.22020
	jne	.L151	#,
.LBB39:
	.loc 1 2010 0 is_stmt 0 discriminator 1
	movq	-280(%rbp), %rax	# cxt, tmp1215
	movq	168(%rax), %rax	# cxt_15(D)->membuf.aptr, D.22021
	leaq	4(%rax), %rdx	#, D.22021
	movq	-280(%rbp), %rax	# cxt, tmp1216
	movq	176(%rax), %rax	# cxt_15(D)->membuf.aend, D.22021
	cmpq	%rax, %rdx	# D.22021, D.22021
	jbe	.L152	#,
.LBB40:
	movq	-280(%rbp), %rax	# cxt, tmp1217
	movq	160(%rax), %rax	# cxt_15(D)->membuf.asiz, D.22022
	addl	$8195, %eax	#, D.22023
	andl	$-8192, %eax	#, tmp1218
	movl	%eax, -176(%rbp)	# tmp1218, nsz
	movq	-280(%rbp), %rax	# cxt, tmp1219
	movq	168(%rax), %rax	# cxt_15(D)->membuf.aptr, D.22021
	movq	%rax, %rdx	# D.22021, D.22024
	movq	-280(%rbp), %rax	# cxt, tmp1220
	movq	152(%rax), %rax	# cxt_15(D)->membuf.arena, D.22021
	subq	%rax, %rdx	# D.22024, D.22024
	movq	%rdx, %rax	# D.22024, D.22024
	movl	%eax, -172(%rbp)	# D.22024, offset
	movl	-176(%rbp), %eax	# nsz, tmp1221
	movslq	%eax, %rdx	# tmp1221, D.22022
	movq	-280(%rbp), %rax	# cxt, tmp1222
	movq	152(%rax), %rax	# cxt_15(D)->membuf.arena, D.22021
	movq	%rdx, %rsi	# D.22022,
	movq	%rax, %rdi	# D.22021,
	call	Perl_safesysrealloc	#
	movq	-280(%rbp), %rdx	# cxt, tmp1223
	movq	%rax, 152(%rdx)	# D.22025, cxt_15(D)->membuf.arena
	movl	-176(%rbp), %eax	# nsz, tmp1224
	movslq	%eax, %rdx	# tmp1224, D.22022
	movq	-280(%rbp), %rax	# cxt, tmp1225
	movq	%rdx, 160(%rax)	# D.22022, cxt_15(D)->membuf.asiz
	movq	-280(%rbp), %rax	# cxt, tmp1226
	movq	152(%rax), %rdx	# cxt_15(D)->membuf.arena, D.22021
	movl	-172(%rbp), %eax	# offset, tmp1227
	cltq
	addq	%rax, %rdx	# D.22026, D.22021
	movq	-280(%rbp), %rax	# cxt, tmp1228
	movq	%rdx, 168(%rax)	# D.22021, cxt_15(D)->membuf.aptr
	movq	-280(%rbp), %rax	# cxt, tmp1229
	movq	152(%rax), %rdx	# cxt_15(D)->membuf.arena, D.22021
	movl	-176(%rbp), %eax	# nsz, tmp1230
	cltq
	addq	%rax, %rdx	# D.22026, D.22021
	movq	-280(%rbp), %rax	# cxt, tmp1231
	movq	%rdx, 176(%rax)	# D.22021, cxt_15(D)->membuf.aend
.L152:
.LBE40:
	.loc 1 2010 0 discriminator 2
	movq	-280(%rbp), %rax	# cxt, tmp1233
	movq	168(%rax), %rax	# cxt_15(D)->membuf.aptr, D.22021
	movq	%rax, %rdx	# D.22021, D.22022
	movq	-280(%rbp), %rax	# cxt, tmp1234
	movq	168(%rax), %rax	# cxt_15(D)->membuf.aptr, D.22021
	andq	$-4, %rax	#, D.22022
	cmpq	%rax, %rdx	# D.22022, D.22022
	jne	.L153	#,
	.loc 1 2010 0 discriminator 1
	movq	-280(%rbp), %rax	# cxt, tmp1235
	movq	168(%rax), %rax	# cxt_15(D)->membuf.aptr, D.22021
	movl	-32(%rbp), %edx	# niv, niv.70
	movl	%edx, (%rax)	# niv.70, MEM[(int *)_430]
	jmp	.L154	#
.L153:
	.loc 1 2010 0 discriminator 2
	movq	-280(%rbp), %rax	# cxt, tmp1236
	movq	168(%rax), %rax	# cxt_15(D)->membuf.aptr, D.22021
	movl	-32(%rbp), %edx	# MEM[(char * {ref-all})&niv], D.22018
	movl	%edx, (%rax)	# D.22018, MEM[(char * {ref-all})_432]
.L154:
	.loc 1 2010 0 discriminator 1
	movq	-280(%rbp), %rax	# cxt, tmp1237
	movq	168(%rax), %rax	# cxt_15(D)->membuf.aptr, D.22021
	leaq	4(%rax), %rdx	#, D.22021
	movq	-280(%rbp), %rax	# cxt, tmp1238
	movq	%rdx, 168(%rax)	# D.22021, cxt_15(D)->membuf.aptr
.LBE39:
	jmp	.L155	#
.L151:
	.loc 1 2010 0 discriminator 2
	movq	-280(%rbp), %rax	# cxt, tmp1240
	movq	216(%rax), %rax	# cxt_15(D)->fio, D.22020
	leaq	-32(%rbp), %rcx	#, tmp1241
	movl	$4, %edx	#,
	movq	%rcx, %rsi	# tmp1241,
	movq	%rax, %rdi	# D.22020,
	call	Perl_PerlIO_write	#
	cmpq	$4, %rax	#, D.22024
	je	.L155	#,
	.loc 1 2010 0 discriminator 1
	movl	$-1, %eax	#, D.22018
	jmp	.L244	#
.L155:
.LBE37:
	jmp	.L115	#
.L142:
	.loc 1 2013 0 is_stmt 1
	movq	-280(%rbp), %rax	# cxt, tmp1242
	movq	216(%rax), %rax	# cxt_15(D)->fio, D.22020
	testq	%rax, %rax	# D.22020
	jne	.L156	#,
	.loc 1 2013 0 is_stmt 0 discriminator 1
	movq	-280(%rbp), %rax	# cxt, tmp1243
	movq	168(%rax), %rdx	# cxt_15(D)->membuf.aptr, D.22021
	movq	-280(%rbp), %rax	# cxt, tmp1244
	movq	176(%rax), %rax	# cxt_15(D)->membuf.aend, D.22021
	cmpq	%rax, %rdx	# D.22021, D.22021
	jae	.L157	#,
	movq	-280(%rbp), %rax	# cxt, tmp1245
	movq	168(%rax), %rax	# cxt_15(D)->membuf.aptr, D.22021
	leaq	1(%rax), %rcx	#, D.22021
	movq	-280(%rbp), %rdx	# cxt, tmp1246
	movq	%rcx, 168(%rdx)	# D.22021, cxt_15(D)->membuf.aptr
	movb	$6, (%rax)	#, *_444
	jmp	.L159	#
.L157:
.LBB41:
	.loc 1 2013 0 discriminator 2
	movq	-280(%rbp), %rax	# cxt, tmp1247
	movq	160(%rax), %rax	# cxt_15(D)->membuf.asiz, D.22022
	addl	$8192, %eax	#, D.22023
	andl	$-8192, %eax	#, tmp1248
	movl	%eax, -168(%rbp)	# tmp1248, nsz
	movq	-280(%rbp), %rax	# cxt, tmp1249
	movq	168(%rax), %rax	# cxt_15(D)->membuf.aptr, D.22021
	movq	%rax, %rdx	# D.22021, D.22024
	movq	-280(%rbp), %rax	# cxt, tmp1250
	movq	152(%rax), %rax	# cxt_15(D)->membuf.arena, D.22021
	subq	%rax, %rdx	# D.22024, D.22024
	movq	%rdx, %rax	# D.22024, D.22024
	movl	%eax, -164(%rbp)	# D.22024, offset
	movl	-168(%rbp), %eax	# nsz, tmp1251
	movslq	%eax, %rdx	# tmp1251, D.22022
	movq	-280(%rbp), %rax	# cxt, tmp1252
	movq	152(%rax), %rax	# cxt_15(D)->membuf.arena, D.22021
	movq	%rdx, %rsi	# D.22022,
	movq	%rax, %rdi	# D.22021,
	call	Perl_safesysrealloc	#
	movq	-280(%rbp), %rdx	# cxt, tmp1253
	movq	%rax, 152(%rdx)	# D.22025, cxt_15(D)->membuf.arena
	movl	-168(%rbp), %eax	# nsz, tmp1254
	movslq	%eax, %rdx	# tmp1254, D.22022
	movq	-280(%rbp), %rax	# cxt, tmp1255
	movq	%rdx, 160(%rax)	# D.22022, cxt_15(D)->membuf.asiz
	movq	-280(%rbp), %rax	# cxt, tmp1256
	movq	152(%rax), %rdx	# cxt_15(D)->membuf.arena, D.22021
	movl	-164(%rbp), %eax	# offset, tmp1257
	cltq
	addq	%rax, %rdx	# D.22026, D.22021
	movq	-280(%rbp), %rax	# cxt, tmp1258
	movq	%rdx, 168(%rax)	# D.22021, cxt_15(D)->membuf.aptr
	movq	-280(%rbp), %rax	# cxt, tmp1259
	movq	152(%rax), %rdx	# cxt_15(D)->membuf.arena, D.22021
	movl	-168(%rbp), %eax	# nsz, tmp1260
	cltq
	addq	%rax, %rdx	# D.22026, D.22021
	movq	-280(%rbp), %rax	# cxt, tmp1261
	movq	%rdx, 176(%rax)	# D.22021, cxt_15(D)->membuf.aend
.LBE41:
	movq	-280(%rbp), %rax	# cxt, tmp1263
	movq	168(%rax), %rax	# cxt_15(D)->membuf.aptr, D.22021
	leaq	1(%rax), %rcx	#, D.22021
	movq	-280(%rbp), %rdx	# cxt, tmp1264
	movq	%rcx, 168(%rdx)	# D.22021, cxt_15(D)->membuf.aptr
	movb	$6, (%rax)	#, *_469
	jmp	.L159	#
.L156:
	movq	-280(%rbp), %rax	# cxt, tmp1265
	movq	216(%rax), %rax	# cxt_15(D)->fio, D.22020
	movl	$6, %esi	#,
	movq	%rax, %rdi	# D.22020,
	call	PerlIO_putc	#
	cmpl	$-1, %eax	#, D.22018
	jne	.L159	#,
	.loc 1 2013 0 discriminator 1
	movl	$-1, %eax	#, D.22018
	jmp	.L244	#
.L159:
	.loc 1 2014 0 is_stmt 1
	movq	-280(%rbp), %rax	# cxt, tmp1266
	movq	216(%rax), %rax	# cxt_15(D)->fio, D.22020
	testq	%rax, %rax	# D.22020
	jne	.L160	#,
.LBB42:
	.loc 1 2014 0 is_stmt 0 discriminator 1
	movq	-280(%rbp), %rax	# cxt, tmp1267
	movq	168(%rax), %rax	# cxt_15(D)->membuf.aptr, D.22021
	leaq	8(%rax), %rdx	#, D.22021
	movq	-280(%rbp), %rax	# cxt, tmp1268
	movq	176(%rax), %rax	# cxt_15(D)->membuf.aend, D.22021
	cmpq	%rax, %rdx	# D.22021, D.22021
	jbe	.L161	#,
.LBB43:
	movq	-280(%rbp), %rax	# cxt, tmp1269
	movq	160(%rax), %rax	# cxt_15(D)->membuf.asiz, D.22022
	addl	$8199, %eax	#, D.22023
	andl	$-8192, %eax	#, tmp1270
	movl	%eax, -160(%rbp)	# tmp1270, nsz
	movq	-280(%rbp), %rax	# cxt, tmp1271
	movq	168(%rax), %rax	# cxt_15(D)->membuf.aptr, D.22021
	movq	%rax, %rdx	# D.22021, D.22024
	movq	-280(%rbp), %rax	# cxt, tmp1272
	movq	152(%rax), %rax	# cxt_15(D)->membuf.arena, D.22021
	subq	%rax, %rdx	# D.22024, D.22024
	movq	%rdx, %rax	# D.22024, D.22024
	movl	%eax, -156(%rbp)	# D.22024, offset
	movl	-160(%rbp), %eax	# nsz, tmp1273
	movslq	%eax, %rdx	# tmp1273, D.22022
	movq	-280(%rbp), %rax	# cxt, tmp1274
	movq	152(%rax), %rax	# cxt_15(D)->membuf.arena, D.22021
	movq	%rdx, %rsi	# D.22022,
	movq	%rax, %rdi	# D.22021,
	call	Perl_safesysrealloc	#
	movq	-280(%rbp), %rdx	# cxt, tmp1275
	movq	%rax, 152(%rdx)	# D.22025, cxt_15(D)->membuf.arena
	movl	-160(%rbp), %eax	# nsz, tmp1276
	movslq	%eax, %rdx	# tmp1276, D.22022
	movq	-280(%rbp), %rax	# cxt, tmp1277
	movq	%rdx, 160(%rax)	# D.22022, cxt_15(D)->membuf.asiz
	movq	-280(%rbp), %rax	# cxt, tmp1278
	movq	152(%rax), %rdx	# cxt_15(D)->membuf.arena, D.22021
	movl	-156(%rbp), %eax	# offset, tmp1279
	cltq
	addq	%rax, %rdx	# D.22026, D.22021
	movq	-280(%rbp), %rax	# cxt, tmp1280
	movq	%rdx, 168(%rax)	# D.22021, cxt_15(D)->membuf.aptr
	movq	-280(%rbp), %rax	# cxt, tmp1281
	movq	152(%rax), %rdx	# cxt_15(D)->membuf.arena, D.22021
	movl	-160(%rbp), %eax	# nsz, tmp1282
	cltq
	addq	%rax, %rdx	# D.22026, D.22021
	movq	-280(%rbp), %rax	# cxt, tmp1283
	movq	%rdx, 176(%rax)	# D.22021, cxt_15(D)->membuf.aend
.L161:
.LBE43:
	.loc 1 2014 0 discriminator 2
	movq	-280(%rbp), %rax	# cxt, tmp1285
	movq	168(%rax), %rax	# cxt_15(D)->membuf.aptr, D.22021
	movq	-40(%rbp), %rdx	# MEM[(char * {ref-all})&iv], D.22024
	movq	%rdx, (%rax)	# D.22024, MEM[(char * {ref-all})_500]
	movq	-280(%rbp), %rax	# cxt, tmp1286
	movq	168(%rax), %rax	# cxt_15(D)->membuf.aptr, D.22021
	leaq	8(%rax), %rdx	#, D.22021
	movq	-280(%rbp), %rax	# cxt, tmp1287
	movq	%rdx, 168(%rax)	# D.22021, cxt_15(D)->membuf.aptr
.LBE42:
	jmp	.L115	#
.L160:
	movq	-280(%rbp), %rax	# cxt, tmp1289
	movq	216(%rax), %rax	# cxt_15(D)->fio, D.22020
	leaq	-40(%rbp), %rcx	#, tmp1290
	movl	$8, %edx	#,
	movq	%rcx, %rsi	# tmp1290,
	movq	%rax, %rdi	# D.22020,
	call	Perl_PerlIO_write	#
	cmpq	$8, %rax	#, D.22024
	je	.L115	#,
	.loc 1 2014 0 discriminator 1
	movl	$-1, %eax	#, D.22018
	jmp	.L244	#
.L141:
	jmp	.L115	#
.L125:
	.loc 1 2018 0 is_stmt 1
	movl	-252(%rbp), %eax	# flags, tmp1291
	andl	$131072, %eax	#, D.22019
	testl	%eax, %eax	# D.22019
	je	.L162	#,
.LBB44:
	.loc 1 2031 0
	movq	-288(%rbp), %rax	# sv, tmp1292
	movl	12(%rax), %eax	# sv_12(D)->sv_flags, D.22019
	andl	$16777216, %eax	#, D.22019
	testl	%eax, %eax	# D.22019
	jne	.L163	#,
	.loc 1 2031 0 is_stmt 0 discriminator 1
	movq	-288(%rbp), %rax	# sv, tmp1293
	movl	12(%rax), %eax	# sv_12(D)->sv_flags, D.22019
	andl	$131072, %eax	#, D.22019
	testl	%eax, %eax	# D.22019
	jne	.L164	#,
	.loc 1 2031 0 discriminator 2
	movq	-288(%rbp), %rax	# sv, tmp1294
	movl	12(%rax), %eax	# sv_12(D)->sv_flags, D.22019
	andl	$262144, %eax	#, D.22019
	testl	%eax, %eax	# D.22019
	je	.L163	#,
.L164:
	.loc 1 2031 0 discriminator 1
	movq	-288(%rbp), %rax	# sv, tmp1295
	movl	12(%rax), %eax	# sv_12(D)->sv_flags, D.22019
	andl	$65536, %eax	#, D.22019
	testl	%eax, %eax	# D.22019
	jne	.L163	#,
	.loc 1 2031 0 discriminator 2
	movq	-288(%rbp), %rax	# sv, tmp1297
	movq	%rax, %rdi	# tmp1297,
	call	Perl_sv_2iv	#
.L163:
	.loc 1 2032 0 is_stmt 1
	movq	-288(%rbp), %rax	# sv, tmp1298
	movl	12(%rax), %eax	# sv_12(D)->sv_flags, D.22019
	andl	$-2147418112, %eax	#, D.22019
	cmpl	$65536, %eax	#, D.22019
	jne	.L166	#,
	.loc 1 2033 0
	movq	-288(%rbp), %rax	# sv, tmp1299
	movl	12(%rax), %eax	# sv_12(D)->sv_flags, D.22019
	andl	$65536, %eax	#, D.22019
	testl	%eax, %eax	# D.22019
	je	.L167	#,
	.loc 1 2033 0 is_stmt 0 discriminator 1
	movq	-288(%rbp), %rax	# sv, tmp1300
	movq	(%rax), %rax	# sv_12(D)->sv_any, D.22025
	movq	24(%rax), %rax	# MEM[(struct XPVIV *)_185].xiv_iv, iftmp.72
	jmp	.L168	#
.L167:
	.loc 1 2033 0 discriminator 2
	movq	-288(%rbp), %rax	# sv, tmp1301
	movq	%rax, %rdi	# tmp1301,
	call	Perl_sv_2iv	#
.L168:
	.loc 1 2033 0 discriminator 3
	movq	%rax, -40(%rbp)	# iftmp.72, iv
	jmp	.L128	#
.L166:
	.loc 1 2036 0 is_stmt 1
	movq	-288(%rbp), %rax	# sv, tmp1302
	movl	12(%rax), %eax	# sv_12(D)->sv_flags, D.22019
	andl	$131072, %eax	#, D.22019
	testl	%eax, %eax	# D.22019
	je	.L169	#,
	.loc 1 2036 0 is_stmt 0 discriminator 1
	movq	-288(%rbp), %rax	# sv, tmp1303
	movq	(%rax), %rax	# sv_12(D)->sv_any, D.22025
	movq	32(%rax), %rax	# MEM[(struct XPVNV *)_190].xnv_nv, iftmp.73
	jmp	.L170	#
.L169:
	.loc 1 2036 0 discriminator 2
	movq	-288(%rbp), %rax	# sv, tmp1304
	movq	%rax, %rdi	# tmp1304,
	call	Perl_sv_2nv	#
	movsd	%xmm0, -296(%rbp)	#, %sfp
	movq	-296(%rbp), %rax	# %sfp, iftmp.73
.L170:
	.loc 1 2036 0 discriminator 3
	movq	%rax, -32(%rbp)	# iftmp.73, nv
	.loc 1 2039 0 is_stmt 1 discriminator 3
	movq	-280(%rbp), %rax	# cxt, tmp1305
	movl	80(%rax), %eax	# cxt_15(D)->netorder, D.22018
	testl	%eax, %eax	# D.22018
	jne	.L124	#,
	.loc 1 2044 0
	movq	-280(%rbp), %rax	# cxt, tmp1306
	movq	216(%rax), %rax	# cxt_15(D)->fio, D.22020
	testq	%rax, %rax	# D.22020
	jne	.L172	#,
	.loc 1 2044 0 is_stmt 0 discriminator 1
	movq	-280(%rbp), %rax	# cxt, tmp1307
	movq	168(%rax), %rdx	# cxt_15(D)->membuf.aptr, D.22021
	movq	-280(%rbp), %rax	# cxt, tmp1308
	movq	176(%rax), %rax	# cxt_15(D)->membuf.aend, D.22021
	cmpq	%rax, %rdx	# D.22021, D.22021
	jae	.L173	#,
	movq	-280(%rbp), %rax	# cxt, tmp1309
	movq	168(%rax), %rax	# cxt_15(D)->membuf.aptr, D.22021
	leaq	1(%rax), %rcx	#, D.22021
	movq	-280(%rbp), %rdx	# cxt, tmp1310
	movq	%rcx, 168(%rdx)	# D.22021, cxt_15(D)->membuf.aptr
	movb	$7, (%rax)	#, *_198
	jmp	.L175	#
.L173:
.LBB45:
	.loc 1 2044 0 discriminator 2
	movq	-280(%rbp), %rax	# cxt, tmp1311
	movq	160(%rax), %rax	# cxt_15(D)->membuf.asiz, D.22022
	addl	$8192, %eax	#, D.22023
	andl	$-8192, %eax	#, tmp1312
	movl	%eax, -216(%rbp)	# tmp1312, nsz
	movq	-280(%rbp), %rax	# cxt, tmp1313
	movq	168(%rax), %rax	# cxt_15(D)->membuf.aptr, D.22021
	movq	%rax, %rdx	# D.22021, D.22024
	movq	-280(%rbp), %rax	# cxt, tmp1314
	movq	152(%rax), %rax	# cxt_15(D)->membuf.arena, D.22021
	subq	%rax, %rdx	# D.22024, D.22024
	movq	%rdx, %rax	# D.22024, D.22024
	movl	%eax, -212(%rbp)	# D.22024, offset
	movl	-216(%rbp), %eax	# nsz, tmp1315
	movslq	%eax, %rdx	# tmp1315, D.22022
	movq	-280(%rbp), %rax	# cxt, tmp1316
	movq	152(%rax), %rax	# cxt_15(D)->membuf.arena, D.22021
	movq	%rdx, %rsi	# D.22022,
	movq	%rax, %rdi	# D.22021,
	call	Perl_safesysrealloc	#
	movq	-280(%rbp), %rdx	# cxt, tmp1317
	movq	%rax, 152(%rdx)	# D.22025, cxt_15(D)->membuf.arena
	movl	-216(%rbp), %eax	# nsz, tmp1318
	movslq	%eax, %rdx	# tmp1318, D.22022
	movq	-280(%rbp), %rax	# cxt, tmp1319
	movq	%rdx, 160(%rax)	# D.22022, cxt_15(D)->membuf.asiz
	movq	-280(%rbp), %rax	# cxt, tmp1320
	movq	152(%rax), %rdx	# cxt_15(D)->membuf.arena, D.22021
	movl	-212(%rbp), %eax	# offset, tmp1321
	cltq
	addq	%rax, %rdx	# D.22026, D.22021
	movq	-280(%rbp), %rax	# cxt, tmp1322
	movq	%rdx, 168(%rax)	# D.22021, cxt_15(D)->membuf.aptr
	movq	-280(%rbp), %rax	# cxt, tmp1323
	movq	152(%rax), %rdx	# cxt_15(D)->membuf.arena, D.22021
	movl	-216(%rbp), %eax	# nsz, tmp1324
	cltq
	addq	%rax, %rdx	# D.22026, D.22021
	movq	-280(%rbp), %rax	# cxt, tmp1325
	movq	%rdx, 176(%rax)	# D.22021, cxt_15(D)->membuf.aend
.LBE45:
	movq	-280(%rbp), %rax	# cxt, tmp1327
	movq	168(%rax), %rax	# cxt_15(D)->membuf.aptr, D.22021
	leaq	1(%rax), %rcx	#, D.22021
	movq	-280(%rbp), %rdx	# cxt, tmp1328
	movq	%rcx, 168(%rdx)	# D.22021, cxt_15(D)->membuf.aptr
	movb	$7, (%rax)	#, *_223
	jmp	.L175	#
.L172:
	movq	-280(%rbp), %rax	# cxt, tmp1329
	movq	216(%rax), %rax	# cxt_15(D)->fio, D.22020
	movl	$7, %esi	#,
	movq	%rax, %rdi	# D.22020,
	call	PerlIO_putc	#
	cmpl	$-1, %eax	#, D.22018
	jne	.L175	#,
	.loc 1 2044 0 discriminator 1
	movl	$-1, %eax	#, D.22018
	jmp	.L244	#
.L175:
	.loc 1 2045 0 is_stmt 1
	movq	-280(%rbp), %rax	# cxt, tmp1330
	movq	216(%rax), %rax	# cxt_15(D)->fio, D.22020
	testq	%rax, %rax	# D.22020
	jne	.L177	#,
.LBB46:
	.loc 1 2045 0 is_stmt 0 discriminator 1
	movq	-280(%rbp), %rax	# cxt, tmp1331
	movq	168(%rax), %rax	# cxt_15(D)->membuf.aptr, D.22021
	leaq	8(%rax), %rdx	#, D.22021
	movq	-280(%rbp), %rax	# cxt, tmp1332
	movq	176(%rax), %rax	# cxt_15(D)->membuf.aend, D.22021
	cmpq	%rax, %rdx	# D.22021, D.22021
	jbe	.L178	#,
.LBB47:
	movq	-280(%rbp), %rax	# cxt, tmp1333
	movq	160(%rax), %rax	# cxt_15(D)->membuf.asiz, D.22022
	addl	$8199, %eax	#, D.22023
	andl	$-8192, %eax	#, tmp1334
	movl	%eax, -208(%rbp)	# tmp1334, nsz
	movq	-280(%rbp), %rax	# cxt, tmp1335
	movq	168(%rax), %rax	# cxt_15(D)->membuf.aptr, D.22021
	movq	%rax, %rdx	# D.22021, D.22024
	movq	-280(%rbp), %rax	# cxt, tmp1336
	movq	152(%rax), %rax	# cxt_15(D)->membuf.arena, D.22021
	subq	%rax, %rdx	# D.22024, D.22024
	movq	%rdx, %rax	# D.22024, D.22024
	movl	%eax, -204(%rbp)	# D.22024, offset
	movl	-208(%rbp), %eax	# nsz, tmp1337
	movslq	%eax, %rdx	# tmp1337, D.22022
	movq	-280(%rbp), %rax	# cxt, tmp1338
	movq	152(%rax), %rax	# cxt_15(D)->membuf.arena, D.22021
	movq	%rdx, %rsi	# D.22022,
	movq	%rax, %rdi	# D.22021,
	call	Perl_safesysrealloc	#
	movq	-280(%rbp), %rdx	# cxt, tmp1339
	movq	%rax, 152(%rdx)	# D.22025, cxt_15(D)->membuf.arena
	movl	-208(%rbp), %eax	# nsz, tmp1340
	movslq	%eax, %rdx	# tmp1340, D.22022
	movq	-280(%rbp), %rax	# cxt, tmp1341
	movq	%rdx, 160(%rax)	# D.22022, cxt_15(D)->membuf.asiz
	movq	-280(%rbp), %rax	# cxt, tmp1342
	movq	152(%rax), %rdx	# cxt_15(D)->membuf.arena, D.22021
	movl	-204(%rbp), %eax	# offset, tmp1343
	cltq
	addq	%rax, %rdx	# D.22026, D.22021
	movq	-280(%rbp), %rax	# cxt, tmp1344
	movq	%rdx, 168(%rax)	# D.22021, cxt_15(D)->membuf.aptr
	movq	-280(%rbp), %rax	# cxt, tmp1345
	movq	152(%rax), %rdx	# cxt_15(D)->membuf.arena, D.22021
	movl	-208(%rbp), %eax	# nsz, tmp1346
	cltq
	addq	%rax, %rdx	# D.22026, D.22021
	movq	-280(%rbp), %rax	# cxt, tmp1347
	movq	%rdx, 176(%rax)	# D.22021, cxt_15(D)->membuf.aend
.L178:
.LBE47:
	.loc 1 2045 0 discriminator 2
	movq	-280(%rbp), %rax	# cxt, tmp1349
	movq	168(%rax), %rdx	# cxt_15(D)->membuf.aptr, D.22021
	movq	-32(%rbp), %rax	# MEM[(char * {ref-all})&nv], D.22027
	movq	%rax, (%rdx)	# D.22027, MEM[(char * {ref-all})_254]
	movq	-280(%rbp), %rax	# cxt, tmp1350
	movq	168(%rax), %rax	# cxt_15(D)->membuf.aptr, D.22021
	leaq	8(%rax), %rdx	#, D.22021
	movq	-280(%rbp), %rax	# cxt, tmp1351
	movq	%rdx, 168(%rax)	# D.22021, cxt_15(D)->membuf.aptr
.LBE46:
	jmp	.L179	#
.L177:
	movq	-280(%rbp), %rax	# cxt, tmp1353
	movq	216(%rax), %rax	# cxt_15(D)->fio, D.22020
	leaq	-32(%rbp), %rcx	#, tmp1354
	movl	$8, %edx	#,
	movq	%rcx, %rsi	# tmp1354,
	movq	%rax, %rdi	# D.22020,
	call	Perl_PerlIO_write	#
	cmpq	$8, %rax	#, D.22024
	je	.L179	#,
	.loc 1 2045 0 discriminator 1
	movl	$-1, %eax	#, D.22018
	jmp	.L244	#
.L179:
.LBE44:
	jmp	.L115	#
.L162:
	.loc 1 2049 0 is_stmt 1
	movl	-252(%rbp), %eax	# flags, tmp1355
	andl	$117440512, %eax	#, D.22019
	testl	%eax, %eax	# D.22019
	je	.L180	#,
.L124:
.LBB48:
	.loc 1 2053 0
	movq	-288(%rbp), %rax	# sv, tmp1356
	movl	12(%rax), %eax	# sv_12(D)->sv_flags, D.22019
	andl	$262144, %eax	#, D.22019
	testl	%eax, %eax	# D.22019
	je	.L181	#,
	.loc 1 2053 0 is_stmt 0 discriminator 1
	movq	-288(%rbp), %rax	# sv, tmp1357
	movq	(%rax), %rax	# sv_12(D)->sv_any, D.22025
	movq	8(%rax), %rax	# MEM[(struct XPV *)_510].xpv_cur, len.75
	movq	%rax, -32(%rbp)	# len.75, len
	movq	-288(%rbp), %rax	# sv, tmp1358
	movq	(%rax), %rax	# sv_12(D)->sv_any, D.22025
	movq	(%rax), %rax	# MEM[(struct XPV *)_512].xpv_pv, iftmp.74
	jmp	.L182	#
.L181:
	.loc 1 2053 0 discriminator 2
	leaq	-32(%rbp), %rcx	#, tmp1359
	movq	-288(%rbp), %rax	# sv, tmp1360
	movl	$2, %edx	#,
	movq	%rcx, %rsi	# tmp1359,
	movq	%rax, %rdi	# tmp1360,
	call	Perl_sv_2pv_flags	#
.L182:
	.loc 1 2053 0 discriminator 3
	movq	%rax, -24(%rbp)	# iftmp.74, pv
.L122:
	.loc 1 2061 0 is_stmt 1
	movq	-32(%rbp), %rax	# len, len.76
	movl	%eax, -260(%rbp)	# wlen.77, wlen
	.loc 1 2062 0
	movq	-288(%rbp), %rax	# sv, tmp1361
	movl	12(%rax), %eax	# sv_12(D)->sv_flags, D.22019
	andl	$536870912, %eax	#, D.22019
	testl	%eax, %eax	# D.22019
	je	.L183	#,
	.loc 1 2063 0
	movl	-260(%rbp), %eax	# wlen, wlen.78
	cmpl	$255, %eax	#, wlen.78
	jg	.L184	#,
.LBB49:
	.loc 1 2063 0 is_stmt 0 discriminator 1
	movl	-260(%rbp), %eax	# wlen, wlen.79
	movb	%al, -262(%rbp)	# wlen.79, clen
	movq	-280(%rbp), %rax	# cxt, tmp1362
	movq	216(%rax), %rax	# cxt_15(D)->fio, D.22020
	testq	%rax, %rax	# D.22020
	jne	.L185	#,
	movq	-280(%rbp), %rax	# cxt, tmp1363
	movq	168(%rax), %rdx	# cxt_15(D)->membuf.aptr, D.22021
	movq	-280(%rbp), %rax	# cxt, tmp1364
	movq	176(%rax), %rax	# cxt_15(D)->membuf.aend, D.22021
	cmpq	%rax, %rdx	# D.22021, D.22021
	jae	.L186	#,
	movq	-280(%rbp), %rax	# cxt, tmp1365
	movq	168(%rax), %rax	# cxt_15(D)->membuf.aptr, D.22021
	leaq	1(%rax), %rcx	#, D.22021
	movq	-280(%rbp), %rdx	# cxt, tmp1366
	movq	%rcx, 168(%rdx)	# D.22021, cxt_15(D)->membuf.aptr
	movb	$23, (%rax)	#, *_527
	jmp	.L188	#
.L186:
.LBB50:
	.loc 1 2063 0 discriminator 2
	movq	-280(%rbp), %rax	# cxt, tmp1367
	movq	160(%rax), %rax	# cxt_15(D)->membuf.asiz, D.22022
	addl	$8192, %eax	#, D.22023
	andl	$-8192, %eax	#, tmp1368
	movl	%eax, -152(%rbp)	# tmp1368, nsz
	movq	-280(%rbp), %rax	# cxt, tmp1369
	movq	168(%rax), %rax	# cxt_15(D)->membuf.aptr, D.22021
	movq	%rax, %rdx	# D.22021, D.22024
	movq	-280(%rbp), %rax	# cxt, tmp1370
	movq	152(%rax), %rax	# cxt_15(D)->membuf.arena, D.22021
	subq	%rax, %rdx	# D.22024, D.22024
	movq	%rdx, %rax	# D.22024, D.22024
	movl	%eax, -148(%rbp)	# D.22024, offset
	movl	-152(%rbp), %eax	# nsz, tmp1371
	movslq	%eax, %rdx	# tmp1371, D.22022
	movq	-280(%rbp), %rax	# cxt, tmp1372
	movq	152(%rax), %rax	# cxt_15(D)->membuf.arena, D.22021
	movq	%rdx, %rsi	# D.22022,
	movq	%rax, %rdi	# D.22021,
	call	Perl_safesysrealloc	#
	movq	-280(%rbp), %rdx	# cxt, tmp1373
	movq	%rax, 152(%rdx)	# D.22025, cxt_15(D)->membuf.arena
	movl	-152(%rbp), %eax	# nsz, tmp1374
	movslq	%eax, %rdx	# tmp1374, D.22022
	movq	-280(%rbp), %rax	# cxt, tmp1375
	movq	%rdx, 160(%rax)	# D.22022, cxt_15(D)->membuf.asiz
	movq	-280(%rbp), %rax	# cxt, tmp1376
	movq	152(%rax), %rdx	# cxt_15(D)->membuf.arena, D.22021
	movl	-148(%rbp), %eax	# offset, tmp1377
	cltq
	addq	%rax, %rdx	# D.22026, D.22021
	movq	-280(%rbp), %rax	# cxt, tmp1378
	movq	%rdx, 168(%rax)	# D.22021, cxt_15(D)->membuf.aptr
	movq	-280(%rbp), %rax	# cxt, tmp1379
	movq	152(%rax), %rdx	# cxt_15(D)->membuf.arena, D.22021
	movl	-152(%rbp), %eax	# nsz, tmp1380
	cltq
	addq	%rax, %rdx	# D.22026, D.22021
	movq	-280(%rbp), %rax	# cxt, tmp1381
	movq	%rdx, 176(%rax)	# D.22021, cxt_15(D)->membuf.aend
.LBE50:
	movq	-280(%rbp), %rax	# cxt, tmp1383
	movq	168(%rax), %rax	# cxt_15(D)->membuf.aptr, D.22021
	leaq	1(%rax), %rcx	#, D.22021
	movq	-280(%rbp), %rdx	# cxt, tmp1384
	movq	%rcx, 168(%rdx)	# D.22021, cxt_15(D)->membuf.aptr
	movb	$23, (%rax)	#, *_552
	jmp	.L188	#
.L185:
	movq	-280(%rbp), %rax	# cxt, tmp1385
	movq	216(%rax), %rax	# cxt_15(D)->fio, D.22020
	movl	$23, %esi	#,
	movq	%rax, %rdi	# D.22020,
	call	PerlIO_putc	#
	cmpl	$-1, %eax	#, D.22018
	jne	.L188	#,
	.loc 1 2063 0 discriminator 1
	movl	$-1, %eax	#, D.22018
	jmp	.L244	#
.L188:
	.loc 1 2063 0 discriminator 2
	movq	-280(%rbp), %rax	# cxt, tmp1386
	movq	216(%rax), %rax	# cxt_15(D)->fio, D.22020
	testq	%rax, %rax	# D.22020
	jne	.L190	#,
	.loc 1 2063 0 discriminator 1
	movq	-280(%rbp), %rax	# cxt, tmp1387
	movq	168(%rax), %rdx	# cxt_15(D)->membuf.aptr, D.22021
	movq	-280(%rbp), %rax	# cxt, tmp1388
	movq	176(%rax), %rax	# cxt_15(D)->membuf.aend, D.22021
	cmpq	%rax, %rdx	# D.22021, D.22021
	jae	.L191	#,
	movq	-280(%rbp), %rax	# cxt, tmp1389
	movq	168(%rax), %rax	# cxt_15(D)->membuf.aptr, D.22021
	leaq	1(%rax), %rcx	#, D.22021
	movq	-280(%rbp), %rdx	# cxt, tmp1390
	movq	%rcx, 168(%rdx)	# D.22021, cxt_15(D)->membuf.aptr
	movzbl	-262(%rbp), %edx	# clen, clen.80
	movb	%dl, (%rax)	# clen.80, *_561
	jmp	.L193	#
.L191:
.LBB51:
	.loc 1 2063 0 discriminator 2
	movq	-280(%rbp), %rax	# cxt, tmp1391
	movq	160(%rax), %rax	# cxt_15(D)->membuf.asiz, D.22022
	addl	$8192, %eax	#, D.22023
	andl	$-8192, %eax	#, tmp1392
	movl	%eax, -144(%rbp)	# tmp1392, nsz
	movq	-280(%rbp), %rax	# cxt, tmp1393
	movq	168(%rax), %rax	# cxt_15(D)->membuf.aptr, D.22021
	movq	%rax, %rdx	# D.22021, D.22024
	movq	-280(%rbp), %rax	# cxt, tmp1394
	movq	152(%rax), %rax	# cxt_15(D)->membuf.arena, D.22021
	subq	%rax, %rdx	# D.22024, D.22024
	movq	%rdx, %rax	# D.22024, D.22024
	movl	%eax, -140(%rbp)	# D.22024, offset
	movl	-144(%rbp), %eax	# nsz, tmp1395
	movslq	%eax, %rdx	# tmp1395, D.22022
	movq	-280(%rbp), %rax	# cxt, tmp1396
	movq	152(%rax), %rax	# cxt_15(D)->membuf.arena, D.22021
	movq	%rdx, %rsi	# D.22022,
	movq	%rax, %rdi	# D.22021,
	call	Perl_safesysrealloc	#
	movq	-280(%rbp), %rdx	# cxt, tmp1397
	movq	%rax, 152(%rdx)	# D.22025, cxt_15(D)->membuf.arena
	movl	-144(%rbp), %eax	# nsz, tmp1398
	movslq	%eax, %rdx	# tmp1398, D.22022
	movq	-280(%rbp), %rax	# cxt, tmp1399
	movq	%rdx, 160(%rax)	# D.22022, cxt_15(D)->membuf.asiz
	movq	-280(%rbp), %rax	# cxt, tmp1400
	movq	152(%rax), %rdx	# cxt_15(D)->membuf.arena, D.22021
	movl	-140(%rbp), %eax	# offset, tmp1401
	cltq
	addq	%rax, %rdx	# D.22026, D.22021
	movq	-280(%rbp), %rax	# cxt, tmp1402
	movq	%rdx, 168(%rax)	# D.22021, cxt_15(D)->membuf.aptr
	movq	-280(%rbp), %rax	# cxt, tmp1403
	movq	152(%rax), %rdx	# cxt_15(D)->membuf.arena, D.22021
	movl	-144(%rbp), %eax	# nsz, tmp1404
	cltq
	addq	%rax, %rdx	# D.22026, D.22021
	movq	-280(%rbp), %rax	# cxt, tmp1405
	movq	%rdx, 176(%rax)	# D.22021, cxt_15(D)->membuf.aend
.LBE51:
	movq	-280(%rbp), %rax	# cxt, tmp1407
	movq	168(%rax), %rax	# cxt_15(D)->membuf.aptr, D.22021
	leaq	1(%rax), %rcx	#, D.22021
	movq	-280(%rbp), %rdx	# cxt, tmp1408
	movq	%rcx, 168(%rdx)	# D.22021, cxt_15(D)->membuf.aptr
	movzbl	-262(%rbp), %edx	# clen, clen.81
	movb	%dl, (%rax)	# clen.81, *_587
	jmp	.L193	#
.L190:
	movzbl	-262(%rbp), %edx	# clen, D.22018
	movq	-280(%rbp), %rax	# cxt, tmp1409
	movq	216(%rax), %rax	# cxt_15(D)->fio, D.22020
	movl	%edx, %esi	# D.22018,
	movq	%rax, %rdi	# D.22020,
	call	PerlIO_putc	#
	cmpl	$-1, %eax	#, D.22018
	jne	.L193	#,
	.loc 1 2063 0 discriminator 1
	movl	$-1, %eax	#, D.22018
	jmp	.L244	#
.L193:
	.loc 1 2063 0 discriminator 2
	movl	-260(%rbp), %eax	# wlen, wlen.82
	testl	%eax, %eax	# wlen.82
	je	.L194	#,
	.loc 1 2063 0 discriminator 1
	movq	-280(%rbp), %rax	# cxt, tmp1410
	movq	216(%rax), %rax	# cxt_15(D)->fio, D.22020
	testq	%rax, %rax	# D.22020
	jne	.L195	#,
.LBB52:
	movq	-280(%rbp), %rax	# cxt, tmp1411
	movq	168(%rax), %rdx	# cxt_15(D)->membuf.aptr, D.22021
	movl	-260(%rbp), %eax	# wlen, wlen.83
	cltq
	addq	%rax, %rdx	# D.22026, D.22021
	movq	-280(%rbp), %rax	# cxt, tmp1412
	movq	176(%rax), %rax	# cxt_15(D)->membuf.aend, D.22021
	cmpq	%rax, %rdx	# D.22021, D.22021
	jbe	.L196	#,
.LBB53:
	movq	-280(%rbp), %rax	# cxt, tmp1413
	movq	160(%rax), %rax	# cxt_15(D)->membuf.asiz, D.22022
	movl	%eax, %edx	# D.22022, D.22023
	movl	-260(%rbp), %eax	# wlen, wlen.84
	addl	%edx, %eax	# D.22023, D.22023
	addl	$8191, %eax	#, D.22023
	andl	$-8192, %eax	#, tmp1414
	movl	%eax, -136(%rbp)	# tmp1414, nsz
	movq	-280(%rbp), %rax	# cxt, tmp1415
	movq	168(%rax), %rax	# cxt_15(D)->membuf.aptr, D.22021
	movq	%rax, %rdx	# D.22021, D.22024
	movq	-280(%rbp), %rax	# cxt, tmp1416
	movq	152(%rax), %rax	# cxt_15(D)->membuf.arena, D.22021
	subq	%rax, %rdx	# D.22024, D.22024
	movq	%rdx, %rax	# D.22024, D.22024
	movl	%eax, -132(%rbp)	# D.22024, offset
	movl	-136(%rbp), %eax	# nsz, tmp1417
	movslq	%eax, %rdx	# tmp1417, D.22022
	movq	-280(%rbp), %rax	# cxt, tmp1418
	movq	152(%rax), %rax	# cxt_15(D)->membuf.arena, D.22021
	movq	%rdx, %rsi	# D.22022,
	movq	%rax, %rdi	# D.22021,
	call	Perl_safesysrealloc	#
	movq	-280(%rbp), %rdx	# cxt, tmp1419
	movq	%rax, 152(%rdx)	# D.22025, cxt_15(D)->membuf.arena
	movl	-136(%rbp), %eax	# nsz, tmp1420
	movslq	%eax, %rdx	# tmp1420, D.22022
	movq	-280(%rbp), %rax	# cxt, tmp1421
	movq	%rdx, 160(%rax)	# D.22022, cxt_15(D)->membuf.asiz
	movq	-280(%rbp), %rax	# cxt, tmp1422
	movq	152(%rax), %rdx	# cxt_15(D)->membuf.arena, D.22021
	movl	-132(%rbp), %eax	# offset, tmp1423
	cltq
	addq	%rax, %rdx	# D.22026, D.22021
	movq	-280(%rbp), %rax	# cxt, tmp1424
	movq	%rdx, 168(%rax)	# D.22021, cxt_15(D)->membuf.aptr
	movq	-280(%rbp), %rax	# cxt, tmp1425
	movq	152(%rax), %rdx	# cxt_15(D)->membuf.arena, D.22021
	movl	-136(%rbp), %eax	# nsz, tmp1426
	cltq
	addq	%rax, %rdx	# D.22026, D.22021
	movq	-280(%rbp), %rax	# cxt, tmp1427
	movq	%rdx, 176(%rax)	# D.22021, cxt_15(D)->membuf.aend
.L196:
.LBE53:
	.loc 1 2063 0 discriminator 2
	movl	-260(%rbp), %eax	# wlen, wlen.86
	movslq	%eax, %rdx	# wlen.86, D.22022
	movq	-280(%rbp), %rax	# cxt, tmp1429
	movq	168(%rax), %rax	# cxt_15(D)->membuf.aptr, D.22021
	movq	-24(%rbp), %rcx	# pv, tmp1430
	movq	%rcx, %rsi	# tmp1430,
	movq	%rax, %rdi	# D.22021,
	call	memcpy	#
	movq	-280(%rbp), %rax	# cxt, tmp1431
	movq	168(%rax), %rdx	# cxt_15(D)->membuf.aptr, D.22021
	movl	-260(%rbp), %eax	# wlen, wlen.87
	cltq
	addq	%rax, %rdx	# D.22026, D.22021
	movq	-280(%rbp), %rax	# cxt, tmp1432
	movq	%rdx, 168(%rax)	# D.22021, cxt_15(D)->membuf.aptr
.LBE52:
	jmp	.L194	#
.L195:
	movl	-260(%rbp), %eax	# wlen, wlen.88
	movslq	%eax, %rdx	# wlen.88, D.22022
	movq	-280(%rbp), %rax	# cxt, tmp1434
	movq	216(%rax), %rax	# cxt_15(D)->fio, D.22020
	movq	-24(%rbp), %rcx	# pv, tmp1435
	movq	%rcx, %rsi	# tmp1435,
	movq	%rax, %rdi	# D.22020,
	call	Perl_PerlIO_write	#
	movl	-260(%rbp), %edx	# wlen, wlen.89
	movslq	%edx, %rdx	# wlen.89, D.22024
	cmpq	%rdx, %rax	# D.22024, D.22024
	je	.L194	#,
	.loc 1 2063 0 discriminator 1
	movl	$-1, %eax	#, D.22018
	jmp	.L244	#
.L194:
.LBE49:
	jmp	.L197	#
.L184:
	.loc 1 2063 0 discriminator 2
	movq	-280(%rbp), %rax	# cxt, tmp1436
	movq	216(%rax), %rax	# cxt_15(D)->fio, D.22020
	testq	%rax, %rax	# D.22020
	jne	.L198	#,
	.loc 1 2063 0 discriminator 1
	movq	-280(%rbp), %rax	# cxt, tmp1437
	movq	168(%rax), %rdx	# cxt_15(D)->membuf.aptr, D.22021
	movq	-280(%rbp), %rax	# cxt, tmp1438
	movq	176(%rax), %rax	# cxt_15(D)->membuf.aend, D.22021
	cmpq	%rax, %rdx	# D.22021, D.22021
	jae	.L199	#,
	movq	-280(%rbp), %rax	# cxt, tmp1439
	movq	168(%rax), %rax	# cxt_15(D)->membuf.aptr, D.22021
	leaq	1(%rax), %rcx	#, D.22021
	movq	-280(%rbp), %rdx	# cxt, tmp1440
	movq	%rcx, 168(%rdx)	# D.22021, cxt_15(D)->membuf.aptr
	movb	$24, (%rax)	#, *_645
	jmp	.L201	#
.L199:
.LBB54:
	.loc 1 2063 0 discriminator 2
	movq	-280(%rbp), %rax	# cxt, tmp1441
	movq	160(%rax), %rax	# cxt_15(D)->membuf.asiz, D.22022
	addl	$8192, %eax	#, D.22023
	andl	$-8192, %eax	#, tmp1442
	movl	%eax, -128(%rbp)	# tmp1442, nsz
	movq	-280(%rbp), %rax	# cxt, tmp1443
	movq	168(%rax), %rax	# cxt_15(D)->membuf.aptr, D.22021
	movq	%rax, %rdx	# D.22021, D.22024
	movq	-280(%rbp), %rax	# cxt, tmp1444
	movq	152(%rax), %rax	# cxt_15(D)->membuf.arena, D.22021
	subq	%rax, %rdx	# D.22024, D.22024
	movq	%rdx, %rax	# D.22024, D.22024
	movl	%eax, -124(%rbp)	# D.22024, offset
	movl	-128(%rbp), %eax	# nsz, tmp1445
	movslq	%eax, %rdx	# tmp1445, D.22022
	movq	-280(%rbp), %rax	# cxt, tmp1446
	movq	152(%rax), %rax	# cxt_15(D)->membuf.arena, D.22021
	movq	%rdx, %rsi	# D.22022,
	movq	%rax, %rdi	# D.22021,
	call	Perl_safesysrealloc	#
	movq	-280(%rbp), %rdx	# cxt, tmp1447
	movq	%rax, 152(%rdx)	# D.22025, cxt_15(D)->membuf.arena
	movl	-128(%rbp), %eax	# nsz, tmp1448
	movslq	%eax, %rdx	# tmp1448, D.22022
	movq	-280(%rbp), %rax	# cxt, tmp1449
	movq	%rdx, 160(%rax)	# D.22022, cxt_15(D)->membuf.asiz
	movq	-280(%rbp), %rax	# cxt, tmp1450
	movq	152(%rax), %rdx	# cxt_15(D)->membuf.arena, D.22021
	movl	-124(%rbp), %eax	# offset, tmp1451
	cltq
	addq	%rax, %rdx	# D.22026, D.22021
	movq	-280(%rbp), %rax	# cxt, tmp1452
	movq	%rdx, 168(%rax)	# D.22021, cxt_15(D)->membuf.aptr
	movq	-280(%rbp), %rax	# cxt, tmp1453
	movq	152(%rax), %rdx	# cxt_15(D)->membuf.arena, D.22021
	movl	-128(%rbp), %eax	# nsz, tmp1454
	cltq
	addq	%rax, %rdx	# D.22026, D.22021
	movq	-280(%rbp), %rax	# cxt, tmp1455
	movq	%rdx, 176(%rax)	# D.22021, cxt_15(D)->membuf.aend
.LBE54:
	movq	-280(%rbp), %rax	# cxt, tmp1457
	movq	168(%rax), %rax	# cxt_15(D)->membuf.aptr, D.22021
	leaq	1(%rax), %rcx	#, D.22021
	movq	-280(%rbp), %rdx	# cxt, tmp1458
	movq	%rcx, 168(%rdx)	# D.22021, cxt_15(D)->membuf.aptr
	movb	$24, (%rax)	#, *_670
	jmp	.L201	#
.L198:
	movq	-280(%rbp), %rax	# cxt, tmp1459
	movq	216(%rax), %rax	# cxt_15(D)->fio, D.22020
	movl	$24, %esi	#,
	movq	%rax, %rdi	# D.22020,
	call	PerlIO_putc	#
	cmpl	$-1, %eax	#, D.22018
	jne	.L201	#,
	.loc 1 2063 0 discriminator 1
	movl	$-1, %eax	#, D.22018
	jmp	.L244	#
.L201:
	.loc 1 2063 0 discriminator 2
	movq	-280(%rbp), %rax	# cxt, tmp1460
	movl	80(%rax), %eax	# cxt_15(D)->netorder, D.22018
	testl	%eax, %eax	# D.22018
	je	.L202	#,
.LBB55:
	.loc 1 2063 0 discriminator 1
	movl	-260(%rbp), %eax	# wlen, wlen.90
	cltq
	movq	%rax, %rdi	# D.22024,
	call	Perl_my_htonl	#
	movl	%eax, -256(%rbp)	# y.91, y
	movq	-280(%rbp), %rax	# cxt, tmp1461
	movq	216(%rax), %rax	# cxt_15(D)->fio, D.22020
	testq	%rax, %rax	# D.22020
	jne	.L203	#,
.LBB56:
	movq	-280(%rbp), %rax	# cxt, tmp1462
	movq	168(%rax), %rax	# cxt_15(D)->membuf.aptr, D.22021
	leaq	4(%rax), %rdx	#, D.22021
	movq	-280(%rbp), %rax	# cxt, tmp1463
	movq	176(%rax), %rax	# cxt_15(D)->membuf.aend, D.22021
	cmpq	%rax, %rdx	# D.22021, D.22021
	jbe	.L204	#,
.LBB57:
	movq	-280(%rbp), %rax	# cxt, tmp1464
	movq	160(%rax), %rax	# cxt_15(D)->membuf.asiz, D.22022
	addl	$8195, %eax	#, D.22023
	andl	$-8192, %eax	#, tmp1465
	movl	%eax, -120(%rbp)	# tmp1465, nsz
	movq	-280(%rbp), %rax	# cxt, tmp1466
	movq	168(%rax), %rax	# cxt_15(D)->membuf.aptr, D.22021
	movq	%rax, %rdx	# D.22021, D.22024
	movq	-280(%rbp), %rax	# cxt, tmp1467
	movq	152(%rax), %rax	# cxt_15(D)->membuf.arena, D.22021
	subq	%rax, %rdx	# D.22024, D.22024
	movq	%rdx, %rax	# D.22024, D.22024
	movl	%eax, -116(%rbp)	# D.22024, offset
	movl	-120(%rbp), %eax	# nsz, tmp1468
	movslq	%eax, %rdx	# tmp1468, D.22022
	movq	-280(%rbp), %rax	# cxt, tmp1469
	movq	152(%rax), %rax	# cxt_15(D)->membuf.arena, D.22021
	movq	%rdx, %rsi	# D.22022,
	movq	%rax, %rdi	# D.22021,
	call	Perl_safesysrealloc	#
	movq	-280(%rbp), %rdx	# cxt, tmp1470
	movq	%rax, 152(%rdx)	# D.22025, cxt_15(D)->membuf.arena
	movl	-120(%rbp), %eax	# nsz, tmp1471
	movslq	%eax, %rdx	# tmp1471, D.22022
	movq	-280(%rbp), %rax	# cxt, tmp1472
	movq	%rdx, 160(%rax)	# D.22022, cxt_15(D)->membuf.asiz
	movq	-280(%rbp), %rax	# cxt, tmp1473
	movq	152(%rax), %rdx	# cxt_15(D)->membuf.arena, D.22021
	movl	-116(%rbp), %eax	# offset, tmp1474
	cltq
	addq	%rax, %rdx	# D.22026, D.22021
	movq	-280(%rbp), %rax	# cxt, tmp1475
	movq	%rdx, 168(%rax)	# D.22021, cxt_15(D)->membuf.aptr
	movq	-280(%rbp), %rax	# cxt, tmp1476
	movq	152(%rax), %rdx	# cxt_15(D)->membuf.arena, D.22021
	movl	-120(%rbp), %eax	# nsz, tmp1477
	cltq
	addq	%rax, %rdx	# D.22026, D.22021
	movq	-280(%rbp), %rax	# cxt, tmp1478
	movq	%rdx, 176(%rax)	# D.22021, cxt_15(D)->membuf.aend
.L204:
.LBE57:
	.loc 1 2063 0 discriminator 2
	movq	-280(%rbp), %rax	# cxt, tmp1480
	movq	168(%rax), %rax	# cxt_15(D)->membuf.aptr, D.22021
	movq	%rax, %rdx	# D.22021, D.22022
	movq	-280(%rbp), %rax	# cxt, tmp1481
	movq	168(%rax), %rax	# cxt_15(D)->membuf.aptr, D.22021
	andq	$-4, %rax	#, D.22022
	cmpq	%rax, %rdx	# D.22022, D.22022
	jne	.L205	#,
	.loc 1 2063 0 discriminator 1
	movq	-280(%rbp), %rax	# cxt, tmp1482
	movq	168(%rax), %rax	# cxt_15(D)->membuf.aptr, D.22021
	movl	-256(%rbp), %edx	# y, y.92
	movl	%edx, (%rax)	# y.92, MEM[(int *)_711]
	jmp	.L206	#
.L205:
	.loc 1 2063 0 discriminator 2
	movq	-280(%rbp), %rax	# cxt, tmp1483
	movq	168(%rax), %rax	# cxt_15(D)->membuf.aptr, D.22021
	movl	-256(%rbp), %edx	# MEM[(char * {ref-all})&y], D.22018
	movl	%edx, (%rax)	# D.22018, MEM[(char * {ref-all})_713]
.L206:
	.loc 1 2063 0 discriminator 1
	movq	-280(%rbp), %rax	# cxt, tmp1484
	movq	168(%rax), %rax	# cxt_15(D)->membuf.aptr, D.22021
	leaq	4(%rax), %rdx	#, D.22021
	movq	-280(%rbp), %rax	# cxt, tmp1485
	movq	%rdx, 168(%rax)	# D.22021, cxt_15(D)->membuf.aptr
.LBE56:
	jmp	.L207	#
.L203:
	.loc 1 2063 0 discriminator 2
	movq	-280(%rbp), %rax	# cxt, tmp1487
	movq	216(%rax), %rax	# cxt_15(D)->fio, D.22020
	leaq	-256(%rbp), %rcx	#, tmp1488
	movl	$4, %edx	#,
	movq	%rcx, %rsi	# tmp1488,
	movq	%rax, %rdi	# D.22020,
	call	Perl_PerlIO_write	#
	cmpq	$4, %rax	#, D.22024
	je	.L207	#,
	.loc 1 2063 0 discriminator 1
	movl	$-1, %eax	#, D.22018
.LBE55:
	jmp	.L244	#
.L207:
	jmp	.L208	#
.L202:
	.loc 1 2063 0 discriminator 2
	movq	-280(%rbp), %rax	# cxt, tmp1489
	movq	216(%rax), %rax	# cxt_15(D)->fio, D.22020
	testq	%rax, %rax	# D.22020
	jne	.L209	#,
.LBB58:
	.loc 1 2063 0 discriminator 1
	movq	-280(%rbp), %rax	# cxt, tmp1490
	movq	168(%rax), %rax	# cxt_15(D)->membuf.aptr, D.22021
	leaq	4(%rax), %rdx	#, D.22021
	movq	-280(%rbp), %rax	# cxt, tmp1491
	movq	176(%rax), %rax	# cxt_15(D)->membuf.aend, D.22021
	cmpq	%rax, %rdx	# D.22021, D.22021
	jbe	.L210	#,
.LBB59:
	movq	-280(%rbp), %rax	# cxt, tmp1492
	movq	160(%rax), %rax	# cxt_15(D)->membuf.asiz, D.22022
	addl	$8195, %eax	#, D.22023
	andl	$-8192, %eax	#, tmp1493
	movl	%eax, -112(%rbp)	# tmp1493, nsz
	movq	-280(%rbp), %rax	# cxt, tmp1494
	movq	168(%rax), %rax	# cxt_15(D)->membuf.aptr, D.22021
	movq	%rax, %rdx	# D.22021, D.22024
	movq	-280(%rbp), %rax	# cxt, tmp1495
	movq	152(%rax), %rax	# cxt_15(D)->membuf.arena, D.22021
	subq	%rax, %rdx	# D.22024, D.22024
	movq	%rdx, %rax	# D.22024, D.22024
	movl	%eax, -108(%rbp)	# D.22024, offset
	movl	-112(%rbp), %eax	# nsz, tmp1496
	movslq	%eax, %rdx	# tmp1496, D.22022
	movq	-280(%rbp), %rax	# cxt, tmp1497
	movq	152(%rax), %rax	# cxt_15(D)->membuf.arena, D.22021
	movq	%rdx, %rsi	# D.22022,
	movq	%rax, %rdi	# D.22021,
	call	Perl_safesysrealloc	#
	movq	-280(%rbp), %rdx	# cxt, tmp1498
	movq	%rax, 152(%rdx)	# D.22025, cxt_15(D)->membuf.arena
	movl	-112(%rbp), %eax	# nsz, tmp1499
	movslq	%eax, %rdx	# tmp1499, D.22022
	movq	-280(%rbp), %rax	# cxt, tmp1500
	movq	%rdx, 160(%rax)	# D.22022, cxt_15(D)->membuf.asiz
	movq	-280(%rbp), %rax	# cxt, tmp1501
	movq	152(%rax), %rdx	# cxt_15(D)->membuf.arena, D.22021
	movl	-108(%rbp), %eax	# offset, tmp1502
	cltq
	addq	%rax, %rdx	# D.22026, D.22021
	movq	-280(%rbp), %rax	# cxt, tmp1503
	movq	%rdx, 168(%rax)	# D.22021, cxt_15(D)->membuf.aptr
	movq	-280(%rbp), %rax	# cxt, tmp1504
	movq	152(%rax), %rdx	# cxt_15(D)->membuf.arena, D.22021
	movl	-112(%rbp), %eax	# nsz, tmp1505
	cltq
	addq	%rax, %rdx	# D.22026, D.22021
	movq	-280(%rbp), %rax	# cxt, tmp1506
	movq	%rdx, 176(%rax)	# D.22021, cxt_15(D)->membuf.aend
.L210:
.LBE59:
	.loc 1 2063 0 discriminator 2
	movq	-280(%rbp), %rax	# cxt, tmp1508
	movq	168(%rax), %rax	# cxt_15(D)->membuf.aptr, D.22021
	movq	%rax, %rdx	# D.22021, D.22022
	movq	-280(%rbp), %rax	# cxt, tmp1509
	movq	168(%rax), %rax	# cxt_15(D)->membuf.aptr, D.22021
	andq	$-4, %rax	#, D.22022
	cmpq	%rax, %rdx	# D.22022, D.22022
	jne	.L211	#,
	.loc 1 2063 0 discriminator 1
	movq	-280(%rbp), %rax	# cxt, tmp1510
	movq	168(%rax), %rax	# cxt_15(D)->membuf.aptr, D.22021
	movl	-260(%rbp), %edx	# wlen, wlen.93
	movl	%edx, (%rax)	# wlen.93, MEM[(int *)_752]
	jmp	.L212	#
.L211:
	.loc 1 2063 0 discriminator 2
	movq	-280(%rbp), %rax	# cxt, tmp1511
	movq	168(%rax), %rax	# cxt_15(D)->membuf.aptr, D.22021
	movl	-260(%rbp), %edx	# MEM[(char * {ref-all})&wlen], D.22018
	movl	%edx, (%rax)	# D.22018, MEM[(char * {ref-all})_754]
.L212:
	.loc 1 2063 0 discriminator 1
	movq	-280(%rbp), %rax	# cxt, tmp1512
	movq	168(%rax), %rax	# cxt_15(D)->membuf.aptr, D.22021
	leaq	4(%rax), %rdx	#, D.22021
	movq	-280(%rbp), %rax	# cxt, tmp1513
	movq	%rdx, 168(%rax)	# D.22021, cxt_15(D)->membuf.aptr
.LBE58:
	jmp	.L208	#
.L209:
	.loc 1 2063 0 discriminator 2
	movq	-280(%rbp), %rax	# cxt, tmp1515
	movq	216(%rax), %rax	# cxt_15(D)->fio, D.22020
	leaq	-260(%rbp), %rcx	#, tmp1516
	movl	$4, %edx	#,
	movq	%rcx, %rsi	# tmp1516,
	movq	%rax, %rdi	# D.22020,
	call	Perl_PerlIO_write	#
	cmpq	$4, %rax	#, D.22024
	je	.L208	#,
	.loc 1 2063 0 discriminator 1
	movl	$-1, %eax	#, D.22018
	jmp	.L244	#
.L208:
	.loc 1 2063 0 discriminator 2
	movq	-280(%rbp), %rax	# cxt, tmp1517
	movq	216(%rax), %rax	# cxt_15(D)->fio, D.22020
	testq	%rax, %rax	# D.22020
	jne	.L213	#,
.LBB60:
	.loc 1 2063 0 discriminator 1
	movq	-280(%rbp), %rax	# cxt, tmp1518
	movq	168(%rax), %rdx	# cxt_15(D)->membuf.aptr, D.22021
	movl	-260(%rbp), %eax	# wlen, wlen.94
	cltq
	addq	%rax, %rdx	# D.22026, D.22021
	movq	-280(%rbp), %rax	# cxt, tmp1519
	movq	176(%rax), %rax	# cxt_15(D)->membuf.aend, D.22021
	cmpq	%rax, %rdx	# D.22021, D.22021
	jbe	.L214	#,
.LBB61:
	movq	-280(%rbp), %rax	# cxt, tmp1520
	movq	160(%rax), %rax	# cxt_15(D)->membuf.asiz, D.22022
	movl	%eax, %edx	# D.22022, D.22023
	movl	-260(%rbp), %eax	# wlen, wlen.95
	addl	%edx, %eax	# D.22023, D.22023
	addl	$8191, %eax	#, D.22023
	andl	$-8192, %eax	#, tmp1521
	movl	%eax, -104(%rbp)	# tmp1521, nsz
	movq	-280(%rbp), %rax	# cxt, tmp1522
	movq	168(%rax), %rax	# cxt_15(D)->membuf.aptr, D.22021
	movq	%rax, %rdx	# D.22021, D.22024
	movq	-280(%rbp), %rax	# cxt, tmp1523
	movq	152(%rax), %rax	# cxt_15(D)->membuf.arena, D.22021
	subq	%rax, %rdx	# D.22024, D.22024
	movq	%rdx, %rax	# D.22024, D.22024
	movl	%eax, -100(%rbp)	# D.22024, offset
	movl	-104(%rbp), %eax	# nsz, tmp1524
	movslq	%eax, %rdx	# tmp1524, D.22022
	movq	-280(%rbp), %rax	# cxt, tmp1525
	movq	152(%rax), %rax	# cxt_15(D)->membuf.arena, D.22021
	movq	%rdx, %rsi	# D.22022,
	movq	%rax, %rdi	# D.22021,
	call	Perl_safesysrealloc	#
	movq	-280(%rbp), %rdx	# cxt, tmp1526
	movq	%rax, 152(%rdx)	# D.22025, cxt_15(D)->membuf.arena
	movl	-104(%rbp), %eax	# nsz, tmp1527
	movslq	%eax, %rdx	# tmp1527, D.22022
	movq	-280(%rbp), %rax	# cxt, tmp1528
	movq	%rdx, 160(%rax)	# D.22022, cxt_15(D)->membuf.asiz
	movq	-280(%rbp), %rax	# cxt, tmp1529
	movq	152(%rax), %rdx	# cxt_15(D)->membuf.arena, D.22021
	movl	-100(%rbp), %eax	# offset, tmp1530
	cltq
	addq	%rax, %rdx	# D.22026, D.22021
	movq	-280(%rbp), %rax	# cxt, tmp1531
	movq	%rdx, 168(%rax)	# D.22021, cxt_15(D)->membuf.aptr
	movq	-280(%rbp), %rax	# cxt, tmp1532
	movq	152(%rax), %rdx	# cxt_15(D)->membuf.arena, D.22021
	movl	-104(%rbp), %eax	# nsz, tmp1533
	cltq
	addq	%rax, %rdx	# D.22026, D.22021
	movq	-280(%rbp), %rax	# cxt, tmp1534
	movq	%rdx, 176(%rax)	# D.22021, cxt_15(D)->membuf.aend
.L214:
.LBE61:
	.loc 1 2063 0 discriminator 2
	movl	-260(%rbp), %eax	# wlen, wlen.97
	movslq	%eax, %rdx	# wlen.97, D.22022
	movq	-280(%rbp), %rax	# cxt, tmp1536
	movq	168(%rax), %rax	# cxt_15(D)->membuf.aptr, D.22021
	movq	-24(%rbp), %rcx	# pv, tmp1537
	movq	%rcx, %rsi	# tmp1537,
	movq	%rax, %rdi	# D.22021,
	call	memcpy	#
	movq	-280(%rbp), %rax	# cxt, tmp1538
	movq	168(%rax), %rdx	# cxt_15(D)->membuf.aptr, D.22021
	movl	-260(%rbp), %eax	# wlen, wlen.98
	cltq
	addq	%rax, %rdx	# D.22026, D.22021
	movq	-280(%rbp), %rax	# cxt, tmp1539
	movq	%rdx, 168(%rax)	# D.22021, cxt_15(D)->membuf.aptr
.LBE60:
	jmp	.L197	#
.L213:
	movl	-260(%rbp), %eax	# wlen, wlen.99
	movslq	%eax, %rdx	# wlen.99, D.22022
	movq	-280(%rbp), %rax	# cxt, tmp1541
	movq	216(%rax), %rax	# cxt_15(D)->fio, D.22020
	movq	-24(%rbp), %rcx	# pv, tmp1542
	movq	%rcx, %rsi	# tmp1542,
	movq	%rax, %rdi	# D.22020,
	call	Perl_PerlIO_write	#
	movl	-260(%rbp), %edx	# wlen, wlen.100
	movslq	%edx, %rdx	# wlen.100, D.22024
	cmpq	%rdx, %rax	# D.22024, D.22024
	je	.L197	#,
	.loc 1 2063 0 discriminator 1
	movl	$-1, %eax	#, D.22018
	jmp	.L244	#
.L183:
	.loc 1 2065 0 is_stmt 1
	movl	-260(%rbp), %eax	# wlen, wlen.101
	cmpl	$255, %eax	#, wlen.101
	jg	.L215	#,
.LBB62:
	.loc 1 2065 0 is_stmt 0 discriminator 1
	movl	-260(%rbp), %eax	# wlen, wlen.102
	movb	%al, -261(%rbp)	# wlen.102, clen
	movq	-280(%rbp), %rax	# cxt, tmp1543
	movq	216(%rax), %rax	# cxt_15(D)->fio, D.22020
	testq	%rax, %rax	# D.22020
	jne	.L216	#,
	movq	-280(%rbp), %rax	# cxt, tmp1544
	movq	168(%rax), %rdx	# cxt_15(D)->membuf.aptr, D.22021
	movq	-280(%rbp), %rax	# cxt, tmp1545
	movq	176(%rax), %rax	# cxt_15(D)->membuf.aend, D.22021
	cmpq	%rax, %rdx	# D.22021, D.22021
	jae	.L217	#,
	movq	-280(%rbp), %rax	# cxt, tmp1546
	movq	168(%rax), %rax	# cxt_15(D)->membuf.aptr, D.22021
	leaq	1(%rax), %rcx	#, D.22021
	movq	-280(%rbp), %rdx	# cxt, tmp1547
	movq	%rcx, 168(%rdx)	# D.22021, cxt_15(D)->membuf.aptr
	movb	$10, (%rax)	#, *_815
	jmp	.L219	#
.L217:
.LBB63:
	.loc 1 2065 0 discriminator 2
	movq	-280(%rbp), %rax	# cxt, tmp1548
	movq	160(%rax), %rax	# cxt_15(D)->membuf.asiz, D.22022
	addl	$8192, %eax	#, D.22023
	andl	$-8192, %eax	#, tmp1549
	movl	%eax, -96(%rbp)	# tmp1549, nsz
	movq	-280(%rbp), %rax	# cxt, tmp1550
	movq	168(%rax), %rax	# cxt_15(D)->membuf.aptr, D.22021
	movq	%rax, %rdx	# D.22021, D.22024
	movq	-280(%rbp), %rax	# cxt, tmp1551
	movq	152(%rax), %rax	# cxt_15(D)->membuf.arena, D.22021
	subq	%rax, %rdx	# D.22024, D.22024
	movq	%rdx, %rax	# D.22024, D.22024
	movl	%eax, -92(%rbp)	# D.22024, offset
	movl	-96(%rbp), %eax	# nsz, tmp1552
	movslq	%eax, %rdx	# tmp1552, D.22022
	movq	-280(%rbp), %rax	# cxt, tmp1553
	movq	152(%rax), %rax	# cxt_15(D)->membuf.arena, D.22021
	movq	%rdx, %rsi	# D.22022,
	movq	%rax, %rdi	# D.22021,
	call	Perl_safesysrealloc	#
	movq	-280(%rbp), %rdx	# cxt, tmp1554
	movq	%rax, 152(%rdx)	# D.22025, cxt_15(D)->membuf.arena
	movl	-96(%rbp), %eax	# nsz, tmp1555
	movslq	%eax, %rdx	# tmp1555, D.22022
	movq	-280(%rbp), %rax	# cxt, tmp1556
	movq	%rdx, 160(%rax)	# D.22022, cxt_15(D)->membuf.asiz
	movq	-280(%rbp), %rax	# cxt, tmp1557
	movq	152(%rax), %rdx	# cxt_15(D)->membuf.arena, D.22021
	movl	-92(%rbp), %eax	# offset, tmp1558
	cltq
	addq	%rax, %rdx	# D.22026, D.22021
	movq	-280(%rbp), %rax	# cxt, tmp1559
	movq	%rdx, 168(%rax)	# D.22021, cxt_15(D)->membuf.aptr
	movq	-280(%rbp), %rax	# cxt, tmp1560
	movq	152(%rax), %rdx	# cxt_15(D)->membuf.arena, D.22021
	movl	-96(%rbp), %eax	# nsz, tmp1561
	cltq
	addq	%rax, %rdx	# D.22026, D.22021
	movq	-280(%rbp), %rax	# cxt, tmp1562
	movq	%rdx, 176(%rax)	# D.22021, cxt_15(D)->membuf.aend
.LBE63:
	movq	-280(%rbp), %rax	# cxt, tmp1564
	movq	168(%rax), %rax	# cxt_15(D)->membuf.aptr, D.22021
	leaq	1(%rax), %rcx	#, D.22021
	movq	-280(%rbp), %rdx	# cxt, tmp1565
	movq	%rcx, 168(%rdx)	# D.22021, cxt_15(D)->membuf.aptr
	movb	$10, (%rax)	#, *_840
	jmp	.L219	#
.L216:
	movq	-280(%rbp), %rax	# cxt, tmp1566
	movq	216(%rax), %rax	# cxt_15(D)->fio, D.22020
	movl	$10, %esi	#,
	movq	%rax, %rdi	# D.22020,
	call	PerlIO_putc	#
	cmpl	$-1, %eax	#, D.22018
	jne	.L219	#,
	.loc 1 2065 0 discriminator 1
	movl	$-1, %eax	#, D.22018
	jmp	.L244	#
.L219:
	.loc 1 2065 0 discriminator 2
	movq	-280(%rbp), %rax	# cxt, tmp1567
	movq	216(%rax), %rax	# cxt_15(D)->fio, D.22020
	testq	%rax, %rax	# D.22020
	jne	.L220	#,
	.loc 1 2065 0 discriminator 1
	movq	-280(%rbp), %rax	# cxt, tmp1568
	movq	168(%rax), %rdx	# cxt_15(D)->membuf.aptr, D.22021
	movq	-280(%rbp), %rax	# cxt, tmp1569
	movq	176(%rax), %rax	# cxt_15(D)->membuf.aend, D.22021
	cmpq	%rax, %rdx	# D.22021, D.22021
	jae	.L221	#,
	movq	-280(%rbp), %rax	# cxt, tmp1570
	movq	168(%rax), %rax	# cxt_15(D)->membuf.aptr, D.22021
	leaq	1(%rax), %rcx	#, D.22021
	movq	-280(%rbp), %rdx	# cxt, tmp1571
	movq	%rcx, 168(%rdx)	# D.22021, cxt_15(D)->membuf.aptr
	movzbl	-261(%rbp), %edx	# clen, clen.103
	movb	%dl, (%rax)	# clen.103, *_849
	jmp	.L223	#
.L221:
.LBB64:
	.loc 1 2065 0 discriminator 2
	movq	-280(%rbp), %rax	# cxt, tmp1572
	movq	160(%rax), %rax	# cxt_15(D)->membuf.asiz, D.22022
	addl	$8192, %eax	#, D.22023
	andl	$-8192, %eax	#, tmp1573
	movl	%eax, -88(%rbp)	# tmp1573, nsz
	movq	-280(%rbp), %rax	# cxt, tmp1574
	movq	168(%rax), %rax	# cxt_15(D)->membuf.aptr, D.22021
	movq	%rax, %rdx	# D.22021, D.22024
	movq	-280(%rbp), %rax	# cxt, tmp1575
	movq	152(%rax), %rax	# cxt_15(D)->membuf.arena, D.22021
	subq	%rax, %rdx	# D.22024, D.22024
	movq	%rdx, %rax	# D.22024, D.22024
	movl	%eax, -84(%rbp)	# D.22024, offset
	movl	-88(%rbp), %eax	# nsz, tmp1576
	movslq	%eax, %rdx	# tmp1576, D.22022
	movq	-280(%rbp), %rax	# cxt, tmp1577
	movq	152(%rax), %rax	# cxt_15(D)->membuf.arena, D.22021
	movq	%rdx, %rsi	# D.22022,
	movq	%rax, %rdi	# D.22021,
	call	Perl_safesysrealloc	#
	movq	-280(%rbp), %rdx	# cxt, tmp1578
	movq	%rax, 152(%rdx)	# D.22025, cxt_15(D)->membuf.arena
	movl	-88(%rbp), %eax	# nsz, tmp1579
	movslq	%eax, %rdx	# tmp1579, D.22022
	movq	-280(%rbp), %rax	# cxt, tmp1580
	movq	%rdx, 160(%rax)	# D.22022, cxt_15(D)->membuf.asiz
	movq	-280(%rbp), %rax	# cxt, tmp1581
	movq	152(%rax), %rdx	# cxt_15(D)->membuf.arena, D.22021
	movl	-84(%rbp), %eax	# offset, tmp1582
	cltq
	addq	%rax, %rdx	# D.22026, D.22021
	movq	-280(%rbp), %rax	# cxt, tmp1583
	movq	%rdx, 168(%rax)	# D.22021, cxt_15(D)->membuf.aptr
	movq	-280(%rbp), %rax	# cxt, tmp1584
	movq	152(%rax), %rdx	# cxt_15(D)->membuf.arena, D.22021
	movl	-88(%rbp), %eax	# nsz, tmp1585
	cltq
	addq	%rax, %rdx	# D.22026, D.22021
	movq	-280(%rbp), %rax	# cxt, tmp1586
	movq	%rdx, 176(%rax)	# D.22021, cxt_15(D)->membuf.aend
.LBE64:
	movq	-280(%rbp), %rax	# cxt, tmp1588
	movq	168(%rax), %rax	# cxt_15(D)->membuf.aptr, D.22021
	leaq	1(%rax), %rcx	#, D.22021
	movq	-280(%rbp), %rdx	# cxt, tmp1589
	movq	%rcx, 168(%rdx)	# D.22021, cxt_15(D)->membuf.aptr
	movzbl	-261(%rbp), %edx	# clen, clen.104
	movb	%dl, (%rax)	# clen.104, *_875
	jmp	.L223	#
.L220:
	movzbl	-261(%rbp), %edx	# clen, D.22018
	movq	-280(%rbp), %rax	# cxt, tmp1590
	movq	216(%rax), %rax	# cxt_15(D)->fio, D.22020
	movl	%edx, %esi	# D.22018,
	movq	%rax, %rdi	# D.22020,
	call	PerlIO_putc	#
	cmpl	$-1, %eax	#, D.22018
	jne	.L223	#,
	.loc 1 2065 0 discriminator 1
	movl	$-1, %eax	#, D.22018
	jmp	.L244	#
.L223:
	.loc 1 2065 0 discriminator 2
	movl	-260(%rbp), %eax	# wlen, wlen.105
	testl	%eax, %eax	# wlen.105
	je	.L224	#,
	.loc 1 2065 0 discriminator 1
	movq	-280(%rbp), %rax	# cxt, tmp1591
	movq	216(%rax), %rax	# cxt_15(D)->fio, D.22020
	testq	%rax, %rax	# D.22020
	jne	.L225	#,
.LBB65:
	movq	-280(%rbp), %rax	# cxt, tmp1592
	movq	168(%rax), %rdx	# cxt_15(D)->membuf.aptr, D.22021
	movl	-260(%rbp), %eax	# wlen, wlen.106
	cltq
	addq	%rax, %rdx	# D.22026, D.22021
	movq	-280(%rbp), %rax	# cxt, tmp1593
	movq	176(%rax), %rax	# cxt_15(D)->membuf.aend, D.22021
	cmpq	%rax, %rdx	# D.22021, D.22021
	jbe	.L226	#,
.LBB66:
	movq	-280(%rbp), %rax	# cxt, tmp1594
	movq	160(%rax), %rax	# cxt_15(D)->membuf.asiz, D.22022
	movl	%eax, %edx	# D.22022, D.22023
	movl	-260(%rbp), %eax	# wlen, wlen.107
	addl	%edx, %eax	# D.22023, D.22023
	addl	$8191, %eax	#, D.22023
	andl	$-8192, %eax	#, tmp1595
	movl	%eax, -80(%rbp)	# tmp1595, nsz
	movq	-280(%rbp), %rax	# cxt, tmp1596
	movq	168(%rax), %rax	# cxt_15(D)->membuf.aptr, D.22021
	movq	%rax, %rdx	# D.22021, D.22024
	movq	-280(%rbp), %rax	# cxt, tmp1597
	movq	152(%rax), %rax	# cxt_15(D)->membuf.arena, D.22021
	subq	%rax, %rdx	# D.22024, D.22024
	movq	%rdx, %rax	# D.22024, D.22024
	movl	%eax, -76(%rbp)	# D.22024, offset
	movl	-80(%rbp), %eax	# nsz, tmp1598
	movslq	%eax, %rdx	# tmp1598, D.22022
	movq	-280(%rbp), %rax	# cxt, tmp1599
	movq	152(%rax), %rax	# cxt_15(D)->membuf.arena, D.22021
	movq	%rdx, %rsi	# D.22022,
	movq	%rax, %rdi	# D.22021,
	call	Perl_safesysrealloc	#
	movq	-280(%rbp), %rdx	# cxt, tmp1600
	movq	%rax, 152(%rdx)	# D.22025, cxt_15(D)->membuf.arena
	movl	-80(%rbp), %eax	# nsz, tmp1601
	movslq	%eax, %rdx	# tmp1601, D.22022
	movq	-280(%rbp), %rax	# cxt, tmp1602
	movq	%rdx, 160(%rax)	# D.22022, cxt_15(D)->membuf.asiz
	movq	-280(%rbp), %rax	# cxt, tmp1603
	movq	152(%rax), %rdx	# cxt_15(D)->membuf.arena, D.22021
	movl	-76(%rbp), %eax	# offset, tmp1604
	cltq
	addq	%rax, %rdx	# D.22026, D.22021
	movq	-280(%rbp), %rax	# cxt, tmp1605
	movq	%rdx, 168(%rax)	# D.22021, cxt_15(D)->membuf.aptr
	movq	-280(%rbp), %rax	# cxt, tmp1606
	movq	152(%rax), %rdx	# cxt_15(D)->membuf.arena, D.22021
	movl	-80(%rbp), %eax	# nsz, tmp1607
	cltq
	addq	%rax, %rdx	# D.22026, D.22021
	movq	-280(%rbp), %rax	# cxt, tmp1608
	movq	%rdx, 176(%rax)	# D.22021, cxt_15(D)->membuf.aend
.L226:
.LBE66:
	.loc 1 2065 0 discriminator 2
	movl	-260(%rbp), %eax	# wlen, wlen.109
	movslq	%eax, %rdx	# wlen.109, D.22022
	movq	-280(%rbp), %rax	# cxt, tmp1610
	movq	168(%rax), %rax	# cxt_15(D)->membuf.aptr, D.22021
	movq	-24(%rbp), %rcx	# pv, tmp1611
	movq	%rcx, %rsi	# tmp1611,
	movq	%rax, %rdi	# D.22021,
	call	memcpy	#
	movq	-280(%rbp), %rax	# cxt, tmp1612
	movq	168(%rax), %rdx	# cxt_15(D)->membuf.aptr, D.22021
	movl	-260(%rbp), %eax	# wlen, wlen.110
	cltq
	addq	%rax, %rdx	# D.22026, D.22021
	movq	-280(%rbp), %rax	# cxt, tmp1613
	movq	%rdx, 168(%rax)	# D.22021, cxt_15(D)->membuf.aptr
.LBE65:
	jmp	.L224	#
.L225:
	movl	-260(%rbp), %eax	# wlen, wlen.111
	movslq	%eax, %rdx	# wlen.111, D.22022
	movq	-280(%rbp), %rax	# cxt, tmp1615
	movq	216(%rax), %rax	# cxt_15(D)->fio, D.22020
	movq	-24(%rbp), %rcx	# pv, tmp1616
	movq	%rcx, %rsi	# tmp1616,
	movq	%rax, %rdi	# D.22020,
	call	Perl_PerlIO_write	#
	movl	-260(%rbp), %edx	# wlen, wlen.112
	movslq	%edx, %rdx	# wlen.112, D.22024
	cmpq	%rdx, %rax	# D.22024, D.22024
	je	.L224	#,
	.loc 1 2065 0 discriminator 1
	movl	$-1, %eax	#, D.22018
	jmp	.L244	#
.L224:
.LBE62:
	jmp	.L197	#
.L215:
	.loc 1 2065 0 discriminator 2
	movq	-280(%rbp), %rax	# cxt, tmp1617
	movq	216(%rax), %rax	# cxt_15(D)->fio, D.22020
	testq	%rax, %rax	# D.22020
	jne	.L227	#,
	.loc 1 2065 0 discriminator 1
	movq	-280(%rbp), %rax	# cxt, tmp1618
	movq	168(%rax), %rdx	# cxt_15(D)->membuf.aptr, D.22021
	movq	-280(%rbp), %rax	# cxt, tmp1619
	movq	176(%rax), %rax	# cxt_15(D)->membuf.aend, D.22021
	cmpq	%rax, %rdx	# D.22021, D.22021
	jae	.L228	#,
	movq	-280(%rbp), %rax	# cxt, tmp1620
	movq	168(%rax), %rax	# cxt_15(D)->membuf.aptr, D.22021
	leaq	1(%rax), %rcx	#, D.22021
	movq	-280(%rbp), %rdx	# cxt, tmp1621
	movq	%rcx, 168(%rdx)	# D.22021, cxt_15(D)->membuf.aptr
	movb	$1, (%rax)	#, *_933
	jmp	.L230	#
.L228:
.LBB67:
	.loc 1 2065 0 discriminator 2
	movq	-280(%rbp), %rax	# cxt, tmp1622
	movq	160(%rax), %rax	# cxt_15(D)->membuf.asiz, D.22022
	addl	$8192, %eax	#, D.22023
	andl	$-8192, %eax	#, tmp1623
	movl	%eax, -72(%rbp)	# tmp1623, nsz
	movq	-280(%rbp), %rax	# cxt, tmp1624
	movq	168(%rax), %rax	# cxt_15(D)->membuf.aptr, D.22021
	movq	%rax, %rdx	# D.22021, D.22024
	movq	-280(%rbp), %rax	# cxt, tmp1625
	movq	152(%rax), %rax	# cxt_15(D)->membuf.arena, D.22021
	subq	%rax, %rdx	# D.22024, D.22024
	movq	%rdx, %rax	# D.22024, D.22024
	movl	%eax, -68(%rbp)	# D.22024, offset
	movl	-72(%rbp), %eax	# nsz, tmp1626
	movslq	%eax, %rdx	# tmp1626, D.22022
	movq	-280(%rbp), %rax	# cxt, tmp1627
	movq	152(%rax), %rax	# cxt_15(D)->membuf.arena, D.22021
	movq	%rdx, %rsi	# D.22022,
	movq	%rax, %rdi	# D.22021,
	call	Perl_safesysrealloc	#
	movq	-280(%rbp), %rdx	# cxt, tmp1628
	movq	%rax, 152(%rdx)	# D.22025, cxt_15(D)->membuf.arena
	movl	-72(%rbp), %eax	# nsz, tmp1629
	movslq	%eax, %rdx	# tmp1629, D.22022
	movq	-280(%rbp), %rax	# cxt, tmp1630
	movq	%rdx, 160(%rax)	# D.22022, cxt_15(D)->membuf.asiz
	movq	-280(%rbp), %rax	# cxt, tmp1631
	movq	152(%rax), %rdx	# cxt_15(D)->membuf.arena, D.22021
	movl	-68(%rbp), %eax	# offset, tmp1632
	cltq
	addq	%rax, %rdx	# D.22026, D.22021
	movq	-280(%rbp), %rax	# cxt, tmp1633
	movq	%rdx, 168(%rax)	# D.22021, cxt_15(D)->membuf.aptr
	movq	-280(%rbp), %rax	# cxt, tmp1634
	movq	152(%rax), %rdx	# cxt_15(D)->membuf.arena, D.22021
	movl	-72(%rbp), %eax	# nsz, tmp1635
	cltq
	addq	%rax, %rdx	# D.22026, D.22021
	movq	-280(%rbp), %rax	# cxt, tmp1636
	movq	%rdx, 176(%rax)	# D.22021, cxt_15(D)->membuf.aend
.LBE67:
	movq	-280(%rbp), %rax	# cxt, tmp1638
	movq	168(%rax), %rax	# cxt_15(D)->membuf.aptr, D.22021
	leaq	1(%rax), %rcx	#, D.22021
	movq	-280(%rbp), %rdx	# cxt, tmp1639
	movq	%rcx, 168(%rdx)	# D.22021, cxt_15(D)->membuf.aptr
	movb	$1, (%rax)	#, *_958
	jmp	.L230	#
.L227:
	movq	-280(%rbp), %rax	# cxt, tmp1640
	movq	216(%rax), %rax	# cxt_15(D)->fio, D.22020
	movl	$1, %esi	#,
	movq	%rax, %rdi	# D.22020,
	call	PerlIO_putc	#
	cmpl	$-1, %eax	#, D.22018
	jne	.L230	#,
	.loc 1 2065 0 discriminator 1
	movl	$-1, %eax	#, D.22018
	jmp	.L244	#
.L230:
	.loc 1 2065 0 discriminator 2
	movq	-280(%rbp), %rax	# cxt, tmp1641
	movl	80(%rax), %eax	# cxt_15(D)->netorder, D.22018
	testl	%eax, %eax	# D.22018
	je	.L231	#,
.LBB68:
	.loc 1 2065 0 discriminator 1
	movl	-260(%rbp), %eax	# wlen, wlen.113
	cltq
	movq	%rax, %rdi	# D.22024,
	call	Perl_my_htonl	#
	movl	%eax, -256(%rbp)	# y.114, y
	movq	-280(%rbp), %rax	# cxt, tmp1642
	movq	216(%rax), %rax	# cxt_15(D)->fio, D.22020
	testq	%rax, %rax	# D.22020
	jne	.L232	#,
.LBB69:
	movq	-280(%rbp), %rax	# cxt, tmp1643
	movq	168(%rax), %rax	# cxt_15(D)->membuf.aptr, D.22021
	leaq	4(%rax), %rdx	#, D.22021
	movq	-280(%rbp), %rax	# cxt, tmp1644
	movq	176(%rax), %rax	# cxt_15(D)->membuf.aend, D.22021
	cmpq	%rax, %rdx	# D.22021, D.22021
	jbe	.L233	#,
.LBB70:
	movq	-280(%rbp), %rax	# cxt, tmp1645
	movq	160(%rax), %rax	# cxt_15(D)->membuf.asiz, D.22022
	addl	$8195, %eax	#, D.22023
	andl	$-8192, %eax	#, tmp1646
	movl	%eax, -64(%rbp)	# tmp1646, nsz
	movq	-280(%rbp), %rax	# cxt, tmp1647
	movq	168(%rax), %rax	# cxt_15(D)->membuf.aptr, D.22021
	movq	%rax, %rdx	# D.22021, D.22024
	movq	-280(%rbp), %rax	# cxt, tmp1648
	movq	152(%rax), %rax	# cxt_15(D)->membuf.arena, D.22021
	subq	%rax, %rdx	# D.22024, D.22024
	movq	%rdx, %rax	# D.22024, D.22024
	movl	%eax, -60(%rbp)	# D.22024, offset
	movl	-64(%rbp), %eax	# nsz, tmp1649
	movslq	%eax, %rdx	# tmp1649, D.22022
	movq	-280(%rbp), %rax	# cxt, tmp1650
	movq	152(%rax), %rax	# cxt_15(D)->membuf.arena, D.22021
	movq	%rdx, %rsi	# D.22022,
	movq	%rax, %rdi	# D.22021,
	call	Perl_safesysrealloc	#
	movq	-280(%rbp), %rdx	# cxt, tmp1651
	movq	%rax, 152(%rdx)	# D.22025, cxt_15(D)->membuf.arena
	movl	-64(%rbp), %eax	# nsz, tmp1652
	movslq	%eax, %rdx	# tmp1652, D.22022
	movq	-280(%rbp), %rax	# cxt, tmp1653
	movq	%rdx, 160(%rax)	# D.22022, cxt_15(D)->membuf.asiz
	movq	-280(%rbp), %rax	# cxt, tmp1654
	movq	152(%rax), %rdx	# cxt_15(D)->membuf.arena, D.22021
	movl	-60(%rbp), %eax	# offset, tmp1655
	cltq
	addq	%rax, %rdx	# D.22026, D.22021
	movq	-280(%rbp), %rax	# cxt, tmp1656
	movq	%rdx, 168(%rax)	# D.22021, cxt_15(D)->membuf.aptr
	movq	-280(%rbp), %rax	# cxt, tmp1657
	movq	152(%rax), %rdx	# cxt_15(D)->membuf.arena, D.22021
	movl	-64(%rbp), %eax	# nsz, tmp1658
	cltq
	addq	%rax, %rdx	# D.22026, D.22021
	movq	-280(%rbp), %rax	# cxt, tmp1659
	movq	%rdx, 176(%rax)	# D.22021, cxt_15(D)->membuf.aend
.L233:
.LBE70:
	.loc 1 2065 0 discriminator 2
	movq	-280(%rbp), %rax	# cxt, tmp1661
	movq	168(%rax), %rax	# cxt_15(D)->membuf.aptr, D.22021
	movq	%rax, %rdx	# D.22021, D.22022
	movq	-280(%rbp), %rax	# cxt, tmp1662
	movq	168(%rax), %rax	# cxt_15(D)->membuf.aptr, D.22021
	andq	$-4, %rax	#, D.22022
	cmpq	%rax, %rdx	# D.22022, D.22022
	jne	.L234	#,
	.loc 1 2065 0 discriminator 1
	movq	-280(%rbp), %rax	# cxt, tmp1663
	movq	168(%rax), %rax	# cxt_15(D)->membuf.aptr, D.22021
	movl	-256(%rbp), %edx	# y, y.115
	movl	%edx, (%rax)	# y.115, MEM[(int *)_999]
	jmp	.L235	#
.L234:
	.loc 1 2065 0 discriminator 2
	movq	-280(%rbp), %rax	# cxt, tmp1664
	movq	168(%rax), %rax	# cxt_15(D)->membuf.aptr, D.22021
	movl	-256(%rbp), %edx	# MEM[(char * {ref-all})&y], D.22018
	movl	%edx, (%rax)	# D.22018, MEM[(char * {ref-all})_1001]
.L235:
	.loc 1 2065 0 discriminator 1
	movq	-280(%rbp), %rax	# cxt, tmp1665
	movq	168(%rax), %rax	# cxt_15(D)->membuf.aptr, D.22021
	leaq	4(%rax), %rdx	#, D.22021
	movq	-280(%rbp), %rax	# cxt, tmp1666
	movq	%rdx, 168(%rax)	# D.22021, cxt_15(D)->membuf.aptr
.LBE69:
	jmp	.L236	#
.L232:
	.loc 1 2065 0 discriminator 2
	movq	-280(%rbp), %rax	# cxt, tmp1668
	movq	216(%rax), %rax	# cxt_15(D)->fio, D.22020
	leaq	-256(%rbp), %rcx	#, tmp1669
	movl	$4, %edx	#,
	movq	%rcx, %rsi	# tmp1669,
	movq	%rax, %rdi	# D.22020,
	call	Perl_PerlIO_write	#
	cmpq	$4, %rax	#, D.22024
	je	.L236	#,
	.loc 1 2065 0 discriminator 1
	movl	$-1, %eax	#, D.22018
.LBE68:
	.loc 1 2063 0 is_stmt 1 discriminator 1
	jmp	.L244	#
.L236:
	jmp	.L237	#
.L231:
	.loc 1 2065 0 discriminator 2
	movq	-280(%rbp), %rax	# cxt, tmp1670
	movq	216(%rax), %rax	# cxt_15(D)->fio, D.22020
	testq	%rax, %rax	# D.22020
	jne	.L238	#,
.LBB71:
	.loc 1 2065 0 is_stmt 0 discriminator 1
	movq	-280(%rbp), %rax	# cxt, tmp1671
	movq	168(%rax), %rax	# cxt_15(D)->membuf.aptr, D.22021
	leaq	4(%rax), %rdx	#, D.22021
	movq	-280(%rbp), %rax	# cxt, tmp1672
	movq	176(%rax), %rax	# cxt_15(D)->membuf.aend, D.22021
	cmpq	%rax, %rdx	# D.22021, D.22021
	jbe	.L239	#,
.LBB72:
	movq	-280(%rbp), %rax	# cxt, tmp1673
	movq	160(%rax), %rax	# cxt_15(D)->membuf.asiz, D.22022
	addl	$8195, %eax	#, D.22023
	andl	$-8192, %eax	#, tmp1674
	movl	%eax, -56(%rbp)	# tmp1674, nsz
	movq	-280(%rbp), %rax	# cxt, tmp1675
	movq	168(%rax), %rax	# cxt_15(D)->membuf.aptr, D.22021
	movq	%rax, %rdx	# D.22021, D.22024
	movq	-280(%rbp), %rax	# cxt, tmp1676
	movq	152(%rax), %rax	# cxt_15(D)->membuf.arena, D.22021
	subq	%rax, %rdx	# D.22024, D.22024
	movq	%rdx, %rax	# D.22024, D.22024
	movl	%eax, -52(%rbp)	# D.22024, offset
	movl	-56(%rbp), %eax	# nsz, tmp1677
	movslq	%eax, %rdx	# tmp1677, D.22022
	movq	-280(%rbp), %rax	# cxt, tmp1678
	movq	152(%rax), %rax	# cxt_15(D)->membuf.arena, D.22021
	movq	%rdx, %rsi	# D.22022,
	movq	%rax, %rdi	# D.22021,
	call	Perl_safesysrealloc	#
	movq	-280(%rbp), %rdx	# cxt, tmp1679
	movq	%rax, 152(%rdx)	# D.22025, cxt_15(D)->membuf.arena
	movl	-56(%rbp), %eax	# nsz, tmp1680
	movslq	%eax, %rdx	# tmp1680, D.22022
	movq	-280(%rbp), %rax	# cxt, tmp1681
	movq	%rdx, 160(%rax)	# D.22022, cxt_15(D)->membuf.asiz
	movq	-280(%rbp), %rax	# cxt, tmp1682
	movq	152(%rax), %rdx	# cxt_15(D)->membuf.arena, D.22021
	movl	-52(%rbp), %eax	# offset, tmp1683
	cltq
	addq	%rax, %rdx	# D.22026, D.22021
	movq	-280(%rbp), %rax	# cxt, tmp1684
	movq	%rdx, 168(%rax)	# D.22021, cxt_15(D)->membuf.aptr
	movq	-280(%rbp), %rax	# cxt, tmp1685
	movq	152(%rax), %rdx	# cxt_15(D)->membuf.arena, D.22021
	movl	-56(%rbp), %eax	# nsz, tmp1686
	cltq
	addq	%rax, %rdx	# D.22026, D.22021
	movq	-280(%rbp), %rax	# cxt, tmp1687
	movq	%rdx, 176(%rax)	# D.22021, cxt_15(D)->membuf.aend
.L239:
.LBE72:
	.loc 1 2065 0 discriminator 2
	movq	-280(%rbp), %rax	# cxt, tmp1689
	movq	168(%rax), %rax	# cxt_15(D)->membuf.aptr, D.22021
	movq	%rax, %rdx	# D.22021, D.22022
	movq	-280(%rbp), %rax	# cxt, tmp1690
	movq	168(%rax), %rax	# cxt_15(D)->membuf.aptr, D.22021
	andq	$-4, %rax	#, D.22022
	cmpq	%rax, %rdx	# D.22022, D.22022
	jne	.L240	#,
	.loc 1 2065 0 discriminator 1
	movq	-280(%rbp), %rax	# cxt, tmp1691
	movq	168(%rax), %rax	# cxt_15(D)->membuf.aptr, D.22021
	movl	-260(%rbp), %edx	# wlen, wlen.116
	movl	%edx, (%rax)	# wlen.116, MEM[(int *)_1040]
	jmp	.L241	#
.L240:
	.loc 1 2065 0 discriminator 2
	movq	-280(%rbp), %rax	# cxt, tmp1692
	movq	168(%rax), %rax	# cxt_15(D)->membuf.aptr, D.22021
	movl	-260(%rbp), %edx	# MEM[(char * {ref-all})&wlen], D.22018
	movl	%edx, (%rax)	# D.22018, MEM[(char * {ref-all})_1042]
.L241:
	.loc 1 2065 0 discriminator 1
	movq	-280(%rbp), %rax	# cxt, tmp1693
	movq	168(%rax), %rax	# cxt_15(D)->membuf.aptr, D.22021
	leaq	4(%rax), %rdx	#, D.22021
	movq	-280(%rbp), %rax	# cxt, tmp1694
	movq	%rdx, 168(%rax)	# D.22021, cxt_15(D)->membuf.aptr
.LBE71:
	jmp	.L237	#
.L238:
	.loc 1 2065 0 discriminator 2
	movq	-280(%rbp), %rax	# cxt, tmp1696
	movq	216(%rax), %rax	# cxt_15(D)->fio, D.22020
	leaq	-260(%rbp), %rcx	#, tmp1697
	movl	$4, %edx	#,
	movq	%rcx, %rsi	# tmp1697,
	movq	%rax, %rdi	# D.22020,
	call	Perl_PerlIO_write	#
	cmpq	$4, %rax	#, D.22024
	je	.L237	#,
	.loc 1 2065 0 discriminator 1
	movl	$-1, %eax	#, D.22018
	jmp	.L244	#
.L237:
	.loc 1 2065 0 discriminator 2
	movq	-280(%rbp), %rax	# cxt, tmp1698
	movq	216(%rax), %rax	# cxt_15(D)->fio, D.22020
	testq	%rax, %rax	# D.22020
	jne	.L242	#,
.LBB73:
	.loc 1 2065 0 discriminator 1
	movq	-280(%rbp), %rax	# cxt, tmp1699
	movq	168(%rax), %rdx	# cxt_15(D)->membuf.aptr, D.22021
	movl	-260(%rbp), %eax	# wlen, wlen.117
	cltq
	addq	%rax, %rdx	# D.22026, D.22021
	movq	-280(%rbp), %rax	# cxt, tmp1700
	movq	176(%rax), %rax	# cxt_15(D)->membuf.aend, D.22021
	cmpq	%rax, %rdx	# D.22021, D.22021
	jbe	.L243	#,
.LBB74:
	movq	-280(%rbp), %rax	# cxt, tmp1701
	movq	160(%rax), %rax	# cxt_15(D)->membuf.asiz, D.22022
	movl	%eax, %edx	# D.22022, D.22023
	movl	-260(%rbp), %eax	# wlen, wlen.118
	addl	%edx, %eax	# D.22023, D.22023
	addl	$8191, %eax	#, D.22023
	andl	$-8192, %eax	#, tmp1702
	movl	%eax, -48(%rbp)	# tmp1702, nsz
	movq	-280(%rbp), %rax	# cxt, tmp1703
	movq	168(%rax), %rax	# cxt_15(D)->membuf.aptr, D.22021
	movq	%rax, %rdx	# D.22021, D.22024
	movq	-280(%rbp), %rax	# cxt, tmp1704
	movq	152(%rax), %rax	# cxt_15(D)->membuf.arena, D.22021
	subq	%rax, %rdx	# D.22024, D.22024
	movq	%rdx, %rax	# D.22024, D.22024
	movl	%eax, -44(%rbp)	# D.22024, offset
	movl	-48(%rbp), %eax	# nsz, tmp1705
	movslq	%eax, %rdx	# tmp1705, D.22022
	movq	-280(%rbp), %rax	# cxt, tmp1706
	movq	152(%rax), %rax	# cxt_15(D)->membuf.arena, D.22021
	movq	%rdx, %rsi	# D.22022,
	movq	%rax, %rdi	# D.22021,
	call	Perl_safesysrealloc	#
	movq	-280(%rbp), %rdx	# cxt, tmp1707
	movq	%rax, 152(%rdx)	# D.22025, cxt_15(D)->membuf.arena
	movl	-48(%rbp), %eax	# nsz, tmp1708
	movslq	%eax, %rdx	# tmp1708, D.22022
	movq	-280(%rbp), %rax	# cxt, tmp1709
	movq	%rdx, 160(%rax)	# D.22022, cxt_15(D)->membuf.asiz
	movq	-280(%rbp), %rax	# cxt, tmp1710
	movq	152(%rax), %rdx	# cxt_15(D)->membuf.arena, D.22021
	movl	-44(%rbp), %eax	# offset, tmp1711
	cltq
	addq	%rax, %rdx	# D.22026, D.22021
	movq	-280(%rbp), %rax	# cxt, tmp1712
	movq	%rdx, 168(%rax)	# D.22021, cxt_15(D)->membuf.aptr
	movq	-280(%rbp), %rax	# cxt, tmp1713
	movq	152(%rax), %rdx	# cxt_15(D)->membuf.arena, D.22021
	movl	-48(%rbp), %eax	# nsz, tmp1714
	cltq
	addq	%rax, %rdx	# D.22026, D.22021
	movq	-280(%rbp), %rax	# cxt, tmp1715
	movq	%rdx, 176(%rax)	# D.22021, cxt_15(D)->membuf.aend
.L243:
.LBE74:
	.loc 1 2065 0 discriminator 2
	movl	-260(%rbp), %eax	# wlen, wlen.120
	movslq	%eax, %rdx	# wlen.120, D.22022
	movq	-280(%rbp), %rax	# cxt, tmp1717
	movq	168(%rax), %rax	# cxt_15(D)->membuf.aptr, D.22021
	movq	-24(%rbp), %rcx	# pv, tmp1718
	movq	%rcx, %rsi	# tmp1718,
	movq	%rax, %rdi	# D.22021,
	call	memcpy	#
	movq	-280(%rbp), %rax	# cxt, tmp1719
	movq	168(%rax), %rdx	# cxt_15(D)->membuf.aptr, D.22021
	movl	-260(%rbp), %eax	# wlen, wlen.121
	cltq
	addq	%rax, %rdx	# D.22026, D.22021
	movq	-280(%rbp), %rax	# cxt, tmp1720
	movq	%rdx, 168(%rax)	# D.22021, cxt_15(D)->membuf.aptr
.LBE73:
	jmp	.L197	#
.L242:
	movl	-260(%rbp), %eax	# wlen, wlen.122
	movslq	%eax, %rdx	# wlen.122, D.22022
	movq	-280(%rbp), %rax	# cxt, tmp1722
	movq	216(%rax), %rax	# cxt_15(D)->fio, D.22020
	movq	-24(%rbp), %rcx	# pv, tmp1723
	movq	%rcx, %rsi	# tmp1723,
	movq	%rax, %rdi	# D.22020,
	call	Perl_PerlIO_write	#
	movl	-260(%rbp), %edx	# wlen, wlen.123
	movslq	%edx, %rdx	# wlen.123, D.22024
	cmpq	%rdx, %rax	# D.22024, D.22024
	je	.L197	#,
	.loc 1 2065 0 discriminator 1
	movl	$-1, %eax	#, D.22018
	jmp	.L244	#
.L197:
.LBE48:
	jmp	.L115	#
.L180:
.LBB75:
	.loc 1 2069 0 is_stmt 1
	movq	-280(%rbp), %rax	# cxt, tmp1724
	movl	$1, 112(%rax)	#, cxt_15(D)->s_dirty
	movq	-288(%rbp), %rbx	# sv, sv.124
	movq	-288(%rbp), %rax	# sv, tmp1725
	movl	$0, %esi	#,
	movq	%rax, %rdi	# tmp1725,
	call	Perl_sv_reftype	#
	movq	%rbx, %rdx	# sv.124,
	movq	%rax, %rsi	# D.22021,
	movl	$.LC2, %edi	#,
	movl	$0, %eax	#,
	call	Perl_croak	#
.L115:
.LBE75:
	.loc 1 2072 0
	movl	$0, %eax	#, D.22018
.L244:
	.loc 1 2073 0
	addq	$296, %rsp	#,
	popq	%rbx	#
	popq	%rbp	#
	.cfi_def_cfa 7, 8
	ret
	.cfi_endproc
.LFE22:
	.size	store_scalar, .-store_scalar
	.type	store_array, @function
store_array:
.LFB23:
	.loc 1 2084 0
	.cfi_startproc
	pushq	%rbp	#
	.cfi_def_cfa_offset 16
	.cfi_offset 6, -16
	movq	%rsp, %rbp	#,
	.cfi_def_cfa_register 6
	subq	$80, %rsp	#,
	movq	%rdi, -72(%rbp)	# cxt, cxt
	movq	%rsi, -80(%rbp)	# av, av
	.loc 1 2086 0
	movq	-80(%rbp), %rax	# av, tmp206
	movq	%rax, %rdi	# tmp206,
	call	Perl_av_len	#
	addl	$1, %eax	#, len.125
	movl	%eax, -56(%rbp)	# len.125, len
	.loc 1 2096 0
	movq	-72(%rbp), %rax	# cxt, tmp207
	movq	216(%rax), %rax	# cxt_6(D)->fio, D.22034
	testq	%rax, %rax	# D.22034
	jne	.L246	#,
	.loc 1 2096 0 is_stmt 0 discriminator 1
	movq	-72(%rbp), %rax	# cxt, tmp208
	movq	168(%rax), %rdx	# cxt_6(D)->membuf.aptr, D.22035
	movq	-72(%rbp), %rax	# cxt, tmp209
	movq	176(%rax), %rax	# cxt_6(D)->membuf.aend, D.22035
	cmpq	%rax, %rdx	# D.22035, D.22035
	jae	.L247	#,
	movq	-72(%rbp), %rax	# cxt, tmp210
	movq	168(%rax), %rax	# cxt_6(D)->membuf.aptr, D.22035
	leaq	1(%rax), %rcx	#, D.22035
	movq	-72(%rbp), %rdx	# cxt, tmp211
	movq	%rcx, 168(%rdx)	# D.22035, cxt_6(D)->membuf.aptr
	movb	$2, (%rax)	#, *_11
	jmp	.L249	#
.L247:
.LBB76:
	.loc 1 2096 0 discriminator 2
	movq	-72(%rbp), %rax	# cxt, tmp212
	movq	160(%rax), %rax	# cxt_6(D)->membuf.asiz, D.22036
	addl	$8192, %eax	#, D.22037
	andl	$-8192, %eax	#, tmp213
	movl	%eax, -44(%rbp)	# tmp213, nsz
	movq	-72(%rbp), %rax	# cxt, tmp214
	movq	168(%rax), %rax	# cxt_6(D)->membuf.aptr, D.22035
	movq	%rax, %rdx	# D.22035, D.22038
	movq	-72(%rbp), %rax	# cxt, tmp215
	movq	152(%rax), %rax	# cxt_6(D)->membuf.arena, D.22035
	subq	%rax, %rdx	# D.22038, D.22038
	movq	%rdx, %rax	# D.22038, D.22038
	movl	%eax, -40(%rbp)	# D.22038, offset
	movl	-44(%rbp), %eax	# nsz, tmp216
	movslq	%eax, %rdx	# tmp216, D.22036
	movq	-72(%rbp), %rax	# cxt, tmp217
	movq	152(%rax), %rax	# cxt_6(D)->membuf.arena, D.22035
	movq	%rdx, %rsi	# D.22036,
	movq	%rax, %rdi	# D.22035,
	call	Perl_safesysrealloc	#
	movq	-72(%rbp), %rdx	# cxt, tmp218
	movq	%rax, 152(%rdx)	# D.22039, cxt_6(D)->membuf.arena
	movl	-44(%rbp), %eax	# nsz, tmp219
	movslq	%eax, %rdx	# tmp219, D.22036
	movq	-72(%rbp), %rax	# cxt, tmp220
	movq	%rdx, 160(%rax)	# D.22036, cxt_6(D)->membuf.asiz
	movq	-72(%rbp), %rax	# cxt, tmp221
	movq	152(%rax), %rdx	# cxt_6(D)->membuf.arena, D.22035
	movl	-40(%rbp), %eax	# offset, tmp222
	cltq
	addq	%rax, %rdx	# D.22040, D.22035
	movq	-72(%rbp), %rax	# cxt, tmp223
	movq	%rdx, 168(%rax)	# D.22035, cxt_6(D)->membuf.aptr
	movq	-72(%rbp), %rax	# cxt, tmp224
	movq	152(%rax), %rdx	# cxt_6(D)->membuf.arena, D.22035
	movl	-44(%rbp), %eax	# nsz, tmp225
	cltq
	addq	%rax, %rdx	# D.22040, D.22035
	movq	-72(%rbp), %rax	# cxt, tmp226
	movq	%rdx, 176(%rax)	# D.22035, cxt_6(D)->membuf.aend
.LBE76:
	movq	-72(%rbp), %rax	# cxt, tmp228
	movq	168(%rax), %rax	# cxt_6(D)->membuf.aptr, D.22035
	leaq	1(%rax), %rcx	#, D.22035
	movq	-72(%rbp), %rdx	# cxt, tmp229
	movq	%rcx, 168(%rdx)	# D.22035, cxt_6(D)->membuf.aptr
	movb	$2, (%rax)	#, *_36
	jmp	.L249	#
.L246:
	movq	-72(%rbp), %rax	# cxt, tmp230
	movq	216(%rax), %rax	# cxt_6(D)->fio, D.22034
	movl	$2, %esi	#,
	movq	%rax, %rdi	# D.22034,
	call	PerlIO_putc	#
	cmpl	$-1, %eax	#, D.22033
	jne	.L249	#,
	.loc 1 2096 0 discriminator 1
	movl	$-1, %eax	#, D.22033
	jmp	.L270	#
.L249:
	.loc 1 2097 0 is_stmt 1
	movq	-72(%rbp), %rax	# cxt, tmp231
	movl	80(%rax), %eax	# cxt_6(D)->netorder, D.22033
	testl	%eax, %eax	# D.22033
	je	.L251	#,
.LBB77:
	.loc 1 2097 0 is_stmt 0 discriminator 1
	movl	-56(%rbp), %eax	# len, len.126
	cltq
	movq	%rax, %rdi	# D.22038,
	call	Perl_my_htonl	#
	movl	%eax, -52(%rbp)	# y.127, y
	movq	-72(%rbp), %rax	# cxt, tmp232
	movq	216(%rax), %rax	# cxt_6(D)->fio, D.22034
	testq	%rax, %rax	# D.22034
	jne	.L252	#,
.LBB78:
	movq	-72(%rbp), %rax	# cxt, tmp233
	movq	168(%rax), %rax	# cxt_6(D)->membuf.aptr, D.22035
	leaq	4(%rax), %rdx	#, D.22035
	movq	-72(%rbp), %rax	# cxt, tmp234
	movq	176(%rax), %rax	# cxt_6(D)->membuf.aend, D.22035
	cmpq	%rax, %rdx	# D.22035, D.22035
	jbe	.L253	#,
.LBB79:
	movq	-72(%rbp), %rax	# cxt, tmp235
	movq	160(%rax), %rax	# cxt_6(D)->membuf.asiz, D.22036
	addl	$8195, %eax	#, D.22037
	andl	$-8192, %eax	#, tmp236
	movl	%eax, -36(%rbp)	# tmp236, nsz
	movq	-72(%rbp), %rax	# cxt, tmp237
	movq	168(%rax), %rax	# cxt_6(D)->membuf.aptr, D.22035
	movq	%rax, %rdx	# D.22035, D.22038
	movq	-72(%rbp), %rax	# cxt, tmp238
	movq	152(%rax), %rax	# cxt_6(D)->membuf.arena, D.22035
	subq	%rax, %rdx	# D.22038, D.22038
	movq	%rdx, %rax	# D.22038, D.22038
	movl	%eax, -32(%rbp)	# D.22038, offset
	movl	-36(%rbp), %eax	# nsz, tmp239
	movslq	%eax, %rdx	# tmp239, D.22036
	movq	-72(%rbp), %rax	# cxt, tmp240
	movq	152(%rax), %rax	# cxt_6(D)->membuf.arena, D.22035
	movq	%rdx, %rsi	# D.22036,
	movq	%rax, %rdi	# D.22035,
	call	Perl_safesysrealloc	#
	movq	-72(%rbp), %rdx	# cxt, tmp241
	movq	%rax, 152(%rdx)	# D.22039, cxt_6(D)->membuf.arena
	movl	-36(%rbp), %eax	# nsz, tmp242
	movslq	%eax, %rdx	# tmp242, D.22036
	movq	-72(%rbp), %rax	# cxt, tmp243
	movq	%rdx, 160(%rax)	# D.22036, cxt_6(D)->membuf.asiz
	movq	-72(%rbp), %rax	# cxt, tmp244
	movq	152(%rax), %rdx	# cxt_6(D)->membuf.arena, D.22035
	movl	-32(%rbp), %eax	# offset, tmp245
	cltq
	addq	%rax, %rdx	# D.22040, D.22035
	movq	-72(%rbp), %rax	# cxt, tmp246
	movq	%rdx, 168(%rax)	# D.22035, cxt_6(D)->membuf.aptr
	movq	-72(%rbp), %rax	# cxt, tmp247
	movq	152(%rax), %rdx	# cxt_6(D)->membuf.arena, D.22035
	movl	-36(%rbp), %eax	# nsz, tmp248
	cltq
	addq	%rax, %rdx	# D.22040, D.22035
	movq	-72(%rbp), %rax	# cxt, tmp249
	movq	%rdx, 176(%rax)	# D.22035, cxt_6(D)->membuf.aend
.L253:
.LBE79:
	.loc 1 2097 0 discriminator 2
	movq	-72(%rbp), %rax	# cxt, tmp251
	movq	168(%rax), %rax	# cxt_6(D)->membuf.aptr, D.22035
	movq	%rax, %rdx	# D.22035, D.22036
	movq	-72(%rbp), %rax	# cxt, tmp252
	movq	168(%rax), %rax	# cxt_6(D)->membuf.aptr, D.22035
	andq	$-4, %rax	#, D.22036
	cmpq	%rax, %rdx	# D.22036, D.22036
	jne	.L254	#,
	.loc 1 2097 0 discriminator 1
	movq	-72(%rbp), %rax	# cxt, tmp253
	movq	168(%rax), %rax	# cxt_6(D)->membuf.aptr, D.22035
	movl	-52(%rbp), %edx	# y, y.128
	movl	%edx, (%rax)	# y.128, MEM[(int *)_77]
	jmp	.L255	#
.L254:
	.loc 1 2097 0 discriminator 2
	movq	-72(%rbp), %rax	# cxt, tmp254
	movq	168(%rax), %rax	# cxt_6(D)->membuf.aptr, D.22035
	movl	-52(%rbp), %edx	# MEM[(char * {ref-all})&y], D.22033
	movl	%edx, (%rax)	# D.22033, MEM[(char * {ref-all})_79]
.L255:
	.loc 1 2097 0 discriminator 1
	movq	-72(%rbp), %rax	# cxt, tmp255
	movq	168(%rax), %rax	# cxt_6(D)->membuf.aptr, D.22035
	leaq	4(%rax), %rdx	#, D.22035
	movq	-72(%rbp), %rax	# cxt, tmp256
	movq	%rdx, 168(%rax)	# D.22035, cxt_6(D)->membuf.aptr
.LBE78:
	jmp	.L256	#
.L252:
	.loc 1 2097 0 discriminator 2
	movq	-72(%rbp), %rax	# cxt, tmp258
	movq	216(%rax), %rax	# cxt_6(D)->fio, D.22034
	leaq	-52(%rbp), %rcx	#, tmp259
	movl	$4, %edx	#,
	movq	%rcx, %rsi	# tmp259,
	movq	%rax, %rdi	# D.22034,
	call	Perl_PerlIO_write	#
	cmpq	$4, %rax	#, D.22038
	je	.L256	#,
	.loc 1 2097 0 discriminator 1
	movl	$-1, %eax	#, D.22033
	jmp	.L270	#
.L256:
.LBE77:
	jmp	.L257	#
.L251:
	.loc 1 2097 0 discriminator 2
	movq	-72(%rbp), %rax	# cxt, tmp260
	movq	216(%rax), %rax	# cxt_6(D)->fio, D.22034
	testq	%rax, %rax	# D.22034
	jne	.L258	#,
.LBB80:
	.loc 1 2097 0 discriminator 1
	movq	-72(%rbp), %rax	# cxt, tmp261
	movq	168(%rax), %rax	# cxt_6(D)->membuf.aptr, D.22035
	leaq	4(%rax), %rdx	#, D.22035
	movq	-72(%rbp), %rax	# cxt, tmp262
	movq	176(%rax), %rax	# cxt_6(D)->membuf.aend, D.22035
	cmpq	%rax, %rdx	# D.22035, D.22035
	jbe	.L259	#,
.LBB81:
	movq	-72(%rbp), %rax	# cxt, tmp263
	movq	160(%rax), %rax	# cxt_6(D)->membuf.asiz, D.22036
	addl	$8195, %eax	#, D.22037
	andl	$-8192, %eax	#, tmp264
	movl	%eax, -28(%rbp)	# tmp264, nsz
	movq	-72(%rbp), %rax	# cxt, tmp265
	movq	168(%rax), %rax	# cxt_6(D)->membuf.aptr, D.22035
	movq	%rax, %rdx	# D.22035, D.22038
	movq	-72(%rbp), %rax	# cxt, tmp266
	movq	152(%rax), %rax	# cxt_6(D)->membuf.arena, D.22035
	subq	%rax, %rdx	# D.22038, D.22038
	movq	%rdx, %rax	# D.22038, D.22038
	movl	%eax, -24(%rbp)	# D.22038, offset
	movl	-28(%rbp), %eax	# nsz, tmp267
	movslq	%eax, %rdx	# tmp267, D.22036
	movq	-72(%rbp), %rax	# cxt, tmp268
	movq	152(%rax), %rax	# cxt_6(D)->membuf.arena, D.22035
	movq	%rdx, %rsi	# D.22036,
	movq	%rax, %rdi	# D.22035,
	call	Perl_safesysrealloc	#
	movq	-72(%rbp), %rdx	# cxt, tmp269
	movq	%rax, 152(%rdx)	# D.22039, cxt_6(D)->membuf.arena
	movl	-28(%rbp), %eax	# nsz, tmp270
	movslq	%eax, %rdx	# tmp270, D.22036
	movq	-72(%rbp), %rax	# cxt, tmp271
	movq	%rdx, 160(%rax)	# D.22036, cxt_6(D)->membuf.asiz
	movq	-72(%rbp), %rax	# cxt, tmp272
	movq	152(%rax), %rdx	# cxt_6(D)->membuf.arena, D.22035
	movl	-24(%rbp), %eax	# offset, tmp273
	cltq
	addq	%rax, %rdx	# D.22040, D.22035
	movq	-72(%rbp), %rax	# cxt, tmp274
	movq	%rdx, 168(%rax)	# D.22035, cxt_6(D)->membuf.aptr
	movq	-72(%rbp), %rax	# cxt, tmp275
	movq	152(%rax), %rdx	# cxt_6(D)->membuf.arena, D.22035
	movl	-28(%rbp), %eax	# nsz, tmp276
	cltq
	addq	%rax, %rdx	# D.22040, D.22035
	movq	-72(%rbp), %rax	# cxt, tmp277
	movq	%rdx, 176(%rax)	# D.22035, cxt_6(D)->membuf.aend
.L259:
.LBE81:
	.loc 1 2097 0 discriminator 2
	movq	-72(%rbp), %rax	# cxt, tmp279
	movq	168(%rax), %rax	# cxt_6(D)->membuf.aptr, D.22035
	movq	%rax, %rdx	# D.22035, D.22036
	movq	-72(%rbp), %rax	# cxt, tmp280
	movq	168(%rax), %rax	# cxt_6(D)->membuf.aptr, D.22035
	andq	$-4, %rax	#, D.22036
	cmpq	%rax, %rdx	# D.22036, D.22036
	jne	.L260	#,
	.loc 1 2097 0 discriminator 1
	movq	-72(%rbp), %rax	# cxt, tmp281
	movq	168(%rax), %rax	# cxt_6(D)->membuf.aptr, D.22035
	movl	-56(%rbp), %edx	# len, len.129
	movl	%edx, (%rax)	# len.129, MEM[(int *)_118]
	jmp	.L261	#
.L260:
	.loc 1 2097 0 discriminator 2
	movq	-72(%rbp), %rax	# cxt, tmp282
	movq	168(%rax), %rax	# cxt_6(D)->membuf.aptr, D.22035
	movl	-56(%rbp), %edx	# MEM[(char * {ref-all})&len], D.22033
	movl	%edx, (%rax)	# D.22033, MEM[(char * {ref-all})_120]
.L261:
	.loc 1 2097 0 discriminator 1
	movq	-72(%rbp), %rax	# cxt, tmp283
	movq	168(%rax), %rax	# cxt_6(D)->membuf.aptr, D.22035
	leaq	4(%rax), %rdx	#, D.22035
	movq	-72(%rbp), %rax	# cxt, tmp284
	movq	%rdx, 168(%rax)	# D.22035, cxt_6(D)->membuf.aptr
.LBE80:
	jmp	.L257	#
.L258:
	.loc 1 2097 0 discriminator 2
	movq	-72(%rbp), %rax	# cxt, tmp286
	movq	216(%rax), %rax	# cxt_6(D)->fio, D.22034
	leaq	-56(%rbp), %rcx	#, tmp287
	movl	$4, %edx	#,
	movq	%rcx, %rsi	# tmp287,
	movq	%rax, %rdi	# D.22034,
	call	Perl_PerlIO_write	#
	cmpq	$4, %rax	#, D.22038
	je	.L257	#,
	.loc 1 2097 0 discriminator 1
	movl	$-1, %eax	#, D.22033
	jmp	.L270	#
.L257:
	.loc 1 2104 0 is_stmt 1
	movl	$0, -48(%rbp)	#, i
	jmp	.L262	#
.L269:
	.loc 1 2105 0
	movl	-48(%rbp), %ecx	# i, tmp288
	movq	-80(%rbp), %rax	# av, tmp289
	movl	$0, %edx	#,
	movl	%ecx, %esi	# tmp288,
	movq	%rax, %rdi	# tmp289,
	call	Perl_av_fetch	#
	movq	%rax, -8(%rbp)	# tmp290, sav
	.loc 1 2106 0
	cmpq	$0, -8(%rbp)	#, sav
	jne	.L263	#,
.LBB82:
	.loc 1 2108 0
	movq	-72(%rbp), %rax	# cxt, tmp291
	movq	64(%rax), %rax	# cxt_6(D)->tagnum, D.22038
	leaq	1(%rax), %rdx	#, D.22038
	movq	-72(%rbp), %rax	# cxt, tmp292
	movq	%rdx, 64(%rax)	# D.22038, cxt_6(D)->tagnum
	movq	-72(%rbp), %rax	# cxt, tmp293
	movq	216(%rax), %rax	# cxt_6(D)->fio, D.22034
	testq	%rax, %rax	# D.22034
	jne	.L264	#,
	.loc 1 2108 0 is_stmt 0 discriminator 1
	movq	-72(%rbp), %rax	# cxt, tmp294
	movq	168(%rax), %rdx	# cxt_6(D)->membuf.aptr, D.22035
	movq	-72(%rbp), %rax	# cxt, tmp295
	movq	176(%rax), %rax	# cxt_6(D)->membuf.aend, D.22035
	cmpq	%rax, %rdx	# D.22035, D.22035
	jae	.L265	#,
	movq	-72(%rbp), %rax	# cxt, tmp296
	movq	168(%rax), %rax	# cxt_6(D)->membuf.aptr, D.22035
	leaq	1(%rax), %rcx	#, D.22035
	movq	-72(%rbp), %rdx	# cxt, tmp297
	movq	%rcx, 168(%rdx)	# D.22035, cxt_6(D)->membuf.aptr
	movb	$14, (%rax)	#, *_137
	jmp	.L267	#
.L265:
.LBB83:
	.loc 1 2108 0 discriminator 2
	movq	-72(%rbp), %rax	# cxt, tmp298
	movq	160(%rax), %rax	# cxt_6(D)->membuf.asiz, D.22036
	addl	$8192, %eax	#, D.22037
	andl	$-8192, %eax	#, tmp299
	movl	%eax, -20(%rbp)	# tmp299, nsz
	movq	-72(%rbp), %rax	# cxt, tmp300
	movq	168(%rax), %rax	# cxt_6(D)->membuf.aptr, D.22035
	movq	%rax, %rdx	# D.22035, D.22038
	movq	-72(%rbp), %rax	# cxt, tmp301
	movq	152(%rax), %rax	# cxt_6(D)->membuf.arena, D.22035
	subq	%rax, %rdx	# D.22038, D.22038
	movq	%rdx, %rax	# D.22038, D.22038
	movl	%eax, -16(%rbp)	# D.22038, offset
	movl	-20(%rbp), %eax	# nsz, tmp302
	movslq	%eax, %rdx	# tmp302, D.22036
	movq	-72(%rbp), %rax	# cxt, tmp303
	movq	152(%rax), %rax	# cxt_6(D)->membuf.arena, D.22035
	movq	%rdx, %rsi	# D.22036,
	movq	%rax, %rdi	# D.22035,
	call	Perl_safesysrealloc	#
	movq	-72(%rbp), %rdx	# cxt, tmp304
	movq	%rax, 152(%rdx)	# D.22039, cxt_6(D)->membuf.arena
	movl	-20(%rbp), %eax	# nsz, tmp305
	movslq	%eax, %rdx	# tmp305, D.22036
	movq	-72(%rbp), %rax	# cxt, tmp306
	movq	%rdx, 160(%rax)	# D.22036, cxt_6(D)->membuf.asiz
	movq	-72(%rbp), %rax	# cxt, tmp307
	movq	152(%rax), %rdx	# cxt_6(D)->membuf.arena, D.22035
	movl	-16(%rbp), %eax	# offset, tmp308
	cltq
	addq	%rax, %rdx	# D.22040, D.22035
	movq	-72(%rbp), %rax	# cxt, tmp309
	movq	%rdx, 168(%rax)	# D.22035, cxt_6(D)->membuf.aptr
	movq	-72(%rbp), %rax	# cxt, tmp310
	movq	152(%rax), %rdx	# cxt_6(D)->membuf.arena, D.22035
	movl	-20(%rbp), %eax	# nsz, tmp311
	cltq
	addq	%rax, %rdx	# D.22040, D.22035
	movq	-72(%rbp), %rax	# cxt, tmp312
	movq	%rdx, 176(%rax)	# D.22035, cxt_6(D)->membuf.aend
.LBE83:
	movq	-72(%rbp), %rax	# cxt, tmp314
	movq	168(%rax), %rax	# cxt_6(D)->membuf.aptr, D.22035
	leaq	1(%rax), %rcx	#, D.22035
	movq	-72(%rbp), %rdx	# cxt, tmp315
	movq	%rcx, 168(%rdx)	# D.22035, cxt_6(D)->membuf.aptr
	movb	$14, (%rax)	#, *_162
.LBE82:
	.loc 1 2109 0 is_stmt 1 discriminator 2
	jmp	.L268	#
.L264:
.LBB84:
	.loc 1 2108 0 discriminator 2
	movq	-72(%rbp), %rax	# cxt, tmp316
	movq	216(%rax), %rax	# cxt_6(D)->fio, D.22034
	movl	$14, %esi	#,
	movq	%rax, %rdi	# D.22034,
	call	PerlIO_putc	#
	cmpl	$-1, %eax	#, D.22033
	jne	.L267	#,
	.loc 1 2108 0 is_stmt 0 discriminator 1
	movl	$-1, %eax	#, D.22033
	jmp	.L270	#
.L267:
.LBE84:
	.loc 1 2109 0 is_stmt 1
	jmp	.L268	#
.L263:
	.loc 1 2112 0
	movq	-8(%rbp), %rax	# sav, tmp317
	movq	(%rax), %rdx	# *sav_130, D.22041
	movq	-72(%rbp), %rax	# cxt, tmp318
	movq	%rdx, %rsi	# D.22041,
	movq	%rax, %rdi	# tmp318,
	call	store	#
	movl	%eax, -12(%rbp)	# tmp319, ret
	cmpl	$0, -12(%rbp)	#, ret
	je	.L268	#,
	.loc 1 2113 0
	movl	-12(%rbp), %eax	# ret, D.22033
	jmp	.L270	#
.L268:
	.loc 1 2104 0
	addl	$1, -48(%rbp)	#, i
.L262:
	.loc 1 2104 0 is_stmt 0 discriminator 1
	movl	-56(%rbp), %eax	# len, len.130
	cmpl	%eax, -48(%rbp)	# len.130, i
	jl	.L269	#,
	.loc 1 2118 0 is_stmt 1
	movl	$0, %eax	#, D.22033
.L270:
	.loc 1 2119 0
	leave
	.cfi_def_cfa 7, 8
	ret
	.cfi_endproc
.LFE23:
	.size	store_array, .-store_array
	.section	.rodata
.LC3:
	.string	"Storable::canonical"
	.text
	.type	store_hash, @function
store_hash:
.LFB24:
	.loc 1 2164 0
	.cfi_startproc
	pushq	%rbp	#
	.cfi_def_cfa_offset 16
	.cfi_offset 6, -16
	movq	%rsp, %rbp	#,
	.cfi_def_cfa_register 6
	subq	$288, %rsp	#,
	movq	%rdi, -280(%rbp)	# cxt, cxt
	movq	%rsi, -288(%rbp)	# hv, hv
	.loc 1 2167 0
	movq	-288(%rbp), %rax	# hv, tmp661
	movq	(%rax), %rax	# hv_33(D)->sv_any, D.22043
	movq	24(%rax), %rax	# _34->xhv_keys, D.22044
	.loc 1 2165 0
	movl	%eax, -256(%rbp)	# len.131, len
	.loc 1 2172 0
	movl	$0, -240(%rbp)	#, ret
	.loc 1 2175 0
	movq	-288(%rbp), %rax	# hv, tmp662
	movl	12(%rax), %eax	# hv_33(D)->sv_flags, D.22045
	andl	$8388608, %eax	#, D.22045
	.loc 1 2179 0
	testl	%eax, %eax	# D.22045
	jne	.L272	#,
	.loc 1 2177 0 discriminator 2
	movq	-288(%rbp), %rax	# hv, tmp663
	movl	12(%rax), %eax	# hv_33(D)->sv_flags, D.22045
	.loc 1 2179 0 discriminator 2
	testl	%eax, %eax	# D.22046
	jns	.L273	#,
.L272:
	.loc 1 2179 0 is_stmt 0 discriminator 1
	movl	$1, %eax	#, iftmp.132
	jmp	.L274	#
.L273:
	.loc 1 2179 0 discriminator 3
	movl	$0, %eax	#, iftmp.132
.L274:
	.loc 1 2175 0 is_stmt 1
	movl	%eax, -236(%rbp)	# iftmp.132, flagged_hash
	.loc 1 2180 0
	movq	-288(%rbp), %rax	# hv, tmp664
	movl	12(%rax), %eax	# hv_33(D)->sv_flags, D.22045
	andl	$8388608, %eax	#, D.22045
	testl	%eax, %eax	# D.22045
	setne	%al	#, D.22047
	movb	%al, -257(%rbp)	# D.22047, hash_flags
	.loc 1 2194 0
	cmpl	$0, -236(%rbp)	#, flagged_hash
	je	.L275	#,
	.loc 1 2195 0
	movq	-280(%rbp), %rax	# cxt, tmp665
	movq	216(%rax), %rax	# cxt_49(D)->fio, D.22048
	testq	%rax, %rax	# D.22048
	jne	.L276	#,
	.loc 1 2195 0 is_stmt 0 discriminator 1
	movq	-280(%rbp), %rax	# cxt, tmp666
	movq	168(%rax), %rdx	# cxt_49(D)->membuf.aptr, D.22049
	movq	-280(%rbp), %rax	# cxt, tmp667
	movq	176(%rax), %rax	# cxt_49(D)->membuf.aend, D.22049
	cmpq	%rax, %rdx	# D.22049, D.22049
	jae	.L277	#,
	movq	-280(%rbp), %rax	# cxt, tmp668
	movq	168(%rax), %rax	# cxt_49(D)->membuf.aptr, D.22049
	leaq	1(%rax), %rcx	#, D.22049
	movq	-280(%rbp), %rdx	# cxt, tmp669
	movq	%rcx, 168(%rdx)	# D.22049, cxt_49(D)->membuf.aptr
	movb	$25, (%rax)	#, *_54
	jmp	.L279	#
.L277:
.LBB85:
	.loc 1 2195 0 discriminator 2
	movq	-280(%rbp), %rax	# cxt, tmp670
	movq	160(%rax), %rax	# cxt_49(D)->membuf.asiz, D.22050
	addl	$8192, %eax	#, D.22051
	andl	$-8192, %eax	#, tmp671
	movl	%eax, -232(%rbp)	# tmp671, nsz
	movq	-280(%rbp), %rax	# cxt, tmp672
	movq	168(%rax), %rax	# cxt_49(D)->membuf.aptr, D.22049
	movq	%rax, %rdx	# D.22049, D.22044
	movq	-280(%rbp), %rax	# cxt, tmp673
	movq	152(%rax), %rax	# cxt_49(D)->membuf.arena, D.22049
	subq	%rax, %rdx	# D.22044, D.22044
	movq	%rdx, %rax	# D.22044, D.22044
	movl	%eax, -228(%rbp)	# D.22044, offset
	movl	-232(%rbp), %eax	# nsz, tmp674
	movslq	%eax, %rdx	# tmp674, D.22050
	movq	-280(%rbp), %rax	# cxt, tmp675
	movq	152(%rax), %rax	# cxt_49(D)->membuf.arena, D.22049
	movq	%rdx, %rsi	# D.22050,
	movq	%rax, %rdi	# D.22049,
	call	Perl_safesysrealloc	#
	movq	-280(%rbp), %rdx	# cxt, tmp676
	movq	%rax, 152(%rdx)	# D.22052, cxt_49(D)->membuf.arena
	movl	-232(%rbp), %eax	# nsz, tmp677
	movslq	%eax, %rdx	# tmp677, D.22050
	movq	-280(%rbp), %rax	# cxt, tmp678
	movq	%rdx, 160(%rax)	# D.22050, cxt_49(D)->membuf.asiz
	movq	-280(%rbp), %rax	# cxt, tmp679
	movq	152(%rax), %rdx	# cxt_49(D)->membuf.arena, D.22049
	movl	-228(%rbp), %eax	# offset, tmp680
	cltq
	addq	%rax, %rdx	# D.22053, D.22049
	movq	-280(%rbp), %rax	# cxt, tmp681
	movq	%rdx, 168(%rax)	# D.22049, cxt_49(D)->membuf.aptr
	movq	-280(%rbp), %rax	# cxt, tmp682
	movq	152(%rax), %rdx	# cxt_49(D)->membuf.arena, D.22049
	movl	-232(%rbp), %eax	# nsz, tmp683
	cltq
	addq	%rax, %rdx	# D.22053, D.22049
	movq	-280(%rbp), %rax	# cxt, tmp684
	movq	%rdx, 176(%rax)	# D.22049, cxt_49(D)->membuf.aend
.LBE85:
	movq	-280(%rbp), %rax	# cxt, tmp686
	movq	168(%rax), %rax	# cxt_49(D)->membuf.aptr, D.22049
	leaq	1(%rax), %rcx	#, D.22049
	movq	-280(%rbp), %rdx	# cxt, tmp687
	movq	%rcx, 168(%rdx)	# D.22049, cxt_49(D)->membuf.aptr
	movb	$25, (%rax)	#, *_79
	jmp	.L279	#
.L276:
	movq	-280(%rbp), %rax	# cxt, tmp688
	movq	216(%rax), %rax	# cxt_49(D)->fio, D.22048
	movl	$25, %esi	#,
	movq	%rax, %rdi	# D.22048,
	call	PerlIO_putc	#
	cmpl	$-1, %eax	#, D.22042
	jne	.L279	#,
	.loc 1 2195 0 discriminator 1
	movl	$-1, %eax	#, D.22042
	jmp	.L380	#
.L279:
	.loc 1 2196 0 is_stmt 1
	movq	-280(%rbp), %rax	# cxt, tmp689
	movq	216(%rax), %rax	# cxt_49(D)->fio, D.22048
	testq	%rax, %rax	# D.22048
	jne	.L281	#,
	.loc 1 2196 0 is_stmt 0 discriminator 1
	movq	-280(%rbp), %rax	# cxt, tmp690
	movq	168(%rax), %rdx	# cxt_49(D)->membuf.aptr, D.22049
	movq	-280(%rbp), %rax	# cxt, tmp691
	movq	176(%rax), %rax	# cxt_49(D)->membuf.aend, D.22049
	cmpq	%rax, %rdx	# D.22049, D.22049
	jae	.L282	#,
	movq	-280(%rbp), %rax	# cxt, tmp692
	movq	168(%rax), %rax	# cxt_49(D)->membuf.aptr, D.22049
	leaq	1(%rax), %rcx	#, D.22049
	movq	-280(%rbp), %rdx	# cxt, tmp693
	movq	%rcx, 168(%rdx)	# D.22049, cxt_49(D)->membuf.aptr
	movzbl	-257(%rbp), %edx	# hash_flags, hash_flags.133
	movb	%dl, (%rax)	# hash_flags.133, *_88
	jmp	.L284	#
.L282:
.LBB86:
	.loc 1 2196 0 discriminator 2
	movq	-280(%rbp), %rax	# cxt, tmp694
	movq	160(%rax), %rax	# cxt_49(D)->membuf.asiz, D.22050
	addl	$8192, %eax	#, D.22051
	andl	$-8192, %eax	#, tmp695
	movl	%eax, -224(%rbp)	# tmp695, nsz
	movq	-280(%rbp), %rax	# cxt, tmp696
	movq	168(%rax), %rax	# cxt_49(D)->membuf.aptr, D.22049
	movq	%rax, %rdx	# D.22049, D.22044
	movq	-280(%rbp), %rax	# cxt, tmp697
	movq	152(%rax), %rax	# cxt_49(D)->membuf.arena, D.22049
	subq	%rax, %rdx	# D.22044, D.22044
	movq	%rdx, %rax	# D.22044, D.22044
	movl	%eax, -220(%rbp)	# D.22044, offset
	movl	-224(%rbp), %eax	# nsz, tmp698
	movslq	%eax, %rdx	# tmp698, D.22050
	movq	-280(%rbp), %rax	# cxt, tmp699
	movq	152(%rax), %rax	# cxt_49(D)->membuf.arena, D.22049
	movq	%rdx, %rsi	# D.22050,
	movq	%rax, %rdi	# D.22049,
	call	Perl_safesysrealloc	#
	movq	-280(%rbp), %rdx	# cxt, tmp700
	movq	%rax, 152(%rdx)	# D.22052, cxt_49(D)->membuf.arena
	movl	-224(%rbp), %eax	# nsz, tmp701
	movslq	%eax, %rdx	# tmp701, D.22050
	movq	-280(%rbp), %rax	# cxt, tmp702
	movq	%rdx, 160(%rax)	# D.22050, cxt_49(D)->membuf.asiz
	movq	-280(%rbp), %rax	# cxt, tmp703
	movq	152(%rax), %rdx	# cxt_49(D)->membuf.arena, D.22049
	movl	-220(%rbp), %eax	# offset, tmp704
	cltq
	addq	%rax, %rdx	# D.22053, D.22049
	movq	-280(%rbp), %rax	# cxt, tmp705
	movq	%rdx, 168(%rax)	# D.22049, cxt_49(D)->membuf.aptr
	movq	-280(%rbp), %rax	# cxt, tmp706
	movq	152(%rax), %rdx	# cxt_49(D)->membuf.arena, D.22049
	movl	-224(%rbp), %eax	# nsz, tmp707
	cltq
	addq	%rax, %rdx	# D.22053, D.22049
	movq	-280(%rbp), %rax	# cxt, tmp708
	movq	%rdx, 176(%rax)	# D.22049, cxt_49(D)->membuf.aend
.LBE86:
	movq	-280(%rbp), %rax	# cxt, tmp710
	movq	168(%rax), %rax	# cxt_49(D)->membuf.aptr, D.22049
	leaq	1(%rax), %rcx	#, D.22049
	movq	-280(%rbp), %rdx	# cxt, tmp711
	movq	%rcx, 168(%rdx)	# D.22049, cxt_49(D)->membuf.aptr
	movzbl	-257(%rbp), %edx	# hash_flags, hash_flags.134
	movb	%dl, (%rax)	# hash_flags.134, *_114
	jmp	.L284	#
.L281:
	movzbl	-257(%rbp), %edx	# hash_flags, D.22042
	movq	-280(%rbp), %rax	# cxt, tmp712
	movq	216(%rax), %rax	# cxt_49(D)->fio, D.22048
	movl	%edx, %esi	# D.22042,
	movq	%rax, %rdi	# D.22048,
	call	PerlIO_putc	#
	cmpl	$-1, %eax	#, D.22042
	jne	.L284	#,
	.loc 1 2196 0 discriminator 1
	movl	$-1, %eax	#, D.22042
	jmp	.L380	#
.L275:
	.loc 1 2198 0 is_stmt 1
	movq	-280(%rbp), %rax	# cxt, tmp713
	movq	216(%rax), %rax	# cxt_49(D)->fio, D.22048
	testq	%rax, %rax	# D.22048
	jne	.L285	#,
	.loc 1 2198 0 is_stmt 0 discriminator 1
	movq	-280(%rbp), %rax	# cxt, tmp714
	movq	168(%rax), %rdx	# cxt_49(D)->membuf.aptr, D.22049
	movq	-280(%rbp), %rax	# cxt, tmp715
	movq	176(%rax), %rax	# cxt_49(D)->membuf.aend, D.22049
	cmpq	%rax, %rdx	# D.22049, D.22049
	jae	.L286	#,
	movq	-280(%rbp), %rax	# cxt, tmp716
	movq	168(%rax), %rax	# cxt_49(D)->membuf.aptr, D.22049
	leaq	1(%rax), %rcx	#, D.22049
	movq	-280(%rbp), %rdx	# cxt, tmp717
	movq	%rcx, 168(%rdx)	# D.22049, cxt_49(D)->membuf.aptr
	movb	$3, (%rax)	#, *_125
	jmp	.L284	#
.L286:
.LBB87:
	.loc 1 2198 0 discriminator 2
	movq	-280(%rbp), %rax	# cxt, tmp718
	movq	160(%rax), %rax	# cxt_49(D)->membuf.asiz, D.22050
	addl	$8192, %eax	#, D.22051
	andl	$-8192, %eax	#, tmp719
	movl	%eax, -216(%rbp)	# tmp719, nsz
	movq	-280(%rbp), %rax	# cxt, tmp720
	movq	168(%rax), %rax	# cxt_49(D)->membuf.aptr, D.22049
	movq	%rax, %rdx	# D.22049, D.22044
	movq	-280(%rbp), %rax	# cxt, tmp721
	movq	152(%rax), %rax	# cxt_49(D)->membuf.arena, D.22049
	subq	%rax, %rdx	# D.22044, D.22044
	movq	%rdx, %rax	# D.22044, D.22044
	movl	%eax, -212(%rbp)	# D.22044, offset
	movl	-216(%rbp), %eax	# nsz, tmp722
	movslq	%eax, %rdx	# tmp722, D.22050
	movq	-280(%rbp), %rax	# cxt, tmp723
	movq	152(%rax), %rax	# cxt_49(D)->membuf.arena, D.22049
	movq	%rdx, %rsi	# D.22050,
	movq	%rax, %rdi	# D.22049,
	call	Perl_safesysrealloc	#
	movq	-280(%rbp), %rdx	# cxt, tmp724
	movq	%rax, 152(%rdx)	# D.22052, cxt_49(D)->membuf.arena
	movl	-216(%rbp), %eax	# nsz, tmp725
	movslq	%eax, %rdx	# tmp725, D.22050
	movq	-280(%rbp), %rax	# cxt, tmp726
	movq	%rdx, 160(%rax)	# D.22050, cxt_49(D)->membuf.asiz
	movq	-280(%rbp), %rax	# cxt, tmp727
	movq	152(%rax), %rdx	# cxt_49(D)->membuf.arena, D.22049
	movl	-212(%rbp), %eax	# offset, tmp728
	cltq
	addq	%rax, %rdx	# D.22053, D.22049
	movq	-280(%rbp), %rax	# cxt, tmp729
	movq	%rdx, 168(%rax)	# D.22049, cxt_49(D)->membuf.aptr
	movq	-280(%rbp), %rax	# cxt, tmp730
	movq	152(%rax), %rdx	# cxt_49(D)->membuf.arena, D.22049
	movl	-216(%rbp), %eax	# nsz, tmp731
	cltq
	addq	%rax, %rdx	# D.22053, D.22049
	movq	-280(%rbp), %rax	# cxt, tmp732
	movq	%rdx, 176(%rax)	# D.22049, cxt_49(D)->membuf.aend
.LBE87:
	movq	-280(%rbp), %rax	# cxt, tmp734
	movq	168(%rax), %rax	# cxt_49(D)->membuf.aptr, D.22049
	leaq	1(%rax), %rcx	#, D.22049
	movq	-280(%rbp), %rdx	# cxt, tmp735
	movq	%rcx, 168(%rdx)	# D.22049, cxt_49(D)->membuf.aptr
	movb	$3, (%rax)	#, *_150
	jmp	.L284	#
.L285:
	movq	-280(%rbp), %rax	# cxt, tmp736
	movq	216(%rax), %rax	# cxt_49(D)->fio, D.22048
	movl	$3, %esi	#,
	movq	%rax, %rdi	# D.22048,
	call	PerlIO_putc	#
	cmpl	$-1, %eax	#, D.22042
	jne	.L284	#,
	.loc 1 2198 0 discriminator 1
	movl	$-1, %eax	#, D.22042
	jmp	.L380	#
.L284:
	.loc 1 2200 0 is_stmt 1
	movq	-280(%rbp), %rax	# cxt, tmp737
	movl	80(%rax), %eax	# cxt_49(D)->netorder, D.22042
	testl	%eax, %eax	# D.22042
	je	.L288	#,
.LBB88:
	.loc 1 2200 0 is_stmt 0 discriminator 1
	movl	-256(%rbp), %eax	# len, len.135
	cltq
	movq	%rax, %rdi	# D.22044,
	call	Perl_my_htonl	#
	movl	%eax, -120(%rbp)	# y.136, y
	movq	-280(%rbp), %rax	# cxt, tmp738
	movq	216(%rax), %rax	# cxt_49(D)->fio, D.22048
	testq	%rax, %rax	# D.22048
	jne	.L289	#,
.LBB89:
	movq	-280(%rbp), %rax	# cxt, tmp739
	movq	168(%rax), %rax	# cxt_49(D)->membuf.aptr, D.22049
	leaq	4(%rax), %rdx	#, D.22049
	movq	-280(%rbp), %rax	# cxt, tmp740
	movq	176(%rax), %rax	# cxt_49(D)->membuf.aend, D.22049
	cmpq	%rax, %rdx	# D.22049, D.22049
	jbe	.L290	#,
.LBB90:
	movq	-280(%rbp), %rax	# cxt, tmp741
	movq	160(%rax), %rax	# cxt_49(D)->membuf.asiz, D.22050
	addl	$8195, %eax	#, D.22051
	andl	$-8192, %eax	#, tmp742
	movl	%eax, -208(%rbp)	# tmp742, nsz
	movq	-280(%rbp), %rax	# cxt, tmp743
	movq	168(%rax), %rax	# cxt_49(D)->membuf.aptr, D.22049
	movq	%rax, %rdx	# D.22049, D.22044
	movq	-280(%rbp), %rax	# cxt, tmp744
	movq	152(%rax), %rax	# cxt_49(D)->membuf.arena, D.22049
	subq	%rax, %rdx	# D.22044, D.22044
	movq	%rdx, %rax	# D.22044, D.22044
	movl	%eax, -204(%rbp)	# D.22044, offset
	movl	-208(%rbp), %eax	# nsz, tmp745
	movslq	%eax, %rdx	# tmp745, D.22050
	movq	-280(%rbp), %rax	# cxt, tmp746
	movq	152(%rax), %rax	# cxt_49(D)->membuf.arena, D.22049
	movq	%rdx, %rsi	# D.22050,
	movq	%rax, %rdi	# D.22049,
	call	Perl_safesysrealloc	#
	movq	-280(%rbp), %rdx	# cxt, tmp747
	movq	%rax, 152(%rdx)	# D.22052, cxt_49(D)->membuf.arena
	movl	-208(%rbp), %eax	# nsz, tmp748
	movslq	%eax, %rdx	# tmp748, D.22050
	movq	-280(%rbp), %rax	# cxt, tmp749
	movq	%rdx, 160(%rax)	# D.22050, cxt_49(D)->membuf.asiz
	movq	-280(%rbp), %rax	# cxt, tmp750
	movq	152(%rax), %rdx	# cxt_49(D)->membuf.arena, D.22049
	movl	-204(%rbp), %eax	# offset, tmp751
	cltq
	addq	%rax, %rdx	# D.22053, D.22049
	movq	-280(%rbp), %rax	# cxt, tmp752
	movq	%rdx, 168(%rax)	# D.22049, cxt_49(D)->membuf.aptr
	movq	-280(%rbp), %rax	# cxt, tmp753
	movq	152(%rax), %rdx	# cxt_49(D)->membuf.arena, D.22049
	movl	-208(%rbp), %eax	# nsz, tmp754
	cltq
	addq	%rax, %rdx	# D.22053, D.22049
	movq	-280(%rbp), %rax	# cxt, tmp755
	movq	%rdx, 176(%rax)	# D.22049, cxt_49(D)->membuf.aend
.L290:
.LBE90:
	.loc 1 2200 0 discriminator 2
	movq	-280(%rbp), %rax	# cxt, tmp757
	movq	168(%rax), %rax	# cxt_49(D)->membuf.aptr, D.22049
	movq	%rax, %rdx	# D.22049, D.22050
	movq	-280(%rbp), %rax	# cxt, tmp758
	movq	168(%rax), %rax	# cxt_49(D)->membuf.aptr, D.22049
	andq	$-4, %rax	#, D.22050
	cmpq	%rax, %rdx	# D.22050, D.22050
	jne	.L291	#,
	.loc 1 2200 0 discriminator 1
	movq	-280(%rbp), %rax	# cxt, tmp759
	movq	168(%rax), %rax	# cxt_49(D)->membuf.aptr, D.22049
	movl	-120(%rbp), %edx	# y, y.137
	movl	%edx, (%rax)	# y.137, MEM[(int *)_191]
	jmp	.L292	#
.L291:
	.loc 1 2200 0 discriminator 2
	movq	-280(%rbp), %rax	# cxt, tmp760
	movq	168(%rax), %rax	# cxt_49(D)->membuf.aptr, D.22049
	movl	-120(%rbp), %edx	# MEM[(char * {ref-all})&y], D.22042
	movl	%edx, (%rax)	# D.22042, MEM[(char * {ref-all})_193]
.L292:
	.loc 1 2200 0 discriminator 1
	movq	-280(%rbp), %rax	# cxt, tmp761
	movq	168(%rax), %rax	# cxt_49(D)->membuf.aptr, D.22049
	leaq	4(%rax), %rdx	#, D.22049
	movq	-280(%rbp), %rax	# cxt, tmp762
	movq	%rdx, 168(%rax)	# D.22049, cxt_49(D)->membuf.aptr
.LBE89:
	jmp	.L293	#
.L289:
	.loc 1 2200 0 discriminator 2
	movq	-280(%rbp), %rax	# cxt, tmp764
	movq	216(%rax), %rax	# cxt_49(D)->fio, D.22048
	leaq	-120(%rbp), %rcx	#, tmp765
	movl	$4, %edx	#,
	movq	%rcx, %rsi	# tmp765,
	movq	%rax, %rdi	# D.22048,
	call	Perl_PerlIO_write	#
	cmpq	$4, %rax	#, D.22044
	je	.L293	#,
	.loc 1 2200 0 discriminator 1
	movl	$-1, %eax	#, D.22042
	jmp	.L380	#
.L293:
.LBE88:
	jmp	.L294	#
.L288:
	.loc 1 2200 0 discriminator 2
	movq	-280(%rbp), %rax	# cxt, tmp766
	movq	216(%rax), %rax	# cxt_49(D)->fio, D.22048
	testq	%rax, %rax	# D.22048
	jne	.L295	#,
.LBB91:
	.loc 1 2200 0 discriminator 1
	movq	-280(%rbp), %rax	# cxt, tmp767
	movq	168(%rax), %rax	# cxt_49(D)->membuf.aptr, D.22049
	leaq	4(%rax), %rdx	#, D.22049
	movq	-280(%rbp), %rax	# cxt, tmp768
	movq	176(%rax), %rax	# cxt_49(D)->membuf.aend, D.22049
	cmpq	%rax, %rdx	# D.22049, D.22049
	jbe	.L296	#,
.LBB92:
	movq	-280(%rbp), %rax	# cxt, tmp769
	movq	160(%rax), %rax	# cxt_49(D)->membuf.asiz, D.22050
	addl	$8195, %eax	#, D.22051
	andl	$-8192, %eax	#, tmp770
	movl	%eax, -200(%rbp)	# tmp770, nsz
	movq	-280(%rbp), %rax	# cxt, tmp771
	movq	168(%rax), %rax	# cxt_49(D)->membuf.aptr, D.22049
	movq	%rax, %rdx	# D.22049, D.22044
	movq	-280(%rbp), %rax	# cxt, tmp772
	movq	152(%rax), %rax	# cxt_49(D)->membuf.arena, D.22049
	subq	%rax, %rdx	# D.22044, D.22044
	movq	%rdx, %rax	# D.22044, D.22044
	movl	%eax, -196(%rbp)	# D.22044, offset
	movl	-200(%rbp), %eax	# nsz, tmp773
	movslq	%eax, %rdx	# tmp773, D.22050
	movq	-280(%rbp), %rax	# cxt, tmp774
	movq	152(%rax), %rax	# cxt_49(D)->membuf.arena, D.22049
	movq	%rdx, %rsi	# D.22050,
	movq	%rax, %rdi	# D.22049,
	call	Perl_safesysrealloc	#
	movq	-280(%rbp), %rdx	# cxt, tmp775
	movq	%rax, 152(%rdx)	# D.22052, cxt_49(D)->membuf.arena
	movl	-200(%rbp), %eax	# nsz, tmp776
	movslq	%eax, %rdx	# tmp776, D.22050
	movq	-280(%rbp), %rax	# cxt, tmp777
	movq	%rdx, 160(%rax)	# D.22050, cxt_49(D)->membuf.asiz
	movq	-280(%rbp), %rax	# cxt, tmp778
	movq	152(%rax), %rdx	# cxt_49(D)->membuf.arena, D.22049
	movl	-196(%rbp), %eax	# offset, tmp779
	cltq
	addq	%rax, %rdx	# D.22053, D.22049
	movq	-280(%rbp), %rax	# cxt, tmp780
	movq	%rdx, 168(%rax)	# D.22049, cxt_49(D)->membuf.aptr
	movq	-280(%rbp), %rax	# cxt, tmp781
	movq	152(%rax), %rdx	# cxt_49(D)->membuf.arena, D.22049
	movl	-200(%rbp), %eax	# nsz, tmp782
	cltq
	addq	%rax, %rdx	# D.22053, D.22049
	movq	-280(%rbp), %rax	# cxt, tmp783
	movq	%rdx, 176(%rax)	# D.22049, cxt_49(D)->membuf.aend
.L296:
.LBE92:
	.loc 1 2200 0 discriminator 2
	movq	-280(%rbp), %rax	# cxt, tmp785
	movq	168(%rax), %rax	# cxt_49(D)->membuf.aptr, D.22049
	movq	%rax, %rdx	# D.22049, D.22050
	movq	-280(%rbp), %rax	# cxt, tmp786
	movq	168(%rax), %rax	# cxt_49(D)->membuf.aptr, D.22049
	andq	$-4, %rax	#, D.22050
	cmpq	%rax, %rdx	# D.22050, D.22050
	jne	.L297	#,
	.loc 1 2200 0 discriminator 1
	movq	-280(%rbp), %rax	# cxt, tmp787
	movq	168(%rax), %rax	# cxt_49(D)->membuf.aptr, D.22049
	movl	-256(%rbp), %edx	# len, len.138
	movl	%edx, (%rax)	# len.138, MEM[(int *)_232]
	jmp	.L298	#
.L297:
	.loc 1 2200 0 discriminator 2
	movq	-280(%rbp), %rax	# cxt, tmp788
	movq	168(%rax), %rax	# cxt_49(D)->membuf.aptr, D.22049
	movl	-256(%rbp), %edx	# MEM[(char * {ref-all})&len], D.22042
	movl	%edx, (%rax)	# D.22042, MEM[(char * {ref-all})_234]
.L298:
	.loc 1 2200 0 discriminator 1
	movq	-280(%rbp), %rax	# cxt, tmp789
	movq	168(%rax), %rax	# cxt_49(D)->membuf.aptr, D.22049
	leaq	4(%rax), %rdx	#, D.22049
	movq	-280(%rbp), %rax	# cxt, tmp790
	movq	%rdx, 168(%rax)	# D.22049, cxt_49(D)->membuf.aptr
.LBE91:
	jmp	.L294	#
.L295:
	.loc 1 2200 0 discriminator 2
	movq	-280(%rbp), %rax	# cxt, tmp792
	movq	216(%rax), %rax	# cxt_49(D)->fio, D.22048
	leaq	-256(%rbp), %rcx	#, tmp793
	movl	$4, %edx	#,
	movq	%rcx, %rsi	# tmp793,
	movq	%rax, %rdi	# D.22048,
	call	Perl_PerlIO_write	#
	cmpq	$4, %rax	#, D.22044
	je	.L294	#,
	.loc 1 2200 0 discriminator 1
	movl	$-1, %eax	#, D.22042
	jmp	.L380	#
.L294:
	.loc 1 2207 0 is_stmt 1
	movq	-288(%rbp), %rax	# hv, tmp794
	movq	(%rax), %rax	# hv_33(D)->sv_any, D.22043
	movl	56(%rax), %eax	# _242->xhv_riter, tmp795
	movl	%eax, -192(%rbp)	# tmp795, riter
	.loc 1 2208 0
	movq	-288(%rbp), %rax	# hv, tmp796
	movq	(%rax), %rax	# hv_33(D)->sv_any, D.22043
	movq	64(%rax), %rax	# _244->xhv_eiter, tmp797
	movq	%rax, -72(%rbp)	# tmp797, eiter
	.loc 1 2209 0
	movq	-288(%rbp), %rax	# hv, tmp798
	movq	%rax, %rdi	# tmp798,
	call	Perl_hv_iterinit	#
	.loc 1 2223 0
	movq	-280(%rbp), %rax	# cxt, tmp799
	movl	4(%rax), %eax	# cxt_49(D)->optype, D.22042
	andl	$4, %eax	#, D.22042
	.loc 1 2222 0
	testl	%eax, %eax	# D.22042
	jne	.L299	#,
	.loc 1 2223 0
	movq	-280(%rbp), %rax	# cxt, tmp800
	movl	104(%rax), %eax	# cxt_49(D)->canonical, D.22042
	cmpl	$1, %eax	#, D.22042
	je	.L300	#,
	.loc 1 2224 0 discriminator 1
	movq	-280(%rbp), %rax	# cxt, tmp801
	movl	104(%rax), %eax	# cxt_49(D)->canonical, D.22042
	.loc 1 2223 0 discriminator 1
	testl	%eax, %eax	# D.22042
	jns	.L299	#,
	.loc 1 2225 0
	movl	$1, %esi	#,
	movl	$.LC3, %edi	#,
	call	Perl_get_sv	#
	testq	%rax, %rax	# D.22054
	je	.L301	#,
	.loc 1 2225 0 is_stmt 0 discriminator 1
	movl	$1, %esi	#,
	movl	$.LC3, %edi	#,
	call	Perl_get_sv	#
	movl	12(%rax), %eax	# _251->sv_flags, D.22045
	andl	$262144, %eax	#, D.22045
	testl	%eax, %eax	# D.22045
	je	.L302	#,
	movl	$1, %esi	#,
	movl	$.LC3, %edi	#,
	call	Perl_get_sv	#
	movq	(%rax), %rax	# _254->sv_any, PL_Xpv.142
	movq	%rax, PL_Xpv(%rip)	# PL_Xpv.142, PL_Xpv
	movq	PL_Xpv(%rip), %rax	# PL_Xpv, PL_Xpv.143
	testq	%rax, %rax	# PL_Xpv.143
	je	.L303	#,
	.loc 1 2225 0 discriminator 3
	movq	PL_Xpv(%rip), %rax	# PL_Xpv, PL_Xpv.144
	movq	8(%rax), %rax	# PL_Xpv.144_257->xpv_cur, D.22050
	cmpq	$1, %rax	#, D.22050
	ja	.L304	#,
	.loc 1 2225 0 discriminator 6
	movq	PL_Xpv(%rip), %rax	# PL_Xpv, PL_Xpv.145
	movq	8(%rax), %rax	# PL_Xpv.145_259->xpv_cur, D.22050
	testq	%rax, %rax	# D.22050
	je	.L303	#,
	.loc 1 2225 0 discriminator 1
	movq	PL_Xpv(%rip), %rax	# PL_Xpv, PL_Xpv.146
	movq	(%rax), %rax	# PL_Xpv.146_261->xpv_pv, D.22049
	movzbl	(%rax), %eax	# *_262, D.22055
	cmpb	$48, %al	#, D.22055
	je	.L303	#,
.L304:
	.loc 1 2225 0 discriminator 5
	movl	$1, %eax	#, iftmp.141
	jmp	.L305	#
.L303:
	.loc 1 2225 0 discriminator 4
	movl	$0, %eax	#, iftmp.141
.L305:
	jmp	.L311	#
.L302:
	.loc 1 2225 0 discriminator 2
	movl	$1, %esi	#,
	movl	$.LC3, %edi	#,
	call	Perl_get_sv	#
	movl	12(%rax), %eax	# _267->sv_flags, D.22045
	andl	$65536, %eax	#, D.22045
	testl	%eax, %eax	# D.22045
	je	.L307	#,
	.loc 1 2225 0 discriminator 8
	movl	$1, %esi	#,
	movl	$.LC3, %edi	#,
	call	Perl_get_sv	#
	movq	(%rax), %rax	# _270->sv_any, D.22052
	movq	24(%rax), %rax	# MEM[(struct XPVIV *)_271].xiv_iv, D.22044
	testq	%rax, %rax	# D.22044
	setne	%al	#, D.22047
	movzbl	%al, %eax	# D.22047, iftmp.147
	jmp	.L311	#
.L307:
	.loc 1 2225 0 discriminator 9
	movl	$1, %esi	#,
	movl	$.LC3, %edi	#,
	call	Perl_get_sv	#
	movl	12(%rax), %eax	# _275->sv_flags, D.22045
	andl	$131072, %eax	#, D.22045
	testl	%eax, %eax	# D.22045
	je	.L309	#,
	.loc 1 2225 0 discriminator 10
	movl	$1, %esi	#,
	movl	$.LC3, %edi	#,
	call	Perl_get_sv	#
	movq	(%rax), %rax	# _278->sv_any, D.22052
	movsd	32(%rax), %xmm0	# MEM[(struct XPVNV *)_279].xnv_nv, D.22056
	xorpd	%xmm1, %xmm1	# tmp803
	ucomisd	%xmm1, %xmm0	# tmp803, D.22056
	setp	%dl	#, tmp802
	movl	$1, %eax	#, tmp805
	xorpd	%xmm1, %xmm1	# tmp804
	ucomisd	%xmm1, %xmm0	# tmp804, D.22056
	cmove	%edx, %eax	# tmp802,, D.22047
	movzbl	%al, %eax	# D.22047, iftmp.148
	jmp	.L311	#
.L309:
	.loc 1 2225 0 discriminator 11
	movl	$1, %esi	#,
	movl	$.LC3, %edi	#,
	call	Perl_get_sv	#
	movq	%rax, %rdi	# D.22054,
	call	Perl_sv_2bool	#
	testb	%al, %al	# D.22055
	setne	%al	#, D.22047
	movzbl	%al, %eax	# D.22047, iftmp.148
	jmp	.L311	#
.L301:
	.loc 1 2225 0 discriminator 2
	movl	$0, %eax	#, iftmp.139
.L311:
	.loc 1 2224 0 is_stmt 1
	movq	-280(%rbp), %rdx	# cxt, tmp806
	movl	%eax, 104(%rdx)	# iftmp.139, cxt_49(D)->canonical
	movq	-280(%rbp), %rax	# cxt, tmp807
	movl	104(%rax), %eax	# cxt_49(D)->canonical, D.22042
	testl	%eax, %eax	# D.22042
	je	.L299	#,
.L300:
.LBB93:
	.loc 1 2234 0
	call	Perl_newAV	#
	movq	%rax, -64(%rbp)	# tmp808, av
	.loc 1 2240 0
	movl	$0, -244(%rbp)	#, i
	jmp	.L312	#
.L313:
.LBB94:
	.loc 1 2242 0 discriminator 2
	movq	-288(%rbp), %rax	# hv, tmp809
	movl	$1, %esi	#,
	movq	%rax, %rdi	# tmp809,
	call	Perl_hv_iternext_flags	#
	movq	%rax, -56(%rbp)	# tmp810, he
	.loc 1 2246 0 discriminator 2
	movq	-56(%rbp), %rax	# he, tmp811
	movq	%rax, %rdi	# tmp811,
	call	Perl_hv_iterkeysv	#
	movq	%rax, -48(%rbp)	# tmp812, key
	.loc 1 2247 0 discriminator 2
	movq	-64(%rbp), %rax	# av, tmp813
	movq	(%rax), %rax	# av_292->sv_any, D.22057
	movq	8(%rax), %rax	# _297->xav_fill, D.22044
	addl	$1, %eax	#, D.22051
	movl	%eax, %ecx	# D.22051, D.22042
	movq	-48(%rbp), %rdx	# key, tmp814
	movq	-64(%rbp), %rax	# av, tmp815
	movl	%ecx, %esi	# D.22042,
	movq	%rax, %rdi	# tmp815,
	call	Perl_av_store	#
.LBE94:
	.loc 1 2240 0 discriminator 2
	addl	$1, -244(%rbp)	#, i
.L312:
	.loc 1 2240 0 is_stmt 0 discriminator 1
	movl	-256(%rbp), %eax	# len, len.149
	cmpl	%eax, -244(%rbp)	# len.149, i
	jl	.L313	#,
	.loc 1 2250 0 is_stmt 1
	movl	-256(%rbp), %eax	# len, len.150
	movslq	%eax, %rcx	# len.150, D.22050
	movq	-64(%rbp), %rax	# av, tmp816
	movq	(%rax), %rax	# av_292->sv_any, D.22057
	movq	(%rax), %rax	# _305->xav_array, D.22049
	movl	$Perl_sv_cmp, %edx	#,
	movq	%rcx, %rsi	# D.22050,
	movq	%rax, %rdi	# D.22049,
	call	Perl_sortsv	#
	.loc 1 2252 0
	movl	$0, -244(%rbp)	#, i
	jmp	.L314	#
.L346:
.LBB95:
	.loc 1 2254 0
	movq	-288(%rbp), %rax	# hv, tmp817
	movq	(%rax), %rax	# hv_33(D)->sv_any, D.22043
	movsd	32(%rax), %xmm0	# _309->xnv_nv, D.22056
	cvttsd2si	%xmm0, %eax	# D.22056, tmp818
	movl	%eax, -188(%rbp)	# tmp818, placeholders
	.loc 1 2256 0
	movb	$0, -259(%rbp)	#, flags
	.loc 1 2260 0
	movq	-64(%rbp), %rax	# av, tmp819
	movq	%rax, %rdi	# tmp819,
	call	Perl_av_shift	#
	movq	%rax, -40(%rbp)	# tmp820, key
	.loc 1 2264 0
	movq	-40(%rbp), %rsi	# key, tmp821
	movq	-288(%rbp), %rax	# hv, tmp822
	movl	$0, %ecx	#,
	movl	$0, %edx	#,
	movq	%rax, %rdi	# tmp822,
	call	Perl_hv_fetch_ent	#
	movq	%rax, -32(%rbp)	# tmp823, he
	.loc 1 2267 0
	cmpq	$0, -32(%rbp)	#, he
	je	.L315	#,
	.loc 1 2268 0
	movq	-32(%rbp), %rax	# he, tmp824
	movq	16(%rax), %rax	# he_314->hent_val, tmp825
	movq	%rax, -104(%rbp)	# tmp825, val
	cmpq	$0, -104(%rbp)	#, val
	jne	.L316	#,
	.loc 1 2270 0
	movl	$1, %eax	#, D.22042
	jmp	.L380	#
.L315:
	.loc 1 2275 0
	movl	-188(%rbp), %eax	# placeholders, placeholders.151
	leal	-1(%rax), %edx	#, tmp826
	movl	%edx, -188(%rbp)	# tmp826, placeholders
	testl	%eax, %eax	# placeholders.151
	jns	.L318	#,
	.loc 1 2279 0
	movl	$1, %eax	#, D.22042
	jmp	.L380	#
.L318:
	.loc 1 2283 0
	movq	$PL_sv_undef, -104(%rbp)	#, val
	.loc 1 2286 0
	movb	$16, -259(%rbp)	#, flags
.L316:
	.loc 1 2298 0
	movq	-104(%rbp), %rdx	# val, tmp827
	movq	-280(%rbp), %rax	# cxt, tmp828
	movq	%rdx, %rsi	# tmp827,
	movq	%rax, %rdi	# tmp828,
	call	store	#
	movl	%eax, -240(%rbp)	# tmp829, ret
	cmpl	$0, -240(%rbp)	#, ret
	jne	.L320	#,
	.loc 1 2311 0
	movzbl	-257(%rbp), %eax	# hash_flags, D.22042
	andl	$1, %eax	#, D.22042
	testl	%eax, %eax	# D.22042
	je	.L321	#,
	.loc 1 2311 0 is_stmt 0 discriminator 1
	movq	-104(%rbp), %rax	# val, tmp830
	movl	12(%rax), %eax	# val_12->sv_flags, D.22045
	andl	$8388608, %eax	#, D.22045
	testl	%eax, %eax	# D.22045
	je	.L321	#,
	.loc 1 2312 0 is_stmt 1
	orb	$4, -259(%rbp)	#, flags
.L321:
	.loc 1 2315 0
	movq	-40(%rbp), %rax	# key, tmp831
	movl	12(%rax), %eax	# key_313->sv_flags, D.22045
	andl	$262144, %eax	#, D.22045
	testl	%eax, %eax	# D.22045
	je	.L322	#,
	.loc 1 2315 0 is_stmt 0 discriminator 1
	movq	-40(%rbp), %rax	# key, tmp832
	movq	(%rax), %rax	# key_313->sv_any, D.22052
	movq	8(%rax), %rax	# MEM[(struct XPV *)_330].xpv_cur, keylen_tmp.153
	movq	%rax, -120(%rbp)	# keylen_tmp.153, keylen_tmp
	movq	-40(%rbp), %rax	# key, tmp833
	movq	(%rax), %rax	# key_313->sv_any, D.22052
	movq	(%rax), %rax	# MEM[(struct XPV *)_332].xpv_pv, iftmp.152
	jmp	.L323	#
.L322:
	.loc 1 2315 0 discriminator 2
	leaq	-120(%rbp), %rcx	#, tmp834
	movq	-40(%rbp), %rax	# key, tmp835
	movl	$2, %edx	#,
	movq	%rcx, %rsi	# tmp834,
	movq	%rax, %rdi	# tmp835,
	call	Perl_sv_2pv_flags	#
.L323:
	.loc 1 2315 0 discriminator 3
	movq	%rax, -112(%rbp)	# iftmp.152, keyval
	.loc 1 2316 0 is_stmt 1 discriminator 3
	movq	-120(%rbp), %rax	# keylen_tmp, keylen_tmp.154
	movl	%eax, -252(%rbp)	# keylen.155, keylen
	.loc 1 2323 0 discriminator 3
	movq	-40(%rbp), %rax	# key, tmp836
	movl	12(%rax), %eax	# key_313->sv_flags, D.22045
	andl	$536870912, %eax	#, D.22045
	testl	%eax, %eax	# D.22045
	je	.L324	#,
.LBB96:
	.loc 1 2324 0
	movq	-112(%rbp), %rax	# keyval, tmp837
	movq	%rax, -24(%rbp)	# tmp837, keysave
	.loc 1 2325 0
	movb	$1, -248(%rbp)	#, is_utf8
	.loc 1 2330 0
	leaq	-248(%rbp), %rdx	#, tmp838
	leaq	-120(%rbp), %rcx	#, tmp839
	movq	-112(%rbp), %rax	# keyval, tmp840
	movq	%rcx, %rsi	# tmp839,
	movq	%rax, %rdi	# tmp840,
	call	Perl_bytes_from_utf8	#
	movq	%rax, -112(%rbp)	# tmp841, keyval
	.loc 1 2338 0
	movq	-112(%rbp), %rax	# keyval, tmp842
	cmpq	-24(%rbp), %rax	# keysave, tmp842
	je	.L325	#,
	.loc 1 2339 0
	movq	-120(%rbp), %rax	# keylen_tmp, keylen_tmp.156
	movl	%eax, -252(%rbp)	# keylen.157, keylen
	.loc 1 2340 0
	orb	$2, -259(%rbp)	#, flags
	jmp	.L324	#
.L325:
	.loc 1 2344 0
	orb	$1, -259(%rbp)	#, flags
.L324:
.LBE96:
	.loc 1 2349 0
	cmpl	$0, -236(%rbp)	#, flagged_hash
	je	.L327	#,
	.loc 1 2350 0
	movq	-280(%rbp), %rax	# cxt, tmp843
	movq	216(%rax), %rax	# cxt_49(D)->fio, D.22048
	testq	%rax, %rax	# D.22048
	jne	.L328	#,
	.loc 1 2350 0 is_stmt 0 discriminator 1
	movq	-280(%rbp), %rax	# cxt, tmp844
	movq	168(%rax), %rdx	# cxt_49(D)->membuf.aptr, D.22049
	movq	-280(%rbp), %rax	# cxt, tmp845
	movq	176(%rax), %rax	# cxt_49(D)->membuf.aend, D.22049
	cmpq	%rax, %rdx	# D.22049, D.22049
	jae	.L329	#,
	movq	-280(%rbp), %rax	# cxt, tmp846
	movq	168(%rax), %rax	# cxt_49(D)->membuf.aptr, D.22049
	leaq	1(%rax), %rcx	#, D.22049
	movq	-280(%rbp), %rdx	# cxt, tmp847
	movq	%rcx, 168(%rdx)	# D.22049, cxt_49(D)->membuf.aptr
	movzbl	-259(%rbp), %edx	# flags, flags.158
	movb	%dl, (%rax)	# flags.158, *_350
	jmp	.L327	#
.L329:
.LBB97:
	.loc 1 2350 0 discriminator 2
	movq	-280(%rbp), %rax	# cxt, tmp848
	movq	160(%rax), %rax	# cxt_49(D)->membuf.asiz, D.22050
	addl	$8192, %eax	#, D.22051
	andl	$-8192, %eax	#, tmp849
	movl	%eax, -184(%rbp)	# tmp849, nsz
	movq	-280(%rbp), %rax	# cxt, tmp850
	movq	168(%rax), %rax	# cxt_49(D)->membuf.aptr, D.22049
	movq	%rax, %rdx	# D.22049, D.22044
	movq	-280(%rbp), %rax	# cxt, tmp851
	movq	152(%rax), %rax	# cxt_49(D)->membuf.arena, D.22049
	subq	%rax, %rdx	# D.22044, D.22044
	movq	%rdx, %rax	# D.22044, D.22044
	movl	%eax, -180(%rbp)	# D.22044, offset
	movl	-184(%rbp), %eax	# nsz, tmp852
	movslq	%eax, %rdx	# tmp852, D.22050
	movq	-280(%rbp), %rax	# cxt, tmp853
	movq	152(%rax), %rax	# cxt_49(D)->membuf.arena, D.22049
	movq	%rdx, %rsi	# D.22050,
	movq	%rax, %rdi	# D.22049,
	call	Perl_safesysrealloc	#
	movq	-280(%rbp), %rdx	# cxt, tmp854
	movq	%rax, 152(%rdx)	# D.22052, cxt_49(D)->membuf.arena
	movl	-184(%rbp), %eax	# nsz, tmp855
	movslq	%eax, %rdx	# tmp855, D.22050
	movq	-280(%rbp), %rax	# cxt, tmp856
	movq	%rdx, 160(%rax)	# D.22050, cxt_49(D)->membuf.asiz
	movq	-280(%rbp), %rax	# cxt, tmp857
	movq	152(%rax), %rdx	# cxt_49(D)->membuf.arena, D.22049
	movl	-180(%rbp), %eax	# offset, tmp858
	cltq
	addq	%rax, %rdx	# D.22053, D.22049
	movq	-280(%rbp), %rax	# cxt, tmp859
	movq	%rdx, 168(%rax)	# D.22049, cxt_49(D)->membuf.aptr
	movq	-280(%rbp), %rax	# cxt, tmp860
	movq	152(%rax), %rdx	# cxt_49(D)->membuf.arena, D.22049
	movl	-184(%rbp), %eax	# nsz, tmp861
	cltq
	addq	%rax, %rdx	# D.22053, D.22049
	movq	-280(%rbp), %rax	# cxt, tmp862
	movq	%rdx, 176(%rax)	# D.22049, cxt_49(D)->membuf.aend
.LBE97:
	movq	-280(%rbp), %rax	# cxt, tmp864
	movq	168(%rax), %rax	# cxt_49(D)->membuf.aptr, D.22049
	leaq	1(%rax), %rcx	#, D.22049
	movq	-280(%rbp), %rdx	# cxt, tmp865
	movq	%rcx, 168(%rdx)	# D.22049, cxt_49(D)->membuf.aptr
	movzbl	-259(%rbp), %edx	# flags, flags.159
	movb	%dl, (%rax)	# flags.159, *_376
	jmp	.L327	#
.L328:
	movzbl	-259(%rbp), %edx	# flags, D.22042
	movq	-280(%rbp), %rax	# cxt, tmp866
	movq	216(%rax), %rax	# cxt_49(D)->fio, D.22048
	movl	%edx, %esi	# D.22042,
	movq	%rax, %rdi	# D.22048,
	call	PerlIO_putc	#
	cmpl	$-1, %eax	#, D.22042
	jne	.L327	#,
	.loc 1 2350 0 discriminator 1
	movl	$-1, %eax	#, D.22042
	jmp	.L380	#
.L327:
	.loc 1 2362 0 is_stmt 1
	movq	-280(%rbp), %rax	# cxt, tmp867
	movl	80(%rax), %eax	# cxt_49(D)->netorder, D.22042
	testl	%eax, %eax	# D.22042
	je	.L331	#,
.LBB98:
	.loc 1 2362 0 is_stmt 0 discriminator 1
	movl	-252(%rbp), %eax	# keylen, keylen.160
	cltq
	movq	%rax, %rdi	# D.22044,
	call	Perl_my_htonl	#
	movl	%eax, -248(%rbp)	# y.161, y
	movq	-280(%rbp), %rax	# cxt, tmp868
	movq	216(%rax), %rax	# cxt_49(D)->fio, D.22048
	testq	%rax, %rax	# D.22048
	jne	.L332	#,
.LBB99:
	movq	-280(%rbp), %rax	# cxt, tmp869
	movq	168(%rax), %rax	# cxt_49(D)->membuf.aptr, D.22049
	leaq	4(%rax), %rdx	#, D.22049
	movq	-280(%rbp), %rax	# cxt, tmp870
	movq	176(%rax), %rax	# cxt_49(D)->membuf.aend, D.22049
	cmpq	%rax, %rdx	# D.22049, D.22049
	jbe	.L333	#,
.LBB100:
	movq	-280(%rbp), %rax	# cxt, tmp871
	movq	160(%rax), %rax	# cxt_49(D)->membuf.asiz, D.22050
	addl	$8195, %eax	#, D.22051
	andl	$-8192, %eax	#, tmp872
	movl	%eax, -176(%rbp)	# tmp872, nsz
	movq	-280(%rbp), %rax	# cxt, tmp873
	movq	168(%rax), %rax	# cxt_49(D)->membuf.aptr, D.22049
	movq	%rax, %rdx	# D.22049, D.22044
	movq	-280(%rbp), %rax	# cxt, tmp874
	movq	152(%rax), %rax	# cxt_49(D)->membuf.arena, D.22049
	subq	%rax, %rdx	# D.22044, D.22044
	movq	%rdx, %rax	# D.22044, D.22044
	movl	%eax, -172(%rbp)	# D.22044, offset
	movl	-176(%rbp), %eax	# nsz, tmp875
	movslq	%eax, %rdx	# tmp875, D.22050
	movq	-280(%rbp), %rax	# cxt, tmp876
	movq	152(%rax), %rax	# cxt_49(D)->membuf.arena, D.22049
	movq	%rdx, %rsi	# D.22050,
	movq	%rax, %rdi	# D.22049,
	call	Perl_safesysrealloc	#
	movq	-280(%rbp), %rdx	# cxt, tmp877
	movq	%rax, 152(%rdx)	# D.22052, cxt_49(D)->membuf.arena
	movl	-176(%rbp), %eax	# nsz, tmp878
	movslq	%eax, %rdx	# tmp878, D.22050
	movq	-280(%rbp), %rax	# cxt, tmp879
	movq	%rdx, 160(%rax)	# D.22050, cxt_49(D)->membuf.asiz
	movq	-280(%rbp), %rax	# cxt, tmp880
	movq	152(%rax), %rdx	# cxt_49(D)->membuf.arena, D.22049
	movl	-172(%rbp), %eax	# offset, tmp881
	cltq
	addq	%rax, %rdx	# D.22053, D.22049
	movq	-280(%rbp), %rax	# cxt, tmp882
	movq	%rdx, 168(%rax)	# D.22049, cxt_49(D)->membuf.aptr
	movq	-280(%rbp), %rax	# cxt, tmp883
	movq	152(%rax), %rdx	# cxt_49(D)->membuf.arena, D.22049
	movl	-176(%rbp), %eax	# nsz, tmp884
	cltq
	addq	%rax, %rdx	# D.22053, D.22049
	movq	-280(%rbp), %rax	# cxt, tmp885
	movq	%rdx, 176(%rax)	# D.22049, cxt_49(D)->membuf.aend
.L333:
.LBE100:
	.loc 1 2362 0 discriminator 2
	movq	-280(%rbp), %rax	# cxt, tmp887
	movq	168(%rax), %rax	# cxt_49(D)->membuf.aptr, D.22049
	movq	%rax, %rdx	# D.22049, D.22050
	movq	-280(%rbp), %rax	# cxt, tmp888
	movq	168(%rax), %rax	# cxt_49(D)->membuf.aptr, D.22049
	andq	$-4, %rax	#, D.22050
	cmpq	%rax, %rdx	# D.22050, D.22050
	jne	.L334	#,
	.loc 1 2362 0 discriminator 1
	movq	-280(%rbp), %rax	# cxt, tmp889
	movq	168(%rax), %rax	# cxt_49(D)->membuf.aptr, D.22049
	movl	-248(%rbp), %edx	# y, y.162
	movl	%edx, (%rax)	# y.162, MEM[(int *)_419]
	jmp	.L335	#
.L334:
	.loc 1 2362 0 discriminator 2
	movq	-280(%rbp), %rax	# cxt, tmp890
	movq	168(%rax), %rax	# cxt_49(D)->membuf.aptr, D.22049
	movl	-248(%rbp), %edx	# MEM[(char * {ref-all})&y], D.22042
	movl	%edx, (%rax)	# D.22042, MEM[(char * {ref-all})_421]
.L335:
	.loc 1 2362 0 discriminator 1
	movq	-280(%rbp), %rax	# cxt, tmp891
	movq	168(%rax), %rax	# cxt_49(D)->membuf.aptr, D.22049
	leaq	4(%rax), %rdx	#, D.22049
	movq	-280(%rbp), %rax	# cxt, tmp892
	movq	%rdx, 168(%rax)	# D.22049, cxt_49(D)->membuf.aptr
.LBE99:
	jmp	.L336	#
.L332:
	.loc 1 2362 0 discriminator 2
	movq	-280(%rbp), %rax	# cxt, tmp894
	movq	216(%rax), %rax	# cxt_49(D)->fio, D.22048
	leaq	-248(%rbp), %rcx	#, tmp895
	movl	$4, %edx	#,
	movq	%rcx, %rsi	# tmp895,
	movq	%rax, %rdi	# D.22048,
	call	Perl_PerlIO_write	#
	cmpq	$4, %rax	#, D.22044
	je	.L336	#,
	.loc 1 2362 0 discriminator 1
	movl	$-1, %eax	#, D.22042
.LBE98:
	.loc 1 2270 0 is_stmt 1 discriminator 1
	jmp	.L380	#
.L336:
	jmp	.L337	#
.L331:
	.loc 1 2362 0 discriminator 2
	movq	-280(%rbp), %rax	# cxt, tmp896
	movq	216(%rax), %rax	# cxt_49(D)->fio, D.22048
	testq	%rax, %rax	# D.22048
	jne	.L338	#,
.LBB101:
	.loc 1 2362 0 is_stmt 0 discriminator 1
	movq	-280(%rbp), %rax	# cxt, tmp897
	movq	168(%rax), %rax	# cxt_49(D)->membuf.aptr, D.22049
	leaq	4(%rax), %rdx	#, D.22049
	movq	-280(%rbp), %rax	# cxt, tmp898
	movq	176(%rax), %rax	# cxt_49(D)->membuf.aend, D.22049
	cmpq	%rax, %rdx	# D.22049, D.22049
	jbe	.L339	#,
.LBB102:
	movq	-280(%rbp), %rax	# cxt, tmp899
	movq	160(%rax), %rax	# cxt_49(D)->membuf.asiz, D.22050
	addl	$8195, %eax	#, D.22051
	andl	$-8192, %eax	#, tmp900
	movl	%eax, -168(%rbp)	# tmp900, nsz
	movq	-280(%rbp), %rax	# cxt, tmp901
	movq	168(%rax), %rax	# cxt_49(D)->membuf.aptr, D.22049
	movq	%rax, %rdx	# D.22049, D.22044
	movq	-280(%rbp), %rax	# cxt, tmp902
	movq	152(%rax), %rax	# cxt_49(D)->membuf.arena, D.22049
	subq	%rax, %rdx	# D.22044, D.22044
	movq	%rdx, %rax	# D.22044, D.22044
	movl	%eax, -164(%rbp)	# D.22044, offset
	movl	-168(%rbp), %eax	# nsz, tmp903
	movslq	%eax, %rdx	# tmp903, D.22050
	movq	-280(%rbp), %rax	# cxt, tmp904
	movq	152(%rax), %rax	# cxt_49(D)->membuf.arena, D.22049
	movq	%rdx, %rsi	# D.22050,
	movq	%rax, %rdi	# D.22049,
	call	Perl_safesysrealloc	#
	movq	-280(%rbp), %rdx	# cxt, tmp905
	movq	%rax, 152(%rdx)	# D.22052, cxt_49(D)->membuf.arena
	movl	-168(%rbp), %eax	# nsz, tmp906
	movslq	%eax, %rdx	# tmp906, D.22050
	movq	-280(%rbp), %rax	# cxt, tmp907
	movq	%rdx, 160(%rax)	# D.22050, cxt_49(D)->membuf.asiz
	movq	-280(%rbp), %rax	# cxt, tmp908
	movq	152(%rax), %rdx	# cxt_49(D)->membuf.arena, D.22049
	movl	-164(%rbp), %eax	# offset, tmp909
	cltq
	addq	%rax, %rdx	# D.22053, D.22049
	movq	-280(%rbp), %rax	# cxt, tmp910
	movq	%rdx, 168(%rax)	# D.22049, cxt_49(D)->membuf.aptr
	movq	-280(%rbp), %rax	# cxt, tmp911
	movq	152(%rax), %rdx	# cxt_49(D)->membuf.arena, D.22049
	movl	-168(%rbp), %eax	# nsz, tmp912
	cltq
	addq	%rax, %rdx	# D.22053, D.22049
	movq	-280(%rbp), %rax	# cxt, tmp913
	movq	%rdx, 176(%rax)	# D.22049, cxt_49(D)->membuf.aend
.L339:
.LBE102:
	.loc 1 2362 0 discriminator 2
	movq	-280(%rbp), %rax	# cxt, tmp915
	movq	168(%rax), %rax	# cxt_49(D)->membuf.aptr, D.22049
	movq	%rax, %rdx	# D.22049, D.22050
	movq	-280(%rbp), %rax	# cxt, tmp916
	movq	168(%rax), %rax	# cxt_49(D)->membuf.aptr, D.22049
	andq	$-4, %rax	#, D.22050
	cmpq	%rax, %rdx	# D.22050, D.22050
	jne	.L340	#,
	.loc 1 2362 0 discriminator 1
	movq	-280(%rbp), %rax	# cxt, tmp917
	movq	168(%rax), %rax	# cxt_49(D)->membuf.aptr, D.22049
	movl	-252(%rbp), %edx	# keylen, keylen.163
	movl	%edx, (%rax)	# keylen.163, MEM[(int *)_460]
	jmp	.L341	#
.L340:
	.loc 1 2362 0 discriminator 2
	movq	-280(%rbp), %rax	# cxt, tmp918
	movq	168(%rax), %rax	# cxt_49(D)->membuf.aptr, D.22049
	movl	-252(%rbp), %edx	# MEM[(char * {ref-all})&keylen], D.22042
	movl	%edx, (%rax)	# D.22042, MEM[(char * {ref-all})_462]
.L341:
	.loc 1 2362 0 discriminator 1
	movq	-280(%rbp), %rax	# cxt, tmp919
	movq	168(%rax), %rax	# cxt_49(D)->membuf.aptr, D.22049
	leaq	4(%rax), %rdx	#, D.22049
	movq	-280(%rbp), %rax	# cxt, tmp920
	movq	%rdx, 168(%rax)	# D.22049, cxt_49(D)->membuf.aptr
.LBE101:
	jmp	.L337	#
.L338:
	.loc 1 2362 0 discriminator 2
	movq	-280(%rbp), %rax	# cxt, tmp922
	movq	216(%rax), %rax	# cxt_49(D)->fio, D.22048
	leaq	-252(%rbp), %rcx	#, tmp923
	movl	$4, %edx	#,
	movq	%rcx, %rsi	# tmp923,
	movq	%rax, %rdi	# D.22048,
	call	Perl_PerlIO_write	#
	cmpq	$4, %rax	#, D.22044
	je	.L337	#,
	.loc 1 2362 0 discriminator 1
	movl	$-1, %eax	#, D.22042
	jmp	.L380	#
.L337:
	.loc 1 2363 0 is_stmt 1
	movl	-252(%rbp), %eax	# keylen, keylen.164
	testl	%eax, %eax	# keylen.164
	je	.L342	#,
	.loc 1 2364 0
	movq	-280(%rbp), %rax	# cxt, tmp924
	movq	216(%rax), %rax	# cxt_49(D)->fio, D.22048
	testq	%rax, %rax	# D.22048
	jne	.L343	#,
.LBB103:
	.loc 1 2364 0 is_stmt 0 discriminator 1
	movq	-280(%rbp), %rax	# cxt, tmp925
	movq	168(%rax), %rdx	# cxt_49(D)->membuf.aptr, D.22049
	movl	-252(%rbp), %eax	# keylen, keylen.165
	cltq
	addq	%rax, %rdx	# D.22053, D.22049
	movq	-280(%rbp), %rax	# cxt, tmp926
	movq	176(%rax), %rax	# cxt_49(D)->membuf.aend, D.22049
	cmpq	%rax, %rdx	# D.22049, D.22049
	jbe	.L344	#,
.LBB104:
	movq	-280(%rbp), %rax	# cxt, tmp927
	movq	160(%rax), %rax	# cxt_49(D)->membuf.asiz, D.22050
	movl	%eax, %edx	# D.22050, D.22051
	movl	-252(%rbp), %eax	# keylen, keylen.166
	addl	%edx, %eax	# D.22051, D.22051
	addl	$8191, %eax	#, D.22051
	andl	$-8192, %eax	#, tmp928
	movl	%eax, -160(%rbp)	# tmp928, nsz
	movq	-280(%rbp), %rax	# cxt, tmp929
	movq	168(%rax), %rax	# cxt_49(D)->membuf.aptr, D.22049
	movq	%rax, %rdx	# D.22049, D.22044
	movq	-280(%rbp), %rax	# cxt, tmp930
	movq	152(%rax), %rax	# cxt_49(D)->membuf.arena, D.22049
	subq	%rax, %rdx	# D.22044, D.22044
	movq	%rdx, %rax	# D.22044, D.22044
	movl	%eax, -156(%rbp)	# D.22044, offset
	movl	-160(%rbp), %eax	# nsz, tmp931
	movslq	%eax, %rdx	# tmp931, D.22050
	movq	-280(%rbp), %rax	# cxt, tmp932
	movq	152(%rax), %rax	# cxt_49(D)->membuf.arena, D.22049
	movq	%rdx, %rsi	# D.22050,
	movq	%rax, %rdi	# D.22049,
	call	Perl_safesysrealloc	#
	movq	-280(%rbp), %rdx	# cxt, tmp933
	movq	%rax, 152(%rdx)	# D.22052, cxt_49(D)->membuf.arena
	movl	-160(%rbp), %eax	# nsz, tmp934
	movslq	%eax, %rdx	# tmp934, D.22050
	movq	-280(%rbp), %rax	# cxt, tmp935
	movq	%rdx, 160(%rax)	# D.22050, cxt_49(D)->membuf.asiz
	movq	-280(%rbp), %rax	# cxt, tmp936
	movq	152(%rax), %rdx	# cxt_49(D)->membuf.arena, D.22049
	movl	-156(%rbp), %eax	# offset, tmp937
	cltq
	addq	%rax, %rdx	# D.22053, D.22049
	movq	-280(%rbp), %rax	# cxt, tmp938
	movq	%rdx, 168(%rax)	# D.22049, cxt_49(D)->membuf.aptr
	movq	-280(%rbp), %rax	# cxt, tmp939
	movq	152(%rax), %rdx	# cxt_49(D)->membuf.arena, D.22049
	movl	-160(%rbp), %eax	# nsz, tmp940
	cltq
	addq	%rax, %rdx	# D.22053, D.22049
	movq	-280(%rbp), %rax	# cxt, tmp941
	movq	%rdx, 176(%rax)	# D.22049, cxt_49(D)->membuf.aend
.L344:
.LBE104:
	.loc 1 2364 0 discriminator 2
	movl	-252(%rbp), %eax	# keylen, keylen.168
	movslq	%eax, %rdx	# keylen.168, D.22050
	movq	-280(%rbp), %rax	# cxt, tmp943
	movq	168(%rax), %rax	# cxt_49(D)->membuf.aptr, D.22049
	movq	-112(%rbp), %rcx	# keyval, tmp944
	movq	%rcx, %rsi	# tmp944,
	movq	%rax, %rdi	# D.22049,
	call	memcpy	#
	movq	-280(%rbp), %rax	# cxt, tmp945
	movq	168(%rax), %rdx	# cxt_49(D)->membuf.aptr, D.22049
	movl	-252(%rbp), %eax	# keylen, keylen.169
	cltq
	addq	%rax, %rdx	# D.22053, D.22049
	movq	-280(%rbp), %rax	# cxt, tmp946
	movq	%rdx, 168(%rax)	# D.22049, cxt_49(D)->membuf.aptr
.LBE103:
	jmp	.L342	#
.L343:
	movl	-252(%rbp), %eax	# keylen, keylen.170
	movslq	%eax, %rdx	# keylen.170, D.22050
	movq	-280(%rbp), %rax	# cxt, tmp948
	movq	216(%rax), %rax	# cxt_49(D)->fio, D.22048
	movq	-112(%rbp), %rcx	# keyval, tmp949
	movq	%rcx, %rsi	# tmp949,
	movq	%rax, %rdi	# D.22048,
	call	Perl_PerlIO_write	#
	movl	-252(%rbp), %edx	# keylen, keylen.171
	movslq	%edx, %rdx	# keylen.171, D.22044
	cmpq	%rdx, %rax	# D.22044, D.22044
	je	.L342	#,
	.loc 1 2364 0 discriminator 1
	movl	$-1, %eax	#, D.22042
	jmp	.L380	#
.L342:
	.loc 1 2365 0 is_stmt 1
	movzbl	-259(%rbp), %eax	# flags, D.22042
	andl	$2, %eax	#, D.22042
	testl	%eax, %eax	# D.22042
	je	.L345	#,
	.loc 1 2366 0
	movq	-112(%rbp), %rax	# keyval, tmp950
	movq	%rax, %rdi	# tmp950,
	call	Perl_safesysfree	#
.L345:
.LBE95:
	.loc 1 2252 0
	addl	$1, -244(%rbp)	#, i
.L314:
	.loc 1 2252 0 is_stmt 0 discriminator 1
	movl	-256(%rbp), %eax	# len, len.172
	cmpl	%eax, -244(%rbp)	# len.172, i
	jl	.L346	#,
	.loc 1 2373 0 is_stmt 1
	movq	-64(%rbp), %rax	# av, tmp951
	movq	%rax, %rdi	# tmp951,
	call	Perl_av_undef	#
	.loc 1 2374 0
	movq	-64(%rbp), %rax	# av, tmp952
	movq	%rax, %rdi	# tmp952,
	call	Perl_sv_free	#
.LBE93:
	.loc 1 2226 0
	jmp	.L320	#
.L299:
	.loc 1 2383 0
	movl	$0, -244(%rbp)	#, i
	jmp	.L347	#
.L379:
.LBB105:
	.loc 1 2388 0
	movq	-288(%rbp), %rax	# hv, tmp953
	movl	$1, %esi	#,
	movq	%rax, %rdi	# tmp953,
	call	Perl_hv_iternext_flags	#
	movq	%rax, -16(%rbp)	# tmp954, he
	.loc 1 2392 0
	cmpq	$0, -16(%rbp)	#, he
	je	.L348	#,
	.loc 1 2392 0 is_stmt 0 discriminator 1
	movq	-16(%rbp), %rdx	# he, tmp955
	movq	-288(%rbp), %rax	# hv, tmp956
	movq	%rdx, %rsi	# tmp955,
	movq	%rax, %rdi	# tmp956,
	call	Perl_hv_iterval	#
	jmp	.L349	#
.L348:
	.loc 1 2392 0 discriminator 2
	movl	$0, %eax	#, iftmp.173
.L349:
	.loc 1 2392 0 discriminator 3
	movq	%rax, -88(%rbp)	# iftmp.173, val
	.loc 1 2393 0 is_stmt 1 discriminator 3
	movq	$0, -80(%rbp)	#, key_sv
	.loc 1 2396 0 discriminator 3
	cmpq	$0, -88(%rbp)	#, val
	jne	.L350	#,
	.loc 1 2397 0
	movl	$1, %eax	#, D.22042
	jmp	.L380	#
.L350:
	.loc 1 2402 0
	movzbl	-257(%rbp), %eax	# hash_flags, D.22042
	andl	$1, %eax	#, D.22042
	testl	%eax, %eax	# D.22042
	je	.L352	#,
	.loc 1 2403 0
	movq	-88(%rbp), %rax	# val, tmp957
	movl	12(%rax), %eax	# val_526->sv_flags, D.22045
	andl	$8388608, %eax	#, D.22045
	testl	%eax, %eax	# D.22045
	je	.L352	#,
	.loc 1 2402 0
	movl	$4, %eax	#, iftmp.174
	jmp	.L353	#
.L352:
	.loc 1 2402 0 is_stmt 0 discriminator 1
	movl	$0, %eax	#, iftmp.174
.L353:
	.loc 1 2402 0 discriminator 2
	movb	%al, -258(%rbp)	# iftmp.174, flags
	.loc 1 2406 0 is_stmt 1 discriminator 2
	cmpq	$PL_sv_placeholder, -88(%rbp)	#, val
	jne	.L354	#,
	.loc 1 2407 0
	orb	$16, -258(%rbp)	#, flags
	.loc 1 2408 0
	movq	$PL_sv_undef, -88(%rbp)	#, val
.L354:
	.loc 1 2417 0
	movq	-88(%rbp), %rdx	# val, tmp958
	movq	-280(%rbp), %rax	# cxt, tmp959
	movq	%rdx, %rsi	# tmp958,
	movq	%rax, %rdi	# tmp959,
	call	store	#
	movl	%eax, -240(%rbp)	# tmp960, ret
	cmpl	$0, -240(%rbp)	#, ret
	jne	.L320	#,
	.loc 1 2421 0
	movq	-16(%rbp), %rax	# he, tmp961
	movq	8(%rax), %rax	# he_523->hent_hek, tmp962
	movq	%rax, -8(%rbp)	# tmp962, hek
	.loc 1 2422 0
	movq	-8(%rbp), %rax	# hek, tmp963
	movl	4(%rax), %eax	# hek_539->hek_len, len.175
	movl	%eax, -248(%rbp)	# len.175, len
	.loc 1 2423 0
	movl	-248(%rbp), %eax	# len, len.176
	cmpl	$-2, %eax	#, len.176
	jne	.L356	#,
	.loc 1 2430 0
	movq	-16(%rbp), %rax	# he, tmp964
	movq	8(%rax), %rax	# he_523->hent_hek, D.22058
	addq	$8, %rax	#, D.22059
	movq	(%rax), %rax	# MEM[(struct SV * *)_543], tmp965
	movq	%rax, -80(%rbp)	# tmp965, key_sv
	.loc 1 2431 0
	orb	$8, -258(%rbp)	#, flags
	jmp	.L357	#
.L356:
	.loc 1 2435 0
	movq	-8(%rbp), %rax	# hek, tmp966
	movl	4(%rax), %eax	# hek_539->hek_len, D.22042
	cltq
	leaq	1(%rax), %rdx	#, D.22053
	movq	-8(%rbp), %rax	# hek, tmp968
	addq	%rdx, %rax	# D.22053, tmp967
	addq	$8, %rax	#, D.22049
	movzbl	(%rax), %eax	# MEM[(unsigned char *)_549], D.22060
	movzbl	%al, %eax	# D.22060, D.22042
	andl	$1, %eax	#, D.22042
	testl	%eax, %eax	# D.22042
	je	.L358	#,
	.loc 1 2436 0
	orb	$1, -258(%rbp)	#, flags
.L358:
	.loc 1 2437 0
	movq	-8(%rbp), %rax	# hek, tmp969
	movl	4(%rax), %eax	# hek_539->hek_len, D.22042
	cltq
	leaq	1(%rax), %rdx	#, D.22053
	movq	-8(%rbp), %rax	# hek, tmp971
	addq	%rdx, %rax	# D.22053, tmp970
	addq	$8, %rax	#, D.22049
	movzbl	(%rax), %eax	# MEM[(unsigned char *)_557], D.22060
	movzbl	%al, %eax	# D.22060, D.22042
	andl	$2, %eax	#, D.22042
	testl	%eax, %eax	# D.22042
	je	.L359	#,
	.loc 1 2438 0
	orb	$2, -258(%rbp)	#, flags
.L359:
	.loc 1 2440 0
	movq	-8(%rbp), %rax	# hek, tmp975
	addq	$8, %rax	#, tmp974
	movq	%rax, -96(%rbp)	# tmp974, key
.L357:
	.loc 1 2450 0
	cmpl	$0, -236(%rbp)	#, flagged_hash
	je	.L360	#,
	.loc 1 2451 0
	movq	-280(%rbp), %rax	# cxt, tmp976
	movq	216(%rax), %rax	# cxt_49(D)->fio, D.22048
	testq	%rax, %rax	# D.22048
	jne	.L361	#,
	.loc 1 2451 0 is_stmt 0 discriminator 1
	movq	-280(%rbp), %rax	# cxt, tmp977
	movq	168(%rax), %rdx	# cxt_49(D)->membuf.aptr, D.22049
	movq	-280(%rbp), %rax	# cxt, tmp978
	movq	176(%rax), %rax	# cxt_49(D)->membuf.aend, D.22049
	cmpq	%rax, %rdx	# D.22049, D.22049
	jae	.L362	#,
	movq	-280(%rbp), %rax	# cxt, tmp979
	movq	168(%rax), %rax	# cxt_49(D)->membuf.aptr, D.22049
	leaq	1(%rax), %rcx	#, D.22049
	movq	-280(%rbp), %rdx	# cxt, tmp980
	movq	%rcx, 168(%rdx)	# D.22049, cxt_49(D)->membuf.aptr
	movzbl	-258(%rbp), %edx	# flags, flags.177
	movb	%dl, (%rax)	# flags.177, *_567
	jmp	.L360	#
.L362:
.LBB106:
	.loc 1 2451 0 discriminator 2
	movq	-280(%rbp), %rax	# cxt, tmp981
	movq	160(%rax), %rax	# cxt_49(D)->membuf.asiz, D.22050
	addl	$8192, %eax	#, D.22051
	andl	$-8192, %eax	#, tmp982
	movl	%eax, -152(%rbp)	# tmp982, nsz
	movq	-280(%rbp), %rax	# cxt, tmp983
	movq	168(%rax), %rax	# cxt_49(D)->membuf.aptr, D.22049
	movq	%rax, %rdx	# D.22049, D.22044
	movq	-280(%rbp), %rax	# cxt, tmp984
	movq	152(%rax), %rax	# cxt_49(D)->membuf.arena, D.22049
	subq	%rax, %rdx	# D.22044, D.22044
	movq	%rdx, %rax	# D.22044, D.22044
	movl	%eax, -148(%rbp)	# D.22044, offset
	movl	-152(%rbp), %eax	# nsz, tmp985
	movslq	%eax, %rdx	# tmp985, D.22050
	movq	-280(%rbp), %rax	# cxt, tmp986
	movq	152(%rax), %rax	# cxt_49(D)->membuf.arena, D.22049
	movq	%rdx, %rsi	# D.22050,
	movq	%rax, %rdi	# D.22049,
	call	Perl_safesysrealloc	#
	movq	-280(%rbp), %rdx	# cxt, tmp987
	movq	%rax, 152(%rdx)	# D.22052, cxt_49(D)->membuf.arena
	movl	-152(%rbp), %eax	# nsz, tmp988
	movslq	%eax, %rdx	# tmp988, D.22050
	movq	-280(%rbp), %rax	# cxt, tmp989
	movq	%rdx, 160(%rax)	# D.22050, cxt_49(D)->membuf.asiz
	movq	-280(%rbp), %rax	# cxt, tmp990
	movq	152(%rax), %rdx	# cxt_49(D)->membuf.arena, D.22049
	movl	-148(%rbp), %eax	# offset, tmp991
	cltq
	addq	%rax, %rdx	# D.22053, D.22049
	movq	-280(%rbp), %rax	# cxt, tmp992
	movq	%rdx, 168(%rax)	# D.22049, cxt_49(D)->membuf.aptr
	movq	-280(%rbp), %rax	# cxt, tmp993
	movq	152(%rax), %rdx	# cxt_49(D)->membuf.arena, D.22049
	movl	-152(%rbp), %eax	# nsz, tmp994
	cltq
	addq	%rax, %rdx	# D.22053, D.22049
	movq	-280(%rbp), %rax	# cxt, tmp995
	movq	%rdx, 176(%rax)	# D.22049, cxt_49(D)->membuf.aend
.LBE106:
	movq	-280(%rbp), %rax	# cxt, tmp997
	movq	168(%rax), %rax	# cxt_49(D)->membuf.aptr, D.22049
	leaq	1(%rax), %rcx	#, D.22049
	movq	-280(%rbp), %rdx	# cxt, tmp998
	movq	%rcx, 168(%rdx)	# D.22049, cxt_49(D)->membuf.aptr
	movzbl	-258(%rbp), %edx	# flags, flags.178
	movb	%dl, (%rax)	# flags.178, *_593
	jmp	.L360	#
.L361:
	movzbl	-258(%rbp), %edx	# flags, D.22042
	movq	-280(%rbp), %rax	# cxt, tmp999
	movq	216(%rax), %rax	# cxt_49(D)->fio, D.22048
	movl	%edx, %esi	# D.22042,
	movq	%rax, %rdi	# D.22048,
	call	PerlIO_putc	#
	cmpl	$-1, %eax	#, D.22042
	jne	.L360	#,
	.loc 1 2451 0 discriminator 1
	movl	$-1, %eax	#, D.22042
	jmp	.L380	#
.L360:
	.loc 1 2463 0 is_stmt 1
	movzbl	-258(%rbp), %eax	# flags, D.22042
	andl	$8, %eax	#, D.22042
	testl	%eax, %eax	# D.22042
	je	.L364	#,
	.loc 1 2464 0
	movq	-80(%rbp), %rdx	# key_sv, tmp1000
	movq	-280(%rbp), %rax	# cxt, tmp1001
	movq	%rdx, %rsi	# tmp1000,
	movq	%rax, %rdi	# tmp1001,
	call	store	#
	jmp	.L365	#
.L364:
	.loc 1 2466 0
	movq	-280(%rbp), %rax	# cxt, tmp1002
	movl	80(%rax), %eax	# cxt_49(D)->netorder, D.22042
	testl	%eax, %eax	# D.22042
	je	.L366	#,
.LBB107:
	.loc 1 2466 0 is_stmt 0 discriminator 1
	movl	-248(%rbp), %eax	# len, len.179
	cltq
	movq	%rax, %rdi	# D.22044,
	call	Perl_my_htonl	#
	movl	%eax, -120(%rbp)	# y.180, y
	movq	-280(%rbp), %rax	# cxt, tmp1003
	movq	216(%rax), %rax	# cxt_49(D)->fio, D.22048
	testq	%rax, %rax	# D.22048
	jne	.L367	#,
.LBB108:
	movq	-280(%rbp), %rax	# cxt, tmp1004
	movq	168(%rax), %rax	# cxt_49(D)->membuf.aptr, D.22049
	leaq	4(%rax), %rdx	#, D.22049
	movq	-280(%rbp), %rax	# cxt, tmp1005
	movq	176(%rax), %rax	# cxt_49(D)->membuf.aend, D.22049
	cmpq	%rax, %rdx	# D.22049, D.22049
	jbe	.L368	#,
.LBB109:
	movq	-280(%rbp), %rax	# cxt, tmp1006
	movq	160(%rax), %rax	# cxt_49(D)->membuf.asiz, D.22050
	addl	$8195, %eax	#, D.22051
	andl	$-8192, %eax	#, tmp1007
	movl	%eax, -144(%rbp)	# tmp1007, nsz
	movq	-280(%rbp), %rax	# cxt, tmp1008
	movq	168(%rax), %rax	# cxt_49(D)->membuf.aptr, D.22049
	movq	%rax, %rdx	# D.22049, D.22044
	movq	-280(%rbp), %rax	# cxt, tmp1009
	movq	152(%rax), %rax	# cxt_49(D)->membuf.arena, D.22049
	subq	%rax, %rdx	# D.22044, D.22044
	movq	%rdx, %rax	# D.22044, D.22044
	movl	%eax, -140(%rbp)	# D.22044, offset
	movl	-144(%rbp), %eax	# nsz, tmp1010
	movslq	%eax, %rdx	# tmp1010, D.22050
	movq	-280(%rbp), %rax	# cxt, tmp1011
	movq	152(%rax), %rax	# cxt_49(D)->membuf.arena, D.22049
	movq	%rdx, %rsi	# D.22050,
	movq	%rax, %rdi	# D.22049,
	call	Perl_safesysrealloc	#
	movq	-280(%rbp), %rdx	# cxt, tmp1012
	movq	%rax, 152(%rdx)	# D.22052, cxt_49(D)->membuf.arena
	movl	-144(%rbp), %eax	# nsz, tmp1013
	movslq	%eax, %rdx	# tmp1013, D.22050
	movq	-280(%rbp), %rax	# cxt, tmp1014
	movq	%rdx, 160(%rax)	# D.22050, cxt_49(D)->membuf.asiz
	movq	-280(%rbp), %rax	# cxt, tmp1015
	movq	152(%rax), %rdx	# cxt_49(D)->membuf.arena, D.22049
	movl	-140(%rbp), %eax	# offset, tmp1016
	cltq
	addq	%rax, %rdx	# D.22053, D.22049
	movq	-280(%rbp), %rax	# cxt, tmp1017
	movq	%rdx, 168(%rax)	# D.22049, cxt_49(D)->membuf.aptr
	movq	-280(%rbp), %rax	# cxt, tmp1018
	movq	152(%rax), %rdx	# cxt_49(D)->membuf.arena, D.22049
	movl	-144(%rbp), %eax	# nsz, tmp1019
	cltq
	addq	%rax, %rdx	# D.22053, D.22049
	movq	-280(%rbp), %rax	# cxt, tmp1020
	movq	%rdx, 176(%rax)	# D.22049, cxt_49(D)->membuf.aend
.L368:
.LBE109:
	.loc 1 2466 0 discriminator 2
	movq	-280(%rbp), %rax	# cxt, tmp1022
	movq	168(%rax), %rax	# cxt_49(D)->membuf.aptr, D.22049
	movq	%rax, %rdx	# D.22049, D.22050
	movq	-280(%rbp), %rax	# cxt, tmp1023
	movq	168(%rax), %rax	# cxt_49(D)->membuf.aptr, D.22049
	andq	$-4, %rax	#, D.22050
	cmpq	%rax, %rdx	# D.22050, D.22050
	jne	.L369	#,
	.loc 1 2466 0 discriminator 1
	movq	-280(%rbp), %rax	# cxt, tmp1024
	movq	168(%rax), %rax	# cxt_49(D)->membuf.aptr, D.22049
	movl	-120(%rbp), %edx	# y, y.181
	movl	%edx, (%rax)	# y.181, MEM[(int *)_638]
	jmp	.L370	#
.L369:
	.loc 1 2466 0 discriminator 2
	movq	-280(%rbp), %rax	# cxt, tmp1025
	movq	168(%rax), %rax	# cxt_49(D)->membuf.aptr, D.22049
	movl	-120(%rbp), %edx	# MEM[(char * {ref-all})&y], D.22042
	movl	%edx, (%rax)	# D.22042, MEM[(char * {ref-all})_640]
.L370:
	.loc 1 2466 0 discriminator 1
	movq	-280(%rbp), %rax	# cxt, tmp1026
	movq	168(%rax), %rax	# cxt_49(D)->membuf.aptr, D.22049
	leaq	4(%rax), %rdx	#, D.22049
	movq	-280(%rbp), %rax	# cxt, tmp1027
	movq	%rdx, 168(%rax)	# D.22049, cxt_49(D)->membuf.aptr
.LBE108:
	jmp	.L371	#
.L367:
	.loc 1 2466 0 discriminator 2
	movq	-280(%rbp), %rax	# cxt, tmp1029
	movq	216(%rax), %rax	# cxt_49(D)->fio, D.22048
	leaq	-120(%rbp), %rcx	#, tmp1030
	movl	$4, %edx	#,
	movq	%rcx, %rsi	# tmp1030,
	movq	%rax, %rdi	# D.22048,
	call	Perl_PerlIO_write	#
	cmpq	$4, %rax	#, D.22044
	je	.L371	#,
	.loc 1 2466 0 discriminator 1
	movl	$-1, %eax	#, D.22042
.LBE107:
	.loc 1 2397 0 is_stmt 1 discriminator 1
	jmp	.L380	#
.L371:
	jmp	.L372	#
.L366:
	.loc 1 2466 0 discriminator 2
	movq	-280(%rbp), %rax	# cxt, tmp1031
	movq	216(%rax), %rax	# cxt_49(D)->fio, D.22048
	testq	%rax, %rax	# D.22048
	jne	.L373	#,
.LBB110:
	.loc 1 2466 0 is_stmt 0 discriminator 1
	movq	-280(%rbp), %rax	# cxt, tmp1032
	movq	168(%rax), %rax	# cxt_49(D)->membuf.aptr, D.22049
	leaq	4(%rax), %rdx	#, D.22049
	movq	-280(%rbp), %rax	# cxt, tmp1033
	movq	176(%rax), %rax	# cxt_49(D)->membuf.aend, D.22049
	cmpq	%rax, %rdx	# D.22049, D.22049
	jbe	.L374	#,
.LBB111:
	movq	-280(%rbp), %rax	# cxt, tmp1034
	movq	160(%rax), %rax	# cxt_49(D)->membuf.asiz, D.22050
	addl	$8195, %eax	#, D.22051
	andl	$-8192, %eax	#, tmp1035
	movl	%eax, -136(%rbp)	# tmp1035, nsz
	movq	-280(%rbp), %rax	# cxt, tmp1036
	movq	168(%rax), %rax	# cxt_49(D)->membuf.aptr, D.22049
	movq	%rax, %rdx	# D.22049, D.22044
	movq	-280(%rbp), %rax	# cxt, tmp1037
	movq	152(%rax), %rax	# cxt_49(D)->membuf.arena, D.22049
	subq	%rax, %rdx	# D.22044, D.22044
	movq	%rdx, %rax	# D.22044, D.22044
	movl	%eax, -132(%rbp)	# D.22044, offset
	movl	-136(%rbp), %eax	# nsz, tmp1038
	movslq	%eax, %rdx	# tmp1038, D.22050
	movq	-280(%rbp), %rax	# cxt, tmp1039
	movq	152(%rax), %rax	# cxt_49(D)->membuf.arena, D.22049
	movq	%rdx, %rsi	# D.22050,
	movq	%rax, %rdi	# D.22049,
	call	Perl_safesysrealloc	#
	movq	-280(%rbp), %rdx	# cxt, tmp1040
	movq	%rax, 152(%rdx)	# D.22052, cxt_49(D)->membuf.arena
	movl	-136(%rbp), %eax	# nsz, tmp1041
	movslq	%eax, %rdx	# tmp1041, D.22050
	movq	-280(%rbp), %rax	# cxt, tmp1042
	movq	%rdx, 160(%rax)	# D.22050, cxt_49(D)->membuf.asiz
	movq	-280(%rbp), %rax	# cxt, tmp1043
	movq	152(%rax), %rdx	# cxt_49(D)->membuf.arena, D.22049
	movl	-132(%rbp), %eax	# offset, tmp1044
	cltq
	addq	%rax, %rdx	# D.22053, D.22049
	movq	-280(%rbp), %rax	# cxt, tmp1045
	movq	%rdx, 168(%rax)	# D.22049, cxt_49(D)->membuf.aptr
	movq	-280(%rbp), %rax	# cxt, tmp1046
	movq	152(%rax), %rdx	# cxt_49(D)->membuf.arena, D.22049
	movl	-136(%rbp), %eax	# nsz, tmp1047
	cltq
	addq	%rax, %rdx	# D.22053, D.22049
	movq	-280(%rbp), %rax	# cxt, tmp1048
	movq	%rdx, 176(%rax)	# D.22049, cxt_49(D)->membuf.aend
.L374:
.LBE111:
	.loc 1 2466 0 discriminator 2
	movq	-280(%rbp), %rax	# cxt, tmp1050
	movq	168(%rax), %rax	# cxt_49(D)->membuf.aptr, D.22049
	movq	%rax, %rdx	# D.22049, D.22050
	movq	-280(%rbp), %rax	# cxt, tmp1051
	movq	168(%rax), %rax	# cxt_49(D)->membuf.aptr, D.22049
	andq	$-4, %rax	#, D.22050
	cmpq	%rax, %rdx	# D.22050, D.22050
	jne	.L375	#,
	.loc 1 2466 0 discriminator 1
	movq	-280(%rbp), %rax	# cxt, tmp1052
	movq	168(%rax), %rax	# cxt_49(D)->membuf.aptr, D.22049
	movl	-248(%rbp), %edx	# len, len.182
	movl	%edx, (%rax)	# len.182, MEM[(int *)_679]
	jmp	.L376	#
.L375:
	.loc 1 2466 0 discriminator 2
	movq	-280(%rbp), %rax	# cxt, tmp1053
	movq	168(%rax), %rax	# cxt_49(D)->membuf.aptr, D.22049
	movl	-248(%rbp), %edx	# MEM[(char * {ref-all})&len], D.22042
	movl	%edx, (%rax)	# D.22042, MEM[(char * {ref-all})_681]
.L376:
	.loc 1 2466 0 discriminator 1
	movq	-280(%rbp), %rax	# cxt, tmp1054
	movq	168(%rax), %rax	# cxt_49(D)->membuf.aptr, D.22049
	leaq	4(%rax), %rdx	#, D.22049
	movq	-280(%rbp), %rax	# cxt, tmp1055
	movq	%rdx, 168(%rax)	# D.22049, cxt_49(D)->membuf.aptr
.LBE110:
	jmp	.L372	#
.L373:
	.loc 1 2466 0 discriminator 2
	movq	-280(%rbp), %rax	# cxt, tmp1057
	movq	216(%rax), %rax	# cxt_49(D)->fio, D.22048
	leaq	-248(%rbp), %rcx	#, tmp1058
	movl	$4, %edx	#,
	movq	%rcx, %rsi	# tmp1058,
	movq	%rax, %rdi	# D.22048,
	call	Perl_PerlIO_write	#
	cmpq	$4, %rax	#, D.22044
	je	.L372	#,
	.loc 1 2466 0 discriminator 1
	movl	$-1, %eax	#, D.22042
	jmp	.L380	#
.L372:
	.loc 1 2467 0 is_stmt 1
	movl	-248(%rbp), %eax	# len, len.183
	testl	%eax, %eax	# len.183
	je	.L365	#,
	.loc 1 2468 0
	movq	-280(%rbp), %rax	# cxt, tmp1059
	movq	216(%rax), %rax	# cxt_49(D)->fio, D.22048
	testq	%rax, %rax	# D.22048
	jne	.L377	#,
.LBB112:
	.loc 1 2468 0 is_stmt 0 discriminator 1
	movq	-280(%rbp), %rax	# cxt, tmp1060
	movq	168(%rax), %rdx	# cxt_49(D)->membuf.aptr, D.22049
	movl	-248(%rbp), %eax	# len, len.184
	cltq
	addq	%rax, %rdx	# D.22053, D.22049
	movq	-280(%rbp), %rax	# cxt, tmp1061
	movq	176(%rax), %rax	# cxt_49(D)->membuf.aend, D.22049
	cmpq	%rax, %rdx	# D.22049, D.22049
	jbe	.L378	#,
.LBB113:
	movq	-280(%rbp), %rax	# cxt, tmp1062
	movq	160(%rax), %rax	# cxt_49(D)->membuf.asiz, D.22050
	movl	%eax, %edx	# D.22050, D.22051
	movl	-248(%rbp), %eax	# len, len.185
	addl	%edx, %eax	# D.22051, D.22051
	addl	$8191, %eax	#, D.22051
	andl	$-8192, %eax	#, tmp1063
	movl	%eax, -128(%rbp)	# tmp1063, nsz
	movq	-280(%rbp), %rax	# cxt, tmp1064
	movq	168(%rax), %rax	# cxt_49(D)->membuf.aptr, D.22049
	movq	%rax, %rdx	# D.22049, D.22044
	movq	-280(%rbp), %rax	# cxt, tmp1065
	movq	152(%rax), %rax	# cxt_49(D)->membuf.arena, D.22049
	subq	%rax, %rdx	# D.22044, D.22044
	movq	%rdx, %rax	# D.22044, D.22044
	movl	%eax, -124(%rbp)	# D.22044, offset
	movl	-128(%rbp), %eax	# nsz, tmp1066
	movslq	%eax, %rdx	# tmp1066, D.22050
	movq	-280(%rbp), %rax	# cxt, tmp1067
	movq	152(%rax), %rax	# cxt_49(D)->membuf.arena, D.22049
	movq	%rdx, %rsi	# D.22050,
	movq	%rax, %rdi	# D.22049,
	call	Perl_safesysrealloc	#
	movq	-280(%rbp), %rdx	# cxt, tmp1068
	movq	%rax, 152(%rdx)	# D.22052, cxt_49(D)->membuf.arena
	movl	-128(%rbp), %eax	# nsz, tmp1069
	movslq	%eax, %rdx	# tmp1069, D.22050
	movq	-280(%rbp), %rax	# cxt, tmp1070
	movq	%rdx, 160(%rax)	# D.22050, cxt_49(D)->membuf.asiz
	movq	-280(%rbp), %rax	# cxt, tmp1071
	movq	152(%rax), %rdx	# cxt_49(D)->membuf.arena, D.22049
	movl	-124(%rbp), %eax	# offset, tmp1072
	cltq
	addq	%rax, %rdx	# D.22053, D.22049
	movq	-280(%rbp), %rax	# cxt, tmp1073
	movq	%rdx, 168(%rax)	# D.22049, cxt_49(D)->membuf.aptr
	movq	-280(%rbp), %rax	# cxt, tmp1074
	movq	152(%rax), %rdx	# cxt_49(D)->membuf.arena, D.22049
	movl	-128(%rbp), %eax	# nsz, tmp1075
	cltq
	addq	%rax, %rdx	# D.22053, D.22049
	movq	-280(%rbp), %rax	# cxt, tmp1076
	movq	%rdx, 176(%rax)	# D.22049, cxt_49(D)->membuf.aend
.L378:
.LBE113:
	.loc 1 2468 0 discriminator 2
	movl	-248(%rbp), %eax	# len, len.187
	movslq	%eax, %rdx	# len.187, D.22050
	movq	-280(%rbp), %rax	# cxt, tmp1078
	movq	168(%rax), %rax	# cxt_49(D)->membuf.aptr, D.22049
	movq	-96(%rbp), %rcx	# key, tmp1079
	movq	%rcx, %rsi	# tmp1079,
	movq	%rax, %rdi	# D.22049,
	call	memcpy	#
	movq	-280(%rbp), %rax	# cxt, tmp1080
	movq	168(%rax), %rdx	# cxt_49(D)->membuf.aptr, D.22049
	movl	-248(%rbp), %eax	# len, len.188
	cltq
	addq	%rax, %rdx	# D.22053, D.22049
	movq	-280(%rbp), %rax	# cxt, tmp1081
	movq	%rdx, 168(%rax)	# D.22049, cxt_49(D)->membuf.aptr
.LBE112:
	jmp	.L365	#
.L377:
	movl	-248(%rbp), %eax	# len, len.189
	movslq	%eax, %rdx	# len.189, D.22050
	movq	-280(%rbp), %rax	# cxt, tmp1083
	movq	216(%rax), %rax	# cxt_49(D)->fio, D.22048
	movq	-96(%rbp), %rcx	# key, tmp1084
	movq	%rcx, %rsi	# tmp1084,
	movq	%rax, %rdi	# D.22048,
	call	Perl_PerlIO_write	#
	movl	-248(%rbp), %edx	# len, len.190
	movslq	%edx, %rdx	# len.190, D.22044
	cmpq	%rdx, %rax	# D.22044, D.22044
	je	.L365	#,
	.loc 1 2468 0 discriminator 1
	movl	$-1, %eax	#, D.22042
	jmp	.L380	#
.L365:
.LBE105:
	.loc 1 2383 0 is_stmt 1 discriminator 3
	addl	$1, -244(%rbp)	#, i
.L347:
	.loc 1 2383 0 is_stmt 0 discriminator 1
	movl	-256(%rbp), %eax	# len, len.191
	cmpl	%eax, -244(%rbp)	# len.191, i
	jl	.L379	#,
.L320:
	.loc 1 2476 0 is_stmt 1
	movq	-288(%rbp), %rax	# hv, tmp1085
	movq	(%rax), %rax	# hv_33(D)->sv_any, D.22043
	movl	-192(%rbp), %edx	# riter, tmp1086
	movl	%edx, 56(%rax)	# tmp1086, _737->xhv_riter
	.loc 1 2477 0
	movq	-288(%rbp), %rax	# hv, tmp1087
	movq	(%rax), %rax	# hv_33(D)->sv_any, D.22043
	movq	-72(%rbp), %rdx	# eiter, tmp1088
	movq	%rdx, 64(%rax)	# tmp1088, _738->xhv_eiter
	.loc 1 2479 0
	movl	-240(%rbp), %eax	# ret, D.22042
.L380:
	.loc 1 2480 0
	leave
	.cfi_def_cfa 7, 8
	ret
	.cfi_endproc
.LFE24:
	.size	store_hash, .-store_hash
	.section	.rodata
.LC5:
	.string	"Storable::Deparse"
.LC7:
	.string	"B::Deparse"
.LC8:
	.string	"new"
	.align 8
.LC9:
	.string	"Unexpected return value from B::Deparse::new\n"
.LC10:
	.string	"coderef2text"
	.align 8
.LC11:
	.string	"Unexpected return value from B::Deparse::coderef2text\n"
	.align 8
.LC12:
	.string	"The result of B::Deparse::coderef2text was empty - maybe you're trying to serialize an XS function?\n"
	.text
	.type	store_code, @function
store_code:
.LFB25:
	.loc 1 2491 0
	.cfi_startproc
	pushq	%rbp	#
	.cfi_def_cfa_offset 16
	.cfi_offset 6, -16
	movq	%rsp, %rbp	#,
	.cfi_def_cfa_register 6
	pushq	%r12	#
	pushq	%rbx	#
	subq	$144, %rsp	#,
	.cfi_offset 12, -24
	.cfi_offset 3, -32
	movq	%rdi, -136(%rbp)	# cxt, cxt
	movq	%rsi, -144(%rbp)	# cv, cv
	.loc 1 2498 0
	movq	PL_stack_sp(%rip), %rbx	# PL_stack_sp, sp
	.loc 1 2506 0
	movq	-136(%rbp), %rax	# cxt, tmp475
	movl	92(%rax), %eax	# cxt_17(D)->deparse, D.22063
	.loc 1 2505 0
	testl	%eax, %eax	# D.22063
	je	.L382	#,
	.loc 1 2507 0
	movq	-136(%rbp), %rax	# cxt, tmp476
	movl	92(%rax), %eax	# cxt_17(D)->deparse, D.22063
	.loc 1 2506 0
	testl	%eax, %eax	# D.22063
	jns	.L383	#,
	.loc 1 2508 0
	movl	$1, %esi	#,
	movl	$.LC5, %edi	#,
	call	Perl_get_sv	#
	testq	%rax, %rax	# D.22064
	je	.L384	#,
	.loc 1 2508 0 is_stmt 0 discriminator 1
	movl	$1, %esi	#,
	movl	$.LC5, %edi	#,
	call	Perl_get_sv	#
	movl	12(%rax), %eax	# _21->sv_flags, D.22065
	andl	$262144, %eax	#, D.22065
	testl	%eax, %eax	# D.22065
	je	.L385	#,
	movl	$1, %esi	#,
	movl	$.LC5, %edi	#,
	call	Perl_get_sv	#
	movq	(%rax), %rax	# _24->sv_any, PL_Xpv.195
	movq	%rax, PL_Xpv(%rip)	# PL_Xpv.195, PL_Xpv
	movq	PL_Xpv(%rip), %rax	# PL_Xpv, PL_Xpv.196
	testq	%rax, %rax	# PL_Xpv.196
	je	.L386	#,
	.loc 1 2508 0 discriminator 3
	movq	PL_Xpv(%rip), %rax	# PL_Xpv, PL_Xpv.197
	movq	8(%rax), %rax	# PL_Xpv.197_27->xpv_cur, D.22066
	cmpq	$1, %rax	#, D.22066
	ja	.L387	#,
	.loc 1 2508 0 discriminator 6
	movq	PL_Xpv(%rip), %rax	# PL_Xpv, PL_Xpv.198
	movq	8(%rax), %rax	# PL_Xpv.198_29->xpv_cur, D.22066
	testq	%rax, %rax	# D.22066
	je	.L386	#,
	.loc 1 2508 0 discriminator 1
	movq	PL_Xpv(%rip), %rax	# PL_Xpv, PL_Xpv.199
	movq	(%rax), %rax	# PL_Xpv.199_31->xpv_pv, D.22067
	movzbl	(%rax), %eax	# *_32, D.22068
	cmpb	$48, %al	#, D.22068
	je	.L386	#,
.L387:
	.loc 1 2508 0 discriminator 5
	movl	$1, %eax	#, iftmp.194
	jmp	.L388	#
.L386:
	.loc 1 2508 0 discriminator 4
	movl	$0, %eax	#, iftmp.194
.L388:
	jmp	.L394	#
.L385:
	.loc 1 2508 0 discriminator 2
	movl	$1, %esi	#,
	movl	$.LC5, %edi	#,
	call	Perl_get_sv	#
	movl	12(%rax), %eax	# _37->sv_flags, D.22065
	andl	$65536, %eax	#, D.22065
	testl	%eax, %eax	# D.22065
	je	.L390	#,
	.loc 1 2508 0 discriminator 8
	movl	$1, %esi	#,
	movl	$.LC5, %edi	#,
	call	Perl_get_sv	#
	movq	(%rax), %rax	# _40->sv_any, D.22069
	movq	24(%rax), %rax	# MEM[(struct XPVIV *)_41].xiv_iv, D.22070
	testq	%rax, %rax	# D.22070
	setne	%al	#, D.22071
	movzbl	%al, %eax	# D.22071, iftmp.200
	jmp	.L394	#
.L390:
	.loc 1 2508 0 discriminator 9
	movl	$1, %esi	#,
	movl	$.LC5, %edi	#,
	call	Perl_get_sv	#
	movl	12(%rax), %eax	# _45->sv_flags, D.22065
	andl	$131072, %eax	#, D.22065
	testl	%eax, %eax	# D.22065
	je	.L392	#,
	.loc 1 2508 0 discriminator 10
	movl	$1, %esi	#,
	movl	$.LC5, %edi	#,
	call	Perl_get_sv	#
	movq	(%rax), %rax	# _48->sv_any, D.22069
	movsd	32(%rax), %xmm0	# MEM[(struct XPVNV *)_49].xnv_nv, D.22072
	xorpd	%xmm1, %xmm1	# tmp478
	ucomisd	%xmm1, %xmm0	# tmp478, D.22072
	setp	%dl	#, tmp477
	movl	$1, %eax	#, tmp480
	xorpd	%xmm1, %xmm1	# tmp479
	ucomisd	%xmm1, %xmm0	# tmp479, D.22072
	cmove	%edx, %eax	# tmp477,, D.22071
	movzbl	%al, %eax	# D.22071, iftmp.201
	jmp	.L394	#
.L392:
	.loc 1 2508 0 discriminator 11
	movl	$1, %esi	#,
	movl	$.LC5, %edi	#,
	call	Perl_get_sv	#
	movq	%rax, %rdi	# D.22064,
	call	Perl_sv_2bool	#
	testb	%al, %al	# D.22068
	setne	%al	#, D.22071
	movzbl	%al, %eax	# D.22071, iftmp.201
	jmp	.L394	#
.L384:
	.loc 1 2508 0 discriminator 2
	movl	$0, %eax	#, iftmp.192
.L394:
	.loc 1 2507 0 is_stmt 1
	movq	-136(%rbp), %rdx	# cxt, tmp481
	movl	%eax, 92(%rdx)	# iftmp.192, cxt_17(D)->deparse
	movq	-136(%rbp), %rax	# cxt, tmp482
	movl	92(%rax), %eax	# cxt_17(D)->deparse, D.22063
	testl	%eax, %eax	# D.22063
	jne	.L383	#,
.L382:
	.loc 1 2510 0
	movq	-144(%rbp), %rdx	# cv, tmp483
	movq	-136(%rbp), %rax	# cxt, tmp484
	movq	%rdx, %rsi	# tmp483,
	movq	%rax, %rdi	# tmp484,
	call	store_other	#
	jmp	.L452	#
.L383:
	.loc 1 2518 0
	movabsq	$4603669611090668421, %rax	#, tmp485
	movq	%rax, -152(%rbp)	# tmp485, %sfp
	movsd	-152(%rbp), %xmm0	# %sfp,
	call	Perl_newSVnv	#
	movq	%rax, %r12	#, D.22064
	movl	$10, %esi	#,
	movl	$.LC7, %edi	#,
	call	Perl_newSVpvn	#
	movq	%r12, %rdx	# D.22064,
	movq	%rax, %rsi	# D.22064,
	movl	$2, %edi	#,
	movl	$0, %eax	#,
	call	Perl_load_module	#
	.loc 1 2520 0
	call	Perl_push_scope	#
	.loc 1 2521 0
	movl	$PL_tmps_floor, %edi	#,
	call	Perl_save_int	#
	movl	PL_tmps_ix(%rip), %eax	# PL_tmps_ix, PL_tmps_ix.202
	movl	%eax, PL_tmps_floor(%rip)	# PL_tmps_ix.202, PL_tmps_floor
.LBB114:
	.loc 1 2527 0
	movq	PL_markstack_ptr(%rip), %rax	# PL_markstack_ptr, PL_markstack_ptr.203
	addq	$4, %rax	#, PL_markstack_ptr.204
	movq	%rax, PL_markstack_ptr(%rip)	# PL_markstack_ptr.204, PL_markstack_ptr
	movq	PL_markstack_ptr(%rip), %rdx	# PL_markstack_ptr, PL_markstack_ptr.205
	movq	PL_markstack_max(%rip), %rax	# PL_markstack_max, PL_markstack_max.206
	cmpq	%rax, %rdx	# PL_markstack_max.206, PL_markstack_ptr.205
	jne	.L396	#,
	.loc 1 2527 0 is_stmt 0 discriminator 1
	call	Perl_markstack_grow	#
.L396:
	.loc 1 2527 0 discriminator 2
	movq	PL_markstack_ptr(%rip), %rax	# PL_markstack_ptr, PL_markstack_ptr.207
	movq	%rbx, %rcx	# sp, sp.208
	movq	PL_stack_base(%rip), %rdx	# PL_stack_base, PL_stack_base.209
	subq	%rdx, %rcx	# PL_stack_base.210, D.22070
	movq	%rcx, %rdx	# D.22070, D.22070
	sarq	$3, %rdx	#, tmp486
	movl	%edx, (%rax)	# D.22063, *PL_markstack_ptr.207_69
.LBE114:
.LBB115:
	.loc 1 2528 0 is_stmt 1 discriminator 2
	movq	PL_stack_max(%rip), %rax	# PL_stack_max, PL_stack_max.211
	movq	%rax, %rdx	# PL_stack_max.211, PL_stack_max.212
	movq	%rbx, %rax	# sp, sp.213
	subq	%rax, %rdx	# sp.213, D.22070
	movq	%rdx, %rax	# D.22070, D.22070
	cmpq	$7, %rax	#, D.22070
	jg	.L397	#,
	.loc 1 2528 0 is_stmt 0 discriminator 1
	movl	$1, %edx	#,
	movq	%rbx, %rsi	# sp,
	movq	%rbx, %rdi	# sp,
	call	Perl_stack_grow	#
	movq	%rax, %rbx	#, sp
.L397:
	.loc 1 2528 0 discriminator 2
	addq	$8, %rbx	#, sp
	movl	$10, %esi	#,
	movl	$.LC7, %edi	#,
	call	Perl_newSVpvn	#
	movq	%rax, %rdi	# D.22064,
	call	Perl_sv_2mortal	#
	movq	%rax, (%rbx)	# D.22064, *sp_82
.LBE115:
	.loc 1 2529 0 is_stmt 1 discriminator 2
	movq	%rbx, PL_stack_sp(%rip)	# sp, PL_stack_sp
	.loc 1 2530 0 discriminator 2
	movl	$0, %esi	#,
	movl	$.LC8, %edi	#,
	call	Perl_call_method	#
	movl	%eax, -104(%rbp)	# tmp487, count
	.loc 1 2531 0 discriminator 2
	movq	PL_stack_sp(%rip), %rbx	# PL_stack_sp, sp
	.loc 1 2532 0 discriminator 2
	cmpl	$1, -104(%rbp)	#, count
	je	.L398	#,
.LBB116:
	.loc 1 2533 0
	movq	-136(%rbp), %rax	# cxt, tmp488
	movl	$1, 112(%rax)	#, cxt_17(D)->s_dirty
	movl	$.LC9, %edi	#,
	movl	$0, %eax	#,
	call	Perl_croak	#
.L398:
.LBE116:
	.loc 1 2534 0
	movq	%rbx, %rax	# sp, sp.214
	leaq	-8(%rax), %rbx	#, sp
	movq	(%rax), %rax	# *sp.214_88, tmp489
	movq	%rax, -32(%rbp)	# tmp489, bdeparse
.LBB117:
	.loc 1 2540 0
	movq	PL_markstack_ptr(%rip), %rax	# PL_markstack_ptr, PL_markstack_ptr.215
	addq	$4, %rax	#, PL_markstack_ptr.216
	movq	%rax, PL_markstack_ptr(%rip)	# PL_markstack_ptr.216, PL_markstack_ptr
	movq	PL_markstack_ptr(%rip), %rdx	# PL_markstack_ptr, PL_markstack_ptr.217
	movq	PL_markstack_max(%rip), %rax	# PL_markstack_max, PL_markstack_max.218
	cmpq	%rax, %rdx	# PL_markstack_max.218, PL_markstack_ptr.217
	jne	.L399	#,
	.loc 1 2540 0 is_stmt 0 discriminator 1
	call	Perl_markstack_grow	#
.L399:
	.loc 1 2540 0 discriminator 2
	movq	PL_markstack_ptr(%rip), %rax	# PL_markstack_ptr, PL_markstack_ptr.219
	movq	%rbx, %rcx	# sp, sp.220
	movq	PL_stack_base(%rip), %rdx	# PL_stack_base, PL_stack_base.221
	subq	%rdx, %rcx	# PL_stack_base.222, D.22070
	movq	%rcx, %rdx	# D.22070, D.22070
	sarq	$3, %rdx	#, tmp490
	movl	%edx, (%rax)	# D.22063, *PL_markstack_ptr.219_95
.LBE117:
.LBB118:
	.loc 1 2541 0 is_stmt 1 discriminator 2
	movq	PL_stack_max(%rip), %rax	# PL_stack_max, PL_stack_max.223
	movq	%rax, %rdx	# PL_stack_max.223, PL_stack_max.224
	movq	%rbx, %rax	# sp, sp.225
	subq	%rax, %rdx	# sp.225, D.22070
	movq	%rdx, %rax	# D.22070, D.22070
	cmpq	$7, %rax	#, D.22070
	jg	.L400	#,
	.loc 1 2541 0 is_stmt 0 discriminator 1
	movl	$1, %edx	#,
	movq	%rbx, %rsi	# sp,
	movq	%rbx, %rdi	# sp,
	call	Perl_stack_grow	#
	movq	%rax, %rbx	#, sp
.L400:
	.loc 1 2541 0 discriminator 2
	addq	$8, %rbx	#, sp
	movq	-32(%rbp), %rax	# bdeparse, tmp491
	movq	%rax, (%rbx)	# tmp491, *sp_108
.LBE118:
.LBB119:
	.loc 1 2542 0 is_stmt 1 discriminator 2
	movq	PL_stack_max(%rip), %rax	# PL_stack_max, PL_stack_max.226
	movq	%rax, %rdx	# PL_stack_max.226, PL_stack_max.227
	movq	%rbx, %rax	# sp, sp.228
	subq	%rax, %rdx	# sp.228, D.22070
	movq	%rdx, %rax	# D.22070, D.22070
	cmpq	$7, %rax	#, D.22070
	jg	.L401	#,
	.loc 1 2542 0 is_stmt 0 discriminator 1
	movl	$1, %edx	#,
	movq	%rbx, %rsi	# sp,
	movq	%rbx, %rdi	# sp,
	call	Perl_stack_grow	#
	movq	%rax, %rbx	#, sp
.L401:
	.loc 1 2542 0 discriminator 2
	addq	$8, %rbx	#, sp
	movq	-144(%rbp), %rax	# cv, tmp492
	movq	%rax, %rdi	# tmp492,
	call	Perl_newRV	#
	movq	%rax, %rdi	# D.22064,
	call	Perl_sv_2mortal	#
	movq	%rax, (%rbx)	# D.22064, *sp_115
.LBE119:
	.loc 1 2543 0 is_stmt 1 discriminator 2
	movq	%rbx, PL_stack_sp(%rip)	# sp, PL_stack_sp
	.loc 1 2544 0 discriminator 2
	movl	$0, %esi	#,
	movl	$.LC10, %edi	#,
	call	Perl_call_method	#
	movl	%eax, -104(%rbp)	# tmp493, count
	.loc 1 2545 0 discriminator 2
	movq	PL_stack_sp(%rip), %rbx	# PL_stack_sp, sp
	.loc 1 2546 0 discriminator 2
	cmpl	$1, -104(%rbp)	#, count
	je	.L402	#,
.LBB120:
	.loc 1 2547 0
	movq	-136(%rbp), %rax	# cxt, tmp494
	movl	$1, 112(%rax)	#, cxt_17(D)->s_dirty
	movl	$.LC11, %edi	#,
	movl	$0, %eax	#,
	call	Perl_croak	#
.L402:
.LBE120:
	.loc 1 2549 0
	movq	%rbx, %rax	# sp, sp.229
	leaq	-8(%rax), %rbx	#, sp
	movq	(%rax), %rax	# *sp.229_122, tmp495
	movq	%rax, -24(%rbp)	# tmp495, text
	.loc 1 2550 0
	movq	-24(%rbp), %rax	# text, tmp496
	movq	(%rax), %rax	# text_124->sv_any, D.22069
	movq	16(%rax), %rax	# MEM[(struct XPV *)_125].xpv_len, D.22066
	movl	%eax, -112(%rbp)	# len.230, len
	.loc 1 2551 0
	movq	-24(%rbp), %rax	# text, tmp497
	movl	12(%rax), %eax	# text_124->sv_flags, D.22065
	andl	$262144, %eax	#, D.22065
	testl	%eax, %eax	# D.22065
	je	.L403	#,
	.loc 1 2551 0 is_stmt 0 discriminator 1
	movq	-24(%rbp), %rax	# text, tmp498
	movq	(%rax), %rax	# text_124->sv_any, D.22069
	movq	(%rax), %rax	# MEM[(struct XPV *)_130].xpv_pv, iftmp.231
	jmp	.L404	#
.L403:
	.loc 1 2551 0 discriminator 2
	movq	-24(%rbp), %rax	# text, tmp499
	movq	%rax, %rdi	# tmp499,
	call	Perl_sv_2pv_nolen	#
.L404:
	.loc 1 2551 0 discriminator 3
	movq	%rax, %rdi	# iftmp.231,
	call	strlen	#
	movl	%eax, -100(%rbp)	# D.22066, reallen
	.loc 1 2558 0 is_stmt 1 discriminator 3
	movl	-112(%rbp), %eax	# len, len.232
	testl	%eax, %eax	# len.232
	je	.L405	#,
	.loc 1 2558 0 is_stmt 0 discriminator 1
	movq	-24(%rbp), %rax	# text, tmp500
	movl	12(%rax), %eax	# text_124->sv_flags, D.22065
	andl	$262144, %eax	#, D.22065
	testl	%eax, %eax	# D.22065
	je	.L406	#,
	movq	-24(%rbp), %rax	# text, tmp501
	movq	(%rax), %rax	# text_124->sv_any, D.22069
	movq	(%rax), %rax	# MEM[(struct XPV *)_138].xpv_pv, iftmp.233
	jmp	.L407	#
.L406:
	.loc 1 2558 0 discriminator 2
	movq	-24(%rbp), %rax	# text, tmp502
	movq	%rax, %rdi	# tmp502,
	call	Perl_sv_2pv_nolen	#
.L407:
	.loc 1 2558 0 discriminator 3
	movl	-100(%rbp), %edx	# reallen, tmp503
	movslq	%edx, %rdx	# tmp503, D.22074
	subq	$1, %rdx	#, D.22074
	addq	%rdx, %rax	# D.22074, D.22067
	movzbl	(%rax), %eax	# *_143, D.22068
	cmpb	$59, %al	#, D.22068
	jne	.L408	#,
.L405:
.LBB121:
	.loc 1 2559 0 is_stmt 1
	movq	-136(%rbp), %rax	# cxt, tmp504
	movl	$1, 112(%rax)	#, cxt_17(D)->s_dirty
	movl	$.LC12, %edi	#,
	movl	$0, %eax	#,
	call	Perl_croak	#
.L408:
.LBE121:
	.loc 1 2566 0
	movq	-136(%rbp), %rax	# cxt, tmp505
	movq	216(%rax), %rax	# cxt_17(D)->fio, D.22075
	testq	%rax, %rax	# D.22075
	jne	.L409	#,
	.loc 1 2566 0 is_stmt 0 discriminator 1
	movq	-136(%rbp), %rax	# cxt, tmp506
	movq	168(%rax), %rdx	# cxt_17(D)->membuf.aptr, D.22067
	movq	-136(%rbp), %rax	# cxt, tmp507
	movq	176(%rax), %rax	# cxt_17(D)->membuf.aend, D.22067
	cmpq	%rax, %rdx	# D.22067, D.22067
	jae	.L410	#,
	movq	-136(%rbp), %rax	# cxt, tmp508
	movq	168(%rax), %rax	# cxt_17(D)->membuf.aptr, D.22067
	leaq	1(%rax), %rcx	#, D.22067
	movq	-136(%rbp), %rdx	# cxt, tmp509
	movq	%rcx, 168(%rdx)	# D.22067, cxt_17(D)->membuf.aptr
	movb	$26, (%rax)	#, *_149
	jmp	.L412	#
.L410:
.LBB122:
	.loc 1 2566 0 discriminator 2
	movq	-136(%rbp), %rax	# cxt, tmp510
	movq	160(%rax), %rax	# cxt_17(D)->membuf.asiz, D.22066
	addl	$8192, %eax	#, D.22076
	andl	$-8192, %eax	#, tmp511
	movl	%eax, -96(%rbp)	# tmp511, nsz
	movq	-136(%rbp), %rax	# cxt, tmp512
	movq	168(%rax), %rax	# cxt_17(D)->membuf.aptr, D.22067
	movq	%rax, %rdx	# D.22067, D.22070
	movq	-136(%rbp), %rax	# cxt, tmp513
	movq	152(%rax), %rax	# cxt_17(D)->membuf.arena, D.22067
	subq	%rax, %rdx	# D.22070, D.22070
	movq	%rdx, %rax	# D.22070, D.22070
	movl	%eax, -92(%rbp)	# D.22070, offset
	movl	-96(%rbp), %eax	# nsz, tmp514
	movslq	%eax, %rdx	# tmp514, D.22066
	movq	-136(%rbp), %rax	# cxt, tmp515
	movq	152(%rax), %rax	# cxt_17(D)->membuf.arena, D.22067
	movq	%rdx, %rsi	# D.22066,
	movq	%rax, %rdi	# D.22067,
	call	Perl_safesysrealloc	#
	movq	-136(%rbp), %rdx	# cxt, tmp516
	movq	%rax, 152(%rdx)	# D.22069, cxt_17(D)->membuf.arena
	movl	-96(%rbp), %eax	# nsz, tmp517
	movslq	%eax, %rdx	# tmp517, D.22066
	movq	-136(%rbp), %rax	# cxt, tmp518
	movq	%rdx, 160(%rax)	# D.22066, cxt_17(D)->membuf.asiz
	movq	-136(%rbp), %rax	# cxt, tmp519
	movq	152(%rax), %rdx	# cxt_17(D)->membuf.arena, D.22067
	movl	-92(%rbp), %eax	# offset, tmp520
	cltq
	addq	%rax, %rdx	# D.22074, D.22067
	movq	-136(%rbp), %rax	# cxt, tmp521
	movq	%rdx, 168(%rax)	# D.22067, cxt_17(D)->membuf.aptr
	movq	-136(%rbp), %rax	# cxt, tmp522
	movq	152(%rax), %rdx	# cxt_17(D)->membuf.arena, D.22067
	movl	-96(%rbp), %eax	# nsz, tmp523
	cltq
	addq	%rax, %rdx	# D.22074, D.22067
	movq	-136(%rbp), %rax	# cxt, tmp524
	movq	%rdx, 176(%rax)	# D.22067, cxt_17(D)->membuf.aend
.LBE122:
	movq	-136(%rbp), %rax	# cxt, tmp526
	movq	168(%rax), %rax	# cxt_17(D)->membuf.aptr, D.22067
	leaq	1(%rax), %rcx	#, D.22067
	movq	-136(%rbp), %rdx	# cxt, tmp527
	movq	%rcx, 168(%rdx)	# D.22067, cxt_17(D)->membuf.aptr
	movb	$26, (%rax)	#, *_174
	jmp	.L412	#
.L409:
	movq	-136(%rbp), %rax	# cxt, tmp528
	movq	216(%rax), %rax	# cxt_17(D)->fio, D.22075
	movl	$26, %esi	#,
	movq	%rax, %rdi	# D.22075,
	call	PerlIO_putc	#
	cmpl	$-1, %eax	#, D.22063
	jne	.L412	#,
	.loc 1 2566 0 discriminator 1
	movl	$-1, %eax	#, D.22063
	jmp	.L452	#
.L412:
	.loc 1 2567 0 is_stmt 1
	movq	-136(%rbp), %rax	# cxt, tmp529
	movq	64(%rax), %rax	# cxt_17(D)->tagnum, D.22070
	leaq	1(%rax), %rdx	#, D.22070
	movq	-136(%rbp), %rax	# cxt, tmp530
	movq	%rdx, 64(%rax)	# D.22070, cxt_17(D)->tagnum
	.loc 1 2575 0
	movl	-112(%rbp), %eax	# len, len.234
	cmpl	$255, %eax	#, len.234
	jg	.L413	#,
.LBB123:
	.loc 1 2575 0 is_stmt 0 discriminator 1
	movl	-112(%rbp), %eax	# len, len.235
	movb	%al, -113(%rbp)	# len.235, clen
	movq	-136(%rbp), %rax	# cxt, tmp531
	movq	216(%rax), %rax	# cxt_17(D)->fio, D.22075
	testq	%rax, %rax	# D.22075
	jne	.L414	#,
	movq	-136(%rbp), %rax	# cxt, tmp532
	movq	168(%rax), %rdx	# cxt_17(D)->membuf.aptr, D.22067
	movq	-136(%rbp), %rax	# cxt, tmp533
	movq	176(%rax), %rax	# cxt_17(D)->membuf.aend, D.22067
	cmpq	%rax, %rdx	# D.22067, D.22067
	jae	.L415	#,
	movq	-136(%rbp), %rax	# cxt, tmp534
	movq	168(%rax), %rax	# cxt_17(D)->membuf.aptr, D.22067
	leaq	1(%rax), %rcx	#, D.22067
	movq	-136(%rbp), %rdx	# cxt, tmp535
	movq	%rcx, 168(%rdx)	# D.22067, cxt_17(D)->membuf.aptr
	movb	$10, (%rax)	#, *_188
	jmp	.L417	#
.L415:
.LBB124:
	.loc 1 2575 0 discriminator 2
	movq	-136(%rbp), %rax	# cxt, tmp536
	movq	160(%rax), %rax	# cxt_17(D)->membuf.asiz, D.22066
	addl	$8192, %eax	#, D.22076
	andl	$-8192, %eax	#, tmp537
	movl	%eax, -88(%rbp)	# tmp537, nsz
	movq	-136(%rbp), %rax	# cxt, tmp538
	movq	168(%rax), %rax	# cxt_17(D)->membuf.aptr, D.22067
	movq	%rax, %rdx	# D.22067, D.22070
	movq	-136(%rbp), %rax	# cxt, tmp539
	movq	152(%rax), %rax	# cxt_17(D)->membuf.arena, D.22067
	subq	%rax, %rdx	# D.22070, D.22070
	movq	%rdx, %rax	# D.22070, D.22070
	movl	%eax, -84(%rbp)	# D.22070, offset
	movl	-88(%rbp), %eax	# nsz, tmp540
	movslq	%eax, %rdx	# tmp540, D.22066
	movq	-136(%rbp), %rax	# cxt, tmp541
	movq	152(%rax), %rax	# cxt_17(D)->membuf.arena, D.22067
	movq	%rdx, %rsi	# D.22066,
	movq	%rax, %rdi	# D.22067,
	call	Perl_safesysrealloc	#
	movq	-136(%rbp), %rdx	# cxt, tmp542
	movq	%rax, 152(%rdx)	# D.22069, cxt_17(D)->membuf.arena
	movl	-88(%rbp), %eax	# nsz, tmp543
	movslq	%eax, %rdx	# tmp543, D.22066
	movq	-136(%rbp), %rax	# cxt, tmp544
	movq	%rdx, 160(%rax)	# D.22066, cxt_17(D)->membuf.asiz
	movq	-136(%rbp), %rax	# cxt, tmp545
	movq	152(%rax), %rdx	# cxt_17(D)->membuf.arena, D.22067
	movl	-84(%rbp), %eax	# offset, tmp546
	cltq
	addq	%rax, %rdx	# D.22074, D.22067
	movq	-136(%rbp), %rax	# cxt, tmp547
	movq	%rdx, 168(%rax)	# D.22067, cxt_17(D)->membuf.aptr
	movq	-136(%rbp), %rax	# cxt, tmp548
	movq	152(%rax), %rdx	# cxt_17(D)->membuf.arena, D.22067
	movl	-88(%rbp), %eax	# nsz, tmp549
	cltq
	addq	%rax, %rdx	# D.22074, D.22067
	movq	-136(%rbp), %rax	# cxt, tmp550
	movq	%rdx, 176(%rax)	# D.22067, cxt_17(D)->membuf.aend
.LBE124:
	movq	-136(%rbp), %rax	# cxt, tmp552
	movq	168(%rax), %rax	# cxt_17(D)->membuf.aptr, D.22067
	leaq	1(%rax), %rcx	#, D.22067
	movq	-136(%rbp), %rdx	# cxt, tmp553
	movq	%rcx, 168(%rdx)	# D.22067, cxt_17(D)->membuf.aptr
	movb	$10, (%rax)	#, *_213
	jmp	.L417	#
.L414:
	movq	-136(%rbp), %rax	# cxt, tmp554
	movq	216(%rax), %rax	# cxt_17(D)->fio, D.22075
	movl	$10, %esi	#,
	movq	%rax, %rdi	# D.22075,
	call	PerlIO_putc	#
	cmpl	$-1, %eax	#, D.22063
	jne	.L417	#,
	.loc 1 2575 0 discriminator 1
	movl	$-1, %eax	#, D.22063
	jmp	.L452	#
.L417:
	.loc 1 2575 0 discriminator 2
	movq	-136(%rbp), %rax	# cxt, tmp555
	movq	216(%rax), %rax	# cxt_17(D)->fio, D.22075
	testq	%rax, %rax	# D.22075
	jne	.L418	#,
	.loc 1 2575 0 discriminator 1
	movq	-136(%rbp), %rax	# cxt, tmp556
	movq	168(%rax), %rdx	# cxt_17(D)->membuf.aptr, D.22067
	movq	-136(%rbp), %rax	# cxt, tmp557
	movq	176(%rax), %rax	# cxt_17(D)->membuf.aend, D.22067
	cmpq	%rax, %rdx	# D.22067, D.22067
	jae	.L419	#,
	movq	-136(%rbp), %rax	# cxt, tmp558
	movq	168(%rax), %rax	# cxt_17(D)->membuf.aptr, D.22067
	leaq	1(%rax), %rcx	#, D.22067
	movq	-136(%rbp), %rdx	# cxt, tmp559
	movq	%rcx, 168(%rdx)	# D.22067, cxt_17(D)->membuf.aptr
	movzbl	-113(%rbp), %edx	# clen, clen.236
	movb	%dl, (%rax)	# clen.236, *_222
	jmp	.L421	#
.L419:
.LBB125:
	.loc 1 2575 0 discriminator 2
	movq	-136(%rbp), %rax	# cxt, tmp560
	movq	160(%rax), %rax	# cxt_17(D)->membuf.asiz, D.22066
	addl	$8192, %eax	#, D.22076
	andl	$-8192, %eax	#, tmp561
	movl	%eax, -80(%rbp)	# tmp561, nsz
	movq	-136(%rbp), %rax	# cxt, tmp562
	movq	168(%rax), %rax	# cxt_17(D)->membuf.aptr, D.22067
	movq	%rax, %rdx	# D.22067, D.22070
	movq	-136(%rbp), %rax	# cxt, tmp563
	movq	152(%rax), %rax	# cxt_17(D)->membuf.arena, D.22067
	subq	%rax, %rdx	# D.22070, D.22070
	movq	%rdx, %rax	# D.22070, D.22070
	movl	%eax, -76(%rbp)	# D.22070, offset
	movl	-80(%rbp), %eax	# nsz, tmp564
	movslq	%eax, %rdx	# tmp564, D.22066
	movq	-136(%rbp), %rax	# cxt, tmp565
	movq	152(%rax), %rax	# cxt_17(D)->membuf.arena, D.22067
	movq	%rdx, %rsi	# D.22066,
	movq	%rax, %rdi	# D.22067,
	call	Perl_safesysrealloc	#
	movq	-136(%rbp), %rdx	# cxt, tmp566
	movq	%rax, 152(%rdx)	# D.22069, cxt_17(D)->membuf.arena
	movl	-80(%rbp), %eax	# nsz, tmp567
	movslq	%eax, %rdx	# tmp567, D.22066
	movq	-136(%rbp), %rax	# cxt, tmp568
	movq	%rdx, 160(%rax)	# D.22066, cxt_17(D)->membuf.asiz
	movq	-136(%rbp), %rax	# cxt, tmp569
	movq	152(%rax), %rdx	# cxt_17(D)->membuf.arena, D.22067
	movl	-76(%rbp), %eax	# offset, tmp570
	cltq
	addq	%rax, %rdx	# D.22074, D.22067
	movq	-136(%rbp), %rax	# cxt, tmp571
	movq	%rdx, 168(%rax)	# D.22067, cxt_17(D)->membuf.aptr
	movq	-136(%rbp), %rax	# cxt, tmp572
	movq	152(%rax), %rdx	# cxt_17(D)->membuf.arena, D.22067
	movl	-80(%rbp), %eax	# nsz, tmp573
	cltq
	addq	%rax, %rdx	# D.22074, D.22067
	movq	-136(%rbp), %rax	# cxt, tmp574
	movq	%rdx, 176(%rax)	# D.22067, cxt_17(D)->membuf.aend
.LBE125:
	movq	-136(%rbp), %rax	# cxt, tmp576
	movq	168(%rax), %rax	# cxt_17(D)->membuf.aptr, D.22067
	leaq	1(%rax), %rcx	#, D.22067
	movq	-136(%rbp), %rdx	# cxt, tmp577
	movq	%rcx, 168(%rdx)	# D.22067, cxt_17(D)->membuf.aptr
	movzbl	-113(%rbp), %edx	# clen, clen.237
	movb	%dl, (%rax)	# clen.237, *_248
	jmp	.L421	#
.L418:
	movzbl	-113(%rbp), %edx	# clen, D.22063
	movq	-136(%rbp), %rax	# cxt, tmp578
	movq	216(%rax), %rax	# cxt_17(D)->fio, D.22075
	movl	%edx, %esi	# D.22063,
	movq	%rax, %rdi	# D.22075,
	call	PerlIO_putc	#
	cmpl	$-1, %eax	#, D.22063
	jne	.L421	#,
	.loc 1 2575 0 discriminator 1
	movl	$-1, %eax	#, D.22063
	jmp	.L452	#
.L421:
	.loc 1 2575 0 discriminator 2
	movl	-112(%rbp), %eax	# len, len.238
	testl	%eax, %eax	# len.238
	je	.L422	#,
	.loc 1 2575 0 discriminator 1
	movq	-136(%rbp), %rax	# cxt, tmp579
	movq	216(%rax), %rax	# cxt_17(D)->fio, D.22075
	testq	%rax, %rax	# D.22075
	jne	.L423	#,
.LBB126:
	movq	-136(%rbp), %rax	# cxt, tmp580
	movq	168(%rax), %rdx	# cxt_17(D)->membuf.aptr, D.22067
	movl	-112(%rbp), %eax	# len, len.239
	cltq
	addq	%rax, %rdx	# D.22074, D.22067
	movq	-136(%rbp), %rax	# cxt, tmp581
	movq	176(%rax), %rax	# cxt_17(D)->membuf.aend, D.22067
	cmpq	%rax, %rdx	# D.22067, D.22067
	jbe	.L424	#,
.LBB127:
	movq	-136(%rbp), %rax	# cxt, tmp582
	movq	160(%rax), %rax	# cxt_17(D)->membuf.asiz, D.22066
	movl	%eax, %edx	# D.22066, D.22076
	movl	-112(%rbp), %eax	# len, len.240
	addl	%edx, %eax	# D.22076, D.22076
	addl	$8191, %eax	#, D.22076
	andl	$-8192, %eax	#, tmp583
	movl	%eax, -72(%rbp)	# tmp583, nsz
	movq	-136(%rbp), %rax	# cxt, tmp584
	movq	168(%rax), %rax	# cxt_17(D)->membuf.aptr, D.22067
	movq	%rax, %rdx	# D.22067, D.22070
	movq	-136(%rbp), %rax	# cxt, tmp585
	movq	152(%rax), %rax	# cxt_17(D)->membuf.arena, D.22067
	subq	%rax, %rdx	# D.22070, D.22070
	movq	%rdx, %rax	# D.22070, D.22070
	movl	%eax, -68(%rbp)	# D.22070, offset
	movl	-72(%rbp), %eax	# nsz, tmp586
	movslq	%eax, %rdx	# tmp586, D.22066
	movq	-136(%rbp), %rax	# cxt, tmp587
	movq	152(%rax), %rax	# cxt_17(D)->membuf.arena, D.22067
	movq	%rdx, %rsi	# D.22066,
	movq	%rax, %rdi	# D.22067,
	call	Perl_safesysrealloc	#
	movq	-136(%rbp), %rdx	# cxt, tmp588
	movq	%rax, 152(%rdx)	# D.22069, cxt_17(D)->membuf.arena
	movl	-72(%rbp), %eax	# nsz, tmp589
	movslq	%eax, %rdx	# tmp589, D.22066
	movq	-136(%rbp), %rax	# cxt, tmp590
	movq	%rdx, 160(%rax)	# D.22066, cxt_17(D)->membuf.asiz
	movq	-136(%rbp), %rax	# cxt, tmp591
	movq	152(%rax), %rdx	# cxt_17(D)->membuf.arena, D.22067
	movl	-68(%rbp), %eax	# offset, tmp592
	cltq
	addq	%rax, %rdx	# D.22074, D.22067
	movq	-136(%rbp), %rax	# cxt, tmp593
	movq	%rdx, 168(%rax)	# D.22067, cxt_17(D)->membuf.aptr
	movq	-136(%rbp), %rax	# cxt, tmp594
	movq	152(%rax), %rdx	# cxt_17(D)->membuf.arena, D.22067
	movl	-72(%rbp), %eax	# nsz, tmp595
	cltq
	addq	%rax, %rdx	# D.22074, D.22067
	movq	-136(%rbp), %rax	# cxt, tmp596
	movq	%rdx, 176(%rax)	# D.22067, cxt_17(D)->membuf.aend
.L424:
.LBE127:
	.loc 1 2575 0 discriminator 2
	movl	-112(%rbp), %eax	# len, len.242
	movslq	%eax, %rbx	# len.242, D.22066
	movq	-24(%rbp), %rax	# text, tmp598
	movl	12(%rax), %eax	# text_124->sv_flags, D.22065
	andl	$262144, %eax	#, D.22065
	testl	%eax, %eax	# D.22065
	je	.L425	#,
	.loc 1 2575 0 discriminator 1
	movq	-24(%rbp), %rax	# text, tmp599
	movq	(%rax), %rax	# text_124->sv_any, D.22069
	movq	(%rax), %rax	# MEM[(struct XPV *)_291].xpv_pv, iftmp.243
	jmp	.L426	#
.L425:
	.loc 1 2575 0 discriminator 2
	movq	-24(%rbp), %rax	# text, tmp600
	movq	%rax, %rdi	# tmp600,
	call	Perl_sv_2pv_nolen	#
.L426:
	.loc 1 2575 0 discriminator 1
	movq	-136(%rbp), %rdx	# cxt, tmp601
	movq	168(%rdx), %rcx	# cxt_17(D)->membuf.aptr, D.22067
	movq	%rbx, %rdx	# D.22066,
	movq	%rax, %rsi	# iftmp.243,
	movq	%rcx, %rdi	# D.22067,
	call	memcpy	#
	movq	-136(%rbp), %rax	# cxt, tmp602
	movq	168(%rax), %rdx	# cxt_17(D)->membuf.aptr, D.22067
	movl	-112(%rbp), %eax	# len, len.244
	cltq
	addq	%rax, %rdx	# D.22074, D.22067
	movq	-136(%rbp), %rax	# cxt, tmp603
	movq	%rdx, 168(%rax)	# D.22067, cxt_17(D)->membuf.aptr
.LBE126:
	jmp	.L422	#
.L423:
	.loc 1 2575 0 discriminator 2
	movl	-112(%rbp), %eax	# len, len.245
	movslq	%eax, %rbx	# len.245, D.22066
	movq	-24(%rbp), %rax	# text, tmp605
	movl	12(%rax), %eax	# text_124->sv_flags, D.22065
	andl	$262144, %eax	#, D.22065
	testl	%eax, %eax	# D.22065
	je	.L427	#,
	.loc 1 2575 0 discriminator 1
	movq	-24(%rbp), %rax	# text, tmp606
	movq	(%rax), %rax	# text_124->sv_any, D.22069
	movq	(%rax), %rax	# MEM[(struct XPV *)_304].xpv_pv, iftmp.246
	jmp	.L428	#
.L427:
	.loc 1 2575 0 discriminator 2
	movq	-24(%rbp), %rax	# text, tmp607
	movq	%rax, %rdi	# tmp607,
	call	Perl_sv_2pv_nolen	#
.L428:
	.loc 1 2575 0 discriminator 3
	movq	-136(%rbp), %rdx	# cxt, tmp608
	movq	216(%rdx), %rcx	# cxt_17(D)->fio, D.22075
	movq	%rbx, %rdx	# D.22066,
	movq	%rax, %rsi	# iftmp.246,
	movq	%rcx, %rdi	# D.22075,
	call	Perl_PerlIO_write	#
	movl	-112(%rbp), %edx	# len, len.247
	movslq	%edx, %rdx	# len.247, D.22070
	cmpq	%rdx, %rax	# D.22070, D.22070
	je	.L422	#,
	.loc 1 2575 0 discriminator 1
	movl	$-1, %eax	#, D.22063
	jmp	.L452	#
.L422:
.LBE123:
	jmp	.L429	#
.L413:
	.loc 1 2575 0 discriminator 2
	movq	-136(%rbp), %rax	# cxt, tmp609
	movq	216(%rax), %rax	# cxt_17(D)->fio, D.22075
	testq	%rax, %rax	# D.22075
	jne	.L430	#,
	.loc 1 2575 0 discriminator 1
	movq	-136(%rbp), %rax	# cxt, tmp610
	movq	168(%rax), %rdx	# cxt_17(D)->membuf.aptr, D.22067
	movq	-136(%rbp), %rax	# cxt, tmp611
	movq	176(%rax), %rax	# cxt_17(D)->membuf.aend, D.22067
	cmpq	%rax, %rdx	# D.22067, D.22067
	jae	.L431	#,
	movq	-136(%rbp), %rax	# cxt, tmp612
	movq	168(%rax), %rax	# cxt_17(D)->membuf.aptr, D.22067
	leaq	1(%rax), %rcx	#, D.22067
	movq	-136(%rbp), %rdx	# cxt, tmp613
	movq	%rcx, 168(%rdx)	# D.22067, cxt_17(D)->membuf.aptr
	movb	$1, (%rax)	#, *_316
	jmp	.L433	#
.L431:
.LBB128:
	.loc 1 2575 0 discriminator 2
	movq	-136(%rbp), %rax	# cxt, tmp614
	movq	160(%rax), %rax	# cxt_17(D)->membuf.asiz, D.22066
	addl	$8192, %eax	#, D.22076
	andl	$-8192, %eax	#, tmp615
	movl	%eax, -64(%rbp)	# tmp615, nsz
	movq	-136(%rbp), %rax	# cxt, tmp616
	movq	168(%rax), %rax	# cxt_17(D)->membuf.aptr, D.22067
	movq	%rax, %rdx	# D.22067, D.22070
	movq	-136(%rbp), %rax	# cxt, tmp617
	movq	152(%rax), %rax	# cxt_17(D)->membuf.arena, D.22067
	subq	%rax, %rdx	# D.22070, D.22070
	movq	%rdx, %rax	# D.22070, D.22070
	movl	%eax, -60(%rbp)	# D.22070, offset
	movl	-64(%rbp), %eax	# nsz, tmp618
	movslq	%eax, %rdx	# tmp618, D.22066
	movq	-136(%rbp), %rax	# cxt, tmp619
	movq	152(%rax), %rax	# cxt_17(D)->membuf.arena, D.22067
	movq	%rdx, %rsi	# D.22066,
	movq	%rax, %rdi	# D.22067,
	call	Perl_safesysrealloc	#
	movq	-136(%rbp), %rdx	# cxt, tmp620
	movq	%rax, 152(%rdx)	# D.22069, cxt_17(D)->membuf.arena
	movl	-64(%rbp), %eax	# nsz, tmp621
	movslq	%eax, %rdx	# tmp621, D.22066
	movq	-136(%rbp), %rax	# cxt, tmp622
	movq	%rdx, 160(%rax)	# D.22066, cxt_17(D)->membuf.asiz
	movq	-136(%rbp), %rax	# cxt, tmp623
	movq	152(%rax), %rdx	# cxt_17(D)->membuf.arena, D.22067
	movl	-60(%rbp), %eax	# offset, tmp624
	cltq
	addq	%rax, %rdx	# D.22074, D.22067
	movq	-136(%rbp), %rax	# cxt, tmp625
	movq	%rdx, 168(%rax)	# D.22067, cxt_17(D)->membuf.aptr
	movq	-136(%rbp), %rax	# cxt, tmp626
	movq	152(%rax), %rdx	# cxt_17(D)->membuf.arena, D.22067
	movl	-64(%rbp), %eax	# nsz, tmp627
	cltq
	addq	%rax, %rdx	# D.22074, D.22067
	movq	-136(%rbp), %rax	# cxt, tmp628
	movq	%rdx, 176(%rax)	# D.22067, cxt_17(D)->membuf.aend
.LBE128:
	movq	-136(%rbp), %rax	# cxt, tmp630
	movq	168(%rax), %rax	# cxt_17(D)->membuf.aptr, D.22067
	leaq	1(%rax), %rcx	#, D.22067
	movq	-136(%rbp), %rdx	# cxt, tmp631
	movq	%rcx, 168(%rdx)	# D.22067, cxt_17(D)->membuf.aptr
	movb	$1, (%rax)	#, *_341
	jmp	.L433	#
.L430:
	movq	-136(%rbp), %rax	# cxt, tmp632
	movq	216(%rax), %rax	# cxt_17(D)->fio, D.22075
	movl	$1, %esi	#,
	movq	%rax, %rdi	# D.22075,
	call	PerlIO_putc	#
	cmpl	$-1, %eax	#, D.22063
	jne	.L433	#,
	.loc 1 2575 0 discriminator 1
	movl	$-1, %eax	#, D.22063
	jmp	.L452	#
.L433:
	.loc 1 2575 0 discriminator 2
