	.file	"sv.c"
# GNU C (Ubuntu/Linaro 4.8.1-10ubuntu9) version 4.8.1 (x86_64-linux-gnu)
#	compiled by GNU C version 4.8.1, GMP version 5.1.2, MPFR version 3.1.1-p2, MPC version 1.0.1
# GGC heuristics: --param ggc-min-expand=100 --param ggc-min-heapsize=131072
# options passed:  -imultiarch x86_64-linux-gnu -D SPEC_CPU -D NDEBUG
# -D PERL_CORE -D SPEC_CPU_LP64 -D SPEC_CPU_LINUX_X64 sv.c -mtune=generic
# -march=x86-64 -g -fverbose-asm -fno-strict-aliasing -fstack-protector
# -Wformat -Wformat-security
# options enabled:  -faggressive-loop-optimizations
# -fasynchronous-unwind-tables -fauto-inc-dec -fbranch-count-reg -fcommon
# -fdelete-null-pointer-checks -fdwarf2-cfi-asm -fearly-inlining
# -feliminate-unused-debug-types -ffunction-cse -fgcse-lm -fgnu-runtime
# -fident -finline-atomics -fira-hoist-pressure -fira-share-save-slots
# -fira-share-spill-slots -fivopts -fkeep-static-consts
# -fleading-underscore -fmath-errno -fmerge-debug-strings
# -fmove-loop-invariants -fpeephole -fprefetch-loop-arrays
# -freg-struct-return -fsched-critical-path-heuristic
# -fsched-dep-count-heuristic -fsched-group-heuristic -fsched-interblock
# -fsched-last-insn-heuristic -fsched-rank-heuristic -fsched-spec
# -fsched-spec-insn-heuristic -fsched-stalled-insns-dep -fshow-column
# -fsigned-zeros -fsplit-ivs-in-unroller -fstack-protector
# -fstrict-volatile-bitfields -fsync-libcalls -ftrapping-math
# -ftree-coalesce-vars -ftree-cselim -ftree-forwprop -ftree-loop-if-convert
# -ftree-loop-im -ftree-loop-ivcanon -ftree-loop-optimize
# -ftree-parallelize-loops= -ftree-phiprop -ftree-pta -ftree-reassoc
# -ftree-scev-cprop -ftree-slp-vectorize -ftree-vect-loop-version
# -funit-at-a-time -funwind-tables -fverbose-asm -fzero-initialized-in-bss
# -m128bit-long-double -m64 -m80387 -maccumulate-outgoing-args
# -malign-stringops -mfancy-math-387 -mfp-ret-in-387 -mfxsr -mglibc
# -mieee-fp -mlong-double-80 -mmmx -mno-sse4 -mpush-args -mred-zone -msse
# -msse2 -mtls-direct-seg-refs

	.text
.Ltext0:
	.globl	Perl_sv_add_arena
	.type	Perl_sv_add_arena, @function
Perl_sv_add_arena:
.LFB2:
	.file 1 "sv.c"
	.loc 1 275 0
	.cfi_startproc
	pushq	%rbp	#
	.cfi_def_cfa_offset 16
	.cfi_offset 6, -16
	movq	%rsp, %rbp	#,
	.cfi_def_cfa_register 6
	pushq	%r12	#
	pushq	%rbx	#
	.cfi_offset 12, -24
	.cfi_offset 3, -32
	movq	%rdi, -40(%rbp)	# ptr, ptr
	movl	%esi, -44(%rbp)	# size, size
	movl	%edx, -48(%rbp)	# flags, flags
	.loc 1 276 0
	movq	-40(%rbp), %rax	# ptr, tmp69
	movq	%rax, -24(%rbp)	# tmp69, sva
	.loc 1 281 0
	movq	PL_sv_arenaroot(%rip), %rdx	# PL_sv_arenaroot, PL_sv_arenaroot.0
	movq	-24(%rbp), %rax	# sva, tmp70
	movq	%rdx, (%rax)	# PL_sv_arenaroot.0, sva_3->sv_any
	.loc 1 282 0
	movl	-44(%rbp), %eax	# size, tmp71
	shrl	$4, %eax	#, D.22583
	movl	%eax, %edx	# D.22583, D.22583
	movq	-24(%rbp), %rax	# sva, tmp72
	movl	%edx, 8(%rax)	# D.22583, sva_3->sv_refcnt
	.loc 1 283 0
	movq	-24(%rbp), %rax	# sva, tmp73
	movl	-48(%rbp), %edx	# flags, tmp74
	movl	%edx, 12(%rax)	# tmp74, sva_3->sv_flags
	.loc 1 285 0
	movq	-24(%rbp), %rax	# sva, tmp75
	movq	%rax, PL_sv_arenaroot(%rip)	# tmp75, PL_sv_arenaroot
	.loc 1 286 0
	movq	-24(%rbp), %rax	# sva, tmp76
	addq	$16, %rax	#, PL_sv_root.1
	movq	%rax, PL_sv_root(%rip)	# PL_sv_root.1, PL_sv_root
	.loc 1 288 0
	movq	-24(%rbp), %rax	# sva, tmp77
	movl	8(%rax), %eax	# sva_3->sv_refcnt, D.22583
	subl	$1, %eax	#, D.22583
	movl	%eax, %eax	# D.22583, D.22584
	salq	$4, %rax	#, D.22584
	movq	%rax, %rdx	# D.22584, D.22584
	movq	-24(%rbp), %rax	# sva, tmp78
	leaq	(%rdx,%rax), %r12	#, svend
	.loc 1 289 0
	movq	-24(%rbp), %rax	# sva, tmp79
	leaq	16(%rax), %rbx	#, sv
	.loc 1 290 0
	jmp	.L2	#
.L3:
	.loc 1 291 0
	leaq	16(%rbx), %rax	#, D.22585
	movq	%rax, (%rbx)	# D.22585, sv_1->sv_any
	.loc 1 292 0
	movl	$0, 8(%rbx)	#, sv_1->sv_refcnt
	.loc 1 293 0
	movl	$255, 12(%rbx)	#, sv_1->sv_flags
	.loc 1 294 0
	addq	$16, %rbx	#, sv
.L2:
	.loc 1 290 0 discriminator 1
	cmpq	%r12, %rbx	# svend, sv
	jb	.L3	#,
	.loc 1 296 0
	movq	$0, (%rbx)	#, sv_1->sv_any
	.loc 1 297 0
	movl	$255, 12(%rbx)	#, sv_1->sv_flags
	.loc 1 298 0
	popq	%rbx	#
	popq	%r12	#
	popq	%rbp	#
	.cfi_def_cfa 7, 8
	ret
	.cfi_endproc
.LFE2:
	.size	Perl_sv_add_arena, .-Perl_sv_add_arena
	.type	S_more_sv, @function
S_more_sv:
.LFB3:
	.loc 1 305 0
	.cfi_startproc
	pushq	%rbp	#
	.cfi_def_cfa_offset 16
	.cfi_offset 6, -16
	movq	%rsp, %rbp	#,
	.cfi_def_cfa_register 6
	pushq	%rbx	#
	subq	$24, %rsp	#,
	.cfi_offset 3, -24
	.loc 1 308 0
	movq	PL_nice_chunk(%rip), %rax	# PL_nice_chunk, PL_nice_chunk.2
	testq	%rax, %rax	# PL_nice_chunk.2
	je	.L5	#,
	.loc 1 309 0
	movl	PL_nice_chunk_size(%rip), %ecx	# PL_nice_chunk_size, PL_nice_chunk_size.3
	movq	PL_nice_chunk(%rip), %rax	# PL_nice_chunk, PL_nice_chunk.4
	movl	$0, %edx	#,
	movl	%ecx, %esi	# PL_nice_chunk_size.3,
	movq	%rax, %rdi	# PL_nice_chunk.4,
	call	Perl_sv_add_arena	#
	.loc 1 310 0
	movq	$0, PL_nice_chunk(%rip)	#, PL_nice_chunk
	.loc 1 311 0
	movl	$0, PL_nice_chunk_size(%rip)	#, PL_nice_chunk_size
	jmp	.L6	#
.L5:
.LBB2:
	.loc 1 315 0
	movl	$4080, %edi	#,
	call	Perl_safesysmalloc	#
	movq	%rax, -24(%rbp)	# tmp69, chunk
	.loc 1 316 0
	movq	-24(%rbp), %rax	# chunk, tmp70
	movl	$0, %edx	#,
	movl	$4080, %esi	#,
	movq	%rax, %rdi	# tmp70,
	call	Perl_sv_add_arena	#
.L6:
.LBE2:
.LBB3:
	.loc 1 318 0
	movq	PL_sv_root(%rip), %rbx	# PL_sv_root, sv
	movq	(%rbx), %rax	# sv_5->sv_any, PL_sv_root.5
	movq	%rax, PL_sv_root(%rip)	# PL_sv_root.5, PL_sv_root
	movl	PL_sv_count(%rip), %eax	# PL_sv_count, PL_sv_count.6
	addl	$1, %eax	#, PL_sv_count.7
	movl	%eax, PL_sv_count(%rip)	# PL_sv_count.7, PL_sv_count
.LBE3:
	.loc 1 319 0
	movq	%rbx, %rax	# sv, D.22587
	.loc 1 320 0
	addq	$24, %rsp	#,
	popq	%rbx	#
	popq	%rbp	#
	.cfi_def_cfa 7, 8
	ret
	.cfi_endproc
.LFE3:
	.size	S_more_sv, .-S_more_sv
	.type	S_visit, @function
S_visit:
.LFB4:
	.loc 1 327 0
	.cfi_startproc
	pushq	%rbp	#
	.cfi_def_cfa_offset 16
	.cfi_offset 6, -16
	movq	%rsp, %rbp	#,
	.cfi_def_cfa_register 6
	pushq	%rbx	#
	subq	$56, %rsp	#,
	.cfi_offset 3, -24
	movq	%rdi, -56(%rbp)	# f, f
	movl	%esi, -60(%rbp)	# flags, flags
	movl	%edx, -64(%rbp)	# mask, mask
	.loc 1 331 0
	movl	$0, -36(%rbp)	#, visited
	.loc 1 333 0
	movq	PL_sv_arenaroot(%rip), %rax	# PL_sv_arenaroot, tmp70
	movq	%rax, -32(%rbp)	# tmp70, sva
	jmp	.L9	#
.L13:
	.loc 1 334 0
	movq	-32(%rbp), %rax	# sva, tmp71
	movl	8(%rax), %eax	# sva_1->sv_refcnt, D.22588
	movl	%eax, %eax	# D.22588, D.22589
	salq	$4, %rax	#, D.22589
	movq	%rax, %rdx	# D.22589, D.22589
	movq	-32(%rbp), %rax	# sva, tmp72
	leaq	(%rdx,%rax), %rbx	#, svend
	.loc 1 335 0
	movq	-32(%rbp), %rax	# sva, tmp76
	addq	$16, %rax	#, tmp75
	movq	%rax, -24(%rbp)	# tmp75, sv
	jmp	.L10	#
.L12:
	.loc 1 336 0
	movq	-24(%rbp), %rax	# sv, tmp77
	movl	12(%rax), %eax	# sv_2->sv_flags, D.22588
	movzbl	%al, %eax	# D.22588, D.22588
	cmpl	$255, %eax	#, D.22588
	je	.L11	#,
	.loc 1 337 0
	movq	-24(%rbp), %rax	# sv, tmp78
	movl	12(%rax), %eax	# sv_2->sv_flags, D.22588
	andl	-64(%rbp), %eax	# mask, D.22588
	cmpl	-60(%rbp), %eax	# flags, D.22588
	jne	.L11	#,
	.loc 1 338 0
	movq	-24(%rbp), %rax	# sv, tmp79
	movl	8(%rax), %eax	# sv_2->sv_refcnt, D.22588
	testl	%eax, %eax	# D.22588
	je	.L11	#,
	.loc 1 340 0
	movq	-24(%rbp), %rdx	# sv, tmp80
	movq	-56(%rbp), %rax	# f, tmp81
	movq	%rdx, %rdi	# tmp80,
	call	*%rax	# tmp81
	.loc 1 341 0
	addl	$1, -36(%rbp)	#, visited
.L11:
	.loc 1 335 0
	addq	$16, -24(%rbp)	#, sv
.L10:
	.loc 1 335 0 is_stmt 0 discriminator 1
	cmpq	%rbx, -24(%rbp)	# svend, sv
	jb	.L12	#,
	.loc 1 333 0 is_stmt 1
	movq	-32(%rbp), %rax	# sva, tmp82
	movq	(%rax), %rax	# sva_1->sv_any, tmp83
	movq	%rax, -32(%rbp)	# tmp83, sva
.L9:
	.loc 1 333 0 is_stmt 0 discriminator 1
	cmpq	$0, -32(%rbp)	#, sva
	jne	.L13	#,
	.loc 1 345 0 is_stmt 1
	movl	-36(%rbp), %eax	# visited, D.22590
	.loc 1 346 0
	addq	$56, %rsp	#,
	popq	%rbx	#
	popq	%rbp	#
	.cfi_def_cfa 7, 8
	ret
	.cfi_endproc
.LFE4:
	.size	S_visit, .-S_visit
	.globl	Perl_sv_report_used
	.type	Perl_sv_report_used, @function
Perl_sv_report_used:
.LFB5:
	.loc 1 372 0
	.cfi_startproc
	pushq	%rbp	#
	.cfi_def_cfa_offset 16
	.cfi_offset 6, -16
	movq	%rsp, %rbp	#,
	.cfi_def_cfa_register 6
	.loc 1 376 0
	popq	%rbp	#
	.cfi_def_cfa 7, 8
	ret
	.cfi_endproc
.LFE5:
	.size	Perl_sv_report_used, .-Perl_sv_report_used
	.type	do_clean_objs, @function
do_clean_objs:
.LFB6:
	.loc 1 382 0
	.cfi_startproc
	pushq	%rbp	#
	.cfi_def_cfa_offset 16
	.cfi_offset 6, -16
	movq	%rsp, %rbp	#,
	.cfi_def_cfa_register 6
	subq	$32, %rsp	#,
	movq	%rdi, -24(%rbp)	# sv, sv
	.loc 1 385 0
	movq	-24(%rbp), %rax	# sv, tmp72
	movl	12(%rax), %eax	# sv_1(D)->sv_flags, D.22591
	andl	$524288, %eax	#, D.22591
	testl	%eax, %eax	# D.22591
	je	.L16	#,
	.loc 1 385 0 is_stmt 0 discriminator 1
	movq	-24(%rbp), %rax	# sv, tmp73
	movq	(%rax), %rax	# sv_1(D)->sv_any, D.22592
	movq	(%rax), %rax	# MEM[(struct XRV *)_4].xrv_rv, tmp74
	movq	%rax, -8(%rbp)	# tmp74, rv
	movq	-8(%rbp), %rax	# rv, tmp75
	movl	12(%rax), %eax	# rv_5->sv_flags, D.22591
	andl	$4096, %eax	#, D.22591
	testl	%eax, %eax	# D.22591
	je	.L16	#,
	.loc 1 387 0 is_stmt 1
	movq	-24(%rbp), %rax	# sv, tmp76
	movl	12(%rax), %eax	# sv_1(D)->sv_flags, D.22591
	andl	$-2146959360, %eax	#, D.22591
	cmpl	$-2146959360, %eax	#, D.22591
	jne	.L18	#,
	.loc 1 388 0
	movq	-24(%rbp), %rax	# sv, tmp77
	movq	%rax, %rdi	# tmp77,
	call	S_sv_del_backref	#
	.loc 1 389 0
	movq	-24(%rbp), %rax	# sv, tmp78
	movl	12(%rax), %eax	# sv_1(D)->sv_flags, D.22591
	andl	$2146959359, %eax	#, D.22591
	movl	%eax, %edx	# D.22591, D.22591
	movq	-24(%rbp), %rax	# sv, tmp79
	movl	%edx, 12(%rax)	# D.22591, sv_1(D)->sv_flags
	.loc 1 390 0
	movq	-24(%rbp), %rax	# sv, tmp80
	movq	(%rax), %rax	# sv_1(D)->sv_any, D.22592
	movq	$0, (%rax)	#, MEM[(struct XRV *)_12].xrv_rv
	jmp	.L16	#
.L18:
	.loc 1 392 0
	movq	-24(%rbp), %rax	# sv, tmp81
	movl	12(%rax), %eax	# sv_1(D)->sv_flags, D.22591
	andl	$-268959745, %eax	#, D.22591
	movl	%eax, %edx	# D.22591, D.22591
	movq	-24(%rbp), %rax	# sv, tmp82
	movl	%edx, 12(%rax)	# D.22591, sv_1(D)->sv_flags
	.loc 1 393 0
	movq	-24(%rbp), %rax	# sv, tmp83
	movq	(%rax), %rax	# sv_1(D)->sv_any, D.22592
	movq	$0, (%rax)	#, MEM[(struct XRV *)_15].xrv_rv
	.loc 1 394 0
	movq	-8(%rbp), %rax	# rv, tmp84
	movq	%rax, %rdi	# tmp84,
	call	Perl_sv_free	#
.L16:
	.loc 1 399 0
	leave
	.cfi_def_cfa 7, 8
	ret
	.cfi_endproc
.LFE6:
	.size	do_clean_objs, .-do_clean_objs
	.type	do_clean_named_objs, @function
do_clean_named_objs:
.LFB7:
	.loc 1 406 0
	.cfi_startproc
	pushq	%rbp	#
	.cfi_def_cfa_offset 16
	.cfi_offset 6, -16
	movq	%rsp, %rbp	#,
	.cfi_def_cfa_register 6
	subq	$16, %rsp	#,
	movq	%rdi, -8(%rbp)	# sv, sv
	.loc 1 407 0
	movq	-8(%rbp), %rax	# sv, tmp110
	movl	12(%rax), %eax	# sv_2(D)->sv_flags, D.22593
	movzbl	%al, %eax	# D.22593, D.22593
	cmpl	$13, %eax	#, D.22593
	jne	.L19	#,
	.loc 1 407 0 is_stmt 0 discriminator 1
	movq	-8(%rbp), %rax	# sv, tmp111
	movq	(%rax), %rax	# sv_2(D)->sv_any, D.22594
	movq	56(%rax), %rax	# MEM[(struct XPVGV *)_5].xgv_gp, D.22595
	testq	%rax, %rax	# D.22595
	je	.L19	#,
	.loc 1 408 0 is_stmt 1
	movq	-8(%rbp), %rax	# sv, tmp112
	movq	(%rax), %rax	# sv_2(D)->sv_any, D.22594
	movq	56(%rax), %rax	# MEM[(struct XPVGV *)_7].xgv_gp, D.22595
	movq	(%rax), %rax	# _8->gp_sv, D.22596
	movl	12(%rax), %eax	# _9->sv_flags, D.22593
	andl	$4096, %eax	#, D.22593
	testl	%eax, %eax	# D.22593
	jne	.L21	#,
	.loc 1 409 0 discriminator 1
	movq	-8(%rbp), %rax	# sv, tmp113
	movq	(%rax), %rax	# sv_2(D)->sv_any, D.22594
	movq	56(%rax), %rax	# MEM[(struct XPVGV *)_12].xgv_gp, D.22595
	movq	32(%rax), %rax	# _13->gp_av, D.22597
	.loc 1 408 0 discriminator 1
	testq	%rax, %rax	# D.22597
	je	.L22	#,
	.loc 1 409 0
	movq	-8(%rbp), %rax	# sv, tmp114
	movq	(%rax), %rax	# sv_2(D)->sv_any, D.22594
	movq	56(%rax), %rax	# MEM[(struct XPVGV *)_15].xgv_gp, D.22595
	movq	32(%rax), %rax	# _16->gp_av, D.22597
	movl	12(%rax), %eax	# _17->sv_flags, D.22593
	andl	$4096, %eax	#, D.22593
	testl	%eax, %eax	# D.22593
	jne	.L21	#,
.L22:
	.loc 1 410 0 discriminator 1
	movq	-8(%rbp), %rax	# sv, tmp115
	movq	(%rax), %rax	# sv_2(D)->sv_any, D.22594
	movq	56(%rax), %rax	# MEM[(struct XPVGV *)_20].xgv_gp, D.22595
	movq	40(%rax), %rax	# _21->gp_hv, D.22598
	.loc 1 409 0 discriminator 1
	testq	%rax, %rax	# D.22598
	je	.L23	#,
	.loc 1 410 0
	movq	-8(%rbp), %rax	# sv, tmp116
	movq	(%rax), %rax	# sv_2(D)->sv_any, D.22594
	movq	56(%rax), %rax	# MEM[(struct XPVGV *)_23].xgv_gp, D.22595
	movq	40(%rax), %rax	# _24->gp_hv, D.22598
	movl	12(%rax), %eax	# _25->sv_flags, D.22593
	andl	$4096, %eax	#, D.22593
	testl	%eax, %eax	# D.22593
	jne	.L21	#,
.L23:
	.loc 1 410 0 is_stmt 0 discriminator 1
	cmpq	$0, -8(%rbp)	#, sv
	je	.L24	#,
	.loc 1 411 0 is_stmt 1
	movq	-8(%rbp), %rax	# sv, tmp117
	movl	12(%rax), %eax	# sv_2(D)->sv_flags, D.22593
	movzbl	%al, %eax	# D.22593, D.22593
	cmpl	$13, %eax	#, D.22593
	jne	.L24	#,
	.loc 1 411 0 is_stmt 0 discriminator 1
	movq	-8(%rbp), %rax	# sv, tmp118
	movq	(%rax), %rax	# sv_2(D)->sv_any, D.22594
	movq	56(%rax), %rax	# MEM[(struct XPVGV *)_30].xgv_gp, D.22595
	testq	%rax, %rax	# D.22595
	je	.L24	#,
	movq	-8(%rbp), %rax	# sv, tmp119
	movq	(%rax), %rax	# sv_2(D)->sv_any, D.22594
	movq	56(%rax), %rax	# MEM[(struct XPVGV *)_32].xgv_gp, D.22595
	movq	16(%rax), %rax	# _33->gp_io, D.22599
	testq	%rax, %rax	# D.22599
	je	.L24	#,
	cmpq	$0, -8(%rbp)	#, sv
	je	.L25	#,
	movq	-8(%rbp), %rax	# sv, tmp120
	movl	12(%rax), %eax	# sv_2(D)->sv_flags, D.22593
	movzbl	%al, %eax	# D.22593, D.22593
	cmpl	$13, %eax	#, D.22593
	jne	.L25	#,
	movq	-8(%rbp), %rax	# sv, tmp121
	movq	(%rax), %rax	# sv_2(D)->sv_any, D.22594
	movq	56(%rax), %rax	# MEM[(struct XPVGV *)_37].xgv_gp, D.22595
	testq	%rax, %rax	# D.22595
	je	.L25	#,
	movq	-8(%rbp), %rax	# sv, tmp122
	movq	(%rax), %rax	# sv_2(D)->sv_any, D.22594
	movq	56(%rax), %rax	# MEM[(struct XPVGV *)_39].xgv_gp, D.22595
	movq	16(%rax), %rax	# _40->gp_io, iftmp.8
	jmp	.L26	#
.L25:
	.loc 1 411 0 discriminator 2
	movl	$0, %eax	#, iftmp.8
.L26:
	.loc 1 411 0 discriminator 3
	movl	12(%rax), %eax	# iftmp.8_1->sv_flags, D.22593
	andl	$4096, %eax	#, D.22593
	testl	%eax, %eax	# D.22593
	jne	.L21	#,
.L24:
	.loc 1 412 0 is_stmt 1 discriminator 2
	movq	-8(%rbp), %rax	# sv, tmp123
	movq	(%rax), %rax	# sv_2(D)->sv_any, D.22594
	movq	56(%rax), %rax	# MEM[(struct XPVGV *)_45].xgv_gp, D.22595
	movq	56(%rax), %rax	# _46->gp_cv, D.22600
	.loc 1 411 0 discriminator 2
	testq	%rax, %rax	# D.22600
	je	.L19	#,
	.loc 1 412 0
	movq	-8(%rbp), %rax	# sv, tmp124
	movq	(%rax), %rax	# sv_2(D)->sv_any, D.22594
	movq	56(%rax), %rax	# MEM[(struct XPVGV *)_48].xgv_gp, D.22595
	movq	56(%rax), %rax	# _49->gp_cv, D.22600
	movl	12(%rax), %eax	# _50->sv_flags, D.22593
	andl	$4096, %eax	#, D.22593
	testl	%eax, %eax	# D.22593
	je	.L19	#,
.L21:
	.loc 1 415 0
	movq	-8(%rbp), %rax	# sv, tmp125
	movl	12(%rax), %eax	# sv_2(D)->sv_flags, D.22593
	orl	$4194304, %eax	#, D.22593
	movl	%eax, %edx	# D.22593, D.22593
	movq	-8(%rbp), %rax	# sv, tmp126
	movl	%edx, 12(%rax)	# D.22593, sv_2(D)->sv_flags
	.loc 1 416 0
	movq	-8(%rbp), %rax	# sv, tmp127
	movq	%rax, %rdi	# tmp127,
	call	Perl_sv_free	#
.L19:
	.loc 1 419 0
	leave
	.cfi_def_cfa 7, 8
	ret
	.cfi_endproc
.LFE7:
	.size	do_clean_named_objs, .-do_clean_named_objs
	.globl	Perl_sv_clean_objs
	.type	Perl_sv_clean_objs, @function
Perl_sv_clean_objs:
.LFB8:
	.loc 1 432 0
	.cfi_startproc
	pushq	%rbp	#
	.cfi_def_cfa_offset 16
	.cfi_offset 6, -16
	movq	%rsp, %rbp	#,
	.cfi_def_cfa_register 6
	.loc 1 433 0
	movb	$1, PL_in_clean_objs(%rip)	#, PL_in_clean_objs
	.loc 1 434 0
	movl	$524288, %edx	#,
	movl	$524288, %esi	#,
	movl	$do_clean_objs, %edi	#,
	call	S_visit	#
	.loc 1 437 0
	movl	$255, %edx	#,
	movl	$13, %esi	#,
	movl	$do_clean_named_objs, %edi	#,
	call	S_visit	#
	.loc 1 439 0
	movb	$0, PL_in_clean_objs(%rip)	#, PL_in_clean_objs
	.loc 1 440 0
	popq	%rbp	#
	.cfi_def_cfa 7, 8
	ret
	.cfi_endproc
.LFE8:
	.size	Perl_sv_clean_objs, .-Perl_sv_clean_objs
	.type	do_clean_all, @function
do_clean_all:
.LFB9:
	.loc 1 446 0
	.cfi_startproc
	pushq	%rbp	#
	.cfi_def_cfa_offset 16
	.cfi_offset 6, -16
	movq	%rsp, %rbp	#,
	.cfi_def_cfa_register 6
	subq	$16, %rsp	#,
	movq	%rdi, -8(%rbp)	# sv, sv
	.loc 1 448 0
	movq	-8(%rbp), %rax	# sv, tmp61
	movl	12(%rax), %eax	# sv_1(D)->sv_flags, D.22601
	orl	$4194304, %eax	#, D.22601
	movl	%eax, %edx	# D.22601, D.22601
	movq	-8(%rbp), %rax	# sv, tmp62
	movl	%edx, 12(%rax)	# D.22601, sv_1(D)->sv_flags
	.loc 1 449 0
	movq	-8(%rbp), %rax	# sv, tmp63
	movq	%rax, %rdi	# tmp63,
	call	Perl_sv_free	#
	.loc 1 450 0
	leave
	.cfi_def_cfa 7, 8
	ret
	.cfi_endproc
.LFE9:
	.size	do_clean_all, .-do_clean_all
	.globl	Perl_sv_clean_all
	.type	Perl_sv_clean_all, @function
Perl_sv_clean_all:
.LFB10:
	.loc 1 464 0
	.cfi_startproc
	pushq	%rbp	#
	.cfi_def_cfa_offset 16
	.cfi_offset 6, -16
	movq	%rsp, %rbp	#,
	.cfi_def_cfa_register 6
	subq	$16, %rsp	#,
	.loc 1 466 0
	movb	$1, PL_in_clean_all(%rip)	#, PL_in_clean_all
	.loc 1 467 0
	movl	$0, %edx	#,
	movl	$0, %esi	#,
	movl	$do_clean_all, %edi	#,
	call	S_visit	#
	movl	%eax, -4(%rbp)	# tmp61, cleaned
	.loc 1 468 0
	movb	$0, PL_in_clean_all(%rip)	#, PL_in_clean_all
	.loc 1 469 0
	movl	-4(%rbp), %eax	# cleaned, D.22602
	.loc 1 470 0
	leave
	.cfi_def_cfa 7, 8
	ret
	.cfi_endproc
.LFE10:
	.size	Perl_sv_clean_all, .-Perl_sv_clean_all
	.globl	Perl_sv_free_arenas
	.type	Perl_sv_free_arenas, @function
Perl_sv_free_arenas:
.LFB11:
	.loc 1 483 0
	.cfi_startproc
	pushq	%rbp	#
	.cfi_def_cfa_offset 16
	.cfi_offset 6, -16
	movq	%rsp, %rbp	#,
	.cfi_def_cfa_register 6
	subq	$32, %rsp	#,
	.loc 1 491 0
	movq	PL_sv_arenaroot(%rip), %rax	# PL_sv_arenaroot, tmp65
	movq	%rax, -32(%rbp)	# tmp65, sva
	jmp	.L32	#
.L37:
	.loc 1 492 0
	movq	-32(%rbp), %rax	# sva, tmp66
	movq	(%rax), %rax	# sva_1->sv_any, tmp67
	movq	%rax, -24(%rbp)	# tmp67, svanext
	.loc 1 493 0
	jmp	.L33	#
.L35:
	.loc 1 494 0
	movq	-24(%rbp), %rax	# svanext, tmp68
	movq	(%rax), %rax	# svanext_2->sv_any, tmp69
	movq	%rax, -24(%rbp)	# tmp69, svanext
.L33:
	.loc 1 493 0 discriminator 1
	cmpq	$0, -24(%rbp)	#, svanext
	je	.L34	#,
	.loc 1 493 0 is_stmt 0 discriminator 2
	movq	-24(%rbp), %rax	# svanext, tmp70
	movl	12(%rax), %eax	# svanext_2->sv_flags, D.22603
	andl	$1048576, %eax	#, D.22603
	testl	%eax, %eax	# D.22603
	jne	.L35	#,
.L34:
	.loc 1 496 0 is_stmt 1
	movq	-32(%rbp), %rax	# sva, tmp71
	movl	12(%rax), %eax	# sva_1->sv_flags, D.22603
	andl	$1048576, %eax	#, D.22603
	testl	%eax, %eax	# D.22603
	jne	.L36	#,
	.loc 1 497 0
	movq	-32(%rbp), %rax	# sva, tmp72
	movq	%rax, %rdi	# tmp72,
	call	Perl_safesysfree	#
.L36:
	.loc 1 491 0
	movq	-24(%rbp), %rax	# svanext, tmp73
	movq	%rax, -32(%rbp)	# tmp73, sva
.L32:
	.loc 1 491 0 is_stmt 0 discriminator 1
	cmpq	$0, -32(%rbp)	#, sva
	jne	.L37	#,
	.loc 1 500 0 is_stmt 1
	movq	PL_xiv_arenaroot(%rip), %rax	# PL_xiv_arenaroot, tmp74
	movq	%rax, -16(%rbp)	# tmp74, arena
	jmp	.L38	#
.L39:
	.loc 1 501 0 discriminator 2
	movq	-16(%rbp), %rax	# arena, tmp75
	movq	(%rax), %rax	# arena_3->xpv_pv, tmp76
	movq	%rax, -8(%rbp)	# tmp76, arenanext
	.loc 1 502 0 discriminator 2
	movq	-16(%rbp), %rax	# arena, tmp77
	movq	%rax, %rdi	# tmp77,
	call	Perl_safesysfree	#
	.loc 1 500 0 discriminator 2
	movq	-8(%rbp), %rax	# arenanext, tmp78
	movq	%rax, -16(%rbp)	# tmp78, arena
.L38:
	.loc 1 500 0 is_stmt 0 discriminator 1
	cmpq	$0, -16(%rbp)	#, arena
	jne	.L39	#,
	.loc 1 504 0 is_stmt 1
	movq	$0, PL_xiv_arenaroot(%rip)	#, PL_xiv_arenaroot
	.loc 1 505 0
	movq	$0, PL_xiv_root(%rip)	#, PL_xiv_root
	.loc 1 507 0
	movq	PL_xnv_arenaroot(%rip), %rax	# PL_xnv_arenaroot, tmp79
	movq	%rax, -16(%rbp)	# tmp79, arena
	jmp	.L40	#
.L41:
	.loc 1 508 0 discriminator 2
	movq	-16(%rbp), %rax	# arena, tmp80
	movq	(%rax), %rax	# arena_4->xpv_pv, tmp81
	movq	%rax, -8(%rbp)	# tmp81, arenanext
	.loc 1 509 0 discriminator 2
	movq	-16(%rbp), %rax	# arena, tmp82
	movq	%rax, %rdi	# tmp82,
	call	Perl_safesysfree	#
	.loc 1 507 0 discriminator 2
	movq	-8(%rbp), %rax	# arenanext, tmp83
	movq	%rax, -16(%rbp)	# tmp83, arena
.L40:
	.loc 1 507 0 is_stmt 0 discriminator 1
	cmpq	$0, -16(%rbp)	#, arena
	jne	.L41	#,
	.loc 1 511 0 is_stmt 1
	movq	$0, PL_xnv_arenaroot(%rip)	#, PL_xnv_arenaroot
	.loc 1 512 0
	movq	$0, PL_xnv_root(%rip)	#, PL_xnv_root
	.loc 1 514 0
	movq	PL_xrv_arenaroot(%rip), %rax	# PL_xrv_arenaroot, tmp84
	movq	%rax, -16(%rbp)	# tmp84, arena
	jmp	.L42	#
.L43:
	.loc 1 515 0 discriminator 2
	movq	-16(%rbp), %rax	# arena, tmp85
	movq	(%rax), %rax	# arena_5->xpv_pv, tmp86
	movq	%rax, -8(%rbp)	# tmp86, arenanext
	.loc 1 516 0 discriminator 2
	movq	-16(%rbp), %rax	# arena, tmp87
	movq	%rax, %rdi	# tmp87,
	call	Perl_safesysfree	#
	.loc 1 514 0 discriminator 2
	movq	-8(%rbp), %rax	# arenanext, tmp88
	movq	%rax, -16(%rbp)	# tmp88, arena
.L42:
	.loc 1 514 0 is_stmt 0 discriminator 1
	cmpq	$0, -16(%rbp)	#, arena
	jne	.L43	#,
	.loc 1 518 0 is_stmt 1
	movq	$0, PL_xrv_arenaroot(%rip)	#, PL_xrv_arenaroot
	.loc 1 519 0
	movq	$0, PL_xrv_root(%rip)	#, PL_xrv_root
	.loc 1 521 0
	movq	PL_xpv_arenaroot(%rip), %rax	# PL_xpv_arenaroot, tmp89
	movq	%rax, -16(%rbp)	# tmp89, arena
	jmp	.L44	#
.L45:
	.loc 1 522 0 discriminator 2
	movq	-16(%rbp), %rax	# arena, tmp90
	movq	(%rax), %rax	# arena_6->xpv_pv, tmp91
	movq	%rax, -8(%rbp)	# tmp91, arenanext
	.loc 1 523 0 discriminator 2
	movq	-16(%rbp), %rax	# arena, tmp92
	movq	%rax, %rdi	# tmp92,
	call	Perl_safesysfree	#
	.loc 1 521 0 discriminator 2
	movq	-8(%rbp), %rax	# arenanext, tmp93
	movq	%rax, -16(%rbp)	# tmp93, arena
.L44:
	.loc 1 521 0 is_stmt 0 discriminator 1
	cmpq	$0, -16(%rbp)	#, arena
	jne	.L45	#,
	.loc 1 525 0 is_stmt 1
	movq	$0, PL_xpv_arenaroot(%rip)	#, PL_xpv_arenaroot
	.loc 1 526 0
	movq	$0, PL_xpv_root(%rip)	#, PL_xpv_root
	.loc 1 528 0
	movq	PL_xpviv_arenaroot(%rip), %rax	# PL_xpviv_arenaroot, tmp94
	movq	%rax, -16(%rbp)	# tmp94, arena
	jmp	.L46	#
.L47:
	.loc 1 529 0 discriminator 2
	movq	-16(%rbp), %rax	# arena, tmp95
	movq	(%rax), %rax	# arena_7->xpv_pv, tmp96
	movq	%rax, -8(%rbp)	# tmp96, arenanext
	.loc 1 530 0 discriminator 2
	movq	-16(%rbp), %rax	# arena, tmp97
	movq	%rax, %rdi	# tmp97,
	call	Perl_safesysfree	#
	.loc 1 528 0 discriminator 2
	movq	-8(%rbp), %rax	# arenanext, tmp98
	movq	%rax, -16(%rbp)	# tmp98, arena
.L46:
	.loc 1 528 0 is_stmt 0 discriminator 1
	cmpq	$0, -16(%rbp)	#, arena
	jne	.L47	#,
	.loc 1 532 0 is_stmt 1
	movq	$0, PL_xpviv_arenaroot(%rip)	#, PL_xpviv_arenaroot
	.loc 1 533 0
	movq	$0, PL_xpviv_root(%rip)	#, PL_xpviv_root
	.loc 1 535 0
	movq	PL_xpvnv_arenaroot(%rip), %rax	# PL_xpvnv_arenaroot, tmp99
	movq	%rax, -16(%rbp)	# tmp99, arena
	jmp	.L48	#
.L49:
	.loc 1 536 0 discriminator 2
	movq	-16(%rbp), %rax	# arena, tmp100
	movq	(%rax), %rax	# arena_8->xpv_pv, tmp101
	movq	%rax, -8(%rbp)	# tmp101, arenanext
	.loc 1 537 0 discriminator 2
	movq	-16(%rbp), %rax	# arena, tmp102
	movq	%rax, %rdi	# tmp102,
	call	Perl_safesysfree	#
	.loc 1 535 0 discriminator 2
	movq	-8(%rbp), %rax	# arenanext, tmp103
	movq	%rax, -16(%rbp)	# tmp103, arena
.L48:
	.loc 1 535 0 is_stmt 0 discriminator 1
	cmpq	$0, -16(%rbp)	#, arena
	jne	.L49	#,
	.loc 1 539 0 is_stmt 1
	movq	$0, PL_xpvnv_arenaroot(%rip)	#, PL_xpvnv_arenaroot
	.loc 1 540 0
	movq	$0, PL_xpvnv_root(%rip)	#, PL_xpvnv_root
	.loc 1 542 0
	movq	PL_xpvcv_arenaroot(%rip), %rax	# PL_xpvcv_arenaroot, tmp104
	movq	%rax, -16(%rbp)	# tmp104, arena
	jmp	.L50	#
.L51:
	.loc 1 543 0 discriminator 2
	movq	-16(%rbp), %rax	# arena, tmp105
	movq	(%rax), %rax	# arena_9->xpv_pv, tmp106
	movq	%rax, -8(%rbp)	# tmp106, arenanext
	.loc 1 544 0 discriminator 2
	movq	-16(%rbp), %rax	# arena, tmp107
	movq	%rax, %rdi	# tmp107,
	call	Perl_safesysfree	#
	.loc 1 542 0 discriminator 2
	movq	-8(%rbp), %rax	# arenanext, tmp108
	movq	%rax, -16(%rbp)	# tmp108, arena
.L50:
	.loc 1 542 0 is_stmt 0 discriminator 1
	cmpq	$0, -16(%rbp)	#, arena
	jne	.L51	#,
	.loc 1 546 0 is_stmt 1
	movq	$0, PL_xpvcv_arenaroot(%rip)	#, PL_xpvcv_arenaroot
	.loc 1 547 0
	movq	$0, PL_xpvcv_root(%rip)	#, PL_xpvcv_root
	.loc 1 549 0
	movq	PL_xpvav_arenaroot(%rip), %rax	# PL_xpvav_arenaroot, tmp109
	movq	%rax, -16(%rbp)	# tmp109, arena
	jmp	.L52	#
.L53:
	.loc 1 550 0 discriminator 2
	movq	-16(%rbp), %rax	# arena, tmp110
	movq	(%rax), %rax	# arena_10->xpv_pv, tmp111
	movq	%rax, -8(%rbp)	# tmp111, arenanext
	.loc 1 551 0 discriminator 2
	movq	-16(%rbp), %rax	# arena, tmp112
	movq	%rax, %rdi	# tmp112,
	call	Perl_safesysfree	#
	.loc 1 549 0 discriminator 2
	movq	-8(%rbp), %rax	# arenanext, tmp113
	movq	%rax, -16(%rbp)	# tmp113, arena
.L52:
	.loc 1 549 0 is_stmt 0 discriminator 1
	cmpq	$0, -16(%rbp)	#, arena
	jne	.L53	#,
	.loc 1 553 0 is_stmt 1
	movq	$0, PL_xpvav_arenaroot(%rip)	#, PL_xpvav_arenaroot
	.loc 1 554 0
	movq	$0, PL_xpvav_root(%rip)	#, PL_xpvav_root
	.loc 1 556 0
	movq	PL_xpvhv_arenaroot(%rip), %rax	# PL_xpvhv_arenaroot, tmp114
	movq	%rax, -16(%rbp)	# tmp114, arena
	jmp	.L54	#
.L55:
	.loc 1 557 0 discriminator 2
	movq	-16(%rbp), %rax	# arena, tmp115
	movq	(%rax), %rax	# arena_11->xpv_pv, tmp116
	movq	%rax, -8(%rbp)	# tmp116, arenanext
	.loc 1 558 0 discriminator 2
	movq	-16(%rbp), %rax	# arena, tmp117
	movq	%rax, %rdi	# tmp117,
	call	Perl_safesysfree	#
	.loc 1 556 0 discriminator 2
	movq	-8(%rbp), %rax	# arenanext, tmp118
	movq	%rax, -16(%rbp)	# tmp118, arena
.L54:
	.loc 1 556 0 is_stmt 0 discriminator 1
	cmpq	$0, -16(%rbp)	#, arena
	jne	.L55	#,
	.loc 1 560 0 is_stmt 1
	movq	$0, PL_xpvhv_arenaroot(%rip)	#, PL_xpvhv_arenaroot
	.loc 1 561 0
	movq	$0, PL_xpvhv_root(%rip)	#, PL_xpvhv_root
	.loc 1 563 0
	movq	PL_xpvmg_arenaroot(%rip), %rax	# PL_xpvmg_arenaroot, tmp119
	movq	%rax, -16(%rbp)	# tmp119, arena
	jmp	.L56	#
.L57:
	.loc 1 564 0 discriminator 2
	movq	-16(%rbp), %rax	# arena, tmp120
	movq	(%rax), %rax	# arena_12->xpv_pv, tmp121
	movq	%rax, -8(%rbp)	# tmp121, arenanext
	.loc 1 565 0 discriminator 2
	movq	-16(%rbp), %rax	# arena, tmp122
	movq	%rax, %rdi	# tmp122,
	call	Perl_safesysfree	#
	.loc 1 563 0 discriminator 2
	movq	-8(%rbp), %rax	# arenanext, tmp123
	movq	%rax, -16(%rbp)	# tmp123, arena
.L56:
	.loc 1 563 0 is_stmt 0 discriminator 1
	cmpq	$0, -16(%rbp)	#, arena
	jne	.L57	#,
	.loc 1 567 0 is_stmt 1
	movq	$0, PL_xpvmg_arenaroot(%rip)	#, PL_xpvmg_arenaroot
	.loc 1 568 0
	movq	$0, PL_xpvmg_root(%rip)	#, PL_xpvmg_root
	.loc 1 570 0
	movq	PL_xpvlv_arenaroot(%rip), %rax	# PL_xpvlv_arenaroot, tmp124
	movq	%rax, -16(%rbp)	# tmp124, arena
	jmp	.L58	#
.L59:
	.loc 1 571 0 discriminator 2
	movq	-16(%rbp), %rax	# arena, tmp125
	movq	(%rax), %rax	# arena_13->xpv_pv, tmp126
	movq	%rax, -8(%rbp)	# tmp126, arenanext
	.loc 1 572 0 discriminator 2
	movq	-16(%rbp), %rax	# arena, tmp127
	movq	%rax, %rdi	# tmp127,
	call	Perl_safesysfree	#
	.loc 1 570 0 discriminator 2
	movq	-8(%rbp), %rax	# arenanext, tmp128
	movq	%rax, -16(%rbp)	# tmp128, arena
.L58:
	.loc 1 570 0 is_stmt 0 discriminator 1
	cmpq	$0, -16(%rbp)	#, arena
	jne	.L59	#,
	.loc 1 574 0 is_stmt 1
	movq	$0, PL_xpvlv_arenaroot(%rip)	#, PL_xpvlv_arenaroot
	.loc 1 575 0
	movq	$0, PL_xpvlv_root(%rip)	#, PL_xpvlv_root
	.loc 1 577 0
	movq	PL_xpvbm_arenaroot(%rip), %rax	# PL_xpvbm_arenaroot, tmp129
	movq	%rax, -16(%rbp)	# tmp129, arena
	jmp	.L60	#
.L61:
	.loc 1 578 0 discriminator 2
	movq	-16(%rbp), %rax	# arena, tmp130
	movq	(%rax), %rax	# arena_14->xpv_pv, tmp131
	movq	%rax, -8(%rbp)	# tmp131, arenanext
	.loc 1 579 0 discriminator 2
	movq	-16(%rbp), %rax	# arena, tmp132
	movq	%rax, %rdi	# tmp132,
	call	Perl_safesysfree	#
	.loc 1 577 0 discriminator 2
	movq	-8(%rbp), %rax	# arenanext, tmp133
	movq	%rax, -16(%rbp)	# tmp133, arena
.L60:
	.loc 1 577 0 is_stmt 0 discriminator 1
	cmpq	$0, -16(%rbp)	#, arena
	jne	.L61	#,
	.loc 1 581 0 is_stmt 1
	movq	$0, PL_xpvbm_arenaroot(%rip)	#, PL_xpvbm_arenaroot
	.loc 1 582 0
	movq	$0, PL_xpvbm_root(%rip)	#, PL_xpvbm_root
	.loc 1 584 0
	movq	PL_he_arenaroot(%rip), %rax	# PL_he_arenaroot, tmp134
	movq	%rax, -16(%rbp)	# tmp134, arena
	jmp	.L62	#
.L63:
	.loc 1 585 0 discriminator 2
	movq	-16(%rbp), %rax	# arena, tmp135
	movq	(%rax), %rax	# arena_15->xpv_pv, tmp136
	movq	%rax, -8(%rbp)	# tmp136, arenanext
	.loc 1 586 0 discriminator 2
	movq	-16(%rbp), %rax	# arena, tmp137
	movq	%rax, %rdi	# tmp137,
	call	Perl_safesysfree	#
	.loc 1 584 0 discriminator 2
	movq	-8(%rbp), %rax	# arenanext, tmp138
	movq	%rax, -16(%rbp)	# tmp138, arena
.L62:
	.loc 1 584 0 is_stmt 0 discriminator 1
	cmpq	$0, -16(%rbp)	#, arena
	jne	.L63	#,
	.loc 1 588 0 is_stmt 1
	movq	$0, PL_he_arenaroot(%rip)	#, PL_he_arenaroot
	.loc 1 589 0
	movq	$0, PL_he_root(%rip)	#, PL_he_root
	.loc 1 600 0
	movq	PL_nice_chunk(%rip), %rax	# PL_nice_chunk, PL_nice_chunk.9
	testq	%rax, %rax	# PL_nice_chunk.9
	je	.L64	#,
	.loc 1 601 0
	movq	PL_nice_chunk(%rip), %rax	# PL_nice_chunk, PL_nice_chunk.10
	movq	%rax, %rdi	# PL_nice_chunk.10,
	call	Perl_safesysfree	#
.L64:
	.loc 1 602 0
	movq	$0, PL_nice_chunk(%rip)	#, PL_nice_chunk
	.loc 1 603 0
	movl	$0, PL_nice_chunk_size(%rip)	#, PL_nice_chunk_size
	.loc 1 604 0
	movq	$0, PL_sv_arenaroot(%rip)	#, PL_sv_arenaroot
	.loc 1 605 0
	movq	$0, PL_sv_root(%rip)	#, PL_sv_root
	.loc 1 606 0
	leave
	.cfi_def_cfa 7, 8
	ret
	.cfi_endproc
.LFE11:
	.size	Perl_sv_free_arenas, .-Perl_sv_free_arenas
	.section	.rodata
.LC0:
	.string	" in "
.LC1:
	.string	""
	.text
	.globl	Perl_report_uninit
	.type	Perl_report_uninit, @function
Perl_report_uninit:
.LFB12:
	.loc 1 618 0
	.cfi_startproc
	pushq	%rbp	#
	.cfi_def_cfa_offset 16
	.cfi_offset 6, -16
	movq	%rsp, %rbp	#,
	.cfi_def_cfa_register 6
	.loc 1 619 0
	movq	PL_op(%rip), %rax	# PL_op, PL_op.11
	testq	%rax, %rax	# PL_op.11
	je	.L66	#,
	.loc 1 621 0
	movq	PL_op(%rip), %rax	# PL_op, PL_op.13
	movzwl	32(%rax), %eax	# PL_op.13_3->op_type, D.22604
	.loc 1 620 0
	cmpw	$351, %ax	#, D.22604
	jne	.L67	#,
	.loc 1 621 0
	movq	PL_op(%rip), %rax	# PL_op, PL_op.14
	.loc 1 620 0
	movq	%rax, %rdi	# PL_op.14,
	call	Perl_custom_op_desc	#
	jmp	.L68	#
.L67:
	.loc 1 621 0 discriminator 1
	movq	PL_op(%rip), %rax	# PL_op, PL_op.15
	movzwl	32(%rax), %eax	# PL_op.15_7->op_type, D.22604
	movzwl	%ax, %eax	# D.22604, D.22605
	.loc 1 620 0 discriminator 1
	cltq
	movq	PL_op_desc(,%rax,8), %rax	# PL_op_desc, iftmp.12
.L68:
	movq	%rax, %rcx	# iftmp.12,
	movl	$.LC0, %edx	#,
	movl	$PL_warn_uninit, %esi	#,
	movl	$41, %edi	#,
	movl	$0, %eax	#,
	call	Perl_warner	#
	jmp	.L65	#
.L66:
	.loc 1 623 0
	movl	$.LC1, %ecx	#,
	movl	$.LC1, %edx	#,
	movl	$PL_warn_uninit, %esi	#,
	movl	$41, %edi	#,
	movl	$0, %eax	#,
	call	Perl_warner	#
.L65:
	.loc 1 624 0
	popq	%rbp	#
	.cfi_def_cfa 7, 8
	ret
	.cfi_endproc
.LFE12:
	.size	Perl_report_uninit, .-Perl_report_uninit
	.type	S_new_xiv, @function
S_new_xiv:
.LFB13:
	.loc 1 630 0
	.cfi_startproc
	pushq	%rbp	#
	.cfi_def_cfa_offset 16
	.cfi_offset 6, -16
	movq	%rsp, %rbp	#,
	.cfi_def_cfa_register 6
	subq	$16, %rsp	#,
	.loc 1 633 0
	movq	PL_xiv_root(%rip), %rax	# PL_xiv_root, PL_xiv_root.16
	testq	%rax, %rax	# PL_xiv_root.16
	jne	.L71	#,
	.loc 1 634 0
	call	S_more_xiv	#
.L71:
	.loc 1 635 0
	movq	PL_xiv_root(%rip), %rax	# PL_xiv_root, tmp63
	movq	%rax, -8(%rbp)	# tmp63, xiv
	.loc 1 639 0
	movq	-8(%rbp), %rax	# xiv, tmp64
	movq	(%rax), %rax	# MEM[(IV * *)xiv_2], PL_xiv_root.17
	movq	%rax, PL_xiv_root(%rip)	# PL_xiv_root.17, PL_xiv_root
	.loc 1 641 0
	movq	-8(%rbp), %rax	# xiv, tmp65
	subq	$24, %rax	#, D.22608
	.loc 1 642 0
	leave
	.cfi_def_cfa 7, 8
	ret
	.cfi_endproc
.LFE13:
	.size	S_new_xiv, .-S_new_xiv
	.type	S_del_xiv, @function
S_del_xiv:
.LFB14:
	.loc 1 648 0
	.cfi_startproc
	pushq	%rbp	#
	.cfi_def_cfa_offset 16
	.cfi_offset 6, -16
	movq	%rsp, %rbp	#,
	.cfi_def_cfa_register 6
	movq	%rdi, -24(%rbp)	# p, p
	.loc 1 649 0
	movq	-24(%rbp), %rax	# p, tmp63
	addq	$24, %rax	#, tmp62
	movq	%rax, -8(%rbp)	# tmp62, xiv
	.loc 1 651 0
	movq	PL_xiv_root(%rip), %rdx	# PL_xiv_root, PL_xiv_root.18
	movq	-8(%rbp), %rax	# xiv, tmp64
	movq	%rdx, (%rax)	# PL_xiv_root.18, MEM[(IV * *)xiv_2]
	.loc 1 652 0
	movq	-8(%rbp), %rax	# xiv, tmp65
	movq	%rax, PL_xiv_root(%rip)	# tmp65, PL_xiv_root
	.loc 1 654 0
	popq	%rbp	#
	.cfi_def_cfa 7, 8
	ret
	.cfi_endproc
.LFE14:
	.size	S_del_xiv, .-S_del_xiv
	.type	S_more_xiv, @function
S_more_xiv:
.LFB15:
	.loc 1 660 0
	.cfi_startproc
	pushq	%rbp	#
	.cfi_def_cfa_offset 16
	.cfi_offset 6, -16
	movq	%rsp, %rbp	#,
	.cfi_def_cfa_register 6
	pushq	%r12	#
	pushq	%rbx	#
	subq	$16, %rsp	#,
	.cfi_offset 12, -24
	.cfi_offset 3, -32
	.loc 1 664 0
	movl	$4080, %edi	#,
	call	Perl_safesysmalloc	#
	movq	%rax, -24(%rbp)	# tmp63, ptr
	.loc 1 665 0
	movq	PL_xiv_arenaroot(%rip), %rdx	# PL_xiv_arenaroot, PL_xiv_arenaroot.19
	movq	-24(%rbp), %rax	# ptr, tmp64
	movq	%rdx, (%rax)	# PL_xiv_arenaroot.19, ptr_2->xpv_pv
	.loc 1 666 0
	movq	-24(%rbp), %rax	# ptr, tmp65
	movq	%rax, PL_xiv_arenaroot(%rip)	# tmp65, PL_xiv_arenaroot
	.loc 1 668 0
	movq	-24(%rbp), %rbx	# ptr, xiv
	.loc 1 669 0
	leaq	4072(%rbx), %r12	#, xivend
	.loc 1 670 0
	addq	$24, %rbx	#, xiv
	.loc 1 671 0
	movq	%rbx, PL_xiv_root(%rip)	# xiv, PL_xiv_root
	.loc 1 672 0
	jmp	.L75	#
.L76:
	.loc 1 673 0
	leaq	8(%rbx), %rax	#, D.22609
	movq	%rax, (%rbx)	# D.22609, MEM[(IV * *)xiv_1]
	.loc 1 674 0
	addq	$8, %rbx	#, xiv
.L75:
	.loc 1 672 0 discriminator 1
	cmpq	%r12, %rbx	# xivend, xiv
	jb	.L76	#,
	.loc 1 676 0
	movq	$0, (%rbx)	#, MEM[(IV * *)xiv_1]
	.loc 1 677 0
	addq	$16, %rsp	#,
	popq	%rbx	#
	popq	%r12	#
	popq	%rbp	#
	.cfi_def_cfa 7, 8
	ret
	.cfi_endproc
.LFE15:
	.size	S_more_xiv, .-S_more_xiv
	.type	S_new_xnv, @function
S_new_xnv:
.LFB16:
	.loc 1 683 0
	.cfi_startproc
	pushq	%rbp	#
	.cfi_def_cfa_offset 16
	.cfi_offset 6, -16
	movq	%rsp, %rbp	#,
	.cfi_def_cfa_register 6
	subq	$16, %rsp	#,
	.loc 1 686 0
	movq	PL_xnv_root(%rip), %rax	# PL_xnv_root, PL_xnv_root.20
	testq	%rax, %rax	# PL_xnv_root.20
	jne	.L78	#,
	.loc 1 687 0
	call	S_more_xnv	#
.L78:
	.loc 1 688 0
	movq	PL_xnv_root(%rip), %rax	# PL_xnv_root, tmp63
	movq	%rax, -8(%rbp)	# tmp63, xnv
	.loc 1 689 0
	movq	-8(%rbp), %rax	# xnv, tmp64
	movq	(%rax), %rax	# MEM[(NV * *)xnv_2], PL_xnv_root.21
	movq	%rax, PL_xnv_root(%rip)	# PL_xnv_root.21, PL_xnv_root
	.loc 1 691 0
	movq	-8(%rbp), %rax	# xnv, tmp65
	subq	$32, %rax	#, D.22610
	.loc 1 692 0
	leave
	.cfi_def_cfa 7, 8
	ret
	.cfi_endproc
.LFE16:
	.size	S_new_xnv, .-S_new_xnv
	.type	S_del_xnv, @function
S_del_xnv:
.LFB17:
	.loc 1 698 0
	.cfi_startproc
	pushq	%rbp	#
	.cfi_def_cfa_offset 16
	.cfi_offset 6, -16
	movq	%rsp, %rbp	#,
	.cfi_def_cfa_register 6
	movq	%rdi, -24(%rbp)	# p, p
	.loc 1 699 0
	movq	-24(%rbp), %rax	# p, tmp63
	addq	$32, %rax	#, tmp62
	movq	%rax, -8(%rbp)	# tmp62, xnv
	.loc 1 701 0
	movq	PL_xnv_root(%rip), %rdx	# PL_xnv_root, PL_xnv_root.22
	movq	-8(%rbp), %rax	# xnv, tmp64
	movq	%rdx, (%rax)	# PL_xnv_root.22, MEM[(NV * *)xnv_2]
	.loc 1 702 0
	movq	-8(%rbp), %rax	# xnv, tmp65
	movq	%rax, PL_xnv_root(%rip)	# tmp65, PL_xnv_root
	.loc 1 704 0
	popq	%rbp	#
	.cfi_def_cfa 7, 8
	ret
	.cfi_endproc
.LFE17:
	.size	S_del_xnv, .-S_del_xnv
	.type	S_more_xnv, @function
S_more_xnv:
.LFB18:
	.loc 1 710 0
	.cfi_startproc
	pushq	%rbp	#
	.cfi_def_cfa_offset 16
	.cfi_offset 6, -16
	movq	%rsp, %rbp	#,
	.cfi_def_cfa_register 6
	pushq	%r12	#
	pushq	%rbx	#
	subq	$16, %rsp	#,
	.cfi_offset 12, -24
	.cfi_offset 3, -32
	.loc 1 714 0
	movl	$4080, %edi	#,
	call	Perl_safesysmalloc	#
	movq	%rax, -24(%rbp)	# tmp63, ptr
	.loc 1 715 0
	movq	PL_xnv_arenaroot(%rip), %rdx	# PL_xnv_arenaroot, PL_xnv_arenaroot.23
	movq	-24(%rbp), %rax	# ptr, tmp64
	movq	%rdx, (%rax)	# PL_xnv_arenaroot.23, ptr_2->xpv_pv
	.loc 1 716 0
	movq	-24(%rbp), %rax	# ptr, tmp65
	movq	%rax, PL_xnv_arenaroot(%rip)	# tmp65, PL_xnv_arenaroot
	.loc 1 718 0
	movq	-24(%rbp), %rbx	# ptr, xnv
	.loc 1 719 0
	leaq	4072(%rbx), %r12	#, xnvend
	.loc 1 720 0
	addq	$32, %rbx	#, xnv
	.loc 1 721 0
	movq	%rbx, PL_xnv_root(%rip)	# xnv, PL_xnv_root
	.loc 1 722 0
	jmp	.L82	#
.L83:
	.loc 1 723 0
	leaq	8(%rbx), %rax	#, D.22611
	movq	%rax, (%rbx)	# D.22611, MEM[(NV * *)xnv_1]
	.loc 1 724 0
	addq	$8, %rbx	#, xnv
.L82:
	.loc 1 722 0 discriminator 1
	cmpq	%r12, %rbx	# xnvend, xnv
	jb	.L83	#,
	.loc 1 726 0
	movq	$0, (%rbx)	#, MEM[(NV * *)xnv_1]
	.loc 1 727 0
	addq	$16, %rsp	#,
	popq	%rbx	#
	popq	%r12	#
	popq	%rbp	#
	.cfi_def_cfa 7, 8
	ret
	.cfi_endproc
.LFE18:
	.size	S_more_xnv, .-S_more_xnv
	.type	S_new_xrv, @function
S_new_xrv:
.LFB19:
	.loc 1 733 0
	.cfi_startproc
	pushq	%rbp	#
	.cfi_def_cfa_offset 16
	.cfi_offset 6, -16
	movq	%rsp, %rbp	#,
	.cfi_def_cfa_register 6
	subq	$16, %rsp	#,
	.loc 1 736 0
	movq	PL_xrv_root(%rip), %rax	# PL_xrv_root, PL_xrv_root.24
	testq	%rax, %rax	# PL_xrv_root.24
	jne	.L85	#,
	.loc 1 737 0
	call	S_more_xrv	#
.L85:
	.loc 1 738 0
	movq	PL_xrv_root(%rip), %rax	# PL_xrv_root, tmp63
	movq	%rax, -8(%rbp)	# tmp63, xrv
	.loc 1 739 0
	movq	-8(%rbp), %rax	# xrv, tmp64
	movq	(%rax), %rax	# xrv_2->xrv_rv, PL_xrv_root.25
	movq	%rax, PL_xrv_root(%rip)	# PL_xrv_root.25, PL_xrv_root
	.loc 1 741 0
	movq	-8(%rbp), %rax	# xrv, D.22612
	.loc 1 742 0
	leave
	.cfi_def_cfa 7, 8
	ret
	.cfi_endproc
.LFE19:
	.size	S_new_xrv, .-S_new_xrv
	.type	S_del_xrv, @function
S_del_xrv:
.LFB20:
	.loc 1 748 0
	.cfi_startproc
	pushq	%rbp	#
	.cfi_def_cfa_offset 16
	.cfi_offset 6, -16
	movq	%rsp, %rbp	#,
	.cfi_def_cfa_register 6
	movq	%rdi, -8(%rbp)	# p, p
	.loc 1 750 0
	movq	PL_xrv_root(%rip), %rdx	# PL_xrv_root, PL_xrv_root.26
	movq	-8(%rbp), %rax	# p, tmp60
	movq	%rdx, (%rax)	# PL_xrv_root.26, p_2(D)->xrv_rv
	.loc 1 751 0
	movq	-8(%rbp), %rax	# p, tmp61
	movq	%rax, PL_xrv_root(%rip)	# tmp61, PL_xrv_root
	.loc 1 753 0
	popq	%rbp	#
	.cfi_def_cfa 7, 8
	ret
	.cfi_endproc
.LFE20:
	.size	S_del_xrv, .-S_del_xrv
	.type	S_more_xrv, @function
S_more_xrv:
.LFB21:
	.loc 1 759 0
	.cfi_startproc
	pushq	%rbp	#
	.cfi_def_cfa_offset 16
	.cfi_offset 6, -16
	movq	%rsp, %rbp	#,
	.cfi_def_cfa_register 6
	pushq	%r12	#
	pushq	%rbx	#
	subq	$16, %rsp	#,
	.cfi_offset 12, -24
	.cfi_offset 3, -32
	.loc 1 763 0
	movl	$4080, %edi	#,
	call	Perl_safesysmalloc	#
	movq	%rax, -24(%rbp)	# tmp63, ptr
	.loc 1 764 0
	movq	PL_xrv_arenaroot(%rip), %rdx	# PL_xrv_arenaroot, PL_xrv_arenaroot.27
	movq	-24(%rbp), %rax	# ptr, tmp64
	movq	%rdx, (%rax)	# PL_xrv_arenaroot.27, ptr_2->xpv_pv
	.loc 1 765 0
	movq	-24(%rbp), %rax	# ptr, tmp65
	movq	%rax, PL_xrv_arenaroot(%rip)	# tmp65, PL_xrv_arenaroot
	.loc 1 767 0
	movq	-24(%rbp), %rbx	# ptr, xrv
	.loc 1 768 0
	leaq	4072(%rbx), %r12	#, xrvend
	.loc 1 769 0
	addq	$24, %rbx	#, xrv
	.loc 1 770 0
	movq	%rbx, PL_xrv_root(%rip)	# xrv, PL_xrv_root
	.loc 1 771 0
	jmp	.L89	#
.L90:
	.loc 1 772 0
	leaq	8(%rbx), %rax	#, D.22613
	movq	%rax, (%rbx)	# D.22613, xrv_1->xrv_rv
	.loc 1 773 0
	addq	$8, %rbx	#, xrv
.L89:
	.loc 1 771 0 discriminator 1
	cmpq	%r12, %rbx	# xrvend, xrv
	jb	.L90	#,
	.loc 1 775 0
	movq	$0, (%rbx)	#, xrv_1->xrv_rv
	.loc 1 776 0
	addq	$16, %rsp	#,
	popq	%rbx	#
	popq	%r12	#
	popq	%rbp	#
	.cfi_def_cfa 7, 8
	ret
	.cfi_endproc
.LFE21:
	.size	S_more_xrv, .-S_more_xrv
	.type	S_new_xpv, @function
S_new_xpv:
.LFB22:
	.loc 1 782 0
	.cfi_startproc
	pushq	%rbp	#
	.cfi_def_cfa_offset 16
	.cfi_offset 6, -16
	movq	%rsp, %rbp	#,
	.cfi_def_cfa_register 6
	subq	$16, %rsp	#,
	.loc 1 785 0
	movq	PL_xpv_root(%rip), %rax	# PL_xpv_root, PL_xpv_root.28
	testq	%rax, %rax	# PL_xpv_root.28
	jne	.L92	#,
	.loc 1 786 0
	call	S_more_xpv	#
.L92:
	.loc 1 787 0
	movq	PL_xpv_root(%rip), %rax	# PL_xpv_root, tmp63
	movq	%rax, -8(%rbp)	# tmp63, xpv
	.loc 1 788 0
	movq	-8(%rbp), %rax	# xpv, tmp64
	movq	(%rax), %rax	# xpv_2->xpv_pv, PL_xpv_root.29
	movq	%rax, PL_xpv_root(%rip)	# PL_xpv_root.29, PL_xpv_root
	.loc 1 790 0
	movq	-8(%rbp), %rax	# xpv, D.22614
	.loc 1 791 0
	leave
	.cfi_def_cfa 7, 8
	ret
	.cfi_endproc
.LFE22:
	.size	S_new_xpv, .-S_new_xpv
	.type	S_del_xpv, @function
S_del_xpv:
.LFB23:
	.loc 1 797 0
	.cfi_startproc
	pushq	%rbp	#
	.cfi_def_cfa_offset 16
	.cfi_offset 6, -16
	movq	%rsp, %rbp	#,
	.cfi_def_cfa_register 6
	movq	%rdi, -8(%rbp)	# p, p
	.loc 1 799 0
	movq	PL_xpv_root(%rip), %rdx	# PL_xpv_root, PL_xpv_root.30
	movq	-8(%rbp), %rax	# p, tmp60
	movq	%rdx, (%rax)	# PL_xpv_root.30, p_2(D)->xpv_pv
	.loc 1 800 0
	movq	-8(%rbp), %rax	# p, tmp61
	movq	%rax, PL_xpv_root(%rip)	# tmp61, PL_xpv_root
	.loc 1 802 0
	popq	%rbp	#
	.cfi_def_cfa 7, 8
	ret
	.cfi_endproc
.LFE23:
	.size	S_del_xpv, .-S_del_xpv
	.type	S_more_xpv, @function
S_more_xpv:
.LFB24:
	.loc 1 808 0
	.cfi_startproc
	pushq	%rbp	#
	.cfi_def_cfa_offset 16
	.cfi_offset 6, -16
	movq	%rsp, %rbp	#,
	.cfi_def_cfa_register 6
	pushq	%r12	#
	pushq	%rbx	#
	.cfi_offset 12, -24
	.cfi_offset 3, -32
	.loc 1 811 0
	movl	$4080, %edi	#,
	call	Perl_safesysmalloc	#
	movq	%rax, %rbx	#, xpv
	.loc 1 812 0
	movq	PL_xpv_arenaroot(%rip), %rax	# PL_xpv_arenaroot, PL_xpv_arenaroot.31
	movq	%rax, (%rbx)	# PL_xpv_arenaroot.31, xpv_2->xpv_pv
	.loc 1 813 0
	movq	%rbx, PL_xpv_arenaroot(%rip)	# xpv, PL_xpv_arenaroot
	.loc 1 815 0
	leaq	4056(%rbx), %r12	#, xpvend
	.loc 1 816 0
	addq	$24, %rbx	#, xpv
	movq	%rbx, PL_xpv_root(%rip)	# xpv, PL_xpv_root
	.loc 1 817 0
	jmp	.L96	#
.L97:
	.loc 1 818 0
	leaq	24(%rbx), %rax	#, D.22615
	movq	%rax, (%rbx)	# D.22615, xpv_1->xpv_pv
	.loc 1 819 0
	addq	$24, %rbx	#, xpv
.L96:
	.loc 1 817 0 discriminator 1
	cmpq	%r12, %rbx	# xpvend, xpv
	jb	.L97	#,
	.loc 1 821 0
	movq	$0, (%rbx)	#, xpv_1->xpv_pv
	.loc 1 822 0
	popq	%rbx	#
	popq	%r12	#
	popq	%rbp	#
	.cfi_def_cfa 7, 8
	ret
	.cfi_endproc
.LFE24:
	.size	S_more_xpv, .-S_more_xpv
	.type	S_new_xpviv, @function
S_new_xpviv:
.LFB25:
	.loc 1 828 0
	.cfi_startproc
	pushq	%rbp	#
	.cfi_def_cfa_offset 16
	.cfi_offset 6, -16
	movq	%rsp, %rbp	#,
	.cfi_def_cfa_register 6
	subq	$16, %rsp	#,
	.loc 1 831 0
	movq	PL_xpviv_root(%rip), %rax	# PL_xpviv_root, PL_xpviv_root.32
	testq	%rax, %rax	# PL_xpviv_root.32
	jne	.L99	#,
	.loc 1 832 0
	call	S_more_xpviv	#
.L99:
	.loc 1 833 0
	movq	PL_xpviv_root(%rip), %rax	# PL_xpviv_root, tmp63
	movq	%rax, -8(%rbp)	# tmp63, xpviv
	.loc 1 834 0
	movq	-8(%rbp), %rax	# xpviv, tmp64
	movq	(%rax), %rax	# xpviv_2->xpv_pv, PL_xpviv_root.33
	movq	%rax, PL_xpviv_root(%rip)	# PL_xpviv_root.33, PL_xpviv_root
	.loc 1 836 0
	movq	-8(%rbp), %rax	# xpviv, D.22616
	.loc 1 837 0
	leave
	.cfi_def_cfa 7, 8
	ret
	.cfi_endproc
.LFE25:
	.size	S_new_xpviv, .-S_new_xpviv
	.type	S_del_xpviv, @function
S_del_xpviv:
.LFB26:
	.loc 1 843 0
	.cfi_startproc
	pushq	%rbp	#
	.cfi_def_cfa_offset 16
	.cfi_offset 6, -16
	movq	%rsp, %rbp	#,
	.cfi_def_cfa_register 6
	movq	%rdi, -8(%rbp)	# p, p
	.loc 1 845 0
	movq	PL_xpviv_root(%rip), %rdx	# PL_xpviv_root, PL_xpviv_root.34
	movq	-8(%rbp), %rax	# p, tmp60
	movq	%rdx, (%rax)	# PL_xpviv_root.34, p_2(D)->xpv_pv
	.loc 1 846 0
	movq	-8(%rbp), %rax	# p, tmp61
	movq	%rax, PL_xpviv_root(%rip)	# tmp61, PL_xpviv_root
	.loc 1 848 0
	popq	%rbp	#
	.cfi_def_cfa 7, 8
	ret
	.cfi_endproc
.LFE26:
	.size	S_del_xpviv, .-S_del_xpviv
	.type	S_more_xpviv, @function
S_more_xpviv:
.LFB27:
	.loc 1 854 0
	.cfi_startproc
	pushq	%rbp	#
	.cfi_def_cfa_offset 16
	.cfi_offset 6, -16
	movq	%rsp, %rbp	#,
	.cfi_def_cfa_register 6
	pushq	%r12	#
	pushq	%rbx	#
	.cfi_offset 12, -24
	.cfi_offset 3, -32
	.loc 1 857 0
	movl	$4064, %edi	#,
	call	Perl_safesysmalloc	#
	movq	%rax, %rbx	#, xpviv
	.loc 1 858 0
	movq	PL_xpviv_arenaroot(%rip), %rax	# PL_xpviv_arenaroot, PL_xpviv_arenaroot.35
	movq	%rax, (%rbx)	# PL_xpviv_arenaroot.35, xpviv_2->xpv_pv
	.loc 1 859 0
	movq	%rbx, PL_xpviv_arenaroot(%rip)	# xpviv, PL_xpviv_arenaroot
	.loc 1 861 0
	leaq	4032(%rbx), %r12	#, xpvivend
	.loc 1 862 0
	addq	$32, %rbx	#, xpviv
	movq	%rbx, PL_xpviv_root(%rip)	# xpviv, PL_xpviv_root
	.loc 1 863 0
	jmp	.L103	#
.L104:
	.loc 1 864 0
	leaq	32(%rbx), %rax	#, D.22617
	movq	%rax, (%rbx)	# D.22617, xpviv_1->xpv_pv
	.loc 1 865 0
	addq	$32, %rbx	#, xpviv
.L103:
	.loc 1 863 0 discriminator 1
	cmpq	%r12, %rbx	# xpvivend, xpviv
	jb	.L104	#,
	.loc 1 867 0
	movq	$0, (%rbx)	#, xpviv_1->xpv_pv
	.loc 1 868 0
	popq	%rbx	#
	popq	%r12	#
	popq	%rbp	#
	.cfi_def_cfa 7, 8
	ret
	.cfi_endproc
.LFE27:
	.size	S_more_xpviv, .-S_more_xpviv
	.type	S_new_xpvnv, @function
S_new_xpvnv:
.LFB28:
	.loc 1 874 0
	.cfi_startproc
	pushq	%rbp	#
	.cfi_def_cfa_offset 16
	.cfi_offset 6, -16
	movq	%rsp, %rbp	#,
	.cfi_def_cfa_register 6
	subq	$16, %rsp	#,
	.loc 1 877 0
	movq	PL_xpvnv_root(%rip), %rax	# PL_xpvnv_root, PL_xpvnv_root.36
	testq	%rax, %rax	# PL_xpvnv_root.36
	jne	.L106	#,
	.loc 1 878 0
	call	S_more_xpvnv	#
.L106:
	.loc 1 879 0
	movq	PL_xpvnv_root(%rip), %rax	# PL_xpvnv_root, tmp63
	movq	%rax, -8(%rbp)	# tmp63, xpvnv
	.loc 1 880 0
	movq	-8(%rbp), %rax	# xpvnv, tmp64
	movq	(%rax), %rax	# xpvnv_2->xpv_pv, PL_xpvnv_root.37
	movq	%rax, PL_xpvnv_root(%rip)	# PL_xpvnv_root.37, PL_xpvnv_root
	.loc 1 882 0
	movq	-8(%rbp), %rax	# xpvnv, D.22618
	.loc 1 883 0
	leave
	.cfi_def_cfa 7, 8
	ret
	.cfi_endproc
.LFE28:
	.size	S_new_xpvnv, .-S_new_xpvnv
	.type	S_del_xpvnv, @function
S_del_xpvnv:
.LFB29:
	.loc 1 889 0
	.cfi_startproc
	pushq	%rbp	#
	.cfi_def_cfa_offset 16
	.cfi_offset 6, -16
	movq	%rsp, %rbp	#,
	.cfi_def_cfa_register 6
	movq	%rdi, -8(%rbp)	# p, p
	.loc 1 891 0
	movq	PL_xpvnv_root(%rip), %rdx	# PL_xpvnv_root, PL_xpvnv_root.38
	movq	-8(%rbp), %rax	# p, tmp60
	movq	%rdx, (%rax)	# PL_xpvnv_root.38, p_2(D)->xpv_pv
	.loc 1 892 0
	movq	-8(%rbp), %rax	# p, tmp61
	movq	%rax, PL_xpvnv_root(%rip)	# tmp61, PL_xpvnv_root
	.loc 1 894 0
	popq	%rbp	#
	.cfi_def_cfa 7, 8
	ret
	.cfi_endproc
.LFE29:
	.size	S_del_xpvnv, .-S_del_xpvnv
	.type	S_more_xpvnv, @function
S_more_xpvnv:
.LFB30:
	.loc 1 900 0
	.cfi_startproc
	pushq	%rbp	#
	.cfi_def_cfa_offset 16
	.cfi_offset 6, -16
	movq	%rsp, %rbp	#,
	.cfi_def_cfa_register 6
	pushq	%r12	#
	pushq	%rbx	#
	.cfi_offset 12, -24
	.cfi_offset 3, -32
	.loc 1 903 0
	movl	$4080, %edi	#,
	call	Perl_safesysmalloc	#
	movq	%rax, %rbx	#, xpvnv
	.loc 1 904 0
	movq	PL_xpvnv_arenaroot(%rip), %rax	# PL_xpvnv_arenaroot, PL_xpvnv_arenaroot.39
	movq	%rax, (%rbx)	# PL_xpvnv_arenaroot.39, xpvnv_2->xpv_pv
	.loc 1 905 0
	movq	%rbx, PL_xpvnv_arenaroot(%rip)	# xpvnv, PL_xpvnv_arenaroot
	.loc 1 907 0
	leaq	4040(%rbx), %r12	#, xpvnvend
	.loc 1 908 0
	addq	$40, %rbx	#, xpvnv
	movq	%rbx, PL_xpvnv_root(%rip)	# xpvnv, PL_xpvnv_root
	.loc 1 909 0
	jmp	.L110	#
.L111:
	.loc 1 910 0
	leaq	40(%rbx), %rax	#, D.22619
	movq	%rax, (%rbx)	# D.22619, xpvnv_1->xpv_pv
	.loc 1 911 0
	addq	$40, %rbx	#, xpvnv
.L110:
	.loc 1 909 0 discriminator 1
	cmpq	%r12, %rbx	# xpvnvend, xpvnv
	jb	.L111	#,
	.loc 1 913 0
	movq	$0, (%rbx)	#, xpvnv_1->xpv_pv
	.loc 1 914 0
	popq	%rbx	#
	popq	%r12	#
	popq	%rbp	#
	.cfi_def_cfa 7, 8
	ret
	.cfi_endproc
.LFE30:
	.size	S_more_xpvnv, .-S_more_xpvnv
	.type	S_new_xpvcv, @function
S_new_xpvcv:
.LFB31:
	.loc 1 920 0
	.cfi_startproc
	pushq	%rbp	#
	.cfi_def_cfa_offset 16
	.cfi_offset 6, -16
	movq	%rsp, %rbp	#,
	.cfi_def_cfa_register 6
	subq	$16, %rsp	#,
	.loc 1 923 0
	movq	PL_xpvcv_root(%rip), %rax	# PL_xpvcv_root, PL_xpvcv_root.40
	testq	%rax, %rax	# PL_xpvcv_root.40
	jne	.L113	#,
	.loc 1 924 0
	call	S_more_xpvcv	#
.L113:
	.loc 1 925 0
	movq	PL_xpvcv_root(%rip), %rax	# PL_xpvcv_root, tmp63
	movq	%rax, -8(%rbp)	# tmp63, xpvcv
	.loc 1 926 0
	movq	-8(%rbp), %rax	# xpvcv, tmp64
	movq	(%rax), %rax	# xpvcv_2->xpv_pv, PL_xpvcv_root.41
	movq	%rax, PL_xpvcv_root(%rip)	# PL_xpvcv_root.41, PL_xpvcv_root
	.loc 1 928 0
	movq	-8(%rbp), %rax	# xpvcv, D.22620
	.loc 1 929 0
	leave
	.cfi_def_cfa 7, 8
	ret
	.cfi_endproc
.LFE31:
	.size	S_new_xpvcv, .-S_new_xpvcv
	.type	S_del_xpvcv, @function
S_del_xpvcv:
.LFB32:
	.loc 1 935 0
	.cfi_startproc
	pushq	%rbp	#
	.cfi_def_cfa_offset 16
	.cfi_offset 6, -16
	movq	%rsp, %rbp	#,
	.cfi_def_cfa_register 6
	movq	%rdi, -8(%rbp)	# p, p
	.loc 1 937 0
	movq	PL_xpvcv_root(%rip), %rdx	# PL_xpvcv_root, PL_xpvcv_root.42
	movq	-8(%rbp), %rax	# p, tmp60
	movq	%rdx, (%rax)	# PL_xpvcv_root.42, p_2(D)->xpv_pv
	.loc 1 938 0
	movq	-8(%rbp), %rax	# p, tmp61
	movq	%rax, PL_xpvcv_root(%rip)	# tmp61, PL_xpvcv_root
	.loc 1 940 0
	popq	%rbp	#
	.cfi_def_cfa 7, 8
	ret
	.cfi_endproc
.LFE32:
	.size	S_del_xpvcv, .-S_del_xpvcv
	.type	S_more_xpvcv, @function
S_more_xpvcv:
.LFB33:
	.loc 1 946 0
	.cfi_startproc
	pushq	%rbp	#
	.cfi_def_cfa_offset 16
	.cfi_offset 6, -16
	movq	%rsp, %rbp	#,
	.cfi_def_cfa_register 6
	pushq	%r12	#
	pushq	%rbx	#
	.cfi_offset 12, -24
	.cfi_offset 3, -32
	.loc 1 949 0
	movl	$4032, %edi	#,
	call	Perl_safesysmalloc	#
	movq	%rax, %rbx	#, xpvcv
	.loc 1 950 0
	movq	PL_xpvcv_arenaroot(%rip), %rax	# PL_xpvcv_arenaroot, PL_xpvcv_arenaroot.43
	movq	%rax, (%rbx)	# PL_xpvcv_arenaroot.43, xpvcv_2->xpv_pv
	.loc 1 951 0
	movq	%rbx, PL_xpvcv_arenaroot(%rip)	# xpvcv, PL_xpvcv_arenaroot
	.loc 1 953 0
	leaq	3888(%rbx), %r12	#, xpvcvend
	.loc 1 954 0
	addq	$144, %rbx	#, xpvcv
	movq	%rbx, PL_xpvcv_root(%rip)	# xpvcv, PL_xpvcv_root
	.loc 1 955 0
	jmp	.L117	#
.L118:
	.loc 1 956 0
	leaq	144(%rbx), %rax	#, D.22621
	movq	%rax, (%rbx)	# D.22621, xpvcv_1->xpv_pv
	.loc 1 957 0
	addq	$144, %rbx	#, xpvcv
.L117:
	.loc 1 955 0 discriminator 1
	cmpq	%r12, %rbx	# xpvcvend, xpvcv
	jb	.L118	#,
	.loc 1 959 0
	movq	$0, (%rbx)	#, xpvcv_1->xpv_pv
	.loc 1 960 0
	popq	%rbx	#
	popq	%r12	#
	popq	%rbp	#
	.cfi_def_cfa 7, 8
	ret
	.cfi_endproc
.LFE33:
	.size	S_more_xpvcv, .-S_more_xpvcv
	.type	S_new_xpvav, @function
S_new_xpvav:
.LFB34:
	.loc 1 966 0
	.cfi_startproc
	pushq	%rbp	#
	.cfi_def_cfa_offset 16
	.cfi_offset 6, -16
	movq	%rsp, %rbp	#,
	.cfi_def_cfa_register 6
	subq	$16, %rsp	#,
	.loc 1 969 0
	movq	PL_xpvav_root(%rip), %rax	# PL_xpvav_root, PL_xpvav_root.44
	testq	%rax, %rax	# PL_xpvav_root.44
	jne	.L120	#,
	.loc 1 970 0
	call	S_more_xpvav	#
.L120:
	.loc 1 971 0
	movq	PL_xpvav_root(%rip), %rax	# PL_xpvav_root, tmp63
	movq	%rax, -8(%rbp)	# tmp63, xpvav
	.loc 1 972 0
	movq	-8(%rbp), %rax	# xpvav, tmp64
	movq	(%rax), %rax	# xpvav_2->xav_array, PL_xpvav_root.45
	movq	%rax, PL_xpvav_root(%rip)	# PL_xpvav_root.45, PL_xpvav_root
	.loc 1 974 0
	movq	-8(%rbp), %rax	# xpvav, D.22622
	.loc 1 975 0
	leave
	.cfi_def_cfa 7, 8
	ret
	.cfi_endproc
.LFE34:
	.size	S_new_xpvav, .-S_new_xpvav
	.type	S_del_xpvav, @function
S_del_xpvav:
.LFB35:
	.loc 1 981 0
	.cfi_startproc
	pushq	%rbp	#
	.cfi_def_cfa_offset 16
	.cfi_offset 6, -16
	movq	%rsp, %rbp	#,
	.cfi_def_cfa_register 6
	movq	%rdi, -8(%rbp)	# p, p
	.loc 1 983 0
	movq	PL_xpvav_root(%rip), %rdx	# PL_xpvav_root, PL_xpvav_root.46
	movq	-8(%rbp), %rax	# p, tmp60
	movq	%rdx, (%rax)	# PL_xpvav_root.46, p_2(D)->xav_array
	.loc 1 984 0
	movq	-8(%rbp), %rax	# p, tmp61
	movq	%rax, PL_xpvav_root(%rip)	# tmp61, PL_xpvav_root
	.loc 1 986 0
	popq	%rbp	#
	.cfi_def_cfa 7, 8
	ret
	.cfi_endproc
.LFE35:
	.size	S_del_xpvav, .-S_del_xpvav
	.type	S_more_xpvav, @function
S_more_xpvav:
.LFB36:
	.loc 1 992 0
	.cfi_startproc
	pushq	%rbp	#
	.cfi_def_cfa_offset 16
	.cfi_offset 6, -16
	movq	%rsp, %rbp	#,
	.cfi_def_cfa_register 6
	pushq	%r12	#
	pushq	%rbx	#
	.cfi_offset 12, -24
	.cfi_offset 3, -32
	.loc 1 995 0
	movl	$4080, %edi	#,
	call	Perl_safesysmalloc	#
	movq	%rax, %rbx	#, xpvav
	.loc 1 996 0
	movq	PL_xpvav_arenaroot(%rip), %rax	# PL_xpvav_arenaroot, PL_xpvav_arenaroot.47
	movq	%rax, (%rbx)	# PL_xpvav_arenaroot.47, xpvav_2->xav_array
	.loc 1 997 0
	movq	%rbx, PL_xpvav_arenaroot(%rip)	# xpvav, PL_xpvav_arenaroot
	.loc 1 999 0
	leaq	4000(%rbx), %r12	#, xpvavend
	.loc 1 1000 0
	addq	$80, %rbx	#, xpvav
	movq	%rbx, PL_xpvav_root(%rip)	# xpvav, PL_xpvav_root
	.loc 1 1001 0
	jmp	.L124	#
.L125:
	.loc 1 1002 0
	leaq	80(%rbx), %rax	#, D.22623
	movq	%rax, (%rbx)	# D.22623, xpvav_1->xav_array
	.loc 1 1003 0
	addq	$80, %rbx	#, xpvav
.L124:
	.loc 1 1001 0 discriminator 1
	cmpq	%r12, %rbx	# xpvavend, xpvav
	jb	.L125	#,
	.loc 1 1005 0
	movq	$0, (%rbx)	#, xpvav_1->xav_array
	.loc 1 1006 0
	popq	%rbx	#
	popq	%r12	#
	popq	%rbp	#
	.cfi_def_cfa 7, 8
	ret
	.cfi_endproc
.LFE36:
	.size	S_more_xpvav, .-S_more_xpvav
	.type	S_new_xpvhv, @function
S_new_xpvhv:
.LFB37:
	.loc 1 1012 0
	.cfi_startproc
	pushq	%rbp	#
	.cfi_def_cfa_offset 16
	.cfi_offset 6, -16
	movq	%rsp, %rbp	#,
	.cfi_def_cfa_register 6
	subq	$16, %rsp	#,
	.loc 1 1015 0
	movq	PL_xpvhv_root(%rip), %rax	# PL_xpvhv_root, PL_xpvhv_root.48
	testq	%rax, %rax	# PL_xpvhv_root.48
	jne	.L127	#,
	.loc 1 1016 0
	call	S_more_xpvhv	#
.L127:
	.loc 1 1017 0
	movq	PL_xpvhv_root(%rip), %rax	# PL_xpvhv_root, tmp63
	movq	%rax, -8(%rbp)	# tmp63, xpvhv
	.loc 1 1018 0
	movq	-8(%rbp), %rax	# xpvhv, tmp64
	movq	(%rax), %rax	# xpvhv_2->xhv_array, PL_xpvhv_root.49
	movq	%rax, PL_xpvhv_root(%rip)	# PL_xpvhv_root.49, PL_xpvhv_root
	.loc 1 1020 0
	movq	-8(%rbp), %rax	# xpvhv, D.22624
	.loc 1 1021 0
	leave
	.cfi_def_cfa 7, 8
	ret
	.cfi_endproc
.LFE37:
	.size	S_new_xpvhv, .-S_new_xpvhv
	.type	S_del_xpvhv, @function
S_del_xpvhv:
.LFB38:
	.loc 1 1027 0
	.cfi_startproc
	pushq	%rbp	#
	.cfi_def_cfa_offset 16
	.cfi_offset 6, -16
	movq	%rsp, %rbp	#,
	.cfi_def_cfa_register 6
	movq	%rdi, -8(%rbp)	# p, p
	.loc 1 1029 0
	movq	PL_xpvhv_root(%rip), %rdx	# PL_xpvhv_root, PL_xpvhv_root.50
	movq	-8(%rbp), %rax	# p, tmp60
	movq	%rdx, (%rax)	# PL_xpvhv_root.50, p_2(D)->xhv_array
	.loc 1 1030 0
	movq	-8(%rbp), %rax	# p, tmp61
	movq	%rax, PL_xpvhv_root(%rip)	# tmp61, PL_xpvhv_root
	.loc 1 1032 0
	popq	%rbp	#
	.cfi_def_cfa 7, 8
	ret
	.cfi_endproc
.LFE38:
	.size	S_del_xpvhv, .-S_del_xpvhv
	.type	S_more_xpvhv, @function
S_more_xpvhv:
.LFB39:
	.loc 1 1038 0
	.cfi_startproc
	pushq	%rbp	#
	.cfi_def_cfa_offset 16
	.cfi_offset 6, -16
	movq	%rsp, %rbp	#,
	.cfi_def_cfa_register 6
	pushq	%r12	#
	pushq	%rbx	#
	.cfi_offset 12, -24
	.cfi_offset 3, -32
	.loc 1 1041 0
	movl	$4048, %edi	#,
	call	Perl_safesysmalloc	#
	movq	%rax, %rbx	#, xpvhv
	.loc 1 1042 0
	movq	PL_xpvhv_arenaroot(%rip), %rax	# PL_xpvhv_arenaroot, PL_xpvhv_arenaroot.51
	movq	%rax, (%rbx)	# PL_xpvhv_arenaroot.51, xpvhv_2->xhv_array
	.loc 1 1043 0
	movq	%rbx, PL_xpvhv_arenaroot(%rip)	# xpvhv, PL_xpvhv_arenaroot
	.loc 1 1045 0
	leaq	3960(%rbx), %r12	#, xpvhvend
	.loc 1 1046 0
	addq	$88, %rbx	#, xpvhv
	movq	%rbx, PL_xpvhv_root(%rip)	# xpvhv, PL_xpvhv_root
	.loc 1 1047 0
	jmp	.L131	#
.L132:
	.loc 1 1048 0
	leaq	88(%rbx), %rax	#, D.22625
	movq	%rax, (%rbx)	# D.22625, xpvhv_1->xhv_array
	.loc 1 1049 0
	addq	$88, %rbx	#, xpvhv
.L131:
	.loc 1 1047 0 discriminator 1
	cmpq	%r12, %rbx	# xpvhvend, xpvhv
	jb	.L132	#,
	.loc 1 1051 0
	movq	$0, (%rbx)	#, xpvhv_1->xhv_array
	.loc 1 1052 0
	popq	%rbx	#
	popq	%r12	#
	popq	%rbp	#
	.cfi_def_cfa 7, 8
	ret
	.cfi_endproc
.LFE39:
	.size	S_more_xpvhv, .-S_more_xpvhv
	.type	S_new_xpvmg, @function
S_new_xpvmg:
.LFB40:
	.loc 1 1058 0
	.cfi_startproc
	pushq	%rbp	#
	.cfi_def_cfa_offset 16
	.cfi_offset 6, -16
	movq	%rsp, %rbp	#,
	.cfi_def_cfa_register 6
	subq	$16, %rsp	#,
	.loc 1 1061 0
	movq	PL_xpvmg_root(%rip), %rax	# PL_xpvmg_root, PL_xpvmg_root.52
	testq	%rax, %rax	# PL_xpvmg_root.52
	jne	.L134	#,
	.loc 1 1062 0
	call	S_more_xpvmg	#
.L134:
	.loc 1 1063 0
	movq	PL_xpvmg_root(%rip), %rax	# PL_xpvmg_root, tmp63
	movq	%rax, -8(%rbp)	# tmp63, xpvmg
	.loc 1 1064 0
	movq	-8(%rbp), %rax	# xpvmg, tmp64
	movq	(%rax), %rax	# xpvmg_2->xpv_pv, PL_xpvmg_root.53
	movq	%rax, PL_xpvmg_root(%rip)	# PL_xpvmg_root.53, PL_xpvmg_root
	.loc 1 1066 0
	movq	-8(%rbp), %rax	# xpvmg, D.22626
	.loc 1 1067 0
	leave
	.cfi_def_cfa 7, 8
	ret
	.cfi_endproc
.LFE40:
	.size	S_new_xpvmg, .-S_new_xpvmg
	.type	S_del_xpvmg, @function
S_del_xpvmg:
.LFB41:
	.loc 1 1073 0
	.cfi_startproc
	pushq	%rbp	#
	.cfi_def_cfa_offset 16
	.cfi_offset 6, -16
	movq	%rsp, %rbp	#,
	.cfi_def_cfa_register 6
	movq	%rdi, -8(%rbp)	# p, p
	.loc 1 1075 0
	movq	PL_xpvmg_root(%rip), %rdx	# PL_xpvmg_root, PL_xpvmg_root.54
	movq	-8(%rbp), %rax	# p, tmp60
	movq	%rdx, (%rax)	# PL_xpvmg_root.54, p_2(D)->xpv_pv
	.loc 1 1076 0
	movq	-8(%rbp), %rax	# p, tmp61
	movq	%rax, PL_xpvmg_root(%rip)	# tmp61, PL_xpvmg_root
	.loc 1 1078 0
	popq	%rbp	#
	.cfi_def_cfa 7, 8
	ret
	.cfi_endproc
.LFE41:
	.size	S_del_xpvmg, .-S_del_xpvmg
	.type	S_more_xpvmg, @function
S_more_xpvmg:
.LFB42:
	.loc 1 1084 0
	.cfi_startproc
	pushq	%rbp	#
	.cfi_def_cfa_offset 16
	.cfi_offset 6, -16
	movq	%rsp, %rbp	#,
	.cfi_def_cfa_register 6
	pushq	%r12	#
	pushq	%rbx	#
	.cfi_offset 12, -24
	.cfi_offset 3, -32
	.loc 1 1087 0
	movl	$4032, %edi	#,
	call	Perl_safesysmalloc	#
	movq	%rax, %rbx	#, xpvmg
	.loc 1 1088 0
	movq	PL_xpvmg_arenaroot(%rip), %rax	# PL_xpvmg_arenaroot, PL_xpvmg_arenaroot.55
	movq	%rax, (%rbx)	# PL_xpvmg_arenaroot.55, xpvmg_2->xpv_pv
	.loc 1 1089 0
	movq	%rbx, PL_xpvmg_arenaroot(%rip)	# xpvmg, PL_xpvmg_arenaroot
	.loc 1 1091 0
	leaq	3976(%rbx), %r12	#, xpvmgend
	.loc 1 1092 0
	addq	$56, %rbx	#, xpvmg
	movq	%rbx, PL_xpvmg_root(%rip)	# xpvmg, PL_xpvmg_root
	.loc 1 1093 0
	jmp	.L138	#
.L139:
	.loc 1 1094 0
	leaq	56(%rbx), %rax	#, D.22627
	movq	%rax, (%rbx)	# D.22627, xpvmg_1->xpv_pv
	.loc 1 1095 0
	addq	$56, %rbx	#, xpvmg
.L138:
	.loc 1 1093 0 discriminator 1
	cmpq	%r12, %rbx	# xpvmgend, xpvmg
	jb	.L139	#,
	.loc 1 1097 0
	movq	$0, (%rbx)	#, xpvmg_1->xpv_pv
	.loc 1 1098 0
	popq	%rbx	#
	popq	%r12	#
	popq	%rbp	#
	.cfi_def_cfa 7, 8
	ret
	.cfi_endproc
.LFE42:
	.size	S_more_xpvmg, .-S_more_xpvmg
	.type	S_new_xpvlv, @function
S_new_xpvlv:
.LFB43:
	.loc 1 1104 0
	.cfi_startproc
	pushq	%rbp	#
	.cfi_def_cfa_offset 16
	.cfi_offset 6, -16
	movq	%rsp, %rbp	#,
	.cfi_def_cfa_register 6
	subq	$16, %rsp	#,
	.loc 1 1107 0
	movq	PL_xpvlv_root(%rip), %rax	# PL_xpvlv_root, PL_xpvlv_root.56
	testq	%rax, %rax	# PL_xpvlv_root.56
	jne	.L141	#,
	.loc 1 1108 0
	call	S_more_xpvlv	#
.L141:
	.loc 1 1109 0
	movq	PL_xpvlv_root(%rip), %rax	# PL_xpvlv_root, tmp63
	movq	%rax, -8(%rbp)	# tmp63, xpvlv
	.loc 1 1110 0
	movq	-8(%rbp), %rax	# xpvlv, tmp64
	movq	(%rax), %rax	# xpvlv_2->xpv_pv, PL_xpvlv_root.57
	movq	%rax, PL_xpvlv_root(%rip)	# PL_xpvlv_root.57, PL_xpvlv_root
	.loc 1 1112 0
	movq	-8(%rbp), %rax	# xpvlv, D.22628
	.loc 1 1113 0
	leave
	.cfi_def_cfa 7, 8
	ret
	.cfi_endproc
.LFE43:
	.size	S_new_xpvlv, .-S_new_xpvlv
	.type	S_del_xpvlv, @function
S_del_xpvlv:
.LFB44:
	.loc 1 1119 0
	.cfi_startproc
	pushq	%rbp	#
	.cfi_def_cfa_offset 16
	.cfi_offset 6, -16
	movq	%rsp, %rbp	#,
	.cfi_def_cfa_register 6
	movq	%rdi, -8(%rbp)	# p, p
	.loc 1 1121 0
	movq	PL_xpvlv_root(%rip), %rdx	# PL_xpvlv_root, PL_xpvlv_root.58
	movq	-8(%rbp), %rax	# p, tmp60
	movq	%rdx, (%rax)	# PL_xpvlv_root.58, p_2(D)->xpv_pv
	.loc 1 1122 0
	movq	-8(%rbp), %rax	# p, tmp61
	movq	%rax, PL_xpvlv_root(%rip)	# tmp61, PL_xpvlv_root
	.loc 1 1124 0
	popq	%rbp	#
	.cfi_def_cfa 7, 8
	ret
	.cfi_endproc
.LFE44:
	.size	S_del_xpvlv, .-S_del_xpvlv
	.type	S_more_xpvlv, @function
S_more_xpvlv:
.LFB45:
	.loc 1 1130 0
	.cfi_startproc
	pushq	%rbp	#
	.cfi_def_cfa_offset 16
	.cfi_offset 6, -16
	movq	%rsp, %rbp	#,
	.cfi_def_cfa_register 6
	pushq	%r12	#
	pushq	%rbx	#
	.cfi_offset 12, -24
	.cfi_offset 3, -32
	.loc 1 1133 0
	movl	$4048, %edi	#,
	call	Perl_safesysmalloc	#
	movq	%rax, %rbx	#, xpvlv
	.loc 1 1134 0
	movq	PL_xpvlv_arenaroot(%rip), %rax	# PL_xpvlv_arenaroot, PL_xpvlv_arenaroot.59
	movq	%rax, (%rbx)	# PL_xpvlv_arenaroot.59, xpvlv_2->xpv_pv
	.loc 1 1135 0
	movq	%rbx, PL_xpvlv_arenaroot(%rip)	# xpvlv, PL_xpvlv_arenaroot
	.loc 1 1137 0
	leaq	3960(%rbx), %r12	#, xpvlvend
	.loc 1 1138 0
	addq	$88, %rbx	#, xpvlv
	movq	%rbx, PL_xpvlv_root(%rip)	# xpvlv, PL_xpvlv_root
	.loc 1 1139 0
	jmp	.L145	#
.L146:
	.loc 1 1140 0
	leaq	88(%rbx), %rax	#, D.22629
	movq	%rax, (%rbx)	# D.22629, xpvlv_1->xpv_pv
	.loc 1 1141 0
	addq	$88, %rbx	#, xpvlv
.L145:
	.loc 1 1139 0 discriminator 1
	cmpq	%r12, %rbx	# xpvlvend, xpvlv
	jb	.L146	#,
	.loc 1 1143 0
	movq	$0, (%rbx)	#, xpvlv_1->xpv_pv
	.loc 1 1144 0
	popq	%rbx	#
	popq	%r12	#
	popq	%rbp	#
	.cfi_def_cfa 7, 8
	ret
	.cfi_endproc
.LFE45:
	.size	S_more_xpvlv, .-S_more_xpvlv
	.type	S_new_xpvbm, @function
S_new_xpvbm:
.LFB46:
	.loc 1 1150 0
	.cfi_startproc
	pushq	%rbp	#
	.cfi_def_cfa_offset 16
	.cfi_offset 6, -16
	movq	%rsp, %rbp	#,
	.cfi_def_cfa_register 6
	subq	$16, %rsp	#,
	.loc 1 1153 0
	movq	PL_xpvbm_root(%rip), %rax	# PL_xpvbm_root, PL_xpvbm_root.60
	testq	%rax, %rax	# PL_xpvbm_root.60
	jne	.L148	#,
	.loc 1 1154 0
	call	S_more_xpvbm	#
.L148:
	.loc 1 1155 0
	movq	PL_xpvbm_root(%rip), %rax	# PL_xpvbm_root, tmp63
	movq	%rax, -8(%rbp)	# tmp63, xpvbm
	.loc 1 1156 0
	movq	-8(%rbp), %rax	# xpvbm, tmp64
	movq	(%rax), %rax	# xpvbm_2->xpv_pv, PL_xpvbm_root.61
	movq	%rax, PL_xpvbm_root(%rip)	# PL_xpvbm_root.61, PL_xpvbm_root
	.loc 1 1158 0
	movq	-8(%rbp), %rax	# xpvbm, D.22630
	.loc 1 1159 0
	leave
	.cfi_def_cfa 7, 8
	ret
	.cfi_endproc
.LFE46:
	.size	S_new_xpvbm, .-S_new_xpvbm
	.type	S_del_xpvbm, @function
S_del_xpvbm:
.LFB47:
	.loc 1 1165 0
	.cfi_startproc
	pushq	%rbp	#
	.cfi_def_cfa_offset 16
	.cfi_offset 6, -16
	movq	%rsp, %rbp	#,
	.cfi_def_cfa_register 6
	movq	%rdi, -8(%rbp)	# p, p
	.loc 1 1167 0
	movq	PL_xpvbm_root(%rip), %rdx	# PL_xpvbm_root, PL_xpvbm_root.62
	movq	-8(%rbp), %rax	# p, tmp60
	movq	%rdx, (%rax)	# PL_xpvbm_root.62, p_2(D)->xpv_pv
	.loc 1 1168 0
	movq	-8(%rbp), %rax	# p, tmp61
	movq	%rax, PL_xpvbm_root(%rip)	# tmp61, PL_xpvbm_root
	.loc 1 1170 0
	popq	%rbp	#
	.cfi_def_cfa 7, 8
	ret
	.cfi_endproc
.LFE47:
	.size	S_del_xpvbm, .-S_del_xpvbm
	.type	S_more_xpvbm, @function
S_more_xpvbm:
.LFB48:
	.loc 1 1176 0
	.cfi_startproc
	pushq	%rbp	#
	.cfi_def_cfa_offset 16
	.cfi_offset 6, -16
	movq	%rsp, %rbp	#,
	.cfi_def_cfa_register 6
	pushq	%r12	#
	pushq	%rbx	#
	.cfi_offset 12, -24
	.cfi_offset 3, -32
	.loc 1 1179 0
	movl	$4032, %edi	#,
	call	Perl_safesysmalloc	#
	movq	%rax, %rbx	#, xpvbm
	.loc 1 1180 0
	movq	PL_xpvbm_arenaroot(%rip), %rax	# PL_xpvbm_arenaroot, PL_xpvbm_arenaroot.63
	movq	%rax, (%rbx)	# PL_xpvbm_arenaroot.63, xpvbm_2->xpv_pv
	.loc 1 1181 0
	movq	%rbx, PL_xpvbm_arenaroot(%rip)	# xpvbm, PL_xpvbm_arenaroot
	.loc 1 1183 0
	leaq	3968(%rbx), %r12	#, xpvbmend
	.loc 1 1184 0
	addq	$64, %rbx	#, xpvbm
	movq	%rbx, PL_xpvbm_root(%rip)	# xpvbm, PL_xpvbm_root
	.loc 1 1185 0
	jmp	.L152	#
.L153:
	.loc 1 1186 0
	leaq	64(%rbx), %rax	#, D.22631
	movq	%rax, (%rbx)	# D.22631, xpvbm_1->xpv_pv
	.loc 1 1187 0
	addq	$64, %rbx	#, xpvbm
.L152:
	.loc 1 1185 0 discriminator 1
	cmpq	%r12, %rbx	# xpvbmend, xpvbm
	jb	.L153	#,
	.loc 1 1189 0
	movq	$0, (%rbx)	#, xpvbm_1->xpv_pv
	.loc 1 1190 0
	popq	%rbx	#
	popq	%r12	#
	popq	%rbp	#
	.cfi_def_cfa 7, 8
	ret
	.cfi_endproc
.LFE48:
	.size	S_more_xpvbm, .-S_more_xpvbm
	.section	.rodata
	.align 8
.LC3:
	.string	"Can't upgrade that kind of scalar"
.LC4:
	.string	"Can't upgrade to undef"
	.text
	.globl	Perl_sv_upgrade
	.type	Perl_sv_upgrade, @function
Perl_sv_upgrade:
.LFB49:
	.loc 1 1294 0
	.cfi_startproc
	pushq	%rbp	#
	.cfi_def_cfa_offset 16
	.cfi_offset 6, -16
	movq	%rsp, %rbp	#,
	.cfi_def_cfa_register 6
	pushq	%rbx	#
	subq	$72, %rsp	#,
	.cfi_offset 3, -24
	movq	%rdi, %rbx	# sv, sv
	movl	%esi, -68(%rbp)	# mt, mt
	.loc 1 1304 0
	cmpl	$4, -68(%rbp)	#, mt
	je	.L155	#,
	.loc 1 1304 0 is_stmt 0 discriminator 1
	movl	12(%rbx), %eax	# sv_14(D)->sv_flags, D.22633
	andl	$8388608, %eax	#, D.22633
	testl	%eax, %eax	# D.22633
	je	.L155	#,
	movl	12(%rbx), %eax	# sv_14(D)->sv_flags, D.22633
	andl	$1048576, %eax	#, D.22633
	testl	%eax, %eax	# D.22633
	je	.L155	#,
	.loc 1 1305 0 is_stmt 1
	movq	%rbx, %rdi	# sv,
	call	Perl_sv_force_normal	#
.L155:
	.loc 1 1308 0
	movl	12(%rbx), %eax	# sv_14(D)->sv_flags, D.22633
	movzbl	%al, %eax	# D.22633, D.22633
	cmpl	-68(%rbp), %eax	# mt, D.22633
	jne	.L156	#,
	.loc 1 1309 0
	movl	$1, %eax	#, D.22632
	jmp	.L157	#
.L156:
	.loc 1 1311 0
	cmpl	$4, -68(%rbp)	#, mt
	ja	.L158	#,
	.loc 1 1312 0
	movl	12(%rbx), %eax	# sv_14(D)->sv_flags, D.22633
	andl	$2097152, %eax	#, D.22633
	testl	%eax, %eax	# D.22633
	je	.L158	#,
	.loc 1 1312 0 is_stmt 0 discriminator 1
	movq	%rbx, %rdi	# sv,
	call	Perl_sv_backoff	#
	testl	%eax, %eax	# D.22634
	je	.L158	#,
	.loc 1 1312 0
	nop
.L158:
	.loc 1 1314 0 is_stmt 1
	movq	$0, -56(%rbp)	#, pv
	.loc 1 1315 0
	movl	$0, -64(%rbp)	#, cur
	.loc 1 1316 0
	movl	$0, -60(%rbp)	#, len
	.loc 1 1317 0
	movq	$0, -48(%rbp)	#, iv
	.loc 1 1318 0
	movl	$0, %eax	#, tmp263
	movq	%rax, -40(%rbp)	# tmp263, nv
	.loc 1 1319 0
	movq	$0, -32(%rbp)	#, magic
	.loc 1 1320 0
	movq	$0, -24(%rbp)	#, stash
	.loc 1 1322 0
	movl	12(%rbx), %eax	# sv_14(D)->sv_flags, D.22633
	movzbl	%al, %eax	# D.22633, D.22633
	cmpl	$7, %eax	#, D.22633
	ja	.L160	#,
	movl	%eax, %eax	# D.22633, tmp264
	movq	.L162(,%rax,8), %rax	#, tmp265
	jmp	*%rax	# tmp265
	.section	.rodata
	.align 8
	.align 4
.L162:
	.quad	.L199
	.quad	.L163
	.quad	.L164
	.quad	.L165
	.quad	.L166
	.quad	.L167
	.quad	.L168
	.quad	.L169
	.text
.L163:
	.loc 1 1326 0
	movq	(%rbx), %rax	# sv_14(D)->sv_any, D.22635
	movq	24(%rax), %rax	# MEM[(struct XPVIV *)_36].xiv_iv, tmp266
	movq	%rax, -48(%rbp)	# tmp266, iv
	.loc 1 1327 0
	movq	(%rbx), %rax	# sv_14(D)->sv_any, D.22635
	movq	%rax, %rdi	# D.22635,
	call	S_del_xiv	#
	.loc 1 1328 0
	cmpl	$2, -68(%rbp)	#, mt
	jne	.L171	#,
	.loc 1 1329 0
	movl	$6, -68(%rbp)	#, mt
	jmp	.L172	#
.L171:
	.loc 1 1330 0
	cmpl	$4, -68(%rbp)	#, mt
	ja	.L172	#,
	.loc 1 1331 0
	movl	$5, -68(%rbp)	#, mt
	.loc 1 1332 0
	jmp	.L170	#
.L172:
	jmp	.L170	#
.L164:
	.loc 1 1334 0
	movq	(%rbx), %rax	# sv_14(D)->sv_any, D.22635
	movq	32(%rax), %rax	# MEM[(struct XPVNV *)_41].xnv_nv, tmp267
	movq	%rax, -40(%rbp)	# tmp267, nv
	.loc 1 1335 0
	movq	(%rbx), %rax	# sv_14(D)->sv_any, D.22635
	movq	%rax, %rdi	# D.22635,
	call	S_del_xnv	#
	.loc 1 1336 0
	cmpl	$5, -68(%rbp)	#, mt
	ja	.L173	#,
	.loc 1 1337 0
	movl	$6, -68(%rbp)	#, mt
	.loc 1 1338 0
	jmp	.L170	#
.L173:
	jmp	.L170	#
.L165:
	.loc 1 1340 0
	movq	(%rbx), %rax	# sv_14(D)->sv_any, D.22635
	movq	(%rax), %rax	# MEM[(struct XRV *)_45].xrv_rv, tmp268
	movq	%rax, -56(%rbp)	# tmp268, pv
	.loc 1 1341 0
	movq	(%rbx), %rax	# sv_14(D)->sv_any, D.22635
	movq	%rax, %rdi	# D.22635,
	call	S_del_xrv	#
	.loc 1 1342 0
	jmp	.L170	#
.L166:
	.loc 1 1344 0
	movq	(%rbx), %rax	# sv_14(D)->sv_any, D.22635
	movq	(%rax), %rax	# MEM[(struct XPV *)_48].xpv_pv, tmp269
	movq	%rax, -56(%rbp)	# tmp269, pv
	.loc 1 1345 0
	movq	(%rbx), %rax	# sv_14(D)->sv_any, D.22635
	movq	8(%rax), %rax	# MEM[(struct XPV *)_50].xpv_cur, D.22636
	movl	%eax, -64(%rbp)	# D.22636, cur
	.loc 1 1346 0
	movq	(%rbx), %rax	# sv_14(D)->sv_any, D.22635
	movq	16(%rax), %rax	# MEM[(struct XPV *)_53].xpv_len, D.22636
	movl	%eax, -60(%rbp)	# D.22636, len
	.loc 1 1347 0
	movq	(%rbx), %rax	# sv_14(D)->sv_any, D.22635
	movq	%rax, %rdi	# D.22635,
	call	S_del_xpv	#
	.loc 1 1348 0
	cmpl	$1, -68(%rbp)	#, mt
	ja	.L174	#,
	.loc 1 1349 0
	movl	$5, -68(%rbp)	#, mt
	jmp	.L175	#
.L174:
	.loc 1 1350 0
	cmpl	$2, -68(%rbp)	#, mt
	jne	.L175	#,
	.loc 1 1351 0
	movl	$6, -68(%rbp)	#, mt
	.loc 1 1352 0
	jmp	.L170	#
.L175:
	jmp	.L170	#
.L167:
	.loc 1 1354 0
	movq	(%rbx), %rax	# sv_14(D)->sv_any, D.22635
	movq	(%rax), %rax	# MEM[(struct XPV *)_59].xpv_pv, tmp270
	movq	%rax, -56(%rbp)	# tmp270, pv
	.loc 1 1355 0
	movq	(%rbx), %rax	# sv_14(D)->sv_any, D.22635
	movq	8(%rax), %rax	# MEM[(struct XPV *)_61].xpv_cur, D.22636
	movl	%eax, -64(%rbp)	# D.22636, cur
	.loc 1 1356 0
	movq	(%rbx), %rax	# sv_14(D)->sv_any, D.22635
	movq	16(%rax), %rax	# MEM[(struct XPV *)_64].xpv_len, D.22636
	movl	%eax, -60(%rbp)	# D.22636, len
	.loc 1 1357 0
	movq	(%rbx), %rax	# sv_14(D)->sv_any, D.22635
	movq	24(%rax), %rax	# MEM[(struct XPVIV *)_67].xiv_iv, tmp271
	movq	%rax, -48(%rbp)	# tmp271, iv
	.loc 1 1358 0
	movq	(%rbx), %rax	# sv_14(D)->sv_any, D.22635
	movq	%rax, %rdi	# D.22635,
	call	S_del_xpviv	#
	.loc 1 1359 0
	jmp	.L170	#
.L168:
	.loc 1 1361 0
	movq	(%rbx), %rax	# sv_14(D)->sv_any, D.22635
	movq	(%rax), %rax	# MEM[(struct XPV *)_70].xpv_pv, tmp272
	movq	%rax, -56(%rbp)	# tmp272, pv
	.loc 1 1362 0
	movq	(%rbx), %rax	# sv_14(D)->sv_any, D.22635
	movq	8(%rax), %rax	# MEM[(struct XPV *)_72].xpv_cur, D.22636
	movl	%eax, -64(%rbp)	# D.22636, cur
	.loc 1 1363 0
	movq	(%rbx), %rax	# sv_14(D)->sv_any, D.22635
	movq	16(%rax), %rax	# MEM[(struct XPV *)_75].xpv_len, D.22636
	movl	%eax, -60(%rbp)	# D.22636, len
	.loc 1 1364 0
	movq	(%rbx), %rax	# sv_14(D)->sv_any, D.22635
	movq	24(%rax), %rax	# MEM[(struct XPVIV *)_78].xiv_iv, tmp273
	movq	%rax, -48(%rbp)	# tmp273, iv
	.loc 1 1365 0
	movq	(%rbx), %rax	# sv_14(D)->sv_any, D.22635
	movq	32(%rax), %rax	# MEM[(struct XPVNV *)_80].xnv_nv, tmp274
	movq	%rax, -40(%rbp)	# tmp274, nv
	.loc 1 1366 0
	movq	(%rbx), %rax	# sv_14(D)->sv_any, D.22635
	movq	%rax, %rdi	# D.22635,
	call	S_del_xpvnv	#
	.loc 1 1367 0
	jmp	.L170	#
.L169:
	.loc 1 1369 0
	movq	(%rbx), %rax	# sv_14(D)->sv_any, D.22635
	movq	(%rax), %rax	# MEM[(struct XPV *)_83].xpv_pv, tmp275
	movq	%rax, -56(%rbp)	# tmp275, pv
	.loc 1 1370 0
	movq	(%rbx), %rax	# sv_14(D)->sv_any, D.22635
	movq	8(%rax), %rax	# MEM[(struct XPV *)_85].xpv_cur, D.22636
	movl	%eax, -64(%rbp)	# D.22636, cur
	.loc 1 1371 0
	movq	(%rbx), %rax	# sv_14(D)->sv_any, D.22635
	movq	16(%rax), %rax	# MEM[(struct XPV *)_88].xpv_len, D.22636
	movl	%eax, -60(%rbp)	# D.22636, len
	.loc 1 1372 0
	movq	(%rbx), %rax	# sv_14(D)->sv_any, D.22635
	movq	24(%rax), %rax	# MEM[(struct XPVIV *)_91].xiv_iv, tmp276
	movq	%rax, -48(%rbp)	# tmp276, iv
	.loc 1 1373 0
	movq	(%rbx), %rax	# sv_14(D)->sv_any, D.22635
	movq	32(%rax), %rax	# MEM[(struct XPVNV *)_93].xnv_nv, tmp277
	movq	%rax, -40(%rbp)	# tmp277, nv
	.loc 1 1374 0
	movq	(%rbx), %rax	# sv_14(D)->sv_any, D.22635
	movq	40(%rax), %rax	# MEM[(struct XPVMG *)_95].xmg_magic, tmp278
	movq	%rax, -32(%rbp)	# tmp278, magic
	.loc 1 1375 0
	movq	(%rbx), %rax	# sv_14(D)->sv_any, D.22635
	movq	48(%rax), %rax	# MEM[(struct XPVMG *)_97].xmg_stash, tmp279
	movq	%rax, -24(%rbp)	# tmp279, stash
	.loc 1 1376 0
	movq	(%rbx), %rax	# sv_14(D)->sv_any, D.22635
	movq	%rax, %rdi	# D.22635,
	call	S_del_xpvmg	#
	.loc 1 1377 0
	jmp	.L170	#
.L160:
	.loc 1 1379 0
	movl	$.LC3, %edi	#,
	movl	$0, %eax	#,
	call	Perl_croak	#
	jmp	.L170	#
.L199:
	.loc 1 1324 0
	nop
.L170:
	.loc 1 1382 0
	cmpl	$15, -68(%rbp)	#, mt
	ja	.L176	#,
	movl	-68(%rbp), %eax	# mt, tmp280
	movq	.L178(,%rax,8), %rax	#, tmp281
	jmp	*%rax	# tmp281
	.section	.rodata
	.align 8
	.align 4
.L178:
	.quad	.L177
	.quad	.L179
	.quad	.L180
	.quad	.L181
	.quad	.L182
	.quad	.L183
	.quad	.L184
	.quad	.L185
	.quad	.L186
	.quad	.L187
	.quad	.L188
	.quad	.L189
	.quad	.L190
	.quad	.L191
	.quad	.L192
	.quad	.L193
	.text
.L177:
	.loc 1 1384 0
	movl	$.LC4, %edi	#,
	movl	$0, %eax	#,
	call	Perl_croak	#
.L179:
	.loc 1 1386 0
	call	S_new_xiv	#
	movq	%rax, (%rbx)	# D.22637, sv_14(D)->sv_any
	.loc 1 1387 0
	movq	(%rbx), %rax	# sv_14(D)->sv_any, D.22635
	movq	-48(%rbp), %rdx	# iv, tmp282
	movq	%rdx, 24(%rax)	# tmp282, MEM[(struct XPVIV *)_101].xiv_iv
	.loc 1 1388 0
	jmp	.L176	#
.L180:
	.loc 1 1390 0
	call	S_new_xnv	#
	movq	%rax, (%rbx)	# D.22638, sv_14(D)->sv_any
	.loc 1 1391 0
	movq	(%rbx), %rdx	# sv_14(D)->sv_any, D.22635
	movq	-40(%rbp), %rax	# nv, tmp283
	movq	%rax, 32(%rdx)	# tmp283, MEM[(struct XPVNV *)_103].xnv_nv
	.loc 1 1392 0
	jmp	.L176	#
.L181:
	.loc 1 1394 0
	call	S_new_xrv	#
	movq	%rax, (%rbx)	# D.22639, sv_14(D)->sv_any
	.loc 1 1395 0
	movq	(%rbx), %rax	# sv_14(D)->sv_any, D.22635
	movq	-56(%rbp), %rdx	# pv, tmp284
	movq	%rdx, (%rax)	# tmp284, MEM[(struct XRV *)_105].xrv_rv
	.loc 1 1396 0
	jmp	.L176	#
.L182:
	.loc 1 1398 0
	call	S_new_xpv	#
	movq	%rax, (%rbx)	# D.22640, sv_14(D)->sv_any
	.loc 1 1399 0
	movq	(%rbx), %rax	# sv_14(D)->sv_any, D.22635
	movq	-56(%rbp), %rdx	# pv, tmp285
	movq	%rdx, (%rax)	# tmp285, MEM[(struct XPV *)_107].xpv_pv
	.loc 1 1400 0
	movq	(%rbx), %rax	# sv_14(D)->sv_any, D.22635
	movl	-64(%rbp), %edx	# cur, D.22636
	movq	%rdx, 8(%rax)	# D.22636, MEM[(struct XPV *)_108].xpv_cur
	.loc 1 1401 0
	movq	(%rbx), %rax	# sv_14(D)->sv_any, D.22635
	movl	-60(%rbp), %edx	# len, D.22636
	movq	%rdx, 16(%rax)	# D.22636, MEM[(struct XPV *)_110].xpv_len
	.loc 1 1402 0
	jmp	.L176	#
.L183:
	.loc 1 1404 0
	call	S_new_xpviv	#
	movq	%rax, (%rbx)	# D.22637, sv_14(D)->sv_any
	.loc 1 1405 0
	movq	(%rbx), %rax	# sv_14(D)->sv_any, D.22635
	movq	-56(%rbp), %rdx	# pv, tmp286
	movq	%rdx, (%rax)	# tmp286, MEM[(struct XPV *)_113].xpv_pv
	.loc 1 1406 0
	movq	(%rbx), %rax	# sv_14(D)->sv_any, D.22635
	movl	-64(%rbp), %edx	# cur, D.22636
	movq	%rdx, 8(%rax)	# D.22636, MEM[(struct XPV *)_114].xpv_cur
	.loc 1 1407 0
	movq	(%rbx), %rax	# sv_14(D)->sv_any, D.22635
	movl	-60(%rbp), %edx	# len, D.22636
	movq	%rdx, 16(%rax)	# D.22636, MEM[(struct XPV *)_116].xpv_len
	.loc 1 1408 0
	movq	(%rbx), %rax	# sv_14(D)->sv_any, D.22635
	movq	-48(%rbp), %rdx	# iv, tmp287
	movq	%rdx, 24(%rax)	# tmp287, MEM[(struct XPVIV *)_118].xiv_iv
	.loc 1 1409 0
	movl	12(%rbx), %eax	# sv_14(D)->sv_flags, D.22633
	andl	$196608, %eax	#, D.22633
	testl	%eax, %eax	# D.22633
	je	.L194	#,
	.loc 1 1410 0
	movl	12(%rbx), %eax	# sv_14(D)->sv_flags, D.22633
	andl	$2097152, %eax	#, D.22633
	testl	%eax, %eax	# D.22633
	je	.L196	#,
	.loc 1 1410 0 is_stmt 0 discriminator 1
	movq	%rbx, %rdi	# sv,
	call	Perl_sv_backoff	#
	testl	%eax, %eax	# D.22634
	je	.L196	#,
	.loc 1 1410 0
	nop
.L196:
	.loc 1 1410 0 discriminator 3
	movl	12(%rbx), %eax	# sv_14(D)->sv_flags, D.22633
	orl	$16842752, %eax	#, D.22633
	movl	%eax, 12(%rbx)	# D.22633, sv_14(D)->sv_flags
.L194:
	.loc 1 1411 0 is_stmt 1
	movl	12(%rbx), %eax	# sv_14(D)->sv_flags, D.22633
	andl	$-33685505, %eax	#, D.22633
	movl	%eax, 12(%rbx)	# D.22633, sv_14(D)->sv_flags
	.loc 1 1412 0
	jmp	.L176	#
.L184:
	.loc 1 1414 0
	call	S_new_xpvnv	#
	movq	%rax, (%rbx)	# D.22638, sv_14(D)->sv_any
	.loc 1 1415 0
	movq	(%rbx), %rax	# sv_14(D)->sv_any, D.22635
	movq	-56(%rbp), %rdx	# pv, tmp288
	movq	%rdx, (%rax)	# tmp288, MEM[(struct XPV *)_131].xpv_pv
	.loc 1 1416 0
	movq	(%rbx), %rax	# sv_14(D)->sv_any, D.22635
	movl	-64(%rbp), %edx	# cur, D.22636
	movq	%rdx, 8(%rax)	# D.22636, MEM[(struct XPV *)_132].xpv_cur
	.loc 1 1417 0
	movq	(%rbx), %rax	# sv_14(D)->sv_any, D.22635
	movl	-60(%rbp), %edx	# len, D.22636
	movq	%rdx, 16(%rax)	# D.22636, MEM[(struct XPV *)_134].xpv_len
	.loc 1 1418 0
	movq	(%rbx), %rax	# sv_14(D)->sv_any, D.22635
	movq	-48(%rbp), %rdx	# iv, tmp289
	movq	%rdx, 24(%rax)	# tmp289, MEM[(struct XPVIV *)_136].xiv_iv
	.loc 1 1419 0
	movq	(%rbx), %rdx	# sv_14(D)->sv_any, D.22635
	movq	-40(%rbp), %rax	# nv, tmp290
	movq	%rax, 32(%rdx)	# tmp290, MEM[(struct XPVNV *)_137].xnv_nv
	.loc 1 1420 0
	jmp	.L176	#
.L185:
	.loc 1 1422 0
	call	S_new_xpvmg	#
	movq	%rax, (%rbx)	# D.22641, sv_14(D)->sv_any
	.loc 1 1423 0
	movq	(%rbx), %rax	# sv_14(D)->sv_any, D.22635
	movq	-56(%rbp), %rdx	# pv, tmp291
	movq	%rdx, (%rax)	# tmp291, MEM[(struct XPV *)_139].xpv_pv
	.loc 1 1424 0
	movq	(%rbx), %rax	# sv_14(D)->sv_any, D.22635
	movl	-64(%rbp), %edx	# cur, D.22636
	movq	%rdx, 8(%rax)	# D.22636, MEM[(struct XPV *)_140].xpv_cur
	.loc 1 1425 0
	movq	(%rbx), %rax	# sv_14(D)->sv_any, D.22635
	movl	-60(%rbp), %edx	# len, D.22636
	movq	%rdx, 16(%rax)	# D.22636, MEM[(struct XPV *)_142].xpv_len
	.loc 1 1426 0
	movq	(%rbx), %rax	# sv_14(D)->sv_any, D.22635
	movq	-48(%rbp), %rdx	# iv, tmp292
	movq	%rdx, 24(%rax)	# tmp292, MEM[(struct XPVIV *)_144].xiv_iv
	.loc 1 1427 0
	movq	(%rbx), %rdx	# sv_14(D)->sv_any, D.22635
	movq	-40(%rbp), %rax	# nv, tmp293
	movq	%rax, 32(%rdx)	# tmp293, MEM[(struct XPVNV *)_145].xnv_nv
	.loc 1 1428 0
	movq	(%rbx), %rax	# sv_14(D)->sv_any, D.22635
	movq	-32(%rbp), %rdx	# magic, tmp294
	movq	%rdx, 40(%rax)	# tmp294, MEM[(struct XPVMG *)_146].xmg_magic
	.loc 1 1429 0
	movq	(%rbx), %rax	# sv_14(D)->sv_any, D.22635
	movq	-24(%rbp), %rdx	# stash, tmp295
	movq	%rdx, 48(%rax)	# tmp295, MEM[(struct XPVMG *)_147].xmg_stash
	.loc 1 1430 0
	jmp	.L176	#
.L187:
	.loc 1 1432 0
	call	S_new_xpvlv	#
	movq	%rax, (%rbx)	# D.22642, sv_14(D)->sv_any
	.loc 1 1433 0
	movq	(%rbx), %rax	# sv_14(D)->sv_any, D.22635
	movq	-56(%rbp), %rdx	# pv, tmp296
	movq	%rdx, (%rax)	# tmp296, MEM[(struct XPV *)_149].xpv_pv
	.loc 1 1434 0
	movq	(%rbx), %rax	# sv_14(D)->sv_any, D.22635
	movl	-64(%rbp), %edx	# cur, D.22636
	movq	%rdx, 8(%rax)	# D.22636, MEM[(struct XPV *)_150].xpv_cur
	.loc 1 1435 0
	movq	(%rbx), %rax	# sv_14(D)->sv_any, D.22635
	movl	-60(%rbp), %edx	# len, D.22636
	movq	%rdx, 16(%rax)	# D.22636, MEM[(struct XPV *)_152].xpv_len
	.loc 1 1436 0
	movq	(%rbx), %rax	# sv_14(D)->sv_any, D.22635
	movq	-48(%rbp), %rdx	# iv, tmp297
	movq	%rdx, 24(%rax)	# tmp297, MEM[(struct XPVIV *)_154].xiv_iv
	.loc 1 1437 0
	movq	(%rbx), %rdx	# sv_14(D)->sv_any, D.22635
	movq	-40(%rbp), %rax	# nv, tmp298
	movq	%rax, 32(%rdx)	# tmp298, MEM[(struct XPVNV *)_155].xnv_nv
	.loc 1 1438 0
	movq	(%rbx), %rax	# sv_14(D)->sv_any, D.22635
	movq	-32(%rbp), %rdx	# magic, tmp299
	movq	%rdx, 40(%rax)	# tmp299, MEM[(struct XPVMG *)_156].xmg_magic
	.loc 1 1439 0
	movq	(%rbx), %rax	# sv_14(D)->sv_any, D.22635
	movq	-24(%rbp), %rdx	# stash, tmp300
	movq	%rdx, 48(%rax)	# tmp300, MEM[(struct XPVMG *)_157].xmg_stash
	.loc 1 1440 0
	movq	(%rbx), %rax	# sv_14(D)->sv_any, D.22635
	movq	$0, 56(%rax)	#, MEM[(struct XPVLV *)_158].xlv_targoff
	.loc 1 1441 0
	movq	(%rbx), %rax	# sv_14(D)->sv_any, D.22635
	movq	$0, 64(%rax)	#, MEM[(struct XPVLV *)_159].xlv_targlen
	.loc 1 1442 0
	movq	(%rbx), %rax	# sv_14(D)->sv_any, D.22635
	movq	$0, 72(%rax)	#, MEM[(struct XPVLV *)_160].xlv_targ
	.loc 1 1443 0
	movq	(%rbx), %rax	# sv_14(D)->sv_any, D.22635
	movb	$0, 80(%rax)	#, MEM[(struct XPVLV *)_161].xlv_type
	.loc 1 1444 0
	jmp	.L176	#
.L188:
	.loc 1 1446 0
	call	S_new_xpvav	#
	movq	%rax, (%rbx)	# D.22643, sv_14(D)->sv_any
	.loc 1 1447 0
	cmpq	$0, -56(%rbp)	#, pv
	je	.L197	#,
	.loc 1 1448 0
	movq	-56(%rbp), %rax	# pv, tmp301
	movq	%rax, %rdi	# tmp301,
	call	Perl_safesysfree	#
.L197:
	.loc 1 1449 0
	movq	(%rbx), %rax	# sv_14(D)->sv_any, D.22635
	movq	$0, (%rax)	#, MEM[(struct XPV *)_163].xpv_pv
	.loc 1 1450 0
	movq	(%rbx), %rax	# sv_14(D)->sv_any, D.22635
	movq	$-1, 16(%rax)	#, MEM[(struct XPVAV *)_164].xav_max
	.loc 1 1451 0
	movq	(%rbx), %rax	# sv_14(D)->sv_any, D.22635
	movq	$-1, 8(%rax)	#, MEM[(struct XPVAV *)_165].xav_fill
	.loc 1 1452 0
	movq	(%rbx), %rax	# sv_14(D)->sv_any, D.22635
	movq	$0, 24(%rax)	#, MEM[(struct XPVIV *)_166].xiv_iv
	.loc 1 1453 0
	movq	(%rbx), %rdx	# sv_14(D)->sv_any, D.22635
	movl	$0, %eax	#, tmp302
	movq	%rax, 32(%rdx)	# tmp302, MEM[(struct XPVNV *)_167].xnv_nv
	.loc 1 1454 0
	movq	(%rbx), %rax	# sv_14(D)->sv_any, D.22635
	movq	-32(%rbp), %rdx	# magic, tmp303
	movq	%rdx, 40(%rax)	# tmp303, MEM[(struct XPVMG *)_168].xmg_magic
	.loc 1 1455 0
	movq	(%rbx), %rax	# sv_14(D)->sv_any, D.22635
	movq	-24(%rbp), %rdx	# stash, tmp304
	movq	%rdx, 48(%rax)	# tmp304, MEM[(struct XPVMG *)_169].xmg_stash
	.loc 1 1456 0
	movq	(%rbx), %rax	# sv_14(D)->sv_any, D.22635
	movq	$0, 56(%rax)	#, MEM[(struct XPVAV *)_170].xav_alloc
	.loc 1 1457 0
	movq	(%rbx), %rax	# sv_14(D)->sv_any, D.22635
	movq	$0, 64(%rax)	#, MEM[(struct XPVAV *)_171].xav_arylen
	.loc 1 1458 0
	movq	(%rbx), %rax	# sv_14(D)->sv_any, D.22635
	movb	$1, 72(%rax)	#, MEM[(struct XPVAV *)_172].xav_flags
	.loc 1 1459 0
	jmp	.L176	#
.L189:
	.loc 1 1461 0
	call	S_new_xpvhv	#
	movq	%rax, (%rbx)	# D.22644, sv_14(D)->sv_any
	.loc 1 1462 0
	cmpq	$0, -56(%rbp)	#, pv
	je	.L198	#,
	.loc 1 1463 0
	movq	-56(%rbp), %rax	# pv, tmp305
	movq	%rax, %rdi	# tmp305,
	call	Perl_safesysfree	#
.L198:
	.loc 1 1464 0
	movq	(%rbx), %rax	# sv_14(D)->sv_any, D.22635
	movq	$0, (%rax)	#, MEM[(struct XPV *)_174].xpv_pv
	.loc 1 1465 0
	movq	(%rbx), %rax	# sv_14(D)->sv_any, D.22635
	movq	$0, 8(%rax)	#, MEM[(struct XPVHV *)_175].xhv_fill
	.loc 1 1466 0
	movq	(%rbx), %rax	# sv_14(D)->sv_any, D.22635
	movq	$0, 16(%rax)	#, MEM[(struct XPVHV *)_176].xhv_max
	.loc 1 1467 0
	movq	(%rbx), %rax	# sv_14(D)->sv_any, D.22635
	movq	$0, 24(%rax)	#, MEM[(struct XPVHV *)_177].xhv_keys
	.loc 1 1468 0
	movq	(%rbx), %rdx	# sv_14(D)->sv_any, D.22635
	movl	$0, %eax	#, tmp306
	movq	%rax, 32(%rdx)	# tmp306, MEM[(struct XPVHV *)_178].xnv_nv
	.loc 1 1469 0
	movq	(%rbx), %rax	# sv_14(D)->sv_any, D.22635
	movq	-32(%rbp), %rdx	# magic, tmp307
	movq	%rdx, 40(%rax)	# tmp307, MEM[(struct XPVMG *)_179].xmg_magic
	.loc 1 1470 0
	movq	(%rbx), %rax	# sv_14(D)->sv_any, D.22635
	movq	-24(%rbp), %rdx	# stash, tmp308
	movq	%rdx, 48(%rax)	# tmp308, MEM[(struct XPVMG *)_180].xmg_stash
	.loc 1 1471 0
	movq	(%rbx), %rax	# sv_14(D)->sv_any, D.22635
	movl	$0, 56(%rax)	#, MEM[(struct XPVHV *)_181].xhv_riter
	.loc 1 1472 0
	movq	(%rbx), %rax	# sv_14(D)->sv_any, D.22635
	movq	$0, 64(%rax)	#, MEM[(struct XPVHV *)_182].xhv_eiter
	.loc 1 1473 0
	movq	(%rbx), %rax	# sv_14(D)->sv_any, D.22635
	movq	$0, 72(%rax)	#, MEM[(struct XPVHV *)_183].xhv_pmroot
	.loc 1 1474 0
	movq	(%rbx), %rax	# sv_14(D)->sv_any, D.22635
	movq	$0, 80(%rax)	#, MEM[(struct XPVHV *)_184].xhv_name
	.loc 1 1475 0
	jmp	.L176	#
.L190:
	.loc 1 1477 0
	call	S_new_xpvcv	#
	movq	%rax, (%rbx)	# D.22645, sv_14(D)->sv_any
	.loc 1 1478 0
	movq	(%rbx), %rax	# sv_14(D)->sv_any, D.22635
	movl	$144, %edx	#,
	movl	$0, %esi	#,
	movq	%rax, %rdi	# D.22635,
	call	memset	#
	.loc 1 1479 0
	movq	(%rbx), %rax	# sv_14(D)->sv_any, D.22635
	movq	-56(%rbp), %rdx	# pv, tmp309
	movq	%rdx, (%rax)	# tmp309, MEM[(struct XPV *)_187].xpv_pv
	.loc 1 1480 0
	movq	(%rbx), %rax	# sv_14(D)->sv_any, D.22635
	movl	-64(%rbp), %edx	# cur, D.22636
	movq	%rdx, 8(%rax)	# D.22636, MEM[(struct XPV *)_188].xpv_cur
	.loc 1 1481 0
	movq	(%rbx), %rax	# sv_14(D)->sv_any, D.22635
	movl	-60(%rbp), %edx	# len, D.22636
	movq	%rdx, 16(%rax)	# D.22636, MEM[(struct XPV *)_190].xpv_len
	.loc 1 1482 0
	movq	(%rbx), %rax	# sv_14(D)->sv_any, D.22635
	movq	-48(%rbp), %rdx	# iv, tmp310
	movq	%rdx, 24(%rax)	# tmp310, MEM[(struct XPVIV *)_192].xiv_iv
	.loc 1 1483 0
	movq	(%rbx), %rdx	# sv_14(D)->sv_any, D.22635
	movq	-40(%rbp), %rax	# nv, tmp311
	movq	%rax, 32(%rdx)	# tmp311, MEM[(struct XPVNV *)_193].xnv_nv
	.loc 1 1484 0
	movq	(%rbx), %rax	# sv_14(D)->sv_any, D.22635
	movq	-32(%rbp), %rdx	# magic, tmp312
	movq	%rdx, 40(%rax)	# tmp312, MEM[(struct XPVMG *)_194].xmg_magic
	.loc 1 1485 0
	movq	(%rbx), %rax	# sv_14(D)->sv_any, D.22635
	movq	-24(%rbp), %rdx	# stash, tmp313
	movq	%rdx, 48(%rax)	# tmp313, MEM[(struct XPVMG *)_195].xmg_stash
	.loc 1 1486 0
	jmp	.L176	#
.L191:
	.loc 1 1488 0
	movl	$96, %edi	#,
	call	Perl_safesysmalloc	#
	movq	%rax, (%rbx)	# D.22635, sv_14(D)->sv_any
	.loc 1 1489 0
	movq	(%rbx), %rax	# sv_14(D)->sv_any, D.22635
	movq	-56(%rbp), %rdx	# pv, tmp314
	movq	%rdx, (%rax)	# tmp314, MEM[(struct XPV *)_197].xpv_pv
	.loc 1 1490 0
	movq	(%rbx), %rax	# sv_14(D)->sv_any, D.22635
	movl	-64(%rbp), %edx	# cur, D.22636
	movq	%rdx, 8(%rax)	# D.22636, MEM[(struct XPV *)_198].xpv_cur
	.loc 1 1491 0
	movq	(%rbx), %rax	# sv_14(D)->sv_any, D.22635
	movl	-60(%rbp), %edx	# len, D.22636
	movq	%rdx, 16(%rax)	# D.22636, MEM[(struct XPV *)_200].xpv_len
	.loc 1 1492 0
	movq	(%rbx), %rax	# sv_14(D)->sv_any, D.22635
	movq	-48(%rbp), %rdx	# iv, tmp315
	movq	%rdx, 24(%rax)	# tmp315, MEM[(struct XPVIV *)_202].xiv_iv
	.loc 1 1493 0
	movq	(%rbx), %rdx	# sv_14(D)->sv_any, D.22635
	movq	-40(%rbp), %rax	# nv, tmp316
	movq	%rax, 32(%rdx)	# tmp316, MEM[(struct XPVNV *)_203].xnv_nv
	.loc 1 1494 0
	movq	(%rbx), %rax	# sv_14(D)->sv_any, D.22635
	movq	-32(%rbp), %rdx	# magic, tmp317
	movq	%rdx, 40(%rax)	# tmp317, MEM[(struct XPVMG *)_204].xmg_magic
	.loc 1 1495 0
	movq	(%rbx), %rax	# sv_14(D)->sv_any, D.22635
	movq	-24(%rbp), %rdx	# stash, tmp318
	movq	%rdx, 48(%rax)	# tmp318, MEM[(struct XPVMG *)_205].xmg_stash
	.loc 1 1496 0
	movq	(%rbx), %rax	# sv_14(D)->sv_any, D.22635
	movq	$0, 56(%rax)	#, MEM[(struct XPVGV *)_206].xgv_gp
	.loc 1 1497 0
	movq	(%rbx), %rax	# sv_14(D)->sv_any, D.22635
	movq	$0, 64(%rax)	#, MEM[(struct XPVGV *)_207].xgv_name
	.loc 1 1498 0
	movq	(%rbx), %rax	# sv_14(D)->sv_any, D.22635
	movq	$0, 72(%rax)	#, MEM[(struct XPVGV *)_208].xgv_namelen
	.loc 1 1499 0
	movq	(%rbx), %rax	# sv_14(D)->sv_any, D.22635
	movq	$0, 80(%rax)	#, MEM[(struct XPVGV *)_209].xgv_stash
	.loc 1 1500 0
	movq	(%rbx), %rax	# sv_14(D)->sv_any, D.22635
	movb	$0, 88(%rax)	#, MEM[(struct XPVGV *)_210].xgv_flags
	.loc 1 1501 0
	jmp	.L176	#
.L186:
	.loc 1 1503 0
	call	S_new_xpvbm	#
	movq	%rax, (%rbx)	# D.22646, sv_14(D)->sv_any
	.loc 1 1504 0
	movq	(%rbx), %rax	# sv_14(D)->sv_any, D.22635
	movq	-56(%rbp), %rdx	# pv, tmp319
	movq	%rdx, (%rax)	# tmp319, MEM[(struct XPV *)_212].xpv_pv
	.loc 1 1505 0
	movq	(%rbx), %rax	# sv_14(D)->sv_any, D.22635
	movl	-64(%rbp), %edx	# cur, D.22636
	movq	%rdx, 8(%rax)	# D.22636, MEM[(struct XPV *)_213].xpv_cur
	.loc 1 1506 0
	movq	(%rbx), %rax	# sv_14(D)->sv_any, D.22635
	movl	-60(%rbp), %edx	# len, D.22636
	movq	%rdx, 16(%rax)	# D.22636, MEM[(struct XPV *)_215].xpv_len
	.loc 1 1507 0
	movq	(%rbx), %rax	# sv_14(D)->sv_any, D.22635
	movq	-48(%rbp), %rdx	# iv, tmp320
	movq	%rdx, 24(%rax)	# tmp320, MEM[(struct XPVIV *)_217].xiv_iv
	.loc 1 1508 0
	movq	(%rbx), %rdx	# sv_14(D)->sv_any, D.22635
	movq	-40(%rbp), %rax	# nv, tmp321
	movq	%rax, 32(%rdx)	# tmp321, MEM[(struct XPVNV *)_218].xnv_nv
	.loc 1 1509 0
	movq	(%rbx), %rax	# sv_14(D)->sv_any, D.22635
	movq	-32(%rbp), %rdx	# magic, tmp322
	movq	%rdx, 40(%rax)	# tmp322, MEM[(struct XPVMG *)_219].xmg_magic
	.loc 1 1510 0
	movq	(%rbx), %rax	# sv_14(D)->sv_any, D.22635
	movq	-24(%rbp), %rdx	# stash, tmp323
	movq	%rdx, 48(%rax)	# tmp323, MEM[(struct XPVMG *)_220].xmg_stash
	.loc 1 1511 0
	movq	(%rbx), %rax	# sv_14(D)->sv_any, D.22635
	movb	$0, 62(%rax)	#, MEM[(struct XPVBM *)_221].xbm_rare
	.loc 1 1512 0
	movq	(%rbx), %rax	# sv_14(D)->sv_any, D.22635
	movl	$0, 56(%rax)	#, MEM[(struct XPVBM *)_222].xbm_useful
	.loc 1 1513 0
	movq	(%rbx), %rax	# sv_14(D)->sv_any, D.22635
	movw	$0, 60(%rax)	#, MEM[(struct XPVBM *)_223].xbm_previous
	.loc 1 1514 0
	jmp	.L176	#
.L192:
	.loc 1 1516 0
	movl	$152, %edi	#,
	call	Perl_safesysmalloc	#
	movq	%rax, (%rbx)	# D.22635, sv_14(D)->sv_any
	.loc 1 1517 0
	movq	(%rbx), %rax	# sv_14(D)->sv_any, D.22635
	movl	$152, %edx	#,
	movl	$0, %esi	#,
	movq	%rax, %rdi	# D.22635,
	call	memset	#
	.loc 1 1518 0
	movq	(%rbx), %rax	# sv_14(D)->sv_any, D.22635
	movq	-56(%rbp), %rdx	# pv, tmp324
	movq	%rdx, (%rax)	# tmp324, MEM[(struct XPV *)_226].xpv_pv
	.loc 1 1519 0
	movq	(%rbx), %rax	# sv_14(D)->sv_any, D.22635
	movl	-64(%rbp), %edx	# cur, D.22636
	movq	%rdx, 8(%rax)	# D.22636, MEM[(struct XPV *)_227].xpv_cur
	.loc 1 1520 0
	movq	(%rbx), %rax	# sv_14(D)->sv_any, D.22635
	movl	-60(%rbp), %edx	# len, D.22636
	movq	%rdx, 16(%rax)	# D.22636, MEM[(struct XPV *)_229].xpv_len
	.loc 1 1521 0
	movq	(%rbx), %rax	# sv_14(D)->sv_any, D.22635
	movq	-48(%rbp), %rdx	# iv, tmp325
	movq	%rdx, 24(%rax)	# tmp325, MEM[(struct XPVIV *)_231].xiv_iv
	.loc 1 1522 0
	movq	(%rbx), %rdx	# sv_14(D)->sv_any, D.22635
	movq	-40(%rbp), %rax	# nv, tmp326
	movq	%rax, 32(%rdx)	# tmp326, MEM[(struct XPVNV *)_232].xnv_nv
	.loc 1 1523 0
	movq	(%rbx), %rax	# sv_14(D)->sv_any, D.22635
	movq	-32(%rbp), %rdx	# magic, tmp327
	movq	%rdx, 40(%rax)	# tmp327, MEM[(struct XPVMG *)_233].xmg_magic
	.loc 1 1524 0
	movq	(%rbx), %rax	# sv_14(D)->sv_any, D.22635
	movq	-24(%rbp), %rdx	# stash, tmp328
	movq	%rdx, 48(%rax)	# tmp328, MEM[(struct XPVMG *)_234].xmg_stash
	.loc 1 1525 0
	jmp	.L176	#
.L193:
	.loc 1 1527 0
	movl	$168, %edi	#,
	call	Perl_safesysmalloc	#
	movq	%rax, (%rbx)	# D.22635, sv_14(D)->sv_any
	.loc 1 1528 0
	movq	(%rbx), %rax	# sv_14(D)->sv_any, D.22635
	movl	$168, %edx	#,
	movl	$0, %esi	#,
	movq	%rax, %rdi	# D.22635,
	call	memset	#
	.loc 1 1529 0
	movq	(%rbx), %rax	# sv_14(D)->sv_any, D.22635
	movq	-56(%rbp), %rdx	# pv, tmp329
	movq	%rdx, (%rax)	# tmp329, MEM[(struct XPV *)_237].xpv_pv
	.loc 1 1530 0
	movq	(%rbx), %rax	# sv_14(D)->sv_any, D.22635
	movl	-64(%rbp), %edx	# cur, D.22636
	movq	%rdx, 8(%rax)	# D.22636, MEM[(struct XPV *)_238].xpv_cur
	.loc 1 1531 0
	movq	(%rbx), %rax	# sv_14(D)->sv_any, D.22635
	movl	-60(%rbp), %edx	# len, D.22636
	movq	%rdx, 16(%rax)	# D.22636, MEM[(struct XPV *)_240].xpv_len
	.loc 1 1532 0
	movq	(%rbx), %rax	# sv_14(D)->sv_any, D.22635
	movq	-48(%rbp), %rdx	# iv, tmp330
	movq	%rdx, 24(%rax)	# tmp330, MEM[(struct XPVIV *)_242].xiv_iv
	.loc 1 1533 0
	movq	(%rbx), %rdx	# sv_14(D)->sv_any, D.22635
	movq	-40(%rbp), %rax	# nv, tmp331
	movq	%rax, 32(%rdx)	# tmp331, MEM[(struct XPVNV *)_243].xnv_nv
	.loc 1 1534 0
	movq	(%rbx), %rax	# sv_14(D)->sv_any, D.22635
	movq	-32(%rbp), %rdx	# magic, tmp332
	movq	%rdx, 40(%rax)	# tmp332, MEM[(struct XPVMG *)_244].xmg_magic
	.loc 1 1535 0
	movq	(%rbx), %rax	# sv_14(D)->sv_any, D.22635
	movq	-24(%rbp), %rdx	# stash, tmp333
	movq	%rdx, 48(%rax)	# tmp333, MEM[(struct XPVMG *)_245].xmg_stash
	.loc 1 1536 0
	movq	(%rbx), %rax	# sv_14(D)->sv_any, D.22635
	movq	$60, 96(%rax)	#, MEM[(struct XPVIO *)_246].xio_page_len
	.loc 1 1537 0
	nop
.L176:
	.loc 1 1539 0
	movl	12(%rbx), %eax	# sv_14(D)->sv_flags, D.22633
	movb	$0, %al	#, D.22633
	movl	%eax, 12(%rbx)	# D.22633, sv_14(D)->sv_flags
	.loc 1 1540 0
	movl	12(%rbx), %eax	# sv_14(D)->sv_flags, D.22633
	orl	-68(%rbp), %eax	# mt, D.22633
	movl	%eax, 12(%rbx)	# D.22633, sv_14(D)->sv_flags
	.loc 1 1541 0
	movl	$1, %eax	#, D.22632
.L157:
	.loc 1 1542 0
	addq	$72, %rsp	#,
	popq	%rbx	#
	popq	%rbp	#
	.cfi_def_cfa 7, 8
	ret
	.cfi_endproc
.LFE49:
	.size	Perl_sv_upgrade, .-Perl_sv_upgrade
	.globl	Perl_sv_backoff
	.type	Perl_sv_backoff, @function
Perl_sv_backoff:
.LFB50:
	.loc 1 1555 0
	.cfi_startproc
	pushq	%rbp	#
	.cfi_def_cfa_offset 16
	.cfi_offset 6, -16
	movq	%rsp, %rbp	#,
	.cfi_def_cfa_register 6
	pushq	%rbx	#
	subq	$24, %rsp	#,
	.cfi_offset 3, -24
	movq	%rdi, %rbx	# sv, sv
	.loc 1 1557 0
	movq	(%rbx), %rax	# sv_1(D)->sv_any, D.22649
	movq	24(%rax), %rax	# MEM[(struct XPVIV *)_2].xiv_iv, D.22650
	testq	%rax, %rax	# D.22650
	je	.L201	#,
.LBB4:
	.loc 1 1558 0
	movq	(%rbx), %rax	# sv_1(D)->sv_any, D.22649
	movq	(%rax), %rax	# MEM[(struct XPV *)_4].xpv_pv, tmp88
	movq	%rax, -24(%rbp)	# tmp88, s
	.loc 1 1559 0
	movq	(%rbx), %rax	# sv_1(D)->sv_any, D.22649
	movq	(%rbx), %rdx	# sv_1(D)->sv_any, D.22649
	movq	16(%rdx), %rcx	# MEM[(struct XPV *)_7].xpv_len, D.22651
	movq	(%rbx), %rdx	# sv_1(D)->sv_any, D.22649
	movq	24(%rdx), %rdx	# MEM[(struct XPVIV *)_9].xiv_iv, D.22650
	addq	%rcx, %rdx	# D.22651, D.22651
	movq	%rdx, 16(%rax)	# D.22651, MEM[(struct XPV *)_6].xpv_len
	.loc 1 1560 0
	movq	(%rbx), %rax	# sv_1(D)->sv_any, D.22649
	movq	(%rbx), %rdx	# sv_1(D)->sv_any, D.22649
	movq	(%rdx), %rcx	# MEM[(struct XPV *)_14].xpv_pv, D.22652
	movq	(%rbx), %rdx	# sv_1(D)->sv_any, D.22649
	movq	24(%rdx), %rdx	# MEM[(struct XPVIV *)_16].xiv_iv, D.22650
	negq	%rdx	# D.22653
	addq	%rcx, %rdx	# D.22652, D.22652
	movq	%rdx, (%rax)	# D.22652, MEM[(struct XPV *)_13].xpv_pv
	.loc 1 1561 0
	movq	(%rbx), %rax	# sv_1(D)->sv_any, D.22649
	movq	$0, 24(%rax)	#, MEM[(struct XPVIV *)_21].xiv_iv
	.loc 1 1562 0
	movq	(%rbx), %rax	# sv_1(D)->sv_any, D.22649
	movq	8(%rax), %rax	# MEM[(struct XPV *)_22].xpv_cur, D.22651
	leaq	1(%rax), %rdx	#, D.22651
	movq	(%rbx), %rax	# sv_1(D)->sv_any, D.22649
	movq	(%rax), %rax	# MEM[(struct XPV *)_25].xpv_pv, D.22652
	movq	-24(%rbp), %rcx	# s, tmp89
	movq	%rcx, %rsi	# tmp89,
	movq	%rax, %rdi	# D.22652,
	call	memmove	#
.L201:
.LBE4:
	.loc 1 1564 0
	movl	12(%rbx), %eax	# sv_1(D)->sv_flags, D.22654
	andl	$-2097153, %eax	#, D.22654
	movl	%eax, 12(%rbx)	# D.22654, sv_1(D)->sv_flags
	.loc 1 1565 0
	movl	$0, %eax	#, D.22655
	.loc 1 1566 0
	addq	$24, %rsp	#,
	popq	%rbx	#
	popq	%rbp	#
	.cfi_def_cfa 7, 8
	ret
	.cfi_endproc
.LFE50:
	.size	Perl_sv_backoff, .-Perl_sv_backoff
	.globl	Perl_sv_grow
	.type	Perl_sv_grow, @function
Perl_sv_grow:
.LFB51:
	.loc 1 1580 0
	.cfi_startproc
	pushq	%rbp	#
	.cfi_def_cfa_offset 16
	.cfi_offset 6, -16
	movq	%rsp, %rbp	#,
	.cfi_def_cfa_register 6
	pushq	%r13	#
	pushq	%r12	#
	pushq	%rbx	#
	subq	$8, %rsp	#,
	.cfi_offset 13, -24
	.cfi_offset 12, -32
	.cfi_offset 3, -40
	movq	%rdi, %rbx	# sv, sv
	movq	%rsi, %r13	# newlen, newlen
	.loc 1 1592 0
	movl	12(%rbx), %eax	# sv_6(D)->sv_flags, D.22656
	andl	$524288, %eax	#, D.22656
	testl	%eax, %eax	# D.22656
	je	.L204	#,
	.loc 1 1593 0
	movq	%rbx, %rdi	# sv,
	call	Perl_sv_unref	#
.L204:
	.loc 1 1594 0
	movl	12(%rbx), %eax	# sv_6(D)->sv_flags, D.22656
	movzbl	%al, %eax	# D.22656, D.22656
	cmpl	$3, %eax	#, D.22656
	ja	.L205	#,
	.loc 1 1595 0
	movl	$4, %esi	#,
	movq	%rbx, %rdi	# sv,
	call	Perl_sv_upgrade	#
	.loc 1 1596 0
	movq	(%rbx), %rax	# sv_6(D)->sv_any, D.22657
	movq	(%rax), %r12	# MEM[(struct XPV *)_11].xpv_pv, s
	jmp	.L206	#
.L205:
	.loc 1 1598 0
	movl	12(%rbx), %eax	# sv_6(D)->sv_flags, D.22656
	andl	$2097152, %eax	#, D.22656
	testl	%eax, %eax	# D.22656
	je	.L207	#,
	.loc 1 1599 0
	movq	%rbx, %rdi	# sv,
	call	Perl_sv_backoff	#
	.loc 1 1600 0
	movq	(%rbx), %rax	# sv_6(D)->sv_any, D.22657
	movq	(%rax), %r12	# MEM[(struct XPV *)_16].xpv_pv, s
	.loc 1 1601 0
	movq	(%rbx), %rax	# sv_6(D)->sv_any, D.22657
	movq	16(%rax), %rax	# MEM[(struct XPV *)_18].xpv_len, D.22658
	cmpq	%r13, %rax	# newlen, D.22658
	jae	.L206	#,
	.loc 1 1602 0
	movq	(%rbx), %rax	# sv_6(D)->sv_any, D.22657
	movq	8(%rax), %rax	# MEM[(struct XPV *)_20].xpv_cur, D.22658
	movq	%r13, %rdx	# newlen, D.22658
	subq	%rax, %rdx	# D.22658, D.22658
	movq	%rdx, %rax	# D.22658, tmp102
	salq	$2, %rax	#, tmp102
	addq	%rdx, %rax	# D.22658, tmp102
	addq	%rax, %rax	# tmp103
	addq	%rax, %r13	# D.22658, newlen
	jmp	.L206	#
.L207:
	.loc 1 1609 0
	movq	(%rbx), %rax	# sv_6(D)->sv_any, D.22657
	movq	(%rax), %r12	# MEM[(struct XPV *)_25].xpv_pv, s
.L206:
	.loc 1 1611 0
	movq	(%rbx), %rax	# sv_6(D)->sv_any, D.22657
	movq	16(%rax), %rax	# MEM[(struct XPV *)_27].xpv_len, D.22658
	cmpq	%r13, %rax	# newlen, D.22658
	jae	.L209	#,
	.loc 1 1612 0
	movq	(%rbx), %rax	# sv_6(D)->sv_any, D.22657
	movq	16(%rax), %rax	# MEM[(struct XPV *)_29].xpv_len, D.22658
	testq	%rax, %rax	# D.22658
	je	.L210	#,
	.loc 1 1612 0 is_stmt 0 discriminator 1
	testq	%r12, %r12	# s
	je	.L210	#,
	.loc 1 1620 0 is_stmt 1
	movq	%r13, %rsi	# newlen,
	movq	%r12, %rdi	# s,
	call	Perl_safesysrealloc	#
	movq	%rax, %r12	#, s
	jmp	.L211	#
.L210:
	.loc 1 1625 0
	movl	12(%rbx), %eax	# sv_6(D)->sv_flags, D.22656
	andl	$8388608, %eax	#, D.22656
	testl	%eax, %eax	# D.22656
	je	.L212	#,
	.loc 1 1625 0 is_stmt 0 discriminator 1
	movl	12(%rbx), %eax	# sv_6(D)->sv_flags, D.22656
	andl	$1048576, %eax	#, D.22656
	testl	%eax, %eax	# D.22656
	je	.L212	#,
	.loc 1 1626 0 is_stmt 1
	movl	12(%rbx), %eax	# sv_6(D)->sv_flags, D.22656
	andl	$-1048577, %eax	#, D.22656
	movl	%eax, 12(%rbx)	# D.22656, sv_6(D)->sv_flags
	.loc 1 1627 0
	movl	12(%rbx), %eax	# sv_6(D)->sv_flags, D.22656
	andl	$-8388609, %eax	#, D.22656
	movl	%eax, 12(%rbx)	# D.22656, sv_6(D)->sv_flags
.L212:
	.loc 1 1629 0
	movq	%r13, %rdi	# newlen,
	call	Perl_safesysmalloc	#
	movq	%rax, %r12	#, s
	.loc 1 1630 0
	movq	(%rbx), %rax	# sv_6(D)->sv_any, D.22657
	movq	(%rax), %rax	# MEM[(struct XPV *)_41].xpv_pv, D.22659
	testq	%rax, %rax	# D.22659
	je	.L211	#,
	.loc 1 1630 0 is_stmt 0 discriminator 1
	movq	(%rbx), %rax	# sv_6(D)->sv_any, D.22657
	movq	8(%rax), %rax	# MEM[(struct XPV *)_43].xpv_cur, D.22658
	testq	%rax, %rax	# D.22658
	je	.L211	#,
	.loc 1 1631 0 is_stmt 1
	movq	(%rbx), %rax	# sv_6(D)->sv_any, D.22657
	movq	8(%rax), %rax	# MEM[(struct XPV *)_45].xpv_cur, D.22658
	cmpq	%r13, %rax	# newlen, D.22658
	cmova	%r13, %rax	# D.22658,, newlen, D.22658
	movq	%rax, %rdx	# D.22658, D.22658
	movq	(%rbx), %rax	# sv_6(D)->sv_any, D.22657
	movq	(%rax), %rax	# MEM[(struct XPV *)_48].xpv_pv, D.22659
	movq	%rax, %rsi	# D.22659,
	movq	%r12, %rdi	# s,
	call	memmove	#
.L211:
	.loc 1 1634 0
	movq	(%rbx), %rax	# sv_6(D)->sv_any, D.22657
	movq	%r12, (%rax)	# s, MEM[(struct XPV *)_50].xpv_pv
	.loc 1 1635 0
	movq	(%rbx), %rax	# sv_6(D)->sv_any, D.22657
	movq	%r13, 16(%rax)	# newlen, MEM[(struct XPV *)_51].xpv_len
.L209:
	.loc 1 1637 0
	movq	%r12, %rax	# s, D.22659
	.loc 1 1638 0
	addq	$8, %rsp	#,
	popq	%rbx	#
	popq	%r12	#
	popq	%r13	#
	popq	%rbp	#
	.cfi_def_cfa 7, 8
	ret
	.cfi_endproc
.LFE51:
	.size	Perl_sv_grow, .-Perl_sv_grow
	.section	.rodata
	.align 8
.LC5:
	.string	"Can't coerce %s to integer in %s"
	.text
	.globl	Perl_sv_setiv
	.type	Perl_sv_setiv, @function
Perl_sv_setiv:
.LFB52:
	.loc 1 1651 0
	.cfi_startproc
	pushq	%rbp	#
	.cfi_def_cfa_offset 16
	.cfi_offset 6, -16
	movq	%rsp, %rbp	#,
	.cfi_def_cfa_register 6
	pushq	%r12	#
	pushq	%rbx	#
	subq	$16, %rsp	#,
	.cfi_offset 12, -24
	.cfi_offset 3, -32
	movq	%rdi, %rbx	# sv, sv
	movq	%rsi, -24(%rbp)	# i, i
	.loc 1 1652 0
	movl	12(%rbx), %eax	# sv_2(D)->sv_flags, D.22661
	andl	$9961472, %eax	#, D.22661
	testl	%eax, %eax	# D.22661
	je	.L215	#,
	.loc 1 1652 0 is_stmt 0 discriminator 1
	movq	%rbx, %rdi	# sv,
	call	Perl_sv_force_normal	#
.L215:
	.loc 1 1653 0 is_stmt 1
	movl	12(%rbx), %eax	# sv_2(D)->sv_flags, D.22661
	movzbl	%al, %eax	# D.22661, D.22661
	cmpl	$15, %eax	#, D.22661
	ja	.L216	#,
	movl	%eax, %eax	# D.22661, tmp85
	movq	.L218(,%rax,8), %rax	#, tmp86
	jmp	*%rax	# tmp86
	.section	.rodata
	.align 8
	.align 4
.L218:
	.quad	.L217
	.quad	.L216
	.quad	.L219
	.quad	.L220
	.quad	.L220
	.quad	.L216
	.quad	.L216
	.quad	.L216
	.quad	.L216
	.quad	.L216
	.quad	.L221
	.quad	.L221
	.quad	.L221
	.quad	.L221
	.quad	.L221
	.quad	.L221
	.text
.L217:
	.loc 1 1655 0
	movl	$1, %esi	#,
	movq	%rbx, %rdi	# sv,
	call	Perl_sv_upgrade	#
	.loc 1 1656 0
	jmp	.L216	#
.L219:
	.loc 1 1658 0
	movl	$6, %esi	#,
	movq	%rbx, %rdi	# sv,
	call	Perl_sv_upgrade	#
	.loc 1 1659 0
	jmp	.L216	#
.L220:
	.loc 1 1662 0
	movl	$5, %esi	#,
	movq	%rbx, %rdi	# sv,
	call	Perl_sv_upgrade	#
	.loc 1 1663 0
	jmp	.L216	#
.L221:
	.loc 1 1672 0
	movq	PL_op(%rip), %rax	# PL_op, PL_op.67
	movzwl	32(%rax), %eax	# PL_op.67_7->op_type, D.22662
	.loc 1 1671 0
	cmpw	$351, %ax	#, D.22662
	jne	.L222	#,
	.loc 1 1672 0
	movq	PL_op(%rip), %rax	# PL_op, PL_op.68
	.loc 1 1671 0
	movq	%rax, %rdi	# PL_op.68,
	call	Perl_custom_op_desc	#
	movq	%rax, %r12	#, iftmp.66
	jmp	.L223	#
.L222:
	.loc 1 1672 0 discriminator 1
	movq	PL_op(%rip), %rax	# PL_op, PL_op.69
	movzwl	32(%rax), %eax	# PL_op.69_11->op_type, D.22662
	movzwl	%ax, %eax	# D.22662, D.22663
	.loc 1 1671 0 discriminator 1
	cltq
	movq	PL_op_desc(,%rax,8), %r12	# PL_op_desc, iftmp.66
.L223:
	.loc 1 1671 0 is_stmt 0 discriminator 2
	movl	$0, %esi	#,
	movq	%rbx, %rdi	# sv,
	call	Perl_sv_reftype	#
	movq	%r12, %rdx	# iftmp.66,
	movq	%rax, %rsi	# D.22664,
	movl	$.LC5, %edi	#,
	movl	$0, %eax	#,
	call	Perl_croak	#
.L216:
	.loc 1 1674 0 is_stmt 1
	movl	12(%rbx), %eax	# sv_2(D)->sv_flags, D.22661
	andl	$1223753727, %eax	#, D.22661
	movl	%eax, 12(%rbx)	# D.22661, sv_2(D)->sv_flags
	movl	12(%rbx), %eax	# sv_2(D)->sv_flags, D.22661
	andl	$2097152, %eax	#, D.22661
	testl	%eax, %eax	# D.22661
	je	.L225	#,
	.loc 1 1674 0 is_stmt 0 discriminator 1
	movq	%rbx, %rdi	# sv,
	call	Perl_sv_backoff	#
	testl	%eax, %eax	# D.22663
	je	.L225	#,
	.loc 1 1674 0
	nop
.L225:
	.loc 1 1674 0 discriminator 3
	movl	12(%rbx), %eax	# sv_2(D)->sv_flags, D.22661
	orl	$16842752, %eax	#, D.22661
	movl	%eax, 12(%rbx)	# D.22661, sv_2(D)->sv_flags
	.loc 1 1675 0 is_stmt 1 discriminator 3
	movq	(%rbx), %rax	# sv_2(D)->sv_any, D.22665
	movq	-24(%rbp), %rdx	# i, tmp88
	movq	%rdx, 24(%rax)	# tmp88, MEM[(struct XPVIV *)_25].xiv_iv
	.loc 1 1676 0 discriminator 3
	movzbl	PL_tainting(%rip), %eax	# PL_tainting, PL_tainting.71
	testb	%al, %al	# PL_tainting.71
	je	.L214	#,
	.loc 1 1676 0 is_stmt 0 discriminator 1
	movzbl	PL_tainted(%rip), %eax	# PL_tainted, PL_tainted.72
	testb	%al, %al	# PL_tainted.72
	je	.L214	#,
	movzbl	PL_tainting(%rip), %eax	# PL_tainting, PL_tainting.73
	testb	%al, %al	# PL_tainting.73
	je	.L214	#,
	movq	%rbx, %rdi	# sv,
	call	Perl_sv_taint	#
.L214:
	.loc 1 1677 0 is_stmt 1
	addq	$16, %rsp	#,
	popq	%rbx	#
	popq	%r12	#
	popq	%rbp	#
	.cfi_def_cfa 7, 8
	ret
	.cfi_endproc
.LFE52:
	.size	Perl_sv_setiv, .-Perl_sv_setiv
	.globl	Perl_sv_setiv_mg
	.type	Perl_sv_setiv_mg, @function
Perl_sv_setiv_mg:
.LFB53:
	.loc 1 1689 0
	.cfi_startproc
	pushq	%rbp	#
	.cfi_def_cfa_offset 16
	.cfi_offset 6, -16
	movq	%rsp, %rbp	#,
	.cfi_def_cfa_register 6
	pushq	%rbx	#
	subq	$24, %rsp	#,
	.cfi_offset 3, -24
	movq	%rdi, %rbx	# sv, sv
	movq	%rsi, -24(%rbp)	# i, i
	.loc 1 1690 0
	movq	-24(%rbp), %rax	# i, tmp62
	movq	%rax, %rsi	# tmp62,
	movq	%rbx, %rdi	# sv,
	call	Perl_sv_setiv	#
	.loc 1 1691 0
	movl	12(%rbx), %eax	# sv_1(D)->sv_flags, D.22667
	andl	$16384, %eax	#, D.22667
	testl	%eax, %eax	# D.22667
	je	.L227	#,
	.loc 1 1691 0 is_stmt 0 discriminator 1
	movq	%rbx, %rdi	# sv,
	call	Perl_mg_set	#
.L227:
	.loc 1 1692 0 is_stmt 1
	addq	$24, %rsp	#,
	popq	%rbx	#
	popq	%rbp	#
	.cfi_def_cfa 7, 8
	ret
	.cfi_endproc
.LFE53:
	.size	Perl_sv_setiv_mg, .-Perl_sv_setiv_mg
	.globl	Perl_sv_setuv
	.type	Perl_sv_setuv, @function
Perl_sv_setuv:
.LFB54:
	.loc 1 1705 0
	.cfi_startproc
	pushq	%rbp	#
	.cfi_def_cfa_offset 16
	.cfi_offset 6, -16
	movq	%rsp, %rbp	#,
	.cfi_def_cfa_register 6
	pushq	%rbx	#
	subq	$24, %rsp	#,
	.cfi_offset 3, -24
	movq	%rdi, %rbx	# sv, sv
	movq	%rsi, -24(%rbp)	# u, u
	.loc 1 1714 0
	movq	-24(%rbp), %rax	# u, u.74
	testq	%rax, %rax	# u.74
	js	.L230	#,
	.loc 1 1715 0
	movq	-24(%rbp), %rax	# u, u.75
	movq	%rax, %rsi	# u.75,
	movq	%rbx, %rdi	# sv,
	call	Perl_sv_setiv	#
	.loc 1 1716 0
	jmp	.L229	#
.L230:
	.loc 1 1718 0
	movl	$0, %esi	#,
	movq	%rbx, %rdi	# sv,
	call	Perl_sv_setiv	#
	.loc 1 1719 0
	movl	12(%rbx), %eax	# sv_4(D)->sv_flags, D.22668
	orl	$-2147483648, %eax	#, D.22668
	movl	%eax, 12(%rbx)	# D.22668, sv_4(D)->sv_flags
	.loc 1 1720 0
	movq	(%rbx), %rax	# sv_4(D)->sv_any, D.22669
	movq	-24(%rbp), %rdx	# u, tmp65
	movq	%rdx, 24(%rax)	# tmp65, MEM[(struct XPVUV *)_7].xuv_uv
.L229:
	.loc 1 1721 0
	addq	$24, %rsp	#,
	popq	%rbx	#
	popq	%rbp	#
	.cfi_def_cfa 7, 8
	ret
	.cfi_endproc
.LFE54:
	.size	Perl_sv_setuv, .-Perl_sv_setuv
	.globl	Perl_sv_setuv_mg
	.type	Perl_sv_setuv_mg, @function
Perl_sv_setuv_mg:
.LFB55:
	.loc 1 1733 0
	.cfi_startproc
	pushq	%rbp	#
	.cfi_def_cfa_offset 16
	.cfi_offset 6, -16
	movq	%rsp, %rbp	#,
	.cfi_def_cfa_register 6
	pushq	%rbx	#
	subq	$24, %rsp	#,
	.cfi_offset 3, -24
	movq	%rdi, %rbx	# sv, sv
	movq	%rsi, -24(%rbp)	# u, u
	.loc 1 1742 0
	movq	-24(%rbp), %rax	# u, u.76
	testq	%rax, %rax	# u.76
	js	.L233	#,
	.loc 1 1743 0
	movq	-24(%rbp), %rax	# u, u.77
	movq	%rax, %rsi	# u.77,
	movq	%rbx, %rdi	# sv,
	call	Perl_sv_setiv	#
	jmp	.L234	#
.L233:
	.loc 1 1745 0
	movl	$0, %esi	#,
	movq	%rbx, %rdi	# sv,
	call	Perl_sv_setiv	#
	.loc 1 1746 0
	movl	12(%rbx), %eax	# sv_4(D)->sv_flags, D.22670
	orl	$-2147483648, %eax	#, D.22670
	movl	%eax, 12(%rbx)	# D.22670, sv_4(D)->sv_flags
	.loc 1 1747 0
	movq	-24(%rbp), %rax	# u, tmp66
	movq	%rax, %rsi	# tmp66,
	movq	%rbx, %rdi	# sv,
	call	Perl_sv_setuv	#
.L234:
	.loc 1 1749 0
	movl	12(%rbx), %eax	# sv_4(D)->sv_flags, D.22670
	andl	$16384, %eax	#, D.22670
	testl	%eax, %eax	# D.22670
	je	.L232	#,
	.loc 1 1749 0 is_stmt 0 discriminator 1
	movq	%rbx, %rdi	# sv,
	call	Perl_mg_set	#
.L232:
	.loc 1 1750 0 is_stmt 1
	addq	$24, %rsp	#,
	popq	%rbx	#
	popq	%rbp	#
	.cfi_def_cfa 7, 8
	ret
	.cfi_endproc
.LFE55:
	.size	Perl_sv_setuv_mg, .-Perl_sv_setuv_mg
	.section	.rodata
	.align 8
.LC6:
	.string	"Can't coerce %s to number in %s"
	.text
	.globl	Perl_sv_setnv
	.type	Perl_sv_setnv, @function
Perl_sv_setnv:
.LFB56:
	.loc 1 1763 0
	.cfi_startproc
	pushq	%rbp	#
	.cfi_def_cfa_offset 16
	.cfi_offset 6, -16
	movq	%rsp, %rbp	#,
	.cfi_def_cfa_register 6
	pushq	%r12	#
	pushq	%rbx	#
	subq	$16, %rsp	#,
	.cfi_offset 12, -24
	.cfi_offset 3, -32
	movq	%rdi, %rbx	# sv, sv
	movsd	%xmm0, -24(%rbp)	# num, num
	.loc 1 1764 0
	movl	12(%rbx), %eax	# sv_2(D)->sv_flags, D.22671
	andl	$9961472, %eax	#, D.22671
	testl	%eax, %eax	# D.22671
	je	.L237	#,
	.loc 1 1764 0 is_stmt 0 discriminator 1
	movq	%rbx, %rdi	# sv,
	call	Perl_sv_force_normal	#
.L237:
	.loc 1 1765 0 is_stmt 1
	movl	12(%rbx), %eax	# sv_2(D)->sv_flags, D.22671
	movzbl	%al, %eax	# D.22671, D.22671
	cmpl	$15, %eax	#, D.22671
	ja	.L238	#,
	movl	%eax, %eax	# D.22671, tmp85
	movq	.L240(,%rax,8), %rax	#, tmp86
	jmp	*%rax	# tmp86
	.section	.rodata
	.align 8
	.align 4
.L240:
	.quad	.L239
	.quad	.L239
	.quad	.L238
	.quad	.L241
	.quad	.L241
	.quad	.L241
	.quad	.L238
	.quad	.L238
	.quad	.L238
	.quad	.L238
	.quad	.L242
	.quad	.L242
	.quad	.L242
	.quad	.L242
	.quad	.L242
	.quad	.L242
	.text
.L239:
	.loc 1 1768 0
	movl	$2, %esi	#,
	movq	%rbx, %rdi	# sv,
	call	Perl_sv_upgrade	#
	.loc 1 1769 0
	jmp	.L238	#
.L241:
	.loc 1 1773 0
	movl	$6, %esi	#,
	movq	%rbx, %rdi	# sv,
	call	Perl_sv_upgrade	#
	.loc 1 1774 0
	jmp	.L238	#
.L242:
	.loc 1 1783 0
	movq	PL_op(%rip), %rax	# PL_op, PL_op.79
	movzwl	32(%rax), %eax	# PL_op.79_7->op_type, D.22672
	.loc 1 1782 0
	cmpw	$351, %ax	#, D.22672
	jne	.L243	#,
	.loc 1 1783 0
	movq	PL_op(%rip), %rax	# PL_op, PL_op.80
	.loc 1 1782 0
	movq	%rax, %rdi	# PL_op.80,
	call	Perl_custom_op_name	#
	movq	%rax, %r12	#, iftmp.78
	jmp	.L244	#
.L243:
	.loc 1 1783 0 discriminator 1
	movq	PL_op(%rip), %rax	# PL_op, PL_op.81
	movzwl	32(%rax), %eax	# PL_op.81_11->op_type, D.22672
	movzwl	%ax, %eax	# D.22672, D.22673
	.loc 1 1782 0 discriminator 1
	cltq
	movq	PL_op_name(,%rax,8), %r12	# PL_op_name, iftmp.78
.L244:
	.loc 1 1782 0 is_stmt 0 discriminator 2
	movl	$0, %esi	#,
	movq	%rbx, %rdi	# sv,
	call	Perl_sv_reftype	#
	movq	%r12, %rdx	# iftmp.78,
	movq	%rax, %rsi	# D.22674,
	movl	$.LC6, %edi	#,
	movl	$0, %eax	#,
	call	Perl_croak	#
.L238:
	.loc 1 1785 0 is_stmt 1
	movq	(%rbx), %rdx	# sv_2(D)->sv_any, D.22675
	movq	-24(%rbp), %rax	# num, tmp88
	movq	%rax, 32(%rdx)	# tmp88, MEM[(struct XPVNV *)_16].xnv_nv
	.loc 1 1786 0
	movl	12(%rbx), %eax	# sv_2(D)->sv_flags, D.22671
	andl	$1223753727, %eax	#, D.22671
	movl	%eax, 12(%rbx)	# D.22671, sv_2(D)->sv_flags
	movl	12(%rbx), %eax	# sv_2(D)->sv_flags, D.22671
	andl	$2097152, %eax	#, D.22671
	testl	%eax, %eax	# D.22671
	je	.L246	#,
	.loc 1 1786 0 is_stmt 0 discriminator 1
	movq	%rbx, %rdi	# sv,
	call	Perl_sv_backoff	#
	testl	%eax, %eax	# D.22673
	je	.L246	#,
	.loc 1 1786 0
	nop
.L246:
	.loc 1 1786 0 discriminator 3
	movl	12(%rbx), %eax	# sv_2(D)->sv_flags, D.22671
	orl	$33685504, %eax	#, D.22671
	movl	%eax, 12(%rbx)	# D.22671, sv_2(D)->sv_flags
	.loc 1 1787 0 is_stmt 1 discriminator 3
	movzbl	PL_tainting(%rip), %eax	# PL_tainting, PL_tainting.83
	testb	%al, %al	# PL_tainting.83
	je	.L236	#,
	.loc 1 1787 0 is_stmt 0 discriminator 1
	movzbl	PL_tainted(%rip), %eax	# PL_tainted, PL_tainted.84
	testb	%al, %al	# PL_tainted.84
	je	.L236	#,
	movzbl	PL_tainting(%rip), %eax	# PL_tainting, PL_tainting.85
	testb	%al, %al	# PL_tainting.85
	je	.L236	#,
	movq	%rbx, %rdi	# sv,
	call	Perl_sv_taint	#
.L236:
	.loc 1 1788 0 is_stmt 1
	addq	$16, %rsp	#,
	popq	%rbx	#
	popq	%r12	#
	popq	%rbp	#
	.cfi_def_cfa 7, 8
	ret
	.cfi_endproc
.LFE56:
	.size	Perl_sv_setnv, .-Perl_sv_setnv
	.globl	Perl_sv_setnv_mg
	.type	Perl_sv_setnv_mg, @function
Perl_sv_setnv_mg:
.LFB57:
	.loc 1 1800 0
	.cfi_startproc
	pushq	%rbp	#
	.cfi_def_cfa_offset 16
	.cfi_offset 6, -16
	movq	%rsp, %rbp	#,
	.cfi_def_cfa_register 6
	pushq	%rbx	#
	subq	$24, %rsp	#,
	.cfi_offset 3, -24
	movq	%rdi, %rbx	# sv, sv
	movsd	%xmm0, -24(%rbp)	# num, num
	.loc 1 1801 0
	movq	-24(%rbp), %rax	# num, tmp62
	movq	%rax, -32(%rbp)	# tmp62, %sfp
	movsd	-32(%rbp), %xmm0	# %sfp,
	movq	%rbx, %rdi	# sv,
	call	Perl_sv_setnv	#
	.loc 1 1802 0
	movl	12(%rbx), %eax	# sv_1(D)->sv_flags, D.22677
	andl	$16384, %eax	#, D.22677
	testl	%eax, %eax	# D.22677
	je	.L248	#,
	.loc 1 1802 0 is_stmt 0 discriminator 1
	movq	%rbx, %rdi	# sv,
	call	Perl_mg_set	#
.L248:
	.loc 1 1803 0 is_stmt 1
	addq	$24, %rsp	#,
	popq	%rbx	#
	popq	%rbp	#
	.cfi_def_cfa 7, 8
	ret
	.cfi_endproc
.LFE57:
	.size	Perl_sv_setnv_mg, .-Perl_sv_setnv_mg
	.section	.rodata
	.align 8
.LC7:
	.string	"Argument \"%s\" isn't numeric in %s"
.LC8:
	.string	"Argument \"%s\" isn't numeric"
	.text
	.type	S_not_a_number, @function
S_not_a_number:
.LFB58:
	.loc 1 1811 0
	.cfi_startproc
	pushq	%rbp	#
	.cfi_def_cfa_offset 16
	.cfi_offset 6, -16
	movq	%rsp, %rbp	#,
	.cfi_def_cfa_register 6
	subq	$160, %rsp	#,
	movq	%rdi, -152(%rbp)	# sv, sv
	.loc 1 1811 0
	movq	%fs:40, %rax	#, tmp173
	movq	%rax, -8(%rbp)	# tmp173, D.22690
	xorl	%eax, %eax	# tmp173
	.loc 1 1816 0
	movq	-152(%rbp), %rax	# sv, tmp122
	movl	12(%rax), %eax	# sv_10(D)->sv_flags, D.22679
	andl	$536870912, %eax	#, D.22679
	testl	%eax, %eax	# D.22679
	je	.L251	#,
	.loc 1 1816 0 is_stmt 0 discriminator 1
	movq	PL_curcop(%rip), %rax	# PL_curcop, PL_curcop.86
	movzbl	37(%rax), %eax	# PL_curcop.86_13->op_private, D.22680
	movzbl	%al, %eax	# D.22680, D.22681
	andl	$8, %eax	#, D.22681
	testl	%eax, %eax	# D.22681
	jne	.L251	#,
	.loc 1 1817 0 is_stmt 1
	movl	$0, %esi	#,
	movl	$.LC1, %edi	#,
	call	Perl_newSVpv	#
	movq	%rax, %rdi	# D.22682,
	call	Perl_sv_2mortal	#
	movq	%rax, -104(%rbp)	# tmp123, dsv
	.loc 1 1818 0
	movq	-152(%rbp), %rsi	# sv, tmp124
	movq	-104(%rbp), %rax	# dsv, tmp125
	movl	$0, %ecx	#,
	movl	$10, %edx	#,
	movq	%rax, %rdi	# tmp125,
	call	Perl_sv_uni_display	#
	movq	%rax, -128(%rbp)	# tmp126, pv
	jmp	.L252	#
.L251:
.LBB5:
	.loc 1 1820 0
	leaq	-80(%rbp), %rax	#, tmp127
	movq	%rax, -120(%rbp)	# tmp127, d
	.loc 1 1821 0
	leaq	-80(%rbp), %rax	#, tmp128
	addq	$56, %rax	#, tmp129
	movq	%rax, -96(%rbp)	# tmp129, limit
	.loc 1 1826 0
	movq	-152(%rbp), %rax	# sv, tmp130
	movq	(%rax), %rax	# sv_10(D)->sv_any, D.22683
	movq	(%rax), %rax	# MEM[(struct XPV *)_22].xpv_pv, tmp131
	movq	%rax, -112(%rbp)	# tmp131, s
	movq	-152(%rbp), %rax	# sv, tmp132
	movq	(%rax), %rax	# sv_10(D)->sv_any, D.22683
	movq	8(%rax), %rdx	# MEM[(struct XPV *)_24].xpv_cur, D.22684
	movq	-112(%rbp), %rax	# s, tmp136
	addq	%rdx, %rax	# D.22684, tmp135
	movq	%rax, -88(%rbp)	# tmp135, end
	jmp	.L253	#
.L266:
.LBB6:
	.loc 1 1827 0
	movq	-112(%rbp), %rax	# s, tmp137
	movzbl	(%rax), %eax	# *s_6, D.22685
	movsbl	%al, %eax	# D.22685, D.22681
	andl	$255, %eax	#, tmp138
	movl	%eax, -132(%rbp)	# tmp138, ch
	.loc 1 1828 0
	movl	-132(%rbp), %eax	# ch, tmp139
	andl	$128, %eax	#, D.22681
	testl	%eax, %eax	# D.22681
	je	.L254	#,
	.loc 1 1828 0 is_stmt 0 discriminator 1
	movl	-132(%rbp), %eax	# ch, tmp140
	andl	$-128, %eax	#, D.22681
	testl	%eax, %eax	# D.22681
	jne	.L255	#,
	call	__ctype_b_loc	#
	movq	(%rax), %rax	# *_32, D.22687
	movl	-132(%rbp), %edx	# ch, tmp141
	movslq	%edx, %rdx	# tmp141, D.22684
	addq	%rdx, %rdx	# D.22684
	addq	%rdx, %rax	# D.22684, D.22687
	movzwl	(%rax), %eax	# *_36, D.22688
	movzwl	%ax, %eax	# D.22688, D.22681
	andl	$16384, %eax	#, D.22681
	testl	%eax, %eax	# D.22681
	jne	.L254	#,
.L255:
	.loc 1 1829 0 is_stmt 1
	movq	-120(%rbp), %rax	# d, d.87
	leaq	1(%rax), %rdx	#, tmp142
	movq	%rdx, -120(%rbp)	# tmp142, d
	movb	$77, (%rax)	#, *d.87_40
	.loc 1 1830 0
	movq	-120(%rbp), %rax	# d, d.88
	leaq	1(%rax), %rdx	#, tmp143
	movq	%rdx, -120(%rbp)	# tmp143, d
	movb	$45, (%rax)	#, *d.88_42
	.loc 1 1831 0
	andl	$127, -132(%rbp)	#, ch
.L254:
	.loc 1 1833 0
	cmpl	$10, -132(%rbp)	#, ch
	jne	.L256	#,
	.loc 1 1834 0
	movq	-120(%rbp), %rax	# d, d.89
	leaq	1(%rax), %rdx	#, tmp144
	movq	%rdx, -120(%rbp)	# tmp144, d
	movb	$92, (%rax)	#, *d.89_45
	.loc 1 1835 0
	movq	-120(%rbp), %rax	# d, d.90
	leaq	1(%rax), %rdx	#, tmp145
	movq	%rdx, -120(%rbp)	# tmp145, d
	movb	$110, (%rax)	#, *d.90_47
	jmp	.L257	#
.L256:
	.loc 1 1837 0
	cmpl	$13, -132(%rbp)	#, ch
	jne	.L258	#,
	.loc 1 1838 0
	movq	-120(%rbp), %rax	# d, d.91
	leaq	1(%rax), %rdx	#, tmp146
	movq	%rdx, -120(%rbp)	# tmp146, d
	movb	$92, (%rax)	#, *d.91_49
	.loc 1 1839 0
	movq	-120(%rbp), %rax	# d, d.92
	leaq	1(%rax), %rdx	#, tmp147
	movq	%rdx, -120(%rbp)	# tmp147, d
	movb	$114, (%rax)	#, *d.92_51
	jmp	.L257	#
.L258:
	.loc 1 1841 0
	cmpl	$12, -132(%rbp)	#, ch
	jne	.L259	#,
	.loc 1 1842 0
	movq	-120(%rbp), %rax	# d, d.93
	leaq	1(%rax), %rdx	#, tmp148
	movq	%rdx, -120(%rbp)	# tmp148, d
	movb	$92, (%rax)	#, *d.93_53
	.loc 1 1843 0
	movq	-120(%rbp), %rax	# d, d.94
	leaq	1(%rax), %rdx	#, tmp149
	movq	%rdx, -120(%rbp)	# tmp149, d
	movb	$102, (%rax)	#, *d.94_55
	jmp	.L257	#
.L259:
	.loc 1 1845 0
	cmpl	$92, -132(%rbp)	#, ch
	jne	.L260	#,
	.loc 1 1846 0
	movq	-120(%rbp), %rax	# d, d.95
	leaq	1(%rax), %rdx	#, tmp150
	movq	%rdx, -120(%rbp)	# tmp150, d
	movb	$92, (%rax)	#, *d.95_57
	.loc 1 1847 0
	movq	-120(%rbp), %rax	# d, d.96
	leaq	1(%rax), %rdx	#, tmp151
	movq	%rdx, -120(%rbp)	# tmp151, d
	movb	$92, (%rax)	#, *d.96_59
	jmp	.L257	#
.L260:
	.loc 1 1849 0
	cmpl	$0, -132(%rbp)	#, ch
	jne	.L261	#,
	.loc 1 1850 0
	movq	-120(%rbp), %rax	# d, d.97
	leaq	1(%rax), %rdx	#, tmp152
	movq	%rdx, -120(%rbp)	# tmp152, d
	movb	$92, (%rax)	#, *d.97_61
	.loc 1 1851 0
	movq	-120(%rbp), %rax	# d, d.98
	leaq	1(%rax), %rdx	#, tmp153
	movq	%rdx, -120(%rbp)	# tmp153, d
	movb	$48, (%rax)	#, *d.98_63
	jmp	.L257	#
.L261:
	.loc 1 1853 0
	movl	-132(%rbp), %eax	# ch, tmp154
	andl	$-128, %eax	#, D.22681
	testl	%eax, %eax	# D.22681
	jne	.L262	#,
	.loc 1 1853 0 is_stmt 0 discriminator 1
	call	__ctype_b_loc	#
	movq	(%rax), %rax	# *_66, D.22687
	movl	-132(%rbp), %edx	# ch, tmp155
	movslq	%edx, %rdx	# tmp155, D.22684
	addq	%rdx, %rdx	# D.22684
	addq	%rdx, %rax	# D.22684, D.22687
	movzwl	(%rax), %eax	# *_70, D.22688
	movzwl	%ax, %eax	# D.22688, D.22681
	andl	$16384, %eax	#, D.22681
	testl	%eax, %eax	# D.22681
	je	.L262	#,
	.loc 1 1854 0 is_stmt 1
	movq	-120(%rbp), %rax	# d, d.99
	leaq	1(%rax), %rdx	#, tmp156
	movq	%rdx, -120(%rbp)	# tmp156, d
	movl	-132(%rbp), %edx	# ch, tmp157
	movb	%dl, (%rax)	# D.22685, *d.99_74
	jmp	.L257	#
.L262:
	.loc 1 1856 0
	movq	-120(%rbp), %rax	# d, d.100
	leaq	1(%rax), %rdx	#, tmp158
	movq	%rdx, -120(%rbp)	# tmp158, d
	movb	$94, (%rax)	#, *d.100_77
	.loc 1 1857 0
	movq	-120(%rbp), %rax	# d, d.101
	leaq	1(%rax), %rdx	#, tmp159
	movq	%rdx, -120(%rbp)	# tmp159, d
	cmpl	$96, -132(%rbp)	#, ch
	jle	.L263	#,
	.loc 1 1857 0 is_stmt 0 discriminator 1
	cmpl	$122, -132(%rbp)	#, ch
	jg	.L263	#,
	movl	-132(%rbp), %edx	# ch, tmp160
	subl	$32, %edx	#, D.22689
	xorl	$64, %edx	#, iftmp.102
	jmp	.L264	#
.L263:
	.loc 1 1857 0 discriminator 2
	movl	-132(%rbp), %edx	# ch, tmp161
	xorl	$64, %edx	#, iftmp.102
.L264:
	.loc 1 1857 0 discriminator 3
	movb	%dl, (%rax)	# iftmp.102, *d.101_79
.L257:
.LBE6:
	.loc 1 1826 0 is_stmt 1
	addq	$1, -112(%rbp)	#, s
.L253:
	.loc 1 1826 0 is_stmt 0 discriminator 1
	movq	-112(%rbp), %rax	# s, tmp162
	cmpq	-88(%rbp), %rax	# end, tmp162
	jae	.L265	#,
	.loc 1 1826 0 discriminator 2
	movq	-120(%rbp), %rax	# d, tmp163
	cmpq	-96(%rbp), %rax	# limit, tmp163
	jb	.L266	#,
.L265:
	.loc 1 1860 0 is_stmt 1
	movq	-112(%rbp), %rax	# s, tmp164
	cmpq	-88(%rbp), %rax	# end, tmp164
	jae	.L267	#,
	.loc 1 1861 0
	movq	-120(%rbp), %rax	# d, d.103
	leaq	1(%rax), %rdx	#, tmp165
	movq	%rdx, -120(%rbp)	# tmp165, d
	movb	$46, (%rax)	#, *d.103_88
	.loc 1 1862 0
	movq	-120(%rbp), %rax	# d, d.104
	leaq	1(%rax), %rdx	#, tmp166
	movq	%rdx, -120(%rbp)	# tmp166, d
	movb	$46, (%rax)	#, *d.104_90
	.loc 1 1863 0
	movq	-120(%rbp), %rax	# d, d.105
	leaq	1(%rax), %rdx	#, tmp167
	movq	%rdx, -120(%rbp)	# tmp167, d
	movb	$46, (%rax)	#, *d.105_92
.L267:
	.loc 1 1865 0
	movq	-120(%rbp), %rax	# d, tmp168
	movb	$0, (%rax)	#, *d_5
	.loc 1 1866 0
	leaq	-80(%rbp), %rax	#, tmp169
	movq	%rax, -128(%rbp)	# tmp169, pv
.L252:
.LBE5:
	.loc 1 1869 0
	movq	PL_op(%rip), %rax	# PL_op, PL_op.106
	testq	%rax, %rax	# PL_op.106
	je	.L268	#,
	.loc 1 1872 0
	movq	PL_op(%rip), %rax	# PL_op, PL_op.108
	movzwl	32(%rax), %eax	# PL_op.108_96->op_type, D.22688
	.loc 1 1870 0
	cmpw	$351, %ax	#, D.22688
	jne	.L269	#,
	.loc 1 1872 0
	movq	PL_op(%rip), %rax	# PL_op, PL_op.109
	.loc 1 1870 0
	movq	%rax, %rdi	# PL_op.109,
	call	Perl_custom_op_desc	#
	jmp	.L270	#
.L269:
	.loc 1 1872 0 discriminator 1
	movq	PL_op(%rip), %rax	# PL_op, PL_op.110
	movzwl	32(%rax), %eax	# PL_op.110_100->op_type, D.22688
	movzwl	%ax, %eax	# D.22688, D.22681
	.loc 1 1870 0 discriminator 1
	cltq
	movq	PL_op_desc(,%rax,8), %rax	# PL_op_desc, iftmp.107
.L270:
	movq	-128(%rbp), %rdx	# pv, tmp171
	movq	%rax, %rcx	# iftmp.107,
	movl	$.LC7, %esi	#,
	movl	$13, %edi	#,
	movl	$0, %eax	#,
	call	Perl_warner	#
	jmp	.L250	#
.L268:
	.loc 1 1874 0
	movq	-128(%rbp), %rax	# pv, tmp172
	movq	%rax, %rdx	# tmp172,
	movl	$.LC8, %esi	#,
	movl	$13, %edi	#,
	movl	$0, %eax	#,
	call	Perl_warner	#
.L250:
	.loc 1 1876 0
	movq	-8(%rbp), %rax	# D.22690, tmp174
	xorq	%fs:40, %rax	#, tmp174
	je	.L272	#,
	call	__stack_chk_fail	#
.L272:
	leave
	.cfi_def_cfa 7, 8
	ret
	.cfi_endproc
.LFE58:
	.size	S_not_a_number, .-S_not_a_number
	.globl	Perl_looks_like_number
	.type	Perl_looks_like_number, @function
Perl_looks_like_number:
.LFB59:
	.loc 1 1890 0
	.cfi_startproc
	pushq	%rbp	#
	.cfi_def_cfa_offset 16
	.cfi_offset 6, -16
	movq	%rsp, %rbp	#,
	.cfi_def_cfa_register 6
	pushq	%rbx	#
	subq	$40, %rsp	#,
	.cfi_offset 3, -24
	movq	%rdi, -40(%rbp)	# sv, sv
	.loc 1 1894 0
	movq	-40(%rbp), %rax	# sv, tmp78
	movl	12(%rax), %eax	# sv_4(D)->sv_flags, D.22696
	andl	$262144, %eax	#, D.22696
	testl	%eax, %eax	# D.22696
	je	.L274	#,
	.loc 1 1895 0
	movq	-40(%rbp), %rax	# sv, tmp79
	movq	(%rax), %rax	# sv_4(D)->sv_any, D.22697
	movq	(%rax), %rbx	# MEM[(struct XPV *)_7].xpv_pv, sbegin
	.loc 1 1896 0
	movq	-40(%rbp), %rax	# sv, tmp80
	movq	(%rax), %rax	# sv_4(D)->sv_any, D.22697
	movq	8(%rax), %rax	# MEM[(struct XPV *)_9].xpv_cur, len.111
	movq	%rax, -24(%rbp)	# len.111, len
	jmp	.L275	#
.L274:
	.loc 1 1898 0
	movq	-40(%rbp), %rax	# sv, tmp81
	movl	12(%rax), %eax	# sv_4(D)->sv_flags, D.22696
	andl	$67108864, %eax	#, D.22696
	testl	%eax, %eax	# D.22696
	je	.L276	#,
	.loc 1 1899 0
	movq	-40(%rbp), %rax	# sv, tmp82
	movl	12(%rax), %eax	# sv_4(D)->sv_flags, D.22696
	andl	$262144, %eax	#, D.22696
	testl	%eax, %eax	# D.22696
	je	.L277	#,
	.loc 1 1899 0 is_stmt 0 discriminator 1
	movq	-40(%rbp), %rax	# sv, tmp83
	movq	(%rax), %rax	# sv_4(D)->sv_any, D.22697
	movq	8(%rax), %rax	# MEM[(struct XPV *)_15].xpv_cur, len.113
	movq	%rax, -24(%rbp)	# len.113, len
	movq	-40(%rbp), %rax	# sv, tmp84
	movq	(%rax), %rax	# sv_4(D)->sv_any, D.22697
	movq	(%rax), %rax	# MEM[(struct XPV *)_17].xpv_pv, iftmp.112
	jmp	.L278	#
.L277:
	.loc 1 1899 0 discriminator 2
	leaq	-24(%rbp), %rcx	#, tmp85
	movq	-40(%rbp), %rax	# sv, tmp86
	movl	$2, %edx	#,
	movq	%rcx, %rsi	# tmp85,
	movq	%rax, %rdi	# tmp86,
	call	Perl_sv_2pv_flags	#
.L278:
	.loc 1 1899 0 discriminator 1
	movq	%rax, %rbx	# iftmp.112, sbegin
	jmp	.L275	#
.L276:
	.loc 1 1901 0 is_stmt 1
	movq	-40(%rbp), %rax	# sv, tmp87
	movl	12(%rax), %eax	# sv_4(D)->sv_flags, D.22696
	andl	$50528256, %eax	#, D.22695
	jmp	.L280	#
.L275:
	.loc 1 1902 0
	movq	-24(%rbp), %rax	# len, len.114
	movl	$0, %edx	#,
	movq	%rax, %rsi	# len.114,
	movq	%rbx, %rdi	# sbegin,
	call	Perl_grok_number	#
.L280:
	.loc 1 1903 0
	addq	$40, %rsp	#,
	popq	%rbx	#
	popq	%rbp	#
	.cfi_def_cfa 7, 8
	ret
	.cfi_endproc
.LFE59:
	.size	Perl_looks_like_number, .-Perl_looks_like_number
	.type	S_sv_2iuv_non_preserve, @function
S_sv_2iuv_non_preserve:
.LFB60:
	.loc 1 1991 0
	.cfi_startproc
	pushq	%rbp	#
	.cfi_def_cfa_offset 16
	.cfi_offset 6, -16
	movq	%rsp, %rbp	#,
	.cfi_def_cfa_register 6
	pushq	%r12	#
	pushq	%rbx	#
	subq	$16, %rsp	#,
	.cfi_offset 12, -24
	.cfi_offset 3, -32
	movq	%rdi, %rbx	# sv, sv
	movl	%esi, -20(%rbp)	# numtype, numtype
	.loc 1 1993 0
	movq	(%rbx), %rax	# sv_2(D)->sv_any, D.22700
	movsd	32(%rax), %xmm1	# MEM[(struct XPVNV *)_3].xnv_nv, D.22701
	movsd	.LC9(%rip), %xmm0	#, tmp135
	ucomisd	%xmm1, %xmm0	# D.22701, tmp135
	jbe	.L311	#,
	.loc 1 1994 0
	movl	12(%rbx), %eax	# sv_2(D)->sv_flags, D.22702
	andl	$2097152, %eax	#, D.22702
	testl	%eax, %eax	# D.22702
	je	.L285	#,
	.loc 1 1994 0 is_stmt 0 discriminator 1
	movq	%rbx, %rdi	# sv,
	call	Perl_sv_backoff	#
	testl	%eax, %eax	# D.22699
	je	.L285	#,
	.loc 1 1994 0
	nop
.L285:
	.loc 1 1994 0 discriminator 3
	movl	12(%rbx), %eax	# sv_2(D)->sv_flags, D.22702
	orl	$16777216, %eax	#, D.22702
	movl	%eax, 12(%rbx)	# D.22702, sv_2(D)->sv_flags
	.loc 1 1995 0 is_stmt 1 discriminator 3
	movl	12(%rbx), %eax	# sv_2(D)->sv_flags, D.22702
	orl	$33685504, %eax	#, D.22702
	movl	%eax, 12(%rbx)	# D.22702, sv_2(D)->sv_flags
	.loc 1 1996 0 discriminator 3
	movq	(%rbx), %rax	# sv_2(D)->sv_any, D.22700
	movabsq	$-9223372036854775808, %rcx	#, tmp141
	movq	%rcx, 24(%rax)	# tmp141, MEM[(struct XPVIV *)_14].xiv_iv
	.loc 1 1997 0 discriminator 3
	movl	$1, %eax	#, D.22699
	jmp	.L286	#
.L311:
	.loc 1 1999 0
	movq	(%rbx), %rax	# sv_2(D)->sv_any, D.22700
	movsd	32(%rax), %xmm0	# MEM[(struct XPVNV *)_16].xnv_nv, D.22701
	ucomisd	.LC10(%rip), %xmm0	#, D.22701
	jbe	.L312	#,
	.loc 1 2000 0
	movl	12(%rbx), %eax	# sv_2(D)->sv_flags, D.22702
	andl	$2097152, %eax	#, D.22702
	testl	%eax, %eax	# D.22702
	je	.L290	#,
	.loc 1 2000 0 is_stmt 0 discriminator 1
	movq	%rbx, %rdi	# sv,
	call	Perl_sv_backoff	#
	testl	%eax, %eax	# D.22699
	je	.L290	#,
	.loc 1 2000 0
	nop
.L290:
	.loc 1 2000 0 discriminator 3
	movl	12(%rbx), %eax	# sv_2(D)->sv_flags, D.22702
	orl	$16777216, %eax	#, D.22702
	movl	%eax, 12(%rbx)	# D.22702, sv_2(D)->sv_flags
	.loc 1 2001 0 is_stmt 1 discriminator 3
	movl	12(%rbx), %eax	# sv_2(D)->sv_flags, D.22702
	orl	$33685504, %eax	#, D.22702
	movl	%eax, 12(%rbx)	# D.22702, sv_2(D)->sv_flags
	.loc 1 2002 0 discriminator 3
	movl	12(%rbx), %eax	# sv_2(D)->sv_flags, D.22702
	orl	$-2147483648, %eax	#, D.22702
	movl	%eax, 12(%rbx)	# D.22702, sv_2(D)->sv_flags
	.loc 1 2003 0 discriminator 3
	movq	(%rbx), %rax	# sv_2(D)->sv_any, D.22700
	movq	$-1, 24(%rax)	#, MEM[(struct XPVUV *)_29].xuv_uv
	.loc 1 2004 0 discriminator 3
	movl	$5, %eax	#, D.22699
	jmp	.L286	#
.L312:
	.loc 1 2006 0
	movl	12(%rbx), %eax	# sv_2(D)->sv_flags, D.22702
	andl	$2097152, %eax	#, D.22702
	testl	%eax, %eax	# D.22702
	je	.L292	#,
	.loc 1 2006 0 is_stmt 0 discriminator 1
	movq	%rbx, %rdi	# sv,
	call	Perl_sv_backoff	#
	testl	%eax, %eax	# D.22699
	je	.L292	#,
	.loc 1 2006 0
	nop
.L292:
	.loc 1 2006 0 discriminator 3
	movl	12(%rbx), %eax	# sv_2(D)->sv_flags, D.22702
	orl	$16777216, %eax	#, D.22702
	movl	%eax, 12(%rbx)	# D.22702, sv_2(D)->sv_flags
	.loc 1 2007 0 is_stmt 1 discriminator 3
	movl	12(%rbx), %eax	# sv_2(D)->sv_flags, D.22702
	orl	$33685504, %eax	#, D.22702
	movl	%eax, 12(%rbx)	# D.22702, sv_2(D)->sv_flags
	.loc 1 2010 0 discriminator 3
	movq	(%rbx), %rax	# sv_2(D)->sv_any, D.22700
	movsd	32(%rax), %xmm1	# MEM[(struct XPVNV *)_40].xnv_nv, D.22701
	movsd	.LC11(%rip), %xmm0	#, tmp136
	ucomisd	%xmm1, %xmm0	# D.22701, tmp136
	jb	.L313	#,
	.loc 1 2011 0
	movq	(%rbx), %r12	# sv_2(D)->sv_any, D.22700
	movq	(%rbx), %rax	# sv_2(D)->sv_any, D.22700
	movq	32(%rax), %rax	# MEM[(struct XPVNV *)_43].xnv_nv, D.22701
	movq	%rax, -32(%rbp)	# D.22701, %sfp
	movsd	-32(%rbp), %xmm0	# %sfp,
	call	Perl_cast_iv	#
	movq	%rax, 24(%r12)	# D.22703, MEM[(struct XPVIV *)_42].xiv_iv
	.loc 1 2012 0
	movq	(%rbx), %rax	# sv_2(D)->sv_any, D.22700
	movq	24(%rax), %rax	# MEM[(struct XPVIV *)_46].xiv_iv, D.22703
	cvtsi2sdq	%rax, %xmm0	# D.22703, D.22701
	movq	(%rbx), %rax	# sv_2(D)->sv_any, D.22700
	movsd	32(%rax), %xmm1	# MEM[(struct XPVNV *)_49].xnv_nv, D.22701
	ucomisd	%xmm1, %xmm0	# D.22701, D.22701
	jp	.L295	#,
	ucomisd	%xmm1, %xmm0	# D.22701, D.22701
	jne	.L295	#,
	.loc 1 2013 0
	movl	12(%rbx), %eax	# sv_2(D)->sv_flags, D.22702
	andl	$2097152, %eax	#, D.22702
	testl	%eax, %eax	# D.22702
	je	.L298	#,
	.loc 1 2013 0 is_stmt 0 discriminator 1
	movq	%rbx, %rdi	# sv,
	call	Perl_sv_backoff	#
	testl	%eax, %eax	# D.22699
	je	.L298	#,
	.loc 1 2013 0
	nop
.L298:
	.loc 1 2013 0 discriminator 3
	movl	12(%rbx), %eax	# sv_2(D)->sv_flags, D.22702
	orl	$16842752, %eax	#, D.22702
	movl	%eax, 12(%rbx)	# D.22702, sv_2(D)->sv_flags
.L295:
	.loc 1 2017 0 is_stmt 1
	movl	$2, %eax	#, D.22699
	jmp	.L286	#
.L313:
	.loc 1 2019 0
	movl	12(%rbx), %eax	# sv_2(D)->sv_flags, D.22702
	orl	$-2147483648, %eax	#, D.22702
	movl	%eax, 12(%rbx)	# D.22702, sv_2(D)->sv_flags
	.loc 1 2020 0
	movq	(%rbx), %r12	# sv_2(D)->sv_any, D.22700
	movq	(%rbx), %rax	# sv_2(D)->sv_any, D.22700
	movq	32(%rax), %rax	# MEM[(struct XPVNV *)_62].xnv_nv, D.22701
	movq	%rax, -32(%rbp)	# D.22701, %sfp
	movsd	-32(%rbp), %xmm0	# %sfp,
	call	Perl_cast_uv	#
	movq	%rax, 24(%r12)	# D.22704, MEM[(struct XPVUV *)_61].xuv_uv
	.loc 1 2021 0
	movq	(%rbx), %rax	# sv_2(D)->sv_any, D.22700
	movq	24(%rax), %rax	# MEM[(struct XPVUV *)_65].xuv_uv, D.22704
	testq	%rax, %rax	# D.22704
	js	.L299	#,
	cvtsi2sdq	%rax, %xmm0	# D.22704, D.22701
	jmp	.L300	#
.L299:
	movq	%rax, %rdx	# D.22704, tmp138
	shrq	%rdx	# tmp138
	andl	$1, %eax	#, tmp139
	orq	%rax, %rdx	# tmp139, tmp138
	cvtsi2sdq	%rdx, %xmm0	# tmp138, tmp137
	addsd	%xmm0, %xmm0	# tmp137, D.22701
.L300:
	movq	(%rbx), %rax	# sv_2(D)->sv_any, D.22700
	movsd	32(%rax), %xmm1	# MEM[(struct XPVNV *)_68].xnv_nv, D.22701
	ucomisd	%xmm1, %xmm0	# D.22701, D.22701
	jp	.L301	#,
	ucomisd	%xmm1, %xmm0	# D.22701, D.22701
	jne	.L301	#,
	.loc 1 2022 0
	movq	(%rbx), %rax	# sv_2(D)->sv_any, D.22700
	movq	24(%rax), %rax	# MEM[(struct XPVUV *)_70].xuv_uv, D.22704
	cmpq	$-1, %rax	#, D.22704
	jne	.L303	#,
	.loc 1 2026 0
	movl	$5, %eax	#, D.22699
	jmp	.L286	#
.L303:
	.loc 1 2028 0
	movl	12(%rbx), %eax	# sv_2(D)->sv_flags, D.22702
	andl	$2097152, %eax	#, D.22702
	testl	%eax, %eax	# D.22702
	je	.L305	#,
	.loc 1 2028 0 is_stmt 0 discriminator 1
	movq	%rbx, %rdi	# sv,
	call	Perl_sv_backoff	#
	testl	%eax, %eax	# D.22699
	je	.L305	#,
	.loc 1 2028 0
	nop
.L305:
	.loc 1 2028 0 discriminator 3
	movl	12(%rbx), %eax	# sv_2(D)->sv_flags, D.22702
	orl	$16842752, %eax	#, D.22702
	movl	%eax, 12(%rbx)	# D.22702, sv_2(D)->sv_flags
.L301:
	.loc 1 2032 0 is_stmt 1
	movl	$4, %eax	#, D.22699
.L286:
	.loc 1 2033 0
	addq	$16, %rsp	#,
	popq	%rbx	#
	popq	%r12	#
	popq	%rbp	#
	.cfi_def_cfa 7, 8
	ret
	.cfi_endproc
.LFE60:
	.size	S_sv_2iuv_non_preserve, .-S_sv_2iuv_non_preserve
	.section	.rodata
	.align 8
.LC13:
	.string	"sv_2iv assumed (U_V(fabs((double)SvNVX(sv))) < (UV)IV_MAX) but SvNVX(sv)=%g U_V is 0x%lx, IV_MAX is 0x%lx\n"
	.text
	.globl	Perl_sv_2iv
	.type	Perl_sv_2iv, @function
Perl_sv_2iv:
.LFB61:
	.loc 1 2047 0
	.cfi_startproc
	pushq	%rbp	#
	.cfi_def_cfa_offset 16
	.cfi_offset 6, -16
	movq	%rsp, %rbp	#,
	.cfi_def_cfa_register 6
	pushq	%r12	#
	pushq	%rbx	#
	subq	$48, %rsp	#,
	.cfi_offset 12, -24
	.cfi_offset 3, -32
	movq	%rdi, %rbx	# sv, sv
	.loc 1 2048 0
	testq	%rbx, %rbx	# sv
	jne	.L315	#,
	.loc 1 2049 0
	movl	$0, %eax	#, D.22705
	jmp	.L316	#
.L315:
	.loc 1 2050 0
	movl	12(%rbx), %eax	# sv_6(D)->sv_flags, D.22706
	andl	$8192, %eax	#, D.22706
	testl	%eax, %eax	# D.22706
	je	.L317	#,
	.loc 1 2051 0
	movq	%rbx, %rdi	# sv,
	call	Perl_mg_get	#
	.loc 1 2052 0
	movl	12(%rbx), %eax	# sv_6(D)->sv_flags, D.22706
	andl	$16777216, %eax	#, D.22706
	testl	%eax, %eax	# D.22706
	je	.L318	#,
	.loc 1 2053 0
	movq	(%rbx), %rax	# sv_6(D)->sv_any, D.22707
	movq	24(%rax), %rax	# MEM[(struct XPVIV *)_12].xiv_iv, D.22705
	jmp	.L316	#
.L318:
	.loc 1 2054 0
	movl	12(%rbx), %eax	# sv_6(D)->sv_flags, D.22706
	andl	$33554432, %eax	#, D.22706
	testl	%eax, %eax	# D.22706
	je	.L319	#,
	.loc 1 2055 0
	movq	(%rbx), %rax	# sv_6(D)->sv_any, D.22707
	movq	32(%rax), %rax	# MEM[(struct XPVNV *)_16].xnv_nv, D.22708
	movq	%rax, -56(%rbp)	# D.22708, %sfp
	movsd	-56(%rbp), %xmm0	# %sfp,
	call	Perl_cast_iv	#
	jmp	.L316	#
.L319:
	.loc 1 2057 0
	movl	12(%rbx), %eax	# sv_6(D)->sv_flags, D.22706
	andl	$67108864, %eax	#, D.22706
	testl	%eax, %eax	# D.22706
	je	.L320	#,
	.loc 1 2057 0 is_stmt 0 discriminator 1
	movq	(%rbx), %rax	# sv_6(D)->sv_any, D.22707
	movq	16(%rax), %rax	# MEM[(struct XPV *)_21].xpv_len, D.22709
	testq	%rax, %rax	# D.22709
	je	.L320	#,
	.loc 1 2058 0 is_stmt 1
	movq	%rbx, %rdi	# sv,
	call	S_asIV	#
	jmp	.L316	#
.L320:
	.loc 1 2059 0
	movl	12(%rbx), %eax	# sv_6(D)->sv_flags, D.22706
	andl	$524288, %eax	#, D.22706
	testl	%eax, %eax	# D.22706
	jne	.L317	#,
	.loc 1 2060 0
	movl	12(%rbx), %eax	# sv_6(D)->sv_flags, D.22706
	andl	$512, %eax	#, D.22706
	testl	%eax, %eax	# D.22706
	jne	.L321	#,
	.loc 1 2061 0
	movq	PL_curcop(%rip), %rax	# PL_curcop, PL_curcop.120
	movq	80(%rax), %rax	# PL_curcop.120_28->cop_warnings, D.22710
	testq	%rax, %rax	# D.22710
	je	.L322	#,
	.loc 1 2061 0 is_stmt 0 discriminator 1
	movq	PL_curcop(%rip), %rax	# PL_curcop, PL_curcop.121
	movq	80(%rax), %rax	# PL_curcop.121_30->cop_warnings, D.22710
	cmpq	$32, %rax	#, D.22710
	je	.L322	#,
	movq	PL_curcop(%rip), %rax	# PL_curcop, PL_curcop.122
	movq	80(%rax), %rax	# PL_curcop.122_32->cop_warnings, D.22710
	cmpq	$16, %rax	#, D.22710
	je	.L323	#,
	.loc 1 2061 0 discriminator 2
	movq	PL_curcop(%rip), %rax	# PL_curcop, PL_curcop.123
	movq	80(%rax), %rax	# PL_curcop.123_34->cop_warnings, D.22710
	movq	(%rax), %rax	# _35->sv_any, D.22707
	movq	(%rax), %rax	# MEM[(struct XPV *)_36].xpv_pv, D.22711
	addq	$10, %rax	#, D.22711
	movzbl	(%rax), %eax	# *_38, D.22712
	movsbl	%al, %eax	# D.22712, D.22713
	andl	$4, %eax	#, D.22713
	testl	%eax, %eax	# D.22713
	jne	.L323	#,
.L322:
	movq	PL_curcop(%rip), %rax	# PL_curcop, PL_curcop.124
	movq	80(%rax), %rax	# PL_curcop.124_42->cop_warnings, D.22710
	testq	%rax, %rax	# D.22710
	jne	.L321	#,
	.loc 1 2061 0 discriminator 1
	movzbl	PL_dowarn(%rip), %eax	# PL_dowarn, PL_dowarn.125
	movzbl	%al, %eax	# PL_dowarn.125, D.22713
	andl	$1, %eax	#, D.22713
	testl	%eax, %eax	# D.22713
	je	.L321	#,
.L323:
	movl	PL_localizing(%rip), %eax	# PL_localizing, PL_localizing.126
	testl	%eax, %eax	# PL_localizing.126
	jne	.L321	#,
	.loc 1 2062 0 is_stmt 1
	call	Perl_report_uninit	#
.L321:
	.loc 1 2064 0
	movl	$0, %eax	#, D.22705
	jmp	.L316	#
.L317:
	.loc 1 2067 0
	movl	12(%rbx), %eax	# sv_6(D)->sv_flags, D.22706
	andl	$9961472, %eax	#, D.22706
	testl	%eax, %eax	# D.22706
	je	.L324	#,
	.loc 1 2068 0
	movl	12(%rbx), %eax	# sv_6(D)->sv_flags, D.22706
	andl	$524288, %eax	#, D.22706
	testl	%eax, %eax	# D.22706
	je	.L325	#,
.LBB7:
	.loc 1 2070 0
	movl	12(%rbx), %eax	# sv_6(D)->sv_flags, D.22706
	andl	$268435456, %eax	#, D.22706
	testl	%eax, %eax	# D.22706
	je	.L326	#,
	.loc 1 2070 0 is_stmt 0 discriminator 1
	movl	$9, %ecx	#,
	movl	$5, %edx	#,
	movl	$PL_sv_undef, %esi	#,
	movq	%rbx, %rdi	# sv,
	call	Perl_amagic_call	#
	movq	%rax, -24(%rbp)	# tmp369, tmpstr
	cmpq	$0, -24(%rbp)	#, tmpstr
	je	.L326	#,
	.loc 1 2071 0 is_stmt 1 discriminator 1
	movq	-24(%rbp), %rax	# tmpstr, tmp370
	movl	12(%rax), %eax	# tmpstr_55->sv_flags, D.22706
	andl	$524288, %eax	#, D.22706
	.loc 1 2070 0 discriminator 1
	testl	%eax, %eax	# D.22706
	je	.L327	#,
	.loc 1 2071 0
	movq	-24(%rbp), %rax	# tmpstr, tmp371
	movq	(%rax), %rax	# tmpstr_55->sv_any, D.22707
	movq	(%rax), %rdx	# MEM[(struct XRV *)_58].xrv_rv, D.22710
	movq	(%rbx), %rax	# sv_6(D)->sv_any, D.22707
	movq	(%rax), %rax	# MEM[(struct XRV *)_60].xrv_rv, D.22710
	cmpq	%rax, %rdx	# D.22710, D.22710
	je	.L326	#,
.L327:
	.loc 1 2072 0
	movq	-24(%rbp), %rax	# tmpstr, tmp372
	movl	12(%rax), %eax	# tmpstr_55->sv_flags, D.22706
	andl	$65536, %eax	#, D.22706
	testl	%eax, %eax	# D.22706
	je	.L328	#,
	.loc 1 2072 0 is_stmt 0 discriminator 1
	movq	-24(%rbp), %rax	# tmpstr, tmp373
	movq	(%rax), %rax	# tmpstr_55->sv_any, D.22707
	movq	24(%rax), %rax	# MEM[(struct XPVIV *)_64].xiv_iv, iftmp.127
	jmp	.L329	#
.L328:
	.loc 1 2072 0 discriminator 2
	movq	-24(%rbp), %rax	# tmpstr, tmp374
	movq	%rax, %rdi	# tmp374,
	call	Perl_sv_2iv	#
.L329:
	.loc 1 2072 0 discriminator 3
	jmp	.L316	#
.L326:
	.loc 1 2073 0 is_stmt 1
	movq	(%rbx), %rax	# sv_6(D)->sv_any, D.22707
	movq	(%rax), %rax	# MEM[(struct XRV *)_68].xrv_rv, D.22710
	jmp	.L316	#
.L325:
.LBE7:
	.loc 1 2075 0
	movl	12(%rbx), %eax	# sv_6(D)->sv_flags, D.22706
	andl	$8388608, %eax	#, D.22706
	testl	%eax, %eax	# D.22706
	je	.L330	#,
	.loc 1 2075 0 is_stmt 0 discriminator 1
	movl	12(%rbx), %eax	# sv_6(D)->sv_flags, D.22706
	andl	$1048576, %eax	#, D.22706
	testl	%eax, %eax	# D.22706
	je	.L330	#,
	.loc 1 2076 0 is_stmt 1
	movq	%rbx, %rdi	# sv,
	call	Perl_sv_force_normal	#
.L330:
	.loc 1 2078 0
	movl	12(%rbx), %eax	# sv_6(D)->sv_flags, D.22706
	andl	$8388608, %eax	#, D.22706
	testl	%eax, %eax	# D.22706
	je	.L324	#,
	.loc 1 2078 0 is_stmt 0 discriminator 1
	movl	12(%rbx), %eax	# sv_6(D)->sv_flags, D.22706
	andl	$118423552, %eax	#, D.22706
	testl	%eax, %eax	# D.22706
	jne	.L324	#,
	.loc 1 2079 0 is_stmt 1
	movq	PL_curcop(%rip), %rax	# PL_curcop, PL_curcop.128
	movq	80(%rax), %rax	# PL_curcop.128_79->cop_warnings, D.22710
	testq	%rax, %rax	# D.22710
	je	.L331	#,
	.loc 1 2079 0 is_stmt 0 discriminator 1
	movq	PL_curcop(%rip), %rax	# PL_curcop, PL_curcop.129
	movq	80(%rax), %rax	# PL_curcop.129_81->cop_warnings, D.22710
	cmpq	$32, %rax	#, D.22710
	je	.L331	#,
	movq	PL_curcop(%rip), %rax	# PL_curcop, PL_curcop.130
	movq	80(%rax), %rax	# PL_curcop.130_83->cop_warnings, D.22710
	cmpq	$16, %rax	#, D.22710
	je	.L332	#,
	movq	PL_curcop(%rip), %rax	# PL_curcop, PL_curcop.131
	movq	80(%rax), %rax	# PL_curcop.131_85->cop_warnings, D.22710
	movq	(%rax), %rax	# _86->sv_any, D.22707
	movq	(%rax), %rax	# MEM[(struct XPV *)_87].xpv_pv, D.22711
	addq	$10, %rax	#, D.22711
	movzbl	(%rax), %eax	# *_89, D.22712
	movsbl	%al, %eax	# D.22712, D.22713
	andl	$4, %eax	#, D.22713
	testl	%eax, %eax	# D.22713
	jne	.L332	#,
.L331:
	.loc 1 2079 0 discriminator 2
	movq	PL_curcop(%rip), %rax	# PL_curcop, PL_curcop.132
	movq	80(%rax), %rax	# PL_curcop.132_93->cop_warnings, D.22710
	testq	%rax, %rax	# D.22710
	jne	.L333	#,
	.loc 1 2079 0 discriminator 1
	movzbl	PL_dowarn(%rip), %eax	# PL_dowarn, PL_dowarn.133
	movzbl	%al, %eax	# PL_dowarn.133, D.22713
	andl	$1, %eax	#, D.22713
	testl	%eax, %eax	# D.22713
	je	.L333	#,
.L332:
	.loc 1 2080 0 is_stmt 1
	call	Perl_report_uninit	#
.L333:
	.loc 1 2081 0
	movl	$0, %eax	#, D.22705
	jmp	.L316	#
.L324:
	.loc 1 2084 0
	movl	12(%rbx), %eax	# sv_6(D)->sv_flags, D.22706
	andl	$16777216, %eax	#, D.22706
	testl	%eax, %eax	# D.22706
	je	.L334	#,
	.loc 1 2085 0
	movl	12(%rbx), %eax	# sv_6(D)->sv_flags, D.22706
	testl	%eax, %eax	# D.22714
	jns	.L335	#,
	.loc 1 2086 0
	movq	(%rbx), %rax	# sv_6(D)->sv_any, D.22707
	movq	24(%rax), %rax	# MEM[(struct XPVUV *)_103].xuv_uv, D.22709
	jmp	.L316	#
.L335:
	.loc 1 2089 0
	movq	(%rbx), %rax	# sv_6(D)->sv_any, D.22707
	movq	24(%rax), %rax	# MEM[(struct XPVIV *)_106].xiv_iv, D.22705
	jmp	.L316	#
.L334:
	.loc 1 2092 0
	movl	12(%rbx), %eax	# sv_6(D)->sv_flags, D.22706
	andl	$33554432, %eax	#, D.22706
	testl	%eax, %eax	# D.22706
	je	.L336	#,
	.loc 1 2098 0
	movl	12(%rbx), %eax	# sv_6(D)->sv_flags, D.22706
	movzbl	%al, %eax	# D.22706, D.22706
	cmpl	$2, %eax	#, D.22706
	jne	.L337	#,
	.loc 1 2099 0
	movl	$6, %esi	#,
	movq	%rbx, %rdi	# sv,
	call	Perl_sv_upgrade	#
.L337:
	.loc 1 2101 0
	movl	12(%rbx), %eax	# sv_6(D)->sv_flags, D.22706
	andl	$2097152, %eax	#, D.22706
	testl	%eax, %eax	# D.22706
	je	.L339	#,
	.loc 1 2101 0 is_stmt 0 discriminator 1
	movq	%rbx, %rdi	# sv,
	call	Perl_sv_backoff	#
	testl	%eax, %eax	# D.22713
	je	.L339	#,
	.loc 1 2101 0
	nop
.L339:
	.loc 1 2101 0 discriminator 3
	movl	12(%rbx), %eax	# sv_6(D)->sv_flags, D.22706
	orl	$16777216, %eax	#, D.22706
	movl	%eax, 12(%rbx)	# D.22706, sv_6(D)->sv_flags
	.loc 1 2106 0 is_stmt 1 discriminator 3
	movq	(%rbx), %rax	# sv_6(D)->sv_any, D.22707
	movsd	32(%rax), %xmm1	# MEM[(struct XPVNV *)_119].xnv_nv, D.22708
	movsd	.LC11(%rip), %xmm0	#, tmp375
	ucomisd	%xmm1, %xmm0	# D.22708, tmp375
	jbe	.L402	#,
	.loc 1 2107 0
	movq	(%rbx), %r12	# sv_6(D)->sv_any, D.22707
	movq	(%rbx), %rax	# sv_6(D)->sv_any, D.22707
	movq	32(%rax), %rax	# MEM[(struct XPVNV *)_122].xnv_nv, D.22708
	movq	%rax, -56(%rbp)	# D.22708, %sfp
	movsd	-56(%rbp), %xmm0	# %sfp,
	call	Perl_cast_iv	#
	movq	%rax, 24(%r12)	# D.22715, MEM[(struct XPVIV *)_121].xiv_iv
	.loc 1 2108 0
	movq	(%rbx), %rax	# sv_6(D)->sv_any, D.22707
	movsd	32(%rax), %xmm1	# MEM[(struct XPVNV *)_125].xnv_nv, D.22708
	movq	(%rbx), %rax	# sv_6(D)->sv_any, D.22707
	movq	24(%rax), %rax	# MEM[(struct XPVIV *)_127].xiv_iv, D.22715
	cvtsi2sdq	%rax, %xmm0	# D.22715, D.22708
	ucomisd	%xmm0, %xmm1	# D.22708, D.22708
	jp	.L342	#,
	ucomisd	%xmm0, %xmm1	# D.22708, D.22708
	jne	.L342	#,
	.loc 1 2111 0
	movq	(%rbx), %rax	# sv_6(D)->sv_any, D.22707
	movq	24(%rax), %rax	# MEM[(struct XPVIV *)_130].xiv_iv, D.22715
	cqto
	xorq	%rdx, %rax	# tmp376, D.22715
	subq	%rdx, %rax	# tmp376, D.22715
	movq	%rax, %rdx	# D.22715, D.22709
	.loc 1 2110 0
	movl	$4294967295, %eax	#, tmp377
	cmpq	%rax, %rdx	# tmp377, D.22709
	ja	.L342	#,
	.loc 1 2117 0
	movl	12(%rbx), %eax	# sv_6(D)->sv_flags, D.22706
	andl	$2097152, %eax	#, D.22706
	testl	%eax, %eax	# D.22706
	je	.L345	#,
	.loc 1 2117 0 is_stmt 0 discriminator 1
	movq	%rbx, %rdi	# sv,
	call	Perl_sv_backoff	#
	testl	%eax, %eax	# D.22713
	je	.L345	#,
	.loc 1 2117 0
	nop
.L345:
	.loc 1 2117 0 discriminator 3
	movl	12(%rbx), %eax	# sv_6(D)->sv_flags, D.22706
	orl	$16842752, %eax	#, D.22706
	movl	%eax, 12(%rbx)	# D.22706, sv_6(D)->sv_flags
	jmp	.L342	#
.L402:
	.loc 1 2145 0 is_stmt 1
	movq	(%rbx), %r12	# sv_6(D)->sv_any, D.22707
	movq	(%rbx), %rax	# sv_6(D)->sv_any, D.22707
	movq	32(%rax), %rax	# MEM[(struct XPVNV *)_142].xnv_nv, D.22708
	movq	%rax, -56(%rbp)	# D.22708, %sfp
	movsd	-56(%rbp), %xmm0	# %sfp,
	call	Perl_cast_uv	#
	movq	%rax, 24(%r12)	# D.22709, MEM[(struct XPVUV *)_141].xuv_uv
	.loc 1 2147 0
	movq	(%rbx), %rax	# sv_6(D)->sv_any, D.22707
	movsd	32(%rax), %xmm1	# MEM[(struct XPVNV *)_145].xnv_nv, D.22708
	movq	(%rbx), %rax	# sv_6(D)->sv_any, D.22707
	movq	24(%rax), %rax	# MEM[(struct XPVUV *)_147].xuv_uv, D.22709
	testq	%rax, %rax	# D.22709
	js	.L346	#,
	cvtsi2sdq	%rax, %xmm0	# D.22709, D.22708
	jmp	.L347	#
.L346:
	movq	%rax, %rdx	# D.22709, tmp379
	shrq	%rdx	# tmp379
	andl	$1, %eax	#, tmp380
	orq	%rax, %rdx	# tmp380, tmp379
	cvtsi2sdq	%rdx, %xmm0	# tmp379, tmp378
	addsd	%xmm0, %xmm0	# tmp378, D.22708
.L347:
	.loc 1 2146 0
	ucomisd	%xmm0, %xmm1	# D.22708, D.22708
	jp	.L348	#,
	ucomisd	%xmm0, %xmm1	# D.22708, D.22708
	jne	.L348	#,
	.loc 1 2151 0
	movq	(%rbx), %rax	# sv_6(D)->sv_any, D.22707
	movq	24(%rax), %rdx	# MEM[(struct XPVUV *)_150].xuv_uv, D.22709
	movl	$4294967295, %eax	#, tmp381
	cmpq	%rax, %rdx	# tmp381, D.22709
	ja	.L348	#,
	.loc 1 2157 0
	movl	12(%rbx), %eax	# sv_6(D)->sv_flags, D.22706
	andl	$2097152, %eax	#, D.22706
	testl	%eax, %eax	# D.22706
	je	.L351	#,
	.loc 1 2157 0 is_stmt 0 discriminator 1
	movq	%rbx, %rdi	# sv,
	call	Perl_sv_backoff	#
	testl	%eax, %eax	# D.22713
	je	.L351	#,
	.loc 1 2157 0
	nop
.L351:
	.loc 1 2157 0 discriminator 3
	movl	12(%rbx), %eax	# sv_6(D)->sv_flags, D.22706
	orl	$16842752, %eax	#, D.22706
	movl	%eax, 12(%rbx)	# D.22706, sv_6(D)->sv_flags
.L348:
	.loc 1 2158 0 is_stmt 1
	movl	12(%rbx), %eax	# sv_6(D)->sv_flags, D.22706
	orl	$-2147483648, %eax	#, D.22706
	movl	%eax, 12(%rbx)	# D.22706, sv_6(D)->sv_flags
.L352:
	.loc 1 2165 0
	movq	(%rbx), %rax	# sv_6(D)->sv_any, D.22707
	movq	24(%rax), %rax	# MEM[(struct XPVUV *)_322].xuv_uv, D.22709
	jmp	.L316	#
.L336:
	.loc 1 2168 0
	movl	12(%rbx), %eax	# sv_6(D)->sv_flags, D.22706
	andl	$67108864, %eax	#, D.22706
	testl	%eax, %eax	# D.22706
	je	.L353	#,
	.loc 1 2168 0 is_stmt 0 discriminator 1
	movq	(%rbx), %rax	# sv_6(D)->sv_any, D.22707
	movq	16(%rax), %rax	# MEM[(struct XPV *)_163].xpv_len, D.22709
	testq	%rax, %rax	# D.22709
	je	.L353	#,
.LBB8:
	.loc 1 2170 0 is_stmt 1
	movq	(%rbx), %rax	# sv_6(D)->sv_any, D.22707
	movq	8(%rax), %rcx	# MEM[(struct XPV *)_165].xpv_cur, D.22709
	movq	(%rbx), %rax	# sv_6(D)->sv_any, D.22707
	movq	(%rax), %rax	# MEM[(struct XPV *)_167].xpv_pv, D.22711
	leaq	-32(%rbp), %rdx	#, tmp382
	movq	%rcx, %rsi	# D.22709,
	movq	%rax, %rdi	# D.22711,
	call	Perl_grok_number	#
	movl	%eax, -36(%rbp)	# tmp383, numtype
	.loc 1 2184 0
	movl	-36(%rbp), %eax	# numtype, tmp384
	andl	$5, %eax	#, D.22713
	cmpl	$1, %eax	#, D.22713
	jne	.L354	#,
	.loc 1 2187 0
	movl	12(%rbx), %eax	# sv_6(D)->sv_flags, D.22706
	movzbl	%al, %eax	# D.22706, D.22706
	cmpl	$4, %eax	#, D.22706
	ja	.L355	#,
	.loc 1 2188 0
	movl	$5, %esi	#,
	movq	%rbx, %rdi	# sv,
	call	Perl_sv_upgrade	#
.L355:
	.loc 1 2189 0
	movl	12(%rbx), %eax	# sv_6(D)->sv_flags, D.22706
	andl	$2097152, %eax	#, D.22706
	testl	%eax, %eax	# D.22706
	je	.L357	#,
	.loc 1 2189 0 is_stmt 0 discriminator 1
	movq	%rbx, %rdi	# sv,
	call	Perl_sv_backoff	#
	testl	%eax, %eax	# D.22713
	je	.L357	#,
	.loc 1 2189 0
	nop
.L357:
	.loc 1 2189 0 discriminator 3
	movl	12(%rbx), %eax	# sv_6(D)->sv_flags, D.22706
	orl	$16842752, %eax	#, D.22706
	movl	%eax, 12(%rbx)	# D.22706, sv_6(D)->sv_flags
	jmp	.L358	#
.L354:
	.loc 1 2190 0 is_stmt 1
	movl	12(%rbx), %eax	# sv_6(D)->sv_flags, D.22706
	movzbl	%al, %eax	# D.22706, D.22706
	cmpl	$5, %eax	#, D.22706
	ja	.L358	#,
	.loc 1 2191 0
	movl	$6, %esi	#,
	movq	%rbx, %rdi	# sv,
	call	Perl_sv_upgrade	#
.L358:
	.loc 1 2197 0
	movl	-36(%rbp), %eax	# numtype, tmp385
	andl	$1, %eax	#, D.22713
	testl	%eax, %eax	# D.22713
	je	.L359	#,
	.loc 1 2203 0
	movl	12(%rbx), %eax	# sv_6(D)->sv_flags, D.22706
	andl	$2097152, %eax	#, D.22706
	testl	%eax, %eax	# D.22706
	je	.L361	#,
	.loc 1 2203 0 is_stmt 0 discriminator 1
	movq	%rbx, %rdi	# sv,
	call	Perl_sv_backoff	#
	testl	%eax, %eax	# D.22713
	je	.L361	#,
	.loc 1 2203 0
	nop
.L361:
	.loc 1 2203 0 discriminator 3
	movl	12(%rbx), %eax	# sv_6(D)->sv_flags, D.22706
	orl	$16777216, %eax	#, D.22706
	movl	%eax, 12(%rbx)	# D.22706, sv_6(D)->sv_flags
	.loc 1 2205 0 is_stmt 1 discriminator 3
	movl	-36(%rbp), %eax	# numtype, tmp386
	andl	$8, %eax	#, D.22713
	testl	%eax, %eax	# D.22713
	jne	.L362	#,
	.loc 1 2207 0
	movq	-32(%rbp), %rax	# value, value.139
	testq	%rax, %rax	# value.140
	js	.L363	#,
	.loc 1 2208 0
	movq	(%rbx), %rax	# sv_6(D)->sv_any, D.22707
	movq	-32(%rbp), %rdx	# value, value.141
	movq	%rdx, 24(%rax)	# value.142, MEM[(struct XPVIV *)_193].xiv_iv
	jmp	.L359	#
.L363:
	.loc 1 2210 0
	movq	(%rbx), %rax	# sv_6(D)->sv_any, D.22707
	movq	-32(%rbp), %rdx	# value, value.143
	movq	%rdx, 24(%rax)	# value.143, MEM[(struct XPVUV *)_196].xuv_uv
	.loc 1 2211 0
	movl	12(%rbx), %eax	# sv_6(D)->sv_flags, D.22706
	orl	$-2147483648, %eax	#, D.22706
	movl	%eax, 12(%rbx)	# D.22706, sv_6(D)->sv_flags
	jmp	.L359	#
.L362:
	.loc 1 2215 0
	movq	-32(%rbp), %rdx	# value, value.144
	movabsq	$-9223372036854775808, %rax	#, tmp387
	cmpq	%rax, %rdx	# tmp387, value.144
	ja	.L365	#,
	.loc 1 2216 0
	movq	(%rbx), %rax	# sv_6(D)->sv_any, D.22707
	movq	-32(%rbp), %rdx	# value, value.145
	negq	%rdx	# D.22715
	movq	%rdx, 24(%rax)	# D.22715, MEM[(struct XPVIV *)_201].xiv_iv
	jmp	.L359	#
.L365:
	.loc 1 2220 0
	movl	12(%rbx), %eax	# sv_6(D)->sv_flags, D.22706
	movzbl	%al, %eax	# D.22706, D.22706
	cmpl	$5, %eax	#, D.22706
	ja	.L366	#,
	.loc 1 2221 0
	movl	$6, %esi	#,
	movq	%rbx, %rdi	# sv,
	call	Perl_sv_upgrade	#
.L366:
	.loc 1 2222 0
	movl	12(%rbx), %eax	# sv_6(D)->sv_flags, D.22706
	orl	$33685504, %eax	#, D.22706
	movl	%eax, 12(%rbx)	# D.22706, sv_6(D)->sv_flags
	.loc 1 2223 0
	movl	12(%rbx), %eax	# sv_6(D)->sv_flags, D.22706
	andl	$2130640895, %eax	#, D.22706
	movl	%eax, 12(%rbx)	# D.22706, sv_6(D)->sv_flags
	.loc 1 2224 0
	movl	12(%rbx), %eax	# sv_6(D)->sv_flags, D.22706
	andl	$2097152, %eax	#, D.22706
	testl	%eax, %eax	# D.22706
	je	.L368	#,
	.loc 1 2224 0 is_stmt 0 discriminator 1
	movq	%rbx, %rdi	# sv,
	call	Perl_sv_backoff	#
	testl	%eax, %eax	# D.22713
	je	.L368	#,
	.loc 1 2224 0
	nop
.L368:
	.loc 1 2224 0 discriminator 3
	movl	12(%rbx), %eax	# sv_6(D)->sv_flags, D.22706
	orl	$16777216, %eax	#, D.22706
	movl	%eax, 12(%rbx)	# D.22706, sv_6(D)->sv_flags
	.loc 1 2225 0 is_stmt 1 discriminator 3
	movq	(%rbx), %rcx	# sv_6(D)->sv_any, D.22707
	movq	-32(%rbp), %rax	# value, value.148
	testq	%rax, %rax	# value.148
	js	.L369	#,
	cvtsi2sdq	%rax, %xmm0	# value.148, D.22708
	jmp	.L370	#
.L369:
	movq	%rax, %rdx	# value.148, tmp389
	shrq	%rdx	# tmp389
	andl	$1, %eax	#, tmp390
	orq	%rax, %rdx	# tmp390, tmp389
	cvtsi2sdq	%rdx, %xmm0	# tmp389, tmp388
	addsd	%xmm0, %xmm0	# tmp388, D.22708
.L370:
	movsd	.LC12(%rip), %xmm1	#, tmp391
	xorpd	%xmm1, %xmm0	# tmp391, D.22708
	movsd	%xmm0, 32(%rcx)	# D.22708, MEM[(struct XPVNV *)_218].xnv_nv
	.loc 1 2226 0 discriminator 3
	movq	(%rbx), %rax	# sv_6(D)->sv_any, D.22707
	movabsq	$-9223372036854775808, %rcx	#, tmp407
	movq	%rcx, 24(%rax)	# tmp407, MEM[(struct XPVIV *)_222].xiv_iv
.L359:
	.loc 1 2234 0
	movl	-36(%rbp), %eax	# numtype, tmp392
	andl	$5, %eax	#, D.22713
	cmpl	$1, %eax	#, D.22713
	je	.L371	#,
	.loc 1 2237 0
	movq	(%rbx), %r12	# sv_6(D)->sv_any, D.22707
	movq	(%rbx), %rax	# sv_6(D)->sv_any, D.22707
	movq	(%rax), %rax	# MEM[(struct XPV *)_225].xpv_pv, D.22711
	movq	%rax, %rdi	# D.22711,
	call	Perl_my_atof	#
	movsd	%xmm0, -56(%rbp)	#, %sfp
	movq	-56(%rbp), %rax	# %sfp, D.22708
	movq	%rax, 32(%r12)	# D.22708, MEM[(struct XPVNV *)_224].xnv_nv
	.loc 1 2239 0
	cmpl	$0, -36(%rbp)	#, numtype
	jne	.L372	#,
	.loc 1 2239 0 is_stmt 0 discriminator 1
	movq	PL_curcop(%rip), %rax	# PL_curcop, PL_curcop.149
	movq	80(%rax), %rax	# PL_curcop.149_228->cop_warnings, D.22710
	testq	%rax, %rax	# D.22710
	je	.L373	#,
	movq	PL_curcop(%rip), %rax	# PL_curcop, PL_curcop.150
	movq	80(%rax), %rax	# PL_curcop.150_230->cop_warnings, D.22710
	cmpq	$32, %rax	#, D.22710
	je	.L373	#,
	movq	PL_curcop(%rip), %rax	# PL_curcop, PL_curcop.151
	movq	80(%rax), %rax	# PL_curcop.151_232->cop_warnings, D.22710
	cmpq	$16, %rax	#, D.22710
	je	.L374	#,
	movq	PL_curcop(%rip), %rax	# PL_curcop, PL_curcop.152
	movq	80(%rax), %rax	# PL_curcop.152_234->cop_warnings, D.22710
	movq	(%rax), %rax	# _235->sv_any, D.22707
	movq	(%rax), %rax	# MEM[(struct XPV *)_236].xpv_pv, D.22711
	addq	$3, %rax	#, D.22711
	movzbl	(%rax), %eax	# *_238, D.22712
	movsbl	%al, %eax	# D.22712, D.22713
	andl	$4, %eax	#, D.22713
	testl	%eax, %eax	# D.22713
	jne	.L374	#,
.L373:
	.loc 1 2239 0 discriminator 2
	movq	PL_curcop(%rip), %rax	# PL_curcop, PL_curcop.153
	movq	80(%rax), %rax	# PL_curcop.153_242->cop_warnings, D.22710
	testq	%rax, %rax	# D.22710
	jne	.L372	#,
	.loc 1 2239 0 discriminator 1
	movzbl	PL_dowarn(%rip), %eax	# PL_dowarn, PL_dowarn.154
	movzbl	%al, %eax	# PL_dowarn.154, D.22713
	andl	$1, %eax	#, D.22713
	testl	%eax, %eax	# D.22713
	je	.L372	#,
.L374:
	.loc 1 2240 0 is_stmt 1
	movq	%rbx, %rdi	# sv,
	call	S_not_a_number	#
.L372:
	.loc 1 2282 0
	movl	-36(%rbp), %eax	# numtype, tmp393
	andl	$5, %eax	#, D.22713
	cmpl	$5, %eax	#, D.22713
	jne	.L375	#,
	.loc 1 2287 0
	movl	12(%rbx), %eax	# sv_6(D)->sv_flags, D.22706
	orl	$33685504, %eax	#, D.22706
	movl	%eax, 12(%rbx)	# D.22706, sv_6(D)->sv_flags
	jmp	.L371	#
.L375:
	.loc 1 2291 0
	movq	(%rbx), %rax	# sv_6(D)->sv_any, D.22707
	movsd	32(%rax), %xmm0	# MEM[(struct XPVNV *)_250].xnv_nv, D.22708
	xorpd	%xmm1, %xmm1	# tmp394
	ucomisd	%xmm1, %xmm0	# tmp394, D.22708
	jbe	.L403	#,
	.loc 1 2291 0 is_stmt 0 discriminator 1
	movq	(%rbx), %rax	# sv_6(D)->sv_any, D.22707
	movq	32(%rax), %rax	# MEM[(struct XPVNV *)_252].xnv_nv, iftmp.155
	jmp	.L378	#
.L403:
	.loc 1 2291 0 discriminator 2
	movq	(%rbx), %rax	# sv_6(D)->sv_any, D.22707
	movsd	32(%rax), %xmm1	# MEM[(struct XPVNV *)_254].xnv_nv, D.22708
	movsd	.LC12(%rip), %xmm0	#, tmp395
	xorpd	%xmm0, %xmm1	# tmp395, iftmp.155
	movsd	%xmm1, -56(%rbp)	# iftmp.155, %sfp
	movq	-56(%rbp), %rax	# %sfp, iftmp.155
.L378:
	.loc 1 2291 0 discriminator 3
	movq	%rax, -56(%rbp)	# iftmp.155, %sfp
	movsd	-56(%rbp), %xmm0	# %sfp,
	call	Perl_cast_uv	#
	.loc 1 2290 0 is_stmt 1 discriminator 3
	movl	$4294967295, %edx	#, tmp396
	cmpq	%rdx, %rax	# tmp396, D.22709
	ja	.L379	#,
	.loc 1 2293 0
	movl	12(%rbx), %eax	# sv_6(D)->sv_flags, D.22706
	andl	$2097152, %eax	#, D.22706
	testl	%eax, %eax	# D.22706
	je	.L381	#,
	.loc 1 2293 0 is_stmt 0 discriminator 1
	movq	%rbx, %rdi	# sv,
	call	Perl_sv_backoff	#
	testl	%eax, %eax	# D.22713
	je	.L381	#,
	.loc 1 2293 0
	nop
.L381:
	.loc 1 2293 0 discriminator 3
	movl	12(%rbx), %eax	# sv_6(D)->sv_flags, D.22706
	orl	$16777216, %eax	#, D.22706
	movl	%eax, 12(%rbx)	# D.22706, sv_6(D)->sv_flags
	.loc 1 2294 0 is_stmt 1 discriminator 3
	movl	12(%rbx), %eax	# sv_6(D)->sv_flags, D.22706
	orl	$33685504, %eax	#, D.22706
	movl	%eax, 12(%rbx)	# D.22706, sv_6(D)->sv_flags
	.loc 1 2295 0 discriminator 3
	movq	(%rbx), %r12	# sv_6(D)->sv_any, D.22707
	movq	(%rbx), %rax	# sv_6(D)->sv_any, D.22707
	movq	32(%rax), %rax	# MEM[(struct XPVNV *)_268].xnv_nv, D.22708
	movq	%rax, -56(%rbp)	# D.22708, %sfp
	movsd	-56(%rbp), %xmm0	# %sfp,
	call	Perl_cast_iv	#
	movq	%rax, 24(%r12)	# D.22715, MEM[(struct XPVIV *)_267].xiv_iv
	.loc 1 2296 0 discriminator 3
	movq	(%rbx), %rax	# sv_6(D)->sv_any, D.22707
	movq	24(%rax), %rax	# MEM[(struct XPVIV *)_271].xiv_iv, D.22715
	cvtsi2sdq	%rax, %xmm0	# D.22715, D.22708
	movq	(%rbx), %rax	# sv_6(D)->sv_any, D.22707
	movsd	32(%rax), %xmm1	# MEM[(struct XPVNV *)_274].xnv_nv, D.22708
	ucomisd	%xmm1, %xmm0	# D.22708, D.22708
	jp	.L382	#,
	ucomisd	%xmm1, %xmm0	# D.22708, D.22708
	jne	.L382	#,
	.loc 1 2297 0
	movl	12(%rbx), %eax	# sv_6(D)->sv_flags, D.22706
	andl	$2097152, %eax	#, D.22706
	testl	%eax, %eax	# D.22706
	je	.L385	#,
	.loc 1 2297 0 is_stmt 0 discriminator 1
	movq	%rbx, %rdi	# sv,
	call	Perl_sv_backoff	#
	testl	%eax, %eax	# D.22713
	je	.L385	#,
	.loc 1 2297 0
	nop
.L385:
	.loc 1 2297 0 discriminator 3
	movl	12(%rbx), %eax	# sv_6(D)->sv_flags, D.22706
	orl	$16842752, %eax	#, D.22706
	movl	%eax, 12(%rbx)	# D.22706, sv_6(D)->sv_flags
.L382:
	.loc 1 2300 0 is_stmt 1
	movq	(%rbx), %rax	# sv_6(D)->sv_any, D.22707
	movsd	32(%rax), %xmm0	# MEM[(struct XPVNV *)_283].xnv_nv, D.22708
	xorpd	%xmm1, %xmm1	# tmp397
	ucomisd	%xmm1, %xmm0	# tmp397, D.22708
	jbe	.L404	#,
	.loc 1 2300 0 is_stmt 0 discriminator 1
	movq	(%rbx), %rax	# sv_6(D)->sv_any, D.22707
	movq	32(%rax), %rax	# MEM[(struct XPVNV *)_285].xnv_nv, iftmp.158
	jmp	.L388	#
.L404:
	.loc 1 2300 0 discriminator 2
	movq	(%rbx), %rax	# sv_6(D)->sv_any, D.22707
	movsd	32(%rax), %xmm1	# MEM[(struct XPVNV *)_287].xnv_nv, D.22708
	movsd	.LC12(%rip), %xmm0	#, tmp398
	xorpd	%xmm0, %xmm1	# tmp398, iftmp.158
	movsd	%xmm1, -56(%rbp)	# iftmp.158, %sfp
	movq	-56(%rbp), %rax	# %sfp, iftmp.158
.L388:
	.loc 1 2300 0 discriminator 3
	movq	%rax, -56(%rbp)	# iftmp.158, %sfp
	movsd	-56(%rbp), %xmm0	# %sfp,
	call	Perl_cast_uv	#
	movabsq	$9223372036854775806, %rdx	#, tmp399
	cmpq	%rdx, %rax	# tmp399, D.22709
	jbe	.L371	#,
	.loc 1 2302 0 is_stmt 1
	movq	(%rbx), %rax	# sv_6(D)->sv_any, D.22707
	movq	32(%rax), %rax	# MEM[(struct XPVNV *)_291].xnv_nv, D.22708
	movq	%rax, -56(%rbp)	# D.22708, %sfp
	movsd	-56(%rbp), %xmm0	# %sfp,
	call	Perl_cast_uv	#
	movq	%rax, %rcx	#, D.22709
	movq	(%rbx), %rax	# sv_6(D)->sv_any, D.22707
	movq	32(%rax), %rax	# MEM[(struct XPVNV *)_294].xnv_nv, D.22708
	movabsq	$9223372036854775807, %rdx	#,
	movq	%rcx, %rsi	# D.22709,
	movq	%rax, -56(%rbp)	# D.22708, %sfp
	movsd	-56(%rbp), %xmm0	# %sfp,
	movl	$.LC13, %edi	#,
	movl	$1, %eax	#,
	call	Perl_croak	#
.LBE8:
	.loc 1 2168 0
	jmp	.L342	#
.L379:
.LBB9:
	.loc 1 2313 0
	movl	-36(%rbp), %eax	# numtype, tmp400
	movl	%eax, %esi	# tmp400,
	movq	%rbx, %rdi	# sv,
	call	S_sv_2iuv_non_preserve	#
	cmpl	$3, %eax	#, D.22713
	jg	.L352	#,
.L371:
.LBE9:
	.loc 1 2168 0 discriminator 2
	jmp	.L342	#
.L353:
	.loc 1 2321 0
	movq	PL_curcop(%rip), %rax	# PL_curcop, PL_curcop.159
	movq	80(%rax), %rax	# PL_curcop.159_297->cop_warnings, D.22710
	testq	%rax, %rax	# D.22710
	je	.L390	#,
	.loc 1 2321 0 is_stmt 0 discriminator 1
	movq	PL_curcop(%rip), %rax	# PL_curcop, PL_curcop.160
	movq	80(%rax), %rax	# PL_curcop.160_299->cop_warnings, D.22710
	cmpq	$32, %rax	#, D.22710
	je	.L390	#,
	movq	PL_curcop(%rip), %rax	# PL_curcop, PL_curcop.161
	movq	80(%rax), %rax	# PL_curcop.161_301->cop_warnings, D.22710
	cmpq	$16, %rax	#, D.22710
	je	.L391	#,
	.loc 1 2321 0 discriminator 2
	movq	PL_curcop(%rip), %rax	# PL_curcop, PL_curcop.162
	movq	80(%rax), %rax	# PL_curcop.162_303->cop_warnings, D.22710
	movq	(%rax), %rax	# _304->sv_any, D.22707
	movq	(%rax), %rax	# MEM[(struct XPV *)_305].xpv_pv, D.22711
	addq	$10, %rax	#, D.22711
	movzbl	(%rax), %eax	# *_307, D.22712
	movsbl	%al, %eax	# D.22712, D.22713
	andl	$4, %eax	#, D.22713
	testl	%eax, %eax	# D.22713
	jne	.L391	#,
.L390:
	movq	PL_curcop(%rip), %rax	# PL_curcop, PL_curcop.163
	movq	80(%rax), %rax	# PL_curcop.163_311->cop_warnings, D.22710
	testq	%rax, %rax	# D.22710
	jne	.L392	#,
	.loc 1 2321 0 discriminator 1
	movzbl	PL_dowarn(%rip), %eax	# PL_dowarn, PL_dowarn.164
	movzbl	%al, %eax	# PL_dowarn.164, D.22713
	andl	$1, %eax	#, D.22713
	testl	%eax, %eax	# D.22713
	je	.L392	#,
.L391:
	movl	PL_localizing(%rip), %eax	# PL_localizing, PL_localizing.165
	testl	%eax, %eax	# PL_localizing.165
	jne	.L392	#,
	movl	12(%rbx), %eax	# sv_6(D)->sv_flags, D.22706
	andl	$512, %eax	#, D.22706
	testl	%eax, %eax	# D.22706
	jne	.L392	#,
	.loc 1 2322 0 is_stmt 1
	call	Perl_report_uninit	#
.L392:
	.loc 1 2323 0
	movl	12(%rbx), %eax	# sv_6(D)->sv_flags, D.22706
	movzbl	%al, %eax	# D.22706, D.22706
	testl	%eax, %eax	# D.22706
	jne	.L393	#,
	.loc 1 2325 0
	movl	$1, %esi	#,
	movq	%rbx, %rdi	# sv,
	call	Perl_sv_upgrade	#
.L393:
	.loc 1 2326 0
	movl	$0, %eax	#, D.22705
	jmp	.L316	#
.L342:
	.loc 1 2330 0
	movl	12(%rbx), %eax	# sv_6(D)->sv_flags, D.22706
	testl	%eax, %eax	# D.22714
	jns	.L394	#,
	.loc 1 2330 0 is_stmt 0 discriminator 1
	movq	(%rbx), %rax	# sv_6(D)->sv_any, D.22707
	movq	24(%rax), %rax	# MEM[(struct XPVUV *)_327].xuv_uv, D.22709
	jmp	.L395	#
.L394:
	.loc 1 2330 0 discriminator 2
	movq	(%rbx), %rax	# sv_6(D)->sv_any, D.22707
	movq	24(%rax), %rax	# MEM[(struct XPVIV *)_330].xiv_iv, iftmp.166
.L395:
.L316:
	.loc 1 2331 0 is_stmt 1
	addq	$48, %rsp	#,
	popq	%rbx	#
	popq	%r12	#
	popq	%rbp	#
	.cfi_def_cfa 7, 8
	ret
	.cfi_endproc
.LFE61:
	.size	Perl_sv_2iv, .-Perl_sv_2iv
	.section	.rodata
	.align 8
.LC14:
	.string	"sv_2uv assumed (U_V(fabs((double)SvNVX(sv))) < (UV)IV_MAX) but SvNVX(sv)=%g U_V is 0x%lx, IV_MAX is 0x%lx\n"
	.text
	.globl	Perl_sv_2uv
	.type	Perl_sv_2uv, @function
Perl_sv_2uv:
.LFB62:
	.loc 1 2345 0
	.cfi_startproc
	pushq	%rbp	#
	.cfi_def_cfa_offset 16
	.cfi_offset 6, -16
	movq	%rsp, %rbp	#,
	.cfi_def_cfa_register 6
	pushq	%r12	#
	pushq	%rbx	#
	subq	$48, %rsp	#,
	.cfi_offset 12, -24
	.cfi_offset 3, -32
	movq	%rdi, %rbx	# sv, sv
	.loc 1 2346 0
	testq	%rbx, %rbx	# sv
	jne	.L406	#,
	.loc 1 2347 0
	movl	$0, %eax	#, D.22717
	jmp	.L407	#
.L406:
	.loc 1 2348 0
	movl	12(%rbx), %eax	# sv_6(D)->sv_flags, D.22718
	andl	$8192, %eax	#, D.22718
	testl	%eax, %eax	# D.22718
	je	.L408	#,
	.loc 1 2349 0
	movq	%rbx, %rdi	# sv,
	call	Perl_mg_get	#
	.loc 1 2350 0
	movl	12(%rbx), %eax	# sv_6(D)->sv_flags, D.22718
	andl	$16777216, %eax	#, D.22718
	testl	%eax, %eax	# D.22718
	je	.L409	#,
	.loc 1 2351 0
	movq	(%rbx), %rax	# sv_6(D)->sv_any, D.22719
	movq	24(%rax), %rax	# MEM[(struct XPVUV *)_12].xuv_uv, D.22717
	jmp	.L407	#
.L409:
	.loc 1 2352 0
	movl	12(%rbx), %eax	# sv_6(D)->sv_flags, D.22718
	andl	$33554432, %eax	#, D.22718
	testl	%eax, %eax	# D.22718
	je	.L410	#,
	.loc 1 2353 0
	movq	(%rbx), %rax	# sv_6(D)->sv_any, D.22719
	movq	32(%rax), %rax	# MEM[(struct XPVNV *)_16].xnv_nv, D.22720
	movq	%rax, -56(%rbp)	# D.22720, %sfp
	movsd	-56(%rbp), %xmm0	# %sfp,
	call	Perl_cast_uv	#
	jmp	.L407	#
.L410:
	.loc 1 2354 0
	movl	12(%rbx), %eax	# sv_6(D)->sv_flags, D.22718
	andl	$67108864, %eax	#, D.22718
	testl	%eax, %eax	# D.22718
	je	.L411	#,
	.loc 1 2354 0 is_stmt 0 discriminator 1
	movq	(%rbx), %rax	# sv_6(D)->sv_any, D.22719
	movq	16(%rax), %rax	# MEM[(struct XPV *)_21].xpv_len, D.22721
	testq	%rax, %rax	# D.22721
	je	.L411	#,
	.loc 1 2355 0 is_stmt 1
	movq	%rbx, %rdi	# sv,
	call	S_asUV	#
	jmp	.L407	#
.L411:
	.loc 1 2356 0
	movl	12(%rbx), %eax	# sv_6(D)->sv_flags, D.22718
	andl	$524288, %eax	#, D.22718
	testl	%eax, %eax	# D.22718
	jne	.L408	#,
	.loc 1 2357 0
	movl	12(%rbx), %eax	# sv_6(D)->sv_flags, D.22718
	andl	$512, %eax	#, D.22718
	testl	%eax, %eax	# D.22718
	jne	.L412	#,
	.loc 1 2358 0
	movq	PL_curcop(%rip), %rax	# PL_curcop, PL_curcop.167
	movq	80(%rax), %rax	# PL_curcop.167_28->cop_warnings, D.22722
	testq	%rax, %rax	# D.22722
	je	.L413	#,
	.loc 1 2358 0 is_stmt 0 discriminator 1
	movq	PL_curcop(%rip), %rax	# PL_curcop, PL_curcop.168
	movq	80(%rax), %rax	# PL_curcop.168_30->cop_warnings, D.22722
	cmpq	$32, %rax	#, D.22722
	je	.L413	#,
	movq	PL_curcop(%rip), %rax	# PL_curcop, PL_curcop.169
	movq	80(%rax), %rax	# PL_curcop.169_32->cop_warnings, D.22722
	cmpq	$16, %rax	#, D.22722
	je	.L414	#,
	.loc 1 2358 0 discriminator 2
	movq	PL_curcop(%rip), %rax	# PL_curcop, PL_curcop.170
	movq	80(%rax), %rax	# PL_curcop.170_34->cop_warnings, D.22722
	movq	(%rax), %rax	# _35->sv_any, D.22719
	movq	(%rax), %rax	# MEM[(struct XPV *)_36].xpv_pv, D.22723
	addq	$10, %rax	#, D.22723
	movzbl	(%rax), %eax	# *_38, D.22724
	movsbl	%al, %eax	# D.22724, D.22725
	andl	$4, %eax	#, D.22725
	testl	%eax, %eax	# D.22725
	jne	.L414	#,
.L413:
	movq	PL_curcop(%rip), %rax	# PL_curcop, PL_curcop.171
	movq	80(%rax), %rax	# PL_curcop.171_42->cop_warnings, D.22722
	testq	%rax, %rax	# D.22722
	jne	.L412	#,
	.loc 1 2358 0 discriminator 1
	movzbl	PL_dowarn(%rip), %eax	# PL_dowarn, PL_dowarn.172
	movzbl	%al, %eax	# PL_dowarn.172, D.22725
	andl	$1, %eax	#, D.22725
	testl	%eax, %eax	# D.22725
	je	.L412	#,
.L414:
	movl	PL_localizing(%rip), %eax	# PL_localizing, PL_localizing.173
	testl	%eax, %eax	# PL_localizing.173
	jne	.L412	#,
	.loc 1 2359 0 is_stmt 1
	call	Perl_report_uninit	#
.L412:
	.loc 1 2361 0
	movl	$0, %eax	#, D.22717
	jmp	.L407	#
.L408:
	.loc 1 2364 0
	movl	12(%rbx), %eax	# sv_6(D)->sv_flags, D.22718
	andl	$9961472, %eax	#, D.22718
	testl	%eax, %eax	# D.22718
	je	.L415	#,
	.loc 1 2365 0
	movl	12(%rbx), %eax	# sv_6(D)->sv_flags, D.22718
	andl	$524288, %eax	#, D.22718
	testl	%eax, %eax	# D.22718
	je	.L416	#,
.LBB10:
	.loc 1 2367 0
	movl	12(%rbx), %eax	# sv_6(D)->sv_flags, D.22718
	andl	$268435456, %eax	#, D.22718
	testl	%eax, %eax	# D.22718
	je	.L417	#,
	.loc 1 2367 0 is_stmt 0 discriminator 1
	movl	$9, %ecx	#,
	movl	$5, %edx	#,
	movl	$PL_sv_undef, %esi	#,
	movq	%rbx, %rdi	# sv,
	call	Perl_amagic_call	#
	movq	%rax, -24(%rbp)	# tmp366, tmpstr
	cmpq	$0, -24(%rbp)	#, tmpstr
	je	.L417	#,
	.loc 1 2368 0 is_stmt 1 discriminator 1
	movq	-24(%rbp), %rax	# tmpstr, tmp367
	movl	12(%rax), %eax	# tmpstr_55->sv_flags, D.22718
	andl	$524288, %eax	#, D.22718
	.loc 1 2367 0 discriminator 1
	testl	%eax, %eax	# D.22718
	je	.L418	#,
	.loc 1 2368 0
	movq	-24(%rbp), %rax	# tmpstr, tmp368
	movq	(%rax), %rax	# tmpstr_55->sv_any, D.22719
	movq	(%rax), %rdx	# MEM[(struct XRV *)_58].xrv_rv, D.22722
	movq	(%rbx), %rax	# sv_6(D)->sv_any, D.22719
	movq	(%rax), %rax	# MEM[(struct XRV *)_60].xrv_rv, D.22722
	cmpq	%rax, %rdx	# D.22722, D.22722
	je	.L417	#,
.L418:
	.loc 1 2369 0
	movq	-24(%rbp), %rax	# tmpstr, tmp369
	movl	12(%rax), %eax	# tmpstr_55->sv_flags, D.22718
	andl	$65536, %eax	#, D.22718
	testl	%eax, %eax	# D.22718
	je	.L419	#,
	.loc 1 2369 0 is_stmt 0 discriminator 1
	movq	-24(%rbp), %rax	# tmpstr, tmp370
	movq	(%rax), %rax	# tmpstr_55->sv_any, D.22719
	movq	24(%rax), %rax	# MEM[(struct XPVUV *)_64].xuv_uv, iftmp.174
	jmp	.L420	#
.L419:
	.loc 1 2369 0 discriminator 2
	movq	-24(%rbp), %rax	# tmpstr, tmp371
	movq	%rax, %rdi	# tmp371,
	call	Perl_sv_2uv	#
.L420:
	.loc 1 2369 0 discriminator 3
	jmp	.L407	#
.L417:
	.loc 1 2370 0 is_stmt 1
	movq	(%rbx), %rax	# sv_6(D)->sv_any, D.22719
	movq	(%rax), %rax	# MEM[(struct XRV *)_68].xrv_rv, D.22722
	jmp	.L407	#
.L416:
.LBE10:
	.loc 1 2372 0
	movl	12(%rbx), %eax	# sv_6(D)->sv_flags, D.22718
	andl	$8388608, %eax	#, D.22718
	testl	%eax, %eax	# D.22718
	je	.L421	#,
	.loc 1 2372 0 is_stmt 0 discriminator 1
	movl	12(%rbx), %eax	# sv_6(D)->sv_flags, D.22718
	andl	$1048576, %eax	#, D.22718
	testl	%eax, %eax	# D.22718
	je	.L421	#,
	.loc 1 2373 0 is_stmt 1
	movq	%rbx, %rdi	# sv,
	call	Perl_sv_force_normal	#
.L421:
	.loc 1 2375 0
	movl	12(%rbx), %eax	# sv_6(D)->sv_flags, D.22718
	andl	$8388608, %eax	#, D.22718
	testl	%eax, %eax	# D.22718
	je	.L415	#,
	.loc 1 2375 0 is_stmt 0 discriminator 1
	movl	12(%rbx), %eax	# sv_6(D)->sv_flags, D.22718
	andl	$118423552, %eax	#, D.22718
	testl	%eax, %eax	# D.22718
	jne	.L415	#,
	.loc 1 2376 0 is_stmt 1
	movq	PL_curcop(%rip), %rax	# PL_curcop, PL_curcop.175
	movq	80(%rax), %rax	# PL_curcop.175_79->cop_warnings, D.22722
	testq	%rax, %rax	# D.22722
	je	.L422	#,
	.loc 1 2376 0 is_stmt 0 discriminator 1
	movq	PL_curcop(%rip), %rax	# PL_curcop, PL_curcop.176
	movq	80(%rax), %rax	# PL_curcop.176_81->cop_warnings, D.22722
	cmpq	$32, %rax	#, D.22722
	je	.L422	#,
	movq	PL_curcop(%rip), %rax	# PL_curcop, PL_curcop.177
	movq	80(%rax), %rax	# PL_curcop.177_83->cop_warnings, D.22722
	cmpq	$16, %rax	#, D.22722
	je	.L423	#,
	movq	PL_curcop(%rip), %rax	# PL_curcop, PL_curcop.178
	movq	80(%rax), %rax	# PL_curcop.178_85->cop_warnings, D.22722
	movq	(%rax), %rax	# _86->sv_any, D.22719
	movq	(%rax), %rax	# MEM[(struct XPV *)_87].xpv_pv, D.22723
	addq	$10, %rax	#, D.22723
	movzbl	(%rax), %eax	# *_89, D.22724
	movsbl	%al, %eax	# D.22724, D.22725
	andl	$4, %eax	#, D.22725
	testl	%eax, %eax	# D.22725
	jne	.L423	#,
.L422:
	.loc 1 2376 0 discriminator 2
	movq	PL_curcop(%rip), %rax	# PL_curcop, PL_curcop.179
	movq	80(%rax), %rax	# PL_curcop.179_93->cop_warnings, D.22722
	testq	%rax, %rax	# D.22722
	jne	.L424	#,
	.loc 1 2376 0 discriminator 1
	movzbl	PL_dowarn(%rip), %eax	# PL_dowarn, PL_dowarn.180
	movzbl	%al, %eax	# PL_dowarn.180, D.22725
	andl	$1, %eax	#, D.22725
	testl	%eax, %eax	# D.22725
	je	.L424	#,
.L423:
	.loc 1 2377 0 is_stmt 1
	call	Perl_report_uninit	#
.L424:
	.loc 1 2378 0
	movl	$0, %eax	#, D.22717
	jmp	.L407	#
.L415:
	.loc 1 2381 0
	movl	12(%rbx), %eax	# sv_6(D)->sv_flags, D.22718
	andl	$16777216, %eax	#, D.22718
	testl	%eax, %eax	# D.22718
	je	.L425	#,
	.loc 1 2382 0
	movl	12(%rbx), %eax	# sv_6(D)->sv_flags, D.22718
	testl	%eax, %eax	# D.22726
	jns	.L426	#,
	.loc 1 2383 0
	movq	(%rbx), %rax	# sv_6(D)->sv_any, D.22719
	movq	24(%rax), %rax	# MEM[(struct XPVUV *)_103].xuv_uv, D.22717
	jmp	.L407	#
.L426:
	.loc 1 2386 0
	movq	(%rbx), %rax	# sv_6(D)->sv_any, D.22719
	movq	24(%rax), %rax	# MEM[(struct XPVIV *)_105].xiv_iv, D.22727
	jmp	.L407	#
.L425:
	.loc 1 2389 0
	movl	12(%rbx), %eax	# sv_6(D)->sv_flags, D.22718
	andl	$33554432, %eax	#, D.22718
	testl	%eax, %eax	# D.22718
	je	.L427	#,
	.loc 1 2396 0
	movl	12(%rbx), %eax	# sv_6(D)->sv_flags, D.22718
	movzbl	%al, %eax	# D.22718, D.22718
	cmpl	$2, %eax	#, D.22718
	jne	.L428	#,
	.loc 1 2397 0
	movl	$6, %esi	#,
	movq	%rbx, %rdi	# sv,
	call	Perl_sv_upgrade	#
.L428:
	.loc 1 2399 0
	movl	12(%rbx), %eax	# sv_6(D)->sv_flags, D.22718
	andl	$2097152, %eax	#, D.22718
	testl	%eax, %eax	# D.22718
	je	.L430	#,
	.loc 1 2399 0 is_stmt 0 discriminator 1
	movq	%rbx, %rdi	# sv,
	call	Perl_sv_backoff	#
	testl	%eax, %eax	# D.22725
	je	.L430	#,
	.loc 1 2399 0
	nop
.L430:
	.loc 1 2399 0 discriminator 3
	movl	12(%rbx), %eax	# sv_6(D)->sv_flags, D.22718
	orl	$16777216, %eax	#, D.22718
	movl	%eax, 12(%rbx)	# D.22718, sv_6(D)->sv_flags
	.loc 1 2400 0 is_stmt 1 discriminator 3
	movq	(%rbx), %rax	# sv_6(D)->sv_any, D.22719
	movsd	32(%rax), %xmm1	# MEM[(struct XPVNV *)_119].xnv_nv, D.22720
	movsd	.LC11(%rip), %xmm0	#, tmp372
	ucomisd	%xmm1, %xmm0	# D.22720, tmp372
	jbe	.L493	#,
	.loc 1 2401 0
	movq	(%rbx), %r12	# sv_6(D)->sv_any, D.22719
	movq	(%rbx), %rax	# sv_6(D)->sv_any, D.22719
	movq	32(%rax), %rax	# MEM[(struct XPVNV *)_122].xnv_nv, D.22720
	movq	%rax, -56(%rbp)	# D.22720, %sfp
	movsd	-56(%rbp), %xmm0	# %sfp,
	call	Perl_cast_iv	#
	movq	%rax, 24(%r12)	# D.22727, MEM[(struct XPVIV *)_121].xiv_iv
	.loc 1 2402 0
	movq	(%rbx), %rax	# sv_6(D)->sv_any, D.22719
	movsd	32(%rax), %xmm1	# MEM[(struct XPVNV *)_125].xnv_nv, D.22720
	movq	(%rbx), %rax	# sv_6(D)->sv_any, D.22719
	movq	24(%rax), %rax	# MEM[(struct XPVIV *)_127].xiv_iv, D.22727
	cvtsi2sdq	%rax, %xmm0	# D.22727, D.22720
	ucomisd	%xmm0, %xmm1	# D.22720, D.22720
	jp	.L443	#,
	ucomisd	%xmm0, %xmm1	# D.22720, D.22720
	je	.L488	#,
	jmp	.L443	#
.L488:
	.loc 1 2405 0
	movq	(%rbx), %rax	# sv_6(D)->sv_any, D.22719
	movq	24(%rax), %rax	# MEM[(struct XPVIV *)_130].xiv_iv, D.22727
	cqto
	xorq	%rdx, %rax	# tmp373, D.22727
	subq	%rdx, %rax	# tmp373, D.22727
	movq	%rax, %rdx	# D.22727, D.22721
	.loc 1 2404 0
	movl	$4294967295, %eax	#, tmp374
	cmpq	%rax, %rdx	# tmp374, D.22721
	ja	.L443	#,
	.loc 1 2411 0
	movl	12(%rbx), %eax	# sv_6(D)->sv_flags, D.22718
	andl	$2097152, %eax	#, D.22718
	testl	%eax, %eax	# D.22718
	je	.L436	#,
	.loc 1 2411 0 is_stmt 0 discriminator 1
	movq	%rbx, %rdi	# sv,
	call	Perl_sv_backoff	#
	testl	%eax, %eax	# D.22725
	je	.L436	#,
	.loc 1 2411 0
	nop
.L436:
	.loc 1 2411 0 discriminator 3
	movl	12(%rbx), %eax	# sv_6(D)->sv_flags, D.22718
	orl	$16842752, %eax	#, D.22718
	movl	%eax, 12(%rbx)	# D.22718, sv_6(D)->sv_flags
	jmp	.L443	#
.L493:
	.loc 1 2439 0 is_stmt 1
	movq	(%rbx), %r12	# sv_6(D)->sv_any, D.22719
	movq	(%rbx), %rax	# sv_6(D)->sv_any, D.22719
	movq	32(%rax), %rax	# MEM[(struct XPVNV *)_142].xnv_nv, D.22720
	movq	%rax, -56(%rbp)	# D.22720, %sfp
	movsd	-56(%rbp), %xmm0	# %sfp,
	call	Perl_cast_uv	#
	movq	%rax, 24(%r12)	# D.22721, MEM[(struct XPVUV *)_141].xuv_uv
	.loc 1 2441 0
	movq	(%rbx), %rax	# sv_6(D)->sv_any, D.22719
	movsd	32(%rax), %xmm1	# MEM[(struct XPVNV *)_145].xnv_nv, D.22720
	movq	(%rbx), %rax	# sv_6(D)->sv_any, D.22719
	movq	24(%rax), %rax	# MEM[(struct XPVUV *)_147].xuv_uv, D.22721
	testq	%rax, %rax	# D.22721
	js	.L437	#,
	cvtsi2sdq	%rax, %xmm0	# D.22721, D.22720
	jmp	.L438	#
.L437:
	movq	%rax, %rdx	# D.22721, tmp376
	shrq	%rdx	# tmp376
	andl	$1, %eax	#, tmp377
	orq	%rax, %rdx	# tmp377, tmp376
	cvtsi2sdq	%rdx, %xmm0	# tmp376, tmp375
	addsd	%xmm0, %xmm0	# tmp375, D.22720
.L438:
	.loc 1 2440 0
	ucomisd	%xmm0, %xmm1	# D.22720, D.22720
	jp	.L439	#,
	ucomisd	%xmm0, %xmm1	# D.22720, D.22720
	jne	.L439	#,
	.loc 1 2445 0
	movq	(%rbx), %rax	# sv_6(D)->sv_any, D.22719
	movq	24(%rax), %rdx	# MEM[(struct XPVUV *)_150].xuv_uv, D.22721
	movl	$4294967295, %eax	#, tmp378
	cmpq	%rax, %rdx	# tmp378, D.22721
	ja	.L439	#,
	.loc 1 2451 0
	movl	12(%rbx), %eax	# sv_6(D)->sv_flags, D.22718
	andl	$2097152, %eax	#, D.22718
	testl	%eax, %eax	# D.22718
	je	.L442	#,
	.loc 1 2451 0 is_stmt 0 discriminator 1
	movq	%rbx, %rdi	# sv,
	call	Perl_sv_backoff	#
	testl	%eax, %eax	# D.22725
	je	.L442	#,
	.loc 1 2451 0
	nop
.L442:
	.loc 1 2451 0 discriminator 3
	movl	12(%rbx), %eax	# sv_6(D)->sv_flags, D.22718
	orl	$16842752, %eax	#, D.22718
	movl	%eax, 12(%rbx)	# D.22718, sv_6(D)->sv_flags
.L439:
	.loc 1 2452 0 is_stmt 1
	movl	12(%rbx), %eax	# sv_6(D)->sv_flags, D.22718
	orl	$-2147483648, %eax	#, D.22718
	movl	%eax, 12(%rbx)	# D.22718, sv_6(D)->sv_flags
	jmp	.L443	#
.L427:
	.loc 1 2460 0
	movl	12(%rbx), %eax	# sv_6(D)->sv_flags, D.22718
	andl	$67108864, %eax	#, D.22718
	testl	%eax, %eax	# D.22718
	je	.L444	#,
	.loc 1 2460 0 is_stmt 0 discriminator 1
	movq	(%rbx), %rax	# sv_6(D)->sv_any, D.22719
	movq	16(%rax), %rax	# MEM[(struct XPV *)_163].xpv_len, D.22721
	testq	%rax, %rax	# D.22721
	je	.L444	#,
.LBB11:
	.loc 1 2462 0 is_stmt 1
	movq	(%rbx), %rax	# sv_6(D)->sv_any, D.22719
	movq	8(%rax), %rcx	# MEM[(struct XPV *)_165].xpv_cur, D.22721
	movq	(%rbx), %rax	# sv_6(D)->sv_any, D.22719
	movq	(%rax), %rax	# MEM[(struct XPV *)_167].xpv_pv, D.22723
	leaq	-32(%rbp), %rdx	#, tmp379
	movq	%rcx, %rsi	# D.22721,
	movq	%rax, %rdi	# D.22723,
	call	Perl_grok_number	#
	movl	%eax, -36(%rbp)	# tmp380, numtype
	.loc 1 2474 0
	movl	-36(%rbp), %eax	# numtype, tmp381
	andl	$5, %eax	#, D.22725
	cmpl	$1, %eax	#, D.22725
	jne	.L445	#,
	.loc 1 2477 0
	movl	12(%rbx), %eax	# sv_6(D)->sv_flags, D.22718
	movzbl	%al, %eax	# D.22718, D.22718
	cmpl	$4, %eax	#, D.22718
	ja	.L446	#,
	.loc 1 2478 0
	movl	$5, %esi	#,
	movq	%rbx, %rdi	# sv,
	call	Perl_sv_upgrade	#
.L446:
	.loc 1 2479 0
	movl	12(%rbx), %eax	# sv_6(D)->sv_flags, D.22718
	andl	$2097152, %eax	#, D.22718
	testl	%eax, %eax	# D.22718
	je	.L448	#,
	.loc 1 2479 0 is_stmt 0 discriminator 1
	movq	%rbx, %rdi	# sv,
	call	Perl_sv_backoff	#
	testl	%eax, %eax	# D.22725
	je	.L448	#,
	.loc 1 2479 0
	nop
.L448:
	.loc 1 2479 0 discriminator 3
	movl	12(%rbx), %eax	# sv_6(D)->sv_flags, D.22718
	orl	$16842752, %eax	#, D.22718
	movl	%eax, 12(%rbx)	# D.22718, sv_6(D)->sv_flags
	jmp	.L449	#
.L445:
	.loc 1 2480 0 is_stmt 1
	movl	12(%rbx), %eax	# sv_6(D)->sv_flags, D.22718
	movzbl	%al, %eax	# D.22718, D.22718
	cmpl	$5, %eax	#, D.22718
	ja	.L449	#,
	.loc 1 2481 0
	movl	$6, %esi	#,
	movq	%rbx, %rdi	# sv,
	call	Perl_sv_upgrade	#
.L449:
	.loc 1 2487 0
	movl	-36(%rbp), %eax	# numtype, tmp382
	andl	$1, %eax	#, D.22725
	testl	%eax, %eax	# D.22725
	je	.L450	#,
	.loc 1 2493 0
	movl	12(%rbx), %eax	# sv_6(D)->sv_flags, D.22718
	andl	$2097152, %eax	#, D.22718
	testl	%eax, %eax	# D.22718
	je	.L452	#,
	.loc 1 2493 0 is_stmt 0 discriminator 1
	movq	%rbx, %rdi	# sv,
	call	Perl_sv_backoff	#
	testl	%eax, %eax	# D.22725
	je	.L452	#,
	.loc 1 2493 0
	nop
.L452:
	.loc 1 2493 0 discriminator 3
	movl	12(%rbx), %eax	# sv_6(D)->sv_flags, D.22718
	orl	$16777216, %eax	#, D.22718
	movl	%eax, 12(%rbx)	# D.22718, sv_6(D)->sv_flags
	.loc 1 2495 0 is_stmt 1 discriminator 3
	movl	-36(%rbp), %eax	# numtype, tmp383
	andl	$8, %eax	#, D.22725
	testl	%eax, %eax	# D.22725
	jne	.L453	#,
	.loc 1 2497 0
	movq	-32(%rbp), %rax	# value, value.186
	testq	%rax, %rax	# value.187
	js	.L454	#,
	.loc 1 2498 0
	movq	(%rbx), %rax	# sv_6(D)->sv_any, D.22719
	movq	-32(%rbp), %rdx	# value, value.188
	movq	%rdx, 24(%rax)	# value.189, MEM[(struct XPVIV *)_193].xiv_iv
	jmp	.L450	#
.L454:
	.loc 1 2501 0
	movq	(%rbx), %rax	# sv_6(D)->sv_any, D.22719
	movq	-32(%rbp), %rdx	# value, value.190
	movq	%rdx, 24(%rax)	# value.190, MEM[(struct XPVUV *)_196].xuv_uv
	.loc 1 2502 0
	movl	12(%rbx), %eax	# sv_6(D)->sv_flags, D.22718
	orl	$-2147483648, %eax	#, D.22718
	movl	%eax, 12(%rbx)	# D.22718, sv_6(D)->sv_flags
	jmp	.L450	#
.L453:
	.loc 1 2506 0
	movq	-32(%rbp), %rdx	# value, value.191
	movabsq	$-9223372036854775808, %rax	#, tmp384
	cmpq	%rax, %rdx	# tmp384, value.191
	ja	.L456	#,
	.loc 1 2507 0
	movq	(%rbx), %rax	# sv_6(D)->sv_any, D.22719
	movq	-32(%rbp), %rdx	# value, value.192
	negq	%rdx	# D.22727
	movq	%rdx, 24(%rax)	# D.22727, MEM[(struct XPVIV *)_201].xiv_iv
	jmp	.L450	#
.L456:
	.loc 1 2511 0
	movl	12(%rbx), %eax	# sv_6(D)->sv_flags, D.22718
	movzbl	%al, %eax	# D.22718, D.22718
	cmpl	$5, %eax	#, D.22718
	ja	.L457	#,
	.loc 1 2512 0
	movl	$6, %esi	#,
	movq	%rbx, %rdi	# sv,
	call	Perl_sv_upgrade	#
.L457:
	.loc 1 2513 0
	movl	12(%rbx), %eax	# sv_6(D)->sv_flags, D.22718
	orl	$33685504, %eax	#, D.22718
	movl	%eax, 12(%rbx)	# D.22718, sv_6(D)->sv_flags
	.loc 1 2514 0
	movl	12(%rbx), %eax	# sv_6(D)->sv_flags, D.22718
	andl	$2130640895, %eax	#, D.22718
	movl	%eax, 12(%rbx)	# D.22718, sv_6(D)->sv_flags
	.loc 1 2515 0
	movl	12(%rbx), %eax	# sv_6(D)->sv_flags, D.22718
	andl	$2097152, %eax	#, D.22718
	testl	%eax, %eax	# D.22718
	je	.L459	#,
	.loc 1 2515 0 is_stmt 0 discriminator 1
	movq	%rbx, %rdi	# sv,
	call	Perl_sv_backoff	#
	testl	%eax, %eax	# D.22725
	je	.L459	#,
	.loc 1 2515 0
	nop
.L459:
	.loc 1 2515 0 discriminator 3
	movl	12(%rbx), %eax	# sv_6(D)->sv_flags, D.22718
	orl	$16777216, %eax	#, D.22718
	movl	%eax, 12(%rbx)	# D.22718, sv_6(D)->sv_flags
	.loc 1 2516 0 is_stmt 1 discriminator 3
	movq	(%rbx), %rcx	# sv_6(D)->sv_any, D.22719
	movq	-32(%rbp), %rax	# value, value.195
	testq	%rax, %rax	# value.195
	js	.L460	#,
	cvtsi2sdq	%rax, %xmm0	# value.195, D.22720
	jmp	.L461	#
.L460:
	movq	%rax, %rdx	# value.195, tmp386
	shrq	%rdx	# tmp386
	andl	$1, %eax	#, tmp387
	orq	%rax, %rdx	# tmp387, tmp386
	cvtsi2sdq	%rdx, %xmm0	# tmp386, tmp385
	addsd	%xmm0, %xmm0	# tmp385, D.22720
.L461:
	movsd	.LC12(%rip), %xmm1	#, tmp388
	xorpd	%xmm1, %xmm0	# tmp388, D.22720
	movsd	%xmm0, 32(%rcx)	# D.22720, MEM[(struct XPVNV *)_218].xnv_nv
	.loc 1 2517 0 discriminator 3
	movq	(%rbx), %rax	# sv_6(D)->sv_any, D.22719
	movabsq	$-9223372036854775808, %rcx	#, tmp404
	movq	%rcx, 24(%rax)	# tmp404, MEM[(struct XPVIV *)_222].xiv_iv
.L450:
	.loc 1 2522 0
	movl	-36(%rbp), %eax	# numtype, tmp389
	andl	$5, %eax	#, D.22725
	cmpl	$1, %eax	#, D.22725
	je	.L462	#,
	.loc 1 2525 0
	movq	(%rbx), %r12	# sv_6(D)->sv_any, D.22719
	movq	(%rbx), %rax	# sv_6(D)->sv_any, D.22719
	movq	(%rax), %rax	# MEM[(struct XPV *)_225].xpv_pv, D.22723
	movq	%rax, %rdi	# D.22723,
	call	Perl_my_atof	#
	movsd	%xmm0, -56(%rbp)	#, %sfp
	movq	-56(%rbp), %rax	# %sfp, D.22720
	movq	%rax, 32(%r12)	# D.22720, MEM[(struct XPVNV *)_224].xnv_nv
	.loc 1 2527 0
	cmpl	$0, -36(%rbp)	#, numtype
	jne	.L463	#,
	.loc 1 2527 0 is_stmt 0 discriminator 1
	movq	PL_curcop(%rip), %rax	# PL_curcop, PL_curcop.196
	movq	80(%rax), %rax	# PL_curcop.196_228->cop_warnings, D.22722
	testq	%rax, %rax	# D.22722
	je	.L464	#,
	movq	PL_curcop(%rip), %rax	# PL_curcop, PL_curcop.197
	movq	80(%rax), %rax	# PL_curcop.197_230->cop_warnings, D.22722
	cmpq	$32, %rax	#, D.22722
	je	.L464	#,
	movq	PL_curcop(%rip), %rax	# PL_curcop, PL_curcop.198
	movq	80(%rax), %rax	# PL_curcop.198_232->cop_warnings, D.22722
	cmpq	$16, %rax	#, D.22722
	je	.L465	#,
	movq	PL_curcop(%rip), %rax	# PL_curcop, PL_curcop.199
	movq	80(%rax), %rax	# PL_curcop.199_234->cop_warnings, D.22722
	movq	(%rax), %rax	# _235->sv_any, D.22719
	movq	(%rax), %rax	# MEM[(struct XPV *)_236].xpv_pv, D.22723
	addq	$3, %rax	#, D.22723
	movzbl	(%rax), %eax	# *_238, D.22724
	movsbl	%al, %eax	# D.22724, D.22725
	andl	$4, %eax	#, D.22725
	testl	%eax, %eax	# D.22725
	jne	.L465	#,
.L464:
	.loc 1 2527 0 discriminator 2
	movq	PL_curcop(%rip), %rax	# PL_curcop, PL_curcop.200
	movq	80(%rax), %rax	# PL_curcop.200_242->cop_warnings, D.22722
	testq	%rax, %rax	# D.22722
	jne	.L463	#,
	.loc 1 2527 0 discriminator 1
	movzbl	PL_dowarn(%rip), %eax	# PL_dowarn, PL_dowarn.201
	movzbl	%al, %eax	# PL_dowarn.201, D.22725
	andl	$1, %eax	#, D.22725
	testl	%eax, %eax	# D.22725
	je	.L463	#,
.L465:
	.loc 1 2528 0 is_stmt 1
	movq	%rbx, %rdi	# sv,
	call	S_not_a_number	#
.L463:
	.loc 1 2569 0
	movl	-36(%rbp), %eax	# numtype, tmp390
	andl	$5, %eax	#, D.22725
	cmpl	$5, %eax	#, D.22725
	jne	.L466	#,
	.loc 1 2574 0
	movl	12(%rbx), %eax	# sv_6(D)->sv_flags, D.22718
	orl	$33685504, %eax	#, D.22718
	movl	%eax, 12(%rbx)	# D.22718, sv_6(D)->sv_flags
	jmp	.L462	#
.L466:
	.loc 1 2578 0
	movq	(%rbx), %rax	# sv_6(D)->sv_any, D.22719
	movsd	32(%rax), %xmm0	# MEM[(struct XPVNV *)_250].xnv_nv, D.22720
	xorpd	%xmm1, %xmm1	# tmp391
	ucomisd	%xmm1, %xmm0	# tmp391, D.22720
	jbe	.L494	#,
	.loc 1 2578 0 is_stmt 0 discriminator 1
	movq	(%rbx), %rax	# sv_6(D)->sv_any, D.22719
	movq	32(%rax), %rax	# MEM[(struct XPVNV *)_252].xnv_nv, iftmp.202
	jmp	.L469	#
.L494:
	.loc 1 2578 0 discriminator 2
	movq	(%rbx), %rax	# sv_6(D)->sv_any, D.22719
	movsd	32(%rax), %xmm1	# MEM[(struct XPVNV *)_254].xnv_nv, D.22720
	movsd	.LC12(%rip), %xmm0	#, tmp392
	xorpd	%xmm0, %xmm1	# tmp392, iftmp.202
	movsd	%xmm1, -56(%rbp)	# iftmp.202, %sfp
	movq	-56(%rbp), %rax	# %sfp, iftmp.202
.L469:
	.loc 1 2578 0 discriminator 3
	movq	%rax, -56(%rbp)	# iftmp.202, %sfp
	movsd	-56(%rbp), %xmm0	# %sfp,
	call	Perl_cast_uv	#
	.loc 1 2577 0 is_stmt 1 discriminator 3
	movl	$4294967295, %edx	#, tmp393
	cmpq	%rdx, %rax	# tmp393, D.22721
	ja	.L470	#,
	.loc 1 2580 0
	movl	12(%rbx), %eax	# sv_6(D)->sv_flags, D.22718
	andl	$2097152, %eax	#, D.22718
	testl	%eax, %eax	# D.22718
	je	.L472	#,
	.loc 1 2580 0 is_stmt 0 discriminator 1
	movq	%rbx, %rdi	# sv,
	call	Perl_sv_backoff	#
	testl	%eax, %eax	# D.22725
	je	.L472	#,
	.loc 1 2580 0
	nop
.L472:
	.loc 1 2580 0 discriminator 3
	movl	12(%rbx), %eax	# sv_6(D)->sv_flags, D.22718
	orl	$16777216, %eax	#, D.22718
	movl	%eax, 12(%rbx)	# D.22718, sv_6(D)->sv_flags
	.loc 1 2581 0 is_stmt 1 discriminator 3
	movl	12(%rbx), %eax	# sv_6(D)->sv_flags, D.22718
	orl	$33685504, %eax	#, D.22718
	movl	%eax, 12(%rbx)	# D.22718, sv_6(D)->sv_flags
	.loc 1 2582 0 discriminator 3
	movq	(%rbx), %r12	# sv_6(D)->sv_any, D.22719
	movq	(%rbx), %rax	# sv_6(D)->sv_any, D.22719
	movq	32(%rax), %rax	# MEM[(struct XPVNV *)_268].xnv_nv, D.22720
	movq	%rax, -56(%rbp)	# D.22720, %sfp
	movsd	-56(%rbp), %xmm0	# %sfp,
	call	Perl_cast_iv	#
	movq	%rax, 24(%r12)	# D.22727, MEM[(struct XPVIV *)_267].xiv_iv
	.loc 1 2583 0 discriminator 3
	movq	(%rbx), %rax	# sv_6(D)->sv_any, D.22719
	movq	24(%rax), %rax	# MEM[(struct XPVIV *)_271].xiv_iv, D.22727
	cvtsi2sdq	%rax, %xmm0	# D.22727, D.22720
	movq	(%rbx), %rax	# sv_6(D)->sv_any, D.22719
	movsd	32(%rax), %xmm1	# MEM[(struct XPVNV *)_274].xnv_nv, D.22720
	ucomisd	%xmm1, %xmm0	# D.22720, D.22720
	jp	.L473	#,
	ucomisd	%xmm1, %xmm0	# D.22720, D.22720
	jne	.L473	#,
	.loc 1 2584 0
	movl	12(%rbx), %eax	# sv_6(D)->sv_flags, D.22718
	andl	$2097152, %eax	#, D.22718
	testl	%eax, %eax	# D.22718
	je	.L476	#,
	.loc 1 2584 0 is_stmt 0 discriminator 1
	movq	%rbx, %rdi	# sv,
	call	Perl_sv_backoff	#
	testl	%eax, %eax	# D.22725
	je	.L476	#,
	.loc 1 2584 0
	nop
.L476:
	.loc 1 2584 0 discriminator 3
	movl	12(%rbx), %eax	# sv_6(D)->sv_flags, D.22718
	orl	$16842752, %eax	#, D.22718
	movl	%eax, 12(%rbx)	# D.22718, sv_6(D)->sv_flags
.L473:
	.loc 1 2587 0 is_stmt 1
	movq	(%rbx), %rax	# sv_6(D)->sv_any, D.22719
	movsd	32(%rax), %xmm0	# MEM[(struct XPVNV *)_283].xnv_nv, D.22720
	xorpd	%xmm1, %xmm1	# tmp394
	ucomisd	%xmm1, %xmm0	# tmp394, D.22720
	jbe	.L495	#,
	.loc 1 2587 0 is_stmt 0 discriminator 1
	movq	(%rbx), %rax	# sv_6(D)->sv_any, D.22719
	movq	32(%rax), %rax	# MEM[(struct XPVNV *)_285].xnv_nv, iftmp.205
	jmp	.L479	#
.L495:
	.loc 1 2587 0 discriminator 2
	movq	(%rbx), %rax	# sv_6(D)->sv_any, D.22719
	movsd	32(%rax), %xmm1	# MEM[(struct XPVNV *)_287].xnv_nv, D.22720
	movsd	.LC12(%rip), %xmm0	#, tmp395
	xorpd	%xmm0, %xmm1	# tmp395, iftmp.205
	movsd	%xmm1, -56(%rbp)	# iftmp.205, %sfp
	movq	-56(%rbp), %rax	# %sfp, iftmp.205
.L479:
	.loc 1 2587 0 discriminator 3
	movq	%rax, -56(%rbp)	# iftmp.205, %sfp
	movsd	-56(%rbp), %xmm0	# %sfp,
	call	Perl_cast_uv	#
	movabsq	$9223372036854775806, %rdx	#, tmp396
	cmpq	%rdx, %rax	# tmp396, D.22721
	jbe	.L462	#,
	.loc 1 2589 0 is_stmt 1
	movq	(%rbx), %rax	# sv_6(D)->sv_any, D.22719
	movq	32(%rax), %rax	# MEM[(struct XPVNV *)_291].xnv_nv, D.22720
	movq	%rax, -56(%rbp)	# D.22720, %sfp
	movsd	-56(%rbp), %xmm0	# %sfp,
	call	Perl_cast_uv	#
	movq	%rax, %rcx	#, D.22721
	movq	(%rbx), %rax	# sv_6(D)->sv_any, D.22719
	movq	32(%rax), %rax	# MEM[(struct XPVNV *)_294].xnv_nv, D.22720
	movabsq	$9223372036854775807, %rdx	#,
	movq	%rcx, %rsi	# D.22721,
	movq	%rax, -56(%rbp)	# D.22720, %sfp
	movsd	-56(%rbp), %xmm0	# %sfp,
	movl	$.LC14, %edi	#,
	movl	$1, %eax	#,
	call	Perl_croak	#
.LBE11:
	.loc 1 2460 0
	jmp	.L443	#
.L470:
.LBB12:
	.loc 1 2592 0
	movl	-36(%rbp), %eax	# numtype, tmp397
	movl	%eax, %esi	# tmp397,
	movq	%rbx, %rdi	# sv,
	call	S_sv_2iuv_non_preserve	#
.LBE12:
	.loc 1 2460 0
	jmp	.L443	#
.L462:
	.loc 1 2460 0 is_stmt 0 discriminator 2
	jmp	.L443	#
.L444:
	.loc 1 2598 0 is_stmt 1
	movl	12(%rbx), %eax	# sv_6(D)->sv_flags, D.22718
	andl	$512, %eax	#, D.22718
	testl	%eax, %eax	# D.22718
	jne	.L481	#,
	.loc 1 2599 0
	movq	PL_curcop(%rip), %rax	# PL_curcop, PL_curcop.206
	movq	80(%rax), %rax	# PL_curcop.206_298->cop_warnings, D.22722
	testq	%rax, %rax	# D.22722
	je	.L482	#,
	.loc 1 2599 0 is_stmt 0 discriminator 1
	movq	PL_curcop(%rip), %rax	# PL_curcop, PL_curcop.207
	movq	80(%rax), %rax	# PL_curcop.207_300->cop_warnings, D.22722
	cmpq	$32, %rax	#, D.22722
	je	.L482	#,
	movq	PL_curcop(%rip), %rax	# PL_curcop, PL_curcop.208
	movq	80(%rax), %rax	# PL_curcop.208_302->cop_warnings, D.22722
	cmpq	$16, %rax	#, D.22722
	je	.L483	#,
	.loc 1 2599 0 discriminator 2
	movq	PL_curcop(%rip), %rax	# PL_curcop, PL_curcop.209
	movq	80(%rax), %rax	# PL_curcop.209_304->cop_warnings, D.22722
	movq	(%rax), %rax	# _305->sv_any, D.22719
	movq	(%rax), %rax	# MEM[(struct XPV *)_306].xpv_pv, D.22723
	addq	$10, %rax	#, D.22723
	movzbl	(%rax), %eax	# *_308, D.22724
	movsbl	%al, %eax	# D.22724, D.22725
	andl	$4, %eax	#, D.22725
	testl	%eax, %eax	# D.22725
	jne	.L483	#,
.L482:
	movq	PL_curcop(%rip), %rax	# PL_curcop, PL_curcop.210
	movq	80(%rax), %rax	# PL_curcop.210_312->cop_warnings, D.22722
	testq	%rax, %rax	# D.22722
	jne	.L481	#,
	.loc 1 2599 0 discriminator 1
	movzbl	PL_dowarn(%rip), %eax	# PL_dowarn, PL_dowarn.211
	movzbl	%al, %eax	# PL_dowarn.211, D.22725
	andl	$1, %eax	#, D.22725
	testl	%eax, %eax	# D.22725
	je	.L481	#,
.L483:
	movl	PL_localizing(%rip), %eax	# PL_localizing, PL_localizing.212
	testl	%eax, %eax	# PL_localizing.212
	jne	.L481	#,
	.loc 1 2600 0 is_stmt 1
	call	Perl_report_uninit	#
.L481:
	.loc 1 2602 0
	movl	12(%rbx), %eax	# sv_6(D)->sv_flags, D.22718
	movzbl	%al, %eax	# D.22718, D.22718
	testl	%eax, %eax	# D.22718
	jne	.L484	#,
	.loc 1 2604 0
	movl	$1, %esi	#,
	movq	%rbx, %rdi	# sv,
	call	Perl_sv_upgrade	#
.L484:
	.loc 1 2605 0
	movl	$0, %eax	#, D.22717
	jmp	.L407	#
.L443:
	.loc 1 2610 0
	movl	12(%rbx), %eax	# sv_6(D)->sv_flags, D.22718
	testl	%eax, %eax	# D.22726
	jns	.L485	#,
	.loc 1 2610 0 is_stmt 0 discriminator 1
	movq	(%rbx), %rax	# sv_6(D)->sv_any, D.22719
	movq	24(%rax), %rax	# MEM[(struct XPVUV *)_323].xuv_uv, iftmp.213
	jmp	.L486	#
.L485:
	.loc 1 2610 0 discriminator 2
	movq	(%rbx), %rax	# sv_6(D)->sv_any, D.22719
	movq	24(%rax), %rax	# MEM[(struct XPVIV *)_325].xiv_iv, D.22727
.L486:
.L407:
	.loc 1 2611 0 is_stmt 1
	addq	$48, %rsp	#,
	popq	%rbx	#
	popq	%r12	#
	popq	%rbp	#
	.cfi_def_cfa 7, 8
	ret
	.cfi_endproc
.LFE62:
	.size	Perl_sv_2uv, .-Perl_sv_2uv
	.globl	Perl_sv_2nv
	.type	Perl_sv_2nv, @function
Perl_sv_2nv:
.LFB63:
	.loc 1 2625 0
	.cfi_startproc
	pushq	%rbp	#
	.cfi_def_cfa_offset 16
	.cfi_offset 6, -16
	movq	%rsp, %rbp	#,
	.cfi_def_cfa_register 6
	pushq	%r12	#
	pushq	%rbx	#
	subq	$64, %rsp	#,
	.cfi_offset 12, -24
	.cfi_offset 3, -32
	movq	%rdi, %rbx	# sv, sv
	.loc 1 2626 0
	testq	%rbx, %rbx	# sv
	jne	.L497	#,
	.loc 1 2627 0
	movl	$0, %eax	#, D.22729
	jmp	.L498	#
.L497:
	.loc 1 2628 0
	movl	12(%rbx), %eax	# sv_7(D)->sv_flags, D.22730
	andl	$8192, %eax	#, D.22730
	testl	%eax, %eax	# D.22730
	je	.L499	#,
	.loc 1 2629 0
	movq	%rbx, %rdi	# sv,
	call	Perl_mg_get	#
	.loc 1 2630 0
	movl	12(%rbx), %eax	# sv_7(D)->sv_flags, D.22730
	andl	$33554432, %eax	#, D.22730
	testl	%eax, %eax	# D.22730
	je	.L500	#,
	.loc 1 2631 0
	movq	(%rbx), %rax	# sv_7(D)->sv_any, D.22731
	movq	32(%rax), %rax	# MEM[(struct XPVNV *)_13].xnv_nv, D.22729
	jmp	.L498	#
.L500:
	.loc 1 2632 0
	movl	12(%rbx), %eax	# sv_7(D)->sv_flags, D.22730
	andl	$67108864, %eax	#, D.22730
	testl	%eax, %eax	# D.22730
	je	.L501	#,
	.loc 1 2632 0 is_stmt 0 discriminator 1
	movq	(%rbx), %rax	# sv_7(D)->sv_any, D.22731
	movq	16(%rax), %rax	# MEM[(struct XPV *)_17].xpv_len, D.22732
	testq	%rax, %rax	# D.22732
	je	.L501	#,
	.loc 1 2633 0 is_stmt 1
	movq	PL_curcop(%rip), %rax	# PL_curcop, PL_curcop.214
	movq	80(%rax), %rax	# PL_curcop.214_19->cop_warnings, D.22733
	testq	%rax, %rax	# D.22733
	je	.L502	#,
	.loc 1 2633 0 is_stmt 0 discriminator 1
	movq	PL_curcop(%rip), %rax	# PL_curcop, PL_curcop.215
	movq	80(%rax), %rax	# PL_curcop.215_21->cop_warnings, D.22733
	cmpq	$32, %rax	#, D.22733
	je	.L502	#,
	movq	PL_curcop(%rip), %rax	# PL_curcop, PL_curcop.216
	movq	80(%rax), %rax	# PL_curcop.216_23->cop_warnings, D.22733
	cmpq	$16, %rax	#, D.22733
	je	.L503	#,
	.loc 1 2633 0 discriminator 2
	movq	PL_curcop(%rip), %rax	# PL_curcop, PL_curcop.217
	movq	80(%rax), %rax	# PL_curcop.217_25->cop_warnings, D.22733
	movq	(%rax), %rax	# _26->sv_any, D.22731
	movq	(%rax), %rax	# MEM[(struct XPV *)_27].xpv_pv, D.22734
	addq	$3, %rax	#, D.22734
	movzbl	(%rax), %eax	# *_29, D.22735
	movsbl	%al, %eax	# D.22735, D.22736
	andl	$4, %eax	#, D.22736
	testl	%eax, %eax	# D.22736
	jne	.L503	#,
.L502:
	movq	PL_curcop(%rip), %rax	# PL_curcop, PL_curcop.218
	movq	80(%rax), %rax	# PL_curcop.218_33->cop_warnings, D.22733
	testq	%rax, %rax	# D.22733
	jne	.L504	#,
	.loc 1 2633 0 discriminator 1
	movzbl	PL_dowarn(%rip), %eax	# PL_dowarn, PL_dowarn.219
	movzbl	%al, %eax	# PL_dowarn.219, D.22736
	andl	$1, %eax	#, D.22736
	testl	%eax, %eax	# D.22736
	je	.L504	#,
.L503:
	movl	12(%rbx), %eax	# sv_7(D)->sv_flags, D.22730
	andl	$16777216, %eax	#, D.22730
	testl	%eax, %eax	# D.22730
	jne	.L504	#,
	.loc 1 2634 0 is_stmt 1 discriminator 1
	movq	(%rbx), %rax	# sv_7(D)->sv_any, D.22731
	movq	8(%rax), %rcx	# MEM[(struct XPV *)_40].xpv_cur, D.22732
	movq	(%rbx), %rax	# sv_7(D)->sv_any, D.22731
	movq	(%rax), %rax	# MEM[(struct XPV *)_42].xpv_pv, D.22734
	movl	$0, %edx	#,
	movq	%rcx, %rsi	# D.22732,
	movq	%rax, %rdi	# D.22734,
	call	Perl_grok_number	#
	.loc 1 2633 0 discriminator 1
	testl	%eax, %eax	# D.22736
	jne	.L504	#,
	.loc 1 2635 0
	movq	%rbx, %rdi	# sv,
	call	S_not_a_number	#
.L504:
	.loc 1 2636 0
	movq	(%rbx), %rax	# sv_7(D)->sv_any, D.22731
	movq	(%rax), %rax	# MEM[(struct XPV *)_45].xpv_pv, D.22734
	movq	%rax, %rdi	# D.22734,
	call	Perl_my_atof	#
	movsd	%xmm0, -72(%rbp)	#, %sfp
	movq	-72(%rbp), %rax	# %sfp, D.22729
	jmp	.L498	#
.L501:
	.loc 1 2638 0
	movl	12(%rbx), %eax	# sv_7(D)->sv_flags, D.22730
	andl	$16777216, %eax	#, D.22730
	testl	%eax, %eax	# D.22730
	je	.L505	#,
	.loc 1 2639 0
	movl	12(%rbx), %eax	# sv_7(D)->sv_flags, D.22730
	testl	%eax, %eax	# D.22737
	jns	.L506	#,
	.loc 1 2640 0
	movq	(%rbx), %rax	# sv_7(D)->sv_any, D.22731
	movq	24(%rax), %rax	# MEM[(struct XPVUV *)_52].xuv_uv, D.22732
	testq	%rax, %rax	# D.22732
	js	.L507	#,
	cvtsi2sdq	%rax, %xmm4	# D.22732, D.22729
	movsd	%xmm4, -72(%rbp)	# D.22729, %sfp
	movq	-72(%rbp), %rax	# %sfp, D.22729
	jmp	.L498	#
.L507:
	movq	%rax, %rdx	# D.22732, tmp357
	shrq	%rdx	# tmp357
	andl	$1, %eax	#, tmp358
	orq	%rax, %rdx	# tmp358, tmp357
	cvtsi2sdq	%rdx, %xmm0	# tmp357, tmp356
	movapd	%xmm0, %xmm2	# tmp356, D.22729
	addsd	%xmm0, %xmm2	# tmp356, D.22729
	movsd	%xmm2, -72(%rbp)	# D.22729, %sfp
	movq	-72(%rbp), %rax	# %sfp, D.22729
	jmp	.L498	#
.L506:
	.loc 1 2642 0
	movq	(%rbx), %rax	# sv_7(D)->sv_any, D.22731
	movq	24(%rax), %rax	# MEM[(struct XPVIV *)_55].xiv_iv, D.22738
	cvtsi2sdq	%rax, %xmm5	# D.22738, D.22729
	movsd	%xmm5, -72(%rbp)	# D.22729, %sfp
	movq	-72(%rbp), %rax	# %sfp, D.22729
	jmp	.L498	#
.L505:
	.loc 1 2644 0
	movl	12(%rbx), %eax	# sv_7(D)->sv_flags, D.22730
	andl	$524288, %eax	#, D.22730
	testl	%eax, %eax	# D.22730
	jne	.L499	#,
	.loc 1 2645 0
	movl	12(%rbx), %eax	# sv_7(D)->sv_flags, D.22730
	andl	$512, %eax	#, D.22730
	testl	%eax, %eax	# D.22730
	jne	.L509	#,
	.loc 1 2646 0
	movq	PL_curcop(%rip), %rax	# PL_curcop, PL_curcop.220
	movq	80(%rax), %rax	# PL_curcop.220_62->cop_warnings, D.22733
	testq	%rax, %rax	# D.22733
	je	.L510	#,
	.loc 1 2646 0 is_stmt 0 discriminator 1
	movq	PL_curcop(%rip), %rax	# PL_curcop, PL_curcop.221
	movq	80(%rax), %rax	# PL_curcop.221_64->cop_warnings, D.22733
	cmpq	$32, %rax	#, D.22733
	je	.L510	#,
	movq	PL_curcop(%rip), %rax	# PL_curcop, PL_curcop.222
	movq	80(%rax), %rax	# PL_curcop.222_66->cop_warnings, D.22733
	cmpq	$16, %rax	#, D.22733
	je	.L511	#,
	.loc 1 2646 0 discriminator 2
	movq	PL_curcop(%rip), %rax	# PL_curcop, PL_curcop.223
	movq	80(%rax), %rax	# PL_curcop.223_68->cop_warnings, D.22733
	movq	(%rax), %rax	# _69->sv_any, D.22731
	movq	(%rax), %rax	# MEM[(struct XPV *)_70].xpv_pv, D.22734
	addq	$10, %rax	#, D.22734
	movzbl	(%rax), %eax	# *_72, D.22735
	movsbl	%al, %eax	# D.22735, D.22736
	andl	$4, %eax	#, D.22736
	testl	%eax, %eax	# D.22736
	jne	.L511	#,
.L510:
	movq	PL_curcop(%rip), %rax	# PL_curcop, PL_curcop.224
	movq	80(%rax), %rax	# PL_curcop.224_76->cop_warnings, D.22733
	testq	%rax, %rax	# D.22733
	jne	.L509	#,
	.loc 1 2646 0 discriminator 1
	movzbl	PL_dowarn(%rip), %eax	# PL_dowarn, PL_dowarn.225
	movzbl	%al, %eax	# PL_dowarn.225, D.22736
	andl	$1, %eax	#, D.22736
	testl	%eax, %eax	# D.22736
	je	.L509	#,
.L511:
	movl	PL_localizing(%rip), %eax	# PL_localizing, PL_localizing.226
	testl	%eax, %eax	# PL_localizing.226
	jne	.L509	#,
	.loc 1 2647 0 is_stmt 1
	call	Perl_report_uninit	#
.L509:
	.loc 1 2649 0
	movl	$0, %eax	#, D.22729
	jmp	.L498	#
.L499:
	.loc 1 2652 0
	movl	12(%rbx), %eax	# sv_7(D)->sv_flags, D.22730
	andl	$9961472, %eax	#, D.22730
	testl	%eax, %eax	# D.22730
	je	.L512	#,
	.loc 1 2653 0
	movl	12(%rbx), %eax	# sv_7(D)->sv_flags, D.22730
	andl	$524288, %eax	#, D.22730
	testl	%eax, %eax	# D.22730
	je	.L513	#,
.LBB13:
	.loc 1 2655 0
	movl	12(%rbx), %eax	# sv_7(D)->sv_flags, D.22730
	andl	$268435456, %eax	#, D.22730
	testl	%eax, %eax	# D.22730
	je	.L514	#,
	.loc 1 2655 0 is_stmt 0 discriminator 1
	movl	$9, %ecx	#,
	movl	$5, %edx	#,
	movl	$PL_sv_undef, %esi	#,
	movq	%rbx, %rdi	# sv,
	call	Perl_amagic_call	#
	movq	%rax, -40(%rbp)	# tmp359, tmpstr
	cmpq	$0, -40(%rbp)	#, tmpstr
	je	.L514	#,
	.loc 1 2656 0 is_stmt 1 discriminator 1
	movq	-40(%rbp), %rax	# tmpstr, tmp360
	movl	12(%rax), %eax	# tmpstr_89->sv_flags, D.22730
	andl	$524288, %eax	#, D.22730
	.loc 1 2655 0 discriminator 1
	testl	%eax, %eax	# D.22730
	je	.L515	#,
	.loc 1 2656 0
	movq	-40(%rbp), %rax	# tmpstr, tmp361
	movq	(%rax), %rax	# tmpstr_89->sv_any, D.22731
	movq	(%rax), %rdx	# MEM[(struct XRV *)_92].xrv_rv, D.22733
	movq	(%rbx), %rax	# sv_7(D)->sv_any, D.22731
	movq	(%rax), %rax	# MEM[(struct XRV *)_94].xrv_rv, D.22733
	cmpq	%rax, %rdx	# D.22733, D.22733
	je	.L514	#,
.L515:
	.loc 1 2657 0
	movq	-40(%rbp), %rax	# tmpstr, tmp362
	movl	12(%rax), %eax	# tmpstr_89->sv_flags, D.22730
	andl	$131072, %eax	#, D.22730
	testl	%eax, %eax	# D.22730
	je	.L516	#,
	.loc 1 2657 0 is_stmt 0 discriminator 1
	movq	-40(%rbp), %rax	# tmpstr, tmp363
	movq	(%rax), %rax	# tmpstr_89->sv_any, D.22731
	movq	32(%rax), %rax	# MEM[(struct XPVNV *)_98].xnv_nv, iftmp.227
	jmp	.L517	#
.L516:
	.loc 1 2657 0 discriminator 2
	movq	-40(%rbp), %rax	# tmpstr, tmp364
	movq	%rax, %rdi	# tmp364,
	call	Perl_sv_2nv	#
	movsd	%xmm0, -72(%rbp)	#, %sfp
	movq	-72(%rbp), %rax	# %sfp, iftmp.227
.L517:
	.loc 1 2657 0 discriminator 3
	jmp	.L498	#
.L514:
	.loc 1 2658 0 is_stmt 1
	movq	(%rbx), %rax	# sv_7(D)->sv_any, D.22731
	movq	(%rax), %rax	# MEM[(struct XRV *)_102].xrv_rv, D.22733
	testq	%rax, %rax	# D.22732
	js	.L518	#,
	cvtsi2sdq	%rax, %xmm6	# D.22732, D.22729
	movsd	%xmm6, -72(%rbp)	# D.22729, %sfp
	movq	-72(%rbp), %rax	# %sfp, D.22729
	jmp	.L498	#
.L518:
	movq	%rax, %rdx	# D.22732, tmp366
	shrq	%rdx	# tmp366
	andl	$1, %eax	#, tmp367
	orq	%rax, %rdx	# tmp367, tmp366
	cvtsi2sdq	%rdx, %xmm0	# tmp366, tmp365
	movapd	%xmm0, %xmm3	# tmp365, D.22729
	addsd	%xmm0, %xmm3	# tmp365, D.22729
	movsd	%xmm3, -72(%rbp)	# D.22729, %sfp
	movq	-72(%rbp), %rax	# %sfp, D.22729
	jmp	.L498	#
.L513:
.LBE13:
	.loc 1 2660 0
	movl	12(%rbx), %eax	# sv_7(D)->sv_flags, D.22730
	andl	$8388608, %eax	#, D.22730
	testl	%eax, %eax	# D.22730
	je	.L520	#,
	.loc 1 2660 0 is_stmt 0 discriminator 1
	movl	12(%rbx), %eax	# sv_7(D)->sv_flags, D.22730
	andl	$1048576, %eax	#, D.22730
	testl	%eax, %eax	# D.22730
	je	.L520	#,
	.loc 1 2661 0 is_stmt 1
	movq	%rbx, %rdi	# sv,
	call	Perl_sv_force_normal	#
.L520:
	.loc 1 2663 0
	movl	12(%rbx), %eax	# sv_7(D)->sv_flags, D.22730
	andl	$8388608, %eax	#, D.22730
	testl	%eax, %eax	# D.22730
	je	.L512	#,
	.loc 1 2663 0 is_stmt 0 discriminator 1
	movl	12(%rbx), %eax	# sv_7(D)->sv_flags, D.22730
	andl	$118423552, %eax	#, D.22730
	testl	%eax, %eax	# D.22730
	jne	.L512	#,
	.loc 1 2664 0 is_stmt 1
	movq	PL_curcop(%rip), %rax	# PL_curcop, PL_curcop.228
	movq	80(%rax), %rax	# PL_curcop.228_114->cop_warnings, D.22733
	testq	%rax, %rax	# D.22733
	je	.L521	#,
	.loc 1 2664 0 is_stmt 0 discriminator 1
	movq	PL_curcop(%rip), %rax	# PL_curcop, PL_curcop.229
	movq	80(%rax), %rax	# PL_curcop.229_116->cop_warnings, D.22733
	cmpq	$32, %rax	#, D.22733
	je	.L521	#,
	movq	PL_curcop(%rip), %rax	# PL_curcop, PL_curcop.230
	movq	80(%rax), %rax	# PL_curcop.230_118->cop_warnings, D.22733
	cmpq	$16, %rax	#, D.22733
	je	.L522	#,
	movq	PL_curcop(%rip), %rax	# PL_curcop, PL_curcop.231
	movq	80(%rax), %rax	# PL_curcop.231_120->cop_warnings, D.22733
	movq	(%rax), %rax	# _121->sv_any, D.22731
	movq	(%rax), %rax	# MEM[(struct XPV *)_122].xpv_pv, D.22734
	addq	$10, %rax	#, D.22734
	movzbl	(%rax), %eax	# *_124, D.22735
	movsbl	%al, %eax	# D.22735, D.22736
	andl	$4, %eax	#, D.22736
	testl	%eax, %eax	# D.22736
	jne	.L522	#,
.L521:
	.loc 1 2664 0 discriminator 2
	movq	PL_curcop(%rip), %rax	# PL_curcop, PL_curcop.232
	movq	80(%rax), %rax	# PL_curcop.232_128->cop_warnings, D.22733
	testq	%rax, %rax	# D.22733
	jne	.L523	#,
	.loc 1 2664 0 discriminator 1
	movzbl	PL_dowarn(%rip), %eax	# PL_dowarn, PL_dowarn.233
	movzbl	%al, %eax	# PL_dowarn.233, D.22736
	andl	$1, %eax	#, D.22736
	testl	%eax, %eax	# D.22736
	je	.L523	#,
.L522:
	.loc 1 2665 0 is_stmt 1
	call	Perl_report_uninit	#
.L523:
	.loc 1 2666 0
	movl	$0, %eax	#, D.22729
	jmp	.L498	#
.L512:
	.loc 1 2669 0
	movl	12(%rbx), %eax	# sv_7(D)->sv_flags, D.22730
	movzbl	%al, %eax	# D.22730, D.22730
	cmpl	$1, %eax	#, D.22730
	ja	.L524	#,
	.loc 1 2670 0
	movl	12(%rbx), %eax	# sv_7(D)->sv_flags, D.22730
	movzbl	%al, %eax	# D.22730, D.22730
	cmpl	$1, %eax	#, D.22730
	jne	.L525	#,
	.loc 1 2671 0
	movl	$6, %esi	#,
	movq	%rbx, %rdi	# sv,
	call	Perl_sv_upgrade	#
	jmp	.L527	#
.L525:
	.loc 1 2673 0
	movl	$2, %esi	#,
	movq	%rbx, %rdi	# sv,
	call	Perl_sv_upgrade	#
	jmp	.L527	#
.L524:
	.loc 1 2691 0
	movl	12(%rbx), %eax	# sv_7(D)->sv_flags, D.22730
	movzbl	%al, %eax	# D.22730, D.22730
	cmpl	$5, %eax	#, D.22730
	ja	.L527	#,
	.loc 1 2692 0
	movl	$6, %esi	#,
	movq	%rbx, %rdi	# sv,
	call	Perl_sv_upgrade	#
.L527:
	.loc 1 2693 0
	movl	12(%rbx), %eax	# sv_7(D)->sv_flags, D.22730
	andl	$33554432, %eax	#, D.22730
	testl	%eax, %eax	# D.22730
	je	.L528	#,
	.loc 1 2694 0
	movq	(%rbx), %rax	# sv_7(D)->sv_any, D.22731
	movq	32(%rax), %rax	# MEM[(struct XPVNV *)_142].xnv_nv, D.22729
	jmp	.L498	#
.L528:
	.loc 1 2696 0
	movl	12(%rbx), %eax	# sv_7(D)->sv_flags, D.22730
	andl	$16777216, %eax	#, D.22730
	testl	%eax, %eax	# D.22730
	je	.L529	#,
	.loc 1 2697 0
	movq	(%rbx), %rcx	# sv_7(D)->sv_any, D.22731
	movl	12(%rbx), %eax	# sv_7(D)->sv_flags, D.22730
	testl	%eax, %eax	# D.22737
	jns	.L530	#,
	.loc 1 2697 0 is_stmt 0 discriminator 1
	movq	(%rbx), %rax	# sv_7(D)->sv_any, D.22731
	movq	24(%rax), %rax	# MEM[(struct XPVUV *)_149].xuv_uv, D.22732
	testq	%rax, %rax	# D.22732
	js	.L531	#,
	cvtsi2sdq	%rax, %xmm0	# D.22732, iftmp.234
	jmp	.L533	#
.L531:
	movq	%rax, %rdx	# D.22732, tmp369
	shrq	%rdx	# tmp369
	andl	$1, %eax	#, tmp370
	orq	%rax, %rdx	# tmp370, tmp369
	cvtsi2sdq	%rdx, %xmm0	# tmp369, tmp368
	addsd	%xmm0, %xmm0	# tmp368, iftmp.234
	jmp	.L533	#
.L530:
	.loc 1 2697 0 discriminator 2
	movq	(%rbx), %rax	# sv_7(D)->sv_any, D.22731
	movq	24(%rax), %rax	# MEM[(struct XPVIV *)_152].xiv_iv, D.22738
	cvtsi2sdq	%rax, %xmm0	# D.22738, iftmp.234
.L533:
	.loc 1 2697 0 discriminator 3
	movsd	%xmm0, 32(%rcx)	# iftmp.234, MEM[(struct XPVNV *)_146].xnv_nv
	.loc 1 2703 0 is_stmt 1 discriminator 3
	movl	12(%rbx), %eax	# sv_7(D)->sv_flags, D.22730
	testl	%eax, %eax	# D.22737
	jns	.L534	#,
	.loc 1 2703 0 is_stmt 0 discriminator 1
	movq	(%rbx), %rax	# sv_7(D)->sv_any, D.22731
	movq	24(%rax), %rax	# MEM[(struct XPVUV *)_157].xuv_uv, D.22732
	cmpq	$-1, %rax	#, D.22732
	je	.L535	#,
	movq	(%rbx), %rax	# sv_7(D)->sv_any, D.22731
	movq	24(%rax), %r12	# MEM[(struct XPVUV *)_159].xuv_uv, D.22732
	movq	(%rbx), %rax	# sv_7(D)->sv_any, D.22731
	movq	32(%rax), %rax	# MEM[(struct XPVNV *)_161].xnv_nv, D.22739
	movq	%rax, -72(%rbp)	# D.22739, %sfp
	movsd	-72(%rbp), %xmm0	# %sfp,
	call	Perl_cast_uv	#
	cmpq	%rax, %r12	# D.22732, D.22732
	jne	.L535	#,
	.loc 1 2703 0 discriminator 3
	movl	$1, %eax	#, iftmp.236
	jmp	.L536	#
.L535:
	.loc 1 2703 0 discriminator 2
	movl	$0, %eax	#, iftmp.236
.L536:
	.loc 1 2703 0 discriminator 4
	andl	$1, %eax	#, iftmp.235
	jmp	.L537	#
.L534:
	.loc 1 2704 0 is_stmt 1 discriminator 2
	movq	(%rbx), %rax	# sv_7(D)->sv_any, D.22731
	movq	24(%rax), %r12	# MEM[(struct XPVIV *)_167].xiv_iv, D.22738
	movq	(%rbx), %rax	# sv_7(D)->sv_any, D.22731
	movq	32(%rax), %rax	# MEM[(struct XPVNV *)_169].xnv_nv, D.22739
	movq	%rax, -72(%rbp)	# D.22739, %sfp
	movsd	-72(%rbp), %xmm0	# %sfp,
	call	Perl_cast_iv	#
	.loc 1 2703 0 discriminator 2
	cmpq	%rax, %r12	# D.22738, D.22738
	sete	%al	#, iftmp.235
.L537:
	.loc 1 2703 0 is_stmt 0 discriminator 3
	testb	%al, %al	# iftmp.235
	je	.L538	#,
	.loc 1 2705 0 is_stmt 1
	movl	12(%rbx), %eax	# sv_7(D)->sv_flags, D.22730
	orl	$33685504, %eax	#, D.22730
	movl	%eax, 12(%rbx)	# D.22730, sv_7(D)->sv_flags
	jmp	.L540	#
.L538:
	.loc 1 2707 0
	movl	12(%rbx), %eax	# sv_7(D)->sv_flags, D.22730
	orl	$33554432, %eax	#, D.22730
	movl	%eax, 12(%rbx)	# D.22730, sv_7(D)->sv_flags
	jmp	.L540	#
.L529:
	.loc 1 2710 0
	movl	12(%rbx), %eax	# sv_7(D)->sv_flags, D.22730
	andl	$67108864, %eax	#, D.22730
	testl	%eax, %eax	# D.22730
	je	.L541	#,
	.loc 1 2710 0 is_stmt 0 discriminator 1
	movq	(%rbx), %rax	# sv_7(D)->sv_any, D.22731
	movq	16(%rax), %rax	# MEM[(struct XPV *)_179].xpv_len, D.22732
	testq	%rax, %rax	# D.22732
	je	.L541	#,
.LBB14:
	.loc 1 2712 0 is_stmt 1
	movq	(%rbx), %rax	# sv_7(D)->sv_any, D.22731
	movq	8(%rax), %rcx	# MEM[(struct XPV *)_181].xpv_cur, D.22732
	movq	(%rbx), %rax	# sv_7(D)->sv_any, D.22731
	movq	(%rax), %rax	# MEM[(struct XPV *)_183].xpv_pv, D.22734
	leaq	-48(%rbp), %rdx	#, tmp371
	movq	%rcx, %rsi	# D.22732,
	movq	%rax, %rdi	# D.22734,
	call	Perl_grok_number	#
	movl	%eax, -52(%rbp)	# tmp372, numtype
	.loc 1 2713 0
	movq	PL_curcop(%rip), %rax	# PL_curcop, PL_curcop.237
	movq	80(%rax), %rax	# PL_curcop.237_186->cop_warnings, D.22733
	testq	%rax, %rax	# D.22733
	je	.L542	#,
	.loc 1 2713 0 is_stmt 0 discriminator 1
	movq	PL_curcop(%rip), %rax	# PL_curcop, PL_curcop.238
	movq	80(%rax), %rax	# PL_curcop.238_188->cop_warnings, D.22733
	cmpq	$32, %rax	#, D.22733
	je	.L542	#,
	movq	PL_curcop(%rip), %rax	# PL_curcop, PL_curcop.239
	movq	80(%rax), %rax	# PL_curcop.239_190->cop_warnings, D.22733
	cmpq	$16, %rax	#, D.22733
	je	.L543	#,
	.loc 1 2713 0 discriminator 2
	movq	PL_curcop(%rip), %rax	# PL_curcop, PL_curcop.240
	movq	80(%rax), %rax	# PL_curcop.240_192->cop_warnings, D.22733
	movq	(%rax), %rax	# _193->sv_any, D.22731
	movq	(%rax), %rax	# MEM[(struct XPV *)_194].xpv_pv, D.22734
	addq	$3, %rax	#, D.22734
	movzbl	(%rax), %eax	# *_196, D.22735
	movsbl	%al, %eax	# D.22735, D.22736
	andl	$4, %eax	#, D.22736
	testl	%eax, %eax	# D.22736
	jne	.L543	#,
.L542:
	movq	PL_curcop(%rip), %rax	# PL_curcop, PL_curcop.241
	movq	80(%rax), %rax	# PL_curcop.241_200->cop_warnings, D.22733
	testq	%rax, %rax	# D.22733
	jne	.L544	#,
	.loc 1 2713 0 discriminator 1
	movzbl	PL_dowarn(%rip), %eax	# PL_dowarn, PL_dowarn.242
	movzbl	%al, %eax	# PL_dowarn.242, D.22736
	andl	$1, %eax	#, D.22736
	testl	%eax, %eax	# D.22736
	je	.L544	#,
.L543:
	movl	12(%rbx), %eax	# sv_7(D)->sv_flags, D.22730
	andl	$16777216, %eax	#, D.22730
	testl	%eax, %eax	# D.22730
	jne	.L544	#,
	cmpl	$0, -52(%rbp)	#, numtype
	jne	.L544	#,
	.loc 1 2714 0 is_stmt 1
	movq	%rbx, %rdi	# sv,
	call	S_not_a_number	#
.L544:
	.loc 1 2724 0
	movq	(%rbx), %r12	# sv_7(D)->sv_any, D.22731
	movq	(%rbx), %rax	# sv_7(D)->sv_any, D.22731
	movq	(%rax), %rax	# MEM[(struct XPV *)_208].xpv_pv, D.22734
	movq	%rax, %rdi	# D.22734,
	call	Perl_my_atof	#
	movsd	%xmm0, -72(%rbp)	#, %sfp
	movq	-72(%rbp), %rax	# %sfp, D.22739
	movq	%rax, 32(%r12)	# D.22739, MEM[(struct XPVNV *)_207].xnv_nv
	.loc 1 2732 0
	movq	(%rbx), %rax	# sv_7(D)->sv_any, D.22731
	movsd	32(%rax), %xmm0	# MEM[(struct XPVNV *)_211].xnv_nv, D.22739
	xorpd	%xmm1, %xmm1	# tmp373
	ucomisd	%xmm1, %xmm0	# tmp373, D.22739
	jbe	.L576	#,
	.loc 1 2732 0 is_stmt 0 discriminator 1
	movq	(%rbx), %rax	# sv_7(D)->sv_any, D.22731
	movq	32(%rax), %rax	# MEM[(struct XPVNV *)_213].xnv_nv, iftmp.243
	jmp	.L547	#
.L576:
	.loc 1 2732 0 discriminator 2
	movq	(%rbx), %rax	# sv_7(D)->sv_any, D.22731
	movsd	32(%rax), %xmm1	# MEM[(struct XPVNV *)_215].xnv_nv, D.22739
	movsd	.LC12(%rip), %xmm0	#, tmp374
	xorpd	%xmm0, %xmm1	# tmp374, iftmp.243
	movsd	%xmm1, -72(%rbp)	# iftmp.243, %sfp
	movq	-72(%rbp), %rax	# %sfp, iftmp.243
.L547:
	.loc 1 2732 0 discriminator 3
	movq	%rax, -72(%rbp)	# iftmp.243, %sfp
	movsd	-72(%rbp), %xmm0	# %sfp,
	call	Perl_cast_uv	#
	.loc 1 2731 0 is_stmt 1 discriminator 3
	movl	$4294967295, %edx	#, tmp375
	cmpq	%rdx, %rax	# tmp375, D.22732
	ja	.L548	#,
	.loc 1 2733 0
	movl	12(%rbx), %eax	# sv_7(D)->sv_flags, D.22730
	orl	$33685504, %eax	#, D.22730
	movl	%eax, 12(%rbx)	# D.22730, sv_7(D)->sv_flags
	jmp	.L549	#
.L548:
	.loc 1 2734 0
	movl	-52(%rbp), %eax	# numtype, tmp376
	andl	$1, %eax	#, D.22736
	testl	%eax, %eax	# D.22736
	jne	.L550	#,
	.loc 1 2737 0
	movl	12(%rbx), %eax	# sv_7(D)->sv_flags, D.22730
	orl	$33685504, %eax	#, D.22730
	movl	%eax, 12(%rbx)	# D.22730, sv_7(D)->sv_flags
	jmp	.L549	#
.L550:
	.loc 1 2740 0
	movl	-52(%rbp), %eax	# numtype, tmp377
	andl	$8, %eax	#, D.22736
	testl	%eax, %eax	# D.22736
	je	.L551	#,
	.loc 1 2740 0 is_stmt 0 discriminator 1
	movq	-48(%rbp), %rdx	# value, value.244
	movabsq	$-9223372036854775808, %rax	#, tmp378
	cmpq	%rax, %rdx	# tmp378, value.244
	jbe	.L551	#,
	.loc 1 2742 0 is_stmt 1
	movl	12(%rbx), %eax	# sv_7(D)->sv_flags, D.22730
	orl	$33685504, %eax	#, D.22730
	movl	%eax, 12(%rbx)	# D.22730, sv_7(D)->sv_flags
	jmp	.L549	#
.L551:
	.loc 1 2744 0
	movl	12(%rbx), %eax	# sv_7(D)->sv_flags, D.22730
	orl	$33554432, %eax	#, D.22730
	movl	%eax, 12(%rbx)	# D.22730, sv_7(D)->sv_flags
	.loc 1 2745 0
	movl	12(%rbx), %eax	# sv_7(D)->sv_flags, D.22730
	andl	$2097152, %eax	#, D.22730
	testl	%eax, %eax	# D.22730
	je	.L553	#,
	.loc 1 2745 0 is_stmt 0 discriminator 1
	movq	%rbx, %rdi	# sv,
	call	Perl_sv_backoff	#
	testl	%eax, %eax	# D.22736
	je	.L553	#,
	.loc 1 2745 0
	nop
.L553:
	.loc 1 2745 0 discriminator 3
	movl	12(%rbx), %eax	# sv_7(D)->sv_flags, D.22730
	orl	$16777216, %eax	#, D.22730
	movl	%eax, 12(%rbx)	# D.22730, sv_7(D)->sv_flags
	.loc 1 2747 0 is_stmt 1 discriminator 3
	movl	-52(%rbp), %eax	# numtype, tmp379
	andl	$8, %eax	#, D.22736
	testl	%eax, %eax	# D.22736
	je	.L554	#,
	.loc 1 2748 0
	movq	(%rbx), %rax	# sv_7(D)->sv_any, D.22731
	movq	-48(%rbp), %rdx	# value, value.246
	negq	%rdx	# D.22738
	movq	%rdx, 24(%rax)	# D.22738, MEM[(struct XPVIV *)_238].xiv_iv
	jmp	.L555	#
.L554:
	.loc 1 2749 0
	movq	-48(%rbp), %rax	# value, value.248
	testq	%rax, %rax	# value.249
	js	.L556	#,
	.loc 1 2750 0
	movq	(%rbx), %rax	# sv_7(D)->sv_any, D.22731
	movq	-48(%rbp), %rdx	# value, value.250
	movq	%rdx, 24(%rax)	# value.251, MEM[(struct XPVIV *)_244].xiv_iv
	jmp	.L555	#
.L556:
	.loc 1 2752 0
	movq	(%rbx), %rax	# sv_7(D)->sv_any, D.22731
	movq	-48(%rbp), %rdx	# value, value.252
	movq	%rdx, 24(%rax)	# value.252, MEM[(struct XPVUV *)_247].xuv_uv
	.loc 1 2753 0
	movl	12(%rbx), %eax	# sv_7(D)->sv_flags, D.22730
	orl	$-2147483648, %eax	#, D.22730
	movl	%eax, 12(%rbx)	# D.22730, sv_7(D)->sv_flags
.L555:
	.loc 1 2756 0
	movl	-52(%rbp), %eax	# numtype, tmp380
	andl	$4, %eax	#, D.22736
	testl	%eax, %eax	# D.22736
	jne	.L549	#,
.LBB15:
	.loc 1 2763 0
	movq	(%rbx), %rax	# sv_7(D)->sv_any, D.22731
	movq	32(%rax), %rax	# MEM[(struct XPVNV *)_252].xnv_nv, tmp381
	movq	%rax, -32(%rbp)	# tmp381, nv
	.loc 1 2764 0
	movq	(%rbx), %rax	# sv_7(D)->sv_any, D.22731
	movsd	32(%rax), %xmm1	# MEM[(struct XPVNV *)_254].xnv_nv, D.22739
	movsd	.LC11(%rip), %xmm0	#, tmp382
	ucomisd	%xmm1, %xmm0	# D.22739, tmp382
	jbe	.L577	#,
	.loc 1 2765 0
	movq	(%rbx), %rax	# sv_7(D)->sv_any, D.22731
	movq	24(%rax), %r12	# MEM[(struct XPVIV *)_256].xiv_iv, D.22738
	movq	-32(%rbp), %rax	# nv, tmp383
	movq	%rax, -72(%rbp)	# tmp383, %sfp
	movsd	-72(%rbp), %xmm0	# %sfp,
	call	Perl_cast_iv	#
	cmpq	%rax, %r12	# D.22738, D.22738
	jne	.L559	#,
	.loc 1 2766 0
	movl	12(%rbx), %eax	# sv_7(D)->sv_flags, D.22730
	orl	$33685504, %eax	#, D.22730
	movl	%eax, 12(%rbx)	# D.22730, sv_7(D)->sv_flags
	.loc 1 2767 0
	movl	12(%rbx), %eax	# sv_7(D)->sv_flags, D.22730
	andl	$2097152, %eax	#, D.22730
	testl	%eax, %eax	# D.22730
	je	.L561	#,
	.loc 1 2767 0 is_stmt 0 discriminator 1
	movq	%rbx, %rdi	# sv,
	call	Perl_sv_backoff	#
	testl	%eax, %eax	# D.22736
	je	.L561	#,
	.loc 1 2767 0
	nop
.L561:
	.loc 1 2767 0 discriminator 3
	movl	12(%rbx), %eax	# sv_7(D)->sv_flags, D.22730
	orl	$16842752, %eax	#, D.22730
	movl	%eax, 12(%rbx)	# D.22730, sv_7(D)->sv_flags
	jmp	.L549	#
.L559:
	.loc 1 2769 0 is_stmt 1
	movl	12(%rbx), %eax	# sv_7(D)->sv_flags, D.22730
	andl	$2097152, %eax	#, D.22730
	testl	%eax, %eax	# D.22730
	je	.L564	#,
	.loc 1 2769 0 is_stmt 0 discriminator 1
	movq	%rbx, %rdi	# sv,
	call	Perl_sv_backoff	#
	testl	%eax, %eax	# D.22736
	je	.L564	#,
	.loc 1 2769 0
	nop
.L564:
	.loc 1 2769 0 discriminator 3
	movl	12(%rbx), %eax	# sv_7(D)->sv_flags, D.22730
	orl	$16842752, %eax	#, D.22730
	movl	%eax, 12(%rbx)	# D.22730, sv_7(D)->sv_flags
.LBE15:
.LBE14:
	.loc 1 2710 0 is_stmt 1 discriminator 3
	jmp	.L540	#
.L577:
.LBB18:
.LBB17:
	.loc 1 2776 0
	movl	-52(%rbp), %eax	# numtype, tmp384
	andl	$4, %eax	#, D.22736
	testl	%eax, %eax	# D.22736
	jne	.L549	#,
.LBB16:
	.loc 1 2779 0
	movq	-32(%rbp), %rax	# nv, tmp385
	movq	%rax, -72(%rbp)	# tmp385, %sfp
	movsd	-72(%rbp), %xmm0	# %sfp,
	call	Perl_cast_uv	#
	movq	%rax, -24(%rbp)	# tmp386, nv_as_uv
	.loc 1 2781 0
	movq	-48(%rbp), %rax	# value, value.255
	cmpq	-24(%rbp), %rax	# nv_as_uv, value.255
	jne	.L565	#,
	.loc 1 2781 0 is_stmt 0 discriminator 1
	movq	(%rbx), %rax	# sv_7(D)->sv_any, D.22731
	movq	24(%rax), %rax	# MEM[(struct XPVUV *)_278].xuv_uv, D.22732
	cmpq	$-1, %rax	#, D.22732
	je	.L565	#,
	.loc 1 2782 0 is_stmt 1
	movl	12(%rbx), %eax	# sv_7(D)->sv_flags, D.22730
	orl	$33685504, %eax	#, D.22730
	movl	%eax, 12(%rbx)	# D.22730, sv_7(D)->sv_flags
	.loc 1 2783 0
	movl	12(%rbx), %eax	# sv_7(D)->sv_flags, D.22730
	andl	$2097152, %eax	#, D.22730
	testl	%eax, %eax	# D.22730
	je	.L567	#,
	.loc 1 2783 0 is_stmt 0 discriminator 1
	movq	%rbx, %rdi	# sv,
	call	Perl_sv_backoff	#
	testl	%eax, %eax	# D.22736
	je	.L567	#,
	.loc 1 2783 0
	nop
.L567:
	.loc 1 2783 0 discriminator 3
	movl	12(%rbx), %eax	# sv_7(D)->sv_flags, D.22730
	orl	$16842752, %eax	#, D.22730
	movl	%eax, 12(%rbx)	# D.22730, sv_7(D)->sv_flags
	jmp	.L549	#
.L565:
	.loc 1 2785 0 is_stmt 1
	movl	12(%rbx), %eax	# sv_7(D)->sv_flags, D.22730
	andl	$2097152, %eax	#, D.22730
	testl	%eax, %eax	# D.22730
	je	.L569	#,
	.loc 1 2785 0 is_stmt 0 discriminator 1
	movq	%rbx, %rdi	# sv,
	call	Perl_sv_backoff	#
	testl	%eax, %eax	# D.22736
	je	.L569	#,
	.loc 1 2785 0
	nop
.L569:
	.loc 1 2785 0 discriminator 3
	movl	12(%rbx), %eax	# sv_7(D)->sv_flags, D.22730
	orl	$16842752, %eax	#, D.22730
	movl	%eax, 12(%rbx)	# D.22730, sv_7(D)->sv_flags
.LBE16:
.LBE17:
.LBE18:
	.loc 1 2710 0 is_stmt 1 discriminator 3
	jmp	.L540	#
.L549:
	.loc 1 2710 0 is_stmt 0 discriminator 1
	jmp	.L540	#
.L541:
	.loc 1 2795 0 is_stmt 1
	movq	PL_curcop(%rip), %rax	# PL_curcop, PL_curcop.258
	movq	80(%rax), %rax	# PL_curcop.258_296->cop_warnings, D.22733
	testq	%rax, %rax	# D.22733
	je	.L570	#,
	.loc 1 2795 0 is_stmt 0 discriminator 1
	movq	PL_curcop(%rip), %rax	# PL_curcop, PL_curcop.259
	movq	80(%rax), %rax	# PL_curcop.259_298->cop_warnings, D.22733
	cmpq	$32, %rax	#, D.22733
	je	.L570	#,
	movq	PL_curcop(%rip), %rax	# PL_curcop, PL_curcop.260
	movq	80(%rax), %rax	# PL_curcop.260_300->cop_warnings, D.22733
	cmpq	$16, %rax	#, D.22733
	je	.L571	#,
	.loc 1 2795 0 discriminator 2
	movq	PL_curcop(%rip), %rax	# PL_curcop, PL_curcop.261
	movq	80(%rax), %rax	# PL_curcop.261_302->cop_warnings, D.22733
	movq	(%rax), %rax	# _303->sv_any, D.22731
	movq	(%rax), %rax	# MEM[(struct XPV *)_304].xpv_pv, D.22734
	addq	$10, %rax	#, D.22734
	movzbl	(%rax), %eax	# *_306, D.22735
	movsbl	%al, %eax	# D.22735, D.22736
	andl	$4, %eax	#, D.22736
	testl	%eax, %eax	# D.22736
	jne	.L571	#,
.L570:
	movq	PL_curcop(%rip), %rax	# PL_curcop, PL_curcop.262
	movq	80(%rax), %rax	# PL_curcop.262_310->cop_warnings, D.22733
	testq	%rax, %rax	# D.22733
	jne	.L572	#,
	.loc 1 2795 0 discriminator 1
	movzbl	PL_dowarn(%rip), %eax	# PL_dowarn, PL_dowarn.263
	movzbl	%al, %eax	# PL_dowarn.263, D.22736
	andl	$1, %eax	#, D.22736
	testl	%eax, %eax	# D.22736
	je	.L572	#,
.L571:
	movl	PL_localizing(%rip), %eax	# PL_localizing, PL_localizing.264
	testl	%eax, %eax	# PL_localizing.264
	jne	.L572	#,
	movl	12(%rbx), %eax	# sv_7(D)->sv_flags, D.22730
	andl	$512, %eax	#, D.22730
	testl	%eax, %eax	# D.22730
	jne	.L572	#,
	.loc 1 2796 0 is_stmt 1
	call	Perl_report_uninit	#
.L572:
	.loc 1 2797 0
	movl	12(%rbx), %eax	# sv_7(D)->sv_flags, D.22730
	movzbl	%al, %eax	# D.22730, D.22730
	cmpl	$1, %eax	#, D.22730
	ja	.L573	#,
	.loc 1 2801 0
	movl	$2, %esi	#,
	movq	%rbx, %rdi	# sv,
	call	Perl_sv_upgrade	#
.L573:
	.loc 1 2802 0
	movl	$0, %eax	#, D.22729
	jmp	.L498	#
.L540:
	.loc 1 2819 0
	movq	(%rbx), %rax	# sv_7(D)->sv_any, D.22731
	movq	32(%rax), %rax	# MEM[(struct XPVNV *)_321].xnv_nv, D.22729
.L498:
	.loc 1 2820 0
	movq	%rax, -72(%rbp)	# <retval>, %sfp
	movsd	-72(%rbp), %xmm0	# %sfp,
	addq	$64, %rsp	#,
	popq	%rbx	#
	popq	%r12	#
	popq	%rbp	#
	.cfi_def_cfa 7, 8
	ret
	.cfi_endproc
.LFE63:
	.size	Perl_sv_2nv, .-Perl_sv_2nv
	.type	S_asIV, @function
S_asIV:
.LFB64:
	.loc 1 2827 0
	.cfi_startproc
	pushq	%rbp	#
	.cfi_def_cfa_offset 16
	.cfi_offset 6, -16
	movq	%rsp, %rbp	#,
	.cfi_def_cfa_register 6
	subq	$32, %rsp	#,
	movq	%rdi, -24(%rbp)	# sv, sv
	.loc 1 2829 0
	movq	-24(%rbp), %rax	# sv, tmp95
	movq	(%rax), %rax	# sv_2(D)->sv_any, D.22741
	movq	8(%rax), %rcx	# MEM[(struct XPV *)_3].xpv_cur, D.22742
	movq	-24(%rbp), %rax	# sv, tmp96
	movq	(%rax), %rax	# sv_2(D)->sv_any, D.22741
	movq	(%rax), %rax	# MEM[(struct XPV *)_5].xpv_pv, D.22743
	leaq	-8(%rbp), %rdx	#, tmp97
	movq	%rcx, %rsi	# D.22742,
	movq	%rax, %rdi	# D.22743,
	call	Perl_grok_number	#
	movl	%eax, -12(%rbp)	# tmp98, numtype
	.loc 1 2831 0
	movl	-12(%rbp), %eax	# numtype, tmp99
	andl	$5, %eax	#, D.22744
	cmpl	$1, %eax	#, D.22744
	jne	.L579	#,
	.loc 1 2834 0
	movl	-12(%rbp), %eax	# numtype, tmp100
	andl	$8, %eax	#, D.22744
	testl	%eax, %eax	# D.22744
	je	.L580	#,
	.loc 1 2835 0
	movq	-8(%rbp), %rax	# value, value.265
	testq	%rax, %rax	# value.266
	js	.L579	#,
	.loc 1 2836 0
	movq	-8(%rbp), %rax	# value, value.267
	negq	%rax	# D.22740
	jmp	.L585	#
.L580:
	.loc 1 2838 0
	movq	-8(%rbp), %rdx	# value, value.269
	movabsq	$9223372036854775806, %rax	#, tmp101
	cmpq	%rax, %rdx	# tmp101, value.269
	ja	.L579	#,
	.loc 1 2839 0
	movq	-8(%rbp), %rax	# value, value.270
	jmp	.L585	#
.L579:
	.loc 1 2842 0
	cmpl	$0, -12(%rbp)	#, numtype
	jne	.L582	#,
	.loc 1 2843 0
	movq	PL_curcop(%rip), %rax	# PL_curcop, PL_curcop.271
	movq	80(%rax), %rax	# PL_curcop.271_18->cop_warnings, D.22745
	testq	%rax, %rax	# D.22745
	je	.L583	#,
	.loc 1 2843 0 is_stmt 0 discriminator 1
	movq	PL_curcop(%rip), %rax	# PL_curcop, PL_curcop.272
	movq	80(%rax), %rax	# PL_curcop.272_20->cop_warnings, D.22745
	cmpq	$32, %rax	#, D.22745
	je	.L583	#,
	movq	PL_curcop(%rip), %rax	# PL_curcop, PL_curcop.273
	movq	80(%rax), %rax	# PL_curcop.273_22->cop_warnings, D.22745
	cmpq	$16, %rax	#, D.22745
	je	.L584	#,
	movq	PL_curcop(%rip), %rax	# PL_curcop, PL_curcop.274
	movq	80(%rax), %rax	# PL_curcop.274_24->cop_warnings, D.22745
	movq	(%rax), %rax	# _25->sv_any, D.22741
	movq	(%rax), %rax	# MEM[(struct XPV *)_26].xpv_pv, D.22743
	addq	$3, %rax	#, D.22743
	movzbl	(%rax), %eax	# *_28, D.22746
	movsbl	%al, %eax	# D.22746, D.22744
	andl	$4, %eax	#, D.22744
	testl	%eax, %eax	# D.22744
	jne	.L584	#,
.L583:
	.loc 1 2843 0 discriminator 2
	movq	PL_curcop(%rip), %rax	# PL_curcop, PL_curcop.275
	movq	80(%rax), %rax	# PL_curcop.275_32->cop_warnings, D.22745
	testq	%rax, %rax	# D.22745
	jne	.L582	#,
	.loc 1 2843 0 discriminator 1
	movzbl	PL_dowarn(%rip), %eax	# PL_dowarn, PL_dowarn.276
	movzbl	%al, %eax	# PL_dowarn.276, D.22744
	andl	$1, %eax	#, D.22744
	testl	%eax, %eax	# D.22744
	je	.L582	#,
.L584:
	.loc 1 2844 0 is_stmt 1
	movq	-24(%rbp), %rax	# sv, tmp102
	movq	%rax, %rdi	# tmp102,
	call	S_not_a_number	#
.L582:
	.loc 1 2846 0
	movq	-24(%rbp), %rax	# sv, tmp103
	movq	(%rax), %rax	# sv_2(D)->sv_any, D.22741
	movq	(%rax), %rax	# MEM[(struct XPV *)_37].xpv_pv, D.22743
	movq	%rax, %rdi	# D.22743,
	call	Perl_my_atof	#
	movsd	%xmm0, -32(%rbp)	#, %sfp
	movq	-32(%rbp), %rax	# %sfp, D.22747
	movq	%rax, -32(%rbp)	# D.22747, %sfp
	movsd	-32(%rbp), %xmm0	# %sfp,
	call	Perl_cast_iv	#
.L585:
	.loc 1 2847 0
	leave
	.cfi_def_cfa 7, 8
	ret
	.cfi_endproc
.LFE64:
	.size	S_asIV, .-S_asIV
	.type	S_asUV, @function
S_asUV:
.LFB65:
	.loc 1 2854 0
	.cfi_startproc
	pushq	%rbp	#
	.cfi_def_cfa_offset 16
	.cfi_offset 6, -16
	movq	%rsp, %rbp	#,
	.cfi_def_cfa_register 6
	subq	$32, %rsp	#,
	movq	%rdi, -24(%rbp)	# sv, sv
	.loc 1 2856 0
	movq	-24(%rbp), %rax	# sv, tmp89
	movq	(%rax), %rax	# sv_2(D)->sv_any, D.22749
	movq	8(%rax), %rcx	# MEM[(struct XPV *)_3].xpv_cur, D.22750
	movq	-24(%rbp), %rax	# sv, tmp90
	movq	(%rax), %rax	# sv_2(D)->sv_any, D.22749
	movq	(%rax), %rax	# MEM[(struct XPV *)_5].xpv_pv, D.22751
	leaq	-8(%rbp), %rdx	#, tmp91
	movq	%rcx, %rsi	# D.22750,
	movq	%rax, %rdi	# D.22751,
	call	Perl_grok_number	#
	movl	%eax, -12(%rbp)	# tmp92, numtype
	.loc 1 2858 0
	movl	-12(%rbp), %eax	# numtype, tmp93
	andl	$5, %eax	#, D.22752
	cmpl	$1, %eax	#, D.22752
	jne	.L587	#,
	.loc 1 2861 0
	movl	-12(%rbp), %eax	# numtype, tmp94
	andl	$8, %eax	#, D.22752
	testl	%eax, %eax	# D.22752
	jne	.L587	#,
	.loc 1 2862 0
	movq	-8(%rbp), %rax	# value, D.22748
	jmp	.L592	#
.L587:
	.loc 1 2864 0
	cmpl	$0, -12(%rbp)	#, numtype
	jne	.L589	#,
	.loc 1 2865 0
	movq	PL_curcop(%rip), %rax	# PL_curcop, PL_curcop.277
	movq	80(%rax), %rax	# PL_curcop.277_11->cop_warnings, D.22753
	testq	%rax, %rax	# D.22753
	je	.L590	#,
	.loc 1 2865 0 is_stmt 0 discriminator 1
	movq	PL_curcop(%rip), %rax	# PL_curcop, PL_curcop.278
	movq	80(%rax), %rax	# PL_curcop.278_13->cop_warnings, D.22753
	cmpq	$32, %rax	#, D.22753
	je	.L590	#,
	movq	PL_curcop(%rip), %rax	# PL_curcop, PL_curcop.279
	movq	80(%rax), %rax	# PL_curcop.279_15->cop_warnings, D.22753
	cmpq	$16, %rax	#, D.22753
	je	.L591	#,
	movq	PL_curcop(%rip), %rax	# PL_curcop, PL_curcop.280
	movq	80(%rax), %rax	# PL_curcop.280_17->cop_warnings, D.22753
	movq	(%rax), %rax	# _18->sv_any, D.22749
	movq	(%rax), %rax	# MEM[(struct XPV *)_19].xpv_pv, D.22751
	addq	$3, %rax	#, D.22751
	movzbl	(%rax), %eax	# *_21, D.22754
	movsbl	%al, %eax	# D.22754, D.22752
	andl	$4, %eax	#, D.22752
	testl	%eax, %eax	# D.22752
	jne	.L591	#,
.L590:
	.loc 1 2865 0 discriminator 2
	movq	PL_curcop(%rip), %rax	# PL_curcop, PL_curcop.281
	movq	80(%rax), %rax	# PL_curcop.281_25->cop_warnings, D.22753
	testq	%rax, %rax	# D.22753
	jne	.L589	#,
	.loc 1 2865 0 discriminator 1
	movzbl	PL_dowarn(%rip), %eax	# PL_dowarn, PL_dowarn.282
	movzbl	%al, %eax	# PL_dowarn.282, D.22752
	andl	$1, %eax	#, D.22752
	testl	%eax, %eax	# D.22752
	je	.L589	#,
.L591:
	.loc 1 2866 0 is_stmt 1
	movq	-24(%rbp), %rax	# sv, tmp95
	movq	%rax, %rdi	# tmp95,
	call	S_not_a_number	#
.L589:
	.loc 1 2868 0
	movq	-24(%rbp), %rax	# sv, tmp96
	movq	(%rax), %rax	# sv_2(D)->sv_any, D.22749
	movq	(%rax), %rax	# MEM[(struct XPV *)_30].xpv_pv, D.22751
	movq	%rax, %rdi	# D.22751,
	call	Perl_my_atof	#
	movsd	%xmm0, -32(%rbp)	#, %sfp
	movq	-32(%rbp), %rax	# %sfp, D.22755
	movq	%rax, -32(%rbp)	# D.22755, %sfp
	movsd	-32(%rbp), %xmm0	# %sfp,
	call	Perl_cast_uv	#
.L592:
	.loc 1 2869 0
	leave
	.cfi_def_cfa 7, 8
	ret
	.cfi_endproc
.LFE65:
	.size	S_asUV, .-S_asUV
	.globl	Perl_sv_2pv_nolen
	.type	Perl_sv_2pv_nolen, @function
Perl_sv_2pv_nolen:
.LFB66:
	.loc 1 2881 0
	.cfi_startproc
	pushq	%rbp	#
	.cfi_def_cfa_offset 16
	.cfi_offset 6, -16
	movq	%rsp, %rbp	#,
	.cfi_def_cfa_register 6
	subq	$16, %rsp	#,
	movq	%rdi, %rax	# sv, sv
	.loc 1 2883 0
	leaq	-8(%rbp), %rcx	#, tmp62
	movl	$2, %edx	#,
	movq	%rcx, %rsi	# tmp62,
	movq	%rax, %rdi	# sv,
	call	Perl_sv_2pv_flags	#
	.loc 1 2884 0
	leave
	.cfi_def_cfa 7, 8
	ret
	.cfi_endproc
.LFE66:
	.size	Perl_sv_2pv_nolen, .-Perl_sv_2pv_nolen
	.type	uiv_2buf, @function
uiv_2buf:
.LFB67:
	.loc 1 2895 0
	.cfi_startproc
	pushq	%rbp	#
	.cfi_def_cfa_offset 16
	.cfi_offset 6, -16
	movq	%rsp, %rbp	#,
	.cfi_def_cfa_register 6
	movq	%rdi, -40(%rbp)	# buf, buf
	movq	%rsi, -48(%rbp)	# iv, iv
	movq	%rdx, -56(%rbp)	# uv, uv
	movl	%ecx, -60(%rbp)	# is_uv, is_uv
	movq	%r8, -72(%rbp)	# peob, peob
	.loc 1 2896 0
	movq	-40(%rbp), %rax	# buf, tmp69
	addq	$22, %rax	#, tmp68
	movq	%rax, -16(%rbp)	# tmp68, ptr
	.loc 1 2897 0
	movq	-16(%rbp), %rax	# ptr, tmp70
	movq	%rax, -8(%rbp)	# tmp70, ebuf
	.loc 1 2900 0
	cmpl	$0, -60(%rbp)	#, is_uv
	je	.L596	#,
	.loc 1 2901 0
	movl	$0, -20(%rbp)	#, sign
	jmp	.L597	#
.L596:
	.loc 1 2902 0
	cmpq	$0, -48(%rbp)	#, iv
	js	.L598	#,
	.loc 1 2903 0
	movq	-48(%rbp), %rax	# iv, tmp71
	movq	%rax, -56(%rbp)	# tmp71, uv
	.loc 1 2904 0
	movl	$0, -20(%rbp)	#, sign
	jmp	.L597	#
.L598:
	.loc 1 2906 0
	movq	-48(%rbp), %rax	# iv, tmp72
	negq	%rax	# D.22757
	movq	%rax, -56(%rbp)	# D.22757, uv
	.loc 1 2907 0
	movl	$1, -20(%rbp)	#, sign
.L597:
	.loc 1 2910 0 discriminator 1
	subq	$1, -16(%rbp)	#, ptr
	movq	-56(%rbp), %rcx	# uv, tmp73
	movabsq	$-3689348814741910323, %rdx	#, tmp75
	movq	%rcx, %rax	# tmp73, tmp87
	mulq	%rdx	# tmp75
	shrq	$3, %rdx	#, D.22758
	movq	%rdx, %rax	# D.22758, tmp76
	salq	$2, %rax	#, tmp76
	addq	%rdx, %rax	# D.22758, tmp76
	addq	%rax, %rax	# tmp77
	subq	%rax, %rcx	# tmp76, D.22758
	movq	%rcx, %rdx	# D.22758, D.22758
	movl	%edx, %eax	# D.22758, D.22759
	addl	$48, %eax	#, D.22759
	movl	%eax, %edx	# D.22759, D.22760
	movq	-16(%rbp), %rax	# ptr, tmp78
	movb	%dl, (%rax)	# D.22760, *ptr_17
	.loc 1 2911 0 discriminator 1
	movq	-56(%rbp), %rax	# uv, tmp80
	movabsq	$-3689348814741910323, %rdx	#, tmp82
	mulq	%rdx	# tmp82
	movq	%rdx, %rax	# tmp81, tmp79
	shrq	$3, %rax	#, tmp79
	movq	%rax, -56(%rbp)	# tmp79, uv
	cmpq	$0, -56(%rbp)	#, uv
	jne	.L597	#,
	.loc 1 2912 0
	cmpl	$0, -20(%rbp)	#, sign
	je	.L599	#,
	.loc 1 2913 0
	subq	$1, -16(%rbp)	#, ptr
	movq	-16(%rbp), %rax	# ptr, tmp83
	movb	$45, (%rax)	#, *ptr_23
.L599:
	.loc 1 2914 0
	movq	-72(%rbp), %rax	# peob, tmp84
	movq	-8(%rbp), %rdx	# ebuf, tmp85
	movq	%rdx, (%rax)	# tmp85, *peob_24(D)
	.loc 1 2915 0
	movq	-16(%rbp), %rax	# ptr, D.22761
	.loc 1 2916 0
	popq	%rbp	#
	.cfi_def_cfa 7, 8
	ret
	.cfi_endproc
.LFE67:
	.size	uiv_2buf, .-uiv_2buf
	.globl	Perl_sv_2pv
	.type	Perl_sv_2pv, @function
Perl_sv_2pv:
.LFB68:
	.loc 1 2924 0
	.cfi_startproc
	pushq	%rbp	#
	.cfi_def_cfa_offset 16
	.cfi_offset 6, -16
	movq	%rsp, %rbp	#,
	.cfi_def_cfa_register 6
	subq	$16, %rsp	#,
	movq	%rdi, %rax	# sv, sv
	movq	%rsi, -8(%rbp)	# lp, lp
	.loc 1 2925 0
	movq	-8(%rbp), %rcx	# lp, tmp62
	movl	$2, %edx	#,
	movq	%rcx, %rsi	# tmp62,
	movq	%rax, %rdi	# sv,
	call	Perl_sv_2pv_flags	#
	.loc 1 2926 0
	leave
	.cfi_def_cfa 7, 8
	ret
	.cfi_endproc
.LFE68:
	.size	Perl_sv_2pv, .-Perl_sv_2pv
	.section	.rodata
.LC15:
	.string	"%lu"
.LC16:
	.string	"%ld"
.LC17:
	.string	"NULLREF"
.LC18:
	.string	"msix"
.LC19:
	.string	"(?"
.LC20:
	.string	":"
.LC21:
	.string	"REF"
.LC22:
	.string	"SCALAR"
.LC23:
	.string	"LVALUE"
.LC24:
	.string	"ARRAY"
.LC25:
	.string	"HASH"
.LC26:
	.string	"CODE"
.LC27:
	.string	"GLOB"
.LC28:
	.string	"FORMAT"
.LC29:
	.string	"IO"
.LC30:
	.string	"UNKNOWN"
.LC31:
	.string	"__ANON__"
.LC32:
	.string	"%s=%s(0x%lx)"
.LC33:
	.string	"%s(0x%lx)"
	.text
	.globl	Perl_sv_2pv_flags
	.type	Perl_sv_2pv_flags, @function
Perl_sv_2pv_flags:
.LFB69:
	.loc 1 2942 0
	.cfi_startproc
	pushq	%rbp	#
	.cfi_def_cfa_offset 16
	.cfi_offset 6, -16
	movq	%rsp, %rbp	#,
	.cfi_def_cfa_register 6
	pushq	%r12	#
	pushq	%rbx	#
	subq	$288, %rsp	#,
	.cfi_offset 12, -24
	.cfi_offset 3, -32
	movq	%rdi, %rbx	# sv, sv
	movq	%rsi, -280(%rbp)	# lp, lp
	movl	%edx, -284(%rbp)	# flags, flags
	.loc 1 2942 0
	movq	%fs:40, %rax	#, tmp496
	movq	%rax, -24(%rbp)	# tmp496, D.22779
	xorl	%eax, %eax	# tmp496
	.loc 1 2947 0
	leaq	-96(%rbp), %rax	#, tmp380
	movq	%rax, -184(%rbp)	# tmp380, tmpbuf
	.loc 1 2949 0
	testq	%rbx, %rbx	# sv
	jne	.L604	#,
	.loc 1 2950 0
	movq	-280(%rbp), %rax	# lp, tmp381
	movq	$0, (%rax)	#, *lp_28(D)
	.loc 1 2951 0
	movl	$.LC1, %eax	#, D.22763
	jmp	.L701	#
.L604:
	.loc 1 2953 0
	movl	12(%rbx), %eax	# sv_27(D)->sv_flags, D.22764
	andl	$8192, %eax	#, D.22764
	testl	%eax, %eax	# D.22764
	je	.L606	#,
	.loc 1 2954 0
	movl	-284(%rbp), %eax	# flags, tmp382
	andl	$2, %eax	#, D.22765
	testl	%eax, %eax	# D.22765
	je	.L607	#,
	.loc 1 2955 0
	movq	%rbx, %rdi	# sv,
	call	Perl_mg_get	#
.L607:
	.loc 1 2956 0
	movl	12(%rbx), %eax	# sv_27(D)->sv_flags, D.22764
	andl	$67108864, %eax	#, D.22764
	testl	%eax, %eax	# D.22764
	je	.L608	#,
	.loc 1 2957 0
	movq	(%rbx), %rax	# sv_27(D)->sv_any, D.22766
	movq	8(%rax), %rdx	# MEM[(struct XPV *)_36].xpv_cur, D.22767
	movq	-280(%rbp), %rax	# lp, tmp383
	movq	%rdx, (%rax)	# D.22767, *lp_28(D)
	.loc 1 2958 0
	movq	(%rbx), %rax	# sv_27(D)->sv_any, D.22766
	movq	(%rax), %rax	# MEM[(struct XPV *)_38].xpv_pv, D.22763
	jmp	.L701	#
.L608:
	.loc 1 2960 0
	movl	12(%rbx), %eax	# sv_27(D)->sv_flags, D.22764
	andl	$16777216, %eax	#, D.22764
	testl	%eax, %eax	# D.22764
	je	.L609	#,
	.loc 1 2961 0
	movl	12(%rbx), %eax	# sv_27(D)->sv_flags, D.22764
	testl	%eax, %eax	# D.22768
	jns	.L610	#,
	.loc 1 2962 0
	movq	(%rbx), %rax	# sv_27(D)->sv_any, D.22766
	movq	24(%rax), %rdx	# MEM[(struct XPVUV *)_44].xuv_uv, D.22767
	movq	-184(%rbp), %rax	# tmpbuf, tmp384
	movl	$.LC15, %esi	#,
	movq	%rax, %rdi	# tmp384,
	movl	$0, %eax	#,
	call	sprintf	#
	jmp	.L611	#
.L610:
	.loc 1 2964 0
	movq	(%rbx), %rax	# sv_27(D)->sv_any, D.22766
	movq	24(%rax), %rdx	# MEM[(struct XPVIV *)_46].xiv_iv, D.22769
	movq	-184(%rbp), %rax	# tmpbuf, tmp385
	movl	$.LC16, %esi	#,
	movq	%rax, %rdi	# tmp385,
	movl	$0, %eax	#,
	call	sprintf	#
.L611:
	.loc 1 2965 0
	movq	$0, -232(%rbp)	#, tsv
	.loc 1 2966 0
	jmp	.L612	#
.L609:
	.loc 1 2968 0
	movl	12(%rbx), %eax	# sv_27(D)->sv_flags, D.22764
	andl	$33554432, %eax	#, D.22764
	testl	%eax, %eax	# D.22764
	je	.L613	#,
	.loc 1 2969 0
	movq	(%rbx), %rax	# sv_27(D)->sv_any, D.22766
	movq	32(%rax), %rax	# MEM[(struct XPVNV *)_51].xnv_nv, D.22770
	movq	-184(%rbp), %rdx	# tmpbuf, tmp386
	movq	%rdx, %rsi	# tmp386,
	movl	$15, %edi	#,
	movq	%rax, -296(%rbp)	# D.22770, %sfp
	movsd	-296(%rbp), %xmm0	# %sfp,
	call	gcvt	#
	.loc 1 2970 0
	movq	$0, -232(%rbp)	#, tsv
	.loc 1 2971 0
	jmp	.L612	#
.L613:
	.loc 1 2973 0
	movl	12(%rbx), %eax	# sv_27(D)->sv_flags, D.22764
	andl	$524288, %eax	#, D.22764
	testl	%eax, %eax	# D.22764
	jne	.L606	#,
	.loc 1 2974 0
	movl	12(%rbx), %eax	# sv_27(D)->sv_flags, D.22764
	andl	$512, %eax	#, D.22764
	testl	%eax, %eax	# D.22764
	jne	.L614	#,
	.loc 1 2975 0
	movq	PL_curcop(%rip), %rax	# PL_curcop, PL_curcop.283
	movq	80(%rax), %rax	# PL_curcop.283_58->cop_warnings, D.22771
	testq	%rax, %rax	# D.22771
	je	.L615	#,
	.loc 1 2975 0 is_stmt 0 discriminator 1
	movq	PL_curcop(%rip), %rax	# PL_curcop, PL_curcop.284
	movq	80(%rax), %rax	# PL_curcop.284_60->cop_warnings, D.22771
	cmpq	$32, %rax	#, D.22771
	je	.L615	#,
	movq	PL_curcop(%rip), %rax	# PL_curcop, PL_curcop.285
	movq	80(%rax), %rax	# PL_curcop.285_62->cop_warnings, D.22771
	cmpq	$16, %rax	#, D.22771
	je	.L616	#,
	.loc 1 2975 0 discriminator 2
	movq	PL_curcop(%rip), %rax	# PL_curcop, PL_curcop.286
	movq	80(%rax), %rax	# PL_curcop.286_64->cop_warnings, D.22771
	movq	(%rax), %rax	# _65->sv_any, D.22766
	movq	(%rax), %rax	# MEM[(struct XPV *)_66].xpv_pv, D.22763
	addq	$10, %rax	#, D.22763
	movzbl	(%rax), %eax	# *_68, D.22772
	movsbl	%al, %eax	# D.22772, D.22765
	andl	$4, %eax	#, D.22765
	testl	%eax, %eax	# D.22765
	jne	.L616	#,
.L615:
	movq	PL_curcop(%rip), %rax	# PL_curcop, PL_curcop.287
	movq	80(%rax), %rax	# PL_curcop.287_72->cop_warnings, D.22771
	testq	%rax, %rax	# D.22771
	jne	.L614	#,
	.loc 1 2975 0 discriminator 1
	movzbl	PL_dowarn(%rip), %eax	# PL_dowarn, PL_dowarn.288
	movzbl	%al, %eax	# PL_dowarn.288, D.22765
	andl	$1, %eax	#, D.22765
	testl	%eax, %eax	# D.22765
	je	.L614	#,
.L616:
	movl	PL_localizing(%rip), %eax	# PL_localizing, PL_localizing.289
	testl	%eax, %eax	# PL_localizing.289
	jne	.L614	#,
	.loc 1 2976 0 is_stmt 1
	call	Perl_report_uninit	#
.L614:
	.loc 1 2978 0
	movq	-280(%rbp), %rax	# lp, tmp387
	movq	$0, (%rax)	#, *lp_28(D)
	.loc 1 2979 0
	movl	$.LC1, %eax	#, D.22763
	jmp	.L701	#
.L606:
	.loc 1 2982 0
	movl	12(%rbx), %eax	# sv_27(D)->sv_flags, D.22764
	andl	$9961472, %eax	#, D.22764
	testl	%eax, %eax	# D.22764
	je	.L617	#,
	.loc 1 2983 0
	movl	12(%rbx), %eax	# sv_27(D)->sv_flags, D.22764
	andl	$524288, %eax	#, D.22764
	testl	%eax, %eax	# D.22764
	je	.L618	#,
.LBB19:
	.loc 1 2985 0
	movl	12(%rbx), %eax	# sv_27(D)->sv_flags, D.22764
	andl	$268435456, %eax	#, D.22764
	testl	%eax, %eax	# D.22764
	je	.L619	#,
	.loc 1 2985 0 is_stmt 0 discriminator 1
	movl	$9, %ecx	#,
	movl	$4, %edx	#,
	movl	$PL_sv_undef, %esi	#,
	movq	%rbx, %rdi	# sv,
	call	Perl_amagic_call	#
	movq	%rax, -176(%rbp)	# tmp388, tmpstr
	cmpq	$0, -176(%rbp)	#, tmpstr
	je	.L619	#,
	.loc 1 2986 0 is_stmt 1 discriminator 1
	movq	-176(%rbp), %rax	# tmpstr, tmp389
	movl	12(%rax), %eax	# tmpstr_110->sv_flags, D.22764
	andl	$524288, %eax	#, D.22764
	.loc 1 2985 0 discriminator 1
	testl	%eax, %eax	# D.22764
	je	.L620	#,
	.loc 1 2986 0
	movq	-176(%rbp), %rax	# tmpstr, tmp390
	movq	(%rax), %rax	# tmpstr_110->sv_any, D.22766
	movq	(%rax), %rdx	# MEM[(struct XRV *)_113].xrv_rv, D.22771
	movq	(%rbx), %rax	# sv_27(D)->sv_any, D.22766
	movq	(%rax), %rax	# MEM[(struct XRV *)_115].xrv_rv, D.22771
	cmpq	%rax, %rdx	# D.22771, D.22771
	je	.L619	#,
.L620:
.LBB20:
	.loc 1 2987 0
	movq	-176(%rbp), %rax	# tmpstr, tmp391
	movl	12(%rax), %eax	# tmpstr_110->sv_flags, D.22764
	andl	$262144, %eax	#, D.22764
	testl	%eax, %eax	# D.22764
	je	.L621	#,
	.loc 1 2987 0 is_stmt 0 discriminator 1
	movq	-176(%rbp), %rax	# tmpstr, tmp392
	movq	(%rax), %rax	# tmpstr_110->sv_any, D.22766
	movq	8(%rax), %rdx	# MEM[(struct XPV *)_119].xpv_cur, D.22767
	movq	-280(%rbp), %rax	# lp, tmp393
	movq	%rdx, (%rax)	# D.22767, *lp_28(D)
	movq	-176(%rbp), %rax	# tmpstr, tmp394
	movq	(%rax), %rax	# tmpstr_110->sv_any, D.22766
	movq	(%rax), %rax	# MEM[(struct XPV *)_121].xpv_pv, iftmp.290
	jmp	.L622	#
.L621:
	.loc 1 2987 0 discriminator 2
	movq	-280(%rbp), %rcx	# lp, tmp395
	movq	-176(%rbp), %rax	# tmpstr, tmp396
	movl	$2, %edx	#,
	movq	%rcx, %rsi	# tmp395,
	movq	%rax, %rdi	# tmp396,
	call	Perl_sv_2pv_flags	#
.L622:
	.loc 1 2987 0 discriminator 3
	movq	%rax, -168(%rbp)	# iftmp.290, pv
	.loc 1 2988 0 is_stmt 1 discriminator 3
	movq	-176(%rbp), %rax	# tmpstr, tmp397
	movl	12(%rax), %eax	# tmpstr_110->sv_flags, D.22764
	andl	$536870912, %eax	#, D.22764
	testl	%eax, %eax	# D.22764
	je	.L623	#,
	.loc 1 2989 0
	movl	12(%rbx), %eax	# sv_27(D)->sv_flags, D.22764
	orl	$536870912, %eax	#, D.22764
	movl	%eax, 12(%rbx)	# D.22764, sv_27(D)->sv_flags
	jmp	.L624	#
.L623:
	.loc 1 2991 0
	movl	12(%rbx), %eax	# sv_27(D)->sv_flags, D.22764
	andl	$-536870913, %eax	#, D.22764
	movl	%eax, 12(%rbx)	# D.22764, sv_27(D)->sv_flags
.L624:
	.loc 1 2992 0
	movq	-168(%rbp), %rax	# pv, D.22763
	jmp	.L701	#
.L619:
.LBE20:
	.loc 1 2994 0
	movq	%rbx, -160(%rbp)	# sv, origsv
	.loc 1 2995 0
	movq	(%rbx), %rax	# sv_27(D)->sv_any, D.22766
	movq	(%rax), %rbx	# MEM[(struct XRV *)_133].xrv_rv, sv
	.loc 1 2996 0
	testq	%rbx, %rbx	# sv
	jne	.L625	#,
	.loc 1 2997 0
	movl	$.LC17, %r12d	#, s
	.loc 1 3120 0
	movq	%r12, %rdi	# s,
	call	strlen	#
	movq	-280(%rbp), %rdx	# lp, tmp459
	movq	%rax, (%rdx)	# D.22767, *lp_28(D)
	.loc 1 3121 0
	movq	%r12, %rax	# s, D.22763
	jmp	.L701	#
.L625:
.LBB21:
	.loc 1 3001 0
	movl	12(%rbx), %eax	# sv_134->sv_flags, D.22764
	movzbl	%al, %eax	# D.22764, D.22764
	cmpl	$15, %eax	#, D.22764
	ja	.L627	#,
	movl	%eax, %eax	# D.22764, tmp398
	movq	.L629(,%rax,8), %rax	#, tmp399
	jmp	*%rax	# tmp399
	.section	.rodata
	.align 8
	.align 4
.L629:
	.quad	.L628
	.quad	.L628
	.quad	.L628
	.quad	.L628
	.quad	.L628
	.quad	.L628
	.quad	.L628
	.quad	.L630
	.quad	.L628
	.quad	.L631
	.quad	.L632
	.quad	.L633
	.quad	.L634
	.quad	.L635
	.quad	.L636
	.quad	.L637
	.text
.L630:
	.loc 1 3003 0
	movl	12(%rbx), %eax	# sv_134->sv_flags, D.22764
	andl	$118484992, %eax	#, D.22764
	cmpl	$20480, %eax	#, D.22764
	jne	.L628	#,
	.loc 1 3006 0
	movl	$114, %esi	#,
	movq	%rbx, %rdi	# sv,
	call	Perl_mg_find	#
	movq	%rax, -152(%rbp)	# tmp400, mg
	cmpq	$0, -152(%rbp)	#, mg
	je	.L628	#,
.LBB22:
	.loc 1 3007 0
	movq	-152(%rbp), %rax	# mg, tmp401
	movq	24(%rax), %rax	# mg_142->mg_obj, tmp402
	movq	%rax, -144(%rbp)	# tmp402, re
	.loc 1 3009 0
	movq	-152(%rbp), %rax	# mg, tmp403
	movq	32(%rax), %rax	# mg_142->mg_ptr, D.22763
	testq	%rax, %rax	# D.22763
	jne	.L638	#,
.LBB23:
	.loc 1 3010 0
	movq	$.LC18, -224(%rbp)	#, fptr
	.loc 1 3013 0
	movl	$0, -260(%rbp)	#, left
	.loc 1 3014 0
	movl	$4, -256(%rbp)	#, right
	.loc 1 3015 0
	movb	$0, -265(%rbp)	#, need_newline
	.loc 1 3016 0
	movq	-144(%rbp), %rax	# re, tmp404
	movl	92(%rax), %eax	# re_143->reganch, D.22764
	andl	$63488, %eax	#, D.22764
	shrl	$12, %eax	#, D.22764
	movw	%ax, -262(%rbp)	# D.22764, reganch
	.loc 1 3018 0
	jmp	.L639	#
.L642:
	.loc 1 3019 0
	movzwl	-262(%rbp), %eax	# reganch, D.22765
	andl	$1, %eax	#, D.22765
	testl	%eax, %eax	# D.22765
	je	.L640	#,
	.loc 1 3020 0
	movl	-260(%rbp), %eax	# left, left.291
	leal	1(%rax), %edx	#, tmp405
	movl	%edx, -260(%rbp)	# tmp405, left
	cltq
	movzbl	-264(%rbp), %edx	# ch, tmp407
	movb	%dl, -128(%rbp,%rax)	# tmp407, reflags
	jmp	.L641	#
.L640:
	.loc 1 3023 0
	movl	-256(%rbp), %eax	# right, right.292
	leal	-1(%rax), %edx	#, tmp408
	movl	%edx, -256(%rbp)	# tmp408, right
	cltq
	movzbl	-264(%rbp), %edx	# ch, tmp410
	movb	%dl, -128(%rbp,%rax)	# tmp410, reflags
.L641:
	.loc 1 3025 0
	shrw	-262(%rbp)	# reganch
.L639:
	.loc 1 3018 0 discriminator 1
	movq	-224(%rbp), %rax	# fptr, fptr.293
	leaq	1(%rax), %rdx	#, tmp411
	movq	%rdx, -224(%rbp)	# tmp411, fptr
	movzbl	(%rax), %eax	# *fptr.293_153, tmp412
	movb	%al, -264(%rbp)	# tmp412, ch
	cmpb	$0, -264(%rbp)	#, ch
	jne	.L642	#,
	.loc 1 3027 0
	cmpl	$4, -260(%rbp)	#, left
	je	.L643	#,
	.loc 1 3028 0
	movl	-260(%rbp), %eax	# left, tmp414
	cltq
	movb	$45, -128(%rbp,%rax)	#, reflags
	.loc 1 3029 0
	movl	$5, -260(%rbp)	#, left
.L643:
	.loc 1 3032 0
	movq	-144(%rbp), %rax	# re, tmp415
	movl	76(%rax), %eax	# re_143->prelen, D.22765
	leal	4(%rax), %edx	#, D.22765
	movl	-260(%rbp), %eax	# left, tmp416
	addl	%eax, %edx	# tmp416, D.22765
	movq	-152(%rbp), %rax	# mg, tmp417
	movl	%edx, 40(%rax)	# D.22765, mg_142->mg_len
	.loc 1 3048 0
	movq	-144(%rbp), %rax	# re, tmp418
	movl	92(%rax), %eax	# re_143->reganch, D.22764
	andl	$32768, %eax	#, D.22764
	testl	%eax, %eax	# D.22764
	je	.L644	#,
.LBB24:
	.loc 1 3050 0
	movq	-144(%rbp), %rax	# re, tmp419
	movq	32(%rax), %rdx	# re_143->precomp, D.22763
	movq	-144(%rbp), %rax	# re, tmp420
	movl	76(%rax), %eax	# re_143->prelen, D.22765
	cltq
	addq	%rdx, %rax	# D.22763, tmp421
	movq	%rax, -216(%rbp)	# tmp421, endptr
	.loc 1 3051 0
	jmp	.L645	#
.L647:
.LBB25:
	.loc 1 3053 0
	movq	-216(%rbp), %rax	# endptr, endptr.294
	leaq	-1(%rax), %rdx	#, tmp422
	movq	%rdx, -216(%rbp)	# tmp422, endptr
	movzbl	(%rax), %eax	# *endptr.294_174, tmp423
	movb	%al, -263(%rbp)	# tmp423, c
	.loc 1 3054 0
	cmpb	$10, -263(%rbp)	#, c
	jne	.L646	#,
	.loc 1 3055 0
	jmp	.L644	#
.L646:
	.loc 1 3056 0
	cmpb	$35, -263(%rbp)	#, c
	jne	.L645	#,
	.loc 1 3059 0
	movq	-152(%rbp), %rax	# mg, tmp424
	movl	40(%rax), %eax	# mg_142->mg_len, D.22765
	leal	1(%rax), %edx	#, D.22765
	movq	-152(%rbp), %rax	# mg, tmp425
	movl	%edx, 40(%rax)	# D.22765, mg_142->mg_len
	.loc 1 3060 0
	movb	$1, -265(%rbp)	#, need_newline
	.loc 1 3061 0
	jmp	.L644	#
.L645:
.LBE25:
	.loc 1 3051 0 discriminator 1
	movq	-144(%rbp), %rax	# re, tmp426
	movq	32(%rax), %rax	# re_143->precomp, D.22763
	cmpq	-216(%rbp), %rax	# endptr, D.22763
	jbe	.L647	#,
.L644:
.LBE24:
	.loc 1 3066 0
	movq	-152(%rbp), %rax	# mg, tmp427
	movl	40(%rax), %eax	# mg_142->mg_len, D.22765
	leal	1(%rax), %edx	#, D.22765
	movl	-260(%rbp), %eax	# left, tmp428
	addl	%edx, %eax	# D.22765, D.22765
	cltq
	movq	%rax, %rdi	# D.22767,
	call	Perl_safesysmalloc	#
	movq	-152(%rbp), %rdx	# mg, tmp429
	movq	%rax, 32(%rdx)	# D.22766, mg_142->mg_ptr
	.loc 1 3067 0
	movq	-152(%rbp), %rax	# mg, tmp430
	movq	32(%rax), %rax	# mg_142->mg_ptr, D.22763
	movl	$2, %edx	#,
	movl	$.LC19, %esi	#,
	movq	%rax, %rdi	# D.22763,
	call	memcpy	#
	.loc 1 3068 0
	movl	-260(%rbp), %eax	# left, tmp431
	movslq	%eax, %rdx	# tmp431, D.22767
	movq	-152(%rbp), %rax	# mg, tmp432
	movq	32(%rax), %rax	# mg_142->mg_ptr, D.22763
	leaq	2(%rax), %rcx	#, D.22763
	leaq	-128(%rbp), %rax	#, tmp433
	movq	%rax, %rsi	# tmp433,
	movq	%rcx, %rdi	# D.22763,
	call	memcpy	#
	.loc 1 3069 0
	movq	-152(%rbp), %rax	# mg, tmp434
	movq	32(%rax), %rax	# mg_142->mg_ptr, D.22763
	movl	-260(%rbp), %edx	# left, tmp435
	movslq	%edx, %rdx	# tmp435, D.22773
	addq	$2, %rdx	#, D.22773
	addq	%rdx, %rax	# D.22773, D.22763
	movl	$1, %edx	#,
	movl	$.LC20, %esi	#,
	movq	%rax, %rdi	# D.22763,
	call	memcpy	#
	.loc 1 3070 0
	movq	-144(%rbp), %rax	# re, tmp436
	movl	76(%rax), %eax	# re_143->prelen, D.22765
	movslq	%eax, %rdx	# D.22765, D.22767
	movq	-144(%rbp), %rax	# re, tmp437
	movq	32(%rax), %rax	# re_143->precomp, D.22763
	movq	-152(%rbp), %rcx	# mg, tmp438
	movq	32(%rcx), %rcx	# mg_142->mg_ptr, D.22763
	movl	-260(%rbp), %esi	# left, tmp439
	movslq	%esi, %rsi	# tmp439, D.22773
	addq	$3, %rsi	#, D.22773
	addq	%rsi, %rcx	# D.22773, D.22763
	movq	%rax, %rsi	# D.22763,
	movq	%rcx, %rdi	# D.22763,
	call	memcpy	#
	.loc 1 3071 0
	cmpb	$0, -265(%rbp)	#, need_newline
	je	.L648	#,
	.loc 1 3072 0
	movq	-152(%rbp), %rax	# mg, tmp440
	movq	32(%rax), %rdx	# mg_142->mg_ptr, D.22763
	movq	-152(%rbp), %rax	# mg, tmp441
	movl	40(%rax), %eax	# mg_142->mg_len, D.22765
	cltq
	subq	$2, %rax	#, D.22773
	addq	%rdx, %rax	# D.22763, D.22763
	movb	$10, (%rax)	#, *_204
.L648:
	.loc 1 3073 0
	movq	-152(%rbp), %rax	# mg, tmp442
	movq	32(%rax), %rdx	# mg_142->mg_ptr, D.22763
	movq	-152(%rbp), %rax	# mg, tmp443
	movl	40(%rax), %eax	# mg_142->mg_len, D.22765
	cltq
	subq	$1, %rax	#, D.22773
	addq	%rdx, %rax	# D.22763, D.22763
	movb	$41, (%rax)	#, *_209
	.loc 1 3074 0
	movq	-152(%rbp), %rax	# mg, tmp444
	movq	32(%rax), %rdx	# mg_142->mg_ptr, D.22763
	movq	-152(%rbp), %rax	# mg, tmp445
	movl	40(%rax), %eax	# mg_142->mg_len, D.22765
	cltq
	addq	%rdx, %rax	# D.22763, D.22763
	movb	$0, (%rax)	#, *_213
.L638:
.LBE23:
	.loc 1 3076 0
	movq	-144(%rbp), %rax	# re, tmp446
	movzwl	98(%rax), %eax	# re_143->program[0].next_off, D.22774
	movzwl	%ax, %edx	# D.22774, D.22765
	movl	PL_reginterp_cnt(%rip), %eax	# PL_reginterp_cnt, PL_reginterp_cnt.295
	addl	%edx, %eax	# D.22765, PL_reginterp_cnt.296
	movl	%eax, PL_reginterp_cnt(%rip)	# PL_reginterp_cnt.296, PL_reginterp_cnt
	.loc 1 3078 0
	movq	-144(%rbp), %rax	# re, tmp447
	movl	92(%rax), %eax	# re_143->reganch, D.22764
	andl	$65536, %eax	#, D.22764
	testl	%eax, %eax	# D.22764
	je	.L649	#,
	.loc 1 3079 0
	movq	-160(%rbp), %rax	# origsv, tmp448
	movl	12(%rax), %eax	# origsv_132->sv_flags, D.22764
	orl	$536870912, %eax	#, D.22764
	movl	%eax, %edx	# D.22764, D.22764
	movq	-160(%rbp), %rax	# origsv, tmp449
	movl	%edx, 12(%rax)	# D.22764, origsv_132->sv_flags
	jmp	.L650	#
.L649:
	.loc 1 3081 0
	movq	-160(%rbp), %rax	# origsv, tmp450
	movl	12(%rax), %eax	# origsv_132->sv_flags, D.22764
	andl	$-536870913, %eax	#, D.22764
	movl	%eax, %edx	# D.22764, D.22764
	movq	-160(%rbp), %rax	# origsv, tmp451
	movl	%edx, 12(%rax)	# D.22764, origsv_132->sv_flags
.L650:
	.loc 1 3082 0
	movq	-152(%rbp), %rax	# mg, tmp452
	movl	40(%rax), %eax	# mg_142->mg_len, D.22765
	movslq	%eax, %rdx	# D.22765, D.22767
	movq	-280(%rbp), %rax	# lp, tmp453
	movq	%rdx, (%rax)	# D.22767, *lp_28(D)
	.loc 1 3083 0
	movq	-152(%rbp), %rax	# mg, tmp454
	movq	32(%rax), %rax	# mg_142->mg_ptr, D.22763
	jmp	.L701	#
.L628:
.LBE22:
	.loc 1 3093 0
	movl	12(%rbx), %eax	# sv_134->sv_flags, D.22764
	andl	$524288, %eax	#, D.22764
	testl	%eax, %eax	# D.22764
	je	.L651	#,
	.loc 1 3094 0
	movl	$.LC21, %r12d	#, s
	.loc 1 3096 0
	jmp	.L653	#
.L651:
	movl	$.LC22, %r12d	#, s
	jmp	.L653	#
.L631:
	.loc 1 3097 0
	movl	12(%rbx), %eax	# sv_134->sv_flags, D.22764
	andl	$524288, %eax	#, D.22764
	.loc 1 3100 0
	testl	%eax, %eax	# D.22764
	jne	.L654	#,
	.loc 1 3100 0 is_stmt 0 discriminator 1
	movq	(%rbx), %rax	# sv_134->sv_any, D.22766
	movzbl	80(%rax), %eax	# MEM[(struct XPVLV *)_233].xlv_type, D.22772
	.loc 1 3101 0 is_stmt 1 discriminator 1
	cmpb	$116, %al	#, D.22772
	je	.L655	#,
	.loc 1 3100 0
	movq	(%rbx), %rax	# sv_134->sv_any, D.22766
	movzbl	80(%rax), %eax	# MEM[(struct XPVLV *)_235].xlv_type, D.22772
	cmpb	$84, %al	#, D.22772
	jne	.L656	#,
.L655:
	.loc 1 3101 0 discriminator 1
	movl	$.LC22, %eax	#, iftmp.298
	jmp	.L657	#
.L656:
	.loc 1 3101 0 is_stmt 0
	movl	$.LC23, %eax	#, iftmp.298
.L657:
	jmp	.L658	#
.L654:
	.loc 1 3100 0 is_stmt 1 discriminator 2
	movl	$.LC21, %eax	#, iftmp.297
.L658:
	.loc 1 3097 0
	movq	%rax, %r12	# iftmp.297, s
	.loc 1 3101 0
	jmp	.L653	#
.L632:
	.loc 1 3102 0
	movl	$.LC24, %r12d	#, s
	jmp	.L653	#
.L633:
	.loc 1 3103 0
	movl	$.LC25, %r12d	#, s
	jmp	.L653	#
.L634:
	.loc 1 3104 0
	movl	$.LC26, %r12d	#, s
	jmp	.L653	#
.L635:
	.loc 1 3105 0
	movl	$.LC27, %r12d	#, s
	jmp	.L653	#
.L636:
	.loc 1 3106 0
	movl	$.LC28, %r12d	#, s
	jmp	.L653	#
.L637:
	.loc 1 3107 0
	movl	$.LC29, %r12d	#, s
	jmp	.L653	#
.L627:
	.loc 1 3108 0
	movl	$.LC30, %r12d	#, s
	nop
.L653:
	.loc 1 3110 0
	movl	$0, %edi	#,
	call	Perl_newSV	#
	movq	%rax, -232(%rbp)	# tmp455, tsv
	.loc 1 3111 0
	movl	12(%rbx), %eax	# sv_134->sv_flags, D.22764
	andl	$4096, %eax	#, D.22764
	testl	%eax, %eax	# D.22764
	je	.L659	#,
.LBB26:
	.loc 1 3112 0
	movq	(%rbx), %rax	# sv_134->sv_any, D.22766
	movq	48(%rax), %rax	# MEM[(struct XPVMG *)_252].xmg_stash, D.22775
	movq	(%rax), %rax	# _253->sv_any, D.22776
	movq	80(%rax), %rax	# _254->xhv_name, tmp456
	movq	%rax, -136(%rbp)	# tmp456, name
	.loc 1 3113 0
	movq	%rbx, %rdx	# sv, sv.299
	cmpq	$0, -136(%rbp)	#, name
	je	.L660	#,
	.loc 1 3113 0 is_stmt 0 discriminator 1
	movq	-136(%rbp), %rax	# name, iftmp.300
	jmp	.L661	#
.L660:
	.loc 1 3113 0 discriminator 2
	movl	$.LC31, %eax	#, iftmp.300
.L661:
	.loc 1 3113 0 discriminator 1
	movq	-232(%rbp), %rdi	# tsv, tmp457
	movq	%rdx, %r8	# sv.299,
	movq	%r12, %rcx	# s,
	movq	%rax, %rdx	# iftmp.300,
	movl	$.LC32, %esi	#,
	movl	$0, %eax	#,
	call	Perl_sv_setpvf	#
.LBE26:
	.loc 1 3118 0 is_stmt 1 discriminator 1
	jmp	.L663	#
.L659:
	.loc 1 3117 0
	movq	%rbx, %rdx	# sv, sv.301
	movq	-232(%rbp), %rax	# tsv, tmp458
	movq	%rdx, %rcx	# sv.301,
	movq	%r12, %rdx	# s,
	movl	$.LC33, %esi	#,
	movq	%rax, %rdi	# tmp458,
	movl	$0, %eax	#,
	call	Perl_sv_setpvf	#
	.loc 1 3118 0
	jmp	.L663	#
.L618:
.LBE21:
.LBE19:
	.loc 1 3123 0
	movl	12(%rbx), %eax	# sv_27(D)->sv_flags, D.22764
	andl	$8388608, %eax	#, D.22764
	testl	%eax, %eax	# D.22764
	je	.L617	#,
	.loc 1 3123 0 is_stmt 0 discriminator 1
	movl	12(%rbx), %eax	# sv_27(D)->sv_flags, D.22764
	andl	$118423552, %eax	#, D.22764
	testl	%eax, %eax	# D.22764
	jne	.L617	#,
	.loc 1 3124 0 is_stmt 1
	movq	PL_curcop(%rip), %rax	# PL_curcop, PL_curcop.302
	movq	80(%rax), %rax	# PL_curcop.302_264->cop_warnings, D.22771
	testq	%rax, %rax	# D.22771
	je	.L664	#,
	.loc 1 3124 0 is_stmt 0 discriminator 1
	movq	PL_curcop(%rip), %rax	# PL_curcop, PL_curcop.303
	movq	80(%rax), %rax	# PL_curcop.303_266->cop_warnings, D.22771
	cmpq	$32, %rax	#, D.22771
	je	.L664	#,
	movq	PL_curcop(%rip), %rax	# PL_curcop, PL_curcop.304
	movq	80(%rax), %rax	# PL_curcop.304_268->cop_warnings, D.22771
	cmpq	$16, %rax	#, D.22771
	je	.L665	#,
	movq	PL_curcop(%rip), %rax	# PL_curcop, PL_curcop.305
	movq	80(%rax), %rax	# PL_curcop.305_270->cop_warnings, D.22771
	movq	(%rax), %rax	# _271->sv_any, D.22766
	movq	(%rax), %rax	# MEM[(struct XPV *)_272].xpv_pv, D.22763
	addq	$10, %rax	#, D.22763
	movzbl	(%rax), %eax	# *_274, D.22772
	movsbl	%al, %eax	# D.22772, D.22765
	andl	$4, %eax	#, D.22765
	testl	%eax, %eax	# D.22765
	jne	.L665	#,
.L664:
	.loc 1 3124 0 discriminator 2
	movq	PL_curcop(%rip), %rax	# PL_curcop, PL_curcop.306
	movq	80(%rax), %rax	# PL_curcop.306_278->cop_warnings, D.22771
	testq	%rax, %rax	# D.22771
	jne	.L666	#,
	.loc 1 3124 0 discriminator 1
	movzbl	PL_dowarn(%rip), %eax	# PL_dowarn, PL_dowarn.307
	movzbl	%al, %eax	# PL_dowarn.307, D.22765
	andl	$1, %eax	#, D.22765
	testl	%eax, %eax	# D.22765
	je	.L666	#,
.L665:
	.loc 1 3125 0 is_stmt 1
	call	Perl_report_uninit	#
.L666:
	.loc 1 3126 0
	movq	-280(%rbp), %rax	# lp, tmp460
	movq	$0, (%rax)	#, *lp_28(D)
	.loc 1 3127 0
	movl	$.LC1, %eax	#, D.22763
	jmp	.L701	#
.L617:
	.loc 1 3130 0
	movl	12(%rbx), %eax	# sv_27(D)->sv_flags, D.22764
	andl	$65536, %eax	#, D.22764
	testl	%eax, %eax	# D.22764
	jne	.L667	#,
	.loc 1 3130 0 is_stmt 0 discriminator 1
	movl	12(%rbx), %eax	# sv_27(D)->sv_flags, D.22764
	andl	$16777216, %eax	#, D.22764
	testl	%eax, %eax	# D.22764
	je	.L668	#,
	movl	12(%rbx), %eax	# sv_27(D)->sv_flags, D.22764
	andl	$33554432, %eax	#, D.22764
	testl	%eax, %eax	# D.22764
	jne	.L668	#,
.L667:
.LBB27:
	.loc 1 3133 0 is_stmt 1
	movl	12(%rbx), %eax	# sv_27(D)->sv_flags, D.22764
	andl	$65536, %eax	#, tmp461
	movl	%eax, -248(%rbp)	# tmp461, isIOK
	.loc 1 3134 0
	movl	12(%rbx), %eax	# sv_27(D)->sv_flags, D.22764
	andl	$-2147483648, %eax	#, tmp462
	movl	%eax, -244(%rbp)	# tmp462, isUIOK
	.loc 1 3138 0
	movl	12(%rbx), %eax	# sv_27(D)->sv_flags, D.22764
	movzbl	%al, %eax	# D.22764, D.22764
	cmpl	$4, %eax	#, D.22764
	ja	.L669	#,
	.loc 1 3139 0
	movl	$5, %esi	#,
	movq	%rbx, %rdi	# sv,
	call	Perl_sv_upgrade	#
.L669:
	.loc 1 3140 0
	cmpl	$0, -244(%rbp)	#, isUIOK
	je	.L670	#,
	.loc 1 3141 0
	movq	(%rbx), %rax	# sv_27(D)->sv_any, D.22766
	movq	24(%rax), %rdx	# MEM[(struct XPVUV *)_339].xuv_uv, D.22767
	leaq	-240(%rbp), %rcx	#, tmp463
	leaq	-128(%rbp), %rax	#, tmp464
	movq	%rcx, %r8	# tmp463,
	movl	$1, %ecx	#,
	movl	$0, %esi	#,
	movq	%rax, %rdi	# tmp464,
	call	uiv_2buf	#
	movq	%rax, -208(%rbp)	# tmp465, ptr
	jmp	.L671	#
.L670:
	.loc 1 3143 0
	movq	(%rbx), %rax	# sv_27(D)->sv_any, D.22766
	movq	24(%rax), %rsi	# MEM[(struct XPVIV *)_342].xiv_iv, D.22769
	leaq	-240(%rbp), %rdx	#, tmp466
	leaq	-128(%rbp), %rax	#, tmp467
	movq	%rdx, %r8	# tmp466,
	movl	$0, %ecx	#,
	movl	$0, %edx	#,
	movq	%rax, %rdi	# tmp467,
	call	uiv_2buf	#
	movq	%rax, -208(%rbp)	# tmp468, ptr
.L671:
	.loc 1 3144 0
	movq	(%rbx), %rax	# sv_27(D)->sv_any, D.22766
	movq	16(%rax), %rdx	# MEM[(struct XPV *)_345].xpv_len, D.22767
	movq	-240(%rbp), %rax	# ebuf, ebuf.309
	movq	%rax, %rcx	# ebuf.309, ebuf.310
	movq	-208(%rbp), %rax	# ptr, ptr.311
	subq	%rax, %rcx	# ptr.311, D.22769
	movq	%rcx, %rax	# D.22769, D.22769
	addq	$1, %rax	#, D.22769
	cmpq	%rax, %rdx	# D.22767, D.22767
	jae	.L673	#,
	.loc 1 3144 0 is_stmt 0 discriminator 1
	movq	-240(%rbp), %rax	# ebuf, ebuf.312
	movq	%rax, %rdx	# ebuf.312, ebuf.313
	movq	-208(%rbp), %rax	# ptr, ptr.314
	subq	%rax, %rdx	# ptr.314, D.22769
	movq	%rdx, %rax	# D.22769, D.22769
	addq	$1, %rax	#, D.22769
	movq	%rax, %rsi	# D.22767,
	movq	%rbx, %rdi	# sv,
	call	Perl_sv_grow	#
.L673:
	.loc 1 3145 0 is_stmt 1
	movq	-240(%rbp), %rax	# ebuf, ebuf.315
	movq	%rax, %rdx	# ebuf.315, ebuf.316
	movq	-208(%rbp), %rax	# ptr, ptr.317
	subq	%rax, %rdx	# ptr.317, D.22769
	movq	%rdx, %rax	# D.22769, D.22769
	movq	%rax, %rdx	# D.22769, D.22767
	movq	(%rbx), %rax	# sv_27(D)->sv_any, D.22766
	movq	(%rax), %rax	# MEM[(struct XPV *)_367].xpv_pv, D.22763
	movq	-208(%rbp), %rcx	# ptr, tmp469
	movq	%rcx, %rsi	# tmp469,
	movq	%rax, %rdi	# D.22763,
	call	memmove	#
	.loc 1 3146 0
	movq	(%rbx), %rax	# sv_27(D)->sv_any, D.22766
	movq	-240(%rbp), %rdx	# ebuf, ebuf.318
	movq	%rdx, %rcx	# ebuf.318, ebuf.319
	movq	-208(%rbp), %rdx	# ptr, ptr.320
	subq	%rdx, %rcx	# ptr.320, D.22769
	movq	%rcx, %rdx	# D.22769, D.22769
	movq	%rdx, 8(%rax)	# D.22767, MEM[(struct XPV *)_369].xpv_cur
	.loc 1 3147 0
	movq	(%rbx), %rax	# sv_27(D)->sv_any, D.22766
	movq	(%rax), %rdx	# MEM[(struct XPV *)_375].xpv_pv, D.22763
	movq	(%rbx), %rax	# sv_27(D)->sv_any, D.22766
	movq	8(%rax), %rax	# MEM[(struct XPV *)_377].xpv_cur, D.22767
	leaq	(%rdx,%rax), %r12	#, s
	.loc 1 3148 0
	movb	$0, (%r12)	#, *s_379
	.loc 1 3149 0
	cmpl	$0, -248(%rbp)	#, isIOK
	je	.L674	#,
	.loc 1 3150 0
	movl	12(%rbx), %eax	# sv_27(D)->sv_flags, D.22764
	andl	$2097152, %eax	#, D.22764
	testl	%eax, %eax	# D.22764
	je	.L676	#,
	.loc 1 3150 0 is_stmt 0 discriminator 1
	movq	%rbx, %rdi	# sv,
	call	Perl_sv_backoff	#
	testl	%eax, %eax	# D.22765
	je	.L676	#,
	.loc 1 3150 0
	nop
.L676:
	.loc 1 3150 0 discriminator 3
	movl	12(%rbx), %eax	# sv_27(D)->sv_flags, D.22764
	orl	$16842752, %eax	#, D.22764
	movl	%eax, 12(%rbx)	# D.22764, sv_27(D)->sv_flags
	jmp	.L677	#
.L674:
	.loc 1 3152 0 is_stmt 1
	movl	12(%rbx), %eax	# sv_27(D)->sv_flags, D.22764
	andl	$2097152, %eax	#, D.22764
	testl	%eax, %eax	# D.22764
	je	.L679	#,
	.loc 1 3152 0 is_stmt 0 discriminator 1
	movq	%rbx, %rdi	# sv,
	call	Perl_sv_backoff	#
	testl	%eax, %eax	# D.22765
	je	.L679	#,
	.loc 1 3152 0
	nop
.L679:
	.loc 1 3152 0 discriminator 3
	movl	12(%rbx), %eax	# sv_27(D)->sv_flags, D.22764
	orl	$16777216, %eax	#, D.22764
	movl	%eax, 12(%rbx)	# D.22764, sv_27(D)->sv_flags
.L677:
	.loc 1 3153 0 is_stmt 1
	cmpl	$0, -244(%rbp)	#, isUIOK
	je	.L680	#,
	.loc 1 3154 0
	movl	12(%rbx), %eax	# sv_27(D)->sv_flags, D.22764
	orl	$-2147483648, %eax	#, D.22764
	movl	%eax, 12(%rbx)	# D.22764, sv_27(D)->sv_flags
.LBE27:
	.loc 1 3130 0
	jmp	.L681	#
.L680:
	jmp	.L681	#
.L668:
	.loc 1 3156 0
	movl	12(%rbx), %eax	# sv_27(D)->sv_flags, D.22764
	andl	$33554432, %eax	#, D.22764
	testl	%eax, %eax	# D.22764
	je	.L682	#,
	.loc 1 3157 0
	movl	12(%rbx), %eax	# sv_27(D)->sv_flags, D.22764
	movzbl	%al, %eax	# D.22764, D.22764
	cmpl	$5, %eax	#, D.22764
	ja	.L683	#,
	.loc 1 3158 0
	movl	$6, %esi	#,
	movq	%rbx, %rdi	# sv,
	call	Perl_sv_upgrade	#
.L683:
	.loc 1 3160 0
	movq	(%rbx), %rax	# sv_27(D)->sv_any, D.22766
	movq	16(%rax), %rax	# MEM[(struct XPV *)_294].xpv_len, D.22767
	cmpq	$34, %rax	#, D.22767
	ja	.L685	#,
	.loc 1 3160 0 is_stmt 0 discriminator 1
	movl	$35, %esi	#,
	movq	%rbx, %rdi	# sv,
	call	Perl_sv_grow	#
.L685:
	.loc 1 3161 0 is_stmt 1
	movq	(%rbx), %rax	# sv_27(D)->sv_any, D.22766
	movq	(%rax), %r12	# MEM[(struct XPV *)_299].xpv_pv, s
	.loc 1 3162 0
	call	__errno_location	#
	movl	(%rax), %eax	# *_301, tmp470
	movl	%eax, -252(%rbp)	# tmp470, olderrno
	.loc 1 3169 0
	movq	(%rbx), %rax	# sv_27(D)->sv_any, D.22766
	movq	32(%rax), %rax	# MEM[(struct XPVNV *)_303].xnv_nv, D.22770
	movq	%r12, %rsi	# s,
	movl	$15, %edi	#,
	movq	%rax, -296(%rbp)	# D.22770, %sfp
	movsd	-296(%rbp), %xmm0	# %sfp,
	call	gcvt	#
	.loc 1 3171 0
	call	__errno_location	#
	movl	-252(%rbp), %edx	# olderrno, tmp471
	movl	%edx, (%rax)	# tmp471, *_305
	.loc 1 3176 0
	jmp	.L686	#
.L687:
	.loc 1 3176 0 is_stmt 0 discriminator 2
	addq	$1, %r12	#, s
.L686:
	.loc 1 3176 0 discriminator 1
	movzbl	(%r12), %eax	# *s_3, D.22772
	testb	%al, %al	# D.22772
	jne	.L687	#,
	jmp	.L681	#
.L682:
	.loc 1 3183 0 is_stmt 1
	movq	PL_curcop(%rip), %rax	# PL_curcop, PL_curcop.324
	movq	80(%rax), %rax	# PL_curcop.324_308->cop_warnings, D.22771
	testq	%rax, %rax	# D.22771
	je	.L688	#,
	.loc 1 3183 0 is_stmt 0 discriminator 1
	movq	PL_curcop(%rip), %rax	# PL_curcop, PL_curcop.325
	movq	80(%rax), %rax	# PL_curcop.325_310->cop_warnings, D.22771
	cmpq	$32, %rax	#, D.22771
	je	.L688	#,
	movq	PL_curcop(%rip), %rax	# PL_curcop, PL_curcop.326
	movq	80(%rax), %rax	# PL_curcop.326_312->cop_warnings, D.22771
	cmpq	$16, %rax	#, D.22771
	je	.L689	#,
	movq	PL_curcop(%rip), %rax	# PL_curcop, PL_curcop.327
	movq	80(%rax), %rax	# PL_curcop.327_314->cop_warnings, D.22771
	movq	(%rax), %rax	# _315->sv_any, D.22766
	movq	(%rax), %rax	# MEM[(struct XPV *)_316].xpv_pv, D.22763
	addq	$10, %rax	#, D.22763
	movzbl	(%rax), %eax	# *_318, D.22772
	movsbl	%al, %eax	# D.22772, D.22765
	andl	$4, %eax	#, D.22765
	testl	%eax, %eax	# D.22765
	jne	.L689	#,
.L688:
	.loc 1 3183 0 discriminator 2
	movq	PL_curcop(%rip), %rax	# PL_curcop, PL_curcop.328
	movq	80(%rax), %rax	# PL_curcop.328_322->cop_warnings, D.22771
	testq	%rax, %rax	# D.22771
	jne	.L690	#,
	.loc 1 3183 0 discriminator 1
	movzbl	PL_dowarn(%rip), %eax	# PL_dowarn, PL_dowarn.329
	movzbl	%al, %eax	# PL_dowarn.329, D.22765
	andl	$1, %eax	#, D.22765
	testl	%eax, %eax	# D.22765
	je	.L690	#,
.L689:
	.loc 1 3184 0 is_stmt 1
	movl	PL_localizing(%rip), %eax	# PL_localizing, PL_localizing.330
	testl	%eax, %eax	# PL_localizing.330
	jne	.L690	#,
	.loc 1 3184 0 is_stmt 0 discriminator 1
	movl	12(%rbx), %eax	# sv_27(D)->sv_flags, D.22764
	andl	$512, %eax	#, D.22764
	testl	%eax, %eax	# D.22764
	jne	.L690	#,
	.loc 1 3185 0 is_stmt 1
	call	Perl_report_uninit	#
.L690:
	.loc 1 3186 0
	movq	-280(%rbp), %rax	# lp, tmp472
	movq	$0, (%rax)	#, *lp_28(D)
	.loc 1 3187 0
	movl	12(%rbx), %eax	# sv_27(D)->sv_flags, D.22764
	movzbl	%al, %eax	# D.22764, D.22764
	cmpl	$3, %eax	#, D.22764
	ja	.L691	#,
	.loc 1 3189 0
	movl	$4, %esi	#,
	movq	%rbx, %rdi	# sv,
	call	Perl_sv_upgrade	#
.L691:
	.loc 1 3190 0
	movl	$.LC1, %eax	#, D.22763
	jmp	.L701	#
.L681:
	.loc 1 3192 0
	movq	%r12, %rdx	# s, s.331
	movq	(%rbx), %rax	# sv_27(D)->sv_any, D.22766
	movq	(%rax), %rax	# MEM[(struct XPV *)_397].xpv_pv, D.22763
	subq	%rax, %rdx	# D.22769, D.22769
	movq	%rdx, %rax	# D.22769, D.22769
	movq	%rax, %rdx	# D.22769, D.22767
	movq	-280(%rbp), %rax	# lp, tmp473
	movq	%rdx, (%rax)	# D.22767, *lp_28(D)
	.loc 1 3193 0
	movq	(%rbx), %rax	# sv_27(D)->sv_any, D.22766
	movq	-280(%rbp), %rdx	# lp, tmp474
	movq	(%rdx), %rdx	# *lp_28(D), D.22767
	movq	%rdx, 8(%rax)	# D.22767, MEM[(struct XPV *)_402].xpv_cur
	.loc 1 3194 0
	movl	12(%rbx), %eax	# sv_27(D)->sv_flags, D.22764
	orl	$67371008, %eax	#, D.22764
	movl	%eax, 12(%rbx)	# D.22764, sv_27(D)->sv_flags
	.loc 1 3197 0
	movq	(%rbx), %rax	# sv_27(D)->sv_any, D.22766
	movq	(%rax), %rax	# MEM[(struct XPV *)_406].xpv_pv, D.22763
	jmp	.L701	#
.L612:
	.loc 1 3200 0
	movl	12(%rbx), %eax	# sv_27(D)->sv_flags, D.22764
	andl	$524288, %eax	#, D.22764
	testl	%eax, %eax	# D.22764
	je	.L692	#,
.L663:
	.loc 1 3204 0
	cmpq	$0, -232(%rbp)	#, tsv
	jne	.L693	#,
	.loc 1 3205 0
	movq	-184(%rbp), %rax	# tmpbuf, tmp475
	movl	$0, %esi	#,
	movq	%rax, %rdi	# tmp475,
	call	Perl_newSVpv	#
	movq	%rax, -232(%rbp)	# tmp476, tsv
.L693:
	.loc 1 3206 0
	movq	-232(%rbp), %rax	# tsv, tmp477
	movq	%rax, %rdi	# tmp477,
	call	Perl_sv_2mortal	#
	.loc 1 3207 0
	movq	-232(%rbp), %rax	# tsv, tmp478
	movq	(%rax), %rax	# tsv_7->sv_any, D.22766
	movq	8(%rax), %rdx	# MEM[(struct XPV *)_409].xpv_cur, D.22767
	movq	-280(%rbp), %rax	# lp, tmp479
	movq	%rdx, (%rax)	# D.22767, *lp_28(D)
	.loc 1 3208 0
	movq	-232(%rbp), %rax	# tsv, tmp480
	movq	(%rax), %rax	# tsv_7->sv_any, D.22766
	movq	(%rax), %rax	# MEM[(struct XPV *)_411].xpv_pv, D.22763
	jmp	.L701	#
.L692:
.LBB28:
	.loc 1 3214 0
	cmpq	$0, -232(%rbp)	#, tsv
	je	.L694	#,
	.loc 1 3215 0
	movq	-232(%rbp), %rax	# tsv, tmp481
	movq	%rax, %rdi	# tmp481,
	call	Perl_sv_2mortal	#
	.loc 1 3216 0
	movq	-232(%rbp), %rax	# tsv, tmp482
	movq	(%rax), %rax	# tsv_5->sv_any, D.22766
	movq	(%rax), %rax	# MEM[(struct XPV *)_81].xpv_pv, tmp483
	movq	%rax, -192(%rbp)	# tmp483, t
	.loc 1 3217 0
	movq	-232(%rbp), %rax	# tsv, tmp484
	movq	(%rax), %rax	# tsv_5->sv_any, D.22766
	movq	8(%rax), %rax	# MEM[(struct XPV *)_83].xpv_cur, tmp485
	movq	%rax, -200(%rbp)	# tmp485, len
	jmp	.L695	#
.L694:
	.loc 1 3220 0
	movq	-184(%rbp), %rax	# tmpbuf, tmp486
	movq	%rax, -192(%rbp)	# tmp486, t
	.loc 1 3221 0
	movq	-184(%rbp), %rax	# tmpbuf, tmp487
	movq	%rax, %rdi	# tmp487,
	call	strlen	#
	movq	%rax, -200(%rbp)	# tmp488, len
.L695:
	.loc 1 3229 0
	movl	12(%rbx), %eax	# sv_27(D)->sv_flags, D.22764
	movzbl	%al, %eax	# D.22764, D.22764
	cmpl	$3, %eax	#, D.22764
	ja	.L696	#,
	.loc 1 3229 0 is_stmt 0 discriminator 2
	movl	$4, %esi	#,
	movq	%rbx, %rdi	# sv,
	call	Perl_sv_upgrade	#
	testb	%al, %al	# D.22772
	je	.L698	#,
.L696:
	.loc 1 3229 0 discriminator 1
	nop
.L698:
	.loc 1 3230 0 is_stmt 1
	movq	-280(%rbp), %rax	# lp, tmp489
	movq	-200(%rbp), %rdx	# len, tmp490
	movq	%rdx, (%rax)	# tmp490, *lp_28(D)
	.loc 1 3231 0
	movq	(%rbx), %rax	# sv_27(D)->sv_any, D.22766
	movq	16(%rax), %rax	# MEM[(struct XPV *)_92].xpv_len, D.22767
	movq	-200(%rbp), %rdx	# len, tmp491
	addq	$1, %rdx	#, D.22767
	cmpq	%rdx, %rax	# D.22767, D.22767
	jae	.L699	#,
	.loc 1 3231 0 is_stmt 0 discriminator 1
	movq	-200(%rbp), %rax	# len, tmp492
	addq	$1, %rax	#, D.22767
	movq	%rax, %rsi	# D.22767,
	movq	%rbx, %rdi	# sv,
	call	Perl_sv_grow	#
	jmp	.L700	#
.L699:
	.loc 1 3231 0 discriminator 2
	movq	(%rbx), %rax	# sv_27(D)->sv_any, D.22766
	movq	(%rax), %rax	# MEM[(struct XPV *)_97].xpv_pv, iftmp.333
.L700:
	.loc 1 3231 0 discriminator 3
	movq	%rax, %r12	# iftmp.333, s
	.loc 1 3232 0 is_stmt 1 discriminator 3
	movq	(%rbx), %rax	# sv_27(D)->sv_any, D.22766
	movq	-200(%rbp), %rdx	# len, tmp493
	movq	%rdx, 8(%rax)	# tmp493, MEM[(struct XPV *)_100].xpv_cur
	.loc 1 3233 0 discriminator 3
	movl	12(%rbx), %eax	# sv_27(D)->sv_flags, D.22764
	orl	$67108864, %eax	#, D.22764
	movl	%eax, 12(%rbx)	# D.22764, sv_27(D)->sv_flags
	.loc 1 3234 0 discriminator 3
	movq	-192(%rbp), %rax	# t, tmp494
	movq	%rax, %rsi	# tmp494,
	movq	%r12, %rdi	# s,
	call	strcpy	#
.L701:
.LBE28:
	.loc 1 3236 0
	movq	-24(%rbp), %rcx	# D.22779, tmp497
	xorq	%fs:40, %rcx	#, tmp497
	je	.L702	#,
	call	__stack_chk_fail	#
.L702:
	addq	$288, %rsp	#,
	popq	%rbx	#
	popq	%r12	#
	popq	%rbp	#
	.cfi_def_cfa 7, 8
	ret
	.cfi_endproc
.LFE69:
	.size	Perl_sv_2pv_flags, .-Perl_sv_2pv_flags
	.globl	Perl_sv_copypv
	.type	Perl_sv_copypv, @function
Perl_sv_copypv:
.LFB70:
	.loc 1 3254 0
	.cfi_startproc
	pushq	%rbp	#
	.cfi_def_cfa_offset 16
	.cfi_offset 6, -16
	movq	%rsp, %rbp	#,
	.cfi_def_cfa_register 6
	pushq	%rbx	#
	subq	$40, %rsp	#,
	.cfi_offset 3, -24
	movq	%rdi, -40(%rbp)	# dsv, dsv
	movq	%rsi, %rbx	# ssv, ssv
	.loc 1 3257 0
	movl	12(%rbx), %eax	# ssv_2(D)->sv_flags, D.22799
	andl	$262144, %eax	#, D.22799
