	.file	"taint.c"
# GNU C (Ubuntu/Linaro 4.8.1-10ubuntu9) version 4.8.1 (x86_64-linux-gnu)
#	compiled by GNU C version 4.8.1, GMP version 5.1.2, MPFR version 3.1.1-p2, MPC version 1.0.1
# GGC heuristics: --param ggc-min-expand=100 --param ggc-min-heapsize=131072
# options passed:  -imultiarch x86_64-linux-gnu -D SPEC_CPU -D NDEBUG
# -D PERL_CORE -D SPEC_CPU_LP64 -D SPEC_CPU_LINUX_X64 taint.c
# -mtune=generic -march=x86-64 -g -fverbose-asm -fno-strict-aliasing
# -fstack-protector -Wformat -Wformat-security
# options enabled:  -faggressive-loop-optimizations
# -fasynchronous-unwind-tables -fauto-inc-dec -fbranch-count-reg -fcommon
# -fdelete-null-pointer-checks -fdwarf2-cfi-asm -fearly-inlining
# -feliminate-unused-debug-types -ffunction-cse -fgcse-lm -fgnu-runtime
# -fident -finline-atomics -fira-hoist-pressure -fira-share-save-slots
# -fira-share-spill-slots -fivopts -fkeep-static-consts
# -fleading-underscore -fmath-errno -fmerge-debug-strings
# -fmove-loop-invariants -fpeephole -fprefetch-loop-arrays
# -freg-struct-return -fsched-critical-path-heuristic
# -fsched-dep-count-heuristic -fsched-group-heuristic -fsched-interblock
# -fsched-last-insn-heuristic -fsched-rank-heuristic -fsched-spec
# -fsched-spec-insn-heuristic -fsched-stalled-insns-dep -fshow-column
# -fsigned-zeros -fsplit-ivs-in-unroller -fstack-protector
# -fstrict-volatile-bitfields -fsync-libcalls -ftrapping-math
# -ftree-coalesce-vars -ftree-cselim -ftree-forwprop -ftree-loop-if-convert
# -ftree-loop-im -ftree-loop-ivcanon -ftree-loop-optimize
# -ftree-parallelize-loops= -ftree-phiprop -ftree-pta -ftree-reassoc
# -ftree-scev-cprop -ftree-slp-vectorize -ftree-vect-loop-version
# -funit-at-a-time -funwind-tables -fverbose-asm -fzero-initialized-in-bss
# -m128bit-long-double -m64 -m80387 -maccumulate-outgoing-args
# -malign-stringops -mfancy-math-387 -mfp-ret-in-387 -mfxsr -mglibc
# -mieee-fp -mlong-double-80 -mmmx -mno-sse4 -mpush-args -mred-zone -msse
# -msse2 -mtls-direct-seg-refs

	.text
.Ltext0:
	.section	.rodata
.LC0:
	.string	" while running setuid"
.LC1:
	.string	" while running setgid"
.LC2:
	.string	" while running with -t switch"
.LC3:
	.string	" while running with -T switch"
	.text
	.globl	Perl_taint_proper
	.type	Perl_taint_proper, @function
Perl_taint_proper:
.LFB2:
	.file 1 "taint.c"
	.loc 1 26 0
	.cfi_startproc
	pushq	%rbp	#
	.cfi_def_cfa_offset 16
	.cfi_offset 6, -16
	movq	%rsp, %rbp	#,
	.cfi_def_cfa_register 6
	subq	$32, %rsp	#,
	movq	%rdi, -24(%rbp)	# f, f
	movq	%rsi, -32(%rbp)	# s, s
	.loc 1 51 0
	movzbl	PL_tainted(%rip), %eax	# PL_tainted, PL_tainted.0
	testb	%al, %al	# PL_tainted.0
	je	.L1	#,
	.loc 1 52 0
	cmpq	$0, -24(%rbp)	#, f
	jne	.L3	#,
	.loc 1 53 0
	movq	$PL_no_security, -24(%rbp)	#, f
.L3:
	.loc 1 54 0
	movl	PL_euid(%rip), %edx	# PL_euid, PL_euid.1
	movl	PL_uid(%rip), %eax	# PL_uid, PL_uid.2
	cmpl	%eax, %edx	# PL_uid.2, PL_euid.1
	je	.L4	#,
	.loc 1 55 0
	movq	$.LC0, -8(%rbp)	#, ug
	jmp	.L5	#
.L4:
	.loc 1 56 0
	movl	PL_egid(%rip), %edx	# PL_egid, PL_egid.3
	movl	PL_gid(%rip), %eax	# PL_gid, PL_gid.4
	cmpl	%eax, %edx	# PL_gid.4, PL_egid.3
	je	.L6	#,
	.loc 1 57 0
	movq	$.LC1, -8(%rbp)	#, ug
	jmp	.L5	#
.L6:
	.loc 1 58 0
	movzbl	PL_taint_warn(%rip), %eax	# PL_taint_warn, PL_taint_warn.5
	testb	%al, %al	# PL_taint_warn.5
	je	.L7	#,
	.loc 1 59 0
	movq	$.LC2, -8(%rbp)	#, ug
	jmp	.L5	#
.L7:
	.loc 1 61 0
	movq	$.LC3, -8(%rbp)	#, ug
.L5:
	.loc 1 62 0
	movzbl	PL_unsafe(%rip), %eax	# PL_unsafe, PL_unsafe.6
	testb	%al, %al	# PL_unsafe.6
	jne	.L8	#,
	.loc 1 62 0 is_stmt 0 discriminator 1
	movzbl	PL_taint_warn(%rip), %eax	# PL_taint_warn, PL_taint_warn.7
	testb	%al, %al	# PL_taint_warn.7
	je	.L9	#,
.L8:
	.loc 1 63 0 is_stmt 1
	movq	PL_curcop(%rip), %rax	# PL_curcop, PL_curcop.8
	movq	80(%rax), %rax	# PL_curcop.8_18->cop_warnings, D.10560
	testq	%rax, %rax	# D.10560
	je	.L10	#,
	.loc 1 63 0 is_stmt 0 discriminator 1
	movq	PL_curcop(%rip), %rax	# PL_curcop, PL_curcop.9
	movq	80(%rax), %rax	# PL_curcop.9_20->cop_warnings, D.10560
	cmpq	$32, %rax	#, D.10560
	je	.L10	#,
	movq	PL_curcop(%rip), %rax	# PL_curcop, PL_curcop.10
	movq	80(%rax), %rax	# PL_curcop.10_22->cop_warnings, D.10560
	cmpq	$16, %rax	#, D.10560
	je	.L11	#,
	movq	PL_curcop(%rip), %rax	# PL_curcop, PL_curcop.11
	movq	80(%rax), %rax	# PL_curcop.11_24->cop_warnings, D.10560
	movq	(%rax), %rax	# _25->sv_any, D.10561
	movq	(%rax), %rax	# MEM[(struct XPV *)_26].xpv_pv, D.10562
	addq	$9, %rax	#, D.10562
	movzbl	(%rax), %eax	# *_28, D.10563
	movsbl	%al, %eax	# D.10563, D.10564
	andl	$64, %eax	#, D.10564
	testl	%eax, %eax	# D.10564
	jne	.L11	#,
.L10:
	.loc 1 63 0 discriminator 2
	movq	PL_curcop(%rip), %rax	# PL_curcop, PL_curcop.12
	movq	80(%rax), %rax	# PL_curcop.12_32->cop_warnings, D.10560
	testq	%rax, %rax	# D.10560
	jne	.L12	#,
	.loc 1 63 0 discriminator 1
	movzbl	PL_dowarn(%rip), %eax	# PL_dowarn, PL_dowarn.13
	movzbl	%al, %eax	# PL_dowarn.13, D.10564
	andl	$1, %eax	#, D.10564
	testl	%eax, %eax	# D.10564
	je	.L12	#,
.L11:
	.loc 1 64 0 is_stmt 1
	movq	-8(%rbp), %rcx	# ug, tmp86
	movq	-32(%rbp), %rdx	# s, tmp87
	movq	-24(%rbp), %rax	# f, tmp88
	movq	%rax, %rsi	# tmp88,
	movl	$39, %edi	#,
	movl	$0, %eax	#,
	call	Perl_warner	#
	.loc 1 63 0
	jmp	.L1	#
.L12:
	.loc 1 63 0 is_stmt 0 discriminator 2
	jmp	.L1	#
.L9:
	.loc 1 67 0 is_stmt 1
	movq	-8(%rbp), %rdx	# ug, tmp89
	movq	-32(%rbp), %rcx	# s, tmp90
	movq	-24(%rbp), %rax	# f, tmp91
	movq	%rcx, %rsi	# tmp90,
	movq	%rax, %rdi	# tmp91,
	movl	$0, %eax	#,
	call	Perl_croak	#
.L1:
	.loc 1 70 0
	leave
	.cfi_def_cfa 7, 8
	ret
	.cfi_endproc
.LFE2:
	.size	Perl_taint_proper, .-Perl_taint_proper
	.section	.rodata
.LC4:
	.string	"ENV"
.LC5:
	.string	"another variable"
.LC6:
	.string	"%%ENV is aliased to %s%s"
.LC7:
	.string	"%%ENV is aliased to %%%s%s"
.LC8:
	.string	"PATH"
.LC9:
	.string	"$ENV{PATH}"
.LC10:
	.string	"Insecure %s%s"
.LC11:
	.string	"Insecure directory in %s%s"
.LC12:
	.string	"TERM"
.LC13:
	.string	"-_.+"
.LC14:
	.string	"Insecure $ENV{%s}%s"
	.text
	.globl	Perl_taint_env
	.type	Perl_taint_env, @function
Perl_taint_env:
.LFB3:
	.loc 1 74 0
	.cfi_startproc
	pushq	%rbp	#
	.cfi_def_cfa_offset 16
	.cfi_offset 6, -16
	movq	%rsp, %rbp	#,
	.cfi_def_cfa_register 6
	pushq	%r12	#
	pushq	%rbx	#
	subq	$64, %rsp	#,
	.cfi_offset 12, -24
	.cfi_offset 3, -32
	.loc 1 87 0
	movq	PL_envgv(%rip), %rax	# PL_envgv, PL_envgv.14
	testq	%rax, %rax	# PL_envgv.14
	jne	.L14	#,
	.loc 1 88 0
	jmp	.L13	#
.L14:
	.loc 1 91 0
	movq	PL_envgv(%rip), %rax	# PL_envgv, PL_envgv.15
	movq	(%rax), %rax	# PL_envgv.15_10->sv_any, D.10569
	movq	56(%rax), %rax	# _11->xgv_gp, D.10570
	movq	40(%rax), %rax	# _12->gp_hv, D.10571
	testq	%rax, %rax	# D.10571
	je	.L16	#,
	.loc 1 91 0 is_stmt 0 discriminator 1
	movq	PL_envgv(%rip), %rax	# PL_envgv, PL_envgv.16
	movq	(%rax), %rax	# PL_envgv.16_14->sv_any, D.10569
	movq	56(%rax), %rax	# _15->xgv_gp, D.10570
	movq	40(%rax), %rax	# _16->gp_hv, D.10571
	movl	12(%rax), %eax	# _17->sv_flags, D.10572
	andl	$32768, %eax	#, D.10572
	testl	%eax, %eax	# D.10572
	je	.L16	#,
	.loc 1 92 0 is_stmt 1 discriminator 1
	movq	PL_envgv(%rip), %rax	# PL_envgv, PL_envgv.17
	movq	(%rax), %rax	# PL_envgv.17_20->sv_any, D.10569
	movq	56(%rax), %rax	# _21->xgv_gp, D.10570
	movq	40(%rax), %rax	# _22->gp_hv, D.10571
	movl	$69, %esi	#,
	movq	%rax, %rdi	# D.10571,
	call	Perl_mg_find	#
	.loc 1 91 0 discriminator 1
	testq	%rax, %rax	# D.10573
	jne	.L17	#,
.L16:
.LBB2:
	.loc 1 93 0
	movzbl	PL_tainted(%rip), %eax	# PL_tainted, tmp177
	movb	%al, -74(%rbp)	# tmp177, was_tainted
	.loc 1 94 0
	movq	PL_envgv(%rip), %rax	# PL_envgv, PL_envgv.19
	movq	(%rax), %rax	# PL_envgv.19_26->sv_any, D.10569
	movq	56(%rax), %rax	# _27->xgv_gp, D.10570
	movq	48(%rax), %rax	# _28->gp_egv, D.10574
	testq	%rax, %rax	# D.10574
	je	.L18	#,
	.loc 1 94 0 is_stmt 0 discriminator 1
	movq	PL_envgv(%rip), %rax	# PL_envgv, PL_envgv.20
	movq	(%rax), %rax	# PL_envgv.20_30->sv_any, D.10569
	movq	56(%rax), %rax	# _31->xgv_gp, D.10570
	movq	48(%rax), %rax	# _32->gp_egv, iftmp.18
	jmp	.L19	#
.L18:
	.loc 1 94 0 discriminator 2
	movq	PL_envgv(%rip), %rax	# PL_envgv, iftmp.18
.L19:
	.loc 1 94 0 discriminator 3
	movq	(%rax), %rax	# iftmp.18_4->sv_any, D.10569
	movq	64(%rax), %rax	# _35->xgv_name, tmp178
	movq	%rax, -48(%rbp)	# tmp178, name
	.loc 1 95 0 is_stmt 1 discriminator 3
	movb	$1, PL_tainted(%rip)	#, PL_tainted
	.loc 1 96 0 discriminator 3
	movq	-48(%rbp), %rax	# name, tmp179
	movl	$.LC4, %esi	#,
	movq	%rax, %rdi	# tmp179,
	call	strcmp	#
	testl	%eax, %eax	# D.10575
	jne	.L20	#,
	.loc 1 98 0
	movl	$.LC5, %esi	#,
	movl	$.LC6, %edi	#,
	call	Perl_taint_proper	#
	jmp	.L21	#
.L20:
	.loc 1 101 0
	movq	-48(%rbp), %rax	# name, tmp180
	movq	%rax, %rsi	# tmp180,
	movl	$.LC7, %edi	#,
	call	Perl_taint_proper	#
.L21:
	.loc 1 103 0
	movzbl	-74(%rbp), %eax	# was_tainted, tmp181
	movb	%al, PL_tainted(%rip)	# tmp181, PL_tainted
.L17:
.LBE2:
	.loc 1 130 0
	movq	PL_envgv(%rip), %rax	# PL_envgv, PL_envgv.22
	movq	(%rax), %rax	# PL_envgv.22_38->sv_any, D.10569
	movq	56(%rax), %rax	# _39->xgv_gp, D.10570
	movq	40(%rax), %rax	# _40->gp_hv, D.10571
	testq	%rax, %rax	# D.10571
	je	.L22	#,
	.loc 1 130 0 is_stmt 0 discriminator 1
	movq	PL_envgv(%rip), %rax	# PL_envgv, PL_envgv.23
	movq	(%rax), %rax	# PL_envgv.23_42->sv_any, D.10569
	movq	56(%rax), %rax	# _43->xgv_gp, D.10570
	movq	40(%rax), %rax	# _44->gp_hv, iftmp.21
	jmp	.L23	#
.L22:
	.loc 1 130 0 discriminator 2
	movq	PL_envgv(%rip), %rax	# PL_envgv, PL_envgv.24
	movq	%rax, %rdi	# PL_envgv.24,
	call	Perl_gv_HVadd	#
	movq	(%rax), %rax	# _47->sv_any, D.10569
	movq	56(%rax), %rax	# _48->xgv_gp, D.10570
	movq	40(%rax), %rax	# _49->gp_hv, iftmp.21
.L23:
	.loc 1 130 0 discriminator 3
	movl	$0, %ecx	#,
	movl	$4, %edx	#,
	movl	$.LC8, %esi	#,
	movq	%rax, %rdi	# iftmp.21,
	call	Perl_hv_fetch	#
	movq	%rax, -40(%rbp)	# tmp182, svp
	.loc 1 131 0 is_stmt 1 discriminator 3
	cmpq	$0, -40(%rbp)	#, svp
	je	.L24	#,
	.loc 1 131 0 is_stmt 0 discriminator 1
	movq	-40(%rbp), %rax	# svp, tmp183
	movq	(%rax), %rax	# *svp_51, D.10576
	testq	%rax, %rax	# D.10576
	je	.L24	#,
	.loc 1 132 0 is_stmt 1
	movq	-40(%rbp), %rax	# svp, tmp184
	movq	(%rax), %rax	# *svp_51, D.10576
	movl	12(%rax), %eax	# _53->sv_flags, D.10572
	andl	$57344, %eax	#, D.10572
	testl	%eax, %eax	# D.10572
	je	.L25	#,
	.loc 1 132 0 is_stmt 0 discriminator 1
	movq	-40(%rbp), %rax	# svp, tmp185
	movq	(%rax), %rax	# *svp_51, D.10576
	movq	%rax, %rdi	# D.10576,
	call	Perl_sv_tainted	#
	testb	%al, %al	# D.10577
	je	.L25	#,
	.loc 1 133 0 is_stmt 1
	movb	$1, PL_tainted(%rip)	#, PL_tainted
	.loc 1 134 0
	movl	$.LC9, %esi	#,
	movl	$.LC10, %edi	#,
	call	Perl_taint_proper	#
.L25:
	.loc 1 136 0
	movq	-40(%rbp), %rax	# svp, tmp186
	movq	(%rax), %rax	# *svp_51, D.10576
	movl	$101, %esi	#,
	movq	%rax, %rdi	# D.10576,
	call	Perl_mg_find	#
	movq	%rax, -32(%rbp)	# tmp187, mg
	cmpq	$0, -32(%rbp)	#, mg
	je	.L24	#,
	.loc 1 136 0 is_stmt 0 discriminator 1
	movq	-32(%rbp), %rax	# mg, tmp188
	movzbl	19(%rax), %eax	# mg_59->mg_flags, D.10578
	movzbl	%al, %eax	# D.10578, D.10575
	andl	$1, %eax	#, D.10575
	testl	%eax, %eax	# D.10575
	je	.L24	#,
	.loc 1 137 0 is_stmt 1
	movb	$1, PL_tainted(%rip)	#, PL_tainted
	.loc 1 138 0
	movl	$.LC9, %esi	#,
	movl	$.LC11, %edi	#,
	call	Perl_taint_proper	#
.L24:
	.loc 1 144 0
	movq	PL_envgv(%rip), %rax	# PL_envgv, PL_envgv.26
	movq	(%rax), %rax	# PL_envgv.26_63->sv_any, D.10569
	movq	56(%rax), %rax	# _64->xgv_gp, D.10570
	movq	40(%rax), %rax	# _65->gp_hv, D.10571
	testq	%rax, %rax	# D.10571
	je	.L26	#,
	.loc 1 144 0 is_stmt 0 discriminator 1
	movq	PL_envgv(%rip), %rax	# PL_envgv, PL_envgv.27
	movq	(%rax), %rax	# PL_envgv.27_67->sv_any, D.10569
	movq	56(%rax), %rax	# _68->xgv_gp, D.10570
	movq	40(%rax), %rax	# _69->gp_hv, iftmp.25
	jmp	.L27	#
.L26:
	.loc 1 144 0 discriminator 2
	movq	PL_envgv(%rip), %rax	# PL_envgv, PL_envgv.28
	movq	%rax, %rdi	# PL_envgv.28,
	call	Perl_gv_HVadd	#
	movq	(%rax), %rax	# _72->sv_any, D.10569
	movq	56(%rax), %rax	# _73->xgv_gp, D.10570
	movq	40(%rax), %rax	# _74->gp_hv, iftmp.25
.L27:
	.loc 1 144 0 discriminator 3
	movl	$0, %ecx	#,
	movl	$4, %edx	#,
	movl	$.LC12, %esi	#,
	movq	%rax, %rdi	# iftmp.25,
	call	Perl_hv_fetch	#
	movq	%rax, -40(%rbp)	# tmp189, svp
	.loc 1 145 0 is_stmt 1 discriminator 3
	cmpq	$0, -40(%rbp)	#, svp
	je	.L28	#,
	.loc 1 145 0 is_stmt 0 discriminator 1
	movq	-40(%rbp), %rax	# svp, tmp190
	movq	(%rax), %rax	# *svp_76, D.10576
	testq	%rax, %rax	# D.10576
	je	.L28	#,
	movq	-40(%rbp), %rax	# svp, tmp191
	movq	(%rax), %rax	# *svp_76, D.10576
	movl	12(%rax), %eax	# _78->sv_flags, D.10572
	andl	$57344, %eax	#, D.10572
	testl	%eax, %eax	# D.10572
	je	.L28	#,
	movq	-40(%rbp), %rax	# svp, tmp192
	movq	(%rax), %rax	# *svp_76, D.10576
	movq	%rax, %rdi	# D.10576,
	call	Perl_sv_tainted	#
	testb	%al, %al	# D.10577
	je	.L28	#,
.LBB3:
	.loc 1 147 0 is_stmt 1
	movzbl	PL_tainted(%rip), %eax	# PL_tainted, tmp193
	movb	%al, -73(%rbp)	# tmp193, was_tainted
	.loc 1 148 0
	movq	-40(%rbp), %rax	# svp, tmp194
	movq	(%rax), %rax	# *svp_76, D.10576
	movl	12(%rax), %eax	# _84->sv_flags, D.10572
	andl	$262144, %eax	#, D.10572
	testl	%eax, %eax	# D.10572
	je	.L29	#,
	.loc 1 148 0 is_stmt 0 discriminator 1
	movq	-40(%rbp), %rax	# svp, tmp195
	movq	(%rax), %rax	# *svp_76, D.10576
	movq	(%rax), %rax	# _87->sv_any, D.10579
	movq	8(%rax), %rax	# MEM[(struct XPV *)_88].xpv_cur, n_a.30
	movq	%rax, -72(%rbp)	# n_a.30, n_a
	movq	-40(%rbp), %rax	# svp, tmp196
	movq	(%rax), %rax	# *svp_76, D.10576
	movq	(%rax), %rax	# _90->sv_any, D.10579
	movq	(%rax), %rax	# MEM[(struct XPV *)_91].xpv_pv, iftmp.29
	jmp	.L30	#
.L29:
	.loc 1 148 0 discriminator 2
	movq	-40(%rbp), %rax	# svp, tmp197
	movq	(%rax), %rax	# *svp_76, D.10576
	leaq	-72(%rbp), %rcx	#, tmp198
	movl	$2, %edx	#,
	movq	%rcx, %rsi	# tmp198,
	movq	%rax, %rdi	# D.10576,
	call	Perl_sv_2pv_flags	#
.L30:
	.loc 1 148 0 discriminator 3
	movq	%rax, -56(%rbp)	# iftmp.29, t
	.loc 1 149 0 is_stmt 1 discriminator 3
	movq	-72(%rbp), %rdx	# n_a, n_a.31
	movq	-56(%rbp), %rax	# t, tmp202
	addq	%rdx, %rax	# n_a.31, tmp201
	movq	%rax, -24(%rbp)	# tmp201, e
	.loc 1 150 0 discriminator 3
	movzbl	-73(%rbp), %eax	# was_tainted, tmp203
	movb	%al, PL_tainted(%rip)	# tmp203, PL_tainted
	.loc 1 151 0 discriminator 3
	movq	-56(%rbp), %rax	# t, tmp204
	cmpq	-24(%rbp), %rax	# e, tmp204
	jae	.L31	#,
	.loc 1 151 0 is_stmt 0 discriminator 1
	movq	-56(%rbp), %rax	# t, tmp205
	movzbl	(%rax), %eax	# *t_95, D.10577
	cmpb	$64, %al	#, D.10577
	jle	.L32	#,
	movq	-56(%rbp), %rax	# t, tmp206
	movzbl	(%rax), %eax	# *t_95, D.10577
	cmpb	$90, %al	#, D.10577
	jle	.L33	#,
.L32:
	.loc 1 151 0 discriminator 2
	movq	-56(%rbp), %rax	# t, tmp207
	movzbl	(%rax), %eax	# *t_95, D.10577
	cmpb	$96, %al	#, D.10577
	jle	.L34	#,
	.loc 1 151 0 discriminator 1
	movq	-56(%rbp), %rax	# t, tmp208
	movzbl	(%rax), %eax	# *t_95, D.10577
	cmpb	$122, %al	#, D.10577
	jle	.L33	#,
.L34:
	.loc 1 151 0 discriminator 2
	movq	-56(%rbp), %rax	# t, tmp209
	movzbl	(%rax), %eax	# *t_95, D.10577
	cmpb	$47, %al	#, D.10577
	jle	.L35	#,
	.loc 1 151 0 discriminator 1
	movq	-56(%rbp), %rax	# t, tmp210
	movzbl	(%rax), %eax	# *t_95, D.10577
	cmpb	$57, %al	#, D.10577
	jle	.L33	#,
.L35:
	.loc 1 151 0 discriminator 2
	movq	-56(%rbp), %rax	# t, tmp211
	movzbl	(%rax), %eax	# *t_95, D.10577
	cmpb	$95, %al	#, D.10577
	jne	.L31	#,
.L33:
	.loc 1 152 0 is_stmt 1
	addq	$1, -56(%rbp)	#, t
	.loc 1 153 0
	jmp	.L36	#
.L31:
	jmp	.L36	#
.L39:
	.loc 1 154 0
	addq	$1, -56(%rbp)	#, t
.L36:
	.loc 1 153 0 discriminator 1
	movq	-56(%rbp), %rax	# t, tmp212
	cmpq	-24(%rbp), %rax	# e, tmp212
	jae	.L37	#,
	.loc 1 153 0 is_stmt 0 discriminator 2
	movq	-56(%rbp), %rax	# t, tmp213
	movzbl	(%rax), %eax	# *t_3, D.10577
	cmpb	$64, %al	#, D.10577
	jle	.L38	#,
	.loc 1 153 0 discriminator 1
	movq	-56(%rbp), %rax	# t, tmp214
	movzbl	(%rax), %eax	# *t_3, D.10577
	cmpb	$90, %al	#, D.10577
	jle	.L39	#,
.L38:
	.loc 1 153 0 discriminator 2
	movq	-56(%rbp), %rax	# t, tmp215
	movzbl	(%rax), %eax	# *t_3, D.10577
	cmpb	$96, %al	#, D.10577
	jle	.L40	#,
	.loc 1 153 0 discriminator 1
	movq	-56(%rbp), %rax	# t, tmp216
	movzbl	(%rax), %eax	# *t_3, D.10577
	cmpb	$122, %al	#, D.10577
	jle	.L39	#,
.L40:
	.loc 1 153 0 discriminator 2
	movq	-56(%rbp), %rax	# t, tmp217
	movzbl	(%rax), %eax	# *t_3, D.10577
	cmpb	$47, %al	#, D.10577
	jle	.L41	#,
	.loc 1 153 0 discriminator 1
	movq	-56(%rbp), %rax	# t, tmp218
	movzbl	(%rax), %eax	# *t_3, D.10577
	cmpb	$57, %al	#, D.10577
	jle	.L39	#,
.L41:
	.loc 1 153 0 discriminator 2
	movq	-56(%rbp), %rax	# t, tmp219
	movzbl	(%rax), %eax	# *t_3, D.10577
	cmpb	$95, %al	#, D.10577
	je	.L39	#,
	.loc 1 153 0 discriminator 1
	movq	-56(%rbp), %rax	# t, tmp220
	movzbl	(%rax), %eax	# *t_3, D.10577
	movsbl	%al, %eax	# D.10577, D.10575
	movl	%eax, %esi	# D.10575,
	movl	$.LC13, %edi	#,
	call	strchr	#
	testq	%rax, %rax	# D.10580
	jne	.L39	#,
.L37:
	.loc 1 155 0 is_stmt 1
	movq	-56(%rbp), %rax	# t, tmp221
	cmpq	-24(%rbp), %rax	# e, tmp221
	jae	.L28	#,
	.loc 1 156 0
	movb	$1, PL_tainted(%rip)	#, PL_tainted
	.loc 1 157 0
	movl	$.LC12, %esi	#,
	movl	$.LC14, %edi	#,
	call	Perl_taint_proper	#
.L28:
.LBE3:
	.loc 1 162 0
	movq	$misc_env.10302, -64(%rbp)	#, e
	jmp	.L43	#
.L47:
	.loc 1 163 0
	movq	-64(%rbp), %rax	# e, tmp222
	movq	(%rax), %rax	# *e_1, D.10580
	movq	%rax, %rdi	# D.10580,
	call	strlen	#
	movl	%eax, %r12d	# D.10581, D.10575
	movq	-64(%rbp), %rax	# e, tmp223
	movq	(%rax), %rbx	# *e_1, D.10580
	movq	PL_envgv(%rip), %rax	# PL_envgv, PL_envgv.33
	movq	(%rax), %rax	# PL_envgv.33_123->sv_any, D.10569
	movq	56(%rax), %rax	# _124->xgv_gp, D.10570
	movq	40(%rax), %rax	# _125->gp_hv, D.10571
	testq	%rax, %rax	# D.10571
	je	.L44	#,
	.loc 1 163 0 is_stmt 0 discriminator 1
	movq	PL_envgv(%rip), %rax	# PL_envgv, PL_envgv.34
	movq	(%rax), %rax	# PL_envgv.34_127->sv_any, D.10569
	movq	56(%rax), %rax	# _128->xgv_gp, D.10570
	movq	40(%rax), %rax	# _129->gp_hv, iftmp.32
	jmp	.L45	#
.L44:
	.loc 1 163 0 discriminator 2
	movq	PL_envgv(%rip), %rax	# PL_envgv, PL_envgv.35
	movq	%rax, %rdi	# PL_envgv.35,
	call	Perl_gv_HVadd	#
	movq	(%rax), %rax	# _132->sv_any, D.10569
	movq	56(%rax), %rax	# _133->xgv_gp, D.10570
	movq	40(%rax), %rax	# _134->gp_hv, iftmp.32
.L45:
	.loc 1 163 0 discriminator 3
	movl	$0, %ecx	#,
	movl	%r12d, %edx	# D.10575,
	movq	%rbx, %rsi	# D.10580,
	movq	%rax, %rdi	# iftmp.32,
	call	Perl_hv_fetch	#
	movq	%rax, -40(%rbp)	# tmp224, svp
	.loc 1 164 0 is_stmt 1 discriminator 3
	cmpq	$0, -40(%rbp)	#, svp
	je	.L46	#,
	.loc 1 164 0 is_stmt 0 discriminator 1
	movq	-40(%rbp), %rax	# svp, tmp225
	movq	(%rax), %rax	# *svp_136, D.10576
	cmpq	$PL_sv_undef, %rax	#, D.10576
	je	.L46	#,
	movq	-40(%rbp), %rax	# svp, tmp226
	movq	(%rax), %rax	# *svp_136, D.10576
	movl	12(%rax), %eax	# _138->sv_flags, D.10572
	andl	$57344, %eax	#, D.10572
	testl	%eax, %eax	# D.10572
	je	.L46	#,
	movq	-40(%rbp), %rax	# svp, tmp227
	movq	(%rax), %rax	# *svp_136, D.10576
	movq	%rax, %rdi	# D.10576,
	call	Perl_sv_tainted	#
	testb	%al, %al	# D.10577
	je	.L46	#,
	.loc 1 165 0 is_stmt 1
	movb	$1, PL_tainted(%rip)	#, PL_tainted
	.loc 1 166 0
	movq	-64(%rbp), %rax	# e, tmp228
	movq	(%rax), %rax	# *e_1, D.10580
	movq	%rax, %rsi	# D.10580,
	movl	$.LC14, %edi	#,
	call	Perl_taint_proper	#
.L46:
	.loc 1 162 0
	addq	$8, -64(%rbp)	#, e
.L43:
	.loc 1 162 0 is_stmt 0 discriminator 1
	movq	-64(%rbp), %rax	# e, tmp229
	movq	(%rax), %rax	# *e_1, D.10580
	testq	%rax, %rax	# D.10580
	jne	.L47	#,
.L13:
	.loc 1 169 0 is_stmt 1
	addq	$64, %rsp	#,
	popq	%rbx	#
	popq	%r12	#
	popq	%rbp	#
	.cfi_def_cfa 7, 8
	ret
	.cfi_endproc
.LFE3:
	.size	Perl_taint_env, .-Perl_taint_env
	.section	.rodata
.LC15:
	.string	"IFS"
.LC16:
	.string	"CDPATH"
.LC17:
	.string	"BASH_ENV"
	.data
	.align 32
	.type	misc_env.10302, @object
	.size	misc_env.10302, 40
misc_env.10302:
	.quad	.LC15
	.quad	.LC16
	.quad	.LC4
	.quad	.LC17
	.quad	0
	.text
.Letext0:
	.file 2 "/usr/include/x86_64-linux-gnu/bits/types.h"
	.file 3 "/usr/include/x86_64-linux-gnu/sys/types.h"
	.file 4 "/usr/lib/gcc/x86_64-linux-gnu/4.8/include/stddef.h"
	.file 5 "/usr/include/dirent.h"
	.file 6 "perl.h"
	.file 7 "op.h"
	.file 8 "cop.h"
	.file 9 "sv.h"
	.file 10 "regexp.h"
	.file 11 "gv.h"
	.file 12 "mg.h"
	.file 13 "av.h"
	.file 14 "hv.h"
	.file 15 "cv.h"
	.file 16 "handy.h"
	.file 17 "perlio.h"
	.file 18 "pad.h"
	.file 19 "intrpvar.h"
	.file 20 "thrdvar.h"
	.section	.note.GNU-stack,"",@progbits
