	.file	"toke.c"
# GNU C (Ubuntu/Linaro 4.8.1-10ubuntu9) version 4.8.1 (x86_64-linux-gnu)
#	compiled by GNU C version 4.8.1, GMP version 5.1.2, MPFR version 3.1.1-p2, MPC version 1.0.1
# GGC heuristics: --param ggc-min-expand=100 --param ggc-min-heapsize=131072
# options passed:  -imultiarch x86_64-linux-gnu -D SPEC_CPU -D NDEBUG
# -D PERL_CORE -D SPEC_CPU_LP64 -D SPEC_CPU_LINUX_X64 toke.c -mtune=generic
# -march=x86-64 -g -fverbose-asm -fno-strict-aliasing -fstack-protector
# -Wformat -Wformat-security
# options enabled:  -faggressive-loop-optimizations
# -fasynchronous-unwind-tables -fauto-inc-dec -fbranch-count-reg -fcommon
# -fdelete-null-pointer-checks -fdwarf2-cfi-asm -fearly-inlining
# -feliminate-unused-debug-types -ffunction-cse -fgcse-lm -fgnu-runtime
# -fident -finline-atomics -fira-hoist-pressure -fira-share-save-slots
# -fira-share-spill-slots -fivopts -fkeep-static-consts
# -fleading-underscore -fmath-errno -fmerge-debug-strings
# -fmove-loop-invariants -fpeephole -fprefetch-loop-arrays
# -freg-struct-return -fsched-critical-path-heuristic
# -fsched-dep-count-heuristic -fsched-group-heuristic -fsched-interblock
# -fsched-last-insn-heuristic -fsched-rank-heuristic -fsched-spec
# -fsched-spec-insn-heuristic -fsched-stalled-insns-dep -fshow-column
# -fsigned-zeros -fsplit-ivs-in-unroller -fstack-protector
# -fstrict-volatile-bitfields -fsync-libcalls -ftrapping-math
# -ftree-coalesce-vars -ftree-cselim -ftree-forwprop -ftree-loop-if-convert
# -ftree-loop-im -ftree-loop-ivcanon -ftree-loop-optimize
# -ftree-parallelize-loops= -ftree-phiprop -ftree-pta -ftree-reassoc
# -ftree-scev-cprop -ftree-slp-vectorize -ftree-vect-loop-version
# -funit-at-a-time -funwind-tables -fverbose-asm -fzero-initialized-in-bss
# -m128bit-long-double -m64 -m80387 -maccumulate-outgoing-args
# -malign-stringops -mfancy-math-387 -mfp-ret-in-387 -mfxsr -mglibc
# -mieee-fp -mlong-double-80 -mmmx -mno-sse4 -mpush-args -mred-zone -msse
# -msse2 -mtls-direct-seg-refs

	.text
.Ltext0:
	.data
	.align 16
	.type	ident_too_long, @object
	.size	ident_too_long, 20
ident_too_long:
	.string	"Identifier too long"
	.align 32
	.type	c_without_g, @object
	.size	c_without_g, 45
c_without_g:
	.string	"Use of /c modifier is meaningless without /g"
	.align 32
	.type	c_in_subst, @object
	.size	c_in_subst, 42
c_in_subst:
	.string	"Use of /c modifier is meaningless in s///"
	.text
	.type	S_ao, @function
S_ao:
.LFB2:
	.file 1 "toke.c"
	.loc 1 217 0
	.cfi_startproc
	pushq	%rbp	#
	.cfi_def_cfa_offset 16
	.cfi_offset 6, -16
	movq	%rsp, %rbp	#,
	.cfi_def_cfa_register 6
	movl	%edi, -4(%rbp)	# toketype, toketype
	.loc 1 218 0
	movq	PL_bufptr(%rip), %rax	# PL_bufptr, PL_bufptr.0
	movzbl	(%rax), %eax	# *PL_bufptr.0_2, D.28660
	cmpb	$61, %al	#, D.28660
	jne	.L2	#,
	.loc 1 219 0
	movq	PL_bufptr(%rip), %rax	# PL_bufptr, PL_bufptr.1
	addq	$1, %rax	#, PL_bufptr.2
	movq	%rax, PL_bufptr(%rip)	# PL_bufptr.2, PL_bufptr
	.loc 1 220 0
	cmpl	$305, -4(%rbp)	#, toketype
	jne	.L3	#,
	.loc 1 221 0
	movl	$163, PL_yylval(%rip)	#, PL_yylval.ival
	jmp	.L4	#
.L3:
	.loc 1 222 0
	cmpl	$304, -4(%rbp)	#, toketype
	jne	.L4	#,
	.loc 1 223 0
	movl	$164, PL_yylval(%rip)	#, PL_yylval.ival
.L4:
	.loc 1 224 0
	movl	$303, -4(%rbp)	#, toketype
.L2:
	.loc 1 226 0
	movl	-4(%rbp), %eax	# toketype, D.28661
	.loc 1 227 0
	popq	%rbp	#
	.cfi_def_cfa 7, 8
	ret
	.cfi_endproc
.LFE2:
	.size	S_ao, .-S_ao
	.section	.rodata
	.align 8
.LC0:
	.string	"%s found where operator expected"
	.align 8
.LC1:
	.string	"\t(Missing semicolon on previous line?)\n"
	.align 8
.LC2:
	.string	"\t(Do you need to predeclare %.*s?)\n"
	.align 8
.LC3:
	.string	"\t(Missing operator before %.*s?)\n"
	.text
	.type	S_no_op, @function
S_no_op:
.LFB3:
	.loc 1 244 0
	.cfi_startproc
	pushq	%rbp	#
	.cfi_def_cfa_offset 16
	.cfi_offset 6, -16
	movq	%rsp, %rbp	#,
	.cfi_def_cfa_register 6
	subq	$48, %rsp	#,
	movq	%rdi, -40(%rbp)	# what, what
	movq	%rsi, -48(%rbp)	# s, s
	.loc 1 245 0
	movq	PL_bufptr(%rip), %rax	# PL_bufptr, tmp153
	movq	%rax, -8(%rbp)	# tmp153, oldbp
	.loc 1 246 0
	movq	PL_oldbufptr(%rip), %rdx	# PL_oldbufptr, PL_oldbufptr.3
	movq	PL_linestart(%rip), %rax	# PL_linestart, PL_linestart.4
	cmpq	%rax, %rdx	# PL_linestart.4, PL_oldbufptr.3
	sete	%al	#, D.28662
	movb	%al, -17(%rbp)	# D.28662, is_first
	.loc 1 248 0
	cmpq	$0, -48(%rbp)	#, s
	jne	.L7	#,
	.loc 1 249 0
	movq	-8(%rbp), %rax	# oldbp, tmp154
	movq	%rax, -48(%rbp)	# tmp154, s
	jmp	.L8	#
.L7:
	.loc 1 251 0
	movq	-48(%rbp), %rax	# s, tmp155
	movq	%rax, PL_bufptr(%rip)	# tmp155, PL_bufptr
.L8:
	.loc 1 252 0
	movq	-40(%rbp), %rax	# what, tmp156
	movq	%rax, %rsi	# tmp156,
	movl	$.LC0, %edi	#,
	movl	$0, %eax	#,
	call	Perl_form	#
	movq	%rax, %rdi	# D.28663,
	call	Perl_yywarn	#
	.loc 1 253 0
	movq	PL_curcop(%rip), %rax	# PL_curcop, PL_curcop.5
	movq	80(%rax), %rax	# PL_curcop.5_15->cop_warnings, D.28664
	testq	%rax, %rax	# D.28664
	je	.L9	#,
	.loc 1 253 0 is_stmt 0 discriminator 1
	movq	PL_curcop(%rip), %rax	# PL_curcop, PL_curcop.6
	movq	80(%rax), %rax	# PL_curcop.6_17->cop_warnings, D.28664
	cmpq	$16, %rax	#, D.28664
	je	.L9	#,
	movq	PL_curcop(%rip), %rax	# PL_curcop, PL_curcop.7
	movq	80(%rax), %rax	# PL_curcop.7_19->cop_warnings, D.28664
	cmpq	$32, %rax	#, D.28664
	je	.L10	#,
	movq	PL_curcop(%rip), %rax	# PL_curcop, PL_curcop.8
	movq	80(%rax), %rax	# PL_curcop.8_21->cop_warnings, D.28664
	movq	(%rax), %rax	# _22->sv_any, D.28665
	movq	(%rax), %rax	# MEM[(struct XPV *)_23].xpv_pv, D.28663
	addq	$7, %rax	#, D.28663
	movzbl	(%rax), %eax	# *_25, D.28666
	movsbl	%al, %eax	# D.28666, D.28667
	andl	$1, %eax	#, D.28667
	testl	%eax, %eax	# D.28667
	je	.L10	#,
.L9:
	.loc 1 254 0 is_stmt 1
	cmpb	$0, -17(%rbp)	#, is_first
	je	.L11	#,
	.loc 1 255 0
	movl	$.LC1, %esi	#,
	movl	$28, %edi	#,
	movl	$0, %eax	#,
	call	Perl_warner	#
	jmp	.L10	#
.L11:
	.loc 1 257 0
	movq	PL_oldoldbufptr(%rip), %rax	# PL_oldoldbufptr, PL_oldoldbufptr.9
	testq	%rax, %rax	# PL_oldoldbufptr.9
	je	.L12	#,
	.loc 1 257 0 is_stmt 0 discriminator 1
	movq	PL_curcop(%rip), %rax	# PL_curcop, PL_curcop.10
	movzbl	37(%rax), %eax	# PL_curcop.10_30->op_private, D.28668
	movzbl	%al, %eax	# D.28668, D.28667
	andl	$8, %eax	#, D.28667
	testl	%eax, %eax	# D.28667
	jne	.L13	#,
	.loc 1 257 0 discriminator 3
	movq	PL_linestr(%rip), %rax	# PL_linestr, PL_linestr.11
	testq	%rax, %rax	# PL_linestr.11
	je	.L14	#,
	.loc 1 257 0 discriminator 2
	movq	PL_linestr(%rip), %rax	# PL_linestr, PL_linestr.12
	movl	12(%rax), %eax	# PL_linestr.12_35->sv_flags, D.28669
	andl	$536870912, %eax	#, D.28669
	testl	%eax, %eax	# D.28669
	je	.L14	#,
	.loc 1 257 0 discriminator 1
	movq	PL_curcop(%rip), %rax	# PL_curcop, PL_curcop.13
	movzbl	37(%rax), %eax	# PL_curcop.13_38->op_private, D.28668
	movzbl	%al, %eax	# D.28668, D.28667
	andl	$8, %eax	#, D.28667
	testl	%eax, %eax	# D.28667
	je	.L15	#,
.L14:
	movl	PL_hints(%rip), %eax	# PL_hints, PL_hints.14
	andl	$8388608, %eax	#, D.28669
	testl	%eax, %eax	# D.28669
	je	.L13	#,
.L15:
	movq	PL_oldoldbufptr(%rip), %rax	# PL_oldoldbufptr, PL_oldoldbufptr.15
	movzbl	(%rax), %eax	# MEM[(U8 *)PL_oldoldbufptr.15_44], D.28668
	cmpb	$-65, %al	#, D.28668
	ja	.L16	#,
.L13:
	.loc 1 257 0 discriminator 2
	movq	PL_oldoldbufptr(%rip), %rax	# PL_oldoldbufptr, PL_oldoldbufptr.17
	movzbl	(%rax), %eax	# *PL_oldoldbufptr.17_53, D.28666
	cmpb	$64, %al	#, D.28666
	jle	.L17	#,
	.loc 1 257 0 discriminator 1
	movq	PL_oldoldbufptr(%rip), %rax	# PL_oldoldbufptr, PL_oldoldbufptr.18
	movzbl	(%rax), %eax	# *PL_oldoldbufptr.18_55, D.28666
	cmpb	$90, %al	#, D.28666
	jle	.L18	#,
.L17:
	.loc 1 257 0 discriminator 2
	movq	PL_oldoldbufptr(%rip), %rax	# PL_oldoldbufptr, PL_oldoldbufptr.19
	movzbl	(%rax), %eax	# *PL_oldoldbufptr.19_57, D.28666
	cmpb	$96, %al	#, D.28666
	jle	.L19	#,
	.loc 1 257 0 discriminator 1
	movq	PL_oldoldbufptr(%rip), %rax	# PL_oldoldbufptr, PL_oldoldbufptr.20
	movzbl	(%rax), %eax	# *PL_oldoldbufptr.20_59, D.28666
	cmpb	$122, %al	#, D.28666
	jle	.L18	#,
.L19:
	.loc 1 257 0 discriminator 2
	movq	PL_oldoldbufptr(%rip), %rax	# PL_oldoldbufptr, PL_oldoldbufptr.21
	movzbl	(%rax), %eax	# *PL_oldoldbufptr.21_61, D.28666
	cmpb	$95, %al	#, D.28666
	jne	.L20	#,
.L18:
	.loc 1 257 0 discriminator 1
	movl	$1, %eax	#, iftmp.16
	jmp	.L21	#
.L20:
	.loc 1 257 0 discriminator 3
	movl	$0, %eax	#, iftmp.16
.L21:
	.loc 1 257 0 discriminator 4
	andl	$1, %eax	#, D.28662
	testb	%al, %al	# D.28662
	je	.L12	#,
	.loc 1 257 0 discriminator 1
	jmp	.L22	#
.L16:
	movq	PL_oldoldbufptr(%rip), %rax	# PL_oldoldbufptr, PL_oldoldbufptr.23
	movq	%rax, %rdi	# PL_oldoldbufptr.23,
	call	Perl_is_utf8_idcont	#
	testb	%al, %al	# D.28666
	je	.L23	#,
	movq	PL_oldoldbufptr(%rip), %rax	# PL_oldoldbufptr, PL_oldoldbufptr.24
	movq	%rax, %rdi	# PL_oldoldbufptr.24,
	call	Perl_is_utf8_digit	#
	testb	%al, %al	# D.28666
	jne	.L23	#,
	.loc 1 257 0 discriminator 3
	movl	$1, %eax	#, iftmp.22
	jmp	.L24	#
.L23:
	.loc 1 257 0 discriminator 2
	movl	$0, %eax	#, iftmp.22
.L24:
	.loc 1 257 0 discriminator 4
	andl	$1, %eax	#, D.28662
	testb	%al, %al	# D.28662
	je	.L12	#,
.L22:
.LBB2:
	.loc 1 259 0 is_stmt 1
	movq	PL_oldoldbufptr(%rip), %rax	# PL_oldoldbufptr, tmp157
	movq	%rax, -16(%rbp)	# tmp157, t
	jmp	.L25	#
.L37:
	.loc 1 259 0 is_stmt 0 discriminator 1
	addq	$1, -16(%rbp)	#, t
.L25:
	movq	-16(%rbp), %rax	# t, tmp158
	movzbl	(%rax), %eax	# *t_2, D.28666
	testb	%al, %al	# D.28666
	je	.L26	#,
	.loc 1 259 0 discriminator 2
	movq	PL_curcop(%rip), %rax	# PL_curcop, PL_curcop.25
	movzbl	37(%rax), %eax	# PL_curcop.25_68->op_private, D.28668
	movzbl	%al, %eax	# D.28668, D.28667
	andl	$8, %eax	#, D.28667
	testl	%eax, %eax	# D.28667
	jne	.L27	#,
	.loc 1 259 0 discriminator 4
	movq	PL_linestr(%rip), %rax	# PL_linestr, PL_linestr.26
	testq	%rax, %rax	# PL_linestr.26
	je	.L28	#,
	.loc 1 259 0 discriminator 2
	movq	PL_linestr(%rip), %rax	# PL_linestr, PL_linestr.27
	movl	12(%rax), %eax	# PL_linestr.27_73->sv_flags, D.28669
	andl	$536870912, %eax	#, D.28669
	testl	%eax, %eax	# D.28669
	je	.L28	#,
	.loc 1 259 0 discriminator 1
	movq	PL_curcop(%rip), %rax	# PL_curcop, PL_curcop.28
	movzbl	37(%rax), %eax	# PL_curcop.28_76->op_private, D.28668
	movzbl	%al, %eax	# D.28668, D.28667
	andl	$8, %eax	#, D.28667
	testl	%eax, %eax	# D.28667
	je	.L29	#,
.L28:
	movl	PL_hints(%rip), %eax	# PL_hints, PL_hints.29
	andl	$8388608, %eax	#, D.28669
	testl	%eax, %eax	# D.28669
	je	.L27	#,
.L29:
	movq	-16(%rbp), %rax	# t, tmp159
	movzbl	(%rax), %eax	# MEM[(U8 *)t_2], D.28668
	cmpb	$-65, %al	#, D.28668
	ja	.L30	#,
.L27:
	.loc 1 259 0 discriminator 3
	movq	-16(%rbp), %rax	# t, tmp160
	movzbl	(%rax), %eax	# *t_2, D.28666
	cmpb	$64, %al	#, D.28666
	jle	.L31	#,
	.loc 1 259 0 discriminator 1
	movq	-16(%rbp), %rax	# t, tmp161
	movzbl	(%rax), %eax	# *t_2, D.28666
	cmpb	$90, %al	#, D.28666
	jle	.L32	#,
.L31:
	.loc 1 259 0 discriminator 2
	movq	-16(%rbp), %rax	# t, tmp162
	movzbl	(%rax), %eax	# *t_2, D.28666
	cmpb	$96, %al	#, D.28666
	jle	.L33	#,
	.loc 1 259 0 discriminator 1
	movq	-16(%rbp), %rax	# t, tmp163
	movzbl	(%rax), %eax	# *t_2, D.28666
	cmpb	$122, %al	#, D.28666
	jle	.L32	#,
.L33:
	.loc 1 259 0 discriminator 2
	movq	-16(%rbp), %rax	# t, tmp164
	movzbl	(%rax), %eax	# *t_2, D.28666
	cmpb	$47, %al	#, D.28666
	jle	.L34	#,
	.loc 1 259 0 discriminator 1
	movq	-16(%rbp), %rax	# t, tmp165
	movzbl	(%rax), %eax	# *t_2, D.28666
	cmpb	$57, %al	#, D.28666
	jle	.L32	#,
.L34:
	.loc 1 259 0 discriminator 2
	movq	-16(%rbp), %rax	# t, tmp166
	movzbl	(%rax), %eax	# *t_2, D.28666
	cmpb	$95, %al	#, D.28666
	jne	.L35	#,
.L32:
	.loc 1 259 0 discriminator 1
	movl	$1, %eax	#, iftmp.30
	jmp	.L36	#
.L35:
	.loc 1 259 0 discriminator 3
	movl	$0, %eax	#, iftmp.30
.L36:
	.loc 1 259 0 discriminator 4
	andl	$1, %eax	#, D.28662
	testb	%al, %al	# D.28662
	jne	.L37	#,
	.loc 1 259 0 discriminator 2
	jmp	.L38	#
.L30:
	.loc 1 259 0 discriminator 1
	movq	-16(%rbp), %rax	# t, tmp167
	movq	%rax, %rdi	# tmp167,
	call	Perl_is_utf8_alnum	#
	testb	%al, %al	# D.28666
	jne	.L37	#,
.L38:
	.loc 1 259 0 discriminator 3
	movq	-16(%rbp), %rax	# t, tmp168
	movzbl	(%rax), %eax	# *t_2, D.28666
	cmpb	$58, %al	#, D.28666
	je	.L37	#,
.L26:
	.loc 1 260 0 is_stmt 1
	movq	PL_bufptr(%rip), %rax	# PL_bufptr, PL_bufptr.31
	cmpq	%rax, -16(%rbp)	# PL_bufptr.31, t
	jae	.L39	#,
	.loc 1 260 0 is_stmt 0 discriminator 1
	movq	-16(%rbp), %rax	# t, tmp169
	movzbl	(%rax), %eax	# *t_2, D.28666
	cmpb	$32, %al	#, D.28666
	je	.L40	#,
	movq	-16(%rbp), %rax	# t, tmp170
	movzbl	(%rax), %eax	# *t_2, D.28666
	cmpb	$9, %al	#, D.28666
	je	.L40	#,
	movq	-16(%rbp), %rax	# t, tmp171
	movzbl	(%rax), %eax	# *t_2, D.28666
	cmpb	$10, %al	#, D.28666
	je	.L40	#,
	movq	-16(%rbp), %rax	# t, tmp172
	movzbl	(%rax), %eax	# *t_2, D.28666
	cmpb	$13, %al	#, D.28666
	je	.L40	#,
	movq	-16(%rbp), %rax	# t, tmp173
	movzbl	(%rax), %eax	# *t_2, D.28666
	cmpb	$12, %al	#, D.28666
	jne	.L39	#,
.L40:
	.loc 1 261 0 is_stmt 1
	movq	PL_oldoldbufptr(%rip), %rax	# PL_oldoldbufptr, PL_oldoldbufptr.32
	movq	-16(%rbp), %rcx	# t, t.33
	movq	PL_oldoldbufptr(%rip), %rdx	# PL_oldoldbufptr, PL_oldoldbufptr.34
	subq	%rdx, %rcx	# PL_oldoldbufptr.35, D.28670
	movq	%rcx, %rdx	# D.28670, D.28670
	movq	%rax, %rcx	# PL_oldoldbufptr.32,
	movl	$.LC2, %esi	#,
	movl	$28, %edi	#,
	movl	$0, %eax	#,
	call	Perl_warner	#
.LBE2:
	.loc 1 257 0
	jmp	.L10	#
.L39:
	jmp	.L10	#
.L12:
	.loc 1 267 0
	movq	-48(%rbp), %rdx	# s, s.36
	movq	-8(%rbp), %rax	# oldbp, oldbp.37
	subq	%rax, %rdx	# oldbp.37, D.28670
	movq	-8(%rbp), %rax	# oldbp, tmp174
	movq	%rax, %rcx	# tmp174,
	movl	$.LC3, %esi	#,
	movl	$28, %edi	#,
	movl	$0, %eax	#,
	call	Perl_warner	#
.L10:
	.loc 1 271 0
	movq	-8(%rbp), %rax	# oldbp, tmp175
	movq	%rax, PL_bufptr(%rip)	# tmp175, PL_bufptr
	.loc 1 272 0
	leave
	.cfi_def_cfa 7, 8
	ret
	.cfi_endproc
.LFE3:
	.size	S_no_op, .-S_no_op
	.section	.rodata
	.align 8
.LC4:
	.string	"Can't find string terminator %c%s%c anywhere before EOF"
	.text
	.type	S_missingterm, @function
S_missingterm:
.LFB4:
	.loc 1 285 0
	.cfi_startproc
	pushq	%rbp	#
	.cfi_def_cfa_offset 16
	.cfi_offset 6, -16
	movq	%rsp, %rbp	#,
	.cfi_def_cfa_register 6
	subq	$48, %rsp	#,
	movq	%rdi, -40(%rbp)	# s, s
	.loc 1 288 0
	cmpq	$0, -40(%rbp)	#, s
	je	.L42	#,
.LBB3:
	.loc 1 289 0
	movq	-40(%rbp), %rax	# s, tmp76
	movl	$10, %esi	#,
	movq	%rax, %rdi	# tmp76,
	call	strrchr	#
	movq	%rax, -8(%rbp)	# tmp77, nl
	.loc 1 290 0
	cmpq	$0, -8(%rbp)	#, nl
	je	.L43	#,
	.loc 1 291 0
	movq	-8(%rbp), %rax	# nl, tmp78
	movb	$0, (%rax)	#, *nl_5
.LBE3:
	jmp	.L44	#
.L43:
	jmp	.L44	#
.L42:
	.loc 1 297 0
	movl	PL_multi_close(%rip), %eax	# PL_multi_close, PL_multi_close.38
	.loc 1 293 0
	cmpl	$31, %eax	#, PL_multi_close.38
	jle	.L45	#,
	.loc 1 297 0
	movl	PL_multi_close(%rip), %eax	# PL_multi_close, PL_multi_close.39
	cmpl	$127, %eax	#, PL_multi_close.39
	jne	.L46	#,
.L45:
	.loc 1 300 0
	movb	$94, -16(%rbp)	#, tmpbuf
	.loc 1 301 0
	movl	PL_multi_close(%rip), %eax	# PL_multi_close, PL_multi_close.41
	cmpl	$96, %eax	#, PL_multi_close.41
	jle	.L47	#,
	.loc 1 301 0 is_stmt 0 discriminator 1
	movl	PL_multi_close(%rip), %eax	# PL_multi_close, PL_multi_close.42
	cmpl	$122, %eax	#, PL_multi_close.42
	jg	.L47	#,
	movl	PL_multi_close(%rip), %eax	# PL_multi_close, PL_multi_close.43
	subl	$32, %eax	#, D.28676
	xorl	$64, %eax	#, iftmp.40
	jmp	.L48	#
.L47:
	.loc 1 301 0 discriminator 2
	movl	PL_multi_close(%rip), %eax	# PL_multi_close, PL_multi_close.44
	xorl	$64, %eax	#, iftmp.40
.L48:
	.loc 1 301 0 discriminator 3
	movb	%al, -15(%rbp)	# iftmp.40, tmpbuf
	.loc 1 302 0 is_stmt 1 discriminator 3
	movb	$0, -14(%rbp)	#, tmpbuf
	.loc 1 303 0 discriminator 3
	leaq	-16(%rbp), %rax	#, tmp79
	movq	%rax, -40(%rbp)	# tmp79, s
	jmp	.L44	#
.L46:
	.loc 1 306 0
	movl	PL_multi_close(%rip), %eax	# PL_multi_close, PL_multi_close.45
	movb	%al, -16(%rbp)	# D.28675, tmpbuf
	.loc 1 307 0
	movb	$0, -15(%rbp)	#, tmpbuf
	.loc 1 308 0
	leaq	-16(%rbp), %rax	#, tmp80
	movq	%rax, -40(%rbp)	# tmp80, s
.L44:
	.loc 1 310 0
	movq	-40(%rbp), %rax	# s, tmp81
	movl	$34, %esi	#,
	movq	%rax, %rdi	# tmp81,
	call	strchr	#
	testq	%rax, %rax	# D.28677
	je	.L49	#,
	.loc 1 310 0 is_stmt 0 discriminator 1
	movl	$39, %eax	#, iftmp.46
	jmp	.L50	#
.L49:
	.loc 1 310 0 discriminator 2
	movl	$34, %eax	#, iftmp.46
.L50:
	.loc 1 310 0 discriminator 3
	movb	%al, -17(%rbp)	# iftmp.46, q
	.loc 1 311 0 is_stmt 1 discriminator 3
	movsbl	-17(%rbp), %ecx	# q, D.28678
	movsbl	-17(%rbp), %eax	# q, D.28678
	movq	-40(%rbp), %rdx	# s, tmp82
	movl	%eax, %esi	# D.28678,
	movl	$.LC4, %edi	#,
	movl	$0, %eax	#,
	call	Perl_croak	#
	.loc 1 312 0 discriminator 3
	leave
	.cfi_def_cfa 7, 8
	ret
	.cfi_endproc
.LFE4:
	.size	S_missingterm, .-S_missingterm
	.section	.rodata
.LC5:
	.string	"Use of %s is deprecated"
	.text
	.globl	Perl_deprecate
	.type	Perl_deprecate, @function
Perl_deprecate:
.LFB5:
	.loc 1 320 0
	.cfi_startproc
	pushq	%rbp	#
	.cfi_def_cfa_offset 16
	.cfi_offset 6, -16
	movq	%rsp, %rbp	#,
	.cfi_def_cfa_register 6
	subq	$16, %rsp	#,
	movq	%rdi, -8(%rbp)	# s, s
	.loc 1 321 0
	movq	PL_curcop(%rip), %rax	# PL_curcop, PL_curcop.47
	movq	80(%rax), %rax	# PL_curcop.47_1->cop_warnings, D.28680
	testq	%rax, %rax	# D.28680
	je	.L52	#,
	.loc 1 321 0 is_stmt 0 discriminator 1
	movq	PL_curcop(%rip), %rax	# PL_curcop, PL_curcop.48
	movq	80(%rax), %rax	# PL_curcop.48_3->cop_warnings, D.28680
	cmpq	$32, %rax	#, D.28680
	je	.L52	#,
	movq	PL_curcop(%rip), %rax	# PL_curcop, PL_curcop.49
	movq	80(%rax), %rax	# PL_curcop.49_5->cop_warnings, D.28680
	cmpq	$16, %rax	#, D.28680
	je	.L53	#,
	movq	PL_curcop(%rip), %rax	# PL_curcop, PL_curcop.50
	movq	80(%rax), %rax	# PL_curcop.50_7->cop_warnings, D.28680
	movq	(%rax), %rax	# _8->sv_any, D.28681
	movq	(%rax), %rax	# MEM[(struct XPV *)_9].xpv_pv, D.28682
	movzbl	(%rax), %eax	# *_10, D.28683
	movsbl	%al, %eax	# D.28683, D.28684
	andl	$16, %eax	#, D.28684
	testl	%eax, %eax	# D.28684
	jne	.L53	#,
.L52:
	.loc 1 321 0 discriminator 2
	movq	PL_curcop(%rip), %rax	# PL_curcop, PL_curcop.51
	movq	80(%rax), %rax	# PL_curcop.51_14->cop_warnings, D.28680
	testq	%rax, %rax	# D.28680
	jne	.L51	#,
	.loc 1 321 0 discriminator 1
	movzbl	PL_dowarn(%rip), %eax	# PL_dowarn, PL_dowarn.52
	movzbl	%al, %eax	# PL_dowarn.52, D.28684
	andl	$1, %eax	#, D.28684
	testl	%eax, %eax	# D.28684
	je	.L51	#,
.L53:
	.loc 1 322 0 is_stmt 1
	movq	-8(%rbp), %rax	# s, tmp77
	movq	%rax, %rdx	# tmp77,
	movl	$.LC5, %esi	#,
	movl	$2, %edi	#,
	movl	$0, %eax	#,
	call	Perl_warner	#
.L51:
	.loc 1 323 0
	leave
	.cfi_def_cfa 7, 8
	ret
	.cfi_endproc
.LFE5:
	.size	Perl_deprecate, .-Perl_deprecate
	.globl	Perl_deprecate_old
	.type	Perl_deprecate_old, @function
Perl_deprecate_old:
.LFB6:
	.loc 1 327 0
	.cfi_startproc
	pushq	%rbp	#
	.cfi_def_cfa_offset 16
	.cfi_offset 6, -16
	movq	%rsp, %rbp	#,
	.cfi_def_cfa_register 6
	subq	$16, %rsp	#,
	movq	%rdi, -8(%rbp)	# s, s
	.loc 1 336 0
	movq	PL_curcop(%rip), %rax	# PL_curcop, PL_curcop.53
	movq	80(%rax), %rax	# PL_curcop.53_1->cop_warnings, D.28686
	testq	%rax, %rax	# D.28686
	je	.L56	#,
	.loc 1 336 0 is_stmt 0 discriminator 1
	movq	PL_curcop(%rip), %rax	# PL_curcop, PL_curcop.54
	movq	80(%rax), %rax	# PL_curcop.54_3->cop_warnings, D.28686
	cmpq	$32, %rax	#, D.28686
	je	.L56	#,
	movq	PL_curcop(%rip), %rax	# PL_curcop, PL_curcop.55
	movq	80(%rax), %rax	# PL_curcop.55_5->cop_warnings, D.28686
	cmpq	$16, %rax	#, D.28686
	je	.L57	#,
	movq	PL_curcop(%rip), %rax	# PL_curcop, PL_curcop.56
	movq	80(%rax), %rax	# PL_curcop.56_7->cop_warnings, D.28686
	movq	(%rax), %rax	# _8->sv_any, D.28687
	movq	(%rax), %rax	# MEM[(struct XPV *)_9].xpv_pv, D.28688
	movzbl	(%rax), %eax	# *_10, D.28689
	movsbl	%al, %eax	# D.28689, D.28690
	andl	$16, %eax	#, D.28690
	testl	%eax, %eax	# D.28690
	jne	.L57	#,
	movq	PL_curcop(%rip), %rax	# PL_curcop, PL_curcop.57
	movq	80(%rax), %rax	# PL_curcop.57_14->cop_warnings, D.28686
	movq	(%rax), %rax	# _15->sv_any, D.28687
	movq	(%rax), %rax	# MEM[(struct XPV *)_16].xpv_pv, D.28688
	addq	$7, %rax	#, D.28688
	movzbl	(%rax), %eax	# *_18, D.28689
	movsbl	%al, %eax	# D.28689, D.28690
	andl	$1, %eax	#, D.28690
	testl	%eax, %eax	# D.28690
	jne	.L57	#,
.L56:
	.loc 1 336 0 discriminator 2
	movq	PL_curcop(%rip), %rax	# PL_curcop, PL_curcop.58
	movq	80(%rax), %rax	# PL_curcop.58_22->cop_warnings, D.28686
	testq	%rax, %rax	# D.28686
	jne	.L55	#,
	.loc 1 336 0 discriminator 1
	movzbl	PL_dowarn(%rip), %eax	# PL_dowarn, PL_dowarn.59
	movzbl	%al, %eax	# PL_dowarn.59, D.28690
	andl	$1, %eax	#, D.28690
	testl	%eax, %eax	# D.28690
	je	.L55	#,
.L57:
	.loc 1 337 0 is_stmt 1
	movq	-8(%rbp), %rax	# s, tmp85
	movq	%rax, %rdx	# tmp85,
	movl	$.LC5, %esi	#,
	movl	$7170, %edi	#,
	movl	$0, %eax	#,
	call	Perl_warner	#
.L55:
	.loc 1 339 0
	leave
	.cfi_def_cfa 7, 8
	ret
	.cfi_endproc
.LFE6:
	.size	Perl_deprecate_old, .-Perl_deprecate_old
	.section	.rodata
.LC6:
	.string	"comma-less variable list"
	.text
	.type	S_depcom, @function
S_depcom:
.LFB7:
	.loc 1 348 0
	.cfi_startproc
	pushq	%rbp	#
	.cfi_def_cfa_offset 16
	.cfi_offset 6, -16
	movq	%rsp, %rbp	#,
	.cfi_def_cfa_register 6
	.loc 1 349 0
	movl	$.LC6, %edi	#,
	call	Perl_deprecate_old	#
	.loc 1 350 0
	popq	%rbp	#
	.cfi_def_cfa 7, 8
	ret
	.cfi_endproc
.LFE7:
	.size	S_depcom, .-S_depcom
	.section	.rodata
.LC7:
	.string	"\n;"
	.text
	.globl	Perl_lex_start
	.type	Perl_lex_start, @function
Perl_lex_start:
.LFB8:
	.loc 1 398 0
	.cfi_startproc
	pushq	%rbp	#
	.cfi_def_cfa_offset 16
	.cfi_offset 6, -16
	movq	%rsp, %rbp	#,
	.cfi_def_cfa_register 6
	subq	$48, %rsp	#,
	movq	%rdi, -40(%rbp)	# line, line
	.loc 1 402 0
	movl	$PL_lex_dojoin, %edi	#,
	call	Perl_save_I32	#
	.loc 1 403 0
	movl	$PL_lex_brackets, %edi	#,
	call	Perl_save_I32	#
	.loc 1 404 0
	movl	$PL_lex_casemods, %edi	#,
	call	Perl_save_I32	#
	.loc 1 405 0
	movl	$PL_lex_starts, %edi	#,
	call	Perl_save_I32	#
	.loc 1 406 0
	movl	$PL_lex_state, %edi	#,
	call	Perl_save_I32	#
	.loc 1 407 0
	movl	$PL_lex_inpat, %edi	#,
	call	Perl_save_vptr	#
	.loc 1 408 0
	movl	$PL_lex_inwhat, %edi	#,
	call	Perl_save_I32	#
	.loc 1 409 0
	movl	PL_lex_state(%rip), %eax	# PL_lex_state, PL_lex_state.60
	testl	%eax, %eax	# PL_lex_state.60
	jne	.L61	#,
.LBB4:
	.loc 1 410 0
	movl	PL_nexttoke(%rip), %eax	# PL_nexttoke, tmp112
	movl	%eax, -20(%rbp)	# tmp112, toke
	.loc 1 411 0
	jmp	.L62	#
.L63:
	.loc 1 412 0
	movl	-20(%rbp), %eax	# toke, tmp114
	cltq
	salq	$2, %rax	#, tmp115
	addq	$PL_nexttype, %rax	#, D.28692
	movq	%rax, %rdi	# D.28692,
	call	Perl_save_I32	#
	.loc 1 413 0
	movl	-20(%rbp), %eax	# toke, tmp117
	cltq
	salq	$3, %rax	#, tmp118
	addq	$PL_nextval, %rax	#, D.28693
	movq	%rax, %rdi	# D.28693,
	call	Perl_save_vptr	#
.L62:
	.loc 1 411 0 discriminator 1
	subl	$1, -20(%rbp)	#, toke
	cmpl	$0, -20(%rbp)	#, toke
	jns	.L63	#,
	.loc 1 415 0
	movl	$PL_nexttoke, %edi	#,
	call	Perl_save_I32	#
.L61:
.LBE4:
	.loc 1 417 0
	movq	PL_curcop(%rip), %rax	# PL_curcop, PL_curcop.61
	addq	$72, %rax	#, D.28694
	movq	%rax, %rdi	# D.28694,
	call	Perl_save_I32	#
	.loc 1 418 0
	movl	$PL_bufptr, %edi	#,
	call	Perl_save_pptr	#
	.loc 1 419 0
	movl	$PL_bufend, %edi	#,
	call	Perl_save_pptr	#
	.loc 1 420 0
	movl	$PL_oldbufptr, %edi	#,
	call	Perl_save_pptr	#
	.loc 1 421 0
	movl	$PL_oldoldbufptr, %edi	#,
	call	Perl_save_pptr	#
	.loc 1 422 0
	movl	$PL_last_lop, %edi	#,
	call	Perl_save_pptr	#
	.loc 1 423 0
	movl	$PL_last_uni, %edi	#,
	call	Perl_save_pptr	#
	.loc 1 424 0
	movl	$PL_linestart, %edi	#,
	call	Perl_save_pptr	#
	.loc 1 425 0
	movl	$PL_linestr, %edi	#,
	call	Perl_save_sptr	#
	.loc 1 426 0
	movl	$PL_lex_brackstack, %edi	#,
	call	Perl_save_generic_pvref	#
	.loc 1 427 0
	movl	$PL_lex_casestack, %edi	#,
	call	Perl_save_generic_pvref	#
	.loc 1 428 0
	movq	PL_rsfp(%rip), %rax	# PL_rsfp, PL_rsfp.62
	movq	%rax, %rsi	# PL_rsfp.62,
	movl	$restore_rsfp, %edi	#,
	call	Perl_save_destructor_x	#
	.loc 1 429 0
	movl	$PL_lex_stuff, %edi	#,
	call	Perl_save_sptr	#
	.loc 1 430 0
	movl	$PL_lex_defer, %edi	#,
	call	Perl_save_I32	#
	.loc 1 431 0
	movl	$PL_sublex_info+4, %edi	#,
	call	Perl_save_I32	#
	.loc 1 432 0
	movl	$PL_lex_repl, %edi	#,
	call	Perl_save_sptr	#
	.loc 1 433 0
	movl	$PL_expect, %edi	#,
	call	Perl_save_int	#
	.loc 1 434 0
	movl	$PL_lex_expect, %edi	#,
	call	Perl_save_int	#
	.loc 1 436 0
	movl	$10, PL_lex_state(%rip)	#, PL_lex_state
	.loc 1 437 0
	movl	$0, PL_lex_defer(%rip)	#, PL_lex_defer
	.loc 1 438 0
	movl	$3, PL_expect(%rip)	#, PL_expect
	.loc 1 439 0
	movl	$0, PL_lex_brackets(%rip)	#, PL_lex_brackets
	.loc 1 440 0
	movl	$120, %edi	#,
	call	Perl_safesysmalloc	#
	movq	%rax, PL_lex_brackstack(%rip)	# PL_lex_brackstack.63, PL_lex_brackstack
	.loc 1 441 0
	movl	$12, %edi	#,
	call	Perl_safesysmalloc	#
	movq	%rax, PL_lex_casestack(%rip)	# PL_lex_casestack.64, PL_lex_casestack
	.loc 1 442 0
	movl	$0, PL_lex_casemods(%rip)	#, PL_lex_casemods
	.loc 1 443 0
	movq	PL_lex_casestack(%rip), %rax	# PL_lex_casestack, PL_lex_casestack.65
	movb	$0, (%rax)	#, *PL_lex_casestack.65_13
	.loc 1 444 0
	movl	$0, PL_lex_dojoin(%rip)	#, PL_lex_dojoin
	.loc 1 445 0
	movl	$0, PL_lex_starts(%rip)	#, PL_lex_starts
	.loc 1 446 0
	movq	$0, PL_lex_stuff(%rip)	#, PL_lex_stuff
	.loc 1 447 0
	movq	$0, PL_lex_repl(%rip)	#, PL_lex_repl
	.loc 1 448 0
	movq	$0, PL_lex_inpat(%rip)	#, PL_lex_inpat
	.loc 1 449 0
	movl	$0, PL_nexttoke(%rip)	#, PL_nexttoke
	.loc 1 450 0
	movl	$0, PL_lex_inwhat(%rip)	#, PL_lex_inwhat
	.loc 1 451 0
	movl	$0, PL_sublex_info+4(%rip)	#, PL_sublex_info.sub_inwhat
	.loc 1 452 0
	movq	-40(%rbp), %rax	# line, tmp119
	movq	%rax, PL_linestr(%rip)	# tmp119, PL_linestr
	.loc 1 453 0
	movq	PL_linestr(%rip), %rax	# PL_linestr, PL_linestr.66
	movl	12(%rax), %eax	# PL_linestr.66_15->sv_flags, D.28695
	andl	$8388608, %eax	#, D.28695
	testl	%eax, %eax	# D.28695
	je	.L64	#,
	.loc 1 454 0
	movq	PL_linestr(%rip), %rax	# PL_linestr, PL_linestr.67
	movq	%rax, %rdi	# PL_linestr.67,
	call	Perl_newSVsv	#
	movq	%rax, %rdi	# D.28696,
	call	Perl_sv_2mortal	#
	movq	%rax, PL_linestr(%rip)	# PL_linestr.68, PL_linestr
.L64:
	.loc 1 455 0
	movq	PL_linestr(%rip), %rax	# PL_linestr, PL_linestr.70
	movl	12(%rax), %eax	# PL_linestr.70_21->sv_flags, D.28695
	andl	$262144, %eax	#, D.28695
	testl	%eax, %eax	# D.28695
	je	.L65	#,
	.loc 1 455 0 is_stmt 0 discriminator 1
	movq	PL_linestr(%rip), %rax	# PL_linestr, PL_linestr.71
	movq	(%rax), %rax	# PL_linestr.71_24->sv_any, D.28697
	movq	8(%rax), %rax	# MEM[(struct XPV *)_25].xpv_cur, len.72
	movq	%rax, -16(%rbp)	# len.72, len
	movq	PL_linestr(%rip), %rax	# PL_linestr, PL_linestr.73
	movq	(%rax), %rax	# PL_linestr.73_27->sv_any, D.28697
	movq	(%rax), %rax	# MEM[(struct XPV *)_28].xpv_pv, iftmp.69
	jmp	.L66	#
.L65:
	.loc 1 455 0 discriminator 2
	movq	PL_linestr(%rip), %rax	# PL_linestr, PL_linestr.74
	leaq	-16(%rbp), %rcx	#, tmp120
	movl	$2, %edx	#,
	movq	%rcx, %rsi	# tmp120,
	movq	%rax, %rdi	# PL_linestr.74,
	call	Perl_sv_2pv_flags	#
.L66:
	.loc 1 455 0 discriminator 3
	movq	%rax, -8(%rbp)	# iftmp.69, s
	.loc 1 456 0 is_stmt 1 discriminator 3
	movq	-16(%rbp), %rax	# len, len.75
	testq	%rax, %rax	# len.75
	je	.L67	#,
	.loc 1 456 0 is_stmt 0 discriminator 1
	movq	-16(%rbp), %rax	# len, len.76
	leaq	-1(%rax), %rdx	#, D.28698
	movq	-8(%rbp), %rax	# s, tmp121
	addq	%rdx, %rax	# D.28698, D.28699
	movzbl	(%rax), %eax	# *_36, D.28700
	cmpb	$59, %al	#, D.28700
	je	.L68	#,
.L67:
	.loc 1 457 0 is_stmt 1
	movq	PL_linestr(%rip), %rax	# PL_linestr, PL_linestr.77
	movl	12(%rax), %eax	# PL_linestr.77_38->sv_flags, D.28695
	andl	$2048, %eax	#, D.28695
	testl	%eax, %eax	# D.28695
	jne	.L69	#,
	.loc 1 458 0
	movq	PL_linestr(%rip), %rax	# PL_linestr, PL_linestr.78
	movq	%rax, %rdi	# PL_linestr.78,
	call	Perl_newSVsv	#
	movq	%rax, %rdi	# D.28696,
	call	Perl_sv_2mortal	#
	movq	%rax, PL_linestr(%rip)	# PL_linestr.79, PL_linestr
.L69:
	.loc 1 459 0
	movq	PL_linestr(%rip), %rax	# PL_linestr, PL_linestr.80
	movl	$2, %ecx	#,
	movl	$2, %edx	#,
	movl	$.LC7, %esi	#,
	movq	%rax, %rdi	# PL_linestr.80,
	call	Perl_sv_catpvn_flags	#
.L68:
	.loc 1 461 0
	movq	PL_linestr(%rip), %rax	# PL_linestr, PL_linestr.81
	movq	PL_linestr(%rip), %rdx	# PL_linestr, PL_linestr.82
	movl	12(%rdx), %edx	# PL_linestr.82_46->sv_flags, D.28695
	andb	$247, %dh	#, D.28695
	movl	%edx, 12(%rax)	# D.28695, PL_linestr.81_45->sv_flags
	.loc 1 462 0
	movq	PL_linestr(%rip), %rax	# PL_linestr, PL_linestr.83
	movq	(%rax), %rax	# PL_linestr.83_49->sv_any, D.28697
	movq	(%rax), %rax	# MEM[(struct XPV *)_50].xpv_pv, PL_linestart.84
	movq	%rax, PL_linestart(%rip)	# PL_linestart.84, PL_linestart
	movq	PL_linestart(%rip), %rax	# PL_linestart, PL_linestart.85
	movq	%rax, PL_bufptr(%rip)	# PL_linestart.85, PL_bufptr
	movq	PL_bufptr(%rip), %rax	# PL_bufptr, PL_bufptr.86
	movq	%rax, PL_oldbufptr(%rip)	# PL_bufptr.86, PL_oldbufptr
	movq	PL_oldbufptr(%rip), %rax	# PL_oldbufptr, PL_oldbufptr.87
	movq	%rax, PL_oldoldbufptr(%rip)	# PL_oldbufptr.87, PL_oldoldbufptr
	.loc 1 463 0
	movq	PL_bufptr(%rip), %rdx	# PL_bufptr, PL_bufptr.88
	movq	PL_linestr(%rip), %rax	# PL_linestr, PL_linestr.89
	movq	(%rax), %rax	# PL_linestr.89_56->sv_any, D.28697
	movq	8(%rax), %rax	# MEM[(struct XPV *)_57].xpv_cur, D.28701
	addq	%rdx, %rax	# PL_bufptr.88, PL_bufend.90
	movq	%rax, PL_bufend(%rip)	# PL_bufend.90, PL_bufend
	.loc 1 464 0
	movq	$0, PL_last_uni(%rip)	#, PL_last_uni
	movq	PL_last_uni(%rip), %rax	# PL_last_uni, PL_last_uni.91
	movq	%rax, PL_last_lop(%rip)	# PL_last_uni.91, PL_last_lop
	.loc 1 465 0
	movq	$0, PL_rsfp(%rip)	#, PL_rsfp
	.loc 1 466 0
	leave
	.cfi_def_cfa 7, 8
	ret
	.cfi_endproc
.LFE8:
	.size	Perl_lex_start, .-Perl_lex_start
	.globl	Perl_lex_end
	.type	Perl_lex_end, @function
Perl_lex_end:
.LFB9:
	.loc 1 476 0
	.cfi_startproc
	pushq	%rbp	#
	.cfi_def_cfa_offset 16
	.cfi_offset 6, -16
	movq	%rsp, %rbp	#,
	.cfi_def_cfa_register 6
	.loc 1 477 0
	movb	$0, PL_doextract(%rip)	#, PL_doextract
	.loc 1 478 0
	popq	%rbp	#
	.cfi_def_cfa 7, 8
	ret
	.cfi_endproc
.LFE9:
	.size	Perl_lex_end, .-Perl_lex_end
	.section	.rodata
.LC8:
	.string	"line"
	.text
	.type	S_incline, @function
S_incline:
.LFB10:
	.loc 1 492 0
	.cfi_startproc
	pushq	%rbp	#
	.cfi_def_cfa_offset 16
	.cfi_offset 6, -16
	movq	%rsp, %rbp	#,
	.cfi_def_cfa_register 6
	pushq	%rbx	#
	subq	$56, %rsp	#,
	.cfi_offset 3, -24
	movq	%rdi, -56(%rbp)	# s, s
	.loc 1 498 0
	movq	PL_curcop(%rip), %rax	# PL_curcop, PL_curcop.92
	movl	72(%rax), %edx	# PL_curcop.92_10->cop_line, D.28703
	addl	$1, %edx	#, D.28703
	movl	%edx, 72(%rax)	# D.28703, PL_curcop.92_10->cop_line
	.loc 1 499 0
	movq	-56(%rbp), %rax	# s, s.93
	leaq	1(%rax), %rdx	#, tmp110
	movq	%rdx, -56(%rbp)	# tmp110, s
	movzbl	(%rax), %eax	# *s.93_14, D.28704
	cmpb	$35, %al	#, D.28704
	je	.L72	#,
	.loc 1 500 0
	jmp	.L71	#
.L72:
	.loc 1 501 0
	jmp	.L74	#
.L75:
	.loc 1 501 0 is_stmt 0 discriminator 2
	addq	$1, -56(%rbp)	#, s
.L74:
	.loc 1 501 0 discriminator 1
	movq	-56(%rbp), %rax	# s, tmp111
	movzbl	(%rax), %eax	# *s_1, D.28704
	cmpb	$32, %al	#, D.28704
	je	.L75	#,
	.loc 1 501 0 discriminator 3
	movq	-56(%rbp), %rax	# s, tmp112
	movzbl	(%rax), %eax	# *s_1, D.28704
	cmpb	$9, %al	#, D.28704
	je	.L75	#,
	.loc 1 502 0 is_stmt 1
	movq	-56(%rbp), %rax	# s, tmp113
	movl	$4, %edx	#,
	movl	$.LC8, %esi	#,
	movq	%rax, %rdi	# tmp113,
	call	strncmp	#
	testl	%eax, %eax	# D.28705
	jne	.L76	#,
	.loc 1 503 0
	addq	$4, -56(%rbp)	#, s
	.loc 1 506 0
	movq	-56(%rbp), %rax	# s, tmp114
	movzbl	(%rax), %eax	# *s_20, D.28704
	cmpb	$32, %al	#, D.28704
	je	.L78	#,
	jmp	.L100	#
.L76:
	.loc 1 505 0
	jmp	.L71	#
.L100:
	.loc 1 506 0 discriminator 1
	movq	-56(%rbp), %rax	# s, tmp115
	movzbl	(%rax), %eax	# *s_20, D.28704
	cmpb	$9, %al	#, D.28704
	jne	.L79	#,
.L78:
	.loc 1 507 0
	addq	$1, -56(%rbp)	#, s
	.loc 1 510 0
	jmp	.L80	#
.L79:
	.loc 1 509 0
	jmp	.L71	#
.L81:
	.loc 1 510 0 discriminator 2
	addq	$1, -56(%rbp)	#, s
.L80:
	.loc 1 510 0 is_stmt 0 discriminator 1
	movq	-56(%rbp), %rax	# s, tmp116
	movzbl	(%rax), %eax	# *s_2, D.28704
	cmpb	$32, %al	#, D.28704
	je	.L81	#,
	.loc 1 510 0 discriminator 3
	movq	-56(%rbp), %rax	# s, tmp117
	movzbl	(%rax), %eax	# *s_2, D.28704
	cmpb	$9, %al	#, D.28704
	je	.L81	#,
	.loc 1 511 0 is_stmt 1
	movq	-56(%rbp), %rax	# s, tmp118
	movzbl	(%rax), %eax	# *s_2, D.28704
	cmpb	$47, %al	#, D.28704
	jle	.L82	#,
	.loc 1 511 0 is_stmt 0 discriminator 1
	movq	-56(%rbp), %rax	# s, tmp119
	movzbl	(%rax), %eax	# *s_2, D.28704
	cmpb	$57, %al	#, D.28704
	jle	.L83	#,
.L82:
	.loc 1 512 0 is_stmt 1
	jmp	.L71	#
.L83:
	.loc 1 513 0
	movq	-56(%rbp), %rax	# s, tmp120
	movq	%rax, -24(%rbp)	# tmp120, n
	.loc 1 514 0
	jmp	.L84	#
.L86:
	.loc 1 515 0
	addq	$1, -56(%rbp)	#, s
.L84:
	.loc 1 514 0 discriminator 1
	movq	-56(%rbp), %rax	# s, tmp121
	movzbl	(%rax), %eax	# *s_3, D.28704
	cmpb	$47, %al	#, D.28704
	jle	.L85	#,
	.loc 1 514 0 is_stmt 0 discriminator 2
	movq	-56(%rbp), %rax	# s, tmp122
	movzbl	(%rax), %eax	# *s_3, D.28704
	cmpb	$57, %al	#, D.28704
	jle	.L86	#,
.L85:
	.loc 1 516 0 is_stmt 1
	jmp	.L87	#
.L88:
	.loc 1 517 0
	addq	$1, -56(%rbp)	#, s
.L87:
	.loc 1 516 0 discriminator 1
	movq	-56(%rbp), %rax	# s, tmp123
	movzbl	(%rax), %eax	# *s_4, D.28704
	cmpb	$32, %al	#, D.28704
	je	.L88	#,
	.loc 1 516 0 is_stmt 0 discriminator 2
	movq	-56(%rbp), %rax	# s, tmp124
	movzbl	(%rax), %eax	# *s_4, D.28704
	cmpb	$9, %al	#, D.28704
	je	.L88	#,
	.loc 1 518 0 is_stmt 1
	movq	-56(%rbp), %rax	# s, tmp125
	movzbl	(%rax), %eax	# *s_4, D.28704
	cmpb	$34, %al	#, D.28704
	jne	.L89	#,
	.loc 1 518 0 is_stmt 0 discriminator 1
	movq	-56(%rbp), %rax	# s, tmp126
	addq	$1, %rax	#, D.28706
	movl	$34, %esi	#,
	movq	%rax, %rdi	# D.28706,
	call	strchr	#
	movq	%rax, -40(%rbp)	# tmp127, t
	cmpq	$0, -40(%rbp)	#, t
	je	.L89	#,
	.loc 1 519 0 is_stmt 1
	addq	$1, -56(%rbp)	#, s
	.loc 1 520 0
	movq	-40(%rbp), %rax	# t, tmp131
	addq	$1, %rax	#, tmp130
	movq	%rax, -32(%rbp)	# tmp130, e
	.loc 1 526 0
	jmp	.L94	#
.L89:
	.loc 1 523 0
	movq	-56(%rbp), %rax	# s, tmp132
	movq	%rax, -40(%rbp)	# tmp132, t
	jmp	.L91	#
.L93:
	.loc 1 523 0 is_stmt 0 discriminator 1
	addq	$1, -40(%rbp)	#, t
.L91:
	movq	-40(%rbp), %rax	# t, tmp133
	movzbl	(%rax), %eax	# *t_6, D.28704
	cmpb	$32, %al	#, D.28704
	je	.L92	#,
	.loc 1 523 0 discriminator 2
	movq	-40(%rbp), %rax	# t, tmp134
	movzbl	(%rax), %eax	# *t_6, D.28704
	cmpb	$9, %al	#, D.28704
	je	.L92	#,
	.loc 1 523 0 discriminator 1
	movq	-40(%rbp), %rax	# t, tmp135
	movzbl	(%rax), %eax	# *t_6, D.28704
	cmpb	$10, %al	#, D.28704
	je	.L92	#,
	movq	-40(%rbp), %rax	# t, tmp136
	movzbl	(%rax), %eax	# *t_6, D.28704
	cmpb	$13, %al	#, D.28704
	je	.L92	#,
	movq	-40(%rbp), %rax	# t, tmp137
	movzbl	(%rax), %eax	# *t_6, D.28704
	cmpb	$12, %al	#, D.28704
	jne	.L93	#,
.L92:
	.loc 1 524 0 is_stmt 1
	movq	-40(%rbp), %rax	# t, tmp138
	movq	%rax, -32(%rbp)	# tmp138, e
	.loc 1 526 0
	jmp	.L94	#
.L95:
	.loc 1 527 0
	addq	$1, -32(%rbp)	#, e
.L94:
	.loc 1 526 0 discriminator 1
	movq	-32(%rbp), %rax	# e, tmp139
	movzbl	(%rax), %eax	# *e_9, D.28704
	cmpb	$32, %al	#, D.28704
	je	.L95	#,
	.loc 1 526 0 is_stmt 0 discriminator 2
	movq	-32(%rbp), %rax	# e, tmp140
	movzbl	(%rax), %eax	# *e_9, D.28704
	cmpb	$9, %al	#, D.28704
	je	.L95	#,
	.loc 1 526 0 discriminator 1
	movq	-32(%rbp), %rax	# e, tmp141
	movzbl	(%rax), %eax	# *e_9, D.28704
	cmpb	$13, %al	#, D.28704
	je	.L95	#,
	movq	-32(%rbp), %rax	# e, tmp142
	movzbl	(%rax), %eax	# *e_9, D.28704
	cmpb	$12, %al	#, D.28704
	je	.L95	#,
	.loc 1 528 0 is_stmt 1
	movq	-32(%rbp), %rax	# e, tmp143
	movzbl	(%rax), %eax	# *e_9, D.28704
	cmpb	$10, %al	#, D.28704
	je	.L96	#,
	.loc 1 528 0 is_stmt 0 discriminator 1
	movq	-32(%rbp), %rax	# e, tmp144
	movzbl	(%rax), %eax	# *e_9, D.28704
	testb	%al, %al	# D.28704
	je	.L96	#,
	.loc 1 529 0 is_stmt 1
	jmp	.L71	#
.L96:
	.loc 1 531 0
	movq	-40(%rbp), %rax	# t, tmp145
	movzbl	(%rax), %eax	# *t_7, tmp146
	movb	%al, -41(%rbp)	# tmp146, ch
	.loc 1 532 0
	movq	-40(%rbp), %rax	# t, tmp147
	movb	$0, (%rax)	#, *t_7
	.loc 1 533 0
	movq	-40(%rbp), %rdx	# t, t.94
	movq	-56(%rbp), %rax	# s, s.95
	subq	%rax, %rdx	# s.95, D.28707
	movq	%rdx, %rax	# D.28707, D.28707
	testq	%rax, %rax	# D.28707
	jle	.L97	#,
	.loc 1 534 0
	movq	PL_curcop(%rip), %rax	# PL_curcop, PL_curcop.96
	movq	56(%rax), %rax	# PL_curcop.96_57->cop_filegv, D.28708
	movq	%rax, %rdi	# D.28708,
	call	Perl_sv_free	#
	movq	PL_curcop(%rip), %rax	# PL_curcop, PL_curcop.97
	movq	$0, 56(%rax)	#, PL_curcop.97_59->cop_filegv
	.loc 1 535 0
	movq	-56(%rbp), %rax	# s, tmp148
	movq	%rax, %rdi	# tmp148,
	call	Perl_gv_fetchfile	#
	movq	%rax, PL_Sv(%rip)	# PL_Sv.98, PL_Sv
	movq	PL_Sv(%rip), %rax	# PL_Sv, PL_Sv.100
	testq	%rax, %rax	# PL_Sv.100
	je	.L99	#,
	.loc 1 535 0 is_stmt 0 discriminator 1
	movq	PL_Sv(%rip), %rax	# PL_Sv, PL_Sv.101
	movl	8(%rax), %edx	# PL_Sv.101_62->sv_refcnt, D.28703
	addl	$1, %edx	#, D.28703
	movl	%edx, 8(%rax)	# D.28703, PL_Sv.101_62->sv_refcnt
	movl	8(%rax), %eax	# PL_Sv.101_62->sv_refcnt, D.28703
	testl	%eax, %eax	# D.28703
	je	.L99	#,
	.loc 1 535 0
	nop
.L99:
	.loc 1 535 0 discriminator 4
	movq	PL_curcop(%rip), %rax	# PL_curcop, PL_curcop.102
	movq	PL_Sv(%rip), %rdx	# PL_Sv, PL_Sv.103
	movq	%rdx, 56(%rax)	# PL_Sv.103, PL_curcop.102_68->cop_filegv
.L97:
	.loc 1 537 0 is_stmt 1
	movq	-40(%rbp), %rax	# t, tmp149
	movzbl	-41(%rbp), %edx	# ch, tmp150
	movb	%dl, (%rax)	# tmp150, *t_7
	.loc 1 538 0
	movq	PL_curcop(%rip), %rbx	# PL_curcop, PL_curcop.104
	movq	-24(%rbp), %rax	# n, tmp151
	movq	%rax, %rdi	# tmp151,
	call	atoi	#
	subl	$1, %eax	#, D.28705
	movl	%eax, 72(%rbx)	# D.28703, PL_curcop.104_70->cop_line
.L71:
	.loc 1 539 0
	addq	$56, %rsp	#,
	popq	%rbx	#
	popq	%rbp	#
	.cfi_def_cfa 7, 8
	ret
	.cfi_endproc
.LFE10:
	.size	S_incline, .-S_incline
	.section	.rodata
	.align 8
.LC9:
	.string	";}continue{print or die qq(-p destination: $!\\n);}"
.LC10:
	.string	";}"
.LC11:
	.string	";"
	.text
	.type	S_skipspace, @function
S_skipspace:
.LFB11:
	.loc 1 549 0
	.cfi_startproc
	pushq	%rbp	#
	.cfi_def_cfa_offset 16
	.cfi_offset 6, -16
	movq	%rsp, %rbp	#,
	.cfi_def_cfa_register 6
	pushq	%rbx	#
	subq	$56, %rsp	#,
	.cfi_offset 3, -24
	movq	%rdi, %rbx	# s, s
	.loc 1 550 0
	movl	PL_lex_formbrack(%rip), %eax	# PL_lex_formbrack, PL_lex_formbrack.105
	testl	%eax, %eax	# PL_lex_formbrack.105
	je	.L102	#,
	.loc 1 550 0 is_stmt 0 discriminator 1
	movl	PL_lex_brackets(%rip), %edx	# PL_lex_brackets, PL_lex_brackets.106
	movl	PL_lex_formbrack(%rip), %eax	# PL_lex_formbrack, PL_lex_formbrack.107
	cmpl	%eax, %edx	# PL_lex_formbrack.107, PL_lex_brackets.106
	jg	.L102	#,
	.loc 1 551 0 is_stmt 1
	jmp	.L103	#
.L105:
	.loc 1 552 0
	addq	$1, %rbx	#, s
.L103:
	.loc 1 551 0 discriminator 1
	movq	PL_bufend(%rip), %rax	# PL_bufend, PL_bufend.108
	cmpq	%rax, %rbx	# PL_bufend.108, s
	jae	.L104	#,
	.loc 1 551 0 is_stmt 0 discriminator 2
	movzbl	(%rbx), %eax	# *s_1, D.28711
	cmpb	$32, %al	#, D.28711
	je	.L105	#,
	.loc 1 551 0 discriminator 1
	movzbl	(%rbx), %eax	# *s_1, D.28711
	cmpb	$9, %al	#, D.28711
	je	.L105	#,
.L104:
	.loc 1 553 0 is_stmt 1
	movq	%rbx, %rax	# s, D.28710
	jmp	.L106	#
.L102:
.LBB5:
	.loc 1 558 0
	movq	$0, -64(%rbp)	#, oldloplen
	movq	$0, -56(%rbp)	#, oldunilen
	.loc 1 559 0
	jmp	.L107	#
.L109:
	.loc 1 560 0
	movq	%rbx, %rax	# s, s.109
	leaq	1(%rax), %rbx	#, s
	movzbl	(%rax), %eax	# *s.109_28, D.28711
	cmpb	$10, %al	#, D.28711
	jne	.L107	#,
	.loc 1 560 0 is_stmt 0 discriminator 1
	movl	PL_in_eval(%rip), %eax	# PL_in_eval, PL_in_eval.110
	testl	%eax, %eax	# PL_in_eval.110
	je	.L107	#,
	movq	PL_rsfp(%rip), %rax	# PL_rsfp, PL_rsfp.111
	testq	%rax, %rax	# PL_rsfp.111
	jne	.L107	#,
	.loc 1 561 0 is_stmt 1
	movq	%rbx, %rdi	# s,
	call	S_incline	#
.L107:
	.loc 1 559 0 discriminator 1
	movq	PL_bufend(%rip), %rax	# PL_bufend, PL_bufend.112
	cmpq	%rax, %rbx	# PL_bufend.112, s
	jae	.L108	#,
	.loc 1 559 0 is_stmt 0 discriminator 2
	movzbl	(%rbx), %eax	# *s_3, D.28711
	cmpb	$32, %al	#, D.28711
	je	.L109	#,
	.loc 1 559 0 discriminator 1
	movzbl	(%rbx), %eax	# *s_3, D.28711
	cmpb	$9, %al	#, D.28711
	je	.L109	#,
	movzbl	(%rbx), %eax	# *s_3, D.28711
	cmpb	$10, %al	#, D.28711
	je	.L109	#,
	movzbl	(%rbx), %eax	# *s_3, D.28711
	cmpb	$13, %al	#, D.28711
	je	.L109	#,
	movzbl	(%rbx), %eax	# *s_3, D.28711
	cmpb	$12, %al	#, D.28711
	je	.L109	#,
.L108:
	.loc 1 565 0 is_stmt 1
	movq	PL_bufend(%rip), %rax	# PL_bufend, PL_bufend.113
	cmpq	%rax, %rbx	# PL_bufend.113, s
	jae	.L110	#,
	.loc 1 565 0 is_stmt 0 discriminator 1
	movzbl	(%rbx), %eax	# *s_3, D.28711
	cmpb	$35, %al	#, D.28711
	jne	.L110	#,
	.loc 1 566 0 is_stmt 1
	jmp	.L111	#
.L113:
	.loc 1 567 0
	addq	$1, %rbx	#, s
.L111:
	.loc 1 566 0 discriminator 1
	movq	PL_bufend(%rip), %rax	# PL_bufend, PL_bufend.114
	cmpq	%rax, %rbx	# PL_bufend.114, s
	jae	.L112	#,
	.loc 1 566 0 is_stmt 0 discriminator 2
	movzbl	(%rbx), %eax	# *s_4, D.28711
	cmpb	$10, %al	#, D.28711
	jne	.L113	#,
.L112:
	.loc 1 568 0 is_stmt 1
	movq	PL_bufend(%rip), %rax	# PL_bufend, PL_bufend.115
	cmpq	%rax, %rbx	# PL_bufend.115, s
	jae	.L110	#,
	.loc 1 569 0
	addq	$1, %rbx	#, s
	.loc 1 570 0
	movl	PL_in_eval(%rip), %eax	# PL_in_eval, PL_in_eval.116
	testl	%eax, %eax	# PL_in_eval.116
	je	.L110	#,
	.loc 1 570 0 is_stmt 0 discriminator 1
	movq	PL_rsfp(%rip), %rax	# PL_rsfp, PL_rsfp.117
	testq	%rax, %rax	# PL_rsfp.117
	jne	.L110	#,
	.loc 1 571 0 is_stmt 1
	movq	%rbx, %rdi	# s,
	call	S_incline	#
	.loc 1 572 0
	jmp	.L114	#
.L110:
	.loc 1 581 0
	movq	PL_bufend(%rip), %rax	# PL_bufend, PL_bufend.118
	cmpq	%rax, %rbx	# PL_bufend.118, s
	jb	.L115	#,
	.loc 1 581 0 is_stmt 0 discriminator 1
	movq	PL_rsfp(%rip), %rax	# PL_rsfp, PL_rsfp.119
	testq	%rax, %rax	# PL_rsfp.119
	je	.L115	#,
	movl	PL_sublex_info+4(%rip), %eax	# PL_sublex_info.sub_inwhat, D.28712
	testl	%eax, %eax	# D.28712
	jne	.L115	#,
	.loc 1 582 0 is_stmt 1 discriminator 1
	movl	PL_lex_state(%rip), %eax	# PL_lex_state, PL_lex_state.120
	.loc 1 581 0 discriminator 1
	cmpl	$1, %eax	#, PL_lex_state.120
	jne	.L116	#,
.L115:
	.loc 1 583 0
	movq	%rbx, %rax	# s, D.28710
	jmp	.L106	#
.L116:
	.loc 1 587 0
	movq	PL_linestr(%rip), %rax	# PL_linestr, PL_linestr.121
	movq	(%rax), %rax	# PL_linestr.121_46->sv_any, D.28713
	.loc 1 586 0
	movq	8(%rax), %rax	# MEM[(struct XPV *)_47].xpv_cur, tmp183
	movq	%rax, -48(%rbp)	# tmp183, prevlen
	movq	PL_rsfp(%rip), %rcx	# PL_rsfp, PL_rsfp.122
	movq	PL_linestr(%rip), %rax	# PL_linestr, PL_linestr.123
	movq	-48(%rbp), %rdx	# prevlen, tmp184
	movq	%rcx, %rsi	# PL_rsfp.122,
	movq	%rax, %rdi	# PL_linestr.123,
	call	S_filter_gets	#
	movq	%rax, %rbx	#, s
	testq	%rbx, %rbx	# s
	jne	.L117	#,
	.loc 1 590 0
	movzbl	PL_minus_p(%rip), %eax	# PL_minus_p, PL_minus_p.124
	testb	%al, %al	# PL_minus_p.124
	je	.L118	#,
	.loc 1 591 0
	movq	PL_linestr(%rip), %rax	# PL_linestr, PL_linestr.125
	movl	$.LC9, %esi	#,
	movq	%rax, %rdi	# PL_linestr.125,
	call	Perl_sv_setpv	#
	.loc 1 593 0
	movb	$0, PL_minus_p(%rip)	#, PL_minus_p
	movzbl	PL_minus_p(%rip), %eax	# PL_minus_p, PL_minus_p.126
	movb	%al, PL_minus_n(%rip)	# PL_minus_p.126, PL_minus_n
	jmp	.L119	#
.L118:
	.loc 1 595 0
	movzbl	PL_minus_n(%rip), %eax	# PL_minus_n, PL_minus_n.127
	testb	%al, %al	# PL_minus_n.127
	je	.L120	#,
	.loc 1 596 0
	movq	PL_linestr(%rip), %rax	# PL_linestr, PL_linestr.128
	movl	$2, %edx	#,
	movl	$.LC10, %esi	#,
	movq	%rax, %rdi	# PL_linestr.128,
	call	Perl_sv_setpvn	#
	.loc 1 597 0
	movb	$0, PL_minus_n(%rip)	#, PL_minus_n
	jmp	.L119	#
.L120:
	.loc 1 600 0
	movq	PL_linestr(%rip), %rax	# PL_linestr, PL_linestr.129
	movl	$1, %edx	#,
	movl	$.LC11, %esi	#,
	movq	%rax, %rdi	# PL_linestr.129,
	call	Perl_sv_setpvn	#
.L119:
	.loc 1 604 0
	movq	PL_linestr(%rip), %rax	# PL_linestr, PL_linestr.130
	movq	(%rax), %rax	# PL_linestr.130_58->sv_any, D.28713
	movq	(%rax), %rax	# MEM[(struct XPV *)_59].xpv_pv, PL_linestart.131
	movq	%rax, PL_linestart(%rip)	# PL_linestart.131, PL_linestart
	.loc 1 603 0
	movq	PL_linestart(%rip), %rbx	# PL_linestart, s
	movq	%rbx, PL_bufptr(%rip)	# s, PL_bufptr
	movq	PL_bufptr(%rip), %rax	# PL_bufptr, PL_bufptr.132
	movq	%rax, PL_oldbufptr(%rip)	# PL_bufptr.132, PL_oldbufptr
	movq	PL_oldbufptr(%rip), %rax	# PL_oldbufptr, PL_oldbufptr.133
	movq	%rax, PL_oldoldbufptr(%rip)	# PL_oldbufptr.133, PL_oldoldbufptr
	.loc 1 605 0
	movq	PL_linestr(%rip), %rax	# PL_linestr, PL_linestr.134
	movq	(%rax), %rax	# PL_linestr.134_64->sv_any, D.28713
	movq	(%rax), %rdx	# MEM[(struct XPV *)_65].xpv_pv, D.28710
	movq	PL_linestr(%rip), %rax	# PL_linestr, PL_linestr.135
	movq	(%rax), %rax	# PL_linestr.135_67->sv_any, D.28713
	movq	8(%rax), %rax	# MEM[(struct XPV *)_68].xpv_cur, D.28714
	addq	%rdx, %rax	# D.28710, PL_bufend.136
	movq	%rax, PL_bufend(%rip)	# PL_bufend.136, PL_bufend
	.loc 1 606 0
	movq	$0, PL_last_uni(%rip)	#, PL_last_uni
	movq	PL_last_uni(%rip), %rax	# PL_last_uni, PL_last_uni.137
	movq	%rax, PL_last_lop(%rip)	# PL_last_uni.137, PL_last_lop
	.loc 1 615 0
	movzbl	PL_preprocess(%rip), %eax	# PL_preprocess, PL_preprocess.138
	testb	%al, %al	# PL_preprocess.138
	je	.L121	#,
	.loc 1 615 0 is_stmt 0 discriminator 1
	movl	PL_in_eval(%rip), %eax	# PL_in_eval, PL_in_eval.139
	testl	%eax, %eax	# PL_in_eval.139
	jne	.L121	#,
	.loc 1 616 0 is_stmt 1
	movq	PL_rsfp(%rip), %rax	# PL_rsfp, PL_rsfp.140
	movq	%rax, %rdi	# PL_rsfp.140,
	call	Perl_my_pclose	#
	jmp	.L122	#
.L121:
	.loc 1 617 0
	call	Perl_PerlIO_stdin	#
	movq	PL_rsfp(%rip), %rdx	# PL_rsfp, PL_rsfp.141
	cmpq	%rdx, %rax	# PL_rsfp.141, D.28715
	jne	.L123	#,
	.loc 1 618 0
	movq	PL_rsfp(%rip), %rax	# PL_rsfp, PL_rsfp.142
	movq	%rax, %rdi	# PL_rsfp.142,
	call	Perl_PerlIO_clearerr	#
	jmp	.L122	#
.L123:
	.loc 1 620 0
	movq	PL_rsfp(%rip), %rax	# PL_rsfp, PL_rsfp.143
	movq	%rax, %rdi	# PL_rsfp.143,
	call	Perl_PerlIO_close	#
.L122:
	.loc 1 621 0
	movq	$0, PL_rsfp(%rip)	#, PL_rsfp
	.loc 1 622 0
	movq	%rbx, %rax	# s, D.28710
	jmp	.L106	#
.L117:
	.loc 1 627 0
	movq	PL_oldbufptr(%rip), %rax	# PL_oldbufptr, PL_oldbufptr.144
	movq	%rax, %rdx	# PL_oldbufptr.144, PL_oldbufptr.145
	movq	PL_bufend(%rip), %rax	# PL_bufend, PL_bufend.146
	subq	%rax, %rdx	# PL_bufend.147, tmp185
	movq	%rdx, %rax	# tmp185, tmp185
	movq	%rax, -40(%rbp)	# tmp185, oldprevlen
	.loc 1 628 0
	movq	PL_oldoldbufptr(%rip), %rax	# PL_oldoldbufptr, PL_oldoldbufptr.148
	movq	%rax, %rdx	# PL_oldoldbufptr.148, PL_oldoldbufptr.149
	movq	PL_bufend(%rip), %rax	# PL_bufend, PL_bufend.150
	subq	%rax, %rdx	# PL_bufend.151, tmp186
	movq	%rdx, %rax	# tmp186, tmp186
	movq	%rax, -32(%rbp)	# tmp186, oldoldprevlen
	.loc 1 629 0
	movq	PL_last_uni(%rip), %rax	# PL_last_uni, PL_last_uni.152
	testq	%rax, %rax	# PL_last_uni.152
	je	.L124	#,
	.loc 1 630 0
	movq	PL_last_uni(%rip), %rax	# PL_last_uni, PL_last_uni.153
	movq	%rax, %rdx	# PL_last_uni.153, PL_last_uni.154
	movq	PL_bufend(%rip), %rax	# PL_bufend, PL_bufend.155
	subq	%rax, %rdx	# PL_bufend.156, tmp187
	movq	%rdx, %rax	# tmp187, tmp187
	movq	%rax, -56(%rbp)	# tmp187, oldunilen
.L124:
	.loc 1 631 0
	movq	PL_last_lop(%rip), %rax	# PL_last_lop, PL_last_lop.157
	testq	%rax, %rax	# PL_last_lop.157
	je	.L125	#,
	.loc 1 632 0
	movq	PL_last_lop(%rip), %rax	# PL_last_lop, PL_last_lop.158
	movq	%rax, %rdx	# PL_last_lop.158, PL_last_lop.159
	movq	PL_bufend(%rip), %rax	# PL_bufend, PL_bufend.160
	subq	%rax, %rdx	# PL_bufend.161, tmp188
	movq	%rdx, %rax	# tmp188, tmp188
	movq	%rax, -64(%rbp)	# tmp188, oldloplen
.L125:
	.loc 1 633 0
	movq	-48(%rbp), %rax	# prevlen, tmp189
	addq	%rbx, %rax	# s, PL_bufptr.162
	movq	%rax, PL_bufptr(%rip)	# PL_bufptr.162, PL_bufptr
	movq	PL_bufptr(%rip), %rax	# PL_bufptr, PL_bufptr.163
	movq	%rax, PL_linestart(%rip)	# PL_bufptr.163, PL_linestart
	.loc 1 634 0
	movq	PL_linestr(%rip), %rax	# PL_linestr, PL_linestr.164
	movq	(%rax), %rax	# PL_linestr.164_104->sv_any, D.28713
	movq	8(%rax), %rax	# MEM[(struct XPV *)_105].xpv_cur, D.28714
	addq	%rbx, %rax	# s, PL_bufend.165
	movq	%rax, PL_bufend(%rip)	# PL_bufend.165, PL_bufend
	.loc 1 635 0
	movq	PL_bufptr(%rip), %rbx	# PL_bufptr, s
	.loc 1 636 0
	movq	-40(%rbp), %rax	# oldprevlen, oldprevlen.166
	addq	%rbx, %rax	# s, PL_oldbufptr.167
	movq	%rax, PL_oldbufptr(%rip)	# PL_oldbufptr.167, PL_oldbufptr
	.loc 1 637 0
	movq	-32(%rbp), %rax	# oldoldprevlen, oldoldprevlen.168
	addq	%rbx, %rax	# s, PL_oldoldbufptr.169
	movq	%rax, PL_oldoldbufptr(%rip)	# PL_oldoldbufptr.169, PL_oldoldbufptr
	.loc 1 638 0
	movq	PL_last_uni(%rip), %rax	# PL_last_uni, PL_last_uni.170
	testq	%rax, %rax	# PL_last_uni.170
	je	.L126	#,
	.loc 1 639 0
	movq	-56(%rbp), %rax	# oldunilen, oldunilen.171
	addq	%rbx, %rax	# s, PL_last_uni.172
	movq	%rax, PL_last_uni(%rip)	# PL_last_uni.172, PL_last_uni
.L126:
	.loc 1 640 0
	movq	PL_last_lop(%rip), %rax	# PL_last_lop, PL_last_lop.173
	testq	%rax, %rax	# PL_last_lop.173
	je	.L127	#,
	.loc 1 641 0
	movq	-64(%rbp), %rax	# oldloplen, oldloplen.174
	addq	%rbx, %rax	# s, PL_last_lop.175
	movq	%rax, PL_last_lop(%rip)	# PL_last_lop.175, PL_last_lop
.L127:
	.loc 1 642 0
	movq	%rbx, %rdi	# s,
	call	S_incline	#
	.loc 1 647 0
	movl	PL_perldb(%rip), %eax	# PL_perldb, PL_perldb.176
	testl	%eax, %eax	# PL_perldb.176
	je	.L114	#,
	.loc 1 647 0 is_stmt 0 discriminator 1
	movl	PL_perldb(%rip), %eax	# PL_perldb, PL_perldb.177
	andl	$2, %eax	#, D.28716
	testl	%eax, %eax	# D.28716
	je	.L114	#,
	movq	PL_curstash(%rip), %rdx	# PL_curstash, PL_curstash.178
	movq	PL_debstash(%rip), %rax	# PL_debstash, PL_debstash.179
	cmpq	%rax, %rdx	# PL_debstash.179, PL_curstash.178
	je	.L114	#,
.LBB6:
	.loc 1 648 0 is_stmt 1
	movl	$0, %edi	#,
	call	Perl_newSV	#
	movq	%rax, -24(%rbp)	# tmp190, sv
	.loc 1 650 0
	movq	-24(%rbp), %rax	# sv, tmp191
	movl	$7, %esi	#,
	movq	%rax, %rdi	# tmp191,
	call	Perl_sv_upgrade	#
	.loc 1 651 0
	movq	PL_bufend(%rip), %rax	# PL_bufend, PL_bufend.180
	movq	%rax, %rdx	# PL_bufend.180, PL_bufend.181
	movq	PL_bufptr(%rip), %rax	# PL_bufptr, PL_bufptr.182
	subq	%rax, %rdx	# PL_bufptr.183, D.28717
	movq	%rdx, %rax	# D.28717, D.28717
	movq	%rax, %rdx	# D.28717, D.28714
	movq	PL_bufptr(%rip), %rcx	# PL_bufptr, PL_bufptr.184
	movq	-24(%rbp), %rax	# sv, tmp192
	movq	%rcx, %rsi	# PL_bufptr.184,
	movq	%rax, %rdi	# tmp192,
	call	Perl_sv_setpvn	#
	.loc 1 652 0
	movq	-24(%rbp), %rax	# sv, tmp193
	movl	12(%rax), %eax	# sv_124->sv_flags, D.28716
	andl	$2097152, %eax	#, D.28716
	testl	%eax, %eax	# D.28716
	je	.L129	#,
	.loc 1 652 0 is_stmt 0 discriminator 1
	movq	-24(%rbp), %rax	# sv, tmp194
	movq	%rax, %rdi	# tmp194,
	call	Perl_sv_backoff	#
	testl	%eax, %eax	# D.28712
	je	.L129	#,
	.loc 1 652 0
	nop
.L129:
	.loc 1 652 0 discriminator 3
	movq	-24(%rbp), %rax	# sv, tmp195
	movl	12(%rax), %eax	# sv_124->sv_flags, D.28716
	orl	$16842752, %eax	#, D.28716
	movl	%eax, %edx	# D.28716, D.28716
	movq	-24(%rbp), %rax	# sv, tmp196
	movl	%edx, 12(%rax)	# D.28716, sv_124->sv_flags
	.loc 1 653 0 is_stmt 1 discriminator 3
	movq	-24(%rbp), %rax	# sv, tmp197
	movq	(%rax), %rax	# sv_124->sv_any, D.28713
	movq	$0, 24(%rax)	#, MEM[(struct XPVIV *)_139].xiv_iv
	.loc 1 654 0 discriminator 3
	movq	PL_curcop(%rip), %rax	# PL_curcop, PL_curcop.186
	movl	72(%rax), %eax	# PL_curcop.186_140->cop_line, D.28716
	movl	%eax, %ecx	# D.28716, D.28712
	movq	PL_curcop(%rip), %rax	# PL_curcop, PL_curcop.188
	movq	56(%rax), %rax	# PL_curcop.188_143->cop_filegv, D.28718
	testq	%rax, %rax	# D.28718
	je	.L130	#,
	.loc 1 654 0 is_stmt 0 discriminator 1
	movq	PL_curcop(%rip), %rax	# PL_curcop, PL_curcop.189
	movq	56(%rax), %rax	# PL_curcop.189_145->cop_filegv, D.28718
	movq	(%rax), %rax	# _146->sv_any, D.28719
	movq	56(%rax), %rax	# _147->xgv_gp, D.28720
	movq	32(%rax), %rax	# _148->gp_av, iftmp.187
	jmp	.L131	#
.L130:
	.loc 1 654 0 discriminator 2
	movl	$0, %eax	#, iftmp.187
.L131:
	.loc 1 654 0 discriminator 3
	movq	-24(%rbp), %rdx	# sv, tmp198
	movl	%ecx, %esi	# D.28712,
	movq	%rax, %rdi	# iftmp.187,
	call	Perl_av_store	#
.LBE6:
.LBE5:
	.loc 1 656 0 is_stmt 1 discriminator 3
	jmp	.L102	#
.L114:
	.loc 1 656 0 is_stmt 0
	jmp	.L102	#
.L106:
	.loc 1 657 0 is_stmt 1
	addq	$56, %rsp	#,
	popq	%rbx	#
	popq	%rbp	#
	.cfi_def_cfa 7, 8
	ret
	.cfi_endproc
.LFE11:
	.size	S_skipspace, .-S_skipspace
	.section	.rodata
	.align 8
.LC12:
	.string	"Warning: Use of \"%s\" without parentheses is ambiguous"
	.text
	.type	S_check_uni, @function
S_check_uni:
.LFB12:
	.loc 1 670 0
	.cfi_startproc
	pushq	%rbp	#
	.cfi_def_cfa_offset 16
	.cfi_offset 6, -16
	movq	%rsp, %rbp	#,
	.cfi_def_cfa_register 6
	subq	$32, %rsp	#,
	.loc 1 674 0
	movq	PL_oldoldbufptr(%rip), %rdx	# PL_oldoldbufptr, PL_oldoldbufptr.190
	movq	PL_last_uni(%rip), %rax	# PL_last_uni, PL_last_uni.191
	cmpq	%rax, %rdx	# PL_last_uni.191, PL_oldoldbufptr.190
	je	.L133	#,
	.loc 1 675 0
	jmp	.L132	#
.L133:
	.loc 1 676 0
	jmp	.L135	#
.L136:
	.loc 1 677 0
	movq	PL_last_uni(%rip), %rax	# PL_last_uni, PL_last_uni.192
	addq	$1, %rax	#, PL_last_uni.193
	movq	%rax, PL_last_uni(%rip)	# PL_last_uni.193, PL_last_uni
.L135:
	.loc 1 676 0 discriminator 1
	movq	PL_last_uni(%rip), %rax	# PL_last_uni, PL_last_uni.194
	movzbl	(%rax), %eax	# *PL_last_uni.194_5, D.28724
	cmpb	$32, %al	#, D.28724
	je	.L136	#,
	.loc 1 676 0 is_stmt 0 discriminator 2
	movq	PL_last_uni(%rip), %rax	# PL_last_uni, PL_last_uni.195
	movzbl	(%rax), %eax	# *PL_last_uni.195_7, D.28724
	cmpb	$9, %al	#, D.28724
	je	.L136	#,
	.loc 1 676 0 discriminator 1
	movq	PL_last_uni(%rip), %rax	# PL_last_uni, PL_last_uni.196
	movzbl	(%rax), %eax	# *PL_last_uni.196_9, D.28724
	cmpb	$10, %al	#, D.28724
	je	.L136	#,
	movq	PL_last_uni(%rip), %rax	# PL_last_uni, PL_last_uni.197
	movzbl	(%rax), %eax	# *PL_last_uni.197_11, D.28724
	cmpb	$13, %al	#, D.28724
	je	.L136	#,
	movq	PL_last_uni(%rip), %rax	# PL_last_uni, PL_last_uni.198
	movzbl	(%rax), %eax	# *PL_last_uni.198_13, D.28724
	cmpb	$12, %al	#, D.28724
	je	.L136	#,
	.loc 1 678 0 is_stmt 1
	movq	PL_last_uni(%rip), %rax	# PL_last_uni, tmp115
	movq	%rax, -16(%rbp)	# tmp115, s
	jmp	.L137	#
.L148:
	.loc 1 678 0 is_stmt 0 discriminator 4
	addq	$1, -16(%rbp)	#, s
.L137:
	.loc 1 678 0 discriminator 1
	movq	PL_curcop(%rip), %rax	# PL_curcop, PL_curcop.199
	movzbl	37(%rax), %eax	# PL_curcop.199_16->op_private, D.28725
	movzbl	%al, %eax	# D.28725, D.28726
	andl	$8, %eax	#, D.28726
	testl	%eax, %eax	# D.28726
	jne	.L138	#,
	.loc 1 678 0 discriminator 3
	movq	PL_linestr(%rip), %rax	# PL_linestr, PL_linestr.200
	testq	%rax, %rax	# PL_linestr.200
	je	.L139	#,
	.loc 1 678 0 discriminator 2
	movq	PL_linestr(%rip), %rax	# PL_linestr, PL_linestr.201
	movl	12(%rax), %eax	# PL_linestr.201_21->sv_flags, D.28727
	andl	$536870912, %eax	#, D.28727
	testl	%eax, %eax	# D.28727
	je	.L139	#,
	.loc 1 678 0 discriminator 1
	movq	PL_curcop(%rip), %rax	# PL_curcop, PL_curcop.202
	movzbl	37(%rax), %eax	# PL_curcop.202_24->op_private, D.28725
	movzbl	%al, %eax	# D.28725, D.28726
	andl	$8, %eax	#, D.28726
	testl	%eax, %eax	# D.28726
	je	.L140	#,
.L139:
	movl	PL_hints(%rip), %eax	# PL_hints, PL_hints.203
	andl	$8388608, %eax	#, D.28727
	testl	%eax, %eax	# D.28727
	je	.L138	#,
.L140:
	movq	-16(%rbp), %rax	# s, tmp116
	movzbl	(%rax), %eax	# MEM[(U8 *)s_1], D.28725
	cmpb	$-65, %al	#, D.28725
	ja	.L141	#,
.L138:
	.loc 1 678 0 discriminator 2
	movq	-16(%rbp), %rax	# s, tmp117
	movzbl	(%rax), %eax	# *s_1, D.28724
	cmpb	$64, %al	#, D.28724
	jle	.L142	#,
	.loc 1 678 0 discriminator 1
	movq	-16(%rbp), %rax	# s, tmp118
	movzbl	(%rax), %eax	# *s_1, D.28724
	cmpb	$90, %al	#, D.28724
	jle	.L143	#,
.L142:
	.loc 1 678 0 discriminator 2
	movq	-16(%rbp), %rax	# s, tmp119
	movzbl	(%rax), %eax	# *s_1, D.28724
	cmpb	$96, %al	#, D.28724
	jle	.L144	#,
	.loc 1 678 0 discriminator 1
	movq	-16(%rbp), %rax	# s, tmp120
	movzbl	(%rax), %eax	# *s_1, D.28724
	cmpb	$122, %al	#, D.28724
	jle	.L143	#,
.L144:
	.loc 1 678 0 discriminator 2
	movq	-16(%rbp), %rax	# s, tmp121
	movzbl	(%rax), %eax	# *s_1, D.28724
	cmpb	$47, %al	#, D.28724
	jle	.L145	#,
	.loc 1 678 0 discriminator 1
	movq	-16(%rbp), %rax	# s, tmp122
	movzbl	(%rax), %eax	# *s_1, D.28724
	cmpb	$57, %al	#, D.28724
	jle	.L143	#,
.L145:
	.loc 1 678 0 discriminator 2
	movq	-16(%rbp), %rax	# s, tmp123
	movzbl	(%rax), %eax	# *s_1, D.28724
	cmpb	$95, %al	#, D.28724
	jne	.L146	#,
.L143:
	.loc 1 678 0 discriminator 1
	movl	$1, %eax	#, iftmp.204
	jmp	.L147	#
.L146:
	.loc 1 678 0 discriminator 3
	movl	$0, %eax	#, iftmp.204
.L147:
	.loc 1 678 0 discriminator 4
	andl	$1, %eax	#, D.28728
	testb	%al, %al	# D.28728
	jne	.L148	#,
	.loc 1 678 0 discriminator 5
	jmp	.L149	#
.L141:
	.loc 1 678 0 discriminator 1
	movq	-16(%rbp), %rax	# s, tmp124
	movq	%rax, %rdi	# tmp124,
	call	Perl_is_utf8_alnum	#
	testb	%al, %al	# D.28724
	jne	.L148	#,
.L149:
	.loc 1 678 0 discriminator 6
	movq	-16(%rbp), %rax	# s, tmp125
	movzbl	(%rax), %eax	# *s_1, D.28724
	cmpb	$45, %al	#, D.28724
	je	.L148	#,
	.loc 1 679 0 is_stmt 1
	movq	-16(%rbp), %rax	# s, tmp126
	movl	$40, %esi	#,
	movq	%rax, %rdi	# tmp126,
	call	strchr	#
	movq	%rax, -8(%rbp)	# tmp127, t
	cmpq	$0, -8(%rbp)	#, t
	je	.L150	#,
	.loc 1 679 0 is_stmt 0 discriminator 1
	movq	PL_bufptr(%rip), %rax	# PL_bufptr, PL_bufptr.205
	cmpq	%rax, -8(%rbp)	# PL_bufptr.205, t
	jae	.L150	#,
	.loc 1 680 0 is_stmt 1
	jmp	.L132	#
.L150:
	.loc 1 681 0
	movq	PL_curcop(%rip), %rax	# PL_curcop, PL_curcop.206
	movq	80(%rax), %rax	# PL_curcop.206_45->cop_warnings, D.28729
	testq	%rax, %rax	# D.28729
	je	.L151	#,
	.loc 1 681 0 is_stmt 0 discriminator 1
	movq	PL_curcop(%rip), %rax	# PL_curcop, PL_curcop.207
	movq	80(%rax), %rax	# PL_curcop.207_47->cop_warnings, D.28729
	cmpq	$16, %rax	#, D.28729
	je	.L151	#,
	movq	PL_curcop(%rip), %rax	# PL_curcop, PL_curcop.208
	movq	80(%rax), %rax	# PL_curcop.208_49->cop_warnings, D.28729
	cmpq	$32, %rax	#, D.28729
	je	.L132	#,
	movq	PL_curcop(%rip), %rax	# PL_curcop, PL_curcop.209
	movq	80(%rax), %rax	# PL_curcop.209_51->cop_warnings, D.28729
	movq	(%rax), %rax	# _52->sv_any, D.28730
	movq	(%rax), %rax	# MEM[(struct XPV *)_53].xpv_pv, D.28731
	addq	$7, %rax	#, D.28731
	movzbl	(%rax), %eax	# *_55, D.28724
	movsbl	%al, %eax	# D.28724, D.28726
	andl	$4, %eax	#, D.28726
	testl	%eax, %eax	# D.28726
	je	.L132	#,
.L151:
.LBB7:
	.loc 1 682 0 is_stmt 1
	movq	-16(%rbp), %rax	# s, tmp128
	movzbl	(%rax), %eax	# *s_1, tmp129
	movb	%al, -17(%rbp)	# tmp129, ch
	.loc 1 683 0
	movq	-16(%rbp), %rax	# s, tmp130
	movb	$0, (%rax)	#, *s_1
	.loc 1 684 0
	movq	PL_last_uni(%rip), %rax	# PL_last_uni, PL_last_uni.210
	movq	%rax, %rdx	# PL_last_uni.210,
	movl	$.LC12, %esi	#,
	movl	$29, %edi	#,
	movl	$0, %eax	#,
	call	Perl_warner	#
	.loc 1 687 0
	movq	-16(%rbp), %rax	# s, tmp131
	movzbl	-17(%rbp), %edx	# ch, tmp132
	movb	%dl, (%rax)	# tmp132, *s_1
.L132:
.LBE7:
	.loc 1 689 0
	leave
	.cfi_def_cfa 7, 8
	ret
	.cfi_endproc
.LFE12:
	.size	S_check_uni, .-S_check_uni
	.type	S_lop, @function
S_lop:
.LFB13:
	.loc 1 708 0
	.cfi_startproc
	pushq	%rbp	#
	.cfi_def_cfa_offset 16
	.cfi_offset 6, -16
	movq	%rsp, %rbp	#,
	.cfi_def_cfa_register 6
	subq	$16, %rsp	#,
	movl	%edi, -4(%rbp)	# f, f
	movl	%esi, -8(%rbp)	# x, x
	movq	%rdx, -16(%rbp)	# s, s
	.loc 1 709 0
	movl	-4(%rbp), %eax	# f, tmp71
	movl	%eax, PL_yylval(%rip)	# tmp71, PL_yylval.ival
	.loc 1 710 0
	movq	PL_curcop(%rip), %rax	# PL_curcop, PL_curcop.212
	movl	72(%rax), %edx	# PL_curcop.212_4->cop_line, D.28734
	movl	PL_copline(%rip), %eax	# PL_copline, PL_copline.213
	cmpl	%eax, %edx	# PL_copline.213, D.28734
	jae	.L153	#,
	.loc 1 710 0 is_stmt 0 discriminator 1
	movq	PL_curcop(%rip), %rax	# PL_curcop, PL_curcop.214
	movl	72(%rax), %eax	# PL_curcop.214_7->cop_line, iftmp.211
	jmp	.L154	#
.L153:
	.loc 1 710 0 discriminator 2
	movl	PL_copline(%rip), %eax	# PL_copline, iftmp.211
.L154:
	.loc 1 710 0 discriminator 3
	movl	%eax, PL_copline(%rip)	# iftmp.211, PL_copline
	.loc 1 712 0 is_stmt 1 discriminator 3
	movl	-8(%rbp), %eax	# x, tmp72
	movl	%eax, PL_expect(%rip)	# tmp72, PL_expect
	.loc 1 713 0 discriminator 3
	movq	-16(%rbp), %rax	# s, tmp73
	movq	%rax, PL_bufptr(%rip)	# tmp73, PL_bufptr
	.loc 1 714 0 discriminator 3
	movq	PL_oldbufptr(%rip), %rax	# PL_oldbufptr, PL_oldbufptr.215
	movq	%rax, PL_last_lop(%rip)	# PL_oldbufptr.215, PL_last_lop
	.loc 1 715 0 discriminator 3
	movl	-4(%rbp), %eax	# f, tmp74
	movw	%ax, PL_last_lop_op(%rip)	# PL_last_lop_op.216, PL_last_lop_op
	.loc 1 716 0 discriminator 3
	movl	PL_nexttoke(%rip), %eax	# PL_nexttoke, PL_nexttoke.217
	testl	%eax, %eax	# PL_nexttoke.217
	je	.L155	#,
	.loc 1 717 0
	movl	$286, %eax	#, D.28733
	jmp	.L156	#
.L155:
	.loc 1 718 0
	movq	-16(%rbp), %rax	# s, tmp75
	movzbl	(%rax), %eax	# *s_11(D), D.28735
	cmpb	$40, %al	#, D.28735
	jne	.L157	#,
	.loc 1 719 0
	movl	$284, %eax	#, D.28733
	jmp	.L156	#
.L157:
	.loc 1 720 0
	movq	-16(%rbp), %rax	# s, tmp76
	movq	%rax, %rdi	# tmp76,
	call	S_skipspace	#
	movq	%rax, -16(%rbp)	# tmp77, s
	.loc 1 721 0
	movq	-16(%rbp), %rax	# s, tmp78
	movzbl	(%rax), %eax	# *s_18, D.28735
	cmpb	$40, %al	#, D.28735
	jne	.L158	#,
	.loc 1 722 0
	movl	$284, %eax	#, D.28733
	jmp	.L156	#
.L158:
	.loc 1 724 0
	movl	$286, %eax	#, D.28733
.L156:
	.loc 1 725 0
	leave
	.cfi_def_cfa 7, 8
	ret
	.cfi_endproc
.LFE13:
	.size	S_lop, .-S_lop
	.type	S_force_next, @function
S_force_next:
.LFB14:
	.loc 1 738 0
	.cfi_startproc
	pushq	%rbp	#
	.cfi_def_cfa_offset 16
	.cfi_offset 6, -16
	movq	%rsp, %rbp	#,
	.cfi_def_cfa_register 6
	movl	%edi, -4(%rbp)	# type, type
	.loc 1 739 0
	movl	PL_nexttoke(%rip), %eax	# PL_nexttoke, PL_nexttoke.218
	cltq
	movl	-4(%rbp), %edx	# type, tmp66
	movl	%edx, PL_nexttype(,%rax,4)	# tmp66, PL_nexttype
	.loc 1 740 0
	movl	PL_nexttoke(%rip), %eax	# PL_nexttoke, PL_nexttoke.219
	addl	$1, %eax	#, PL_nexttoke.220
	movl	%eax, PL_nexttoke(%rip)	# PL_nexttoke.220, PL_nexttoke
	.loc 1 741 0
	movl	PL_lex_state(%rip), %eax	# PL_lex_state, PL_lex_state.221
	testl	%eax, %eax	# PL_lex_state.221
	je	.L159	#,
	.loc 1 742 0
	movl	PL_lex_state(%rip), %eax	# PL_lex_state, PL_lex_state.222
	movl	%eax, PL_lex_defer(%rip)	# PL_lex_state.222, PL_lex_defer
	.loc 1 743 0
	movl	PL_expect(%rip), %eax	# PL_expect, PL_expect.223
	movl	%eax, PL_lex_expect(%rip)	# PL_expect.223, PL_lex_expect
	.loc 1 744 0
	movl	$0, PL_lex_state(%rip)	#, PL_lex_state
.L159:
	.loc 1 746 0
	popq	%rbp	#
	.cfi_def_cfa 7, 8
	ret
	.cfi_endproc
.LFE14:
	.size	S_force_next, .-S_force_next
	.type	S_force_word, @function
S_force_word:
.LFB15:
	.loc 1 766 0
	.cfi_startproc
	pushq	%rbp	#
	.cfi_def_cfa_offset 16
	.cfi_offset 6, -16
	movq	%rsp, %rbp	#,
	.cfi_def_cfa_register 6
	pushq	%r12	#
	pushq	%rbx	#
	subq	$32, %rsp	#,
	.cfi_offset 12, -24
	.cfi_offset 3, -32
	movq	%rdi, %r12	# start, start
	movl	%esi, -36(%rbp)	# token, token
	movl	%edx, -40(%rbp)	# check_keyword, check_keyword
	movl	%ecx, -44(%rbp)	# allow_pack, allow_pack
	movl	%r8d, -48(%rbp)	# allow_initial_tick, allow_initial_tick
	.loc 1 770 0
	movq	%r12, %rdi	# start,
	call	S_skipspace	#
	movq	%rax, %r12	#, start
	.loc 1 771 0
	movq	%r12, %rbx	# start, s
	.loc 1 772 0
	movq	PL_curcop(%rip), %rax	# PL_curcop, PL_curcop.224
	movzbl	37(%rax), %eax	# PL_curcop.224_9->op_private, D.28737
	movzbl	%al, %eax	# D.28737, D.28738
	andl	$8, %eax	#, D.28738
	testl	%eax, %eax	# D.28738
	jne	.L162	#,
	.loc 1 772 0 is_stmt 0 discriminator 2
	movq	PL_linestr(%rip), %rax	# PL_linestr, PL_linestr.225
	testq	%rax, %rax	# PL_linestr.225
	je	.L163	#,
	movq	PL_linestr(%rip), %rax	# PL_linestr, PL_linestr.226
	movl	12(%rax), %eax	# PL_linestr.226_14->sv_flags, D.28739
	andl	$536870912, %eax	#, D.28739
	testl	%eax, %eax	# D.28739
	je	.L163	#,
	.loc 1 772 0 discriminator 1
	movq	PL_curcop(%rip), %rax	# PL_curcop, PL_curcop.227
	movzbl	37(%rax), %eax	# PL_curcop.227_17->op_private, D.28737
	movzbl	%al, %eax	# D.28737, D.28738
	andl	$8, %eax	#, D.28738
	testl	%eax, %eax	# D.28738
	je	.L164	#,
.L163:
	movl	PL_hints(%rip), %eax	# PL_hints, PL_hints.228
	andl	$8388608, %eax	#, D.28739
	testl	%eax, %eax	# D.28739
	je	.L162	#,
.L164:
	movzbl	(%rbx), %eax	# MEM[(U8 *)s_8], D.28737
	cmpb	$-65, %al	#, D.28737
	ja	.L165	#,
.L162:
	movzbl	(%rbx), %eax	# *s_8, D.28740
	cmpb	$64, %al	#, D.28740
	jle	.L166	#,
	movzbl	(%rbx), %eax	# *s_8, D.28740
	cmpb	$90, %al	#, D.28740
	jle	.L167	#,
.L166:
	.loc 1 772 0 discriminator 2
	movzbl	(%rbx), %eax	# *s_8, D.28740
	cmpb	$96, %al	#, D.28740
	jle	.L168	#,
	.loc 1 772 0 discriminator 1
	movzbl	(%rbx), %eax	# *s_8, D.28740
	cmpb	$122, %al	#, D.28740
	jle	.L167	#,
.L168:
	.loc 1 772 0 discriminator 2
	movzbl	(%rbx), %eax	# *s_8, D.28740
	cmpb	$95, %al	#, D.28740
	jne	.L169	#,
.L167:
	.loc 1 772 0 discriminator 1
	movl	$1, %eax	#, iftmp.229
	jmp	.L170	#
.L169:
	.loc 1 772 0 discriminator 3
	movl	$0, %eax	#, iftmp.229
.L170:
	.loc 1 772 0 discriminator 4
	andl	$1, %eax	#, D.28741
	testb	%al, %al	# D.28741
	jne	.L171	#,
	.loc 1 772 0 discriminator 3
	jmp	.L172	#
.L165:
	.loc 1 772 0 discriminator 1
	movq	%rbx, %rdi	# s,
	call	Perl_is_utf8_idcont	#
	testb	%al, %al	# D.28740
	je	.L173	#,
	movq	%rbx, %rdi	# s,
	call	Perl_is_utf8_digit	#
	testb	%al, %al	# D.28740
	jne	.L173	#,
	.loc 1 772 0 discriminator 3
	movl	$1, %eax	#, iftmp.230
	jmp	.L174	#
.L173:
	.loc 1 772 0 discriminator 2
	movl	$0, %eax	#, iftmp.230
.L174:
	.loc 1 772 0 discriminator 4
	andl	$1, %eax	#, D.28741
	testb	%al, %al	# D.28741
	jne	.L171	#,
.L172:
	cmpl	$0, -44(%rbp)	#, allow_pack
	je	.L175	#,
	.loc 1 773 0 is_stmt 1
	movzbl	(%rbx), %eax	# *s_8, D.28740
	cmpb	$58, %al	#, D.28740
	je	.L171	#,
.L175:
	.loc 1 773 0 is_stmt 0 discriminator 1
	cmpl	$0, -48(%rbp)	#, allow_initial_tick
	je	.L176	#,
	.loc 1 774 0 is_stmt 1
	movzbl	(%rbx), %eax	# *s_8, D.28740
	cmpb	$39, %al	#, D.28740
	jne	.L176	#,
.L171:
	.loc 1 776 0
	leaq	-24(%rbp), %rdx	#, tmp128
	movl	-44(%rbp), %eax	# allow_pack, tmp129
	movq	%rdx, %r8	# tmp128,
	movl	%eax, %ecx	# tmp129,
	movl	$256, %edx	#,
	movl	$PL_tokenbuf, %esi	#,
	movq	%rbx, %rdi	# s,
	call	S_scan_word	#
	movq	%rax, %rbx	#, s
	.loc 1 777 0
	cmpl	$0, -40(%rbp)	#, check_keyword
	je	.L177	#,
	.loc 1 777 0 is_stmt 0 discriminator 1
	movq	-24(%rbp), %rax	# len, len.231
	movl	%eax, %esi	# D.28738,
	movl	$PL_tokenbuf, %edi	#,
	call	Perl_keyword	#
	testl	%eax, %eax	# D.28738
	je	.L177	#,
	.loc 1 778 0 is_stmt 1
	movq	%r12, %rax	# start, D.28736
	jmp	.L184	#
.L177:
	.loc 1 779 0
	cmpl	$258, -36(%rbp)	#, token
	jne	.L179	#,
	.loc 1 780 0
	movq	%rbx, %rdi	# s,
	call	S_skipspace	#
	movq	%rax, %rbx	#, s
	.loc 1 781 0
	movzbl	(%rbx), %eax	# *s_48, D.28740
	cmpb	$40, %al	#, D.28740
	jne	.L180	#,
	.loc 1 782 0
	movl	$1, PL_expect(%rip)	#, PL_expect
	jmp	.L179	#
.L180:
	.loc 1 784 0
	movl	$0, PL_expect(%rip)	#, PL_expect
.L179:
	.loc 1 787 0
	movl	PL_nexttoke(%rip), %r12d	# PL_nexttoke, PL_nexttoke.232
	movl	$0, %esi	#,
	movl	$PL_tokenbuf, %edi	#,
	call	Perl_newSVpv	#
	movq	%rax, %rdx	# D.28742,
	movl	$0, %esi	#,
	movl	$5, %edi	#,
	call	Perl_newSVOP	#
	movslq	%r12d, %rdx	# PL_nexttoke.232, tmp130
	movq	%rax, PL_nextval(,%rdx,8)	# D.28743, PL_nextval[PL_nexttoke.232_50].opval
	.loc 1 788 0
	movl	PL_nexttoke(%rip), %eax	# PL_nexttoke, PL_nexttoke.233
	cltq
	movq	PL_nextval(,%rax,8), %rax	# PL_nextval[PL_nexttoke.233_53].opval, D.28743
	movl	PL_nexttoke(%rip), %edx	# PL_nexttoke, PL_nexttoke.234
	movslq	%edx, %rdx	# PL_nexttoke.234, tmp132
	movq	PL_nextval(,%rdx,8), %rdx	# PL_nextval[PL_nexttoke.234_55].opval, D.28743
	movzbl	37(%rdx), %edx	# _56->op_private, D.28737
	orl	$64, %edx	#, D.28737
	movb	%dl, 37(%rax)	# D.28737, _54->op_private
	.loc 1 789 0
	movq	PL_linestr(%rip), %rax	# PL_linestr, PL_linestr.235
	testq	%rax, %rax	# PL_linestr.235
	je	.L181	#,
	.loc 1 789 0 is_stmt 0 discriminator 1
	movq	PL_linestr(%rip), %rax	# PL_linestr, PL_linestr.236
	movl	12(%rax), %eax	# PL_linestr.236_60->sv_flags, D.28739
	andl	$536870912, %eax	#, D.28739
	testl	%eax, %eax	# D.28739
	je	.L181	#,
	movq	PL_curcop(%rip), %rax	# PL_curcop, PL_curcop.237
	movzbl	37(%rax), %eax	# PL_curcop.237_63->op_private, D.28737
	movzbl	%al, %eax	# D.28737, D.28738
	andl	$8, %eax	#, D.28738
	testl	%eax, %eax	# D.28738
	je	.L182	#,
.L181:
	.loc 1 789 0 discriminator 2
	movl	PL_hints(%rip), %eax	# PL_hints, PL_hints.238
	andl	$8388608, %eax	#, D.28739
	testl	%eax, %eax	# D.28739
	je	.L183	#,
.L182:
	.loc 1 789 0 discriminator 1
	movq	PL_curcop(%rip), %rax	# PL_curcop, PL_curcop.239
	movzbl	37(%rax), %eax	# PL_curcop.239_69->op_private, D.28737
	movzbl	%al, %eax	# D.28737, D.28738
	andl	$8, %eax	#, D.28738
	testl	%eax, %eax	# D.28738
	jne	.L183	#,
	movq	-24(%rbp), %rax	# len, len.240
	movq	%rax, %rsi	# len.240,
	movl	$PL_tokenbuf, %edi	#,
	call	Perl_is_utf8_string	#
	testb	%al, %al	# D.28740
	je	.L183	#,
	.loc 1 790 0 is_stmt 1
	movl	PL_nexttoke(%rip), %eax	# PL_nexttoke, PL_nexttoke.241
	cltq
	movq	PL_nextval(,%rax,8), %rax	# PL_nextval[PL_nexttoke.241_75].opval, D.28743
	movq	40(%rax), %rax	# MEM[(struct SVOP *)_76].op_sv, D.28742
	movl	PL_nexttoke(%rip), %edx	# PL_nexttoke, PL_nexttoke.242
	movslq	%edx, %rdx	# PL_nexttoke.242, tmp134
	movq	PL_nextval(,%rdx,8), %rdx	# PL_nextval[PL_nexttoke.242_78].opval, D.28743
	movq	40(%rdx), %rdx	# MEM[(struct SVOP *)_79].op_sv, D.28742
	movl	12(%rdx), %edx	# _80->sv_flags, D.28739
	orl	$536870912, %edx	#, D.28739
	movl	%edx, 12(%rax)	# D.28739, _77->sv_flags
.L183:
	.loc 1 791 0
	movl	-36(%rbp), %eax	# token, tmp135
	movl	%eax, %edi	# tmp135,
	call	S_force_next	#
.L176:
	.loc 1 793 0
	movq	%rbx, %rax	# s, D.28736
.L184:
	.loc 1 794 0
	addq	$32, %rsp	#,
	popq	%rbx	#
	popq	%r12	#
	popq	%rbp	#
	.cfi_def_cfa 7, 8
	ret
	.cfi_endproc
.LFE15:
	.size	S_force_word, .-S_force_word
	.type	S_force_ident, @function
S_force_ident:
.LFB16:
	.loc 1 807 0
	.cfi_startproc
	pushq	%rbp	#
	.cfi_def_cfa_offset 16
	.cfi_offset 6, -16
	movq	%rsp, %rbp	#,
	.cfi_def_cfa_register 6
	pushq	%rbx	#
	subq	$40, %rsp	#,
	.cfi_offset 3, -24
	movq	%rdi, %rbx	# s, s
	movl	%esi, -36(%rbp)	# kind, kind
	.loc 1 808 0
	testq	%rbx, %rbx	# s
	je	.L185	#,
	.loc 1 808 0 is_stmt 0 discriminator 1
	movzbl	(%rbx), %eax	# *s_5(D), D.28744
	testb	%al, %al	# D.28744
	je	.L185	#,
.LBB8:
	.loc 1 809 0 is_stmt 1
	movl	$0, %esi	#,
	movq	%rbx, %rdi	# s,
	call	Perl_newSVpv	#
	movq	%rax, %rdx	# D.28745,
	movl	$0, %esi	#,
	movl	$5, %edi	#,
	call	Perl_newSVOP	#
	movq	%rax, -24(%rbp)	# tmp68, o
	.loc 1 810 0
	movl	PL_nexttoke(%rip), %eax	# PL_nexttoke, PL_nexttoke.243
	cltq
	movq	-24(%rbp), %rdx	# o, tmp70
	movq	%rdx, PL_nextval(,%rax,8)	# tmp70, PL_nextval[PL_nexttoke.243_9].opval
	.loc 1 811 0
	movl	$257, %edi	#,
	call	S_force_next	#
	.loc 1 812 0
	cmpl	$0, -36(%rbp)	#, kind
	je	.L185	#,
	.loc 1 813 0
	movq	-24(%rbp), %rax	# o, tmp71
	movb	$16, 37(%rax)	#, o_8->op_private
	.loc 1 817 0
	cmpl	$36, -36(%rbp)	#, kind
	je	.L187	#,
	.loc 1 819 0
	cmpl	$64, -36(%rbp)	#, kind
	je	.L188	#,
	.loc 1 820 0
	cmpl	$37, -36(%rbp)	#, kind
	jne	.L189	#,
	.loc 1 820 0 is_stmt 0 discriminator 1
	movl	$11, %eax	#, iftmp.246
	jmp	.L191	#
.L189:
	.loc 1 820 0 discriminator 2
	movl	$13, %eax	#, iftmp.246
	jmp	.L191	#
.L188:
	.loc 1 819 0 is_stmt 1 discriminator 1
	movl	$10, %eax	#, iftmp.245
.L191:
	.loc 1 817 0 discriminator 2
	movl	%eax, %edx	# iftmp.245, iftmp.244
	jmp	.L192	#
.L187:
	.loc 1 817 0 is_stmt 0 discriminator 1
	movl	$4, %edx	#, iftmp.244
.L192:
	.loc 1 817 0 discriminator 2
	movl	PL_in_eval(%rip), %eax	# PL_in_eval, PL_in_eval.248
	testl	%eax, %eax	# PL_in_eval.248
	je	.L193	#,
	.loc 1 817 0 discriminator 3
	movl	$10, %eax	#, iftmp.247
	jmp	.L194	#
.L193:
	.loc 1 817 0 discriminator 4
	movl	$1, %eax	#, iftmp.247
.L194:
	.loc 1 817 0 discriminator 5
	movl	%eax, %esi	# iftmp.247,
	movq	%rbx, %rdi	# s,
	call	Perl_gv_fetchpv	#
.L185:
.LBE8:
	.loc 1 825 0 is_stmt 1
	addq	$40, %rsp	#,
	popq	%rbx	#
	popq	%rbp	#
	.cfi_def_cfa 7, 8
	ret
	.cfi_endproc
.LFE16:
	.size	S_force_ident, .-S_force_ident
	.globl	Perl_str_to_version
	.type	Perl_str_to_version, @function
Perl_str_to_version:
.LFB17:
	.loc 1 829 0
	.cfi_startproc
	pushq	%rbp	#
	.cfi_def_cfa_offset 16
	.cfi_offset 6, -16
	movq	%rsp, %rbp	#,
	.cfi_def_cfa_register 6
	subq	$80, %rsp	#,
	movq	%rdi, -72(%rbp)	# sv, sv
	.loc 1 830 0
	movl	$0, %eax	#, tmp80
	movq	%rax, -40(%rbp)	# tmp80, retval
	.loc 1 831 0
	movabsq	$4607182418800017408, %rax	#, tmp81
	movq	%rax, -32(%rbp)	# tmp81, nshift
	.loc 1 833 0
	movq	-72(%rbp), %rax	# sv, tmp82
	movq	%rax, PL_Sv(%rip)	# tmp82, PL_Sv
	movq	PL_Sv(%rip), %rax	# PL_Sv, PL_Sv.250
	movl	12(%rax), %eax	# PL_Sv.250_9->sv_flags, D.28746
	andl	$262144, %eax	#, D.28746
	testl	%eax, %eax	# D.28746
	je	.L196	#,
	.loc 1 833 0 is_stmt 0 discriminator 1
	movq	PL_Sv(%rip), %rax	# PL_Sv, PL_Sv.251
	movq	(%rax), %rax	# PL_Sv.251_12->sv_any, D.28747
	movq	8(%rax), %rax	# MEM[(struct XPV *)_13].xpv_cur, len.252
	movq	%rax, -56(%rbp)	# len.252, len
	movq	PL_Sv(%rip), %rax	# PL_Sv, PL_Sv.253
	movq	(%rax), %rax	# PL_Sv.253_15->sv_any, D.28747
	movq	(%rax), %rax	# MEM[(struct XPV *)_16].xpv_pv, iftmp.249
	jmp	.L197	#
.L196:
	.loc 1 833 0 discriminator 2
	movq	PL_Sv(%rip), %rax	# PL_Sv, PL_Sv.254
	leaq	-56(%rbp), %rcx	#, tmp83
	movl	$2, %edx	#,
	movq	%rcx, %rsi	# tmp83,
	movq	%rax, %rdi	# PL_Sv.254,
	call	Perl_sv_2pv_flags	#
.L197:
	.loc 1 833 0 discriminator 3
	movq	%rax, -24(%rbp)	# iftmp.249, start
	.loc 1 834 0 is_stmt 1 discriminator 3
	movq	-72(%rbp), %rax	# sv, tmp84
	movl	12(%rax), %eax	# sv_8(D)->sv_flags, D.28746
	andl	$536870912, %eax	#, D.28746
	testl	%eax, %eax	# D.28746
	setne	%al	#, D.28748
	movb	%al, -57(%rbp)	# D.28748, utf
	.loc 1 835 0 discriminator 3
	movq	-56(%rbp), %rdx	# len, len.255
	movq	-24(%rbp), %rax	# start, tmp88
	addq	%rdx, %rax	# len.255, tmp87
	movq	%rax, -8(%rbp)	# tmp87, end
	.loc 1 836 0 discriminator 3
	jmp	.L198	#
.L203:
.LBB9:
	.loc 1 839 0
	cmpb	$0, -57(%rbp)	#, utf
	je	.L199	#,
	.loc 1 840 0
	movq	-56(%rbp), %rsi	# len, len.256
	leaq	-48(%rbp), %rdx	#, tmp89
	movq	-24(%rbp), %rax	# start, tmp90
	movl	$0, %ecx	#,
	movq	%rax, %rdi	# tmp90,
	call	Perl_utf8n_to_uvuni	#
	movq	%rax, -16(%rbp)	# tmp91, n
	jmp	.L200	#
.L199:
	.loc 1 842 0
	movq	-24(%rbp), %rax	# start, tmp92
	movzbl	(%rax), %eax	# MEM[(U8 *)start_3], D.28749
	movzbl	%al, %eax	# D.28749, tmp93
	movq	%rax, -16(%rbp)	# tmp93, n
	.loc 1 843 0
	movq	$1, -48(%rbp)	#, skip
.L200:
	.loc 1 845 0 discriminator 1
	movq	-16(%rbp), %rax	# n, tmp94
	testq	%rax, %rax	# tmp94
	js	.L201	#,
	cvtsi2sdq	%rax, %xmm0	# tmp94, D.28750
	jmp	.L202	#
.L201:
	movq	%rax, %rdx	# tmp94, tmp96
	shrq	%rdx	# tmp96
	andl	$1, %eax	#, tmp97
	orq	%rax, %rdx	# tmp97, tmp96
	cvtsi2sdq	%rdx, %xmm0	# tmp96, tmp95
	addsd	%xmm0, %xmm0	# tmp95, D.28750
.L202:
	divsd	-32(%rbp), %xmm0	# nshift, D.28750
	movsd	-40(%rbp), %xmm1	# retval, tmp99
	addsd	%xmm1, %xmm0	# tmp99, tmp98
	movsd	%xmm0, -40(%rbp)	# tmp98, retval
	.loc 1 846 0 discriminator 1
	movq	-48(%rbp), %rax	# skip, skip.257
	addq	%rax, -24(%rbp)	# skip.257, start
	.loc 1 847 0 discriminator 1
	movsd	-32(%rbp), %xmm1	# nshift, tmp101
	movsd	.LC15(%rip), %xmm0	#, tmp102
	mulsd	%xmm1, %xmm0	# tmp101, tmp100
	movsd	%xmm0, -32(%rbp)	# tmp100, nshift
.L198:
.LBE9:
	.loc 1 836 0 discriminator 1
	movq	-24(%rbp), %rax	# start, tmp103
	cmpq	-8(%rbp), %rax	# end, tmp103
	jb	.L203	#,
	.loc 1 849 0
	movq	-40(%rbp), %rax	# retval, D.28751
	.loc 1 850 0
	movq	%rax, -80(%rbp)	# <retval>, %sfp
	movsd	-80(%rbp), %xmm0	# %sfp,
	leave
	.cfi_def_cfa 7, 8
	ret
	.cfi_endproc
.LFE17:
	.size	Perl_str_to_version, .-Perl_str_to_version
	.type	S_force_version, @function
S_force_version:
.LFB18:
	.loc 1 862 0
	.cfi_startproc
	pushq	%rbp	#
	.cfi_def_cfa_offset 16
	.cfi_offset 6, -16
	movq	%rsp, %rbp	#,
	.cfi_def_cfa_register 6
	pushq	%rbx	#
	subq	$72, %rsp	#,
	.cfi_offset 3, -24
	movq	%rdi, -56(%rbp)	# s, s
	movl	%esi, -60(%rbp)	# guessing, guessing
	.loc 1 863 0
	movq	$0, -40(%rbp)	#, version
	.loc 1 866 0
	movq	-56(%rbp), %rax	# s, tmp90
	movq	%rax, %rdi	# tmp90,
	call	S_skipspace	#
	movq	%rax, -56(%rbp)	# tmp91, s
	.loc 1 868 0
	movq	-56(%rbp), %rax	# s, tmp92
	movq	%rax, -32(%rbp)	# tmp92, d
	.loc 1 869 0
	movq	-32(%rbp), %rax	# d, tmp93
	movzbl	(%rax), %eax	# *d_9, D.28754
	cmpb	$118, %al	#, D.28754
	jne	.L206	#,
	.loc 1 870 0
	addq	$1, -32(%rbp)	#, d
.L206:
	.loc 1 871 0
	movq	-32(%rbp), %rax	# d, tmp94
	movzbl	(%rax), %eax	# *d_3, D.28754
	cmpb	$47, %al	#, D.28754
	jle	.L207	#,
	.loc 1 871 0 is_stmt 0 discriminator 1
	movq	-32(%rbp), %rax	# d, tmp95
	movzbl	(%rax), %eax	# *d_3, D.28754
	cmpb	$57, %al	#, D.28754
	jg	.L207	#,
	.loc 1 872 0 is_stmt 1
	jmp	.L208	#
.L210:
	.loc 1 873 0
	addq	$1, -32(%rbp)	#, d
.L208:
	.loc 1 872 0 discriminator 1
	movq	-32(%rbp), %rax	# d, tmp96
	movzbl	(%rax), %eax	# *d_4, D.28754
	cmpb	$47, %al	#, D.28754
	jle	.L209	#,
	.loc 1 872 0 is_stmt 0 discriminator 2
	movq	-32(%rbp), %rax	# d, tmp97
	movzbl	(%rax), %eax	# *d_4, D.28754
	cmpb	$57, %al	#, D.28754
	jle	.L210	#,
.L209:
	.loc 1 872 0 discriminator 3
	movq	-32(%rbp), %rax	# d, tmp98
	movzbl	(%rax), %eax	# *d_4, D.28754
	cmpb	$95, %al	#, D.28754
	je	.L210	#,
	.loc 1 872 0 discriminator 1
	movq	-32(%rbp), %rax	# d, tmp99
	movzbl	(%rax), %eax	# *d_4, D.28754
	cmpb	$46, %al	#, D.28754
	je	.L210	#,
	.loc 1 874 0 is_stmt 1
	movq	-32(%rbp), %rax	# d, tmp100
	movzbl	(%rax), %eax	# *d_4, D.28754
	cmpb	$59, %al	#, D.28754
	je	.L211	#,
	.loc 1 874 0 is_stmt 0 discriminator 1
	movq	-32(%rbp), %rax	# d, tmp101
	movzbl	(%rax), %eax	# *d_4, D.28754
	cmpb	$32, %al	#, D.28754
	je	.L211	#,
	movq	-32(%rbp), %rax	# d, tmp102
	movzbl	(%rax), %eax	# *d_4, D.28754
	cmpb	$9, %al	#, D.28754
	je	.L211	#,
	movq	-32(%rbp), %rax	# d, tmp103
	movzbl	(%rax), %eax	# *d_4, D.28754
	cmpb	$10, %al	#, D.28754
	je	.L211	#,
	movq	-32(%rbp), %rax	# d, tmp104
	movzbl	(%rax), %eax	# *d_4, D.28754
	cmpb	$13, %al	#, D.28754
	je	.L211	#,
	movq	-32(%rbp), %rax	# d, tmp105
	movzbl	(%rax), %eax	# *d_4, D.28754
	cmpb	$12, %al	#, D.28754
	je	.L211	#,
	movq	-32(%rbp), %rax	# d, tmp106
	movzbl	(%rax), %eax	# *d_4, D.28754
	cmpb	$125, %al	#, D.28754
	je	.L211	#,
	movq	-32(%rbp), %rax	# d, tmp107
	movzbl	(%rax), %eax	# *d_4, D.28754
	testb	%al, %al	# D.28754
	jne	.L212	#,
.L211:
.LBB10:
	.loc 1 876 0 is_stmt 1
	movq	-56(%rbp), %rax	# s, tmp108
	movl	$PL_yylval, %esi	#,
	movq	%rax, %rdi	# tmp108,
	call	Perl_scan_num	#
	movq	%rax, -56(%rbp)	# tmp109, s
	.loc 1 877 0
	movq	PL_yylval(%rip), %rax	# PL_yylval.opval, tmp110
	movq	%rax, -40(%rbp)	# tmp110, version
	.loc 1 878 0
	movq	-40(%rbp), %rax	# version, tmp111
	movq	40(%rax), %rax	# MEM[(struct SVOP *)version_29].op_sv, tmp112
	movq	%rax, -24(%rbp)	# tmp112, ver
	.loc 1 879 0
	movq	-24(%rbp), %rax	# ver, tmp113
	movl	12(%rax), %eax	# ver_30->sv_flags, D.28755
	andl	$262144, %eax	#, D.28755
	testl	%eax, %eax	# D.28755
	je	.L213	#,
	.loc 1 879 0 is_stmt 0 discriminator 1
	movq	-24(%rbp), %rax	# ver, tmp114
	movl	12(%rax), %eax	# ver_30->sv_flags, D.28755
	andl	$196608, %eax	#, D.28755
	testl	%eax, %eax	# D.28755
	jne	.L213	#,
	.loc 1 880 0 is_stmt 1
	movq	-24(%rbp), %rax	# ver, tmp115
	movl	12(%rax), %eax	# ver_30->sv_flags, D.28755
	movzbl	%al, %eax	# D.28755, D.28755
	cmpl	$5, %eax	#, D.28755
	ja	.L214	#,
	.loc 1 880 0 is_stmt 0 discriminator 2
	movq	-24(%rbp), %rax	# ver, tmp116
	movl	$6, %esi	#,
	movq	%rax, %rdi	# tmp116,
	call	Perl_sv_upgrade	#
	testb	%al, %al	# D.28754
	je	.L216	#,
.L214:
	.loc 1 880 0 discriminator 1
	nop
.L216:
	.loc 1 881 0 is_stmt 1
	movq	-24(%rbp), %rax	# ver, tmp117
	movq	(%rax), %rbx	# ver_30->sv_any, D.28756
	movq	-24(%rbp), %rax	# ver, tmp118
	movq	%rax, %rdi	# tmp118,
	call	Perl_str_to_version	#
	movsd	%xmm0, -72(%rbp)	#, %sfp
	movq	-72(%rbp), %rax	# %sfp, D.28757
	movq	%rax, 32(%rbx)	# D.28757, MEM[(struct XPVNV *)_40].xnv_nv
	.loc 1 882 0
	movq	-24(%rbp), %rax	# ver, tmp119
	movl	12(%rax), %eax	# ver_30->sv_flags, D.28755
	orl	$33685504, %eax	#, D.28755
	movl	%eax, %edx	# D.28755, D.28755
	movq	-24(%rbp), %rax	# ver, tmp120
	movl	%edx, 12(%rax)	# D.28755, ver_30->sv_flags
.LBE10:
	.loc 1 874 0
	jmp	.L207	#
.L213:
	jmp	.L207	#
.L212:
	.loc 1 885 0
	cmpl	$0, -60(%rbp)	#, guessing
	je	.L207	#,
	.loc 1 886 0
	movq	-56(%rbp), %rax	# s, D.28753
	jmp	.L217	#
.L207:
	.loc 1 890 0
	movl	PL_nexttoke(%rip), %eax	# PL_nexttoke, PL_nexttoke.259
	cltq
	movq	-40(%rbp), %rdx	# version, tmp122
	movq	%rdx, PL_nextval(,%rax,8)	# tmp122, PL_nextval[PL_nexttoke.259_45].opval
	.loc 1 891 0
	movl	$257, %edi	#,
	call	S_force_next	#
	.loc 1 893 0
	movq	-56(%rbp), %rax	# s, D.28753
.L217:
	.loc 1 894 0
	addq	$72, %rsp	#,
	popq	%rbx	#
	popq	%rbp	#
	.cfi_def_cfa 7, 8
	ret
	.cfi_endproc
.LFE18:
	.size	S_force_version, .-S_force_version
	.section	.rodata
.LC16:
	.string	"q"
	.text
	.type	S_tokeq, @function
S_tokeq:
.LFB19:
	.loc 1 906 0
	.cfi_startproc
	pushq	%rbp	#
	.cfi_def_cfa_offset 16
	.cfi_offset 6, -16
	movq	%rsp, %rbp	#,
	.cfi_def_cfa_register 6
	pushq	%r13	#
	pushq	%r12	#
	pushq	%rbx	#
	subq	$40, %rsp	#,
	.cfi_offset 13, -24
	.cfi_offset 12, -32
	.cfi_offset 3, -40
	movq	%rdi, -56(%rbp)	# sv, sv
	.loc 1 910 0
	movq	$0, -48(%rbp)	#, len
	.loc 1 911 0
	movq	-56(%rbp), %rax	# sv, tmp104
	movq	%rax, -40(%rbp)	# tmp104, pv
	.loc 1 913 0
	movq	-56(%rbp), %rax	# sv, tmp105
	movq	(%rax), %rax	# sv_9(D)->sv_any, D.28759
	movq	16(%rax), %rax	# MEM[(struct XPV *)_11].xpv_len, D.28760
	testq	%rax, %rax	# D.28760
	jne	.L219	#,
	.loc 1 914 0
	jmp	.L220	#
.L219:
	.loc 1 916 0
	movq	-56(%rbp), %rax	# sv, tmp106
	movl	12(%rax), %eax	# sv_9(D)->sv_flags, D.28761
	andl	$10223616, %eax	#, D.28761
	cmpl	$262144, %eax	#, D.28761
	jne	.L221	#,
	.loc 1 916 0 is_stmt 0 discriminator 1
	movq	-56(%rbp), %rax	# sv, tmp107
	movq	(%rax), %rax	# sv_9(D)->sv_any, D.28759
	movq	8(%rax), %rax	# MEM[(struct XPV *)_15].xpv_cur, len.261
	movq	%rax, -48(%rbp)	# len.261, len
	movq	-56(%rbp), %rax	# sv, tmp108
	movq	(%rax), %rax	# sv_9(D)->sv_any, D.28759
	movq	(%rax), %rax	# MEM[(struct XPV *)_17].xpv_pv, iftmp.260
	jmp	.L222	#
.L221:
	.loc 1 916 0 discriminator 2
	leaq	-48(%rbp), %rcx	#, tmp109
	movq	-56(%rbp), %rax	# sv, tmp110
	movl	$2, %edx	#,
	movq	%rcx, %rsi	# tmp109,
	movq	%rax, %rdi	# tmp110,
	call	Perl_sv_pvn_force_flags	#
.L222:
	.loc 1 916 0 discriminator 3
	movq	%rax, %rbx	# iftmp.260, s
	.loc 1 917 0 is_stmt 1 discriminator 3
	movq	-56(%rbp), %rax	# sv, tmp111
	movl	12(%rax), %eax	# sv_9(D)->sv_flags, D.28761
	movzbl	%al, %eax	# D.28761, D.28761
	cmpl	$4, %eax	#, D.28761
	jbe	.L223	#,
	.loc 1 917 0 is_stmt 0 discriminator 1
	movq	-56(%rbp), %rax	# sv, tmp112
	movq	(%rax), %rax	# sv_9(D)->sv_any, D.28759
	movq	24(%rax), %rax	# MEM[(struct XPVIV *)_23].xiv_iv, D.28762
	cmpq	$-1, %rax	#, D.28762
	jne	.L223	#,
	.loc 1 918 0 is_stmt 1
	jmp	.L220	#
.L223:
	.loc 1 919 0
	movq	-48(%rbp), %rax	# len, len.262
	leaq	(%rbx,%rax), %r13	#, send
	.loc 1 920 0
	jmp	.L224	#
.L226:
	.loc 1 921 0
	addq	$1, %rbx	#, s
.L224:
	.loc 1 920 0 discriminator 1
	cmpq	%r13, %rbx	# send, s
	jae	.L225	#,
	.loc 1 920 0 is_stmt 0 discriminator 2
	movzbl	(%rbx), %eax	# *s_1, D.28763
	cmpb	$92, %al	#, D.28763
	jne	.L226	#,
.L225:
	.loc 1 922 0 is_stmt 1
	cmpq	%r13, %rbx	# send, s
	jne	.L227	#,
	.loc 1 923 0
	jmp	.L220	#
.L227:
	.loc 1 924 0
	movq	%rbx, %r12	# s, d
	.loc 1 925 0
	movl	PL_hints(%rip), %eax	# PL_hints, PL_hints.263
	andl	$32768, %eax	#, D.28761
	testl	%eax, %eax	# D.28761
	je	.L228	#,
	.loc 1 926 0
	movq	-48(%rbp), %rdx	# len, len.264
	movq	-40(%rbp), %rax	# pv, tmp113
	movq	(%rax), %rax	# pv_10->sv_any, D.28759
	movq	(%rax), %rax	# MEM[(struct XPV *)_33].xpv_pv, D.28764
	movq	%rdx, %rsi	# len.264,
	movq	%rax, %rdi	# D.28764,
	call	Perl_newSVpvn	#
	movq	%rax, %rdi	# D.28758,
	call	Perl_sv_2mortal	#
	movq	%rax, -40(%rbp)	# tmp114, pv
	.loc 1 927 0
	movq	-56(%rbp), %rax	# sv, tmp115
	movl	12(%rax), %eax	# sv_9(D)->sv_flags, D.28761
	andl	$536870912, %eax	#, D.28761
	testl	%eax, %eax	# D.28761
	je	.L228	#,
	.loc 1 928 0
	movq	-40(%rbp), %rax	# pv, tmp116
	movl	12(%rax), %eax	# pv_36->sv_flags, D.28761
	orl	$536870912, %eax	#, D.28761
	movl	%eax, %edx	# D.28761, D.28761
	movq	-40(%rbp), %rax	# pv, tmp117
	movl	%edx, 12(%rax)	# D.28761, pv_36->sv_flags
	.loc 1 930 0
	jmp	.L229	#
.L228:
	jmp	.L229	#
.L231:
	.loc 1 931 0
	movzbl	(%rbx), %eax	# *s_3, D.28763
	cmpb	$92, %al	#, D.28763
	jne	.L230	#,
	.loc 1 932 0
	leaq	1(%rbx), %rax	#, D.28764
	cmpq	%r13, %rax	# send, D.28764
	jae	.L230	#,
	.loc 1 932 0 is_stmt 0 discriminator 1
	leaq	1(%rbx), %rax	#, D.28764
	movzbl	(%rax), %eax	# *_43, D.28763
	cmpb	$92, %al	#, D.28763
	jne	.L230	#,
	.loc 1 933 0 is_stmt 1
	addq	$1, %rbx	#, s
.L230:
	.loc 1 935 0
	movq	%r12, %rax	# d, d.265
	leaq	1(%rax), %r12	#, d
	movq	%rbx, %rdx	# s, s.266
	leaq	1(%rdx), %rbx	#, s
	movzbl	(%rdx), %edx	# *s.266_48, D.28763
	movb	%dl, (%rax)	# D.28763, *d.265_46
.L229:
	.loc 1 930 0 discriminator 1
	cmpq	%r13, %rbx	# send, s
	jb	.L231	#,
	.loc 1 937 0
	movb	$0, (%r12)	#, *d_4
	.loc 1 938 0
	movq	-56(%rbp), %rax	# sv, tmp118
	movq	(%rax), %rax	# sv_9(D)->sv_any, D.28759
	movq	%r12, %rcx	# d, d.267
	movq	-56(%rbp), %rdx	# sv, tmp119
	movq	(%rdx), %rdx	# sv_9(D)->sv_any, D.28759
	movq	(%rdx), %rdx	# MEM[(struct XPV *)_53].xpv_pv, D.28764
	subq	%rdx, %rcx	# D.28762, D.28762
	movq	%rcx, %rdx	# D.28762, D.28762
	movq	%rdx, 8(%rax)	# D.28760, MEM[(struct XPV *)_51].xpv_cur
.L220:
	.loc 1 940 0
	movl	PL_hints(%rip), %eax	# PL_hints, PL_hints.268
	andl	$32768, %eax	#, D.28761
	testl	%eax, %eax	# D.28761
	je	.L232	#,
	.loc 1 941 0
	movq	-40(%rbp), %rdx	# pv, tmp120
	movq	-56(%rbp), %rax	# sv, tmp121
	movl	$.LC16, %r9d	#,
	movq	%rdx, %r8	# tmp120,
	movq	%rax, %rcx	# tmp121,
	movl	$.LC16, %edx	#,
	movl	$0, %esi	#,
	movl	$0, %edi	#,
	call	S_new_constant	#
	jmp	.L234	#
.L232:
	.loc 1 942 0
	movq	-56(%rbp), %rax	# sv, D.28758
.L234:
	.loc 1 943 0
	addq	$40, %rsp	#,
	popq	%rbx	#
	popq	%r12	#
	popq	%r13	#
	popq	%rbp	#
	.cfi_def_cfa 7, 8
	ret
	.cfi_endproc
.LFE19:
	.size	S_tokeq, .-S_tokeq
	.type	S_sublex_start, @function
S_sublex_start:
.LFB20:
	.loc 1 979 0
	.cfi_startproc
	pushq	%rbp	#
	.cfi_def_cfa_offset 16
	.cfi_offset 6, -16
	movq	%rsp, %rbp	#,
	.cfi_def_cfa_register 6
	pushq	%rbx	#
	subq	$40, %rsp	#,
	.cfi_offset 3, -24
	.loc 1 980 0
	movl	PL_yylval(%rip), %ebx	# PL_yylval.ival, op_type
	.loc 1 982 0
	testl	%ebx, %ebx	# op_type
	jne	.L236	#,
	.loc 1 983 0
	movq	PL_lex_op(%rip), %rax	# PL_lex_op, PL_lex_op.269
	movq	%rax, PL_yylval(%rip)	# PL_lex_op.269, PL_yylval.opval
	.loc 1 984 0
	movq	$0, PL_lex_op(%rip)	#, PL_lex_op
	.loc 1 985 0
	movl	$260, %eax	#, D.28766
	jmp	.L237	#
.L236:
	.loc 1 987 0
	cmpl	$5, %ebx	#, op_type
	je	.L238	#,
	.loc 1 987 0 is_stmt 0 discriminator 1
	cmpl	$26, %ebx	#, op_type
	jne	.L239	#,
.L238:
.LBB11:
	.loc 1 988 0 is_stmt 1
	movq	PL_lex_stuff(%rip), %rax	# PL_lex_stuff, PL_lex_stuff.270
	movq	%rax, %rdi	# PL_lex_stuff.270,
	call	S_tokeq	#
	movq	%rax, -40(%rbp)	# tmp83, sv
	.loc 1 990 0
	movq	-40(%rbp), %rax	# sv, tmp84
	movl	12(%rax), %eax	# sv_15->sv_flags, D.28767
	movzbl	%al, %eax	# D.28767, D.28767
	cmpl	$5, %eax	#, D.28767
	jne	.L240	#,
.LBB12:
	.loc 1 996 0
	movq	-40(%rbp), %rax	# sv, tmp85
	movl	12(%rax), %eax	# sv_15->sv_flags, D.28767
	andl	$262144, %eax	#, D.28767
	testl	%eax, %eax	# D.28767
	je	.L241	#,
	.loc 1 996 0 is_stmt 0 discriminator 1
	movq	-40(%rbp), %rax	# sv, tmp86
	movq	(%rax), %rax	# sv_15->sv_any, D.28768
	movq	8(%rax), %rax	# MEM[(struct XPV *)_20].xpv_cur, len.272
	movq	%rax, -48(%rbp)	# len.272, len
	movq	-40(%rbp), %rax	# sv, tmp87
	movq	(%rax), %rax	# sv_15->sv_any, D.28768
	movq	(%rax), %rax	# MEM[(struct XPV *)_22].xpv_pv, iftmp.271
	jmp	.L242	#
.L241:
	.loc 1 996 0 discriminator 2
	leaq	-48(%rbp), %rcx	#, tmp88
	movq	-40(%rbp), %rax	# sv, tmp89
	movl	$2, %edx	#,
	movq	%rcx, %rsi	# tmp88,
	movq	%rax, %rdi	# tmp89,
	call	Perl_sv_2pv_flags	#
.L242:
	.loc 1 996 0 discriminator 3
	movq	%rax, -32(%rbp)	# iftmp.271, p
	.loc 1 997 0 is_stmt 1 discriminator 3
	movq	-48(%rbp), %rdx	# len, len.273
	movq	-32(%rbp), %rax	# p, tmp90
	movq	%rdx, %rsi	# len.273,
	movq	%rax, %rdi	# tmp90,
	call	Perl_newSVpvn	#
	movq	%rax, -24(%rbp)	# tmp91, nsv
	.loc 1 998 0 discriminator 3
	movq	-40(%rbp), %rax	# sv, tmp92
	movl	12(%rax), %eax	# sv_15->sv_flags, D.28767
	andl	$536870912, %eax	#, D.28767
	testl	%eax, %eax	# D.28767
	je	.L243	#,
	.loc 1 999 0
	movq	-24(%rbp), %rax	# nsv, tmp93
	movl	12(%rax), %eax	# nsv_27->sv_flags, D.28767
	orl	$536870912, %eax	#, D.28767
	movl	%eax, %edx	# D.28767, D.28767
	movq	-24(%rbp), %rax	# nsv, tmp94
	movl	%edx, 12(%rax)	# D.28767, nsv_27->sv_flags
.L243:
	.loc 1 1000 0
	movq	-40(%rbp), %rax	# sv, tmp95
	movq	%rax, %rdi	# tmp95,
	call	Perl_sv_free	#
	.loc 1 1001 0
	movq	-24(%rbp), %rax	# nsv, tmp96
	movq	%rax, -40(%rbp)	# tmp96, sv
.L240:
.LBE12:
	.loc 1 1003 0
	movq	-40(%rbp), %rax	# sv, tmp97
	movq	%rax, %rdx	# tmp97,
	movl	$0, %esi	#,
	movl	%ebx, %edi	# op_type,
	call	Perl_newSVOP	#
	movq	%rax, PL_yylval(%rip)	# D.28769, PL_yylval.opval
	.loc 1 1004 0
	movq	$0, PL_lex_stuff(%rip)	#, PL_lex_stuff
	.loc 1 1005 0
	movl	$260, %eax	#, D.28766
	jmp	.L237	#
.L239:
.LBE11:
	.loc 1 1008 0
	movl	PL_lex_state(%rip), %eax	# PL_lex_state, PL_lex_state.274
	movl	%eax, PL_sublex_info(%rip)	# PL_lex_state.275, PL_sublex_info.super_state
	.loc 1 1009 0
	movl	%ebx, PL_sublex_info+4(%rip)	# op_type, PL_sublex_info.sub_inwhat
	.loc 1 1010 0
	movq	PL_lex_op(%rip), %rax	# PL_lex_op, PL_lex_op.276
	movq	%rax, PL_sublex_info+8(%rip)	# PL_lex_op.276, PL_sublex_info.sub_op
	.loc 1 1011 0
	movl	$7, PL_lex_state(%rip)	#, PL_lex_state
	.loc 1 1013 0
	movl	$1, PL_expect(%rip)	#, PL_expect
	.loc 1 1014 0
	movq	PL_lex_op(%rip), %rax	# PL_lex_op, PL_lex_op.277
	testq	%rax, %rax	# PL_lex_op.277
	je	.L244	#,
	.loc 1 1015 0
	movq	PL_lex_op(%rip), %rax	# PL_lex_op, PL_lex_op.278
	movq	%rax, PL_yylval(%rip)	# PL_lex_op.278, PL_yylval.opval
	.loc 1 1016 0
	movq	$0, PL_lex_op(%rip)	#, PL_lex_op
	.loc 1 1017 0
	movl	$261, %eax	#, D.28766
	jmp	.L237	#
.L244:
	.loc 1 1020 0
	movl	$284, %eax	#, D.28766
.L237:
	.loc 1 1021 0
	addq	$40, %rsp	#,
	popq	%rbx	#
	popq	%rbp	#
	.cfi_def_cfa 7, 8
	ret
	.cfi_endproc
.LFE20:
	.size	S_sublex_start, .-S_sublex_start
	.type	S_sublex_push, @function
S_sublex_push:
.LFB21:
	.loc 1 1033 0
	.cfi_startproc
	pushq	%rbp	#
	.cfi_def_cfa_offset 16
	.cfi_offset 6, -16
	movq	%rsp, %rbp	#,
	.cfi_def_cfa_register 6
	.loc 1 1034 0
	call	Perl_push_scope	#
	.loc 1 1036 0
	movl	PL_sublex_info(%rip), %eax	# PL_sublex_info.super_state, D.28770
	movl	%eax, PL_lex_state(%rip)	# PL_lex_state.279, PL_lex_state
	.loc 1 1037 0
	movl	$PL_lex_dojoin, %edi	#,
	call	Perl_save_I32	#
	.loc 1 1038 0
	movl	$PL_lex_brackets, %edi	#,
	call	Perl_save_I32	#
	.loc 1 1039 0
	movl	$PL_lex_casemods, %edi	#,
	call	Perl_save_I32	#
	.loc 1 1040 0
	movl	$PL_lex_starts, %edi	#,
	call	Perl_save_I32	#
	.loc 1 1041 0
	movl	$PL_lex_state, %edi	#,
	call	Perl_save_I32	#
	.loc 1 1042 0
	movl	$PL_lex_inpat, %edi	#,
	call	Perl_save_vptr	#
	.loc 1 1043 0
	movl	$PL_lex_inwhat, %edi	#,
	call	Perl_save_I32	#
	.loc 1 1044 0
	movq	PL_curcop(%rip), %rax	# PL_curcop, PL_curcop.280
	addq	$72, %rax	#, D.28771
	movq	%rax, %rdi	# D.28771,
	call	Perl_save_I32	#
	.loc 1 1045 0
	movl	$PL_bufptr, %edi	#,
	call	Perl_save_pptr	#
	.loc 1 1046 0
	movl	$PL_bufend, %edi	#,
	call	Perl_save_pptr	#
	.loc 1 1047 0
	movl	$PL_oldbufptr, %edi	#,
	call	Perl_save_pptr	#
	.loc 1 1048 0
	movl	$PL_oldoldbufptr, %edi	#,
	call	Perl_save_pptr	#
	.loc 1 1049 0
	movl	$PL_last_lop, %edi	#,
	call	Perl_save_pptr	#
	.loc 1 1050 0
	movl	$PL_last_uni, %edi	#,
	call	Perl_save_pptr	#
	.loc 1 1051 0
	movl	$PL_linestart, %edi	#,
	call	Perl_save_pptr	#
	.loc 1 1052 0
	movl	$PL_linestr, %edi	#,
	call	Perl_save_sptr	#
	.loc 1 1053 0
	movl	$PL_lex_brackstack, %edi	#,
	call	Perl_save_generic_pvref	#
	.loc 1 1054 0
	movl	$PL_lex_casestack, %edi	#,
	call	Perl_save_generic_pvref	#
	.loc 1 1056 0
	movq	PL_lex_stuff(%rip), %rax	# PL_lex_stuff, PL_lex_stuff.281
	movq	%rax, PL_linestr(%rip)	# PL_lex_stuff.281, PL_linestr
	.loc 1 1057 0
	movq	$0, PL_lex_stuff(%rip)	#, PL_lex_stuff
	.loc 1 1060 0
	movq	PL_linestr(%rip), %rax	# PL_linestr, PL_linestr.282
	movq	(%rax), %rax	# PL_linestr.282_6->sv_any, D.28772
	movq	(%rax), %rax	# MEM[(struct XPV *)_7].xpv_pv, PL_linestart.283
	movq	%rax, PL_linestart(%rip)	# PL_linestart.283, PL_linestart
	movq	PL_linestart(%rip), %rax	# PL_linestart, PL_linestart.284
	.loc 1 1059 0
	movq	%rax, PL_oldoldbufptr(%rip)	# PL_linestart.284, PL_oldoldbufptr
	movq	PL_oldoldbufptr(%rip), %rax	# PL_oldoldbufptr, PL_oldoldbufptr.285
	movq	%rax, PL_oldbufptr(%rip)	# PL_oldoldbufptr.285, PL_oldbufptr
	movq	PL_oldbufptr(%rip), %rax	# PL_oldbufptr, PL_oldbufptr.286
	movq	%rax, PL_bufptr(%rip)	# PL_oldbufptr.286, PL_bufptr
	movq	PL_bufptr(%rip), %rax	# PL_bufptr, PL_bufptr.287
	movq	%rax, PL_bufend(%rip)	# PL_bufptr.287, PL_bufend
	.loc 1 1061 0
	movq	PL_bufend(%rip), %rdx	# PL_bufend, PL_bufend.288
	movq	PL_linestr(%rip), %rax	# PL_linestr, PL_linestr.289
	movq	(%rax), %rax	# PL_linestr.289_14->sv_any, D.28772
	movq	8(%rax), %rax	# MEM[(struct XPV *)_15].xpv_cur, D.28773
	addq	%rdx, %rax	# PL_bufend.288, PL_bufend.290
	movq	%rax, PL_bufend(%rip)	# PL_bufend.290, PL_bufend
	.loc 1 1062 0
	movq	$0, PL_last_uni(%rip)	#, PL_last_uni
	movq	PL_last_uni(%rip), %rax	# PL_last_uni, PL_last_uni.291
	movq	%rax, PL_last_lop(%rip)	# PL_last_uni.291, PL_last_lop
	.loc 1 1063 0
	movq	PL_linestr(%rip), %rax	# PL_linestr, PL_linestr.292
	movq	%rax, %rdi	# PL_linestr.292,
	call	Perl_save_freesv	#
	.loc 1 1065 0
	movl	$0, PL_lex_dojoin(%rip)	#, PL_lex_dojoin
	.loc 1 1066 0
	movl	$0, PL_lex_brackets(%rip)	#, PL_lex_brackets
	.loc 1 1067 0
	movl	$120, %edi	#,
	call	Perl_safesysmalloc	#
	movq	%rax, PL_lex_brackstack(%rip)	# PL_lex_brackstack.293, PL_lex_brackstack
	.loc 1 1068 0
	movl	$12, %edi	#,
	call	Perl_safesysmalloc	#
	movq	%rax, PL_lex_casestack(%rip)	# PL_lex_casestack.294, PL_lex_casestack
	.loc 1 1069 0
	movl	$0, PL_lex_casemods(%rip)	#, PL_lex_casemods
	.loc 1 1070 0
	movq	PL_lex_casestack(%rip), %rax	# PL_lex_casestack, PL_lex_casestack.295
	movb	$0, (%rax)	#, *PL_lex_casestack.295_22
	.loc 1 1071 0
	movl	$0, PL_lex_starts(%rip)	#, PL_lex_starts
	.loc 1 1072 0
	movl	$3, PL_lex_state(%rip)	#, PL_lex_state
	.loc 1 1073 0
	movq	PL_curcop(%rip), %rax	# PL_curcop, PL_curcop.296
	movl	PL_multi_start(%rip), %edx	# PL_multi_start, PL_multi_start.297
	movl	%edx, 72(%rax)	# PL_multi_start.298, PL_curcop.296_23->cop_line
	.loc 1 1075 0
	movl	PL_sublex_info+4(%rip), %eax	# PL_sublex_info.sub_inwhat, PL_lex_inwhat.299
	movl	%eax, PL_lex_inwhat(%rip)	# PL_lex_inwhat.299, PL_lex_inwhat
	.loc 1 1076 0
	movl	PL_lex_inwhat(%rip), %eax	# PL_lex_inwhat, PL_lex_inwhat.300
	cmpl	$31, %eax	#, PL_lex_inwhat.300
	je	.L246	#,
	.loc 1 1076 0 is_stmt 0 discriminator 1
	movl	PL_lex_inwhat(%rip), %eax	# PL_lex_inwhat, PL_lex_inwhat.301
	cmpl	$32, %eax	#, PL_lex_inwhat.301
	je	.L246	#,
	movl	PL_lex_inwhat(%rip), %eax	# PL_lex_inwhat, PL_lex_inwhat.302
	cmpl	$33, %eax	#, PL_lex_inwhat.302
	jne	.L247	#,
.L246:
	.loc 1 1077 0 is_stmt 1
	movq	PL_sublex_info+8(%rip), %rax	# PL_sublex_info.sub_op, PL_lex_inpat.303
	movq	%rax, PL_lex_inpat(%rip)	# PL_lex_inpat.303, PL_lex_inpat
	jmp	.L248	#
.L247:
	.loc 1 1079 0
	movq	$0, PL_lex_inpat(%rip)	#, PL_lex_inpat
.L248:
	.loc 1 1081 0
	movl	$40, %eax	#, D.28774
	.loc 1 1082 0
	popq	%rbp	#
	.cfi_def_cfa 7, 8
	ret
	.cfi_endproc
.LFE21:
	.size	S_sublex_push, .-S_sublex_push
	.section	.rodata
.LC17:
	.string	""
	.text
	.type	S_sublex_done, @function
S_sublex_done:
.LFB22:
	.loc 1 1091 0
	.cfi_startproc
	pushq	%rbp	#
	.cfi_def_cfa_offset 16
	.cfi_offset 6, -16
	movq	%rsp, %rbp	#,
	.cfi_def_cfa_register 6
	subq	$16, %rsp	#,
	.loc 1 1092 0
	movl	PL_lex_starts(%rip), %eax	# PL_lex_starts, PL_lex_starts.304
	leal	1(%rax), %edx	#, PL_lex_starts.306
	movl	%edx, PL_lex_starts(%rip)	# PL_lex_starts.306, PL_lex_starts
	testl	%eax, %eax	# PL_lex_starts.305
	jne	.L251	#,
.LBB13:
	.loc 1 1093 0
	movl	$0, %esi	#,
	movl	$.LC17, %edi	#,
	call	Perl_newSVpvn	#
	movq	%rax, -8(%rbp)	# tmp103, sv
	.loc 1 1094 0
	movq	PL_linestr(%rip), %rax	# PL_linestr, PL_linestr.307
	movl	12(%rax), %eax	# PL_linestr.307_6->sv_flags, D.28776
	andl	$536870912, %eax	#, D.28776
	testl	%eax, %eax	# D.28776
	je	.L252	#,
	.loc 1 1095 0
	movq	-8(%rbp), %rax	# sv, tmp104
	movl	12(%rax), %eax	# sv_5->sv_flags, D.28776
	orl	$536870912, %eax	#, D.28776
	movl	%eax, %edx	# D.28776, D.28776
	movq	-8(%rbp), %rax	# sv, tmp105
	movl	%edx, 12(%rax)	# D.28776, sv_5->sv_flags
.L252:
	.loc 1 1096 0
	movl	$0, PL_expect(%rip)	#, PL_expect
	.loc 1 1097 0
	movq	-8(%rbp), %rax	# sv, tmp106
	movq	%rax, %rdx	# tmp106,
	movl	$0, %esi	#,
	movl	$5, %edi	#,
	call	Perl_newSVOP	#
	movq	%rax, PL_yylval(%rip)	# D.28777, PL_yylval.opval
	.loc 1 1098 0
	movl	$260, %eax	#, D.28775
	jmp	.L253	#
.L251:
.LBE13:
	.loc 1 1101 0
	movl	PL_lex_casemods(%rip), %eax	# PL_lex_casemods, PL_lex_casemods.308
	testl	%eax, %eax	# PL_lex_casemods.308
	je	.L254	#,
	.loc 1 1102 0
	movl	$8, PL_lex_state(%rip)	#, PL_lex_state
	.loc 1 1103 0
	call	Perl_yylex	#
	jmp	.L253	#
.L254:
	.loc 1 1107 0
	movq	PL_lex_repl(%rip), %rax	# PL_lex_repl, PL_lex_repl.309
	testq	%rax, %rax	# PL_lex_repl.309
	je	.L255	#,
	.loc 1 1107 0 is_stmt 0 discriminator 1
	movl	PL_lex_inwhat(%rip), %eax	# PL_lex_inwhat, PL_lex_inwhat.310
	cmpl	$33, %eax	#, PL_lex_inwhat.310
	je	.L256	#,
	movl	PL_lex_inwhat(%rip), %eax	# PL_lex_inwhat, PL_lex_inwhat.311
	cmpl	$35, %eax	#, PL_lex_inwhat.311
	jne	.L255	#,
.L256:
	.loc 1 1108 0 is_stmt 1
	movq	PL_lex_repl(%rip), %rax	# PL_lex_repl, PL_lex_repl.312
	movq	%rax, PL_linestr(%rip)	# PL_lex_repl.312, PL_linestr
	.loc 1 1109 0
	movq	$0, PL_lex_inpat(%rip)	#, PL_lex_inpat
	.loc 1 1110 0
	movq	PL_linestr(%rip), %rax	# PL_linestr, PL_linestr.313
	movq	(%rax), %rax	# PL_linestr.313_19->sv_any, D.28778
	movq	(%rax), %rax	# MEM[(struct XPV *)_20].xpv_pv, PL_linestart.314
	movq	%rax, PL_linestart(%rip)	# PL_linestart.314, PL_linestart
	movq	PL_linestart(%rip), %rax	# PL_linestart, PL_linestart.315
	movq	%rax, PL_oldoldbufptr(%rip)	# PL_linestart.315, PL_oldoldbufptr
	movq	PL_oldoldbufptr(%rip), %rax	# PL_oldoldbufptr, PL_oldoldbufptr.316
	movq	%rax, PL_oldbufptr(%rip)	# PL_oldoldbufptr.316, PL_oldbufptr
	movq	PL_oldbufptr(%rip), %rax	# PL_oldbufptr, PL_oldbufptr.317
	movq	%rax, PL_bufptr(%rip)	# PL_oldbufptr.317, PL_bufptr
	movq	PL_bufptr(%rip), %rax	# PL_bufptr, PL_bufptr.318
	movq	%rax, PL_bufend(%rip)	# PL_bufptr.318, PL_bufend
	.loc 1 1111 0
	movq	PL_bufend(%rip), %rdx	# PL_bufend, PL_bufend.319
	movq	PL_linestr(%rip), %rax	# PL_linestr, PL_linestr.320
	movq	(%rax), %rax	# PL_linestr.320_27->sv_any, D.28778
	movq	8(%rax), %rax	# MEM[(struct XPV *)_28].xpv_cur, D.28779
	addq	%rdx, %rax	# PL_bufend.319, PL_bufend.321
	movq	%rax, PL_bufend(%rip)	# PL_bufend.321, PL_bufend
	.loc 1 1112 0
	movq	$0, PL_last_uni(%rip)	#, PL_last_uni
	movq	PL_last_uni(%rip), %rax	# PL_last_uni, PL_last_uni.322
	movq	%rax, PL_last_lop(%rip)	# PL_last_uni.322, PL_last_lop
	.loc 1 1113 0
	movq	PL_linestr(%rip), %rax	# PL_linestr, PL_linestr.323
	movq	%rax, %rdi	# PL_linestr.323,
	call	Perl_save_freesv	#
	.loc 1 1114 0
	movl	$0, PL_lex_dojoin(%rip)	#, PL_lex_dojoin
	.loc 1 1115 0
	movl	$0, PL_lex_brackets(%rip)	#, PL_lex_brackets
	.loc 1 1116 0
	movl	$0, PL_lex_casemods(%rip)	#, PL_lex_casemods
	.loc 1 1117 0
	movq	PL_lex_casestack(%rip), %rax	# PL_lex_casestack, PL_lex_casestack.324
	movb	$0, (%rax)	#, *PL_lex_casestack.324_33
	.loc 1 1118 0
	movl	$0, PL_lex_starts(%rip)	#, PL_lex_starts
	.loc 1 1119 0
	movq	PL_lex_repl(%rip), %rax	# PL_lex_repl, PL_lex_repl.325
	movl	12(%rax), %eax	# PL_lex_repl.325_34->sv_flags, D.28776
	andl	$1073741824, %eax	#, D.28776
	testl	%eax, %eax	# D.28776
	je	.L257	#,
	.loc 1 1120 0
	movl	$9, PL_lex_state(%rip)	#, PL_lex_state
	.loc 1 1121 0
	movl	PL_lex_starts(%rip), %eax	# PL_lex_starts, PL_lex_starts.326
	addl	$1, %eax	#, PL_lex_starts.327
	movl	%eax, PL_lex_starts(%rip)	# PL_lex_starts.327, PL_lex_starts
	jmp	.L258	#
.L257:
	.loc 1 1128 0
	movl	$3, PL_lex_state(%rip)	#, PL_lex_state
	.loc 1 1129 0
	movq	$0, PL_lex_repl(%rip)	#, PL_lex_repl
.L258:
	.loc 1 1131 0
	movl	$44, %eax	#, D.28775
	jmp	.L253	#
.L255:
	.loc 1 1134 0
	call	Perl_pop_scope	#
	.loc 1 1135 0
	movq	PL_linestr(%rip), %rax	# PL_linestr, PL_linestr.328
	movq	(%rax), %rax	# PL_linestr.328_40->sv_any, D.28778
	movq	(%rax), %rax	# MEM[(struct XPV *)_41].xpv_pv, PL_bufend.329
	movq	%rax, PL_bufend(%rip)	# PL_bufend.329, PL_bufend
	.loc 1 1136 0
	movq	PL_bufend(%rip), %rdx	# PL_bufend, PL_bufend.330
	movq	PL_linestr(%rip), %rax	# PL_linestr, PL_linestr.331
	movq	(%rax), %rax	# PL_linestr.331_44->sv_any, D.28778
	movq	8(%rax), %rax	# MEM[(struct XPV *)_45].xpv_cur, D.28779
	addq	%rdx, %rax	# PL_bufend.330, PL_bufend.332
	movq	%rax, PL_bufend(%rip)	# PL_bufend.332, PL_bufend
	.loc 1 1137 0
	movl	$0, PL_expect(%rip)	#, PL_expect
	.loc 1 1138 0
	movl	$0, PL_sublex_info+4(%rip)	#, PL_sublex_info.sub_inwhat
	.loc 1 1139 0
	movl	$41, %eax	#, D.28775
.L253:
	.loc 1 1141 0
	leave
	.cfi_def_cfa 7, 8
	ret
	.cfi_endproc
.LFE22:
	.size	S_sublex_done, .-S_sublex_done
	.section	.rodata
	.align 8
.LC18:
	.string	"\\.^$@AGZdDwWsSbBpPXC+*?|()-nrtfeaxz0123456789[{]} \t\n\r\f\013#"
	.align 8
.LC19:
	.string	"Invalid range \"%c-%c\" in transliteration operator"
	.align 8
.LC20:
	.string	"Ambiguous range in transliteration operator"
.LC21:
	.string	":'{$+-"
.LC22:
	.string	"()| \r\n\t"
.LC23:
	.string	"\\%c better written as $%c"
.LC24:
	.string	"lLuUEQ"
	.align 8
.LC25:
	.string	"Unrecognized escape \\%c passed through"
.LC26:
	.string	"Missing right brace on \\x{}"
.LC27:
	.string	"Missing right brace on \\N{}"
.LC28:
	.string	"\\N{...}"
.LC29:
	.string	"charnames"
.LC30:
	.string	"Missing braces on \\N{}"
	.align 8
.LC31:
	.string	"Missing control char name in \\c"
	.align 8
.LC32:
	.string	"panic: constant overflowed allocated space"
.LC33:
	.string	"s"
.LC34:
	.string	"qq"
.LC35:
	.string	"tr"
.LC36:
	.string	"qr"
	.text
	.type	S_scan_const, @function
S_scan_const:
.LFB23:
	.loc 1 1218 0
	.cfi_startproc
	pushq	%rbp	#
	.cfi_def_cfa_offset 16
	.cfi_offset 6, -16
	movq	%rsp, %rbp	#,
	.cfi_def_cfa_register 6
	pushq	%r13	#
	pushq	%r12	#
	pushq	%rbx	#
	subq	$232, %rsp	#,
	.cfi_offset 13, -24
	.cfi_offset 12, -32
	.cfi_offset 3, -40
	movq	%rdi, -248(%rbp)	# start, start
	.loc 1 1219 0
	movq	PL_bufend(%rip), %r13	# PL_bufend, send
	.loc 1 1220 0
	movq	%r13, %rdx	# send, send.333
	movq	-248(%rbp), %rax	# start, start.334
	subq	%rax, %rdx	# start.334, D.28781
	movq	%rdx, %rax	# D.28781, D.28781
	movq	%rax, %rdi	# D.28782,
	call	Perl_newSV	#
	movq	%rax, -184(%rbp)	# tmp563, sv
	.loc 1 1221 0
	movq	-248(%rbp), %rbx	# start, s
	.loc 1 1222 0
	movq	-184(%rbp), %rax	# sv, tmp564
	movq	(%rax), %rax	# sv_91->sv_any, D.28783
	movq	(%rax), %r12	# MEM[(struct XPV *)_93].xpv_pv, d
	.loc 1 1223 0
	movb	$0, -229(%rbp)	#, dorange
	.loc 1 1224 0
	movb	$0, -228(%rbp)	#, didrange
	.loc 1 1225 0
	movl	$0, -220(%rbp)	#, has_utf8
	.loc 1 1226 0
	movq	PL_linestr(%rip), %rax	# PL_linestr, PL_linestr.336
	testq	%rax, %rax	# PL_linestr.336
	je	.L260	#,
	.loc 1 1226 0 is_stmt 0 discriminator 1
	movq	PL_linestr(%rip), %rax	# PL_linestr, PL_linestr.337
	movl	12(%rax), %eax	# PL_linestr.337_99->sv_flags, D.28784
	andl	$536870912, %eax	#, D.28784
	testl	%eax, %eax	# D.28784
	je	.L260	#,
	movq	PL_curcop(%rip), %rax	# PL_curcop, PL_curcop.338
	movzbl	37(%rax), %eax	# PL_curcop.338_102->op_private, D.28785
	movzbl	%al, %eax	# D.28785, D.28786
	andl	$8, %eax	#, D.28786
	testl	%eax, %eax	# D.28786
	je	.L261	#,
.L260:
	.loc 1 1226 0 discriminator 2
	movl	PL_hints(%rip), %eax	# PL_hints, PL_hints.339
	andl	$8388608, %eax	#, D.28784
	testl	%eax, %eax	# D.28784
	je	.L262	#,
.L261:
	.loc 1 1226 0 discriminator 1
	movl	$1, %eax	#, iftmp.335
	jmp	.L263	#
.L262:
	.loc 1 1226 0 discriminator 3
	movl	$0, %eax	#, iftmp.335
.L263:
	.loc 1 1226 0 discriminator 4
	movl	%eax, -216(%rbp)	# iftmp.335, this_utf8
	.loc 1 1231 0 is_stmt 1 discriminator 4
	movq	PL_lex_inpat(%rip), %rax	# PL_lex_inpat, PL_lex_inpat.341
	.loc 1 1232 0 discriminator 4
	testq	%rax, %rax	# PL_lex_inpat.341
	je	.L264	#,
	.loc 1 1232 0 is_stmt 0 discriminator 1
	movl	$.LC18, %eax	#, iftmp.340
	jmp	.L265	#
.L264:
	.loc 1 1232 0 discriminator 2
	movl	$.LC17, %eax	#, iftmp.340
.L265:
	.loc 1 1229 0 is_stmt 1
	movq	%rax, -120(%rbp)	# iftmp.340, leaveit
	.loc 1 1234 0
	movl	PL_lex_inwhat(%rip), %eax	# PL_lex_inwhat, PL_lex_inwhat.342
	cmpl	$35, %eax	#, PL_lex_inwhat.342
	jne	.L266	#,
	.loc 1 1234 0 is_stmt 0 discriminator 1
	movq	PL_sublex_info+8(%rip), %rax	# PL_sublex_info.sub_op, D.28787
	testq	%rax, %rax	# D.28787
	je	.L266	#,
	.loc 1 1236 0 is_stmt 1
	movq	PL_sublex_info+8(%rip), %rax	# PL_sublex_info.sub_op, D.28787
	movzbl	37(%rax), %eax	# _117->op_private, D.28785
	movzbl	%al, %eax	# D.28785, D.28786
	andl	$3, %eax	#, tmp565
	movl	%eax, -220(%rbp)	# tmp565, has_utf8
	.loc 1 1237 0
	movq	PL_sublex_info+8(%rip), %rax	# PL_sublex_info.sub_op, D.28787
	movzbl	37(%rax), %eax	# _121->op_private, D.28785
	movzbl	%al, %edx	# D.28785, D.28786
	movq	PL_lex_repl(%rip), %rax	# PL_lex_repl, PL_lex_repl.344
	testq	%rax, %rax	# PL_lex_repl.344
	je	.L267	#,
	.loc 1 1237 0 is_stmt 0 discriminator 1
	movl	$1, %eax	#, iftmp.343
	jmp	.L268	#
.L267:
	.loc 1 1237 0 discriminator 2
	movl	$2, %eax	#, iftmp.343
.L268:
	.loc 1 1237 0 discriminator 3
	andl	%edx, %eax	# D.28786, tmp566
	movl	%eax, -216(%rbp)	# tmp566, this_utf8
	.loc 1 1241 0 is_stmt 1 discriminator 3
	jmp	.L269	#
.L266:
	.loc 1 1241 0 is_stmt 0
	jmp	.L269	#
.L411:
	.loc 1 1243 0 is_stmt 1
	movl	PL_lex_inwhat(%rip), %eax	# PL_lex_inwhat, PL_lex_inwhat.345
	cmpl	$35, %eax	#, PL_lex_inwhat.345
	jne	.L270	#,
	.loc 1 1245 0
	cmpb	$0, -229(%rbp)	#, dorange
	je	.L271	#,
.LBB14:
	.loc 1 1250 0
	cmpl	$0, -220(%rbp)	#, has_utf8
	je	.L272	#,
.LBB15:
	.loc 1 1251 0
	movl	$-1, %esi	#,
	movq	%r12, %rdi	# d,
	call	Perl_utf8_hop	#
	movq	%rax, -112(%rbp)	# tmp567, c
	.loc 1 1252 0
	movq	%r12, %rax	# d, d.346
	leaq	1(%rax), %r12	#, d
	movq	%rax, -168(%rbp)	# d.346, e
	.loc 1 1253 0
	jmp	.L273	#
.L274:
	.loc 1 1254 0
	movq	-168(%rbp), %rax	# e, tmp568
	leaq	1(%rax), %rdx	#, D.28788
	movq	-168(%rbp), %rax	# e, tmp569
	movzbl	(%rax), %eax	# *e_134, D.28789
	movb	%al, (%rdx)	# D.28789, *_135
.L273:
	.loc 1 1253 0 discriminator 1
	movq	-168(%rbp), %rax	# e, e.347
	leaq	-1(%rax), %rdx	#, tmp570
	movq	%rdx, -168(%rbp)	# tmp570, e
	cmpq	-112(%rbp), %rax	# c, e.347
	ja	.L274	#,
	.loc 1 1255 0
	movq	-112(%rbp), %rax	# c, tmp571
	movb	$-1, (%rax)	#, *c_129
	.loc 1 1257 0
	movb	$0, -229(%rbp)	#, dorange
	.loc 1 1258 0
	movb	$1, -228(%rbp)	#, didrange
	.loc 1 1259 0
	jmp	.L269	#
.L272:
.LBE15:
	.loc 1 1262 0
	movq	%r12, %rdx	# d, d.348
	movq	-184(%rbp), %rax	# sv, tmp572
	movq	(%rax), %rax	# sv_91->sv_any, D.28783
	movq	(%rax), %rax	# MEM[(struct XPV *)_140].xpv_pv, D.28788
	subq	%rax, %rdx	# D.28781, D.28781
	movq	%rdx, %rax	# D.28781, D.28781
	movl	%eax, -212(%rbp)	# D.28781, i
	.loc 1 1263 0
	movq	-184(%rbp), %rax	# sv, tmp573
	movq	(%rax), %rax	# sv_91->sv_any, D.28783
	movq	16(%rax), %rdx	# MEM[(struct XPV *)_145].xpv_len, D.28782
	movq	-184(%rbp), %rax	# sv, tmp574
	movq	(%rax), %rax	# sv_91->sv_any, D.28783
	movq	16(%rax), %rax	# MEM[(struct XPV *)_147].xpv_len, D.28782
	addq	$256, %rax	#, D.28782
	cmpq	%rax, %rdx	# D.28782, D.28782
	jae	.L276	#,
	.loc 1 1263 0 is_stmt 0 discriminator 1
	movq	-184(%rbp), %rax	# sv, tmp575
	movq	(%rax), %rax	# sv_91->sv_any, D.28783
	movq	16(%rax), %rax	# MEM[(struct XPV *)_150].xpv_len, D.28782
	leaq	256(%rax), %rdx	#, D.28782
	movq	-184(%rbp), %rax	# sv, tmp576
	movq	%rdx, %rsi	# D.28782,
	movq	%rax, %rdi	# tmp576,
	call	Perl_sv_grow	#
.L276:
	.loc 1 1264 0 is_stmt 1
	movq	-184(%rbp), %rax	# sv, tmp578
	movq	(%rax), %rax	# sv_91->sv_any, D.28783
	movq	(%rax), %rdx	# MEM[(struct XPV *)_156].xpv_pv, D.28788
	movl	-212(%rbp), %eax	# i, tmp579
	cltq
	leaq	(%rdx,%rax), %r12	#, d
	.loc 1 1265 0
	subq	$2, %r12	#, d
	.loc 1 1267 0
	movzbl	(%r12), %eax	# *d_160, D.28789
	movzbl	%al, %eax	# D.28785, tmp580
	movl	%eax, -200(%rbp)	# tmp580, min
	.loc 1 1268 0
	leaq	1(%r12), %rax	#, D.28788
	movzbl	(%rax), %eax	# *_164, D.28789
	movzbl	%al, %eax	# D.28785, tmp581
	movl	%eax, -196(%rbp)	# tmp581, max
	.loc 1 1270 0
	movl	-200(%rbp), %eax	# min, tmp582
	cmpl	-196(%rbp), %eax	# max, tmp582
	jle	.L277	#,
	.loc 1 1273 0
	movl	-196(%rbp), %eax	# max, tmp583
	.loc 1 1271 0
	movsbl	%al, %edx	# D.28789, D.28786
	.loc 1 1273 0
	movl	-200(%rbp), %eax	# min, tmp584
	.loc 1 1271 0
	movsbl	%al, %eax	# D.28789, D.28786
	movl	%eax, %esi	# D.28786,
	movl	$.LC19, %edi	#,
	movl	$0, %eax	#,
	call	Perl_croak	#
.L277:
	.loc 1 1291 0
	movl	-200(%rbp), %eax	# min, tmp585
	movl	%eax, -212(%rbp)	# tmp585, i
	jmp	.L278	#
.L279:
	.loc 1 1292 0 discriminator 2
	movq	%r12, %rax	# d, d.350
	leaq	1(%rax), %r12	#, d
	movl	-212(%rbp), %edx	# i, tmp586
	movb	%dl, (%rax)	# D.28789, *d.350_173
	.loc 1 1291 0 discriminator 2
	addl	$1, -212(%rbp)	#, i
.L278:
	.loc 1 1291 0 is_stmt 0 discriminator 1
	movl	-212(%rbp), %eax	# i, tmp587
	cmpl	-196(%rbp), %eax	# max, tmp587
	jle	.L279	#,
	.loc 1 1295 0 is_stmt 1
	movb	$0, -229(%rbp)	#, dorange
	.loc 1 1296 0
	movb	$1, -228(%rbp)	#, didrange
	.loc 1 1297 0
	jmp	.L269	#
.L271:
.LBE14:
	.loc 1 1301 0
	movzbl	(%rbx), %eax	# *s_12, D.28789
	cmpb	$45, %al	#, D.28789
	jne	.L280	#,
	.loc 1 1301 0 is_stmt 0 discriminator 1
	leaq	1(%rbx), %rax	#, D.28788
	cmpq	%r13, %rax	# send, D.28788
	jae	.L280	#,
	cmpq	-248(%rbp), %rbx	# start, s
	je	.L280	#,
	.loc 1 1302 0 is_stmt 1
	cmpb	$0, -228(%rbp)	#, didrange
	je	.L281	#,
	.loc 1 1303 0
	movl	$.LC20, %edi	#,
	movl	$0, %eax	#,
	call	Perl_croak	#
.L281:
	.loc 1 1305 0
	cmpl	$0, -220(%rbp)	#, has_utf8
	je	.L282	#,
	.loc 1 1306 0
	movq	%r12, %rax	# d, d.351
	leaq	1(%rax), %r12	#, d
	movb	$-1, (%rax)	#, *d.351_181
	.loc 1 1307 0
	addq	$1, %rbx	#, s
	.loc 1 1308 0
	jmp	.L269	#
.L282:
	.loc 1 1310 0
	movb	$1, -229(%rbp)	#, dorange
	.loc 1 1311 0
	addq	$1, %rbx	#, s
	jmp	.L284	#
.L280:
	.loc 1 1314 0
	movb	$0, -228(%rbp)	#, didrange
	jmp	.L284	#
.L270:
	.loc 1 1322 0
	movzbl	(%rbx), %eax	# *s_12, D.28789
	cmpb	$40, %al	#, D.28789
	jne	.L285	#,
	.loc 1 1322 0 is_stmt 0 discriminator 1
	movq	PL_lex_inpat(%rip), %rax	# PL_lex_inpat, PL_lex_inpat.352
	testq	%rax, %rax	# PL_lex_inpat.352
	je	.L285	#,
	leaq	1(%rbx), %rax	#, D.28788
	movzbl	(%rax), %eax	# *_189, D.28789
	cmpb	$63, %al	#, D.28789
	jne	.L285	#,
	.loc 1 1323 0 is_stmt 1
	leaq	2(%rbx), %rax	#, D.28788
	movzbl	(%rax), %eax	# *_191, D.28789
	cmpb	$35, %al	#, D.28789
	jne	.L286	#,
	.loc 1 1324 0
	jmp	.L287	#
.L289:
	.loc 1 1325 0
	movq	%r12, %rax	# d, d.353
	leaq	1(%rax), %r12	#, d
	movq	%rbx, %rdx	# s, s.354
	leaq	1(%rdx), %rbx	#, s
	movzbl	(%rdx), %edx	# *s.354_197, D.28789
	movb	%dl, (%rax)	# D.28789, *d.353_195
.L287:
	.loc 1 1324 0 discriminator 1
	leaq	1(%rbx), %rax	#, D.28788
	cmpq	%r13, %rax	# send, D.28788
	jae	.L288	#,
	.loc 1 1324 0 is_stmt 0 discriminator 2
	movzbl	(%rbx), %eax	# *s_3, D.28789
	cmpb	$41, %al	#, D.28789
	jne	.L289	#,
	.loc 1 1323 0 is_stmt 1
	jmp	.L284	#
.L286:
	.loc 1 1327 0
	leaq	2(%rbx), %rax	#, D.28788
	movzbl	(%rax), %eax	# *_200, D.28789
	cmpb	$123, %al	#, D.28789
	je	.L290	#,
	.loc 1 1328 0
	leaq	2(%rbx), %rax	#, D.28788
	movzbl	(%rax), %eax	# *_202, D.28789
	cmpb	$112, %al	#, D.28789
	je	.L291	#,
	.loc 1 1328 0 is_stmt 0 discriminator 2
	leaq	2(%rbx), %rax	#, D.28788
	movzbl	(%rax), %eax	# *_204, D.28789
	cmpb	$63, %al	#, D.28789
	jne	.L288	#,
.L291:
	.loc 1 1328 0 discriminator 1
	leaq	3(%rbx), %rax	#, D.28788
	movzbl	(%rax), %eax	# *_206, D.28789
	cmpb	$123, %al	#, D.28789
	jne	.L288	#,
.L290:
.LBB16:
	.loc 1 1330 0 is_stmt 1
	movl	$1, -208(%rbp)	#, count
	.loc 1 1331 0
	leaq	2(%rbx), %rax	#, D.28788
	movzbl	(%rax), %eax	# *_209, D.28789
	cmpb	$123, %al	#, D.28789
	jne	.L292	#,
	.loc 1 1331 0 is_stmt 0 discriminator 1
	movl	$3, %eax	#, iftmp.355
	jmp	.L293	#
.L292:
	.loc 1 1331 0 discriminator 2
	movl	$4, %eax	#, iftmp.355
.L293:
	.loc 1 1331 0 discriminator 3
	addq	%rbx, %rax	# s, tmp588
	movq	%rax, -160(%rbp)	# tmp588, regparse
	.loc 1 1334 0 is_stmt 1 discriminator 3
	jmp	.L294	#
.L299:
	.loc 1 1335 0
	cmpb	$92, -227(%rbp)	#, c
	jne	.L295	#,
	.loc 1 1335 0 is_stmt 0 discriminator 1
	movq	-160(%rbp), %rax	# regparse, tmp589
	addq	$1, %rax	#, D.28788
	movzbl	(%rax), %eax	# *_215, D.28789
	testb	%al, %al	# D.28789
	je	.L295	#,
	.loc 1 1336 0 is_stmt 1
	addq	$1, -160(%rbp)	#, regparse
	jmp	.L296	#
.L295:
	.loc 1 1337 0
	cmpb	$123, -227(%rbp)	#, c
	jne	.L297	#,
	.loc 1 1338 0
	addl	$1, -208(%rbp)	#, count
	jmp	.L296	#
.L297:
	.loc 1 1339 0
	cmpb	$125, -227(%rbp)	#, c
	jne	.L296	#,
	.loc 1 1340 0
	subl	$1, -208(%rbp)	#, count
.L296:
	.loc 1 1341 0
	addq	$1, -160(%rbp)	#, regparse
.L294:
	.loc 1 1334 0 discriminator 1
	cmpl	$0, -208(%rbp)	#, count
	je	.L298	#,
	.loc 1 1334 0 is_stmt 0 discriminator 2
	movq	-160(%rbp), %rax	# regparse, tmp590
	movzbl	(%rax), %eax	# *regparse_53, tmp591
	movb	%al, -227(%rbp)	# tmp591, c
	cmpb	$0, -227(%rbp)	#, c
	jne	.L299	#,
.L298:
	.loc 1 1343 0 is_stmt 1
	movq	-160(%rbp), %rax	# regparse, tmp592
	movzbl	(%rax), %eax	# *regparse_53, D.28789
	cmpb	$41, %al	#, D.28789
	je	.L300	#,
	.loc 1 1344 0
	subq	$1, -160(%rbp)	#, regparse
	.loc 1 1345 0
	jmp	.L301	#
.L300:
	jmp	.L301	#
.L302:
	.loc 1 1346 0
	movq	%r12, %rax	# d, d.356
	leaq	1(%rax), %r12	#, d
	movq	%rbx, %rdx	# s, s.357
	leaq	1(%rdx), %rbx	#, s
	movzbl	(%rdx), %edx	# *s.357_225, D.28789
	movb	%dl, (%rax)	# D.28789, *d.356_223
.L301:
	.loc 1 1345 0 discriminator 1
	cmpq	-160(%rbp), %rbx	# regparse, s
	jb	.L302	#,
.L288:
.LBE16:
	.loc 1 1323 0
	jmp	.L284	#
.L285:
	.loc 1 1351 0
	movzbl	(%rbx), %eax	# *s_12, D.28789
	cmpb	$35, %al	#, D.28789
	jne	.L303	#,
	.loc 1 1351 0 is_stmt 0 discriminator 1
	movq	PL_lex_inpat(%rip), %rax	# PL_lex_inpat, PL_lex_inpat.358
	testq	%rax, %rax	# PL_lex_inpat.358
	je	.L303	#,
	.loc 1 1352 0 is_stmt 1 discriminator 1
	movq	PL_lex_inpat(%rip), %rax	# PL_lex_inpat, PL_lex_inpat.359
	movl	88(%rax), %eax	# MEM[(struct PMOP *)PL_lex_inpat.359_230].op_pmflags, D.28784
	andl	$32768, %eax	#, D.28784
	.loc 1 1351 0 discriminator 1
	testl	%eax, %eax	# D.28784
	je	.L303	#,
	.loc 1 1353 0
	jmp	.L304	#
.L306:
	.loc 1 1354 0
	movq	%r12, %rax	# d, d.360
	leaq	1(%rax), %r12	#, d
	movq	%rbx, %rdx	# s, s.361
	leaq	1(%rdx), %rbx	#, s
	movzbl	(%rdx), %edx	# *s.361_237, D.28789
	movb	%dl, (%rax)	# D.28789, *d.360_235
.L304:
	.loc 1 1353 0 discriminator 1
	leaq	1(%rbx), %rax	#, D.28788
	cmpq	%r13, %rax	# send, D.28788
	jae	.L305	#,
	.loc 1 1353 0 is_stmt 0 discriminator 2
	movzbl	(%rbx), %eax	# *s_6, D.28789
	cmpb	$10, %al	#, D.28789
	jne	.L306	#,
.L305:
	.loc 1 1351 0 is_stmt 1
	jmp	.L284	#
.L303:
	.loc 1 1360 0
	movzbl	(%rbx), %eax	# *s_12, D.28789
	cmpb	$64, %al	#, D.28789
	jne	.L307	#,
	.loc 1 1360 0 is_stmt 0 discriminator 1
	leaq	1(%rbx), %rax	#, D.28788
	movzbl	(%rax), %eax	# *_241, D.28789
	testb	%al, %al	# D.28789
	je	.L307	#,
	.loc 1 1361 0 is_stmt 1 discriminator 1
	movq	PL_curcop(%rip), %rax	# PL_curcop, PL_curcop.362
	movzbl	37(%rax), %eax	# PL_curcop.362_243->op_private, D.28785
	movzbl	%al, %eax	# D.28785, D.28786
	andl	$8, %eax	#, D.28786
	.loc 1 1360 0 discriminator 1
	testl	%eax, %eax	# D.28786
	jne	.L308	#,
	.loc 1 1361 0
	movq	PL_linestr(%rip), %rax	# PL_linestr, PL_linestr.363
	testq	%rax, %rax	# PL_linestr.363
	je	.L309	#,
	.loc 1 1361 0 is_stmt 0 discriminator 2
	movq	PL_linestr(%rip), %rax	# PL_linestr, PL_linestr.364
	movl	12(%rax), %eax	# PL_linestr.364_248->sv_flags, D.28784
	andl	$536870912, %eax	#, D.28784
	testl	%eax, %eax	# D.28784
	je	.L309	#,
	.loc 1 1361 0 discriminator 1
	movq	PL_curcop(%rip), %rax	# PL_curcop, PL_curcop.365
	movzbl	37(%rax), %eax	# PL_curcop.365_251->op_private, D.28785
	movzbl	%al, %eax	# D.28785, D.28786
	andl	$8, %eax	#, D.28786
	testl	%eax, %eax	# D.28786
	je	.L310	#,
.L309:
	movl	PL_hints(%rip), %eax	# PL_hints, PL_hints.366
	andl	$8388608, %eax	#, D.28784
	testl	%eax, %eax	# D.28784
	je	.L308	#,
.L310:
	leaq	1(%rbx), %rax	#, D.28791
	movzbl	(%rax), %eax	# *_257, D.28785
	cmpb	$-65, %al	#, D.28785
	ja	.L311	#,
.L308:
	leaq	1(%rbx), %rax	#, D.28788
	movzbl	(%rax), %eax	# *_261, D.28789
	cmpb	$64, %al	#, D.28789
	jle	.L312	#,
	leaq	1(%rbx), %rax	#, D.28788
	movzbl	(%rax), %eax	# *_263, D.28789
	cmpb	$90, %al	#, D.28789
	jle	.L313	#,
.L312:
	.loc 1 1361 0 discriminator 2
	leaq	1(%rbx), %rax	#, D.28788
	movzbl	(%rax), %eax	# *_265, D.28789
	cmpb	$96, %al	#, D.28789
	jle	.L314	#,
	.loc 1 1361 0 discriminator 1
	leaq	1(%rbx), %rax	#, D.28788
	movzbl	(%rax), %eax	# *_267, D.28789
	cmpb	$122, %al	#, D.28789
	jle	.L313	#,
.L314:
	.loc 1 1361 0 discriminator 2
	leaq	1(%rbx), %rax	#, D.28788
	movzbl	(%rax), %eax	# *_269, D.28789
	cmpb	$47, %al	#, D.28789
	jle	.L315	#,
	.loc 1 1361 0 discriminator 1
	leaq	1(%rbx), %rax	#, D.28788
	movzbl	(%rax), %eax	# *_271, D.28789
	cmpb	$57, %al	#, D.28789
	jle	.L313	#,
.L315:
	.loc 1 1361 0 discriminator 2
	leaq	1(%rbx), %rax	#, D.28788
	movzbl	(%rax), %eax	# *_273, D.28789
	cmpb	$95, %al	#, D.28789
	jne	.L316	#,
.L313:
	.loc 1 1361 0 discriminator 1
	movl	$1, %eax	#, iftmp.367
	jmp	.L317	#
.L316:
	.loc 1 1361 0 discriminator 3
	movl	$0, %eax	#, iftmp.367
.L317:
	.loc 1 1361 0 discriminator 4
	andl	$1, %eax	#, D.28792
	testb	%al, %al	# D.28792
	jne	.L318	#,
	.loc 1 1361 0 discriminator 1
	jmp	.L319	#
.L311:
	leaq	1(%rbx), %rax	#, D.28791
	movq	%rax, %rdi	# D.28791,
	call	Perl_is_utf8_alnum	#
	testb	%al, %al	# D.28789
	jne	.L318	#,
.L319:
	.loc 1 1361 0 discriminator 2
	leaq	1(%rbx), %rax	#, D.28788
	movzbl	(%rax), %eax	# *_278, D.28789
	movsbl	%al, %eax	# D.28789, D.28786
	movl	%eax, %esi	# D.28786,
	movl	$.LC21, %edi	#,
	call	strchr	#
	testq	%rax, %rax	# D.28788
	jne	.L318	#,
.L307:
	.loc 1 1367 0 is_stmt 1
	movzbl	(%rbx), %eax	# *s_12, D.28789
	cmpb	$36, %al	#, D.28789
	jne	.L284	#,
	.loc 1 1368 0
	movq	PL_lex_inpat(%rip), %rax	# PL_lex_inpat, PL_lex_inpat.368
	testq	%rax, %rax	# PL_lex_inpat.368
	jne	.L320	#,
	.loc 1 1369 0
	jmp	.L318	#
.L320:
	.loc 1 1370 0
	leaq	1(%rbx), %rax	#, D.28788
	cmpq	%r13, %rax	# send, D.28788
	jae	.L284	#,
	.loc 1 1370 0 is_stmt 0 discriminator 1
	leaq	1(%rbx), %rax	#, D.28788
	movzbl	(%rax), %eax	# *_285, D.28789
	movsbl	%al, %eax	# D.28789, D.28786
	movl	%eax, %esi	# D.28786,
	movl	$.LC22, %edi	#,
	call	strchr	#
	testq	%rax, %rax	# D.28788
	jne	.L284	#,
	.loc 1 1371 0 is_stmt 1
	jmp	.L318	#
.L284:
	.loc 1 1377 0
	movzbl	(%rbx), %eax	# *s_7, D.28789
	cmpb	$92, %al	#, D.28789
	jne	.L321	#,
	.loc 1 1377 0 is_stmt 0 discriminator 1
	leaq	1(%rbx), %rax	#, D.28788
	cmpq	%r13, %rax	# send, D.28788
	jae	.L321	#,
	.loc 1 1378 0 is_stmt 1
	addq	$1, %rbx	#, s
	.loc 1 1381 0
	movq	-120(%rbp), %rax	# leaveit, tmp593
	movzbl	(%rax), %eax	# *leaveit_114, D.28789
	testb	%al, %al	# D.28789
	je	.L322	#,
	.loc 1 1381 0 is_stmt 0 discriminator 1
	movzbl	(%rbx), %eax	# *s_291, D.28789
	testb	%al, %al	# D.28789
	je	.L322	#,
	movzbl	(%rbx), %eax	# *s_291, D.28789
	movsbl	%al, %edx	# D.28789, D.28786
	movq	-120(%rbp), %rax	# leaveit, tmp594
	movl	%edx, %esi	# D.28786,
	movq	%rax, %rdi	# tmp594,
	call	strchr	#
	testq	%rax, %rax	# D.28788
	je	.L322	#,
	.loc 1 1382 0 is_stmt 1
	movq	%r12, %rax	# d, d.369
	leaq	1(%rax), %r12	#, d
	movb	$92, (%rax)	#, *d.369_297
	.loc 1 1383 0
	movq	%r12, %rax	# d, d.370
	leaq	1(%rax), %r12	#, d
	movq	%rbx, %rdx	# s, s.371
	leaq	1(%rdx), %rbx	#, s
	movzbl	(%rdx), %edx	# *s.371_301, D.28789
	movb	%dl, (%rax)	# D.28789, *d.370_299
	.loc 1 1384 0
	jmp	.L269	#
.L322:
	.loc 1 1388 0
	movl	PL_lex_inwhat(%rip), %eax	# PL_lex_inwhat, PL_lex_inwhat.372
	cmpl	$33, %eax	#, PL_lex_inwhat.372
	jne	.L323	#,
	.loc 1 1388 0 is_stmt 0 discriminator 1
	movq	PL_lex_inpat(%rip), %rax	# PL_lex_inpat, PL_lex_inpat.373
	testq	%rax, %rax	# PL_lex_inpat.373
	jne	.L323	#,
	.loc 1 1389 0 is_stmt 1 discriminator 1
	movzbl	(%rbx), %eax	# *s_291, D.28789
	.loc 1 1388 0 discriminator 1
	cmpb	$47, %al	#, D.28789
	jle	.L323	#,
	.loc 1 1389 0
	movzbl	(%rbx), %eax	# *s_291, D.28789
	cmpb	$57, %al	#, D.28789
	jg	.L323	#,
	.loc 1 1389 0 is_stmt 0 discriminator 1
	movzbl	(%rbx), %eax	# *s_291, D.28789
	cmpb	$48, %al	#, D.28789
	je	.L323	#,
	leaq	1(%rbx), %rax	#, D.28788
	movzbl	(%rax), %eax	# *_309, D.28789
	cmpb	$47, %al	#, D.28789
	jle	.L324	#,
	leaq	1(%rbx), %rax	#, D.28788
	movzbl	(%rax), %eax	# *_311, D.28789
	cmpb	$57, %al	#, D.28789
	jle	.L323	#,
.L324:
	.loc 1 1391 0 is_stmt 1
	movq	PL_curcop(%rip), %rax	# PL_curcop, PL_curcop.374
	movq	80(%rax), %rax	# PL_curcop.374_313->cop_warnings, D.28793
	testq	%rax, %rax	# D.28793
	je	.L325	#,
	.loc 1 1391 0 is_stmt 0 discriminator 1
	movq	PL_curcop(%rip), %rax	# PL_curcop, PL_curcop.375
	movq	80(%rax), %rax	# PL_curcop.375_315->cop_warnings, D.28793
	cmpq	$32, %rax	#, D.28793
	je	.L325	#,
	movq	PL_curcop(%rip), %rax	# PL_curcop, PL_curcop.376
	movq	80(%rax), %rax	# PL_curcop.376_317->cop_warnings, D.28793
	cmpq	$16, %rax	#, D.28793
	je	.L326	#,
	movq	PL_curcop(%rip), %rax	# PL_curcop, PL_curcop.377
	movq	80(%rax), %rax	# PL_curcop.377_319->cop_warnings, D.28793
	movq	(%rax), %rax	# _320->sv_any, D.28783
	movq	(%rax), %rax	# MEM[(struct XPV *)_321].xpv_pv, D.28788
	addq	$7, %rax	#, D.28788
	movzbl	(%rax), %eax	# *_323, D.28789
	movsbl	%al, %eax	# D.28789, D.28786
	andl	$1, %eax	#, D.28786
	testl	%eax, %eax	# D.28786
	jne	.L326	#,
.L325:
	.loc 1 1391 0 discriminator 2
	movq	PL_curcop(%rip), %rax	# PL_curcop, PL_curcop.378
	movq	80(%rax), %rax	# PL_curcop.378_327->cop_warnings, D.28793
	testq	%rax, %rax	# D.28793
	jne	.L327	#,
	.loc 1 1391 0 discriminator 1
	movzbl	PL_dowarn(%rip), %eax	# PL_dowarn, PL_dowarn.379
	movzbl	%al, %eax	# PL_dowarn.379, D.28786
	andl	$1, %eax	#, D.28786
	testl	%eax, %eax	# D.28786
	je	.L327	#,
.L326:
	.loc 1 1392 0 is_stmt 1
	movzbl	(%rbx), %eax	# *s_291, D.28789
	movsbl	%al, %edx	# D.28789, D.28786
	movzbl	(%rbx), %eax	# *s_291, D.28789
	movsbl	%al, %eax	# D.28789, D.28786
	movl	%edx, %ecx	# D.28786,
	movl	%eax, %edx	# D.28786,
	movl	$.LC23, %esi	#,
	movl	$28, %edi	#,
	movl	$0, %eax	#,
	call	Perl_warner	#
.L327:
	.loc 1 1393 0
	subq	$1, %rbx	#, s
	movb	$36, (%rbx)	#, *s_336
	.loc 1 1394 0
	jmp	.L318	#
.L323:
	.loc 1 1398 0
	movl	PL_lex_inwhat(%rip), %eax	# PL_lex_inwhat, PL_lex_inwhat.380
	cmpl	$35, %eax	#, PL_lex_inwhat.380
	je	.L328	#,
	.loc 1 1398 0 is_stmt 0 discriminator 1
	movzbl	(%rbx), %eax	# *s_291, D.28789
	testb	%al, %al	# D.28789
	je	.L328	#,
	movzbl	(%rbx), %eax	# *s_291, D.28789
	movsbl	%al, %eax	# D.28789, D.28786
	movl	%eax, %esi	# D.28786,
	movl	$.LC24, %edi	#,
	call	strchr	#
	testq	%rax, %rax	# D.28788
	je	.L328	#,
	.loc 1 1399 0 is_stmt 1
	subq	$1, %rbx	#, s
	.loc 1 1400 0
	jmp	.L318	#
.L328:
	.loc 1 1404 0
	movzbl	(%rbx), %eax	# *s_291, D.28789
	movsbl	%al, %eax	# D.28789, D.28786
	subl	$45, %eax	#, tmp595
	cmpl	$75, %eax	#, tmp595
	ja	.L329	#,
	movl	%eax, %eax	# tmp595, tmp596
	movq	.L331(,%rax,8), %rax	#, tmp597
	jmp	*%rax	# tmp597
	.section	.rodata
	.align 8
	.align 4
.L331:
	.quad	.L330
	.quad	.L329
	.quad	.L329
	.quad	.L332
	.quad	.L332
	.quad	.L332
	.quad	.L332
	.quad	.L332
	.quad	.L332
	.quad	.L332
	.quad	.L332
	.quad	.L329
	.quad	.L329
	.quad	.L329
	.quad	.L329
	.quad	.L329
	.quad	.L329
	.quad	.L329
	.quad	.L329
	.quad	.L329
	.quad	.L329
	.quad	.L329
	.quad	.L329
	.quad	.L329
	.quad	.L329
	.quad	.L329
	.quad	.L329
	.quad	.L329
	.quad	.L329
	.quad	.L329
	.quad	.L329
	.quad	.L329
	.quad	.L329
	.quad	.L333
	.quad	.L329
	.quad	.L329
	.quad	.L329
	.quad	.L329
	.quad	.L329
	.quad	.L329
	.quad	.L329
	.quad	.L329
	.quad	.L329
	.quad	.L329
	.quad	.L329
	.quad	.L329
	.quad	.L329
	.quad	.L329
	.quad	.L329
	.quad	.L329
	.quad	.L329
	.quad	.L329
	.quad	.L334
	.quad	.L335
	.quad	.L336
	.quad	.L329
	.quad	.L337
	.quad	.L338
	.quad	.L329
	.quad	.L329
	.quad	.L329
	.quad	.L329
	.quad	.L329
	.quad	.L329
	.quad	.L329
	.quad	.L339
	.quad	.L329
	.quad	.L329
	.quad	.L329
	.quad	.L340
	.quad	.L329
	.quad	.L341
	.quad	.L329
	.quad	.L329
	.quad	.L329
	.quad	.L342
	.text
.L330:
	.loc 1 1408 0
	movl	PL_lex_inwhat(%rip), %eax	# PL_lex_inwhat, PL_lex_inwhat.381
	cmpl	$35, %eax	#, PL_lex_inwhat.381
	jne	.L329	#,
	.loc 1 1409 0
	movq	%r12, %rax	# d, d.382
	leaq	1(%rax), %r12	#, d
	movq	%rbx, %rdx	# s, s.383
	leaq	1(%rdx), %rbx	#, s
	movzbl	(%rdx), %edx	# *s.383_348, D.28789
	movb	%dl, (%rax)	# D.28789, *d.382_346
	.loc 1 1410 0
	jmp	.L269	#
.L329:
	.loc 1 1415 0
	movq	PL_curcop(%rip), %rax	# PL_curcop, PL_curcop.384
	movq	80(%rax), %rax	# PL_curcop.384_351->cop_warnings, D.28793
	testq	%rax, %rax	# D.28793
	je	.L343	#,
	.loc 1 1415 0 is_stmt 0 discriminator 1
	movq	PL_curcop(%rip), %rax	# PL_curcop, PL_curcop.385
	movq	80(%rax), %rax	# PL_curcop.385_353->cop_warnings, D.28793
	cmpq	$32, %rax	#, D.28793
	je	.L343	#,
	movq	PL_curcop(%rip), %rax	# PL_curcop, PL_curcop.386
	movq	80(%rax), %rax	# PL_curcop.386_355->cop_warnings, D.28793
	cmpq	$16, %rax	#, D.28793
	je	.L344	#,
	.loc 1 1415 0 discriminator 2
	movq	PL_curcop(%rip), %rax	# PL_curcop, PL_curcop.387
	movq	80(%rax), %rax	# PL_curcop.387_357->cop_warnings, D.28793
	movq	(%rax), %rax	# _358->sv_any, D.28783
	movq	(%rax), %rax	# MEM[(struct XPV *)_359].xpv_pv, D.28788
	addq	$3, %rax	#, D.28788
	movzbl	(%rax), %eax	# *_361, D.28789
	movsbl	%al, %eax	# D.28789, D.28786
	andl	$1, %eax	#, D.28786
	testl	%eax, %eax	# D.28786
	jne	.L344	#,
.L343:
	movq	PL_curcop(%rip), %rax	# PL_curcop, PL_curcop.388
	movq	80(%rax), %rax	# PL_curcop.388_365->cop_warnings, D.28793
	testq	%rax, %rax	# D.28793
	jne	.L345	#,
	.loc 1 1415 0 discriminator 1
	movzbl	PL_dowarn(%rip), %eax	# PL_dowarn, PL_dowarn.389
	movzbl	%al, %eax	# PL_dowarn.389, D.28786
	andl	$1, %eax	#, D.28786
	testl	%eax, %eax	# D.28786
	je	.L345	#,
.L344:
	.loc 1 1416 0 is_stmt 1 discriminator 1
	movzbl	(%rbx), %eax	# *s_291, D.28789
	.loc 1 1415 0 discriminator 1
	cmpb	$64, %al	#, D.28789
	jle	.L346	#,
	.loc 1 1416 0
	movzbl	(%rbx), %eax	# *s_291, D.28789
	cmpb	$90, %al	#, D.28789
	jle	.L347	#,
.L346:
	.loc 1 1416 0 is_stmt 0 discriminator 2
	movzbl	(%rbx), %eax	# *s_291, D.28789
	cmpb	$96, %al	#, D.28789
	jle	.L348	#,
	.loc 1 1416 0 discriminator 1
	movzbl	(%rbx), %eax	# *s_291, D.28789
	cmpb	$122, %al	#, D.28789
	jle	.L347	#,
.L348:
	.loc 1 1416 0 discriminator 2
	movzbl	(%rbx), %eax	# *s_291, D.28789
	cmpb	$47, %al	#, D.28789
	jle	.L349	#,
	.loc 1 1416 0 discriminator 1
	movzbl	(%rbx), %eax	# *s_291, D.28789
	cmpb	$57, %al	#, D.28789
	jle	.L347	#,
.L349:
	.loc 1 1416 0 discriminator 2
	movzbl	(%rbx), %eax	# *s_291, D.28789
	cmpb	$95, %al	#, D.28789
	jne	.L345	#,
.L347:
	.loc 1 1417 0 is_stmt 1 discriminator 1
	movzbl	(%rbx), %eax	# *s_291, D.28789
	.loc 1 1416 0 discriminator 1
	cmpb	$95, %al	#, D.28789
	je	.L345	#,
	.loc 1 1420 0
	movzbl	(%rbx), %eax	# *s_291, D.28789
	.loc 1 1418 0
	movsbl	%al, %eax	# D.28789, D.28786
	movl	%eax, %edx	# D.28786,
	movl	$.LC25, %esi	#,
	movl	$12, %edi	#,
	movl	$0, %eax	#,
	call	Perl_warner	#
	.loc 1 1422 0
	jmp	.L321	#
.L345:
	jmp	.L321	#
.L332:
.LBB17:
	.loc 1 1429 0
	movl	$0, -224(%rbp)	#, flags
	.loc 1 1430 0
	movq	$3, -192(%rbp)	#, len
	.loc 1 1431 0
	leaq	-224(%rbp), %rdx	#, tmp598
	leaq	-192(%rbp), %rax	#, tmp599
	movl	$0, %ecx	#,
	movq	%rax, %rsi	# tmp599,
	movq	%rbx, %rdi	# s,
	call	Perl_grok_oct	#
	movq	%rax, -176(%rbp)	# tmp600, uv
	.loc 1 1432 0
	movq	-192(%rbp), %rax	# len, len.390
	addq	%rax, %rbx	# len.390, s
.LBE17:
	.loc 1 1434 0
	jmp	.L350	#
.L342:
	.loc 1 1438 0
	addq	$1, %rbx	#, s
	.loc 1 1439 0
	movzbl	(%rbx), %eax	# *s_383, D.28789
	cmpb	$123, %al	#, D.28789
	jne	.L351	#,
.LBB18:
	.loc 1 1440 0
	movl	$125, %esi	#,
	movq	%rbx, %rdi	# s,
	call	strchr	#
	movq	%rax, -104(%rbp)	# tmp601, e
	.loc 1 1441 0
	movl	$3, -224(%rbp)	#, flags
	.loc 1 1445 0
	addq	$1, %rbx	#, s
	.loc 1 1446 0
	cmpq	$0, -104(%rbp)	#, e
	jne	.L352	#,
	.loc 1 1447 0
	movl	$.LC26, %edi	#,
	call	Perl_yyerror	#
	jmp	.L269	#
.L352:
	.loc 1 1450 0
	movq	-104(%rbp), %rdx	# e, e.391
	movq	%rbx, %rax	# s, s.392
	subq	%rax, %rdx	# s.392, D.28781
	movq	%rdx, %rax	# D.28781, D.28781
	movq	%rax, -192(%rbp)	# len.393, len
	.loc 1 1451 0
	leaq	-224(%rbp), %rdx	#, tmp602
	leaq	-192(%rbp), %rax	#, tmp603
	movl	$0, %ecx	#,
	movq	%rax, %rsi	# tmp603,
	movq	%rbx, %rdi	# s,
	call	Perl_grok_hex	#
	movq	%rax, -176(%rbp)	# tmp604, uv
	.loc 1 1452 0
	movq	-104(%rbp), %rax	# e, tmp605
	leaq	1(%rax), %rbx	#, s
.LBE18:
	jmp	.L350	#
.L351:
.LBB19:
	.loc 1 1456 0
	movq	$2, -192(%rbp)	#, len
	.loc 1 1457 0
	movl	$2, -224(%rbp)	#, flags
	.loc 1 1458 0
	leaq	-224(%rbp), %rdx	#, tmp606
	leaq	-192(%rbp), %rax	#, tmp607
	movl	$0, %ecx	#,
	movq	%rax, %rsi	# tmp607,
	movq	%rbx, %rdi	# s,
	call	Perl_grok_hex	#
	movq	%rax, -176(%rbp)	# tmp608, uv
	.loc 1 1459 0
	movq	-192(%rbp), %rax	# len, len.394
	addq	%rax, %rbx	# len.394, s
.L350:
.LBE19:
	.loc 1 1472 0
	cmpq	$127, -176(%rbp)	#, uv
	jbe	.L353	#,
	.loc 1 1473 0
	cmpl	$0, -220(%rbp)	#, has_utf8
	jne	.L354	#,
	.loc 1 1473 0 is_stmt 0 discriminator 1
	cmpq	$255, -176(%rbp)	#, uv
	jbe	.L354	#,
.LBB20:
	.loc 1 1481 0 is_stmt 1
	movl	$0, -204(%rbp)	#, hicount
	.loc 1 1483 0
	movq	-184(%rbp), %rax	# sv, tmp609
	movq	(%rax), %rax	# sv_91->sv_any, D.28783
	movq	(%rax), %rax	# MEM[(struct XPV *)_503].xpv_pv, tmp610
	movq	%rax, -152(%rbp)	# tmp610, c
	jmp	.L355	#
.L357:
	.loc 1 1484 0
	movq	-152(%rbp), %rax	# c, tmp611
	movzbl	(%rax), %eax	# *c_57, D.28785
	testb	%al, %al	# D.28795
	jns	.L356	#,
	.loc 1 1485 0
	addl	$1, -204(%rbp)	#, hicount
.L356:
	.loc 1 1483 0
	addq	$1, -152(%rbp)	#, c
.L355:
	.loc 1 1483 0 is_stmt 0 discriminator 1
	cmpq	%r12, -152(%rbp)	# d, c
	jb	.L357	#,
	.loc 1 1488 0 is_stmt 1
	cmpl	$0, -204(%rbp)	#, hicount
	je	.L354	#,
.LBB21:
	.loc 1 1489 0
	movq	%r12, %rdx	# d, d.395
	movq	-184(%rbp), %rax	# sv, tmp612
	movq	(%rax), %rax	# sv_91->sv_any, D.28783
	movq	(%rax), %rax	# MEM[(struct XPV *)_510].xpv_pv, D.28788
	subq	%rax, %rdx	# D.28781, D.28781
	movq	%rdx, %rax	# D.28781, D.28781
	movq	%rax, -64(%rbp)	# D.28781, offset
	.loc 1 1491 0
	movq	-184(%rbp), %rax	# sv, tmp613
	movq	(%rax), %rax	# sv_91->sv_any, D.28783
	movq	16(%rax), %rdx	# MEM[(struct XPV *)_515].xpv_len, D.28782
	movq	-184(%rbp), %rax	# sv, tmp614
	movq	(%rax), %rax	# sv_91->sv_any, D.28783
	movq	16(%rax), %rcx	# MEM[(struct XPV *)_517].xpv_len, D.28782
	movl	-204(%rbp), %eax	# hicount, tmp615
	cltq
	addq	%rcx, %rax	# D.28782, D.28782
	addq	$1, %rax	#, D.28782
	cmpq	%rax, %rdx	# D.28782, D.28782
	jae	.L358	#,
	.loc 1 1491 0 is_stmt 0 discriminator 1
	movq	-184(%rbp), %rax	# sv, tmp616
	movq	(%rax), %rax	# sv_91->sv_any, D.28783
	movq	16(%rax), %rdx	# MEM[(struct XPV *)_522].xpv_len, D.28782
	movl	-204(%rbp), %eax	# hicount, tmp617
	cltq
	addq	%rdx, %rax	# D.28782, D.28782
	leaq	1(%rax), %rdx	#, D.28782
	movq	-184(%rbp), %rax	# sv, tmp618
	movq	%rdx, %rsi	# D.28782,
	movq	%rax, %rdi	# tmp618,
	call	Perl_sv_grow	#
	jmp	.L359	#
.L358:
	.loc 1 1491 0 discriminator 2
	movq	-184(%rbp), %rax	# sv, tmp619
	movq	(%rax), %rax	# sv_91->sv_any, D.28783
	movq	(%rax), %rax	# MEM[(struct XPV *)_528].xpv_pv, iftmp.396
.L359:
	.loc 1 1491 0 discriminator 3
	movq	-64(%rbp), %rdx	# offset, tmp620
	leaq	(%rax,%rdx), %r12	#, d
	.loc 1 1492 0 is_stmt 1 discriminator 3
	leaq	-1(%r12), %rax	#, tmp621
	movq	%rax, -144(%rbp)	# tmp621, src
	.loc 1 1493 0 discriminator 3
	movl	-204(%rbp), %eax	# hicount, tmp622
	movslq	%eax, %rdx	# tmp622, D.28790
	movq	-144(%rbp), %rax	# src, tmp626
	addq	%rdx, %rax	# D.28790, tmp625
	movq	%rax, -136(%rbp)	# tmp625, dst
	.loc 1 1494 0 discriminator 3
	movl	-204(%rbp), %eax	# hicount, tmp627
	cltq
	addq	%rax, %r12	# D.28790, d
	.loc 1 1495 0 discriminator 3
	jmp	.L360	#
.L363:
	.loc 1 1496 0
	movq	-144(%rbp), %rax	# src, tmp628
	movzbl	(%rax), %eax	# *src_58, D.28785
	testb	%al, %al	# D.28795
	jns	.L361	#,
.LBB22:
	.loc 1 1497 0
	movq	-144(%rbp), %rax	# src, tmp629
	movzbl	(%rax), %eax	# *src_58, tmp630
	movb	%al, -226(%rbp)	# tmp630, ch
	.loc 1 1498 0
	movq	-136(%rbp), %rax	# dst, dst.397
	leaq	-1(%rax), %rdx	#, tmp631
	movq	%rdx, -136(%rbp)	# tmp631, dst
	movzbl	-226(%rbp), %edx	# ch, ch.398
	andl	$63, %edx	#, D.28795
	orl	$-128, %edx	#, D.28795
	movb	%dl, (%rax)	# D.28785, *dst.397_541
	.loc 1 1499 0
	movq	-136(%rbp), %rax	# dst, dst.399
	leaq	-1(%rax), %rdx	#, tmp632
	movq	%rdx, -136(%rbp)	# tmp632, dst
	movzbl	-226(%rbp), %edx	# ch, tmp633
	shrb	$6, %dl	#, D.28785
	orl	$-64, %edx	#, D.28795
	movb	%dl, (%rax)	# D.28785, *dst.399_547
.LBE22:
	jmp	.L362	#
.L361:
	.loc 1 1502 0
	movq	-136(%rbp), %rax	# dst, dst.400
	leaq	-1(%rax), %rdx	#, tmp634
	movq	%rdx, -136(%rbp)	# tmp634, dst
	movq	-144(%rbp), %rdx	# src, tmp635
	movzbl	(%rdx), %edx	# *src_58, D.28785
	movb	%dl, (%rax)	# D.28785, *dst.400_553
.L362:
	.loc 1 1504 0
	subq	$1, -144(%rbp)	#, src
.L360:
	.loc 1 1495 0 discriminator 1
	movq	-184(%rbp), %rax	# sv, tmp636
	movq	(%rax), %rax	# sv_91->sv_any, D.28783
	movq	(%rax), %rax	# MEM[(struct XPV *)_536].xpv_pv, D.28788
	cmpq	-144(%rbp), %rax	# src, D.28788
	jbe	.L363	#,
.L354:
.LBE21:
.LBE20:
	.loc 1 1509 0
	cmpl	$0, -220(%rbp)	#, has_utf8
	jne	.L364	#,
	.loc 1 1509 0 is_stmt 0 discriminator 1
	cmpq	$255, -176(%rbp)	#, uv
	jbe	.L365	#,
.L364:
	.loc 1 1510 0 is_stmt 1
	movq	-176(%rbp), %rax	# uv, tmp637
	movq	%rax, %rsi	# tmp637,
	movq	%r12, %rdi	# d,
	call	Perl_uvuni_to_utf8	#
	movq	%rax, %r12	#, d
	.loc 1 1511 0
	movl	$1, -220(%rbp)	#, has_utf8
	.loc 1 1512 0
	movl	PL_lex_inwhat(%rip), %eax	# PL_lex_inwhat, PL_lex_inwhat.401
	cmpl	$35, %eax	#, PL_lex_inwhat.401
	jne	.L366	#,
	.loc 1 1513 0 discriminator 1
	movq	PL_sublex_info+8(%rip), %rax	# PL_sublex_info.sub_op, D.28787
	.loc 1 1512 0 discriminator 1
	testq	%rax, %rax	# D.28787
	je	.L366	#,
	.loc 1 1514 0
	movq	PL_sublex_info+8(%rip), %rdx	# PL_sublex_info.sub_op, D.28787
	movq	PL_sublex_info+8(%rip), %rax	# PL_sublex_info.sub_op, D.28787
	movzbl	37(%rax), %eax	# _565->op_private, D.28785
	movl	%eax, %ecx	# D.28785, D.28795
	.loc 1 1515 0
	movq	PL_lex_repl(%rip), %rax	# PL_lex_repl, PL_lex_repl.403
	.loc 1 1514 0
	testq	%rax, %rax	# PL_lex_repl.403
	je	.L367	#,
	.loc 1 1514 0 is_stmt 0 discriminator 1
	movl	$1, %eax	#, iftmp.402
	jmp	.L368	#
.L367:
	.loc 1 1514 0 discriminator 2
	movl	$2, %eax	#, iftmp.402
.L368:
	.loc 1 1514 0 discriminator 3
	orl	%ecx, %eax	# D.28795, D.28795
	movb	%al, 37(%rdx)	# D.28785, _564->op_private
	.loc 1 1512 0 is_stmt 1 discriminator 3
	jmp	.L369	#
.L366:
	.loc 1 1512 0 is_stmt 0 discriminator 2
	jmp	.L369	#
.L365:
	.loc 1 1520 0 is_stmt 1
	movq	%r12, %rax	# d, d.404
	leaq	1(%rax), %r12	#, d
	movq	-176(%rbp), %rdx	# uv, tmp638
	movb	%dl, (%rax)	# D.28789, *d.404_557
	jmp	.L370	#
.L369:
	jmp	.L370	#
.L353:
	.loc 1 1524 0
	movq	%r12, %rax	# d, d.405
	leaq	1(%rax), %r12	#, d
	movq	-176(%rbp), %rdx	# uv, tmp639
	movb	%dl, (%rax)	# D.28789, *d.405_573
	.loc 1 1526 0
	jmp	.L269	#
.L370:
	jmp	.L269	#
.L333:
	.loc 1 1530 0
	addq	$1, %rbx	#, s
	.loc 1 1531 0
	movzbl	(%rbx), %eax	# *s_396, D.28789
	cmpb	$123, %al	#, D.28789
	jne	.L371	#,
.LBB23:
	.loc 1 1532 0
	movl	$125, %esi	#,
	movq	%rbx, %rdi	# s,
	call	strchr	#
	movq	%rax, -128(%rbp)	# tmp640, e
	.loc 1 1537 0
	cmpq	$0, -128(%rbp)	#, e
	jne	.L372	#,
	.loc 1 1538 0
	movl	$.LC27, %edi	#,
	call	Perl_yyerror	#
	.loc 1 1539 0
	leaq	-1(%rbx), %rax	#, tmp641
	movq	%rax, -128(%rbp)	# tmp641, e
	.loc 1 1540 0
	jmp	.L373	#
.L372:
	.loc 1 1542 0
	leaq	2(%rbx), %rax	#, D.28788
	cmpq	-128(%rbp), %rax	# e, D.28788
	jae	.L374	#,
	.loc 1 1542 0 is_stmt 0 discriminator 1
	leaq	1(%rbx), %rax	#, D.28788
	movzbl	(%rax), %eax	# *_401, D.28789
	cmpb	$85, %al	#, D.28789
	jne	.L374	#,
	leaq	2(%rbx), %rax	#, D.28788
	movzbl	(%rax), %eax	# *_403, D.28789
	cmpb	$43, %al	#, D.28789
	jne	.L374	#,
.LBB24:
	.loc 1 1544 0 is_stmt 1
	movl	$3, -224(%rbp)	#, flags
	.loc 1 1546 0
	addq	$3, %rbx	#, s
	.loc 1 1547 0
	movq	-128(%rbp), %rdx	# e, e.406
	movq	%rbx, %rax	# s, s.407
	subq	%rax, %rdx	# s.407, D.28781
	movq	%rdx, %rax	# D.28781, D.28781
	movq	%rax, -192(%rbp)	# len.408, len
	.loc 1 1548 0
	leaq	-224(%rbp), %rdx	#, tmp642
	leaq	-192(%rbp), %rax	#, tmp643
	movl	$0, %ecx	#,
	movq	%rax, %rsi	# tmp643,
	movq	%rbx, %rdi	# s,
	call	Perl_grok_hex	#
	movq	%rax, -176(%rbp)	# tmp644, uv
	.loc 1 1549 0
	movq	-128(%rbp), %rax	# e, tmp645
	leaq	1(%rax), %rbx	#, s
	.loc 1 1550 0
	nop
	jmp	.L350	#
.L374:
.LBE24:
	.loc 1 1552 0
	movq	-128(%rbp), %rdx	# e, e.409
	movq	%rbx, %rax	# s, s.410
	subq	%rax, %rdx	# s.410, D.28781
	movq	%rdx, %rax	# D.28781, D.28781
	subq	$1, %rax	#, D.28781
	movq	%rax, %rdx	# D.28781, D.28782
	leaq	1(%rbx), %rax	#, D.28794
	movq	%rdx, %rsi	# D.28782,
	movq	%rax, %rdi	# D.28794,
	call	Perl_newSVpvn	#
	movq	%rax, -96(%rbp)	# tmp646, res
	.loc 1 1553 0
	movq	-96(%rbp), %rax	# res, tmp647
	movl	$.LC28, %r9d	#,
	movl	$0, %r8d	#,
	movq	%rax, %rcx	# tmp647,
	movl	$.LC29, %edx	#,
	movl	$0, %esi	#,
	movl	$0, %edi	#,
	call	S_new_constant	#
	movq	%rax, -96(%rbp)	# tmp648, res
	.loc 1 1555 0
	cmpl	$0, -220(%rbp)	#, has_utf8
	je	.L375	#,
	.loc 1 1556 0
	movq	-96(%rbp), %rax	# res, tmp649
	movl	$2, %esi	#,
	movq	%rax, %rdi	# tmp649,
	call	Perl_sv_utf8_upgrade_flags	#
.L375:
	.loc 1 1557 0
	movq	-96(%rbp), %rax	# res, tmp650
	movl	12(%rax), %eax	# res_419->sv_flags, D.28784
	andl	$262144, %eax	#, D.28784
	testl	%eax, %eax	# D.28784
	je	.L376	#,
	.loc 1 1557 0 is_stmt 0 discriminator 1
	movq	-96(%rbp), %rax	# res, tmp651
	movq	(%rax), %rax	# res_419->sv_any, D.28783
	movq	8(%rax), %rax	# MEM[(struct XPV *)_422].xpv_cur, len.412
	movq	%rax, -192(%rbp)	# len.412, len
	movq	-96(%rbp), %rax	# res, tmp652
	movq	(%rax), %rax	# res_419->sv_any, D.28783
	movq	(%rax), %rax	# MEM[(struct XPV *)_424].xpv_pv, iftmp.411
	jmp	.L377	#
.L376:
	.loc 1 1557 0 discriminator 2
	leaq	-192(%rbp), %rcx	#, tmp653
	movq	-96(%rbp), %rax	# res, tmp654
	movl	$2, %edx	#,
	movq	%rcx, %rsi	# tmp653,
	movq	%rax, %rdi	# tmp654,
	call	Perl_sv_2pv_flags	#
.L377:
	.loc 1 1557 0 discriminator 3
	movq	%rax, -88(%rbp)	# iftmp.411, str
	.loc 1 1578 0 is_stmt 1 discriminator 3
	cmpl	$0, -220(%rbp)	#, has_utf8
	jne	.L378	#,
	.loc 1 1578 0 is_stmt 0 discriminator 1
	movq	-96(%rbp), %rax	# res, tmp655
	movl	12(%rax), %eax	# res_419->sv_flags, D.28784
	andl	$536870912, %eax	#, D.28784
	testl	%eax, %eax	# D.28784
	je	.L378	#,
.LBB25:
	.loc 1 1579 0 is_stmt 1
	movq	-184(%rbp), %rax	# sv, tmp656
	movq	(%rax), %rax	# sv_91->sv_any, D.28783
	movq	(%rax), %rax	# MEM[(struct XPV *)_430].xpv_pv, tmp657
	movq	%rax, -80(%rbp)	# tmp657, ostart
	.loc 1 1580 0
	movq	-184(%rbp), %rax	# sv, tmp658
	movq	(%rax), %rax	# sv_91->sv_any, D.28783
	movq	%r12, %rcx	# d, d.413
	movq	-80(%rbp), %rdx	# ostart, ostart.414
	subq	%rdx, %rcx	# ostart.414, D.28781
	movq	%rcx, %rdx	# D.28781, D.28781
	movq	%rdx, 8(%rax)	# D.28782, MEM[(struct XPV *)_432].xpv_cur
	.loc 1 1581 0
	movq	-184(%rbp), %rax	# sv, tmp659
	movl	12(%rax), %eax	# sv_91->sv_flags, D.28784
	orl	$67371008, %eax	#, D.28784
	movl	%eax, %edx	# D.28784, D.28784
	movq	-184(%rbp), %rax	# sv, tmp660
	movl	%edx, 12(%rax)	# D.28784, sv_91->sv_flags
	.loc 1 1582 0
	movb	$0, (%r12)	#, *d_19
	.loc 1 1583 0
	movq	-184(%rbp), %rax	# sv, tmp661
	movl	$2, %esi	#,
	movq	%rax, %rdi	# tmp661,
	call	Perl_sv_utf8_upgrade_flags	#
	.loc 1 1585 0
	movq	-184(%rbp), %rax	# sv, tmp662
	movq	(%rax), %rax	# sv_91->sv_any, D.28783
	movq	16(%rax), %rdx	# MEM[(struct XPV *)_439].xpv_len, D.28782
	movq	%r13, %rcx	# send, send.416
	movq	-248(%rbp), %rax	# start, start.417
	subq	%rax, %rcx	# start.417, D.28781
	movq	%rcx, %rax	# D.28781, D.28781
	cmpq	%rax, %rdx	# D.28782, D.28782
	jae	.L380	#,
	.loc 1 1585 0 is_stmt 0 discriminator 1
	movq	%r13, %rdx	# send, send.418
	movq	-248(%rbp), %rax	# start, start.419
	subq	%rax, %rdx	# start.419, D.28781
	movq	%rdx, %rax	# D.28781, D.28781
	movq	%rax, %rdx	# D.28781, D.28782
	movq	-184(%rbp), %rax	# sv, tmp663
	movq	%rdx, %rsi	# D.28782,
	movq	%rax, %rdi	# tmp663,
	call	Perl_sv_grow	#
.L380:
	.loc 1 1586 0 is_stmt 1
	movq	-184(%rbp), %rax	# sv, tmp665
	movq	(%rax), %rax	# sv_91->sv_any, D.28783
	movq	(%rax), %rdx	# MEM[(struct XPV *)_452].xpv_pv, D.28788
	movq	-184(%rbp), %rax	# sv, tmp666
	movq	(%rax), %rax	# sv_91->sv_any, D.28783
	movq	8(%rax), %rax	# MEM[(struct XPV *)_454].xpv_cur, D.28782
	leaq	(%rdx,%rax), %r12	#, d
	.loc 1 1587 0
	movl	$1, -220(%rbp)	#, has_utf8
.L378:
.LBE25:
	.loc 1 1589 0
	movq	-128(%rbp), %rdx	# e, e.420
	movq	%rbx, %rax	# s, s.421
	subq	%rax, %rdx	# s.421, D.28781
	movq	%rdx, %rax	# D.28781, D.28781
	addq	$4, %rax	#, D.28781
	movq	%rax, %rdx	# D.28781, D.28782
	movq	-192(%rbp), %rax	# len, len.422
	cmpq	%rax, %rdx	# len.422, D.28782
	jae	.L381	#,
.LBB26:
	.loc 1 1590 0
	movq	-184(%rbp), %rax	# sv, tmp667
	movq	(%rax), %rax	# sv_91->sv_any, D.28783
	movq	(%rax), %rax	# MEM[(struct XPV *)_464].xpv_pv, tmp668
	movq	%rax, -72(%rbp)	# tmp668, odest
	.loc 1 1592 0
	movq	-184(%rbp), %rax	# sv, tmp669
	movq	(%rax), %rax	# sv_91->sv_any, D.28783
	movq	16(%rax), %rdx	# MEM[(struct XPV *)_466].xpv_len, D.28782
	movq	-184(%rbp), %rax	# sv, tmp670
	movq	(%rax), %rax	# sv_91->sv_any, D.28783
	movq	16(%rax), %rcx	# MEM[(struct XPV *)_468].xpv_len, D.28782
	movq	-192(%rbp), %rax	# len, len.424
	leaq	(%rcx,%rax), %rsi	#, D.28782
	movq	%rbx, %rcx	# s, s.425
	movq	-128(%rbp), %rax	# e, e.426
	subq	%rax, %rcx	# e.426, D.28781
	movq	%rcx, %rax	# D.28781, D.28781
	addq	%rsi, %rax	# D.28782, D.28782
	subq	$4, %rax	#, D.28782
	cmpq	%rax, %rdx	# D.28782, D.28782
	jae	.L383	#,
	.loc 1 1592 0 is_stmt 0 discriminator 1
	movq	-184(%rbp), %rax	# sv, tmp671
	movq	(%rax), %rax	# sv_91->sv_any, D.28783
	movq	16(%rax), %rdx	# MEM[(struct XPV *)_478].xpv_len, D.28782
	movq	-192(%rbp), %rax	# len, len.427
	leaq	(%rdx,%rax), %rcx	#, D.28782
	movq	%rbx, %rdx	# s, s.428
	movq	-128(%rbp), %rax	# e, e.429
	subq	%rax, %rdx	# e.429, D.28781
	movq	%rdx, %rax	# D.28781, D.28781
	addq	%rcx, %rax	# D.28782, D.28782
	leaq	-4(%rax), %rdx	#, D.28782
	movq	-184(%rbp), %rax	# sv, tmp672
	movq	%rdx, %rsi	# D.28782,
	movq	%rax, %rdi	# tmp672,
	call	Perl_sv_grow	#
.L383:
	.loc 1 1593 0 is_stmt 1
	movq	-184(%rbp), %rax	# sv, tmp674
	movq	(%rax), %rax	# sv_91->sv_any, D.28783
	movq	(%rax), %rdx	# MEM[(struct XPV *)_491].xpv_pv, D.28788
	movq	%r12, %rcx	# d, d.430
	movq	-72(%rbp), %rax	# odest, odest.431
	subq	%rax, %rcx	# odest.431, D.28781
	movq	%rcx, %rax	# D.28781, D.28781
	leaq	(%rdx,%rax), %r12	#, d
.L381:
.LBE26:
	.loc 1 1595 0
	movq	-192(%rbp), %rdx	# len, len.432
	movq	-88(%rbp), %rax	# str, tmp675
	movq	%rax, %rsi	# tmp675,
	movq	%r12, %rdi	# d,
	call	memcpy	#
	.loc 1 1596 0
	movq	-192(%rbp), %rax	# len, len.433
	addq	%rax, %r12	# len.433, d
	.loc 1 1597 0
	movq	-96(%rbp), %rax	# res, tmp676
	movq	%rax, %rdi	# tmp676,
	call	Perl_sv_free	#
.L373:
	.loc 1 1599 0
	movq	-128(%rbp), %rax	# e, tmp677
	leaq	1(%rax), %rbx	#, s
.LBE23:
	.loc 1 1603 0
	jmp	.L269	#
.L371:
	.loc 1 1602 0
	movl	$.LC30, %edi	#,
	call	Perl_yyerror	#
	.loc 1 1603 0
	jmp	.L269	#
.L336:
	.loc 1 1607 0
	addq	$1, %rbx	#, s
	.loc 1 1608 0
	cmpq	%r13, %rbx	# send, s
	jae	.L385	#,
.LBB27:
	.loc 1 1609 0
	movq	%rbx, %rax	# s, s.434
	leaq	1(%rax), %rbx	#, s
	movzbl	(%rax), %eax	# *s.434_577, D.28789
	movb	%al, -225(%rbp)	# D.28789, c
	.loc 1 1614 0
	movq	%r12, %rax	# d, d.435
	leaq	1(%rax), %r12	#, d
	cmpb	$96, -225(%rbp)	#, c
	jbe	.L386	#,
	.loc 1 1614 0 is_stmt 0 discriminator 1
	cmpb	$122, -225(%rbp)	#, c
	ja	.L386	#,
	movzbl	-225(%rbp), %edx	# c, tmp678
	subl	$32, %edx	#, D.28796
	xorl	$64, %edx	#, iftmp.436
	jmp	.L387	#
.L386:
	.loc 1 1614 0 discriminator 2
	movzbl	-225(%rbp), %edx	# c, c.437
	xorl	$64, %edx	#, iftmp.436
.L387:
	.loc 1 1614 0 discriminator 3
	movb	%dl, (%rax)	# iftmp.436, *d.435_581
.LBE27:
	.loc 1 1619 0 is_stmt 1 discriminator 3
	jmp	.L269	#
.L385:
	.loc 1 1617 0
	movl	$.LC31, %edi	#,
	call	Perl_yyerror	#
	.loc 1 1619 0
	jmp	.L269	#
.L335:
	.loc 1 1623 0
	movq	%r12, %rax	# d, d.438
	leaq	1(%rax), %r12	#, d
	movb	$8, (%rax)	#, *d.438_588
	.loc 1 1624 0
	jmp	.L389	#
.L339:
	.loc 1 1626 0
	movq	%r12, %rax	# d, d.439
	leaq	1(%rax), %r12	#, d
	movb	$10, (%rax)	#, *d.439_590
	.loc 1 1627 0
	jmp	.L389	#
.L340:
	.loc 1 1629 0
	movq	%r12, %rax	# d, d.440
	leaq	1(%rax), %r12	#, d
	movb	$13, (%rax)	#, *d.440_592
	.loc 1 1630 0
	jmp	.L389	#
.L338:
	.loc 1 1632 0
	movq	%r12, %rax	# d, d.441
	leaq	1(%rax), %r12	#, d
	movb	$12, (%rax)	#, *d.441_594
	.loc 1 1633 0
	jmp	.L389	#
.L341:
	.loc 1 1635 0
	movq	%r12, %rax	# d, d.442
	leaq	1(%rax), %r12	#, d
	movb	$9, (%rax)	#, *d.442_596
	.loc 1 1636 0
	jmp	.L389	#
.L337:
	.loc 1 1638 0
	movq	%r12, %rax	# d, d.443
	leaq	1(%rax), %r12	#, d
	movb	$27, (%rax)	#, *d.443_598
	.loc 1 1639 0
	jmp	.L389	#
.L334:
	.loc 1 1641 0
	movq	%r12, %rax	# d, d.444
	leaq	1(%rax), %r12	#, d
	movb	$7, (%rax)	#, *d.444_600
	.loc 1 1642 0
	nop
.L389:
	.loc 1 1645 0
	addq	$1, %rbx	#, s
	.loc 1 1646 0
	jmp	.L269	#
.L321:
	.loc 1 1652 0
	cmpl	$0, -220(%rbp)	#, has_utf8
	jne	.L390	#,
	.loc 1 1652 0 is_stmt 0 discriminator 2
	cmpl	$0, -216(%rbp)	#, this_utf8
	je	.L391	#,
.L390:
	.loc 1 1652 0 discriminator 1
	movzbl	(%rbx), %eax	# *s_11, D.28789
	testb	%al, %al	# D.28789
	jns	.L391	#,
.LBB28:
	.loc 1 1653 0 is_stmt 1
	movq	$1, -192(%rbp)	#, len
	.loc 1 1654 0
	cmpl	$0, -216(%rbp)	#, this_utf8
	je	.L392	#,
	.loc 1 1654 0 is_stmt 0 discriminator 1
	movq	%r13, %rdx	# send, send.446
	movq	%rbx, %rax	# s, s.447
	subq	%rax, %rdx	# s.447, D.28781
	movq	%rdx, %rax	# D.28781, D.28781
	leaq	-192(%rbp), %rdx	#, tmp679
	movl	$0, %ecx	#,
	movq	%rax, %rsi	# D.28782,
	movq	%rbx, %rdi	# s,
	call	Perl_utf8n_to_uvuni	#
	jmp	.L393	#
.L392:
	.loc 1 1654 0 discriminator 2
	movzbl	(%rbx), %eax	# *s_11, D.28789
	movzbl	%al, %eax	# D.28785, iftmp.445
.L393:
	.loc 1 1654 0 discriminator 3
	movq	%rax, -56(%rbp)	# iftmp.445, uv
	.loc 1 1655 0 is_stmt 1 discriminator 3
	cmpq	$127, -56(%rbp)	#, uv
	jbe	.L394	#,
	.loc 1 1655 0 is_stmt 0 discriminator 1
	cmpq	$2047, -56(%rbp)	#, uv
	jbe	.L395	#,
	.loc 1 1655 0 discriminator 3
	cmpq	$65535, -56(%rbp)	#, uv
	jbe	.L396	#,
	.loc 1 1655 0 discriminator 5
	cmpq	$2097151, -56(%rbp)	#, uv
	jbe	.L397	#,
	.loc 1 1655 0 discriminator 7
	cmpq	$67108863, -56(%rbp)	#, uv
	jbe	.L398	#,
	.loc 1 1655 0 discriminator 9
	cmpq	$2147483647, -56(%rbp)	#, uv
	jbe	.L399	#,
	.loc 1 1655 0 discriminator 11
	movabsq	$68719476735, %rax	#, tmp680
	cmpq	%rax, -56(%rbp)	# tmp680, uv
	ja	.L400	#,
	.loc 1 1655 0 discriminator 13
	movl	$7, %eax	#, iftmp.454
	jmp	.L407	#
.L400:
	.loc 1 1655 0 discriminator 14
	movl	$13, %eax	#, iftmp.454
	jmp	.L407	#
.L399:
	.loc 1 1655 0 discriminator 12
	movl	$6, %eax	#, iftmp.453
	jmp	.L407	#
.L398:
	.loc 1 1655 0 discriminator 10
	movl	$5, %eax	#, iftmp.452
	jmp	.L407	#
.L397:
	.loc 1 1655 0 discriminator 8
	movl	$4, %eax	#, iftmp.451
	jmp	.L407	#
.L396:
	.loc 1 1655 0 discriminator 6
	movl	$3, %eax	#, iftmp.450
	jmp	.L407	#
.L395:
	.loc 1 1655 0 discriminator 4
	movl	$2, %eax	#, iftmp.449
	jmp	.L407	#
.L394:
	.loc 1 1655 0 discriminator 2
	movl	$1, %eax	#, iftmp.448
.L407:
	.loc 1 1655 0 discriminator 15
	movq	%rax, -48(%rbp)	# iftmp.448, need
	.loc 1 1656 0 is_stmt 1 discriminator 15
	movq	-192(%rbp), %rax	# len, len.455
	addq	%rax, %rbx	# len.455, s
	.loc 1 1657 0 discriminator 15
	movq	-192(%rbp), %rax	# len, len.456
	cmpq	%rax, -48(%rbp)	# len.456, need
	jbe	.L408	#,
.LBB29:
	.loc 1 1659 0
	movq	%r12, %rdx	# d, d.457
	movq	-184(%rbp), %rax	# sv, tmp681
	movq	(%rax), %rax	# sv_91->sv_any, D.28783
	movq	(%rax), %rax	# MEM[(struct XPV *)_632].xpv_pv, D.28788
	subq	%rax, %rdx	# D.28781, D.28781
	movq	%rdx, %rax	# D.28781, D.28781
	movq	%rax, -40(%rbp)	# D.28781, off
	.loc 1 1660 0
	movq	-184(%rbp), %rax	# sv, tmp682
	movq	(%rax), %rax	# sv_91->sv_any, D.28783
	movq	16(%rax), %rdx	# MEM[(struct XPV *)_637].xpv_len, D.28782
	movq	-184(%rbp), %rax	# sv, tmp683
	movq	(%rax), %rax	# sv_91->sv_any, D.28783
	movq	16(%rax), %rax	# MEM[(struct XPV *)_639].xpv_len, D.28782
	movq	-192(%rbp), %rcx	# len, len.459
	movq	-48(%rbp), %rsi	# need, tmp684
	subq	%rcx, %rsi	# len.459, D.28782
	movq	%rsi, %rcx	# D.28782, D.28782
	addq	%rcx, %rax	# D.28782, D.28782
	cmpq	%rax, %rdx	# D.28782, D.28782
	jae	.L409	#,
	.loc 1 1660 0 is_stmt 0 discriminator 1
	movq	-184(%rbp), %rax	# sv, tmp685
	movq	(%rax), %rax	# sv_91->sv_any, D.28783
	movq	16(%rax), %rax	# MEM[(struct XPV *)_644].xpv_len, D.28782
	movq	-192(%rbp), %rdx	# len, len.460
	movq	-48(%rbp), %rcx	# need, tmp686
	subq	%rdx, %rcx	# len.460, D.28782
	movq	%rcx, %rdx	# D.28782, D.28782
	addq	%rax, %rdx	# D.28782, D.28782
	movq	-184(%rbp), %rax	# sv, tmp687
	movq	%rdx, %rsi	# D.28782,
	movq	%rax, %rdi	# tmp687,
	call	Perl_sv_grow	#
	jmp	.L410	#
.L409:
	.loc 1 1660 0 discriminator 2
	movq	-184(%rbp), %rax	# sv, tmp688
	movq	(%rax), %rax	# sv_91->sv_any, D.28783
	movq	(%rax), %rax	# MEM[(struct XPV *)_650].xpv_pv, iftmp.458
.L410:
	.loc 1 1660 0 discriminator 3
	movq	-40(%rbp), %rdx	# off, tmp689
	leaq	(%rax,%rdx), %r12	#, d
.L408:
.LBE29:
	.loc 1 1662 0 is_stmt 1
	movq	-56(%rbp), %rax	# uv, tmp690
	movq	%rax, %rsi	# tmp690,
	movq	%r12, %rdi	# d,
	call	Perl_uvuni_to_utf8	#
	movq	%rax, %r12	#, d
	.loc 1 1663 0
	movl	$1, -220(%rbp)	#, has_utf8
.LBE28:
	.loc 1 1652 0
	jmp	.L269	#
.L391:
	.loc 1 1666 0
	movq	%r12, %rax	# d, d.461
	leaq	1(%rax), %r12	#, d
	movq	%rbx, %rdx	# s, s.462
	leaq	1(%rdx), %rbx	#, s
	movzbl	(%rdx), %edx	# *s.462_657, D.28789
	movb	%dl, (%rax)	# D.28789, *d.461_655
.L269:
	.loc 1 1241 0 discriminator 1
	cmpq	%r13, %rbx	# send, s
	jb	.L411	#,
	.loc 1 1241 0 is_stmt 0 discriminator 2
	cmpb	$0, -229(%rbp)	#, dorange
	jne	.L411	#,
.L318:
	.loc 1 1671 0 is_stmt 1
	movb	$0, (%r12)	#, *d_31
	.loc 1 1672 0
	movq	-184(%rbp), %rax	# sv, tmp691
	movq	(%rax), %rax	# sv_91->sv_any, D.28783
	movq	%r12, %rcx	# d, d.463
	movq	-184(%rbp), %rdx	# sv, tmp692
	movq	(%rdx), %rdx	# sv_91->sv_any, D.28783
	movq	(%rdx), %rdx	# MEM[(struct XPV *)_662].xpv_pv, D.28788
	subq	%rdx, %rcx	# D.28781, D.28781
	movq	%rcx, %rdx	# D.28781, D.28781
	movq	%rdx, 8(%rax)	# D.28782, MEM[(struct XPV *)_660].xpv_cur
	.loc 1 1673 0
	movq	-184(%rbp), %rax	# sv, tmp693
	movq	(%rax), %rax	# sv_91->sv_any, D.28783
	movq	8(%rax), %rdx	# MEM[(struct XPV *)_667].xpv_cur, D.28782
	movq	-184(%rbp), %rax	# sv, tmp694
	movq	(%rax), %rax	# sv_91->sv_any, D.28783
	movq	16(%rax), %rax	# MEM[(struct XPV *)_669].xpv_len, D.28782
	cmpq	%rax, %rdx	# D.28782, D.28782
	jb	.L412	#,
	.loc 1 1674 0
	movl	$.LC32, %edi	#,
	movl	$0, %eax	#,
	call	Perl_croak	#
.L412:
	.loc 1 1676 0
	movq	-184(%rbp), %rax	# sv, tmp695
	movl	12(%rax), %eax	# sv_91->sv_flags, D.28784
	orl	$67371008, %eax	#, D.28784
	movl	%eax, %edx	# D.28784, D.28784
	movq	-184(%rbp), %rax	# sv, tmp696
	movl	%edx, 12(%rax)	# D.28784, sv_91->sv_flags
	.loc 1 1677 0
	movq	PL_encoding(%rip), %rax	# PL_encoding, PL_encoding.464
	testq	%rax, %rax	# PL_encoding.464
	je	.L413	#,
	.loc 1 1677 0 is_stmt 0 discriminator 1
	cmpl	$0, -220(%rbp)	#, has_utf8
	jne	.L413	#,
	.loc 1 1678 0 is_stmt 1
	movq	PL_encoding(%rip), %rdx	# PL_encoding, PL_encoding.465
	movq	-184(%rbp), %rax	# sv, tmp697
	movq	%rdx, %rsi	# PL_encoding.465,
	movq	%rax, %rdi	# tmp697,
	call	Perl_sv_recode_to_utf8	#
	.loc 1 1679 0
	movq	-184(%rbp), %rax	# sv, tmp698
	movl	12(%rax), %eax	# sv_91->sv_flags, D.28784
	andl	$536870912, %eax	#, D.28784
	testl	%eax, %eax	# D.28784
	je	.L413	#,
	.loc 1 1680 0
	movl	$1, -220(%rbp)	#, has_utf8
.L413:
	.loc 1 1682 0
	cmpl	$0, -220(%rbp)	#, has_utf8
	je	.L414	#,
	.loc 1 1683 0
	movq	-184(%rbp), %rax	# sv, tmp699
	movl	12(%rax), %eax	# sv_91->sv_flags, D.28784
	orl	$536870912, %eax	#, D.28784
	movl	%eax, %edx	# D.28784, D.28784
	movq	-184(%rbp), %rax	# sv, tmp700
	movl	%edx, 12(%rax)	# D.28784, sv_91->sv_flags
	.loc 1 1684 0
	movl	PL_lex_inwhat(%rip), %eax	# PL_lex_inwhat, PL_lex_inwhat.466
	cmpl	$35, %eax	#, PL_lex_inwhat.466
	jne	.L414	#,
	.loc 1 1684 0 is_stmt 0 discriminator 1
	movq	PL_sublex_info+8(%rip), %rax	# PL_sublex_info.sub_op, D.28787
	testq	%rax, %rax	# D.28787
	je	.L414	#,
	.loc 1 1685 0 is_stmt 1
	movq	PL_sublex_info+8(%rip), %rdx	# PL_sublex_info.sub_op, D.28787
	movq	PL_sublex_info+8(%rip), %rax	# PL_sublex_info.sub_op, D.28787
	movzbl	37(%rax), %eax	# _683->op_private, D.28785
	movl	%eax, %ecx	# D.28785, D.28795
	.loc 1 1686 0
	movq	PL_lex_repl(%rip), %rax	# PL_lex_repl, PL_lex_repl.468
	.loc 1 1685 0
	testq	%rax, %rax	# PL_lex_repl.468
	je	.L415	#,
	.loc 1 1685 0 is_stmt 0 discriminator 1
	movl	$1, %eax	#, iftmp.467
	jmp	.L416	#
.L415:
	.loc 1 1685 0 discriminator 2
	movl	$2, %eax	#, iftmp.467
.L416:
	.loc 1 1685 0 discriminator 3
	orl	%ecx, %eax	# D.28795, D.28795
	movb	%al, 37(%rdx)	# D.28785, _682->op_private
.L414:
	.loc 1 1691 0 is_stmt 1
	movq	-184(%rbp), %rax	# sv, tmp701
	movq	(%rax), %rax	# sv_91->sv_any, D.28783
	movq	8(%rax), %rax	# MEM[(struct XPV *)_691].xpv_cur, D.28782
	leaq	5(%rax), %rdx	#, D.28782
	movq	-184(%rbp), %rax	# sv, tmp702
	movq	(%rax), %rax	# sv_91->sv_any, D.28783
	movq	16(%rax), %rax	# MEM[(struct XPV *)_694].xpv_len, D.28782
	cmpq	%rax, %rdx	# D.28782, D.28782
	jae	.L417	#,
	.loc 1 1692 0
	movq	-184(%rbp), %rax	# sv, tmp703
	movq	(%rax), %rax	# sv_91->sv_any, D.28783
	movq	-184(%rbp), %rdx	# sv, tmp704
	movq	(%rdx), %rdx	# sv_91->sv_any, D.28783
	movq	8(%rdx), %rdx	# MEM[(struct XPV *)_697].xpv_cur, D.28782
	addq	$1, %rdx	#, D.28782
	movq	%rdx, 16(%rax)	# D.28782, MEM[(struct XPV *)_696].xpv_len
	.loc 1 1693 0
	movq	-184(%rbp), %rax	# sv, tmp705
	movq	(%rax), %r12	# sv_91->sv_any, D.28783
	movq	-184(%rbp), %rax	# sv, tmp706
	movq	(%rax), %rax	# sv_91->sv_any, D.28783
	movq	16(%rax), %rdx	# MEM[(struct XPV *)_701].xpv_len, D.28782
	movq	-184(%rbp), %rax	# sv, tmp707
	movq	(%rax), %rax	# sv_91->sv_any, D.28783
	movq	(%rax), %rax	# MEM[(struct XPV *)_703].xpv_pv, D.28788
	movq	%rdx, %rsi	# D.28782,
	movq	%rax, %rdi	# D.28788,
	call	Perl_safesysrealloc	#
	movq	%rax, (%r12)	# D.28783, MEM[(struct XPV *)_700].xpv_pv
.L417:
	.loc 1 1697 0
	movq	PL_bufptr(%rip), %rax	# PL_bufptr, PL_bufptr.469
	cmpq	%rax, %rbx	# PL_bufptr.469, s
	jbe	.L418	#,
	.loc 1 1698 0
	movq	PL_lex_inpat(%rip), %rax	# PL_lex_inpat, PL_lex_inpat.471
	testq	%rax, %rax	# PL_lex_inpat.471
	je	.L419	#,
	.loc 1 1698 0 is_stmt 0 discriminator 1
	movl	$65536, %eax	#, iftmp.470
	jmp	.L420	#
.L419:
	.loc 1 1698 0 discriminator 2
	movl	$32768, %eax	#, iftmp.470
.L420:
	.loc 1 1698 0 discriminator 3
	movl	PL_hints(%rip), %edx	# PL_hints, PL_hints.472
	andl	%edx, %eax	# PL_hints.472, D.28784
	testl	%eax, %eax	# D.28784
	je	.L421	#,
	.loc 1 1701 0 is_stmt 1
	movl	PL_lex_inwhat(%rip), %eax	# PL_lex_inwhat, PL_lex_inwhat.474
	.loc 1 1699 0
	cmpl	$35, %eax	#, PL_lex_inwhat.474
	je	.L422	#,
	.loc 1 1703 0
	movl	PL_lex_inwhat(%rip), %eax	# PL_lex_inwhat, PL_lex_inwhat.476
	cmpl	$33, %eax	#, PL_lex_inwhat.476
	jne	.L423	#,
	.loc 1 1703 0 is_stmt 0 discriminator 1
	movq	PL_lex_inpat(%rip), %rax	# PL_lex_inpat, PL_lex_inpat.477
	testq	%rax, %rax	# PL_lex_inpat.477
	jne	.L423	#,
	movl	$.LC33, %eax	#, iftmp.475
	jmp	.L424	#
.L423:
	.loc 1 1703 0 discriminator 2
	movl	$.LC34, %eax	#, iftmp.475
.L424:
	.loc 1 1699 0 is_stmt 1
	movq	%rax, %rdx	# iftmp.475, iftmp.473
	jmp	.L425	#
.L422:
	.loc 1 1699 0 is_stmt 0 discriminator 1
	movl	$.LC35, %edx	#, iftmp.473
.L425:
	.loc 1 1699 0 discriminator 2
	movq	PL_lex_inpat(%rip), %rax	# PL_lex_inpat, PL_lex_inpat.479
	testq	%rax, %rax	# PL_lex_inpat.479
	je	.L426	#,
	.loc 1 1699 0 discriminator 3
	movl	$.LC36, %eax	#, iftmp.478
	jmp	.L427	#
.L426:
	.loc 1 1699 0 discriminator 4
	movl	$.LC16, %eax	#, iftmp.478
.L427:
	.loc 1 1699 0 discriminator 5
	movq	%rbx, %rsi	# s, s.480
	movq	-248(%rbp), %rcx	# start, start.481
	subq	%rcx, %rsi	# start.481, D.28781
	movq	%rsi, %rcx	# D.28781, D.28781
	movq	%rcx, %rsi	# D.28781, D.28782
	movq	-184(%rbp), %rcx	# sv, tmp708
	movq	-248(%rbp), %rdi	# start, tmp709
	movq	%rdx, %r9	# iftmp.473,
	movl	$0, %r8d	#,
	movq	%rax, %rdx	# iftmp.478,
	call	S_new_constant	#
	movq	%rax, -184(%rbp)	# tmp710, sv
.L421:
	.loc 1 1706 0 is_stmt 1
	movq	-184(%rbp), %rax	# sv, tmp711
	movq	%rax, %rdx	# tmp711,
	movl	$0, %esi	#,
	movl	$5, %edi	#,
	call	Perl_newSVOP	#
	movq	%rax, PL_yylval(%rip)	# D.28787, PL_yylval.opval
	jmp	.L428	#
.L418:
	.loc 1 1708 0
	movq	-184(%rbp), %rax	# sv, tmp712
	movq	%rax, %rdi	# tmp712,
	call	Perl_sv_free	#
.L428:
	.loc 1 1709 0
	movq	%rbx, %rax	# s, D.28788
	.loc 1 1710 0
	addq	$232, %rsp	#,
	popq	%rbx	#
	popq	%r12	#
	popq	%r13	#
	popq	%rbp	#
	.cfi_def_cfa 7, 8
	ret
	.cfi_endproc
.LFE23:
	.size	S_scan_const, .-S_scan_const
	.section	.rodata
.LC37:
	.string	"[#!%*<>()-="
.LC38:
	.string	"])} ="
.LC39:
	.string	"wds]"
.LC40:
	.string	"rnftbxcav"
.LC41:
	.string	"aA01! "
.LC42:
	.string	"zZ79~"
	.text
	.type	S_intuit_more, @function
S_intuit_more:
.LFB24:
	.loc 1 1735 0
	.cfi_startproc
	pushq	%rbp	#
	.cfi_def_cfa_offset 16
	.cfi_offset 6, -16
	movq	%rsp, %rbp	#,
	.cfi_def_cfa_register 6
	pushq	%rbx	#
	subq	$1336, %rsp	#,
	.cfi_offset 3, -24
	movq	%rdi, %rbx	# s, s
	.loc 1 1735 0
	movq	%fs:40, %rax	#, tmp239
	movq	%rax, -24(%rbp)	# tmp239, D.28826
	xorl	%eax, %eax	# tmp239
	.loc 1 1736 0
	movl	PL_lex_brackets(%rip), %eax	# PL_lex_brackets, PL_lex_brackets.482
	testl	%eax, %eax	# PL_lex_brackets.482
	je	.L431	#,
	.loc 1 1737 0
	movl	$1, %eax	#, D.28817
	jmp	.L432	#
.L431:
	.loc 1 1738 0
	movzbl	(%rbx), %eax	# *s_34(D), D.28818
	cmpb	$45, %al	#, D.28818
	jne	.L433	#,
	.loc 1 1738 0 is_stmt 0 discriminator 1
	leaq	1(%rbx), %rax	#, D.28819
	movzbl	(%rax), %eax	# *_36, D.28818
	cmpb	$62, %al	#, D.28818
	jne	.L433	#,
	leaq	2(%rbx), %rax	#, D.28819
	movzbl	(%rax), %eax	# *_38, D.28818
	cmpb	$91, %al	#, D.28818
	je	.L434	#,
	leaq	2(%rbx), %rax	#, D.28819
	movzbl	(%rax), %eax	# *_40, D.28818
	cmpb	$123, %al	#, D.28818
	jne	.L433	#,
.L434:
	.loc 1 1739 0 is_stmt 1
	movl	$1, %eax	#, D.28817
	jmp	.L432	#
.L433:
	.loc 1 1740 0
	movzbl	(%rbx), %eax	# *s_34(D), D.28818
	cmpb	$123, %al	#, D.28818
	je	.L435	#,
	.loc 1 1740 0 is_stmt 0 discriminator 1
	movzbl	(%rbx), %eax	# *s_34(D), D.28818
	cmpb	$91, %al	#, D.28818
	je	.L435	#,
	.loc 1 1741 0 is_stmt 1
	movl	$0, %eax	#, D.28817
	jmp	.L432	#
.L435:
	.loc 1 1742 0
	movq	PL_lex_inpat(%rip), %rax	# PL_lex_inpat, PL_lex_inpat.483
	testq	%rax, %rax	# PL_lex_inpat.483
	jne	.L436	#,
	.loc 1 1743 0
	movl	$1, %eax	#, D.28817
	jmp	.L432	#
.L436:
	.loc 1 1746 0
	movzbl	(%rbx), %eax	# *s_34(D), D.28818
	cmpb	$123, %al	#, D.28818
	jne	.L437	#,
	.loc 1 1747 0
	addq	$1, %rbx	#, s
	.loc 1 1748 0
	movzbl	(%rbx), %eax	# *s_49, D.28818
	cmpb	$47, %al	#, D.28818
	jle	.L438	#,
	.loc 1 1748 0 is_stmt 0 discriminator 1
	movzbl	(%rbx), %eax	# *s_49, D.28818
	cmpb	$57, %al	#, D.28818
	jle	.L439	#,
.L438:
	.loc 1 1749 0 is_stmt 1
	movl	$1, %eax	#, D.28817
	jmp	.L432	#
.L439:
	.loc 1 1750 0
	jmp	.L440	#
.L442:
	.loc 1 1751 0
	addq	$1, %rbx	#, s
.L440:
	.loc 1 1750 0 discriminator 1
	movzbl	(%rbx), %eax	# *s_1, D.28818
	cmpb	$47, %al	#, D.28818
	jle	.L441	#,
	.loc 1 1750 0 is_stmt 0 discriminator 2
	movzbl	(%rbx), %eax	# *s_1, D.28818
	cmpb	$57, %al	#, D.28818
	jle	.L442	#,
.L441:
	.loc 1 1752 0 is_stmt 1
	movzbl	(%rbx), %eax	# *s_1, D.28818
	cmpb	$44, %al	#, D.28818
	jne	.L443	#,
	.loc 1 1753 0
	addq	$1, %rbx	#, s
	.loc 1 1754 0
	jmp	.L444	#
.L443:
	jmp	.L444	#
.L446:
	.loc 1 1755 0
	addq	$1, %rbx	#, s
.L444:
	.loc 1 1754 0 discriminator 1
	movzbl	(%rbx), %eax	# *s_3, D.28818
	cmpb	$47, %al	#, D.28818
	jle	.L445	#,
	.loc 1 1754 0 is_stmt 0 discriminator 2
	movzbl	(%rbx), %eax	# *s_3, D.28818
	cmpb	$57, %al	#, D.28818
	jle	.L446	#,
.L445:
	.loc 1 1756 0 is_stmt 1
	movzbl	(%rbx), %eax	# *s_3, D.28818
	cmpb	$125, %al	#, D.28818
	jne	.L447	#,
	.loc 1 1757 0
	movl	$0, %eax	#, D.28817
	jmp	.L432	#
.L447:
	.loc 1 1758 0
	movl	$1, %eax	#, D.28817
	jmp	.L432	#
.L437:
	.loc 1 1764 0
	addq	$1, %rbx	#, s
	.loc 1 1765 0
	movzbl	(%rbx), %eax	# *s_64, D.28818
	cmpb	$93, %al	#, D.28818
	je	.L448	#,
	.loc 1 1765 0 is_stmt 0 discriminator 1
	movzbl	(%rbx), %eax	# *s_64, D.28818
	cmpb	$94, %al	#, D.28818
	jne	.L449	#,
.L448:
	.loc 1 1766 0 is_stmt 1
	movl	$0, %eax	#, D.28817
	jmp	.L432	#
.L449:
.LBB30:
	.loc 1 1769 0
	movl	$2, -1332(%rbp)	#, weight
	.loc 1 1771 0
	movb	$-1, -1334(%rbp)	#, un_char
	.loc 1 1772 0
	movl	$93, %esi	#,
	movq	%rbx, %rdi	# s,
	call	strchr	#
	movq	%rax, -1320(%rbp)	# tmp221, send
	.loc 1 1775 0
	cmpq	$0, -1320(%rbp)	#, send
	jne	.L450	#,
	.loc 1 1776 0
	movl	$1, %eax	#, D.28817
	jmp	.L432	#
.L450:
	.loc 1 1778 0
	leaq	-1312(%rbp), %rax	#, tmp222
	movl	$256, %edx	#,
	movl	$0, %esi	#,
	movq	%rax, %rdi	# tmp222,
	call	memset	#
	.loc 1 1779 0
	movzbl	(%rbx), %eax	# *s_64, D.28818
	cmpb	$36, %al	#, D.28818
	jne	.L452	#,
	.loc 1 1780 0
	subl	$3, -1332(%rbp)	#, weight
	jmp	.L453	#
.L452:
	.loc 1 1781 0
	movzbl	(%rbx), %eax	# *s_64, D.28818
	cmpb	$47, %al	#, D.28818
	jle	.L453	#,
	.loc 1 1781 0 is_stmt 0 discriminator 1
	movzbl	(%rbx), %eax	# *s_64, D.28818
	cmpb	$57, %al	#, D.28818
	jg	.L453	#,
	.loc 1 1782 0 is_stmt 1
	leaq	1(%rbx), %rax	#, D.28819
	movzbl	(%rax), %eax	# *_75, D.28818
	cmpb	$93, %al	#, D.28818
	je	.L454	#,
	.loc 1 1783 0
	leaq	1(%rbx), %rax	#, D.28819
	movzbl	(%rax), %eax	# *_77, D.28818
	cmpb	$47, %al	#, D.28818
	jle	.L453	#,
	.loc 1 1783 0 is_stmt 0 discriminator 1
	leaq	1(%rbx), %rax	#, D.28819
	movzbl	(%rax), %eax	# *_79, D.28818
	cmpb	$57, %al	#, D.28818
	jg	.L453	#,
	leaq	2(%rbx), %rax	#, D.28819
	movzbl	(%rax), %eax	# *_81, D.28818
	cmpb	$93, %al	#, D.28818
	jne	.L453	#,
	.loc 1 1784 0 is_stmt 1
	subl	$10, -1332(%rbp)	#, weight
	.loc 1 1789 0
	jmp	.L456	#
.L454:
	.loc 1 1787 0
	subl	$100, -1332(%rbp)	#, weight
	.loc 1 1789 0
	jmp	.L456	#
.L453:
	jmp	.L456	#
.L507:
	.loc 1 1790 0
	movzbl	-1334(%rbp), %eax	# un_char, tmp223
	movb	%al, -1333(%rbp)	# tmp223, last_un_char
	.loc 1 1791 0
	movzbl	(%rbx), %eax	# *s_10, D.28818
	movb	%al, -1334(%rbp)	# D.28818, un_char
	.loc 1 1792 0
	movzbl	(%rbx), %eax	# *s_10, D.28818
	movsbl	%al, %eax	# D.28818, D.28817
	cmpl	$45, %eax	#, D.28817
	je	.L458	#,
	cmpl	$45, %eax	#, D.28817
	jg	.L459	#,
	cmpl	$36, %eax	#, D.28817
	je	.L460	#,
	cmpl	$38, %eax	#, D.28817
	je	.L460	#,
	jmp	.L457	#
.L459:
	cmpl	$64, %eax	#, D.28817
	je	.L460	#,
	cmpl	$92, %eax	#, D.28817
	je	.L461	#,
	jmp	.L457	#
.L460:
	.loc 1 1796 0
	movzbl	-1334(%rbp), %eax	# un_char, D.28817
	cltq
	movzbl	-1312(%rbp,%rax), %eax	# seen, D.28818
	movsbl	%al, %edx	# D.28818, D.28817
	movl	%edx, %eax	# D.28817, tmp225
	sall	$2, %eax	#, tmp225
	addl	%edx, %eax	# D.28817, tmp225
	addl	%eax, %eax	# tmp226
	negl	%eax	# D.28817
	addl	%eax, -1332(%rbp)	# D.28817, weight
	.loc 1 1797 0
	movq	PL_curcop(%rip), %rax	# PL_curcop, PL_curcop.485
	movzbl	37(%rax), %eax	# PL_curcop.485_95->op_private, D.28820
	movzbl	%al, %eax	# D.28820, D.28817
	andl	$8, %eax	#, D.28817
	testl	%eax, %eax	# D.28817
	jne	.L462	#,
	.loc 1 1797 0 is_stmt 0 discriminator 2
	movq	PL_linestr(%rip), %rax	# PL_linestr, PL_linestr.486
	testq	%rax, %rax	# PL_linestr.486
	je	.L463	#,
	movq	PL_linestr(%rip), %rax	# PL_linestr, PL_linestr.487
	movl	12(%rax), %eax	# PL_linestr.487_100->sv_flags, D.28821
	andl	$536870912, %eax	#, D.28821
	testl	%eax, %eax	# D.28821
	je	.L463	#,
	.loc 1 1797 0 discriminator 1
	movq	PL_curcop(%rip), %rax	# PL_curcop, PL_curcop.488
	movzbl	37(%rax), %eax	# PL_curcop.488_103->op_private, D.28820
	movzbl	%al, %eax	# D.28820, D.28817
	andl	$8, %eax	#, D.28817
	testl	%eax, %eax	# D.28817
	je	.L464	#,
.L463:
	movl	PL_hints(%rip), %eax	# PL_hints, PL_hints.489
	andl	$8388608, %eax	#, D.28821
	testl	%eax, %eax	# D.28821
	je	.L462	#,
.L464:
	leaq	1(%rbx), %rax	#, D.28822
	movzbl	(%rax), %eax	# *_109, D.28820
	cmpb	$-65, %al	#, D.28820
	ja	.L465	#,
.L462:
	leaq	1(%rbx), %rax	#, D.28819
	movzbl	(%rax), %eax	# *_114, D.28818
	cmpb	$64, %al	#, D.28818
	jle	.L466	#,
	leaq	1(%rbx), %rax	#, D.28819
	movzbl	(%rax), %eax	# *_116, D.28818
	cmpb	$90, %al	#, D.28818
	jle	.L467	#,
.L466:
	.loc 1 1797 0 discriminator 2
	leaq	1(%rbx), %rax	#, D.28819
	movzbl	(%rax), %eax	# *_118, D.28818
	cmpb	$96, %al	#, D.28818
	jle	.L468	#,
	.loc 1 1797 0 discriminator 1
	leaq	1(%rbx), %rax	#, D.28819
	movzbl	(%rax), %eax	# *_120, D.28818
	cmpb	$122, %al	#, D.28818
	jle	.L467	#,
.L468:
	.loc 1 1797 0 discriminator 2
	leaq	1(%rbx), %rax	#, D.28819
	movzbl	(%rax), %eax	# *_122, D.28818
	cmpb	$47, %al	#, D.28818
	jle	.L469	#,
	.loc 1 1797 0 discriminator 1
	leaq	1(%rbx), %rax	#, D.28819
	movzbl	(%rax), %eax	# *_124, D.28818
	cmpb	$57, %al	#, D.28818
	jle	.L467	#,
.L469:
	.loc 1 1797 0 discriminator 2
	leaq	1(%rbx), %rax	#, D.28819
	movzbl	(%rax), %eax	# *_126, D.28818
	cmpb	$95, %al	#, D.28818
	jne	.L470	#,
.L467:
	.loc 1 1797 0 discriminator 1
	movl	$1, %eax	#, iftmp.490
	jmp	.L471	#
.L470:
	.loc 1 1797 0 discriminator 3
	movl	$0, %eax	#, iftmp.490
.L471:
	.loc 1 1797 0 discriminator 4
	andl	$1, %eax	#, iftmp.484
	jmp	.L472	#
.L465:
	.loc 1 1797 0 discriminator 1
	leaq	1(%rbx), %rax	#, D.28822
	movq	%rax, %rdi	# D.28822,
	call	Perl_is_utf8_alnum	#
	testb	%al, %al	# D.28818
	setne	%al	#, iftmp.484
.L472:
	.loc 1 1797 0 discriminator 3
	testb	%al, %al	# iftmp.484
	je	.L473	#,
	.loc 1 1798 0 is_stmt 1
	leaq	-1056(%rbp), %rdx	#, tmp227
	movq	-1320(%rbp), %rax	# send, tmp228
	movl	$0, %r8d	#,
	movl	$1024, %ecx	#,
	movq	%rax, %rsi	# tmp228,
	movq	%rbx, %rdi	# s,
	call	S_scan_ident	#
	.loc 1 1799 0
	leaq	-1056(%rbp), %rax	#, tmp229
	movq	%rax, %rdi	# tmp229,
	call	strlen	#
	cmpl	$1, %eax	#, D.28817
	jle	.L474	#,
	.loc 1 1799 0 is_stmt 0 discriminator 1
	leaq	-1056(%rbp), %rax	#, tmp230
	movl	$4, %edx	#,
	movl	$0, %esi	#,
	movq	%rax, %rdi	# tmp230,
	call	Perl_gv_fetchpv	#
	testq	%rax, %rax	# D.28824
	je	.L474	#,
	.loc 1 1800 0 is_stmt 1
	subl	$100, -1332(%rbp)	#, weight
	jmp	.L476	#
.L474:
	.loc 1 1802 0
	subl	$10, -1332(%rbp)	#, weight
	jmp	.L476	#
.L473:
	.loc 1 1804 0
	movzbl	(%rbx), %eax	# *s_10, D.28818
	cmpb	$36, %al	#, D.28818
	jne	.L476	#,
	.loc 1 1804 0 is_stmt 0 discriminator 1
	leaq	1(%rbx), %rax	#, D.28819
	movzbl	(%rax), %eax	# *_137, D.28818
	testb	%al, %al	# D.28818
	je	.L476	#,
	.loc 1 1805 0 is_stmt 1 discriminator 1
	leaq	1(%rbx), %rax	#, D.28819
	movzbl	(%rax), %eax	# *_139, D.28818
	movsbl	%al, %eax	# D.28818, D.28817
	movl	%eax, %esi	# D.28817,
	movl	$.LC37, %edi	#,
	call	strchr	#
	.loc 1 1804 0 discriminator 1
	testq	%rax, %rax	# D.28819
	je	.L476	#,
	.loc 1 1806 0
	leaq	2(%rbx), %rax	#, D.28819
	movzbl	(%rax), %eax	# *_143, D.28818
	movsbl	%al, %eax	# D.28818, D.28817
	movl	%eax, %esi	# D.28817,
	movl	$.LC38, %edi	#,
	call	strchr	#
	testq	%rax, %rax	# D.28819
	je	.L477	#,
	.loc 1 1807 0
	subl	$10, -1332(%rbp)	#, weight
	jmp	.L476	#
.L477:
	.loc 1 1809 0
	subl	$1, -1332(%rbp)	#, weight
	.loc 1 1811 0
	jmp	.L478	#
.L476:
	jmp	.L478	#
.L461:
	.loc 1 1813 0
	movb	$-2, -1334(%rbp)	#, un_char
	.loc 1 1814 0
	leaq	1(%rbx), %rax	#, D.28819
	movzbl	(%rax), %eax	# *_150, D.28818
	testb	%al, %al	# D.28818
	je	.L479	#,
	.loc 1 1815 0
	leaq	1(%rbx), %rax	#, D.28819
	movzbl	(%rax), %eax	# *_152, D.28818
	movsbl	%al, %eax	# D.28818, D.28817
	movl	%eax, %esi	# D.28817,
	movl	$.LC39, %edi	#,
	call	strchr	#
	testq	%rax, %rax	# D.28819
	je	.L480	#,
	.loc 1 1816 0
	addl	$100, -1332(%rbp)	#, weight
	jmp	.L487	#
.L480:
	.loc 1 1817 0
	movzbl	-1273(%rbp), %eax	# seen, D.28818
	testb	%al, %al	# D.28818
	jne	.L482	#,
	.loc 1 1817 0 is_stmt 0 discriminator 1
	movzbl	-1278(%rbp), %eax	# seen, D.28818
	testb	%al, %al	# D.28818
	je	.L483	#,
.L482:
	.loc 1 1818 0 is_stmt 1
	addl	$1, -1332(%rbp)	#, weight
	jmp	.L487	#
.L483:
	.loc 1 1819 0
	leaq	1(%rbx), %rax	#, D.28819
	movzbl	(%rax), %eax	# *_159, D.28818
	movsbl	%al, %eax	# D.28818, D.28817
	movl	%eax, %esi	# D.28817,
	movl	$.LC40, %edi	#,
	call	strchr	#
	testq	%rax, %rax	# D.28819
	je	.L484	#,
	.loc 1 1820 0
	addl	$40, -1332(%rbp)	#, weight
	jmp	.L487	#
.L484:
	.loc 1 1821 0
	leaq	1(%rbx), %rax	#, D.28819
	movzbl	(%rax), %eax	# *_164, D.28818
	cmpb	$47, %al	#, D.28818
	jle	.L487	#,
	.loc 1 1821 0 is_stmt 0 discriminator 1
	leaq	1(%rbx), %rax	#, D.28819
	movzbl	(%rax), %eax	# *_166, D.28818
	cmpb	$57, %al	#, D.28818
	jg	.L487	#,
	.loc 1 1822 0 is_stmt 1
	addl	$40, -1332(%rbp)	#, weight
	.loc 1 1823 0
	jmp	.L485	#
.L486:
	.loc 1 1824 0
	addq	$1, %rbx	#, s
.L485:
	.loc 1 1823 0 discriminator 1
	leaq	1(%rbx), %rax	#, D.28819
	movzbl	(%rax), %eax	# *_169, D.28818
	testb	%al, %al	# D.28818
	je	.L487	#,
	.loc 1 1823 0 is_stmt 0 discriminator 2
	leaq	1(%rbx), %rax	#, D.28819
	movzbl	(%rax), %eax	# *_171, D.28818
	cmpb	$47, %al	#, D.28818
	jle	.L487	#,
	.loc 1 1823 0 discriminator 1
	leaq	1(%rbx), %rax	#, D.28819
	movzbl	(%rax), %eax	# *_173, D.28818
	cmpb	$57, %al	#, D.28818
	jle	.L486	#,
	jmp	.L487	#
.L479:
	.loc 1 1828 0 is_stmt 1
	addl	$100, -1332(%rbp)	#, weight
	.loc 1 1829 0
	jmp	.L478	#
.L487:
	jmp	.L478	#
.L458:
	.loc 1 1831 0
	leaq	1(%rbx), %rax	#, D.28819
	movzbl	(%rax), %eax	# *_178, D.28818
	cmpb	$92, %al	#, D.28818
	jne	.L488	#,
	.loc 1 1832 0
	addl	$50, -1332(%rbp)	#, weight
.L488:
	.loc 1 1833 0
	movzbl	-1333(%rbp), %eax	# last_un_char, D.28817
	movl	%eax, %esi	# D.28817,
	movl	$.LC41, %edi	#,
	call	strchr	#
	testq	%rax, %rax	# D.28819
	je	.L489	#,
	.loc 1 1834 0
	addl	$30, -1332(%rbp)	#, weight
.L489:
	.loc 1 1835 0
	leaq	1(%rbx), %rax	#, D.28819
	movzbl	(%rax), %eax	# *_184, D.28818
	movsbl	%al, %eax	# D.28818, D.28817
	movl	%eax, %esi	# D.28817,
	movl	$.LC42, %edi	#,
	call	strchr	#
	testq	%rax, %rax	# D.28819
	je	.L490	#,
	.loc 1 1836 0
	addl	$30, -1332(%rbp)	#, weight
.L490:
	.loc 1 1837 0
	cmpb	$-1, -1333(%rbp)	#, last_un_char
	jne	.L491	#,
	.loc 1 1837 0 is_stmt 0 discriminator 1
	leaq	1(%rbx), %rax	#, D.28819
	movzbl	(%rax), %eax	# *_189, D.28818
	cmpb	$47, %al	#, D.28818
	jle	.L492	#,
	leaq	1(%rbx), %rax	#, D.28819
	movzbl	(%rax), %eax	# *_191, D.28818
	cmpb	$57, %al	#, D.28818
	jle	.L493	#,
.L492:
	.loc 1 1837 0 discriminator 2
	leaq	1(%rbx), %rax	#, D.28819
	movzbl	(%rax), %eax	# *_193, D.28818
	cmpb	$36, %al	#, D.28818
	jne	.L491	#,
.L493:
	.loc 1 1838 0 is_stmt 1
	subl	$5, -1332(%rbp)	#, weight
	.loc 1 1839 0
	jmp	.L478	#
.L491:
	jmp	.L478	#
.L457:
	.loc 1 1841 0
	cmpb	$64, -1333(%rbp)	#, last_un_char
	jbe	.L494	#,
	.loc 1 1841 0 is_stmt 0 discriminator 2
	cmpb	$90, -1333(%rbp)	#, last_un_char
	jbe	.L495	#,
.L494:
	.loc 1 1841 0 discriminator 1
	cmpb	$96, -1333(%rbp)	#, last_un_char
	jbe	.L496	#,
	.loc 1 1841 0 discriminator 2
	cmpb	$122, -1333(%rbp)	#, last_un_char
	jbe	.L495	#,
.L496:
	.loc 1 1841 0 discriminator 1
	cmpb	$47, -1333(%rbp)	#, last_un_char
	jbe	.L497	#,
	.loc 1 1841 0 discriminator 2
	cmpb	$57, -1333(%rbp)	#, last_un_char
	jbe	.L495	#,
.L497:
	.loc 1 1841 0 discriminator 1
	cmpb	$95, -1333(%rbp)	#, last_un_char
	je	.L495	#,
	.loc 1 1842 0 is_stmt 1
	cmpb	$36, -1333(%rbp)	#, last_un_char
	je	.L495	#,
	.loc 1 1842 0 is_stmt 0 discriminator 1
	cmpb	$64, -1333(%rbp)	#, last_un_char
	je	.L495	#,
	cmpb	$38, -1333(%rbp)	#, last_un_char
	je	.L495	#,
	.loc 1 1844 0 is_stmt 1
	movzbl	(%rbx), %eax	# *s_10, D.28818
	cmpb	$64, %al	#, D.28818
	jle	.L498	#,
	.loc 1 1844 0 is_stmt 0 discriminator 1
	movzbl	(%rbx), %eax	# *s_10, D.28818
	cmpb	$90, %al	#, D.28818
	jle	.L499	#,
.L498:
	.loc 1 1844 0 discriminator 2
	movzbl	(%rbx), %eax	# *s_10, D.28818
	cmpb	$96, %al	#, D.28818
	jle	.L495	#,
	.loc 1 1844 0 discriminator 1
	movzbl	(%rbx), %eax	# *s_10, D.28818
	cmpb	$122, %al	#, D.28818
	jg	.L495	#,
.L499:
	leaq	1(%rbx), %rax	#, D.28819
	movzbl	(%rax), %eax	# *_200, D.28818
	testb	%al, %al	# D.28818
	je	.L495	#,
	leaq	1(%rbx), %rax	#, D.28819
	movzbl	(%rax), %eax	# *_202, D.28818
	cmpb	$64, %al	#, D.28818
	jle	.L500	#,
	leaq	1(%rbx), %rax	#, D.28819
	movzbl	(%rax), %eax	# *_204, D.28818
	cmpb	$90, %al	#, D.28818
	jle	.L501	#,
.L500:
	.loc 1 1844 0 discriminator 2
	leaq	1(%rbx), %rax	#, D.28819
	movzbl	(%rax), %eax	# *_206, D.28818
	cmpb	$96, %al	#, D.28818
	jle	.L495	#,
	.loc 1 1844 0 discriminator 1
	leaq	1(%rbx), %rax	#, D.28819
	movzbl	(%rax), %eax	# *_208, D.28818
	cmpb	$122, %al	#, D.28818
	jg	.L495	#,
.L501:
.LBB31:
	.loc 1 1845 0 is_stmt 1
	leaq	-1056(%rbp), %rax	#, tmp231
	movq	%rax, -1328(%rbp)	# tmp231, d
	.loc 1 1846 0
	jmp	.L502	#
.L504:
	.loc 1 1847 0
	movq	-1328(%rbp), %rax	# d, d.491
	leaq	1(%rax), %rdx	#, tmp232
	movq	%rdx, -1328(%rbp)	# tmp232, d
	movq	%rbx, %rdx	# s, s.492
	leaq	1(%rdx), %rbx	#, s
	movzbl	(%rdx), %edx	# *s.492_223, D.28818
	movb	%dl, (%rax)	# D.28818, *d.491_221
.L502:
	.loc 1 1846 0 discriminator 1
	movzbl	(%rbx), %eax	# *s_7, D.28818
	cmpb	$64, %al	#, D.28818
	jle	.L503	#,
	.loc 1 1846 0 is_stmt 0 discriminator 2
	movzbl	(%rbx), %eax	# *s_7, D.28818
	cmpb	$90, %al	#, D.28818
	jle	.L504	#,
.L503:
	.loc 1 1846 0 discriminator 3
	movzbl	(%rbx), %eax	# *s_7, D.28818
	cmpb	$96, %al	#, D.28818
	jle	.L505	#,
	.loc 1 1846 0 discriminator 1
	movzbl	(%rbx), %eax	# *s_7, D.28818
	cmpb	$122, %al	#, D.28818
	jle	.L504	#,
.L505:
	.loc 1 1848 0 is_stmt 1
	movq	-1328(%rbp), %rax	# d, tmp233
	movb	$0, (%rax)	#, *d_27
	.loc 1 1849 0
	movq	-1328(%rbp), %rdx	# d, d.493
	leaq	-1056(%rbp), %rax	#, tmpbuf.494
	subq	%rax, %rdx	# tmpbuf.494, D.28825
	movq	%rdx, %rax	# D.28825, D.28825
	movl	%eax, %edx	# D.28825, D.28817
	leaq	-1056(%rbp), %rax	#, tmp234
	movl	%edx, %esi	# D.28817,
	movq	%rax, %rdi	# tmp234,
	call	Perl_keyword	#
	testl	%eax, %eax	# D.28817
	je	.L495	#,
	.loc 1 1850 0
	subl	$150, -1332(%rbp)	#, weight
.L495:
.LBE31:
	.loc 1 1852 0
	movzbl	-1334(%rbp), %eax	# un_char, D.28817
	movzbl	-1333(%rbp), %edx	# last_un_char, D.28817
	addl	$1, %edx	#, D.28817
	cmpl	%edx, %eax	# D.28817, D.28817
	jne	.L506	#,
	.loc 1 1853 0
	addl	$5, -1332(%rbp)	#, weight
.L506:
	.loc 1 1854 0
	movzbl	-1334(%rbp), %eax	# un_char, D.28817
	cltq
	movzbl	-1312(%rbp,%rax), %eax	# seen, D.28818
	movsbl	%al, %eax	# D.28818, D.28817
	subl	%eax, -1332(%rbp)	# D.28817, weight
	.loc 1 1855 0
	nop
.L478:
	.loc 1 1857 0
	movzbl	-1334(%rbp), %eax	# un_char, D.28817
	movslq	%eax, %rdx	# D.28817, tmp236
	movzbl	-1312(%rbp,%rdx), %edx	# seen, D.28818
	addl	$1, %edx	#, D.28818
	cltq
	movb	%dl, -1312(%rbp,%rax)	# D.28818, seen
	.loc 1 1789 0
	addq	$1, %rbx	#, s
.L456:
	.loc 1 1789 0 is_stmt 0 discriminator 1
	cmpq	-1320(%rbp), %rbx	# send, s
	jb	.L507	#,
	.loc 1 1859 0 is_stmt 1
	cmpl	$0, -1332(%rbp)	#, weight
	js	.L508	#,
	.loc 1 1860 0
	movl	$0, %eax	#, D.28817
	jmp	.L432	#
.L508:
.LBE30:
	.loc 1 1863 0
	movl	$1, %eax	#, D.28817
.L432:
	.loc 1 1864 0
	movq	-24(%rbp), %rcx	# D.28826, tmp240
	xorq	%fs:40, %rcx	#, tmp240
	je	.L509	#,
	call	__stack_chk_fail	#
.L509:
	addq	$1336, %rsp	#,
	popq	%rbx	#
	popq	%rbp	#
	.cfi_def_cfa 7, 8
	ret
	.cfi_endproc
.LFE24:
	.size	S_intuit_more, .-S_intuit_more
	.type	S_intuit_method, @function
S_intuit_method:
.LFB25:
	.loc 1 1889 0
	.cfi_startproc
	pushq	%rbp	#
	.cfi_def_cfa_offset 16
	.cfi_offset 6, -16
	movq	%rsp, %rbp	#,
	.cfi_def_cfa_register 6
	pushq	%rbx	#
	subq	$344, %rsp	#,
	.cfi_offset 3, -24
	movq	%rdi, -344(%rbp)	# start, start
	movq	%rsi, -352(%rbp)	# gv, gv
	.loc 1 1889 0
	movq	%fs:40, %rax	#, tmp172
	movq	%rax, -24(%rbp)	# tmp172, D.28851
	xorl	%eax, %eax	# tmp172
	.loc 1 1890 0
	movq	-344(%rbp), %rax	# start, tmp130
	movzbl	(%rax), %eax	# *start_8(D), D.28837
	cmpb	$36, %al	#, D.28837
	sete	%al	#, D.28838
	movzbl	%al, %edx	# D.28838, D.28839
	movq	-344(%rbp), %rax	# start, tmp134
	addq	%rdx, %rax	# D.28839, tmp133
	movq	%rax, -320(%rbp)	# tmp133, s
	.loc 1 1895 0
	cmpq	$0, -352(%rbp)	#, gv
	je	.L511	#,
.LBB32:
	.loc 1 1897 0
	cmpq	$0, -352(%rbp)	#, gv
	je	.L512	#,
	.loc 1 1897 0 is_stmt 0 discriminator 1
	movq	-352(%rbp), %rax	# gv, tmp135
	movl	12(%rax), %eax	# MEM[(struct SV *)gv_13(D)].sv_flags, D.28840
	movzbl	%al, %eax	# D.28840, D.28840
	cmpl	$13, %eax	#, D.28840
	jne	.L512	#,
	movq	-352(%rbp), %rax	# gv, tmp136
	movq	(%rax), %rax	# gv_13(D)->sv_any, D.28841
	movq	56(%rax), %rax	# _16->xgv_gp, D.28842
	testq	%rax, %rax	# D.28842
	je	.L512	#,
	movq	-352(%rbp), %rax	# gv, tmp137
	movq	(%rax), %rax	# gv_13(D)->sv_any, D.28841
	movq	56(%rax), %rax	# _18->xgv_gp, D.28842
	movq	16(%rax), %rax	# _19->gp_io, D.28843
	testq	%rax, %rax	# D.28843
	je	.L512	#,
	.loc 1 1898 0 is_stmt 1
	movl	$0, %eax	#, D.28836
	jmp	.L532	#
.L512:
	.loc 1 1899 0
	movq	-352(%rbp), %rax	# gv, tmp138
	movq	(%rax), %rax	# gv_13(D)->sv_any, D.28841
	movq	56(%rax), %rax	# _22->xgv_gp, D.28842
	movl	64(%rax), %eax	# _23->gp_cvgen, D.28840
	testl	%eax, %eax	# D.28840
	jne	.L514	#,
	.loc 1 1899 0 is_stmt 0 discriminator 1
	movq	-352(%rbp), %rax	# gv, tmp139
	movq	(%rax), %rax	# gv_13(D)->sv_any, D.28841
	movq	56(%rax), %rax	# _25->xgv_gp, D.28842
	movq	56(%rax), %rax	# _26->gp_cv, iftmp.495
	jmp	.L515	#
.L514:
	.loc 1 1899 0 discriminator 2
	movl	$0, %eax	#, iftmp.495
.L515:
	.loc 1 1899 0 discriminator 3
	movq	%rax, -304(%rbp)	# iftmp.495, cv
	cmpq	$0, -304(%rbp)	#, cv
	je	.L516	#,
.LBB33:
	.loc 1 1900 0 is_stmt 1
	movq	-304(%rbp), %rax	# cv, tmp140
	movq	(%rax), %rax	# cv_29->sv_any, D.28844
	movq	(%rax), %rax	# MEM[(struct XPV *)_30].xpv_pv, tmp141
	movq	%rax, -312(%rbp)	# tmp141, proto
	.loc 1 1901 0
	cmpq	$0, -312(%rbp)	#, proto
	je	.L517	#,
	.loc 1 1902 0
	movq	-312(%rbp), %rax	# proto, tmp142
	movzbl	(%rax), %eax	# *proto_31, D.28837
	cmpb	$59, %al	#, D.28837
	jne	.L518	#,
	.loc 1 1903 0
	addq	$1, -312(%rbp)	#, proto
.L518:
	.loc 1 1904 0
	movq	-312(%rbp), %rax	# proto, tmp143
	movzbl	(%rax), %eax	# *proto_3, D.28837
	cmpb	$42, %al	#, D.28837
	jne	.L517	#,
	.loc 1 1905 0
	movl	$0, %eax	#, D.28836
	jmp	.L532	#
.L517:
.LBE33:
	jmp	.L511	#
.L516:
	.loc 1 1908 0
	movq	$0, -352(%rbp)	#, gv
.L511:
.LBE32:
	.loc 1 1910 0
	leaq	-328(%rbp), %rdx	#, tmp144
	leaq	-288(%rbp), %rsi	#, tmp145
	movq	-320(%rbp), %rax	# s, tmp146
	movq	%rdx, %r8	# tmp144,
	movl	$1, %ecx	#,
	movl	$256, %edx	#,
	movq	%rax, %rdi	# tmp146,
	call	S_scan_word	#
	movq	%rax, -320(%rbp)	# tmp147, s
	.loc 1 1916 0
	movq	-344(%rbp), %rax	# start, tmp148
	movzbl	(%rax), %eax	# *start_8(D), D.28837
	cmpb	$36, %al	#, D.28837
	jne	.L519	#,
	.loc 1 1917 0
	cmpq	$0, -352(%rbp)	#, gv
	jne	.L520	#,
	.loc 1 1917 0 is_stmt 0 discriminator 1
	movzwl	PL_last_lop_op(%rip), %eax	# PL_last_lop_op, PL_last_lop_op.496
	cmpw	$209, %ax	#, PL_last_lop_op.496
	je	.L520	#,
	movzbl	PL_tokenbuf(%rip), %eax	# PL_tokenbuf, D.28837
	cmpb	$64, %al	#, D.28837
	jle	.L521	#,
	movzbl	PL_tokenbuf(%rip), %eax	# PL_tokenbuf, D.28837
	cmpb	$90, %al	#, D.28837
	jg	.L521	#,
.L520:
	.loc 1 1918 0 is_stmt 1
	movl	$0, %eax	#, D.28836
	jmp	.L532	#
.L521:
	.loc 1 1919 0
	movq	-320(%rbp), %rax	# s, tmp149
	movq	%rax, %rdi	# tmp149,
	call	S_skipspace	#
	movq	%rax, -320(%rbp)	# tmp150, s
	.loc 1 1920 0
	movq	-344(%rbp), %rax	# start, tmp151
	movq	%rax, PL_bufptr(%rip)	# tmp151, PL_bufptr
	.loc 1 1921 0
	movl	$2, PL_expect(%rip)	#, PL_expect
	.loc 1 1922 0
	movq	-320(%rbp), %rax	# s, tmp152
	movzbl	(%rax), %eax	# *s_42, D.28837
	cmpb	$40, %al	#, D.28837
	jne	.L522	#,
	.loc 1 1922 0 is_stmt 0 discriminator 1
	movl	$259, %eax	#, iftmp.497
	jmp	.L523	#
.L522:
	.loc 1 1922 0 discriminator 2
	movl	$258, %eax	#, iftmp.497
.L523:
	.loc 1 1922 0 discriminator 3
	jmp	.L532	#
.L519:
	.loc 1 1924 0 is_stmt 1
	movq	-328(%rbp), %rax	# len, len.498
	movl	%eax, %edx	# len.498, D.28836
	leaq	-288(%rbp), %rax	#, tmp153
	movl	%edx, %esi	# D.28836,
	movq	%rax, %rdi	# tmp153,
	call	Perl_keyword	#
	testl	%eax, %eax	# D.28836
	jne	.L524	#,
	.loc 1 1925 0
	movq	-328(%rbp), %rax	# len, len.499
	cmpq	$2, %rax	#, len.499
	jbe	.L525	#,
	.loc 1 1925 0 is_stmt 0 discriminator 1
	movq	-328(%rbp), %rax	# len, len.500
	subq	$2, %rax	#, D.28839
	movzbl	-288(%rbp,%rax), %eax	# tmpbuf, D.28837
	cmpb	$58, %al	#, D.28837
	jne	.L525	#,
	movq	-328(%rbp), %rax	# len, len.501
	subq	$1, %rax	#, D.28839
	movzbl	-288(%rbp,%rax), %eax	# tmpbuf, D.28837
	cmpb	$58, %al	#, D.28837
	jne	.L525	#,
	.loc 1 1926 0 is_stmt 1
	movq	-328(%rbp), %rax	# len, len.502
	subq	$2, %rax	#, len.503
	movq	%rax, -328(%rbp)	# len.503, len
	.loc 1 1927 0
	movq	-328(%rbp), %rax	# len, len.504
	movb	$0, -288(%rbp,%rax)	#, tmpbuf
	.loc 1 1928 0
	jmp	.L526	#
.L525:
	.loc 1 1930 0
	leaq	-288(%rbp), %rax	#, tmp154
	movl	$12, %edx	#,
	movl	$0, %esi	#,
	movq	%rax, %rdi	# tmp154,
	call	Perl_gv_fetchpv	#
	movq	%rax, -296(%rbp)	# tmp155, indirgv
	.loc 1 1931 0
	cmpq	$0, -296(%rbp)	#, indirgv
	je	.L527	#,
	.loc 1 1931 0 is_stmt 0 discriminator 1
	movq	-296(%rbp), %rax	# indirgv, tmp156
	movq	(%rax), %rax	# indirgv_61->sv_any, D.28841
	movq	56(%rax), %rax	# _62->xgv_gp, D.28842
	movl	64(%rax), %eax	# _63->gp_cvgen, D.28840
	testl	%eax, %eax	# D.28840
	jne	.L527	#,
	movq	-296(%rbp), %rax	# indirgv, tmp157
	movq	(%rax), %rax	# indirgv_61->sv_any, D.28841
	movq	56(%rax), %rax	# _65->xgv_gp, D.28842
	movq	56(%rax), %rax	# _66->gp_cv, D.28845
	testq	%rax, %rax	# D.28845
	je	.L527	#,
	.loc 1 1932 0 is_stmt 1
	movl	$0, %eax	#, D.28836
	jmp	.L532	#
.L527:
	.loc 1 1934 0
	cmpq	$0, -352(%rbp)	#, gv
	je	.L528	#,
	.loc 1 1934 0 is_stmt 0 discriminator 1
	cmpq	$0, -296(%rbp)	#, indirgv
	je	.L529	#,
	movq	-296(%rbp), %rax	# indirgv, tmp158
	movl	12(%rax), %eax	# MEM[(struct SV *)indirgv_61].sv_flags, D.28840
	movzbl	%al, %eax	# D.28840, D.28840
	cmpl	$13, %eax	#, D.28840
	jne	.L529	#,
	movq	-296(%rbp), %rax	# indirgv, tmp159
	movq	(%rax), %rax	# indirgv_61->sv_any, D.28841
	movq	56(%rax), %rax	# _71->xgv_gp, D.28842
	testq	%rax, %rax	# D.28842
	je	.L529	#,
	movq	-296(%rbp), %rax	# indirgv, tmp160
	movq	(%rax), %rax	# indirgv_61->sv_any, D.28841
	movq	56(%rax), %rax	# _73->xgv_gp, D.28842
	movq	16(%rax), %rax	# _74->gp_io, D.28843
	testq	%rax, %rax	# D.28843
	jne	.L528	#,
.L529:
	.loc 1 1934 0 discriminator 2
	movq	-328(%rbp), %rax	# len, len.505
	movl	%eax, %ecx	# len.505, D.28840
	leaq	-288(%rbp), %rax	#, tmp161
	movl	$0, %edx	#,
	movl	%ecx, %esi	# D.28840,
	movq	%rax, %rdi	# tmp161,
	call	Perl_gv_stashpvn	#
	testq	%rax, %rax	# D.28846
	je	.L524	#,
.L528:
	.loc 1 1935 0 is_stmt 1
	movq	-320(%rbp), %rax	# s, tmp162
	movq	%rax, %rdi	# tmp162,
	call	S_skipspace	#
	movq	%rax, -320(%rbp)	# tmp163, s
	.loc 1 1936 0
	movq	PL_bufend(%rip), %rax	# PL_bufend, PL_bufend.506
	movq	%rax, %rdx	# PL_bufend.506, PL_bufend.507
	movq	-320(%rbp), %rax	# s, s.508
	subq	%rax, %rdx	# s.508, D.28847
	movq	%rdx, %rax	# D.28847, D.28847
	cmpq	$1, %rax	#, D.28847
	jle	.L526	#,
	.loc 1 1936 0 is_stmt 0 discriminator 1
	movq	-320(%rbp), %rax	# s, tmp164
	movzbl	(%rax), %eax	# *s_79, D.28837
	cmpb	$61, %al	#, D.28837
	jne	.L526	#,
	movq	-320(%rbp), %rax	# s, tmp165
	addq	$1, %rax	#, D.28848
	movzbl	(%rax), %eax	# *_85, D.28837
	cmpb	$62, %al	#, D.28837
	jne	.L526	#,
	.loc 1 1937 0 is_stmt 1
	movl	$0, %eax	#, D.28836
	jmp	.L532	#
.L526:
	.loc 1 1939 0
	movl	PL_nexttoke(%rip), %ebx	# PL_nexttoke, PL_nexttoke.509
	movq	-328(%rbp), %rdx	# len, len.510
	leaq	-288(%rbp), %rax	#, tmp166
	movq	%rdx, %rsi	# len.510,
	movq	%rax, %rdi	# tmp166,
	call	Perl_newSVpvn	#
	movq	%rax, %rdx	# D.28849,
	movl	$0, %esi	#,
	movl	$5, %edi	#,
	call	Perl_newSVOP	#
	movslq	%ebx, %rdx	# PL_nexttoke.509, tmp167
	movq	%rax, PL_nextval(,%rdx,8)	# D.28850, PL_nextval[PL_nexttoke.509_88].opval
	.loc 1 1941 0
	movl	PL_nexttoke(%rip), %eax	# PL_nexttoke, PL_nexttoke.511
	cltq
	movq	PL_nextval(,%rax,8), %rax	# PL_nextval[PL_nexttoke.511_92].opval, D.28850
	movb	$64, 37(%rax)	#, _93->op_private
	.loc 1 1942 0
	movl	$1, PL_expect(%rip)	#, PL_expect
	.loc 1 1943 0
	movl	$257, %edi	#,
	call	S_force_next	#
	.loc 1 1944 0
	movq	-320(%rbp), %rax	# s, tmp169
	movq	%rax, PL_bufptr(%rip)	# tmp169, PL_bufptr
	.loc 1 1945 0
	movq	-320(%rbp), %rax	# s, tmp170
	movzbl	(%rax), %eax	# *s_2, D.28837
	cmpb	$40, %al	#, D.28837
	jne	.L530	#,
	.loc 1 1945 0 is_stmt 0 discriminator 1
	movl	$259, %eax	#, iftmp.512
	jmp	.L531	#
.L530:
	.loc 1 1945 0 discriminator 2
	movl	$258, %eax	#, iftmp.512
.L531:
	.loc 1 1945 0 discriminator 3
	jmp	.L532	#
.L524:
	.loc 1 1948 0 is_stmt 1
	movl	$0, %eax	#, D.28836
.L532:
	.loc 1 1949 0
	movq	-24(%rbp), %rbx	# D.28851, tmp173
	xorq	%fs:40, %rbx	#, tmp173
	je	.L533	#,
	call	__stack_chk_fail	#
.L533:
	addq	$344, %rsp	#,
	popq	%rbx	#
	popq	%rbp	#
	.cfi_def_cfa 7, 8
	ret
	.cfi_endproc
.LFE25:
	.size	S_intuit_method, .-S_intuit_method
	.section	.rodata
.LC43:
	.string	"PERL5DB"
	.align 8
.LC44:
	.string	"BEGIN { require 'perl5db.pl' }"
	.text
	.type	S_incl_perldb, @function
S_incl_perldb:
.LFB26:
	.loc 1 1960 0
	.cfi_startproc
	pushq	%rbp	#
	.cfi_def_cfa_offset 16
	.cfi_offset 6, -16
	movq	%rsp, %rbp	#,
	.cfi_def_cfa_register 6
	subq	$16, %rsp	#,
	.loc 1 1961 0
	movl	PL_perldb(%rip), %eax	# PL_perldb, PL_perldb.513
	testl	%eax, %eax	# PL_perldb.513
	je	.L535	#,
.LBB34:
	.loc 1 1962 0
	movl	$.LC43, %edi	#,
	call	getenv	#
	movq	%rax, -8(%rbp)	# tmp63, pdb
	.loc 1 1964 0
	cmpq	$0, -8(%rbp)	#, pdb
	je	.L536	#,
	.loc 1 1965 0
	movq	-8(%rbp), %rax	# pdb, D.28852
	jmp	.L537	#
.L536:
	.loc 1 1966 0
	call	__errno_location	#
	movl	$0, (%rax)	#, *_5
	.loc 1 1967 0
	movl	$.LC44, %eax	#, D.28852
	jmp	.L537	#
.L535:
.LBE34:
	.loc 1 1969 0
	movl	$.LC17, %eax	#, D.28852
.L537:
	.loc 1 1970 0
	leave
	.cfi_def_cfa 7, 8
	ret
	.cfi_endproc
.LFE26:
	.size	S_incl_perldb, .-S_incl_perldb
	.section	.rodata
	.align 8
.LC45:
	.string	"Can't upgrade filter_add data to SVt_PVIO"
	.text
	.globl	Perl_filter_add
	.type	Perl_filter_add, @function
Perl_filter_add:
.LFB27:
	.loc 1 1992 0
	.cfi_startproc
	pushq	%rbp	#
	.cfi_def_cfa_offset 16
	.cfi_offset 6, -16
	movq	%rsp, %rbp	#,
	.cfi_def_cfa_register 6
	subq	$16, %rsp	#,
	movq	%rdi, -8(%rbp)	# funcp, funcp
	movq	%rsi, -16(%rbp)	# datasv, datasv
	.loc 1 1993 0
	cmpq	$0, -8(%rbp)	#, funcp
	jne	.L539	#,
	.loc 1 1994 0
	movl	$0, %eax	#, D.28856
	jmp	.L540	#
.L539:
	.loc 1 1996 0
	movq	PL_rsfp_filters(%rip), %rax	# PL_rsfp_filters, PL_rsfp_filters.514
	testq	%rax, %rax	# PL_rsfp_filters.514
	jne	.L541	#,
	.loc 1 1997 0
	call	Perl_newAV	#
	movq	%rax, PL_rsfp_filters(%rip)	# PL_rsfp_filters.515, PL_rsfp_filters
.L541:
	.loc 1 1998 0
	cmpq	$0, -16(%rbp)	#, datasv
	jne	.L542	#,
	.loc 1 1999 0
	movl	$0, %edi	#,
	call	Perl_newSV	#
	movq	%rax, -16(%rbp)	# tmp73, datasv
.L542:
	.loc 1 2000 0
	movq	-16(%rbp), %rax	# datasv, tmp74
	movl	12(%rax), %eax	# datasv_1->sv_flags, D.28857
	movzbl	%al, %eax	# D.28857, D.28857
	cmpl	$14, %eax	#, D.28857
	ja	.L543	#,
	.loc 1 2000 0 is_stmt 0 discriminator 1
	movq	-16(%rbp), %rax	# datasv, tmp75
	movl	$15, %esi	#,
	movq	%rax, %rdi	# tmp75,
	call	Perl_sv_upgrade	#
	testb	%al, %al	# D.28858
	jne	.L543	#,
	.loc 1 2001 0 is_stmt 1
	movl	$.LC45, %edi	#,
	movl	$0, %eax	#,
	call	Perl_die	#
.L543:
	.loc 1 2002 0
	movq	-16(%rbp), %rax	# datasv, tmp76
	movq	(%rax), %rax	# datasv_1->sv_any, D.28859
	movq	-8(%rbp), %rdx	# funcp, tmp77
	movq	%rdx, 72(%rax)	# tmp77, MEM[(struct XPVIO *)_12].xio_dirpu.xiou_any
	.loc 1 2003 0
	movq	-16(%rbp), %rax	# datasv, tmp78
	movq	(%rax), %rax	# datasv_1->sv_any, D.28859
	movq	-16(%rbp), %rdx	# datasv, tmp79
	movq	(%rdx), %rdx	# datasv_1->sv_any, D.28859
	movzbl	163(%rdx), %edx	# MEM[(struct XPVIO *)_14].xio_flags, D.28858
	orl	$64, %edx	#, D.28860
	movb	%dl, 163(%rax)	# D.28860, MEM[(struct XPVIO *)_13].xio_flags
	.loc 1 2006 0
	movq	PL_rsfp_filters(%rip), %rax	# PL_rsfp_filters, PL_rsfp_filters.516
	movl	$1, %esi	#,
	movq	%rax, %rdi	# PL_rsfp_filters.516,
	call	Perl_av_unshift	#
	.loc 1 2007 0
	movq	PL_rsfp_filters(%rip), %rax	# PL_rsfp_filters, PL_rsfp_filters.517
	movq	-16(%rbp), %rdx	# datasv, tmp80
	movl	$0, %esi	#,
	movq	%rax, %rdi	# PL_rsfp_filters.517,
	call	Perl_av_store	#
	.loc 1 2008 0
	movq	-16(%rbp), %rax	# datasv, D.28856
.L540:
	.loc 1 2009 0
	leave
	.cfi_def_cfa 7, 8
	ret
	.cfi_endproc
.LFE27:
	.size	Perl_filter_add, .-Perl_filter_add
	.section	.rodata
	.align 8
.LC46:
	.string	"filter_del can only delete in reverse order (currently)"
	.text
	.globl	Perl_filter_del
	.type	Perl_filter_del, @function
Perl_filter_del:
.LFB28:
	.loc 1 2015 0
	.cfi_startproc
	pushq	%rbp	#
	.cfi_def_cfa_offset 16
	.cfi_offset 6, -16
	movq	%rsp, %rbp	#,
	.cfi_def_cfa_register 6
	subq	$32, %rsp	#,
	movq	%rdi, -24(%rbp)	# funcp, funcp
	.loc 1 2018 0
	movq	PL_rsfp_filters(%rip), %rax	# PL_rsfp_filters, PL_rsfp_filters.518
	testq	%rax, %rax	# PL_rsfp_filters.518
	je	.L545	#,
	.loc 1 2018 0 is_stmt 0 discriminator 1
	movq	PL_rsfp_filters(%rip), %rax	# PL_rsfp_filters, PL_rsfp_filters.519
	movq	(%rax), %rax	# PL_rsfp_filters.519_2->sv_any, D.28862
	movq	8(%rax), %rax	# _3->xav_fill, D.28863
	testq	%rax, %rax	# D.28863
	jns	.L546	#,
.L545:
	.loc 1 2019 0 is_stmt 1
	jmp	.L544	#
.L546:
	.loc 1 2021 0
	movq	PL_rsfp_filters(%rip), %rax	# PL_rsfp_filters, PL_rsfp_filters.520
	movq	(%rax), %rax	# PL_rsfp_filters.520_5->sv_any, D.28862
	movq	(%rax), %rdx	# _6->xav_array, D.28864
	movq	PL_rsfp_filters(%rip), %rax	# PL_rsfp_filters, PL_rsfp_filters.521
	movq	(%rax), %rax	# PL_rsfp_filters.521_8->sv_any, D.28862
	movq	8(%rax), %rax	# _9->xav_fill, D.28863
	salq	$3, %rax	#, D.28865
	addq	%rdx, %rax	# D.28864, D.28866
	movq	(%rax), %rax	# *_13, tmp81
	movq	%rax, -8(%rbp)	# tmp81, datasv
	.loc 1 2022 0
	movq	-8(%rbp), %rax	# datasv, tmp82
	movq	(%rax), %rax	# datasv_14->sv_any, D.28867
	movq	72(%rax), %rax	# MEM[(struct XPVIO *)_15].xio_dirpu.xiou_any, D.28867
	cmpq	-24(%rbp), %rax	# funcp, D.28867
	jne	.L548	#,
	.loc 1 2023 0
	movq	-8(%rbp), %rax	# datasv, tmp83
	movq	(%rax), %rax	# datasv_14->sv_any, D.28867
	movq	-8(%rbp), %rdx	# datasv, tmp84
	movq	(%rdx), %rdx	# datasv_14->sv_any, D.28867
	movzbl	163(%rdx), %edx	# MEM[(struct XPVIO *)_19].xio_flags, D.28868
	andl	$-65, %edx	#, D.28868
	movb	%dl, 163(%rax)	# D.28868, MEM[(struct XPVIO *)_18].xio_flags
	.loc 1 2024 0
	movq	-8(%rbp), %rax	# datasv, tmp85
	movq	(%rax), %rax	# datasv_14->sv_any, D.28867
	movq	$0, 72(%rax)	#, MEM[(struct XPVIO *)_22].xio_dirpu.xiou_any
	.loc 1 2025 0
	movq	PL_rsfp_filters(%rip), %rax	# PL_rsfp_filters, PL_rsfp_filters.522
	movq	%rax, %rdi	# PL_rsfp_filters.522,
	call	Perl_av_pop	#
	movq	%rax, %rdi	# D.28869,
	call	Perl_sv_free	#
	.loc 1 2027 0
	jmp	.L544	#
.L548:
	.loc 1 2030 0
	movl	$.LC46, %edi	#,
	movl	$0, %eax	#,
	call	Perl_die	#
.L544:
	.loc 1 2031 0
	leave
	.cfi_def_cfa 7, 8
	ret
	.cfi_endproc
.LFE28:
	.size	Perl_filter_del, .-Perl_filter_del
	.globl	Perl_filter_read
	.type	Perl_filter_read, @function
Perl_filter_read:
.LFB29:
	.loc 1 2038 0
	.cfi_startproc
	pushq	%rbp	#
	.cfi_def_cfa_offset 16
	.cfi_offset 6, -16
	movq	%rsp, %rbp	#,
	.cfi_def_cfa_register 6
	subq	$48, %rsp	#,
	movl	%edi, -36(%rbp)	# idx, idx
	movq	%rsi, -48(%rbp)	# buf_sv, buf_sv
	movl	%edx, -40(%rbp)	# maxlen, maxlen
	.loc 1 2040 0
	movq	$0, -16(%rbp)	#, datasv
	.loc 1 2042 0
	movq	PL_rsfp_filters(%rip), %rax	# PL_rsfp_filters, PL_rsfp_filters.523
	testq	%rax, %rax	# PL_rsfp_filters.523
	jne	.L550	#,
	.loc 1 2043 0
	movl	$-1, %eax	#, D.28871
	jmp	.L551	#
.L550:
	.loc 1 2044 0
	movl	-36(%rbp), %eax	# idx, tmp107
	movslq	%eax, %rdx	# tmp107, D.28872
	movq	PL_rsfp_filters(%rip), %rax	# PL_rsfp_filters, PL_rsfp_filters.524
	movq	(%rax), %rax	# PL_rsfp_filters.524_7->sv_any, D.28873
	movq	8(%rax), %rax	# _8->xav_fill, D.28872
	cmpq	%rax, %rdx	# D.28872, D.28872
	jle	.L552	#,
	.loc 1 2049 0
	cmpl	$0, -40(%rbp)	#, maxlen
	je	.L553	#,
.LBB35:
	.loc 1 2052 0
	movq	-48(%rbp), %rax	# buf_sv, tmp108
	movq	(%rax), %rax	# buf_sv_11(D)->sv_any, D.28874
	movq	8(%rax), %rax	# MEM[(struct XPV *)_12].xpv_cur, D.28875
	movl	%eax, -24(%rbp)	# D.28875, old_len
	.loc 1 2055 0
	movq	-48(%rbp), %rax	# buf_sv, tmp109
	movq	(%rax), %rax	# buf_sv_11(D)->sv_any, D.28874
	movq	16(%rax), %rdx	# MEM[(struct XPV *)_15].xpv_len, D.28875
	movl	-40(%rbp), %eax	# maxlen, tmp110
	movl	-24(%rbp), %ecx	# old_len, tmp111
	addl	%ecx, %eax	# tmp111, D.28876
	cltq
	cmpq	%rax, %rdx	# D.28875, D.28875
	jae	.L555	#,
	.loc 1 2055 0 is_stmt 0 discriminator 1
	movl	-40(%rbp), %eax	# maxlen, tmp112
	movl	-24(%rbp), %edx	# old_len, tmp113
	addl	%edx, %eax	# tmp113, D.28876
	movslq	%eax, %rdx	# D.28876, D.28875
	movq	-48(%rbp), %rax	# buf_sv, tmp114
	movq	%rdx, %rsi	# D.28875,
	movq	%rax, %rdi	# tmp114,
	call	Perl_sv_grow	#
.L555:
	.loc 1 2056 0 is_stmt 1
	movl	-40(%rbp), %eax	# maxlen, tmp116
	movslq	%eax, %rdx	# tmp116, D.28875
	movq	-48(%rbp), %rax	# buf_sv, tmp117
	movq	(%rax), %rax	# buf_sv_11(D)->sv_any, D.28874
	movq	(%rax), %rcx	# MEM[(struct XPV *)_25].xpv_pv, D.28877
	movl	-24(%rbp), %eax	# old_len, tmp118
	cltq
	addq	%rax, %rcx	# D.28878, D.28874
	movq	PL_rsfp(%rip), %rax	# PL_rsfp, PL_rsfp.526
	movq	%rcx, %rsi	# D.28874,
	movq	%rax, %rdi	# PL_rsfp.526,
	call	Perl_PerlIO_read	#
	movl	%eax, -20(%rbp)	# D.28872, len
	cmpl	$0, -20(%rbp)	#, len
	jg	.L556	#,
	.loc 1 2057 0
	movq	PL_rsfp(%rip), %rax	# PL_rsfp, PL_rsfp.527
	movq	%rax, %rdi	# PL_rsfp.527,
	call	Perl_PerlIO_error	#
	testl	%eax, %eax	# D.28876
	je	.L557	#,
	.loc 1 2058 0
	movl	$-1, %eax	#, D.28871
	jmp	.L551	#
.L557:
	.loc 1 2060 0
	movl	$0, %eax	#, D.28871
	jmp	.L551	#
.L556:
	.loc 1 2062 0
	movq	-48(%rbp), %rax	# buf_sv, tmp119
	movq	(%rax), %rax	# buf_sv_11(D)->sv_any, D.28874
	movl	-20(%rbp), %edx	# len, tmp120
	movl	-24(%rbp), %ecx	# old_len, tmp121
	addl	%ecx, %edx	# tmp121, D.28876
	movslq	%edx, %rdx	# D.28876, D.28875
	movq	%rdx, 8(%rax)	# D.28875, MEM[(struct XPV *)_36].xpv_cur
.LBE35:
	jmp	.L558	#
.L553:
	.loc 1 2065 0
	movq	-48(%rbp), %rax	# buf_sv, tmp122
	movq	(%rax), %rax	# buf_sv_11(D)->sv_any, D.28874
	movq	8(%rax), %rax	# MEM[(struct XPV *)_39].xpv_cur, D.28875
	movl	%eax, %edx	# D.28875, D.28876
	movq	PL_rsfp(%rip), %rcx	# PL_rsfp, PL_rsfp.528
	movq	-48(%rbp), %rax	# buf_sv, tmp123
	movq	%rcx, %rsi	# PL_rsfp.528,
	movq	%rax, %rdi	# tmp123,
	call	Perl_sv_gets	#
	testq	%rax, %rax	# D.28877
	jne	.L558	#,
	.loc 1 2066 0
	movq	PL_rsfp(%rip), %rax	# PL_rsfp, PL_rsfp.529
	movq	%rax, %rdi	# PL_rsfp.529,
	call	Perl_PerlIO_error	#
	testl	%eax, %eax	# D.28876
	je	.L559	#,
	.loc 1 2067 0
	movl	$-1, %eax	#, D.28871
	jmp	.L551	#
.L559:
	.loc 1 2069 0
	movl	$0, %eax	#, D.28871
	jmp	.L551	#
.L558:
	.loc 1 2072 0
	movq	-48(%rbp), %rax	# buf_sv, tmp124
	movq	(%rax), %rax	# buf_sv_11(D)->sv_any, D.28874
	movq	8(%rax), %rax	# MEM[(struct XPV *)_48].xpv_cur, D.28875
	jmp	.L551	#
.L552:
	.loc 1 2075 0
	movq	PL_rsfp_filters(%rip), %rax	# PL_rsfp_filters, PL_rsfp_filters.530
	movq	(%rax), %rax	# PL_rsfp_filters.530_51->sv_any, D.28873
	movq	(%rax), %rax	# _52->xav_array, D.28877
	movl	-36(%rbp), %edx	# idx, tmp125
	movslq	%edx, %rdx	# tmp125, D.28875
	salq	$3, %rdx	#, D.28875
	addq	%rdx, %rax	# D.28875, D.28879
	movq	(%rax), %rax	# *_56, tmp126
	movq	%rax, -16(%rbp)	# tmp126, datasv
	cmpq	$PL_sv_undef, -16(%rbp)	#, datasv
	jne	.L560	#,
	.loc 1 2079 0
	movl	-36(%rbp), %eax	# idx, tmp127
	leal	1(%rax), %ecx	#, D.28876
	movl	-40(%rbp), %edx	# maxlen, tmp128
	movq	-48(%rbp), %rax	# buf_sv, tmp129
	movq	%rax, %rsi	# tmp129,
	movl	%ecx, %edi	# D.28876,
	call	Perl_filter_read	#
	jmp	.L551	#
.L560:
	.loc 1 2082 0
	movq	-16(%rbp), %rax	# datasv, tmp130
	movq	(%rax), %rax	# datasv_57->sv_any, D.28874
	movq	72(%rax), %rax	# MEM[(struct XPVIO *)_60].xio_dirpu.xiou_any, D.28874
	movq	%rax, -8(%rbp)	# D.28874, funcp
	.loc 1 2089 0
	movl	-40(%rbp), %edx	# maxlen, tmp131
	movq	-48(%rbp), %rsi	# buf_sv, tmp132
	movl	-36(%rbp), %ecx	# idx, tmp133
	movq	-8(%rbp), %rax	# funcp, tmp134
	movl	%ecx, %edi	# tmp133,
	call	*%rax	# tmp134
.L551:
	.loc 1 2090 0
	leave
	.cfi_def_cfa 7, 8
	ret
	.cfi_endproc
.LFE29:
	.size	Perl_filter_read, .-Perl_filter_read
	.type	S_filter_gets, @function
S_filter_gets:
.LFB30:
	.loc 1 2094 0
	.cfi_startproc
	pushq	%rbp	#
	.cfi_def_cfa_offset 16
	.cfi_offset 6, -16
	movq	%rsp, %rbp	#,
	.cfi_def_cfa_register 6
	pushq	%rbx	#
	subq	$24, %rsp	#,
	.cfi_offset 3, -24
	movq	%rdi, %rbx	# sv, sv
	movq	%rsi, %rax	# fp, fp
	movq	%rdx, -24(%rbp)	# append, append
	.loc 1 2100 0
	movq	PL_rsfp_filters(%rip), %rdx	# PL_rsfp_filters, PL_rsfp_filters.531
	testq	%rdx, %rdx	# PL_rsfp_filters.531
	je	.L562	#,
	.loc 1 2101 0
	cmpq	$0, -24(%rbp)	#, append
	jne	.L563	#,
	.loc 1 2102 0
	movq	(%rbx), %rax	# sv_4(D)->sv_any, D.28881
	movq	$0, 8(%rax)	#, MEM[(struct XPV *)_5].xpv_cur
.L563:
	.loc 1 2103 0
	movl	$0, %edx	#,
	movq	%rbx, %rsi	# sv,
	movl	$0, %edi	#,
	call	Perl_filter_read	#
	testl	%eax, %eax	# D.28882
	jle	.L564	#,
	.loc 1 2104 0
	movq	(%rbx), %rax	# sv_4(D)->sv_any, D.28881
	movq	(%rax), %rax	# MEM[(struct XPV *)_7].xpv_pv, D.28880
	jmp	.L565	#
.L564:
	.loc 1 2106 0
	movl	$0, %eax	#, D.28880
	jmp	.L565	#
.L562:
	.loc 1 2109 0
	movq	-24(%rbp), %rdx	# append, tmp68
	movq	%rax, %rsi	# fp,
	movq	%rbx, %rdi	# sv,
	call	Perl_sv_gets	#
.L565:
	.loc 1 2110 0
	addq	$24, %rsp	#,
	popq	%rbx	#
	popq	%rbp	#
	.cfi_def_cfa 7, 8
	ret
	.cfi_endproc
.LFE30:
	.size	S_filter_gets, .-S_filter_gets
	.section	.rodata
.LC47:
	.string	"__PACKAGE__"
	.text
	.type	S_find_in_my_stash, @function
S_find_in_my_stash:
.LFB31:
	.loc 1 2114 0
	.cfi_startproc
	pushq	%rbp	#
	.cfi_def_cfa_offset 16
	.cfi_offset 6, -16
	movq	%rsp, %rbp	#,
	.cfi_def_cfa_register 6
	subq	$32, %rsp	#,
	movq	%rdi, -24(%rbp)	# pkgname, pkgname
	movl	%esi, -28(%rbp)	# len, len
	.loc 1 2117 0
	cmpl	$11, -28(%rbp)	#, len
	jne	.L567	#,
	.loc 1 2117 0 is_stmt 0 discriminator 1
	movq	-24(%rbp), %rax	# pkgname, tmp83
	movzbl	(%rax), %eax	# *pkgname_5(D), D.28884
	cmpb	$95, %al	#, D.28884
	jne	.L567	#,
	movq	-24(%rbp), %rax	# pkgname, tmp84
	movl	$.LC47, %esi	#,
	movq	%rax, %rdi	# tmp84,
	call	strcmp	#
	testl	%eax, %eax	# D.28885
	jne	.L567	#,
	.loc 1 2118 0 is_stmt 1
	movq	PL_curstash(%rip), %rax	# PL_curstash, D.28883
	jmp	.L568	#
.L567:
	.loc 1 2120 0
	cmpl	$2, -28(%rbp)	#, len
	jle	.L569	#,
	.loc 1 2121 0 discriminator 1
	movl	-28(%rbp), %eax	# len, tmp85
	cltq
	leaq	-2(%rax), %rdx	#, D.28886
	movq	-24(%rbp), %rax	# pkgname, tmp86
	addq	%rdx, %rax	# D.28886, D.28887
	movzbl	(%rax), %eax	# *_11, D.28884
	.loc 1 2120 0 discriminator 1
	cmpb	$58, %al	#, D.28884
	jne	.L569	#,
	.loc 1 2121 0
	movl	-28(%rbp), %eax	# len, tmp87
	cltq
	leaq	-1(%rax), %rdx	#, D.28886
	movq	-24(%rbp), %rax	# pkgname, tmp88
	addq	%rdx, %rax	# D.28886, D.28887
	movzbl	(%rax), %eax	# *_15, D.28884
	cmpb	$58, %al	#, D.28884
	jne	.L569	#,
	.loc 1 2121 0 is_stmt 0 discriminator 1
	movq	-24(%rbp), %rax	# pkgname, tmp89
	movl	$11, %edx	#,
	movl	$0, %esi	#,
	movq	%rax, %rdi	# tmp89,
	call	Perl_gv_fetchpv	#
	movq	%rax, -16(%rbp)	# tmp90, gv
	cmpq	$0, -16(%rbp)	#, gv
	je	.L569	#,
	.loc 1 2124 0 is_stmt 1
	movq	-16(%rbp), %rax	# gv, tmp91
	movq	(%rax), %rax	# gv_17->sv_any, D.28888
	movq	56(%rax), %rax	# _18->xgv_gp, D.28889
	movq	40(%rax), %rax	# _19->gp_hv, D.28883
	jmp	.L568	#
.L569:
	.loc 1 2128 0
	movq	-24(%rbp), %rax	# pkgname, tmp92
	movl	$12, %edx	#,
	movl	$0, %esi	#,
	movq	%rax, %rdi	# tmp92,
	call	Perl_gv_fetchpv	#
	movq	%rax, -16(%rbp)	# tmp93, gv
	cmpq	$0, -16(%rbp)	#, gv
	je	.L570	#,
.LBB36:
	.loc 1 2130 0
	movq	-16(%rbp), %rax	# gv, tmp94
	movq	(%rax), %rax	# gv_21->sv_any, D.28888
	movq	56(%rax), %rax	# _22->xgv_gp, D.28889
	movq	56(%rax), %rax	# _23->gp_cv, D.28890
	testq	%rax, %rax	# D.28890
	je	.L570	#,
	.loc 1 2130 0 is_stmt 0 discriminator 1
	movq	-16(%rbp), %rax	# gv, tmp95
	movq	(%rax), %rax	# gv_21->sv_any, D.28888
	movq	56(%rax), %rax	# _25->xgv_gp, D.28889
	movq	56(%rax), %rax	# _26->gp_cv, D.28890
	movq	%rax, %rdi	# D.28890,
	call	Perl_cv_const_sv	#
	movq	%rax, -8(%rbp)	# tmp96, sv
	cmpq	$0, -8(%rbp)	#, sv
	je	.L570	#,
	.loc 1 2131 0 is_stmt 1
	movq	-8(%rbp), %rax	# sv, tmp97
	movl	12(%rax), %eax	# sv_28->sv_flags, D.28891
	andl	$262144, %eax	#, D.28891
	testl	%eax, %eax	# D.28891
	je	.L571	#,
	.loc 1 2131 0 is_stmt 0 discriminator 1
	movq	-8(%rbp), %rax	# sv, tmp98
	movq	(%rax), %rax	# sv_28->sv_any, D.28892
	movq	(%rax), %rax	# MEM[(struct XPV *)_31].xpv_pv, iftmp.532
	jmp	.L572	#
.L571:
	.loc 1 2131 0 discriminator 2
	movq	-8(%rbp), %rax	# sv, tmp99
	movq	%rax, %rdi	# tmp99,
	call	Perl_sv_2pv_nolen	#
.L572:
	.loc 1 2131 0 discriminator 3
	movq	%rax, -24(%rbp)	# iftmp.532, pkgname
.L570:
.LBE36:
	.loc 1 2135 0 is_stmt 1
	movq	-24(%rbp), %rax	# pkgname, tmp100
	movl	$0, %esi	#,
	movq	%rax, %rdi	# tmp100,
	call	Perl_gv_stashpv	#
.L568:
	.loc 1 2136 0
	leave
	.cfi_def_cfa 7, 8
	ret
	.cfi_endproc
.LFE31:
	.size	S_find_in_my_stash, .-S_find_in_my_stash
	.section	.rodata
.LC48:
	.string	"L\\u"
.LC49:
	.string	"U\\l"
.LC50:
	.string	"panic: yylex"
.LC51:
	.string	"\""
	.align 8
.LC52:
	.string	"Bad evalled substitution pattern"
.LC53:
	.string	"Unrecognized character \\x%02X"
.LC54:
	.string	"Format not terminated"
	.align 8
.LC55:
	.string	"Missing right curly or square bracket"
.LC56:
	.string	"LINE: while (<>) {"
.LC57:
	.string	"chomp;"
.LC58:
	.string	"our @F=split(%s);"
.LC59:
	.string	"our @F=split(q"
.LC60:
	.string	");"
.LC61:
	.string	"our @F=split(' ');"
.LC62:
	.string	"\n"
.LC63:
	.string	";}continue{print;}"
.LC64:
	.string	"=cut"
.LC65:
	.string	"perl -"
.LC66:
	.string	"perl"
.LC67:
	.string	"indir"
.LC68:
	.string	"Can't exec %s"
.LC69:
	.string	"Too late for \"-%.*s\" option"
.LC70:
	.string	"panic: input overflow"
.LC71:
	.string	"=>"
.LC72:
	.string	"\024"
	.align 8
.LC73:
	.string	"Unterminated attribute parameter in attribute list"
.LC74:
	.string	"unique"
	.align 8
.LC75:
	.string	"The 'unique' attribute may only be applied to 'our' variables"
.LC76:
	.string	"lvalue"
.LC77:
	.string	"locked"
.LC78:
	.string	"method"
.LC79:
	.string	"Unterminated attribute list"
	.align 8
.LC80:
	.string	"Invalid separator character %c%c%c in attribute list"
	.align 8
.LC81:
	.string	"Unmatched right square bracket"
.LC82:
	.string	"syntax error"
.LC83:
	.string	"([{< )]}> )]}>"
.LC84:
	.string	"Unmatched right curly bracket"
.LC85:
	.string	"+-*/%.^&|<"
.LC86:
	.string	"Reversed %c= operator"
.LC87:
	.string	"{$:+-"
.LC88:
	.string	"Array length"
.LC89:
	.string	"Scalar"
.LC90:
	.string	"Final $ should be \\$ or $name"
	.align 8
.LC91:
	.string	"Multidimensional syntax %.*s not supported"
.LC92:
	.string	"SIG"
.LC93:
	.string	"You need to quote \"%s\""
.LC94:
	.string	"$@\"'`q"
.LC95:
	.string	"&*<%"
.LC96:
	.string	"Array"
.LC97:
	.string	" \t$#+-'\""
	.align 8
.LC98:
	.string	"Scalar value %.*s better written as $%.*s"
.LC99:
	.string	"study"
.LC100:
	.string	"Number"
.LC101:
	.string	"String"
.LC102:
	.string	"Backticks"
	.align 8
.LC103:
	.string	"Can't use \\%c to mean $%c in expression"
.LC104:
	.string	"Backslash"
.LC105:
	.string	"msyq"
.LC106:
	.string	"qwxr"
.LC107:
	.string	"CORE"
.LC108:
	.string	"Thread.pm"
	.align 8
.LC109:
	.string	"dump() better written as CORE::dump()"
.LC110:
	.string	"qualify as such or use &"
	.align 8
.LC111:
	.string	"Ambiguous call resolved as CORE::%s(), %s"
.LC112:
	.string	"'"
.LC113:
	.string	"::"
.LC114:
	.string	"Bad name after %s%s"
.LC115:
	.string	"Bareword"
	.align 8
.LC116:
	.string	"Bareword \"%s\" refers to nonexistent package"
.LC117:
	.string	"CORE::GLOBAL::"
	.align 8
.LC118:
	.string	"Ambiguous use of -%s resolved as -&%s()"
.LC119:
	.string	"__ANON__"
.LC120:
	.string	"__ANON__::__ANON__"
	.align 8
.LC121:
	.string	"Operator or semicolon missing before %c%s"
	.align 8
.LC122:
	.string	"Ambiguous use of %c resolved as operator %c"
.LC123:
	.string	"%ld"
.LC124:
	.string	"main"
.LC125:
	.string	"%s::DATA"
.LC126:
	.string	":utf8"
.LC127:
	.string	"name"
.LC128:
	.string	":encoding(%_)"
.LC129:
	.string	"CORE::%s is not a keyword"
.LC130:
	.string	"ENV"
.LC131:
	.string	"AnyDBM_File::ISA"
.LC132:
	.string	"my"
.LC133:
	.string	"our"
.LC134:
	.string	"Missing $ on loop variable"
.LC135:
	.string	"sub"
.LC136:
	.string	"No such class %.1000s"
	.align 8
.LC137:
	.string	"\"no\" not allowed in expression"
.LC138:
	.string	"|&*+-=!?:."
	.align 8
.LC139:
	.string	"Precedence problem: open %.*s should be open(%.*s)"
.LC140:
	.string	"filehandle"
	.align 8
.LC141:
	.string	"Possible attempt to separate words with commas"
	.align 8
.LC142:
	.string	"Possible attempt to put comments in qw() list"
.LC143:
	.string	"<> should be quotes"
.LC144:
	.string	"subroutine name"
.LC145:
	.string	"sort is now a reserved word"
.LC146:
	.string	"Missing name in \"my sub\""
.LC147:
	.string	"?"
.LC148:
	.string	"Prototype not terminated"
.LC149:
	.string	"$@%*;[]&\\"
	.align 8
.LC150:
	.string	"Illegal character in prototype for %_ : %s"
	.align 8
.LC151:
	.string	"Illegal declaration of anonymous subroutine"
	.align 8
.LC152:
	.string	"Illegal declaration of subroutine %_"
	.align 8
.LC153:
	.string	"\"use\" not allowed in expression"
.LC154:
	.string	"\f"
	.text
	.globl	Perl_yylex
	.type	Perl_yylex, @function
Perl_yylex:
.LFB32:
	.loc 1 2196 0
	.cfi_startproc
	pushq	%rbp	#
	.cfi_def_cfa_offset 16
	.cfi_offset 6, -16
	movq	%rsp, %rbp	#,
	.cfi_def_cfa_register 6
	pushq	%r13	#
	pushq	%r12	#
	pushq	%rbx	#
	subq	$1432, %rsp	#,
	.cfi_offset 13, -24
	.cfi_offset 12, -32
	.cfi_offset 3, -40
	.loc 1 2196 0
	movq	%fs:40, %rax	#, tmp3747
	movq	%rax, -40(%rbp)	# tmp3747, D.28927
	xorl	%eax, %eax	# tmp3747
	.loc 1 2201 0
	movq	$0, -1368(%rbp)	#, gv
	.loc 1 2202 0
	movq	$0, -1360(%rbp)	#, gvp
	.loc 1 2203 0
	movb	$0, -1441(%rbp)	#, bof
	.loc 1 2204 0
	movl	$0, -1428(%rbp)	#, orig_keyword
	.loc 1 2207 0
	movzbl	PL_pending_ident(%rip), %eax	# PL_pending_ident, PL_pending_ident.533
	testb	%al, %al	# PL_pending_ident.533
	je	.L574	#,
	.loc 1 2208 0
	call	S_pending_ident	#
	jmp	.L2138	#
.L574:
	.loc 1 2212 0
	movl	PL_lex_state(%rip), %eax	# PL_lex_state, PL_lex_state.534
	cmpl	$8, %eax	#, PL_lex_state.534
	ja	.L576	#,
	movl	%eax, %eax	# PL_lex_state.534, tmp3329
	movq	.L578(,%rax,8), %rax	#, tmp3330
	jmp	*%rax	# tmp3330
	.section	.rodata
	.align 8
	.align 4
.L578:
	.quad	.L577
	.quad	.L579
	.quad	.L576
	.quad	.L580
	.quad	.L581
	.quad	.L582
	.quad	.L583
	.quad	.L584
	.quad	.L585
	.text
.L577:
	.loc 1 2221 0
	movl	PL_nexttoke(%rip), %eax	# PL_nexttoke, PL_nexttoke.535
	subl	$1, %eax	#, PL_nexttoke.536
	movl	%eax, PL_nexttoke(%rip)	# PL_nexttoke.536, PL_nexttoke
	.loc 1 2222 0
	movl	PL_nexttoke(%rip), %eax	# PL_nexttoke, PL_nexttoke.537
	cltq
	movq	PL_nextval(,%rax,8), %rax	# PL_nextval, tmp3332
	movq	%rax, PL_yylval(%rip)	# tmp3332, PL_yylval
	.loc 1 2223 0
	movl	PL_nexttoke(%rip), %eax	# PL_nexttoke, PL_nexttoke.538
	testl	%eax, %eax	# PL_nexttoke.538
	jne	.L586	#,
	.loc 1 2224 0
	movl	PL_lex_defer(%rip), %eax	# PL_lex_defer, PL_lex_defer.539
	movl	%eax, PL_lex_state(%rip)	# PL_lex_defer.539, PL_lex_state
	.loc 1 2225 0
	movl	PL_lex_expect(%rip), %eax	# PL_lex_expect, PL_lex_expect.540
	movl	%eax, PL_expect(%rip)	# PL_lex_expect.540, PL_expect
	.loc 1 2226 0
	movl	$10, PL_lex_defer(%rip)	#, PL_lex_defer
.L586:
	.loc 1 2232 0
	movl	PL_nexttoke(%rip), %eax	# PL_nexttoke, PL_nexttoke.541
	cltq
	movl	PL_nexttype(,%rax,4), %eax	# PL_nexttype, D.28894
	jmp	.L2138	#
.L585:
	.loc 1 2243 0
	movq	PL_bufptr(%rip), %rdx	# PL_bufptr, PL_bufptr.542
	movq	PL_bufend(%rip), %rax	# PL_bufend, PL_bufend.543
	cmpq	%rax, %rdx	# PL_bufend.543, PL_bufptr.542
	je	.L587	#,
	.loc 1 2243 0 is_stmt 0 discriminator 1
	movq	PL_bufptr(%rip), %rax	# PL_bufptr, PL_bufptr.544
	addq	$1, %rax	#, D.28895
	movzbl	(%rax), %eax	# *_375, D.28896
	cmpb	$69, %al	#, D.28896
	jne	.L588	#,
.L587:
.LBB37:
	.loc 1 2247 0 is_stmt 1
	movl	PL_lex_casemods(%rip), %eax	# PL_lex_casemods, PL_lex_casemods.545
	testl	%eax, %eax	# PL_lex_casemods.545
	je	.L589	#,
	.loc 1 2248 0
	movq	PL_lex_casestack(%rip), %rdx	# PL_lex_casestack, PL_lex_casestack.546
	movl	PL_lex_casemods(%rip), %eax	# PL_lex_casemods, PL_lex_casemods.547
	subl	$1, %eax	#, PL_lex_casemods.548
	movl	%eax, PL_lex_casemods(%rip)	# PL_lex_casemods.548, PL_lex_casemods
	movl	PL_lex_casemods(%rip), %eax	# PL_lex_casemods, PL_lex_casemods.549
	cltq
	addq	%rdx, %rax	# PL_lex_casestack.546, D.28895
	movzbl	(%rax), %eax	# *_444, tmp3334
	movb	%al, -1440(%rbp)	# tmp3334, oldmod
	.loc 1 2249 0
	movq	PL_lex_casestack(%rip), %rdx	# PL_lex_casestack, PL_lex_casestack.550
	movl	PL_lex_casemods(%rip), %eax	# PL_lex_casemods, PL_lex_casemods.551
	cltq
	addq	%rdx, %rax	# PL_lex_casestack.550, D.28895
	movb	$0, (%rax)	#, *_449
	.loc 1 2251 0
	movq	PL_bufptr(%rip), %rdx	# PL_bufptr, PL_bufptr.552
	movq	PL_bufend(%rip), %rax	# PL_bufend, PL_bufend.553
	cmpq	%rax, %rdx	# PL_bufend.553, PL_bufptr.552
	je	.L590	#,
	.loc 1 2252 0
	cmpb	$76, -1440(%rbp)	#, oldmod
	je	.L591	#,
	.loc 1 2252 0 is_stmt 0 discriminator 1
	cmpb	$85, -1440(%rbp)	#, oldmod
	je	.L591	#,
	cmpb	$81, -1440(%rbp)	#, oldmod
	jne	.L590	#,
.L591:
	.loc 1 2253 0 is_stmt 1
	movq	PL_bufptr(%rip), %rax	# PL_bufptr, PL_bufptr.554
	addq	$2, %rax	#, PL_bufptr.555
	movq	%rax, PL_bufptr(%rip)	# PL_bufptr.555, PL_bufptr
	.loc 1 2254 0
	movl	$3, PL_lex_state(%rip)	#, PL_lex_state
.L590:
	.loc 1 2256 0
	movl	$41, %eax	#, D.28894
	jmp	.L2138	#
.L589:
	.loc 1 2258 0
	movq	PL_bufptr(%rip), %rdx	# PL_bufptr, PL_bufptr.556
	movq	PL_bufend(%rip), %rax	# PL_bufend, PL_bufend.557
	cmpq	%rax, %rdx	# PL_bufend.557, PL_bufptr.556
	je	.L592	#,
	.loc 1 2259 0
	movq	PL_bufptr(%rip), %rax	# PL_bufptr, PL_bufptr.558
	addq	$2, %rax	#, PL_bufptr.559
	movq	%rax, PL_bufptr(%rip)	# PL_bufptr.559, PL_bufptr
.L592:
	.loc 1 2260 0
	movl	$3, PL_lex_state(%rip)	#, PL_lex_state
	.loc 1 2261 0
	call	Perl_yylex	#
	jmp	.L2138	#
.L588:
.LBE37:
	.loc 1 2266 0
	movq	PL_bufptr(%rip), %rax	# PL_bufptr, PL_bufptr.560
	leaq	1(%rax), %rbx	#, s
	.loc 1 2267 0
	leaq	1(%rbx), %rax	#, D.28895
	movzbl	(%rax), %eax	# *_379, D.28896
	cmpb	$92, %al	#, D.28896
	jne	.L593	#,
	.loc 1 2267 0 is_stmt 0 discriminator 1
	leaq	2(%rbx), %rax	#, D.28895
	movzbl	(%rax), %eax	# *_381, D.28896
	cmpb	$69, %al	#, D.28896
	jne	.L593	#,
	.loc 1 2268 0 is_stmt 1
	leaq	3(%rbx), %rax	#, PL_bufptr.561
	movq	%rax, PL_bufptr(%rip)	# PL_bufptr.561, PL_bufptr
	.loc 1 2269 0
	movl	$3, PL_lex_state(%rip)	#, PL_lex_state
	.loc 1 2270 0
	call	Perl_yylex	#
	jmp	.L2138	#
.L593:
	.loc 1 2273 0
	movl	$3, %edx	#,
	movl	$.LC48, %esi	#,
	movq	%rbx, %rdi	# s,
	call	strncmp	#
	testl	%eax, %eax	# D.28894
	je	.L594	#,
	.loc 1 2273 0 is_stmt 0 discriminator 1
	movl	$3, %edx	#,
	movl	$.LC49, %esi	#,
	movq	%rbx, %rdi	# s,
	call	strncmp	#
	testl	%eax, %eax	# D.28894
	jne	.L595	#,
.L594:
	.loc 1 2274 0 is_stmt 1
	movzbl	(%rbx), %eax	# *s_378, D.28896
	movsbl	%al, %r13d	# D.28896, tmp
	movzbl	2(%rbx), %eax	# MEM[(char *)s_378 + 2B], D.28896
	movb	%al, (%rbx)	# D.28896, *s_378
	leaq	2(%rbx), %rax	#, D.28895
	movl	%r13d, %edx	# tmp, D.28896
	movb	%dl, (%rax)	# D.28896, *_390
.L595:
	.loc 1 2275 0
	movzbl	(%rbx), %eax	# *s_378, D.28896
	cmpb	$76, %al	#, D.28896
	je	.L596	#,
	.loc 1 2275 0 is_stmt 0 discriminator 2
	movzbl	(%rbx), %eax	# *s_378, D.28896
	cmpb	$85, %al	#, D.28896
	jne	.L597	#,
.L596:
	.loc 1 2276 0 is_stmt 1 discriminator 1
	movq	PL_lex_casestack(%rip), %rax	# PL_lex_casestack, PL_lex_casestack.562
	movl	$76, %esi	#,
	movq	%rax, %rdi	# PL_lex_casestack.562,
	call	strchr	#
	.loc 1 2275 0 discriminator 1
	testq	%rax, %rax	# D.28895
	jne	.L598	#,
	.loc 1 2276 0
	movq	PL_lex_casestack(%rip), %rax	# PL_lex_casestack, PL_lex_casestack.563
	movl	$85, %esi	#,
	movq	%rax, %rdi	# PL_lex_casestack.563,
	call	strchr	#
	testq	%rax, %rax	# D.28895
	je	.L597	#,
.L598:
	.loc 1 2277 0
	movq	PL_lex_casestack(%rip), %rdx	# PL_lex_casestack, PL_lex_casestack.564
	movl	PL_lex_casemods(%rip), %eax	# PL_lex_casemods, PL_lex_casemods.565
	subl	$1, %eax	#, PL_lex_casemods.566
	movl	%eax, PL_lex_casemods(%rip)	# PL_lex_casemods.566, PL_lex_casemods
	movl	PL_lex_casemods(%rip), %eax	# PL_lex_casemods, PL_lex_casemods.567
	cltq
	addq	%rdx, %rax	# PL_lex_casestack.564, D.28895
	movb	$0, (%rax)	#, *_403
	.loc 1 2278 0
	movl	$41, %eax	#, D.28894
	jmp	.L2138	#
.L597:
	.loc 1 2280 0
	movl	PL_lex_casemods(%rip), %eax	# PL_lex_casemods, PL_lex_casemods.568
	cmpl	$10, %eax	#, PL_lex_casemods.568
	jle	.L599	#,
	.loc 1 2281 0
	movl	PL_lex_casemods(%rip), %eax	# PL_lex_casemods, PL_lex_casemods.569
	addl	$2, %eax	#, D.28894
	movslq	%eax, %rdx	# D.28894, D.28898
	movq	PL_lex_casestack(%rip), %rax	# PL_lex_casestack, PL_lex_casestack.570
	movq	%rdx, %rsi	# D.28898,
	movq	%rax, %rdi	# PL_lex_casestack.570,
	call	Perl_safesysrealloc	#
	movq	%rax, PL_lex_casestack(%rip)	# PL_lex_casestack.571, PL_lex_casestack
.L599:
	.loc 1 2282 0
	movq	PL_lex_casestack(%rip), %rcx	# PL_lex_casestack, PL_lex_casestack.572
	movl	PL_lex_casemods(%rip), %eax	# PL_lex_casemods, PL_lex_casemods.573
	leal	1(%rax), %edx	#, PL_lex_casemods.575
	movl	%edx, PL_lex_casemods(%rip)	# PL_lex_casemods.575, PL_lex_casemods
	cltq
	leaq	(%rcx,%rax), %rdx	#, D.28895
	movzbl	(%rbx), %eax	# *s_378, D.28896
	movb	%al, (%rdx)	# D.28896, *_416
	.loc 1 2283 0
	movq	PL_lex_casestack(%rip), %rdx	# PL_lex_casestack, PL_lex_casestack.576
	movl	PL_lex_casemods(%rip), %eax	# PL_lex_casemods, PL_lex_casemods.577
	cltq
	addq	%rdx, %rax	# PL_lex_casestack.576, D.28895
	movb	$0, (%rax)	#, *_421
	.loc 1 2284 0
	movl	$3, PL_lex_state(%rip)	#, PL_lex_state
	.loc 1 2285 0
	movl	PL_nexttoke(%rip), %eax	# PL_nexttoke, PL_nexttoke.578
	cltq
	movl	$0, PL_nextval(,%rax,8)	#, PL_nextval[PL_nexttoke.578_422].ival
	.loc 1 2286 0
	movl	$40, %edi	#,
	call	S_force_next	#
	.loc 1 2287 0
	movzbl	(%rbx), %eax	# *s_378, D.28896
	cmpb	$108, %al	#, D.28896
	jne	.L600	#,
	.loc 1 2288 0
	movl	PL_nexttoke(%rip), %eax	# PL_nexttoke, PL_nexttoke.579
	cltq
	movl	$121, PL_nextval(,%rax,8)	#, PL_nextval[PL_nexttoke.579_424].ival
	jmp	.L601	#
.L600:
	.loc 1 2289 0
	movzbl	(%rbx), %eax	# *s_378, D.28896
	cmpb	$117, %al	#, D.28896
	jne	.L602	#,
	.loc 1 2290 0
	movl	PL_nexttoke(%rip), %eax	# PL_nexttoke, PL_nexttoke.580
	cltq
	movl	$120, PL_nextval(,%rax,8)	#, PL_nextval[PL_nexttoke.580_426].ival
	jmp	.L601	#
.L602:
	.loc 1 2291 0
	movzbl	(%rbx), %eax	# *s_378, D.28896
	cmpb	$76, %al	#, D.28896
	jne	.L603	#,
	.loc 1 2292 0
	movl	PL_nexttoke(%rip), %eax	# PL_nexttoke, PL_nexttoke.581
	cltq
	movl	$123, PL_nextval(,%rax,8)	#, PL_nextval[PL_nexttoke.581_428].ival
	jmp	.L601	#
.L603:
	.loc 1 2293 0
	movzbl	(%rbx), %eax	# *s_378, D.28896
	cmpb	$85, %al	#, D.28896
	jne	.L604	#,
	.loc 1 2294 0
	movl	PL_nexttoke(%rip), %eax	# PL_nexttoke, PL_nexttoke.582
	cltq
	movl	$122, PL_nextval(,%rax,8)	#, PL_nextval[PL_nexttoke.582_430].ival
	jmp	.L601	#
.L604:
	.loc 1 2295 0
	movzbl	(%rbx), %eax	# *s_378, D.28896
	cmpb	$81, %al	#, D.28896
	jne	.L605	#,
	.loc 1 2296 0
	movl	PL_nexttoke(%rip), %eax	# PL_nexttoke, PL_nexttoke.583
	cltq
	movl	$124, PL_nextval(,%rax,8)	#, PL_nextval[PL_nexttoke.583_432].ival
	jmp	.L601	#
.L605:
	.loc 1 2298 0
	movl	$.LC50, %edi	#,
	movl	$0, %eax	#,
	call	Perl_croak	#
.L601:
	.loc 1 2299 0
	leaq	1(%rbx), %rax	#, PL_bufptr.584
	movq	%rax, PL_bufptr(%rip)	# PL_bufptr.584, PL_bufptr
	.loc 1 2301 0
	movl	$284, %edi	#,
	call	S_force_next	#
	.loc 1 2302 0
	movl	PL_lex_starts(%rip), %eax	# PL_lex_starts, PL_lex_starts.585
	testl	%eax, %eax	# PL_lex_starts.585
	je	.L606	#,
	.loc 1 2303 0
	movq	PL_bufptr(%rip), %rbx	# PL_bufptr, s
	.loc 1 2304 0
	movl	$0, PL_lex_starts(%rip)	#, PL_lex_starts
	.loc 1 2305 0
	movl	$66, PL_yylval(%rip)	#, PL_yylval.ival
	movl	$1, PL_expect(%rip)	#, PL_expect
	movq	%rbx, PL_bufptr(%rip)	# s, PL_bufptr
	movl	$290, %edi	#,
	call	S_ao	#
	jmp	.L2138	#
.L606:
	.loc 1 2308 0
	call	Perl_yylex	#
	jmp	.L2138	#
.L584:
	.loc 1 2312 0
	call	S_sublex_push	#
	jmp	.L2138	#
.L583:
	.loc 1 2315 0
	movq	PL_bufptr(%rip), %rdx	# PL_bufptr, PL_bufptr.586
	movq	PL_bufend(%rip), %rax	# PL_bufend, PL_bufend.587
	cmpq	%rax, %rdx	# PL_bufend.587, PL_bufptr.586
	jne	.L607	#,
	.loc 1 2316 0
	call	S_sublex_done	#
	jmp	.L2138	#
.L607:
	.loc 1 2319 0
	movl	$1, PL_expect(%rip)	#, PL_expect
	.loc 1 2320 0
	movq	PL_bufptr(%rip), %rax	# PL_bufptr, PL_bufptr.588
	movzbl	(%rax), %eax	# *PL_bufptr.588_464, D.28896
	cmpb	$64, %al	#, D.28896
	sete	%al	#, D.28899
	movzbl	%al, %eax	# D.28899, PL_lex_dojoin.589
	movl	%eax, PL_lex_dojoin(%rip)	# PL_lex_dojoin.589, PL_lex_dojoin
	.loc 1 2321 0
	movl	$9, PL_lex_state(%rip)	#, PL_lex_state
	.loc 1 2322 0
	movl	PL_lex_dojoin(%rip), %eax	# PL_lex_dojoin, PL_lex_dojoin.590
	testl	%eax, %eax	# PL_lex_dojoin.590
	je	.L608	#,
	.loc 1 2323 0
	movl	PL_nexttoke(%rip), %eax	# PL_nexttoke, PL_nexttoke.591
	cltq
	movl	$0, PL_nextval(,%rax,8)	#, PL_nextval[PL_nexttoke.591_469].ival
	.loc 1 2324 0
	movl	$44, %edi	#,
	call	S_force_next	#
	.loc 1 2330 0
	movl	$36, %esi	#,
	movl	$.LC51, %edi	#,
	call	S_force_ident	#
	.loc 1 2332 0
	movl	PL_nexttoke(%rip), %eax	# PL_nexttoke, PL_nexttoke.592
	cltq
	movl	$0, PL_nextval(,%rax,8)	#, PL_nextval[PL_nexttoke.592_470].ival
	.loc 1 2333 0
	movl	$36, %edi	#,
	call	S_force_next	#
	.loc 1 2334 0
	movl	PL_nexttoke(%rip), %eax	# PL_nexttoke, PL_nexttoke.593
	cltq
	movl	$0, PL_nextval(,%rax,8)	#, PL_nextval[PL_nexttoke.593_471].ival
	.loc 1 2335 0
	movl	$40, %edi	#,
	call	S_force_next	#
	.loc 1 2336 0
	movl	PL_nexttoke(%rip), %eax	# PL_nexttoke, PL_nexttoke.594
	cltq
	movl	$140, PL_nextval(,%rax,8)	#, PL_nextval[PL_nexttoke.594_472].ival
	.loc 1 2337 0
	movl	$284, %edi	#,
	call	S_force_next	#
.L608:
	.loc 1 2339 0
	movl	PL_lex_starts(%rip), %eax	# PL_lex_starts, PL_lex_starts.595
	leal	1(%rax), %edx	#, PL_lex_starts.597
	movl	%edx, PL_lex_starts(%rip)	# PL_lex_starts.597, PL_lex_starts
	testl	%eax, %eax	# PL_lex_starts.596
	je	.L609	#,
	.loc 1 2340 0
	movq	PL_bufptr(%rip), %rbx	# PL_bufptr, s
	.loc 1 2341 0
	movl	$66, PL_yylval(%rip)	#, PL_yylval.ival
	movl	$1, PL_expect(%rip)	#, PL_expect
	movq	%rbx, PL_bufptr(%rip)	# s, PL_bufptr
	movl	$290, %edi	#,
	call	S_ao	#
	jmp	.L2138	#
.L609:
	.loc 1 2343 0
	call	Perl_yylex	#
	jmp	.L2138	#
.L581:
	.loc 1 2346 0
	movq	PL_bufptr(%rip), %rax	# PL_bufptr, PL_bufptr.598
	movq	%rax, %rdi	# PL_bufptr.598,
	call	S_intuit_more	#
	testl	%eax, %eax	# D.28894
	je	.L582	#,
	.loc 1 2347 0
	movl	$9, PL_lex_state(%rip)	#, PL_lex_state
	.loc 1 2348 0
	jmp	.L576	#
.L582:
	.loc 1 2353 0
	movl	PL_lex_dojoin(%rip), %eax	# PL_lex_dojoin, PL_lex_dojoin.599
	testl	%eax, %eax	# PL_lex_dojoin.599
	je	.L610	#,
	.loc 1 2354 0
	movl	$0, PL_lex_dojoin(%rip)	#, PL_lex_dojoin
	.loc 1 2355 0
	movl	$3, PL_lex_state(%rip)	#, PL_lex_state
	.loc 1 2356 0
	movl	$41, %eax	#, D.28894
	jmp	.L2138	#
.L610:
	.loc 1 2358 0
	movl	PL_lex_inwhat(%rip), %eax	# PL_lex_inwhat, PL_lex_inwhat.600
	cmpl	$33, %eax	#, PL_lex_inwhat.600
	jne	.L580	#,
	.loc 1 2358 0 is_stmt 0 discriminator 1
	movq	PL_linestr(%rip), %rdx	# PL_linestr, PL_linestr.601
	movq	PL_lex_repl(%rip), %rax	# PL_lex_repl, PL_lex_repl.602
	cmpq	%rax, %rdx	# PL_lex_repl.602, PL_linestr.601
	jne	.L580	#,
	.loc 1 2359 0 is_stmt 1
	movq	PL_lex_repl(%rip), %rax	# PL_lex_repl, PL_lex_repl.603
	movl	12(%rax), %eax	# PL_lex_repl.603_486->sv_flags, D.28900
	andl	$1073741824, %eax	#, D.28900
	testl	%eax, %eax	# D.28900
	je	.L580	#,
	.loc 1 2361 0
	movq	PL_bufptr(%rip), %rdx	# PL_bufptr, PL_bufptr.604
	movq	PL_bufend(%rip), %rax	# PL_bufend, PL_bufend.605
	cmpq	%rax, %rdx	# PL_bufend.605, PL_bufptr.604
	je	.L611	#,
	.loc 1 2362 0
	movl	$.LC52, %edi	#,
	movl	$0, %eax	#,
	call	Perl_croak	#
.L611:
	.loc 1 2363 0
	movq	$0, PL_lex_repl(%rip)	#, PL_lex_repl
.L580:
	.loc 1 2371 0
	movq	PL_bufptr(%rip), %rdx	# PL_bufptr, PL_bufptr.606
	movq	PL_bufend(%rip), %rax	# PL_bufend, PL_bufend.607
	cmpq	%rax, %rdx	# PL_bufend.607, PL_bufptr.606
	jne	.L612	#,
	.loc 1 2372 0
	call	S_sublex_done	#
	jmp	.L2138	#
.L612:
	.loc 1 2374 0
	movq	PL_linestr(%rip), %rax	# PL_linestr, PL_linestr.608
	movq	(%rax), %rax	# PL_linestr.608_494->sv_any, D.28901
	movq	24(%rax), %rax	# MEM[(struct XPVIV *)_495].xiv_iv, D.28902
	cmpq	$39, %rax	#, D.28902
	jne	.L613	#,
.LBB38:
	.loc 1 2375 0
	movq	PL_linestr(%rip), %rax	# PL_linestr, PL_linestr.609
	movq	%rax, %rdi	# PL_linestr.609,
	call	Perl_newSVsv	#
	movq	%rax, -1352(%rbp)	# tmp3345, sv
	.loc 1 2376 0
	movq	PL_lex_inpat(%rip), %rax	# PL_lex_inpat, PL_lex_inpat.610
	testq	%rax, %rax	# PL_lex_inpat.610
	jne	.L614	#,
	.loc 1 2377 0
	movq	-1352(%rbp), %rax	# sv, tmp3346
	movq	%rax, %rdi	# tmp3346,
	call	S_tokeq	#
	movq	%rax, -1352(%rbp)	# tmp3347, sv
	jmp	.L615	#
.L614:
	.loc 1 2378 0
	movl	PL_hints(%rip), %eax	# PL_hints, PL_hints.611
	andl	$65536, %eax	#, D.28900
	testl	%eax, %eax	# D.28900
	je	.L615	#,
	.loc 1 2379 0
	movq	-1352(%rbp), %rdx	# sv, tmp3348
	movq	-1352(%rbp), %rax	# sv, tmp3349
	movl	$.LC16, %r9d	#,
	movq	%rdx, %r8	# tmp3348,
	movq	%rax, %rcx	# tmp3349,
	movl	$.LC36, %edx	#,
	movl	$0, %esi	#,
	movl	$0, %edi	#,
	call	S_new_constant	#
	movq	%rax, -1352(%rbp)	# tmp3350, sv
.L615:
	.loc 1 2380 0 discriminator 1
	movq	-1352(%rbp), %rax	# sv, tmp3351
	movq	%rax, %rdx	# tmp3351,
	movl	$0, %esi	#,
	movl	$5, %edi	#,
	call	Perl_newSVOP	#
	movq	%rax, PL_yylval(%rip)	# D.28903, PL_yylval.opval
	.loc 1 2381 0 discriminator 1
	movq	PL_bufend(%rip), %rbx	# PL_bufend, s
.LBE38:
	jmp	.L616	#
.L613:
	.loc 1 2384 0
	movq	PL_bufptr(%rip), %rax	# PL_bufptr, PL_bufptr.612
	movq	%rax, %rdi	# PL_bufptr.612,
	call	S_scan_const	#
	movq	%rax, %rbx	#, s
	.loc 1 2385 0
	movzbl	(%rbx), %eax	# *s_507, D.28896
	cmpb	$92, %al	#, D.28896
	jne	.L617	#,
	.loc 1 2386 0
	movl	$8, PL_lex_state(%rip)	#, PL_lex_state
	jmp	.L616	#
.L617:
	.loc 1 2388 0
	movl	$6, PL_lex_state(%rip)	#, PL_lex_state
.L616:
	.loc 1 2391 0
	movq	PL_bufptr(%rip), %rax	# PL_bufptr, PL_bufptr.613
	cmpq	%rax, %rbx	# PL_bufptr.613, s
	je	.L618	#,
	.loc 1 2392 0
	movl	PL_nexttoke(%rip), %eax	# PL_nexttoke, PL_nexttoke.614
	cltq
	movq	PL_yylval(%rip), %rdx	# PL_yylval, tmp3353
	movq	%rdx, PL_nextval(,%rax,8)	# tmp3353, PL_nextval
	.loc 1 2393 0
	movl	$1, PL_expect(%rip)	#, PL_expect
	.loc 1 2394 0
	movl	$260, %edi	#,
	call	S_force_next	#
	.loc 1 2395 0
	movl	PL_lex_starts(%rip), %eax	# PL_lex_starts, PL_lex_starts.615
	leal	1(%rax), %edx	#, PL_lex_starts.617
	movl	%edx, PL_lex_starts(%rip)	# PL_lex_starts.617, PL_lex_starts
	testl	%eax, %eax	# PL_lex_starts.616
	je	.L619	#,
	.loc 1 2396 0
	movl	$66, PL_yylval(%rip)	#, PL_yylval.ival
	movl	$1, PL_expect(%rip)	#, PL_expect
	movq	%rbx, PL_bufptr(%rip)	# s, PL_bufptr
	movl	$290, %edi	#,
	call	S_ao	#
	jmp	.L2138	#
.L619:
	.loc 1 2398 0
	movq	%rbx, PL_bufptr(%rip)	# s, PL_bufptr
	.loc 1 2399 0
	call	Perl_yylex	#
	jmp	.L2138	#
.L618:
	.loc 1 2403 0
	call	Perl_yylex	#
	jmp	.L2138	#
.L579:
	.loc 1 2405 0
	movl	$10, PL_lex_state(%rip)	#, PL_lex_state
	.loc 1 2406 0
	movq	PL_bufptr(%rip), %rax	# PL_bufptr, PL_bufptr.618
	movq	%rax, %rdi	# PL_bufptr.618,
	call	S_scan_formline	#
	movq	%rax, %rbx	#, s
	.loc 1 2407 0
	movl	PL_lex_formbrack(%rip), %eax	# PL_lex_formbrack, PL_lex_formbrack.619
	testl	%eax, %eax	# PL_lex_formbrack.619
	jne	.L620	#,
	.loc 1 2408 0
	jmp	.L621	#
.L620:
	.loc 1 2409 0
	movl	$1, PL_expect(%rip)	#, PL_expect
	movq	%rbx, PL_bufptr(%rip)	# s, PL_bufptr
	movl	$59, %eax	#, D.28894
	jmp	.L2138	#
.L576:
	.loc 1 2412 0
	movq	PL_bufptr(%rip), %rbx	# PL_bufptr, s
	.loc 1 2413 0
	movq	PL_oldbufptr(%rip), %rax	# PL_oldbufptr, PL_oldbufptr.620
	movq	%rax, PL_oldoldbufptr(%rip)	# PL_oldbufptr.620, PL_oldoldbufptr
	.loc 1 2414 0
	movq	%rbx, PL_oldbufptr(%rip)	# s, PL_oldbufptr
.L622:
	.loc 1 2421 0
	movzbl	(%rbx), %eax	# *s_2, D.28896
	movsbl	%al, %eax	# D.28896, D.28894
	cmpl	$126, %eax	#, D.28894
	ja	.L623	#,
	movl	%eax, %eax	# D.28894, tmp3354
	movq	.L625(,%rax,8), %rax	#, tmp3355
	jmp	*%rax	# tmp3355
	.section	.rodata
	.align 8
	.align 4
.L625:
	.quad	.L624
	.quad	.L623
	.quad	.L623
	.quad	.L623
	.quad	.L2141
	.quad	.L623
	.quad	.L623
	.quad	.L623
	.quad	.L623
	.quad	.L627
	.quad	.L628
	.quad	.L627
	.quad	.L627
	.quad	.L627
	.quad	.L623
	.quad	.L623
	.quad	.L623
	.quad	.L623
	.quad	.L623
	.quad	.L623
	.quad	.L623
	.quad	.L623
	.quad	.L623
	.quad	.L623
	.quad	.L623
	.quad	.L623
	.quad	.L2141
	.quad	.L623
	.quad	.L623
	.quad	.L623
	.quad	.L623
	.quad	.L623
	.quad	.L627
	.quad	.L629
	.quad	.L630
	.quad	.L628
	.quad	.L631
	.quad	.L632
	.quad	.L633
	.quad	.L634
	.quad	.L635
	.quad	.L636
	.quad	.L637
	.quad	.L638
	.quad	.L639
	.quad	.L640
	.quad	.L641
	.quad	.L642
	.quad	.L643
	.quad	.L643
	.quad	.L643
	.quad	.L643
	.quad	.L643
	.quad	.L643
	.quad	.L643
	.quad	.L643
	.quad	.L643
	.quad	.L643
	.quad	.L644
	.quad	.L645
	.quad	.L646
	.quad	.L647
	.quad	.L648
	.quad	.L642
	.quad	.L649
	.quad	.L650
	.quad	.L650
	.quad	.L650
	.quad	.L650
	.quad	.L650
	.quad	.L650
	.quad	.L650
	.quad	.L650
	.quad	.L650
	.quad	.L650
	.quad	.L650
	.quad	.L650
	.quad	.L650
	.quad	.L650
	.quad	.L650
	.quad	.L650
	.quad	.L650
	.quad	.L650
	.quad	.L650
	.quad	.L650
	.quad	.L650
	.quad	.L650
	.quad	.L650
	.quad	.L650
	.quad	.L650
	.quad	.L650
	.quad	.L651
	.quad	.L652
	.quad	.L653
	.quad	.L654
	.quad	.L650
	.quad	.L655
	.quad	.L650
	.quad	.L650
	.quad	.L650
	.quad	.L650
	.quad	.L650
	.quad	.L650
	.quad	.L650
	.quad	.L650
	.quad	.L650
	.quad	.L650
	.quad	.L650
	.quad	.L650
	.quad	.L650
	.quad	.L650
	.quad	.L650
	.quad	.L650
	.quad	.L650
	.quad	.L650
	.quad	.L650
	.quad	.L650
	.quad	.L650
	.quad	.L656
	.quad	.L650
	.quad	.L657
	.quad	.L650
	.quad	.L650
	.quad	.L658
	.quad	.L659
	.quad	.L621
	.quad	.L639
	.text
.L623:
	.loc 1 2423 0
	movq	PL_curcop(%rip), %rax	# PL_curcop, PL_curcop.622
	movzbl	37(%rax), %eax	# PL_curcop.622_525->op_private, D.28904
	movzbl	%al, %eax	# D.28904, D.28894
	andl	$8, %eax	#, D.28894
	testl	%eax, %eax	# D.28894
	jne	.L660	#,
	.loc 1 2423 0 is_stmt 0 discriminator 2
	movq	PL_linestr(%rip), %rax	# PL_linestr, PL_linestr.623
	testq	%rax, %rax	# PL_linestr.623
	je	.L661	#,
	movq	PL_linestr(%rip), %rax	# PL_linestr, PL_linestr.624
	movl	12(%rax), %eax	# PL_linestr.624_530->sv_flags, D.28900
	andl	$536870912, %eax	#, D.28900
	testl	%eax, %eax	# D.28900
	je	.L661	#,
	.loc 1 2423 0 discriminator 1
	movq	PL_curcop(%rip), %rax	# PL_curcop, PL_curcop.625
	movzbl	37(%rax), %eax	# PL_curcop.625_533->op_private, D.28904
	movzbl	%al, %eax	# D.28904, D.28894
	andl	$8, %eax	#, D.28894
	testl	%eax, %eax	# D.28894
	je	.L662	#,
.L661:
	movl	PL_hints(%rip), %eax	# PL_hints, PL_hints.626
	andl	$8388608, %eax	#, D.28900
	testl	%eax, %eax	# D.28900
	je	.L660	#,
.L662:
	movzbl	(%rbx), %eax	# MEM[(U8 *)s_2], D.28904
	cmpb	$-65, %al	#, D.28904
	ja	.L663	#,
.L660:
	movzbl	(%rbx), %eax	# *s_2, D.28896
	cmpb	$64, %al	#, D.28896
	jle	.L664	#,
	movzbl	(%rbx), %eax	# *s_2, D.28896
	cmpb	$90, %al	#, D.28896
	jle	.L665	#,
.L664:
	.loc 1 2423 0 discriminator 2
	movzbl	(%rbx), %eax	# *s_2, D.28896
	cmpb	$96, %al	#, D.28896
	jle	.L666	#,
	.loc 1 2423 0 discriminator 1
	movzbl	(%rbx), %eax	# *s_2, D.28896
	cmpb	$122, %al	#, D.28896
	jle	.L665	#,
.L666:
	.loc 1 2423 0 discriminator 2
	movzbl	(%rbx), %eax	# *s_2, D.28896
	cmpb	$95, %al	#, D.28896
	jne	.L667	#,
.L665:
	.loc 1 2423 0 discriminator 1
	movl	$1, %eax	#, iftmp.627
	jmp	.L668	#
.L667:
	.loc 1 2423 0 discriminator 3
	movl	$0, %eax	#, iftmp.627
.L668:
	.loc 1 2423 0 discriminator 4
	andl	$1, %eax	#, iftmp.621
	jmp	.L669	#
.L663:
	.loc 1 2423 0 discriminator 1
	movq	%rbx, %rdi	# s,
	call	Perl_is_utf8_idcont	#
	testb	%al, %al	# D.28896
	je	.L670	#,
	movq	%rbx, %rdi	# s,
	call	Perl_is_utf8_digit	#
	testb	%al, %al	# D.28896
	jne	.L670	#,
	.loc 1 2423 0 discriminator 3
	movl	$1, %eax	#, iftmp.628
	jmp	.L671	#
.L670:
	.loc 1 2423 0 discriminator 2
	movl	$0, %eax	#, iftmp.628
.L671:
	.loc 1 2423 0 discriminator 4
	andl	$1, %eax	#, iftmp.621
.L669:
	.loc 1 2423 0 discriminator 3
	testb	%al, %al	# iftmp.621
	je	.L672	#,
	.loc 1 2424 0 is_stmt 1
	jmp	.L650	#
.L672:
	.loc 1 2425 0
	movzbl	(%rbx), %eax	# *s_2, D.28896
	movsbl	%al, %eax	# D.28896, D.28894
	movzbl	%al, %eax	# D.28894, D.28894
	movl	%eax, %esi	# D.28894,
	movl	$.LC53, %edi	#,
	movl	$0, %eax	#,
	call	Perl_croak	#
	.loc 1 2428 0
	jmp	.L2141	#
.L624:
	.loc 1 2430 0
	movq	PL_rsfp(%rip), %rax	# PL_rsfp, PL_rsfp.629
	testq	%rax, %rax	# PL_rsfp.629
	jne	.L674	#,
	.loc 1 2431 0
	movq	$0, PL_last_uni(%rip)	#, PL_last_uni
	.loc 1 2432 0
	movq	$0, PL_last_lop(%rip)	#, PL_last_lop
	.loc 1 2433 0
	movl	PL_lex_brackets(%rip), %eax	# PL_lex_brackets, PL_lex_brackets.630
	testl	%eax, %eax	# PL_lex_brackets.630
	je	.L675	#,
	.loc 1 2434 0
	movl	PL_lex_formbrack(%rip), %eax	# PL_lex_formbrack, PL_lex_formbrack.631
	testl	%eax, %eax	# PL_lex_formbrack.631
	je	.L676	#,
	.loc 1 2435 0
	movl	$.LC54, %edi	#,
	call	Perl_yyerror	#
	jmp	.L675	#
.L676:
	.loc 1 2437 0
	movl	$.LC55, %edi	#,
	call	Perl_yyerror	#
.L675:
	.loc 1 2442 0
	movq	%rbx, PL_bufptr(%rip)	# s, PL_bufptr
	movl	$0, %eax	#, D.28894
	jmp	.L2138	#
.L674:
	.loc 1 2444 0
	movq	%rbx, %rax	# s, s.632
	leaq	1(%rax), %rbx	#, s
	movq	PL_bufend(%rip), %rdx	# PL_bufend, PL_bufend.633
	cmpq	%rdx, %rax	# PL_bufend.633, s.632
	jae	.L677	#,
	.loc 1 2445 0
	jmp	.L622	#
.L677:
	.loc 1 2446 0
	movq	$0, PL_last_uni(%rip)	#, PL_last_uni
	.loc 1 2447 0
	movq	$0, PL_last_lop(%rip)	#, PL_last_lop
	.loc 1 2448 0
	movl	PL_in_eval(%rip), %eax	# PL_in_eval, PL_in_eval.634
	testl	%eax, %eax	# PL_in_eval.634
	jne	.L678	#,
	.loc 1 2448 0 is_stmt 0 discriminator 1
	movzbl	PL_preambled(%rip), %eax	# PL_preambled, PL_preambled.635
	testb	%al, %al	# PL_preambled.635
	jne	.L678	#,
	.loc 1 2449 0 is_stmt 1
	movb	$1, PL_preambled(%rip)	#, PL_preambled
	.loc 1 2450 0
	call	S_incl_perldb	#
	movq	%rax, %rdx	#, D.28895
	movq	PL_linestr(%rip), %rax	# PL_linestr, PL_linestr.636
	movq	%rdx, %rsi	# D.28895,
	movq	%rax, %rdi	# PL_linestr.636,
	call	Perl_sv_setpv	#
	.loc 1 2451 0
	movq	PL_linestr(%rip), %rax	# PL_linestr, PL_linestr.637
	movq	(%rax), %rax	# PL_linestr.637_567->sv_any, D.28901
	movq	8(%rax), %rax	# MEM[(struct XPV *)_568].xpv_cur, D.28898
	testq	%rax, %rax	# D.28898
	je	.L679	#,
	.loc 1 2452 0
	movq	PL_linestr(%rip), %rax	# PL_linestr, PL_linestr.638
	movl	$2, %ecx	#,
	movl	$1, %edx	#,
	movl	$.LC11, %esi	#,
	movq	%rax, %rdi	# PL_linestr.638,
	call	Perl_sv_catpvn_flags	#
.L679:
	.loc 1 2453 0
	movq	PL_preambleav(%rip), %rax	# PL_preambleav, PL_preambleav.639
	testq	%rax, %rax	# PL_preambleav.639
	je	.L680	#,
	.loc 1 2454 0
	jmp	.L681	#
.L682:
.LBB39:
	.loc 1 2455 0
	movq	PL_preambleav(%rip), %rax	# PL_preambleav, PL_preambleav.640
	movq	%rax, %rdi	# PL_preambleav.640,
	call	Perl_av_shift	#
	movq	%rax, -1192(%rbp)	# tmp3356, tmpsv
	.loc 1 2456 0
	movq	PL_linestr(%rip), %rax	# PL_linestr, PL_linestr.641
	movq	-1192(%rbp), %rcx	# tmpsv, tmp3357
	movl	$2, %edx	#,
	movq	%rcx, %rsi	# tmp3357,
	movq	%rax, %rdi	# PL_linestr.641,
	call	Perl_sv_catsv_flags	#
	.loc 1 2457 0
	movq	PL_linestr(%rip), %rax	# PL_linestr, PL_linestr.642
	movl	$2, %ecx	#,
	movl	$1, %edx	#,
	movl	$.LC11, %esi	#,
	movq	%rax, %rdi	# PL_linestr.642,
	call	Perl_sv_catpvn_flags	#
	.loc 1 2458 0
	movq	-1192(%rbp), %rax	# tmpsv, tmp3358
	movq	%rax, %rdi	# tmp3358,
	call	Perl_sv_free	#
.L681:
.LBE39:
	.loc 1 2454 0 discriminator 1
	movq	PL_preambleav(%rip), %rax	# PL_preambleav, PL_preambleav.643
	movq	(%rax), %rax	# PL_preambleav.643_572->sv_any, D.28905
	movq	8(%rax), %rax	# _573->xav_fill, D.28902
	testq	%rax, %rax	# D.28902
	jns	.L682	#,
	.loc 1 2460 0
	movq	PL_preambleav(%rip), %rax	# PL_preambleav, PL_preambleav.644
	movq	%rax, %rdi	# PL_preambleav.644,
	call	Perl_sv_free	#
	.loc 1 2461 0
	movq	$0, PL_preambleav(%rip)	#, PL_preambleav
.L680:
	.loc 1 2463 0
	movzbl	PL_minus_n(%rip), %eax	# PL_minus_n, PL_minus_n.645
	testb	%al, %al	# PL_minus_n.645
	jne	.L683	#,
	.loc 1 2463 0 is_stmt 0 discriminator 1
	movzbl	PL_minus_p(%rip), %eax	# PL_minus_p, PL_minus_p.646
	testb	%al, %al	# PL_minus_p.646
	je	.L684	#,
.L683:
	.loc 1 2464 0 is_stmt 1
	movq	PL_linestr(%rip), %rax	# PL_linestr, PL_linestr.647
	movl	$.LC56, %esi	#,
	movq	%rax, %rdi	# PL_linestr.647,
	call	Perl_sv_catpv	#
	.loc 1 2465 0
	movzbl	PL_minus_l(%rip), %eax	# PL_minus_l, PL_minus_l.648
	testb	%al, %al	# PL_minus_l.648
	je	.L685	#,
	.loc 1 2466 0
	movq	PL_linestr(%rip), %rax	# PL_linestr, PL_linestr.649
	movl	$.LC57, %esi	#,
	movq	%rax, %rdi	# PL_linestr.649,
	call	Perl_sv_catpv	#
.L685:
	.loc 1 2467 0
	movzbl	PL_minus_a(%rip), %eax	# PL_minus_a, PL_minus_a.650
	testb	%al, %al	# PL_minus_a.650
	je	.L684	#,
	.loc 1 2468 0
	movzbl	PL_minus_F(%rip), %eax	# PL_minus_F, PL_minus_F.651
	testb	%al, %al	# PL_minus_F.651
	je	.L686	#,
	.loc 1 2469 0
	movq	PL_splitstr(%rip), %rax	# PL_splitstr, PL_splitstr.652
	movzbl	(%rax), %eax	# *PL_splitstr.652_587, D.28896
	cmpb	$47, %al	#, D.28896
	je	.L687	#,
	.loc 1 2469 0 is_stmt 0 discriminator 1
	movq	PL_splitstr(%rip), %rax	# PL_splitstr, PL_splitstr.653
	movzbl	(%rax), %eax	# *PL_splitstr.653_589, D.28896
	cmpb	$39, %al	#, D.28896
	je	.L687	#,
	.loc 1 2470 0 is_stmt 1
	movq	PL_splitstr(%rip), %rax	# PL_splitstr, PL_splitstr.654
	movzbl	(%rax), %eax	# *PL_splitstr.654_591, D.28896
	cmpb	$34, %al	#, D.28896
	jne	.L688	#,
.L687:
	.loc 1 2471 0
	movq	PL_splitstr(%rip), %rax	# PL_splitstr, PL_splitstr.655
	movzbl	(%rax), %eax	# *PL_splitstr.655_593, D.28896
	movsbl	%al, %eax	# D.28896, D.28894
	movq	PL_splitstr(%rip), %rdx	# PL_splitstr, PL_splitstr.656
	addq	$1, %rdx	#, D.28906
	movl	%eax, %esi	# D.28894,
	movq	%rdx, %rdi	# D.28906,
	call	strchr	#
	testq	%rax, %rax	# D.28895
	je	.L688	#,
	.loc 1 2472 0
	movq	PL_splitstr(%rip), %rdx	# PL_splitstr, PL_splitstr.657
	movq	PL_linestr(%rip), %rax	# PL_linestr, PL_linestr.658
	movl	$.LC58, %esi	#,
	movq	%rax, %rdi	# PL_linestr.658,
	movl	$0, %eax	#,
	call	Perl_sv_catpvf	#
	jmp	.L684	#
.L688:
	.loc 1 2479 0
	movq	PL_linestr(%rip), %rax	# PL_linestr, PL_linestr.659
	movl	$2, %ecx	#,
	movl	$15, %edx	#,
	movl	$.LC59, %esi	#,
	movq	%rax, %rdi	# PL_linestr.659,
	call	Perl_sv_catpvn_flags	#
	.loc 1 2480 0
	movq	PL_splitstr(%rip), %rbx	# PL_splitstr, s
.L691:
	.loc 1 2483 0
	movzbl	(%rbx), %eax	# *s_3, D.28896
	cmpb	$92, %al	#, D.28896
	jne	.L690	#,
	.loc 1 2484 0
	movq	PL_linestr(%rip), %rax	# PL_linestr, PL_linestr.660
	movl	$2, %ecx	#,
	movl	$1, %edx	#,
	movq	%rbx, %rsi	# s,
	movq	%rax, %rdi	# PL_linestr.660,
	call	Perl_sv_catpvn_flags	#
.L690:
	.loc 1 2485 0
	movq	PL_linestr(%rip), %rax	# PL_linestr, PL_linestr.661
	movl	$2, %ecx	#,
	movl	$1, %edx	#,
	movq	%rbx, %rsi	# s,
	movq	%rax, %rdi	# PL_linestr.661,
	call	Perl_sv_catpvn_flags	#
	.loc 1 2486 0
	movq	%rbx, %rax	# s, s.662
	leaq	1(%rax), %rbx	#, s
	movzbl	(%rax), %eax	# *s.662_606, D.28896
	testb	%al, %al	# D.28896
	jne	.L691	#,
	.loc 1 2490 0
	movq	PL_linestr(%rip), %rax	# PL_linestr, PL_linestr.663
	movl	$2, %ecx	#,
	movl	$2, %edx	#,
	movl	$.LC60, %esi	#,
	movq	%rax, %rdi	# PL_linestr.663,
	call	Perl_sv_catpvn_flags	#
	jmp	.L684	#
.L686:
	.loc 1 2494 0
	movq	PL_linestr(%rip), %rax	# PL_linestr, PL_linestr.664
	movl	$.LC61, %esi	#,
	movq	%rax, %rdi	# PL_linestr.664,
	call	Perl_sv_catpv	#
.L684:
	.loc 1 2497 0
	movq	PL_linestr(%rip), %rax	# PL_linestr, PL_linestr.665
	movl	$2, %ecx	#,
	movl	$1, %edx	#,
	movl	$.LC62, %esi	#,
	movq	%rax, %rdi	# PL_linestr.665,
	call	Perl_sv_catpvn_flags	#
	.loc 1 2498 0
	movq	PL_linestr(%rip), %rax	# PL_linestr, PL_linestr.666
	movq	(%rax), %rax	# PL_linestr.666_612->sv_any, D.28901
	movq	(%rax), %rax	# MEM[(struct XPV *)_613].xpv_pv, PL_linestart.667
	movq	%rax, PL_linestart(%rip)	# PL_linestart.667, PL_linestart
	movq	PL_linestart(%rip), %rbx	# PL_linestart, s
	movq	%rbx, PL_oldbufptr(%rip)	# s, PL_oldbufptr
	movq	PL_oldbufptr(%rip), %rax	# PL_oldbufptr, PL_oldbufptr.668
	movq	%rax, PL_oldoldbufptr(%rip)	# PL_oldbufptr.668, PL_oldoldbufptr
	.loc 1 2499 0
	movq	PL_linestr(%rip), %rax	# PL_linestr, PL_linestr.669
	movq	(%rax), %rax	# PL_linestr.669_617->sv_any, D.28901
	movq	(%rax), %rdx	# MEM[(struct XPV *)_618].xpv_pv, D.28895
	movq	PL_linestr(%rip), %rax	# PL_linestr, PL_linestr.670
	movq	(%rax), %rax	# PL_linestr.670_620->sv_any, D.28901
	movq	8(%rax), %rax	# MEM[(struct XPV *)_621].xpv_cur, D.28898
	addq	%rdx, %rax	# D.28895, PL_bufend.671
	movq	%rax, PL_bufend(%rip)	# PL_bufend.671, PL_bufend
	.loc 1 2500 0
	movq	$0, PL_last_uni(%rip)	#, PL_last_uni
	movq	PL_last_uni(%rip), %rax	# PL_last_uni, PL_last_uni.672
	movq	%rax, PL_last_lop(%rip)	# PL_last_uni.672, PL_last_lop
	.loc 1 2501 0
	movl	PL_perldb(%rip), %eax	# PL_perldb, PL_perldb.673
	testl	%eax, %eax	# PL_perldb.673
	je	.L692	#,
	.loc 1 2501 0 is_stmt 0 discriminator 1
	movl	PL_perldb(%rip), %eax	# PL_perldb, PL_perldb.674
	andl	$2, %eax	#, D.28900
	testl	%eax, %eax	# D.28900
	je	.L692	#,
	movq	PL_curstash(%rip), %rdx	# PL_curstash, PL_curstash.675
	movq	PL_debstash(%rip), %rax	# PL_debstash, PL_debstash.676
	cmpq	%rax, %rdx	# PL_debstash.676, PL_curstash.675
	je	.L692	#,
.LBB40:
	.loc 1 2502 0 is_stmt 1
	movl	$0, %edi	#,
	call	Perl_newSV	#
	movq	%rax, -1184(%rbp)	# tmp3359, sv
	.loc 1 2504 0
	movq	-1184(%rbp), %rax	# sv, tmp3360
	movl	$7, %esi	#,
	movq	%rax, %rdi	# tmp3360,
	call	Perl_sv_upgrade	#
	.loc 1 2505 0
	movq	PL_linestr(%rip), %rcx	# PL_linestr, PL_linestr.677
	movq	-1184(%rbp), %rax	# sv, tmp3361
	movl	$2, %edx	#,
	movq	%rcx, %rsi	# PL_linestr.677,
	movq	%rax, %rdi	# tmp3361,
	call	Perl_sv_setsv_flags	#
	.loc 1 2506 0
	movq	-1184(%rbp), %rax	# sv, tmp3362
	movl	12(%rax), %eax	# sv_630->sv_flags, D.28900
	andl	$2097152, %eax	#, D.28900
	testl	%eax, %eax	# D.28900
	je	.L694	#,
	.loc 1 2506 0 is_stmt 0 discriminator 1
	movq	-1184(%rbp), %rax	# sv, tmp3363
	movq	%rax, %rdi	# tmp3363,
	call	Perl_sv_backoff	#
	testl	%eax, %eax	# D.28894
	je	.L694	#,
	.loc 1 2506 0
	nop
.L694:
	.loc 1 2506 0 discriminator 3
	movq	-1184(%rbp), %rax	# sv, tmp3364
	movl	12(%rax), %eax	# sv_630->sv_flags, D.28900
	orl	$16842752, %eax	#, D.28900
	movl	%eax, %edx	# D.28900, D.28900
	movq	-1184(%rbp), %rax	# sv, tmp3365
	movl	%edx, 12(%rax)	# D.28900, sv_630->sv_flags
	.loc 1 2507 0 is_stmt 1 discriminator 3
	movq	-1184(%rbp), %rax	# sv, tmp3366
	movq	(%rax), %rax	# sv_630->sv_any, D.28901
	movq	$0, 24(%rax)	#, MEM[(struct XPVIV *)_639].xiv_iv
	.loc 1 2508 0 discriminator 3
	movq	PL_curcop(%rip), %rax	# PL_curcop, PL_curcop.679
	movl	72(%rax), %eax	# PL_curcop.679_640->cop_line, D.28900
	movl	%eax, %ecx	# D.28900, D.28894
	movq	PL_curcop(%rip), %rax	# PL_curcop, PL_curcop.681
	movq	56(%rax), %rax	# PL_curcop.681_643->cop_filegv, D.28907
	testq	%rax, %rax	# D.28907
	je	.L695	#,
	.loc 1 2508 0 is_stmt 0 discriminator 1
	movq	PL_curcop(%rip), %rax	# PL_curcop, PL_curcop.682
	movq	56(%rax), %rax	# PL_curcop.682_645->cop_filegv, D.28907
	movq	(%rax), %rax	# _646->sv_any, D.28908
	movq	56(%rax), %rax	# _647->xgv_gp, D.28909
	movq	32(%rax), %rax	# _648->gp_av, iftmp.680
	jmp	.L696	#
.L695:
	.loc 1 2508 0 discriminator 2
	movl	$0, %eax	#, iftmp.680
.L696:
	.loc 1 2508 0 discriminator 3
	movq	-1184(%rbp), %rdx	# sv, tmp3367
	movl	%ecx, %esi	# D.28894,
	movq	%rax, %rdi	# iftmp.680,
	call	Perl_av_store	#
.LBE40:
	.loc 1 2510 0 is_stmt 1 discriminator 3
	jmp	.L622	#
.L692:
	.loc 1 2510 0 is_stmt 0
	jmp	.L622	#
.L678:
	.loc 1 2513 0 is_stmt 1
	movq	PL_rsfp(%rip), %rax	# PL_rsfp, PL_rsfp.683
	testq	%rax, %rax	# PL_rsfp.683
	setne	%al	#, D.28899
	movb	%al, -1441(%rbp)	# D.28899, bof
	.loc 1 2514 0
	movq	PL_rsfp(%rip), %rcx	# PL_rsfp, PL_rsfp.684
	movq	PL_linestr(%rip), %rax	# PL_linestr, PL_linestr.685
	movl	$0, %edx	#,
	movq	%rcx, %rsi	# PL_rsfp.684,
	movq	%rax, %rdi	# PL_linestr.685,
	call	S_filter_gets	#
	movq	%rax, %rbx	#, s
	testq	%rbx, %rbx	# s
	jne	.L697	#,
	jmp	.L673	#
.L2141:
	.loc 1 2428 0
	nop
.L673:
	.loc 1 2516 0
	movq	PL_rsfp(%rip), %rax	# PL_rsfp, PL_rsfp.686
	testq	%rax, %rax	# PL_rsfp.686
	je	.L698	#,
	.loc 1 2517 0
	movzbl	PL_preprocess(%rip), %eax	# PL_preprocess, PL_preprocess.687
	testb	%al, %al	# PL_preprocess.687
	je	.L699	#,
	.loc 1 2517 0 is_stmt 0 discriminator 1
	movl	PL_in_eval(%rip), %eax	# PL_in_eval, PL_in_eval.688
	testl	%eax, %eax	# PL_in_eval.688
	jne	.L699	#,
	.loc 1 2518 0 is_stmt 1
	movq	PL_rsfp(%rip), %rax	# PL_rsfp, PL_rsfp.689
	movq	%rax, %rdi	# PL_rsfp.689,
	call	Perl_my_pclose	#
	jmp	.L700	#
.L699:
	.loc 1 2519 0
	call	Perl_PerlIO_stdin	#
	movq	PL_rsfp(%rip), %rdx	# PL_rsfp, PL_rsfp.690
	cmpq	%rdx, %rax	# PL_rsfp.690, D.28924
	jne	.L701	#,
	.loc 1 2520 0
	movq	PL_rsfp(%rip), %rax	# PL_rsfp, PL_rsfp.691
	movq	%rax, %rdi	# PL_rsfp.691,
	call	Perl_PerlIO_clearerr	#
	jmp	.L700	#
.L701:
	.loc 1 2522 0
	movq	PL_rsfp(%rip), %rax	# PL_rsfp, PL_rsfp.692
	movq	%rax, %rdi	# PL_rsfp.692,
	call	Perl_PerlIO_close	#
.L700:
	.loc 1 2523 0
	movq	$0, PL_rsfp(%rip)	#, PL_rsfp
	.loc 1 2524 0
	movb	$0, PL_doextract(%rip)	#, PL_doextract
.L698:
	.loc 1 2526 0
	movl	PL_in_eval(%rip), %eax	# PL_in_eval, PL_in_eval.693
	testl	%eax, %eax	# PL_in_eval.693
	jne	.L702	#,
	.loc 1 2526 0 is_stmt 0 discriminator 1
	movzbl	PL_minus_n(%rip), %eax	# PL_minus_n, PL_minus_n.694
	testb	%al, %al	# PL_minus_n.694
	jne	.L703	#,
	movzbl	PL_minus_p(%rip), %eax	# PL_minus_p, PL_minus_p.695
	testb	%al, %al	# PL_minus_p.695
	je	.L702	#,
.L703:
	.loc 1 2528 0 is_stmt 1
	movzbl	PL_minus_p(%rip), %eax	# PL_minus_p, PL_minus_p.697
	.loc 1 2527 0
	testb	%al, %al	# PL_minus_p.697
	je	.L704	#,
	.loc 1 2527 0 is_stmt 0 discriminator 1
	movl	$.LC63, %eax	#, iftmp.696
	jmp	.L705	#
.L704:
	.loc 1 2527 0 discriminator 2
	movl	$.LC10, %eax	#, iftmp.696
.L705:
	.loc 1 2527 0 discriminator 3
	movq	PL_linestr(%rip), %rdx	# PL_linestr, PL_linestr.698
	movq	%rax, %rsi	# iftmp.696,
	movq	%rdx, %rdi	# PL_linestr.698,
	call	Perl_sv_setpv	#
	.loc 1 2529 0 is_stmt 1 discriminator 3
	movq	PL_linestr(%rip), %rax	# PL_linestr, PL_linestr.699
	movq	(%rax), %rax	# PL_linestr.699_4216->sv_any, D.28901
	movq	(%rax), %rax	# MEM[(struct XPV *)_4217].xpv_pv, PL_linestart.700
	movq	%rax, PL_linestart(%rip)	# PL_linestart.700, PL_linestart
	movq	PL_linestart(%rip), %rbx	# PL_linestart, s
	movq	%rbx, PL_oldbufptr(%rip)	# s, PL_oldbufptr
	movq	PL_oldbufptr(%rip), %rax	# PL_oldbufptr, PL_oldbufptr.701
	movq	%rax, PL_oldoldbufptr(%rip)	# PL_oldbufptr.701, PL_oldoldbufptr
	.loc 1 2530 0 discriminator 3
	movq	PL_linestr(%rip), %rax	# PL_linestr, PL_linestr.702
	movq	(%rax), %rax	# PL_linestr.702_4221->sv_any, D.28901
	movq	(%rax), %rdx	# MEM[(struct XPV *)_4222].xpv_pv, D.28895
	movq	PL_linestr(%rip), %rax	# PL_linestr, PL_linestr.703
	movq	(%rax), %rax	# PL_linestr.703_4224->sv_any, D.28901
	movq	8(%rax), %rax	# MEM[(struct XPV *)_4225].xpv_cur, D.28898
	addq	%rdx, %rax	# D.28895, PL_bufend.704
	movq	%rax, PL_bufend(%rip)	# PL_bufend.704, PL_bufend
	.loc 1 2531 0 discriminator 3
	movq	$0, PL_last_uni(%rip)	#, PL_last_uni
	movq	PL_last_uni(%rip), %rax	# PL_last_uni, PL_last_uni.705
	movq	%rax, PL_last_lop(%rip)	# PL_last_uni.705, PL_last_lop
	.loc 1 2532 0 discriminator 3
	movb	$0, PL_minus_p(%rip)	#, PL_minus_p
	movzbl	PL_minus_p(%rip), %eax	# PL_minus_p, PL_minus_p.706
	movb	%al, PL_minus_n(%rip)	# PL_minus_p.706, PL_minus_n
	.loc 1 2533 0 discriminator 3
	jmp	.L622	#
.L702:
	.loc 1 2535 0
	movq	PL_linestr(%rip), %rax	# PL_linestr, PL_linestr.707
	movq	(%rax), %rax	# PL_linestr.707_4230->sv_any, D.28901
	movq	(%rax), %rax	# MEM[(struct XPV *)_4231].xpv_pv, PL_linestart.708
	movq	%rax, PL_linestart(%rip)	# PL_linestart.708, PL_linestart
	movq	PL_linestart(%rip), %rbx	# PL_linestart, s
	movq	%rbx, PL_oldbufptr(%rip)	# s, PL_oldbufptr
	movq	PL_oldbufptr(%rip), %rax	# PL_oldbufptr, PL_oldbufptr.709
	movq	%rax, PL_oldoldbufptr(%rip)	# PL_oldbufptr.709, PL_oldoldbufptr
	.loc 1 2536 0
	movq	$0, PL_last_uni(%rip)	#, PL_last_uni
	movq	PL_last_uni(%rip), %rax	# PL_last_uni, PL_last_uni.710
	movq	%rax, PL_last_lop(%rip)	# PL_last_uni.710, PL_last_lop
	.loc 1 2537 0
	movq	PL_linestr(%rip), %rax	# PL_linestr, PL_linestr.711
	movl	$.LC17, %esi	#,
	movq	%rax, %rdi	# PL_linestr.711,
	call	Perl_sv_setpv	#
	.loc 1 2538 0
	movq	%rbx, PL_bufptr(%rip)	# s, PL_bufptr
	movl	$59, %eax	#, D.28894
	jmp	.L2138	#
.L697:
	.loc 1 2542 0
	cmpb	$0, -1441(%rbp)	#, bof
	je	.L706	#,
	.loc 1 2543 0 discriminator 1
	movzbl	(%rbx), %eax	# *s_656, D.28896
	.loc 1 2542 0 discriminator 1
	testb	%al, %al	# D.28896
	je	.L707	#,
	.loc 1 2544 0
	movzbl	(%rbx), %eax	# MEM[(U8 *)s_656], D.28904
	.loc 1 2543 0
	cmpb	$-17, %al	#, D.28904
	je	.L707	#,
	.loc 1 2545 0
	movzbl	(%rbx), %eax	# MEM[(U8 *)s_656], D.28904
	.loc 1 2544 0
	cmpb	$-3, %al	#, D.28904
	ja	.L707	#,
	.loc 1 2546 0
	leaq	1(%rbx), %rax	#, D.28895
	movzbl	(%rax), %eax	# *_660, D.28896
	.loc 1 2545 0
	testb	%al, %al	# D.28896
	jne	.L706	#,
.L707:
	.loc 1 2568 0
	movq	PL_rsfp(%rip), %rax	# PL_rsfp, PL_rsfp.712
	movq	%rax, %rdi	# PL_rsfp.712,
	call	Perl_PerlIO_tell	#
	movq	PL_linestr(%rip), %rdx	# PL_linestr, PL_linestr.713
	movq	(%rdx), %rdx	# PL_linestr.713_664->sv_any, D.28901
	movq	8(%rdx), %rdx	# MEM[(struct XPV *)_665].xpv_cur, D.28898
	cmpq	%rdx, %rax	# D.28902, D.28902
	sete	%al	#, D.28899
	movb	%al, -1441(%rbp)	# D.28899, bof
	.loc 1 2570 0
	cmpb	$0, -1441(%rbp)	#, bof
	je	.L706	#,
	.loc 1 2571 0
	movq	PL_linestr(%rip), %rax	# PL_linestr, PL_linestr.714
	movq	(%rax), %rax	# PL_linestr.714_670->sv_any, D.28901
	movq	(%rax), %rdx	# MEM[(struct XPV *)_671].xpv_pv, D.28895
	movq	PL_linestr(%rip), %rax	# PL_linestr, PL_linestr.715
	movq	(%rax), %rax	# PL_linestr.715_673->sv_any, D.28901
	movq	8(%rax), %rax	# MEM[(struct XPV *)_674].xpv_cur, D.28898
	addq	%rdx, %rax	# D.28895, PL_bufend.716
	movq	%rax, PL_bufend(%rip)	# PL_bufend.716, PL_bufend
	.loc 1 2572 0
	movq	%rbx, %rdi	# s,
	call	S_swallow_bom	#
	movq	%rax, %rbx	#, s
.L706:
	.loc 1 2575 0
	movzbl	PL_doextract(%rip), %eax	# PL_doextract, PL_doextract.717
	testb	%al, %al	# PL_doextract.717
	je	.L708	#,
	.loc 1 2577 0
	movzbl	(%rbx), %eax	# *s_4, D.28896
	cmpb	$61, %al	#, D.28896
	jne	.L708	#,
	.loc 1 2577 0 is_stmt 0 discriminator 1
	movl	$4, %edx	#,
	movl	$.LC64, %esi	#,
	movq	%rbx, %rdi	# s,
	call	strncmp	#
	testl	%eax, %eax	# D.28894
	jne	.L708	#,
	.loc 1 2578 0 is_stmt 1
	movq	PL_linestr(%rip), %rax	# PL_linestr, PL_linestr.718
	movl	$.LC17, %esi	#,
	movq	%rax, %rdi	# PL_linestr.718,
	call	Perl_sv_setpv	#
	.loc 1 2579 0
	movq	PL_linestr(%rip), %rax	# PL_linestr, PL_linestr.719
	movq	(%rax), %rax	# PL_linestr.719_682->sv_any, D.28901
	movq	(%rax), %rax	# MEM[(struct XPV *)_683].xpv_pv, PL_linestart.720
	movq	%rax, PL_linestart(%rip)	# PL_linestart.720, PL_linestart
	movq	PL_linestart(%rip), %rbx	# PL_linestart, s
	movq	%rbx, PL_oldbufptr(%rip)	# s, PL_oldbufptr
	movq	PL_oldbufptr(%rip), %rax	# PL_oldbufptr, PL_oldbufptr.721
	movq	%rax, PL_oldoldbufptr(%rip)	# PL_oldbufptr.721, PL_oldoldbufptr
	.loc 1 2580 0
	movq	PL_linestr(%rip), %rax	# PL_linestr, PL_linestr.722
	movq	(%rax), %rax	# PL_linestr.722_687->sv_any, D.28901
	movq	(%rax), %rdx	# MEM[(struct XPV *)_688].xpv_pv, D.28895
	movq	PL_linestr(%rip), %rax	# PL_linestr, PL_linestr.723
	movq	(%rax), %rax	# PL_linestr.723_690->sv_any, D.28901
	movq	8(%rax), %rax	# MEM[(struct XPV *)_691].xpv_cur, D.28898
	addq	%rdx, %rax	# D.28895, PL_bufend.724
	movq	%rax, PL_bufend(%rip)	# PL_bufend.724, PL_bufend
	.loc 1 2581 0
	movq	$0, PL_last_uni(%rip)	#, PL_last_uni
	movq	PL_last_uni(%rip), %rax	# PL_last_uni, PL_last_uni.725
	movq	%rax, PL_last_lop(%rip)	# PL_last_uni.725, PL_last_lop
	.loc 1 2582 0
	movb	$0, PL_doextract(%rip)	#, PL_doextract
.L708:
	.loc 1 2585 0
	movq	%rbx, %rdi	# s,
	call	S_incline	#
	.loc 1 2586 0
	movzbl	PL_doextract(%rip), %eax	# PL_doextract, PL_doextract.726
	testb	%al, %al	# PL_doextract.726
	jne	.L678	#,
	.loc 1 2587 0
	movq	%rbx, PL_linestart(%rip)	# s, PL_linestart
	movq	PL_linestart(%rip), %rax	# PL_linestart, PL_linestart.727
	movq	%rax, PL_bufptr(%rip)	# PL_linestart.727, PL_bufptr
	movq	PL_bufptr(%rip), %rax	# PL_bufptr, PL_bufptr.728
	movq	%rax, PL_oldbufptr(%rip)	# PL_bufptr.728, PL_oldbufptr
	movq	PL_oldbufptr(%rip), %rax	# PL_oldbufptr, PL_oldbufptr.729
	movq	%rax, PL_oldoldbufptr(%rip)	# PL_oldbufptr.729, PL_oldoldbufptr
	.loc 1 2588 0
	movl	PL_perldb(%rip), %eax	# PL_perldb, PL_perldb.730
	testl	%eax, %eax	# PL_perldb.730
	je	.L709	#,
	.loc 1 2588 0 is_stmt 0 discriminator 1
	movl	PL_perldb(%rip), %eax	# PL_perldb, PL_perldb.731
	andl	$2, %eax	#, D.28900
	testl	%eax, %eax	# D.28900
	je	.L709	#,
	movq	PL_curstash(%rip), %rdx	# PL_curstash, PL_curstash.732
	movq	PL_debstash(%rip), %rax	# PL_debstash, PL_debstash.733
	cmpq	%rax, %rdx	# PL_debstash.733, PL_curstash.732
	je	.L709	#,
.LBB41:
	.loc 1 2589 0 is_stmt 1
	movl	$0, %edi	#,
	call	Perl_newSV	#
	movq	%rax, -1176(%rbp)	# tmp3368, sv
	.loc 1 2591 0
	movq	-1176(%rbp), %rax	# sv, tmp3369
	movl	$7, %esi	#,
	movq	%rax, %rdi	# tmp3369,
	call	Perl_sv_upgrade	#
	.loc 1 2592 0
	movq	PL_linestr(%rip), %rcx	# PL_linestr, PL_linestr.734
	movq	-1176(%rbp), %rax	# sv, tmp3370
	movl	$2, %edx	#,
	movq	%rcx, %rsi	# PL_linestr.734,
	movq	%rax, %rdi	# tmp3370,
	call	Perl_sv_setsv_flags	#
	.loc 1 2593 0
	movq	-1176(%rbp), %rax	# sv, tmp3371
	movl	12(%rax), %eax	# sv_704->sv_flags, D.28900
	andl	$2097152, %eax	#, D.28900
	testl	%eax, %eax	# D.28900
	je	.L711	#,
	.loc 1 2593 0 is_stmt 0 discriminator 1
	movq	-1176(%rbp), %rax	# sv, tmp3372
	movq	%rax, %rdi	# tmp3372,
	call	Perl_sv_backoff	#
	testl	%eax, %eax	# D.28894
	je	.L711	#,
	.loc 1 2593 0
	nop
.L711:
	.loc 1 2593 0 discriminator 3
	movq	-1176(%rbp), %rax	# sv, tmp3373
	movl	12(%rax), %eax	# sv_704->sv_flags, D.28900
	orl	$16842752, %eax	#, D.28900
	movl	%eax, %edx	# D.28900, D.28900
	movq	-1176(%rbp), %rax	# sv, tmp3374
	movl	%edx, 12(%rax)	# D.28900, sv_704->sv_flags
	.loc 1 2594 0 is_stmt 1 discriminator 3
	movq	-1176(%rbp), %rax	# sv, tmp3375
	movq	(%rax), %rax	# sv_704->sv_any, D.28901
	movq	$0, 24(%rax)	#, MEM[(struct XPVIV *)_713].xiv_iv
	.loc 1 2595 0 discriminator 3
	movq	PL_curcop(%rip), %rax	# PL_curcop, PL_curcop.736
	movl	72(%rax), %eax	# PL_curcop.736_714->cop_line, D.28900
	movl	%eax, %ecx	# D.28900, D.28894
	movq	PL_curcop(%rip), %rax	# PL_curcop, PL_curcop.738
	movq	56(%rax), %rax	# PL_curcop.738_717->cop_filegv, D.28907
	testq	%rax, %rax	# D.28907
	je	.L712	#,
	.loc 1 2595 0 is_stmt 0 discriminator 1
	movq	PL_curcop(%rip), %rax	# PL_curcop, PL_curcop.739
	movq	56(%rax), %rax	# PL_curcop.739_719->cop_filegv, D.28907
	movq	(%rax), %rax	# _720->sv_any, D.28908
	movq	56(%rax), %rax	# _721->xgv_gp, D.28909
	movq	32(%rax), %rax	# _722->gp_av, iftmp.737
	jmp	.L713	#
.L712:
	.loc 1 2595 0 discriminator 2
	movl	$0, %eax	#, iftmp.737
.L713:
	.loc 1 2595 0 discriminator 3
	movq	-1176(%rbp), %rdx	# sv, tmp3376
	movl	%ecx, %esi	# D.28894,
	movq	%rax, %rdi	# iftmp.737,
	call	Perl_av_store	#
.L709:
.LBE41:
	.loc 1 2597 0 is_stmt 1
	movq	PL_linestr(%rip), %rax	# PL_linestr, PL_linestr.740
	movq	(%rax), %rax	# PL_linestr.740_725->sv_any, D.28901
	movq	(%rax), %rdx	# MEM[(struct XPV *)_726].xpv_pv, D.28895
	movq	PL_linestr(%rip), %rax	# PL_linestr, PL_linestr.741
	movq	(%rax), %rax	# PL_linestr.741_728->sv_any, D.28901
	movq	8(%rax), %rax	# MEM[(struct XPV *)_729].xpv_cur, D.28898
	addq	%rdx, %rax	# D.28895, PL_bufend.742
	movq	%rax, PL_bufend(%rip)	# PL_bufend.742, PL_bufend
	.loc 1 2598 0
	movq	$0, PL_last_uni(%rip)	#, PL_last_uni
	movq	PL_last_uni(%rip), %rax	# PL_last_uni, PL_last_uni.743
	movq	%rax, PL_last_lop(%rip)	# PL_last_uni.743, PL_last_lop
	.loc 1 2599 0
	movq	PL_curcop(%rip), %rax	# PL_curcop, PL_curcop.744
	movl	72(%rax), %eax	# PL_curcop.744_733->cop_line, D.28900
	cmpl	$1, %eax	#, D.28900
	jne	.L714	#,
	.loc 1 2600 0
	jmp	.L715	#
.L717:
	.loc 1 2601 0
	addq	$1, %rbx	#, s
.L715:
	.loc 1 2600 0 discriminator 1
	movq	PL_bufend(%rip), %rax	# PL_bufend, PL_bufend.745
	cmpq	%rax, %rbx	# PL_bufend.745, s
	jae	.L716	#,
	.loc 1 2600 0 is_stmt 0 discriminator 2
	movzbl	(%rbx), %eax	# *s_6, D.28896
	cmpb	$32, %al	#, D.28896
	je	.L717	#,
	.loc 1 2600 0 discriminator 1
	movzbl	(%rbx), %eax	# *s_6, D.28896
	cmpb	$9, %al	#, D.28896
	je	.L717	#,
	movzbl	(%rbx), %eax	# *s_6, D.28896
	cmpb	$10, %al	#, D.28896
	je	.L717	#,
	movzbl	(%rbx), %eax	# *s_6, D.28896
	cmpb	$13, %al	#, D.28896
	je	.L717	#,
	movzbl	(%rbx), %eax	# *s_6, D.28896
	cmpb	$12, %al	#, D.28896
	je	.L717	#,
.L716:
	.loc 1 2602 0 is_stmt 1
	movzbl	(%rbx), %eax	# *s_6, D.28896
	cmpb	$58, %al	#, D.28896
	jne	.L718	#,
	.loc 1 2602 0 is_stmt 0 discriminator 1
	leaq	1(%rbx), %rax	#, D.28895
	movzbl	(%rax), %eax	# *_743, D.28896
	cmpb	$58, %al	#, D.28896
	je	.L718	#,
	.loc 1 2603 0 is_stmt 1
	addq	$1, %rbx	#, s
.L718:
	.loc 1 2604 0
	movl	$0, %r12d	#, d
	.loc 1 2605 0
	movl	PL_in_eval(%rip), %eax	# PL_in_eval, PL_in_eval.746
	testl	%eax, %eax	# PL_in_eval.746
	jne	.L719	#,
	.loc 1 2606 0
	movzbl	(%rbx), %eax	# *s_7, D.28896
	cmpb	$35, %al	#, D.28896
	jne	.L719	#,
	.loc 1 2606 0 is_stmt 0 discriminator 1
	leaq	1(%rbx), %rax	#, D.28895
	movzbl	(%rax), %eax	# *_749, D.28896
	cmpb	$33, %al	#, D.28896
	jne	.L719	#,
	.loc 1 2607 0 is_stmt 1
	leaq	2(%rbx), %r12	#, d
.L719:
	.loc 1 2616 0
	testq	%r12, %r12	# d
	je	.L714	#,
.LBB42:
	.loc 1 2620 0
	jmp	.L720	#
.L721:
	.loc 1 2621 0
	addq	$1, %r12	#, d
.L720:
	.loc 1 2620 0 discriminator 1
	movzbl	(%r12), %eax	# *d_52, D.28896
	cmpb	$32, %al	#, D.28896
	je	.L721	#,
	.loc 1 2620 0 is_stmt 0 discriminator 2
	movzbl	(%r12), %eax	# *d_52, D.28896
	cmpb	$9, %al	#, D.28896
	je	.L721	#,
	.loc 1 2620 0 discriminator 1
	movzbl	(%r12), %eax	# *d_52, D.28896
	cmpb	$10, %al	#, D.28896
	je	.L721	#,
	movzbl	(%r12), %eax	# *d_52, D.28896
	cmpb	$13, %al	#, D.28896
	je	.L721	#,
	movzbl	(%r12), %eax	# *d_52, D.28896
	cmpb	$12, %al	#, D.28896
	je	.L721	#,
	.loc 1 2622 0 is_stmt 1
	movq	%r12, -1168(%rbp)	# d, ipath
	.loc 1 2623 0
	jmp	.L722	#
.L724:
	.loc 1 2624 0
	addq	$1, %r12	#, d
.L722:
