	.file	"xsutils.c"
# GNU C (Ubuntu/Linaro 4.8.1-10ubuntu9) version 4.8.1 (x86_64-linux-gnu)
#	compiled by GNU C version 4.8.1, GMP version 5.1.2, MPFR version 3.1.1-p2, MPC version 1.0.1
# GGC heuristics: --param ggc-min-expand=100 --param ggc-min-heapsize=131072
# options passed:  -imultiarch x86_64-linux-gnu -D SPEC_CPU -D NDEBUG
# -D PERL_CORE -D SPEC_CPU_LP64 -D SPEC_CPU_LINUX_X64 xsutils.c
# -mtune=generic -march=x86-64 -g -fverbose-asm -fno-strict-aliasing
# -fstack-protector -Wformat -Wformat-security
# options enabled:  -faggressive-loop-optimizations
# -fasynchronous-unwind-tables -fauto-inc-dec -fbranch-count-reg -fcommon
# -fdelete-null-pointer-checks -fdwarf2-cfi-asm -fearly-inlining
# -feliminate-unused-debug-types -ffunction-cse -fgcse-lm -fgnu-runtime
# -fident -finline-atomics -fira-hoist-pressure -fira-share-save-slots
# -fira-share-spill-slots -fivopts -fkeep-static-consts
# -fleading-underscore -fmath-errno -fmerge-debug-strings
# -fmove-loop-invariants -fpeephole -fprefetch-loop-arrays
# -freg-struct-return -fsched-critical-path-heuristic
# -fsched-dep-count-heuristic -fsched-group-heuristic -fsched-interblock
# -fsched-last-insn-heuristic -fsched-rank-heuristic -fsched-spec
# -fsched-spec-insn-heuristic -fsched-stalled-insns-dep -fshow-column
# -fsigned-zeros -fsplit-ivs-in-unroller -fstack-protector
# -fstrict-volatile-bitfields -fsync-libcalls -ftrapping-math
# -ftree-coalesce-vars -ftree-cselim -ftree-forwprop -ftree-loop-if-convert
# -ftree-loop-im -ftree-loop-ivcanon -ftree-loop-optimize
# -ftree-parallelize-loops= -ftree-phiprop -ftree-pta -ftree-reassoc
# -ftree-scev-cprop -ftree-slp-vectorize -ftree-vect-loop-version
# -funit-at-a-time -funwind-tables -fverbose-asm -fzero-initialized-in-bss
# -m128bit-long-double -m64 -m80387 -maccumulate-outgoing-args
# -malign-stringops -mfancy-math-387 -mfp-ret-in-387 -mfxsr -mglibc
# -mieee-fp -mlong-double-80 -mmmx -mno-sse4 -mpush-args -mred-zone -msse
# -msse2 -mtls-direct-seg-refs

	.text
.Ltext0:
	.section	.rodata
.LC0:
	.string	"xsutils.c"
.LC1:
	.string	"attributes::bootstrap"
	.text
	.globl	Perl_boot_core_xsutils
	.type	Perl_boot_core_xsutils, @function
Perl_boot_core_xsutils:
.LFB2:
	.file 1 "xsutils.c"
	.loc 1 48 0
	.cfi_startproc
	pushq	%rbp	#
	.cfi_def_cfa_offset 16
	.cfi_offset 6, -16
	movq	%rsp, %rbp	#,
	.cfi_def_cfa_register 6
	subq	$16, %rsp	#,
	.loc 1 49 0
	movq	$.LC0, -8(%rbp)	#, file
	.loc 1 51 0
	movq	-8(%rbp), %rax	# file, tmp59
	movq	%rax, %rdx	# tmp59,
	movl	$XS_attributes_bootstrap, %esi	#,
	movl	$.LC1, %edi	#,
	call	Perl_newXS	#
	.loc 1 52 0
	leave
	.cfi_def_cfa 7, 8
	ret
	.cfi_endproc
.LFE2:
	.size	Perl_boot_core_xsutils, .-Perl_boot_core_xsutils
	.section	.rodata
.LC2:
	.string	"lvalue"
.LC3:
	.string	"locked"
.LC4:
	.string	"method"
.LC5:
	.string	"share"
	.align 8
.LC6:
	.string	"A variable may not be unshared"
.LC7:
	.string	"uniqu"
	.text
	.type	modify_SV_attributes, @function
modify_SV_attributes:
.LFB3:
	.loc 1 58 0
	.cfi_startproc
	pushq	%rbp	#
	.cfi_def_cfa_offset 16
	.cfi_offset 6, -16
	movq	%rsp, %rbp	#,
	.cfi_def_cfa_register 6
	subq	$64, %rsp	#,
	movq	%rdi, -40(%rbp)	# sv, sv
	movq	%rsi, -48(%rbp)	# retlist, retlist
	movq	%rdx, -56(%rbp)	# attrlist, attrlist
	movl	%ecx, -60(%rbp)	# numattrs, numattrs
	.loc 1 65 0
	movl	$0, -28(%rbp)	#, nret
	jmp	.L3	#
.L35:
	.loc 1 66 0
	movq	-8(%rbp), %rax	# attr, tmp129
	movl	12(%rax), %eax	# attr_15->sv_flags, D.11000
	andl	$262144, %eax	#, D.11000
	testl	%eax, %eax	# D.11000
	je	.L4	#,
	.loc 1 66 0 is_stmt 0 discriminator 1
	movq	-8(%rbp), %rax	# attr, tmp130
	movq	(%rax), %rax	# attr_15->sv_any, D.11001
	movq	8(%rax), %rax	# MEM[(struct XPV *)_18].xpv_cur, len.1
	movq	%rax, -24(%rbp)	# len.1, len
	movq	-8(%rbp), %rax	# attr, tmp131
	movq	(%rax), %rax	# attr_15->sv_any, D.11001
	movq	(%rax), %rax	# MEM[(struct XPV *)_20].xpv_pv, iftmp.0
	jmp	.L5	#
.L4:
	.loc 1 66 0 discriminator 2
	leaq	-24(%rbp), %rcx	#, tmp132
	movq	-8(%rbp), %rax	# attr, tmp133
	movl	$2, %edx	#,
	movq	%rcx, %rsi	# tmp132,
	movq	%rax, %rdi	# tmp133,
	call	Perl_sv_2pv_flags	#
.L5:
	.loc 1 66 0 discriminator 3
	movq	%rax, -16(%rbp)	# iftmp.0, name
	.loc 1 67 0 is_stmt 1 discriminator 3
	movq	-16(%rbp), %rax	# name, tmp134
	movzbl	(%rax), %eax	# *name_23, D.11002
	cmpb	$45, %al	#, D.11002
	sete	%al	#, D.11003
	movb	%al, -29(%rbp)	# D.11003, negated
	cmpb	$0, -29(%rbp)	#, negated
	je	.L6	#,
	.loc 1 68 0
	addq	$1, -16(%rbp)	#, name
	.loc 1 69 0
	movq	-24(%rbp), %rax	# len, len.2
	subq	$1, %rax	#, len.3
	movq	%rax, -24(%rbp)	# len.3, len
.L6:
	.loc 1 71 0
	movq	-40(%rbp), %rax	# sv, tmp135
	movl	12(%rax), %eax	# sv_30(D)->sv_flags, D.11000
	movzbl	%al, %eax	# D.11000, D.11000
	cmpl	$12, %eax	#, D.11000
	jne	.L37	#,
	.loc 1 73 0
	movq	-24(%rbp), %rax	# len, len.4
	cmpl	$6, %eax	#, D.11004
	je	.L10	#,
	.loc 1 119 0
	jmp	.L25	#
.L10:
	.loc 1 86 0
	movq	-16(%rbp), %rax	# name, tmp136
	addq	$3, %rax	#, D.11005
	movzbl	(%rax), %eax	# *_35, D.11002
	movsbl	%al, %eax	# D.11002, D.11004
	cmpl	$107, %eax	#, D.11004
	je	.L12	#,
	cmpl	$108, %eax	#, D.11004
	je	.L13	#,
	cmpl	$104, %eax	#, D.11004
	je	.L14	#,
	.loc 1 117 0
	jmp	.L38	#
.L13:
	.loc 1 89 0
	movq	-16(%rbp), %rax	# name, tmp137
	movl	$6, %edx	#,
	movl	$.LC2, %esi	#,
	movq	%rax, %rdi	# tmp137,
	call	memcmp	#
	testl	%eax, %eax	# D.11004
	jne	.L15	#,
	.loc 1 90 0
	cmpb	$0, -29(%rbp)	#, negated
	je	.L16	#,
	.loc 1 91 0
	movq	-40(%rbp), %rax	# sv, tmp138
	movq	(%rax), %rax	# MEM[(struct CV *)sv_30(D)].sv_any, D.11006
	movq	-40(%rbp), %rdx	# sv, tmp139
	movq	(%rdx), %rdx	# MEM[(struct CV *)sv_30(D)].sv_any, D.11006
	movzwl	136(%rdx), %edx	# _40->xcv_flags, D.11007
	andb	$254, %dh	#, D.11007
	movw	%dx, 136(%rax)	# D.11007, _39->xcv_flags
	.loc 1 94 0
	jmp	.L18	#
.L16:
	.loc 1 93 0
	movq	-40(%rbp), %rax	# sv, tmp140
	movq	(%rax), %rax	# MEM[(struct CV *)sv_30(D)].sv_any, D.11006
	movq	-40(%rbp), %rdx	# sv, tmp141
	movq	(%rdx), %rdx	# MEM[(struct CV *)sv_30(D)].sv_any, D.11006
	movzwl	136(%rdx), %edx	# _44->xcv_flags, D.11007
	orb	$1, %dh	#, D.11007
	movw	%dx, 136(%rax)	# D.11007, _43->xcv_flags
	.loc 1 94 0
	jmp	.L18	#
.L15:
	.loc 1 96 0
	jmp	.L11	#
.L12:
	.loc 1 99 0
	movq	-16(%rbp), %rax	# name, tmp142
	movl	$6, %edx	#,
	movl	$.LC3, %esi	#,
	movq	%rax, %rdi	# tmp142,
	call	memcmp	#
	testl	%eax, %eax	# D.11004
	jne	.L19	#,
	.loc 1 100 0
	cmpb	$0, -29(%rbp)	#, negated
	je	.L20	#,
	.loc 1 101 0
	movq	-40(%rbp), %rax	# sv, tmp143
	movq	(%rax), %rax	# MEM[(struct CV *)sv_30(D)].sv_any, D.11006
	movq	-40(%rbp), %rdx	# sv, tmp144
	movq	(%rdx), %rdx	# MEM[(struct CV *)sv_30(D)].sv_any, D.11006
	movzwl	136(%rdx), %edx	# _49->xcv_flags, D.11007
	andb	$127, %dl	#, D.11007
	movw	%dx, 136(%rax)	# D.11007, _48->xcv_flags
	.loc 1 104 0
	jmp	.L18	#
.L20:
	.loc 1 103 0
	movq	-40(%rbp), %rax	# sv, tmp145
	movq	(%rax), %rax	# MEM[(struct CV *)sv_30(D)].sv_any, D.11006
	movq	-40(%rbp), %rdx	# sv, tmp146
	movq	(%rdx), %rdx	# MEM[(struct CV *)sv_30(D)].sv_any, D.11006
	movzwl	136(%rdx), %edx	# _53->xcv_flags, D.11007
	orb	$-128, %dl	#, D.11007
	movw	%dx, 136(%rax)	# D.11007, _52->xcv_flags
	.loc 1 104 0
	jmp	.L18	#
.L19:
	.loc 1 106 0
	jmp	.L11	#
.L14:
	.loc 1 108 0
	movq	-16(%rbp), %rax	# name, tmp147
	movl	$6, %edx	#,
	movl	$.LC4, %esi	#,
	movq	%rax, %rdi	# tmp147,
	call	memcmp	#
	testl	%eax, %eax	# D.11004
	jne	.L22	#,
	.loc 1 109 0
	cmpb	$0, -29(%rbp)	#, negated
	je	.L23	#,
	.loc 1 110 0
	movq	-40(%rbp), %rax	# sv, tmp148
	movq	(%rax), %rax	# MEM[(struct CV *)sv_30(D)].sv_any, D.11006
	movq	-40(%rbp), %rdx	# sv, tmp149
	movq	(%rdx), %rdx	# MEM[(struct CV *)sv_30(D)].sv_any, D.11006
	movzwl	136(%rdx), %edx	# _58->xcv_flags, D.11007
	andl	$-65, %edx	#, D.11007
	movw	%dx, 136(%rax)	# D.11007, _57->xcv_flags
	.loc 1 113 0
	jmp	.L18	#
.L23:
	.loc 1 112 0
	movq	-40(%rbp), %rax	# sv, tmp150
	movq	(%rax), %rax	# MEM[(struct CV *)sv_30(D)].sv_any, D.11006
	movq	-40(%rbp), %rdx	# sv, tmp151
	movq	(%rdx), %rdx	# MEM[(struct CV *)sv_30(D)].sv_any, D.11006
	movzwl	136(%rdx), %edx	# _62->xcv_flags, D.11007
	orl	$64, %edx	#, D.11007
	movw	%dx, 136(%rax)	# D.11007, _61->xcv_flags
	.loc 1 113 0
	jmp	.L18	#
.L22:
	.loc 1 115 0
	nop
.L11:
.L38:
	.loc 1 117 0
	nop
	.loc 1 119 0
	jmp	.L25	#
.L37:
	.loc 1 121 0
	movq	-24(%rbp), %rax	# len, len.5
	cmpl	$6, %eax	#, D.11004
	je	.L27	#,
	.loc 1 145 0
	jmp	.L39	#
.L27:
	.loc 1 123 0
	movq	-16(%rbp), %rax	# name, tmp152
	addq	$5, %rax	#, D.11005
	movzbl	(%rax), %eax	# *_67, D.11002
	movsbl	%al, %eax	# D.11002, D.11004
	cmpl	$100, %eax	#, D.11004
	je	.L28	#,
	cmpl	$101, %eax	#, D.11004
	je	.L29	#,
	.loc 1 145 0
	jmp	.L39	#
.L28:
	.loc 1 125 0
	movq	-16(%rbp), %rax	# name, tmp153
	movl	$5, %edx	#,
	movl	$.LC5, %esi	#,
	movq	%rax, %rdi	# tmp153,
	call	memcmp	#
	testl	%eax, %eax	# D.11004
	jne	.L30	#,
	.loc 1 126 0
	cmpb	$0, -29(%rbp)	#, negated
	je	.L31	#,
	.loc 1 127 0
	movl	$.LC6, %edi	#,
	movl	$0, %eax	#,
	call	Perl_croak	#
.L31:
	.loc 1 128 0
	movq	PL_sharehook(%rip), %rax	# PL_sharehook, PL_sharehook.6
	movq	-40(%rbp), %rdx	# sv, tmp154
	movq	%rdx, %rdi	# tmp154,
	call	*%rax	# PL_sharehook.6
	.loc 1 129 0
	jmp	.L18	#
.L30:
	.loc 1 131 0
	jmp	.L26	#
.L29:
	.loc 1 133 0
	movq	-16(%rbp), %rax	# name, tmp155
	movl	$5, %edx	#,
	movl	$.LC7, %esi	#,
	movq	%rax, %rdi	# tmp155,
	call	memcmp	#
	testl	%eax, %eax	# D.11004
	jne	.L26	#,
	.loc 1 134 0
	movq	-40(%rbp), %rax	# sv, tmp156
	movl	12(%rax), %eax	# sv_30(D)->sv_flags, D.11000
	movzbl	%al, %eax	# D.11000, D.11000
	cmpl	$13, %eax	#, D.11000
	jne	.L32	#,
	.loc 1 135 0
	cmpb	$0, -29(%rbp)	#, negated
	je	.L33	#,
	.loc 1 136 0
	movq	-40(%rbp), %rax	# sv, tmp157
	movq	(%rax), %rax	# sv_30(D)->sv_any, D.11001
	movq	56(%rax), %rax	# MEM[(struct XPVGV *)_75].xgv_gp, D.11008
	movq	-40(%rbp), %rdx	# sv, tmp158
	movq	(%rdx), %rdx	# sv_30(D)->sv_any, D.11001
	movq	56(%rdx), %rdx	# MEM[(struct XPVGV *)_77].xgv_gp, D.11008
	movl	68(%rdx), %edx	# _78->gp_flags, D.11000
	andl	$-2, %edx	#, D.11000
	movl	%edx, 68(%rax)	# D.11000, _76->gp_flags
	jmp	.L32	#
.L33:
	.loc 1 138 0
	movq	-40(%rbp), %rax	# sv, tmp159
	movq	(%rax), %rax	# sv_30(D)->sv_any, D.11001
	movq	56(%rax), %rax	# MEM[(struct XPVGV *)_81].xgv_gp, D.11008
	movq	-40(%rbp), %rdx	# sv, tmp160
	movq	(%rdx), %rdx	# sv_30(D)->sv_any, D.11001
	movq	56(%rdx), %rdx	# MEM[(struct XPVGV *)_83].xgv_gp, D.11008
	movl	68(%rdx), %edx	# _84->gp_flags, D.11000
	orl	$1, %edx	#, D.11000
	movl	%edx, 68(%rax)	# D.11000, _82->gp_flags
	.loc 1 141 0
	jmp	.L18	#
.L32:
	jmp	.L18	#
.L26:
.L39:
	.loc 1 145 0
	nop
.L25:
	.loc 1 148 0
	movq	-48(%rbp), %rax	# retlist, retlist.7
	leaq	8(%rax), %rdx	#, tmp161
	movq	%rdx, -48(%rbp)	# tmp161, retlist
	movq	-8(%rbp), %rdx	# attr, tmp162
	movq	%rdx, (%rax)	# tmp162, *retlist.7_87
	.loc 1 149 0
	addl	$1, -28(%rbp)	#, nret
.L18:
	.loc 1 65 0
	subl	$1, -60(%rbp)	#, numattrs
.L3:
	.loc 1 65 0 is_stmt 0 discriminator 1
	cmpl	$0, -60(%rbp)	#, numattrs
	je	.L34	#,
	.loc 1 65 0 discriminator 2
	movq	-56(%rbp), %rax	# attrlist, attrlist.8
	leaq	8(%rax), %rdx	#, tmp163
	movq	%rdx, -56(%rbp)	# tmp163, attrlist
	movq	(%rax), %rax	# *attrlist.8_13, tmp164
	movq	%rax, -8(%rbp)	# tmp164, attr
	cmpq	$0, -8(%rbp)	#, attr
	jne	.L35	#,
.L34:
	.loc 1 152 0 is_stmt 1
	movl	-28(%rbp), %eax	# nret, D.11004
	.loc 1 153 0
	leave
	.cfi_def_cfa 7, 8
	ret
	.cfi_endproc
.LFE3:
	.size	modify_SV_attributes, .-modify_SV_attributes
	.section	.rodata
	.align 8
.LC8:
	.string	"Usage: attributes::bootstrap $module"
.LC9:
	.string	"attributes::_warn_reserved"
.LC10:
	.string	""
.LC11:
	.string	"attributes::_modify_attrs"
.LC12:
	.string	"attributes::_guess_stash"
.LC13:
	.string	"$"
.LC14:
	.string	"attributes::_fetch_attrs"
.LC15:
	.string	"attributes::reftype"
	.text
	.globl	XS_attributes_bootstrap
	.type	XS_attributes_bootstrap, @function
XS_attributes_bootstrap:
.LFB4:
	.loc 1 160 0
	.cfi_startproc
	pushq	%rbp	#
	.cfi_def_cfa_offset 16
	.cfi_offset 6, -16
	movq	%rsp, %rbp	#,
	.cfi_def_cfa_register 6
	pushq	%r12	#
	pushq	%rbx	#
	subq	$48, %rsp	#,
	.cfi_offset 12, -24
	.cfi_offset 3, -32
	movq	%rdi, -56(%rbp)	# cv, cv
	.loc 1 161 0
	movq	PL_stack_sp(%rip), %r12	# PL_stack_sp, sp
	movq	PL_stack_base(%rip), %rcx	# PL_stack_base, PL_stack_base.9
	movq	PL_markstack_ptr(%rip), %rax	# PL_markstack_ptr, PL_markstack_ptr.10
	leaq	-4(%rax), %rdx	#, PL_markstack_ptr.12
	movq	%rdx, PL_markstack_ptr(%rip)	# PL_markstack_ptr.12, PL_markstack_ptr
	movl	(%rax), %eax	# *PL_markstack_ptr.11_4, D.11015
	cltq
	salq	$3, %rax	#, D.11016
	leaq	(%rcx,%rax), %rbx	#, mark
	movq	%rbx, %rdx	# mark, mark.13
	movq	PL_stack_base(%rip), %rax	# PL_stack_base, PL_stack_base.14
	subq	%rax, %rdx	# PL_stack_base.15, D.11017
	movq	%rdx, %rax	# D.11017, D.11017
	sarq	$3, %rax	#, tmp90
	addl	$1, %eax	#, D.11018
	movl	%eax, -40(%rbp)	# D.11018, ax
	movq	%r12, %rdx	# sp, sp.16
	movq	%rbx, %rax	# mark, mark.17
	subq	%rax, %rdx	# mark.17, D.11017
	movq	%rdx, %rax	# D.11017, D.11017
	sarq	$3, %rax	#, tmp91
	movl	%eax, -36(%rbp)	# D.11017, items
	.loc 1 162 0
	movq	$.LC0, -32(%rbp)	#, file
	.loc 1 164 0
	cmpl	$1, -36(%rbp)	#, items
	jle	.L41	#,
	.loc 1 165 0
	movl	$.LC8, %edi	#,
	movl	$0, %eax	#,
	call	Perl_croak	#
.L41:
	.loc 1 167 0
	movq	-32(%rbp), %rax	# file, tmp92
	movq	%rax, %rdx	# tmp92,
	movl	$XS_attributes__warn_reserved, %esi	#,
	movl	$.LC9, %edi	#,
	call	Perl_newXS	#
	movl	$.LC10, %esi	#,
	movq	%rax, %rdi	# D.11019,
	call	Perl_sv_setpv	#
	.loc 1 168 0
	movq	-32(%rbp), %rax	# file, tmp93
	movq	%rax, %rdx	# tmp93,
	movl	$XS_attributes__modify_attrs, %esi	#,
	movl	$.LC11, %edi	#,
	call	Perl_newXS	#
	.loc 1 169 0
	movq	-32(%rbp), %rax	# file, tmp94
	movq	%rax, %rdx	# tmp94,
	movl	$XS_attributes__guess_stash, %esi	#,
	movl	$.LC12, %edi	#,
	call	Perl_newXS	#
	movl	$.LC13, %esi	#,
	movq	%rax, %rdi	# D.11019,
	call	Perl_sv_setpv	#
	.loc 1 170 0
	movq	-32(%rbp), %rax	# file, tmp95
	movq	%rax, %rdx	# tmp95,
	movl	$XS_attributes__fetch_attrs, %esi	#,
	movl	$.LC14, %edi	#,
	call	Perl_newXS	#
	movl	$.LC13, %esi	#,
	movq	%rax, %rdi	# D.11019,
	call	Perl_sv_setpv	#
	.loc 1 171 0
	movq	-32(%rbp), %rax	# file, tmp96
	movq	%rax, %rdx	# tmp96,
	movl	$XS_attributes_reftype, %esi	#,
	movl	$.LC15, %edi	#,
	call	Perl_newXS	#
	movl	$.LC13, %esi	#,
	movq	%rax, %rdi	# D.11019,
	call	Perl_sv_setpv	#
.LBB2:
	.loc 1 173 0
	movq	$0, -24(%rbp)	#, tmpXSoff
	movq	PL_stack_base(%rip), %rax	# PL_stack_base, PL_stack_base.18
	movl	-40(%rbp), %edx	# ax, tmp97
	movslq	%edx, %rcx	# tmp97, D.11020
	movq	-24(%rbp), %rdx	# tmpXSoff, tmpXSoff.19
	addq	%rcx, %rdx	# D.11020, D.11020
	salq	$3, %rdx	#, D.11020
	subq	$8, %rdx	#, D.11020
	addq	%rdx, %rax	# D.11020, PL_stack_sp.20
	movq	%rax, PL_stack_sp(%rip)	# PL_stack_sp.20, PL_stack_sp
	nop
.LBE2:
	.loc 1 174 0
	addq	$48, %rsp	#,
	popq	%rbx	#
	popq	%r12	#
	popq	%rbp	#
	.cfi_def_cfa 7, 8
	ret
	.cfi_endproc
.LFE4:
	.size	XS_attributes_bootstrap, .-XS_attributes_bootstrap
	.section	.rodata
	.align 8
.LC16:
	.string	"Usage: attributes::_modify_attrs $reference, @attributes"
	.text
	.globl	XS_attributes__modify_attrs
	.type	XS_attributes__modify_attrs, @function
XS_attributes__modify_attrs:
.LFB5:
	.loc 1 177 0
	.cfi_startproc
	pushq	%rbp	#
	.cfi_def_cfa_offset 16
	.cfi_offset 6, -16
	movq	%rsp, %rbp	#,
	.cfi_def_cfa_register 6
	pushq	%r12	#
	pushq	%rbx	#
	subq	$64, %rsp	#,
	.cfi_offset 12, -24
	.cfi_offset 3, -32
	movq	%rdi, -72(%rbp)	# cv, cv
	.loc 1 178 0
	movq	PL_stack_sp(%rip), %r12	# PL_stack_sp, sp
	movq	PL_stack_base(%rip), %rcx	# PL_stack_base, PL_stack_base.21
	movq	PL_markstack_ptr(%rip), %rax	# PL_markstack_ptr, PL_markstack_ptr.22
	leaq	-4(%rax), %rdx	#, PL_markstack_ptr.24
	movq	%rdx, PL_markstack_ptr(%rip)	# PL_markstack_ptr.24, PL_markstack_ptr
	movl	(%rax), %eax	# *PL_markstack_ptr.23_4, D.11029
	cltq
	salq	$3, %rax	#, D.11030
	leaq	(%rcx,%rax), %rbx	#, mark
	movq	%rbx, %rdx	# mark, mark.25
	movq	PL_stack_base(%rip), %rax	# PL_stack_base, PL_stack_base.26
	subq	%rax, %rdx	# PL_stack_base.27, D.11031
	movq	%rdx, %rax	# D.11031, D.11031
	sarq	$3, %rax	#, tmp113
	addl	$1, %eax	#, D.11032
	movl	%eax, -56(%rbp)	# D.11032, ax
	movq	%r12, %rdx	# sp, sp.28
	movq	%rbx, %rax	# mark, mark.29
	subq	%rax, %rdx	# mark.29, D.11031
	movq	%rdx, %rax	# D.11031, D.11031
	sarq	$3, %rax	#, tmp114
	movl	%eax, -52(%rbp)	# D.11031, items
	.loc 1 181 0
	cmpl	$0, -52(%rbp)	#, items
	jg	.L44	#,
.L45:
	.loc 1 183 0
	movl	$.LC16, %edi	#,
	movl	$0, %eax	#,
	call	Perl_croak	#
.L44:
	.loc 1 187 0
	movq	PL_stack_base(%rip), %rax	# PL_stack_base, PL_stack_base.30
	movl	-56(%rbp), %edx	# ax, tmp115
	movslq	%edx, %rdx	# tmp115, D.11030
	salq	$3, %rdx	#, D.11030
	addq	%rdx, %rax	# D.11030, D.11033
	movq	(%rax), %rax	# *_26, tmp116
	movq	%rax, -48(%rbp)	# tmp116, rv
	.loc 1 188 0
	movq	-48(%rbp), %rax	# rv, tmp117
	movl	12(%rax), %eax	# rv_27->sv_flags, D.11034
	andl	$118423552, %eax	#, D.11034
	testl	%eax, %eax	# D.11034
	je	.L45	#,
	.loc 1 188 0 is_stmt 0 discriminator 1
	movq	-48(%rbp), %rax	# rv, tmp118
	movl	12(%rax), %eax	# rv_27->sv_flags, D.11034
	andl	$524288, %eax	#, D.11034
	testl	%eax, %eax	# D.11034
	je	.L45	#,
	.loc 1 190 0 is_stmt 1
	movq	-48(%rbp), %rax	# rv, tmp119
	movq	(%rax), %rax	# rv_27->sv_any, D.11035
	movq	(%rax), %rax	# MEM[(struct XRV *)_32].xrv_rv, tmp120
	movq	%rax, -40(%rbp)	# tmp120, sv
	.loc 1 191 0
	cmpl	$1, -52(%rbp)	#, items
	jle	.L46	#,
.LBB3:
	.loc 1 192 0
	movl	-52(%rbp), %eax	# items, tmp121
	leal	-1(%rax), %ecx	#, D.11029
	movq	PL_stack_base(%rip), %rax	# PL_stack_base, PL_stack_base.31
	movl	-56(%rbp), %edx	# ax, tmp122
	movslq	%edx, %rdx	# tmp122, D.11036
	addq	$1, %rdx	#, D.11036
	salq	$3, %rdx	#, D.11036
	addq	%rax, %rdx	# PL_stack_base.31, D.11033
	movq	PL_stack_base(%rip), %rax	# PL_stack_base, PL_stack_base.32
	movl	-56(%rbp), %esi	# ax, tmp123
	movslq	%esi, %rsi	# tmp123, D.11030
	salq	$3, %rsi	#, D.11030
	addq	%rax, %rsi	# PL_stack_base.32, D.11033
	movq	-40(%rbp), %rax	# sv, tmp124
	movq	%rax, %rdi	# tmp124,
	call	modify_SV_attributes	#
	cltq
	movq	%rax, -32(%rbp)	# tmp125, tmpXSoff
	movq	PL_stack_base(%rip), %rax	# PL_stack_base, PL_stack_base.33
	movl	-56(%rbp), %edx	# ax, tmp126
	movslq	%edx, %rcx	# tmp126, D.11036
	movq	-32(%rbp), %rdx	# tmpXSoff, tmpXSoff.34
	addq	%rcx, %rdx	# D.11036, D.11036
	salq	$3, %rdx	#, D.11036
	subq	$8, %rdx	#, D.11036
	addq	%rdx, %rax	# D.11036, PL_stack_sp.35
	movq	%rax, PL_stack_sp(%rip)	# PL_stack_sp.35, PL_stack_sp
	jmp	.L43	#
.L46:
.LBE3:
.LBB4:
	.loc 1 194 0
	movq	$0, -24(%rbp)	#, tmpXSoff
	movq	PL_stack_base(%rip), %rax	# PL_stack_base, PL_stack_base.36
	movl	-56(%rbp), %edx	# ax, tmp127
	movslq	%edx, %rcx	# tmp127, D.11036
	movq	-24(%rbp), %rdx	# tmpXSoff, tmpXSoff.37
	addq	%rcx, %rdx	# D.11036, D.11036
	salq	$3, %rdx	#, D.11036
	subq	$8, %rdx	#, D.11036
	addq	%rdx, %rax	# D.11036, PL_stack_sp.38
	movq	%rax, PL_stack_sp(%rip)	# PL_stack_sp.38, PL_stack_sp
	nop
.L43:
.LBE4:
	.loc 1 195 0
	addq	$64, %rsp	#,
	popq	%rbx	#
	popq	%r12	#
	popq	%rbp	#
	.cfi_def_cfa 7, 8
	ret
	.cfi_endproc
.LFE5:
	.size	XS_attributes__modify_attrs, .-XS_attributes__modify_attrs
	.section	.rodata
	.align 8
.LC17:
	.string	"Usage: attributes::_fetch_attrs $reference"
.LC18:
	.string	"unique"
	.text
	.globl	XS_attributes__fetch_attrs
	.type	XS_attributes__fetch_attrs, @function
XS_attributes__fetch_attrs:
.LFB6:
	.loc 1 198 0
	.cfi_startproc
	pushq	%rbp	#
	.cfi_def_cfa_offset 16
	.cfi_offset 6, -16
	movq	%rsp, %rbp	#,
	.cfi_def_cfa_register 6
	pushq	%r12	#
	pushq	%rbx	#
	subq	$48, %rsp	#,
	.cfi_offset 12, -24
	.cfi_offset 3, -32
	movq	%rdi, -56(%rbp)	# cv, cv
	.loc 1 199 0
	movq	PL_stack_sp(%rip), %rbx	# PL_stack_sp, sp
	movq	PL_stack_base(%rip), %rcx	# PL_stack_base, PL_stack_base.39
	movq	PL_markstack_ptr(%rip), %rax	# PL_markstack_ptr, PL_markstack_ptr.40
	leaq	-4(%rax), %rdx	#, PL_markstack_ptr.42
	movq	%rdx, PL_markstack_ptr(%rip)	# PL_markstack_ptr.42, PL_markstack_ptr
	movl	(%rax), %eax	# *PL_markstack_ptr.41_17, D.11038
	cltq
	salq	$3, %rax	#, D.11039
	leaq	(%rcx,%rax), %r12	#, mark
	movq	%r12, %rdx	# mark, mark.43
	movq	PL_stack_base(%rip), %rax	# PL_stack_base, PL_stack_base.44
	subq	%rax, %rdx	# PL_stack_base.45, D.11040
	movq	%rdx, %rax	# D.11040, D.11040
	sarq	$3, %rax	#, tmp151
	addl	$1, %eax	#, D.11041
	movl	%eax, -40(%rbp)	# D.11041, ax
	movq	%rbx, %rdx	# sp, sp.46
	movq	%r12, %rax	# mark, mark.47
	subq	%rax, %rdx	# mark.47, D.11040
	movq	%rdx, %rax	# D.11040, D.11040
	sarq	$3, %rax	#, tmp152
	movl	%eax, -36(%rbp)	# D.11040, items
	.loc 1 203 0
	cmpl	$1, -36(%rbp)	#, items
	je	.L49	#,
.L50:
	.loc 1 205 0
	movl	$.LC17, %edi	#,
	movl	$0, %eax	#,
	call	Perl_croak	#
.L49:
	.loc 1 209 0
	movq	PL_stack_base(%rip), %rax	# PL_stack_base, PL_stack_base.48
	movl	-40(%rbp), %edx	# ax, tmp153
	movslq	%edx, %rdx	# tmp153, D.11039
	salq	$3, %rdx	#, D.11039
	addq	%rdx, %rax	# D.11039, D.11042
	movq	(%rax), %rax	# *_39, tmp154
	movq	%rax, -32(%rbp)	# tmp154, rv
	.loc 1 210 0
	movl	-36(%rbp), %eax	# items, tmp155
	cltq
	salq	$3, %rax	#, D.11039
	negq	%rax	# D.11043
	addq	%rax, %rbx	# D.11043, sp
	.loc 1 211 0
	movq	-32(%rbp), %rax	# rv, tmp156
	movl	12(%rax), %eax	# rv_40->sv_flags, D.11044
	andl	$118423552, %eax	#, D.11044
	testl	%eax, %eax	# D.11044
	je	.L50	#,
	.loc 1 211 0 is_stmt 0 discriminator 1
	movq	-32(%rbp), %rax	# rv, tmp157
	movl	12(%rax), %eax	# rv_40->sv_flags, D.11044
	andl	$524288, %eax	#, D.11044
	testl	%eax, %eax	# D.11044
	je	.L50	#,
	.loc 1 213 0 is_stmt 1
	movq	-32(%rbp), %rax	# rv, tmp158
	movq	(%rax), %rax	# rv_40->sv_any, D.11045
	movq	(%rax), %rax	# MEM[(struct XRV *)_49].xrv_rv, tmp159
	movq	%rax, -24(%rbp)	# tmp159, sv
	.loc 1 215 0
	movq	-24(%rbp), %rax	# sv, tmp160
	movl	12(%rax), %eax	# sv_50->sv_flags, D.11044
	movzbl	%al, %eax	# D.11044, D.11044
	cmpl	$12, %eax	#, D.11044
	je	.L52	#,
	cmpl	$13, %eax	#, D.11044
	je	.L53	#,
	.loc 1 234 0
	jmp	.L62	#
.L52:
	.loc 1 217 0
	movq	-24(%rbp), %rax	# sv, tmp161
	movq	(%rax), %rax	# MEM[(struct CV *)sv_50].sv_any, D.11046
	movzwl	136(%rax), %eax	# _53->xcv_flags, tmp162
	movw	%ax, -42(%rbp)	# tmp162, cvflags
	.loc 1 218 0
	movzwl	-42(%rbp), %eax	# cvflags, D.11038
	andl	$128, %eax	#, D.11038
	testl	%eax, %eax	# D.11038
	je	.L54	#,
.LBB5:
	.loc 1 219 0
	movq	PL_stack_max(%rip), %rax	# PL_stack_max, PL_stack_max.49
	movq	%rax, %rdx	# PL_stack_max.49, PL_stack_max.50
	movq	%rbx, %rax	# sp, sp.51
	subq	%rax, %rdx	# sp.51, D.11040
	movq	%rdx, %rax	# D.11040, D.11040
	cmpq	$7, %rax	#, D.11040
	jg	.L55	#,
	.loc 1 219 0 is_stmt 0 discriminator 1
	movl	$1, %edx	#,
	movq	%rbx, %rsi	# sp,
	movq	%rbx, %rdi	# sp,
	call	Perl_stack_grow	#
	movq	%rax, %rbx	#, sp
.L55:
	.loc 1 219 0 discriminator 2
	addq	$8, %rbx	#, sp
	movl	$6, %esi	#,
	movl	$.LC3, %edi	#,
	call	Perl_newSVpvn	#
	movq	%rax, %rdi	# D.11047,
	call	Perl_sv_2mortal	#
	movq	%rax, (%rbx)	# D.11047, *sp_62
.L54:
.LBE5:
	.loc 1 221 0 is_stmt 1
	movzwl	-42(%rbp), %eax	# cvflags, D.11038
	andl	$256, %eax	#, D.11038
	testl	%eax, %eax	# D.11038
	je	.L56	#,
.LBB6:
	.loc 1 222 0
	movq	PL_stack_max(%rip), %rax	# PL_stack_max, PL_stack_max.52
	movq	%rax, %rdx	# PL_stack_max.52, PL_stack_max.53
	movq	%rbx, %rax	# sp, sp.54
	subq	%rax, %rdx	# sp.54, D.11040
	movq	%rdx, %rax	# D.11040, D.11040
	cmpq	$7, %rax	#, D.11040
	jg	.L57	#,
	.loc 1 222 0 is_stmt 0 discriminator 1
	movl	$1, %edx	#,
	movq	%rbx, %rsi	# sp,
	movq	%rbx, %rdi	# sp,
	call	Perl_stack_grow	#
	movq	%rax, %rbx	#, sp
.L57:
	.loc 1 222 0 discriminator 2
	addq	$8, %rbx	#, sp
	movl	$6, %esi	#,
	movl	$.LC2, %edi	#,
	call	Perl_newSVpvn	#
	movq	%rax, %rdi	# D.11047,
	call	Perl_sv_2mortal	#
	movq	%rax, (%rbx)	# D.11047, *sp_73
.L56:
.LBE6:
	.loc 1 224 0 is_stmt 1
	movzwl	-42(%rbp), %eax	# cvflags, D.11038
	andl	$64, %eax	#, D.11038
	testl	%eax, %eax	# D.11038
	je	.L58	#,
.LBB7:
	.loc 1 225 0
	movq	PL_stack_max(%rip), %rax	# PL_stack_max, PL_stack_max.55
	movq	%rax, %rdx	# PL_stack_max.55, PL_stack_max.56
	movq	%rbx, %rax	# sp, sp.57
	subq	%rax, %rdx	# sp.57, D.11040
	movq	%rdx, %rax	# D.11040, D.11040
	cmpq	$7, %rax	#, D.11040
	jg	.L59	#,
	.loc 1 225 0 is_stmt 0 discriminator 1
	movl	$1, %edx	#,
	movq	%rbx, %rsi	# sp,
	movq	%rbx, %rdi	# sp,
	call	Perl_stack_grow	#
	movq	%rax, %rbx	#, sp
.L59:
	.loc 1 225 0 discriminator 2
	addq	$8, %rbx	#, sp
	movl	$6, %esi	#,
	movl	$.LC4, %edi	#,
	call	Perl_newSVpvn	#
	movq	%rax, %rdi	# D.11047,
	call	Perl_sv_2mortal	#
	movq	%rax, (%rbx)	# D.11047, *sp_84
.L58:
.LBE7:
	.loc 1 226 0 is_stmt 1
	movq	-24(%rbp), %rax	# sv, tmp163
	movq	(%rax), %rax	# MEM[(struct CV *)sv_50].sv_any, D.11046
	movq	96(%rax), %rax	# _88->xcv_gv, D.11048
	movq	(%rax), %rax	# _89->sv_any, D.11049
	movq	56(%rax), %rax	# _90->xgv_gp, D.11050
	testq	%rax, %rax	# D.11050
	je	.L60	#,
	.loc 1 226 0 is_stmt 0 discriminator 1
	movq	-24(%rbp), %rax	# sv, tmp164
	movq	(%rax), %rax	# MEM[(struct CV *)sv_50].sv_any, D.11046
	movq	96(%rax), %rax	# _92->xcv_gv, D.11048
	movq	(%rax), %rax	# _93->sv_any, D.11049
	movq	56(%rax), %rax	# _94->xgv_gp, D.11050
	movl	68(%rax), %eax	# _95->gp_flags, D.11044
	andl	$1, %eax	#, D.11044
	testl	%eax, %eax	# D.11044
	je	.L60	#,
.LBB8:
	.loc 1 227 0 is_stmt 1
	movq	PL_stack_max(%rip), %rax	# PL_stack_max, PL_stack_max.58
	movq	%rax, %rdx	# PL_stack_max.58, PL_stack_max.59
	movq	%rbx, %rax	# sp, sp.60
	subq	%rax, %rdx	# sp.60, D.11040
	movq	%rdx, %rax	# D.11040, D.11040
	cmpq	$7, %rax	#, D.11040
	jg	.L61	#,
	.loc 1 227 0 is_stmt 0 discriminator 1
	movl	$1, %edx	#,
	movq	%rbx, %rsi	# sp,
	movq	%rbx, %rdi	# sp,
	call	Perl_stack_grow	#
	movq	%rax, %rbx	#, sp
.L61:
	.loc 1 227 0 discriminator 2
	addq	$8, %rbx	#, sp
	movl	$6, %esi	#,
	movl	$.LC18, %edi	#,
	call	Perl_newSVpvn	#
	movq	%rax, %rdi	# D.11047,
	call	Perl_sv_2mortal	#
	movq	%rax, (%rbx)	# D.11047, *sp_103
.LBE8:
	.loc 1 228 0 is_stmt 1 discriminator 2
	jmp	.L62	#
.L60:
	.loc 1 228 0 is_stmt 0
	jmp	.L62	#
.L53:
	.loc 1 230 0 is_stmt 1
	movq	-24(%rbp), %rax	# sv, tmp165
	movq	(%rax), %rax	# sv_50->sv_any, D.11045
	movq	56(%rax), %rax	# MEM[(struct XPVGV *)_107].xgv_gp, D.11050
	testq	%rax, %rax	# D.11050
	je	.L63	#,
	.loc 1 230 0 is_stmt 0 discriminator 1
	movq	-24(%rbp), %rax	# sv, tmp166
	movq	(%rax), %rax	# sv_50->sv_any, D.11045
	movq	56(%rax), %rax	# MEM[(struct XPVGV *)_109].xgv_gp, D.11050
	movl	68(%rax), %eax	# _110->gp_flags, D.11044
	andl	$1, %eax	#, D.11044
	testl	%eax, %eax	# D.11044
	je	.L63	#,
.LBB9:
	.loc 1 231 0 is_stmt 1
	movq	PL_stack_max(%rip), %rax	# PL_stack_max, PL_stack_max.61
	movq	%rax, %rdx	# PL_stack_max.61, PL_stack_max.62
	movq	%rbx, %rax	# sp, sp.63
	subq	%rax, %rdx	# sp.63, D.11040
	movq	%rdx, %rax	# D.11040, D.11040
	cmpq	$7, %rax	#, D.11040
	jg	.L64	#,
	.loc 1 231 0 is_stmt 0 discriminator 1
	movl	$1, %edx	#,
	movq	%rbx, %rsi	# sp,
	movq	%rbx, %rdi	# sp,
	call	Perl_stack_grow	#
	movq	%rax, %rbx	#, sp
.L64:
	.loc 1 231 0 discriminator 2
	addq	$8, %rbx	#, sp
	movl	$6, %esi	#,
	movl	$.LC18, %edi	#,
	call	Perl_newSVpvn	#
	movq	%rax, %rdi	# D.11047,
	call	Perl_sv_2mortal	#
	movq	%rax, (%rbx)	# D.11047, *sp_118
.LBE9:
	.loc 1 232 0 is_stmt 1 discriminator 2
	jmp	.L65	#
.L63:
.L65:
	.loc 1 232 0 is_stmt 0
	nop
.L62:
	.loc 1 237 0 is_stmt 1
	movq	%rbx, PL_stack_sp(%rip)	# sp, PL_stack_sp
	.loc 1 238 0
	addq	$48, %rsp	#,
	popq	%rbx	#
	popq	%r12	#
	popq	%rbp	#
	.cfi_def_cfa 7, 8
	ret
	.cfi_endproc
.LFE6:
	.size	XS_attributes__fetch_attrs, .-XS_attributes__fetch_attrs
	.section	.rodata
	.align 8
.LC19:
	.string	"Usage: attributes::_guess_stash $reference"
	.text
	.globl	XS_attributes__guess_stash
	.type	XS_attributes__guess_stash, @function
XS_attributes__guess_stash:
.LFB7:
	.loc 1 241 0
	.cfi_startproc
	pushq	%rbp	#
	.cfi_def_cfa_offset 16
	.cfi_offset 6, -16
	movq	%rsp, %rbp	#,
	.cfi_def_cfa_register 6
	pushq	%r12	#
	pushq	%rbx	#
	subq	$64, %rsp	#,
	.cfi_offset 12, -24
	.cfi_offset 3, -32
	movq	%rdi, -72(%rbp)	# cv, cv
	.loc 1 242 0
	movq	PL_stack_sp(%rip), %r12	# PL_stack_sp, sp
	movq	PL_stack_base(%rip), %rcx	# PL_stack_base, PL_stack_base.64
	movq	PL_markstack_ptr(%rip), %rax	# PL_markstack_ptr, PL_markstack_ptr.65
	leaq	-4(%rax), %rdx	#, PL_markstack_ptr.67
	movq	%rdx, PL_markstack_ptr(%rip)	# PL_markstack_ptr.67, PL_markstack_ptr
	movl	(%rax), %eax	# *PL_markstack_ptr.66_10, D.11053
	cltq
	salq	$3, %rax	#, D.11054
	leaq	(%rcx,%rax), %rbx	#, mark
	movq	%rbx, %rdx	# mark, mark.68
	movq	PL_stack_base(%rip), %rax	# PL_stack_base, PL_stack_base.69
	subq	%rax, %rdx	# PL_stack_base.70, D.11055
	movq	%rdx, %rax	# D.11055, D.11055
	sarq	$3, %rax	#, tmp159
	addl	$1, %eax	#, D.11056
	movl	%eax, -64(%rbp)	# D.11056, ax
	movq	%r12, %rdx	# sp, sp.71
	movq	%rbx, %rax	# mark, mark.72
	subq	%rax, %rdx	# mark.72, D.11055
	movq	%rdx, %rax	# D.11055, D.11055
	sarq	$3, %rax	#, tmp160
	movl	%eax, -60(%rbp)	# D.11055, items
	.loc 1 244 0
	movq	PL_op(%rip), %rax	# PL_op, PL_op.74
	movzbl	37(%rax), %eax	# PL_op.74_29->op_private, D.11057
	movzbl	%al, %eax	# D.11057, D.11053
	andl	$32, %eax	#, D.11053
	testl	%eax, %eax	# D.11053
	je	.L67	#,
	.loc 1 244 0 is_stmt 0 discriminator 1
	movq	PL_curpad(%rip), %rdx	# PL_curpad, PL_curpad.75
	movq	PL_op(%rip), %rax	# PL_op, PL_op.76
	movq	24(%rax), %rax	# PL_op.76_34->op_targ, D.11054
	salq	$3, %rax	#, D.11054
	addq	%rdx, %rax	# PL_curpad.75, D.11058
	movq	(%rax), %rax	# *_37, iftmp.73
	jmp	.L68	#
.L67:
	.loc 1 244 0 discriminator 2
	call	Perl_sv_newmortal	#
.L68:
	.loc 1 244 0 discriminator 3
	movq	%rax, -48(%rbp)	# iftmp.73, targ
	.loc 1 246 0 is_stmt 1 discriminator 3
	cmpl	$1, -60(%rbp)	#, items
	je	.L69	#,
.L70:
	.loc 1 248 0
	movl	$.LC19, %edi	#,
	movl	$0, %eax	#,
	call	Perl_croak	#
.L69:
	.loc 1 252 0
	movq	PL_stack_base(%rip), %rax	# PL_stack_base, PL_stack_base.77
	movl	-64(%rbp), %edx	# ax, tmp161
	movslq	%edx, %rdx	# tmp161, D.11054
	salq	$3, %rdx	#, D.11054
	addq	%rdx, %rax	# D.11054, D.11058
	movq	(%rax), %rax	# *_44, tmp162
	movq	%rax, -40(%rbp)	# tmp162, rv
	.loc 1 253 0
	movq	PL_stack_base(%rip), %rax	# PL_stack_base, PL_stack_base.78
	movl	-64(%rbp), %edx	# ax, tmp163
	movslq	%edx, %rdx	# tmp163, D.11054
	salq	$3, %rdx	#, D.11054
	addq	%rax, %rdx	# PL_stack_base.78, D.11058
	movq	-48(%rbp), %rax	# targ, tmp164
	movq	%rax, (%rdx)	# tmp164, *_49
	.loc 1 254 0
	movq	-40(%rbp), %rax	# rv, tmp165
	movl	12(%rax), %eax	# rv_45->sv_flags, D.11059
	andl	$118423552, %eax	#, D.11059
	testl	%eax, %eax	# D.11059
	je	.L70	#,
	.loc 1 254 0 is_stmt 0 discriminator 1
	movq	-40(%rbp), %rax	# rv, tmp166
	movl	12(%rax), %eax	# rv_45->sv_flags, D.11059
	andl	$524288, %eax	#, D.11059
	testl	%eax, %eax	# D.11059
	je	.L70	#,
	.loc 1 256 0 is_stmt 1
	movq	-40(%rbp), %rax	# rv, tmp167
	movq	(%rax), %rax	# rv_45->sv_any, D.11060
	movq	(%rax), %rax	# MEM[(struct XRV *)_54].xrv_rv, tmp168
	movq	%rax, -32(%rbp)	# tmp168, sv
	.loc 1 258 0
	movq	-32(%rbp), %rax	# sv, tmp169
	movl	12(%rax), %eax	# sv_55->sv_flags, D.11059
	andl	$4096, %eax	#, D.11059
	testl	%eax, %eax	# D.11059
	je	.L71	#,
	.loc 1 259 0
	movq	-32(%rbp), %rax	# sv, tmp170
	movq	(%rax), %rax	# sv_55->sv_any, D.11060
	movq	48(%rax), %rax	# MEM[(struct XPVMG *)_58].xmg_stash, D.11061
	movq	(%rax), %rax	# _59->sv_any, D.11062
	movq	80(%rax), %rdx	# _60->xhv_name, D.11063
	movq	-48(%rbp), %rax	# targ, tmp171
	movq	%rdx, %rsi	# D.11063,
	movq	%rax, %rdi	# tmp171,
	call	Perl_sv_setpv	#
	jmp	.L72	#
.L71:
.LBB10:
	.loc 1 265 0
	movq	$0, -56(%rbp)	#, stash
	.loc 1 266 0
	movq	-32(%rbp), %rax	# sv, tmp172
	movl	12(%rax), %eax	# sv_55->sv_flags, D.11059
	movzbl	%al, %eax	# D.11059, D.11059
	cmpl	$12, %eax	#, D.11059
	je	.L74	#,
	cmpl	$13, %eax	#, D.11059
	je	.L75	#,
	cmpl	$7, %eax	#, D.11059
	je	.L76	#,
	.loc 1 282 0
	jmp	.L79	#
.L74:
	.loc 1 268 0
	movq	-32(%rbp), %rax	# sv, tmp173
	movq	(%rax), %rax	# sv_55->sv_any, D.11060
	movq	96(%rax), %rax	# MEM[(struct XPVCV *)_65].xcv_gv, D.11064
	testq	%rax, %rax	# D.11064
	je	.L77	#,
	.loc 1 268 0 is_stmt 0 discriminator 1
	movq	-32(%rbp), %rax	# sv, tmp174
	movq	(%rax), %rax	# sv_55->sv_any, D.11060
	movq	96(%rax), %rax	# MEM[(struct XPVCV *)_67].xcv_gv, D.11064
	movl	12(%rax), %eax	# _68->sv_flags, D.11059
	movzbl	%al, %eax	# D.11059, D.11059
	cmpl	$13, %eax	#, D.11059
	jne	.L77	#,
	movq	-32(%rbp), %rax	# sv, tmp175
	movq	(%rax), %rax	# sv_55->sv_any, D.11060
	movq	96(%rax), %rax	# MEM[(struct XPVCV *)_71].xcv_gv, D.11064
	movq	(%rax), %rax	# _72->sv_any, D.11065
	movq	80(%rax), %rax	# _73->xgv_stash, D.11061
	testq	%rax, %rax	# D.11061
	je	.L77	#,
	.loc 1 269 0 is_stmt 1
	movq	-32(%rbp), %rax	# sv, tmp176
	movq	(%rax), %rax	# sv_55->sv_any, D.11060
	movq	96(%rax), %rax	# MEM[(struct XPVCV *)_75].xcv_gv, D.11064
	movq	(%rax), %rax	# _76->sv_any, D.11065
	movq	80(%rax), %rax	# _77->xgv_stash, tmp177
	movq	%rax, -56(%rbp)	# tmp177, stash
	jmp	.L78	#
.L77:
	.loc 1 270 0
	movq	-32(%rbp), %rax	# sv, tmp178
	movq	(%rax), %rax	# sv_55->sv_any, D.11060
	movq	56(%rax), %rax	# MEM[(struct XPVCV *)_79].xcv_stash, D.11061
	testq	%rax, %rax	# D.11061
	je	.L78	#,
	.loc 1 271 0
	movq	-32(%rbp), %rax	# sv, tmp179
	movq	(%rax), %rax	# sv_55->sv_any, D.11060
	movq	56(%rax), %rax	# MEM[(struct XPVCV *)_81].xcv_stash, tmp180
	movq	%rax, -56(%rbp)	# tmp180, stash
	.loc 1 272 0
	jmp	.L79	#
.L78:
	jmp	.L79	#
.L76:
	.loc 1 274 0
	movq	-32(%rbp), %rax	# sv, tmp181
	movl	12(%rax), %eax	# sv_55->sv_flags, D.11059
	andl	$1048576, %eax	#, D.11059
	testl	%eax, %eax	# D.11059
	je	.L79	#,
	.loc 1 274 0 is_stmt 0 discriminator 1
	movq	-32(%rbp), %rax	# sv, tmp182
	movl	12(%rax), %eax	# sv_55->sv_flags, D.11059
	andl	$32768, %eax	#, D.11059
	testl	%eax, %eax	# D.11059
	je	.L79	#,
	movq	-32(%rbp), %rax	# sv, tmp183
	movl	$42, %esi	#,
	movq	%rax, %rdi	# tmp183,
	call	Perl_mg_find	#
	testq	%rax, %rax	# D.11066
	je	.L79	#,
.L75:
	.loc 1 278 0 is_stmt 1
	movq	-32(%rbp), %rax	# sv, tmp184
	movq	(%rax), %rax	# sv_55->sv_any, D.11060
	movq	56(%rax), %rax	# MEM[(struct XPVGV *)_88].xgv_gp, D.11067
	testq	%rax, %rax	# D.11067
	je	.L80	#,
	.loc 1 278 0 is_stmt 0 discriminator 1
	movq	-32(%rbp), %rax	# sv, tmp185
	movq	(%rax), %rax	# MEM[(struct GV *)sv_55].sv_any, D.11065
	movq	56(%rax), %rax	# _90->xgv_gp, D.11067
	movq	48(%rax), %rax	# _91->gp_egv, D.11064
	testq	%rax, %rax	# D.11064
	je	.L81	#,
	movq	-32(%rbp), %rax	# sv, tmp186
	movq	(%rax), %rax	# MEM[(struct GV *)sv_55].sv_any, D.11065
	movq	56(%rax), %rax	# _93->xgv_gp, D.11067
	movq	48(%rax), %rax	# _94->gp_egv, iftmp.79
	jmp	.L82	#
.L81:
	.loc 1 278 0 discriminator 2
	movq	-32(%rbp), %rax	# sv, iftmp.79
.L82:
	.loc 1 278 0 discriminator 3
	movq	(%rax), %rax	# iftmp.79_5->sv_any, D.11065
	movq	80(%rax), %rax	# _97->xgv_stash, D.11061
	testq	%rax, %rax	# D.11061
	je	.L80	#,
	.loc 1 279 0 is_stmt 1
	movq	-32(%rbp), %rax	# sv, tmp187
	movq	(%rax), %rax	# MEM[(struct GV *)sv_55].sv_any, D.11065
	movq	56(%rax), %rax	# _99->xgv_gp, D.11067
	movq	48(%rax), %rax	# _100->gp_egv, D.11064
	testq	%rax, %rax	# D.11064
	je	.L83	#,
	.loc 1 279 0 is_stmt 0 discriminator 1
	movq	-32(%rbp), %rax	# sv, tmp188
	movq	(%rax), %rax	# MEM[(struct GV *)sv_55].sv_any, D.11065
	movq	56(%rax), %rax	# _102->xgv_gp, D.11067
	movq	48(%rax), %rax	# _103->gp_egv, iftmp.80
	jmp	.L84	#
.L83:
	.loc 1 279 0 discriminator 2
	movq	-32(%rbp), %rax	# sv, iftmp.80
.L84:
	.loc 1 279 0 discriminator 3
	movq	(%rax), %rax	# iftmp.80_6->sv_any, D.11065
	movq	80(%rax), %rax	# _106->xgv_stash, tmp189
	movq	%rax, -56(%rbp)	# tmp189, stash
	.loc 1 280 0 is_stmt 1 discriminator 3
	jmp	.L87	#
.L80:
.L87:
	.loc 1 280 0 is_stmt 0
	nop
.L79:
	.loc 1 284 0 is_stmt 1
	cmpq	$0, -56(%rbp)	#, stash
	je	.L72	#,
	.loc 1 285 0
	movq	-56(%rbp), %rax	# stash, tmp190
	movq	(%rax), %rax	# stash_3->sv_any, D.11062
	movq	80(%rax), %rdx	# _108->xhv_name, D.11063
	movq	-48(%rbp), %rax	# targ, tmp191
	movq	%rdx, %rsi	# D.11063,
	movq	%rax, %rdi	# tmp191,
	call	Perl_sv_setpv	#
.L72:
.LBE10:
	.loc 1 288 0
	movq	-48(%rbp), %rax	# targ, tmp192
	movl	12(%rax), %eax	# targ_40->sv_flags, D.11059
	andl	$16384, %eax	#, D.11059
	testl	%eax, %eax	# D.11059
	je	.L85	#,
	.loc 1 288 0 is_stmt 0 discriminator 1
	movq	-48(%rbp), %rax	# targ, tmp193
	movq	%rax, %rdi	# tmp193,
	call	Perl_mg_set	#
.L85:
.LBB11:
	.loc 1 289 0 is_stmt 1
	movq	$1, -24(%rbp)	#, tmpXSoff
	movq	PL_stack_base(%rip), %rax	# PL_stack_base, PL_stack_base.81
	movl	-64(%rbp), %edx	# ax, tmp194
	movslq	%edx, %rcx	# tmp194, D.11068
	movq	-24(%rbp), %rdx	# tmpXSoff, tmpXSoff.82
	addq	%rcx, %rdx	# D.11068, D.11068
	salq	$3, %rdx	#, D.11068
	subq	$8, %rdx	#, D.11068
	addq	%rdx, %rax	# D.11068, PL_stack_sp.83
	movq	%rax, PL_stack_sp(%rip)	# PL_stack_sp.83, PL_stack_sp
	nop
.LBE11:
	.loc 1 290 0
	addq	$64, %rsp	#,
	popq	%rbx	#
	popq	%r12	#
	popq	%rbp	#
	.cfi_def_cfa 7, 8
	ret
	.cfi_endproc
.LFE7:
	.size	XS_attributes__guess_stash, .-XS_attributes__guess_stash
	.section	.rodata
	.align 8
.LC20:
	.string	"Usage: attributes::reftype $reference"
	.text
	.globl	XS_attributes_reftype
	.type	XS_attributes_reftype, @function
XS_attributes_reftype:
.LFB8:
	.loc 1 293 0
	.cfi_startproc
	pushq	%rbp	#
	.cfi_def_cfa_offset 16
	.cfi_offset 6, -16
	movq	%rsp, %rbp	#,
	.cfi_def_cfa_register 6
	pushq	%r12	#
	pushq	%rbx	#
	subq	$64, %rsp	#,
	.cfi_offset 12, -24
	.cfi_offset 3, -32
	movq	%rdi, -72(%rbp)	# cv, cv
	.loc 1 294 0
	movq	PL_stack_sp(%rip), %r12	# PL_stack_sp, sp
	movq	PL_stack_base(%rip), %rcx	# PL_stack_base, PL_stack_base.84
	movq	PL_markstack_ptr(%rip), %rax	# PL_markstack_ptr, PL_markstack_ptr.85
	leaq	-4(%rax), %rdx	#, PL_markstack_ptr.87
	movq	%rdx, PL_markstack_ptr(%rip)	# PL_markstack_ptr.87, PL_markstack_ptr
	movl	(%rax), %eax	# *PL_markstack_ptr.86_5, D.11070
	cltq
	salq	$3, %rax	#, D.11071
	leaq	(%rcx,%rax), %rbx	#, mark
	movq	%rbx, %rdx	# mark, mark.88
	movq	PL_stack_base(%rip), %rax	# PL_stack_base, PL_stack_base.89
	subq	%rax, %rdx	# PL_stack_base.90, D.11072
	movq	%rdx, %rax	# D.11072, D.11072
	sarq	$3, %rax	#, tmp114
	addl	$1, %eax	#, D.11073
	movl	%eax, -56(%rbp)	# D.11073, ax
	movq	%r12, %rdx	# sp, sp.91
	movq	%rbx, %rax	# mark, mark.92
	subq	%rax, %rdx	# mark.92, D.11072
	movq	%rdx, %rax	# D.11072, D.11072
	sarq	$3, %rax	#, tmp115
	movl	%eax, -52(%rbp)	# D.11072, items
	.loc 1 296 0
	movq	PL_op(%rip), %rax	# PL_op, PL_op.94
	movzbl	37(%rax), %eax	# PL_op.94_24->op_private, D.11074
	movzbl	%al, %eax	# D.11074, D.11070
	andl	$32, %eax	#, D.11070
	testl	%eax, %eax	# D.11070
	je	.L89	#,
	.loc 1 296 0 is_stmt 0 discriminator 1
	movq	PL_curpad(%rip), %rdx	# PL_curpad, PL_curpad.95
	movq	PL_op(%rip), %rax	# PL_op, PL_op.96
	movq	24(%rax), %rax	# PL_op.96_29->op_targ, D.11071
	salq	$3, %rax	#, D.11071
	addq	%rdx, %rax	# PL_curpad.95, D.11075
	movq	(%rax), %rax	# *_32, iftmp.93
	jmp	.L90	#
.L89:
	.loc 1 296 0 discriminator 2
	call	Perl_sv_newmortal	#
.L90:
	.loc 1 296 0 discriminator 3
	movq	%rax, -48(%rbp)	# iftmp.93, targ
	.loc 1 298 0 is_stmt 1 discriminator 3
	cmpl	$1, -52(%rbp)	#, items
	je	.L91	#,
.L92:
	.loc 1 300 0
	movl	$.LC20, %edi	#,
	movl	$0, %eax	#,
	call	Perl_croak	#
.L91:
	.loc 1 304 0
	movq	PL_stack_base(%rip), %rax	# PL_stack_base, PL_stack_base.97
	movl	-56(%rbp), %edx	# ax, tmp116
	movslq	%edx, %rdx	# tmp116, D.11071
	salq	$3, %rdx	#, D.11071
	addq	%rdx, %rax	# D.11071, D.11075
	movq	(%rax), %rax	# *_39, tmp117
	movq	%rax, -40(%rbp)	# tmp117, rv
	.loc 1 305 0
	movq	PL_stack_base(%rip), %rax	# PL_stack_base, PL_stack_base.98
	movl	-56(%rbp), %edx	# ax, tmp118
	movslq	%edx, %rdx	# tmp118, D.11071
	salq	$3, %rdx	#, D.11071
	addq	%rax, %rdx	# PL_stack_base.98, D.11075
	movq	-48(%rbp), %rax	# targ, tmp119
	movq	%rax, (%rdx)	# tmp119, *_44
	.loc 1 306 0
	movq	-40(%rbp), %rax	# rv, tmp120
	movl	12(%rax), %eax	# rv_40->sv_flags, D.11076
	andl	$8192, %eax	#, D.11076
	testl	%eax, %eax	# D.11076
	je	.L93	#,
	.loc 1 307 0
	movq	-40(%rbp), %rax	# rv, tmp121
	movq	%rax, %rdi	# tmp121,
	call	Perl_mg_get	#
.L93:
	.loc 1 308 0
	movq	-40(%rbp), %rax	# rv, tmp122
	movl	12(%rax), %eax	# rv_40->sv_flags, D.11076
	andl	$118423552, %eax	#, D.11076
	testl	%eax, %eax	# D.11076
	je	.L92	#,
	.loc 1 308 0 is_stmt 0 discriminator 1
	movq	-40(%rbp), %rax	# rv, tmp123
	movl	12(%rax), %eax	# rv_40->sv_flags, D.11076
	andl	$524288, %eax	#, D.11076
	testl	%eax, %eax	# D.11076
	je	.L92	#,
	.loc 1 310 0 is_stmt 1
	movq	-40(%rbp), %rax	# rv, tmp124
	movq	(%rax), %rax	# rv_40->sv_any, D.11077
	movq	(%rax), %rax	# MEM[(struct XRV *)_51].xrv_rv, tmp125
	movq	%rax, -32(%rbp)	# tmp125, sv
	.loc 1 311 0
	movq	-32(%rbp), %rax	# sv, tmp126
	movl	$0, %esi	#,
	movq	%rax, %rdi	# tmp126,
	call	Perl_sv_reftype	#
	movq	%rax, %rdx	#, D.11078
	movq	-48(%rbp), %rax	# targ, tmp127
	movq	%rdx, %rsi	# D.11078,
	movq	%rax, %rdi	# tmp127,
	call	Perl_sv_setpv	#
	.loc 1 312 0
	movq	-48(%rbp), %rax	# targ, tmp128
	movl	12(%rax), %eax	# targ_35->sv_flags, D.11076
	andl	$16384, %eax	#, D.11076
	testl	%eax, %eax	# D.11076
	je	.L94	#,
	.loc 1 312 0 is_stmt 0 discriminator 1
	movq	-48(%rbp), %rax	# targ, tmp129
	movq	%rax, %rdi	# tmp129,
	call	Perl_mg_set	#
.L94:
.LBB12:
	.loc 1 314 0 is_stmt 1
	movq	$1, -24(%rbp)	#, tmpXSoff
	movq	PL_stack_base(%rip), %rax	# PL_stack_base, PL_stack_base.99
	movl	-56(%rbp), %edx	# ax, tmp130
	movslq	%edx, %rcx	# tmp130, D.11079
	movq	-24(%rbp), %rdx	# tmpXSoff, tmpXSoff.100
	addq	%rcx, %rdx	# D.11079, D.11079
	salq	$3, %rdx	#, D.11079
	subq	$8, %rdx	#, D.11079
	addq	%rdx, %rax	# D.11079, PL_stack_sp.101
	movq	%rax, PL_stack_sp(%rip)	# PL_stack_sp.101, PL_stack_sp
	nop
.LBE12:
	.loc 1 315 0
	addq	$64, %rsp	#,
	popq	%rbx	#
	popq	%r12	#
	popq	%rbp	#
	.cfi_def_cfa 7, 8
	ret
	.cfi_endproc
.LFE8:
	.size	XS_attributes_reftype, .-XS_attributes_reftype
	.section	.rodata
	.align 8
.LC21:
	.string	"Usage: attributes::_warn_reserved ()"
	.text
	.globl	XS_attributes__warn_reserved
	.type	XS_attributes__warn_reserved, @function
XS_attributes__warn_reserved:
.LFB9:
	.loc 1 318 0
	.cfi_startproc
	pushq	%rbp	#
	.cfi_def_cfa_offset 16
	.cfi_offset 6, -16
	movq	%rsp, %rbp	#,
	.cfi_def_cfa_register 6
	pushq	%r12	#
	pushq	%rbx	#
	subq	$32, %rsp	#,
	.cfi_offset 12, -24
	.cfi_offset 3, -32
	movq	%rdi, -40(%rbp)	# cv, cv
	.loc 1 319 0
	movq	PL_stack_sp(%rip), %rbx	# PL_stack_sp, sp
	movq	PL_stack_base(%rip), %rcx	# PL_stack_base, PL_stack_base.102
	movq	PL_markstack_ptr(%rip), %rax	# PL_markstack_ptr, PL_markstack_ptr.103
	leaq	-4(%rax), %rdx	#, PL_markstack_ptr.105
	movq	%rdx, PL_markstack_ptr(%rip)	# PL_markstack_ptr.105, PL_markstack_ptr
	movl	(%rax), %eax	# *PL_markstack_ptr.104_5, D.11081
	cltq
	salq	$3, %rax	#, D.11082
	leaq	(%rcx,%rax), %r12	#, mark
	movq	%r12, %rdx	# mark, mark.106
	movq	PL_stack_base(%rip), %rax	# PL_stack_base, PL_stack_base.107
	subq	%rax, %rdx	# PL_stack_base.108, D.11083
	movq	%rdx, %rax	# D.11083, D.11083
	sarq	$3, %rax	#, tmp114
	addl	$1, %eax	#, D.11084
	movl	%eax, -32(%rbp)	# D.11084, ax
	movq	%rbx, %rdx	# sp, sp.109
	movq	%r12, %rax	# mark, mark.110
	subq	%rax, %rdx	# mark.110, D.11083
	movq	%rdx, %rax	# D.11083, D.11083
	sarq	$3, %rax	#, tmp115
	movl	%eax, -28(%rbp)	# D.11083, items
	.loc 1 321 0
	cmpl	$0, -28(%rbp)	#, items
	je	.L97	#,
	.loc 1 322 0
	movl	$.LC21, %edi	#,
	movl	$0, %eax	#,
	call	Perl_croak	#
.L97:
	.loc 1 326 0
	movq	PL_stack_max(%rip), %rax	# PL_stack_max, PL_stack_max.111
	movq	%rax, %rdx	# PL_stack_max.111, PL_stack_max.112
	movq	%rbx, %rax	# sp, sp.113
	subq	%rax, %rdx	# sp.113, D.11083
	movq	%rdx, %rax	# D.11083, D.11083
	cmpq	$7, %rax	#, D.11083
	jg	.L98	#,
	.loc 1 326 0 is_stmt 0 discriminator 1
	movl	$1, %edx	#,
	movq	%rbx, %rsi	# sp,
	movq	%rbx, %rdi	# sp,
	call	Perl_stack_grow	#
	movq	%rax, %rbx	#, sp
.L98:
	.loc 1 327 0 is_stmt 1
	movq	PL_stack_base(%rip), %rax	# PL_stack_base, PL_stack_base.114
	movl	-32(%rbp), %edx	# ax, tmp116
	movslq	%edx, %rdx	# tmp116, D.11082
	salq	$3, %rdx	#, D.11082
	addq	%rax, %rdx	# PL_stack_base.114, D.11085
	movq	PL_curcop(%rip), %rax	# PL_curcop, PL_curcop.116
	movq	80(%rax), %rax	# PL_curcop.116_33->cop_warnings, D.11086
	testq	%rax, %rax	# D.11086
	je	.L99	#,
	.loc 1 327 0 is_stmt 0 discriminator 1
	movq	PL_curcop(%rip), %rax	# PL_curcop, PL_curcop.117
	movq	80(%rax), %rax	# PL_curcop.117_35->cop_warnings, D.11086
	cmpq	$32, %rax	#, D.11086
	je	.L99	#,
	movq	PL_curcop(%rip), %rax	# PL_curcop, PL_curcop.118
	movq	80(%rax), %rax	# PL_curcop.118_37->cop_warnings, D.11086
	cmpq	$16, %rax	#, D.11086
	je	.L100	#,
	.loc 1 327 0 discriminator 2
	movq	PL_curcop(%rip), %rax	# PL_curcop, PL_curcop.119
	movq	80(%rax), %rax	# PL_curcop.119_39->cop_warnings, D.11086
	movq	(%rax), %rax	# _40->sv_any, D.11087
	movq	(%rax), %rax	# MEM[(struct XPV *)_41].xpv_pv, D.11088
	addq	$9, %rax	#, D.11088
	movzbl	(%rax), %eax	# *_43, D.11089
	movsbl	%al, %eax	# D.11089, D.11081
	andl	$4, %eax	#, D.11081
	testl	%eax, %eax	# D.11081
	jne	.L100	#,
.L99:
	movq	PL_curcop(%rip), %rax	# PL_curcop, PL_curcop.120
	movq	80(%rax), %rax	# PL_curcop.120_47->cop_warnings, D.11086
	testq	%rax, %rax	# D.11086
	jne	.L101	#,
	.loc 1 327 0 discriminator 1
	movzbl	PL_dowarn(%rip), %eax	# PL_dowarn, PL_dowarn.121
	movzbl	%al, %eax	# PL_dowarn.121, D.11081
	andl	$1, %eax	#, D.11081
	testl	%eax, %eax	# D.11081
	je	.L101	#,
.L100:
	movl	$PL_sv_yes, %eax	#, iftmp.115
	jmp	.L102	#
.L101:
	.loc 1 327 0 discriminator 2
	movl	$PL_sv_no, %eax	#, iftmp.115
.L102:
	.loc 1 327 0 discriminator 3
	movq	%rax, (%rdx)	# iftmp.115, *_32
.LBB13:
	.loc 1 329 0 is_stmt 1 discriminator 3
	movq	$1, -24(%rbp)	#, tmpXSoff
	movq	PL_stack_base(%rip), %rax	# PL_stack_base, PL_stack_base.122
	movl	-32(%rbp), %edx	# ax, tmp117
	movslq	%edx, %rcx	# tmp117, D.11090
	movq	-24(%rbp), %rdx	# tmpXSoff, tmpXSoff.123
	addq	%rcx, %rdx	# D.11090, D.11090
	salq	$3, %rdx	#, D.11090
	subq	$8, %rdx	#, D.11090
	addq	%rdx, %rax	# D.11090, PL_stack_sp.124
	movq	%rax, PL_stack_sp(%rip)	# PL_stack_sp.124, PL_stack_sp
	nop
.LBE13:
	.loc 1 330 0 discriminator 3
	addq	$32, %rsp	#,
	popq	%rbx	#
	popq	%r12	#
	popq	%rbp	#
	.cfi_def_cfa 7, 8
	ret
	.cfi_endproc
.LFE9:
	.size	XS_attributes__warn_reserved, .-XS_attributes__warn_reserved
.Letext0:
	.file 2 "/usr/include/x86_64-linux-gnu/bits/types.h"
	.file 3 "/usr/include/x86_64-linux-gnu/sys/types.h"
	.file 4 "/usr/lib/gcc/x86_64-linux-gnu/4.8/include/stddef.h"
	.file 5 "/usr/include/dirent.h"
	.file 6 "perl.h"
	.file 7 "op.h"
	.file 8 "cop.h"
	.file 9 "sv.h"
	.file 10 "regexp.h"
	.file 11 "gv.h"
	.file 12 "mg.h"
	.file 13 "av.h"
	.file 14 "hv.h"
	.file 15 "cv.h"
	.file 16 "handy.h"
	.file 17 "perlio.h"
	.file 18 "pad.h"
	.file 19 "intrpvar.h"
	.file 20 "thrdvar.h"
	.section	.note.GNU-stack,"",@progbits
