	.file	"main.c"
# GNU C (Ubuntu/Linaro 4.8.1-10ubuntu9) version 4.8.1 (x86_64-linux-gnu)
#	compiled by GNU C version 4.8.1, GMP version 5.1.2, MPFR version 3.1.1-p2, MPC version 1.0.1
# GGC heuristics: --param ggc-min-expand=100 --param ggc-min-heapsize=131072
# options passed:  -imultiarch x86_64-linux-gnu -D SPEC_CPU -D NDEBUG
# -D SPEC_CPU_LP64 main.c -mtune=generic -march=x86-64 -g -fverbose-asm
# -fno-strict-aliasing -fstack-protector -Wformat -Wformat-security
# options enabled:  -faggressive-loop-optimizations
# -fasynchronous-unwind-tables -fauto-inc-dec -fbranch-count-reg -fcommon
# -fdelete-null-pointer-checks -fdwarf2-cfi-asm -fearly-inlining
# -feliminate-unused-debug-types -ffunction-cse -fgcse-lm -fgnu-runtime
# -fident -finline-atomics -fira-hoist-pressure -fira-share-save-slots
# -fira-share-spill-slots -fivopts -fkeep-static-consts
# -fleading-underscore -fmath-errno -fmerge-debug-strings
# -fmove-loop-invariants -fpeephole -fprefetch-loop-arrays
# -freg-struct-return -fsched-critical-path-heuristic
# -fsched-dep-count-heuristic -fsched-group-heuristic -fsched-interblock
# -fsched-last-insn-heuristic -fsched-rank-heuristic -fsched-spec
# -fsched-spec-insn-heuristic -fsched-stalled-insns-dep -fshow-column
# -fsigned-zeros -fsplit-ivs-in-unroller -fstack-protector
# -fstrict-volatile-bitfields -fsync-libcalls -ftrapping-math
# -ftree-coalesce-vars -ftree-cselim -ftree-forwprop -ftree-loop-if-convert
# -ftree-loop-im -ftree-loop-ivcanon -ftree-loop-optimize
# -ftree-parallelize-loops= -ftree-phiprop -ftree-pta -ftree-reassoc
# -ftree-scev-cprop -ftree-slp-vectorize -ftree-vect-loop-version
# -funit-at-a-time -funwind-tables -fverbose-asm -fzero-initialized-in-bss
# -m128bit-long-double -m64 -m80387 -maccumulate-outgoing-args
# -malign-stringops -mfancy-math-387 -mfp-ret-in-387 -mfxsr -mglibc
# -mieee-fp -mlong-double-80 -mmmx -mno-sse4 -mpush-args -mred-zone -msse
# -msse2 -mtls-direct-seg-refs

	.text
.Ltext0:
	.local	srcGrid
	.comm	srcGrid,8,8
	.local	dstGrid
	.comm	dstGrid,8,8
	.section	.rodata
.LC0:
	.string	"timestep: %i\n"
	.text
	.globl	main
	.type	main, @function
main:
.LFB2:
	.file 1 "main.c"
	.loc 1 25 0
	.cfi_startproc
	pushq	%rbp	#
	.cfi_def_cfa_offset 16
	.cfi_offset 6, -16
	movq	%rsp, %rbp	#,
	.cfi_def_cfa_register 6
	subq	$64, %rsp	#,
	movl	%edi, -52(%rbp)	# nArgs, nArgs
	movq	%rsi, -64(%rbp)	# arg, arg
	.loc 1 32 0
	leaq	-32(%rbp), %rdx	#, tmp68
	movq	-64(%rbp), %rcx	# arg, tmp69
	movl	-52(%rbp), %eax	# nArgs, tmp70
	movq	%rcx, %rsi	# tmp69,
	movl	%eax, %edi	# tmp70,
	call	MAIN_parseCommandLine	#
	.loc 1 33 0
	leaq	-32(%rbp), %rax	#, tmp71
	movq	%rax, %rdi	# tmp71,
	call	MAIN_printInfo	#
	.loc 1 34 0
	leaq	-32(%rbp), %rax	#, tmp72
	movq	%rax, %rdi	# tmp72,
	call	MAIN_initialize	#
	.loc 1 39 0
	movl	$1, -36(%rbp)	#, t
	jmp	.L2	#
.L5:
	.loc 1 40 0
	movl	-12(%rbp), %eax	# param.simType, D.3114
	cmpl	$1, %eax	#, D.3114
	jne	.L3	#,
	.loc 1 41 0
	movq	srcGrid(%rip), %rax	# srcGrid, srcGrid.0
	movq	%rax, %rdi	# srcGrid.0,
	call	LBM_handleInOutFlow	#
.L3:
	.loc 1 44 0
	movq	dstGrid(%rip), %rdx	# dstGrid, dstGrid.1
	movq	srcGrid(%rip), %rax	# srcGrid, srcGrid.2
	movq	%rdx, %rsi	# dstGrid.1,
	movq	%rax, %rdi	# srcGrid.2,
	call	LBM_performStreamCollide	#
	.loc 1 45 0
	movl	$dstGrid, %esi	#,
	movl	$srcGrid, %edi	#,
	call	LBM_swapGrids	#
	.loc 1 47 0
	movl	-36(%rbp), %eax	# t, tmp73
	andl	$63, %eax	#, D.3113
	testl	%eax, %eax	# D.3113
	jne	.L4	#,
	.loc 1 48 0
	movl	-36(%rbp), %eax	# t, tmp74
	movl	%eax, %esi	# tmp74,
	movl	$.LC0, %edi	#,
	movl	$0, %eax	#,
	call	printf	#
	.loc 1 49 0
	movq	srcGrid(%rip), %rax	# srcGrid, srcGrid.3
	movq	%rax, %rdi	# srcGrid.3,
	call	LBM_showGridStatistics	#
.L4:
	.loc 1 39 0
	addl	$1, -36(%rbp)	#, t
.L2:
	.loc 1 39 0 is_stmt 0 discriminator 1
	movl	-32(%rbp), %eax	# param.nTimeSteps, D.3113
	cmpl	-36(%rbp), %eax	# t, D.3113
	jge	.L5	#,
	.loc 1 56 0 is_stmt 1
	leaq	-32(%rbp), %rax	#, tmp75
	movq	%rax, %rdi	# tmp75,
	call	MAIN_finalize	#
	.loc 1 58 0
	movl	$0, %eax	#, D.3113
	.loc 1 59 0
	leave
	.cfi_def_cfa 7, 8
	ret
	.cfi_endproc
.LFE2:
	.size	main, .-main
	.section	.rodata
	.align 8
.LC1:
	.string	"syntax: lbm <time steps> <result file> <0: nil, 1: cmp, 2: str> <0: ldc, 1: channel flow> [<obstacle file>]"
	.align 8
.LC2:
	.string	"MAIN_parseCommandLine: cannot stat obstacle file '%s'\n"
	.align 8
.LC3:
	.string	"MAIN_parseCommandLine:\n\tsize of file '%s' is %i bytes\n\texpected size is %i bytes\n"
	.align 8
.LC4:
	.string	"MAIN_parseCommandLine: cannot stat result file '%s'\n"
	.text
	.globl	MAIN_parseCommandLine
	.type	MAIN_parseCommandLine, @function
MAIN_parseCommandLine:
.LFB3:
	.loc 1 63 0
	.cfi_startproc
	pushq	%rbp	#
	.cfi_def_cfa_offset 16
	.cfi_offset 6, -16
	movq	%rsp, %rbp	#,
	.cfi_def_cfa_register 6
	subq	$176, %rsp	#,
	movl	%edi, -148(%rbp)	# nArgs, nArgs
	movq	%rsi, -160(%rbp)	# arg, arg
	movq	%rdx, -168(%rbp)	# param, param
	.loc 1 66 0
	cmpl	$4, -148(%rbp)	#, nArgs
	jle	.L8	#,
	.loc 1 66 0 is_stmt 0 discriminator 1
	cmpl	$6, -148(%rbp)	#, nArgs
	jle	.L9	#,
.L8:
	.loc 1 67 0 is_stmt 1
	movl	$.LC1, %edi	#,
	call	puts	#
	.loc 1 68 0
	movl	$1, %edi	#,
	call	exit	#
.L9:
	.loc 1 71 0
	movq	-160(%rbp), %rax	# arg, tmp83
	addq	$8, %rax	#, D.3116
	movq	(%rax), %rax	# *_3, D.3117
	movq	%rax, %rdi	# D.3117,
	call	atoi	#
	movq	-168(%rbp), %rdx	# param, tmp84
	movl	%eax, (%rdx)	# D.3118, param_6(D)->nTimeSteps
	.loc 1 72 0
	movq	-160(%rbp), %rax	# arg, tmp85
	movq	16(%rax), %rdx	# MEM[(char * *)arg_2(D) + 16B], D.3117
	movq	-168(%rbp), %rax	# param, tmp86
	movq	%rdx, 8(%rax)	# D.3117, param_6(D)->resultFilename
	.loc 1 73 0
	movq	-160(%rbp), %rax	# arg, tmp87
	addq	$24, %rax	#, D.3116
	movq	(%rax), %rax	# *_8, D.3117
	movq	%rax, %rdi	# D.3117,
	call	atoi	#
	movl	%eax, %edx	# D.3118, D.3119
	movq	-168(%rbp), %rax	# param, tmp88
	movl	%edx, 16(%rax)	# D.3119, param_6(D)->action
	.loc 1 74 0
	movq	-160(%rbp), %rax	# arg, tmp89
	addq	$32, %rax	#, D.3116
	movq	(%rax), %rax	# *_12, D.3117
	movq	%rax, %rdi	# D.3117,
	call	atoi	#
	movl	%eax, %edx	# D.3118, D.3120
	movq	-168(%rbp), %rax	# param, tmp90
	movl	%edx, 20(%rax)	# D.3120, param_6(D)->simType
	.loc 1 76 0
	cmpl	$6, -148(%rbp)	#, nArgs
	jne	.L10	#,
	.loc 1 77 0
	movq	-160(%rbp), %rax	# arg, tmp91
	movq	40(%rax), %rdx	# MEM[(char * *)arg_2(D) + 40B], D.3117
	movq	-168(%rbp), %rax	# param, tmp92
	movq	%rdx, 24(%rax)	# D.3117, param_6(D)->obstacleFilename
	.loc 1 79 0
	movq	-168(%rbp), %rax	# param, tmp93
	movq	24(%rax), %rax	# param_6(D)->obstacleFilename, D.3117
	leaq	-144(%rbp), %rdx	#, tmp94
	movq	%rdx, %rsi	# tmp94,
	movq	%rax, %rdi	# D.3117,
	call	stat	#
	testl	%eax, %eax	# D.3118
	je	.L11	#,
	.loc 1 80 0
	movq	-168(%rbp), %rax	# param, tmp95
	movq	24(%rax), %rax	# param_6(D)->obstacleFilename, D.3117
	movq	%rax, %rsi	# D.3117,
	movl	$.LC2, %edi	#,
	movl	$0, %eax	#,
	call	printf	#
	.loc 1 82 0
	movl	$1, %edi	#,
	call	exit	#
.L11:
	.loc 1 84 0
	movq	-96(%rbp), %rax	# fileStat.st_size, D.3121
	cmpq	$1313130, %rax	#, D.3121
	je	.L12	#,
	.loc 1 88 0
	movq	-96(%rbp), %rax	# fileStat.st_size, D.3121
	.loc 1 85 0
	movl	%eax, %edx	# D.3121, D.3118
	movq	-168(%rbp), %rax	# param, tmp96
	movq	24(%rax), %rax	# param_6(D)->obstacleFilename, D.3117
	movl	$1313130, %ecx	#,
	movq	%rax, %rsi	# D.3117,
	movl	$.LC3, %edi	#,
	movl	$0, %eax	#,
	call	printf	#
	.loc 1 90 0
	movl	$1, %edi	#,
	call	exit	#
.L10:
	.loc 1 93 0
	movq	-168(%rbp), %rax	# param, tmp97
	movq	$0, 24(%rax)	#, param_6(D)->obstacleFilename
.L12:
	.loc 1 95 0
	movq	-168(%rbp), %rax	# param, tmp98
	movl	16(%rax), %eax	# param_6(D)->action, D.3119
	cmpl	$1, %eax	#, D.3119
	jne	.L7	#,
	.loc 1 96 0 discriminator 1
	movq	-168(%rbp), %rax	# param, tmp99
	movq	8(%rax), %rax	# param_6(D)->resultFilename, D.3117
	leaq	-144(%rbp), %rdx	#, tmp100
	movq	%rdx, %rsi	# tmp100,
	movq	%rax, %rdi	# D.3117,
	call	stat	#
	.loc 1 95 0 discriminator 1
	testl	%eax, %eax	# D.3118
	je	.L7	#,
	.loc 1 97 0
	movq	-168(%rbp), %rax	# param, tmp101
	movq	8(%rax), %rax	# param_6(D)->resultFilename, D.3117
	movq	%rax, %rsi	# D.3117,
	movl	$.LC4, %edi	#,
	movl	$0, %eax	#,
	call	printf	#
	.loc 1 99 0
	movl	$1, %edi	#,
	call	exit	#
.L7:
	.loc 1 101 0
	leave
	.cfi_def_cfa 7, 8
	ret
	.cfi_endproc
.LFE3:
	.size	MAIN_parseCommandLine, .-MAIN_parseCommandLine
	.section	.rodata
.LC5:
	.string	"<none>"
	.align 8
.LC7:
	.string	"MAIN_printInfo:\n\tgrid size      : %i x %i x %i = %.2f * 10^6 Cells\n\tnTimeSteps     : %i\n\tresult file    : %s\n\taction         : %s\n\tsimulation type: %s\n\tobstacle file  : %s\n\n"
	.text
	.globl	MAIN_printInfo
	.type	MAIN_printInfo, @function
MAIN_printInfo:
.LFB4:
	.loc 1 105 0
	.cfi_startproc
	pushq	%rbp	#
	.cfi_def_cfa_offset 16
	.cfi_offset 6, -16
	movq	%rsp, %rbp	#,
	.cfi_def_cfa_register 6
	subq	$240, %rsp	#,
	movq	%rdi, -200(%rbp)	# param, param
	.loc 1 106 0
	movabsq	$29113321604280174, %rax	#, tmp83
	movq	%rax, -192(%rbp)	# tmp83, actionString
	movq	$0, -184(%rbp)	#, actionString
	movq	$0, -176(%rbp)	#, actionString
	movq	$0, -168(%rbp)	#, actionString
	movabsq	$28554735471390563, %rax	#, tmp84
	movq	%rax, -160(%rbp)	# tmp84, actionString
	movq	$0, -152(%rbp)	#, actionString
	movq	$0, -144(%rbp)	#, actionString
	movq	$0, -136(%rbp)	#, actionString
	movabsq	$435711603827, %rax	#, tmp85
	movq	%rax, -128(%rbp)	# tmp85, actionString
	movq	$0, -120(%rbp)	#, actionString
	movq	$0, -112(%rbp)	#, actionString
	movq	$0, -104(%rbp)	#, actionString
	.loc 1 107 0
	leaq	-96(%rbp), %rsi	#, tmp67
	movl	$0, %eax	#, tmp68
	movl	$12, %edx	#, tmp69
	movq	%rsi, %rdi	# tmp67, tmp67
	movq	%rdx, %rcx	# tmp69, tmp69
	rep stosq
	movabsq	$8532476743613966700, %rax	#, tmp88
	movq	%rax, -96(%rbp)	# tmp88, simTypeString
	movabsq	$8388365941601234533, %rax	#, tmp89
	movq	%rax, -88(%rbp)	# tmp89, simTypeString
	movq	$121, -80(%rbp)	#, simTypeString
	movq	$0, -72(%rbp)	#, simTypeString
	movabsq	$2336353831671130211, %rax	#, tmp90
	movq	%rax, -64(%rbp)	# tmp90, simTypeString
	movq	$2003790950, -56(%rbp)	#, simTypeString
	movq	$0, -48(%rbp)	#, simTypeString
	movq	$0, -40(%rbp)	#, simTypeString
	.loc 1 118 0
	movq	-200(%rbp), %rax	# param, tmp70
	movq	24(%rax), %rax	# param_2(D)->obstacleFilename, D.3126
	.loc 1 108 0
	testq	%rax, %rax	# D.3126
	je	.L15	#,
	.loc 1 108 0 is_stmt 0 discriminator 1
	movq	-200(%rbp), %rax	# param, tmp71
	movq	24(%rax), %rdx	# param_2(D)->obstacleFilename, iftmp.4
	jmp	.L16	#
.L15:
	.loc 1 108 0 discriminator 2
	movl	$.LC5, %edx	#, iftmp.4
.L16:
	.loc 1 117 0 is_stmt 1
	movq	-200(%rbp), %rax	# param, tmp72
	movl	20(%rax), %ecx	# param_2(D)->simType, D.3127
	leaq	-96(%rbp), %rax	#, tmp73
	movl	%ecx, %ecx	# D.3127, tmp74
	salq	$5, %rcx	#, tmp75
	leaq	(%rax,%rcx), %r8	#, D.3128
	movq	-200(%rbp), %rax	# param, tmp76
	movl	16(%rax), %ecx	# param_2(D)->action, D.3129
	leaq	-192(%rbp), %rax	#, tmp77
	movl	%ecx, %ecx	# D.3129, tmp78
	salq	$5, %rcx	#, tmp79
	leaq	(%rax,%rcx), %rdi	#, D.3128
	.loc 1 108 0
	movq	-200(%rbp), %rax	# param, tmp80
	movq	8(%rax), %rsi	# param_2(D)->resultFilename, D.3126
	movq	-200(%rbp), %rax	# param, tmp81
	movl	(%rax), %ecx	# param_2(D)->nTimeSteps, D.3130
	movabsq	$4608533498688228556, %rax	#, tmp82
	movq	%rdx, 16(%rsp)	# iftmp.4,
	movq	%r8, 8(%rsp)	# D.3128,
	movq	%rdi, (%rsp)	# D.3128,
	movq	%rsi, %r9	# D.3126,
	movl	%ecx, %r8d	# D.3130,
	movq	%rax, -208(%rbp)	# tmp82, %sfp
	movsd	-208(%rbp), %xmm0	# %sfp,
	movl	$130, %ecx	#,
	movl	$100, %edx	#,
	movl	$100, %esi	#,
	movl	$.LC7, %edi	#,
	movl	$1, %eax	#,
	call	printf	#
	.loc 1 120 0
	leave
	.cfi_def_cfa 7, 8
	ret
	.cfi_endproc
.LFE4:
	.size	MAIN_printInfo, .-MAIN_printInfo
	.globl	MAIN_initialize
	.type	MAIN_initialize, @function
MAIN_initialize:
.LFB5:
	.loc 1 124 0
	.cfi_startproc
	pushq	%rbp	#
	.cfi_def_cfa_offset 16
	.cfi_offset 6, -16
	movq	%rsp, %rbp	#,
	.cfi_def_cfa_register 6
	subq	$16, %rsp	#,
	movq	%rdi, -8(%rbp)	# param, param
	.loc 1 125 0
	movl	$srcGrid, %edi	#,
	call	LBM_allocateGrid	#
	.loc 1 126 0
	movl	$dstGrid, %edi	#,
	call	LBM_allocateGrid	#
	.loc 1 128 0
	movq	srcGrid(%rip), %rax	# srcGrid, srcGrid.5
	movq	%rax, %rdi	# srcGrid.5,
	call	LBM_initializeGrid	#
	.loc 1 129 0
	movq	dstGrid(%rip), %rax	# dstGrid, dstGrid.6
	movq	%rax, %rdi	# dstGrid.6,
	call	LBM_initializeGrid	#
	.loc 1 131 0
	movq	-8(%rbp), %rax	# param, tmp72
	movq	24(%rax), %rax	# param_3(D)->obstacleFilename, D.3134
	testq	%rax, %rax	# D.3134
	je	.L18	#,
	.loc 1 132 0
	movq	-8(%rbp), %rax	# param, tmp73
	movq	24(%rax), %rdx	# param_3(D)->obstacleFilename, D.3134
	movq	srcGrid(%rip), %rax	# srcGrid, srcGrid.7
	movq	%rdx, %rsi	# D.3134,
	movq	%rax, %rdi	# srcGrid.7,
	call	LBM_loadObstacleFile	#
	.loc 1 133 0
	movq	-8(%rbp), %rax	# param, tmp74
	movq	24(%rax), %rdx	# param_3(D)->obstacleFilename, D.3134
	movq	dstGrid(%rip), %rax	# dstGrid, dstGrid.8
	movq	%rdx, %rsi	# D.3134,
	movq	%rax, %rdi	# dstGrid.8,
	call	LBM_loadObstacleFile	#
.L18:
	.loc 1 136 0
	movq	-8(%rbp), %rax	# param, tmp75
	movl	20(%rax), %eax	# param_3(D)->simType, D.3135
	cmpl	$1, %eax	#, D.3135
	jne	.L19	#,
	.loc 1 137 0
	movq	srcGrid(%rip), %rax	# srcGrid, srcGrid.9
	movq	%rax, %rdi	# srcGrid.9,
	call	LBM_initializeSpecialCellsForChannel	#
	.loc 1 138 0
	movq	dstGrid(%rip), %rax	# dstGrid, dstGrid.10
	movq	%rax, %rdi	# dstGrid.10,
	call	LBM_initializeSpecialCellsForChannel	#
	jmp	.L20	#
.L19:
	.loc 1 141 0
	movq	srcGrid(%rip), %rax	# srcGrid, srcGrid.11
	movq	%rax, %rdi	# srcGrid.11,
	call	LBM_initializeSpecialCellsForLDC	#
	.loc 1 142 0
	movq	dstGrid(%rip), %rax	# dstGrid, dstGrid.12
	movq	%rax, %rdi	# dstGrid.12,
	call	LBM_initializeSpecialCellsForLDC	#
.L20:
	.loc 1 145 0
	movq	srcGrid(%rip), %rax	# srcGrid, srcGrid.13
	movq	%rax, %rdi	# srcGrid.13,
	call	LBM_showGridStatistics	#
	.loc 1 146 0
	leave
	.cfi_def_cfa 7, 8
	ret
	.cfi_endproc
.LFE5:
	.size	MAIN_initialize, .-MAIN_initialize
	.globl	MAIN_finalize
	.type	MAIN_finalize, @function
MAIN_finalize:
.LFB6:
	.loc 1 150 0
	.cfi_startproc
	pushq	%rbp	#
	.cfi_def_cfa_offset 16
	.cfi_offset 6, -16
	movq	%rsp, %rbp	#,
	.cfi_def_cfa_register 6
	subq	$16, %rsp	#,
	movq	%rdi, -8(%rbp)	# param, param
	.loc 1 151 0
	movq	srcGrid(%rip), %rax	# srcGrid, srcGrid.14
	movq	%rax, %rdi	# srcGrid.14,
	call	LBM_showGridStatistics	#
	.loc 1 153 0
	movq	-8(%rbp), %rax	# param, tmp66
	movl	16(%rax), %eax	# param_2(D)->action, D.3136
	cmpl	$1, %eax	#, D.3136
	jne	.L22	#,
	.loc 1 154 0
	movq	-8(%rbp), %rax	# param, tmp67
	movq	8(%rax), %rcx	# param_2(D)->resultFilename, D.3137
	movq	srcGrid(%rip), %rax	# srcGrid, srcGrid.15
	movl	$-1, %edx	#,
	movq	%rcx, %rsi	# D.3137,
	movq	%rax, %rdi	# srcGrid.15,
	call	LBM_compareVelocityField	#
.L22:
	.loc 1 155 0
	movq	-8(%rbp), %rax	# param, tmp68
	movl	16(%rax), %eax	# param_2(D)->action, D.3136
	cmpl	$2, %eax	#, D.3136
	jne	.L23	#,
	.loc 1 156 0
	movq	-8(%rbp), %rax	# param, tmp69
	movq	8(%rax), %rcx	# param_2(D)->resultFilename, D.3137
	movq	srcGrid(%rip), %rax	# srcGrid, srcGrid.16
	movl	$-1, %edx	#,
	movq	%rcx, %rsi	# D.3137,
	movq	%rax, %rdi	# srcGrid.16,
	call	LBM_storeVelocityField	#
.L23:
	.loc 1 158 0
	movl	$srcGrid, %edi	#,
	call	LBM_freeGrid	#
	.loc 1 159 0
	movl	$dstGrid, %edi	#,
	call	LBM_freeGrid	#
	.loc 1 160 0
	leave
	.cfi_def_cfa 7, 8
	ret
	.cfi_endproc
.LFE6:
	.size	MAIN_finalize, .-MAIN_finalize
.Letext0:
	.file 2 "main.h"
	.file 3 "lbm.h"
	.file 4 "lbm_1d_array.h"
	.file 5 "/usr/include/x86_64-linux-gnu/bits/types.h"
	.file 6 "/usr/include/time.h"
	.file 7 "/usr/include/x86_64-linux-gnu/bits/stat.h"
	.section	.note.GNU-stack,"",@progbits
