	.file	"alias.c"
# GNU C (Ubuntu/Linaro 4.8.1-10ubuntu9) version 4.8.1 (x86_64-linux-gnu)
#	compiled by GNU C version 4.8.1, GMP version 5.1.2, MPFR version 3.1.1-p2, MPC version 1.0.1
# GGC heuristics: --param ggc-min-expand=100 --param ggc-min-heapsize=131072
# options passed:  -I . -imultiarch x86_64-linux-gnu -D SPEC_CPU -D NDEBUG
# -D SPEC_CPU_LP64 alias.c -mtune=generic -march=x86-64 -g -fverbose-asm
# -fno-strict-aliasing -fstack-protector -Wformat -Wformat-security
# options enabled:  -faggressive-loop-optimizations
# -fasynchronous-unwind-tables -fauto-inc-dec -fbranch-count-reg -fcommon
# -fdelete-null-pointer-checks -fdwarf2-cfi-asm -fearly-inlining
# -feliminate-unused-debug-types -ffunction-cse -fgcse-lm -fgnu-runtime
# -fident -finline-atomics -fira-hoist-pressure -fira-share-save-slots
# -fira-share-spill-slots -fivopts -fkeep-static-consts
# -fleading-underscore -fmath-errno -fmerge-debug-strings
# -fmove-loop-invariants -fpeephole -fprefetch-loop-arrays
# -freg-struct-return -fsched-critical-path-heuristic
# -fsched-dep-count-heuristic -fsched-group-heuristic -fsched-interblock
# -fsched-last-insn-heuristic -fsched-rank-heuristic -fsched-spec
# -fsched-spec-insn-heuristic -fsched-stalled-insns-dep -fshow-column
# -fsigned-zeros -fsplit-ivs-in-unroller -fstack-protector
# -fstrict-volatile-bitfields -fsync-libcalls -ftrapping-math
# -ftree-coalesce-vars -ftree-cselim -ftree-forwprop -ftree-loop-if-convert
# -ftree-loop-im -ftree-loop-ivcanon -ftree-loop-optimize
# -ftree-parallelize-loops= -ftree-phiprop -ftree-pta -ftree-reassoc
# -ftree-scev-cprop -ftree-slp-vectorize -ftree-vect-loop-version
# -funit-at-a-time -funwind-tables -fverbose-asm -fzero-initialized-in-bss
# -m128bit-long-double -m64 -m80387 -maccumulate-outgoing-args
# -malign-stringops -mfancy-math-387 -mfp-ret-in-387 -mfxsr -mglibc
# -mieee-fp -mlong-double-80 -mmmx -mno-sse4 -mpush-args -mred-zone -msse
# -msse2 -mtls-direct-seg-refs

	.text
.Ltext0:
	.local	reg_base_value
	.comm	reg_base_value,8,8
	.local	new_reg_base_value
	.comm	new_reg_base_value,8,8
	.local	reg_base_value_size
	.comm	reg_base_value_size,4,4
	.local	alias_invariant
	.comm	alias_invariant,8,8
	.comm	reg_known_value,8,8
	.local	reg_known_value_size
	.comm	reg_known_value_size,4,4
	.comm	reg_known_equiv_p,8,8
	.local	copying_arguments
	.comm	copying_arguments,4,4
	.local	alias_sets
	.comm	alias_sets,8,8
	.type	get_alias_set_entry, @function
get_alias_set_entry:
.LFB2:
	.file 1 "alias.c"
	.loc 1 202 0
	.cfi_startproc
	pushq	%rbp	#
	.cfi_def_cfa_offset 16
	.cfi_offset 6, -16
	movq	%rsp, %rbp	#,
	.cfi_def_cfa_register 6
	subq	$32, %rsp	#,
	movq	%rdi, -24(%rbp)	# alias_set, alias_set
	.loc 1 204 0
	movq	-24(%rbp), %rdx	# alias_set, alias_set.0
	movq	alias_sets(%rip), %rax	# alias_sets, alias_sets.1
	.loc 1 203 0
	movq	%rdx, %rsi	# alias_set.0,
	movq	%rax, %rdi	# alias_sets.1,
	call	splay_tree_lookup	#
	movq	%rax, -8(%rbp)	# tmp65, sn
	.loc 1 206 0
	cmpq	$0, -8(%rbp)	#, sn
	je	.L2	#,
	.loc 1 206 0 is_stmt 0 discriminator 1
	movq	-8(%rbp), %rax	# sn, tmp66
	movq	8(%rax), %rax	# sn_5->value, D.16599
	jmp	.L3	#
.L2:
	.loc 1 206 0 discriminator 2
	movl	$0, %eax	#, iftmp.2
.L3:
	.loc 1 207 0 is_stmt 1 discriminator 3
	leave
	.cfi_def_cfa 7, 8
	ret
	.cfi_endproc
.LFE2:
	.size	get_alias_set_entry, .-get_alias_set_entry
	.type	mems_in_disjoint_alias_sets_p, @function
mems_in_disjoint_alias_sets_p:
.LFB3:
	.loc 1 216 0
	.cfi_startproc
	pushq	%rbp	#
	.cfi_def_cfa_offset 16
	.cfi_offset 6, -16
	movq	%rsp, %rbp	#,
	.cfi_def_cfa_register 6
	subq	$16, %rsp	#,
	movq	%rdi, -8(%rbp)	# mem1, mem1
	movq	%rsi, -16(%rbp)	# mem2, mem2
	.loc 1 230 0
	movq	-16(%rbp), %rax	# mem2, tmp69
	movq	16(%rax), %rax	# mem2_3(D)->fld[1].rtmem, D.16601
	testq	%rax, %rax	# D.16601
	je	.L6	#,
	.loc 1 230 0 is_stmt 0 discriminator 1
	movq	-16(%rbp), %rax	# mem2, tmp70
	movq	16(%rax), %rax	# mem2_3(D)->fld[1].rtmem, D.16601
	movq	(%rax), %rdx	# _5->alias, iftmp.3
	jmp	.L7	#
.L6:
	.loc 1 230 0 discriminator 2
	movl	$0, %edx	#, iftmp.3
.L7:
	.loc 1 230 0 discriminator 3
	movq	-8(%rbp), %rax	# mem1, tmp71
	movq	16(%rax), %rax	# mem1_8(D)->fld[1].rtmem, D.16601
	testq	%rax, %rax	# D.16601
	je	.L8	#,
	.loc 1 230 0 discriminator 4
	movq	-8(%rbp), %rax	# mem1, tmp72
	movq	16(%rax), %rax	# mem1_8(D)->fld[1].rtmem, D.16601
	movq	(%rax), %rax	# _10->alias, iftmp.4
	jmp	.L9	#
.L8:
	.loc 1 230 0 discriminator 5
	movl	$0, %eax	#, iftmp.4
.L9:
	.loc 1 230 0 discriminator 6
	movq	%rdx, %rsi	# iftmp.3,
	movq	%rax, %rdi	# iftmp.4,
	call	alias_sets_conflict_p	#
	testl	%eax, %eax	# D.16602
	sete	%al	#, D.16603
	movzbl	%al, %eax	# D.16603, D.16602
	.loc 1 231 0 is_stmt 1 discriminator 6
	leave
	.cfi_def_cfa 7, 8
	ret
	.cfi_endproc
.LFE3:
	.size	mems_in_disjoint_alias_sets_p, .-mems_in_disjoint_alias_sets_p
	.type	insert_subset_children, @function
insert_subset_children:
.LFB4:
	.loc 1 240 0
	.cfi_startproc
	pushq	%rbp	#
	.cfi_def_cfa_offset 16
	.cfi_offset 6, -16
	movq	%rsp, %rbp	#,
	.cfi_def_cfa_register 6
	subq	$16, %rsp	#,
	movq	%rdi, -8(%rbp)	# node, node
	movq	%rsi, -16(%rbp)	# data, data
	.loc 1 241 0
	movq	-8(%rbp), %rax	# node, tmp63
	movq	8(%rax), %rdx	# node_1(D)->value, D.16604
	movq	-8(%rbp), %rax	# node, tmp64
	movq	(%rax), %rcx	# node_1(D)->key, D.16604
	movq	-16(%rbp), %rax	# data, tmp65
	movq	%rcx, %rsi	# D.16604,
	movq	%rax, %rdi	# tmp65,
	call	splay_tree_insert	#
	.loc 1 243 0
	movl	$0, %eax	#, D.16605
	.loc 1 244 0
	leave
	.cfi_def_cfa 7, 8
	ret
	.cfi_endproc
.LFE4:
	.size	insert_subset_children, .-insert_subset_children
	.globl	alias_sets_conflict_p
	.type	alias_sets_conflict_p, @function
alias_sets_conflict_p:
.LFB5:
	.loc 1 251 0
	.cfi_startproc
	pushq	%rbp	#
	.cfi_def_cfa_offset 16
	.cfi_offset 6, -16
	movq	%rsp, %rbp	#,
	.cfi_def_cfa_register 6
	subq	$32, %rsp	#,
	movq	%rdi, -24(%rbp)	# set1, set1
	movq	%rsi, -32(%rbp)	# set2, set2
	.loc 1 256 0
	cmpq	$0, -24(%rbp)	#, set1
	je	.L14	#,
	.loc 1 256 0 is_stmt 0 discriminator 1
	cmpq	$0, -32(%rbp)	#, set2
	je	.L14	#,
	.loc 1 258 0 is_stmt 1
	movq	-24(%rbp), %rax	# set1, tmp69
	cmpq	-32(%rbp), %rax	# set2, tmp69
	jne	.L15	#,
.L14:
	.loc 1 259 0
	movl	$1, %eax	#, D.16606
	jmp	.L16	#
.L15:
	.loc 1 262 0
	movq	-24(%rbp), %rax	# set1, tmp70
	movq	%rax, %rdi	# tmp70,
	call	get_alias_set_entry	#
	movq	%rax, -8(%rbp)	# tmp71, ase
	.loc 1 263 0
	cmpq	$0, -8(%rbp)	#, ase
	je	.L17	#,
	.loc 1 264 0
	movq	-8(%rbp), %rax	# ase, tmp72
	movl	16(%rax), %eax	# ase_4->has_zero_child, D.16606
	testl	%eax, %eax	# D.16606
	jne	.L18	#,
	.loc 1 265 0
	movq	-32(%rbp), %rdx	# set2, set2.5
	movq	-8(%rbp), %rax	# ase, tmp73
	movq	8(%rax), %rax	# ase_4->children, D.16607
	movq	%rdx, %rsi	# set2.5,
	movq	%rax, %rdi	# D.16607,
	call	splay_tree_lookup	#
	testq	%rax, %rax	# D.16608
	je	.L17	#,
.L18:
	.loc 1 267 0
	movl	$1, %eax	#, D.16606
	jmp	.L16	#
.L17:
	.loc 1 270 0
	movq	-32(%rbp), %rax	# set2, tmp74
	movq	%rax, %rdi	# tmp74,
	call	get_alias_set_entry	#
	movq	%rax, -8(%rbp)	# tmp75, ase
	.loc 1 271 0
	cmpq	$0, -8(%rbp)	#, ase
	je	.L19	#,
	.loc 1 272 0
	movq	-8(%rbp), %rax	# ase, tmp76
	movl	16(%rax), %eax	# ase_10->has_zero_child, D.16606
	testl	%eax, %eax	# D.16606
	jne	.L20	#,
	.loc 1 273 0
	movq	-24(%rbp), %rdx	# set1, set1.6
	movq	-8(%rbp), %rax	# ase, tmp77
	movq	8(%rax), %rax	# ase_10->children, D.16607
	movq	%rdx, %rsi	# set1.6,
	movq	%rax, %rdi	# D.16607,
	call	splay_tree_lookup	#
	testq	%rax, %rax	# D.16608
	je	.L19	#,
.L20:
	.loc 1 275 0
	movl	$1, %eax	#, D.16606
	jmp	.L16	#
.L19:
	.loc 1 279 0
	movl	$0, %eax	#, D.16606
.L16:
	.loc 1 280 0
	leave
	.cfi_def_cfa 7, 8
	ret
	.cfi_endproc
.LFE5:
	.size	alias_sets_conflict_p, .-alias_sets_conflict_p
	.globl	readonly_fields_p
	.type	readonly_fields_p, @function
readonly_fields_p:
.LFB6:
	.loc 1 289 0
	.cfi_startproc
	pushq	%rbp	#
	.cfi_def_cfa_offset 16
	.cfi_offset 6, -16
	movq	%rsp, %rbp	#,
	.cfi_def_cfa_register 6
	subq	$32, %rsp	#,
	movq	%rdi, -24(%rbp)	# type, type
	.loc 1 292 0
	movq	-24(%rbp), %rax	# type, tmp69
	movzbl	16(%rax), %eax	# type_3(D)->common.code, D.16610
	cmpb	$20, %al	#, D.16610
	je	.L22	#,
	.loc 1 292 0 is_stmt 0 discriminator 1
	movq	-24(%rbp), %rax	# type, tmp70
	movzbl	16(%rax), %eax	# type_3(D)->common.code, D.16610
	cmpb	$21, %al	#, D.16610
	je	.L22	#,
	.loc 1 293 0 is_stmt 1
	movq	-24(%rbp), %rax	# type, tmp71
	movzbl	16(%rax), %eax	# type_3(D)->common.code, D.16610
	cmpb	$22, %al	#, D.16610
	je	.L22	#,
	.loc 1 294 0
	movl	$0, %eax	#, D.16609
	jmp	.L23	#
.L22:
	.loc 1 296 0
	movq	-24(%rbp), %rax	# type, tmp72
	movq	24(%rax), %rax	# type_3(D)->type.values, tmp73
	movq	%rax, -8(%rbp)	# tmp73, field
	jmp	.L24	#
.L27:
	.loc 1 297 0
	movq	-8(%rbp), %rax	# field, tmp74
	movzbl	16(%rax), %eax	# field_1->common.code, D.16610
	cmpb	$37, %al	#, D.16610
	jne	.L25	#,
	.loc 1 298 0
	movq	-8(%rbp), %rax	# field, tmp75
	movzbl	17(%rax), %eax	# *field_1, D.16610
	andl	$16, %eax	#, D.16610
	testb	%al, %al	# D.16610
	jne	.L26	#,
	.loc 1 299 0
	movq	-8(%rbp), %rax	# field, tmp76
	movq	8(%rax), %rax	# field_1->common.type, D.16611
	movq	%rax, %rdi	# D.16611,
	call	readonly_fields_p	#
	testl	%eax, %eax	# D.16609
	je	.L25	#,
.L26:
	.loc 1 300 0
	movl	$1, %eax	#, D.16609
	jmp	.L23	#
.L25:
	.loc 1 296 0
	movq	-8(%rbp), %rax	# field, tmp77
	movq	(%rax), %rax	# field_1->common.chain, tmp78
	movq	%rax, -8(%rbp)	# tmp78, field
.L24:
	.loc 1 296 0 is_stmt 0 discriminator 1
	cmpq	$0, -8(%rbp)	#, field
	jne	.L27	#,
	.loc 1 302 0 is_stmt 1
	movl	$0, %eax	#, D.16609
.L23:
	.loc 1 303 0
	leave
	.cfi_def_cfa 7, 8
	ret
	.cfi_endproc
.LFE6:
	.size	readonly_fields_p, .-readonly_fields_p
	.globl	objects_must_conflict_p
	.type	objects_must_conflict_p, @function
objects_must_conflict_p:
.LFB7:
	.loc 1 313 0
	.cfi_startproc
	pushq	%rbp	#
	.cfi_def_cfa_offset 16
	.cfi_offset 6, -16
	movq	%rsp, %rbp	#,
	.cfi_def_cfa_register 6
	pushq	%rbx	#
	subq	$24, %rsp	#,
	.cfi_offset 3, -24
	movq	%rdi, -24(%rbp)	# t1, t1
	movq	%rsi, -32(%rbp)	# t2, t2
	.loc 1 317 0
	cmpq	$0, -24(%rbp)	#, t1
	jne	.L29	#,
	.loc 1 317 0 is_stmt 0 discriminator 1
	cmpq	$0, -32(%rbp)	#, t2
	jne	.L29	#,
	.loc 1 318 0 is_stmt 1
	movl	$0, %eax	#, D.16612
	jmp	.L30	#
.L29:
	.loc 1 322 0
	cmpq	$0, -24(%rbp)	#, t1
	je	.L31	#,
	.loc 1 322 0 is_stmt 0 discriminator 1
	movq	-24(%rbp), %rax	# t1, tmp88
	movq	%rax, %rdi	# tmp88,
	call	readonly_fields_p	#
	testl	%eax, %eax	# D.16612
	jne	.L32	#,
.L31:
	.loc 1 323 0 is_stmt 1
	cmpq	$0, -32(%rbp)	#, t2
	je	.L33	#,
	.loc 1 323 0 is_stmt 0 discriminator 1
	movq	-32(%rbp), %rax	# t2, tmp89
	movq	%rax, %rdi	# tmp89,
	call	readonly_fields_p	#
	testl	%eax, %eax	# D.16612
	jne	.L32	#,
.L33:
	.loc 1 324 0 is_stmt 1
	cmpq	$0, -24(%rbp)	#, t1
	je	.L34	#,
	.loc 1 324 0 is_stmt 0 discriminator 1
	movq	-24(%rbp), %rax	# t1, tmp90
	movzbl	17(%rax), %eax	# *t1_6(D), D.16613
	andl	$16, %eax	#, D.16613
	testb	%al, %al	# D.16613
	jne	.L32	#,
.L34:
	.loc 1 325 0 is_stmt 1
	cmpq	$0, -32(%rbp)	#, t2
	je	.L35	#,
	.loc 1 325 0 is_stmt 0 discriminator 1
	movq	-32(%rbp), %rax	# t2, tmp91
	movzbl	17(%rax), %eax	# *t2_7(D), D.16613
	andl	$16, %eax	#, D.16613
	testb	%al, %al	# D.16613
	je	.L35	#,
.L32:
	.loc 1 326 0 is_stmt 1
	movl	$0, %eax	#, D.16612
	jmp	.L30	#
.L35:
	.loc 1 329 0
	movq	-24(%rbp), %rax	# t1, tmp92
	cmpq	-32(%rbp), %rax	# t2, tmp92
	je	.L36	#,
	.loc 1 331 0
	cmpq	$0, -24(%rbp)	#, t1
	je	.L37	#,
	.loc 1 331 0 is_stmt 0 discriminator 1
	movq	-24(%rbp), %rax	# t1, tmp93
	movzbl	17(%rax), %eax	# *t1_6(D), D.16613
	andl	$8, %eax	#, D.16613
	testb	%al, %al	# D.16613
	je	.L37	#,
	cmpq	$0, -32(%rbp)	#, t2
	je	.L37	#,
	movq	-32(%rbp), %rax	# t2, tmp94
	movzbl	17(%rax), %eax	# *t2_7(D), D.16613
	andl	$8, %eax	#, D.16613
	testb	%al, %al	# D.16613
	je	.L37	#,
.L36:
	.loc 1 332 0 is_stmt 1
	movl	$1, %eax	#, D.16612
	jmp	.L30	#
.L37:
	.loc 1 336 0
	cmpq	$0, -24(%rbp)	#, t1
	je	.L38	#,
	.loc 1 336 0 is_stmt 0 discriminator 1
	movq	-24(%rbp), %rax	# t1, tmp95
	movzbl	16(%rax), %eax	# t1_6(D)->common.code, D.16613
	cmpb	$18, %al	#, D.16613
	je	.L39	#,
	.loc 1 336 0 discriminator 4
	movq	-24(%rbp), %rax	# t1, tmp96
	movzbl	16(%rax), %eax	# t1_6(D)->common.code, D.16613
	cmpb	$20, %al	#, D.16613
	je	.L39	#,
	.loc 1 336 0 discriminator 1
	movq	-24(%rbp), %rax	# t1, tmp97
	movzbl	16(%rax), %eax	# t1_6(D)->common.code, D.16613
	cmpb	$21, %al	#, D.16613
	je	.L39	#,
	movq	-24(%rbp), %rax	# t1, tmp98
	movzbl	16(%rax), %eax	# t1_6(D)->common.code, D.16613
	cmpb	$22, %al	#, D.16613
	je	.L39	#,
	movq	-24(%rbp), %rax	# t1, tmp99
	movzbl	16(%rax), %eax	# t1_6(D)->common.code, D.16613
	cmpb	$19, %al	#, D.16613
	jne	.L38	#,
.L39:
	.loc 1 336 0 discriminator 3
	movl	$1, %eax	#, iftmp.7
	jmp	.L40	#
.L38:
	.loc 1 336 0 discriminator 2
	movl	$0, %eax	#, iftmp.7
.L40:
	.loc 1 337 0 is_stmt 1
	movl	%eax, %edx	# iftmp.7, D.16614
	andl	$1, %edx	#, D.16614
	cmpq	$0, -32(%rbp)	#, t2
	je	.L41	#,
	.loc 1 337 0 is_stmt 0 discriminator 1
	movq	-32(%rbp), %rax	# t2, tmp100
	movzbl	16(%rax), %eax	# t2_7(D)->common.code, D.16613
	cmpb	$18, %al	#, D.16613
	je	.L42	#,
	.loc 1 337 0 discriminator 4
	movq	-32(%rbp), %rax	# t2, tmp101
	movzbl	16(%rax), %eax	# t2_7(D)->common.code, D.16613
	cmpb	$20, %al	#, D.16613
	je	.L42	#,
	.loc 1 337 0 discriminator 1
	movq	-32(%rbp), %rax	# t2, tmp102
	movzbl	16(%rax), %eax	# t2_7(D)->common.code, D.16613
	cmpb	$21, %al	#, D.16613
	je	.L42	#,
	movq	-32(%rbp), %rax	# t2, tmp103
	movzbl	16(%rax), %eax	# t2_7(D)->common.code, D.16613
	cmpb	$22, %al	#, D.16613
	je	.L42	#,
	movq	-32(%rbp), %rax	# t2, tmp104
	movzbl	16(%rax), %eax	# t2_7(D)->common.code, D.16613
	cmpb	$19, %al	#, D.16613
	jne	.L41	#,
.L42:
	.loc 1 337 0 discriminator 3
	movl	$1, %eax	#, iftmp.8
	jmp	.L43	#
.L41:
	.loc 1 337 0 discriminator 2
	movl	$0, %eax	#, iftmp.8
.L43:
	.loc 1 337 0 discriminator 5
	andl	$1, %eax	#, D.16614
	xorl	%edx, %eax	# D.16614, D.16614
	.loc 1 336 0 is_stmt 1 discriminator 5
	testb	%al, %al	# D.16614
	je	.L44	#,
	.loc 1 338 0
	movl	$0, %eax	#, D.16612
	jmp	.L30	#
.L44:
	.loc 1 341 0
	cmpq	$0, -32(%rbp)	#, t2
	je	.L45	#,
	.loc 1 341 0 is_stmt 0 discriminator 1
	movq	-32(%rbp), %rax	# t2, tmp105
	movq	%rax, %rdi	# tmp105,
	call	get_alias_set	#
	movq	%rax, %rbx	#, iftmp.9
	jmp	.L46	#
.L45:
	.loc 1 341 0 discriminator 2
	movl	$0, %ebx	#, iftmp.9
.L46:
	.loc 1 341 0 discriminator 3
	cmpq	$0, -24(%rbp)	#, t1
	je	.L47	#,
	.loc 1 341 0 discriminator 4
	movq	-24(%rbp), %rax	# t1, tmp106
	movq	%rax, %rdi	# tmp106,
	call	get_alias_set	#
	jmp	.L48	#
.L47:
	.loc 1 341 0 discriminator 5
	movl	$0, %eax	#, iftmp.10
.L48:
	.loc 1 341 0 discriminator 6
	movq	%rbx, %rsi	# iftmp.9,
	movq	%rax, %rdi	# iftmp.10,
	call	alias_sets_conflict_p	#
.L30:
	.loc 1 343 0 is_stmt 1
	addq	$24, %rsp	#,
	popq	%rbx	#
	popq	%rbp	#
	.cfi_def_cfa 7, 8
	ret
	.cfi_endproc
.LFE7:
	.size	objects_must_conflict_p, .-objects_must_conflict_p
	.type	find_base_decl, @function
find_base_decl:
.LFB8:
	.loc 1 353 0
	.cfi_startproc
	pushq	%rbp	#
	.cfi_def_cfa_offset 16
	.cfi_offset 6, -16
	movq	%rsp, %rbp	#,
	.cfi_def_cfa_register 6
	subq	$48, %rsp	#,
	movq	%rdi, -40(%rbp)	# t, t
	.loc 1 356 0
	cmpq	$0, -40(%rbp)	#, t
	je	.L50	#,
	.loc 1 356 0 is_stmt 0 discriminator 1
	movq	global_trees(%rip), %rax	# global_trees, D.16616
	cmpq	-40(%rbp), %rax	# t, D.16616
	je	.L50	#,
	movq	-40(%rbp), %rax	# t, tmp80
	movq	8(%rax), %rax	# t_7(D)->common.type, D.16616
	movzbl	16(%rax), %eax	# _9->common.code, D.16617
	cmpb	$13, %al	#, D.16617
	je	.L51	#,
	movq	-40(%rbp), %rax	# t, tmp81
	movq	8(%rax), %rax	# t_7(D)->common.type, D.16616
	movzbl	16(%rax), %eax	# _11->common.code, D.16617
	cmpb	$15, %al	#, D.16617
	je	.L51	#,
.L50:
	.loc 1 357 0 is_stmt 1
	movl	$0, %eax	#, D.16615
	jmp	.L52	#
.L51:
	.loc 1 360 0
	movq	-40(%rbp), %rax	# t, tmp82
	movzbl	16(%rax), %eax	# t_7(D)->common.code, D.16617
	movzbl	%al, %eax	# D.16617, D.16618
	cltq
	movzbl	tree_code_type(%rax), %eax	# tree_code_type, D.16619
	cmpb	$100, %al	#, D.16619
	jne	.L53	#,
	.loc 1 361 0
	movq	-40(%rbp), %rax	# t, D.16615
	jmp	.L52	#
.L53:
	.loc 1 366 0
	movq	-40(%rbp), %rax	# t, tmp84
	movzbl	16(%rax), %eax	# t_7(D)->common.code, D.16617
	movzbl	%al, %eax	# D.16617, D.16618
	cltq
	movzbl	tree_code_type(%rax), %eax	# tree_code_type, D.16619
	movsbl	%al, %eax	# D.16619, D.16618
	cmpl	$50, %eax	#, D.16618
	je	.L55	#,
	cmpl	$51, %eax	#, D.16618
	je	.L56	#,
	cmpl	$49, %eax	#, D.16618
	jne	.L67	#,
	.loc 1 369 0
	movq	-40(%rbp), %rax	# t, tmp86
	movq	32(%rax), %rax	# t_7(D)->exp.operands, D.16616
	movq	%rax, %rdi	# D.16616,
	call	find_base_decl	#
	jmp	.L52	#
.L55:
	.loc 1 373 0
	movq	-40(%rbp), %rax	# t, tmp87
	movq	32(%rax), %rax	# t_7(D)->exp.operands, D.16616
	movq	%rax, %rdi	# D.16616,
	call	find_base_decl	#
	movq	%rax, -24(%rbp)	# tmp88, d0
	.loc 1 374 0
	movq	-40(%rbp), %rax	# t, tmp89
	movq	40(%rax), %rax	# t_7(D)->exp.operands, D.16616
	movq	%rax, %rdi	# D.16616,
	call	find_base_decl	#
	movq	%rax, -16(%rbp)	# tmp90, d1
	.loc 1 375 0
	movq	-24(%rbp), %rax	# d0, tmp91
	cmpq	-16(%rbp), %rax	# d1, tmp91
	jne	.L58	#,
	.loc 1 376 0
	movq	-24(%rbp), %rax	# d0, D.16615
	jmp	.L52	#
.L58:
	.loc 1 377 0
	cmpq	$0, -24(%rbp)	#, d0
	jne	.L59	#,
	.loc 1 378 0
	movq	-16(%rbp), %rax	# d1, D.16615
	jmp	.L52	#
.L59:
	.loc 1 379 0
	cmpq	$0, -16(%rbp)	#, d1
	jne	.L60	#,
	.loc 1 380 0
	movq	-24(%rbp), %rax	# d0, D.16615
	jmp	.L52	#
.L60:
	.loc 1 382 0
	movl	$0, %eax	#, D.16615
	jmp	.L52	#
.L56:
	.loc 1 385 0
	movq	-40(%rbp), %rax	# t, tmp92
	movq	32(%rax), %rax	# t_7(D)->exp.operands, D.16616
	movq	%rax, %rdi	# D.16616,
	call	find_base_decl	#
	movq	%rax, -24(%rbp)	# tmp93, d0
	.loc 1 386 0
	movq	-40(%rbp), %rax	# t, tmp94
	movq	40(%rax), %rax	# t_7(D)->exp.operands, D.16616
	movq	%rax, %rdi	# D.16616,
	call	find_base_decl	#
	movq	%rax, -16(%rbp)	# tmp95, d1
	.loc 1 387 0
	movq	-40(%rbp), %rax	# t, tmp96
	movq	48(%rax), %rax	# t_7(D)->exp.operands, D.16616
	movq	%rax, %rdi	# D.16616,
	call	find_base_decl	#
	movq	%rax, -8(%rbp)	# tmp97, d2
	.loc 1 390 0
	cmpq	$0, -16(%rbp)	#, d1
	jne	.L61	#,
	.loc 1 390 0 is_stmt 0 discriminator 1
	movq	-8(%rbp), %rax	# d2, tmp98
	movq	%rax, -16(%rbp)	# tmp98, d1
.L61:
	.loc 1 391 0 is_stmt 1
	cmpq	$0, -24(%rbp)	#, d0
	jne	.L62	#,
	.loc 1 391 0 is_stmt 0 discriminator 1
	movq	-16(%rbp), %rax	# d1, tmp99
	movq	%rax, -24(%rbp)	# tmp99, d0
.L62:
	.loc 1 392 0 is_stmt 1
	cmpq	$0, -16(%rbp)	#, d1
	jne	.L63	#,
	.loc 1 392 0 is_stmt 0 discriminator 1
	movq	-24(%rbp), %rax	# d0, tmp100
	movq	%rax, -16(%rbp)	# tmp100, d1
.L63:
	.loc 1 393 0 is_stmt 1
	cmpq	$0, -8(%rbp)	#, d2
	jne	.L64	#,
	.loc 1 393 0 is_stmt 0 discriminator 1
	movq	-16(%rbp), %rax	# d1, tmp101
	movq	%rax, -8(%rbp)	# tmp101, d2
.L64:
	.loc 1 397 0 is_stmt 1
	movq	-24(%rbp), %rax	# d0, tmp102
	cmpq	-16(%rbp), %rax	# d1, tmp102
	jne	.L65	#,
	.loc 1 397 0 is_stmt 0 discriminator 1
	movq	-16(%rbp), %rax	# d1, tmp103
	cmpq	-8(%rbp), %rax	# d2, tmp103
	jne	.L65	#,
	movq	-24(%rbp), %rax	# d0, iftmp.11
	jmp	.L66	#
.L65:
	.loc 1 397 0 discriminator 2
	movl	$0, %eax	#, iftmp.11
.L66:
	.loc 1 397 0 discriminator 3
	jmp	.L52	#
.L67:
	.loc 1 400 0 is_stmt 1
	movl	$0, %eax	#, D.16615
.L52:
	.loc 1 402 0
	leave
	.cfi_def_cfa 7, 8
	ret
	.cfi_endproc
.LFE8:
	.size	find_base_decl, .-find_base_decl
	.globl	can_address_p
	.type	can_address_p, @function
can_address_p:
.LFB9:
	.loc 1 410 0
	.cfi_startproc
	pushq	%rbp	#
	.cfi_def_cfa_offset 16
	.cfi_offset 6, -16
	movq	%rsp, %rbp	#,
	.cfi_def_cfa_register 6
	subq	$16, %rsp	#,
	movq	%rdi, -8(%rbp)	# t, t
	.loc 1 412 0
	movq	-8(%rbp), %rax	# t, tmp83
	movq	%rax, %rdi	# tmp83,
	call	handled_component_p	#
	testl	%eax, %eax	# D.16620
	jne	.L69	#,
	.loc 1 413 0
	movl	$1, %eax	#, D.16620
	jmp	.L70	#
.L69:
	.loc 1 416 0
	movq	-8(%rbp), %rax	# t, tmp84
	movzbl	16(%rax), %eax	# t_2(D)->common.code, D.16621
	cmpb	$40, %al	#, D.16621
	jne	.L71	#,
	.loc 1 417 0
	movl	$0, %eax	#, D.16620
	jmp	.L70	#
.L71:
	.loc 1 421 0
	movq	-8(%rbp), %rax	# t, tmp85
	movzbl	16(%rax), %eax	# t_2(D)->common.code, D.16621
	cmpb	$39, %al	#, D.16621
	jne	.L72	#,
	.loc 1 422 0
	movq	-8(%rbp), %rax	# t, tmp86
	movq	40(%rax), %rax	# t_2(D)->exp.operands, D.16622
	movzbl	52(%rax), %eax	# *_8, D.16621
	andl	$4, %eax	#, D.16621
	testb	%al, %al	# D.16621
	jne	.L72	#,
	.loc 1 423 0
	movq	-8(%rbp), %rax	# t, tmp87
	movq	32(%rax), %rax	# t_2(D)->exp.operands, D.16622
	movq	8(%rax), %rax	# _11->common.type, D.16622
	movq	%rax, %rdi	# D.16622,
	call	get_alias_set	#
	testq	%rax, %rax	# D.16623
	je	.L72	#,
	.loc 1 424 0
	movq	-8(%rbp), %rax	# t, tmp88
	movq	32(%rax), %rax	# t_2(D)->exp.operands, D.16622
	movq	%rax, %rdi	# D.16622,
	call	can_address_p	#
	testl	%eax, %eax	# D.16620
	je	.L72	#,
	.loc 1 425 0
	movl	$1, %eax	#, D.16620
	jmp	.L70	#
.L72:
	.loc 1 428 0
	movq	-8(%rbp), %rax	# t, tmp89
	movzbl	16(%rax), %eax	# t_2(D)->common.code, D.16621
	cmpb	$43, %al	#, D.16621
	je	.L73	#,
	.loc 1 428 0 is_stmt 0 discriminator 1
	movq	-8(%rbp), %rax	# t, tmp90
	movzbl	16(%rax), %eax	# t_2(D)->common.code, D.16621
	cmpb	$44, %al	#, D.16621
	jne	.L74	#,
.L73:
	.loc 1 429 0 is_stmt 1
	movq	-8(%rbp), %rax	# t, tmp91
	movq	32(%rax), %rax	# t_2(D)->exp.operands, D.16622
	movq	8(%rax), %rax	# _19->common.type, D.16622
	movzbl	62(%rax), %eax	# *_20, D.16621
	andl	$8, %eax	#, D.16621
	testb	%al, %al	# D.16621
	jne	.L74	#,
	.loc 1 430 0
	movq	-8(%rbp), %rax	# t, tmp92
	movq	32(%rax), %rax	# t_2(D)->exp.operands, D.16622
	movq	8(%rax), %rax	# _23->common.type, D.16622
	movq	%rax, %rdi	# D.16622,
	call	get_alias_set	#
	testq	%rax, %rax	# D.16623
	je	.L74	#,
	.loc 1 431 0
	movq	-8(%rbp), %rax	# t, tmp93
	movq	32(%rax), %rax	# t_2(D)->exp.operands, D.16622
	movq	%rax, %rdi	# D.16622,
	call	can_address_p	#
	testl	%eax, %eax	# D.16620
	je	.L74	#,
	.loc 1 432 0
	movl	$1, %eax	#, D.16620
	jmp	.L70	#
.L74:
	.loc 1 434 0
	movl	$0, %eax	#, D.16620
.L70:
	.loc 1 435 0
	leave
	.cfi_def_cfa 7, 8
	ret
	.cfi_endproc
.LFE9:
	.size	can_address_p, .-can_address_p
	.globl	get_alias_set
	.type	get_alias_set, @function
get_alias_set:
.LFB10:
	.loc 1 443 0
	.cfi_startproc
	pushq	%rbp	#
	.cfi_def_cfa_offset 16
	.cfi_offset 6, -16
	movq	%rsp, %rbp	#,
	.cfi_def_cfa_register 6
	subq	$64, %rsp	#,
	movq	%rdi, -56(%rbp)	# t, t
	.loc 1 449 0
	movl	flag_strict_aliasing(%rip), %eax	# flag_strict_aliasing, flag_strict_aliasing.12
	testl	%eax, %eax	# flag_strict_aliasing.12
	je	.L76	#,
	.loc 1 449 0 is_stmt 0 discriminator 1
	movq	global_trees(%rip), %rax	# global_trees, D.16625
	cmpq	-56(%rbp), %rax	# t, D.16625
	je	.L76	#,
	.loc 1 450 0 is_stmt 1
	movq	-56(%rbp), %rax	# t, tmp143
	movzbl	16(%rax), %eax	# t_18(D)->common.code, D.16626
	movzbl	%al, %eax	# D.16626, D.16627
	cltq
	movzbl	tree_code_type(%rax), %eax	# tree_code_type, D.16628
	cmpb	$116, %al	#, D.16628
	je	.L77	#,
	.loc 1 451 0
	movq	-56(%rbp), %rax	# t, tmp145
	movq	8(%rax), %rax	# t_18(D)->common.type, D.16625
	testq	%rax, %rax	# D.16625
	je	.L76	#,
	.loc 1 451 0 is_stmt 0 discriminator 1
	movq	-56(%rbp), %rax	# t, tmp146
	movq	8(%rax), %rdx	# t_18(D)->common.type, D.16625
	movq	global_trees(%rip), %rax	# global_trees, D.16625
	cmpq	%rax, %rdx	# D.16625, D.16625
	jne	.L77	#,
.L76:
	.loc 1 452 0 is_stmt 1
	movl	$0, %eax	#, D.16624
	jmp	.L78	#
.L77:
	.loc 1 459 0
	movq	-56(%rbp), %rax	# t, tmp147
	movzbl	16(%rax), %eax	# t_18(D)->common.code, D.16626
	movzbl	%al, %eax	# D.16626, D.16627
	cltq
	movzbl	tree_code_type(%rax), %eax	# tree_code_type, D.16628
	cmpb	$116, %al	#, D.16628
	je	.L79	#,
.LBB2:
	.loc 1 461 0
	movq	-56(%rbp), %rax	# t, tmp149
	movq	%rax, -24(%rbp)	# tmp149, inner
	.loc 1 462 0
	movq	$0, -40(%rbp)	#, placeholder_ptr
	.loc 1 466 0
	jmp	.L80	#
.L83:
	.loc 1 466 0 is_stmt 0 discriminator 1
	movq	-56(%rbp), %rax	# t, tmp150
	movq	32(%rax), %rax	# t_1->exp.operands, tmp151
	movq	%rax, -56(%rbp)	# tmp151, t
.L80:
	movq	-56(%rbp), %rax	# t, tmp152
	movzbl	16(%rax), %eax	# t_1->common.code, D.16626
	cmpb	$115, %al	#, D.16626
	je	.L81	#,
	.loc 1 466 0 discriminator 3
	movq	-56(%rbp), %rax	# t, tmp153
	movzbl	16(%rax), %eax	# t_1->common.code, D.16626
	cmpb	$114, %al	#, D.16626
	je	.L81	#,
	.loc 1 466 0 discriminator 1
	movq	-56(%rbp), %rax	# t, tmp154
	movzbl	16(%rax), %eax	# t_1->common.code, D.16626
	cmpb	$116, %al	#, D.16626
	jne	.L82	#,
.L81:
	.loc 1 466 0 discriminator 2
	movq	-56(%rbp), %rax	# t, tmp155
	movq	32(%rax), %rdx	# t_1->exp.operands, D.16625
	movq	global_trees(%rip), %rax	# global_trees, D.16625
	cmpq	%rax, %rdx	# D.16625, D.16625
	je	.L82	#,
	.loc 1 466 0 discriminator 1
	movq	-56(%rbp), %rax	# t, tmp156
	movq	8(%rax), %rax	# t_1->common.type, D.16625
	movzbl	61(%rax), %eax	# *_34, tmp159
	shrb	%al	# D.16629
	movl	%eax, %edx	# D.16629, D.16629
	movq	-56(%rbp), %rax	# t, tmp160
	movq	32(%rax), %rax	# t_1->exp.operands, D.16625
	movq	8(%rax), %rax	# _36->common.type, D.16625
	movzbl	61(%rax), %eax	# *_37, tmp163
	shrb	%al	# D.16629
	cmpb	%al, %dl	# D.16629, D.16629
	je	.L83	#,
.L82:
	.loc 1 467 0 is_stmt 1
	movq	lang_hooks+64(%rip), %rax	# lang_hooks.get_alias_set, D.16630
	movq	-56(%rbp), %rdx	# t, tmp164
	movq	%rdx, %rdi	# tmp164,
	call	*%rax	# D.16630
	movq	%rax, -32(%rbp)	# tmp165, set
	.loc 1 468 0
	cmpq	$-1, -32(%rbp)	#, set
	je	.L84	#,
	.loc 1 469 0
	movq	-32(%rbp), %rax	# set, D.16624
	jmp	.L78	#
.L84:
	.loc 1 474 0
	jmp	.L86	#
.L92:
	.loc 1 477 0
	movq	-24(%rbp), %rax	# inner, tmp166
	movzbl	16(%rax), %eax	# inner_9->common.code, D.16626
	cmpb	$57, %al	#, D.16626
	jne	.L87	#,
	.loc 1 478 0
	leaq	-40(%rbp), %rdx	#, tmp167
	movq	-24(%rbp), %rax	# inner, tmp168
	movq	%rdx, %rsi	# tmp167,
	movq	%rax, %rdi	# tmp168,
	call	find_placeholder	#
	movq	%rax, -24(%rbp)	# tmp169, inner
	.loc 1 482 0
	jmp	.L89	#
.L87:
	.loc 1 480 0
	movq	-24(%rbp), %rax	# inner, tmp170
	movq	32(%rax), %rax	# inner_9->exp.operands, tmp171
	movq	%rax, -24(%rbp)	# tmp171, inner
	.loc 1 482 0
	jmp	.L89	#
.L91:
	.loc 1 482 0 is_stmt 0 discriminator 1
	movq	-24(%rbp), %rax	# inner, tmp172
	movq	32(%rax), %rax	# inner_8->exp.operands, tmp173
	movq	%rax, -24(%rbp)	# tmp173, inner
.L89:
	movq	-24(%rbp), %rax	# inner, tmp174
	movzbl	16(%rax), %eax	# inner_8->common.code, D.16626
	cmpb	$115, %al	#, D.16626
	je	.L90	#,
	.loc 1 482 0 discriminator 3
	movq	-24(%rbp), %rax	# inner, tmp175
	movzbl	16(%rax), %eax	# inner_8->common.code, D.16626
	cmpb	$114, %al	#, D.16626
	je	.L90	#,
	.loc 1 482 0 discriminator 1
	movq	-24(%rbp), %rax	# inner, tmp176
	movzbl	16(%rax), %eax	# inner_8->common.code, D.16626
	cmpb	$116, %al	#, D.16626
	jne	.L86	#,
.L90:
	.loc 1 482 0 discriminator 2
	movq	-24(%rbp), %rax	# inner, tmp177
	movq	32(%rax), %rdx	# inner_8->exp.operands, D.16625
	movq	global_trees(%rip), %rax	# global_trees, D.16625
	cmpq	%rax, %rdx	# D.16625, D.16625
	je	.L86	#,
	.loc 1 482 0 discriminator 1
	movq	-24(%rbp), %rax	# inner, tmp178
	movq	8(%rax), %rax	# inner_8->common.type, D.16625
	movzbl	61(%rax), %eax	# *_102, tmp181
	shrb	%al	# D.16629
	movl	%eax, %edx	# D.16629, D.16629
	movq	-24(%rbp), %rax	# inner, tmp182
	movq	32(%rax), %rax	# inner_8->exp.operands, D.16625
	movq	8(%rax), %rax	# _104->common.type, D.16625
	movzbl	61(%rax), %eax	# *_105, tmp185
	shrb	%al	# D.16629
	cmpb	%al, %dl	# D.16629, D.16629
	je	.L91	#,
.L86:
	.loc 1 474 0 is_stmt 1 discriminator 1
	movq	-24(%rbp), %rax	# inner, tmp186
	movzbl	16(%rax), %eax	# inner_9->common.code, D.16626
	cmpb	$57, %al	#, D.16626
	je	.L92	#,
	.loc 1 475 0
	movq	-24(%rbp), %rax	# inner, tmp187
	movq	%rax, %rdi	# tmp187,
	call	handled_component_p	#
	testl	%eax, %eax	# D.16627
	jne	.L92	#,
	.loc 1 486 0
	movq	-24(%rbp), %rax	# inner, tmp188
	movzbl	16(%rax), %eax	# inner_9->common.code, D.16626
	cmpb	$41, %al	#, D.16626
	jne	.L93	#,
.LBB3:
	.loc 1 488 0
	movq	-24(%rbp), %rax	# inner, tmp189
	movq	32(%rax), %rax	# inner_9->exp.operands, D.16625
	movq	%rax, %rdi	# D.16625,
	call	find_base_decl	#
	movq	%rax, -16(%rbp)	# tmp190, decl
	.loc 1 490 0
	cmpq	$0, -16(%rbp)	#, decl
	je	.L94	#,
	.loc 1 490 0 is_stmt 0 discriminator 1
	movq	-16(%rbp), %rax	# decl, tmp191
	movq	192(%rax), %rax	# decl_47->decl.pointer_alias_set, D.16624
	cmpq	$-1, %rax	#, D.16624
	je	.L94	#,
	.loc 1 493 0 is_stmt 1
	movq	-16(%rbp), %rax	# decl, tmp192
	movq	192(%rax), %rax	# decl_47->decl.pointer_alias_set, D.16624
	cmpq	$-2, %rax	#, D.16624
	jne	.L95	#,
.LBB4:
	.loc 1 503 0
	movq	-16(%rbp), %rax	# decl, tmp193
	movq	8(%rax), %rax	# decl_47->common.type, D.16625
	movq	8(%rax), %rax	# _50->common.type, D.16625
	.loc 1 502 0
	movq	%rax, %rdi	# D.16625,
	call	get_alias_set	#
	movq	%rax, -8(%rbp)	# tmp194, pointed_to_alias_set
	.loc 1 505 0
	cmpq	$0, -8(%rbp)	#, pointed_to_alias_set
	je	.L95	#,
	.loc 1 510 0
	call	new_alias_set	#
	movq	-16(%rbp), %rdx	# decl, tmp195
	movq	%rax, 192(%rdx)	# D.16624, decl_47->decl.pointer_alias_set
	.loc 1 511 0
	movq	-16(%rbp), %rax	# decl, tmp196
	movq	192(%rax), %rdx	# decl_47->decl.pointer_alias_set, D.16624
	movq	-8(%rbp), %rax	# pointed_to_alias_set, tmp197
	movq	%rdx, %rsi	# D.16624,
	movq	%rax, %rdi	# tmp197,
	call	record_alias_subset	#
.L95:
.LBE4:
	.loc 1 517 0
	movq	-16(%rbp), %rax	# decl, tmp198
	movq	192(%rax), %rax	# decl_47->decl.pointer_alias_set, D.16624
	jmp	.L78	#
.L94:
	.loc 1 522 0
	movq	-24(%rbp), %rax	# inner, tmp199
	movq	8(%rax), %rax	# inner_9->common.type, D.16625
	movzbl	16(%rax), %eax	# _56->common.code, D.16626
	cmpb	$5, %al	#, D.16626
	jne	.L93	#,
	.loc 1 523 0
	movl	$0, %eax	#, D.16624
	jmp	.L78	#
.L93:
.LBE3:
	.loc 1 528 0
	movq	$0, -40(%rbp)	#, placeholder_ptr
	.loc 1 529 0
	jmp	.L96	#
.L102:
	.loc 1 532 0
	movq	-56(%rbp), %rax	# t, tmp200
	movzbl	16(%rax), %eax	# t_4->common.code, D.16626
	cmpb	$57, %al	#, D.16626
	jne	.L97	#,
	.loc 1 533 0
	leaq	-40(%rbp), %rdx	#, tmp201
	movq	-56(%rbp), %rax	# t, tmp202
	movq	%rdx, %rsi	# tmp201,
	movq	%rax, %rdi	# tmp202,
	call	find_placeholder	#
	movq	%rax, -56(%rbp)	# tmp203, t
	.loc 1 537 0
	jmp	.L99	#
.L97:
	.loc 1 535 0
	movq	-56(%rbp), %rax	# t, tmp204
	movq	32(%rax), %rax	# t_4->exp.operands, tmp205
	movq	%rax, -56(%rbp)	# tmp205, t
	.loc 1 537 0
	jmp	.L99	#
.L101:
	.loc 1 537 0 is_stmt 0 discriminator 1
	movq	-56(%rbp), %rax	# t, tmp206
	movq	32(%rax), %rax	# t_3->exp.operands, tmp207
	movq	%rax, -56(%rbp)	# tmp207, t
.L99:
	movq	-56(%rbp), %rax	# t, tmp208
	movzbl	16(%rax), %eax	# t_3->common.code, D.16626
	cmpb	$115, %al	#, D.16626
	je	.L100	#,
	.loc 1 537 0 discriminator 3
	movq	-56(%rbp), %rax	# t, tmp209
	movzbl	16(%rax), %eax	# t_3->common.code, D.16626
	cmpb	$114, %al	#, D.16626
	je	.L100	#,
	.loc 1 537 0 discriminator 1
	movq	-56(%rbp), %rax	# t, tmp210
	movzbl	16(%rax), %eax	# t_3->common.code, D.16626
	cmpb	$116, %al	#, D.16626
	jne	.L96	#,
.L100:
	.loc 1 537 0 discriminator 2
	movq	-56(%rbp), %rax	# t, tmp211
	movq	32(%rax), %rdx	# t_3->exp.operands, D.16625
	movq	global_trees(%rip), %rax	# global_trees, D.16625
	cmpq	%rax, %rdx	# D.16625, D.16625
	je	.L96	#,
	.loc 1 537 0 discriminator 1
	movq	-56(%rbp), %rax	# t, tmp212
	movq	8(%rax), %rax	# t_3->common.type, D.16625
	movzbl	61(%rax), %eax	# *_88, tmp215
	shrb	%al	# D.16629
	movl	%eax, %edx	# D.16629, D.16629
	movq	-56(%rbp), %rax	# t, tmp216
	movq	32(%rax), %rax	# t_3->exp.operands, D.16625
	movq	8(%rax), %rax	# _90->common.type, D.16625
	movzbl	61(%rax), %eax	# *_91, tmp219
	shrb	%al	# D.16629
	cmpb	%al, %dl	# D.16629, D.16629
	je	.L101	#,
.L96:
	.loc 1 529 0 is_stmt 1 discriminator 1
	movq	-56(%rbp), %rax	# t, tmp220
	movzbl	16(%rax), %eax	# t_4->common.code, D.16626
	cmpb	$57, %al	#, D.16626
	je	.L102	#,
	.loc 1 530 0
	movq	-56(%rbp), %rax	# t, tmp221
	movq	%rax, %rdi	# tmp221,
	call	handled_component_p	#
	testl	%eax, %eax	# D.16627
	je	.L103	#,
	.loc 1 530 0 is_stmt 0 discriminator 1
	movq	-56(%rbp), %rax	# t, tmp222
	movq	%rax, %rdi	# tmp222,
	call	can_address_p	#
	testl	%eax, %eax	# D.16627
	je	.L102	#,
.L103:
	.loc 1 543 0 is_stmt 1
	movq	-56(%rbp), %rax	# t, tmp223
	movzbl	16(%rax), %eax	# t_4->common.code, D.16626
	cmpb	$34, %al	#, D.16626
	jne	.L104	#,
	.loc 1 544 0
	movq	-56(%rbp), %rax	# t, tmp224
	movq	144(%rax), %rax	# t_4->decl.rtl, D.16631
	testq	%rax, %rax	# D.16631
	je	.L104	#,
	.loc 1 544 0 is_stmt 0 discriminator 1
	movq	-56(%rbp), %rax	# t, tmp225
	movq	144(%rax), %rax	# t_4->decl.rtl, D.16631
	testq	%rax, %rax	# D.16631
	je	.L105	#,
	movq	-56(%rbp), %rax	# t, tmp226
	movq	144(%rax), %rax	# t_4->decl.rtl, iftmp.13
	jmp	.L106	#
.L105:
	.loc 1 544 0 discriminator 2
	movq	-56(%rbp), %rax	# t, tmp227
	movl	$0, %esi	#,
	movq	%rax, %rdi	# tmp227,
	call	make_decl_rtl	#
	movq	-56(%rbp), %rax	# t, tmp228
	movq	144(%rax), %rax	# t_4->decl.rtl, iftmp.13
.L106:
	.loc 1 544 0 discriminator 3
	movzwl	(%rax), %eax	# iftmp.13_12->code, D.16632
	cmpw	$66, %ax	#, D.16632
	jne	.L104	#,
	.loc 1 545 0 is_stmt 1
	movq	-56(%rbp), %rax	# t, tmp229
	movq	144(%rax), %rax	# t_4->decl.rtl, D.16631
	testq	%rax, %rax	# D.16631
	je	.L107	#,
	.loc 1 545 0 is_stmt 0 discriminator 1
	movq	-56(%rbp), %rax	# t, tmp230
	movq	144(%rax), %rax	# t_4->decl.rtl, iftmp.15
	jmp	.L108	#
.L107:
	.loc 1 545 0 discriminator 2
	movq	-56(%rbp), %rax	# t, tmp231
	movl	$0, %esi	#,
	movq	%rax, %rdi	# tmp231,
	call	make_decl_rtl	#
	movq	-56(%rbp), %rax	# t, tmp232
	movq	144(%rax), %rax	# t_4->decl.rtl, iftmp.15
.L108:
	.loc 1 545 0 discriminator 3
	movq	16(%rax), %rax	# iftmp.15_14->fld[1].rtmem, D.16633
	testq	%rax, %rax	# D.16633
	je	.L109	#,
	.loc 1 545 0 discriminator 1
	movq	-56(%rbp), %rax	# t, tmp233
	movq	144(%rax), %rax	# t_4->decl.rtl, D.16631
	testq	%rax, %rax	# D.16631
	je	.L110	#,
	movq	-56(%rbp), %rax	# t, tmp234
	movq	144(%rax), %rax	# t_4->decl.rtl, iftmp.16
	jmp	.L111	#
.L110:
	.loc 1 545 0 discriminator 2
	movq	-56(%rbp), %rax	# t, tmp235
	movl	$0, %esi	#,
	movq	%rax, %rdi	# tmp235,
	call	make_decl_rtl	#
	movq	-56(%rbp), %rax	# t, tmp236
	movq	144(%rax), %rax	# t_4->decl.rtl, iftmp.16
.L111:
	.loc 1 545 0 discriminator 1
	movq	16(%rax), %rax	# iftmp.16_15->fld[1].rtmem, D.16633
	movq	(%rax), %rax	# _75->alias, iftmp.14
	jmp	.L112	#
.L109:
	.loc 1 545 0 discriminator 2
	movl	$0, %eax	#, iftmp.14
.L112:
	.loc 1 545 0 discriminator 3
	jmp	.L78	#
.L104:
	.loc 1 548 0 is_stmt 1
	movq	-56(%rbp), %rax	# t, tmp237
	movq	8(%rax), %rax	# t_4->common.type, tmp238
	movq	%rax, -56(%rbp)	# tmp238, t
.L79:
.LBE2:
	.loc 1 553 0
	movq	-56(%rbp), %rax	# t, tmp239
	movq	128(%rax), %rax	# t_5->type.main_variant, tmp240
	movq	%rax, -56(%rbp)	# tmp240, t
	.loc 1 554 0
	movq	-56(%rbp), %rax	# t, tmp241
	movq	152(%rax), %rax	# t_108->type.alias_set, D.16624
	cmpq	$-1, %rax	#, D.16624
	je	.L113	#,
	.loc 1 555 0
	movq	-56(%rbp), %rax	# t, tmp242
	movq	152(%rax), %rax	# t_108->type.alias_set, D.16624
	jmp	.L78	#
.L113:
	.loc 1 558 0
	movq	lang_hooks+64(%rip), %rax	# lang_hooks.get_alias_set, D.16630
	movq	-56(%rbp), %rdx	# t, tmp243
	movq	%rdx, %rdi	# tmp243,
	call	*%rax	# D.16630
	movq	%rax, -32(%rbp)	# tmp244, set
	.loc 1 559 0
	cmpq	$-1, -32(%rbp)	#, set
	je	.L114	#,
	.loc 1 560 0
	movq	-32(%rbp), %rax	# set, D.16624
	jmp	.L78	#
.L114:
	.loc 1 565 0
	movq	-56(%rbp), %rax	# t, tmp245
	movzbl	16(%rax), %eax	# t_108->common.code, D.16626
	cmpb	$23, %al	#, D.16626
	jne	.L115	#,
	.loc 1 566 0
	movq	$0, -32(%rbp)	#, set
	jmp	.L116	#
.L115:
	.loc 1 572 0
	movq	-56(%rbp), %rax	# t, tmp246
	movzbl	16(%rax), %eax	# t_108->common.code, D.16626
	cmpb	$9, %al	#, D.16626
	jne	.L117	#,
	.loc 1 573 0
	movq	-56(%rbp), %rax	# t, tmp247
	movq	8(%rax), %rax	# t_108->common.type, D.16625
	movq	%rax, %rdi	# D.16625,
	call	get_alias_set	#
	movq	%rax, -32(%rbp)	# tmp248, set
	jmp	.L116	#
.L117:
	.loc 1 577 0
	call	new_alias_set	#
	movq	%rax, -32(%rbp)	# tmp249, set
.L116:
	.loc 1 579 0
	movq	-56(%rbp), %rax	# t, tmp250
	movq	-32(%rbp), %rdx	# set, tmp251
	movq	%rdx, 152(%rax)	# tmp251, t_108->type.alias_set
	.loc 1 583 0
	movq	-56(%rbp), %rax	# t, tmp252
	movzbl	16(%rax), %eax	# t_108->common.code, D.16626
	cmpb	$18, %al	#, D.16626
	je	.L118	#,
	.loc 1 583 0 is_stmt 0 discriminator 1
	movq	-56(%rbp), %rax	# t, tmp253
	movzbl	16(%rax), %eax	# t_108->common.code, D.16626
	cmpb	$20, %al	#, D.16626
	je	.L118	#,
	movq	-56(%rbp), %rax	# t, tmp254
	movzbl	16(%rax), %eax	# t_108->common.code, D.16626
	cmpb	$21, %al	#, D.16626
	je	.L118	#,
	movq	-56(%rbp), %rax	# t, tmp255
	movzbl	16(%rax), %eax	# t_108->common.code, D.16626
	cmpb	$22, %al	#, D.16626
	je	.L118	#,
	movq	-56(%rbp), %rax	# t, tmp256
	movzbl	16(%rax), %eax	# t_108->common.code, D.16626
	cmpb	$19, %al	#, D.16626
	je	.L118	#,
	movq	-56(%rbp), %rax	# t, tmp257
	movzbl	16(%rax), %eax	# t_108->common.code, D.16626
	cmpb	$8, %al	#, D.16626
	jne	.L119	#,
.L118:
	.loc 1 584 0 is_stmt 1
	movq	-56(%rbp), %rax	# t, tmp258
	movq	%rax, %rdi	# tmp258,
	call	record_component_aliases	#
.L119:
	.loc 1 586 0
	movq	-32(%rbp), %rax	# set, D.16624
.L78:
	.loc 1 587 0
	leave
	.cfi_def_cfa 7, 8
	ret
	.cfi_endproc
.LFE10:
	.size	get_alias_set, .-get_alias_set
	.globl	new_alias_set
	.type	new_alias_set, @function
new_alias_set:
.LFB11:
	.loc 1 593 0
	.cfi_startproc
	pushq	%rbp	#
	.cfi_def_cfa_offset 16
	.cfi_offset 6, -16
	movq	%rsp, %rbp	#,
	.cfi_def_cfa_register 6
	.loc 1 596 0
	movl	flag_strict_aliasing(%rip), %eax	# flag_strict_aliasing, flag_strict_aliasing.17
	testl	%eax, %eax	# flag_strict_aliasing.17
	je	.L121	#,
	.loc 1 597 0
	movq	last_alias_set.13366(%rip), %rax	# last_alias_set, last_alias_set.18
	addq	$1, %rax	#, last_alias_set.19
	movq	%rax, last_alias_set.13366(%rip)	# last_alias_set.19, last_alias_set
	movq	last_alias_set.13366(%rip), %rax	# last_alias_set, D.16634
	jmp	.L122	#
.L121:
	.loc 1 599 0
	movl	$0, %eax	#, D.16634
.L122:
	.loc 1 600 0
	popq	%rbp	#
	.cfi_def_cfa 7, 8
	ret
	.cfi_endproc
.LFE11:
	.size	new_alias_set, .-new_alias_set
	.section	.rodata
.LC0:
	.string	"alias.c"
	.text
	.globl	record_alias_subset
	.type	record_alias_subset, @function
record_alias_subset:
.LFB12:
	.loc 1 615 0
	.cfi_startproc
	pushq	%rbp	#
	.cfi_def_cfa_offset 16
	.cfi_offset 6, -16
	movq	%rsp, %rbp	#,
	.cfi_def_cfa_register 6
	subq	$32, %rsp	#,
	movq	%rdi, -24(%rbp)	# superset, superset
	movq	%rsi, -32(%rbp)	# subset, subset
	.loc 1 621 0
	movq	-24(%rbp), %rax	# superset, tmp68
	cmpq	-32(%rbp), %rax	# subset, tmp68
	jne	.L124	#,
	.loc 1 622 0
	jmp	.L123	#
.L124:
	.loc 1 624 0
	cmpq	$0, -24(%rbp)	#, superset
	jne	.L126	#,
	.loc 1 625 0
	movl	$__FUNCTION__.13373, %edx	#,
	movl	$625, %esi	#,
	movl	$.LC0, %edi	#,
	call	fancy_abort	#
.L126:
	.loc 1 627 0
	movq	-24(%rbp), %rax	# superset, tmp69
	movq	%rax, %rdi	# tmp69,
	call	get_alias_set_entry	#
	movq	%rax, -16(%rbp)	# tmp70, superset_entry
	.loc 1 628 0
	cmpq	$0, -16(%rbp)	#, superset_entry
	jne	.L127	#,
	.loc 1 633 0
	movl	$24, %edi	#,
	call	xmalloc	#
	movq	%rax, -16(%rbp)	# tmp71, superset_entry
	.loc 1 634 0
	movq	-16(%rbp), %rax	# superset_entry, tmp72
	movq	-24(%rbp), %rdx	# superset, tmp73
	movq	%rdx, (%rax)	# tmp73, superset_entry_5->alias_set
	.loc 1 636 0
	movl	$0, %edx	#,
	movl	$0, %esi	#,
	movl	$splay_tree_compare_ints, %edi	#,
	call	splay_tree_new	#
	movq	-16(%rbp), %rdx	# superset_entry, tmp74
	movq	%rax, 8(%rdx)	# D.16635, superset_entry_5->children
	.loc 1 637 0
	movq	-16(%rbp), %rax	# superset_entry, tmp75
	movl	$0, 16(%rax)	#, superset_entry_5->has_zero_child
	.loc 1 638 0
	movq	-16(%rbp), %rdx	# superset_entry, superset_entry.20
	movq	-24(%rbp), %rcx	# superset, superset.21
	movq	alias_sets(%rip), %rax	# alias_sets, alias_sets.22
	movq	%rcx, %rsi	# superset.21,
	movq	%rax, %rdi	# alias_sets.22,
	call	splay_tree_insert	#
.L127:
	.loc 1 642 0
	cmpq	$0, -32(%rbp)	#, subset
	jne	.L128	#,
	.loc 1 643 0
	movq	-16(%rbp), %rax	# superset_entry, tmp76
	movl	$1, 16(%rax)	#, superset_entry_1->has_zero_child
	jmp	.L123	#
.L128:
	.loc 1 646 0
	movq	-32(%rbp), %rax	# subset, tmp77
	movq	%rax, %rdi	# tmp77,
	call	get_alias_set_entry	#
	movq	%rax, -8(%rbp)	# tmp78, subset_entry
	.loc 1 649 0
	cmpq	$0, -8(%rbp)	#, subset_entry
	je	.L129	#,
	.loc 1 651 0
	movq	-8(%rbp), %rax	# subset_entry, tmp79
	movl	16(%rax), %eax	# subset_entry_10->has_zero_child, D.16636
	testl	%eax, %eax	# D.16636
	je	.L130	#,
	.loc 1 652 0
	movq	-16(%rbp), %rax	# superset_entry, tmp80
	movl	$1, 16(%rax)	#, superset_entry_1->has_zero_child
.L130:
	.loc 1 655 0
	movq	-16(%rbp), %rax	# superset_entry, tmp81
	movq	8(%rax), %rdx	# superset_entry_1->children, D.16635
	.loc 1 654 0
	movq	-8(%rbp), %rax	# subset_entry, tmp82
	movq	8(%rax), %rax	# subset_entry_10->children, D.16635
	movl	$insert_subset_children, %esi	#,
	movq	%rax, %rdi	# D.16635,
	call	splay_tree_foreach	#
.L129:
	.loc 1 659 0
	movq	-32(%rbp), %rcx	# subset, subset.23
	movq	-16(%rbp), %rax	# superset_entry, tmp83
	movq	8(%rax), %rax	# superset_entry_1->children, D.16635
	movl	$0, %edx	#,
	movq	%rcx, %rsi	# subset.23,
	movq	%rax, %rdi	# D.16635,
	call	splay_tree_insert	#
.L123:
	.loc 1 662 0
	leave
	.cfi_def_cfa 7, 8
	ret
	.cfi_endproc
.LFE12:
	.size	record_alias_subset, .-record_alias_subset
	.globl	record_component_aliases
	.type	record_component_aliases, @function
record_component_aliases:
.LFB13:
	.loc 1 673 0
	.cfi_startproc
	pushq	%rbp	#
	.cfi_def_cfa_offset 16
	.cfi_offset 6, -16
	movq	%rsp, %rbp	#,
	.cfi_def_cfa_register 6
	subq	$32, %rsp	#,
	movq	%rdi, -24(%rbp)	# type, type
	.loc 1 674 0
	movq	-24(%rbp), %rax	# type, tmp72
	movq	%rax, %rdi	# tmp72,
	call	get_alias_set	#
	movq	%rax, -8(%rbp)	# tmp73, superset
	.loc 1 677 0
	cmpq	$0, -8(%rbp)	#, superset
	jne	.L132	#,
	.loc 1 678 0
	jmp	.L131	#
.L132:
	.loc 1 680 0
	movq	-24(%rbp), %rax	# type, tmp74
	movzbl	16(%rax), %eax	# type_2(D)->common.code, D.16638
	movzbl	%al, %eax	# D.16638, D.16639
	cmpl	$18, %eax	#, D.16639
	je	.L135	#,
	cmpl	$18, %eax	#, D.16639
	ja	.L136	#,
	cmpl	$8, %eax	#, D.16639
	je	.L137	#,
	.loc 1 700 0
	jmp	.L144	#
.L136:
	.loc 1 680 0
	subl	$20, %eax	#, tmp75
	cmpl	$2, %eax	#, tmp75
	ja	.L144	#,
	jmp	.L143	#
.L135:
	.loc 1 683 0
	movq	-24(%rbp), %rax	# type, tmp76
	movzbl	62(%rax), %eax	# *type_2(D), D.16638
	andl	$8, %eax	#, D.16638
	testb	%al, %al	# D.16638
	jne	.L139	#,
	.loc 1 684 0
	movq	-24(%rbp), %rax	# type, tmp77
	movq	8(%rax), %rax	# type_2(D)->common.type, D.16640
	movq	%rax, %rdi	# D.16640,
	call	get_alias_set	#
	movq	%rax, %rdx	#, D.16641
	movq	-8(%rbp), %rax	# superset, tmp78
	movq	%rdx, %rsi	# D.16641,
	movq	%rax, %rdi	# tmp78,
	call	record_alias_subset	#
	.loc 1 685 0
	jmp	.L131	#
.L139:
	jmp	.L131	#
.L143:
	.loc 1 690 0
	movq	-24(%rbp), %rax	# type, tmp79
	movq	24(%rax), %rax	# type_2(D)->type.values, tmp80
	movq	%rax, -16(%rbp)	# tmp80, field
	jmp	.L140	#
.L142:
	.loc 1 691 0
	movq	-16(%rbp), %rax	# field, tmp81
	movzbl	16(%rax), %eax	# field_1->common.code, D.16638
	cmpb	$37, %al	#, D.16638
	jne	.L141	#,
	.loc 1 691 0 is_stmt 0 discriminator 1
	movq	-16(%rbp), %rax	# field, tmp82
	movzbl	52(%rax), %eax	# *field_1, D.16638
	andl	$4, %eax	#, D.16638
	testb	%al, %al	# D.16638
	jne	.L141	#,
	.loc 1 692 0 is_stmt 1
	movq	-16(%rbp), %rax	# field, tmp83
	movq	8(%rax), %rax	# field_1->common.type, D.16640
	movq	%rax, %rdi	# D.16640,
	call	get_alias_set	#
	movq	%rax, %rdx	#, D.16641
	movq	-8(%rbp), %rax	# superset, tmp84
	movq	%rdx, %rsi	# D.16641,
	movq	%rax, %rdi	# tmp84,
	call	record_alias_subset	#
.L141:
	.loc 1 690 0
	movq	-16(%rbp), %rax	# field, tmp85
	movq	(%rax), %rax	# field_1->common.chain, tmp86
	movq	%rax, -16(%rbp)	# tmp86, field
.L140:
	.loc 1 690 0 is_stmt 0 discriminator 1
	cmpq	$0, -16(%rbp)	#, field
	jne	.L142	#,
	.loc 1 693 0 is_stmt 1
	jmp	.L131	#
.L137:
	.loc 1 696 0
	movq	-24(%rbp), %rax	# type, tmp87
	movq	8(%rax), %rax	# type_2(D)->common.type, D.16640
	movq	%rax, %rdi	# D.16640,
	call	get_alias_set	#
	movq	%rax, %rdx	#, D.16641
	movq	-8(%rbp), %rax	# superset, tmp88
	movq	%rdx, %rsi	# D.16641,
	movq	%rax, %rdi	# tmp88,
	call	record_alias_subset	#
	.loc 1 697 0
	jmp	.L131	#
.L144:
	.loc 1 700 0
	nop
.L131:
	.loc 1 702 0
	leave
	.cfi_def_cfa 7, 8
	ret
	.cfi_endproc
.LFE13:
	.size	record_component_aliases, .-record_component_aliases
	.globl	get_varargs_alias_set
	.type	get_varargs_alias_set, @function
get_varargs_alias_set:
.LFB14:
	.loc 1 709 0
	.cfi_startproc
	pushq	%rbp	#
	.cfi_def_cfa_offset 16
	.cfi_offset 6, -16
	movq	%rsp, %rbp	#,
	.cfi_def_cfa_register 6
	.loc 1 712 0
	movq	set.13391(%rip), %rax	# set, set.24
	cmpq	$-1, %rax	#, set.24
	jne	.L146	#,
	.loc 1 713 0
	call	new_alias_set	#
	movq	%rax, set.13391(%rip)	# set.25, set
.L146:
	.loc 1 715 0
	movq	set.13391(%rip), %rax	# set, D.16643
	.loc 1 716 0
	popq	%rbp	#
	.cfi_def_cfa 7, 8
	ret
	.cfi_endproc
.LFE14:
	.size	get_varargs_alias_set, .-get_varargs_alias_set
	.globl	get_frame_alias_set
	.type	get_frame_alias_set, @function
get_frame_alias_set:
.LFB15:
	.loc 1 723 0
	.cfi_startproc
	pushq	%rbp	#
	.cfi_def_cfa_offset 16
	.cfi_offset 6, -16
	movq	%rsp, %rbp	#,
	.cfi_def_cfa_register 6
	.loc 1 726 0
	movq	set.13394(%rip), %rax	# set, set.26
	cmpq	$-1, %rax	#, set.26
	jne	.L149	#,
	.loc 1 727 0
	call	new_alias_set	#
	movq	%rax, set.13394(%rip)	# set.27, set
.L149:
	.loc 1 729 0
	movq	set.13394(%rip), %rax	# set, D.16644
	.loc 1 730 0
	popq	%rbp	#
	.cfi_def_cfa 7, 8
	ret
	.cfi_endproc
.LFE15:
	.size	get_frame_alias_set, .-get_frame_alias_set
	.type	find_base_value, @function
find_base_value:
.LFB16:
	.loc 1 737 0
	.cfi_startproc
	pushq	%rbp	#
	.cfi_def_cfa_offset 16
	.cfi_offset 6, -16
	movq	%rsp, %rbp	#,
	.cfi_def_cfa_register 6
	subq	$64, %rsp	#,
	movq	%rdi, -56(%rbp)	# src, src
	.loc 1 740 0
	movq	-56(%rbp), %rax	# src, tmp138
	movzwl	(%rax), %eax	# src_6(D)->code, D.16646
	movzwl	%ax, %eax	# D.16646, D.16647
	subl	$58, %eax	#, tmp139
	cmpl	$77, %eax	#, tmp139
	ja	.L186	#,
	movl	%eax, %eax	# tmp139, tmp140
	movq	.L154(,%rax,8), %rax	#, tmp141
	jmp	*%rax	# tmp141
	.section	.rodata
	.align 8
	.align 4
.L154:
	.quad	.L153
	.quad	.L186
	.quad	.L186
	.quad	.L155
	.quad	.L186
	.quad	.L186
	.quad	.L186
	.quad	.L186
	.quad	.L156
	.quad	.L157
	.quad	.L157
	.quad	.L186
	.quad	.L186
	.quad	.L186
	.quad	.L186
	.quad	.L186
	.quad	.L186
	.quad	.L158
	.quad	.L158
	.quad	.L186
	.quad	.L186
	.quad	.L186
	.quad	.L186
	.quad	.L186
	.quad	.L186
	.quad	.L159
	.quad	.L186
	.quad	.L186
	.quad	.L186
	.quad	.L186
	.quad	.L186
	.quad	.L186
	.quad	.L186
	.quad	.L186
	.quad	.L186
	.quad	.L186
	.quad	.L186
	.quad	.L186
	.quad	.L160
	.quad	.L160
	.quad	.L160
	.quad	.L160
	.quad	.L160
	.quad	.L160
	.quad	.L186
	.quad	.L186
	.quad	.L186
	.quad	.L186
	.quad	.L186
	.quad	.L186
	.quad	.L186
	.quad	.L186
	.quad	.L186
	.quad	.L186
	.quad	.L186
	.quad	.L186
	.quad	.L186
	.quad	.L186
	.quad	.L186
	.quad	.L186
	.quad	.L186
	.quad	.L186
	.quad	.L161
	.quad	.L161
	.quad	.L162
	.quad	.L186
	.quad	.L186
	.quad	.L186
	.quad	.L186
	.quad	.L186
	.quad	.L186
	.quad	.L186
	.quad	.L186
	.quad	.L186
	.quad	.L186
	.quad	.L186
	.quad	.L160
	.quad	.L163
	.text
.L157:
	.loc 1 744 0
	movq	-56(%rbp), %rax	# src, D.16645
	jmp	.L164	#
.L155:
	.loc 1 747 0
	movq	-56(%rbp), %rax	# src, tmp142
	movl	8(%rax), %eax	# src_6(D)->fld[0].rtuint, tmp143
	movl	%eax, -36(%rbp)	# tmp143, regno
	.loc 1 752 0
	cmpl	$52, -36(%rbp)	#, regno
	ja	.L165	#,
	.loc 1 752 0 is_stmt 0 discriminator 1
	movl	copying_arguments(%rip), %eax	# copying_arguments, copying_arguments.28
	testl	%eax, %eax	# copying_arguments.28
	je	.L165	#,
	.loc 1 753 0 is_stmt 1
	movq	new_reg_base_value(%rip), %rax	# new_reg_base_value, new_reg_base_value.29
	movl	-36(%rbp), %edx	# regno, D.16648
	salq	$3, %rdx	#, D.16648
	addq	%rdx, %rax	# D.16648, D.16649
	movq	(%rax), %rax	# *_15, D.16645
	jmp	.L164	#
.L165:
	.loc 1 761 0
	cmpl	$52, -36(%rbp)	#, regno
	ja	.L166	#,
	.loc 1 761 0 is_stmt 0 discriminator 1
	movl	-36(%rbp), %eax	# regno, tmp144
	movzbl	fixed_regs(%rax), %eax	# fixed_regs, D.16650
	testb	%al, %al	# D.16650
	je	.L167	#,
.L166:
	.loc 1 762 0 is_stmt 1
	movl	reg_base_value_size(%rip), %eax	# reg_base_value_size, reg_base_value_size.30
	cmpl	%eax, -36(%rbp)	# reg_base_value_size.30, regno
	jae	.L167	#,
	.loc 1 763 0
	movq	reg_base_value(%rip), %rax	# reg_base_value, reg_base_value.31
	movl	-36(%rbp), %edx	# regno, D.16648
	salq	$3, %rdx	#, D.16648
	addq	%rdx, %rax	# D.16648, D.16649
	movq	(%rax), %rax	# *_22, D.16651
	testq	%rax, %rax	# D.16651
	je	.L167	#,
	.loc 1 764 0
	movq	reg_base_value(%rip), %rax	# reg_base_value, reg_base_value.32
	movl	-36(%rbp), %edx	# regno, D.16648
	salq	$3, %rdx	#, D.16648
	addq	%rdx, %rax	# D.16648, D.16649
	movq	(%rax), %rax	# *_27, D.16645
	jmp	.L164	#
.L167:
	.loc 1 766 0
	movq	-56(%rbp), %rax	# src, D.16645
	jmp	.L164	#
.L156:
	.loc 1 772 0
	movl	copying_arguments(%rip), %eax	# copying_arguments, copying_arguments.33
	testl	%eax, %eax	# copying_arguments.33
	je	.L168	#,
	.loc 1 773 0
	movq	-56(%rbp), %rax	# src, tmp145
	movq	8(%rax), %rdx	# src_6(D)->fld[0].rtx, D.16651
	movq	global_rtl+40(%rip), %rax	# global_rtl, D.16651
	cmpq	%rax, %rdx	# D.16651, D.16651
	je	.L169	#,
	.loc 1 774 0
	movq	-56(%rbp), %rax	# src, tmp146
	movq	8(%rax), %rax	# src_6(D)->fld[0].rtx, D.16651
	movzwl	(%rax), %eax	# _33->code, D.16646
	cmpw	$75, %ax	#, D.16646
	jne	.L168	#,
	.loc 1 775 0
	movq	-56(%rbp), %rax	# src, tmp147
	movq	8(%rax), %rax	# src_6(D)->fld[0].rtx, D.16651
	movq	8(%rax), %rdx	# _35->fld[0].rtx, D.16651
	movq	global_rtl+40(%rip), %rax	# global_rtl, D.16651
	cmpq	%rax, %rdx	# D.16651, D.16651
	jne	.L168	#,
.L169:
	.loc 1 776 0
	movq	-56(%rbp), %rax	# src, tmp148
	movq	%rax, %rdx	# tmp148,
	movl	$0, %esi	#,
	movl	$25, %edi	#,
	call	gen_rtx_fmt_e	#
	jmp	.L164	#
.L168:
	.loc 1 777 0
	movl	$0, %eax	#, D.16645
	jmp	.L164	#
.L153:
	.loc 1 780 0
	movq	-56(%rbp), %rax	# src, tmp149
	movq	8(%rax), %rax	# src_6(D)->fld[0].rtx, tmp150
	movq	%rax, -56(%rbp)	# tmp150, src
	.loc 1 781 0
	movq	-56(%rbp), %rax	# src, tmp151
	movzwl	(%rax), %eax	# src_40->code, D.16646
	cmpw	$75, %ax	#, D.16646
	je	.L158	#,
	.loc 1 781 0 is_stmt 0 discriminator 1
	movq	-56(%rbp), %rax	# src, tmp152
	movzwl	(%rax), %eax	# src_40->code, D.16646
	cmpw	$76, %ax	#, D.16646
	je	.L158	#,
	.loc 1 782 0 is_stmt 1
	jmp	.L170	#
.L158:
.LBB5:
	.loc 1 789 0
	movq	-56(%rbp), %rax	# src, tmp153
	movq	8(%rax), %rax	# src_1->fld[0].rtx, tmp154
	movq	%rax, -32(%rbp)	# tmp154, src_0
	movq	-56(%rbp), %rax	# src, tmp155
	movq	16(%rax), %rax	# src_1->fld[1].rtx, tmp156
	movq	%rax, -24(%rbp)	# tmp156, src_1
	.loc 1 793 0
	movq	-32(%rbp), %rax	# src_0, tmp157
	movzwl	(%rax), %eax	# src_0_43->code, D.16646
	cmpw	$61, %ax	#, D.16646
	jne	.L171	#,
	.loc 1 793 0 is_stmt 0 discriminator 1
	movq	-32(%rbp), %rax	# src_0, tmp158
	movzbl	3(%rax), %eax	# *src_0_43, D.16652
	andl	$-128, %eax	#, D.16652
	testb	%al, %al	# D.16652
	je	.L171	#,
	.loc 1 794 0 is_stmt 1
	movq	-32(%rbp), %rax	# src_0, tmp159
	movq	%rax, %rdi	# tmp159,
	call	find_base_value	#
	jmp	.L164	#
.L171:
	.loc 1 795 0
	movq	-24(%rbp), %rax	# src_1, tmp160
	movzwl	(%rax), %eax	# src_1_44->code, D.16646
	cmpw	$61, %ax	#, D.16646
	jne	.L172	#,
	.loc 1 795 0 is_stmt 0 discriminator 1
	movq	-24(%rbp), %rax	# src_1, tmp161
	movzbl	3(%rax), %eax	# *src_1_44, D.16652
	andl	$-128, %eax	#, D.16652
	testb	%al, %al	# D.16652
	je	.L172	#,
	.loc 1 796 0 is_stmt 1
	movq	-24(%rbp), %rax	# src_1, tmp162
	movq	%rax, %rdi	# tmp162,
	call	find_base_value	#
	jmp	.L164	#
.L172:
	.loc 1 800 0
	movq	-32(%rbp), %rax	# src_0, tmp163
	movzwl	(%rax), %eax	# src_0_43->code, D.16646
	cmpw	$61, %ax	#, D.16646
	jne	.L173	#,
	.loc 1 802 0
	movq	-32(%rbp), %rax	# src_0, tmp164
	movq	%rax, %rdi	# tmp164,
	call	find_base_value	#
	movq	%rax, -16(%rbp)	# tmp165, temp
	.loc 1 803 0
	cmpq	$0, -16(%rbp)	#, temp
	je	.L173	#,
	.loc 1 804 0
	movq	-16(%rbp), %rax	# temp, tmp166
	movq	%rax, -32(%rbp)	# tmp166, src_0
.L173:
	.loc 1 807 0
	movq	-24(%rbp), %rax	# src_1, tmp167
	movzwl	(%rax), %eax	# src_1_44->code, D.16646
	cmpw	$61, %ax	#, D.16646
	jne	.L174	#,
	.loc 1 809 0
	movq	-24(%rbp), %rax	# src_1, tmp168
	movq	%rax, %rdi	# tmp168,
	call	find_base_value	#
	movq	%rax, -16(%rbp)	# tmp169, temp
	.loc 1 810 0
	cmpq	$0, -16(%rbp)	#, temp
	je	.L174	#,
	.loc 1 811 0
	movq	-16(%rbp), %rax	# temp, tmp170
	movq	%rax, -24(%rbp)	# tmp170, src_1
.L174:
	.loc 1 817 0
	cmpq	$0, -32(%rbp)	#, src_0
	je	.L175	#,
	.loc 1 818 0
	movq	-32(%rbp), %rax	# src_0, tmp171
	movzwl	(%rax), %eax	# src_0_2->code, D.16646
	cmpw	$68, %ax	#, D.16646
	je	.L176	#,
	.loc 1 819 0
	movq	-32(%rbp), %rax	# src_0, tmp172
	movzwl	(%rax), %eax	# src_0_2->code, D.16646
	cmpw	$67, %ax	#, D.16646
	je	.L176	#,
	.loc 1 820 0
	movq	-32(%rbp), %rax	# src_0, tmp173
	movzwl	(%rax), %eax	# src_0_2->code, D.16646
	cmpw	$25, %ax	#, D.16646
	jne	.L175	#,
	.loc 1 821 0
	movq	-32(%rbp), %rax	# src_0, tmp174
	movzbl	2(%rax), %eax	# src_0_2->mode, D.16652
	testb	%al, %al	# D.16652
	je	.L175	#,
.L176:
	.loc 1 822 0
	movq	-32(%rbp), %rax	# src_0, D.16645
	jmp	.L164	#
.L175:
	.loc 1 824 0
	cmpq	$0, -24(%rbp)	#, src_1
	je	.L177	#,
	.loc 1 825 0
	movq	-24(%rbp), %rax	# src_1, tmp175
	movzwl	(%rax), %eax	# src_1_3->code, D.16646
	cmpw	$68, %ax	#, D.16646
	je	.L178	#,
	.loc 1 826 0
	movq	-24(%rbp), %rax	# src_1, tmp176
	movzwl	(%rax), %eax	# src_1_3->code, D.16646
	cmpw	$67, %ax	#, D.16646
	je	.L178	#,
	.loc 1 827 0
	movq	-24(%rbp), %rax	# src_1, tmp177
	movzwl	(%rax), %eax	# src_1_3->code, D.16646
	cmpw	$25, %ax	#, D.16646
	jne	.L177	#,
	.loc 1 828 0
	movq	-24(%rbp), %rax	# src_1, tmp178
	movzbl	2(%rax), %eax	# src_1_3->mode, D.16652
	testb	%al, %al	# D.16652
	je	.L177	#,
.L178:
	.loc 1 829 0
	movq	-24(%rbp), %rax	# src_1, D.16645
	jmp	.L164	#
.L177:
	.loc 1 834 0
	movq	-24(%rbp), %rax	# src_1, tmp179
	movzwl	(%rax), %eax	# src_1_3->code, D.16646
	cmpw	$54, %ax	#, D.16646
	je	.L179	#,
	.loc 1 834 0 is_stmt 0 discriminator 1
	movq	-32(%rbp), %rax	# src_0, tmp180
	movzwl	(%rax), %eax	# src_0_2->code, D.16646
	cmpw	$67, %ax	#, D.16646
	je	.L179	#,
	movq	-32(%rbp), %rax	# src_0, tmp181
	movzwl	(%rax), %eax	# src_0_2->code, D.16646
	cmpw	$68, %ax	#, D.16646
	je	.L179	#,
	movq	-32(%rbp), %rax	# src_0, tmp182
	movzwl	(%rax), %eax	# src_0_2->code, D.16646
	cmpw	$54, %ax	#, D.16646
	je	.L179	#,
	movq	-32(%rbp), %rax	# src_0, tmp183
	movzwl	(%rax), %eax	# src_0_2->code, D.16646
	cmpw	$55, %ax	#, D.16646
	je	.L179	#,
	movq	-32(%rbp), %rax	# src_0, tmp184
	movzwl	(%rax), %eax	# src_0_2->code, D.16646
	cmpw	$58, %ax	#, D.16646
	je	.L179	#,
	movq	-32(%rbp), %rax	# src_0, tmp185
	movzwl	(%rax), %eax	# src_0_2->code, D.16646
	cmpw	$134, %ax	#, D.16646
	je	.L179	#,
	movq	-32(%rbp), %rax	# src_0, tmp186
	movzwl	(%rax), %eax	# src_0_2->code, D.16646
	cmpw	$56, %ax	#, D.16646
	je	.L179	#,
	movq	-32(%rbp), %rax	# src_0, tmp187
	movzwl	(%rax), %eax	# src_0_2->code, D.16646
	cmpw	$140, %ax	#, D.16646
	jne	.L180	#,
.L179:
	.loc 1 835 0 is_stmt 1
	movq	-32(%rbp), %rax	# src_0, tmp188
	movq	%rax, %rdi	# tmp188,
	call	find_base_value	#
	jmp	.L164	#
.L180:
	.loc 1 836 0
	movq	-32(%rbp), %rax	# src_0, tmp189
	movzwl	(%rax), %eax	# src_0_2->code, D.16646
	cmpw	$54, %ax	#, D.16646
	je	.L181	#,
	.loc 1 836 0 is_stmt 0 discriminator 1
	movq	-24(%rbp), %rax	# src_1, tmp190
	movzwl	(%rax), %eax	# src_1_3->code, D.16646
	cmpw	$67, %ax	#, D.16646
	je	.L181	#,
	movq	-24(%rbp), %rax	# src_1, tmp191
	movzwl	(%rax), %eax	# src_1_3->code, D.16646
	cmpw	$68, %ax	#, D.16646
	je	.L181	#,
	movq	-24(%rbp), %rax	# src_1, tmp192
	movzwl	(%rax), %eax	# src_1_3->code, D.16646
	cmpw	$54, %ax	#, D.16646
	je	.L181	#,
	movq	-24(%rbp), %rax	# src_1, tmp193
	movzwl	(%rax), %eax	# src_1_3->code, D.16646
	cmpw	$55, %ax	#, D.16646
	je	.L181	#,
	movq	-24(%rbp), %rax	# src_1, tmp194
	movzwl	(%rax), %eax	# src_1_3->code, D.16646
	cmpw	$58, %ax	#, D.16646
	je	.L181	#,
	movq	-24(%rbp), %rax	# src_1, tmp195
	movzwl	(%rax), %eax	# src_1_3->code, D.16646
	cmpw	$134, %ax	#, D.16646
	je	.L181	#,
	movq	-24(%rbp), %rax	# src_1, tmp196
	movzwl	(%rax), %eax	# src_1_3->code, D.16646
	cmpw	$56, %ax	#, D.16646
	je	.L181	#,
	movq	-24(%rbp), %rax	# src_1, tmp197
	movzwl	(%rax), %eax	# src_1_3->code, D.16646
	cmpw	$140, %ax	#, D.16646
	jne	.L182	#,
.L181:
	.loc 1 837 0 is_stmt 1
	movq	-24(%rbp), %rax	# src_1, tmp198
	movq	%rax, %rdi	# tmp198,
	call	find_base_value	#
	jmp	.L164	#
.L182:
	.loc 1 839 0
	movl	$0, %eax	#, D.16645
	jmp	.L164	#
.L163:
.LBE5:
	.loc 1 845 0
	movq	-56(%rbp), %rax	# src, tmp199
	movq	16(%rax), %rax	# src_6(D)->fld[1].rtx, D.16651
	movq	%rax, %rdi	# D.16651,
	call	find_base_value	#
	jmp	.L164	#
.L159:
	.loc 1 850 0
	movq	-56(%rbp), %rax	# src, tmp200
	movq	16(%rax), %rax	# src_6(D)->fld[1].rtx, D.16651
	movzwl	(%rax), %eax	# _92->code, D.16646
	cmpw	$54, %ax	#, D.16646
	jne	.L183	#,
	.loc 1 850 0 is_stmt 0 discriminator 1
	movq	-56(%rbp), %rax	# src, tmp201
	movq	16(%rax), %rax	# src_6(D)->fld[1].rtx, D.16651
	movq	8(%rax), %rax	# _94->fld[0].rtwint, D.16653
	testq	%rax, %rax	# D.16653
	je	.L183	#,
	.loc 1 851 0 is_stmt 1
	movq	-56(%rbp), %rax	# src, tmp202
	movq	8(%rax), %rax	# src_6(D)->fld[0].rtx, D.16651
	movq	%rax, %rdi	# D.16651,
	call	find_base_value	#
	jmp	.L164	#
.L183:
	.loc 1 852 0
	movl	$0, %eax	#, D.16645
	jmp	.L164	#
.L162:
	.loc 1 855 0
	movq	-56(%rbp), %rax	# src, tmp203
	movzbl	2(%rax), %eax	# src_6(D)->mode, D.16652
	movzbl	%al, %eax	# D.16652, D.16654
	cltq
	movzbl	mode_size(%rax), %edx	# mode_size, D.16652
	movl	target_flags(%rip), %eax	# target_flags, target_flags.35
	andl	$33554432, %eax	#, D.16654
	testl	%eax, %eax	# D.16654
	je	.L184	#,
	.loc 1 855 0 is_stmt 0 discriminator 1
	movl	$5, %eax	#, iftmp.34
	jmp	.L185	#
.L184:
	.loc 1 855 0 discriminator 2
	movl	$4, %eax	#, iftmp.34
.L185:
	.loc 1 855 0 discriminator 3
	cltq
	movzbl	mode_size(%rax), %eax	# mode_size, D.16652
	cmpb	%al, %dl	# D.16652, D.16652
	jae	.L160	#,
	.loc 1 856 0 is_stmt 1
	jmp	.L170	#
.L160:
	.loc 1 865 0
	movq	-56(%rbp), %rax	# src, tmp206
	movq	8(%rax), %rax	# src_6(D)->fld[0].rtx, D.16651
	movq	%rax, %rdi	# D.16651,
	call	find_base_value	#
	jmp	.L164	#
.L161:
.LBB6:
	.loc 1 870 0
	movq	-56(%rbp), %rax	# src, tmp207
	movq	8(%rax), %rax	# src_6(D)->fld[0].rtx, D.16651
	movq	%rax, %rdi	# D.16651,
	call	find_base_value	#
	movq	%rax, -8(%rbp)	# tmp208, temp
	.loc 1 877 0
	movq	-8(%rbp), %rax	# temp, D.16645
	jmp	.L164	#
.L186:
.LBE6:
	.loc 1 881 0
	nop
.L170:
	.loc 1 884 0
	movl	$0, %eax	#, D.16645
.L164:
	.loc 1 885 0
	leave
	.cfi_def_cfa 7, 8
	ret
	.cfi_endproc
.LFE16:
	.size	find_base_value, .-find_base_value
	.local	reg_seen
	.comm	reg_seen,8,8
	.local	unique_id
	.comm	unique_id,4,4
	.type	record_set, @function
record_set:
.LFB17:
	.loc 1 901 0
	.cfi_startproc
	pushq	%rbp	#
	.cfi_def_cfa_offset 16
	.cfi_offset 6, -16
	movq	%rsp, %rbp	#,
	.cfi_def_cfa_register 6
	pushq	%rbx	#
	subq	$72, %rsp	#,
	.cfi_offset 3, -24
	movq	%rdi, -56(%rbp)	# dest, dest
	movq	%rsi, -64(%rbp)	# set, set
	movq	%rdx, -72(%rbp)	# data, data
	.loc 1 905 0
	movq	-56(%rbp), %rax	# dest, tmp139
	movzwl	(%rax), %eax	# dest_3(D)->code, D.16655
	cmpw	$61, %ax	#, D.16655
	je	.L188	#,
	.loc 1 906 0
	jmp	.L187	#
.L188:
	.loc 1 908 0
	movq	-56(%rbp), %rax	# dest, tmp140
	movl	8(%rax), %eax	# dest_3(D)->fld[0].rtuint, tmp141
	movl	%eax, -36(%rbp)	# tmp141, regno
	.loc 1 910 0
	movl	reg_base_value_size(%rip), %eax	# reg_base_value_size, reg_base_value_size.36
	cmpl	%eax, -36(%rbp)	# reg_base_value_size.36, regno
	jb	.L190	#,
	.loc 1 911 0
	movl	$__FUNCTION__.13433, %edx	#,
	movl	$911, %esi	#,
	movl	$.LC0, %edi	#,
	call	fancy_abort	#
.L190:
	.loc 1 913 0
	cmpq	$0, -64(%rbp)	#, set
	je	.L191	#,
	.loc 1 918 0
	movq	-64(%rbp), %rax	# set, tmp142
	movzwl	(%rax), %eax	# set_7(D)->code, D.16655
	cmpw	$49, %ax	#, D.16655
	jne	.L192	#,
	.loc 1 920 0
	movq	new_reg_base_value(%rip), %rax	# new_reg_base_value, new_reg_base_value.37
	movl	-36(%rbp), %edx	# regno, D.16656
	salq	$3, %rdx	#, D.16656
	addq	%rdx, %rax	# D.16656, D.16657
	movq	$0, (%rax)	#, *_12
	.loc 1 921 0
	jmp	.L187	#
.L192:
	.loc 1 923 0
	movq	-64(%rbp), %rax	# set, tmp143
	movq	16(%rax), %rax	# set_7(D)->fld[1].rtx, tmp144
	movq	%rax, -24(%rbp)	# tmp144, src
	.loc 1 944 0
	movq	new_reg_base_value(%rip), %rax	# new_reg_base_value, new_reg_base_value.47
	movl	-36(%rbp), %edx	# regno, D.16656
	salq	$3, %rdx	#, D.16656
	addq	%rdx, %rax	# D.16656, D.16657
	movq	(%rax), %rax	# *_17, D.16658
	testq	%rax, %rax	# D.16658
	je	.L197	#,
	jmp	.L213	#
.L191:
	.loc 1 927 0
	movq	reg_seen(%rip), %rdx	# reg_seen, reg_seen.38
	movl	-36(%rbp), %eax	# regno, D.16661
	addq	%rdx, %rax	# reg_seen.38, D.16662
	movzbl	(%rax), %eax	# *_68, D.16660
	testb	%al, %al	# D.16660
	je	.L194	#,
	.loc 1 929 0
	movq	new_reg_base_value(%rip), %rax	# new_reg_base_value, new_reg_base_value.39
	movl	-36(%rbp), %edx	# regno, D.16656
	salq	$3, %rdx	#, D.16656
	addq	%rdx, %rax	# D.16656, D.16657
	movq	$0, (%rax)	#, *_73
	.loc 1 930 0
	jmp	.L187	#
.L194:
	.loc 1 932 0
	movq	reg_seen(%rip), %rdx	# reg_seen, reg_seen.40
	movl	-36(%rbp), %eax	# regno, D.16661
	addq	%rdx, %rax	# reg_seen.40, D.16662
	movb	$1, (%rax)	#, *_76
	.loc 1 933 0
	movq	new_reg_base_value(%rip), %rax	# new_reg_base_value, new_reg_base_value.41
	movl	-36(%rbp), %edx	# regno, D.16656
	salq	$3, %rdx	#, D.16656
	leaq	(%rax,%rdx), %rbx	#, D.16657
	movl	unique_id(%rip), %eax	# unique_id, unique_id.42
	leal	1(%rax), %edx	#, unique_id.44
	movl	%edx, unique_id(%rip)	# unique_id.44, unique_id
	cltq
	movq	%rax, %rsi	# D.16663,
	movl	$0, %edi	#,
	call	gen_rtx_CONST_INT	#
	movq	%rax, %rdx	#, D.16658
	movl	target_flags(%rip), %eax	# target_flags, target_flags.46
	andl	$33554432, %eax	#, D.16664
	testl	%eax, %eax	# D.16664
	je	.L195	#,
	.loc 1 933 0 is_stmt 0 discriminator 1
	movl	$5, %eax	#, iftmp.45
	jmp	.L196	#
.L195:
	.loc 1 933 0 discriminator 2
	movl	$4, %eax	#, iftmp.45
.L196:
	.loc 1 933 0 discriminator 3
	movl	%eax, %esi	# iftmp.45,
	movl	$25, %edi	#,
	call	gen_rtx_fmt_e	#
	movq	%rax, (%rbx)	# D.16658, *_80
	.loc 1 935 0 is_stmt 1 discriminator 3
	jmp	.L187	#
.L213:
	.loc 1 945 0
	movq	-24(%rbp), %rax	# src, tmp145
	movzwl	(%rax), %eax	# src_13->code, D.16655
	movzwl	%ax, %eax	# D.16655, D.16659
	cmpl	$76, %eax	#, D.16659
	je	.L199	#,
	cmpl	$76, %eax	#, D.16659
	ja	.L200	#,
	cmpl	$75, %eax	#, D.16659
	je	.L201	#,
	jmp	.L198	#
.L200:
	cmpl	$83, %eax	#, D.16659
	je	.L202	#,
	cmpl	$135, %eax	#, D.16659
	jne	.L198	#,
.L199:
	.loc 1 949 0
	movq	-24(%rbp), %rax	# src, tmp146
	movq	8(%rax), %rax	# src_13->fld[0].rtx, D.16658
	cmpq	-56(%rbp), %rax	# dest, D.16658
	je	.L203	#,
	.loc 1 949 0 is_stmt 0 discriminator 1
	movq	-24(%rbp), %rax	# src, tmp147
	movq	16(%rax), %rax	# src_13->fld[1].rtx, D.16658
	cmpq	-56(%rbp), %rax	# dest, D.16658
	je	.L203	#,
	.loc 1 950 0 is_stmt 1
	movq	new_reg_base_value(%rip), %rax	# new_reg_base_value, new_reg_base_value.48
	movl	-36(%rbp), %edx	# regno, D.16656
	salq	$3, %rdx	#, D.16656
	addq	%rdx, %rax	# D.16656, D.16657
	movq	$0, (%rax)	#, *_26
	.loc 1 951 0
	jmp	.L204	#
.L203:
	jmp	.L204	#
.L201:
.LBB7:
	.loc 1 957 0
	movq	$0, -32(%rbp)	#, other
	.loc 1 959 0
	movq	-24(%rbp), %rax	# src, tmp148
	movq	8(%rax), %rax	# src_13->fld[0].rtx, D.16658
	cmpq	-56(%rbp), %rax	# dest, D.16658
	jne	.L205	#,
	.loc 1 960 0
	movq	-24(%rbp), %rax	# src, tmp149
	movq	16(%rax), %rax	# src_13->fld[1].rtx, tmp150
	movq	%rax, -32(%rbp)	# tmp150, other
	jmp	.L206	#
.L205:
	.loc 1 961 0
	movq	-24(%rbp), %rax	# src, tmp151
	movq	16(%rax), %rax	# src_13->fld[1].rtx, D.16658
	cmpq	-56(%rbp), %rax	# dest, D.16658
	jne	.L206	#,
	.loc 1 962 0
	movq	-24(%rbp), %rax	# src, tmp152
	movq	8(%rax), %rax	# src_13->fld[0].rtx, tmp153
	movq	%rax, -32(%rbp)	# tmp153, other
.L206:
	.loc 1 964 0
	cmpq	$0, -32(%rbp)	#, other
	je	.L207	#,
	.loc 1 964 0 is_stmt 0 discriminator 1
	movq	-32(%rbp), %rax	# other, tmp154
	movq	%rax, %rdi	# tmp154,
	call	find_base_value	#
	testq	%rax, %rax	# D.16658
	je	.L208	#,
.L207:
	.loc 1 965 0 is_stmt 1
	movq	new_reg_base_value(%rip), %rax	# new_reg_base_value, new_reg_base_value.49
	movl	-36(%rbp), %edx	# regno, D.16656
	salq	$3, %rdx	#, D.16656
	addq	%rdx, %rax	# D.16656, D.16657
	movq	$0, (%rax)	#, *_36
	.loc 1 966 0
	jmp	.L204	#
.L208:
	jmp	.L204	#
.L202:
.LBE7:
	.loc 1 969 0
	movq	-24(%rbp), %rax	# src, tmp155
	movq	8(%rax), %rax	# src_13->fld[0].rtx, D.16658
	cmpq	-56(%rbp), %rax	# dest, D.16658
	jne	.L209	#,
	.loc 1 969 0 is_stmt 0 discriminator 1
	movq	-24(%rbp), %rax	# src, tmp156
	movq	16(%rax), %rax	# src_13->fld[1].rtx, D.16658
	movzwl	(%rax), %eax	# _38->code, D.16655
	cmpw	$54, %ax	#, D.16655
	je	.L210	#,
.L209:
	.loc 1 970 0 is_stmt 1
	movq	new_reg_base_value(%rip), %rax	# new_reg_base_value, new_reg_base_value.50
	movl	-36(%rbp), %edx	# regno, D.16656
	salq	$3, %rdx	#, D.16656
	addq	%rdx, %rax	# D.16656, D.16657
	movq	$0, (%rax)	#, *_43
	.loc 1 971 0
	jmp	.L204	#
.L210:
	jmp	.L204	#
.L198:
	.loc 1 973 0
	movq	new_reg_base_value(%rip), %rax	# new_reg_base_value, new_reg_base_value.51
	movl	-36(%rbp), %edx	# regno, D.16656
	salq	$3, %rdx	#, D.16656
	addq	%rdx, %rax	# D.16656, D.16657
	movq	$0, (%rax)	#, *_47
	.loc 1 974 0
	nop
.L204:
	jmp	.L211	#
.L197:
	.loc 1 977 0
	cmpl	$52, -36(%rbp)	#, regno
	ja	.L212	#,
	.loc 1 977 0 is_stmt 0 discriminator 1
	movl	-36(%rbp), %eax	# regno, tmp157
	movzbl	fixed_regs(%rax), %eax	# fixed_regs, D.16660
	testb	%al, %al	# D.16660
	jne	.L211	#,
.L212:
	.loc 1 978 0 is_stmt 1
	movq	reg_seen(%rip), %rdx	# reg_seen, reg_seen.52
	movl	-36(%rbp), %eax	# regno, D.16661
	addq	%rdx, %rax	# reg_seen.52, D.16662
	movzbl	(%rax), %eax	# *_51, D.16660
	testb	%al, %al	# D.16660
	jne	.L211	#,
	.loc 1 978 0 is_stmt 0 discriminator 1
	movq	new_reg_base_value(%rip), %rax	# new_reg_base_value, new_reg_base_value.53
	movl	-36(%rbp), %edx	# regno, D.16656
	salq	$3, %rdx	#, D.16656
	addq	%rdx, %rax	# D.16656, D.16657
	movq	(%rax), %rax	# *_56, D.16658
	testq	%rax, %rax	# D.16658
	jne	.L211	#,
	.loc 1 979 0 is_stmt 1
	movq	new_reg_base_value(%rip), %rax	# new_reg_base_value, new_reg_base_value.54
	movl	-36(%rbp), %edx	# regno, D.16656
	salq	$3, %rdx	#, D.16656
	leaq	(%rax,%rdx), %rbx	#, D.16657
	movq	-24(%rbp), %rax	# src, tmp158
	movq	%rax, %rdi	# tmp158,
	call	find_base_value	#
	movq	%rax, (%rbx)	# D.16658, *_61
.L211:
	.loc 1 981 0
	movq	reg_seen(%rip), %rdx	# reg_seen, reg_seen.55
	movl	-36(%rbp), %eax	# regno, D.16661
	addq	%rdx, %rax	# reg_seen.55, D.16662
	movb	$1, (%rax)	#, *_65
.L187:
	.loc 1 982 0
	addq	$72, %rsp	#,
	popq	%rbx	#
	popq	%rbp	#
	.cfi_def_cfa 7, 8
	ret
	.cfi_endproc
.LFE17:
	.size	record_set, .-record_set
	.globl	record_base_value
	.type	record_base_value, @function
record_base_value:
.LFB18:
	.loc 1 995 0
	.cfi_startproc
	pushq	%rbp	#
	.cfi_def_cfa_offset 16
	.cfi_offset 6, -16
	movq	%rsp, %rbp	#,
	.cfi_def_cfa_register 6
	pushq	%rbx	#
	subq	$24, %rsp	#,
	.cfi_offset 3, -24
	movl	%edi, -20(%rbp)	# regno, regno
	movq	%rsi, -32(%rbp)	# val, val
	movl	%edx, -24(%rbp)	# invariant, invariant
	.loc 1 996 0
	movl	reg_base_value_size(%rip), %eax	# reg_base_value_size, reg_base_value_size.56
	cmpl	%eax, -20(%rbp)	# reg_base_value_size.56, regno
	jb	.L215	#,
	.loc 1 997 0
	jmp	.L214	#
.L215:
	.loc 1 999 0
	cmpl	$0, -24(%rbp)	#, invariant
	je	.L217	#,
	.loc 1 999 0 is_stmt 0 discriminator 1
	movq	alias_invariant(%rip), %rax	# alias_invariant, alias_invariant.57
	testq	%rax, %rax	# alias_invariant.57
	je	.L217	#,
	.loc 1 1000 0 is_stmt 1
	movq	alias_invariant(%rip), %rax	# alias_invariant, alias_invariant.58
	movl	-20(%rbp), %edx	# regno, D.16666
	salq	$3, %rdx	#, D.16666
	addq	%rax, %rdx	# alias_invariant.58, D.16667
	movq	-32(%rbp), %rax	# val, tmp83
	movq	%rax, (%rdx)	# tmp83, *_8
.L217:
	.loc 1 1002 0
	movq	-32(%rbp), %rax	# val, tmp84
	movzwl	(%rax), %eax	# val_9(D)->code, D.16668
	cmpw	$61, %ax	#, D.16668
	jne	.L218	#,
	.loc 1 1004 0
	movq	-32(%rbp), %rax	# val, tmp85
	movl	8(%rax), %edx	# val_9(D)->fld[0].rtuint, D.16669
	movl	reg_base_value_size(%rip), %eax	# reg_base_value_size, reg_base_value_size.59
	cmpl	%eax, %edx	# reg_base_value_size.59, D.16669
	jae	.L219	#,
	.loc 1 1005 0
	movq	reg_base_value(%rip), %rax	# reg_base_value, reg_base_value.60
	movl	-20(%rbp), %edx	# regno, D.16666
	salq	$3, %rdx	#, D.16666
	addq	%rax, %rdx	# reg_base_value.60, D.16667
	movq	reg_base_value(%rip), %rcx	# reg_base_value, reg_base_value.61
	movq	-32(%rbp), %rax	# val, tmp86
	movl	8(%rax), %eax	# val_9(D)->fld[0].rtuint, D.16669
	movl	%eax, %eax	# D.16669, D.16666
	salq	$3, %rax	#, D.16666
	addq	%rcx, %rax	# reg_base_value.61, D.16667
	movq	(%rax), %rax	# *_21, D.16670
	movq	%rax, (%rdx)	# D.16670, *_16
	.loc 1 1007 0
	jmp	.L214	#
.L219:
	jmp	.L214	#
.L218:
	.loc 1 1010 0
	movq	reg_base_value(%rip), %rax	# reg_base_value, reg_base_value.62
	movl	-20(%rbp), %edx	# regno, D.16666
	salq	$3, %rdx	#, D.16666
	leaq	(%rax,%rdx), %rbx	#, D.16667
	movq	-32(%rbp), %rax	# val, tmp87
	movq	%rax, %rdi	# tmp87,
	call	find_base_value	#
	movq	%rax, (%rbx)	# D.16670, *_26
.L214:
	.loc 1 1011 0
	addq	$24, %rsp	#,
	popq	%rbx	#
	popq	%rbp	#
	.cfi_def_cfa 7, 8
	ret
	.cfi_endproc
.LFE18:
	.size	record_base_value, .-record_base_value
	.globl	clear_reg_alias_info
	.type	clear_reg_alias_info, @function
clear_reg_alias_info:
.LFB19:
	.loc 1 1021 0
	.cfi_startproc
	pushq	%rbp	#
	.cfi_def_cfa_offset 16
	.cfi_offset 6, -16
	movq	%rsp, %rbp	#,
	.cfi_def_cfa_register 6
	movq	%rdi, -24(%rbp)	# reg, reg
	.loc 1 1022 0
	movq	-24(%rbp), %rax	# reg, tmp64
	movl	8(%rax), %eax	# reg_1(D)->fld[0].rtuint, tmp65
	movl	%eax, -4(%rbp)	# tmp65, regno
	.loc 1 1024 0
	movl	reg_known_value_size(%rip), %eax	# reg_known_value_size, reg_known_value_size.63
	cmpl	%eax, -4(%rbp)	# reg_known_value_size.63, regno
	jae	.L220	#,
	.loc 1 1024 0 is_stmt 0 discriminator 1
	cmpl	$52, -4(%rbp)	#, regno
	jbe	.L220	#,
	.loc 1 1025 0 is_stmt 1
	movq	reg_known_value(%rip), %rax	# reg_known_value, reg_known_value.64
	movl	-4(%rbp), %edx	# regno, D.16671
	salq	$3, %rdx	#, D.16671
	addq	%rax, %rdx	# reg_known_value.64, D.16672
	movq	-24(%rbp), %rax	# reg, tmp66
	movq	%rax, (%rdx)	# tmp66, *_7
.L220:
	.loc 1 1026 0
	popq	%rbp	#
	.cfi_def_cfa 7, 8
	ret
	.cfi_endproc
.LFE19:
	.size	clear_reg_alias_info, .-clear_reg_alias_info
	.globl	canon_rtx
	.type	canon_rtx, @function
canon_rtx:
.LFB20:
	.loc 1 1036 0
	.cfi_startproc
	pushq	%rbp	#
	.cfi_def_cfa_offset 16
	.cfi_offset 6, -16
	movq	%rsp, %rbp	#,
	.cfi_def_cfa_register 6
	subq	$32, %rsp	#,
	movq	%rdi, -24(%rbp)	# x, x
	.loc 1 1038 0
	movq	-24(%rbp), %rax	# x, tmp92
	movzwl	(%rax), %eax	# x_4(D)->code, D.16674
	cmpw	$61, %ax	#, D.16674
	jne	.L223	#,
	.loc 1 1038 0 is_stmt 0 discriminator 1
	movq	-24(%rbp), %rax	# x, tmp93
	movl	8(%rax), %eax	# x_4(D)->fld[0].rtuint, D.16675
	cmpl	$52, %eax	#, D.16675
	jbe	.L223	#,
	.loc 1 1039 0 is_stmt 1
	movq	-24(%rbp), %rax	# x, tmp94
	movl	8(%rax), %edx	# x_4(D)->fld[0].rtuint, D.16675
	movl	reg_known_value_size(%rip), %eax	# reg_known_value_size, reg_known_value_size.65
	cmpl	%eax, %edx	# reg_known_value_size.65, D.16675
	jae	.L223	#,
	.loc 1 1040 0
	movq	reg_known_value(%rip), %rdx	# reg_known_value, reg_known_value.67
	movq	-24(%rbp), %rax	# x, tmp95
	movl	8(%rax), %eax	# x_4(D)->fld[0].rtuint, D.16675
	movl	%eax, %eax	# D.16675, D.16676
	salq	$3, %rax	#, D.16676
	addq	%rdx, %rax	# reg_known_value.67, D.16677
	movq	(%rax), %rax	# *_13, D.16678
	.loc 1 1041 0
	cmpq	-24(%rbp), %rax	# x, D.16678
	je	.L224	#,
	.loc 1 1041 0 is_stmt 0 discriminator 1
	movq	reg_known_value(%rip), %rdx	# reg_known_value, reg_known_value.68
	movq	-24(%rbp), %rax	# x, tmp96
	movl	8(%rax), %eax	# x_4(D)->fld[0].rtuint, D.16675
	movl	%eax, %eax	# D.16675, D.16676
	salq	$3, %rax	#, D.16676
	addq	%rdx, %rax	# reg_known_value.68, D.16677
	movq	(%rax), %rax	# *_19, D.16678
	movq	%rax, %rdi	# D.16678,
	call	canon_rtx	#
	jmp	.L225	#
.L224:
	.loc 1 1041 0 discriminator 2
	movq	-24(%rbp), %rax	# x, iftmp.66
.L225:
	.loc 1 1040 0 is_stmt 1
	jmp	.L226	#
.L223:
	.loc 1 1042 0
	movq	-24(%rbp), %rax	# x, tmp97
	movzwl	(%rax), %eax	# x_4(D)->code, D.16674
	cmpw	$75, %ax	#, D.16674
	jne	.L227	#,
.LBB8:
	.loc 1 1044 0
	movq	-24(%rbp), %rax	# x, tmp98
	movq	8(%rax), %rax	# x_4(D)->fld[0].rtx, D.16678
	movq	%rax, %rdi	# D.16678,
	call	canon_rtx	#
	movq	%rax, -16(%rbp)	# tmp99, x0
	.loc 1 1045 0
	movq	-24(%rbp), %rax	# x, tmp100
	movq	16(%rax), %rax	# x_4(D)->fld[1].rtx, D.16678
	movq	%rax, %rdi	# D.16678,
	call	canon_rtx	#
	movq	%rax, -8(%rbp)	# tmp101, x1
	.loc 1 1047 0
	movq	-24(%rbp), %rax	# x, tmp102
	movq	8(%rax), %rax	# x_4(D)->fld[0].rtx, D.16678
	cmpq	-16(%rbp), %rax	# x0, D.16678
	jne	.L228	#,
	.loc 1 1047 0 is_stmt 0 discriminator 1
	movq	-24(%rbp), %rax	# x, tmp103
	movq	16(%rax), %rax	# x_4(D)->fld[1].rtx, D.16678
	cmpq	-8(%rbp), %rax	# x1, D.16678
	je	.L229	#,
.L228:
	.loc 1 1049 0 is_stmt 1
	movq	-16(%rbp), %rax	# x0, tmp104
	movzwl	(%rax), %eax	# x0_26->code, D.16674
	cmpw	$54, %ax	#, D.16674
	jne	.L230	#,
	.loc 1 1050 0
	movq	-16(%rbp), %rax	# x0, tmp105
	movq	8(%rax), %rdx	# x0_26->fld[0].rtwint, D.16679
	movq	-8(%rbp), %rax	# x1, tmp106
	movq	%rdx, %rsi	# D.16679,
	movq	%rax, %rdi	# tmp106,
	call	plus_constant_wide	#
	jmp	.L226	#
.L230:
	.loc 1 1051 0
	movq	-8(%rbp), %rax	# x1, tmp107
	movzwl	(%rax), %eax	# x1_28->code, D.16674
	cmpw	$54, %ax	#, D.16674
	jne	.L231	#,
	.loc 1 1052 0
	movq	-8(%rbp), %rax	# x1, tmp108
	movq	8(%rax), %rdx	# x1_28->fld[0].rtwint, D.16679
	movq	-16(%rbp), %rax	# x0, tmp109
	movq	%rdx, %rsi	# D.16679,
	movq	%rax, %rdi	# tmp109,
	call	plus_constant_wide	#
	jmp	.L226	#
.L231:
	.loc 1 1053 0
	movq	-24(%rbp), %rax	# x, tmp110
	movzbl	2(%rax), %eax	# x_4(D)->mode, D.16680
	movzbl	%al, %eax	# D.16680, D.16681
	movq	-8(%rbp), %rcx	# x1, tmp111
	movq	-16(%rbp), %rdx	# x0, tmp112
	movl	%eax, %esi	# D.16681,
	movl	$75, %edi	#,
	call	gen_rtx_fmt_ee	#
	jmp	.L226	#
.L229:
.LBE8:
	jmp	.L232	#
.L227:
	.loc 1 1061 0
	movq	-24(%rbp), %rax	# x, tmp113
	movzwl	(%rax), %eax	# x_4(D)->code, D.16674
	cmpw	$66, %ax	#, D.16674
	jne	.L232	#,
	.loc 1 1062 0
	movq	-24(%rbp), %rax	# x, tmp114
	movq	8(%rax), %rax	# x_4(D)->fld[0].rtx, D.16678
	movq	%rax, %rdi	# D.16678,
	call	canon_rtx	#
	movq	%rax, %rdx	#, D.16678
	movq	-24(%rbp), %rax	# x, tmp115
	movq	%rdx, %rsi	# D.16678,
	movq	%rax, %rdi	# tmp115,
	call	replace_equiv_address_nv	#
	movq	%rax, -24(%rbp)	# tmp116, x
.L232:
	.loc 1 1064 0
	movq	-24(%rbp), %rax	# x, D.16673
.L226:
	.loc 1 1065 0
	leave
	.cfi_def_cfa 7, 8
	ret
	.cfi_endproc
.LFE20:
	.size	canon_rtx, .-canon_rtx
	.type	rtx_equal_for_memref_p, @function
rtx_equal_for_memref_p:
.LFB21:
	.loc 1 1075 0
	.cfi_startproc
	pushq	%rbp	#
	.cfi_def_cfa_offset 16
	.cfi_offset 6, -16
	movq	%rsp, %rbp	#,
	.cfi_def_cfa_register 6
	subq	$48, %rsp	#,
	movq	%rdi, -40(%rbp)	# x, x
	movq	%rsi, -48(%rbp)	# y, y
	.loc 1 1081 0
	cmpq	$0, -40(%rbp)	#, x
	jne	.L234	#,
	.loc 1 1081 0 is_stmt 0 discriminator 1
	cmpq	$0, -48(%rbp)	#, y
	jne	.L234	#,
	.loc 1 1082 0 is_stmt 1
	movl	$1, %eax	#, D.16682
	jmp	.L235	#
.L234:
	.loc 1 1083 0
	cmpq	$0, -40(%rbp)	#, x
	je	.L236	#,
	.loc 1 1083 0 is_stmt 0 discriminator 1
	cmpq	$0, -48(%rbp)	#, y
	jne	.L237	#,
.L236:
	.loc 1 1084 0 is_stmt 1
	movl	$0, %eax	#, D.16682
	jmp	.L235	#
.L237:
	.loc 1 1086 0
	movq	-40(%rbp), %rax	# x, tmp141
	movq	%rax, %rdi	# tmp141,
	call	canon_rtx	#
	movq	%rax, -40(%rbp)	# tmp142, x
	.loc 1 1087 0
	movq	-48(%rbp), %rax	# y, tmp143
	movq	%rax, %rdi	# tmp143,
	call	canon_rtx	#
	movq	%rax, -48(%rbp)	# tmp144, y
	.loc 1 1089 0
	movq	-40(%rbp), %rax	# x, tmp145
	cmpq	-48(%rbp), %rax	# y, tmp145
	jne	.L238	#,
	.loc 1 1090 0
	movl	$1, %eax	#, D.16682
	jmp	.L235	#
.L238:
	.loc 1 1092 0
	movq	-40(%rbp), %rax	# x, tmp146
	movzwl	(%rax), %eax	# x_10->code, D.16683
	movzwl	%ax, %eax	# D.16683, tmp147
	movl	%eax, -12(%rbp)	# tmp147, code
	.loc 1 1094 0
	movq	-48(%rbp), %rax	# y, tmp148
	movzwl	(%rax), %eax	# y_11->code, D.16683
	movzwl	%ax, %eax	# D.16683, D.16684
	cmpl	-12(%rbp), %eax	# code, D.16684
	je	.L239	#,
	.loc 1 1095 0
	movl	$0, %eax	#, D.16682
	jmp	.L235	#
.L239:
	.loc 1 1100 0
	movq	-40(%rbp), %rax	# x, tmp149
	movzbl	2(%rax), %edx	# x_10->mode, D.16685
	movq	-48(%rbp), %rax	# y, tmp150
	movzbl	2(%rax), %eax	# y_11->mode, D.16685
	cmpb	%al, %dl	# D.16685, D.16685
	je	.L240	#,
	.loc 1 1101 0
	movl	$0, %eax	#, D.16682
	jmp	.L235	#
.L240:
	.loc 1 1104 0
	movl	-12(%rbp), %eax	# code, tmp152
	subl	$54, %eax	#, tmp151
	cmpl	$16, %eax	#, tmp151
	ja	.L280	#,
	movl	%eax, %eax	# tmp151, tmp153
	movq	.L243(,%rax,8), %rax	#, tmp154
	jmp	*%rax	# tmp154
	.section	.rodata
	.align 8
	.align 4
.L243:
	.quad	.L242
	.quad	.L242
	.quad	.L280
	.quad	.L280
	.quad	.L280
	.quad	.L280
	.quad	.L244
	.quad	.L245
	.quad	.L280
	.quad	.L280
	.quad	.L280
	.quad	.L280
	.quad	.L280
	.quad	.L246
	.quad	.L247
	.quad	.L280
	.quad	.L248
	.text
.L244:
	.loc 1 1107 0
	movq	-40(%rbp), %rax	# x, tmp155
	movq	8(%rax), %rdx	# x_10->fld[0].rt_cselib, D.16686
	movq	-48(%rbp), %rax	# y, tmp156
	movq	8(%rax), %rax	# y_11->fld[0].rt_cselib, D.16686
	cmpq	%rax, %rdx	# D.16686, D.16686
	sete	%al	#, D.16687
	movzbl	%al, %eax	# D.16687, D.16682
	jmp	.L235	#
.L245:
	.loc 1 1110 0
	movq	-40(%rbp), %rax	# x, tmp157
	movl	8(%rax), %edx	# x_10->fld[0].rtuint, D.16684
	movq	-48(%rbp), %rax	# y, tmp158
	movl	8(%rax), %eax	# y_11->fld[0].rtuint, D.16684
	cmpl	%eax, %edx	# D.16684, D.16684
	sete	%al	#, D.16687
	movzbl	%al, %eax	# D.16687, D.16682
	jmp	.L235	#
.L246:
	.loc 1 1113 0
	movq	-40(%rbp), %rax	# x, tmp159
	movq	8(%rax), %rdx	# x_10->fld[0].rtx, D.16688
	movq	-48(%rbp), %rax	# y, tmp160
	movq	8(%rax), %rax	# y_11->fld[0].rtx, D.16688
	cmpq	%rax, %rdx	# D.16688, D.16688
	sete	%al	#, D.16687
	movzbl	%al, %eax	# D.16687, D.16682
	jmp	.L235	#
.L247:
	.loc 1 1116 0
	movq	-40(%rbp), %rax	# x, tmp161
	movq	8(%rax), %rdx	# x_10->fld[0].rtstr, D.16689
	movq	-48(%rbp), %rax	# y, tmp162
	movq	8(%rax), %rax	# y_11->fld[0].rtstr, D.16689
	cmpq	%rax, %rdx	# D.16689, D.16689
	sete	%al	#, D.16687
	movzbl	%al, %eax	# D.16687, D.16682
	jmp	.L235	#
.L242:
	.loc 1 1123 0
	movl	$0, %eax	#, D.16682
	jmp	.L235	#
.L248:
	.loc 1 1126 0
	movq	-40(%rbp), %rax	# x, tmp163
	movl	16(%rax), %edx	# x_10->fld[1].rtint, D.16682
	movq	-48(%rbp), %rax	# y, tmp164
	movl	16(%rax), %eax	# y_11->fld[1].rtint, D.16682
	.loc 1 1127 0
	cmpl	%eax, %edx	# D.16682, D.16682
	jne	.L249	#,
	.loc 1 1127 0 is_stmt 0 discriminator 1
	movq	-48(%rbp), %rax	# y, tmp165
	movq	8(%rax), %rdx	# y_11->fld[0].rtx, D.16688
	movq	-40(%rbp), %rax	# x, tmp166
	movq	8(%rax), %rax	# x_10->fld[0].rtx, D.16688
	movq	%rdx, %rsi	# D.16688,
	movq	%rax, %rdi	# D.16688,
	call	rtx_equal_for_memref_p	#
	testl	%eax, %eax	# D.16682
	je	.L249	#,
	.loc 1 1127 0 discriminator 3
	movl	$1, %eax	#, iftmp.69
	jmp	.L250	#
.L249:
	.loc 1 1127 0 discriminator 2
	movl	$0, %eax	#, iftmp.69
.L250:
	.loc 1 1126 0 is_stmt 1
	jmp	.L235	#
.L280:
	.loc 1 1130 0
	nop
	.loc 1 1135 0
	cmpl	$103, -12(%rbp)	#, code
	je	.L251	#,
	.loc 1 1135 0 is_stmt 0 discriminator 1
	cmpl	$102, -12(%rbp)	#, code
	je	.L251	#,
	movl	-12(%rbp), %eax	# code, code.70
	cltq
	movzbl	rtx_class(%rax), %eax	# rtx_class, D.16690
	cmpb	$99, %al	#, D.16690
	jne	.L252	#,
.L251:
	.loc 1 1136 0 is_stmt 1
	movq	-48(%rbp), %rax	# y, tmp168
	movq	8(%rax), %rdx	# y_11->fld[0].rtx, D.16688
	movq	-40(%rbp), %rax	# x, tmp169
	movq	8(%rax), %rax	# x_10->fld[0].rtx, D.16688
	movq	%rdx, %rsi	# D.16688,
	movq	%rax, %rdi	# D.16688,
	call	rtx_equal_for_memref_p	#
	.loc 1 1138 0
	testl	%eax, %eax	# D.16682
	je	.L253	#,
	.loc 1 1137 0
	movq	-48(%rbp), %rax	# y, tmp170
	movq	16(%rax), %rdx	# y_11->fld[1].rtx, D.16688
	movq	-40(%rbp), %rax	# x, tmp171
	movq	16(%rax), %rax	# x_10->fld[1].rtx, D.16688
	movq	%rdx, %rsi	# D.16688,
	movq	%rax, %rdi	# D.16688,
	call	rtx_equal_for_memref_p	#
	testl	%eax, %eax	# D.16682
	jne	.L254	#,
.L253:
	.loc 1 1138 0 discriminator 1
	movq	-48(%rbp), %rax	# y, tmp172
	movq	16(%rax), %rdx	# y_11->fld[1].rtx, D.16688
	movq	-40(%rbp), %rax	# x, tmp173
	movq	8(%rax), %rax	# x_10->fld[0].rtx, D.16688
	movq	%rdx, %rsi	# D.16688,
	movq	%rax, %rdi	# D.16688,
	call	rtx_equal_for_memref_p	#
	testl	%eax, %eax	# D.16682
	je	.L255	#,
	.loc 1 1139 0
	movq	-48(%rbp), %rax	# y, tmp174
	movq	8(%rax), %rdx	# y_11->fld[0].rtx, D.16688
	movq	-40(%rbp), %rax	# x, tmp175
	movq	16(%rax), %rax	# x_10->fld[1].rtx, D.16688
	movq	%rdx, %rsi	# D.16688,
	movq	%rax, %rdi	# D.16688,
	call	rtx_equal_for_memref_p	#
	testl	%eax, %eax	# D.16682
	je	.L255	#,
.L254:
	.loc 1 1138 0
	movl	$1, %eax	#, iftmp.71
	jmp	.L256	#
.L255:
	.loc 1 1138 0 is_stmt 0 discriminator 2
	movl	$0, %eax	#, iftmp.71
.L256:
	.loc 1 1136 0 is_stmt 1
	jmp	.L235	#
.L252:
	.loc 1 1140 0
	movl	-12(%rbp), %eax	# code, code.72
	cltq
	movzbl	rtx_class(%rax), %eax	# rtx_class, D.16690
	cmpb	$60, %al	#, D.16690
	je	.L257	#,
	.loc 1 1140 0 is_stmt 0 discriminator 1
	movl	-12(%rbp), %eax	# code, code.73
	cltq
	movzbl	rtx_class(%rax), %eax	# rtx_class, D.16690
	cmpb	$50, %al	#, D.16690
	jne	.L258	#,
.L257:
	.loc 1 1141 0 is_stmt 1
	movq	-48(%rbp), %rax	# y, tmp178
	movq	8(%rax), %rdx	# y_11->fld[0].rtx, D.16688
	movq	-40(%rbp), %rax	# x, tmp179
	movq	8(%rax), %rax	# x_10->fld[0].rtx, D.16688
	movq	%rdx, %rsi	# D.16688,
	movq	%rax, %rdi	# D.16688,
	call	rtx_equal_for_memref_p	#
	.loc 1 1142 0
	testl	%eax, %eax	# D.16682
	je	.L259	#,
	.loc 1 1142 0 is_stmt 0 discriminator 1
	movq	-48(%rbp), %rax	# y, tmp180
	movq	16(%rax), %rdx	# y_11->fld[1].rtx, D.16688
	movq	-40(%rbp), %rax	# x, tmp181
	movq	16(%rax), %rax	# x_10->fld[1].rtx, D.16688
	movq	%rdx, %rsi	# D.16688,
	movq	%rax, %rdi	# D.16688,
	call	rtx_equal_for_memref_p	#
	testl	%eax, %eax	# D.16682
	je	.L259	#,
	.loc 1 1142 0 discriminator 3
	movl	$1, %eax	#, iftmp.74
	jmp	.L260	#
.L259:
	.loc 1 1142 0 discriminator 2
	movl	$0, %eax	#, iftmp.74
.L260:
	.loc 1 1141 0 is_stmt 1
	jmp	.L235	#
.L258:
	.loc 1 1143 0
	movl	-12(%rbp), %eax	# code, code.75
	cltq
	movzbl	rtx_class(%rax), %eax	# rtx_class, D.16690
	cmpb	$49, %al	#, D.16690
	jne	.L261	#,
	.loc 1 1144 0
	movq	-48(%rbp), %rax	# y, tmp183
	movq	8(%rax), %rdx	# y_11->fld[0].rtx, D.16688
	movq	-40(%rbp), %rax	# x, tmp184
	movq	8(%rax), %rax	# x_10->fld[0].rtx, D.16688
	movq	%rdx, %rsi	# D.16688,
	movq	%rax, %rdi	# D.16688,
	call	rtx_equal_for_memref_p	#
	jmp	.L235	#
.L261:
	.loc 1 1151 0
	movl	-12(%rbp), %eax	# code, code.76
	cltq
	movq	rtx_format(,%rax,8), %rax	# rtx_format, tmp186
	movq	%rax, -8(%rbp)	# tmp186, fmt
	.loc 1 1152 0
	movl	-12(%rbp), %eax	# code, code.77
	cltq
	movzbl	rtx_length(%rax), %eax	# rtx_length, D.16685
	movzbl	%al, %eax	# D.16685, D.16682
	subl	$1, %eax	#, tmp188
	movl	%eax, -20(%rbp)	# tmp188, i
	jmp	.L262	#
.L278:
	.loc 1 1154 0
	movl	-20(%rbp), %eax	# i, tmp189
	movslq	%eax, %rdx	# tmp189, D.16691
	movq	-8(%rbp), %rax	# fmt, tmp190
	addq	%rdx, %rax	# D.16691, D.16689
	movzbl	(%rax), %eax	# *_64, D.16690
	movsbl	%al, %eax	# D.16690, D.16682
	cmpl	$101, %eax	#, D.16682
	je	.L264	#,
	cmpl	$101, %eax	#, D.16682
	jg	.L265	#,
	cmpl	$48, %eax	#, D.16682
	je	.L281	#,
	cmpl	$69, %eax	#, D.16682
	je	.L267	#,
	jmp	.L263	#
.L265:
	cmpl	$105, %eax	#, D.16682
	je	.L268	#,
	cmpl	$115, %eax	#, D.16682
	je	.L269	#,
	jmp	.L263	#
.L268:
	.loc 1 1157 0
	movq	-40(%rbp), %rax	# x, tmp191
	movl	-20(%rbp), %edx	# i, tmp193
	movslq	%edx, %rdx	# tmp193, tmp192
	movl	8(%rax,%rdx,8), %ecx	# x_10->fld[i_1].rtint, D.16682
	movq	-48(%rbp), %rax	# y, tmp194
	movl	-20(%rbp), %edx	# i, tmp196
	movslq	%edx, %rdx	# tmp196, tmp195
	movl	8(%rax,%rdx,8), %eax	# y_11->fld[i_1].rtint, D.16682
	cmpl	%eax, %ecx	# D.16682, D.16682
	je	.L270	#,
	.loc 1 1158 0
	movl	$0, %eax	#, D.16682
	jmp	.L235	#
.L270:
	.loc 1 1159 0
	jmp	.L271	#
.L267:
	.loc 1 1163 0
	movq	-40(%rbp), %rax	# x, tmp197
	movl	-20(%rbp), %edx	# i, tmp199
	movslq	%edx, %rdx	# tmp199, tmp198
	movq	8(%rax,%rdx,8), %rax	# x_10->fld[i_1].rtvec, D.16692
	movl	(%rax), %ecx	# _70->num_elem, D.16682
	movq	-48(%rbp), %rax	# y, tmp200
	movl	-20(%rbp), %edx	# i, tmp202
	movslq	%edx, %rdx	# tmp202, tmp201
	movq	8(%rax,%rdx,8), %rax	# y_11->fld[i_1].rtvec, D.16692
	movl	(%rax), %eax	# _72->num_elem, D.16682
	cmpl	%eax, %ecx	# D.16682, D.16682
	je	.L272	#,
	.loc 1 1164 0
	movl	$0, %eax	#, D.16682
	jmp	.L235	#
.L272:
	.loc 1 1167 0
	movl	$0, -16(%rbp)	#, j
	jmp	.L273	#
.L275:
	.loc 1 1169 0
	movq	-48(%rbp), %rax	# y, tmp203
	movl	-20(%rbp), %edx	# i, tmp205
	movslq	%edx, %rdx	# tmp205, tmp204
	movq	8(%rax,%rdx,8), %rax	# y_11->fld[i_1].rtvec, D.16692
	.loc 1 1168 0
	movl	-16(%rbp), %edx	# j, tmp207
	movslq	%edx, %rdx	# tmp207, tmp206
	movq	8(%rax,%rdx,8), %rdx	# _78->elem, D.16688
	movq	-40(%rbp), %rax	# x, tmp208
	movl	-20(%rbp), %ecx	# i, tmp210
	movslq	%ecx, %rcx	# tmp210, tmp209
	movq	8(%rax,%rcx,8), %rax	# x_10->fld[i_1].rtvec, D.16692
	movl	-16(%rbp), %ecx	# j, tmp212
	movslq	%ecx, %rcx	# tmp212, tmp211
	movq	8(%rax,%rcx,8), %rax	# _80->elem, D.16688
	movq	%rdx, %rsi	# D.16688,
	movq	%rax, %rdi	# D.16688,
	call	rtx_equal_for_memref_p	#
	testl	%eax, %eax	# D.16682
	jne	.L274	#,
	.loc 1 1170 0
	movl	$0, %eax	#, D.16682
	jmp	.L235	#
.L274:
	.loc 1 1167 0
	addl	$1, -16(%rbp)	#, j
.L273:
	.loc 1 1167 0 is_stmt 0 discriminator 1
	movq	-40(%rbp), %rax	# x, tmp213
	movl	-20(%rbp), %edx	# i, tmp215
	movslq	%edx, %rdx	# tmp215, tmp214
	movq	8(%rax,%rdx,8), %rax	# x_10->fld[i_1].rtvec, D.16692
	movl	(%rax), %eax	# _76->num_elem, D.16682
	cmpl	-16(%rbp), %eax	# j, D.16682
	jg	.L275	#,
	.loc 1 1171 0 is_stmt 1
	jmp	.L271	#
.L264:
	.loc 1 1174 0
	movq	-48(%rbp), %rax	# y, tmp216
	movl	-20(%rbp), %edx	# i, tmp218
	movslq	%edx, %rdx	# tmp218, tmp217
	movq	8(%rax,%rdx,8), %rdx	# y_11->fld[i_1].rtx, D.16688
	movq	-40(%rbp), %rax	# x, tmp219
	movl	-20(%rbp), %ecx	# i, tmp221
	movslq	%ecx, %rcx	# tmp221, tmp220
	movq	8(%rax,%rcx,8), %rax	# x_10->fld[i_1].rtx, D.16688
	movq	%rdx, %rsi	# D.16688,
	movq	%rax, %rdi	# D.16688,
	call	rtx_equal_for_memref_p	#
	testl	%eax, %eax	# D.16682
	jne	.L276	#,
	.loc 1 1175 0
	movl	$0, %eax	#, D.16682
	jmp	.L235	#
.L276:
	.loc 1 1176 0
	jmp	.L271	#
.L269:
	.loc 1 1180 0
	movq	-48(%rbp), %rax	# y, tmp222
	movl	-20(%rbp), %edx	# i, tmp224
	movslq	%edx, %rdx	# tmp224, tmp223
	movq	8(%rax,%rdx,8), %rdx	# y_11->fld[i_1].rtstr, D.16689
	movq	-40(%rbp), %rax	# x, tmp225
	movl	-20(%rbp), %ecx	# i, tmp227
	movslq	%ecx, %rcx	# tmp227, tmp226
	movq	8(%rax,%rcx,8), %rax	# x_10->fld[i_1].rtstr, D.16689
	movq	%rdx, %rsi	# D.16689,
	movq	%rax, %rdi	# D.16689,
	call	strcmp	#
	testl	%eax, %eax	# D.16682
	je	.L277	#,
	.loc 1 1181 0
	movl	$0, %eax	#, D.16682
	jmp	.L235	#
.L277:
	.loc 1 1182 0
	jmp	.L271	#
.L263:
	.loc 1 1192 0
	movl	$__FUNCTION__.13482, %edx	#,
	movl	$1192, %esi	#,
	movl	$.LC0, %edi	#,
	call	fancy_abort	#
.L281:
	.loc 1 1186 0
	nop
.L271:
	.loc 1 1152 0
	subl	$1, -20(%rbp)	#, i
.L262:
	.loc 1 1152 0 is_stmt 0 discriminator 1
	cmpl	$0, -20(%rbp)	#, i
	jns	.L278	#,
	.loc 1 1195 0 is_stmt 1
	movl	$1, %eax	#, D.16682
.L235:
	.loc 1 1196 0
	leave
	.cfi_def_cfa 7, 8
	ret
	.cfi_endproc
.LFE21:
	.size	rtx_equal_for_memref_p, .-rtx_equal_for_memref_p
	.type	find_symbolic_term, @function
find_symbolic_term:
.LFB22:
	.loc 1 1204 0
	.cfi_startproc
	pushq	%rbp	#
	.cfi_def_cfa_offset 16
	.cfi_offset 6, -16
	movq	%rsp, %rbp	#,
	.cfi_def_cfa_register 6
	subq	$48, %rsp	#,
	movq	%rdi, -40(%rbp)	# x, x
	.loc 1 1209 0
	movq	-40(%rbp), %rax	# x, tmp75
	movzwl	(%rax), %eax	# x_3(D)->code, D.16695
	movzwl	%ax, %eax	# D.16695, tmp76
	movl	%eax, -20(%rbp)	# tmp76, code
	.loc 1 1210 0
	cmpl	$68, -20(%rbp)	#, code
	je	.L283	#,
	.loc 1 1210 0 is_stmt 0 discriminator 1
	cmpl	$67, -20(%rbp)	#, code
	jne	.L284	#,
.L283:
	.loc 1 1211 0 is_stmt 1
	movq	-40(%rbp), %rax	# x, D.16694
	jmp	.L285	#
.L284:
	.loc 1 1212 0
	movl	-20(%rbp), %eax	# code, code.78
	cltq
	movzbl	rtx_class(%rax), %eax	# rtx_class, D.16696
	cmpb	$111, %al	#, D.16696
	jne	.L286	#,
	.loc 1 1213 0
	movl	$0, %eax	#, D.16694
	jmp	.L285	#
.L286:
	.loc 1 1215 0
	movl	-20(%rbp), %eax	# code, code.79
	cltq
	movq	rtx_format(,%rax,8), %rax	# rtx_format, tmp79
	movq	%rax, -16(%rbp)	# tmp79, fmt
	.loc 1 1216 0
	movl	-20(%rbp), %eax	# code, code.80
	cltq
	movzbl	rtx_length(%rax), %eax	# rtx_length, D.16697
	movzbl	%al, %eax	# D.16697, D.16698
	subl	$1, %eax	#, tmp81
	movl	%eax, -24(%rbp)	# tmp81, i
	jmp	.L287	#
.L291:
.LBB9:
	.loc 1 1220 0
	movl	-24(%rbp), %eax	# i, tmp82
	movslq	%eax, %rdx	# tmp82, D.16699
	movq	-16(%rbp), %rax	# fmt, tmp83
	addq	%rdx, %rax	# D.16699, D.16700
	movzbl	(%rax), %eax	# *_16, D.16696
	cmpb	$101, %al	#, D.16696
	jne	.L288	#,
	.loc 1 1222 0
	movq	-40(%rbp), %rax	# x, tmp84
	movl	-24(%rbp), %edx	# i, tmp86
	movslq	%edx, %rdx	# tmp86, tmp85
	movq	8(%rax,%rdx,8), %rax	# x_3(D)->fld[i_1].rtx, D.16701
	movq	%rax, %rdi	# D.16701,
	call	find_symbolic_term	#
	movq	%rax, -8(%rbp)	# tmp87, t
	.loc 1 1223 0
	cmpq	$0, -8(%rbp)	#, t
	je	.L289	#,
	.loc 1 1224 0
	movq	-8(%rbp), %rax	# t, D.16694
	jmp	.L285	#
.L288:
	.loc 1 1226 0
	movl	-24(%rbp), %eax	# i, tmp88
	movslq	%eax, %rdx	# tmp88, D.16699
	movq	-16(%rbp), %rax	# fmt, tmp89
	addq	%rdx, %rax	# D.16699, D.16700
	movzbl	(%rax), %eax	# *_22, D.16696
	cmpb	$69, %al	#, D.16696
	jne	.L289	#,
	.loc 1 1227 0
	jmp	.L290	#
.L289:
.LBE9:
	.loc 1 1216 0
	subl	$1, -24(%rbp)	#, i
.L287:
	.loc 1 1216 0 is_stmt 0 discriminator 1
	cmpl	$0, -24(%rbp)	#, i
	jns	.L291	#,
.L290:
	.loc 1 1229 0 is_stmt 1
	movl	$0, %eax	#, D.16694
.L285:
	.loc 1 1230 0
	leave
	.cfi_def_cfa 7, 8
	ret
	.cfi_endproc
.LFE22:
	.size	find_symbolic_term, .-find_symbolic_term
	.type	find_base_term, @function
find_base_term:
.LFB23:
	.loc 1 1235 0
	.cfi_startproc
	pushq	%rbp	#
	.cfi_def_cfa_offset 16
	.cfi_offset 6, -16
	movq	%rsp, %rbp	#,
	.cfi_def_cfa_register 6
	subq	$64, %rsp	#,
	movq	%rdi, -56(%rbp)	# x, x
	.loc 1 1241 0
	movq	-56(%rbp), %rax	# x, tmp121
	movq	%rax, %rdi	# tmp121,
	call	ix86_find_base_term	#
	movq	%rax, -56(%rbp)	# tmp122, x
	.loc 1 1244 0
	movq	-56(%rbp), %rax	# x, tmp123
	movzwl	(%rax), %eax	# x_8->code, D.16703
	movzwl	%ax, %eax	# D.16703, D.16704
	subl	$58, %eax	#, tmp124
	cmpl	$77, %eax	#, tmp124
	ja	.L293	#,
	movl	%eax, %eax	# tmp124, tmp125
	movq	.L295(,%rax,8), %rax	#, tmp126
	jmp	*%rax	# tmp126
	.section	.rodata
	.align 8
	.align 4
.L295:
	.quad	.L294
	.quad	.L293
	.quad	.L296
	.quad	.L297
	.quad	.L293
	.quad	.L293
	.quad	.L293
	.quad	.L293
	.quad	.L293
	.quad	.L298
	.quad	.L298
	.quad	.L293
	.quad	.L299
	.quad	.L293
	.quad	.L293
	.quad	.L293
	.quad	.L293
	.quad	.L300
	.quad	.L300
	.quad	.L293
	.quad	.L293
	.quad	.L293
	.quad	.L293
	.quad	.L293
	.quad	.L293
	.quad	.L301
	.quad	.L293
	.quad	.L293
	.quad	.L293
	.quad	.L293
	.quad	.L293
	.quad	.L293
	.quad	.L293
	.quad	.L293
	.quad	.L293
	.quad	.L293
	.quad	.L293
	.quad	.L293
	.quad	.L302
	.quad	.L302
	.quad	.L302
	.quad	.L302
	.quad	.L302
	.quad	.L302
	.quad	.L293
	.quad	.L293
	.quad	.L293
	.quad	.L293
	.quad	.L293
	.quad	.L293
	.quad	.L293
	.quad	.L293
	.quad	.L293
	.quad	.L293
	.quad	.L293
	.quad	.L293
	.quad	.L293
	.quad	.L293
	.quad	.L293
	.quad	.L293
	.quad	.L293
	.quad	.L293
	.quad	.L303
	.quad	.L303
	.quad	.L304
	.quad	.L293
	.quad	.L293
	.quad	.L293
	.quad	.L293
	.quad	.L293
	.quad	.L293
	.quad	.L293
	.quad	.L293
	.quad	.L293
	.quad	.L293
	.quad	.L293
	.quad	.L302
	.quad	.L300
	.text
.L297:
	.loc 1 1247 0
	movq	-56(%rbp), %rax	# x, tmp127
	movl	8(%rax), %edx	# x_8->fld[0].rtuint, D.16704
	movl	reg_base_value_size(%rip), %eax	# reg_base_value_size, reg_base_value_size.82
	cmpl	%eax, %edx	# reg_base_value_size.82, D.16704
	jae	.L305	#,
	.loc 1 1247 0 is_stmt 0 discriminator 1
	movq	reg_base_value(%rip), %rdx	# reg_base_value, reg_base_value.83
	movq	-56(%rbp), %rax	# x, tmp128
	movl	8(%rax), %eax	# x_8->fld[0].rtuint, D.16704
	movl	%eax, %eax	# D.16704, D.16705
	salq	$3, %rax	#, D.16705
	addq	%rdx, %rax	# reg_base_value.83, D.16706
	movq	(%rax), %rax	# *_17, iftmp.81
	jmp	.L306	#
.L305:
	.loc 1 1247 0 discriminator 2
	movl	$0, %eax	#, iftmp.81
.L306:
	.loc 1 1247 0 discriminator 3
	jmp	.L307	#
.L304:
	.loc 1 1250 0 is_stmt 1
	movq	-56(%rbp), %rax	# x, tmp129
	movzbl	2(%rax), %eax	# x_8->mode, D.16707
	movzbl	%al, %eax	# D.16707, D.16708
	cltq
	movzbl	mode_size(%rax), %edx	# mode_size, D.16707
	movl	target_flags(%rip), %eax	# target_flags, target_flags.85
	andl	$33554432, %eax	#, D.16708
	testl	%eax, %eax	# D.16708
	je	.L308	#,
	.loc 1 1250 0 is_stmt 0 discriminator 1
	movl	$5, %eax	#, iftmp.84
	jmp	.L309	#
.L308:
	.loc 1 1250 0 discriminator 2
	movl	$4, %eax	#, iftmp.84
.L309:
	.loc 1 1250 0 discriminator 3
	cltq
	movzbl	mode_size(%rax), %eax	# mode_size, D.16707
	cmpb	%al, %dl	# D.16707, D.16707
	jae	.L302	#,
	.loc 1 1251 0 is_stmt 1
	movl	$0, %eax	#, D.16702
	jmp	.L307	#
.L302:
	.loc 1 1260 0
	movq	-56(%rbp), %rax	# x, tmp132
	movq	8(%rax), %rax	# x_8->fld[0].rtx, D.16709
	movq	%rax, %rdi	# D.16709,
	call	find_base_term	#
	jmp	.L307	#
.L303:
.LBB10:
	.loc 1 1265 0
	movq	-56(%rbp), %rax	# x, tmp133
	movq	8(%rax), %rax	# x_8->fld[0].rtx, D.16709
	movq	%rax, %rdi	# D.16709,
	call	find_base_term	#
	movq	%rax, -32(%rbp)	# tmp134, temp
	.loc 1 1272 0
	movq	-32(%rbp), %rax	# temp, D.16702
	jmp	.L307	#
.L296:
.LBE10:
	.loc 1 1276 0
	movq	-56(%rbp), %rax	# x, tmp135
	movq	8(%rax), %rax	# x_8->fld[0].rt_cselib, tmp136
	movq	%rax, -24(%rbp)	# tmp136, val
	.loc 1 1277 0
	movq	-24(%rbp), %rax	# val, tmp137
	movq	16(%rax), %rax	# val_35->locs, tmp138
	movq	%rax, -40(%rbp)	# tmp138, l
	jmp	.L310	#
.L312:
	.loc 1 1278 0
	movq	-40(%rbp), %rax	# l, tmp139
	movq	8(%rax), %rax	# l_2->loc, D.16709
	movq	%rax, %rdi	# D.16709,
	call	find_base_term	#
	movq	%rax, -56(%rbp)	# tmp140, x
	cmpq	$0, -56(%rbp)	#, x
	je	.L311	#,
	.loc 1 1279 0
	movq	-56(%rbp), %rax	# x, D.16702
	jmp	.L307	#
.L311:
	.loc 1 1277 0
	movq	-40(%rbp), %rax	# l, tmp141
	movq	(%rax), %rax	# l_2->next, tmp142
	movq	%rax, -40(%rbp)	# tmp142, l
.L310:
	.loc 1 1277 0 is_stmt 0 discriminator 1
	cmpq	$0, -40(%rbp)	#, l
	jne	.L312	#,
	.loc 1 1280 0 is_stmt 1
	movl	$0, %eax	#, D.16702
	jmp	.L307	#
.L294:
	.loc 1 1283 0
	movq	-56(%rbp), %rax	# x, tmp143
	movq	8(%rax), %rax	# x_8->fld[0].rtx, tmp144
	movq	%rax, -56(%rbp)	# tmp144, x
	.loc 1 1284 0
	movq	-56(%rbp), %rax	# x, tmp145
	movzwl	(%rax), %eax	# x_42->code, D.16703
	cmpw	$75, %ax	#, D.16703
	je	.L300	#,
	.loc 1 1284 0 is_stmt 0 discriminator 1
	movq	-56(%rbp), %rax	# x, tmp146
	movzwl	(%rax), %eax	# x_42->code, D.16703
	cmpw	$76, %ax	#, D.16703
	je	.L300	#,
	.loc 1 1285 0 is_stmt 1
	movl	$0, %eax	#, D.16702
	jmp	.L307	#
.L300:
.LBB11:
	.loc 1 1291 0
	movq	-56(%rbp), %rax	# x, tmp147
	movq	8(%rax), %rax	# x_1->fld[0].rtx, tmp148
	movq	%rax, -16(%rbp)	# tmp148, tmp1
	.loc 1 1292 0
	movq	-56(%rbp), %rax	# x, tmp149
	movq	16(%rax), %rax	# x_1->fld[1].rtx, tmp150
	movq	%rax, -8(%rbp)	# tmp150, tmp2
	.loc 1 1306 0
	movq	pic_offset_table_rtx(%rip), %rax	# pic_offset_table_rtx, pic_offset_table_rtx.86
	cmpq	%rax, -16(%rbp)	# pic_offset_table_rtx.86, tmp1
	jne	.L313	#,
	.loc 1 1306 0 is_stmt 0 discriminator 1
	movq	-8(%rbp), %rax	# tmp2, tmp151
	movzwl	(%rax), %eax	# tmp2_47->code, D.16703
	cmpw	$67, %ax	#, D.16703
	je	.L314	#,
	movq	-8(%rbp), %rax	# tmp2, tmp152
	movzwl	(%rax), %eax	# tmp2_47->code, D.16703
	cmpw	$68, %ax	#, D.16703
	je	.L314	#,
	movq	-8(%rbp), %rax	# tmp2, tmp153
	movzwl	(%rax), %eax	# tmp2_47->code, D.16703
	cmpw	$54, %ax	#, D.16703
	je	.L314	#,
	movq	-8(%rbp), %rax	# tmp2, tmp154
	movzwl	(%rax), %eax	# tmp2_47->code, D.16703
	cmpw	$55, %ax	#, D.16703
	je	.L314	#,
	movq	-8(%rbp), %rax	# tmp2, tmp155
	movzwl	(%rax), %eax	# tmp2_47->code, D.16703
	cmpw	$58, %ax	#, D.16703
	je	.L314	#,
	movq	-8(%rbp), %rax	# tmp2, tmp156
	movzwl	(%rax), %eax	# tmp2_47->code, D.16703
	cmpw	$134, %ax	#, D.16703
	je	.L314	#,
	movq	-8(%rbp), %rax	# tmp2, tmp157
	movzwl	(%rax), %eax	# tmp2_47->code, D.16703
	cmpw	$56, %ax	#, D.16703
	je	.L314	#,
	movq	-8(%rbp), %rax	# tmp2, tmp158
	movzwl	(%rax), %eax	# tmp2_47->code, D.16703
	cmpw	$140, %ax	#, D.16703
	jne	.L313	#,
.L314:
	.loc 1 1307 0 is_stmt 1
	movq	-8(%rbp), %rax	# tmp2, tmp159
	movq	%rax, %rdi	# tmp159,
	call	find_base_term	#
	jmp	.L307	#
.L313:
	.loc 1 1311 0
	movq	-16(%rbp), %rax	# tmp1, tmp160
	movzwl	(%rax), %eax	# tmp1_46->code, D.16703
	cmpw	$61, %ax	#, D.16703
	jne	.L315	#,
	.loc 1 1311 0 is_stmt 0 discriminator 1
	movq	-16(%rbp), %rax	# tmp1, tmp161
	movzbl	3(%rax), %eax	# *tmp1_46, D.16707
	andl	$-128, %eax	#, D.16707
	testb	%al, %al	# D.16707
	je	.L315	#,
	.loc 1 1312 0 is_stmt 1
	movq	-16(%rbp), %rax	# tmp1, tmp162
	movq	%rax, %rdi	# tmp162,
	call	find_base_term	#
	jmp	.L307	#
.L315:
	.loc 1 1314 0
	movq	-8(%rbp), %rax	# tmp2, tmp163
	movzwl	(%rax), %eax	# tmp2_47->code, D.16703
	cmpw	$61, %ax	#, D.16703
	jne	.L316	#,
	.loc 1 1314 0 is_stmt 0 discriminator 1
	movq	-8(%rbp), %rax	# tmp2, tmp164
	movzbl	3(%rax), %eax	# *tmp2_47, D.16707
	andl	$-128, %eax	#, D.16707
	testb	%al, %al	# D.16707
	je	.L316	#,
	.loc 1 1315 0 is_stmt 1
	movq	-8(%rbp), %rax	# tmp2, tmp165
	movq	%rax, %rdi	# tmp165,
	call	find_base_term	#
	jmp	.L307	#
.L316:
	.loc 1 1319 0
	movq	-16(%rbp), %rax	# tmp1, tmp166
	movq	%rax, %rdi	# tmp166,
	call	find_base_term	#
	movq	%rax, -16(%rbp)	# tmp167, tmp1
	.loc 1 1320 0
	movq	-8(%rbp), %rax	# tmp2, tmp168
	movq	%rax, %rdi	# tmp168,
	call	find_base_term	#
	movq	%rax, -8(%rbp)	# tmp169, tmp2
	.loc 1 1325 0
	cmpq	$0, -16(%rbp)	#, tmp1
	je	.L317	#,
	.loc 1 1326 0
	movq	-16(%rbp), %rax	# tmp1, tmp170
	movzwl	(%rax), %eax	# tmp1_66->code, D.16703
	cmpw	$68, %ax	#, D.16703
	je	.L318	#,
	.loc 1 1327 0
	movq	-16(%rbp), %rax	# tmp1, tmp171
	movzwl	(%rax), %eax	# tmp1_66->code, D.16703
	cmpw	$67, %ax	#, D.16703
	je	.L318	#,
	.loc 1 1328 0
	movq	-16(%rbp), %rax	# tmp1, tmp172
	movzwl	(%rax), %eax	# tmp1_66->code, D.16703
	cmpw	$25, %ax	#, D.16703
	jne	.L317	#,
	.loc 1 1329 0
	movq	-16(%rbp), %rax	# tmp1, tmp173
	movzbl	2(%rax), %eax	# tmp1_66->mode, D.16707
	testb	%al, %al	# D.16707
	je	.L317	#,
.L318:
	.loc 1 1330 0
	movq	-16(%rbp), %rax	# tmp1, D.16702
	jmp	.L307	#
.L317:
	.loc 1 1332 0
	cmpq	$0, -8(%rbp)	#, tmp2
	je	.L319	#,
	.loc 1 1333 0
	movq	-8(%rbp), %rax	# tmp2, tmp174
	movzwl	(%rax), %eax	# tmp2_67->code, D.16703
	cmpw	$68, %ax	#, D.16703
	je	.L320	#,
	.loc 1 1334 0
	movq	-8(%rbp), %rax	# tmp2, tmp175
	movzwl	(%rax), %eax	# tmp2_67->code, D.16703
	cmpw	$67, %ax	#, D.16703
	je	.L320	#,
	.loc 1 1335 0
	movq	-8(%rbp), %rax	# tmp2, tmp176
	movzwl	(%rax), %eax	# tmp2_67->code, D.16703
	cmpw	$25, %ax	#, D.16703
	jne	.L319	#,
	.loc 1 1336 0
	movq	-8(%rbp), %rax	# tmp2, tmp177
	movzbl	2(%rax), %eax	# tmp2_67->mode, D.16707
	testb	%al, %al	# D.16707
	je	.L319	#,
.L320:
	.loc 1 1337 0
	movq	-8(%rbp), %rax	# tmp2, D.16702
	jmp	.L307	#
.L319:
	.loc 1 1342 0
	movl	$0, %eax	#, D.16702
	jmp	.L307	#
.L301:
.LBE11:
	.loc 1 1346 0
	movq	-56(%rbp), %rax	# x, tmp178
	movq	16(%rax), %rax	# x_8->fld[1].rtx, D.16709
	movzwl	(%rax), %eax	# _79->code, D.16703
	cmpw	$54, %ax	#, D.16703
	jne	.L321	#,
	.loc 1 1346 0 is_stmt 0 discriminator 1
	movq	-56(%rbp), %rax	# x, tmp179
	movq	16(%rax), %rax	# x_8->fld[1].rtx, D.16709
	movq	8(%rax), %rax	# _81->fld[0].rtwint, D.16710
	testq	%rax, %rax	# D.16710
	je	.L321	#,
	.loc 1 1347 0 is_stmt 1
	movq	-56(%rbp), %rax	# x, tmp180
	movq	8(%rax), %rax	# x_8->fld[0].rtx, D.16709
	movq	%rax, %rdi	# D.16709,
	call	find_base_term	#
	jmp	.L307	#
.L321:
	.loc 1 1348 0
	movl	$0, %eax	#, D.16702
	jmp	.L307	#
.L298:
	.loc 1 1352 0
	movq	-56(%rbp), %rax	# x, D.16702
	jmp	.L307	#
.L299:
	.loc 1 1355 0
	movq	global_rtl+24(%rip), %rax	# global_rtl, D.16709
	movl	8(%rax), %edx	# _87->fld[0].rtuint, D.16704
	movl	reg_base_value_size(%rip), %eax	# reg_base_value_size, reg_base_value_size.88
	cmpl	%eax, %edx	# reg_base_value_size.88, D.16704
	jae	.L322	#,
	.loc 1 1355 0 is_stmt 0 discriminator 1
	movq	reg_base_value(%rip), %rdx	# reg_base_value, reg_base_value.89
	movq	global_rtl+24(%rip), %rax	# global_rtl, D.16709
	movl	8(%rax), %eax	# _91->fld[0].rtuint, D.16704
	movl	%eax, %eax	# D.16704, D.16705
	salq	$3, %rax	#, D.16705
	addq	%rdx, %rax	# reg_base_value.89, D.16706
	movq	(%rax), %rax	# *_95, iftmp.87
	jmp	.L323	#
.L322:
	.loc 1 1355 0 discriminator 2
	movl	$0, %eax	#, iftmp.87
.L323:
	.loc 1 1355 0 discriminator 3
	jmp	.L307	#
.L293:
	.loc 1 1358 0 is_stmt 1
	movl	$0, %eax	#, D.16702
.L307:
	.loc 1 1360 0
	leave
	.cfi_def_cfa 7, 8
	ret
	.cfi_endproc
.LFE23:
	.size	find_base_term, .-find_base_term
	.type	base_alias_check, @function
base_alias_check:
.LFB24:
	.loc 1 1369 0
	.cfi_startproc
	pushq	%rbp	#
	.cfi_def_cfa_offset 16
	.cfi_offset 6, -16
	movq	%rsp, %rbp	#,
	.cfi_def_cfa_register 6
	subq	$64, %rsp	#,
	movq	%rdi, -40(%rbp)	# x, x
	movq	%rsi, -48(%rbp)	# y, y
	movl	%edx, -52(%rbp)	# x_mode, x_mode
	movl	%ecx, -56(%rbp)	# y_mode, y_mode
	.loc 1 1370 0
	movq	-40(%rbp), %rax	# x, tmp103
	movq	%rax, %rdi	# tmp103,
	call	find_base_term	#
	movq	%rax, -32(%rbp)	# tmp104, x_base
	.loc 1 1371 0
	movq	-48(%rbp), %rax	# y, tmp105
	movq	%rax, %rdi	# tmp105,
	call	find_base_term	#
	movq	%rax, -24(%rbp)	# tmp106, y_base
	.loc 1 1376 0
	cmpq	$0, -32(%rbp)	#, x_base
	jne	.L325	#,
.LBB12:
	.loc 1 1380 0
	movl	flag_expensive_optimizations(%rip), %eax	# flag_expensive_optimizations, flag_expensive_optimizations.90
	testl	%eax, %eax	# flag_expensive_optimizations.90
	je	.L326	#,
	.loc 1 1380 0 is_stmt 0 discriminator 1
	movq	-40(%rbp), %rax	# x, tmp107
	movq	%rax, %rdi	# tmp107,
	call	canon_rtx	#
	movq	%rax, -16(%rbp)	# tmp108, x_c
	movq	-16(%rbp), %rax	# x_c, tmp109
	cmpq	-40(%rbp), %rax	# x, tmp109
	jne	.L327	#,
.L326:
	.loc 1 1381 0 is_stmt 1
	movl	$1, %eax	#, D.16711
	jmp	.L328	#
.L327:
	.loc 1 1383 0
	movq	-16(%rbp), %rax	# x_c, tmp110
	movq	%rax, %rdi	# tmp110,
	call	find_base_term	#
	movq	%rax, -32(%rbp)	# tmp111, x_base
	.loc 1 1384 0
	cmpq	$0, -32(%rbp)	#, x_base
	jne	.L325	#,
	.loc 1 1385 0
	movl	$1, %eax	#, D.16711
	jmp	.L328	#
.L325:
.LBE12:
	.loc 1 1388 0
	cmpq	$0, -24(%rbp)	#, y_base
	jne	.L329	#,
.LBB13:
	.loc 1 1391 0
	movl	flag_expensive_optimizations(%rip), %eax	# flag_expensive_optimizations, flag_expensive_optimizations.91
	testl	%eax, %eax	# flag_expensive_optimizations.91
	je	.L330	#,
	.loc 1 1391 0 is_stmt 0 discriminator 1
	movq	-48(%rbp), %rax	# y, tmp112
	movq	%rax, %rdi	# tmp112,
	call	canon_rtx	#
	movq	%rax, -8(%rbp)	# tmp113, y_c
	movq	-8(%rbp), %rax	# y_c, tmp114
	cmpq	-48(%rbp), %rax	# y, tmp114
	jne	.L331	#,
.L330:
	.loc 1 1392 0 is_stmt 1
	movl	$1, %eax	#, D.16711
	jmp	.L328	#
.L331:
	.loc 1 1394 0
	movq	-8(%rbp), %rax	# y_c, tmp115
	movq	%rax, %rdi	# tmp115,
	call	find_base_term	#
	movq	%rax, -24(%rbp)	# tmp116, y_base
	.loc 1 1395 0
	cmpq	$0, -24(%rbp)	#, y_base
	jne	.L329	#,
	.loc 1 1396 0
	movl	$1, %eax	#, D.16711
	jmp	.L328	#
.L329:
.LBE13:
	.loc 1 1400 0
	movq	-24(%rbp), %rdx	# y_base, tmp117
	movq	-32(%rbp), %rax	# x_base, tmp118
	movq	%rdx, %rsi	# tmp117,
	movq	%rax, %rdi	# tmp118,
	call	rtx_equal_p	#
	testl	%eax, %eax	# D.16711
	je	.L332	#,
	.loc 1 1401 0
	movl	$1, %eax	#, D.16711
	jmp	.L328	#
.L332:
	.loc 1 1408 0
	movq	-32(%rbp), %rax	# x_base, tmp119
	movzwl	(%rax), %eax	# x_base_1->code, D.16712
	cmpw	$25, %ax	#, D.16712
	je	.L333	#,
	.loc 1 1408 0 is_stmt 0 discriminator 1
	movq	-24(%rbp), %rax	# y_base, tmp120
	movzwl	(%rax), %eax	# y_base_2->code, D.16712
	cmpw	$25, %ax	#, D.16712
	je	.L333	#,
	.loc 1 1410 0 is_stmt 1
	movq	-40(%rbp), %rax	# x, tmp121
	movzwl	(%rax), %eax	# x_7(D)->code, D.16712
	cmpw	$83, %ax	#, D.16712
	jne	.L334	#,
	.loc 1 1410 0 is_stmt 0 discriminator 1
	movq	-48(%rbp), %rax	# y, tmp122
	movzwl	(%rax), %eax	# y_9(D)->code, D.16712
	cmpw	$83, %ax	#, D.16712
	jne	.L334	#,
	.loc 1 1411 0 is_stmt 1
	movl	$1, %eax	#, D.16711
	jmp	.L328	#
.L334:
	.loc 1 1412 0
	movq	-40(%rbp), %rax	# x, tmp123
	movzwl	(%rax), %eax	# x_7(D)->code, D.16712
	cmpw	$83, %ax	#, D.16712
	jne	.L335	#,
	.loc 1 1413 0
	movq	-40(%rbp), %rax	# x, tmp124
	movq	16(%rax), %rax	# x_7(D)->fld[1].rtx, D.16713
	movzwl	(%rax), %eax	# _29->code, D.16712
	cmpw	$54, %ax	#, D.16712
	jne	.L336	#,
	.loc 1 1414 0
	movl	-56(%rbp), %eax	# y_mode, y_mode.92
	cltq
	movzbl	mode_unit_size(%rax), %eax	# mode_unit_size, D.16714
	movzbl	%al, %edx	# D.16714, D.16715
	movq	-40(%rbp), %rax	# x, tmp126
	movq	16(%rax), %rax	# x_7(D)->fld[1].rtx, D.16713
	movq	8(%rax), %rax	# _35->fld[0].rtwint, D.16715
	negq	%rax	# D.16715
	cmpq	%rax, %rdx	# D.16715, D.16715
	jge	.L335	#,
.L336:
	.loc 1 1415 0
	movl	$1, %eax	#, D.16711
	jmp	.L328	#
.L335:
	.loc 1 1416 0
	movq	-48(%rbp), %rax	# y, tmp127
	movzwl	(%rax), %eax	# y_9(D)->code, D.16712
	cmpw	$83, %ax	#, D.16712
	jne	.L337	#,
	.loc 1 1417 0
	movq	-48(%rbp), %rax	# y, tmp128
	movq	16(%rax), %rax	# y_9(D)->fld[1].rtx, D.16713
	movzwl	(%rax), %eax	# _40->code, D.16712
	cmpw	$54, %ax	#, D.16712
	jne	.L338	#,
	.loc 1 1418 0
	movl	-52(%rbp), %eax	# x_mode, x_mode.93
	cltq
	movzbl	mode_unit_size(%rax), %eax	# mode_unit_size, D.16714
	movzbl	%al, %edx	# D.16714, D.16715
	movq	-48(%rbp), %rax	# y, tmp130
	movq	16(%rax), %rax	# y_9(D)->fld[1].rtx, D.16713
	movq	8(%rax), %rax	# _46->fld[0].rtwint, D.16715
	negq	%rax	# D.16715
	cmpq	%rax, %rdx	# D.16715, D.16715
	jge	.L337	#,
.L338:
	.loc 1 1419 0
	movl	$1, %eax	#, D.16711
	jmp	.L328	#
.L337:
	.loc 1 1421 0
	movl	$0, %eax	#, D.16711
	jmp	.L328	#
.L333:
	.loc 1 1428 0
	movq	-32(%rbp), %rax	# x_base, tmp131
	movzwl	(%rax), %eax	# x_base_1->code, D.16712
	cmpw	$25, %ax	#, D.16712
	jne	.L339	#,
	.loc 1 1428 0 is_stmt 0 discriminator 1
	movq	-32(%rbp), %rax	# x_base, tmp132
	movzbl	2(%rax), %eax	# x_base_1->mode, D.16714
	movzbl	%al, %edx	# D.16714, D.16716
	movl	target_flags(%rip), %eax	# target_flags, target_flags.95
	andl	$33554432, %eax	#, D.16711
	testl	%eax, %eax	# D.16711
	je	.L340	#,
	movl	$5, %eax	#, iftmp.94
	jmp	.L341	#
.L340:
	.loc 1 1428 0 discriminator 2
	movl	$4, %eax	#, iftmp.94
.L341:
	.loc 1 1428 0 discriminator 3
	cmpl	%eax, %edx	# iftmp.94, D.16716
	je	.L342	#,
.L339:
	.loc 1 1429 0 is_stmt 1
	movq	-24(%rbp), %rax	# y_base, tmp133
	movzwl	(%rax), %eax	# y_base_2->code, D.16712
	cmpw	$25, %ax	#, D.16712
	jne	.L343	#,
	.loc 1 1429 0 is_stmt 0 discriminator 1
	movq	-24(%rbp), %rax	# y_base, tmp134
	movzbl	2(%rax), %eax	# y_base_2->mode, D.16714
	movzbl	%al, %edx	# D.16714, D.16716
	movl	target_flags(%rip), %eax	# target_flags, target_flags.97
	andl	$33554432, %eax	#, D.16711
	testl	%eax, %eax	# D.16711
	je	.L344	#,
	movl	$5, %eax	#, iftmp.96
	jmp	.L345	#
.L344:
	.loc 1 1429 0 discriminator 2
	movl	$4, %eax	#, iftmp.96
.L345:
	.loc 1 1429 0 discriminator 3
	cmpl	%eax, %edx	# iftmp.96, D.16716
	jne	.L343	#,
.L342:
	.loc 1 1430 0 is_stmt 1
	movl	$0, %eax	#, D.16711
	jmp	.L328	#
.L343:
	.loc 1 1432 0
	movl	flag_argument_noalias(%rip), %eax	# flag_argument_noalias, flag_argument_noalias.98
	testl	%eax, %eax	# flag_argument_noalias.98
	jne	.L346	#,
	.loc 1 1433 0
	movl	$1, %eax	#, D.16711
	jmp	.L328	#
.L346:
	.loc 1 1435 0
	movl	flag_argument_noalias(%rip), %eax	# flag_argument_noalias, flag_argument_noalias.99
	cmpl	$1, %eax	#, flag_argument_noalias.99
	jle	.L347	#,
	.loc 1 1436 0
	movl	$0, %eax	#, D.16711
	jmp	.L328	#
.L347:
	.loc 1 1439 0
	movq	-32(%rbp), %rax	# x_base, tmp135
	movzbl	2(%rax), %eax	# x_base_1->mode, D.16714
	testb	%al, %al	# D.16714
	jne	.L348	#,
	.loc 1 1439 0 is_stmt 0 discriminator 2
	movq	-24(%rbp), %rax	# y_base, tmp136
	movzbl	2(%rax), %eax	# y_base_2->mode, D.16714
	testb	%al, %al	# D.16714
	je	.L349	#,
.L348:
	.loc 1 1439 0 discriminator 1
	movl	$1, %eax	#, iftmp.100
	jmp	.L350	#
.L349:
	.loc 1 1439 0 discriminator 3
	movl	$0, %eax	#, iftmp.100
.L350:
.L328:
	.loc 1 1440 0 is_stmt 1
	leave
	.cfi_def_cfa 7, 8
	ret
	.cfi_endproc
.LFE24:
	.size	base_alias_check, .-base_alias_check
	.globl	get_addr
	.type	get_addr, @function
get_addr:
.LFB25:
	.loc 1 1449 0
	.cfi_startproc
	pushq	%rbp	#
	.cfi_def_cfa_offset 16
	.cfi_offset 6, -16
	movq	%rsp, %rbp	#,
	.cfi_def_cfa_register 6
	movq	%rdi, -24(%rbp)	# x, x
	.loc 1 1453 0
	movq	-24(%rbp), %rax	# x, tmp84
	movzwl	(%rax), %eax	# x_4(D)->code, D.16718
	cmpw	$60, %ax	#, D.16718
	je	.L352	#,
	.loc 1 1454 0
	movq	-24(%rbp), %rax	# x, D.16717
	jmp	.L353	#
.L352:
	.loc 1 1455 0
	movq	-24(%rbp), %rax	# x, tmp85
	movq	8(%rax), %rax	# x_4(D)->fld[0].rt_cselib, tmp86
	movq	%rax, -8(%rbp)	# tmp86, v
	.loc 1 1456 0
	movq	-8(%rbp), %rax	# v, tmp87
	movq	16(%rax), %rax	# v_7->locs, tmp88
	movq	%rax, -16(%rbp)	# tmp88, l
	jmp	.L354	#
.L357:
	.loc 1 1457 0
	movq	-16(%rbp), %rax	# l, tmp89
	movq	8(%rax), %rax	# l_1->loc, D.16719
	movzwl	(%rax), %eax	# _9->code, D.16718
	cmpw	$67, %ax	#, D.16718
	je	.L355	#,
	.loc 1 1457 0 is_stmt 0 discriminator 1
	movq	-16(%rbp), %rax	# l, tmp90
	movq	8(%rax), %rax	# l_1->loc, D.16719
	movzwl	(%rax), %eax	# _11->code, D.16718
	cmpw	$68, %ax	#, D.16718
	je	.L355	#,
	movq	-16(%rbp), %rax	# l, tmp91
	movq	8(%rax), %rax	# l_1->loc, D.16719
	movzwl	(%rax), %eax	# _13->code, D.16718
	cmpw	$54, %ax	#, D.16718
	je	.L355	#,
	movq	-16(%rbp), %rax	# l, tmp92
	movq	8(%rax), %rax	# l_1->loc, D.16719
	movzwl	(%rax), %eax	# _15->code, D.16718
	cmpw	$55, %ax	#, D.16718
	je	.L355	#,
	movq	-16(%rbp), %rax	# l, tmp93
	movq	8(%rax), %rax	# l_1->loc, D.16719
	movzwl	(%rax), %eax	# _17->code, D.16718
	cmpw	$58, %ax	#, D.16718
	je	.L355	#,
	movq	-16(%rbp), %rax	# l, tmp94
	movq	8(%rax), %rax	# l_1->loc, D.16719
	movzwl	(%rax), %eax	# _19->code, D.16718
	cmpw	$134, %ax	#, D.16718
	je	.L355	#,
	movq	-16(%rbp), %rax	# l, tmp95
	movq	8(%rax), %rax	# l_1->loc, D.16719
	movzwl	(%rax), %eax	# _21->code, D.16718
	cmpw	$56, %ax	#, D.16718
	je	.L355	#,
	movq	-16(%rbp), %rax	# l, tmp96
	movq	8(%rax), %rax	# l_1->loc, D.16719
	movzwl	(%rax), %eax	# _23->code, D.16718
	cmpw	$140, %ax	#, D.16718
	jne	.L356	#,
.L355:
	.loc 1 1458 0 is_stmt 1
	movq	-16(%rbp), %rax	# l, tmp97
	movq	8(%rax), %rax	# l_1->loc, D.16717
	jmp	.L353	#
.L356:
	.loc 1 1456 0
	movq	-16(%rbp), %rax	# l, tmp98
	movq	(%rax), %rax	# l_1->next, tmp99
	movq	%rax, -16(%rbp)	# tmp99, l
.L354:
	.loc 1 1456 0 is_stmt 0 discriminator 1
	cmpq	$0, -16(%rbp)	#, l
	jne	.L357	#,
	.loc 1 1459 0 is_stmt 1
	movq	-8(%rbp), %rax	# v, tmp100
	movq	16(%rax), %rax	# v_7->locs, tmp101
	movq	%rax, -16(%rbp)	# tmp101, l
	jmp	.L358	#
.L360:
	.loc 1 1460 0
	movq	-16(%rbp), %rax	# l, tmp102
	movq	8(%rax), %rax	# l_2->loc, D.16719
	movzwl	(%rax), %eax	# _28->code, D.16718
	cmpw	$61, %ax	#, D.16718
	je	.L359	#,
	.loc 1 1460 0 is_stmt 0 discriminator 1
	movq	-16(%rbp), %rax	# l, tmp103
	movq	8(%rax), %rax	# l_2->loc, D.16719
	movzwl	(%rax), %eax	# _30->code, D.16718
	cmpw	$66, %ax	#, D.16718
	je	.L359	#,
	.loc 1 1461 0 is_stmt 1
	movq	-16(%rbp), %rax	# l, tmp104
	movq	8(%rax), %rax	# l_2->loc, D.16717
	jmp	.L353	#
.L359:
	.loc 1 1459 0
	movq	-16(%rbp), %rax	# l, tmp105
	movq	(%rax), %rax	# l_2->next, tmp106
	movq	%rax, -16(%rbp)	# tmp106, l
.L358:
	.loc 1 1459 0 is_stmt 0 discriminator 1
	cmpq	$0, -16(%rbp)	#, l
	jne	.L360	#,
	.loc 1 1462 0 is_stmt 1
	movq	-8(%rbp), %rax	# v, tmp107
	movq	16(%rax), %rax	# v_7->locs, D.16720
	testq	%rax, %rax	# D.16720
	je	.L361	#,
	.loc 1 1463 0
	movq	-8(%rbp), %rax	# v, tmp108
	movq	16(%rax), %rax	# v_7->locs, D.16720
	movq	8(%rax), %rax	# _35->loc, D.16717
	jmp	.L353	#
.L361:
	.loc 1 1464 0
	movq	-24(%rbp), %rax	# x, D.16717
.L353:
	.loc 1 1465 0
	popq	%rbp	#
	.cfi_def_cfa 7, 8
	ret
	.cfi_endproc
.LFE25:
	.size	get_addr, .-get_addr
	.globl	addr_side_effect_eval
	.type	addr_side_effect_eval, @function
addr_side_effect_eval:
.LFB26:
	.loc 1 1476 0
	.cfi_startproc
	pushq	%rbp	#
	.cfi_def_cfa_offset 16
	.cfi_offset 6, -16
	movq	%rsp, %rbp	#,
	.cfi_def_cfa_register 6
	subq	$32, %rsp	#,
	movq	%rdi, -24(%rbp)	# addr, addr
	movl	%esi, -28(%rbp)	# size, size
	movl	%edx, -32(%rbp)	# n_refs, n_refs
	.loc 1 1477 0
	movl	$0, -4(%rbp)	#, offset
	.loc 1 1479 0
	movq	-24(%rbp), %rax	# addr, tmp71
	movzwl	(%rax), %eax	# addr_5(D)->code, D.16722
	movzwl	%ax, %eax	# D.16722, D.16723
	cmpl	$97, %eax	#, D.16723
	je	.L364	#,
	cmpl	$97, %eax	#, D.16723
	ja	.L365	#,
	cmpl	$96, %eax	#, D.16723
	je	.L366	#,
	jmp	.L363	#
.L365:
	cmpl	$98, %eax	#, D.16723
	je	.L367	#,
	cmpl	$99, %eax	#, D.16723
	je	.L368	#,
	jmp	.L363	#
.L364:
	.loc 1 1482 0
	movl	-32(%rbp), %eax	# n_refs, tmp72
	addl	$1, %eax	#, D.16724
	imull	-28(%rbp), %eax	# size, tmp73
	movl	%eax, -4(%rbp)	# tmp73, offset
	.loc 1 1483 0
	jmp	.L369	#
.L366:
	.loc 1 1485 0
	movl	-32(%rbp), %eax	# n_refs, tmp74
	notl	%eax	# D.16724
	imull	-28(%rbp), %eax	# size, tmp75
	movl	%eax, -4(%rbp)	# tmp75, offset
	.loc 1 1486 0
	jmp	.L369	#
.L368:
	.loc 1 1488 0
	movl	-32(%rbp), %eax	# n_refs, tmp77
	imull	-28(%rbp), %eax	# size, tmp76
	movl	%eax, -4(%rbp)	# tmp76, offset
	.loc 1 1489 0
	jmp	.L369	#
.L367:
	.loc 1 1491 0
	movl	-32(%rbp), %eax	# n_refs, tmp78
	negl	%eax	# D.16724
	imull	-28(%rbp), %eax	# size, tmp79
	movl	%eax, -4(%rbp)	# tmp79, offset
	.loc 1 1492 0
	jmp	.L369	#
.L363:
	.loc 1 1495 0
	movq	-24(%rbp), %rax	# addr, D.16721
	jmp	.L370	#
.L369:
	.loc 1 1498 0
	cmpl	$0, -4(%rbp)	#, offset
	je	.L371	#,
	.loc 1 1499 0
	movl	-4(%rbp), %eax	# offset, tmp80
	cltq
	movq	%rax, %rsi	# D.16725,
	movl	$0, %edi	#,
	call	gen_rtx_CONST_INT	#
	movq	%rax, %rcx	#, D.16726
	movq	-24(%rbp), %rax	# addr, tmp81
	movq	8(%rax), %rdx	# addr_5(D)->fld[0].rtx, D.16726
	movq	-24(%rbp), %rax	# addr, tmp82
	movzbl	2(%rax), %eax	# addr_5(D)->mode, D.16727
	movzbl	%al, %eax	# D.16727, D.16728
	movl	%eax, %esi	# D.16728,
	movl	$75, %edi	#,
	call	gen_rtx_fmt_ee	#
	movq	%rax, -24(%rbp)	# tmp83, addr
	jmp	.L372	#
.L371:
	.loc 1 1501 0
	movq	-24(%rbp), %rax	# addr, tmp84
	movq	8(%rax), %rax	# addr_5(D)->fld[0].rtx, tmp85
	movq	%rax, -24(%rbp)	# tmp85, addr
.L372:
	.loc 1 1503 0
	movq	-24(%rbp), %rax	# addr, D.16721
.L370:
	.loc 1 1504 0
	leave
	.cfi_def_cfa 7, 8
	ret
	.cfi_endproc
.LFE26:
	.size	addr_side_effect_eval, .-addr_side_effect_eval
	.type	memrefs_conflict_p, @function
memrefs_conflict_p:
.LFB27:
	.loc 1 1528 0
	.cfi_startproc
	pushq	%rbp	#
	.cfi_def_cfa_offset 16
	.cfi_offset 6, -16
	movq	%rsp, %rbp	#,
	.cfi_def_cfa_register 6
	pushq	%rbx	#
	subq	$152, %rsp	#,
	.cfi_offset 3, -24
	movl	%edi, -132(%rbp)	# xsize, xsize
	movq	%rsi, -144(%rbp)	# x, x
	movl	%edx, -136(%rbp)	# ysize, ysize
	movq	%rcx, -152(%rbp)	# y, y
	movq	%r8, -160(%rbp)	# c, c
	.loc 1 1529 0
	movq	-144(%rbp), %rax	# x, tmp199
	movzwl	(%rax), %eax	# x_17(D)->code, D.16731
	cmpw	$60, %ax	#, D.16731
	jne	.L374	#,
	.loc 1 1530 0
	movq	-144(%rbp), %rax	# x, tmp200
	movq	%rax, %rdi	# tmp200,
	call	get_addr	#
	movq	%rax, -144(%rbp)	# tmp201, x
.L374:
	.loc 1 1531 0
	movq	-152(%rbp), %rax	# y, tmp202
	movzwl	(%rax), %eax	# y_20(D)->code, D.16731
	cmpw	$60, %ax	#, D.16731
	jne	.L375	#,
	.loc 1 1532 0
	movq	-152(%rbp), %rax	# y, tmp203
	movq	%rax, %rdi	# tmp203,
	call	get_addr	#
	movq	%rax, -152(%rbp)	# tmp204, y
.L375:
	.loc 1 1533 0
	movq	-144(%rbp), %rax	# x, tmp205
	movzwl	(%rax), %eax	# x_1->code, D.16731
	cmpw	$134, %ax	#, D.16731
	jne	.L376	#,
	.loc 1 1534 0
	movq	-144(%rbp), %rax	# x, tmp206
	movq	8(%rax), %rax	# x_1->fld[0].rtx, tmp207
	movq	%rax, -144(%rbp)	# tmp207, x
	jmp	.L377	#
.L376:
	.loc 1 1535 0
	movq	-144(%rbp), %rax	# x, tmp208
	movzwl	(%rax), %eax	# x_1->code, D.16731
	cmpw	$135, %ax	#, D.16731
	jne	.L378	#,
	.loc 1 1536 0
	movq	-144(%rbp), %rax	# x, tmp209
	movq	16(%rax), %rax	# x_1->fld[1].rtx, tmp210
	movq	%rax, -144(%rbp)	# tmp210, x
	jmp	.L377	#
.L378:
	.loc 1 1538 0
	movl	-132(%rbp), %ecx	# xsize, tmp211
	movq	-144(%rbp), %rax	# x, tmp212
	movl	$0, %edx	#,
	movl	%ecx, %esi	# tmp211,
	movq	%rax, %rdi	# tmp212,
	call	addr_side_effect_eval	#
	movq	%rax, %rdi	# D.16732,
	call	canon_rtx	#
	movq	%rax, -144(%rbp)	# tmp213, x
.L377:
	.loc 1 1539 0
	movq	-152(%rbp), %rax	# y, tmp214
	movzwl	(%rax), %eax	# y_3->code, D.16731
	cmpw	$134, %ax	#, D.16731
	jne	.L379	#,
	.loc 1 1540 0
	movq	-152(%rbp), %rax	# y, tmp215
	movq	8(%rax), %rax	# y_3->fld[0].rtx, tmp216
	movq	%rax, -152(%rbp)	# tmp216, y
	jmp	.L380	#
.L379:
	.loc 1 1541 0
	movq	-152(%rbp), %rax	# y, tmp217
	movzwl	(%rax), %eax	# y_3->code, D.16731
	cmpw	$135, %ax	#, D.16731
	jne	.L381	#,
	.loc 1 1542 0
	movq	-152(%rbp), %rax	# y, tmp218
	movq	16(%rax), %rax	# y_3->fld[1].rtx, tmp219
	movq	%rax, -152(%rbp)	# tmp219, y
	jmp	.L380	#
.L381:
	.loc 1 1544 0
	movl	-136(%rbp), %ecx	# ysize, tmp220
	movq	-152(%rbp), %rax	# y, tmp221
	movl	$0, %edx	#,
	movl	%ecx, %esi	# tmp220,
	movq	%rax, %rdi	# tmp221,
	call	addr_side_effect_eval	#
	movq	%rax, %rdi	# D.16732,
	call	canon_rtx	#
	movq	%rax, -152(%rbp)	# tmp222, y
.L380:
	.loc 1 1546 0
	movq	-152(%rbp), %rdx	# y, tmp223
	movq	-144(%rbp), %rax	# x, tmp224
	movq	%rdx, %rsi	# tmp223,
	movq	%rax, %rdi	# tmp224,
	call	rtx_equal_for_memref_p	#
	testl	%eax, %eax	# D.16730
	je	.L382	#,
	.loc 1 1548 0
	cmpl	$0, -132(%rbp)	#, xsize
	jle	.L383	#,
	.loc 1 1548 0 is_stmt 0 discriminator 1
	cmpl	$0, -136(%rbp)	#, ysize
	jg	.L384	#,
.L383:
	.loc 1 1549 0 is_stmt 1
	movl	$1, %eax	#, D.16730
	jmp	.L385	#
.L384:
	.loc 1 1550 0
	cmpq	$0, -160(%rbp)	#, c
	js	.L386	#,
	.loc 1 1550 0 is_stmt 0 discriminator 1
	movl	-132(%rbp), %eax	# xsize, tmp225
	cltq
	cmpq	-160(%rbp), %rax	# c, D.16733
	jle	.L386	#,
	.loc 1 1551 0 is_stmt 1
	movl	$1, %eax	#, D.16730
	jmp	.L385	#
.L386:
	.loc 1 1552 0
	cmpq	$0, -160(%rbp)	#, c
	jns	.L387	#,
	.loc 1 1552 0 is_stmt 0 discriminator 1
	movl	-136(%rbp), %eax	# ysize, tmp226
	movslq	%eax, %rdx	# tmp226, D.16733
	movq	-160(%rbp), %rax	# c, tmp227
	addq	%rdx, %rax	# D.16733, D.16733
	testq	%rax, %rax	# D.16733
	jle	.L387	#,
	.loc 1 1553 0 is_stmt 1
	movl	$1, %eax	#, D.16730
	jmp	.L385	#
.L387:
	.loc 1 1554 0
	movl	$0, %eax	#, D.16730
	jmp	.L385	#
.L382:
	.loc 1 1560 0
	movq	-144(%rbp), %rax	# x, tmp228
	movzwl	(%rax), %eax	# x_2->code, D.16731
	cmpw	$75, %ax	#, D.16731
	jne	.L388	#,
.LBB14:
	.loc 1 1564 0
	movq	-144(%rbp), %rax	# x, tmp229
	movq	8(%rax), %rax	# x_2->fld[0].rtx, tmp230
	movq	%rax, -112(%rbp)	# tmp230, x0
	.loc 1 1565 0
	movq	-144(%rbp), %rax	# x, tmp231
	movq	16(%rax), %rax	# x_2->fld[1].rtx, tmp232
	movq	%rax, -104(%rbp)	# tmp232, x1
	.loc 1 1567 0
	movq	-152(%rbp), %rax	# y, tmp233
	movzwl	(%rax), %eax	# y_4->code, D.16731
	cmpw	$75, %ax	#, D.16731
	jne	.L389	#,
.LBB15:
	.loc 1 1571 0
	movq	-152(%rbp), %rax	# y, tmp234
	movq	8(%rax), %rax	# y_4->fld[0].rtx, tmp235
	movq	%rax, -96(%rbp)	# tmp235, y0
	.loc 1 1572 0
	movq	-152(%rbp), %rax	# y, tmp236
	movq	16(%rax), %rax	# y_4->fld[1].rtx, tmp237
	movq	%rax, -88(%rbp)	# tmp237, y1
	.loc 1 1574 0
	movq	-88(%rbp), %rdx	# y1, tmp238
	movq	-104(%rbp), %rax	# x1, tmp239
	movq	%rdx, %rsi	# tmp238,
	movq	%rax, %rdi	# tmp239,
	call	rtx_equal_for_memref_p	#
	testl	%eax, %eax	# D.16730
	je	.L390	#,
	.loc 1 1575 0
	movq	-160(%rbp), %rdi	# c, tmp240
	movq	-96(%rbp), %rcx	# y0, tmp241
	movl	-136(%rbp), %edx	# ysize, tmp242
	movq	-112(%rbp), %rsi	# x0, tmp243
	movl	-132(%rbp), %eax	# xsize, tmp244
	movq	%rdi, %r8	# tmp240,
	movl	%eax, %edi	# tmp244,
	call	memrefs_conflict_p	#
	jmp	.L385	#
.L390:
	.loc 1 1576 0
	movq	-96(%rbp), %rdx	# y0, tmp245
	movq	-112(%rbp), %rax	# x0, tmp246
	movq	%rdx, %rsi	# tmp245,
	movq	%rax, %rdi	# tmp246,
	call	rtx_equal_for_memref_p	#
	testl	%eax, %eax	# D.16730
	je	.L391	#,
	.loc 1 1577 0
	movq	-160(%rbp), %rdi	# c, tmp247
	movq	-88(%rbp), %rcx	# y1, tmp248
	movl	-136(%rbp), %edx	# ysize, tmp249
	movq	-104(%rbp), %rsi	# x1, tmp250
	movl	-132(%rbp), %eax	# xsize, tmp251
	movq	%rdi, %r8	# tmp247,
	movl	%eax, %edi	# tmp251,
	call	memrefs_conflict_p	#
	jmp	.L385	#
.L391:
	.loc 1 1578 0
	movq	-104(%rbp), %rax	# x1, tmp252
	movzwl	(%rax), %eax	# x1_48->code, D.16731
	cmpw	$54, %ax	#, D.16731
	jne	.L392	#,
	.loc 1 1580 0
	movq	-88(%rbp), %rax	# y1, tmp253
	movzwl	(%rax), %eax	# y1_51->code, D.16731
	cmpw	$54, %ax	#, D.16731
	jne	.L393	#,
	.loc 1 1582 0
	movq	-104(%rbp), %rax	# x1, tmp254
	movq	8(%rax), %rax	# x1_48->fld[0].rtwint, D.16733
	movq	-160(%rbp), %rdx	# c, tmp255
	subq	%rax, %rdx	# D.16733, D.16733
	movq	-88(%rbp), %rax	# y1, tmp256
	movq	8(%rax), %rax	# y1_51->fld[0].rtwint, D.16733
	.loc 1 1581 0
	leaq	(%rdx,%rax), %rdi	#, D.16733
	movq	-96(%rbp), %rcx	# y0, tmp257
	movl	-136(%rbp), %edx	# ysize, tmp258
	movq	-112(%rbp), %rsi	# x0, tmp259
	movl	-132(%rbp), %eax	# xsize, tmp260
	movq	%rdi, %r8	# D.16733,
	movl	%eax, %edi	# tmp260,
	call	memrefs_conflict_p	#
	jmp	.L385	#
.L393:
	.loc 1 1585 0
	movq	-104(%rbp), %rax	# x1, tmp261
	movq	8(%rax), %rax	# x1_48->fld[0].rtwint, D.16733
	.loc 1 1584 0
	movq	-160(%rbp), %rdx	# c, tmp262
	movq	%rdx, %rdi	# tmp262, D.16733
	subq	%rax, %rdi	# D.16733, D.16733
	movq	-152(%rbp), %rcx	# y, tmp263
	movl	-136(%rbp), %edx	# ysize, tmp264
	movq	-112(%rbp), %rsi	# x0, tmp265
	movl	-132(%rbp), %eax	# xsize, tmp266
	movq	%rdi, %r8	# D.16733,
	movl	%eax, %edi	# tmp266,
	call	memrefs_conflict_p	#
	jmp	.L385	#
.L392:
	.loc 1 1587 0
	movq	-88(%rbp), %rax	# y1, tmp267
	movzwl	(%rax), %eax	# y1_51->code, D.16731
	cmpw	$54, %ax	#, D.16731
	jne	.L394	#,
	.loc 1 1588 0
	movq	-88(%rbp), %rax	# y1, tmp268
	movq	8(%rax), %rdx	# y1_51->fld[0].rtwint, D.16733
	movq	-160(%rbp), %rax	# c, tmp269
	leaq	(%rdx,%rax), %rdi	#, D.16733
	movq	-96(%rbp), %rcx	# y0, tmp270
	movl	-136(%rbp), %edx	# ysize, tmp271
	movq	-144(%rbp), %rsi	# x, tmp272
	movl	-132(%rbp), %eax	# xsize, tmp273
	movq	%rdi, %r8	# D.16733,
	movl	%eax, %edi	# tmp273,
	call	memrefs_conflict_p	#
	jmp	.L385	#
.L394:
	.loc 1 1590 0
	movl	$1, %eax	#, D.16730
	jmp	.L385	#
.L389:
.LBE15:
	.loc 1 1592 0
	movq	-104(%rbp), %rax	# x1, tmp274
	movzwl	(%rax), %eax	# x1_48->code, D.16731
	cmpw	$54, %ax	#, D.16731
	jne	.L395	#,
	.loc 1 1593 0
	movq	-104(%rbp), %rax	# x1, tmp275
	movq	8(%rax), %rax	# x1_48->fld[0].rtwint, D.16733
	movq	-160(%rbp), %rdx	# c, tmp276
	movq	%rdx, %rdi	# tmp276, D.16733
	subq	%rax, %rdi	# D.16733, D.16733
	movq	-152(%rbp), %rcx	# y, tmp277
	movl	-136(%rbp), %edx	# ysize, tmp278
	movq	-112(%rbp), %rsi	# x0, tmp279
	movl	-132(%rbp), %eax	# xsize, tmp280
	movq	%rdi, %r8	# D.16733,
	movl	%eax, %edi	# tmp280,
	call	memrefs_conflict_p	#
	jmp	.L385	#
.L395:
.LBE14:
	jmp	.L396	#
.L388:
	.loc 1 1595 0
	movq	-152(%rbp), %rax	# y, tmp281
	movzwl	(%rax), %eax	# y_4->code, D.16731
	cmpw	$75, %ax	#, D.16731
	jne	.L396	#,
.LBB16:
	.loc 1 1599 0
	movq	-152(%rbp), %rax	# y, tmp282
	movq	8(%rax), %rax	# y_4->fld[0].rtx, tmp283
	movq	%rax, -80(%rbp)	# tmp283, y0
	.loc 1 1600 0
	movq	-152(%rbp), %rax	# y, tmp284
	movq	16(%rax), %rax	# y_4->fld[1].rtx, tmp285
	movq	%rax, -72(%rbp)	# tmp285, y1
	.loc 1 1602 0
	movq	-72(%rbp), %rax	# y1, tmp286
	movzwl	(%rax), %eax	# y1_77->code, D.16731
	cmpw	$54, %ax	#, D.16731
	jne	.L397	#,
	.loc 1 1603 0
	movq	-72(%rbp), %rax	# y1, tmp287
	movq	8(%rax), %rdx	# y1_77->fld[0].rtwint, D.16733
	movq	-160(%rbp), %rax	# c, tmp288
	leaq	(%rdx,%rax), %rdi	#, D.16733
	movq	-80(%rbp), %rcx	# y0, tmp289
	movl	-136(%rbp), %edx	# ysize, tmp290
	movq	-144(%rbp), %rsi	# x, tmp291
	movl	-132(%rbp), %eax	# xsize, tmp292
	movq	%rdi, %r8	# D.16733,
	movl	%eax, %edi	# tmp292,
	call	memrefs_conflict_p	#
	jmp	.L385	#
.L397:
	.loc 1 1605 0
	movl	$1, %eax	#, D.16730
	jmp	.L385	#
.L396:
.LBE16:
	.loc 1 1608 0
	movq	-144(%rbp), %rax	# x, tmp293
	movzwl	(%rax), %edx	# x_2->code, D.16731
	movq	-152(%rbp), %rax	# y, tmp294
	movzwl	(%rax), %eax	# y_4->code, D.16731
	cmpw	%ax, %dx	# D.16731, D.16731
	jne	.L398	#,
	.loc 1 1609 0
	movq	-144(%rbp), %rax	# x, tmp295
	movzwl	(%rax), %eax	# x_2->code, D.16731
	movzwl	%ax, %eax	# D.16731, D.16734
	cmpl	$61, %eax	#, D.16734
	je	.L400	#,
	cmpl	$78, %eax	#, D.16734
	je	.L401	#,
	.loc 1 1656 0
	jmp	.L398	#
.L401:
.LBB17:
	.loc 1 1617 0
	movq	-144(%rbp), %rax	# x, tmp296
	movq	16(%rax), %rax	# x_2->fld[1].rtx, D.16732
	movq	%rax, %rdi	# D.16732,
	call	canon_rtx	#
	movq	%rax, -64(%rbp)	# tmp297, x1
	.loc 1 1618 0
	movq	-152(%rbp), %rax	# y, tmp298
	movq	16(%rax), %rax	# y_4->fld[1].rtx, D.16732
	movq	%rax, %rdi	# D.16732,
	call	canon_rtx	#
	movq	%rax, -56(%rbp)	# tmp299, y1
	.loc 1 1619 0
	movq	-56(%rbp), %rdx	# y1, tmp300
	movq	-64(%rbp), %rax	# x1, tmp301
	movq	%rdx, %rsi	# tmp300,
	movq	%rax, %rdi	# tmp301,
	call	rtx_equal_for_memref_p	#
	testl	%eax, %eax	# D.16730
	jne	.L402	#,
	.loc 1 1620 0
	movl	$1, %eax	#, D.16730
	jmp	.L385	#
.L402:
	.loc 1 1621 0
	movq	-144(%rbp), %rax	# x, tmp302
	movq	8(%rax), %rax	# x_2->fld[0].rtx, D.16732
	movq	%rax, %rdi	# D.16732,
	call	canon_rtx	#
	movq	%rax, -48(%rbp)	# tmp303, x0
	.loc 1 1622 0
	movq	-152(%rbp), %rax	# y, tmp304
	movq	8(%rax), %rax	# y_4->fld[0].rtx, D.16732
	movq	%rax, %rdi	# D.16732,
	call	canon_rtx	#
	movq	%rax, -40(%rbp)	# tmp305, y0
	.loc 1 1623 0
	movq	-40(%rbp), %rdx	# y0, tmp306
	movq	-48(%rbp), %rax	# x0, tmp307
	movq	%rdx, %rsi	# tmp306,
	movq	%rax, %rdi	# tmp307,
	call	rtx_equal_for_memref_p	#
	testl	%eax, %eax	# D.16730
	je	.L403	#,
	.loc 1 1625 0
	cmpl	$0, -132(%rbp)	#, xsize
	je	.L404	#,
	.loc 1 1624 0
	cmpl	$0, -136(%rbp)	#, ysize
	je	.L404	#,
	.loc 1 1625 0
	cmpq	$0, -160(%rbp)	#, c
	js	.L405	#,
	.loc 1 1625 0 is_stmt 0 discriminator 1
	movl	-132(%rbp), %eax	# xsize, tmp308
	cltq
	cmpq	-160(%rbp), %rax	# c, D.16733
	jg	.L404	#,
.L405:
	.loc 1 1625 0 discriminator 2
	cmpq	$0, -160(%rbp)	#, c
	jns	.L406	#,
	movl	-136(%rbp), %eax	# ysize, tmp309
	movslq	%eax, %rdx	# tmp309, D.16733
	movq	-160(%rbp), %rax	# c, tmp310
	addq	%rdx, %rax	# D.16733, D.16733
	testq	%rax, %rax	# D.16733
	jle	.L406	#,
.L404:
	.loc 1 1625 0 discriminator 1
	movl	$1, %eax	#, iftmp.101
	jmp	.L407	#
.L406:
	.loc 1 1625 0 discriminator 3
	movl	$0, %eax	#, iftmp.101
.L407:
	.loc 1 1624 0 is_stmt 1
	jmp	.L385	#
.L403:
	.loc 1 1628 0
	movq	-64(%rbp), %rax	# x1, tmp311
	movzwl	(%rax), %eax	# x1_88->code, D.16731
	cmpw	$54, %ax	#, D.16731
	je	.L408	#,
	.loc 1 1629 0
	movl	$1, %eax	#, D.16730
	jmp	.L385	#
.L408:
	.loc 1 1630 0
	movl	-132(%rbp), %eax	# xsize, tmp312
	cltq
	movq	-64(%rbp), %rdx	# x1, tmp313
	movq	8(%rdx), %rbx	# x1_88->fld[0].rtwint, D.16733
	cqto
	idivq	%rbx	# D.16733
	movl	%eax, -132(%rbp)	# D.16733, xsize
	.loc 1 1631 0
	movl	-136(%rbp), %eax	# ysize, tmp316
	cltq
	movq	-64(%rbp), %rdx	# x1, tmp317
	movq	8(%rdx), %rbx	# x1_88->fld[0].rtwint, D.16733
	cqto
	idivq	%rbx	# D.16733
	movl	%eax, -136(%rbp)	# D.16733, ysize
	.loc 1 1632 0
	movq	-64(%rbp), %rax	# x1, tmp320
	movq	8(%rax), %rbx	# x1_88->fld[0].rtwint, D.16733
	movq	-160(%rbp), %rax	# c, tmp323
	cqto
	idivq	%rbx	# D.16733
	movq	%rax, -160(%rbp)	# tmp321, c
	.loc 1 1633 0
	movq	-160(%rbp), %rdi	# c, tmp324
	movq	-40(%rbp), %rcx	# y0, tmp325
	movl	-136(%rbp), %edx	# ysize, tmp326
	movq	-48(%rbp), %rsi	# x0, tmp327
	movl	-132(%rbp), %eax	# xsize, tmp328
	movq	%rdi, %r8	# tmp324,
	movl	%eax, %edi	# tmp328,
	call	memrefs_conflict_p	#
	jmp	.L385	#
.L400:
.LBE17:
	.loc 1 1638 0
	movq	alias_invariant(%rip), %rax	# alias_invariant, alias_invariant.102
	testq	%rax, %rax	# alias_invariant.102
	je	.L409	#,
.LBB18:
	.loc 1 1640 0
	movq	-144(%rbp), %rax	# x, tmp329
	movl	8(%rax), %eax	# x_2->fld[0].rtuint, tmp330
	movl	%eax, -120(%rbp)	# tmp330, r_x
	movq	-152(%rbp), %rax	# y, tmp331
	movl	8(%rax), %eax	# y_4->fld[0].rtuint, tmp332
	movl	%eax, -116(%rbp)	# tmp332, r_y
	.loc 1 1643 0
	movl	reg_base_value_size(%rip), %eax	# reg_base_value_size, reg_base_value_size.104
	cmpl	%eax, -120(%rbp)	# reg_base_value_size.104, r_x
	jae	.L410	#,
	.loc 1 1643 0 is_stmt 0 discriminator 1
	movq	alias_invariant(%rip), %rax	# alias_invariant, alias_invariant.105
	movl	-120(%rbp), %edx	# r_x, D.16735
	salq	$3, %rdx	#, D.16735
	addq	%rdx, %rax	# D.16735, D.16736
	movq	(%rax), %rax	# *_124, iftmp.103
	jmp	.L411	#
.L410:
	.loc 1 1643 0 discriminator 2
	movl	$0, %eax	#, iftmp.103
.L411:
	.loc 1 1643 0 discriminator 3
	movq	%rax, -32(%rbp)	# iftmp.103, i_x
	.loc 1 1644 0 is_stmt 1 discriminator 3
	movl	reg_base_value_size(%rip), %eax	# reg_base_value_size, reg_base_value_size.107
	cmpl	%eax, -116(%rbp)	# reg_base_value_size.107, r_y
	jae	.L412	#,
	.loc 1 1644 0 is_stmt 0 discriminator 1
	movq	alias_invariant(%rip), %rax	# alias_invariant, alias_invariant.108
	movl	-116(%rbp), %edx	# r_y, D.16735
	salq	$3, %rdx	#, D.16735
	addq	%rdx, %rax	# D.16735, D.16736
	movq	(%rax), %rax	# *_132, iftmp.106
	jmp	.L413	#
.L412:
	.loc 1 1644 0 discriminator 2
	movl	$0, %eax	#, iftmp.106
.L413:
	.loc 1 1644 0 discriminator 3
	movq	%rax, -24(%rbp)	# iftmp.106, i_y
	.loc 1 1646 0 is_stmt 1 discriminator 3
	cmpq	$0, -32(%rbp)	#, i_x
	jne	.L414	#,
	.loc 1 1646 0 is_stmt 0 discriminator 1
	cmpq	$0, -24(%rbp)	#, i_y
	jne	.L414	#,
	.loc 1 1647 0 is_stmt 1
	jmp	.L398	#
.L414:
	.loc 1 1649 0
	cmpq	$0, -24(%rbp)	#, i_y
	je	.L415	#,
	.loc 1 1649 0 is_stmt 0 discriminator 1
	movq	-24(%rbp), %rdx	# i_y, iftmp.109
	jmp	.L416	#
.L415:
	.loc 1 1649 0 discriminator 2
	movq	-152(%rbp), %rdx	# y, iftmp.109
.L416:
	.loc 1 1649 0 discriminator 3
	cmpq	$0, -32(%rbp)	#, i_x
	je	.L417	#,
	.loc 1 1649 0 discriminator 4
	movq	-32(%rbp), %rax	# i_x, iftmp.110
	jmp	.L418	#
.L417:
	.loc 1 1649 0 discriminator 5
	movq	-144(%rbp), %rax	# x, iftmp.110
.L418:
	.loc 1 1649 0 discriminator 6
	movq	-160(%rbp), %rcx	# c, tmp333
	movl	-136(%rbp), %esi	# ysize, tmp334
	movl	-132(%rbp), %edi	# xsize, tmp335
	movq	%rcx, %r8	# tmp333,
	movq	%rdx, %rcx	# iftmp.109,
	movl	%esi, %edx	# tmp334,
	movq	%rax, %rsi	# iftmp.110,
	call	memrefs_conflict_p	#
	testl	%eax, %eax	# D.16730
	jne	.L409	#,
	.loc 1 1651 0 is_stmt 1
	movl	$0, %eax	#, D.16730
	jmp	.L385	#
.L409:
.LBE18:
	.loc 1 1653 0
	nop
.L398:
	.loc 1 1663 0
	movq	-144(%rbp), %rax	# x, tmp336
	movzwl	(%rax), %eax	# x_2->code, D.16731
	cmpw	$83, %ax	#, D.16731
	jne	.L419	#,
	.loc 1 1663 0 is_stmt 0 discriminator 1
	movq	-144(%rbp), %rax	# x, tmp337
	movq	16(%rax), %rax	# x_2->fld[1].rtx, D.16732
	movzwl	(%rax), %eax	# _143->code, D.16731
	cmpw	$54, %ax	#, D.16731
	jne	.L419	#,
	.loc 1 1665 0 is_stmt 1
	movq	-152(%rbp), %rax	# y, tmp338
	movzwl	(%rax), %eax	# y_4->code, D.16731
	cmpw	$83, %ax	#, D.16731
	je	.L420	#,
	.loc 1 1665 0 is_stmt 0 discriminator 1
	movl	-136(%rbp), %eax	# ysize, tmp339
	movslq	%eax, %rdx	# tmp339, D.16733
	movq	-144(%rbp), %rax	# x, tmp340
	movq	16(%rax), %rax	# x_2->fld[1].rtx, D.16732
	movq	8(%rax), %rax	# _147->fld[0].rtwint, D.16733
	negq	%rax	# D.16733
	cmpq	%rax, %rdx	# D.16733, D.16733
	jge	.L421	#,
.L420:
	.loc 1 1666 0 is_stmt 1
	movl	$-1, -132(%rbp)	#, xsize
.L421:
	.loc 1 1667 0
	movq	-144(%rbp), %rax	# x, tmp341
	movq	8(%rax), %rsi	# x_2->fld[0].rtx, D.16732
	movq	-160(%rbp), %rdi	# c, tmp342
	movq	-152(%rbp), %rcx	# y, tmp343
	movl	-136(%rbp), %edx	# ysize, tmp344
	movl	-132(%rbp), %eax	# xsize, tmp345
	movq	%rdi, %r8	# tmp342,
	movl	%eax, %edi	# tmp345,
	call	memrefs_conflict_p	#
	jmp	.L385	#
.L419:
	.loc 1 1669 0
	movq	-152(%rbp), %rax	# y, tmp346
	movzwl	(%rax), %eax	# y_4->code, D.16731
	cmpw	$83, %ax	#, D.16731
	jne	.L422	#,
	.loc 1 1669 0 is_stmt 0 discriminator 1
	movq	-152(%rbp), %rax	# y, tmp347
	movq	16(%rax), %rax	# y_4->fld[1].rtx, D.16732
	movzwl	(%rax), %eax	# _154->code, D.16731
	cmpw	$54, %ax	#, D.16731
	jne	.L422	#,
	.loc 1 1675 0 is_stmt 1
	movq	-144(%rbp), %rax	# x, tmp348
	movzwl	(%rax), %eax	# x_2->code, D.16731
	cmpw	$83, %ax	#, D.16731
	je	.L423	#,
	.loc 1 1675 0 is_stmt 0 discriminator 1
	movl	-132(%rbp), %eax	# xsize, tmp349
	movslq	%eax, %rdx	# tmp349, D.16733
	movq	-152(%rbp), %rax	# y, tmp350
	movq	16(%rax), %rax	# y_4->fld[1].rtx, D.16732
	movq	8(%rax), %rax	# _158->fld[0].rtwint, D.16733
	negq	%rax	# D.16733
	cmpq	%rax, %rdx	# D.16733, D.16733
	jge	.L424	#,
.L423:
	.loc 1 1676 0 is_stmt 1
	movl	$-1, -136(%rbp)	#, ysize
.L424:
	.loc 1 1677 0
	movq	-152(%rbp), %rax	# y, tmp351
	movq	8(%rax), %rcx	# y_4->fld[0].rtx, D.16732
	movq	-160(%rbp), %rdi	# c, tmp352
	movl	-136(%rbp), %edx	# ysize, tmp353
	movq	-144(%rbp), %rsi	# x, tmp354
	movl	-132(%rbp), %eax	# xsize, tmp355
	movq	%rdi, %r8	# tmp352,
	movl	%eax, %edi	# tmp355,
	call	memrefs_conflict_p	#
	jmp	.L385	#
.L422:
	.loc 1 1680 0
	movq	-144(%rbp), %rax	# x, tmp356
	movzwl	(%rax), %eax	# x_2->code, D.16731
	cmpw	$70, %ax	#, D.16731
	jne	.L425	#,
	.loc 1 1682 0
	movq	global_rtl+24(%rip), %rax	# global_rtl, D.16732
	cmpq	-152(%rbp), %rax	# y, D.16732
	je	.L426	#,
	.loc 1 1683 0
	movq	-152(%rbp), %rax	# y, tmp357
	movzwl	(%rax), %eax	# y_4->code, D.16731
	cmpw	$70, %ax	#, D.16731
	jne	.L425	#,
.L426:
	.loc 1 1684 0
	cmpl	$0, -132(%rbp)	#, xsize
	jle	.L427	#,
	.loc 1 1684 0 is_stmt 0 discriminator 2
	cmpl	$0, -136(%rbp)	#, ysize
	jg	.L428	#,
.L427:
	.loc 1 1684 0 discriminator 1
	movl	$1, %eax	#, iftmp.111
	jmp	.L429	#
.L428:
	.loc 1 1684 0 discriminator 3
	movl	$0, %eax	#, iftmp.111
.L429:
	.loc 1 1684 0 discriminator 4
	jmp	.L385	#
.L425:
	.loc 1 1686 0 is_stmt 1
	movq	-152(%rbp), %rax	# y, tmp358
	movzwl	(%rax), %eax	# y_4->code, D.16731
	cmpw	$70, %ax	#, D.16731
	jne	.L430	#,
	.loc 1 1688 0
	movq	global_rtl+24(%rip), %rax	# global_rtl, D.16732
	cmpq	-144(%rbp), %rax	# x, D.16732
	jne	.L430	#,
	.loc 1 1689 0
	cmpl	$0, -132(%rbp)	#, xsize
	jle	.L431	#,
	.loc 1 1689 0 is_stmt 0 discriminator 2
	cmpl	$0, -136(%rbp)	#, ysize
	jg	.L432	#,
.L431:
	.loc 1 1689 0 discriminator 1
	movl	$1, %eax	#, iftmp.112
	jmp	.L433	#
.L432:
	.loc 1 1689 0 discriminator 3
	movl	$0, %eax	#, iftmp.112
.L433:
	.loc 1 1689 0 discriminator 4
	jmp	.L385	#
.L430:
	.loc 1 1692 0 is_stmt 1
	movq	-144(%rbp), %rax	# x, tmp359
	movzwl	(%rax), %eax	# x_2->code, D.16731
	cmpw	$67, %ax	#, D.16731
	je	.L434	#,
	.loc 1 1692 0 is_stmt 0 discriminator 1
	movq	-144(%rbp), %rax	# x, tmp360
	movzwl	(%rax), %eax	# x_2->code, D.16731
	cmpw	$68, %ax	#, D.16731
	je	.L434	#,
	movq	-144(%rbp), %rax	# x, tmp361
	movzwl	(%rax), %eax	# x_2->code, D.16731
	cmpw	$54, %ax	#, D.16731
	je	.L434	#,
	movq	-144(%rbp), %rax	# x, tmp362
	movzwl	(%rax), %eax	# x_2->code, D.16731
	cmpw	$55, %ax	#, D.16731
	je	.L434	#,
	movq	-144(%rbp), %rax	# x, tmp363
	movzwl	(%rax), %eax	# x_2->code, D.16731
	cmpw	$58, %ax	#, D.16731
	je	.L434	#,
	movq	-144(%rbp), %rax	# x, tmp364
	movzwl	(%rax), %eax	# x_2->code, D.16731
	cmpw	$134, %ax	#, D.16731
	je	.L434	#,
	movq	-144(%rbp), %rax	# x, tmp365
	movzwl	(%rax), %eax	# x_2->code, D.16731
	cmpw	$56, %ax	#, D.16731
	je	.L434	#,
	movq	-144(%rbp), %rax	# x, tmp366
	movzwl	(%rax), %eax	# x_2->code, D.16731
	cmpw	$140, %ax	#, D.16731
	jne	.L435	#,
.L434:
	.loc 1 1694 0 is_stmt 1
	movq	-144(%rbp), %rax	# x, tmp367
	movzwl	(%rax), %eax	# x_2->code, D.16731
	cmpw	$54, %ax	#, D.16731
	jne	.L436	#,
	.loc 1 1694 0 is_stmt 0 discriminator 1
	movq	-152(%rbp), %rax	# y, tmp368
	movzwl	(%rax), %eax	# y_4->code, D.16731
	cmpw	$54, %ax	#, D.16731
	jne	.L436	#,
	.loc 1 1696 0 is_stmt 1
	movq	-152(%rbp), %rax	# y, tmp369
	movq	8(%rax), %rdx	# y_4->fld[0].rtwint, D.16733
	movq	-144(%rbp), %rax	# x, tmp370
	movq	8(%rax), %rax	# x_2->fld[0].rtwint, D.16733
	subq	%rax, %rdx	# D.16733, D.16733
	movq	%rdx, %rax	# D.16733, D.16733
	addq	%rax, -160(%rbp)	# D.16733, c
	.loc 1 1698 0
	cmpl	$0, -132(%rbp)	#, xsize
	jle	.L437	#,
	.loc 1 1697 0
	cmpl	$0, -136(%rbp)	#, ysize
	jle	.L437	#,
	.loc 1 1698 0
	cmpq	$0, -160(%rbp)	#, c
	js	.L438	#,
	.loc 1 1698 0 is_stmt 0 discriminator 1
	movl	-132(%rbp), %eax	# xsize, tmp371
	cltq
	cmpq	-160(%rbp), %rax	# c, D.16733
	jg	.L437	#,
.L438:
	.loc 1 1698 0 discriminator 2
	cmpq	$0, -160(%rbp)	#, c
	jns	.L439	#,
	movl	-136(%rbp), %eax	# ysize, tmp372
	movslq	%eax, %rdx	# tmp372, D.16733
	movq	-160(%rbp), %rax	# c, tmp373
	addq	%rdx, %rax	# D.16733, D.16733
	testq	%rax, %rax	# D.16733
	jle	.L439	#,
.L437:
	.loc 1 1698 0 discriminator 1
	movl	$1, %eax	#, iftmp.113
	jmp	.L440	#
.L439:
	.loc 1 1698 0 discriminator 3
	movl	$0, %eax	#, iftmp.113
.L440:
	.loc 1 1697 0 is_stmt 1
	jmp	.L385	#
.L436:
	.loc 1 1701 0
	movq	-144(%rbp), %rax	# x, tmp374
	movzwl	(%rax), %eax	# x_2->code, D.16731
	cmpw	$58, %ax	#, D.16731
	jne	.L441	#,
	.loc 1 1703 0
	movq	-152(%rbp), %rax	# y, tmp375
	movzwl	(%rax), %eax	# y_4->code, D.16731
	cmpw	$58, %ax	#, D.16731
	jne	.L442	#,
	.loc 1 1704 0
	movq	-152(%rbp), %rax	# y, tmp376
	movq	8(%rax), %rax	# y_4->fld[0].rtx, D.16732
	movq	%rax, %rdi	# D.16732,
	call	canon_rtx	#
	movq	%rax, %rbx	#, D.16732
	movq	-144(%rbp), %rax	# x, tmp377
	movq	8(%rax), %rax	# x_2->fld[0].rtx, D.16732
	movq	%rax, %rdi	# D.16732,
	call	canon_rtx	#
	movq	%rax, %rsi	#, D.16732
	movq	-160(%rbp), %rcx	# c, tmp378
	movl	-136(%rbp), %edx	# ysize, tmp379
	movl	-132(%rbp), %eax	# xsize, tmp380
	movq	%rcx, %r8	# tmp378,
	movq	%rbx, %rcx	# D.16732,
	movl	%eax, %edi	# tmp380,
	call	memrefs_conflict_p	#
	jmp	.L385	#
.L442:
	.loc 1 1707 0
	movq	-144(%rbp), %rax	# x, tmp381
	movq	8(%rax), %rax	# x_2->fld[0].rtx, D.16732
	movq	%rax, %rdi	# D.16732,
	call	canon_rtx	#
	movq	%rax, %rsi	#, D.16732
	movq	-160(%rbp), %rdi	# c, tmp382
	movq	-152(%rbp), %rcx	# y, tmp383
	movl	-136(%rbp), %edx	# ysize, tmp384
	movl	-132(%rbp), %eax	# xsize, tmp385
	movq	%rdi, %r8	# tmp382,
	movl	%eax, %edi	# tmp385,
	call	memrefs_conflict_p	#
	jmp	.L385	#
.L441:
	.loc 1 1710 0
	movq	-152(%rbp), %rax	# y, tmp386
	movzwl	(%rax), %eax	# y_4->code, D.16731
	cmpw	$58, %ax	#, D.16731
	jne	.L443	#,
	.loc 1 1711 0
	movq	-152(%rbp), %rax	# y, tmp387
	movq	8(%rax), %rax	# y_4->fld[0].rtx, D.16732
	movq	%rax, %rdi	# D.16732,
	call	canon_rtx	#
	movq	%rax, %rcx	#, D.16732
	movq	-160(%rbp), %rdi	# c, tmp388
	movl	-136(%rbp), %edx	# ysize, tmp389
	movq	-144(%rbp), %rsi	# x, tmp390
	movl	-132(%rbp), %eax	# xsize, tmp391
	movq	%rdi, %r8	# tmp388,
	movl	%eax, %edi	# tmp391,
	call	memrefs_conflict_p	#
	jmp	.L385	#
.L443:
	.loc 1 1714 0
	movq	-152(%rbp), %rax	# y, tmp392
	movzwl	(%rax), %eax	# y_4->code, D.16731
	cmpw	$67, %ax	#, D.16731
	je	.L444	#,
	.loc 1 1714 0 is_stmt 0 discriminator 1
	movq	-152(%rbp), %rax	# y, tmp393
	movzwl	(%rax), %eax	# y_4->code, D.16731
	cmpw	$68, %ax	#, D.16731
	je	.L444	#,
	movq	-152(%rbp), %rax	# y, tmp394
	movzwl	(%rax), %eax	# y_4->code, D.16731
	cmpw	$54, %ax	#, D.16731
	je	.L444	#,
	movq	-152(%rbp), %rax	# y, tmp395
	movzwl	(%rax), %eax	# y_4->code, D.16731
	cmpw	$55, %ax	#, D.16731
	je	.L444	#,
	movq	-152(%rbp), %rax	# y, tmp396
	movzwl	(%rax), %eax	# y_4->code, D.16731
	cmpw	$58, %ax	#, D.16731
	je	.L444	#,
	movq	-152(%rbp), %rax	# y, tmp397
	movzwl	(%rax), %eax	# y_4->code, D.16731
	cmpw	$134, %ax	#, D.16731
	je	.L444	#,
	movq	-152(%rbp), %rax	# y, tmp398
	movzwl	(%rax), %eax	# y_4->code, D.16731
	cmpw	$56, %ax	#, D.16731
	je	.L444	#,
	movq	-152(%rbp), %rax	# y, tmp399
	movzwl	(%rax), %eax	# y_4->code, D.16731
	cmpw	$140, %ax	#, D.16731
	jne	.L445	#,
.L444:
	.loc 1 1716 0 is_stmt 1
	cmpl	$0, -132(%rbp)	#, xsize
	jle	.L446	#,
	.loc 1 1715 0
	cmpl	$0, -136(%rbp)	#, ysize
	jle	.L446	#,
	.loc 1 1716 0
	movq	-152(%rbp), %rdx	# y, tmp400
	movq	-144(%rbp), %rax	# x, tmp401
	movq	%rdx, %rsi	# tmp400,
	movq	%rax, %rdi	# tmp401,
	call	rtx_equal_for_memref_p	#
	testl	%eax, %eax	# D.16730
	je	.L447	#,
	.loc 1 1717 0
	cmpq	$0, -160(%rbp)	#, c
	js	.L448	#,
	.loc 1 1717 0 is_stmt 0 discriminator 1
	movl	-132(%rbp), %eax	# xsize, tmp402
	cltq
	cmpq	-160(%rbp), %rax	# c, D.16733
	jg	.L446	#,
.L448:
	.loc 1 1717 0 discriminator 2
	cmpq	$0, -160(%rbp)	#, c
	jns	.L447	#,
	.loc 1 1717 0 discriminator 1
	movl	-136(%rbp), %eax	# ysize, tmp403
	movslq	%eax, %rdx	# tmp403, D.16733
	movq	-160(%rbp), %rax	# c, tmp404
	addq	%rdx, %rax	# D.16733, D.16733
	testq	%rax, %rax	# D.16733
	jle	.L447	#,
.L446:
	.loc 1 1716 0 is_stmt 1 discriminator 1
	movl	$1, %eax	#, iftmp.114
	jmp	.L449	#
.L447:
	.loc 1 1716 0 is_stmt 0 discriminator 2
	movl	$0, %eax	#, iftmp.114
.L449:
	.loc 1 1715 0 is_stmt 1
	jmp	.L385	#
.L445:
	.loc 1 1719 0
	movl	$1, %eax	#, D.16730
	jmp	.L385	#
.L435:
	.loc 1 1721 0
	movl	$1, %eax	#, D.16730
.L385:
	.loc 1 1722 0
	addq	$152, %rsp	#,
	popq	%rbx	#
	popq	%rbp	#
	.cfi_def_cfa 7, 8
	ret
	.cfi_endproc
.LFE27:
	.size	memrefs_conflict_p, .-memrefs_conflict_p
	.globl	read_dependence
	.type	read_dependence, @function
read_dependence:
.LFB28:
	.loc 1 1750 0
	.cfi_startproc
	pushq	%rbp	#
	.cfi_def_cfa_offset 16
	.cfi_offset 6, -16
	movq	%rsp, %rbp	#,
	.cfi_def_cfa_register 6
	movq	%rdi, -8(%rbp)	# mem, mem
	movq	%rsi, -16(%rbp)	# x, x
	.loc 1 1751 0
	movq	-16(%rbp), %rax	# x, tmp66
	movzbl	3(%rax), %eax	# *x_2(D), D.16738
	andl	$8, %eax	#, D.16738
	testb	%al, %al	# D.16738
	je	.L451	#,
	.loc 1 1751 0 is_stmt 0 discriminator 1
	movq	-8(%rbp), %rax	# mem, tmp67
	movzbl	3(%rax), %eax	# *mem_5(D), D.16738
	andl	$8, %eax	#, D.16738
	testb	%al, %al	# D.16738
	je	.L451	#,
	.loc 1 1751 0 discriminator 3
	movl	$1, %eax	#, iftmp.115
	jmp	.L452	#
.L451:
	.loc 1 1751 0 discriminator 2
	movl	$0, %eax	#, iftmp.115
.L452:
	.loc 1 1752 0 is_stmt 1 discriminator 4
	popq	%rbp	#
	.cfi_def_cfa 7, 8
	ret
	.cfi_endproc
.LFE28:
	.size	read_dependence, .-read_dependence
	.type	fixed_scalar_and_varying_struct_p, @function
fixed_scalar_and_varying_struct_p:
.LFB29:
	.loc 1 1767 0
	.cfi_startproc
	pushq	%rbp	#
	.cfi_def_cfa_offset 16
	.cfi_offset 6, -16
	movq	%rsp, %rbp	#,
	.cfi_def_cfa_register 6
	subq	$48, %rsp	#,
	movq	%rdi, -8(%rbp)	# mem1, mem1
	movq	%rsi, -16(%rbp)	# mem2, mem2
	movq	%rdx, -24(%rbp)	# mem1_addr, mem1_addr
	movq	%rcx, -32(%rbp)	# mem2_addr, mem2_addr
	movq	%r8, -40(%rbp)	# varies_p, varies_p
	.loc 1 1768 0
	movl	flag_strict_aliasing(%rip), %eax	# flag_strict_aliasing, flag_strict_aliasing.116
	testl	%eax, %eax	# flag_strict_aliasing.116
	jne	.L455	#,
	.loc 1 1769 0
	movl	$0, %eax	#, D.16740
	jmp	.L456	#
.L455:
	.loc 1 1771 0
	movq	-8(%rbp), %rax	# mem1, tmp74
	movzbl	3(%rax), %eax	# *mem1_4(D), D.16741
	andl	$-128, %eax	#, D.16741
	testb	%al, %al	# D.16741
	je	.L457	#,
	.loc 1 1771 0 is_stmt 0 discriminator 1
	movq	-16(%rbp), %rax	# mem2, tmp75
	movzbl	3(%rax), %eax	# *mem2_7(D), D.16741
	andl	$16, %eax	#, D.16741
	testb	%al, %al	# D.16741
	je	.L457	#,
	.loc 1 1772 0 is_stmt 1
	movq	-24(%rbp), %rdx	# mem1_addr, tmp76
	movq	-40(%rbp), %rax	# varies_p, tmp77
	movl	$1, %esi	#,
	movq	%rdx, %rdi	# tmp76,
	call	*%rax	# tmp77
	testl	%eax, %eax	# D.16742
	jne	.L457	#,
	.loc 1 1772 0 is_stmt 0 discriminator 1
	movq	-32(%rbp), %rdx	# mem2_addr, tmp78
	movq	-40(%rbp), %rax	# varies_p, tmp79
	movl	$1, %esi	#,
	movq	%rdx, %rdi	# tmp78,
	call	*%rax	# tmp79
	testl	%eax, %eax	# D.16742
	je	.L457	#,
	.loc 1 1775 0 is_stmt 1
	movq	-8(%rbp), %rax	# mem1, D.16740
	jmp	.L456	#
.L457:
	.loc 1 1777 0
	movq	-8(%rbp), %rax	# mem1, tmp80
	movzbl	3(%rax), %eax	# *mem1_4(D), D.16741
	andl	$16, %eax	#, D.16741
	testb	%al, %al	# D.16741
	je	.L458	#,
	.loc 1 1777 0 is_stmt 0 discriminator 1
	movq	-16(%rbp), %rax	# mem2, tmp81
	movzbl	3(%rax), %eax	# *mem2_7(D), D.16741
	andl	$-128, %eax	#, D.16741
	testb	%al, %al	# D.16741
	je	.L458	#,
	.loc 1 1778 0 is_stmt 1
	movq	-24(%rbp), %rdx	# mem1_addr, tmp82
	movq	-40(%rbp), %rax	# varies_p, tmp83
	movl	$1, %esi	#,
	movq	%rdx, %rdi	# tmp82,
	call	*%rax	# tmp83
	testl	%eax, %eax	# D.16742
	je	.L458	#,
	.loc 1 1778 0 is_stmt 0 discriminator 1
	movq	-32(%rbp), %rdx	# mem2_addr, tmp84
	movq	-40(%rbp), %rax	# varies_p, tmp85
	movl	$1, %esi	#,
	movq	%rdx, %rdi	# tmp84,
	call	*%rax	# tmp85
	testl	%eax, %eax	# D.16742
	jne	.L458	#,
	.loc 1 1781 0 is_stmt 1
	movq	-16(%rbp), %rax	# mem2, D.16740
	jmp	.L456	#
.L458:
	.loc 1 1783 0
	movl	$0, %eax	#, D.16740
.L456:
	.loc 1 1784 0
	leave
	.cfi_def_cfa 7, 8
	ret
	.cfi_endproc
.LFE29:
	.size	fixed_scalar_and_varying_struct_p, .-fixed_scalar_and_varying_struct_p
	.type	aliases_everything_p, @function
aliases_everything_p:
.LFB30:
	.loc 1 1792 0
	.cfi_startproc
	pushq	%rbp	#
	.cfi_def_cfa_offset 16
	.cfi_offset 6, -16
	movq	%rsp, %rbp	#,
	.cfi_def_cfa_register 6
	movq	%rdi, -8(%rbp)	# mem, mem
	.loc 1 1793 0
	movq	-8(%rbp), %rax	# mem, tmp63
	movq	8(%rax), %rax	# mem_2(D)->fld[0].rtx, D.16744
	movzwl	(%rax), %eax	# _3->code, D.16745
	cmpw	$83, %ax	#, D.16745
	jne	.L460	#,
	.loc 1 1796 0
	movl	$1, %eax	#, D.16743
	jmp	.L461	#
.L460:
	.loc 1 1798 0
	movl	$0, %eax	#, D.16743
.L461:
	.loc 1 1799 0
	popq	%rbp	#
	.cfi_def_cfa 7, 8
	ret
	.cfi_endproc
.LFE30:
	.size	aliases_everything_p, .-aliases_everything_p
	.type	nonoverlapping_component_refs_p, @function
nonoverlapping_component_refs_p:
.LFB31:
	.loc 1 1807 0
	.cfi_startproc
	pushq	%rbp	#
	.cfi_def_cfa_offset 16
	.cfi_offset 6, -16
	movq	%rsp, %rbp	#,
	.cfi_def_cfa_register 6
	movq	%rdi, -56(%rbp)	# x, x
	movq	%rsi, -64(%rbp)	# y, y
.L472:
	.loc 1 1814 0
	movq	-64(%rbp), %rax	# y, tmp66
	movq	%rax, -40(%rbp)	# tmp66, orig_y
.L468:
	.loc 1 1817 0
	movq	-56(%rbp), %rax	# x, tmp67
	movq	40(%rax), %rax	# x_2->exp.operands, tmp68
	movq	%rax, -32(%rbp)	# tmp68, fieldx
	.loc 1 1818 0
	movq	-32(%rbp), %rax	# fieldx, tmp69
	movq	80(%rax), %rax	# fieldx_9->decl.context, tmp70
	movq	%rax, -24(%rbp)	# tmp70, typex
	.loc 1 1820 0
	movq	-40(%rbp), %rax	# orig_y, tmp71
	movq	%rax, -64(%rbp)	# tmp71, y
.L466:
	.loc 1 1823 0
	movq	-64(%rbp), %rax	# y, tmp72
	movq	40(%rax), %rax	# y_4->exp.operands, tmp73
	movq	%rax, -16(%rbp)	# tmp73, fieldy
	.loc 1 1824 0
	movq	-16(%rbp), %rax	# fieldy, tmp74
	movq	80(%rax), %rax	# fieldy_12->decl.context, tmp75
	movq	%rax, -8(%rbp)	# tmp75, typey
	.loc 1 1826 0
	movq	-24(%rbp), %rax	# typex, tmp76
	cmpq	-8(%rbp), %rax	# typey, tmp76
	jne	.L463	#,
	.loc 1 1827 0
	nop
.L464:
	.loc 1 1843 0
	movq	-24(%rbp), %rax	# typex, tmp83
	movzbl	16(%rax), %eax	# typex_10->common.code, D.16747
	cmpb	$20, %al	#, D.16747
	jne	.L470	#,
	jmp	.L473	#
.L463:
	.loc 1 1829 0
	movq	-64(%rbp), %rax	# y, tmp77
	movq	32(%rax), %rax	# y_4->exp.operands, tmp78
	movq	%rax, -64(%rbp)	# tmp78, y
	.loc 1 1831 0
	cmpq	$0, -64(%rbp)	#, y
	je	.L465	#,
	.loc 1 1831 0 is_stmt 0 discriminator 1
	movq	-64(%rbp), %rax	# y, tmp79
	movzbl	16(%rax), %eax	# y_21->common.code, D.16747
	cmpb	$39, %al	#, D.16747
	je	.L466	#,
.L465:
	.loc 1 1833 0 is_stmt 1
	movq	-56(%rbp), %rax	# x, tmp80
	movq	32(%rax), %rax	# x_2->exp.operands, tmp81
	movq	%rax, -56(%rbp)	# tmp81, x
	.loc 1 1835 0
	cmpq	$0, -56(%rbp)	#, x
	je	.L467	#,
	.loc 1 1835 0 is_stmt 0 discriminator 1
	movq	-56(%rbp), %rax	# x, tmp82
	movzbl	16(%rax), %eax	# x_23->common.code, D.16747
	cmpb	$39, %al	#, D.16747
	je	.L468	#,
.L467:
	.loc 1 1838 0 is_stmt 1
	movl	$0, %eax	#, D.16746
	jmp	.L469	#
.L473:
	.loc 1 1844 0
	movq	-32(%rbp), %rax	# fieldx, tmp84
	cmpq	-16(%rbp), %rax	# fieldy, tmp84
	je	.L470	#,
	.loc 1 1845 0
	movl	$1, %eax	#, D.16746
	jmp	.L469	#
.L470:
	.loc 1 1849 0
	movq	-56(%rbp), %rax	# x, tmp85
	movq	32(%rax), %rax	# x_2->exp.operands, tmp86
	movq	%rax, -56(%rbp)	# tmp86, x
	.loc 1 1850 0
	movq	-64(%rbp), %rax	# y, tmp87
	movq	32(%rax), %rax	# y_4->exp.operands, tmp88
	movq	%rax, -64(%rbp)	# tmp88, y
	.loc 1 1854 0
	cmpq	$0, -56(%rbp)	#, x
	je	.L471	#,
	.loc 1 1852 0
	cmpq	$0, -64(%rbp)	#, y
	je	.L471	#,
	.loc 1 1853 0
	movq	-56(%rbp), %rax	# x, tmp89
	movzbl	16(%rax), %eax	# x_16->common.code, D.16747
	cmpb	$39, %al	#, D.16747
	jne	.L471	#,
	.loc 1 1854 0
	movq	-64(%rbp), %rax	# y, tmp90
	movzbl	16(%rax), %eax	# y_17->common.code, D.16747
	cmpb	$39, %al	#, D.16747
	je	.L472	#,
.L471:
	.loc 1 1856 0
	movl	$0, %eax	#, D.16746
.L469:
	.loc 1 1857 0
	popq	%rbp	#
	.cfi_def_cfa 7, 8
	ret
	.cfi_endproc
.LFE31:
	.size	nonoverlapping_component_refs_p, .-nonoverlapping_component_refs_p
	.type	decl_for_component_ref, @function
decl_for_component_ref:
.LFB32:
	.loc 1 1864 0
	.cfi_startproc
	pushq	%rbp	#
	.cfi_def_cfa_offset 16
	.cfi_offset 6, -16
	movq	%rsp, %rbp	#,
	.cfi_def_cfa_register 6
	movq	%rdi, -8(%rbp)	# x, x
.L476:
	.loc 1 1867 0 discriminator 1
	movq	-8(%rbp), %rax	# x, tmp66
	movq	32(%rax), %rax	# x_1->exp.operands, tmp67
	movq	%rax, -8(%rbp)	# tmp67, x
	.loc 1 1869 0 discriminator 1
	cmpq	$0, -8(%rbp)	#, x
	je	.L475	#,
	movq	-8(%rbp), %rax	# x, tmp68
	movzbl	16(%rax), %eax	# x_4->common.code, D.16748
	cmpb	$39, %al	#, D.16748
	je	.L476	#,
.L475:
	.loc 1 1871 0
	cmpq	$0, -8(%rbp)	#, x
	je	.L477	#,
	.loc 1 1871 0 is_stmt 0 discriminator 1
	movq	-8(%rbp), %rax	# x, tmp69
	movzbl	16(%rax), %eax	# x_4->common.code, D.16748
	movzbl	%al, %eax	# D.16748, D.16749
	cltq
	movzbl	tree_code_type(%rax), %eax	# tree_code_type, D.16750
	cmpb	$100, %al	#, D.16750
	jne	.L477	#,
	movq	-8(%rbp), %rax	# x, iftmp.117
	jmp	.L478	#
.L477:
	.loc 1 1871 0 discriminator 2
	movl	$0, %eax	#, iftmp.117
.L478:
	.loc 1 1872 0 is_stmt 1 discriminator 3
	popq	%rbp	#
	.cfi_def_cfa 7, 8
	ret
	.cfi_endproc
.LFE32:
	.size	decl_for_component_ref, .-decl_for_component_ref
	.type	adjust_offset_for_component_ref, @function
adjust_offset_for_component_ref:
.LFB33:
	.loc 1 1881 0
	.cfi_startproc
	pushq	%rbp	#
	.cfi_def_cfa_offset 16
	.cfi_offset 6, -16
	movq	%rsp, %rbp	#,
	.cfi_def_cfa_register 6
	pushq	%rbx	#
	subq	$40, %rsp	#,
	.cfi_offset 3, -24
	movq	%rdi, -40(%rbp)	# x, x
	movq	%rsi, -48(%rbp)	# offset, offset
	.loc 1 1884 0
	cmpq	$0, -48(%rbp)	#, offset
	jne	.L481	#,
	.loc 1 1885 0
	movl	$0, %eax	#, D.16752
	jmp	.L482	#
.L481:
	.loc 1 1887 0
	movq	-48(%rbp), %rax	# offset, tmp70
	movq	8(%rax), %rax	# offset_4(D)->fld[0].rtwint, tmp71
	movq	%rax, -32(%rbp)	# tmp71, ioffset
.L485:
.LBB19:
	.loc 1 1890 0
	movq	-40(%rbp), %rax	# x, tmp72
	movq	40(%rax), %rax	# x_1->exp.operands, tmp73
	movq	%rax, -24(%rbp)	# tmp73, field
	.loc 1 1892 0
	movq	-24(%rbp), %rax	# field, tmp74
	movq	88(%rax), %rax	# field_8->decl.arguments, D.16753
	movl	$1, %esi	#,
	movq	%rax, %rdi	# D.16753,
	call	host_integerp	#
	testl	%eax, %eax	# D.16754
	jne	.L483	#,
	.loc 1 1893 0
	movl	$0, %eax	#, D.16752
	jmp	.L482	#
.L483:
	.loc 1 1894 0
	movq	-24(%rbp), %rax	# field, tmp75
	movq	88(%rax), %rax	# field_8->decl.arguments, D.16753
	movl	$1, %esi	#,
	movq	%rax, %rdi	# D.16753,
	call	tree_low_cst	#
	movq	%rax, %rbx	#, D.16755
	.loc 1 1895 0
	movq	-24(%rbp), %rax	# field, tmp76
	movq	160(%rax), %rax	# field_8->decl.u2.t, D.16753
	movl	$1, %esi	#,
	movq	%rax, %rdi	# D.16753,
	call	tree_low_cst	#
	.loc 1 1896 0
	leaq	7(%rax), %rdx	#, tmp78
	testq	%rax, %rax	# tmp77
	cmovs	%rdx, %rax	# tmp78,, tmp77
	sarq	$3, %rax	#, tmp79
	.loc 1 1895 0
	addq	%rbx, %rax	# D.16755, D.16755
	.loc 1 1894 0
	addq	%rax, -32(%rbp)	# D.16755, ioffset
	.loc 1 1898 0
	movq	-40(%rbp), %rax	# x, tmp80
	movq	32(%rax), %rax	# x_1->exp.operands, tmp81
	movq	%rax, -40(%rbp)	# tmp81, x
.LBE19:
	.loc 1 1900 0
	cmpq	$0, -40(%rbp)	#, x
	je	.L484	#,
	.loc 1 1900 0 is_stmt 0 discriminator 1
	movq	-40(%rbp), %rax	# x, tmp82
	movzbl	16(%rax), %eax	# x_19->common.code, D.16756
	cmpb	$39, %al	#, D.16756
	je	.L485	#,
.L484:
	.loc 1 1902 0 is_stmt 1
	movq	-32(%rbp), %rax	# ioffset, tmp83
	movq	%rax, %rsi	# tmp83,
	movl	$0, %edi	#,
	call	gen_rtx_CONST_INT	#
.L482:
	.loc 1 1903 0
	addq	$40, %rsp	#,
	popq	%rbx	#
	popq	%rbp	#
	.cfi_def_cfa 7, 8
	ret
	.cfi_endproc
.LFE33:
	.size	adjust_offset_for_component_ref, .-adjust_offset_for_component_ref
	.type	nonoverlapping_memrefs_p, @function
nonoverlapping_memrefs_p:
.LFB34:
	.loc 1 1911 0
	.cfi_startproc
	pushq	%rbp	#
	.cfi_def_cfa_offset 16
	.cfi_offset 6, -16
	movq	%rsp, %rbp	#,
	.cfi_def_cfa_register 6
	subq	$144, %rsp	#,
	movq	%rdi, -136(%rbp)	# x, x
	movq	%rsi, -144(%rbp)	# y, y
	.loc 1 1912 0
	movq	-136(%rbp), %rax	# x, tmp249
	movq	16(%rax), %rax	# x_49(D)->fld[1].rtmem, D.16758
	testq	%rax, %rax	# D.16758
	je	.L487	#,
	.loc 1 1912 0 is_stmt 0 discriminator 1
	movq	-136(%rbp), %rax	# x, tmp250
	movq	16(%rax), %rax	# x_49(D)->fld[1].rtmem, D.16758
	movq	8(%rax), %rax	# _51->expr, iftmp.118
	jmp	.L488	#
.L487:
	.loc 1 1912 0 discriminator 2
	movl	$0, %eax	#, iftmp.118
.L488:
	.loc 1 1912 0 discriminator 3
	movq	%rax, -120(%rbp)	# iftmp.118, exprx
	movq	-144(%rbp), %rax	# y, tmp251
	movq	16(%rax), %rax	# y_55(D)->fld[1].rtmem, D.16758
	testq	%rax, %rax	# D.16758
	je	.L489	#,
	.loc 1 1912 0 discriminator 1
	movq	-144(%rbp), %rax	# y, tmp252
	movq	16(%rax), %rax	# y_55(D)->fld[1].rtmem, D.16758
	movq	8(%rax), %rax	# _57->expr, iftmp.119
	jmp	.L490	#
.L489:
	.loc 1 1912 0 discriminator 2
	movl	$0, %eax	#, iftmp.119
.L490:
	.loc 1 1912 0 discriminator 3
	movq	%rax, -112(%rbp)	# iftmp.119, expry
	.loc 1 1916 0 is_stmt 1 discriminator 3
	movq	$0, -72(%rbp)	#, offsetx
	movq	$0, -64(%rbp)	#, offsety
	.loc 1 1919 0 discriminator 3
	cmpq	$0, -120(%rbp)	#, exprx
	je	.L491	#,
	.loc 1 1919 0 is_stmt 0 discriminator 1
	cmpq	$0, -112(%rbp)	#, expry
	jne	.L492	#,
.L491:
	.loc 1 1920 0 is_stmt 1
	movl	$0, %eax	#, D.16757
	jmp	.L493	#
.L492:
	.loc 1 1923 0
	movq	-120(%rbp), %rax	# exprx, tmp253
	movzbl	16(%rax), %eax	# exprx_54->common.code, D.16759
	cmpb	$39, %al	#, D.16759
	jne	.L494	#,
	.loc 1 1924 0
	movq	-112(%rbp), %rax	# expry, tmp254
	movzbl	16(%rax), %eax	# expry_60->common.code, D.16759
	cmpb	$39, %al	#, D.16759
	jne	.L494	#,
	.loc 1 1925 0
	movq	-112(%rbp), %rdx	# expry, tmp255
	movq	-120(%rbp), %rax	# exprx, tmp256
	movq	%rdx, %rsi	# tmp255,
	movq	%rax, %rdi	# tmp256,
	call	nonoverlapping_component_refs_p	#
	testb	%al, %al	# D.16760
	je	.L494	#,
	.loc 1 1926 0
	movl	$1, %eax	#, D.16757
	jmp	.L493	#
.L494:
	.loc 1 1929 0
	movq	-136(%rbp), %rax	# x, tmp257
	movq	16(%rax), %rax	# x_49(D)->fld[1].rtmem, D.16758
	testq	%rax, %rax	# D.16758
	je	.L495	#,
	.loc 1 1929 0 is_stmt 0 discriminator 1
	movq	-136(%rbp), %rax	# x, tmp258
	movq	16(%rax), %rax	# x_49(D)->fld[1].rtmem, D.16758
	movq	16(%rax), %rax	# _68->offset, iftmp.120
	jmp	.L496	#
.L495:
	.loc 1 1929 0 discriminator 2
	movl	$0, %eax	#, iftmp.120
.L496:
	.loc 1 1929 0 discriminator 3
	movq	%rax, -88(%rbp)	# iftmp.120, moffsetx
	.loc 1 1930 0 is_stmt 1 discriminator 3
	movq	-120(%rbp), %rax	# exprx, tmp259
	movzbl	16(%rax), %eax	# exprx_54->common.code, D.16759
	cmpb	$39, %al	#, D.16759
	jne	.L497	#,
.LBB20:
	.loc 1 1932 0
	movq	-120(%rbp), %rax	# exprx, tmp260
	movq	%rax, %rdi	# tmp260,
	call	decl_for_component_ref	#
	movq	%rax, -40(%rbp)	# tmp261, t
	.loc 1 1933 0
	cmpq	$0, -40(%rbp)	#, t
	jne	.L498	#,
	.loc 1 1934 0
	movl	$0, %eax	#, D.16757
	jmp	.L493	#
.L498:
	.loc 1 1935 0
	movq	-88(%rbp), %rdx	# moffsetx, tmp262
	movq	-120(%rbp), %rax	# exprx, tmp263
	movq	%rdx, %rsi	# tmp262,
	movq	%rax, %rdi	# tmp263,
	call	adjust_offset_for_component_ref	#
	movq	%rax, -88(%rbp)	# tmp264, moffsetx
	.loc 1 1936 0
	movq	-40(%rbp), %rax	# t, tmp265
	movq	%rax, -120(%rbp)	# tmp265, exprx
.L497:
.LBE20:
	.loc 1 1938 0
	movq	-144(%rbp), %rax	# y, tmp266
	movq	16(%rax), %rax	# y_55(D)->fld[1].rtmem, D.16758
	testq	%rax, %rax	# D.16758
	je	.L499	#,
	.loc 1 1938 0 is_stmt 0 discriminator 1
	movq	-144(%rbp), %rax	# y, tmp267
	movq	16(%rax), %rax	# y_55(D)->fld[1].rtmem, D.16758
	movq	16(%rax), %rax	# _78->offset, iftmp.121
	jmp	.L500	#
.L499:
	.loc 1 1938 0 discriminator 2
	movl	$0, %eax	#, iftmp.121
.L500:
	.loc 1 1938 0 discriminator 3
	movq	%rax, -80(%rbp)	# iftmp.121, moffsety
	.loc 1 1939 0 is_stmt 1 discriminator 3
	movq	-112(%rbp), %rax	# expry, tmp268
	movzbl	16(%rax), %eax	# expry_60->common.code, D.16759
	cmpb	$39, %al	#, D.16759
	jne	.L501	#,
.LBB21:
	.loc 1 1941 0
	movq	-112(%rbp), %rax	# expry, tmp269
	movq	%rax, %rdi	# tmp269,
	call	decl_for_component_ref	#
	movq	%rax, -32(%rbp)	# tmp270, t
	.loc 1 1942 0
	cmpq	$0, -32(%rbp)	#, t
	jne	.L502	#,
	.loc 1 1943 0
	movl	$0, %eax	#, D.16757
	jmp	.L493	#
.L502:
	.loc 1 1944 0
	movq	-80(%rbp), %rdx	# moffsety, tmp271
	movq	-112(%rbp), %rax	# expry, tmp272
	movq	%rdx, %rsi	# tmp271,
	movq	%rax, %rdi	# tmp272,
	call	adjust_offset_for_component_ref	#
	movq	%rax, -80(%rbp)	# tmp273, moffsety
	.loc 1 1945 0
	movq	-32(%rbp), %rax	# t, tmp274
	movq	%rax, -112(%rbp)	# tmp274, expry
.L501:
.LBE21:
	.loc 1 1948 0
	movq	-120(%rbp), %rax	# exprx, tmp275
	movzbl	16(%rax), %eax	# exprx_1->common.code, D.16759
	movzbl	%al, %eax	# D.16759, D.16757
	cltq
	movzbl	tree_code_type(%rax), %eax	# tree_code_type, D.16761
	cmpb	$100, %al	#, D.16761
	jne	.L503	#,
	.loc 1 1948 0 is_stmt 0 discriminator 1
	movq	-112(%rbp), %rax	# expry, tmp277
	movzbl	16(%rax), %eax	# expry_2->common.code, D.16759
	movzbl	%al, %eax	# D.16759, D.16757
	cltq
	movzbl	tree_code_type(%rax), %eax	# tree_code_type, D.16761
	cmpb	$100, %al	#, D.16761
	je	.L504	#,
.L503:
	.loc 1 1949 0 is_stmt 1
	movl	$0, %eax	#, D.16757
	jmp	.L493	#
.L504:
	.loc 1 1951 0
	movq	-120(%rbp), %rax	# exprx, tmp279
	movq	144(%rax), %rax	# exprx_1->decl.rtl, D.16762
	testq	%rax, %rax	# D.16762
	je	.L505	#,
	.loc 1 1951 0 is_stmt 0 discriminator 1
	movq	-120(%rbp), %rax	# exprx, tmp280
	movq	144(%rax), %rax	# exprx_1->decl.rtl, iftmp.122
	jmp	.L506	#
.L505:
	.loc 1 1951 0 discriminator 2
	movq	-120(%rbp), %rax	# exprx, tmp281
	movl	$0, %esi	#,
	movq	%rax, %rdi	# tmp281,
	call	make_decl_rtl	#
	movq	-120(%rbp), %rax	# exprx, tmp282
	movq	144(%rax), %rax	# exprx_1->decl.rtl, iftmp.122
.L506:
	.loc 1 1951 0 discriminator 3
	movq	%rax, -24(%rbp)	# iftmp.122, rtlx
	.loc 1 1952 0 is_stmt 1 discriminator 3
	movq	-112(%rbp), %rax	# expry, tmp283
	movq	144(%rax), %rax	# expry_2->decl.rtl, D.16762
	testq	%rax, %rax	# D.16762
	je	.L507	#,
	.loc 1 1952 0 is_stmt 0 discriminator 1
	movq	-112(%rbp), %rax	# expry, tmp284
	movq	144(%rax), %rax	# expry_2->decl.rtl, iftmp.123
	jmp	.L508	#
.L507:
	.loc 1 1952 0 discriminator 2
	movq	-112(%rbp), %rax	# expry, tmp285
	movl	$0, %esi	#,
	movq	%rax, %rdi	# tmp285,
	call	make_decl_rtl	#
	movq	-112(%rbp), %rax	# expry, tmp286
	movq	144(%rax), %rax	# expry_2->decl.rtl, iftmp.123
.L508:
	.loc 1 1952 0 discriminator 3
	movq	%rax, -16(%rbp)	# iftmp.123, rtly
	.loc 1 1957 0 is_stmt 1 discriminator 3
	movq	-24(%rbp), %rax	# rtlx, tmp287
	movzwl	(%rax), %eax	# rtlx_96->code, D.16763
	cmpw	$66, %ax	#, D.16763
	jne	.L509	#,
	.loc 1 1957 0 is_stmt 0 discriminator 1
	movq	-16(%rbp), %rax	# rtly, tmp288
	movzwl	(%rax), %eax	# rtly_100->code, D.16763
	cmpw	$66, %ax	#, D.16763
	je	.L510	#,
.L509:
	.loc 1 1958 0 is_stmt 1
	movq	-16(%rbp), %rdx	# rtly, tmp289
	movq	-24(%rbp), %rax	# rtlx, tmp290
	movq	%rdx, %rsi	# tmp289,
	movq	%rax, %rdi	# tmp290,
	call	rtx_equal_p	#
	testl	%eax, %eax	# D.16757
	jne	.L510	#,
	.loc 1 1959 0
	movl	$1, %eax	#, D.16757
	jmp	.L493	#
.L510:
	.loc 1 1965 0
	movq	-24(%rbp), %rax	# rtlx, tmp291
	movzwl	(%rax), %eax	# rtlx_96->code, D.16763
	cmpw	$66, %ax	#, D.16763
	jne	.L511	#,
	.loc 1 1965 0 is_stmt 0 discriminator 1
	movq	-24(%rbp), %rax	# rtlx, tmp292
	movq	8(%rax), %rax	# rtlx_96->fld[0].rtx, iftmp.124
	jmp	.L512	#
.L511:
	.loc 1 1965 0 discriminator 2
	movq	-24(%rbp), %rax	# rtlx, iftmp.124
.L512:
	.loc 1 1965 0 discriminator 3
	movq	%rax, -104(%rbp)	# iftmp.124, basex
	.loc 1 1966 0 is_stmt 1 discriminator 3
	movq	-104(%rbp), %rax	# basex, tmp293
	movzwl	(%rax), %eax	# basex_108->code, D.16763
	cmpw	$75, %ax	#, D.16763
	jne	.L513	#,
	.loc 1 1966 0 is_stmt 0 discriminator 1
	movq	-104(%rbp), %rax	# basex, tmp294
	movq	16(%rax), %rax	# basex_108->fld[1].rtx, D.16762
	movzwl	(%rax), %eax	# _110->code, D.16763
	cmpw	$54, %ax	#, D.16763
	jne	.L513	#,
	.loc 1 1967 0 is_stmt 1
	movq	-104(%rbp), %rax	# basex, tmp295
	movq	16(%rax), %rax	# basex_108->fld[1].rtx, D.16762
	movq	8(%rax), %rax	# _112->fld[0].rtwint, tmp296
	movq	%rax, -72(%rbp)	# tmp296, offsetx
	movq	-104(%rbp), %rax	# basex, tmp297
	movq	8(%rax), %rax	# basex_108->fld[0].rtx, tmp298
	movq	%rax, -104(%rbp)	# tmp298, basex
.L513:
	.loc 1 1969 0
	movq	-16(%rbp), %rax	# rtly, tmp299
	movzwl	(%rax), %eax	# rtly_100->code, D.16763
	cmpw	$66, %ax	#, D.16763
	jne	.L514	#,
	.loc 1 1969 0 is_stmt 0 discriminator 1
	movq	-16(%rbp), %rax	# rtly, tmp300
	movq	8(%rax), %rax	# rtly_100->fld[0].rtx, iftmp.125
	jmp	.L515	#
.L514:
	.loc 1 1969 0 discriminator 2
	movq	-16(%rbp), %rax	# rtly, iftmp.125
.L515:
	.loc 1 1969 0 discriminator 3
	movq	%rax, -96(%rbp)	# iftmp.125, basey
	.loc 1 1970 0 is_stmt 1 discriminator 3
	movq	-96(%rbp), %rax	# basey, tmp301
	movzwl	(%rax), %eax	# basey_118->code, D.16763
	cmpw	$75, %ax	#, D.16763
	jne	.L516	#,
	.loc 1 1970 0 is_stmt 0 discriminator 1
	movq	-96(%rbp), %rax	# basey, tmp302
	movq	16(%rax), %rax	# basey_118->fld[1].rtx, D.16762
	movzwl	(%rax), %eax	# _120->code, D.16763
	cmpw	$54, %ax	#, D.16763
	jne	.L516	#,
	.loc 1 1971 0 is_stmt 1
	movq	-96(%rbp), %rax	# basey, tmp303
	movq	16(%rax), %rax	# basey_118->fld[1].rtx, D.16762
	movq	8(%rax), %rax	# _122->fld[0].rtwint, tmp304
	movq	%rax, -64(%rbp)	# tmp304, offsety
	movq	-96(%rbp), %rax	# basey, tmp305
	movq	8(%rax), %rax	# basey_118->fld[0].rtx, tmp306
	movq	%rax, -96(%rbp)	# tmp306, basey
.L516:
	.loc 1 1977 0
	movq	-96(%rbp), %rdx	# basey, tmp307
	movq	-104(%rbp), %rax	# basex, tmp308
	movq	%rdx, %rsi	# tmp307,
	movq	%rax, %rdi	# tmp308,
	call	rtx_equal_p	#
	testl	%eax, %eax	# D.16757
	jne	.L517	#,
	.loc 1 1978 0
	movq	-104(%rbp), %rax	# basex, tmp309
	movzwl	(%rax), %eax	# basex_3->code, D.16763
	.loc 1 1981 0
	cmpw	$67, %ax	#, D.16763
	je	.L518	#,
	.loc 1 1978 0
	movq	-104(%rbp), %rax	# basex, tmp310
	movzwl	(%rax), %eax	# basex_3->code, D.16763
	cmpw	$68, %ax	#, D.16763
	je	.L518	#,
	.loc 1 1978 0 is_stmt 0 discriminator 2
	movq	-104(%rbp), %rax	# basex, tmp311
	movzwl	(%rax), %eax	# basex_3->code, D.16763
	cmpw	$54, %ax	#, D.16763
	je	.L518	#,
	.loc 1 1978 0 discriminator 1
	movq	-104(%rbp), %rax	# basex, tmp312
	movzwl	(%rax), %eax	# basex_3->code, D.16763
	cmpw	$55, %ax	#, D.16763
	je	.L518	#,
	movq	-104(%rbp), %rax	# basex, tmp313
	movzwl	(%rax), %eax	# basex_3->code, D.16763
	cmpw	$58, %ax	#, D.16763
	je	.L518	#,
	movq	-104(%rbp), %rax	# basex, tmp314
	movzwl	(%rax), %eax	# basex_3->code, D.16763
	cmpw	$134, %ax	#, D.16763
	je	.L518	#,
	movq	-104(%rbp), %rax	# basex, tmp315
	movzwl	(%rax), %eax	# basex_3->code, D.16763
	cmpw	$56, %ax	#, D.16763
	je	.L518	#,
	movq	-104(%rbp), %rax	# basex, tmp316
	movzwl	(%rax), %eax	# basex_3->code, D.16763
	cmpw	$140, %ax	#, D.16763
	jne	.L519	#,
.L518:
	movq	-96(%rbp), %rax	# basey, tmp317
	movzwl	(%rax), %eax	# basey_4->code, D.16763
	cmpw	$67, %ax	#, D.16763
	je	.L520	#,
	movq	-96(%rbp), %rax	# basey, tmp318
	movzwl	(%rax), %eax	# basey_4->code, D.16763
	cmpw	$68, %ax	#, D.16763
	je	.L520	#,
	movq	-96(%rbp), %rax	# basey, tmp319
	movzwl	(%rax), %eax	# basey_4->code, D.16763
	cmpw	$54, %ax	#, D.16763
	je	.L520	#,
	movq	-96(%rbp), %rax	# basey, tmp320
	movzwl	(%rax), %eax	# basey_4->code, D.16763
	cmpw	$55, %ax	#, D.16763
	je	.L520	#,
	movq	-96(%rbp), %rax	# basey, tmp321
	movzwl	(%rax), %eax	# basey_4->code, D.16763
	cmpw	$58, %ax	#, D.16763
	je	.L520	#,
	movq	-96(%rbp), %rax	# basey, tmp322
	movzwl	(%rax), %eax	# basey_4->code, D.16763
	cmpw	$134, %ax	#, D.16763
	je	.L520	#,
	movq	-96(%rbp), %rax	# basey, tmp323
	movzwl	(%rax), %eax	# basey_4->code, D.16763
	cmpw	$56, %ax	#, D.16763
	je	.L520	#,
	movq	-96(%rbp), %rax	# basey, tmp324
	movzwl	(%rax), %eax	# basey_4->code, D.16763
	cmpw	$140, %ax	#, D.16763
	je	.L520	#,
.L519:
	.loc 1 1979 0 is_stmt 1
	movq	-104(%rbp), %rax	# basex, tmp325
	movzwl	(%rax), %eax	# basex_3->code, D.16763
	cmpw	$67, %ax	#, D.16763
	je	.L521	#,
	.loc 1 1979 0 is_stmt 0 discriminator 2
	movq	-104(%rbp), %rax	# basex, tmp326
	movzwl	(%rax), %eax	# basex_3->code, D.16763
	cmpw	$68, %ax	#, D.16763
	je	.L521	#,
	.loc 1 1979 0 discriminator 1
	movq	-104(%rbp), %rax	# basex, tmp327
	movzwl	(%rax), %eax	# basex_3->code, D.16763
	cmpw	$54, %ax	#, D.16763
	je	.L521	#,
	movq	-104(%rbp), %rax	# basex, tmp328
	movzwl	(%rax), %eax	# basex_3->code, D.16763
	cmpw	$55, %ax	#, D.16763
	je	.L521	#,
	movq	-104(%rbp), %rax	# basex, tmp329
	movzwl	(%rax), %eax	# basex_3->code, D.16763
	cmpw	$58, %ax	#, D.16763
	je	.L521	#,
	movq	-104(%rbp), %rax	# basex, tmp330
	movzwl	(%rax), %eax	# basex_3->code, D.16763
	cmpw	$134, %ax	#, D.16763
	je	.L521	#,
	movq	-104(%rbp), %rax	# basex, tmp331
	movzwl	(%rax), %eax	# basex_3->code, D.16763
	cmpw	$56, %ax	#, D.16763
	je	.L521	#,
	movq	-104(%rbp), %rax	# basex, tmp332
	movzwl	(%rax), %eax	# basex_3->code, D.16763
	cmpw	$140, %ax	#, D.16763
	jne	.L522	#,
.L521:
	movq	-96(%rbp), %rax	# basey, tmp333
	movzwl	(%rax), %eax	# basey_4->code, D.16763
	cmpw	$61, %ax	#, D.16763
	jne	.L522	#,
	.loc 1 1980 0 is_stmt 1
	movq	-96(%rbp), %rax	# basey, tmp334
	movl	8(%rax), %eax	# basey_4->fld[0].rtuint, D.16764
	cmpl	$7, %eax	#, D.16764
	je	.L520	#,
	.loc 1 1980 0 is_stmt 0 discriminator 1
	movq	-96(%rbp), %rax	# basey, tmp335
	movl	8(%rax), %eax	# basey_4->fld[0].rtuint, D.16764
	cmpl	$20, %eax	#, D.16764
	je	.L520	#,
	movq	-96(%rbp), %rax	# basey, tmp336
	movl	8(%rax), %eax	# basey_4->fld[0].rtuint, D.16764
	cmpl	$6, %eax	#, D.16764
	je	.L520	#,
	movq	-96(%rbp), %rax	# basey, tmp337
	movl	8(%rax), %eax	# basey_4->fld[0].rtuint, D.16764
	cmpl	$16, %eax	#, D.16764
	je	.L520	#,
	movq	-96(%rbp), %rax	# basey, tmp338
	movl	8(%rax), %eax	# basey_4->fld[0].rtuint, D.16764
	cmpl	$52, %eax	#, D.16764
	jbe	.L522	#,
	movq	-96(%rbp), %rax	# basey, tmp339
	movl	8(%rax), %eax	# basey_4->fld[0].rtuint, D.16764
	cmpl	$57, %eax	#, D.16764
	jbe	.L520	#,
.L522:
	.loc 1 1981 0 is_stmt 1
	movq	-96(%rbp), %rax	# basey, tmp340
	movzwl	(%rax), %eax	# basey_4->code, D.16763
	cmpw	$67, %ax	#, D.16763
	je	.L523	#,
	.loc 1 1981 0 is_stmt 0 discriminator 2
	movq	-96(%rbp), %rax	# basey, tmp341
	movzwl	(%rax), %eax	# basey_4->code, D.16763
	cmpw	$68, %ax	#, D.16763
	je	.L523	#,
	.loc 1 1981 0 discriminator 1
	movq	-96(%rbp), %rax	# basey, tmp342
	movzwl	(%rax), %eax	# basey_4->code, D.16763
	cmpw	$54, %ax	#, D.16763
	je	.L523	#,
	movq	-96(%rbp), %rax	# basey, tmp343
	movzwl	(%rax), %eax	# basey_4->code, D.16763
	cmpw	$55, %ax	#, D.16763
	je	.L523	#,
	movq	-96(%rbp), %rax	# basey, tmp344
	movzwl	(%rax), %eax	# basey_4->code, D.16763
	cmpw	$58, %ax	#, D.16763
	je	.L523	#,
	movq	-96(%rbp), %rax	# basey, tmp345
	movzwl	(%rax), %eax	# basey_4->code, D.16763
	cmpw	$134, %ax	#, D.16763
	je	.L523	#,
	movq	-96(%rbp), %rax	# basey, tmp346
	movzwl	(%rax), %eax	# basey_4->code, D.16763
	cmpw	$56, %ax	#, D.16763
	je	.L523	#,
	movq	-96(%rbp), %rax	# basey, tmp347
	movzwl	(%rax), %eax	# basey_4->code, D.16763
	cmpw	$140, %ax	#, D.16763
	jne	.L524	#,
.L523:
	movq	-104(%rbp), %rax	# basex, tmp348
	movzwl	(%rax), %eax	# basex_3->code, D.16763
	cmpw	$61, %ax	#, D.16763
	jne	.L524	#,
	.loc 1 1982 0 is_stmt 1
	movq	-104(%rbp), %rax	# basex, tmp349
	movl	8(%rax), %eax	# basex_3->fld[0].rtuint, D.16764
	cmpl	$7, %eax	#, D.16764
	je	.L520	#,
	.loc 1 1982 0 is_stmt 0 discriminator 1
	movq	-104(%rbp), %rax	# basex, tmp350
	movl	8(%rax), %eax	# basex_3->fld[0].rtuint, D.16764
	cmpl	$20, %eax	#, D.16764
	je	.L520	#,
	movq	-104(%rbp), %rax	# basex, tmp351
	movl	8(%rax), %eax	# basex_3->fld[0].rtuint, D.16764
	cmpl	$6, %eax	#, D.16764
	je	.L520	#,
	movq	-104(%rbp), %rax	# basex, tmp352
	movl	8(%rax), %eax	# basex_3->fld[0].rtuint, D.16764
	cmpl	$16, %eax	#, D.16764
	je	.L520	#,
	movq	-104(%rbp), %rax	# basex, tmp353
	movl	8(%rax), %eax	# basex_3->fld[0].rtuint, D.16764
	cmpl	$52, %eax	#, D.16764
	jbe	.L524	#,
	movq	-104(%rbp), %rax	# basex, tmp354
	movl	8(%rax), %eax	# basex_3->fld[0].rtuint, D.16764
	cmpl	$57, %eax	#, D.16764
	ja	.L524	#,
.L520:
	.loc 1 1981 0 is_stmt 1
	movl	$1, %eax	#, iftmp.126
	jmp	.L525	#
.L524:
	.loc 1 1981 0 is_stmt 0 discriminator 1
	movl	$0, %eax	#, iftmp.126
.L525:
	.loc 1 1978 0 is_stmt 1
	jmp	.L493	#
.L517:
	.loc 1 1984 0
	movq	-24(%rbp), %rax	# rtlx, tmp355
	movzwl	(%rax), %eax	# rtlx_96->code, D.16763
	.loc 1 1985 0
	cmpw	$66, %ax	#, D.16763
	je	.L526	#,
	.loc 1 1984 0
	movq	-24(%rbp), %rax	# rtlx, tmp356
	movzbl	2(%rax), %eax	# rtlx_96->mode, D.16759
	movzbl	%al, %eax	# D.16759, D.16757
	cltq
	movzbl	mode_size(%rax), %eax	# mode_size, D.16759
	.loc 1 1985 0
	movzbl	%al, %eax	# D.16759, iftmp.127
	jmp	.L527	#
.L526:
	.loc 1 1985 0 is_stmt 0 discriminator 1
	movq	-24(%rbp), %rax	# rtlx, tmp358
	movq	16(%rax), %rax	# rtlx_96->fld[1].rtmem, D.16758
	testq	%rax, %rax	# D.16758
	je	.L528	#,
	movq	-24(%rbp), %rax	# rtlx, tmp359
	movq	16(%rax), %rax	# rtlx_96->fld[1].rtmem, D.16758
	movq	24(%rax), %rax	# _181->size, D.16762
	testq	%rax, %rax	# D.16762
	setne	%al	#, iftmp.129
	jmp	.L529	#
.L528:
	.loc 1 1985 0 discriminator 2
	movq	-24(%rbp), %rax	# rtlx, tmp360
	movzbl	2(%rax), %eax	# rtlx_96->mode, D.16759
	cmpb	$51, %al	#, D.16759
	je	.L530	#,
	.loc 1 1985 0 discriminator 3
	movq	-24(%rbp), %rax	# rtlx, tmp361
	movzbl	2(%rax), %eax	# rtlx_96->mode, D.16759
	movzbl	%al, %eax	# D.16759, D.16757
	cltq
	movzbl	mode_size(%rax), %eax	# mode_size, D.16759
	movzbl	%al, %eax	# D.16759, D.16765
	movq	%rax, %rsi	# D.16765,
	movl	$0, %edi	#,
	call	gen_rtx_CONST_INT	#
	testq	%rax, %rax	# D.16762
	je	.L530	#,
	.loc 1 1985 0 discriminator 5
	movl	$1, %eax	#, iftmp.130
	jmp	.L531	#
.L530:
	.loc 1 1985 0 discriminator 4
	movl	$0, %eax	#, iftmp.130
.L531:
	.loc 1 1985 0 discriminator 6
	andl	$1, %eax	#, iftmp.129
.L529:
	.loc 1 1986 0 is_stmt 1
	testb	%al, %al	# iftmp.129
	je	.L532	#,
	.loc 1 1985 0
	movq	-24(%rbp), %rax	# rtlx, tmp363
	movq	16(%rax), %rax	# rtlx_96->fld[1].rtmem, D.16758
	testq	%rax, %rax	# D.16758
	je	.L533	#,
	.loc 1 1985 0 is_stmt 0 discriminator 1
	movq	-24(%rbp), %rax	# rtlx, tmp364
	movq	16(%rax), %rax	# rtlx_96->fld[1].rtmem, D.16758
	movq	24(%rax), %rax	# _194->size, iftmp.131
	jmp	.L534	#
.L533:
	.loc 1 1985 0 discriminator 2
	movq	-24(%rbp), %rax	# rtlx, tmp365
	movzbl	2(%rax), %eax	# rtlx_96->mode, D.16759
	cmpb	$51, %al	#, D.16759
	je	.L535	#,
	.loc 1 1985 0 discriminator 1
	movq	-24(%rbp), %rax	# rtlx, tmp366
	movzbl	2(%rax), %eax	# rtlx_96->mode, D.16759
	movzbl	%al, %eax	# D.16759, D.16757
	cltq
	movzbl	mode_size(%rax), %eax	# mode_size, D.16759
	movzbl	%al, %eax	# D.16759, D.16765
	movq	%rax, %rsi	# D.16765,
	movl	$0, %edi	#,
	call	gen_rtx_CONST_INT	#
	jmp	.L534	#
.L535:
	.loc 1 1985 0 discriminator 2
	movl	$0, %eax	#, iftmp.132
.L534:
	.loc 1 1986 0 is_stmt 1 discriminator 1
	movq	8(%rax), %rax	# iftmp.131_32->fld[0].rtwint, iftmp.128
	jmp	.L527	#
.L532:
	movq	$-1, %rax	#, iftmp.128
.L527:
	.loc 1 1984 0
	movq	%rax, -56(%rbp)	# iftmp.127, sizex
	.loc 1 1987 0
	movq	-16(%rbp), %rax	# rtly, tmp368
	movzwl	(%rax), %eax	# rtly_100->code, D.16763
	.loc 1 1988 0
	cmpw	$66, %ax	#, D.16763
	je	.L538	#,
	.loc 1 1987 0
	movq	-16(%rbp), %rax	# rtly, tmp369
	movzbl	2(%rax), %eax	# rtly_100->mode, D.16759
	movzbl	%al, %eax	# D.16759, D.16757
	cltq
	movzbl	mode_size(%rax), %eax	# mode_size, D.16759
	.loc 1 1988 0
	movzbl	%al, %eax	# D.16759, iftmp.133
	jmp	.L539	#
.L538:
	.loc 1 1988 0 is_stmt 0 discriminator 1
	movq	-16(%rbp), %rax	# rtly, tmp371
	movq	16(%rax), %rax	# rtly_100->fld[1].rtmem, D.16758
	testq	%rax, %rax	# D.16758
	je	.L540	#,
	movq	-16(%rbp), %rax	# rtly, tmp372
	movq	16(%rax), %rax	# rtly_100->fld[1].rtmem, D.16758
	movq	24(%rax), %rax	# _214->size, D.16762
	testq	%rax, %rax	# D.16762
	setne	%al	#, iftmp.135
	jmp	.L541	#
.L540:
	.loc 1 1988 0 discriminator 2
	movq	-16(%rbp), %rax	# rtly, tmp373
	movzbl	2(%rax), %eax	# rtly_100->mode, D.16759
	cmpb	$51, %al	#, D.16759
	je	.L542	#,
	.loc 1 1988 0 discriminator 3
	movq	-16(%rbp), %rax	# rtly, tmp374
	movzbl	2(%rax), %eax	# rtly_100->mode, D.16759
	movzbl	%al, %eax	# D.16759, D.16757
	cltq
	movzbl	mode_size(%rax), %eax	# mode_size, D.16759
	movzbl	%al, %eax	# D.16759, D.16765
	movq	%rax, %rsi	# D.16765,
	movl	$0, %edi	#,
	call	gen_rtx_CONST_INT	#
	testq	%rax, %rax	# D.16762
	je	.L542	#,
	.loc 1 1988 0 discriminator 5
	movl	$1, %eax	#, iftmp.136
	jmp	.L543	#
.L542:
	.loc 1 1988 0 discriminator 4
	movl	$0, %eax	#, iftmp.136
.L543:
	.loc 1 1988 0 discriminator 6
	andl	$1, %eax	#, iftmp.135
.L541:
	.loc 1 1988 0 discriminator 7
	testb	%al, %al	# iftmp.135
	je	.L544	#,
	.loc 1 1988 0 discriminator 1
	movq	-16(%rbp), %rax	# rtly, tmp376
	movq	16(%rax), %rax	# rtly_100->fld[1].rtmem, D.16758
	testq	%rax, %rax	# D.16758
	je	.L545	#,
	movq	-16(%rbp), %rax	# rtly, tmp377
	movq	16(%rax), %rax	# rtly_100->fld[1].rtmem, D.16758
	movq	24(%rax), %rax	# _227->size, iftmp.137
	jmp	.L546	#
.L545:
	.loc 1 1988 0 discriminator 2
	movq	-16(%rbp), %rax	# rtly, tmp378
	movzbl	2(%rax), %eax	# rtly_100->mode, D.16759
	cmpb	$51, %al	#, D.16759
	je	.L547	#,
	.loc 1 1988 0 discriminator 1
	movq	-16(%rbp), %rax	# rtly, tmp379
	movzbl	2(%rax), %eax	# rtly_100->mode, D.16759
	movzbl	%al, %eax	# D.16759, D.16757
	cltq
	movzbl	mode_size(%rax), %eax	# mode_size, D.16759
	movzbl	%al, %eax	# D.16759, D.16765
	movq	%rax, %rsi	# D.16765,
	movl	$0, %edi	#,
	call	gen_rtx_CONST_INT	#
	jmp	.L546	#
.L547:
	.loc 1 1988 0 discriminator 2
	movl	$0, %eax	#, iftmp.138
.L546:
	movq	8(%rax), %rax	# iftmp.137_38->fld[0].rtwint, iftmp.134
	jmp	.L539	#
.L544:
	movq	$-1, %rax	#, iftmp.134
.L539:
	.loc 1 1987 0 is_stmt 1
	movq	%rax, -48(%rbp)	# iftmp.133, sizey
	.loc 1 1993 0
	cmpq	$0, -88(%rbp)	#, moffsetx
	je	.L550	#,
	.loc 1 1994 0
	movq	-88(%rbp), %rax	# moffsetx, tmp381
	movq	8(%rax), %rax	# moffsetx_5->fld[0].rtwint, D.16765
	addq	%rax, -72(%rbp)	# D.16765, offsetx
	movq	-88(%rbp), %rax	# moffsetx, tmp382
	movq	8(%rax), %rax	# moffsetx_5->fld[0].rtwint, D.16765
	subq	%rax, -56(%rbp)	# D.16765, sizex
.L550:
	.loc 1 1995 0
	cmpq	$0, -80(%rbp)	#, moffsety
	je	.L551	#,
	.loc 1 1996 0
	movq	-80(%rbp), %rax	# moffsety, tmp383
	movq	8(%rax), %rax	# moffsety_6->fld[0].rtwint, D.16765
	addq	%rax, -64(%rbp)	# D.16765, offsety
	movq	-80(%rbp), %rax	# moffsety, tmp384
	movq	8(%rax), %rax	# moffsety_6->fld[0].rtwint, D.16765
	subq	%rax, -48(%rbp)	# D.16765, sizey
.L551:
	.loc 1 2001 0
	movq	-136(%rbp), %rax	# x, tmp385
	movq	16(%rax), %rax	# x_49(D)->fld[1].rtmem, D.16758
	testq	%rax, %rax	# D.16758
	je	.L552	#,
	.loc 1 2001 0 is_stmt 0 discriminator 1
	movq	-136(%rbp), %rax	# x, tmp386
	movq	16(%rax), %rax	# x_49(D)->fld[1].rtmem, D.16758
	movq	24(%rax), %rax	# _250->size, D.16762
	testq	%rax, %rax	# D.16762
	setne	%al	#, iftmp.139
	jmp	.L553	#
.L552:
	.loc 1 2001 0 discriminator 2
	movq	-136(%rbp), %rax	# x, tmp387
	movzbl	2(%rax), %eax	# x_49(D)->mode, D.16759
	cmpb	$51, %al	#, D.16759
	je	.L554	#,
	.loc 1 2001 0 discriminator 3
	movq	-136(%rbp), %rax	# x, tmp388
	movzbl	2(%rax), %eax	# x_49(D)->mode, D.16759
	movzbl	%al, %eax	# D.16759, D.16757
	cltq
	movzbl	mode_size(%rax), %eax	# mode_size, D.16759
	movzbl	%al, %eax	# D.16759, D.16765
	movq	%rax, %rsi	# D.16765,
	movl	$0, %edi	#,
	call	gen_rtx_CONST_INT	#
	testq	%rax, %rax	# D.16762
	je	.L554	#,
	.loc 1 2001 0 discriminator 5
	movl	$1, %eax	#, iftmp.140
	jmp	.L555	#
.L554:
	.loc 1 2001 0 discriminator 4
	movl	$0, %eax	#, iftmp.140
.L555:
	.loc 1 2001 0 discriminator 6
	andl	$1, %eax	#, iftmp.139
.L553:
	.loc 1 2001 0 discriminator 7
	testb	%al, %al	# iftmp.139
	je	.L556	#,
	.loc 1 2001 0 discriminator 1
	cmpq	$0, -88(%rbp)	#, moffsetx
	je	.L556	#,
	.loc 1 2002 0 is_stmt 1
	movq	-136(%rbp), %rax	# x, tmp390
	movq	16(%rax), %rax	# x_49(D)->fld[1].rtmem, D.16758
	testq	%rax, %rax	# D.16758
	je	.L557	#,
	.loc 1 2002 0 is_stmt 0 discriminator 1
	movq	-136(%rbp), %rax	# x, tmp391
	movq	16(%rax), %rax	# x_49(D)->fld[1].rtmem, D.16758
	movq	24(%rax), %rax	# _263->size, iftmp.141
	jmp	.L558	#
.L557:
	.loc 1 2002 0 discriminator 2
	movq	-136(%rbp), %rax	# x, tmp392
	movzbl	2(%rax), %eax	# x_49(D)->mode, D.16759
	cmpb	$51, %al	#, D.16759
	je	.L559	#,
	.loc 1 2002 0 discriminator 1
	movq	-136(%rbp), %rax	# x, tmp393
	movzbl	2(%rax), %eax	# x_49(D)->mode, D.16759
	movzbl	%al, %eax	# D.16759, D.16757
	cltq
	movzbl	mode_size(%rax), %eax	# mode_size, D.16759
	movzbl	%al, %eax	# D.16759, D.16765
	movq	%rax, %rsi	# D.16765,
	movl	$0, %edi	#,
	call	gen_rtx_CONST_INT	#
	jmp	.L558	#
.L559:
	.loc 1 2002 0 discriminator 2
	movl	$0, %eax	#, iftmp.142
.L558:
	.loc 1 2002 0 discriminator 3
	movq	8(%rax), %rax	# iftmp.141_42->fld[0].rtwint, tmp395
	movq	%rax, -56(%rbp)	# tmp395, sizex
.L556:
	.loc 1 2003 0 is_stmt 1
	movq	-144(%rbp), %rax	# y, tmp396
	movq	16(%rax), %rax	# y_55(D)->fld[1].rtmem, D.16758
	testq	%rax, %rax	# D.16758
	je	.L561	#,
	.loc 1 2003 0 is_stmt 0 discriminator 1
	movq	-144(%rbp), %rax	# y, tmp397
	movq	16(%rax), %rax	# y_55(D)->fld[1].rtmem, D.16758
	movq	24(%rax), %rax	# _275->size, D.16762
	testq	%rax, %rax	# D.16762
	setne	%al	#, iftmp.143
	jmp	.L562	#
.L561:
	.loc 1 2003 0 discriminator 2
	movq	-144(%rbp), %rax	# y, tmp398
	movzbl	2(%rax), %eax	# y_55(D)->mode, D.16759
	cmpb	$51, %al	#, D.16759
	je	.L563	#,
	.loc 1 2003 0 discriminator 3
	movq	-144(%rbp), %rax	# y, tmp399
	movzbl	2(%rax), %eax	# y_55(D)->mode, D.16759
	movzbl	%al, %eax	# D.16759, D.16757
	cltq
	movzbl	mode_size(%rax), %eax	# mode_size, D.16759
	movzbl	%al, %eax	# D.16759, D.16765
	movq	%rax, %rsi	# D.16765,
	movl	$0, %edi	#,
	call	gen_rtx_CONST_INT	#
	testq	%rax, %rax	# D.16762
	je	.L563	#,
	.loc 1 2003 0 discriminator 5
	movl	$1, %eax	#, iftmp.144
	jmp	.L564	#
.L563:
	.loc 1 2003 0 discriminator 4
	movl	$0, %eax	#, iftmp.144
.L564:
	.loc 1 2003 0 discriminator 6
	andl	$1, %eax	#, iftmp.143
.L562:
	.loc 1 2003 0 discriminator 7
	testb	%al, %al	# iftmp.143
	je	.L565	#,
	.loc 1 2003 0 discriminator 1
	cmpq	$0, -80(%rbp)	#, moffsety
	je	.L565	#,
	.loc 1 2004 0 is_stmt 1
	movq	-144(%rbp), %rax	# y, tmp401
	movq	16(%rax), %rax	# y_55(D)->fld[1].rtmem, D.16758
	testq	%rax, %rax	# D.16758
	je	.L566	#,
	.loc 1 2004 0 is_stmt 0 discriminator 1
	movq	-144(%rbp), %rax	# y, tmp402
	movq	16(%rax), %rax	# y_55(D)->fld[1].rtmem, D.16758
	movq	24(%rax), %rax	# _288->size, iftmp.145
	jmp	.L567	#
.L566:
	.loc 1 2004 0 discriminator 2
	movq	-144(%rbp), %rax	# y, tmp403
	movzbl	2(%rax), %eax	# y_55(D)->mode, D.16759
	cmpb	$51, %al	#, D.16759
	je	.L568	#,
	.loc 1 2004 0 discriminator 1
	movq	-144(%rbp), %rax	# y, tmp404
	movzbl	2(%rax), %eax	# y_55(D)->mode, D.16759
	movzbl	%al, %eax	# D.16759, D.16757
	cltq
	movzbl	mode_size(%rax), %eax	# mode_size, D.16759
	movzbl	%al, %eax	# D.16759, D.16765
	movq	%rax, %rsi	# D.16765,
	movl	$0, %edi	#,
	call	gen_rtx_CONST_INT	#
	jmp	.L567	#
.L568:
	.loc 1 2004 0 discriminator 2
	movl	$0, %eax	#, iftmp.146
.L567:
	.loc 1 2004 0 discriminator 3
	movq	8(%rax), %rax	# iftmp.145_46->fld[0].rtwint, tmp406
	movq	%rax, -48(%rbp)	# tmp406, sizey
.L565:
	.loc 1 2007 0 is_stmt 1
	movq	-72(%rbp), %rax	# offsetx, tmp407
	cmpq	-64(%rbp), %rax	# offsety, tmp407
	jle	.L570	#,
	.loc 1 2009 0
	movq	-72(%rbp), %rax	# offsetx, tmp408
	movq	%rax, -8(%rbp)	# tmp408, tem
	movq	-64(%rbp), %rax	# offsety, tmp409
	movq	%rax, -72(%rbp)	# tmp409, offsetx
	movq	-8(%rbp), %rax	# tem, tmp410
	movq	%rax, -64(%rbp)	# tmp410, offsety
	.loc 1 2010 0
	movq	-56(%rbp), %rax	# sizex, tmp411
	movq	%rax, -8(%rbp)	# tmp411, tem
	movq	-48(%rbp), %rax	# sizey, tmp412
	movq	%rax, -56(%rbp)	# tmp412, sizex
	movq	-8(%rbp), %rax	# tem, tmp413
	movq	%rax, -48(%rbp)	# tmp413, sizey
.L570:
	.loc 1 2015 0
	cmpq	$0, -56(%rbp)	#, sizex
	js	.L571	#,
	.loc 1 2015 0 is_stmt 0 discriminator 1
	movq	-56(%rbp), %rax	# sizex, tmp414
	movq	-72(%rbp), %rdx	# offsetx, tmp415
	addq	%rdx, %rax	# tmp415, D.16765
	cmpq	-64(%rbp), %rax	# offsety, D.16765
	jge	.L571	#,
	.loc 1 2015 0 discriminator 3
	movl	$1, %eax	#, iftmp.147
	jmp	.L572	#
.L571:
	.loc 1 2015 0 discriminator 2
	movl	$0, %eax	#, iftmp.147
.L572:
.L493:
	.loc 1 2016 0 is_stmt 1
	leave
	.cfi_def_cfa 7, 8
	ret
	.cfi_endproc
.LFE34:
	.size	nonoverlapping_memrefs_p, .-nonoverlapping_memrefs_p
	.globl	true_dependence
	.type	true_dependence, @function
true_dependence:
.LFB35:
	.loc 1 2026 0
	.cfi_startproc
	pushq	%rbp	#
	.cfi_def_cfa_offset 16
	.cfi_offset 6, -16
	movq	%rsp, %rbp	#,
	.cfi_def_cfa_register 6
	subq	$64, %rsp	#,
	movq	%rdi, -40(%rbp)	# mem, mem
	movl	%esi, -44(%rbp)	# mem_mode, mem_mode
	movq	%rdx, -56(%rbp)	# x, x
	movq	%rcx, -64(%rbp)	# varies, varies
	.loc 1 2030 0
	movq	-56(%rbp), %rax	# x, tmp100
	movzbl	3(%rax), %eax	# *x_3(D), D.16767
	andl	$8, %eax	#, D.16767
	testb	%al, %al	# D.16767
	je	.L574	#,
	.loc 1 2030 0 is_stmt 0 discriminator 1
	movq	-40(%rbp), %rax	# mem, tmp101
	movzbl	3(%rax), %eax	# *mem_6(D), D.16767
	andl	$8, %eax	#, D.16767
	testb	%al, %al	# D.16767
	je	.L574	#,
	.loc 1 2031 0 is_stmt 1
	movl	$1, %eax	#, D.16766
	jmp	.L575	#
.L574:
	.loc 1 2035 0
	movq	-56(%rbp), %rax	# x, tmp102
	movzbl	2(%rax), %eax	# x_3(D)->mode, D.16767
	cmpb	$51, %al	#, D.16767
	jne	.L576	#,
	.loc 1 2035 0 is_stmt 0 discriminator 1
	movq	-56(%rbp), %rax	# x, tmp103
	movq	8(%rax), %rax	# x_3(D)->fld[0].rtx, D.16768
	movzwl	(%rax), %eax	# _11->code, D.16769
	cmpw	$62, %ax	#, D.16769
	jne	.L576	#,
	.loc 1 2036 0 is_stmt 1
	movl	$1, %eax	#, D.16766
	jmp	.L575	#
.L576:
	.loc 1 2037 0
	movq	-40(%rbp), %rax	# mem, tmp104
	movzbl	2(%rax), %eax	# mem_6(D)->mode, D.16767
	cmpb	$51, %al	#, D.16767
	jne	.L577	#,
	.loc 1 2037 0 is_stmt 0 discriminator 1
	movq	-40(%rbp), %rax	# mem, tmp105
	movq	8(%rax), %rax	# mem_6(D)->fld[0].rtx, D.16768
	movzwl	(%rax), %eax	# _15->code, D.16769
	cmpw	$62, %ax	#, D.16769
	jne	.L577	#,
	.loc 1 2038 0 is_stmt 1
	movl	$1, %eax	#, D.16766
	jmp	.L575	#
.L577:
	.loc 1 2040 0
	movq	-40(%rbp), %rdx	# mem, tmp106
	movq	-56(%rbp), %rax	# x, tmp107
	movq	%rdx, %rsi	# tmp106,
	movq	%rax, %rdi	# tmp107,
	call	mems_in_disjoint_alias_sets_p	#
	testl	%eax, %eax	# D.16766
	je	.L578	#,
	.loc 1 2041 0
	movl	$0, %eax	#, D.16766
	jmp	.L575	#
.L578:
	.loc 1 2053 0
	movq	-56(%rbp), %rax	# x, tmp108
	movzbl	3(%rax), %eax	# *x_3(D), D.16767
	andl	$4, %eax	#, D.16767
	testb	%al, %al	# D.16767
	je	.L579	#,
	.loc 1 2053 0 is_stmt 0 discriminator 1
	movq	-40(%rbp), %rax	# mem, tmp109
	movzbl	3(%rax), %eax	# *mem_6(D), D.16767
	andl	$4, %eax	#, D.16767
	testb	%al, %al	# D.16767
	jne	.L579	#,
	.loc 1 2054 0 is_stmt 1
	movl	$0, %eax	#, D.16766
	jmp	.L575	#
.L579:
	.loc 1 2056 0
	movq	-56(%rbp), %rdx	# x, tmp110
	movq	-40(%rbp), %rax	# mem, tmp111
	movq	%rdx, %rsi	# tmp110,
	movq	%rax, %rdi	# tmp111,
	call	nonoverlapping_memrefs_p	#
	testl	%eax, %eax	# D.16766
	je	.L580	#,
	.loc 1 2057 0
	movl	$0, %eax	#, D.16766
	jmp	.L575	#
.L580:
	.loc 1 2059 0
	cmpl	$0, -44(%rbp)	#, mem_mode
	jne	.L581	#,
	.loc 1 2060 0
	movq	-40(%rbp), %rax	# mem, tmp112
	movzbl	2(%rax), %eax	# mem_6(D)->mode, D.16767
	movzbl	%al, %eax	# D.16767, tmp113
	movl	%eax, -44(%rbp)	# tmp113, mem_mode
.L581:
	.loc 1 2062 0
	movq	-56(%rbp), %rax	# x, tmp114
	movq	8(%rax), %rax	# x_3(D)->fld[0].rtx, D.16768
	movq	%rax, %rdi	# D.16768,
	call	get_addr	#
	movq	%rax, -24(%rbp)	# tmp115, x_addr
	.loc 1 2063 0
	movq	-40(%rbp), %rax	# mem, tmp116
	movq	8(%rax), %rax	# mem_6(D)->fld[0].rtx, D.16768
	movq	%rax, %rdi	# D.16768,
	call	get_addr	#
	movq	%rax, -16(%rbp)	# tmp117, mem_addr
	.loc 1 2065 0
	movq	-24(%rbp), %rax	# x_addr, tmp118
	movq	%rax, %rdi	# tmp118,
	call	find_base_term	#
	movq	%rax, -8(%rbp)	# tmp119, base
	.loc 1 2066 0
	cmpq	$0, -8(%rbp)	#, base
	je	.L582	#,
	.loc 1 2066 0 is_stmt 0 discriminator 1
	movq	-8(%rbp), %rax	# base, tmp120
	movzwl	(%rax), %eax	# base_34->code, D.16769
	cmpw	$67, %ax	#, D.16769
	je	.L583	#,
	.loc 1 2067 0 is_stmt 1
	movq	-8(%rbp), %rax	# base, tmp121
	movzwl	(%rax), %eax	# base_34->code, D.16769
	cmpw	$68, %ax	#, D.16769
	jne	.L582	#,
	.loc 1 2068 0
	movq	-8(%rbp), %rax	# base, tmp122
	movzbl	3(%rax), %eax	# *base_34, D.16767
	andl	$4, %eax	#, D.16767
	testb	%al, %al	# D.16767
	je	.L582	#,
.L583:
	.loc 1 2069 0
	movl	$0, %eax	#, D.16766
	jmp	.L575	#
.L582:
	.loc 1 2071 0
	movq	-56(%rbp), %rax	# x, tmp123
	movzbl	2(%rax), %eax	# x_3(D)->mode, D.16767
	movzbl	%al, %edx	# D.16767, D.16770
	movl	-44(%rbp), %ecx	# mem_mode, tmp124
	movq	-16(%rbp), %rsi	# mem_addr, tmp125
	movq	-24(%rbp), %rax	# x_addr, tmp126
	movq	%rax, %rdi	# tmp126,
	call	base_alias_check	#
	testl	%eax, %eax	# D.16766
	jne	.L584	#,
	.loc 1 2072 0
	movl	$0, %eax	#, D.16766
	jmp	.L575	#
.L584:
	.loc 1 2074 0
	movq	-24(%rbp), %rax	# x_addr, tmp127
	movq	%rax, %rdi	# tmp127,
	call	canon_rtx	#
	movq	%rax, -24(%rbp)	# tmp128, x_addr
	.loc 1 2075 0
	movq	-16(%rbp), %rax	# mem_addr, tmp129
	movq	%rax, %rdi	# tmp129,
	call	canon_rtx	#
	movq	%rax, -16(%rbp)	# tmp130, mem_addr
	.loc 1 2078 0
	movq	-56(%rbp), %rax	# x, tmp131
	movzbl	2(%rax), %eax	# x_3(D)->mode, D.16767
	movzbl	%al, %eax	# D.16767, D.16766
	cltq
	movzbl	mode_size(%rax), %eax	# mode_size, D.16767
	.loc 1 2077 0
	movzbl	%al, %edx	# D.16767, D.16766
	movl	-44(%rbp), %eax	# mem_mode, mem_mode.148
	cltq
	movzbl	mode_size(%rax), %eax	# mode_size, D.16767
	movzbl	%al, %eax	# D.16767, D.16766
	movq	-24(%rbp), %rcx	# x_addr, tmp134
	movq	-16(%rbp), %rsi	# mem_addr, tmp135
	movl	$0, %r8d	#,
	movl	%eax, %edi	# D.16766,
	call	memrefs_conflict_p	#
	testl	%eax, %eax	# D.16766
	jne	.L585	#,
	.loc 1 2079 0
	movl	$0, %eax	#, D.16766
	jmp	.L575	#
.L585:
	.loc 1 2081 0
	movq	-56(%rbp), %rax	# x, tmp136
	movq	%rax, %rdi	# tmp136,
	call	aliases_everything_p	#
	testl	%eax, %eax	# D.16766
	je	.L586	#,
	.loc 1 2082 0
	movl	$1, %eax	#, D.16766
	jmp	.L575	#
.L586:
	.loc 1 2086 0
	cmpl	$2, -44(%rbp)	#, mem_mode
	je	.L587	#,
	.loc 1 2086 0 is_stmt 0 discriminator 1
	movq	-16(%rbp), %rax	# mem_addr, tmp137
	movzwl	(%rax), %eax	# mem_addr_45->code, D.16769
	cmpw	$83, %ax	#, D.16769
	jne	.L588	#,
.L587:
	.loc 1 2087 0 is_stmt 1
	movl	$1, %eax	#, D.16766
	jmp	.L575	#
.L588:
	.loc 1 2091 0
	cmpl	$51, -44(%rbp)	#, mem_mode
	je	.L589	#,
	.loc 1 2091 0 is_stmt 0 discriminator 1
	movq	-56(%rbp), %rax	# x, tmp138
	movzbl	2(%rax), %eax	# x_3(D)->mode, D.16767
	cmpb	$51, %al	#, D.16767
	jne	.L590	#,
.L589:
	.loc 1 2092 0 is_stmt 1
	movl	$1, %eax	#, D.16766
	jmp	.L575	#
.L590:
	.loc 1 2094 0
	movq	-64(%rbp), %rdi	# varies, tmp139
	movq	-24(%rbp), %rcx	# x_addr, tmp140
	movq	-16(%rbp), %rdx	# mem_addr, tmp141
	movq	-56(%rbp), %rsi	# x, tmp142
	movq	-40(%rbp), %rax	# mem, tmp143
	movq	%rdi, %r8	# tmp139,
	movq	%rax, %rdi	# tmp143,
	call	fixed_scalar_and_varying_struct_p	#
	testq	%rax, %rax	# D.16768
	sete	%al	#, D.16771
	movzbl	%al, %eax	# D.16771, D.16766
.L575:
	.loc 1 2096 0
	leave
	.cfi_def_cfa 7, 8
	ret
	.cfi_endproc
.LFE35:
	.size	true_dependence, .-true_dependence
	.globl	canon_true_dependence
	.type	canon_true_dependence, @function
canon_true_dependence:
.LFB36:
	.loc 1 2109 0
	.cfi_startproc
	pushq	%rbp	#
	.cfi_def_cfa_offset 16
	.cfi_offset 6, -16
	movq	%rsp, %rbp	#,
	.cfi_def_cfa_register 6
	subq	$64, %rsp	#,
	movq	%rdi, -24(%rbp)	# mem, mem
	movl	%esi, -28(%rbp)	# mem_mode, mem_mode
	movq	%rdx, -40(%rbp)	# mem_addr, mem_addr
	movq	%rcx, -48(%rbp)	# x, x
	movq	%r8, -56(%rbp)	# varies, varies
	.loc 1 2112 0
	movq	-48(%rbp), %rax	# x, tmp94
	movzbl	3(%rax), %eax	# *x_2(D), D.16773
	andl	$8, %eax	#, D.16773
	testb	%al, %al	# D.16773
	je	.L592	#,
	.loc 1 2112 0 is_stmt 0 discriminator 1
	movq	-24(%rbp), %rax	# mem, tmp95
	movzbl	3(%rax), %eax	# *mem_5(D), D.16773
	andl	$8, %eax	#, D.16773
	testb	%al, %al	# D.16773
	je	.L592	#,
	.loc 1 2113 0 is_stmt 1
	movl	$1, %eax	#, D.16772
	jmp	.L593	#
.L592:
	.loc 1 2117 0
	movq	-48(%rbp), %rax	# x, tmp96
	movzbl	2(%rax), %eax	# x_2(D)->mode, D.16773
	cmpb	$51, %al	#, D.16773
	jne	.L594	#,
	.loc 1 2117 0 is_stmt 0 discriminator 1
	movq	-48(%rbp), %rax	# x, tmp97
	movq	8(%rax), %rax	# x_2(D)->fld[0].rtx, D.16774
	movzwl	(%rax), %eax	# _10->code, D.16775
	cmpw	$62, %ax	#, D.16775
	jne	.L594	#,
	.loc 1 2118 0 is_stmt 1
	movl	$1, %eax	#, D.16772
	jmp	.L593	#
.L594:
	.loc 1 2119 0
	movq	-24(%rbp), %rax	# mem, tmp98
	movzbl	2(%rax), %eax	# mem_5(D)->mode, D.16773
	cmpb	$51, %al	#, D.16773
	jne	.L595	#,
	.loc 1 2119 0 is_stmt 0 discriminator 1
	movq	-24(%rbp), %rax	# mem, tmp99
	movq	8(%rax), %rax	# mem_5(D)->fld[0].rtx, D.16774
	movzwl	(%rax), %eax	# _14->code, D.16775
	cmpw	$62, %ax	#, D.16775
	jne	.L595	#,
	.loc 1 2120 0 is_stmt 1
	movl	$1, %eax	#, D.16772
	jmp	.L593	#
.L595:
	.loc 1 2122 0
	movq	-24(%rbp), %rdx	# mem, tmp100
	movq	-48(%rbp), %rax	# x, tmp101
	movq	%rdx, %rsi	# tmp100,
	movq	%rax, %rdi	# tmp101,
	call	mems_in_disjoint_alias_sets_p	#
	testl	%eax, %eax	# D.16772
	je	.L596	#,
	.loc 1 2123 0
	movl	$0, %eax	#, D.16772
	jmp	.L593	#
.L596:
	.loc 1 2132 0
	movq	-48(%rbp), %rax	# x, tmp102
	movzbl	3(%rax), %eax	# *x_2(D), D.16773
	andl	$4, %eax	#, D.16773
	testb	%al, %al	# D.16773
	je	.L597	#,
	.loc 1 2132 0 is_stmt 0 discriminator 1
	movq	-24(%rbp), %rax	# mem, tmp103
	movzbl	3(%rax), %eax	# *mem_5(D), D.16773
	andl	$4, %eax	#, D.16773
	testb	%al, %al	# D.16773
	jne	.L597	#,
	.loc 1 2133 0 is_stmt 1
	movl	$0, %eax	#, D.16772
	jmp	.L593	#
.L597:
	.loc 1 2135 0
	movq	-24(%rbp), %rdx	# mem, tmp104
	movq	-48(%rbp), %rax	# x, tmp105
	movq	%rdx, %rsi	# tmp104,
	movq	%rax, %rdi	# tmp105,
	call	nonoverlapping_memrefs_p	#
	testl	%eax, %eax	# D.16772
	je	.L598	#,
	.loc 1 2136 0
	movl	$0, %eax	#, D.16772
	jmp	.L593	#
.L598:
	.loc 1 2138 0
	movq	-48(%rbp), %rax	# x, tmp106
	movq	8(%rax), %rax	# x_2(D)->fld[0].rtx, D.16774
	movq	%rax, %rdi	# D.16774,
	call	get_addr	#
	movq	%rax, -8(%rbp)	# tmp107, x_addr
	.loc 1 2140 0
	movq	-48(%rbp), %rax	# x, tmp108
	movzbl	2(%rax), %eax	# x_2(D)->mode, D.16773
	movzbl	%al, %edx	# D.16773, D.16776
	movl	-28(%rbp), %ecx	# mem_mode, tmp109
	movq	-40(%rbp), %rsi	# mem_addr, tmp110
	movq	-8(%rbp), %rax	# x_addr, tmp111
	movq	%rax, %rdi	# tmp111,
	call	base_alias_check	#
	testl	%eax, %eax	# D.16772
	jne	.L599	#,
	.loc 1 2141 0
	movl	$0, %eax	#, D.16772
	jmp	.L593	#
.L599:
	.loc 1 2143 0
	movq	-8(%rbp), %rax	# x_addr, tmp112
	movq	%rax, %rdi	# tmp112,
	call	canon_rtx	#
	movq	%rax, -8(%rbp)	# tmp113, x_addr
	.loc 1 2145 0
	movq	-48(%rbp), %rax	# x, tmp114
	movzbl	2(%rax), %eax	# x_2(D)->mode, D.16773
	movzbl	%al, %eax	# D.16773, D.16772
	cltq
	movzbl	mode_size(%rax), %eax	# mode_size, D.16773
	.loc 1 2144 0
	movzbl	%al, %edx	# D.16773, D.16772
	movl	-28(%rbp), %eax	# mem_mode, mem_mode.149
	cltq
	movzbl	mode_size(%rax), %eax	# mode_size, D.16773
	movzbl	%al, %eax	# D.16773, D.16772
	movq	-8(%rbp), %rcx	# x_addr, tmp117
	movq	-40(%rbp), %rsi	# mem_addr, tmp118
	movl	$0, %r8d	#,
	movl	%eax, %edi	# D.16772,
	call	memrefs_conflict_p	#
	testl	%eax, %eax	# D.16772
	jne	.L600	#,
	.loc 1 2146 0
	movl	$0, %eax	#, D.16772
	jmp	.L593	#
.L600:
	.loc 1 2148 0
	movq	-48(%rbp), %rax	# x, tmp119
	movq	%rax, %rdi	# tmp119,
	call	aliases_everything_p	#
	testl	%eax, %eax	# D.16772
	je	.L601	#,
	.loc 1 2149 0
	movl	$1, %eax	#, D.16772
	jmp	.L593	#
.L601:
	.loc 1 2153 0
	cmpl	$2, -28(%rbp)	#, mem_mode
	je	.L602	#,
	.loc 1 2153 0 is_stmt 0 discriminator 1
	movq	-40(%rbp), %rax	# mem_addr, tmp120
	movzwl	(%rax), %eax	# mem_addr_30(D)->code, D.16775
	cmpw	$83, %ax	#, D.16775
	jne	.L603	#,
.L602:
	.loc 1 2154 0 is_stmt 1
	movl	$1, %eax	#, D.16772
	jmp	.L593	#
.L603:
	.loc 1 2158 0
	cmpl	$51, -28(%rbp)	#, mem_mode
	je	.L604	#,
	.loc 1 2158 0 is_stmt 0 discriminator 1
	movq	-48(%rbp), %rax	# x, tmp121
	movzbl	2(%rax), %eax	# x_2(D)->mode, D.16773
	cmpb	$51, %al	#, D.16773
	jne	.L605	#,
.L604:
	.loc 1 2159 0 is_stmt 1
	movl	$1, %eax	#, D.16772
	jmp	.L593	#
.L605:
	.loc 1 2161 0
	movq	-56(%rbp), %rdi	# varies, tmp122
	movq	-8(%rbp), %rcx	# x_addr, tmp123
	movq	-40(%rbp), %rdx	# mem_addr, tmp124
	movq	-48(%rbp), %rsi	# x, tmp125
	movq	-24(%rbp), %rax	# mem, tmp126
	movq	%rdi, %r8	# tmp122,
	movq	%rax, %rdi	# tmp126,
	call	fixed_scalar_and_varying_struct_p	#
	testq	%rax, %rax	# D.16774
	sete	%al	#, D.16777
	movzbl	%al, %eax	# D.16777, D.16772
.L593:
	.loc 1 2163 0
	leave
	.cfi_def_cfa 7, 8
	ret
	.cfi_endproc
.LFE36:
	.size	canon_true_dependence, .-canon_true_dependence
	.type	write_dependence_p, @function
write_dependence_p:
.LFB37:
	.loc 1 2173 0
	.cfi_startproc
	pushq	%rbp	#
	.cfi_def_cfa_offset 16
	.cfi_offset 6, -16
	movq	%rsp, %rbp	#,
	.cfi_def_cfa_register 6
	subq	$64, %rsp	#,
	movq	%rdi, -40(%rbp)	# mem, mem
	movq	%rsi, -48(%rbp)	# x, x
	movl	%edx, -52(%rbp)	# writep, writep
	.loc 1 2178 0
	movq	-48(%rbp), %rax	# x, tmp100
	movzbl	3(%rax), %eax	# *x_3(D), D.16779
	andl	$8, %eax	#, D.16779
	testb	%al, %al	# D.16779
	je	.L607	#,
	.loc 1 2178 0 is_stmt 0 discriminator 1
	movq	-40(%rbp), %rax	# mem, tmp101
	movzbl	3(%rax), %eax	# *mem_6(D), D.16779
	andl	$8, %eax	#, D.16779
	testb	%al, %al	# D.16779
	je	.L607	#,
	.loc 1 2179 0 is_stmt 1
	movl	$1, %eax	#, D.16778
	jmp	.L608	#
.L607:
	.loc 1 2183 0
	movq	-48(%rbp), %rax	# x, tmp102
	movzbl	2(%rax), %eax	# x_3(D)->mode, D.16779
	cmpb	$51, %al	#, D.16779
	jne	.L609	#,
	.loc 1 2183 0 is_stmt 0 discriminator 1
	movq	-48(%rbp), %rax	# x, tmp103
	movq	8(%rax), %rax	# x_3(D)->fld[0].rtx, D.16780
	movzwl	(%rax), %eax	# _11->code, D.16781
	cmpw	$62, %ax	#, D.16781
	jne	.L609	#,
	.loc 1 2184 0 is_stmt 1
	movl	$1, %eax	#, D.16778
	jmp	.L608	#
.L609:
	.loc 1 2185 0
	movq	-40(%rbp), %rax	# mem, tmp104
	movzbl	2(%rax), %eax	# mem_6(D)->mode, D.16779
	cmpb	$51, %al	#, D.16779
	jne	.L610	#,
	.loc 1 2185 0 is_stmt 0 discriminator 1
	movq	-40(%rbp), %rax	# mem, tmp105
	movq	8(%rax), %rax	# mem_6(D)->fld[0].rtx, D.16780
	movzwl	(%rax), %eax	# _15->code, D.16781
	cmpw	$62, %ax	#, D.16781
	jne	.L610	#,
	.loc 1 2186 0 is_stmt 1
	movl	$1, %eax	#, D.16778
	jmp	.L608	#
.L610:
	.loc 1 2188 0
	movq	-40(%rbp), %rdx	# mem, tmp106
	movq	-48(%rbp), %rax	# x, tmp107
	movq	%rdx, %rsi	# tmp106,
	movq	%rax, %rdi	# tmp107,
	call	mems_in_disjoint_alias_sets_p	#
	testl	%eax, %eax	# D.16778
	je	.L611	#,
	.loc 1 2189 0
	movl	$0, %eax	#, D.16778
	jmp	.L608	#
.L611:
	.loc 1 2192 0
	movq	-48(%rbp), %rax	# x, tmp108
	movzbl	3(%rax), %eax	# *x_3(D), tmp111
	shrb	$2, %al	#, D.16782
	movl	%eax, %edx	# D.16782, D.16782
	andl	$1, %edx	#, D.16782
	movq	-40(%rbp), %rax	# mem, tmp112
	movzbl	3(%rax), %eax	# *mem_6(D), tmp115
	shrb	$2, %al	#, D.16782
	andl	$1, %eax	#, D.16782
	cmpb	%al, %dl	# D.16782, D.16782
	je	.L612	#,
	.loc 1 2193 0
	movl	$0, %eax	#, D.16778
	jmp	.L608	#
.L612:
	.loc 1 2198 0
	cmpl	$0, -52(%rbp)	#, writep
	jne	.L613	#,
	.loc 1 2198 0 is_stmt 0 discriminator 1
	movq	-40(%rbp), %rax	# mem, tmp116
	movzbl	3(%rax), %eax	# *mem_6(D), D.16779
	andl	$4, %eax	#, D.16779
	testb	%al, %al	# D.16779
	je	.L613	#,
	.loc 1 2199 0 is_stmt 1
	movl	$0, %eax	#, D.16778
	jmp	.L608	#
.L613:
	.loc 1 2201 0
	movq	-40(%rbp), %rdx	# mem, tmp117
	movq	-48(%rbp), %rax	# x, tmp118
	movq	%rdx, %rsi	# tmp117,
	movq	%rax, %rdi	# tmp118,
	call	nonoverlapping_memrefs_p	#
	testl	%eax, %eax	# D.16778
	je	.L614	#,
	.loc 1 2202 0
	movl	$0, %eax	#, D.16778
	jmp	.L608	#
.L614:
	.loc 1 2204 0
	movq	-48(%rbp), %rax	# x, tmp119
	movq	8(%rax), %rax	# x_3(D)->fld[0].rtx, D.16780
	movq	%rax, %rdi	# D.16780,
	call	get_addr	#
	movq	%rax, -32(%rbp)	# tmp120, x_addr
	.loc 1 2205 0
	movq	-40(%rbp), %rax	# mem, tmp121
	movq	8(%rax), %rax	# mem_6(D)->fld[0].rtx, D.16780
	movq	%rax, %rdi	# D.16780,
	call	get_addr	#
	movq	%rax, -24(%rbp)	# tmp122, mem_addr
	.loc 1 2207 0
	cmpl	$0, -52(%rbp)	#, writep
	jne	.L615	#,
	.loc 1 2209 0
	movq	-24(%rbp), %rax	# mem_addr, tmp123
	movq	%rax, %rdi	# tmp123,
	call	find_base_term	#
	movq	%rax, -16(%rbp)	# tmp124, base
	.loc 1 2210 0
	cmpq	$0, -16(%rbp)	#, base
	je	.L615	#,
	.loc 1 2210 0 is_stmt 0 discriminator 1
	movq	-16(%rbp), %rax	# base, tmp125
	movzwl	(%rax), %eax	# base_33->code, D.16781
	cmpw	$67, %ax	#, D.16781
	je	.L616	#,
	.loc 1 2211 0 is_stmt 1
	movq	-16(%rbp), %rax	# base, tmp126
	movzwl	(%rax), %eax	# base_33->code, D.16781
	cmpw	$68, %ax	#, D.16781
	jne	.L615	#,
	.loc 1 2212 0
	movq	-16(%rbp), %rax	# base, tmp127
	movzbl	3(%rax), %eax	# *base_33, D.16779
	andl	$4, %eax	#, D.16779
	testb	%al, %al	# D.16779
	je	.L615	#,
.L616:
	.loc 1 2213 0
	movl	$0, %eax	#, D.16778
	jmp	.L608	#
.L615:
	.loc 1 2217 0
	movq	-40(%rbp), %rax	# mem, tmp128
	movzbl	2(%rax), %eax	# mem_6(D)->mode, D.16779
	.loc 1 2216 0
	movzbl	%al, %ecx	# D.16779, D.16783
	movq	-48(%rbp), %rax	# x, tmp129
	movzbl	2(%rax), %eax	# x_3(D)->mode, D.16779
	movzbl	%al, %edx	# D.16779, D.16783
	movq	-24(%rbp), %rsi	# mem_addr, tmp130
	movq	-32(%rbp), %rax	# x_addr, tmp131
	movq	%rax, %rdi	# tmp131,
	call	base_alias_check	#
	testl	%eax, %eax	# D.16778
	jne	.L617	#,
	.loc 1 2218 0
	movl	$0, %eax	#, D.16778
	jmp	.L608	#
.L617:
	.loc 1 2220 0
	movq	-32(%rbp), %rax	# x_addr, tmp132
	movq	%rax, %rdi	# tmp132,
	call	canon_rtx	#
	movq	%rax, -32(%rbp)	# tmp133, x_addr
	.loc 1 2221 0
	movq	-24(%rbp), %rax	# mem_addr, tmp134
	movq	%rax, %rdi	# tmp134,
	call	canon_rtx	#
	movq	%rax, -24(%rbp)	# tmp135, mem_addr
	.loc 1 2224 0
	movq	-48(%rbp), %rax	# x, tmp136
	movzbl	2(%rax), %eax	# x_3(D)->mode, D.16779
	movzbl	%al, %eax	# D.16779, D.16778
	cltq
	movzbl	mode_size(%rax), %eax	# mode_size, D.16779
	.loc 1 2223 0
	movzbl	%al, %edx	# D.16779, D.16778
	movq	-40(%rbp), %rax	# mem, tmp138
	movzbl	2(%rax), %eax	# mem_6(D)->mode, D.16779
	movzbl	%al, %eax	# D.16779, D.16778
	cltq
	movzbl	mode_size(%rax), %eax	# mode_size, D.16779
	movzbl	%al, %eax	# D.16779, D.16778
	movq	-32(%rbp), %rcx	# x_addr, tmp140
	movq	-24(%rbp), %rsi	# mem_addr, tmp141
	movl	$0, %r8d	#,
	movl	%eax, %edi	# D.16778,
	call	memrefs_conflict_p	#
	testl	%eax, %eax	# D.16778
	jne	.L618	#,
	.loc 1 2225 0
	movl	$0, %eax	#, D.16778
	jmp	.L608	#
.L618:
	.loc 1 2228 0
	movq	-32(%rbp), %rcx	# x_addr, tmp142
	movq	-24(%rbp), %rdx	# mem_addr, tmp143
	movq	-48(%rbp), %rsi	# x, tmp144
	movq	-40(%rbp), %rax	# mem, tmp145
	movl	$rtx_addr_varies_p, %r8d	#,
	movq	%rax, %rdi	# tmp145,
	call	fixed_scalar_and_varying_struct_p	#
	movq	%rax, -8(%rbp)	# tmp146, fixed_scalar
	.loc 1 2232 0
	movq	-8(%rbp), %rax	# fixed_scalar, tmp147
	cmpq	-40(%rbp), %rax	# mem, tmp147
	jne	.L619	#,
	.loc 1 2231 0
	movq	-48(%rbp), %rax	# x, tmp148
	movq	%rax, %rdi	# tmp148,
	call	aliases_everything_p	#
	testl	%eax, %eax	# D.16778
	je	.L620	#,
.L619:
	.loc 1 2232 0 discriminator 1
	movq	-8(%rbp), %rax	# fixed_scalar, tmp149
	cmpq	-48(%rbp), %rax	# x, tmp149
	jne	.L621	#,
	.loc 1 2232 0 is_stmt 0 discriminator 3
	movq	-40(%rbp), %rax	# mem, tmp150
	movq	%rax, %rdi	# tmp150,
	call	aliases_everything_p	#
	testl	%eax, %eax	# D.16778
	je	.L620	#,
.L621:
	.loc 1 2232 0 discriminator 2
	movl	$1, %eax	#, iftmp.150
	jmp	.L622	#
.L620:
	.loc 1 2232 0 discriminator 1
	movl	$0, %eax	#, iftmp.150
.L622:
.L608:
	.loc 1 2233 0 is_stmt 1
	leave
	.cfi_def_cfa 7, 8
	ret
	.cfi_endproc
.LFE37:
	.size	write_dependence_p, .-write_dependence_p
	.globl	anti_dependence
	.type	anti_dependence, @function
anti_dependence:
.LFB38:
	.loc 1 2241 0
	.cfi_startproc
	pushq	%rbp	#
	.cfi_def_cfa_offset 16
	.cfi_offset 6, -16
	movq	%rsp, %rbp	#,
	.cfi_def_cfa_register 6
	subq	$16, %rsp	#,
	movq	%rdi, -8(%rbp)	# mem, mem
	movq	%rsi, -16(%rbp)	# x, x
	.loc 1 2242 0
	movq	-16(%rbp), %rcx	# x, tmp61
	movq	-8(%rbp), %rax	# mem, tmp62
	movl	$0, %edx	#,
	movq	%rcx, %rsi	# tmp61,
	movq	%rax, %rdi	# tmp62,
	call	write_dependence_p	#
	.loc 1 2243 0
	leave
	.cfi_def_cfa 7, 8
	ret
	.cfi_endproc
.LFE38:
	.size	anti_dependence, .-anti_dependence
	.globl	output_dependence
	.type	output_dependence, @function
output_dependence:
.LFB39:
	.loc 1 2251 0
	.cfi_startproc
	pushq	%rbp	#
	.cfi_def_cfa_offset 16
	.cfi_offset 6, -16
	movq	%rsp, %rbp	#,
	.cfi_def_cfa_register 6
	subq	$16, %rsp	#,
	movq	%rdi, -8(%rbp)	# mem, mem
	movq	%rsi, -16(%rbp)	# x, x
	.loc 1 2252 0
	movq	-16(%rbp), %rcx	# x, tmp61
	movq	-8(%rbp), %rax	# mem, tmp62
	movl	$1, %edx	#,
	movq	%rcx, %rsi	# tmp61,
	movq	%rax, %rdi	# tmp62,
	call	write_dependence_p	#
	.loc 1 2253 0
	leave
	.cfi_def_cfa 7, 8
	ret
	.cfi_endproc
.LFE39:
	.size	output_dependence, .-output_dependence
	.type	nonlocal_mentioned_p, @function
nonlocal_mentioned_p:
.LFB40:
	.loc 1 2261 0
	.cfi_startproc
	pushq	%rbp	#
	.cfi_def_cfa_offset 16
	.cfi_offset 6, -16
	movq	%rsp, %rbp	#,
	.cfi_def_cfa_register 6
	subq	$48, %rsp	#,
	movq	%rdi, -40(%rbp)	# x, x
	.loc 1 2266 0
	movq	-40(%rbp), %rax	# x, tmp117
	movzwl	(%rax), %eax	# x_8(D)->code, D.16787
	movzwl	%ax, %eax	# D.16787, tmp118
	movl	%eax, -32(%rbp)	# tmp118, code
	.loc 1 2268 0
	movl	-32(%rbp), %eax	# code, code.151
	cltq
	movzbl	rtx_class(%rax), %eax	# rtx_class, D.16788
	cmpb	$105, %al	#, D.16788
	jne	.L628	#,
	.loc 1 2272 0
	cmpl	$34, -32(%rbp)	#, code
	jne	.L629	#,
	.loc 1 2272 0 is_stmt 0 discriminator 1
	movq	-40(%rbp), %rax	# x, tmp120
	movzbl	3(%rax), %eax	# *x_8(D), D.16789
	andl	$4, %eax	#, D.16789
	testb	%al, %al	# D.16789
	je	.L629	#,
	.loc 1 2274 0 is_stmt 1
	movq	-40(%rbp), %rax	# x, tmp121
	movq	64(%rax), %rax	# x_8(D)->fld[7].rtx, tmp122
	movq	%rax, -40(%rbp)	# tmp122, x
	.loc 1 2275 0
	cmpq	$0, -40(%rbp)	#, x
	jne	.L630	#,
	.loc 1 2276 0
	movl	$0, %eax	#, D.16786
	jmp	.L631	#
.L630:
	.loc 1 2275 0 discriminator 1
	jmp	.L632	#
.L629:
	.loc 1 2279 0
	movq	-40(%rbp), %rax	# x, tmp123
	movq	32(%rax), %rax	# x_8(D)->fld[3].rtx, tmp124
	movq	%rax, -40(%rbp)	# tmp124, x
.L632:
	.loc 1 2280 0
	movq	-40(%rbp), %rax	# x, tmp125
	movzwl	(%rax), %eax	# x_1->code, D.16787
	movzwl	%ax, %eax	# D.16787, tmp126
	movl	%eax, -32(%rbp)	# tmp126, code
.L628:
	.loc 1 2283 0
	movl	-32(%rbp), %eax	# code, tmp128
	subl	$40, %eax	#, tmp127
	cmpl	$29, %eax	#, tmp127
	ja	.L662	#,
	movl	%eax, %eax	# tmp127, tmp129
	movq	.L635(,%rax,8), %rax	#, tmp130
	jmp	*%rax	# tmp130
	.section	.rodata
	.align 8
	.align 4
.L635:
	.quad	.L634
	.quad	.L636
	.quad	.L662
	.quad	.L634
	.quad	.L662
	.quad	.L662
	.quad	.L662
	.quad	.L662
	.quad	.L662
	.quad	.L662
	.quad	.L637
	.quad	.L662
	.quad	.L662
	.quad	.L662
	.quad	.L638
	.quad	.L638
	.quad	.L638
	.quad	.L662
	.quad	.L638
	.quad	.L638
	.quad	.L662
	.quad	.L639
	.quad	.L638
	.quad	.L640
	.quad	.L662
	.quad	.L662
	.quad	.L641
	.quad	.L638
	.quad	.L642
	.quad	.L638
	.text
.L640:
	.loc 1 2286 0
	movq	-40(%rbp), %rax	# x, tmp131
	movq	8(%rax), %rax	# x_2->fld[0].rtx, D.16790
	movzwl	(%rax), %eax	# _20->code, D.16787
	cmpw	$61, %ax	#, D.16787
	jne	.L643	#,
	.loc 1 2289 0
	movq	-40(%rbp), %rax	# x, tmp132
	movq	8(%rax), %rax	# x_2->fld[0].rtx, D.16790
	movl	8(%rax), %eax	# _22->fld[0].rtuint, D.16791
	cmpl	$52, %eax	#, D.16791
	ja	.L644	#,
	.loc 1 2290 0
	movq	-40(%rbp), %rax	# x, tmp133
	movq	%rax, %rdi	# tmp133,
	call	subreg_regno	#
	movl	%eax, %eax	# D.16791, tmp134
	movzbl	global_regs(%rax), %eax	# global_regs, D.16788
	testb	%al, %al	# D.16788
	je	.L644	#,
	.loc 1 2291 0
	movl	$1, %eax	#, D.16786
	jmp	.L631	#
.L644:
	.loc 1 2292 0
	movl	$0, %eax	#, D.16786
	jmp	.L631	#
.L643:
	.loc 1 2294 0
	jmp	.L645	#
.L639:
	.loc 1 2297 0
	movq	-40(%rbp), %rax	# x, tmp135
	movl	8(%rax), %eax	# x_2->fld[0].rtuint, D.16791
	movl	%eax, -20(%rbp)	# D.16791, regno
	.loc 1 2299 0
	cmpl	$52, -20(%rbp)	#, regno
	jg	.L646	#,
	.loc 1 2299 0 is_stmt 0 discriminator 1
	movl	-20(%rbp), %eax	# regno, tmp137
	cltq
	movzbl	global_regs(%rax), %eax	# global_regs, D.16788
	testb	%al, %al	# D.16788
	je	.L646	#,
	.loc 1 2300 0 is_stmt 1
	movl	$1, %eax	#, D.16786
	jmp	.L631	#
.L646:
	.loc 1 2301 0
	movl	$0, %eax	#, D.16786
	jmp	.L631	#
.L638:
	.loc 1 2311 0
	movl	$0, %eax	#, D.16786
	jmp	.L631	#
.L642:
	.loc 1 2315 0
	movq	-40(%rbp), %rax	# x, tmp138
	movzbl	3(%rax), %eax	# *x_2, D.16789
	andl	$4, %eax	#, D.16789
	testb	%al, %al	# D.16789
	je	.L647	#,
	.loc 1 2316 0
	movl	$0, %eax	#, D.16786
	jmp	.L631	#
.L647:
	.loc 1 2317 0
	movl	$1, %eax	#, D.16786
	jmp	.L631	#
.L637:
	.loc 1 2321 0
	movl	$1, %eax	#, D.16786
	jmp	.L631	#
.L641:
	.loc 1 2326 0
	movq	-40(%rbp), %rax	# x, tmp139
	movzbl	3(%rax), %eax	# *x_2, D.16789
	andl	$8, %eax	#, D.16789
	testb	%al, %al	# D.16789
	je	.L648	#,
	.loc 1 2327 0
	movl	$1, %eax	#, D.16786
	jmp	.L631	#
.L648:
	.loc 1 2328 0
	movq	-40(%rbp), %rax	# x, tmp140
	movq	8(%rax), %rax	# x_2->fld[0].rtx, D.16790
	movq	%rax, %rdi	# D.16790,
	call	find_base_term	#
	movq	%rax, -16(%rbp)	# tmp141, base
	.loc 1 2329 0
	cmpq	$0, -16(%rbp)	#, base
	je	.L649	#,
	.loc 1 2336 0
	movq	-16(%rbp), %rax	# base, tmp142
	movzwl	(%rax), %eax	# base_43->code, D.16787
	cmpw	$25, %ax	#, D.16787
	jne	.L650	#,
	.loc 1 2337 0
	movq	-16(%rbp), %rax	# base, tmp143
	movzbl	2(%rax), %eax	# base_43->mode, D.16789
	movzbl	%al, %edx	# D.16789, D.16791
	movl	target_flags(%rip), %eax	# target_flags, target_flags.153
	andl	$33554432, %eax	#, D.16786
	testl	%eax, %eax	# D.16786
	je	.L651	#,
	.loc 1 2337 0 is_stmt 0 discriminator 1
	movl	$5, %eax	#, iftmp.152
	jmp	.L652	#
.L651:
	.loc 1 2337 0 discriminator 2
	movl	$4, %eax	#, iftmp.152
.L652:
	.loc 1 2337 0 discriminator 3
	cmpl	%eax, %edx	# iftmp.152, D.16791
	jne	.L650	#,
	.loc 1 2338 0 is_stmt 1
	movq	-16(%rbp), %rax	# base, tmp144
	movq	8(%rax), %rdx	# base_43->fld[0].rtx, D.16790
	movq	global_rtl+16(%rip), %rax	# global_rtl, D.16790
	cmpq	%rax, %rdx	# D.16790, D.16790
	je	.L653	#,
	.loc 1 2339 0
	movq	-16(%rbp), %rax	# base, tmp145
	movq	8(%rax), %rdx	# base_43->fld[0].rtx, D.16790
	movq	global_rtl+40(%rip), %rax	# global_rtl, D.16790
	cmpq	%rax, %rdx	# D.16790, D.16790
	je	.L653	#,
	.loc 1 2341 0
	movq	-16(%rbp), %rax	# base, tmp146
	movq	8(%rax), %rdx	# base_43->fld[0].rtx, D.16790
	movq	global_rtl+32(%rip), %rax	# global_rtl, D.16790
	cmpq	%rax, %rdx	# D.16790, D.16790
	je	.L653	#,
	.loc 1 2343 0
	movq	-16(%rbp), %rax	# base, tmp147
	movq	8(%rax), %rdx	# base_43->fld[0].rtx, D.16790
	movq	global_rtl+24(%rip), %rax	# global_rtl, D.16790
	cmpq	%rax, %rdx	# D.16790, D.16790
	jne	.L650	#,
.L653:
	.loc 1 2344 0
	movl	$0, %eax	#, D.16786
	jmp	.L631	#
.L650:
	.loc 1 2346 0
	movq	-16(%rbp), %rax	# base, tmp148
	movzwl	(%rax), %eax	# base_43->code, D.16787
	cmpw	$68, %ax	#, D.16787
	jne	.L649	#,
	.loc 1 2346 0 is_stmt 0 discriminator 1
	movq	-16(%rbp), %rax	# base, tmp149
	movzbl	3(%rax), %eax	# *base_43, D.16789
	andl	$4, %eax	#, D.16789
	testb	%al, %al	# D.16789
	je	.L649	#,
	.loc 1 2347 0 is_stmt 1
	movl	$0, %eax	#, D.16786
	jmp	.L631	#
.L649:
	.loc 1 2349 0
	movl	$1, %eax	#, D.16786
	jmp	.L631	#
.L634:
	.loc 1 2353 0
	movl	$1, %eax	#, D.16786
	jmp	.L631	#
.L636:
	.loc 1 2356 0
	movq	-40(%rbp), %rax	# x, tmp150
	movzbl	3(%rax), %eax	# *x_2, D.16789
	andl	$8, %eax	#, D.16789
	testb	%al, %al	# D.16789
	je	.L633	#,
	.loc 1 2357 0
	movl	$1, %eax	#, D.16786
	jmp	.L631	#
.L633:
.L662:
	.loc 1 2362 0
	nop
.L645:
.LBB22:
	.loc 1 2368 0
	movl	-32(%rbp), %eax	# code, code.154
	cltq
	movq	rtx_format(,%rax,8), %rax	# rtx_format, tmp152
	movq	%rax, -8(%rbp)	# tmp152, fmt
	.loc 1 2371 0
	movl	-32(%rbp), %eax	# code, code.155
	cltq
	movzbl	rtx_length(%rax), %eax	# rtx_length, D.16789
	movzbl	%al, %eax	# D.16789, D.16786
	subl	$1, %eax	#, tmp154
	movl	%eax, -28(%rbp)	# tmp154, i
	jmp	.L654	#
.L661:
	.loc 1 2373 0
	movl	-28(%rbp), %eax	# i, tmp155
	movslq	%eax, %rdx	# tmp155, D.16792
	movq	-8(%rbp), %rax	# fmt, tmp156
	addq	%rdx, %rax	# D.16792, D.16793
	movzbl	(%rax), %eax	# *_76, D.16788
	cmpb	$101, %al	#, D.16788
	jne	.L655	#,
	.loc 1 2373 0 is_stmt 0 discriminator 1
	movq	-40(%rbp), %rax	# x, tmp157
	movl	-28(%rbp), %edx	# i, tmp159
	movslq	%edx, %rdx	# tmp159, tmp158
	movq	8(%rax,%rdx,8), %rax	# x_2->fld[i_4].rtx, D.16790
	testq	%rax, %rax	# D.16790
	je	.L655	#,
	.loc 1 2375 0 is_stmt 1
	movq	-40(%rbp), %rax	# x, tmp160
	movl	-28(%rbp), %edx	# i, tmp162
	movslq	%edx, %rdx	# tmp162, tmp161
	movq	8(%rax,%rdx,8), %rax	# x_2->fld[i_4].rtx, D.16790
	movq	%rax, %rdi	# D.16790,
	call	nonlocal_mentioned_p	#
	testl	%eax, %eax	# D.16786
	je	.L656	#,
	.loc 1 2376 0
	movl	$1, %eax	#, D.16786
	jmp	.L631	#
.L656:
	.loc 1 2375 0 discriminator 1
	jmp	.L657	#
.L655:
	.loc 1 2378 0
	movl	-28(%rbp), %eax	# i, tmp163
	movslq	%eax, %rdx	# tmp163, D.16792
	movq	-8(%rbp), %rax	# fmt, tmp164
	addq	%rdx, %rax	# D.16792, D.16793
	movzbl	(%rax), %eax	# *_83, D.16788
	cmpb	$69, %al	#, D.16788
	jne	.L657	#,
.LBB23:
	.loc 1 2381 0
	movl	$0, -24(%rbp)	#, j
	jmp	.L658	#
.L660:
	.loc 1 2382 0
	movq	-40(%rbp), %rax	# x, tmp165
	movl	-28(%rbp), %edx	# i, tmp167
	movslq	%edx, %rdx	# tmp167, tmp166
	movq	8(%rax,%rdx,8), %rax	# x_2->fld[i_4].rtvec, D.16794
	movl	-24(%rbp), %edx	# j, tmp169
	movslq	%edx, %rdx	# tmp169, tmp168
	movq	8(%rax,%rdx,8), %rax	# _88->elem, D.16790
	movq	%rax, %rdi	# D.16790,
	call	nonlocal_mentioned_p	#
	testl	%eax, %eax	# D.16786
	je	.L659	#,
	.loc 1 2383 0
	movl	$1, %eax	#, D.16786
	jmp	.L631	#
.L659:
	.loc 1 2381 0
	addl	$1, -24(%rbp)	#, j
.L658:
	.loc 1 2381 0 is_stmt 0 discriminator 1
	movq	-40(%rbp), %rax	# x, tmp170
	movl	-28(%rbp), %edx	# i, tmp172
	movslq	%edx, %rdx	# tmp172, tmp171
	movq	8(%rax,%rdx,8), %rax	# x_2->fld[i_4].rtvec, D.16794
	movl	(%rax), %eax	# _86->num_elem, D.16786
	cmpl	-24(%rbp), %eax	# j, D.16786
	jg	.L660	#,
.L657:
.LBE23:
	.loc 1 2371 0 is_stmt 1
	subl	$1, -28(%rbp)	#, i
.L654:
	.loc 1 2371 0 is_stmt 0 discriminator 1
	cmpl	$0, -28(%rbp)	#, i
	jns	.L661	#,
.LBE22:
	.loc 1 2388 0 is_stmt 1
	movl	$0, %eax	#, D.16786
.L631:
	.loc 1 2389 0
	leave
	.cfi_def_cfa 7, 8
	ret
	.cfi_endproc
.LFE40:
	.size	nonlocal_mentioned_p, .-nonlocal_mentioned_p
	.globl	mark_constant_function
	.type	mark_constant_function, @function
mark_constant_function:
.LFB41:
	.loc 1 2395 0
	.cfi_startproc
	pushq	%rbp	#
	.cfi_def_cfa_offset 16
	.cfi_offset 6, -16
	movq	%rsp, %rbp	#,
	.cfi_def_cfa_register 6
	subq	$16, %rsp	#,
	.loc 1 2399 0
	movq	current_function_decl(%rip), %rax	# current_function_decl, current_function_decl.156
	movzbl	18(%rax), %eax	# *current_function_decl.156_3, D.16795
	andl	$8, %eax	#, D.16795
	testb	%al, %al	# D.16795
	jne	.L664	#,
	.loc 1 2400 0
	movq	current_function_decl(%rip), %rax	# current_function_decl, current_function_decl.157
	movzbl	17(%rax), %eax	# *current_function_decl.157_6, D.16795
	andl	$16, %eax	#, D.16795
	testb	%al, %al	# D.16795
	jne	.L664	#,
	.loc 1 2401 0
	movq	current_function_decl(%rip), %rax	# current_function_decl, current_function_decl.158
	movzbl	51(%rax), %eax	# *current_function_decl.158_9, D.16795
	andl	$-128, %eax	#, D.16795
	testb	%al, %al	# D.16795
	jne	.L664	#,
	.loc 1 2402 0
	movq	current_function_decl(%rip), %rax	# current_function_decl, current_function_decl.159
	movzbl	17(%rax), %eax	# *current_function_decl.159_12, D.16795
	andl	$8, %eax	#, D.16795
	testb	%al, %al	# D.16795
	jne	.L664	#,
	.loc 1 2403 0
	movq	current_function_decl(%rip), %rax	# current_function_decl, current_function_decl.160
	movq	8(%rax), %rax	# current_function_decl.160_15->common.type, D.16796
	movzbl	61(%rax), %eax	# *_16, D.16795
	andl	$-2, %eax	#, D.16795
	testb	%al, %al	# D.16795
	jne	.L665	#,
.L664:
	.loc 1 2404 0
	jmp	.L663	#
.L665:
	.loc 1 2407 0
	call	mark_dfs_back_edges	#
	testb	%al, %al	# D.16797
	je	.L667	#,
	.loc 1 2408 0
	jmp	.L663	#
.L667:
	.loc 1 2410 0
	movl	$0, -12(%rbp)	#, nonlocal_mentioned
	.loc 1 2412 0
	call	init_alias_analysis	#
	.loc 1 2416 0
	call	get_insns	#
	movq	%rax, -8(%rbp)	# tmp81, insn
	jmp	.L668	#
.L671:
	.loc 1 2417 0
	movq	-8(%rbp), %rax	# insn, tmp82
	movzwl	(%rax), %eax	# insn_1->code, D.16798
	movzwl	%ax, %eax	# D.16798, D.16799
	cltq
	movzbl	rtx_class(%rax), %eax	# rtx_class, D.16800
	cmpb	$105, %al	#, D.16800
	jne	.L669	#,
	.loc 1 2417 0 is_stmt 0 discriminator 1
	movq	-8(%rbp), %rax	# insn, tmp84
	movq	%rax, %rdi	# tmp84,
	call	nonlocal_mentioned_p	#
	testl	%eax, %eax	# D.16799
	je	.L669	#,
	.loc 1 2419 0 is_stmt 1
	movl	$1, -12(%rbp)	#, nonlocal_mentioned
	.loc 1 2420 0
	jmp	.L670	#
.L669:
	.loc 1 2416 0
	movq	-8(%rbp), %rax	# insn, tmp85
	movq	24(%rax), %rax	# insn_1->fld[2].rtx, tmp86
	movq	%rax, -8(%rbp)	# tmp86, insn
.L668:
	.loc 1 2416 0 is_stmt 0 discriminator 1
	cmpq	$0, -8(%rbp)	#, insn
	jne	.L671	#,
.L670:
	.loc 1 2423 0 is_stmt 1
	call	end_alias_analysis	#
	.loc 1 2427 0
	cmpl	$0, -12(%rbp)	#, nonlocal_mentioned
	jne	.L663	#,
	.loc 1 2428 0
	movq	current_function_decl(%rip), %rax	# current_function_decl, current_function_decl.161
	movzbl	17(%rax), %edx	#, tmp89
	orl	$16, %edx	#, tmp90
	movb	%dl, 17(%rax)	# tmp90,
.L663:
	.loc 1 2429 0
	leave
	.cfi_def_cfa 7, 8
	ret
	.cfi_endproc
.LFE41:
	.size	mark_constant_function, .-mark_constant_function
	.local	argument_registers
	.comm	argument_registers,8,8
	.globl	init_alias_once
	.type	init_alias_once, @function
init_alias_once:
.LFB42:
	.loc 1 2436 0
	.cfi_startproc
	pushq	%rbp	#
	.cfi_def_cfa_offset 16
	.cfi_offset 6, -16
	movq	%rsp, %rbp	#,
	.cfi_def_cfa_register 6
	subq	$16, %rsp	#,
	.loc 1 2442 0
	movl	$0, -4(%rbp)	#, i
	jmp	.L673	#
.L677:
	.loc 1 2446 0
	movl	-4(%rbp), %eax	# i, tmp68
	movl	%eax, %edi	# tmp68,
	call	ix86_function_arg_regno_p	#
	testb	%al, %al	# D.16801
	je	.L674	#,
	.loc 1 2447 0
	movl	target_flags(%rip), %eax	# target_flags, target_flags.163
	andl	$33554432, %eax	#, D.16802
	testl	%eax, %eax	# D.16802
	je	.L675	#,
	.loc 1 2447 0 is_stmt 0 discriminator 1
	movl	$5, %eax	#, iftmp.162
	jmp	.L676	#
.L675:
	.loc 1 2447 0 discriminator 2
	movl	$4, %eax	#, iftmp.162
.L676:
	.loc 1 2447 0 discriminator 3
	movl	-4(%rbp), %edx	# i, tmp69
	movl	%eax, %esi	# iftmp.162,
	movl	%edx, %edi	# tmp69,
	call	ix86_hard_regno_mode_ok	#
	testl	%eax, %eax	# D.16802
	je	.L674	#,
	.loc 1 2448 0 is_stmt 1
	movl	-4(%rbp), %eax	# i, tmp70
	movl	$1, %edx	#, tmp71
	movl	%eax, %ecx	# tmp70, tmp72
	salq	%cl, %rdx	# tmp72, D.16803
	movq	argument_registers(%rip), %rax	# argument_registers, argument_registers.164
	orq	%rdx, %rax	# D.16803, argument_registers.165
	movq	%rax, argument_registers(%rip)	# argument_registers.165, argument_registers
.L674:
	.loc 1 2442 0
	addl	$1, -4(%rbp)	#, i
.L673:
	.loc 1 2442 0 is_stmt 0 discriminator 1
	cmpl	$52, -4(%rbp)	#, i
	jle	.L677	#,
	.loc 1 2450 0 is_stmt 1
	movl	$0, %edx	#,
	movl	$0, %esi	#,
	movl	$splay_tree_compare_ints, %edi	#,
	call	splay_tree_new	#
	movq	%rax, alias_sets(%rip)	# alias_sets.166, alias_sets
	.loc 1 2451 0
	leave
	.cfi_def_cfa 7, 8
	ret
	.cfi_endproc
.LFE42:
	.size	init_alias_once, .-init_alias_once
	.globl	init_alias_analysis
	.type	init_alias_analysis, @function
init_alias_analysis:
.LFB43:
	.loc 1 2458 0
	.cfi_startproc
	pushq	%rbp	#
	.cfi_def_cfa_offset 16
	.cfi_offset 6, -16
	movq	%rsp, %rbp	#,
	.cfi_def_cfa_register 6
	pushq	%rbx	#
	subq	$88, %rsp	#,
	.cfi_offset 3, -24
	.loc 1 2459 0
	call	max_reg_num	#
	movl	%eax, -76(%rbp)	# tmp306, maxreg
	.loc 1 2465 0
	movl	-76(%rbp), %eax	# maxreg, maxreg.167
	movl	%eax, reg_known_value_size(%rip)	# maxreg.167, reg_known_value_size
	.loc 1 2468 0
	movl	-76(%rbp), %eax	# maxreg, tmp307
	subl	$53, %eax	#, D.16804
	cltq
	movl	$8, %esi	#,
	movq	%rax, %rdi	# D.16805,
	call	xcalloc	#
	.loc 1 2469 0
	subq	$424, %rax	#, reg_known_value.168
	.loc 1 2468 0
	movq	%rax, reg_known_value(%rip)	# reg_known_value.168, reg_known_value
	.loc 1 2471 0
	movl	-76(%rbp), %eax	# maxreg, tmp309
	subl	$53, %eax	#, D.16804
	cltq
	movl	$1, %esi	#,
	movq	%rax, %rdi	# D.16805,
	call	xcalloc	#
	.loc 1 2472 0
	subq	$53, %rax	#, reg_known_equiv_p.169
	.loc 1 2471 0
	movq	%rax, reg_known_equiv_p(%rip)	# reg_known_equiv_p.169, reg_known_equiv_p
	.loc 1 2477 0
	movl	-76(%rbp), %eax	# maxreg, tmp311
	addl	%eax, %eax	# D.16804
	movl	%eax, reg_base_value_size(%rip)	# reg_base_value_size.170, reg_base_value_size
	.loc 1 2478 0
	movl	reg_base_value_size(%rip), %eax	# reg_base_value_size, reg_base_value_size.171
	movl	%eax, %eax	# reg_base_value_size.171, D.16805
	movl	$8, %esi	#,
	movq	%rax, %rdi	# D.16805,
	call	xcalloc	#
	movq	%rax, reg_base_value(%rip)	# reg_base_value.172, reg_base_value
	.loc 1 2479 0
	movl	reg_base_value_size(%rip), %eax	# reg_base_value_size, reg_base_value_size.173
	movl	%eax, %edx	# reg_base_value_size.173, reg_base_value_size.174
	movq	reg_base_value(%rip), %rax	# reg_base_value, reg_base_value.175
	movl	%edx, %esi	# reg_base_value_size.174,
	movq	%rax, %rdi	# reg_base_value.175,
	call	ggc_add_rtx_root	#
	.loc 1 2481 0
	movl	reg_base_value_size(%rip), %eax	# reg_base_value_size, reg_base_value_size.176
	movl	%eax, %eax	# reg_base_value_size.176, D.16805
	salq	$3, %rax	#, D.16805
	movq	%rax, %rdi	# D.16805,
	call	xmalloc	#
	movq	%rax, new_reg_base_value(%rip)	# new_reg_base_value.177, new_reg_base_value
	.loc 1 2482 0
	movl	reg_base_value_size(%rip), %eax	# reg_base_value_size, reg_base_value_size.178
	movl	%eax, %eax	# reg_base_value_size.178, D.16805
	movq	%rax, %rdi	# D.16805,
	call	xmalloc	#
	movq	%rax, reg_seen(%rip)	# reg_seen.179, reg_seen
	.loc 1 2483 0
	movl	reload_completed(%rip), %eax	# reload_completed, reload_completed.180
	testl	%eax, %eax	# reload_completed.180
	jne	.L679	#,
	.loc 1 2483 0 is_stmt 0 discriminator 1
	movl	flag_unroll_loops(%rip), %eax	# flag_unroll_loops, flag_unroll_loops.181
	testl	%eax, %eax	# flag_unroll_loops.181
	je	.L679	#,
	.loc 1 2486 0 is_stmt 1
	movl	reg_base_value_size(%rip), %eax	# reg_base_value_size, reg_base_value_size.182
	movl	%eax, %eax	# reg_base_value_size.182, D.16805
	leaq	0(,%rax,8), %rdx	#, D.16805
	movq	alias_invariant(%rip), %rax	# alias_invariant, alias_invariant.183
	movq	%rdx, %rsi	# D.16805,
	movq	%rax, %rdi	# alias_invariant.183,
	call	xrealloc	#
	movq	%rax, alias_invariant(%rip)	# alias_invariant.184, alias_invariant
	.loc 1 2488 0
	movl	reg_base_value_size(%rip), %eax	# reg_base_value_size, reg_base_value_size.185
	movl	%eax, %eax	# reg_base_value_size.185, D.16805
	leaq	0(,%rax,8), %rdx	#, D.16805
	movq	alias_invariant(%rip), %rax	# alias_invariant, alias_invariant.186
	movl	$0, %esi	#,
	movq	%rax, %rdi	# alias_invariant.186,
	call	memset	#
.L679:
	.loc 1 2510 0
	movl	$0, -88(%rbp)	#, pass
.L713:
	.loc 1 2514 0
	movl	$0, -92(%rbp)	#, changed
	.loc 1 2518 0
	movl	$0, unique_id(%rip)	#, unique_id
	.loc 1 2522 0
	movl	$1, copying_arguments(%rip)	#, copying_arguments
	.loc 1 2525 0
	movl	reg_base_value_size(%rip), %eax	# reg_base_value_size, reg_base_value_size.187
	movl	%eax, %eax	# reg_base_value_size.187, D.16805
	leaq	0(,%rax,8), %rdx	#, D.16805
	movq	new_reg_base_value(%rip), %rax	# new_reg_base_value, new_reg_base_value.188
	movl	$0, %esi	#,
	movq	%rax, %rdi	# new_reg_base_value.188,
	call	memset	#
	.loc 1 2528 0
	movl	reg_base_value_size(%rip), %eax	# reg_base_value_size, reg_base_value_size.189
	movl	%eax, %edx	# reg_base_value_size.189, D.16805
	movq	reg_seen(%rip), %rax	# reg_seen, reg_seen.190
	movl	$0, %esi	#,
	movq	%rax, %rdi	# reg_seen.190,
	call	memset	#
	.loc 1 2538 0
	movl	$0, -84(%rbp)	#, i
	jmp	.L680	#
.L684:
	.loc 1 2539 0
	movq	argument_registers(%rip), %rdx	# argument_registers, argument_registers.191
	movl	-84(%rbp), %eax	# i, tmp315
	movl	%eax, %ecx	# tmp315, tmp383
	shrq	%cl, %rdx	# tmp383, D.16805
	movq	%rdx, %rax	# D.16805, D.16805
	andl	$1, %eax	#, D.16805
	testq	%rax, %rax	# D.16805
	je	.L681	#,
	.loc 1 2540 0
	movq	new_reg_base_value(%rip), %rax	# new_reg_base_value, new_reg_base_value.192
	movl	-84(%rbp), %edx	# i, tmp316
	movslq	%edx, %rdx	# tmp316, D.16805
	salq	$3, %rdx	#, D.16805
	leaq	(%rax,%rdx), %rbx	#, D.16807
	movl	target_flags(%rip), %eax	# target_flags, target_flags.194
	andl	$33554432, %eax	#, D.16804
	testl	%eax, %eax	# D.16804
	je	.L682	#,
	.loc 1 2540 0 is_stmt 0 discriminator 1
	movl	$5, %eax	#, iftmp.193
	jmp	.L683	#
.L682:
	.loc 1 2540 0 discriminator 2
	movl	$4, %eax	#, iftmp.193
.L683:
	.loc 1 2540 0 discriminator 3
	movl	-84(%rbp), %edx	# i, tmp317
	movl	%edx, %esi	# tmp317,
	movl	%eax, %edi	# iftmp.193,
	call	gen_rtx_REG	#
	movq	%rax, %rdx	# D.16808,
	movl	$0, %esi	#,
	movl	$25, %edi	#,
	call	gen_rtx_fmt_e	#
	movq	%rax, (%rbx)	# D.16808, *_72
.L681:
	.loc 1 2538 0 is_stmt 1
	addl	$1, -84(%rbp)	#, i
.L680:
	.loc 1 2538 0 is_stmt 0 discriminator 1
	cmpl	$52, -84(%rbp)	#, i
	jle	.L684	#,
	.loc 1 2543 0 is_stmt 1
	movq	new_reg_base_value(%rip), %rax	# new_reg_base_value, new_reg_base_value.195
	leaq	56(%rax), %rbx	#, D.16807
	.loc 1 2544 0
	movq	global_rtl+16(%rip), %rdx	# global_rtl, D.16808
	movl	target_flags(%rip), %eax	# target_flags, target_flags.197
	andl	$33554432, %eax	#, D.16804
	testl	%eax, %eax	# D.16804
	je	.L685	#,
	.loc 1 2544 0 is_stmt 0 discriminator 1
	movl	$5, %eax	#, iftmp.196
	jmp	.L686	#
.L685:
	.loc 1 2544 0 discriminator 2
	movl	$4, %eax	#, iftmp.196
.L686:
	.loc 1 2544 0 discriminator 3
	movl	%eax, %esi	# iftmp.196,
	movl	$25, %edi	#,
	call	gen_rtx_fmt_e	#
	movq	%rax, (%rbx)	# D.16808, *_81
	.loc 1 2545 0 is_stmt 1 discriminator 3
	movq	new_reg_base_value(%rip), %rax	# new_reg_base_value, new_reg_base_value.198
	leaq	128(%rax), %rbx	#, D.16807
	.loc 1 2546 0 discriminator 3
	movq	global_rtl+40(%rip), %rdx	# global_rtl, D.16808
	movl	target_flags(%rip), %eax	# target_flags, target_flags.200
	andl	$33554432, %eax	#, D.16804
	testl	%eax, %eax	# D.16804
	je	.L687	#,
	.loc 1 2546 0 is_stmt 0 discriminator 1
	movl	$5, %eax	#, iftmp.199
	jmp	.L688	#
.L687:
	.loc 1 2546 0 discriminator 2
	movl	$4, %eax	#, iftmp.199
.L688:
	.loc 1 2546 0 discriminator 3
	movl	%eax, %esi	# iftmp.199,
	movl	$25, %edi	#,
	call	gen_rtx_fmt_e	#
	movq	%rax, (%rbx)	# D.16808, *_89
	.loc 1 2547 0 is_stmt 1 discriminator 3
	movq	new_reg_base_value(%rip), %rax	# new_reg_base_value, new_reg_base_value.201
	leaq	160(%rax), %rbx	#, D.16807
	.loc 1 2548 0 discriminator 3
	movq	global_rtl+24(%rip), %rdx	# global_rtl, D.16808
	movl	target_flags(%rip), %eax	# target_flags, target_flags.203
	andl	$33554432, %eax	#, D.16804
	testl	%eax, %eax	# D.16804
	je	.L689	#,
	.loc 1 2548 0 is_stmt 0 discriminator 1
	movl	$5, %eax	#, iftmp.202
	jmp	.L690	#
.L689:
	.loc 1 2548 0 discriminator 2
	movl	$4, %eax	#, iftmp.202
.L690:
	.loc 1 2548 0 discriminator 3
	movl	%eax, %esi	# iftmp.202,
	movl	$25, %edi	#,
	call	gen_rtx_fmt_e	#
	movq	%rax, (%rbx)	# D.16808, *_97
	.loc 1 2550 0 is_stmt 1 discriminator 3
	movq	new_reg_base_value(%rip), %rax	# new_reg_base_value, new_reg_base_value.204
	leaq	48(%rax), %rbx	#, D.16807
	.loc 1 2551 0 discriminator 3
	movq	global_rtl+32(%rip), %rdx	# global_rtl, D.16808
	movl	target_flags(%rip), %eax	# target_flags, target_flags.206
	andl	$33554432, %eax	#, D.16804
	testl	%eax, %eax	# D.16804
	je	.L691	#,
	.loc 1 2551 0 is_stmt 0 discriminator 1
	movl	$5, %eax	#, iftmp.205
	jmp	.L692	#
.L691:
	.loc 1 2551 0 discriminator 2
	movl	$4, %eax	#, iftmp.205
.L692:
	.loc 1 2551 0 discriminator 3
	movl	%eax, %esi	# iftmp.205,
	movl	$25, %edi	#,
	call	gen_rtx_fmt_e	#
	movq	%rax, (%rbx)	# D.16808, *_105
	.loc 1 2555 0 is_stmt 1 discriminator 3
	call	get_insns	#
	movq	%rax, -64(%rbp)	# tmp318, insn
	jmp	.L693	#
.L708:
	.loc 1 2557 0
	movq	-64(%rbp), %rax	# insn, tmp319
	movzwl	(%rax), %eax	# insn_11->code, D.16809
	movzwl	%ax, %eax	# D.16809, D.16804
	cltq
	movzbl	rtx_class(%rax), %eax	# rtx_class, D.16810
	cmpb	$105, %al	#, D.16810
	jne	.L694	#,
.LBB24:
	.loc 1 2566 0
	movl	reload_completed(%rip), %eax	# reload_completed, reload_completed.207
	testl	%eax, %eax	# reload_completed.207
	je	.L695	#,
	.loc 1 2567 0
	movq	-64(%rbp), %rax	# insn, tmp321
	movq	%rax, %rdi	# tmp321,
	call	prologue_epilogue_contains	#
	testl	%eax, %eax	# D.16804
	je	.L695	#,
	.loc 1 2568 0
	jmp	.L696	#
.L695:
	.loc 1 2575 0
	movq	-64(%rbp), %rax	# insn, tmp322
	movq	32(%rax), %rax	# insn_11->fld[3].rtx, D.16808
	movzwl	(%rax), %eax	# _118->code, D.16809
	cmpw	$47, %ax	#, D.16809
	jne	.L697	#,
	.loc 1 2576 0
	movq	-64(%rbp), %rax	# insn, tmp323
	movq	56(%rax), %rax	# insn_11->fld[6].rtx, D.16808
	testq	%rax, %rax	# D.16808
	je	.L697	#,
	.loc 1 2577 0
	movq	-64(%rbp), %rax	# insn, tmp324
	movl	$0, %edx	#,
	movl	$18, %esi	#,
	movq	%rax, %rdi	# tmp324,
	call	find_reg_note	#
	testq	%rax, %rax	# D.16808
	je	.L697	#,
	.loc 1 2578 0
	movq	-64(%rbp), %rax	# insn, tmp325
	movq	32(%rax), %rax	# insn_11->fld[3].rtx, D.16808
	movq	8(%rax), %rax	# _122->fld[0].rtx, D.16808
	movl	$0, %edx	#,
	movl	$0, %esi	#,
	movq	%rax, %rdi	# D.16808,
	call	record_set	#
	jmp	.L698	#
.L697:
	.loc 1 2580 0
	movq	-64(%rbp), %rax	# insn, tmp326
	movq	32(%rax), %rax	# insn_11->fld[3].rtx, D.16808
	movl	$0, %edx	#,
	movl	$record_set, %esi	#,
	movq	%rax, %rdi	# D.16808,
	call	note_stores	#
.L698:
	.loc 1 2582 0
	movq	-64(%rbp), %rax	# insn, tmp327
	movzwl	(%rax), %eax	# insn_11->code, D.16809
	movzwl	%ax, %eax	# D.16809, D.16804
	cltq
	movzbl	rtx_class(%rax), %eax	# rtx_class, D.16810
	cmpb	$105, %al	#, D.16810
	jne	.L699	#,
	.loc 1 2582 0 is_stmt 0 discriminator 1
	movq	-64(%rbp), %rax	# insn, tmp329
	movq	32(%rax), %rax	# insn_11->fld[3].rtx, D.16808
	movzwl	(%rax), %eax	# _128->code, D.16809
	cmpw	$47, %ax	#, D.16809
	jne	.L700	#,
	.loc 1 2582 0 discriminator 3
	movq	-64(%rbp), %rax	# insn, tmp330
	movq	32(%rax), %rax	# insn_11->fld[3].rtx, iftmp.209
	jmp	.L702	#
.L700:
	.loc 1 2582 0 discriminator 4
	movq	-64(%rbp), %rax	# insn, tmp331
	movq	32(%rax), %rdx	# insn_11->fld[3].rtx, D.16808
	movq	-64(%rbp), %rax	# insn, tmp332
	movq	%rdx, %rsi	# D.16808,
	movq	%rax, %rdi	# tmp332,
	call	single_set_2	#
	jmp	.L702	#
.L699:
	.loc 1 2582 0 discriminator 2
	movl	$0, %eax	#, iftmp.208
.L702:
	.loc 1 2582 0 discriminator 5
	movq	%rax, -48(%rbp)	# iftmp.208, set
	.loc 1 2584 0 is_stmt 1 discriminator 5
	cmpq	$0, -48(%rbp)	#, set
	je	.L703	#,
	.loc 1 2585 0
	movq	-48(%rbp), %rax	# set, tmp333
	movq	8(%rax), %rax	# set_135->fld[0].rtx, D.16808
	movzwl	(%rax), %eax	# _136->code, D.16809
	cmpw	$61, %ax	#, D.16809
	jne	.L703	#,
	.loc 1 2586 0
	movq	-48(%rbp), %rax	# set, tmp334
	movq	8(%rax), %rax	# set_135->fld[0].rtx, D.16808
	movl	8(%rax), %eax	# _138->fld[0].rtuint, D.16811
	cmpl	$52, %eax	#, D.16811
	jbe	.L703	#,
.LBB25:
	.loc 1 2588 0
	movq	-48(%rbp), %rax	# set, tmp335
	movq	8(%rax), %rax	# set_135->fld[0].rtx, D.16808
	movl	8(%rax), %eax	# _140->fld[0].rtuint, tmp336
	movl	%eax, -72(%rbp)	# tmp336, regno
	.loc 1 2589 0
	movq	-48(%rbp), %rax	# set, tmp337
	movq	16(%rax), %rax	# set_135->fld[1].rtx, tmp338
	movq	%rax, -40(%rbp)	# tmp338, src
	.loc 1 2591 0
	movq	-64(%rbp), %rax	# insn, tmp339
	movq	56(%rax), %rax	# insn_11->fld[6].rtx, D.16808
	testq	%rax, %rax	# D.16808
	je	.L704	#,
	.loc 1 2592 0
	movq	-64(%rbp), %rax	# insn, tmp340
	movl	$0, %edx	#,
	movl	$4, %esi	#,
	movq	%rax, %rdi	# tmp340,
	call	find_reg_note	#
	movq	%rax, -56(%rbp)	# tmp341, note
	cmpq	$0, -56(%rbp)	#, note
	je	.L705	#,
	.loc 1 2593 0
	movq	reg_n_info(%rip), %rax	# reg_n_info, reg_n_info.210
	movl	-72(%rbp), %edx	# regno, tmp342
	addq	$4, %rdx	#, tmp343
	movq	(%rax,%rdx,8), %rax	# reg_n_info.210_145->data.reg, D.16812
	movl	12(%rax), %eax	# _146->sets, D.16804
	cmpl	$1, %eax	#, D.16804
	je	.L706	#,
.L705:
	.loc 1 2594 0
	movq	-64(%rbp), %rax	# insn, tmp344
	movl	$0, %edx	#,
	movl	$3, %esi	#,
	movq	%rax, %rdi	# tmp344,
	call	find_reg_note	#
	movq	%rax, -56(%rbp)	# tmp345, note
	cmpq	$0, -56(%rbp)	#, note
	je	.L704	#,
.L706:
	.loc 1 2595 0
	movq	-56(%rbp), %rax	# note, tmp346
	movq	8(%rax), %rax	# note_12->fld[0].rtx, D.16808
	movzwl	(%rax), %eax	# _149->code, D.16809
	cmpw	$3, %ax	#, D.16809
	je	.L704	#,
	.loc 1 2596 0
	movq	-56(%rbp), %rax	# note, tmp347
	movq	8(%rax), %rax	# note_12->fld[0].rtx, D.16808
	movl	$1, %esi	#,
	movq	%rax, %rdi	# D.16808,
	call	rtx_varies_p	#
	testl	%eax, %eax	# D.16804
	jne	.L704	#,
	.loc 1 2597 0
	movq	-56(%rbp), %rax	# note, tmp348
	movq	8(%rax), %rdx	# note_12->fld[0].rtx, D.16808
	movq	-48(%rbp), %rax	# set, tmp349
	movq	8(%rax), %rax	# set_135->fld[0].rtx, D.16808
	movq	%rdx, %rsi	# D.16808,
	movq	%rax, %rdi	# D.16808,
	call	reg_overlap_mentioned_p	#
	testl	%eax, %eax	# D.16804
	jne	.L704	#,
	.loc 1 2599 0
	movq	reg_known_value(%rip), %rax	# reg_known_value, reg_known_value.211
	movl	-72(%rbp), %edx	# regno, D.16805
	salq	$3, %rdx	#, D.16805
	addq	%rax, %rdx	# reg_known_value.211, D.16807
	movq	-56(%rbp), %rax	# note, tmp350
	movq	8(%rax), %rax	# note_12->fld[0].rtx, D.16808
	movq	%rax, (%rdx)	# D.16808, *_159
	.loc 1 2600 0
	movq	reg_known_equiv_p(%rip), %rdx	# reg_known_equiv_p, reg_known_equiv_p.212
	movl	-72(%rbp), %eax	# regno, D.16813
	addq	%rax, %rdx	# D.16813, D.16814
	movq	-56(%rbp), %rax	# note, tmp351
	movzbl	2(%rax), %eax	# note_12->mode, D.16815
	cmpb	$3, %al	#, D.16815
	sete	%al	#, D.16816
	movb	%al, (%rdx)	# D.16810, *_163
	jmp	.L703	#
.L704:
	.loc 1 2602 0
	movq	reg_n_info(%rip), %rax	# reg_n_info, reg_n_info.213
	movl	-72(%rbp), %edx	# regno, tmp352
	addq	$4, %rdx	#, tmp353
	movq	(%rax,%rdx,8), %rax	# reg_n_info.213_167->data.reg, D.16812
	movl	12(%rax), %eax	# _168->sets, D.16804
	cmpl	$1, %eax	#, D.16804
	jne	.L707	#,
	.loc 1 2603 0
	movq	-40(%rbp), %rax	# src, tmp354
	movzwl	(%rax), %eax	# src_142->code, D.16809
	cmpw	$75, %ax	#, D.16809
	jne	.L707	#,
	.loc 1 2604 0
	movq	-40(%rbp), %rax	# src, tmp355
	movq	8(%rax), %rax	# src_142->fld[0].rtx, D.16808
	movzwl	(%rax), %eax	# _171->code, D.16809
	cmpw	$61, %ax	#, D.16809
	jne	.L707	#,
	.loc 1 2605 0
	movq	-40(%rbp), %rax	# src, tmp356
	movq	8(%rax), %rax	# src_142->fld[0].rtx, D.16808
	movl	8(%rax), %eax	# _173->fld[0].rtuint, D.16811
	cmpl	$52, %eax	#, D.16811
	jbe	.L707	#,
	.loc 1 2606 0
	movq	reg_known_value(%rip), %rdx	# reg_known_value, reg_known_value.214
	movq	-40(%rbp), %rax	# src, tmp357
	movq	8(%rax), %rax	# src_142->fld[0].rtx, D.16808
	movl	8(%rax), %eax	# _176->fld[0].rtuint, D.16811
	movl	%eax, %eax	# D.16811, D.16805
	salq	$3, %rax	#, D.16805
	addq	%rdx, %rax	# reg_known_value.214, D.16807
	movq	(%rax), %rax	# *_180, D.16808
	testq	%rax, %rax	# D.16808
	je	.L707	#,
	.loc 1 2607 0
	movq	-40(%rbp), %rax	# src, tmp358
	movq	16(%rax), %rax	# src_142->fld[1].rtx, D.16808
	movzwl	(%rax), %eax	# _182->code, D.16809
	cmpw	$54, %ax	#, D.16809
	jne	.L707	#,
.LBB26:
	.loc 1 2609 0
	movq	-40(%rbp), %rax	# src, tmp359
	movq	8(%rax), %rax	# src_142->fld[0].rtx, tmp360
	movq	%rax, -32(%rbp)	# tmp360, op0
	.loc 1 2610 0
	movq	reg_known_value(%rip), %rdx	# reg_known_value, reg_known_value.215
	movq	-32(%rbp), %rax	# op0, tmp361
	movl	8(%rax), %eax	# op0_184->fld[0].rtuint, D.16811
	movl	%eax, %eax	# D.16811, D.16805
	salq	$3, %rax	#, D.16805
	addq	%rdx, %rax	# reg_known_value.215, D.16807
	movq	(%rax), %rax	# *_189, tmp362
	movq	%rax, -32(%rbp)	# tmp362, op0
	.loc 1 2611 0
	movq	reg_known_value(%rip), %rax	# reg_known_value, reg_known_value.216
	movl	-72(%rbp), %edx	# regno, D.16805
	salq	$3, %rdx	#, D.16805
	leaq	(%rax,%rdx), %rbx	#, D.16807
	.loc 1 2612 0
	movq	-40(%rbp), %rax	# src, tmp363
	movq	16(%rax), %rax	# src_142->fld[1].rtx, D.16808
	movq	8(%rax), %rdx	# _195->fld[0].rtwint, D.16817
	movq	-32(%rbp), %rax	# op0, tmp364
	movq	%rdx, %rsi	# D.16817,
	movq	%rax, %rdi	# tmp364,
	call	plus_constant_wide	#
	movq	%rax, (%rbx)	# D.16808, *_194
	.loc 1 2613 0
	movq	reg_known_equiv_p(%rip), %rdx	# reg_known_equiv_p, reg_known_equiv_p.217
	movl	-72(%rbp), %eax	# regno, D.16813
	addq	%rdx, %rax	# reg_known_equiv_p.217, D.16814
	movb	$0, (%rax)	#, *_200
.LBE26:
	.loc 1 2608 0
	jmp	.L703	#
.L707:
	.loc 1 2615 0
	movq	reg_n_info(%rip), %rax	# reg_n_info, reg_n_info.218
	movl	-72(%rbp), %edx	# regno, tmp365
	addq	$4, %rdx	#, tmp366
	movq	(%rax,%rdx,8), %rax	# reg_n_info.218_201->data.reg, D.16812
	movl	12(%rax), %eax	# _202->sets, D.16804
	cmpl	$1, %eax	#, D.16804
	jne	.L703	#,
	.loc 1 2616 0
	movq	-40(%rbp), %rax	# src, tmp367
	movl	$1, %esi	#,
	movq	%rax, %rdi	# tmp367,
	call	rtx_varies_p	#
	testl	%eax, %eax	# D.16804
	jne	.L703	#,
	.loc 1 2618 0
	movq	reg_known_value(%rip), %rax	# reg_known_value, reg_known_value.219
	movl	-72(%rbp), %edx	# regno, D.16805
	salq	$3, %rdx	#, D.16805
	addq	%rax, %rdx	# reg_known_value.219, D.16807
	movq	-40(%rbp), %rax	# src, tmp368
	movq	%rax, (%rdx)	# tmp368, *_208
	.loc 1 2619 0
	movq	reg_known_equiv_p(%rip), %rdx	# reg_known_equiv_p, reg_known_equiv_p.220
	movl	-72(%rbp), %eax	# regno, D.16813
	addq	%rdx, %rax	# reg_known_equiv_p.220, D.16814
	movb	$0, (%rax)	#, *_211
.LBE25:
.LBE24:
	jmp	.L696	#
.L703:
	jmp	.L696	#
.L694:
	.loc 1 2623 0
	movq	-64(%rbp), %rax	# insn, tmp369
	movzwl	(%rax), %eax	# insn_11->code, D.16809
	cmpw	$37, %ax	#, D.16809
	jne	.L696	#,
	.loc 1 2624 0
	movq	-64(%rbp), %rax	# insn, tmp370
	movl	40(%rax), %eax	# insn_11->fld[4].rtint, D.16804
	cmpl	$-87, %eax	#, D.16804
	jne	.L696	#,
	.loc 1 2625 0
	movl	$0, copying_arguments(%rip)	#, copying_arguments
.L696:
	.loc 1 2555 0
	movq	-64(%rbp), %rax	# insn, tmp371
	movq	24(%rax), %rax	# insn_11->fld[2].rtx, tmp372
	movq	%rax, -64(%rbp)	# tmp372, insn
.L693:
	.loc 1 2555 0 is_stmt 0 discriminator 1
	cmpq	$0, -64(%rbp)	#, insn
	jne	.L708	#,
	.loc 1 2629 0 is_stmt 1
	movl	$0, -80(%rbp)	#, ui
	jmp	.L709	#
.L711:
	.loc 1 2631 0
	movq	new_reg_base_value(%rip), %rax	# new_reg_base_value, new_reg_base_value.221
	movl	-80(%rbp), %edx	# ui, D.16805
	salq	$3, %rdx	#, D.16805
	addq	%rdx, %rax	# D.16805, D.16807
	movq	(%rax), %rax	# *_220, D.16808
	testq	%rax, %rax	# D.16808
	je	.L710	#,
	.loc 1 2632 0
	movq	new_reg_base_value(%rip), %rax	# new_reg_base_value, new_reg_base_value.222
	movl	-80(%rbp), %edx	# ui, D.16805
	salq	$3, %rdx	#, D.16805
	addq	%rdx, %rax	# D.16805, D.16807
	movq	(%rax), %rdx	# *_225, D.16808
	movq	reg_base_value(%rip), %rax	# reg_base_value, reg_base_value.223
	movl	-80(%rbp), %ecx	# ui, D.16805
	salq	$3, %rcx	#, D.16805
	addq	%rcx, %rax	# D.16805, D.16807
	movq	(%rax), %rax	# *_230, D.16808
	cmpq	%rax, %rdx	# D.16808, D.16808
	je	.L710	#,
	.loc 1 2633 0
	movq	reg_base_value(%rip), %rax	# reg_base_value, reg_base_value.224
	movl	-80(%rbp), %edx	# ui, D.16805
	salq	$3, %rdx	#, D.16805
	addq	%rdx, %rax	# D.16805, D.16807
	movq	(%rax), %rdx	# *_235, D.16808
	movq	new_reg_base_value(%rip), %rax	# new_reg_base_value, new_reg_base_value.225
	movl	-80(%rbp), %ecx	# ui, D.16805
	salq	$3, %rcx	#, D.16805
	addq	%rcx, %rax	# D.16805, D.16807
	movq	(%rax), %rax	# *_240, D.16808
	movq	%rdx, %rsi	# D.16808,
	movq	%rax, %rdi	# D.16808,
	call	rtx_equal_p	#
	testl	%eax, %eax	# D.16804
	jne	.L710	#,
	.loc 1 2635 0
	movq	reg_base_value(%rip), %rax	# reg_base_value, reg_base_value.226
	movl	-80(%rbp), %edx	# ui, D.16805
	salq	$3, %rdx	#, D.16805
	addq	%rax, %rdx	# reg_base_value.226, D.16807
	movq	new_reg_base_value(%rip), %rax	# new_reg_base_value, new_reg_base_value.227
	movl	-80(%rbp), %ecx	# ui, D.16805
	salq	$3, %rcx	#, D.16805
	addq	%rcx, %rax	# D.16805, D.16807
	movq	(%rax), %rax	# *_250, D.16808
	movq	%rax, (%rdx)	# D.16808, *_246
	.loc 1 2636 0
	movl	$1, -92(%rbp)	#, changed
.L710:
	.loc 1 2629 0
	addl	$1, -80(%rbp)	#, ui
.L709:
	.loc 1 2629 0 is_stmt 0 discriminator 1
	movl	reg_base_value_size(%rip), %eax	# reg_base_value_size, reg_base_value_size.228
	cmpl	%eax, -80(%rbp)	# reg_base_value_size.228, ui
	jb	.L711	#,
	.loc 1 2640 0 is_stmt 1
	cmpl	$0, -92(%rbp)	#, changed
	je	.L712	#,
	.loc 1 2640 0 is_stmt 0 discriminator 1
	addl	$1, -88(%rbp)	#, pass
	cmpl	$9, -88(%rbp)	#, pass
	jle	.L713	#,
.L712:
	.loc 1 2643 0 is_stmt 1
	movl	$53, -84(%rbp)	#, i
	jmp	.L714	#
.L716:
	.loc 1 2644 0
	movq	reg_known_value(%rip), %rax	# reg_known_value, reg_known_value.229
	movl	-84(%rbp), %edx	# i, tmp373
	movslq	%edx, %rdx	# tmp373, D.16805
	salq	$3, %rdx	#, D.16805
	addq	%rdx, %rax	# D.16805, D.16807
	movq	(%rax), %rax	# *_259, D.16808
	testq	%rax, %rax	# D.16808
	jne	.L715	#,
	.loc 1 2645 0
	movq	reg_known_value(%rip), %rax	# reg_known_value, reg_known_value.230
	movl	-84(%rbp), %edx	# i, tmp374
	movslq	%edx, %rdx	# tmp374, D.16805
	salq	$3, %rdx	#, D.16805
	addq	%rax, %rdx	# reg_known_value.230, D.16807
	movq	cfun(%rip), %rax	# cfun, cfun.231
	movq	24(%rax), %rax	# cfun.231_265->emit, D.16818
	movq	80(%rax), %rax	# _266->x_regno_reg_rtx, D.16807
	movl	-84(%rbp), %ecx	# i, tmp375
	movslq	%ecx, %rcx	# tmp375, D.16805
	salq	$3, %rcx	#, D.16805
	addq	%rcx, %rax	# D.16805, D.16807
	movq	(%rax), %rax	# *_270, D.16808
	movq	%rax, (%rdx)	# D.16808, *_264
.L715:
	.loc 1 2643 0
	addl	$1, -84(%rbp)	#, i
.L714:
	.loc 1 2643 0 is_stmt 0 discriminator 1
	movl	-84(%rbp), %eax	# i, tmp376
	cmpl	-76(%rbp), %eax	# maxreg, tmp376
	jl	.L716	#,
	.loc 1 2657 0 is_stmt 1
	movl	$0, -88(%rbp)	#, pass
.L723:
	.loc 1 2660 0
	movl	$0, -92(%rbp)	#, changed
	.loc 1 2661 0
	addl	$1, -88(%rbp)	#, pass
	.loc 1 2662 0
	movl	$0, -80(%rbp)	#, ui
	jmp	.L717	#
.L721:
.LBB27:
	.loc 1 2664 0
	movq	reg_base_value(%rip), %rax	# reg_base_value, reg_base_value.232
	movl	-80(%rbp), %edx	# ui, D.16805
	salq	$3, %rdx	#, D.16805
	addq	%rdx, %rax	# D.16805, D.16807
	movq	(%rax), %rax	# *_281, tmp377
	movq	%rax, -24(%rbp)	# tmp377, base
	.loc 1 2665 0
	cmpq	$0, -24(%rbp)	#, base
	je	.L718	#,
	.loc 1 2665 0 is_stmt 0 discriminator 1
	movq	-24(%rbp), %rax	# base, tmp378
	movzwl	(%rax), %eax	# base_282->code, D.16809
	cmpw	$61, %ax	#, D.16809
	jne	.L718	#,
.LBB28:
	.loc 1 2667 0 is_stmt 1
	movq	-24(%rbp), %rax	# base, tmp379
	movl	8(%rax), %eax	# base_282->fld[0].rtuint, tmp380
	movl	%eax, -68(%rbp)	# tmp380, base_regno
	.loc 1 2668 0
	movl	-68(%rbp), %eax	# base_regno, tmp381
	cmpl	-80(%rbp), %eax	# ui, tmp381
	jne	.L719	#,
	.loc 1 2669 0
	movq	reg_base_value(%rip), %rax	# reg_base_value, reg_base_value.233
	movl	-80(%rbp), %edx	# ui, D.16805
	salq	$3, %rdx	#, D.16805
	addq	%rdx, %rax	# D.16805, D.16807
	movq	$0, (%rax)	#, *_288
	jmp	.L720	#
.L719:
	.loc 1 2671 0
	movq	reg_base_value(%rip), %rax	# reg_base_value, reg_base_value.234
	movl	-80(%rbp), %edx	# ui, D.16805
	salq	$3, %rdx	#, D.16805
	addq	%rax, %rdx	# reg_base_value.234, D.16807
	movq	reg_base_value(%rip), %rax	# reg_base_value, reg_base_value.235
	movl	-68(%rbp), %ecx	# base_regno, D.16805
	salq	$3, %rcx	#, D.16805
	addq	%rcx, %rax	# D.16805, D.16807
	movq	(%rax), %rax	# *_296, D.16808
	movq	%rax, (%rdx)	# D.16808, *_292
.L720:
	.loc 1 2672 0
	movl	$1, -92(%rbp)	#, changed
.L718:
.LBE28:
.LBE27:
	.loc 1 2662 0
	addl	$1, -80(%rbp)	#, ui
.L717:
	.loc 1 2662 0 is_stmt 0 discriminator 1
	movl	reg_base_value_size(%rip), %eax	# reg_base_value_size, reg_base_value_size.236
	cmpl	%eax, -80(%rbp)	# reg_base_value_size.236, ui
	jb	.L721	#,
	.loc 1 2676 0 is_stmt 1
	cmpl	$0, -92(%rbp)	#, changed
	je	.L722	#,
	.loc 1 2676 0 is_stmt 0 discriminator 1
	cmpl	$9, -88(%rbp)	#, pass
	jle	.L723	#,
.L722:
	.loc 1 2679 0 is_stmt 1
	movq	new_reg_base_value(%rip), %rax	# new_reg_base_value, new_reg_base_value.237
	movq	%rax, %rdi	# new_reg_base_value.237,
	call	free	#
	.loc 1 2680 0
	movq	$0, new_reg_base_value(%rip)	#, new_reg_base_value
	.loc 1 2681 0
	movq	reg_seen(%rip), %rax	# reg_seen, reg_seen.238
	movq	%rax, %rdi	# reg_seen.238,
	call	free	#
	.loc 1 2682 0
	movq	$0, reg_seen(%rip)	#, reg_seen
	.loc 1 2683 0
	addq	$88, %rsp	#,
	popq	%rbx	#
	popq	%rbp	#
	.cfi_def_cfa 7, 8
	ret
	.cfi_endproc
.LFE43:
	.size	init_alias_analysis, .-init_alias_analysis
	.globl	end_alias_analysis
	.type	end_alias_analysis, @function
end_alias_analysis:
.LFB44:
	.loc 1 2687 0
	.cfi_startproc
	pushq	%rbp	#
	.cfi_def_cfa_offset 16
	.cfi_offset 6, -16
	movq	%rsp, %rbp	#,
	.cfi_def_cfa_register 6
	.loc 1 2688 0
	movq	reg_known_value(%rip), %rax	# reg_known_value, reg_known_value.239
	addq	$424, %rax	#, D.16819
	movq	%rax, %rdi	# D.16819,
	call	free	#
	.loc 1 2689 0
	movq	$0, reg_known_value(%rip)	#, reg_known_value
	.loc 1 2690 0
	movl	$0, reg_known_value_size(%rip)	#, reg_known_value_size
	.loc 1 2691 0
	movq	reg_known_equiv_p(%rip), %rax	# reg_known_equiv_p, reg_known_equiv_p.240
	addq	$53, %rax	#, D.16819
	movq	%rax, %rdi	# D.16819,
	call	free	#
	.loc 1 2692 0
	movq	$0, reg_known_equiv_p(%rip)	#, reg_known_equiv_p
	.loc 1 2693 0
	movq	reg_base_value(%rip), %rax	# reg_base_value, reg_base_value.241
	testq	%rax, %rax	# reg_base_value.241
	je	.L725	#,
	.loc 1 2695 0
	movq	reg_base_value(%rip), %rax	# reg_base_value, reg_base_value.242
	movq	%rax, %rdi	# reg_base_value.242,
	call	ggc_del_root	#
	.loc 1 2696 0
	movq	reg_base_value(%rip), %rax	# reg_base_value, reg_base_value.243
	movq	%rax, %rdi	# reg_base_value.243,
	call	free	#
	.loc 1 2697 0
	movq	$0, reg_base_value(%rip)	#, reg_base_value
.L725:
	.loc 1 2699 0
	movl	$0, reg_base_value_size(%rip)	#, reg_base_value_size
	.loc 1 2700 0
	movq	alias_invariant(%rip), %rax	# alias_invariant, alias_invariant.244
	testq	%rax, %rax	# alias_invariant.244
	je	.L724	#,
	.loc 1 2702 0
	movq	alias_invariant(%rip), %rax	# alias_invariant, alias_invariant.245
	movq	%rax, %rdi	# alias_invariant.245,
	call	free	#
	.loc 1 2703 0
	movq	$0, alias_invariant(%rip)	#, alias_invariant
.L724:
	.loc 1 2705 0
	popq	%rbp	#
	.cfi_def_cfa 7, 8
	ret
	.cfi_endproc
.LFE44:
	.size	end_alias_analysis, .-end_alias_analysis
	.local	last_alias_set.13366
	.comm	last_alias_set.13366,8,8
	.section	.rodata
	.align 16
	.type	__FUNCTION__.13373, @object
	.size	__FUNCTION__.13373, 20
__FUNCTION__.13373:
	.string	"record_alias_subset"
	.data
	.align 8
	.type	set.13391, @object
	.size	set.13391, 8
set.13391:
	.quad	-1
	.align 8
	.type	set.13394, @object
	.size	set.13394, 8
set.13394:
	.quad	-1
	.section	.rodata
	.type	__FUNCTION__.13433, @object
	.size	__FUNCTION__.13433, 11
__FUNCTION__.13433:
	.string	"record_set"
	.align 16
	.type	__FUNCTION__.13482, @object
	.size	__FUNCTION__.13482, 23
__FUNCTION__.13482:
	.string	"rtx_equal_for_memref_p"
	.text
.Letext0:
	.file 2 "rtl.h"
	.file 3 "config.h"
	.file 4 "tree.h"
	.file 5 "i386.h"
	.file 6 "/usr/lib/gcc/x86_64-linux-gnu/4.8/include/stddef.h"
	.file 7 "/usr/include/x86_64-linux-gnu/bits/types.h"
	.file 8 "/usr/include/stdio.h"
	.file 9 "/usr/include/libio.h"
	.file 10 "machmode.h"
	.file 11 "cselib.h"
	.file 12 "bitmap.h"
	.file 13 "basic-block.h"
	.file 14 "real.h"
	.file 15 "hashtable.h"
	.file 16 "function.h"
	.file 17 "varray.h"
	.file 18 "regs.h"
	.file 19 "hard-reg-set.h"
	.file 20 "splay-tree.h"
	.file 21 "langhooks.h"
	.file 22 "flags.h"
	.section	.note.GNU-stack,"",@progbits
