	.file	"alloca.c"
# GNU C (Ubuntu/Linaro 4.8.1-10ubuntu9) version 4.8.1 (x86_64-linux-gnu)
#	compiled by GNU C version 4.8.1, GMP version 5.1.2, MPFR version 3.1.1-p2, MPC version 1.0.1
# GGC heuristics: --param ggc-min-expand=100 --param ggc-min-heapsize=131072
# options passed:  -I . -imultiarch x86_64-linux-gnu -D SPEC_CPU -D NDEBUG
# -D SPEC_CPU_LP64 alloca.c -mtune=generic -march=x86-64 -g -fverbose-asm
# -fno-strict-aliasing -fstack-protector -Wformat -Wformat-security
# options enabled:  -faggressive-loop-optimizations
# -fasynchronous-unwind-tables -fauto-inc-dec -fbranch-count-reg -fcommon
# -fdelete-null-pointer-checks -fdwarf2-cfi-asm -fearly-inlining
# -feliminate-unused-debug-types -ffunction-cse -fgcse-lm -fgnu-runtime
# -fident -finline-atomics -fira-hoist-pressure -fira-share-save-slots
# -fira-share-spill-slots -fivopts -fkeep-static-consts
# -fleading-underscore -fmath-errno -fmerge-debug-strings
# -fmove-loop-invariants -fpeephole -fprefetch-loop-arrays
# -freg-struct-return -fsched-critical-path-heuristic
# -fsched-dep-count-heuristic -fsched-group-heuristic -fsched-interblock
# -fsched-last-insn-heuristic -fsched-rank-heuristic -fsched-spec
# -fsched-spec-insn-heuristic -fsched-stalled-insns-dep -fshow-column
# -fsigned-zeros -fsplit-ivs-in-unroller -fstack-protector
# -fstrict-volatile-bitfields -fsync-libcalls -ftrapping-math
# -ftree-coalesce-vars -ftree-cselim -ftree-forwprop -ftree-loop-if-convert
# -ftree-loop-im -ftree-loop-ivcanon -ftree-loop-optimize
# -ftree-parallelize-loops= -ftree-phiprop -ftree-pta -ftree-reassoc
# -ftree-scev-cprop -ftree-slp-vectorize -ftree-vect-loop-version
# -funit-at-a-time -funwind-tables -fverbose-asm -fzero-initialized-in-bss
# -m128bit-long-double -m64 -m80387 -maccumulate-outgoing-args
# -malign-stringops -mfancy-math-387 -mfp-ret-in-387 -mfxsr -mglibc
# -mieee-fp -mlong-double-80 -mmmx -mno-sse4 -mpush-args -mred-zone -msse
# -msse2 -mtls-direct-seg-refs

	.text
.Ltext0:
	.local	stack_dir
	.comm	stack_dir,4,4
	.type	find_stack_direction, @function
find_stack_direction:
.LFB2:
	.file 1 "alloca.c"
	.loc 1 93 0
	.cfi_startproc
	pushq	%rbp	#
	.cfi_def_cfa_offset 16
	.cfi_offset 6, -16
	movq	%rsp, %rbp	#,
	.cfi_def_cfa_register 6
	subq	$16, %rsp	#,
	.loc 1 97 0
	movq	addr.4994(%rip), %rax	# addr, addr.0
	testq	%rax, %rax	# addr.0
	jne	.L2	#,
	.loc 1 99 0
	leaq	-1(%rbp), %rax	#, tmp61
	movq	%rax, addr.4994(%rip)	# tmp61, addr
	.loc 1 101 0
	movl	$0, %eax	#,
	call	find_stack_direction	#
	jmp	.L1	#
.L2:
	.loc 1 106 0
	movq	addr.4994(%rip), %rdx	# addr, addr.1
	leaq	-1(%rbp), %rax	#, tmp62
	cmpq	%rax, %rdx	# tmp62, addr.1
	jae	.L4	#,
	.loc 1 107 0
	movl	$1, stack_dir(%rip)	#, stack_dir
	jmp	.L1	#
.L4:
	.loc 1 109 0
	movl	$-1, stack_dir(%rip)	#, stack_dir
.L1:
	.loc 1 111 0
	leave
	.cfi_def_cfa 7, 8
	ret
	.cfi_endproc
.LFE2:
	.size	find_stack_direction, .-find_stack_direction
	.local	last_alloca_header
	.comm	last_alloca_header,8,8
	.globl	C_alloca
	.type	C_alloca, @function
C_alloca:
.LFB3:
	.loc 1 150 0
	.cfi_startproc
	pushq	%rbp	#
	.cfi_def_cfa_offset 16
	.cfi_offset 6, -16
	movq	%rsp, %rbp	#,
	.cfi_def_cfa_register 6
	pushq	%r13	#
	pushq	%r12	#
	pushq	%rbx	#
	subq	$40, %rsp	#,
	.cfi_offset 13, -24
	.cfi_offset 12, -32
	.cfi_offset 3, -40
	movq	%rdi, -56(%rbp)	# size, size
	.loc 1 152 0
	leaq	-33(%rbp), %r12	#, depth
	.loc 1 155 0
	movl	stack_dir(%rip), %eax	# stack_dir, stack_dir.2
	testl	%eax, %eax	# stack_dir.2
	jne	.L6	#,
	.loc 1 156 0
	movl	$0, %eax	#,
	call	find_stack_direction	#
.L6:
.LBB2:
	.loc 1 165 0
	movq	last_alloca_header(%rip), %rbx	# last_alloca_header, hp
	jmp	.L7	#
.L11:
	.loc 1 166 0
	movl	stack_dir(%rip), %eax	# stack_dir, stack_dir.3
	testl	%eax, %eax	# stack_dir.3
	jle	.L8	#,
	.loc 1 166 0 is_stmt 0 discriminator 1
	movq	8(%rbx), %rax	# hp_1->h.deep, D.5047
	cmpq	%r12, %rax	# depth, D.5047
	ja	.L9	#,
.L8:
	.loc 1 167 0 is_stmt 1
	movl	stack_dir(%rip), %eax	# stack_dir, stack_dir.4
	testl	%eax, %eax	# stack_dir.4
	jns	.L10	#,
	.loc 1 167 0 is_stmt 0 discriminator 1
	movq	8(%rbx), %rax	# hp_1->h.deep, D.5047
	cmpq	%r12, %rax	# depth, D.5047
	jae	.L10	#,
.L9:
.LBB3:
	.loc 1 169 0 is_stmt 1
	movq	(%rbx), %r13	# hp_1->h.next, np
	.loc 1 171 0
	movq	%rbx, %rdi	# hp,
	call	free	#
	.loc 1 173 0
	movq	%r13, %rbx	# np, hp
.L7:
.LBE3:
	.loc 1 165 0 discriminator 1
	testq	%rbx, %rbx	# hp
	jne	.L11	#,
.L10:
	.loc 1 178 0
	movq	%rbx, last_alloca_header(%rip)	# hp, last_alloca_header
.LBE2:
	.loc 1 181 0
	cmpq	$0, -56(%rbp)	#, size
	jne	.L12	#,
	.loc 1 182 0
	movl	$0, %eax	#, D.5046
	jmp	.L15	#
.L12:
.LBB4:
	.loc 1 187 0
	movq	-56(%rbp), %rax	# size, tmp72
	addq	$16, %rax	#, D.5048
	movq	%rax, %rdi	# D.5048,
	call	xmalloc	#
	movq	%rax, %rbx	# tmp73, new
	.loc 1 190 0
	testq	%rbx, %rbx	# new
	jne	.L14	#,
	.loc 1 191 0
	call	abort	#
.L14:
	.loc 1 193 0
	movq	last_alloca_header(%rip), %rax	# last_alloca_header, last_alloca_header.5
	movq	%rax, (%rbx)	# last_alloca_header.5, MEM[(union header *)new_15].h.next
	.loc 1 194 0
	movq	%r12, 8(%rbx)	# depth, MEM[(union header *)new_15].h.deep
	.loc 1 196 0
	movq	%rbx, last_alloca_header(%rip)	# new, last_alloca_header
	.loc 1 200 0
	leaq	16(%rbx), %rax	#, D.5046
.L15:
.LBE4:
	.loc 1 202 0
	addq	$40, %rsp	#,
	popq	%rbx	#
	popq	%r12	#
	popq	%r13	#
	popq	%rbp	#
	.cfi_def_cfa 7, 8
	ret
	.cfi_endproc
.LFE3:
	.size	C_alloca, .-C_alloca
	.local	addr.4994
	.comm	addr.4994,8,8
.Letext0:
	.file 2 "/usr/lib/gcc/x86_64-linux-gnu/4.8/include/stddef.h"
	.section	.note.GNU-stack,"",@progbits
