	.file	"c-common.c"
# GNU C (Ubuntu/Linaro 4.8.1-10ubuntu9) version 4.8.1 (x86_64-linux-gnu)
#	compiled by GNU C version 4.8.1, GMP version 5.1.2, MPFR version 3.1.1-p2, MPC version 1.0.1
# GGC heuristics: --param ggc-min-expand=100 --param ggc-min-heapsize=131072
# options passed:  -I . -imultiarch x86_64-linux-gnu -D SPEC_CPU -D NDEBUG
# -D SPEC_CPU_LP64 c-common.c -mtune=generic -march=x86-64 -g -fverbose-asm
# -fno-strict-aliasing -fstack-protector -Wformat -Wformat-security
# options enabled:  -faggressive-loop-optimizations
# -fasynchronous-unwind-tables -fauto-inc-dec -fbranch-count-reg -fcommon
# -fdelete-null-pointer-checks -fdwarf2-cfi-asm -fearly-inlining
# -feliminate-unused-debug-types -ffunction-cse -fgcse-lm -fgnu-runtime
# -fident -finline-atomics -fira-hoist-pressure -fira-share-save-slots
# -fira-share-spill-slots -fivopts -fkeep-static-consts
# -fleading-underscore -fmath-errno -fmerge-debug-strings
# -fmove-loop-invariants -fpeephole -fprefetch-loop-arrays
# -freg-struct-return -fsched-critical-path-heuristic
# -fsched-dep-count-heuristic -fsched-group-heuristic -fsched-interblock
# -fsched-last-insn-heuristic -fsched-rank-heuristic -fsched-spec
# -fsched-spec-insn-heuristic -fsched-stalled-insns-dep -fshow-column
# -fsigned-zeros -fsplit-ivs-in-unroller -fstack-protector
# -fstrict-volatile-bitfields -fsync-libcalls -ftrapping-math
# -ftree-coalesce-vars -ftree-cselim -ftree-forwprop -ftree-loop-if-convert
# -ftree-loop-im -ftree-loop-ivcanon -ftree-loop-optimize
# -ftree-parallelize-loops= -ftree-phiprop -ftree-pta -ftree-reassoc
# -ftree-scev-cprop -ftree-slp-vectorize -ftree-vect-loop-version
# -funit-at-a-time -funwind-tables -fverbose-asm -fzero-initialized-in-bss
# -m128bit-long-double -m64 -m80387 -maccumulate-outgoing-args
# -malign-stringops -mfancy-math-387 -mfp-ret-in-387 -mfxsr -mglibc
# -mieee-fp -mlong-double-80 -mmmx -mno-sse4 -mpush-args -mred-zone -msse
# -msse2 -mtls-direct-seg-refs

	.text
.Ltext0:
	.comm	parse_in,8,8
	.comm	c_language,4,4
	.comm	c_global_trees,256,32
	.comm	flag_no_builtin,4,4
	.comm	flag_no_nonansi_builtin,4,4
	.comm	flag_short_double,4,4
	.comm	flag_short_wchar,4,4
	.comm	warn_sequence_point,4,4
	.globl	warn_div_by_zero
	.data
	.align 4
	.type	warn_div_by_zero, @object
	.size	warn_div_by_zero, 4
warn_div_by_zero:
	.long	1
	.comm	ridpointers,8,8
	.comm	make_fname_decl,8,8
	.comm	lang_statement_code_p,8,8
	.comm	lang_expand_function_end,8,8
	.comm	skip_evaluation,4,4
	.globl	fname_vars
	.section	.rodata
	.align 32
	.type	fname_vars, @object
	.size	fname_vars, 64
fname_vars:
# decl:
	.quad	c_global_trees+232
# rid:
	.long	64
# pretty:
	.long	0
# decl:
	.quad	c_global_trees+216
# rid:
	.long	62
# pretty:
	.long	0
# decl:
	.quad	c_global_trees+224
# rid:
	.long	63
# pretty:
	.long	1
# decl:
	.quad	0
# rid:
	.long	0
# pretty:
	.long	0
	.local	if_stack
	.comm	if_stack,8,8
	.local	if_stack_space
	.comm	if_stack_space,4,4
	.local	if_stack_pointer
	.comm	if_stack_pointer,4,4
	.text
	.globl	c_expand_start_cond
	.type	c_expand_start_cond, @function
c_expand_start_cond:
.LFB2:
	.file 1 "c-common.c"
	.loc 1 284 0
	.cfi_startproc
	pushq	%rbp	#
	.cfi_def_cfa_offset 16
	.cfi_offset 6, -16
	movq	%rsp, %rbp	#,
	.cfi_def_cfa_register 6
	subq	$32, %rsp	#,
	movq	%rdi, -8(%rbp)	# cond, cond
	movl	%esi, -12(%rbp)	# compstmt_count, compstmt_count
	movq	%rdx, -24(%rbp)	# if_stmt, if_stmt
	.loc 1 286 0
	movl	if_stack_space(%rip), %eax	# if_stack_space, if_stack_space.0
	testl	%eax, %eax	# if_stack_space.0
	jne	.L2	#,
	.loc 1 288 0
	movl	$10, if_stack_space(%rip)	#, if_stack_space
	.loc 1 289 0
	movl	$320, %edi	#,
	call	xmalloc	#
	movq	%rax, if_stack(%rip)	# if_stack.1, if_stack
	jmp	.L3	#
.L2:
	.loc 1 291 0
	movl	if_stack_space(%rip), %edx	# if_stack_space, if_stack_space.2
	movl	if_stack_pointer(%rip), %eax	# if_stack_pointer, if_stack_pointer.3
	cmpl	%eax, %edx	# if_stack_pointer.3, if_stack_space.2
	jne	.L3	#,
	.loc 1 293 0
	movl	if_stack_space(%rip), %eax	# if_stack_space, if_stack_space.4
	addl	$10, %eax	#, if_stack_space.5
	movl	%eax, if_stack_space(%rip)	# if_stack_space.5, if_stack_space
	.loc 1 294 0
	movl	if_stack_space(%rip), %eax	# if_stack_space, if_stack_space.6
	cltq
	salq	$5, %rax	#, D.19563
	movq	%rax, %rdx	# D.19563, D.19563
	movq	if_stack(%rip), %rax	# if_stack, if_stack.7
	movq	%rdx, %rsi	# D.19563,
	movq	%rax, %rdi	# if_stack.7,
	call	xrealloc	#
	movq	%rax, if_stack(%rip)	# if_stack.8, if_stack
.L3:
	.loc 1 297 0
	movq	-24(%rbp), %rax	# if_stmt, tmp100
	movq	-8(%rbp), %rdx	# cond, tmp101
	movq	%rdx, 32(%rax)	# tmp101, if_stmt_12(D)->exp.operands
	.loc 1 298 0
	movq	-24(%rbp), %rax	# if_stmt, tmp102
	movq	%rax, %rdi	# tmp102,
	call	add_stmt	#
	.loc 1 301 0
	movq	if_stack(%rip), %rax	# if_stack, if_stack.9
	movl	if_stack_pointer(%rip), %edx	# if_stack_pointer, if_stack_pointer.10
	movslq	%edx, %rdx	# if_stack_pointer.10, D.19563
	salq	$5, %rdx	#, D.19563
	addq	%rax, %rdx	# if_stack.9, D.19564
	movl	-12(%rbp), %eax	# compstmt_count, tmp103
	movl	%eax, (%rdx)	# tmp103, _18->compstmt_count
	.loc 1 302 0
	movq	if_stack(%rip), %rax	# if_stack, if_stack.11
	movl	if_stack_pointer(%rip), %edx	# if_stack_pointer, if_stack_pointer.12
	movslq	%edx, %rdx	# if_stack_pointer.12, D.19563
	salq	$5, %rdx	#, D.19563
	addq	%rax, %rdx	# if_stack.11, D.19564
	movq	input_filename(%rip), %rax	# input_filename, input_filename.13
	movq	%rax, 8(%rdx)	# input_filename.13, _24->file
	.loc 1 303 0
	movq	if_stack(%rip), %rax	# if_stack, if_stack.14
	movl	if_stack_pointer(%rip), %edx	# if_stack_pointer, if_stack_pointer.15
	movslq	%edx, %rdx	# if_stack_pointer.15, D.19563
	salq	$5, %rdx	#, D.19563
	addq	%rax, %rdx	# if_stack.14, D.19564
	movl	lineno(%rip), %eax	# lineno, lineno.16
	movl	%eax, 4(%rdx)	# lineno.16, _30->line
	.loc 1 304 0
	movq	if_stack(%rip), %rax	# if_stack, if_stack.17
	movl	if_stack_pointer(%rip), %edx	# if_stack_pointer, if_stack_pointer.18
	movslq	%edx, %rdx	# if_stack_pointer.18, D.19563
	salq	$5, %rdx	#, D.19563
	addq	%rdx, %rax	# D.19563, D.19564
	movl	$0, 16(%rax)	#, _36->needs_warning
	.loc 1 305 0
	movq	if_stack(%rip), %rax	# if_stack, if_stack.19
	movl	if_stack_pointer(%rip), %edx	# if_stack_pointer, if_stack_pointer.20
	movslq	%edx, %rdx	# if_stack_pointer.20, D.19563
	salq	$5, %rdx	#, D.19563
	addq	%rax, %rdx	# if_stack.19, D.19564
	movq	-24(%rbp), %rax	# if_stmt, tmp104
	movq	%rax, 24(%rdx)	# tmp104, _41->if_stmt
	.loc 1 306 0
	movl	if_stack_pointer(%rip), %eax	# if_stack_pointer, if_stack_pointer.21
	addl	$1, %eax	#, if_stack_pointer.22
	movl	%eax, if_stack_pointer(%rip)	# if_stack_pointer.22, if_stack_pointer
	.loc 1 307 0
	leave
	.cfi_def_cfa 7, 8
	ret
	.cfi_endproc
.LFE2:
	.size	c_expand_start_cond, .-c_expand_start_cond
	.globl	c_finish_then
	.type	c_finish_then, @function
c_finish_then:
.LFB3:
	.loc 1 313 0
	.cfi_startproc
	pushq	%rbp	#
	.cfi_def_cfa_offset 16
	.cfi_offset 6, -16
	movq	%rsp, %rbp	#,
	.cfi_def_cfa_register 6
	subq	$16, %rsp	#,
	.loc 1 314 0
	movq	if_stack(%rip), %rax	# if_stack, if_stack.23
	movl	if_stack_pointer(%rip), %edx	# if_stack_pointer, if_stack_pointer.24
	movslq	%edx, %rdx	# if_stack_pointer.24, D.19565
	salq	$5, %rdx	#, D.19565
	subq	$32, %rdx	#, D.19566
	addq	%rdx, %rax	# D.19566, D.19567
	movq	24(%rax), %rax	# _6->if_stmt, tmp67
	movq	%rax, -8(%rbp)	# tmp67, if_stmt
	.loc 1 315 0
	movq	-8(%rbp), %rax	# if_stmt, tmp68
	movq	(%rax), %rdx	# if_stmt_7->common.chain, D.19568
	movq	-8(%rbp), %rax	# if_stmt, tmp69
	movq	%rdx, 40(%rax)	# D.19568, if_stmt_7->exp.operands
	movq	-8(%rbp), %rax	# if_stmt, tmp70
	movq	$0, (%rax)	#, if_stmt_7->common.chain
	call	current_stmt_tree	#
	movq	-8(%rbp), %rdx	# if_stmt, tmp71
	movq	%rdx, (%rax)	# tmp71, _9->x_last_stmt
	.loc 1 316 0
	leave
	.cfi_def_cfa 7, 8
	ret
	.cfi_endproc
.LFE3:
	.size	c_finish_then, .-c_finish_then
	.section	.rodata
	.align 8
.LC0:
	.string	"suggest explicit braces to avoid ambiguous `else'"
	.text
	.globl	c_expand_end_cond
	.type	c_expand_end_cond, @function
c_expand_end_cond:
.LFB4:
	.loc 1 323 0
	.cfi_startproc
	pushq	%rbp	#
	.cfi_def_cfa_offset 16
	.cfi_offset 6, -16
	movq	%rsp, %rbp	#,
	.cfi_def_cfa_register 6
	.loc 1 324 0
	movl	if_stack_pointer(%rip), %eax	# if_stack_pointer, if_stack_pointer.25
	subl	$1, %eax	#, if_stack_pointer.26
	movl	%eax, if_stack_pointer(%rip)	# if_stack_pointer.26, if_stack_pointer
	.loc 1 325 0
	movq	if_stack(%rip), %rax	# if_stack, if_stack.27
	movl	if_stack_pointer(%rip), %edx	# if_stack_pointer, if_stack_pointer.28
	movslq	%edx, %rdx	# if_stack_pointer.28, D.19570
	salq	$5, %rdx	#, D.19570
	addq	%rdx, %rax	# D.19570, D.19571
	movl	16(%rax), %eax	# _7->needs_warning, D.19572
	testl	%eax, %eax	# D.19572
	je	.L6	#,
	.loc 1 327 0
	movq	if_stack(%rip), %rax	# if_stack, if_stack.29
	movl	if_stack_pointer(%rip), %edx	# if_stack_pointer, if_stack_pointer.30
	movslq	%edx, %rdx	# if_stack_pointer.30, D.19570
	salq	$5, %rdx	#, D.19570
	addq	%rdx, %rax	# D.19570, D.19571
	.loc 1 326 0
	movl	4(%rax), %ecx	# _13->line, D.19572
	movq	if_stack(%rip), %rax	# if_stack, if_stack.31
	movl	if_stack_pointer(%rip), %edx	# if_stack_pointer, if_stack_pointer.32
	movslq	%edx, %rdx	# if_stack_pointer.32, D.19570
	salq	$5, %rdx	#, D.19570
	addq	%rdx, %rax	# D.19570, D.19571
	movq	8(%rax), %rax	# _19->file, D.19573
	movl	$.LC0, %edx	#,
	movl	%ecx, %esi	# D.19572,
	movq	%rax, %rdi	# D.19573,
	movl	$0, %eax	#,
	call	warning_with_file_and_line	#
.L6:
	.loc 1 329 0
	call	current_stmt_tree	#
	movq	$0, 8(%rax)	#, _21->x_last_expr_type
	.loc 1 330 0
	popq	%rbp	#
	.cfi_def_cfa 7, 8
	ret
	.cfi_endproc
.LFE4:
	.size	c_expand_end_cond, .-c_expand_end_cond
	.globl	c_expand_start_else
	.type	c_expand_start_else, @function
c_expand_start_else:
.LFB5:
	.loc 1 337 0
	.cfi_startproc
	pushq	%rbp	#
	.cfi_def_cfa_offset 16
	.cfi_offset 6, -16
	movq	%rsp, %rbp	#,
	.cfi_def_cfa_register 6
	.loc 1 340 0
	movl	warn_parentheses(%rip), %eax	# warn_parentheses, warn_parentheses.33
	testl	%eax, %eax	# warn_parentheses.33
	je	.L8	#,
	.loc 1 341 0
	movl	if_stack_pointer(%rip), %eax	# if_stack_pointer, if_stack_pointer.34
	cmpl	$1, %eax	#, if_stack_pointer.34
	jle	.L8	#,
	.loc 1 342 0
	movq	if_stack(%rip), %rax	# if_stack, if_stack.35
	movl	if_stack_pointer(%rip), %edx	# if_stack_pointer, if_stack_pointer.36
	movslq	%edx, %rdx	# if_stack_pointer.36, D.19576
	salq	$5, %rdx	#, D.19576
	subq	$32, %rdx	#, D.19577
	addq	%rdx, %rax	# D.19577, D.19578
	movl	(%rax), %edx	# _8->compstmt_count, D.19579
	.loc 1 343 0
	movq	if_stack(%rip), %rax	# if_stack, if_stack.37
	movl	if_stack_pointer(%rip), %ecx	# if_stack_pointer, if_stack_pointer.38
	movslq	%ecx, %rcx	# if_stack_pointer.38, D.19576
	salq	$5, %rcx	#, D.19576
	subq	$64, %rcx	#, D.19577
	addq	%rcx, %rax	# D.19577, D.19578
	movl	(%rax), %eax	# _15->compstmt_count, D.19579
	.loc 1 342 0
	cmpl	%eax, %edx	# D.19579, D.19579
	jne	.L8	#,
	.loc 1 344 0
	movq	if_stack(%rip), %rax	# if_stack, if_stack.39
	movl	if_stack_pointer(%rip), %edx	# if_stack_pointer, if_stack_pointer.40
	movslq	%edx, %rdx	# if_stack_pointer.40, D.19576
	salq	$5, %rdx	#, D.19576
	subq	$64, %rdx	#, D.19577
	addq	%rdx, %rax	# D.19577, D.19578
	movl	$1, 16(%rax)	#, _22->needs_warning
.L8:
	.loc 1 349 0
	movq	if_stack(%rip), %rax	# if_stack, if_stack.41
	movl	if_stack_pointer(%rip), %edx	# if_stack_pointer, if_stack_pointer.42
	movslq	%edx, %rdx	# if_stack_pointer.42, D.19576
	salq	$5, %rdx	#, D.19576
	subq	$32, %rdx	#, D.19577
	addq	%rdx, %rax	# D.19577, D.19578
	movl	$0, 16(%rax)	#, _28->needs_warning
	.loc 1 350 0
	movq	if_stack(%rip), %rax	# if_stack, if_stack.43
	movl	if_stack_pointer(%rip), %edx	# if_stack_pointer, if_stack_pointer.44
	movslq	%edx, %rdx	# if_stack_pointer.44, D.19576
	salq	$5, %rdx	#, D.19576
	subq	$32, %rdx	#, D.19577
	addq	%rdx, %rax	# D.19577, D.19578
	movl	(%rax), %edx	# _34->compstmt_count, D.19579
	subl	$1, %edx	#, D.19579
	movl	%edx, (%rax)	# D.19579, _34->compstmt_count
	.loc 1 351 0
	popq	%rbp	#
	.cfi_def_cfa 7, 8
	ret
	.cfi_endproc
.LFE5:
	.size	c_expand_start_else, .-c_expand_start_else
	.globl	c_finish_else
	.type	c_finish_else, @function
c_finish_else:
.LFB6:
	.loc 1 357 0
	.cfi_startproc
	pushq	%rbp	#
	.cfi_def_cfa_offset 16
	.cfi_offset 6, -16
	movq	%rsp, %rbp	#,
	.cfi_def_cfa_register 6
	subq	$16, %rsp	#,
	.loc 1 358 0
	movq	if_stack(%rip), %rax	# if_stack, if_stack.45
	movl	if_stack_pointer(%rip), %edx	# if_stack_pointer, if_stack_pointer.46
	movslq	%edx, %rdx	# if_stack_pointer.46, D.19580
	salq	$5, %rdx	#, D.19580
	subq	$32, %rdx	#, D.19581
	addq	%rdx, %rax	# D.19581, D.19582
	movq	24(%rax), %rax	# _6->if_stmt, tmp67
	movq	%rax, -8(%rbp)	# tmp67, if_stmt
	.loc 1 359 0
	movq	-8(%rbp), %rax	# if_stmt, tmp68
	movq	(%rax), %rdx	# if_stmt_7->common.chain, D.19583
	movq	-8(%rbp), %rax	# if_stmt, tmp69
	movq	%rdx, 48(%rax)	# D.19583, if_stmt_7->exp.operands
	movq	-8(%rbp), %rax	# if_stmt, tmp70
	movq	$0, (%rax)	#, if_stmt_7->common.chain
	call	current_stmt_tree	#
	movq	-8(%rbp), %rdx	# if_stmt, tmp71
	movq	%rdx, (%rax)	# tmp71, _9->x_last_stmt
	.loc 1 360 0
	leave
	.cfi_def_cfa 7, 8
	ret
	.cfi_endproc
.LFE6:
	.size	c_finish_else, .-c_finish_else
	.globl	c_begin_if_stmt
	.type	c_begin_if_stmt, @function
c_begin_if_stmt:
.LFB7:
	.loc 1 372 0
	.cfi_startproc
	pushq	%rbp	#
	.cfi_def_cfa_offset 16
	.cfi_offset 6, -16
	movq	%rsp, %rbp	#,
	.cfi_def_cfa_register 6
	subq	$16, %rsp	#,
	.loc 1 374 0
	movl	$0, %ecx	#,
	movl	$0, %edx	#,
	movl	$0, %esi	#,
	movl	$155, %edi	#,
	movl	$0, %eax	#,
	call	build_stmt	#
	movq	%rax, -8(%rbp)	# tmp61, r
	.loc 1 375 0
	movq	-8(%rbp), %rax	# r, D.19585
	.loc 1 376 0
	leave
	.cfi_def_cfa 7, 8
	ret
	.cfi_endproc
.LFE7:
	.size	c_begin_if_stmt, .-c_begin_if_stmt
	.globl	c_begin_while_stmt
	.type	c_begin_while_stmt, @function
c_begin_while_stmt:
.LFB8:
	.loc 1 388 0
	.cfi_startproc
	pushq	%rbp	#
	.cfi_def_cfa_offset 16
	.cfi_offset 6, -16
	movq	%rsp, %rbp	#,
	.cfi_def_cfa_register 6
	subq	$16, %rsp	#,
	.loc 1 390 0
	movl	$0, %edx	#,
	movl	$0, %esi	#,
	movl	$157, %edi	#,
	movl	$0, %eax	#,
	call	build_stmt	#
	movq	%rax, -8(%rbp)	# tmp61, r
	.loc 1 391 0
	movq	-8(%rbp), %rax	# r, D.19586
	.loc 1 392 0
	leave
	.cfi_def_cfa 7, 8
	ret
	.cfi_endproc
.LFE8:
	.size	c_begin_while_stmt, .-c_begin_while_stmt
	.globl	c_finish_while_stmt_cond
	.type	c_finish_while_stmt_cond, @function
c_finish_while_stmt_cond:
.LFB9:
	.loc 1 398 0
	.cfi_startproc
	pushq	%rbp	#
	.cfi_def_cfa_offset 16
	.cfi_offset 6, -16
	movq	%rsp, %rbp	#,
	.cfi_def_cfa_register 6
	movq	%rdi, -8(%rbp)	# cond, cond
	movq	%rsi, -16(%rbp)	# while_stmt, while_stmt
	.loc 1 399 0
	movq	-16(%rbp), %rax	# while_stmt, tmp59
	movq	-8(%rbp), %rdx	# cond, tmp60
	movq	%rdx, 32(%rax)	# tmp60, while_stmt_1(D)->exp.operands
	.loc 1 400 0
	popq	%rbp	#
	.cfi_def_cfa 7, 8
	ret
	.cfi_endproc
.LFE9:
	.size	c_finish_while_stmt_cond, .-c_finish_while_stmt_cond
	.globl	start_fname_decls
	.type	start_fname_decls, @function
start_fname_decls:
.LFB10:
	.loc 1 406 0
	.cfi_startproc
	pushq	%rbp	#
	.cfi_def_cfa_offset 16
	.cfi_offset 6, -16
	movq	%rsp, %rbp	#,
	.cfi_def_cfa_register 6
	subq	$32, %rsp	#,
	.loc 1 408 0
	movq	$0, -16(%rbp)	#, saved
	.loc 1 410 0
	movl	$0, -20(%rbp)	#, ix
	jmp	.L16	#
.L18:
.LBB2:
	.loc 1 412 0
	movl	-20(%rbp), %eax	# ix, tmp67
	salq	$4, %rax	#, tmp68
	addq	$fname_vars, %rax	#, tmp69
	movq	(%rax), %rax	# fname_vars[ix_1].decl, D.19587
	movq	(%rax), %rax	# *_7, tmp70
	movq	%rax, -8(%rbp)	# tmp70, decl
	.loc 1 414 0
	cmpq	$0, -8(%rbp)	#, decl
	je	.L17	#,
	.loc 1 416 0
	movl	-20(%rbp), %eax	# ix, D.19588
	movl	$0, %esi	#,
	movq	%rax, %rdi	# D.19588,
	call	build_int_2_wide	#
	movq	%rax, %rcx	#, D.19589
	movq	-16(%rbp), %rdx	# saved, tmp71
	movq	-8(%rbp), %rax	# decl, tmp72
	movq	%rcx, %rsi	# D.19589,
	movq	%rax, %rdi	# tmp72,
	call	tree_cons	#
	movq	%rax, -16(%rbp)	# tmp73, saved
	.loc 1 417 0
	movl	-20(%rbp), %eax	# ix, tmp74
	salq	$4, %rax	#, tmp75
	addq	$fname_vars, %rax	#, tmp76
	movq	(%rax), %rax	# fname_vars[ix_1].decl, D.19587
	movq	$0, (%rax)	#, *_12
.L17:
.LBE2:
	.loc 1 410 0
	addl	$1, -20(%rbp)	#, ix
.L16:
	.loc 1 410 0 is_stmt 0 discriminator 1
	movl	-20(%rbp), %eax	# ix, tmp77
	salq	$4, %rax	#, tmp78
	addq	$fname_vars, %rax	#, tmp79
	movq	(%rax), %rax	# fname_vars[ix_1].decl, D.19587
	testq	%rax, %rax	# D.19587
	jne	.L18	#,
	.loc 1 420 0 is_stmt 1
	cmpq	$0, -16(%rbp)	#, saved
	jne	.L19	#,
	.loc 1 420 0 is_stmt 0 discriminator 1
	movq	c_global_trees+240(%rip), %rax	# c_global_trees, D.19589
	testq	%rax, %rax	# D.19589
	je	.L15	#,
.L19:
	.loc 1 423 0 is_stmt 1
	movq	c_global_trees+240(%rip), %rdx	# c_global_trees, D.19589
	movq	-16(%rbp), %rax	# saved, tmp80
	movl	$0, %esi	#,
	movq	%rax, %rdi	# tmp80,
	call	tree_cons	#
	movq	%rax, c_global_trees+240(%rip)	# D.19589, c_global_trees
.L15:
	.loc 1 425 0
	leave
	.cfi_def_cfa 7, 8
	ret
	.cfi_endproc
.LFE10:
	.size	start_fname_decls, .-start_fname_decls
	.globl	finish_fname_decls
	.type	finish_fname_decls, @function
finish_fname_decls:
.LFB11:
	.loc 1 436 0
	.cfi_startproc
	pushq	%rbp	#
	.cfi_def_cfa_offset 16
	.cfi_offset 6, -16
	movq	%rsp, %rbp	#,
	.cfi_def_cfa_register 6
	subq	$48, %rsp	#,
	.loc 1 438 0
	movq	$0, -32(%rbp)	#, body
	.loc 1 439 0
	movq	c_global_trees+240(%rip), %rax	# c_global_trees, tmp71
	movq	%rax, -24(%rbp)	# tmp71, stack
	.loc 1 441 0
	jmp	.L22	#
.L24:
	.loc 1 442 0 discriminator 1
	movq	-24(%rbp), %rax	# stack, tmp72
	movq	32(%rax), %rax	# stack_3->list.value, D.19590
	movq	-32(%rbp), %rdx	# body, tmp73
	movq	%rdx, %rsi	# tmp73,
	movq	%rax, %rdi	# D.19590,
	call	chainon	#
	movq	%rax, -32(%rbp)	# tmp74, body
	.loc 1 441 0 discriminator 1
	movq	-24(%rbp), %rax	# stack, tmp75
	movq	(%rax), %rax	# stack_3->common.chain, tmp76
	movq	%rax, -24(%rbp)	# tmp76, stack
.L22:
	cmpq	$0, -24(%rbp)	#, stack
	je	.L23	#,
	.loc 1 441 0 is_stmt 0 discriminator 2
	movq	-24(%rbp), %rax	# stack, tmp77
	movq	32(%rax), %rax	# stack_3->list.value, D.19590
	testq	%rax, %rax	# D.19590
	jne	.L24	#,
.L23:
	.loc 1 444 0 is_stmt 1
	cmpq	$0, -32(%rbp)	#, body
	je	.L25	#,
	.loc 1 448 0
	movq	current_function_decl(%rip), %rax	# current_function_decl, current_function_decl.47
	movq	168(%rax), %rax	# current_function_decl.47_12->decl.saved_tree, D.19590
	.loc 1 447 0
	movq	(%rax), %rdx	# _13->common.chain, D.19590
	movq	-32(%rbp), %rax	# body, tmp78
	movq	%rdx, %rsi	# D.19590,
	movq	%rax, %rdi	# tmp78,
	call	chainon	#
	movq	%rax, -32(%rbp)	# tmp79, body
	.loc 1 449 0
	movq	-32(%rbp), %rax	# body, tmp80
	movq	%rax, %rsi	# tmp80,
	movl	$153, %edi	#,
	movl	$0, %eax	#,
	call	build_stmt	#
	movq	%rax, -32(%rbp)	# tmp81, body
	.loc 1 451 0
	movq	-32(%rbp), %rax	# body, tmp82
	movzbl	19(%rax), %edx	#, tmp85
	orl	$1, %edx	#, tmp86
	movb	%dl, 19(%rax)	# tmp86,
	.loc 1 452 0
	movq	current_function_decl(%rip), %rax	# current_function_decl, current_function_decl.48
	movq	168(%rax), %rax	# current_function_decl.48_17->decl.saved_tree, D.19590
	movq	-32(%rbp), %rdx	# body, tmp87
	movq	%rdx, (%rax)	# tmp87, _18->common.chain
.L25:
	.loc 1 455 0
	movl	$0, -40(%rbp)	#, ix
	jmp	.L26	#
.L27:
	.loc 1 456 0 discriminator 2
	movl	-40(%rbp), %eax	# ix, tmp88
	salq	$4, %rax	#, tmp89
	addq	$fname_vars, %rax	#, tmp90
	movq	(%rax), %rax	# fname_vars[ix_1].decl, D.19591
	movq	$0, (%rax)	#, *_21
	.loc 1 455 0 discriminator 2
	addl	$1, -40(%rbp)	#, ix
.L26:
	.loc 1 455 0 is_stmt 0 discriminator 1
	movl	-40(%rbp), %eax	# ix, tmp91
	salq	$4, %rax	#, tmp92
	addq	$fname_vars, %rax	#, tmp93
	movq	(%rax), %rax	# fname_vars[ix_1].decl, D.19591
	testq	%rax, %rax	# D.19591
	jne	.L27	#,
	.loc 1 458 0 is_stmt 1
	cmpq	$0, -24(%rbp)	#, stack
	je	.L28	#,
.LBB3:
	.loc 1 463 0
	movq	-24(%rbp), %rax	# stack, tmp94
	movq	24(%rax), %rax	# stack_3->list.purpose, tmp95
	movq	%rax, -16(%rbp)	# tmp95, saved
	jmp	.L29	#
.L30:
.LBB4:
	.loc 1 465 0 discriminator 2
	movq	-16(%rbp), %rax	# saved, tmp96
	movq	24(%rax), %rax	# saved_5->list.purpose, tmp97
	movq	%rax, -8(%rbp)	# tmp97, decl
	.loc 1 466 0 discriminator 2
	movq	-16(%rbp), %rax	# saved, tmp98
	movq	32(%rax), %rax	# saved_5->list.value, D.19590
	movq	32(%rax), %rax	# _25->int_cst.int_cst.low, D.19592
	movl	%eax, -36(%rbp)	# D.19592, ix
	.loc 1 468 0 discriminator 2
	movl	-36(%rbp), %eax	# ix, tmp99
	salq	$4, %rax	#, tmp100
	addq	$fname_vars, %rax	#, tmp101
	movq	(%rax), %rax	# fname_vars[ix_27].decl, D.19591
	movq	-8(%rbp), %rdx	# decl, tmp102
	movq	%rdx, (%rax)	# tmp102, *_28
.LBE4:
	.loc 1 463 0 discriminator 2
	movq	-16(%rbp), %rax	# saved, tmp103
	movq	(%rax), %rax	# saved_5->common.chain, tmp104
	movq	%rax, -16(%rbp)	# tmp104, saved
.L29:
	.loc 1 463 0 is_stmt 0 discriminator 1
	cmpq	$0, -16(%rbp)	#, saved
	jne	.L30	#,
	.loc 1 470 0 is_stmt 1
	movq	-24(%rbp), %rax	# stack, tmp105
	movq	(%rax), %rax	# stack_3->common.chain, tmp106
	movq	%rax, -24(%rbp)	# tmp106, stack
.L28:
.LBE3:
	.loc 1 472 0
	movq	-24(%rbp), %rax	# stack, tmp107
	movq	%rax, c_global_trees+240(%rip)	# tmp107, c_global_trees
	.loc 1 473 0
	leave
	.cfi_def_cfa 7, 8
	ret
	.cfi_endproc
.LFE11:
	.size	finish_fname_decls, .-finish_fname_decls
	.section	.rodata
.LC1:
	.string	"top level"
.LC2:
	.string	""
	.text
	.globl	fname_as_string
	.type	fname_as_string, @function
fname_as_string:
.LFB12:
	.loc 1 481 0
	.cfi_startproc
	pushq	%rbp	#
	.cfi_def_cfa_offset 16
	.cfi_offset 6, -16
	movq	%rsp, %rbp	#,
	.cfi_def_cfa_register 6
	subq	$32, %rsp	#,
	movl	%edi, -20(%rbp)	# pretty_p, pretty_p
	.loc 1 482 0
	movq	$0, -8(%rbp)	#, name
	.loc 1 484 0
	cmpl	$0, -20(%rbp)	#, pretty_p
	je	.L32	#,
	.loc 1 486 0
	movq	current_function_decl(%rip), %rax	# current_function_decl, current_function_decl.50
	.loc 1 487 0
	testq	%rax, %rax	# current_function_decl.50
	je	.L33	#,
	.loc 1 486 0
	movq	decl_printable_name(%rip), %rax	# decl_printable_name, decl_printable_name.51
	movq	current_function_decl(%rip), %rdx	# current_function_decl, current_function_decl.52
	.loc 1 487 0
	movl	$2, %esi	#,
	movq	%rdx, %rdi	# current_function_decl.52,
	call	*%rax	# decl_printable_name.51
	jmp	.L34	#
.L33:
	.loc 1 487 0 is_stmt 0 discriminator 1
	movl	$.LC1, %eax	#, iftmp.49
.L34:
	.loc 1 485 0 is_stmt 1 discriminator 1
	movq	%rax, -8(%rbp)	# iftmp.49, name
	jmp	.L35	#
.L32:
	.loc 1 488 0
	movq	current_function_decl(%rip), %rax	# current_function_decl, current_function_decl.53
	testq	%rax, %rax	# current_function_decl.53
	je	.L36	#,
	.loc 1 488 0 is_stmt 0 discriminator 1
	movq	current_function_decl(%rip), %rax	# current_function_decl, current_function_decl.54
	movq	72(%rax), %rax	# current_function_decl.54_12->decl.name, D.19593
	testq	%rax, %rax	# D.19593
	je	.L36	#,
	.loc 1 489 0 is_stmt 1
	movq	current_function_decl(%rip), %rax	# current_function_decl, current_function_decl.55
	movq	72(%rax), %rax	# current_function_decl.55_14->decl.name, D.19593
	movq	32(%rax), %rax	# _15->identifier.id.str, tmp70
	movq	%rax, -8(%rbp)	# tmp70, name
	jmp	.L35	#
.L36:
	.loc 1 491 0
	movq	$.LC2, -8(%rbp)	#, name
.L35:
	.loc 1 492 0
	movq	-8(%rbp), %rax	# name, D.19594
	.loc 1 493 0
	leave
	.cfi_def_cfa 7, 8
	ret
	.cfi_endproc
.LFE12:
	.size	fname_as_string, .-fname_as_string
	.globl	fname_string
	.type	fname_string, @function
fname_string:
.LFB13:
	.loc 1 501 0
	.cfi_startproc
	pushq	%rbp	#
	.cfi_def_cfa_offset 16
	.cfi_offset 6, -16
	movq	%rsp, %rbp	#,
	.cfi_def_cfa_register 6
	subq	$32, %rsp	#,
	movl	%edi, -20(%rbp)	# rid, rid
	.loc 1 504 0
	movl	$0, -4(%rbp)	#, ix
	jmp	.L39	#
.L42:
	.loc 1 505 0
	movl	-4(%rbp), %eax	# ix, tmp64
	salq	$4, %rax	#, tmp65
	addq	$fname_vars, %rax	#, tmp66
	movl	8(%rax), %eax	# fname_vars[ix_1].rid, D.19598
	cmpl	-20(%rbp), %eax	# rid, D.19598
	jne	.L40	#,
	.loc 1 506 0
	jmp	.L41	#
.L40:
	.loc 1 504 0
	addl	$1, -4(%rbp)	#, ix
.L39:
	.loc 1 504 0 is_stmt 0 discriminator 1
	movl	-4(%rbp), %eax	# ix, tmp67
	salq	$4, %rax	#, tmp68
	addq	$fname_vars, %rax	#, tmp69
	movq	(%rax), %rax	# fname_vars[ix_1].decl, D.19597
	testq	%rax, %rax	# D.19597
	jne	.L42	#,
.L41:
	.loc 1 507 0 is_stmt 1
	movl	-4(%rbp), %eax	# ix, tmp70
	salq	$4, %rax	#, tmp71
	addq	$fname_vars, %rax	#, tmp72
	movl	12(%rax), %eax	# fname_vars[ix_1].pretty, D.19599
	movl	%eax, %edi	# D.19599,
	call	fname_as_string	#
	.loc 1 508 0
	leave
	.cfi_def_cfa 7, 8
	ret
	.cfi_endproc
.LFE13:
	.size	fname_string, .-fname_string
	.section	.rodata
	.align 8
.LC3:
	.string	"`%s' is not defined outside of function scope"
	.text
	.globl	fname_decl
	.type	fname_decl, @function
fname_decl:
.LFB14:
	.loc 1 521 0
	.cfi_startproc
	pushq	%rbp	#
	.cfi_def_cfa_offset 16
	.cfi_offset 6, -16
	movq	%rsp, %rbp	#,
	.cfi_def_cfa_register 6
	subq	$48, %rsp	#,
	movl	%edi, -36(%rbp)	# rid, rid
	movq	%rsi, -48(%rbp)	# id, id
	.loc 1 523 0
	movq	$0, -24(%rbp)	#, decl
	.loc 1 525 0
	movl	$0, -28(%rbp)	#, ix
	jmp	.L45	#
.L48:
	.loc 1 526 0
	movl	-28(%rbp), %eax	# ix, tmp74
	salq	$4, %rax	#, tmp75
	addq	$fname_vars, %rax	#, tmp76
	movl	8(%rax), %eax	# fname_vars[ix_1].rid, D.19602
	cmpl	-36(%rbp), %eax	# rid, D.19602
	jne	.L46	#,
	.loc 1 527 0
	jmp	.L47	#
.L46:
	.loc 1 525 0
	addl	$1, -28(%rbp)	#, ix
.L45:
	.loc 1 525 0 is_stmt 0 discriminator 1
	movl	-28(%rbp), %eax	# ix, tmp77
	salq	$4, %rax	#, tmp78
	addq	$fname_vars, %rax	#, tmp79
	movq	(%rax), %rax	# fname_vars[ix_1].decl, D.19601
	testq	%rax, %rax	# D.19601
	jne	.L48	#,
.L47:
	.loc 1 529 0 is_stmt 1
	movl	-28(%rbp), %eax	# ix, tmp80
	salq	$4, %rax	#, tmp81
	addq	$fname_vars, %rax	#, tmp82
	movq	(%rax), %rax	# fname_vars[ix_1].decl, D.19601
	movq	(%rax), %rax	# *_9, tmp83
	movq	%rax, -24(%rbp)	# tmp83, decl
	.loc 1 530 0
	cmpq	$0, -24(%rbp)	#, decl
	jne	.L49	#,
.LBB5:
	.loc 1 532 0
	call	current_stmt_tree	#
	movq	(%rax), %rax	# _11->x_last_stmt, tmp84
	movq	%rax, -16(%rbp)	# tmp84, saved_last_tree
	.loc 1 534 0
	movq	make_fname_decl(%rip), %rax	# make_fname_decl, make_fname_decl.56
	movl	-28(%rbp), %edx	# ix, tmp85
	salq	$4, %rdx	#, tmp86
	addq	$fname_vars, %rdx	#, tmp87
	movl	12(%rdx), %ecx	# fname_vars[ix_1].pretty, D.19604
	movq	-48(%rbp), %rdx	# id, tmp88
	movl	%ecx, %esi	# D.19604,
	movq	%rdx, %rdi	# tmp88,
	call	*%rax	# make_fname_decl.56
	movq	%rax, -24(%rbp)	# tmp89, decl
	.loc 1 535 0
	call	current_stmt_tree	#
	movq	(%rax), %rax	# _17->x_last_stmt, D.19605
	cmpq	-16(%rbp), %rax	# saved_last_tree, D.19605
	je	.L50	#,
.LBB6:
	.loc 1 540 0
	movq	-16(%rbp), %rax	# saved_last_tree, tmp90
	movq	(%rax), %rax	# saved_last_tree_12->common.chain, tmp91
	movq	%rax, -8(%rbp)	# tmp91, stmts
	.loc 1 542 0
	movq	-16(%rbp), %rax	# saved_last_tree, tmp92
	movq	$0, (%rax)	#, saved_last_tree_12->common.chain
	.loc 1 543 0
	call	current_stmt_tree	#
	movq	-16(%rbp), %rdx	# saved_last_tree, tmp93
	movq	%rdx, (%rax)	# tmp93, _20->x_last_stmt
	.loc 1 544 0
	movq	c_global_trees+240(%rip), %rdx	# c_global_trees, D.19605
	movq	-8(%rbp), %rcx	# stmts, tmp94
	movq	-24(%rbp), %rax	# decl, tmp95
	movq	%rcx, %rsi	# tmp94,
	movq	%rax, %rdi	# tmp95,
	call	tree_cons	#
	movq	%rax, c_global_trees+240(%rip)	# D.19605, c_global_trees
.L50:
.LBE6:
	.loc 1 547 0
	movl	-28(%rbp), %eax	# ix, tmp96
	salq	$4, %rax	#, tmp97
	addq	$fname_vars, %rax	#, tmp98
	movq	(%rax), %rax	# fname_vars[ix_1].decl, D.19601
	movq	-24(%rbp), %rdx	# decl, tmp99
	movq	%rdx, (%rax)	# tmp99, *_23
.L49:
.LBE5:
	.loc 1 549 0
	cmpl	$0, -28(%rbp)	#, ix
	jne	.L51	#,
	.loc 1 549 0 is_stmt 0 discriminator 1
	movq	current_function_decl(%rip), %rax	# current_function_decl, current_function_decl.57
	testq	%rax, %rax	# current_function_decl.57
	jne	.L51	#,
	.loc 1 550 0 is_stmt 1
	movq	-24(%rbp), %rax	# decl, tmp100
	movl	$.LC3, %esi	#,
	movq	%rax, %rdi	# tmp100,
	movl	$0, %eax	#,
	call	pedwarn_with_decl	#
.L51:
	.loc 1 552 0
	movq	-24(%rbp), %rax	# decl, D.19606
	.loc 1 553 0
	leave
	.cfi_def_cfa 7, 8
	ret
	.cfi_endproc
.LFE14:
	.size	fname_decl, .-fname_decl
	.section	.rodata
	.align 8
.LC4:
	.string	"concatenation of string literals with __FUNCTION__ is deprecated"
	.align 8
.LC5:
	.string	"string length `%d' is greater than the length `%d' ISO C%d compilers are required to support"
	.text
	.globl	combine_strings
	.type	combine_strings, @function
combine_strings:
.LFB15:
	.loc 1 562 0
	.cfi_startproc
	pushq	%rbp	#
	.cfi_def_cfa_offset 16
	.cfi_offset 6, -16
	movq	%rsp, %rbp	#,
	.cfi_def_cfa_register 6
	subq	$96, %rsp	#,
	movq	%rdi, -88(%rbp)	# strings, strings
	.loc 1 564 0
	movl	$1, -80(%rbp)	#, length
	.loc 1 565 0
	movl	$0, -76(%rbp)	#, wide_length
	.loc 1 566 0
	movl	$0, -72(%rbp)	#, wide_flag
	.loc 1 567 0
	movq	c_global_trees(%rip), %rax	# c_global_trees, D.19608
	movzwl	60(%rax), %eax	# *_30, tmp129
	andw	$511, %ax	#, D.19609
	movzwl	%ax, %eax	# D.19609, D.19610
	leal	7(%rax), %edx	#, tmp131
	testl	%eax, %eax	# tmp130
	cmovs	%edx, %eax	# tmp131,, tmp130
	sarl	$3, %eax	#, tmp132
	movl	%eax, -56(%rbp)	# tmp132, wchar_bytes
	.loc 1 569 0
	movl	flag_isoc99(%rip), %eax	# flag_isoc99, flag_isoc99.59
	testl	%eax, %eax	# flag_isoc99.59
	je	.L54	#,
	.loc 1 569 0 is_stmt 0 discriminator 1
	movl	$4095, %eax	#, iftmp.58
	jmp	.L55	#
.L54:
	.loc 1 569 0 discriminator 2
	movl	$509, %eax	#, iftmp.58
.L55:
	.loc 1 569 0 discriminator 3
	movl	%eax, -52(%rbp)	# iftmp.58, nchars_max
	.loc 1 571 0 is_stmt 1 discriminator 3
	movq	-88(%rbp), %rax	# strings, tmp133
	movq	(%rax), %rax	# strings_38(D)->common.chain, D.19608
	testq	%rax, %rax	# D.19608
	je	.L56	#,
.LBB7:
	.loc 1 579 0
	movq	-88(%rbp), %rax	# strings, tmp134
	movq	%rax, -32(%rbp)	# tmp134, t
	jmp	.L57	#
.L60:
	.loc 1 581 0
	movq	-32(%rbp), %rax	# t, tmp135
	movq	8(%rax), %rdx	# t_2->common.type, D.19608
	movq	c_global_trees+96(%rip), %rax	# c_global_trees, D.19608
	cmpq	%rax, %rdx	# D.19608, D.19608
	jne	.L58	#,
	.loc 1 583 0
	movq	-32(%rbp), %rax	# t, tmp136
	movl	32(%rax), %eax	# t_2->string.length, D.19610
	subl	-56(%rbp), %eax	# wchar_bytes, D.19610
	addl	%eax, -76(%rbp)	# D.19610, wide_length
	.loc 1 584 0
	movl	$1, -72(%rbp)	#, wide_flag
	jmp	.L59	#
.L58:
	.loc 1 588 0
	movq	-32(%rbp), %rax	# t, tmp137
	movl	32(%rax), %eax	# t_2->string.length, D.19610
	subl	$1, %eax	#, D.19610
	addl	%eax, -80(%rbp)	# D.19610, length
	.loc 1 589 0
	movq	-32(%rbp), %rax	# t, tmp138
	movzbl	19(%rax), %eax	# *t_2, D.19611
	andl	$1, %eax	#, D.19611
	testb	%al, %al	# D.19611
	je	.L59	#,
	.loc 1 589 0 is_stmt 0 discriminator 1
	movl	in_system_header(%rip), %eax	# in_system_header, in_system_header.60
	testl	%eax, %eax	# in_system_header.60
	jne	.L59	#,
	.loc 1 590 0 is_stmt 1
	movl	$.LC4, %edi	#,
	movl	$0, %eax	#,
	call	warning	#
.L59:
	.loc 1 579 0
	movq	-32(%rbp), %rax	# t, tmp139
	movq	(%rax), %rax	# t_2->common.chain, tmp140
	movq	%rax, -32(%rbp)	# tmp140, t
.L57:
	.loc 1 579 0 is_stmt 0 discriminator 1
	cmpq	$0, -32(%rbp)	#, t
	jne	.L60	#,
	.loc 1 596 0 is_stmt 1
	cmpl	$0, -72(%rbp)	#, wide_flag
	je	.L61	#,
	.loc 1 597 0
	movl	-80(%rbp), %eax	# length, tmp141
	imull	-56(%rbp), %eax	# wchar_bytes, D.19610
	movl	%eax, %edx	# D.19610, D.19610
	movl	-76(%rbp), %eax	# wide_length, tmp145
	addl	%edx, %eax	# D.19610, tmp144
	movl	%eax, -80(%rbp)	# tmp144, length
.L61:
	.loc 1 599 0
	movl	-80(%rbp), %eax	# length, tmp146
	cltq
	movq	%rax, %rdi	# D.19612,
	call	xmalloc	#
	movq	%rax, -16(%rbp)	# tmp147, p
	.loc 1 605 0
	movq	-16(%rbp), %rax	# p, tmp148
	movq	%rax, -24(%rbp)	# tmp148, q
	.loc 1 606 0
	movq	-88(%rbp), %rax	# strings, tmp149
	movq	%rax, -32(%rbp)	# tmp149, t
	jmp	.L62	#
.L71:
.LBB8:
	.loc 1 608 0
	movq	-32(%rbp), %rax	# t, tmp150
	movl	32(%rax), %edx	# t_3->string.length, D.19610
	.loc 1 609 0
	movq	-32(%rbp), %rax	# t, tmp151
	movq	8(%rax), %rcx	# t_3->common.type, D.19608
	movq	c_global_trees+96(%rip), %rax	# c_global_trees, D.19608
	.loc 1 610 0
	cmpq	%rax, %rcx	# D.19608, D.19608
	jne	.L63	#,
	.loc 1 610 0 is_stmt 0 discriminator 1
	movl	-56(%rbp), %eax	# wchar_bytes, iftmp.61
	jmp	.L64	#
.L63:
	.loc 1 610 0 discriminator 2
	movl	$1, %eax	#, iftmp.61
.L64:
	.loc 1 608 0 is_stmt 1
	subl	%eax, %edx	# iftmp.61, tmp152
	movl	%edx, %eax	# tmp152, tmp152
	movl	%eax, -48(%rbp)	# tmp152, len
	.loc 1 611 0
	movq	-32(%rbp), %rax	# t, tmp153
	movq	8(%rax), %rdx	# t_3->common.type, D.19608
	movq	c_global_trees+96(%rip), %rax	# c_global_trees, D.19608
	cmpq	%rax, %rdx	# D.19608, D.19608
	sete	%al	#, D.19613
	movzbl	%al, %eax	# D.19613, D.19610
	cmpl	-72(%rbp), %eax	# wide_flag, D.19610
	jne	.L65	#,
	.loc 1 613 0
	movl	-48(%rbp), %eax	# len, tmp154
	movslq	%eax, %rdx	# tmp154, D.19612
	movq	-32(%rbp), %rax	# t, tmp155
	movq	40(%rax), %rcx	# t_3->string.pointer, D.19614
	movq	-24(%rbp), %rax	# q, tmp156
	movq	%rcx, %rsi	# D.19614,
	movq	%rax, %rdi	# tmp156,
	call	memcpy	#
	.loc 1 614 0
	movl	-48(%rbp), %eax	# len, tmp157
	cltq
	addq	%rax, -24(%rbp)	# D.19615, q
	jmp	.L66	#
.L65:
.LBB9:
	.loc 1 619 0
	movl	$0, -68(%rbp)	#, i
	jmp	.L67	#
.L70:
	.loc 1 629 0
	movq	-24(%rbp), %rax	# q, q.64
	leaq	1(%rax), %rdx	#, tmp158
	movq	%rdx, -24(%rbp)	# tmp158, q
	movq	-32(%rbp), %rdx	# t, tmp159
	movq	40(%rdx), %rcx	# t_3->string.pointer, D.19614
	movl	-68(%rbp), %edx	# i, tmp160
	movslq	%edx, %rdx	# tmp160, D.19615
	addq	%rcx, %rdx	# D.19614, D.19614
	movzbl	(%rdx), %edx	# *_79, D.19616
	movb	%dl, (%rax)	# D.19616, *q.64_75
	.loc 1 630 0
	movl	$0, -64(%rbp)	#, j
	jmp	.L68	#
.L69:
	.loc 1 631 0 discriminator 2
	movq	-24(%rbp), %rax	# q, q.65
	leaq	1(%rax), %rdx	#, tmp161
	movq	%rdx, -24(%rbp)	# tmp161, q
	movb	$0, (%rax)	#, *q.65_87
	.loc 1 630 0 discriminator 2
	addl	$1, -64(%rbp)	#, j
.L68:
	.loc 1 630 0 is_stmt 0 discriminator 1
	movq	c_global_trees(%rip), %rax	# c_global_trees, D.19608
	movzwl	60(%rax), %eax	# *_82, tmp164
	andw	$511, %ax	#, D.19609
	movzwl	%ax, %eax	# D.19609, D.19610
	leal	7(%rax), %edx	#, tmp166
	testl	%eax, %eax	# tmp165
	cmovs	%edx, %eax	# tmp166,, tmp165
	sarl	$3, %eax	#, tmp167
	subl	$1, %eax	#, D.19610
	cmpl	-64(%rbp), %eax	# j, D.19610
	jg	.L69	#,
	.loc 1 619 0 is_stmt 1
	addl	$1, -68(%rbp)	#, i
.L67:
	.loc 1 619 0 is_stmt 0 discriminator 1
	movl	-68(%rbp), %eax	# i, tmp168
	cmpl	-48(%rbp), %eax	# len, tmp168
	jl	.L70	#,
.L66:
.LBE9:
.LBE8:
	.loc 1 606 0 is_stmt 1
	movq	-32(%rbp), %rax	# t, tmp169
	movq	(%rax), %rax	# t_3->common.chain, tmp170
	movq	%rax, -32(%rbp)	# tmp170, t
.L62:
	.loc 1 606 0 is_stmt 0 discriminator 1
	cmpq	$0, -32(%rbp)	#, t
	jne	.L71	#,
	.loc 1 636 0 is_stmt 1
	cmpl	$0, -72(%rbp)	#, wide_flag
	je	.L72	#,
.LBB10:
	.loc 1 639 0
	movl	$0, -60(%rbp)	#, i
	jmp	.L73	#
.L74:
	.loc 1 640 0 discriminator 2
	movq	-24(%rbp), %rax	# q, q.66
	leaq	1(%rax), %rdx	#, tmp171
	movq	%rdx, -24(%rbp)	# tmp171, q
	movb	$0, (%rax)	#, *q.66_93
	.loc 1 639 0 discriminator 2
	addl	$1, -60(%rbp)	#, i
.L73:
	.loc 1 639 0 is_stmt 0 discriminator 1
	movl	-60(%rbp), %eax	# i, tmp172
	cmpl	-56(%rbp), %eax	# wchar_bytes, tmp172
	jl	.L74	#,
.LBE10:
	jmp	.L75	#
.L72:
	.loc 1 643 0 is_stmt 1
	movq	-24(%rbp), %rax	# q, tmp173
	movb	$0, (%rax)	#, *q_16
.L75:
	.loc 1 645 0 discriminator 1
	movq	-16(%rbp), %rdx	# p, tmp174
	movl	-80(%rbp), %eax	# length, tmp175
	movq	%rdx, %rsi	# tmp174,
	movl	%eax, %edi	# tmp175,
	call	build_string	#
	movq	%rax, -40(%rbp)	# tmp176, value
	.loc 1 646 0 discriminator 1
	movq	-16(%rbp), %rax	# p, tmp177
	movq	%rax, %rdi	# tmp177,
	call	free	#
.LBE7:
	jmp	.L76	#
.L56:
	.loc 1 650 0
	movq	-88(%rbp), %rax	# strings, tmp178
	movq	%rax, -40(%rbp)	# tmp178, value
	.loc 1 651 0
	movq	-40(%rbp), %rax	# value, tmp179
	movl	32(%rax), %eax	# value_97->string.length, tmp180
	movl	%eax, -80(%rbp)	# tmp180, length
	.loc 1 652 0
	movq	-40(%rbp), %rax	# value, tmp181
	movq	8(%rax), %rdx	# value_97->common.type, D.19608
	movq	c_global_trees+96(%rip), %rax	# c_global_trees, D.19608
	cmpq	%rax, %rdx	# D.19608, D.19608
	jne	.L76	#,
	.loc 1 653 0
	movl	$1, -72(%rbp)	#, wide_flag
.L76:
	.loc 1 657 0
	cmpl	$0, -72(%rbp)	#, wide_flag
	je	.L77	#,
	.loc 1 657 0 is_stmt 0 discriminator 1
	movl	-80(%rbp), %eax	# length, tmp184
	cltd
	idivl	-56(%rbp)	# wchar_bytes
	jmp	.L78	#
.L77:
	.loc 1 657 0 discriminator 2
	movl	-80(%rbp), %eax	# length, iftmp.67
.L78:
	.loc 1 657 0 discriminator 3
	movl	%eax, -44(%rbp)	# iftmp.67, nchars
	.loc 1 659 0 is_stmt 1 discriminator 3
	movl	pedantic(%rip), %eax	# pedantic, pedantic.68
	testl	%eax, %eax	# pedantic.68
	je	.L79	#,
	.loc 1 659 0 is_stmt 0 discriminator 1
	movl	-44(%rbp), %eax	# nchars, tmp185
	subl	$1, %eax	#, D.19610
	cmpl	-52(%rbp), %eax	# nchars_max, D.19610
	jle	.L79	#,
	movl	c_language(%rip), %eax	# c_language, c_language.69
	testl	%eax, %eax	# c_language.69
	jne	.L79	#,
	.loc 1 661 0 is_stmt 1
	movl	flag_isoc99(%rip), %eax	# flag_isoc99, flag_isoc99.71
	.loc 1 660 0
	testl	%eax, %eax	# flag_isoc99.71
	je	.L80	#,
	.loc 1 660 0 is_stmt 0 discriminator 1
	movl	$99, %eax	#, iftmp.70
	jmp	.L81	#
.L80:
	.loc 1 660 0 discriminator 2
	movl	$89, %eax	#, iftmp.70
.L81:
	.loc 1 660 0 discriminator 3
	movl	-44(%rbp), %edx	# nchars, tmp186
	leal	-1(%rdx), %esi	#, D.19610
	movl	-52(%rbp), %edx	# nchars_max, tmp187
	movl	%eax, %ecx	# iftmp.70,
	movl	$.LC5, %edi	#,
	movl	$0, %eax	#,
	call	pedwarn	#
.L79:
	.loc 1 667 0 is_stmt 1
	movl	flag_const_strings(%rip), %eax	# flag_const_strings, flag_const_strings.72
	testl	%eax, %eax	# flag_const_strings.72
	je	.L82	#,
	.loc 1 668 0
	movl	flag_traditional(%rip), %eax	# flag_traditional, flag_traditional.73
	testl	%eax, %eax	# flag_traditional.73
	jne	.L82	#,
	.loc 1 668 0 is_stmt 0 discriminator 1
	movl	flag_writable_strings(%rip), %eax	# flag_writable_strings, flag_writable_strings.74
	testl	%eax, %eax	# flag_writable_strings.74
	jne	.L82	#,
.LBB11:
	.loc 1 671 0 is_stmt 1
	cmpl	$0, -72(%rbp)	#, wide_flag
	je	.L83	#,
	.loc 1 671 0 is_stmt 0 discriminator 1
	movq	c_global_trees(%rip), %rax	# c_global_trees, iftmp.75
	jmp	.L84	#
.L83:
	.loc 1 671 0 discriminator 2
	movq	integer_types(%rip), %rax	# integer_types, iftmp.75
.L84:
	.loc 1 670 0 is_stmt 1
	movl	$1, %esi	#,
	movq	%rax, %rdi	# iftmp.75,
	call	build_qualified_type	#
	movq	%rax, -8(%rbp)	# tmp188, elements
	.loc 1 675 0
	movl	-44(%rbp), %eax	# nchars, tmp189
	subl	$1, %eax	#, D.19610
	.loc 1 674 0
	cltq
	movl	$0, %esi	#,
	movq	%rax, %rdi	# D.19612,
	call	build_int_2_wide	#
	movq	%rax, %rdi	# D.19608,
	call	build_index_type	#
	movq	%rax, %rdx	#, D.19608
	movq	-8(%rbp), %rax	# elements, tmp190
	movq	%rdx, %rsi	# D.19608,
	movq	%rax, %rdi	# tmp190,
	call	build_array_type	#
	movq	-40(%rbp), %rdx	# value, tmp191
	movq	%rax, 8(%rdx)	# D.19608, value_1->common.type
.LBE11:
	.loc 1 669 0
	jmp	.L85	#
.L82:
	.loc 1 680 0
	movl	-44(%rbp), %eax	# nchars, tmp192
	subl	$1, %eax	#, D.19610
	.loc 1 679 0
	cltq
	movl	$0, %esi	#,
	movq	%rax, %rdi	# D.19612,
	call	build_int_2_wide	#
	movq	%rax, %rdi	# D.19608,
	call	build_index_type	#
	movq	%rax, %rdx	#, D.19608
	cmpl	$0, -72(%rbp)	#, wide_flag
	je	.L86	#,
	.loc 1 679 0 is_stmt 0 discriminator 1
	movq	c_global_trees(%rip), %rax	# c_global_trees, iftmp.76
	jmp	.L87	#
.L86:
	.loc 1 679 0 discriminator 2
	movq	integer_types(%rip), %rax	# integer_types, iftmp.76
.L87:
	.loc 1 679 0 discriminator 3
	movq	%rdx, %rsi	# D.19608,
	movq	%rax, %rdi	# iftmp.76,
	call	build_array_type	#
	movq	-40(%rbp), %rdx	# value, tmp193
	movq	%rax, 8(%rdx)	# D.19608, value_1->common.type
.L85:
	.loc 1 682 0 is_stmt 1
	movq	-40(%rbp), %rax	# value, tmp194
	movzbl	17(%rax), %edx	#, tmp197
	orl	$2, %edx	#, tmp198
	movb	%dl, 17(%rax)	# tmp198,
	.loc 1 683 0
	movl	flag_writable_strings(%rip), %eax	# flag_writable_strings, flag_writable_strings.77
	testl	%eax, %eax	# flag_writable_strings.77
	sete	%dl	#, D.19613
	movq	-40(%rbp), %rax	# value, tmp199
	andl	$1, %edx	#, tmp201
	movl	%edx, %ecx	# tmp201, tmp202
	sall	$4, %ecx	#, tmp202
	movzbl	17(%rax), %edx	#, tmp203
	andl	$-17, %edx	#, tmp204
	orl	%ecx, %edx	# tmp202, tmp205
	movb	%dl, 17(%rax)	# tmp205,
	.loc 1 684 0
	movq	-40(%rbp), %rax	# value, tmp206
	movzbl	18(%rax), %edx	#, tmp209
	orl	$4, %edx	#, tmp210
	movb	%dl, 18(%rax)	# tmp210,
	.loc 1 685 0
	movq	-40(%rbp), %rax	# value, D.19617
	.loc 1 686 0
	leave
	.cfi_def_cfa 7, 8
	ret
	.cfi_endproc
.LFE15:
	.size	combine_strings, .-combine_strings
	.section	.rodata
	.align 8
.LC6:
	.string	"overflow in constant expression"
	.text
	.globl	constant_expression_warning
	.type	constant_expression_warning, @function
constant_expression_warning:
.LFB16:
	.loc 1 704 0
	.cfi_startproc
	pushq	%rbp	#
	.cfi_def_cfa_offset 16
	.cfi_offset 6, -16
	movq	%rsp, %rbp	#,
	.cfi_def_cfa_register 6
	subq	$16, %rsp	#,
	movq	%rdi, -8(%rbp)	# value, value
	.loc 1 705 0
	movq	-8(%rbp), %rax	# value, tmp66
	movzbl	16(%rax), %eax	# value_1(D)->common.code, D.19620
	cmpb	$25, %al	#, D.19620
	je	.L90	#,
	.loc 1 705 0 is_stmt 0 discriminator 1
	movq	-8(%rbp), %rax	# value, tmp67
	movzbl	16(%rax), %eax	# value_1(D)->common.code, D.19620
	cmpb	$26, %al	#, D.19620
	je	.L90	#,
	.loc 1 706 0 is_stmt 1
	movq	-8(%rbp), %rax	# value, tmp68
	movzbl	16(%rax), %eax	# value_1(D)->common.code, D.19620
	cmpb	$28, %al	#, D.19620
	je	.L90	#,
	.loc 1 707 0
	movq	-8(%rbp), %rax	# value, tmp69
	movzbl	16(%rax), %eax	# value_1(D)->common.code, D.19620
	cmpb	$27, %al	#, D.19620
	jne	.L89	#,
.L90:
	.loc 1 708 0
	movq	-8(%rbp), %rax	# value, tmp70
	movzbl	18(%rax), %eax	# *value_1(D), D.19620
	andl	$4, %eax	#, D.19620
	testb	%al, %al	# D.19620
	je	.L89	#,
	.loc 1 708 0 is_stmt 0 discriminator 1
	movl	pedantic(%rip), %eax	# pedantic, pedantic.78
	testl	%eax, %eax	# pedantic.78
	je	.L89	#,
	.loc 1 709 0 is_stmt 1
	movl	$.LC6, %edi	#,
	movl	$0, %eax	#,
	call	pedwarn	#
.L89:
	.loc 1 710 0
	leave
	.cfi_def_cfa 7, 8
	ret
	.cfi_endproc
.LFE16:
	.size	constant_expression_warning, .-constant_expression_warning
	.section	.rodata
	.align 8
.LC7:
	.string	"integer overflow in expression"
	.align 8
.LC8:
	.string	"floating point overflow in expression"
.LC9:
	.string	"vector overflow in expression"
	.text
	.globl	overflow_warning
	.type	overflow_warning, @function
overflow_warning:
.LFB17:
	.loc 1 722 0
	.cfi_startproc
	pushq	%rbp	#
	.cfi_def_cfa_offset 16
	.cfi_offset 6, -16
	movq	%rsp, %rbp	#,
	.cfi_def_cfa_register 6
	subq	$16, %rsp	#,
	movq	%rdi, -8(%rbp)	# value, value
	.loc 1 723 0
	movq	-8(%rbp), %rax	# value, tmp77
	movzbl	16(%rax), %eax	# value_1(D)->common.code, D.19622
	cmpb	$25, %al	#, D.19622
	je	.L93	#,
	.loc 1 724 0
	movq	-8(%rbp), %rax	# value, tmp78
	movzbl	16(%rax), %eax	# value_1(D)->common.code, D.19622
	cmpb	$27, %al	#, D.19622
	jne	.L94	#,
	.loc 1 725 0
	movq	-8(%rbp), %rax	# value, tmp79
	movq	32(%rax), %rax	# value_1(D)->complex.real, D.19623
	movzbl	16(%rax), %eax	# _4->common.code, D.19622
	cmpb	$25, %al	#, D.19622
	jne	.L94	#,
.L93:
	.loc 1 726 0
	movq	-8(%rbp), %rax	# value, tmp80
	movzbl	18(%rax), %eax	# *value_1(D), D.19622
	andl	$8, %eax	#, D.19622
	testb	%al, %al	# D.19622
	je	.L94	#,
	.loc 1 728 0
	movq	-8(%rbp), %rax	# value, tmp81
	movzbl	18(%rax), %edx	#, tmp84
	andl	$-9, %edx	#, tmp85
	movb	%dl, 18(%rax)	# tmp85,
	.loc 1 729 0
	movl	skip_evaluation(%rip), %eax	# skip_evaluation, skip_evaluation.79
	testl	%eax, %eax	# skip_evaluation.79
	jne	.L95	#,
	.loc 1 730 0
	movl	$.LC7, %edi	#,
	movl	$0, %eax	#,
	call	warning	#
	.loc 1 729 0
	jmp	.L92	#
.L95:
	.loc 1 729 0 is_stmt 0 discriminator 1
	jmp	.L92	#
.L94:
	.loc 1 732 0 is_stmt 1
	movq	-8(%rbp), %rax	# value, tmp86
	movzbl	16(%rax), %eax	# value_1(D)->common.code, D.19622
	cmpb	$26, %al	#, D.19622
	je	.L97	#,
	.loc 1 733 0
	movq	-8(%rbp), %rax	# value, tmp87
	movzbl	16(%rax), %eax	# value_1(D)->common.code, D.19622
	cmpb	$27, %al	#, D.19622
	jne	.L98	#,
	.loc 1 734 0
	movq	-8(%rbp), %rax	# value, tmp88
	movq	32(%rax), %rax	# value_1(D)->complex.real, D.19623
	movzbl	16(%rax), %eax	# _11->common.code, D.19622
	cmpb	$26, %al	#, D.19622
	jne	.L98	#,
.L97:
	.loc 1 735 0
	movq	-8(%rbp), %rax	# value, tmp89
	movzbl	18(%rax), %eax	# *value_1(D), D.19622
	andl	$8, %eax	#, D.19622
	testb	%al, %al	# D.19622
	je	.L98	#,
	.loc 1 737 0
	movq	-8(%rbp), %rax	# value, tmp90
	movzbl	18(%rax), %edx	#, tmp93
	andl	$-9, %edx	#, tmp94
	movb	%dl, 18(%rax)	# tmp94,
	.loc 1 738 0
	movl	skip_evaluation(%rip), %eax	# skip_evaluation, skip_evaluation.80
	testl	%eax, %eax	# skip_evaluation.80
	jne	.L99	#,
	.loc 1 739 0
	movl	$.LC8, %edi	#,
	movl	$0, %eax	#,
	call	warning	#
	.loc 1 738 0
	jmp	.L92	#
.L99:
	.loc 1 738 0 is_stmt 0 discriminator 1
	jmp	.L92	#
.L98:
	.loc 1 741 0 is_stmt 1
	movq	-8(%rbp), %rax	# value, tmp95
	movzbl	16(%rax), %eax	# value_1(D)->common.code, D.19622
	cmpb	$28, %al	#, D.19622
	jne	.L92	#,
	.loc 1 741 0 is_stmt 0 discriminator 1
	movq	-8(%rbp), %rax	# value, tmp96
	movzbl	18(%rax), %eax	# *value_1(D), D.19622
	andl	$8, %eax	#, D.19622
	testb	%al, %al	# D.19622
	je	.L92	#,
	.loc 1 743 0 is_stmt 1
	movq	-8(%rbp), %rax	# value, tmp97
	movzbl	18(%rax), %edx	#, tmp100
	andl	$-9, %edx	#, tmp101
	movb	%dl, 18(%rax)	# tmp101,
	.loc 1 744 0
	movl	skip_evaluation(%rip), %eax	# skip_evaluation, skip_evaluation.81
	testl	%eax, %eax	# skip_evaluation.81
	jne	.L92	#,
	.loc 1 745 0
	movl	$.LC9, %edi	#,
	movl	$0, %eax	#,
	call	warning	#
.L92:
	.loc 1 747 0
	leave
	.cfi_def_cfa 7, 8
	ret
	.cfi_endproc
.LFE17:
	.size	overflow_warning, .-overflow_warning
	.section	.rodata
	.align 8
.LC10:
	.string	"large integer implicitly truncated to unsigned type"
	.align 8
.LC11:
	.string	"negative integer implicitly converted to unsigned type"
	.text
	.globl	unsigned_conversion_warning
	.type	unsigned_conversion_warning, @function
unsigned_conversion_warning:
.LFB18:
	.loc 1 757 0
	.cfi_startproc
	pushq	%rbp	#
	.cfi_def_cfa_offset 16
	.cfi_offset 6, -16
	movq	%rsp, %rbp	#,
	.cfi_def_cfa_register 6
	subq	$16, %rsp	#,
	movq	%rdi, -8(%rbp)	# result, result
	movq	%rsi, -16(%rbp)	# operand, operand
	.loc 1 758 0
	movq	-16(%rbp), %rax	# operand, tmp72
	movzbl	16(%rax), %eax	# operand_1(D)->common.code, D.19627
	cmpb	$25, %al	#, D.19627
	jne	.L100	#,
	.loc 1 759 0
	movq	-8(%rbp), %rax	# result, tmp73
	movq	8(%rax), %rax	# result_3(D)->common.type, D.19628
	movzbl	16(%rax), %eax	# _4->common.code, D.19627
	cmpb	$6, %al	#, D.19627
	jne	.L100	#,
	.loc 1 760 0
	movq	-8(%rbp), %rax	# result, tmp74
	movq	8(%rax), %rax	# result_3(D)->common.type, D.19628
	movzbl	17(%rax), %eax	# *_6, D.19627
	andl	$32, %eax	#, D.19627
	testb	%al, %al	# D.19627
	je	.L100	#,
	.loc 1 761 0
	movl	skip_evaluation(%rip), %eax	# skip_evaluation, skip_evaluation.82
	testl	%eax, %eax	# skip_evaluation.82
	jne	.L100	#,
	.loc 1 762 0
	movq	-8(%rbp), %rax	# result, tmp75
	movq	8(%rax), %rdx	# result_3(D)->common.type, D.19628
	movq	-16(%rbp), %rax	# operand, tmp76
	movq	%rdx, %rsi	# D.19628,
	movq	%rax, %rdi	# tmp76,
	call	int_fits_type_p	#
	testl	%eax, %eax	# D.19629
	jne	.L100	#,
	.loc 1 764 0
	movq	-8(%rbp), %rax	# result, tmp77
	movq	8(%rax), %rax	# result_3(D)->common.type, D.19628
	movq	%rax, %rdi	# D.19628,
	call	signed_type	#
	movq	%rax, %rdx	#, D.19628
	movq	-16(%rbp), %rax	# operand, tmp78
	movq	%rdx, %rsi	# D.19628,
	movq	%rax, %rdi	# tmp78,
	call	int_fits_type_p	#
	testl	%eax, %eax	# D.19629
	jne	.L102	#,
	.loc 1 766 0
	movl	$.LC10, %edi	#,
	movl	$0, %eax	#,
	call	warning	#
	jmp	.L100	#
.L102:
	.loc 1 767 0
	movl	warn_conversion(%rip), %eax	# warn_conversion, warn_conversion.83
	testl	%eax, %eax	# warn_conversion.83
	je	.L100	#,
	.loc 1 768 0
	movl	$.LC11, %edi	#,
	movl	$0, %eax	#,
	call	warning	#
.L100:
	.loc 1 770 0
	leave
	.cfi_def_cfa 7, 8
	ret
	.cfi_endproc
.LFE18:
	.size	unsigned_conversion_warning, .-unsigned_conversion_warning
	.type	constant_fits_type_p, @function
constant_fits_type_p:
.LFB19:
	.loc 1 778 0
	.cfi_startproc
	pushq	%rbp	#
	.cfi_def_cfa_offset 16
	.cfi_offset 6, -16
	movq	%rsp, %rbp	#,
	.cfi_def_cfa_register 6
	subq	$16, %rsp	#,
	movq	%rdi, -8(%rbp)	# c, c
	movq	%rsi, -16(%rbp)	# type, type
	.loc 1 779 0
	movq	-8(%rbp), %rax	# c, tmp65
	movzbl	16(%rax), %eax	# c_2(D)->common.code, D.19633
	cmpb	$25, %al	#, D.19633
	jne	.L104	#,
	.loc 1 780 0
	movq	-16(%rbp), %rdx	# type, tmp66
	movq	-8(%rbp), %rax	# c, tmp67
	movq	%rdx, %rsi	# tmp66,
	movq	%rax, %rdi	# tmp67,
	call	int_fits_type_p	#
	jmp	.L105	#
.L104:
	.loc 1 782 0
	movq	-8(%rbp), %rdx	# c, tmp68
	movq	-16(%rbp), %rax	# type, tmp69
	movq	%rdx, %rsi	# tmp68,
	movq	%rax, %rdi	# tmp69,
	call	convert	#
	movq	%rax, -8(%rbp)	# tmp70, c
	.loc 1 783 0
	movq	-8(%rbp), %rax	# c, tmp71
	movzbl	18(%rax), %eax	# *c_6, D.19633
	andl	$8, %eax	#, D.19633
	testb	%al, %al	# D.19633
	sete	%al	#, D.19634
	movzbl	%al, %eax	# D.19634, D.19632
.L105:
	.loc 1 784 0
	leave
	.cfi_def_cfa 7, 8
	ret
	.cfi_endproc
.LFE19:
	.size	constant_fits_type_p, .-constant_fits_type_p
	.section	.rodata
	.align 8
.LC12:
	.string	"overflow in implicit constant conversion"
	.text
	.globl	convert_and_check
	.type	convert_and_check, @function
convert_and_check:
.LFB20:
	.loc 1 793 0
	.cfi_startproc
	pushq	%rbp	#
	.cfi_def_cfa_offset 16
	.cfi_offset 6, -16
	movq	%rsp, %rbp	#,
	.cfi_def_cfa_register 6
	subq	$32, %rsp	#,
	movq	%rdi, -24(%rbp)	# type, type
	movq	%rsi, -32(%rbp)	# expr, expr
	.loc 1 794 0
	movq	-32(%rbp), %rdx	# expr, tmp81
	movq	-24(%rbp), %rax	# type, tmp82
	movq	%rdx, %rsi	# tmp81,
	movq	%rax, %rdi	# tmp82,
	call	convert	#
	movq	%rax, -8(%rbp)	# tmp83, t
	.loc 1 795 0
	movq	-8(%rbp), %rax	# t, tmp84
	movzbl	16(%rax), %eax	# t_3->common.code, D.19635
	cmpb	$25, %al	#, D.19635
	jne	.L107	#,
	.loc 1 797 0
	movq	-8(%rbp), %rax	# t, tmp85
	movzbl	18(%rax), %eax	# *t_3, D.19635
	andl	$8, %eax	#, D.19635
	testb	%al, %al	# D.19635
	je	.L108	#,
	.loc 1 799 0
	movq	-8(%rbp), %rax	# t, tmp86
	movzbl	18(%rax), %edx	#, tmp89
	andl	$-9, %edx	#, tmp90
	movb	%dl, 18(%rax)	# tmp90,
	.loc 1 803 0
	movq	-32(%rbp), %rax	# expr, tmp91
	movzbl	18(%rax), %eax	# *expr_2(D), tmp94
	shrb	$2, %al	#, D.19636
	andl	$1, %eax	#, D.19636
	movq	-8(%rbp), %rdx	# t, tmp95
	andl	$1, %eax	#, tmp97
	leal	0(,%rax,4), %ecx	#, tmp98
	movzbl	18(%rdx), %eax	#, tmp99
	andl	$-5, %eax	#, tmp100
	orl	%ecx, %eax	# tmp98, tmp101
	movb	%al, 18(%rdx)	# tmp101,
	.loc 1 806 0
	movq	-24(%rbp), %rax	# type, tmp102
	movzbl	17(%rax), %eax	# *type_1(D), tmp105
	shrb	$5, %al	#, D.19636
	andl	$1, %eax	#, D.19636
	movzbl	%al, %edx	# D.19636, D.19637
	movq	-32(%rbp), %rax	# expr, tmp106
	movq	8(%rax), %rax	# expr_2(D)->common.type, D.19638
	movzbl	17(%rax), %eax	# *_10, tmp109
	shrb	$5, %al	#, D.19636
	andl	$1, %eax	#, D.19636
	movzbl	%al, %eax	# D.19636, D.19637
	cmpl	%eax, %edx	# D.19637, D.19637
	jge	.L109	#,
	.loc 1 807 0
	movq	-32(%rbp), %rax	# expr, tmp110
	movq	8(%rax), %rax	# expr_2(D)->common.type, D.19638
	movzbl	16(%rax), %eax	# _13->common.code, D.19635
	cmpb	$6, %al	#, D.19635
	jne	.L109	#,
	.loc 1 808 0
	movq	-24(%rbp), %rax	# type, tmp111
	movzwl	60(%rax), %eax	# *type_1(D), tmp114
	andw	$511, %ax	#, D.19639
	movl	%eax, %edx	# D.19639, D.19639
	movq	-32(%rbp), %rax	# expr, tmp115
	movq	8(%rax), %rax	# expr_2(D)->common.type, D.19638
	movzwl	60(%rax), %eax	# *_16, tmp118
	andw	$511, %ax	#, D.19639
	.loc 1 806 0
	cmpw	%ax, %dx	# D.19639, D.19639
	je	.L107	#,
.L109:
	.loc 1 811 0
	movl	pedantic(%rip), %eax	# pedantic, pedantic.84
	testl	%eax, %eax	# pedantic.84
	jne	.L111	#,
	.loc 1 812 0
	movq	-24(%rbp), %rax	# type, tmp119
	movzbl	17(%rax), %eax	# *type_1(D), D.19635
	andl	$32, %eax	#, D.19635
	testb	%al, %al	# D.19635
	jne	.L111	#,
	.loc 1 813 0
	movq	-24(%rbp), %rax	# type, tmp120
	movq	%rax, %rdi	# tmp120,
	call	unsigned_type	#
	movq	%rax, %rdx	#, D.19638
	movq	-32(%rbp), %rax	# expr, tmp121
	movq	%rdx, %rsi	# D.19638,
	movq	%rax, %rdi	# tmp121,
	call	constant_fits_type_p	#
	testl	%eax, %eax	# D.19637
	jne	.L107	#,
.L111:
	.loc 1 814 0
	movl	skip_evaluation(%rip), %eax	# skip_evaluation, skip_evaluation.85
	testl	%eax, %eax	# skip_evaluation.85
	jne	.L107	#,
	.loc 1 815 0
	movl	$.LC12, %edi	#,
	movl	$0, %eax	#,
	call	warning	#
	jmp	.L107	#
.L108:
	.loc 1 818 0
	movq	-32(%rbp), %rdx	# expr, tmp122
	movq	-8(%rbp), %rax	# t, tmp123
	movq	%rdx, %rsi	# tmp122,
	movq	%rax, %rdi	# tmp123,
	call	unsigned_conversion_warning	#
.L107:
	.loc 1 820 0
	movq	-8(%rbp), %rax	# t, D.19640
	.loc 1 821 0
	leave
	.cfi_def_cfa 7, 8
	ret
	.cfi_endproc
.LFE20:
	.size	convert_and_check, .-convert_and_check
	.local	tlist_obstack
	.comm	tlist_obstack,88,32
	.local	tlist_firstobj
	.comm	tlist_firstobj,8,8
	.local	warned_ids
	.comm	warned_ids,8,8
	.local	save_expr_cache
	.comm	save_expr_cache,8,8
	.type	new_tlist, @function
new_tlist:
.LFB21:
	.loc 1 869 0
	.cfi_startproc
	pushq	%rbp	#
	.cfi_def_cfa_offset 16
	.cfi_offset 6, -16
	movq	%rsp, %rbp	#,
	.cfi_def_cfa_register 6
	subq	$80, %rsp	#,
	movq	%rdi, -56(%rbp)	# next, next
	movq	%rsi, -64(%rbp)	# t, t
	movq	%rdx, -72(%rbp)	# writer, writer
.LBB12:
	.loc 1 871 0
	movq	$tlist_obstack, -40(%rbp)	#, __h
.LBB13:
	movq	-40(%rbp), %rax	# __h, tmp95
	movq	%rax, -32(%rbp)	# tmp95, __o
	movl	$24, -44(%rbp)	#, __len
	movq	-32(%rbp), %rax	# __o, tmp96
	movq	32(%rax), %rax	# __o_2->chunk_limit, D.19642
	movq	%rax, %rdx	# D.19642, D.19643
	movq	-32(%rbp), %rax	# __o, tmp97
	movq	24(%rax), %rax	# __o_2->next_free, D.19642
	subq	%rax, %rdx	# D.19643, D.19643
	movl	-44(%rbp), %eax	# __len, tmp98
	cltq
	cmpq	%rax, %rdx	# D.19643, D.19643
	jge	.L114	#,
	.loc 1 871 0 is_stmt 0 discriminator 1
	movl	-44(%rbp), %edx	# __len, tmp99
	movq	-32(%rbp), %rax	# __o, tmp100
	movl	%edx, %esi	# tmp99,
	movq	%rax, %rdi	# tmp100,
	call	_obstack_newchunk	#
.L114:
	.loc 1 871 0 discriminator 2
	movq	-32(%rbp), %rax	# __o, tmp101
	movq	24(%rax), %rdx	# __o_2->next_free, D.19642
	movl	-44(%rbp), %eax	# __len, tmp102
	cltq
	addq	%rax, %rdx	# D.19644, D.19642
	movq	-32(%rbp), %rax	# __o, tmp103
	movq	%rdx, 24(%rax)	# D.19642, __o_2->next_free
.LBE13:
.LBB14:
	movq	-40(%rbp), %rax	# __h, tmp104
	movq	%rax, -24(%rbp)	# tmp104, __o1
	movq	-24(%rbp), %rax	# __o1, tmp105
	movq	16(%rax), %rax	# __o1_13->object_base, tmp106
	movq	%rax, -16(%rbp)	# tmp106, value
	movq	-24(%rbp), %rax	# __o1, tmp107
	movq	24(%rax), %rax	# __o1_13->next_free, D.19642
	cmpq	-16(%rbp), %rax	# value, D.19642
	jne	.L115	#,
	.loc 1 871 0 discriminator 1
	movq	-24(%rbp), %rax	# __o1, tmp108
	movzbl	80(%rax), %edx	# __o1_13->maybe_empty_object, tmp111
	orl	$2, %edx	#, tmp112
	movb	%dl, 80(%rax)	# tmp112, __o1_13->maybe_empty_object
.L115:
	.loc 1 871 0 discriminator 2
	movq	-24(%rbp), %rax	# __o1, tmp113
	movq	24(%rax), %rax	# __o1_13->next_free, D.19642
	movq	%rax, %rdx	# D.19642, D.19643
	movq	-24(%rbp), %rax	# __o1, tmp114
	movl	48(%rax), %eax	# __o1_13->alignment_mask, D.19645
	cltq
	addq	%rax, %rdx	# D.19643, D.19643
	movq	-24(%rbp), %rax	# __o1, tmp115
	movl	48(%rax), %eax	# __o1_13->alignment_mask, D.19645
	notl	%eax	# D.19645
	cltq
	andq	%rdx, %rax	# D.19643, D.19643
	movq	%rax, %rdx	# D.19643, D.19642
	movq	-24(%rbp), %rax	# __o1, tmp116
	movq	%rdx, 24(%rax)	# D.19642, __o1_13->next_free
	movq	-24(%rbp), %rax	# __o1, tmp117
	movq	24(%rax), %rax	# __o1_13->next_free, D.19642
	movq	%rax, %rdx	# D.19642, D.19643
	movq	-24(%rbp), %rax	# __o1, tmp118
	movq	8(%rax), %rax	# __o1_13->chunk, D.19646
	movq	%rdx, %rcx	# D.19643, D.19643
	subq	%rax, %rcx	# D.19643, D.19643
	movq	-24(%rbp), %rax	# __o1, tmp119
	movq	32(%rax), %rax	# __o1_13->chunk_limit, D.19642
	movq	%rax, %rdx	# D.19642, D.19643
	movq	-24(%rbp), %rax	# __o1, tmp120
	movq	8(%rax), %rax	# __o1_13->chunk, D.19646
	subq	%rax, %rdx	# D.19643, D.19643
	movq	%rdx, %rax	# D.19643, D.19643
	cmpq	%rax, %rcx	# D.19643, D.19643
	jle	.L116	#,
	.loc 1 871 0 discriminator 1
	movq	-24(%rbp), %rax	# __o1, tmp121
	movq	32(%rax), %rdx	# __o1_13->chunk_limit, D.19642
	movq	-24(%rbp), %rax	# __o1, tmp122
	movq	%rdx, 24(%rax)	# D.19642, __o1_13->next_free
.L116:
	.loc 1 871 0 discriminator 2
	movq	-24(%rbp), %rax	# __o1, tmp123
	movq	24(%rax), %rdx	# __o1_13->next_free, D.19642
	movq	-24(%rbp), %rax	# __o1, tmp124
	movq	%rdx, 16(%rax)	# D.19642, __o1_13->object_base
	movq	-16(%rbp), %rax	# value, D.19647
.LBE14:
.LBE12:
	movq	%rax, -8(%rbp)	# l.86, l
	.loc 1 872 0 is_stmt 1 discriminator 2
	movq	-8(%rbp), %rax	# l, tmp125
	movq	-56(%rbp), %rdx	# next, tmp126
	movq	%rdx, (%rax)	# tmp126, l_40->next
	.loc 1 873 0 discriminator 2
	movq	-8(%rbp), %rax	# l, tmp127
	movq	-64(%rbp), %rdx	# t, tmp128
	movq	%rdx, 8(%rax)	# tmp128, l_40->expr
	.loc 1 874 0 discriminator 2
	movq	-8(%rbp), %rax	# l, tmp129
	movq	-72(%rbp), %rdx	# writer, tmp130
	movq	%rdx, 16(%rax)	# tmp130, l_40->writer
	.loc 1 875 0 discriminator 2
	movq	-8(%rbp), %rax	# l, D.19648
	.loc 1 876 0 discriminator 2
	leave
	.cfi_def_cfa 7, 8
	ret
	.cfi_endproc
.LFE21:
	.size	new_tlist, .-new_tlist
	.type	add_tlist, @function
add_tlist:
.LFB22:
	.loc 1 887 0
	.cfi_startproc
	pushq	%rbp	#
	.cfi_def_cfa_offset 16
	.cfi_offset 6, -16
	movq	%rsp, %rbp	#,
	.cfi_def_cfa_register 6
	subq	$48, %rsp	#,
	movq	%rdi, -24(%rbp)	# to, to
	movq	%rsi, -32(%rbp)	# add, add
	movq	%rdx, -40(%rbp)	# exclude_writer, exclude_writer
	movl	%ecx, -44(%rbp)	# copy, copy
	.loc 1 888 0
	jmp	.L119	#
.L125:
.LBB15:
	.loc 1 890 0
	movq	-32(%rbp), %rax	# add, tmp65
	movq	(%rax), %rax	# add_1->next, tmp66
	movq	%rax, -8(%rbp)	# tmp66, next
	.loc 1 891 0
	cmpl	$0, -44(%rbp)	#, copy
	jne	.L120	#,
	.loc 1 892 0
	movq	-24(%rbp), %rax	# to, tmp67
	movq	(%rax), %rdx	# *to_6(D), D.19649
	movq	-32(%rbp), %rax	# add, tmp68
	movq	%rdx, (%rax)	# D.19649, add_1->next
.L120:
	.loc 1 893 0
	cmpq	$0, -40(%rbp)	#, exclude_writer
	je	.L121	#,
	.loc 1 893 0 is_stmt 0 discriminator 1
	movq	-32(%rbp), %rax	# add, tmp69
	movq	16(%rax), %rax	# add_1->writer, D.19650
	cmpq	-40(%rbp), %rax	# exclude_writer, D.19650
	je	.L122	#,
.L121:
	.loc 1 894 0 is_stmt 1
	cmpl	$0, -44(%rbp)	#, copy
	je	.L123	#,
	.loc 1 894 0 is_stmt 0 discriminator 1
	movq	-32(%rbp), %rax	# add, tmp70
	movq	16(%rax), %rdx	# add_1->writer, D.19650
	movq	-32(%rbp), %rax	# add, tmp71
	movq	8(%rax), %rcx	# add_1->expr, D.19650
	movq	-24(%rbp), %rax	# to, tmp72
	movq	(%rax), %rax	# *to_6(D), D.19649
	movq	%rcx, %rsi	# D.19650,
	movq	%rax, %rdi	# D.19649,
	call	new_tlist	#
	jmp	.L124	#
.L123:
	.loc 1 894 0 discriminator 2
	movq	-32(%rbp), %rax	# add, iftmp.87
.L124:
	.loc 1 894 0 discriminator 3
	movq	-24(%rbp), %rdx	# to, tmp73
	movq	%rax, (%rdx)	# iftmp.87, *to_6(D)
.L122:
	.loc 1 895 0 is_stmt 1
	movq	-8(%rbp), %rax	# next, tmp74
	movq	%rax, -32(%rbp)	# tmp74, add
.L119:
.LBE15:
	.loc 1 888 0 discriminator 1
	cmpq	$0, -32(%rbp)	#, add
	jne	.L125	#,
	.loc 1 897 0
	leave
	.cfi_def_cfa 7, 8
	ret
	.cfi_endproc
.LFE22:
	.size	add_tlist, .-add_tlist
	.type	merge_tlist, @function
merge_tlist:
.LFB23:
	.loc 1 910 0
	.cfi_startproc
	pushq	%rbp	#
	.cfi_def_cfa_offset 16
	.cfi_offset 6, -16
	movq	%rsp, %rbp	#,
	.cfi_def_cfa_register 6
	subq	$64, %rsp	#,
	movq	%rdi, -40(%rbp)	# to, to
	movq	%rsi, -48(%rbp)	# add, add
	movl	%edx, -52(%rbp)	# copy, copy
	.loc 1 911 0
	movq	-40(%rbp), %rax	# to, tmp69
	movq	%rax, -24(%rbp)	# tmp69, end
	.loc 1 913 0
	jmp	.L127	#
.L128:
	.loc 1 914 0
	movq	-24(%rbp), %rax	# end, tmp70
	movq	(%rax), %rax	# *end_2, D.19651
	movq	%rax, -24(%rbp)	# D.19651, end
.L127:
	.loc 1 913 0 discriminator 1
	movq	-24(%rbp), %rax	# end, tmp71
	movq	(%rax), %rax	# *end_2, D.19651
	testq	%rax, %rax	# D.19651
	jne	.L128	#,
	.loc 1 916 0
	jmp	.L129	#
.L136:
.LBB16:
	.loc 1 918 0
	movl	$0, -28(%rbp)	#, found
	.loc 1 920 0
	movq	-48(%rbp), %rax	# add, tmp72
	movq	(%rax), %rax	# add_1->next, tmp73
	movq	%rax, -8(%rbp)	# tmp73, next
	.loc 1 922 0
	movq	-40(%rbp), %rax	# to, tmp74
	movq	(%rax), %rax	# *to_9(D), tmp75
	movq	%rax, -16(%rbp)	# tmp75, tmp2
	jmp	.L130	#
.L132:
	.loc 1 923 0
	movq	-16(%rbp), %rax	# tmp2, tmp76
	movq	8(%rax), %rdx	# tmp2_7->expr, D.19652
	movq	-48(%rbp), %rax	# add, tmp77
	movq	8(%rax), %rax	# add_1->expr, D.19652
	cmpq	%rax, %rdx	# D.19652, D.19652
	jne	.L131	#,
	.loc 1 925 0
	movl	$1, -28(%rbp)	#, found
	.loc 1 926 0
	movq	-16(%rbp), %rax	# tmp2, tmp78
	movq	16(%rax), %rax	# tmp2_7->writer, D.19652
	testq	%rax, %rax	# D.19652
	jne	.L131	#,
	.loc 1 927 0
	movq	-48(%rbp), %rax	# add, tmp79
	movq	16(%rax), %rdx	# add_1->writer, D.19652
	movq	-16(%rbp), %rax	# tmp2, tmp80
	movq	%rdx, 16(%rax)	# D.19652, tmp2_7->writer
.L131:
	.loc 1 922 0
	movq	-16(%rbp), %rax	# tmp2, tmp81
	movq	(%rax), %rax	# tmp2_7->next, tmp82
	movq	%rax, -16(%rbp)	# tmp82, tmp2
.L130:
	.loc 1 922 0 is_stmt 0 discriminator 1
	cmpq	$0, -16(%rbp)	#, tmp2
	jne	.L132	#,
	.loc 1 929 0 is_stmt 1
	cmpl	$0, -28(%rbp)	#, found
	jne	.L133	#,
	.loc 1 931 0
	cmpl	$0, -52(%rbp)	#, copy
	jne	.L134	#,
	.loc 1 931 0 is_stmt 0 discriminator 1
	movq	-48(%rbp), %rax	# add, tmp83
	movq	16(%rax), %rdx	# add_1->writer, D.19652
	movq	-48(%rbp), %rax	# add, tmp84
	movq	8(%rax), %rax	# add_1->expr, D.19652
	movq	%rax, %rsi	# D.19652,
	movl	$0, %edi	#,
	call	new_tlist	#
	jmp	.L135	#
.L134:
	.loc 1 931 0 discriminator 2
	movq	-48(%rbp), %rax	# add, iftmp.88
.L135:
	.loc 1 931 0 discriminator 3
	movq	-24(%rbp), %rdx	# end, tmp85
	movq	%rax, (%rdx)	# iftmp.88, *end_4
	.loc 1 932 0 is_stmt 1 discriminator 3
	movq	-24(%rbp), %rax	# end, tmp86
	movq	(%rax), %rax	# *end_4, D.19651
	movq	%rax, -24(%rbp)	# D.19651, end
	.loc 1 933 0 discriminator 3
	movq	-24(%rbp), %rax	# end, tmp87
	movq	$0, (%rax)	#, *end_30
.L133:
	.loc 1 935 0
	movq	-8(%rbp), %rax	# next, tmp88
	movq	%rax, -48(%rbp)	# tmp88, add
.L129:
.LBE16:
	.loc 1 916 0 discriminator 1
	cmpq	$0, -48(%rbp)	#, add
	jne	.L136	#,
	.loc 1 937 0
	leave
	.cfi_def_cfa 7, 8
	ret
	.cfi_endproc
.LFE23:
	.size	merge_tlist, .-merge_tlist
	.section	.rodata
	.align 8
.LC13:
	.string	"operation on `%s' may be undefined"
	.text
	.type	warn_for_collisions_1, @function
warn_for_collisions_1:
.LFB24:
	.loc 1 948 0
	.cfi_startproc
	pushq	%rbp	#
	.cfi_def_cfa_offset 16
	.cfi_offset 6, -16
	movq	%rsp, %rbp	#,
	.cfi_def_cfa_register 6
	subq	$48, %rsp	#,
	movq	%rdi, -24(%rbp)	# written, written
	movq	%rsi, -32(%rbp)	# writer, writer
	movq	%rdx, -40(%rbp)	# list, list
	movl	%ecx, -44(%rbp)	# only_writes, only_writes
	.loc 1 952 0
	movq	warned_ids(%rip), %rax	# warned_ids, tmp68
	movq	%rax, -8(%rbp)	# tmp68, tmp
	jmp	.L138	#
.L141:
	.loc 1 953 0
	movq	-8(%rbp), %rax	# tmp, tmp69
	movq	8(%rax), %rax	# tmp_2->expr, D.19653
	cmpq	-24(%rbp), %rax	# written, D.19653
	jne	.L139	#,
	.loc 1 954 0
	jmp	.L137	#
.L139:
	.loc 1 952 0
	movq	-8(%rbp), %rax	# tmp, tmp70
	movq	(%rax), %rax	# tmp_2->next, tmp71
	movq	%rax, -8(%rbp)	# tmp71, tmp
.L138:
	.loc 1 952 0 is_stmt 0 discriminator 1
	cmpq	$0, -8(%rbp)	#, tmp
	jne	.L141	#,
	.loc 1 956 0 is_stmt 1
	jmp	.L142	#
.L145:
	.loc 1 958 0
	movq	-40(%rbp), %rax	# list, tmp72
	movq	8(%rax), %rax	# list_1->expr, D.19653
	cmpq	-24(%rbp), %rax	# written, D.19653
	jne	.L143	#,
	.loc 1 959 0
	movq	-40(%rbp), %rax	# list, tmp73
	movq	16(%rax), %rax	# list_1->writer, D.19653
	cmpq	-32(%rbp), %rax	# writer, D.19653
	je	.L143	#,
	.loc 1 960 0
	cmpl	$0, -44(%rbp)	#, only_writes
	je	.L144	#,
	.loc 1 960 0 is_stmt 0 discriminator 1
	movq	-40(%rbp), %rax	# list, tmp74
	movq	16(%rax), %rax	# list_1->writer, D.19653
	testq	%rax, %rax	# D.19653
	je	.L143	#,
.L144:
	.loc 1 962 0 is_stmt 1
	movq	warned_ids(%rip), %rax	# warned_ids, warned_ids.89
	movq	-24(%rbp), %rcx	# written, tmp75
	movl	$0, %edx	#,
	movq	%rcx, %rsi	# tmp75,
	movq	%rax, %rdi	# warned_ids.89,
	call	new_tlist	#
	movq	%rax, warned_ids(%rip)	# warned_ids.90, warned_ids
	.loc 1 964 0
	movq	-40(%rbp), %rax	# list, tmp76
	movq	8(%rax), %rax	# list_1->expr, D.19653
	movq	72(%rax), %rax	# _15->decl.name, D.19653
	movq	32(%rax), %rax	# _16->identifier.id.str, D.19654
	.loc 1 963 0
	movq	%rax, %rsi	# D.19654,
	movl	$.LC13, %edi	#,
	movl	$0, %eax	#,
	call	warning	#
.L143:
	.loc 1 966 0
	movq	-40(%rbp), %rax	# list, tmp77
	movq	(%rax), %rax	# list_1->next, tmp78
	movq	%rax, -40(%rbp)	# tmp78, list
.L142:
	.loc 1 956 0 discriminator 1
	cmpq	$0, -40(%rbp)	#, list
	jne	.L145	#,
.L137:
	.loc 1 968 0
	leave
	.cfi_def_cfa 7, 8
	ret
	.cfi_endproc
.LFE24:
	.size	warn_for_collisions_1, .-warn_for_collisions_1
	.type	warn_for_collisions, @function
warn_for_collisions:
.LFB25:
	.loc 1 976 0
	.cfi_startproc
	pushq	%rbp	#
	.cfi_def_cfa_offset 16
	.cfi_offset 6, -16
	movq	%rsp, %rbp	#,
	.cfi_def_cfa_register 6
	subq	$32, %rsp	#,
	movq	%rdi, -24(%rbp)	# list, list
	.loc 1 979 0
	movq	-24(%rbp), %rax	# list, tmp62
	movq	%rax, -8(%rbp)	# tmp62, tmp
	jmp	.L147	#
.L149:
	.loc 1 981 0
	movq	-8(%rbp), %rax	# tmp, tmp63
	movq	16(%rax), %rax	# tmp_1->writer, D.19656
	testq	%rax, %rax	# D.19656
	je	.L148	#,
	.loc 1 982 0
	movq	-8(%rbp), %rax	# tmp, tmp64
	movq	16(%rax), %rsi	# tmp_1->writer, D.19656
	movq	-8(%rbp), %rax	# tmp, tmp65
	movq	8(%rax), %rax	# tmp_1->expr, D.19656
	movq	-24(%rbp), %rdx	# list, tmp66
	movl	$0, %ecx	#,
	movq	%rax, %rdi	# D.19656,
	call	warn_for_collisions_1	#
.L148:
	.loc 1 979 0
	movq	-8(%rbp), %rax	# tmp, tmp67
	movq	(%rax), %rax	# tmp_1->next, tmp68
	movq	%rax, -8(%rbp)	# tmp68, tmp
.L147:
	.loc 1 979 0 is_stmt 0 discriminator 1
	cmpq	$0, -8(%rbp)	#, tmp
	jne	.L149	#,
	.loc 1 984 0 is_stmt 1
	leave
	.cfi_def_cfa 7, 8
	ret
	.cfi_endproc
.LFE25:
	.size	warn_for_collisions, .-warn_for_collisions
	.type	warning_candidate_p, @function
warning_candidate_p:
.LFB26:
	.loc 1 991 0
	.cfi_startproc
	pushq	%rbp	#
	.cfi_def_cfa_offset 16
	.cfi_offset 6, -16
	movq	%rsp, %rbp	#,
	.cfi_def_cfa_register 6
	movq	%rdi, -8(%rbp)	# x, x
	.loc 1 992 0
	movq	-8(%rbp), %rax	# x, tmp64
	movzbl	16(%rax), %eax	# x_2(D)->common.code, D.19657
	cmpb	$34, %al	#, D.19657
	je	.L151	#,
	.loc 1 992 0 is_stmt 0 discriminator 2
	movq	-8(%rbp), %rax	# x, tmp65
	movzbl	16(%rax), %eax	# x_2(D)->common.code, D.19657
	cmpb	$35, %al	#, D.19657
	jne	.L152	#,
.L151:
	.loc 1 992 0 discriminator 1
	movl	$1, %eax	#, iftmp.91
	jmp	.L153	#
.L152:
	.loc 1 992 0 discriminator 3
	movl	$0, %eax	#, iftmp.91
.L153:
	.loc 1 993 0 is_stmt 1 discriminator 4
	popq	%rbp	#
	.cfi_def_cfa 7, 8
	ret
	.cfi_endproc
.LFE26:
	.size	warning_candidate_p, .-warning_candidate_p
	.type	verify_tree, @function
verify_tree:
.LFB27:
	.loc 1 1025 0
	.cfi_startproc
	pushq	%rbp	#
	.cfi_def_cfa_offset 16
	.cfi_offset 6, -16
	movq	%rsp, %rbp	#,
	.cfi_def_cfa_register 6
	subq	$144, %rsp	#,
	movq	%rdi, -120(%rbp)	# x, x
	movq	%rsi, -128(%rbp)	# pbefore_sp, pbefore_sp
	movq	%rdx, -136(%rbp)	# pno_sp, pno_sp
	movq	%rcx, -144(%rbp)	# writer, writer
	.loc 1 1032 0
	cmpq	$0, -120(%rbp)	#, x
	jne	.L156	#,
	.loc 1 1033 0
	jmp	.L155	#
.L156:
	.loc 1 1036 0
	movq	-120(%rbp), %rax	# x, tmp171
	movzbl	16(%rax), %eax	# x_1->common.code, D.19659
	movzbl	%al, %eax	# D.19659, tmp172
	movl	%eax, -92(%rbp)	# tmp172, code
	.loc 1 1037 0
	movl	-92(%rbp), %eax	# code, code.92
	cltq
	movzbl	tree_code_type(%rax), %eax	# tree_code_type, tmp174
	movb	%al, -97(%rbp)	# tmp174, class
	.loc 1 1039 0
	movq	-120(%rbp), %rax	# x, tmp175
	movq	%rax, %rdi	# tmp175,
	call	warning_candidate_p	#
	testl	%eax, %eax	# D.19660
	je	.L158	#,
	.loc 1 1041 0
	movq	-136(%rbp), %rax	# pno_sp, tmp176
	movq	(%rax), %rax	# *pno_sp_14(D), D.19661
	movq	-144(%rbp), %rdx	# writer, tmp177
	movq	-120(%rbp), %rcx	# x, tmp178
	movq	%rcx, %rsi	# tmp178,
	movq	%rax, %rdi	# D.19661,
	call	new_tlist	#
	movq	-136(%rbp), %rdx	# pno_sp, tmp179
	movq	%rax, (%rdx)	# D.19661, *pno_sp_14(D)
	.loc 1 1042 0
	jmp	.L155	#
.L158:
	.loc 1 1045 0
	movl	-92(%rbp), %eax	# code, code
	cmpl	$53, %eax	#, code
	je	.L160	#,
	cmpl	$53, %eax	#, code
	ja	.L161	#,
	cmpl	$47, %eax	#, code
	je	.L162	#,
	cmpl	$47, %eax	#, code
	ja	.L163	#,
	cmpl	$2, %eax	#, code
	je	.L173	#,
	cmpl	$46, %eax	#, code
	je	.L195	#,
	.loc 1 1179 0
	jmp	.L196	#
.L163:
	.loc 1 1045 0
	cmpl	$48, %eax	#, code
	je	.L166	#,
	cmpl	$51, %eax	#, code
	je	.L167	#,
	.loc 1 1179 0
	jmp	.L196	#
.L161:
	.loc 1 1045 0
	cmpl	$118, %eax	#, code
	je	.L168	#,
	cmpl	$118, %eax	#, code
	ja	.L169	#,
	subl	$91, %eax	#, tmp181
	cmpl	$1, %eax	#, tmp181
	ja	.L196	#,
	jmp	.L162	#
.L169:
	subl	$129, %eax	#, tmp182
	cmpl	$3, %eax	#, tmp182
	ja	.L196	#,
	jmp	.L194	#
.L162:
	.loc 1 1053 0
	movq	$0, -56(%rbp)	#, tmp_list3
	movq	-56(%rbp), %rax	# tmp_list3, tmp_list3.93
	movq	%rax, -72(%rbp)	# tmp_list3.93, tmp_nosp
	movq	-72(%rbp), %rax	# tmp_nosp, tmp_nosp.94
	movq	%rax, -80(%rbp)	# tmp_nosp.94, tmp_before
	.loc 1 1054 0
	movq	-120(%rbp), %rax	# x, tmp183
	movq	32(%rax), %rax	# x_1->exp.operands, D.19662
	leaq	-72(%rbp), %rdx	#, tmp184
	leaq	-80(%rbp), %rsi	#, tmp185
	movl	$0, %ecx	#,
	movq	%rax, %rdi	# D.19662,
	call	verify_tree	#
	.loc 1 1055 0
	movq	-72(%rbp), %rax	# tmp_nosp, tmp_nosp.95
	movq	%rax, %rdi	# tmp_nosp.95,
	call	warn_for_collisions	#
	.loc 1 1056 0
	movq	-80(%rbp), %rcx	# tmp_before, tmp_before.96
	movq	-128(%rbp), %rax	# pbefore_sp, tmp186
	movl	$0, %edx	#,
	movq	%rcx, %rsi	# tmp_before.96,
	movq	%rax, %rdi	# tmp186,
	call	merge_tlist	#
	.loc 1 1057 0
	movq	-72(%rbp), %rcx	# tmp_nosp, tmp_nosp.97
	movq	-128(%rbp), %rax	# pbefore_sp, tmp187
	movl	$0, %edx	#,
	movq	%rcx, %rsi	# tmp_nosp.97,
	movq	%rax, %rdi	# tmp187,
	call	merge_tlist	#
	.loc 1 1058 0
	movq	-120(%rbp), %rax	# x, tmp188
	movq	40(%rax), %rax	# x_1->exp.operands, D.19662
	movq	-136(%rbp), %rdx	# pno_sp, tmp189
	leaq	-56(%rbp), %rsi	#, tmp190
	movl	$0, %ecx	#,
	movq	%rax, %rdi	# D.19662,
	call	verify_tree	#
	.loc 1 1059 0
	movq	-56(%rbp), %rcx	# tmp_list3, tmp_list3.98
	movq	-128(%rbp), %rax	# pbefore_sp, tmp191
	movl	$0, %edx	#,
	movq	%rcx, %rsi	# tmp_list3.98,
	movq	%rax, %rdi	# tmp191,
	call	merge_tlist	#
	.loc 1 1060 0
	jmp	.L155	#
.L167:
	.loc 1 1063 0
	movq	$0, -64(%rbp)	#, tmp_list2
	movq	-64(%rbp), %rax	# tmp_list2, tmp_list2.99
	movq	%rax, -80(%rbp)	# tmp_list2.99, tmp_before
	.loc 1 1064 0
	movq	-120(%rbp), %rax	# x, tmp192
	movq	32(%rax), %rax	# x_1->exp.operands, D.19662
	leaq	-64(%rbp), %rdx	#, tmp193
	leaq	-80(%rbp), %rsi	#, tmp194
	movl	$0, %ecx	#,
	movq	%rax, %rdi	# D.19662,
	call	verify_tree	#
	.loc 1 1065 0
	movq	-64(%rbp), %rax	# tmp_list2, tmp_list2.100
	movq	%rax, %rdi	# tmp_list2.100,
	call	warn_for_collisions	#
	.loc 1 1066 0
	movq	-80(%rbp), %rcx	# tmp_before, tmp_before.101
	movq	-128(%rbp), %rax	# pbefore_sp, tmp195
	movl	$0, %edx	#,
	movq	%rcx, %rsi	# tmp_before.101,
	movq	%rax, %rdi	# tmp195,
	call	merge_tlist	#
	.loc 1 1067 0
	movq	-64(%rbp), %rcx	# tmp_list2, tmp_list2.102
	movq	-128(%rbp), %rax	# pbefore_sp, tmp196
	movl	$1, %edx	#,
	movq	%rcx, %rsi	# tmp_list2.102,
	movq	%rax, %rdi	# tmp196,
	call	merge_tlist	#
	.loc 1 1069 0
	movq	$0, -72(%rbp)	#, tmp_nosp
	movq	-72(%rbp), %rax	# tmp_nosp, tmp_nosp.103
	movq	%rax, -56(%rbp)	# tmp_nosp.103, tmp_list3
	.loc 1 1070 0
	movq	-120(%rbp), %rax	# x, tmp197
	movq	40(%rax), %rax	# x_1->exp.operands, D.19662
	leaq	-72(%rbp), %rdx	#, tmp198
	leaq	-56(%rbp), %rsi	#, tmp199
	movl	$0, %ecx	#,
	movq	%rax, %rdi	# D.19662,
	call	verify_tree	#
	.loc 1 1071 0
	movq	-72(%rbp), %rax	# tmp_nosp, tmp_nosp.104
	movq	%rax, %rdi	# tmp_nosp.104,
	call	warn_for_collisions	#
	.loc 1 1072 0
	movq	-56(%rbp), %rcx	# tmp_list3, tmp_list3.105
	movq	-128(%rbp), %rax	# pbefore_sp, tmp200
	movl	$0, %edx	#,
	movq	%rcx, %rsi	# tmp_list3.105,
	movq	%rax, %rdi	# tmp200,
	call	merge_tlist	#
	.loc 1 1074 0
	movq	$0, -64(%rbp)	#, tmp_list2
	movq	-64(%rbp), %rax	# tmp_list2, tmp_list2.106
	movq	%rax, -56(%rbp)	# tmp_list2.106, tmp_list3
	.loc 1 1075 0
	movq	-120(%rbp), %rax	# x, tmp201
	movq	48(%rax), %rax	# x_1->exp.operands, D.19662
	leaq	-64(%rbp), %rdx	#, tmp202
	leaq	-56(%rbp), %rsi	#, tmp203
	movl	$0, %ecx	#,
	movq	%rax, %rdi	# D.19662,
	call	verify_tree	#
	.loc 1 1076 0
	movq	-64(%rbp), %rax	# tmp_list2, tmp_list2.107
	movq	%rax, %rdi	# tmp_list2.107,
	call	warn_for_collisions	#
	.loc 1 1077 0
	movq	-56(%rbp), %rcx	# tmp_list3, tmp_list3.108
	movq	-128(%rbp), %rax	# pbefore_sp, tmp204
	movl	$0, %edx	#,
	movq	%rcx, %rsi	# tmp_list3.108,
	movq	%rax, %rdi	# tmp204,
	call	merge_tlist	#
	.loc 1 1080 0
	movq	-64(%rbp), %rcx	# tmp_list2, tmp_list2.109
	leaq	-72(%rbp), %rax	#, tmp205
	movl	$0, %edx	#,
	movq	%rcx, %rsi	# tmp_list2.109,
	movq	%rax, %rdi	# tmp205,
	call	merge_tlist	#
	.loc 1 1081 0
	movq	-72(%rbp), %rsi	# tmp_nosp, tmp_nosp.110
	movq	-136(%rbp), %rax	# pno_sp, tmp206
	movl	$0, %ecx	#,
	movl	$0, %edx	#,
	movq	%rax, %rdi	# tmp206,
	call	add_tlist	#
	.loc 1 1082 0
	jmp	.L155	#
.L194:
	.loc 1 1088 0
	movq	-120(%rbp), %rax	# x, tmp207
	movq	32(%rax), %rax	# x_1->exp.operands, D.19662
	movq	-120(%rbp), %rcx	# x, tmp208
	movq	-136(%rbp), %rdx	# pno_sp, tmp209
	movq	-136(%rbp), %rsi	# pno_sp, tmp210
	movq	%rax, %rdi	# D.19662,
	call	verify_tree	#
	.loc 1 1089 0
	jmp	.L155	#
.L166:
	.loc 1 1092 0
	movq	$0, -56(%rbp)	#, tmp_list3
	movq	-56(%rbp), %rax	# tmp_list3, tmp_list3.111
	movq	%rax, -72(%rbp)	# tmp_list3.111, tmp_nosp
	movq	-72(%rbp), %rax	# tmp_nosp, tmp_nosp.112
	movq	%rax, -80(%rbp)	# tmp_nosp.112, tmp_before
	.loc 1 1093 0
	movq	-120(%rbp), %rax	# x, tmp211
	movq	40(%rax), %rax	# x_1->exp.operands, D.19662
	leaq	-72(%rbp), %rdx	#, tmp212
	leaq	-80(%rbp), %rsi	#, tmp213
	movl	$0, %ecx	#,
	movq	%rax, %rdi	# D.19662,
	call	verify_tree	#
	.loc 1 1094 0
	movq	-120(%rbp), %rax	# x, tmp214
	movq	32(%rax), %rax	# x_1->exp.operands, D.19662
	movq	-120(%rbp), %rcx	# x, tmp215
	leaq	-56(%rbp), %rdx	#, tmp216
	leaq	-56(%rbp), %rsi	#, tmp217
	movq	%rax, %rdi	# D.19662,
	call	verify_tree	#
	.loc 1 1103 0
	movq	-56(%rbp), %rsi	# tmp_list3, tmp_list3.113
	movq	-120(%rbp), %rdx	# x, tmp218
	leaq	-80(%rbp), %rax	#, tmp219
	movl	$1, %ecx	#,
	movq	%rax, %rdi	# tmp219,
	call	add_tlist	#
	.loc 1 1104 0
	movq	-80(%rbp), %rax	# tmp_before, tmp_before.114
	movq	%rax, %rdi	# tmp_before.114,
	call	warn_for_collisions	#
	.loc 1 1109 0
	movq	-56(%rbp), %rsi	# tmp_list3, tmp_list3.115
	movq	-120(%rbp), %rdx	# x, tmp220
	movq	-136(%rbp), %rax	# pno_sp, tmp221
	movl	$0, %ecx	#,
	movq	%rax, %rdi	# tmp221,
	call	add_tlist	#
	.loc 1 1110 0
	movq	-72(%rbp), %rdx	# tmp_nosp, tmp_nosp.116
	movq	-120(%rbp), %rax	# x, tmp222
	movq	32(%rax), %rax	# x_1->exp.operands, D.19662
	movq	-120(%rbp), %rsi	# x, tmp223
	movl	$1, %ecx	#,
	movq	%rax, %rdi	# D.19662,
	call	warn_for_collisions_1	#
	.loc 1 1112 0
	movq	-80(%rbp), %rcx	# tmp_before, tmp_before.117
	movq	-128(%rbp), %rax	# pbefore_sp, tmp224
	movl	$0, %edx	#,
	movq	%rcx, %rsi	# tmp_before.117,
	movq	%rax, %rdi	# tmp224,
	call	merge_tlist	#
	.loc 1 1113 0
	movq	-120(%rbp), %rax	# x, tmp225
	movq	32(%rax), %rax	# x_1->exp.operands, D.19662
	movq	%rax, %rdi	# D.19662,
	call	warning_candidate_p	#
	testl	%eax, %eax	# D.19660
	je	.L171	#,
	.loc 1 1114 0
	movq	-120(%rbp), %rax	# x, tmp226
	movq	32(%rax), %rax	# x_1->exp.operands, D.19662
	movq	-120(%rbp), %rdx	# x, tmp227
	movq	%rax, %rsi	# D.19662,
	movl	$0, %edi	#,
	call	new_tlist	#
	movq	%rax, %rcx	#, D.19661
	leaq	-72(%rbp), %rax	#, tmp228
	movl	$0, %edx	#,
	movq	%rcx, %rsi	# D.19661,
	movq	%rax, %rdi	# tmp228,
	call	merge_tlist	#
.L171:
	.loc 1 1115 0
	movq	-72(%rbp), %rsi	# tmp_nosp, tmp_nosp.118
	movq	-136(%rbp), %rax	# pno_sp, tmp229
	movl	$1, %ecx	#,
	movl	$0, %edx	#,
	movq	%rax, %rdi	# tmp229,
	call	add_tlist	#
	.loc 1 1116 0
	jmp	.L155	#
.L160:
	.loc 1 1122 0
	movq	$0, -56(%rbp)	#, tmp_list3
	movq	-56(%rbp), %rax	# tmp_list3, tmp_list3.119
	movq	%rax, -64(%rbp)	# tmp_list3.119, tmp_list2
	movq	-64(%rbp), %rax	# tmp_list2, tmp_list2.120
	movq	%rax, -72(%rbp)	# tmp_list2.120, tmp_nosp
	movq	-72(%rbp), %rax	# tmp_nosp, tmp_nosp.121
	movq	%rax, -80(%rbp)	# tmp_nosp.121, tmp_before
	.loc 1 1123 0
	movq	-120(%rbp), %rax	# x, tmp230
	movq	32(%rax), %rax	# x_1->exp.operands, D.19662
	leaq	-72(%rbp), %rdx	#, tmp231
	leaq	-80(%rbp), %rsi	#, tmp232
	movl	$0, %ecx	#,
	movq	%rax, %rdi	# D.19662,
	call	verify_tree	#
	.loc 1 1124 0
	movq	-120(%rbp), %rax	# x, tmp233
	movq	40(%rax), %rax	# x_1->exp.operands, D.19662
	testq	%rax, %rax	# D.19662
	je	.L172	#,
	.loc 1 1125 0
	movq	-120(%rbp), %rax	# x, tmp234
	movq	40(%rax), %rax	# x_1->exp.operands, D.19662
	leaq	-56(%rbp), %rdx	#, tmp235
	leaq	-64(%rbp), %rsi	#, tmp236
	movl	$0, %ecx	#,
	movq	%rax, %rdi	# D.19662,
	call	verify_tree	#
.L172:
	.loc 1 1126 0
	movq	-64(%rbp), %rcx	# tmp_list2, tmp_list2.122
	leaq	-56(%rbp), %rax	#, tmp237
	movl	$0, %edx	#,
	movq	%rcx, %rsi	# tmp_list2.122,
	movq	%rax, %rdi	# tmp237,
	call	merge_tlist	#
	.loc 1 1127 0
	movq	-56(%rbp), %rsi	# tmp_list3, tmp_list3.123
	leaq	-80(%rbp), %rax	#, tmp238
	movl	$0, %ecx	#,
	movl	$0, %edx	#,
	movq	%rax, %rdi	# tmp238,
	call	add_tlist	#
	.loc 1 1128 0
	movq	-72(%rbp), %rsi	# tmp_nosp, tmp_nosp.124
	leaq	-80(%rbp), %rax	#, tmp239
	movl	$0, %ecx	#,
	movl	$0, %edx	#,
	movq	%rax, %rdi	# tmp239,
	call	add_tlist	#
	.loc 1 1129 0
	movq	-80(%rbp), %rax	# tmp_before, tmp_before.125
	movq	%rax, %rdi	# tmp_before.125,
	call	warn_for_collisions	#
	.loc 1 1130 0
	movq	-80(%rbp), %rsi	# tmp_before, tmp_before.126
	movq	-128(%rbp), %rax	# pbefore_sp, tmp240
	movl	$0, %ecx	#,
	movl	$0, %edx	#,
	movq	%rax, %rdi	# tmp240,
	call	add_tlist	#
	.loc 1 1131 0
	jmp	.L155	#
.L174:
	.loc 1 1137 0
	movq	$0, -72(%rbp)	#, tmp_nosp
	movq	-72(%rbp), %rax	# tmp_nosp, tmp_nosp.127
	movq	%rax, -80(%rbp)	# tmp_nosp.127, tmp_before
	.loc 1 1138 0
	movq	-120(%rbp), %rax	# x, tmp241
	movq	32(%rax), %rax	# x_2->list.value, D.19662
	leaq	-72(%rbp), %rdx	#, tmp242
	leaq	-80(%rbp), %rsi	#, tmp243
	movl	$0, %ecx	#,
	movq	%rax, %rdi	# D.19662,
	call	verify_tree	#
	.loc 1 1139 0
	movq	-80(%rbp), %rcx	# tmp_before, tmp_before.128
	leaq	-72(%rbp), %rax	#, tmp244
	movl	$0, %edx	#,
	movq	%rcx, %rsi	# tmp_before.128,
	movq	%rax, %rdi	# tmp244,
	call	merge_tlist	#
	.loc 1 1140 0
	movq	-72(%rbp), %rsi	# tmp_nosp, tmp_nosp.129
	movq	-136(%rbp), %rax	# pno_sp, tmp245
	movl	$0, %ecx	#,
	movl	$0, %edx	#,
	movq	%rax, %rdi	# tmp245,
	call	add_tlist	#
	.loc 1 1141 0
	movq	-120(%rbp), %rax	# x, tmp246
	movq	(%rax), %rax	# x_2->common.chain, tmp247
	movq	%rax, -120(%rbp)	# tmp247, x
.L173:
	.loc 1 1135 0 discriminator 1
	cmpq	$0, -120(%rbp)	#, x
	jne	.L174	#,
	.loc 1 1143 0
	jmp	.L155	#
.L168:
.LBB17:
	.loc 1 1148 0
	movq	save_expr_cache(%rip), %rax	# save_expr_cache, tmp248
	movq	%rax, -48(%rbp)	# tmp248, t
	jmp	.L175	#
.L178:
	.loc 1 1149 0
	movq	-48(%rbp), %rax	# t, tmp249
	movq	24(%rax), %rax	# t_4->expr, D.19662
	cmpq	-120(%rbp), %rax	# x, D.19662
	jne	.L176	#,
	.loc 1 1150 0
	jmp	.L177	#
.L176:
	.loc 1 1148 0
	movq	-48(%rbp), %rax	# t, tmp250
	movq	(%rax), %rax	# t_4->next, tmp251
	movq	%rax, -48(%rbp)	# tmp251, t
.L175:
	.loc 1 1148 0 is_stmt 0 discriminator 1
	cmpq	$0, -48(%rbp)	#, t
	jne	.L178	#,
.L177:
	.loc 1 1152 0 is_stmt 1
	cmpq	$0, -48(%rbp)	#, t
	jne	.L179	#,
.LBB18:
	.loc 1 1154 0
	movq	$tlist_obstack, -40(%rbp)	#, __h
.LBB19:
	movq	-40(%rbp), %rax	# __h, tmp252
	movq	%rax, -32(%rbp)	# tmp252, __o
	movl	$32, -88(%rbp)	#, __len
	movq	-32(%rbp), %rax	# __o, tmp253
	movq	32(%rax), %rax	# __o_77->chunk_limit, D.19663
	movq	%rax, %rdx	# D.19663, D.19664
	movq	-32(%rbp), %rax	# __o, tmp254
	movq	24(%rax), %rax	# __o_77->next_free, D.19663
	subq	%rax, %rdx	# D.19664, D.19664
	movl	-88(%rbp), %eax	# __len, tmp255
	cltq
	cmpq	%rax, %rdx	# D.19664, D.19664
	jge	.L180	#,
	.loc 1 1154 0 is_stmt 0 discriminator 1
	movl	-88(%rbp), %edx	# __len, tmp256
	movq	-32(%rbp), %rax	# __o, tmp257
	movl	%edx, %esi	# tmp256,
	movq	%rax, %rdi	# tmp257,
	call	_obstack_newchunk	#
.L180:
	.loc 1 1154 0 discriminator 2
	movq	-32(%rbp), %rax	# __o, tmp258
	movq	24(%rax), %rdx	# __o_77->next_free, D.19663
	movl	-88(%rbp), %eax	# __len, tmp259
	cltq
	addq	%rax, %rdx	# D.19665, D.19663
	movq	-32(%rbp), %rax	# __o, tmp260
	movq	%rdx, 24(%rax)	# D.19663, __o_77->next_free
.LBE19:
.LBB20:
	movq	-40(%rbp), %rax	# __h, tmp261
	movq	%rax, -24(%rbp)	# tmp261, __o1
	movq	-24(%rbp), %rax	# __o1, tmp262
	movq	16(%rax), %rax	# __o1_88->object_base, tmp263
	movq	%rax, -16(%rbp)	# tmp263, value
	movq	-24(%rbp), %rax	# __o1, tmp264
	movq	24(%rax), %rax	# __o1_88->next_free, D.19663
	cmpq	-16(%rbp), %rax	# value, D.19663
	jne	.L181	#,
	.loc 1 1154 0 discriminator 1
	movq	-24(%rbp), %rax	# __o1, tmp265
	movzbl	80(%rax), %edx	# __o1_88->maybe_empty_object, tmp268
	orl	$2, %edx	#, tmp269
	movb	%dl, 80(%rax)	# tmp269, __o1_88->maybe_empty_object
.L181:
	.loc 1 1154 0 discriminator 2
	movq	-24(%rbp), %rax	# __o1, tmp270
	movq	24(%rax), %rax	# __o1_88->next_free, D.19663
	movq	%rax, %rdx	# D.19663, D.19664
	movq	-24(%rbp), %rax	# __o1, tmp271
	movl	48(%rax), %eax	# __o1_88->alignment_mask, D.19660
	cltq
	addq	%rax, %rdx	# D.19664, D.19664
	movq	-24(%rbp), %rax	# __o1, tmp272
	movl	48(%rax), %eax	# __o1_88->alignment_mask, D.19660
	notl	%eax	# D.19660
	cltq
	andq	%rdx, %rax	# D.19664, D.19664
	movq	%rax, %rdx	# D.19664, D.19663
	movq	-24(%rbp), %rax	# __o1, tmp273
	movq	%rdx, 24(%rax)	# D.19663, __o1_88->next_free
	movq	-24(%rbp), %rax	# __o1, tmp274
	movq	24(%rax), %rax	# __o1_88->next_free, D.19663
	movq	%rax, %rdx	# D.19663, D.19664
	movq	-24(%rbp), %rax	# __o1, tmp275
	movq	8(%rax), %rax	# __o1_88->chunk, D.19666
	movq	%rdx, %rcx	# D.19664, D.19664
	subq	%rax, %rcx	# D.19664, D.19664
	movq	-24(%rbp), %rax	# __o1, tmp276
	movq	32(%rax), %rax	# __o1_88->chunk_limit, D.19663
	movq	%rax, %rdx	# D.19663, D.19664
	movq	-24(%rbp), %rax	# __o1, tmp277
	movq	8(%rax), %rax	# __o1_88->chunk, D.19666
	subq	%rax, %rdx	# D.19664, D.19664
	movq	%rdx, %rax	# D.19664, D.19664
	cmpq	%rax, %rcx	# D.19664, D.19664
	jle	.L182	#,
	.loc 1 1154 0 discriminator 1
	movq	-24(%rbp), %rax	# __o1, tmp278
	movq	32(%rax), %rdx	# __o1_88->chunk_limit, D.19663
	movq	-24(%rbp), %rax	# __o1, tmp279
	movq	%rdx, 24(%rax)	# D.19663, __o1_88->next_free
.L182:
	.loc 1 1154 0 discriminator 2
	movq	-24(%rbp), %rax	# __o1, tmp280
	movq	24(%rax), %rdx	# __o1_88->next_free, D.19663
	movq	-24(%rbp), %rax	# __o1, tmp281
	movq	%rdx, 16(%rax)	# D.19663, __o1_88->object_base
	movq	-16(%rbp), %rax	# value, D.19667
.LBE20:
.LBE18:
	movq	%rax, -48(%rbp)	# t.130, t
	.loc 1 1156 0 is_stmt 1 discriminator 2
	movq	save_expr_cache(%rip), %rdx	# save_expr_cache, save_expr_cache.131
	movq	-48(%rbp), %rax	# t, tmp282
	movq	%rdx, (%rax)	# save_expr_cache.131, t_115->next
	.loc 1 1157 0 discriminator 2
	movq	-48(%rbp), %rax	# t, tmp283
	movq	-120(%rbp), %rdx	# x, tmp284
	movq	%rdx, 24(%rax)	# tmp284, t_115->expr
	.loc 1 1158 0 discriminator 2
	movq	-48(%rbp), %rax	# t, tmp285
	movq	%rax, save_expr_cache(%rip)	# tmp285, save_expr_cache
	.loc 1 1160 0 discriminator 2
	movq	$0, -72(%rbp)	#, tmp_nosp
	movq	-72(%rbp), %rax	# tmp_nosp, tmp_nosp.132
	movq	%rax, -80(%rbp)	# tmp_nosp.132, tmp_before
	.loc 1 1161 0 discriminator 2
	movq	-120(%rbp), %rax	# x, tmp286
	movq	32(%rax), %rax	# x_1->exp.operands, D.19662
	leaq	-72(%rbp), %rdx	#, tmp287
	leaq	-80(%rbp), %rsi	#, tmp288
	movl	$0, %ecx	#,
	movq	%rax, %rdi	# D.19662,
	call	verify_tree	#
	.loc 1 1162 0 discriminator 2
	movq	-72(%rbp), %rax	# tmp_nosp, tmp_nosp.133
	movq	%rax, %rdi	# tmp_nosp.133,
	call	warn_for_collisions	#
	.loc 1 1164 0 discriminator 2
	movq	$0, -56(%rbp)	#, tmp_list3
	.loc 1 1165 0 discriminator 2
	jmp	.L183	#
.L184:
.LBB21:
	.loc 1 1167 0
	movq	-72(%rbp), %rax	# tmp_nosp, tmp289
	movq	%rax, -8(%rbp)	# tmp289, t
	.loc 1 1168 0
	movq	-8(%rbp), %rax	# t, tmp290
	movq	(%rax), %rax	# t_121->next, tmp_nosp.134
	movq	%rax, -72(%rbp)	# tmp_nosp.134, tmp_nosp
	.loc 1 1169 0
	movq	-8(%rbp), %rcx	# t, tmp291
	leaq	-56(%rbp), %rax	#, tmp292
	movl	$0, %edx	#,
	movq	%rcx, %rsi	# tmp291,
	movq	%rax, %rdi	# tmp292,
	call	merge_tlist	#
.L183:
.LBE21:
	.loc 1 1165 0 discriminator 1
	movq	-72(%rbp), %rax	# tmp_nosp, tmp_nosp.135
	testq	%rax, %rax	# tmp_nosp.135
	jne	.L184	#,
	.loc 1 1171 0
	movq	-80(%rbp), %rdx	# tmp_before, tmp_before.136
	movq	-48(%rbp), %rax	# t, tmp293
	movq	%rdx, 8(%rax)	# tmp_before.136, t_115->cache_before_sp
	.loc 1 1172 0
	movq	-56(%rbp), %rdx	# tmp_list3, tmp_list3.137
	movq	-48(%rbp), %rax	# t, tmp294
	movq	%rdx, 16(%rax)	# tmp_list3.137, t_115->cache_after_sp
.L179:
	.loc 1 1174 0
	movq	-48(%rbp), %rax	# t, tmp295
	movq	8(%rax), %rcx	# t_5->cache_before_sp, D.19661
	movq	-128(%rbp), %rax	# pbefore_sp, tmp296
	movl	$1, %edx	#,
	movq	%rcx, %rsi	# D.19661,
	movq	%rax, %rdi	# tmp296,
	call	merge_tlist	#
	.loc 1 1175 0
	movq	-48(%rbp), %rax	# t, tmp297
	movq	16(%rax), %rsi	# t_5->cache_after_sp, D.19661
	movq	-136(%rbp), %rax	# pno_sp, tmp298
	movl	$1, %ecx	#,
	movl	$0, %edx	#,
	movq	%rax, %rdi	# tmp298,
	call	add_tlist	#
	.loc 1 1176 0
	jmp	.L155	#
.L196:
.LBE17:
	.loc 1 1179 0
	nop
	.loc 1 1182 0
	cmpb	$49, -97(%rbp)	#, class
	jne	.L185	#,
	.loc 1 1184 0
	movl	-92(%rbp), %eax	# code, tmp299
	movl	%eax, %edi	# tmp299,
	call	first_rtl_op	#
	testl	%eax, %eax	# D.19660
	jne	.L186	#,
	.loc 1 1185 0
	jmp	.L155	#
.L186:
	.loc 1 1186 0
	movq	-120(%rbp), %rax	# x, tmp300
	movq	32(%rax), %rax	# x_1->exp.operands, tmp301
	movq	%rax, -120(%rbp)	# tmp301, x
	.loc 1 1187 0
	movq	$0, -144(%rbp)	#, writer
	.loc 1 1188 0
	jmp	.L156	#
.L185:
	.loc 1 1191 0
	movsbl	-97(%rbp), %eax	# class, D.19660
	subl	$50, %eax	#, tmp302
	cmpl	$70, %eax	#, tmp302
	ja	.L155	#,
	movl	%eax, %eax	# tmp302, tmp303
	movq	.L189(,%rax,8), %rax	#, tmp304
	jmp	*%rax	# tmp304
	.section	.rodata
	.align 8
	.align 4
.L189:
	.quad	.L188
	.quad	.L155
	.quad	.L155
	.quad	.L155
	.quad	.L155
	.quad	.L155
	.quad	.L155
	.quad	.L155
	.quad	.L155
	.quad	.L155
	.quad	.L188
	.quad	.L155
	.quad	.L155
	.quad	.L155
	.quad	.L155
	.quad	.L155
	.quad	.L155
	.quad	.L155
	.quad	.L155
	.quad	.L155
	.quad	.L155
	.quad	.L155
	.quad	.L155
	.quad	.L155
	.quad	.L155
	.quad	.L155
	.quad	.L155
	.quad	.L155
	.quad	.L155
	.quad	.L155
	.quad	.L155
	.quad	.L155
	.quad	.L155
	.quad	.L155
	.quad	.L155
	.quad	.L155
	.quad	.L155
	.quad	.L155
	.quad	.L155
	.quad	.L155
	.quad	.L155
	.quad	.L155
	.quad	.L155
	.quad	.L155
	.quad	.L155
	.quad	.L155
	.quad	.L155
	.quad	.L155
	.quad	.L188
	.quad	.L155
	.quad	.L155
	.quad	.L188
	.quad	.L155
	.quad	.L155
	.quad	.L155
	.quad	.L155
	.quad	.L155
	.quad	.L155
	.quad	.L155
	.quad	.L155
	.quad	.L155
	.quad	.L155
	.quad	.L155
	.quad	.L155
	.quad	.L188
	.quad	.L188
	.quad	.L155
	.quad	.L155
	.quad	.L155
	.quad	.L155
	.quad	.L188
	.text
.L188:
.LBB22:
	.loc 1 1202 0
	movq	-120(%rbp), %rax	# x, tmp305
	movzbl	16(%rax), %eax	# x_1->common.code, D.19659
	movzbl	%al, %eax	# D.19659, D.19668
	movl	%eax, %edi	# D.19668,
	call	first_rtl_op	#
	movl	%eax, -84(%rbp)	# tmp306, max
	.loc 1 1203 0
	movl	$0, -96(%rbp)	#, lp
	jmp	.L190	#
.L191:
	.loc 1 1205 0 discriminator 2
	movq	$0, -72(%rbp)	#, tmp_nosp
	movq	-72(%rbp), %rax	# tmp_nosp, tmp_nosp.138
	movq	%rax, -80(%rbp)	# tmp_nosp.138, tmp_before
	.loc 1 1206 0 discriminator 2
	movq	-120(%rbp), %rax	# x, tmp307
	movl	-96(%rbp), %edx	# lp, tmp309
	movslq	%edx, %rdx	# tmp309, tmp308
	addq	$4, %rdx	#, tmp310
	movq	(%rax,%rdx,8), %rax	# x_1->exp.operands, D.19662
	leaq	-72(%rbp), %rdx	#, tmp311
	leaq	-80(%rbp), %rsi	#, tmp312
	movl	$0, %ecx	#,
	movq	%rax, %rdi	# D.19662,
	call	verify_tree	#
	.loc 1 1207 0 discriminator 2
	movq	-80(%rbp), %rcx	# tmp_before, tmp_before.139
	leaq	-72(%rbp), %rax	#, tmp313
	movl	$0, %edx	#,
	movq	%rcx, %rsi	# tmp_before.139,
	movq	%rax, %rdi	# tmp313,
	call	merge_tlist	#
	.loc 1 1208 0 discriminator 2
	movq	-72(%rbp), %rsi	# tmp_nosp, tmp_nosp.140
	movq	-136(%rbp), %rax	# pno_sp, tmp314
	movl	$0, %ecx	#,
	movl	$0, %edx	#,
	movq	%rax, %rdi	# tmp314,
	call	add_tlist	#
	.loc 1 1203 0 discriminator 2
	addl	$1, -96(%rbp)	#, lp
.L190:
	.loc 1 1203 0 is_stmt 0 discriminator 1
	movl	-96(%rbp), %eax	# lp, tmp315
	cmpl	-84(%rbp), %eax	# max, tmp315
	jl	.L191	#,
	.loc 1 1210 0 is_stmt 1
	nop
	jmp	.L155	#
.L195:
.LBE22:
	.loc 1 1048 0
	nop
.L155:
	.loc 1 1213 0
	leave
	.cfi_def_cfa 7, 8
	ret
	.cfi_endproc
.LFE27:
	.size	verify_tree, .-verify_tree
	.type	verify_sequence_points, @function
verify_sequence_points:
.LFB28:
	.loc 1 1221 0
	.cfi_startproc
	pushq	%rbp	#
	.cfi_def_cfa_offset 16
	.cfi_offset 6, -16
	movq	%rsp, %rbp	#,
	.cfi_def_cfa_register 6
	subq	$96, %rsp	#,
	movq	%rdi, -88(%rbp)	# expr, expr
	.loc 1 1222 0
	movq	$0, -64(%rbp)	#, before_sp
	movq	$0, -56(%rbp)	#, after_sp
	.loc 1 1224 0
	movq	$0, warned_ids(%rip)	#, warned_ids
	.loc 1 1225 0
	movq	$0, save_expr_cache(%rip)	#, save_expr_cache
	.loc 1 1226 0
	movq	tlist_firstobj(%rip), %rax	# tlist_firstobj, tlist_firstobj.141
	testq	%rax, %rax	# tlist_firstobj.141
	jne	.L198	#,
	.loc 1 1228 0
	movl	$tlist_obstack, %edi	#,
	call	gcc_obstack_init	#
.LBB23:
	.loc 1 1229 0
	movq	$tlist_obstack, -48(%rbp)	#, __h
.LBB24:
	movq	-48(%rbp), %rax	# __h, tmp98
	movq	%rax, -40(%rbp)	# tmp98, __o
	movl	$0, -68(%rbp)	#, __len
	movq	-40(%rbp), %rax	# __o, tmp99
	movq	32(%rax), %rax	# __o_3->chunk_limit, D.19672
	movq	%rax, %rdx	# D.19672, D.19673
	movq	-40(%rbp), %rax	# __o, tmp100
	movq	24(%rax), %rax	# __o_3->next_free, D.19672
	subq	%rax, %rdx	# D.19673, D.19673
	movl	-68(%rbp), %eax	# __len, tmp101
	cltq
	cmpq	%rax, %rdx	# D.19673, D.19673
	jge	.L199	#,
	.loc 1 1229 0 is_stmt 0 discriminator 1
	movl	-68(%rbp), %edx	# __len, tmp102
	movq	-40(%rbp), %rax	# __o, tmp103
	movl	%edx, %esi	# tmp102,
	movq	%rax, %rdi	# tmp103,
	call	_obstack_newchunk	#
.L199:
	.loc 1 1229 0 discriminator 2
	movq	-40(%rbp), %rax	# __o, tmp104
	movq	24(%rax), %rdx	# __o_3->next_free, D.19672
	movl	-68(%rbp), %eax	# __len, tmp105
	cltq
	addq	%rax, %rdx	# D.19674, D.19672
	movq	-40(%rbp), %rax	# __o, tmp106
	movq	%rdx, 24(%rax)	# D.19672, __o_3->next_free
.LBE24:
.LBB25:
	movq	-48(%rbp), %rax	# __h, tmp107
	movq	%rax, -32(%rbp)	# tmp107, __o1
	movq	-32(%rbp), %rax	# __o1, tmp108
	movq	16(%rax), %rax	# __o1_14->object_base, tmp109
	movq	%rax, -24(%rbp)	# tmp109, value
	movq	-32(%rbp), %rax	# __o1, tmp110
	movq	24(%rax), %rax	# __o1_14->next_free, D.19672
	cmpq	-24(%rbp), %rax	# value, D.19672
	jne	.L200	#,
	.loc 1 1229 0 discriminator 1
	movq	-32(%rbp), %rax	# __o1, tmp111
	movzbl	80(%rax), %edx	# __o1_14->maybe_empty_object, tmp114
	orl	$2, %edx	#, tmp115
	movb	%dl, 80(%rax)	# tmp115, __o1_14->maybe_empty_object
.L200:
	.loc 1 1229 0 discriminator 2
	movq	-32(%rbp), %rax	# __o1, tmp116
	movq	24(%rax), %rax	# __o1_14->next_free, D.19672
	movq	%rax, %rdx	# D.19672, D.19673
	movq	-32(%rbp), %rax	# __o1, tmp117
	movl	48(%rax), %eax	# __o1_14->alignment_mask, D.19675
	cltq
	addq	%rax, %rdx	# D.19673, D.19673
	movq	-32(%rbp), %rax	# __o1, tmp118
	movl	48(%rax), %eax	# __o1_14->alignment_mask, D.19675
	notl	%eax	# D.19675
	cltq
	andq	%rdx, %rax	# D.19673, D.19673
	movq	%rax, %rdx	# D.19673, D.19672
	movq	-32(%rbp), %rax	# __o1, tmp119
	movq	%rdx, 24(%rax)	# D.19672, __o1_14->next_free
	movq	-32(%rbp), %rax	# __o1, tmp120
	movq	24(%rax), %rax	# __o1_14->next_free, D.19672
	movq	%rax, %rdx	# D.19672, D.19673
	movq	-32(%rbp), %rax	# __o1, tmp121
	movq	8(%rax), %rax	# __o1_14->chunk, D.19676
	movq	%rdx, %rcx	# D.19673, D.19673
	subq	%rax, %rcx	# D.19673, D.19673
	movq	-32(%rbp), %rax	# __o1, tmp122
	movq	32(%rax), %rax	# __o1_14->chunk_limit, D.19672
	movq	%rax, %rdx	# D.19672, D.19673
	movq	-32(%rbp), %rax	# __o1, tmp123
	movq	8(%rax), %rax	# __o1_14->chunk, D.19676
	subq	%rax, %rdx	# D.19673, D.19673
	movq	%rdx, %rax	# D.19673, D.19673
	cmpq	%rax, %rcx	# D.19673, D.19673
	jle	.L201	#,
	.loc 1 1229 0 discriminator 1
	movq	-32(%rbp), %rax	# __o1, tmp124
	movq	32(%rax), %rdx	# __o1_14->chunk_limit, D.19672
	movq	-32(%rbp), %rax	# __o1, tmp125
	movq	%rdx, 24(%rax)	# D.19672, __o1_14->next_free
.L201:
	.loc 1 1229 0 discriminator 2
	movq	-32(%rbp), %rax	# __o1, tmp126
	movq	24(%rax), %rdx	# __o1_14->next_free, D.19672
	movq	-32(%rbp), %rax	# __o1, tmp127
	movq	%rdx, 16(%rax)	# D.19672, __o1_14->object_base
	movq	-24(%rbp), %rax	# value, D.19677
.LBE25:
.LBE23:
	movq	%rax, tlist_firstobj(%rip)	# tlist_firstobj.142, tlist_firstobj
.L198:
	.loc 1 1232 0 is_stmt 1
	leaq	-56(%rbp), %rdx	#, tmp128
	leaq	-64(%rbp), %rsi	#, tmp129
	movq	-88(%rbp), %rax	# expr, tmp130
	movl	$0, %ecx	#,
	movq	%rax, %rdi	# tmp130,
	call	verify_tree	#
	.loc 1 1233 0
	movq	-56(%rbp), %rax	# after_sp, after_sp.143
	movq	%rax, %rdi	# after_sp.143,
	call	warn_for_collisions	#
.LBB26:
	.loc 1 1234 0
	movq	$tlist_obstack, -16(%rbp)	#, __o
	movq	tlist_firstobj(%rip), %rax	# tlist_firstobj, tmp131
	movq	%rax, -8(%rbp)	# tmp131, __obj
	movq	-16(%rbp), %rax	# __o, tmp132
	movq	8(%rax), %rax	# __o_43->chunk, D.19676
	cmpq	-8(%rbp), %rax	# __obj, D.19676
	jae	.L202	#,
	.loc 1 1234 0 is_stmt 0 discriminator 1
	movq	-16(%rbp), %rax	# __o, tmp133
	movq	32(%rax), %rax	# __o_43->chunk_limit, D.19672
	cmpq	-8(%rbp), %rax	# __obj, D.19672
	jbe	.L202	#,
	movq	-16(%rbp), %rax	# __o, tmp134
	movq	-8(%rbp), %rdx	# __obj, tmp135
	movq	%rdx, 16(%rax)	# tmp135, __o_43->object_base
	movq	-16(%rbp), %rax	# __o, tmp136
	movq	16(%rax), %rdx	# __o_43->object_base, D.19672
	movq	-16(%rbp), %rax	# __o, tmp137
	movq	%rdx, 24(%rax)	# D.19672, __o_43->next_free
	jmp	.L197	#
.L202:
	.loc 1 1234 0 discriminator 2
	movq	-8(%rbp), %rdx	# __obj, tmp138
	movq	-16(%rbp), %rax	# __o, tmp139
	movq	%rdx, %rsi	# tmp138,
	movq	%rax, %rdi	# tmp139,
	call	obstack_free	#
.L197:
.LBE26:
	.loc 1 1235 0 is_stmt 1
	leave
	.cfi_def_cfa 7, 8
	ret
	.cfi_endproc
.LFE28:
	.size	verify_sequence_points, .-verify_sequence_points
	.section	.rodata
	.align 8
.LC14:
	.string	"expression statement has incomplete type"
	.text
	.globl	c_expand_expr_stmt
	.type	c_expand_expr_stmt, @function
c_expand_expr_stmt:
.LFB29:
	.loc 1 1240 0
	.cfi_startproc
	pushq	%rbp	#
	.cfi_def_cfa_offset 16
	.cfi_offset 6, -16
	movq	%rsp, %rbp	#,
	.cfi_def_cfa_register 6
	subq	$16, %rsp	#,
	movq	%rdi, -8(%rbp)	# expr, expr
	.loc 1 1243 0
	movq	-8(%rbp), %rax	# expr, tmp79
	movq	8(%rax), %rax	# expr_2(D)->common.type, D.19678
	movzbl	16(%rax), %eax	# _3->common.code, D.19679
	cmpb	$18, %al	#, D.19679
	jne	.L205	#,
	.loc 1 1244 0
	movl	flag_isoc99(%rip), %eax	# flag_isoc99, flag_isoc99.144
	testl	%eax, %eax	# flag_isoc99.144
	jne	.L206	#,
	.loc 1 1244 0 is_stmt 0 discriminator 1
	movq	-8(%rbp), %rax	# expr, tmp80
	movq	%rax, %rdi	# tmp80,
	call	lvalue_p	#
	testl	%eax, %eax	# D.19680
	jne	.L206	#,
.L205:
	.loc 1 1245 0 is_stmt 1
	movq	-8(%rbp), %rax	# expr, tmp81
	movq	8(%rax), %rax	# expr_2(D)->common.type, D.19678
	movzbl	16(%rax), %eax	# _7->common.code, D.19679
	cmpb	$23, %al	#, D.19679
	jne	.L207	#,
.L206:
	.loc 1 1246 0
	movq	-8(%rbp), %rax	# expr, tmp82
	movq	%rax, %rdi	# tmp82,
	call	default_conversion	#
	movq	%rax, -8(%rbp)	# tmp83, expr
.L207:
	.loc 1 1248 0
	movl	warn_sequence_point(%rip), %eax	# warn_sequence_point, warn_sequence_point.145
	testl	%eax, %eax	# warn_sequence_point.145
	je	.L208	#,
	.loc 1 1249 0
	movq	-8(%rbp), %rax	# expr, tmp84
	movq	%rax, %rdi	# tmp84,
	call	verify_sequence_points	#
.L208:
	.loc 1 1251 0
	movq	-8(%rbp), %rax	# expr, tmp85
	movq	8(%rax), %rdx	# expr_1->common.type, D.19678
	movq	global_trees(%rip), %rax	# global_trees, D.19678
	cmpq	%rax, %rdx	# D.19678, D.19678
	je	.L209	#,
	.loc 1 1252 0
	movq	-8(%rbp), %rax	# expr, tmp86
	movq	8(%rax), %rax	# expr_1->common.type, D.19678
	movq	32(%rax), %rax	# _13->type.size, D.19678
	testq	%rax, %rax	# D.19678
	jne	.L209	#,
	.loc 1 1252 0 is_stmt 0 discriminator 1
	movq	-8(%rbp), %rax	# expr, tmp87
	movq	8(%rax), %rax	# expr_1->common.type, D.19678
	movzbl	16(%rax), %eax	# _15->common.code, D.19679
	cmpb	$5, %al	#, D.19679
	je	.L209	#,
	.loc 1 1253 0 is_stmt 1
	movq	-8(%rbp), %rax	# expr, tmp88
	movq	8(%rax), %rax	# expr_1->common.type, D.19678
	movzbl	16(%rax), %eax	# _17->common.code, D.19679
	cmpb	$18, %al	#, D.19679
	je	.L209	#,
	.loc 1 1254 0
	movl	$.LC14, %edi	#,
	movl	$0, %eax	#,
	call	error	#
.L209:
	.loc 1 1256 0
	call	current_stmt_tree	#
	movq	-8(%rbp), %rdx	# expr, tmp89
	movq	8(%rdx), %rdx	# expr_1->common.type, D.19678
	movq	%rdx, 8(%rax)	# D.19678, _19->x_last_expr_type
	.loc 1 1257 0
	movq	-8(%rbp), %rax	# expr, tmp90
	movq	%rax, %rsi	# tmp90,
	movl	$152, %edi	#,
	movl	$0, %eax	#,
	call	build_stmt	#
	movq	%rax, %rdi	# D.19678,
	call	add_stmt	#
	.loc 1 1258 0
	leave
	.cfi_def_cfa 7, 8
	ret
	.cfi_endproc
.LFE29:
	.size	c_expand_expr_stmt, .-c_expand_expr_stmt
	.section	.rodata
	.align 8
.LC15:
	.string	"case label does not reduce to an integer constant"
	.text
	.globl	check_case_value
	.type	check_case_value, @function
check_case_value:
.LFB30:
	.loc 1 1265 0
	.cfi_startproc
	pushq	%rbp	#
	.cfi_def_cfa_offset 16
	.cfi_offset 6, -16
	movq	%rsp, %rbp	#,
	.cfi_def_cfa_register 6
	subq	$16, %rsp	#,
	movq	%rdi, -8(%rbp)	# value, value
	.loc 1 1266 0
	cmpq	$0, -8(%rbp)	#, value
	jne	.L212	#,
	.loc 1 1267 0
	movq	-8(%rbp), %rax	# value, D.19684
	jmp	.L213	#
.L212:
	.loc 1 1270 0
	jmp	.L214	#
.L217:
	.loc 1 1270 0 is_stmt 0 discriminator 1
	movq	-8(%rbp), %rax	# value, tmp80
	movq	32(%rax), %rax	# value_1->exp.operands, tmp81
	movq	%rax, -8(%rbp)	# tmp81, value
.L214:
	movq	-8(%rbp), %rax	# value, tmp82
	movzbl	16(%rax), %eax	# value_1->common.code, D.19685
	cmpb	$115, %al	#, D.19685
	je	.L215	#,
	.loc 1 1270 0 discriminator 3
	movq	-8(%rbp), %rax	# value, tmp83
	movzbl	16(%rax), %eax	# value_1->common.code, D.19685
	cmpb	$114, %al	#, D.19685
	je	.L215	#,
	.loc 1 1270 0 discriminator 1
	movq	-8(%rbp), %rax	# value, tmp84
	movzbl	16(%rax), %eax	# value_1->common.code, D.19685
	cmpb	$116, %al	#, D.19685
	jne	.L216	#,
.L215:
	.loc 1 1270 0 discriminator 2
	movq	-8(%rbp), %rax	# value, tmp85
	movq	32(%rax), %rdx	# value_1->exp.operands, D.19686
	movq	global_trees(%rip), %rax	# global_trees, D.19686
	cmpq	%rax, %rdx	# D.19686, D.19686
	je	.L216	#,
	.loc 1 1270 0 discriminator 1
	movq	-8(%rbp), %rax	# value, tmp86
	movq	8(%rax), %rdx	# value_1->common.type, D.19686
	movq	-8(%rbp), %rax	# value, tmp87
	movq	32(%rax), %rax	# value_1->exp.operands, D.19686
	movq	8(%rax), %rax	# _14->common.type, D.19686
	cmpq	%rax, %rdx	# D.19686, D.19686
	je	.L217	#,
.L216:
	.loc 1 1277 0 is_stmt 1
	movl	c_language(%rip), %eax	# c_language, c_language.146
	cmpl	$1, %eax	#, c_language.146
	jne	.L218	#,
	.loc 1 1279 0
	movq	-8(%rbp), %rax	# value, tmp88
	movq	%rax, %rdi	# tmp88,
	call	decl_constant_value	#
	movq	%rax, -8(%rbp)	# tmp89, value
	.loc 1 1280 0
	jmp	.L219	#
.L222:
	.loc 1 1280 0 is_stmt 0 discriminator 1
	movq	-8(%rbp), %rax	# value, tmp90
	movq	32(%rax), %rax	# value_2->exp.operands, tmp91
	movq	%rax, -8(%rbp)	# tmp91, value
.L219:
	movq	-8(%rbp), %rax	# value, tmp92
	movzbl	16(%rax), %eax	# value_2->common.code, D.19685
	cmpb	$115, %al	#, D.19685
	je	.L220	#,
	.loc 1 1280 0 discriminator 3
	movq	-8(%rbp), %rax	# value, tmp93
	movzbl	16(%rax), %eax	# value_2->common.code, D.19685
	cmpb	$114, %al	#, D.19685
	je	.L220	#,
	.loc 1 1280 0 discriminator 1
	movq	-8(%rbp), %rax	# value, tmp94
	movzbl	16(%rax), %eax	# value_2->common.code, D.19685
	cmpb	$116, %al	#, D.19685
	jne	.L221	#,
.L220:
	.loc 1 1280 0 discriminator 2
	movq	-8(%rbp), %rax	# value, tmp95
	movq	32(%rax), %rdx	# value_2->exp.operands, D.19686
	movq	global_trees(%rip), %rax	# global_trees, D.19686
	cmpq	%rax, %rdx	# D.19686, D.19686
	je	.L221	#,
	.loc 1 1280 0 discriminator 1
	movq	-8(%rbp), %rax	# value, tmp96
	movq	8(%rax), %rdx	# value_2->common.type, D.19686
	movq	-8(%rbp), %rax	# value, tmp97
	movq	32(%rax), %rax	# value_2->exp.operands, D.19686
	movq	8(%rax), %rax	# _25->common.type, D.19686
	cmpq	%rax, %rdx	# D.19686, D.19686
	je	.L222	#,
.L221:
	.loc 1 1281 0 is_stmt 1
	movq	-8(%rbp), %rax	# value, tmp98
	movq	%rax, %rdi	# tmp98,
	call	fold	#
	movq	%rax, -8(%rbp)	# tmp99, value
.L218:
	.loc 1 1284 0
	movq	-8(%rbp), %rax	# value, tmp100
	movzbl	16(%rax), %eax	# value_3->common.code, D.19685
	cmpb	$25, %al	#, D.19685
	je	.L223	#,
	.loc 1 1285 0
	movq	global_trees(%rip), %rax	# global_trees, D.19686
	cmpq	-8(%rbp), %rax	# value, D.19686
	je	.L223	#,
	.loc 1 1287 0
	movl	$.LC15, %edi	#,
	movl	$0, %eax	#,
	call	error	#
	.loc 1 1288 0
	movq	global_trees(%rip), %rax	# global_trees, tmp101
	movq	%rax, -8(%rbp)	# tmp101, value
	jmp	.L224	#
.L223:
	.loc 1 1292 0
	movq	-8(%rbp), %rax	# value, tmp102
	movq	%rax, %rdi	# tmp102,
	call	default_conversion	#
	movq	%rax, -8(%rbp)	# tmp103, value
.L224:
	.loc 1 1294 0
	movq	-8(%rbp), %rax	# value, tmp104
	movq	%rax, %rdi	# tmp104,
	call	constant_expression_warning	#
	.loc 1 1296 0
	movq	-8(%rbp), %rax	# value, D.19684
.L213:
	.loc 1 1297 0
	leave
	.cfi_def_cfa 7, 8
	ret
	.cfi_endproc
.LFE30:
	.size	check_case_value, .-check_case_value
	.globl	type_for_size
	.type	type_for_size, @function
type_for_size:
.LFB31:
	.loc 1 1306 0
	.cfi_startproc
	pushq	%rbp	#
	.cfi_def_cfa_offset 16
	.cfi_offset 6, -16
	movq	%rsp, %rbp	#,
	.cfi_def_cfa_register 6
	movl	%edi, -4(%rbp)	# bits, bits
	movl	%esi, -8(%rbp)	# unsignedp, unsignedp
	.loc 1 1307 0
	movq	integer_types+40(%rip), %rax	# integer_types, D.19689
	movzwl	60(%rax), %eax	# *_12, tmp103
	andw	$511, %ax	#, D.19690
	movzwl	%ax, %eax	# D.19690, D.19691
	cmpl	-4(%rbp), %eax	# bits, D.19691
	jne	.L226	#,
	.loc 1 1308 0
	cmpl	$0, -8(%rbp)	#, unsignedp
	je	.L227	#,
	.loc 1 1308 0 is_stmt 0 discriminator 1
	movq	integer_types+48(%rip), %rax	# integer_types, iftmp.147
	jmp	.L228	#
.L227:
	.loc 1 1308 0 discriminator 2
	movq	integer_types+40(%rip), %rax	# integer_types, iftmp.147
.L228:
	.loc 1 1308 0 discriminator 3
	jmp	.L229	#
.L226:
	.loc 1 1310 0 is_stmt 1
	movq	integer_types+8(%rip), %rax	# integer_types, D.19689
	movzwl	60(%rax), %eax	# *_20, tmp106
	andw	$511, %ax	#, D.19690
	movzwl	%ax, %eax	# D.19690, D.19691
	cmpl	-4(%rbp), %eax	# bits, D.19691
	jne	.L230	#,
	.loc 1 1311 0
	cmpl	$0, -8(%rbp)	#, unsignedp
	je	.L231	#,
	.loc 1 1311 0 is_stmt 0 discriminator 1
	movq	integer_types+16(%rip), %rax	# integer_types, iftmp.148
	jmp	.L232	#
.L231:
	.loc 1 1311 0 discriminator 2
	movq	integer_types+8(%rip), %rax	# integer_types, iftmp.148
.L232:
	.loc 1 1311 0 discriminator 3
	jmp	.L229	#
.L230:
	.loc 1 1313 0 is_stmt 1
	movq	integer_types+24(%rip), %rax	# integer_types, D.19689
	movzwl	60(%rax), %eax	# *_26, tmp109
	andw	$511, %ax	#, D.19690
	movzwl	%ax, %eax	# D.19690, D.19691
	cmpl	-4(%rbp), %eax	# bits, D.19691
	jne	.L233	#,
	.loc 1 1314 0
	cmpl	$0, -8(%rbp)	#, unsignedp
	je	.L234	#,
	.loc 1 1314 0 is_stmt 0 discriminator 1
	movq	integer_types+32(%rip), %rax	# integer_types, iftmp.149
	jmp	.L235	#
.L234:
	.loc 1 1314 0 discriminator 2
	movq	integer_types+24(%rip), %rax	# integer_types, iftmp.149
.L235:
	.loc 1 1314 0 discriminator 3
	jmp	.L229	#
.L233:
	.loc 1 1316 0 is_stmt 1
	movq	integer_types+56(%rip), %rax	# integer_types, D.19689
	movzwl	60(%rax), %eax	# *_32, tmp112
	andw	$511, %ax	#, D.19690
	movzwl	%ax, %eax	# D.19690, D.19691
	cmpl	-4(%rbp), %eax	# bits, D.19691
	jne	.L236	#,
	.loc 1 1317 0
	cmpl	$0, -8(%rbp)	#, unsignedp
	je	.L237	#,
	.loc 1 1317 0 is_stmt 0 discriminator 1
	movq	integer_types+64(%rip), %rax	# integer_types, iftmp.150
	jmp	.L238	#
.L237:
	.loc 1 1317 0 discriminator 2
	movq	integer_types+56(%rip), %rax	# integer_types, iftmp.150
.L238:
	.loc 1 1317 0 discriminator 3
	jmp	.L229	#
.L236:
	.loc 1 1319 0 is_stmt 1
	movq	integer_types+72(%rip), %rax	# integer_types, D.19689
	movzwl	60(%rax), %eax	# *_38, tmp115
	andw	$511, %ax	#, D.19690
	movzwl	%ax, %eax	# D.19690, D.19691
	cmpl	-4(%rbp), %eax	# bits, D.19691
	jne	.L239	#,
	.loc 1 1321 0
	cmpl	$0, -8(%rbp)	#, unsignedp
	je	.L240	#,
	.loc 1 1321 0 is_stmt 0 discriminator 1
	movq	integer_types+80(%rip), %rax	# integer_types, iftmp.151
	jmp	.L241	#
.L240:
	.loc 1 1321 0 discriminator 2
	movq	integer_types+72(%rip), %rax	# integer_types, iftmp.151
.L241:
	.loc 1 1320 0 is_stmt 1
	jmp	.L229	#
.L239:
	.loc 1 1323 0
	movq	c_global_trees+72(%rip), %rax	# c_global_trees, D.19689
	movzwl	60(%rax), %eax	# *_44, tmp118
	andw	$511, %ax	#, D.19690
	movzwl	%ax, %eax	# D.19690, D.19691
	cmpl	-4(%rbp), %eax	# bits, D.19691
	jne	.L242	#,
	.loc 1 1325 0
	cmpl	$0, -8(%rbp)	#, unsignedp
	je	.L243	#,
	.loc 1 1325 0 is_stmt 0 discriminator 1
	movq	c_global_trees+80(%rip), %rax	# c_global_trees, iftmp.152
	jmp	.L244	#
.L243:
	.loc 1 1325 0 discriminator 2
	movq	c_global_trees+72(%rip), %rax	# c_global_trees, iftmp.152
.L244:
	.loc 1 1324 0 is_stmt 1
	jmp	.L229	#
.L242:
	.loc 1 1327 0
	movq	global_trees+8(%rip), %rax	# global_trees, D.19689
	movzwl	60(%rax), %eax	# *_50, tmp121
	andw	$511, %ax	#, D.19690
	movzwl	%ax, %eax	# D.19690, D.19691
	cmpl	-4(%rbp), %eax	# bits, D.19691
	jb	.L245	#,
	.loc 1 1328 0
	cmpl	$0, -8(%rbp)	#, unsignedp
	je	.L246	#,
	.loc 1 1328 0 is_stmt 0 discriminator 1
	movq	global_trees+48(%rip), %rax	# global_trees, iftmp.153
	jmp	.L247	#
.L246:
	.loc 1 1328 0 discriminator 2
	movq	global_trees+8(%rip), %rax	# global_trees, iftmp.153
.L247:
	.loc 1 1328 0 discriminator 3
	jmp	.L229	#
.L245:
	.loc 1 1330 0 is_stmt 1
	movq	global_trees+16(%rip), %rax	# global_trees, D.19689
	movzwl	60(%rax), %eax	# *_56, tmp124
	andw	$511, %ax	#, D.19690
	movzwl	%ax, %eax	# D.19690, D.19691
	cmpl	-4(%rbp), %eax	# bits, D.19691
	jb	.L248	#,
	.loc 1 1331 0
	cmpl	$0, -8(%rbp)	#, unsignedp
	je	.L249	#,
	.loc 1 1331 0 is_stmt 0 discriminator 1
	movq	global_trees+56(%rip), %rax	# global_trees, iftmp.154
	jmp	.L250	#
.L249:
	.loc 1 1331 0 discriminator 2
	movq	global_trees+16(%rip), %rax	# global_trees, iftmp.154
.L250:
	.loc 1 1331 0 discriminator 3
	jmp	.L229	#
.L248:
	.loc 1 1333 0 is_stmt 1
	movq	global_trees+24(%rip), %rax	# global_trees, D.19689
	movzwl	60(%rax), %eax	# *_62, tmp127
	andw	$511, %ax	#, D.19690
	movzwl	%ax, %eax	# D.19690, D.19691
	cmpl	-4(%rbp), %eax	# bits, D.19691
	jb	.L251	#,
	.loc 1 1334 0
	cmpl	$0, -8(%rbp)	#, unsignedp
	je	.L252	#,
	.loc 1 1334 0 is_stmt 0 discriminator 1
	movq	global_trees+64(%rip), %rax	# global_trees, iftmp.155
	jmp	.L253	#
.L252:
	.loc 1 1334 0 discriminator 2
	movq	global_trees+24(%rip), %rax	# global_trees, iftmp.155
.L253:
	.loc 1 1334 0 discriminator 3
	jmp	.L229	#
.L251:
	.loc 1 1336 0 is_stmt 1
	movq	global_trees+32(%rip), %rax	# global_trees, D.19689
	movzwl	60(%rax), %eax	# *_68, tmp130
	andw	$511, %ax	#, D.19690
	movzwl	%ax, %eax	# D.19690, D.19691
	cmpl	-4(%rbp), %eax	# bits, D.19691
	jb	.L254	#,
	.loc 1 1337 0
	cmpl	$0, -8(%rbp)	#, unsignedp
	je	.L255	#,
	.loc 1 1337 0 is_stmt 0 discriminator 1
	movq	global_trees+72(%rip), %rax	# global_trees, iftmp.156
	jmp	.L256	#
.L255:
	.loc 1 1337 0 discriminator 2
	movq	global_trees+32(%rip), %rax	# global_trees, iftmp.156
.L256:
	.loc 1 1337 0 discriminator 3
	jmp	.L229	#
.L254:
	.loc 1 1339 0 is_stmt 1
	movl	$0, %eax	#, D.19688
.L229:
	.loc 1 1340 0
	popq	%rbp	#
	.cfi_def_cfa 7, 8
	ret
	.cfi_endproc
.LFE31:
	.size	type_for_size, .-type_for_size
	.globl	type_for_mode
	.type	type_for_mode, @function
type_for_mode:
.LFB32:
	.loc 1 1350 0
	.cfi_startproc
	pushq	%rbp	#
	.cfi_def_cfa_offset 16
	.cfi_offset 6, -16
	movq	%rsp, %rbp	#,
	.cfi_def_cfa_register 6
	subq	$16, %rsp	#,
	movl	%edi, -4(%rbp)	# mode, mode
	movl	%esi, -8(%rbp)	# unsignedp, unsignedp
	.loc 1 1351 0
	movq	integer_types+40(%rip), %rax	# integer_types, D.19693
	movzbl	61(%rax), %eax	# *_19, tmp128
	shrb	%al	# D.19694
	movzbl	%al, %eax	# D.19694, D.19695
	cmpl	-4(%rbp), %eax	# mode, D.19695
	jne	.L258	#,
	.loc 1 1352 0
	cmpl	$0, -8(%rbp)	#, unsignedp
	je	.L259	#,
	.loc 1 1352 0 is_stmt 0 discriminator 1
	movq	integer_types+48(%rip), %rax	# integer_types, iftmp.157
	jmp	.L260	#
.L259:
	.loc 1 1352 0 discriminator 2
	movq	integer_types+40(%rip), %rax	# integer_types, iftmp.157
.L260:
	.loc 1 1352 0 discriminator 3
	jmp	.L261	#
.L258:
	.loc 1 1354 0 is_stmt 1
	movq	integer_types+8(%rip), %rax	# integer_types, D.19693
	movzbl	61(%rax), %eax	# *_27, tmp131
	shrb	%al	# D.19694
	movzbl	%al, %eax	# D.19694, D.19695
	cmpl	-4(%rbp), %eax	# mode, D.19695
	jne	.L262	#,
	.loc 1 1355 0
	cmpl	$0, -8(%rbp)	#, unsignedp
	je	.L263	#,
	.loc 1 1355 0 is_stmt 0 discriminator 1
	movq	integer_types+16(%rip), %rax	# integer_types, iftmp.158
	jmp	.L264	#
.L263:
	.loc 1 1355 0 discriminator 2
	movq	integer_types+8(%rip), %rax	# integer_types, iftmp.158
.L264:
	.loc 1 1355 0 discriminator 3
	jmp	.L261	#
.L262:
	.loc 1 1357 0 is_stmt 1
	movq	integer_types+24(%rip), %rax	# integer_types, D.19693
	movzbl	61(%rax), %eax	# *_33, tmp134
	shrb	%al	# D.19694
	movzbl	%al, %eax	# D.19694, D.19695
	cmpl	-4(%rbp), %eax	# mode, D.19695
	jne	.L265	#,
	.loc 1 1358 0
	cmpl	$0, -8(%rbp)	#, unsignedp
	je	.L266	#,
	.loc 1 1358 0 is_stmt 0 discriminator 1
	movq	integer_types+32(%rip), %rax	# integer_types, iftmp.159
	jmp	.L267	#
.L266:
	.loc 1 1358 0 discriminator 2
	movq	integer_types+24(%rip), %rax	# integer_types, iftmp.159
.L267:
	.loc 1 1358 0 discriminator 3
	jmp	.L261	#
.L265:
	.loc 1 1360 0 is_stmt 1
	movq	integer_types+56(%rip), %rax	# integer_types, D.19693
	movzbl	61(%rax), %eax	# *_39, tmp137
	shrb	%al	# D.19694
	movzbl	%al, %eax	# D.19694, D.19695
	cmpl	-4(%rbp), %eax	# mode, D.19695
	jne	.L268	#,
	.loc 1 1361 0
	cmpl	$0, -8(%rbp)	#, unsignedp
	je	.L269	#,
	.loc 1 1361 0 is_stmt 0 discriminator 1
	movq	integer_types+64(%rip), %rax	# integer_types, iftmp.160
	jmp	.L270	#
.L269:
	.loc 1 1361 0 discriminator 2
	movq	integer_types+56(%rip), %rax	# integer_types, iftmp.160
.L270:
	.loc 1 1361 0 discriminator 3
	jmp	.L261	#
.L268:
	.loc 1 1363 0 is_stmt 1
	movq	integer_types+72(%rip), %rax	# integer_types, D.19693
	movzbl	61(%rax), %eax	# *_45, tmp140
	shrb	%al	# D.19694
	movzbl	%al, %eax	# D.19694, D.19695
	cmpl	-4(%rbp), %eax	# mode, D.19695
	jne	.L271	#,
	.loc 1 1364 0
	cmpl	$0, -8(%rbp)	#, unsignedp
	je	.L272	#,
	.loc 1 1364 0 is_stmt 0 discriminator 1
	movq	integer_types+80(%rip), %rax	# integer_types, iftmp.161
	jmp	.L273	#
.L272:
	.loc 1 1364 0 discriminator 2
	movq	integer_types+72(%rip), %rax	# integer_types, iftmp.161
.L273:
	.loc 1 1364 0 discriminator 3
	jmp	.L261	#
.L271:
	.loc 1 1366 0 is_stmt 1
	movq	c_global_trees+72(%rip), %rax	# c_global_trees, D.19693
	movzbl	61(%rax), %eax	# *_51, tmp143
	shrb	%al	# D.19694
	movzbl	%al, %eax	# D.19694, D.19695
	cmpl	-4(%rbp), %eax	# mode, D.19695
	jne	.L274	#,
	.loc 1 1368 0
	cmpl	$0, -8(%rbp)	#, unsignedp
	je	.L275	#,
	.loc 1 1368 0 is_stmt 0 discriminator 1
	movq	c_global_trees+80(%rip), %rax	# c_global_trees, iftmp.162
	jmp	.L276	#
.L275:
	.loc 1 1368 0 discriminator 2
	movq	c_global_trees+72(%rip), %rax	# c_global_trees, iftmp.162
.L276:
	.loc 1 1367 0 is_stmt 1
	jmp	.L261	#
.L274:
	.loc 1 1370 0
	cmpl	$2, -4(%rbp)	#, mode
	jne	.L277	#,
	.loc 1 1371 0
	cmpl	$0, -8(%rbp)	#, unsignedp
	je	.L278	#,
	.loc 1 1371 0 is_stmt 0 discriminator 1
	movq	global_trees+48(%rip), %rax	# global_trees, iftmp.163
	jmp	.L279	#
.L278:
	.loc 1 1371 0 discriminator 2
	movq	global_trees+8(%rip), %rax	# global_trees, iftmp.163
.L279:
	.loc 1 1371 0 discriminator 3
	jmp	.L261	#
.L277:
	.loc 1 1373 0 is_stmt 1
	cmpl	$3, -4(%rbp)	#, mode
	jne	.L280	#,
	.loc 1 1374 0
	cmpl	$0, -8(%rbp)	#, unsignedp
	je	.L281	#,
	.loc 1 1374 0 is_stmt 0 discriminator 1
	movq	global_trees+56(%rip), %rax	# global_trees, iftmp.164
	jmp	.L282	#
.L281:
	.loc 1 1374 0 discriminator 2
	movq	global_trees+16(%rip), %rax	# global_trees, iftmp.164
.L282:
	.loc 1 1374 0 discriminator 3
	jmp	.L261	#
.L280:
	.loc 1 1376 0 is_stmt 1
	cmpl	$4, -4(%rbp)	#, mode
	jne	.L283	#,
	.loc 1 1377 0
	cmpl	$0, -8(%rbp)	#, unsignedp
	je	.L284	#,
	.loc 1 1377 0 is_stmt 0 discriminator 1
	movq	global_trees+64(%rip), %rax	# global_trees, iftmp.165
	jmp	.L285	#
.L284:
	.loc 1 1377 0 discriminator 2
	movq	global_trees+24(%rip), %rax	# global_trees, iftmp.165
.L285:
	.loc 1 1377 0 discriminator 3
	jmp	.L261	#
.L283:
	.loc 1 1379 0 is_stmt 1
	cmpl	$5, -4(%rbp)	#, mode
	jne	.L286	#,
	.loc 1 1380 0
	cmpl	$0, -8(%rbp)	#, unsignedp
	je	.L287	#,
	.loc 1 1380 0 is_stmt 0 discriminator 1
	movq	global_trees+72(%rip), %rax	# global_trees, iftmp.166
	jmp	.L288	#
.L287:
	.loc 1 1380 0 discriminator 2
	movq	global_trees+32(%rip), %rax	# global_trees, iftmp.166
.L288:
	.loc 1 1380 0 discriminator 3
	jmp	.L261	#
.L286:
	.loc 1 1383 0 is_stmt 1
	movq	global_trees+40(%rip), %rax	# global_trees, D.19693
	movzbl	61(%rax), %eax	# *_69, tmp146
	shrb	%al	# D.19694
	movzbl	%al, %eax	# D.19694, D.19695
	cmpl	-4(%rbp), %eax	# mode, D.19695
	jne	.L289	#,
	.loc 1 1384 0
	cmpl	$0, -8(%rbp)	#, unsignedp
	je	.L290	#,
	.loc 1 1384 0 is_stmt 0 discriminator 1
	movq	global_trees+80(%rip), %rax	# global_trees, iftmp.167
	jmp	.L291	#
.L290:
	.loc 1 1384 0 discriminator 2
	movq	global_trees+40(%rip), %rax	# global_trees, iftmp.167
.L291:
	.loc 1 1384 0 discriminator 3
	jmp	.L261	#
.L289:
	.loc 1 1387 0 is_stmt 1
	movq	global_trees+192(%rip), %rax	# global_trees, D.19693
	movzbl	61(%rax), %eax	# *_75, tmp149
	shrb	%al	# D.19694
	movzbl	%al, %eax	# D.19694, D.19695
	cmpl	-4(%rbp), %eax	# mode, D.19695
	jne	.L292	#,
	.loc 1 1388 0
	movq	global_trees+192(%rip), %rax	# global_trees, D.19692
	jmp	.L261	#
.L292:
	.loc 1 1390 0
	movq	global_trees+200(%rip), %rax	# global_trees, D.19693
	movzbl	61(%rax), %eax	# *_79, tmp152
	shrb	%al	# D.19694
	movzbl	%al, %eax	# D.19694, D.19695
	cmpl	-4(%rbp), %eax	# mode, D.19695
	jne	.L293	#,
	.loc 1 1391 0
	movq	global_trees+200(%rip), %rax	# global_trees, D.19692
	jmp	.L261	#
.L293:
	.loc 1 1393 0
	movq	global_trees+208(%rip), %rax	# global_trees, D.19693
	movzbl	61(%rax), %eax	# *_83, tmp155
	shrb	%al	# D.19694
	movzbl	%al, %eax	# D.19694, D.19695
	cmpl	-4(%rbp), %eax	# mode, D.19695
	jne	.L294	#,
	.loc 1 1394 0
	movq	global_trees+208(%rip), %rax	# global_trees, D.19692
	jmp	.L261	#
.L294:
	.loc 1 1396 0
	movq	integer_types(%rip), %rax	# integer_types, D.19693
	movq	%rax, %rdi	# D.19693,
	call	build_pointer_type	#
	movzbl	61(%rax), %eax	# *_88, tmp158
	shrb	%al	# D.19694
	movzbl	%al, %eax	# D.19694, D.19695
	cmpl	-4(%rbp), %eax	# mode, D.19695
	jne	.L295	#,
	.loc 1 1397 0
	movq	integer_types(%rip), %rax	# integer_types, D.19693
	movq	%rax, %rdi	# D.19693,
	call	build_pointer_type	#
	jmp	.L261	#
.L295:
	.loc 1 1399 0
	movq	integer_types+40(%rip), %rax	# integer_types, D.19693
	movq	%rax, %rdi	# D.19693,
	call	build_pointer_type	#
	movzbl	61(%rax), %eax	# *_94, tmp161
	shrb	%al	# D.19694
	movzbl	%al, %eax	# D.19694, D.19695
	cmpl	-4(%rbp), %eax	# mode, D.19695
	jne	.L296	#,
	.loc 1 1400 0
	movq	integer_types+40(%rip), %rax	# integer_types, D.19693
	movq	%rax, %rdi	# D.19693,
	call	build_pointer_type	#
	jmp	.L261	#
.L296:
	.loc 1 1403 0
	cmpl	$6, -4(%rbp)	#, mode
	je	.L297	#,
	.loc 1 1403 0 is_stmt 0 discriminator 2
	cmpl	$46, -4(%rbp)	#, mode
	je	.L297	#,
	.loc 1 1403 0 discriminator 1
	cmpl	$37, -4(%rbp)	#, mode
	je	.L297	#,
	cmpl	$15, -4(%rbp)	#, mode
	je	.L297	#,
	movl	target_flags(%rip), %eax	# target_flags, target_flags.168
	andl	$262144, %eax	#, D.19696
	testl	%eax, %eax	# D.19696
	je	.L298	#,
	cmpl	$16, -4(%rbp)	#, mode
	je	.L297	#,
	cmpl	$5, -4(%rbp)	#, mode
	je	.L297	#,
	cmpl	$39, -4(%rbp)	#, mode
	je	.L297	#,
	cmpl	$36, -4(%rbp)	#, mode
	je	.L297	#,
	cmpl	$33, -4(%rbp)	#, mode
	je	.L297	#,
	cmpl	$4, -4(%rbp)	#, mode
	jne	.L298	#,
.L297:
	movl	target_flags(%rip), %eax	# target_flags, target_flags.169
	andl	$327680, %eax	#, D.19696
	testl	%eax, %eax	# D.19696
	jne	.L299	#,
.L298:
	.loc 1 1403 0 discriminator 2
	cmpl	$5, -4(%rbp)	#, mode
	je	.L300	#,
	cmpl	$39, -4(%rbp)	#, mode
	je	.L300	#,
	.loc 1 1403 0 discriminator 1
	cmpl	$36, -4(%rbp)	#, mode
	je	.L300	#,
	cmpl	$33, -4(%rbp)	#, mode
	je	.L300	#,
	cmpl	$4, -4(%rbp)	#, mode
	jne	.L301	#,
.L300:
	movl	target_flags(%rip), %eax	# target_flags, target_flags.170
	andl	$16384, %eax	#, D.19696
	testl	%eax, %eax	# D.19696
	jne	.L299	#,
.L301:
	cmpl	$44, -4(%rbp)	#, mode
	je	.L302	#,
	.loc 1 1403 0 discriminator 4
	cmpl	$15, -4(%rbp)	#, mode
	jne	.L303	#,
.L302:
	.loc 1 1403 0 discriminator 3
	movl	target_flags(%rip), %eax	# target_flags, target_flags.171
	andl	$1048576, %eax	#, D.19696
	testl	%eax, %eax	# D.19696
	je	.L303	#,
.L299:
	.loc 1 1405 0 is_stmt 1
	movl	-4(%rbp), %eax	# mode, tmp163
	subl	$33, %eax	#, tmp162
	cmpl	$17, %eax	#, tmp162
	ja	.L327	#,
	movl	%eax, %eax	# tmp162, tmp164
	movq	.L306(,%rax,8), %rax	#, tmp165
	jmp	*%rax	# tmp165
	.section	.rodata
	.align 8
	.align 4
.L306:
	.quad	.L305
	.quad	.L327
	.quad	.L327
	.quad	.L307
	.quad	.L308
	.quad	.L327
	.quad	.L309
	.quad	.L310
	.quad	.L327
	.quad	.L327
	.quad	.L311
	.quad	.L312
	.quad	.L327
	.quad	.L313
	.quad	.L327
	.quad	.L327
	.quad	.L327
	.quad	.L314
	.text
.L311:
	.loc 1 1408 0
	cmpl	$0, -8(%rbp)	#, unsignedp
	je	.L315	#,
	.loc 1 1408 0 is_stmt 0 discriminator 1
	movq	global_trees+320(%rip), %rax	# global_trees, iftmp.172
	jmp	.L316	#
.L315:
	.loc 1 1408 0 discriminator 2
	movq	global_trees+392(%rip), %rax	# global_trees, iftmp.172
.L316:
	.loc 1 1408 0 discriminator 3
	jmp	.L261	#
.L310:
	.loc 1 1410 0 is_stmt 1
	cmpl	$0, -8(%rbp)	#, unsignedp
	je	.L317	#,
	.loc 1 1410 0 is_stmt 0 discriminator 1
	movq	global_trees+280(%rip), %rax	# global_trees, iftmp.173
	jmp	.L318	#
.L317:
	.loc 1 1410 0 discriminator 2
	movq	global_trees+352(%rip), %rax	# global_trees, iftmp.173
.L318:
	.loc 1 1410 0 discriminator 3
	jmp	.L261	#
.L308:
	.loc 1 1412 0 is_stmt 1
	cmpl	$0, -8(%rbp)	#, unsignedp
	je	.L319	#,
	.loc 1 1412 0 is_stmt 0 discriminator 1
	movq	global_trees+272(%rip), %rax	# global_trees, iftmp.174
	jmp	.L320	#
.L319:
	.loc 1 1412 0 discriminator 2
	movq	global_trees+344(%rip), %rax	# global_trees, iftmp.174
.L320:
	.loc 1 1412 0 discriminator 3
	jmp	.L261	#
.L305:
	.loc 1 1414 0 is_stmt 1
	cmpl	$0, -8(%rbp)	#, unsignedp
	je	.L321	#,
	.loc 1 1414 0 is_stmt 0 discriminator 1
	movq	global_trees+304(%rip), %rax	# global_trees, iftmp.175
	jmp	.L322	#
.L321:
	.loc 1 1414 0 discriminator 2
	movq	global_trees+376(%rip), %rax	# global_trees, iftmp.175
.L322:
	.loc 1 1414 0 discriminator 3
	jmp	.L261	#
.L307:
	.loc 1 1416 0 is_stmt 1
	cmpl	$0, -8(%rbp)	#, unsignedp
	je	.L323	#,
	.loc 1 1416 0 is_stmt 0 discriminator 1
	movq	global_trees+296(%rip), %rax	# global_trees, iftmp.176
	jmp	.L324	#
.L323:
	.loc 1 1416 0 discriminator 2
	movq	global_trees+368(%rip), %rax	# global_trees, iftmp.176
.L324:
	.loc 1 1416 0 discriminator 3
	jmp	.L261	#
.L309:
	.loc 1 1418 0 is_stmt 1
	cmpl	$0, -8(%rbp)	#, unsignedp
	je	.L325	#,
	.loc 1 1418 0 is_stmt 0 discriminator 1
	movq	global_trees+288(%rip), %rax	# global_trees, iftmp.177
	jmp	.L326	#
.L325:
	.loc 1 1418 0 discriminator 2
	movq	global_trees+360(%rip), %rax	# global_trees, iftmp.177
.L326:
	.loc 1 1418 0 discriminator 3
	jmp	.L261	#
.L314:
	.loc 1 1420 0 is_stmt 1
	movq	global_trees+336(%rip), %rax	# global_trees, D.19692
	jmp	.L261	#
.L313:
	.loc 1 1422 0
	movq	global_trees+328(%rip), %rax	# global_trees, D.19692
	jmp	.L261	#
.L312:
	.loc 1 1424 0
	movq	global_trees+384(%rip), %rax	# global_trees, D.19692
	jmp	.L261	#
.L327:
	.loc 1 1426 0
	nop
.L303:
	.loc 1 1431 0
	movl	$0, %eax	#, D.19692
.L261:
	.loc 1 1432 0
	leave
	.cfi_def_cfa 7, 8
	ret
	.cfi_endproc
.LFE32:
	.size	type_for_mode, .-type_for_mode
	.globl	unsigned_type
	.type	unsigned_type, @function
unsigned_type:
.LFB33:
	.loc 1 1438 0
	.cfi_startproc
	pushq	%rbp	#
	.cfi_def_cfa_offset 16
	.cfi_offset 6, -16
	movq	%rsp, %rbp	#,
	.cfi_def_cfa_register 6
	subq	$32, %rsp	#,
	movq	%rdi, -24(%rbp)	# type, type
	.loc 1 1439 0
	movq	-24(%rbp), %rax	# type, tmp73
	movq	128(%rax), %rax	# type_2(D)->type.main_variant, tmp74
	movq	%rax, -8(%rbp)	# tmp74, type1
	.loc 1 1440 0
	movq	integer_types+8(%rip), %rax	# integer_types, D.19698
	cmpq	-8(%rbp), %rax	# type1, D.19698
	je	.L329	#,
	.loc 1 1440 0 is_stmt 0 discriminator 1
	movq	integer_types(%rip), %rax	# integer_types, D.19698
	cmpq	-8(%rbp), %rax	# type1, D.19698
	jne	.L330	#,
.L329:
	.loc 1 1441 0 is_stmt 1
	movq	integer_types+16(%rip), %rax	# integer_types, D.19697
	jmp	.L331	#
.L330:
	.loc 1 1442 0
	movq	integer_types+40(%rip), %rax	# integer_types, D.19698
	cmpq	-8(%rbp), %rax	# type1, D.19698
	jne	.L332	#,
	.loc 1 1443 0
	movq	integer_types+48(%rip), %rax	# integer_types, D.19697
	jmp	.L331	#
.L332:
	.loc 1 1444 0
	movq	integer_types+24(%rip), %rax	# integer_types, D.19698
	cmpq	-8(%rbp), %rax	# type1, D.19698
	jne	.L333	#,
	.loc 1 1445 0
	movq	integer_types+32(%rip), %rax	# integer_types, D.19697
	jmp	.L331	#
.L333:
	.loc 1 1446 0
	movq	integer_types+56(%rip), %rax	# integer_types, D.19698
	cmpq	-8(%rbp), %rax	# type1, D.19698
	jne	.L334	#,
	.loc 1 1447 0
	movq	integer_types+64(%rip), %rax	# integer_types, D.19697
	jmp	.L331	#
.L334:
	.loc 1 1448 0
	movq	integer_types+72(%rip), %rax	# integer_types, D.19698
	cmpq	-8(%rbp), %rax	# type1, D.19698
	jne	.L335	#,
	.loc 1 1449 0
	movq	integer_types+80(%rip), %rax	# integer_types, D.19697
	jmp	.L331	#
.L335:
	.loc 1 1450 0
	movq	c_global_trees+72(%rip), %rax	# c_global_trees, D.19698
	cmpq	-8(%rbp), %rax	# type1, D.19698
	jne	.L336	#,
	.loc 1 1451 0
	movq	c_global_trees+80(%rip), %rax	# c_global_trees, D.19697
	jmp	.L331	#
.L336:
	.loc 1 1453 0
	movq	global_trees+40(%rip), %rax	# global_trees, D.19698
	cmpq	-8(%rbp), %rax	# type1, D.19698
	jne	.L337	#,
	.loc 1 1454 0
	movq	global_trees+80(%rip), %rax	# global_trees, D.19697
	jmp	.L331	#
.L337:
	.loc 1 1456 0
	movq	global_trees+32(%rip), %rax	# global_trees, D.19698
	cmpq	-8(%rbp), %rax	# type1, D.19698
	jne	.L338	#,
	.loc 1 1457 0
	movq	global_trees+72(%rip), %rax	# global_trees, D.19697
	jmp	.L331	#
.L338:
	.loc 1 1458 0
	movq	global_trees+24(%rip), %rax	# global_trees, D.19698
	cmpq	-8(%rbp), %rax	# type1, D.19698
	jne	.L339	#,
	.loc 1 1459 0
	movq	global_trees+64(%rip), %rax	# global_trees, D.19697
	jmp	.L331	#
.L339:
	.loc 1 1460 0
	movq	global_trees+16(%rip), %rax	# global_trees, D.19698
	cmpq	-8(%rbp), %rax	# type1, D.19698
	jne	.L340	#,
	.loc 1 1461 0
	movq	global_trees+56(%rip), %rax	# global_trees, D.19697
	jmp	.L331	#
.L340:
	.loc 1 1462 0
	movq	global_trees+8(%rip), %rax	# global_trees, D.19698
	cmpq	-8(%rbp), %rax	# type1, D.19698
	jne	.L341	#,
	.loc 1 1463 0
	movq	global_trees+48(%rip), %rax	# global_trees, D.19697
	jmp	.L331	#
.L341:
	.loc 1 1465 0
	movq	-24(%rbp), %rax	# type, tmp75
	movq	%rax, %rsi	# tmp75,
	movl	$1, %edi	#,
	call	signed_or_unsigned_type	#
.L331:
	.loc 1 1466 0
	leave
	.cfi_def_cfa 7, 8
	ret
	.cfi_endproc
.LFE33:
	.size	unsigned_type, .-unsigned_type
	.globl	signed_type
	.type	signed_type, @function
signed_type:
.LFB34:
	.loc 1 1473 0
	.cfi_startproc
	pushq	%rbp	#
	.cfi_def_cfa_offset 16
	.cfi_offset 6, -16
	movq	%rsp, %rbp	#,
	.cfi_def_cfa_register 6
	subq	$32, %rsp	#,
	movq	%rdi, -24(%rbp)	# type, type
	.loc 1 1474 0
	movq	-24(%rbp), %rax	# type, tmp73
	movq	128(%rax), %rax	# type_2(D)->type.main_variant, tmp74
	movq	%rax, -8(%rbp)	# tmp74, type1
	.loc 1 1475 0
	movq	integer_types+16(%rip), %rax	# integer_types, D.19700
	cmpq	-8(%rbp), %rax	# type1, D.19700
	je	.L343	#,
	.loc 1 1475 0 is_stmt 0 discriminator 1
	movq	integer_types(%rip), %rax	# integer_types, D.19700
	cmpq	-8(%rbp), %rax	# type1, D.19700
	jne	.L344	#,
.L343:
	.loc 1 1476 0 is_stmt 1
	movq	integer_types+8(%rip), %rax	# integer_types, D.19699
	jmp	.L345	#
.L344:
	.loc 1 1477 0
	movq	integer_types+48(%rip), %rax	# integer_types, D.19700
	cmpq	-8(%rbp), %rax	# type1, D.19700
	jne	.L346	#,
	.loc 1 1478 0
	movq	integer_types+40(%rip), %rax	# integer_types, D.19699
	jmp	.L345	#
.L346:
	.loc 1 1479 0
	movq	integer_types+32(%rip), %rax	# integer_types, D.19700
	cmpq	-8(%rbp), %rax	# type1, D.19700
	jne	.L347	#,
	.loc 1 1480 0
	movq	integer_types+24(%rip), %rax	# integer_types, D.19699
	jmp	.L345	#
.L347:
	.loc 1 1481 0
	movq	integer_types+64(%rip), %rax	# integer_types, D.19700
	cmpq	-8(%rbp), %rax	# type1, D.19700
	jne	.L348	#,
	.loc 1 1482 0
	movq	integer_types+56(%rip), %rax	# integer_types, D.19699
	jmp	.L345	#
.L348:
	.loc 1 1483 0
	movq	integer_types+80(%rip), %rax	# integer_types, D.19700
	cmpq	-8(%rbp), %rax	# type1, D.19700
	jne	.L349	#,
	.loc 1 1484 0
	movq	integer_types+72(%rip), %rax	# integer_types, D.19699
	jmp	.L345	#
.L349:
	.loc 1 1485 0
	movq	c_global_trees+80(%rip), %rax	# c_global_trees, D.19700
	cmpq	-8(%rbp), %rax	# type1, D.19700
	jne	.L350	#,
	.loc 1 1486 0
	movq	c_global_trees+72(%rip), %rax	# c_global_trees, D.19699
	jmp	.L345	#
.L350:
	.loc 1 1488 0
	movq	global_trees+80(%rip), %rax	# global_trees, D.19700
	cmpq	-8(%rbp), %rax	# type1, D.19700
	jne	.L351	#,
	.loc 1 1489 0
	movq	global_trees+40(%rip), %rax	# global_trees, D.19699
	jmp	.L345	#
.L351:
	.loc 1 1491 0
	movq	global_trees+72(%rip), %rax	# global_trees, D.19700
	cmpq	-8(%rbp), %rax	# type1, D.19700
	jne	.L352	#,
	.loc 1 1492 0
	movq	global_trees+32(%rip), %rax	# global_trees, D.19699
	jmp	.L345	#
.L352:
	.loc 1 1493 0
	movq	global_trees+64(%rip), %rax	# global_trees, D.19700
	cmpq	-8(%rbp), %rax	# type1, D.19700
	jne	.L353	#,
	.loc 1 1494 0
	movq	global_trees+24(%rip), %rax	# global_trees, D.19699
	jmp	.L345	#
.L353:
	.loc 1 1495 0
	movq	global_trees+56(%rip), %rax	# global_trees, D.19700
	cmpq	-8(%rbp), %rax	# type1, D.19700
	jne	.L354	#,
	.loc 1 1496 0
	movq	global_trees+16(%rip), %rax	# global_trees, D.19699
	jmp	.L345	#
.L354:
	.loc 1 1497 0
	movq	global_trees+48(%rip), %rax	# global_trees, D.19700
	cmpq	-8(%rbp), %rax	# type1, D.19700
	jne	.L355	#,
	.loc 1 1498 0
	movq	global_trees+8(%rip), %rax	# global_trees, D.19699
	jmp	.L345	#
.L355:
	.loc 1 1500 0
	movq	-24(%rbp), %rax	# type, tmp75
	movq	%rax, %rsi	# tmp75,
	movl	$0, %edi	#,
	call	signed_or_unsigned_type	#
.L345:
	.loc 1 1501 0
	leave
	.cfi_def_cfa 7, 8
	ret
	.cfi_endproc
.LFE34:
	.size	signed_type, .-signed_type
	.globl	signed_or_unsigned_type
	.type	signed_or_unsigned_type, @function
signed_or_unsigned_type:
.LFB35:
	.loc 1 1510 0
	.cfi_startproc
	pushq	%rbp	#
	.cfi_def_cfa_offset 16
	.cfi_offset 6, -16
	movq	%rsp, %rbp	#,
	.cfi_def_cfa_register 6
	movl	%edi, -4(%rbp)	# unsignedp, unsignedp
	movq	%rsi, -16(%rbp)	# type, type
	.loc 1 1511 0
	movq	-16(%rbp), %rax	# type, tmp111
	movzbl	16(%rax), %eax	# type_13(D)->common.code, D.19702
	cmpb	$6, %al	#, D.19702
	je	.L357	#,
	.loc 1 1511 0 is_stmt 0 discriminator 1
	movq	-16(%rbp), %rax	# type, tmp112
	movzbl	16(%rax), %eax	# type_13(D)->common.code, D.19702
	cmpb	$10, %al	#, D.19702
	je	.L357	#,
	movq	-16(%rbp), %rax	# type, tmp113
	movzbl	16(%rax), %eax	# type_13(D)->common.code, D.19702
	cmpb	$11, %al	#, D.19702
	je	.L357	#,
	movq	-16(%rbp), %rax	# type, tmp114
	movzbl	16(%rax), %eax	# type_13(D)->common.code, D.19702
	cmpb	$12, %al	#, D.19702
	jne	.L358	#,
.L357:
	.loc 1 1512 0 is_stmt 1
	movq	-16(%rbp), %rax	# type, tmp115
	movzbl	17(%rax), %eax	# *type_13(D), tmp118
	shrb	$5, %al	#, D.19703
	andl	$1, %eax	#, D.19703
	movzbl	%al, %eax	# D.19703, D.19704
	cmpl	-4(%rbp), %eax	# unsignedp, D.19704
	jne	.L359	#,
.L358:
	.loc 1 1513 0
	movq	-16(%rbp), %rax	# type, D.19701
	jmp	.L360	#
.L359:
	.loc 1 1515 0
	movq	-16(%rbp), %rax	# type, tmp119
	movzwl	60(%rax), %eax	# *type_13(D), tmp122
	andw	$511, %ax	#, D.19705
	movl	%eax, %edx	# D.19705, D.19705
	movq	integer_types+8(%rip), %rax	# integer_types, D.19706
	movzwl	60(%rax), %eax	# *_22, tmp125
	andw	$511, %ax	#, D.19705
	cmpw	%ax, %dx	# D.19705, D.19705
	jne	.L361	#,
	.loc 1 1516 0
	cmpl	$0, -4(%rbp)	#, unsignedp
	je	.L362	#,
	.loc 1 1516 0 is_stmt 0 discriminator 1
	movq	integer_types+16(%rip), %rax	# integer_types, iftmp.178
	jmp	.L363	#
.L362:
	.loc 1 1516 0 discriminator 2
	movq	integer_types+8(%rip), %rax	# integer_types, iftmp.178
.L363:
	.loc 1 1516 0 discriminator 3
	jmp	.L360	#
.L361:
	.loc 1 1517 0 is_stmt 1
	movq	-16(%rbp), %rax	# type, tmp126
	movzwl	60(%rax), %eax	# *type_13(D), tmp129
	andw	$511, %ax	#, D.19705
	movl	%eax, %edx	# D.19705, D.19705
	movq	integer_types+40(%rip), %rax	# integer_types, D.19706
	movzwl	60(%rax), %eax	# *_28, tmp132
	andw	$511, %ax	#, D.19705
	cmpw	%ax, %dx	# D.19705, D.19705
	jne	.L364	#,
	.loc 1 1518 0
	cmpl	$0, -4(%rbp)	#, unsignedp
	je	.L365	#,
	.loc 1 1518 0 is_stmt 0 discriminator 1
	movq	integer_types+48(%rip), %rax	# integer_types, iftmp.179
	jmp	.L366	#
.L365:
	.loc 1 1518 0 discriminator 2
	movq	integer_types+40(%rip), %rax	# integer_types, iftmp.179
.L366:
	.loc 1 1518 0 discriminator 3
	jmp	.L360	#
.L364:
	.loc 1 1519 0 is_stmt 1
	movq	-16(%rbp), %rax	# type, tmp133
	movzwl	60(%rax), %eax	# *type_13(D), tmp136
	andw	$511, %ax	#, D.19705
	movl	%eax, %edx	# D.19705, D.19705
	movq	integer_types+24(%rip), %rax	# integer_types, D.19706
	movzwl	60(%rax), %eax	# *_34, tmp139
	andw	$511, %ax	#, D.19705
	cmpw	%ax, %dx	# D.19705, D.19705
	jne	.L367	#,
	.loc 1 1520 0
	cmpl	$0, -4(%rbp)	#, unsignedp
	je	.L368	#,
	.loc 1 1520 0 is_stmt 0 discriminator 1
	movq	integer_types+32(%rip), %rax	# integer_types, iftmp.180
	jmp	.L369	#
.L368:
	.loc 1 1520 0 discriminator 2
	movq	integer_types+24(%rip), %rax	# integer_types, iftmp.180
.L369:
	.loc 1 1520 0 discriminator 3
	jmp	.L360	#
.L367:
	.loc 1 1521 0 is_stmt 1
	movq	-16(%rbp), %rax	# type, tmp140
	movzwl	60(%rax), %eax	# *type_13(D), tmp143
	andw	$511, %ax	#, D.19705
	movl	%eax, %edx	# D.19705, D.19705
	movq	integer_types+56(%rip), %rax	# integer_types, D.19706
	movzwl	60(%rax), %eax	# *_40, tmp146
	andw	$511, %ax	#, D.19705
	cmpw	%ax, %dx	# D.19705, D.19705
	jne	.L370	#,
	.loc 1 1522 0
	cmpl	$0, -4(%rbp)	#, unsignedp
	je	.L371	#,
	.loc 1 1522 0 is_stmt 0 discriminator 1
	movq	integer_types+64(%rip), %rax	# integer_types, iftmp.181
	jmp	.L372	#
.L371:
	.loc 1 1522 0 discriminator 2
	movq	integer_types+56(%rip), %rax	# integer_types, iftmp.181
.L372:
	.loc 1 1522 0 discriminator 3
	jmp	.L360	#
.L370:
	.loc 1 1523 0 is_stmt 1
	movq	-16(%rbp), %rax	# type, tmp147
	movzwl	60(%rax), %eax	# *type_13(D), tmp150
	andw	$511, %ax	#, D.19705
	movl	%eax, %edx	# D.19705, D.19705
	movq	integer_types+72(%rip), %rax	# integer_types, D.19706
	movzwl	60(%rax), %eax	# *_46, tmp153
	andw	$511, %ax	#, D.19705
	cmpw	%ax, %dx	# D.19705, D.19705
	jne	.L373	#,
	.loc 1 1525 0
	cmpl	$0, -4(%rbp)	#, unsignedp
	je	.L374	#,
	.loc 1 1525 0 is_stmt 0 discriminator 1
	movq	integer_types+80(%rip), %rax	# integer_types, iftmp.182
	jmp	.L375	#
.L374:
	.loc 1 1525 0 discriminator 2
	movq	integer_types+72(%rip), %rax	# integer_types, iftmp.182
.L375:
	.loc 1 1524 0 is_stmt 1
	jmp	.L360	#
.L373:
	.loc 1 1526 0
	movq	-16(%rbp), %rax	# type, tmp154
	movzwl	60(%rax), %eax	# *type_13(D), tmp157
	andw	$511, %ax	#, D.19705
	movl	%eax, %edx	# D.19705, D.19705
	movq	c_global_trees+72(%rip), %rax	# c_global_trees, D.19706
	movzwl	60(%rax), %eax	# *_52, tmp160
	andw	$511, %ax	#, D.19705
	cmpw	%ax, %dx	# D.19705, D.19705
	jne	.L376	#,
	.loc 1 1528 0
	cmpl	$0, -4(%rbp)	#, unsignedp
	je	.L377	#,
	.loc 1 1528 0 is_stmt 0 discriminator 1
	movq	c_global_trees+80(%rip), %rax	# c_global_trees, iftmp.183
	jmp	.L378	#
.L377:
	.loc 1 1528 0 discriminator 2
	movq	c_global_trees+72(%rip), %rax	# c_global_trees, iftmp.183
.L378:
	.loc 1 1527 0 is_stmt 1
	jmp	.L360	#
.L376:
	.loc 1 1531 0
	movq	-16(%rbp), %rax	# type, tmp161
	movzwl	60(%rax), %eax	# *type_13(D), tmp164
	andw	$511, %ax	#, D.19705
	movl	%eax, %edx	# D.19705, D.19705
	movq	global_trees+40(%rip), %rax	# global_trees, D.19706
	movzwl	60(%rax), %eax	# *_58, tmp167
	andw	$511, %ax	#, D.19705
	cmpw	%ax, %dx	# D.19705, D.19705
	jne	.L379	#,
	.loc 1 1532 0
	cmpl	$0, -4(%rbp)	#, unsignedp
	je	.L380	#,
	.loc 1 1532 0 is_stmt 0 discriminator 1
	movq	global_trees+80(%rip), %rax	# global_trees, iftmp.184
	jmp	.L381	#
.L380:
	.loc 1 1532 0 discriminator 2
	movq	global_trees+40(%rip), %rax	# global_trees, iftmp.184
.L381:
	.loc 1 1532 0 discriminator 3
	jmp	.L360	#
.L379:
	.loc 1 1534 0 is_stmt 1
	movq	-16(%rbp), %rax	# type, tmp168
	movzwl	60(%rax), %eax	# *type_13(D), tmp171
	andw	$511, %ax	#, D.19705
	movl	%eax, %edx	# D.19705, D.19705
	movq	global_trees+32(%rip), %rax	# global_trees, D.19706
	movzwl	60(%rax), %eax	# *_64, tmp174
	andw	$511, %ax	#, D.19705
	cmpw	%ax, %dx	# D.19705, D.19705
	jne	.L382	#,
	.loc 1 1535 0
	cmpl	$0, -4(%rbp)	#, unsignedp
	je	.L383	#,
	.loc 1 1535 0 is_stmt 0 discriminator 1
	movq	global_trees+72(%rip), %rax	# global_trees, iftmp.185
	jmp	.L384	#
.L383:
	.loc 1 1535 0 discriminator 2
	movq	global_trees+32(%rip), %rax	# global_trees, iftmp.185
.L384:
	.loc 1 1535 0 discriminator 3
	jmp	.L360	#
.L382:
	.loc 1 1536 0 is_stmt 1
	movq	-16(%rbp), %rax	# type, tmp175
	movzwl	60(%rax), %eax	# *type_13(D), tmp178
	andw	$511, %ax	#, D.19705
	movl	%eax, %edx	# D.19705, D.19705
	movq	global_trees+24(%rip), %rax	# global_trees, D.19706
	movzwl	60(%rax), %eax	# *_70, tmp181
	andw	$511, %ax	#, D.19705
	cmpw	%ax, %dx	# D.19705, D.19705
	jne	.L385	#,
	.loc 1 1537 0
	cmpl	$0, -4(%rbp)	#, unsignedp
	je	.L386	#,
	.loc 1 1537 0 is_stmt 0 discriminator 1
	movq	global_trees+64(%rip), %rax	# global_trees, iftmp.186
	jmp	.L387	#
.L386:
	.loc 1 1537 0 discriminator 2
	movq	global_trees+24(%rip), %rax	# global_trees, iftmp.186
.L387:
	.loc 1 1537 0 discriminator 3
	jmp	.L360	#
.L385:
	.loc 1 1538 0 is_stmt 1
	movq	-16(%rbp), %rax	# type, tmp182
	movzwl	60(%rax), %eax	# *type_13(D), tmp185
	andw	$511, %ax	#, D.19705
	movl	%eax, %edx	# D.19705, D.19705
	movq	global_trees+16(%rip), %rax	# global_trees, D.19706
	movzwl	60(%rax), %eax	# *_76, tmp188
	andw	$511, %ax	#, D.19705
	cmpw	%ax, %dx	# D.19705, D.19705
	jne	.L388	#,
	.loc 1 1539 0
	cmpl	$0, -4(%rbp)	#, unsignedp
	je	.L389	#,
	.loc 1 1539 0 is_stmt 0 discriminator 1
	movq	global_trees+56(%rip), %rax	# global_trees, iftmp.187
	jmp	.L390	#
.L389:
	.loc 1 1539 0 discriminator 2
	movq	global_trees+16(%rip), %rax	# global_trees, iftmp.187
.L390:
	.loc 1 1539 0 discriminator 3
	jmp	.L360	#
.L388:
	.loc 1 1540 0 is_stmt 1
	movq	-16(%rbp), %rax	# type, tmp189
	movzwl	60(%rax), %eax	# *type_13(D), tmp192
	andw	$511, %ax	#, D.19705
	movl	%eax, %edx	# D.19705, D.19705
	movq	global_trees+8(%rip), %rax	# global_trees, D.19706
	movzwl	60(%rax), %eax	# *_82, tmp195
	andw	$511, %ax	#, D.19705
	cmpw	%ax, %dx	# D.19705, D.19705
	jne	.L391	#,
	.loc 1 1541 0
	cmpl	$0, -4(%rbp)	#, unsignedp
	je	.L392	#,
	.loc 1 1541 0 is_stmt 0 discriminator 1
	movq	global_trees+48(%rip), %rax	# global_trees, iftmp.188
	jmp	.L393	#
.L392:
	.loc 1 1541 0 discriminator 2
	movq	global_trees+8(%rip), %rax	# global_trees, iftmp.188
.L393:
	.loc 1 1541 0 discriminator 3
	jmp	.L360	#
.L391:
	.loc 1 1543 0 is_stmt 1
	movq	-16(%rbp), %rax	# type, D.19701
.L360:
	.loc 1 1544 0
	popq	%rbp	#
	.cfi_def_cfa 7, 8
	ret
	.cfi_endproc
.LFE35:
	.size	signed_or_unsigned_type, .-signed_or_unsigned_type
	.globl	min_precision
	.type	min_precision, @function
min_precision:
.LFB36:
	.loc 1 1553 0
	.cfi_startproc
	pushq	%rbp	#
	.cfi_def_cfa_offset 16
	.cfi_offset 6, -16
	movq	%rsp, %rbp	#,
	.cfi_def_cfa_register 6
	subq	$32, %rsp	#,
	movq	%rdi, -24(%rbp)	# value, value
	movl	%esi, -28(%rbp)	# unsignedp, unsignedp
	.loc 1 1561 0
	movq	-24(%rbp), %rax	# value, tmp69
	movq	%rax, %rdi	# tmp69,
	call	tree_int_cst_sgn	#
	testl	%eax, %eax	# D.19707
	jns	.L395	#,
	.loc 1 1562 0
	movq	-24(%rbp), %rax	# value, tmp70
	movq	8(%rax), %rax	# value_3(D)->common.type, D.19708
	movq	-24(%rbp), %rdx	# value, tmp71
	movq	%rax, %rsi	# D.19708,
	movl	$90, %edi	#,
	call	build1	#
	movq	%rax, %rdi	# D.19708,
	call	fold	#
	movq	%rax, -24(%rbp)	# tmp72, value
.L395:
	.loc 1 1567 0
	movq	-24(%rbp), %rax	# value, tmp73
	movq	%rax, %rdi	# tmp73,
	call	integer_zerop	#
	testl	%eax, %eax	# D.19707
	je	.L396	#,
	.loc 1 1568 0
	movl	$0, -4(%rbp)	#, log
	jmp	.L397	#
.L396:
	.loc 1 1570 0
	movq	-24(%rbp), %rax	# value, tmp74
	movq	%rax, %rdi	# tmp74,
	call	tree_floor_log2	#
	movl	%eax, -4(%rbp)	# tmp75, log
.L397:
	.loc 1 1572 0
	movl	-4(%rbp), %eax	# log, tmp76
	leal	1(%rax), %edx	#, D.19707
	cmpl	$0, -28(%rbp)	#, unsignedp
	sete	%al	#, D.19709
	movzbl	%al, %eax	# D.19709, D.19707
	addl	%edx, %eax	# D.19707, D.19707
	.loc 1 1573 0
	leave
	.cfi_def_cfa 7, 8
	ret
	.cfi_endproc
.LFE36:
	.size	min_precision, .-min_precision
	.section	.rodata
	.align 8
.LC16:
	.string	"invalid truth-value expression"
.LC17:
	.string	"+"
.LC18:
	.string	"-"
.LC19:
	.string	"*"
.LC20:
	.string	"max"
.LC21:
	.string	"min"
.LC22:
	.string	"=="
.LC23:
	.string	"!="
.LC24:
	.string	"<="
.LC25:
	.string	">="
.LC26:
	.string	"<"
.LC27:
	.string	">"
.LC28:
	.string	"<<"
.LC29:
	.string	">>"
.LC30:
	.string	"%"
.LC31:
	.string	"/"
.LC32:
	.string	"&"
.LC33:
	.string	"|"
.LC34:
	.string	"&&"
.LC35:
	.string	"||"
.LC36:
	.string	"^"
.LC37:
	.string	"rotate"
.LC38:
	.string	"unknown"
.LC39:
	.string	"invalid operands to binary %s"
	.text
	.globl	binary_op_error
	.type	binary_op_error, @function
binary_op_error:
.LFB37:
	.loc 1 1581 0
	.cfi_startproc
	pushq	%rbp	#
	.cfi_def_cfa_offset 16
	.cfi_offset 6, -16
	movq	%rsp, %rbp	#,
	.cfi_def_cfa_register 6
	subq	$32, %rsp	#,
	movl	%edi, -20(%rbp)	# code, code
	.loc 1 1584 0
	movl	-20(%rbp), %eax	# code, tmp60
	subl	$59, %eax	#, tmp59
	cmpl	$56, %eax	#, tmp59
	ja	.L400	#,
	movl	%eax, %eax	# tmp59, tmp61
	movq	.L402(,%rax,8), %rax	#, tmp62
	jmp	*%rax	# tmp62
	.section	.rodata
	.align 8
	.align 4
.L402:
	.quad	.L401
	.quad	.L403
	.quad	.L404
	.quad	.L405
	.quad	.L400
	.quad	.L405
	.quad	.L400
	.quad	.L406
	.quad	.L400
	.quad	.L406
	.quad	.L400
	.quad	.L400
	.quad	.L400
	.quad	.L400
	.quad	.L400
	.quad	.L400
	.quad	.L400
	.quad	.L400
	.quad	.L400
	.quad	.L407
	.quad	.L408
	.quad	.L400
	.quad	.L400
	.quad	.L409
	.quad	.L410
	.quad	.L411
	.quad	.L411
	.quad	.L412
	.quad	.L413
	.quad	.L414
	.quad	.L400
	.quad	.L400
	.quad	.L415
	.quad	.L416
	.quad	.L400
	.quad	.L400
	.quad	.L400
	.quad	.L400
	.quad	.L417
	.quad	.L418
	.quad	.L419
	.quad	.L420
	.quad	.L421
	.quad	.L422
	.quad	.L400
	.quad	.L400
	.quad	.L400
	.quad	.L400
	.quad	.L400
	.quad	.L400
	.quad	.L400
	.quad	.L400
	.quad	.L400
	.quad	.L400
	.quad	.L400
	.quad	.L400
	.quad	.L423
	.text
.L423:
	.loc 1 1587 0
	movl	$.LC16, %edi	#,
	movl	$0, %eax	#,
	call	error	#
	.loc 1 1588 0
	jmp	.L399	#
.L401:
	.loc 1 1591 0
	movq	$.LC17, -8(%rbp)	#, opname
	jmp	.L425	#
.L403:
	.loc 1 1593 0
	movq	$.LC18, -8(%rbp)	#, opname
	jmp	.L425	#
.L404:
	.loc 1 1595 0
	movq	$.LC19, -8(%rbp)	#, opname
	jmp	.L425	#
.L408:
	.loc 1 1597 0
	movq	$.LC20, -8(%rbp)	#, opname
	jmp	.L425	#
.L407:
	.loc 1 1599 0
	movq	$.LC21, -8(%rbp)	#, opname
	jmp	.L425	#
.L421:
	.loc 1 1601 0
	movq	$.LC22, -8(%rbp)	#, opname
	jmp	.L425	#
.L422:
	.loc 1 1603 0
	movq	$.LC23, -8(%rbp)	#, opname
	jmp	.L425	#
.L418:
	.loc 1 1605 0
	movq	$.LC24, -8(%rbp)	#, opname
	jmp	.L425	#
.L420:
	.loc 1 1607 0
	movq	$.LC25, -8(%rbp)	#, opname
	jmp	.L425	#
.L417:
	.loc 1 1609 0
	movq	$.LC26, -8(%rbp)	#, opname
	jmp	.L425	#
.L419:
	.loc 1 1611 0
	movq	$.LC27, -8(%rbp)	#, opname
	jmp	.L425	#
.L409:
	.loc 1 1613 0
	movq	$.LC28, -8(%rbp)	#, opname
	jmp	.L425	#
.L410:
	.loc 1 1615 0
	movq	$.LC29, -8(%rbp)	#, opname
	jmp	.L425	#
.L406:
	.loc 1 1618 0
	movq	$.LC30, -8(%rbp)	#, opname
	jmp	.L425	#
.L405:
	.loc 1 1621 0
	movq	$.LC31, -8(%rbp)	#, opname
	jmp	.L425	#
.L414:
	.loc 1 1623 0
	movq	$.LC32, -8(%rbp)	#, opname
	jmp	.L425	#
.L412:
	.loc 1 1625 0
	movq	$.LC33, -8(%rbp)	#, opname
	jmp	.L425	#
.L415:
	.loc 1 1627 0
	movq	$.LC34, -8(%rbp)	#, opname
	jmp	.L425	#
.L416:
	.loc 1 1629 0
	movq	$.LC35, -8(%rbp)	#, opname
	jmp	.L425	#
.L413:
	.loc 1 1631 0
	movq	$.LC36, -8(%rbp)	#, opname
	jmp	.L425	#
.L411:
	.loc 1 1634 0
	movq	$.LC37, -8(%rbp)	#, opname
	jmp	.L425	#
.L400:
	.loc 1 1636 0
	movq	$.LC38, -8(%rbp)	#, opname
	nop
.L425:
	.loc 1 1638 0
	movq	-8(%rbp), %rax	# opname, tmp63
	movq	%rax, %rsi	# tmp63,
	movl	$.LC39, %edi	#,
	movl	$0, %eax	#,
	call	error	#
.L399:
	.loc 1 1639 0
	leave
	.cfi_def_cfa 7, 8
	ret
	.cfi_endproc
.LFE37:
	.size	binary_op_error, .-binary_op_error
	.section	.rodata
	.align 8
.LC40:
	.string	"comparison is always false due to limited range of data type"
	.align 8
.LC41:
	.string	"comparison is always true due to limited range of data type"
	.align 8
.LC42:
	.string	"comparison of unsigned expression >= 0 is always true"
	.align 8
.LC43:
	.string	"comparison of unsigned expression < 0 is always false"
	.text
	.globl	shorten_compare
	.type	shorten_compare, @function
shorten_compare:
.LFB38:
	.loc 1 1660 0
	.cfi_startproc
	pushq	%rbp	#
	.cfi_def_cfa_offset 16
	.cfi_offset 6, -16
	movq	%rsp, %rbp	#,
	.cfi_def_cfa_register 6
	subq	$160, %rsp	#,
	movq	%rdi, -136(%rbp)	# op0_ptr, op0_ptr
	movq	%rsi, -144(%rbp)	# op1_ptr, op1_ptr
	movq	%rdx, -152(%rbp)	# restype_ptr, restype_ptr
	movq	%rcx, -160(%rbp)	# rescode_ptr, rescode_ptr
	.loc 1 1662 0
	movq	-136(%rbp), %rax	# op0_ptr, tmp238
	movq	(%rax), %rax	# *op0_ptr_46(D), tmp239
	movq	%rax, -72(%rbp)	# tmp239, op0
	.loc 1 1663 0
	movq	-144(%rbp), %rax	# op1_ptr, tmp240
	movq	(%rax), %rax	# *op1_ptr_48(D), tmp241
	movq	%rax, -64(%rbp)	# tmp241, op1
	.loc 1 1667 0
	movq	-160(%rbp), %rax	# rescode_ptr, tmp242
	movl	(%rax), %eax	# *rescode_ptr_50(D), tmp243
	movl	%eax, -108(%rbp)	# tmp243, code
	.loc 1 1672 0
	leaq	-124(%rbp), %rdx	#, tmp244
	movq	-72(%rbp), %rax	# op0, tmp245
	movq	%rdx, %rsi	# tmp244,
	movq	%rax, %rdi	# tmp245,
	call	get_narrower	#
	movq	%rax, -56(%rbp)	# tmp246, primop0
	.loc 1 1673 0
	leaq	-120(%rbp), %rdx	#, tmp247
	movq	-64(%rbp), %rax	# op1, tmp248
	movq	%rdx, %rsi	# tmp247,
	movq	%rax, %rdi	# tmp248,
	call	get_narrower	#
	movq	%rax, -48(%rbp)	# tmp249, primop1
	.loc 1 1678 0
	movq	-72(%rbp), %rax	# op0, tmp250
	cmpq	-56(%rbp), %rax	# primop0, tmp250
	jne	.L427	#,
	.loc 1 1678 0 is_stmt 0 discriminator 1
	movq	-72(%rbp), %rax	# op0, tmp251
	movq	8(%rax), %rdx	# op0_47->common.type, D.19736
	movq	-152(%rbp), %rax	# restype_ptr, tmp252
	movq	(%rax), %rax	# *restype_ptr_55(D), D.19736
	cmpq	%rax, %rdx	# D.19736, D.19736
	je	.L427	#,
	.loc 1 1679 0 is_stmt 1
	movq	-72(%rbp), %rax	# op0, tmp253
	movq	8(%rax), %rax	# op0_47->common.type, D.19736
	movzbl	17(%rax), %eax	# *_57, tmp256
	shrb	$5, %al	#, D.19737
	andl	$1, %eax	#, D.19737
	movzbl	%al, %eax	# D.19737, unsignedp0.189
	movl	%eax, -124(%rbp)	# unsignedp0.189, unsignedp0
.L427:
	.loc 1 1680 0
	movq	-64(%rbp), %rax	# op1, tmp257
	cmpq	-48(%rbp), %rax	# primop1, tmp257
	jne	.L428	#,
	.loc 1 1680 0 is_stmt 0 discriminator 1
	movq	-64(%rbp), %rax	# op1, tmp258
	movq	8(%rax), %rdx	# op1_49->common.type, D.19736
	movq	-152(%rbp), %rax	# restype_ptr, tmp259
	movq	(%rax), %rax	# *restype_ptr_55(D), D.19736
	cmpq	%rax, %rdx	# D.19736, D.19736
	je	.L428	#,
	.loc 1 1681 0 is_stmt 1
	movq	-64(%rbp), %rax	# op1, tmp260
	movq	8(%rax), %rax	# op1_49->common.type, D.19736
	movzbl	17(%rax), %eax	# *_62, tmp263
	shrb	$5, %al	#, D.19737
	andl	$1, %eax	#, D.19737
	movzbl	%al, %eax	# D.19737, unsignedp1.190
	movl	%eax, -120(%rbp)	# unsignedp1.190, unsignedp1
.L428:
	.loc 1 1684 0
	movq	-56(%rbp), %rax	# primop0, tmp264
	movq	8(%rax), %rax	# primop0_52->common.type, D.19736
	movzbl	16(%rax), %eax	# _65->common.code, D.19738
	cmpb	$7, %al	#, D.19738
	sete	%al	#, D.19739
	movzbl	%al, %eax	# D.19739, tmp265
	movl	%eax, -116(%rbp)	# tmp265, real1
	.loc 1 1685 0
	movq	-48(%rbp), %rax	# primop1, tmp266
	movq	8(%rax), %rax	# primop1_53->common.type, D.19736
	movzbl	16(%rax), %eax	# _69->common.code, D.19738
	cmpb	$7, %al	#, D.19738
	sete	%al	#, D.19739
	movzbl	%al, %eax	# D.19739, tmp267
	movl	%eax, -112(%rbp)	# tmp267, real2
	.loc 1 1691 0
	movq	-56(%rbp), %rax	# primop0, tmp268
	movzbl	17(%rax), %eax	# *primop0_52, D.19738
	andl	$2, %eax	#, D.19738
	testb	%al, %al	# D.19738
	je	.L429	#,
	.loc 1 1692 0
	movq	-48(%rbp), %rax	# primop1, tmp269
	movq	%rax, %rdi	# tmp269,
	call	integer_zerop	#
	testl	%eax, %eax	# D.19740
	jne	.L429	#,
	.loc 1 1692 0 is_stmt 0 discriminator 1
	movq	-48(%rbp), %rax	# primop1, tmp270
	movq	%rax, %rdi	# tmp270,
	call	real_zerop	#
	testl	%eax, %eax	# D.19740
	jne	.L429	#,
.LBB27:
	.loc 1 1694 0 is_stmt 1
	movq	-56(%rbp), %rax	# primop0, tmp271
	movq	%rax, -8(%rbp)	# tmp271, tem
	.loc 1 1695 0
	movl	-124(%rbp), %eax	# unsignedp0, tmp272
	movl	%eax, -88(%rbp)	# tmp272, temi
	.loc 1 1696 0
	movq	-48(%rbp), %rax	# primop1, tmp273
	movq	%rax, -56(%rbp)	# tmp273, primop0
	.loc 1 1697 0
	movq	-8(%rbp), %rax	# tem, tmp274
	movq	%rax, -48(%rbp)	# tmp274, primop1
	.loc 1 1698 0
	movq	-72(%rbp), %rax	# op0, tmp275
	movq	%rax, -8(%rbp)	# tmp275, tem
	.loc 1 1699 0
	movq	-64(%rbp), %rax	# op1, tmp276
	movq	%rax, -72(%rbp)	# tmp276, op0
	.loc 1 1700 0
	movq	-8(%rbp), %rax	# tem, tmp277
	movq	%rax, -64(%rbp)	# tmp277, op1
	.loc 1 1701 0
	movq	-136(%rbp), %rax	# op0_ptr, tmp278
	movq	-72(%rbp), %rdx	# op0, tmp279
	movq	%rdx, (%rax)	# tmp279, *op0_ptr_46(D)
	.loc 1 1702 0
	movq	-144(%rbp), %rax	# op1_ptr, tmp280
	movq	-64(%rbp), %rdx	# op1, tmp281
	movq	%rdx, (%rax)	# tmp281, *op1_ptr_48(D)
	.loc 1 1703 0
	movl	-120(%rbp), %eax	# unsignedp1, unsignedp1.191
	movl	%eax, -124(%rbp)	# unsignedp1.191, unsignedp0
	.loc 1 1704 0
	movl	-88(%rbp), %eax	# temi, tmp282
	movl	%eax, -120(%rbp)	# tmp282, unsignedp1
	.loc 1 1705 0
	movl	-116(%rbp), %eax	# real1, tmp283
	movl	%eax, -88(%rbp)	# tmp283, temi
	.loc 1 1706 0
	movl	-112(%rbp), %eax	# real2, tmp284
	movl	%eax, -116(%rbp)	# tmp284, real1
	.loc 1 1707 0
	movl	-88(%rbp), %eax	# temi, tmp285
	movl	%eax, -112(%rbp)	# tmp285, real2
	.loc 1 1709 0
	movl	-108(%rbp), %eax	# code, code
	cmpl	$98, %eax	#, code
	je	.L431	#,
	cmpl	$98, %eax	#, code
	ja	.L432	#,
	cmpl	$97, %eax	#, code
	je	.L433	#,
	.loc 1 1724 0
	jmp	.L436	#
.L432:
	.loc 1 1709 0
	cmpl	$99, %eax	#, code
	je	.L434	#,
	cmpl	$100, %eax	#, code
	je	.L435	#,
	.loc 1 1724 0
	jmp	.L436	#
.L433:
	.loc 1 1712 0
	movl	$99, -108(%rbp)	#, code
	.loc 1 1713 0
	jmp	.L436	#
.L434:
	.loc 1 1715 0
	movl	$97, -108(%rbp)	#, code
	.loc 1 1716 0
	jmp	.L436	#
.L431:
	.loc 1 1718 0
	movl	$100, -108(%rbp)	#, code
	.loc 1 1719 0
	jmp	.L436	#
.L435:
	.loc 1 1721 0
	movl	$98, -108(%rbp)	#, code
	.loc 1 1722 0
	nop
.L436:
	.loc 1 1726 0
	movq	-160(%rbp), %rax	# rescode_ptr, tmp287
	movl	-108(%rbp), %edx	# code, tmp288
	movl	%edx, (%rax)	# tmp288, *rescode_ptr_50(D)
.L429:
.LBE27:
	.loc 1 1746 0
	cmpl	$0, -116(%rbp)	#, real1
	jne	.L437	#,
	.loc 1 1746 0 is_stmt 0 discriminator 1
	cmpl	$0, -112(%rbp)	#, real2
	jne	.L437	#,
	.loc 1 1747 0 is_stmt 1
	movq	-48(%rbp), %rax	# primop1, tmp289
	movzbl	16(%rax), %eax	# primop1_10->common.code, D.19738
	cmpb	$25, %al	#, D.19738
	jne	.L437	#,
	.loc 1 1748 0
	movq	-56(%rbp), %rax	# primop0, tmp290
	movq	8(%rax), %rax	# primop0_8->common.type, D.19736
	movzwl	60(%rax), %eax	# *_93, tmp293
	andw	$511, %ax	#, D.19741
	movzwl	%ax, %edx	# D.19741, D.19740
	movq	-152(%rbp), %rax	# restype_ptr, tmp294
	movq	(%rax), %rax	# *restype_ptr_55(D), D.19736
	movzwl	60(%rax), %eax	# *_96, tmp297
	andw	$511, %ax	#, D.19741
	movzwl	%ax, %eax	# D.19741, D.19740
	cmpl	%eax, %edx	# D.19740, D.19740
	jge	.L437	#,
.LBB28:
	.loc 1 1753 0
	movq	-152(%rbp), %rax	# restype_ptr, tmp298
	movq	(%rax), %rax	# *restype_ptr_55(D), D.19736
	movzbl	17(%rax), %eax	# *_99, tmp301
	shrb	$5, %al	#, D.19737
	andl	$1, %eax	#, D.19737
	movzbl	%al, %eax	# D.19737, tmp302
	movl	%eax, -84(%rbp)	# tmp302, unsignedp
	.loc 1 1756 0
	movq	-56(%rbp), %rax	# primop0, tmp303
	movq	8(%rax), %rdx	# primop0_8->common.type, D.19736
	movl	-124(%rbp), %eax	# unsignedp0, unsignedp0.192
	movq	%rdx, %rsi	# D.19736,
	movl	%eax, %edi	# unsignedp0.192,
	call	signed_or_unsigned_type	#
	movq	%rax, -80(%rbp)	# tmp304, type
	.loc 1 1761 0
	movq	-80(%rbp), %rax	# type, tmp305
	movzbl	16(%rax), %eax	# type_104->common.code, D.19738
	cmpb	$10, %al	#, D.19738
	jne	.L438	#,
	.loc 1 1762 0
	movl	-124(%rbp), %edx	# unsignedp0, unsignedp0.193
	movq	-80(%rbp), %rax	# type, tmp306
	movzwl	60(%rax), %eax	# *type_104, tmp309
	andw	$511, %ax	#, D.19741
	movzwl	%ax, %eax	# D.19741, D.19742
	movl	%edx, %esi	# unsignedp0.193,
	movl	%eax, %edi	# D.19742,
	call	type_for_size	#
	movq	%rax, -80(%rbp)	# tmp310, type
.L438:
	.loc 1 1764 0
	movq	-80(%rbp), %rax	# type, tmp311
	movq	112(%rax), %rax	# type_1->type.maxval, tmp312
	movq	%rax, -40(%rbp)	# tmp312, maxval
	.loc 1 1765 0
	movq	-80(%rbp), %rax	# type, tmp313
	movq	104(%rax), %rax	# type_1->type.minval, tmp314
	movq	%rax, -32(%rbp)	# tmp314, minval
	.loc 1 1767 0
	cmpl	$0, -84(%rbp)	#, unsignedp
	je	.L439	#,
	.loc 1 1767 0 is_stmt 0 discriminator 1
	movl	-124(%rbp), %eax	# unsignedp0, unsignedp0.194
	testl	%eax, %eax	# unsignedp0.194
	jne	.L439	#,
	.loc 1 1768 0 is_stmt 1
	movq	-152(%rbp), %rax	# restype_ptr, tmp315
	movq	(%rax), %rax	# *restype_ptr_55(D), D.19736
	movq	%rax, %rdi	# D.19736,
	call	signed_type	#
	movq	-152(%rbp), %rdx	# restype_ptr, tmp316
	movq	%rax, (%rdx)	# D.19736, *restype_ptr_55(D)
.L439:
	.loc 1 1770 0
	movq	-48(%rbp), %rax	# primop1, tmp317
	movq	8(%rax), %rdx	# primop1_10->common.type, D.19736
	movq	-152(%rbp), %rax	# restype_ptr, tmp318
	movq	(%rax), %rax	# *restype_ptr_55(D), D.19736
	cmpq	%rax, %rdx	# D.19736, D.19736
	je	.L440	#,
	.loc 1 1771 0
	movq	-152(%rbp), %rax	# restype_ptr, tmp319
	movq	(%rax), %rax	# *restype_ptr_55(D), D.19736
	movq	-48(%rbp), %rdx	# primop1, tmp320
	movq	%rdx, %rsi	# tmp320,
	movq	%rax, %rdi	# D.19736,
	call	convert	#
	movq	%rax, -48(%rbp)	# tmp321, primop1
.L440:
	.loc 1 1772 0
	movq	-152(%rbp), %rax	# restype_ptr, tmp322
	movq	(%rax), %rax	# *restype_ptr_55(D), D.19736
	cmpq	-80(%rbp), %rax	# type, D.19736
	je	.L441	#,
	.loc 1 1774 0
	movq	-152(%rbp), %rax	# restype_ptr, tmp323
	movq	(%rax), %rax	# *restype_ptr_55(D), D.19736
	movq	-32(%rbp), %rdx	# minval, tmp324
	movq	%rdx, %rsi	# tmp324,
	movq	%rax, %rdi	# D.19736,
	call	convert	#
	movq	%rax, -32(%rbp)	# tmp325, minval
	.loc 1 1775 0
	movq	-152(%rbp), %rax	# restype_ptr, tmp326
	movq	(%rax), %rax	# *restype_ptr_55(D), D.19736
	movq	-40(%rbp), %rdx	# maxval, tmp327
	movq	%rdx, %rsi	# tmp327,
	movq	%rax, %rdi	# D.19736,
	call	convert	#
	movq	%rax, -40(%rbp)	# tmp328, maxval
.L441:
	.loc 1 1778 0
	cmpl	$0, -84(%rbp)	#, unsignedp
	je	.L442	#,
	.loc 1 1778 0 is_stmt 0 discriminator 1
	movl	-124(%rbp), %eax	# unsignedp0, unsignedp0.195
	testl	%eax, %eax	# unsignedp0.195
	je	.L442	#,
	.loc 1 1780 0 is_stmt 1
	movq	-48(%rbp), %rax	# primop1, tmp329
	movq	40(%rax), %rax	# primop1_11->int_cst.int_cst.high, D.19743
	movq	%rax, %rdx	# D.19743, D.19744
	movq	-32(%rbp), %rax	# minval, tmp330
	movq	40(%rax), %rax	# minval_22->int_cst.int_cst.high, D.19743
	cmpq	%rax, %rdx	# D.19744, D.19744
	jb	.L443	#,
	.loc 1 1780 0 is_stmt 0 discriminator 2
	movq	-48(%rbp), %rax	# primop1, tmp331
	movq	40(%rax), %rdx	# primop1_11->int_cst.int_cst.high, D.19743
	movq	-32(%rbp), %rax	# minval, tmp332
	movq	40(%rax), %rax	# minval_22->int_cst.int_cst.high, D.19743
	cmpq	%rax, %rdx	# D.19743, D.19743
	jne	.L444	#,
	.loc 1 1780 0 discriminator 3
	movq	-48(%rbp), %rax	# primop1, tmp333
	movq	32(%rax), %rdx	# primop1_11->int_cst.int_cst.low, D.19744
	movq	-32(%rbp), %rax	# minval, tmp334
	movq	32(%rax), %rax	# minval_22->int_cst.int_cst.low, D.19744
	cmpq	%rax, %rdx	# D.19744, D.19744
	jae	.L444	#,
.L443:
	.loc 1 1780 0 discriminator 1
	movl	$1, %eax	#, iftmp.196
	jmp	.L445	#
.L444:
	.loc 1 1780 0 discriminator 4
	movl	$0, %eax	#, iftmp.196
.L445:
	.loc 1 1780 0 discriminator 5
	movl	%eax, -104(%rbp)	# iftmp.196, min_gt
	.loc 1 1781 0 is_stmt 1 discriminator 5
	movq	-48(%rbp), %rax	# primop1, tmp335
	movq	40(%rax), %rax	# primop1_11->int_cst.int_cst.high, D.19743
	movq	%rax, %rdx	# D.19743, D.19744
	movq	-40(%rbp), %rax	# maxval, tmp336
	movq	40(%rax), %rax	# maxval_21->int_cst.int_cst.high, D.19743
	cmpq	%rax, %rdx	# D.19744, D.19744
	jb	.L446	#,
	.loc 1 1781 0 is_stmt 0 discriminator 2
	movq	-48(%rbp), %rax	# primop1, tmp337
	movq	40(%rax), %rdx	# primop1_11->int_cst.int_cst.high, D.19743
	movq	-40(%rbp), %rax	# maxval, tmp338
	movq	40(%rax), %rax	# maxval_21->int_cst.int_cst.high, D.19743
	cmpq	%rax, %rdx	# D.19743, D.19743
	jne	.L447	#,
	.loc 1 1781 0 discriminator 3
	movq	-48(%rbp), %rax	# primop1, tmp339
	movq	32(%rax), %rdx	# primop1_11->int_cst.int_cst.low, D.19744
	movq	-40(%rbp), %rax	# maxval, tmp340
	movq	32(%rax), %rax	# maxval_21->int_cst.int_cst.low, D.19744
	cmpq	%rax, %rdx	# D.19744, D.19744
	jae	.L447	#,
.L446:
	.loc 1 1781 0 discriminator 1
	movl	$1, %eax	#, iftmp.197
	jmp	.L448	#
.L447:
	.loc 1 1781 0 discriminator 4
	movl	$0, %eax	#, iftmp.197
.L448:
	.loc 1 1781 0 discriminator 5
	movl	%eax, -100(%rbp)	# iftmp.197, max_gt
	.loc 1 1782 0 is_stmt 1 discriminator 5
	movq	-32(%rbp), %rax	# minval, tmp341
	movq	40(%rax), %rax	# minval_22->int_cst.int_cst.high, D.19743
	movq	%rax, %rdx	# D.19743, D.19744
	movq	-48(%rbp), %rax	# primop1, tmp342
	movq	40(%rax), %rax	# primop1_11->int_cst.int_cst.high, D.19743
	cmpq	%rax, %rdx	# D.19744, D.19744
	jb	.L449	#,
	.loc 1 1782 0 is_stmt 0 discriminator 2
	movq	-32(%rbp), %rax	# minval, tmp343
	movq	40(%rax), %rdx	# minval_22->int_cst.int_cst.high, D.19743
	movq	-48(%rbp), %rax	# primop1, tmp344
	movq	40(%rax), %rax	# primop1_11->int_cst.int_cst.high, D.19743
	cmpq	%rax, %rdx	# D.19743, D.19743
	jne	.L450	#,
	.loc 1 1782 0 discriminator 3
	movq	-32(%rbp), %rax	# minval, tmp345
	movq	32(%rax), %rdx	# minval_22->int_cst.int_cst.low, D.19744
	movq	-48(%rbp), %rax	# primop1, tmp346
	movq	32(%rax), %rax	# primop1_11->int_cst.int_cst.low, D.19744
	cmpq	%rax, %rdx	# D.19744, D.19744
	jae	.L450	#,
.L449:
	.loc 1 1782 0 discriminator 1
	movl	$1, %eax	#, iftmp.198
	jmp	.L451	#
.L450:
	.loc 1 1782 0 discriminator 4
	movl	$0, %eax	#, iftmp.198
.L451:
	.loc 1 1782 0 discriminator 5
	movl	%eax, -96(%rbp)	# iftmp.198, min_lt
	.loc 1 1783 0 is_stmt 1 discriminator 5
	movq	-40(%rbp), %rax	# maxval, tmp347
	movq	40(%rax), %rax	# maxval_21->int_cst.int_cst.high, D.19743
	movq	%rax, %rdx	# D.19743, D.19744
	movq	-48(%rbp), %rax	# primop1, tmp348
	movq	40(%rax), %rax	# primop1_11->int_cst.int_cst.high, D.19743
	cmpq	%rax, %rdx	# D.19744, D.19744
	jb	.L452	#,
	.loc 1 1783 0 is_stmt 0 discriminator 2
	movq	-40(%rbp), %rax	# maxval, tmp349
	movq	40(%rax), %rdx	# maxval_21->int_cst.int_cst.high, D.19743
	movq	-48(%rbp), %rax	# primop1, tmp350
	movq	40(%rax), %rax	# primop1_11->int_cst.int_cst.high, D.19743
	cmpq	%rax, %rdx	# D.19743, D.19743
	jne	.L453	#,
	.loc 1 1783 0 discriminator 3
	movq	-40(%rbp), %rax	# maxval, tmp351
	movq	32(%rax), %rdx	# maxval_21->int_cst.int_cst.low, D.19744
	movq	-48(%rbp), %rax	# primop1, tmp352
	movq	32(%rax), %rax	# primop1_11->int_cst.int_cst.low, D.19744
	cmpq	%rax, %rdx	# D.19744, D.19744
	jae	.L453	#,
.L452:
	.loc 1 1783 0 discriminator 1
	movl	$1, %eax	#, iftmp.199
	jmp	.L454	#
.L453:
	.loc 1 1783 0 discriminator 4
	movl	$0, %eax	#, iftmp.199
.L454:
	.loc 1 1783 0 discriminator 5
	movl	%eax, -92(%rbp)	# iftmp.199, max_lt
	jmp	.L455	#
.L442:
	.loc 1 1787 0 is_stmt 1
	movq	-48(%rbp), %rax	# primop1, tmp353
	movq	40(%rax), %rdx	# primop1_11->int_cst.int_cst.high, D.19743
	movq	-32(%rbp), %rax	# minval, tmp354
	movq	40(%rax), %rax	# minval_22->int_cst.int_cst.high, D.19743
	cmpq	%rax, %rdx	# D.19743, D.19743
	jl	.L456	#,
	.loc 1 1787 0 is_stmt 0 discriminator 2
	movq	-48(%rbp), %rax	# primop1, tmp355
	movq	40(%rax), %rdx	# primop1_11->int_cst.int_cst.high, D.19743
	movq	-32(%rbp), %rax	# minval, tmp356
	movq	40(%rax), %rax	# minval_22->int_cst.int_cst.high, D.19743
	cmpq	%rax, %rdx	# D.19743, D.19743
	jne	.L457	#,
	.loc 1 1787 0 discriminator 3
	movq	-48(%rbp), %rax	# primop1, tmp357
	movq	32(%rax), %rdx	# primop1_11->int_cst.int_cst.low, D.19744
	movq	-32(%rbp), %rax	# minval, tmp358
	movq	32(%rax), %rax	# minval_22->int_cst.int_cst.low, D.19744
	cmpq	%rax, %rdx	# D.19744, D.19744
	jae	.L457	#,
.L456:
	.loc 1 1787 0 discriminator 1
	movl	$1, %eax	#, iftmp.200
	jmp	.L458	#
.L457:
	.loc 1 1787 0 discriminator 4
	movl	$0, %eax	#, iftmp.200
.L458:
	.loc 1 1787 0 discriminator 5
	movl	%eax, -104(%rbp)	# iftmp.200, min_gt
	.loc 1 1788 0 is_stmt 1 discriminator 5
	movq	-48(%rbp), %rax	# primop1, tmp359
	movq	40(%rax), %rdx	# primop1_11->int_cst.int_cst.high, D.19743
	movq	-40(%rbp), %rax	# maxval, tmp360
	movq	40(%rax), %rax	# maxval_21->int_cst.int_cst.high, D.19743
	cmpq	%rax, %rdx	# D.19743, D.19743
	jl	.L459	#,
	.loc 1 1788 0 is_stmt 0 discriminator 2
	movq	-48(%rbp), %rax	# primop1, tmp361
	movq	40(%rax), %rdx	# primop1_11->int_cst.int_cst.high, D.19743
	movq	-40(%rbp), %rax	# maxval, tmp362
	movq	40(%rax), %rax	# maxval_21->int_cst.int_cst.high, D.19743
	cmpq	%rax, %rdx	# D.19743, D.19743
	jne	.L460	#,
	.loc 1 1788 0 discriminator 3
	movq	-48(%rbp), %rax	# primop1, tmp363
	movq	32(%rax), %rdx	# primop1_11->int_cst.int_cst.low, D.19744
	movq	-40(%rbp), %rax	# maxval, tmp364
	movq	32(%rax), %rax	# maxval_21->int_cst.int_cst.low, D.19744
	cmpq	%rax, %rdx	# D.19744, D.19744
	jae	.L460	#,
.L459:
	.loc 1 1788 0 discriminator 1
	movl	$1, %eax	#, iftmp.201
	jmp	.L461	#
.L460:
	.loc 1 1788 0 discriminator 4
	movl	$0, %eax	#, iftmp.201
.L461:
	.loc 1 1788 0 discriminator 5
	movl	%eax, -100(%rbp)	# iftmp.201, max_gt
	.loc 1 1789 0 is_stmt 1 discriminator 5
	movq	-32(%rbp), %rax	# minval, tmp365
	movq	40(%rax), %rdx	# minval_22->int_cst.int_cst.high, D.19743
	movq	-48(%rbp), %rax	# primop1, tmp366
	movq	40(%rax), %rax	# primop1_11->int_cst.int_cst.high, D.19743
	cmpq	%rax, %rdx	# D.19743, D.19743
	jl	.L462	#,
	.loc 1 1789 0 is_stmt 0 discriminator 2
	movq	-32(%rbp), %rax	# minval, tmp367
	movq	40(%rax), %rdx	# minval_22->int_cst.int_cst.high, D.19743
	movq	-48(%rbp), %rax	# primop1, tmp368
	movq	40(%rax), %rax	# primop1_11->int_cst.int_cst.high, D.19743
	cmpq	%rax, %rdx	# D.19743, D.19743
	jne	.L463	#,
	.loc 1 1789 0 discriminator 3
	movq	-32(%rbp), %rax	# minval, tmp369
	movq	32(%rax), %rdx	# minval_22->int_cst.int_cst.low, D.19744
	movq	-48(%rbp), %rax	# primop1, tmp370
	movq	32(%rax), %rax	# primop1_11->int_cst.int_cst.low, D.19744
	cmpq	%rax, %rdx	# D.19744, D.19744
	jae	.L463	#,
.L462:
	.loc 1 1789 0 discriminator 1
	movl	$1, %eax	#, iftmp.202
	jmp	.L464	#
.L463:
	.loc 1 1789 0 discriminator 4
	movl	$0, %eax	#, iftmp.202
.L464:
	.loc 1 1789 0 discriminator 5
	movl	%eax, -96(%rbp)	# iftmp.202, min_lt
	.loc 1 1790 0 is_stmt 1 discriminator 5
	movq	-40(%rbp), %rax	# maxval, tmp371
	movq	40(%rax), %rdx	# maxval_21->int_cst.int_cst.high, D.19743
	movq	-48(%rbp), %rax	# primop1, tmp372
	movq	40(%rax), %rax	# primop1_11->int_cst.int_cst.high, D.19743
	cmpq	%rax, %rdx	# D.19743, D.19743
	jl	.L465	#,
	.loc 1 1790 0 is_stmt 0 discriminator 2
	movq	-40(%rbp), %rax	# maxval, tmp373
	movq	40(%rax), %rdx	# maxval_21->int_cst.int_cst.high, D.19743
	movq	-48(%rbp), %rax	# primop1, tmp374
	movq	40(%rax), %rax	# primop1_11->int_cst.int_cst.high, D.19743
	cmpq	%rax, %rdx	# D.19743, D.19743
	jne	.L466	#,
	.loc 1 1790 0 discriminator 3
	movq	-40(%rbp), %rax	# maxval, tmp375
	movq	32(%rax), %rdx	# maxval_21->int_cst.int_cst.low, D.19744
	movq	-48(%rbp), %rax	# primop1, tmp376
	movq	32(%rax), %rax	# primop1_11->int_cst.int_cst.low, D.19744
	cmpq	%rax, %rdx	# D.19744, D.19744
	jae	.L466	#,
.L465:
	.loc 1 1790 0 discriminator 1
	movl	$1, %eax	#, iftmp.203
	jmp	.L467	#
.L466:
	.loc 1 1790 0 discriminator 4
	movl	$0, %eax	#, iftmp.203
.L467:
	.loc 1 1790 0 discriminator 5
	movl	%eax, -92(%rbp)	# iftmp.203, max_lt
.L455:
	.loc 1 1793 0 is_stmt 1
	movq	$0, -24(%rbp)	#, val
	.loc 1 1795 0
	cmpl	$102, -108(%rbp)	#, code
	jne	.L468	#,
	.loc 1 1797 0
	cmpl	$0, -92(%rbp)	#, max_lt
	jne	.L469	#,
	.loc 1 1797 0 is_stmt 0 discriminator 1
	cmpl	$0, -104(%rbp)	#, min_gt
	je	.L471	#,
.L469:
	.loc 1 1798 0 is_stmt 1
	movq	c_global_trees+136(%rip), %rax	# c_global_trees, tmp377
	movq	%rax, -24(%rbp)	# tmp377, val
	jmp	.L471	#
.L468:
	.loc 1 1800 0
	cmpl	$101, -108(%rbp)	#, code
	jne	.L472	#,
	.loc 1 1802 0
	cmpl	$0, -92(%rbp)	#, max_lt
	jne	.L473	#,
	.loc 1 1802 0 is_stmt 0 discriminator 1
	cmpl	$0, -104(%rbp)	#, min_gt
	je	.L471	#,
.L473:
	.loc 1 1803 0 is_stmt 1
	movq	c_global_trees+144(%rip), %rax	# c_global_trees, tmp378
	movq	%rax, -24(%rbp)	# tmp378, val
	jmp	.L471	#
.L472:
	.loc 1 1805 0
	cmpl	$97, -108(%rbp)	#, code
	jne	.L475	#,
	.loc 1 1807 0
	cmpl	$0, -92(%rbp)	#, max_lt
	je	.L476	#,
	.loc 1 1808 0
	movq	c_global_trees+136(%rip), %rax	# c_global_trees, tmp379
	movq	%rax, -24(%rbp)	# tmp379, val
.L476:
	.loc 1 1809 0
	cmpl	$0, -96(%rbp)	#, min_lt
	jne	.L471	#,
	.loc 1 1810 0
	movq	c_global_trees+144(%rip), %rax	# c_global_trees, tmp380
	movq	%rax, -24(%rbp)	# tmp380, val
	jmp	.L471	#
.L475:
	.loc 1 1812 0
	cmpl	$99, -108(%rbp)	#, code
	jne	.L478	#,
	.loc 1 1814 0
	cmpl	$0, -104(%rbp)	#, min_gt
	je	.L479	#,
	.loc 1 1815 0
	movq	c_global_trees+136(%rip), %rax	# c_global_trees, tmp381
	movq	%rax, -24(%rbp)	# tmp381, val
.L479:
	.loc 1 1816 0
	cmpl	$0, -100(%rbp)	#, max_gt
	jne	.L471	#,
	.loc 1 1817 0
	movq	c_global_trees+144(%rip), %rax	# c_global_trees, tmp382
	movq	%rax, -24(%rbp)	# tmp382, val
	jmp	.L471	#
.L478:
	.loc 1 1819 0
	cmpl	$98, -108(%rbp)	#, code
	jne	.L481	#,
	.loc 1 1821 0
	cmpl	$0, -100(%rbp)	#, max_gt
	jne	.L482	#,
	.loc 1 1822 0
	movq	c_global_trees+136(%rip), %rax	# c_global_trees, tmp383
	movq	%rax, -24(%rbp)	# tmp383, val
.L482:
	.loc 1 1823 0
	cmpl	$0, -104(%rbp)	#, min_gt
	je	.L471	#,
	.loc 1 1824 0
	movq	c_global_trees+144(%rip), %rax	# c_global_trees, tmp384
	movq	%rax, -24(%rbp)	# tmp384, val
	jmp	.L471	#
.L481:
	.loc 1 1826 0
	cmpl	$100, -108(%rbp)	#, code
	jne	.L471	#,
	.loc 1 1828 0
	cmpl	$0, -96(%rbp)	#, min_lt
	jne	.L484	#,
	.loc 1 1829 0
	movq	c_global_trees+136(%rip), %rax	# c_global_trees, tmp385
	movq	%rax, -24(%rbp)	# tmp385, val
.L484:
	.loc 1 1830 0
	cmpl	$0, -92(%rbp)	#, max_lt
	je	.L471	#,
	.loc 1 1831 0
	movq	c_global_trees+144(%rip), %rax	# c_global_trees, tmp386
	movq	%rax, -24(%rbp)	# tmp386, val
.L471:
	.loc 1 1845 0
	cmpl	$0, -84(%rbp)	#, unsignedp
	je	.L485	#,
	.loc 1 1845 0 is_stmt 0 discriminator 1
	movl	-124(%rbp), %eax	# unsignedp0, unsignedp0.204
	testl	%eax, %eax	# unsignedp0.204
	jne	.L485	#,
	.loc 1 1847 0 is_stmt 1
	cmpq	$0, -24(%rbp)	#, val
	je	.L486	#,
	.loc 1 1848 0
	movl	-108(%rbp), %eax	# code, code
	cmpl	$99, %eax	#, code
	ja	.L488	#,
	cmpl	$98, %eax	#, code
	jae	.L489	#,
	cmpl	$97, %eax	#, code
	je	.L490	#,
	.loc 1 1863 0
	jmp	.L486	#
.L488:
	.loc 1 1848 0
	cmpl	$100, %eax	#, code
	je	.L490	#,
	.loc 1 1863 0
	jmp	.L486	#
.L490:
	.loc 1 1852 0
	movq	-80(%rbp), %rax	# type, tmp388
	movq	104(%rax), %rax	# type_1->type.minval, tmp389
	movq	%rax, -48(%rbp)	# tmp389, primop1
	.loc 1 1853 0
	movq	$0, -24(%rbp)	#, val
	.loc 1 1854 0
	jmp	.L486	#
.L489:
	.loc 1 1858 0
	movq	-80(%rbp), %rax	# type, tmp390
	movq	112(%rax), %rax	# type_1->type.maxval, tmp391
	movq	%rax, -48(%rbp)	# tmp391, primop1
	.loc 1 1859 0
	movq	$0, -24(%rbp)	#, val
	.loc 1 1860 0
	nop
.L486:
	.loc 1 1865 0
	movq	-80(%rbp), %rax	# type, tmp392
	movq	%rax, %rdi	# tmp392,
	call	unsigned_type	#
	movq	%rax, -80(%rbp)	# tmp393, type
.L485:
	.loc 1 1868 0
	cmpl	$0, -100(%rbp)	#, max_gt
	jne	.L491	#,
	.loc 1 1868 0 is_stmt 0 discriminator 1
	movl	-124(%rbp), %eax	# unsignedp0, unsignedp0.205
	testl	%eax, %eax	# unsignedp0.205
	jne	.L491	#,
	movq	-56(%rbp), %rax	# primop0, tmp394
	movzbl	16(%rax), %eax	# primop0_8->common.code, D.19738
	cmpb	$25, %al	#, D.19738
	je	.L491	#,
	.loc 1 1872 0 is_stmt 1
	movq	c_global_trees+144(%rip), %rax	# c_global_trees, D.19736
	cmpq	-24(%rbp), %rax	# val, D.19736
	jne	.L492	#,
	.loc 1 1873 0
	movl	$.LC40, %edi	#,
	movl	$0, %eax	#,
	call	warning	#
.L492:
	.loc 1 1874 0
	movq	c_global_trees+136(%rip), %rax	# c_global_trees, D.19736
	cmpq	-24(%rbp), %rax	# val, D.19736
	jne	.L491	#,
	.loc 1 1875 0
	movl	$.LC41, %edi	#,
	movl	$0, %eax	#,
	call	warning	#
.L491:
	.loc 1 1878 0
	cmpl	$0, -96(%rbp)	#, min_lt
	jne	.L493	#,
	.loc 1 1878 0 is_stmt 0 discriminator 1
	movl	-124(%rbp), %eax	# unsignedp0, unsignedp0.206
	testl	%eax, %eax	# unsignedp0.206
	je	.L493	#,
	movq	-56(%rbp), %rax	# primop0, tmp395
	movzbl	16(%rax), %eax	# primop0_8->common.code, D.19738
	cmpb	$25, %al	#, D.19738
	je	.L493	#,
	.loc 1 1881 0 is_stmt 1
	movq	c_global_trees+144(%rip), %rax	# c_global_trees, D.19736
	cmpq	-24(%rbp), %rax	# val, D.19736
	jne	.L494	#,
	.loc 1 1882 0
	movl	$.LC40, %edi	#,
	movl	$0, %eax	#,
	call	warning	#
.L494:
	.loc 1 1883 0
	movq	c_global_trees+136(%rip), %rax	# c_global_trees, D.19736
	cmpq	-24(%rbp), %rax	# val, D.19736
	jne	.L493	#,
	.loc 1 1884 0
	movl	$.LC41, %edi	#,
	movl	$0, %eax	#,
	call	warning	#
.L493:
	.loc 1 1887 0
	cmpq	$0, -24(%rbp)	#, val
	je	.L495	#,
	.loc 1 1890 0
	movq	-56(%rbp), %rax	# primop0, tmp396
	movzbl	17(%rax), %eax	# *primop0_8, D.19738
	andl	$1, %eax	#, D.19738
	testb	%al, %al	# D.19738
	je	.L496	#,
	.loc 1 1891 0
	movq	-24(%rbp), %rax	# val, tmp397
	movq	8(%rax), %rax	# val_34->common.type, D.19736
	movq	-24(%rbp), %rcx	# val, tmp398
	movq	-56(%rbp), %rdx	# primop0, tmp399
	movq	%rax, %rsi	# D.19736,
	movl	$47, %edi	#,
	movl	$0, %eax	#,
	call	build	#
	jmp	.L513	#
.L496:
	.loc 1 1892 0
	movq	-24(%rbp), %rax	# val, D.19735
	jmp	.L513	#
.L495:
.LBE28:
	.loc 1 1749 0
	jmp	.L498	#
.L437:
	.loc 1 1899 0
	cmpl	$0, -116(%rbp)	#, real1
	je	.L499	#,
	.loc 1 1899 0 is_stmt 0 discriminator 1
	cmpl	$0, -112(%rbp)	#, real2
	je	.L499	#,
	.loc 1 1900 0 is_stmt 1
	movq	-56(%rbp), %rax	# primop0, tmp400
	movq	8(%rax), %rax	# primop0_8->common.type, D.19736
	movzwl	60(%rax), %eax	# *_235, tmp403
	andw	$511, %ax	#, D.19741
	movl	%eax, %edx	# D.19741, D.19741
	.loc 1 1901 0
	movq	-48(%rbp), %rax	# primop1, tmp404
	movq	8(%rax), %rax	# primop1_10->common.type, D.19736
	movzwl	60(%rax), %eax	# *_237, tmp407
	andw	$511, %ax	#, D.19741
	.loc 1 1900 0
	cmpw	%ax, %dx	# D.19741, D.19741
	jne	.L499	#,
	.loc 1 1902 0
	movq	-56(%rbp), %rax	# primop0, tmp408
	movq	8(%rax), %rax	# primop0_8->common.type, tmp409
	movq	%rax, -80(%rbp)	# tmp409, type
	jmp	.L498	#
.L499:
	.loc 1 1912 0
	movl	-124(%rbp), %edx	# unsignedp0, unsignedp0.207
	movl	-120(%rbp), %eax	# unsignedp1, unsignedp1.208
	cmpl	%eax, %edx	# unsignedp1.208, unsignedp0.207
	jne	.L500	#,
	.loc 1 1912 0 is_stmt 0 discriminator 1
	movl	-116(%rbp), %eax	# real1, tmp410
	cmpl	-112(%rbp), %eax	# real2, tmp410
	jne	.L500	#,
	.loc 1 1913 0 is_stmt 1
	movq	-56(%rbp), %rax	# primop0, tmp411
	movq	8(%rax), %rax	# primop0_8->common.type, D.19736
	movzwl	60(%rax), %eax	# *_242, tmp414
	andw	$511, %ax	#, D.19741
	movzwl	%ax, %edx	# D.19741, D.19740
	movq	-152(%rbp), %rax	# restype_ptr, tmp415
	movq	(%rax), %rax	# *restype_ptr_55(D), D.19736
	movzwl	60(%rax), %eax	# *_245, tmp418
	andw	$511, %ax	#, D.19741
	movzwl	%ax, %eax	# D.19741, D.19740
	cmpl	%eax, %edx	# D.19740, D.19740
	jge	.L500	#,
	.loc 1 1914 0
	movq	-48(%rbp), %rax	# primop1, tmp419
	movq	8(%rax), %rax	# primop1_10->common.type, D.19736
	movzwl	60(%rax), %eax	# *_248, tmp422
	andw	$511, %ax	#, D.19741
	movzwl	%ax, %edx	# D.19741, D.19740
	movq	-152(%rbp), %rax	# restype_ptr, tmp423
	movq	(%rax), %rax	# *restype_ptr_55(D), D.19736
	movzwl	60(%rax), %eax	# *_251, tmp426
	andw	$511, %ax	#, D.19741
	movzwl	%ax, %eax	# D.19741, D.19740
	cmpl	%eax, %edx	# D.19740, D.19740
	jge	.L500	#,
	.loc 1 1916 0
	movq	-48(%rbp), %rax	# primop1, tmp427
	movq	8(%rax), %rdx	# primop1_10->common.type, D.19736
	movq	-56(%rbp), %rax	# primop0, tmp428
	movq	8(%rax), %rax	# primop0_8->common.type, D.19736
	movq	%rdx, %rsi	# D.19736,
	movq	%rax, %rdi	# D.19736,
	call	common_type	#
	movq	%rax, -80(%rbp)	# tmp429, type
	.loc 1 1917 0
	movl	-124(%rbp), %eax	# unsignedp0, unsignedp0.210
	testl	%eax, %eax	# unsignedp0.210
	jne	.L501	#,
	.loc 1 1918 0 discriminator 2
	movq	-152(%rbp), %rax	# restype_ptr, tmp430
	movq	(%rax), %rax	# *restype_ptr_55(D), D.19736
	movzbl	17(%rax), %eax	# *_258, D.19738
	andl	$32, %eax	#, D.19738
	.loc 1 1917 0 discriminator 2
	testb	%al, %al	# D.19738
	je	.L502	#,
.L501:
	.loc 1 1917 0 is_stmt 0 discriminator 1
	movl	$1, %eax	#, iftmp.209
	jmp	.L503	#
.L502:
	.loc 1 1917 0 discriminator 3
	movl	$0, %eax	#, iftmp.209
.L503:
	.loc 1 1917 0 discriminator 4
	movq	-80(%rbp), %rdx	# type, tmp431
	movq	%rdx, %rsi	# tmp431,
	movl	%eax, %edi	# iftmp.209,
	call	signed_or_unsigned_type	#
	movq	%rax, -80(%rbp)	# tmp432, type
	.loc 1 1922 0 is_stmt 1 discriminator 4
	movq	-56(%rbp), %rax	# primop0, tmp433
	movq	8(%rax), %rdx	# primop0_8->common.type, D.19736
	movl	-124(%rbp), %eax	# unsignedp0, unsignedp0.211
	movq	%rdx, %rsi	# D.19736,
	movl	%eax, %edi	# unsignedp0.211,
	call	signed_or_unsigned_type	#
	movq	-56(%rbp), %rdx	# primop0, tmp434
	movq	%rdx, %rsi	# tmp434,
	movq	%rax, %rdi	# D.19736,
	call	convert	#
	movq	%rax, -56(%rbp)	# tmp435, primop0
	.loc 1 1924 0 discriminator 4
	movq	-48(%rbp), %rax	# primop1, tmp436
	movq	8(%rax), %rdx	# primop1_10->common.type, D.19736
	movl	-120(%rbp), %eax	# unsignedp1, unsignedp1.212
	movq	%rdx, %rsi	# D.19736,
	movl	%eax, %edi	# unsignedp1.212,
	call	signed_or_unsigned_type	#
	movq	-48(%rbp), %rdx	# primop1, tmp437
	movq	%rdx, %rsi	# tmp437,
	movq	%rax, %rdi	# D.19736,
	call	convert	#
	movq	%rax, -48(%rbp)	# tmp438, primop1
	jmp	.L498	#
.L500:
	.loc 1 1931 0
	movq	-152(%rbp), %rax	# restype_ptr, tmp439
	movq	(%rax), %rax	# *restype_ptr_55(D), tmp440
	movq	%rax, -80(%rbp)	# tmp440, type
	.loc 1 1932 0
	movq	-72(%rbp), %rax	# op0, tmp441
	movq	%rax, -56(%rbp)	# tmp441, primop0
	.loc 1 1933 0
	movq	-64(%rbp), %rax	# op1, tmp442
	movq	%rax, -48(%rbp)	# tmp442, primop1
	.loc 1 1935 0
	cmpl	$0, -116(%rbp)	#, real1
	jne	.L498	#,
	.loc 1 1935 0 is_stmt 0 discriminator 1
	cmpl	$0, -112(%rbp)	#, real2
	jne	.L498	#,
	movq	-48(%rbp), %rax	# primop1, tmp443
	movq	%rax, %rdi	# tmp443,
	call	integer_zerop	#
	testl	%eax, %eax	# D.19740
	je	.L498	#,
	.loc 1 1936 0 is_stmt 1
	movq	-152(%rbp), %rax	# restype_ptr, tmp444
	movq	(%rax), %rax	# *restype_ptr_55(D), D.19736
	movzbl	17(%rax), %eax	# *_276, D.19738
	andl	$32, %eax	#, D.19738
	testb	%al, %al	# D.19738
	je	.L498	#,
.LBB29:
	.loc 1 1938 0
	movq	$0, -16(%rbp)	#, value
	.loc 1 1939 0
	movl	-108(%rbp), %eax	# code, code
	cmpl	$97, %eax	#, code
	je	.L505	#,
	cmpl	$100, %eax	#, code
	je	.L506	#,
	.loc 1 1964 0
	jmp	.L509	#
.L506:
	.loc 1 1946 0
	movl	extra_warnings(%rip), %eax	# extra_warnings, extra_warnings.213
	testl	%eax, %eax	# extra_warnings.213
	je	.L507	#,
	.loc 1 1946 0 is_stmt 0 discriminator 1
	movl	in_system_header(%rip), %eax	# in_system_header, in_system_header.214
	testl	%eax, %eax	# in_system_header.214
	jne	.L507	#,
	.loc 1 1947 0 is_stmt 1
	movq	-56(%rbp), %rax	# primop0, tmp446
	movzbl	16(%rax), %eax	# primop0_273->common.code, D.19738
	cmpb	$25, %al	#, D.19738
	jne	.L508	#,
	.loc 1 1948 0 discriminator 1
	movq	-80(%rbp), %rax	# type, tmp447
	movq	%rax, %rdi	# tmp447,
	call	signed_type	#
	movq	-56(%rbp), %rdx	# primop0, tmp448
	movq	%rdx, %rsi	# tmp448,
	movq	%rax, %rdi	# D.19736,
	call	convert	#
	movzbl	18(%rax), %eax	# *_284, D.19738
	andl	$8, %eax	#, D.19738
	.loc 1 1947 0 discriminator 1
	testb	%al, %al	# D.19738
	je	.L507	#,
.L508:
	.loc 1 1950 0
	movl	$.LC42, %edi	#,
	movl	$0, %eax	#,
	call	warning	#
.L507:
	.loc 1 1951 0
	movq	c_global_trees+136(%rip), %rax	# c_global_trees, tmp449
	movq	%rax, -16(%rbp)	# tmp449, value
	.loc 1 1952 0
	jmp	.L509	#
.L505:
	.loc 1 1955 0
	movl	extra_warnings(%rip), %eax	# extra_warnings, extra_warnings.215
	testl	%eax, %eax	# extra_warnings.215
	je	.L510	#,
	.loc 1 1955 0 is_stmt 0 discriminator 1
	movl	in_system_header(%rip), %eax	# in_system_header, in_system_header.216
	testl	%eax, %eax	# in_system_header.216
	jne	.L510	#,
	.loc 1 1956 0 is_stmt 1
	movq	-56(%rbp), %rax	# primop0, tmp450
	movzbl	16(%rax), %eax	# primop0_273->common.code, D.19738
	cmpb	$25, %al	#, D.19738
	jne	.L511	#,
	.loc 1 1957 0 discriminator 1
	movq	-80(%rbp), %rax	# type, tmp451
	movq	%rax, %rdi	# tmp451,
	call	signed_type	#
	movq	-56(%rbp), %rdx	# primop0, tmp452
	movq	%rdx, %rsi	# tmp452,
	movq	%rax, %rdi	# D.19736,
	call	convert	#
	movzbl	18(%rax), %eax	# *_292, D.19738
	andl	$8, %eax	#, D.19738
	.loc 1 1956 0 discriminator 1
	testb	%al, %al	# D.19738
	je	.L510	#,
.L511:
	.loc 1 1959 0
	movl	$.LC43, %edi	#,
	movl	$0, %eax	#,
	call	warning	#
.L510:
	.loc 1 1960 0
	movq	c_global_trees+144(%rip), %rax	# c_global_trees, tmp453
	movq	%rax, -16(%rbp)	# tmp453, value
	.loc 1 1961 0
	nop
.L509:
	.loc 1 1967 0
	cmpq	$0, -16(%rbp)	#, value
	je	.L498	#,
	.loc 1 1970 0
	movq	-56(%rbp), %rax	# primop0, tmp454
	movzbl	17(%rax), %eax	# *primop0_273, D.19738
	andl	$1, %eax	#, D.19738
	testb	%al, %al	# D.19738
	je	.L512	#,
	.loc 1 1971 0
	movq	-16(%rbp), %rax	# value, tmp455
	movq	8(%rax), %rax	# value_35->common.type, D.19736
	movq	-16(%rbp), %rcx	# value, tmp456
	movq	-56(%rbp), %rdx	# primop0, tmp457
	movq	%rax, %rsi	# D.19736,
	movl	$47, %edi	#,
	movl	$0, %eax	#,
	call	build	#
	jmp	.L513	#
.L512:
	.loc 1 1973 0
	movq	-16(%rbp), %rax	# value, D.19735
	jmp	.L513	#
.L498:
.LBE29:
	.loc 1 1978 0
	movq	-56(%rbp), %rdx	# primop0, tmp458
	movq	-80(%rbp), %rax	# type, tmp459
	movq	%rdx, %rsi	# tmp458,
	movq	%rax, %rdi	# tmp459,
	call	convert	#
	movq	-136(%rbp), %rdx	# op0_ptr, tmp460
	movq	%rax, (%rdx)	# D.19736, *op0_ptr_46(D)
	.loc 1 1979 0
	movq	-48(%rbp), %rdx	# primop1, tmp461
	movq	-80(%rbp), %rax	# type, tmp462
	movq	%rdx, %rsi	# tmp461,
	movq	%rax, %rdi	# tmp462,
	call	convert	#
	movq	-144(%rbp), %rdx	# op1_ptr, tmp463
	movq	%rax, (%rdx)	# D.19736, *op1_ptr_48(D)
	.loc 1 1981 0
	movq	c_global_trees+128(%rip), %rdx	# c_global_trees, D.19736
	movq	-152(%rbp), %rax	# restype_ptr, tmp464
	movq	%rdx, (%rax)	# D.19736, *restype_ptr_55(D)
	.loc 1 1983 0
	movl	$0, %eax	#, D.19735
.L513:
	.loc 1 1984 0
	leave
	.cfi_def_cfa 7, 8
	ret
	.cfi_endproc
.LFE38:
	.size	shorten_compare, .-shorten_compare
	.section	.rodata
	.align 8
.LC44:
	.string	"pointer of type `void *' used in arithmetic"
	.align 8
.LC45:
	.string	"pointer to a function used in arithmetic"
	.align 8
.LC46:
	.string	"pointer to member function used in arithmetic"
	.align 8
.LC47:
	.string	"pointer to a member used in arithmetic"
	.text
	.globl	pointer_int_sum
	.type	pointer_int_sum, @function
pointer_int_sum:
.LFB39:
	.loc 1 1993 0
	.cfi_startproc
	pushq	%rbp	#
	.cfi_def_cfa_offset 16
	.cfi_offset 6, -16
	movq	%rsp, %rbp	#,
	.cfi_def_cfa_register 6
	subq	$80, %rsp	#,
	movl	%edi, -52(%rbp)	# resultcode, resultcode
	movq	%rsi, -64(%rbp)	# ptrop, ptrop
	movq	%rdx, -72(%rbp)	# intop, intop
	.loc 1 2001 0
	movq	-64(%rbp), %rax	# ptrop, tmp126
	movq	8(%rax), %rax	# ptrop_7(D)->common.type, tmp127
	movq	%rax, -32(%rbp)	# tmp127, result_type
	.loc 1 2003 0
	movq	-32(%rbp), %rax	# result_type, tmp128
	movq	8(%rax), %rax	# result_type_8->common.type, D.19751
	movzbl	16(%rax), %eax	# _9->common.code, D.19752
	cmpb	$5, %al	#, D.19752
	jne	.L515	#,
	.loc 1 2005 0
	movl	pedantic(%rip), %eax	# pedantic, pedantic.217
	testl	%eax, %eax	# pedantic.217
	jne	.L516	#,
	.loc 1 2005 0 is_stmt 0 discriminator 1
	movl	warn_pointer_arith(%rip), %eax	# warn_pointer_arith, warn_pointer_arith.218
	testl	%eax, %eax	# warn_pointer_arith.218
	je	.L517	#,
.L516:
	.loc 1 2006 0 is_stmt 1
	movl	$.LC44, %edi	#,
	movl	$0, %eax	#,
	call	pedwarn	#
.L517:
	.loc 1 2007 0
	movq	global_trees+96(%rip), %rax	# global_trees, tmp129
	movq	%rax, -40(%rbp)	# tmp129, size_exp
	jmp	.L518	#
.L515:
	.loc 1 2009 0
	movq	-32(%rbp), %rax	# result_type, tmp130
	movq	8(%rax), %rax	# result_type_8->common.type, D.19751
	movzbl	16(%rax), %eax	# _14->common.code, D.19752
	cmpb	$23, %al	#, D.19752
	jne	.L519	#,
	.loc 1 2011 0
	movl	pedantic(%rip), %eax	# pedantic, pedantic.219
	testl	%eax, %eax	# pedantic.219
	jne	.L520	#,
	.loc 1 2011 0 is_stmt 0 discriminator 1
	movl	warn_pointer_arith(%rip), %eax	# warn_pointer_arith, warn_pointer_arith.220
	testl	%eax, %eax	# warn_pointer_arith.220
	je	.L521	#,
.L520:
	.loc 1 2012 0 is_stmt 1
	movl	$.LC45, %edi	#,
	movl	$0, %eax	#,
	call	pedwarn	#
.L521:
	.loc 1 2013 0
	movq	global_trees+96(%rip), %rax	# global_trees, tmp131
	movq	%rax, -40(%rbp)	# tmp131, size_exp
	jmp	.L518	#
.L519:
	.loc 1 2015 0
	movq	-32(%rbp), %rax	# result_type, tmp132
	movq	8(%rax), %rax	# result_type_8->common.type, D.19751
	movzbl	16(%rax), %eax	# _19->common.code, D.19752
	cmpb	$16, %al	#, D.19752
	jne	.L522	#,
	.loc 1 2017 0
	movl	pedantic(%rip), %eax	# pedantic, pedantic.221
	testl	%eax, %eax	# pedantic.221
	jne	.L523	#,
	.loc 1 2017 0 is_stmt 0 discriminator 1
	movl	warn_pointer_arith(%rip), %eax	# warn_pointer_arith, warn_pointer_arith.222
	testl	%eax, %eax	# warn_pointer_arith.222
	je	.L524	#,
.L523:
	.loc 1 2018 0 is_stmt 1
	movl	$.LC46, %edi	#,
	movl	$0, %eax	#,
	call	pedwarn	#
.L524:
	.loc 1 2019 0
	movq	global_trees+96(%rip), %rax	# global_trees, tmp133
	movq	%rax, -40(%rbp)	# tmp133, size_exp
	jmp	.L518	#
.L522:
	.loc 1 2021 0
	movq	-32(%rbp), %rax	# result_type, tmp134
	movq	8(%rax), %rax	# result_type_8->common.type, D.19751
	movzbl	16(%rax), %eax	# _24->common.code, D.19752
	cmpb	$14, %al	#, D.19752
	jne	.L525	#,
	.loc 1 2023 0
	movl	pedantic(%rip), %eax	# pedantic, pedantic.223
	testl	%eax, %eax	# pedantic.223
	jne	.L526	#,
	.loc 1 2023 0 is_stmt 0 discriminator 1
	movl	warn_pointer_arith(%rip), %eax	# warn_pointer_arith, warn_pointer_arith.224
	testl	%eax, %eax	# warn_pointer_arith.224
	je	.L527	#,
.L526:
	.loc 1 2024 0 is_stmt 1
	movl	$.LC47, %edi	#,
	movl	$0, %eax	#,
	call	pedwarn	#
.L527:
	.loc 1 2025 0
	movq	global_trees+96(%rip), %rax	# global_trees, tmp135
	movq	%rax, -40(%rbp)	# tmp135, size_exp
	jmp	.L518	#
.L525:
	.loc 1 2028 0
	movq	-32(%rbp), %rax	# result_type, tmp136
	movq	8(%rax), %rax	# result_type_8->common.type, D.19751
	movq	%rax, %rdi	# D.19751,
	call	size_in_bytes	#
	movq	%rax, -40(%rbp)	# tmp137, size_exp
.L518:
	.loc 1 2035 0
	movq	-72(%rbp), %rax	# intop, tmp138
	movzbl	16(%rax), %eax	# intop_31(D)->common.code, D.19752
	cmpb	$59, %al	#, D.19752
	je	.L528	#,
	.loc 1 2035 0 is_stmt 0 discriminator 1
	movq	-72(%rbp), %rax	# intop, tmp139
	movzbl	16(%rax), %eax	# intop_31(D)->common.code, D.19752
	cmpb	$60, %al	#, D.19752
	jne	.L529	#,
.L528:
	.loc 1 2036 0 is_stmt 1
	movq	-72(%rbp), %rax	# intop, tmp140
	movzbl	17(%rax), %eax	# *intop_31(D), D.19752
	andl	$2, %eax	#, D.19752
	testb	%al, %al	# D.19752
	jne	.L529	#,
	.loc 1 2037 0
	movq	-72(%rbp), %rax	# intop, tmp141
	movq	40(%rax), %rax	# intop_31(D)->exp.operands, D.19751
	movzbl	17(%rax), %eax	# *_36, D.19752
	andl	$2, %eax	#, D.19752
	testb	%al, %al	# D.19752
	je	.L529	#,
	.loc 1 2038 0
	movq	-40(%rbp), %rax	# size_exp, tmp142
	movzbl	17(%rax), %eax	# *size_exp_4, D.19752
	andl	$2, %eax	#, D.19752
	testb	%al, %al	# D.19752
	je	.L529	#,
	.loc 1 2041 0
	movq	-72(%rbp), %rax	# intop, tmp143
	movq	32(%rax), %rax	# intop_31(D)->exp.operands, D.19751
	movq	8(%rax), %rax	# _41->common.type, D.19751
	movzbl	16(%rax), %eax	# _42->common.code, D.19752
	cmpb	$6, %al	#, D.19752
	jne	.L529	#,
	.loc 1 2045 0
	movq	-72(%rbp), %rax	# intop, tmp144
	movq	8(%rax), %rax	# intop_31(D)->common.type, D.19751
	movzbl	17(%rax), %eax	# *_44, D.19752
	andl	$32, %eax	#, D.19752
	testb	%al, %al	# D.19752
	je	.L530	#,
	.loc 1 2046 0
	movq	-72(%rbp), %rax	# intop, tmp145
	movq	8(%rax), %rax	# intop_31(D)->common.type, D.19751
	movzwl	60(%rax), %eax	# *_47, tmp148
	andw	$511, %ax	#, D.19753
	movl	%eax, %edx	# D.19753, D.19753
	.loc 1 2047 0
	movq	-64(%rbp), %rax	# ptrop, tmp149
	movq	8(%rax), %rax	# ptrop_7(D)->common.type, D.19751
	movzwl	60(%rax), %eax	# *_49, tmp152
	andw	$511, %ax	#, D.19753
	.loc 1 2046 0
	cmpw	%ax, %dx	# D.19753, D.19753
	jne	.L529	#,
.L530:
.LBB30:
	.loc 1 2049 0
	movl	-52(%rbp), %eax	# resultcode, tmp153
	movl	%eax, -44(%rbp)	# tmp153, subcode
	.loc 1 2050 0
	movq	-72(%rbp), %rax	# intop, tmp154
	movq	8(%rax), %rax	# intop_31(D)->common.type, tmp155
	movq	%rax, -24(%rbp)	# tmp155, int_type
	.loc 1 2051 0
	movq	-72(%rbp), %rax	# intop, tmp156
	movzbl	16(%rax), %eax	# intop_31(D)->common.code, D.19752
	cmpb	$60, %al	#, D.19752
	jne	.L531	#,
	.loc 1 2052 0
	cmpl	$59, -44(%rbp)	#, subcode
	jne	.L532	#,
	.loc 1 2052 0 is_stmt 0 discriminator 1
	movl	$60, %eax	#, iftmp.225
	jmp	.L533	#
.L532:
	.loc 1 2052 0 discriminator 2
	movl	$59, %eax	#, iftmp.225
.L533:
	.loc 1 2052 0 discriminator 3
	movl	%eax, -44(%rbp)	# iftmp.225, subcode
.L531:
	.loc 1 2056 0 is_stmt 1
	movq	-72(%rbp), %rax	# intop, tmp157
	movq	40(%rax), %rdx	# intop_31(D)->exp.operands, D.19751
	movq	-24(%rbp), %rax	# int_type, tmp158
	movq	%rdx, %rsi	# D.19751,
	movq	%rax, %rdi	# tmp158,
	call	convert	#
	movq	%rax, %rdx	#, D.19751
	movq	-64(%rbp), %rsi	# ptrop, tmp159
	movl	-44(%rbp), %eax	# subcode, tmp160
	movl	$1, %ecx	#,
	movl	%eax, %edi	# tmp160,
	call	build_binary_op	#
	movq	%rax, -64(%rbp)	# tmp161, ptrop
	.loc 1 2058 0
	movq	-72(%rbp), %rax	# intop, tmp162
	movq	32(%rax), %rdx	# intop_31(D)->exp.operands, D.19751
	movq	-24(%rbp), %rax	# int_type, tmp163
	movq	%rdx, %rsi	# D.19751,
	movq	%rax, %rdi	# tmp163,
	call	convert	#
	movq	%rax, -72(%rbp)	# tmp164, intop
.L529:
.LBE30:
	.loc 1 2064 0
	movq	-72(%rbp), %rax	# intop, tmp165
	movq	8(%rax), %rax	# intop_2->common.type, D.19751
	movzwl	60(%rax), %eax	# *_63, tmp168
	andw	$511, %ax	#, D.19753
	movl	%eax, %edx	# D.19753, D.19753
	movq	sizetype_tab(%rip), %rax	# sizetype_tab, D.19751
	movzwl	60(%rax), %eax	# *_65, tmp171
	andw	$511, %ax	#, D.19753
	cmpw	%ax, %dx	# D.19753, D.19753
	jne	.L534	#,
	.loc 1 2065 0
	movq	-72(%rbp), %rax	# intop, tmp172
	movq	8(%rax), %rax	# intop_2->common.type, D.19751
	movzbl	17(%rax), %eax	# *_67, tmp175
	shrb	$5, %al	#, D.19754
	movl	%eax, %edx	# D.19754, D.19754
	andl	$1, %edx	#, D.19754
	movq	sizetype_tab(%rip), %rax	# sizetype_tab, D.19751
	movzbl	17(%rax), %eax	# *_69, tmp178
	shrb	$5, %al	#, D.19754
	andl	$1, %eax	#, D.19754
	cmpb	%al, %dl	# D.19754, D.19754
	je	.L535	#,
.L534:
	.loc 1 2067 0
	movq	sizetype_tab(%rip), %rax	# sizetype_tab, D.19751
	movzbl	17(%rax), %eax	# *_71, tmp181
	shrb	$5, %al	#, D.19754
	andl	$1, %eax	#, D.19754
	.loc 1 2066 0
	movzbl	%al, %edx	# D.19754, D.19755
	movq	sizetype_tab(%rip), %rax	# sizetype_tab, D.19751
	movzwl	60(%rax), %eax	# *_74, tmp184
	andw	$511, %ax	#, D.19753
	movzwl	%ax, %eax	# D.19753, D.19756
	movl	%edx, %esi	# D.19755,
	movl	%eax, %edi	# D.19756,
	call	type_for_size	#
	movq	-72(%rbp), %rdx	# intop, tmp185
	movq	%rdx, %rsi	# tmp185,
	movq	%rax, %rdi	# D.19751,
	call	convert	#
	movq	%rax, -72(%rbp)	# tmp186, intop
.L535:
	.loc 1 2073 0
	movq	-72(%rbp), %rax	# intop, tmp187
	movq	8(%rax), %rax	# intop_3->common.type, D.19751
	movq	-40(%rbp), %rdx	# size_exp, tmp188
	movq	%rdx, %rsi	# tmp188,
	movq	%rax, %rdi	# D.19751,
	call	convert	#
	movq	%rax, %rdx	#, D.19751
	movq	-72(%rbp), %rax	# intop, tmp189
	movl	$1, %ecx	#,
	movq	%rax, %rsi	# tmp189,
	movl	$61, %edi	#,
	call	build_binary_op	#
	movq	%rax, %rdx	#, D.19751
	movq	-32(%rbp), %rax	# result_type, tmp190
	movq	%rdx, %rsi	# D.19751,
	movq	%rax, %rdi	# tmp190,
	call	convert	#
	movq	%rax, -72(%rbp)	# tmp191, intop
	.loc 1 2079 0
	movq	-72(%rbp), %rcx	# intop, tmp192
	movq	-64(%rbp), %rdx	# ptrop, tmp193
	movq	-32(%rbp), %rsi	# result_type, tmp194
	movl	-52(%rbp), %eax	# resultcode, tmp195
	movl	%eax, %edi	# tmp195,
	movl	$0, %eax	#,
	call	build	#
	movq	%rax, -16(%rbp)	# tmp196, result
	.loc 1 2081 0
	movq	-16(%rbp), %rax	# result, tmp197
	movq	%rax, %rdi	# tmp197,
	call	fold	#
	movq	%rax, -8(%rbp)	# tmp198, folded
	.loc 1 2082 0
	movq	-8(%rbp), %rax	# folded, tmp199
	cmpq	-16(%rbp), %rax	# result, tmp199
	jne	.L536	#,
	.loc 1 2083 0
	movq	-64(%rbp), %rax	# ptrop, tmp200
	movzbl	17(%rax), %eax	# *ptrop_1, tmp203
	shrb	%al	# D.19754
	andl	$1, %eax	#, D.19754
	movl	%eax, %edx	# D.19754, D.19752
	movq	-72(%rbp), %rax	# intop, tmp204
	movzbl	17(%rax), %eax	# *intop_82, tmp207
	shrb	%al	# D.19754
	andl	$1, %eax	#, D.19754
	andl	%edx, %eax	# D.19752, D.19752
	andl	$1, %eax	#, D.19754
	movl	%eax, %edx	# D.19754, D.19754
	movq	-8(%rbp), %rax	# folded, tmp208
	andl	$1, %edx	#, tmp210
	leal	(%rdx,%rdx), %ecx	#, tmp211
	movzbl	17(%rax), %edx	#, tmp212
	andl	$-3, %edx	#, tmp213
	orl	%ecx, %edx	# tmp211, tmp214
	movb	%dl, 17(%rax)	# tmp214,
.L536:
	.loc 1 2084 0
	movq	-8(%rbp), %rax	# folded, D.19757
	.loc 1 2085 0
	leave
	.cfi_def_cfa 7, 8
	ret
	.cfi_endproc
.LFE39:
	.size	pointer_int_sum, .-pointer_int_sum
	.section	.rodata
	.align 8
.LC48:
	.string	"suggest parentheses around assignment used as truth value"
	.text
	.globl	truthvalue_conversion
	.type	truthvalue_conversion, @function
truthvalue_conversion:
.LFB40:
	.loc 1 2101 0
	.cfi_startproc
	pushq	%rbp	#
	.cfi_def_cfa_offset 16
	.cfi_offset 6, -16
	movq	%rsp, %rbp	#,
	.cfi_def_cfa_register 6
	pushq	%rbx	#
	subq	$40, %rsp	#,
	.cfi_offset 3, -24
	movq	%rdi, -40(%rbp)	# expr, expr
	.loc 1 2102 0
	movq	-40(%rbp), %rax	# expr, tmp150
	movzbl	16(%rax), %eax	# expr_6(D)->common.code, D.19763
	testb	%al, %al	# D.19763
	jne	.L539	#,
	.loc 1 2103 0
	movq	-40(%rbp), %rax	# expr, D.19762
	jmp	.L540	#
.L539:
	.loc 1 2127 0
	movq	-40(%rbp), %rax	# expr, tmp151
	movzbl	16(%rax), %eax	# expr_6(D)->common.code, D.19763
	movzbl	%al, %eax	# D.19763, D.19764
	cmpl	$125, %eax	#, D.19764
	ja	.L575	#,
	movl	%eax, %eax	# D.19764, tmp152
	movq	.L543(,%rax,8), %rax	#, tmp153
	jmp	*%rax	# tmp153
	.section	.rodata
	.align 8
	.align 4
.L543:
	.quad	.L542
	.quad	.L575
	.quad	.L575
	.quad	.L575
	.quad	.L575
	.quad	.L575
	.quad	.L575
	.quad	.L575
	.quad	.L575
	.quad	.L575
	.quad	.L575
	.quad	.L575
	.quad	.L575
	.quad	.L575
	.quad	.L575
	.quad	.L575
	.quad	.L575
	.quad	.L575
	.quad	.L575
	.quad	.L575
	.quad	.L575
	.quad	.L575
	.quad	.L575
	.quad	.L575
	.quad	.L575
	.quad	.L544
	.quad	.L545
	.quad	.L575
	.quad	.L575
	.quad	.L575
	.quad	.L575
	.quad	.L575
	.quad	.L575
	.quad	.L575
	.quad	.L575
	.quad	.L575
	.quad	.L575
	.quad	.L575
	.quad	.L575
	.quad	.L575
	.quad	.L575
	.quad	.L575
	.quad	.L575
	.quad	.L575
	.quad	.L575
	.quad	.L575
	.quad	.L575
	.quad	.L575
	.quad	.L546
	.quad	.L575
	.quad	.L575
	.quad	.L547
	.quad	.L575
	.quad	.L575
	.quad	.L575
	.quad	.L575
	.quad	.L575
	.quad	.L575
	.quad	.L575
	.quad	.L575
	.quad	.L548
	.quad	.L575
	.quad	.L575
	.quad	.L575
	.quad	.L575
	.quad	.L575
	.quad	.L575
	.quad	.L575
	.quad	.L575
	.quad	.L575
	.quad	.L575
	.quad	.L575
	.quad	.L575
	.quad	.L575
	.quad	.L575
	.quad	.L575
	.quad	.L549
	.quad	.L549
	.quad	.L575
	.quad	.L575
	.quad	.L549
	.quad	.L549
	.quad	.L575
	.quad	.L575
	.quad	.L550
	.quad	.L550
	.quad	.L575
	.quad	.L551
	.quad	.L552
	.quad	.L575
	.quad	.L575
	.quad	.L553
	.quad	.L553
	.quad	.L553
	.quad	.L553
	.quad	.L553
	.quad	.L553
	.quad	.L553
	.quad	.L553
	.quad	.L553
	.quad	.L553
	.quad	.L553
	.quad	.L553
	.quad	.L575
	.quad	.L575
	.quad	.L575
	.quad	.L575
	.quad	.L575
	.quad	.L575
	.quad	.L575
	.quad	.L575
	.quad	.L575
	.quad	.L575
	.quad	.L575
	.quad	.L554
	.quad	.L555
	.quad	.L575
	.quad	.L575
	.quad	.L575
	.quad	.L575
	.quad	.L575
	.quad	.L556
	.quad	.L575
	.quad	.L575
	.quad	.L575
	.quad	.L557
	.text
.L553:
	.loc 1 2137 0
	movq	c_global_trees+128(%rip), %rdx	# c_global_trees, D.19765
	movq	-40(%rbp), %rax	# expr, tmp154
	movq	%rdx, 8(%rax)	# D.19765, expr_6(D)->common.type
	.loc 1 2138 0
	movq	-40(%rbp), %rax	# expr, D.19762
	jmp	.L540	#
.L542:
	.loc 1 2141 0
	movq	-40(%rbp), %rax	# expr, D.19762
	jmp	.L540	#
.L544:
	.loc 1 2144 0
	movq	-40(%rbp), %rax	# expr, tmp155
	movq	%rax, %rdi	# tmp155,
	call	integer_zerop	#
	testl	%eax, %eax	# D.19766
	je	.L558	#,
	.loc 1 2144 0 is_stmt 0 discriminator 1
	movq	c_global_trees+144(%rip), %rax	# c_global_trees, iftmp.226
	jmp	.L559	#
.L558:
	.loc 1 2144 0 discriminator 2
	movq	c_global_trees+136(%rip), %rax	# c_global_trees, iftmp.226
.L559:
	.loc 1 2144 0 discriminator 3
	jmp	.L540	#
.L545:
	.loc 1 2147 0 is_stmt 1
	movq	-40(%rbp), %rax	# expr, tmp156
	movq	%rax, %rdi	# tmp156,
	call	real_zerop	#
	testl	%eax, %eax	# D.19766
	je	.L560	#,
	.loc 1 2147 0 is_stmt 0 discriminator 1
	movq	c_global_trees+144(%rip), %rax	# c_global_trees, iftmp.227
	jmp	.L561	#
.L560:
	.loc 1 2147 0 discriminator 2
	movq	c_global_trees+136(%rip), %rax	# c_global_trees, iftmp.227
.L561:
	.loc 1 2147 0 discriminator 3
	jmp	.L540	#
.L556:
	.loc 1 2152 0 is_stmt 1
	movq	-40(%rbp), %rax	# expr, tmp157
	movq	32(%rax), %rax	# expr_6(D)->exp.operands, D.19765
	movzbl	16(%rax), %eax	# _22->common.code, D.19763
	movzbl	%al, %eax	# D.19763, D.19766
	cltq
	movzbl	tree_code_type(%rax), %eax	# tree_code_type, D.19767
	cmpb	$100, %al	#, D.19767
	jne	.L562	#,
	.loc 1 2153 0
	movq	-40(%rbp), %rax	# expr, tmp159
	movq	32(%rax), %rax	# expr_6(D)->exp.operands, D.19765
	movzbl	49(%rax), %eax	# *_26, D.19763
	andl	$1, %eax	#, D.19763
	testb	%al, %al	# D.19763
	je	.L562	#,
	.loc 1 2154 0
	jmp	.L563	#
.L562:
	.loc 1 2156 0
	movq	-40(%rbp), %rax	# expr, tmp160
	movq	32(%rax), %rax	# expr_6(D)->exp.operands, D.19765
	movzbl	17(%rax), %eax	# *_29, D.19763
	andl	$1, %eax	#, D.19763
	testb	%al, %al	# D.19763
	je	.L564	#,
	.loc 1 2157 0
	movq	c_global_trees+136(%rip), %rcx	# c_global_trees, D.19765
	movq	-40(%rbp), %rax	# expr, tmp161
	movq	32(%rax), %rdx	# expr_6(D)->exp.operands, D.19765
	movq	c_global_trees+128(%rip), %rax	# c_global_trees, D.19765
	movq	%rax, %rsi	# D.19765,
	movl	$47, %edi	#,
	movl	$0, %eax	#,
	call	build	#
	jmp	.L540	#
.L564:
	.loc 1 2160 0
	movq	c_global_trees+136(%rip), %rax	# c_global_trees, D.19762
	jmp	.L540	#
.L557:
	.loc 1 2163 0
	movq	-40(%rbp), %rax	# expr, tmp162
	movq	40(%rax), %rax	# expr_6(D)->exp.operands, D.19765
	movq	%rax, %rdi	# D.19765,
	call	truthvalue_conversion	#
	movq	%rax, %rbx	#, D.19765
	movq	-40(%rbp), %rax	# expr, tmp163
	movq	32(%rax), %rax	# expr_6(D)->exp.operands, D.19765
	movq	%rax, %rdi	# D.19765,
	call	truthvalue_conversion	#
	movq	%rax, %rsi	#, D.19765
	movq	-40(%rbp), %rax	# expr, tmp164
	movq	40(%rax), %rax	# expr_6(D)->exp.operands, D.19765
	.loc 1 2164 0
	movzbl	17(%rax), %eax	# *_41, D.19763
	andl	$1, %eax	#, D.19763
	.loc 1 2163 0
	testb	%al, %al	# D.19763
	je	.L565	#,
	.loc 1 2163 0 is_stmt 0 discriminator 1
	movl	$94, %eax	#, iftmp.228
	jmp	.L566	#
.L565:
	.loc 1 2163 0 discriminator 2
	movl	$92, %eax	#, iftmp.228
.L566:
	.loc 1 2163 0 discriminator 3
	movl	$0, %ecx	#,
	movq	%rbx, %rdx	# D.19765,
	movl	%eax, %edi	# iftmp.228,
	call	build_binary_op	#
	jmp	.L540	#
.L549:
	.loc 1 2174 0 is_stmt 1
	movq	-40(%rbp), %rax	# expr, tmp165
	movq	32(%rax), %rax	# expr_6(D)->exp.operands, D.19765
	movq	%rax, %rdi	# D.19765,
	call	truthvalue_conversion	#
	jmp	.L540	#
.L550:
	.loc 1 2180 0
	movq	-40(%rbp), %rax	# expr, tmp166
	movq	40(%rax), %rax	# expr_6(D)->exp.operands, D.19765
	movzbl	17(%rax), %eax	# *_49, D.19763
	andl	$1, %eax	#, D.19763
	testb	%al, %al	# D.19763
	je	.L567	#,
	.loc 1 2181 0
	movq	-40(%rbp), %rax	# expr, tmp167
	movq	32(%rax), %rax	# expr_6(D)->exp.operands, D.19765
	movq	%rax, %rdi	# D.19765,
	call	truthvalue_conversion	#
	movq	%rax, %rcx	#, D.19765
	movq	-40(%rbp), %rax	# expr, tmp168
	movq	40(%rax), %rdx	# expr_6(D)->exp.operands, D.19765
	movq	c_global_trees+128(%rip), %rax	# c_global_trees, D.19765
	movq	%rax, %rsi	# D.19765,
	movl	$47, %edi	#,
	movl	$0, %eax	#,
	call	build	#
	jmp	.L540	#
.L567:
	.loc 1 2184 0
	movq	-40(%rbp), %rax	# expr, tmp169
	movq	32(%rax), %rax	# expr_6(D)->exp.operands, D.19765
	movq	%rax, %rdi	# D.19765,
	call	truthvalue_conversion	#
	jmp	.L540	#
.L547:
	.loc 1 2188 0
	movq	-40(%rbp), %rax	# expr, tmp170
	movq	48(%rax), %rax	# expr_6(D)->exp.operands, D.19765
	movq	%rax, %rdi	# D.19765,
	call	truthvalue_conversion	#
	movq	%rax, %rbx	#, D.19765
	movq	-40(%rbp), %rax	# expr, tmp171
	movq	40(%rax), %rax	# expr_6(D)->exp.operands, D.19765
	movq	%rax, %rdi	# D.19765,
	call	truthvalue_conversion	#
	movq	%rax, %rcx	#, D.19765
	movq	-40(%rbp), %rax	# expr, tmp172
	movq	32(%rax), %rdx	# expr_6(D)->exp.operands, D.19765
	movq	c_global_trees+128(%rip), %rax	# c_global_trees, D.19765
	movq	%rbx, %r8	# D.19765,
	movq	%rax, %rsi	# D.19765,
	movl	$51, %edi	#,
	movl	$0, %eax	#,
	call	build	#
	movq	%rax, %rdi	# D.19765,
	call	fold	#
	jmp	.L540	#
.L554:
	.loc 1 2195 0
	movq	-40(%rbp), %rax	# expr, tmp173
	movq	8(%rax), %rax	# expr_6(D)->common.type, D.19765
	movzbl	16(%rax), %eax	# _67->common.code, D.19763
	cmpb	$15, %al	#, D.19763
	je	.L563	#,
	.loc 1 2196 0
	movq	-40(%rbp), %rax	# expr, tmp174
	movq	32(%rax), %rax	# expr_6(D)->exp.operands, D.19765
	movq	8(%rax), %rax	# _69->common.type, D.19765
	movzbl	16(%rax), %eax	# _70->common.code, D.19763
	cmpb	$15, %al	#, D.19763
	je	.L563	#,
.L555:
	.loc 1 2201 0
	movq	-40(%rbp), %rax	# expr, tmp175
	movq	8(%rax), %rax	# expr_6(D)->common.type, D.19765
	movzwl	60(%rax), %eax	# *_72, tmp178
	andw	$511, %ax	#, D.19768
	.loc 1 2202 0
	movzwl	%ax, %edx	# D.19768, D.19766
	movq	-40(%rbp), %rax	# expr, tmp179
	movq	32(%rax), %rax	# expr_6(D)->exp.operands, D.19765
	movq	8(%rax), %rax	# _75->common.type, D.19765
	movzwl	60(%rax), %eax	# *_76, tmp182
	andw	$511, %ax	#, D.19768
	movzwl	%ax, %eax	# D.19768, D.19766
	.loc 1 2201 0
	cmpl	%eax, %edx	# D.19766, D.19766
	jl	.L568	#,
	.loc 1 2203 0
	movq	-40(%rbp), %rax	# expr, tmp183
	movq	32(%rax), %rax	# expr_6(D)->exp.operands, D.19765
	movq	%rax, %rdi	# D.19765,
	call	truthvalue_conversion	#
	jmp	.L540	#
.L568:
	.loc 1 2204 0
	jmp	.L563	#
.L548:
	.loc 1 2210 0
	movq	-40(%rbp), %rax	# expr, tmp184
	movq	8(%rax), %rax	# expr_6(D)->common.type, D.19765
	movzbl	16(%rax), %eax	# _81->common.code, D.19763
	.loc 1 2209 0
	cmpb	$7, %al	#, D.19763
	jne	.L551	#,
	.loc 1 2211 0
	jmp	.L563	#
.L551:
	.loc 1 2216 0
	movq	-40(%rbp), %rax	# expr, tmp185
	movq	32(%rax), %rax	# expr_6(D)->exp.operands, D.19765
	movq	8(%rax), %rdx	# _83->common.type, D.19765
	.loc 1 2217 0
	movq	-40(%rbp), %rax	# expr, tmp186
	movq	40(%rax), %rax	# expr_6(D)->exp.operands, D.19765
	movq	8(%rax), %rax	# _85->common.type, D.19765
	.loc 1 2216 0
	cmpq	%rax, %rdx	# D.19765, D.19765
	jne	.L569	#,
	.loc 1 2218 0
	movq	-40(%rbp), %rax	# expr, tmp187
	movq	40(%rax), %rdx	# expr_6(D)->exp.operands, D.19765
	movq	-40(%rbp), %rax	# expr, tmp188
	movq	32(%rax), %rax	# expr_6(D)->exp.operands, D.19765
	movl	$1, %ecx	#,
	movq	%rax, %rsi	# D.19765,
	movl	$102, %edi	#,
	call	build_binary_op	#
	jmp	.L540	#
.L569:
	.loc 1 2220 0
	movq	-40(%rbp), %rax	# expr, tmp189
	movq	40(%rax), %rdx	# expr_6(D)->exp.operands, D.19765
	.loc 1 2222 0
	movq	-40(%rbp), %rax	# expr, tmp190
	movq	32(%rax), %rax	# expr_6(D)->exp.operands, D.19765
	.loc 1 2220 0
	movq	8(%rax), %rax	# _91->common.type, D.19765
	movq	%rax, %rsi	# D.19765,
	movl	$115, %edi	#,
	call	build1	#
	movq	%rax, %rdi	# D.19765,
	call	fold	#
	movq	%rax, %rdx	#, D.19765
	movq	-40(%rbp), %rax	# expr, tmp191
	movq	32(%rax), %rax	# expr_6(D)->exp.operands, D.19765
	movl	$1, %ecx	#,
	movq	%rax, %rsi	# D.19765,
	movl	$102, %edi	#,
	call	build_binary_op	#
	jmp	.L540	#
.L552:
	.loc 1 2226 0
	movq	-40(%rbp), %rax	# expr, tmp192
	movq	40(%rax), %rax	# expr_6(D)->exp.operands, D.19765
	movq	%rax, %rdi	# D.19765,
	call	integer_onep	#
	testl	%eax, %eax	# D.19766
	je	.L570	#,
	.loc 1 2227 0
	movq	-40(%rbp), %rax	# expr, tmp193
	movq	8(%rax), %rdx	# expr_6(D)->common.type, D.19765
	movq	c_global_trees+128(%rip), %rax	# c_global_trees, D.19765
	cmpq	%rax, %rdx	# D.19765, D.19765
	je	.L570	#,
	.loc 1 2229 0
	movq	c_global_trees+128(%rip), %rax	# c_global_trees, D.19765
	movq	-40(%rbp), %rdx	# expr, tmp194
	movq	%rax, %rsi	# D.19765,
	movl	$115, %edi	#,
	call	build1	#
	jmp	.L540	#
.L570:
	.loc 1 2230 0
	jmp	.L563	#
.L546:
	.loc 1 2233 0
	movl	warn_parentheses(%rip), %eax	# warn_parentheses, warn_parentheses.229
	testl	%eax, %eax	# warn_parentheses.229
	je	.L571	#,
	.loc 1 2233 0 is_stmt 0 discriminator 1
	movq	-40(%rbp), %rax	# expr, tmp195
	movl	24(%rax), %eax	# expr_6(D)->exp.complexity, D.19766
	cmpl	$48, %eax	#, D.19766
	jne	.L571	#,
	.loc 1 2234 0 is_stmt 1
	movl	$.LC48, %edi	#,
	movl	$0, %eax	#,
	call	warning	#
	.loc 1 2235 0
	jmp	.L563	#
.L571:
	jmp	.L563	#
.L575:
	.loc 1 2238 0
	nop
.L563:
	.loc 1 2241 0
	movq	-40(%rbp), %rax	# expr, tmp196
	movq	8(%rax), %rax	# expr_6(D)->common.type, D.19765
	movzbl	16(%rax), %eax	# _105->common.code, D.19763
	cmpb	$8, %al	#, D.19763
	jne	.L572	#,
.LBB31:
	.loc 1 2243 0
	movq	-40(%rbp), %rax	# expr, tmp197
	movq	%rax, %rdi	# tmp197,
	call	save_expr	#
	movq	%rax, -24(%rbp)	# tmp198, tem
	.loc 1 2245 0
	movq	-24(%rbp), %rax	# tem, tmp199
	movl	$0, %edx	#,
	movq	%rax, %rsi	# tmp199,
	movl	$128, %edi	#,
	call	build_unary_op	#
	movq	%rax, %rdi	# D.19765,
	call	truthvalue_conversion	#
	movq	%rax, %rbx	#, D.19765
	movq	-24(%rbp), %rax	# tem, tmp200
	movl	$0, %edx	#,
	movq	%rax, %rsi	# tmp200,
	movl	$127, %edi	#,
	call	build_unary_op	#
	movq	%rax, %rdi	# D.19765,
	call	truthvalue_conversion	#
	movq	%rax, %rsi	#, D.19765
	.loc 1 2246 0
	movq	-40(%rbp), %rax	# expr, tmp201
	movzbl	17(%rax), %eax	# *expr_6(D), D.19763
	andl	$1, %eax	#, D.19763
	.loc 1 2245 0
	testb	%al, %al	# D.19763
	je	.L573	#,
	.loc 1 2245 0 is_stmt 0 discriminator 1
	movl	$94, %eax	#, iftmp.230
	jmp	.L574	#
.L573:
	.loc 1 2245 0 discriminator 2
	movl	$92, %eax	#, iftmp.230
.L574:
	.loc 1 2244 0 is_stmt 1
	movl	$0, %ecx	#,
	movq	%rbx, %rdx	# D.19765,
	movl	%eax, %edi	# iftmp.230,
	call	build_binary_op	#
	jmp	.L540	#
.L572:
.LBE31:
	.loc 1 2252 0
	movq	global_trees+88(%rip), %rdx	# global_trees, D.19765
	movq	-40(%rbp), %rax	# expr, tmp202
	movl	$1, %ecx	#,
	movq	%rax, %rsi	# tmp202,
	movl	$102, %edi	#,
	call	build_binary_op	#
.L540:
	.loc 1 2253 0
	addq	$40, %rsp	#,
	popq	%rbx	#
	popq	%rbp	#
	.cfi_def_cfa 7, 8
	ret
	.cfi_endproc
.LFE40:
	.size	truthvalue_conversion, .-truthvalue_conversion
	.section	.rodata
.LC49:
	.string	"invalid use of `restrict'"
	.text
	.globl	c_build_qualified_type
	.type	c_build_qualified_type, @function
c_build_qualified_type:
.LFB41:
	.loc 1 2266 0
	.cfi_startproc
	pushq	%rbp	#
	.cfi_def_cfa_offset 16
	.cfi_offset 6, -16
	movq	%rsp, %rbp	#,
	.cfi_def_cfa_register 6
	pushq	%rbx	#
	subq	$24, %rsp	#,
	.cfi_offset 3, -24
	movq	%rdi, -24(%rbp)	# type, type
	movl	%esi, -28(%rbp)	# type_quals, type_quals
	.loc 1 2274 0
	movl	-28(%rbp), %eax	# type_quals, tmp70
	andl	$4, %eax	#, D.19771
	testl	%eax, %eax	# D.19771
	je	.L577	#,
	.loc 1 2275 0
	movq	-24(%rbp), %rax	# type, tmp71
	movzbl	16(%rax), %eax	# type_5(D)->common.code, D.19772
	cmpb	$13, %al	#, D.19772
	je	.L578	#,
	.loc 1 2275 0 is_stmt 0 discriminator 1
	movq	-24(%rbp), %rax	# type, tmp72
	movzbl	16(%rax), %eax	# type_5(D)->common.code, D.19772
	cmpb	$15, %al	#, D.19772
	jne	.L579	#,
.L578:
	.loc 1 2276 0 is_stmt 1
	movq	-24(%rbp), %rax	# type, tmp73
	movq	8(%rax), %rax	# type_5(D)->common.type, D.19773
	movzbl	16(%rax), %eax	# _8->common.code, D.19772
	cmpb	$23, %al	#, D.19772
	jne	.L577	#,
.L579:
	.loc 1 2278 0
	movl	$.LC49, %edi	#,
	movl	$0, %eax	#,
	call	error	#
	.loc 1 2279 0
	andl	$-5, -28(%rbp)	#, type_quals
.L577:
	.loc 1 2282 0
	movq	-24(%rbp), %rax	# type, tmp74
	movzbl	16(%rax), %eax	# type_5(D)->common.code, D.19772
	cmpb	$18, %al	#, D.19772
	jne	.L580	#,
	.loc 1 2283 0
	movq	-24(%rbp), %rax	# type, tmp75
	movq	24(%rax), %rbx	# type_5(D)->type.values, D.19773
	movq	-24(%rbp), %rax	# type, tmp76
	movq	8(%rax), %rax	# type_5(D)->common.type, D.19773
	movl	-28(%rbp), %edx	# type_quals, tmp77
	movl	%edx, %esi	# tmp77,
	movq	%rax, %rdi	# D.19773,
	call	c_build_qualified_type	#
	movq	%rbx, %rsi	# D.19773,
	movq	%rax, %rdi	# D.19773,
	call	build_array_type	#
	jmp	.L581	#
.L580:
	.loc 1 2286 0
	movl	-28(%rbp), %edx	# type_quals, tmp78
	movq	-24(%rbp), %rax	# type, tmp79
	movl	%edx, %esi	# tmp78,
	movq	%rax, %rdi	# tmp79,
	call	build_qualified_type	#
.L581:
	.loc 1 2287 0
	addq	$24, %rsp	#,
	popq	%rbx	#
	popq	%rbp	#
	.cfi_def_cfa 7, 8
	ret
	.cfi_endproc
.LFE41:
	.size	c_build_qualified_type, .-c_build_qualified_type
	.globl	c_apply_type_quals_to_decl
	.type	c_apply_type_quals_to_decl, @function
c_apply_type_quals_to_decl:
.LFB42:
	.loc 1 2295 0
	.cfi_startproc
	pushq	%rbp	#
	.cfi_def_cfa_offset 16
	.cfi_offset 6, -16
	movq	%rsp, %rbp	#,
	.cfi_def_cfa_register 6
	subq	$16, %rsp	#,
	movl	%edi, -4(%rbp)	# type_quals, type_quals
	movq	%rsi, -16(%rbp)	# decl, decl
	.loc 1 2296 0
	movl	-4(%rbp), %eax	# type_quals, tmp74
	andl	$1, %eax	#, D.19775
	testl	%eax, %eax	# D.19775
	jne	.L583	#,
	.loc 1 2297 0
	movq	-16(%rbp), %rax	# decl, tmp75
	movq	8(%rax), %rax	# decl_3(D)->common.type, D.19776
	testq	%rax, %rax	# D.19776
	je	.L584	#,
	.loc 1 2298 0
	movq	-16(%rbp), %rax	# decl, tmp76
	movq	8(%rax), %rax	# decl_3(D)->common.type, D.19776
	movzbl	16(%rax), %eax	# _5->common.code, D.19777
	cmpb	$15, %al	#, D.19777
	jne	.L584	#,
.L583:
	.loc 1 2299 0
	movq	-16(%rbp), %rax	# decl, tmp77
	movzbl	17(%rax), %edx	#, tmp80
	orl	$16, %edx	#, tmp81
	movb	%dl, 17(%rax)	# tmp81,
.L584:
	.loc 1 2300 0
	movl	-4(%rbp), %eax	# type_quals, tmp82
	andl	$2, %eax	#, D.19775
	testl	%eax, %eax	# D.19775
	je	.L585	#,
	.loc 1 2302 0
	movq	-16(%rbp), %rax	# decl, tmp83
	movzbl	17(%rax), %edx	#, tmp86
	orl	$1, %edx	#, tmp87
	movb	%dl, 17(%rax)	# tmp87,
	.loc 1 2303 0
	movq	-16(%rbp), %rax	# decl, tmp88
	movzbl	17(%rax), %edx	#, tmp91
	orl	$8, %edx	#, tmp92
	movb	%dl, 17(%rax)	# tmp92,
.L585:
	.loc 1 2305 0
	movl	-4(%rbp), %eax	# type_quals, tmp93
	andl	$4, %eax	#, D.19775
	testl	%eax, %eax	# D.19775
	je	.L582	#,
	.loc 1 2307 0
	movq	-16(%rbp), %rax	# decl, tmp94
	movq	8(%rax), %rax	# decl_3(D)->common.type, D.19776
	testq	%rax, %rax	# D.19776
	je	.L587	#,
	.loc 1 2308 0
	movq	-16(%rbp), %rax	# decl, tmp95
	movq	8(%rax), %rax	# decl_3(D)->common.type, D.19776
	movzbl	16(%rax), %eax	# _10->common.code, D.19777
	cmpb	$13, %al	#, D.19777
	je	.L588	#,
	.loc 1 2308 0 is_stmt 0 discriminator 1
	movq	-16(%rbp), %rax	# decl, tmp96
	movq	8(%rax), %rax	# decl_3(D)->common.type, D.19776
	movzbl	16(%rax), %eax	# _12->common.code, D.19777
	cmpb	$15, %al	#, D.19777
	jne	.L587	#,
.L588:
	.loc 1 2309 0 is_stmt 1
	movq	-16(%rbp), %rax	# decl, tmp97
	movq	8(%rax), %rax	# decl_3(D)->common.type, D.19776
	movq	8(%rax), %rax	# _14->common.type, D.19776
	movzbl	16(%rax), %eax	# _15->common.code, D.19777
	cmpb	$23, %al	#, D.19777
	jne	.L589	#,
.L587:
	.loc 1 2310 0
	movl	$.LC49, %edi	#,
	movl	$0, %eax	#,
	call	error	#
	jmp	.L582	#
.L589:
	.loc 1 2311 0
	movl	flag_strict_aliasing(%rip), %eax	# flag_strict_aliasing, flag_strict_aliasing.231
	testl	%eax, %eax	# flag_strict_aliasing.231
	je	.L582	#,
	.loc 1 2315 0
	movq	-16(%rbp), %rax	# decl, tmp98
	movq	$-2, 192(%rax)	#, decl_3(D)->decl.pointer_alias_set
.L582:
	.loc 1 2317 0
	leave
	.cfi_def_cfa 7, 8
	ret
	.cfi_endproc
.LFE42:
	.size	c_apply_type_quals_to_decl, .-c_apply_type_quals_to_decl
	.globl	c_common_get_alias_set
	.type	c_common_get_alias_set, @function
c_common_get_alias_set:
.LFB43:
	.loc 1 2326 0
	.cfi_startproc
	pushq	%rbp	#
	.cfi_def_cfa_offset 16
	.cfi_offset 6, -16
	movq	%rsp, %rbp	#,
	.cfi_def_cfa_register 6
	subq	$48, %rsp	#,
	movq	%rdi, -40(%rbp)	# t, t
	.loc 1 2335 0
	movq	-40(%rbp), %rax	# t, tmp78
	movq	%rax, -24(%rbp)	# tmp78, u
	jmp	.L591	#
.L594:
	.loc 1 2338 0
	movq	-24(%rbp), %rax	# u, tmp79
	movzbl	16(%rax), %eax	# u_1->common.code, D.19779
	cmpb	$39, %al	#, D.19779
	jne	.L592	#,
	.loc 1 2339 0
	movq	-24(%rbp), %rax	# u, tmp80
	movq	32(%rax), %rax	# u_1->exp.operands, D.19782
	movq	8(%rax), %rax	# _26->common.type, D.19782
	movzbl	16(%rax), %eax	# _27->common.code, D.19779
	cmpb	$21, %al	#, D.19779
	jne	.L592	#,
	.loc 1 2340 0
	movl	$0, %eax	#, D.19778
	jmp	.L593	#
.L592:
	.loc 1 2337 0
	movq	-24(%rbp), %rax	# u, tmp81
	movq	32(%rax), %rax	# u_1->exp.operands, tmp82
	movq	%rax, -24(%rbp)	# tmp82, u
.L591:
	.loc 1 2336 0 discriminator 1
	movq	-24(%rbp), %rax	# u, tmp83
	movzbl	16(%rax), %eax	# u_1->common.code, D.19779
	.loc 1 2335 0 discriminator 1
	cmpb	$39, %al	#, D.19779
	je	.L594	#,
	.loc 1 2336 0
	movq	-24(%rbp), %rax	# u, tmp84
	movzbl	16(%rax), %eax	# u_1->common.code, D.19779
	cmpb	$43, %al	#, D.19779
	je	.L594	#,
	.loc 1 2343 0
	movq	-40(%rbp), %rax	# t, tmp85
	movzbl	16(%rax), %eax	# t_3(D)->common.code, D.19779
	movzbl	%al, %eax	# D.19779, D.19780
	cltq
	movzbl	tree_code_type(%rax), %eax	# tree_code_type, D.19781
	cmpb	$116, %al	#, D.19781
	je	.L595	#,
	.loc 1 2344 0
	movq	$-1, %rax	#, D.19778
	jmp	.L593	#
.L595:
	.loc 1 2348 0
	movq	integer_types(%rip), %rax	# integer_types, D.19782
	cmpq	-40(%rbp), %rax	# t, D.19782
	je	.L596	#,
	.loc 1 2349 0
	movq	integer_types+8(%rip), %rax	# integer_types, D.19782
	cmpq	-40(%rbp), %rax	# t, D.19782
	je	.L596	#,
	.loc 1 2350 0
	movq	integer_types+16(%rip), %rax	# integer_types, D.19782
	cmpq	-40(%rbp), %rax	# t, D.19782
	jne	.L597	#,
.L596:
	.loc 1 2351 0
	movl	$0, %eax	#, D.19778
	jmp	.L593	#
.L597:
	.loc 1 2356 0
	movq	-40(%rbp), %rax	# t, tmp87
	movzbl	16(%rax), %eax	# t_3(D)->common.code, D.19779
	cmpb	$6, %al	#, D.19779
	jne	.L598	#,
	.loc 1 2356 0 is_stmt 0 discriminator 1
	movq	-40(%rbp), %rax	# t, tmp88
	movzbl	17(%rax), %eax	# *t_3(D), D.19779
	andl	$32, %eax	#, D.19779
	testb	%al, %al	# D.19779
	je	.L598	#,
.LBB32:
	.loc 1 2358 0 is_stmt 1
	movq	-40(%rbp), %rax	# t, tmp89
	movq	%rax, %rdi	# tmp89,
	call	signed_type	#
	movq	%rax, -16(%rbp)	# tmp90, t1
	.loc 1 2361 0
	movq	-16(%rbp), %rax	# t1, tmp91
	cmpq	-40(%rbp), %rax	# t, tmp91
	je	.L599	#,
	.loc 1 2362 0
	movq	-16(%rbp), %rax	# t1, tmp92
	movq	%rax, %rdi	# tmp92,
	call	get_alias_set	#
	jmp	.L593	#
.L599:
.LBE32:
	.loc 1 2357 0
	jmp	.L600	#
.L598:
	.loc 1 2364 0
	movq	-40(%rbp), %rax	# t, tmp93
	movzbl	16(%rax), %eax	# t_3(D)->common.code, D.19779
	cmpb	$13, %al	#, D.19779
	je	.L601	#,
	.loc 1 2364 0 is_stmt 0 discriminator 1
	movq	-40(%rbp), %rax	# t, tmp94
	movzbl	16(%rax), %eax	# t_3(D)->common.code, D.19779
	cmpb	$15, %al	#, D.19779
	jne	.L600	#,
.L601:
.LBB33:
	.loc 1 2391 0 is_stmt 1
	movq	-40(%rbp), %rax	# t, tmp95
	movq	%rax, %rdi	# tmp95,
	call	build_type_no_quals	#
	movq	%rax, -8(%rbp)	# tmp96, t1
	.loc 1 2392 0
	movq	-8(%rbp), %rax	# t1, tmp97
	cmpq	-40(%rbp), %rax	# t, tmp97
	je	.L600	#,
	.loc 1 2393 0
	movq	-8(%rbp), %rax	# t1, tmp98
	movq	%rax, %rdi	# tmp98,
	call	get_alias_set	#
	jmp	.L593	#
.L600:
.LBE33:
	.loc 1 2396 0
	movq	$-1, %rax	#, D.19778
.L593:
	.loc 1 2397 0
	leave
	.cfi_def_cfa 7, 8
	ret
	.cfi_endproc
.LFE43:
	.size	c_common_get_alias_set, .-c_common_get_alias_set
	.section	.rodata
	.align 8
.LC50:
	.string	"__alignof__ applied to an incomplete type"
	.text
	.globl	c_alignof
	.type	c_alignof, @function
c_alignof:
.LFB44:
	.loc 1 2405 0
	.cfi_startproc
	pushq	%rbp	#
	.cfi_def_cfa_offset 16
	.cfi_offset 6, -16
	movq	%rsp, %rbp	#,
	.cfi_def_cfa_register 6
	subq	$32, %rsp	#,
	movq	%rdi, -24(%rbp)	# type, type
	.loc 1 2406 0
	movq	-24(%rbp), %rax	# type, tmp69
	movzbl	16(%rax), %eax	# type_4(D)->common.code, D.19783
	movzbl	%al, %eax	# D.19783, tmp70
	movl	%eax, -12(%rbp)	# tmp70, code
	.loc 1 2410 0
	cmpl	$15, -12(%rbp)	#, code
	jne	.L603	#,
	.loc 1 2412 0
	movq	-24(%rbp), %rax	# type, tmp71
	movq	8(%rax), %rax	# type_4(D)->common.type, tmp72
	movq	%rax, -24(%rbp)	# tmp72, type
	.loc 1 2413 0
	movq	-24(%rbp), %rax	# type, tmp73
	movzbl	16(%rax), %eax	# type_7->common.code, D.19783
	movzbl	%al, %eax	# D.19783, tmp74
	movl	%eax, -12(%rbp)	# tmp74, code
.L603:
	.loc 1 2416 0
	cmpl	$23, -12(%rbp)	#, code
	jne	.L604	#,
	.loc 1 2417 0
	movl	$0, %esi	#,
	movl	$2, %edi	#,
	call	size_int_wide	#
	movq	%rax, -8(%rbp)	# tmp75, t
	jmp	.L605	#
.L604:
	.loc 1 2418 0
	cmpl	$5, -12(%rbp)	#, code
	je	.L606	#,
	.loc 1 2418 0 is_stmt 0 discriminator 1
	cmpl	$0, -12(%rbp)	#, code
	jne	.L607	#,
.L606:
	.loc 1 2419 0 is_stmt 1
	movq	global_trees+128(%rip), %rax	# global_trees, tmp76
	movq	%rax, -8(%rbp)	# tmp76, t
	jmp	.L605	#
.L607:
	.loc 1 2420 0
	movq	-24(%rbp), %rax	# type, tmp77
	movq	32(%rax), %rax	# type_1->type.size, D.19784
	testq	%rax, %rax	# D.19784
	jne	.L608	#,
	.loc 1 2422 0
	movl	$.LC50, %edi	#,
	movl	$0, %eax	#,
	call	error	#
	.loc 1 2423 0
	movq	global_trees+120(%rip), %rax	# global_trees, tmp78
	movq	%rax, -8(%rbp)	# tmp78, t
	jmp	.L605	#
.L608:
	.loc 1 2426 0
	movq	-24(%rbp), %rax	# type, tmp79
	movl	64(%rax), %eax	# type_1->type.align, D.19785
	shrl	$3, %eax	#, D.19785
	movl	%eax, %eax	# D.19785, D.19786
	movl	$0, %esi	#,
	movq	%rax, %rdi	# D.19786,
	call	size_int_wide	#
	movq	%rax, -8(%rbp)	# tmp80, t
.L605:
	.loc 1 2428 0
	movq	c_global_trees+32(%rip), %rax	# c_global_trees, D.19784
	movq	-8(%rbp), %rdx	# t, tmp81
	movq	%rax, %rsi	# D.19784,
	movl	$115, %edi	#,
	call	build1	#
	movq	%rax, %rdi	# D.19784,
	call	fold	#
	.loc 1 2429 0
	leave
	.cfi_def_cfa 7, 8
	ret
	.cfi_endproc
.LFE44:
	.size	c_alignof, .-c_alignof
	.section	.rodata
	.align 8
.LC51:
	.string	"`__alignof' applied to a bit-field"
	.text
	.globl	c_alignof_expr
	.type	c_alignof_expr, @function
c_alignof_expr:
.LFB45:
	.loc 1 2439 0
	.cfi_startproc
	pushq	%rbp	#
	.cfi_def_cfa_offset 16
	.cfi_offset 6, -16
	movq	%rsp, %rbp	#,
	.cfi_def_cfa_register 6
	subq	$48, %rsp	#,
	movq	%rdi, -40(%rbp)	# expr, expr
	.loc 1 2442 0
	movq	-40(%rbp), %rax	# expr, tmp94
	movzbl	16(%rax), %eax	# expr_6(D)->common.code, D.19790
	cmpb	$34, %al	#, D.19790
	jne	.L611	#,
	.loc 1 2443 0
	movq	-40(%rbp), %rax	# expr, tmp95
	movl	56(%rax), %eax	# *expr_6(D), tmp98
	andl	$16777215, %eax	#, D.19791
	leal	7(%rax), %edx	#, tmp100
	testl	%eax, %eax	# tmp99
	cmovs	%edx, %eax	# tmp100,, tmp99
	sarl	$3, %eax	#, tmp101
	cltq
	movl	$0, %esi	#,
	movq	%rax, %rdi	# D.19793,
	call	size_int_wide	#
	movq	%rax, -24(%rbp)	# tmp102, t
	jmp	.L612	#
.L611:
	.loc 1 2445 0
	movq	-40(%rbp), %rax	# expr, tmp103
	movzbl	16(%rax), %eax	# expr_6(D)->common.code, D.19790
	cmpb	$39, %al	#, D.19790
	jne	.L613	#,
	.loc 1 2446 0
	movq	-40(%rbp), %rax	# expr, tmp104
	movq	40(%rax), %rax	# expr_6(D)->exp.operands, D.19794
	movzbl	53(%rax), %eax	# *_14, D.19790
	andl	$2, %eax	#, D.19790
	testb	%al, %al	# D.19790
	je	.L613	#,
	.loc 1 2448 0
	movl	$.LC51, %edi	#,
	movl	$0, %eax	#,
	call	error	#
	.loc 1 2449 0
	movq	global_trees+128(%rip), %rax	# global_trees, tmp105
	movq	%rax, -24(%rbp)	# tmp105, t
	jmp	.L612	#
.L613:
	.loc 1 2451 0
	movq	-40(%rbp), %rax	# expr, tmp106
	movzbl	16(%rax), %eax	# expr_6(D)->common.code, D.19790
	cmpb	$39, %al	#, D.19790
	jne	.L614	#,
	.loc 1 2452 0
	movq	-40(%rbp), %rax	# expr, tmp107
	movq	40(%rax), %rax	# expr_6(D)->exp.operands, D.19794
	movzbl	16(%rax), %eax	# _19->common.code, D.19790
	cmpb	$37, %al	#, D.19790
	jne	.L614	#,
	.loc 1 2453 0
	movq	-40(%rbp), %rax	# expr, tmp108
	movq	40(%rax), %rax	# expr_6(D)->exp.operands, D.19794
	movl	56(%rax), %eax	# *_21, tmp111
	andl	$16777215, %eax	#, D.19791
	leal	7(%rax), %edx	#, tmp113
	testl	%eax, %eax	# tmp112
	cmovs	%edx, %eax	# tmp113,, tmp112
	sarl	$3, %eax	#, tmp114
	cltq
	movl	$0, %esi	#,
	movq	%rax, %rdi	# D.19793,
	call	size_int_wide	#
	movq	%rax, -24(%rbp)	# tmp115, t
	jmp	.L612	#
.L614:
	.loc 1 2455 0
	movq	-40(%rbp), %rax	# expr, tmp116
	movzbl	16(%rax), %eax	# expr_6(D)->common.code, D.19790
	cmpb	$41, %al	#, D.19790
	jne	.L615	#,
.LBB34:
	.loc 1 2457 0
	movq	-40(%rbp), %rax	# expr, tmp117
	movq	32(%rax), %rax	# expr_6(D)->exp.operands, tmp118
	movq	%rax, -16(%rbp)	# tmp118, t
	.loc 1 2458 0
	movq	-16(%rbp), %rax	# t, tmp119
	movq	%rax, -8(%rbp)	# tmp119, best
	.loc 1 2459 0
	movq	-16(%rbp), %rax	# t, tmp120
	movq	8(%rax), %rax	# t_28->common.type, D.19794
	movq	8(%rax), %rax	# _30->common.type, D.19794
	movl	64(%rax), %eax	# _31->type.align, D.19795
	movl	%eax, -32(%rbp)	# D.19795, bestalign
	.loc 1 2461 0
	jmp	.L616	#
.L618:
.LBB35:
	.loc 1 2466 0
	movq	-16(%rbp), %rax	# t, tmp121
	movq	32(%rax), %rax	# t_2->exp.operands, tmp122
	movq	%rax, -16(%rbp)	# tmp122, t
	.loc 1 2467 0
	movq	-16(%rbp), %rax	# t, tmp123
	movq	8(%rax), %rax	# t_38->common.type, D.19794
	movq	8(%rax), %rax	# _39->common.type, D.19794
	movl	64(%rax), %eax	# _40->type.align, D.19795
	movl	%eax, -28(%rbp)	# D.19795, thisalign
	.loc 1 2468 0
	movl	-28(%rbp), %eax	# thisalign, tmp124
	cmpl	-32(%rbp), %eax	# bestalign, tmp124
	jle	.L616	#,
	.loc 1 2469 0
	movq	-16(%rbp), %rax	# t, tmp125
	movq	%rax, -8(%rbp)	# tmp125, best
	movl	-28(%rbp), %eax	# thisalign, tmp126
	movl	%eax, -32(%rbp)	# tmp126, bestalign
.L616:
.LBE35:
	.loc 1 2461 0 discriminator 1
	movq	-16(%rbp), %rax	# t, tmp127
	movzbl	16(%rax), %eax	# t_2->common.code, D.19790
	cmpb	$115, %al	#, D.19790
	jne	.L617	#,
	.loc 1 2462 0
	movq	-16(%rbp), %rax	# t, tmp128
	movq	32(%rax), %rax	# t_2->exp.operands, D.19794
	movq	8(%rax), %rax	# _35->common.type, D.19794
	movzbl	16(%rax), %eax	# _36->common.code, D.19790
	cmpb	$13, %al	#, D.19790
	je	.L618	#,
.L617:
	.loc 1 2471 0
	movq	-8(%rbp), %rax	# best, tmp129
	movq	8(%rax), %rax	# best_3->common.type, D.19794
	movq	8(%rax), %rax	# _45->common.type, D.19794
	movq	%rax, %rdi	# D.19794,
	call	c_alignof	#
	jmp	.L619	#
.L615:
.LBE34:
	.loc 1 2474 0
	movq	-40(%rbp), %rax	# expr, tmp130
	movq	8(%rax), %rax	# expr_6(D)->common.type, D.19794
	movq	%rax, %rdi	# D.19794,
	call	c_alignof	#
	jmp	.L619	#
.L612:
	.loc 1 2476 0
	movq	c_global_trees+32(%rip), %rax	# c_global_trees, D.19794
	movq	-24(%rbp), %rdx	# t, tmp131
	movq	%rax, %rsi	# D.19794,
	movl	$115, %edi	#,
	call	build1	#
	movq	%rax, %rdi	# D.19794,
	call	fold	#
.L619:
	.loc 1 2477 0
	leave
	.cfi_def_cfa 7, 8
	ret
	.cfi_endproc
.LFE45:
	.size	c_alignof_expr, .-c_alignof_expr
	.section	.rodata
.LC52:
	.string	"format"
.LC53:
	.string	"format_arg"
	.align 32
	.type	c_format_attribute_table, @object
	.size	c_format_attribute_table, 96
c_format_attribute_table:
# name:
	.quad	.LC52
# min_length:
	.long	3
# max_length:
	.long	3
# decl_required:
	.byte	0
# type_required:
	.byte	1
# function_type_required:
	.byte	1
# handler:
	.zero	5
	.quad	handle_format_attribute
# name:
	.quad	.LC53
# min_length:
	.long	1
# max_length:
	.long	1
# decl_required:
	.byte	0
# type_required:
	.byte	1
# function_type_required:
	.byte	1
# handler:
	.zero	5
	.quad	handle_format_arg_attribute
# name:
	.quad	0
# min_length:
	.long	0
# max_length:
	.long	0
# decl_required:
	.byte	0
# type_required:
	.byte	0
# function_type_required:
	.byte	0
# handler:
	.zero	5
	.quad	0
.LC54:
	.string	"char"
.LC55:
	.string	"long int"
.LC56:
	.string	"unsigned int"
.LC57:
	.string	"long unsigned int"
.LC58:
	.string	"unsigned long"
.LC59:
	.string	"long long int"
.LC60:
	.string	"long long unsigned int"
.LC61:
	.string	"long long unsigned"
.LC62:
	.string	"short int"
.LC63:
	.string	"short unsigned int"
.LC64:
	.string	"unsigned short"
.LC65:
	.string	"signed char"
.LC66:
	.string	"unsigned char"
.LC67:
	.string	"__int128_t"
.LC68:
	.string	"__uint128_t"
.LC69:
	.string	"long double"
.LC70:
	.string	"complex int"
.LC71:
	.string	"complex float"
.LC72:
	.string	"complex double"
.LC73:
	.string	"complex long double"
.LC74:
	.string	"int"
.LC75:
	.string	"wchar_t"
.LC76:
	.string	"__builtin_va_list"
.LC77:
	.string	"__builtin_ptrdiff_t"
.LC78:
	.string	"__builtin_size_t"
.LC79:
	.string	"__builtin_alloca"
.LC80:
	.string	"__builtin_abs"
.LC81:
	.string	"__builtin_labs"
.LC82:
	.string	"__builtin_fabs"
.LC83:
	.string	"__builtin_fabsf"
.LC84:
	.string	"__builtin_fabsl"
.LC85:
	.string	"__builtin_llabs"
.LC86:
	.string	"__builtin_imaxabs"
.LC87:
	.string	"__builtin_conj"
.LC88:
	.string	"__builtin_conjf"
.LC89:
	.string	"__builtin_conjl"
.LC90:
	.string	"__builtin_creal"
.LC91:
	.string	"__builtin_crealf"
.LC92:
	.string	"__builtin_creall"
.LC93:
	.string	"__builtin_cimag"
.LC94:
	.string	"__builtin_cimagf"
.LC95:
	.string	"__builtin_cimagl"
.LC96:
	.string	"__builtin_bzero"
.LC97:
	.string	"__builtin_bcmp"
.LC98:
	.string	"__builtin_ffs"
.LC99:
	.string	"__builtin_index"
.LC100:
	.string	"__builtin_rindex"
.LC101:
	.string	"__builtin_memcpy"
.LC102:
	.string	"__builtin_memcmp"
.LC103:
	.string	"__builtin_memset"
.LC104:
	.string	"__builtin_strcat"
.LC105:
	.string	"__builtin_strncat"
.LC106:
	.string	"__builtin_strcpy"
.LC107:
	.string	"__builtin_strncpy"
.LC108:
	.string	"__builtin_strcmp"
.LC109:
	.string	"__builtin_strncmp"
.LC110:
	.string	"__builtin_strlen"
.LC111:
	.string	"__builtin_strstr"
.LC112:
	.string	"__builtin_strpbrk"
.LC113:
	.string	"__builtin_strspn"
.LC114:
	.string	"__builtin_strcspn"
.LC115:
	.string	"__builtin_strchr"
.LC116:
	.string	"__builtin_strrchr"
.LC117:
	.string	"__builtin_sqrt"
.LC118:
	.string	"__builtin_sin"
.LC119:
	.string	"__builtin_cos"
.LC120:
	.string	"__builtin_sqrtf"
.LC121:
	.string	"__builtin_sinf"
.LC122:
	.string	"__builtin_cosf"
.LC123:
	.string	"__builtin_sqrtl"
.LC124:
	.string	"__builtin_sinl"
.LC125:
	.string	"__builtin_cosl"
.LC126:
	.string	"__builtin_saveregs"
.LC127:
	.string	"__builtin_classify_type"
.LC128:
	.string	"__builtin_next_arg"
.LC129:
	.string	"__builtin_args_info"
.LC130:
	.string	"__builtin_constant_p"
.LC131:
	.string	"__builtin_frame_address"
.LC132:
	.string	"__builtin_return_address"
	.align 8
.LC133:
	.string	"__builtin_aggregate_incoming_address"
.LC134:
	.string	"__builtin_apply_args"
.LC135:
	.string	"__builtin_apply"
.LC136:
	.string	"__builtin_return"
.LC137:
	.string	"__builtin_setjmp"
.LC138:
	.string	"__builtin_longjmp"
.LC139:
	.string	"__builtin_trap"
.LC140:
	.string	"__builtin_prefetch"
.LC141:
	.string	"__builtin_putchar"
.LC142:
	.string	"__builtin_puts"
.LC143:
	.string	"__builtin_printf"
.LC144:
	.string	"__builtin_fputc"
.LC145:
	.string	"__builtin_fputs"
.LC146:
	.string	"__builtin_fwrite"
.LC147:
	.string	"__builtin_fprintf"
.LC148:
	.string	"__builtin_putchar_unlocked"
.LC149:
	.string	"__builtin_puts_unlocked"
.LC150:
	.string	"__builtin_printf_unlocked"
.LC151:
	.string	"__builtin_fputc_unlocked"
.LC152:
	.string	"__builtin_fputs_unlocked"
.LC153:
	.string	"__builtin_fwrite_unlocked"
.LC154:
	.string	"__builtin_fprintf_unlocked"
.LC155:
	.string	"__builtin_isgreater"
.LC156:
	.string	"__builtin_isgreaterequal"
.LC157:
	.string	"__builtin_isless"
.LC158:
	.string	"__builtin_islessequal"
.LC159:
	.string	"__builtin_islessgreater"
.LC160:
	.string	"__builtin_isunordered"
.LC161:
	.string	"__builtin_unwind_init"
.LC162:
	.string	"__builtin_dwarf_cfa"
.LC163:
	.string	"__builtin_dwarf_fp_regnum"
	.align 8
.LC164:
	.string	"__builtin_init_dwarf_reg_size_table"
.LC165:
	.string	"__builtin_frob_return_addr"
.LC166:
	.string	"__builtin_extract_return_addr"
.LC167:
	.string	"__builtin_eh_return"
	.align 8
.LC168:
	.string	"__builtin_eh_return_data_regno"
.LC169:
	.string	"__builtin_varargs_start"
.LC170:
	.string	"__builtin_stdarg_start"
.LC171:
	.string	"__builtin_va_end"
.LC172:
	.string	"__builtin_va_copy"
.LC173:
	.string	"__builtin_expect"
.LC174:
	.string	"_exit"
.LC175:
	.string	"_Exit"
.LC176:
	.string	"abort"
.LC177:
	.string	"exit"
.LC178:
	.string	"main"
	.text
	.globl	c_common_nodes_and_builtins
	.type	c_common_nodes_and_builtins, @function
c_common_nodes_and_builtins:
.LFB46:
	.loc 1 2497 0
	.cfi_startproc
	pushq	%rbp	#
	.cfi_def_cfa_offset 16
	.cfi_offset 6, -16
	movq	%rsp, %rbp	#,
	.cfi_def_cfa_register 6
	pushq	%rbx	#
	subq	$1480, %rsp	#,
	.cfi_offset 3, -24
	.loc 1 2539 0
	movq	$c_format_attribute_table, format_attribute_table(%rip)	#, format_attribute_table
	.loc 1 2542 0
	movq	integer_types+40(%rip), %rax	# integer_types, D.19799
	movq	%rax, %rdx	# D.19799,
	movl	$0, %esi	#,
	movl	$27, %edi	#,
	call	record_builtin_type	#
	.loc 1 2543 0
	movq	integer_types(%rip), %rax	# integer_types, D.19799
	movq	%rax, %rdx	# D.19799,
	movl	$.LC54, %esi	#,
	movl	$28, %edi	#,
	call	record_builtin_type	#
	.loc 1 2548 0
	movl	c_language(%rip), %eax	# c_language, c_language.232
	cmpl	$1, %eax	#, c_language.232
	jne	.L621	#,
	.loc 1 2549 0
	movq	integer_types+40(%rip), %rax	# integer_types, D.19799
	movq	%rax, %rdx	# D.19799,
	movl	$0, %esi	#,
	movl	$10, %edi	#,
	call	record_builtin_type	#
.L621:
	.loc 1 2550 0
	movq	integer_types+56(%rip), %rax	# integer_types, D.19799
	movq	%rax, %rdx	# D.19799,
	movl	$.LC55, %esi	#,
	movl	$2, %edi	#,
	call	record_builtin_type	#
	.loc 1 2551 0
	movq	integer_types+48(%rip), %rax	# integer_types, D.19799
	movq	%rax, %rdx	# D.19799,
	movl	$.LC56, %esi	#,
	movl	$1, %edi	#,
	call	record_builtin_type	#
	.loc 1 2552 0
	movq	integer_types+64(%rip), %rax	# integer_types, D.19799
	movq	%rax, %rdx	# D.19799,
	movl	$.LC57, %esi	#,
	movl	$114, %edi	#,
	call	record_builtin_type	#
	.loc 1 2554 0
	movl	c_language(%rip), %eax	# c_language, c_language.233
	cmpl	$1, %eax	#, c_language.233
	jne	.L622	#,
	.loc 1 2555 0
	movq	integer_types+64(%rip), %rax	# integer_types, D.19799
	movq	%rax, %rdx	# D.19799,
	movl	$.LC58, %esi	#,
	movl	$114, %edi	#,
	call	record_builtin_type	#
.L622:
	.loc 1 2556 0
	movq	integer_types+72(%rip), %rax	# integer_types, D.19799
	movq	%rax, %rdx	# D.19799,
	movl	$.LC59, %esi	#,
	movl	$114, %edi	#,
	call	record_builtin_type	#
	.loc 1 2558 0
	movq	integer_types+80(%rip), %rax	# integer_types, D.19799
	movq	%rax, %rdx	# D.19799,
	movl	$.LC60, %esi	#,
	movl	$114, %edi	#,
	call	record_builtin_type	#
	.loc 1 2560 0
	movl	c_language(%rip), %eax	# c_language, c_language.234
	cmpl	$1, %eax	#, c_language.234
	jne	.L623	#,
	.loc 1 2561 0
	movq	integer_types+80(%rip), %rax	# integer_types, D.19799
	movq	%rax, %rdx	# D.19799,
	movl	$.LC61, %esi	#,
	movl	$114, %edi	#,
	call	record_builtin_type	#
.L623:
	.loc 1 2563 0
	movq	integer_types+24(%rip), %rax	# integer_types, D.19799
	movq	%rax, %rdx	# D.19799,
	movl	$.LC62, %esi	#,
	movl	$7, %edi	#,
	call	record_builtin_type	#
	.loc 1 2564 0
	movq	integer_types+32(%rip), %rax	# integer_types, D.19799
	movq	%rax, %rdx	# D.19799,
	movl	$.LC63, %esi	#,
	movl	$114, %edi	#,
	call	record_builtin_type	#
	.loc 1 2566 0
	movl	c_language(%rip), %eax	# c_language, c_language.235
	cmpl	$1, %eax	#, c_language.235
	jne	.L624	#,
	.loc 1 2567 0
	movq	integer_types+32(%rip), %rax	# integer_types, D.19799
	movq	%rax, %rdx	# D.19799,
	movl	$.LC64, %esi	#,
	movl	$114, %edi	#,
	call	record_builtin_type	#
.L624:
	.loc 1 2571 0
	movq	integer_types+8(%rip), %rax	# integer_types, D.19799
	movq	%rax, %rdx	# D.19799,
	movl	$.LC65, %esi	#,
	movl	$114, %edi	#,
	call	record_builtin_type	#
	.loc 1 2572 0
	movq	integer_types+16(%rip), %rax	# integer_types, D.19799
	movq	%rax, %rdx	# D.19799,
	movl	$.LC66, %esi	#,
	movl	$114, %edi	#,
	call	record_builtin_type	#
	.loc 1 2575 0
	movq	global_trees+8(%rip), %rax	# global_trees, D.19799
	movq	%rax, %rdx	# D.19799,
	movl	$0, %esi	#,
	movl	$33, %edi	#,
	call	build_decl	#
	movq	%rax, %rdi	# D.19799,
	call	pushdecl	#
	.loc 1 2576 0
	movq	global_trees+16(%rip), %rax	# global_trees, D.19799
	movq	%rax, %rdx	# D.19799,
	movl	$0, %esi	#,
	movl	$33, %edi	#,
	call	build_decl	#
	movq	%rax, %rdi	# D.19799,
	call	pushdecl	#
	.loc 1 2577 0
	movq	global_trees+24(%rip), %rax	# global_trees, D.19799
	movq	%rax, %rdx	# D.19799,
	movl	$0, %esi	#,
	movl	$33, %edi	#,
	call	build_decl	#
	movq	%rax, %rdi	# D.19799,
	call	pushdecl	#
	.loc 1 2578 0
	movq	global_trees+32(%rip), %rax	# global_trees, D.19799
	movq	%rax, %rdx	# D.19799,
	movl	$0, %esi	#,
	movl	$33, %edi	#,
	call	build_decl	#
	movq	%rax, %rdi	# D.19799,
	call	pushdecl	#
	.loc 1 2580 0
	movq	global_trees+40(%rip), %rbx	# global_trees, D.19799
	movl	$.LC67, %edi	#,
	call	get_identifier	#
	movq	%rbx, %rdx	# D.19799,
	movq	%rax, %rsi	# D.19799,
	movl	$33, %edi	#,
	call	build_decl	#
	movq	%rax, %rdi	# D.19799,
	call	pushdecl	#
	.loc 1 2582 0
	movq	global_trees+48(%rip), %rax	# global_trees, D.19799
	movq	%rax, %rdx	# D.19799,
	movl	$0, %esi	#,
	movl	$33, %edi	#,
	call	build_decl	#
	movq	%rax, %rdi	# D.19799,
	call	pushdecl	#
	.loc 1 2583 0
	movq	global_trees+56(%rip), %rax	# global_trees, D.19799
	movq	%rax, %rdx	# D.19799,
	movl	$0, %esi	#,
	movl	$33, %edi	#,
	call	build_decl	#
	movq	%rax, %rdi	# D.19799,
	call	pushdecl	#
	.loc 1 2584 0
	movq	global_trees+64(%rip), %rax	# global_trees, D.19799
	movq	%rax, %rdx	# D.19799,
	movl	$0, %esi	#,
	movl	$33, %edi	#,
	call	build_decl	#
	movq	%rax, %rdi	# D.19799,
	call	pushdecl	#
	.loc 1 2585 0
	movq	global_trees+72(%rip), %rax	# global_trees, D.19799
	movq	%rax, %rdx	# D.19799,
	movl	$0, %esi	#,
	movl	$33, %edi	#,
	call	build_decl	#
	movq	%rax, %rdi	# D.19799,
	call	pushdecl	#
	.loc 1 2587 0
	movq	global_trees+80(%rip), %rbx	# global_trees, D.19799
	movl	$.LC68, %edi	#,
	call	get_identifier	#
	movq	%rbx, %rdx	# D.19799,
	movq	%rax, %rsi	# D.19799,
	movl	$33, %edi	#,
	call	build_decl	#
	movq	%rax, %rdi	# D.19799,
	call	pushdecl	#
	.loc 1 2592 0
	movl	$128, %edi	#,
	call	make_signed_type	#
	movq	%rax, c_global_trees+72(%rip)	# D.19799, c_global_trees
	.loc 1 2593 0
	movq	c_global_trees+72(%rip), %rax	# c_global_trees, D.19799
	movq	%rax, %rdx	# D.19799,
	movl	$0, %esi	#,
	movl	$33, %edi	#,
	call	build_decl	#
	movq	%rax, %rdi	# D.19799,
	call	pushdecl	#
	.loc 1 2597 0
	movl	$128, %edi	#,
	call	make_unsigned_type	#
	movq	%rax, c_global_trees+80(%rip)	# D.19799, c_global_trees
	.loc 1 2598 0
	movq	c_global_trees+80(%rip), %rax	# c_global_trees, D.19799
	movq	%rax, %rdx	# D.19799,
	movl	$0, %esi	#,
	movl	$33, %edi	#,
	call	build_decl	#
	movq	%rax, %rdi	# D.19799,
	call	pushdecl	#
	.loc 1 2605 0
	movl	target_flags(%rip), %eax	# target_flags, target_flags.237
	andl	$33554432, %eax	#, D.19800
	testl	%eax, %eax	# D.19800
	je	.L625	#,
	.loc 1 2605 0 is_stmt 0 discriminator 1
	movl	$.LC57, %eax	#, iftmp.236
	jmp	.L626	#
.L625:
	.loc 1 2605 0 discriminator 2
	movl	$.LC56, %eax	#, iftmp.236
.L626:
	.loc 1 2605 0 discriminator 3
	movq	%rax, %rdi	# iftmp.236,
	call	get_identifier	#
	movq	%rax, %rdi	# D.19799,
	call	identifier_global_value	#
	movq	8(%rax), %rax	# _65->common.type, D.19799
	.loc 1 2604 0 is_stmt 1 discriminator 3
	movq	%rax, c_global_trees+32(%rip)	# D.19799, c_global_trees
	.loc 1 2606 0 discriminator 3
	movq	c_global_trees+32(%rip), %rax	# c_global_trees, D.19799
	movq	%rax, %rdi	# D.19799,
	call	signed_type	#
	movq	%rax, c_global_trees+40(%rip)	# D.19799, c_global_trees
	.loc 1 2607 0 discriminator 3
	movl	flag_traditional(%rip), %eax	# flag_traditional, flag_traditional.238
	testl	%eax, %eax	# flag_traditional.238
	je	.L627	#,
	.loc 1 2608 0
	movq	c_global_trees+40(%rip), %rax	# c_global_trees, D.19799
	movq	%rax, c_global_trees+32(%rip)	# D.19799, c_global_trees
.L627:
	.loc 1 2609 0
	movq	c_global_trees+32(%rip), %rax	# c_global_trees, D.19799
	movq	%rax, %rdi	# D.19799,
	call	set_sizetype	#
	.loc 1 2611 0
	movl	flag_short_double(%rip), %eax	# flag_short_double, flag_short_double.239
	movl	%eax, %edi	# flag_short_double.239,
	call	build_common_tree_nodes_2	#
	.loc 1 2613 0
	movq	global_trees+192(%rip), %rax	# global_trees, D.19799
	movq	%rax, %rdx	# D.19799,
	movl	$0, %esi	#,
	movl	$29, %edi	#,
	call	record_builtin_type	#
	.loc 1 2614 0
	movq	global_trees+200(%rip), %rax	# global_trees, D.19799
	movq	%rax, %rdx	# D.19799,
	movl	$0, %esi	#,
	movl	$30, %edi	#,
	call	record_builtin_type	#
	.loc 1 2615 0
	movq	global_trees+208(%rip), %rax	# global_trees, D.19799
	movq	%rax, %rdx	# D.19799,
	movl	$.LC69, %esi	#,
	movl	$114, %edi	#,
	call	record_builtin_type	#
	.loc 1 2617 0
	movq	global_trees+160(%rip), %rbx	# global_trees, D.19799
	movl	$.LC70, %edi	#,
	call	get_identifier	#
	movq	%rbx, %rdx	# D.19799,
	movq	%rax, %rsi	# D.19799,
	movl	$33, %edi	#,
	call	build_decl	#
	movq	%rax, %rdi	# D.19799,
	call	pushdecl	#
	.loc 1 2619 0
	movq	global_trees+168(%rip), %rbx	# global_trees, D.19799
	movl	$.LC71, %edi	#,
	call	get_identifier	#
	movq	%rbx, %rdx	# D.19799,
	movq	%rax, %rsi	# D.19799,
	movl	$33, %edi	#,
	call	build_decl	#
	movq	%rax, %rdi	# D.19799,
	call	pushdecl	#
	.loc 1 2621 0
	movq	global_trees+176(%rip), %rbx	# global_trees, D.19799
	movl	$.LC72, %edi	#,
	call	get_identifier	#
	movq	%rbx, %rdx	# D.19799,
	movq	%rax, %rsi	# D.19799,
	movl	$33, %edi	#,
	call	build_decl	#
	movq	%rax, %rdi	# D.19799,
	call	pushdecl	#
	.loc 1 2623 0
	movq	global_trees+184(%rip), %rbx	# global_trees, D.19799
	movl	$.LC73, %edi	#,
	call	get_identifier	#
	movq	%rbx, %rdx	# D.19799,
	movq	%rax, %rsi	# D.19799,
	movl	$33, %edi	#,
	call	build_decl	#
	movq	%rax, %rdi	# D.19799,
	call	pushdecl	#
	.loc 1 2626 0
	movq	global_trees+216(%rip), %rax	# global_trees, D.19799
	movq	%rax, %rdx	# D.19799,
	movl	$0, %esi	#,
	movl	$31, %edi	#,
	call	record_builtin_type	#
	.loc 1 2628 0
	movl	$0, %esi	#,
	movl	$0, %edi	#,
	call	build_int_2_wide	#
	movq	%rax, c_global_trees+248(%rip)	# D.19799, c_global_trees
	.loc 1 2629 0
	movq	c_global_trees+248(%rip), %rax	# c_global_trees, D.19799
	movq	global_trees+216(%rip), %rdx	# global_trees, D.19799
	movq	%rdx, 8(%rax)	# D.19799, _90->common.type
	.loc 1 2631 0
	call	build_void_list_node	#
	movq	%rax, global_trees+256(%rip)	# D.19799, global_trees
	.loc 1 2638 0
	movl	$0, %esi	#,
	movl	$200, %edi	#,
	call	size_int_wide	#
	movq	%rax, %rdi	# D.19799,
	call	build_index_type	#
	movq	%rax, -1432(%rbp)	# tmp747, array_domain_type
	.loc 1 2644 0
	movq	integer_types(%rip), %rax	# integer_types, D.19799
	movq	-1432(%rbp), %rdx	# array_domain_type, tmp748
	movq	%rdx, %rsi	# tmp748,
	movq	%rax, %rdi	# D.19799,
	call	build_array_type	#
	movq	%rax, c_global_trees+88(%rip)	# D.19799, c_global_trees
	.loc 1 2648 0
	movq	integer_types+40(%rip), %rax	# integer_types, D.19799
	movq	-1432(%rbp), %rdx	# array_domain_type, tmp749
	movq	%rdx, %rsi	# tmp749,
	movq	%rax, %rdi	# D.19799,
	call	build_array_type	#
	movq	%rax, c_global_trees+104(%rip)	# D.19799, c_global_trees
	.loc 1 2650 0
	movq	integer_types(%rip), %rax	# integer_types, D.19799
	movq	%rax, %rdi	# D.19799,
	call	build_pointer_type	#
	movq	%rax, c_global_trees+112(%rip)	# D.19799, c_global_trees
	.loc 1 2652 0
	movq	integer_types(%rip), %rax	# integer_types, D.19799
	movl	$1, %esi	#,
	movq	%rax, %rdi	# D.19799,
	call	build_qualified_type	#
	movq	%rax, %rdi	# D.19799,
	call	build_pointer_type	#
	movq	%rax, c_global_trees+120(%rip)	# D.19799, c_global_trees
	.loc 1 2655 0
	movl	flag_traditional(%rip), %eax	# flag_traditional, flag_traditional.241
	.loc 1 2657 0
	testl	%eax, %eax	# flag_traditional.241
	je	.L628	#,
	.loc 1 2656 0
	movl	c_language(%rip), %eax	# c_language, c_language.242
	.loc 1 2655 0
	cmpl	$1, %eax	#, c_language.242
	je	.L628	#,
	.loc 1 2657 0
	movq	c_global_trees+112(%rip), %rax	# c_global_trees, iftmp.240
	jmp	.L629	#
.L628:
	.loc 1 2657 0 is_stmt 0 discriminator 1
	movq	global_trees+224(%rip), %rax	# global_trees, iftmp.240
.L629:
	.loc 1 2655 0 is_stmt 1
	movq	%rax, -1424(%rbp)	# iftmp.240, traditional_ptr_type_node
	.loc 1 2658 0
	movl	flag_traditional(%rip), %eax	# flag_traditional, flag_traditional.244
	.loc 1 2660 0
	testl	%eax, %eax	# flag_traditional.244
	je	.L630	#,
	.loc 1 2659 0
	movl	c_language(%rip), %eax	# c_language, c_language.245
	.loc 1 2658 0
	cmpl	$1, %eax	#, c_language.245
	je	.L630	#,
	.loc 1 2660 0
	movq	c_global_trees+120(%rip), %rax	# c_global_trees, iftmp.243
	jmp	.L631	#
.L630:
	.loc 1 2660 0 is_stmt 0 discriminator 1
	movq	global_trees+232(%rip), %rax	# global_trees, iftmp.243
.L631:
	.loc 1 2658 0 is_stmt 1
	movq	%rax, -1416(%rbp)	# iftmp.243, traditional_cptr_type_node
	.loc 1 2662 0
	movq	targetm+304(%rip), %rax	# targetm.init_builtins, D.19801
	call	*%rax	# D.19801
	.loc 1 2666 0
	movl	flag_short_wchar(%rip), %eax	# flag_short_wchar, flag_short_wchar.247
	.loc 1 2665 0
	testl	%eax, %eax	# flag_short_wchar.247
	je	.L632	#,
	.loc 1 2665 0 is_stmt 0 discriminator 1
	movl	$.LC63, %eax	#, iftmp.246
	jmp	.L633	#
.L632:
	.loc 1 2665 0 discriminator 2
	movl	$.LC74, %eax	#, iftmp.246
.L633:
	.loc 1 2665 0 discriminator 3
	movq	%rax, %rdi	# iftmp.246,
	call	get_identifier	#
	movq	%rax, c_global_trees(%rip)	# D.19799, c_global_trees
	.loc 1 2668 0 is_stmt 1 discriminator 3
	movq	c_global_trees(%rip), %rax	# c_global_trees, D.19799
	movq	%rax, %rdi	# D.19799,
	call	identifier_global_value	#
	movq	8(%rax), %rax	# _120->common.type, D.19799
	movq	%rax, c_global_trees(%rip)	# D.19799, c_global_trees
	.loc 1 2669 0 discriminator 3
	movq	c_global_trees(%rip), %rax	# c_global_trees, D.19799
	movzwl	60(%rax), %eax	# *_122, tmp752
	andw	$511, %ax	#, D.19802
	movzwl	%ax, %eax	# D.19802, tmp753
	movl	%eax, -1452(%rbp)	# tmp753, wchar_type_size
	.loc 1 2670 0 discriminator 3
	movl	c_language(%rip), %eax	# c_language, c_language.248
	cmpl	$1, %eax	#, c_language.248
	jne	.L634	#,
	.loc 1 2672 0
	movq	c_global_trees(%rip), %rax	# c_global_trees, D.19799
	movzbl	17(%rax), %eax	# *_126, D.19803
	andl	$32, %eax	#, D.19803
	testb	%al, %al	# D.19803
	je	.L635	#,
	.loc 1 2673 0
	movl	-1452(%rbp), %eax	# wchar_type_size, tmp754
	movl	%eax, %edi	# tmp754,
	call	make_unsigned_type	#
	movq	%rax, c_global_trees(%rip)	# D.19799, c_global_trees
	jmp	.L636	#
.L635:
	.loc 1 2675 0
	movl	-1452(%rbp), %eax	# wchar_type_size, tmp755
	movl	%eax, %edi	# tmp755,
	call	make_signed_type	#
	movq	%rax, c_global_trees(%rip)	# D.19799, c_global_trees
.L636:
	.loc 1 2676 0 discriminator 1
	movq	c_global_trees(%rip), %rax	# c_global_trees, D.19799
	movq	%rax, %rdx	# D.19799,
	movl	$.LC75, %esi	#,
	movl	$66, %edi	#,
	call	record_builtin_type	#
	jmp	.L637	#
.L634:
	.loc 1 2680 0
	movq	c_global_trees(%rip), %rax	# c_global_trees, D.19799
	movq	%rax, %rdi	# D.19799,
	call	signed_type	#
	movq	%rax, c_global_trees+8(%rip)	# D.19799, c_global_trees
	.loc 1 2681 0
	movq	c_global_trees(%rip), %rax	# c_global_trees, D.19799
	movq	%rax, %rdi	# D.19799,
	call	unsigned_type	#
	movq	%rax, c_global_trees+16(%rip)	# D.19799, c_global_trees
.L637:
	.loc 1 2686 0
	movq	c_global_trees(%rip), %rax	# c_global_trees, D.19799
	movq	-1432(%rbp), %rdx	# array_domain_type, tmp756
	movq	%rdx, %rsi	# tmp756,
	movq	%rax, %rdi	# D.19799,
	call	build_array_type	#
	movq	%rax, c_global_trees+96(%rip)	# D.19799, c_global_trees
	.loc 1 2689 0
	movl	$.LC56, %edi	#,
	call	get_identifier	#
	movq	%rax, %rdi	# D.19799,
	call	identifier_global_value	#
	movq	8(%rax), %rax	# _139->common.type, D.19799
	.loc 1 2688 0
	movq	%rax, c_global_trees+24(%rip)	# D.19799, c_global_trees
	.loc 1 2692 0
	movl	target_flags(%rip), %eax	# target_flags, target_flags.250
	andl	$33554432, %eax	#, D.19800
	testl	%eax, %eax	# D.19800
	je	.L638	#,
	.loc 1 2692 0 is_stmt 0 discriminator 1
	movl	$.LC55, %eax	#, iftmp.249
	jmp	.L639	#
.L638:
	.loc 1 2692 0 discriminator 2
	movl	$.LC59, %eax	#, iftmp.249
.L639:
	.loc 1 2692 0 discriminator 3
	movq	%rax, %rdi	# iftmp.249,
	call	get_identifier	#
	movq	%rax, %rdi	# D.19799,
	call	identifier_global_value	#
	movq	8(%rax), %rax	# _146->common.type, D.19799
	.loc 1 2691 0 is_stmt 1 discriminator 3
	movq	%rax, c_global_trees+56(%rip)	# D.19799, c_global_trees
	.loc 1 2694 0 discriminator 3
	movl	target_flags(%rip), %eax	# target_flags, target_flags.252
	andl	$33554432, %eax	#, D.19800
	testl	%eax, %eax	# D.19800
	je	.L640	#,
	.loc 1 2694 0 is_stmt 0 discriminator 1
	movl	$.LC57, %eax	#, iftmp.251
	jmp	.L641	#
.L640:
	.loc 1 2694 0 discriminator 2
	movl	$.LC60, %eax	#, iftmp.251
.L641:
	.loc 1 2694 0 discriminator 3
	movq	%rax, %rdi	# iftmp.251,
	call	get_identifier	#
	movq	%rax, %rdi	# D.19799,
	call	identifier_global_value	#
	movq	8(%rax), %rax	# _153->common.type, D.19799
	.loc 1 2693 0 is_stmt 1 discriminator 3
	movq	%rax, c_global_trees+64(%rip)	# D.19799, c_global_trees
	.loc 1 2696 0 discriminator 3
	movq	integer_types+40(%rip), %rax	# integer_types, D.19799
	movl	$0, %esi	#,
	movq	%rax, %rdi	# D.19799,
	call	build_function_type	#
	movq	%rax, c_global_trees+176(%rip)	# D.19799, c_global_trees
	.loc 1 2698 0 discriminator 3
	movl	target_flags(%rip), %eax	# target_flags, target_flags.254
	andl	$33554432, %eax	#, D.19800
	testl	%eax, %eax	# D.19800
	je	.L642	#,
	.loc 1 2698 0 is_stmt 0 discriminator 1
	movl	$.LC55, %eax	#, iftmp.253
	jmp	.L643	#
.L642:
	.loc 1 2698 0 discriminator 2
	movl	$.LC74, %eax	#, iftmp.253
.L643:
	.loc 1 2698 0 discriminator 3
	movq	%rax, %rdi	# iftmp.253,
	call	get_identifier	#
	movq	%rax, %rdi	# D.19799,
	call	identifier_global_value	#
	movq	8(%rax), %rax	# _162->common.type, D.19799
	movq	%rax, global_trees+240(%rip)	# D.19799, global_trees
	.loc 1 2699 0 is_stmt 1 discriminator 3
	movq	global_trees+240(%rip), %rax	# global_trees, D.19799
	movq	%rax, %rdi	# D.19799,
	call	unsigned_type	#
	movq	%rax, c_global_trees+48(%rip)	# D.19799, c_global_trees
	.loc 1 2701 0 discriminator 3
	movq	global_trees+248(%rip), %rbx	# global_trees, D.19799
	movl	$.LC76, %edi	#,
	call	get_identifier	#
	movq	%rbx, %rdx	# D.19799,
	movq	%rax, %rsi	# D.19799,
	movl	$33, %edi	#,
	call	build_decl	#
	movq	%rax, %rdi	# D.19799,
	call	pushdecl	#
	.loc 1 2704 0 discriminator 3
	movq	global_trees+240(%rip), %rbx	# global_trees, D.19799
	movl	$.LC77, %edi	#,
	call	get_identifier	#
	movq	%rbx, %rdx	# D.19799,
	movq	%rax, %rsi	# D.19799,
	movl	$33, %edi	#,
	call	build_decl	#
	movq	%rax, %rdi	# D.19799,
	call	pushdecl	#
	.loc 1 2707 0 discriminator 3
	movq	sizetype_tab(%rip), %rbx	# sizetype_tab, D.19799
	movl	$.LC78, %edi	#,
	call	get_identifier	#
	movq	%rbx, %rdx	# D.19799,
	movq	%rax, %rsi	# D.19799,
	movl	$33, %edi	#,
	call	build_decl	#
	movq	%rax, %rdi	# D.19799,
	call	pushdecl	#
	.loc 1 2710 0 discriminator 3
	movq	global_trees+248(%rip), %rax	# global_trees, D.19799
	movzbl	16(%rax), %eax	# _175->common.code, D.19803
	cmpb	$18, %al	#, D.19803
	jne	.L644	#,
	.loc 1 2713 0
	movq	global_trees+248(%rip), %rax	# global_trees, D.19799
	movq	8(%rax), %rax	# _177->common.type, D.19799
	.loc 1 2712 0
	movq	%rax, %rdi	# D.19799,
	call	build_pointer_type	#
	movq	%rax, -1448(%rbp)	# tmp757, va_list_ref_type_node
	movq	-1448(%rbp), %rax	# va_list_ref_type_node, tmp758
	movq	%rax, -1440(%rbp)	# tmp758, va_list_arg_type_node
	jmp	.L645	#
.L644:
	.loc 1 2717 0
	movq	global_trees+248(%rip), %rax	# global_trees, tmp759
	movq	%rax, -1440(%rbp)	# tmp759, va_list_arg_type_node
	.loc 1 2718 0
	movq	global_trees+248(%rip), %rax	# global_trees, D.19799
	movq	%rax, %rdi	# D.19799,
	call	build_reference_type	#
	movq	%rax, -1448(%rbp)	# tmp760, va_list_ref_type_node
.L645:
	.loc 1 2721 0
	movl	flag_traditional(%rip), %eax	# flag_traditional, flag_traditional.256
	.loc 1 2723 0
	testl	%eax, %eax	# flag_traditional.256
	je	.L646	#,
	.loc 1 2722 0
	movl	c_language(%rip), %eax	# c_language, c_language.257
	.loc 1 2721 0
	cmpl	$1, %eax	#, c_language.257
	je	.L646	#,
	.loc 1 2723 0
	movq	integer_types+40(%rip), %rax	# integer_types, iftmp.255
	jmp	.L647	#
.L646:
	.loc 1 2723 0 is_stmt 0 discriminator 1
	movq	sizetype_tab(%rip), %rax	# sizetype_tab, iftmp.255
.L647:
	.loc 1 2721 0 is_stmt 1
	movq	%rax, -1408(%rbp)	# iftmp.255, traditional_len_type_node
	.file 2 "builtin-types.def"
	.loc 2 61 0
	movq	global_trees+216(%rip), %rax	# global_trees, D.19799
	movq	%rax, -640(%rbp)	# D.19799, builtin_types
	.loc 2 62 0
	movq	integer_types+40(%rip), %rax	# integer_types, D.19799
	movq	%rax, -632(%rbp)	# D.19799, builtin_types
	.loc 2 63 0
	movq	integer_types+48(%rip), %rax	# integer_types, D.19799
	movq	%rax, -624(%rbp)	# D.19799, builtin_types
	.loc 2 64 0
	movq	integer_types+56(%rip), %rax	# integer_types, D.19799
	movq	%rax, -616(%rbp)	# D.19799, builtin_types
	.loc 2 65 0
	movq	integer_types+72(%rip), %rax	# integer_types, D.19799
	movq	%rax, -608(%rbp)	# D.19799, builtin_types
	.loc 2 66 0
	movq	global_trees+192(%rip), %rax	# global_trees, D.19799
	movq	%rax, -600(%rbp)	# D.19799, builtin_types
	.loc 2 67 0
	movq	c_global_trees+56(%rip), %rax	# c_global_trees, D.19799
	movq	%rax, -592(%rbp)	# D.19799, builtin_types
	.loc 2 68 0
	movq	global_trees+200(%rip), %rax	# global_trees, D.19799
	movq	%rax, -584(%rbp)	# D.19799, builtin_types
	.loc 2 69 0
	movq	global_trees+208(%rip), %rax	# global_trees, D.19799
	movq	%rax, -576(%rbp)	# D.19799, builtin_types
	.loc 2 70 0
	movq	global_trees+168(%rip), %rax	# global_trees, D.19799
	movq	%rax, -568(%rbp)	# D.19799, builtin_types
	.loc 2 71 0
	movq	global_trees+176(%rip), %rax	# global_trees, D.19799
	movq	%rax, -560(%rbp)	# D.19799, builtin_types
	.loc 2 72 0
	movq	global_trees+184(%rip), %rax	# global_trees, D.19799
	movq	%rax, -552(%rbp)	# D.19799, builtin_types
	.loc 2 74 0
	movq	global_trees+224(%rip), %rax	# global_trees, D.19799
	movq	%rax, -544(%rbp)	# D.19799, builtin_types
	.loc 2 75 0
	movq	global_trees+232(%rip), %rax	# global_trees, D.19799
	movq	%rax, -536(%rbp)	# D.19799, builtin_types
	.loc 2 76 0
	movq	-1424(%rbp), %rax	# traditional_ptr_type_node, tmp761
	movq	%rax, -528(%rbp)	# tmp761, builtin_types
	.loc 2 77 0
	movq	-1416(%rbp), %rax	# traditional_cptr_type_node, tmp762
	movq	%rax, -520(%rbp)	# tmp762, builtin_types
	.loc 2 78 0
	movl	ptr_mode(%rip), %eax	# ptr_mode, ptr_mode.258
	movl	$0, %esi	#,
	movl	%eax, %edi	# ptr_mode.258,
	call	type_for_mode	#
	movq	%rax, -512(%rbp)	# D.19799, builtin_types
	.loc 2 79 0
	movq	c_global_trees+32(%rip), %rax	# c_global_trees, D.19799
	movq	%rax, -504(%rbp)	# D.19799, builtin_types
	.loc 2 80 0
	movq	c_global_trees+112(%rip), %rax	# c_global_trees, D.19799
	movq	%rax, -496(%rbp)	# D.19799, builtin_types
	.loc 2 81 0
	movq	c_global_trees+120(%rip), %rax	# c_global_trees, D.19799
	movq	%rax, -488(%rbp)	# D.19799, builtin_types
	.loc 2 82 0
	movq	-1408(%rbp), %rax	# traditional_len_type_node, tmp763
	movq	%rax, -480(%rbp)	# tmp763, builtin_types
	.loc 2 84 0
	movq	-1448(%rbp), %rax	# va_list_ref_type_node, tmp764
	movq	%rax, -472(%rbp)	# tmp764, builtin_types
	.loc 2 85 0
	movq	-1440(%rbp), %rax	# va_list_arg_type_node, tmp765
	movq	%rax, -464(%rbp)	# tmp765, builtin_types
	.loc 2 87 0
	movq	global_trees+256(%rip), %rdx	# global_trees, D.19799
	movq	-640(%rbp), %rax	# builtin_types, D.19799
	movq	%rdx, %rsi	# D.19799,
	movq	%rax, %rdi	# D.19799,
	call	build_function_type	#
	movq	%rax, -456(%rbp)	# D.19799, builtin_types
	.loc 2 88 0
	movq	global_trees+256(%rip), %rdx	# global_trees, D.19799
	movq	-544(%rbp), %rax	# builtin_types, D.19799
	movq	%rdx, %rsi	# D.19799,
	movq	%rax, %rdi	# D.19799,
	call	build_function_type	#
	movq	%rax, -448(%rbp)	# D.19799, builtin_types
	.loc 2 89 0
	movq	global_trees+256(%rip), %rdx	# global_trees, D.19799
	movq	-624(%rbp), %rax	# builtin_types, D.19799
	movq	%rdx, %rsi	# D.19799,
	movq	%rax, %rdi	# D.19799,
	call	build_function_type	#
	movq	%rax, -440(%rbp)	# D.19799, builtin_types
	.loc 2 91 0
	movq	global_trees+256(%rip), %rdx	# global_trees, D.19799
	movq	-616(%rbp), %rax	# builtin_types, D.19799
	movq	%rax, %rsi	# D.19799,
	movl	$0, %edi	#,
	call	tree_cons	#
	movq	%rax, %rdx	#, D.19799
	movq	-616(%rbp), %rax	# builtin_types, D.19799
	movq	%rdx, %rsi	# D.19799,
	movq	%rax, %rdi	# D.19799,
	call	build_function_type	#
	movq	%rax, -432(%rbp)	# D.19799, builtin_types
	.loc 2 92 0
	movq	global_trees+256(%rip), %rdx	# global_trees, D.19799
	movq	-608(%rbp), %rax	# builtin_types, D.19799
	movq	%rax, %rsi	# D.19799,
	movl	$0, %edi	#,
	call	tree_cons	#
	movq	%rax, %rdx	#, D.19799
	movq	-608(%rbp), %rax	# builtin_types, D.19799
	movq	%rdx, %rsi	# D.19799,
	movq	%rax, %rdi	# D.19799,
	call	build_function_type	#
	movq	%rax, -424(%rbp)	# D.19799, builtin_types
	.loc 2 93 0
	movq	global_trees+256(%rip), %rdx	# global_trees, D.19799
	movq	-592(%rbp), %rax	# builtin_types, D.19799
	movq	%rax, %rsi	# D.19799,
	movl	$0, %edi	#,
	call	tree_cons	#
	movq	%rax, %rdx	#, D.19799
	movq	-592(%rbp), %rax	# builtin_types, D.19799
	movq	%rdx, %rsi	# D.19799,
	movq	%rax, %rdi	# D.19799,
	call	build_function_type	#
	movq	%rax, -416(%rbp)	# D.19799, builtin_types
	.loc 2 94 0
	movq	global_trees+256(%rip), %rdx	# global_trees, D.19799
	movq	-600(%rbp), %rax	# builtin_types, D.19799
	movq	%rax, %rsi	# D.19799,
	movl	$0, %edi	#,
	call	tree_cons	#
	movq	%rax, %rdx	#, D.19799
	movq	-600(%rbp), %rax	# builtin_types, D.19799
	movq	%rdx, %rsi	# D.19799,
	movq	%rax, %rdi	# D.19799,
	call	build_function_type	#
	movq	%rax, -408(%rbp)	# D.19799, builtin_types
	.loc 2 95 0
	movq	global_trees+256(%rip), %rdx	# global_trees, D.19799
	movq	-584(%rbp), %rax	# builtin_types, D.19799
	movq	%rax, %rsi	# D.19799,
	movl	$0, %edi	#,
	call	tree_cons	#
	movq	%rax, %rdx	#, D.19799
	movq	-584(%rbp), %rax	# builtin_types, D.19799
	movq	%rdx, %rsi	# D.19799,
	movq	%rax, %rdi	# D.19799,
	call	build_function_type	#
	movq	%rax, -400(%rbp)	# D.19799, builtin_types
	.loc 2 96 0
	movq	global_trees+256(%rip), %rdx	# global_trees, D.19799
	movq	-576(%rbp), %rax	# builtin_types, D.19799
	movq	%rax, %rsi	# D.19799,
	movl	$0, %edi	#,
	call	tree_cons	#
	movq	%rax, %rdx	#, D.19799
	movq	-576(%rbp), %rax	# builtin_types, D.19799
	movq	%rdx, %rsi	# D.19799,
	movq	%rax, %rdi	# D.19799,
	call	build_function_type	#
	movq	%rax, -392(%rbp)	# D.19799, builtin_types
	.loc 2 98 0
	movq	global_trees+256(%rip), %rdx	# global_trees, D.19799
	movq	-568(%rbp), %rax	# builtin_types, D.19799
	movq	%rax, %rsi	# D.19799,
	movl	$0, %edi	#,
	call	tree_cons	#
	movq	%rax, %rdx	#, D.19799
	movq	-568(%rbp), %rax	# builtin_types, D.19799
	movq	%rdx, %rsi	# D.19799,
	movq	%rax, %rdi	# D.19799,
	call	build_function_type	#
	movq	%rax, -384(%rbp)	# D.19799, builtin_types
	.loc 2 100 0
	movq	global_trees+256(%rip), %rdx	# global_trees, D.19799
	movq	-560(%rbp), %rax	# builtin_types, D.19799
	movq	%rax, %rsi	# D.19799,
	movl	$0, %edi	#,
	call	tree_cons	#
	movq	%rax, %rdx	#, D.19799
	movq	-560(%rbp), %rax	# builtin_types, D.19799
	movq	%rdx, %rsi	# D.19799,
	movq	%rax, %rdi	# D.19799,
	call	build_function_type	#
	movq	%rax, -376(%rbp)	# D.19799, builtin_types
	.loc 2 102 0
	movq	global_trees+256(%rip), %rdx	# global_trees, D.19799
	movq	-552(%rbp), %rax	# builtin_types, D.19799
	movq	%rax, %rsi	# D.19799,
	movl	$0, %edi	#,
	call	tree_cons	#
	movq	%rax, %rdx	#, D.19799
	movq	-552(%rbp), %rax	# builtin_types, D.19799
	movq	%rdx, %rsi	# D.19799,
	movq	%rax, %rdi	# D.19799,
	call	build_function_type	#
	movq	%rax, -368(%rbp)	# D.19799, builtin_types
	.loc 2 104 0
	movq	global_trees+256(%rip), %rdx	# global_trees, D.19799
	movq	-568(%rbp), %rax	# builtin_types, D.19799
	movq	%rax, %rsi	# D.19799,
	movl	$0, %edi	#,
	call	tree_cons	#
	movq	%rax, %rdx	#, D.19799
	movq	-600(%rbp), %rax	# builtin_types, D.19799
	movq	%rdx, %rsi	# D.19799,
	movq	%rax, %rdi	# D.19799,
	call	build_function_type	#
	movq	%rax, -360(%rbp)	# D.19799, builtin_types
	.loc 2 106 0
	movq	global_trees+256(%rip), %rdx	# global_trees, D.19799
	movq	-560(%rbp), %rax	# builtin_types, D.19799
	movq	%rax, %rsi	# D.19799,
	movl	$0, %edi	#,
	call	tree_cons	#
	movq	%rax, %rdx	#, D.19799
	movq	-584(%rbp), %rax	# builtin_types, D.19799
	movq	%rdx, %rsi	# D.19799,
	movq	%rax, %rdi	# D.19799,
	call	build_function_type	#
	movq	%rax, -352(%rbp)	# D.19799, builtin_types
	.loc 2 108 0
	movq	global_trees+256(%rip), %rdx	# global_trees, D.19799
	movq	-552(%rbp), %rax	# builtin_types, D.19799
	movq	%rax, %rsi	# D.19799,
	movl	$0, %edi	#,
	call	tree_cons	#
	movq	%rax, %rdx	#, D.19799
	movq	-576(%rbp), %rax	# builtin_types, D.19799
	movq	%rdx, %rsi	# D.19799,
	movq	%rax, %rdi	# D.19799,
	call	build_function_type	#
	movq	%rax, -344(%rbp)	# D.19799, builtin_types
	.loc 2 110 0
	movq	global_trees+256(%rip), %rdx	# global_trees, D.19799
	movq	-624(%rbp), %rax	# builtin_types, D.19799
	movq	%rax, %rsi	# D.19799,
	movl	$0, %edi	#,
	call	tree_cons	#
	movq	%rax, %rdx	#, D.19799
	movq	-544(%rbp), %rax	# builtin_types, D.19799
	movq	%rdx, %rsi	# D.19799,
	movq	%rax, %rdi	# D.19799,
	call	build_function_type	#
	movq	%rax, -336(%rbp)	# D.19799, builtin_types
	.loc 2 111 0
	movq	global_trees+256(%rip), %rdx	# global_trees, D.19799
	movq	-504(%rbp), %rax	# builtin_types, D.19799
	movq	%rax, %rsi	# D.19799,
	movl	$0, %edi	#,
	call	tree_cons	#
	movq	%rax, %rdx	#, D.19799
	movq	-544(%rbp), %rax	# builtin_types, D.19799
	movq	%rdx, %rsi	# D.19799,
	movq	%rax, %rdi	# D.19799,
	call	build_function_type	#
	movq	%rax, -328(%rbp)	# D.19799, builtin_types
	.loc 2 112 0
	movq	global_trees+256(%rip), %rdx	# global_trees, D.19799
	movq	-632(%rbp), %rax	# builtin_types, D.19799
	movq	%rax, %rsi	# D.19799,
	movl	$0, %edi	#,
	call	tree_cons	#
	movq	%rax, %rdx	#, D.19799
	movq	-632(%rbp), %rax	# builtin_types, D.19799
	movq	%rdx, %rsi	# D.19799,
	movq	%rax, %rdi	# D.19799,
	call	build_function_type	#
	movq	%rax, -320(%rbp)	# D.19799, builtin_types
	.loc 2 113 0
	movq	global_trees+256(%rip), %rdx	# global_trees, D.19799
	movq	-544(%rbp), %rax	# builtin_types, D.19799
	movq	%rax, %rsi	# D.19799,
	movl	$0, %edi	#,
	call	tree_cons	#
	movq	%rax, %rdx	#, D.19799
	movq	-632(%rbp), %rax	# builtin_types, D.19799
	movq	%rdx, %rsi	# D.19799,
	movq	%rax, %rdi	# D.19799,
	call	build_function_type	#
	movq	%rax, -312(%rbp)	# D.19799, builtin_types
	.loc 2 114 0
	movq	global_trees+256(%rip), %rdx	# global_trees, D.19799
	movq	-544(%rbp), %rax	# builtin_types, D.19799
	movq	%rax, %rsi	# D.19799,
	movl	$0, %edi	#,
	call	tree_cons	#
	movq	%rax, %rdx	#, D.19799
	movq	-640(%rbp), %rax	# builtin_types, D.19799
	movq	%rdx, %rsi	# D.19799,
	movq	%rax, %rdi	# D.19799,
	call	build_function_type	#
	movq	%rax, -304(%rbp)	# D.19799, builtin_types
	.loc 2 115 0
	movq	global_trees+256(%rip), %rdx	# global_trees, D.19799
	movq	-488(%rbp), %rax	# builtin_types, D.19799
	movq	%rax, %rsi	# D.19799,
	movl	$0, %edi	#,
	call	tree_cons	#
	movq	%rax, %rdx	#, D.19799
	movq	-480(%rbp), %rax	# builtin_types, D.19799
	movq	%rdx, %rsi	# D.19799,
	movq	%rax, %rdi	# D.19799,
	call	build_function_type	#
	movq	%rax, -296(%rbp)	# D.19799, builtin_types
	.loc 2 116 0
	movq	global_trees+256(%rip), %rdx	# global_trees, D.19799
	movq	-488(%rbp), %rax	# builtin_types, D.19799
	movq	%rax, %rsi	# D.19799,
	movl	$0, %edi	#,
	call	tree_cons	#
	movq	%rax, %rdx	#, D.19799
	movq	-632(%rbp), %rax	# builtin_types, D.19799
	movq	%rdx, %rsi	# D.19799,
	movq	%rax, %rdi	# D.19799,
	call	build_function_type	#
	movq	%rax, -288(%rbp)	# D.19799, builtin_types
	.loc 2 117 0
	movq	global_trees+256(%rip), %rdx	# global_trees, D.19799
	movq	-544(%rbp), %rax	# builtin_types, D.19799
	movq	%rax, %rsi	# D.19799,
	movl	$0, %edi	#,
	call	tree_cons	#
	movq	%rax, %rdx	#, D.19799
	movq	-544(%rbp), %rax	# builtin_types, D.19799
	movq	%rdx, %rsi	# D.19799,
	movq	%rax, %rdi	# D.19799,
	call	build_function_type	#
	movq	%rax, -280(%rbp)	# D.19799, builtin_types
	.loc 2 118 0
	movq	global_trees+256(%rip), %rdx	# global_trees, D.19799
	movq	-472(%rbp), %rax	# builtin_types, D.19799
	movq	%rax, %rsi	# D.19799,
	movl	$0, %edi	#,
	call	tree_cons	#
	movq	%rax, %rdx	#, D.19799
	movq	-640(%rbp), %rax	# builtin_types, D.19799
	movq	%rdx, %rsi	# D.19799,
	movq	%rax, %rdi	# D.19799,
	call	build_function_type	#
	movq	%rax, -272(%rbp)	# D.19799, builtin_types
	.loc 2 119 0
	movq	global_trees+256(%rip), %rdx	# global_trees, D.19799
	movq	-632(%rbp), %rax	# builtin_types, D.19799
	movq	%rax, %rsi	# D.19799,
	movl	$0, %edi	#,
	call	tree_cons	#
	movq	%rax, %rdx	#, D.19799
	movq	-640(%rbp), %rax	# builtin_types, D.19799
	movq	%rdx, %rsi	# D.19799,
	movq	%rax, %rdi	# D.19799,
	call	build_function_type	#
	movq	%rax, -264(%rbp)	# D.19799, builtin_types
	.loc 2 121 0
	movq	global_trees+256(%rip), %rdx	# global_trees, D.19799
	movq	-632(%rbp), %rax	# builtin_types, D.19799
	movq	%rax, %rsi	# D.19799,
	movl	$0, %edi	#,
	call	tree_cons	#
	movq	%rax, %rdx	#, D.19799
	movq	-544(%rbp), %rax	# builtin_types, D.19799
	movq	%rax, %rsi	# D.19799,
	movl	$0, %edi	#,
	call	tree_cons	#
	movq	%rax, %rdx	#, D.19799
	movq	-640(%rbp), %rax	# builtin_types, D.19799
	movq	%rdx, %rsi	# D.19799,
	movq	%rax, %rdi	# D.19799,
	call	build_function_type	#
	movq	%rax, -256(%rbp)	# D.19799, builtin_types
	.loc 2 122 0
	movq	global_trees+256(%rip), %rdx	# global_trees, D.19799
	movq	-488(%rbp), %rax	# builtin_types, D.19799
	movq	%rax, %rsi	# D.19799,
	movl	$0, %edi	#,
	call	tree_cons	#
	movq	%rax, %rdx	#, D.19799
	movq	-496(%rbp), %rax	# builtin_types, D.19799
	movq	%rax, %rsi	# D.19799,
	movl	$0, %edi	#,
	call	tree_cons	#
	movq	%rax, %rdx	#, D.19799
	movq	-496(%rbp), %rax	# builtin_types, D.19799
	movq	%rdx, %rsi	# D.19799,
	movq	%rax, %rdi	# D.19799,
	call	build_function_type	#
	movq	%rax, -248(%rbp)	# D.19799, builtin_types
	.loc 2 124 0
	movq	global_trees+256(%rip), %rdx	# global_trees, D.19799
	movq	-488(%rbp), %rax	# builtin_types, D.19799
	movq	%rax, %rsi	# D.19799,
	movl	$0, %edi	#,
	call	tree_cons	#
	movq	%rax, %rdx	#, D.19799
	movq	-488(%rbp), %rax	# builtin_types, D.19799
	movq	%rax, %rsi	# D.19799,
	movl	$0, %edi	#,
	call	tree_cons	#
	movq	%rax, %rdx	#, D.19799
	movq	-632(%rbp), %rax	# builtin_types, D.19799
	movq	%rdx, %rsi	# D.19799,
	movq	%rax, %rdi	# D.19799,
	call	build_function_type	#
	movq	%rax, -240(%rbp)	# D.19799, builtin_types
	.loc 2 126 0
	movq	global_trees+256(%rip), %rdx	# global_trees, D.19799
	movq	-488(%rbp), %rax	# builtin_types, D.19799
	movq	%rax, %rsi	# D.19799,
	movl	$0, %edi	#,
	call	tree_cons	#
	movq	%rax, %rdx	#, D.19799
	movq	-488(%rbp), %rax	# builtin_types, D.19799
	movq	%rax, %rsi	# D.19799,
	movl	$0, %edi	#,
	call	tree_cons	#
	movq	%rax, %rdx	#, D.19799
	movq	-496(%rbp), %rax	# builtin_types, D.19799
	movq	%rdx, %rsi	# D.19799,
	movq	%rax, %rdi	# D.19799,
	call	build_function_type	#
	movq	%rax, -232(%rbp)	# D.19799, builtin_types
	.loc 2 128 0
	movq	global_trees+256(%rip), %rdx	# global_trees, D.19799
	movq	-488(%rbp), %rax	# builtin_types, D.19799
	movq	%rax, %rsi	# D.19799,
	movl	$0, %edi	#,
	call	tree_cons	#
	movq	%rax, %rdx	#, D.19799
	movq	-488(%rbp), %rax	# builtin_types, D.19799
	movq	%rax, %rsi	# D.19799,
	movl	$0, %edi	#,
	call	tree_cons	#
