	.file	"c-lex.c"
# GNU C (Ubuntu/Linaro 4.8.1-10ubuntu9) version 4.8.1 (x86_64-linux-gnu)
#	compiled by GNU C version 4.8.1, GMP version 5.1.2, MPFR version 3.1.1-p2, MPC version 1.0.1
# GGC heuristics: --param ggc-min-expand=100 --param ggc-min-heapsize=131072
# options passed:  -I . -imultiarch x86_64-linux-gnu -D SPEC_CPU -D NDEBUG
# -D SPEC_CPU_LP64 c-lex.c -mtune=generic -march=x86-64 -g -fverbose-asm
# -fno-strict-aliasing -fstack-protector -Wformat -Wformat-security
# options enabled:  -faggressive-loop-optimizations
# -fasynchronous-unwind-tables -fauto-inc-dec -fbranch-count-reg -fcommon
# -fdelete-null-pointer-checks -fdwarf2-cfi-asm -fearly-inlining
# -feliminate-unused-debug-types -ffunction-cse -fgcse-lm -fgnu-runtime
# -fident -finline-atomics -fira-hoist-pressure -fira-share-save-slots
# -fira-share-spill-slots -fivopts -fkeep-static-consts
# -fleading-underscore -fmath-errno -fmerge-debug-strings
# -fmove-loop-invariants -fpeephole -fprefetch-loop-arrays
# -freg-struct-return -fsched-critical-path-heuristic
# -fsched-dep-count-heuristic -fsched-group-heuristic -fsched-interblock
# -fsched-last-insn-heuristic -fsched-rank-heuristic -fsched-spec
# -fsched-spec-insn-heuristic -fsched-stalled-insns-dep -fshow-column
# -fsigned-zeros -fsplit-ivs-in-unroller -fstack-protector
# -fstrict-volatile-bitfields -fsync-libcalls -ftrapping-math
# -ftree-coalesce-vars -ftree-cselim -ftree-forwprop -ftree-loop-if-convert
# -ftree-loop-im -ftree-loop-ivcanon -ftree-loop-optimize
# -ftree-parallelize-loops= -ftree-phiprop -ftree-pta -ftree-reassoc
# -ftree-scev-cprop -ftree-slp-vectorize -ftree-vect-loop-version
# -funit-at-a-time -funwind-tables -fverbose-asm -fzero-initialized-in-bss
# -m128bit-long-double -m64 -m80387 -maccumulate-outgoing-args
# -malign-stringops -mfancy-math-387 -mfp-ret-in-387 -mfxsr -mglibc
# -mieee-fp -mlong-double-80 -mmmx -mno-sse4 -mpush-args -mred-zone -msse
# -msse2 -mtls-direct-seg-refs

	.text
.Ltext0:
	.local	map
	.comm	map,8,8
	.local	src_lineno
	.comm	src_lineno,4,4
	.local	header_time
	.comm	header_time,4,4
	.local	body_time
	.comm	body_time,4,4
	.local	file_info_tree
	.comm	file_info_tree,8,8
	.comm	indent_level,4,4
	.comm	pending_lang_change,4,4
	.comm	c_header_level,4,4
	.local	ignore_escape_flag
	.comm	ignore_escape_flag,4,4
	.section	.rodata
.LC0:
	.string	"<top level>"
.LC1:
	.string	"-"
.LC2:
	.string	""
	.text
	.globl	init_c_lex
	.type	init_c_lex, @function
init_c_lex:
.LFB2:
	.file 1 "c-lex.c"
	.loc 1 106 0
	.cfi_startproc
	pushq	%rbp	#
	.cfi_def_cfa_offset 16
	.cfi_offset 6, -16
	movq	%rsp, %rbp	#,
	.cfi_def_cfa_register 6
	subq	$32, %rsp	#,
	movq	%rdi, -24(%rbp)	# filename, filename
	.loc 1 111 0
	movl	$free, %edx	#,
	movl	$0, %esi	#,
	movl	$strcmp, %edi	#,
	call	splay_tree_new	#
	movq	%rax, file_info_tree(%rip)	# file_info_tree.0, file_info_tree
	.loc 1 114 0
	movl	$.LC0, %edi	#,
	call	get_fileinfo	#
	movq	%rax, -16(%rbp)	# tmp74, toplevel
	.loc 1 115 0
	movl	flag_detailed_statistics(%rip), %eax	# flag_detailed_statistics, flag_detailed_statistics.1
	testl	%eax, %eax	# flag_detailed_statistics.1
	je	.L2	#,
	.loc 1 117 0
	movl	$0, header_time(%rip)	#, header_time
	.loc 1 118 0
	call	get_run_time	#
	movl	%eax, body_time(%rip)	# body_time.2, body_time
	.loc 1 119 0
	movl	body_time(%rip), %edx	# body_time, body_time.3
	movq	-16(%rbp), %rax	# toplevel, tmp75
	movl	%edx, (%rax)	# body_time.3, toplevel_3->time
.L2:
	.loc 1 128 0
	movq	parse_in(%rip), %rax	# parse_in, parse_in.4
	movq	%rax, %rdi	# parse_in.4,
	call	cpp_get_callbacks	#
	movq	%rax, -8(%rbp)	# tmp76, cb
	.loc 1 130 0
	movq	-8(%rbp), %rax	# cb, tmp77
	movq	$cb_line_change, (%rax)	#, cb_9->line_change
	.loc 1 131 0
	movq	-8(%rbp), %rax	# cb, tmp78
	movq	$cb_ident, 40(%rax)	#, cb_9->ident
	.loc 1 132 0
	movq	-8(%rbp), %rax	# cb, tmp79
	movq	$cb_file_change, 8(%rax)	#, cb_9->file_change
	.loc 1 133 0
	movq	-8(%rbp), %rax	# cb, tmp80
	movq	$cb_def_pragma, 48(%rax)	#, cb_9->def_pragma
	.loc 1 136 0
	movl	debug_info_level(%rip), %eax	# debug_info_level, debug_info_level.5
	cmpl	$3, %eax	#, debug_info_level.5
	jne	.L3	#,
	.loc 1 137 0
	movl	write_symbols(%rip), %eax	# write_symbols, write_symbols.6
	cmpl	$3, %eax	#, write_symbols.6
	je	.L4	#,
	.loc 1 137 0 is_stmt 0 discriminator 1
	movl	write_symbols(%rip), %eax	# write_symbols, write_symbols.7
	cmpl	$4, %eax	#, write_symbols.7
	je	.L4	#,
	.loc 1 138 0 is_stmt 1
	movl	write_symbols(%rip), %eax	# write_symbols, write_symbols.8
	cmpl	$7, %eax	#, write_symbols.8
	jne	.L3	#,
.L4:
	.loc 1 140 0
	movq	-8(%rbp), %rax	# cb, tmp81
	movq	$cb_define, 24(%rax)	#, cb_9->define
	.loc 1 141 0
	movq	-8(%rbp), %rax	# cb, tmp82
	movq	$cb_undef, 32(%rax)	#, cb_9->undef
.L3:
	.loc 1 145 0
	movl	$0, lineno(%rip)	#, lineno
	.loc 1 147 0
	cmpq	$0, -24(%rbp)	#, filename
	je	.L5	#,
	.loc 1 147 0 is_stmt 0 discriminator 1
	movq	-24(%rbp), %rax	# filename, tmp83
	movl	$.LC1, %esi	#,
	movq	%rax, %rdi	# tmp83,
	call	strcmp	#
	testl	%eax, %eax	# D.14796
	jne	.L6	#,
.L5:
	.loc 1 148 0 is_stmt 1
	movq	$.LC2, -24(%rbp)	#, filename
.L6:
	.loc 1 150 0
	movq	ident_hash(%rip), %rdx	# ident_hash, ident_hash.9
	movq	parse_in(%rip), %rax	# parse_in, parse_in.10
	movq	-24(%rbp), %rcx	# filename, tmp84
	movq	%rcx, %rsi	# tmp84,
	movq	%rax, %rdi	# parse_in.10,
	call	cpp_read_main_file	#
	.loc 1 151 0
	leave
	.cfi_def_cfa 7, 8
	ret
	.cfi_endproc
.LFE2:
	.size	init_c_lex, .-init_c_lex
	.globl	yyparse
	.type	yyparse, @function
yyparse:
.LFB3:
	.loc 1 160 0
	.cfi_startproc
	pushq	%rbp	#
	.cfi_def_cfa_offset 16
	.cfi_offset 6, -16
	movq	%rsp, %rbp	#,
	.cfi_def_cfa_register 6
	.loc 1 161 0
	movq	debug_hooks(%rip), %rax	# debug_hooks, debug_hooks.11
	movq	32(%rax), %rax	# debug_hooks.11_1->start_source_file, D.14801
	movq	input_filename(%rip), %rcx	# input_filename, input_filename.12
	movl	lineno(%rip), %edx	# lineno, lineno.13
	movq	%rcx, %rsi	# input_filename.12,
	movl	%edx, %edi	# lineno.14,
	call	*%rax	# D.14801
	.loc 1 162 0
	movq	parse_in(%rip), %rax	# parse_in, parse_in.15
	movq	%rax, %rdi	# parse_in.15,
	call	cpp_finish_options	#
	.loc 1 164 0
	call	yyparse_1	#
	.loc 1 165 0
	popq	%rbp	#
	.cfi_def_cfa 7, 8
	ret
	.cfi_endproc
.LFE3:
	.size	yyparse, .-yyparse
	.globl	get_fileinfo
	.type	get_fileinfo, @function
get_fileinfo:
.LFB4:
	.loc 1 170 0
	.cfi_startproc
	pushq	%rbp	#
	.cfi_def_cfa_offset 16
	.cfi_offset 6, -16
	movq	%rsp, %rbp	#,
	.cfi_def_cfa_register 6
	subq	$32, %rsp	#,
	movq	%rdi, -24(%rbp)	# name, name
	.loc 1 174 0
	movq	-24(%rbp), %rdx	# name, name.16
	movq	file_info_tree(%rip), %rax	# file_info_tree, file_info_tree.17
	movq	%rdx, %rsi	# name.16,
	movq	%rax, %rdi	# file_info_tree.17,
	call	splay_tree_lookup	#
	movq	%rax, -16(%rbp)	# tmp67, n
	.loc 1 175 0
	cmpq	$0, -16(%rbp)	#, n
	je	.L11	#,
	.loc 1 176 0
	movq	-16(%rbp), %rax	# n, tmp68
	movq	8(%rax), %rax	# n_5->value, D.14804
	jmp	.L12	#
.L11:
	.loc 1 178 0
	movl	$8, %edi	#,
	call	xmalloc	#
	movq	%rax, -8(%rbp)	# tmp69, fi
	.loc 1 179 0
	movq	-8(%rbp), %rax	# fi, tmp70
	movl	$0, (%rax)	#, fi_8->time
	.loc 1 180 0
	movq	-8(%rbp), %rax	# fi, tmp71
	movw	$0, 4(%rax)	#, fi_8->interface_only
	.loc 1 181 0
	movq	-8(%rbp), %rax	# fi, tmp72
	movw	$1, 6(%rax)	#, fi_8->interface_unknown
	.loc 1 182 0
	movq	-8(%rbp), %rdx	# fi, fi.18
	movq	-24(%rbp), %rcx	# name, name.19
	movq	file_info_tree(%rip), %rax	# file_info_tree, file_info_tree.20
	movq	%rcx, %rsi	# name.19,
	movq	%rax, %rdi	# file_info_tree.20,
	call	splay_tree_insert	#
	.loc 1 184 0
	movq	-8(%rbp), %rax	# fi, D.14803
.L12:
	.loc 1 185 0
	leave
	.cfi_def_cfa 7, 8
	ret
	.cfi_endproc
.LFE4:
	.size	get_fileinfo, .-get_fileinfo
	.type	update_header_times, @function
update_header_times:
.LFB5:
	.loc 1 190 0
	.cfi_startproc
	pushq	%rbp	#
	.cfi_def_cfa_offset 16
	.cfi_offset 6, -16
	movq	%rsp, %rbp	#,
	.cfi_def_cfa_register 6
	subq	$32, %rsp	#,
	movq	%rdi, -24(%rbp)	# name, name
	.loc 1 193 0
	movl	flag_detailed_statistics(%rip), %eax	# flag_detailed_statistics, flag_detailed_statistics.21
	testl	%eax, %eax	# flag_detailed_statistics.21
	je	.L13	#,
.LBB2:
	.loc 1 195 0
	call	get_run_time	#
	movl	%eax, -12(%rbp)	# D.14805, this_time
	.loc 1 196 0
	movq	-24(%rbp), %rax	# name, tmp69
	movq	%rax, %rdi	# tmp69,
	call	get_fileinfo	#
	movq	%rax, -8(%rbp)	# tmp70, file
	.loc 1 197 0
	movl	body_time(%rip), %eax	# body_time, body_time.22
	movl	-12(%rbp), %edx	# this_time, tmp71
	subl	%eax, %edx	# body_time.22, D.14806
	movl	header_time(%rip), %eax	# header_time, header_time.23
	addl	%edx, %eax	# D.14806, header_time.24
	movl	%eax, header_time(%rip)	# header_time.24, header_time
	.loc 1 198 0
	movq	-8(%rbp), %rax	# file, tmp72
	movl	(%rax), %eax	# file_5->time, D.14806
	movl	body_time(%rip), %edx	# body_time, body_time.25
	movl	-12(%rbp), %ecx	# this_time, tmp73
	subl	%edx, %ecx	# body_time.25, D.14806
	movl	%ecx, %edx	# D.14806, D.14806
	addl	%eax, %edx	# D.14806, D.14806
	movq	-8(%rbp), %rax	# file, tmp74
	movl	%edx, (%rax)	# D.14806, file_5->time
	.loc 1 199 0
	movl	-12(%rbp), %eax	# this_time, tmp75
	movl	%eax, body_time(%rip)	# tmp75, body_time
.L13:
.LBE2:
	.loc 1 201 0
	leave
	.cfi_def_cfa 7, 8
	ret
	.cfi_endproc
.LFE5:
	.size	update_header_times, .-update_header_times
	.type	dump_one_header, @function
dump_one_header:
.LFB6:
	.loc 1 207 0
	.cfi_startproc
	pushq	%rbp	#
	.cfi_def_cfa_offset 16
	.cfi_offset 6, -16
	movq	%rsp, %rbp	#,
	.cfi_def_cfa_register 6
	subq	$16, %rsp	#,
	movq	%rdi, -8(%rbp)	# n, n
	movq	%rsi, -16(%rbp)	# dummy, dummy
	.loc 1 209 0
	movq	-8(%rbp), %rax	# n, tmp67
	movq	8(%rax), %rax	# n_1(D)->value, D.14807
	movl	(%rax), %eax	# _3->time, D.14809
	.loc 1 208 0
	movslq	%eax, %rdx	# D.14809, D.14810
	movq	-8(%rbp), %rax	# n, tmp68
	movq	(%rax), %rax	# n_1(D)->key, D.14807
	movq	%rdx, %rsi	# D.14810,
	movq	%rax, %rdi	# D.14811,
	call	print_time	#
	.loc 1 210 0
	movl	$0, %eax	#, D.14809
	.loc 1 211 0
	leave
	.cfi_def_cfa 7, 8
	ret
	.cfi_endproc
.LFE6:
	.size	dump_one_header, .-dump_one_header
	.section	.rodata
.LC3:
	.string	"\n******\n"
.LC4:
	.string	"header files (total)"
.LC5:
	.string	"main file (total)"
.LC6:
	.string	"ratio = %g : 1\n"
	.text
	.globl	dump_time_statistics
	.type	dump_time_statistics, @function
dump_time_statistics:
.LFB7:
	.loc 1 215 0
	.cfi_startproc
	pushq	%rbp	#
	.cfi_def_cfa_offset 16
	.cfi_offset 6, -16
	movq	%rsp, %rbp	#,
	.cfi_def_cfa_register 6
	subq	$16, %rsp	#,
	.loc 1 216 0
	movq	input_filename(%rip), %rax	# input_filename, input_filename.26
	movq	%rax, %rdi	# input_filename.26,
	call	get_fileinfo	#
	movq	%rax, -8(%rbp)	# tmp80, file
	.loc 1 217 0
	call	get_run_time	#
	movl	%eax, -12(%rbp)	# D.14812, this_time
	.loc 1 218 0
	movq	-8(%rbp), %rax	# file, tmp81
	movl	(%rax), %eax	# file_2->time, D.14813
	movl	body_time(%rip), %edx	# body_time, body_time.27
	movl	-12(%rbp), %ecx	# this_time, tmp82
	subl	%edx, %ecx	# body_time.27, D.14813
	movl	%ecx, %edx	# D.14813, D.14813
	addl	%eax, %edx	# D.14813, D.14813
	movq	-8(%rbp), %rax	# file, tmp83
	movl	%edx, (%rax)	# D.14813, file_2->time
	.loc 1 220 0
	movq	stderr(%rip), %rax	# stderr, stderr.28
	movq	%rax, %rcx	# stderr.28,
	movl	$8, %edx	#,
	movl	$1, %esi	#,
	movl	$.LC3, %edi	#,
	call	fwrite	#
	.loc 1 221 0
	movl	header_time(%rip), %eax	# header_time, header_time.29
	cltq
	movq	%rax, %rsi	# D.14812,
	movl	$.LC4, %edi	#,
	call	print_time	#
	.loc 1 222 0
	movl	body_time(%rip), %eax	# body_time, body_time.30
	movl	-12(%rbp), %edx	# this_time, tmp84
	subl	%eax, %edx	# body_time.30, D.14813
	movl	%edx, %eax	# D.14813, D.14813
	cltq
	movq	%rax, %rsi	# D.14812,
	movl	$.LC5, %edi	#,
	call	print_time	#
	.loc 1 224 0
	movl	header_time(%rip), %eax	# header_time, header_time.31
	cvtsi2sd	%eax, %xmm0	# header_time.31, D.14814
	movl	body_time(%rip), %eax	# body_time, body_time.32
	movl	-12(%rbp), %edx	# this_time, tmp85
	subl	%eax, %edx	# body_time.32, D.14813
	movl	%edx, %eax	# D.14813, D.14813
	cvtsi2sd	%eax, %xmm1	# D.14813, D.14814
	.loc 1 223 0
	divsd	%xmm1, %xmm0	# D.14814, D.14814
	movq	stderr(%rip), %rax	# stderr, stderr.33
	movl	$.LC6, %esi	#,
	movq	%rax, %rdi	# stderr.33,
	movl	$1, %eax	#,
	call	fprintf	#
	.loc 1 225 0
	movq	stderr(%rip), %rax	# stderr, stderr.34
	movq	%rax, %rcx	# stderr.34,
	movl	$8, %edx	#,
	movl	$1, %esi	#,
	movl	$.LC3, %edi	#,
	call	fwrite	#
	.loc 1 227 0
	movq	file_info_tree(%rip), %rax	# file_info_tree, file_info_tree.35
	movl	$0, %edx	#,
	movl	$dump_one_header, %esi	#,
	movq	%rax, %rdi	# file_info_tree.35,
	call	splay_tree_foreach	#
	.loc 1 228 0
	leave
	.cfi_def_cfa 7, 8
	ret
	.cfi_endproc
.LFE7:
	.size	dump_time_statistics, .-dump_time_statistics
	.section	.rodata
.LC7:
	.string	"\t.ident\t"
.LC8:
	.string	"%s\"%s\"\n"
	.text
	.type	cb_ident, @function
cb_ident:
.LFB8:
	.loc 1 238 0
	.cfi_startproc
	pushq	%rbp	#
	.cfi_def_cfa_offset 16
	.cfi_offset 6, -16
	movq	%rsp, %rbp	#,
	.cfi_def_cfa_register 6
	subq	$48, %rsp	#,
	movq	%rdi, -24(%rbp)	# pfile, pfile
	movl	%esi, -28(%rbp)	# line, line
	movq	%rdx, -40(%rbp)	# str, str
	.loc 1 240 0
	movl	flag_no_ident(%rip), %eax	# flag_no_ident, flag_no_ident.36
	testl	%eax, %eax	# flag_no_ident.36
	jne	.L18	#,
.LBB3:
	.loc 1 243 0
	movq	-40(%rbp), %rax	# str, tmp64
	movl	(%rax), %ecx	# str_2(D)->len, D.14819
	movq	-40(%rbp), %rax	# str, tmp65
	movq	8(%rax), %rax	# str_2(D)->text, D.14820
	movl	$0, %edx	#,
	movl	%ecx, %esi	# D.14819,
	movq	%rax, %rdi	# D.14820,
	call	lex_string	#
	movq	%rax, -8(%rbp)	# tmp66, value
	.loc 1 244 0
	movq	-8(%rbp), %rax	# value, tmp67
	movq	40(%rax), %rdx	# value_5->string.pointer, D.14821
	movq	asm_out_file(%rip), %rax	# asm_out_file, asm_out_file.37
	movq	%rdx, %rcx	# D.14821,
	movl	$.LC7, %edx	#,
	movl	$.LC8, %esi	#,
	movq	%rax, %rdi	# asm_out_file.37,
	movl	$0, %eax	#,
	call	fprintf	#
.L18:
.LBE3:
	.loc 1 247 0
	leave
	.cfi_def_cfa 7, 8
	ret
	.cfi_endproc
.LFE8:
	.size	cb_ident, .-cb_ident
	.type	cb_line_change, @function
cb_line_change:
.LFB9:
	.loc 1 256 0
	.cfi_startproc
	pushq	%rbp	#
	.cfi_def_cfa_offset 16
	.cfi_offset 6, -16
	movq	%rsp, %rbp	#,
	.cfi_def_cfa_register 6
	movq	%rdi, -8(%rbp)	# pfile, pfile
	movq	%rsi, -16(%rbp)	# token, token
	movl	%edx, -20(%rbp)	# parsing_args, parsing_args
	.loc 1 257 0
	movq	-16(%rbp), %rax	# token, tmp66
	movl	(%rax), %edx	# token_1(D)->line, D.14824
	movq	map(%rip), %rax	# map, map.38
	movl	8(%rax), %eax	# map.38_3->to_line, D.14824
	addl	%eax, %edx	# D.14824, D.14824
	movq	map(%rip), %rax	# map, map.39
	movl	12(%rax), %eax	# map.39_6->from_line, D.14824
	subl	%eax, %edx	# D.14824, src_lineno.40
	movl	%edx, %eax	# src_lineno.40, src_lineno.40
	movl	%eax, src_lineno(%rip)	# src_lineno.40, src_lineno
	.loc 1 258 0
	popq	%rbp	#
	.cfi_def_cfa 7, 8
	ret
	.cfi_endproc
.LFE9:
	.size	cb_line_change, .-cb_line_change
	.section	.rodata
	.align 8
.LC9:
	.string	"badly nested C headers from preprocessor"
	.text
	.type	cb_file_change, @function
cb_file_change:
.LFB10:
	.loc 1 264 0
	.cfi_startproc
	pushq	%rbp	#
	.cfi_def_cfa_offset 16
	.cfi_offset 6, -16
	movq	%rsp, %rbp	#,
	.cfi_def_cfa_register 6
	subq	$32, %rsp	#,
	movq	%rdi, -24(%rbp)	# pfile, pfile
	movq	%rsi, -32(%rbp)	# new_map, new_map
	.loc 1 265 0
	movq	-32(%rbp), %rax	# new_map, tmp103
	movl	8(%rax), %edx	# new_map_1(D)->to_line, D.14825
	movq	-32(%rbp), %rax	# new_map, tmp104
	movl	8(%rax), %eax	# new_map_1(D)->to_line, D.14825
	addl	%eax, %edx	# D.14825, D.14825
	movq	-32(%rbp), %rax	# new_map, tmp105
	movl	12(%rax), %eax	# new_map_1(D)->from_line, D.14825
	subl	%eax, %edx	# D.14825, tmp106
	movl	%edx, %eax	# tmp106, tmp106
	movl	%eax, -8(%rbp)	# tmp106, to_line
	.loc 1 267 0
	movq	-32(%rbp), %rax	# new_map, tmp107
	movzbl	20(%rax), %eax	# new_map_1(D)->reason, D.14826
	testb	%al, %al	# D.14826
	jne	.L22	#,
	.loc 1 271 0
	movq	map(%rip), %rax	# map, map.41
	testq	%rax, %rax	# map.41
	jne	.L23	#,
	.loc 1 272 0
	movq	-32(%rbp), %rax	# new_map, tmp108
	movq	(%rax), %rax	# new_map_1(D)->to_file, main_input_filename.42
	movq	%rax, main_input_filename(%rip)	# main_input_filename.42, main_input_filename
	jmp	.L26	#
.L23:
.LBB4:
	.loc 1 275 0
	movq	-32(%rbp), %rax	# new_map, tmp109
	movl	12(%rax), %edx	# new_map_1(D)->from_line, D.14825
	movq	-32(%rbp), %rax	# new_map, tmp110
	subq	$24, %rax	#, D.14827
	movl	8(%rax), %eax	# _11->to_line, D.14825
	addl	%eax, %edx	# D.14825, D.14825
	movq	-32(%rbp), %rax	# new_map, tmp111
	subq	$24, %rax	#, D.14827
	movl	12(%rax), %eax	# _14->from_line, D.14825
	subl	%eax, %edx	# D.14825, D.14825
	movl	%edx, %eax	# D.14825, D.14825
	subl	$1, %eax	#, D.14825
	movl	%eax, -4(%rbp)	# D.14825, included_at
	.loc 1 277 0
	movl	-4(%rbp), %eax	# included_at, tmp112
	movl	%eax, lineno(%rip)	# tmp112, lineno
	.loc 1 278 0
	movq	-32(%rbp), %rax	# new_map, tmp113
	movq	(%rax), %rax	# new_map_1(D)->to_file, D.14828
	movl	$1, %esi	#,
	movq	%rax, %rdi	# D.14828,
	call	push_srcloc	#
	.loc 1 279 0
	movq	input_file_stack(%rip), %rax	# input_file_stack, input_file_stack.43
	movl	indent_level(%rip), %edx	# indent_level, indent_level.44
	movl	%edx, 20(%rax)	# indent_level.44, input_file_stack.43_20->indent_level
	.loc 1 280 0
	movq	debug_hooks(%rip), %rax	# debug_hooks, debug_hooks.45
	movq	32(%rax), %rax	# debug_hooks.45_22->start_source_file, D.14829
	movq	-32(%rbp), %rdx	# new_map, tmp114
	movq	(%rdx), %rcx	# new_map_1(D)->to_file, D.14828
	movl	-4(%rbp), %edx	# included_at, included_at.46
	movq	%rcx, %rsi	# D.14828,
	movl	%edx, %edi	# included_at.46,
	call	*%rax	# D.14829
	.loc 1 282 0
	movl	c_header_level(%rip), %eax	# c_header_level, c_header_level.47
	testl	%eax, %eax	# c_header_level.47
	je	.L25	#,
	.loc 1 283 0
	movl	c_header_level(%rip), %eax	# c_header_level, c_header_level.48
	addl	$1, %eax	#, c_header_level.49
	movl	%eax, c_header_level(%rip)	# c_header_level.49, c_header_level
	jmp	.L24	#
.L25:
	.loc 1 284 0
	movq	-32(%rbp), %rax	# new_map, tmp115
	movzbl	21(%rax), %eax	# new_map_1(D)->sysp, D.14826
	cmpb	$2, %al	#, D.14826
	jne	.L24	#,
	.loc 1 286 0
	movl	$1, c_header_level(%rip)	#, c_header_level
	.loc 1 287 0
	movl	pending_lang_change(%rip), %eax	# pending_lang_change, pending_lang_change.50
	addl	$1, %eax	#, pending_lang_change.51
	movl	%eax, pending_lang_change(%rip)	# pending_lang_change.51, pending_lang_change
.LBE4:
	jmp	.L26	#
.L24:
	jmp	.L26	#
.L22:
	.loc 1 292 0
	movq	-32(%rbp), %rax	# new_map, tmp116
	movzbl	20(%rax), %eax	# new_map_1(D)->reason, D.14826
	cmpb	$1, %al	#, D.14826
	jne	.L26	#,
	.loc 1 295 0
	movl	c_header_level(%rip), %eax	# c_header_level, c_header_level.52
	testl	%eax, %eax	# c_header_level.52
	je	.L27	#,
	.loc 1 295 0 is_stmt 0 discriminator 1
	movl	c_header_level(%rip), %eax	# c_header_level, c_header_level.53
	subl	$1, %eax	#, c_header_level.54
	movl	%eax, c_header_level(%rip)	# c_header_level.54, c_header_level
	movl	c_header_level(%rip), %eax	# c_header_level, c_header_level.55
	testl	%eax, %eax	# c_header_level.55
	jne	.L27	#,
	.loc 1 297 0 is_stmt 1
	movq	-32(%rbp), %rax	# new_map, tmp117
	movzbl	21(%rax), %eax	# new_map_1(D)->sysp, D.14826
	cmpb	$2, %al	#, D.14826
	jne	.L28	#,
	.loc 1 298 0
	movl	$.LC9, %edi	#,
	movl	$0, %eax	#,
	call	warning	#
.L28:
	.loc 1 299 0
	movl	pending_lang_change(%rip), %eax	# pending_lang_change, pending_lang_change.56
	subl	$1, %eax	#, pending_lang_change.57
	movl	%eax, pending_lang_change(%rip)	# pending_lang_change.57, pending_lang_change
.L27:
	.loc 1 312 0
	call	pop_srcloc	#
	.loc 1 314 0
	movq	debug_hooks(%rip), %rax	# debug_hooks, debug_hooks.58
	movq	40(%rax), %rax	# debug_hooks.58_40->end_source_file, D.14830
	movl	-8(%rbp), %edx	# to_line, tmp118
	movl	%edx, %edi	# tmp118,
	call	*%rax	# D.14830
.L26:
	.loc 1 317 0
	movq	-32(%rbp), %rax	# new_map, tmp119
	movq	(%rax), %rax	# new_map_1(D)->to_file, D.14828
	movq	%rax, %rdi	# D.14828,
	call	update_header_times	#
	.loc 1 318 0
	movq	-32(%rbp), %rax	# new_map, tmp120
	movzbl	21(%rax), %eax	# new_map_1(D)->sysp, D.14826
	testb	%al, %al	# D.14826
	setne	%al	#, D.14831
	movzbl	%al, %eax	# D.14831, in_system_header.59
	movl	%eax, in_system_header(%rip)	# in_system_header.59, in_system_header
	.loc 1 319 0
	movq	-32(%rbp), %rax	# new_map, tmp121
	movq	(%rax), %rax	# new_map_1(D)->to_file, input_filename.60
	movq	%rax, input_filename(%rip)	# input_filename.60, input_filename
	.loc 1 320 0
	movl	-8(%rbp), %eax	# to_line, to_line.61
	movl	%eax, lineno(%rip)	# to_line.61, lineno
	.loc 1 321 0
	movq	-32(%rbp), %rax	# new_map, tmp122
	movq	%rax, map(%rip)	# tmp122, map
	.loc 1 324 0
	call	extract_interface_info	#
	.loc 1 325 0
	leave
	.cfi_def_cfa 7, 8
	ret
	.cfi_endproc
.LFE10:
	.size	cb_file_change, .-cb_file_change
	.section	.rodata
.LC10:
	.string	"ignoring #pragma %s %s"
	.text
	.type	cb_def_pragma, @function
cb_def_pragma:
.LFB11:
	.loc 1 331 0
	.cfi_startproc
	pushq	%rbp	#
	.cfi_def_cfa_offset 16
	.cfi_offset 6, -16
	movq	%rsp, %rbp	#,
	.cfi_def_cfa_register 6
	subq	$48, %rsp	#,
	movq	%rdi, -40(%rbp)	# pfile, pfile
	movl	%esi, -44(%rbp)	# line, line
	.loc 1 335 0
	movl	warn_unknown_pragmas(%rip), %edx	# warn_unknown_pragmas, warn_unknown_pragmas.62
	movl	in_system_header(%rip), %eax	# in_system_header, in_system_header.63
	cmpl	%eax, %edx	# in_system_header.63, warn_unknown_pragmas.62
	jle	.L29	#,
.LBB5:
	.loc 1 340 0
	movq	$.LC2, -16(%rbp)	#, name
	movq	-16(%rbp), %rax	# name, tmp70
	movq	%rax, -24(%rbp)	# tmp70, space
	.loc 1 341 0
	movq	-40(%rbp), %rax	# pfile, tmp71
	movq	%rax, %rdi	# tmp71,
	call	cpp_get_token	#
	movq	%rax, -8(%rbp)	# tmp72, s
	.loc 1 342 0
	movq	-8(%rbp), %rax	# s, tmp73
	movzbl	6(%rax), %eax	# s_8->type, D.14833
	cmpb	$67, %al	#, D.14833
	je	.L31	#,
	.loc 1 344 0
	movq	-8(%rbp), %rdx	# s, tmp74
	movq	-40(%rbp), %rax	# pfile, tmp75
	movq	%rdx, %rsi	# tmp74,
	movq	%rax, %rdi	# tmp75,
	call	cpp_token_as_text	#
	movq	%rax, -24(%rbp)	# tmp76, space
	.loc 1 345 0
	movq	-40(%rbp), %rax	# pfile, tmp77
	movq	%rax, %rdi	# tmp77,
	call	cpp_get_token	#
	movq	%rax, -8(%rbp)	# tmp78, s
	.loc 1 346 0
	movq	-8(%rbp), %rax	# s, tmp79
	movzbl	6(%rax), %eax	# s_11->type, D.14833
	cmpb	$56, %al	#, D.14833
	jne	.L31	#,
	.loc 1 347 0
	movq	-8(%rbp), %rdx	# s, tmp80
	movq	-40(%rbp), %rax	# pfile, tmp81
	movq	%rdx, %rsi	# tmp80,
	movq	%rax, %rdi	# tmp81,
	call	cpp_token_as_text	#
	movq	%rax, -16(%rbp)	# tmp82, name
.L31:
	.loc 1 350 0
	movq	map(%rip), %rax	# map, map.64
	movl	8(%rax), %edx	# map.64_14->to_line, D.14834
	movl	-44(%rbp), %eax	# line, tmp83
	addl	%eax, %edx	# tmp83, D.14834
	movq	map(%rip), %rax	# map, map.65
	movl	12(%rax), %eax	# map.65_18->from_line, D.14834
	subl	%eax, %edx	# D.14834, D.14834
	movl	%edx, %eax	# D.14834, D.14834
	movl	%eax, lineno(%rip)	# lineno.66, lineno
	.loc 1 351 0
	movq	-16(%rbp), %rdx	# name, tmp84
	movq	-24(%rbp), %rax	# space, tmp85
	movq	%rax, %rsi	# tmp85,
	movl	$.LC10, %edi	#,
	movl	$0, %eax	#,
	call	warning	#
.L29:
.LBE5:
	.loc 1 353 0
	leave
	.cfi_def_cfa 7, 8
	ret
	.cfi_endproc
.LFE11:
	.size	cb_def_pragma, .-cb_def_pragma
	.type	cb_define, @function
cb_define:
.LFB12:
	.loc 1 361 0
	.cfi_startproc
	pushq	%rbp	#
	.cfi_def_cfa_offset 16
	.cfi_offset 6, -16
	movq	%rsp, %rbp	#,
	.cfi_def_cfa_register 6
	pushq	%rbx	#
	subq	$40, %rsp	#,
	.cfi_offset 3, -24
	movq	%rdi, -24(%rbp)	# pfile, pfile
	movl	%esi, -28(%rbp)	# line, line
	movq	%rdx, -40(%rbp)	# node, node
	.loc 1 362 0
	movq	debug_hooks(%rip), %rax	# debug_hooks, debug_hooks.67
	movq	16(%rax), %rbx	# debug_hooks.67_1->define, D.14836
	.loc 1 363 0
	movq	-40(%rbp), %rdx	# node, tmp68
	movq	-24(%rbp), %rax	# pfile, tmp69
	movq	%rdx, %rsi	# tmp68,
	movq	%rax, %rdi	# tmp69,
	call	cpp_macro_definition	#
	.loc 1 362 0
	movq	map(%rip), %rdx	# map, map.68
	movl	8(%rdx), %ecx	# map.68_6->to_line, D.14838
	movl	-28(%rbp), %edx	# line, tmp70
	addl	%edx, %ecx	# tmp70, D.14838
	movq	map(%rip), %rdx	# map, map.69
	movl	12(%rdx), %edx	# map.69_10->from_line, D.14838
	subl	%edx, %ecx	# D.14838, D.14838
	movl	%ecx, %edx	# D.14838, D.14838
	movq	%rax, %rsi	# D.14837,
	movl	%edx, %edi	# D.14838,
	call	*%rbx	# D.14836
	.loc 1 364 0
	addq	$40, %rsp	#,
	popq	%rbx	#
	popq	%rbp	#
	.cfi_def_cfa 7, 8
	ret
	.cfi_endproc
.LFE12:
	.size	cb_define, .-cb_define
	.type	cb_undef, @function
cb_undef:
.LFB13:
	.loc 1 372 0
	.cfi_startproc
	pushq	%rbp	#
	.cfi_def_cfa_offset 16
	.cfi_offset 6, -16
	movq	%rsp, %rbp	#,
	.cfi_def_cfa_register 6
	subq	$32, %rsp	#,
	movq	%rdi, -8(%rbp)	# pfile, pfile
	movl	%esi, -12(%rbp)	# line, line
	movq	%rdx, -24(%rbp)	# node, node
	.loc 1 373 0
	movq	debug_hooks(%rip), %rax	# debug_hooks, debug_hooks.70
	movq	24(%rax), %rax	# debug_hooks.70_1->undef, D.14839
	.loc 1 374 0
	movq	-24(%rbp), %rdx	# node, tmp68
	movq	8(%rdx), %rdx	# node_3(D)->ident.str, D.14840
	.loc 1 373 0
	movq	map(%rip), %rcx	# map, map.71
	movl	8(%rcx), %esi	# map.71_5->to_line, D.14841
	movl	-12(%rbp), %ecx	# line, tmp69
	addl	%ecx, %esi	# tmp69, D.14841
	movq	map(%rip), %rcx	# map, map.72
	movl	12(%rcx), %ecx	# map.72_9->from_line, D.14841
	subl	%ecx, %esi	# D.14841, D.14841
	movl	%esi, %ecx	# D.14841, D.14841
	movq	%rdx, %rsi	# D.14840,
	movl	%ecx, %edi	# D.14841,
	call	*%rax	# D.14839
	.loc 1 375 0
	leave
	.cfi_def_cfa 7, 8
	ret
	.cfi_endproc
.LFE13:
	.size	cb_undef, .-cb_undef
	.section	.rodata
.LC11:
	.string	"double"
	.align 8
.LC12:
	.string	"both 'f' and 'l' suffixes on floating constant"
.LC13:
	.string	"float"
.LC14:
	.string	"long double"
	.align 8
.LC15:
	.string	"floating point number exceeds range of '%s'"
	.text
	.type	parse_float, @function
parse_float:
.LFB14:
	.loc 1 722 0
	.cfi_startproc
	pushq	%rbp	#
	.cfi_def_cfa_offset 16
	.cfi_offset 6, -16
	movq	%rsp, %rbp	#,
	.cfi_def_cfa_register 6
	pushq	%rbx	#
	subq	$104, %rsp	#,
	.cfi_offset 3, -24
	movq	%rdi, -40(%rbp)	# data, data
	.loc 1 723 0
	movq	-40(%rbp), %rax	# data, tmp81
	movq	%rax, -24(%rbp)	# tmp81, args
	.loc 1 726 0
	movq	-24(%rbp), %rax	# args, tmp82
	movl	$0, 20(%rax)	#, args_3->conversion_errno
	.loc 1 727 0
	movq	global_trees+200(%rip), %rdx	# global_trees, D.14842
	movq	-24(%rbp), %rax	# args, tmp83
	movq	%rdx, 48(%rax)	# D.14842, args_3->type
	.loc 1 728 0
	movq	$.LC11, -32(%rbp)	#, typename
	.loc 1 734 0
	movq	-24(%rbp), %rax	# args, tmp84
	movl	8(%rax), %eax	# args_3->fflag, D.14843
	testl	%eax, %eax	# D.14843
	je	.L35	#,
	.loc 1 736 0
	movq	-24(%rbp), %rax	# args, tmp85
	movl	12(%rax), %eax	# args_3->lflag, D.14843
	testl	%eax, %eax	# D.14843
	je	.L36	#,
	.loc 1 737 0
	movl	$.LC12, %edi	#,
	movl	$0, %eax	#,
	call	error	#
.L36:
	.loc 1 739 0
	movq	global_trees+192(%rip), %rdx	# global_trees, D.14842
	movq	-24(%rbp), %rax	# args, tmp86
	movq	%rdx, 48(%rax)	# D.14842, args_3->type
	.loc 1 740 0
	movq	$.LC13, -32(%rbp)	#, typename
	jmp	.L37	#
.L35:
	.loc 1 742 0
	movq	-24(%rbp), %rax	# args, tmp87
	movl	12(%rax), %eax	# args_3->lflag, D.14843
	testl	%eax, %eax	# D.14843
	je	.L38	#,
	.loc 1 744 0
	movq	global_trees+208(%rip), %rdx	# global_trees, D.14842
	movq	-24(%rbp), %rax	# args, tmp88
	movq	%rdx, 48(%rax)	# D.14842, args_3->type
	.loc 1 745 0
	movq	$.LC14, -32(%rbp)	#, typename
	jmp	.L37	#
.L38:
	.loc 1 747 0
	movl	flag_single_precision_constant(%rip), %eax	# flag_single_precision_constant, flag_single_precision_constant.73
	testl	%eax, %eax	# flag_single_precision_constant.73
	je	.L37	#,
	.loc 1 749 0
	movq	global_trees+192(%rip), %rdx	# global_trees, D.14842
	movq	-24(%rbp), %rax	# args, tmp89
	movq	%rdx, 48(%rax)	# D.14842, args_3->type
	.loc 1 750 0
	movq	$.LC13, -32(%rbp)	#, typename
.L37:
	.loc 1 753 0
	call	__errno_location	#
	movl	$0, (%rax)	#, *_16
	.loc 1 754 0
	movq	-24(%rbp), %rax	# args, tmp90
	movl	16(%rax), %eax	# args_3->base, D.14843
	cmpl	$16, %eax	#, D.14843
	jne	.L39	#,
	.loc 1 755 0
	movq	-24(%rbp), %rax	# args, tmp91
	movq	48(%rax), %rax	# args_3->type, D.14842
	movzbl	61(%rax), %eax	# *_18, tmp94
	shrb	%al	# D.14845
	movzbl	%al, %edx	# D.14845, D.14846
	movq	-24(%rbp), %rax	# args, tmp95
	movq	(%rax), %rcx	# args_3->str, D.14847
	movq	-24(%rbp), %rbx	# args, tmp96
	leaq	-80(%rbp), %rax	#, tmp97
	movq	%rcx, %rsi	# D.14847,
	movq	%rax, %rdi	# tmp97,
	call	ereal_atof	#
	movq	-80(%rbp), %rax	#, tmp98
	movq	%rax, 24(%rbx)	# tmp98, args_3->value
	movq	-72(%rbp), %rax	#, tmp99
	movq	%rax, 32(%rbx)	# tmp99, args_3->value
	movq	-64(%rbp), %rax	#, tmp100
	movq	%rax, 40(%rbx)	# tmp100, args_3->value
	jmp	.L40	#
.L39:
	.loc 1 757 0
	movq	-24(%rbp), %rax	# args, tmp101
	movq	48(%rax), %rax	# args_3->type, D.14842
	movzbl	61(%rax), %eax	# *_22, tmp104
	shrb	%al	# D.14845
	movzbl	%al, %edx	# D.14845, D.14846
	movq	-24(%rbp), %rax	# args, tmp105
	movq	(%rax), %rcx	# args_3->str, D.14847
	movq	-24(%rbp), %rbx	# args, tmp106
	leaq	-80(%rbp), %rax	#, tmp107
	movq	%rcx, %rsi	# D.14847,
	movq	%rax, %rdi	# tmp107,
	call	ereal_atof	#
	movq	-80(%rbp), %rax	#, tmp108
	movq	%rax, 24(%rbx)	# tmp108, args_3->value
	movq	-72(%rbp), %rax	#, tmp109
	movq	%rax, 32(%rbx)	# tmp109, args_3->value
	movq	-64(%rbp), %rax	#, tmp110
	movq	%rax, 40(%rbx)	# tmp110, args_3->value
.L40:
	.loc 1 759 0
	call	__errno_location	#
	movl	(%rax), %edx	# *_26, D.14843
	movq	-24(%rbp), %rax	# args, tmp111
	movl	%edx, 20(%rax)	# D.14843, args_3->conversion_errno
	.loc 1 763 0
	movq	-24(%rbp), %rax	# args, tmp112
	movq	24(%rax), %rdx	# args_3->value, tmp113
	movq	%rdx, (%rsp)	# tmp113,
	movq	32(%rax), %rdx	# args_3->value, tmp114
	movq	%rdx, 8(%rsp)	# tmp114,
	movq	40(%rax), %rax	# args_3->value, tmp115
	movq	%rax, 16(%rsp)	# tmp115,
	call	target_isinf	#
	testl	%eax, %eax	# D.14843
	je	.L34	#,
	.loc 1 763 0 is_stmt 0 discriminator 1
	movl	pedantic(%rip), %eax	# pedantic, pedantic.74
	testl	%eax, %eax	# pedantic.74
	je	.L34	#,
	.loc 1 764 0 is_stmt 1
	movq	-32(%rbp), %rax	# typename, tmp116
	movq	%rax, %rsi	# tmp116,
	movl	$.LC15, %edi	#,
	movl	$0, %eax	#,
	call	warning	#
.L34:
	.loc 1 765 0
	addq	$104, %rsp	#,
	popq	%rbx	#
	popq	%rbp	#
	.cfi_def_cfa 7, 8
	ret
	.cfi_endproc
.LFE14:
	.size	parse_float, .-parse_float
	.section	.rodata
.LC16:
	.string	"stray '%c' in program"
.LC17:
	.string	"stray '\\%o' in program"
.LC18:
	.string	"c-lex.c"
	.text
	.globl	c_lex
	.type	c_lex, @function
c_lex:
.LFB15:
	.loc 1 770 0
	.cfi_startproc
	pushq	%rbp	#
	.cfi_def_cfa_offset 16
	.cfi_offset 6, -16
	movq	%rsp, %rbp	#,
	.cfi_def_cfa_register 6
	subq	$32, %rsp	#,
	movq	%rdi, -24(%rbp)	# value, value
.L43:
	.loc 1 774 0
	movl	$7, %edi	#,
	call	timevar_push	#
.L44:
	.loc 1 776 0 discriminator 1
	movq	parse_in(%rip), %rax	# parse_in, parse_in.75
	movq	%rax, %rdi	# parse_in.75,
	call	cpp_get_token	#
	movq	%rax, -8(%rbp)	# tmp93, tok
	.loc 1 777 0 discriminator 1
	movq	-8(%rbp), %rax	# tok, tmp94
	movzbl	6(%rax), %eax	# tok_2->type, D.14856
	cmpb	$66, %al	#, D.14856
	je	.L44	#,
	.loc 1 778 0
	movl	$7, %edi	#,
	call	timevar_pop	#
	.loc 1 783 0
	movl	src_lineno(%rip), %eax	# src_lineno, src_lineno.76
	movl	%eax, lineno(%rip)	# src_lineno.77, lineno
	.loc 1 785 0
	movq	-24(%rbp), %rax	# value, tmp95
	movq	$0, (%rax)	#, *value_6(D)
	.loc 1 786 0
	movq	-8(%rbp), %rax	# tok, tmp96
	movzbl	6(%rax), %eax	# tok_2->type, D.14856
	movzbl	%al, %eax	# D.14856, D.14857
	subl	$44, %eax	#, tmp97
	cmpl	$21, %eax	#, tmp97
	ja	.L59	#,
	movl	%eax, %eax	# tmp97, tmp98
	movq	.L47(,%rax,8), %rax	#, tmp99
	jmp	*%rax	# tmp99
	.section	.rodata
	.align 8
	.align 4
.L47:
	.quad	.L46
	.quad	.L48
	.quad	.L59
	.quad	.L59
	.quad	.L59
	.quad	.L59
	.quad	.L59
	.quad	.L59
	.quad	.L59
	.quad	.L59
	.quad	.L59
	.quad	.L59
	.quad	.L49
	.quad	.L50
	.quad	.L51
	.quad	.L51
	.quad	.L52
	.quad	.L53
	.quad	.L53
	.quad	.L54
	.quad	.L54
	.quad	.L54
	.text
.L46:
	.loc 1 788 0
	movl	indent_level(%rip), %eax	# indent_level, indent_level.78
	addl	$1, %eax	#, indent_level.79
	movl	%eax, indent_level(%rip)	# indent_level.79, indent_level
	jmp	.L55	#
.L48:
	.loc 1 789 0
	movl	indent_level(%rip), %eax	# indent_level, indent_level.80
	subl	$1, %eax	#, indent_level.81
	movl	%eax, indent_level(%rip)	# indent_level.81, indent_level
	jmp	.L55	#
.L52:
	.loc 1 793 0
	movq	-8(%rbp), %rax	# tok, tmp100
	movzbl	8(%rax), %eax	# tok_2->val.c, D.14856
	movzbl	%al, %eax	# D.14856, D.14857
	cltq
	movzwl	_sch_istable(%rax,%rax), %eax	# _sch_istable, D.14858
	movzwl	%ax, %eax	# D.14858, D.14857
	andl	$172, %eax	#, D.14857
	testl	%eax, %eax	# D.14857
	je	.L56	#,
	.loc 1 794 0
	movq	-8(%rbp), %rax	# tok, tmp102
	movzbl	8(%rax), %eax	# tok_2->val.c, D.14856
	movzbl	%al, %eax	# D.14856, D.14857
	movl	%eax, %esi	# D.14857,
	movl	$.LC16, %edi	#,
	movl	$0, %eax	#,
	call	error	#
	.loc 1 797 0
	jmp	.L43	#
.L56:
	.loc 1 796 0
	movq	-8(%rbp), %rax	# tok, tmp103
	movzbl	8(%rax), %eax	# tok_2->val.c, D.14856
	movzbl	%al, %eax	# D.14856, D.14857
	movl	%eax, %esi	# D.14857,
	movl	$.LC17, %edi	#,
	movl	$0, %eax	#,
	call	error	#
	.loc 1 797 0
	jmp	.L43	#
.L49:
	.loc 1 800 0
	movq	-8(%rbp), %rax	# tok, tmp104
	movq	8(%rax), %rax	# tok_2->val.node, D.14859
	leaq	-24(%rax), %rdx	#, D.14860
	movq	-24(%rbp), %rax	# value, tmp105
	movq	%rdx, (%rax)	# D.14860, *value_6(D)
	.loc 1 801 0
	jmp	.L55	#
.L50:
	.loc 1 804 0
	movq	-8(%rbp), %rax	# tok, tmp106
	movl	8(%rax), %edx	# tok_2->val.str.len, D.14861
	movq	-8(%rbp), %rax	# tok, tmp107
	movq	16(%rax), %rax	# tok_2->val.str.text, D.14862
	movl	%edx, %esi	# D.14861,
	movq	%rax, %rdi	# D.14862,
	call	lex_number	#
	movq	-24(%rbp), %rdx	# value, tmp108
	movq	%rax, (%rdx)	# D.14860, *value_6(D)
	.loc 1 805 0
	jmp	.L55	#
.L51:
	.loc 1 809 0
	movq	-8(%rbp), %rax	# tok, tmp109
	movq	%rax, %rdi	# tmp109,
	call	lex_charconst	#
	movq	-24(%rbp), %rdx	# value, tmp110
	movq	%rax, (%rdx)	# D.14860, *value_6(D)
	.loc 1 810 0
	jmp	.L55	#
.L53:
	.loc 1 815 0
	movq	-8(%rbp), %rax	# tok, tmp111
	movzbl	6(%rax), %eax	# tok_2->type, D.14856
	.loc 1 814 0
	cmpb	$62, %al	#, D.14856
	sete	%al	#, D.14863
	movzbl	%al, %edx	# D.14863, D.14857
	movq	-8(%rbp), %rax	# tok, tmp112
	movl	8(%rax), %ecx	# tok_2->val.str.len, D.14861
	movq	-8(%rbp), %rax	# tok, tmp113
	movq	16(%rax), %rax	# tok_2->val.str.text, D.14862
	movl	%ecx, %esi	# D.14861,
	movq	%rax, %rdi	# D.14862,
	call	lex_string	#
	movq	-24(%rbp), %rdx	# value, tmp114
	movq	%rax, (%rdx)	# D.14860, *value_6(D)
	.loc 1 816 0
	jmp	.L55	#
.L54:
	.loc 1 822 0
	movl	$__FUNCTION__.13755, %edx	#,
	movl	$822, %esi	#,
	movl	$.LC18, %edi	#,
	call	fancy_abort	#
.L59:
	.loc 1 824 0
	nop
.L55:
	.loc 1 827 0
	movq	-8(%rbp), %rax	# tok, tmp115
	movzbl	6(%rax), %eax	# tok_2->type, D.14856
	movzbl	%al, %eax	# D.14856, D.14857
	.loc 1 828 0
	leave
	.cfi_def_cfa 7, 8
	ret
	.cfi_endproc
.LFE15:
	.size	c_lex, .-c_lex
	.section	.rodata
	.align 8
.LC19:
	.string	"too many decimal points in floating constant"
	.align 8
.LC20:
	.string	"decimal point in exponent - impossible!"
.LC21:
	.string	"underscore in number"
	.align 8
.LC22:
	.string	"numeric constant with no digits"
	.align 8
.LC23:
	.string	"numeric constant contains digits beyond the radix"
	.align 8
.LC24:
	.string	"floating constant may not be in radix 16"
	.align 8
.LC25:
	.string	"hexadecimal floating constant has no exponent"
	.align 8
.LC26:
	.string	"floating constant exponent has no digits"
	.align 8
.LC27:
	.string	"more than one 'f' suffix on floating constant"
	.align 8
.LC28:
	.string	"traditional C rejects the 'f' suffix"
	.align 8
.LC29:
	.string	"more than one 'l' suffix on floating constant"
	.align 8
.LC30:
	.string	"traditional C rejects the 'l' suffix"
	.align 8
.LC31:
	.string	"more than one 'i' or 'j' suffix on floating constant"
	.align 8
.LC32:
	.string	"ISO C forbids imaginary numeric constants"
	.align 8
.LC33:
	.string	"invalid suffix on floating constant"
	.align 8
.LC34:
	.string	"floating constant out of range"
	.align 8
.LC35:
	.string	"floating point number exceeds range of 'double'"
	.align 8
.LC36:
	.string	"two 'u' suffixes on integer constant"
	.align 8
.LC37:
	.string	"traditional C rejects the 'u' suffix"
	.align 8
.LC38:
	.string	"three 'l' suffixes on integer constant"
	.align 8
.LC39:
	.string	"'lul' is not a valid integer suffix"
	.align 8
.LC40:
	.string	"'Ll' and 'lL' are not valid integer suffixes"
	.align 8
.LC41:
	.string	"ISO C89 forbids long long integer constants"
	.align 8
.LC42:
	.string	"more than one 'i' or 'j' suffix on integer constant"
	.align 8
.LC43:
	.string	"invalid suffix on integer constant"
	.align 8
.LC44:
	.string	"integer constant is too large for this configuration of the compiler - truncated to %d bits"
	.align 8
.LC45:
	.string	"width of integer constant changes with -traditional"
	.align 8
.LC46:
	.string	"integer constant is unsigned in ISO C, signed with -traditional"
	.align 8
.LC47:
	.string	"width of integer constant may change on other systems with -traditional"
.LC48:
	.string	"an unsigned long long int"
.LC49:
	.string	"a long long int"
.LC50:
	.string	"an unsigned long int"
	.align 8
.LC51:
	.string	"integer constant larger than the maximum value of %s"
	.align 8
.LC52:
	.string	"decimal constant is so large that it is unsigned"
	.align 8
.LC53:
	.string	"complex integer constant is too wide for 'complex int'"
	.align 8
.LC54:
	.string	"integer constant is larger than the maximum value for its type"
	.align 8
.LC55:
	.string	"missing white space after number '%.*s'"
	.text
	.type	lex_number, @function
lex_number:
.LFB16:
	.loc 1 836 0
	.cfi_startproc
	pushq	%rbp	#
	.cfi_def_cfa_offset 16
	.cfi_offset 6, -16
	movq	%rsp, %rbp	#,
	.cfi_def_cfa_register 6
	pushq	%rbx	#
	subq	$392, %rsp	#,
	.cfi_offset 3, -24
	movq	%rdi, -344(%rbp)	# str, str
	movl	%esi, -348(%rbp)	# len, len
	.loc 1 837 0
	movl	$10, -324(%rbp)	#, base
	.loc 1 838 0
	movl	$0, -320(%rbp)	#, count
	.loc 1 839 0
	movl	$0, -316(%rbp)	#, largest_digit
	.loc 1 840 0
	movl	$0, -312(%rbp)	#, numdigits
	.loc 1 841 0
	movl	$0, -308(%rbp)	#, overflow
	.loc 1 845 0
	movl	$0, -300(%rbp)	#, floatflag
	.loc 1 859 0
	cmpl	$1, -348(%rbp)	#, len
	jne	.L61	#,
	.loc 1 861 0
	movq	-344(%rbp), %rax	# str, tmp277
	movzbl	(%rax), %eax	# *str_70(D), D.14868
	cmpb	$48, %al	#, D.14868
	jne	.L62	#,
	.loc 1 862 0
	movq	global_trees+88(%rip), %rax	# global_trees, D.14867
	jmp	.L193	#
.L62:
	.loc 1 863 0
	movq	-344(%rbp), %rax	# str, tmp278
	movzbl	(%rax), %eax	# *str_70(D), D.14868
	cmpb	$49, %al	#, D.14868
	jne	.L64	#,
	.loc 1 864 0
	movq	global_trees+96(%rip), %rax	# global_trees, D.14867
	jmp	.L193	#
.L64:
	.loc 1 866 0
	movq	-344(%rbp), %rax	# str, tmp279
	movzbl	(%rax), %eax	# *str_70(D), D.14868
	movsbl	%al, %eax	# D.14868, D.14869
	subl	$48, %eax	#, D.14869
	cltq
	movl	$0, %esi	#,
	movq	%rax, %rdi	# D.14870,
	call	build_int_2_wide	#
	jmp	.L193	#
.L61:
	.loc 1 869 0
	movl	$0, -320(%rbp)	#, count
	jmp	.L65	#
.L66:
	.loc 1 870 0 discriminator 2
	movl	-320(%rbp), %eax	# count, tmp281
	cltq
	movl	$0, -80(%rbp,%rax,4)	#, parts
	.loc 1 869 0 discriminator 2
	addl	$1, -320(%rbp)	#, count
.L65:
	.loc 1 869 0 is_stmt 0 discriminator 1
	cmpl	$15, -320(%rbp)	#, count
	jle	.L66	#,
	.loc 1 873 0 is_stmt 1
	movq	-344(%rbp), %rax	# str, tmp282
	movq	%rax, -240(%rbp)	# tmp282, p
	.loc 1 875 0
	cmpl	$2, -348(%rbp)	#, len
	jbe	.L67	#,
	.loc 1 875 0 is_stmt 0 discriminator 1
	movq	-344(%rbp), %rax	# str, tmp283
	movzbl	(%rax), %eax	# *str_70(D), D.14868
	cmpb	$48, %al	#, D.14868
	jne	.L67	#,
	movq	-344(%rbp), %rax	# str, tmp284
	addq	$1, %rax	#, D.14871
	movzbl	(%rax), %eax	# *_84, D.14868
	cmpb	$120, %al	#, D.14868
	je	.L68	#,
	movq	-344(%rbp), %rax	# str, tmp285
	addq	$1, %rax	#, D.14871
	movzbl	(%rax), %eax	# *_86, D.14868
	cmpb	$88, %al	#, D.14868
	jne	.L67	#,
.L68:
	.loc 1 877 0 is_stmt 1
	movl	$16, -324(%rbp)	#, base
	.loc 1 878 0
	movq	-344(%rbp), %rax	# str, tmp289
	addq	$2, %rax	#, tmp288
	movq	%rax, -240(%rbp)	# tmp288, p
	jmp	.L69	#
.L67:
	.loc 1 881 0
	movq	-344(%rbp), %rax	# str, tmp290
	movzbl	(%rax), %eax	# *str_70(D), D.14868
	cmpb	$48, %al	#, D.14868
	jne	.L69	#,
	.loc 1 881 0 is_stmt 0 discriminator 1
	movq	-344(%rbp), %rax	# str, tmp291
	addq	$1, %rax	#, D.14871
	movzbl	(%rax), %eax	# *_91, D.14868
	movsbl	%al, %eax	# D.14868, D.14869
	movzbl	%al, %eax	# D.14869, D.14869
	cltq
	movzwl	_sch_istable(%rax,%rax), %eax	# _sch_istable, D.14872
	movzwl	%ax, %eax	# D.14872, D.14869
	andl	$4, %eax	#, D.14869
	testl	%eax, %eax	# D.14869
	je	.L69	#,
	.loc 1 883 0 is_stmt 1
	movl	$8, -324(%rbp)	#, base
	.loc 1 884 0
	movq	-344(%rbp), %rax	# str, tmp296
	addq	$1, %rax	#, tmp295
	movq	%rax, -240(%rbp)	# tmp295, p
.L69:
	.loc 1 889 0
	movq	-240(%rbp), %rax	# p, p.82
	leaq	1(%rax), %rdx	#, tmp297
	movq	%rdx, -240(%rbp)	# tmp297, p
	movzbl	(%rax), %eax	# *p.82_100, D.14868
	movsbl	%al, %eax	# D.14868, tmp298
	movl	%eax, -304(%rbp)	# tmp298, c
	.loc 1 891 0
	cmpl	$46, -304(%rbp)	#, c
	jne	.L70	#,
	.loc 1 893 0
	cmpl	$1, -300(%rbp)	#, floatflag
	jne	.L71	#,
	.loc 1 894 0
	movl	$.LC19, %edi	#,
	movl	$0, %eax	#,
	call	error	#
	jmp	.L72	#
.L71:
	.loc 1 895 0
	cmpl	$2, -300(%rbp)	#, floatflag
	jne	.L73	#,
	.loc 1 896 0
	movl	$.LC20, %edi	#,
	movl	$0, %eax	#,
	call	error	#
	jmp	.L72	#
.L73:
	.loc 1 898 0
	movl	$1, -300(%rbp)	#, floatflag
	.loc 1 900 0
	cmpl	$8, -324(%rbp)	#, base
	jne	.L75	#,
	.loc 1 901 0
	movl	$10, -324(%rbp)	#, base
	jmp	.L75	#
.L70:
	.loc 1 903 0
	cmpl	$95, -304(%rbp)	#, c
	jne	.L76	#,
	.loc 1 907 0
	movl	$.LC21, %edi	#,
	movl	$0, %eax	#,
	call	error	#
	jmp	.L72	#
.L76:
.LBB6:
	.loc 1 914 0
	movl	-304(%rbp), %eax	# c, tmp299
	movzbl	%al, %eax	# tmp299, D.14869
	cltq
	movzwl	_sch_istable(%rax,%rax), %eax	# _sch_istable, D.14872
	movzwl	%ax, %eax	# D.14872, D.14869
	andl	$4, %eax	#, D.14869
	testl	%eax, %eax	# D.14869
	jne	.L77	#,
	.loc 1 915 0
	cmpl	$16, -324(%rbp)	#, base
	jne	.L78	#,
	.loc 1 915 0 is_stmt 0 discriminator 1
	movl	-304(%rbp), %eax	# c, tmp301
	movzbl	%al, %eax	# tmp301, D.14869
	cltq
	movzwl	_sch_istable(%rax,%rax), %eax	# _sch_istable, D.14872
	movzwl	%ax, %eax	# D.14872, D.14869
	andl	$256, %eax	#, D.14869
	testl	%eax, %eax	# D.14869
	je	.L78	#,
.L77:
	.loc 1 917 0 is_stmt 1
	movl	-304(%rbp), %eax	# c, tmp303
	movzbl	%al, %eax	# D.14873, D.14869
	cltq
	movzbl	_hex_value(%rax), %eax	# _hex_value, D.14868
	movsbl	%al, %eax	# D.14868, tmp305
	movl	%eax, -256(%rbp)	# tmp305, n
	.loc 1 936 0
	movl	-256(%rbp), %eax	# n, tmp306
	cmpl	-316(%rbp), %eax	# largest_digit, tmp306
	jge	.L79	#,
	jmp	.L80	#
.L78:
	.loc 1 919 0
	cmpl	$10, -324(%rbp)	#, base
	jg	.L81	#,
	.loc 1 919 0 is_stmt 0 discriminator 1
	cmpl	$101, -304(%rbp)	#, c
	je	.L82	#,
	cmpl	$69, -304(%rbp)	#, c
	jne	.L81	#,
.L82:
	.loc 1 921 0 is_stmt 1
	movl	$10, -324(%rbp)	#, base
	.loc 1 922 0
	movl	$2, -300(%rbp)	#, floatflag
	.loc 1 923 0
	jmp	.L83	#
.L81:
	.loc 1 925 0
	cmpl	$16, -324(%rbp)	#, base
	jne	.L84	#,
	.loc 1 925 0 is_stmt 0 discriminator 1
	cmpl	$112, -304(%rbp)	#, c
	je	.L85	#,
	cmpl	$80, -304(%rbp)	#, c
	jne	.L84	#,
.L85:
	.loc 1 927 0 is_stmt 1
	movl	$2, -300(%rbp)	#, floatflag
	.loc 1 928 0
	jmp	.L83	#
.L84:
	.loc 1 932 0
	subq	$1, -240(%rbp)	#, p
	.loc 1 933 0
	jmp	.L83	#
.L79:
	.loc 1 937 0
	movl	-256(%rbp), %eax	# n, tmp307
	movl	%eax, -316(%rbp)	# tmp307, largest_digit
.L80:
	.loc 1 938 0
	addl	$1, -312(%rbp)	#, numdigits
	.loc 1 940 0
	movl	$0, -320(%rbp)	#, count
	jmp	.L86	#
.L89:
	.loc 1 942 0
	movl	-320(%rbp), %eax	# count, tmp309
	cltq
	movl	-80(%rbp,%rax,4), %edx	# parts, D.14874
	movl	-324(%rbp), %eax	# base, base.83
	imull	%eax, %edx	# base.83, D.14874
	movl	-320(%rbp), %eax	# count, tmp311
	cltq
	movl	%edx, -80(%rbp,%rax,4)	# D.14874, parts
	.loc 1 943 0
	cmpl	$0, -320(%rbp)	#, count
	je	.L87	#,
	.loc 1 946 0
	movl	-320(%rbp), %eax	# count, tmp313
	cltq
	movl	-80(%rbp,%rax,4), %edx	# parts, D.14874
	movl	-320(%rbp), %eax	# count, tmp314
	subl	$1, %eax	#, D.14869
	cltq
	movl	-80(%rbp,%rax,4), %eax	# parts, D.14874
	shrl	$8, %eax	#, D.14874
	addl	%eax, %edx	# D.14874, D.14874
	movl	-320(%rbp), %eax	# count, tmp317
	cltq
	movl	%edx, -80(%rbp,%rax,4)	# D.14874, parts
	.loc 1 948 0
	movl	-320(%rbp), %eax	# count, tmp318
	leal	-1(%rax), %ecx	#, D.14869
	movl	-320(%rbp), %eax	# count, tmp319
	subl	$1, %eax	#, D.14869
	cltq
	movl	-80(%rbp,%rax,4), %eax	# parts, D.14874
	movzbl	%al, %edx	# D.14874, D.14874
	movslq	%ecx, %rax	# D.14869, tmp321
	movl	%edx, -80(%rbp,%rax,4)	# D.14874, parts
	jmp	.L88	#
.L87:
	.loc 1 951 0
	movl	-80(%rbp), %edx	# parts, D.14874
	movl	-256(%rbp), %eax	# n, n.84
	addl	%edx, %eax	# D.14874, D.14874
	movl	%eax, -80(%rbp)	# D.14874, parts
.L88:
	.loc 1 940 0
	addl	$1, -320(%rbp)	#, count
.L86:
	.loc 1 940 0 is_stmt 0 discriminator 1
	cmpl	$15, -320(%rbp)	#, count
	jle	.L89	#,
	.loc 1 958 0 is_stmt 1
	movl	-20(%rbp), %eax	# parts, D.14874
	shrl	$8, %eax	#, D.14874
	testl	%eax, %eax	# D.14874
	je	.L75	#,
	.loc 1 960 0
	movl	$1, -308(%rbp)	#, overflow
	.loc 1 961 0
	movl	-20(%rbp), %eax	# parts, D.14874
	movzbl	%al, %eax	# D.14874, D.14874
	movl	%eax, -20(%rbp)	# D.14874, parts
.L75:
.LBE6:
	.loc 1 965 0
	movl	-348(%rbp), %edx	# len, D.14875
	movq	-344(%rbp), %rax	# str, tmp322
	addq	%rdx, %rax	# D.14875, D.14871
	cmpq	-240(%rbp), %rax	# p, D.14871
	ja	.L69	#,
.L83:
	.loc 1 968 0
	cmpl	$0, -312(%rbp)	#, numdigits
	jne	.L90	#,
	.loc 1 969 0
	movl	$.LC22, %edi	#,
	movl	$0, %eax	#,
	call	error	#
	jmp	.L72	#
.L90:
	.loc 1 971 0
	movl	-316(%rbp), %eax	# largest_digit, tmp323
	cmpl	-324(%rbp), %eax	# base, tmp323
	jl	.L91	#,
	.loc 1 972 0
	movl	$.LC23, %edi	#,
	movl	$0, %eax	#,
	call	error	#
	jmp	.L72	#
.L91:
	.loc 1 974 0
	cmpl	$0, -300(%rbp)	#, floatflag
	je	.L92	#,
.LBB7:
	.loc 1 982 0
	cmpl	$16, -324(%rbp)	#, base
	jne	.L93	#,
	.loc 1 982 0 is_stmt 0 discriminator 1
	movl	pedantic(%rip), %eax	# pedantic, pedantic.85
	testl	%eax, %eax	# pedantic.85
	je	.L93	#,
	movl	flag_isoc99(%rip), %eax	# flag_isoc99, flag_isoc99.86
	testl	%eax, %eax	# flag_isoc99.86
	jne	.L93	#,
	.loc 1 983 0 is_stmt 1
	movl	$.LC24, %edi	#,
	movl	$0, %eax	#,
	call	pedwarn	#
.L93:
	.loc 1 985 0
	cmpl	$16, -324(%rbp)	#, base
	jne	.L94	#,
	.loc 1 985 0 is_stmt 0 discriminator 1
	cmpl	$2, -300(%rbp)	#, floatflag
	je	.L94	#,
	.loc 1 986 0 is_stmt 1
	movl	$.LC25, %edi	#,
	movl	$0, %eax	#,
	call	error	#
	jmp	.L72	#
.L94:
	.loc 1 989 0
	cmpl	$10, -324(%rbp)	#, base
	jne	.L96	#,
	.loc 1 989 0 is_stmt 0 discriminator 1
	cmpl	$101, -304(%rbp)	#, c
	je	.L97	#,
	cmpl	$69, -304(%rbp)	#, c
	je	.L97	#,
.L96:
	.loc 1 990 0 is_stmt 1
	cmpl	$16, -324(%rbp)	#, base
	jne	.L98	#,
	.loc 1 990 0 is_stmt 0 discriminator 1
	cmpl	$112, -304(%rbp)	#, c
	je	.L97	#,
	cmpl	$80, -304(%rbp)	#, c
	jne	.L98	#,
.L97:
	.loc 1 992 0 is_stmt 1
	movl	-348(%rbp), %edx	# len, D.14875
	movq	-344(%rbp), %rax	# str, tmp324
	addq	%rdx, %rax	# D.14875, D.14871
	cmpq	-240(%rbp), %rax	# p, D.14871
	jbe	.L99	#,
	.loc 1 993 0
	movq	-240(%rbp), %rax	# p, p.87
	leaq	1(%rax), %rdx	#, tmp325
	movq	%rdx, -240(%rbp)	# tmp325, p
	movzbl	(%rax), %eax	# *p.87_152, D.14868
	movsbl	%al, %eax	# D.14868, tmp326
	movl	%eax, -304(%rbp)	# tmp326, c
.L99:
	.loc 1 994 0
	movl	-348(%rbp), %edx	# len, D.14875
	movq	-344(%rbp), %rax	# str, tmp327
	addq	%rdx, %rax	# D.14875, D.14871
	cmpq	-240(%rbp), %rax	# p, D.14871
	jbe	.L100	#,
	.loc 1 994 0 is_stmt 0 discriminator 1
	cmpl	$43, -304(%rbp)	#, c
	je	.L101	#,
	cmpl	$45, -304(%rbp)	#, c
	jne	.L100	#,
.L101:
	.loc 1 995 0 is_stmt 1
	movq	-240(%rbp), %rax	# p, p.88
	leaq	1(%rax), %rdx	#, tmp328
	movq	%rdx, -240(%rbp)	# tmp328, p
	movzbl	(%rax), %eax	# *p.88_158, D.14868
	movsbl	%al, %eax	# D.14868, tmp329
	movl	%eax, -304(%rbp)	# tmp329, c
.L100:
	.loc 1 997 0
	movl	-304(%rbp), %eax	# c, tmp330
	movzbl	%al, %eax	# tmp330, D.14869
	cltq
	movzwl	_sch_istable(%rax,%rax), %eax	# _sch_istable, D.14872
	movzwl	%ax, %eax	# D.14872, D.14869
	andl	$4, %eax	#, D.14869
	testl	%eax, %eax	# D.14869
	jne	.L102	#,
	.loc 1 998 0
	movl	$.LC26, %edi	#,
	movl	$0, %eax	#,
	call	error	#
	jmp	.L72	#
.L102:
	.loc 1 999 0
	jmp	.L103	#
.L105:
	.loc 1 1000 0
	movq	-240(%rbp), %rax	# p, p.89
	leaq	1(%rax), %rdx	#, tmp332
	movq	%rdx, -240(%rbp)	# tmp332, p
	movzbl	(%rax), %eax	# *p.89_172, D.14868
	movsbl	%al, %eax	# D.14868, tmp333
	movl	%eax, -304(%rbp)	# tmp333, c
.L103:
	.loc 1 999 0 discriminator 1
	movl	-348(%rbp), %edx	# len, D.14875
	movq	-344(%rbp), %rax	# str, tmp334
	addq	%rdx, %rax	# D.14875, D.14871
	cmpq	-240(%rbp), %rax	# p, D.14871
	jbe	.L104	#,
	.loc 1 999 0 is_stmt 0 discriminator 2
	movl	-304(%rbp), %eax	# c, tmp335
	movzbl	%al, %eax	# tmp335, D.14869
	cltq
	movzwl	_sch_istable(%rax,%rax), %eax	# _sch_istable, D.14872
	movzwl	%ax, %eax	# D.14872, D.14869
	andl	$4, %eax	#, D.14869
	testl	%eax, %eax	# D.14869
	jne	.L105	#,
.L104:
	.loc 1 1001 0 is_stmt 1
	movl	-304(%rbp), %eax	# c, tmp337
	movzbl	%al, %eax	# tmp337, D.14869
	cltq
	movzwl	_sch_istable(%rax,%rax), %eax	# _sch_istable, D.14872
	movzwl	%ax, %eax	# D.14872, D.14869
	andl	$4, %eax	#, D.14869
	testl	%eax, %eax	# D.14869
	jne	.L98	#,
	.loc 1 1002 0
	subq	$1, -240(%rbp)	#, p
.L98:
	.loc 1 1007 0
	movq	-240(%rbp), %rdx	# p, p.90
	movq	-344(%rbp), %rax	# str, str.91
	subq	%rax, %rdx	# str.91, D.14876
	movq	%rdx, %rax	# D.14876, D.14876
	addq	$1, %rax	#, D.14876
	leaq	15(%rax), %rdx	#, tmp339
	movl	$16, %eax	#, tmp503
	subq	$1, %rax	#, tmp340
	addq	%rdx, %rax	# tmp339, tmp341
	movl	$16, %ebx	#, tmp504
	movl	$0, %edx	#, tmp344
	divq	%rbx	# tmp504
	imulq	$16, %rax, %rax	#, tmp343, tmp345
	subq	%rax, %rsp	# tmp345,
	leaq	48(%rsp), %rax	#, tmp346
	addq	$15, %rax	#, tmp347
	shrq	$4, %rax	#, tmp348
	salq	$4, %rax	#, tmp349
	movq	%rax, -200(%rbp)	# tmp349, copy
	.loc 1 1008 0
	movq	-240(%rbp), %rdx	# p, p.92
	movq	-344(%rbp), %rax	# str, str.93
	subq	%rax, %rdx	# str.93, D.14876
	movq	%rdx, %rax	# D.14876, D.14876
	movq	%rax, %rdx	# D.14876, D.14870
	movq	-344(%rbp), %rcx	# str, tmp350
	movq	-200(%rbp), %rax	# copy, tmp351
	movq	%rcx, %rsi	# tmp350,
	movq	%rax, %rdi	# tmp351,
	call	memcpy	#
	.loc 1 1009 0
	movq	-240(%rbp), %rdx	# p, p.94
	movq	-344(%rbp), %rax	# str, str.95
	subq	%rax, %rdx	# str.95, D.14876
	movq	%rdx, %rax	# D.14876, D.14876
	movq	%rax, %rdx	# D.14876, D.14875
	movq	-200(%rbp), %rax	# copy, tmp352
	addq	%rdx, %rax	# D.14875, D.14877
	movb	$0, (%rax)	#, *_195
	.loc 1 1012 0
	movl	$0, -296(%rbp)	#, imag
	movl	-296(%rbp), %eax	# imag, tmp353
	movl	%eax, -288(%rbp)	# tmp353, lflag
	movl	-288(%rbp), %eax	# lflag, tmp354
	movl	%eax, -292(%rbp)	# tmp354, fflag
	.loc 1 1013 0
	jmp	.L106	#
.L118:
	.loc 1 1014 0
	movq	-240(%rbp), %rax	# p, p.96
	leaq	1(%rax), %rdx	#, tmp355
	movq	%rdx, -240(%rbp)	# tmp355, p
	movzbl	(%rax), %eax	# *p.96_201, D.14868
	movsbl	%al, %eax	# D.14868, D.14869
	subl	$70, %eax	#, tmp356
	cmpl	$38, %eax	#, tmp356
	ja	.L107	#,
	movl	%eax, %eax	# tmp356, tmp357
	movq	.L109(,%rax,8), %rax	#, tmp358
	jmp	*%rax	# tmp358
	.section	.rodata
	.align 8
	.align 4
.L109:
	.quad	.L108
	.quad	.L107
	.quad	.L107
	.quad	.L110
	.quad	.L110
	.quad	.L107
	.quad	.L111
	.quad	.L107
	.quad	.L107
	.quad	.L107
	.quad	.L107
	.quad	.L107
	.quad	.L107
	.quad	.L107
	.quad	.L107
	.quad	.L107
	.quad	.L107
	.quad	.L107
	.quad	.L107
	.quad	.L107
	.quad	.L107
	.quad	.L107
	.quad	.L107
	.quad	.L107
	.quad	.L107
	.quad	.L107
	.quad	.L107
	.quad	.L107
	.quad	.L107
	.quad	.L107
	.quad	.L107
	.quad	.L107
	.quad	.L108
	.quad	.L107
	.quad	.L107
	.quad	.L110
	.quad	.L110
	.quad	.L107
	.quad	.L111
	.text
.L108:
	.loc 1 1017 0
	cmpl	$0, -292(%rbp)	#, fflag
	je	.L112	#,
	.loc 1 1018 0
	movl	$.LC27, %edi	#,
	movl	$0, %eax	#,
	call	error	#
	jmp	.L72	#
.L112:
	.loc 1 1019 0
	movl	warn_traditional(%rip), %eax	# warn_traditional, warn_traditional.97
	testl	%eax, %eax	# warn_traditional.97
	je	.L113	#,
	.loc 1 1019 0 is_stmt 0 discriminator 1
	movl	in_system_header(%rip), %eax	# in_system_header, in_system_header.98
	testl	%eax, %eax	# in_system_header.98
	jne	.L113	#,
	.loc 1 1020 0 is_stmt 1
	movq	parse_in(%rip), %rax	# parse_in, parse_in.99
	movq	%rax, %rdi	# parse_in.99,
	call	cpp_sys_macro_p	#
	testl	%eax, %eax	# D.14869
	jne	.L113	#,
	.loc 1 1021 0
	movl	$.LC28, %edi	#,
	movl	$0, %eax	#,
	call	warning	#
.L113:
	.loc 1 1023 0
	movl	$1, -292(%rbp)	#, fflag
	.loc 1 1024 0
	jmp	.L106	#
.L111:
	.loc 1 1027 0
	cmpl	$0, -288(%rbp)	#, lflag
	je	.L114	#,
	.loc 1 1028 0
	movl	$.LC29, %edi	#,
	movl	$0, %eax	#,
	call	error	#
	jmp	.L72	#
.L114:
	.loc 1 1029 0
	movl	warn_traditional(%rip), %eax	# warn_traditional, warn_traditional.100
	testl	%eax, %eax	# warn_traditional.100
	je	.L115	#,
	.loc 1 1029 0 is_stmt 0 discriminator 1
	movl	in_system_header(%rip), %eax	# in_system_header, in_system_header.101
	testl	%eax, %eax	# in_system_header.101
	jne	.L115	#,
	.loc 1 1030 0 is_stmt 1
	movq	parse_in(%rip), %rax	# parse_in, parse_in.102
	movq	%rax, %rdi	# parse_in.102,
	call	cpp_sys_macro_p	#
	testl	%eax, %eax	# D.14869
	jne	.L115	#,
	.loc 1 1031 0
	movl	$.LC30, %edi	#,
	movl	$0, %eax	#,
	call	warning	#
.L115:
	.loc 1 1033 0
	movl	$1, -288(%rbp)	#, lflag
	.loc 1 1034 0
	jmp	.L106	#
.L110:
	.loc 1 1038 0
	cmpl	$0, -296(%rbp)	#, imag
	je	.L116	#,
	.loc 1 1039 0
	movl	$.LC31, %edi	#,
	movl	$0, %eax	#,
	call	error	#
	jmp	.L72	#
.L116:
	.loc 1 1040 0
	movl	pedantic(%rip), %eax	# pedantic, pedantic.103
	testl	%eax, %eax	# pedantic.103
	je	.L117	#,
	.loc 1 1041 0
	movl	$.LC32, %edi	#,
	movl	$0, %eax	#,
	call	pedwarn	#
.L117:
	.loc 1 1042 0
	movl	$1, -296(%rbp)	#, imag
	.loc 1 1043 0
	jmp	.L106	#
.L107:
	.loc 1 1046 0
	movl	$.LC33, %edi	#,
	movl	$0, %eax	#,
	call	error	#
	jmp	.L72	#
.L106:
	.loc 1 1013 0 discriminator 1
	movl	-348(%rbp), %edx	# len, D.14875
	movq	-344(%rbp), %rax	# str, tmp359
	addq	%rdx, %rax	# D.14875, D.14871
	cmpq	-240(%rbp), %rax	# p, D.14871
	ja	.L118	#,
	.loc 1 1050 0
	movq	-200(%rbp), %rax	# copy, tmp360
	movq	%rax, -144(%rbp)	# tmp360, args.str
	.loc 1 1051 0
	movl	-292(%rbp), %eax	# fflag, tmp361
	movl	%eax, -136(%rbp)	# tmp361, args.fflag
	.loc 1 1052 0
	movl	-288(%rbp), %eax	# lflag, tmp362
	movl	%eax, -132(%rbp)	# tmp362, args.lflag
	.loc 1 1053 0
	movl	-324(%rbp), %eax	# base, tmp363
	movl	%eax, -128(%rbp)	# tmp363, args.base
	.loc 1 1056 0
	leaq	-144(%rbp), %rax	#, tmp364
	movq	%rax, %rsi	# tmp364,
	movl	$parse_float, %edi	#,
	call	do_float_handler	#
	testl	%eax, %eax	# D.14869
	je	.L119	#,
	.loc 1 1059 0
	movq	-120(%rbp), %rax	# args.value, tmp365
	movq	%rax, -176(%rbp)	# tmp365, real
	movq	-112(%rbp), %rax	# args.value, tmp366
	movq	%rax, -168(%rbp)	# tmp366, real
	movq	-104(%rbp), %rax	# args.value, tmp367
	movq	%rax, -160(%rbp)	# tmp367, real
	.loc 1 1066 0
	movl	-124(%rbp), %eax	# args.conversion_errno, tmp368
	movl	%eax, -252(%rbp)	# tmp368, conversion_errno
	.loc 1 1067 0
	movq	-96(%rbp), %rax	# args.type, tmp369
	movq	%rax, -192(%rbp)	# tmp369, type
	.loc 1 1072 0
	cmpl	$34, -252(%rbp)	#, conversion_errno
	jne	.L121	#,
	jmp	.L194	#
.L119:
	.loc 1 1063 0
	movl	$.LC34, %edi	#,
	movl	$0, %eax	#,
	call	error	#
	nop
	jmp	.L72	#
.L194:
	.loc 1 1072 0 discriminator 1
	movl	flag_traditional(%rip), %eax	# flag_traditional, flag_traditional.104
	testl	%eax, %eax	# flag_traditional.104
	jne	.L121	#,
	movl	pedantic(%rip), %eax	# pedantic, pedantic.105
	testl	%eax, %eax	# pedantic.105
	je	.L121	#,
	.loc 1 1073 0
	movq	-176(%rbp), %rax	# real, tmp370
	movq	%rax, 24(%rsp)	# tmp370,
	movq	-168(%rbp), %rax	# real, tmp371
	movq	%rax, 32(%rsp)	# tmp371,
	movq	-160(%rbp), %rax	# real, tmp372
	movq	%rax, 40(%rsp)	# tmp372,
	movq	dconst1(%rip), %rax	# dconst1, tmp374
	movq	%rax, (%rsp)	# tmp374,
	movq	dconst1+8(%rip), %rax	# dconst1, tmp375
	movq	%rax, 8(%rsp)	# tmp375,
	movq	dconst1+16(%rip), %rax	# dconst1, tmp376
	movq	%rax, 16(%rsp)	# tmp376,
	call	ereal_cmp	#
	cmpl	$-1, %eax	#, D.14869
	je	.L122	#,
	.loc 1 1074 0
	movq	dconstm1(%rip), %rax	# dconstm1, tmp378
	movq	%rax, 24(%rsp)	# tmp378,
	movq	dconstm1+8(%rip), %rax	# dconstm1, tmp379
	movq	%rax, 32(%rsp)	# tmp379,
	movq	dconstm1+16(%rip), %rax	# dconstm1, tmp380
	movq	%rax, 40(%rsp)	# tmp380,
	movq	-176(%rbp), %rax	# real, tmp381
	movq	%rax, (%rsp)	# tmp381,
	movq	-168(%rbp), %rax	# real, tmp382
	movq	%rax, 8(%rsp)	# tmp382,
	movq	-160(%rbp), %rax	# real, tmp383
	movq	%rax, 16(%rsp)	# tmp383,
	call	ereal_cmp	#
	cmpl	$-1, %eax	#, D.14869
	jne	.L121	#,
.L122:
	.loc 1 1075 0
	movl	$.LC35, %edi	#,
	movl	$0, %eax	#,
	call	warning	#
.L121:
	.loc 1 1079 0
	cmpl	$0, -296(%rbp)	#, imag
	je	.L123	#,
	.loc 1 1080 0
	movq	-192(%rbp), %rax	# type, tmp384
	movq	-176(%rbp), %rdx	# real, tmp385
	movq	%rdx, (%rsp)	# tmp385,
	movq	-168(%rbp), %rdx	# real, tmp386
	movq	%rdx, 8(%rsp)	# tmp386,
	movq	-160(%rbp), %rdx	# real, tmp387
	movq	%rdx, 16(%rsp)	# tmp387,
	movq	%rax, %rdi	# tmp384,
	call	build_real	#
	movq	%rax, %rbx	#, D.14878
	movq	global_trees+88(%rip), %rdx	# global_trees, D.14878
	movq	-192(%rbp), %rax	# type, tmp388
	movq	%rdx, %rsi	# D.14878,
	movq	%rax, %rdi	# tmp388,
	call	convert	#
	movq	%rbx, %rdx	# D.14878,
	movq	%rax, %rsi	# D.14878,
	movl	$0, %edi	#,
	call	build_complex	#
	movq	%rax, -248(%rbp)	# tmp389, value
	jmp	.L125	#
.L123:
	.loc 1 1083 0
	movq	-192(%rbp), %rax	# type, tmp390
	movq	-176(%rbp), %rdx	# real, tmp391
	movq	%rdx, (%rsp)	# tmp391,
	movq	-168(%rbp), %rdx	# real, tmp392
	movq	%rdx, 8(%rsp)	# tmp392,
	movq	-160(%rbp), %rdx	# real, tmp393
	movq	%rdx, 16(%rsp)	# tmp393,
	movq	%rax, %rdi	# tmp390,
	call	build_real	#
	movq	%rax, -248(%rbp)	# tmp394, value
.LBE7:
	jmp	.L125	#
.L92:
.LBB8:
	.loc 1 1089 0
	movl	$0, -284(%rbp)	#, spec_unsigned
	.loc 1 1090 0
	movl	$0, -280(%rbp)	#, spec_long
	.loc 1 1091 0
	movl	$0, -276(%rbp)	#, spec_long_long
	.loc 1 1092 0
	movl	$0, -272(%rbp)	#, spec_imag
	.loc 1 1093 0
	movl	$0, -268(%rbp)	#, suffix_lu
	.loc 1 1094 0
	movl	$0, -264(%rbp)	#, warn
	.loc 1 1096 0
	movq	$0, -184(%rbp)	#, type
	movq	-184(%rbp), %rax	# type, tmp395
	movq	%rax, -224(%rbp)	# tmp395, ansi_type
	movq	-224(%rbp), %rax	# ansi_type, tmp396
	movq	%rax, -232(%rbp)	# tmp396, trad_type
	.loc 1 1097 0
	jmp	.L126	#
.L142:
	.loc 1 1099 0
	movq	-240(%rbp), %rax	# p, p.106
	leaq	1(%rax), %rdx	#, tmp397
	movq	%rdx, -240(%rbp)	# tmp397, p
	movzbl	(%rax), %eax	# *p.106_240, D.14868
	movsbl	%al, %eax	# D.14868, tmp398
	movl	%eax, -304(%rbp)	# tmp398, c
	.loc 1 1100 0
	movl	-304(%rbp), %eax	# c, tmp400
	subl	$73, %eax	#, tmp399
	cmpl	$44, %eax	#, tmp399
	ja	.L127	#,
	movl	%eax, %eax	# tmp399, tmp401
	movq	.L129(,%rax,8), %rax	#, tmp402
	jmp	*%rax	# tmp402
	.section	.rodata
	.align 8
	.align 4
.L129:
	.quad	.L128
	.quad	.L128
	.quad	.L127
	.quad	.L130
	.quad	.L127
	.quad	.L127
	.quad	.L127
	.quad	.L127
	.quad	.L127
	.quad	.L127
	.quad	.L127
	.quad	.L127
	.quad	.L131
	.quad	.L127
	.quad	.L127
	.quad	.L127
	.quad	.L127
	.quad	.L127
	.quad	.L127
	.quad	.L127
	.quad	.L127
	.quad	.L127
	.quad	.L127
	.quad	.L127
	.quad	.L127
	.quad	.L127
	.quad	.L127
	.quad	.L127
	.quad	.L127
	.quad	.L127
	.quad	.L127
	.quad	.L127
	.quad	.L128
	.quad	.L128
	.quad	.L127
	.quad	.L130
	.quad	.L127
	.quad	.L127
	.quad	.L127
	.quad	.L127
	.quad	.L127
	.quad	.L127
	.quad	.L127
	.quad	.L127
	.quad	.L131
	.text
.L131:
	.loc 1 1103 0
	cmpl	$0, -284(%rbp)	#, spec_unsigned
	je	.L132	#,
	.loc 1 1104 0
	movl	$.LC36, %edi	#,
	movl	$0, %eax	#,
	call	error	#
	jmp	.L133	#
.L132:
	.loc 1 1105 0
	movl	warn_traditional(%rip), %eax	# warn_traditional, warn_traditional.107
	testl	%eax, %eax	# warn_traditional.107
	je	.L133	#,
	.loc 1 1105 0 is_stmt 0 discriminator 1
	movl	in_system_header(%rip), %eax	# in_system_header, in_system_header.108
	testl	%eax, %eax	# in_system_header.108
	jne	.L133	#,
	.loc 1 1106 0 is_stmt 1
	movq	parse_in(%rip), %rax	# parse_in, parse_in.109
	movq	%rax, %rdi	# parse_in.109,
	call	cpp_sys_macro_p	#
	testl	%eax, %eax	# D.14869
	jne	.L133	#,
	.loc 1 1107 0
	movl	$.LC37, %edi	#,
	movl	$0, %eax	#,
	call	warning	#
.L133:
	.loc 1 1109 0
	movl	$1, -284(%rbp)	#, spec_unsigned
	.loc 1 1110 0
	cmpl	$0, -280(%rbp)	#, spec_long
	je	.L134	#,
	.loc 1 1111 0
	movl	$1, -268(%rbp)	#, suffix_lu
	.loc 1 1112 0
	jmp	.L126	#
.L134:
	jmp	.L126	#
.L130:
	.loc 1 1115 0
	cmpl	$0, -280(%rbp)	#, spec_long
	je	.L135	#,
	.loc 1 1117 0
	cmpl	$0, -276(%rbp)	#, spec_long_long
	je	.L136	#,
	.loc 1 1118 0
	movl	$.LC38, %edi	#,
	movl	$0, %eax	#,
	call	error	#
	jmp	.L137	#
.L136:
	.loc 1 1119 0
	cmpl	$0, -268(%rbp)	#, suffix_lu
	je	.L138	#,
	.loc 1 1120 0
	movl	$.LC39, %edi	#,
	movl	$0, %eax	#,
	call	error	#
	jmp	.L137	#
.L138:
	.loc 1 1121 0
	movl	-304(%rbp), %eax	# c, tmp403
	cmpl	-280(%rbp), %eax	# spec_long, tmp403
	je	.L139	#,
	.loc 1 1122 0
	movl	$.LC40, %edi	#,
	movl	$0, %eax	#,
	call	error	#
	jmp	.L137	#
.L139:
	.loc 1 1123 0
	movl	pedantic(%rip), %eax	# pedantic, pedantic.110
	testl	%eax, %eax	# pedantic.110
	je	.L137	#,
	.loc 1 1123 0 is_stmt 0 discriminator 1
	movl	flag_isoc99(%rip), %eax	# flag_isoc99, flag_isoc99.111
	testl	%eax, %eax	# flag_isoc99.111
	jne	.L137	#,
	.loc 1 1124 0 is_stmt 1
	movl	in_system_header(%rip), %eax	# in_system_header, in_system_header.112
	testl	%eax, %eax	# in_system_header.112
	jne	.L137	#,
	.loc 1 1124 0 is_stmt 0 discriminator 1
	movl	warn_long_long(%rip), %eax	# warn_long_long, warn_long_long.113
	testl	%eax, %eax	# warn_long_long.113
	je	.L137	#,
	.loc 1 1125 0 is_stmt 1
	movl	$.LC41, %edi	#,
	movl	$0, %eax	#,
	call	pedwarn	#
.L137:
	.loc 1 1126 0
	movl	$1, -276(%rbp)	#, spec_long_long
.L135:
	.loc 1 1128 0
	movl	-304(%rbp), %eax	# c, tmp404
	movl	%eax, -280(%rbp)	# tmp404, spec_long
	.loc 1 1129 0
	jmp	.L126	#
.L128:
	.loc 1 1132 0
	cmpl	$0, -272(%rbp)	#, spec_imag
	je	.L140	#,
	.loc 1 1133 0
	movl	$.LC42, %edi	#,
	movl	$0, %eax	#,
	call	error	#
	jmp	.L141	#
.L140:
	.loc 1 1134 0
	movl	pedantic(%rip), %eax	# pedantic, pedantic.114
	testl	%eax, %eax	# pedantic.114
	je	.L141	#,
	.loc 1 1135 0
	movl	$.LC32, %edi	#,
	movl	$0, %eax	#,
	call	pedwarn	#
.L141:
	.loc 1 1136 0
	movl	$1, -272(%rbp)	#, spec_imag
	.loc 1 1137 0
	jmp	.L126	#
.L127:
	.loc 1 1140 0
	movl	$.LC43, %edi	#,
	movl	$0, %eax	#,
	call	error	#
	jmp	.L72	#
.L126:
	.loc 1 1097 0 discriminator 1
	movl	-348(%rbp), %edx	# len, D.14875
	movq	-344(%rbp), %rax	# str, tmp405
	addq	%rdx, %rax	# D.14875, D.14871
	cmpq	-240(%rbp), %rax	# p, D.14871
	ja	.L142	#,
	.loc 1 1145 0
	cmpl	$0, -308(%rbp)	#, overflow
	je	.L143	#,
	.loc 1 1147 0
	movl	$1, -264(%rbp)	#, warn
	.loc 1 1148 0
	movl	$128, %esi	#,
	movl	$.LC44, %edi	#,
	movl	$0, %eax	#,
	call	pedwarn	#
.L143:
	.loc 1 1154 0
	movq	$0, -208(%rbp)	#, low
	movq	-208(%rbp), %rax	# low, tmp406
	movq	%rax, -216(%rbp)	# tmp406, high
	.loc 1 1156 0
	movl	$0, -260(%rbp)	#, i
	jmp	.L144	#
.L145:
	.loc 1 1158 0 discriminator 2
	movl	-260(%rbp), %eax	# i, tmp407
	addl	$8, %eax	#, D.14869
	cltq
	movl	-80(%rbp,%rax,4), %eax	# parts, D.14874
	movl	%eax, %edx	# D.14874, D.14876
	.loc 1 1160 0 discriminator 2
	movl	-260(%rbp), %eax	# i, tmp409
	sall	$3, %eax	#, D.14869
	movl	%eax, %ecx	# D.14869, tmp510
	salq	%cl, %rdx	# tmp510, D.14876
	movq	%rdx, %rax	# D.14876, D.14876
	.loc 1 1158 0 discriminator 2
	orq	%rax, -216(%rbp)	# D.14876, high
	.loc 1 1161 0 discriminator 2
	movl	-260(%rbp), %eax	# i, tmp411
	cltq
	movl	-80(%rbp,%rax,4), %eax	# parts, D.14874
	movl	%eax, %edx	# D.14874, D.14876
	movl	-260(%rbp), %eax	# i, tmp412
	sall	$3, %eax	#, D.14869
	movl	%eax, %ecx	# D.14869, tmp512
	salq	%cl, %rdx	# tmp512, D.14876
	movq	%rdx, %rax	# D.14876, D.14876
	orq	%rax, -208(%rbp)	# D.14876, low
	.loc 1 1156 0 discriminator 2
	addl	$1, -260(%rbp)	#, i
.L144:
	.loc 1 1156 0 is_stmt 0 discriminator 1
	cmpl	$7, -260(%rbp)	#, i
	jle	.L145	#,
	.loc 1 1164 0 is_stmt 1
	movq	-208(%rbp), %rax	# low, low.115
	movq	-216(%rbp), %rdx	# high, tmp413
	movq	%rdx, %rsi	# tmp413,
	movq	%rax, %rdi	# low.115,
	call	build_int_2_wide	#
	movq	%rax, -248(%rbp)	# tmp414, value
	.loc 1 1165 0
	movq	integer_types+80(%rip), %rdx	# integer_types, D.14878
	movq	-248(%rbp), %rax	# value, tmp415
	movq	%rdx, 8(%rax)	# D.14878, value_275->common.type
	.loc 1 1170 0
	movl	warn_traditional(%rip), %eax	# warn_traditional, warn_traditional.116
	testl	%eax, %eax	# warn_traditional.116
	jne	.L146	#,
	.loc 1 1170 0 is_stmt 0 discriminator 1
	movl	flag_traditional(%rip), %eax	# flag_traditional, flag_traditional.117
	testl	%eax, %eax	# flag_traditional.117
	je	.L147	#,
.L146:
	.loc 1 1177 0 is_stmt 1
	cmpl	$0, -280(%rbp)	#, spec_long
	jne	.L148	#,
	.loc 1 1177 0 is_stmt 0 discriminator 1
	cmpl	$10, -324(%rbp)	#, base
	je	.L148	#,
	.loc 1 1178 0 is_stmt 1
	movq	integer_types+48(%rip), %rdx	# integer_types, D.14878
	movq	-248(%rbp), %rax	# value, tmp416
	movq	%rdx, %rsi	# D.14878,
	movq	%rax, %rdi	# tmp416,
	call	int_fits_type_p	#
	testl	%eax, %eax	# D.14869
	je	.L148	#,
	.loc 1 1179 0
	cmpl	$0, -284(%rbp)	#, spec_unsigned
	je	.L149	#,
	.loc 1 1179 0 is_stmt 0 discriminator 1
	movq	integer_types+48(%rip), %rax	# integer_types, iftmp.118
	jmp	.L150	#
.L149:
	.loc 1 1179 0 discriminator 2
	movq	integer_types+40(%rip), %rax	# integer_types, iftmp.118
.L150:
	.loc 1 1179 0 discriminator 3
	movq	%rax, -232(%rbp)	# iftmp.118, trad_type
	jmp	.L147	#
.L148:
	.loc 1 1183 0 is_stmt 1
	cmpl	$0, -280(%rbp)	#, spec_long
	jne	.L151	#,
	.loc 1 1183 0 is_stmt 0 discriminator 1
	cmpl	$10, -324(%rbp)	#, base
	jne	.L151	#,
	.loc 1 1184 0 is_stmt 1
	movq	integer_types+40(%rip), %rdx	# integer_types, D.14878
	movq	-248(%rbp), %rax	# value, tmp417
	movq	%rdx, %rsi	# D.14878,
	movq	%rax, %rdi	# tmp417,
	call	int_fits_type_p	#
	testl	%eax, %eax	# D.14869
	je	.L151	#,
	.loc 1 1185 0
	cmpl	$0, -284(%rbp)	#, spec_unsigned
	je	.L152	#,
	.loc 1 1185 0 is_stmt 0 discriminator 1
	movq	integer_types+48(%rip), %rax	# integer_types, iftmp.119
	jmp	.L153	#
.L152:
	.loc 1 1185 0 discriminator 2
	movq	integer_types+40(%rip), %rax	# integer_types, iftmp.119
.L153:
	.loc 1 1185 0 discriminator 3
	movq	%rax, -232(%rbp)	# iftmp.119, trad_type
	jmp	.L147	#
.L151:
	.loc 1 1186 0 is_stmt 1
	cmpl	$0, -276(%rbp)	#, spec_long_long
	jne	.L154	#,
	.loc 1 1189 0
	cmpl	$0, -284(%rbp)	#, spec_unsigned
	je	.L155	#,
	.loc 1 1189 0 is_stmt 0 discriminator 1
	movq	integer_types+64(%rip), %rax	# integer_types, iftmp.120
	jmp	.L156	#
.L155:
	.loc 1 1189 0 discriminator 2
	movq	integer_types+56(%rip), %rax	# integer_types, iftmp.120
.L156:
	.loc 1 1187 0 is_stmt 1 discriminator 1
	movq	%rax, -232(%rbp)	# iftmp.120, trad_type
	jmp	.L147	#
.L154:
	.loc 1 1190 0
	cmpl	$0, -284(%rbp)	#, spec_unsigned
	je	.L157	#,
	.loc 1 1190 0 is_stmt 0 discriminator 1
	movq	integer_types+80(%rip), %rax	# integer_types, iftmp.121
	jmp	.L158	#
.L157:
	.loc 1 1190 0 discriminator 2
	movq	integer_types+72(%rip), %rax	# integer_types, iftmp.121
.L158:
	.loc 1 1190 0 discriminator 3
	movq	-248(%rbp), %rdx	# value, tmp418
	movq	%rax, %rsi	# iftmp.121,
	movq	%rdx, %rdi	# tmp418,
	call	int_fits_type_p	#
	testl	%eax, %eax	# D.14869
	je	.L159	#,
	.loc 1 1196 0 is_stmt 1
	cmpl	$0, -284(%rbp)	#, spec_unsigned
	je	.L160	#,
	.loc 1 1196 0 is_stmt 0 discriminator 1
	movq	integer_types+80(%rip), %rax	# integer_types, iftmp.122
	jmp	.L161	#
.L160:
	.loc 1 1196 0 discriminator 2
	movq	integer_types+72(%rip), %rax	# integer_types, iftmp.122
.L161:
	.loc 1 1194 0 is_stmt 1 discriminator 2
	movq	%rax, -232(%rbp)	# iftmp.122, trad_type
	jmp	.L147	#
.L159:
	.loc 1 1200 0
	cmpl	$0, -284(%rbp)	#, spec_unsigned
	je	.L162	#,
	.loc 1 1200 0 is_stmt 0 discriminator 1
	movq	c_global_trees+80(%rip), %rax	# c_global_trees, iftmp.123
	jmp	.L163	#
.L162:
	.loc 1 1200 0 discriminator 2
	movq	c_global_trees+72(%rip), %rax	# c_global_trees, iftmp.123
.L163:
	.loc 1 1198 0 is_stmt 1
	movq	%rax, -232(%rbp)	# iftmp.123, trad_type
.L147:
	.loc 1 1202 0
	movl	warn_traditional(%rip), %eax	# warn_traditional, warn_traditional.124
	testl	%eax, %eax	# warn_traditional.124
	jne	.L164	#,
	.loc 1 1202 0 is_stmt 0 discriminator 1
	movl	flag_traditional(%rip), %eax	# flag_traditional, flag_traditional.125
	testl	%eax, %eax	# flag_traditional.125
	jne	.L165	#,
.L164:
	.loc 1 1205 0 is_stmt 1
	cmpl	$0, -280(%rbp)	#, spec_long
	jne	.L166	#,
	.loc 1 1205 0 is_stmt 0 discriminator 1
	cmpl	$0, -284(%rbp)	#, spec_unsigned
	jne	.L166	#,
	.loc 1 1206 0 is_stmt 1
	movq	integer_types+40(%rip), %rdx	# integer_types, D.14878
	movq	-248(%rbp), %rax	# value, tmp419
	movq	%rdx, %rsi	# D.14878,
	movq	%rax, %rdi	# tmp419,
	call	int_fits_type_p	#
	testl	%eax, %eax	# D.14869
	je	.L166	#,
	.loc 1 1207 0
	movq	integer_types+40(%rip), %rax	# integer_types, tmp420
	movq	%rax, -224(%rbp)	# tmp420, ansi_type
	jmp	.L165	#
.L166:
	.loc 1 1208 0
	cmpl	$0, -280(%rbp)	#, spec_long
	jne	.L167	#,
	.loc 1 1208 0 is_stmt 0 discriminator 1
	cmpl	$10, -324(%rbp)	#, base
	jne	.L168	#,
	cmpl	$0, -284(%rbp)	#, spec_unsigned
	je	.L167	#,
.L168:
	.loc 1 1209 0 is_stmt 1
	movq	integer_types+48(%rip), %rdx	# integer_types, D.14878
	movq	-248(%rbp), %rax	# value, tmp421
	movq	%rdx, %rsi	# D.14878,
	movq	%rax, %rdi	# tmp421,
	call	int_fits_type_p	#
	testl	%eax, %eax	# D.14869
	je	.L167	#,
	.loc 1 1210 0
	movq	integer_types+48(%rip), %rax	# integer_types, tmp422
	movq	%rax, -224(%rbp)	# tmp422, ansi_type
	jmp	.L165	#
.L167:
	.loc 1 1211 0
	cmpl	$0, -284(%rbp)	#, spec_unsigned
	jne	.L169	#,
	.loc 1 1211 0 is_stmt 0 discriminator 1
	cmpl	$0, -276(%rbp)	#, spec_long_long
	jne	.L169	#,
	.loc 1 1212 0 is_stmt 1
	movq	integer_types+56(%rip), %rdx	# integer_types, D.14878
	movq	-248(%rbp), %rax	# value, tmp423
	movq	%rdx, %rsi	# D.14878,
	movq	%rax, %rdi	# tmp423,
	call	int_fits_type_p	#
	testl	%eax, %eax	# D.14869
	je	.L169	#,
	.loc 1 1213 0
	movq	integer_types+56(%rip), %rax	# integer_types, tmp424
	movq	%rax, -224(%rbp)	# tmp424, ansi_type
	jmp	.L165	#
.L169:
	.loc 1 1214 0
	cmpl	$0, -276(%rbp)	#, spec_long_long
	jne	.L170	#,
	.loc 1 1215 0
	movq	integer_types+64(%rip), %rdx	# integer_types, D.14878
	movq	-248(%rbp), %rax	# value, tmp425
	movq	%rdx, %rsi	# D.14878,
	movq	%rax, %rdi	# tmp425,
	call	int_fits_type_p	#
	testl	%eax, %eax	# D.14869
	je	.L170	#,
	.loc 1 1216 0
	movq	integer_types+64(%rip), %rax	# integer_types, tmp426
	movq	%rax, -224(%rbp)	# tmp426, ansi_type
	jmp	.L165	#
.L170:
	.loc 1 1217 0
	cmpl	$0, -284(%rbp)	#, spec_unsigned
	jne	.L171	#,
	.loc 1 1218 0
	movq	integer_types+72(%rip), %rdx	# integer_types, D.14878
	movq	-248(%rbp), %rax	# value, tmp427
	movq	%rdx, %rsi	# D.14878,
	movq	%rax, %rdi	# tmp427,
	call	int_fits_type_p	#
	testl	%eax, %eax	# D.14869
	je	.L171	#,
	.loc 1 1219 0
	movq	integer_types+72(%rip), %rax	# integer_types, tmp428
	movq	%rax, -224(%rbp)	# tmp428, ansi_type
	jmp	.L165	#
.L171:
	.loc 1 1220 0
	movq	integer_types+80(%rip), %rdx	# integer_types, D.14878
	movq	-248(%rbp), %rax	# value, tmp429
	movq	%rdx, %rsi	# D.14878,
	movq	%rax, %rdi	# tmp429,
	call	int_fits_type_p	#
	testl	%eax, %eax	# D.14869
	je	.L172	#,
	.loc 1 1221 0
	movq	integer_types+80(%rip), %rax	# integer_types, tmp430
	movq	%rax, -224(%rbp)	# tmp430, ansi_type
	jmp	.L165	#
.L172:
	.loc 1 1222 0
	cmpl	$0, -284(%rbp)	#, spec_unsigned
	jne	.L173	#,
	.loc 1 1223 0
	movq	c_global_trees+72(%rip), %rdx	# c_global_trees, D.14878
	movq	-248(%rbp), %rax	# value, tmp431
	movq	%rdx, %rsi	# D.14878,
	movq	%rax, %rdi	# tmp431,
	call	int_fits_type_p	#
	testl	%eax, %eax	# D.14869
	je	.L173	#,
	.loc 1 1224 0
	movq	c_global_trees+72(%rip), %rax	# c_global_trees, tmp432
	movq	%rax, -224(%rbp)	# tmp432, ansi_type
	jmp	.L165	#
.L173:
	.loc 1 1226 0
	movq	c_global_trees+80(%rip), %rax	# c_global_trees, tmp433
	movq	%rax, -224(%rbp)	# tmp433, ansi_type
.L165:
	.loc 1 1229 0
	movl	flag_traditional(%rip), %eax	# flag_traditional, flag_traditional.127
	testl	%eax, %eax	# flag_traditional.127
	je	.L174	#,
	.loc 1 1229 0 is_stmt 0 discriminator 1
	movq	-232(%rbp), %rax	# trad_type, iftmp.126
	jmp	.L175	#
.L174:
	.loc 1 1229 0 discriminator 2
	movq	-224(%rbp), %rax	# ansi_type, iftmp.126
.L175:
	.loc 1 1229 0 discriminator 3
	movq	%rax, -184(%rbp)	# iftmp.126, type
	.loc 1 1234 0 is_stmt 1 discriminator 3
	movl	warn_traditional(%rip), %eax	# warn_traditional, warn_traditional.128
	testl	%eax, %eax	# warn_traditional.128
	je	.L176	#,
	.loc 1 1234 0 is_stmt 0 discriminator 1
	movl	in_system_header(%rip), %eax	# in_system_header, in_system_header.129
	testl	%eax, %eax	# in_system_header.129
	jne	.L176	#,
	.loc 1 1235 0 is_stmt 1
	cmpl	$10, -324(%rbp)	#, base
	jne	.L176	#,
	.loc 1 1235 0 is_stmt 0 discriminator 1
	movq	-232(%rbp), %rax	# trad_type, tmp434
	cmpq	-224(%rbp), %rax	# ansi_type, tmp434
	je	.L176	#,
	.loc 1 1237 0 is_stmt 1
	movq	-232(%rbp), %rax	# trad_type, tmp435
	movzwl	60(%rax), %eax	# *trad_type_38, tmp438
	andw	$511, %ax	#, D.14879
	movl	%eax, %edx	# D.14879, D.14879
	movq	-224(%rbp), %rax	# ansi_type, tmp439
	movzwl	60(%rax), %eax	# *ansi_type_39, tmp442
	andw	$511, %ax	#, D.14879
	cmpw	%ax, %dx	# D.14879, D.14879
	je	.L177	#,
	.loc 1 1238 0
	movl	$.LC45, %edi	#,
	movl	$0, %eax	#,
	call	warning	#
	jmp	.L176	#
.L177:
	.loc 1 1239 0
	movq	-232(%rbp), %rax	# trad_type, tmp443
	movzbl	17(%rax), %eax	# *trad_type_38, tmp446
	shrb	$5, %al	#, D.14880
	movl	%eax, %edx	# D.14880, D.14880
	andl	$1, %edx	#, D.14880
	movq	-224(%rbp), %rax	# ansi_type, tmp447
	movzbl	17(%rax), %eax	# *ansi_type_39, tmp450
	shrb	$5, %al	#, D.14880
	andl	$1, %eax	#, D.14880
	cmpb	%al, %dl	# D.14880, D.14880
	je	.L178	#,
	.loc 1 1240 0
	movl	$.LC46, %edi	#,
	movl	$0, %eax	#,
	call	warning	#
	jmp	.L176	#
.L178:
	.loc 1 1242 0
	movl	$.LC47, %edi	#,
	movl	$0, %eax	#,
	call	warning	#
.L176:
	.loc 1 1245 0
	movl	pedantic(%rip), %eax	# pedantic, pedantic.130
	testl	%eax, %eax	# pedantic.130
	je	.L179	#,
	.loc 1 1245 0 is_stmt 0 discriminator 1
	movl	flag_traditional(%rip), %eax	# flag_traditional, flag_traditional.131
	testl	%eax, %eax	# flag_traditional.131
	jne	.L179	#,
	movl	flag_isoc99(%rip), %eax	# flag_isoc99, flag_isoc99.132
	testl	%eax, %eax	# flag_isoc99.132
	jne	.L180	#,
	cmpl	$0, -276(%rbp)	#, spec_long_long
	jne	.L179	#,
.L180:
	.loc 1 1246 0 is_stmt 1
	cmpl	$0, -264(%rbp)	#, warn
	jne	.L179	#,
	.loc 1 1248 0
	movl	flag_isoc99(%rip), %eax	# flag_isoc99, flag_isoc99.134
	.loc 1 1249 0
	testl	%eax, %eax	# flag_isoc99.134
	je	.L181	#,
	.loc 1 1248 0
	movq	integer_types+72(%rip), %rax	# integer_types, D.14878
	movzwl	60(%rax), %eax	# *_339, tmp453
	andw	$511, %ax	#, D.14879
	.loc 1 1249 0
	movzwl	%ax, %eax	# D.14879, iftmp.133
	jmp	.L182	#
.L181:
	.loc 1 1249 0 is_stmt 0 discriminator 1
	movq	integer_types+56(%rip), %rax	# integer_types, D.14878
	movzwl	60(%rax), %eax	# *_342, tmp456
	andw	$511, %ax	#, D.14879
	movzwl	%ax, %eax	# D.14879, iftmp.133
.L182:
	.loc 1 1249 0 discriminator 2
	movq	-184(%rbp), %rdx	# type, tmp457
	movzwl	60(%rdx), %edx	# *type_328, tmp460
	andw	$511, %dx	#, D.14879
	movzwl	%dx, %edx	# D.14879, D.14869
	.loc 1 1247 0 is_stmt 1 discriminator 2
	cmpl	%edx, %eax	# D.14869, iftmp.133
	jge	.L179	#,
	.loc 1 1251 0
	movl	$1, -264(%rbp)	#, warn
	.loc 1 1254 0
	movl	flag_isoc99(%rip), %eax	# flag_isoc99, flag_isoc99.136
	.loc 1 1252 0
	testl	%eax, %eax	# flag_isoc99.136
	je	.L183	#,
	.loc 1 1255 0
	movq	-184(%rbp), %rax	# type, tmp461
	movzbl	17(%rax), %eax	# *type_328, D.14873
	andl	$32, %eax	#, D.14873
	.loc 1 1256 0
	testb	%al, %al	# D.14873
	je	.L184	#,
	.loc 1 1256 0 is_stmt 0 discriminator 1
	movl	$.LC48, %eax	#, iftmp.137
	jmp	.L186	#
.L184:
	.loc 1 1256 0 discriminator 2
	movl	$.LC49, %eax	#, iftmp.137
	jmp	.L186	#
.L183:
	.loc 1 1252 0 is_stmt 1 discriminator 1
	movl	$.LC50, %eax	#, iftmp.135
.L186:
	.loc 1 1252 0 is_stmt 0 discriminator 2
	movq	%rax, %rsi	# iftmp.135,
	movl	$.LC51, %edi	#,
	movl	$0, %eax	#,
	call	pedwarn	#
.L179:
	.loc 1 1260 0 is_stmt 1
	cmpl	$10, -324(%rbp)	#, base
	jne	.L187	#,
	.loc 1 1260 0 is_stmt 0 discriminator 1
	cmpl	$0, -284(%rbp)	#, spec_unsigned
	jne	.L187	#,
	movq	-184(%rbp), %rax	# type, tmp462
	movzbl	17(%rax), %eax	# *type_328, D.14873
	andl	$32, %eax	#, D.14873
	testb	%al, %al	# D.14873
	je	.L187	#,
	.loc 1 1261 0 is_stmt 1
	movl	$.LC52, %edi	#,
	movl	$0, %eax	#,
	call	warning	#
.L187:
	.loc 1 1263 0
	cmpl	$0, -272(%rbp)	#, spec_imag
	je	.L188	#,
	.loc 1 1265 0
	movq	-184(%rbp), %rax	# type, tmp463
	movzwl	60(%rax), %eax	# *type_328, tmp466
	andw	$511, %ax	#, D.14879
	.loc 1 1266 0
	movzwl	%ax, %edx	# D.14879, D.14869
	movq	integer_types+40(%rip), %rax	# integer_types, D.14878
	movzwl	60(%rax), %eax	# *_359, tmp469
	andw	$511, %ax	#, D.14879
	movzwl	%ax, %eax	# D.14879, D.14869
	.loc 1 1265 0
	cmpl	%eax, %edx	# D.14869, D.14869
	jg	.L189	#,
	.loc 1 1267 0
	movq	integer_types+40(%rip), %rax	# integer_types, D.14878
	movq	-248(%rbp), %rdx	# value, tmp470
	movq	%rdx, %rsi	# tmp470,
	movq	%rax, %rdi	# D.14878,
	call	convert	#
	movq	%rax, %rdx	#, D.14878
	movq	global_trees+88(%rip), %rax	# global_trees, D.14878
	movq	%rax, %rsi	# D.14878,
	movl	$0, %edi	#,
	call	build_complex	#
	movq	%rax, -248(%rbp)	# tmp471, value
	jmp	.L190	#
.L189:
	.loc 1 1270 0
	movl	$.LC53, %edi	#,
	movl	$0, %eax	#,
	call	error	#
	jmp	.L72	#
.L188:
	.loc 1 1272 0
	movl	flag_traditional(%rip), %eax	# flag_traditional, flag_traditional.138
	testl	%eax, %eax	# flag_traditional.138
	je	.L191	#,
	.loc 1 1272 0 is_stmt 0 discriminator 1
	movq	-184(%rbp), %rdx	# type, tmp472
	movq	-248(%rbp), %rax	# value, tmp473
	movq	%rdx, %rsi	# tmp472,
	movq	%rax, %rdi	# tmp473,
	call	int_fits_type_p	#
	testl	%eax, %eax	# D.14869
	jne	.L191	#,
	.loc 1 1277 0 is_stmt 1
	movq	-184(%rbp), %rax	# type, tmp474
	movq	%rax, %rdi	# tmp474,
	call	unsigned_type	#
	movq	-248(%rbp), %rdx	# value, tmp475
	movq	%rax, 8(%rdx)	# D.14878, value_275->common.type
	.loc 1 1278 0
	movq	-248(%rbp), %rdx	# value, tmp476
	movq	-184(%rbp), %rax	# type, tmp477
	movq	%rdx, %rsi	# tmp476,
	movq	%rax, %rdi	# tmp477,
	call	convert	#
	movq	%rax, -248(%rbp)	# tmp478, value
	.loc 1 1279 0
	movq	-248(%rbp), %rax	# value, tmp479
	movzbl	18(%rax), %edx	#, tmp482
	andl	$-5, %edx	#, tmp483
	movb	%dl, 18(%rax)	# tmp483,
	movq	-248(%rbp), %rax	# value, tmp484
	movzbl	18(%rax), %eax	# *value_369, tmp487
	shrb	$2, %al	#, D.14880
	andl	$1, %eax	#, D.14880
	movq	-248(%rbp), %rdx	# value, tmp488
	andl	$1, %eax	#, tmp490
	leal	0(,%rax,8), %ecx	#, tmp491
	movzbl	18(%rdx), %eax	#, tmp492
	andl	$-9, %eax	#, tmp493
	orl	%ecx, %eax	# tmp491, tmp494
	movb	%al, 18(%rdx)	# tmp494,
	jmp	.L190	#
.L191:
	.loc 1 1282 0
	movq	-248(%rbp), %rax	# value, tmp495
	movq	-184(%rbp), %rdx	# type, tmp496
	movq	%rdx, 8(%rax)	# tmp496, value_275->common.type
.L190:
	.loc 1 1287 0
	cmpl	$0, -264(%rbp)	#, warn
	jne	.L125	#,
	.loc 1 1288 0
	movq	-248(%rbp), %rax	# value, tmp497
	movq	8(%rax), %rax	# value_21->common.type, D.14878
	movzbl	16(%rax), %eax	# _371->common.code, D.14873
	cmpb	$6, %al	#, D.14873
	jne	.L125	#,
	.loc 1 1289 0
	movq	-248(%rbp), %rax	# value, tmp498
	movq	8(%rax), %rdx	# value_21->common.type, D.14878
	movq	-248(%rbp), %rax	# value, tmp499
	movq	%rdx, %rsi	# D.14878,
	movq	%rax, %rdi	# tmp499,
	call	int_fits_type_p	#
	testl	%eax, %eax	# D.14869
	jne	.L125	#,
	.loc 1 1290 0
	movl	$.LC54, %edi	#,
	movl	$0, %eax	#,
	call	pedwarn	#
.L125:
.LBE8:
	.loc 1 1293 0
	movl	-348(%rbp), %edx	# len, D.14875
	movq	-344(%rbp), %rax	# str, tmp500
	addq	%rdx, %rax	# D.14875, D.14871
	cmpq	-240(%rbp), %rax	# p, D.14871
	jbe	.L192	#,
	.loc 1 1294 0
	movq	-240(%rbp), %rdx	# p, p.139
	movq	-344(%rbp), %rax	# str, str.140
	subq	%rax, %rdx	# str.140, D.14876
	movq	%rdx, %rax	# D.14876, D.14876
	movq	-344(%rbp), %rdx	# str, tmp501
	movl	%eax, %esi	# D.14869,
	movl	$.LC55, %edi	#,
	movl	$0, %eax	#,
	call	error	#
.L192:
	.loc 1 1296 0
	movq	-248(%rbp), %rax	# value, D.14867
	jmp	.L193	#
.L72:
	.loc 1 1299 0
	movq	global_trees+88(%rip), %rax	# global_trees, D.14867
.L193:
	.loc 1 1300 0
	movq	-8(%rbp), %rbx	#,
	leave
	.cfi_def_cfa 7, 8
	ret
	.cfi_endproc
.LFE16:
	.size	lex_number, .-lex_number
	.type	lex_string, @function
lex_string:
.LFB17:
	.loc 1 1307 0
	.cfi_startproc
	pushq	%rbp	#
	.cfi_def_cfa_offset 16
	.cfi_offset 6, -16
	movq	%rsp, %rbp	#,
	.cfi_def_cfa_register 6
	pushq	%rbx	#
	subq	$104, %rsp	#,
	.cfi_offset 3, -24
	movq	%rdi, -104(%rbp)	# str, str
	movl	%esi, -108(%rbp)	# len, len
	movl	%edx, -112(%rbp)	# wide, wide
	.loc 1 1309 0
	movl	-108(%rbp), %eax	# len, tmp127
	leal	1(%rax), %ecx	#, D.14919
	cmpl	$0, -112(%rbp)	#, wide
	je	.L196	#,
	.loc 1 1309 0 is_stmt 0 discriminator 1
	movq	c_global_trees(%rip), %rax	# c_global_trees, D.14920
	movzwl	60(%rax), %eax	# *_12, tmp130
	andw	$511, %ax	#, D.14921
	movzwl	%ax, %eax	# D.14921, D.14922
	leal	7(%rax), %edx	#, tmp132
	testl	%eax, %eax	# tmp131
	cmovs	%edx, %eax	# tmp132,, tmp131
	sarl	$3, %eax	#, tmp133
	jmp	.L197	#
.L196:
	.loc 1 1309 0 discriminator 2
	movl	$1, %eax	#, iftmp.141
.L197:
	.loc 1 1309 0 discriminator 3
	imull	%ecx, %eax	# D.14919, D.14919
	movl	%eax, %eax	# D.14919, D.14923
	leaq	15(%rax), %rdx	#, tmp134
	movl	$16, %eax	#, tmp205
	subq	$1, %rax	#, tmp135
	addq	%rdx, %rax	# tmp134, tmp136
	movl	$16, %ebx	#, tmp206
	movl	$0, %edx	#, tmp139
	divq	%rbx	# tmp206
	imulq	$16, %rax, %rax	#, tmp138, tmp140
	subq	%rax, %rsp	# tmp140,
	movq	%rsp, %rax	#, tmp141
	addq	$15, %rax	#, tmp142
	shrq	$4, %rax	#, tmp143
	salq	$4, %rax	#, tmp144
	movq	%rax, -40(%rbp)	# tmp144, buf
	.loc 1 1310 0 is_stmt 1 discriminator 3
	movq	-40(%rbp), %rax	# buf, tmp145
	movq	%rax, -48(%rbp)	# tmp145, q
	.loc 1 1311 0 discriminator 3
	movq	-104(%rbp), %rax	# str, tmp146
	movq	%rax, -56(%rbp)	# tmp146, p
	movl	-108(%rbp), %edx	# len, D.14924
	movq	-104(%rbp), %rax	# str, tmp150
	addq	%rdx, %rax	# D.14924, tmp149
	movq	%rax, -32(%rbp)	# tmp149, limit
	.loc 1 1313 0 discriminator 3
	cmpl	$0, -112(%rbp)	#, wide
	je	.L198	#,
	.loc 1 1313 0 is_stmt 0 discriminator 1
	movq	c_global_trees(%rip), %rax	# c_global_trees, D.14920
	movzwl	60(%rax), %eax	# *_25, tmp153
	andw	$511, %ax	#, D.14921
	movzwl	%ax, %eax	# D.14921, iftmp.142
	jmp	.L199	#
.L198:
	.loc 1 1314 0 is_stmt 1 discriminator 2
	movq	integer_types(%rip), %rax	# integer_types, D.14920
	movzwl	60(%rax), %eax	# *_28, tmp156
	andw	$511, %ax	#, D.14921
	.loc 1 1313 0 discriminator 2
	movzwl	%ax, %eax	# D.14921, iftmp.142
.L199:
	.loc 1 1313 0 is_stmt 0 discriminator 3
	movl	%eax, -68(%rbp)	# iftmp.142, width
	.loc 1 1321 0 is_stmt 1 discriminator 3
	jmp	.L200	#
.L209:
	.loc 1 1340 0
	movq	-56(%rbp), %rax	# p, p.143
	leaq	1(%rax), %rdx	#, p.145
	movq	%rdx, -56(%rbp)	# p.145, p
	movzbl	(%rax), %eax	# *p.144_34, D.14925
	movzbl	%al, %eax	# D.14925, tmp157
	movl	%eax, -84(%rbp)	# tmp157, c
	.loc 1 1343 0
	cmpl	$92, -84(%rbp)	#, c
	jne	.L201	#,
	.loc 1 1343 0 is_stmt 0 discriminator 1
	movl	ignore_escape_flag(%rip), %eax	# ignore_escape_flag, ignore_escape_flag.146
	testl	%eax, %eax	# ignore_escape_flag.146
	jne	.L201	#,
.LBB9:
	.loc 1 1347 0 is_stmt 1
	cmpl	$31, -68(%rbp)	#, width
	ja	.L202	#,
	.loc 1 1348 0
	movl	-68(%rbp), %eax	# width, width.147
	movl	$1, %edx	#, tmp158
	movl	%eax, %ecx	# width.147, tmp209
	sall	%cl, %edx	# tmp209, D.14919
	movl	%edx, %eax	# D.14919, D.14919
	subl	$1, %eax	#, tmp159
	movl	%eax, -80(%rbp)	# tmp159, mask
	jmp	.L203	#
.L202:
	.loc 1 1350 0
	movl	$-1, -80(%rbp)	#, mask
.L203:
	.loc 1 1351 0
	movl	flag_traditional(%rip), %edi	# flag_traditional, flag_traditional.148
	movl	-80(%rbp), %ecx	# mask, D.14923
	movq	parse_in(%rip), %rax	# parse_in, parse_in.149
	movq	-32(%rbp), %rdx	# limit, tmp160
	leaq	-56(%rbp), %rsi	#, tmp161
	movl	%edi, %r8d	# flag_traditional.148,
	movq	%rax, %rdi	# parse_in.149,
	call	cpp_parse_escape	#
	movl	%eax, -84(%rbp)	# tmp162, c
.L201:
.LBE9:
	.loc 1 1357 0
	cmpl	$0, -112(%rbp)	#, wide
	je	.L204	#,
.LBB10:
	.loc 1 1359 0
	movq	integer_types(%rip), %rax	# integer_types, D.14920
	movzwl	60(%rax), %eax	# *_47, tmp165
	andw	$511, %ax	#, D.14921
	movzwl	%ax, %eax	# D.14921, tmp166
	movl	%eax, -64(%rbp)	# tmp166, charwidth
	.loc 1 1360 0
	movl	-64(%rbp), %eax	# charwidth, charwidth.150
	movl	$1, %edx	#, tmp167
	movl	%eax, %ecx	# charwidth.150, tmp211
	sall	%cl, %edx	# tmp211, D.14922
	movl	%edx, %eax	# D.14922, D.14922
	subl	$1, %eax	#, D.14922
	movl	%eax, -60(%rbp)	# D.14922, bytemask
	.loc 1 1363 0
	movl	$0, -76(%rbp)	#, byte
	jmp	.L205	#
.L208:
.LBB11:
	.loc 1 1366 0
	cmpl	$3, -76(%rbp)	#, byte
	jle	.L206	#,
	.loc 1 1367 0
	movl	$0, -72(%rbp)	#, n
	jmp	.L215	#
.L206:
	.loc 1 1369 0
	movl	-76(%rbp), %eax	# byte, byte.151
	imull	-64(%rbp), %eax	# charwidth, D.14919
	movl	-84(%rbp), %edx	# c, tmp168
	movl	%eax, %ecx	# D.14922, tmp213
	shrl	%cl, %edx	# tmp213, D.14919
	movl	%edx, %eax	# D.14919, D.14919
	andl	-60(%rbp), %eax	# bytemask, D.14919
	movl	%eax, -72(%rbp)	# D.14919, n
.L215:
	.loc 1 1373 0
	movl	-76(%rbp), %eax	# byte, tmp169
	movslq	%eax, %rdx	# tmp169, D.14924
	movq	-48(%rbp), %rax	# q, tmp170
	addq	%rax, %rdx	# tmp170, D.14926
	movl	-72(%rbp), %eax	# n, tmp171
	movb	%al, (%rdx)	# D.14927, *_67
.LBE11:
	.loc 1 1363 0
	addl	$1, -76(%rbp)	#, byte
.L205:
	.loc 1 1363 0 is_stmt 0 discriminator 1
	movq	c_global_trees(%rip), %rax	# c_global_trees, D.14920
	movzwl	60(%rax), %eax	# *_55, tmp174
	andw	$511, %ax	#, D.14921
	movzwl	%ax, %eax	# D.14921, D.14922
	leal	7(%rax), %edx	#, tmp176
	testl	%eax, %eax	# tmp175
	cmovs	%edx, %eax	# tmp176,, tmp175
	sarl	$3, %eax	#, tmp177
	cmpl	-76(%rbp), %eax	# byte, D.14922
	jg	.L208	#,
	.loc 1 1375 0 is_stmt 1
	movq	c_global_trees(%rip), %rax	# c_global_trees, D.14920
	movzwl	60(%rax), %eax	# *_70, tmp180
	andw	$511, %ax	#, D.14921
	movzwl	%ax, %eax	# D.14921, D.14922
	leal	7(%rax), %edx	#, tmp182
	testl	%eax, %eax	# tmp181
	cmovs	%edx, %eax	# tmp182,, tmp181
	sarl	$3, %eax	#, tmp183
	cltq
	addq	%rax, -48(%rbp)	# D.14924, q
.LBE10:
	jmp	.L200	#
.L204:
	.loc 1 1379 0
	movq	-48(%rbp), %rax	# q, q.152
	leaq	1(%rax), %rdx	#, tmp184
	movq	%rdx, -48(%rbp)	# tmp184, q
	movl	-84(%rbp), %edx	# c, tmp185
	movb	%dl, (%rax)	# D.14927, *q.152_76
.L200:
	.loc 1 1321 0 discriminator 1
	movq	-56(%rbp), %rax	# p, p.153
	cmpq	-32(%rbp), %rax	# limit, p.153
	jb	.L209	#,
	.loc 1 1386 0
	cmpl	$0, -112(%rbp)	#, wide
	je	.L210	#,
	.loc 1 1388 0
	movq	c_global_trees(%rip), %rax	# c_global_trees, D.14920
	movzwl	60(%rax), %eax	# *_79, tmp188
	andw	$511, %ax	#, D.14921
	movzwl	%ax, %eax	# D.14921, D.14922
	leal	7(%rax), %edx	#, tmp190
	testl	%eax, %eax	# tmp189
	cmovs	%edx, %eax	# tmp190,, tmp189
	sarl	$3, %eax	#, tmp191
	movslq	%eax, %rdx	# D.14922, D.14923
	movq	-48(%rbp), %rax	# q, tmp192
	movl	$0, %esi	#,
	movq	%rax, %rdi	# tmp192,
	call	memset	#
	.loc 1 1389 0
	movq	c_global_trees(%rip), %rax	# c_global_trees, D.14920
	movzwl	60(%rax), %eax	# *_84, tmp195
	andw	$511, %ax	#, D.14921
	movzwl	%ax, %eax	# D.14921, D.14922
	leal	7(%rax), %edx	#, tmp197
	testl	%eax, %eax	# tmp196
	cmovs	%edx, %eax	# tmp197,, tmp196
	sarl	$3, %eax	#, tmp198
	cltq
	addq	%rax, -48(%rbp)	# D.14924, q
	jmp	.L211	#
.L210:
	.loc 1 1393 0
	movq	-48(%rbp), %rax	# q, q.154
	leaq	1(%rax), %rdx	#, tmp199
	movq	%rdx, -48(%rbp)	# tmp199, q
	movb	$0, (%rax)	#, *q.154_90
.L211:
	.loc 1 1396 0
	movq	-48(%rbp), %rdx	# q, q.155
	movq	-40(%rbp), %rax	# buf, buf.156
	subq	%rax, %rdx	# buf.156, D.14928
	movq	%rdx, %rax	# D.14928, D.14928
	movq	-40(%rbp), %rdx	# buf, tmp200
	movq	%rdx, %rsi	# tmp200,
	movl	%eax, %edi	# D.14922,
	call	build_string	#
	movq	%rax, -24(%rbp)	# tmp201, value
	.loc 1 1398 0
	cmpl	$0, -112(%rbp)	#, wide
	je	.L212	#,
	.loc 1 1399 0
	movq	c_global_trees+96(%rip), %rdx	# c_global_trees, D.14920
	movq	-24(%rbp), %rax	# value, tmp202
	movq	%rdx, 8(%rax)	# D.14920, value_96->common.type
	jmp	.L213	#
.L212:
	.loc 1 1401 0
	movq	c_global_trees+88(%rip), %rdx	# c_global_trees, D.14920
	movq	-24(%rbp), %rax	# value, tmp203
	movq	%rdx, 8(%rax)	# D.14920, value_96->common.type
.L213:
	.loc 1 1402 0
	movq	-24(%rbp), %rax	# value, D.14929
	.loc 1 1403 0
	movq	-8(%rbp), %rbx	#,
	leave
	.cfi_def_cfa 7, 8
	ret
	.cfi_endproc
.LFE17:
	.size	lex_string, .-lex_string
	.type	lex_charconst, @function
lex_charconst:
.LFB18:
	.loc 1 1409 0
	.cfi_startproc
	pushq	%rbp	#
	.cfi_def_cfa_offset 16
	.cfi_offset 6, -16
	movq	%rsp, %rbp	#,
	.cfi_def_cfa_register 6
	subq	$48, %rsp	#,
	movq	%rdi, -40(%rbp)	# token, token
	.loc 1 1414 0
	movl	flag_traditional(%rip), %ecx	# flag_traditional, flag_traditional.157
	movl	warn_multichar(%rip), %edx	# warn_multichar, warn_multichar.158
	movq	parse_in(%rip), %rax	# parse_in, parse_in.159
	leaq	-28(%rbp), %rdi	#, tmp71
	movq	-40(%rbp), %rsi	# token, tmp72
	movq	%rdi, %r8	# tmp71,
	movq	%rax, %rdi	# parse_in.159,
	call	cpp_interpret_charconst	#
	movq	%rax, -8(%rbp)	# tmp73, result
	.loc 1 1416 0
	movq	-40(%rbp), %rax	# token, tmp74
	movzbl	6(%rax), %eax	# token_7(D)->type, D.14930
	cmpb	$59, %al	#, D.14930
	jne	.L217	#,
	.loc 1 1418 0
	movq	-8(%rbp), %rax	# result, result.160
	movl	$0, %esi	#,
	movq	%rax, %rdi	# result.160,
	call	build_int_2_wide	#
	movq	%rax, -16(%rbp)	# tmp75, value
	.loc 1 1419 0
	movq	c_global_trees(%rip), %rax	# c_global_trees, tmp76
	movq	%rax, -24(%rbp)	# tmp76, type
	jmp	.L218	#
.L217:
	.loc 1 1423 0
	cmpq	$0, -8(%rbp)	#, result
	jns	.L219	#,
	.loc 1 1424 0
	movq	-8(%rbp), %rax	# result, result.161
	movq	$-1, %rsi	#,
	movq	%rax, %rdi	# result.161,
	call	build_int_2_wide	#
	movq	%rax, -16(%rbp)	# tmp77, value
	jmp	.L220	#
.L219:
	.loc 1 1426 0
	movq	-8(%rbp), %rax	# result, result.162
	movl	$0, %esi	#,
	movq	%rax, %rdi	# result.162,
	call	build_int_2_wide	#
	movq	%rax, -16(%rbp)	# tmp78, value
.L220:
	.loc 1 1430 0
	movl	c_language(%rip), %eax	# c_language, c_language.163
	cmpl	$1, %eax	#, c_language.163
	jne	.L221	#,
	.loc 1 1430 0 is_stmt 0 discriminator 1
	movl	-28(%rbp), %eax	# chars_seen, chars_seen.164
	cmpl	$1, %eax	#, chars_seen.164
	ja	.L221	#,
	.loc 1 1431 0 is_stmt 1
	movq	integer_types(%rip), %rax	# integer_types, tmp79
	movq	%rax, -24(%rbp)	# tmp79, type
	jmp	.L218	#
.L221:
	.loc 1 1433 0
	movq	integer_types+40(%rip), %rax	# integer_types, tmp80
	movq	%rax, -24(%rbp)	# tmp80, type
.L218:
	.loc 1 1446 0
	movq	c_global_trees+72(%rip), %rdx	# c_global_trees, D.14931
	movq	-16(%rbp), %rax	# value, tmp81
	movq	%rdx, 8(%rax)	# D.14931, value_3->common.type
	.loc 1 1447 0
	movq	-16(%rbp), %rdx	# value, tmp82
	movq	-24(%rbp), %rax	# type, tmp83
	movq	%rdx, %rsi	# tmp82,
	movq	%rax, %rdi	# tmp83,
	call	convert	#
	movq	%rax, -16(%rbp)	# tmp84, value
	.loc 1 1448 0
	movq	-16(%rbp), %rax	# value, tmp85
	movzbl	18(%rax), %edx	#, tmp88
	andl	$-9, %edx	#, tmp89
	movb	%dl, 18(%rax)	# tmp89,
	.loc 1 1450 0
	movq	-16(%rbp), %rax	# value, D.14932
	.loc 1 1451 0
	leave
	.cfi_def_cfa 7, 8
	ret
	.cfi_endproc
.LFE18:
	.size	lex_charconst, .-lex_charconst
	.section	.rodata
	.type	__FUNCTION__.13755, @object
	.size	__FUNCTION__.13755, 6
__FUNCTION__.13755:
	.string	"c_lex"
	.text
.Letext0:
	.file 2 "rtl.h"
	.file 3 "config.h"
	.file 4 "tree.h"
	.file 5 "/usr/lib/gcc/x86_64-linux-gnu/4.8/include/stddef.h"
	.file 6 "/usr/include/x86_64-linux-gnu/bits/types.h"
	.file 7 "/usr/include/stdio.h"
	.file 8 "/usr/include/libio.h"
	.file 9 "machmode.h"
	.file 10 "real.h"
	.file 11 "obstack.h"
	.file 12 "hashtable.h"
	.file 13 "c-tree.h"
	.file 14 "input.h"
	.file 15 "splay-tree.h"
	.file 16 "line-map.h"
	.file 17 "cpplib.h"
	.file 18 "c-common.h"
	.file 19 "flags.h"
	.file 20 "./safe-ctype.h"
	.file 21 "timevar.h"
	.file 22 "debug.h"
	.file 23 "libiberty.h"
	.file 24 "c-lex.h"
	.file 25 "toplev.h"
	.section	.note.GNU-stack,"",@progbits
