	.file	"c-pragma.c"
# GNU C (Ubuntu/Linaro 4.8.1-10ubuntu9) version 4.8.1 (x86_64-linux-gnu)
#	compiled by GNU C version 4.8.1, GMP version 5.1.2, MPFR version 3.1.1-p2, MPC version 1.0.1
# GGC heuristics: --param ggc-min-expand=100 --param ggc-min-heapsize=131072
# options passed:  -I . -imultiarch x86_64-linux-gnu -D SPEC_CPU -D NDEBUG
# -D SPEC_CPU_LP64 c-pragma.c -mtune=generic -march=x86-64 -g -fverbose-asm
# -fno-strict-aliasing -fstack-protector -Wformat -Wformat-security
# options enabled:  -faggressive-loop-optimizations
# -fasynchronous-unwind-tables -fauto-inc-dec -fbranch-count-reg -fcommon
# -fdelete-null-pointer-checks -fdwarf2-cfi-asm -fearly-inlining
# -feliminate-unused-debug-types -ffunction-cse -fgcse-lm -fgnu-runtime
# -fident -finline-atomics -fira-hoist-pressure -fira-share-save-slots
# -fira-share-spill-slots -fivopts -fkeep-static-consts
# -fleading-underscore -fmath-errno -fmerge-debug-strings
# -fmove-loop-invariants -fpeephole -fprefetch-loop-arrays
# -freg-struct-return -fsched-critical-path-heuristic
# -fsched-dep-count-heuristic -fsched-group-heuristic -fsched-interblock
# -fsched-last-insn-heuristic -fsched-rank-heuristic -fsched-spec
# -fsched-spec-insn-heuristic -fsched-stalled-insns-dep -fshow-column
# -fsigned-zeros -fsplit-ivs-in-unroller -fstack-protector
# -fstrict-volatile-bitfields -fsync-libcalls -ftrapping-math
# -ftree-coalesce-vars -ftree-cselim -ftree-forwprop -ftree-loop-if-convert
# -ftree-loop-im -ftree-loop-ivcanon -ftree-loop-optimize
# -ftree-parallelize-loops= -ftree-phiprop -ftree-pta -ftree-reassoc
# -ftree-scev-cprop -ftree-slp-vectorize -ftree-vect-loop-version
# -funit-at-a-time -funwind-tables -fverbose-asm -fzero-initialized-in-bss
# -m128bit-long-double -m64 -m80387 -maccumulate-outgoing-args
# -malign-stringops -mfancy-math-387 -mfp-ret-in-387 -mfxsr -mglibc
# -mieee-fp -mlong-double-80 -mmmx -mno-sse4 -mpush-args -mred-zone -msse
# -msse2 -mtls-direct-seg-refs

	.text
.Ltext0:
	.section	.rodata
	.align 8
.LC0:
	.string	"missing '(' after '#pragma pack' - ignored"
	.align 8
.LC1:
	.string	"malformed '#pragma pack' - ignored"
.LC2:
	.string	"push"
.LC3:
	.string	"pop"
	.align 8
.LC4:
	.string	"unknown action '%s' for '#pragma pack' - ignored"
	.align 8
.LC5:
	.string	"malformed '#pragma pack(push[, id], <n>)' - ignored"
	.align 8
.LC6:
	.string	"malformed '#pragma pack(pop[, id])' - ignored"
.LC7:
	.string	"junk at end of '#pragma pack'"
	.align 8
.LC8:
	.string	"alignment must be a small power of two, not %d"
	.align 8
.LC9:
	.string	"#pragma pack(push[, id], <n>) is not supported on this target"
	.align 8
.LC10:
	.string	"#pragma pack(pop[, id], <n>) is not supported on this target"
	.text
	.type	handle_pragma_pack, @function
handle_pragma_pack:
.LFB2:
	.file 1 "c-pragma.c"
	.loc 1 177 0
	.cfi_startproc
	pushq	%rbp	#
	.cfi_def_cfa_offset 16
	.cfi_offset 6, -16
	movq	%rsp, %rbp	#,
	.cfi_def_cfa_register 6
	subq	$64, %rsp	#,
	movq	%rdi, -56(%rbp)	# dummy, dummy
	.loc 1 178 0
	movq	$0, -16(%rbp)	#, id
	.loc 1 179 0
	movl	$-1, -36(%rbp)	#, align
	.loc 1 183 0
	leaq	-24(%rbp), %rax	#, tmp76
	movq	%rax, %rdi	# tmp76,
	call	c_lex	#
	cmpl	$22, %eax	#, D.13106
	je	.L2	#,
	.loc 1 184 0
	movl	$.LC0, %edi	#,
	movl	$0, %eax	#,
	call	warning	#
	jmp	.L1	#
.L2:
	.loc 1 186 0
	leaq	-24(%rbp), %rax	#, tmp77
	movq	%rax, %rdi	# tmp77,
	call	c_lex	#
	movl	%eax, -32(%rbp)	# D.13106, token
	.loc 1 187 0
	cmpl	$23, -32(%rbp)	#, token
	jne	.L4	#,
	.loc 1 189 0
	movl	$0, -28(%rbp)	#, action
	.loc 1 190 0
	movl	$0, -36(%rbp)	#, align
	jmp	.L5	#
.L4:
	.loc 1 192 0
	cmpl	$57, -32(%rbp)	#, token
	jne	.L6	#,
	.loc 1 194 0
	movq	-24(%rbp), %rax	# x, x.0
	movq	32(%rax), %rax	# x.0_15->int_cst.int_cst.low, D.13107
	movl	%eax, -36(%rbp)	# D.13107, align
	.loc 1 195 0
	movl	$0, -28(%rbp)	#, action
	.loc 1 196 0
	leaq	-24(%rbp), %rax	#, tmp78
	movq	%rax, %rdi	# tmp78,
	call	c_lex	#
	cmpl	$23, %eax	#, D.13106
	je	.L5	#,
	.loc 1 197 0
	movl	$.LC1, %edi	#,
	movl	$0, %eax	#,
	call	warning	#
	jmp	.L1	#
.L6:
	.loc 1 199 0
	cmpl	$56, -32(%rbp)	#, token
	jne	.L7	#,
.LBB2:
	.loc 1 207 0
	movq	-24(%rbp), %rax	# x, x.1
	movq	32(%rax), %rax	# x.1_20->identifier.id.str, tmp79
	movq	%rax, -8(%rbp)	# tmp79, op
	.loc 1 208 0
	movq	-8(%rbp), %rax	# op, tmp80
	movl	$.LC2, %esi	#,
	movq	%rax, %rdi	# tmp80,
	call	strcmp	#
	testl	%eax, %eax	# D.13106
	jne	.L8	#,
	.loc 1 209 0
	movl	$1, -28(%rbp)	#, action
	jmp	.L9	#
.L8:
	.loc 1 210 0
	movq	-8(%rbp), %rax	# op, tmp81
	movl	$.LC3, %esi	#,
	movq	%rax, %rdi	# tmp81,
	call	strcmp	#
	testl	%eax, %eax	# D.13106
	jne	.L10	#,
	.loc 1 211 0
	movl	$2, -28(%rbp)	#, action
	jmp	.L9	#
.L10:
	.loc 1 213 0
	movq	-8(%rbp), %rax	# op, tmp82
	movq	%rax, %rsi	# tmp82,
	movl	$.LC4, %edi	#,
	movl	$0, %eax	#,
	call	warning	#
	jmp	.L1	#
.L9:
	.loc 1 215 0
	leaq	-24(%rbp), %rax	#, tmp83
	movq	%rax, %rdi	# tmp83,
	call	c_lex	#
	movl	%eax, -32(%rbp)	# D.13106, token
	.loc 1 216 0
	cmpl	$21, -32(%rbp)	#, token
	je	.L11	#,
	.loc 1 216 0 is_stmt 0 discriminator 1
	cmpl	$1, -28(%rbp)	#, action
	jne	.L11	#,
	.loc 1 217 0 is_stmt 1
	cmpl	$1, -28(%rbp)	#, action
	jne	.L12	#,
	.loc 1 217 0 is_stmt 0 discriminator 1
	movl	$.LC5, %edi	#,
	movl	$0, %eax	#,
	call	warning	#
	jmp	.L1	#
.L12:
	.loc 1 217 0 discriminator 2
	movl	$.LC6, %edi	#,
	movl	$0, %eax	#,
	call	warning	#
	jmp	.L1	#
.L11:
	.loc 1 219 0 is_stmt 1
	cmpl	$21, -32(%rbp)	#, token
	jne	.L13	#,
	.loc 1 221 0
	leaq	-24(%rbp), %rax	#, tmp84
	movq	%rax, %rdi	# tmp84,
	call	c_lex	#
	movl	%eax, -32(%rbp)	# D.13106, token
	.loc 1 222 0
	cmpl	$56, -32(%rbp)	#, token
	jne	.L14	#,
	.loc 1 224 0
	movq	-24(%rbp), %rax	# x, tmp85
	movq	%rax, -16(%rbp)	# tmp85, id
	.loc 1 225 0
	cmpl	$1, -28(%rbp)	#, action
	jne	.L15	#,
	.loc 1 225 0 is_stmt 0 discriminator 1
	leaq	-24(%rbp), %rax	#, tmp86
	movq	%rax, %rdi	# tmp86,
	call	c_lex	#
	cmpl	$21, %eax	#, D.13106
	je	.L15	#,
	.loc 1 226 0 is_stmt 1
	cmpl	$1, -28(%rbp)	#, action
	jne	.L16	#,
	.loc 1 226 0 is_stmt 0 discriminator 1
	movl	$.LC5, %edi	#,
	movl	$0, %eax	#,
	call	warning	#
	jmp	.L1	#
.L16:
	.loc 1 226 0 discriminator 2
	movl	$.LC6, %edi	#,
	movl	$0, %eax	#,
	call	warning	#
	jmp	.L1	#
.L15:
	.loc 1 227 0 is_stmt 1
	leaq	-24(%rbp), %rax	#, tmp87
	movq	%rax, %rdi	# tmp87,
	call	c_lex	#
	movl	%eax, -32(%rbp)	# D.13106, token
.L14:
	.loc 1 230 0
	cmpl	$1, -28(%rbp)	#, action
	jne	.L13	#,
	.loc 1 232 0
	cmpl	$57, -32(%rbp)	#, token
	jne	.L17	#,
	.loc 1 234 0
	movq	-24(%rbp), %rax	# x, x.2
	movq	32(%rax), %rax	# x.2_34->int_cst.int_cst.low, D.13107
	movl	%eax, -36(%rbp)	# D.13107, align
	.loc 1 235 0
	leaq	-24(%rbp), %rax	#, tmp88
	movq	%rax, %rdi	# tmp88,
	call	c_lex	#
	movl	%eax, -32(%rbp)	# D.13106, token
	jmp	.L13	#
.L17:
	.loc 1 238 0
	cmpl	$1, -28(%rbp)	#, action
	jne	.L18	#,
	.loc 1 238 0 is_stmt 0 discriminator 1
	movl	$.LC5, %edi	#,
	movl	$0, %eax	#,
	call	warning	#
	jmp	.L1	#
.L18:
	.loc 1 238 0 discriminator 2
	movl	$.LC6, %edi	#,
	movl	$0, %eax	#,
	call	warning	#
	jmp	.L1	#
.L13:
	.loc 1 242 0 is_stmt 1
	cmpl	$23, -32(%rbp)	#, token
	je	.L19	#,
	.loc 1 243 0
	cmpl	$1, -28(%rbp)	#, action
	jne	.L20	#,
	.loc 1 243 0 is_stmt 0 discriminator 1
	movl	$.LC5, %edi	#,
	movl	$0, %eax	#,
	call	warning	#
	jmp	.L1	#
.L20:
	.loc 1 243 0 discriminator 2
	movl	$.LC6, %edi	#,
	movl	$0, %eax	#,
	call	warning	#
	jmp	.L1	#
.L19:
.LBE2:
	jmp	.L5	#
.L7:
	.loc 1 247 0 is_stmt 1
	movl	$.LC1, %edi	#,
	movl	$0, %eax	#,
	call	warning	#
	jmp	.L1	#
.L5:
	.loc 1 249 0
	leaq	-24(%rbp), %rax	#, tmp89
	movq	%rax, %rdi	# tmp89,
	call	c_lex	#
	cmpl	$67, %eax	#, D.13106
	je	.L21	#,
	.loc 1 250 0
	movl	$.LC7, %edi	#,
	movl	$0, %eax	#,
	call	warning	#
.L21:
	.loc 1 252 0
	cmpl	$2, -28(%rbp)	#, action
	je	.L22	#,
	.loc 1 253 0
	cmpl	$16, -36(%rbp)	#, align
	ja	.L23	#,
	movl	-36(%rbp), %eax	# align, tmp90
	movq	.L25(,%rax,8), %rax	#, tmp91
	jmp	*%rax	# tmp91
	.section	.rodata
	.align 8
	.align 4
.L25:
	.quad	.L24
	.quad	.L24
	.quad	.L24
	.quad	.L23
	.quad	.L24
	.quad	.L23
	.quad	.L23
	.quad	.L23
	.quad	.L24
	.quad	.L23
	.quad	.L23
	.quad	.L23
	.quad	.L23
	.quad	.L23
	.quad	.L23
	.quad	.L23
	.quad	.L24
	.text
.L24:
	.loc 1 261 0
	sall	$3, -36(%rbp)	#, align
	.loc 1 262 0
	jmp	.L22	#
.L23:
	.loc 1 264 0
	movl	-36(%rbp), %eax	# align, tmp92
	movl	%eax, %esi	# tmp92,
	movl	$.LC8, %edi	#,
	movl	$0, %eax	#,
	call	warning	#
	jmp	.L1	#
.L22:
	.loc 1 267 0
	movl	-28(%rbp), %eax	# action, action
	cmpl	$1, %eax	#, action
	je	.L27	#,
	cmpl	$1, %eax	#, action
	jb	.L28	#,
	cmpl	$2, %eax	#, action
	je	.L29	#,
	jmp	.L1	#
.L28:
	.loc 1 269 0
	movl	-36(%rbp), %eax	# align, align.3
	movl	%eax, maximum_field_alignment(%rip)	# align.3, maximum_field_alignment
	nop
	jmp	.L1	#
.L27:
	.loc 1 270 0
	movl	$.LC9, %edi	#,
	movl	$0, %eax	#,
	call	warning	#
	jmp	.L1	#
.L29:
	.loc 1 271 0
	movl	$.LC10, %edi	#,
	movl	$0, %eax	#,
	call	warning	#
	nop
.L1:
	.loc 1 273 0
	leave
	.cfi_def_cfa 7, 8
	ret
	.cfi_endproc
.LFE2:
	.size	handle_pragma_pack, .-handle_pragma_pack
	.local	pending_weaks
	.comm	pending_weaks,8,8
	.section	.rodata
.LC11:
	.string	"alias"
	.align 8
.LC12:
	.string	"applying #pragma weak `%s' after first use results in unspecified behavior"
	.text
	.type	apply_pragma_weak, @function
apply_pragma_weak:
.LFB3:
	.loc 1 285 0
	.cfi_startproc
	pushq	%rbp	#
	.cfi_def_cfa_offset 16
	.cfi_offset 6, -16
	movq	%rsp, %rbp	#,
	.cfi_def_cfa_register 6
	pushq	%rbx	#
	subq	$24, %rsp	#,
	.cfi_offset 3, -24
	movq	%rdi, -24(%rbp)	# decl, decl
	movq	%rsi, -32(%rbp)	# value, value
	.loc 1 286 0
	cmpq	$0, -32(%rbp)	#, value
	je	.L32	#,
	.loc 1 289 0
	movq	-32(%rbp), %rax	# value, tmp81
	movq	32(%rax), %rdx	# value_1(D)->identifier.id.str, D.13119
	.loc 1 288 0
	movq	-32(%rbp), %rax	# value, tmp82
	movl	24(%rax), %eax	# value_1(D)->identifier.id.len, D.13120
	movq	%rdx, %rsi	# D.13119,
	movl	%eax, %edi	# D.13121,
	call	build_string	#
	movq	%rax, -32(%rbp)	# tmp83, value
	.loc 1 290 0
	movq	-32(%rbp), %rax	# value, tmp84
	movq	%rax, %rsi	# tmp84,
	movl	$0, %edi	#,
	call	build_tree_list	#
	movq	%rax, %rbx	#, D.13122
	movl	$.LC11, %edi	#,
	call	get_identifier	#
	movq	%rbx, %rsi	# D.13122,
	movq	%rax, %rdi	# D.13122,
	call	build_tree_list	#
	movq	%rax, %rcx	#, D.13122
	leaq	-24(%rbp), %rax	#, tmp85
	movl	$0, %edx	#,
	movq	%rcx, %rsi	# D.13122,
	movq	%rax, %rdi	# tmp85,
	call	decl_attributes	#
.L32:
	.loc 1 295 0
	movq	-24(%rbp), %rax	# decl, decl.4
	movzbl	49(%rax), %eax	# *decl.4_9, D.13123
	andl	$1, %eax	#, D.13123
	testb	%al, %al	# D.13123
	je	.L33	#,
	.loc 1 295 0 is_stmt 0 discriminator 1
	movq	-24(%rbp), %rax	# decl, decl.5
	movzbl	18(%rax), %eax	# *decl.5_12, D.13123
	andl	$1, %eax	#, D.13123
	testb	%al, %al	# D.13123
	je	.L33	#,
	.loc 1 296 0 is_stmt 1
	movq	-24(%rbp), %rax	# decl, decl.6
	movq	120(%rax), %rax	# decl.6_15->decl.assembler_name, D.13122
	testq	%rax, %rax	# D.13122
	jne	.L34	#,
	.loc 1 296 0 is_stmt 0 discriminator 1
	movq	lang_set_decl_assembler_name(%rip), %rax	# lang_set_decl_assembler_name, lang_set_decl_assembler_name.7
	movq	-24(%rbp), %rdx	# decl, decl.8
	movq	%rdx, %rdi	# decl.8,
	call	*%rax	# lang_set_decl_assembler_name.7
.L34:
	.loc 1 296 0 discriminator 2
	movq	-24(%rbp), %rax	# decl, decl.9
	movq	120(%rax), %rax	# decl.9_19->decl.assembler_name, D.13122
	movzbl	18(%rax), %eax	# *_20, D.13123
	andl	$4, %eax	#, D.13123
	testb	%al, %al	# D.13123
	je	.L33	#,
	.loc 1 297 0 is_stmt 1
	movq	-24(%rbp), %rax	# decl, decl.10
	movl	$.LC12, %esi	#,
	movq	%rax, %rdi	# decl.10,
	movl	$0, %eax	#,
	call	warning_with_decl	#
.L33:
	.loc 1 299 0
	movq	-24(%rbp), %rax	# decl, decl.11
	movq	%rax, %rdi	# decl.11,
	call	declare_weak	#
	.loc 1 300 0
	addq	$24, %rsp	#,
	popq	%rbx	#
	popq	%rbp	#
	.cfi_def_cfa 7, 8
	ret
	.cfi_endproc
.LFE3:
	.size	apply_pragma_weak, .-apply_pragma_weak
	.globl	maybe_apply_pragma_weak
	.type	maybe_apply_pragma_weak, @function
maybe_apply_pragma_weak:
.LFB4:
	.loc 1 305 0
	.cfi_startproc
	pushq	%rbp	#
	.cfi_def_cfa_offset 16
	.cfi_offset 6, -16
	movq	%rsp, %rbp	#,
	.cfi_def_cfa_register 6
	subq	$48, %rsp	#,
	movq	%rdi, -40(%rbp)	# decl, decl
	.loc 1 309 0
	movq	-40(%rbp), %rax	# decl, tmp72
	movzbl	16(%rax), %eax	# decl_2(D)->common.code, D.13126
	cmpb	$30, %al	#, D.13126
	je	.L36	#,
	.loc 1 310 0
	movq	-40(%rbp), %rax	# decl, tmp73
	movzbl	16(%rax), %eax	# decl_2(D)->common.code, D.13126
	cmpb	$34, %al	#, D.13126
	jne	.L37	#,
	.loc 1 311 0
	movq	-40(%rbp), %rax	# decl, tmp74
	movzbl	18(%rax), %eax	# *decl_2(D), D.13126
	andl	$4, %eax	#, D.13126
	testb	%al, %al	# D.13126
	jne	.L36	#,
	.loc 1 312 0
	movq	-40(%rbp), %rax	# decl, tmp75
	movzbl	49(%rax), %eax	# *decl_2(D), D.13126
	andl	$1, %eax	#, D.13126
	testb	%al, %al	# D.13126
	jne	.L36	#,
	.loc 1 313 0
	movq	-40(%rbp), %rax	# decl, tmp76
	movzbl	18(%rax), %eax	# *decl_2(D), D.13126
	andl	$8, %eax	#, D.13126
	testb	%al, %al	# D.13126
	je	.L37	#,
.L36:
	.loc 1 314 0
	movq	-40(%rbp), %rax	# decl, tmp77
	movq	120(%rax), %rax	# decl_2(D)->decl.assembler_name, D.13127
	testq	%rax, %rax	# D.13127
	jne	.L38	#,
	.loc 1 314 0 is_stmt 0 discriminator 1
	movq	lang_set_decl_assembler_name(%rip), %rax	# lang_set_decl_assembler_name, lang_set_decl_assembler_name.12
	movq	-40(%rbp), %rdx	# decl, tmp78
	movq	%rdx, %rdi	# tmp78,
	call	*%rax	# lang_set_decl_assembler_name.12
.L38:
	.loc 1 314 0 discriminator 2
	movq	-40(%rbp), %rax	# decl, tmp79
	movq	120(%rax), %rax	# decl_2(D)->decl.assembler_name, tmp80
	movq	%rax, -16(%rbp)	# tmp80, id
	.loc 1 318 0 is_stmt 1 discriminator 2
	movq	$pending_weaks, -24(%rbp)	#, p
	jmp	.L39	#
.L37:
	.loc 1 316 0
	jmp	.L35	#
.L42:
	.loc 1 319 0
	movq	-8(%rbp), %rax	# t, tmp81
	movq	24(%rax), %rax	# t_15->list.purpose, D.13127
	cmpq	-16(%rbp), %rax	# id, D.13127
	jne	.L41	#,
	.loc 1 321 0
	movq	-8(%rbp), %rax	# t, tmp82
	movq	32(%rax), %rdx	# t_15->list.value, D.13127
	movq	-40(%rbp), %rax	# decl, tmp83
	movq	%rdx, %rsi	# D.13127,
	movq	%rax, %rdi	# tmp83,
	call	apply_pragma_weak	#
	.loc 1 322 0
	movq	-8(%rbp), %rax	# t, tmp84
	movq	(%rax), %rdx	# t_15->common.chain, D.13127
	movq	-24(%rbp), %rax	# p, tmp85
	movq	%rdx, (%rax)	# D.13127, *p_1
	.loc 1 323 0
	jmp	.L35	#
.L41:
	.loc 1 318 0
	movq	-8(%rbp), %rax	# t, tmp86
	movq	%rax, -24(%rbp)	# tmp86, p
.L39:
	.loc 1 318 0 is_stmt 0 discriminator 1
	movq	-24(%rbp), %rax	# p, tmp87
	movq	(%rax), %rax	# *p_1, tmp88
	movq	%rax, -8(%rbp)	# tmp88, t
	cmpq	$0, -8(%rbp)	#, t
	jne	.L42	#,
.L35:
	.loc 1 325 0 is_stmt 1
	leave
	.cfi_def_cfa 7, 8
	ret
	.cfi_endproc
.LFE4:
	.size	maybe_apply_pragma_weak, .-maybe_apply_pragma_weak
	.section	.rodata
	.align 8
.LC13:
	.string	"malformed #pragma weak, ignored"
.LC14:
	.string	"junk at end of #pragma weak"
	.text
	.type	handle_pragma_weak, @function
handle_pragma_weak:
.LFB5:
	.loc 1 331 0
	.cfi_startproc
	pushq	%rbp	#
	.cfi_def_cfa_offset 16
	.cfi_offset 6, -16
	movq	%rsp, %rbp	#,
	.cfi_def_cfa_register 6
	subq	$64, %rsp	#,
	movq	%rdi, -56(%rbp)	# dummy, dummy
	.loc 1 335 0
	movq	$0, -24(%rbp)	#, value
	.loc 1 337 0
	leaq	-32(%rbp), %rax	#, tmp74
	movq	%rax, %rdi	# tmp74,
	call	c_lex	#
	cmpl	$56, %eax	#, D.13128
	je	.L44	#,
	.loc 1 338 0
	movl	$.LC13, %edi	#,
	movl	$0, %eax	#,
	call	warning	#
	jmp	.L43	#
.L44:
	.loc 1 339 0
	leaq	-16(%rbp), %rax	#, tmp75
	movq	%rax, %rdi	# tmp75,
	call	c_lex	#
	movl	%eax, -36(%rbp)	# D.13128, t
	.loc 1 340 0
	cmpl	$0, -36(%rbp)	#, t
	jne	.L46	#,
	.loc 1 342 0
	leaq	-24(%rbp), %rax	#, tmp76
	movq	%rax, %rdi	# tmp76,
	call	c_lex	#
	cmpl	$56, %eax	#, D.13128
	je	.L47	#,
	.loc 1 343 0
	movl	$.LC13, %edi	#,
	movl	$0, %eax	#,
	call	warning	#
	jmp	.L43	#
.L47:
	.loc 1 344 0
	leaq	-16(%rbp), %rax	#, tmp77
	movq	%rax, %rdi	# tmp77,
	call	c_lex	#
	movl	%eax, -36(%rbp)	# D.13128, t
.L46:
	.loc 1 346 0
	cmpl	$67, -36(%rbp)	#, t
	je	.L48	#,
	.loc 1 347 0
	movl	$.LC14, %edi	#,
	movl	$0, %eax	#,
	call	warning	#
.L48:
	.loc 1 349 0
	movq	-32(%rbp), %rax	# name, name.13
	movq	%rax, %rdi	# name.13,
	call	identifier_global_value	#
	movq	%rax, -8(%rbp)	# tmp78, decl
	.loc 1 350 0
	cmpq	$0, -8(%rbp)	#, decl
	je	.L49	#,
	.loc 1 350 0 is_stmt 0 discriminator 1
	movq	-8(%rbp), %rax	# decl, tmp79
	movzbl	16(%rax), %eax	# decl_9->common.code, D.13129
	movzbl	%al, %eax	# D.13129, D.13128
	cltq
	movzbl	tree_code_type(%rax), %eax	# tree_code_type, D.13130
	cmpb	$100, %al	#, D.13130
	jne	.L49	#,
	.loc 1 352 0 is_stmt 1
	movq	-24(%rbp), %rdx	# value, value.14
	movq	-8(%rbp), %rax	# decl, tmp81
	movq	%rdx, %rsi	# value.14,
	movq	%rax, %rdi	# tmp81,
	call	apply_pragma_weak	#
	.loc 1 353 0
	movq	-24(%rbp), %rax	# value, value.15
	testq	%rax, %rax	# value.15
	je	.L50	#,
	.loc 1 354 0
	movq	-24(%rbp), %rdx	# value, value.16
	movq	-8(%rbp), %rax	# decl, tmp82
	movq	%rdx, %rsi	# value.16,
	movq	%rax, %rdi	# tmp82,
	call	assemble_alias	#
	.loc 1 353 0
	jmp	.L51	#
.L50:
	.loc 1 353 0 is_stmt 0 discriminator 1
	jmp	.L51	#
.L49:
	.loc 1 357 0 is_stmt 1
	movq	pending_weaks(%rip), %rdx	# pending_weaks, pending_weaks.17
	movq	-24(%rbp), %rcx	# value, value.18
	movq	-32(%rbp), %rax	# name, name.19
	movq	%rcx, %rsi	# value.18,
	movq	%rax, %rdi	# name.19,
	call	tree_cons	#
	movq	%rax, pending_weaks(%rip)	# pending_weaks.20, pending_weaks
	jmp	.L43	#
.L51:
.L43:
	.loc 1 358 0
	leave
	.cfi_def_cfa 7, 8
	ret
	.cfi_endproc
.LFE5:
	.size	handle_pragma_weak, .-handle_pragma_weak
	.section	.rodata
	.align 8
.LC15:
	.string	"asm declaration conficts with previous rename"
	.text
	.globl	maybe_apply_renaming_pragma
	.type	maybe_apply_renaming_pragma, @function
maybe_apply_renaming_pragma:
.LFB6:
	.loc 1 441 0
	.cfi_startproc
	pushq	%rbp	#
	.cfi_def_cfa_offset 16
	.cfi_offset 6, -16
	movq	%rsp, %rbp	#,
	.cfi_def_cfa_register 6
	subq	$32, %rsp	#,
	movq	%rdi, -24(%rbp)	# decl, decl
	movq	%rsi, -32(%rbp)	# asmname, asmname
	.loc 1 445 0
	movq	-24(%rbp), %rax	# decl, tmp78
	movzbl	16(%rax), %eax	# decl_3(D)->common.code, D.13134
	cmpb	$30, %al	#, D.13134
	je	.L54	#,
	.loc 1 446 0
	movq	-24(%rbp), %rax	# decl, tmp79
	movzbl	16(%rax), %eax	# decl_3(D)->common.code, D.13134
	cmpb	$34, %al	#, D.13134
	jne	.L55	#,
	.loc 1 447 0
	movq	-24(%rbp), %rax	# decl, tmp80
	movzbl	18(%rax), %eax	# *decl_3(D), D.13134
	andl	$4, %eax	#, D.13134
	testb	%al, %al	# D.13134
	jne	.L54	#,
	.loc 1 448 0
	movq	-24(%rbp), %rax	# decl, tmp81
	movzbl	49(%rax), %eax	# *decl_3(D), D.13134
	andl	$1, %eax	#, D.13134
	testb	%al, %al	# D.13134
	jne	.L54	#,
	.loc 1 449 0
	movq	-24(%rbp), %rax	# decl, tmp82
	movzbl	18(%rax), %eax	# *decl_3(D), D.13134
	andl	$8, %eax	#, D.13134
	testb	%al, %al	# D.13134
	je	.L55	#,
.L54:
	.loc 1 450 0
	movq	-24(%rbp), %rax	# decl, tmp83
	movq	120(%rax), %rax	# decl_3(D)->decl.assembler_name, D.13135
	testq	%rax, %rax	# D.13135
	jne	.L56	#,
	.loc 1 450 0 is_stmt 0 discriminator 1
	movq	lang_set_decl_assembler_name(%rip), %rax	# lang_set_decl_assembler_name, lang_set_decl_assembler_name.21
	movq	-24(%rbp), %rdx	# decl, tmp84
	movq	%rdx, %rdi	# tmp84,
	call	*%rax	# lang_set_decl_assembler_name.21
.L56:
	.loc 1 450 0 discriminator 2
	movq	-24(%rbp), %rax	# decl, tmp85
	movq	120(%rax), %rax	# decl_3(D)->decl.assembler_name, tmp86
	movq	%rax, -16(%rbp)	# tmp86, oldname
	.loc 1 456 0 is_stmt 1 discriminator 2
	movq	-16(%rbp), %rax	# oldname, tmp87
	movq	32(%rax), %rax	# oldname_16->identifier.id.str, D.13136
	movzbl	(%rax), %eax	# MEM[(const char *)_17], D.13137
	cmpb	$42, %al	#, D.13137
	je	.L57	#,
	jmp	.L58	#
.L55:
	.loc 1 452 0
	movq	-32(%rbp), %rax	# asmname, D.13133
	jmp	.L59	#
.L57:
.LBB3:
	.loc 1 458 0
	movq	-16(%rbp), %rax	# oldname, tmp88
	movq	32(%rax), %rax	# oldname_16->identifier.id.str, D.13136
	addq	$1, %rax	#, tmp89
	movq	%rax, -8(%rbp)	# tmp89, oldasmname
	.loc 1 459 0
	cmpq	$0, -32(%rbp)	#, asmname
	je	.L60	#,
	.loc 1 459 0 is_stmt 0 discriminator 1
	movq	-32(%rbp), %rax	# asmname, tmp90
	movq	40(%rax), %rax	# asmname_12(D)->string.pointer, D.13138
	movq	-8(%rbp), %rdx	# oldasmname, tmp91
	movq	%rdx, %rsi	# tmp91,
	movq	%rax, %rdi	# D.13138,
	call	strcmp	#
	testl	%eax, %eax	# D.13139
	je	.L60	#,
	.loc 1 460 0 is_stmt 1
	movl	$.LC15, %edi	#,
	movl	$0, %eax	#,
	call	warning	#
.L60:
	.loc 1 461 0
	movq	-8(%rbp), %rax	# oldasmname, tmp92
	movq	%rax, %rdi	# tmp92,
	call	strlen	#
	movq	-8(%rbp), %rdx	# oldasmname, tmp93
	movq	%rdx, %rsi	# tmp93,
	movl	%eax, %edi	# D.13139,
	call	build_string	#
	movq	%rax, -32(%rbp)	# tmp94, asmname
.L58:
.LBE3:
	.loc 1 493 0
	movq	-32(%rbp), %rax	# asmname, D.13133
.L59:
	.loc 1 494 0
	leave
	.cfi_def_cfa 7, 8
	ret
	.cfi_endproc
.LFE6:
	.size	maybe_apply_renaming_pragma, .-maybe_apply_renaming_pragma
	.section	.rodata
.LC16:
	.string	"pack"
.LC17:
	.string	"weak"
	.text
	.globl	init_pragma
	.type	init_pragma, @function
init_pragma:
.LFB7:
	.loc 1 498 0
	.cfi_startproc
	pushq	%rbp	#
	.cfi_def_cfa_offset 16
	.cfi_offset 6, -16
	movq	%rsp, %rbp	#,
	.cfi_def_cfa_register 6
	.loc 1 500 0
	movq	parse_in(%rip), %rax	# parse_in, parse_in.22
	movl	$handle_pragma_pack, %ecx	#,
	movl	$.LC16, %edx	#,
	movl	$0, %esi	#,
	movq	%rax, %rdi	# parse_in.22,
	call	cpp_register_pragma	#
	.loc 1 503 0
	movq	parse_in(%rip), %rax	# parse_in, parse_in.23
	movl	$handle_pragma_weak, %ecx	#,
	movl	$.LC17, %edx	#,
	movl	$0, %esi	#,
	movq	%rax, %rdi	# parse_in.23,
	call	cpp_register_pragma	#
	.loc 1 504 0
	movl	$1, %esi	#,
	movl	$pending_weaks, %edi	#,
	call	ggc_add_tree_root	#
	.loc 1 525 0
	popq	%rbp	#
	.cfi_def_cfa 7, 8
	ret
	.cfi_endproc
.LFE7:
	.size	init_pragma, .-init_pragma
.Letext0:
	.file 2 "rtl.h"
	.file 3 "config.h"
	.file 4 "tree.h"
	.file 5 "i386.h"
	.file 6 "machmode.h"
	.file 7 "real.h"
	.file 8 "hashtable.h"
	.file 9 "function.h"
	.file 10 "c-common.h"
	.file 11 "cpplib.h"
	.file 12 "c-lex.h"
	.section	.note.GNU-stack,"",@progbits
