	.file	"calls.c"
# GNU C (Ubuntu/Linaro 4.8.1-10ubuntu9) version 4.8.1 (x86_64-linux-gnu)
#	compiled by GNU C version 4.8.1, GMP version 5.1.2, MPFR version 3.1.1-p2, MPC version 1.0.1
# GGC heuristics: --param ggc-min-expand=100 --param ggc-min-heapsize=131072
# options passed:  -I . -imultiarch x86_64-linux-gnu -D SPEC_CPU -D NDEBUG
# -D SPEC_CPU_LP64 calls.c -mtune=generic -march=x86-64 -g -fverbose-asm
# -fno-strict-aliasing -fstack-protector -Wformat -Wformat-security
# options enabled:  -faggressive-loop-optimizations
# -fasynchronous-unwind-tables -fauto-inc-dec -fbranch-count-reg -fcommon
# -fdelete-null-pointer-checks -fdwarf2-cfi-asm -fearly-inlining
# -feliminate-unused-debug-types -ffunction-cse -fgcse-lm -fgnu-runtime
# -fident -finline-atomics -fira-hoist-pressure -fira-share-save-slots
# -fira-share-spill-slots -fivopts -fkeep-static-consts
# -fleading-underscore -fmath-errno -fmerge-debug-strings
# -fmove-loop-invariants -fpeephole -fprefetch-loop-arrays
# -freg-struct-return -fsched-critical-path-heuristic
# -fsched-dep-count-heuristic -fsched-group-heuristic -fsched-interblock
# -fsched-last-insn-heuristic -fsched-rank-heuristic -fsched-spec
# -fsched-spec-insn-heuristic -fsched-stalled-insns-dep -fshow-column
# -fsigned-zeros -fsplit-ivs-in-unroller -fstack-protector
# -fstrict-volatile-bitfields -fsync-libcalls -ftrapping-math
# -ftree-coalesce-vars -ftree-cselim -ftree-forwprop -ftree-loop-if-convert
# -ftree-loop-im -ftree-loop-ivcanon -ftree-loop-optimize
# -ftree-parallelize-loops= -ftree-phiprop -ftree-pta -ftree-reassoc
# -ftree-scev-cprop -ftree-slp-vectorize -ftree-vect-loop-version
# -funit-at-a-time -funwind-tables -fverbose-asm -fzero-initialized-in-bss
# -m128bit-long-double -m64 -m80387 -maccumulate-outgoing-args
# -malign-stringops -mfancy-math-387 -mfp-ret-in-387 -mfxsr -mglibc
# -mieee-fp -mlong-double-80 -mmmx -mno-sse4 -mpush-args -mred-zone -msse
# -msse2 -mtls-direct-seg-refs

	.text
.Ltext0:
	.local	stack_usage_map
	.comm	stack_usage_map,8,8
	.local	highest_outgoing_arg_in_use
	.comm	highest_outgoing_arg_in_use,4,4
	.local	stored_args_map
	.comm	stored_args_map,8,8
	.comm	stack_arg_under_construction,4,4
	.local	calls_function_save_exprs
	.comm	calls_function_save_exprs,8,8
	.type	calls_function, @function
calls_function:
.LFB2:
	.file 1 "calls.c"
	.loc 1 246 0
	.cfi_startproc
	pushq	%rbp	#
	.cfi_def_cfa_offset 16
	.cfi_offset 6, -16
	movq	%rsp, %rbp	#,
	.cfi_def_cfa_register 6
	subq	$32, %rsp	#,
	movq	%rdi, -24(%rbp)	# exp, exp
	movl	%esi, -28(%rbp)	# which, which
	.loc 1 249 0
	movq	$0, calls_function_save_exprs(%rip)	#, calls_function_save_exprs
	.loc 1 250 0
	movl	-28(%rbp), %edx	# which, tmp61
	movq	-24(%rbp), %rax	# exp, tmp62
	movl	%edx, %esi	# tmp61,
	movq	%rax, %rdi	# tmp62,
	call	calls_function_1	#
	movl	%eax, -4(%rbp)	# tmp63, val
	.loc 1 251 0
	movq	$0, calls_function_save_exprs(%rip)	#, calls_function_save_exprs
	.loc 1 252 0
	movl	-4(%rbp), %eax	# val, D.17419
	.loc 1 253 0
	leave
	.cfi_def_cfa 7, 8
	ret
	.cfi_endproc
.LFE2:
	.size	calls_function, .-calls_function
	.type	calls_function_1, @function
calls_function_1:
.LFB3:
	.loc 1 261 0
	.cfi_startproc
	pushq	%rbp	#
	.cfi_def_cfa_offset 16
	.cfi_offset 6, -16
	movq	%rsp, %rbp	#,
	.cfi_def_cfa_register 6
	subq	$64, %rsp	#,
	movq	%rdi, -56(%rbp)	# exp, exp
	movl	%esi, -60(%rbp)	# which, which
	.loc 1 263 0
	movq	-56(%rbp), %rax	# exp, tmp104
	movzbl	16(%rax), %eax	# exp_8(D)->common.code, D.17421
	movzbl	%al, %eax	# D.17421, tmp105
	movl	%eax, -36(%rbp)	# tmp105, code
	.loc 1 264 0
	movl	-36(%rbp), %eax	# code, code.0
	cltq
	movzbl	tree_code_type(%rax), %eax	# tree_code_type, D.17422
	movsbl	%al, %eax	# D.17422, tmp107
	movl	%eax, -32(%rbp)	# tmp107, class
	.loc 1 265 0
	movl	-36(%rbp), %eax	# code, tmp108
	movl	%eax, %edi	# tmp108,
	call	first_rtl_op	#
	movl	%eax, -28(%rbp)	# tmp109, length
	.loc 1 268 0
	movl	-36(%rbp), %eax	# code, code.1
	cmpl	$146, %eax	#, code.1
	jle	.L4	#,
	.loc 1 269 0
	movl	$1, %eax	#, D.17420
	jmp	.L5	#
.L4:
	.loc 1 271 0
	movl	-36(%rbp), %eax	# code, code
	cmpl	$46, %eax	#, code
	je	.L7	#,
	cmpl	$46, %eax	#, code
	ja	.L8	#,
	cmpl	$2, %eax	#, code
	je	.L30	#,
	cmpl	$4, %eax	#, code
	je	.L10	#,
	.loc 1 337 0
	jmp	.L16	#
.L8:
	.loc 1 271 0
	cmpl	$53, %eax	#, code
	je	.L11	#,
	cmpl	$118, %eax	#, code
	je	.L12	#,
	.loc 1 337 0
	jmp	.L16	#
.L11:
	.loc 1 274 0
	cmpl	$0, -60(%rbp)	#, which
	jne	.L13	#,
	.loc 1 275 0
	movl	$1, %eax	#, D.17420
	jmp	.L5	#
.L13:
	.loc 1 276 0
	movq	-56(%rbp), %rax	# exp, tmp111
	movq	32(%rax), %rax	# exp_8(D)->exp.operands, D.17423
	movq	8(%rax), %rax	# _19->common.type, D.17423
	movq	8(%rax), %rax	# _20->common.type, D.17423
	movzbl	16(%rax), %eax	# _21->common.code, D.17421
	cmpb	$23, %al	#, D.17421
	jne	.L14	#,
	.loc 1 278 0
	movq	-56(%rbp), %rax	# exp, tmp112
	movq	32(%rax), %rax	# exp_8(D)->exp.operands, D.17423
	movq	8(%rax), %rax	# _23->common.type, D.17423
	movq	8(%rax), %rax	# _24->common.type, D.17423
	movzbl	62(%rax), %eax	# *_25, D.17421
	andl	$2, %eax	#, D.17421
	testb	%al, %al	# D.17421
	je	.L14	#,
	.loc 1 280 0
	movl	$1, %eax	#, D.17420
	jmp	.L5	#
.L14:
	.loc 1 281 0
	movq	-56(%rbp), %rax	# exp, tmp113
	movq	32(%rax), %rax	# exp_8(D)->exp.operands, D.17423
	movzbl	16(%rax), %eax	# _29->common.code, D.17421
	cmpb	$121, %al	#, D.17421
	jne	.L15	#,
	.loc 1 282 0
	movq	-56(%rbp), %rax	# exp, tmp114
	movq	32(%rax), %rax	# exp_8(D)->exp.operands, D.17423
	movq	32(%rax), %rax	# _31->exp.operands, D.17423
	movzbl	16(%rax), %eax	# _32->common.code, D.17421
	cmpb	$30, %al	#, D.17421
	jne	.L15	#,
	.loc 1 284 0
	movq	-56(%rbp), %rax	# exp, tmp115
	movq	32(%rax), %rax	# exp_8(D)->exp.operands, D.17423
	movq	32(%rax), %rax	# _34->exp.operands, D.17423
	movl	$0, %esi	#,
	movq	%rax, %rdi	# D.17423,
	call	special_function_p	#
	.loc 1 286 0
	andl	$8, %eax	#, D.17420
	.loc 1 284 0
	testl	%eax, %eax	# D.17420
	je	.L15	#,
	.loc 1 287 0
	movl	$1, %eax	#, D.17420
	jmp	.L5	#
.L15:
	.loc 1 289 0
	jmp	.L16	#
.L7:
.LBB2:
	.loc 1 295 0
	movq	-56(%rbp), %rax	# exp, tmp116
	movq	40(%rax), %rax	# exp_8(D)->exp.operands, tmp117
	movq	%rax, -24(%rbp)	# tmp117, tem
	jmp	.L17	#
.L19:
	.loc 1 296 0
	movq	-24(%rbp), %rax	# tem, tmp118
	movq	32(%rax), %rax	# tem_3->list.value, D.17423
	movl	-60(%rbp), %edx	# which, tmp119
	movl	%edx, %esi	# tmp119,
	movq	%rax, %rdi	# D.17423,
	call	calls_function_1	#
	testl	%eax, %eax	# D.17420
	je	.L18	#,
	.loc 1 297 0
	movl	$1, %eax	#, D.17420
	jmp	.L5	#
.L18:
	.loc 1 295 0
	movq	-24(%rbp), %rax	# tem, tmp120
	movq	(%rax), %rax	# tem_3->common.chain, tmp121
	movq	%rax, -24(%rbp)	# tmp121, tem
.L17:
	.loc 1 295 0 is_stmt 0 discriminator 1
	cmpq	$0, -24(%rbp)	#, tem
	jne	.L19	#,
.LBE2:
	.loc 1 300 0 is_stmt 1
	movl	$0, %eax	#, D.17420
	jmp	.L5	#
.L12:
	.loc 1 303 0
	movq	-56(%rbp), %rax	# exp, tmp122
	addq	$48, %rax	#, D.17424
	movq	(%rax), %rax	# MEM[(struct rtx_def * *)_45], D.17425
	testq	%rax, %rax	# D.17425
	je	.L20	#,
	.loc 1 304 0
	movl	$0, %eax	#, D.17420
	jmp	.L5	#
.L20:
	.loc 1 305 0
	movq	calls_function_save_exprs(%rip), %rdx	# calls_function_save_exprs, calls_function_save_exprs.2
	movq	-56(%rbp), %rax	# exp, tmp123
	movq	%rdx, %rsi	# calls_function_save_exprs.2,
	movq	%rax, %rdi	# tmp123,
	call	value_member	#
	testq	%rax, %rax	# D.17423
	je	.L21	#,
	.loc 1 306 0
	movl	$0, %eax	#, D.17420
	jmp	.L5	#
.L21:
	.loc 1 307 0
	movq	calls_function_save_exprs(%rip), %rdx	# calls_function_save_exprs, calls_function_save_exprs.3
	movq	-56(%rbp), %rax	# exp, tmp124
	movq	%rax, %rsi	# tmp124,
	movl	$0, %edi	#,
	call	tree_cons	#
	movq	%rax, calls_function_save_exprs(%rip)	# calls_function_save_exprs.4, calls_function_save_exprs
	.loc 1 309 0
	movq	-56(%rbp), %rax	# exp, tmp125
	movq	32(%rax), %rax	# exp_8(D)->exp.operands, D.17423
	.loc 1 310 0
	testq	%rax, %rax	# D.17423
	je	.L22	#,
	.loc 1 310 0 is_stmt 0 discriminator 1
	movq	-56(%rbp), %rax	# exp, tmp126
	movq	32(%rax), %rax	# exp_8(D)->exp.operands, D.17423
	movl	-60(%rbp), %edx	# which, tmp127
	movl	%edx, %esi	# tmp127,
	movq	%rax, %rdi	# D.17423,
	call	calls_function_1	#
	testl	%eax, %eax	# D.17420
	je	.L22	#,
	.loc 1 310 0 discriminator 3
	movl	$1, %eax	#, iftmp.5
	jmp	.L23	#
.L22:
	.loc 1 310 0 discriminator 2
	movl	$0, %eax	#, iftmp.5
.L23:
	.loc 1 309 0 is_stmt 1
	jmp	.L5	#
.L10:
.LBB3:
	.loc 1 317 0
	movq	-56(%rbp), %rax	# exp, tmp128
	movq	32(%rax), %rax	# exp_8(D)->block.vars, tmp129
	movq	%rax, -16(%rbp)	# tmp129, local
	jmp	.L24	#
.L26:
	.loc 1 318 0
	movq	-16(%rbp), %rax	# local, tmp130
	movq	104(%rax), %rax	# local_4->decl.initial, D.17423
	testq	%rax, %rax	# D.17423
	je	.L25	#,
	.loc 1 319 0
	movq	-16(%rbp), %rax	# local, tmp131
	movq	104(%rax), %rax	# local_4->decl.initial, D.17423
	movl	-60(%rbp), %edx	# which, tmp132
	movl	%edx, %esi	# tmp132,
	movq	%rax, %rdi	# D.17423,
	call	calls_function_1	#
	testl	%eax, %eax	# D.17420
	je	.L25	#,
	.loc 1 320 0
	movl	$1, %eax	#, D.17420
	jmp	.L5	#
.L25:
	.loc 1 317 0
	movq	-16(%rbp), %rax	# local, tmp133
	movq	(%rax), %rax	# local_4->common.chain, tmp134
	movq	%rax, -16(%rbp)	# tmp134, local
.L24:
	.loc 1 317 0 is_stmt 0 discriminator 1
	cmpq	$0, -16(%rbp)	#, local
	jne	.L26	#,
	.loc 1 322 0 is_stmt 1
	movq	-56(%rbp), %rax	# exp, tmp135
	movq	40(%rax), %rax	# exp_8(D)->block.subblocks, tmp136
	movq	%rax, -8(%rbp)	# tmp136, subblock
	jmp	.L27	#
.L29:
	.loc 1 325 0
	movl	-60(%rbp), %edx	# which, tmp137
	movq	-8(%rbp), %rax	# subblock, tmp138
	movl	%edx, %esi	# tmp137,
	movq	%rax, %rdi	# tmp138,
	call	calls_function_1	#
	testl	%eax, %eax	# D.17420
	je	.L28	#,
	.loc 1 326 0
	movl	$1, %eax	#, D.17420
	jmp	.L5	#
.L28:
	.loc 1 324 0
	movq	-8(%rbp), %rax	# subblock, tmp139
	movq	(%rax), %rax	# subblock_5->common.chain, tmp140
	movq	%rax, -8(%rbp)	# tmp140, subblock
.L27:
	.loc 1 322 0 discriminator 1
	cmpq	$0, -8(%rbp)	#, subblock
	jne	.L29	#,
.LBE3:
	.loc 1 328 0
	movl	$0, %eax	#, D.17420
	jmp	.L5	#
.L32:
	.loc 1 332 0
	movq	-56(%rbp), %rax	# exp, tmp141
	movq	32(%rax), %rax	# exp_1->list.value, D.17423
	movl	-60(%rbp), %edx	# which, tmp142
	movl	%edx, %esi	# tmp142,
	movq	%rax, %rdi	# D.17423,
	call	calls_function_1	#
	testl	%eax, %eax	# D.17420
	je	.L31	#,
	.loc 1 333 0
	movl	$1, %eax	#, D.17420
	jmp	.L5	#
.L31:
	.loc 1 331 0
	movq	-56(%rbp), %rax	# exp, tmp143
	movq	(%rax), %rax	# exp_1->common.chain, tmp144
	movq	%rax, -56(%rbp)	# tmp144, exp
.L30:
	.loc 1 331 0 is_stmt 0 discriminator 1
	cmpq	$0, -56(%rbp)	#, exp
	jne	.L32	#,
	.loc 1 334 0 is_stmt 1
	movl	$0, %eax	#, D.17420
	jmp	.L5	#
.L16:
	.loc 1 341 0
	cmpl	$60, -32(%rbp)	#, class
	je	.L33	#,
	.loc 1 341 0 is_stmt 0 discriminator 1
	cmpl	$49, -32(%rbp)	#, class
	je	.L33	#,
	cmpl	$50, -32(%rbp)	#, class
	je	.L33	#,
	cmpl	$101, -32(%rbp)	#, class
	je	.L33	#,
	cmpl	$114, -32(%rbp)	#, class
	je	.L33	#,
	cmpl	$98, -32(%rbp)	#, class
	je	.L33	#,
	.loc 1 342 0 is_stmt 1
	movl	$0, %eax	#, D.17420
	jmp	.L5	#
.L33:
	.loc 1 344 0
	movl	$0, -40(%rbp)	#, i
	jmp	.L34	#
.L36:
	.loc 1 345 0
	movq	-56(%rbp), %rax	# exp, tmp145
	movl	-40(%rbp), %edx	# i, tmp147
	movslq	%edx, %rdx	# tmp147, tmp146
	addq	$4, %rdx	#, tmp148
	movq	(%rax,%rdx,8), %rax	# exp_8(D)->exp.operands, D.17423
	testq	%rax, %rax	# D.17423
	je	.L35	#,
	.loc 1 346 0
	movq	-56(%rbp), %rax	# exp, tmp149
	movl	-40(%rbp), %edx	# i, tmp151
	movslq	%edx, %rdx	# tmp151, tmp150
	addq	$4, %rdx	#, tmp152
	movq	(%rax,%rdx,8), %rax	# exp_8(D)->exp.operands, D.17423
	movl	-60(%rbp), %edx	# which, tmp153
	movl	%edx, %esi	# tmp153,
	movq	%rax, %rdi	# D.17423,
	call	calls_function_1	#
	testl	%eax, %eax	# D.17420
	je	.L35	#,
	.loc 1 347 0
	movl	$1, %eax	#, D.17420
	jmp	.L5	#
.L35:
	.loc 1 344 0
	addl	$1, -40(%rbp)	#, i
.L34:
	.loc 1 344 0 is_stmt 0 discriminator 1
	movl	-40(%rbp), %eax	# i, tmp154
	cmpl	-28(%rbp), %eax	# length, tmp154
	jl	.L36	#,
	.loc 1 349 0 is_stmt 1
	movl	$0, %eax	#, D.17420
.L5:
	.loc 1 350 0
	leave
	.cfi_def_cfa 7, 8
	ret
	.cfi_endproc
.LFE3:
	.size	calls_function_1, .-calls_function_1
	.globl	prepare_call_address
	.type	prepare_call_address, @function
prepare_call_address:
.LFB4:
	.loc 1 366 0
	.cfi_startproc
	pushq	%rbp	#
	.cfi_def_cfa_offset 16
	.cfi_offset 6, -16
	movq	%rsp, %rbp	#,
	.cfi_def_cfa_register 6
	subq	$48, %rsp	#,
	movq	%rdi, -24(%rbp)	# funexp, funexp
	movq	%rsi, -32(%rbp)	# fndecl, fndecl
	movq	%rdx, -40(%rbp)	# call_fusage, call_fusage
	movl	%ecx, -44(%rbp)	# reg_parm_seen, reg_parm_seen
	movl	%r8d, -48(%rbp)	# sibcallp, sibcallp
	.loc 1 367 0
	movq	$0, -8(%rbp)	#, static_chain_value
	.loc 1 369 0
	movq	-24(%rbp), %rax	# funexp, tmp68
	movl	$0, %esi	#,
	movq	%rax, %rdi	# tmp68,
	call	protect_from_queue	#
	movq	%rax, -24(%rbp)	# tmp69, funexp
	.loc 1 371 0
	cmpq	$0, -32(%rbp)	#, fndecl
	je	.L38	#,
	.loc 1 373 0
	movq	-32(%rbp), %rax	# fndecl, tmp70
	movq	%rax, %rdi	# tmp70,
	call	lookup_static_chain	#
	movq	%rax, -8(%rbp)	# tmp71, static_chain_value
.L38:
	.loc 1 377 0
	movq	-24(%rbp), %rax	# funexp, tmp72
	movzwl	(%rax), %eax	# funexp_6->code, D.17427
	cmpw	$68, %ax	#, D.17427
	je	.L39	#,
	.loc 1 382 0
	cmpl	$0, -44(%rbp)	#, reg_parm_seen
	je	.L40	#,
	.loc 1 381 0
	movq	-24(%rbp), %rax	# funexp, tmp73
	movq	%rax, %rsi	# tmp73,
	movl	$2, %edi	#,
	call	memory_address	#
	.loc 1 382 0
	movq	%rax, %rdi	# D.17428,
	call	force_not_mem	#
	jmp	.L41	#
.L40:
	.loc 1 382 0 is_stmt 0 discriminator 1
	movq	-24(%rbp), %rax	# funexp, tmp74
	movq	%rax, %rsi	# tmp74,
	movl	$2, %edi	#,
	call	memory_address	#
.L41:
	.loc 1 380 0 is_stmt 1 discriminator 1
	movq	%rax, -24(%rbp)	# iftmp.6, funexp
.L39:
	.loc 1 394 0
	cmpq	$0, -8(%rbp)	#, static_chain_value
	je	.L42	#,
	.loc 1 396 0
	movq	static_chain_rtx(%rip), %rax	# static_chain_rtx, static_chain_rtx.7
	movq	-8(%rbp), %rdx	# static_chain_value, tmp75
	movq	%rdx, %rsi	# tmp75,
	movq	%rax, %rdi	# static_chain_rtx.7,
	call	emit_move_insn	#
	.loc 1 398 0
	movq	static_chain_rtx(%rip), %rax	# static_chain_rtx, static_chain_rtx.8
	movzwl	(%rax), %eax	# static_chain_rtx.8_16->code, D.17427
	cmpw	$61, %ax	#, D.17427
	jne	.L42	#,
	.loc 1 399 0
	movq	static_chain_rtx(%rip), %rdx	# static_chain_rtx, static_chain_rtx.9
	movq	-40(%rbp), %rax	# call_fusage, tmp76
	movq	%rdx, %rsi	# static_chain_rtx.9,
	movq	%rax, %rdi	# tmp76,
	call	use_reg	#
.L42:
	.loc 1 402 0
	movq	-24(%rbp), %rax	# funexp, D.17429
	.loc 1 403 0
	leave
	.cfi_def_cfa 7, 8
	ret
	.cfi_endproc
.LFE4:
	.size	prepare_call_address, .-prepare_call_address
	.section	.rodata
.LC0:
	.string	"calls.c"
	.text
	.type	emit_call_1, @function
emit_call_1:
.LFB5:
	.loc 1 461 0
	.cfi_startproc
	pushq	%rbp	#
	.cfi_def_cfa_offset 16
	.cfi_offset 6, -16
	movq	%rsp, %rbp	#,
	.cfi_def_cfa_register 6
	pushq	%rbx	#
	subq	$120, %rsp	#,
	.cfi_offset 3, -24
	movq	%rdi, -88(%rbp)	# funexp, funexp
	movq	%rsi, -96(%rbp)	# fndecl, fndecl
	movq	%rdx, -104(%rbp)	# funtype, funtype
	movq	%rcx, -112(%rbp)	# stack_size, stack_size
	movq	%r8, -120(%rbp)	# rounded_stack_size, rounded_stack_size
	movq	%r9, -128(%rbp)	# struct_value_size, struct_value_size
	.loc 1 462 0
	movq	-120(%rbp), %rax	# rounded_stack_size, tmp142
	movq	%rax, %rsi	# tmp142,
	movl	$0, %edi	#,
	call	gen_rtx_CONST_INT	#
	movq	%rax, -72(%rbp)	# tmp143, rounded_stack_size_rtx
	.loc 1 464 0
	movl	$0, -76(%rbp)	#, already_popped
	.loc 1 465 0
	movq	-112(%rbp), %rax	# stack_size, tmp144
	movl	%eax, %edx	# tmp144, D.17430
	movq	-104(%rbp), %rcx	# funtype, tmp145
	movq	-96(%rbp), %rax	# fndecl, tmp146
	movq	%rcx, %rsi	# tmp145,
	movq	%rax, %rdi	# tmp146,
	call	ix86_return_pops_args	#
	cltq
	movq	%rax, -40(%rbp)	# tmp147, n_popped
	.loc 1 468 0
	movq	-128(%rbp), %rax	# struct_value_size, tmp148
	movq	%rax, %rsi	# tmp148,
	movl	$0, %edi	#,
	call	gen_rtx_CONST_INT	#
	movq	%rax, -32(%rbp)	# tmp149, struct_value_size_rtx
	.loc 1 478 0
	movq	-88(%rbp), %rax	# funexp, tmp150
	movzwl	(%rax), %eax	# funexp_20(D)->code, D.17431
	cmpw	$68, %ax	#, D.17431
	je	.L45	#,
	.loc 1 479 0
	movq	-88(%rbp), %rax	# funexp, tmp151
	movq	%rax, %rsi	# tmp151,
	movl	$2, %edi	#,
	call	memory_address	#
	movq	%rax, -88(%rbp)	# tmp152, funexp
.L45:
	.loc 1 513 0
	movl	target_flags(%rip), %eax	# target_flags, target_flags.10
	andl	$33554432, %eax	#, D.17430
	testl	%eax, %eax	# D.17430
	jne	.L46	#,
	.loc 1 513 0 is_stmt 0 discriminator 1
	movl	target_flags(%rip), %eax	# target_flags, target_flags.11
	andl	$33554432, %eax	#, D.17430
	testl	%eax, %eax	# D.17430
	jne	.L46	#,
	.loc 1 514 0 is_stmt 1
	cmpq	$0, -40(%rbp)	#, n_popped
	jle	.L46	#,
	.loc 1 514 0 is_stmt 0 discriminator 1
	movl	48(%rbp), %eax	# ecf_flags, tmp153
	andl	$1024, %eax	#, D.17430
	testl	%eax, %eax	# D.17430
	jne	.L46	#,
.LBB4:
	.loc 1 519 0 is_stmt 1
	movq	-40(%rbp), %rax	# n_popped, tmp154
	movq	%rax, %rsi	# tmp154,
	movl	$0, %edi	#,
	call	gen_rtx_CONST_INT	#
	movq	%rax, -24(%rbp)	# tmp155, n_pop
	.loc 1 525 0
	cmpq	$0, 24(%rbp)	#, valreg
	je	.L47	#,
	.loc 1 526 0
	movq	-88(%rbp), %rax	# funexp, tmp156
	movq	%rax, %rsi	# tmp156,
	movl	$2, %edi	#,
	call	gen_rtx_MEM	#
	movq	%rax, %rsi	#, D.17432
	movq	-24(%rbp), %rcx	# n_pop, tmp157
	movq	-72(%rbp), %rdx	# rounded_stack_size_rtx, tmp158
	movq	24(%rbp), %rax	# valreg, tmp159
	movq	%rcx, %r8	# tmp157,
	movq	16(%rbp), %rcx	# next_arg_reg,
	movq	%rax, %rdi	# tmp159,
	call	gen_call_value_pop	#
	movq	%rax, -56(%rbp)	# tmp160, pat
	jmp	.L48	#
.L47:
	.loc 1 530 0
	movq	-88(%rbp), %rax	# funexp, tmp161
	movq	%rax, %rsi	# tmp161,
	movl	$2, %edi	#,
	call	gen_rtx_MEM	#
	movq	-24(%rbp), %rdx	# n_pop, tmp162
	movq	-72(%rbp), %rsi	# rounded_stack_size_rtx, tmp163
	movq	%rdx, %rcx	# tmp162,
	movq	16(%rbp), %rdx	# next_arg_reg,
	movq	%rax, %rdi	# D.17432,
	call	gen_call_pop	#
	movq	%rax, -56(%rbp)	# tmp164, pat
.L48:
	.loc 1 533 0
	movq	-56(%rbp), %rax	# pat, tmp165
	movq	%rax, %rdi	# tmp165,
	call	emit_call_insn	#
	.loc 1 534 0
	movl	$1, -76(%rbp)	#, already_popped
.LBE4:
	.loc 1 518 0
	jmp	.L49	#
.L46:
	.loc 1 559 0
	cmpq	$0, 24(%rbp)	#, valreg
	je	.L50	#,
	.loc 1 560 0
	movq	-88(%rbp), %rax	# funexp, tmp166
	movq	%rax, %rsi	# tmp166,
	movl	$2, %edi	#,
	call	gen_rtx_MEM	#
	movq	%rax, %rsi	#, D.17432
	movq	-72(%rbp), %rdx	# rounded_stack_size_rtx, tmp167
	movq	24(%rbp), %rax	# valreg, tmp168
	movq	16(%rbp), %rcx	# next_arg_reg,
	movq	%rax, %rdi	# tmp168,
	call	gen_call_value	#
	movq	%rax, %rdi	# D.17432,
	call	emit_call_insn	#
	jmp	.L49	#
.L50:
	.loc 1 565 0
	movq	-88(%rbp), %rax	# funexp, tmp169
	movq	%rax, %rsi	# tmp169,
	movl	$2, %edi	#,
	call	gen_rtx_MEM	#
	movq	-72(%rbp), %rcx	# rounded_stack_size_rtx, tmp170
	movq	16(%rbp), %rdx	# next_arg_reg,
	movq	%rcx, %rsi	# tmp170,
	movq	%rax, %rdi	# D.17432,
	call	gen_call	#
	movq	%rax, %rdi	# D.17432,
	call	emit_call_insn	#
.L49:
	.loc 1 574 0
	call	get_last_insn	#
	movq	%rax, -64(%rbp)	# tmp171, call_insn
	jmp	.L52	#
.L54:
	.loc 1 576 0
	movq	-64(%rbp), %rax	# call_insn, tmp172
	movq	16(%rax), %rax	# call_insn_5->fld[1].rtx, tmp173
	movq	%rax, -64(%rbp)	# tmp173, call_insn
.L52:
	.loc 1 574 0 discriminator 1
	cmpq	$0, -64(%rbp)	#, call_insn
	je	.L53	#,
	.loc 1 575 0
	movq	-64(%rbp), %rax	# call_insn, tmp174
	movzwl	(%rax), %eax	# call_insn_5->code, D.17431
	cmpw	$34, %ax	#, D.17431
	jne	.L54	#,
.L53:
	.loc 1 579 0
	cmpq	$0, -64(%rbp)	#, call_insn
	jne	.L55	#,
	.loc 1 580 0
	movl	$__FUNCTION__.12762, %edx	#,
	movl	$580, %esi	#,
	movl	$.LC0, %edi	#,
	call	fancy_abort	#
.L55:
	.loc 1 583 0
	movl	48(%rbp), %eax	# ecf_flags, tmp175
	andl	$512, %eax	#, D.17430
	testl	%eax, %eax	# D.17430
	je	.L56	#,
	.loc 1 585 0
	movl	$0, %esi	#,
	movl	$62, %edi	#,
	call	gen_rtx_fmt_0	#
	movq	%rax, %rsi	# D.17432,
	movl	$51, %edi	#,
	call	gen_rtx_MEM	#
	movq	%rax, %rdx	# D.17432,
	movl	$0, %esi	#,
	movl	$48, %edi	#,
	call	gen_rtx_fmt_e	#
	movq	40(%rbp), %rdx	# call_fusage, tmp176
	movq	%rdx, %rcx	# tmp176,
	movq	%rax, %rdx	# D.17432,
	movl	$0, %esi	#,
	movl	$3, %edi	#,
	call	gen_rtx_fmt_ee	#
	movq	%rax, 40(%rbp)	# tmp177, call_fusage
.L56:
	.loc 1 593 0
	movq	-64(%rbp), %rax	# call_insn, tmp178
	movq	64(%rax), %rax	# call_insn_5->fld[7].rtx, D.17432
	testq	%rax, %rax	# D.17432
	je	.L57	#,
.LBB5:
	.loc 1 597 0
	movq	-64(%rbp), %rax	# call_insn, tmp179
	movq	64(%rax), %rax	# call_insn_5->fld[7].rtx, tmp180
	movq	%rax, -48(%rbp)	# tmp180, link
	jmp	.L58	#
.L59:
	.loc 1 598 0
	movq	-48(%rbp), %rax	# link, tmp181
	movq	16(%rax), %rax	# link_8->fld[1].rtx, tmp182
	movq	%rax, -48(%rbp)	# tmp182, link
.L58:
	.loc 1 597 0 discriminator 1
	movq	-48(%rbp), %rax	# link, tmp183
	movq	16(%rax), %rax	# link_8->fld[1].rtx, D.17432
	testq	%rax, %rax	# D.17432
	jne	.L59	#,
	.loc 1 601 0
	movq	-48(%rbp), %rax	# link, tmp184
	movq	40(%rbp), %rdx	# call_fusage, tmp185
	movq	%rdx, 16(%rax)	# tmp185, link_8->fld[1].rtx
.LBE5:
	jmp	.L60	#
.L57:
	.loc 1 604 0
	movq	-64(%rbp), %rax	# call_insn, tmp186
	movq	40(%rbp), %rdx	# call_fusage, tmp187
	movq	%rdx, 64(%rax)	# tmp187, call_insn_5->fld[7].rtx
.L60:
	.loc 1 607 0
	movl	48(%rbp), %eax	# ecf_flags, tmp188
	andl	$513, %eax	#, D.17430
	testl	%eax, %eax	# D.17430
	je	.L61	#,
	.loc 1 608 0
	movq	-64(%rbp), %rax	# call_insn, tmp189
	movzbl	3(%rax), %edx	# call_insn_5->unchanging, tmp192
	orl	$4, %edx	#, tmp193
	movb	%dl, 3(%rax)	# tmp193, call_insn_5->unchanging
.L61:
	.loc 1 612 0
	movl	48(%rbp), %eax	# ecf_flags, tmp194
	andl	$16, %eax	#, D.17430
	testl	%eax, %eax	# D.17430
	je	.L62	#,
	.loc 1 613 0
	movq	-64(%rbp), %rax	# call_insn, tmp195
	movq	56(%rax), %rdx	# call_insn_5->fld[6].rtx, D.17432
	movq	const_int_rtx+512(%rip), %rax	# const_int_rtx, D.17432
	movq	%rdx, %rcx	# D.17432,
	movq	%rax, %rdx	# D.17432,
	movl	$23, %esi	#,
	movl	$3, %edi	#,
	call	gen_rtx_fmt_ee	#
	movq	-64(%rbp), %rdx	# call_insn, tmp196
	movq	%rax, 56(%rdx)	# D.17432, call_insn_5->fld[6].rtx
.L62:
	.loc 1 616 0
	movl	48(%rbp), %eax	# ecf_flags, tmp197
	andl	$2, %eax	#, D.17430
	testl	%eax, %eax	# D.17430
	je	.L63	#,
	.loc 1 617 0
	movq	-64(%rbp), %rax	# call_insn, tmp198
	movq	56(%rax), %rdx	# call_insn_5->fld[6].rtx, D.17432
	movq	const_int_rtx+512(%rip), %rax	# const_int_rtx, D.17432
	movq	%rdx, %rcx	# D.17432,
	movq	%rax, %rdx	# D.17432,
	movl	$26, %esi	#,
	movl	$3, %edi	#,
	call	gen_rtx_fmt_ee	#
	movq	-64(%rbp), %rdx	# call_insn, tmp199
	movq	%rax, 56(%rdx)	# D.17432, call_insn_5->fld[6].rtx
.L63:
	.loc 1 619 0
	movl	48(%rbp), %eax	# ecf_flags, tmp200
	andl	$2048, %eax	#, D.17430
	testl	%eax, %eax	# D.17430
	je	.L64	#,
	.loc 1 620 0
	movq	-64(%rbp), %rax	# call_insn, tmp201
	movq	56(%rax), %rdx	# call_insn_5->fld[6].rtx, D.17432
	movq	const_int_rtx+512(%rip), %rax	# const_int_rtx, D.17432
	movq	%rdx, %rcx	# D.17432,
	movq	%rax, %rdx	# D.17432,
	movl	$29, %esi	#,
	movl	$3, %edi	#,
	call	gen_rtx_fmt_ee	#
	movq	-64(%rbp), %rdx	# call_insn, tmp202
	movq	%rax, 56(%rdx)	# D.17432, call_insn_5->fld[6].rtx
.L64:
	.loc 1 623 0
	movl	48(%rbp), %eax	# ecf_flags, tmp203
	andl	$32, %eax	#, D.17430
	testl	%eax, %eax	# D.17430
	je	.L65	#,
	.loc 1 625 0
	movq	-64(%rbp), %rax	# call_insn, tmp204
	movq	56(%rax), %rdx	# call_insn_5->fld[6].rtx, D.17432
	movq	const_int_rtx+512(%rip), %rax	# const_int_rtx, D.17432
	movq	%rdx, %rcx	# D.17432,
	movq	%rax, %rdx	# D.17432,
	movl	$28, %esi	#,
	movl	$3, %edi	#,
	call	gen_rtx_fmt_ee	#
	movq	-64(%rbp), %rdx	# call_insn, tmp205
	movq	%rax, 56(%rdx)	# D.17432, call_insn_5->fld[6].rtx
	.loc 1 627 0
	movq	cfun(%rip), %rax	# cfun, cfun.12
	movzbl	424(%rax), %edx	# cfun.12_71->calls_setjmp, tmp208
	orl	$16, %edx	#, tmp209
	movb	%dl, 424(%rax)	# tmp209, cfun.12_71->calls_setjmp
.L65:
	.loc 1 630 0
	movl	48(%rbp), %eax	# ecf_flags, tmp210
	andl	$256, %eax	#, D.17430
	testl	%eax, %eax	# D.17430
	setne	%dl	#, D.17433
	movq	-64(%rbp), %rax	# call_insn, tmp211
	movl	%edx, %ecx	# D.17433, tmp213
	andl	$1, %ecx	#, tmp213
	movzbl	3(%rax), %edx	# call_insn_5->jump, tmp214
	andl	$-2, %edx	#, tmp215
	orl	%ecx, %edx	# tmp213, tmp216
	movb	%dl, 3(%rax)	# tmp216, call_insn_5->jump
	.loc 1 634 0
	movq	cfun(%rip), %rax	# cfun, cfun.13
	movq	16(%rax), %rax	# cfun.13_74->expr, D.17434
	movl	32(%rbp), %edx	# old_inhibit_defer_pop, tmp217
	movl	%edx, 4(%rax)	# tmp217, _75->x_inhibit_defer_pop
	.loc 1 636 0
	cmpq	$0, -40(%rbp)	#, n_popped
	jle	.L66	#,
	.loc 1 638 0
	cmpl	$0, -76(%rbp)	#, already_popped
	jne	.L67	#,
	.loc 1 640 0
	movq	-64(%rbp), %rax	# call_insn, tmp218
	movq	64(%rax), %rbx	# call_insn_5->fld[7].rtx, D.17432
	movq	global_rtl+16(%rip), %rax	# global_rtl, D.17432
	movq	%rax, %rdx	# D.17432,
	movl	$0, %esi	#,
	movl	$49, %edi	#,
	call	gen_rtx_fmt_e	#
	movq	%rbx, %rcx	# D.17432,
	movq	%rax, %rdx	# D.17432,
	movl	$0, %esi	#,
	movl	$3, %edi	#,
	call	gen_rtx_fmt_ee	#
	movq	-64(%rbp), %rdx	# call_insn, tmp219
	movq	%rax, 64(%rdx)	# D.17432, call_insn_5->fld[7].rtx
.L67:
	.loc 1 643 0
	movq	-40(%rbp), %rax	# n_popped, tmp220
	subq	%rax, -120(%rbp)	# tmp220, rounded_stack_size
	.loc 1 644 0
	movq	-120(%rbp), %rax	# rounded_stack_size, tmp221
	movq	%rax, %rsi	# tmp221,
	movl	$0, %edi	#,
	call	gen_rtx_CONST_INT	#
	movq	%rax, -72(%rbp)	# tmp222, rounded_stack_size_rtx
	.loc 1 645 0
	movq	cfun(%rip), %rax	# cfun, cfun.14
	movq	16(%rax), %rax	# cfun.14_83->expr, D.17434
	movq	cfun(%rip), %rdx	# cfun, cfun.15
	movq	16(%rdx), %rdx	# cfun.15_85->expr, D.17434
	movl	8(%rdx), %edx	# _86->x_stack_pointer_delta, D.17430
	movl	%edx, %ecx	# D.17430, D.17435
	movq	-40(%rbp), %rdx	# n_popped, tmp223
	subl	%edx, %ecx	# D.17435, D.17435
	movl	%ecx, %edx	# D.17435, D.17435
	movl	%edx, 8(%rax)	# D.17430, _84->x_stack_pointer_delta
.L66:
	.loc 1 648 0
	movl	target_flags(%rip), %eax	# target_flags, target_flags.16
	andl	$4096, %eax	#, D.17430
	testl	%eax, %eax	# D.17430
	jne	.L68	#,
	.loc 1 657 0
	cmpq	$0, -120(%rbp)	#, rounded_stack_size
	je	.L44	#,
	.loc 1 659 0
	movl	48(%rbp), %eax	# ecf_flags, tmp224
	andl	$1024, %eax	#, D.17430
	testl	%eax, %eax	# D.17430
	je	.L70	#,
	.loc 1 661 0
	movq	cfun(%rip), %rax	# cfun, cfun.17
	movq	16(%rax), %rax	# cfun.17_95->expr, D.17434
	movq	cfun(%rip), %rdx	# cfun, cfun.18
	movq	16(%rdx), %rdx	# cfun.18_97->expr, D.17434
	movl	8(%rdx), %edx	# _98->x_stack_pointer_delta, D.17430
	movl	%edx, %ecx	# D.17430, D.17435
	movq	-120(%rbp), %rdx	# rounded_stack_size, tmp225
	subl	%edx, %ecx	# D.17435, D.17435
	movl	%ecx, %edx	# D.17435, D.17435
	movl	%edx, 8(%rax)	# D.17430, _96->x_stack_pointer_delta
	jmp	.L44	#
.L70:
	.loc 1 662 0
	movl	flag_defer_pop(%rip), %eax	# flag_defer_pop, flag_defer_pop.19
	testl	%eax, %eax	# flag_defer_pop.19
	je	.L71	#,
	.loc 1 662 0 is_stmt 0 discriminator 1
	movq	cfun(%rip), %rax	# cfun, cfun.20
	movq	16(%rax), %rax	# cfun.20_105->expr, D.17434
	movl	4(%rax), %eax	# _106->x_inhibit_defer_pop, D.17430
	testl	%eax, %eax	# D.17430
	jne	.L71	#,
	.loc 1 663 0 is_stmt 1
	movl	48(%rbp), %eax	# ecf_flags, tmp226
	andl	$513, %eax	#, D.17430
	testl	%eax, %eax	# D.17430
	jne	.L71	#,
	.loc 1 664 0
	movq	cfun(%rip), %rax	# cfun, cfun.21
	movq	16(%rax), %rax	# cfun.21_109->expr, D.17434
	movq	cfun(%rip), %rdx	# cfun, cfun.22
	movq	16(%rdx), %rdx	# cfun.22_111->expr, D.17434
	movl	(%rdx), %edx	# _112->x_pending_stack_adjust, D.17430
	movl	%edx, %ecx	# D.17430, D.17435
	movq	-120(%rbp), %rdx	# rounded_stack_size, tmp227
	addl	%ecx, %edx	# D.17435, D.17435
	movl	%edx, (%rax)	# D.17430, _110->x_pending_stack_adjust
	jmp	.L44	#
.L71:
	.loc 1 666 0
	movq	-72(%rbp), %rax	# rounded_stack_size_rtx, tmp228
	movq	%rax, %rdi	# tmp228,
	call	adjust_stack	#
	jmp	.L44	#
.L68:
	.loc 1 680 0
	cmpq	$0, -40(%rbp)	#, n_popped
	je	.L44	#,
	.loc 1 681 0
	movq	-40(%rbp), %rax	# n_popped, tmp229
	movq	%rax, %rsi	# tmp229,
	movl	$0, %edi	#,
	call	gen_rtx_CONST_INT	#
	movq	%rax, %rdi	# D.17432,
	call	anti_adjust_stack	#
.L44:
	.loc 1 682 0
	addq	$120, %rsp	#,
	popq	%rbx	#
	popq	%rbp	#
	.cfi_def_cfa 7, 8
	ret
	.cfi_endproc
.LFE5:
	.size	emit_call_1, .-emit_call_1
	.section	.rodata
.LC1:
	.string	"alloca"
.LC2:
	.string	"__builtin_alloca"
.LC3:
	.string	"setjmp"
.LC4:
	.string	"setjmp_syscall"
.LC5:
	.string	"sigsetjmp"
.LC6:
	.string	"savectx"
.LC7:
	.string	"siglongjmp"
.LC8:
	.string	"qsetjmp"
.LC9:
	.string	"vfork"
.LC10:
	.string	"longjmp"
.LC11:
	.string	"fork"
.LC12:
	.string	"clone"
.LC13:
	.string	"malloc"
.LC14:
	.string	"calloc"
.LC15:
	.string	"strdup"
	.text
	.type	special_function_p, @function
special_function_p:
.LFB6:
	.loc 1 702 0
	.cfi_startproc
	pushq	%rbp	#
	.cfi_def_cfa_offset 16
	.cfi_offset 6, -16
	movq	%rsp, %rbp	#,
	.cfi_def_cfa_register 6
	subq	$32, %rsp	#,
	movq	%rdi, -24(%rbp)	# fndecl, fndecl
	movl	%esi, -28(%rbp)	# flags, flags
	.loc 1 703 0
	movl	-28(%rbp), %eax	# flags, tmp147
	andl	$4, %eax	#, D.17437
	testl	%eax, %eax	# D.17437
	jne	.L74	#,
	.loc 1 704 0
	cmpq	$0, -24(%rbp)	#, fndecl
	je	.L74	#,
	.loc 1 704 0 is_stmt 0 discriminator 1
	movq	-24(%rbp), %rax	# fndecl, tmp148
	movq	72(%rax), %rax	# fndecl_9(D)->decl.name, D.17438
	testq	%rax, %rax	# D.17438
	je	.L74	#,
	.loc 1 705 0 is_stmt 1
	movq	-24(%rbp), %rax	# fndecl, tmp149
	movq	72(%rax), %rax	# fndecl_9(D)->decl.name, D.17438
	movl	24(%rax), %eax	# _11->identifier.id.len, D.17439
	cmpl	$17, %eax	#, D.17439
	ja	.L74	#,
	.loc 1 709 0
	movq	-24(%rbp), %rax	# fndecl, tmp150
	movq	80(%rax), %rax	# fndecl_9(D)->decl.context, D.17438
	testq	%rax, %rax	# D.17438
	jne	.L74	#,
	.loc 1 709 0 is_stmt 0 discriminator 1
	movq	-24(%rbp), %rax	# fndecl, tmp151
	movzbl	18(%rax), %eax	# *fndecl_9(D), D.17440
	andl	$8, %eax	#, D.17440
	testb	%al, %al	# D.17440
	je	.L74	#,
.LBB6:
	.loc 1 711 0 is_stmt 1
	movq	-24(%rbp), %rax	# fndecl, tmp152
	movq	72(%rax), %rax	# fndecl_9(D)->decl.name, D.17438
	movq	32(%rax), %rax	# _16->identifier.id.str, tmp153
	movq	%rax, -8(%rbp)	# tmp153, name
	.loc 1 712 0
	movq	-8(%rbp), %rax	# name, tmp154
	movq	%rax, -16(%rbp)	# tmp154, tname
	.loc 1 717 0
	movq	-24(%rbp), %rax	# fndecl, tmp155
	movq	72(%rax), %rax	# fndecl_9(D)->decl.name, D.17438
	movl	24(%rax), %eax	# _19->identifier.id.len, D.17439
	cmpl	$6, %eax	#, D.17439
	jne	.L75	#,
	.loc 1 718 0
	movq	-8(%rbp), %rax	# name, tmp156
	movzbl	(%rax), %eax	# *name_17, D.17441
	cmpb	$97, %al	#, D.17441
	jne	.L75	#,
	.loc 1 719 0
	movq	-8(%rbp), %rax	# name, tmp157
	movl	$.LC1, %esi	#,
	movq	%rax, %rdi	# tmp157,
	call	strcmp	#
	testl	%eax, %eax	# D.17437
	je	.L76	#,
.L75:
	.loc 1 720 0
	movq	-24(%rbp), %rax	# fndecl, tmp158
	movq	72(%rax), %rax	# fndecl_9(D)->decl.name, D.17438
	movl	24(%rax), %eax	# _23->identifier.id.len, D.17439
	cmpl	$16, %eax	#, D.17439
	jne	.L77	#,
	.loc 1 721 0
	movq	-8(%rbp), %rax	# name, tmp159
	movzbl	(%rax), %eax	# *name_17, D.17441
	cmpb	$95, %al	#, D.17441
	jne	.L77	#,
	.loc 1 722 0
	movq	-8(%rbp), %rax	# name, tmp160
	movl	$.LC2, %esi	#,
	movq	%rax, %rdi	# tmp160,
	call	strcmp	#
	testl	%eax, %eax	# D.17437
	jne	.L77	#,
.L76:
	.loc 1 723 0
	orl	$8, -28(%rbp)	#, flags
.L77:
	.loc 1 726 0
	movq	-8(%rbp), %rax	# name, tmp161
	movzbl	(%rax), %eax	# *name_17, D.17441
	cmpb	$95, %al	#, D.17441
	jne	.L78	#,
	.loc 1 728 0
	movq	-8(%rbp), %rax	# name, tmp162
	addq	$1, %rax	#, D.17442
	movzbl	(%rax), %eax	# *_29, D.17441
	cmpb	$95, %al	#, D.17441
	jne	.L79	#,
	.loc 1 728 0 is_stmt 0 discriminator 1
	movq	-8(%rbp), %rax	# name, tmp163
	addq	$2, %rax	#, D.17442
	movzbl	(%rax), %eax	# *_31, D.17441
	cmpb	$120, %al	#, D.17441
	jne	.L79	#,
	.loc 1 729 0 is_stmt 1
	addq	$3, -16(%rbp)	#, tname
	jmp	.L78	#
.L79:
	.loc 1 730 0
	movq	-8(%rbp), %rax	# name, tmp164
	addq	$1, %rax	#, D.17442
	movzbl	(%rax), %eax	# *_34, D.17441
	cmpb	$95, %al	#, D.17441
	jne	.L80	#,
	.loc 1 731 0
	addq	$2, -16(%rbp)	#, tname
	jmp	.L78	#
.L80:
	.loc 1 733 0
	addq	$1, -16(%rbp)	#, tname
.L78:
	.loc 1 736 0
	movq	-16(%rbp), %rax	# tname, tmp165
	movzbl	(%rax), %eax	# *tname_5, D.17441
	cmpb	$115, %al	#, D.17441
	jne	.L81	#,
	.loc 1 738 0
	movq	-16(%rbp), %rax	# tname, tmp166
	addq	$1, %rax	#, D.17442
	movzbl	(%rax), %eax	# *_39, D.17441
	cmpb	$101, %al	#, D.17441
	jne	.L82	#,
	.loc 1 739 0
	movq	-16(%rbp), %rax	# tname, tmp167
	movl	$.LC3, %esi	#,
	movq	%rax, %rdi	# tmp167,
	call	strcmp	#
	testl	%eax, %eax	# D.17437
	je	.L83	#,
	.loc 1 740 0
	movq	-16(%rbp), %rax	# tname, tmp168
	movl	$.LC4, %esi	#,
	movq	%rax, %rdi	# tmp168,
	call	strcmp	#
	testl	%eax, %eax	# D.17437
	je	.L83	#,
.L82:
	.loc 1 741 0
	movq	-16(%rbp), %rax	# tname, tmp169
	addq	$1, %rax	#, D.17442
	movzbl	(%rax), %eax	# *_43, D.17441
	cmpb	$105, %al	#, D.17441
	jne	.L84	#,
	.loc 1 742 0
	movq	-16(%rbp), %rax	# tname, tmp170
	movl	$.LC5, %esi	#,
	movq	%rax, %rdi	# tmp170,
	call	strcmp	#
	testl	%eax, %eax	# D.17437
	je	.L83	#,
.L84:
	.loc 1 743 0
	movq	-16(%rbp), %rax	# tname, tmp171
	addq	$1, %rax	#, D.17442
	movzbl	(%rax), %eax	# *_46, D.17441
	cmpb	$97, %al	#, D.17441
	jne	.L85	#,
	.loc 1 744 0
	movq	-16(%rbp), %rax	# tname, tmp172
	movl	$.LC6, %esi	#,
	movq	%rax, %rdi	# tmp172,
	call	strcmp	#
	testl	%eax, %eax	# D.17437
	jne	.L85	#,
.L83:
	.loc 1 745 0
	orl	$32, -28(%rbp)	#, flags
.L85:
	.loc 1 747 0
	movq	-16(%rbp), %rax	# tname, tmp173
	addq	$1, %rax	#, D.17442
	movzbl	(%rax), %eax	# *_50, D.17441
	cmpb	$105, %al	#, D.17441
	jne	.L74	#,
	.loc 1 748 0
	movq	-16(%rbp), %rax	# tname, tmp174
	movl	$.LC7, %esi	#,
	movq	%rax, %rdi	# tmp174,
	call	strcmp	#
	testl	%eax, %eax	# D.17437
	jne	.L74	#,
	.loc 1 749 0
	orl	$64, -28(%rbp)	#, flags
	jmp	.L74	#
.L81:
	.loc 1 751 0
	movq	-16(%rbp), %rax	# tname, tmp175
	movzbl	(%rax), %eax	# *tname_5, D.17441
	cmpb	$113, %al	#, D.17441
	jne	.L87	#,
	.loc 1 751 0 is_stmt 0 discriminator 1
	movq	-16(%rbp), %rax	# tname, tmp176
	addq	$1, %rax	#, D.17442
	movzbl	(%rax), %eax	# *_55, D.17441
	cmpb	$115, %al	#, D.17441
	jne	.L87	#,
	.loc 1 752 0 is_stmt 1
	movq	-16(%rbp), %rax	# tname, tmp177
	movl	$.LC8, %esi	#,
	movq	%rax, %rdi	# tmp177,
	call	strcmp	#
	testl	%eax, %eax	# D.17437
	je	.L88	#,
.L87:
	.loc 1 753 0
	movq	-16(%rbp), %rax	# tname, tmp178
	movzbl	(%rax), %eax	# *tname_5, D.17441
	cmpb	$118, %al	#, D.17441
	jne	.L89	#,
	.loc 1 753 0 is_stmt 0 discriminator 1
	movq	-16(%rbp), %rax	# tname, tmp179
	addq	$1, %rax	#, D.17442
	movzbl	(%rax), %eax	# *_59, D.17441
	cmpb	$102, %al	#, D.17441
	jne	.L89	#,
	.loc 1 754 0 is_stmt 1
	movq	-16(%rbp), %rax	# tname, tmp180
	movl	$.LC9, %esi	#,
	movq	%rax, %rdi	# tmp180,
	call	strcmp	#
	testl	%eax, %eax	# D.17437
	jne	.L89	#,
.L88:
	.loc 1 755 0
	orl	$32, -28(%rbp)	#, flags
	jmp	.L74	#
.L89:
	.loc 1 757 0
	movq	-16(%rbp), %rax	# tname, tmp181
	movzbl	(%rax), %eax	# *tname_5, D.17441
	cmpb	$108, %al	#, D.17441
	jne	.L90	#,
	.loc 1 757 0 is_stmt 0 discriminator 1
	movq	-16(%rbp), %rax	# tname, tmp182
	addq	$1, %rax	#, D.17442
	movzbl	(%rax), %eax	# *_63, D.17441
	cmpb	$111, %al	#, D.17441
	jne	.L90	#,
	.loc 1 758 0 is_stmt 1
	movq	-16(%rbp), %rax	# tname, tmp183
	movl	$.LC10, %esi	#,
	movq	%rax, %rdi	# tmp183,
	call	strcmp	#
	testl	%eax, %eax	# D.17437
	jne	.L90	#,
	.loc 1 759 0
	orl	$64, -28(%rbp)	#, flags
	jmp	.L74	#
.L90:
	.loc 1 761 0
	movq	-16(%rbp), %rax	# tname, tmp184
	movzbl	(%rax), %eax	# *tname_5, D.17441
	cmpb	$102, %al	#, D.17441
	jne	.L91	#,
	.loc 1 761 0 is_stmt 0 discriminator 1
	movq	-16(%rbp), %rax	# tname, tmp185
	addq	$1, %rax	#, D.17442
	movzbl	(%rax), %eax	# *_68, D.17441
	cmpb	$111, %al	#, D.17441
	jne	.L91	#,
	.loc 1 762 0 is_stmt 1
	movq	-16(%rbp), %rax	# tname, tmp186
	movl	$.LC11, %esi	#,
	movq	%rax, %rdi	# tmp186,
	call	strcmp	#
	testl	%eax, %eax	# D.17437
	je	.L92	#,
.L91:
	.loc 1 766 0
	movq	-8(%rbp), %rax	# name, tmp187
	movzbl	(%rax), %eax	# *name_17, D.17441
	cmpb	$95, %al	#, D.17441
	jne	.L93	#,
	.loc 1 766 0 is_stmt 0 discriminator 1
	movq	-8(%rbp), %rax	# name, tmp188
	addq	$1, %rax	#, D.17442
	movzbl	(%rax), %eax	# *_72, D.17441
	cmpb	$95, %al	#, D.17441
	jne	.L93	#,
	.loc 1 767 0 is_stmt 1
	movq	-16(%rbp), %rax	# tname, tmp189
	movl	$.LC12, %esi	#,
	movq	%rax, %rdi	# tmp189,
	call	strcmp	#
	testl	%eax, %eax	# D.17437
	je	.L92	#,
.L93:
	.loc 1 768 0
	movq	-16(%rbp), %rax	# tname, tmp190
	movzbl	(%rax), %eax	# *tname_5, D.17441
	cmpb	$101, %al	#, D.17441
	jne	.L94	#,
	.loc 1 768 0 is_stmt 0 discriminator 1
	movq	-16(%rbp), %rax	# tname, tmp191
	addq	$1, %rax	#, D.17442
	movzbl	(%rax), %eax	# *_76, D.17441
	cmpb	$120, %al	#, D.17441
	jne	.L94	#,
	movq	-16(%rbp), %rax	# tname, tmp192
	addq	$2, %rax	#, D.17442
	movzbl	(%rax), %eax	# *_78, D.17441
	cmpb	$101, %al	#, D.17441
	jne	.L94	#,
	.loc 1 769 0 is_stmt 1
	movq	-16(%rbp), %rax	# tname, tmp193
	addq	$3, %rax	#, D.17442
	movzbl	(%rax), %eax	# *_80, D.17441
	cmpb	$99, %al	#, D.17441
	jne	.L94	#,
	.loc 1 769 0 is_stmt 0 discriminator 1
	movq	-16(%rbp), %rax	# tname, tmp194
	addq	$4, %rax	#, D.17442
	movzbl	(%rax), %eax	# *_82, D.17441
	cmpb	$108, %al	#, D.17441
	je	.L95	#,
	movq	-16(%rbp), %rax	# tname, tmp195
	addq	$4, %rax	#, D.17442
	movzbl	(%rax), %eax	# *_84, D.17441
	cmpb	$118, %al	#, D.17441
	jne	.L94	#,
.L95:
	.loc 1 770 0 is_stmt 1
	movq	-16(%rbp), %rax	# tname, tmp196
	addq	$5, %rax	#, D.17442
	movzbl	(%rax), %eax	# *_86, D.17441
	testb	%al, %al	# D.17441
	je	.L92	#,
	.loc 1 771 0
	movq	-16(%rbp), %rax	# tname, tmp197
	addq	$5, %rax	#, D.17442
	movzbl	(%rax), %eax	# *_88, D.17441
	cmpb	$112, %al	#, D.17441
	je	.L96	#,
	.loc 1 771 0 is_stmt 0 discriminator 1
	movq	-16(%rbp), %rax	# tname, tmp198
	addq	$5, %rax	#, D.17442
	movzbl	(%rax), %eax	# *_90, D.17441
	cmpb	$101, %al	#, D.17441
	jne	.L94	#,
.L96:
	.loc 1 772 0 is_stmt 1
	movq	-16(%rbp), %rax	# tname, tmp199
	addq	$6, %rax	#, D.17442
	movzbl	(%rax), %eax	# *_92, D.17441
	testb	%al, %al	# D.17441
	jne	.L94	#,
.L92:
	.loc 1 773 0
	orl	$128, -28(%rbp)	#, flags
	jmp	.L74	#
.L94:
	.loc 1 782 0
	movq	-24(%rbp), %rax	# fndecl, tmp200
	movq	8(%rax), %rax	# fndecl_9(D)->common.type, D.17438
	movq	8(%rax), %rax	# _94->common.type, D.17438
	movzbl	61(%rax), %eax	# *_95, tmp203
	shrb	%al	# D.17443
	movzbl	%al, %edx	# D.17443, D.17437
	movl	target_flags(%rip), %eax	# target_flags, target_flags.24
	andl	$33554432, %eax	#, D.17437
	testl	%eax, %eax	# D.17437
	je	.L97	#,
	.loc 1 782 0 is_stmt 0 discriminator 1
	movl	$5, %eax	#, iftmp.23
	jmp	.L98	#
.L97:
	.loc 1 782 0 discriminator 2
	movl	$4, %eax	#, iftmp.23
.L98:
	.loc 1 782 0 discriminator 3
	cmpl	%eax, %edx	# iftmp.23, D.17437
	jne	.L74	#,
	.loc 1 783 0 is_stmt 1
	movq	-16(%rbp), %rax	# tname, tmp204
	movl	$.LC13, %esi	#,
	movq	%rax, %rdi	# tmp204,
	call	strcmp	#
	testl	%eax, %eax	# D.17437
	je	.L99	#,
	.loc 1 784 0
	movq	-16(%rbp), %rax	# tname, tmp205
	movl	$.LC14, %esi	#,
	movq	%rax, %rdi	# tmp205,
	call	strcmp	#
	testl	%eax, %eax	# D.17437
	je	.L99	#,
	.loc 1 785 0
	movq	-16(%rbp), %rax	# tname, tmp206
	movl	$.LC15, %esi	#,
	movq	%rax, %rdi	# tmp206,
	call	strcmp	#
	testl	%eax, %eax	# D.17437
	jne	.L74	#,
.L99:
	.loc 1 786 0
	orl	$4, -28(%rbp)	#, flags
.L74:
.LBE6:
	.loc 1 788 0
	movl	-28(%rbp), %eax	# flags, D.17437
	.loc 1 789 0
	leave
	.cfi_def_cfa 7, 8
	ret
	.cfi_endproc
.LFE6:
	.size	special_function_p, .-special_function_p
	.globl	setjmp_call_p
	.type	setjmp_call_p, @function
setjmp_call_p:
.LFB7:
	.loc 1 796 0
	.cfi_startproc
	pushq	%rbp	#
	.cfi_def_cfa_offset 16
	.cfi_offset 6, -16
	movq	%rsp, %rbp	#,
	.cfi_def_cfa_register 6
	subq	$16, %rsp	#,
	movq	%rdi, -8(%rbp)	# fndecl, fndecl
	.loc 1 797 0
	movq	-8(%rbp), %rax	# fndecl, tmp62
	movl	$0, %esi	#,
	movq	%rax, %rdi	# tmp62,
	call	special_function_p	#
	andl	$32, %eax	#, D.17459
	.loc 1 798 0
	leave
	.cfi_def_cfa 7, 8
	ret
	.cfi_endproc
.LFE7:
	.size	setjmp_call_p, .-setjmp_call_p
	.type	flags_from_decl_or_type, @function
flags_from_decl_or_type:
.LFB8:
	.loc 1 805 0
	.cfi_startproc
	pushq	%rbp	#
	.cfi_def_cfa_offset 16
	.cfi_offset 6, -16
	movq	%rsp, %rbp	#,
	.cfi_def_cfa_register 6
	movq	%rdi, -24(%rbp)	# exp, exp
	.loc 1 806 0
	movl	$0, -12(%rbp)	#, flags
	.loc 1 807 0
	movq	-24(%rbp), %rax	# exp, tmp85
	movq	%rax, -8(%rbp)	# tmp85, type
	.loc 1 809 0
	movq	-24(%rbp), %rax	# exp, tmp86
	movzbl	16(%rax), %eax	# exp_9(D)->common.code, D.17460
	movzbl	%al, %eax	# D.17460, D.17461
	cltq
	movzbl	tree_code_type(%rax), %eax	# tree_code_type, D.17462
	cmpb	$100, %al	#, D.17462
	jne	.L104	#,
	.loc 1 811 0
	movq	-24(%rbp), %rax	# exp, tmp88
	movq	8(%rax), %rax	# exp_9(D)->common.type, tmp89
	movq	%rax, -8(%rbp)	# tmp89, type
	.loc 1 814 0
	movq	-24(%rbp), %rax	# exp, tmp90
	movzbl	16(%rax), %eax	# exp_9(D)->common.code, D.17460
	movzbl	%al, %eax	# D.17460, D.17461
	cltq
	movzbl	tree_code_type(%rax), %eax	# tree_code_type, D.17462
	cmpb	$100, %al	#, D.17462
	jne	.L105	#,
	.loc 1 814 0 is_stmt 0 discriminator 1
	movq	-24(%rbp), %rax	# exp, tmp92
	movzbl	51(%rax), %eax	# *exp_9(D), D.17460
	andl	$8, %eax	#, D.17460
	testb	%al, %al	# D.17460
	je	.L105	#,
	.loc 1 815 0 is_stmt 1
	orl	$4, -12(%rbp)	#, flags
.L105:
	.loc 1 818 0
	movq	-24(%rbp), %rax	# exp, tmp93
	movzbl	16(%rax), %eax	# exp_9(D)->common.code, D.17460
	movzbl	%al, %eax	# D.17460, D.17461
	cltq
	movzbl	tree_code_type(%rax), %eax	# tree_code_type, D.17462
	cmpb	$100, %al	#, D.17462
	jne	.L106	#,
	.loc 1 818 0 is_stmt 0 discriminator 1
	movq	-24(%rbp), %rax	# exp, tmp95
	movzbl	51(%rax), %eax	# *exp_9(D), D.17460
	andl	$-128, %eax	#, D.17460
	testb	%al, %al	# D.17460
	je	.L106	#,
	.loc 1 819 0 is_stmt 1
	orl	$4608, -12(%rbp)	#, flags
.L106:
	.loc 1 821 0
	movq	-24(%rbp), %rax	# exp, tmp96
	movzbl	18(%rax), %eax	# *exp_9(D), D.17460
	andl	$2, %eax	#, D.17460
	testb	%al, %al	# D.17460
	je	.L104	#,
	.loc 1 822 0
	orl	$16, -12(%rbp)	#, flags
.L104:
	.loc 1 825 0
	movq	-24(%rbp), %rax	# exp, tmp97
	movzbl	17(%rax), %eax	# *exp_9(D), D.17460
	andl	$16, %eax	#, D.17460
	testb	%al, %al	# D.17460
	je	.L107	#,
	.loc 1 825 0 is_stmt 0 discriminator 1
	movq	-24(%rbp), %rax	# exp, tmp98
	movzbl	17(%rax), %eax	# *exp_9(D), D.17460
	andl	$8, %eax	#, D.17460
	testb	%al, %al	# D.17460
	jne	.L107	#,
	.loc 1 826 0 is_stmt 1
	orl	$4097, -12(%rbp)	#, flags
.L107:
	.loc 1 828 0
	movq	-24(%rbp), %rax	# exp, tmp99
	movzbl	17(%rax), %eax	# *exp_9(D), D.17460
	andl	$8, %eax	#, D.17460
	testb	%al, %al	# D.17460
	je	.L108	#,
	.loc 1 829 0
	orl	$2, -12(%rbp)	#, flags
.L108:
	.loc 1 833 0
	movq	-8(%rbp), %rax	# type, tmp100
	movzbl	16(%rax), %eax	# type_7->common.code, D.17460
	cmpb	$23, %al	#, D.17460
	jne	.L109	#,
	.loc 1 833 0 is_stmt 0 discriminator 1
	movq	-8(%rbp), %rax	# type, tmp101
	movzbl	62(%rax), %eax	# *type_7, D.17460
	andl	$2, %eax	#, D.17460
	testb	%al, %al	# D.17460
	je	.L109	#,
	.loc 1 835 0 is_stmt 1
	orl	$1024, -12(%rbp)	#, flags
	.loc 1 836 0
	andl	$-4610, -12(%rbp)	#, flags
.L109:
	.loc 1 839 0
	movl	-12(%rbp), %eax	# flags, D.17461
	.loc 1 840 0
	popq	%rbp	#
	.cfi_def_cfa 7, 8
	ret
	.cfi_endproc
.LFE8:
	.size	flags_from_decl_or_type, .-flags_from_decl_or_type
	.type	precompute_register_parameters, @function
precompute_register_parameters:
.LFB9:
	.loc 1 854 0
	.cfi_startproc
	pushq	%rbp	#
	.cfi_def_cfa_offset 16
	.cfi_offset 6, -16
	movq	%rsp, %rbp	#,
	.cfi_def_cfa_register 6
	pushq	%rbx	#
	subq	$56, %rsp	#,
	.cfi_offset 3, -24
	movl	%edi, -36(%rbp)	# num_actuals, num_actuals
	movq	%rsi, -48(%rbp)	# args, args
	movq	%rdx, -56(%rbp)	# reg_parm_seen, reg_parm_seen
	.loc 1 857 0
	movq	-56(%rbp), %rax	# reg_parm_seen, tmp156
	movl	$0, (%rax)	#, *reg_parm_seen_2(D)
	.loc 1 859 0
	movl	$0, -20(%rbp)	#, i
	jmp	.L112	#
.L118:
	.loc 1 860 0
	movl	-20(%rbp), %eax	# i, tmp157
	movslq	%eax, %rdx	# tmp157, D.17463
	movq	%rdx, %rax	# D.17463, tmp158
	salq	$2, %rax	#, tmp158
	addq	%rdx, %rax	# D.17463, tmp158
	salq	$2, %rax	#, tmp158
	addq	%rdx, %rax	# D.17463, tmp158
	salq	$3, %rax	#, tmp159
	movq	%rax, %rdx	# tmp158, D.17463
	movq	-48(%rbp), %rax	# args, tmp160
	addq	%rdx, %rax	# D.17463, D.17464
	movq	32(%rax), %rax	# _8->reg, D.17465
	testq	%rax, %rax	# D.17465
	je	.L113	#,
	.loc 1 860 0 is_stmt 0 discriminator 1
	movl	-20(%rbp), %eax	# i, tmp161
	movslq	%eax, %rdx	# tmp161, D.17463
	movq	%rdx, %rax	# D.17463, tmp162
	salq	$2, %rax	#, tmp162
	addq	%rdx, %rax	# D.17463, tmp162
	salq	$2, %rax	#, tmp162
	addq	%rdx, %rax	# D.17463, tmp162
	salq	$3, %rax	#, tmp163
	movq	%rax, %rdx	# tmp162, D.17463
	movq	-48(%rbp), %rax	# args, tmp164
	addq	%rdx, %rax	# D.17463, D.17464
	movl	56(%rax), %eax	# _12->pass_on_stack, D.17466
	testl	%eax, %eax	# D.17466
	jne	.L113	#,
	.loc 1 862 0 is_stmt 1
	movq	-56(%rbp), %rax	# reg_parm_seen, tmp165
	movl	$1, (%rax)	#, *reg_parm_seen_2(D)
	.loc 1 864 0
	movl	-20(%rbp), %eax	# i, tmp166
	movslq	%eax, %rdx	# tmp166, D.17463
	movq	%rdx, %rax	# D.17463, tmp167
	salq	$2, %rax	#, tmp167
	addq	%rdx, %rax	# D.17463, tmp167
	salq	$2, %rax	#, tmp167
	addq	%rdx, %rax	# D.17463, tmp167
	salq	$3, %rax	#, tmp168
	movq	%rax, %rdx	# tmp167, D.17463
	movq	-48(%rbp), %rax	# args, tmp169
	addq	%rdx, %rax	# D.17463, D.17464
	movq	16(%rax), %rax	# _16->value, D.17465
	testq	%rax, %rax	# D.17465
	jne	.L114	#,
	.loc 1 866 0
	call	push_temp_slots	#
	.loc 1 867 0
	movl	-20(%rbp), %eax	# i, tmp170
	movslq	%eax, %rdx	# tmp170, D.17463
	movq	%rdx, %rax	# D.17463, tmp171
	salq	$2, %rax	#, tmp171
	addq	%rdx, %rax	# D.17463, tmp171
	salq	$2, %rax	#, tmp171
	addq	%rdx, %rax	# D.17463, tmp171
	salq	$3, %rax	#, tmp172
	movq	%rax, %rdx	# tmp171, D.17463
	movq	-48(%rbp), %rax	# args, tmp173
	leaq	(%rdx,%rax), %rbx	#, D.17464
	movl	-20(%rbp), %eax	# i, tmp174
	movslq	%eax, %rdx	# tmp174, D.17463
	movq	%rdx, %rax	# D.17463, tmp175
	salq	$2, %rax	#, tmp175
	addq	%rdx, %rax	# D.17463, tmp175
	salq	$2, %rax	#, tmp175
	addq	%rdx, %rax	# D.17463, tmp175
	salq	$3, %rax	#, tmp176
	movq	%rax, %rdx	# tmp175, D.17463
	movq	-48(%rbp), %rax	# args, tmp177
	addq	%rdx, %rax	# D.17463, D.17464
	movq	(%rax), %rax	# _23->tree_value, D.17467
	movl	$0, %ecx	#,
	movl	$0, %edx	#,
	movl	$0, %esi	#,
	movq	%rax, %rdi	# D.17467,
	call	expand_expr	#
	movq	%rax, 16(%rbx)	# D.17465, _20->value
	.loc 1 869 0
	movl	-20(%rbp), %eax	# i, tmp178
	movslq	%eax, %rdx	# tmp178, D.17463
	movq	%rdx, %rax	# D.17463, tmp179
	salq	$2, %rax	#, tmp179
	addq	%rdx, %rax	# D.17463, tmp179
	salq	$2, %rax	#, tmp179
	addq	%rdx, %rax	# D.17463, tmp179
	salq	$3, %rax	#, tmp180
	movq	%rax, %rdx	# tmp179, D.17463
	movq	-48(%rbp), %rax	# args, tmp181
	addq	%rdx, %rax	# D.17463, D.17464
	movq	16(%rax), %rax	# _28->value, D.17465
	movq	%rax, %rdi	# D.17465,
	call	preserve_temp_slots	#
	.loc 1 870 0
	call	pop_temp_slots	#
	.loc 1 874 0
	call	emit_queue	#
.L114:
	.loc 1 880 0
	movl	-20(%rbp), %eax	# i, tmp182
	movslq	%eax, %rdx	# tmp182, D.17463
	movq	%rdx, %rax	# D.17463, tmp183
	salq	$2, %rax	#, tmp183
	addq	%rdx, %rax	# D.17463, tmp183
	salq	$2, %rax	#, tmp183
	addq	%rdx, %rax	# D.17463, tmp183
	salq	$3, %rax	#, tmp184
	movq	%rax, %rdx	# tmp183, D.17463
	movq	-48(%rbp), %rax	# args, tmp185
	addq	%rdx, %rax	# D.17463, D.17464
	movl	8(%rax), %ecx	# _32->mode, D.17468
	movl	-20(%rbp), %eax	# i, tmp186
	movslq	%eax, %rdx	# tmp186, D.17463
	movq	%rdx, %rax	# D.17463, tmp187
	salq	$2, %rax	#, tmp187
	addq	%rdx, %rax	# D.17463, tmp187
	salq	$2, %rax	#, tmp187
	addq	%rdx, %rax	# D.17463, tmp187
	salq	$3, %rax	#, tmp188
	movq	%rax, %rdx	# tmp187, D.17463
	movq	-48(%rbp), %rax	# args, tmp189
	addq	%rdx, %rax	# D.17463, D.17464
	movq	(%rax), %rax	# _36->tree_value, D.17467
	movq	8(%rax), %rax	# _37->common.type, D.17467
	movzbl	61(%rax), %eax	# *_38, tmp192
	shrb	%al	# D.17469
	movzbl	%al, %eax	# D.17469, D.17470
	cmpl	%eax, %ecx	# D.17470, D.17468
	je	.L115	#,
	.loc 1 881 0
	movl	-20(%rbp), %eax	# i, tmp193
	movslq	%eax, %rdx	# tmp193, D.17463
	movq	%rdx, %rax	# D.17463, tmp194
	salq	$2, %rax	#, tmp194
	addq	%rdx, %rax	# D.17463, tmp194
	salq	$2, %rax	#, tmp194
	addq	%rdx, %rax	# D.17463, tmp194
	salq	$3, %rax	#, tmp195
	movq	%rax, %rdx	# tmp194, D.17463
	movq	-48(%rbp), %rax	# args, tmp196
	leaq	(%rdx,%rax), %rbx	#, D.17464
	.loc 1 884 0
	movl	-20(%rbp), %eax	# i, tmp197
	movslq	%eax, %rdx	# tmp197, D.17463
	movq	%rdx, %rax	# D.17463, tmp198
	salq	$2, %rax	#, tmp198
	addq	%rdx, %rax	# D.17463, tmp198
	salq	$2, %rax	#, tmp198
	addq	%rdx, %rax	# D.17463, tmp198
	salq	$3, %rax	#, tmp199
	movq	%rax, %rdx	# tmp198, D.17463
	movq	-48(%rbp), %rax	# args, tmp200
	addq	%rdx, %rax	# D.17463, D.17464
	.loc 1 882 0
	movl	48(%rax), %ecx	# _46->unsignedp, D.17466
	.loc 1 884 0
	movl	-20(%rbp), %eax	# i, tmp201
	movslq	%eax, %rdx	# tmp201, D.17463
	movq	%rdx, %rax	# D.17463, tmp202
	salq	$2, %rax	#, tmp202
	addq	%rdx, %rax	# D.17463, tmp202
	salq	$2, %rax	#, tmp202
	addq	%rdx, %rax	# D.17463, tmp202
	salq	$3, %rax	#, tmp203
	movq	%rax, %rdx	# tmp202, D.17463
	movq	-48(%rbp), %rax	# args, tmp204
	addq	%rdx, %rax	# D.17463, D.17464
	.loc 1 882 0
	movq	16(%rax), %rdi	# _50->value, D.17465
	.loc 1 883 0
	movl	-20(%rbp), %eax	# i, tmp205
	movslq	%eax, %rdx	# tmp205, D.17463
	movq	%rdx, %rax	# D.17463, tmp206
	salq	$2, %rax	#, tmp206
	addq	%rdx, %rax	# D.17463, tmp206
	salq	$2, %rax	#, tmp206
	addq	%rdx, %rax	# D.17463, tmp206
	salq	$3, %rax	#, tmp207
	movq	%rax, %rdx	# tmp206, D.17463
	movq	-48(%rbp), %rax	# args, tmp208
	addq	%rdx, %rax	# D.17463, D.17464
	movq	(%rax), %rax	# _54->tree_value, D.17467
	movq	8(%rax), %rax	# _55->common.type, D.17467
	movzbl	61(%rax), %eax	# *_56, tmp211
	shrb	%al	# D.17469
	.loc 1 882 0
	movzbl	%al, %esi	# D.17469, D.17468
	movl	-20(%rbp), %eax	# i, tmp212
	movslq	%eax, %rdx	# tmp212, D.17463
	movq	%rdx, %rax	# D.17463, tmp213
	salq	$2, %rax	#, tmp213
	addq	%rdx, %rax	# D.17463, tmp213
	salq	$2, %rax	#, tmp213
	addq	%rdx, %rax	# D.17463, tmp213
	salq	$3, %rax	#, tmp214
	movq	%rax, %rdx	# tmp213, D.17463
	movq	-48(%rbp), %rax	# args, tmp215
	addq	%rdx, %rax	# D.17463, D.17464
	movl	8(%rax), %eax	# _61->mode, D.17468
	movq	%rdi, %rdx	# D.17465,
	movl	%eax, %edi	# D.17468,
	call	convert_modes	#
	movq	%rax, 16(%rbx)	# D.17465, _43->value
.L115:
	.loc 1 894 0
	movl	-20(%rbp), %eax	# i, tmp216
	movslq	%eax, %rdx	# tmp216, D.17463
	movq	%rdx, %rax	# D.17463, tmp217
	salq	$2, %rax	#, tmp217
	addq	%rdx, %rax	# D.17463, tmp217
	salq	$2, %rax	#, tmp217
	addq	%rdx, %rax	# D.17463, tmp217
	salq	$3, %rax	#, tmp218
	movq	%rax, %rdx	# tmp217, D.17463
	movq	-48(%rbp), %rax	# args, tmp219
	addq	%rdx, %rax	# D.17463, D.17464
	movq	16(%rax), %rax	# _66->value, D.17465
	movzwl	(%rax), %eax	# _67->code, D.17471
	cmpw	$61, %ax	#, D.17471
	je	.L113	#,
	.loc 1 895 0 discriminator 1
	movl	-20(%rbp), %eax	# i, tmp220
	movslq	%eax, %rdx	# tmp220, D.17463
	movq	%rdx, %rax	# D.17463, tmp221
	salq	$2, %rax	#, tmp221
	addq	%rdx, %rax	# D.17463, tmp221
	salq	$2, %rax	#, tmp221
	addq	%rdx, %rax	# D.17463, tmp221
	salq	$3, %rax	#, tmp222
	movq	%rax, %rdx	# tmp221, D.17463
	movq	-48(%rbp), %rax	# args, tmp223
	addq	%rdx, %rax	# D.17463, D.17464
	movq	16(%rax), %rax	# _71->value, D.17465
	movzwl	(%rax), %eax	# _72->code, D.17471
	.loc 1 894 0 discriminator 1
	cmpw	$63, %ax	#, D.17471
	jne	.L116	#,
	.loc 1 896 0
	movl	-20(%rbp), %eax	# i, tmp224
	movslq	%eax, %rdx	# tmp224, D.17463
	movq	%rdx, %rax	# D.17463, tmp225
	salq	$2, %rax	#, tmp225
	addq	%rdx, %rax	# D.17463, tmp225
	salq	$2, %rax	#, tmp225
	addq	%rdx, %rax	# D.17463, tmp225
	salq	$3, %rax	#, tmp226
	movq	%rax, %rdx	# tmp225, D.17463
	movq	-48(%rbp), %rax	# args, tmp227
	addq	%rdx, %rax	# D.17463, D.17464
	movq	16(%rax), %rax	# _76->value, D.17465
	movq	8(%rax), %rax	# _77->fld[0].rtx, D.17465
	movzwl	(%rax), %eax	# _78->code, D.17471
	cmpw	$61, %ax	#, D.17471
	je	.L113	#,
.L116:
	.loc 1 897 0
	movl	-20(%rbp), %eax	# i, tmp228
	movslq	%eax, %rdx	# tmp228, D.17463
	movq	%rdx, %rax	# D.17463, tmp229
	salq	$2, %rax	#, tmp229
	addq	%rdx, %rax	# D.17463, tmp229
	salq	$2, %rax	#, tmp229
	addq	%rdx, %rax	# D.17463, tmp229
	salq	$3, %rax	#, tmp230
	movq	%rax, %rdx	# tmp229, D.17463
	movq	-48(%rbp), %rax	# args, tmp231
	addq	%rdx, %rax	# D.17463, D.17464
	movl	8(%rax), %eax	# _82->mode, D.17468
	cmpl	$51, %eax	#, D.17468
	je	.L113	#,
	.loc 1 898 0
	movl	-20(%rbp), %eax	# i, tmp232
	movslq	%eax, %rdx	# tmp232, D.17463
	movq	%rdx, %rax	# D.17463, tmp233
	salq	$2, %rax	#, tmp233
	addq	%rdx, %rax	# D.17463, tmp233
	salq	$2, %rax	#, tmp233
	addq	%rdx, %rax	# D.17463, tmp233
	salq	$3, %rax	#, tmp234
	movq	%rax, %rdx	# tmp233, D.17463
	movq	-48(%rbp), %rax	# args, tmp235
	addq	%rdx, %rax	# D.17463, D.17464
	movq	16(%rax), %rax	# _86->value, D.17465
	movl	$47, %esi	#,
	movq	%rax, %rdi	# D.17465,
	call	rtx_cost	#
	cmpl	$4, %eax	#, D.17466
	jle	.L113	#,
	.loc 1 899 0
	movq	-56(%rbp), %rax	# reg_parm_seen, tmp236
	movl	(%rax), %eax	# *reg_parm_seen_2(D), D.17466
	testl	%eax, %eax	# D.17466
	jne	.L117	#,
	.loc 1 900 0
	call	preserve_subexpressions_p	#
	testl	%eax, %eax	# D.17466
	je	.L113	#,
.L117:
	.loc 1 901 0
	movl	-20(%rbp), %eax	# i, tmp237
	movslq	%eax, %rdx	# tmp237, D.17463
	movq	%rdx, %rax	# D.17463, tmp238
	salq	$2, %rax	#, tmp238
	addq	%rdx, %rax	# D.17463, tmp238
	salq	$2, %rax	#, tmp238
	addq	%rdx, %rax	# D.17463, tmp238
	salq	$3, %rax	#, tmp239
	movq	%rax, %rdx	# tmp238, D.17463
	movq	-48(%rbp), %rax	# args, tmp240
	leaq	(%rdx,%rax), %rbx	#, D.17464
	movl	-20(%rbp), %eax	# i, tmp241
	movslq	%eax, %rdx	# tmp241, D.17463
	movq	%rdx, %rax	# D.17463, tmp242
	salq	$2, %rax	#, tmp242
	addq	%rdx, %rax	# D.17463, tmp242
	salq	$2, %rax	#, tmp242
	addq	%rdx, %rax	# D.17463, tmp242
	salq	$3, %rax	#, tmp243
	movq	%rax, %rdx	# tmp242, D.17463
	movq	-48(%rbp), %rax	# args, tmp244
	addq	%rdx, %rax	# D.17463, D.17464
	movq	16(%rax), %rcx	# _96->value, D.17465
	movl	-20(%rbp), %eax	# i, tmp245
	movslq	%eax, %rdx	# tmp245, D.17463
	movq	%rdx, %rax	# D.17463, tmp246
	salq	$2, %rax	#, tmp246
	addq	%rdx, %rax	# D.17463, tmp246
	salq	$2, %rax	#, tmp246
	addq	%rdx, %rax	# D.17463, tmp246
	salq	$3, %rax	#, tmp247
	movq	%rax, %rdx	# tmp246, D.17463
	movq	-48(%rbp), %rax	# args, tmp248
	addq	%rdx, %rax	# D.17463, D.17464
	movl	8(%rax), %eax	# _100->mode, D.17468
	movq	%rcx, %rsi	# D.17465,
	movl	%eax, %edi	# D.17468,
	call	copy_to_mode_reg	#
	movq	%rax, 16(%rbx)	# D.17465, _93->value
.L113:
	.loc 1 859 0
	addl	$1, -20(%rbp)	#, i
.L112:
	.loc 1 859 0 is_stmt 0 discriminator 1
	movl	-20(%rbp), %eax	# i, tmp249
	cmpl	-36(%rbp), %eax	# num_actuals, tmp249
	jl	.L118	#,
	.loc 1 903 0 is_stmt 1
	addq	$56, %rsp	#,
	popq	%rbx	#
	popq	%rbp	#
	.cfi_def_cfa 7, 8
	ret
	.cfi_endproc
.LFE9:
	.size	precompute_register_parameters, .-precompute_register_parameters
	.type	save_fixed_argument_area, @function
save_fixed_argument_area:
.LFB10:
	.loc 1 918 0
	.cfi_startproc
	pushq	%rbp	#
	.cfi_def_cfa_offset 16
	.cfi_offset 6, -16
	movq	%rsp, %rbp	#,
	.cfi_def_cfa_register 6
	pushq	%r12	#
	pushq	%rbx	#
	subq	$64, %rsp	#,
	.cfi_offset 12, -24
	.cfi_offset 3, -32
	movl	%edi, -52(%rbp)	# reg_parm_stack_space, reg_parm_stack_space
	movq	%rsi, -64(%rbp)	# argblock, argblock
	movq	%rdx, -72(%rbp)	# low_to_save, low_to_save
	movq	%rcx, -80(%rbp)	# high_to_save, high_to_save
	.loc 1 920 0
	movq	$0, -32(%rbp)	#, save_area
	.loc 1 926 0
	movl	$0, -44(%rbp)	#, i
	jmp	.L120	#
.L125:
	.loc 1 929 0
	movl	highest_outgoing_arg_in_use(%rip), %eax	# highest_outgoing_arg_in_use, highest_outgoing_arg_in_use.25
	cmpl	%eax, -44(%rbp)	# highest_outgoing_arg_in_use.25, i
	jge	.L121	#,
	.loc 1 930 0
	movq	stack_usage_map(%rip), %rdx	# stack_usage_map, stack_usage_map.26
	movl	-44(%rbp), %eax	# i, tmp96
	cltq
	addq	%rdx, %rax	# stack_usage_map.26, D.17473
	movzbl	(%rax), %eax	# *_13, D.17474
	testb	%al, %al	# D.17474
	jne	.L122	#,
.L121:
	.loc 1 931 0
	jmp	.L123	#
.L122:
	.loc 1 933 0
	movq	-72(%rbp), %rax	# low_to_save, tmp97
	movl	(%rax), %eax	# *low_to_save_15(D), D.17475
	cmpl	$-1, %eax	#, D.17475
	jne	.L124	#,
	.loc 1 934 0
	movq	-72(%rbp), %rax	# low_to_save, tmp98
	movl	-44(%rbp), %edx	# i, tmp99
	movl	%edx, (%rax)	# tmp99, *low_to_save_15(D)
.L124:
	.loc 1 936 0
	movq	-80(%rbp), %rax	# high_to_save, tmp100
	movl	-44(%rbp), %edx	# i, tmp101
	movl	%edx, (%rax)	# tmp101, *high_to_save_17(D)
.L123:
	.loc 1 926 0
	addl	$1, -44(%rbp)	#, i
.L120:
	.loc 1 926 0 is_stmt 0 discriminator 1
	movl	-44(%rbp), %eax	# i, tmp102
	cmpl	-52(%rbp), %eax	# reg_parm_stack_space, tmp102
	jl	.L125	#,
	.loc 1 939 0 is_stmt 1
	movq	-72(%rbp), %rax	# low_to_save, tmp103
	movl	(%rax), %eax	# *low_to_save_15(D), D.17475
	testl	%eax, %eax	# D.17475
	js	.L126	#,
.LBB7:
	.loc 1 941 0
	movq	-80(%rbp), %rax	# high_to_save, tmp104
	movl	(%rax), %edx	# *high_to_save_17(D), D.17475
	movq	-72(%rbp), %rax	# low_to_save, tmp105
	movl	(%rax), %eax	# *low_to_save_15(D), D.17475
	subl	%eax, %edx	# D.17475, D.17475
	movl	%edx, %eax	# D.17475, D.17475
	addl	$1, %eax	#, tmp106
	movl	%eax, -36(%rbp)	# tmp106, num_to_save
	.loc 1 943 0
	movl	-36(%rbp), %eax	# num_to_save, tmp107
	sall	$3, %eax	#, D.17475
	.loc 1 942 0
	movl	$1, %edx	#,
	movl	$1, %esi	#,
	movl	%eax, %edi	# D.17476,
	call	mode_for_size	#
	movl	%eax, -40(%rbp)	# tmp108, save_mode
	.loc 1 947 0
	movq	-72(%rbp), %rax	# low_to_save, tmp109
	movl	(%rax), %ecx	# *low_to_save_15(D), D.17475
	movl	target_flags(%rip), %eax	# target_flags, target_flags.28
	andl	$33554432, %eax	#, D.17475
	testl	%eax, %eax	# D.17475
	je	.L127	#,
	.loc 1 947 0 is_stmt 0 discriminator 1
	movl	$16, %eax	#, iftmp.27
	jmp	.L128	#
.L127:
	.loc 1 947 0 discriminator 2
	movl	$32, %eax	#, iftmp.27
.L128:
	.loc 1 947 0 discriminator 3
	movl	-40(%rbp), %edx	# save_mode, save_mode.29
	movslq	%edx, %rdx	# save_mode.29, tmp110
	movzbl	mode_size(%rdx), %edx	# mode_size, D.17477
	movzbl	%dl, %edx	# D.17477, D.17475
	cmpl	%edx, %eax	# D.17475, iftmp.27
	cmovg	%edx, %eax	# iftmp.27,, D.17475, D.17475
	.loc 1 948 0 is_stmt 1 discriminator 3
	subl	$1, %eax	#, D.17475
	.loc 1 947 0 discriminator 3
	andl	%ecx, %eax	# D.17475, D.17475
	testl	%eax, %eax	# D.17475
	je	.L129	#,
	.loc 1 949 0
	movl	$51, -40(%rbp)	#, save_mode
.L129:
	.loc 1 960 0
	movq	-72(%rbp), %rax	# low_to_save, tmp111
	movl	(%rax), %eax	# *low_to_save_15(D), D.17475
	.loc 1 958 0
	movslq	%eax, %rdx	# D.17475, D.17478
	movq	-64(%rbp), %rax	# argblock, tmp112
	movq	%rdx, %rsi	# D.17478,
	movq	%rax, %rdi	# tmp112,
	call	plus_constant_wide	#
	movq	%rax, %rdx	#, D.17479
	movl	-40(%rbp), %eax	# save_mode, tmp113
	movq	%rdx, %rsi	# D.17479,
	movl	%eax, %edi	# tmp113,
	call	memory_address	#
	movq	%rax, %rdx	#, D.17479
	movl	-40(%rbp), %eax	# save_mode, tmp114
	movq	%rdx, %rsi	# D.17479,
	movl	%eax, %edi	# tmp114,
	call	gen_rtx_MEM	#
	movq	%rax, -24(%rbp)	# tmp115, stack_area
	.loc 1 964 0
	movl	target_flags(%rip), %eax	# target_flags, target_flags.31
	andl	$33554432, %eax	#, D.17475
	testl	%eax, %eax	# D.17475
	je	.L130	#,
	.loc 1 964 0 is_stmt 0 discriminator 1
	movl	$64, %eax	#, iftmp.30
	jmp	.L131	#
.L130:
	.loc 1 964 0 discriminator 2
	movl	$32, %eax	#, iftmp.30
.L131:
	.loc 1 964 0 discriminator 3
	movq	-24(%rbp), %rdx	# stack_area, tmp116
	movl	%eax, %esi	# iftmp.30,
	movq	%rdx, %rdi	# tmp116,
	call	set_mem_align	#
	.loc 1 965 0 is_stmt 1 discriminator 3
	cmpl	$51, -40(%rbp)	#, save_mode
	jne	.L132	#,
	.loc 1 967 0
	movl	-36(%rbp), %eax	# num_to_save, tmp117
	cltq
	movl	$0, %edx	#,
	movq	%rax, %rsi	# D.17478,
	movl	$51, %edi	#,
	call	assign_stack_temp	#
	movq	%rax, -32(%rbp)	# tmp118, save_area
	.loc 1 972 0
	movl	target_flags(%rip), %eax	# target_flags, target_flags.33
	andl	$33554432, %eax	#, D.17475
	.loc 1 971 0
	testl	%eax, %eax	# D.17475
	je	.L133	#,
	.loc 1 971 0 is_stmt 0 discriminator 1
	movl	$64, %ebx	#, iftmp.32
	jmp	.L134	#
.L133:
	.loc 1 971 0 discriminator 2
	movl	$32, %ebx	#, iftmp.32
.L134:
	.loc 1 971 0 discriminator 1
	movl	-36(%rbp), %eax	# num_to_save, tmp119
	movslq	%eax, %r12	# tmp119, D.17480
	movq	-32(%rbp), %rax	# save_area, tmp120
	movq	%rax, %rdi	# tmp120,
	call	validize_mem	#
	movq	-24(%rbp), %rsi	# stack_area, tmp121
	movl	%ebx, %ecx	# iftmp.32,
	movq	%r12, %rdx	# D.17480,
	movq	%rax, %rdi	# D.17479,
	call	move_by_pieces	#
	jmp	.L126	#
.L132:
	.loc 1 976 0 is_stmt 1
	movl	-40(%rbp), %eax	# save_mode, tmp122
	movl	%eax, %edi	# tmp122,
	call	gen_reg_rtx	#
	movq	%rax, -32(%rbp)	# tmp123, save_area
	.loc 1 977 0
	movq	-24(%rbp), %rdx	# stack_area, tmp124
	movq	-32(%rbp), %rax	# save_area, tmp125
	movq	%rdx, %rsi	# tmp124,
	movq	%rax, %rdi	# tmp125,
	call	emit_move_insn	#
.L126:
.LBE7:
	.loc 1 981 0
	movq	-32(%rbp), %rax	# save_area, D.17481
	.loc 1 982 0
	addq	$64, %rsp	#,
	popq	%rbx	#
	popq	%r12	#
	popq	%rbp	#
	.cfi_def_cfa 7, 8
	ret
	.cfi_endproc
.LFE10:
	.size	save_fixed_argument_area, .-save_fixed_argument_area
	.type	restore_fixed_argument_area, @function
restore_fixed_argument_area:
.LFB11:
	.loc 1 990 0
	.cfi_startproc
	pushq	%rbp	#
	.cfi_def_cfa_offset 16
	.cfi_offset 6, -16
	movq	%rsp, %rbp	#,
	.cfi_def_cfa_register 6
	pushq	%r12	#
	pushq	%rbx	#
	subq	$48, %rsp	#,
	.cfi_offset 12, -24
	.cfi_offset 3, -32
	movq	%rdi, -40(%rbp)	# save_area, save_area
	movq	%rsi, -48(%rbp)	# argblock, argblock
	movl	%edx, -52(%rbp)	# high_to_save, high_to_save
	movl	%ecx, -56(%rbp)	# low_to_save, low_to_save
	.loc 1 991 0
	movq	-40(%rbp), %rax	# save_area, tmp70
	movzbl	2(%rax), %eax	# save_area_2(D)->mode, D.17482
	movzbl	%al, %eax	# D.17482, tmp71
	movl	%eax, -28(%rbp)	# tmp71, save_mode
	.loc 1 1000 0
	movl	-56(%rbp), %eax	# low_to_save, tmp72
	movslq	%eax, %rdx	# tmp72, D.17483
	movq	-48(%rbp), %rax	# argblock, tmp73
	movq	%rdx, %rsi	# D.17483,
	movq	%rax, %rdi	# tmp73,
	call	plus_constant_wide	#
	movq	%rax, %rdx	#, D.17484
	movl	-28(%rbp), %eax	# save_mode, tmp74
	movq	%rdx, %rsi	# D.17484,
	movl	%eax, %edi	# tmp74,
	call	memory_address	#
	movq	%rax, %rdx	#, D.17484
	.loc 1 999 0
	movl	-28(%rbp), %eax	# save_mode, tmp75
	movq	%rdx, %rsi	# D.17484,
	movl	%eax, %edi	# tmp75,
	call	gen_rtx_MEM	#
	movq	%rax, -24(%rbp)	# tmp76, stack_area
	.loc 1 1006 0
	cmpl	$51, -28(%rbp)	#, save_mode
	je	.L137	#,
	.loc 1 1007 0
	movq	-40(%rbp), %rdx	# save_area, tmp77
	movq	-24(%rbp), %rax	# stack_area, tmp78
	movq	%rdx, %rsi	# tmp77,
	movq	%rax, %rdi	# tmp78,
	call	emit_move_insn	#
	jmp	.L136	#
.L137:
	.loc 1 1013 0
	movl	target_flags(%rip), %eax	# target_flags, target_flags.35
	andl	$33554432, %eax	#, D.17485
	.loc 1 1012 0
	testl	%eax, %eax	# D.17485
	je	.L139	#,
	.loc 1 1012 0 is_stmt 0 discriminator 1
	movl	$64, %ebx	#, iftmp.34
	jmp	.L140	#
.L139:
	.loc 1 1012 0 discriminator 2
	movl	$32, %ebx	#, iftmp.34
.L140:
	.loc 1 1013 0 is_stmt 1 discriminator 3
	movl	-56(%rbp), %eax	# low_to_save, tmp79
	movl	-52(%rbp), %edx	# high_to_save, tmp80
	subl	%eax, %edx	# tmp79, D.17485
	movl	%edx, %eax	# D.17485, D.17485
	addl	$1, %eax	#, D.17485
	.loc 1 1012 0 discriminator 3
	movslq	%eax, %r12	# D.17485, D.17486
	movq	-40(%rbp), %rax	# save_area, tmp81
	movq	%rax, %rdi	# tmp81,
	call	validize_mem	#
	movq	%rax, %rsi	#, D.17484
	movq	-24(%rbp), %rax	# stack_area, tmp82
	movl	%ebx, %ecx	# iftmp.34,
	movq	%r12, %rdx	# D.17486,
	movq	%rax, %rdi	# tmp82,
	call	move_by_pieces	#
.L136:
	.loc 1 1014 0
	addq	$48, %rsp	#,
	popq	%rbx	#
	popq	%r12	#
	popq	%rbp	#
	.cfi_def_cfa 7, 8
	ret
	.cfi_endproc
.LFE11:
	.size	restore_fixed_argument_area, .-restore_fixed_argument_area
	.type	store_unaligned_arguments_into_pseudos, @function
store_unaligned_arguments_into_pseudos:
.LFB12:
	.loc 1 1030 0
	.cfi_startproc
	pushq	%rbp	#
	.cfi_def_cfa_offset 16
	.cfi_offset 6, -16
	movq	%rsp, %rbp	#,
	.cfi_def_cfa_register 6
	pushq	%rbx	#
	subq	$88, %rsp	#,
	.cfi_offset 3, -24
	movq	%rdi, -72(%rbp)	# args, args
	movl	%esi, -76(%rbp)	# num_actuals, num_actuals
	.loc 1 1033 0
	movl	$0, -52(%rbp)	#, i
	jmp	.L142	#
.L160:
	.loc 1 1034 0
	movl	-52(%rbp), %eax	# i, tmp150
	movslq	%eax, %rdx	# tmp150, D.17487
	movq	%rdx, %rax	# D.17487, tmp151
	salq	$2, %rax	#, tmp151
	addq	%rdx, %rax	# D.17487, tmp151
	salq	$2, %rax	#, tmp151
	addq	%rdx, %rax	# D.17487, tmp151
	salq	$3, %rax	#, tmp152
	movq	%rax, %rdx	# tmp151, D.17487
	movq	-72(%rbp), %rax	# args, tmp153
	addq	%rdx, %rax	# D.17487, D.17488
	movq	32(%rax), %rax	# _16->reg, D.17489
	testq	%rax, %rax	# D.17489
	je	.L143	#,
	.loc 1 1034 0 is_stmt 0 discriminator 1
	movl	-52(%rbp), %eax	# i, tmp154
	movslq	%eax, %rdx	# tmp154, D.17487
	movq	%rdx, %rax	# D.17487, tmp155
	salq	$2, %rax	#, tmp155
	addq	%rdx, %rax	# D.17487, tmp155
	salq	$2, %rax	#, tmp155
	addq	%rdx, %rax	# D.17487, tmp155
	salq	$3, %rax	#, tmp156
	movq	%rax, %rdx	# tmp155, D.17487
	movq	-72(%rbp), %rax	# args, tmp157
	addq	%rdx, %rax	# D.17487, D.17488
	movl	56(%rax), %eax	# _20->pass_on_stack, D.17490
	testl	%eax, %eax	# D.17490
	jne	.L143	#,
	.loc 1 1035 0 is_stmt 1
	movl	-52(%rbp), %eax	# i, tmp158
	movslq	%eax, %rdx	# tmp158, D.17487
	movq	%rdx, %rax	# D.17487, tmp159
	salq	$2, %rax	#, tmp159
	addq	%rdx, %rax	# D.17487, tmp159
	salq	$2, %rax	#, tmp159
	addq	%rdx, %rax	# D.17487, tmp159
	salq	$3, %rax	#, tmp160
	movq	%rax, %rdx	# tmp159, D.17487
	movq	-72(%rbp), %rax	# args, tmp161
	addq	%rdx, %rax	# D.17487, D.17488
	movl	8(%rax), %eax	# _24->mode, D.17491
	cmpl	$51, %eax	#, D.17491
	jne	.L143	#,
	.loc 1 1036 0
	movl	-52(%rbp), %eax	# i, tmp162
	movslq	%eax, %rdx	# tmp162, D.17487
	movq	%rdx, %rax	# D.17487, tmp163
	salq	$2, %rax	#, tmp163
	addq	%rdx, %rax	# D.17487, tmp163
	salq	$2, %rax	#, tmp163
	addq	%rdx, %rax	# D.17487, tmp163
	salq	$3, %rax	#, tmp164
	movq	%rax, %rdx	# tmp163, D.17487
	movq	-72(%rbp), %rax	# args, tmp165
	addq	%rdx, %rax	# D.17487, D.17488
	movq	(%rax), %rax	# _28->tree_value, D.17492
	movq	8(%rax), %rax	# _29->common.type, D.17492
	movl	64(%rax), %edx	# _30->type.align, D.17493
	.loc 1 1037 0
	movl	target_flags(%rip), %eax	# target_flags, target_flags.37
	andl	$33554432, %eax	#, D.17490
	testl	%eax, %eax	# D.17490
	je	.L144	#,
	.loc 1 1037 0 is_stmt 0 discriminator 1
	movl	$64, %eax	#, iftmp.36
	jmp	.L145	#
.L144:
	.loc 1 1037 0 discriminator 2
	movl	$32, %eax	#, iftmp.36
.L145:
	.loc 1 1036 0 is_stmt 1
	cmpl	%eax, %edx	# iftmp.36, D.17493
	jae	.L143	#,
.LBB8:
	.loc 1 1039 0
	movl	-52(%rbp), %eax	# i, tmp166
	movslq	%eax, %rdx	# tmp166, D.17487
	movq	%rdx, %rax	# D.17487, tmp167
	salq	$2, %rax	#, tmp167
	addq	%rdx, %rax	# D.17487, tmp167
	salq	$2, %rax	#, tmp167
	addq	%rdx, %rax	# D.17487, tmp167
	salq	$3, %rax	#, tmp168
	movq	%rax, %rdx	# tmp167, D.17487
	movq	-72(%rbp), %rax	# args, tmp169
	addq	%rdx, %rax	# D.17487, D.17488
	movq	(%rax), %rax	# _38->tree_value, D.17492
	movq	8(%rax), %rax	# _39->common.type, D.17492
	movq	%rax, %rdi	# D.17492,
	call	int_size_in_bytes	#
	movl	%eax, -44(%rbp)	# D.17494, bytes
	.loc 1 1040 0
	movl	$0, -40(%rbp)	#, big_endian_correction
	.loc 1 1042 0
	movl	-52(%rbp), %eax	# i, tmp170
	movslq	%eax, %rdx	# tmp170, D.17487
	movq	%rdx, %rax	# D.17487, tmp171
	salq	$2, %rax	#, tmp171
	addq	%rdx, %rax	# D.17487, tmp171
	salq	$2, %rax	#, tmp171
	addq	%rdx, %rax	# D.17487, tmp171
	salq	$3, %rax	#, tmp172
	movq	%rax, %rdx	# tmp171, D.17487
	movq	-72(%rbp), %rax	# args, tmp173
	leaq	(%rdx,%rax), %rcx	#, D.17488
	.loc 1 1043 0
	movl	-52(%rbp), %eax	# i, tmp174
	movslq	%eax, %rdx	# tmp174, D.17487
	movq	%rdx, %rax	# D.17487, tmp175
	salq	$2, %rax	#, tmp175
	addq	%rdx, %rax	# D.17487, tmp175
	salq	$2, %rax	#, tmp175
	addq	%rdx, %rax	# D.17487, tmp175
	salq	$3, %rax	#, tmp176
	movq	%rax, %rdx	# tmp175, D.17487
	movq	-72(%rbp), %rax	# args, tmp177
	addq	%rdx, %rax	# D.17487, D.17488
	movl	52(%rax), %eax	# _49->partial, D.17490
	.loc 1 1044 0
	testl	%eax, %eax	# D.17490
	je	.L146	#,
	.loc 1 1043 0
	movl	-52(%rbp), %eax	# i, tmp178
	movslq	%eax, %rdx	# tmp178, D.17487
	movq	%rdx, %rax	# D.17487, tmp179
	salq	$2, %rax	#, tmp179
	addq	%rdx, %rax	# D.17487, tmp179
	salq	$2, %rax	#, tmp179
	addq	%rdx, %rax	# D.17487, tmp179
	salq	$3, %rax	#, tmp180
	movq	%rax, %rdx	# tmp179, D.17487
	movq	-72(%rbp), %rax	# args, tmp181
	addq	%rdx, %rax	# D.17487, D.17488
	.loc 1 1044 0
	movl	52(%rax), %eax	# _53->partial, iftmp.38
	jmp	.L147	#
.L146:
	.loc 1 1044 0 is_stmt 0 discriminator 1
	movl	target_flags(%rip), %eax	# target_flags, target_flags.40
	andl	$33554432, %eax	#, D.17490
	testl	%eax, %eax	# D.17490
	je	.L148	#,
	movl	$7, %eax	#, iftmp.39
	jmp	.L149	#
.L148:
	.loc 1 1044 0 discriminator 2
	movl	$3, %eax	#, iftmp.39
.L149:
	.loc 1 1044 0 discriminator 3
	movl	-44(%rbp), %edx	# bytes, tmp182
	addl	%edx, %eax	# tmp182, D.17490
	movl	target_flags(%rip), %edx	# target_flags, target_flags.42
	andl	$33554432, %edx	#, D.17490
	testl	%edx, %edx	# D.17490
	je	.L150	#,
	.loc 1 1044 0 discriminator 1
	movl	$8, %ebx	#, iftmp.41
	jmp	.L151	#
.L150:
	.loc 1 1044 0 discriminator 2
	movl	$4, %ebx	#, iftmp.41
.L151:
	.loc 1 1044 0 discriminator 3
	cltd
	idivl	%ebx	# iftmp.41
.L147:
	.loc 1 1043 0 is_stmt 1
	movl	%eax, 144(%rcx)	# iftmp.38, _46->n_aligned_regs
	.loc 1 1046 0
	movl	-52(%rbp), %eax	# i, tmp185
	movslq	%eax, %rdx	# tmp185, D.17487
	movq	%rdx, %rax	# D.17487, tmp186
	salq	$2, %rax	#, tmp186
	addq	%rdx, %rax	# D.17487, tmp186
	salq	$2, %rax	#, tmp186
	addq	%rdx, %rax	# D.17487, tmp186
	salq	$3, %rax	#, tmp187
	movq	%rax, %rdx	# tmp186, D.17487
	movq	-72(%rbp), %rax	# args, tmp188
	leaq	(%rdx,%rax), %rbx	#, D.17488
	.loc 1 1047 0
	movl	-52(%rbp), %eax	# i, tmp189
	movslq	%eax, %rdx	# tmp189, D.17487
	movq	%rdx, %rax	# D.17487, tmp190
	salq	$2, %rax	#, tmp190
	addq	%rdx, %rax	# D.17487, tmp190
	salq	$2, %rax	#, tmp190
	addq	%rdx, %rax	# D.17487, tmp190
	salq	$3, %rax	#, tmp191
	movq	%rax, %rdx	# tmp190, D.17487
	movq	-72(%rbp), %rax	# args, tmp192
	addq	%rdx, %rax	# D.17487, D.17488
	movl	144(%rax), %eax	# _70->n_aligned_regs, D.17490
	.loc 1 1046 0
	cltq
	salq	$3, %rax	#, D.17487
	movq	%rax, %rdi	# D.17487,
	call	xmalloc	#
	movq	%rax, 136(%rbx)	# D.17495, _67->aligned_regs
	.loc 1 1058 0
	movl	$0, -48(%rbp)	#, j
	jmp	.L152	#
.L159:
.LBB9:
	.loc 1 1060 0
	movl	word_mode(%rip), %eax	# word_mode, word_mode.45
	movl	%eax, %edi	# word_mode.45,
	call	gen_reg_rtx	#
	movq	%rax, -32(%rbp)	# tmp194, reg
	.loc 1 1061 0
	movl	-48(%rbp), %ecx	# j, j.46
	movl	-52(%rbp), %eax	# i, tmp195
	movslq	%eax, %rdx	# tmp195, D.17487
	movq	%rdx, %rax	# D.17487, tmp196
	salq	$2, %rax	#, tmp196
	addq	%rdx, %rax	# D.17487, tmp196
	salq	$2, %rax	#, tmp196
	addq	%rdx, %rax	# D.17487, tmp196
	salq	$3, %rax	#, tmp197
	movq	%rax, %rdx	# tmp196, D.17487
	movq	-72(%rbp), %rax	# args, tmp198
	addq	%rdx, %rax	# D.17487, D.17488
	movq	16(%rax), %rax	# _85->value, D.17489
	movl	$51, %edx	#,
	movl	%ecx, %esi	# j.46,
	movq	%rax, %rdi	# D.17489,
	call	operand_subword_force	#
	movq	%rax, -24(%rbp)	# tmp199, word
	.loc 1 1062 0
	movl	target_flags(%rip), %eax	# target_flags, target_flags.48
	andl	$33554432, %eax	#, D.17490
	testl	%eax, %eax	# D.17490
	je	.L153	#,
	.loc 1 1062 0 is_stmt 0 discriminator 1
	movl	$64, %eax	#, iftmp.47
	jmp	.L154	#
.L153:
	.loc 1 1062 0 discriminator 2
	movl	$32, %eax	#, iftmp.47
.L154:
	.loc 1 1062 0 discriminator 3
	movl	-44(%rbp), %edx	# bytes, tmp200
	sall	$3, %edx	#, D.17490
	cmpl	%edx, %eax	# D.17490, iftmp.47
	cmovg	%edx, %eax	# iftmp.47,, D.17490, tmp201
	movl	%eax, -36(%rbp)	# tmp201, bitsize
	.loc 1 1064 0 is_stmt 1 discriminator 3
	movl	-52(%rbp), %eax	# i, tmp202
	movslq	%eax, %rdx	# tmp202, D.17487
	movq	%rdx, %rax	# D.17487, tmp203
	salq	$2, %rax	#, tmp203
	addq	%rdx, %rax	# D.17487, tmp203
	salq	$2, %rax	#, tmp203
	addq	%rdx, %rax	# D.17487, tmp203
	salq	$3, %rax	#, tmp204
	movq	%rax, %rdx	# tmp203, D.17487
	movq	-72(%rbp), %rax	# args, tmp205
	addq	%rdx, %rax	# D.17487, D.17488
	movq	136(%rax), %rax	# _96->aligned_regs, D.17496
	movl	-48(%rbp), %edx	# j, tmp206
	movslq	%edx, %rdx	# tmp206, D.17487
	salq	$3, %rdx	#, D.17487
	addq	%rax, %rdx	# D.17496, D.17496
	movq	-32(%rbp), %rax	# reg, tmp207
	movq	%rax, (%rdx)	# tmp207, *_100
	.loc 1 1077 0 discriminator 3
	movq	const_int_rtx+512(%rip), %rdx	# const_int_rtx, D.17489
	movq	-32(%rbp), %rax	# reg, tmp208
	movq	%rdx, %rsi	# D.17489,
	movq	%rax, %rdi	# tmp208,
	call	emit_move_insn	#
	.loc 1 1079 0 discriminator 3
	movl	-36(%rbp), %eax	# bitsize, tmp209
	leal	7(%rax), %edx	#, tmp211
	testl	%eax, %eax	# tmp210
	cmovs	%edx, %eax	# tmp211,, tmp210
	sarl	$3, %eax	#, tmp212
	subl	%eax, -44(%rbp)	# D.17490, bytes
	.loc 1 1084 0 discriminator 3
	movl	target_flags(%rip), %eax	# target_flags, target_flags.50
	andl	$33554432, %eax	#, D.17490
	.loc 1 1080 0 discriminator 3
	testl	%eax, %eax	# D.17490
	je	.L155	#,
	.loc 1 1080 0 is_stmt 0 discriminator 1
	movl	$64, %ebx	#, iftmp.49
	jmp	.L156	#
.L155:
	.loc 1 1080 0 discriminator 2
	movl	$32, %ebx	#, iftmp.49
.L156:
	.loc 1 1083 0 is_stmt 1 discriminator 3
	movl	target_flags(%rip), %eax	# target_flags, target_flags.52
	andl	$33554432, %eax	#, D.17490
	.loc 1 1080 0 discriminator 3
	testl	%eax, %eax	# D.17490
	je	.L157	#,
	.loc 1 1080 0 is_stmt 0 discriminator 4
	movl	$64, %eax	#, iftmp.51
	jmp	.L158	#
.L157:
	.loc 1 1080 0 discriminator 5
	movl	$32, %eax	#, iftmp.51
.L158:
	.loc 1 1080 0 discriminator 6
	movl	word_mode(%rip), %edx	# word_mode, word_mode.53
	movl	word_mode(%rip), %ecx	# word_mode, word_mode.54
	movl	-36(%rbp), %esi	# bitsize, tmp213
	movslq	%esi, %rsi	# tmp213, D.17487
	movq	-24(%rbp), %rdi	# word, tmp214
	movq	%rax, 8(%rsp)	# iftmp.51,
	movl	%edx, (%rsp)	# word_mode.53,
	movl	%ecx, %r9d	# word_mode.54,
	movl	$0, %r8d	#,
	movl	$1, %ecx	#,
	movl	$0, %edx	#,
	call	extract_bit_field	#
	movq	%rax, %rdi	#, D.17489
	movl	word_mode(%rip), %ecx	# word_mode, word_mode.55
	movl	-40(%rbp), %eax	# big_endian_correction, tmp215
	movslq	%eax, %rdx	# tmp215, D.17487
	movl	-36(%rbp), %eax	# bitsize, tmp216
	movslq	%eax, %rsi	# tmp216, D.17487
	movq	-32(%rbp), %rax	# reg, tmp217
	movq	%rbx, %r9	# iftmp.49,
	movq	%rdi, %r8	# D.17489,
	movq	%rax, %rdi	# tmp217,
	call	store_bit_field	#
.LBE9:
	.loc 1 1058 0 is_stmt 1 discriminator 6
	addl	$1, -48(%rbp)	#, j
.L152:
	.loc 1 1058 0 is_stmt 0 discriminator 1
	movl	-52(%rbp), %eax	# i, tmp218
	movslq	%eax, %rdx	# tmp218, D.17487
	movq	%rdx, %rax	# D.17487, tmp219
	salq	$2, %rax	#, tmp219
	addq	%rdx, %rax	# D.17487, tmp219
	salq	$2, %rax	#, tmp219
	addq	%rdx, %rax	# D.17487, tmp219
	salq	$3, %rax	#, tmp220
	movq	%rax, %rdx	# tmp219, D.17487
	movq	-72(%rbp), %rax	# args, tmp221
	addq	%rdx, %rax	# D.17487, D.17488
	movl	144(%rax), %eax	# _78->n_aligned_regs, D.17490
	cmpl	-48(%rbp), %eax	# j, D.17490
	jg	.L159	#,
.L143:
.LBE8:
	.loc 1 1033 0 is_stmt 1
	addl	$1, -52(%rbp)	#, i
.L142:
	.loc 1 1033 0 is_stmt 0 discriminator 1
	movl	-52(%rbp), %eax	# i, tmp222
	cmpl	-76(%rbp), %eax	# num_actuals, tmp222
	jl	.L160	#,
	.loc 1 1087 0 is_stmt 1
	addq	$88, %rsp	#,
	popq	%rbx	#
	popq	%rbp	#
	.cfi_def_cfa 7, 8
	ret
	.cfi_endproc
.LFE12:
	.size	store_unaligned_arguments_into_pseudos, .-store_unaligned_arguments_into_pseudos
	.type	initialize_argument_information, @function
initialize_argument_information:
.LFB13:
	.loc 1 1128 0
	.cfi_startproc
	pushq	%rbp	#
	.cfi_def_cfa_offset 16
	.cfi_offset 6, -16
	movq	%rsp, %rbp	#,
	.cfi_def_cfa_register 6
	pushq	%r12	#
	pushq	%rbx	#
	subq	$144, %rsp	#,
	.cfi_offset 12, -24
	.cfi_offset 3, -32
	movl	%edi, -100(%rbp)	# num_actuals, num_actuals
	movq	%rsi, -112(%rbp)	# args, args
	movq	%rdx, -120(%rbp)	# args_size, args_size
	movl	%ecx, -104(%rbp)	# n_named_args, n_named_args
	movq	%r8, -128(%rbp)	# actparms, actparms
	movq	%r9, -136(%rbp)	# fndecl, fndecl
	.loc 1 1139 0
	movq	-120(%rbp), %rax	# args_size, tmp349
	movq	$0, (%rax)	#, args_size_16(D)->constant
	.loc 1 1140 0
	movq	-120(%rbp), %rax	# args_size, tmp350
	movq	$0, 8(%rax)	#, args_size_16(D)->var
	.loc 1 1146 0
	movl	target_flags(%rip), %eax	# target_flags, target_flags.56
	andl	$2048, %eax	#, D.17497
	testl	%eax, %eax	# D.17497
	jne	.L162	#,
	.loc 1 1146 0 is_stmt 0 discriminator 1
	movl	target_flags(%rip), %eax	# target_flags, target_flags.57
	andl	$4096, %eax	#, D.17497
	testl	%eax, %eax	# D.17497
	jne	.L162	#,
	.loc 1 1148 0 is_stmt 1
	movl	-100(%rbp), %eax	# num_actuals, tmp354
	subl	$1, %eax	#, tmp353
	movl	%eax, -84(%rbp)	# tmp353, i
	movl	$-1, -92(%rbp)	#, inc
	jmp	.L163	#
.L162:
	.loc 1 1154 0
	movl	$0, -84(%rbp)	#, i
	movl	$1, -92(%rbp)	#, inc
.L163:
	.loc 1 1158 0
	movq	-128(%rbp), %rax	# actparms, tmp355
	movq	%rax, -72(%rbp)	# tmp355, p
	movl	$0, -88(%rbp)	#, argpos
	jmp	.L164	#
.L205:
.LBB10:
	.loc 1 1160 0
	movq	-72(%rbp), %rax	# p, tmp356
	movq	32(%rax), %rax	# p_5->list.value, D.17498
	movq	8(%rax), %rax	# _29->common.type, tmp357
	movq	%rax, -64(%rbp)	# tmp357, type
	.loc 1 1164 0
	movl	-84(%rbp), %eax	# i, tmp358
	movslq	%eax, %rdx	# tmp358, D.17499
	movq	%rdx, %rax	# D.17499, tmp359
	salq	$2, %rax	#, tmp359
	addq	%rdx, %rax	# D.17499, tmp359
	salq	$2, %rax	#, tmp359
	addq	%rdx, %rax	# D.17499, tmp359
	salq	$3, %rax	#, tmp360
	movq	%rax, %rdx	# tmp359, D.17499
	movq	-112(%rbp), %rax	# args, tmp361
	addq	%rax, %rdx	# tmp361, D.17500
	movq	-72(%rbp), %rax	# p, tmp362
	movq	32(%rax), %rax	# p_5->list.value, D.17498
	movq	%rax, (%rdx)	# D.17498, _34->tree_value
	.loc 1 1167 0
	movq	global_trees(%rip), %rax	# global_trees, D.17498
	cmpq	-64(%rbp), %rax	# type, D.17498
	je	.L165	#,
	.loc 1 1167 0 is_stmt 0 discriminator 1
	movq	-64(%rbp), %rax	# type, tmp363
	movq	32(%rax), %rax	# type_30->type.size, D.17498
	testq	%rax, %rax	# D.17498
	jne	.L166	#,
.L165:
	.loc 1 1168 0 is_stmt 1
	movl	-84(%rbp), %eax	# i, tmp364
	movslq	%eax, %rdx	# tmp364, D.17499
	movq	%rdx, %rax	# D.17499, tmp365
	salq	$2, %rax	#, tmp365
	addq	%rdx, %rax	# D.17499, tmp365
	salq	$2, %rax	#, tmp365
	addq	%rdx, %rax	# D.17499, tmp365
	salq	$3, %rax	#, tmp366
	movq	%rax, %rdx	# tmp365, D.17499
	movq	-112(%rbp), %rax	# args, tmp367
	addq	%rax, %rdx	# tmp367, D.17500
	movq	global_trees+88(%rip), %rax	# global_trees, D.17498
	movq	%rax, (%rdx)	# D.17498, _40->tree_value
	movq	integer_types+40(%rip), %rax	# integer_types, tmp368
	movq	%rax, -64(%rbp)	# tmp368, type
.L166:
	.loc 1 1173 0
	movq	-64(%rbp), %rax	# type, tmp369
	movzbl	16(%rax), %eax	# type_6->common.code, D.17501
	cmpb	$21, %al	#, D.17501
	jne	.L167	#,
	.loc 1 1173 0 is_stmt 0 discriminator 1
	movq	-64(%rbp), %rax	# type, tmp370
	movzbl	62(%rax), %eax	# *type_6, D.17501
	andl	$8, %eax	#, D.17501
	testb	%al, %al	# D.17501
	je	.L167	#,
	.loc 1 1174 0 is_stmt 1
	movq	-64(%rbp), %rax	# type, tmp371
	movq	24(%rax), %rax	# type_6->type.values, D.17498
	movq	8(%rax), %rax	# _46->common.type, tmp372
	movq	%rax, -64(%rbp)	# tmp372, type
.L167:
	.loc 1 1191 0
	movq	-64(%rbp), %rax	# type, tmp373
	movq	32(%rax), %rax	# type_7->type.size, D.17498
	movzbl	16(%rax), %eax	# _48->common.code, D.17501
	cmpb	$25, %al	#, D.17501
	je	.L168	#,
	.loc 1 1192 0
	movq	-64(%rbp), %rax	# type, tmp374
	movq	32(%rax), %rax	# type_7->type.size, D.17498
	movq	%rax, %rdi	# D.17498,
	call	contains_placeholder_p	#
	testl	%eax, %eax	# D.17497
	jne	.L169	#,
.L168:
	.loc 1 1193 0
	movq	-64(%rbp), %rax	# type, tmp375
	movzbl	17(%rax), %eax	# *type_7, D.17501
	andl	$4, %eax	#, D.17501
	testb	%al, %al	# D.17501
	je	.L170	#,
.L169:
	.loc 1 1202 0
	movq	cfun(%rip), %rax	# cfun, cfun.58
	movzbl	425(%rax), %eax	# *cfun.58_54, D.17501
	andl	$16, %eax	#, D.17501
	testb	%al, %al	# D.17501
	je	.L171	#,
	.loc 1 1223 0
	movl	-84(%rbp), %eax	# i, tmp376
	movslq	%eax, %rdx	# tmp376, D.17499
	movq	%rdx, %rax	# D.17499, tmp377
	salq	$2, %rax	#, tmp377
	addq	%rdx, %rax	# D.17499, tmp377
	salq	$2, %rax	#, tmp377
	addq	%rdx, %rax	# D.17499, tmp377
	salq	$3, %rax	#, tmp378
	movq	%rax, %rdx	# tmp377, D.17499
	movq	-112(%rbp), %rax	# args, tmp379
	addq	%rdx, %rax	# D.17499, D.17500
	movq	(%rax), %rax	# _59->tree_value, D.17498
	movzbl	16(%rax), %eax	# _60->common.code, D.17501
	cmpb	$50, %al	#, D.17501
	jne	.L172	#,
	.loc 1 1224 0
	movl	-84(%rbp), %eax	# i, tmp380
	movslq	%eax, %rdx	# tmp380, D.17499
	movq	%rdx, %rax	# D.17499, tmp381
	salq	$2, %rax	#, tmp381
	addq	%rdx, %rax	# D.17499, tmp381
	salq	$2, %rax	#, tmp381
	addq	%rdx, %rax	# D.17499, tmp381
	salq	$3, %rax	#, tmp382
	movq	%rax, %rdx	# tmp381, D.17499
	movq	-112(%rbp), %rax	# args, tmp383
	addq	%rdx, %rax	# D.17499, D.17500
	movq	(%rax), %rax	# _64->tree_value, D.17498
	movq	40(%rax), %rax	# _65->exp.operands, D.17498
	movzbl	16(%rax), %eax	# _66->common.code, D.17501
	movzbl	%al, %eax	# D.17501, D.17497
	cltq
	movzbl	tree_code_type(%rax), %eax	# tree_code_type, D.17502
	cmpb	$100, %al	#, D.17502
	jne	.L172	#,
	.loc 1 1225 0
	movl	-84(%rbp), %eax	# i, tmp385
	movslq	%eax, %rdx	# tmp385, D.17499
	movq	%rdx, %rax	# D.17499, tmp386
	salq	$2, %rax	#, tmp386
	addq	%rdx, %rax	# D.17499, tmp386
	salq	$2, %rax	#, tmp386
	addq	%rdx, %rax	# D.17499, tmp386
	salq	$3, %rax	#, tmp387
	movq	%rax, %rdx	# tmp386, D.17499
	movq	-112(%rbp), %rax	# args, tmp388
	addq	%rdx, %rax	# D.17499, D.17500
	movq	(%rax), %rax	# _72->tree_value, D.17498
	movq	40(%rax), %rax	# _73->exp.operands, D.17498
	movq	144(%rax), %rax	# _74->decl.rtl, D.17503
	testq	%rax, %rax	# D.17503
	je	.L173	#,
	.loc 1 1225 0 is_stmt 0 discriminator 1
	movl	-84(%rbp), %eax	# i, tmp389
	movslq	%eax, %rdx	# tmp389, D.17499
	movq	%rdx, %rax	# D.17499, tmp390
	salq	$2, %rax	#, tmp390
	addq	%rdx, %rax	# D.17499, tmp390
	salq	$2, %rax	#, tmp390
	addq	%rdx, %rax	# D.17499, tmp390
	salq	$3, %rax	#, tmp391
	movq	%rax, %rdx	# tmp390, D.17499
	movq	-112(%rbp), %rax	# args, tmp392
	addq	%rdx, %rax	# D.17499, D.17500
	movq	(%rax), %rax	# _78->tree_value, D.17498
	movq	40(%rax), %rax	# _79->exp.operands, D.17498
	movq	144(%rax), %rax	# _80->decl.rtl, iftmp.59
	jmp	.L174	#
.L173:
	.loc 1 1225 0 discriminator 2
	movl	-84(%rbp), %eax	# i, tmp393
	movslq	%eax, %rdx	# tmp393, D.17499
	movq	%rdx, %rax	# D.17499, tmp394
	salq	$2, %rax	#, tmp394
	addq	%rdx, %rax	# D.17499, tmp394
	salq	$2, %rax	#, tmp394
	addq	%rdx, %rax	# D.17499, tmp394
	salq	$3, %rax	#, tmp395
	movq	%rax, %rdx	# tmp394, D.17499
	movq	-112(%rbp), %rax	# args, tmp396
	addq	%rdx, %rax	# D.17499, D.17500
	movq	(%rax), %rax	# _84->tree_value, D.17498
	movq	40(%rax), %rax	# _85->exp.operands, D.17498
	movl	$0, %esi	#,
	movq	%rax, %rdi	# D.17498,
	call	make_decl_rtl	#
	movl	-84(%rbp), %eax	# i, tmp397
	movslq	%eax, %rdx	# tmp397, D.17499
	movq	%rdx, %rax	# D.17499, tmp398
	salq	$2, %rax	#, tmp398
	addq	%rdx, %rax	# D.17499, tmp398
	salq	$2, %rax	#, tmp398
	addq	%rdx, %rax	# D.17499, tmp398
	salq	$3, %rax	#, tmp399
	movq	%rax, %rdx	# tmp398, D.17499
	movq	-112(%rbp), %rax	# args, tmp400
	addq	%rdx, %rax	# D.17499, D.17500
	movq	(%rax), %rax	# _89->tree_value, D.17498
	movq	40(%rax), %rax	# _90->exp.operands, D.17498
	movq	144(%rax), %rax	# _91->decl.rtl, iftmp.59
.L174:
	.loc 1 1225 0 discriminator 3
	movzwl	(%rax), %eax	# iftmp.59_10->code, D.17504
	cmpw	$61, %ax	#, D.17504
	je	.L172	#,
	.loc 1 1226 0 is_stmt 1
	movl	-84(%rbp), %eax	# i, tmp401
	movslq	%eax, %rdx	# tmp401, D.17499
	movq	%rdx, %rax	# D.17499, tmp402
	salq	$2, %rax	#, tmp402
	addq	%rdx, %rax	# D.17499, tmp402
	salq	$2, %rax	#, tmp402
	addq	%rdx, %rax	# D.17499, tmp402
	salq	$3, %rax	#, tmp403
	movq	%rax, %rdx	# tmp402, D.17499
	movq	-112(%rbp), %rax	# args, tmp404
	leaq	(%rdx,%rax), %rcx	#, D.17500
	movl	-84(%rbp), %eax	# i, tmp405
	movslq	%eax, %rdx	# tmp405, D.17499
	movq	%rdx, %rax	# D.17499, tmp406
	salq	$2, %rax	#, tmp406
	addq	%rdx, %rax	# D.17499, tmp406
	salq	$2, %rax	#, tmp406
	addq	%rdx, %rax	# D.17499, tmp406
	salq	$3, %rax	#, tmp407
	movq	%rax, %rdx	# tmp406, D.17499
	movq	-112(%rbp), %rax	# args, tmp408
	addq	%rdx, %rax	# D.17499, D.17500
	movq	(%rax), %rax	# _99->tree_value, D.17498
	movq	40(%rax), %rax	# _100->exp.operands, D.17498
	movq	%rax, (%rcx)	# D.17498, _96->tree_value
.L172:
	.loc 1 1228 0
	movl	-84(%rbp), %eax	# i, tmp409
	movslq	%eax, %rdx	# tmp409, D.17499
	movq	%rdx, %rax	# D.17499, tmp410
	salq	$2, %rax	#, tmp410
	addq	%rdx, %rax	# D.17499, tmp410
	salq	$2, %rax	#, tmp410
	addq	%rdx, %rax	# D.17499, tmp410
	salq	$3, %rax	#, tmp411
	movq	%rax, %rdx	# tmp410, D.17499
	movq	-112(%rbp), %rax	# args, tmp412
	leaq	(%rdx,%rax), %r12	#, D.17500
	.loc 1 1230 0
	movl	-84(%rbp), %eax	# i, tmp413
	movslq	%eax, %rdx	# tmp413, D.17499
	movq	%rdx, %rax	# D.17499, tmp414
	salq	$2, %rax	#, tmp414
	addq	%rdx, %rax	# D.17499, tmp414
	salq	$2, %rax	#, tmp414
	addq	%rdx, %rax	# D.17499, tmp414
	salq	$3, %rax	#, tmp415
	movq	%rax, %rdx	# tmp414, D.17499
	movq	-112(%rbp), %rax	# args, tmp416
	addq	%rdx, %rax	# D.17499, D.17500
	.loc 1 1228 0
	movq	(%rax), %rbx	# _107->tree_value, D.17498
	movq	-64(%rbp), %rax	# type, tmp417
	movq	%rax, %rdi	# tmp417,
	call	build_pointer_type	#
	movq	%rbx, %rdx	# D.17498,
	movq	%rax, %rsi	# D.17498,
	movl	$121, %edi	#,
	call	build1	#
	movq	%rax, (%r12)	# D.17498, _104->tree_value
	.loc 1 1231 0
	movq	-64(%rbp), %rax	# type, tmp418
	movq	%rax, %rdi	# tmp418,
	call	build_pointer_type	#
	movq	%rax, -64(%rbp)	# tmp419, type
	jmp	.L170	#
.L171:
	.loc 1 1233 0
	movl	-84(%rbp), %eax	# i, tmp420
	movslq	%eax, %rdx	# tmp420, D.17499
	movq	%rdx, %rax	# D.17499, tmp421
	salq	$2, %rax	#, tmp421
	addq	%rdx, %rax	# D.17499, tmp421
	salq	$2, %rax	#, tmp421
	addq	%rdx, %rax	# D.17499, tmp421
	salq	$3, %rax	#, tmp422
	movq	%rax, %rdx	# tmp421, D.17499
	movq	-112(%rbp), %rax	# args, tmp423
	addq	%rdx, %rax	# D.17499, D.17500
	movq	(%rax), %rax	# _114->tree_value, D.17498
	movzbl	16(%rax), %eax	# _115->common.code, D.17501
	cmpb	$50, %al	#, D.17501
	jne	.L175	#,
	.loc 1 1238 0
	movl	-84(%rbp), %eax	# i, tmp424
	movslq	%eax, %rdx	# tmp424, D.17499
	movq	%rdx, %rax	# D.17499, tmp425
	salq	$2, %rax	#, tmp425
	addq	%rdx, %rax	# D.17499, tmp425
	salq	$2, %rax	#, tmp425
	addq	%rdx, %rax	# D.17499, tmp425
	salq	$3, %rax	#, tmp426
	movq	%rax, %rdx	# tmp425, D.17499
	movq	-112(%rbp), %rax	# args, tmp427
	leaq	(%rdx,%rax), %r12	#, D.17500
	.loc 1 1240 0
	movl	-84(%rbp), %eax	# i, tmp428
	movslq	%eax, %rdx	# tmp428, D.17499
	movq	%rdx, %rax	# D.17499, tmp429
	salq	$2, %rax	#, tmp429
	addq	%rdx, %rax	# D.17499, tmp429
	salq	$2, %rax	#, tmp429
	addq	%rdx, %rax	# D.17499, tmp429
	salq	$3, %rax	#, tmp430
	movq	%rax, %rdx	# tmp429, D.17499
	movq	-112(%rbp), %rax	# args, tmp431
	addq	%rdx, %rax	# D.17499, D.17500
	.loc 1 1238 0
	movq	(%rax), %rbx	# _122->tree_value, D.17498
	movq	-64(%rbp), %rax	# type, tmp432
	movq	%rax, %rdi	# tmp432,
	call	build_pointer_type	#
	movq	%rbx, %rdx	# D.17498,
	movq	%rax, %rsi	# D.17498,
	movl	$121, %edi	#,
	call	build1	#
	movq	%rax, (%r12)	# D.17498, _119->tree_value
	.loc 1 1241 0
	movq	-64(%rbp), %rax	# type, tmp433
	movq	%rax, %rdi	# tmp433,
	call	build_pointer_type	#
	movq	%rax, -64(%rbp)	# tmp434, type
	jmp	.L170	#
.L175:
.LBB11:
	.loc 1 1249 0
	movq	-64(%rbp), %rax	# type, tmp435
	movq	32(%rax), %rax	# type_7->type.size, D.17498
	testq	%rax, %rax	# D.17498
	je	.L176	#,
	.loc 1 1250 0
	movq	-64(%rbp), %rax	# type, tmp436
	movq	32(%rax), %rax	# type_7->type.size, D.17498
	movzbl	16(%rax), %eax	# _128->common.code, D.17501
	cmpb	$25, %al	#, D.17501
	jne	.L176	#,
	.loc 1 1251 0
	movl	flag_stack_check(%rip), %eax	# flag_stack_check, flag_stack_check.60
	testl	%eax, %eax	# flag_stack_check.60
	je	.L177	#,
	.loc 1 1252 0
	movq	-64(%rbp), %rax	# type, tmp437
	movq	40(%rax), %rax	# type_7->type.size_unit, D.17498
	movl	$40, %esi	#,
	movq	%rax, %rdi	# D.17498,
	call	compare_tree_int	#
	testl	%eax, %eax	# D.17497
	jle	.L177	#,
.L176:
.LBB12:
	.loc 1 1257 0
	movq	-72(%rbp), %rax	# p, tmp438
	movq	32(%rax), %rax	# p_5->list.value, D.17498
	movq	%rax, %rdi	# D.17498,
	call	expr_size	#
	movq	%rax, -48(%rbp)	# tmp439, size_rtx
	.loc 1 1259 0
	movq	32(%rbp), %rax	# old_stack_level, tmp440
	movq	(%rax), %rax	# *old_stack_level_136(D), D.17503
	testq	%rax, %rax	# D.17503
	jne	.L178	#,
	.loc 1 1261 0
	movq	32(%rbp), %rax	# old_stack_level, tmp441
	movl	$0, %edx	#,
	movq	%rax, %rsi	# tmp441,
	movl	$0, %edi	#,
	call	emit_stack_save	#
	.loc 1 1262 0
	movq	cfun(%rip), %rax	# cfun, cfun.61
	movq	16(%rax), %rax	# cfun.61_138->expr, D.17505
	movl	(%rax), %edx	# _139->x_pending_stack_adjust, D.17497
	movq	40(%rbp), %rax	# old_pending_adj, tmp442
	movl	%edx, (%rax)	# D.17497, *old_pending_adj_141(D)
	.loc 1 1263 0
	movq	cfun(%rip), %rax	# cfun, cfun.62
	movq	16(%rax), %rax	# cfun.62_142->expr, D.17505
	movl	$0, (%rax)	#, _143->x_pending_stack_adjust
.L178:
	.loc 1 1268 0
	movq	-64(%rbp), %rax	# type, tmp443
	movl	64(%rax), %eax	# type_7->type.align, D.17506
	.loc 1 1266 0
	movl	%eax, %edx	# D.17506, D.17497
	movq	-48(%rbp), %rax	# size_rtx, tmp444
	movl	$0, %esi	#,
	movq	%rax, %rdi	# tmp444,
	call	allocate_dynamic_stack_space	#
	movq	%rax, %rsi	# D.17503,
	movl	$51, %edi	#,
	call	gen_rtx_MEM	#
	movq	%rax, -56(%rbp)	# tmp445, copy
	.loc 1 1269 0
	movq	-64(%rbp), %rcx	# type, tmp446
	movq	-56(%rbp), %rax	# copy, tmp447
	movl	$1, %edx	#,
	movq	%rcx, %rsi	# tmp446,
	movq	%rax, %rdi	# tmp447,
	call	set_mem_attributes	#
.LBE12:
	.loc 1 1254 0
	jmp	.L179	#
.L177:
	.loc 1 1272 0
	movq	-64(%rbp), %rax	# type, tmp448
	movl	$0, %ecx	#,
	movl	$1, %edx	#,
	movl	$0, %esi	#,
	movq	%rax, %rdi	# tmp448,
	call	assign_temp	#
	movq	%rax, -56(%rbp)	# tmp449, copy
.L179:
	.loc 1 1274 0
	movl	-84(%rbp), %eax	# i, tmp450
	movslq	%eax, %rdx	# tmp450, D.17499
	movq	%rdx, %rax	# D.17499, tmp451
	salq	$2, %rax	#, tmp451
	addq	%rdx, %rax	# D.17499, tmp451
	salq	$2, %rax	#, tmp451
	addq	%rdx, %rax	# D.17499, tmp451
	salq	$3, %rax	#, tmp452
	movq	%rax, %rdx	# tmp451, D.17499
	movq	-112(%rbp), %rax	# args, tmp453
	addq	%rdx, %rax	# D.17499, D.17500
	movq	(%rax), %rax	# _150->tree_value, D.17498
	movq	-56(%rbp), %rcx	# copy, tmp454
	movl	$0, %edx	#,
	movq	%rcx, %rsi	# tmp454,
	movq	%rax, %rdi	# D.17498,
	call	store_expr	#
	.loc 1 1275 0
	movq	56(%rbp), %rax	# ecf_flags, tmp455
	movl	(%rax), %eax	# *ecf_flags_152(D), D.17497
	andl	$-4610, %eax	#, D.17497
	movl	%eax, %edx	# D.17497, D.17497
	movq	56(%rbp), %rax	# ecf_flags, tmp456
	movl	%edx, (%rax)	# D.17497, *ecf_flags_152(D)
	.loc 1 1277 0
	movl	-84(%rbp), %eax	# i, tmp457
	movslq	%eax, %rdx	# tmp457, D.17499
	movq	%rdx, %rax	# D.17499, tmp458
	salq	$2, %rax	#, tmp458
	addq	%rdx, %rax	# D.17499, tmp458
	salq	$2, %rax	#, tmp458
	addq	%rdx, %rax	# D.17499, tmp458
	salq	$3, %rax	#, tmp459
	movq	%rax, %rdx	# tmp458, D.17499
	movq	-112(%rbp), %rax	# args, tmp460
	leaq	(%rdx,%rax), %r12	#, D.17500
	movq	-56(%rbp), %rdx	# copy, tmp461
	movq	-64(%rbp), %rax	# type, tmp462
	movq	%rdx, %rsi	# tmp461,
	movq	%rax, %rdi	# tmp462,
	call	make_tree	#
	movq	%rax, %rbx	#, D.17498
	movq	-64(%rbp), %rax	# type, tmp463
	movq	%rax, %rdi	# tmp463,
	call	build_pointer_type	#
	movq	%rbx, %rdx	# D.17498,
	movq	%rax, %rsi	# D.17498,
	movl	$121, %edi	#,
	call	build1	#
	movq	%rax, (%r12)	# D.17498, _157->tree_value
	.loc 1 1280 0
	movq	-64(%rbp), %rax	# type, tmp464
	movq	%rax, %rdi	# tmp464,
	call	build_pointer_type	#
	movq	%rax, -64(%rbp)	# tmp465, type
.L170:
.LBE11:
	.loc 1 1284 0
	movq	-64(%rbp), %rax	# type, tmp466
	movzbl	61(%rax), %eax	# *type_8, tmp469
	shrb	%al	# D.17507
	movzbl	%al, %eax	# D.17507, tmp470
	movl	%eax, -80(%rbp)	# tmp470, mode
	.loc 1 1285 0
	movq	-64(%rbp), %rax	# type, tmp471
	movzbl	17(%rax), %eax	# *type_8, tmp474
	shrb	$5, %al	#, D.17508
	andl	$1, %eax	#, D.17508
	movzbl	%al, %eax	# D.17508, tmp475
	movl	%eax, -76(%rbp)	# tmp475, unsignedp
	.loc 1 1291 0
	movl	-84(%rbp), %eax	# i, tmp476
	movslq	%eax, %rdx	# tmp476, D.17499
	movq	%rdx, %rax	# D.17499, tmp477
	salq	$2, %rax	#, tmp477
	addq	%rdx, %rax	# D.17499, tmp477
	salq	$2, %rax	#, tmp477
	addq	%rdx, %rax	# D.17499, tmp477
	salq	$3, %rax	#, tmp478
	movq	%rax, %rdx	# tmp477, D.17499
	movq	-112(%rbp), %rax	# args, tmp479
	addq	%rax, %rdx	# tmp479, D.17500
	movl	-76(%rbp), %eax	# unsignedp, tmp480
	movl	%eax, 48(%rdx)	# tmp480, _168->unsignedp
	.loc 1 1292 0
	movl	-84(%rbp), %eax	# i, tmp481
	movslq	%eax, %rdx	# tmp481, D.17499
	movq	%rdx, %rax	# D.17499, tmp482
	salq	$2, %rax	#, tmp482
	addq	%rdx, %rax	# D.17499, tmp482
	salq	$2, %rax	#, tmp482
	addq	%rdx, %rax	# D.17499, tmp482
	salq	$3, %rax	#, tmp483
	movq	%rax, %rdx	# tmp482, D.17499
	movq	-112(%rbp), %rax	# args, tmp484
	addq	%rax, %rdx	# tmp484, D.17500
	movl	-80(%rbp), %eax	# mode, tmp485
	movl	%eax, 8(%rdx)	# tmp485, _171->mode
	.loc 1 1294 0
	movl	-84(%rbp), %eax	# i, tmp486
	movslq	%eax, %rdx	# tmp486, D.17499
	movq	%rdx, %rax	# D.17499, tmp487
	salq	$2, %rax	#, tmp487
	addq	%rdx, %rax	# D.17499, tmp487
	salq	$2, %rax	#, tmp487
	addq	%rdx, %rax	# D.17499, tmp487
	salq	$3, %rax	#, tmp488
	movq	%rax, %rdx	# tmp487, D.17499
	movq	-112(%rbp), %rax	# args, tmp489
	leaq	(%rdx,%rax), %rbx	#, D.17500
	movl	-88(%rbp), %eax	# argpos, tmp490
	cmpl	-104(%rbp), %eax	# n_named_args, tmp490
	setl	%al	#, D.17509
	movzbl	%al, %ecx	# D.17509, D.17497
	movq	-64(%rbp), %rdx	# type, tmp491
	movl	-80(%rbp), %eax	# mode, tmp492
	movl	%eax, %esi	# tmp492,
	movq	16(%rbp), %rdi	# args_so_far,
	call	function_arg	#
	movq	%rax, 32(%rbx)	# D.17503, _174->reg
	.loc 1 1303 0
	movl	-84(%rbp), %eax	# i, tmp493
	movslq	%eax, %rdx	# tmp493, D.17499
	movq	%rdx, %rax	# D.17499, tmp494
	salq	$2, %rax	#, tmp494
	addq	%rdx, %rax	# D.17499, tmp494
	salq	$2, %rax	#, tmp494
	addq	%rdx, %rax	# D.17499, tmp494
	salq	$3, %rax	#, tmp495
	movq	%rax, %rdx	# tmp494, D.17499
	movq	-112(%rbp), %rax	# args, tmp496
	leaq	(%rdx,%rax), %rcx	#, D.17500
	movl	-84(%rbp), %eax	# i, tmp497
	movslq	%eax, %rdx	# tmp497, D.17499
	movq	%rdx, %rax	# D.17499, tmp498
	salq	$2, %rax	#, tmp498
	addq	%rdx, %rax	# D.17499, tmp498
	salq	$2, %rax	#, tmp498
	addq	%rdx, %rax	# D.17499, tmp498
	salq	$3, %rax	#, tmp499
	movq	%rax, %rdx	# tmp498, D.17499
	movq	-112(%rbp), %rax	# args, tmp500
	addq	%rdx, %rax	# D.17499, D.17500
	movq	32(%rax), %rax	# _185->reg, D.17503
	movq	%rax, 40(%rcx)	# D.17503, _182->tail_call_reg
	.loc 1 1307 0
	movl	-84(%rbp), %eax	# i, tmp501
	movslq	%eax, %rdx	# tmp501, D.17499
	movq	%rdx, %rax	# D.17499, tmp502
	salq	$2, %rax	#, tmp502
	addq	%rdx, %rax	# D.17499, tmp502
	salq	$2, %rax	#, tmp502
	addq	%rdx, %rax	# D.17499, tmp502
	salq	$3, %rax	#, tmp503
	movq	%rax, %rdx	# tmp502, D.17499
	movq	-112(%rbp), %rax	# args, tmp504
	addq	%rdx, %rax	# D.17499, D.17500
	movq	32(%rax), %rax	# _189->reg, D.17503
	testq	%rax, %rax	# D.17503
	je	.L180	#,
	.loc 1 1308 0
	movl	-84(%rbp), %eax	# i, tmp505
	movslq	%eax, %rdx	# tmp505, D.17499
	movq	%rdx, %rax	# D.17499, tmp506
	salq	$2, %rax	#, tmp506
	addq	%rdx, %rax	# D.17499, tmp506
	salq	$2, %rax	#, tmp506
	addq	%rdx, %rax	# D.17499, tmp506
	salq	$3, %rax	#, tmp507
	movq	%rax, %rdx	# tmp506, D.17499
	movq	-112(%rbp), %rax	# args, tmp508
	addq	%rdx, %rax	# D.17499, D.17500
	.loc 1 1309 0
	movl	$0, 52(%rax)	#, _193->partial
.L180:
	.loc 1 1313 0
	movl	-84(%rbp), %eax	# i, tmp509
	movslq	%eax, %rdx	# tmp509, D.17499
	movq	%rdx, %rax	# D.17499, tmp510
	salq	$2, %rax	#, tmp510
	addq	%rdx, %rax	# D.17499, tmp510
	salq	$2, %rax	#, tmp510
	addq	%rdx, %rax	# D.17499, tmp510
	salq	$3, %rax	#, tmp511
	movq	%rax, %rdx	# tmp510, D.17499
	movq	-112(%rbp), %rax	# args, tmp512
	leaq	(%rdx,%rax), %rbx	#, D.17500
	cmpq	$0, -64(%rbp)	#, type
	je	.L181	#,
	.loc 1 1313 0 is_stmt 0 discriminator 1
	movq	-64(%rbp), %rax	# type, tmp513
	movq	32(%rax), %rax	# type_8->type.size, D.17498
	movzbl	16(%rax), %eax	# _197->common.code, D.17501
	cmpb	$25, %al	#, D.17501
	jne	.L182	#,
	.loc 1 1313 0 discriminator 4
	movq	-64(%rbp), %rax	# type, tmp514
	movzbl	17(%rax), %eax	# *type_8, D.17501
	andl	$4, %eax	#, D.17501
	testb	%al, %al	# D.17501
	jne	.L182	#,
	.loc 1 1313 0 discriminator 1
	cmpl	$6, -80(%rbp)	#, mode
	je	.L182	#,
	cmpl	$51, -80(%rbp)	#, mode
	jne	.L181	#,
	cmpq	$0, -64(%rbp)	#, type
	je	.L184	#,
	.loc 1 1313 0 discriminator 4
	movq	-64(%rbp), %rax	# type, tmp515
	movq	32(%rax), %rax	# type_8->type.size, D.17498
	movzbl	16(%rax), %eax	# _201->common.code, D.17501
	cmpb	$25, %al	#, D.17501
	jne	.L184	#,
	.loc 1 1313 0 discriminator 1
	movq	-64(%rbp), %rax	# type, tmp516
	movq	%rax, %rdi	# tmp516,
	call	int_size_in_bytes	#
	movl	target_flags(%rip), %edx	# target_flags, target_flags.66
	andl	$33554432, %edx	#, D.17497
	testl	%edx, %edx	# D.17497
	je	.L185	#,
	movl	$8, %esi	#, iftmp.65
	jmp	.L186	#
.L185:
	.loc 1 1313 0 discriminator 2
	movl	$4, %esi	#, iftmp.65
.L186:
	.loc 1 1313 0 discriminator 3
	cqto
	idivq	%rsi	# iftmp.65
	movq	%rdx, %rcx	# tmp517, tmp517
	movq	%rcx, %rax	# tmp517, D.17510
	testq	%rax, %rax	# D.17510
	je	.L181	#,
.L184:
	jmp	.L181	#
.L182:
	movl	$1, %eax	#, iftmp.63
	jmp	.L188	#
.L181:
	.loc 1 1313 0 discriminator 2
	movl	$0, %eax	#, iftmp.63
.L188:
	.loc 1 1313 0 discriminator 5
	movl	%eax, 56(%rbx)	# iftmp.63, _196->pass_on_stack
	.loc 1 1318 0 is_stmt 1 discriminator 5
	movl	-84(%rbp), %eax	# i, tmp519
	movslq	%eax, %rdx	# tmp519, D.17499
	movq	%rdx, %rax	# D.17499, tmp520
	salq	$2, %rax	#, tmp520
	addq	%rdx, %rax	# D.17499, tmp520
	salq	$2, %rax	#, tmp520
	addq	%rdx, %rax	# D.17499, tmp520
	salq	$3, %rax	#, tmp521
	movq	%rax, %rdx	# tmp520, D.17499
	movq	-112(%rbp), %rax	# args, tmp522
	addq	%rdx, %rax	# D.17499, D.17500
	movq	32(%rax), %rax	# _215->reg, D.17503
	testq	%rax, %rax	# D.17503
	je	.L189	#,
	.loc 1 1318 0 is_stmt 0 discriminator 1
	movl	-84(%rbp), %eax	# i, tmp523
	movslq	%eax, %rdx	# tmp523, D.17499
	movq	%rdx, %rax	# D.17499, tmp524
	salq	$2, %rax	#, tmp524
	addq	%rdx, %rax	# D.17499, tmp524
	salq	$2, %rax	#, tmp524
	addq	%rdx, %rax	# D.17499, tmp524
	salq	$3, %rax	#, tmp525
	movq	%rax, %rdx	# tmp524, D.17499
	movq	-112(%rbp), %rax	# args, tmp526
	addq	%rdx, %rax	# D.17499, D.17500
	movq	32(%rax), %rax	# _219->reg, D.17503
	movzwl	(%rax), %eax	# _220->code, D.17504
	cmpw	$39, %ax	#, D.17504
	jne	.L189	#,
	.loc 1 1319 0 is_stmt 1
	movl	-84(%rbp), %eax	# i, tmp527
	movslq	%eax, %rdx	# tmp527, D.17499
	movq	%rdx, %rax	# D.17499, tmp528
	salq	$2, %rax	#, tmp528
	addq	%rdx, %rax	# D.17499, tmp528
	salq	$2, %rax	#, tmp528
	addq	%rdx, %rax	# D.17499, tmp528
	salq	$3, %rax	#, tmp529
	movq	%rax, %rdx	# tmp528, D.17499
	movq	-112(%rbp), %rax	# args, tmp530
	addq	%rdx, %rax	# D.17499, D.17500
	movq	32(%rax), %rax	# _224->reg, D.17503
	movq	8(%rax), %rax	# _225->fld[0].rtvec, D.17511
	movq	8(%rax), %rax	# _226->elem, D.17503
	movq	8(%rax), %rax	# _227->fld[0].rtx, D.17503
	testq	%rax, %rax	# D.17503
	jne	.L189	#,
	.loc 1 1320 0
	movl	-84(%rbp), %eax	# i, tmp531
	movslq	%eax, %rdx	# tmp531, D.17499
	movq	%rdx, %rax	# D.17499, tmp532
	salq	$2, %rax	#, tmp532
	addq	%rdx, %rax	# D.17499, tmp532
	salq	$2, %rax	#, tmp532
	addq	%rdx, %rax	# D.17499, tmp532
	salq	$3, %rax	#, tmp533
	movq	%rax, %rdx	# tmp532, D.17499
	movq	-112(%rbp), %rax	# args, tmp534
	addq	%rdx, %rax	# D.17499, D.17500
	movl	$1, 56(%rax)	#, _231->pass_on_stack
.L189:
	.loc 1 1327 0
	movq	-64(%rbp), %rax	# type, tmp535
	movzbl	17(%rax), %eax	# *type_8, D.17501
	andl	$4, %eax	#, D.17501
	testb	%al, %al	# D.17501
	jne	.L190	#,
	.loc 1 1328 0
	movl	-84(%rbp), %eax	# i, tmp536
	movslq	%eax, %rdx	# tmp536, D.17499
	movq	%rdx, %rax	# D.17499, tmp537
	salq	$2, %rax	#, tmp537
	addq	%rdx, %rax	# D.17499, tmp537
	salq	$2, %rax	#, tmp537
	addq	%rdx, %rax	# D.17499, tmp537
	salq	$3, %rax	#, tmp538
	movq	%rax, %rdx	# tmp537, D.17499
	movq	-112(%rbp), %rax	# args, tmp539
	addq	%rdx, %rax	# D.17499, D.17500
	movl	56(%rax), %eax	# _236->pass_on_stack, D.17497
	testl	%eax, %eax	# D.17497
	je	.L191	#,
	.loc 1 1328 0 is_stmt 0 discriminator 1
	movl	-84(%rbp), %eax	# i, tmp540
	movslq	%eax, %rdx	# tmp540, D.17499
	movq	%rdx, %rax	# D.17499, tmp541
	salq	$2, %rax	#, tmp541
	addq	%rdx, %rax	# D.17499, tmp541
	salq	$2, %rax	#, tmp541
	addq	%rdx, %rax	# D.17499, tmp541
	salq	$3, %rax	#, tmp542
	movq	%rax, %rdx	# tmp541, D.17499
	movq	-112(%rbp), %rax	# args, tmp543
	addq	%rdx, %rax	# D.17499, D.17500
	movq	32(%rax), %rax	# _240->reg, D.17503
	testq	%rax, %rax	# D.17503
	je	.L191	#,
.L190:
	.loc 1 1329 0 is_stmt 1
	movq	48(%rbp), %rax	# must_preallocate, tmp544
	movl	$1, (%rax)	#, *must_preallocate_242(D)
.L191:
	.loc 1 1333 0
	movq	-64(%rbp), %rax	# type, tmp545
	movzbl	17(%rax), %eax	# *type_8, D.17501
	andl	$4, %eax	#, D.17501
	testb	%al, %al	# D.17501
	je	.L192	#,
	.loc 1 1334 0
	movq	56(%rbp), %rax	# ecf_flags, tmp546
	movl	(%rax), %eax	# *ecf_flags_152(D), D.17497
	andb	$239, %ah	#, D.17497
	movl	%eax, %edx	# D.17497, D.17497
	movq	56(%rbp), %rax	# ecf_flags, tmp547
	movl	%edx, (%rax)	# D.17497, *ecf_flags_152(D)
.L192:
	.loc 1 1337 0
	movl	-84(%rbp), %eax	# i, tmp548
	movslq	%eax, %rdx	# tmp548, D.17499
	movq	%rdx, %rax	# D.17499, tmp549
	salq	$2, %rax	#, tmp549
	addq	%rdx, %rax	# D.17499, tmp549
	salq	$2, %rax	#, tmp549
	addq	%rdx, %rax	# D.17499, tmp549
	salq	$3, %rax	#, tmp550
	movq	%rax, %rdx	# tmp549, D.17499
	movq	-112(%rbp), %rax	# args, tmp551
	addq	%rdx, %rax	# D.17499, D.17500
	movq	32(%rax), %rax	# _249->reg, D.17503
	testq	%rax, %rax	# D.17503
	je	.L193	#,
	.loc 1 1337 0 is_stmt 0 discriminator 1
	movl	-84(%rbp), %eax	# i, tmp552
	movslq	%eax, %rdx	# tmp552, D.17499
	movq	%rdx, %rax	# D.17499, tmp553
	salq	$2, %rax	#, tmp553
	addq	%rdx, %rax	# D.17499, tmp553
	salq	$2, %rax	#, tmp553
	addq	%rdx, %rax	# D.17499, tmp553
	salq	$3, %rax	#, tmp554
	movq	%rax, %rdx	# tmp553, D.17499
	movq	-112(%rbp), %rax	# args, tmp555
	addq	%rdx, %rax	# D.17499, D.17500
	movl	52(%rax), %eax	# _253->partial, D.17497
	testl	%eax, %eax	# D.17497
	jne	.L193	#,
	.loc 1 1338 0 is_stmt 1
	cmpl	$0, 24(%rbp)	#, reg_parm_stack_space
	jg	.L193	#,
	.loc 1 1339 0
	movl	-84(%rbp), %eax	# i, tmp556
	movslq	%eax, %rdx	# tmp556, D.17499
	movq	%rdx, %rax	# D.17499, tmp557
	salq	$2, %rax	#, tmp557
	addq	%rdx, %rax	# D.17499, tmp557
	salq	$2, %rax	#, tmp557
	addq	%rdx, %rax	# D.17499, tmp557
	salq	$3, %rax	#, tmp558
	movq	%rax, %rdx	# tmp557, D.17499
	movq	-112(%rbp), %rax	# args, tmp559
	addq	%rdx, %rax	# D.17499, D.17500
	movl	56(%rax), %eax	# _258->pass_on_stack, D.17497
	testl	%eax, %eax	# D.17497
	je	.L194	#,
.L193:
	.loc 1 1347 0
	movl	-84(%rbp), %eax	# i, tmp560
	movslq	%eax, %rdx	# tmp560, D.17499
	movq	%rdx, %rax	# D.17499, tmp561
	salq	$2, %rax	#, tmp561
	addq	%rdx, %rax	# D.17499, tmp561
	salq	$2, %rax	#, tmp561
	addq	%rdx, %rax	# D.17499, tmp561
	salq	$3, %rax	#, tmp562
	movq	%rax, %rdx	# tmp561, D.17499
	movq	-112(%rbp), %rax	# args, tmp563
	addq	%rdx, %rax	# D.17499, D.17500
	.loc 1 1340 0
	leaq	96(%rax), %r9	#, D.17512
	.loc 1 1346 0
	movl	-84(%rbp), %eax	# i, tmp564
	movslq	%eax, %rdx	# tmp564, D.17499
	movq	%rdx, %rax	# D.17499, tmp565
	salq	$2, %rax	#, tmp565
	addq	%rdx, %rax	# D.17499, tmp565
	salq	$2, %rax	#, tmp565
	addq	%rdx, %rax	# D.17499, tmp565
	salq	$3, %rax	#, tmp566
	movq	%rax, %rdx	# tmp565, D.17499
	movq	-112(%rbp), %rax	# args, tmp567
	addq	%rdx, %rax	# D.17499, D.17500
	.loc 1 1340 0
	leaq	64(%rax), %r10	#, D.17512
	.loc 1 1344 0
	movl	-84(%rbp), %eax	# i, tmp568
	movslq	%eax, %rdx	# tmp568, D.17499
	movq	%rdx, %rax	# D.17499, tmp569
	salq	$2, %rax	#, tmp569
	addq	%rdx, %rax	# D.17499, tmp569
	salq	$2, %rax	#, tmp569
	addq	%rdx, %rax	# D.17499, tmp569
	salq	$3, %rax	#, tmp570
	movq	%rax, %rdx	# tmp569, D.17499
	movq	-112(%rbp), %rax	# args, tmp571
	addq	%rdx, %rax	# D.17499, D.17500
	movq	32(%rax), %rax	# _270->reg, D.17503
	.loc 1 1340 0
	testq	%rax, %rax	# D.17503
	setne	%al	#, D.17509
	movzbl	%al, %edx	# D.17509, D.17497
	movq	-120(%rbp), %r8	# args_size, tmp572
	movq	-136(%rbp), %rcx	# fndecl, tmp573
	movq	-64(%rbp), %rsi	# type, tmp574
	movl	-80(%rbp), %eax	# mode, tmp575
	leaq	-32(%rbp), %rdi	#, tmp576
	movq	%rdi, 8(%rsp)	# tmp576,
	movq	%r9, (%rsp)	# D.17512,
	movq	%r10, %r9	# D.17512,
	movl	%eax, %edi	# tmp575,
	call	locate_and_pad_parm	#
.L194:
	.loc 1 1350 0
	movl	-84(%rbp), %eax	# i, tmp577
	movslq	%eax, %rdx	# tmp577, D.17499
	movq	%rdx, %rax	# D.17499, tmp578
	salq	$2, %rax	#, tmp578
	addq	%rdx, %rax	# D.17499, tmp578
	salq	$2, %rax	#, tmp578
	addq	%rdx, %rax	# D.17499, tmp578
	salq	$3, %rax	#, tmp579
	movq	%rax, %rdx	# tmp578, D.17499
	movq	-112(%rbp), %rax	# args, tmp580
	leaq	(%rdx,%rax), %rcx	#, D.17500
	movq	-120(%rbp), %rax	# args_size, tmp581
	movq	8(%rax), %rdx	# *args_size_16(D),
	movq	(%rax), %rax	# *args_size_16(D), tmp582
	movq	%rax, 80(%rcx)	# tmp582, _277->slot_offset
	movq	%rdx, 88(%rcx)	#, _277->slot_offset
	.loc 1 1353 0
	movl	-84(%rbp), %eax	# i, tmp583
	movslq	%eax, %rdx	# tmp583, D.17499
	movq	%rdx, %rax	# D.17499, tmp584
	salq	$2, %rax	#, tmp584
	addq	%rdx, %rax	# D.17499, tmp584
	salq	$2, %rax	#, tmp584
	addq	%rdx, %rax	# D.17499, tmp584
	salq	$3, %rax	#, tmp585
	movq	%rax, %rdx	# tmp584, D.17499
	movq	-112(%rbp), %rax	# args, tmp586
	leaq	(%rdx,%rax), %rcx	#, D.17500
	movq	-32(%rbp), %rax	# alignment_pad, tmp587
	movq	-24(%rbp), %rdx	# alignment_pad,
	movq	%rax, 152(%rcx)	# tmp587, _280->alignment_pad
	movq	%rdx, 160(%rcx)	#, _280->alignment_pad
	.loc 1 1357 0
	cmpl	$0, 24(%rbp)	#, reg_parm_stack_space
	jne	.L195	#,
	.loc 1 1357 0 is_stmt 0 discriminator 1
	movl	-84(%rbp), %eax	# i, tmp588
	movslq	%eax, %rdx	# tmp588, D.17499
	movq	%rdx, %rax	# D.17499, tmp589
	salq	$2, %rax	#, tmp589
	addq	%rdx, %rax	# D.17499, tmp589
	salq	$2, %rax	#, tmp589
	addq	%rdx, %rax	# D.17499, tmp589
	salq	$3, %rax	#, tmp590
	movq	%rax, %rdx	# tmp589, D.17499
	movq	-112(%rbp), %rax	# args, tmp591
	addq	%rdx, %rax	# D.17499, D.17500
	movl	56(%rax), %eax	# _283->pass_on_stack, D.17497
	testl	%eax, %eax	# D.17497
	jne	.L195	#,
	.loc 1 1358 0 is_stmt 1
	movl	-84(%rbp), %eax	# i, tmp592
	movslq	%eax, %rdx	# tmp592, D.17499
	movq	%rdx, %rax	# D.17499, tmp593
	salq	$2, %rax	#, tmp593
	addq	%rdx, %rax	# D.17499, tmp593
	salq	$2, %rax	#, tmp593
	addq	%rdx, %rax	# D.17499, tmp593
	salq	$3, %rax	#, tmp594
	movq	%rax, %rdx	# tmp593, D.17499
	movq	-112(%rbp), %rax	# args, tmp595
	leaq	(%rdx,%rax), %rcx	#, D.17500
	movl	-84(%rbp), %eax	# i, tmp596
	movslq	%eax, %rdx	# tmp596, D.17499
	movq	%rdx, %rax	# D.17499, tmp597
	salq	$2, %rax	#, tmp597
	addq	%rdx, %rax	# D.17499, tmp597
	salq	$2, %rax	#, tmp597
	addq	%rdx, %rax	# D.17499, tmp597
	salq	$3, %rax	#, tmp598
	movq	%rax, %rdx	# tmp597, D.17499
	movq	-112(%rbp), %rax	# args, tmp599
	addq	%rdx, %rax	# D.17499, D.17500
	movq	96(%rax), %rsi	# _290->size.constant, D.17510
	movl	-84(%rbp), %eax	# i, tmp600
	movslq	%eax, %rdx	# tmp600, D.17499
	movq	%rdx, %rax	# D.17499, tmp601
	salq	$2, %rax	#, tmp601
	addq	%rdx, %rax	# D.17499, tmp601
	salq	$2, %rax	#, tmp601
	addq	%rdx, %rax	# D.17499, tmp601
	salq	$3, %rax	#, tmp602
	movq	%rax, %rdx	# tmp601, D.17499
	movq	-112(%rbp), %rax	# args, tmp603
	addq	%rdx, %rax	# D.17499, D.17500
	movl	52(%rax), %edx	# _294->partial, D.17497
	movl	target_flags(%rip), %eax	# target_flags, target_flags.68
	andl	$33554432, %eax	#, D.17497
	testl	%eax, %eax	# D.17497
	je	.L196	#,
	.loc 1 1358 0 is_stmt 0 discriminator 1
	movl	$8, %eax	#, iftmp.67
	jmp	.L197	#
.L196:
	.loc 1 1358 0 discriminator 2
	movl	$4, %eax	#, iftmp.67
.L197:
	.loc 1 1358 0 discriminator 3
	imull	%edx, %eax	# D.17497, D.17497
	.loc 1 1359 0 is_stmt 1 discriminator 3
	movl	target_flags(%rip), %edx	# target_flags, target_flags.70
	andl	$33554432, %edx	#, D.17497
	testl	%edx, %edx	# D.17497
	je	.L198	#,
	.loc 1 1359 0 is_stmt 0 discriminator 1
	movl	$8, %ebx	#, iftmp.69
	jmp	.L199	#
.L198:
	.loc 1 1359 0 discriminator 2
	movl	$4, %ebx	#, iftmp.69
.L199:
	.loc 1 1359 0 discriminator 3
	cltd
	idivl	%ebx	# iftmp.69
	movl	%eax, %edx	# tmp604, D.17497
	.loc 1 1360 0 is_stmt 1 discriminator 3
	movl	target_flags(%rip), %eax	# target_flags, target_flags.72
	andl	$33554432, %eax	#, D.17497
	testl	%eax, %eax	# D.17497
	je	.L200	#,
	.loc 1 1360 0 is_stmt 0 discriminator 1
	movl	$8, %eax	#, iftmp.71
	jmp	.L201	#
.L200:
	.loc 1 1360 0 discriminator 2
	movl	$4, %eax	#, iftmp.71
.L201:
	.loc 1 1360 0 discriminator 3
	imull	%edx, %eax	# D.17497, D.17497
	.loc 1 1358 0 is_stmt 1 discriminator 3
	cltq
	subq	%rax, %rsi	# D.17510, D.17510
	movq	%rsi, %rax	# D.17510, D.17510
	movq	%rax, 96(%rcx)	# D.17510, _287->size.constant
.L195:
	.loc 1 1364 0
	movq	-120(%rbp), %rax	# args_size, tmp606
	movq	(%rax), %rcx	# args_size_16(D)->constant, D.17510
	movl	-84(%rbp), %eax	# i, tmp607
	movslq	%eax, %rdx	# tmp607, D.17499
	movq	%rdx, %rax	# D.17499, tmp608
	salq	$2, %rax	#, tmp608
	addq	%rdx, %rax	# D.17499, tmp608
	salq	$2, %rax	#, tmp608
	addq	%rdx, %rax	# D.17499, tmp608
	salq	$3, %rax	#, tmp609
	movq	%rax, %rdx	# tmp608, D.17499
	movq	-112(%rbp), %rax	# args, tmp610
	addq	%rdx, %rax	# D.17499, D.17500
	movq	96(%rax), %rax	# _316->size.constant, D.17510
	leaq	(%rcx,%rax), %rdx	#, D.17510
	movq	-120(%rbp), %rax	# args_size, tmp611
	movq	%rdx, (%rax)	# D.17510, args_size_16(D)->constant
	.loc 1 1365 0
	movl	-84(%rbp), %eax	# i, tmp612
	movslq	%eax, %rdx	# tmp612, D.17499
	movq	%rdx, %rax	# D.17499, tmp613
	salq	$2, %rax	#, tmp613
	addq	%rdx, %rax	# D.17499, tmp613
	salq	$2, %rax	#, tmp613
	addq	%rdx, %rax	# D.17499, tmp613
	salq	$3, %rax	#, tmp614
	movq	%rax, %rdx	# tmp613, D.17499
	movq	-112(%rbp), %rax	# args, tmp615
	addq	%rdx, %rax	# D.17499, D.17500
	movq	104(%rax), %rax	# _321->size.var, D.17498
	testq	%rax, %rax	# D.17498
	je	.L202	#,
.LBB13:
	.loc 1 1367 0
	movl	-84(%rbp), %eax	# i, tmp616
	movslq	%eax, %rdx	# tmp616, D.17499
	movq	%rdx, %rax	# D.17499, tmp617
	salq	$2, %rax	#, tmp617
	addq	%rdx, %rax	# D.17499, tmp617
	salq	$2, %rax	#, tmp617
	addq	%rdx, %rax	# D.17499, tmp617
	salq	$3, %rax	#, tmp618
	movq	%rax, %rdx	# tmp617, D.17499
	movq	-112(%rbp), %rax	# args, tmp619
	addq	%rdx, %rax	# D.17499, D.17500
	movq	104(%rax), %rax	# _325->size.var, tmp620
	movq	%rax, -40(%rbp)	# tmp620, inc
	movq	-40(%rbp), %rax	# inc, tmp621
	movl	$0, %esi	#,
	movq	%rax, %rdi	# tmp621,
	call	host_integerp	#
	testl	%eax, %eax	# D.17497
	je	.L203	#,
	.loc 1 1367 0 is_stmt 0 discriminator 1
	movq	-120(%rbp), %rax	# args_size, tmp622
	movq	(%rax), %rbx	# args_size_16(D)->constant, D.17510
	movq	-40(%rbp), %rax	# inc, tmp623
	movl	$0, %esi	#,
	movq	%rax, %rdi	# tmp623,
	call	tree_low_cst	#
	leaq	(%rbx,%rax), %rdx	#, D.17510
	movq	-120(%rbp), %rax	# args_size, tmp624
	movq	%rdx, (%rax)	# D.17510, args_size_16(D)->constant
	jmp	.L202	#
.L203:
	.loc 1 1367 0 discriminator 2
	movq	-120(%rbp), %rax	# args_size, tmp625
	movq	8(%rax), %rax	# args_size_16(D)->var, D.17498
	testq	%rax, %rax	# D.17498
	jne	.L204	#,
	.loc 1 1367 0 discriminator 1
	movq	sizetype_tab+8(%rip), %rax	# sizetype_tab, D.17498
	movq	-40(%rbp), %rdx	# inc, tmp626
	movq	%rdx, %rsi	# tmp626,
	movq	%rax, %rdi	# D.17498,
	call	convert	#
	movq	-120(%rbp), %rdx	# args_size, tmp627
	movq	%rax, 8(%rdx)	# D.17498, args_size_16(D)->var
	jmp	.L202	#
.L204:
	.loc 1 1367 0 discriminator 2
	movq	sizetype_tab+8(%rip), %rax	# sizetype_tab, D.17498
	movq	-40(%rbp), %rdx	# inc, tmp628
	movq	%rdx, %rsi	# tmp628,
	movq	%rax, %rdi	# D.17498,
	call	convert	#
	movq	%rax, %rdx	#, D.17498
	movq	-120(%rbp), %rax	# args_size, tmp629
	movq	8(%rax), %rax	# args_size_16(D)->var, D.17498
	movq	%rax, %rsi	# D.17498,
	movl	$59, %edi	#,
	call	size_binop	#
	movq	-120(%rbp), %rdx	# args_size, tmp630
	movq	%rax, 8(%rdx)	# D.17498, args_size_16(D)->var
.L202:
.LBE13:
	.loc 1 1383 0 is_stmt 1
	movl	-88(%rbp), %eax	# argpos, tmp631
	cmpl	-104(%rbp), %eax	# n_named_args, tmp631
	setl	%al	#, D.17509
	movzbl	%al, %ecx	# D.17509, D.17497
	movq	-64(%rbp), %rax	# type, tmp632
	movzbl	61(%rax), %eax	# *type_8, tmp635
	shrb	%al	# D.17507
	movzbl	%al, %eax	# D.17507, D.17513
	movq	-64(%rbp), %rdx	# type, tmp636
	movl	%eax, %esi	# D.17513,
	movq	16(%rbp), %rdi	# args_so_far,
	call	function_arg_advance	#
.LBE10:
	.loc 1 1158 0
	movq	-72(%rbp), %rax	# p, tmp637
	movq	(%rax), %rax	# p_5->common.chain, tmp638
	movq	%rax, -72(%rbp)	# tmp638, p
	movl	-92(%rbp), %eax	# inc, tmp639
	addl	%eax, -84(%rbp)	# tmp639, i
	addl	$1, -88(%rbp)	#, argpos
.L164:
	.loc 1 1158 0 is_stmt 0 discriminator 1
	cmpq	$0, -72(%rbp)	#, p
	jne	.L205	#,
	.loc 1 1386 0 is_stmt 1
	addq	$144, %rsp	#,
	popq	%rbx	#
	popq	%r12	#
	popq	%rbp	#
	.cfi_def_cfa 7, 8
	ret
	.cfi_endproc
.LFE13:
	.size	initialize_argument_information, .-initialize_argument_information
	.type	compute_argument_block_size, @function
compute_argument_block_size:
.LFB14:
	.loc 1 1400 0
	.cfi_startproc
	pushq	%rbp	#
	.cfi_def_cfa_offset 16
	.cfi_offset 6, -16
	movq	%rsp, %rbp	#,
	.cfi_def_cfa_register 6
	pushq	%rbx	#
	subq	$40, %rsp	#,
	.cfi_offset 3, -24
	movl	%edi, -36(%rbp)	# reg_parm_stack_space, reg_parm_stack_space
	movq	%rsi, -48(%rbp)	# args_size, args_size
	movl	%edx, -40(%rbp)	# preferred_stack_boundary, preferred_stack_boundary
	.loc 1 1401 0
	movq	-48(%rbp), %rax	# args_size, tmp118
	movq	(%rax), %rax	# args_size_6(D)->constant, D.17515
	movl	%eax, -20(%rbp)	# D.17515, unadjusted_args_size
	.loc 1 1406 0
	movl	target_flags(%rip), %eax	# target_flags, target_flags.73
	andl	$4096, %eax	#, D.17516
	testl	%eax, %eax	# D.17516
	je	.L207	#,
	.loc 1 1406 0 is_stmt 0 discriminator 1
	movl	target_flags(%rip), %eax	# target_flags, target_flags.75
	andl	$33554432, %eax	#, D.17516
	testl	%eax, %eax	# D.17516
	je	.L208	#,
	movl	$64, %eax	#, iftmp.74
	jmp	.L209	#
.L208:
	.loc 1 1406 0 discriminator 2
	movl	$32, %eax	#, iftmp.74
.L209:
	.loc 1 1406 0 discriminator 3
	cmpl	-40(%rbp), %eax	# preferred_stack_boundary, iftmp.74
	jge	.L207	#,
	.loc 1 1407 0 is_stmt 1
	movl	target_flags(%rip), %eax	# target_flags, target_flags.77
	andl	$33554432, %eax	#, D.17516
	testl	%eax, %eax	# D.17516
	je	.L210	#,
	.loc 1 1407 0 is_stmt 0 discriminator 1
	movl	$64, %eax	#, iftmp.76
	jmp	.L211	#
.L210:
	.loc 1 1407 0 discriminator 2
	movl	$32, %eax	#, iftmp.76
.L211:
	.loc 1 1407 0 discriminator 3
	movl	%eax, -40(%rbp)	# iftmp.76, preferred_stack_boundary
.L207:
	.loc 1 1413 0 is_stmt 1
	movq	-48(%rbp), %rax	# args_size, tmp119
	movq	8(%rax), %rax	# args_size_6(D)->var, D.17517
	testq	%rax, %rax	# D.17517
	je	.L212	#,
	.loc 1 1415 0
	movq	-48(%rbp), %rax	# args_size, tmp120
	movq	8(%rax), %rax	# args_size_6(D)->var, D.17517
	testq	%rax, %rax	# D.17517
	jne	.L213	#,
	.loc 1 1415 0 is_stmt 0 discriminator 1
	movq	-48(%rbp), %rax	# args_size, tmp121
	movq	(%rax), %rax	# args_size_6(D)->constant, D.17515
	movl	$1, %esi	#,
	movq	%rax, %rdi	# D.17515,
	call	size_int_wide	#
	jmp	.L214	#
.L213:
	.loc 1 1415 0 discriminator 2
	movq	-48(%rbp), %rax	# args_size, tmp122
	movq	(%rax), %rax	# args_size_6(D)->constant, D.17515
	movl	$1, %esi	#,
	movq	%rax, %rdi	# D.17515,
	call	size_int_wide	#
	movq	%rax, %rbx	#, D.17517
	movq	-48(%rbp), %rax	# args_size, tmp123
	movq	8(%rax), %rdx	# args_size_6(D)->var, D.17517
	movq	sizetype_tab+8(%rip), %rax	# sizetype_tab, D.17517
	movq	%rdx, %rsi	# D.17517,
	movq	%rax, %rdi	# D.17517,
	call	convert	#
	movq	%rbx, %rdx	# D.17517,
	movq	%rax, %rsi	# D.17517,
	movl	$59, %edi	#,
	call	size_binop	#
.L214:
	.loc 1 1415 0 discriminator 3
	movq	-48(%rbp), %rdx	# args_size, tmp124
	movq	%rax, 8(%rdx)	# iftmp.78, args_size_6(D)->var
	.loc 1 1416 0 is_stmt 1 discriminator 3
	movq	-48(%rbp), %rax	# args_size, tmp125
	movq	$0, (%rax)	#, args_size_6(D)->constant
	.loc 1 1418 0 discriminator 3
	movl	-40(%rbp), %eax	# preferred_stack_boundary, tmp127
	leal	7(%rax), %edx	#, tmp129
	testl	%eax, %eax	# tmp128
	cmovs	%edx, %eax	# tmp129,, tmp128
	sarl	$3, %eax	#, tmp130
	movl	%eax, -40(%rbp)	# tmp130, preferred_stack_boundary
	.loc 1 1419 0 discriminator 3
	cmpl	$1, -40(%rbp)	#, preferred_stack_boundary
	jle	.L215	#,
	.loc 1 1424 0
	movq	cfun(%rip), %rax	# cfun, cfun.79
	movq	16(%rax), %rax	# cfun.79_32->expr, D.17518
	movl	8(%rax), %eax	# _33->x_stack_pointer_delta, D.17516
	movl	-40(%rbp), %edx	# preferred_stack_boundary, tmp131
	subl	$1, %edx	#, D.17516
	andl	%edx, %eax	# D.17516, D.17516
	testl	%eax, %eax	# D.17516
	je	.L216	#,
	.loc 1 1425 0
	movl	$__FUNCTION__.12867, %edx	#,
	movl	$1425, %esi	#,
	movl	$.LC0, %edi	#,
	call	fancy_abort	#
.L216:
	.loc 1 1426 0
	movq	-48(%rbp), %rax	# args_size, tmp132
	movq	8(%rax), %rax	# args_size_6(D)->var, D.17517
	movl	-40(%rbp), %edx	# preferred_stack_boundary, tmp133
	movl	%edx, %esi	# tmp133,
	movq	%rax, %rdi	# D.17517,
	call	round_up	#
	movq	-48(%rbp), %rdx	# args_size, tmp134
	movq	%rax, 8(%rdx)	# D.17517, args_size_6(D)->var
.L215:
	.loc 1 1429 0
	cmpl	$0, -36(%rbp)	#, reg_parm_stack_space
	jle	.L218	#,
	.loc 1 1432 0
	movl	-36(%rbp), %eax	# reg_parm_stack_space, tmp135
	cltq
	movl	$1, %esi	#,
	movq	%rax, %rdi	# D.17515,
	call	size_int_wide	#
	movq	%rax, %rdx	#, D.17517
	movq	-48(%rbp), %rax	# args_size, tmp136
	movq	8(%rax), %rax	# args_size_6(D)->var, D.17517
	movq	%rax, %rsi	# D.17517,
	movl	$79, %edi	#,
	call	size_binop	#
	movq	-48(%rbp), %rdx	# args_size, tmp137
	movq	%rax, 8(%rdx)	# D.17517, args_size_6(D)->var
	.loc 1 1439 0
	movl	-36(%rbp), %eax	# reg_parm_stack_space, tmp138
	cltq
	movl	$1, %esi	#,
	movq	%rax, %rdi	# D.17515,
	call	size_int_wide	#
	movq	%rax, %rdx	#, D.17517
	movq	-48(%rbp), %rax	# args_size, tmp139
	movq	8(%rax), %rax	# args_size_6(D)->var, D.17517
	movq	%rax, %rsi	# D.17517,
	movl	$60, %edi	#,
	call	size_binop	#
	movq	-48(%rbp), %rdx	# args_size, tmp140
	movq	%rax, 8(%rdx)	# D.17517, args_size_6(D)->var
	jmp	.L218	#
.L212:
	.loc 1 1446 0
	movl	-40(%rbp), %eax	# preferred_stack_boundary, tmp142
	leal	7(%rax), %edx	#, tmp144
	testl	%eax, %eax	# tmp143
	cmovs	%edx, %eax	# tmp144,, tmp143
	sarl	$3, %eax	#, tmp145
	movl	%eax, -40(%rbp)	# tmp145, preferred_stack_boundary
	.loc 1 1447 0
	cmpl	$0, -40(%rbp)	#, preferred_stack_boundary
	jg	.L219	#,
	.loc 1 1448 0
	movl	$1, -40(%rbp)	#, preferred_stack_boundary
.L219:
	.loc 1 1449 0
	movq	-48(%rbp), %rax	# args_size, tmp146
	movq	(%rax), %rdx	# args_size_6(D)->constant, D.17515
	.loc 1 1450 0
	movq	cfun(%rip), %rax	# cfun, cfun.80
	movq	16(%rax), %rax	# cfun.80_51->expr, D.17518
	movl	8(%rax), %eax	# _52->x_stack_pointer_delta, D.17516
	cltq
	addq	%rax, %rdx	# D.17515, D.17515
	.loc 1 1451 0
	movl	-40(%rbp), %eax	# preferred_stack_boundary, tmp147
	cltq
	addq	%rdx, %rax	# D.17515, D.17515
	subq	$1, %rax	#, D.17515
	.loc 1 1452 0
	movl	-40(%rbp), %edx	# preferred_stack_boundary, tmp148
	movslq	%edx, %rcx	# tmp148, D.17515
	cqto
	idivq	%rcx	# D.17515
	movq	%rax, %rdx	# tmp149, D.17515
	.loc 1 1453 0
	movl	-40(%rbp), %eax	# preferred_stack_boundary, tmp151
	cltq
	imulq	%rax, %rdx	# D.17515, D.17515
	.loc 1 1454 0
	movq	cfun(%rip), %rax	# cfun, cfun.81
	movq	16(%rax), %rax	# cfun.81_63->expr, D.17518
	movl	8(%rax), %eax	# _64->x_stack_pointer_delta, D.17516
	cltq
	subq	%rax, %rdx	# D.17515, D.17515
	.loc 1 1449 0
	movq	-48(%rbp), %rax	# args_size, tmp152
	movq	%rdx, (%rax)	# D.17515, args_size_6(D)->constant
	.loc 1 1456 0
	movl	-36(%rbp), %eax	# reg_parm_stack_space, tmp153
	movslq	%eax, %rdx	# tmp153, D.17515
	movq	-48(%rbp), %rax	# args_size, tmp154
	movq	(%rax), %rax	# args_size_6(D)->constant, D.17515
	cmpq	%rax, %rdx	# D.17515, D.17515
	cmovl	%rax, %rdx	# D.17515,, D.17515, D.17515
	movq	-48(%rbp), %rax	# args_size, tmp155
	movq	%rdx, (%rax)	# D.17515, args_size_6(D)->constant
	.loc 1 1465 0
	movq	-48(%rbp), %rax	# args_size, tmp156
	movq	(%rax), %rdx	# args_size_6(D)->constant, D.17515
	movl	-36(%rbp), %eax	# reg_parm_stack_space, tmp157
	cltq
	subq	%rax, %rdx	# D.17515, D.17515
	movq	-48(%rbp), %rax	# args_size, tmp158
	movq	%rdx, (%rax)	# D.17515, args_size_6(D)->constant
.L218:
	.loc 1 1468 0
	movl	-20(%rbp), %eax	# unadjusted_args_size, D.17516
	.loc 1 1469 0
	addq	$40, %rsp	#,
	popq	%rbx	#
	popq	%rbp	#
	.cfi_def_cfa 7, 8
	ret
	.cfi_endproc
.LFE14:
	.size	compute_argument_block_size, .-compute_argument_block_size
	.type	precompute_arguments, @function
precompute_arguments:
.LFB15:
	.loc 1 1486 0
	.cfi_startproc
	pushq	%rbp	#
	.cfi_def_cfa_offset 16
	.cfi_offset 6, -16
	movq	%rsp, %rbp	#,
	.cfi_def_cfa_register 6
	pushq	%r12	#
	pushq	%rbx	#
	subq	$32, %rsp	#,
	.cfi_offset 12, -24
	.cfi_offset 3, -32
	movl	%edi, -36(%rbp)	# flags, flags
	movl	%esi, -40(%rbp)	# num_actuals, num_actuals
	movq	%rdx, -48(%rbp)	# args, args
	.loc 1 1504 0
	movl	$0, -24(%rbp)	#, i
	jmp	.L222	#
.L226:
	.loc 1 1505 0
	movl	-36(%rbp), %eax	# flags, tmp122
	andl	$4096, %eax	#, D.17521
	testl	%eax, %eax	# D.17521
	jne	.L223	#,
	.loc 1 1506 0
	movl	target_flags(%rip), %eax	# target_flags, target_flags.82
	andl	$4096, %eax	#, D.17521
	testl	%eax, %eax	# D.17521
	sete	%al	#, D.17522
	movzbl	%al, %ecx	# D.17522, D.17521
	movl	-24(%rbp), %eax	# i, tmp123
	movslq	%eax, %rdx	# tmp123, D.17523
	movq	%rdx, %rax	# D.17523, tmp124
	salq	$2, %rax	#, tmp124
	addq	%rdx, %rax	# D.17523, tmp124
	salq	$2, %rax	#, tmp124
	addq	%rdx, %rax	# D.17523, tmp124
	salq	$3, %rax	#, tmp125
	movq	%rax, %rdx	# tmp124, D.17523
	movq	-48(%rbp), %rax	# args, tmp126
	addq	%rdx, %rax	# D.17523, D.17524
	movq	(%rax), %rax	# _13->tree_value, D.17525
	movl	%ecx, %esi	# D.17521,
	movq	%rax, %rdi	# D.17525,
	call	calls_function	#
	testl	%eax, %eax	# D.17521
	je	.L224	#,
.L223:
.LBB14:
	.loc 1 1511 0
	movl	-24(%rbp), %eax	# i, tmp127
	movslq	%eax, %rdx	# tmp127, D.17523
	movq	%rdx, %rax	# D.17523, tmp128
	salq	$2, %rax	#, tmp128
	addq	%rdx, %rax	# D.17523, tmp128
	salq	$2, %rax	#, tmp128
	addq	%rdx, %rax	# D.17523, tmp128
	salq	$3, %rax	#, tmp129
	movq	%rax, %rdx	# tmp128, D.17523
	movq	-48(%rbp), %rax	# args, tmp130
	addq	%rdx, %rax	# D.17523, D.17524
	movq	(%rax), %rax	# _18->tree_value, D.17525
	movq	8(%rax), %rax	# _19->common.type, D.17525
	movzbl	17(%rax), %eax	# *_20, D.17526
	andl	$4, %eax	#, D.17526
	testb	%al, %al	# D.17526
	je	.L225	#,
	.loc 1 1512 0
	movl	$__FUNCTION__.12875, %edx	#,
	movl	$1512, %esi	#,
	movl	$.LC0, %edi	#,
	call	fancy_abort	#
.L225:
	.loc 1 1514 0
	movl	-24(%rbp), %eax	# i, tmp131
	movslq	%eax, %rdx	# tmp131, D.17523
	movq	%rdx, %rax	# D.17523, tmp132
	salq	$2, %rax	#, tmp132
	addq	%rdx, %rax	# D.17523, tmp132
	salq	$2, %rax	#, tmp132
	addq	%rdx, %rax	# D.17523, tmp132
	salq	$3, %rax	#, tmp133
	movq	%rax, %rdx	# tmp132, D.17523
	movq	-48(%rbp), %rax	# args, tmp134
	leaq	(%rdx,%rax), %rbx	#, D.17524
	.loc 1 1515 0
	movl	-24(%rbp), %eax	# i, tmp135
	movslq	%eax, %rdx	# tmp135, D.17523
	movq	%rdx, %rax	# D.17523, tmp136
	salq	$2, %rax	#, tmp136
	addq	%rdx, %rax	# D.17523, tmp136
	salq	$2, %rax	#, tmp136
	addq	%rdx, %rax	# D.17523, tmp136
	salq	$3, %rax	#, tmp137
	movq	%rax, %rdx	# tmp136, D.17523
	movq	-48(%rbp), %rax	# args, tmp138
	addq	%rdx, %rax	# D.17523, D.17524
	movq	(%rax), %rax	# _28->tree_value, D.17525
	movl	$0, %ecx	#,
	movl	$0, %edx	#,
	movl	$0, %esi	#,
	movq	%rax, %rdi	# D.17525,
	call	expand_expr	#
	movq	%rax, 16(%rbx)	# D.17527, _25->value
	.loc 1 1519 0
	call	emit_queue	#
	.loc 1 1521 0
	movl	-24(%rbp), %eax	# i, tmp139
	movslq	%eax, %rdx	# tmp139, D.17523
	movq	%rdx, %rax	# D.17523, tmp140
	salq	$2, %rax	#, tmp140
	addq	%rdx, %rax	# D.17523, tmp140
	salq	$2, %rax	#, tmp140
	addq	%rdx, %rax	# D.17523, tmp140
	salq	$3, %rax	#, tmp141
	movq	%rax, %rdx	# tmp140, D.17523
	movq	-48(%rbp), %rax	# args, tmp142
	leaq	(%rdx,%rax), %r12	#, D.17524
	movl	-24(%rbp), %eax	# i, tmp143
	movslq	%eax, %rdx	# tmp143, D.17523
	movq	%rdx, %rax	# D.17523, tmp144
	salq	$2, %rax	#, tmp144
	addq	%rdx, %rax	# D.17523, tmp144
	salq	$2, %rax	#, tmp144
	addq	%rdx, %rax	# D.17523, tmp144
	salq	$3, %rax	#, tmp145
	movq	%rax, %rdx	# tmp144, D.17523
	movq	-48(%rbp), %rax	# args, tmp146
	leaq	(%rdx,%rax), %rbx	#, D.17524
	.loc 1 1522 0
	movl	-24(%rbp), %eax	# i, tmp147
	movslq	%eax, %rdx	# tmp147, D.17523
	movq	%rdx, %rax	# D.17523, tmp148
	salq	$2, %rax	#, tmp148
	addq	%rdx, %rax	# D.17523, tmp148
	salq	$2, %rax	#, tmp148
	addq	%rdx, %rax	# D.17523, tmp148
	salq	$3, %rax	#, tmp149
	movq	%rax, %rdx	# tmp148, D.17523
	movq	-48(%rbp), %rax	# args, tmp150
	addq	%rdx, %rax	# D.17523, D.17524
	movq	16(%rax), %rax	# _39->value, D.17527
	movl	$0, %esi	#,
	movq	%rax, %rdi	# D.17527,
	call	protect_from_queue	#
	movq	%rax, 16(%rbx)	# D.17527, _36->value
	.loc 1 1521 0
	movq	16(%rbx), %rax	# _36->value, D.17527
	movq	%rax, 24(%r12)	# D.17527, _33->initial_value
	.loc 1 1524 0
	movl	-24(%rbp), %eax	# i, tmp151
	movslq	%eax, %rdx	# tmp151, D.17523
	movq	%rdx, %rax	# D.17523, tmp152
	salq	$2, %rax	#, tmp152
	addq	%rdx, %rax	# D.17523, tmp152
	salq	$2, %rax	#, tmp152
	addq	%rdx, %rax	# D.17523, tmp152
	salq	$3, %rax	#, tmp153
	movq	%rax, %rdx	# tmp152, D.17523
	movq	-48(%rbp), %rax	# args, tmp154
	addq	%rdx, %rax	# D.17523, D.17524
	movq	(%rax), %rax	# _45->tree_value, D.17525
	movq	8(%rax), %rax	# _46->common.type, D.17525
	movzbl	61(%rax), %eax	# *_47, tmp157
	shrb	%al	# D.17528
	movzbl	%al, %eax	# D.17528, tmp158
	movl	%eax, -20(%rbp)	# tmp158, mode
	.loc 1 1525 0
	movl	-24(%rbp), %eax	# i, tmp159
	movslq	%eax, %rdx	# tmp159, D.17523
	movq	%rdx, %rax	# D.17523, tmp160
	salq	$2, %rax	#, tmp160
	addq	%rdx, %rax	# D.17523, tmp160
	salq	$2, %rax	#, tmp160
	addq	%rdx, %rax	# D.17523, tmp160
	salq	$3, %rax	#, tmp161
	movq	%rax, %rdx	# tmp160, D.17523
	movq	-48(%rbp), %rax	# args, tmp162
	addq	%rdx, %rax	# D.17523, D.17524
	movl	8(%rax), %eax	# _52->mode, D.17529
	cmpl	-20(%rbp), %eax	# mode, D.17529
	je	.L224	#,
	.loc 1 1527 0
	movl	-24(%rbp), %eax	# i, tmp163
	movslq	%eax, %rdx	# tmp163, D.17523
	movq	%rdx, %rax	# D.17523, tmp164
	salq	$2, %rax	#, tmp164
	addq	%rdx, %rax	# D.17523, tmp164
	salq	$2, %rax	#, tmp164
	addq	%rdx, %rax	# D.17523, tmp164
	salq	$3, %rax	#, tmp165
	movq	%rax, %rdx	# tmp164, D.17523
	movq	-48(%rbp), %rax	# args, tmp166
	leaq	(%rdx,%rax), %rbx	#, D.17524
	.loc 1 1529 0
	movl	-24(%rbp), %eax	# i, tmp167
	movslq	%eax, %rdx	# tmp167, D.17523
	movq	%rdx, %rax	# D.17523, tmp168
	salq	$2, %rax	#, tmp168
	addq	%rdx, %rax	# D.17523, tmp168
	salq	$2, %rax	#, tmp168
	addq	%rdx, %rax	# D.17523, tmp168
	salq	$3, %rax	#, tmp169
	movq	%rax, %rdx	# tmp168, D.17523
	movq	-48(%rbp), %rax	# args, tmp170
	addq	%rdx, %rax	# D.17523, D.17524
	.loc 1 1528 0
	movl	48(%rax), %ecx	# _59->unsignedp, D.17521
	.loc 1 1529 0
	movl	-24(%rbp), %eax	# i, tmp171
	movslq	%eax, %rdx	# tmp171, D.17523
	movq	%rdx, %rax	# D.17523, tmp172
	salq	$2, %rax	#, tmp172
	addq	%rdx, %rax	# D.17523, tmp172
	salq	$2, %rax	#, tmp172
	addq	%rdx, %rax	# D.17523, tmp172
	salq	$3, %rax	#, tmp173
	movq	%rax, %rdx	# tmp172, D.17523
	movq	-48(%rbp), %rax	# args, tmp174
	addq	%rdx, %rax	# D.17523, D.17524
	.loc 1 1528 0
	movq	16(%rax), %rdi	# _63->value, D.17527
	movl	-24(%rbp), %eax	# i, tmp175
	movslq	%eax, %rdx	# tmp175, D.17523
	movq	%rdx, %rax	# D.17523, tmp176
	salq	$2, %rax	#, tmp176
	addq	%rdx, %rax	# D.17523, tmp176
	salq	$2, %rax	#, tmp176
	addq	%rdx, %rax	# D.17523, tmp176
	salq	$3, %rax	#, tmp177
	movq	%rax, %rdx	# tmp176, D.17523
	movq	-48(%rbp), %rax	# args, tmp178
	addq	%rdx, %rax	# D.17523, D.17524
	movl	8(%rax), %eax	# _67->mode, D.17529
	movl	-20(%rbp), %esi	# mode, tmp179
	movq	%rdi, %rdx	# D.17527,
	movl	%eax, %edi	# D.17529,
	call	convert_modes	#
	movq	%rax, 16(%rbx)	# D.17527, _56->value
.L224:
.LBE14:
	.loc 1 1504 0
	addl	$1, -24(%rbp)	#, i
.L222:
	.loc 1 1504 0 is_stmt 0 discriminator 1
	movl	-24(%rbp), %eax	# i, tmp180
	cmpl	-40(%rbp), %eax	# num_actuals, tmp180
	jl	.L226	#,
	.loc 1 1546 0 is_stmt 1
	addq	$32, %rsp	#,
	popq	%rbx	#
	popq	%r12	#
	popq	%rbp	#
	.cfi_def_cfa 7, 8
	ret
	.cfi_endproc
.LFE15:
	.size	precompute_arguments, .-precompute_arguments
	.type	finalize_must_preallocate, @function
finalize_must_preallocate:
.LFB16:
	.loc 1 1558 0
	.cfi_startproc
	pushq	%rbp	#
	.cfi_def_cfa_offset 16
	.cfi_offset 6, -16
	movq	%rsp, %rbp	#,
	.cfi_def_cfa_register 6
	subq	$48, %rsp	#,
	movl	%edi, -20(%rbp)	# must_preallocate, must_preallocate
	movl	%esi, -24(%rbp)	# num_actuals, num_actuals
	movq	%rdx, -32(%rbp)	# args, args
	movq	%rcx, -40(%rbp)	# args_size, args_size
	.loc 1 1578 0
	cmpl	$0, -20(%rbp)	#, must_preallocate
	jne	.L228	#,
.LBB15:
	.loc 1 1580 0
	movl	$0, -12(%rbp)	#, partial_seen
	.loc 1 1581 0
	movl	$0, -8(%rbp)	#, copy_to_evaluate_size
	.loc 1 1584 0
	movl	$0, -4(%rbp)	#, i
	jmp	.L229	#
.L235:
	.loc 1 1586 0
	movl	-4(%rbp), %eax	# i, tmp115
	movslq	%eax, %rdx	# tmp115, D.17530
	movq	%rdx, %rax	# D.17530, tmp116
	salq	$2, %rax	#, tmp116
	addq	%rdx, %rax	# D.17530, tmp116
	salq	$2, %rax	#, tmp116
	addq	%rdx, %rax	# D.17530, tmp116
	salq	$3, %rax	#, tmp117
	movq	%rax, %rdx	# tmp116, D.17530
	movq	-32(%rbp), %rax	# args, tmp118
	addq	%rdx, %rax	# D.17530, D.17531
	movl	52(%rax), %eax	# _17->partial, D.17532
	testl	%eax, %eax	# D.17532
	jle	.L230	#,
	.loc 1 1586 0 is_stmt 0 discriminator 1
	movl	-4(%rbp), %eax	# i, tmp119
	movslq	%eax, %rdx	# tmp119, D.17530
	movq	%rdx, %rax	# D.17530, tmp120
	salq	$2, %rax	#, tmp120
	addq	%rdx, %rax	# D.17530, tmp120
	salq	$2, %rax	#, tmp120
	addq	%rdx, %rax	# D.17530, tmp120
	salq	$3, %rax	#, tmp121
	movq	%rax, %rdx	# tmp120, D.17530
	movq	-32(%rbp), %rax	# args, tmp122
	addq	%rdx, %rax	# D.17530, D.17531
	movl	56(%rax), %eax	# _21->pass_on_stack, D.17532
	testl	%eax, %eax	# D.17532
	jne	.L230	#,
	.loc 1 1587 0 is_stmt 1
	movl	$1, -12(%rbp)	#, partial_seen
	jmp	.L231	#
.L230:
	.loc 1 1588 0
	cmpl	$0, -12(%rbp)	#, partial_seen
	je	.L231	#,
	.loc 1 1588 0 is_stmt 0 discriminator 1
	movl	-4(%rbp), %eax	# i, tmp123
	movslq	%eax, %rdx	# tmp123, D.17530
	movq	%rdx, %rax	# D.17530, tmp124
	salq	$2, %rax	#, tmp124
	addq	%rdx, %rax	# D.17530, tmp124
	salq	$2, %rax	#, tmp124
	addq	%rdx, %rax	# D.17530, tmp124
	salq	$3, %rax	#, tmp125
	movq	%rax, %rdx	# tmp124, D.17530
	movq	-32(%rbp), %rax	# args, tmp126
	addq	%rdx, %rax	# D.17530, D.17531
	movq	32(%rax), %rax	# _26->reg, D.17533
	testq	%rax, %rax	# D.17533
	jne	.L231	#,
	.loc 1 1589 0 is_stmt 1
	movl	$1, -20(%rbp)	#, must_preallocate
.L231:
	.loc 1 1591 0
	movl	-4(%rbp), %eax	# i, tmp127
	movslq	%eax, %rdx	# tmp127, D.17530
	movq	%rdx, %rax	# D.17530, tmp128
	salq	$2, %rax	#, tmp128
	addq	%rdx, %rax	# D.17530, tmp128
	salq	$2, %rax	#, tmp128
	addq	%rdx, %rax	# D.17530, tmp128
	salq	$3, %rax	#, tmp129
	movq	%rax, %rdx	# tmp128, D.17530
	movq	-32(%rbp), %rax	# args, tmp130
	addq	%rdx, %rax	# D.17530, D.17531
	movq	(%rax), %rax	# _31->tree_value, D.17534
	movq	8(%rax), %rax	# _32->common.type, D.17534
	movzbl	61(%rax), %eax	# *_33, D.17535
	andl	$-2, %eax	#, D.17535
	cmpb	$102, %al	#, D.17535
	jne	.L232	#,
	.loc 1 1592 0
	movl	-4(%rbp), %eax	# i, tmp131
	movslq	%eax, %rdx	# tmp131, D.17530
	movq	%rdx, %rax	# D.17530, tmp132
	salq	$2, %rax	#, tmp132
	addq	%rdx, %rax	# D.17530, tmp132
	salq	$2, %rax	#, tmp132
	addq	%rdx, %rax	# D.17530, tmp132
	salq	$3, %rax	#, tmp133
	movq	%rax, %rdx	# tmp132, D.17530
	movq	-32(%rbp), %rax	# args, tmp134
	addq	%rdx, %rax	# D.17530, D.17531
	movq	(%rax), %rax	# _38->tree_value, D.17534
	movzbl	16(%rax), %eax	# _39->common.code, D.17535
	cmpb	$53, %al	#, D.17535
	je	.L233	#,
	.loc 1 1593 0
	movl	-4(%rbp), %eax	# i, tmp135
	movslq	%eax, %rdx	# tmp135, D.17530
	movq	%rdx, %rax	# D.17530, tmp136
	salq	$2, %rax	#, tmp136
	addq	%rdx, %rax	# D.17530, tmp136
	salq	$2, %rax	#, tmp136
	addq	%rdx, %rax	# D.17530, tmp136
	salq	$3, %rax	#, tmp137
	movq	%rax, %rdx	# tmp136, D.17530
	movq	-32(%rbp), %rax	# args, tmp138
	addq	%rdx, %rax	# D.17530, D.17531
	movq	(%rax), %rax	# _43->tree_value, D.17534
	movzbl	16(%rax), %eax	# _44->common.code, D.17535
	cmpb	$50, %al	#, D.17535
	je	.L233	#,
	.loc 1 1594 0
	movl	-4(%rbp), %eax	# i, tmp139
	movslq	%eax, %rdx	# tmp139, D.17530
	movq	%rdx, %rax	# D.17530, tmp140
	salq	$2, %rax	#, tmp140
	addq	%rdx, %rax	# D.17530, tmp140
	salq	$2, %rax	#, tmp140
	addq	%rdx, %rax	# D.17530, tmp140
	salq	$3, %rax	#, tmp141
	movq	%rax, %rdx	# tmp140, D.17530
	movq	-32(%rbp), %rax	# args, tmp142
	addq	%rdx, %rax	# D.17530, D.17531
	movq	(%rax), %rax	# _48->tree_value, D.17534
	movzbl	16(%rax), %eax	# _49->common.code, D.17535
	cmpb	$51, %al	#, D.17535
	je	.L233	#,
	.loc 1 1595 0
	movl	-4(%rbp), %eax	# i, tmp143
	movslq	%eax, %rdx	# tmp143, D.17530
	movq	%rdx, %rax	# D.17530, tmp144
	salq	$2, %rax	#, tmp144
	addq	%rdx, %rax	# D.17530, tmp144
	salq	$2, %rax	#, tmp144
	addq	%rdx, %rax	# D.17530, tmp144
	salq	$3, %rax	#, tmp145
	movq	%rax, %rdx	# tmp144, D.17530
	movq	-32(%rbp), %rax	# args, tmp146
	addq	%rdx, %rax	# D.17530, D.17531
	movq	(%rax), %rax	# _53->tree_value, D.17534
	movq	8(%rax), %rax	# _54->common.type, D.17534
	movzbl	17(%rax), %eax	# *_55, D.17535
	andl	$4, %eax	#, D.17535
	testb	%al, %al	# D.17535
	je	.L232	#,
.L233:
	.loc 1 1597 0
	movl	-4(%rbp), %eax	# i, tmp147
	movslq	%eax, %rdx	# tmp147, D.17530
	movq	%rdx, %rax	# D.17530, tmp148
	salq	$2, %rax	#, tmp148
	addq	%rdx, %rax	# D.17530, tmp148
	salq	$2, %rax	#, tmp148
	addq	%rdx, %rax	# D.17530, tmp148
	salq	$3, %rax	#, tmp149
	movq	%rax, %rdx	# tmp148, D.17530
	movq	-32(%rbp), %rax	# args, tmp150
	addq	%rdx, %rax	# D.17530, D.17531
	movq	(%rax), %rax	# _60->tree_value, D.17534
	movq	8(%rax), %rax	# _61->common.type, D.17534
	movq	%rax, %rdi	# D.17534,
	call	int_size_in_bytes	#
	movl	%eax, %edx	# D.17536, D.17537
	movl	-8(%rbp), %eax	# copy_to_evaluate_size, copy_to_evaluate_size.83
	addl	%edx, %eax	# D.17537, D.17537
	movl	%eax, -8(%rbp)	# D.17537, copy_to_evaluate_size
.L232:
	.loc 1 1584 0
	addl	$1, -4(%rbp)	#, i
.L229:
	.loc 1 1584 0 is_stmt 0 discriminator 1
	movl	-4(%rbp), %eax	# i, tmp151
	cmpl	-24(%rbp), %eax	# num_actuals, tmp151
	jge	.L234	#,
	.loc 1 1584 0 discriminator 2
	cmpl	$0, -20(%rbp)	#, must_preallocate
	je	.L235	#,
.L234:
	.loc 1 1600 0 is_stmt 1
	movl	-8(%rbp), %eax	# copy_to_evaluate_size, tmp152
	addl	%eax, %eax	# D.17532
	movslq	%eax, %rdx	# D.17532, D.17536
	movq	-40(%rbp), %rax	# args_size, tmp153
	movq	(%rax), %rax	# args_size_71(D)->constant, D.17536
	cmpq	%rax, %rdx	# D.17536, D.17536
	jl	.L228	#,
	.loc 1 1601 0
	movq	-40(%rbp), %rax	# args_size, tmp154
	movq	(%rax), %rax	# args_size_71(D)->constant, D.17536
	testq	%rax, %rax	# D.17536
	jle	.L228	#,
	.loc 1 1602 0
	movl	$1, -20(%rbp)	#, must_preallocate
.L228:
.LBE15:
	.loc 1 1604 0
	movl	-20(%rbp), %eax	# must_preallocate, D.17532
	.loc 1 1605 0
	leave
	.cfi_def_cfa 7, 8
	ret
	.cfi_endproc
.LFE16:
	.size	finalize_must_preallocate, .-finalize_must_preallocate
	.type	compute_argument_addresses, @function
compute_argument_addresses:
.LFB17:
	.loc 1 1620 0
	.cfi_startproc
	pushq	%rbp	#
	.cfi_def_cfa_offset 16
	.cfi_offset 6, -16
	movq	%rsp, %rbp	#,
	.cfi_def_cfa_register 6
	pushq	%rbx	#
	subq	$88, %rsp	#,
	.cfi_offset 3, -24
	movq	%rdi, -72(%rbp)	# args, args
	movq	%rsi, -80(%rbp)	# argblock, argblock
	movl	%edx, -84(%rbp)	# num_actuals, num_actuals
	.loc 1 1621 0
	cmpq	$0, -80(%rbp)	#, argblock
	je	.L237	#,
.LBB16:
	.loc 1 1623 0
	movq	-80(%rbp), %rax	# argblock, tmp182
	movq	%rax, -48(%rbp)	# tmp182, arg_reg
	.loc 1 1624 0
	movl	$0, -52(%rbp)	#, arg_offset
	.loc 1 1626 0
	movq	-80(%rbp), %rax	# argblock, tmp183
	movzwl	(%rax), %eax	# argblock_12(D)->code, D.17538
	cmpw	$75, %ax	#, D.17538
	jne	.L239	#,
	.loc 1 1627 0
	movq	-80(%rbp), %rax	# argblock, tmp184
	movq	8(%rax), %rax	# argblock_12(D)->fld[0].rtx, tmp185
	movq	%rax, -48(%rbp)	# tmp185, arg_reg
	movq	-80(%rbp), %rax	# argblock, tmp186
	movq	16(%rax), %rax	# argblock_12(D)->fld[1].rtx, D.17539
	movq	8(%rax), %rax	# _17->fld[0].rtwint, D.17540
	movl	%eax, -52(%rbp)	# D.17540, arg_offset
.L239:
	.loc 1 1629 0
	movl	$0, -56(%rbp)	#, i
	jmp	.L240	#
.L259:
.LBB17:
	.loc 1 1631 0
	movl	-56(%rbp), %eax	# i, tmp187
	movslq	%eax, %rdx	# tmp187, D.17541
	movq	%rdx, %rax	# D.17541, tmp188
	salq	$2, %rax	#, tmp188
	addq	%rdx, %rax	# D.17541, tmp188
	salq	$2, %rax	#, tmp188
	addq	%rdx, %rax	# D.17541, tmp188
	salq	$3, %rax	#, tmp189
	movq	%rax, %rdx	# tmp188, D.17541
	movq	-72(%rbp), %rax	# args, tmp190
	addq	%rdx, %rax	# D.17541, D.17542
	movq	72(%rax), %rax	# _25->offset.var, D.17543
	testq	%rax, %rax	# D.17543
	jne	.L241	#,
	.loc 1 1631 0 is_stmt 0 discriminator 1
	movl	-56(%rbp), %eax	# i, tmp191
	movslq	%eax, %rdx	# tmp191, D.17541
	movq	%rdx, %rax	# D.17541, tmp192
	salq	$2, %rax	#, tmp192
	addq	%rdx, %rax	# D.17541, tmp192
	salq	$2, %rax	#, tmp192
	addq	%rdx, %rax	# D.17541, tmp192
	salq	$3, %rax	#, tmp193
	movq	%rax, %rdx	# tmp192, D.17541
	movq	-72(%rbp), %rax	# args, tmp194
	addq	%rdx, %rax	# D.17541, D.17542
	movq	64(%rax), %rax	# _29->offset.constant, D.17540
	movq	%rax, %rsi	# D.17540,
	movl	$0, %edi	#,
	call	gen_rtx_CONST_INT	#
	jmp	.L242	#
.L241:
	.loc 1 1631 0 discriminator 2
	movl	-56(%rbp), %eax	# i, tmp195
	movslq	%eax, %rdx	# tmp195, D.17541
	movq	%rdx, %rax	# D.17541, tmp196
	salq	$2, %rax	#, tmp196
	addq	%rdx, %rax	# D.17541, tmp196
	salq	$2, %rax	#, tmp196
	addq	%rdx, %rax	# D.17541, tmp196
	salq	$3, %rax	#, tmp197
	movq	%rax, %rdx	# tmp196, D.17541
	movq	-72(%rbp), %rax	# args, tmp198
	addq	%rdx, %rax	# D.17541, D.17542
	movq	72(%rax), %rax	# _34->offset.var, D.17543
	testq	%rax, %rax	# D.17543
	jne	.L243	#,
	.loc 1 1631 0 discriminator 1
	movl	-56(%rbp), %eax	# i, tmp199
	movslq	%eax, %rdx	# tmp199, D.17541
	movq	%rdx, %rax	# D.17541, tmp200
	salq	$2, %rax	#, tmp200
	addq	%rdx, %rax	# D.17541, tmp200
	salq	$2, %rax	#, tmp200
	addq	%rdx, %rax	# D.17541, tmp200
	salq	$3, %rax	#, tmp201
	movq	%rax, %rdx	# tmp200, D.17541
	movq	-72(%rbp), %rax	# args, tmp202
	addq	%rdx, %rax	# D.17541, D.17542
	movq	64(%rax), %rax	# _38->offset.constant, D.17540
	movl	$1, %esi	#,
	movq	%rax, %rdi	# D.17540,
	call	size_int_wide	#
	jmp	.L244	#
.L243:
	.loc 1 1631 0 discriminator 2
	movl	-56(%rbp), %eax	# i, tmp203
	movslq	%eax, %rdx	# tmp203, D.17541
	movq	%rdx, %rax	# D.17541, tmp204
	salq	$2, %rax	#, tmp204
	addq	%rdx, %rax	# D.17541, tmp204
	salq	$2, %rax	#, tmp204
	addq	%rdx, %rax	# D.17541, tmp204
	salq	$3, %rax	#, tmp205
	movq	%rax, %rdx	# tmp204, D.17541
	movq	-72(%rbp), %rax	# args, tmp206
	addq	%rdx, %rax	# D.17541, D.17542
	movq	64(%rax), %rax	# _43->offset.constant, D.17540
	movl	$1, %esi	#,
	movq	%rax, %rdi	# D.17540,
	call	size_int_wide	#
	movq	%rax, %rbx	#, D.17543
	movl	-56(%rbp), %eax	# i, tmp207
	movslq	%eax, %rdx	# tmp207, D.17541
	movq	%rdx, %rax	# D.17541, tmp208
	salq	$2, %rax	#, tmp208
	addq	%rdx, %rax	# D.17541, tmp208
	salq	$2, %rax	#, tmp208
	addq	%rdx, %rax	# D.17541, tmp208
	salq	$3, %rax	#, tmp209
	movq	%rax, %rdx	# tmp208, D.17541
	movq	-72(%rbp), %rax	# args, tmp210
	addq	%rdx, %rax	# D.17541, D.17542
	movq	72(%rax), %rdx	# _48->offset.var, D.17543
	movq	sizetype_tab+8(%rip), %rax	# sizetype_tab, D.17543
	movq	%rdx, %rsi	# D.17543,
	movq	%rax, %rdi	# D.17543,
	call	convert	#
	movq	%rbx, %rdx	# D.17543,
	movq	%rax, %rsi	# D.17543,
	movl	$59, %edi	#,
	call	size_binop	#
.L244:
	.loc 1 1631 0 discriminator 3
	movl	$0, %ecx	#,
	movl	$0, %edx	#,
	movl	$0, %esi	#,
	movq	%rax, %rdi	# iftmp.85,
	call	expand_expr	#
.L242:
	movq	%rax, -32(%rbp)	# iftmp.84, offset
	.loc 1 1632 0 is_stmt 1 discriminator 3
	movl	-56(%rbp), %eax	# i, tmp211
	movslq	%eax, %rdx	# tmp211, D.17541
	movq	%rdx, %rax	# D.17541, tmp212
	salq	$2, %rax	#, tmp212
	addq	%rdx, %rax	# D.17541, tmp212
	salq	$2, %rax	#, tmp212
	addq	%rdx, %rax	# D.17541, tmp212
	salq	$3, %rax	#, tmp213
	movq	%rax, %rdx	# tmp212, D.17541
	movq	-72(%rbp), %rax	# args, tmp214
	addq	%rdx, %rax	# D.17541, D.17542
	movq	88(%rax), %rax	# _57->slot_offset.var, D.17543
	testq	%rax, %rax	# D.17543
	jne	.L245	#,
	.loc 1 1632 0 is_stmt 0 discriminator 1
	movl	-56(%rbp), %eax	# i, tmp215
	movslq	%eax, %rdx	# tmp215, D.17541
	movq	%rdx, %rax	# D.17541, tmp216
	salq	$2, %rax	#, tmp216
	addq	%rdx, %rax	# D.17541, tmp216
	salq	$2, %rax	#, tmp216
	addq	%rdx, %rax	# D.17541, tmp216
	salq	$3, %rax	#, tmp217
	movq	%rax, %rdx	# tmp216, D.17541
	movq	-72(%rbp), %rax	# args, tmp218
	addq	%rdx, %rax	# D.17541, D.17542
	movq	80(%rax), %rax	# _61->slot_offset.constant, D.17540
	movq	%rax, %rsi	# D.17540,
	movl	$0, %edi	#,
	call	gen_rtx_CONST_INT	#
	jmp	.L246	#
.L245:
	.loc 1 1632 0 discriminator 2
	movl	-56(%rbp), %eax	# i, tmp219
	movslq	%eax, %rdx	# tmp219, D.17541
	movq	%rdx, %rax	# D.17541, tmp220
	salq	$2, %rax	#, tmp220
	addq	%rdx, %rax	# D.17541, tmp220
	salq	$2, %rax	#, tmp220
	addq	%rdx, %rax	# D.17541, tmp220
	salq	$3, %rax	#, tmp221
	movq	%rax, %rdx	# tmp220, D.17541
	movq	-72(%rbp), %rax	# args, tmp222
	addq	%rdx, %rax	# D.17541, D.17542
	movq	88(%rax), %rax	# _66->slot_offset.var, D.17543
	testq	%rax, %rax	# D.17543
	jne	.L247	#,
	.loc 1 1632 0 discriminator 1
	movl	-56(%rbp), %eax	# i, tmp223
	movslq	%eax, %rdx	# tmp223, D.17541
	movq	%rdx, %rax	# D.17541, tmp224
	salq	$2, %rax	#, tmp224
	addq	%rdx, %rax	# D.17541, tmp224
	salq	$2, %rax	#, tmp224
	addq	%rdx, %rax	# D.17541, tmp224
	salq	$3, %rax	#, tmp225
	movq	%rax, %rdx	# tmp224, D.17541
	movq	-72(%rbp), %rax	# args, tmp226
	addq	%rdx, %rax	# D.17541, D.17542
	movq	80(%rax), %rax	# _70->slot_offset.constant, D.17540
	movl	$1, %esi	#,
	movq	%rax, %rdi	# D.17540,
	call	size_int_wide	#
	jmp	.L248	#
.L247:
	.loc 1 1632 0 discriminator 2
	movl	-56(%rbp), %eax	# i, tmp227
	movslq	%eax, %rdx	# tmp227, D.17541
	movq	%rdx, %rax	# D.17541, tmp228
	salq	$2, %rax	#, tmp228
	addq	%rdx, %rax	# D.17541, tmp228
	salq	$2, %rax	#, tmp228
	addq	%rdx, %rax	# D.17541, tmp228
	salq	$3, %rax	#, tmp229
	movq	%rax, %rdx	# tmp228, D.17541
	movq	-72(%rbp), %rax	# args, tmp230
	addq	%rdx, %rax	# D.17541, D.17542
	movq	80(%rax), %rax	# _75->slot_offset.constant, D.17540
	movl	$1, %esi	#,
	movq	%rax, %rdi	# D.17540,
	call	size_int_wide	#
	movq	%rax, %rbx	#, D.17543
	movl	-56(%rbp), %eax	# i, tmp231
	movslq	%eax, %rdx	# tmp231, D.17541
	movq	%rdx, %rax	# D.17541, tmp232
	salq	$2, %rax	#, tmp232
	addq	%rdx, %rax	# D.17541, tmp232
	salq	$2, %rax	#, tmp232
	addq	%rdx, %rax	# D.17541, tmp232
	salq	$3, %rax	#, tmp233
	movq	%rax, %rdx	# tmp232, D.17541
	movq	-72(%rbp), %rax	# args, tmp234
	addq	%rdx, %rax	# D.17541, D.17542
	movq	88(%rax), %rdx	# _80->slot_offset.var, D.17543
	movq	sizetype_tab+8(%rip), %rax	# sizetype_tab, D.17543
	movq	%rdx, %rsi	# D.17543,
	movq	%rax, %rdi	# D.17543,
	call	convert	#
	movq	%rbx, %rdx	# D.17543,
	movq	%rax, %rsi	# D.17543,
	movl	$59, %edi	#,
	call	size_binop	#
.L248:
	.loc 1 1632 0 discriminator 3
	movl	$0, %ecx	#,
	movl	$0, %edx	#,
	movl	$0, %esi	#,
	movq	%rax, %rdi	# iftmp.87,
	call	expand_expr	#
.L246:
	movq	%rax, -24(%rbp)	# iftmp.86, slot_offset
	.loc 1 1636 0 is_stmt 1 discriminator 3
	movl	-56(%rbp), %eax	# i, tmp235
	movslq	%eax, %rdx	# tmp235, D.17541
	movq	%rdx, %rax	# D.17541, tmp236
	salq	$2, %rax	#, tmp236
	addq	%rdx, %rax	# D.17541, tmp236
	salq	$2, %rax	#, tmp236
	addq	%rdx, %rax	# D.17541, tmp236
	salq	$3, %rax	#, tmp237
	movq	%rax, %rdx	# tmp236, D.17541
	movq	-72(%rbp), %rax	# args, tmp238
	addq	%rdx, %rax	# D.17541, D.17542
	movl	56(%rax), %eax	# _89->pass_on_stack, D.17544
	testl	%eax, %eax	# D.17544
	jne	.L249	#,
	.loc 1 1636 0 is_stmt 0 discriminator 1
	movl	-56(%rbp), %eax	# i, tmp239
	movslq	%eax, %rdx	# tmp239, D.17541
	movq	%rdx, %rax	# D.17541, tmp240
	salq	$2, %rax	#, tmp240
	addq	%rdx, %rax	# D.17541, tmp240
	salq	$2, %rax	#, tmp240
	addq	%rdx, %rax	# D.17541, tmp240
	salq	$3, %rax	#, tmp241
	movq	%rax, %rdx	# tmp240, D.17541
	movq	-72(%rbp), %rax	# args, tmp242
	addq	%rdx, %rax	# D.17541, D.17542
	movq	32(%rax), %rax	# _93->reg, D.17539
	testq	%rax, %rax	# D.17539
	je	.L249	#,
	.loc 1 1637 0 is_stmt 1
	jmp	.L250	#
.L249:
	.loc 1 1639 0
	movq	-32(%rbp), %rax	# offset, tmp243
	movzwl	(%rax), %eax	# offset_54->code, D.17538
	cmpw	$54, %ax	#, D.17538
	jne	.L251	#,
	.loc 1 1640 0
	movq	-32(%rbp), %rax	# offset, tmp244
	movq	8(%rax), %rdx	# offset_54->fld[0].rtwint, D.17540
	movq	-48(%rbp), %rax	# arg_reg, tmp245
	movq	%rdx, %rsi	# D.17540,
	movq	%rax, %rdi	# tmp245,
	call	plus_constant_wide	#
	movq	%rax, -40(%rbp)	# tmp246, addr
	jmp	.L252	#
.L251:
	.loc 1 1642 0
	movl	target_flags(%rip), %eax	# target_flags, target_flags.89
	andl	$33554432, %eax	#, D.17544
	testl	%eax, %eax	# D.17544
	je	.L253	#,
	.loc 1 1642 0 is_stmt 0 discriminator 1
	movl	$5, %eax	#, iftmp.88
	jmp	.L254	#
.L253:
	.loc 1 1642 0 discriminator 2
	movl	$4, %eax	#, iftmp.88
.L254:
	.loc 1 1642 0 discriminator 3
	movq	-32(%rbp), %rcx	# offset, tmp247
	movq	-48(%rbp), %rdx	# arg_reg, tmp248
	movl	%eax, %esi	# iftmp.88,
	movl	$75, %edi	#,
	call	gen_rtx_fmt_ee	#
	movq	%rax, -40(%rbp)	# tmp249, addr
.L252:
	.loc 1 1644 0 is_stmt 1
	movl	-52(%rbp), %eax	# arg_offset, tmp250
	movslq	%eax, %rdx	# tmp250, D.17540
	movq	-40(%rbp), %rax	# addr, tmp251
	movq	%rdx, %rsi	# D.17540,
	movq	%rax, %rdi	# tmp251,
	call	plus_constant_wide	#
	movq	%rax, -40(%rbp)	# tmp252, addr
	.loc 1 1645 0
	movl	-56(%rbp), %eax	# i, tmp253
	movslq	%eax, %rdx	# tmp253, D.17541
	movq	%rdx, %rax	# D.17541, tmp254
	salq	$2, %rax	#, tmp254
	addq	%rdx, %rax	# D.17541, tmp254
	salq	$2, %rax	#, tmp254
	addq	%rdx, %rax	# D.17541, tmp254
	salq	$3, %rax	#, tmp255
	movq	%rax, %rdx	# tmp254, D.17541
	movq	-72(%rbp), %rax	# args, tmp256
	leaq	(%rdx,%rax), %rbx	#, D.17542
	movl	-56(%rbp), %eax	# i, tmp257
	movslq	%eax, %rdx	# tmp257, D.17541
	movq	%rdx, %rax	# D.17541, tmp258
	salq	$2, %rax	#, tmp258
	addq	%rdx, %rax	# D.17541, tmp258
	salq	$2, %rax	#, tmp258
	addq	%rdx, %rax	# D.17541, tmp258
	salq	$3, %rax	#, tmp259
	movq	%rax, %rdx	# tmp258, D.17541
	movq	-72(%rbp), %rax	# args, tmp260
	addq	%rdx, %rax	# D.17541, D.17542
	movl	8(%rax), %eax	# _110->mode, D.17545
	movq	-40(%rbp), %rdx	# addr, tmp261
	movq	%rdx, %rsi	# tmp261,
	movl	%eax, %edi	# D.17545,
	call	gen_rtx_MEM	#
	movq	%rax, 112(%rbx)	# D.17539, _107->stack
	.loc 1 1647 0
	movl	-56(%rbp), %eax	# i, tmp262
	movslq	%eax, %rdx	# tmp262, D.17541
	movq	%rdx, %rax	# D.17541, tmp263
	salq	$2, %rax	#, tmp263
	addq	%rdx, %rax	# D.17541, tmp263
	salq	$2, %rax	#, tmp263
	addq	%rdx, %rax	# D.17541, tmp263
	salq	$3, %rax	#, tmp264
	movq	%rax, %rdx	# tmp263, D.17541
	movq	-72(%rbp), %rax	# args, tmp265
	addq	%rdx, %rax	# D.17541, D.17542
	movq	(%rax), %rax	# _115->tree_value, D.17543
	.loc 1 1646 0
	movq	8(%rax), %rcx	# _116->common.type, D.17543
	movl	-56(%rbp), %eax	# i, tmp266
	movslq	%eax, %rdx	# tmp266, D.17541
	movq	%rdx, %rax	# D.17541, tmp267
	salq	$2, %rax	#, tmp267
	addq	%rdx, %rax	# D.17541, tmp267
	salq	$2, %rax	#, tmp267
	addq	%rdx, %rax	# D.17541, tmp267
	salq	$3, %rax	#, tmp268
	movq	%rax, %rdx	# tmp267, D.17541
	movq	-72(%rbp), %rax	# args, tmp269
	addq	%rdx, %rax	# D.17541, D.17542
	movq	112(%rax), %rax	# _120->stack, D.17539
	movl	$1, %edx	#,
	movq	%rcx, %rsi	# D.17543,
	movq	%rax, %rdi	# D.17539,
	call	set_mem_attributes	#
	.loc 1 1649 0
	movq	-24(%rbp), %rax	# slot_offset, tmp270
	movzwl	(%rax), %eax	# slot_offset_86->code, D.17538
	cmpw	$54, %ax	#, D.17538
	jne	.L255	#,
	.loc 1 1650 0
	movq	-24(%rbp), %rax	# slot_offset, tmp271
	movq	8(%rax), %rdx	# slot_offset_86->fld[0].rtwint, D.17540
	movq	-48(%rbp), %rax	# arg_reg, tmp272
	movq	%rdx, %rsi	# D.17540,
	movq	%rax, %rdi	# tmp272,
	call	plus_constant_wide	#
	movq	%rax, -40(%rbp)	# tmp273, addr
	jmp	.L256	#
.L255:
	.loc 1 1652 0
	movl	target_flags(%rip), %eax	# target_flags, target_flags.91
	andl	$33554432, %eax	#, D.17544
	testl	%eax, %eax	# D.17544
	je	.L257	#,
	.loc 1 1652 0 is_stmt 0 discriminator 1
	movl	$5, %eax	#, iftmp.90
	jmp	.L258	#
.L257:
	.loc 1 1652 0 discriminator 2
	movl	$4, %eax	#, iftmp.90
.L258:
	.loc 1 1652 0 discriminator 3
	movq	-24(%rbp), %rcx	# slot_offset, tmp274
	movq	-48(%rbp), %rdx	# arg_reg, tmp275
	movl	%eax, %esi	# iftmp.90,
	movl	$75, %edi	#,
	call	gen_rtx_fmt_ee	#
	movq	%rax, -40(%rbp)	# tmp276, addr
.L256:
	.loc 1 1654 0 is_stmt 1
	movl	-52(%rbp), %eax	# arg_offset, tmp277
	movslq	%eax, %rdx	# tmp277, D.17540
	movq	-40(%rbp), %rax	# addr, tmp278
	movq	%rdx, %rsi	# D.17540,
	movq	%rax, %rdi	# tmp278,
	call	plus_constant_wide	#
	movq	%rax, -40(%rbp)	# tmp279, addr
	.loc 1 1655 0
	movl	-56(%rbp), %eax	# i, tmp280
	movslq	%eax, %rdx	# tmp280, D.17541
	movq	%rdx, %rax	# D.17541, tmp281
	salq	$2, %rax	#, tmp281
	addq	%rdx, %rax	# D.17541, tmp281
	salq	$2, %rax	#, tmp281
	addq	%rdx, %rax	# D.17541, tmp281
	salq	$3, %rax	#, tmp282
	movq	%rax, %rdx	# tmp281, D.17541
	movq	-72(%rbp), %rax	# args, tmp283
	leaq	(%rdx,%rax), %rbx	#, D.17542
	movl	-56(%rbp), %eax	# i, tmp284
	movslq	%eax, %rdx	# tmp284, D.17541
	movq	%rdx, %rax	# D.17541, tmp285
	salq	$2, %rax	#, tmp285
	addq	%rdx, %rax	# D.17541, tmp285
	salq	$2, %rax	#, tmp285
	addq	%rdx, %rax	# D.17541, tmp285
	salq	$3, %rax	#, tmp286
	movq	%rax, %rdx	# tmp285, D.17541
	movq	-72(%rbp), %rax	# args, tmp287
	addq	%rdx, %rax	# D.17541, D.17542
	movl	8(%rax), %eax	# _137->mode, D.17545
	movq	-40(%rbp), %rdx	# addr, tmp288
	movq	%rdx, %rsi	# tmp288,
	movl	%eax, %edi	# D.17545,
	call	gen_rtx_MEM	#
	movq	%rax, 120(%rbx)	# D.17539, _134->stack_slot
	.loc 1 1657 0
	movl	-56(%rbp), %eax	# i, tmp289
	movslq	%eax, %rdx	# tmp289, D.17541
	movq	%rdx, %rax	# D.17541, tmp290
	salq	$2, %rax	#, tmp290
	addq	%rdx, %rax	# D.17541, tmp290
	salq	$2, %rax	#, tmp290
	addq	%rdx, %rax	# D.17541, tmp290
	salq	$3, %rax	#, tmp291
	movq	%rax, %rdx	# tmp290, D.17541
	movq	-72(%rbp), %rax	# args, tmp292
	addq	%rdx, %rax	# D.17541, D.17542
	movq	(%rax), %rax	# _142->tree_value, D.17543
	.loc 1 1656 0
	movq	8(%rax), %rcx	# _143->common.type, D.17543
	movl	-56(%rbp), %eax	# i, tmp293
	movslq	%eax, %rdx	# tmp293, D.17541
	movq	%rdx, %rax	# D.17541, tmp294
	salq	$2, %rax	#, tmp294
	addq	%rdx, %rax	# D.17541, tmp294
	salq	$2, %rax	#, tmp294
	addq	%rdx, %rax	# D.17541, tmp294
	salq	$3, %rax	#, tmp295
	movq	%rax, %rdx	# tmp294, D.17541
	movq	-72(%rbp), %rax	# args, tmp296
	addq	%rdx, %rax	# D.17541, D.17542
	movq	120(%rax), %rax	# _147->stack_slot, D.17539
	movl	$1, %edx	#,
	movq	%rcx, %rsi	# D.17543,
	movq	%rax, %rdi	# D.17539,
	call	set_mem_attributes	#
	.loc 1 1663 0
	movl	-56(%rbp), %eax	# i, tmp297
	movslq	%eax, %rdx	# tmp297, D.17541
	movq	%rdx, %rax	# D.17541, tmp298
	salq	$2, %rax	#, tmp298
	addq	%rdx, %rax	# D.17541, tmp298
	salq	$2, %rax	#, tmp298
	addq	%rdx, %rax	# D.17541, tmp298
	salq	$3, %rax	#, tmp299
	movq	%rax, %rdx	# tmp298, D.17541
	movq	-72(%rbp), %rax	# args, tmp300
	addq	%rdx, %rax	# D.17541, D.17542
	movq	112(%rax), %rax	# _151->stack, D.17539
	movl	$0, %esi	#,
	movq	%rax, %rdi	# D.17539,
	call	set_mem_alias_set	#
	.loc 1 1664 0
	movl	-56(%rbp), %eax	# i, tmp301
	movslq	%eax, %rdx	# tmp301, D.17541
	movq	%rdx, %rax	# D.17541, tmp302
	salq	$2, %rax	#, tmp302
	addq	%rdx, %rax	# D.17541, tmp302
	salq	$2, %rax	#, tmp302
	addq	%rdx, %rax	# D.17541, tmp302
	salq	$3, %rax	#, tmp303
	movq	%rax, %rdx	# tmp302, D.17541
	movq	-72(%rbp), %rax	# args, tmp304
	addq	%rdx, %rax	# D.17541, D.17542
	movq	120(%rax), %rax	# _155->stack_slot, D.17539
	movl	$0, %esi	#,
	movq	%rax, %rdi	# D.17539,
	call	set_mem_alias_set	#
.L250:
.LBE17:
	.loc 1 1629 0
	addl	$1, -56(%rbp)	#, i
.L240:
	.loc 1 1629 0 is_stmt 0 discriminator 1
	movl	-56(%rbp), %eax	# i, tmp305
	cmpl	-84(%rbp), %eax	# num_actuals, tmp305
	jl	.L259	#,
.L237:
.LBE16:
	.loc 1 1667 0 is_stmt 1
	addq	$88, %rsp	#,
	popq	%rbx	#
	popq	%rbp	#
	.cfi_def_cfa 7, 8
	ret
	.cfi_endproc
.LFE17:
	.size	compute_argument_addresses, .-compute_argument_addresses
	.type	rtx_for_function_call, @function
rtx_for_function_call:
.LFB18:
	.loc 1 1681 0
	.cfi_startproc
	pushq	%rbp	#
	.cfi_def_cfa_offset 16
	.cfi_offset 6, -16
	movq	%rsp, %rbp	#,
	.cfi_def_cfa_register 6
	subq	$32, %rsp	#,
	movq	%rdi, -24(%rbp)	# fndecl, fndecl
	movq	%rsi, -32(%rbp)	# exp, exp
	.loc 1 1685 0
	cmpq	$0, -24(%rbp)	#, fndecl
	je	.L261	#,
	.loc 1 1689 0
	movq	-24(%rbp), %rax	# fndecl, tmp66
	movzbl	18(%rax), %eax	# *fndecl_3(D), D.17546
	andl	$1, %eax	#, D.17546
	testb	%al, %al	# D.17546
	jne	.L262	#,
	.loc 1 1691 0
	movq	-24(%rbp), %rax	# fndecl, tmp67
	movq	%rax, %rdi	# tmp67,
	call	assemble_external	#
	.loc 1 1692 0
	movq	-24(%rbp), %rax	# fndecl, tmp68
	movzbl	18(%rax), %edx	#, tmp71
	orl	$1, %edx	#, tmp72
	movb	%dl, 18(%rax)	# tmp72,
.L262:
	.loc 1 1696 0
	movq	-24(%rbp), %rax	# fndecl, tmp73
	movq	144(%rax), %rax	# fndecl_3(D)->decl.rtl, D.17547
	testq	%rax, %rax	# D.17547
	je	.L263	#,
	.loc 1 1696 0 is_stmt 0 discriminator 1
	movq	-24(%rbp), %rax	# fndecl, tmp74
	movq	144(%rax), %rax	# fndecl_3(D)->decl.rtl, iftmp.92
	jmp	.L264	#
.L263:
	.loc 1 1696 0 discriminator 2
	movq	-24(%rbp), %rax	# fndecl, tmp75
	movl	$0, %esi	#,
	movq	%rax, %rdi	# tmp75,
	call	make_decl_rtl	#
	movq	-24(%rbp), %rax	# fndecl, tmp76
	movq	144(%rax), %rax	# fndecl_3(D)->decl.rtl, iftmp.92
.L264:
	.loc 1 1696 0 discriminator 1
	movq	8(%rax), %rax	# iftmp.92_2->fld[0].rtx, tmp77
	movq	%rax, -16(%rbp)	# tmp77, funexp
	jmp	.L265	#
.L261:
.LBB18:
	.loc 1 1702 0 is_stmt 1
	call	push_temp_slots	#
	.loc 1 1704 0
	movq	-32(%rbp), %rax	# exp, tmp78
	movq	32(%rax), %rax	# exp_10(D)->exp.operands, D.17548
	.loc 1 1703 0
	movl	$0, %ecx	#,
	movl	$0, %edx	#,
	movl	$0, %esi	#,
	movq	%rax, %rdi	# D.17548,
	call	expand_expr	#
	movq	%rax, -16(%rbp)	# tmp79, funexp
	movq	-16(%rbp), %rax	# funexp, tmp80
	movq	%rax, -8(%rbp)	# tmp80, funaddr
	.loc 1 1705 0
	call	pop_temp_slots	#
	.loc 1 1706 0
	call	emit_queue	#
.L265:
.LBE18:
	.loc 1 1708 0
	movq	-16(%rbp), %rax	# funexp, D.17549
	.loc 1 1709 0
	leave
	.cfi_def_cfa 7, 8
	ret
	.cfi_endproc
.LFE18:
	.size	rtx_for_function_call, .-rtx_for_function_call
	.type	load_register_parameters, @function
load_register_parameters:
.LFB19:
	.loc 1 1724 0
	.cfi_startproc
	pushq	%rbp	#
	.cfi_def_cfa_offset 16
	.cfi_offset 6, -16
	movq	%rsp, %rbp	#,
	.cfi_def_cfa_register 6
	pushq	%rbx	#
	subq	$72, %rsp	#,
	.cfi_offset 3, -24
	movq	%rdi, -56(%rbp)	# args, args
	movl	%esi, -60(%rbp)	# num_actuals, num_actuals
	movq	%rdx, -72(%rbp)	# call_fusage, call_fusage
	movl	%ecx, -64(%rbp)	# flags, flags
	.loc 1 1730 0
	movl	$0, -40(%rbp)	#, i
	jmp	.L268	#
.L291:
.LBB19:
	.loc 1 1733 0
	movl	-64(%rbp), %eax	# flags, tmp150
	andl	$256, %eax	#, D.17550
	.loc 1 1734 0
	testl	%eax, %eax	# D.17550
	je	.L269	#,
	.loc 1 1734 0 is_stmt 0 discriminator 1
	movl	-40(%rbp), %eax	# i, tmp151
	movslq	%eax, %rdx	# tmp151, D.17551
	movq	%rdx, %rax	# D.17551, tmp152
	salq	$2, %rax	#, tmp152
	addq	%rdx, %rax	# D.17551, tmp152
	salq	$2, %rax	#, tmp152
	addq	%rdx, %rax	# D.17551, tmp152
	salq	$3, %rax	#, tmp153
	movq	%rax, %rdx	# tmp152, D.17551
	movq	-56(%rbp), %rax	# args, tmp154
	addq	%rdx, %rax	# D.17551, D.17552
	movq	40(%rax), %rax	# _16->tail_call_reg, iftmp.93
	jmp	.L270	#
.L269:
	.loc 1 1734 0 discriminator 2
	movl	-40(%rbp), %eax	# i, tmp155
	movslq	%eax, %rdx	# tmp155, D.17551
	movq	%rdx, %rax	# D.17551, tmp156
	salq	$2, %rax	#, tmp156
	addq	%rdx, %rax	# D.17551, tmp156
	salq	$2, %rax	#, tmp156
	addq	%rdx, %rax	# D.17551, tmp156
	salq	$3, %rax	#, tmp157
	movq	%rax, %rdx	# tmp156, D.17551
	movq	-56(%rbp), %rax	# args, tmp158
	addq	%rdx, %rax	# D.17551, D.17552
	movq	32(%rax), %rax	# _20->reg, iftmp.93
.L270:
	.loc 1 1733 0 is_stmt 1
	movq	%rax, -24(%rbp)	# iftmp.93, reg
	.loc 1 1735 0
	movl	-40(%rbp), %eax	# i, tmp159
	movslq	%eax, %rdx	# tmp159, D.17551
	movq	%rdx, %rax	# D.17551, tmp160
	salq	$2, %rax	#, tmp160
	addq	%rdx, %rax	# D.17551, tmp160
	salq	$2, %rax	#, tmp160
	addq	%rdx, %rax	# D.17551, tmp160
	salq	$3, %rax	#, tmp161
	movq	%rax, %rdx	# tmp160, D.17551
	movq	-56(%rbp), %rax	# args, tmp162
	addq	%rdx, %rax	# D.17551, D.17552
	movl	52(%rax), %eax	# _25->partial, tmp163
	movl	%eax, -32(%rbp)	# tmp163, partial
	.loc 1 1738 0
	cmpq	$0, -24(%rbp)	#, reg
	je	.L271	#,
	.loc 1 1744 0
	cmpl	$0, -32(%rbp)	#, partial
	jne	.L272	#,
	.loc 1 1745 0 discriminator 1
	movl	-40(%rbp), %eax	# i, tmp164
	movslq	%eax, %rdx	# tmp164, D.17551
	movq	%rdx, %rax	# D.17551, tmp165
	salq	$2, %rax	#, tmp165
	addq	%rdx, %rax	# D.17551, tmp165
	salq	$2, %rax	#, tmp165
	addq	%rdx, %rax	# D.17551, tmp165
	salq	$3, %rax	#, tmp166
	movq	%rax, %rdx	# tmp165, D.17551
	movq	-56(%rbp), %rax	# args, tmp167
	addq	%rdx, %rax	# D.17551, D.17552
	movq	(%rax), %rax	# _29->tree_value, D.17553
	movq	8(%rax), %rax	# _30->common.type, D.17553
	movzbl	61(%rax), %eax	# *_31, D.17554
	andl	$-2, %eax	#, D.17554
	.loc 1 1744 0 discriminator 1
	cmpb	$102, %al	#, D.17554
	jne	.L273	#,
	.loc 1 1746 0
	movl	-40(%rbp), %eax	# i, tmp168
	movslq	%eax, %rdx	# tmp168, D.17551
	movq	%rdx, %rax	# D.17551, tmp169
	salq	$2, %rax	#, tmp169
	addq	%rdx, %rax	# D.17551, tmp169
	salq	$2, %rax	#, tmp169
	addq	%rdx, %rax	# D.17551, tmp169
	salq	$3, %rax	#, tmp170
	movq	%rax, %rdx	# tmp169, D.17551
	movq	-56(%rbp), %rax	# args, tmp171
	addq	%rdx, %rax	# D.17551, D.17552
	movq	(%rax), %rax	# _36->tree_value, D.17553
	movq	8(%rax), %rax	# _37->common.type, D.17553
	movq	%rax, %rdi	# D.17553,
	call	int_size_in_bytes	#
	movq	%rax, %rdx	#, D.17555
	.loc 1 1747 0
	movl	target_flags(%rip), %eax	# target_flags, target_flags.97
	andl	$33554432, %eax	#, D.17550
	testl	%eax, %eax	# D.17550
	je	.L274	#,
	.loc 1 1747 0 is_stmt 0 discriminator 1
	movl	$7, %eax	#, iftmp.96
	jmp	.L275	#
.L274:
	.loc 1 1747 0 discriminator 2
	movl	$3, %eax	#, iftmp.96
.L275:
	.loc 1 1747 0 discriminator 3
	addq	%rdx, %rax	# D.17555, D.17555
	movl	target_flags(%rip), %edx	# target_flags, target_flags.99
	andl	$33554432, %edx	#, D.17550
	testl	%edx, %edx	# D.17550
	je	.L276	#,
	.loc 1 1747 0 discriminator 1
	movl	$8, %ebx	#, iftmp.98
	jmp	.L277	#
.L276:
	.loc 1 1747 0 discriminator 2
	movl	$4, %ebx	#, iftmp.98
.L277:
	.loc 1 1747 0 discriminator 1
	cqto
	idivq	%rbx	# iftmp.98
	jmp	.L279	#
.L273:
	.loc 1 1744 0 is_stmt 1 discriminator 3
	movl	$-1, %eax	#, iftmp.95
	jmp	.L279	#
.L272:
	.loc 1 1744 0 is_stmt 0 discriminator 2
	movl	-32(%rbp), %eax	# partial, iftmp.94
.L279:
	.loc 1 1744 0 discriminator 4
	movl	%eax, -28(%rbp)	# iftmp.94, nregs
	.loc 1 1753 0 is_stmt 1 discriminator 4
	movq	-24(%rbp), %rax	# reg, tmp174
	movzwl	(%rax), %eax	# reg_22->code, D.17556
	cmpw	$39, %ax	#, D.17556
	jne	.L280	#,
	.loc 1 1755 0
	movl	-40(%rbp), %eax	# i, tmp175
	movslq	%eax, %rdx	# tmp175, D.17551
	movq	%rdx, %rax	# D.17551, tmp176
	salq	$2, %rax	#, tmp176
	addq	%rdx, %rax	# D.17551, tmp176
	salq	$2, %rax	#, tmp176
	addq	%rdx, %rax	# D.17551, tmp176
	salq	$3, %rax	#, tmp177
	movq	%rax, %rdx	# tmp176, D.17551
	movq	-56(%rbp), %rax	# args, tmp178
	addq	%rdx, %rax	# D.17551, D.17552
	movq	(%rax), %rax	# _58->tree_value, D.17553
	movq	8(%rax), %rax	# _59->common.type, D.17553
	movq	%rax, %rdi	# D.17553,
	call	int_size_in_bytes	#
	.loc 1 1754 0
	movl	%eax, %esi	# D.17555, D.17550
	movl	-40(%rbp), %eax	# i, tmp179
	movslq	%eax, %rdx	# tmp179, D.17551
	movq	%rdx, %rax	# D.17551, tmp180
	salq	$2, %rax	#, tmp180
	addq	%rdx, %rax	# D.17551, tmp180
	salq	$2, %rax	#, tmp180
	addq	%rdx, %rax	# D.17551, tmp180
	salq	$3, %rax	#, tmp181
	movq	%rax, %rdx	# tmp180, D.17551
	movq	-56(%rbp), %rax	# args, tmp182
	addq	%rdx, %rax	# D.17551, D.17552
	movq	16(%rax), %rcx	# _65->value, D.17557
	movq	-24(%rbp), %rax	# reg, tmp183
	movl	%esi, %edx	# D.17550,
	movq	%rcx, %rsi	# D.17557,
	movq	%rax, %rdi	# tmp183,
	call	emit_group_load	#
	jmp	.L281	#
.L280:
	.loc 1 1761 0
	cmpl	$-1, -28(%rbp)	#, nregs
	jne	.L282	#,
	.loc 1 1762 0
	movl	-40(%rbp), %eax	# i, tmp184
	movslq	%eax, %rdx	# tmp184, D.17551
	movq	%rdx, %rax	# D.17551, tmp185
	salq	$2, %rax	#, tmp185
	addq	%rdx, %rax	# D.17551, tmp185
	salq	$2, %rax	#, tmp185
	addq	%rdx, %rax	# D.17551, tmp185
	salq	$3, %rax	#, tmp186
	movq	%rax, %rdx	# tmp185, D.17551
	movq	-56(%rbp), %rax	# args, tmp187
	addq	%rdx, %rax	# D.17551, D.17552
	movq	16(%rax), %rdx	# _69->value, D.17557
	movq	-24(%rbp), %rax	# reg, tmp188
	movq	%rdx, %rsi	# D.17557,
	movq	%rax, %rdi	# tmp188,
	call	emit_move_insn	#
	jmp	.L281	#
.L282:
	.loc 1 1767 0
	movl	-40(%rbp), %eax	# i, tmp189
	movslq	%eax, %rdx	# tmp189, D.17551
	movq	%rdx, %rax	# D.17551, tmp190
	salq	$2, %rax	#, tmp190
	addq	%rdx, %rax	# D.17551, tmp190
	salq	$2, %rax	#, tmp190
	addq	%rdx, %rax	# D.17551, tmp190
	salq	$3, %rax	#, tmp191
	movq	%rax, %rdx	# tmp190, D.17551
	movq	-56(%rbp), %rax	# args, tmp192
	addq	%rdx, %rax	# D.17551, D.17552
	movl	144(%rax), %eax	# _73->n_aligned_regs, D.17550
	testl	%eax, %eax	# D.17550
	je	.L283	#,
	.loc 1 1768 0
	movl	$0, -36(%rbp)	#, j
	jmp	.L284	#
.L285:
	.loc 1 1770 0 discriminator 2
	movl	-40(%rbp), %eax	# i, tmp193
	movslq	%eax, %rdx	# tmp193, D.17551
	movq	%rdx, %rax	# D.17551, tmp194
	salq	$2, %rax	#, tmp194
	addq	%rdx, %rax	# D.17551, tmp194
	salq	$2, %rax	#, tmp194
	addq	%rdx, %rax	# D.17551, tmp194
	salq	$3, %rax	#, tmp195
	movq	%rax, %rdx	# tmp194, D.17551
	movq	-56(%rbp), %rax	# args, tmp196
	addq	%rdx, %rax	# D.17551, D.17552
	movq	136(%rax), %rax	# _82->aligned_regs, D.17558
	movl	-36(%rbp), %edx	# j, tmp197
	movslq	%edx, %rdx	# tmp197, D.17551
	salq	$3, %rdx	#, D.17551
	addq	%rdx, %rax	# D.17551, D.17558
	.loc 1 1769 0 discriminator 2
	movq	(%rax), %rbx	# *_86, D.17557
	movq	-24(%rbp), %rax	# reg, tmp198
	movl	8(%rax), %edx	# reg_22->fld[0].rtuint, D.17559
	movl	-36(%rbp), %eax	# j, j.100
	addl	%edx, %eax	# D.17559, D.17559
	movl	%eax, %edx	# D.17559, D.17550
	movl	word_mode(%rip), %eax	# word_mode, word_mode.101
	movl	%edx, %esi	# D.17550,
	movl	%eax, %edi	# word_mode.101,
	call	gen_rtx_REG	#
	movq	%rbx, %rsi	# D.17557,
	movq	%rax, %rdi	# D.17557,
	call	emit_move_insn	#
	.loc 1 1768 0 discriminator 2
	addl	$1, -36(%rbp)	#, j
.L284:
	.loc 1 1768 0 is_stmt 0 discriminator 1
	movl	-40(%rbp), %eax	# i, tmp199
	movslq	%eax, %rdx	# tmp199, D.17551
	movq	%rdx, %rax	# D.17551, tmp200
	salq	$2, %rax	#, tmp200
	addq	%rdx, %rax	# D.17551, tmp200
	salq	$2, %rax	#, tmp200
	addq	%rdx, %rax	# D.17551, tmp200
	salq	$3, %rax	#, tmp201
	movq	%rax, %rdx	# tmp200, D.17551
	movq	-56(%rbp), %rax	# args, tmp202
	addq	%rdx, %rax	# D.17551, D.17552
	movl	144(%rax), %eax	# _78->n_aligned_regs, D.17550
	cmpl	-36(%rbp), %eax	# j, D.17550
	jg	.L285	#,
	jmp	.L281	#
.L283:
	.loc 1 1772 0 is_stmt 1
	cmpl	$0, -32(%rbp)	#, partial
	je	.L286	#,
	.loc 1 1772 0 is_stmt 0 discriminator 1
	movl	-40(%rbp), %eax	# i, tmp203
	movslq	%eax, %rdx	# tmp203, D.17551
	movq	%rdx, %rax	# D.17551, tmp204
	salq	$2, %rax	#, tmp204
	addq	%rdx, %rax	# D.17551, tmp204
	salq	$2, %rax	#, tmp204
	addq	%rdx, %rax	# D.17551, tmp204
	salq	$3, %rax	#, tmp205
	movq	%rax, %rdx	# tmp204, D.17551
	movq	-56(%rbp), %rax	# args, tmp206
	addq	%rdx, %rax	# D.17551, D.17552
	movl	56(%rax), %eax	# _97->pass_on_stack, D.17550
	testl	%eax, %eax	# D.17550
	je	.L281	#,
.L286:
	.loc 1 1775 0 is_stmt 1
	movl	-40(%rbp), %eax	# i, tmp207
	movslq	%eax, %rdx	# tmp207, D.17551
	movq	%rdx, %rax	# D.17551, tmp208
	salq	$2, %rax	#, tmp208
	addq	%rdx, %rax	# D.17551, tmp208
	salq	$2, %rax	#, tmp208
	addq	%rdx, %rax	# D.17551, tmp208
	salq	$3, %rax	#, tmp209
	movq	%rax, %rdx	# tmp208, D.17551
	movq	-56(%rbp), %rax	# args, tmp210
	addq	%rdx, %rax	# D.17551, D.17552
	.loc 1 1773 0
	movl	8(%rax), %ebx	# _101->mode, D.17560
	.loc 1 1774 0
	movl	-40(%rbp), %eax	# i, tmp211
	movslq	%eax, %rdx	# tmp211, D.17551
	movq	%rdx, %rax	# D.17551, tmp212
	salq	$2, %rax	#, tmp212
	addq	%rdx, %rax	# D.17551, tmp212
	salq	$2, %rax	#, tmp212
	addq	%rdx, %rax	# D.17551, tmp212
	salq	$3, %rax	#, tmp213
	movq	%rax, %rdx	# tmp212, D.17551
	movq	-56(%rbp), %rax	# args, tmp214
	addq	%rdx, %rax	# D.17551, D.17552
	.loc 1 1773 0
	movq	16(%rax), %rax	# _105->value, D.17557
	movq	%rax, %rdi	# D.17557,
	call	validize_mem	#
	movq	%rax, %rsi	#, D.17557
	movq	-24(%rbp), %rax	# reg, tmp215
	movl	8(%rax), %eax	# reg_22->fld[0].rtuint, D.17559
	movl	-28(%rbp), %edx	# nregs, tmp216
	movl	%ebx, %ecx	# D.17560,
	movl	%eax, %edi	# D.17550,
	call	move_block_to_reg	#
.L281:
	.loc 1 1779 0
	movq	-24(%rbp), %rax	# reg, tmp217
	movzwl	(%rax), %eax	# reg_22->code, D.17556
	cmpw	$39, %ax	#, D.17556
	jne	.L287	#,
	.loc 1 1780 0
	movq	-24(%rbp), %rdx	# reg, tmp218
	movq	-72(%rbp), %rax	# call_fusage, tmp219
	movq	%rdx, %rsi	# tmp218,
	movq	%rax, %rdi	# tmp219,
	call	use_group_regs	#
	jmp	.L271	#
.L287:
	.loc 1 1781 0
	cmpl	$-1, -28(%rbp)	#, nregs
	jne	.L288	#,
	.loc 1 1782 0
	movq	-24(%rbp), %rdx	# reg, tmp220
	movq	-72(%rbp), %rax	# call_fusage, tmp221
	movq	%rdx, %rsi	# tmp220,
	movq	%rax, %rdi	# tmp221,
	call	use_reg	#
	jmp	.L271	#
.L288:
	.loc 1 1784 0
	cmpl	$0, -28(%rbp)	#, nregs
	je	.L289	#,
	.loc 1 1784 0 is_stmt 0 discriminator 1
	movl	-28(%rbp), %eax	# nregs, iftmp.102
	jmp	.L290	#
.L289:
	.loc 1 1784 0 discriminator 2
	movl	$1, %eax	#, iftmp.102
.L290:
	.loc 1 1784 0 discriminator 3
	movq	-24(%rbp), %rdx	# reg, tmp222
	movl	8(%rdx), %edx	# reg_22->fld[0].rtuint, D.17559
	movl	%edx, %esi	# D.17559, D.17550
	movq	-72(%rbp), %rcx	# call_fusage, tmp223
	movl	%eax, %edx	# iftmp.102,
	movq	%rcx, %rdi	# tmp223,
	call	use_regs	#
.L271:
.LBE19:
	.loc 1 1730 0 is_stmt 1
	addl	$1, -40(%rbp)	#, i
.L268:
	.loc 1 1730 0 is_stmt 0 discriminator 1
	movl	-40(%rbp), %eax	# i, tmp224
	cmpl	-60(%rbp), %eax	# num_actuals, tmp224
	jl	.L291	#,
	.loc 1 1787 0 is_stmt 1
	addq	$72, %rsp	#,
	popq	%rbx	#
	popq	%rbp	#
	.cfi_def_cfa 7, 8
	ret
	.cfi_endproc
.LFE19:
	.size	load_register_parameters, .-load_register_parameters
	.section	.rodata
	.align 8
.LC16:
	.string	"inlining failed in call to `%s'"
.LC17:
	.string	"called from here"
	.text
	.type	try_to_integrate, @function
try_to_integrate:
.LFB20:
	.loc 1 1800 0
	.cfi_startproc
	pushq	%rbp	#
	.cfi_def_cfa_offset 16
	.cfi_offset 6, -16
	movq	%rsp, %rbp	#,
	.cfi_def_cfa_register 6
	subq	$112, %rsp	#,
	movq	%rdi, -72(%rbp)	# fndecl, fndecl
	movq	%rsi, -80(%rbp)	# actparms, actparms
	movq	%rdx, -88(%rbp)	# target, target
	movl	%ecx, -92(%rbp)	# ignore, ignore
	movq	%r8, -104(%rbp)	# type, type
	movq	%r9, -112(%rbp)	# structure_value_addr, structure_value_addr
	.loc 1 1804 0
	movq	$0, -48(%rbp)	#, old_stack_level
	.loc 1 1805 0
	movl	$0, -56(%rbp)	#, reg_parm_stack_space
	.loc 1 1811 0
	movl	$0, -56(%rbp)	#, reg_parm_stack_space
	.loc 1 1815 0
	call	get_last_insn	#
	movq	%rax, -32(%rbp)	# tmp86, before_call
	.loc 1 1817 0
	movl	$12, %edi	#,
	call	timevar_push	#
	.loc 1 1819 0
	movq	-112(%rbp), %r8	# structure_value_addr, tmp87
	movq	-104(%rbp), %rdi	# type, tmp88
	movl	-92(%rbp), %ecx	# ignore, tmp89
	movq	-88(%rbp), %rdx	# target, tmp90
	movq	-80(%rbp), %rsi	# actparms, tmp91
	movq	-72(%rbp), %rax	# fndecl, tmp92
	movq	%r8, %r9	# tmp87,
	movq	%rdi, %r8	# tmp88,
	movq	%rax, %rdi	# tmp92,
	call	expand_inline_function	#
	movq	%rax, -24(%rbp)	# tmp93, temp
	.loc 1 1823 0
	movl	$12, %edi	#,
	call	timevar_pop	#
	.loc 1 1826 0
	cmpq	$-1, -24(%rbp)	#, temp
	je	.L293	#,
	.loc 1 1828 0
	movl	target_flags(%rip), %eax	# target_flags, target_flags.103
	andl	$4096, %eax	#, D.17562
	testl	%eax, %eax	# D.17562
	je	.L294	#,
	.loc 1 1834 0
	movl	-56(%rbp), %eax	# reg_parm_stack_space, tmp97
	subl	$1, %eax	#, tmp96
	movl	%eax, -60(%rbp)	# tmp96, i
	jmp	.L295	#
.L298:
	.loc 1 1835 0
	movl	highest_outgoing_arg_in_use(%rip), %eax	# highest_outgoing_arg_in_use, highest_outgoing_arg_in_use.104
	cmpl	%eax, -60(%rbp)	# highest_outgoing_arg_in_use.104, i
	jge	.L296	#,
	.loc 1 1835 0 is_stmt 0 discriminator 1
	movq	stack_usage_map(%rip), %rdx	# stack_usage_map, stack_usage_map.105
	movl	-60(%rbp), %eax	# i, tmp98
	cltq
	addq	%rdx, %rax	# stack_usage_map.105, D.17564
	movzbl	(%rax), %eax	# *_22, D.17565
	testb	%al, %al	# D.17565
	je	.L296	#,
	.loc 1 1836 0 is_stmt 1
	jmp	.L297	#
.L296:
	.loc 1 1834 0
	subl	$1, -60(%rbp)	#, i
.L295:
	.loc 1 1834 0 is_stmt 0 discriminator 1
	cmpl	$0, -60(%rbp)	#, i
	jns	.L298	#,
.L297:
	.loc 1 1838 0 is_stmt 1
	movl	stack_arg_under_construction(%rip), %eax	# stack_arg_under_construction, stack_arg_under_construction.106
	testl	%eax, %eax	# stack_arg_under_construction.106
	jne	.L299	#,
	.loc 1 1838 0 is_stmt 0 discriminator 1
	cmpl	$0, -60(%rbp)	#, i
	js	.L294	#,
.L299:
.LBB20:
	.loc 1 1841 0 is_stmt 1
	cmpq	$0, -32(%rbp)	#, before_call
	je	.L300	#,
	.loc 1 1841 0 is_stmt 0 discriminator 1
	movq	-32(%rbp), %rax	# before_call, tmp99
	movq	24(%rax), %rax	# before_call_8->fld[2].rtx, iftmp.107
	jmp	.L301	#
.L300:
	.loc 1 1841 0 discriminator 2
	call	get_insns	#
.L301:
	.loc 1 1840 0 is_stmt 1
	movq	%rax, -16(%rbp)	# iftmp.107, first_insn
	.loc 1 1842 0
	movq	$0, -40(%rbp)	#, insn
	.loc 1 1849 0
	movq	-72(%rbp), %rax	# fndecl, tmp100
	movq	160(%rax), %rax	# fndecl_9(D)->decl.u2.f, D.17566
	movl	76(%rax), %eax	# _30->outgoing_args_size, D.17562
	testl	%eax, %eax	# D.17562
	jne	.L302	#,
	.loc 1 1850 0
	movq	-16(%rbp), %rax	# first_insn, tmp101
	movq	%rax, -40(%rbp)	# tmp101, insn
	jmp	.L303	#
.L305:
	.loc 1 1851 0
	movq	-40(%rbp), %rax	# insn, tmp102
	movzwl	(%rax), %eax	# insn_2->code, D.17567
	cmpw	$34, %ax	#, D.17567
	jne	.L304	#,
	.loc 1 1852 0
	jmp	.L302	#
.L304:
	.loc 1 1850 0
	movq	-40(%rbp), %rax	# insn, tmp103
	movq	24(%rax), %rax	# insn_2->fld[2].rtx, tmp104
	movq	%rax, -40(%rbp)	# tmp104, insn
.L303:
	.loc 1 1850 0 is_stmt 0 discriminator 1
	cmpq	$0, -40(%rbp)	#, insn
	jne	.L305	#,
.L302:
	.loc 1 1854 0 is_stmt 1
	cmpq	$0, -40(%rbp)	#, insn
	je	.L294	#,
.LBB21:
	.loc 1 1873 0
	movq	-72(%rbp), %rax	# fndecl, tmp105
	movq	160(%rax), %rax	# fndecl_9(D)->decl.u2.f, D.17566
	movl	76(%rax), %edx	# _35->outgoing_args_size, D.17562
	movl	-56(%rbp), %eax	# reg_parm_stack_space, tmp109
	addl	%edx, %eax	# D.17562, tmp108
	movl	%eax, -52(%rbp)	# tmp108, adjust
	.loc 1 1876 0
	call	start_sequence	#
	.loc 1 1877 0
	leaq	-48(%rbp), %rax	#, tmp110
	movl	$0, %edx	#,
	movq	%rax, %rsi	# tmp110,
	movl	$0, %edi	#,
	call	emit_stack_save	#
	.loc 1 1878 0
	movl	-52(%rbp), %eax	# adjust, tmp111
	cltq
	movq	%rax, %rsi	# D.17568,
	movl	$0, %edi	#,
	call	gen_rtx_CONST_INT	#
	movl	$8, %edx	#,
	movl	$0, %esi	#,
	movq	%rax, %rdi	# D.17569,
	call	allocate_dynamic_stack_space	#
	.loc 1 1880 0
	call	get_insns	#
	movq	%rax, -8(%rbp)	# tmp112, seq
	.loc 1 1881 0
	call	end_sequence	#
	.loc 1 1882 0
	movq	-16(%rbp), %rdx	# first_insn, tmp113
	movq	-8(%rbp), %rax	# seq, tmp114
	movq	%rdx, %rsi	# tmp113,
	movq	%rax, %rdi	# tmp114,
	call	emit_insns_before	#
	.loc 1 1883 0
	movq	-48(%rbp), %rax	# old_stack_level, old_stack_level.108
	movl	$0, %edx	#,
	movq	%rax, %rsi	# old_stack_level.108,
	movl	$0, %edi	#,
	call	emit_stack_restore	#
.L294:
.LBE21:
.LBE20:
	.loc 1 1891 0
	movq	-24(%rbp), %rax	# temp, tmp115
	cmpq	-88(%rbp), %rax	# target, tmp115
	je	.L306	#,
	.loc 1 1891 0 is_stmt 0 discriminator 1
	movq	-88(%rbp), %rdx	# target, tmp116
	movq	-24(%rbp), %rax	# temp, tmp117
	movq	%rdx, %rsi	# tmp116,
	movq	%rax, %rdi	# tmp117,
	call	rtx_equal_p	#
	testl	%eax, %eax	# D.17562
	je	.L306	#,
	.loc 1 1892 0 is_stmt 1
	movq	-88(%rbp), %rax	# target, D.17561
	jmp	.L309	#
.L306:
	.loc 1 1893 0
	movq	-24(%rbp), %rax	# temp, D.17561
	jmp	.L309	#
.L293:
	.loc 1 1899 0
	movq	-72(%rbp), %rax	# fndecl, tmp118
	movzbl	49(%rax), %eax	# *fndecl_9(D), D.17570
	andl	$8, %eax	#, D.17570
	testb	%al, %al	# D.17570
	je	.L308	#,
	.loc 1 1899 0 is_stmt 0 discriminator 1
	movl	warn_inline(%rip), %eax	# warn_inline, warn_inline.109
	testl	%eax, %eax	# warn_inline.109
	je	.L308	#,
	movl	flag_no_inline(%rip), %eax	# flag_no_inline, flag_no_inline.110
	testl	%eax, %eax	# flag_no_inline.110
	jne	.L308	#,
	.loc 1 1900 0 is_stmt 1
	movl	optimize(%rip), %eax	# optimize, optimize.111
	testl	%eax, %eax	# optimize.111
	jle	.L308	#,
	.loc 1 1900 0 is_stmt 0 discriminator 1
	movq	-72(%rbp), %rax	# fndecl, tmp119
	movzbl	17(%rax), %eax	# *fndecl_9(D), D.17570
	andl	$4, %eax	#, D.17570
	testb	%al, %al	# D.17570
	jne	.L308	#,
	.loc 1 1902 0 is_stmt 1
	movq	-72(%rbp), %rax	# fndecl, tmp120
	movl	$.LC16, %esi	#,
	movq	%rax, %rdi	# tmp120,
	movl	$0, %eax	#,
	call	warning_with_decl	#
	.loc 1 1903 0
	movl	$.LC17, %edi	#,
	movl	$0, %eax	#,
	call	warning	#
.L308:
	.loc 1 1905 0
	movq	-72(%rbp), %rax	# fndecl, tmp121
	movq	%rax, %rdi	# tmp121,
	call	mark_addressable	#
	.loc 1 1906 0
	movq	$-1, %rax	#, D.17561
.L309:
	.loc 1 1907 0
	leave
	.cfi_def_cfa 7, 8
	ret
	.cfi_endproc
.LFE20:
	.size	try_to_integrate, .-try_to_integrate
	.type	combine_pending_stack_adjustment_and_call, @function
combine_pending_stack_adjustment_and_call:
.LFB21:
	.loc 1 1925 0
	.cfi_startproc
	pushq	%rbp	#
	.cfi_def_cfa_offset 16
	.cfi_offset 6, -16
	movq	%rsp, %rbp	#,
	.cfi_def_cfa_register 6
	movl	%edi, -20(%rbp)	# unadjusted_args_size, unadjusted_args_size
	movq	%rsi, -32(%rbp)	# args_size, args_size
	movl	%edx, -24(%rbp)	# preferred_unit_stack_boundary, preferred_unit_stack_boundary
	.loc 1 1934 0
	movq	cfun(%rip), %rax	# cfun, cfun.112
	movq	16(%rax), %rax	# cfun.112_2->expr, D.17573
	movl	8(%rax), %edx	# _3->x_stack_pointer_delta, D.17574
	movl	-20(%rbp), %eax	# unadjusted_args_size, tmp83
	addl	%edx, %eax	# D.17574, D.17574
	.loc 1 1935 0
	cltd
	idivl	-24(%rbp)	# preferred_unit_stack_boundary
	movl	%edx, %eax	# tmp84, D.17574
	.loc 1 1934 0
	cltq
	movq	%rax, -8(%rbp)	# tmp86, unadjusted_alignment
	.loc 1 1946 0
	movq	cfun(%rip), %rax	# cfun, cfun.113
	movq	16(%rax), %rax	# cfun.113_10->expr, D.17573
	movl	(%rax), %eax	# _11->x_pending_stack_adjust, D.17574
	cltd
	idivl	-24(%rbp)	# preferred_unit_stack_boundary
	movl	%edx, %eax	# tmp87, D.17574
	cltq
	.loc 1 1945 0
	subq	%rax, -8(%rbp)	# D.17575, unadjusted_alignment
	.loc 1 1947 0
	movq	cfun(%rip), %rax	# cfun, cfun.114
	movq	16(%rax), %rax	# cfun.114_16->expr, D.17573
	movl	(%rax), %eax	# _17->x_pending_stack_adjust, D.17574
	cltq
	movq	%rax, -16(%rbp)	# tmp89, adjustment
	.loc 1 1950 0
	cmpl	$1, -24(%rbp)	#, preferred_unit_stack_boundary
	jle	.L311	#,
	.loc 1 1952 0
	cmpq	$0, -8(%rbp)	#, unadjusted_alignment
	jle	.L312	#,
	.loc 1 1953 0
	movl	-24(%rbp), %eax	# preferred_unit_stack_boundary, tmp90
	cltq
	movq	-8(%rbp), %rdx	# unadjusted_alignment, tmp91
	subq	%rax, %rdx	# D.17575, D.17575
	movq	%rdx, %rax	# D.17575, D.17575
	addq	%rax, -16(%rbp)	# D.17575, adjustment
	jmp	.L311	#
.L312:
	.loc 1 1955 0
	movq	-8(%rbp), %rax	# unadjusted_alignment, tmp92
	addq	%rax, -16(%rbp)	# tmp92, adjustment
.L311:
	.loc 1 1963 0
	movq	cfun(%rip), %rax	# cfun, cfun.115
	movq	16(%rax), %rax	# cfun.115_24->expr, D.17573
	movl	(%rax), %eax	# _25->x_pending_stack_adjust, D.17574
	cltq
	subq	-16(%rbp), %rax	# adjustment, D.17575
	movq	%rax, %rdx	# D.17575, D.17575
	movl	-20(%rbp), %eax	# unadjusted_args_size, tmp93
	cltq
	addq	%rax, %rdx	# D.17575, D.17575
	movq	-32(%rbp), %rax	# args_size, tmp94
	movq	%rdx, (%rax)	# D.17575, args_size_31(D)->constant
	.loc 1 1965 0
	movq	-16(%rbp), %rax	# adjustment, tmp95
	.loc 1 1966 0
	popq	%rbp	#
	.cfi_def_cfa 7, 8
	ret
	.cfi_endproc
.LFE21:
	.size	combine_pending_stack_adjustment_and_call, .-combine_pending_stack_adjustment_and_call
	.type	check_sibcall_argument_overlap_1, @function
check_sibcall_argument_overlap_1:
.LFB22:
	.loc 1 1977 0
	.cfi_startproc
	pushq	%rbp	#
	.cfi_def_cfa_offset 16
	.cfi_offset 6, -16
	movq	%rsp, %rbp	#,
	.cfi_def_cfa_register 6
	subq	$48, %rsp	#,
	movq	%rdi, -40(%rbp)	# x, x
	.loc 1 1983 0
	cmpq	$0, -40(%rbp)	#, x
	jne	.L315	#,
	.loc 1 1984 0
	movl	$0, %eax	#, D.17576
	jmp	.L316	#
.L315:
	.loc 1 1986 0
	movq	-40(%rbp), %rax	# x, tmp109
	movzwl	(%rax), %eax	# x_7(D)->code, D.17577
	movzwl	%ax, %eax	# D.17577, tmp110
	movl	%eax, -12(%rbp)	# tmp110, code
	.loc 1 1988 0
	cmpl	$66, -12(%rbp)	#, code
	jne	.L317	#,
	.loc 1 1990 0
	movq	-40(%rbp), %rax	# x, tmp111
	movq	8(%rax), %rdx	# x_7(D)->fld[0].rtx, D.17578
	movq	cfun(%rip), %rax	# cfun, cfun.116
	movq	128(%rax), %rax	# cfun.116_12->internal_arg_pointer, D.17578
	cmpq	%rax, %rdx	# D.17578, D.17578
	jne	.L318	#,
	.loc 1 1991 0
	movl	$0, -24(%rbp)	#, i
	jmp	.L319	#
.L318:
	.loc 1 1992 0
	movq	-40(%rbp), %rax	# x, tmp112
	movq	8(%rax), %rax	# x_7(D)->fld[0].rtx, D.17578
	movzwl	(%rax), %eax	# _15->code, D.17577
	cmpw	$75, %ax	#, D.17577
	jne	.L320	#,
	.loc 1 1993 0
	movq	-40(%rbp), %rax	# x, tmp113
	movq	8(%rax), %rax	# x_7(D)->fld[0].rtx, D.17578
	movq	8(%rax), %rdx	# _17->fld[0].rtx, D.17578
	.loc 1 1994 0
	movq	cfun(%rip), %rax	# cfun, cfun.117
	movq	128(%rax), %rax	# cfun.117_19->internal_arg_pointer, D.17578
	.loc 1 1993 0
	cmpq	%rax, %rdx	# D.17578, D.17578
	jne	.L320	#,
	.loc 1 1995 0
	movq	-40(%rbp), %rax	# x, tmp114
	movq	8(%rax), %rax	# x_7(D)->fld[0].rtx, D.17578
	movq	16(%rax), %rax	# _21->fld[1].rtx, D.17578
	movzwl	(%rax), %eax	# _22->code, D.17577
	cmpw	$54, %ax	#, D.17577
	jne	.L320	#,
	.loc 1 1996 0
	movq	-40(%rbp), %rax	# x, tmp115
	movq	8(%rax), %rax	# x_7(D)->fld[0].rtx, D.17578
	movq	16(%rax), %rax	# _24->fld[1].rtx, D.17578
	movq	8(%rax), %rax	# _25->fld[0].rtwint, D.17579
	movl	%eax, -24(%rbp)	# D.17579, i
	jmp	.L319	#
.L320:
	.loc 1 1998 0
	movl	$0, %eax	#, D.17576
	jmp	.L316	#
.L319:
	.loc 1 2004 0
	movl	$0, -16(%rbp)	#, k
	jmp	.L321	#
.L323:
	.loc 1 2005 0
	movl	-24(%rbp), %edx	# i, i.118
	movl	-16(%rbp), %eax	# k, tmp116
	addl	%eax, %edx	# tmp116, D.17581
	movq	stored_args_map(%rip), %rax	# stored_args_map, stored_args_map.119
	movl	(%rax), %eax	# stored_args_map.119_36->n_bits, D.17581
	cmpl	%eax, %edx	# D.17581, D.17581
	jae	.L322	#,
	.loc 1 2006 0
	movq	stored_args_map(%rip), %rax	# stored_args_map, stored_args_map.120
	movl	-24(%rbp), %ecx	# i, i.121
	movl	-16(%rbp), %edx	# k, tmp117
	addl	%ecx, %edx	# i.121, D.17581
	shrl	$6, %edx	#, D.17581
	movl	%edx, %edx	# D.17581, tmp118
	addq	$2, %rdx	#, tmp119
	movq	(%rax,%rdx,8), %rdx	# stored_args_map.120_38->elms, D.17582
	movl	-24(%rbp), %ecx	# i, i.122
	movl	-16(%rbp), %eax	# k, tmp120
	addl	%ecx, %eax	# i.122, D.17581
	andl	$63, %eax	#, D.17576
	movl	%eax, %ecx	# D.17576, tmp141
	shrq	%cl, %rdx	# tmp141, D.17582
	movq	%rdx, %rax	# D.17582, D.17582
	andl	$1, %eax	#, D.17582
	testq	%rax, %rax	# D.17582
	je	.L322	#,
	.loc 1 2007 0
	movl	$1, %eax	#, D.17576
	jmp	.L316	#
.L322:
	.loc 1 2004 0
	addl	$1, -16(%rbp)	#, k
.L321:
	.loc 1 2004 0 is_stmt 0 discriminator 1
	movq	-40(%rbp), %rax	# x, tmp121
	movzbl	2(%rax), %eax	# x_7(D)->mode, D.17580
	movzbl	%al, %eax	# D.17580, D.17576
	cltq
	movzbl	mode_size(%rax), %eax	# mode_size, D.17580
	movzbl	%al, %eax	# D.17580, D.17581
	cmpl	-16(%rbp), %eax	# k, D.17581
	ja	.L323	#,
	.loc 1 2009 0 is_stmt 1
	movl	$0, %eax	#, D.17576
	jmp	.L316	#
.L317:
	.loc 1 2013 0
	movl	-12(%rbp), %eax	# code, code.123
	cltq
	movq	rtx_format(,%rax,8), %rax	# rtx_format, tmp124
	movq	%rax, -8(%rbp)	# tmp124, fmt
	.loc 1 2014 0
	movl	$0, -24(%rbp)	#, i
	jmp	.L324	#
.L330:
	.loc 1 2016 0
	movq	-8(%rbp), %rax	# fmt, tmp125
	movzbl	(%rax), %eax	# *fmt_5, D.17583
	cmpb	$101, %al	#, D.17583
	jne	.L325	#,
	.loc 1 2018 0
	movq	-40(%rbp), %rax	# x, tmp126
	movl	-24(%rbp), %edx	# i, tmp128
	movslq	%edx, %rdx	# tmp128, tmp127
	movq	8(%rax,%rdx,8), %rax	# x_7(D)->fld[i_2].rtx, D.17578
	movq	%rax, %rdi	# D.17578,
	call	check_sibcall_argument_overlap_1	#
	testl	%eax, %eax	# D.17576
	je	.L326	#,
	.loc 1 2019 0
	movl	$1, %eax	#, D.17576
	jmp	.L316	#
.L325:
	.loc 1 2021 0
	movq	-8(%rbp), %rax	# fmt, tmp129
	movzbl	(%rax), %eax	# *fmt_5, D.17583
	cmpb	$69, %al	#, D.17583
	jne	.L326	#,
	.loc 1 2023 0
	movl	$0, -20(%rbp)	#, j
	jmp	.L327	#
.L329:
	.loc 1 2024 0
	movq	-40(%rbp), %rax	# x, tmp130
	movl	-24(%rbp), %edx	# i, tmp132
	movslq	%edx, %rdx	# tmp132, tmp131
	movq	8(%rax,%rdx,8), %rax	# x_7(D)->fld[i_2].rtvec, D.17584
	movl	-20(%rbp), %edx	# j, tmp134
	movslq	%edx, %rdx	# tmp134, tmp133
	movq	8(%rax,%rdx,8), %rax	# _66->elem, D.17578
	movq	%rax, %rdi	# D.17578,
	call	check_sibcall_argument_overlap_1	#
	testl	%eax, %eax	# D.17576
	je	.L328	#,
	.loc 1 2025 0
	movl	$1, %eax	#, D.17576
	jmp	.L316	#
.L328:
	.loc 1 2023 0
	addl	$1, -20(%rbp)	#, j
.L327:
	.loc 1 2023 0 is_stmt 0 discriminator 1
	movq	-40(%rbp), %rax	# x, tmp135
	movl	-24(%rbp), %edx	# i, tmp137
	movslq	%edx, %rdx	# tmp137, tmp136
	movq	8(%rax,%rdx,8), %rax	# x_7(D)->fld[i_2].rtvec, D.17584
	movl	(%rax), %eax	# _64->num_elem, D.17576
	cmpl	-20(%rbp), %eax	# j, D.17576
	jg	.L329	#,
.L326:
	.loc 1 2014 0 is_stmt 1
	addl	$1, -24(%rbp)	#, i
	addq	$1, -8(%rbp)	#, fmt
.L324:
	.loc 1 2014 0 is_stmt 0 discriminator 1
	movl	-12(%rbp), %eax	# code, code.124
	cltq
	movzbl	rtx_length(%rax), %eax	# rtx_length, D.17580
	movzbl	%al, %eax	# D.17580, D.17576
	cmpl	-24(%rbp), %eax	# i, D.17576
	jg	.L330	#,
	.loc 1 2028 0 is_stmt 1
	movl	$0, %eax	#, D.17576
.L316:
	.loc 1 2029 0
	leave
	.cfi_def_cfa 7, 8
	ret
	.cfi_endproc
.LFE22:
	.size	check_sibcall_argument_overlap_1, .-check_sibcall_argument_overlap_1
	.type	check_sibcall_argument_overlap, @function
check_sibcall_argument_overlap:
.LFB23:
	.loc 1 2041 0
	.cfi_startproc
	pushq	%rbp	#
	.cfi_def_cfa_offset 16
	.cfi_offset 6, -16
	movq	%rsp, %rbp	#,
	.cfi_def_cfa_register 6
	subq	$32, %rsp	#,
	movq	%rdi, -24(%rbp)	# insn, insn
	movq	%rsi, -32(%rbp)	# arg, arg
	.loc 1 2044 0
	cmpq	$0, -24(%rbp)	#, insn
	jne	.L332	#,
	.loc 1 2045 0
	call	get_insns	#
	movq	%rax, -24(%rbp)	# tmp80, insn
	.loc 1 2049 0
	jmp	.L334	#
.L332:
	.loc 1 2047 0
	movq	-24(%rbp), %rax	# insn, tmp81
	movq	24(%rax), %rax	# insn_4(D)->fld[2].rtx, tmp82
	movq	%rax, -24(%rbp)	# tmp82, insn
	.loc 1 2049 0
	jmp	.L334	#
.L337:
	.loc 1 2050 0
	movq	-24(%rbp), %rax	# insn, tmp83
	movzwl	(%rax), %eax	# insn_2->code, D.17585
	movzwl	%ax, %eax	# D.17585, D.17586
	cltq
	movzbl	rtx_class(%rax), %eax	# rtx_class, D.17587
	cmpb	$105, %al	#, D.17587
	jne	.L335	#,
	.loc 1 2051 0
	movq	-24(%rbp), %rax	# insn, tmp85
	movq	32(%rax), %rax	# insn_2->fld[3].rtx, D.17588
	movq	%rax, %rdi	# D.17588,
	call	check_sibcall_argument_overlap_1	#
	testl	%eax, %eax	# D.17586
	je	.L335	#,
	.loc 1 2052 0
	jmp	.L336	#
.L335:
	.loc 1 2049 0
	movq	-24(%rbp), %rax	# insn, tmp86
	movq	24(%rax), %rax	# insn_2->fld[2].rtx, tmp87
	movq	%rax, -24(%rbp)	# tmp87, insn
.L334:
	.loc 1 2049 0 is_stmt 0 discriminator 1
	cmpq	$0, -24(%rbp)	#, insn
	jne	.L337	#,
.L336:
	.loc 1 2057 0 is_stmt 1
	movq	-32(%rbp), %rax	# arg, tmp88
	movq	80(%rax), %rax	# arg_13(D)->slot_offset.constant, D.17589
	movl	%eax, -8(%rbp)	# D.17589, low
	.loc 1 2060 0
	movq	-32(%rbp), %rax	# arg, tmp89
	movq	96(%rax), %rax	# arg_13(D)->size.constant, D.17589
	movl	%eax, %edx	# D.17589, D.17590
	movl	-8(%rbp), %eax	# low, low.125
	addl	%edx, %eax	# D.17590, D.17590
	movl	%eax, -4(%rbp)	# D.17590, high
	jmp	.L338	#
.L339:
	.loc 1 2061 0 discriminator 2
	movq	stored_args_map(%rip), %rdx	# stored_args_map, stored_args_map.126
	movl	-8(%rbp), %eax	# low, low.127
	shrl	$6, %eax	#, D.17591
	movq	stored_args_map(%rip), %rcx	# stored_args_map, stored_args_map.128
	movl	%eax, %esi	# D.17591, tmp90
	addq	$2, %rsi	#, tmp91
	movq	(%rcx,%rsi,8), %rsi	# stored_args_map.128_24->elms, D.17592
	movl	-8(%rbp), %ecx	# low, tmp92
	andl	$63, %ecx	#, D.17586
	movl	$1, %edi	#, tmp93
	salq	%cl, %rdi	# D.17586, D.17592
	movq	%rdi, %rcx	# D.17592, D.17592
	orq	%rsi, %rcx	# D.17592, D.17592
	movl	%eax, %eax	# D.17591, tmp94
	addq	$2, %rax	#, tmp95
	movq	%rcx, (%rdx,%rax,8)	# D.17592, stored_args_map.126_21->elms
	.loc 1 2060 0 discriminator 2
	addl	$1, -8(%rbp)	#, low
.L338:
	.loc 1 2060 0 is_stmt 0 discriminator 1
	movl	-8(%rbp), %eax	# low, tmp96
	cmpl	-4(%rbp), %eax	# high, tmp96
	jl	.L339	#,
	.loc 1 2062 0 is_stmt 1
	cmpq	$0, -24(%rbp)	#, insn
	setne	%al	#, D.17593
	movzbl	%al, %eax	# D.17593, D.17586
	.loc 1 2063 0
	leave
	.cfi_def_cfa 7, 8
	ret
	.cfi_endproc
.LFE23:
	.size	check_sibcall_argument_overlap, .-check_sibcall_argument_overlap
	.section	.rodata
.LC18:
	.string	"can't inline call to `%s'"
	.align 8
.LC19:
	.string	"function call has aggregate value"
.LC20:
	.string	"__bb_fork_func"
	.text
	.globl	expand_call
	.type	expand_call, @function
expand_call:
.LFB24:
	.loc 1 2076 0
	.cfi_startproc
	pushq	%rbp	#
	.cfi_def_cfa_offset 16
	.cfi_offset 6, -16
	movq	%rsp, %rbp	#,
	.cfi_def_cfa_register 6
	pushq	%rbx	#
	subq	$584, %rsp	#,
	.cfi_offset 3, -24
	movq	%rdi, -520(%rbp)	# exp, exp
	movq	%rsi, -528(%rbp)	# target, target
	movl	%edx, -532(%rbp)	# ignore, ignore
	.loc 1 2081 0
	movq	-520(%rbp), %rax	# exp, tmp696
	movq	40(%rax), %rax	# exp_89(D)->exp.operands, tmp697
	movq	%rax, -376(%rbp)	# tmp697, actparms
	.loc 1 2085 0
	movq	$0, -368(%rbp)	#, tail_recursion_insns
	.loc 1 2087 0
	movq	$0, -360(%rbp)	#, normal_call_insns
	.loc 1 2089 0
	movq	$0, -352(%rbp)	#, tail_call_insns
	.loc 1 2094 0
	movq	$0, -272(%rbp)	#, fndecl
	.loc 1 2096 0
	movl	$1, -488(%rbp)	#, try_tail_call
	.loc 1 2097 0
	movl	$1, -484(%rbp)	#, try_tail_recursion
	.loc 1 2105 0
	movq	$0, -328(%rbp)	#, structure_value_addr
	.loc 1 2109 0
	movl	$0, -476(%rbp)	#, structure_value_addr_parm
	.loc 1 2113 0
	movq	$0, -320(%rbp)	#, struct_value_size
	.loc 1 2116 0
	movl	$0, -432(%rbp)	#, pcc_struct_value
	.loc 1 2146 0
	movl	target_flags(%rip), %eax	# target_flags, target_flags.130
	andl	$2048, %eax	#, D.17595
	testl	%eax, %eax	# D.17595
	jne	.L342	#,
	.loc 1 2146 0 is_stmt 0 discriminator 2
	movl	target_flags(%rip), %eax	# target_flags, target_flags.131
	andl	$4096, %eax	#, D.17595
	testl	%eax, %eax	# D.17595
	je	.L343	#,
.L342:
	.loc 1 2146 0 discriminator 1
	movl	$1, %eax	#, iftmp.129
	jmp	.L344	#
.L343:
	.loc 1 2146 0 discriminator 3
	movl	$0, %eax	#, iftmp.129
.L344:
	.loc 1 2146 0 discriminator 4
	movl	%eax, -508(%rbp)	# iftmp.129, must_preallocate
	.loc 1 2149 0 is_stmt 1 discriminator 4
	movl	$0, -428(%rbp)	#, reg_parm_stack_space
	.loc 1 2153 0 discriminator 4
	movq	$0, -312(%rbp)	#, argblock
	.loc 1 2156 0 discriminator 4
	movl	$0, -504(%rbp)	#, flags
	.loc 1 2158 0 discriminator 4
	movl	$0, -468(%rbp)	#, is_integrable
	.loc 1 2162 0 discriminator 4
	movl	$-1, -500(%rbp)	#, low_to_save
	.loc 1 2163 0 discriminator 4
	movq	$0, -304(%rbp)	#, save_area
	.loc 1 2166 0 discriminator 4
	movl	highest_outgoing_arg_in_use(%rip), %eax	# highest_outgoing_arg_in_use, tmp698
	movl	%eax, -424(%rbp)	# tmp698, initial_highest_arg_in_use
	.loc 1 2167 0 discriminator 4
	movq	stack_usage_map(%rip), %rax	# stack_usage_map, tmp699
	movq	%rax, -264(%rbp)	# tmp699, initial_stack_usage_map
	.loc 1 2168 0 discriminator 4
	movl	$0, -464(%rbp)	#, old_stack_arg_under_construction
	.loc 1 2170 0 discriminator 4
	movq	$0, -392(%rbp)	#, old_stack_level
	.loc 1 2171 0 discriminator 4
	movl	$0, -492(%rbp)	#, old_pending_adj
	.loc 1 2172 0 discriminator 4
	movq	cfun(%rip), %rax	# cfun, cfun.132
	movq	16(%rax), %rax	# cfun.132_114->expr, D.17596
	movl	4(%rax), %eax	# _115->x_inhibit_defer_pop, tmp700
	movl	%eax, -420(%rbp)	# tmp700, old_inhibit_defer_pop
	.loc 1 2175 0 discriminator 4
	movq	-520(%rbp), %rax	# exp, tmp701
	movq	32(%rax), %rax	# exp_89(D)->exp.operands, tmp702
	movq	%rax, -296(%rbp)	# tmp702, p
	.loc 1 2183 0 discriminator 4
	movq	-520(%rbp), %rax	# exp, tmp703
	movzbl	18(%rax), %eax	# *exp_89(D), D.17597
	andl	$2, %eax	#, D.17597
	testb	%al, %al	# D.17597
	je	.L345	#,
	.loc 1 2184 0
	movl	-504(%rbp), %eax	# flags, flags.133
	orl	$16, %eax	#, flags.134
	movl	%eax, -504(%rbp)	# flags.134, flags
.L345:
	.loc 1 2189 0
	movq	-520(%rbp), %rax	# exp, tmp704
	movq	%rax, %rdi	# tmp704,
	call	get_callee_fndecl	#
	movq	%rax, -272(%rbp)	# tmp705, fndecl
	.loc 1 2190 0
	cmpq	$0, -272(%rbp)	#, fndecl
	je	.L346	#,
	.loc 1 2192 0
	movl	flag_no_inline(%rip), %eax	# flag_no_inline, flag_no_inline.135
	testl	%eax, %eax	# flag_no_inline.135
	jne	.L347	#,
	.loc 1 2193 0
	movq	current_function_decl(%rip), %rax	# current_function_decl, current_function_decl.136
	cmpq	%rax, -272(%rbp)	# current_function_decl.136, fndecl
	je	.L347	#,
	.loc 1 2194 0
	movq	-272(%rbp), %rax	# fndecl, tmp706
	movzbl	49(%rax), %eax	# *fndecl_122, D.17597
	andl	$8, %eax	#, D.17597
	testb	%al, %al	# D.17597
	je	.L347	#,
	.loc 1 2195 0
	movq	-272(%rbp), %rax	# fndecl, tmp707
	movq	160(%rax), %rax	# fndecl_122->decl.u2.f, D.17598
	testq	%rax, %rax	# D.17598
	je	.L347	#,
	.loc 1 2196 0
	movq	-272(%rbp), %rax	# fndecl, tmp708
	movq	160(%rax), %rax	# fndecl_122->decl.u2.f, D.17598
	movl	352(%rax), %eax	# _128->inlinable, D.17595
	testl	%eax, %eax	# D.17595
	je	.L347	#,
	.loc 1 2197 0
	movl	$1, -468(%rbp)	#, is_integrable
	jmp	.L348	#
.L347:
	.loc 1 2198 0
	movq	-272(%rbp), %rax	# fndecl, tmp709
	movzbl	17(%rax), %eax	# *fndecl_122, D.17597
	andl	$4, %eax	#, D.17597
	testb	%al, %al	# D.17597
	jne	.L348	#,
	.loc 1 2205 0
	movq	-272(%rbp), %rax	# fndecl, tmp710
	movzbl	49(%rax), %eax	# *fndecl_122, D.17597
	andl	$8, %eax	#, D.17597
	testb	%al, %al	# D.17597
	je	.L349	#,
	.loc 1 2205 0 is_stmt 0 discriminator 1
	movl	warn_inline(%rip), %eax	# warn_inline, warn_inline.137
	testl	%eax, %eax	# warn_inline.137
	je	.L349	#,
	movl	flag_no_inline(%rip), %eax	# flag_no_inline, flag_no_inline.138
	testl	%eax, %eax	# flag_no_inline.138
	jne	.L349	#,
	.loc 1 2206 0 is_stmt 1
	movl	optimize(%rip), %eax	# optimize, optimize.139
	testl	%eax, %eax	# optimize.139
	jle	.L349	#,
	.loc 1 2208 0
	movq	-272(%rbp), %rax	# fndecl, tmp711
	movl	$.LC18, %esi	#,
	movq	%rax, %rdi	# tmp711,
	movl	$0, %eax	#,
	call	warning_with_decl	#
	.loc 1 2209 0
	movl	$.LC17, %edi	#,
	movl	$0, %eax	#,
	call	warning	#
.L349:
	.loc 1 2211 0
	movq	-272(%rbp), %rax	# fndecl, tmp712
	movq	%rax, %rdi	# tmp712,
	call	mark_addressable	#
.L348:
	.loc 1 2214 0
	movq	-272(%rbp), %rax	# fndecl, tmp713
	movq	%rax, %rdi	# tmp713,
	call	flags_from_decl_or_type	#
	movl	-504(%rbp), %edx	# flags, flags.140
	orl	%edx, %eax	# flags.140, flags.141
	movl	%eax, -504(%rbp)	# flags.141, flags
	jmp	.L350	#
.L346:
	.loc 1 2220 0
	movq	-296(%rbp), %rax	# p, tmp714
	movq	8(%rax), %rax	# p_117->common.type, D.17599
	movq	8(%rax), %rax	# _141->common.type, D.17599
	movq	%rax, %rdi	# D.17599,
	call	flags_from_decl_or_type	#
	movl	-504(%rbp), %edx	# flags, flags.142
	orl	%edx, %eax	# flags.142, flags.143
	movl	%eax, -504(%rbp)	# flags.143, flags
.L350:
	.loc 1 2226 0
	movl	$0, -428(%rbp)	#, reg_parm_stack_space
	.loc 1 2231 0
	cmpl	$0, -428(%rbp)	#, reg_parm_stack_space
	jle	.L351	#,
	.loc 1 2231 0 is_stmt 0 discriminator 1
	movl	target_flags(%rip), %eax	# target_flags, target_flags.144
	andl	$2048, %eax	#, D.17595
	testl	%eax, %eax	# D.17595
	jne	.L351	#,
	movl	target_flags(%rip), %eax	# target_flags, target_flags.145
	andl	$4096, %eax	#, D.17595
	testl	%eax, %eax	# D.17595
	jne	.L351	#,
	.loc 1 2232 0 is_stmt 1
	movl	$1, -508(%rbp)	#, must_preallocate
.L351:
	.loc 1 2237 0
	movl	warn_aggregate_return(%rip), %eax	# warn_aggregate_return, warn_aggregate_return.146
	testl	%eax, %eax	# warn_aggregate_return.146
	je	.L352	#,
	.loc 1 2237 0 is_stmt 0 discriminator 1
	movq	-520(%rbp), %rax	# exp, tmp715
	movq	8(%rax), %rax	# exp_89(D)->common.type, D.17599
	movzbl	16(%rax), %eax	# _152->common.code, D.17597
	cmpb	$18, %al	#, D.17597
	je	.L353	#,
	movq	-520(%rbp), %rax	# exp, tmp716
	movq	8(%rax), %rax	# exp_89(D)->common.type, D.17599
	movzbl	16(%rax), %eax	# _154->common.code, D.17597
	cmpb	$20, %al	#, D.17597
	je	.L353	#,
	movq	-520(%rbp), %rax	# exp, tmp717
	movq	8(%rax), %rax	# exp_89(D)->common.type, D.17599
	movzbl	16(%rax), %eax	# _156->common.code, D.17597
	cmpb	$21, %al	#, D.17597
	je	.L353	#,
	movq	-520(%rbp), %rax	# exp, tmp718
	movq	8(%rax), %rax	# exp_89(D)->common.type, D.17599
	movzbl	16(%rax), %eax	# _158->common.code, D.17597
	cmpb	$22, %al	#, D.17597
	je	.L353	#,
	movq	-520(%rbp), %rax	# exp, tmp719
	movq	8(%rax), %rax	# exp_89(D)->common.type, D.17599
	movzbl	16(%rax), %eax	# _160->common.code, D.17597
	cmpb	$19, %al	#, D.17597
	jne	.L352	#,
.L353:
	.loc 1 2238 0 is_stmt 1
	movl	$.LC19, %edi	#,
	movl	$0, %eax	#,
	call	warning	#
.L352:
	.loc 1 2243 0
	movq	-520(%rbp), %rax	# exp, tmp720
	movq	%rax, %rdi	# tmp720,
	call	aggregate_value_p	#
	testl	%eax, %eax	# D.17595
	je	.L354	#,
	.loc 1 2246 0
	movl	-504(%rbp), %eax	# flags, flags.147
	andl	$-4610, %eax	#, flags.148
	movl	%eax, -504(%rbp)	# flags.148, flags
	.loc 1 2263 0
	movq	-520(%rbp), %rax	# exp, tmp721
	movq	8(%rax), %rax	# exp_89(D)->common.type, D.17599
	movq	%rax, %rdi	# D.17599,
	call	int_size_in_bytes	#
	movq	%rax, -320(%rbp)	# tmp722, struct_value_size
	.loc 1 2265 0
	cmpq	$0, -528(%rbp)	#, target
	je	.L355	#,
	.loc 1 2265 0 is_stmt 0 discriminator 1
	movq	-528(%rbp), %rax	# target, tmp723
	movzwl	(%rax), %eax	# target_163(D)->code, D.17600
	cmpw	$66, %ax	#, D.17600
	jne	.L355	#,
	.loc 1 2266 0 is_stmt 1
	movq	-528(%rbp), %rax	# target, tmp724
	movq	8(%rax), %rax	# target_163(D)->fld[0].rtx, tmp725
	movq	%rax, -328(%rbp)	# tmp725, structure_value_addr
	jmp	.L354	#
.L355:
.LBB22:
	.loc 1 2272 0
	movq	-520(%rbp), %rax	# exp, tmp726
	movq	8(%rax), %rax	# exp_89(D)->common.type, D.17599
	movl	$1, %ecx	#,
	movl	$1, %edx	#,
	movl	$1, %esi	#,
	movq	%rax, %rdi	# D.17599,
	call	assign_temp	#
	movq	%rax, -256(%rbp)	# tmp727, d
	.loc 1 2274 0
	movq	-256(%rbp), %rax	# d, tmp728
	movq	%rax, %rdi	# tmp728,
	call	mark_temp_addr_taken	#
	.loc 1 2275 0
	movq	-256(%rbp), %rax	# d, tmp729
	movq	8(%rax), %rax	# d_171->fld[0].rtx, tmp730
	movq	%rax, -328(%rbp)	# tmp730, structure_value_addr
	.loc 1 2276 0
	movq	$0, -528(%rbp)	#, target
.L354:
.LBE22:
	.loc 1 2284 0
	cmpl	$0, -468(%rbp)	#, is_integrable
	je	.L356	#,
.LBB23:
	.loc 1 2286 0
	movq	-520(%rbp), %rax	# exp, tmp731
	movq	8(%rax), %rdi	# exp_89(D)->common.type, D.17599
	movq	-328(%rbp), %r8	# structure_value_addr, tmp732
	movl	-532(%rbp), %ecx	# ignore, tmp733
	movq	-528(%rbp), %rdx	# target, tmp734
	movq	-376(%rbp), %rsi	# actparms, tmp735
	movq	-272(%rbp), %rax	# fndecl, tmp736
	movq	%r8, %r9	# tmp732,
	movq	%rdi, %r8	# D.17599,
	movq	%rax, %rdi	# tmp736,
	call	try_to_integrate	#
	movq	%rax, -248(%rbp)	# tmp737, temp
	.loc 1 2289 0
	cmpq	$-1, -248(%rbp)	#, temp
	je	.L356	#,
	.loc 1 2290 0
	movq	-248(%rbp), %rax	# temp, D.17594
	jmp	.L519	#
.L356:
.LBE23:
	.loc 1 2294 0
	movl	ix86_preferred_stack_boundary(%rip), %eax	# ix86_preferred_stack_boundary, ix86_preferred_stack_boundary.149
	cltq
	movq	%rax, -240(%rbp)	# tmp738, preferred_stack_boundary
	.loc 1 2297 0
	movq	-520(%rbp), %rax	# exp, tmp739
	movq	32(%rax), %rax	# exp_89(D)->exp.operands, D.17599
	movq	8(%rax), %rax	# _180->common.type, tmp740
	movq	%rax, -232(%rbp)	# tmp740, funtype
	.loc 1 2298 0
	movq	-232(%rbp), %rax	# funtype, tmp741
	movzbl	16(%rax), %eax	# funtype_181->common.code, D.17597
	cmpb	$13, %al	#, D.17597
	je	.L358	#,
	.loc 1 2298 0 is_stmt 0 discriminator 1
	movq	-232(%rbp), %rax	# funtype, tmp742
	movzbl	16(%rax), %eax	# funtype_181->common.code, D.17597
	cmpb	$15, %al	#, D.17597
	je	.L358	#,
	.loc 1 2299 0 is_stmt 1
	movl	$__FUNCTION__.13040, %edx	#,
	movl	$2299, %esi	#,
	movl	$.LC0, %edi	#,
	call	fancy_abort	#
.L358:
	.loc 1 2300 0
	movq	-232(%rbp), %rax	# funtype, tmp743
	movq	8(%rax), %rax	# funtype_181->common.type, tmp744
	movq	%rax, -232(%rbp)	# tmp744, funtype
	.loc 1 2304 0
	movl	-504(%rbp), %edx	# flags, flags.150
	movq	-272(%rbp), %rax	# fndecl, tmp745
	movl	%edx, %esi	# flags.150,
	movq	%rax, %rdi	# tmp745,
	call	special_function_p	#
	movl	-504(%rbp), %edx	# flags, flags.151
	orl	%edx, %eax	# flags.151, flags.152
	movl	%eax, -504(%rbp)	# flags.152, flags
	.loc 1 2306 0
	movl	-504(%rbp), %eax	# flags, flags.153
	andl	$8, %eax	#, D.17595
	testl	%eax, %eax	# D.17595
	je	.L359	#,
	.loc 1 2307 0
	movq	cfun(%rip), %rax	# cfun, cfun.154
	movzbl	424(%rax), %edx	# cfun.154_191->calls_alloca, tmp748
	orl	$64, %edx	#, tmp749
	movb	%dl, 424(%rax)	# tmp749, cfun.154_191->calls_alloca
.L359:
	.loc 1 2311 0
	cmpq	$0, -328(%rbp)	#, structure_value_addr
	je	.L360	#,
	.loc 1 2311 0 is_stmt 0 discriminator 1
	movq	struct_value_rtx(%rip), %rax	# struct_value_rtx, struct_value_rtx.155
	testq	%rax, %rax	# struct_value_rtx.155
	jne	.L360	#,
.LBB24:
	.loc 1 2318 0 is_stmt 1
	movq	-328(%rbp), %rax	# structure_value_addr, tmp750
	movzwl	(%rax), %eax	# structure_value_addr_36->code, D.17600
	.loc 1 2323 0
	cmpw	$61, %ax	#, D.17600
	jne	.L361	#,
	.loc 1 2319 0
	movl	target_flags(%rip), %eax	# target_flags, target_flags.157
	andl	$4096, %eax	#, D.17595
	testl	%eax, %eax	# D.17595
	je	.L362	#,
	.loc 1 2320 0
	movl	stack_arg_under_construction(%rip), %eax	# stack_arg_under_construction, stack_arg_under_construction.158
	testl	%eax, %eax	# stack_arg_under_construction.158
	je	.L362	#,
	.loc 1 2321 0
	movq	global_rtl+72(%rip), %rax	# global_rtl, D.17601
	cmpq	-328(%rbp), %rax	# structure_value_addr, D.17601
	jne	.L362	#,
.L361:
	.loc 1 2323 0 discriminator 1
	movq	-328(%rbp), %rax	# structure_value_addr, tmp751
	movq	%rax, %rdi	# tmp751,
	call	copy_addr_to_reg	#
	jmp	.L363	#
.L362:
	.loc 1 2323 0 is_stmt 0
	movq	-328(%rbp), %rax	# structure_value_addr, iftmp.156
.L363:
	.loc 1 2318 0 is_stmt 1
	movq	%rax, -224(%rbp)	# iftmp.156, temp
	.loc 1 2326 0
	movq	-232(%rbp), %rax	# funtype, tmp752
	movq	8(%rax), %rax	# funtype_184->common.type, D.17599
	movq	%rax, %rdi	# D.17599,
	call	build_pointer_type	#
	movq	-224(%rbp), %rdx	# temp, tmp753
	movq	%rdx, %rsi	# tmp753,
	movq	%rax, %rdi	# D.17599,
	call	make_tree	#
	movq	%rax, %rcx	#, D.17599
	movq	global_trees(%rip), %rax	# global_trees, D.17599
	movq	-376(%rbp), %rdx	# actparms, tmp754
	movq	%rcx, %rsi	# D.17599,
	movq	%rax, %rdi	# D.17599,
	call	tree_cons	#
	movq	%rax, -376(%rbp)	# tmp755, actparms
	.loc 1 2330 0
	movl	$1, -476(%rbp)	#, structure_value_addr_parm
.L360:
.LBE24:
	.loc 1 2334 0
	movq	-376(%rbp), %rax	# actparms, tmp756
	movq	%rax, -296(%rbp)	# tmp756, p
	movl	$0, -472(%rbp)	#, num_actuals
	jmp	.L364	#
.L365:
	.loc 1 2335 0 discriminator 2
	addl	$1, -472(%rbp)	#, num_actuals
	.loc 1 2334 0 discriminator 2
	movq	-296(%rbp), %rax	# p, tmp757
	movq	(%rax), %rax	# p_54->common.chain, tmp758
	movq	%rax, -296(%rbp)	# tmp758, p
.L364:
	.loc 1 2334 0 is_stmt 0 discriminator 1
	cmpq	$0, -296(%rbp)	#, p
	jne	.L365	#,
	.loc 1 2364 0 is_stmt 1
	movl	-472(%rbp), %eax	# num_actuals, tmp759
	movl	%eax, -416(%rbp)	# tmp759, n_named_args
	.loc 1 2372 0
	movq	-232(%rbp), %rcx	# funtype, tmp760
	leaq	-48(%rbp), %rax	#, tmp761
	movl	$0, %edx	#,
	movq	%rcx, %rsi	# tmp760,
	movq	%rax, %rdi	# tmp761,
	call	init_cumulative_args	#
	.loc 1 2375 0
	movl	-472(%rbp), %eax	# num_actuals, tmp762
	movslq	%eax, %rdx	# tmp762, D.17602
	movq	%rdx, %rax	# D.17602, tmp763
	salq	$2, %rax	#, tmp763
	addq	%rdx, %rax	# D.17602, tmp763
	salq	$2, %rax	#, tmp763
	addq	%rdx, %rax	# D.17602, tmp763
	salq	$3, %rax	#, tmp764
	leaq	15(%rax), %rdx	#, tmp765
	movl	$16, %eax	#, tmp1260
	subq	$1, %rax	#, tmp766
	addq	%rdx, %rax	# tmp765, tmp767
	movl	$16, %ebx	#, tmp1261
	movl	$0, %edx	#, tmp770
	divq	%rbx	# tmp1261
	imulq	$16, %rax, %rax	#, tmp769, tmp771
	subq	%rax, %rsp	# tmp771,
	leaq	48(%rsp), %rax	#, tmp772
	addq	$15, %rax	#, tmp773
	shrq	$4, %rax	#, tmp774
	salq	$4, %rax	#, tmp775
	movq	%rax, -216(%rbp)	# tmp775, args
	.loc 1 2376 0
	movl	-472(%rbp), %eax	# num_actuals, tmp776
	movslq	%eax, %rdx	# tmp776, D.17602
	movq	%rdx, %rax	# D.17602, tmp777
	salq	$2, %rax	#, tmp777
	addq	%rdx, %rax	# D.17602, tmp777
	salq	$2, %rax	#, tmp777
	addq	%rdx, %rax	# D.17602, tmp777
	salq	$3, %rax	#, tmp778
	movq	%rax, %rdx	# tmp777, D.17602
	movq	-216(%rbp), %rax	# args, tmp779
	movl	$0, %esi	#,
	movq	%rax, %rdi	# tmp779,
	call	memset	#
	.loc 1 2380 0
	movq	-272(%rbp), %r9	# fndecl, tmp780
	movq	-376(%rbp), %r8	# actparms, tmp781
	movl	-416(%rbp), %ecx	# n_named_args, tmp782
	leaq	-80(%rbp), %rdx	#, tmp783
	movq	-216(%rbp), %rsi	# args, tmp784
	movl	-472(%rbp), %eax	# num_actuals, tmp785
	leaq	-504(%rbp), %rdi	#, tmp786
	movq	%rdi, 40(%rsp)	# tmp786,
	leaq	-508(%rbp), %rdi	#, tmp787
	movq	%rdi, 32(%rsp)	# tmp787,
	leaq	-492(%rbp), %rdi	#, tmp788
	movq	%rdi, 24(%rsp)	# tmp788,
	leaq	-392(%rbp), %rdi	#, tmp789
	movq	%rdi, 16(%rsp)	# tmp789,
	movl	-428(%rbp), %edi	# reg_parm_stack_space, tmp790
	movl	%edi, 8(%rsp)	# tmp790,
	leaq	-48(%rbp), %rdi	#, tmp791
	movq	%rdi, (%rsp)	# tmp791,
	movl	%eax, %edi	# tmp785,
	call	initialize_argument_information	#
	.loc 1 2386 0
	movq	-72(%rbp), %rax	# args_size.var, D.17599
	testq	%rax, %rax	# D.17599
	je	.L366	#,
	.loc 1 2393 0
	movl	-504(%rbp), %eax	# flags, flags.159
	andb	$239, %ah	#, flags.160
	movl	%eax, -504(%rbp)	# flags.160, flags
	.loc 1 2394 0
	movl	$1, -508(%rbp)	#, must_preallocate
.L366:
	.loc 1 2398 0
	movl	-508(%rbp), %eax	# must_preallocate, must_preallocate.161
	leaq	-80(%rbp), %rcx	#, tmp792
	movq	-216(%rbp), %rdx	# args, tmp793
	movl	-472(%rbp), %esi	# num_actuals, tmp794
	movl	%eax, %edi	# must_preallocate.161,
	call	finalize_must_preallocate	#
	movl	%eax, -508(%rbp)	# must_preallocate.162, must_preallocate
	.loc 1 2406 0
	cmpq	$0, -328(%rbp)	#, structure_value_addr
	je	.L367	#,
	.loc 1 2407 0
	movq	global_rtl+64(%rip), %rax	# global_rtl, D.17601
	movq	-328(%rbp), %rdx	# structure_value_addr, tmp795
	movq	%rdx, %rsi	# tmp795,
	movq	%rax, %rdi	# D.17601,
	call	reg_mentioned_p	#
	testl	%eax, %eax	# D.17595
	jne	.L368	#,
	.loc 1 2408 0
	movq	global_rtl+72(%rip), %rax	# global_rtl, D.17601
	movq	-328(%rbp), %rdx	# structure_value_addr, tmp796
	movq	%rdx, %rsi	# tmp796,
	movq	%rax, %rdi	# D.17601,
	call	reg_mentioned_p	#
	testl	%eax, %eax	# D.17595
	je	.L367	#,
.L368:
	.loc 1 2410 0
	movq	-72(%rbp), %rax	# args_size.var, D.17599
	testq	%rax, %rax	# D.17599
	jne	.L369	#,
	.loc 1 2411 0
	movl	target_flags(%rip), %eax	# target_flags, target_flags.163
	andl	$4096, %eax	#, D.17595
	testl	%eax, %eax	# D.17595
	jne	.L367	#,
	.loc 1 2411 0 is_stmt 0 discriminator 1
	movq	-80(%rbp), %rax	# args_size.constant, D.17603
	testq	%rax, %rax	# D.17603
	je	.L367	#,
.L369:
	.loc 1 2412 0 is_stmt 1
	movq	-328(%rbp), %rax	# structure_value_addr, tmp797
	movq	%rax, %rdi	# tmp797,
	call	copy_to_reg	#
	movq	%rax, -328(%rbp)	# tmp798, structure_value_addr
.L367:
	.loc 1 2425 0
	movl	currently_expanding_call.12993(%rip), %eax	# currently_expanding_call, currently_expanding_call.164
	leal	1(%rax), %edx	#, currently_expanding_call.166
	movl	%edx, currently_expanding_call.12993(%rip)	# currently_expanding_call.166, currently_expanding_call
	testl	%eax, %eax	# currently_expanding_call.165
	jne	.L370	#,
	.loc 1 2426 0
	movl	flag_optimize_sibling_calls(%rip), %eax	# flag_optimize_sibling_calls, flag_optimize_sibling_calls.167
	testl	%eax, %eax	# flag_optimize_sibling_calls.167
	je	.L370	#,
	.loc 1 2427 0
	movl	rtx_equal_function_value_matters(%rip), %eax	# rtx_equal_function_value_matters, rtx_equal_function_value_matters.168
	testl	%eax, %eax	# rtx_equal_function_value_matters.168
	je	.L370	#,
	.loc 1 2428 0
	movl	$1, %edi	#,
	call	any_pending_cleanups	#
	testl	%eax, %eax	# D.17595
	jne	.L370	#,
	.loc 1 2429 0
	movq	-72(%rbp), %rax	# args_size.var, D.17599
	testq	%rax, %rax	# D.17599
	je	.L371	#,
.L370:
	.loc 1 2430 0
	movl	$0, -484(%rbp)	#, try_tail_recursion
	movl	-484(%rbp), %eax	# try_tail_recursion, tmp799
	movl	%eax, -488(%rbp)	# tmp799, try_tail_call
.L371:
	.loc 1 2433 0
	cmpl	$0, -484(%rbp)	#, try_tail_recursion
	je	.L372	#,
	.loc 1 2434 0
	movq	-520(%rbp), %rax	# exp, tmp800
	movq	32(%rax), %rax	# exp_89(D)->exp.operands, D.17599
	movzbl	16(%rax), %eax	# _240->common.code, D.17597
	cmpb	$121, %al	#, D.17597
	jne	.L372	#,
	.loc 1 2435 0
	movq	-520(%rbp), %rax	# exp, tmp801
	movq	32(%rax), %rax	# exp_89(D)->exp.operands, D.17599
	movq	32(%rax), %rdx	# _242->exp.operands, D.17599
	movq	current_function_decl(%rip), %rax	# current_function_decl, current_function_decl.169
	cmpq	%rax, %rdx	# current_function_decl.169, D.17599
	je	.L373	#,
.L372:
	.loc 1 2436 0
	movl	$0, -484(%rbp)	#, try_tail_recursion
.L373:
	.loc 1 2439 0
	cmpl	$0, -488(%rbp)	#, try_tail_call
	je	.L374	#,
	.loc 1 2450 0
	cmpq	$0, -328(%rbp)	#, structure_value_addr
	jne	.L374	#,
	.loc 1 2458 0
	cmpq	$0, -272(%rbp)	#, fndecl
	je	.L374	#,
	.loc 1 2459 0
	movl	-504(%rbp), %eax	# flags, flags.170
	andl	$96, %eax	#, D.17595
	testl	%eax, %eax	# D.17595
	jne	.L374	#,
	.loc 1 2460 0
	movq	-272(%rbp), %rax	# fndecl, tmp802
	movzbl	17(%rax), %eax	# *fndecl_122, D.17597
	andl	$8, %eax	#, D.17597
	testb	%al, %al	# D.17597
	jne	.L374	#,
	.loc 1 2461 0
	cmpq	$0, -272(%rbp)	#, fndecl
	je	.L374	#,
	.loc 1 2461 0 is_stmt 0 discriminator 1
	movl	flag_pic(%rip), %eax	# flag_pic, flag_pic.171
	testl	%eax, %eax	# flag_pic.171
	je	.L375	#,
	movq	-272(%rbp), %rax	# fndecl, tmp803
	movzbl	18(%rax), %eax	# *fndecl_122, D.17597
	andl	$8, %eax	#, D.17597
	testb	%al, %al	# D.17597
	jne	.L374	#,
.L375:
	.loc 1 2461 0 discriminator 2
	movl	target_flags(%rip), %eax	# target_flags, target_flags.172
	andl	$32, %eax	#, D.17595
	testl	%eax, %eax	# D.17595
	je	.L376	#,
	.loc 1 2461 0 discriminator 1
	movq	-272(%rbp), %rax	# fndecl, tmp804
	movq	8(%rax), %rax	# fndecl_122->common.type, D.17599
	movq	8(%rax), %rax	# _255->common.type, D.17599
	movzbl	61(%rax), %eax	# *_256, tmp807
	shrb	%al	# D.17604
	movzbl	%al, %eax	# D.17604, D.17595
	cltq
	movl	mode_class(,%rax,4), %eax	# mode_class, D.17605
	cmpl	$2, %eax	#, D.17605
	je	.L377	#,
	.loc 1 2461 0 discriminator 2
	movq	-272(%rbp), %rax	# fndecl, tmp809
	movq	8(%rax), %rax	# fndecl_122->common.type, D.17599
	movq	8(%rax), %rax	# _260->common.type, D.17599
	movzbl	61(%rax), %eax	# *_261, tmp812
	shrb	%al	# D.17604
	movzbl	%al, %eax	# D.17604, D.17595
	cltq
	movl	mode_class(,%rax,4), %eax	# mode_class, D.17605
	cmpl	$6, %eax	#, D.17605
	je	.L377	#,
	.loc 1 2461 0 discriminator 1
	movq	-272(%rbp), %rax	# fndecl, tmp814
	movq	8(%rax), %rax	# fndecl_122->common.type, D.17599
	movq	8(%rax), %rax	# _265->common.type, D.17599
	movzbl	61(%rax), %eax	# *_266, tmp817
	shrb	%al	# D.17604
	movzbl	%al, %eax	# D.17604, D.17595
	cltq
	movl	mode_class(,%rax,4), %eax	# mode_class, D.17605
	cmpl	$8, %eax	#, D.17605
	jne	.L376	#,
.L377:
	movq	cfun(%rip), %rax	# cfun, cfun.173
	movq	48(%rax), %rax	# cfun.173_270->decl, D.17599
	movq	8(%rax), %rax	# _271->common.type, D.17599
	movq	8(%rax), %rax	# _272->common.type, D.17599
	movzbl	61(%rax), %eax	# *_273, tmp821
	shrb	%al	# D.17604
	movzbl	%al, %eax	# D.17604, D.17595
	cltq
	movl	mode_class(,%rax,4), %eax	# mode_class, D.17605
	cmpl	$2, %eax	#, D.17605
	je	.L376	#,
	movq	cfun(%rip), %rax	# cfun, cfun.174
	movq	48(%rax), %rax	# cfun.174_277->decl, D.17599
	movq	8(%rax), %rax	# _278->common.type, D.17599
	movq	8(%rax), %rax	# _279->common.type, D.17599
	movzbl	61(%rax), %eax	# *_280, tmp825
	shrb	%al	# D.17604
	movzbl	%al, %eax	# D.17604, D.17595
	cltq
	movl	mode_class(,%rax,4), %eax	# mode_class, D.17605
	cmpl	$6, %eax	#, D.17605
	je	.L376	#,
	movq	cfun(%rip), %rax	# cfun, cfun.175
	movq	48(%rax), %rax	# cfun.175_284->decl, D.17599
	movq	8(%rax), %rax	# _285->common.type, D.17599
	movq	8(%rax), %rax	# _286->common.type, D.17599
	movzbl	61(%rax), %eax	# *_287, tmp829
	shrb	%al	# D.17604
	movzbl	%al, %eax	# D.17604, D.17595
	cltq
	movl	mode_class(,%rax,4), %eax	# mode_class, D.17605
	cmpl	$8, %eax	#, D.17605
	jne	.L374	#,
.L376:
	.loc 1 2464 0 is_stmt 1
	movq	-80(%rbp), %rdx	# args_size.constant, D.17603
	movq	cfun(%rip), %rax	# cfun, cfun.176
	movl	68(%rax), %eax	# cfun.176_292->args_size, D.17595
	cltq
	cmpq	%rax, %rdx	# D.17603, D.17603
	jg	.L374	#,
	.loc 1 2467 0
	movq	-80(%rbp), %rax	# args_size.constant, D.17603
	movl	%eax, %edx	# D.17603, D.17595
	movq	-232(%rbp), %rcx	# funtype, tmp831
	movq	-272(%rbp), %rax	# fndecl, tmp832
	movq	%rcx, %rsi	# tmp831,
	movq	%rax, %rdi	# tmp832,
	call	ix86_return_pops_args	#
	movl	%eax, %ebx	#, D.17595
	.loc 1 2468 0
	movq	cfun(%rip), %rax	# cfun, cfun.177
	movl	68(%rax), %edx	# cfun.177_298->args_size, D.17595
	movq	current_function_decl(%rip), %rax	# current_function_decl, current_function_decl.178
	movq	8(%rax), %rcx	# current_function_decl.178_300->common.type, D.17599
	movq	current_function_decl(%rip), %rax	# current_function_decl, current_function_decl.179
	movq	%rcx, %rsi	# D.17599,
	movq	%rax, %rdi	# current_function_decl.179,
	call	ix86_return_pops_args	#
	.loc 1 2467 0
	cmpl	%eax, %ebx	# D.17595, D.17595
	je	.L378	#,
.L374:
	.loc 1 2471 0
	movl	$0, -488(%rbp)	#, try_tail_call
.L378:
	.loc 1 2473 0
	cmpl	$0, -488(%rbp)	#, try_tail_call
	jne	.L379	#,
	.loc 1 2473 0 is_stmt 0 discriminator 1
	cmpl	$0, -484(%rbp)	#, try_tail_recursion
	je	.L380	#,
.L379:
.LBB25:
	.loc 1 2476 0 is_stmt 1
	movq	$0, -376(%rbp)	#, actparms
	.loc 1 2492 0
	movl	target_flags(%rip), %eax	# target_flags, target_flags.180
	andl	$2048, %eax	#, D.17595
	testl	%eax, %eax	# D.17595
	jne	.L381	#,
	.loc 1 2492 0 is_stmt 0 discriminator 1
	movl	target_flags(%rip), %eax	# target_flags, target_flags.181
	andl	$4096, %eax	#, D.17595
	testl	%eax, %eax	# D.17595
	jne	.L381	#,
	.loc 1 2494 0 is_stmt 1
	movl	$1, -452(%rbp)	#, inc
	.loc 1 2495 0
	movl	$0, -460(%rbp)	#, i
	.loc 1 2496 0
	movl	-472(%rbp), %eax	# num_actuals, tmp833
	movl	%eax, -456(%rbp)	# tmp833, end
	.loc 1 2505 0
	jmp	.L383	#
.L381:
	.loc 1 2500 0
	movl	$-1, -452(%rbp)	#, inc
	.loc 1 2501 0
	movl	-472(%rbp), %eax	# num_actuals, tmp837
	subl	$1, %eax	#, tmp836
	movl	%eax, -460(%rbp)	# tmp836, i
	.loc 1 2502 0
	movl	$-1, -456(%rbp)	#, end
	.loc 1 2505 0
	jmp	.L383	#
.L390:
	.loc 1 2507 0
	movl	-460(%rbp), %eax	# i, tmp838
	movslq	%eax, %rdx	# tmp838, D.17602
	movq	%rdx, %rax	# D.17602, tmp839
	salq	$2, %rax	#, tmp839
	addq	%rdx, %rax	# D.17602, tmp839
	salq	$2, %rax	#, tmp839
	addq	%rdx, %rax	# D.17602, tmp839
	salq	$3, %rax	#, tmp840
	movq	%rax, %rdx	# tmp839, D.17602
	movq	-216(%rbp), %rax	# args, tmp841
	addq	%rdx, %rax	# D.17602, D.17606
	movq	(%rax), %rax	# _318->tree_value, D.17599
	movq	%rax, %rdi	# D.17599,
	call	unsafe_for_reeval	#
	cmpl	$1, %eax	#, D.17595
	je	.L385	#,
	cmpl	$2, %eax	#, D.17595
	je	.L386	#,
	testl	%eax, %eax	# D.17595
	je	.L521	#,
	jmp	.L520	#
.L385:
	.loc 1 2513 0
	movl	-460(%rbp), %eax	# i, tmp842
	movslq	%eax, %rdx	# tmp842, D.17602
	movq	%rdx, %rax	# D.17602, tmp843
	salq	$2, %rax	#, tmp843
	addq	%rdx, %rax	# D.17602, tmp843
	salq	$2, %rax	#, tmp843
	addq	%rdx, %rax	# D.17602, tmp843
	salq	$3, %rax	#, tmp844
	movq	%rax, %rdx	# tmp843, D.17602
	movq	-216(%rbp), %rax	# args, tmp845
	leaq	(%rdx,%rax), %rbx	#, D.17606
	movl	-460(%rbp), %eax	# i, tmp846
	movslq	%eax, %rdx	# tmp846, D.17602
	movq	%rdx, %rax	# D.17602, tmp847
	salq	$2, %rax	#, tmp847
	addq	%rdx, %rax	# D.17602, tmp847
	salq	$2, %rax	#, tmp847
	addq	%rdx, %rax	# D.17602, tmp847
	salq	$3, %rax	#, tmp848
	movq	%rax, %rdx	# tmp847, D.17602
	movq	-216(%rbp), %rax	# args, tmp849
	addq	%rdx, %rax	# D.17602, D.17606
	movq	(%rax), %rax	# _326->tree_value, D.17599
	movq	%rax, %rdi	# D.17599,
	call	unsave_expr	#
	movq	%rax, (%rbx)	# D.17599, _323->tree_value
	.loc 1 2514 0
	jmp	.L388	#
.L386:
.LBB26:
	.loc 1 2519 0
	movl	-460(%rbp), %eax	# i, tmp850
	movslq	%eax, %rdx	# tmp850, D.17602
	movq	%rdx, %rax	# D.17602, tmp851
	salq	$2, %rax	#, tmp851
	addq	%rdx, %rax	# D.17602, tmp851
	salq	$2, %rax	#, tmp851
	addq	%rdx, %rax	# D.17602, tmp851
	salq	$3, %rax	#, tmp852
	movq	%rax, %rdx	# tmp851, D.17602
	movq	-216(%rbp), %rax	# args, tmp853
	addq	%rdx, %rax	# D.17602, D.17606
	movq	(%rax), %rax	# _331->tree_value, D.17599
	.loc 1 2518 0
	movq	8(%rax), %rax	# _332->common.type, D.17599
	movq	%rax, %rdx	# D.17599,
	movl	$0, %esi	#,
	movl	$34, %edi	#,
	call	build_decl	#
	movq	%rax, -208(%rbp)	# tmp854, var
	.loc 1 2520 0
	movl	-460(%rbp), %eax	# i, tmp855
	movslq	%eax, %rdx	# tmp855, D.17602
	movq	%rdx, %rax	# D.17602, tmp856
	salq	$2, %rax	#, tmp856
	addq	%rdx, %rax	# D.17602, tmp856
	salq	$2, %rax	#, tmp856
	addq	%rdx, %rax	# D.17602, tmp856
	salq	$3, %rax	#, tmp857
	movq	%rax, %rdx	# tmp856, D.17602
	movq	-216(%rbp), %rax	# args, tmp858
	addq	%rdx, %rax	# D.17602, D.17606
	movq	(%rax), %rax	# _337->tree_value, D.17599
	movl	$0, %ecx	#,
	movl	$0, %edx	#,
	movl	$0, %esi	#,
	movq	%rax, %rdi	# D.17599,
	call	expand_expr	#
	movq	-208(%rbp), %rdx	# var, tmp859
	movq	%rax, 144(%rdx)	# D.17601, var_334->decl.rtl
	.loc 1 2523 0
	movl	-460(%rbp), %eax	# i, tmp860
	movslq	%eax, %rdx	# tmp860, D.17602
	movq	%rdx, %rax	# D.17602, tmp861
	salq	$2, %rax	#, tmp861
	addq	%rdx, %rax	# D.17602, tmp861
	salq	$2, %rax	#, tmp861
	addq	%rdx, %rax	# D.17602, tmp861
	salq	$3, %rax	#, tmp862
	movq	%rax, %rdx	# tmp861, D.17602
	movq	-216(%rbp), %rax	# args, tmp863
	addq	%rax, %rdx	# tmp863, D.17606
	movq	-208(%rbp), %rax	# var, tmp864
	movq	%rax, (%rdx)	# tmp864, _342->tree_value
.LBE26:
	.loc 1 2525 0
	jmp	.L388	#
.L520:
	.loc 1 2528 0
	movl	$__FUNCTION__.13040, %edx	#,
	movl	$2528, %esi	#,
	movl	$.LC0, %edi	#,
	call	fancy_abort	#
.L521:
	.loc 1 2510 0
	nop
.L388:
	.loc 1 2533 0
	cmpl	$0, -484(%rbp)	#, try_tail_recursion
	je	.L389	#,
	.loc 1 2534 0
	movl	-460(%rbp), %eax	# i, tmp865
	movslq	%eax, %rdx	# tmp865, D.17602
	movq	%rdx, %rax	# D.17602, tmp866
	salq	$2, %rax	#, tmp866
	addq	%rdx, %rax	# D.17602, tmp866
	salq	$2, %rax	#, tmp866
	addq	%rdx, %rax	# D.17602, tmp866
	salq	$3, %rax	#, tmp867
	movq	%rax, %rdx	# tmp866, D.17602
	movq	-216(%rbp), %rax	# args, tmp868
	addq	%rdx, %rax	# D.17602, D.17606
	movq	(%rax), %rax	# _345->tree_value, D.17599
	movq	-376(%rbp), %rdx	# actparms, tmp869
	movq	%rax, %rsi	# D.17599,
	movl	$0, %edi	#,
	call	tree_cons	#
	movq	%rax, -376(%rbp)	# tmp870, actparms
.L389:
	.loc 1 2505 0
	movl	-452(%rbp), %eax	# inc, tmp871
	addl	%eax, -460(%rbp)	# tmp871, i
.L383:
	.loc 1 2505 0 is_stmt 0 discriminator 1
	movl	-460(%rbp), %eax	# i, tmp872
	cmpl	-456(%rbp), %eax	# end, tmp872
	jne	.L390	#,
	.loc 1 2538 0 is_stmt 1
	movl	$1, %edi	#,
	call	any_pending_cleanups	#
	testl	%eax, %eax	# D.17595
	je	.L380	#,
	.loc 1 2539 0
	movl	$0, -484(%rbp)	#, try_tail_recursion
	movl	-484(%rbp), %eax	# try_tail_recursion, tmp873
	movl	%eax, -488(%rbp)	# tmp873, try_tail_call
.L380:
.LBE25:
	.loc 1 2544 0
	cmpl	$0, -484(%rbp)	#, try_tail_recursion
	je	.L391	#,
.LBB27:
	.loc 1 2550 0
	movq	cfun(%rip), %rax	# cfun, cfun.182
	movq	16(%rax), %rax	# cfun.182_352->expr, D.17596
	movl	(%rax), %eax	# _353->x_pending_stack_adjust, tmp874
	movl	%eax, -412(%rbp)	# tmp874, save_pending_stack_adjust
	.loc 1 2551 0
	movq	cfun(%rip), %rax	# cfun, cfun.183
	movq	16(%rax), %rax	# cfun.183_355->expr, D.17596
	movl	8(%rax), %eax	# _356->x_stack_pointer_delta, tmp875
	movl	%eax, -408(%rbp)	# tmp875, save_stack_pointer_delta
	.loc 1 2555 0
	call	emit_queue	#
	.loc 1 2561 0
	call	start_sequence	#
	.loc 1 2567 0
	call	expand_start_target_temps	#
	.loc 1 2568 0
	call	get_last_insn	#
	movq	%rax, %rdx	#, D.17601
	movq	-376(%rbp), %rax	# actparms, tmp876
	movq	%rdx, %rsi	# D.17601,
	movq	%rax, %rdi	# tmp876,
	call	optimize_tail_recursion	#
	testl	%eax, %eax	# D.17595
	je	.L392	#,
	.loc 1 2570 0
	movl	$1, %edi	#,
	call	any_pending_cleanups	#
	testl	%eax, %eax	# D.17595
	je	.L393	#,
	.loc 1 2571 0
	movl	$0, -484(%rbp)	#, try_tail_recursion
	movl	-484(%rbp), %eax	# try_tail_recursion, tmp877
	movl	%eax, -488(%rbp)	# tmp877, try_tail_call
	jmp	.L392	#
.L393:
	.loc 1 2573 0
	call	get_insns	#
	movq	%rax, -368(%rbp)	# tmp878, tail_recursion_insns
.L392:
	.loc 1 2575 0
	call	expand_end_target_temps	#
	.loc 1 2576 0
	call	end_sequence	#
	.loc 1 2580 0
	movq	cfun(%rip), %rax	# cfun, cfun.184
	movq	16(%rax), %rax	# cfun.184_364->expr, D.17596
	movl	-412(%rbp), %edx	# save_pending_stack_adjust, tmp879
	movl	%edx, (%rax)	# tmp879, _365->x_pending_stack_adjust
	.loc 1 2581 0
	movq	cfun(%rip), %rax	# cfun, cfun.185
	movq	16(%rax), %rax	# cfun.185_366->expr, D.17596
	movl	-408(%rbp), %edx	# save_stack_pointer_delta, tmp880
	movl	%edx, 8(%rax)	# tmp880, _367->x_stack_pointer_delta
.L391:
.LBE27:
	.loc 1 2584 0
	movl	profile_arc_flag(%rip), %eax	# profile_arc_flag, profile_arc_flag.186
	testl	%eax, %eax	# profile_arc_flag.186
	je	.L394	#,
	.loc 1 2584 0 is_stmt 0 discriminator 1
	movl	-504(%rbp), %eax	# flags, flags.187
	andl	$128, %eax	#, D.17595
	testl	%eax, %eax	# D.17595
	je	.L394	#,
	.loc 1 2593 0 is_stmt 1
	movl	target_flags(%rip), %eax	# target_flags, target_flags.189
	andl	$33554432, %eax	#, D.17595
	testl	%eax, %eax	# D.17595
	je	.L395	#,
	.loc 1 2593 0 is_stmt 0 discriminator 1
	movl	$5, %eax	#, iftmp.188
	jmp	.L396	#
.L395:
	.loc 1 2593 0 discriminator 2
	movl	$4, %eax	#, iftmp.188
.L396:
	.loc 1 2593 0 discriminator 3
	movl	$.LC20, %edx	#,
	movl	%eax, %esi	# iftmp.188,
	movl	$68, %edi	#,
	call	gen_rtx_fmt_s	#
	movl	$0, %ecx	#,
	movl	$0, %edx	#,
	movl	$7, %esi	#,
	movq	%rax, %rdi	# D.17601,
	movl	$0, %eax	#,
	call	emit_library_call	#
.L394:
	.loc 1 2601 0 is_stmt 1
	movq	cfun(%rip), %rax	# cfun, cfun.190
	movl	404(%rax), %eax	# cfun.190_376->preferred_stack_boundary, D.17595
	cltq
	cmpq	-240(%rbp), %rax	# preferred_stack_boundary, D.17603
	jge	.L397	#,
	.loc 1 2602 0
	movq	current_function_decl(%rip), %rax	# current_function_decl, current_function_decl.191
	cmpq	%rax, -272(%rbp)	# current_function_decl.191, fndecl
	je	.L397	#,
	.loc 1 2603 0
	movq	cfun(%rip), %rax	# cfun, cfun.192
	movq	-240(%rbp), %rdx	# preferred_stack_boundary, tmp881
	movl	%edx, 404(%rax)	# D.17595, cfun.192_380->preferred_stack_boundary
.L397:
	.loc 1 2605 0
	movq	-240(%rbp), %rax	# preferred_stack_boundary, tmp883
	leaq	7(%rax), %rdx	#, tmp885
	testq	%rax, %rax	# tmp884
	cmovs	%rdx, %rax	# tmp885,, tmp884
	sarq	$3, %rax	#, tmp886
	movq	%rax, -200(%rbp)	# tmp886, preferred_unit_stack_boundary
	.loc 1 2607 0
	movq	cfun(%rip), %rax	# cfun, cfun.193
	movl	152(%rax), %edx	# cfun.193_383->x_function_call_count, D.17595
	addl	$1, %edx	#, D.17595
	movl	%edx, 152(%rax)	# D.17595, cfun.193_383->x_function_call_count
	.loc 1 2612 0
	movl	$0, -480(%rbp)	#, pass
	jmp	.L398	#
.L504:
.LBB28:
	.loc 1 2614 0
	movl	$0, -448(%rbp)	#, sibcall_failure
	.loc 1 2619 0
	movl	$0, -444(%rbp)	#, save_pending_stack_adjust
	.loc 1 2620 0
	movl	$0, -440(%rbp)	#, save_stack_pointer_delta
	.loc 1 2624 0
	cmpl	$0, -480(%rbp)	#, pass
	jne	.L399	#,
	.loc 1 2626 0
	cmpl	$0, -488(%rbp)	#, try_tail_call
	jne	.L400	#,
	.loc 1 2627 0
	jmp	.L401	#
.L400:
	.loc 1 2631 0
	call	emit_queue	#
	.loc 1 2635 0
	movq	cfun(%rip), %rax	# cfun, cfun.194
	movq	16(%rax), %rax	# cfun.194_390->expr, D.17596
	movl	(%rax), %eax	# _391->x_pending_stack_adjust, tmp887
	movl	%eax, -444(%rbp)	# tmp887, save_pending_stack_adjust
	.loc 1 2636 0
	movq	cfun(%rip), %rax	# cfun, cfun.195
	movq	16(%rax), %rax	# cfun.195_393->expr, D.17596
	movl	8(%rax), %eax	# _394->x_stack_pointer_delta, tmp888
	movl	%eax, -440(%rbp)	# tmp888, save_stack_pointer_delta
.L399:
	.loc 1 2638 0
	cmpl	$0, -480(%rbp)	#, pass
	je	.L402	#,
	.loc 1 2639 0
	movl	-504(%rbp), %eax	# flags, flags.196
	andb	$254, %ah	#, flags.197
	movl	%eax, -504(%rbp)	# flags.197, flags
	jmp	.L403	#
.L402:
	.loc 1 2641 0
	movl	-504(%rbp), %eax	# flags, flags.198
	orb	$1, %ah	#, flags.199
	movl	%eax, -504(%rbp)	# flags.199, flags
.L403:
	.loc 1 2645 0
	movq	$0, -312(%rbp)	#, argblock
	.loc 1 2646 0
	movq	$0, -384(%rbp)	#, call_fusage
	.loc 1 2652 0
	call	start_sequence	#
	.loc 1 2654 0
	cmpl	$0, -480(%rbp)	#, pass
	jne	.L404	#,
	.loc 1 2660 0
	call	expand_start_target_temps	#
.L404:
	.loc 1 2668 0
	movq	cfun(%rip), %rax	# cfun, cfun.200
	movq	16(%rax), %rax	# cfun.200_401->expr, D.17596
	movl	(%rax), %eax	# _402->x_pending_stack_adjust, D.17595
	cmpl	$31, %eax	#, D.17595
	jg	.L405	#,
	.loc 1 2669 0
	movq	cfun(%rip), %rax	# cfun, cfun.201
	movq	16(%rax), %rax	# cfun.201_404->expr, D.17596
	movl	(%rax), %eax	# _405->x_pending_stack_adjust, D.17595
	testl	%eax, %eax	# D.17595
	jle	.L406	#,
	.loc 1 2670 0
	movl	-504(%rbp), %eax	# flags, flags.202
	andl	$1032, %eax	#, D.17595
	testl	%eax, %eax	# D.17595
	jne	.L405	#,
.L406:
	.loc 1 2671 0
	cmpl	$0, -480(%rbp)	#, pass
	jne	.L407	#,
.L405:
	.loc 1 2672 0
	call	do_pending_stack_adjust	#
.L407:
	.loc 1 2676 0
	cmpl	$0, -480(%rbp)	#, pass
	je	.L408	#,
	.loc 1 2676 0 is_stmt 0 discriminator 1
	movl	-504(%rbp), %eax	# flags, flags.203
	andl	$4096, %eax	#, D.17595
	testl	%eax, %eax	# D.17595
	je	.L408	#,
	.loc 1 2677 0 is_stmt 1
	movq	cfun(%rip), %rax	# cfun, cfun.204
	movq	16(%rax), %rax	# cfun.204_411->expr, D.17596
	movq	cfun(%rip), %rdx	# cfun, cfun.205
	movq	16(%rdx), %rdx	# cfun.205_413->expr, D.17596
	movl	4(%rdx), %edx	# _414->x_inhibit_defer_pop, D.17595
	addl	$1, %edx	#, D.17595
	movl	%edx, 4(%rax)	# D.17595, _412->x_inhibit_defer_pop
.L408:
	.loc 1 2684 0
	cmpl	$0, -480(%rbp)	#, pass
	je	.L409	#,
	.loc 1 2685 0
	movl	-504(%rbp), %eax	# flags, flags.206
	movq	-216(%rbp), %rdx	# args, tmp889
	movl	-472(%rbp), %ecx	# num_actuals, tmp890
	movl	%ecx, %esi	# tmp890,
	movl	%eax, %edi	# flags.206,
	call	precompute_arguments	#
.L409:
	.loc 1 2689 0
	cmpl	$0, -480(%rbp)	#, pass
	je	.L410	#,
	.loc 1 2689 0 is_stmt 0 discriminator 1
	movl	-504(%rbp), %eax	# flags, flags.207
	andl	$4100, %eax	#, D.17595
	testl	%eax, %eax	# D.17595
	je	.L410	#,
	.loc 1 2690 0 is_stmt 1
	call	start_sequence	#
.L410:
	.loc 1 2692 0
	movq	-80(%rbp), %rax	# args_size, tmp891
	movq	-72(%rbp), %rdx	# args_size,
	movq	%rax, -64(%rbp)	# tmp891, adjusted_args_size
	movq	%rdx, -56(%rbp)	#, adjusted_args_size
	.loc 1 2699 0
	cmpl	$0, -480(%rbp)	#, pass
	je	.L411	#,
	.loc 1 2699 0 is_stmt 0 discriminator 1
	movq	-240(%rbp), %rax	# preferred_stack_boundary, tmp892
	jmp	.L412	#
.L411:
	.loc 1 2699 0 discriminator 2
	movl	$0, %eax	#, iftmp.208
.L412:
	.loc 1 2699 0 discriminator 3
	leaq	-64(%rbp), %rsi	#, tmp893
	movl	-428(%rbp), %ecx	# reg_parm_stack_space, tmp894
	movl	%eax, %edx	# iftmp.208,
	movl	%ecx, %edi	# tmp894,
	call	compute_argument_block_size	#
	movl	%eax, -404(%rbp)	# tmp895, unadjusted_args_size
	.loc 1 2704 0 is_stmt 1 discriminator 3
	movq	cfun(%rip), %rax	# cfun, cfun.209
	movq	16(%rax), %rax	# cfun.209_423->expr, D.17596
	movl	8(%rax), %edx	# _424->x_stack_pointer_delta, D.17595
	movq	cfun(%rip), %rax	# cfun, cfun.210
	movq	16(%rax), %rax	# cfun.210_426->expr, D.17596
	movl	(%rax), %eax	# _427->x_pending_stack_adjust, D.17595
	subl	%eax, %edx	# D.17595, tmp896
	movl	%edx, %eax	# tmp896, tmp896
	movl	%eax, -400(%rbp)	# tmp896, old_stack_allocated
	.loc 1 2708 0 discriminator 3
	cmpl	$0, -480(%rbp)	#, pass
	jne	.L413	#,
	.loc 1 2710 0
	movq	global_rtl+48(%rip), %rax	# global_rtl, tmp897
	movq	%rax, -312(%rbp)	# tmp897, argblock
	.loc 1 2711 0
	movq	-80(%rbp), %rax	# args_size.constant, D.17603
	movl	%eax, %edi	# D.17607,
	call	sbitmap_alloc	#
	movq	%rax, stored_args_map(%rip)	# stored_args_map.211, stored_args_map
	.loc 1 2712 0
	movq	stored_args_map(%rip), %rax	# stored_args_map, stored_args_map.212
	movq	%rax, %rdi	# stored_args_map.212,
	call	sbitmap_zero	#
	jmp	.L414	#
.L413:
	.loc 1 2717 0
	movq	-56(%rbp), %rax	# adjusted_args_size.var, D.17599
	testq	%rax, %rax	# D.17599
	je	.L415	#,
	.loc 1 2719 0
	movq	-392(%rbp), %rax	# old_stack_level, old_stack_level.213
	testq	%rax, %rax	# old_stack_level.213
	jne	.L416	#,
	.loc 1 2721 0
	leaq	-392(%rbp), %rax	#, tmp898
	movl	$0, %edx	#,
	movq	%rax, %rsi	# tmp898,
	movl	$0, %edi	#,
	call	emit_stack_save	#
	.loc 1 2722 0
	movq	cfun(%rip), %rax	# cfun, cfun.214
	movq	16(%rax), %rax	# cfun.214_437->expr, D.17596
	movl	(%rax), %eax	# _438->x_pending_stack_adjust, old_pending_adj.215
	movl	%eax, -492(%rbp)	# old_pending_adj.215, old_pending_adj
	.loc 1 2723 0
	movq	cfun(%rip), %rax	# cfun, cfun.216
	movq	16(%rax), %rax	# cfun.216_440->expr, D.17596
	movl	$0, (%rax)	#, _441->x_pending_stack_adjust
	.loc 1 2727 0
	movl	stack_arg_under_construction(%rip), %eax	# stack_arg_under_construction, tmp899
	movl	%eax, -464(%rbp)	# tmp899, old_stack_arg_under_construction
	.loc 1 2728 0
	movl	$0, stack_arg_under_construction(%rip)	#, stack_arg_under_construction
.L416:
	.loc 1 2730 0
	movq	-56(%rbp), %rax	# adjusted_args_size.var, D.17599
	testq	%rax, %rax	# D.17599
	jne	.L417	#,
	.loc 1 2730 0 is_stmt 0 discriminator 1
	movq	-64(%rbp), %rax	# adjusted_args_size.constant, D.17603
	movq	%rax, %rsi	# D.17603,
	movl	$0, %edi	#,
	call	gen_rtx_CONST_INT	#
	jmp	.L418	#
.L417:
	.loc 1 2730 0 discriminator 2
	movq	-56(%rbp), %rax	# adjusted_args_size.var, D.17599
	testq	%rax, %rax	# D.17599
	jne	.L419	#,
	.loc 1 2730 0 discriminator 1
	movq	-64(%rbp), %rax	# adjusted_args_size.constant, D.17603
	movl	$1, %esi	#,
	movq	%rax, %rdi	# D.17603,
	call	size_int_wide	#
	jmp	.L420	#
.L419:
	.loc 1 2730 0 discriminator 2
	movq	-64(%rbp), %rax	# adjusted_args_size.constant, D.17603
	movl	$1, %esi	#,
	movq	%rax, %rdi	# D.17603,
	call	size_int_wide	#
	movq	%rax, %rbx	#, D.17599
	movq	-56(%rbp), %rdx	# adjusted_args_size.var, D.17599
	movq	sizetype_tab+8(%rip), %rax	# sizetype_tab, D.17599
	movq	%rdx, %rsi	# D.17599,
	movq	%rax, %rdi	# D.17599,
	call	convert	#
	movq	%rbx, %rdx	# D.17599,
	movq	%rax, %rsi	# D.17599,
	movl	$59, %edi	#,
	call	size_binop	#
.L420:
	.loc 1 2730 0 discriminator 3
	movl	$0, %ecx	#,
	movl	$0, %edx	#,
	movl	$0, %esi	#,
	movq	%rax, %rdi	# iftmp.218,
	call	expand_expr	#
.L418:
	.loc 1 2730 0 discriminator 1
	movl	$0, %edx	#,
	movl	$0, %esi	#,
	movq	%rax, %rdi	# iftmp.217,
	call	push_block	#
	movq	%rax, -312(%rbp)	# tmp900, argblock
	jmp	.L414	#
.L415:
.LBB29:
	.loc 1 2739 0 is_stmt 1
	movq	-64(%rbp), %rax	# adjusted_args_size.constant, D.17603
	movl	%eax, -436(%rbp)	# D.17603, needed
	.loc 1 2745 0
	movq	cfun(%rip), %rax	# cfun, cfun.219
	movl	76(%rax), %eax	# cfun.219_459->outgoing_args_size, D.17595
	cmpl	-436(%rbp), %eax	# needed, D.17595
	jge	.L421	#,
	.loc 1 2746 0
	movq	cfun(%rip), %rax	# cfun, cfun.220
	movl	-436(%rbp), %edx	# needed, tmp901
	movl	%edx, 76(%rax)	# tmp901, cfun.220_461->outgoing_args_size
.L421:
	.loc 1 2748 0
	movl	-508(%rbp), %eax	# must_preallocate, must_preallocate.221
	testl	%eax, %eax	# must_preallocate.221
	je	.L414	#,
	.loc 1 2750 0
	movl	target_flags(%rip), %eax	# target_flags, target_flags.222
	andl	$4096, %eax	#, D.17595
	testl	%eax, %eax	# D.17595
	je	.L422	#,
	.loc 1 2770 0
	movl	-428(%rbp), %eax	# reg_parm_stack_space, tmp902
	addl	%eax, -436(%rbp)	# tmp902, needed
	.loc 1 2777 0
	movl	-424(%rbp), %eax	# initial_highest_arg_in_use, tmp903
	cmpl	%eax, -436(%rbp)	# tmp903, needed
	cmovge	-436(%rbp), %eax	# needed,, highest_outgoing_arg_in_use.223
	movl	%eax, highest_outgoing_arg_in_use(%rip)	# highest_outgoing_arg_in_use.223, highest_outgoing_arg_in_use
	.loc 1 2781 0
	movl	highest_outgoing_arg_in_use(%rip), %eax	# highest_outgoing_arg_in_use, highest_outgoing_arg_in_use.224
	cltq
	leaq	15(%rax), %rdx	#, tmp904
	movl	$16, %eax	#, tmp1262
	subq	$1, %rax	#, tmp905
	addq	%rdx, %rax	# tmp904, tmp906
	movl	$16, %ebx	#, tmp1263
	movl	$0, %edx	#, tmp909
	divq	%rbx	# tmp1263
	imulq	$16, %rax, %rax	#, tmp908, tmp910
	subq	%rax, %rsp	# tmp910,
	leaq	48(%rsp), %rax	#, tmp911
	addq	$15, %rax	#, tmp912
	shrq	$4, %rax	#, tmp913
	salq	$4, %rax	#, tmp914
	movq	%rax, stack_usage_map(%rip)	# stack_usage_map.225, stack_usage_map
	.loc 1 2783 0
	cmpl	$0, -424(%rbp)	#, initial_highest_arg_in_use
	je	.L423	#,
	.loc 1 2784 0
	movl	-424(%rbp), %eax	# initial_highest_arg_in_use, tmp915
	movslq	%eax, %rdx	# tmp915, D.17602
	movq	stack_usage_map(%rip), %rax	# stack_usage_map, stack_usage_map.226
	movq	-264(%rbp), %rcx	# initial_stack_usage_map, tmp916
	movq	%rcx, %rsi	# tmp916,
	movq	%rax, %rdi	# stack_usage_map.226,
	call	memcpy	#
.L423:
	.loc 1 2787 0
	movl	highest_outgoing_arg_in_use(%rip), %eax	# highest_outgoing_arg_in_use, highest_outgoing_arg_in_use.227
	cmpl	%eax, -424(%rbp)	# highest_outgoing_arg_in_use.227, initial_highest_arg_in_use
	je	.L424	#,
	.loc 1 2790 0
	movl	highest_outgoing_arg_in_use(%rip), %eax	# highest_outgoing_arg_in_use, highest_outgoing_arg_in_use.228
	subl	-424(%rbp), %eax	# initial_highest_arg_in_use, D.17595
	.loc 1 2788 0
	cltq
	movq	stack_usage_map(%rip), %rcx	# stack_usage_map, stack_usage_map.229
	movl	-424(%rbp), %edx	# initial_highest_arg_in_use, tmp917
	movslq	%edx, %rdx	# tmp917, D.17608
	addq	%rdx, %rcx	# D.17608, D.17609
	movq	%rax, %rdx	# D.17602,
	movl	$0, %esi	#,
	movq	%rcx, %rdi	# D.17609,
	call	memset	#
.L424:
	.loc 1 2791 0
	movl	$0, -436(%rbp)	#, needed
	.loc 1 2798 0
	movq	global_rtl+72(%rip), %rax	# global_rtl, tmp918
	movq	%rax, -312(%rbp)	# tmp918, argblock
	jmp	.L414	#
.L422:
	.loc 1 2802 0
	movq	cfun(%rip), %rax	# cfun, cfun.230
	movq	16(%rax), %rax	# cfun.230_481->expr, D.17596
	movl	4(%rax), %eax	# _482->x_inhibit_defer_pop, D.17595
	testl	%eax, %eax	# D.17595
	jne	.L425	#,
	.loc 1 2808 0
	movq	-200(%rbp), %rax	# preferred_unit_stack_boundary, tmp919
	movl	%eax, %edx	# tmp919, D.17595
	.loc 1 2807 0
	leaq	-64(%rbp), %rcx	#, tmp920
	movl	-404(%rbp), %eax	# unadjusted_args_size, tmp921
	movq	%rcx, %rsi	# tmp920,
	movl	%eax, %edi	# tmp921,
	call	combine_pending_stack_adjustment_and_call	#
	movl	%eax, -436(%rbp)	# tmp922, needed
	.loc 1 2816 0
	movl	-436(%rbp), %eax	# needed, tmp927
	movl	-404(%rbp), %edx	# unadjusted_args_size, tmp928
	subl	%eax, %edx	# tmp927, tmp926
	movl	%edx, %eax	# tmp926, tmp926
	movl	%eax, -436(%rbp)	# tmp926, needed
	.loc 1 2818 0
	cmpl	$0, -436(%rbp)	#, needed
	jns	.L426	#,
	.loc 1 2823 0
	movq	cfun(%rip), %rax	# cfun, cfun.231
	movq	16(%rax), %rax	# cfun.231_487->expr, D.17596
	movl	-436(%rbp), %edx	# needed, tmp929
	negl	%edx	# D.17595
	movl	%edx, (%rax)	# D.17595, _488->x_pending_stack_adjust
	.loc 1 2824 0
	call	do_pending_stack_adjust	#
	.loc 1 2825 0
	movl	$0, -436(%rbp)	#, needed
	jmp	.L425	#
.L426:
	.loc 1 2830 0
	movq	cfun(%rip), %rax	# cfun, cfun.232
	movq	16(%rax), %rax	# cfun.232_491->expr, D.17596
	movl	$0, (%rax)	#, _492->x_pending_stack_adjust
.L425:
	.loc 1 2835 0
	cmpl	$0, -436(%rbp)	#, needed
	jne	.L427	#,
	.loc 1 2836 0
	movq	global_rtl+72(%rip), %rax	# global_rtl, tmp930
	movq	%rax, -312(%rbp)	# tmp930, argblock
	jmp	.L428	#
.L427:
	.loc 1 2838 0
	movl	-436(%rbp), %eax	# needed, tmp931
	cltq
	movq	%rax, %rsi	# D.17603,
	movl	$0, %edi	#,
	call	gen_rtx_CONST_INT	#
	movl	$0, %edx	#,
	movl	$0, %esi	#,
	movq	%rax, %rdi	# D.17601,
	call	push_block	#
	movq	%rax, -312(%rbp)	# tmp932, argblock
.L428:
	.loc 1 2847 0
	movq	-312(%rbp), %rax	# argblock, tmp933
	movq	%rax, %rdi	# tmp933,
	call	copy_to_reg	#
	movq	%rax, -312(%rbp)	# tmp934, argblock
	.loc 1 2853 0
	movl	stack_arg_under_construction(%rip), %eax	# stack_arg_under_construction, stack_arg_under_construction.233
	testl	%eax, %eax	# stack_arg_under_construction.233
	je	.L429	#,
.LBB30:
	.loc 1 2856 0
	movl	-428(%rbp), %eax	# reg_parm_stack_space, tmp935
	movslq	%eax, %rdx	# tmp935, D.17603
	movq	-64(%rbp), %rax	# adjusted_args_size.constant, D.17603
	addq	%rdx, %rax	# D.17603, D.17603
	movq	%rax, %rsi	# D.17603,
	movl	$0, %edi	#,
	call	gen_rtx_CONST_INT	#
	movq	%rax, -192(%rbp)	# tmp936, push_size
	.loc 1 2861 0
	movq	-392(%rbp), %rax	# old_stack_level, old_stack_level.234
	testq	%rax, %rax	# old_stack_level.234
	jne	.L430	#,
	.loc 1 2863 0
	leaq	-392(%rbp), %rax	#, tmp937
	movl	$0, %edx	#,
	movq	%rax, %rsi	# tmp937,
	movl	$0, %edi	#,
	call	emit_stack_save	#
	.loc 1 2865 0
	movq	cfun(%rip), %rax	# cfun, cfun.235
	movq	16(%rax), %rax	# cfun.235_504->expr, D.17596
	movl	(%rax), %eax	# _505->x_pending_stack_adjust, old_pending_adj.236
	movl	%eax, -492(%rbp)	# old_pending_adj.236, old_pending_adj
	.loc 1 2866 0
	movq	cfun(%rip), %rax	# cfun, cfun.237
	movq	16(%rax), %rax	# cfun.237_507->expr, D.17596
	movl	$0, (%rax)	#, _508->x_pending_stack_adjust
	.loc 1 2872 0
	movl	stack_arg_under_construction(%rip), %eax	# stack_arg_under_construction, tmp938
	movl	%eax, -464(%rbp)	# tmp938, old_stack_arg_under_construction
	.loc 1 2873 0
	movl	$0, stack_arg_under_construction(%rip)	#, stack_arg_under_construction
	.loc 1 2876 0
	movl	highest_outgoing_arg_in_use(%rip), %eax	# highest_outgoing_arg_in_use, highest_outgoing_arg_in_use.238
	cltq
	leaq	15(%rax), %rdx	#, tmp939
	movl	$16, %eax	#, tmp1264
	subq	$1, %rax	#, tmp940
	addq	%rdx, %rax	# tmp939, tmp941
	movl	$16, %ebx	#, tmp1265
	movl	$0, %edx	#, tmp944
	divq	%rbx	# tmp1265
	imulq	$16, %rax, %rax	#, tmp943, tmp945
	subq	%rax, %rsp	# tmp945,
	leaq	48(%rsp), %rax	#, tmp946
	addq	$15, %rax	#, tmp947
	shrq	$4, %rax	#, tmp948
	salq	$4, %rax	#, tmp949
	.loc 1 2875 0
	movq	%rax, stack_usage_map(%rip)	# stack_usage_map.239, stack_usage_map
	.loc 1 2877 0
	movl	highest_outgoing_arg_in_use(%rip), %eax	# highest_outgoing_arg_in_use, highest_outgoing_arg_in_use.240
	movslq	%eax, %rdx	# highest_outgoing_arg_in_use.240, D.17602
	movq	stack_usage_map(%rip), %rax	# stack_usage_map, stack_usage_map.241
	movl	$0, %esi	#,
	movq	%rax, %rdi	# stack_usage_map.241,
	call	memset	#
	.loc 1 2878 0
	movl	$0, highest_outgoing_arg_in_use(%rip)	#, highest_outgoing_arg_in_use
.L430:
	.loc 1 2880 0
	movq	-192(%rbp), %rax	# push_size, tmp950
	movl	$8, %edx	#,
	movl	$0, %esi	#,
	movq	%rax, %rdi	# tmp950,
	call	allocate_dynamic_stack_space	#
.L429:
.LBE30:
	.loc 1 2885 0
	movl	$0, -460(%rbp)	#, i
	jmp	.L431	#
.L433:
	.loc 1 2886 0
	movl	-460(%rbp), %eax	# i, tmp951
	movslq	%eax, %rdx	# tmp951, D.17602
	movq	%rdx, %rax	# D.17602, tmp952
	salq	$2, %rax	#, tmp952
	addq	%rdx, %rax	# D.17602, tmp952
	salq	$2, %rax	#, tmp952
	addq	%rdx, %rax	# D.17602, tmp952
	salq	$3, %rax	#, tmp953
	movq	%rax, %rdx	# tmp952, D.17602
	movq	-216(%rbp), %rax	# args, tmp954
	addq	%rdx, %rax	# D.17602, D.17606
	movl	56(%rax), %eax	# _519->pass_on_stack, D.17595
	testl	%eax, %eax	# D.17595
	je	.L432	#,
	.loc 1 2888 0
	movq	-312(%rbp), %rax	# argblock, tmp955
	movq	%rax, %rdi	# tmp955,
	call	copy_addr_to_reg	#
	movq	%rax, -312(%rbp)	# tmp956, argblock
	.loc 1 2889 0
	jmp	.L414	#
.L432:
	.loc 1 2885 0
	addl	$1, -460(%rbp)	#, i
.L431:
	.loc 1 2885 0 is_stmt 0 discriminator 1
	movl	-460(%rbp), %eax	# i, tmp957
	cmpl	-472(%rbp), %eax	# num_actuals, tmp957
	jl	.L433	#,
.L414:
.LBE29:
	.loc 1 2895 0 is_stmt 1
	movl	-472(%rbp), %edx	# num_actuals, tmp958
	movq	-312(%rbp), %rcx	# argblock, tmp959
	movq	-216(%rbp), %rax	# args, tmp960
	movq	%rcx, %rsi	# tmp959,
	movq	%rax, %rdi	# tmp960,
	call	compute_argument_addresses	#
	.loc 1 2899 0
	movl	target_flags(%rip), %eax	# target_flags, target_flags.242
	andl	$2048, %eax	#, D.17595
	testl	%eax, %eax	# D.17595
	jne	.L434	#,
	.loc 1 2899 0 is_stmt 0 discriminator 1
	movl	target_flags(%rip), %eax	# target_flags, target_flags.243
	andl	$4096, %eax	#, D.17595
	testl	%eax, %eax	# D.17595
	jne	.L434	#,
	cmpq	$0, -312(%rbp)	#, argblock
	jne	.L434	#,
	.loc 1 2900 0 is_stmt 1
	movq	-64(%rbp), %rdx	# adjusted_args_size.constant, D.17603
	movl	-404(%rbp), %eax	# unadjusted_args_size, tmp961
	cltq
	cmpq	%rax, %rdx	# D.17603, D.17603
	je	.L434	#,
	.loc 1 2904 0
	movq	cfun(%rip), %rax	# cfun, cfun.244
	movq	16(%rax), %rax	# cfun.244_529->expr, D.17596
	movl	(%rax), %eax	# _530->x_pending_stack_adjust, D.17595
	testl	%eax, %eax	# D.17595
	je	.L435	#,
	.loc 1 2905 0
	movl	-504(%rbp), %eax	# flags, flags.245
	andl	$4096, %eax	#, D.17595
	testl	%eax, %eax	# D.17595
	jne	.L435	#,
	.loc 1 2906 0
	movq	cfun(%rip), %rax	# cfun, cfun.246
	movq	16(%rax), %rax	# cfun.246_534->expr, D.17596
	movl	4(%rax), %eax	# _535->x_inhibit_defer_pop, D.17595
	testl	%eax, %eax	# D.17595
	jne	.L435	#,
	.loc 1 2908 0
	movq	cfun(%rip), %rax	# cfun, cfun.247
	movq	16(%rax), %rbx	# cfun.247_537->expr, D.17596
	.loc 1 2910 0
	movq	-200(%rbp), %rax	# preferred_unit_stack_boundary, tmp962
	movl	%eax, %edx	# tmp962, D.17595
	leaq	-64(%rbp), %rcx	#, tmp963
	movl	-404(%rbp), %eax	# unadjusted_args_size, tmp964
	movq	%rcx, %rsi	# tmp963,
	movl	%eax, %edi	# tmp964,
	call	combine_pending_stack_adjustment_and_call	#
	.loc 1 2909 0
	movl	%eax, (%rbx)	# D.17595, _538->x_pending_stack_adjust
	.loc 1 2913 0
	call	do_pending_stack_adjust	#
	jmp	.L434	#
.L435:
	.loc 1 2915 0
	cmpq	$0, -312(%rbp)	#, argblock
	jne	.L434	#,
	.loc 1 2916 0
	movq	-64(%rbp), %rdx	# adjusted_args_size.constant, D.17603
	movl	-404(%rbp), %eax	# unadjusted_args_size, tmp965
	cltq
	subq	%rax, %rdx	# D.17603, D.17603
	movq	%rdx, %rax	# D.17603, D.17603
	movq	%rax, %rsi	# D.17603,
	movl	$0, %edi	#,
	call	gen_rtx_CONST_INT	#
	movq	%rax, %rdi	# D.17601,
	call	anti_adjust_stack	#
.L434:
	.loc 1 2921 0
	movq	cfun(%rip), %rax	# cfun, cfun.248
	movq	16(%rax), %rax	# cfun.248_545->expr, D.17596
	movq	cfun(%rip), %rdx	# cfun, cfun.249
	movq	16(%rdx), %rdx	# cfun.249_547->expr, D.17596
	movl	4(%rdx), %edx	# _548->x_inhibit_defer_pop, D.17595
	addl	$1, %edx	#, D.17595
	movl	%edx, 4(%rax)	# D.17595, _546->x_inhibit_defer_pop
	.loc 1 2923 0
	movq	-520(%rbp), %rdx	# exp, tmp966
	movq	-272(%rbp), %rax	# fndecl, tmp967
	movq	%rdx, %rsi	# tmp966,
	movq	%rax, %rdi	# tmp967,
	call	rtx_for_function_call	#
	movq	%rax, -184(%rbp)	# tmp968, funexp
	.loc 1 2926 0
	movq	$0, -336(%rbp)	#, valreg
	.loc 1 2927 0
	movq	-520(%rbp), %rax	# exp, tmp969
	movq	8(%rax), %rax	# exp_89(D)->common.type, D.17599
	movzbl	61(%rax), %eax	# *_553, D.17597
	andl	$-2, %eax	#, D.17597
	testb	%al, %al	# D.17597
	je	.L436	#,
	.loc 1 2928 0
	cmpq	$0, -328(%rbp)	#, structure_value_addr
	jne	.L436	#,
	.loc 1 2930 0
	cmpl	$0, -432(%rbp)	#, pcc_struct_value
	je	.L437	#,
	.loc 1 2931 0
	cmpl	$0, -480(%rbp)	#, pass
	sete	%al	#, D.17610
	movzbl	%al, %ebx	# D.17610, D.17595
	movq	-520(%rbp), %rax	# exp, tmp970
	movq	8(%rax), %rax	# exp_89(D)->common.type, D.17599
	movq	%rax, %rdi	# D.17599,
	call	build_pointer_type	#
	movq	-272(%rbp), %rcx	# fndecl, tmp971
	movl	%ebx, %edx	# D.17595,
	movq	%rcx, %rsi	# tmp971,
	movq	%rax, %rdi	# D.17599,
	call	hard_function_value	#
	movq	%rax, -336(%rbp)	# tmp972, valreg
	jmp	.L436	#
.L437:
	.loc 1 2934 0
	cmpl	$0, -480(%rbp)	#, pass
	sete	%al	#, D.17610
	movzbl	%al, %edx	# D.17610, D.17595
	movq	-520(%rbp), %rax	# exp, tmp973
	movq	8(%rax), %rax	# exp_89(D)->common.type, D.17599
	movq	-272(%rbp), %rcx	# fndecl, tmp974
	movq	%rcx, %rsi	# tmp974,
	movq	%rax, %rdi	# D.17599,
	call	hard_function_value	#
	movq	%rax, -336(%rbp)	# tmp975, valreg
.L436:
	.loc 1 2939 0
	leaq	-512(%rbp), %rdx	#, tmp976
	movq	-216(%rbp), %rcx	# args, tmp977
	movl	-472(%rbp), %eax	# num_actuals, tmp978
	movq	%rcx, %rsi	# tmp977,
	movl	%eax, %edi	# tmp978,
	call	precompute_register_parameters	#
	.loc 1 2944 0
	movl	target_flags(%rip), %eax	# target_flags, target_flags.250
	andl	$4096, %eax	#, D.17595
	testl	%eax, %eax	# D.17595
	je	.L438	#,
	.loc 1 2944 0 is_stmt 0 discriminator 1
	cmpl	$0, -480(%rbp)	#, pass
	je	.L438	#,
	.loc 1 2945 0 is_stmt 1
	leaq	-496(%rbp), %rcx	#, tmp979
	leaq	-500(%rbp), %rdx	#, tmp980
	movq	-312(%rbp), %rsi	# argblock, tmp981
	movl	-428(%rbp), %eax	# reg_parm_stack_space, tmp982
	movl	%eax, %edi	# tmp982,
	call	save_fixed_argument_area	#
	movq	%rax, -304(%rbp)	# tmp983, save_area
.L438:
	.loc 1 2955 0
	movl	$0, -460(%rbp)	#, i
	jmp	.L439	#
.L443:
	.loc 1 2956 0
	movl	-460(%rbp), %eax	# i, tmp984
	movslq	%eax, %rdx	# tmp984, D.17602
	movq	%rdx, %rax	# D.17602, tmp985
	salq	$2, %rax	#, tmp985
	addq	%rdx, %rax	# D.17602, tmp985
	salq	$2, %rax	#, tmp985
	addq	%rdx, %rax	# D.17602, tmp985
	salq	$3, %rax	#, tmp986
	movq	%rax, %rdx	# tmp985, D.17602
	movq	-216(%rbp), %rax	# args, tmp987
	addq	%rdx, %rax	# D.17602, D.17606
	movq	32(%rax), %rax	# _571->reg, D.17601
	testq	%rax, %rax	# D.17601
	je	.L440	#,
	.loc 1 2956 0 is_stmt 0 discriminator 1
	movl	-460(%rbp), %eax	# i, tmp988
	movslq	%eax, %rdx	# tmp988, D.17602
	movq	%rdx, %rax	# D.17602, tmp989
	salq	$2, %rax	#, tmp989
	addq	%rdx, %rax	# D.17602, tmp989
	salq	$2, %rax	#, tmp989
	addq	%rdx, %rax	# D.17602, tmp989
	salq	$3, %rax	#, tmp990
	movq	%rax, %rdx	# tmp989, D.17602
	movq	-216(%rbp), %rax	# args, tmp991
	addq	%rdx, %rax	# D.17602, D.17606
	movl	56(%rax), %eax	# _575->pass_on_stack, D.17595
	testl	%eax, %eax	# D.17595
	je	.L441	#,
.L440:
.LBB31:
	.loc 1 2958 0 is_stmt 1
	call	get_last_insn	#
	movq	%rax, -176(%rbp)	# tmp992, before_arg
	.loc 1 2961 0
	movq	-56(%rbp), %rax	# adjusted_args_size.var, D.17599
	.loc 1 2960 0
	testq	%rax, %rax	# D.17599
	setne	%al	#, D.17610
	movzbl	%al, %ecx	# D.17610, D.17595
	movl	-504(%rbp), %esi	# flags, flags.251
	movl	-460(%rbp), %eax	# i, tmp993
	movslq	%eax, %rdx	# tmp993, D.17602
	movq	%rdx, %rax	# D.17602, tmp994
	salq	$2, %rax	#, tmp994
	addq	%rdx, %rax	# D.17602, tmp994
	salq	$2, %rax	#, tmp994
	addq	%rdx, %rax	# D.17602, tmp994
	salq	$3, %rax	#, tmp995
	movq	%rax, %rdx	# tmp994, D.17602
	movq	-216(%rbp), %rax	# args, tmp996
	leaq	(%rdx,%rax), %rdi	#, D.17606
	movl	-428(%rbp), %edx	# reg_parm_stack_space, tmp997
	movq	-312(%rbp), %rax	# argblock, tmp998
	movl	%edx, %r8d	# tmp997,
	movl	%esi, %edx	# flags.251,
	movq	%rax, %rsi	# tmp998,
	call	store_one_arg	#
	testl	%eax, %eax	# D.17595
	jne	.L442	#,
	.loc 1 2963 0
	cmpl	$0, -480(%rbp)	#, pass
	jne	.L441	#,
	.loc 1 2964 0
	movl	-460(%rbp), %eax	# i, tmp999
	movslq	%eax, %rdx	# tmp999, D.17602
	.loc 1 2965 0
	movq	%rdx, %rax	# D.17602, tmp1000
	salq	$2, %rax	#, tmp1000
	addq	%rdx, %rax	# D.17602, tmp1000
	salq	$2, %rax	#, tmp1000
	addq	%rdx, %rax	# D.17602, tmp1000
	salq	$3, %rax	#, tmp1001
	movq	%rax, %rdx	# tmp1000, D.17602
	.loc 1 2964 0
	movq	-216(%rbp), %rax	# args, tmp1002
	addq	%rax, %rdx	# tmp1002, D.17606
	movq	-176(%rbp), %rax	# before_arg, tmp1003
	movq	%rdx, %rsi	# D.17606,
	movq	%rax, %rdi	# tmp1003,
	call	check_sibcall_argument_overlap	#
	testl	%eax, %eax	# D.17595
	je	.L441	#,
.L442:
	.loc 1 2966 0
	movl	$1, -448(%rbp)	#, sibcall_failure
.L441:
.LBE31:
	.loc 1 2955 0
	addl	$1, -460(%rbp)	#, i
.L439:
	.loc 1 2955 0 is_stmt 0 discriminator 1
	movl	-460(%rbp), %eax	# i, tmp1004
	cmpl	-472(%rbp), %eax	# num_actuals, tmp1004
	jl	.L443	#,
	.loc 1 2978 0 is_stmt 1
	movl	-512(%rbp), %eax	# reg_parm_seen, reg_parm_seen.252
	testl	%eax, %eax	# reg_parm_seen.252
	je	.L444	#,
	.loc 1 2979 0
	movl	$0, -460(%rbp)	#, i
	jmp	.L445	#
.L448:
	.loc 1 2980 0
	movl	-460(%rbp), %eax	# i, tmp1005
	movslq	%eax, %rdx	# tmp1005, D.17602
	movq	%rdx, %rax	# D.17602, tmp1006
	salq	$2, %rax	#, tmp1006
	addq	%rdx, %rax	# D.17602, tmp1006
	salq	$2, %rax	#, tmp1006
	addq	%rdx, %rax	# D.17602, tmp1006
	salq	$3, %rax	#, tmp1007
	movq	%rax, %rdx	# tmp1006, D.17602
	movq	-216(%rbp), %rax	# args, tmp1008
	addq	%rdx, %rax	# D.17602, D.17606
	movl	52(%rax), %eax	# _596->partial, D.17595
	testl	%eax, %eax	# D.17595
	je	.L446	#,
	.loc 1 2980 0 is_stmt 0 discriminator 1
	movl	-460(%rbp), %eax	# i, tmp1009
	movslq	%eax, %rdx	# tmp1009, D.17602
	movq	%rdx, %rax	# D.17602, tmp1010
	salq	$2, %rax	#, tmp1010
	addq	%rdx, %rax	# D.17602, tmp1010
	salq	$2, %rax	#, tmp1010
	addq	%rdx, %rax	# D.17602, tmp1010
	salq	$3, %rax	#, tmp1011
	movq	%rax, %rdx	# tmp1010, D.17602
	movq	-216(%rbp), %rax	# args, tmp1012
	addq	%rdx, %rax	# D.17602, D.17606
	movl	56(%rax), %eax	# _600->pass_on_stack, D.17595
	testl	%eax, %eax	# D.17595
	jne	.L446	#,
.LBB32:
	.loc 1 2982 0 is_stmt 1
	call	get_last_insn	#
	movq	%rax, -168(%rbp)	# tmp1013, before_arg
	.loc 1 2985 0
	movq	-56(%rbp), %rax	# adjusted_args_size.var, D.17599
	.loc 1 2984 0
	testq	%rax, %rax	# D.17599
	setne	%al	#, D.17610
	movzbl	%al, %ecx	# D.17610, D.17595
	movl	-504(%rbp), %esi	# flags, flags.253
	movl	-460(%rbp), %eax	# i, tmp1014
	movslq	%eax, %rdx	# tmp1014, D.17602
	movq	%rdx, %rax	# D.17602, tmp1015
	salq	$2, %rax	#, tmp1015
	addq	%rdx, %rax	# D.17602, tmp1015
	salq	$2, %rax	#, tmp1015
	addq	%rdx, %rax	# D.17602, tmp1015
	salq	$3, %rax	#, tmp1016
	movq	%rax, %rdx	# tmp1015, D.17602
	movq	-216(%rbp), %rax	# args, tmp1017
	leaq	(%rdx,%rax), %rdi	#, D.17606
	movl	-428(%rbp), %edx	# reg_parm_stack_space, tmp1018
	movq	-312(%rbp), %rax	# argblock, tmp1019
	movl	%edx, %r8d	# tmp1018,
	movl	%esi, %edx	# flags.253,
	movq	%rax, %rsi	# tmp1019,
	call	store_one_arg	#
	testl	%eax, %eax	# D.17595
	jne	.L447	#,
	.loc 1 2987 0
	cmpl	$0, -480(%rbp)	#, pass
	jne	.L446	#,
	.loc 1 2988 0
	movl	-460(%rbp), %eax	# i, tmp1020
	movslq	%eax, %rdx	# tmp1020, D.17602
	.loc 1 2989 0
	movq	%rdx, %rax	# D.17602, tmp1021
	salq	$2, %rax	#, tmp1021
	addq	%rdx, %rax	# D.17602, tmp1021
	salq	$2, %rax	#, tmp1021
	addq	%rdx, %rax	# D.17602, tmp1021
	salq	$3, %rax	#, tmp1022
	movq	%rax, %rdx	# tmp1021, D.17602
	.loc 1 2988 0
	movq	-216(%rbp), %rax	# args, tmp1023
	addq	%rax, %rdx	# tmp1023, D.17606
	movq	-168(%rbp), %rax	# before_arg, tmp1024
	movq	%rdx, %rsi	# D.17606,
	movq	%rax, %rdi	# tmp1024,
	call	check_sibcall_argument_overlap	#
	testl	%eax, %eax	# D.17595
	je	.L446	#,
.L447:
	.loc 1 2990 0
	movl	$1, -448(%rbp)	#, sibcall_failure
.L446:
.LBE32:
	.loc 1 2979 0
	addl	$1, -460(%rbp)	#, i
.L445:
	.loc 1 2979 0 is_stmt 0 discriminator 1
	movl	-460(%rbp), %eax	# i, tmp1025
	cmpl	-472(%rbp), %eax	# num_actuals, tmp1025
	jl	.L448	#,
.L444:
	.loc 1 2995 0 is_stmt 1
	movl	target_flags(%rip), %eax	# target_flags, target_flags.254
	andl	$2048, %eax	#, D.17595
	testl	%eax, %eax	# D.17595
	jne	.L449	#,
	.loc 1 2995 0 is_stmt 0 discriminator 2
	movl	target_flags(%rip), %eax	# target_flags, target_flags.255
	andl	$4096, %eax	#, D.17595
	testl	%eax, %eax	# D.17595
	je	.L450	#,
.L449:
	.loc 1 2995 0 discriminator 1
	cmpq	$0, -312(%rbp)	#, argblock
	jne	.L450	#,
	.loc 1 2996 0 is_stmt 1
	movq	-64(%rbp), %rdx	# adjusted_args_size.constant, D.17603
	movl	-404(%rbp), %eax	# unadjusted_args_size, tmp1026
	cltq
	subq	%rax, %rdx	# D.17603, D.17603
	movq	%rdx, %rax	# D.17603, D.17603
	movq	%rax, %rsi	# D.17603,
	movl	$0, %edi	#,
	call	gen_rtx_CONST_INT	#
	movq	%rax, %rdi	# D.17601,
	call	anti_adjust_stack	#
.L450:
	.loc 1 3010 0
	cmpl	$0, -480(%rbp)	#, pass
	je	.L451	#,
	.loc 1 3010 0 is_stmt 0 discriminator 1
	cmpq	$0, -328(%rbp)	#, structure_value_addr
	je	.L451	#,
	cmpl	$0, -476(%rbp)	#, structure_value_addr_parm
	jne	.L451	#,
	.loc 1 3012 0 is_stmt 1
	movq	-328(%rbp), %rax	# structure_value_addr, tmp1027
	movl	$0, %esi	#,
	movq	%rax, %rdi	# tmp1027,
	call	force_operand	#
	movq	%rax, %rdx	#, D.17601
	.loc 1 3013 0
	movl	target_flags(%rip), %eax	# target_flags, target_flags.257
	andl	$33554432, %eax	#, D.17595
	.loc 1 3012 0
	testl	%eax, %eax	# D.17595
	je	.L452	#,
	.loc 1 3012 0 is_stmt 0 discriminator 1
	movl	$5, %eax	#, iftmp.256
	jmp	.L453	#
.L452:
	.loc 1 3012 0 discriminator 2
	movl	$4, %eax	#, iftmp.256
.L453:
	.loc 1 3012 0 discriminator 3
	movq	%rdx, %rsi	# D.17601,
	movl	%eax, %edi	# iftmp.256,
	call	force_reg	#
	movq	%rax, %rdx	#, D.17601
	movq	struct_value_rtx(%rip), %rax	# struct_value_rtx, struct_value_rtx.258
	movq	%rdx, %rsi	# D.17601,
	movq	%rax, %rdi	# struct_value_rtx.258,
	call	emit_move_insn	#
	.loc 1 3017 0 is_stmt 1 discriminator 3
	movq	struct_value_rtx(%rip), %rax	# struct_value_rtx, struct_value_rtx.259
	movzwl	(%rax), %eax	# struct_value_rtx.259_632->code, D.17600
	cmpw	$61, %ax	#, D.17600
	jne	.L451	#,
	.loc 1 3018 0
	movq	struct_value_rtx(%rip), %rdx	# struct_value_rtx, struct_value_rtx.260
	leaq	-384(%rbp), %rax	#, tmp1028
	movq	%rdx, %rsi	# struct_value_rtx.260,
	movq	%rax, %rdi	# tmp1028,
	call	use_reg	#
.L451:
	.loc 1 3021 0
	cmpl	$0, -480(%rbp)	#, pass
	sete	%al	#, D.17610
	movzbl	%al, %edi	# D.17610, D.17595
	movl	-512(%rbp), %ecx	# reg_parm_seen, reg_parm_seen.261
	leaq	-384(%rbp), %rdx	#, tmp1029
	movq	-272(%rbp), %rsi	# fndecl, tmp1030
	movq	-184(%rbp), %rax	# funexp, tmp1031
	movl	%edi, %r8d	# D.17595,
	movq	%rax, %rdi	# tmp1031,
	call	prepare_call_address	#
	movq	%rax, -184(%rbp)	# tmp1032, funexp
	.loc 1 3024 0
	movl	-504(%rbp), %ecx	# flags, flags.262
	leaq	-384(%rbp), %rdx	#, tmp1033
	movl	-472(%rbp), %esi	# num_actuals, tmp1034
	movq	-216(%rbp), %rax	# args, tmp1035
	movq	%rax, %rdi	# tmp1035,
	call	load_register_parameters	#
	.loc 1 3027 0
	call	emit_queue	#
	.loc 1 3031 0
	call	get_last_insn	#
	movq	%rax, -160(%rbp)	# tmp1036, before_call
	.loc 1 3041 0
	movq	global_trees+216(%rip), %rdx	# global_trees, D.17599
	leaq	-48(%rbp), %rax	#, tmp1037
	movl	$1, %ecx	#,
	movl	$0, %esi	#,
	movq	%rax, %rdi	# tmp1037,
	call	function_arg	#
	movq	%rax, -152(%rbp)	# tmp1038, next_arg_reg
	.loc 1 3048 0
	cmpl	$0, -480(%rbp)	#, pass
	je	.L454	#,
	.loc 1 3048 0 is_stmt 0 discriminator 1
	movq	cfun(%rip), %rax	# cfun, cfun.263
	movq	16(%rax), %rax	# cfun.263_643->expr, D.17596
	movl	8(%rax), %eax	# _644->x_stack_pointer_delta, D.17595
	cltq
	cqto
	idivq	-200(%rbp)	# preferred_unit_stack_boundary
	movq	%rdx, %rax	# tmp1039, D.17603
	testq	%rax, %rax	# D.17603
	je	.L454	#,
	.loc 1 3049 0 is_stmt 1
	movl	$__FUNCTION__.13040, %edx	#,
	movl	$3049, %esi	#,
	movl	$.LC0, %edi	#,
	call	fancy_abort	#
.L454:
	.loc 1 3052 0
	movl	-504(%rbp), %r8d	# flags, flags.264
	movq	-384(%rbp), %rdi	# call_fusage, call_fusage.265
	movq	-64(%rbp), %r10	# adjusted_args_size.constant, D.17603
	movl	-404(%rbp), %eax	# unadjusted_args_size, tmp1041
	movslq	%eax, %rcx	# tmp1041, D.17603
	movq	-320(%rbp), %r11	# struct_value_size, tmp1042
	movq	-232(%rbp), %rdx	# funtype, tmp1043
	movq	-272(%rbp), %rsi	# fndecl, tmp1044
	movq	-184(%rbp), %rax	# funexp, tmp1045
	leaq	-48(%rbp), %r9	#, tmp1046
	movq	%r9, 40(%rsp)	# tmp1046,
	movl	%r8d, 32(%rsp)	# flags.264,
	movq	%rdi, 24(%rsp)	# call_fusage.265,
	movl	-420(%rbp), %edi	# old_inhibit_defer_pop, tmp1047
	movl	%edi, 16(%rsp)	# tmp1047,
	movq	-336(%rbp), %rdi	# valreg, tmp1048
	movq	%rdi, 8(%rsp)	# tmp1048,
	movq	-152(%rbp), %rdi	# next_arg_reg, tmp1049
	movq	%rdi, (%rsp)	# tmp1049,
	movq	%r11, %r9	# tmp1042,
	movq	%r10, %r8	# D.17603,
	movq	%rax, %rdi	# tmp1045,
	call	emit_call_1	#
	.loc 1 3058 0
	cmpl	$0, -480(%rbp)	#, pass
	je	.L455	#,
	.loc 1 3059 0
	movq	cfun(%rip), %rax	# cfun, cfun.266
	movq	16(%rax), %rax	# cfun.266_652->expr, D.17596
	movl	8(%rax), %edx	# _653->x_stack_pointer_delta, D.17595
	movq	cfun(%rip), %rax	# cfun, cfun.267
	movq	16(%rax), %rax	# cfun.267_655->expr, D.17596
	movl	(%rax), %eax	# _656->x_pending_stack_adjust, D.17595
	subl	%eax, %edx	# D.17595, D.17595
	movl	%edx, %eax	# D.17595, D.17595
	cmpl	-400(%rbp), %eax	# old_stack_allocated, D.17595
	je	.L455	#,
	.loc 1 3060 0
	movl	$__FUNCTION__.13040, %edx	#,
	movl	$3060, %esi	#,
	movl	$.LC0, %edi	#,
	call	fancy_abort	#
.L455:
	.loc 1 3066 0
	cmpl	$0, -480(%rbp)	#, pass
	je	.L456	#,
	.loc 1 3066 0 is_stmt 0 discriminator 1
	movl	-504(%rbp), %eax	# flags, flags.268
	andl	$4096, %eax	#, D.17595
	testl	%eax, %eax	# D.17595
	je	.L456	#,
.LBB33:
	.loc 1 3070 0 is_stmt 1
	cmpq	$0, -336(%rbp)	#, valreg
	je	.L457	#,
	.loc 1 3070 0 is_stmt 0 discriminator 1
	movq	-336(%rbp), %rax	# valreg, tmp1050
	movzwl	(%rax), %eax	# valreg_33->code, D.17600
	cmpw	$39, %ax	#, D.17600
	jne	.L458	#,
.L457:
	.loc 1 3072 0 is_stmt 1
	call	get_insns	#
	movq	%rax, -136(%rbp)	# tmp1051, insns
	.loc 1 3073 0
	call	end_sequence	#
	.loc 1 3074 0
	movq	-136(%rbp), %rax	# insns, tmp1052
	movq	%rax, %rdi	# tmp1052,
	call	emit_insns	#
.LBE33:
	.loc 1 3067 0
	jmp	.L464	#
.L458:
.LBB35:
.LBB34:
	.loc 1 3078 0
	movq	$0, -288(%rbp)	#, note
	.loc 1 3079 0
	movq	-336(%rbp), %rax	# valreg, tmp1053
	movzbl	2(%rax), %eax	# valreg_33->mode, D.17597
	movzbl	%al, %eax	# D.17597, D.17611
	movl	%eax, %edi	# D.17611,
	call	gen_reg_rtx	#
	movq	%rax, -144(%rbp)	# tmp1054, temp
	.loc 1 3082 0
	movq	-520(%rbp), %rax	# exp, tmp1055
	movq	8(%rax), %rax	# exp_89(D)->common.type, D.17599
	movzbl	16(%rax), %eax	# _666->common.code, D.17597
	cmpb	$13, %al	#, D.17597
	jne	.L460	#,
	.loc 1 3084 0
	movq	-520(%rbp), %rax	# exp, tmp1056
	movq	8(%rax), %rax	# exp_89(D)->common.type, D.17599
	movq	8(%rax), %rax	# _668->common.type, D.17599
	movl	64(%rax), %eax	# _669->type.align, D.17607
	.loc 1 3083 0
	movl	%eax, %edx	# D.17607, D.17595
	movq	-144(%rbp), %rax	# temp, tmp1057
	movl	%edx, %esi	# D.17595,
	movq	%rax, %rdi	# tmp1057,
	call	mark_reg_pointer	#
.L460:
	.loc 1 3088 0
	movl	$0, -460(%rbp)	#, i
	jmp	.L461	#
.L462:
	.loc 1 3089 0 discriminator 2
	movl	-460(%rbp), %eax	# i, tmp1058
	movslq	%eax, %rdx	# tmp1058, D.17602
	movq	%rdx, %rax	# D.17602, tmp1059
	salq	$2, %rax	#, tmp1059
	addq	%rdx, %rax	# D.17602, tmp1059
	salq	$2, %rax	#, tmp1059
	addq	%rdx, %rax	# D.17602, tmp1059
	salq	$3, %rax	#, tmp1060
	movq	%rax, %rdx	# tmp1059, D.17602
	movq	-216(%rbp), %rax	# args, tmp1061
	addq	%rdx, %rax	# D.17602, D.17606
	movq	24(%rax), %rax	# _675->initial_value, D.17601
	movq	-288(%rbp), %rdx	# note, tmp1062
	movq	%rdx, %rcx	# tmp1062,
	movq	%rax, %rdx	# D.17601,
	movl	$0, %esi	#,
	movl	$3, %edi	#,
	call	gen_rtx_fmt_ee	#
	movq	%rax, -288(%rbp)	# tmp1063, note
	.loc 1 3088 0 discriminator 2
	addl	$1, -460(%rbp)	#, i
.L461:
	.loc 1 3088 0 is_stmt 0 discriminator 1
	movl	-460(%rbp), %eax	# i, tmp1064
	cmpl	-472(%rbp), %eax	# num_actuals, tmp1064
	jl	.L462	#,
	.loc 1 3091 0 is_stmt 1
	movq	-288(%rbp), %rdx	# note, tmp1065
	movq	-184(%rbp), %rax	# funexp, tmp1066
	movq	%rdx, %rcx	# tmp1065,
	movq	%rax, %rdx	# tmp1066,
	movl	$0, %esi	#,
	movl	$3, %edi	#,
	call	gen_rtx_fmt_ee	#
	movq	%rax, -288(%rbp)	# tmp1067, note
	.loc 1 3093 0
	call	get_insns	#
	movq	%rax, -136(%rbp)	# tmp1068, insns
	.loc 1 3094 0
	call	end_sequence	#
	.loc 1 3096 0
	movl	-504(%rbp), %eax	# flags, flags.269
	andl	$512, %eax	#, D.17595
	testl	%eax, %eax	# D.17595
	je	.L463	#,
	.loc 1 3097 0
	movl	$0, %esi	#,
	movl	$62, %edi	#,
	call	gen_rtx_fmt_0	#
	movq	%rax, %rsi	# D.17601,
	movl	$51, %edi	#,
	call	gen_rtx_MEM	#
	movq	%rax, %rdx	# D.17601,
	movl	$0, %esi	#,
	movl	$48, %edi	#,
	call	gen_rtx_fmt_e	#
	movq	-288(%rbp), %rdx	# note, tmp1069
	movq	%rdx, %rcx	# tmp1069,
	movq	%rax, %rdx	# D.17601,
	movl	$0, %esi	#,
	movl	$3, %edi	#,
	call	gen_rtx_fmt_ee	#
	movq	%rax, -288(%rbp)	# tmp1070, note
.L463:
	.loc 1 3103 0
	movq	-288(%rbp), %rcx	# note, tmp1071
	movq	-336(%rbp), %rdx	# valreg, tmp1072
	movq	-144(%rbp), %rsi	# temp, tmp1073
	movq	-136(%rbp), %rax	# insns, tmp1074
	movq	%rax, %rdi	# tmp1074,
	call	emit_libcall_block	#
	.loc 1 3105 0
	movq	-144(%rbp), %rax	# temp, tmp1075
	movq	%rax, -336(%rbp)	# tmp1075, valreg
.LBE34:
.LBE35:
	.loc 1 3067 0
	jmp	.L464	#
.L456:
	.loc 1 3108 0
	cmpl	$0, -480(%rbp)	#, pass
	je	.L464	#,
	.loc 1 3108 0 is_stmt 0 discriminator 1
	movl	-504(%rbp), %eax	# flags, flags.270
	andl	$4, %eax	#, D.17595
	testl	%eax, %eax	# D.17595
	je	.L464	#,
.LBB36:
	.loc 1 3110 0 is_stmt 1
	movq	-336(%rbp), %rax	# valreg, tmp1076
	movzbl	2(%rax), %eax	# valreg_33->mode, D.17597
