	.file	"combine.c"
# GNU C (Ubuntu/Linaro 4.8.1-10ubuntu9) version 4.8.1 (x86_64-linux-gnu)
#	compiled by GNU C version 4.8.1, GMP version 5.1.2, MPFR version 3.1.1-p2, MPC version 1.0.1
# GGC heuristics: --param ggc-min-expand=100 --param ggc-min-heapsize=131072
# options passed:  -I . -imultiarch x86_64-linux-gnu -D SPEC_CPU -D NDEBUG
# -D SPEC_CPU_LP64 combine.c -mtune=generic -march=x86-64 -g -fverbose-asm
# -fno-strict-aliasing -fstack-protector -Wformat -Wformat-security
# options enabled:  -faggressive-loop-optimizations
# -fasynchronous-unwind-tables -fauto-inc-dec -fbranch-count-reg -fcommon
# -fdelete-null-pointer-checks -fdwarf2-cfi-asm -fearly-inlining
# -feliminate-unused-debug-types -ffunction-cse -fgcse-lm -fgnu-runtime
# -fident -finline-atomics -fira-hoist-pressure -fira-share-save-slots
# -fira-share-spill-slots -fivopts -fkeep-static-consts
# -fleading-underscore -fmath-errno -fmerge-debug-strings
# -fmove-loop-invariants -fpeephole -fprefetch-loop-arrays
# -freg-struct-return -fsched-critical-path-heuristic
# -fsched-dep-count-heuristic -fsched-group-heuristic -fsched-interblock
# -fsched-last-insn-heuristic -fsched-rank-heuristic -fsched-spec
# -fsched-spec-insn-heuristic -fsched-stalled-insns-dep -fshow-column
# -fsigned-zeros -fsplit-ivs-in-unroller -fstack-protector
# -fstrict-volatile-bitfields -fsync-libcalls -ftrapping-math
# -ftree-coalesce-vars -ftree-cselim -ftree-forwprop -ftree-loop-if-convert
# -ftree-loop-im -ftree-loop-ivcanon -ftree-loop-optimize
# -ftree-parallelize-loops= -ftree-phiprop -ftree-pta -ftree-reassoc
# -ftree-scev-cprop -ftree-slp-vectorize -ftree-vect-loop-version
# -funit-at-a-time -funwind-tables -fverbose-asm -fzero-initialized-in-bss
# -m128bit-long-double -m64 -m80387 -maccumulate-outgoing-args
# -malign-stringops -mfancy-math-387 -mfp-ret-in-387 -mfxsr -mglibc
# -mieee-fp -mlong-double-80 -mmmx -mno-sse4 -mpush-args -mred-zone -msse
# -msse2 -mtls-direct-seg-refs

	.text
.Ltext0:
	.local	combine_attempts
	.comm	combine_attempts,4,4
	.local	combine_merges
	.comm	combine_merges,4,4
	.local	combine_extras
	.comm	combine_extras,4,4
	.local	combine_successes
	.comm	combine_successes,4,4
	.local	total_attempts
	.comm	total_attempts,4,4
	.local	total_merges
	.comm	total_merges,4,4
	.local	total_extras
	.comm	total_extras,4,4
	.local	total_successes
	.comm	total_successes,4,4
	.local	uid_cuid
	.comm	uid_cuid,8,8
	.local	max_uid_cuid
	.comm	max_uid_cuid,4,4
	.local	combine_max_regno
	.comm	combine_max_regno,4,4
	.local	reg_last_death
	.comm	reg_last_death,8,8
	.local	reg_last_set
	.comm	reg_last_set,8,8
	.local	mem_last_set
	.comm	mem_last_set,4,4
	.local	last_call_cuid
	.comm	last_call_cuid,4,4
	.local	subst_insn
	.comm	subst_insn,8,8
	.local	subst_prev_insn
	.comm	subst_prev_insn,8,8
	.local	subst_low_cuid
	.comm	subst_low_cuid,4,4
	.local	newpat_used_regs
	.comm	newpat_used_regs,8,8
	.local	added_links_insn
	.comm	added_links_insn,8,8
	.local	this_basic_block
	.comm	this_basic_block,4,4
	.local	refresh_blocks
	.comm	refresh_blocks,8,8
	.local	need_refresh
	.comm	need_refresh,4,4
	.local	reg_last_set_value
	.comm	reg_last_set_value,8,8
	.local	reg_last_set_label
	.comm	reg_last_set_label,8,8
	.local	reg_last_set_table_tick
	.comm	reg_last_set_table_tick,8,8
	.local	reg_last_set_invalid
	.comm	reg_last_set_invalid,8,8
	.local	label_tick
	.comm	label_tick,4,4
	.local	reg_nonzero_bits
	.comm	reg_nonzero_bits,8,8
	.local	nonzero_bits_mode
	.comm	nonzero_bits_mode,4,4
	.local	reg_sign_bit_copies
	.comm	reg_sign_bit_copies,8,8
	.local	nonzero_sign_valid
	.comm	nonzero_sign_valid,4,4
	.local	reg_last_set_mode
	.comm	reg_last_set_mode,8,8
	.local	reg_last_set_nonzero_bits
	.comm	reg_last_set_nonzero_bits,8,8
	.local	reg_last_set_sign_bit_copies
	.comm	reg_last_set_sign_bit_copies,8,8
	.local	undobuf
	.comm	undobuf,24,16
	.local	n_occurrences
	.comm	n_occurrences,4,4
	.section	.rodata
.LC0:
	.string	"combine.c"
	.text
	.type	do_SUBST, @function
do_SUBST:
.LFB2:
	.file 1 "combine.c"
	.loc 1 420 0
	.cfi_startproc
	pushq	%rbp	#
	.cfi_def_cfa_offset 16
	.cfi_offset 6, -16
	movq	%rsp, %rbp	#,
	.cfi_def_cfa_register 6
	pushq	%rbx	#
	subq	$40, %rsp	#,
	.cfi_offset 3, -24
	movq	%rdi, -40(%rbp)	# into, into
	movq	%rsi, -48(%rbp)	# newval, newval
	.loc 1 422 0
	movq	-40(%rbp), %rax	# into, tmp77
	movq	(%rax), %rax	# *into_2(D), tmp78
	movq	%rax, -24(%rbp)	# tmp78, oldval
	.loc 1 424 0
	movq	-24(%rbp), %rax	# oldval, tmp79
	cmpq	-48(%rbp), %rax	# newval, tmp79
	jne	.L2	#,
	.loc 1 425 0
	jmp	.L1	#
.L2:
	.loc 1 432 0
	movq	-24(%rbp), %rax	# oldval, tmp80
	movzbl	2(%rax), %eax	# oldval_3->mode, D.29054
	movzbl	%al, %eax	# D.29054, D.29055
	cltq
	movl	mode_class(,%rax,4), %eax	# mode_class, D.29056
	cmpl	$1, %eax	#, D.29056
	jne	.L4	#,
	.loc 1 433 0
	movq	-48(%rbp), %rax	# newval, tmp82
	movzwl	(%rax), %eax	# newval_4(D)->code, D.29057
	cmpw	$54, %ax	#, D.29057
	jne	.L4	#,
	.loc 1 437 0
	movq	-48(%rbp), %rax	# newval, tmp83
	movq	8(%rax), %rbx	# newval_4(D)->fld[0].rtwint, D.29058
	.loc 1 438 0
	movq	-24(%rbp), %rax	# oldval, tmp84
	movzbl	2(%rax), %eax	# oldval_3->mode, D.29054
	.loc 1 437 0
	movzbl	%al, %edx	# D.29054, D.29059
	movq	-48(%rbp), %rax	# newval, tmp85
	movq	8(%rax), %rax	# newval_4(D)->fld[0].rtwint, D.29058
	movl	%edx, %esi	# D.29059,
	movq	%rax, %rdi	# D.29058,
	call	trunc_int_for_mode	#
	cmpq	%rax, %rbx	# D.29058, D.29058
	je	.L5	#,
	.loc 1 439 0
	movl	$__FUNCTION__.11361, %edx	#,
	movl	$439, %esi	#,
	movl	$.LC0, %edi	#,
	call	fancy_abort	#
.L5:
	.loc 1 447 0
	movq	-24(%rbp), %rax	# oldval, tmp86
	movzwl	(%rax), %eax	# oldval_3->code, D.29057
	cmpw	$63, %ax	#, D.29057
	jne	.L6	#,
	.loc 1 448 0
	movq	-24(%rbp), %rax	# oldval, tmp87
	movq	8(%rax), %rax	# oldval_3->fld[0].rtx, D.29060
	movzwl	(%rax), %eax	# _15->code, D.29057
	cmpw	$54, %ax	#, D.29057
	je	.L7	#,
.L6:
	.loc 1 449 0
	movq	-24(%rbp), %rax	# oldval, tmp88
	movzwl	(%rax), %eax	# oldval_3->code, D.29057
	cmpw	$121, %ax	#, D.29057
	jne	.L4	#,
	.loc 1 450 0
	movq	-24(%rbp), %rax	# oldval, tmp89
	movq	8(%rax), %rax	# oldval_3->fld[0].rtx, D.29060
	movzwl	(%rax), %eax	# _18->code, D.29057
	cmpw	$54, %ax	#, D.29057
	jne	.L4	#,
.L7:
	.loc 1 451 0
	movl	$__FUNCTION__.11361, %edx	#,
	movl	$451, %esi	#,
	movl	$.LC0, %edi	#,
	call	fancy_abort	#
.L4:
	.loc 1 454 0
	movq	undobuf+8(%rip), %rax	# undobuf.frees, D.29061
	testq	%rax, %rax	# D.29061
	je	.L8	#,
	.loc 1 455 0
	movq	undobuf+8(%rip), %rax	# undobuf.frees, tmp90
	movq	%rax, -32(%rbp)	# tmp90, buf
	movq	-32(%rbp), %rax	# buf, tmp91
	movq	(%rax), %rax	# buf_21->next, D.29061
	movq	%rax, undobuf+8(%rip)	# D.29061, undobuf.frees
	jmp	.L9	#
.L8:
	.loc 1 457 0
	movl	$32, %edi	#,
	call	xmalloc	#
	movq	%rax, -32(%rbp)	# tmp92, buf
.L9:
	.loc 1 459 0
	movq	-32(%rbp), %rax	# buf, tmp93
	movl	$0, 8(%rax)	#, buf_1->is_int
	.loc 1 460 0
	movq	-32(%rbp), %rax	# buf, tmp94
	movq	-40(%rbp), %rdx	# into, tmp95
	movq	%rdx, 24(%rax)	# tmp95, buf_1->where.r
	.loc 1 461 0
	movq	-32(%rbp), %rax	# buf, tmp96
	movq	-24(%rbp), %rdx	# oldval, tmp97
	movq	%rdx, 16(%rax)	# tmp97, buf_1->old_contents.r
	.loc 1 462 0
	movq	-40(%rbp), %rax	# into, tmp98
	movq	-48(%rbp), %rdx	# newval, tmp99
	movq	%rdx, (%rax)	# tmp99, *into_2(D)
	.loc 1 464 0
	movq	undobuf(%rip), %rdx	# undobuf.undos, D.29061
	movq	-32(%rbp), %rax	# buf, tmp100
	movq	%rdx, (%rax)	# D.29061, buf_1->next
	movq	-32(%rbp), %rax	# buf, tmp101
	movq	%rax, undobuf(%rip)	# tmp101, undobuf.undos
.L1:
	.loc 1 465 0
	addq	$40, %rsp	#,
	popq	%rbx	#
	popq	%rbp	#
	.cfi_def_cfa 7, 8
	ret
	.cfi_endproc
.LFE2:
	.size	do_SUBST, .-do_SUBST
	.type	do_SUBST_INT, @function
do_SUBST_INT:
.LFB3:
	.loc 1 476 0
	.cfi_startproc
	pushq	%rbp	#
	.cfi_def_cfa_offset 16
	.cfi_offset 6, -16
	movq	%rsp, %rbp	#,
	.cfi_def_cfa_register 6
	subq	$32, %rsp	#,
	movq	%rdi, -24(%rbp)	# into, into
	movl	%esi, -28(%rbp)	# newval, newval
	.loc 1 478 0
	movq	-24(%rbp), %rax	# into, tmp62
	movl	(%rax), %eax	# *into_2(D), tmp63
	movl	%eax, -12(%rbp)	# tmp63, oldval
	.loc 1 480 0
	movl	-12(%rbp), %eax	# oldval, tmp64
	cmpl	-28(%rbp), %eax	# newval, tmp64
	jne	.L11	#,
	.loc 1 481 0
	jmp	.L10	#
.L11:
	.loc 1 483 0
	movq	undobuf+8(%rip), %rax	# undobuf.frees, D.29063
	testq	%rax, %rax	# D.29063
	je	.L13	#,
	.loc 1 484 0
	movq	undobuf+8(%rip), %rax	# undobuf.frees, tmp65
	movq	%rax, -8(%rbp)	# tmp65, buf
	movq	-8(%rbp), %rax	# buf, tmp66
	movq	(%rax), %rax	# buf_6->next, D.29063
	movq	%rax, undobuf+8(%rip)	# D.29063, undobuf.frees
	jmp	.L14	#
.L13:
	.loc 1 486 0
	movl	$32, %edi	#,
	call	xmalloc	#
	movq	%rax, -8(%rbp)	# tmp67, buf
.L14:
	.loc 1 488 0
	movq	-8(%rbp), %rax	# buf, tmp68
	movl	$1, 8(%rax)	#, buf_1->is_int
	.loc 1 489 0
	movq	-8(%rbp), %rax	# buf, tmp69
	movq	-24(%rbp), %rdx	# into, tmp70
	movq	%rdx, 24(%rax)	# tmp70, buf_1->where.i
	.loc 1 490 0
	movq	-8(%rbp), %rax	# buf, tmp71
	movl	-12(%rbp), %edx	# oldval, tmp72
	movl	%edx, 16(%rax)	# tmp72, buf_1->old_contents.i
	.loc 1 491 0
	movq	-24(%rbp), %rax	# into, tmp73
	movl	-28(%rbp), %edx	# newval, tmp74
	movl	%edx, (%rax)	# tmp74, *into_2(D)
	.loc 1 493 0
	movq	undobuf(%rip), %rdx	# undobuf.undos, D.29063
	movq	-8(%rbp), %rax	# buf, tmp75
	movq	%rdx, (%rax)	# D.29063, buf_1->next
	movq	-8(%rbp), %rax	# buf, tmp76
	movq	%rax, undobuf(%rip)	# tmp76, undobuf.undos
.L10:
	.loc 1 494 0
	leave
	.cfi_def_cfa 7, 8
	ret
	.cfi_endproc
.LFE3:
	.size	do_SUBST_INT, .-do_SUBST_INT
	.globl	combine_instructions
	.type	combine_instructions, @function
combine_instructions:
.LFB4:
	.loc 1 508 0
	.cfi_startproc
	pushq	%rbp	#
	.cfi_def_cfa_offset 16
	.cfi_offset 6, -16
	movq	%rsp, %rbp	#,
	.cfi_def_cfa_register 6
	subq	$80, %rsp	#,
	movq	%rdi, -72(%rbp)	# f, f
	movl	%esi, -76(%rbp)	# nregs, nregs
	.loc 1 516 0
	movl	$0, -64(%rbp)	#, new_direct_jump_p
	.loc 1 518 0
	movl	$0, combine_attempts(%rip)	#, combine_attempts
	.loc 1 519 0
	movl	$0, combine_merges(%rip)	#, combine_merges
	.loc 1 520 0
	movl	$0, combine_extras(%rip)	#, combine_extras
	.loc 1 521 0
	movl	$0, combine_successes(%rip)	#, combine_successes
	.loc 1 523 0
	movl	-76(%rbp), %eax	# nregs, tmp163
	movl	%eax, combine_max_regno(%rip)	# tmp163, combine_max_regno
	.loc 1 526 0
	movl	-76(%rbp), %eax	# nregs, D.29064
	movl	$8, %esi	#,
	movq	%rax, %rdi	# D.29064,
	call	xcalloc	#
	.loc 1 525 0
	movq	%rax, reg_nonzero_bits(%rip)	# reg_nonzero_bits.0, reg_nonzero_bits
	.loc 1 528 0
	movl	-76(%rbp), %eax	# nregs, D.29064
	movl	$1, %esi	#,
	movq	%rax, %rdi	# D.29064,
	call	xcalloc	#
	movq	%rax, reg_sign_bit_copies(%rip)	# reg_sign_bit_copies.1, reg_sign_bit_copies
	.loc 1 530 0
	movl	-76(%rbp), %eax	# nregs, D.29064
	salq	$3, %rax	#, D.29064
	movq	%rax, %rdi	# D.29064,
	call	xmalloc	#
	movq	%rax, reg_last_death(%rip)	# reg_last_death.2, reg_last_death
	.loc 1 531 0
	movl	-76(%rbp), %eax	# nregs, D.29064
	salq	$3, %rax	#, D.29064
	movq	%rax, %rdi	# D.29064,
	call	xmalloc	#
	movq	%rax, reg_last_set(%rip)	# reg_last_set.3, reg_last_set
	.loc 1 532 0
	movl	-76(%rbp), %eax	# nregs, D.29064
	salq	$3, %rax	#, D.29064
	movq	%rax, %rdi	# D.29064,
	call	xmalloc	#
	movq	%rax, reg_last_set_value(%rip)	# reg_last_set_value.4, reg_last_set_value
	.loc 1 533 0
	movl	-76(%rbp), %eax	# nregs, D.29064
	salq	$2, %rax	#, D.29064
	movq	%rax, %rdi	# D.29064,
	call	xmalloc	#
	movq	%rax, reg_last_set_table_tick(%rip)	# reg_last_set_table_tick.5, reg_last_set_table_tick
	.loc 1 534 0
	movl	-76(%rbp), %eax	# nregs, D.29064
	salq	$2, %rax	#, D.29064
	movq	%rax, %rdi	# D.29064,
	call	xmalloc	#
	movq	%rax, reg_last_set_label(%rip)	# reg_last_set_label.6, reg_last_set_label
	.loc 1 535 0
	movl	-76(%rbp), %eax	# nregs, D.29064
	movq	%rax, %rdi	# D.29064,
	call	xmalloc	#
	movq	%rax, reg_last_set_invalid(%rip)	# reg_last_set_invalid.7, reg_last_set_invalid
	.loc 1 537 0
	movl	-76(%rbp), %eax	# nregs, D.29064
	salq	$2, %rax	#, D.29064
	movq	%rax, %rdi	# D.29064,
	call	xmalloc	#
	movq	%rax, reg_last_set_mode(%rip)	# reg_last_set_mode.8, reg_last_set_mode
	.loc 1 539 0
	movl	-76(%rbp), %eax	# nregs, D.29064
	salq	$3, %rax	#, D.29064
	movq	%rax, %rdi	# D.29064,
	call	xmalloc	#
	movq	%rax, reg_last_set_nonzero_bits(%rip)	# reg_last_set_nonzero_bits.9, reg_last_set_nonzero_bits
	.loc 1 541 0
	movl	-76(%rbp), %eax	# nregs, D.29064
	movq	%rax, %rdi	# D.29064,
	call	xmalloc	#
	movq	%rax, reg_last_set_sign_bit_copies(%rip)	# reg_last_set_sign_bit_copies.10, reg_last_set_sign_bit_copies
	.loc 1 543 0
	call	init_reg_last_arrays	#
	.loc 1 545 0
	call	init_recog_no_volatile	#
	.loc 1 549 0
	movq	-72(%rbp), %rax	# f, tmp175
	movq	%rax, -56(%rbp)	# tmp175, insn
	movl	$0, -60(%rbp)	#, i
	jmp	.L16	#
.L18:
	.loc 1 550 0
	movq	-56(%rbp), %rax	# insn, tmp176
	movl	8(%rax), %eax	# insn_1->fld[0].rtint, D.29065
	cmpl	-60(%rbp), %eax	# i, D.29065
	jle	.L17	#,
	.loc 1 551 0
	movq	-56(%rbp), %rax	# insn, tmp177
	movl	8(%rax), %eax	# insn_1->fld[0].rtint, tmp178
	movl	%eax, -60(%rbp)	# tmp178, i
.L17:
	.loc 1 549 0
	movq	-56(%rbp), %rax	# insn, tmp179
	movq	24(%rax), %rax	# insn_1->fld[2].rtx, tmp180
	movq	%rax, -56(%rbp)	# tmp180, insn
.L16:
	.loc 1 549 0 is_stmt 0 discriminator 1
	cmpq	$0, -56(%rbp)	#, insn
	jne	.L18	#,
	.loc 1 553 0 is_stmt 1
	movl	-60(%rbp), %eax	# i, tmp181
	addl	$1, %eax	#, D.29065
	cltq
	salq	$2, %rax	#, D.29064
	movq	%rax, %rdi	# D.29064,
	call	xmalloc	#
	movq	%rax, uid_cuid(%rip)	# uid_cuid.11, uid_cuid
	.loc 1 554 0
	movl	-60(%rbp), %eax	# i, tmp183
	movl	%eax, max_uid_cuid(%rip)	# tmp183, max_uid_cuid
	.loc 1 556 0
	movl	$0, %edx	#,
	movl	$1, %esi	#,
	movl	$64, %edi	#,
	call	mode_for_size	#
	movl	%eax, nonzero_bits_mode(%rip)	# nonzero_bits_mode.12, nonzero_bits_mode
	.loc 1 561 0
	movl	$0, nonzero_sign_valid(%rip)	#, nonzero_sign_valid
	.loc 1 574 0
	movl	$1, label_tick(%rip)	#, label_tick
	.loc 1 578 0
	movq	$0, subst_prev_insn(%rip)	#, subst_prev_insn
	.loc 1 580 0
	call	setup_incoming_promotions	#
	.loc 1 582 0
	movl	n_basic_blocks(%rip), %eax	# n_basic_blocks, n_basic_blocks.13
	movl	%eax, %edi	# n_basic_blocks.14,
	call	sbitmap_alloc	#
	movq	%rax, refresh_blocks(%rip)	# refresh_blocks.15, refresh_blocks
	.loc 1 583 0
	movq	refresh_blocks(%rip), %rax	# refresh_blocks, refresh_blocks.16
	movq	%rax, %rdi	# refresh_blocks.16,
	call	sbitmap_zero	#
	.loc 1 584 0
	movl	$0, need_refresh(%rip)	#, need_refresh
	.loc 1 586 0
	movq	-72(%rbp), %rax	# f, tmp184
	movq	%rax, -56(%rbp)	# tmp184, insn
	movl	$0, -60(%rbp)	#, i
	jmp	.L19	#
.L22:
	.loc 1 588 0
	movq	uid_cuid(%rip), %rdx	# uid_cuid, uid_cuid.17
	movq	-56(%rbp), %rax	# insn, tmp185
	movl	8(%rax), %eax	# insn_2->fld[0].rtint, D.29065
	cltq
	salq	$2, %rax	#, D.29064
	addq	%rax, %rdx	# D.29064, D.29066
	addl	$1, -60(%rbp)	#, i
	movl	-60(%rbp), %eax	# i, tmp186
	movl	%eax, (%rdx)	# tmp186, *_72
	.loc 1 589 0
	movl	-60(%rbp), %eax	# i, tmp187
	movl	%eax, subst_low_cuid(%rip)	# tmp187, subst_low_cuid
	.loc 1 590 0
	movq	-56(%rbp), %rax	# insn, tmp188
	movq	%rax, subst_insn(%rip)	# tmp188, subst_insn
	.loc 1 592 0
	movq	-56(%rbp), %rax	# insn, tmp189
	movzwl	(%rax), %eax	# insn_2->code, D.29067
	movzwl	%ax, %eax	# D.29067, D.29065
	cltq
	movzbl	rtx_class(%rax), %eax	# rtx_class, D.29068
	cmpb	$105, %al	#, D.29068
	jne	.L20	#,
	.loc 1 594 0
	movq	-56(%rbp), %rax	# insn, tmp191
	movq	32(%rax), %rax	# insn_2->fld[3].rtx, D.29069
	movl	$0, %edx	#,
	movl	$set_nonzero_bits_and_sign_copies, %esi	#,
	movq	%rax, %rdi	# D.29069,
	call	note_stores	#
	.loc 1 596 0
	movq	-56(%rbp), %rax	# insn, tmp192
	movq	%rax, %rdi	# tmp192,
	call	record_dead_and_set_regs	#
.L20:
	.loc 1 606 0
	movq	-56(%rbp), %rax	# insn, tmp193
	movzwl	(%rax), %eax	# insn_2->code, D.29067
	cmpw	$36, %ax	#, D.29067
	jne	.L21	#,
	.loc 1 607 0
	movl	label_tick(%rip), %eax	# label_tick, label_tick.18
	addl	$1, %eax	#, label_tick.19
	movl	%eax, label_tick(%rip)	# label_tick.19, label_tick
.L21:
	.loc 1 586 0
	movq	-56(%rbp), %rax	# insn, tmp194
	movq	24(%rax), %rax	# insn_2->fld[2].rtx, tmp195
	movq	%rax, -56(%rbp)	# tmp195, insn
.L19:
	.loc 1 586 0 is_stmt 0 discriminator 1
	cmpq	$0, -56(%rbp)	#, insn
	jne	.L22	#,
	.loc 1 610 0 is_stmt 1
	movl	$1, nonzero_sign_valid(%rip)	#, nonzero_sign_valid
	.loc 1 614 0
	movl	$-1, this_basic_block(%rip)	#, this_basic_block
	.loc 1 615 0
	movl	$1, label_tick(%rip)	#, label_tick
	.loc 1 616 0
	movl	$0, last_call_cuid(%rip)	#, last_call_cuid
	.loc 1 617 0
	movl	$0, mem_last_set(%rip)	#, mem_last_set
	.loc 1 618 0
	call	init_reg_last_arrays	#
	.loc 1 619 0
	call	setup_incoming_promotions	#
	.loc 1 621 0
	movq	-72(%rbp), %rax	# f, tmp196
	movq	%rax, -56(%rbp)	# tmp196, insn
	jmp	.L23	#
.L44:
	.loc 1 623 0
	movq	$0, -48(%rbp)	#, next
	.loc 1 626 0
	movl	this_basic_block(%rip), %eax	# this_basic_block, this_basic_block.20
	leal	1(%rax), %edx	#, D.29065
	movl	n_basic_blocks(%rip), %eax	# n_basic_blocks, n_basic_blocks.21
	cmpl	%eax, %edx	# n_basic_blocks.21, D.29065
	jge	.L24	#,
	.loc 1 627 0
	movq	basic_block_info(%rip), %rax	# basic_block_info, basic_block_info.22
	movl	this_basic_block(%rip), %edx	# this_basic_block, this_basic_block.23
	addl	$1, %edx	#, D.29065
	movslq	%edx, %rdx	# D.29065, tmp197
	addq	$4, %rdx	#, tmp198
	movq	(%rax,%rdx,8), %rax	# basic_block_info.22_87->data.bb, D.29070
	movq	(%rax), %rax	# _90->head, D.29069
	cmpq	-56(%rbp), %rax	# insn, D.29069
	jne	.L24	#,
	.loc 1 628 0
	movl	this_basic_block(%rip), %eax	# this_basic_block, this_basic_block.24
	addl	$1, %eax	#, this_basic_block.25
	movl	%eax, this_basic_block(%rip)	# this_basic_block.25, this_basic_block
.L24:
	.loc 1 630 0
	movq	-56(%rbp), %rax	# insn, tmp199
	movzwl	(%rax), %eax	# insn_3->code, D.29067
	cmpw	$36, %ax	#, D.29067
	jne	.L25	#,
	.loc 1 631 0
	movl	label_tick(%rip), %eax	# label_tick, label_tick.26
	addl	$1, %eax	#, label_tick.27
	movl	%eax, label_tick(%rip)	# label_tick.27, label_tick
	jmp	.L26	#
.L25:
	.loc 1 633 0
	movq	-56(%rbp), %rax	# insn, tmp200
	movzwl	(%rax), %eax	# insn_3->code, D.29067
	movzwl	%ax, %eax	# D.29067, D.29065
	cltq
	movzbl	rtx_class(%rax), %eax	# rtx_class, D.29068
	cmpb	$105, %al	#, D.29068
	jne	.L26	#,
	.loc 1 637 0
	movq	-56(%rbp), %rax	# insn, tmp202
	movq	32(%rax), %rdx	# insn_3->fld[3].rtx, D.29069
	movq	-56(%rbp), %rax	# insn, tmp203
	movq	%rdx, %rsi	# D.29069,
	movq	%rax, %rdi	# tmp203,
	call	check_promoted_subreg	#
	.loc 1 641 0
	movq	-56(%rbp), %rax	# insn, tmp204
	movq	48(%rax), %rax	# insn_3->fld[5].rtx, tmp205
	movq	%rax, -40(%rbp)	# tmp205, links
	jmp	.L27	#
.L29:
	.loc 1 642 0
	movq	-40(%rbp), %rax	# links, tmp206
	movq	8(%rax), %rsi	# links_14->fld[0].rtx, D.29069
	leaq	-64(%rbp), %rdx	#, tmp207
	movq	-56(%rbp), %rax	# insn, tmp208
	movq	%rdx, %rcx	# tmp207,
	movl	$0, %edx	#,
	movq	%rax, %rdi	# tmp208,
	call	try_combine	#
	movq	%rax, -48(%rbp)	# tmp209, next
	cmpq	$0, -48(%rbp)	#, next
	je	.L28	#,
	.loc 1 644 0
	jmp	.L26	#
.L28:
	.loc 1 641 0
	movq	-40(%rbp), %rax	# links, tmp210
	movq	16(%rax), %rax	# links_14->fld[1].rtx, tmp211
	movq	%rax, -40(%rbp)	# tmp211, links
.L27:
	.loc 1 641 0 is_stmt 0 discriminator 1
	cmpq	$0, -40(%rbp)	#, links
	jne	.L29	#,
	.loc 1 648 0 is_stmt 1
	movq	-56(%rbp), %rax	# insn, tmp212
	movq	48(%rax), %rax	# insn_3->fld[5].rtx, tmp213
	movq	%rax, -40(%rbp)	# tmp213, links
	jmp	.L30	#
.L36:
.LBB2:
	.loc 1 650 0
	movq	-40(%rbp), %rax	# links, tmp214
	movq	8(%rax), %rax	# links_15->fld[0].rtx, tmp215
	movq	%rax, -16(%rbp)	# tmp215, link
	.loc 1 654 0
	movq	-16(%rbp), %rax	# link, tmp216
	movzwl	(%rax), %eax	# link_106->code, D.29067
	cmpw	$37, %ax	#, D.29067
	jne	.L31	#,
	.loc 1 655 0
	jmp	.L32	#
.L31:
	.loc 1 657 0
	movq	-16(%rbp), %rax	# link, tmp217
	movq	48(%rax), %rax	# link_106->fld[5].rtx, tmp218
	movq	%rax, -32(%rbp)	# tmp218, nextlinks
	jmp	.L33	#
.L35:
	.loc 1 660 0
	movq	-32(%rbp), %rax	# nextlinks, tmp219
	movq	8(%rax), %rdx	# nextlinks_17->fld[0].rtx, D.29069
	leaq	-64(%rbp), %rcx	#, tmp220
	movq	-16(%rbp), %rsi	# link, tmp221
	movq	-56(%rbp), %rax	# insn, tmp222
	movq	%rax, %rdi	# tmp222,
	call	try_combine	#
	movq	%rax, -48(%rbp)	# tmp223, next
	cmpq	$0, -48(%rbp)	#, next
	je	.L34	#,
	.loc 1 663 0
	jmp	.L26	#
.L34:
	.loc 1 659 0
	movq	-32(%rbp), %rax	# nextlinks, tmp224
	movq	16(%rax), %rax	# nextlinks_17->fld[1].rtx, tmp225
	movq	%rax, -32(%rbp)	# tmp225, nextlinks
.L33:
	.loc 1 657 0 discriminator 1
	cmpq	$0, -32(%rbp)	#, nextlinks
	jne	.L35	#,
.L32:
.LBE2:
	.loc 1 648 0
	movq	-40(%rbp), %rax	# links, tmp226
	movq	16(%rax), %rax	# links_15->fld[1].rtx, tmp227
	movq	%rax, -40(%rbp)	# tmp227, links
.L30:
	.loc 1 648 0 is_stmt 0 discriminator 1
	cmpq	$0, -40(%rbp)	#, links
	jne	.L36	#,
	.loc 1 728 0 is_stmt 1
	movq	-56(%rbp), %rax	# insn, tmp228
	movq	48(%rax), %rax	# insn_3->fld[5].rtx, tmp229
	movq	%rax, -40(%rbp)	# tmp229, links
	jmp	.L37	#
.L41:
	.loc 1 729 0
	movq	-40(%rbp), %rax	# links, tmp230
	movq	16(%rax), %rax	# links_16->fld[1].rtx, tmp231
	movq	%rax, -32(%rbp)	# tmp231, nextlinks
	jmp	.L38	#
.L40:
	.loc 1 731 0
	movq	-32(%rbp), %rax	# nextlinks, tmp232
	movq	8(%rax), %rdx	# nextlinks_18->fld[0].rtx, D.29069
	movq	-40(%rbp), %rax	# links, tmp233
	movq	8(%rax), %rsi	# links_16->fld[0].rtx, D.29069
	leaq	-64(%rbp), %rcx	#, tmp234
	movq	-56(%rbp), %rax	# insn, tmp235
	movq	%rax, %rdi	# tmp235,
	call	try_combine	#
	movq	%rax, -48(%rbp)	# tmp236, next
	cmpq	$0, -48(%rbp)	#, next
	je	.L39	#,
	.loc 1 734 0
	jmp	.L26	#
.L39:
	.loc 1 730 0
	movq	-32(%rbp), %rax	# nextlinks, tmp237
	movq	16(%rax), %rax	# nextlinks_18->fld[1].rtx, tmp238
	movq	%rax, -32(%rbp)	# tmp238, nextlinks
.L38:
	.loc 1 729 0 discriminator 1
	cmpq	$0, -32(%rbp)	#, nextlinks
	jne	.L40	#,
	.loc 1 728 0
	movq	-40(%rbp), %rax	# links, tmp239
	movq	16(%rax), %rax	# links_16->fld[1].rtx, tmp240
	movq	%rax, -40(%rbp)	# tmp240, links
.L37:
	.loc 1 728 0 is_stmt 0 discriminator 1
	cmpq	$0, -40(%rbp)	#, links
	jne	.L41	#,
	.loc 1 736 0 is_stmt 1
	movq	-56(%rbp), %rax	# insn, tmp241
	movzwl	(%rax), %eax	# insn_3->code, D.29067
	cmpw	$37, %ax	#, D.29067
	je	.L26	#,
	.loc 1 737 0
	movq	-56(%rbp), %rax	# insn, tmp242
	movq	%rax, %rdi	# tmp242,
	call	record_dead_and_set_regs	#
.L26:
	.loc 1 621 0
	cmpq	$0, -48(%rbp)	#, next
	jne	.L42	#,
	.loc 1 621 0 is_stmt 0 discriminator 1
	movq	-56(%rbp), %rax	# insn, tmp243
	movq	24(%rax), %rax	# insn_3->fld[2].rtx, iftmp.28
	jmp	.L43	#
.L42:
	.loc 1 621 0 discriminator 2
	movq	-48(%rbp), %rax	# next, iftmp.28
.L43:
	.loc 1 621 0 discriminator 3
	movq	%rax, -56(%rbp)	# iftmp.28, insn
.L23:
	.loc 1 621 0 discriminator 1
	cmpq	$0, -56(%rbp)	#, insn
	jne	.L44	#,
	.loc 1 744 0 is_stmt 1
	movq	-72(%rbp), %rax	# f, tmp244
	movq	%rax, %rdi	# tmp244,
	call	delete_noop_moves	#
	.loc 1 746 0
	movl	need_refresh(%rip), %eax	# need_refresh, need_refresh.29
	testl	%eax, %eax	# need_refresh.29
	je	.L45	#,
	.loc 1 748 0
	movq	refresh_blocks(%rip), %rax	# refresh_blocks, refresh_blocks.30
	movl	$1, %edx	#,
	movl	$2, %esi	#,
	movq	%rax, %rdi	# refresh_blocks.30,
	call	update_life_info	#
.L45:
	.loc 1 753 0
	movq	refresh_blocks(%rip), %rax	# refresh_blocks, refresh_blocks.31
	movq	%rax, %rdi	# refresh_blocks.31,
	call	free	#
	.loc 1 754 0
	movq	reg_nonzero_bits(%rip), %rax	# reg_nonzero_bits, reg_nonzero_bits.32
	movq	%rax, %rdi	# reg_nonzero_bits.32,
	call	free	#
	.loc 1 755 0
	movq	reg_sign_bit_copies(%rip), %rax	# reg_sign_bit_copies, reg_sign_bit_copies.33
	movq	%rax, %rdi	# reg_sign_bit_copies.33,
	call	free	#
	.loc 1 756 0
	movq	reg_last_death(%rip), %rax	# reg_last_death, reg_last_death.34
	movq	%rax, %rdi	# reg_last_death.34,
	call	free	#
	.loc 1 757 0
	movq	reg_last_set(%rip), %rax	# reg_last_set, reg_last_set.35
	movq	%rax, %rdi	# reg_last_set.35,
	call	free	#
	.loc 1 758 0
	movq	reg_last_set_value(%rip), %rax	# reg_last_set_value, reg_last_set_value.36
	movq	%rax, %rdi	# reg_last_set_value.36,
	call	free	#
	.loc 1 759 0
	movq	reg_last_set_table_tick(%rip), %rax	# reg_last_set_table_tick, reg_last_set_table_tick.37
	movq	%rax, %rdi	# reg_last_set_table_tick.37,
	call	free	#
	.loc 1 760 0
	movq	reg_last_set_label(%rip), %rax	# reg_last_set_label, reg_last_set_label.38
	movq	%rax, %rdi	# reg_last_set_label.38,
	call	free	#
	.loc 1 761 0
	movq	reg_last_set_invalid(%rip), %rax	# reg_last_set_invalid, reg_last_set_invalid.39
	movq	%rax, %rdi	# reg_last_set_invalid.39,
	call	free	#
	.loc 1 762 0
	movq	reg_last_set_mode(%rip), %rax	# reg_last_set_mode, reg_last_set_mode.40
	movq	%rax, %rdi	# reg_last_set_mode.40,
	call	free	#
	.loc 1 763 0
	movq	reg_last_set_nonzero_bits(%rip), %rax	# reg_last_set_nonzero_bits, reg_last_set_nonzero_bits.41
	movq	%rax, %rdi	# reg_last_set_nonzero_bits.41,
	call	free	#
	.loc 1 764 0
	movq	reg_last_set_sign_bit_copies(%rip), %rax	# reg_last_set_sign_bit_copies, reg_last_set_sign_bit_copies.42
	movq	%rax, %rdi	# reg_last_set_sign_bit_copies.42,
	call	free	#
	.loc 1 765 0
	movq	uid_cuid(%rip), %rax	# uid_cuid, uid_cuid.43
	movq	%rax, %rdi	# uid_cuid.43,
	call	free	#
.LBB3:
	.loc 1 769 0
	movq	undobuf+8(%rip), %rax	# undobuf.frees, tmp245
	movq	%rax, -24(%rbp)	# tmp245, undo
	jmp	.L46	#
.L47:
	.loc 1 771 0 discriminator 2
	movq	-24(%rbp), %rax	# undo, tmp246
	movq	(%rax), %rax	# undo_19->next, tmp247
	movq	%rax, -8(%rbp)	# tmp247, next
	.loc 1 772 0 discriminator 2
	movq	-24(%rbp), %rax	# undo, tmp248
	movq	%rax, %rdi	# tmp248,
	call	free	#
	.loc 1 769 0 discriminator 2
	movq	-8(%rbp), %rax	# next, tmp249
	movq	%rax, -24(%rbp)	# tmp249, undo
.L46:
	.loc 1 769 0 is_stmt 0 discriminator 1
	cmpq	$0, -24(%rbp)	#, undo
	jne	.L47	#,
	.loc 1 774 0 is_stmt 1
	movq	$0, undobuf+8(%rip)	#, undobuf.frees
.LBE3:
	.loc 1 777 0
	movl	total_attempts(%rip), %edx	# total_attempts, total_attempts.44
	movl	combine_attempts(%rip), %eax	# combine_attempts, combine_attempts.45
	addl	%edx, %eax	# total_attempts.44, total_attempts.46
	movl	%eax, total_attempts(%rip)	# total_attempts.46, total_attempts
	.loc 1 778 0
	movl	total_merges(%rip), %edx	# total_merges, total_merges.47
	movl	combine_merges(%rip), %eax	# combine_merges, combine_merges.48
	addl	%edx, %eax	# total_merges.47, total_merges.49
	movl	%eax, total_merges(%rip)	# total_merges.49, total_merges
	.loc 1 779 0
	movl	total_extras(%rip), %edx	# total_extras, total_extras.50
	movl	combine_extras(%rip), %eax	# combine_extras, combine_extras.51
	addl	%edx, %eax	# total_extras.50, total_extras.52
	movl	%eax, total_extras(%rip)	# total_extras.52, total_extras
	.loc 1 780 0
	movl	total_successes(%rip), %edx	# total_successes, total_successes.53
	movl	combine_successes(%rip), %eax	# combine_successes, combine_successes.54
	addl	%edx, %eax	# total_successes.53, total_successes.55
	movl	%eax, total_successes(%rip)	# total_successes.55, total_successes
	.loc 1 782 0
	movl	$0, nonzero_sign_valid(%rip)	#, nonzero_sign_valid
	.loc 1 785 0
	call	init_recog	#
	.loc 1 787 0
	movl	-64(%rbp), %eax	# new_direct_jump_p, D.29065
	.loc 1 788 0
	leave
	.cfi_def_cfa 7, 8
	ret
	.cfi_endproc
.LFE4:
	.size	combine_instructions, .-combine_instructions
	.type	init_reg_last_arrays, @function
init_reg_last_arrays:
.LFB5:
	.loc 1 794 0
	.cfi_startproc
	pushq	%rbp	#
	.cfi_def_cfa_offset 16
	.cfi_offset 6, -16
	movq	%rsp, %rbp	#,
	.cfi_def_cfa_register 6
	subq	$16, %rsp	#,
	.loc 1 795 0
	movl	combine_max_regno(%rip), %eax	# combine_max_regno, tmp84
	movl	%eax, -4(%rbp)	# tmp84, nregs
	.loc 1 797 0
	movl	-4(%rbp), %eax	# nregs, D.29071
	leaq	0(,%rax,8), %rdx	#, D.29071
	movq	reg_last_death(%rip), %rax	# reg_last_death, reg_last_death.56
	movl	$0, %esi	#,
	movq	%rax, %rdi	# reg_last_death.56,
	call	memset	#
	.loc 1 798 0
	movl	-4(%rbp), %eax	# nregs, D.29071
	leaq	0(,%rax,8), %rdx	#, D.29071
	movq	reg_last_set(%rip), %rax	# reg_last_set, reg_last_set.57
	movl	$0, %esi	#,
	movq	%rax, %rdi	# reg_last_set.57,
	call	memset	#
	.loc 1 799 0
	movl	-4(%rbp), %eax	# nregs, D.29071
	leaq	0(,%rax,8), %rdx	#, D.29071
	movq	reg_last_set_value(%rip), %rax	# reg_last_set_value, reg_last_set_value.58
	movl	$0, %esi	#,
	movq	%rax, %rdi	# reg_last_set_value.58,
	call	memset	#
	.loc 1 800 0
	movl	-4(%rbp), %eax	# nregs, D.29071
	leaq	0(,%rax,4), %rdx	#, D.29071
	movq	reg_last_set_table_tick(%rip), %rax	# reg_last_set_table_tick, reg_last_set_table_tick.59
	movl	$0, %esi	#,
	movq	%rax, %rdi	# reg_last_set_table_tick.59,
	call	memset	#
	.loc 1 801 0
	movl	-4(%rbp), %eax	# nregs, D.29071
	leaq	0(,%rax,4), %rdx	#, D.29071
	movq	reg_last_set_label(%rip), %rax	# reg_last_set_label, reg_last_set_label.60
	movl	$0, %esi	#,
	movq	%rax, %rdi	# reg_last_set_label.60,
	call	memset	#
	.loc 1 802 0
	movl	-4(%rbp), %edx	# nregs, D.29071
	movq	reg_last_set_invalid(%rip), %rax	# reg_last_set_invalid, reg_last_set_invalid.61
	movl	$0, %esi	#,
	movq	%rax, %rdi	# reg_last_set_invalid.61,
	call	memset	#
	.loc 1 803 0
	movl	-4(%rbp), %eax	# nregs, D.29071
	leaq	0(,%rax,4), %rdx	#, D.29071
	movq	reg_last_set_mode(%rip), %rax	# reg_last_set_mode, reg_last_set_mode.62
	movl	$0, %esi	#,
	movq	%rax, %rdi	# reg_last_set_mode.62,
	call	memset	#
	.loc 1 804 0
	movl	-4(%rbp), %eax	# nregs, D.29071
	leaq	0(,%rax,8), %rdx	#, D.29071
	movq	reg_last_set_nonzero_bits(%rip), %rax	# reg_last_set_nonzero_bits, reg_last_set_nonzero_bits.63
	movl	$0, %esi	#,
	movq	%rax, %rdi	# reg_last_set_nonzero_bits.63,
	call	memset	#
	.loc 1 805 0
	movl	-4(%rbp), %edx	# nregs, D.29071
	movq	reg_last_set_sign_bit_copies(%rip), %rax	# reg_last_set_sign_bit_copies, reg_last_set_sign_bit_copies.64
	movl	$0, %esi	#,
	movq	%rax, %rdi	# reg_last_set_sign_bit_copies.64,
	call	memset	#
	.loc 1 806 0
	leave
	.cfi_def_cfa 7, 8
	ret
	.cfi_endproc
.LFE5:
	.size	init_reg_last_arrays, .-init_reg_last_arrays
	.type	setup_incoming_promotions, @function
setup_incoming_promotions:
.LFB6:
	.loc 1 812 0
	.cfi_startproc
	pushq	%rbp	#
	.cfi_def_cfa_offset 16
	.cfi_offset 6, -16
	movq	%rsp, %rbp	#,
	.cfi_def_cfa_register 6
	.loc 1 837 0
	popq	%rbp	#
	.cfi_def_cfa 7, 8
	ret
	.cfi_endproc
.LFE6:
	.size	setup_incoming_promotions, .-setup_incoming_promotions
	.type	set_nonzero_bits_and_sign_copies, @function
set_nonzero_bits_and_sign_copies:
.LFB7:
	.loc 1 855 0
	.cfi_startproc
	pushq	%rbp	#
	.cfi_def_cfa_offset 16
	.cfi_offset 6, -16
	movq	%rsp, %rbp	#,
	.cfi_def_cfa_register 6
	pushq	%r12	#
	pushq	%rbx	#
	subq	$48, %rsp	#,
	.cfi_offset 12, -24
	.cfi_offset 3, -32
	movq	%rdi, -40(%rbp)	# x, x
	movq	%rsi, -48(%rbp)	# set, set
	movq	%rdx, -56(%rbp)	# data, data
	.loc 1 858 0
	movq	-40(%rbp), %rax	# x, tmp148
	movzwl	(%rax), %eax	# x_1(D)->code, D.29072
	cmpw	$61, %ax	#, D.29072
	jne	.L51	#,
	.loc 1 859 0
	movq	-40(%rbp), %rax	# x, tmp149
	movl	8(%rax), %eax	# x_1(D)->fld[0].rtuint, D.29073
	cmpl	$52, %eax	#, D.29073
	jbe	.L51	#,
	.loc 1 862 0
	movq	-40(%rbp), %rax	# x, tmp150
	movl	8(%rax), %eax	# x_1(D)->fld[0].rtuint, D.29073
	movl	%eax, %edx	# D.29073, D.29074
	movq	basic_block_info(%rip), %rax	# basic_block_info, basic_block_info.65
	movq	32(%rax), %rax	# basic_block_info.65_6->data.bb, D.29075
	movq	64(%rax), %rax	# _7->global_live_at_start, D.29076
	movl	%edx, %esi	# D.29074,
	movq	%rax, %rdi	# D.29076,
	call	bitmap_bit_p	#
	testl	%eax, %eax	# D.29074
	jne	.L51	#,
	.loc 1 863 0
	movq	-40(%rbp), %rax	# x, tmp151
	movzbl	2(%rax), %eax	# x_1(D)->mode, D.29077
	movzbl	%al, %eax	# D.29077, D.29074
	cltq
	movzwl	mode_bitsize(%rax,%rax), %eax	# mode_bitsize, D.29072
	cmpw	$64, %ax	#, D.29072
	ja	.L51	#,
	.loc 1 865 0
	cmpq	$0, -48(%rbp)	#, set
	je	.L53	#,
	.loc 1 865 0 is_stmt 0 discriminator 1
	movq	-48(%rbp), %rax	# set, tmp153
	movzwl	(%rax), %eax	# set_13(D)->code, D.29072
	cmpw	$49, %ax	#, D.29072
	jne	.L54	#,
.L53:
	.loc 1 867 0 is_stmt 1
	movq	reg_nonzero_bits(%rip), %rdx	# reg_nonzero_bits, reg_nonzero_bits.66
	movq	-40(%rbp), %rax	# x, tmp154
	movl	8(%rax), %eax	# x_1(D)->fld[0].rtuint, D.29073
	movl	%eax, %eax	# D.29073, D.29079
	salq	$3, %rax	#, D.29079
	addq	%rax, %rdx	# D.29079, D.29080
	movq	-40(%rbp), %rax	# x, tmp155
	movzbl	2(%rax), %eax	# x_1(D)->mode, D.29077
	movzbl	%al, %eax	# D.29077, D.29074
	cltq
	movq	mode_mask_array(,%rax,8), %rax	# mode_mask_array, D.29079
	movq	%rax, (%rdx)	# D.29079, *_87
	.loc 1 868 0
	movq	reg_sign_bit_copies(%rip), %rdx	# reg_sign_bit_copies, reg_sign_bit_copies.67
	movq	-40(%rbp), %rax	# x, tmp157
	movl	8(%rax), %eax	# x_1(D)->fld[0].rtuint, D.29073
	movl	%eax, %eax	# D.29073, D.29081
	addq	%rdx, %rax	# reg_sign_bit_copies.67, D.29082
	movb	$1, (%rax)	#, *_94
	.loc 1 869 0
	jmp	.L51	#
.L54:
	.loc 1 874 0
	movq	-48(%rbp), %rax	# set, tmp158
	movq	%rax, %rdi	# tmp158,
	call	expand_field_assignment	#
	movq	%rax, -48(%rbp)	# tmp159, set
	.loc 1 879 0
	movq	-48(%rbp), %rax	# set, tmp160
	movq	8(%rax), %rax	# set_15->fld[0].rtx, D.29078
	cmpq	-40(%rbp), %rax	# x, D.29078
	je	.L55	#,
	.loc 1 880 0
	movq	-48(%rbp), %rax	# set, tmp161
	movq	8(%rax), %rax	# set_15->fld[0].rtx, D.29078
	movzwl	(%rax), %eax	# _17->code, D.29072
	cmpw	$63, %ax	#, D.29072
	jne	.L56	#,
	.loc 1 881 0
	movq	-48(%rbp), %rax	# set, tmp162
	movq	8(%rax), %rax	# set_15->fld[0].rtx, D.29078
	movzbl	2(%rax), %eax	# _19->mode, D.29077
	movzbl	%al, %eax	# D.29077, D.29074
	cltq
	movzbl	mode_size(%rax), %edx	# mode_size, D.29077
	.loc 1 882 0
	movq	-48(%rbp), %rax	# set, tmp164
	movq	8(%rax), %rax	# set_15->fld[0].rtx, D.29078
	movq	8(%rax), %rax	# _23->fld[0].rtx, D.29078
	movzbl	2(%rax), %eax	# _24->mode, D.29077
	movzbl	%al, %eax	# D.29077, D.29074
	cltq
	movzbl	mode_size(%rax), %eax	# mode_size, D.29077
	.loc 1 881 0
	cmpb	%al, %dl	# D.29077, D.29077
	jbe	.L56	#,
	.loc 1 883 0
	movq	-48(%rbp), %rax	# set, tmp166
	movq	8(%rax), %rax	# set_15->fld[0].rtx, D.29078
	movq	8(%rax), %rax	# _28->fld[0].rtx, D.29078
	cmpq	-40(%rbp), %rax	# x, D.29078
	jne	.L56	#,
.L55:
.LBB4:
	.loc 1 885 0
	movq	-48(%rbp), %rax	# set, tmp167
	movq	16(%rax), %rax	# set_15->fld[1].rtx, tmp168
	movq	%rax, -24(%rbp)	# tmp168, src
	.loc 1 909 0
	movq	reg_nonzero_bits(%rip), %rdx	# reg_nonzero_bits, reg_nonzero_bits.68
	movq	-40(%rbp), %rax	# x, tmp169
	movl	8(%rax), %eax	# x_1(D)->fld[0].rtuint, D.29073
	movl	%eax, %eax	# D.29073, D.29079
	salq	$3, %rax	#, D.29079
	addq	%rdx, %rax	# reg_nonzero_bits.68, D.29080
	movq	(%rax), %rax	# *_47, D.29079
	cmpq	$-1, %rax	#, D.29079
	je	.L57	#,
	.loc 1 911 0
	movq	reg_nonzero_bits(%rip), %rdx	# reg_nonzero_bits, reg_nonzero_bits.69
	.loc 1 910 0
	movq	-40(%rbp), %rax	# x, tmp170
	movl	8(%rax), %eax	# x_1(D)->fld[0].rtuint, D.29073
	.loc 1 911 0
	movl	%eax, %eax	# D.29073, D.29079
	salq	$3, %rax	#, D.29079
	leaq	(%rdx,%rax), %rbx	#, D.29080
	movq	reg_nonzero_bits(%rip), %rdx	# reg_nonzero_bits, reg_nonzero_bits.70
	.loc 1 910 0
	movq	-40(%rbp), %rax	# x, tmp171
	movl	8(%rax), %eax	# x_1(D)->fld[0].rtuint, D.29073
	.loc 1 911 0
	movl	%eax, %eax	# D.29073, D.29079
	salq	$3, %rax	#, D.29079
	addq	%rdx, %rax	# reg_nonzero_bits.70, D.29080
	movq	(%rax), %r12	# *_58, D.29079
	movl	nonzero_bits_mode(%rip), %edx	# nonzero_bits_mode, nonzero_bits_mode.71
	movq	-24(%rbp), %rax	# src, tmp172
	movl	%edx, %esi	# nonzero_bits_mode.71,
	movq	%rax, %rdi	# tmp172,
	call	nonzero_bits	#
	orq	%r12, %rax	# D.29079, D.29079
	movq	%rax, (%rbx)	# D.29079, *_53
.L57:
	.loc 1 912 0
	movq	-40(%rbp), %rax	# x, tmp173
	movzbl	2(%rax), %eax	# x_1(D)->mode, D.29077
	movzbl	%al, %edx	# D.29077, D.29083
	movq	-48(%rbp), %rax	# set, tmp174
	movq	16(%rax), %rax	# set_15->fld[1].rtx, D.29078
	movl	%edx, %esi	# D.29083,
	movq	%rax, %rdi	# D.29078,
	call	num_sign_bit_copies	#
	movl	%eax, -28(%rbp)	# tmp175, num
	.loc 1 913 0
	movq	reg_sign_bit_copies(%rip), %rdx	# reg_sign_bit_copies, reg_sign_bit_copies.72
	movq	-40(%rbp), %rax	# x, tmp176
	movl	8(%rax), %eax	# x_1(D)->fld[0].rtuint, D.29073
	movl	%eax, %eax	# D.29073, D.29081
	addq	%rdx, %rax	# reg_sign_bit_copies.72, D.29082
	movzbl	(%rax), %eax	# *_70, D.29077
	testb	%al, %al	# D.29077
	je	.L58	#,
	.loc 1 914 0
	movq	reg_sign_bit_copies(%rip), %rdx	# reg_sign_bit_copies, reg_sign_bit_copies.73
	movq	-40(%rbp), %rax	# x, tmp177
	movl	8(%rax), %eax	# x_1(D)->fld[0].rtuint, D.29073
	movl	%eax, %eax	# D.29073, D.29081
	addq	%rdx, %rax	# reg_sign_bit_copies.73, D.29082
	movzbl	(%rax), %eax	# *_75, D.29077
	movzbl	%al, %eax	# D.29077, D.29073
	cmpl	-28(%rbp), %eax	# num, D.29073
	jbe	.L59	#,
.L58:
	.loc 1 915 0
	movq	reg_sign_bit_copies(%rip), %rdx	# reg_sign_bit_copies, reg_sign_bit_copies.74
	movq	-40(%rbp), %rax	# x, tmp178
	movl	8(%rax), %eax	# x_1(D)->fld[0].rtuint, D.29073
	movl	%eax, %eax	# D.29073, D.29081
	addq	%rax, %rdx	# D.29081, D.29082
	movl	-28(%rbp), %eax	# num, tmp179
	movb	%al, (%rdx)	# D.29077, *_81
.LBE4:
	.loc 1 884 0
	jmp	.L51	#
.L59:
	jmp	.L51	#
.L56:
	.loc 1 919 0
	movq	reg_nonzero_bits(%rip), %rdx	# reg_nonzero_bits, reg_nonzero_bits.75
	movq	-40(%rbp), %rax	# x, tmp180
	movl	8(%rax), %eax	# x_1(D)->fld[0].rtuint, D.29073
	movl	%eax, %eax	# D.29073, D.29079
	salq	$3, %rax	#, D.29079
	addq	%rax, %rdx	# D.29079, D.29080
	movq	-40(%rbp), %rax	# x, tmp181
	movzbl	2(%rax), %eax	# x_1(D)->mode, D.29077
	movzbl	%al, %eax	# D.29077, D.29074
	cltq
	movq	mode_mask_array(,%rax,8), %rax	# mode_mask_array, D.29079
	movq	%rax, (%rdx)	# D.29079, *_34
	.loc 1 920 0
	movq	reg_sign_bit_copies(%rip), %rdx	# reg_sign_bit_copies, reg_sign_bit_copies.76
	movq	-40(%rbp), %rax	# x, tmp183
	movl	8(%rax), %eax	# x_1(D)->fld[0].rtuint, D.29073
	movl	%eax, %eax	# D.29073, D.29081
	addq	%rdx, %rax	# reg_sign_bit_copies.76, D.29082
	movb	$1, (%rax)	#, *_41
.L51:
	.loc 1 923 0
	addq	$48, %rsp	#,
	popq	%rbx	#
	popq	%r12	#
	popq	%rbp	#
	.cfi_def_cfa 7, 8
	ret
	.cfi_endproc
.LFE7:
	.size	set_nonzero_bits_and_sign_copies, .-set_nonzero_bits_and_sign_copies
	.type	can_combine_p, @function
can_combine_p:
.LFB8:
	.loc 1 942 0
	.cfi_startproc
	pushq	%rbp	#
	.cfi_def_cfa_offset 16
	.cfi_offset 6, -16
	movq	%rsp, %rbp	#,
	.cfi_def_cfa_register 6
	addq	$-128, %rsp	#,
	movq	%rdi, -88(%rbp)	# insn, insn
	movq	%rsi, -96(%rbp)	# i3, i3
	movq	%rdx, -104(%rbp)	# pred, pred
	movq	%rcx, -112(%rbp)	# succ, succ
	movq	%r8, -120(%rbp)	# pdest, pdest
	movq	%r9, -128(%rbp)	# psrc, psrc
	.loc 1 944 0
	movq	$0, -56(%rbp)	#, set
	.loc 1 951 0
	cmpq	$0, -112(%rbp)	#, succ
	je	.L61	#,
	.loc 1 949 0
	movq	-88(%rbp), %rax	# insn, tmp203
	movq	%rax, %rdi	# tmp203,
	call	next_active_insn	#
	.loc 1 950 0
	cmpq	-112(%rbp), %rax	# succ, D.29085
	jne	.L62	#,
	.loc 1 950 0 is_stmt 0 discriminator 1
	movq	-112(%rbp), %rax	# succ, tmp204
	movq	%rax, %rdi	# tmp204,
	call	next_active_insn	#
	cmpq	-96(%rbp), %rax	# i3, D.29085
	jne	.L62	#,
	.loc 1 950 0 discriminator 3
	movl	$1, %eax	#, iftmp.78
	jmp	.L63	#
.L62:
	.loc 1 950 0 discriminator 2
	movl	$0, %eax	#, iftmp.78
.L63:
	jmp	.L64	#
.L61:
	.loc 1 951 0 is_stmt 1 discriminator 1
	movq	-88(%rbp), %rax	# insn, tmp205
	movq	%rax, %rdi	# tmp205,
	call	next_active_insn	#
	cmpq	-96(%rbp), %rax	# i3, D.29085
	sete	%al	#, D.29086
	movzbl	%al, %eax	# D.29086, iftmp.77
.L64:
	.loc 1 949 0
	movl	%eax, -64(%rbp)	# iftmp.77, all_adjacent
	.loc 1 968 0
	movq	-88(%rbp), %rax	# insn, tmp206
	movq	32(%rax), %rax	# insn_17(D)->fld[3].rtx, D.29085
	movzwl	(%rax), %eax	# _28->code, D.29087
	cmpw	$47, %ax	#, D.29087
	jne	.L65	#,
	.loc 1 969 0
	movq	-88(%rbp), %rax	# insn, tmp207
	movq	32(%rax), %rax	# insn_17(D)->fld[3].rtx, tmp208
	movq	%rax, -56(%rbp)	# tmp208, set
	jmp	.L66	#
.L65:
	.loc 1 970 0
	movq	-88(%rbp), %rax	# insn, tmp209
	movq	32(%rax), %rax	# insn_17(D)->fld[3].rtx, D.29085
	movzwl	(%rax), %eax	# _31->code, D.29087
	cmpw	$39, %ax	#, D.29087
	jne	.L67	#,
	.loc 1 971 0
	movq	-88(%rbp), %rax	# insn, tmp210
	movq	32(%rax), %rax	# insn_17(D)->fld[3].rtx, D.29085
	movq	8(%rax), %rax	# _33->fld[0].rtvec, D.29088
	movq	8(%rax), %rax	# _34->elem, D.29085
	movzwl	(%rax), %eax	# _35->code, D.29087
	cmpw	$47, %ax	#, D.29087
	jne	.L67	#,
	.loc 1 973 0
	movl	$0, -72(%rbp)	#, i
	jmp	.L68	#
.L82:
.LBB5:
	.loc 1 975 0
	movq	-88(%rbp), %rax	# insn, tmp211
	movq	32(%rax), %rax	# insn_17(D)->fld[3].rtx, D.29085
	movq	8(%rax), %rax	# _41->fld[0].rtvec, D.29088
	movl	-72(%rbp), %edx	# i, tmp213
	movslq	%edx, %rdx	# tmp213, tmp212
	movq	8(%rax,%rdx,8), %rax	# _42->elem, tmp214
	movq	%rax, -40(%rbp)	# tmp214, elt
	.loc 1 977 0
	movq	-40(%rbp), %rax	# elt, tmp215
	movzwl	(%rax), %eax	# elt_43->code, D.29087
	movzwl	%ax, %eax	# D.29087, D.29089
	cmpl	$48, %eax	#, D.29089
	je	.L70	#,
	cmpl	$49, %eax	#, D.29089
	je	.L120	#,
	cmpl	$47, %eax	#, D.29089
	je	.L72	#,
	jmp	.L119	#
.L70:
	.loc 1 995 0
	movq	-40(%rbp), %rax	# elt, tmp216
	movq	8(%rax), %rax	# elt_43->fld[0].rtx, D.29085
	movzwl	(%rax), %eax	# _46->code, D.29087
	cmpw	$61, %ax	#, D.29087
	jne	.L73	#,
	.loc 1 996 0
	movq	-96(%rbp), %rax	# i3, tmp217
	movq	32(%rax), %rax	# i3_20(D)->fld[3].rtx, D.29085
	movzwl	(%rax), %eax	# _48->code, D.29087
	cmpw	$39, %ax	#, D.29087
	jne	.L73	#,
.LBB6:
	.loc 1 998 0
	movq	-96(%rbp), %rax	# i3, tmp218
	movq	32(%rax), %rax	# i3_20(D)->fld[3].rtx, tmp219
	movq	%rax, -32(%rbp)	# tmp219, i3pat
	.loc 1 999 0
	movq	-32(%rbp), %rax	# i3pat, tmp220
	movq	8(%rax), %rax	# i3pat_50->fld[0].rtvec, D.29088
	movl	(%rax), %eax	# _51->num_elem, D.29084
	subl	$1, %eax	#, tmp221
	movl	%eax, -68(%rbp)	# tmp221, i
	.loc 1 1000 0
	movq	-40(%rbp), %rax	# elt, tmp222
	movq	8(%rax), %rax	# elt_43->fld[0].rtx, D.29085
	movl	8(%rax), %eax	# _54->fld[0].rtuint, tmp223
	movl	%eax, -60(%rbp)	# tmp223, regno
.L78:
.LBB7:
	.loc 1 1004 0
	movq	-32(%rbp), %rax	# i3pat, tmp224
	movq	8(%rax), %rax	# i3pat_50->fld[0].rtvec, D.29088
	movl	-68(%rbp), %edx	# i, tmp226
	movslq	%edx, %rdx	# tmp226, tmp225
	movq	8(%rax,%rdx,8), %rax	# _56->elem, tmp227
	movq	%rax, -24(%rbp)	# tmp227, i3elt
	.loc 1 1006 0
	movq	-24(%rbp), %rax	# i3elt, tmp228
	movzwl	(%rax), %eax	# i3elt_57->code, D.29087
	cmpw	$48, %ax	#, D.29087
	jne	.L74	#,
	.loc 1 1007 0
	movq	-24(%rbp), %rax	# i3elt, tmp229
	movq	8(%rax), %rax	# i3elt_57->fld[0].rtx, D.29085
	movzwl	(%rax), %eax	# _59->code, D.29087
	cmpw	$61, %ax	#, D.29087
	jne	.L74	#,
	.loc 1 1008 0
	movq	-24(%rbp), %rax	# i3elt, tmp230
	movq	8(%rax), %rax	# i3elt_57->fld[0].rtx, D.29085
	movl	8(%rax), %eax	# _61->fld[0].rtuint, D.29089
	cmpl	-60(%rbp), %eax	# regno, D.29089
	jne	.L75	#,
	.loc 1 1009 0
	movq	-88(%rbp), %rax	# insn, tmp231
	movq	16(%rax), %rcx	# insn_17(D)->fld[1].rtx, D.29085
	movq	-40(%rbp), %rax	# elt, tmp232
	movq	8(%rax), %rax	# elt_43->fld[0].rtx, D.29085
	movq	-96(%rbp), %rdx	# i3, tmp233
	movq	%rcx, %rsi	# D.29085,
	movq	%rax, %rdi	# D.29085,
	call	reg_set_between_p	#
	.loc 1 1008 0
	testl	%eax, %eax	# D.29084
	setne	%al	#, iftmp.79
	jmp	.L76	#
.L75:
	.loc 1 1008 0 is_stmt 0 discriminator 1
	cmpl	$52, -60(%rbp)	#, regno
	seta	%al	#, iftmp.79
.L76:
	.loc 1 1008 0 discriminator 2
	testb	%al, %al	# iftmp.79
	je	.L74	#,
	.loc 1 1012 0 is_stmt 1
	movl	$0, %eax	#, D.29084
	jmp	.L77	#
.L74:
.LBE7:
	.loc 1 1014 0
	subl	$1, -68(%rbp)	#, i
	cmpl	$0, -68(%rbp)	#, i
	jns	.L78	#,
.L73:
.LBE6:
	.loc 1 1016 0
	jmp	.L79	#
.L72:
	.loc 1 1025 0
	movq	-40(%rbp), %rax	# elt, tmp234
	movq	8(%rax), %rdx	# elt_43->fld[0].rtx, D.29085
	movq	-88(%rbp), %rax	# insn, tmp235
	movl	$10, %esi	#,
	movq	%rax, %rdi	# tmp235,
	call	find_reg_note	#
	testq	%rax, %rax	# D.29085
	je	.L80	#,
	.loc 1 1026 0
	movq	-40(%rbp), %rax	# elt, tmp236
	movq	%rax, %rdi	# tmp236,
	call	side_effects_p	#
	testl	%eax, %eax	# D.29084
	jne	.L80	#,
	.loc 1 1027 0
	jmp	.L79	#
.L80:
	.loc 1 1031 0
	cmpq	$0, -56(%rbp)	#, set
	je	.L81	#,
	.loc 1 1032 0
	movl	$0, %eax	#, D.29084
	jmp	.L77	#
.L81:
	.loc 1 1034 0
	movq	-40(%rbp), %rax	# elt, tmp237
	movq	%rax, -56(%rbp)	# tmp237, set
	.loc 1 1035 0
	jmp	.L79	#
.L119:
	.loc 1 1039 0
	movl	$0, %eax	#, D.29084
	jmp	.L77	#
.L120:
	.loc 1 1020 0
	nop
.L79:
.LBE5:
	.loc 1 973 0
	addl	$1, -72(%rbp)	#, i
.L68:
	.loc 1 973 0 is_stmt 0 discriminator 1
	movq	-88(%rbp), %rax	# insn, tmp238
	movq	32(%rax), %rax	# insn_17(D)->fld[3].rtx, D.29085
	movq	8(%rax), %rax	# _38->fld[0].rtvec, D.29088
	movl	(%rax), %eax	# _39->num_elem, D.29084
	cmpl	-72(%rbp), %eax	# i, D.29084
	jg	.L82	#,
	.loc 1 1043 0 is_stmt 1
	cmpq	$0, -56(%rbp)	#, set
	je	.L83	#,
	.loc 1 1046 0
	movq	-56(%rbp), %rax	# set, tmp239
	movq	16(%rax), %rax	# set_4->fld[1].rtx, D.29085
	movzwl	(%rax), %eax	# _77->code, D.29087
	cmpw	$41, %ax	#, D.29087
	jne	.L84	#,
.L83:
	.loc 1 1047 0
	movl	$0, %eax	#, D.29084
	jmp	.L77	#
.L84:
	.loc 1 1043 0
	jmp	.L66	#
.L67:
	.loc 1 1050 0
	movl	$0, %eax	#, D.29084
	jmp	.L77	#
.L66:
	.loc 1 1052 0
	cmpq	$0, -56(%rbp)	#, set
	jne	.L85	#,
	.loc 1 1053 0
	movl	$0, %eax	#, D.29084
	jmp	.L77	#
.L85:
	.loc 1 1055 0
	movq	-56(%rbp), %rax	# set, tmp240
	movq	%rax, %rdi	# tmp240,
	call	expand_field_assignment	#
	movq	%rax, -56(%rbp)	# tmp241, set
	.loc 1 1056 0
	movq	-56(%rbp), %rax	# set, tmp242
	movq	16(%rax), %rax	# set_82->fld[1].rtx, tmp243
	movq	%rax, -16(%rbp)	# tmp243, src
	movq	-56(%rbp), %rax	# set, tmp244
	movq	8(%rax), %rax	# set_82->fld[0].rtx, tmp245
	movq	%rax, -8(%rbp)	# tmp245, dest
	.loc 1 1059 0
	movq	global_rtl+16(%rip), %rax	# global_rtl, D.29085
	cmpq	-8(%rbp), %rax	# dest, D.29085
	je	.L86	#,
	.loc 1 1061 0
	movq	-8(%rbp), %rax	# dest, tmp246
	movzwl	(%rax), %eax	# dest_84->code, D.29087
	cmpw	$133, %ax	#, D.29087
	je	.L86	#,
	.loc 1 1061 0 is_stmt 0 discriminator 1
	movq	-8(%rbp), %rax	# dest, tmp247
	movzwl	(%rax), %eax	# dest_84->code, D.29087
	cmpw	$64, %ax	#, D.29087
	je	.L86	#,
	.loc 1 1064 0 is_stmt 1
	movq	-8(%rbp), %rdx	# dest, tmp248
	movq	-16(%rbp), %rax	# src, tmp249
	movq	%rdx, %rsi	# tmp248,
	movq	%rax, %rdi	# tmp249,
	call	rtx_equal_p	#
	testl	%eax, %eax	# D.29084
	je	.L87	#,
	.loc 1 1064 0 is_stmt 0 discriminator 1
	movq	-88(%rbp), %rax	# insn, tmp250
	movl	$0, %edx	#,
	movl	$4, %esi	#,
	movq	%rax, %rdi	# tmp250,
	call	find_reg_note	#
	testq	%rax, %rax	# D.29085
	jne	.L86	#,
.L87:
	.loc 1 1066 0 is_stmt 1
	movq	-16(%rbp), %rax	# src, tmp251
	movzwl	(%rax), %eax	# src_83->code, D.29087
	cmpw	$41, %ax	#, D.29087
	je	.L86	#,
	.loc 1 1068 0
	movq	-16(%rbp), %rax	# src, tmp252
	movzwl	(%rax), %eax	# src_83->code, D.29087
	cmpw	$50, %ax	#, D.29087
	je	.L86	#,
	.loc 1 1070 0
	movq	-96(%rbp), %rax	# i3, tmp253
	movzwl	(%rax), %eax	# i3_20(D)->code, D.29087
	cmpw	$34, %ax	#, D.29087
	jne	.L88	#,
	.loc 1 1071 0
	movq	-8(%rbp), %rdx	# dest, tmp254
	movq	-96(%rbp), %rax	# i3, tmp255
	movl	$48, %esi	#,
	movq	%rax, %rdi	# tmp255,
	call	find_reg_fusage	#
	testl	%eax, %eax	# D.29084
	jne	.L86	#,
	.loc 1 1072 0
	movq	-8(%rbp), %rax	# dest, tmp256
	movzwl	(%rax), %eax	# dest_84->code, D.29087
	cmpw	$61, %ax	#, D.29087
	jne	.L88	#,
	.loc 1 1073 0
	movq	-8(%rbp), %rax	# dest, tmp257
	movl	8(%rax), %eax	# dest_84->fld[0].rtuint, D.29089
	cmpl	$52, %eax	#, D.29089
	ja	.L88	#,
	.loc 1 1074 0
	movq	-8(%rbp), %rax	# dest, tmp258
	movl	8(%rax), %eax	# dest_84->fld[0].rtuint, D.29089
	movl	%eax, %eax	# D.29089, tmp259
	movzbl	global_regs(%rax), %eax	# global_regs, D.29090
	testb	%al, %al	# D.29090
	jne	.L86	#,
.L88:
	.loc 1 1087 0
	cmpq	$0, -112(%rbp)	#, succ
	je	.L89	#,
	.loc 1 1087 0 is_stmt 0 discriminator 1
	cmpl	$0, -64(%rbp)	#, all_adjacent
	jne	.L89	#,
	.loc 1 1088 0 is_stmt 1
	movq	-96(%rbp), %rdx	# i3, tmp260
	movq	-112(%rbp), %rcx	# succ, tmp261
	movq	-8(%rbp), %rax	# dest, tmp262
	movq	%rcx, %rsi	# tmp261,
	movq	%rax, %rdi	# tmp262,
	call	reg_used_between_p	#
	testl	%eax, %eax	# D.29084
	jne	.L86	#,
.L89:
	.loc 1 1098 0
	cmpl	$0, -64(%rbp)	#, all_adjacent
	jne	.L90	#,
	.loc 1 1099 0
	movq	-16(%rbp), %rax	# src, tmp263
	movzwl	(%rax), %eax	# src_83->code, D.29087
	cmpw	$66, %ax	#, D.29087
	jne	.L91	#,
	.loc 1 1100 0
	movq	-16(%rbp), %rdx	# src, tmp264
	movq	-88(%rbp), %rax	# insn, tmp265
	movl	$3, %esi	#,
	movq	%rax, %rdi	# tmp265,
	call	find_reg_note	#
	testq	%rax, %rax	# D.29085
	jne	.L92	#,
.L91:
	.loc 1 1101 0
	movq	-88(%rbp), %rax	# insn, tmp266
	movl	8(%rax), %edx	# insn_17(D)->fld[0].rtint, D.29084
	movl	max_uid_cuid(%rip), %eax	# max_uid_cuid, max_uid_cuid.81
	cmpl	%eax, %edx	# max_uid_cuid.81, D.29084
	jle	.L93	#,
	.loc 1 1101 0 is_stmt 0 discriminator 1
	movq	-88(%rbp), %rax	# insn, tmp267
	movq	%rax, %rdi	# tmp267,
	call	insn_cuid	#
	jmp	.L94	#
.L93:
	.loc 1 1101 0 discriminator 2
	movq	uid_cuid(%rip), %rdx	# uid_cuid, uid_cuid.82
	movq	-88(%rbp), %rax	# insn, tmp268
	movl	8(%rax), %eax	# insn_17(D)->fld[0].rtint, D.29084
	cltq
	salq	$2, %rax	#, D.29091
	addq	%rdx, %rax	# uid_cuid.82, D.29092
	movl	(%rax), %eax	# *_108, iftmp.80
.L94:
	.loc 1 1101 0 discriminator 3
	movq	-16(%rbp), %rdx	# src, tmp269
	movl	%eax, %esi	# iftmp.80,
	movq	%rdx, %rdi	# tmp269,
	call	use_crosses_set_p	#
	testl	%eax, %eax	# D.29084
	jne	.L86	#,
.L92:
	.loc 1 1102 0 is_stmt 1
	movq	-16(%rbp), %rax	# src, tmp270
	movzwl	(%rax), %eax	# src_83->code, D.29087
	cmpw	$41, %ax	#, D.29087
	jne	.L95	#,
	.loc 1 1102 0 is_stmt 0 discriminator 1
	movq	-16(%rbp), %rax	# src, tmp271
	movzbl	3(%rax), %eax	# *src_83, D.29093
	andl	$8, %eax	#, D.29093
	testb	%al, %al	# D.29093
	jne	.L86	#,
.L95:
	.loc 1 1103 0 is_stmt 1
	movq	-16(%rbp), %rax	# src, tmp272
	movzwl	(%rax), %eax	# src_83->code, D.29087
	cmpw	$43, %ax	#, D.29087
	je	.L86	#,
.L90:
	.loc 1 1106 0
	movq	-8(%rbp), %rdx	# dest, tmp273
	movq	-96(%rbp), %rax	# i3, tmp274
	movl	$9, %esi	#,
	movq	%rax, %rdi	# tmp274,
	call	find_reg_note	#
	testq	%rax, %rax	# D.29085
	jne	.L86	#,
	.loc 1 1107 0
	cmpq	$0, -112(%rbp)	#, succ
	je	.L96	#,
	.loc 1 1107 0 is_stmt 0 discriminator 1
	movq	-8(%rbp), %rdx	# dest, tmp275
	movq	-112(%rbp), %rax	# succ, tmp276
	movl	$9, %esi	#,
	movq	%rax, %rdi	# tmp276,
	call	find_reg_note	#
	testq	%rax, %rax	# D.29085
	jne	.L86	#,
.L96:
	.loc 1 1113 0 is_stmt 1
	movq	-88(%rbp), %rax	# insn, tmp277
	movl	8(%rax), %edx	# insn_17(D)->fld[0].rtint, D.29084
	movl	max_uid_cuid(%rip), %eax	# max_uid_cuid, max_uid_cuid.84
	cmpl	%eax, %edx	# max_uid_cuid.84, D.29084
	jle	.L97	#,
	.loc 1 1113 0 is_stmt 0 discriminator 1
	movq	-88(%rbp), %rax	# insn, tmp278
	movq	%rax, %rdi	# tmp278,
	call	insn_cuid	#
	jmp	.L98	#
.L97:
	.loc 1 1113 0 discriminator 2
	movq	uid_cuid(%rip), %rdx	# uid_cuid, uid_cuid.85
	movq	-88(%rbp), %rax	# insn, tmp279
	movl	8(%rax), %eax	# insn_17(D)->fld[0].rtint, D.29084
	cltq
	salq	$2, %rax	#, D.29091
	addq	%rdx, %rax	# uid_cuid.85, D.29092
	movl	(%rax), %eax	# *_124, iftmp.83
.L98:
	.loc 1 1113 0 discriminator 3
	movl	last_call_cuid(%rip), %edx	# last_call_cuid, last_call_cuid.86
	cmpl	%edx, %eax	# last_call_cuid.86, iftmp.83
	jge	.L99	#,
	.loc 1 1113 0 discriminator 1
	movq	-16(%rbp), %rax	# src, tmp280
	movzwl	(%rax), %eax	# src_83->code, D.29087
	cmpw	$67, %ax	#, D.29087
	je	.L99	#,
	movq	-16(%rbp), %rax	# src, tmp281
	movzwl	(%rax), %eax	# src_83->code, D.29087
	cmpw	$68, %ax	#, D.29087
	je	.L99	#,
	movq	-16(%rbp), %rax	# src, tmp282
	movzwl	(%rax), %eax	# src_83->code, D.29087
	cmpw	$54, %ax	#, D.29087
	je	.L99	#,
	movq	-16(%rbp), %rax	# src, tmp283
	movzwl	(%rax), %eax	# src_83->code, D.29087
	cmpw	$55, %ax	#, D.29087
	je	.L99	#,
	movq	-16(%rbp), %rax	# src, tmp284
	movzwl	(%rax), %eax	# src_83->code, D.29087
	cmpw	$58, %ax	#, D.29087
	je	.L99	#,
	movq	-16(%rbp), %rax	# src, tmp285
	movzwl	(%rax), %eax	# src_83->code, D.29087
	cmpw	$134, %ax	#, D.29087
	je	.L99	#,
	movq	-16(%rbp), %rax	# src, tmp286
	movzwl	(%rax), %eax	# src_83->code, D.29087
	cmpw	$56, %ax	#, D.29087
	je	.L99	#,
	movq	-16(%rbp), %rax	# src, tmp287
	movzwl	(%rax), %eax	# src_83->code, D.29087
	cmpw	$140, %ax	#, D.29087
	je	.L99	#,
.L86:
	.loc 1 1114 0 is_stmt 1
	movl	$0, %eax	#, D.29084
	jmp	.L77	#
.L99:
	.loc 1 1117 0
	movq	-8(%rbp), %rax	# dest, tmp288
	movzwl	(%rax), %eax	# dest_84->code, D.29087
	cmpw	$61, %ax	#, D.29087
	jne	.L100	#,
	.loc 1 1128 0
	movq	-16(%rbp), %rax	# src, tmp289
	movzwl	(%rax), %eax	# src_83->code, D.29087
	cmpw	$61, %ax	#, D.29087
	jne	.L101	#,
	.loc 1 1129 0
	movq	-8(%rbp), %rax	# dest, tmp290
	movl	8(%rax), %eax	# dest_84->fld[0].rtuint, D.29089
	cmpl	$52, %eax	#, D.29089
	ja	.L102	#,
	.loc 1 1130 0
	movq	-8(%rbp), %rax	# dest, tmp291
	movzbl	2(%rax), %eax	# dest_84->mode, D.29093
	movzbl	%al, %edx	# D.29093, D.29094
	movq	-8(%rbp), %rax	# dest, tmp292
	movl	8(%rax), %eax	# dest_84->fld[0].rtuint, D.29089
	movl	%edx, %esi	# D.29094,
	movl	%eax, %edi	# D.29084,
	call	ix86_hard_regno_mode_ok	#
	testl	%eax, %eax	# D.29084
	je	.L103	#,
.L102:
	.loc 1 1138 0
	movq	-16(%rbp), %rax	# src, tmp293
	movl	8(%rax), %eax	# src_83->fld[0].rtuint, D.29089
	cmpl	$52, %eax	#, D.29089
	ja	.L101	#,
	.loc 1 1139 0
	movq	-16(%rbp), %rax	# src, tmp294
	movzbl	2(%rax), %eax	# src_83->mode, D.29093
	movzbl	%al, %edx	# D.29093, D.29094
	movq	-16(%rbp), %rax	# src, tmp295
	movl	8(%rax), %eax	# src_83->fld[0].rtuint, D.29089
	movl	%edx, %esi	# D.29094,
	movl	%eax, %edi	# D.29084,
	call	ix86_hard_regno_mode_ok	#
	testl	%eax, %eax	# D.29084
	jne	.L101	#,
.L103:
	.loc 1 1140 0
	movl	$0, %eax	#, D.29084
	jmp	.L77	#
.L100:
	.loc 1 1142 0
	movq	-8(%rbp), %rax	# dest, tmp296
	movzwl	(%rax), %eax	# dest_84->code, D.29087
	cmpw	$69, %ax	#, D.29087
	je	.L101	#,
	.loc 1 1143 0
	movl	$0, %eax	#, D.29084
	jmp	.L77	#
.L101:
	.loc 1 1148 0
	movq	-96(%rbp), %rax	# i3, tmp297
	movq	32(%rax), %rax	# i3_20(D)->fld[3].rtx, D.29085
	movzwl	(%rax), %eax	# _152->code, D.29087
	cmpw	$39, %ax	#, D.29087
	jne	.L104	#,
	.loc 1 1149 0
	movq	-96(%rbp), %rax	# i3, tmp298
	movq	32(%rax), %rax	# i3_20(D)->fld[3].rtx, D.29085
	movq	8(%rax), %rax	# _154->fld[0].rtvec, D.29088
	movl	(%rax), %eax	# _155->num_elem, D.29084
	subl	$1, %eax	#, tmp299
	movl	%eax, -72(%rbp)	# tmp299, i
	jmp	.L105	#
.L108:
	.loc 1 1150 0
	movq	-96(%rbp), %rax	# i3, tmp300
	movq	32(%rax), %rax	# i3_20(D)->fld[3].rtx, D.29085
	movq	8(%rax), %rax	# _158->fld[0].rtvec, D.29088
	movl	-72(%rbp), %edx	# i, tmp302
	movslq	%edx, %rdx	# tmp302, tmp301
	movq	8(%rax,%rdx,8), %rax	# _159->elem, D.29085
	movzwl	(%rax), %eax	# _160->code, D.29087
	cmpw	$49, %ax	#, D.29087
	jne	.L106	#,
	.loc 1 1151 0
	movq	-96(%rbp), %rax	# i3, tmp303
	movq	32(%rax), %rax	# i3_20(D)->fld[3].rtx, D.29085
	movq	8(%rax), %rax	# _162->fld[0].rtvec, D.29088
	movl	-72(%rbp), %edx	# i, tmp305
	movslq	%edx, %rdx	# tmp305, tmp304
	movq	8(%rax,%rdx,8), %rax	# _163->elem, D.29085
	movq	8(%rax), %rax	# _164->fld[0].rtx, D.29085
	movq	-16(%rbp), %rdx	# src, tmp306
	movq	%rdx, %rsi	# tmp306,
	movq	%rax, %rdi	# D.29085,
	call	reg_overlap_mentioned_p	#
	testl	%eax, %eax	# D.29084
	jne	.L107	#,
	.loc 1 1153 0
	movq	-96(%rbp), %rax	# i3, tmp307
	movq	32(%rax), %rax	# i3_20(D)->fld[3].rtx, D.29085
	movq	8(%rax), %rax	# _167->fld[0].rtvec, D.29088
	movl	-72(%rbp), %edx	# i, tmp309
	movslq	%edx, %rdx	# tmp309, tmp308
	movq	8(%rax,%rdx,8), %rax	# _168->elem, D.29085
	movq	8(%rax), %rax	# _169->fld[0].rtx, D.29085
	movq	-8(%rbp), %rdx	# dest, tmp310
	movq	%rdx, %rsi	# tmp310,
	movq	%rax, %rdi	# D.29085,
	call	rtx_equal_p	#
	testl	%eax, %eax	# D.29084
	je	.L106	#,
.L107:
	.loc 1 1154 0
	movl	$0, %eax	#, D.29084
	jmp	.L77	#
.L106:
	.loc 1 1149 0
	subl	$1, -72(%rbp)	#, i
.L105:
	.loc 1 1149 0 is_stmt 0 discriminator 1
	cmpl	$0, -72(%rbp)	#, i
	jns	.L108	#,
.L104:
	.loc 1 1159 0 is_stmt 1
	movq	-16(%rbp), %rax	# src, tmp311
	movzwl	(%rax), %eax	# src_83->code, D.29087
	cmpw	$41, %ax	#, D.29087
	je	.L109	#,
	.loc 1 1159 0 is_stmt 0 discriminator 1
	movq	-16(%rbp), %rax	# src, tmp312
	movq	%rax, %rdi	# tmp312,
	call	volatile_refs_p	#
	testl	%eax, %eax	# D.29084
	je	.L110	#,
.L109:
	.loc 1 1162 0 is_stmt 1
	cmpq	$0, -112(%rbp)	#, succ
	je	.L111	#,
	.loc 1 1162 0 is_stmt 0 discriminator 1
	movq	-112(%rbp), %rax	# succ, tmp313
	movq	32(%rax), %rax	# succ_16(D)->fld[3].rtx, D.29085
	movq	%rax, %rdi	# D.29085,
	call	volatile_refs_p	#
	testl	%eax, %eax	# D.29084
	je	.L111	#,
	.loc 1 1163 0 is_stmt 1
	movl	$0, %eax	#, D.29084
	jmp	.L77	#
.L111:
	.loc 1 1165 0
	movq	-88(%rbp), %rax	# insn, tmp314
	movq	24(%rax), %rax	# insn_17(D)->fld[2].rtx, tmp315
	movq	%rax, -48(%rbp)	# tmp315, p
	jmp	.L112	#
.L114:
	.loc 1 1166 0
	movq	-48(%rbp), %rax	# p, tmp316
	movzwl	(%rax), %eax	# p_6->code, D.29087
	movzwl	%ax, %eax	# D.29087, D.29084
	cltq
	movzbl	rtx_class(%rax), %eax	# rtx_class, D.29090
	cmpb	$105, %al	#, D.29090
	jne	.L113	#,
	.loc 1 1166 0 is_stmt 0 discriminator 1
	movq	-48(%rbp), %rax	# p, tmp318
	cmpq	-112(%rbp), %rax	# succ, tmp318
	je	.L113	#,
	movq	-48(%rbp), %rax	# p, tmp319
	movq	32(%rax), %rax	# p_6->fld[3].rtx, D.29085
	movq	%rax, %rdi	# D.29085,
	call	volatile_refs_p	#
	testl	%eax, %eax	# D.29084
	je	.L113	#,
	.loc 1 1167 0 is_stmt 1
	movl	$0, %eax	#, D.29084
	jmp	.L77	#
.L113:
	.loc 1 1165 0
	movq	-48(%rbp), %rax	# p, tmp320
	movq	24(%rax), %rax	# p_6->fld[2].rtx, tmp321
	movq	%rax, -48(%rbp)	# tmp321, p
.L112:
	.loc 1 1165 0 is_stmt 0 discriminator 1
	movq	-48(%rbp), %rax	# p, tmp322
	cmpq	-96(%rbp), %rax	# i3, tmp322
	jne	.L114	#,
.L110:
	.loc 1 1173 0 is_stmt 1
	movq	-16(%rbp), %rax	# src, tmp323
	movzwl	(%rax), %eax	# src_83->code, D.29087
	cmpw	$41, %ax	#, D.29087
	jne	.L115	#,
	.loc 1 1174 0
	movq	-8(%rbp), %rax	# dest, tmp324
	movzwl	(%rax), %eax	# dest_84->code, D.29087
	cmpw	$61, %ax	#, D.29087
	jne	.L115	#,
	.loc 1 1174 0 is_stmt 0 discriminator 1
	movq	-8(%rbp), %rax	# dest, tmp325
	movl	8(%rax), %eax	# dest_84->fld[0].rtuint, D.29089
	cmpl	$52, %eax	#, D.29089
	ja	.L115	#,
	.loc 1 1175 0 is_stmt 1
	movl	$0, %eax	#, D.29084
	jmp	.L77	#
.L115:
	.loc 1 1180 0
	movq	-88(%rbp), %rax	# insn, tmp326
	movq	24(%rax), %rax	# insn_17(D)->fld[2].rtx, tmp327
	movq	%rax, -48(%rbp)	# tmp327, p
	jmp	.L116	#
.L118:
	.loc 1 1181 0
	movq	-48(%rbp), %rax	# p, tmp328
	movzwl	(%rax), %eax	# p_7->code, D.29087
	movzwl	%ax, %eax	# D.29087, D.29084
	cltq
	movzbl	rtx_class(%rax), %eax	# rtx_class, D.29090
	cmpb	$105, %al	#, D.29090
	jne	.L117	#,
	.loc 1 1181 0 is_stmt 0 discriminator 1
	movq	-48(%rbp), %rax	# p, tmp330
	cmpq	-112(%rbp), %rax	# succ, tmp330
	je	.L117	#,
	movq	-48(%rbp), %rax	# p, tmp331
	movq	32(%rax), %rax	# p_7->fld[3].rtx, D.29085
	movq	%rax, %rdi	# D.29085,
	call	volatile_insn_p	#
	testl	%eax, %eax	# D.29084
	je	.L117	#,
	.loc 1 1182 0 is_stmt 1
	movl	$0, %eax	#, D.29084
	jmp	.L77	#
.L117:
	.loc 1 1180 0
	movq	-48(%rbp), %rax	# p, tmp332
	movq	24(%rax), %rax	# p_7->fld[2].rtx, tmp333
	movq	%rax, -48(%rbp)	# tmp333, p
.L116:
	.loc 1 1180 0 is_stmt 0 discriminator 1
	movq	-48(%rbp), %rax	# p, tmp334
	cmpq	-96(%rbp), %rax	# i3, tmp334
	jne	.L118	#,
	.loc 1 1218 0 is_stmt 1
	movq	-120(%rbp), %rax	# pdest, tmp335
	movq	-8(%rbp), %rdx	# dest, tmp336
	movq	%rdx, (%rax)	# tmp336, *pdest_199(D)
	.loc 1 1219 0
	movq	-128(%rbp), %rax	# psrc, tmp337
	movq	-16(%rbp), %rdx	# src, tmp338
	movq	%rdx, (%rax)	# tmp338, *psrc_200(D)
	.loc 1 1221 0
	movl	$1, %eax	#, D.29084
.L77:
	.loc 1 1222 0
	leave
	.cfi_def_cfa 7, 8
	ret
	.cfi_endproc
.LFE8:
	.size	can_combine_p, .-can_combine_p
	.type	sets_function_arg_p, @function
sets_function_arg_p:
.LFB9:
	.loc 1 1230 0
	.cfi_startproc
	pushq	%rbp	#
	.cfi_def_cfa_offset 16
	.cfi_offset 6, -16
	movq	%rsp, %rbp	#,
	.cfi_def_cfa_register 6
	subq	$32, %rsp	#,
	movq	%rdi, -24(%rbp)	# pat, pat
	.loc 1 1234 0
	movq	-24(%rbp), %rax	# pat, tmp77
	movzwl	(%rax), %eax	# pat_5(D)->code, D.29096
	movzwl	%ax, %eax	# D.29096, D.29097
	cmpl	$39, %eax	#, D.29097
	je	.L123	#,
	cmpl	$47, %eax	#, D.29097
	je	.L124	#,
	cmpl	$32, %eax	#, D.29097
	je	.L125	#,
	.loc 1 1258 0
	jmp	.L129	#
.L125:
	.loc 1 1237 0
	movq	-24(%rbp), %rax	# pat, tmp78
	movq	32(%rax), %rax	# pat_5(D)->fld[3].rtx, D.29098
	movq	%rax, %rdi	# D.29098,
	call	sets_function_arg_p	#
	jmp	.L126	#
.L123:
	.loc 1 1240 0
	movq	-24(%rbp), %rax	# pat, tmp79
	movq	8(%rax), %rax	# pat_5(D)->fld[0].rtvec, D.29099
	movl	(%rax), %eax	# _10->num_elem, tmp80
	movl	%eax, -12(%rbp)	# tmp80, i
	jmp	.L127	#
.L128:
	.loc 1 1241 0
	movq	-24(%rbp), %rax	# pat, tmp81
	movq	8(%rax), %rax	# pat_5(D)->fld[0].rtvec, D.29099
	movl	-12(%rbp), %edx	# i, tmp83
	movslq	%edx, %rdx	# tmp83, tmp82
	movq	8(%rax,%rdx,8), %rax	# _13->elem, D.29098
	movq	%rax, %rdi	# D.29098,
	call	sets_function_arg_p	#
	testl	%eax, %eax	# D.29095
	je	.L127	#,
	.loc 1 1242 0
	movl	$1, %eax	#, D.29095
	jmp	.L126	#
.L127:
	.loc 1 1240 0 discriminator 1
	subl	$1, -12(%rbp)	#, i
	cmpl	$0, -12(%rbp)	#, i
	jns	.L128	#,
	.loc 1 1244 0
	jmp	.L129	#
.L124:
	.loc 1 1247 0
	movq	-24(%rbp), %rax	# pat, tmp84
	movq	8(%rax), %rax	# pat_5(D)->fld[0].rtx, tmp85
	movq	%rax, -8(%rbp)	# tmp85, inner_dest
	.loc 1 1248 0
	jmp	.L130	#
.L131:
	.loc 1 1251 0
	movq	-8(%rbp), %rax	# inner_dest, tmp86
	movq	8(%rax), %rax	# inner_dest_2->fld[0].rtx, tmp87
	movq	%rax, -8(%rbp)	# tmp87, inner_dest
.L130:
	.loc 1 1248 0 discriminator 1
	movq	-8(%rbp), %rax	# inner_dest, tmp88
	movzwl	(%rax), %eax	# inner_dest_2->code, D.29096
	cmpw	$64, %ax	#, D.29096
	je	.L131	#,
	.loc 1 1249 0
	movq	-8(%rbp), %rax	# inner_dest, tmp89
	movzwl	(%rax), %eax	# inner_dest_2->code, D.29096
	cmpw	$63, %ax	#, D.29096
	je	.L131	#,
	.loc 1 1250 0
	movq	-8(%rbp), %rax	# inner_dest, tmp90
	movzwl	(%rax), %eax	# inner_dest_2->code, D.29096
	cmpw	$133, %ax	#, D.29096
	je	.L131	#,
	.loc 1 1253 0
	movq	-8(%rbp), %rax	# inner_dest, tmp91
	movzwl	(%rax), %eax	# inner_dest_2->code, D.29096
	.loc 1 1255 0
	cmpw	$61, %ax	#, D.29096
	jne	.L132	#,
	.loc 1 1254 0
	movq	-8(%rbp), %rax	# inner_dest, tmp92
	movl	8(%rax), %eax	# inner_dest_2->fld[0].rtuint, D.29097
	cmpl	$52, %eax	#, D.29097
	ja	.L132	#,
	.loc 1 1255 0
	movq	-8(%rbp), %rax	# inner_dest, tmp93
	movl	8(%rax), %eax	# inner_dest_2->fld[0].rtuint, D.29097
	movl	%eax, %edi	# D.29095,
	call	ix86_function_arg_regno_p	#
	testb	%al, %al	# D.29100
	je	.L132	#,
	.loc 1 1255 0 is_stmt 0 discriminator 2
	movl	$1, %eax	#, iftmp.87
	jmp	.L133	#
.L132:
	.loc 1 1255 0 discriminator 1
	movl	$0, %eax	#, iftmp.87
.L133:
	.loc 1 1253 0 is_stmt 1
	jmp	.L126	#
.L129:
	.loc 1 1261 0
	movl	$0, %eax	#, D.29095
.L126:
	.loc 1 1262 0
	leave
	.cfi_def_cfa 7, 8
	ret
	.cfi_endproc
.LFE9:
	.size	sets_function_arg_p, .-sets_function_arg_p
	.type	combinable_i3pat, @function
combinable_i3pat:
.LFB10:
	.loc 1 1309 0
	.cfi_startproc
	pushq	%rbp	#
	.cfi_def_cfa_offset 16
	.cfi_offset 6, -16
	movq	%rsp, %rbp	#,
	.cfi_def_cfa_register 6
	subq	$96, %rsp	#,
	movq	%rdi, -56(%rbp)	# i3, i3
	movq	%rsi, -64(%rbp)	# loc, loc
	movq	%rdx, -72(%rbp)	# i2dest, i2dest
	movq	%rcx, -80(%rbp)	# i1dest, i1dest
	movl	%r8d, -84(%rbp)	# i1_not_in_src, i1_not_in_src
	movq	%r9, -96(%rbp)	# pi3dest_killed, pi3dest_killed
	.loc 1 1310 0
	movq	-64(%rbp), %rax	# loc, tmp91
	movq	(%rax), %rax	# *loc_4(D), tmp92
	movq	%rax, -32(%rbp)	# tmp92, x
	.loc 1 1312 0
	movq	-32(%rbp), %rax	# x, tmp93
	movzwl	(%rax), %eax	# x_5->code, D.29102
	cmpw	$47, %ax	#, D.29102
	jne	.L135	#,
.LBB8:
	.loc 1 1314 0
	movq	-32(%rbp), %rax	# x, tmp94
	movq	%rax, %rdi	# tmp94,
	call	expand_field_assignment	#
	movq	%rax, -24(%rbp)	# tmp95, set
	.loc 1 1315 0
	movq	-24(%rbp), %rax	# set, tmp96
	movq	8(%rax), %rax	# set_7->fld[0].rtx, tmp97
	movq	%rax, -16(%rbp)	# tmp97, dest
	.loc 1 1316 0
	movq	-24(%rbp), %rax	# set, tmp98
	movq	16(%rax), %rax	# set_7->fld[1].rtx, tmp99
	movq	%rax, -8(%rbp)	# tmp99, src
	.loc 1 1317 0
	movq	-16(%rbp), %rax	# dest, tmp100
	movq	%rax, -40(%rbp)	# tmp100, inner_dest
	.loc 1 1323 0
	movq	-24(%rbp), %rdx	# set, tmp101
	movq	-64(%rbp), %rax	# loc, tmp102
	movq	%rdx, %rsi	# tmp101,
	movq	%rax, %rdi	# tmp102,
	call	do_SUBST	#
	.loc 1 1325 0
	jmp	.L136	#
.L137:
	.loc 1 1328 0
	movq	-40(%rbp), %rax	# inner_dest, tmp103
	movq	8(%rax), %rax	# inner_dest_1->fld[0].rtx, tmp104
	movq	%rax, -40(%rbp)	# tmp104, inner_dest
.L136:
	.loc 1 1325 0 discriminator 1
	movq	-40(%rbp), %rax	# inner_dest, tmp105
	movzwl	(%rax), %eax	# inner_dest_1->code, D.29102
	cmpw	$64, %ax	#, D.29102
	je	.L137	#,
	.loc 1 1326 0
	movq	-40(%rbp), %rax	# inner_dest, tmp106
	movzwl	(%rax), %eax	# inner_dest_1->code, D.29102
	cmpw	$63, %ax	#, D.29102
	je	.L137	#,
	.loc 1 1327 0
	movq	-40(%rbp), %rax	# inner_dest, tmp107
	movzwl	(%rax), %eax	# inner_dest_1->code, D.29102
	cmpw	$133, %ax	#, D.29102
	je	.L137	#,
	.loc 1 1356 0
	movq	-40(%rbp), %rax	# inner_dest, tmp108
	cmpq	-16(%rbp), %rax	# dest, tmp108
	je	.L138	#,
	.loc 1 1357 0
	movq	-40(%rbp), %rdx	# inner_dest, tmp109
	movq	-72(%rbp), %rax	# i2dest, tmp110
	movq	%rdx, %rsi	# tmp109,
	movq	%rax, %rdi	# tmp110,
	call	reg_overlap_mentioned_p	#
	testl	%eax, %eax	# D.29101
	jne	.L139	#,
	.loc 1 1358 0
	cmpq	$0, -80(%rbp)	#, i1dest
	je	.L138	#,
	.loc 1 1358 0 is_stmt 0 discriminator 1
	movq	-40(%rbp), %rdx	# inner_dest, tmp111
	movq	-80(%rbp), %rax	# i1dest, tmp112
	movq	%rdx, %rsi	# tmp111,
	movq	%rax, %rdi	# tmp112,
	call	reg_overlap_mentioned_p	#
	testl	%eax, %eax	# D.29101
	jne	.L139	#,
.L138:
	.loc 1 1370 0 is_stmt 1
	movq	-40(%rbp), %rax	# inner_dest, tmp113
	movzwl	(%rax), %eax	# inner_dest_1->code, D.29102
	cmpw	$61, %ax	#, D.29102
	jne	.L140	#,
	.loc 1 1371 0
	movq	-40(%rbp), %rax	# inner_dest, tmp114
	movl	8(%rax), %eax	# inner_dest_1->fld[0].rtuint, D.29103
	cmpl	$52, %eax	#, D.29103
	ja	.L140	#,
	.loc 1 1372 0
	movq	-40(%rbp), %rax	# inner_dest, tmp115
	movzbl	2(%rax), %eax	# inner_dest_1->mode, D.29104
	movzbl	%al, %edx	# D.29104, D.29105
	movq	-40(%rbp), %rax	# inner_dest, tmp116
	movl	8(%rax), %eax	# inner_dest_1->fld[0].rtuint, D.29103
	movl	%edx, %esi	# D.29105,
	movl	%eax, %edi	# D.29101,
	call	ix86_hard_regno_mode_ok	#
	testl	%eax, %eax	# D.29101
	je	.L139	#,
.L140:
	.loc 1 1374 0
	cmpl	$0, -84(%rbp)	#, i1_not_in_src
	je	.L141	#,
	.loc 1 1374 0 is_stmt 0 discriminator 1
	movq	-8(%rbp), %rdx	# src, tmp117
	movq	-80(%rbp), %rax	# i1dest, tmp118
	movq	%rdx, %rsi	# tmp117,
	movq	%rax, %rdi	# tmp118,
	call	reg_overlap_mentioned_p	#
	testl	%eax, %eax	# D.29101
	je	.L141	#,
.L139:
	.loc 1 1375 0 is_stmt 1
	movl	$0, %eax	#, D.29101
	jmp	.L142	#
.L141:
	.loc 1 1382 0
	cmpq	$0, -96(%rbp)	#, pi3dest_killed
	je	.L143	#,
	.loc 1 1382 0 is_stmt 0 discriminator 1
	movq	-16(%rbp), %rax	# dest, tmp119
	movzwl	(%rax), %eax	# dest_8->code, D.29102
	cmpw	$61, %ax	#, D.29102
	jne	.L143	#,
	.loc 1 1383 0 is_stmt 1
	movq	-56(%rbp), %rax	# i3, tmp120
	movq	32(%rax), %rdx	# i3_29(D)->fld[3].rtx, D.29106
	movq	-16(%rbp), %rax	# dest, tmp121
	movq	%rdx, %rsi	# D.29106,
	movq	%rax, %rdi	# tmp121,
	call	reg_referenced_p	#
	testl	%eax, %eax	# D.29101
	je	.L143	#,
	.loc 1 1384 0
	movq	-16(%rbp), %rax	# dest, tmp122
	movl	8(%rax), %eax	# dest_8->fld[0].rtuint, D.29103
	cmpl	$20, %eax	#, D.29103
	je	.L143	#,
	.loc 1 1386 0
	movq	-16(%rbp), %rax	# dest, tmp123
	movl	8(%rax), %eax	# dest_8->fld[0].rtuint, D.29103
	cmpl	$6, %eax	#, D.29103
	je	.L143	#,
	.loc 1 1389 0
	movq	-16(%rbp), %rax	# dest, tmp124
	movl	8(%rax), %eax	# dest_8->fld[0].rtuint, D.29103
	cmpl	$16, %eax	#, D.29103
	jne	.L144	#,
	.loc 1 1390 0
	movq	-16(%rbp), %rax	# dest, tmp125
	movl	8(%rax), %eax	# dest_8->fld[0].rtuint, D.29103
	movl	%eax, %eax	# D.29103, tmp126
	movzbl	fixed_regs(%rax), %eax	# fixed_regs, D.29107
	testb	%al, %al	# D.29107
	jne	.L143	#,
.L144:
	.loc 1 1392 0
	movq	-16(%rbp), %rax	# dest, tmp127
	movl	8(%rax), %eax	# dest_8->fld[0].rtuint, D.29103
	cmpl	$7, %eax	#, D.29103
	je	.L143	#,
	.loc 1 1394 0
	movq	-96(%rbp), %rax	# pi3dest_killed, tmp128
	movq	(%rax), %rax	# *pi3dest_killed_27(D), D.29106
	testq	%rax, %rax	# D.29106
	je	.L145	#,
	.loc 1 1395 0
	movl	$0, %eax	#, D.29101
	jmp	.L142	#
.L145:
	.loc 1 1397 0
	movq	-96(%rbp), %rax	# pi3dest_killed, tmp129
	movq	-16(%rbp), %rdx	# dest, tmp130
	movq	%rdx, (%rax)	# tmp130, *pi3dest_killed_27(D)
.LBE8:
	jmp	.L146	#
.L143:
	jmp	.L146	#
.L135:
	.loc 1 1401 0
	movq	-32(%rbp), %rax	# x, tmp131
	movzwl	(%rax), %eax	# x_5->code, D.29102
	cmpw	$39, %ax	#, D.29102
	jne	.L146	#,
.LBB9:
	.loc 1 1405 0
	movl	$0, -44(%rbp)	#, i
	jmp	.L147	#
.L149:
	.loc 1 1406 0
	movq	-32(%rbp), %rax	# x, tmp132
	movq	8(%rax), %rax	# x_5->fld[0].rtvec, D.29108
	movl	-44(%rbp), %edx	# i, tmp134
	movslq	%edx, %rdx	# tmp134, tmp133
	salq	$3, %rdx	#, tmp135
	addq	%rdx, %rax	# tmp135, tmp136
	leaq	8(%rax), %rsi	#, D.29109
	movq	-96(%rbp), %r8	# pi3dest_killed, tmp137
	movl	-84(%rbp), %edi	# i1_not_in_src, tmp138
	movq	-80(%rbp), %rcx	# i1dest, tmp139
	movq	-72(%rbp), %rdx	# i2dest, tmp140
	movq	-56(%rbp), %rax	# i3, tmp141
	movq	%r8, %r9	# tmp137,
	movl	%edi, %r8d	# tmp138,
	movq	%rax, %rdi	# tmp141,
	call	combinable_i3pat	#
	testl	%eax, %eax	# D.29101
	jne	.L148	#,
	.loc 1 1408 0
	movl	$0, %eax	#, D.29101
	jmp	.L142	#
.L148:
	.loc 1 1405 0
	addl	$1, -44(%rbp)	#, i
.L147:
	.loc 1 1405 0 is_stmt 0 discriminator 1
	movq	-32(%rbp), %rax	# x, tmp142
	movq	8(%rax), %rax	# x_5->fld[0].rtvec, D.29108
	movl	(%rax), %eax	# _44->num_elem, D.29101
	cmpl	-44(%rbp), %eax	# i, D.29101
	jg	.L149	#,
.L146:
.LBE9:
	.loc 1 1411 0 is_stmt 1
	movl	$1, %eax	#, D.29101
.L142:
	.loc 1 1412 0
	leave
	.cfi_def_cfa 7, 8
	ret
	.cfi_endproc
.LFE10:
	.size	combinable_i3pat, .-combinable_i3pat
	.type	contains_muldiv, @function
contains_muldiv:
.LFB11:
	.loc 1 1420 0
	.cfi_startproc
	pushq	%rbp	#
	.cfi_def_cfa_offset 16
	.cfi_offset 6, -16
	movq	%rsp, %rbp	#,
	.cfi_def_cfa_register 6
	subq	$16, %rsp	#,
	movq	%rdi, -8(%rbp)	# x, x
	.loc 1 1421 0
	movq	-8(%rbp), %rax	# x, tmp80
	movzwl	(%rax), %eax	# x_4(D)->code, D.29111
	movzwl	%ax, %eax	# D.29111, D.29112
	cmpl	$78, %eax	#, D.29112
	je	.L152	#,
	cmpl	$78, %eax	#, D.29112
	jb	.L151	#,
	cmpl	$82, %eax	#, D.29112
	ja	.L151	#,
	.loc 1 1424 0
	movl	$1, %eax	#, D.29110
	jmp	.L154	#
.L152:
	.loc 1 1427 0
	movq	-8(%rbp), %rax	# x, tmp81
	movq	16(%rax), %rax	# x_4(D)->fld[1].rtx, D.29113
	movzwl	(%rax), %eax	# _8->code, D.29111
	cmpw	$54, %ax	#, D.29111
	jne	.L155	#,
	.loc 1 1428 0 discriminator 2
	movq	-8(%rbp), %rax	# x, tmp82
	movq	16(%rax), %rax	# x_4(D)->fld[1].rtx, D.29113
	movq	8(%rax), %rax	# _10->fld[0].rtwint, D.29114
	movq	%rax, %rdi	# D.29115,
	call	exact_log2_wide	#
	.loc 1 1427 0 discriminator 2
	testl	%eax, %eax	# D.29110
	jns	.L156	#,
.L155:
	.loc 1 1427 0 is_stmt 0 discriminator 1
	movl	$1, %eax	#, iftmp.88
	jmp	.L157	#
.L156:
	.loc 1 1427 0 discriminator 3
	movl	$0, %eax	#, iftmp.88
.L157:
	.loc 1 1427 0 discriminator 4
	jmp	.L154	#
.L151:
	.loc 1 1430 0 is_stmt 1
	movq	-8(%rbp), %rax	# x, tmp83
	movzwl	(%rax), %eax	# x_4(D)->code, D.29111
	movzwl	%ax, %eax	# D.29111, D.29110
	cltq
	movzbl	rtx_class(%rax), %eax	# rtx_class, D.29116
	movsbl	%al, %eax	# D.29116, D.29110
	cmpl	$50, %eax	#, D.29110
	je	.L159	#,
	cmpl	$50, %eax	#, D.29110
	jg	.L160	#,
	cmpl	$49, %eax	#, D.29110
	je	.L161	#,
	jmp	.L158	#
.L160:
	cmpl	$60, %eax	#, D.29110
	je	.L159	#,
	cmpl	$99, %eax	#, D.29110
	jne	.L158	#,
.L159:
	.loc 1 1433 0
	movq	-8(%rbp), %rax	# x, tmp85
	movq	8(%rax), %rax	# x_4(D)->fld[0].rtx, D.29113
	movq	%rax, %rdi	# D.29113,
	call	contains_muldiv	#
	.loc 1 1434 0
	testl	%eax, %eax	# D.29110
	jne	.L162	#,
	.loc 1 1434 0 is_stmt 0 discriminator 2
	movq	-8(%rbp), %rax	# x, tmp86
	movq	16(%rax), %rax	# x_4(D)->fld[1].rtx, D.29113
	movq	%rax, %rdi	# D.29113,
	call	contains_muldiv	#
	testl	%eax, %eax	# D.29110
	je	.L163	#,
.L162:
	.loc 1 1434 0 discriminator 1
	movl	$1, %eax	#, iftmp.89
	jmp	.L164	#
.L163:
	.loc 1 1434 0 discriminator 3
	movl	$0, %eax	#, iftmp.89
.L164:
	.loc 1 1433 0 is_stmt 1
	jmp	.L154	#
.L161:
	.loc 1 1437 0
	movq	-8(%rbp), %rax	# x, tmp87
	movq	8(%rax), %rax	# x_4(D)->fld[0].rtx, D.29113
	movq	%rax, %rdi	# D.29113,
	call	contains_muldiv	#
	jmp	.L154	#
.L158:
	.loc 1 1440 0
	movl	$0, %eax	#, D.29110
.L154:
	.loc 1 1443 0
	leave
	.cfi_def_cfa 7, 8
	ret
	.cfi_endproc
.LFE11:
	.size	contains_muldiv, .-contains_muldiv
	.type	cant_combine_insn_p, @function
cant_combine_insn_p:
.LFB12:
	.loc 1 1452 0
	.cfi_startproc
	pushq	%rbp	#
	.cfi_def_cfa_offset 16
	.cfi_offset 6, -16
	movq	%rsp, %rbp	#,
	.cfi_def_cfa_register 6
	subq	$48, %rsp	#,
	movq	%rdi, -40(%rbp)	# insn, insn
	.loc 1 1459 0
	movq	-40(%rbp), %rax	# insn, tmp82
	movzwl	(%rax), %eax	# insn_6(D)->code, D.29119
	movzwl	%ax, %eax	# D.29119, D.29118
	cltq
	movzbl	rtx_class(%rax), %eax	# rtx_class, D.29120
	cmpb	$105, %al	#, D.29120
	je	.L166	#,
	.loc 1 1460 0
	movl	$1, %eax	#, D.29118
	jmp	.L167	#
.L166:
	.loc 1 1469 0
	movq	-40(%rbp), %rax	# insn, tmp84
	movzwl	(%rax), %eax	# insn_6(D)->code, D.29119
	movzwl	%ax, %eax	# D.29119, D.29118
	cltq
	movzbl	rtx_class(%rax), %eax	# rtx_class, D.29120
	cmpb	$105, %al	#, D.29120
	jne	.L168	#,
	.loc 1 1469 0 is_stmt 0 discriminator 1
	movq	-40(%rbp), %rax	# insn, tmp86
	movq	32(%rax), %rax	# insn_6(D)->fld[3].rtx, D.29121
	movzwl	(%rax), %eax	# _14->code, D.29119
	cmpw	$47, %ax	#, D.29119
	jne	.L169	#,
	.loc 1 1469 0 discriminator 3
	movq	-40(%rbp), %rax	# insn, tmp87
	movq	32(%rax), %rax	# insn_6(D)->fld[3].rtx, iftmp.91
	jmp	.L171	#
.L169:
	.loc 1 1469 0 discriminator 4
	movq	-40(%rbp), %rax	# insn, tmp88
	movq	32(%rax), %rdx	# insn_6(D)->fld[3].rtx, D.29121
	movq	-40(%rbp), %rax	# insn, tmp89
	movq	%rdx, %rsi	# D.29121,
	movq	%rax, %rdi	# tmp89,
	call	single_set_2	#
	jmp	.L171	#
.L168:
	.loc 1 1469 0 discriminator 2
	movl	$0, %eax	#, iftmp.90
.L171:
	.loc 1 1469 0 discriminator 5
	movq	%rax, -8(%rbp)	# iftmp.90, set
	.loc 1 1470 0 is_stmt 1 discriminator 5
	cmpq	$0, -8(%rbp)	#, set
	jne	.L172	#,
	.loc 1 1471 0
	movl	$0, %eax	#, D.29118
	jmp	.L167	#
.L172:
	.loc 1 1472 0
	movq	-8(%rbp), %rax	# set, tmp90
	movq	16(%rax), %rax	# set_21->fld[1].rtx, tmp91
	movq	%rax, -24(%rbp)	# tmp91, src
	.loc 1 1473 0
	movq	-8(%rbp), %rax	# set, tmp92
	movq	8(%rax), %rax	# set_21->fld[0].rtx, tmp93
	movq	%rax, -16(%rbp)	# tmp93, dest
	.loc 1 1474 0
	movq	-24(%rbp), %rax	# src, tmp94
	movzwl	(%rax), %eax	# src_23->code, D.29119
	cmpw	$63, %ax	#, D.29119
	jne	.L173	#,
	.loc 1 1475 0
	movq	-24(%rbp), %rax	# src, tmp95
	movq	8(%rax), %rax	# src_23->fld[0].rtx, tmp96
	movq	%rax, -24(%rbp)	# tmp96, src
.L173:
	.loc 1 1476 0
	movq	-16(%rbp), %rax	# dest, tmp97
	movzwl	(%rax), %eax	# dest_24->code, D.29119
	cmpw	$63, %ax	#, D.29119
	jne	.L174	#,
	.loc 1 1477 0
	movq	-16(%rbp), %rax	# dest, tmp98
	movq	8(%rax), %rax	# dest_24->fld[0].rtx, tmp99
	movq	%rax, -16(%rbp)	# tmp99, dest
.L174:
	.loc 1 1478 0
	movq	-24(%rbp), %rax	# src, tmp100
	movzwl	(%rax), %eax	# src_1->code, D.29119
	cmpw	$61, %ax	#, D.29119
	jne	.L175	#,
	.loc 1 1478 0 is_stmt 0 discriminator 1
	movq	-16(%rbp), %rax	# dest, tmp101
	movzwl	(%rax), %eax	# dest_2->code, D.29119
	cmpw	$61, %ax	#, D.29119
	jne	.L175	#,
	.loc 1 1479 0 is_stmt 1
	movq	-24(%rbp), %rax	# src, tmp102
	movl	8(%rax), %eax	# src_1->fld[0].rtuint, D.29122
	cmpl	$52, %eax	#, D.29122
	ja	.L176	#,
	.loc 1 1480 0
	movq	-24(%rbp), %rax	# src, tmp103
	movl	8(%rax), %eax	# src_1->fld[0].rtuint, D.29122
	movl	%eax, %eax	# D.29122, tmp104
	movzbl	fixed_regs(%rax), %eax	# fixed_regs, D.29120
	testb	%al, %al	# D.29120
	je	.L177	#,
.L176:
	.loc 1 1481 0
	movq	-16(%rbp), %rax	# dest, tmp105
	movl	8(%rax), %eax	# dest_2->fld[0].rtuint, D.29122
	cmpl	$52, %eax	#, D.29122
	ja	.L175	#,
	.loc 1 1482 0
	movq	-16(%rbp), %rax	# dest, tmp106
	movl	8(%rax), %eax	# dest_2->fld[0].rtuint, D.29122
	movl	%eax, %eax	# D.29122, tmp107
	movzbl	fixed_regs(%rax), %eax	# fixed_regs, D.29120
	testb	%al, %al	# D.29120
	jne	.L175	#,
.L177:
	.loc 1 1483 0
	movl	$1, %eax	#, D.29118
	jmp	.L167	#
.L175:
	.loc 1 1485 0
	movl	$0, %eax	#, D.29118
.L167:
	.loc 1 1486 0
	leave
	.cfi_def_cfa 7, 8
	ret
	.cfi_endproc
.LFE12:
	.size	cant_combine_insn_p, .-cant_combine_insn_p
	.type	try_combine, @function
try_combine:
.LFB13:
	.loc 1 1508 0
	.cfi_startproc
	pushq	%rbp	#
	.cfi_def_cfa_offset 16
	.cfi_offset 6, -16
	movq	%rsp, %rbp	#,
	.cfi_def_cfa_register 6
	pushq	%rbx	#
	subq	$584, %rsp	#,
	.cfi_offset 3, -24
	movq	%rdi, -536(%rbp)	# i3, i3
	movq	%rsi, -544(%rbp)	# i2, i2
	movq	%rdx, -552(%rbp)	# i1, i1
	movq	%rcx, -560(%rbp)	# new_direct_jump_p, new_direct_jump_p
	.loc 1 1510 0
	movq	$0, -416(%rbp)	#, newi2pat
	.loc 1 1511 0
	movl	$0, -516(%rbp)	#, substed_i2
	movl	$0, -512(%rbp)	#, substed_i1
	.loc 1 1519 0
	movl	$0, -492(%rbp)	#, i2_code_number
	movl	$0, -488(%rbp)	#, other_code_number
	.loc 1 1523 0
	movq	$0, -408(%rbp)	#, i3dest_killed
	.loc 1 1525 0
	movq	$0, -384(%rbp)	#, i1dest
	movq	$0, -376(%rbp)	#, i1src
	.loc 1 1529 0
	movl	$0, -484(%rbp)	#, i2dest_in_i2src
	movl	$0, -480(%rbp)	#, i1dest_in_i1src
	movl	$0, -476(%rbp)	#, i2dest_in_i1src
	.loc 1 1530 0
	movl	$0, -456(%rbp)	#, i1_feeds_i3
	.loc 1 1534 0
	movl	$0, -472(%rbp)	#, i3_subst_into_i2
	.loc 1 1536 0
	movl	$0, -468(%rbp)	#, have_mult
	.loc 1 1545 0
	movq	-536(%rbp), %rax	# i3, tmp1454
	movq	%rax, %rdi	# tmp1454,
	call	cant_combine_insn_p	#
	testl	%eax, %eax	# D.29124
	jne	.L179	#,
	.loc 1 1546 0
	movq	-544(%rbp), %rax	# i2, tmp1455
	movq	%rax, %rdi	# tmp1455,
	call	cant_combine_insn_p	#
	testl	%eax, %eax	# D.29124
	jne	.L179	#,
	.loc 1 1547 0
	cmpq	$0, -552(%rbp)	#, i1
	je	.L180	#,
	.loc 1 1547 0 is_stmt 0 discriminator 1
	movq	-552(%rbp), %rax	# i1, tmp1456
	movq	%rax, %rdi	# tmp1456,
	call	cant_combine_insn_p	#
	testl	%eax, %eax	# D.29124
	je	.L180	#,
.L179:
	.loc 1 1557 0 is_stmt 1
	movl	$0, %eax	#, D.29123
	jmp	.L475	#
.L180:
	.loc 1 1559 0
	movl	combine_attempts(%rip), %eax	# combine_attempts, combine_attempts.92
	addl	$1, %eax	#, combine_attempts.93
	movl	%eax, combine_attempts(%rip)	# combine_attempts.93, combine_attempts
	.loc 1 1560 0
	movq	$0, undobuf+16(%rip)	#, undobuf.other_insn
	.loc 1 1563 0
	movq	$0, newpat_used_regs(%rip)	#, newpat_used_regs
	.loc 1 1567 0
	cmpq	$0, -552(%rbp)	#, i1
	je	.L182	#,
	.loc 1 1567 0 is_stmt 0 discriminator 1
	movq	-552(%rbp), %rax	# i1, tmp1457
	movl	8(%rax), %edx	# i1_147(D)->fld[0].rtint, D.29124
	movl	max_uid_cuid(%rip), %eax	# max_uid_cuid, max_uid_cuid.95
	cmpl	%eax, %edx	# max_uid_cuid.95, D.29124
	jle	.L183	#,
	movq	-552(%rbp), %rax	# i1, tmp1458
	movq	%rax, %rdi	# tmp1458,
	call	insn_cuid	#
	movl	%eax, %ebx	#, iftmp.94
	jmp	.L184	#
.L183:
	.loc 1 1567 0 discriminator 2
	movq	uid_cuid(%rip), %rdx	# uid_cuid, uid_cuid.96
	movq	-552(%rbp), %rax	# i1, tmp1459
	movl	8(%rax), %eax	# i1_147(D)->fld[0].rtint, D.29124
	cltq
	salq	$2, %rax	#, D.29125
	addq	%rdx, %rax	# uid_cuid.96, D.29126
	movl	(%rax), %ebx	# *_158, iftmp.94
.L184:
	.loc 1 1567 0 discriminator 3
	movq	-544(%rbp), %rax	# i2, tmp1460
	movl	8(%rax), %edx	# i2_145(D)->fld[0].rtint, D.29124
	movl	max_uid_cuid(%rip), %eax	# max_uid_cuid, max_uid_cuid.98
	cmpl	%eax, %edx	# max_uid_cuid.98, D.29124
	jle	.L185	#,
	.loc 1 1567 0 discriminator 1
	movq	-544(%rbp), %rax	# i2, tmp1461
	movq	%rax, %rdi	# tmp1461,
	call	insn_cuid	#
	jmp	.L186	#
.L185:
	.loc 1 1567 0 discriminator 2
	movq	uid_cuid(%rip), %rdx	# uid_cuid, uid_cuid.99
	movq	-544(%rbp), %rax	# i2, tmp1462
	movl	8(%rax), %eax	# i2_145(D)->fld[0].rtint, D.29124
	cltq
	salq	$2, %rax	#, D.29125
	addq	%rdx, %rax	# uid_cuid.99, D.29126
	movl	(%rax), %eax	# *_167, iftmp.97
.L186:
	.loc 1 1567 0 discriminator 3
	cmpl	%eax, %ebx	# iftmp.97, iftmp.94
	jle	.L182	#,
	.loc 1 1568 0 is_stmt 1
	movq	-552(%rbp), %rax	# i1, tmp1463
	movq	%rax, -328(%rbp)	# tmp1463, temp
	movq	-544(%rbp), %rax	# i2, tmp1464
	movq	%rax, -552(%rbp)	# tmp1464, i1
	movq	-328(%rbp), %rax	# temp, tmp1465
	movq	%rax, -544(%rbp)	# tmp1465, i2
.L182:
	.loc 1 1570 0
	movq	$0, added_links_insn(%rip)	#, added_links_insn
	.loc 1 1588 0
	cmpq	$0, -552(%rbp)	#, i1
	jne	.L187	#,
	.loc 1 1588 0 is_stmt 0 discriminator 1
	movq	-536(%rbp), %rax	# i3, tmp1466
	movzwl	(%rax), %eax	# i3_143(D)->code, D.29127
	cmpw	$32, %ax	#, D.29127
	jne	.L187	#,
	movq	-536(%rbp), %rax	# i3, tmp1467
	movq	32(%rax), %rax	# i3_143(D)->fld[3].rtx, D.29128
	movzwl	(%rax), %eax	# _173->code, D.29127
	cmpw	$47, %ax	#, D.29127
	jne	.L187	#,
	.loc 1 1589 0 is_stmt 1
	movq	-536(%rbp), %rax	# i3, tmp1468
	movq	32(%rax), %rax	# i3_143(D)->fld[3].rtx, D.29128
	movq	16(%rax), %rax	# _175->fld[1].rtx, D.29128
	movzwl	(%rax), %eax	# _176->code, D.29127
	cmpw	$61, %ax	#, D.29127
	jne	.L187	#,
	.loc 1 1590 0
	movq	-536(%rbp), %rax	# i3, tmp1469
	movq	32(%rax), %rax	# i3_143(D)->fld[3].rtx, D.29128
	movq	16(%rax), %rax	# _178->fld[1].rtx, D.29128
	movl	8(%rax), %eax	# _179->fld[0].rtuint, D.29129
	cmpl	$52, %eax	#, D.29129
	jbe	.L187	#,
	.loc 1 1591 0
	movq	-536(%rbp), %rax	# i3, tmp1470
	movq	32(%rax), %rax	# i3_143(D)->fld[3].rtx, D.29128
	movq	16(%rax), %rdx	# _181->fld[1].rtx, D.29128
	movq	-536(%rbp), %rax	# i3, tmp1471
	movl	$1, %esi	#,
	movq	%rax, %rdi	# tmp1471,
	call	find_reg_note	#
	testq	%rax, %rax	# D.29128
	je	.L187	#,
	.loc 1 1592 0
	movq	-544(%rbp), %rax	# i2, tmp1472
	movq	32(%rax), %rax	# i2_1->fld[3].rtx, D.29128
	movzwl	(%rax), %eax	# _184->code, D.29127
	cmpw	$39, %ax	#, D.29127
	jne	.L187	#,
	.loc 1 1593 0
	movq	-536(%rbp), %rax	# i3, tmp1473
	movq	32(%rax), %rax	# i3_143(D)->fld[3].rtx, D.29128
	movq	8(%rax), %rax	# _186->fld[0].rtx, D.29128
	movq	%rax, %rdi	# D.29128,
	call	side_effects_p	#
	testl	%eax, %eax	# D.29124
	jne	.L187	#,
	.loc 1 1598 0
	movq	-536(%rbp), %rax	# i3, tmp1474
	movq	32(%rax), %rax	# i3_143(D)->fld[3].rtx, D.29128
	movq	8(%rax), %rax	# _189->fld[0].rtx, D.29128
	movzwl	(%rax), %eax	# _190->code, D.29127
	cmpw	$133, %ax	#, D.29127
	je	.L187	#,
	.loc 1 1599 0
	movq	-536(%rbp), %rax	# i3, tmp1475
	movq	32(%rax), %rax	# i3_143(D)->fld[3].rtx, D.29128
	movq	8(%rax), %rax	# _192->fld[0].rtx, D.29128
	movzwl	(%rax), %eax	# _193->code, D.29127
	cmpw	$64, %ax	#, D.29127
	je	.L187	#,
	.loc 1 1601 0
	movq	-536(%rbp), %rax	# i3, tmp1476
	movq	32(%rax), %rax	# i3_143(D)->fld[3].rtx, D.29128
	.loc 1 1600 0
	movq	8(%rax), %rdx	# _195->fld[0].rtx, D.29128
	movq	-536(%rbp), %rax	# i3, tmp1477
	movq	32(%rax), %rax	# i3_143(D)->fld[3].rtx, D.29128
	movq	16(%rax), %rax	# _197->fld[1].rtx, D.29128
	movq	%rdx, %rsi	# D.29128,
	movq	%rax, %rdi	# D.29128,
	call	reg_overlap_mentioned_p	#
	testl	%eax, %eax	# D.29124
	jne	.L187	#,
	.loc 1 1602 0
	movq	-544(%rbp), %rax	# i2, tmp1478
	movq	%rax, %rdi	# tmp1478,
	call	next_real_insn	#
	cmpq	-536(%rbp), %rax	# i3, D.29128
	jne	.L187	#,
.LBB10:
	.loc 1 1604 0
	movq	-544(%rbp), %rax	# i2, tmp1479
	movq	32(%rax), %rax	# i2_1->fld[3].rtx, tmp1480
	movq	%rax, -152(%rbp)	# tmp1480, p2
	.loc 1 1616 0
	movl	$0, -464(%rbp)	#, i
	jmp	.L188	#
.L192:
	.loc 1 1617 0
	movq	-152(%rbp), %rax	# p2, tmp1481
	movq	8(%rax), %rax	# p2_201->fld[0].rtvec, D.29130
	movl	-464(%rbp), %edx	# i, tmp1483
	movslq	%edx, %rdx	# tmp1483, tmp1482
	movq	8(%rax,%rdx,8), %rax	# _205->elem, D.29128
	movzwl	(%rax), %eax	# _206->code, D.29127
	cmpw	$47, %ax	#, D.29127
	je	.L189	#,
	.loc 1 1618 0
	movq	-152(%rbp), %rax	# p2, tmp1484
	movq	8(%rax), %rax	# p2_201->fld[0].rtvec, D.29130
	movl	-464(%rbp), %edx	# i, tmp1486
	movslq	%edx, %rdx	# tmp1486, tmp1485
	movq	8(%rax,%rdx,8), %rax	# _208->elem, D.29128
	movzwl	(%rax), %eax	# _209->code, D.29127
	cmpw	$49, %ax	#, D.29127
	jne	.L190	#,
.L189:
	.loc 1 1620 0
	movq	-152(%rbp), %rax	# p2, tmp1487
	movq	8(%rax), %rax	# p2_201->fld[0].rtvec, D.29130
	movl	-464(%rbp), %edx	# i, tmp1489
	movslq	%edx, %rdx	# tmp1489, tmp1488
	movq	8(%rax,%rdx,8), %rax	# _211->elem, D.29128
	.loc 1 1619 0
	movq	8(%rax), %rdx	# _212->fld[0].rtx, D.29128
	movq	-536(%rbp), %rax	# i3, tmp1490
	movq	32(%rax), %rax	# i3_143(D)->fld[3].rtx, D.29128
	movq	8(%rax), %rax	# _214->fld[0].rtx, D.29128
	movq	%rdx, %rsi	# D.29128,
	movq	%rax, %rdi	# D.29128,
	call	reg_overlap_mentioned_p	#
	testl	%eax, %eax	# D.29124
	je	.L190	#,
	.loc 1 1621 0
	jmp	.L191	#
.L190:
	.loc 1 1616 0
	addl	$1, -464(%rbp)	#, i
.L188:
	.loc 1 1616 0 is_stmt 0 discriminator 1
	movq	-152(%rbp), %rax	# p2, tmp1491
	movq	8(%rax), %rax	# p2_201->fld[0].rtvec, D.29130
	movl	(%rax), %eax	# _203->num_elem, D.29124
	cmpl	-464(%rbp), %eax	# i, D.29124
	jg	.L192	#,
.L191:
	.loc 1 1623 0 is_stmt 1
	movq	-152(%rbp), %rax	# p2, tmp1492
	movq	8(%rax), %rax	# p2_201->fld[0].rtvec, D.29130
	movl	(%rax), %eax	# _218->num_elem, D.29124
	cmpl	-464(%rbp), %eax	# i, D.29124
	jne	.L187	#,
	.loc 1 1624 0
	movl	$0, -464(%rbp)	#, i
	jmp	.L193	#
.L199:
	.loc 1 1625 0
	movq	-152(%rbp), %rax	# p2, tmp1493
	movq	8(%rax), %rax	# p2_201->fld[0].rtvec, D.29130
	movl	-464(%rbp), %edx	# i, tmp1495
	movslq	%edx, %rdx	# tmp1495, tmp1494
	movq	8(%rax,%rdx,8), %rax	# _223->elem, D.29128
	movzwl	(%rax), %eax	# _224->code, D.29127
	cmpw	$47, %ax	#, D.29127
	je	.L194	#,
	.loc 1 1626 0
	movq	-152(%rbp), %rax	# p2, tmp1496
	movq	8(%rax), %rax	# p2_201->fld[0].rtvec, D.29130
	movl	-464(%rbp), %edx	# i, tmp1498
	movslq	%edx, %rdx	# tmp1498, tmp1497
	movq	8(%rax,%rdx,8), %rax	# _226->elem, D.29128
	movzwl	(%rax), %eax	# _227->code, D.29127
	cmpw	$49, %ax	#, D.29127
	jne	.L195	#,
.L194:
	.loc 1 1627 0
	movq	-152(%rbp), %rax	# p2, tmp1499
	movq	8(%rax), %rax	# p2_201->fld[0].rtvec, D.29130
	movl	-464(%rbp), %edx	# i, tmp1501
	movslq	%edx, %rdx	# tmp1501, tmp1500
	movq	8(%rax,%rdx,8), %rax	# _229->elem, D.29128
	movq	8(%rax), %rdx	# _230->fld[0].rtx, D.29128
	movq	-536(%rbp), %rax	# i3, tmp1502
	movq	32(%rax), %rax	# i3_143(D)->fld[3].rtx, D.29128
	movq	16(%rax), %rax	# _232->fld[1].rtx, D.29128
	cmpq	%rax, %rdx	# D.29128, D.29128
	jne	.L195	#,
	.loc 1 1629 0
	movl	combine_merges(%rip), %eax	# combine_merges, combine_merges.100
	addl	$1, %eax	#, combine_merges.101
	movl	%eax, combine_merges(%rip)	# combine_merges.101, combine_merges
	.loc 1 1631 0
	movq	-536(%rbp), %rax	# i3, tmp1503
	movq	%rax, subst_insn(%rip)	# tmp1503, subst_insn
	.loc 1 1632 0
	movq	-544(%rbp), %rax	# i2, tmp1504
	movl	8(%rax), %edx	# i2_1->fld[0].rtint, D.29124
	movl	max_uid_cuid(%rip), %eax	# max_uid_cuid, max_uid_cuid.103
	cmpl	%eax, %edx	# max_uid_cuid.103, D.29124
	jle	.L196	#,
	.loc 1 1632 0 is_stmt 0 discriminator 1
	movq	-544(%rbp), %rax	# i2, tmp1505
	movq	%rax, %rdi	# tmp1505,
	call	insn_cuid	#
	jmp	.L197	#
.L196:
	.loc 1 1632 0 discriminator 2
	movq	uid_cuid(%rip), %rdx	# uid_cuid, uid_cuid.104
	movq	-544(%rbp), %rax	# i2, tmp1506
	movl	8(%rax), %eax	# i2_1->fld[0].rtint, D.29124
	cltq
	salq	$2, %rax	#, D.29125
	addq	%rdx, %rax	# uid_cuid.104, D.29126
	movl	(%rax), %eax	# *_243, iftmp.102
.L197:
	.loc 1 1632 0 discriminator 3
	movl	%eax, subst_low_cuid(%rip)	# iftmp.102, subst_low_cuid
	.loc 1 1634 0 is_stmt 1 discriminator 3
	movl	$0, -508(%rbp)	#, added_sets_1
	movl	-508(%rbp), %eax	# added_sets_1, tmp1507
	movl	%eax, -504(%rbp)	# tmp1507, added_sets_2
	.loc 1 1635 0 discriminator 3
	movq	-536(%rbp), %rax	# i3, tmp1508
	movq	32(%rax), %rax	# i3_143(D)->fld[3].rtx, D.29128
	movq	16(%rax), %rax	# _247->fld[1].rtx, i2dest.105
	movq	%rax, -400(%rbp)	# i2dest.105, i2dest
	.loc 1 1640 0 discriminator 3
	movq	-536(%rbp), %rax	# i3, tmp1509
	movq	32(%rax), %rax	# i3_143(D)->fld[3].rtx, D.29128
	movq	8(%rax), %rax	# _249->fld[0].rtx, D.29128
	movq	-152(%rbp), %rdx	# p2, tmp1510
	movq	8(%rdx), %rdx	# p2_201->fld[0].rtvec, D.29130
	movl	-464(%rbp), %ecx	# i, tmp1512
	movslq	%ecx, %rcx	# tmp1512, tmp1511
	movq	8(%rdx,%rcx,8), %rdx	# _251->elem, D.29128
	addq	$8, %rdx	#, D.29131
	movq	%rax, %rsi	# D.29128,
	movq	%rdx, %rdi	# D.29131,
	call	do_SUBST	#
	.loc 1 1643 0 discriminator 3
	movq	-152(%rbp), %rax	# p2, tmp1513
	movq	%rax, -424(%rbp)	# tmp1513, newpat
	.loc 1 1644 0 discriminator 3
	movl	$1, -472(%rbp)	#, i3_subst_into_i2
	.loc 1 1645 0 discriminator 3
	jmp	.L198	#
.L195:
	.loc 1 1624 0
	addl	$1, -464(%rbp)	#, i
.L193:
	.loc 1 1624 0 is_stmt 0 discriminator 1
	movq	-152(%rbp), %rax	# p2, tmp1514
	movq	8(%rax), %rax	# p2_201->fld[0].rtvec, D.29130
	movl	(%rax), %eax	# _221->num_elem, D.29124
	cmpl	-464(%rbp), %eax	# i, D.29124
	jg	.L199	#,
.L187:
.LBE10:
	.loc 1 1652 0 is_stmt 1
	cmpq	$0, -552(%rbp)	#, i1
	jne	.L200	#,
	.loc 1 1653 0
	movq	-544(%rbp), %rax	# i2, tmp1515
	movzwl	(%rax), %eax	# i2_1->code, D.29127
	movzwl	%ax, %eax	# D.29127, D.29124
	cltq
	movzbl	rtx_class(%rax), %eax	# rtx_class, D.29132
	cmpb	$105, %al	#, D.29132
	jne	.L201	#,
	.loc 1 1653 0 is_stmt 0 discriminator 1
	movq	-544(%rbp), %rax	# i2, tmp1517
	movq	32(%rax), %rax	# i2_1->fld[3].rtx, D.29128
	movzwl	(%rax), %eax	# _259->code, D.29127
	cmpw	$47, %ax	#, D.29127
	jne	.L202	#,
	.loc 1 1653 0 discriminator 3
	movq	-544(%rbp), %rax	# i2, tmp1518
	movq	32(%rax), %rax	# i2_1->fld[3].rtx, iftmp.107
	jmp	.L204	#
.L202:
	.loc 1 1653 0 discriminator 4
	movq	-544(%rbp), %rax	# i2, tmp1519
	movq	32(%rax), %rdx	# i2_1->fld[3].rtx, D.29128
	movq	-544(%rbp), %rax	# i2, tmp1520
	movq	%rdx, %rsi	# D.29128,
	movq	%rax, %rdi	# tmp1520,
	call	single_set_2	#
	jmp	.L204	#
.L201:
	.loc 1 1653 0 discriminator 2
	movl	$0, %eax	#, iftmp.106
.L204:
	.loc 1 1653 0 discriminator 5
	movq	%rax, -328(%rbp)	# iftmp.106, temp
	cmpq	$0, -328(%rbp)	#, temp
	je	.L200	#,
	.loc 1 1654 0 is_stmt 1
	movq	-328(%rbp), %rax	# temp, tmp1521
	movq	16(%rax), %rax	# temp_266->fld[1].rtx, D.29128
	movzwl	(%rax), %eax	# _267->code, D.29127
	cmpw	$54, %ax	#, D.29127
	je	.L205	#,
	.loc 1 1655 0
	movq	-328(%rbp), %rax	# temp, tmp1522
	movq	16(%rax), %rax	# temp_266->fld[1].rtx, D.29128
	movzwl	(%rax), %eax	# _269->code, D.29127
	cmpw	$55, %ax	#, D.29127
	jne	.L200	#,
.L205:
	.loc 1 1656 0
	movq	-328(%rbp), %rax	# temp, tmp1523
	movq	8(%rax), %rax	# temp_266->fld[0].rtx, D.29128
	movzwl	(%rax), %eax	# _271->code, D.29127
	cmpw	$61, %ax	#, D.29127
	jne	.L200	#,
	.loc 1 1657 0
	movq	-328(%rbp), %rax	# temp, tmp1524
	movq	8(%rax), %rax	# temp_266->fld[0].rtx, D.29128
	movzbl	2(%rax), %eax	# _273->mode, D.29133
	movzbl	%al, %eax	# D.29133, D.29124
	cltq
	movl	mode_class(,%rax,4), %eax	# mode_class, D.29134
	cmpl	$1, %eax	#, D.29134
	jne	.L200	#,
	.loc 1 1658 0
	movq	-328(%rbp), %rax	# temp, tmp1526
	movq	8(%rax), %rax	# temp_266->fld[0].rtx, D.29128
	movzbl	2(%rax), %eax	# _277->mode, D.29133
	movzbl	%al, %eax	# D.29133, D.29124
	cltq
	movzbl	mode_size(%rax), %eax	# mode_size, D.29133
	movzbl	%al, %edx	# D.29133, D.29124
	movl	target_flags(%rip), %eax	# target_flags, target_flags.109
	andl	$33554432, %eax	#, D.29124
	testl	%eax, %eax	# D.29124
	je	.L206	#,
	.loc 1 1658 0 is_stmt 0 discriminator 1
	movl	$16, %eax	#, iftmp.108
	jmp	.L207	#
.L206:
	.loc 1 1658 0 discriminator 2
	movl	$8, %eax	#, iftmp.108
.L207:
	.loc 1 1658 0 discriminator 3
	cmpl	%eax, %edx	# iftmp.108, D.29124
	jne	.L200	#,
	.loc 1 1659 0 is_stmt 1
	movq	-536(%rbp), %rax	# i3, tmp1528
	movq	32(%rax), %rax	# i3_143(D)->fld[3].rtx, D.29128
	movzwl	(%rax), %eax	# _286->code, D.29127
	cmpw	$47, %ax	#, D.29127
	jne	.L200	#,
	.loc 1 1660 0
	movq	-536(%rbp), %rax	# i3, tmp1529
	movq	32(%rax), %rax	# i3_143(D)->fld[3].rtx, D.29128
	movq	8(%rax), %rax	# _288->fld[0].rtx, D.29128
	movzwl	(%rax), %eax	# _289->code, D.29127
	cmpw	$63, %ax	#, D.29127
	jne	.L200	#,
	.loc 1 1661 0
	movq	-536(%rbp), %rax	# i3, tmp1530
	movq	32(%rax), %rax	# i3_143(D)->fld[3].rtx, D.29128
	movq	8(%rax), %rax	# _291->fld[0].rtx, D.29128
	movq	8(%rax), %rdx	# _292->fld[0].rtx, D.29128
	movq	-328(%rbp), %rax	# temp, tmp1531
	movq	8(%rax), %rax	# temp_266->fld[0].rtx, D.29128
	cmpq	%rax, %rdx	# D.29128, D.29128
	jne	.L200	#,
	.loc 1 1662 0
	movq	-536(%rbp), %rax	# i3, tmp1532
	movq	32(%rax), %rax	# i3_143(D)->fld[3].rtx, D.29128
	movq	8(%rax), %rax	# _295->fld[0].rtx, D.29128
	movzbl	2(%rax), %eax	# _296->mode, D.29133
	movzbl	%al, %eax	# D.29133, D.29124
	cltq
	movl	mode_class(,%rax,4), %eax	# mode_class, D.29134
	cmpl	$1, %eax	#, D.29134
	jne	.L200	#,
	.loc 1 1663 0
	movq	-536(%rbp), %rax	# i3, tmp1534
	movq	32(%rax), %rax	# i3_143(D)->fld[3].rtx, D.29128
	movq	8(%rax), %rax	# _300->fld[0].rtx, D.29128
	movzbl	2(%rax), %eax	# _301->mode, D.29133
	movzbl	%al, %eax	# D.29133, D.29124
	cltq
	movzbl	mode_size(%rax), %eax	# mode_size, D.29133
	movzbl	%al, %edx	# D.29133, D.29124
	movl	target_flags(%rip), %eax	# target_flags, target_flags.111
	andl	$33554432, %eax	#, D.29124
	testl	%eax, %eax	# D.29124
	je	.L208	#,
	.loc 1 1663 0 is_stmt 0 discriminator 1
	movl	$8, %eax	#, iftmp.110
	jmp	.L209	#
.L208:
	.loc 1 1663 0 discriminator 2
	movl	$4, %eax	#, iftmp.110
.L209:
	.loc 1 1663 0 discriminator 3
	cmpl	%eax, %edx	# iftmp.110, D.29124
	jne	.L200	#,
	.loc 1 1664 0 is_stmt 1
	movq	-536(%rbp), %rax	# i3, tmp1536
	movq	32(%rax), %rax	# i3_143(D)->fld[3].rtx, D.29128
	movq	16(%rax), %rax	# _310->fld[1].rtx, D.29128
	movzwl	(%rax), %eax	# _311->code, D.29127
	cmpw	$54, %ax	#, D.29127
	jne	.L200	#,
.LBB11:
	.loc 1 1668 0
	movq	-328(%rbp), %rax	# temp, tmp1537
	movq	16(%rax), %rax	# temp_266->fld[1].rtx, D.29128
	movzwl	(%rax), %eax	# _313->code, D.29127
	cmpw	$54, %ax	#, D.29127
	jne	.L210	#,
	.loc 1 1669 0
	movq	-328(%rbp), %rax	# temp, tmp1538
	movq	16(%rax), %rax	# temp_266->fld[1].rtx, D.29128
	movq	8(%rax), %rax	# _315->fld[0].rtwint, tmp1539
	movq	%rax, -312(%rbp)	# tmp1539, lo
	cmpq	$0, -312(%rbp)	#, lo
	jns	.L211	#,
	.loc 1 1669 0 is_stmt 0 discriminator 1
	movq	$-1, %rax	#, iftmp.112
	jmp	.L212	#
.L211:
	.loc 1 1669 0 discriminator 2
	movl	$0, %eax	#, iftmp.112
.L212:
	.loc 1 1669 0 discriminator 1
	movq	%rax, -304(%rbp)	# iftmp.112, hi
	jmp	.L213	#
.L210:
	.loc 1 1672 0 is_stmt 1
	movq	-328(%rbp), %rax	# temp, tmp1540
	movq	16(%rax), %rax	# temp_266->fld[1].rtx, D.29128
	movq	16(%rax), %rax	# _320->fld[1].rtwint, tmp1541
	movq	%rax, -312(%rbp)	# tmp1541, lo
	.loc 1 1673 0
	movq	-328(%rbp), %rax	# temp, tmp1542
	movq	16(%rax), %rax	# temp_266->fld[1].rtx, D.29128
	movq	24(%rax), %rax	# _322->fld[2].rtwint, tmp1543
	movq	%rax, -304(%rbp)	# tmp1543, hi
.L213:
	.loc 1 1676 0
	movq	-536(%rbp), %rax	# i3, tmp1544
	movq	32(%rax), %rax	# i3_143(D)->fld[3].rtx, D.29128
	movq	8(%rax), %rax	# _324->fld[0].rtx, D.29128
	movq	%rax, %rdi	# D.29128,
	call	subreg_lowpart_p	#
	testl	%eax, %eax	# D.29124
	je	.L214	#,
	.loc 1 1683 0
	movl	target_flags(%rip), %eax	# target_flags, target_flags.114
	andl	$33554432, %eax	#, D.29124
	testl	%eax, %eax	# D.29124
	je	.L215	#,
	.loc 1 1683 0 is_stmt 0 discriminator 1
	movl	$0, %eax	#, iftmp.113
	jmp	.L216	#
.L215:
	.loc 1 1683 0 discriminator 2
	movabsq	$-4294967296, %rax	#, iftmp.113
.L216:
	.loc 1 1683 0 discriminator 3
	movq	-312(%rbp), %rdx	# lo, lo.115
	andq	%rdx, %rax	# lo.115, D.29125
	movq	%rax, -312(%rbp)	# D.29125, lo
	.loc 1 1684 0 is_stmt 1 discriminator 3
	movq	-536(%rbp), %rax	# i3, tmp1545
	movq	32(%rax), %rax	# i3_143(D)->fld[3].rtx, D.29128
	movq	16(%rax), %rax	# _334->fld[1].rtx, D.29128
	movq	8(%rax), %rax	# _335->fld[0].rtwint, D.29135
	.loc 1 1685 0 discriminator 3
	movq	%rax, %rdx	# D.29135, D.29125
	movl	target_flags(%rip), %eax	# target_flags, target_flags.117
	andl	$33554432, %eax	#, D.29124
	testl	%eax, %eax	# D.29124
	je	.L217	#,
	.loc 1 1685 0 is_stmt 0 discriminator 1
	movq	$-1, %rax	#, iftmp.116
	jmp	.L218	#
.L217:
	.loc 1 1685 0 discriminator 2
	movl	$4294967295, %eax	#, iftmp.116
.L218:
	andq	%rax, %rdx	# iftmp.116, D.29125
	.loc 1 1684 0 is_stmt 1 discriminator 2
	movq	-312(%rbp), %rax	# lo, lo.118
	orq	%rdx, %rax	# D.29125, D.29125
	movq	%rax, -312(%rbp)	# D.29125, lo
	jmp	.L219	#
.L214:
	.loc 1 1687 0
	movl	target_flags(%rip), %eax	# target_flags, target_flags.119
	andl	$33554432, %eax	#, D.29124
	testl	%eax, %eax	# D.29124
	je	.L220	#,
	.loc 1 1688 0
	movq	-536(%rbp), %rax	# i3, tmp1546
	movq	32(%rax), %rax	# i3_143(D)->fld[3].rtx, D.29128
	movq	16(%rax), %rax	# _348->fld[1].rtx, D.29128
	movq	8(%rax), %rax	# _349->fld[0].rtwint, tmp1547
	movq	%rax, -304(%rbp)	# tmp1547, hi
	jmp	.L219	#
.L220:
	.loc 1 1689 0
	movl	target_flags(%rip), %eax	# target_flags, target_flags.120
	andl	$33554432, %eax	#, D.29124
	testl	%eax, %eax	# D.29124
	jne	.L221	#,
.LBB12:
	.loc 1 1691 0
	movq	-312(%rbp), %rax	# lo, lo.121
	.loc 1 1692 0
	shrq	$63, %rax	#, D.29125
	.loc 1 1691 0
	negl	%eax	# tmp1548
	movl	%eax, -452(%rbp)	# tmp1548, sign
	.loc 1 1694 0
	movl	target_flags(%rip), %eax	# target_flags, target_flags.123
	andl	$33554432, %eax	#, D.29124
	testl	%eax, %eax	# D.29124
	je	.L222	#,
	.loc 1 1694 0 is_stmt 0 discriminator 1
	movq	$-1, %rdx	#, iftmp.122
	jmp	.L223	#
.L222:
	.loc 1 1694 0 discriminator 2
	movl	$4294967295, %edx	#, iftmp.122
.L223:
	.loc 1 1694 0 discriminator 3
	movl	target_flags(%rip), %eax	# target_flags, target_flags.125
	andl	$33554432, %eax	#, D.29124
	testl	%eax, %eax	# D.29124
	je	.L224	#,
	.loc 1 1694 0 discriminator 1
	movl	$63, %eax	#, iftmp.124
	jmp	.L225	#
.L224:
	.loc 1 1694 0 discriminator 2
	movl	$31, %eax	#, iftmp.124
.L225:
	.loc 1 1694 0 discriminator 3
	movl	%eax, %ecx	# iftmp.124, tmp2088
	salq	%cl, %rdx	# tmp2088, D.29125
	movq	%rdx, %rax	# D.29125, D.29125
	addq	%rax, %rax	# D.29125
	notq	%rax	# D.29125
	movq	%rax, %rdx	# D.29125, D.29125
	movq	-312(%rbp), %rax	# lo, lo.126
	andq	%rdx, %rax	# D.29125, D.29125
	movq	%rax, -312(%rbp)	# D.29125, lo
	.loc 1 1696 0 is_stmt 1 discriminator 3
	movq	-536(%rbp), %rax	# i3, tmp1549
	movq	32(%rax), %rax	# i3_143(D)->fld[3].rtx, D.29128
	movq	16(%rax), %rax	# _371->fld[1].rtx, D.29128
	movq	8(%rax), %rax	# _372->fld[0].rtwint, D.29135
	movq	%rax, %rdx	# D.29135, D.29125
	movl	target_flags(%rip), %eax	# target_flags, target_flags.128
	andl	$33554432, %eax	#, D.29124
	testl	%eax, %eax	# D.29124
	je	.L226	#,
	.loc 1 1696 0 is_stmt 0 discriminator 1
	movl	$63, %eax	#, iftmp.127
	jmp	.L227	#
.L226:
	.loc 1 1696 0 discriminator 2
	movl	$31, %eax	#, iftmp.127
.L227:
	.loc 1 1696 0 discriminator 3
	movl	%eax, %ecx	# iftmp.127, tmp2091
	salq	%cl, %rdx	# tmp2091, D.29125
	movq	%rdx, %rax	# D.29125, D.29125
	leaq	(%rax,%rax), %rdx	#, D.29125
	movq	-312(%rbp), %rax	# lo, lo.129
	orq	%rdx, %rax	# D.29125, D.29125
	movq	%rax, -312(%rbp)	# D.29125, lo
	.loc 1 1698 0 is_stmt 1 discriminator 3
	movl	-452(%rbp), %eax	# sign, tmp1550
	cltq
	cmpq	-304(%rbp), %rax	# hi, D.29135
	jne	.L228	#,
	.loc 1 1699 0
	cmpq	$0, -312(%rbp)	#, lo
	jns	.L229	#,
	.loc 1 1699 0 is_stmt 0 discriminator 1
	movq	$-1, %rax	#, iftmp.130
	jmp	.L230	#
.L229:
	.loc 1 1699 0 discriminator 2
	movl	$0, %eax	#, iftmp.130
.L230:
	.loc 1 1699 0 discriminator 3
	movq	%rax, -304(%rbp)	# iftmp.130, hi
.LBE12:
	jmp	.L219	#
.L228:
	jmp	.L219	#
.L221:
	.loc 1 1704 0 is_stmt 1
	movl	$__FUNCTION__.11561, %edx	#,
	movl	$1704, %esi	#,
	movl	$.LC0, %edi	#,
	call	fancy_abort	#
.L219:
	.loc 1 1706 0
	movl	combine_merges(%rip), %eax	# combine_merges, combine_merges.131
	addl	$1, %eax	#, combine_merges.132
	movl	%eax, combine_merges(%rip)	# combine_merges.132, combine_merges
	.loc 1 1707 0
	movq	-536(%rbp), %rax	# i3, tmp1551
	movq	%rax, subst_insn(%rip)	# tmp1551, subst_insn
	.loc 1 1708 0
	movq	-544(%rbp), %rax	# i2, tmp1552
	movl	8(%rax), %edx	# i2_1->fld[0].rtint, D.29124
	movl	max_uid_cuid(%rip), %eax	# max_uid_cuid, max_uid_cuid.134
	cmpl	%eax, %edx	# max_uid_cuid.134, D.29124
	jle	.L231	#,
	.loc 1 1708 0 is_stmt 0 discriminator 1
	movq	-544(%rbp), %rax	# i2, tmp1553
	movq	%rax, %rdi	# tmp1553,
	call	insn_cuid	#
	jmp	.L232	#
.L231:
	.loc 1 1708 0 discriminator 2
	movq	uid_cuid(%rip), %rdx	# uid_cuid, uid_cuid.135
	movq	-544(%rbp), %rax	# i2, tmp1554
	movl	8(%rax), %eax	# i2_1->fld[0].rtint, D.29124
	cltq
	salq	$2, %rax	#, D.29125
	addq	%rdx, %rax	# uid_cuid.135, D.29126
	movl	(%rax), %eax	# *_397, iftmp.133
.L232:
	.loc 1 1708 0 discriminator 3
	movl	%eax, subst_low_cuid(%rip)	# iftmp.133, subst_low_cuid
	.loc 1 1709 0 is_stmt 1 discriminator 3
	movl	$0, -508(%rbp)	#, added_sets_1
	movl	-508(%rbp), %eax	# added_sets_1, tmp1555
	movl	%eax, -504(%rbp)	# tmp1555, added_sets_2
	.loc 1 1710 0 discriminator 3
	movq	-328(%rbp), %rax	# temp, tmp1556
	movq	8(%rax), %rax	# temp_266->fld[0].rtx, i2dest.136
	movq	%rax, -400(%rbp)	# i2dest.136, i2dest
	.loc 1 1712 0 discriminator 3
	movq	-328(%rbp), %rax	# temp, tmp1557
	movq	8(%rax), %rax	# temp_266->fld[0].rtx, D.29128
	movzbl	2(%rax), %eax	# _402->mode, D.29133
	movzbl	%al, %edx	# D.29133, D.29136
	movq	-304(%rbp), %rcx	# hi, tmp1558
	movq	-312(%rbp), %rax	# lo, tmp1559
	movq	%rcx, %rsi	# tmp1558,
	movq	%rax, %rdi	# tmp1559,
	call	immed_double_const	#
	movq	-328(%rbp), %rdx	# temp, tmp1560
	addq	$16, %rdx	#, D.29131
	movq	%rax, %rsi	# D.29128,
	movq	%rdx, %rdi	# D.29131,
	call	do_SUBST	#
	.loc 1 1715 0 discriminator 3
	movq	-544(%rbp), %rax	# i2, tmp1561
	movq	32(%rax), %rax	# i2_1->fld[3].rtx, newpat.137
	movq	%rax, -424(%rbp)	# newpat.137, newpat
	.loc 1 1716 0 discriminator 3
	jmp	.L198	#
.L200:
.LBE11:
	.loc 1 1733 0
	cmpq	$0, -552(%rbp)	#, i1
	jne	.L233	#,
	.loc 1 1733 0 is_stmt 0 discriminator 1
	movq	-544(%rbp), %rax	# i2, tmp1562
	movq	32(%rax), %rax	# i2_1->fld[3].rtx, D.29128
	movzwl	(%rax), %eax	# _408->code, D.29127
	cmpw	$39, %ax	#, D.29127
	jne	.L233	#,
	.loc 1 1734 0 is_stmt 1
	movq	-544(%rbp), %rax	# i2, tmp1563
	movq	32(%rax), %rax	# i2_1->fld[3].rtx, D.29128
	movq	8(%rax), %rax	# _410->fld[0].rtvec, D.29130
	movl	(%rax), %eax	# _411->num_elem, D.29124
	cmpl	$1, %eax	#, D.29124
	jle	.L233	#,
	.loc 1 1735 0
	movq	-544(%rbp), %rax	# i2, tmp1564
	movq	32(%rax), %rax	# i2_1->fld[3].rtx, D.29128
	movq	8(%rax), %rax	# _413->fld[0].rtvec, D.29130
	movq	8(%rax), %rax	# _414->elem, D.29128
	movzwl	(%rax), %eax	# _415->code, D.29127
	cmpw	$47, %ax	#, D.29127
	jne	.L233	#,
	.loc 1 1736 0
	movq	-544(%rbp), %rax	# i2, tmp1565
	movq	32(%rax), %rax	# i2_1->fld[3].rtx, D.29128
	movq	8(%rax), %rax	# _417->fld[0].rtvec, D.29130
	movq	8(%rax), %rax	# _418->elem, D.29128
	movq	8(%rax), %rax	# _419->fld[0].rtx, D.29128
	movzbl	2(%rax), %eax	# _420->mode, D.29133
	movzbl	%al, %eax	# D.29133, D.29124
	cltq
	movl	mode_class(,%rax,4), %eax	# mode_class, D.29134
	cmpl	$4, %eax	#, D.29134
	jne	.L233	#,
	.loc 1 1738 0
	movq	-544(%rbp), %rax	# i2, tmp1567
	movq	32(%rax), %rax	# i2_1->fld[3].rtx, D.29128
	movq	8(%rax), %rax	# _424->fld[0].rtvec, D.29130
	movq	8(%rax), %rax	# _425->elem, D.29128
	movq	16(%rax), %rax	# _426->fld[1].rtx, D.29128
	movzwl	(%rax), %eax	# _427->code, D.29127
	cmpw	$74, %ax	#, D.29127
	jne	.L233	#,
	.loc 1 1739 0
	movq	-544(%rbp), %rax	# i2, tmp1568
	movq	32(%rax), %rax	# i2_1->fld[3].rtx, D.29128
	movq	8(%rax), %rax	# _429->fld[0].rtvec, D.29130
	movq	8(%rax), %rax	# _430->elem, D.29128
	movq	16(%rax), %rax	# _431->fld[1].rtx, D.29128
	movq	16(%rax), %rdx	# _432->fld[1].rtx, D.29128
	movq	const_int_rtx+512(%rip), %rax	# const_int_rtx, D.29128
	cmpq	%rax, %rdx	# D.29128, D.29128
	jne	.L233	#,
	.loc 1 1740 0
	movq	-544(%rbp), %rax	# i2, tmp1569
	movq	32(%rax), %rax	# i2_1->fld[3].rtx, D.29128
	movq	8(%rax), %rax	# _435->fld[0].rtvec, D.29130
	movq	16(%rax), %rax	# _436->elem, D.29128
	movzwl	(%rax), %eax	# _437->code, D.29127
	cmpw	$47, %ax	#, D.29127
	jne	.L233	#,
	.loc 1 1741 0
	movq	-544(%rbp), %rax	# i2, tmp1570
	movq	32(%rax), %rax	# i2_1->fld[3].rtx, D.29128
	movq	8(%rax), %rax	# _439->fld[0].rtvec, D.29130
	movq	16(%rax), %rax	# _440->elem, D.29128
	movq	8(%rax), %rax	# _441->fld[0].rtx, D.29128
	movzwl	(%rax), %eax	# _442->code, D.29127
	cmpw	$61, %ax	#, D.29127
	jne	.L233	#,
	.loc 1 1743 0
	movq	-544(%rbp), %rax	# i2, tmp1571
	movq	32(%rax), %rax	# i2_1->fld[3].rtx, D.29128
	movq	8(%rax), %rax	# _444->fld[0].rtvec, D.29130
	movq	16(%rax), %rax	# _445->elem, D.29128
	.loc 1 1742 0
	movq	16(%rax), %rdx	# _446->fld[1].rtx, D.29128
	movq	-544(%rbp), %rax	# i2, tmp1572
	movq	32(%rax), %rax	# i2_1->fld[3].rtx, D.29128
	movq	8(%rax), %rax	# _448->fld[0].rtvec, D.29130
	movq	8(%rax), %rax	# _449->elem, D.29128
	movq	16(%rax), %rax	# _450->fld[1].rtx, D.29128
	movq	8(%rax), %rax	# _451->fld[0].rtx, D.29128
	movq	%rdx, %rsi	# D.29128,
	movq	%rax, %rdi	# D.29128,
	call	rtx_equal_p	#
	testl	%eax, %eax	# D.29124
	je	.L233	#,
	.loc 1 1745 0
	movq	-544(%rbp), %rax	# i2, tmp1573
	movq	32(%rax), %rax	# i2_1->fld[3].rtx, D.29128
	movq	8(%rax), %rax	# _454->fld[0].rtvec, D.29130
	movl	(%rax), %eax	# _455->num_elem, D.29124
	subl	$1, %eax	#, tmp1574
	movl	%eax, -464(%rbp)	# tmp1574, i
	jmp	.L234	#
.L237:
	.loc 1 1746 0
	movq	-544(%rbp), %rax	# i2, tmp1575
	movq	32(%rax), %rax	# i2_1->fld[3].rtx, D.29128
	movq	8(%rax), %rax	# _458->fld[0].rtvec, D.29130
	movl	-464(%rbp), %edx	# i, tmp1577
	movslq	%edx, %rdx	# tmp1577, tmp1576
	movq	8(%rax,%rdx,8), %rax	# _459->elem, D.29128
	movzwl	(%rax), %eax	# _460->code, D.29127
	cmpw	$49, %ax	#, D.29127
	je	.L235	#,
	.loc 1 1747 0
	jmp	.L236	#
.L235:
	.loc 1 1745 0
	subl	$1, -464(%rbp)	#, i
.L234:
	.loc 1 1745 0 is_stmt 0 discriminator 1
	cmpl	$1, -464(%rbp)	#, i
	jg	.L237	#,
.L236:
	.loc 1 1749 0 is_stmt 1
	cmpl	$1, -464(%rbp)	#, i
	jne	.L233	#,
	.loc 1 1757 0
	movq	-544(%rbp), %rax	# i2, tmp1578
	movq	32(%rax), %rax	# i2_1->fld[3].rtx, D.29128
	movq	8(%rax), %rax	# _463->fld[0].rtvec, D.29130
	movq	16(%rax), %rcx	# _464->elem, D.29128
	movq	-544(%rbp), %rax	# i2, tmp1579
	movl	8(%rax), %eax	# i2_1->fld[0].rtint, D.29124
	.loc 1 1756 0
	movq	-544(%rbp), %rdx	# i2, tmp1580
	movq	$0, 16(%rsp)	#,
	movq	$0, 8(%rsp)	#,
	movl	$-1, (%rsp)	#,
	movq	%rcx, %r9	# D.29128,
	movq	%rdx, %r8	# tmp1580,
	movl	$0, %ecx	#,
	movl	%eax, %edx	# D.29124,
	movl	$0, %esi	#,
	movl	$32, %edi	#,
	call	gen_rtx_fmt_iuueiee	#
	movq	%rax, -552(%rbp)	# tmp1581, i1
	movq	-552(%rbp), %rax	# i1, tmp1582
	movq	%rax, subst_prev_insn(%rip)	# tmp1582, subst_prev_insn
	.loc 1 1761 0
	movq	-544(%rbp), %rax	# i2, tmp1583
	movq	32(%rax), %rax	# i2_1->fld[3].rtx, D.29128
	movq	8(%rax), %rax	# _468->fld[0].rtvec, D.29130
	movq	8(%rax), %rax	# _469->elem, D.29128
	movq	-544(%rbp), %rdx	# i2, tmp1584
	addq	$32, %rdx	#, D.29131
	movq	%rax, %rsi	# D.29128,
	movq	%rdx, %rdi	# D.29131,
	call	do_SUBST	#
	.loc 1 1762 0
	movq	-552(%rbp), %rax	# i1, tmp1585
	movq	32(%rax), %rax	# i1_467->fld[3].rtx, D.29128
	movq	8(%rax), %rax	# _472->fld[0].rtx, D.29128
	movq	-544(%rbp), %rdx	# i2, tmp1586
	movq	32(%rdx), %rdx	# i2_1->fld[3].rtx, D.29128
	movq	16(%rdx), %rdx	# _474->fld[1].rtx, D.29128
	addq	$8, %rdx	#, D.29131
	movq	%rax, %rsi	# D.29128,
	movq	%rdx, %rdi	# D.29131,
	call	do_SUBST	#
.L233:
	.loc 1 1769 0
	leaq	-392(%rbp), %rdi	#, tmp1587
	leaq	-400(%rbp), %rcx	#, tmp1588
	movq	-552(%rbp), %rdx	# i1, tmp1589
	movq	-536(%rbp), %rsi	# i3, tmp1590
	movq	-544(%rbp), %rax	# i2, tmp1591
	movq	%rdi, %r9	# tmp1587,
	movq	%rcx, %r8	# tmp1588,
	movl	$0, %ecx	#,
	movq	%rax, %rdi	# tmp1591,
	call	can_combine_p	#
	testl	%eax, %eax	# D.29124
	je	.L238	#,
	.loc 1 1770 0
	cmpq	$0, -552(%rbp)	#, i1
	je	.L239	#,
	.loc 1 1770 0 is_stmt 0 discriminator 1
	leaq	-376(%rbp), %rdi	#, tmp1592
	leaq	-384(%rbp), %rcx	#, tmp1593
	movq	-544(%rbp), %rdx	# i2, tmp1594
	movq	-536(%rbp), %rsi	# i3, tmp1595
	movq	-552(%rbp), %rax	# i1, tmp1596
	movq	%rdi, %r9	# tmp1592,
	movq	%rcx, %r8	# tmp1593,
	movq	%rdx, %rcx	# tmp1594,
	movl	$0, %edx	#,
	movq	%rax, %rdi	# tmp1596,
	call	can_combine_p	#
	testl	%eax, %eax	# D.29124
	jne	.L239	#,
.L238:
	.loc 1 1772 0 is_stmt 1
	call	undo_all	#
	.loc 1 1773 0
	movl	$0, %eax	#, D.29123
	jmp	.L475	#
.L239:
	.loc 1 1778 0
	movq	-392(%rbp), %rdx	# i2src, i2src.138
	movq	-400(%rbp), %rax	# i2dest, i2dest.139
	movq	%rdx, %rsi	# i2src.138,
	movq	%rax, %rdi	# i2dest.139,
	call	reg_overlap_mentioned_p	#
	movl	%eax, -484(%rbp)	# tmp1597, i2dest_in_i2src
	.loc 1 1779 0
	cmpq	$0, -552(%rbp)	#, i1
	je	.L240	#,
	.loc 1 1779 0 is_stmt 0 discriminator 1
	movq	-376(%rbp), %rdx	# i1src, i1src.141
	movq	-384(%rbp), %rax	# i1dest, i1dest.142
	movq	%rdx, %rsi	# i1src.141,
	movq	%rax, %rdi	# i1dest.142,
	call	reg_overlap_mentioned_p	#
	testl	%eax, %eax	# D.29124
	je	.L240	#,
	.loc 1 1779 0 discriminator 3
	movl	$1, %eax	#, iftmp.140
	jmp	.L241	#
.L240:
	.loc 1 1779 0 discriminator 2
	movl	$0, %eax	#, iftmp.140
.L241:
	.loc 1 1779 0 discriminator 4
	movl	%eax, -480(%rbp)	# iftmp.140, i1dest_in_i1src
	.loc 1 1780 0 is_stmt 1 discriminator 4
	cmpq	$0, -552(%rbp)	#, i1
	je	.L242	#,
	.loc 1 1780 0 is_stmt 0 discriminator 1
	movq	-376(%rbp), %rdx	# i1src, i1src.144
	movq	-400(%rbp), %rax	# i2dest, i2dest.145
	movq	%rdx, %rsi	# i1src.144,
	movq	%rax, %rdi	# i2dest.145,
	call	reg_overlap_mentioned_p	#
	testl	%eax, %eax	# D.29124
	je	.L242	#,
	.loc 1 1780 0 discriminator 3
	movl	$1, %eax	#, iftmp.143
	jmp	.L243	#
.L242:
	.loc 1 1780 0 discriminator 2
	movl	$0, %eax	#, iftmp.143
.L243:
	.loc 1 1780 0 discriminator 4
	movl	%eax, -476(%rbp)	# iftmp.143, i2dest_in_i1src
	.loc 1 1784 0 is_stmt 1 discriminator 4
	cmpq	$0, -552(%rbp)	#, i1
	je	.L244	#,
	.loc 1 1784 0 is_stmt 0 discriminator 1
	movq	-392(%rbp), %rdx	# i2src, i2src.147
	movq	-384(%rbp), %rax	# i1dest, i1dest.148
	movq	%rdx, %rsi	# i2src.147,
	movq	%rax, %rdi	# i1dest.148,
	call	reg_overlap_mentioned_p	#
	testl	%eax, %eax	# D.29124
	jne	.L244	#,
	.loc 1 1784 0 discriminator 3
	movl	$1, %eax	#, iftmp.146
	jmp	.L245	#
.L244:
	.loc 1 1784 0 discriminator 2
	movl	$0, %eax	#, iftmp.146
.L245:
	.loc 1 1784 0 discriminator 4
	movl	%eax, -456(%rbp)	# iftmp.146, i1_feeds_i3
	.loc 1 1787 0 is_stmt 1 discriminator 4
	cmpq	$0, -552(%rbp)	#, i1
	je	.L246	#,
	.loc 1 1788 0
	cmpl	$0, -476(%rbp)	#, i2dest_in_i1src
	je	.L246	#,
	.loc 1 1787 0
	cmpl	$0, -456(%rbp)	#, i1_feeds_i3
	je	.L246	#,
	.loc 1 1787 0 is_stmt 0 discriminator 2
	movl	$1, %eax	#, iftmp.149
	jmp	.L247	#
.L246:
	.loc 1 1787 0 discriminator 1
	movl	$0, %eax	#, iftmp.149
.L247:
	.loc 1 1787 0 discriminator 3
	movq	-384(%rbp), %rcx	# i1dest, i1dest.150
	movq	-400(%rbp), %rdx	# i2dest, i2dest.151
	movq	-536(%rbp), %rsi	# i3, tmp1598
	addq	$32, %rsi	#, D.29131
	leaq	-408(%rbp), %r8	#, tmp1599
	movq	-536(%rbp), %rdi	# i3, tmp1600
	movq	%r8, %r9	# tmp1599,
	movl	%eax, %r8d	# iftmp.149,
	call	combinable_i3pat	#
	testl	%eax, %eax	# D.29124
	jne	.L248	#,
	.loc 1 1791 0 is_stmt 1
	call	undo_all	#
	.loc 1 1792 0
	movl	$0, %eax	#, D.29123
	jmp	.L475	#
.L248:
	.loc 1 1798 0
	movq	-392(%rbp), %rax	# i2src, i2src.152
	movzwl	(%rax), %eax	# i2src.152_507->code, D.29127
	cmpw	$78, %ax	#, D.29127
	je	.L249	#,
	.loc 1 1799 0
	cmpq	$0, -552(%rbp)	#, i1
	je	.L250	#,
	.loc 1 1799 0 is_stmt 0 discriminator 1
	movq	-376(%rbp), %rax	# i1src, i1src.153
	movzwl	(%rax), %eax	# i1src.153_509->code, D.29127
	cmpw	$78, %ax	#, D.29127
	je	.L249	#,
.L250:
	.loc 1 1800 0 is_stmt 1
	movq	-536(%rbp), %rax	# i3, tmp1601
	movq	32(%rax), %rax	# i3_143(D)->fld[3].rtx, D.29128
	movzwl	(%rax), %eax	# _511->code, D.29127
	cmpw	$47, %ax	#, D.29127
	jne	.L251	#,
	.loc 1 1801 0
	movq	-536(%rbp), %rax	# i3, tmp1602
	movq	32(%rax), %rax	# i3_143(D)->fld[3].rtx, D.29128
	movq	16(%rax), %rax	# _513->fld[1].rtx, D.29128
	movzwl	(%rax), %eax	# _514->code, D.29127
	cmpw	$78, %ax	#, D.29127
	jne	.L251	#,
.L249:
	.loc 1 1802 0
	movl	$1, -468(%rbp)	#, have_mult
.L251:
	.loc 1 1842 0
	movq	-400(%rbp), %rdx	# i2dest, i2dest.154
	movq	-536(%rbp), %rax	# i3, tmp1603
	movq	%rdx, %rsi	# i2dest.154,
	movq	%rax, %rdi	# tmp1603,
	call	dead_or_set_p	#
	testl	%eax, %eax	# D.29124
	sete	%al	#, D.29137
	movzbl	%al, %eax	# D.29137, tmp1604
	movl	%eax, -504(%rbp)	# tmp1604, added_sets_2
	.loc 1 1845 0
	cmpq	$0, -552(%rbp)	#, i1
	je	.L252	#,
	.loc 1 1845 0 is_stmt 0 discriminator 1
	cmpl	$0, -456(%rbp)	#, i1_feeds_i3
	je	.L253	#,
	.loc 1 1845 0 discriminator 3
	movq	-384(%rbp), %rdx	# i1dest, i1dest.156
	movq	-536(%rbp), %rax	# i3, tmp1605
	movq	%rdx, %rsi	# i1dest.156,
	movq	%rax, %rdi	# tmp1605,
	call	dead_or_set_p	#
	testl	%eax, %eax	# D.29124
	je	.L254	#,
	jmp	.L252	#
.L253:
	.loc 1 1846 0 is_stmt 1
	movq	-384(%rbp), %rdx	# i1dest, i1dest.158
	movq	-536(%rbp), %rax	# i3, tmp1606
	movq	%rdx, %rsi	# i1dest.158,
	movq	%rax, %rdi	# tmp1606,
	call	dead_or_set_p	#
	testl	%eax, %eax	# D.29124
	jne	.L255	#,
	.loc 1 1846 0 is_stmt 0 discriminator 1
	movq	-384(%rbp), %rdx	# i1dest, i1dest.159
	movq	-544(%rbp), %rax	# i2, tmp1607
	movq	%rdx, %rsi	# i1dest.159,
	movq	%rax, %rdi	# tmp1607,
	call	dead_or_set_p	#
	testl	%eax, %eax	# D.29124
	jne	.L255	#,
	.loc 1 1846 0 discriminator 3
	movl	$1, %eax	#, iftmp.157
	jmp	.L256	#
.L255:
	.loc 1 1846 0 discriminator 2
	movl	$0, %eax	#, iftmp.157
.L256:
	.loc 1 1845 0 is_stmt 1
	andl	$1, %eax	#, D.29137
	testb	%al, %al	# D.29137
	je	.L252	#,
.L254:
	.loc 1 1845 0 is_stmt 0 discriminator 4
	movl	$1, %eax	#, iftmp.155
	jmp	.L257	#
.L252:
	.loc 1 1845 0 discriminator 2
	movl	$0, %eax	#, iftmp.155
.L257:
	.loc 1 1845 0 discriminator 5
	movl	%eax, -508(%rbp)	# iftmp.155, added_sets_1
	.loc 1 1855 0 is_stmt 1 discriminator 5
	movq	-544(%rbp), %rax	# i2, tmp1608
	movq	32(%rax), %rax	# i2_1->fld[3].rtx, D.29128
	movzwl	(%rax), %eax	# _533->code, D.29127
	.loc 1 1857 0 discriminator 5
	cmpw	$39, %ax	#, D.29127
	jne	.L258	#,
	.loc 1 1856 0
	movq	-392(%rbp), %rdx	# i2src, i2src.161
	movq	-400(%rbp), %rax	# i2dest, i2dest.162
	.loc 1 1857 0
	movq	%rdx, %rcx	# i2src.161,
	movq	%rax, %rdx	# i2dest.162,
	movl	$0, %esi	#,
	movl	$47, %edi	#,
	call	gen_rtx_fmt_ee	#
	jmp	.L259	#
.L258:
	.loc 1 1857 0 is_stmt 0 discriminator 1
	movq	-544(%rbp), %rax	# i2, tmp1609
	movq	32(%rax), %rax	# i2_1->fld[3].rtx, iftmp.160
.L259:
	.loc 1 1855 0 is_stmt 1
	movq	%rax, -336(%rbp)	# iftmp.160, i2pat
	.loc 1 1859 0
	cmpl	$0, -504(%rbp)	#, added_sets_2
	je	.L260	#,
	.loc 1 1860 0
	movq	-336(%rbp), %rax	# i2pat, tmp1610
	movq	%rax, %rdi	# tmp1610,
	call	copy_rtx	#
	movq	%rax, -336(%rbp)	# tmp1611, i2pat
.L260:
	.loc 1 1862 0
	movl	combine_merges(%rip), %eax	# combine_merges, combine_merges.163
	addl	$1, %eax	#, combine_merges.164
	movl	%eax, combine_merges(%rip)	# combine_merges.164, combine_merges
	.loc 1 1866 0
	call	max_reg_num	#
	movl	%eax, -448(%rbp)	# tmp1612, maxreg
	.loc 1 1868 0
	movq	-536(%rbp), %rax	# i3, tmp1613
	movq	%rax, subst_insn(%rip)	# tmp1613, subst_insn
	.loc 1 1884 0
	movl	flag_expensive_optimizations(%rip), %eax	# flag_expensive_optimizations, flag_expensive_optimizations.165
	testl	%eax, %eax	# flag_expensive_optimizations.165
	je	.L261	#,
	.loc 1 1889 0
	cmpq	$0, -552(%rbp)	#, i1
	je	.L262	#,
	.loc 1 1891 0
	movq	-552(%rbp), %rax	# i1, tmp1614
	movl	8(%rax), %edx	# i1_3->fld[0].rtint, D.29124
	movl	max_uid_cuid(%rip), %eax	# max_uid_cuid, max_uid_cuid.167
	cmpl	%eax, %edx	# max_uid_cuid.167, D.29124
	jle	.L263	#,
	.loc 1 1891 0 is_stmt 0 discriminator 1
	movq	-552(%rbp), %rax	# i1, tmp1615
	movq	%rax, %rdi	# tmp1615,
	call	insn_cuid	#
	jmp	.L264	#
.L263:
	.loc 1 1891 0 discriminator 2
	movq	uid_cuid(%rip), %rdx	# uid_cuid, uid_cuid.168
	movq	-552(%rbp), %rax	# i1, tmp1616
	movl	8(%rax), %eax	# i1_3->fld[0].rtint, D.29124
	cltq
	salq	$2, %rax	#, D.29125
	addq	%rdx, %rax	# uid_cuid.168, D.29126
	movl	(%rax), %eax	# *_552, iftmp.166
.L264:
	movl	%eax, subst_low_cuid(%rip)	# iftmp.166, subst_low_cuid
	.loc 1 1892 0 is_stmt 1 discriminator 2
	movq	global_rtl(%rip), %rdx	# global_rtl, D.29128
	movq	global_rtl(%rip), %rsi	# global_rtl, D.29128
	movq	-376(%rbp), %rax	# i1src, i1src.169
	movl	$0, %r8d	#,
	movl	$0, %ecx	#,
	movq	%rax, %rdi	# i1src.169,
	call	subst	#
	movq	%rax, -376(%rbp)	# i1src.170, i1src
	jmp	.L261	#
.L262:
	.loc 1 1896 0
	movq	-544(%rbp), %rax	# i2, tmp1617
	movl	8(%rax), %edx	# i2_1->fld[0].rtint, D.29124
	movl	max_uid_cuid(%rip), %eax	# max_uid_cuid, max_uid_cuid.172
	cmpl	%eax, %edx	# max_uid_cuid.172, D.29124
	jle	.L265	#,
	.loc 1 1896 0 is_stmt 0 discriminator 1
	movq	-544(%rbp), %rax	# i2, tmp1618
	movq	%rax, %rdi	# tmp1618,
	call	insn_cuid	#
	jmp	.L266	#
.L265:
	.loc 1 1896 0 discriminator 2
	movq	uid_cuid(%rip), %rdx	# uid_cuid, uid_cuid.173
	movq	-544(%rbp), %rax	# i2, tmp1619
	movl	8(%rax), %eax	# i2_1->fld[0].rtint, D.29124
	cltq
	salq	$2, %rax	#, D.29125
	addq	%rdx, %rax	# uid_cuid.173, D.29126
	movl	(%rax), %eax	# *_565, iftmp.171
.L266:
	.loc 1 1896 0 discriminator 3
	movl	%eax, subst_low_cuid(%rip)	# iftmp.171, subst_low_cuid
	.loc 1 1897 0 is_stmt 1 discriminator 3
	movq	global_rtl(%rip), %rdx	# global_rtl, D.29128
	movq	global_rtl(%rip), %rsi	# global_rtl, D.29128
	movq	-392(%rbp), %rax	# i2src, i2src.174
	movl	$0, %r8d	#,
	movl	$0, %ecx	#,
	movq	%rax, %rdi	# i2src.174,
	call	subst	#
	movq	%rax, -392(%rbp)	# i2src.175, i2src
.L261:
	.loc 1 1913 0
	cmpq	$0, -552(%rbp)	#, i1
	jne	.L267	#,
	.loc 1 1913 0 is_stmt 0 discriminator 1
	cmpl	$0, -504(%rbp)	#, added_sets_2
	je	.L267	#,
	movq	-536(%rbp), %rax	# i3, tmp1620
	movq	32(%rax), %rax	# i3_143(D)->fld[3].rtx, D.29128
	movzwl	(%rax), %eax	# _571->code, D.29127
	cmpw	$47, %ax	#, D.29127
	jne	.L267	#,
	.loc 1 1914 0 is_stmt 1
	movq	-536(%rbp), %rax	# i3, tmp1621
	movq	32(%rax), %rax	# i3_143(D)->fld[3].rtx, D.29128
	movq	16(%rax), %rax	# _573->fld[1].rtx, D.29128
	movzwl	(%rax), %eax	# _574->code, D.29127
	cmpw	$74, %ax	#, D.29127
	jne	.L267	#,
	.loc 1 1915 0
	movq	-536(%rbp), %rax	# i3, tmp1622
	movq	32(%rax), %rax	# i3_143(D)->fld[3].rtx, D.29128
	movq	16(%rax), %rax	# _576->fld[1].rtx, D.29128
	movq	16(%rax), %rdx	# _577->fld[1].rtx, D.29128
	movq	const_int_rtx+512(%rip), %rax	# const_int_rtx, D.29128
	cmpq	%rax, %rdx	# D.29128, D.29128
	jne	.L267	#,
	.loc 1 1916 0
	movq	-400(%rbp), %rdx	# i2dest, i2dest.176
	movq	-536(%rbp), %rax	# i3, tmp1623
	movq	32(%rax), %rax	# i3_143(D)->fld[3].rtx, D.29128
	movq	16(%rax), %rax	# _581->fld[1].rtx, D.29128
	movq	8(%rax), %rax	# _582->fld[0].rtx, D.29128
	movq	%rdx, %rsi	# i2dest.176,
	movq	%rax, %rdi	# D.29128,
	call	rtx_equal_p	#
	testl	%eax, %eax	# D.29124
	je	.L267	#,
.LBB13:
	.loc 1 1923 0
	movq	-536(%rbp), %rax	# i3, tmp1624
	movq	32(%rax), %rax	# i3_143(D)->fld[3].rtx, newpat.177
	movq	%rax, -424(%rbp)	# newpat.177, newpat
	.loc 1 1924 0
	movq	-392(%rbp), %rax	# i2src, i2src.178
	movq	-424(%rbp), %rdx	# newpat, newpat.179
	movq	16(%rdx), %rdx	# newpat.179_587->fld[1].rtx, D.29128
	addq	$8, %rdx	#, D.29131
	movq	%rax, %rsi	# i2src.178,
	movq	%rdx, %rdi	# D.29131,
	call	do_SUBST	#
	.loc 1 1926 0
	movl	$1, -444(%rbp)	#, i2_is_used
	.loc 1 1934 0
	movq	undobuf+16(%rip), %rax	# undobuf.other_insn, D.29128
	testq	%rax, %rax	# D.29128
	jne	.L268	#,
	.loc 1 1935 0
	movq	-424(%rbp), %rax	# newpat, newpat.180
	movq	8(%rax), %rax	# newpat.180_592->fld[0].rtx, D.29128
	movq	-536(%rbp), %rcx	# i3, tmp1625
	movl	$undobuf+16, %edx	#,
	movq	%rcx, %rsi	# tmp1625,
	movq	%rax, %rdi	# D.29128,
	call	find_single_use	#
	movq	%rax, -144(%rbp)	# tmp1626, cc_use
	cmpq	$0, -144(%rbp)	#, cc_use
	je	.L268	#,
	.loc 1 1937 0
	movq	const_int_rtx+512(%rip), %rdx	# const_int_rtx, D.29128
	movq	-392(%rbp), %rcx	# i2src, i2src.181
	movq	-144(%rbp), %rax	# cc_use, tmp1627
	movq	(%rax), %rax	# *cc_use_594, D.29128
	movzwl	(%rax), %eax	# _597->code, D.29127
	movzwl	%ax, %eax	# D.29127, D.29138
	movq	%rcx, %rsi	# i2src.181,
	movl	%eax, %edi	# D.29138,
	call	ix86_cc_mode	#
	movl	%eax, -440(%rbp)	# tmp1628, compare_mode
	.loc 1 1939 0
	movq	-424(%rbp), %rax	# newpat, newpat.182
	movq	8(%rax), %rax	# newpat.182_601->fld[0].rtx, D.29128
	movzbl	2(%rax), %eax	# _602->mode, D.29133
	movzbl	%al, %eax	# D.29133, D.29129
	.loc 1 1937 0
	cmpl	%eax, -440(%rbp)	# D.29129, compare_mode
	je	.L268	#,
.LBB14:
	.loc 1 1941 0
	movq	-424(%rbp), %rax	# newpat, newpat.183
	movq	8(%rax), %rax	# newpat.183_605->fld[0].rtx, D.29128
	movl	8(%rax), %eax	# _606->fld[0].rtuint, tmp1629
	movl	%eax, -436(%rbp)	# tmp1629, regno
	.loc 1 1942 0
	movl	-436(%rbp), %edx	# regno, regno.184
	movl	-440(%rbp), %eax	# compare_mode, tmp1630
	movl	%edx, %esi	# regno.184,
	movl	%eax, %edi	# tmp1630,
	call	gen_rtx_REG	#
	movq	%rax, -136(%rbp)	# tmp1631, new_dest
	.loc 1 1944 0
	cmpl	$52, -436(%rbp)	#, regno
	jbe	.L269	#,
	.loc 1 1945 0
	movq	reg_n_info(%rip), %rax	# reg_n_info, reg_n_info.185
	movl	-436(%rbp), %edx	# regno, tmp1632
	addq	$4, %rdx	#, tmp1633
	movq	(%rax,%rdx,8), %rax	# reg_n_info.185_610->data.reg, D.29139
	movl	12(%rax), %eax	# _611->sets, D.29124
	cmpl	$1, %eax	#, D.29124
	jne	.L270	#,
	.loc 1 1945 0 is_stmt 0 discriminator 1
	cmpl	$0, -504(%rbp)	#, added_sets_2
	jne	.L270	#,
	.loc 1 1946 0 is_stmt 1
	movq	-424(%rbp), %rax	# newpat, newpat.186
	movq	8(%rax), %rax	# newpat.186_613->fld[0].rtx, D.29128
	movzbl	3(%rax), %eax	# *_614, D.29133
	andl	$8, %eax	#, D.29133
	testb	%al, %al	# D.29133
	jne	.L270	#,
.L269:
	.loc 1 1948 0
	cmpl	$52, -436(%rbp)	#, regno
	jbe	.L271	#,
	.loc 1 1949 0
	movq	cfun(%rip), %rax	# cfun, cfun.187
	movq	24(%rax), %rax	# cfun.187_617->emit, D.29140
	movq	80(%rax), %rax	# _618->x_regno_reg_rtx, D.29131
	movl	-436(%rbp), %edx	# regno, D.29125
	salq	$3, %rdx	#, D.29125
	addq	%rax, %rdx	# D.29131, D.29131
	movq	-136(%rbp), %rax	# new_dest, tmp1634
	movq	%rax, %rsi	# tmp1634,
	movq	%rdx, %rdi	# D.29131,
	call	do_SUBST	#
.L271:
	.loc 1 1951 0
	movq	-424(%rbp), %rax	# newpat, newpat.188
	leaq	8(%rax), %rdx	#, D.29131
	movq	-136(%rbp), %rax	# new_dest, tmp1635
	movq	%rax, %rsi	# tmp1635,
	movq	%rdx, %rdi	# D.29131,
	call	do_SUBST	#
	.loc 1 1952 0
	movq	-144(%rbp), %rax	# cc_use, tmp1636
	movq	(%rax), %rax	# *cc_use_594, D.29128
	leaq	8(%rax), %rdx	#, D.29131
	movq	-136(%rbp), %rax	# new_dest, tmp1637
	movq	%rax, %rsi	# tmp1637,
	movq	%rdx, %rdi	# D.29131,
	call	do_SUBST	#
	.loc 1 1953 0
	movq	const_int_rtx+512(%rip), %rcx	# const_int_rtx, D.29128
	movq	-392(%rbp), %rdx	# i2src, i2src.189
	movl	-440(%rbp), %eax	# compare_mode, tmp1638
	movl	%eax, %esi	# tmp1638,
	movl	$74, %edi	#,
	call	gen_rtx_fmt_ee	#
	movq	-424(%rbp), %rdx	# newpat, newpat.190
	addq	$16, %rdx	#, D.29131
	movq	%rax, %rsi	# D.29128,
	movq	%rdx, %rdi	# D.29131,
	call	do_SUBST	#
	jmp	.L268	#
.L270:
	.loc 1 1957 0
	movq	$0, undobuf+16(%rip)	#, undobuf.other_insn
.LBE14:
.LBE13:
	.loc 1 1917 0
	jmp	.L272	#
.L268:
	jmp	.L272	#
.L267:
	.loc 1 1964 0
	movl	$0, n_occurrences(%rip)	#, n_occurrences
	.loc 1 1970 0
	movq	-544(%rbp), %rax	# i2, tmp1639
	movl	8(%rax), %edx	# i2_1->fld[0].rtint, D.29124
	movl	max_uid_cuid(%rip), %eax	# max_uid_cuid, max_uid_cuid.192
	cmpl	%eax, %edx	# max_uid_cuid.192, D.29124
	jle	.L273	#,
	.loc 1 1970 0 is_stmt 0 discriminator 1
	movq	-544(%rbp), %rax	# i2, tmp1640
	movq	%rax, %rdi	# tmp1640,
	call	insn_cuid	#
	jmp	.L274	#
.L273:
	.loc 1 1970 0 discriminator 2
	movq	uid_cuid(%rip), %rdx	# uid_cuid, uid_cuid.193
	movq	-544(%rbp), %rax	# i2, tmp1641
	movl	8(%rax), %eax	# i2_1->fld[0].rtint, D.29124
	cltq
	salq	$2, %rax	#, D.29125
	addq	%rdx, %rax	# uid_cuid.193, D.29126
	movl	(%rax), %eax	# *_639, iftmp.191
.L274:
	.loc 1 1970 0 discriminator 3
	movl	%eax, subst_low_cuid(%rip)	# iftmp.191, subst_low_cuid
	.loc 1 1971 0 is_stmt 1 discriminator 3
	cmpl	$0, -456(%rbp)	#, i1_feeds_i3
	jne	.L275	#,
	.loc 1 1971 0 is_stmt 0 discriminator 1
	cmpl	$0, -480(%rbp)	#, i1dest_in_i1src
	je	.L275	#,
	.loc 1 1971 0 discriminator 3
	movl	$1, %eax	#, iftmp.194
	jmp	.L276	#
.L275:
	.loc 1 1971 0 discriminator 2
	movl	$0, %eax	#, iftmp.194
.L276:
	.loc 1 1971 0 discriminator 4
	movq	-392(%rbp), %rdx	# i2src, i2src.195
	movq	-400(%rbp), %rsi	# i2dest, i2dest.196
	movq	-536(%rbp), %rcx	# i3, tmp1642
	movq	32(%rcx), %rdi	# i3_143(D)->fld[3].rtx, D.29128
	movl	%eax, %r8d	# iftmp.194,
	movl	$0, %ecx	#,
	call	subst	#
	movq	%rax, -424(%rbp)	# newpat.197, newpat
	.loc 1 1973 0 is_stmt 1 discriminator 4
	movl	$1, -516(%rbp)	#, substed_i2
	.loc 1 1976 0 discriminator 4
	movl	n_occurrences(%rip), %eax	# n_occurrences, tmp1643
	movl	%eax, -444(%rbp)	# tmp1643, i2_is_used
.L272:
	.loc 1 1982 0
	cmpq	$0, -552(%rbp)	#, i1
	je	.L277	#,
	.loc 1 1982 0 is_stmt 0 discriminator 1
	movq	-424(%rbp), %rax	# newpat, newpat.198
	movzwl	(%rax), %eax	# newpat.198_649->code, D.29127
	cmpw	$49, %ax	#, D.29127
	je	.L277	#,
	.loc 1 1988 0 is_stmt 1
	movq	-384(%rbp), %rdx	# i1dest, i1dest.199
	leaq	-424(%rbp), %rax	#, tmp1644
	movl	$0, %r9d	#,
	movl	$0, %r8d	#,
	movl	$0, %ecx	#,
	movq	%rax, %rsi	# tmp1644,
	movl	$0, %edi	#,
	call	combinable_i3pat	#
	testl	%eax, %eax	# D.29124
	jne	.L278	#,
	.loc 1 1991 0
	call	undo_all	#
	.loc 1 1992 0
	movl	$0, %eax	#, D.29123
	jmp	.L475	#
.L278:
	.loc 1 1995 0
	movl	$0, n_occurrences(%rip)	#, n_occurrences
	.loc 1 1996 0
	movq	-552(%rbp), %rax	# i1, tmp1645
	movl	8(%rax), %edx	# i1_3->fld[0].rtint, D.29124
	movl	max_uid_cuid(%rip), %eax	# max_uid_cuid, max_uid_cuid.201
	cmpl	%eax, %edx	# max_uid_cuid.201, D.29124
	jle	.L279	#,
	.loc 1 1996 0 is_stmt 0 discriminator 1
	movq	-552(%rbp), %rax	# i1, tmp1646
	movq	%rax, %rdi	# tmp1646,
	call	insn_cuid	#
	jmp	.L280	#
.L279:
	.loc 1 1996 0 discriminator 2
	movq	uid_cuid(%rip), %rdx	# uid_cuid, uid_cuid.202
	movq	-552(%rbp), %rax	# i1, tmp1647
	movl	8(%rax), %eax	# i1_3->fld[0].rtint, D.29124
	cltq
	salq	$2, %rax	#, D.29125
	addq	%rdx, %rax	# uid_cuid.202, D.29126
	movl	(%rax), %eax	# *_661, iftmp.200
.L280:
	.loc 1 1996 0 discriminator 3
	movl	%eax, subst_low_cuid(%rip)	# iftmp.200, subst_low_cuid
	.loc 1 1997 0 is_stmt 1 discriminator 3
	movq	-376(%rbp), %rdx	# i1src, i1src.203
	movq	-384(%rbp), %rsi	# i1dest, i1dest.204
	movq	-424(%rbp), %rax	# newpat, newpat.205
	movl	$0, %r8d	#,
	movl	$0, %ecx	#,
	movq	%rax, %rdi	# newpat.205,
	call	subst	#
	movq	%rax, -424(%rbp)	# newpat.206, newpat
	.loc 1 1998 0 discriminator 3
	movl	$1, -512(%rbp)	#, substed_i1
.L277:
	.loc 1 2010 0
	call	max_reg_num	#
	.loc 1 2003 0
	cmpl	-448(%rbp), %eax	# maxreg, D.29124
	jne	.L281	#,
	.loc 1 2012 0
	movq	-424(%rbp), %rax	# newpat, newpat.207
	movzwl	(%rax), %eax	# newpat.207_669->code, D.29127
	cmpw	$49, %ax	#, D.29127
	je	.L281	#,
	.loc 1 2015 0
	movq	-424(%rbp), %rax	# newpat, newpat.208
	movzwl	(%rax), %eax	# newpat.208_671->code, D.29127
	cmpw	$47, %ax	#, D.29127
	jne	.L282	#,
	.loc 1 2015 0 is_stmt 0 discriminator 1
	movq	-424(%rbp), %rax	# newpat, newpat.209
	movq	16(%rax), %rax	# newpat.209_673->fld[1].rtx, D.29128
	movzwl	(%rax), %eax	# _674->code, D.29127
	cmpw	$78, %ax	#, D.29127
	jne	.L282	#,
	.loc 1 2016 0 is_stmt 1
	cmpl	$0, -468(%rbp)	#, have_mult
	jne	.L282	#,
.L281:
	.loc 1 2018 0
	call	undo_all	#
	.loc 1 2019 0
	movl	$0, %eax	#, D.29123
	jmp	.L475	#
.L282:
	.loc 1 2027 0
	cmpl	$0, -508(%rbp)	#, added_sets_1
	jne	.L283	#,
	.loc 1 2027 0 is_stmt 0 discriminator 1
	cmpl	$0, -504(%rbp)	#, added_sets_2
	je	.L198	#,
.L283:
	.loc 1 2029 0 is_stmt 1
	movl	combine_extras(%rip), %eax	# combine_extras, combine_extras.210
	addl	$1, %eax	#, combine_extras.211
	movl	%eax, combine_extras(%rip)	# combine_extras.211, combine_extras
	.loc 1 2031 0
	movq	-424(%rbp), %rax	# newpat, newpat.212
	movzwl	(%rax), %eax	# newpat.212_678->code, D.29127
	cmpw	$39, %ax	#, D.29127
	jne	.L284	#,
.LBB15:
	.loc 1 2033 0
	movq	-424(%rbp), %rax	# newpat, newpat.213
	movq	8(%rax), %rax	# newpat.213_680->fld[0].rtvec, tmp1648
	movq	%rax, -128(%rbp)	# tmp1648, old
	.loc 1 2034 0
	movq	-424(%rbp), %rax	# newpat, newpat.214
	movq	8(%rax), %rax	# newpat.214_682->fld[0].rtvec, D.29130
	movl	(%rax), %edx	# _683->num_elem, D.29124
	movl	-508(%rbp), %eax	# added_sets_1, tmp1649
	addl	%eax, %edx	# tmp1649, D.29124
	movl	-504(%rbp), %eax	# added_sets_2, tmp1653
	addl	%edx, %eax	# D.29124, tmp1652
	movl	%eax, -500(%rbp)	# tmp1652, total_sets
	.loc 1 2035 0
	movl	-500(%rbp), %eax	# total_sets, tmp1654
	movl	%eax, %edi	# tmp1654,
	call	rtvec_alloc	#
	movq	%rax, %rdx	# D.29130,
	movl	$0, %esi	#,
	movl	$39, %edi	#,
	call	gen_rtx_fmt_E	#
	movq	%rax, -424(%rbp)	# newpat.215, newpat
	.loc 1 2037 0
	movq	-128(%rbp), %rax	# old, tmp1655
	movl	(%rax), %eax	# old_681->num_elem, D.29124
	.loc 1 2036 0
	cltq
	leaq	0(,%rax,8), %rdx	#, D.29125
	movq	-128(%rbp), %rax	# old, tmp1656
	leaq	8(%rax), %rcx	#, D.29131
	movq	-424(%rbp), %rax	# newpat, newpat.216
	movq	8(%rax), %rax	# newpat.216_693->fld[0].rtvec, D.29130
	addq	$8, %rax	#, D.29141
	movq	%rcx, %rsi	# D.29131,
	movq	%rax, %rdi	# D.29141,
	call	memcpy	#
.LBE15:
	jmp	.L285	#
.L284:
.LBB16:
	.loc 1 2041 0
	movq	-424(%rbp), %rax	# newpat, tmp1657
	movq	%rax, -120(%rbp)	# tmp1657, old
	.loc 1 2042 0
	movl	-508(%rbp), %eax	# added_sets_1, tmp1658
	leal	1(%rax), %edx	#, D.29124
	movl	-504(%rbp), %eax	# added_sets_2, tmp1662
	addl	%edx, %eax	# D.29124, tmp1661
	movl	%eax, -500(%rbp)	# tmp1661, total_sets
	.loc 1 2043 0
	movl	-500(%rbp), %eax	# total_sets, tmp1663
	movl	%eax, %edi	# tmp1663,
	call	rtvec_alloc	#
	movq	%rax, %rdx	# D.29130,
	movl	$0, %esi	#,
	movl	$39, %edi	#,
	call	gen_rtx_fmt_E	#
	movq	%rax, -424(%rbp)	# newpat.217, newpat
	.loc 1 2044 0
	movq	-424(%rbp), %rax	# newpat, newpat.218
	movq	8(%rax), %rax	# newpat.218_701->fld[0].rtvec, D.29130
	movq	-120(%rbp), %rdx	# old, tmp1664
	movq	%rdx, 8(%rax)	# tmp1664, _702->elem
.L285:
.LBE16:
	.loc 1 2047 0
	cmpl	$0, -508(%rbp)	#, added_sets_1
	je	.L286	#,
	.loc 1 2048 0
	movq	-424(%rbp), %rax	# newpat, newpat.219
	movq	8(%rax), %rbx	# newpat.219_703->fld[0].rtvec, D.29130
	.loc 1 2049 0
	subl	$1, -500(%rbp)	#, total_sets
	movq	-552(%rbp), %rax	# i1, tmp1665
	movq	32(%rax), %rax	# i1_3->fld[3].rtx, D.29128
	movzwl	(%rax), %eax	# _706->code, D.29127
	.loc 1 2050 0
	cmpw	$39, %ax	#, D.29127
	jne	.L287	#,
	.loc 1 2050 0 is_stmt 0 discriminator 1
	movq	-376(%rbp), %rdx	# i1src, i1src.221
	movq	-384(%rbp), %rax	# i1dest, i1dest.222
	movq	%rdx, %rcx	# i1src.221,
	movq	%rax, %rdx	# i1dest.222,
	movl	$0, %esi	#,
	movl	$47, %edi	#,
	call	gen_rtx_fmt_ee	#
	jmp	.L288	#
.L287:
	.loc 1 2050 0 discriminator 2
	movq	-552(%rbp), %rax	# i1, tmp1666
	movq	32(%rax), %rax	# i1_3->fld[3].rtx, iftmp.220
.L288:
	.loc 1 2049 0 is_stmt 1
	movl	-500(%rbp), %edx	# total_sets, tmp1668
	movslq	%edx, %rdx	# tmp1668, tmp1667
	movq	%rax, 8(%rbx,%rdx,8)	# iftmp.220, _704->elem
.L286:
	.loc 1 2052 0
	cmpl	$0, -504(%rbp)	#, added_sets_2
	je	.L198	#,
	.loc 1 2057 0
	cmpq	$0, -552(%rbp)	#, i1
	jne	.L289	#,
	.loc 1 2058 0
	movq	-424(%rbp), %rax	# newpat, newpat.223
	movq	8(%rax), %rax	# newpat.223_712->fld[0].rtvec, D.29130
	subl	$1, -500(%rbp)	#, total_sets
	movl	-500(%rbp), %edx	# total_sets, tmp1670
	movslq	%edx, %rdx	# tmp1670, tmp1669
	movq	-336(%rbp), %rcx	# i2pat, tmp1671
	movq	%rcx, 8(%rax,%rdx,8)	# tmp1671, _713->elem
	jmp	.L198	#
.L289:
	.loc 1 2061 0
	movq	-424(%rbp), %rax	# newpat, newpat.224
	movq	8(%rax), %rbx	# newpat.224_715->fld[0].rtvec, D.29130
	.loc 1 2062 0
	subl	$1, -500(%rbp)	#, total_sets
	movq	-376(%rbp), %rdx	# i1src, i1src.225
	movq	-384(%rbp), %rsi	# i1dest, i1dest.226
	movq	-336(%rbp), %rax	# i2pat, tmp1672
	movl	$0, %r8d	#,
	movl	$0, %ecx	#,
	movq	%rax, %rdi	# tmp1672,
	call	subst	#
	movl	-500(%rbp), %edx	# total_sets, tmp1674
	movslq	%edx, %rdx	# tmp1674, tmp1673
	movq	%rax, 8(%rbx,%rdx,8)	# D.29128, _716->elem
.L198:
	.loc 1 2071 0
	movq	-424(%rbp), %rax	# newpat, newpat.227
	movq	%rax, %rdi	# newpat.227,
	call	mark_used_regs_combine	#
	.loc 1 2074 0
	leaq	-368(%rbp), %rdx	#, tmp1675
	movq	-536(%rbp), %rcx	# i3, tmp1676
	leaq	-424(%rbp), %rax	#, tmp1677
	movq	%rcx, %rsi	# tmp1676,
	movq	%rax, %rdi	# tmp1677,
	call	recog_for_combine	#
	movl	%eax, -496(%rbp)	# tmp1678, insn_code_number
	.loc 1 2085 0
	cmpl	$0, -496(%rbp)	#, insn_code_number
	jns	.L290	#,
	.loc 1 2085 0 is_stmt 0 discriminator 1
	movq	-424(%rbp), %rax	# newpat, newpat.228
	movzwl	(%rax), %eax	# newpat.228_725->code, D.29127
	cmpw	$39, %ax	#, D.29127
	jne	.L290	#,
	.loc 1 2086 0 is_stmt 1
	movq	-424(%rbp), %rax	# newpat, newpat.229
	movq	8(%rax), %rax	# newpat.229_727->fld[0].rtvec, D.29130
	movl	(%rax), %eax	# _728->num_elem, D.29124
	cmpl	$2, %eax	#, D.29124
	jne	.L290	#,
	.loc 1 2087 0
	movq	-424(%rbp), %rax	# newpat, newpat.230
	movq	8(%rax), %rax	# newpat.230_730->fld[0].rtvec, D.29130
	movq	8(%rax), %rax	# _731->elem, D.29128
	movzwl	(%rax), %eax	# _732->code, D.29127
	cmpw	$47, %ax	#, D.29127
	jne	.L290	#,
	.loc 1 2088 0
	movq	-424(%rbp), %rax	# newpat, newpat.231
	movq	8(%rax), %rax	# newpat.231_734->fld[0].rtvec, D.29130
	movq	16(%rax), %rax	# _735->elem, D.29128
	movzwl	(%rax), %eax	# _736->code, D.29127
	cmpw	$47, %ax	#, D.29127
	jne	.L290	#,
	.loc 1 2089 0
	movq	-424(%rbp), %rax	# newpat, newpat.232
	movq	8(%rax), %rax	# newpat.232_738->fld[0].rtvec, D.29130
	movq	16(%rax), %rax	# _739->elem, D.29128
	movq	8(%rax), %rax	# _740->fld[0].rtx, D.29128
	movzwl	(%rax), %eax	# _741->code, D.29127
	cmpw	$61, %ax	#, D.29127
	jne	.L290	#,
	.loc 1 2090 0
	movq	-424(%rbp), %rax	# newpat, newpat.233
	movq	8(%rax), %rax	# newpat.233_743->fld[0].rtvec, D.29130
	movq	16(%rax), %rax	# _744->elem, D.29128
	movq	8(%rax), %rdx	# _745->fld[0].rtx, D.29128
	movq	-536(%rbp), %rax	# i3, tmp1679
	movl	$10, %esi	#,
	movq	%rax, %rdi	# tmp1679,
	call	find_reg_note	#
	testq	%rax, %rax	# D.29128
	je	.L290	#,
	.loc 1 2091 0
	movq	-424(%rbp), %rax	# newpat, newpat.234
	movq	8(%rax), %rax	# newpat.234_748->fld[0].rtvec, D.29130
	movq	16(%rax), %rax	# _749->elem, D.29128
	movq	16(%rax), %rax	# _750->fld[1].rtx, D.29128
	movq	%rax, %rdi	# D.29128,
	call	side_effects_p	#
	testl	%eax, %eax	# D.29124
	jne	.L290	#,
	.loc 1 2092 0
	movq	-424(%rbp), %rax	# newpat, newpat.235
	movq	%rax, %rdi	# newpat.235,
	call	asm_noperands	#
	testl	%eax, %eax	# D.29124
	jns	.L290	#,
	.loc 1 2094 0
	movq	-424(%rbp), %rax	# newpat, newpat.236
	movq	8(%rax), %rax	# newpat.236_755->fld[0].rtvec, D.29130
	movq	8(%rax), %rax	# _756->elem, newpat.237
	movq	%rax, -424(%rbp)	# newpat.237, newpat
	.loc 1 2095 0
	leaq	-368(%rbp), %rdx	#, tmp1680
	movq	-536(%rbp), %rcx	# i3, tmp1681
	leaq	-424(%rbp), %rax	#, tmp1682
	movq	%rcx, %rsi	# tmp1681,
	movq	%rax, %rdi	# tmp1682,
	call	recog_for_combine	#
	movl	%eax, -496(%rbp)	# tmp1683, insn_code_number
	jmp	.L291	#
.L290:
	.loc 1 2098 0
	cmpl	$0, -496(%rbp)	#, insn_code_number
	jns	.L291	#,
	.loc 1 2098 0 is_stmt 0 discriminator 1
	movq	-424(%rbp), %rax	# newpat, newpat.238
	movzwl	(%rax), %eax	# newpat.238_759->code, D.29127
	cmpw	$39, %ax	#, D.29127
	jne	.L291	#,
	.loc 1 2099 0 is_stmt 1
	movq	-424(%rbp), %rax	# newpat, newpat.239
	movq	8(%rax), %rax	# newpat.239_761->fld[0].rtvec, D.29130
	movl	(%rax), %eax	# _762->num_elem, D.29124
	cmpl	$2, %eax	#, D.29124
	jne	.L291	#,
	.loc 1 2100 0
	movq	-424(%rbp), %rax	# newpat, newpat.240
	movq	8(%rax), %rax	# newpat.240_764->fld[0].rtvec, D.29130
	movq	8(%rax), %rax	# _765->elem, D.29128
	movzwl	(%rax), %eax	# _766->code, D.29127
	cmpw	$47, %ax	#, D.29127
	jne	.L291	#,
	.loc 1 2101 0
	movq	-424(%rbp), %rax	# newpat, newpat.241
	movq	8(%rax), %rax	# newpat.241_768->fld[0].rtvec, D.29130
	movq	16(%rax), %rax	# _769->elem, D.29128
	movzwl	(%rax), %eax	# _770->code, D.29127
	cmpw	$47, %ax	#, D.29127
	jne	.L291	#,
	.loc 1 2102 0
	movq	-424(%rbp), %rax	# newpat, newpat.242
	movq	8(%rax), %rax	# newpat.242_772->fld[0].rtvec, D.29130
	movq	8(%rax), %rax	# _773->elem, D.29128
	movq	8(%rax), %rax	# _774->fld[0].rtx, D.29128
	movzwl	(%rax), %eax	# _775->code, D.29127
	cmpw	$61, %ax	#, D.29127
	jne	.L291	#,
	.loc 1 2103 0
	movq	-424(%rbp), %rax	# newpat, newpat.243
	movq	8(%rax), %rax	# newpat.243_777->fld[0].rtvec, D.29130
	movq	8(%rax), %rax	# _778->elem, D.29128
	movq	8(%rax), %rdx	# _779->fld[0].rtx, D.29128
	movq	-536(%rbp), %rax	# i3, tmp1684
	movl	$10, %esi	#,
	movq	%rax, %rdi	# tmp1684,
	call	find_reg_note	#
	testq	%rax, %rax	# D.29128
	je	.L291	#,
	.loc 1 2104 0
	movq	-424(%rbp), %rax	# newpat, newpat.244
	movq	8(%rax), %rax	# newpat.244_782->fld[0].rtvec, D.29130
	movq	8(%rax), %rax	# _783->elem, D.29128
	movq	16(%rax), %rax	# _784->fld[1].rtx, D.29128
	movq	%rax, %rdi	# D.29128,
	call	side_effects_p	#
	testl	%eax, %eax	# D.29124
	jne	.L291	#,
	.loc 1 2105 0
	movq	-424(%rbp), %rax	# newpat, newpat.245
	movq	%rax, %rdi	# newpat.245,
	call	asm_noperands	#
	testl	%eax, %eax	# D.29124
	jns	.L291	#,
	.loc 1 2107 0
	movq	-424(%rbp), %rax	# newpat, newpat.246
	movq	8(%rax), %rax	# newpat.246_789->fld[0].rtvec, D.29130
	movq	16(%rax), %rax	# _790->elem, newpat.247
	movq	%rax, -424(%rbp)	# newpat.247, newpat
	.loc 1 2108 0
	leaq	-368(%rbp), %rdx	#, tmp1685
	movq	-536(%rbp), %rcx	# i3, tmp1686
	leaq	-424(%rbp), %rax	#, tmp1687
	movq	%rcx, %rsi	# tmp1686,
	movq	%rax, %rdi	# tmp1687,
	call	recog_for_combine	#
	movl	%eax, -496(%rbp)	# tmp1688, insn_code_number
.L291:
	.loc 1 2117 0
	cmpq	$0, -552(%rbp)	#, i1
	je	.L292	#,
	.loc 1 2117 0 is_stmt 0 discriminator 1
	cmpl	$0, -496(%rbp)	#, insn_code_number
	jns	.L292	#,
	movq	-424(%rbp), %rax	# newpat, newpat.248
	movzwl	(%rax), %eax	# newpat.248_793->code, D.29127
	cmpw	$47, %ax	#, D.29127
	jne	.L292	#,
	.loc 1 2118 0 is_stmt 1
	movq	-424(%rbp), %rax	# newpat, newpat.249
	movq	%rax, %rdi	# newpat.249,
	call	asm_noperands	#
	testl	%eax, %eax	# D.29124
	jns	.L292	#,
.LBB17:
	.loc 1 2121 0
	movq	-400(%rbp), %rax	# i2dest, tmp1689
	movq	%rax, -296(%rbp)	# tmp1689, ni2dest
	.loc 1 2127 0
	movq	-424(%rbp), %rax	# newpat, newpat.250
	movq	-536(%rbp), %rdx	# i3, tmp1690
	movq	%rdx, %rsi	# tmp1690,
	movq	%rax, %rdi	# newpat.250,
	call	split_insns	#
	movq	%rax, -352(%rbp)	# m_split.251, m_split
	.loc 1 2136 0
	movq	-352(%rbp), %rax	# m_split, m_split.252
	testq	%rax, %rax	# m_split.252
	jne	.L293	#,
	.loc 1 2136 0 is_stmt 0 discriminator 1
	movq	-424(%rbp), %rdx	# newpat, newpat.253
	movq	-296(%rbp), %rax	# ni2dest, tmp1691
	movq	%rdx, %rsi	# newpat.253,
	movq	%rax, %rdi	# tmp1691,
	call	reg_overlap_mentioned_p	#
	testl	%eax, %eax	# D.29124
	jne	.L293	#,
	.loc 1 2140 0 is_stmt 1
	movq	-424(%rbp), %rax	# newpat, newpat.254
	movq	8(%rax), %rax	# newpat.254_803->fld[0].rtx, D.29128
	movzbl	2(%rax), %edx	# _804->mode, D.29133
	movq	-400(%rbp), %rax	# i2dest, i2dest.255
	movzbl	2(%rax), %eax	# i2dest.255_806->mode, D.29133
	cmpb	%al, %dl	# D.29133, D.29133
	je	.L294	#,
	.loc 1 2141 0
	movq	-424(%rbp), %rax	# newpat, newpat.256
	movq	8(%rax), %rax	# newpat.256_808->fld[0].rtx, D.29128
	movzbl	2(%rax), %eax	# _809->mode, D.29133
	testb	%al, %al	# D.29133
	je	.L294	#,
	.loc 1 2142 0
	movq	-400(%rbp), %rax	# i2dest, i2dest.257
	movzwl	(%rax), %eax	# i2dest.257_811->code, D.29127
	cmpw	$61, %ax	#, D.29127
	jne	.L294	#,
	.loc 1 2143 0
	movq	-400(%rbp), %rax	# i2dest, i2dest.258
	movl	8(%rax), %eax	# i2dest.258_813->fld[0].rtuint, D.29129
	cmpl	$52, %eax	#, D.29129
	jbe	.L295	#,
	.loc 1 2144 0
	movq	reg_n_info(%rip), %rax	# reg_n_info, reg_n_info.259
	movq	-400(%rbp), %rdx	# i2dest, i2dest.260
	movl	8(%rdx), %edx	# i2dest.260_816->fld[0].rtuint, D.29129
	movl	%edx, %edx	# D.29129, tmp1692
	addq	$4, %rdx	#, tmp1693
	movq	(%rax,%rdx,8), %rax	# reg_n_info.259_815->data.reg, D.29139
	movl	12(%rax), %eax	# _818->sets, D.29124
	cmpl	$1, %eax	#, D.29124
	jne	.L294	#,
	.loc 1 2144 0 is_stmt 0 discriminator 1
	cmpl	$0, -504(%rbp)	#, added_sets_2
	jne	.L294	#,
	.loc 1 2145 0 is_stmt 1
	movq	-400(%rbp), %rax	# i2dest, i2dest.261
	movzbl	3(%rax), %eax	# *i2dest.261_820, D.29133
	andl	$8, %eax	#, D.29133
	testb	%al, %al	# D.29133
	jne	.L294	#,
.L295:
	.loc 1 2147 0
	movq	-400(%rbp), %rax	# i2dest, i2dest.262
	movl	8(%rax), %eax	# i2dest.262_823->fld[0].rtuint, D.29129
	.loc 1 2146 0
	movl	%eax, %edx	# D.29129, D.29124
	movq	-424(%rbp), %rax	# newpat, newpat.263
	movq	8(%rax), %rax	# newpat.263_826->fld[0].rtx, D.29128
	movzbl	2(%rax), %eax	# _827->mode, D.29133
	movzbl	%al, %eax	# D.29133, D.29136
	movl	%edx, %esi	# D.29124,
	movl	%eax, %edi	# D.29136,
	call	gen_rtx_REG	#
	movq	%rax, -296(%rbp)	# tmp1694, ni2dest
.L294:
	.loc 1 2149 0
	movq	-296(%rbp), %rax	# ni2dest, tmp1695
	movq	%rax, %rdx	# tmp1695,
	movl	$0, %esi	#,
	movl	$49, %edi	#,
	call	gen_rtx_fmt_e	#
	movq	%rax, %rdx	#, D.29128
	movq	-424(%rbp), %rax	# newpat, newpat.264
	movq	%rax, %rsi	# newpat.264,
	movl	$2, %edi	#,
	movl	$0, %eax	#,
	call	gen_rtvec	#
	movq	%rax, %rdx	# D.29130,
	movl	$0, %esi	#,
	movl	$39, %edi	#,
	call	gen_rtx_fmt_E	#
	movq	-536(%rbp), %rdx	# i3, tmp1696
	movq	%rdx, %rsi	# tmp1696,
	movq	%rax, %rdi	# D.29128,
	call	split_insns	#
	movq	%rax, -352(%rbp)	# m_split.265, m_split
	.loc 1 2157 0
	movq	-352(%rbp), %rax	# m_split, m_split.266
	testq	%rax, %rax	# m_split.266
	jne	.L293	#,
	.loc 1 2157 0 is_stmt 0 discriminator 1
	movq	-400(%rbp), %rax	# i2dest, i2dest.267
	cmpq	%rax, -296(%rbp)	# i2dest.267, ni2dest
	je	.L293	#,
	.loc 1 2159 0 is_stmt 1
	movq	-400(%rbp), %rax	# i2dest, tmp1697
	movq	%rax, -296(%rbp)	# tmp1697, ni2dest
	.loc 1 2160 0
	movq	-400(%rbp), %rax	# i2dest, i2dest.268
	movq	%rax, %rdx	# i2dest.268,
	movl	$0, %esi	#,
	movl	$49, %edi	#,
	call	gen_rtx_fmt_e	#
	movq	%rax, %rdx	#, D.29128
	movq	-424(%rbp), %rax	# newpat, newpat.269
	movq	%rax, %rsi	# newpat.269,
	movl	$2, %edi	#,
	movl	$0, %eax	#,
	call	gen_rtvec	#
	movq	%rax, %rdx	# D.29130,
	movl	$0, %esi	#,
	movl	$39, %edi	#,
	call	gen_rtx_fmt_E	#
	movq	-536(%rbp), %rdx	# i3, tmp1698
	movq	%rdx, %rsi	# tmp1698,
	movq	%rax, %rdi	# D.29128,
	call	split_insns	#
	movq	%rax, -352(%rbp)	# m_split.270, m_split
.L293:
	.loc 1 2171 0
	movq	-352(%rbp), %rax	# m_split, m_split.271
	testq	%rax, %rax	# m_split.271
	je	.L296	#,
	.loc 1 2171 0 is_stmt 0 discriminator 1
	movq	-352(%rbp), %rax	# m_split, m_split.272
	movzwl	(%rax), %eax	# m_split.272_846->code, D.29127
	cmpw	$24, %ax	#, D.29127
	jne	.L296	#,
	.loc 1 2172 0 is_stmt 1
	movq	-352(%rbp), %rax	# m_split, m_split.273
	movq	8(%rax), %rax	# m_split.273_848->fld[0].rtvec, D.29130
	movl	(%rax), %eax	# _849->num_elem, D.29124
	cmpl	$1, %eax	#, D.29124
	jne	.L296	#,
	.loc 1 2173 0
	movq	-352(%rbp), %rax	# m_split, m_split.274
	movq	8(%rax), %rax	# m_split.274_851->fld[0].rtvec, D.29130
	movq	8(%rax), %rax	# _852->elem, D.29128
	movq	32(%rax), %rax	# _853->fld[3].rtx, m_split.275
	movq	%rax, -352(%rbp)	# m_split.275, m_split
.L296:
	.loc 1 2175 0
	movq	-352(%rbp), %rax	# m_split, m_split.276
	testq	%rax, %rax	# m_split.276
	je	.L297	#,
	.loc 1 2175 0 is_stmt 0 discriminator 1
	movq	-352(%rbp), %rax	# m_split, m_split.277
	movzwl	(%rax), %eax	# m_split.277_856->code, D.29127
	cmpw	$24, %ax	#, D.29127
	je	.L297	#,
	.loc 1 2177 0 is_stmt 1
	leaq	-368(%rbp), %rdx	#, tmp1699
	movq	-536(%rbp), %rcx	# i3, tmp1700
	leaq	-352(%rbp), %rax	#, tmp1701
	movq	%rcx, %rsi	# tmp1700,
	movq	%rax, %rdi	# tmp1701,
	call	recog_for_combine	#
	movl	%eax, -496(%rbp)	# tmp1702, insn_code_number
	.loc 1 2178 0
	cmpl	$0, -496(%rbp)	#, insn_code_number
	js	.L298	#,
	.loc 1 2179 0
	movq	-352(%rbp), %rax	# m_split, m_split.278
	movq	%rax, -424(%rbp)	# m_split.278, newpat
	.loc 1 2178 0
	jmp	.L299	#
.L298:
	.loc 1 2178 0 is_stmt 0 discriminator 1
	jmp	.L299	#
.L297:
	.loc 1 2181 0 is_stmt 1
	movq	-352(%rbp), %rax	# m_split, m_split.279
	testq	%rax, %rax	# m_split.279
	je	.L299	#,
	.loc 1 2181 0 is_stmt 0 discriminator 1
	movq	-352(%rbp), %rax	# m_split, m_split.280
	movzwl	(%rax), %eax	# m_split.280_861->code, D.29127
	cmpw	$24, %ax	#, D.29127
	jne	.L299	#,
	.loc 1 2182 0 is_stmt 1
	movq	-352(%rbp), %rax	# m_split, m_split.281
	movq	8(%rax), %rax	# m_split.281_863->fld[0].rtvec, D.29130
	movl	(%rax), %eax	# _864->num_elem, D.29124
	cmpl	$2, %eax	#, D.29124
	jne	.L299	#,
	.loc 1 2183 0
	movq	-544(%rbp), %rax	# i2, tmp1703
	movq	%rax, %rdi	# tmp1703,
	call	next_real_insn	#
	cmpq	-536(%rbp), %rax	# i3, D.29128
	je	.L300	#,
	.loc 1 2185 0
	movq	-544(%rbp), %rax	# i2, tmp1704
	movl	8(%rax), %edx	# i2_1->fld[0].rtint, D.29124
	movl	max_uid_cuid(%rip), %eax	# max_uid_cuid, max_uid_cuid.283
	.loc 1 2184 0
	cmpl	%eax, %edx	# max_uid_cuid.283, D.29124
	jle	.L301	#,
	.loc 1 2184 0 is_stmt 0 discriminator 1
	movq	-544(%rbp), %rax	# i2, tmp1705
	movq	%rax, %rdi	# tmp1705,
	call	insn_cuid	#
	jmp	.L302	#
.L301:
	.loc 1 2185 0 is_stmt 1 discriminator 2
	movq	uid_cuid(%rip), %rdx	# uid_cuid, uid_cuid.284
	movq	-544(%rbp), %rax	# i2, tmp1706
	movl	8(%rax), %eax	# i2_1->fld[0].rtint, D.29124
	cltq
	salq	$2, %rax	#, D.29125
	addq	%rdx, %rax	# uid_cuid.284, D.29126
	.loc 1 2184 0 discriminator 2
	movl	(%rax), %eax	# *_874, iftmp.282
.L302:
	.loc 1 2184 0 is_stmt 0 discriminator 3
	movq	-352(%rbp), %rdx	# m_split, m_split.285
	movq	8(%rdx), %rdx	# m_split.285_876->fld[0].rtvec, D.29130
	movq	8(%rdx), %rdx	# _877->elem, D.29128
	movq	32(%rdx), %rdx	# _878->fld[3].rtx, D.29128
	movl	%eax, %esi	# iftmp.282,
	movq	%rdx, %rdi	# D.29128,
	call	use_crosses_set_p	#
	testl	%eax, %eax	# D.29124
	jne	.L299	#,
.L300:
.LBB18:
	.loc 1 2188 0 is_stmt 1
	movq	-352(%rbp), %rax	# m_split, m_split.286
	movq	8(%rax), %rax	# m_split.286_881->fld[0].rtvec, D.29130
	movq	16(%rax), %rax	# _882->elem, D.29128
	movq	32(%rax), %rax	# _883->fld[3].rtx, newi3pat.287
	movq	%rax, -344(%rbp)	# newi3pat.287, newi3pat
	.loc 1 2189 0
	movq	-352(%rbp), %rax	# m_split, m_split.288
	movq	8(%rax), %rax	# m_split.288_885->fld[0].rtvec, D.29130
	movq	8(%rax), %rax	# _886->elem, D.29128
	movq	32(%rax), %rax	# _887->fld[3].rtx, newi2pat.289
	movq	%rax, -416(%rbp)	# newi2pat.289, newi2pat
	.loc 1 2191 0
	movq	-352(%rbp), %rax	# m_split, m_split.291
	movq	8(%rax), %rax	# m_split.291_889->fld[0].rtvec, D.29130
	movq	16(%rax), %rax	# _890->elem, D.29128
	movzwl	(%rax), %eax	# _891->code, D.29127
	movzwl	%ax, %eax	# D.29127, D.29124
	cltq
	movzbl	rtx_class(%rax), %eax	# rtx_class, D.29132
	cmpb	$105, %al	#, D.29132
	jne	.L303	#,
	.loc 1 2191 0 is_stmt 0 discriminator 1
	movq	-352(%rbp), %rax	# m_split, m_split.293
	movq	8(%rax), %rax	# m_split.293_895->fld[0].rtvec, D.29130
	movq	16(%rax), %rax	# _896->elem, D.29128
	movq	32(%rax), %rax	# _897->fld[3].rtx, D.29128
	movzwl	(%rax), %eax	# _898->code, D.29127
	cmpw	$47, %ax	#, D.29127
	jne	.L304	#,
	.loc 1 2191 0 discriminator 3
	movq	-352(%rbp), %rax	# m_split, m_split.294
	movq	8(%rax), %rax	# m_split.294_900->fld[0].rtvec, D.29130
	movq	16(%rax), %rax	# _901->elem, D.29128
	movq	32(%rax), %rax	# _902->fld[3].rtx, iftmp.292
	jmp	.L306	#
.L304:
	.loc 1 2191 0 discriminator 4
	movq	-352(%rbp), %rax	# m_split, m_split.295
	movq	8(%rax), %rax	# m_split.295_904->fld[0].rtvec, D.29130
	movq	16(%rax), %rax	# _905->elem, D.29128
	movq	32(%rax), %rdx	# _906->fld[3].rtx, D.29128
	movq	-352(%rbp), %rax	# m_split, m_split.296
	movq	8(%rax), %rax	# m_split.296_908->fld[0].rtvec, D.29130
	movq	16(%rax), %rax	# _909->elem, D.29128
	movq	%rdx, %rsi	# D.29128,
	movq	%rax, %rdi	# D.29128,
	call	single_set_2	#
	jmp	.L306	#
.L303:
	.loc 1 2191 0 discriminator 2
	movl	$0, %eax	#, iftmp.290
.L306:
	.loc 1 2191 0 discriminator 5
	movq	%rax, -112(%rbp)	# iftmp.290, i3set
	.loc 1 2192 0 is_stmt 1 discriminator 5
	movq	-352(%rbp), %rax	# m_split, m_split.298
	movq	8(%rax), %rax	# m_split.298_915->fld[0].rtvec, D.29130
	movq	8(%rax), %rax	# _916->elem, D.29128
	movzwl	(%rax), %eax	# _917->code, D.29127
	movzwl	%ax, %eax	# D.29127, D.29124
	cltq
	movzbl	rtx_class(%rax), %eax	# rtx_class, D.29132
	cmpb	$105, %al	#, D.29132
	jne	.L307	#,
	.loc 1 2192 0 is_stmt 0 discriminator 1
	movq	-352(%rbp), %rax	# m_split, m_split.300
	movq	8(%rax), %rax	# m_split.300_921->fld[0].rtvec, D.29130
	movq	8(%rax), %rax	# _922->elem, D.29128
	movq	32(%rax), %rax	# _923->fld[3].rtx, D.29128
	movzwl	(%rax), %eax	# _924->code, D.29127
	cmpw	$47, %ax	#, D.29127
	jne	.L308	#,
	.loc 1 2192 0 discriminator 3
	movq	-352(%rbp), %rax	# m_split, m_split.301
	movq	8(%rax), %rax	# m_split.301_926->fld[0].rtvec, D.29130
	movq	8(%rax), %rax	# _927->elem, D.29128
	movq	32(%rax), %rax	# _928->fld[3].rtx, iftmp.299
	jmp	.L310	#
.L308:
	.loc 1 2192 0 discriminator 4
	movq	-352(%rbp), %rax	# m_split, m_split.302
	movq	8(%rax), %rax	# m_split.302_930->fld[0].rtvec, D.29130
	movq	8(%rax), %rax	# _931->elem, D.29128
	movq	32(%rax), %rdx	# _932->fld[3].rtx, D.29128
	movq	-352(%rbp), %rax	# m_split, m_split.303
	movq	8(%rax), %rax	# m_split.303_934->fld[0].rtvec, D.29130
	movq	8(%rax), %rax	# _935->elem, D.29128
	movq	%rdx, %rsi	# D.29128,
	movq	%rax, %rdi	# D.29128,
	call	single_set_2	#
	jmp	.L310	#
.L307:
	.loc 1 2192 0 discriminator 2
	movl	$0, %eax	#, iftmp.297
.L310:
	.loc 1 2192 0 discriminator 5
	movq	%rax, -104(%rbp)	# iftmp.297, i2set
	.loc 1 2198 0 is_stmt 1 discriminator 5
	movq	-400(%rbp), %rax	# i2dest, i2dest.304
	movl	8(%rax), %eax	# i2dest.304_941->fld[0].rtuint, D.29129
	cmpl	$52, %eax	#, D.29129
	jbe	.L311	#,
	.loc 1 2199 0
	movq	cfun(%rip), %rax	# cfun, cfun.305
	movq	24(%rax), %rax	# cfun.305_943->emit, D.29140
	movq	80(%rax), %rdx	# _944->x_regno_reg_rtx, D.29131
	movq	-400(%rbp), %rax	# i2dest, i2dest.306
	movl	8(%rax), %eax	# i2dest.306_946->fld[0].rtuint, D.29129
	movl	%eax, %eax	# D.29129, D.29125
	salq	$3, %rax	#, D.29125
	addq	%rax, %rdx	# D.29125, D.29131
	movq	-296(%rbp), %rax	# ni2dest, tmp1709
	movq	%rax, %rsi	# tmp1709,
	movq	%rdx, %rdi	# D.29131,
	call	do_SUBST	#
.L311:
	.loc 1 2201 0
	leaq	-360(%rbp), %rdx	#, tmp1710
	movq	-544(%rbp), %rcx	# i2, tmp1711
	leaq	-416(%rbp), %rax	#, tmp1712
	movq	%rcx, %rsi	# tmp1711,
	movq	%rax, %rdi	# tmp1712,
	call	recog_for_combine	#
	movl	%eax, -492(%rbp)	# tmp1713, i2_code_number
	.loc 1 2207 0
	cmpl	$0, -492(%rbp)	#, i2_code_number
	js	.L312	#,
	.loc 1 2207 0 is_stmt 0 discriminator 1
	cmpq	$0, -104(%rbp)	#, i2set
	je	.L312	#,
	cmpq	$0, -112(%rbp)	#, i3set
	je	.L312	#,
	.loc 1 2208 0 is_stmt 1
	movq	-544(%rbp), %rax	# i2, tmp1714
	movq	%rax, %rdi	# tmp1714,
	call	next_real_insn	#
	cmpq	-536(%rbp), %rax	# i3, D.29128
	je	.L313	#,
	.loc 1 2209 0
	movq	-104(%rbp), %rax	# i2set, tmp1715
	movq	8(%rax), %rax	# i2set_940->fld[0].rtx, D.29128
	movq	-536(%rbp), %rdx	# i3, tmp1716
	movq	-544(%rbp), %rcx	# i2, tmp1717
	movq	%rcx, %rsi	# tmp1717,
	movq	%rax, %rdi	# D.29128,
	call	reg_used_between_p	#
	testl	%eax, %eax	# D.29124
	jne	.L312	#,
.L313:
	.loc 1 2210 0
	leaq	-368(%rbp), %rdx	#, tmp1718
	movq	-536(%rbp), %rcx	# i3, tmp1719
	leaq	-344(%rbp), %rax	#, tmp1720
	movq	%rcx, %rsi	# tmp1719,
	movq	%rax, %rdi	# tmp1720,
	call	recog_for_combine	#
	movl	%eax, -496(%rbp)	# tmp1721, insn_code_number
.L312:
	.loc 1 2212 0
	cmpl	$0, -496(%rbp)	#, insn_code_number
	js	.L314	#,
	.loc 1 2213 0
	movq	-344(%rbp), %rax	# newi3pat, newi3pat.307
	movq	%rax, -424(%rbp)	# newi3pat.307, newpat
.L314:
	.loc 1 2218 0
	cmpl	$0, -496(%rbp)	#, insn_code_number
	js	.L299	#,
.LBB19:
	.loc 1 2220 0
	movq	-112(%rbp), %rax	# i3set, tmp1722
	movq	8(%rax), %rax	# i3set_914->fld[0].rtx, tmp1723
	movq	%rax, -288(%rbp)	# tmp1723, new_i3_dest
	.loc 1 2221 0
	movq	-104(%rbp), %rax	# i2set, tmp1724
	movq	8(%rax), %rax	# i2set_940->fld[0].rtx, tmp1725
	movq	%rax, -280(%rbp)	# tmp1725, new_i2_dest
	.loc 1 2223 0
	jmp	.L316	#
.L317:
	.loc 1 2226 0
	movq	-288(%rbp), %rax	# new_i3_dest, tmp1726
	movq	8(%rax), %rax	# new_i3_dest_45->fld[0].rtx, tmp1727
	movq	%rax, -288(%rbp)	# tmp1727, new_i3_dest
.L316:
	.loc 1 2223 0 discriminator 1
	movq	-288(%rbp), %rax	# new_i3_dest, tmp1728
	movzwl	(%rax), %eax	# new_i3_dest_45->code, D.29127
	cmpw	$133, %ax	#, D.29127
	je	.L317	#,
	.loc 1 2224 0
	movq	-288(%rbp), %rax	# new_i3_dest, tmp1729
	movzwl	(%rax), %eax	# new_i3_dest_45->code, D.29127
	cmpw	$64, %ax	#, D.29127
	je	.L317	#,
	.loc 1 2225 0
	movq	-288(%rbp), %rax	# new_i3_dest, tmp1730
	movzwl	(%rax), %eax	# new_i3_dest_45->code, D.29127
	cmpw	$63, %ax	#, D.29127
	je	.L317	#,
	.loc 1 2228 0
	jmp	.L318	#
.L319:
	.loc 1 2231 0
	movq	-280(%rbp), %rax	# new_i2_dest, tmp1731
	movq	8(%rax), %rax	# new_i2_dest_46->fld[0].rtx, tmp1732
	movq	%rax, -280(%rbp)	# tmp1732, new_i2_dest
.L318:
	.loc 1 2228 0 discriminator 1
	movq	-280(%rbp), %rax	# new_i2_dest, tmp1733
	movzwl	(%rax), %eax	# new_i2_dest_46->code, D.29127
	cmpw	$133, %ax	#, D.29127
	je	.L319	#,
	.loc 1 2229 0
	movq	-280(%rbp), %rax	# new_i2_dest, tmp1734
	movzwl	(%rax), %eax	# new_i2_dest_46->code, D.29127
	cmpw	$64, %ax	#, D.29127
	je	.L319	#,
	.loc 1 2230 0
	movq	-280(%rbp), %rax	# new_i2_dest, tmp1735
	movzwl	(%rax), %eax	# new_i2_dest_46->code, D.29127
	cmpw	$63, %ax	#, D.29127
	je	.L319	#,
	.loc 1 2233 0
	movq	-288(%rbp), %rax	# new_i3_dest, tmp1736
	movzwl	(%rax), %eax	# new_i3_dest_45->code, D.29127
	cmpw	$61, %ax	#, D.29127
	jne	.L299	#,
	.loc 1 2234 0
	movq	-280(%rbp), %rax	# new_i2_dest, tmp1737
	movzwl	(%rax), %eax	# new_i2_dest_46->code, D.29127
	cmpw	$61, %ax	#, D.29127
	jne	.L299	#,
	.loc 1 2235 0
	movq	-288(%rbp), %rax	# new_i3_dest, tmp1738
	movl	8(%rax), %edx	# new_i3_dest_45->fld[0].rtuint, D.29129
	movq	-280(%rbp), %rax	# new_i2_dest, tmp1739
	movl	8(%rax), %eax	# new_i2_dest_46->fld[0].rtuint, D.29129
	cmpl	%eax, %edx	# D.29129, D.29129
	jne	.L299	#,
	.loc 1 2236 0
	movq	reg_n_info(%rip), %rax	# reg_n_info, reg_n_info.308
	movq	-280(%rbp), %rdx	# new_i2_dest, tmp1740
	movl	8(%rdx), %edx	# new_i2_dest_46->fld[0].rtuint, D.29129
	movl	%edx, %edx	# D.29129, tmp1741
	addq	$4, %rdx	#, tmp1742
	movq	(%rax,%rdx,8), %rax	# reg_n_info.308_969->data.reg, D.29139
	movl	12(%rax), %edx	# _971->sets, D.29124
	addl	$1, %edx	#, D.29124
	movl	%edx, 12(%rax)	# D.29124, _971->sets
.L299:
.LBE19:
.LBE18:
	.loc 1 2243 0
	cmpl	$0, -496(%rbp)	#, insn_code_number
	jns	.L320	#,
	.loc 1 2243 0 is_stmt 0 discriminator 1
	movq	-536(%rbp), %rdx	# i3, tmp1743
	leaq	-424(%rbp), %rax	#, tmp1744
	movq	%rdx, %rsi	# tmp1743,
	movq	%rax, %rdi	# tmp1744,
	call	find_split_point	#
	movq	%rax, -96(%rbp)	# tmp1745, split
	cmpq	$0, -96(%rbp)	#, split
	je	.L320	#,
	.loc 1 2249 0 is_stmt 1
	movq	-96(%rbp), %rax	# split, tmp1746
	movq	(%rax), %rax	# *split_976, D.29128
	movzbl	2(%rax), %edx	# _977->mode, D.29133
	movq	-400(%rbp), %rax	# i2dest, i2dest.309
	movzbl	2(%rax), %eax	# i2dest.309_979->mode, D.29133
	cmpb	%al, %dl	# D.29133, D.29133
	je	.L321	#,
	.loc 1 2250 0
	movq	-96(%rbp), %rax	# split, tmp1747
	movq	(%rax), %rax	# *split_976, D.29128
	movzbl	2(%rax), %eax	# _981->mode, D.29133
	testb	%al, %al	# D.29133
	je	.L321	#,
	.loc 1 2251 0
	movq	-400(%rbp), %rax	# i2dest, i2dest.310
	movl	8(%rax), %eax	# i2dest.310_983->fld[0].rtuint, D.29129
	cmpl	$52, %eax	#, D.29129
	jbe	.L321	#,
	.loc 1 2252 0
	movq	reg_n_info(%rip), %rax	# reg_n_info, reg_n_info.311
	movq	-400(%rbp), %rdx	# i2dest, i2dest.312
	movl	8(%rdx), %edx	# i2dest.312_986->fld[0].rtuint, D.29129
	movl	%edx, %edx	# D.29129, tmp1748
	addq	$4, %rdx	#, tmp1749
	movq	(%rax,%rdx,8), %rax	# reg_n_info.311_985->data.reg, D.29139
	movl	12(%rax), %eax	# _988->sets, D.29124
	cmpl	$1, %eax	#, D.29124
	jne	.L320	#,
	.loc 1 2252 0 is_stmt 0 discriminator 1
	cmpl	$0, -504(%rbp)	#, added_sets_2
	jne	.L320	#,
	.loc 1 2253 0 is_stmt 1
	movq	-400(%rbp), %rax	# i2dest, i2dest.313
	movzbl	3(%rax), %eax	# *i2dest.313_990, D.29133
	andl	$8, %eax	#, D.29133
	testb	%al, %al	# D.29133
	jne	.L320	#,
.L321:
	.loc 1 2254 0
	movq	-544(%rbp), %rax	# i2, tmp1750
	movq	%rax, %rdi	# tmp1750,
	call	next_real_insn	#
	cmpq	-536(%rbp), %rax	# i3, D.29128
	je	.L322	#,
	.loc 1 2255 0
	movq	-544(%rbp), %rax	# i2, tmp1751
	movl	8(%rax), %edx	# i2_1->fld[0].rtint, D.29124
	movl	max_uid_cuid(%rip), %eax	# max_uid_cuid, max_uid_cuid.315
	cmpl	%eax, %edx	# max_uid_cuid.315, D.29124
	jle	.L323	#,
	.loc 1 2255 0 is_stmt 0 discriminator 1
	movq	-544(%rbp), %rax	# i2, tmp1752
	movq	%rax, %rdi	# tmp1752,
	call	insn_cuid	#
	jmp	.L324	#
.L323:
	.loc 1 2255 0 discriminator 2
	movq	uid_cuid(%rip), %rdx	# uid_cuid, uid_cuid.316
	movq	-544(%rbp), %rax	# i2, tmp1753
	movl	8(%rax), %eax	# i2_1->fld[0].rtint, D.29124
	cltq
	salq	$2, %rax	#, D.29125
	addq	%rdx, %rax	# uid_cuid.316, D.29126
	movl	(%rax), %eax	# *_1001, iftmp.314
.L324:
	.loc 1 2255 0 discriminator 3
	movq	-96(%rbp), %rdx	# split, tmp1754
	movq	(%rdx), %rdx	# *split_976, D.29128
	movl	%eax, %esi	# iftmp.314,
	movq	%rdx, %rdi	# D.29128,
	call	use_crosses_set_p	#
	testl	%eax, %eax	# D.29124
	jne	.L320	#,
.L322:
	.loc 1 2258 0 is_stmt 1
	movq	-424(%rbp), %rdx	# newpat, newpat.317
	movq	-400(%rbp), %rax	# i2dest, i2dest.318
	movq	%rdx, %rsi	# newpat.317,
	movq	%rax, %rdi	# i2dest.318,
	call	reg_referenced_p	#
	testl	%eax, %eax	# D.29124
	jne	.L320	#,
.LBB20:
	.loc 1 2260 0
	movq	-400(%rbp), %rax	# i2dest, tmp1755
	movq	%rax, -272(%rbp)	# tmp1755, newdest
	.loc 1 2261 0
	movq	-96(%rbp), %rax	# split, tmp1756
	movq	(%rax), %rax	# *split_976, D.29128
	movzwl	(%rax), %eax	# _1009->code, D.29127
	movzwl	%ax, %eax	# D.29127, tmp1757
	movl	%eax, -460(%rbp)	# tmp1757, split_code
	.loc 1 2262 0
	movq	-96(%rbp), %rax	# split, tmp1758
	movq	(%rax), %rax	# *split_976, D.29128
	movzbl	2(%rax), %eax	# _1012->mode, D.29133
	movzbl	%al, %eax	# D.29133, tmp1759
	movl	%eax, -432(%rbp)	# tmp1759, split_mode
	.loc 1 2266 0
	movq	-400(%rbp), %rax	# i2dest, i2dest.319
	movzbl	2(%rax), %eax	# i2dest.319_1015->mode, D.29133
	movzbl	%al, %eax	# D.29133, D.29129
	cmpl	-432(%rbp), %eax	# split_mode, D.29129
	je	.L325	#,
	.loc 1 2266 0 is_stmt 0 discriminator 1
	cmpl	$0, -432(%rbp)	#, split_mode
	je	.L325	#,
	.loc 1 2268 0 is_stmt 1
	movq	-400(%rbp), %rax	# i2dest, i2dest.320
	movl	8(%rax), %eax	# i2dest.320_1018->fld[0].rtuint, D.29129
	movl	%eax, %edx	# D.29129, D.29124
	movl	-432(%rbp), %eax	# split_mode, tmp1760
	movl	%edx, %esi	# D.29124,
	movl	%eax, %edi	# tmp1760,
	call	gen_rtx_REG	#
	movq	%rax, -272(%rbp)	# tmp1761, newdest
	.loc 1 2270 0
	movq	-400(%rbp), %rax	# i2dest, i2dest.321
	movl	8(%rax), %eax	# i2dest.321_1022->fld[0].rtuint, D.29129
	cmpl	$52, %eax	#, D.29129
	jbe	.L325	#,
	.loc 1 2271 0
	movq	cfun(%rip), %rax	# cfun, cfun.322
	movq	24(%rax), %rax	# cfun.322_1024->emit, D.29140
	movq	80(%rax), %rdx	# _1025->x_regno_reg_rtx, D.29131
	movq	-400(%rbp), %rax	# i2dest, i2dest.323
	movl	8(%rax), %eax	# i2dest.323_1027->fld[0].rtuint, D.29129
	movl	%eax, %eax	# D.29129, D.29125
	salq	$3, %rax	#, D.29125
	addq	%rax, %rdx	# D.29125, D.29131
	movq	-272(%rbp), %rax	# newdest, tmp1762
	movq	%rax, %rsi	# tmp1762,
	movq	%rdx, %rdi	# D.29131,
	call	do_SUBST	#
.L325:
	.loc 1 2277 0
	cmpl	$78, -460(%rbp)	#, split_code
	jne	.L326	#,
	.loc 1 2278 0
	movq	-96(%rbp), %rax	# split, tmp1763
	movq	(%rax), %rax	# *split_976, D.29128
	movq	16(%rax), %rax	# _1032->fld[1].rtx, D.29128
	movzwl	(%rax), %eax	# _1033->code, D.29127
	cmpw	$54, %ax	#, D.29127
	jne	.L326	#,
	.loc 1 2279 0
	movq	-96(%rbp), %rax	# split, tmp1764
	movq	(%rax), %rax	# *split_976, D.29128
	movq	16(%rax), %rax	# _1035->fld[1].rtx, D.29128
	movq	8(%rax), %rax	# _1036->fld[0].rtwint, D.29135
	testq	%rax, %rax	# D.29135
	jle	.L326	#,
	.loc 1 2280 0
	movq	-96(%rbp), %rax	# split, tmp1765
	movq	(%rax), %rax	# *split_976, D.29128
	movq	16(%rax), %rax	# _1038->fld[1].rtx, D.29128
	movq	8(%rax), %rax	# _1039->fld[0].rtwint, D.29135
	movq	%rax, %rdi	# D.29125,
	call	exact_log2_wide	#
	movl	%eax, -464(%rbp)	# tmp1766, i
	cmpl	$0, -464(%rbp)	#, i
	js	.L326	#,
	.loc 1 2282 0
	movl	-464(%rbp), %eax	# i, tmp1767
	cltq
	movq	%rax, %rsi	# D.29135,
	movl	$0, %edi	#,
	call	gen_rtx_CONST_INT	#
	movq	%rax, %rcx	#, D.29128
	movq	-96(%rbp), %rax	# split, tmp1768
	movq	(%rax), %rax	# *split_976, D.29128
	movq	8(%rax), %rdx	# _1045->fld[0].rtx, D.29128
	movl	-432(%rbp), %eax	# split_mode, tmp1769
	movl	%eax, %esi	# tmp1769,
	movl	$87, %edi	#,
	call	gen_rtx_fmt_ee	#
	movq	%rax, %rdx	#, D.29128
	movq	-96(%rbp), %rax	# split, tmp1770
	movq	%rdx, %rsi	# D.29128,
	movq	%rax, %rdi	# tmp1770,
	call	do_SUBST	#
	.loc 1 2286 0
	movq	-96(%rbp), %rax	# split, tmp1771
	movq	(%rax), %rax	# *split_976, D.29128
	movzwl	(%rax), %eax	# _1048->code, D.29127
	movzwl	%ax, %eax	# D.29127, tmp1772
	movl	%eax, -460(%rbp)	# tmp1772, split_code
.L326:
	.loc 1 2292 0
	cmpl	$63, -460(%rbp)	#, split_code
	jne	.L327	#,
	.loc 1 2292 0 is_stmt 0 discriminator 1
	movq	-96(%rbp), %rax	# split, tmp1773
	movq	(%rax), %rax	# *split_976, D.29128
	movq	8(%rax), %rax	# _1051->fld[0].rtx, D.29128
	movzwl	(%rax), %eax	# _1052->code, D.29127
	cmpw	$66, %ax	#, D.29127
	jne	.L327	#,
	.loc 1 2293 0 is_stmt 1
	movq	-96(%rbp), %rax	# split, tmp1774
	movq	(%rax), %rax	# *split_976, D.29128
	movq	8(%rax), %rdx	# _1054->fld[0].rtx, D.29128
	movl	-432(%rbp), %eax	# split_mode, tmp1775
	movl	%eax, %esi	# tmp1775,
	movl	$121, %edi	#,
	call	gen_rtx_fmt_e	#
	movq	%rax, %rdx	#, D.29128
	movq	-96(%rbp), %rax	# split, tmp1776
	movq	%rdx, %rsi	# D.29128,
	movq	%rax, %rdi	# tmp1776,
	call	do_SUBST	#
.L327:
	.loc 1 2297 0
	movq	-96(%rbp), %rax	# split, tmp1777
	movq	(%rax), %rdx	# *split_976, D.29128
	movq	-272(%rbp), %rax	# newdest, tmp1778
	movq	%rdx, %rcx	# D.29128,
	movq	%rax, %rdx	# tmp1778,
	movl	$0, %esi	#,
	movl	$47, %edi	#,
	call	gen_rtx_fmt_ee	#
	movq	%rax, -416(%rbp)	# newi2pat.324, newi2pat
	.loc 1 2298 0
	movq	-272(%rbp), %rdx	# newdest, tmp1779
	movq	-96(%rbp), %rax	# split, tmp1780
	movq	%rdx, %rsi	# tmp1779,
	movq	%rax, %rdi	# tmp1780,
	call	do_SUBST	#
	.loc 1 2299 0
	leaq	-360(%rbp), %rdx	#, tmp1781
	movq	-544(%rbp), %rcx	# i2, tmp1782
	leaq	-416(%rbp), %rax	#, tmp1783
	movq	%rcx, %rsi	# tmp1782,
	movq	%rax, %rdi	# tmp1783,
	call	recog_for_combine	#
	movl	%eax, -492(%rbp)	# tmp1784, i2_code_number
	.loc 1 2303 0
	cmpl	$0, -492(%rbp)	#, i2_code_number
	js	.L320	#,
	.loc 1 2303 0 is_stmt 0 discriminator 1
	cmpl	$78, -460(%rbp)	#, split_code
	jne	.L328	#,
	cmpl	$0, -468(%rbp)	#, have_mult
	je	.L320	#,
.L328:
	.loc 1 2304 0 is_stmt 1
	leaq	-368(%rbp), %rdx	#, tmp1785
	movq	-536(%rbp), %rcx	# i3, tmp1786
	leaq	-424(%rbp), %rax	#, tmp1787
	movq	%rcx, %rsi	# tmp1786,
	movq	%rax, %rdi	# tmp1787,
	call	recog_for_combine	#
	movl	%eax, -496(%rbp)	# tmp1788, insn_code_number
.LBE20:
.LBE17:
	.loc 1 2119 0
	jmp	.L329	#
.L320:
	jmp	.L329	#
.L292:
	.loc 1 2319 0
	cmpq	$0, -552(%rbp)	#, i1
	je	.L330	#,
	.loc 1 2319 0 is_stmt 0 discriminator 1
	cmpl	$0, -496(%rbp)	#, insn_code_number
	jns	.L330	#,
	movq	-424(%rbp), %rax	# newpat, newpat.325
	movq	%rax, %rdi	# newpat.325,
	call	asm_noperands	#
	testl	%eax, %eax	# D.29124
	jns	.L330	#,
	.loc 1 2320 0 is_stmt 1
	movq	-424(%rbp), %rax	# newpat, newpat.326
	movzwl	(%rax), %eax	# newpat.326_1063->code, D.29127
	cmpw	$39, %ax	#, D.29127
	jne	.L330	#,
	.loc 1 2321 0
	movq	-424(%rbp), %rax	# newpat, newpat.327
	movq	8(%rax), %rax	# newpat.327_1065->fld[0].rtvec, D.29130
	movl	(%rax), %eax	# _1066->num_elem, D.29124
	cmpl	$2, %eax	#, D.29124
	jne	.L330	#,
	.loc 1 2322 0
	movq	-424(%rbp), %rax	# newpat, newpat.328
	movq	8(%rax), %rax	# newpat.328_1068->fld[0].rtvec, D.29130
	movq	8(%rax), %rax	# _1069->elem, D.29128
	movzwl	(%rax), %eax	# _1070->code, D.29127
	cmpw	$47, %ax	#, D.29127
	jne	.L330	#,
	.loc 1 2323 0
	movq	-424(%rbp), %rax	# newpat, newpat.329
	movq	8(%rax), %rax	# newpat.329_1072->fld[0].rtvec, D.29130
	movq	8(%rax), %rax	# _1073->elem, D.29128
	movq	16(%rax), %rax	# _1074->fld[1].rtx, D.29128
	movzwl	(%rax), %eax	# _1075->code, D.29127
	cmpw	$120, %ax	#, D.29127
	jne	.L330	#,
	.loc 1 2324 0
	movq	-424(%rbp), %rax	# newpat, newpat.330
	movq	8(%rax), %rax	# newpat.330_1077->fld[0].rtvec, D.29130
	movq	16(%rax), %rax	# _1078->elem, D.29128
	movzwl	(%rax), %eax	# _1079->code, D.29127
	cmpw	$47, %ax	#, D.29127
	jne	.L330	#,
	.loc 1 2326 0
	movq	-424(%rbp), %rax	# newpat, newpat.331
	movq	8(%rax), %rax	# newpat.331_1081->fld[0].rtvec, D.29130
	movq	8(%rax), %rax	# _1082->elem, D.29128
	movq	16(%rax), %rax	# _1083->fld[1].rtx, D.29128
	.loc 1 2325 0
	movq	8(%rax), %rdx	# _1084->fld[0].rtx, D.29128
	movq	-424(%rbp), %rax	# newpat, newpat.332
	movq	8(%rax), %rax	# newpat.332_1086->fld[0].rtvec, D.29130
	movq	16(%rax), %rax	# _1087->elem, D.29128
	movq	16(%rax), %rax	# _1088->fld[1].rtx, D.29128
	movq	%rdx, %rsi	# D.29128,
	movq	%rax, %rdi	# D.29128,
	call	rtx_equal_p	#
	testl	%eax, %eax	# D.29124
	je	.L330	#,
	.loc 1 2328 0
	movq	-544(%rbp), %rax	# i2, tmp1789
	movl	8(%rax), %edx	# i2_1->fld[0].rtint, D.29124
	movl	max_uid_cuid(%rip), %eax	# max_uid_cuid, max_uid_cuid.334
	.loc 1 2327 0
	cmpl	%eax, %edx	# max_uid_cuid.334, D.29124
	jle	.L331	#,
	.loc 1 2327 0 is_stmt 0 discriminator 1
	movq	-544(%rbp), %rax	# i2, tmp1790
	movq	%rax, %rdi	# tmp1790,
	call	insn_cuid	#
	jmp	.L332	#
.L331:
	.loc 1 2328 0 is_stmt 1 discriminator 2
	movq	uid_cuid(%rip), %rdx	# uid_cuid, uid_cuid.335
	movq	-544(%rbp), %rax	# i2, tmp1791
	movl	8(%rax), %eax	# i2_1->fld[0].rtint, D.29124
	cltq
	salq	$2, %rax	#, D.29125
	addq	%rdx, %rax	# uid_cuid.335, D.29126
	.loc 1 2327 0 discriminator 2
	movl	(%rax), %eax	# *_1098, iftmp.333
.L332:
	.loc 1 2327 0 is_stmt 0 discriminator 3
	movq	-424(%rbp), %rdx	# newpat, newpat.336
	movq	8(%rdx), %rdx	# newpat.336_1100->fld[0].rtvec, D.29130
	movq	16(%rdx), %rdx	# _1101->elem, D.29128
	movq	16(%rdx), %rdx	# _1102->fld[1].rtx, D.29128
	movl	%eax, %esi	# iftmp.333,
	movq	%rdx, %rdi	# D.29128,
	call	use_crosses_set_p	#
	testl	%eax, %eax	# D.29124
	jne	.L330	#,
	.loc 1 2329 0 is_stmt 1
	movq	-424(%rbp), %rax	# newpat, newpat.337
	movq	8(%rax), %rax	# newpat.337_1105->fld[0].rtvec, D.29130
	movq	16(%rax), %rax	# _1106->elem, D.29128
	movq	8(%rax), %rax	# _1107->fld[0].rtx, D.29128
	movzwl	(%rax), %eax	# _1108->code, D.29127
	cmpw	$133, %ax	#, D.29127
	je	.L330	#,
	.loc 1 2330 0
	movq	-424(%rbp), %rax	# newpat, newpat.338
	movq	8(%rax), %rax	# newpat.338_1110->fld[0].rtvec, D.29130
	movq	16(%rax), %rax	# _1111->elem, D.29128
	movq	8(%rax), %rax	# _1112->fld[0].rtx, D.29128
	movzwl	(%rax), %eax	# _1113->code, D.29127
	cmpw	$64, %ax	#, D.29127
	je	.L330	#,
	.loc 1 2331 0
	movq	-424(%rbp), %rax	# newpat, newpat.339
	movq	8(%rax), %rax	# newpat.339_1115->fld[0].rtvec, D.29130
	movq	16(%rax), %rax	# _1116->elem, D.29128
	movq	8(%rax), %rax	# _1117->fld[0].rtx, tmp1792
	movq	%rax, -328(%rbp)	# tmp1792, temp
	.loc 1 2332 0
	movq	-328(%rbp), %rax	# temp, tmp1793
	movzwl	(%rax), %eax	# temp_1118->code, D.29127
	.loc 1 2336 0
	cmpw	$61, %ax	#, D.29127
	jne	.L333	#,
	.loc 1 2333 0
	movq	reg_nonzero_bits(%rip), %rdx	# reg_nonzero_bits, reg_nonzero_bits.341
	movq	-328(%rbp), %rax	# temp, tmp1794
	movl	8(%rax), %eax	# temp_1118->fld[0].rtuint, D.29129
	movl	%eax, %eax	# D.29129, D.29125
	salq	$3, %rax	#, D.29125
	addq	%rdx, %rax	# reg_nonzero_bits.341, D.29142
	movq	(%rax), %rax	# *_1124, D.29125
	testq	%rax, %rax	# D.29125
	je	.L333	#,
	.loc 1 2334 0
	movq	-328(%rbp), %rax	# temp, tmp1795
	movzbl	2(%rax), %eax	# temp_1118->mode, D.29133
	movzbl	%al, %eax	# D.29133, D.29124
	cltq
	movzwl	mode_bitsize(%rax,%rax), %eax	# mode_bitsize, D.29127
	movzwl	%ax, %edx	# D.29127, D.29124
	movl	target_flags(%rip), %eax	# target_flags, target_flags.343
	andl	$33554432, %eax	#, D.29124
	testl	%eax, %eax	# D.29124
	je	.L334	#,
	.loc 1 2334 0 is_stmt 0 discriminator 1
	movl	$64, %eax	#, iftmp.342
	jmp	.L335	#
.L334:
	.loc 1 2334 0 discriminator 2
	movl	$32, %eax	#, iftmp.342
.L335:
	.loc 1 2334 0 discriminator 3
	cmpl	%eax, %edx	# iftmp.342, D.29124
	jge	.L333	#,
	.loc 1 2335 0 is_stmt 1
	movq	-328(%rbp), %rax	# temp, tmp1797
	movzbl	2(%rax), %eax	# temp_1118->mode, D.29133
	movzbl	%al, %eax	# D.29133, D.29124
	cltq
	movzwl	mode_bitsize(%rax,%rax), %eax	# mode_bitsize, D.29127
	cmpw	$31, %ax	#, D.29127
	ja	.L333	#,
	.loc 1 2336 0
	movq	reg_nonzero_bits(%rip), %rdx	# reg_nonzero_bits, reg_nonzero_bits.344
	movq	-328(%rbp), %rax	# temp, tmp1799
	movl	8(%rax), %eax	# temp_1118->fld[0].rtuint, D.29129
	movl	%eax, %eax	# D.29129, D.29125
	salq	$3, %rax	#, D.29125
	addq	%rdx, %rax	# reg_nonzero_bits.344, D.29142
	movq	(%rax), %rdx	# *_1141, D.29125
	.loc 1 2337 0
	movl	word_mode(%rip), %eax	# word_mode, word_mode.345
	cltq
	movq	mode_mask_array(,%rax,8), %rax	# mode_mask_array, D.29125
	.loc 1 2336 0
	cmpq	%rax, %rdx	# D.29125, D.29125
	je	.L333	#,
	.loc 1 2336 0 is_stmt 0 discriminator 2
	movl	$1, %eax	#, iftmp.340
	jmp	.L336	#
.L333:
	.loc 1 2336 0 discriminator 1
	movl	$0, %eax	#, iftmp.340
.L336:
	.loc 1 2331 0 is_stmt 1
	testl	%eax, %eax	# iftmp.340
	jne	.L330	#,
	.loc 1 2338 0
	movq	-424(%rbp), %rax	# newpat, newpat.347
	movq	8(%rax), %rax	# newpat.347_1148->fld[0].rtvec, D.29130
	movq	16(%rax), %rax	# _1149->elem, D.29128
	movq	8(%rax), %rax	# _1150->fld[0].rtx, D.29128
	movzwl	(%rax), %eax	# _1151->code, D.29127
	cmpw	$63, %ax	#, D.29127
	jne	.L337	#,
	.loc 1 2339 0
	movq	-424(%rbp), %rax	# newpat, newpat.348
	movq	8(%rax), %rax	# newpat.348_1153->fld[0].rtvec, D.29130
	movq	16(%rax), %rax	# _1154->elem, D.29128
	movq	8(%rax), %rax	# _1155->fld[0].rtx, D.29128
	movq	8(%rax), %rax	# _1156->fld[0].rtx, tmp1801
	movq	%rax, -328(%rbp)	# tmp1801, temp
	.loc 1 2340 0
	movq	-328(%rbp), %rax	# temp, tmp1802
	movzwl	(%rax), %eax	# temp_1157->code, D.29127
	.loc 1 2344 0
	cmpw	$61, %ax	#, D.29127
	jne	.L338	#,
	.loc 1 2341 0
	movq	reg_nonzero_bits(%rip), %rdx	# reg_nonzero_bits, reg_nonzero_bits.350
	movq	-328(%rbp), %rax	# temp, tmp1803
	movl	8(%rax), %eax	# temp_1157->fld[0].rtuint, D.29129
	movl	%eax, %eax	# D.29129, D.29125
	salq	$3, %rax	#, D.29125
	addq	%rdx, %rax	# reg_nonzero_bits.350, D.29142
	movq	(%rax), %rax	# *_1163, D.29125
	testq	%rax, %rax	# D.29125
	je	.L338	#,
	.loc 1 2342 0
	movq	-328(%rbp), %rax	# temp, tmp1804
	movzbl	2(%rax), %eax	# temp_1157->mode, D.29133
	movzbl	%al, %eax	# D.29133, D.29124
	cltq
	movzwl	mode_bitsize(%rax,%rax), %eax	# mode_bitsize, D.29127
	movzwl	%ax, %edx	# D.29127, D.29124
	movl	target_flags(%rip), %eax	# target_flags, target_flags.352
	andl	$33554432, %eax	#, D.29124
	testl	%eax, %eax	# D.29124
	je	.L339	#,
	.loc 1 2342 0 is_stmt 0 discriminator 1
	movl	$64, %eax	#, iftmp.351
	jmp	.L340	#
.L339:
	.loc 1 2342 0 discriminator 2
	movl	$32, %eax	#, iftmp.351
.L340:
	.loc 1 2342 0 discriminator 3
	cmpl	%eax, %edx	# iftmp.351, D.29124
	jge	.L338	#,
	.loc 1 2343 0 is_stmt 1
	movq	-328(%rbp), %rax	# temp, tmp1806
	movzbl	2(%rax), %eax	# temp_1157->mode, D.29133
	movzbl	%al, %eax	# D.29133, D.29124
	cltq
	movzwl	mode_bitsize(%rax,%rax), %eax	# mode_bitsize, D.29127
	cmpw	$31, %ax	#, D.29127
	ja	.L338	#,
	.loc 1 2344 0
	movq	reg_nonzero_bits(%rip), %rdx	# reg_nonzero_bits, reg_nonzero_bits.353
	movq	-328(%rbp), %rax	# temp, tmp1808
	movl	8(%rax), %eax	# temp_1157->fld[0].rtuint, D.29129
	movl	%eax, %eax	# D.29129, D.29125
	salq	$3, %rax	#, D.29125
	addq	%rdx, %rax	# reg_nonzero_bits.353, D.29142
	movq	(%rax), %rdx	# *_1180, D.29125
	.loc 1 2345 0
	movl	word_mode(%rip), %eax	# word_mode, word_mode.354
	cltq
	movq	mode_mask_array(,%rax,8), %rax	# mode_mask_array, D.29125
	.loc 1 2344 0
	cmpq	%rax, %rdx	# D.29125, D.29125
	je	.L338	#,
	.loc 1 2344 0 is_stmt 0 discriminator 2
	movl	$1, %eax	#, iftmp.349
	jmp	.L341	#
.L338:
	.loc 1 2344 0 discriminator 1
	movl	$0, %eax	#, iftmp.349
.L341:
	.loc 1 2338 0 is_stmt 1
	testl	%eax, %eax	# iftmp.349
	jne	.L330	#,
.L337:
	.loc 1 2347 0
	movq	-424(%rbp), %rax	# newpat, newpat.356
	movq	8(%rax), %rax	# newpat.356_1187->fld[0].rtvec, D.29130
	movq	16(%rax), %rax	# _1188->elem, D.29128
	.loc 1 2346 0
	movq	16(%rax), %rdx	# _1189->fld[1].rtx, D.29128
	movq	-424(%rbp), %rax	# newpat, newpat.357
	movq	8(%rax), %rax	# newpat.357_1191->fld[0].rtvec, D.29130
	movq	16(%rax), %rax	# _1192->elem, D.29128
	movq	8(%rax), %rax	# _1193->fld[0].rtx, D.29128
	movq	%rdx, %rsi	# D.29128,
	movq	%rax, %rdi	# D.29128,
	call	reg_overlap_mentioned_p	#
	testl	%eax, %eax	# D.29124
	jne	.L330	#,
	.loc 1 2349 0
	movq	-424(%rbp), %rax	# newpat, newpat.358
	movq	8(%rax), %rax	# newpat.358_1196->fld[0].rtvec, D.29130
	movq	8(%rax), %rax	# _1197->elem, D.29128
	.loc 1 2348 0
	movq	8(%rax), %rdx	# _1198->fld[0].rtx, D.29128
	movq	-536(%rbp), %rax	# i3, tmp1810
	movl	$10, %esi	#,
	movq	%rax, %rdi	# tmp1810,
	call	find_reg_note	#
	testq	%rax, %rax	# D.29128
	jne	.L330	#,
.LBB21:
	.loc 1 2353 0
	movq	-424(%rbp), %rax	# newpat, newpat.359
	movq	8(%rax), %rax	# newpat.359_1201->fld[0].rtvec, D.29130
	movq	8(%rax), %rax	# _1202->elem, newi2pat.360
	movq	%rax, -416(%rbp)	# newi2pat.360, newi2pat
	.loc 1 2354 0
	movq	-424(%rbp), %rax	# newpat, newpat.361
	movq	8(%rax), %rax	# newpat.361_1204->fld[0].rtvec, D.29130
	movq	8(%rax), %rax	# _1205->elem, D.29128
	movq	8(%rax), %rax	# _1206->fld[0].rtx, tmp1811
	movq	%rax, -88(%rbp)	# tmp1811, ni2dest
	.loc 1 2355 0
	movq	-424(%rbp), %rax	# newpat, newpat.362
	movq	8(%rax), %rax	# newpat.362_1208->fld[0].rtvec, D.29130
	movq	16(%rax), %rax	# _1209->elem, newpat.363
	movq	%rax, -424(%rbp)	# newpat.363, newpat
	.loc 1 2356 0
	movq	-424(%rbp), %rax	# newpat, newpat.364
	movq	16(%rax), %rax	# newpat.364_1211->fld[1].rtx, D.29128
	movzbl	2(%rax), %eax	# _1212->mode, D.29133
	movzbl	%al, %eax	# D.29133, D.29136
	movq	-88(%rbp), %rdx	# ni2dest, tmp1812
	movq	%rdx, %rsi	# tmp1812,
	movl	%eax, %edi	# D.29136,
	call	gen_lowpart_for_combine	#
	movq	-424(%rbp), %rdx	# newpat, newpat.365
	addq	$16, %rdx	#, D.29131
	movq	%rax, %rsi	# D.29128,
	movq	%rdx, %rdi	# D.29131,
	call	do_SUBST	#
	.loc 1 2358 0
	leaq	-360(%rbp), %rdx	#, tmp1813
	movq	-544(%rbp), %rcx	# i2, tmp1814
	leaq	-416(%rbp), %rax	#, tmp1815
	movq	%rcx, %rsi	# tmp1814,
	movq	%rax, %rdi	# tmp1815,
	call	recog_for_combine	#
	movl	%eax, -492(%rbp)	# tmp1816, i2_code_number
	.loc 1 2360 0
	cmpl	$0, -492(%rbp)	#, i2_code_number
	js	.L342	#,
	.loc 1 2361 0
	leaq	-368(%rbp), %rdx	#, tmp1817
	movq	-536(%rbp), %rcx	# i3, tmp1818
	leaq	-424(%rbp), %rax	#, tmp1819
	movq	%rcx, %rsi	# tmp1818,
	movq	%rax, %rdi	# tmp1819,
	call	recog_for_combine	#
	movl	%eax, -496(%rbp)	# tmp1820, insn_code_number
.L342:
	.loc 1 2363 0
	cmpl	$0, -496(%rbp)	#, insn_code_number
	js	.L343	#,
.LBB22:
	.loc 1 2377 0
	movq	-424(%rbp), %rdx	# newpat, newpat.366
	movq	-536(%rbp), %rax	# i3, tmp1821
	movq	%rdx, 32(%rax)	# newpat.366, i3_143(D)->fld[3].rtx
	.loc 1 2378 0
	movq	-536(%rbp), %rax	# i3, tmp1822
	movl	$0, %ecx	#,
	movq	%rax, %rdx	# tmp1822,
	movl	$0, %esi	#,
	movl	$4, %edi	#,
	call	gen_rtx_fmt_ue	#
	movq	%rax, %rdi	# D.29128,
	call	distribute_links	#
	.loc 1 2389 0
	movq	-536(%rbp), %rax	# i3, tmp1823
	movq	24(%rax), %rax	# i3_143(D)->fld[2].rtx, tmp1824
	movq	%rax, -264(%rbp)	# tmp1824, insn
	jmp	.L344	#
.L349:
	.loc 1 2394 0
	movq	-264(%rbp), %rax	# insn, tmp1825
	movzwl	(%rax), %eax	# insn_49->code, D.29127
	movzwl	%ax, %eax	# D.29127, D.29124
	cltq
	movzbl	rtx_class(%rax), %eax	# rtx_class, D.29132
	cmpb	$105, %al	#, D.29132
	jne	.L345	#,
	.loc 1 2394 0 is_stmt 0 discriminator 1
	movq	-264(%rbp), %rax	# insn, tmp1827
	movq	32(%rax), %rdx	# insn_49->fld[3].rtx, D.29128
	movq	-88(%rbp), %rax	# ni2dest, tmp1828
	movq	%rdx, %rsi	# D.29128,
	movq	%rax, %rdi	# tmp1828,
	call	reg_referenced_p	#
	testl	%eax, %eax	# D.29124
	je	.L345	#,
	.loc 1 2396 0 is_stmt 1
	movq	-264(%rbp), %rax	# insn, tmp1829
	movq	48(%rax), %rax	# insn_49->fld[5].rtx, tmp1830
	movq	%rax, -256(%rbp)	# tmp1830, link
	jmp	.L346	#
.L348:
	.loc 1 2398 0
	movq	-256(%rbp), %rax	# link, tmp1831
	movq	8(%rax), %rax	# link_50->fld[0].rtx, D.29128
	cmpq	-536(%rbp), %rax	# i3, D.29128
	jne	.L347	#,
	.loc 1 2399 0
	movq	-256(%rbp), %rax	# link, tmp1832
	movq	-552(%rbp), %rdx	# i1, tmp1833
	movq	%rdx, 8(%rax)	# tmp1833, link_50->fld[0].rtx
.L347:
	.loc 1 2397 0
	movq	-256(%rbp), %rax	# link, tmp1834
	movq	16(%rax), %rax	# link_50->fld[1].rtx, tmp1835
	movq	%rax, -256(%rbp)	# tmp1835, link
.L346:
	.loc 1 2396 0 discriminator 1
	cmpq	$0, -256(%rbp)	#, link
	jne	.L348	#,
	.loc 1 2401 0
	jmp	.L343	#
.L345:
	.loc 1 2392 0
	movq	-264(%rbp), %rax	# insn, tmp1836
	movq	24(%rax), %rax	# insn_49->fld[2].rtx, tmp1837
	movq	%rax, -264(%rbp)	# tmp1837, insn
.L344:
	.loc 1 2389 0 discriminator 1
	cmpq	$0, -264(%rbp)	#, insn
	je	.L343	#,
	.loc 1 2390 0
	movl	n_basic_blocks(%rip), %eax	# n_basic_blocks, n_basic_blocks.367
	leal	-1(%rax), %edx	#, D.29124
	movl	this_basic_block(%rip), %eax	# this_basic_block, this_basic_block.368
	cmpl	%eax, %edx	# this_basic_block.368, D.29124
	je	.L349	#,
	.loc 1 2391 0
	movq	basic_block_info(%rip), %rax	# basic_block_info, basic_block_info.369
	movl	this_basic_block(%rip), %edx	# this_basic_block, this_basic_block.370
	addl	$1, %edx	#, D.29124
	movslq	%edx, %rdx	# D.29124, tmp1838
	addq	$4, %rdx	#, tmp1839
	movq	(%rax,%rdx,8), %rax	# basic_block_info.369_1226->data.bb, D.29143
	movq	(%rax), %rax	# _1229->head, D.29128
	cmpq	-264(%rbp), %rax	# insn, D.29128
	jne	.L349	#,
.L343:
.LBE22:
.LBE21:
	.loc 1 2350 0
	jmp	.L329	#
.L330:
	.loc 1 2412 0
	cmpq	$0, -552(%rbp)	#, i1
	je	.L329	#,
	.loc 1 2412 0 is_stmt 0 discriminator 1
	cmpl	$0, -496(%rbp)	#, insn_code_number
	jns	.L329	#,
	movq	-424(%rbp), %rax	# newpat, newpat.371
	movq	%rax, %rdi	# newpat.371,
	call	asm_noperands	#
	testl	%eax, %eax	# D.29124
	jns	.L329	#,
	.loc 1 2413 0 is_stmt 1
	movq	-424(%rbp), %rax	# newpat, newpat.372
	movzwl	(%rax), %eax	# newpat.372_1242->code, D.29127
	cmpw	$39, %ax	#, D.29127
	jne	.L329	#,
	.loc 1 2414 0
	movq	-424(%rbp), %rax	# newpat, newpat.373
	movq	8(%rax), %rax	# newpat.373_1244->fld[0].rtvec, D.29130
	movl	(%rax), %eax	# _1245->num_elem, D.29124
	cmpl	$2, %eax	#, D.29124
	jne	.L329	#,
	.loc 1 2415 0
	movq	-424(%rbp), %rax	# newpat, newpat.374
	movq	8(%rax), %rax	# newpat.374_1247->fld[0].rtvec, D.29130
	movq	8(%rax), %rax	# _1248->elem, D.29128
	movzwl	(%rax), %eax	# _1249->code, D.29127
	cmpw	$47, %ax	#, D.29127
	jne	.L329	#,
	.loc 1 2416 0
	movq	-424(%rbp), %rax	# newpat, newpat.375
	movq	8(%rax), %rax	# newpat.375_1251->fld[0].rtvec, D.29130
	movq	8(%rax), %rax	# _1252->elem, D.29128
	movq	8(%rax), %rax	# _1253->fld[0].rtx, D.29128
	movzwl	(%rax), %eax	# _1254->code, D.29127
	cmpw	$133, %ax	#, D.29127
	je	.L329	#,
	.loc 1 2417 0
	movq	-424(%rbp), %rax	# newpat, newpat.376
	movq	8(%rax), %rax	# newpat.376_1256->fld[0].rtvec, D.29130
	movq	8(%rax), %rax	# _1257->elem, D.29128
	movq	8(%rax), %rax	# _1258->fld[0].rtx, D.29128
	movzwl	(%rax), %eax	# _1259->code, D.29127
	cmpw	$64, %ax	#, D.29127
	je	.L329	#,
	.loc 1 2418 0
	movq	-424(%rbp), %rax	# newpat, newpat.377
	movq	8(%rax), %rax	# newpat.377_1261->fld[0].rtvec, D.29130
	movq	16(%rax), %rax	# _1262->elem, D.29128
	movzwl	(%rax), %eax	# _1263->code, D.29127
	cmpw	$47, %ax	#, D.29127
	jne	.L329	#,
	.loc 1 2419 0
	movq	-424(%rbp), %rax	# newpat, newpat.378
	movq	8(%rax), %rax	# newpat.378_1265->fld[0].rtvec, D.29130
	movq	16(%rax), %rax	# _1266->elem, D.29128
	movq	8(%rax), %rax	# _1267->fld[0].rtx, D.29128
	movzwl	(%rax), %eax	# _1268->code, D.29127
	cmpw	$133, %ax	#, D.29127
	je	.L329	#,
	.loc 1 2420 0
	movq	-424(%rbp), %rax	# newpat, newpat.379
	movq	8(%rax), %rax	# newpat.379_1270->fld[0].rtvec, D.29130
	movq	16(%rax), %rax	# _1271->elem, D.29128
	movq	8(%rax), %rax	# _1272->fld[0].rtx, D.29128
	movzwl	(%rax), %eax	# _1273->code, D.29127
	cmpw	$64, %ax	#, D.29127
	je	.L329	#,
	.loc 1 2422 0
	movq	-544(%rbp), %rax	# i2, tmp1840
	movl	8(%rax), %edx	# i2_1->fld[0].rtint, D.29124
	movl	max_uid_cuid(%rip), %eax	# max_uid_cuid, max_uid_cuid.381
	.loc 1 2421 0
	cmpl	%eax, %edx	# max_uid_cuid.381, D.29124
	jle	.L350	#,
	.loc 1 2421 0 is_stmt 0 discriminator 1
	movq	-544(%rbp), %rax	# i2, tmp1841
	movq	%rax, %rdi	# tmp1841,
	call	insn_cuid	#
	jmp	.L351	#
.L350:
	.loc 1 2422 0 is_stmt 1 discriminator 2
	movq	uid_cuid(%rip), %rdx	# uid_cuid, uid_cuid.382
	movq	-544(%rbp), %rax	# i2, tmp1842
	movl	8(%rax), %eax	# i2_1->fld[0].rtint, D.29124
	cltq
	salq	$2, %rax	#, D.29125
	addq	%rdx, %rax	# uid_cuid.382, D.29126
	.loc 1 2421 0 discriminator 2
	movl	(%rax), %eax	# *_1282, iftmp.380
.L351:
	.loc 1 2421 0 is_stmt 0 discriminator 3
	movq	-424(%rbp), %rdx	# newpat, newpat.383
	movq	8(%rdx), %rdx	# newpat.383_1284->fld[0].rtvec, D.29130
	movq	16(%rdx), %rdx	# _1285->elem, D.29128
	movq	16(%rdx), %rdx	# _1286->fld[1].rtx, D.29128
	movl	%eax, %esi	# iftmp.380,
	movq	%rdx, %rdi	# D.29128,
	call	use_crosses_set_p	#
	testl	%eax, %eax	# D.29124
	jne	.L329	#,
	.loc 1 2424 0 is_stmt 1
	movq	-424(%rbp), %rax	# newpat, newpat.384
	movq	8(%rax), %rax	# newpat.384_1289->fld[0].rtvec, D.29130
	movq	16(%rax), %rax	# _1290->elem, D.29128
	movq	8(%rax), %rax	# _1291->fld[0].rtx, D.29128
	movzwl	(%rax), %eax	# _1292->code, D.29127
	cmpw	$48, %ax	#, D.29127
	je	.L329	#,
	.loc 1 2425 0
	movq	-424(%rbp), %rax	# newpat, newpat.385
	movq	8(%rax), %rax	# newpat.385_1294->fld[0].rtvec, D.29130
	movq	8(%rax), %rax	# _1295->elem, D.29128
	movq	8(%rax), %rax	# _1296->fld[0].rtx, D.29128
	movzwl	(%rax), %eax	# _1297->code, D.29127
	cmpw	$48, %ax	#, D.29127
	je	.L329	#,
	.loc 1 2427 0
	movq	-424(%rbp), %rax	# newpat, newpat.386
	movq	8(%rax), %rax	# newpat.386_1299->fld[0].rtvec, D.29130
	.loc 1 2426 0
	movq	8(%rax), %rdx	# _1300->elem, D.29128
	movq	-424(%rbp), %rax	# newpat, newpat.387
	movq	8(%rax), %rax	# newpat.387_1302->fld[0].rtvec, D.29130
	movq	16(%rax), %rax	# _1303->elem, D.29128
	movq	8(%rax), %rax	# _1304->fld[0].rtx, D.29128
	movq	%rdx, %rsi	# D.29128,
	movq	%rax, %rdi	# D.29128,
	call	reg_referenced_p	#
	testl	%eax, %eax	# D.29124
	jne	.L329	#,
	.loc 1 2429 0
	movq	-424(%rbp), %rax	# newpat, newpat.388
	movq	8(%rax), %rax	# newpat.388_1307->fld[0].rtvec, D.29130
	.loc 1 2428 0
	movq	16(%rax), %rdx	# _1308->elem, D.29128
	movq	-424(%rbp), %rax	# newpat, newpat.389
	movq	8(%rax), %rax	# newpat.389_1310->fld[0].rtvec, D.29130
	movq	8(%rax), %rax	# _1311->elem, D.29128
	movq	8(%rax), %rax	# _1312->fld[0].rtx, D.29128
	movq	%rdx, %rsi	# D.29128,
	movq	%rax, %rdi	# D.29128,
	call	reg_referenced_p	#
	testl	%eax, %eax	# D.29124
	jne	.L329	#,
	.loc 1 2430 0
	movq	-424(%rbp), %rax	# newpat, newpat.390
	movq	8(%rax), %rax	# newpat.390_1315->fld[0].rtvec, D.29130
	movq	8(%rax), %rax	# _1316->elem, D.29128
	movq	16(%rax), %rax	# _1317->fld[1].rtx, D.29128
	movq	%rax, %rdi	# D.29128,
	call	contains_muldiv	#
	testl	%eax, %eax	# D.29124
	je	.L352	#,
	.loc 1 2431 0 discriminator 1
	movq	-424(%rbp), %rax	# newpat, newpat.391
	movq	8(%rax), %rax	# newpat.391_1320->fld[0].rtvec, D.29130
	movq	16(%rax), %rax	# _1321->elem, D.29128
	movq	16(%rax), %rax	# _1322->fld[1].rtx, D.29128
	movq	%rax, %rdi	# D.29128,
	call	contains_muldiv	#
	.loc 1 2430 0 discriminator 1
	testl	%eax, %eax	# D.29124
	jne	.L329	#,
.L352:
	.loc 1 2445 0
	movq	-424(%rbp), %rax	# newpat, newpat.392
	movq	8(%rax), %rax	# newpat.392_1325->fld[0].rtvec, D.29130
	movq	16(%rax), %rax	# _1326->elem, newi2pat.393
	movq	%rax, -416(%rbp)	# newi2pat.393, newi2pat
	.loc 1 2446 0
	movq	-424(%rbp), %rax	# newpat, newpat.394
	movq	8(%rax), %rax	# newpat.394_1328->fld[0].rtvec, D.29130
	movq	8(%rax), %rax	# _1329->elem, newpat.395
	movq	%rax, -424(%rbp)	# newpat.395, newpat
	.loc 1 2449 0
	leaq	-360(%rbp), %rdx	#, tmp1843
	movq	-544(%rbp), %rcx	# i2, tmp1844
	leaq	-416(%rbp), %rax	#, tmp1845
	movq	%rcx, %rsi	# tmp1844,
	movq	%rax, %rdi	# tmp1845,
	call	recog_for_combine	#
	movl	%eax, -492(%rbp)	# tmp1846, i2_code_number
	.loc 1 2451 0
	cmpl	$0, -492(%rbp)	#, i2_code_number
	js	.L329	#,
	.loc 1 2452 0
	leaq	-368(%rbp), %rdx	#, tmp1847
	movq	-536(%rbp), %rcx	# i3, tmp1848
	leaq	-424(%rbp), %rax	#, tmp1849
	movq	%rcx, %rsi	# tmp1848,
	movq	%rax, %rdi	# tmp1849,
	call	recog_for_combine	#
	movl	%eax, -496(%rbp)	# tmp1850, insn_code_number
.L329:
	.loc 1 2457 0
	cmpl	$0, -496(%rbp)	#, insn_code_number
	jns	.L353	#,
	.loc 1 2459 0
	movq	-424(%rbp), %rax	# newpat, newpat.396
	movq	%rax, %rdi	# newpat.396,
	call	check_asm_operands	#
	testl	%eax, %eax	# D.29124
	je	.L354	#,
	.loc 1 2459 0 is_stmt 0 discriminator 1
	cmpl	$0, -508(%rbp)	#, added_sets_1
	jne	.L354	#,
	cmpl	$0, -504(%rbp)	#, added_sets_2
	je	.L353	#,
.L354:
	.loc 1 2461 0 is_stmt 1
	call	undo_all	#
	.loc 1 2462 0
	movl	$0, %eax	#, D.29123
	jmp	.L475	#
.L353:
	.loc 1 2466 0
	movq	undobuf+16(%rip), %rax	# undobuf.other_insn, D.29128
	testq	%rax, %rax	# D.29128
	je	.L355	#,
.LBB23:
	.loc 1 2468 0
	movq	undobuf+16(%rip), %rax	# undobuf.other_insn, D.29128
	movq	32(%rax), %rax	# _1337->fld[3].rtx, other_pat.397
	movq	%rax, -352(%rbp)	# other_pat.397, other_pat
	.loc 1 2472 0
	movq	$0, newpat_used_regs(%rip)	#, newpat_used_regs
	.loc 1 2474 0
	movq	undobuf+16(%rip), %rcx	# undobuf.other_insn, D.29128
	leaq	-344(%rbp), %rdx	#, tmp1851
	leaq	-352(%rbp), %rax	#, tmp1852
	movq	%rcx, %rsi	# D.29128,
	movq	%rax, %rdi	# tmp1852,
	call	recog_for_combine	#
	movl	%eax, -488(%rbp)	# tmp1853, other_code_number
	.loc 1 2477 0
	cmpl	$0, -488(%rbp)	#, other_code_number
	jns	.L356	#,
	.loc 1 2477 0 is_stmt 0 discriminator 1
	movq	-352(%rbp), %rax	# other_pat, other_pat.398
	movq	%rax, %rdi	# other_pat.398,
	call	check_asm_operands	#
	testl	%eax, %eax	# D.29124
	jne	.L356	#,
	.loc 1 2479 0 is_stmt 1
	call	undo_all	#
	.loc 1 2480 0
	movl	$0, %eax	#, D.29123
	jmp	.L475	#
.L356:
	.loc 1 2483 0
	movq	undobuf+16(%rip), %rax	# undobuf.other_insn, D.29128
	movq	-352(%rbp), %rdx	# other_pat, other_pat.399
	movq	%rdx, 32(%rax)	# other_pat.399, _1344->fld[3].rtx
	.loc 1 2488 0
	movq	undobuf+16(%rip), %rax	# undobuf.other_insn, D.29128
	movq	56(%rax), %rax	# _1346->fld[6].rtx, tmp1854
	movq	%rax, -248(%rbp)	# tmp1854, note
	jmp	.L357	#
.L360:
	.loc 1 2490 0
	movq	-248(%rbp), %rax	# note, tmp1855
	movq	16(%rax), %rax	# note_51->fld[1].rtx, tmp1856
	movq	%rax, -80(%rbp)	# tmp1856, next
	.loc 1 2492 0
	movq	-248(%rbp), %rax	# note, tmp1857
	movzbl	2(%rax), %eax	# note_51->mode, D.29133
	cmpb	$10, %al	#, D.29133
	jne	.L358	#,
	.loc 1 2493 0
	movq	undobuf+16(%rip), %rax	# undobuf.other_insn, D.29128
	movq	32(%rax), %rdx	# _1350->fld[3].rtx, D.29128
	movq	-248(%rbp), %rax	# note, tmp1858
	movq	8(%rax), %rax	# note_51->fld[0].rtx, D.29128
	movq	%rdx, %rsi	# D.29128,
	movq	%rax, %rdi	# D.29128,
	call	reg_set_p	#
	testl	%eax, %eax	# D.29124
	jne	.L358	#,
	.loc 1 2495 0
	movq	-248(%rbp), %rax	# note, tmp1859
	movq	8(%rax), %rax	# note_51->fld[0].rtx, D.29128
	movzwl	(%rax), %eax	# _1354->code, D.29127
	cmpw	$61, %ax	#, D.29127
	jne	.L359	#,
	.loc 1 2496 0
	movq	reg_n_info(%rip), %rax	# reg_n_info, reg_n_info.400
	movq	-248(%rbp), %rdx	# note, tmp1860
	movq	8(%rdx), %rdx	# note_51->fld[0].rtx, D.29128
	movl	8(%rdx), %edx	# _1357->fld[0].rtuint, D.29129
	movl	%edx, %edx	# D.29129, tmp1861
	addq	$4, %rdx	#, tmp1862
	movq	(%rax,%rdx,8), %rax	# reg_n_info.400_1356->data.reg, D.29139
	movl	24(%rax), %edx	# _1359->deaths, D.29124
	subl	$1, %edx	#, D.29124
	movl	%edx, 24(%rax)	# D.29124, _1359->deaths
.L359:
	.loc 1 2498 0
	movq	undobuf+16(%rip), %rax	# undobuf.other_insn, D.29128
	movq	-248(%rbp), %rdx	# note, tmp1863
	movq	%rdx, %rsi	# tmp1863,
	movq	%rax, %rdi	# D.29128,
	call	remove_note	#
.L358:
	.loc 1 2488 0
	movq	-80(%rbp), %rax	# next, tmp1864
	movq	%rax, -248(%rbp)	# tmp1864, note
.L357:
	.loc 1 2488 0 is_stmt 0 discriminator 1
	cmpq	$0, -248(%rbp)	#, note
	jne	.L360	#,
	.loc 1 2502 0 is_stmt 1
	movq	-344(%rbp), %rax	# new_other_notes, tmp1865
	movq	%rax, -248(%rbp)	# tmp1865, note
	jmp	.L361	#
.L363:
	.loc 1 2503 0
	movq	-248(%rbp), %rax	# note, tmp1866
	movq	8(%rax), %rax	# note_52->fld[0].rtx, D.29128
	movzwl	(%rax), %eax	# _1365->code, D.29127
	cmpw	$61, %ax	#, D.29127
	jne	.L362	#,
	.loc 1 2504 0
	movq	reg_n_info(%rip), %rax	# reg_n_info, reg_n_info.401
	movq	-248(%rbp), %rdx	# note, tmp1867
	movq	8(%rdx), %rdx	# note_52->fld[0].rtx, D.29128
	movl	8(%rdx), %edx	# _1368->fld[0].rtuint, D.29129
	movl	%edx, %edx	# D.29129, tmp1868
	addq	$4, %rdx	#, tmp1869
	movq	(%rax,%rdx,8), %rax	# reg_n_info.401_1367->data.reg, D.29139
	movl	24(%rax), %edx	# _1370->deaths, D.29124
	addl	$1, %edx	#, D.29124
	movl	%edx, 24(%rax)	# D.29124, _1370->deaths
.L362:
	.loc 1 2502 0
	movq	-248(%rbp), %rax	# note, tmp1870
	movq	16(%rax), %rax	# note_52->fld[1].rtx, tmp1871
	movq	%rax, -248(%rbp)	# tmp1871, note
.L361:
	.loc 1 2502 0 is_stmt 0 discriminator 1
	cmpq	$0, -248(%rbp)	#, note
	jne	.L363	#,
	.loc 1 2506 0 is_stmt 1
	movq	undobuf+16(%rip), %rdx	# undobuf.other_insn, D.29128
	movq	undobuf+16(%rip), %rsi	# undobuf.other_insn, D.29128
	movq	-344(%rbp), %rax	# new_other_notes, new_other_notes.402
	movl	$0, %r9d	#,
	movl	$0, %r8d	#,
	movl	$0, %ecx	#,
	movq	%rax, %rdi	# new_other_notes.402,
	call	distribute_notes	#
.L355:
.LBE23:
.LBB24:
	.loc 1 2527 0
	movq	$0, -224(%rbp)	#, i1notes
	.loc 1 2528 0
	movq	$0, -216(%rbp)	#, i1links
	.loc 1 2529 0
	movq	$0, -344(%rbp)	#, midnotes
	.loc 1 2534 0
	movq	-416(%rbp), %rax	# newi2pat, newi2pat.404
	.loc 1 2536 0
	testq	%rax, %rax	# newi2pat.404
	je	.L364	#,
	.loc 1 2534 0
	movq	-416(%rbp), %rdx	# newi2pat, newi2pat.405
	movq	-400(%rbp), %rax	# i2dest, i2dest.406
	movq	%rdx, %rsi	# newi2pat.405,
	movq	%rax, %rdi	# i2dest.406,
	call	reg_set_p	#
	testl	%eax, %eax	# D.29124
	jne	.L365	#,
.L364:
	.loc 1 2535 0
	cmpl	$0, -484(%rbp)	#, i2dest_in_i2src
	jne	.L365	#,
	.loc 1 2535 0 is_stmt 0 discriminator 1
	cmpl	$0, -476(%rbp)	#, i2dest_in_i1src
	jne	.L365	#,
	.loc 1 2536 0 is_stmt 1
	movq	-400(%rbp), %rax	# i2dest, iftmp.403
	jmp	.L366	#
.L365:
	movl	$0, %eax	#, iftmp.403
.L366:
	.loc 1 2534 0
	movq	%rax, -72(%rbp)	# iftmp.403, elim_i2
	.loc 1 2539 0
	cmpq	$0, -552(%rbp)	#, i1
	je	.L367	#,
	.loc 1 2537 0
	cmpl	$0, -480(%rbp)	#, i1dest_in_i1src
	jne	.L367	#,
	.loc 1 2538 0
	movq	-416(%rbp), %rax	# newi2pat, newi2pat.408
	testq	%rax, %rax	# newi2pat.408
	je	.L368	#,
	.loc 1 2538 0 is_stmt 0 discriminator 1
	movq	-416(%rbp), %rdx	# newi2pat, newi2pat.409
	movq	-384(%rbp), %rax	# i1dest, i1dest.410
	movq	%rdx, %rsi	# newi2pat.409,
	movq	%rax, %rdi	# i1dest.410,
	call	reg_set_p	#
	testl	%eax, %eax	# D.29124
	jne	.L367	#,
.L368:
	.loc 1 2539 0 is_stmt 1
	movq	-384(%rbp), %rax	# i1dest, iftmp.407
	jmp	.L369	#
.L367:
	.loc 1 2539 0 is_stmt 0 discriminator 1
	movl	$0, %eax	#, iftmp.407
.L369:
	.loc 1 2537 0 is_stmt 1
	movq	%rax, -64(%rbp)	# iftmp.407, elim_i1
	.loc 1 2543 0
	movq	-536(%rbp), %rax	# i3, tmp1872
	movq	56(%rax), %rax	# i3_143(D)->fld[6].rtx, tmp1873
	movq	%rax, -240(%rbp)	# tmp1873, i3notes
	movq	-536(%rbp), %rax	# i3, tmp1874
	movq	48(%rax), %rax	# i3_143(D)->fld[5].rtx, tmp1875
	movq	%rax, -56(%rbp)	# tmp1875, i3links
	.loc 1 2544 0
	movq	-544(%rbp), %rax	# i2, tmp1876
	movq	56(%rax), %rax	# i2_1->fld[6].rtx, tmp1877
	movq	%rax, -232(%rbp)	# tmp1877, i2notes
	movq	-544(%rbp), %rax	# i2, tmp1878
	movq	48(%rax), %rax	# i2_1->fld[5].rtx, tmp1879
	movq	%rax, -48(%rbp)	# tmp1879, i2links
	.loc 1 2545 0
	cmpq	$0, -552(%rbp)	#, i1
	je	.L370	#,
	.loc 1 2546 0
	movq	-552(%rbp), %rax	# i1, tmp1880
	movq	56(%rax), %rax	# i1_4->fld[6].rtx, tmp1881
	movq	%rax, -224(%rbp)	# tmp1881, i1notes
	movq	-552(%rbp), %rax	# i1, tmp1882
	movq	48(%rax), %rax	# i1_4->fld[5].rtx, tmp1883
	movq	%rax, -216(%rbp)	# tmp1883, i1links
.L370:
	.loc 1 2552 0
	movq	-240(%rbp), %rax	# i3notes, tmp1884
	movq	%rax, %rdi	# tmp1884,
	call	reset_used_flags	#
	.loc 1 2553 0
	movq	-232(%rbp), %rax	# i2notes, tmp1885
	movq	%rax, %rdi	# tmp1885,
	call	reset_used_flags	#
	.loc 1 2554 0
	movq	-224(%rbp), %rax	# i1notes, tmp1886
	movq	%rax, %rdi	# tmp1886,
	call	reset_used_flags	#
	.loc 1 2555 0
	movq	-424(%rbp), %rax	# newpat, newpat.411
	movq	%rax, %rdi	# newpat.411,
	call	reset_used_flags	#
	.loc 1 2556 0
	movq	-416(%rbp), %rax	# newi2pat, newi2pat.412
	movq	%rax, %rdi	# newi2pat.412,
	call	reset_used_flags	#
	.loc 1 2557 0
	movq	undobuf+16(%rip), %rax	# undobuf.other_insn, D.29128
	testq	%rax, %rax	# D.29128
	je	.L371	#,
	.loc 1 2558 0
	movq	undobuf+16(%rip), %rax	# undobuf.other_insn, D.29128
	movq	32(%rax), %rax	# _1402->fld[3].rtx, D.29128
	movq	%rax, %rdi	# D.29128,
	call	reset_used_flags	#
.L371:
	.loc 1 2560 0
	movq	-240(%rbp), %rax	# i3notes, tmp1887
	movq	%rax, %rdi	# tmp1887,
	call	copy_rtx_if_shared	#
	movq	%rax, -240(%rbp)	# tmp1888, i3notes
	.loc 1 2561 0
	movq	-232(%rbp), %rax	# i2notes, tmp1889
	movq	%rax, %rdi	# tmp1889,
	call	copy_rtx_if_shared	#
	movq	%rax, -232(%rbp)	# tmp1890, i2notes
	.loc 1 2562 0
	movq	-224(%rbp), %rax	# i1notes, tmp1891
	movq	%rax, %rdi	# tmp1891,
	call	copy_rtx_if_shared	#
	movq	%rax, -224(%rbp)	# tmp1892, i1notes
	.loc 1 2563 0
	movq	-424(%rbp), %rax	# newpat, newpat.413
	movq	%rax, %rdi	# newpat.413,
	call	copy_rtx_if_shared	#
	movq	%rax, -424(%rbp)	# newpat.414, newpat
	.loc 1 2564 0
	movq	-416(%rbp), %rax	# newi2pat, newi2pat.415
	movq	%rax, %rdi	# newi2pat.415,
	call	copy_rtx_if_shared	#
	movq	%rax, -416(%rbp)	# newi2pat.416, newi2pat
	.loc 1 2565 0
	movq	undobuf+16(%rip), %rax	# undobuf.other_insn, D.29128
	testq	%rax, %rax	# D.29128
	je	.L372	#,
	.loc 1 2566 0
	movq	undobuf+16(%rip), %rax	# undobuf.other_insn, D.29128
	movq	32(%rax), %rax	# _1412->fld[3].rtx, D.29128
	movq	%rax, %rdi	# D.29128,
	call	reset_used_flags	#
.L372:
	.loc 1 2568 0
	movq	-536(%rbp), %rax	# i3, tmp1893
	movl	-496(%rbp), %edx	# insn_code_number, tmp1894
	movl	%edx, 40(%rax)	# tmp1894, i3_143(D)->fld[4].rtint
	.loc 1 2569 0
	movq	-424(%rbp), %rdx	# newpat, newpat.417
	movq	-536(%rbp), %rax	# i3, tmp1895
	movq	%rdx, 32(%rax)	# newpat.417, i3_143(D)->fld[3].rtx
	.loc 1 2571 0
	movq	-536(%rbp), %rax	# i3, tmp1896
	movzwl	(%rax), %eax	# i3_143(D)->code, D.29127
	cmpw	$34, %ax	#, D.29127
	jne	.L373	#,
	.loc 1 2571 0 is_stmt 0 discriminator 1
	movq	-536(%rbp), %rax	# i3, tmp1897
	movq	64(%rax), %rax	# i3_143(D)->fld[7].rtx, D.29128
	testq	%rax, %rax	# D.29128
	je	.L373	#,
.LBB25:
	.loc 1 2573 0 is_stmt 1
	movq	-536(%rbp), %rax	# i3, tmp1898
	movq	64(%rax), %rax	# i3_143(D)->fld[7].rtx, tmp1899
	movq	%rax, -40(%rbp)	# tmp1899, call_usage
	.loc 1 2575 0
	movq	-40(%rbp), %rax	# call_usage, tmp1900
	movq	%rax, %rdi	# tmp1900,
	call	reset_used_flags	#
	.loc 1 2576 0
	movq	-40(%rbp), %rax	# call_usage, tmp1901
	movq	%rax, %rdi	# tmp1901,
	call	copy_rtx	#
	movq	%rax, -40(%rbp)	# tmp1902, call_usage
	.loc 1 2578 0
	cmpl	$0, -516(%rbp)	#, substed_i2
	je	.L374	#,
	.loc 1 2579 0
	movq	-392(%rbp), %rdx	# i2src, i2src.418
	movq	-400(%rbp), %rcx	# i2dest, i2dest.419
	movq	-40(%rbp), %rax	# call_usage, tmp1903
	movq	%rcx, %rsi	# i2dest.419,
	movq	%rax, %rdi	# tmp1903,
	call	replace_rtx	#
.L374:
	.loc 1 2581 0
	cmpl	$0, -512(%rbp)	#, substed_i1
	je	.L375	#,
	.loc 1 2582 0
	movq	-376(%rbp), %rdx	# i1src, i1src.420
	movq	-384(%rbp), %rcx	# i1dest, i1dest.421
	movq	-40(%rbp), %rax	# call_usage, tmp1904
	movq	%rcx, %rsi	# i1dest.421,
	movq	%rax, %rdi	# tmp1904,
	call	replace_rtx	#
.L375:
	.loc 1 2584 0
	movq	-536(%rbp), %rax	# i3, tmp1905
	movq	-40(%rbp), %rdx	# call_usage, tmp1906
	movq	%rdx, 64(%rax)	# tmp1906, i3_143(D)->fld[7].rtx
.L373:
.LBE25:
	.loc 1 2587 0
	movq	undobuf+16(%rip), %rax	# undobuf.other_insn, D.29128
	testq	%rax, %rax	# D.29128
	je	.L376	#,
	.loc 1 2588 0
	movq	undobuf+16(%rip), %rax	# undobuf.other_insn, D.29128
	movl	-488(%rbp), %edx	# other_code_number, tmp1907
	movl	%edx, 40(%rax)	# tmp1907, _1424->fld[4].rtint
.L376:
	.loc 1 2599 0
	cmpl	$0, -472(%rbp)	#, i3_subst_into_i2
	je	.L377	#,
	.loc 1 2601 0
	movl	$0, -464(%rbp)	#, i
	jmp	.L378	#
.L386:
	.loc 1 2602 0
	movq	-544(%rbp), %rax	# i2, tmp1908
	movq	32(%rax), %rax	# i2_1->fld[3].rtx, D.29128
	movq	8(%rax), %rax	# _1429->fld[0].rtvec, D.29130
	movl	-464(%rbp), %edx	# i, tmp1910
	movslq	%edx, %rdx	# tmp1910, tmp1909
	movq	8(%rax,%rdx,8), %rax	# _1430->elem, D.29128
	movzwl	(%rax), %eax	# _1431->code, D.29127
	cmpw	$48, %ax	#, D.29127
	je	.L379	#,
	.loc 1 2603 0
	movq	-544(%rbp), %rax	# i2, tmp1911
	movq	32(%rax), %rax	# i2_1->fld[3].rtx, D.29128
	movq	8(%rax), %rax	# _1433->fld[0].rtvec, D.29130
	movl	-464(%rbp), %edx	# i, tmp1913
	movslq	%edx, %rdx	# tmp1913, tmp1912
	movq	8(%rax,%rdx,8), %rax	# _1434->elem, D.29128
	movq	8(%rax), %rax	# _1435->fld[0].rtx, D.29128
	movzwl	(%rax), %eax	# _1436->code, D.29127
	cmpw	$61, %ax	#, D.29127
	jne	.L379	#,
	.loc 1 2604 0
	movq	-544(%rbp), %rax	# i2, tmp1914
	movq	32(%rax), %rax	# i2_1->fld[3].rtx, D.29128
	movq	8(%rax), %rax	# _1438->fld[0].rtvec, D.29130
	movl	-464(%rbp), %edx	# i, tmp1916
	movslq	%edx, %rdx	# tmp1916, tmp1915
	movq	8(%rax,%rdx,8), %rax	# _1439->elem, D.29128
	movq	8(%rax), %rdx	# _1440->fld[0].rtx, D.29128
	movq	-400(%rbp), %rax	# i2dest, i2dest.422
	cmpq	%rax, %rdx	# i2dest.422, D.29128
	je	.L379	#,
	.loc 1 2606 0
	movq	-544(%rbp), %rax	# i2, tmp1917
	movq	32(%rax), %rax	# i2_1->fld[3].rtx, D.29128
	movq	8(%rax), %rax	# _1443->fld[0].rtvec, D.29130
	movl	-464(%rbp), %edx	# i, tmp1919
	movslq	%edx, %rdx	# tmp1919, tmp1918
	movq	8(%rax,%rdx,8), %rax	# _1444->elem, D.29128
	.loc 1 2605 0
	movq	8(%rax), %rdx	# _1445->fld[0].rtx, D.29128
	movq	-544(%rbp), %rax	# i2, tmp1920
	movl	$10, %esi	#,
	movq	%rax, %rdi	# tmp1920,
	call	find_reg_note	#
	testq	%rax, %rax	# D.29128
	jne	.L379	#,
	.loc 1 2607 0
	movq	-544(%rbp), %rax	# i2, tmp1921
	movq	24(%rax), %rax	# i2_1->fld[2].rtx, tmp1922
	movq	%rax, -328(%rbp)	# tmp1922, temp
	jmp	.L380	#
.L385:
	.loc 1 2611 0
	movq	-328(%rbp), %rax	# temp, tmp1923
	cmpq	-536(%rbp), %rax	# i3, tmp1923
	je	.L381	#,
	.loc 1 2611 0 is_stmt 0 discriminator 1
	movq	-328(%rbp), %rax	# temp, tmp1924
	movzwl	(%rax), %eax	# temp_30->code, D.29127
	movzwl	%ax, %eax	# D.29127, D.29124
	cltq
	movzbl	rtx_class(%rax), %eax	# rtx_class, D.29132
	cmpb	$105, %al	#, D.29132
	jne	.L381	#,
	.loc 1 2612 0 is_stmt 1
	movq	-328(%rbp), %rax	# temp, tmp1926
	movq	48(%rax), %rax	# temp_30->fld[5].rtx, tmp1927
	movq	%rax, -320(%rbp)	# tmp1927, link
	jmp	.L382	#
.L384:
	.loc 1 2613 0
	movq	-320(%rbp), %rax	# link, tmp1928
	movq	8(%rax), %rax	# link_33->fld[0].rtx, D.29128
	cmpq	-544(%rbp), %rax	# i2, D.29128
	jne	.L383	#,
	.loc 1 2614 0
	movq	-320(%rbp), %rax	# link, tmp1929
	movq	-536(%rbp), %rdx	# i3, tmp1930
	movq	%rdx, 8(%rax)	# tmp1930, link_33->fld[0].rtx
.L383:
	.loc 1 2612 0
	movq	-320(%rbp), %rax	# link, tmp1931
	movq	16(%rax), %rax	# link_33->fld[1].rtx, tmp1932
	movq	%rax, -320(%rbp)	# tmp1932, link
.L382:
	.loc 1 2612 0 is_stmt 0 discriminator 1
	cmpq	$0, -320(%rbp)	#, link
	jne	.L384	#,
.L381:
	.loc 1 2610 0 is_stmt 1
	movq	-328(%rbp), %rax	# temp, tmp1933
	movq	24(%rax), %rax	# temp_30->fld[2].rtx, tmp1934
	movq	%rax, -328(%rbp)	# tmp1934, temp
.L380:
	.loc 1 2607 0 discriminator 1
	cmpq	$0, -328(%rbp)	#, temp
	je	.L379	#,
	.loc 1 2608 0
	movl	n_basic_blocks(%rip), %eax	# n_basic_blocks, n_basic_blocks.423
	leal	-1(%rax), %edx	#, D.29124
	movl	this_basic_block(%rip), %eax	# this_basic_block, this_basic_block.424
	cmpl	%eax, %edx	# this_basic_block.424, D.29124
	je	.L385	#,
	.loc 1 2609 0
	movq	basic_block_info(%rip), %rax	# basic_block_info, basic_block_info.425
	movl	this_basic_block(%rip), %edx	# this_basic_block, this_basic_block.426
	movslq	%edx, %rdx	# this_basic_block.426, tmp1935
	addq	$4, %rdx	#, tmp1936
	movq	(%rax,%rdx,8), %rax	# basic_block_info.425_1452->data.bb, D.29143
	movq	(%rax), %rax	# _1454->head, D.29128
	cmpq	-328(%rbp), %rax	# temp, D.29128
	jne	.L385	#,
.L379:
	.loc 1 2601 0
	addl	$1, -464(%rbp)	#, i
.L378:
	.loc 1 2601 0 is_stmt 0 discriminator 1
	movq	-544(%rbp), %rax	# i2, tmp1937
	movq	32(%rax), %rax	# i2_1->fld[3].rtx, D.29128
	movq	8(%rax), %rax	# _1426->fld[0].rtvec, D.29130
	movl	(%rax), %eax	# _1427->num_elem, D.29124
	cmpl	-464(%rbp), %eax	# i, D.29124
	jg	.L386	#,
	.loc 1 2616 0 is_stmt 1
	cmpq	$0, -240(%rbp)	#, i3notes
	je	.L387	#,
.LBB26:
	.loc 1 2618 0
	movq	-240(%rbp), %rax	# i3notes, tmp1938
	movq	%rax, -208(%rbp)	# tmp1938, link
	.loc 1 2619 0
	jmp	.L388	#
.L389:
	.loc 1 2620 0
	movq	-208(%rbp), %rax	# link, tmp1939
	movq	16(%rax), %rax	# link_58->fld[1].rtx, tmp1940
	movq	%rax, -208(%rbp)	# tmp1940, link
.L388:
	.loc 1 2619 0 discriminator 1
	movq	-208(%rbp), %rax	# link, tmp1941
	movq	16(%rax), %rax	# link_58->fld[1].rtx, D.29128
	testq	%rax, %rax	# D.29128
	jne	.L389	#,
	.loc 1 2621 0
	movq	-208(%rbp), %rax	# link, tmp1942
	movq	-232(%rbp), %rdx	# i2notes, tmp1943
	movq	%rdx, 16(%rax)	# tmp1943, link_58->fld[1].rtx
.LBE26:
	jmp	.L390	#
.L387:
	.loc 1 2624 0
	movq	-232(%rbp), %rax	# i2notes, tmp1944
	movq	%rax, -240(%rbp)	# tmp1944, i3notes
.L390:
	.loc 1 2625 0
	movq	$0, -232(%rbp)	#, i2notes
.L377:
	.loc 1 2628 0
	movq	-536(%rbp), %rax	# i3, tmp1945
	movq	$0, 48(%rax)	#, i3_143(D)->fld[5].rtx
	.loc 1 2629 0
	movq	-536(%rbp), %rax	# i3, tmp1946
	movq	$0, 56(%rax)	#, i3_143(D)->fld[6].rtx
	.loc 1 2630 0
	movq	-544(%rbp), %rax	# i2, tmp1947
	movq	$0, 48(%rax)	#, i2_1->fld[5].rtx
	.loc 1 2631 0
	movq	-544(%rbp), %rax	# i2, tmp1948
	movq	$0, 56(%rax)	#, i2_1->fld[6].rtx
	.loc 1 2633 0
	movq	-416(%rbp), %rax	# newi2pat, newi2pat.427
	testq	%rax, %rax	# newi2pat.427
	je	.L391	#,
	.loc 1 2635 0
	movq	-544(%rbp), %rax	# i2, tmp1949
	movl	-492(%rbp), %edx	# i2_code_number, tmp1950
	movl	%edx, 40(%rax)	# tmp1950, i2_1->fld[4].rtint
	.loc 1 2636 0
	movq	-416(%rbp), %rdx	# newi2pat, newi2pat.428
	movq	-544(%rbp), %rax	# i2, tmp1951
	movq	%rdx, 32(%rax)	# newi2pat.428, i2_1->fld[3].rtx
	jmp	.L392	#
.L391:
	.loc 1 2640 0
	movq	-544(%rbp), %rax	# i2, tmp1952
	movw	$37, (%rax)	#, i2_1->code
	.loc 1 2641 0
	movq	-544(%rbp), %rax	# i2, tmp1953
	movl	$-99, 40(%rax)	#, i2_1->fld[4].rtint
	.loc 1 2642 0
	movq	-544(%rbp), %rax	# i2, tmp1954
	movq	$0, 32(%rax)	#, i2_1->fld[3].rtstr
.L392:
	.loc 1 2645 0
	cmpq	$0, -552(%rbp)	#, i1
	je	.L393	#,
	.loc 1 2647 0
	movq	-552(%rbp), %rax	# i1, tmp1955
	movq	$0, 48(%rax)	#, i1_4->fld[5].rtx
	.loc 1 2648 0
	movq	-552(%rbp), %rax	# i1, tmp1956
	movq	$0, 56(%rax)	#, i1_4->fld[6].rtx
	.loc 1 2649 0
	movq	-552(%rbp), %rax	# i1, tmp1957
	movw	$37, (%rax)	#, i1_4->code
	.loc 1 2650 0
	movq	-552(%rbp), %rax	# i1, tmp1958
	movl	$-99, 40(%rax)	#, i1_4->fld[4].rtint
	.loc 1 2651 0
	movq	-552(%rbp), %rax	# i1, tmp1959
	movq	$0, 32(%rax)	#, i1_4->fld[3].rtstr
.L393:
	.loc 1 2659 0
	movq	-416(%rbp), %rax	# newi2pat, newi2pat.429
	testq	%rax, %rax	# newi2pat.429
	je	.L394	#,
	.loc 1 2661 0
	movq	-552(%rbp), %rax	# i1, tmp1960
	movl	8(%rax), %edx	# i1_4->fld[0].rtint, D.29124
	movl	max_uid_cuid(%rip), %eax	# max_uid_cuid, max_uid_cuid.431
	cmpl	%eax, %edx	# max_uid_cuid.431, D.29124
	jle	.L395	#,
	.loc 1 2661 0 is_stmt 0 discriminator 1
	movq	-552(%rbp), %rax	# i1, tmp1961
	movq	%rax, %rdi	# tmp1961,
	call	insn_cuid	#
	jmp	.L396	#
.L395:
	.loc 1 2661 0 discriminator 2
	movq	uid_cuid(%rip), %rdx	# uid_cuid, uid_cuid.432
	movq	-552(%rbp), %rax	# i1, tmp1962
	movl	8(%rax), %eax	# i1_4->fld[0].rtint, D.29124
	cltq
	salq	$2, %rax	#, D.29125
	addq	%rdx, %rax	# uid_cuid.432, D.29126
	movl	(%rax), %eax	# *_1479, iftmp.430
.L396:
	.loc 1 2661 0 discriminator 3
	movq	-416(%rbp), %rdi	# newi2pat, newi2pat.433
	leaq	-344(%rbp), %rcx	#, tmp1963
	movq	-544(%rbp), %rdx	# i2, tmp1964
	movq	%rcx, %r8	# tmp1963,
	movq	%rdx, %rcx	# tmp1964,
	movl	%eax, %edx	# iftmp.430,
	movl	$0, %esi	#,
	call	move_deaths	#
	.loc 1 2662 0 is_stmt 1 discriminator 3
	movq	-552(%rbp), %rax	# i1, tmp1965
	movl	8(%rax), %edx	# i1_4->fld[0].rtint, D.29124
	movl	max_uid_cuid(%rip), %eax	# max_uid_cuid, max_uid_cuid.435
	cmpl	%eax, %edx	# max_uid_cuid.435, D.29124
	jle	.L397	#,
	.loc 1 2662 0 is_stmt 0 discriminator 1
	movq	-552(%rbp), %rax	# i1, tmp1966
	movq	%rax, %rdi	# tmp1966,
	call	insn_cuid	#
	jmp	.L398	#
.L397:
	.loc 1 2662 0 discriminator 2
	movq	uid_cuid(%rip), %rdx	# uid_cuid, uid_cuid.436
	movq	-552(%rbp), %rax	# i1, tmp1967
	movl	8(%rax), %eax	# i1_4->fld[0].rtint, D.29124
	cltq
	salq	$2, %rax	#, D.29125
	addq	%rdx, %rax	# uid_cuid.436, D.29126
	movl	(%rax), %eax	# *_1489, iftmp.434
.L398:
	.loc 1 2662 0 discriminator 1
	movq	-416(%rbp), %rsi	# newi2pat, newi2pat.437
	movq	-424(%rbp), %rdi	# newpat, newpat.438
	leaq	-344(%rbp), %rcx	#, tmp1968
	movq	-536(%rbp), %rdx	# i3, tmp1969
	movq	%rcx, %r8	# tmp1968,
	movq	%rdx, %rcx	# tmp1969,
	movl	%eax, %edx	# iftmp.434,
	call	move_deaths	#
	jmp	.L399	#
.L394:
	.loc 1 2665 0 is_stmt 1
	cmpq	$0, -552(%rbp)	#, i1
	je	.L400	#,
	.loc 1 2665 0 is_stmt 0 discriminator 1
	movq	-552(%rbp), %rax	# i1, tmp1970
	movl	8(%rax), %edx	# i1_4->fld[0].rtint, D.29124
	movl	max_uid_cuid(%rip), %eax	# max_uid_cuid, max_uid_cuid.441
	cmpl	%eax, %edx	# max_uid_cuid.441, D.29124
	jle	.L401	#,
	movq	-552(%rbp), %rax	# i1, tmp1971
	movq	%rax, %rdi	# tmp1971,
	call	insn_cuid	#
	jmp	.L403	#
.L401:
	.loc 1 2665 0 discriminator 2
	movq	uid_cuid(%rip), %rdx	# uid_cuid, uid_cuid.442
	movq	-552(%rbp), %rax	# i1, tmp1972
	movl	8(%rax), %eax	# i1_4->fld[0].rtint, D.29124
	cltq
	salq	$2, %rax	#, D.29125
	addq	%rdx, %rax	# uid_cuid.442, D.29126
	movl	(%rax), %eax	# *_1500, iftmp.440
	jmp	.L403	#
.L400:
	movq	-544(%rbp), %rax	# i2, tmp1973
	movl	8(%rax), %edx	# i2_1->fld[0].rtint, D.29124
	movl	max_uid_cuid(%rip), %eax	# max_uid_cuid, max_uid_cuid.444
	cmpl	%eax, %edx	# max_uid_cuid.444, D.29124
	jle	.L404	#,
	.loc 1 2665 0 discriminator 1
	movq	-544(%rbp), %rax	# i2, tmp1974
	movq	%rax, %rdi	# tmp1974,
	call	insn_cuid	#
	jmp	.L403	#
.L404:
	.loc 1 2665 0 discriminator 2
	movq	uid_cuid(%rip), %rdx	# uid_cuid, uid_cuid.445
	movq	-544(%rbp), %rax	# i2, tmp1975
	movl	8(%rax), %eax	# i2_1->fld[0].rtint, D.29124
	cltq
	salq	$2, %rax	#, D.29125
	addq	%rdx, %rax	# uid_cuid.445, D.29126
	movl	(%rax), %eax	# *_1510, iftmp.443
.L403:
	.loc 1 2665 0 discriminator 3
	movq	-424(%rbp), %rdi	# newpat, newpat.446
	leaq	-344(%rbp), %rcx	#, tmp1976
	movq	-536(%rbp), %rdx	# i3, tmp1977
	movq	%rcx, %r8	# tmp1976,
	movq	%rdx, %rcx	# tmp1977,
	movl	%eax, %edx	# iftmp.439,
	movl	$0, %esi	#,
	call	move_deaths	#
.L399:
	.loc 1 2669 0 is_stmt 1
	cmpq	$0, -240(%rbp)	#, i3notes
	je	.L406	#,
	.loc 1 2670 0
	movq	-416(%rbp), %rax	# newi2pat, newi2pat.448
	testq	%rax, %rax	# newi2pat.448
	je	.L407	#,
	.loc 1 2670 0 is_stmt 0 discriminator 1
	movq	-544(%rbp), %rax	# i2, iftmp.447
	jmp	.L408	#
.L407:
	.loc 1 2670 0 discriminator 2
	movl	$0, %eax	#, iftmp.447
.L408:
	.loc 1 2670 0 discriminator 3
	movq	-64(%rbp), %r8	# elim_i1, tmp1978
	movq	-72(%rbp), %rcx	# elim_i2, tmp1979
	movq	-536(%rbp), %rdx	# i3, tmp1980
	movq	-536(%rbp), %rsi	# i3, tmp1981
	movq	-240(%rbp), %rdi	# i3notes, tmp1982
	movq	%r8, %r9	# tmp1978,
	movq	%rcx, %r8	# tmp1979,
	movq	%rax, %rcx	# iftmp.447,
	call	distribute_notes	#
.L406:
	.loc 1 2672 0 is_stmt 1
	cmpq	$0, -232(%rbp)	#, i2notes
	je	.L409	#,
	.loc 1 2673 0
	movq	-416(%rbp), %rax	# newi2pat, newi2pat.450
	testq	%rax, %rax	# newi2pat.450
	je	.L410	#,
	.loc 1 2673 0 is_stmt 0 discriminator 1
	movq	-544(%rbp), %rax	# i2, iftmp.449
	jmp	.L411	#
.L410:
	.loc 1 2673 0 discriminator 2
	movl	$0, %eax	#, iftmp.449
.L411:
	.loc 1 2673 0 discriminator 3
	movq	-64(%rbp), %r8	# elim_i1, tmp1983
	movq	-72(%rbp), %rcx	# elim_i2, tmp1984
	movq	-536(%rbp), %rdx	# i3, tmp1985
	movq	-544(%rbp), %rsi	# i2, tmp1986
	movq	-232(%rbp), %rdi	# i2notes, tmp1987
	movq	%r8, %r9	# tmp1983,
	movq	%rcx, %r8	# tmp1984,
	movq	%rax, %rcx	# iftmp.449,
	call	distribute_notes	#
.L409:
	.loc 1 2675 0 is_stmt 1
	cmpq	$0, -224(%rbp)	#, i1notes
	je	.L412	#,
	.loc 1 2676 0
	movq	-416(%rbp), %rax	# newi2pat, newi2pat.452
	testq	%rax, %rax	# newi2pat.452
	je	.L413	#,
	.loc 1 2676 0 is_stmt 0 discriminator 1
	movq	-544(%rbp), %rax	# i2, iftmp.451
	jmp	.L414	#
.L413:
	.loc 1 2676 0 discriminator 2
	movl	$0, %eax	#, iftmp.451
.L414:
	.loc 1 2676 0 discriminator 3
	movq	-64(%rbp), %r8	# elim_i1, tmp1988
	movq	-72(%rbp), %rcx	# elim_i2, tmp1989
	movq	-536(%rbp), %rdx	# i3, tmp1990
	movq	-552(%rbp), %rsi	# i1, tmp1991
	movq	-224(%rbp), %rdi	# i1notes, tmp1992
	movq	%r8, %r9	# tmp1988,
	movq	%rcx, %r8	# tmp1989,
	movq	%rax, %rcx	# iftmp.451,
	call	distribute_notes	#
.L412:
	.loc 1 2678 0 is_stmt 1
	movq	-344(%rbp), %rax	# midnotes, midnotes.453
	testq	%rax, %rax	# midnotes.453
	je	.L415	#,
	.loc 1 2679 0
	movq	-416(%rbp), %rax	# newi2pat, newi2pat.455
	testq	%rax, %rax	# newi2pat.455
	je	.L416	#,
	.loc 1 2679 0 is_stmt 0 discriminator 1
	movq	-544(%rbp), %rax	# i2, iftmp.454
	jmp	.L417	#
.L416:
	.loc 1 2679 0 discriminator 2
	movl	$0, %eax	#, iftmp.454
.L417:
	.loc 1 2679 0 discriminator 3
	movq	-344(%rbp), %rdi	# midnotes, midnotes.456
	movq	-64(%rbp), %rsi	# elim_i1, tmp1993
	movq	-72(%rbp), %rcx	# elim_i2, tmp1994
	movq	-536(%rbp), %rdx	# i3, tmp1995
	movq	%rsi, %r9	# tmp1993,
	movq	%rcx, %r8	# tmp1994,
	movq	%rax, %rcx	# iftmp.454,
	movl	$0, %esi	#,
	call	distribute_notes	#
.L415:
	.loc 1 2687 0 is_stmt 1
	movq	-416(%rbp), %rax	# newi2pat, newi2pat.457
	testq	%rax, %rax	# newi2pat.457
	je	.L418	#,
	.loc 1 2687 0 is_stmt 0 discriminator 1
	movq	-360(%rbp), %rax	# new_i2_notes, new_i2_notes.458
	testq	%rax, %rax	# new_i2_notes.458
	je	.L418	#,
	.loc 1 2689 0 is_stmt 1
	movq	-360(%rbp), %rax	# new_i2_notes, tmp1996
	movq	%rax, -328(%rbp)	# tmp1996, temp
	jmp	.L419	#
.L421:
	.loc 1 2690 0
	movq	-328(%rbp), %rax	# temp, tmp1997
	movq	8(%rax), %rax	# temp_31->fld[0].rtx, D.29128
	movzwl	(%rax), %eax	# _1531->code, D.29127
	cmpw	$61, %ax	#, D.29127
	jne	.L420	#,
	.loc 1 2691 0
	movq	reg_n_info(%rip), %rax	# reg_n_info, reg_n_info.459
	movq	-328(%rbp), %rdx	# temp, tmp1998
	movq	8(%rdx), %rdx	# temp_31->fld[0].rtx, D.29128
	movl	8(%rdx), %edx	# _1534->fld[0].rtuint, D.29129
	movl	%edx, %edx	# D.29129, tmp1999
	addq	$4, %rdx	#, tmp2000
	movq	(%rax,%rdx,8), %rax	# reg_n_info.459_1533->data.reg, D.29139
	movl	24(%rax), %edx	# _1536->deaths, D.29124
	addl	$1, %edx	#, D.29124
	movl	%edx, 24(%rax)	# D.29124, _1536->deaths
.L420:
	.loc 1 2689 0
	movq	-328(%rbp), %rax	# temp, tmp2001
	movq	16(%rax), %rax	# temp_31->fld[1].rtx, tmp2002
	movq	%rax, -328(%rbp)	# tmp2002, temp
.L419:
	.loc 1 2689 0 is_stmt 0 discriminator 1
	cmpq	$0, -328(%rbp)	#, temp
	jne	.L421	#,
	.loc 1 2693 0 is_stmt 1
	movq	-360(%rbp), %rax	# new_i2_notes, new_i2_notes.460
	movq	-544(%rbp), %rdx	# i2, tmp2003
	movq	-544(%rbp), %rsi	# i2, tmp2004
	movl	$0, %r9d	#,
	movl	$0, %r8d	#,
	movl	$0, %ecx	#,
	movq	%rax, %rdi	# new_i2_notes.460,
	call	distribute_notes	#
.L418:
	.loc 1 2696 0
	movq	-368(%rbp), %rax	# new_i3_notes, new_i3_notes.461
	testq	%rax, %rax	# new_i3_notes.461
	je	.L422	#,
	.loc 1 2698 0
	movq	-368(%rbp), %rax	# new_i3_notes, tmp2005
	movq	%rax, -328(%rbp)	# tmp2005, temp
	jmp	.L423	#
.L425:
	.loc 1 2699 0
	movq	-328(%rbp), %rax	# temp, tmp2006
	movq	8(%rax), %rax	# temp_32->fld[0].rtx, D.29128
	movzwl	(%rax), %eax	# _1543->code, D.29127
	cmpw	$61, %ax	#, D.29127
	jne	.L424	#,
	.loc 1 2700 0
	movq	reg_n_info(%rip), %rax	# reg_n_info, reg_n_info.462
	movq	-328(%rbp), %rdx	# temp, tmp2007
	movq	8(%rdx), %rdx	# temp_32->fld[0].rtx, D.29128
	movl	8(%rdx), %edx	# _1546->fld[0].rtuint, D.29129
	movl	%edx, %edx	# D.29129, tmp2008
	addq	$4, %rdx	#, tmp2009
	movq	(%rax,%rdx,8), %rax	# reg_n_info.462_1545->data.reg, D.29139
	movl	24(%rax), %edx	# _1548->deaths, D.29124
	addl	$1, %edx	#, D.29124
	movl	%edx, 24(%rax)	# D.29124, _1548->deaths
.L424:
	.loc 1 2698 0
	movq	-328(%rbp), %rax	# temp, tmp2010
	movq	16(%rax), %rax	# temp_32->fld[1].rtx, tmp2011
	movq	%rax, -328(%rbp)	# tmp2011, temp
.L423:
	.loc 1 2698 0 is_stmt 0 discriminator 1
	cmpq	$0, -328(%rbp)	#, temp
	jne	.L425	#,
	.loc 1 2702 0 is_stmt 1
	movq	-368(%rbp), %rax	# new_i3_notes, new_i3_notes.463
	movq	-536(%rbp), %rdx	# i3, tmp2012
	movq	-536(%rbp), %rsi	# i3, tmp2013
	movl	$0, %r9d	#,
	movl	$0, %r8d	#,
	movl	$0, %ecx	#,
	movq	%rax, %rdi	# new_i3_notes.463,
	call	distribute_notes	#
.L422:
	.loc 1 2712 0
	movq	-408(%rbp), %rax	# i3dest_killed, i3dest_killed.464
	testq	%rax, %rax	# i3dest_killed.464
	je	.L426	#,
	.loc 1 2714 0
	movq	-408(%rbp), %rax	# i3dest_killed, i3dest_killed.465
	movzwl	(%rax), %eax	# i3dest_killed.465_1554->code, D.29127
	cmpw	$61, %ax	#, D.29127
	jne	.L427	#,
	.loc 1 2715 0
	movq	reg_n_info(%rip), %rax	# reg_n_info, reg_n_info.466
	movq	-408(%rbp), %rdx	# i3dest_killed, i3dest_killed.467
	movl	8(%rdx), %edx	# i3dest_killed.467_1557->fld[0].rtuint, D.29129
	movl	%edx, %edx	# D.29129, tmp2014
	addq	$4, %rdx	#, tmp2015
	movq	(%rax,%rdx,8), %rax	# reg_n_info.466_1556->data.reg, D.29139
	movl	24(%rax), %edx	# _1559->deaths, D.29124
	addl	$1, %edx	#, D.29124
	movl	%edx, 24(%rax)	# D.29124, _1559->deaths
.L427:
	.loc 1 2717 0
	movq	-416(%rbp), %rax	# newi2pat, newi2pat.468
	testq	%rax, %rax	# newi2pat.468
	je	.L428	#,
	.loc 1 2717 0 is_stmt 0 discriminator 1
	movq	-416(%rbp), %rdx	# newi2pat, newi2pat.469
	movq	-408(%rbp), %rax	# i3dest_killed, i3dest_killed.470
	movq	%rdx, %rsi	# newi2pat.469,
	movq	%rax, %rdi	# i3dest_killed.470,
	call	reg_set_p	#
	testl	%eax, %eax	# D.29124
	je	.L428	#,
	.loc 1 2718 0 is_stmt 1
	movq	-408(%rbp), %rax	# i3dest_killed, i3dest_killed.471
	movl	$0, %ecx	#,
	movq	%rax, %rdx	# i3dest_killed.471,
	movl	$1, %esi	#,
	movl	$3, %edi	#,
	call	gen_rtx_fmt_ee	#
	movq	-64(%rbp), %rsi	# elim_i1, tmp2016
	movq	-72(%rbp), %rcx	# elim_i2, tmp2017
	movq	-544(%rbp), %rdx	# i2, tmp2018
	movq	%rsi, %r9	# tmp2016,
	movq	%rcx, %r8	# tmp2017,
	movl	$0, %ecx	#,
	movl	$0, %esi	#,
	movq	%rax, %rdi	# D.29128,
	call	distribute_notes	#
	jmp	.L426	#
.L428:
	.loc 1 2724 0
	movq	-416(%rbp), %rax	# newi2pat, newi2pat.473
	.loc 1 2722 0
	testq	%rax, %rax	# newi2pat.473
	je	.L429	#,
	.loc 1 2722 0 is_stmt 0 discriminator 1
	movq	-544(%rbp), %rbx	# i2, iftmp.472
	jmp	.L430	#
.L429:
	.loc 1 2722 0 discriminator 2
	movl	$0, %ebx	#, iftmp.472
.L430:
	.loc 1 2722 0 discriminator 3
	movq	-408(%rbp), %rax	# i3dest_killed, i3dest_killed.474
	movl	$0, %ecx	#,
	movq	%rax, %rdx	# i3dest_killed.474,
	movl	$1, %esi	#,
	movl	$3, %edi	#,
	call	gen_rtx_fmt_ee	#
	movq	-64(%rbp), %rsi	# elim_i1, tmp2019
	movq	-72(%rbp), %rcx	# elim_i2, tmp2020
	movq	-536(%rbp), %rdx	# i3, tmp2021
	movq	%rsi, %r9	# tmp2019,
	movq	%rcx, %r8	# tmp2020,
	movq	%rbx, %rcx	# iftmp.472,
	movl	$0, %esi	#,
	movq	%rax, %rdi	# D.29128,
	call	distribute_notes	#
.L426:
	.loc 1 2728 0 is_stmt 1
	cmpl	$0, -484(%rbp)	#, i2dest_in_i2src
	je	.L431	#,
	.loc 1 2730 0
	movq	-400(%rbp), %rax	# i2dest, i2dest.475
	movzwl	(%rax), %eax	# i2dest.475_1573->code, D.29127
	cmpw	$61, %ax	#, D.29127
	jne	.L432	#,
	.loc 1 2731 0
	movq	reg_n_info(%rip), %rax	# reg_n_info, reg_n_info.476
	movq	-400(%rbp), %rdx	# i2dest, i2dest.477
	movl	8(%rdx), %edx	# i2dest.477_1576->fld[0].rtuint, D.29129
	movl	%edx, %edx	# D.29129, tmp2022
	addq	$4, %rdx	#, tmp2023
	movq	(%rax,%rdx,8), %rax	# reg_n_info.476_1575->data.reg, D.29139
	movl	24(%rax), %edx	# _1578->deaths, D.29124
	addl	$1, %edx	#, D.29124
	movl	%edx, 24(%rax)	# D.29124, _1578->deaths
.L432:
	.loc 1 2733 0
	movq	-416(%rbp), %rax	# newi2pat, newi2pat.478
	testq	%rax, %rax	# newi2pat.478
	je	.L433	#,
	.loc 1 2733 0 is_stmt 0 discriminator 1
	movq	-416(%rbp), %rdx	# newi2pat, newi2pat.479
	movq	-400(%rbp), %rax	# i2dest, i2dest.480
	movq	%rdx, %rsi	# newi2pat.479,
	movq	%rax, %rdi	# i2dest.480,
	call	reg_set_p	#
	testl	%eax, %eax	# D.29124
	je	.L433	#,
	.loc 1 2734 0 is_stmt 1
	movq	-400(%rbp), %rax	# i2dest, i2dest.481
	movl	$0, %ecx	#,
	movq	%rax, %rdx	# i2dest.481,
	movl	$1, %esi	#,
	movl	$3, %edi	#,
	call	gen_rtx_fmt_ee	#
	movq	-544(%rbp), %rdx	# i2, tmp2024
	movl	$0, %r9d	#,
	movl	$0, %r8d	#,
	movl	$0, %ecx	#,
	movl	$0, %esi	#,
	movq	%rax, %rdi	# D.29128,
	call	distribute_notes	#
	jmp	.L431	#
.L433:
	.loc 1 2738 0
	movq	-416(%rbp), %rax	# newi2pat, newi2pat.483
	.loc 1 2737 0
	testq	%rax, %rax	# newi2pat.483
	je	.L434	#,
	.loc 1 2737 0 is_stmt 0 discriminator 1
	movq	-544(%rbp), %rbx	# i2, iftmp.482
	jmp	.L435	#
.L434:
	.loc 1 2737 0 discriminator 2
	movl	$0, %ebx	#, iftmp.482
.L435:
	.loc 1 2737 0 discriminator 3
	movq	-400(%rbp), %rax	# i2dest, i2dest.484
	movl	$0, %ecx	#,
	movq	%rax, %rdx	# i2dest.484,
	movl	$1, %esi	#,
	movl	$3, %edi	#,
	call	gen_rtx_fmt_ee	#
	movq	-536(%rbp), %rdx	# i3, tmp2025
	movl	$0, %r9d	#,
	movl	$0, %r8d	#,
	movq	%rbx, %rcx	# iftmp.482,
	movl	$0, %esi	#,
	movq	%rax, %rdi	# D.29128,
	call	distribute_notes	#
.L431:
	.loc 1 2742 0 is_stmt 1
	cmpl	$0, -480(%rbp)	#, i1dest_in_i1src
	je	.L436	#,
	.loc 1 2744 0
	movq	-384(%rbp), %rax	# i1dest, i1dest.485
	movzwl	(%rax), %eax	# i1dest.485_1592->code, D.29127
	cmpw	$61, %ax	#, D.29127
	jne	.L437	#,
	.loc 1 2745 0
	movq	reg_n_info(%rip), %rax	# reg_n_info, reg_n_info.486
	movq	-384(%rbp), %rdx	# i1dest, i1dest.487
	movl	8(%rdx), %edx	# i1dest.487_1595->fld[0].rtuint, D.29129
	movl	%edx, %edx	# D.29129, tmp2026
	addq	$4, %rdx	#, tmp2027
	movq	(%rax,%rdx,8), %rax	# reg_n_info.486_1594->data.reg, D.29139
	movl	24(%rax), %edx	# _1597->deaths, D.29124
	addl	$1, %edx	#, D.29124
	movl	%edx, 24(%rax)	# D.29124, _1597->deaths
.L437:
	.loc 1 2747 0
	movq	-416(%rbp), %rax	# newi2pat, newi2pat.488
	testq	%rax, %rax	# newi2pat.488
	je	.L438	#,
	.loc 1 2747 0 is_stmt 0 discriminator 1
	movq	-416(%rbp), %rdx	# newi2pat, newi2pat.489
	movq	-384(%rbp), %rax	# i1dest, i1dest.490
	movq	%rdx, %rsi	# newi2pat.489,
	movq	%rax, %rdi	# i1dest.490,
	call	reg_set_p	#
	testl	%eax, %eax	# D.29124
	je	.L438	#,
	.loc 1 2748 0 is_stmt 1
	movq	-384(%rbp), %rax	# i1dest, i1dest.491
	movl	$0, %ecx	#,
	movq	%rax, %rdx	# i1dest.491,
	movl	$1, %esi	#,
	movl	$3, %edi	#,
	call	gen_rtx_fmt_ee	#
	movq	-544(%rbp), %rdx	# i2, tmp2028
	movl	$0, %r9d	#,
	movl	$0, %r8d	#,
	movl	$0, %ecx	#,
	movl	$0, %esi	#,
	movq	%rax, %rdi	# D.29128,
	call	distribute_notes	#
	jmp	.L436	#
.L438:
	.loc 1 2752 0
	movq	-416(%rbp), %rax	# newi2pat, newi2pat.493
	.loc 1 2751 0
	testq	%rax, %rax	# newi2pat.493
	je	.L439	#,
	.loc 1 2751 0 is_stmt 0 discriminator 1
	movq	-544(%rbp), %rbx	# i2, iftmp.492
	jmp	.L440	#
.L439:
	.loc 1 2751 0 discriminator 2
	movl	$0, %ebx	#, iftmp.492
.L440:
	.loc 1 2751 0 discriminator 3
	movq	-384(%rbp), %rax	# i1dest, i1dest.494
	movl	$0, %ecx	#,
	movq	%rax, %rdx	# i1dest.494,
	movl	$1, %esi	#,
	movl	$3, %edi	#,
	call	gen_rtx_fmt_ee	#
	movq	-536(%rbp), %rdx	# i3, tmp2029
	movl	$0, %r9d	#,
	movl	$0, %r8d	#,
	movq	%rbx, %rcx	# iftmp.492,
	movl	$0, %esi	#,
	movq	%rax, %rdi	# D.29128,
	call	distribute_notes	#
.L436:
	.loc 1 2756 0 is_stmt 1
	movq	-56(%rbp), %rax	# i3links, tmp2030
	movq	%rax, %rdi	# tmp2030,
	call	distribute_links	#
	.loc 1 2757 0
	movq	-48(%rbp), %rax	# i2links, tmp2031
	movq	%rax, %rdi	# tmp2031,
	call	distribute_links	#
	.loc 1 2758 0
	movq	-216(%rbp), %rax	# i1links, tmp2032
	movq	%rax, %rdi	# tmp2032,
	call	distribute_links	#
	.loc 1 2760 0
	movq	-400(%rbp), %rax	# i2dest, i2dest.495
	movzwl	(%rax), %eax	# i2dest.495_1611->code, D.29127
	cmpw	$61, %ax	#, D.29127
	jne	.L441	#,
.LBB27:
	.loc 1 2763 0
	movq	$0, -192(%rbp)	#, i2_insn
	movq	$0, -184(%rbp)	#, i2_val
	.loc 1 2773 0
	movq	-536(%rbp), %rax	# i3, tmp2033
	movq	48(%rax), %rax	# i3_143(D)->fld[5].rtx, tmp2034
	movq	%rax, -200(%rbp)	# tmp2034, link
	jmp	.L442	#
.L448:
	.loc 1 2774 0
	movq	-200(%rbp), %rax	# link, tmp2035
	movq	8(%rax), %rax	# link_59->fld[0].rtx, D.29128
	movzwl	(%rax), %eax	# _1616->code, D.29127
	movzwl	%ax, %eax	# D.29127, D.29124
	cltq
	movzbl	rtx_class(%rax), %eax	# rtx_class, D.29132
	cmpb	$105, %al	#, D.29132
	jne	.L443	#,
	.loc 1 2774 0 is_stmt 0 discriminator 1
	movq	-200(%rbp), %rax	# link, tmp2037
	movq	8(%rax), %rax	# link_59->fld[0].rtx, D.29128
	movq	32(%rax), %rax	# _1620->fld[3].rtx, D.29128
	movzwl	(%rax), %eax	# _1621->code, D.29127
	cmpw	$47, %ax	#, D.29127
	jne	.L444	#,
	.loc 1 2774 0 discriminator 3
	movq	-200(%rbp), %rax	# link, tmp2038
	movq	8(%rax), %rax	# link_59->fld[0].rtx, D.29128
	movq	32(%rax), %rax	# _1623->fld[3].rtx, iftmp.497
	jmp	.L446	#
.L444:
	.loc 1 2774 0 discriminator 4
	movq	-200(%rbp), %rax	# link, tmp2039
	movq	8(%rax), %rax	# link_59->fld[0].rtx, D.29128
	movq	32(%rax), %rdx	# _1625->fld[3].rtx, D.29128
	movq	-200(%rbp), %rax	# link, tmp2040
	movq	8(%rax), %rax	# link_59->fld[0].rtx, D.29128
	movq	%rdx, %rsi	# D.29128,
	movq	%rax, %rdi	# D.29128,
	call	single_set_2	#
	jmp	.L446	#
.L443:
	.loc 1 2774 0 discriminator 2
	movl	$0, %eax	#, iftmp.496
.L446:
	.loc 1 2774 0 discriminator 5
	movq	%rax, -32(%rbp)	# iftmp.496, set
	cmpq	$0, -32(%rbp)	#, set
	je	.L447	#,
	.loc 1 2775 0 is_stmt 1
	movq	-32(%rbp), %rax	# set, tmp2041
	movq	8(%rax), %rdx	# set_1631->fld[0].rtx, D.29128
	movq	-400(%rbp), %rax	# i2dest, i2dest.498
	movq	%rdx, %rsi	# D.29128,
	movq	%rax, %rdi	# i2dest.498,
	call	rtx_equal_p	#
	testl	%eax, %eax	# D.29124
	je	.L447	#,
	.loc 1 2776 0
	movq	-200(%rbp), %rax	# link, tmp2042
	movq	8(%rax), %rax	# link_59->fld[0].rtx, tmp2043
	movq	%rax, -192(%rbp)	# tmp2043, i2_insn
	movq	-32(%rbp), %rax	# set, tmp2044
	movq	16(%rax), %rax	# set_1631->fld[1].rtx, tmp2045
	movq	%rax, -184(%rbp)	# tmp2045, i2_val
.L447:
	.loc 1 2773 0
	movq	-200(%rbp), %rax	# link, tmp2046
	movq	16(%rax), %rax	# link_59->fld[1].rtx, tmp2047
	movq	%rax, -200(%rbp)	# tmp2047, link
.L442:
	.loc 1 2773 0 is_stmt 0 discriminator 1
	cmpq	$0, -200(%rbp)	#, link
	jne	.L448	#,
	.loc 1 2778 0 is_stmt 1
	movq	-400(%rbp), %rax	# i2dest, i2dest.499
	movq	-184(%rbp), %rdx	# i2_val, tmp2048
	movq	-192(%rbp), %rcx	# i2_insn, tmp2049
	movq	%rcx, %rsi	# tmp2049,
	movq	%rax, %rdi	# i2dest.499,
	call	record_value_for_reg	#
	.loc 1 2782 0
	cmpl	$0, -504(%rbp)	#, added_sets_2
	jne	.L441	#,
	.loc 1 2783 0
	movq	-416(%rbp), %rax	# newi2pat, newi2pat.500
	testq	%rax, %rax	# newi2pat.500
	je	.L449	#,
	.loc 1 2783 0 is_stmt 0 discriminator 1
	movq	-416(%rbp), %rdx	# newi2pat, newi2pat.501
	movq	-400(%rbp), %rax	# i2dest, i2dest.502
	movq	%rdx, %rsi	# newi2pat.501,
	movq	%rax, %rdi	# i2dest.502,
	call	reg_mentioned_p	#
	testl	%eax, %eax	# D.29124
	jne	.L441	#,
.L449:
	.loc 1 2784 0 is_stmt 1
	cmpl	$0, -484(%rbp)	#, i2dest_in_i2src
	jne	.L441	#,
	.loc 1 2786 0
	movq	-400(%rbp), %rax	# i2dest, i2dest.503
	movl	8(%rax), %eax	# i2dest.503_1643->fld[0].rtuint, tmp2050
	movl	%eax, -428(%rbp)	# tmp2050, regno
	.loc 1 2787 0
	movq	reg_n_info(%rip), %rax	# reg_n_info, reg_n_info.504
	movl	-428(%rbp), %edx	# regno, tmp2051
	addq	$4, %rdx	#, tmp2052
	movq	(%rax,%rdx,8), %rax	# reg_n_info.504_1645->data.reg, D.29139
	movl	12(%rax), %edx	# _1646->sets, D.29124
	subl	$1, %edx	#, D.29124
	movl	%edx, 12(%rax)	# D.29124, _1646->sets
.L441:
.LBE27:
	.loc 1 2791 0
	cmpq	$0, -552(%rbp)	#, i1
	je	.L450	#,
	.loc 1 2791 0 is_stmt 0 discriminator 1
	movq	-384(%rbp), %rax	# i1dest, i1dest.505
	movzwl	(%rax), %eax	# i1dest.505_1649->code, D.29127
	cmpw	$61, %ax	#, D.29127
	jne	.L450	#,
.LBB28:
	.loc 1 2794 0 is_stmt 1
	movq	$0, -168(%rbp)	#, i1_insn
	movq	$0, -160(%rbp)	#, i1_val
	.loc 1 2796 0
	movq	-536(%rbp), %rax	# i3, tmp2053
	movq	48(%rax), %rax	# i3_143(D)->fld[5].rtx, tmp2054
	movq	%rax, -176(%rbp)	# tmp2054, link
	jmp	.L451	#
.L457:
	.loc 1 2797 0
	movq	-176(%rbp), %rax	# link, tmp2055
	movq	8(%rax), %rax	# link_64->fld[0].rtx, D.29128
	movzwl	(%rax), %eax	# _1654->code, D.29127
	movzwl	%ax, %eax	# D.29127, D.29124
	cltq
	movzbl	rtx_class(%rax), %eax	# rtx_class, D.29132
	cmpb	$105, %al	#, D.29132
	jne	.L452	#,
	.loc 1 2797 0 is_stmt 0 discriminator 1
	movq	-176(%rbp), %rax	# link, tmp2057
	movq	8(%rax), %rax	# link_64->fld[0].rtx, D.29128
	movq	32(%rax), %rax	# _1658->fld[3].rtx, D.29128
	movzwl	(%rax), %eax	# _1659->code, D.29127
	cmpw	$47, %ax	#, D.29127
	jne	.L453	#,
	.loc 1 2797 0 discriminator 3
	movq	-176(%rbp), %rax	# link, tmp2058
	movq	8(%rax), %rax	# link_64->fld[0].rtx, D.29128
	movq	32(%rax), %rax	# _1661->fld[3].rtx, iftmp.507
	jmp	.L455	#
.L453:
	.loc 1 2797 0 discriminator 4
	movq	-176(%rbp), %rax	# link, tmp2059
	movq	8(%rax), %rax	# link_64->fld[0].rtx, D.29128
	movq	32(%rax), %rdx	# _1663->fld[3].rtx, D.29128
	movq	-176(%rbp), %rax	# link, tmp2060
	movq	8(%rax), %rax	# link_64->fld[0].rtx, D.29128
	movq	%rdx, %rsi	# D.29128,
	movq	%rax, %rdi	# D.29128,
	call	single_set_2	#
	jmp	.L455	#
.L452:
	.loc 1 2797 0 discriminator 2
	movl	$0, %eax	#, iftmp.506
.L455:
	.loc 1 2797 0 discriminator 5
	movq	%rax, -24(%rbp)	# iftmp.506, set
	cmpq	$0, -24(%rbp)	#, set
	je	.L456	#,
	.loc 1 2798 0 is_stmt 1
	movq	-24(%rbp), %rax	# set, tmp2061
	movq	8(%rax), %rdx	# set_1669->fld[0].rtx, D.29128
	movq	-384(%rbp), %rax	# i1dest, i1dest.508
	movq	%rdx, %rsi	# D.29128,
	movq	%rax, %rdi	# i1dest.508,
	call	rtx_equal_p	#
	testl	%eax, %eax	# D.29124
	je	.L456	#,
	.loc 1 2799 0
	movq	-176(%rbp), %rax	# link, tmp2062
	movq	8(%rax), %rax	# link_64->fld[0].rtx, tmp2063
	movq	%rax, -168(%rbp)	# tmp2063, i1_insn
	movq	-24(%rbp), %rax	# set, tmp2064
	movq	16(%rax), %rax	# set_1669->fld[1].rtx, tmp2065
	movq	%rax, -160(%rbp)	# tmp2065, i1_val
.L456:
	.loc 1 2796 0
	movq	-176(%rbp), %rax	# link, tmp2066
	movq	16(%rax), %rax	# link_64->fld[1].rtx, tmp2067
	movq	%rax, -176(%rbp)	# tmp2067, link
.L451:
	.loc 1 2796 0 is_stmt 0 discriminator 1
	cmpq	$0, -176(%rbp)	#, link
	jne	.L457	#,
	.loc 1 2801 0 is_stmt 1
	movq	-384(%rbp), %rax	# i1dest, i1dest.509
	movq	-160(%rbp), %rdx	# i1_val, tmp2068
	movq	-168(%rbp), %rcx	# i1_insn, tmp2069
	movq	%rcx, %rsi	# tmp2069,
	movq	%rax, %rdi	# i1dest.509,
	call	record_value_for_reg	#
	.loc 1 2803 0
	movq	-384(%rbp), %rax	# i1dest, i1dest.510
	movl	8(%rax), %eax	# i1dest.510_1677->fld[0].rtuint, tmp2070
	movl	%eax, -428(%rbp)	# tmp2070, regno
	.loc 1 2804 0
	cmpl	$0, -508(%rbp)	#, added_sets_1
	jne	.L450	#,
	.loc 1 2804 0 is_stmt 0 discriminator 1
	cmpl	$0, -480(%rbp)	#, i1dest_in_i1src
	jne	.L450	#,
	.loc 1 2805 0 is_stmt 1
	movq	reg_n_info(%rip), %rax	# reg_n_info, reg_n_info.511
	movl	-428(%rbp), %edx	# regno, tmp2071
	addq	$4, %rdx	#, tmp2072
	movq	(%rax,%rdx,8), %rax	# reg_n_info.511_1679->data.reg, D.29139
	movl	12(%rax), %edx	# _1680->sets, D.29124
	subl	$1, %edx	#, D.29124
	movl	%edx, 12(%rax)	# D.29124, _1680->sets
.L450:
.LBE28:
	.loc 1 2811 0
	movq	-416(%rbp), %rax	# newi2pat, newi2pat.512
	testq	%rax, %rax	# newi2pat.512
	je	.L458	#,
	.loc 1 2812 0
	movq	-416(%rbp), %rax	# newi2pat, newi2pat.513
	movl	$0, %edx	#,
	movl	$set_nonzero_bits_and_sign_copies, %esi	#,
	movq	%rax, %rdi	# newi2pat.513,
	call	note_stores	#
.L458:
	.loc 1 2813 0
	movq	-424(%rbp), %rax	# newpat, newpat.514
	movl	$0, %edx	#,
	movl	$set_nonzero_bits_and_sign_copies, %esi	#,
	movq	%rax, %rdi	# newpat.514,
	call	note_stores	#
	.loc 1 2822 0
	movq	-424(%rbp), %rax	# newpat, newpat.515
	movzwl	(%rax), %eax	# newpat.515_1686->code, D.29127
	cmpw	$51, %ax	#, D.29127
	je	.L459	#,
	.loc 1 2822 0 is_stmt 0 discriminator 1
	movq	-536(%rbp), %rax	# i3, tmp2073
	movq	%rax, %rdi	# tmp2073,
	call	any_uncondjump_p	#
	testl	%eax, %eax	# D.29124
	je	.L460	#,
.L459:
	.loc 1 2824 0 is_stmt 1
	movq	-560(%rbp), %rax	# new_direct_jump_p, tmp2074
	movl	$1, (%rax)	#, *new_direct_jump_p_1689(D)
	.loc 1 2826 0
	movq	-536(%rbp), %rax	# i3, tmp2075
	movq	%rax, %rdi	# tmp2075,
	call	next_nonnote_insn	#
	movq	%rax, -328(%rbp)	# tmp2076, temp
	cmpq	$0, -328(%rbp)	#, temp
	je	.L461	#,
	.loc 1 2827 0
	movq	-328(%rbp), %rax	# temp, tmp2077
	movzwl	(%rax), %eax	# temp_1690->code, D.29127
	cmpw	$35, %ax	#, D.29127
	je	.L460	#,
.L461:
	.loc 1 2828 0
	movq	-536(%rbp), %rax	# i3, tmp2078
	movq	%rax, %rdi	# tmp2078,
	call	emit_barrier_after	#
.L460:
	.loc 1 2832 0
	movq	-424(%rbp), %rax	# newpat, newpat.516
	movzwl	(%rax), %eax	# newpat.516_1692->code, D.29127
	cmpw	$47, %ax	#, D.29127
	jne	.L462	#,
	.loc 1 2833 0
	movq	-424(%rbp), %rax	# newpat, newpat.517
	movq	16(%rax), %rdx	# newpat.517_1694->fld[1].rtx, D.29128
	movq	global_rtl(%rip), %rax	# global_rtl, D.29128
	cmpq	%rax, %rdx	# D.29128, D.29128
	jne	.L462	#,
	.loc 1 2834 0
	movq	-424(%rbp), %rax	# newpat, newpat.518
	movq	8(%rax), %rdx	# newpat.518_1697->fld[0].rtx, D.29128
	movq	global_rtl(%rip), %rax	# global_rtl, D.29128
	cmpq	%rax, %rdx	# D.29128, D.29128
	jne	.L462	#,
	.loc 1 2835 0
	movq	-560(%rbp), %rax	# new_direct_jump_p, tmp2079
	movl	$1, (%rax)	#, *new_direct_jump_p_1689(D)
.L462:
.LBE24:
	.loc 1 2838 0
	movl	combine_successes(%rip), %eax	# combine_successes, combine_successes.519
	addl	$1, %eax	#, combine_successes.520
	movl	%eax, combine_successes(%rip)	# combine_successes.520, combine_successes
	.loc 1 2839 0
	call	undo_commit	#
	.loc 1 2843 0
	movq	$0, subst_prev_insn(%rip)	#, subst_prev_insn
	.loc 1 2845 0
	movq	added_links_insn(%rip), %rax	# added_links_insn, added_links_insn.521
	testq	%rax, %rax	# added_links_insn.521
	je	.L463	#,
	.loc 1 2846 0
	movq	-416(%rbp), %rax	# newi2pat, newi2pat.522
	testq	%rax, %rax	# newi2pat.522
	je	.L464	#,
	.loc 1 2846 0 is_stmt 0 discriminator 1
	movq	added_links_insn(%rip), %rax	# added_links_insn, added_links_insn.524
	movl	8(%rax), %edx	# added_links_insn.524_1704->fld[0].rtint, D.29124
	movl	max_uid_cuid(%rip), %eax	# max_uid_cuid, max_uid_cuid.525
	cmpl	%eax, %edx	# max_uid_cuid.525, D.29124
	jle	.L465	#,
	movq	added_links_insn(%rip), %rax	# added_links_insn, added_links_insn.526
	movq	%rax, %rdi	# added_links_insn.526,
	call	insn_cuid	#
	movl	%eax, %ebx	#, iftmp.523
	jmp	.L466	#
.L465:
	.loc 1 2846 0 discriminator 2
	movq	uid_cuid(%rip), %rdx	# uid_cuid, uid_cuid.527
	movq	added_links_insn(%rip), %rax	# added_links_insn, added_links_insn.528
	movl	8(%rax), %eax	# added_links_insn.528_1710->fld[0].rtint, D.29124
	cltq
	salq	$2, %rax	#, D.29125
	addq	%rdx, %rax	# uid_cuid.527, D.29126
	movl	(%rax), %ebx	# *_1714, iftmp.523
.L466:
	.loc 1 2846 0 discriminator 3
	movq	-544(%rbp), %rax	# i2, tmp2080
	movl	8(%rax), %edx	# i2_1->fld[0].rtint, D.29124
	movl	max_uid_cuid(%rip), %eax	# max_uid_cuid, max_uid_cuid.530
	cmpl	%eax, %edx	# max_uid_cuid.530, D.29124
	jle	.L467	#,
	.loc 1 2846 0 discriminator 1
	movq	-544(%rbp), %rax	# i2, tmp2081
	movq	%rax, %rdi	# tmp2081,
	call	insn_cuid	#
	jmp	.L468	#
.L467:
	.loc 1 2846 0 discriminator 2
	movq	uid_cuid(%rip), %rdx	# uid_cuid, uid_cuid.531
	movq	-544(%rbp), %rax	# i2, tmp2082
	movl	8(%rax), %eax	# i2_1->fld[0].rtint, D.29124
	cltq
	salq	$2, %rax	#, D.29125
	addq	%rdx, %rax	# uid_cuid.531, D.29126
	movl	(%rax), %eax	# *_1723, iftmp.529
.L468:
	.loc 1 2846 0 discriminator 3
	cmpl	%eax, %ebx	# iftmp.529, iftmp.523
	jge	.L463	#,
.L464:
	.loc 1 2847 0 is_stmt 1
	movq	added_links_insn(%rip), %rax	# added_links_insn, added_links_insn.533
	movl	8(%rax), %edx	# added_links_insn.533_1725->fld[0].rtint, D.29124
	movl	max_uid_cuid(%rip), %eax	# max_uid_cuid, max_uid_cuid.534
	cmpl	%eax, %edx	# max_uid_cuid.534, D.29124
	jle	.L469	#,
	.loc 1 2847 0 is_stmt 0 discriminator 1
	movq	added_links_insn(%rip), %rax	# added_links_insn, added_links_insn.535
	movq	%rax, %rdi	# added_links_insn.535,
	call	insn_cuid	#
	movl	%eax, %ebx	#, iftmp.532
	jmp	.L470	#
.L469:
	.loc 1 2847 0 discriminator 2
	movq	uid_cuid(%rip), %rdx	# uid_cuid, uid_cuid.536
	movq	added_links_insn(%rip), %rax	# added_links_insn, added_links_insn.537
	movl	8(%rax), %eax	# added_links_insn.537_1731->fld[0].rtint, D.29124
	cltq
	salq	$2, %rax	#, D.29125
	addq	%rdx, %rax	# uid_cuid.536, D.29126
	movl	(%rax), %ebx	# *_1735, iftmp.532
.L470:
	.loc 1 2847 0 discriminator 3
	movq	-536(%rbp), %rax	# i3, tmp2083
	movl	8(%rax), %edx	# i3_143(D)->fld[0].rtint, D.29124
	movl	max_uid_cuid(%rip), %eax	# max_uid_cuid, max_uid_cuid.539
	cmpl	%eax, %edx	# max_uid_cuid.539, D.29124
	jle	.L471	#,
	.loc 1 2847 0 discriminator 1
	movq	-536(%rbp), %rax	# i3, tmp2084
	movq	%rax, %rdi	# tmp2084,
	call	insn_cuid	#
	jmp	.L472	#
.L471:
	.loc 1 2847 0 discriminator 2
	movq	uid_cuid(%rip), %rdx	# uid_cuid, uid_cuid.540
	movq	-536(%rbp), %rax	# i3, tmp2085
	movl	8(%rax), %eax	# i3_143(D)->fld[0].rtint, D.29124
	cltq
	salq	$2, %rax	#, D.29125
	addq	%rdx, %rax	# uid_cuid.540, D.29126
	movl	(%rax), %eax	# *_1744, iftmp.538
.L472:
	.loc 1 2847 0 discriminator 3
	cmpl	%eax, %ebx	# iftmp.538, iftmp.532
	jge	.L463	#,
	.loc 1 2848 0 is_stmt 1
	movq	added_links_insn(%rip), %rax	# added_links_insn, D.29123
	jmp	.L475	#
.L463:
	.loc 1 2850 0
	movq	-416(%rbp), %rax	# newi2pat, newi2pat.542
	testq	%rax, %rax	# newi2pat.542
	je	.L473	#,
	.loc 1 2850 0 is_stmt 0 discriminator 1
	movq	-544(%rbp), %rax	# i2, iftmp.541
	jmp	.L474	#
.L473:
	.loc 1 2850 0 discriminator 2
	movq	-536(%rbp), %rax	# i3, iftmp.541
.L474:
.L475:
	.loc 1 2851 0 is_stmt 1
	addq	$584, %rsp	#,
	popq	%rbx	#
	popq	%rbp	#
	.cfi_def_cfa 7, 8
	ret
	.cfi_endproc
.LFE13:
	.size	try_combine, .-try_combine
	.type	undo_all, @function
undo_all:
.LFB14:
	.loc 1 2857 0
	.cfi_startproc
	pushq	%rbp	#
	.cfi_def_cfa_offset 16
	.cfi_offset 6, -16
	movq	%rsp, %rbp	#,
	.cfi_def_cfa_register 6
	.loc 1 2860 0
	movq	undobuf(%rip), %rax	# undobuf.undos, tmp65
	movq	%rax, -16(%rbp)	# tmp65, undo
	jmp	.L477	#
.L480:
	.loc 1 2862 0
	movq	-16(%rbp), %rax	# undo, tmp66
	movq	(%rax), %rax	# undo_1->next, tmp67
	movq	%rax, -8(%rbp)	# tmp67, next
	.loc 1 2863 0
	movq	-16(%rbp), %rax	# undo, tmp68
	movl	8(%rax), %eax	# undo_1->is_int, D.29145
	testl	%eax, %eax	# D.29145
	je	.L478	#,
	.loc 1 2864 0
	movq	-16(%rbp), %rax	# undo, tmp69
	movq	24(%rax), %rax	# undo_1->where.i, D.29146
	movq	-16(%rbp), %rdx	# undo, tmp70
	movl	16(%rdx), %edx	# undo_1->old_contents.i, D.29147
	movl	%edx, (%rax)	# D.29147, *_5
	jmp	.L479	#
.L478:
	.loc 1 2866 0
	movq	-16(%rbp), %rax	# undo, tmp71
	movq	24(%rax), %rax	# undo_1->where.r, D.29148
	movq	-16(%rbp), %rdx	# undo, tmp72
	movq	16(%rdx), %rdx	# undo_1->old_contents.r, D.29149
	movq	%rdx, (%rax)	# D.29149, *_7
.L479:
	.loc 1 2868 0
	movq	undobuf+8(%rip), %rdx	# undobuf.frees, D.29150
	movq	-16(%rbp), %rax	# undo, tmp73
	movq	%rdx, (%rax)	# D.29150, undo_1->next
	.loc 1 2869 0
	movq	-16(%rbp), %rax	# undo, tmp74
	movq	%rax, undobuf+8(%rip)	# tmp74, undobuf.frees
	.loc 1 2860 0
	movq	-8(%rbp), %rax	# next, tmp75
	movq	%rax, -16(%rbp)	# tmp75, undo
.L477:
	.loc 1 2860 0 is_stmt 0 discriminator 1
	cmpq	$0, -16(%rbp)	#, undo
	jne	.L480	#,
	.loc 1 2872 0 is_stmt 1
	movq	$0, undobuf(%rip)	#, undobuf.undos
	.loc 1 2876 0
	movq	$0, subst_prev_insn(%rip)	#, subst_prev_insn
	.loc 1 2877 0
	popq	%rbp	#
	.cfi_def_cfa 7, 8
	ret
	.cfi_endproc
.LFE14:
	.size	undo_all, .-undo_all
	.type	undo_commit, @function
undo_commit:
.LFB15:
	.loc 1 2884 0
	.cfi_startproc
	pushq	%rbp	#
	.cfi_def_cfa_offset 16
	.cfi_offset 6, -16
	movq	%rsp, %rbp	#,
	.cfi_def_cfa_register 6
	.loc 1 2887 0
	movq	undobuf(%rip), %rax	# undobuf.undos, tmp60
	movq	%rax, -16(%rbp)	# tmp60, undo
	jmp	.L482	#
.L483:
	.loc 1 2889 0 discriminator 2
	movq	-16(%rbp), %rax	# undo, tmp61
	movq	(%rax), %rax	# undo_1->next, tmp62
	movq	%rax, -8(%rbp)	# tmp62, next
	.loc 1 2890 0 discriminator 2
	movq	undobuf+8(%rip), %rdx	# undobuf.frees, D.29151
	movq	-16(%rbp), %rax	# undo, tmp63
	movq	%rdx, (%rax)	# D.29151, undo_1->next
	.loc 1 2891 0 discriminator 2
	movq	-16(%rbp), %rax	# undo, tmp64
	movq	%rax, undobuf+8(%rip)	# tmp64, undobuf.frees
	.loc 1 2887 0 discriminator 2
	movq	-8(%rbp), %rax	# next, tmp65
	movq	%rax, -16(%rbp)	# tmp65, undo
.L482:
	.loc 1 2887 0 is_stmt 0 discriminator 1
	cmpq	$0, -16(%rbp)	#, undo
	jne	.L483	#,
	.loc 1 2893 0 is_stmt 1
	movq	$0, undobuf(%rip)	#, undobuf.undos
	.loc 1 2894 0
	popq	%rbp	#
	.cfi_def_cfa 7, 8
	ret
	.cfi_endproc
.LFE15:
	.size	undo_commit, .-undo_commit
	.type	find_split_point, @function
find_split_point:
.LFB16:
	.loc 1 2908 0
	.cfi_startproc
	pushq	%rbp	#
	.cfi_def_cfa_offset 16
	.cfi_offset 6, -16
	movq	%rsp, %rbp	#,
	.cfi_def_cfa_register 6
	pushq	%r12	#
	pushq	%rbx	#
	subq	$176, %rsp	#,
	.cfi_offset 12, -24
	.cfi_offset 3, -32
	movq	%rdi, -168(%rbp)	# loc, loc
	movq	%rsi, -176(%rbp)	# insn, insn
	.loc 1 2909 0
	movq	-168(%rbp), %rax	# loc, tmp415
	movq	(%rax), %rax	# *loc_14(D), tmp416
	movq	%rax, -112(%rbp)	# tmp416, x
	.loc 1 2910 0
	movq	-112(%rbp), %rax	# x, tmp417
	movzwl	(%rax), %eax	# x_15->code, D.29153
	movzwl	%ax, %eax	# D.29153, tmp418
	movl	%eax, -156(%rbp)	# tmp418, code
	.loc 1 2912 0
	movq	$0, -136(%rbp)	#, len
	.loc 1 2913 0
	movq	$0, -128(%rbp)	#, pos
	.loc 1 2914 0
	movl	$0, -160(%rbp)	#, unsignedp
	.loc 1 2915 0
	movq	$0, -120(%rbp)	#, inner
	.loc 1 2918 0
	movl	-156(%rbp), %eax	# code, tmp420
	subl	$47, %eax	#, tmp419
	cmpl	$37, %eax	#, tmp419
	ja	.L538	#,
	movl	%eax, %eax	# tmp419, tmp421
	movq	.L487(,%rax,8), %rax	#, tmp422
	jmp	*%rax	# tmp422
	.section	.rodata
	.align 8
	.align 4
.L487:
	.quad	.L486
	.quad	.L538
	.quad	.L538
	.quad	.L538
	.quad	.L538
	.quad	.L538
	.quad	.L538
	.quad	.L538
	.quad	.L538
	.quad	.L538
	.quad	.L538
	.quad	.L538
	.quad	.L538
	.quad	.L538
	.quad	.L538
	.quad	.L538
	.quad	.L488
	.quad	.L538
	.quad	.L538
	.quad	.L489
	.quad	.L538
	.quad	.L538
	.quad	.L538
	.quad	.L538
	.quad	.L538
	.quad	.L538
	.quad	.L538
	.quad	.L538
	.quad	.L538
	.quad	.L538
	.quad	.L538
	.quad	.L538
	.quad	.L538
	.quad	.L538
	.quad	.L538
	.quad	.L538
	.quad	.L490
	.quad	.L490
	.text
.L488:
	.loc 1 2924 0
	movq	-112(%rbp), %rax	# x, tmp423
	movq	8(%rax), %rax	# x_15->fld[0].rtx, D.29154
	movzwl	(%rax), %eax	# _22->code, D.29153
	cmpw	$66, %ax	#, D.29153
	jne	.L491	#,
	.loc 1 2925 0
	movq	-168(%rbp), %rax	# loc, D.29152
	jmp	.L492	#
.L491:
	.loc 1 2927 0
	movq	-112(%rbp), %rax	# x, tmp424
	leaq	8(%rax), %rdx	#, D.29152
	movq	-176(%rbp), %rax	# insn, tmp425
	movq	%rax, %rsi	# tmp425,
	movq	%rdx, %rdi	# D.29152,
	call	find_split_point	#
	jmp	.L492	#
.L489:
	.loc 1 2949 0
	movq	-112(%rbp), %rax	# x, tmp426
	movq	8(%rax), %rax	# x_15->fld[0].rtx, D.29154
	movzwl	(%rax), %eax	# _28->code, D.29153
	cmpw	$75, %ax	#, D.29153
	jne	.L493	#,
	.loc 1 2950 0
	movq	-112(%rbp), %rax	# x, tmp427
	movq	8(%rax), %rax	# x_15->fld[0].rtx, D.29154
	movq	16(%rax), %rax	# _30->fld[1].rtx, D.29154
	movzwl	(%rax), %eax	# _31->code, D.29153
	cmpw	$54, %ax	#, D.29153
	jne	.L493	#,
	.loc 1 2951 0
	movq	-112(%rbp), %rax	# x, tmp428
	movq	8(%rax), %rdx	# x_15->fld[0].rtx, D.29154
	movq	-112(%rbp), %rax	# x, tmp429
	movzbl	2(%rax), %eax	# x_15->mode, D.29155
	movzbl	%al, %eax	# D.29155, D.29156
	movq	%rdx, %rsi	# D.29154,
	movl	%eax, %edi	# D.29156,
	call	memory_address_p	#
	testl	%eax, %eax	# D.29157
	jne	.L493	#,
.LBB29:
	.loc 1 2953 0
	movq	cfun(%rip), %rax	# cfun, cfun.543
	movq	24(%rax), %rax	# cfun.543_37->emit, D.29158
	movq	80(%rax), %rax	# _38->x_regno_reg_rtx, D.29152
	movq	424(%rax), %rax	# MEM[(struct rtx_def * *)_39 + 424B], tmp430
	movq	%rax, -104(%rbp)	# tmp430, reg
	.loc 1 2954 0
	movq	subst_insn(%rip), %rbx	# subst_insn, subst_insn.544
	movq	-112(%rbp), %rax	# x, tmp431
	movq	8(%rax), %rdx	# x_15->fld[0].rtx, D.29154
	movq	-104(%rbp), %rax	# reg, tmp432
	movq	%rdx, %rcx	# D.29154,
	movq	%rax, %rdx	# tmp432,
	movl	$0, %esi	#,
	movl	$47, %edi	#,
	call	gen_rtx_fmt_ee	#
	movq	%rbx, %rsi	# subst_insn.544,
	movq	%rax, %rdi	# D.29154,
	call	split_insns	#
	movq	%rax, -96(%rbp)	# tmp433, seq
	.loc 1 2962 0
	cmpq	$0, -96(%rbp)	#, seq
	je	.L494	#,
	.loc 1 2962 0 is_stmt 0 discriminator 1
	movq	-96(%rbp), %rax	# seq, tmp434
	movq	8(%rax), %rax	# seq_44->fld[0].rtvec, D.29159
	movl	(%rax), %eax	# _45->num_elem, D.29157
	cmpl	$2, %eax	#, D.29157
	jne	.L494	#,
	.loc 1 2963 0 is_stmt 1
	movq	-96(%rbp), %rax	# seq, tmp435
	movq	8(%rax), %rax	# seq_44->fld[0].rtvec, D.29159
	movq	8(%rax), %rax	# _47->elem, D.29154
	movzwl	(%rax), %eax	# _48->code, D.29153
	cmpw	$32, %ax	#, D.29153
	jne	.L494	#,
	.loc 1 2964 0
	movq	-96(%rbp), %rax	# seq, tmp436
	movq	8(%rax), %rax	# seq_44->fld[0].rtvec, D.29159
	movq	8(%rax), %rax	# _50->elem, D.29154
	movq	32(%rax), %rax	# _51->fld[3].rtx, D.29154
	movzwl	(%rax), %eax	# _52->code, D.29153
	cmpw	$47, %ax	#, D.29153
	jne	.L494	#,
	.loc 1 2965 0
	movq	-96(%rbp), %rax	# seq, tmp437
	movq	8(%rax), %rax	# seq_44->fld[0].rtvec, D.29159
	movq	8(%rax), %rax	# _54->elem, D.29154
	movq	32(%rax), %rax	# _55->fld[3].rtx, D.29154
	movq	8(%rax), %rax	# _56->fld[0].rtx, D.29154
	cmpq	-104(%rbp), %rax	# reg, D.29154
	jne	.L494	#,
	.loc 1 2967 0
	movq	-96(%rbp), %rax	# seq, tmp438
	movq	8(%rax), %rax	# seq_44->fld[0].rtvec, D.29159
	movq	8(%rax), %rax	# _58->elem, D.29154
	movq	32(%rax), %rax	# _59->fld[3].rtx, D.29154
	.loc 1 2966 0
	movq	16(%rax), %rdx	# _60->fld[1].rtx, D.29154
	movq	-104(%rbp), %rax	# reg, tmp439
	movq	%rdx, %rsi	# D.29154,
	movq	%rax, %rdi	# tmp439,
	call	reg_mentioned_p	#
	testl	%eax, %eax	# D.29157
	jne	.L494	#,
	.loc 1 2968 0
	movq	-96(%rbp), %rax	# seq, tmp440
	movq	8(%rax), %rax	# seq_44->fld[0].rtvec, D.29159
	movq	16(%rax), %rax	# _63->elem, D.29154
	movzwl	(%rax), %eax	# _64->code, D.29153
	cmpw	$32, %ax	#, D.29153
	jne	.L494	#,
	.loc 1 2969 0
	movq	-96(%rbp), %rax	# seq, tmp441
	movq	8(%rax), %rax	# seq_44->fld[0].rtvec, D.29159
	movq	16(%rax), %rax	# _66->elem, D.29154
	movq	32(%rax), %rax	# _67->fld[3].rtx, D.29154
	movzwl	(%rax), %eax	# _68->code, D.29153
	cmpw	$47, %ax	#, D.29153
	jne	.L494	#,
	.loc 1 2970 0
	movq	-96(%rbp), %rax	# seq, tmp442
	movq	8(%rax), %rax	# seq_44->fld[0].rtvec, D.29159
	movq	16(%rax), %rax	# _70->elem, D.29154
	movq	32(%rax), %rax	# _71->fld[3].rtx, D.29154
	movq	8(%rax), %rax	# _72->fld[0].rtx, D.29154
	cmpq	-104(%rbp), %rax	# reg, D.29154
	jne	.L494	#,
	.loc 1 2972 0
	movq	-96(%rbp), %rax	# seq, tmp443
	movq	8(%rax), %rax	# seq_44->fld[0].rtvec, D.29159
	movq	16(%rax), %rax	# _74->elem, D.29154
	movq	32(%rax), %rax	# _75->fld[3].rtx, D.29154
	.loc 1 2971 0
	movq	16(%rax), %rdx	# _76->fld[1].rtx, D.29154
	movq	-112(%rbp), %rax	# x, tmp444
	movzbl	2(%rax), %eax	# x_15->mode, D.29155
	movzbl	%al, %eax	# D.29155, D.29156
	movq	%rdx, %rsi	# D.29154,
	movl	%eax, %edi	# D.29156,
	call	memory_address_p	#
	testl	%eax, %eax	# D.29157
	je	.L494	#,
.LBB30:
	.loc 1 2974 0
	movq	-96(%rbp), %rax	# seq, tmp445
	movq	8(%rax), %rax	# seq_44->fld[0].rtvec, D.29159
	movq	8(%rax), %rax	# _81->elem, D.29154
	movq	32(%rax), %rax	# _82->fld[3].rtx, D.29154
	movq	16(%rax), %rax	# _83->fld[1].rtx, tmp446
	movq	%rax, -88(%rbp)	# tmp446, src1
	.loc 1 2975 0
	movq	-96(%rbp), %rax	# seq, tmp447
	movq	8(%rax), %rax	# seq_44->fld[0].rtvec, D.29159
	movq	16(%rax), %rax	# _85->elem, D.29154
	movq	32(%rax), %rax	# _86->fld[3].rtx, D.29154
	movq	16(%rax), %rax	# _87->fld[1].rtx, tmp448
	movq	%rax, -80(%rbp)	# tmp448, src2
	.loc 1 2982 0
	movq	-88(%rbp), %rdx	# src1, tmp449
	movq	-104(%rbp), %rcx	# reg, tmp450
	movq	-80(%rbp), %rax	# src2, tmp451
	movq	%rcx, %rsi	# tmp450,
	movq	%rax, %rdi	# tmp451,
	call	replace_rtx	#
	movq	%rax, -80(%rbp)	# tmp452, src2
	.loc 1 2983 0
	movq	$0, -144(%rbp)	#, split
	.loc 1 2984 0
	movq	-80(%rbp), %rax	# src2, tmp453
	movq	8(%rax), %rax	# src2_89->fld[0].rtx, D.29154
	cmpq	-88(%rbp), %rax	# src1, D.29154
	jne	.L495	#,
	.loc 1 2985 0
	movq	-80(%rbp), %rax	# src2, tmp457
	addq	$8, %rax	#, tmp456
	movq	%rax, -144(%rbp)	# tmp456, split
	jmp	.L496	#
.L495:
	.loc 1 2986 0
	movq	-80(%rbp), %rax	# src2, tmp458
	movq	8(%rax), %rax	# src2_89->fld[0].rtx, D.29154
	movzwl	(%rax), %eax	# _93->code, D.29153
	movzwl	%ax, %eax	# D.29153, D.29157
	cltq
	movq	rtx_format(,%rax,8), %rax	# rtx_format, D.29160
	movzbl	(%rax), %eax	# *_96, D.29161
	cmpb	$101, %al	#, D.29161
	jne	.L496	#,
	.loc 1 2987 0
	movq	-80(%rbp), %rax	# src2, tmp460
	movq	8(%rax), %rax	# src2_89->fld[0].rtx, D.29154
	movq	8(%rax), %rax	# _98->fld[0].rtx, D.29154
	cmpq	-88(%rbp), %rax	# src1, D.29154
	jne	.L496	#,
	.loc 1 2988 0
	movq	-80(%rbp), %rax	# src2, tmp461
	movq	8(%rax), %rax	# src2_89->fld[0].rtx, D.29154
	addq	$8, %rax	#, tmp462
	movq	%rax, -144(%rbp)	# tmp462, split
.L496:
	.loc 1 2990 0
	cmpq	$0, -144(%rbp)	#, split
	je	.L497	#,
	.loc 1 2992 0
	movq	-112(%rbp), %rax	# x, tmp463
	leaq	8(%rax), %rdx	#, D.29152
	movq	-80(%rbp), %rax	# src2, tmp464
	movq	%rax, %rsi	# tmp464,
	movq	%rdx, %rdi	# D.29152,
	call	do_SUBST	#
	.loc 1 2993 0
	movq	-144(%rbp), %rax	# split, D.29152
	jmp	.L492	#
.L497:
.LBE30:
	.loc 1 2973 0
	jmp	.L493	#
.L494:
	.loc 1 3002 0
	movq	-112(%rbp), %rax	# x, tmp465
	movq	8(%rax), %rax	# x_15->fld[0].rtx, D.29154
	movq	8(%rax), %rax	# _104->fld[0].rtx, D.29154
	movzwl	(%rax), %eax	# _105->code, D.29153
	movzwl	%ax, %eax	# D.29153, D.29157
	cltq
	movzbl	rtx_class(%rax), %eax	# rtx_class, D.29161
	cmpb	$111, %al	#, D.29161
	je	.L493	#,
	.loc 1 3003 0
	movq	-112(%rbp), %rax	# x, tmp467
	movq	8(%rax), %rax	# x_15->fld[0].rtx, D.29154
	movq	8(%rax), %rax	# _109->fld[0].rtx, D.29154
	movzwl	(%rax), %eax	# _110->code, D.29153
	cmpw	$63, %ax	#, D.29153
	jne	.L498	#,
	.loc 1 3004 0 discriminator 1
	movq	-112(%rbp), %rax	# x, tmp468
	movq	8(%rax), %rax	# x_15->fld[0].rtx, D.29154
	movq	8(%rax), %rax	# _112->fld[0].rtx, D.29154
	movq	8(%rax), %rax	# _113->fld[0].rtx, D.29154
	movzwl	(%rax), %eax	# _114->code, D.29153
	movzwl	%ax, %eax	# D.29153, D.29157
	cltq
	movzbl	rtx_class(%rax), %eax	# rtx_class, D.29161
	.loc 1 3003 0 discriminator 1
	cmpb	$111, %al	#, D.29161
	je	.L493	#,
.L498:
	.loc 1 3006 0
	movq	-112(%rbp), %rax	# x, tmp470
	movq	8(%rax), %rax	# x_15->fld[0].rtx, D.29154
	addq	$8, %rax	#, D.29152
	jmp	.L492	#
.L493:
.LBE29:
	.loc 1 3008 0
	jmp	.L499	#
.L486:
	.loc 1 3027 0
	movq	-112(%rbp), %rax	# x, tmp471
	leaq	16(%rax), %rdx	#, D.29152
	movq	-176(%rbp), %rax	# insn, tmp472
	movq	%rax, %rsi	# tmp472,
	movq	%rdx, %rdi	# D.29152,
	call	find_split_point	#
	movq	%rax, -144(%rbp)	# tmp473, split
	.loc 1 3028 0
	cmpq	$0, -144(%rbp)	#, split
	je	.L500	#,
	.loc 1 3028 0 is_stmt 0 discriminator 1
	movq	-112(%rbp), %rax	# x, tmp474
	addq	$16, %rax	#, D.29152
	cmpq	-144(%rbp), %rax	# split, D.29152
	je	.L500	#,
	.loc 1 3029 0 is_stmt 1
	movq	-144(%rbp), %rax	# split, D.29152
	jmp	.L492	#
.L500:
	.loc 1 3032 0
	movq	-112(%rbp), %rax	# x, tmp475
	leaq	8(%rax), %rdx	#, D.29152
	movq	-176(%rbp), %rax	# insn, tmp476
	movq	%rax, %rsi	# tmp476,
	movq	%rdx, %rdi	# D.29152,
	call	find_split_point	#
	movq	%rax, -144(%rbp)	# tmp477, split
	.loc 1 3033 0
	cmpq	$0, -144(%rbp)	#, split
	je	.L501	#,
	.loc 1 3033 0 is_stmt 0 discriminator 1
	movq	-112(%rbp), %rax	# x, tmp478
	addq	$8, %rax	#, D.29152
	cmpq	-144(%rbp), %rax	# split, D.29152
	je	.L501	#,
	.loc 1 3034 0 is_stmt 1
	movq	-144(%rbp), %rax	# split, D.29152
	jmp	.L492	#
.L501:
	.loc 1 3038 0
	movq	-112(%rbp), %rax	# x, tmp479
	movq	8(%rax), %rax	# x_15->fld[0].rtx, D.29154
	movzwl	(%rax), %eax	# _128->code, D.29153
	cmpw	$133, %ax	#, D.29153
	jne	.L502	#,
	.loc 1 3039 0
	movq	-112(%rbp), %rax	# x, tmp480
	movq	8(%rax), %rax	# x_15->fld[0].rtx, D.29154
	movq	8(%rax), %rax	# _130->fld[0].rtx, D.29154
	movzbl	2(%rax), %eax	# _131->mode, D.29155
	movzbl	%al, %eax	# D.29155, D.29157
	cltq
	movzwl	mode_bitsize(%rax,%rax), %eax	# mode_bitsize, D.29153
	cmpw	$64, %ax	#, D.29153
	ja	.L502	#,
	.loc 1 3041 0
	movq	-112(%rbp), %rax	# x, tmp482
	movq	8(%rax), %rax	# x_15->fld[0].rtx, D.29154
	movq	16(%rax), %rax	# _135->fld[1].rtx, D.29154
	movzwl	(%rax), %eax	# _136->code, D.29153
	cmpw	$54, %ax	#, D.29153
	jne	.L502	#,
	.loc 1 3042 0
	movq	-112(%rbp), %rax	# x, tmp483
	movq	8(%rax), %rax	# x_15->fld[0].rtx, D.29154
	movq	24(%rax), %rax	# _138->fld[2].rtx, D.29154
	movzwl	(%rax), %eax	# _139->code, D.29153
	cmpw	$54, %ax	#, D.29153
	jne	.L502	#,
	.loc 1 3043 0
	movq	-112(%rbp), %rax	# x, tmp484
	movq	16(%rax), %rax	# x_15->fld[1].rtx, D.29154
	movzwl	(%rax), %eax	# _141->code, D.29153
	cmpw	$54, %ax	#, D.29153
	jne	.L502	#,
	.loc 1 3044 0
	movq	-112(%rbp), %rax	# x, tmp485
	movq	8(%rax), %rax	# x_15->fld[0].rtx, D.29154
	movq	16(%rax), %rax	# _143->fld[1].rtx, D.29154
	movq	8(%rax), %rdx	# _144->fld[0].rtwint, D.29162
	.loc 1 3045 0
	movq	-112(%rbp), %rax	# x, tmp486
	movq	8(%rax), %rax	# x_15->fld[0].rtx, D.29154
	movq	24(%rax), %rax	# _146->fld[2].rtx, D.29154
	movq	8(%rax), %rax	# _147->fld[0].rtwint, D.29162
	addq	%rax, %rdx	# D.29162, D.29162
	.loc 1 3046 0
	movq	-112(%rbp), %rax	# x, tmp487
	movq	8(%rax), %rax	# x_15->fld[0].rtx, D.29154
	movq	8(%rax), %rax	# _150->fld[0].rtx, D.29154
	movzbl	2(%rax), %eax	# _151->mode, D.29155
	movzbl	%al, %eax	# D.29155, D.29157
	cltq
	movzwl	mode_bitsize(%rax,%rax), %eax	# mode_bitsize, D.29153
	movzwl	%ax, %eax	# D.29153, D.29162
	.loc 1 3044 0
	cmpq	%rax, %rdx	# D.29162, D.29162
	jg	.L502	#,
	.loc 1 3047 0
	movq	-112(%rbp), %rax	# x, tmp489
	movq	8(%rax), %rax	# x_15->fld[0].rtx, D.29154
	movq	8(%rax), %rax	# _156->fld[0].rtx, D.29154
	movq	%rax, %rdi	# D.29154,
	call	side_effects_p	#
	testl	%eax, %eax	# D.29157
	jne	.L502	#,
.LBB31:
	.loc 1 3049 0
	movq	-112(%rbp), %rax	# x, tmp490
	movq	8(%rax), %rax	# x_15->fld[0].rtx, D.29154
	movq	24(%rax), %rax	# _159->fld[2].rtx, D.29154
	movq	8(%rax), %rax	# _160->fld[0].rtwint, tmp491
	movq	%rax, -72(%rbp)	# tmp491, pos
	.loc 1 3050 0
	movq	-112(%rbp), %rax	# x, tmp492
	movq	8(%rax), %rax	# x_15->fld[0].rtx, D.29154
	movq	16(%rax), %rax	# _162->fld[1].rtx, D.29154
	movq	8(%rax), %rax	# _163->fld[0].rtwint, D.29162
	movq	%rax, -64(%rbp)	# D.29162, len
	.loc 1 3051 0
	movq	-112(%rbp), %rax	# x, tmp493
	movq	16(%rax), %rax	# x_15->fld[1].rtx, D.29154
	movq	8(%rax), %rax	# _166->fld[0].rtwint, D.29162
	movq	%rax, -56(%rbp)	# D.29162, src
	.loc 1 3052 0
	movq	-112(%rbp), %rax	# x, tmp494
	movq	8(%rax), %rax	# x_15->fld[0].rtx, D.29154
	movq	8(%rax), %rax	# _169->fld[0].rtx, tmp495
	movq	%rax, -48(%rbp)	# tmp495, dest
	.loc 1 3053 0
	movq	-48(%rbp), %rax	# dest, tmp496
	movzbl	2(%rax), %eax	# dest_170->mode, D.29155
	movzbl	%al, %eax	# D.29155, tmp497
	movl	%eax, -152(%rbp)	# tmp497, mode
	.loc 1 3054 0
	movq	-64(%rbp), %rax	# len, tmp498
	movl	$1, %edx	#, tmp499
	movl	%eax, %ecx	# D.29157, tmp658
	salq	%cl, %rdx	# tmp658, D.29162
	movq	%rdx, %rax	# D.29162, D.29162
	subq	$1, %rax	#, D.29162
	movq	%rax, -40(%rbp)	# D.29162, mask
	.loc 1 3059 0
	movq	-56(%rbp), %rax	# src, tmp500
	cmpq	-40(%rbp), %rax	# mask, tmp500
	jne	.L503	#,
	.loc 1 3060 0
	movq	-72(%rbp), %rax	# pos, tmp501
	movq	-56(%rbp), %rdx	# src, tmp502
	movl	%eax, %ecx	# D.29157, tmp660
	salq	%cl, %rdx	# tmp660, D.29163
	movq	%rdx, %rax	# D.29163, D.29163
	movq	%rax, %rsi	# D.29162,
	movl	$0, %edi	#,
	call	gen_rtx_CONST_INT	#
	movq	%rax, %rcx	#, D.29154
	movq	-48(%rbp), %rdx	# dest, tmp503
	movl	-152(%rbp), %eax	# mode, tmp504
	movl	%eax, %esi	# tmp504,
	movl	$84, %edi	#,
	call	gen_binary	#
	movq	-112(%rbp), %rdx	# x, tmp505
	addq	$16, %rdx	#, D.29152
	movq	%rax, %rsi	# D.29154,
	movq	%rdx, %rdi	# D.29152,
	call	do_SUBST	#
	jmp	.L504	#
.L503:
	.loc 1 3063 0
	movq	-72(%rbp), %rax	# pos, tmp506
	movq	-56(%rbp), %rdx	# src, tmp507
	movl	%eax, %ecx	# D.29157, tmp662
	salq	%cl, %rdx	# tmp662, D.29163
	movq	%rdx, %rax	# D.29163, D.29163
	movq	%rax, %rsi	# D.29162,
	movl	$0, %edi	#,
	call	gen_rtx_CONST_INT	#
	movq	%rax, %rbx	#, D.29154
	movq	-72(%rbp), %rax	# pos, tmp508
	movq	-40(%rbp), %rdx	# mask, tmp509
	movl	%eax, %ecx	# D.29157, tmp664
	salq	%cl, %rdx	# tmp664, D.29163
	movq	%rdx, %rax	# D.29163, D.29163
	notq	%rax	# D.29163
	movq	%rax, %rdx	# D.29163, D.29163
	movl	-152(%rbp), %eax	# mode, mode.547
	cltq
	movq	mode_mask_array(,%rax,8), %rax	# mode_mask_array, D.29163
	andq	%rdx, %rax	# D.29163, D.29163
	movl	-152(%rbp), %edx	# mode, tmp511
	movl	%edx, %esi	# tmp511,
	movq	%rax, %rdi	# D.29162,
	call	trunc_int_for_mode	#
	movq	%rax, %rsi	# D.29162,
	movl	$0, %edi	#,
	call	gen_rtx_CONST_INT	#
	movq	%rax, %rcx	#, D.29154
	movq	-48(%rbp), %rdx	# dest, tmp512
	movl	-152(%rbp), %eax	# mode, tmp513
	movl	%eax, %esi	# tmp513,
	movl	$83, %edi	#,
	call	gen_binary	#
	movq	%rax, %rdx	#, D.29154
	movl	-152(%rbp), %eax	# mode, tmp514
	movq	%rbx, %rcx	# D.29154,
	movl	%eax, %esi	# tmp514,
	movl	$84, %edi	#,
	call	gen_binary	#
	movq	-112(%rbp), %rdx	# x, tmp515
	addq	$16, %rdx	#, D.29152
	movq	%rax, %rsi	# D.29154,
	movq	%rdx, %rdi	# D.29152,
	call	do_SUBST	#
.L504:
	.loc 1 3073 0
	movq	-112(%rbp), %rax	# x, tmp516
	leaq	8(%rax), %rdx	#, D.29152
	movq	-48(%rbp), %rax	# dest, tmp517
	movq	%rax, %rsi	# tmp517,
	movq	%rdx, %rdi	# D.29152,
	call	do_SUBST	#
	.loc 1 3075 0
	movq	-112(%rbp), %rax	# x, tmp518
	leaq	16(%rax), %rdx	#, D.29152
	movq	-176(%rbp), %rax	# insn, tmp519
	movq	%rax, %rsi	# tmp519,
	movq	%rdx, %rdi	# D.29152,
	call	find_split_point	#
	movq	%rax, -144(%rbp)	# tmp520, split
	.loc 1 3076 0
	cmpq	$0, -144(%rbp)	#, split
	je	.L502	#,
	.loc 1 3076 0 is_stmt 0 discriminator 1
	movq	-112(%rbp), %rax	# x, tmp521
	addq	$16, %rax	#, D.29152
	cmpq	-144(%rbp), %rax	# split, D.29152
	je	.L502	#,
	.loc 1 3077 0 is_stmt 1
	movq	-144(%rbp), %rax	# split, D.29152
	jmp	.L492	#
.L502:
.LBE31:
	.loc 1 3082 0
	movq	-112(%rbp), %rax	# x, tmp522
	movq	16(%rax), %rax	# x_15->fld[1].rtx, D.29154
	movzwl	(%rax), %eax	# _204->code, D.29153
	movzwl	%ax, %eax	# D.29153, tmp523
	movl	%eax, -156(%rbp)	# tmp523, code
	.loc 1 3084 0
	movl	-156(%rbp), %eax	# code, tmp525
	subl	$83, %eax	#, tmp524
	cmpl	$50, %eax	#, tmp524
	ja	.L539	#,
	movl	%eax, %eax	# tmp524, tmp526
	movq	.L507(,%rax,8), %rax	#, tmp527
	jmp	*%rax	# tmp527
	.section	.rodata
	.align 8
	.align 4
.L507:
	.quad	.L506
	.quad	.L539
	.quad	.L539
	.quad	.L539
	.quad	.L539
	.quad	.L539
	.quad	.L539
	.quad	.L539
	.quad	.L539
	.quad	.L539
	.quad	.L539
	.quad	.L539
	.quad	.L539
	.quad	.L539
	.quad	.L539
	.quad	.L539
	.quad	.L539
	.quad	.L539
	.quad	.L539
	.quad	.L537
	.quad	.L539
	.quad	.L539
	.quad	.L539
	.quad	.L539
	.quad	.L539
	.quad	.L539
	.quad	.L539
	.quad	.L539
	.quad	.L539
	.quad	.L539
	.quad	.L539
	.quad	.L539
	.quad	.L539
	.quad	.L539
	.quad	.L539
	.quad	.L539
	.quad	.L539
	.quad	.L509
	.quad	.L539
	.quad	.L539
	.quad	.L539
	.quad	.L539
	.quad	.L539
	.quad	.L539
	.quad	.L539
	.quad	.L539
	.quad	.L539
	.quad	.L539
	.quad	.L539
	.quad	.L510
	.quad	.L510
	.text
.L506:
	.loc 1 3096 0
	movq	-112(%rbp), %rax	# x, tmp528
	movq	16(%rax), %rax	# x_15->fld[1].rtx, D.29154
	movq	16(%rax), %rax	# _207->fld[1].rtx, D.29154
	movzwl	(%rax), %eax	# _208->code, D.29153
	cmpw	$54, %ax	#, D.29153
	jne	.L511	#,
	.loc 1 3097 0
	movq	-112(%rbp), %rax	# x, tmp529
	movq	16(%rax), %rax	# x_15->fld[1].rtx, D.29154
	movq	8(%rax), %rax	# _210->fld[0].rtx, D.29154
	movzwl	(%rax), %eax	# _211->code, D.29153
	cmpw	$61, %ax	#, D.29153
	jne	.L511	#,
	.loc 1 3098 0
	movq	-112(%rbp), %rax	# x, tmp530
	movq	16(%rax), %rax	# x_15->fld[1].rtx, D.29154
	movq	16(%rax), %rax	# _213->fld[1].rtx, D.29154
	movq	8(%rax), %rax	# _214->fld[0].rtwint, D.29162
	movq	%rax, %rdi	# D.29163,
	call	exact_log2_wide	#
	cltq
	movq	%rax, -128(%rbp)	# tmp531, pos
	cmpq	$6, -128(%rbp)	#, pos
	jle	.L511	#,
	.loc 1 3099 0
	movq	-112(%rbp), %rax	# x, tmp532
	movq	8(%rax), %rax	# x_15->fld[0].rtx, D.29154
	movzwl	(%rax), %eax	# _219->code, D.29153
	cmpw	$61, %ax	#, D.29153
	jne	.L511	#,
	.loc 1 3100 0
	movq	-112(%rbp), %rax	# x, tmp533
	movq	8(%rax), %rax	# x_15->fld[0].rtx, D.29154
	movq	-176(%rbp), %rcx	# insn, tmp534
	movl	$0, %edx	#,
