	.file	"cpphash.c"
# GNU C (Ubuntu/Linaro 4.8.1-10ubuntu9) version 4.8.1 (x86_64-linux-gnu)
#	compiled by GNU C version 4.8.1, GMP version 5.1.2, MPFR version 3.1.1-p2, MPC version 1.0.1
# GGC heuristics: --param ggc-min-expand=100 --param ggc-min-heapsize=131072
# options passed:  -I . -imultiarch x86_64-linux-gnu -D SPEC_CPU -D NDEBUG
# -D SPEC_CPU_LP64 cpphash.c -mtune=generic -march=x86-64 -g -fverbose-asm
# -fno-strict-aliasing -fstack-protector -Wformat -Wformat-security
# options enabled:  -faggressive-loop-optimizations
# -fasynchronous-unwind-tables -fauto-inc-dec -fbranch-count-reg -fcommon
# -fdelete-null-pointer-checks -fdwarf2-cfi-asm -fearly-inlining
# -feliminate-unused-debug-types -ffunction-cse -fgcse-lm -fgnu-runtime
# -fident -finline-atomics -fira-hoist-pressure -fira-share-save-slots
# -fira-share-spill-slots -fivopts -fkeep-static-consts
# -fleading-underscore -fmath-errno -fmerge-debug-strings
# -fmove-loop-invariants -fpeephole -fprefetch-loop-arrays
# -freg-struct-return -fsched-critical-path-heuristic
# -fsched-dep-count-heuristic -fsched-group-heuristic -fsched-interblock
# -fsched-last-insn-heuristic -fsched-rank-heuristic -fsched-spec
# -fsched-spec-insn-heuristic -fsched-stalled-insns-dep -fshow-column
# -fsigned-zeros -fsplit-ivs-in-unroller -fstack-protector
# -fstrict-volatile-bitfields -fsync-libcalls -ftrapping-math
# -ftree-coalesce-vars -ftree-cselim -ftree-forwprop -ftree-loop-if-convert
# -ftree-loop-im -ftree-loop-ivcanon -ftree-loop-optimize
# -ftree-parallelize-loops= -ftree-phiprop -ftree-pta -ftree-reassoc
# -ftree-scev-cprop -ftree-slp-vectorize -ftree-vect-loop-version
# -funit-at-a-time -funwind-tables -fverbose-asm -fzero-initialized-in-bss
# -m128bit-long-double -m64 -m80387 -maccumulate-outgoing-args
# -malign-stringops -mfancy-math-387 -mfp-ret-in-387 -mfxsr -mglibc
# -mieee-fp -mlong-double-80 -mmmx -mno-sse4 -mpush-args -mred-zone -msse
# -msse2 -mtls-direct-seg-refs

	.text
.Ltext0:
	.type	alloc_node, @function
alloc_node:
.LFB8:
	.file 1 "cpphash.c"
	.loc 1 38 0
	.cfi_startproc
	pushq	%rbp	#
	.cfi_def_cfa_offset 16
	.cfi_offset 6, -16
	movq	%rsp, %rbp	#,
	.cfi_def_cfa_register 6
	subq	$64, %rsp	#,
	movq	%rdi, -56(%rbp)	# table, table
.LBB2:
	.loc 1 41 0
	movq	-56(%rbp), %rax	# table, tmp96
	movq	112(%rax), %rax	# table_1(D)->pfile, D.7634
	addq	$400, %rax	#, tmp97
	movq	%rax, -40(%rbp)	# tmp97, __h
.LBB3:
	movq	-40(%rbp), %rax	# __h, tmp98
	movq	%rax, -32(%rbp)	# tmp98, __o
	movl	$32, -44(%rbp)	#, __len
	movq	-32(%rbp), %rax	# __o, tmp99
	movq	32(%rax), %rax	# __o_4->chunk_limit, D.7635
	movq	%rax, %rdx	# D.7635, D.7636
	movq	-32(%rbp), %rax	# __o, tmp100
	movq	24(%rax), %rax	# __o_4->next_free, D.7635
	subq	%rax, %rdx	# D.7636, D.7636
	movl	-44(%rbp), %eax	# __len, tmp101
	cltq
	cmpq	%rax, %rdx	# D.7636, D.7636
	jge	.L2	#,
	.loc 1 41 0 is_stmt 0 discriminator 1
	movl	-44(%rbp), %edx	# __len, tmp102
	movq	-32(%rbp), %rax	# __o, tmp103
	movl	%edx, %esi	# tmp102,
	movq	%rax, %rdi	# tmp103,
	call	_obstack_newchunk	#
.L2:
	.loc 1 41 0 discriminator 2
	movq	-32(%rbp), %rax	# __o, tmp104
	movq	24(%rax), %rdx	# __o_4->next_free, D.7635
	movl	-44(%rbp), %eax	# __len, tmp105
	cltq
	addq	%rax, %rdx	# D.7637, D.7635
	movq	-32(%rbp), %rax	# __o, tmp106
	movq	%rdx, 24(%rax)	# D.7635, __o_4->next_free
.LBE3:
.LBB4:
	movq	-40(%rbp), %rax	# __h, tmp107
	movq	%rax, -24(%rbp)	# tmp107, __o1
	movq	-24(%rbp), %rax	# __o1, tmp108
	movq	16(%rax), %rax	# __o1_15->object_base, tmp109
	movq	%rax, -16(%rbp)	# tmp109, value
	movq	-24(%rbp), %rax	# __o1, tmp110
	movq	24(%rax), %rax	# __o1_15->next_free, D.7635
	cmpq	-16(%rbp), %rax	# value, D.7635
	jne	.L3	#,
	.loc 1 41 0 discriminator 1
	movq	-24(%rbp), %rax	# __o1, tmp111
	movzbl	80(%rax), %edx	# __o1_15->maybe_empty_object, tmp114
	orl	$2, %edx	#, tmp115
	movb	%dl, 80(%rax)	# tmp115, __o1_15->maybe_empty_object
.L3:
	.loc 1 41 0 discriminator 2
	movq	-24(%rbp), %rax	# __o1, tmp116
	movq	24(%rax), %rax	# __o1_15->next_free, D.7635
	movq	%rax, %rdx	# D.7635, D.7636
	movq	-24(%rbp), %rax	# __o1, tmp117
	movl	48(%rax), %eax	# __o1_15->alignment_mask, D.7638
	cltq
	addq	%rax, %rdx	# D.7636, D.7636
	movq	-24(%rbp), %rax	# __o1, tmp118
	movl	48(%rax), %eax	# __o1_15->alignment_mask, D.7638
	notl	%eax	# D.7638
	cltq
	andq	%rdx, %rax	# D.7636, D.7636
	movq	%rax, %rdx	# D.7636, D.7635
	movq	-24(%rbp), %rax	# __o1, tmp119
	movq	%rdx, 24(%rax)	# D.7635, __o1_15->next_free
	movq	-24(%rbp), %rax	# __o1, tmp120
	movq	24(%rax), %rax	# __o1_15->next_free, D.7635
	movq	%rax, %rdx	# D.7635, D.7636
	movq	-24(%rbp), %rax	# __o1, tmp121
	movq	8(%rax), %rax	# __o1_15->chunk, D.7639
	movq	%rdx, %rcx	# D.7636, D.7636
	subq	%rax, %rcx	# D.7636, D.7636
	movq	-24(%rbp), %rax	# __o1, tmp122
	movq	32(%rax), %rax	# __o1_15->chunk_limit, D.7635
	movq	%rax, %rdx	# D.7635, D.7636
	movq	-24(%rbp), %rax	# __o1, tmp123
	movq	8(%rax), %rax	# __o1_15->chunk, D.7639
	subq	%rax, %rdx	# D.7636, D.7636
	movq	%rdx, %rax	# D.7636, D.7636
	cmpq	%rax, %rcx	# D.7636, D.7636
	jle	.L4	#,
	.loc 1 41 0 discriminator 1
	movq	-24(%rbp), %rax	# __o1, tmp124
	movq	32(%rax), %rdx	# __o1_15->chunk_limit, D.7635
	movq	-24(%rbp), %rax	# __o1, tmp125
	movq	%rdx, 24(%rax)	# D.7635, __o1_15->next_free
.L4:
	.loc 1 41 0 discriminator 2
	movq	-24(%rbp), %rax	# __o1, tmp126
	movq	24(%rax), %rdx	# __o1_15->next_free, D.7635
	movq	-24(%rbp), %rax	# __o1, tmp127
	movq	%rdx, 16(%rax)	# D.7635, __o1_15->object_base
	movq	-16(%rbp), %rax	# value, D.7640
.LBE4:
.LBE2:
	movq	%rax, -8(%rbp)	# node.0, node
	.loc 1 43 0 is_stmt 1 discriminator 2
	movq	-8(%rbp), %rax	# node, tmp128
	movl	$32, %edx	#,
	movl	$0, %esi	#,
	movq	%rax, %rdi	# tmp128,
	call	memset	#
	.loc 1 44 0 discriminator 2
	movq	-8(%rbp), %rax	# node, D.7641
	.loc 1 45 0 discriminator 2
	leave
	.cfi_def_cfa 7, 8
	ret
	.cfi_endproc
.LFE8:
	.size	alloc_node, .-alloc_node
	.section	.rodata
.LC0:
	.string	"defined"
.LC1:
	.string	"true"
.LC2:
	.string	"false"
.LC3:
	.string	"__STRICT_ANSI__"
.LC4:
	.string	"__VA_ARGS__"
	.text
	.globl	_cpp_init_hashtable
	.type	_cpp_init_hashtable, @function
_cpp_init_hashtable:
.LFB9:
	.loc 1 53 0
	.cfi_startproc
	pushq	%rbp	#
	.cfi_def_cfa_offset 16
	.cfi_offset 6, -16
	movq	%rsp, %rbp	#,
	.cfi_def_cfa_register 6
	subq	$32, %rsp	#,
	movq	%rdi, -24(%rbp)	# pfile, pfile
	movq	%rsi, -32(%rbp)	# table, table
	.loc 1 56 0
	cmpq	$0, -32(%rbp)	#, table
	jne	.L7	#,
	.loc 1 58 0
	movq	-24(%rbp), %rax	# pfile, tmp69
	movb	$1, 825(%rax)	#, pfile_3(D)->our_hashtable
	.loc 1 59 0
	movl	$13, %edi	#,
	call	ht_create	#
	movq	%rax, -32(%rbp)	# tmp70, table
	.loc 1 60 0
	movq	-32(%rbp), %rax	# table, tmp71
	movq	$alloc_node, 96(%rax)	#, table_4->alloc_node
	.loc 1 61 0
	movq	-24(%rbp), %rax	# pfile, tmp72
	addq	$400, %rax	#, D.7642
	movq	%rax, %rdi	# D.7642,
	call	gcc_obstack_init	#
.L7:
	.loc 1 64 0
	movq	-32(%rbp), %rax	# table, tmp73
	movq	-24(%rbp), %rdx	# pfile, tmp74
	movq	%rdx, 112(%rax)	# tmp74, table_1->pfile
	.loc 1 65 0
	movq	-24(%rbp), %rax	# pfile, tmp75
	movq	-32(%rbp), %rdx	# table, tmp76
	movq	%rdx, 640(%rax)	# tmp76, pfile_3(D)->hash_table
	.loc 1 68 0
	movq	-24(%rbp), %rax	# pfile, tmp77
	movq	%rax, %rdi	# tmp77,
	call	_cpp_init_directives	#
	.loc 1 69 0
	movq	-24(%rbp), %rax	# pfile, tmp78
	movq	%rax, %rdi	# tmp78,
	call	_cpp_init_internal_pragmas	#
	.loc 1 71 0
	movq	-24(%rbp), %rax	# pfile, tmp82
	addq	$784, %rax	#, tmp81
	movq	%rax, -8(%rbp)	# tmp81, s
	.loc 1 72 0
	movq	-24(%rbp), %rax	# pfile, tmp83
	movl	$7, %edx	#,
	movl	$.LC0, %esi	#,
	movq	%rax, %rdi	# tmp83,
	call	cpp_lookup	#
	movq	-8(%rbp), %rdx	# s, tmp84
	movq	%rax, (%rdx)	# D.7643, s_6->n_defined
	.loc 1 73 0
	movq	-24(%rbp), %rax	# pfile, tmp85
	movl	$4, %edx	#,
	movl	$.LC1, %esi	#,
	movq	%rax, %rdi	# tmp85,
	call	cpp_lookup	#
	movq	-8(%rbp), %rdx	# s, tmp86
	movq	%rax, 8(%rdx)	# D.7643, s_6->n_true
	.loc 1 74 0
	movq	-24(%rbp), %rax	# pfile, tmp87
	movl	$5, %edx	#,
	movl	$.LC2, %esi	#,
	movq	%rax, %rdi	# tmp87,
	call	cpp_lookup	#
	movq	-8(%rbp), %rdx	# s, tmp88
	movq	%rax, 16(%rdx)	# D.7643, s_6->n_false
	.loc 1 75 0
	movq	-24(%rbp), %rax	# pfile, tmp89
	movl	$15, %edx	#,
	movl	$.LC3, %esi	#,
	movq	%rax, %rdi	# tmp89,
	call	cpp_lookup	#
	movq	-8(%rbp), %rdx	# s, tmp90
	movq	%rax, 24(%rdx)	# D.7643, s_6->n__STRICT_ANSI__
	.loc 1 76 0
	movq	-24(%rbp), %rax	# pfile, tmp91
	movl	$11, %edx	#,
	movl	$.LC4, %esi	#,
	movq	%rax, %rdi	# tmp91,
	call	cpp_lookup	#
	movq	-8(%rbp), %rdx	# s, tmp92
	movq	%rax, 32(%rdx)	# D.7643, s_6->n__VA_ARGS__
	.loc 1 77 0
	movq	-8(%rbp), %rax	# s, tmp93
	movq	32(%rax), %rax	# s_6->n__VA_ARGS__, D.7643
	movq	-8(%rbp), %rdx	# s, tmp94
	movq	32(%rdx), %rdx	# s_6->n__VA_ARGS__, D.7643
	movzbl	21(%rdx), %edx	# _13->flags, D.7644
	orl	$8, %edx	#, D.7644
	movb	%dl, 21(%rax)	# D.7644, _12->flags
	.loc 1 78 0
	leave
	.cfi_def_cfa 7, 8
	ret
	.cfi_endproc
.LFE9:
	.size	_cpp_init_hashtable, .-_cpp_init_hashtable
	.globl	_cpp_destroy_hashtable
	.type	_cpp_destroy_hashtable, @function
_cpp_destroy_hashtable:
.LFB10:
	.loc 1 84 0
	.cfi_startproc
	pushq	%rbp	#
	.cfi_def_cfa_offset 16
	.cfi_offset 6, -16
	movq	%rsp, %rbp	#,
	.cfi_def_cfa_register 6
	subq	$32, %rsp	#,
	movq	%rdi, -24(%rbp)	# pfile, pfile
	.loc 1 85 0
	movq	-24(%rbp), %rax	# pfile, tmp64
	movzbl	825(%rax), %eax	# pfile_1(D)->our_hashtable, D.7650
	testb	%al, %al	# D.7650
	je	.L8	#,
	.loc 1 87 0
	movq	-24(%rbp), %rax	# pfile, tmp65
	movq	640(%rax), %rax	# pfile_1(D)->hash_table, D.7651
	movq	%rax, %rdi	# D.7651,
	call	ht_destroy	#
.LBB5:
	.loc 1 88 0
	movq	-24(%rbp), %rax	# pfile, tmp69
	addq	$400, %rax	#, tmp68
	movq	%rax, -16(%rbp)	# tmp68, __o
	movq	$0, -8(%rbp)	#, __obj
	movq	-16(%rbp), %rax	# __o, tmp70
	movq	8(%rax), %rax	# __o_4->chunk, D.7652
	cmpq	-8(%rbp), %rax	# __obj, D.7652
	jae	.L10	#,
	.loc 1 88 0 is_stmt 0 discriminator 1
	movq	-16(%rbp), %rax	# __o, tmp71
	movq	32(%rax), %rax	# __o_4->chunk_limit, D.7653
	cmpq	-8(%rbp), %rax	# __obj, D.7653
	jbe	.L10	#,
	movq	-16(%rbp), %rax	# __o, tmp72
	movq	-8(%rbp), %rdx	# __obj, tmp73
	movq	%rdx, 16(%rax)	# tmp73, __o_4->object_base
	movq	-16(%rbp), %rax	# __o, tmp74
	movq	16(%rax), %rdx	# __o_4->object_base, D.7653
	movq	-16(%rbp), %rax	# __o, tmp75
	movq	%rdx, 24(%rax)	# D.7653, __o_4->next_free
	jmp	.L8	#
.L10:
	.loc 1 88 0 discriminator 2
	movq	-8(%rbp), %rdx	# __obj, tmp76
	movq	-16(%rbp), %rax	# __o, tmp77
	movq	%rdx, %rsi	# tmp76,
	movq	%rax, %rdi	# tmp77,
	call	obstack_free	#
.L8:
.LBE5:
	.loc 1 90 0 is_stmt 1
	leave
	.cfi_def_cfa 7, 8
	ret
	.cfi_endproc
.LFE10:
	.size	_cpp_destroy_hashtable, .-_cpp_destroy_hashtable
	.globl	cpp_lookup
	.type	cpp_lookup, @function
cpp_lookup:
.LFB11:
	.loc 1 99 0
	.cfi_startproc
	pushq	%rbp	#
	.cfi_def_cfa_offset 16
	.cfi_offset 6, -16
	movq	%rsp, %rbp	#,
	.cfi_def_cfa_register 6
	subq	$32, %rsp	#,
	movq	%rdi, -8(%rbp)	# pfile, pfile
	movq	%rsi, -16(%rbp)	# str, str
	movl	%edx, -20(%rbp)	# len, len
	.loc 1 101 0
	movq	-8(%rbp), %rax	# pfile, tmp62
	movq	640(%rax), %rax	# pfile_1(D)->hash_table, D.7654
	movl	-20(%rbp), %edx	# len, tmp63
	movq	-16(%rbp), %rsi	# str, tmp64
	movl	$1, %ecx	#,
	movq	%rax, %rdi	# D.7654,
	call	ht_lookup	#
	.loc 1 102 0
	leave
	.cfi_def_cfa 7, 8
	ret
	.cfi_endproc
.LFE11:
	.size	cpp_lookup, .-cpp_lookup
	.globl	cpp_defined
	.type	cpp_defined, @function
cpp_defined:
.LFB12:
	.loc 1 110 0
	.cfi_startproc
	pushq	%rbp	#
	.cfi_def_cfa_offset 16
	.cfi_offset 6, -16
	movq	%rsp, %rbp	#,
	.cfi_def_cfa_register 6
	subq	$48, %rsp	#,
	movq	%rdi, -24(%rbp)	# pfile, pfile
	movq	%rsi, -32(%rbp)	# str, str
	movl	%edx, -36(%rbp)	# len, len
	.loc 1 113 0
	movl	-36(%rbp), %edx	# len, len.1
	movq	-24(%rbp), %rax	# pfile, tmp65
	movq	640(%rax), %rax	# pfile_4(D)->hash_table, D.7656
	movq	-32(%rbp), %rsi	# str, tmp66
	movl	$0, %ecx	#,
	movq	%rax, %rdi	# D.7656,
	call	ht_lookup	#
	movq	%rax, -8(%rbp)	# tmp67, node
	.loc 1 116 0
	cmpq	$0, -8(%rbp)	#, node
	je	.L14	#,
	.loc 1 116 0 is_stmt 0 discriminator 1
	movq	-8(%rbp), %rax	# node, tmp68
	movzbl	20(%rax), %eax	# node_7->type, D.7657
	cmpb	$1, %al	#, D.7657
	jne	.L14	#,
	.loc 1 116 0 discriminator 3
	movl	$1, %eax	#, iftmp.2
	jmp	.L15	#
.L14:
	.loc 1 116 0 discriminator 2
	movl	$0, %eax	#, iftmp.2
.L15:
	.loc 1 117 0 is_stmt 1 discriminator 4
	leave
	.cfi_def_cfa 7, 8
	ret
	.cfi_endproc
.LFE12:
	.size	cpp_defined, .-cpp_defined
	.globl	cpp_forall_identifiers
	.type	cpp_forall_identifiers, @function
cpp_forall_identifiers:
.LFB13:
	.loc 1 126 0
	.cfi_startproc
	pushq	%rbp	#
	.cfi_def_cfa_offset 16
	.cfi_offset 6, -16
	movq	%rsp, %rbp	#,
	.cfi_def_cfa_register 6
	subq	$32, %rsp	#,
	movq	%rdi, -8(%rbp)	# pfile, pfile
	movq	%rsi, -16(%rbp)	# cb, cb
	movq	%rdx, -24(%rbp)	# v, v
	.loc 1 129 0
	movq	-8(%rbp), %rax	# pfile, tmp60
	movq	640(%rax), %rax	# pfile_1(D)->hash_table, D.7659
	movq	-24(%rbp), %rdx	# v, tmp61
	movq	-16(%rbp), %rcx	# cb, tmp62
	movq	%rcx, %rsi	# tmp62,
	movq	%rax, %rdi	# D.7659,
	call	ht_forall	#
	.loc 1 130 0
	leave
	.cfi_def_cfa 7, 8
	ret
	.cfi_endproc
.LFE13:
	.size	cpp_forall_identifiers, .-cpp_forall_identifiers
.Letext0:
	.file 2 "/usr/include/x86_64-linux-gnu/bits/types.h"
	.file 3 "/usr/include/x86_64-linux-gnu/sys/types.h"
	.file 4 "obstack.h"
	.file 5 "hashtable.h"
	.file 6 "cpphash.h"
	.file 7 "line-map.h"
	.file 8 "cpplib.h"
	.section	.note.GNU-stack,"",@progbits
