	.file	"cppinit.c"
# GNU C (Ubuntu/Linaro 4.8.1-10ubuntu9) version 4.8.1 (x86_64-linux-gnu)
#	compiled by GNU C version 4.8.1, GMP version 5.1.2, MPFR version 3.1.1-p2, MPC version 1.0.1
# GGC heuristics: --param ggc-min-expand=100 --param ggc-min-heapsize=131072
# options passed:  -I . -imultiarch x86_64-linux-gnu -D SPEC_CPU -D NDEBUG
# -D SPEC_CPU_LP64 cppinit.c -mtune=generic -march=x86-64 -g -fverbose-asm
# -fno-strict-aliasing -fstack-protector -Wformat -Wformat-security
# options enabled:  -faggressive-loop-optimizations
# -fasynchronous-unwind-tables -fauto-inc-dec -fbranch-count-reg -fcommon
# -fdelete-null-pointer-checks -fdwarf2-cfi-asm -fearly-inlining
# -feliminate-unused-debug-types -ffunction-cse -fgcse-lm -fgnu-runtime
# -fident -finline-atomics -fira-hoist-pressure -fira-share-save-slots
# -fira-share-spill-slots -fivopts -fkeep-static-consts
# -fleading-underscore -fmath-errno -fmerge-debug-strings
# -fmove-loop-invariants -fpeephole -fprefetch-loop-arrays
# -freg-struct-return -fsched-critical-path-heuristic
# -fsched-dep-count-heuristic -fsched-group-heuristic -fsched-interblock
# -fsched-last-insn-heuristic -fsched-rank-heuristic -fsched-spec
# -fsched-spec-insn-heuristic -fsched-stalled-insns-dep -fshow-column
# -fsigned-zeros -fsplit-ivs-in-unroller -fstack-protector
# -fstrict-volatile-bitfields -fsync-libcalls -ftrapping-math
# -ftree-coalesce-vars -ftree-cselim -ftree-forwprop -ftree-loop-if-convert
# -ftree-loop-im -ftree-loop-ivcanon -ftree-loop-optimize
# -ftree-parallelize-loops= -ftree-phiprop -ftree-pta -ftree-reassoc
# -ftree-scev-cprop -ftree-slp-vectorize -ftree-vect-loop-version
# -funit-at-a-time -funwind-tables -fverbose-asm -fzero-initialized-in-bss
# -m128bit-long-double -m64 -m80387 -maccumulate-outgoing-args
# -malign-stringops -mfancy-math-387 -mfp-ret-in-387 -mfxsr -mglibc
# -mieee-fp -mlong-double-80 -mmmx -mno-sse4 -mpush-args -mred-zone -msse
# -msse2 -mtls-direct-seg-refs

	.text
.Ltext0:
	.globl	_cpp_trigraph_map
	.section	.rodata
	.align 32
	.type	_cpp_trigraph_map, @object
	.size	_cpp_trigraph_map, 256
_cpp_trigraph_map:
	.zero	33
	.byte	124
	.zero	5
	.byte	94
	.byte	91
	.byte	93
	.zero	3
	.byte	126
	.zero	1
	.byte	92
	.zero	12
	.byte	123
	.byte	35
	.byte	125
	.zero	193
	.text
	.type	path_include, @function
path_include:
.LFB8:
	.file 1 "cppinit.c"
	.loc 1 167 0
	.cfi_startproc
	pushq	%rbp	#
	.cfi_def_cfa_offset 16
	.cfi_offset 6, -16
	movq	%rsp, %rbp	#,
	.cfi_def_cfa_register 6
	subq	$64, %rsp	#,
	movq	%rdi, -40(%rbp)	# pfile, pfile
	movq	%rsi, -48(%rbp)	# list, list
	movl	%edx, -52(%rbp)	# path, path
	.loc 1 170 0
	movq	-48(%rbp), %rax	# list, tmp77
	movq	%rax, -24(%rbp)	# tmp77, p
.L9:
	.loc 1 175 0
	movq	-24(%rbp), %rax	# p, tmp78
	movq	%rax, -16(%rbp)	# tmp78, q
	.loc 1 176 0
	jmp	.L2	#
.L4:
	.loc 1 176 0 is_stmt 0 discriminator 1
	addq	$1, -16(%rbp)	#, q
.L2:
	movq	-16(%rbp), %rax	# q, tmp79
	movzbl	(%rax), %eax	# *q_2, D.9101
	testb	%al, %al	# D.9101
	je	.L3	#,
	.loc 1 176 0 discriminator 2
	movq	-16(%rbp), %rax	# q, tmp80
	movzbl	(%rax), %eax	# *q_2, D.9101
	cmpb	$58, %al	#, D.9101
	jne	.L4	#,
.L3:
	.loc 1 177 0 is_stmt 1
	movq	-16(%rbp), %rax	# q, tmp81
	cmpq	-24(%rbp), %rax	# p, tmp81
	jne	.L5	#,
	.loc 1 180 0
	movl	$2, %edi	#,
	call	xmalloc	#
	movq	%rax, -8(%rbp)	# tmp82, name
	.loc 1 181 0
	movq	-8(%rbp), %rax	# name, tmp83
	movb	$46, (%rax)	#, *name_10
	.loc 1 182 0
	movq	-8(%rbp), %rax	# name, tmp84
	addq	$1, %rax	#, D.9102
	movb	$0, (%rax)	#, *_11
	jmp	.L6	#
.L5:
	.loc 1 187 0
	movq	-16(%rbp), %rdx	# q, q.0
	movq	-24(%rbp), %rax	# p, p.1
	subq	%rax, %rdx	# p.1, D.9103
	movq	%rdx, %rax	# D.9103, D.9103
	addq	$1, %rax	#, D.9103
	movq	%rax, %rdi	# D.9104,
	call	xmalloc	#
	movq	%rax, -8(%rbp)	# tmp85, name
	.loc 1 188 0
	movq	-16(%rbp), %rdx	# q, q.2
	movq	-24(%rbp), %rax	# p, p.3
	subq	%rax, %rdx	# p.3, D.9103
	movq	%rdx, %rax	# D.9103, D.9103
	movq	%rax, %rdx	# D.9103, D.9104
	movq	-24(%rbp), %rcx	# p, tmp86
	movq	-8(%rbp), %rax	# name, tmp87
	movq	%rcx, %rsi	# tmp86,
	movq	%rax, %rdi	# tmp87,
	call	memcpy	#
	.loc 1 189 0
	movq	-16(%rbp), %rdx	# q, q.4
	movq	-24(%rbp), %rax	# p, p.5
	subq	%rax, %rdx	# p.5, D.9103
	movq	%rdx, %rax	# D.9103, D.9103
	movq	%rax, %rdx	# D.9103, D.9105
	movq	-8(%rbp), %rax	# name, tmp88
	addq	%rdx, %rax	# D.9105, D.9102
	movb	$0, (%rax)	#, *_26
.L6:
	.loc 1 192 0
	movl	-52(%rbp), %edx	# path, tmp89
	movq	-8(%rbp), %rsi	# name, tmp90
	movq	-40(%rbp), %rax	# pfile, tmp91
	movl	$0, %ecx	#,
	movq	%rax, %rdi	# tmp91,
	call	append_include_chain	#
	.loc 1 195 0
	movq	-16(%rbp), %rax	# q, tmp92
	movzbl	(%rax), %eax	# *q_2, D.9101
	testb	%al, %al	# D.9101
	jne	.L7	#,
	.loc 1 196 0
	jmp	.L10	#
.L7:
	.loc 1 197 0
	movq	-16(%rbp), %rax	# q, tmp96
	addq	$1, %rax	#, tmp95
	movq	%rax, -24(%rbp)	# tmp95, p
	.loc 1 199 0
	jmp	.L9	#
.L10:
	.loc 1 200 0
	leave
	.cfi_def_cfa 7, 8
	ret
	.cfi_endproc
.LFE8:
	.size	path_include, .-path_include
	.section	.rodata
.LC0:
	.string	"."
	.align 8
.LC1:
	.string	"ignoring nonexistent directory \"%s\"\n"
.LC2:
	.string	"%s: Not a directory"
	.text
	.type	append_include_chain, @function
append_include_chain:
.LFB9:
	.loc 1 212 0
	.cfi_startproc
	pushq	%rbp	#
	.cfi_def_cfa_offset 16
	.cfi_offset 6, -16
	movq	%rsp, %rbp	#,
	.cfi_def_cfa_register 6
	subq	$208, %rsp	#,
	movq	%rdi, -184(%rbp)	# pfile, pfile
	movq	%rsi, -192(%rbp)	# dir, dir
	movl	%edx, -196(%rbp)	# path, path
	movl	%ecx, -200(%rbp)	# cxx_aware, cxx_aware
	.loc 1 213 0
	movq	-184(%rbp), %rax	# pfile, tmp78
	movq	672(%rax), %rax	# pfile_3(D)->opts.pending, tmp79
	movq	%rax, -160(%rbp)	# tmp79, pend
	.loc 1 218 0
	movq	-192(%rbp), %rax	# dir, tmp80
	movzbl	(%rax), %eax	# *dir_5(D), D.9106
	testb	%al, %al	# D.9106
	jne	.L12	#,
	.loc 1 220 0
	movq	-192(%rbp), %rax	# dir, tmp81
	movq	%rax, %rdi	# tmp81,
	call	free	#
	.loc 1 221 0
	movl	$.LC0, %edi	#,
	call	xstrdup	#
	movq	%rax, -192(%rbp)	# tmp82, dir
.L12:
	.loc 1 223 0
	movq	-192(%rbp), %rax	# dir, tmp83
	movq	%rax, %rdi	# tmp83,
	call	_cpp_simplify_pathname	#
	.loc 1 225 0
	leaq	-144(%rbp), %rdx	#, tmp84
	movq	-192(%rbp), %rax	# dir, tmp85
	movq	%rdx, %rsi	# tmp84,
	movq	%rax, %rdi	# tmp85,
	call	stat	#
	testl	%eax, %eax	# D.9107
	je	.L13	#,
	.loc 1 228 0
	call	__errno_location	#
	movl	(%rax), %eax	# *_9, D.9107
	cmpl	$2, %eax	#, D.9107
	je	.L14	#,
	.loc 1 229 0
	movq	-192(%rbp), %rdx	# dir, tmp86
	movq	-184(%rbp), %rax	# pfile, tmp87
	movq	%rdx, %rsi	# tmp86,
	movq	%rax, %rdi	# tmp87,
	call	cpp_notice_from_errno	#
	jmp	.L15	#
.L14:
	.loc 1 230 0
	movq	-184(%rbp), %rax	# pfile, tmp88
	movzbl	740(%rax), %eax	# pfile_3(D)->opts.verbose, D.9109
	testb	%al, %al	# D.9109
	je	.L15	#,
	.loc 1 231 0
	movq	stderr(%rip), %rax	# stderr, stderr.6
	movq	-192(%rbp), %rdx	# dir, tmp89
	movl	$.LC1, %esi	#,
	movq	%rax, %rdi	# stderr.6,
	movl	$0, %eax	#,
	call	fprintf	#
.L15:
	.loc 1 232 0
	movq	-192(%rbp), %rax	# dir, tmp90
	movq	%rax, %rdi	# tmp90,
	call	free	#
	.loc 1 233 0
	jmp	.L11	#
.L13:
	.loc 1 236 0
	movl	-120(%rbp), %eax	# st.st_mode, D.9110
	andl	$61440, %eax	#, D.9110
	cmpl	$16384, %eax	#, D.9110
	je	.L17	#,
	.loc 1 238 0
	movq	-192(%rbp), %rdx	# dir, tmp91
	movq	-184(%rbp), %rax	# pfile, tmp92
	movl	$.LC2, %esi	#,
	movq	%rax, %rdi	# tmp92,
	movl	$0, %eax	#,
	call	cpp_notice	#
	.loc 1 239 0
	movq	-192(%rbp), %rax	# dir, tmp93
	movq	%rax, %rdi	# tmp93,
	call	free	#
	.loc 1 240 0
	jmp	.L11	#
.L17:
	.loc 1 243 0
	movq	-192(%rbp), %rax	# dir, tmp94
	movq	%rax, %rdi	# tmp94,
	call	strlen	#
	movl	%eax, -164(%rbp)	# D.9111, len
	.loc 1 244 0
	movq	-184(%rbp), %rax	# pfile, tmp95
	movl	288(%rax), %eax	# pfile_3(D)->max_include_len, D.9110
	cmpl	-164(%rbp), %eax	# len, D.9110
	jae	.L18	#,
	.loc 1 245 0
	movq	-184(%rbp), %rax	# pfile, tmp96
	movl	-164(%rbp), %edx	# len, tmp97
	movl	%edx, 288(%rax)	# tmp97, pfile_3(D)->max_include_len
.L18:
	.loc 1 247 0
	movl	$56, %edi	#,
	call	xmalloc	#
	movq	%rax, -152(%rbp)	# tmp98, new
	.loc 1 248 0
	movq	-152(%rbp), %rax	# new, tmp99
	movq	-192(%rbp), %rdx	# dir, tmp100
	movq	%rdx, 8(%rax)	# tmp100, new_18->name
	.loc 1 249 0
	movq	-152(%rbp), %rax	# new, tmp101
	movl	-164(%rbp), %edx	# len, tmp102
	movl	%edx, 16(%rax)	# tmp102, new_18->len
	.loc 1 250 0
	movq	-136(%rbp), %rdx	# st.st_ino, D.9111
	movq	-152(%rbp), %rax	# new, tmp103
	movq	%rdx, 24(%rax)	# D.9111, new_18->ino
	.loc 1 251 0
	movq	-144(%rbp), %rdx	# st.st_dev, D.9111
	movq	-152(%rbp), %rax	# new, tmp104
	movq	%rdx, 32(%rax)	# D.9111, new_18->dev
	.loc 1 255 0
	cmpl	$1, -196(%rbp)	#, path
	je	.L19	#,
	.loc 1 255 0 is_stmt 0 discriminator 1
	cmpl	$2, -196(%rbp)	#, path
	jne	.L20	#,
.L19:
	.loc 1 259 0 is_stmt 1
	cmpl	$0, -200(%rbp)	#, cxx_aware
	je	.L21	#,
	.loc 1 259 0 is_stmt 0 discriminator 1
	movl	$1, %eax	#, iftmp.7
	jmp	.L22	#
.L21:
	.loc 1 259 0 discriminator 2
	movl	$2, %eax	#, iftmp.7
.L22:
	.loc 1 259 0 discriminator 3
	movq	-152(%rbp), %rdx	# new, tmp105
	movl	%eax, 40(%rdx)	# iftmp.7, new_18->sysp
	jmp	.L23	#
.L20:
	.loc 1 262 0 is_stmt 1
	movq	-152(%rbp), %rax	# new, tmp106
	movl	$0, 40(%rax)	#, new_18->sysp
.L23:
	.loc 1 263 0
	movq	-152(%rbp), %rax	# new, tmp107
	movq	$0, 48(%rax)	#, new_18->name_map
	.loc 1 264 0
	movq	-152(%rbp), %rax	# new, tmp108
	movq	$0, (%rax)	#, new_18->next
	.loc 1 266 0
	movl	-196(%rbp), %eax	# path, path
	cmpl	$1, %eax	#, path
	je	.L25	#,
	cmpl	$2, %eax	#, path
	je	.L26	#,
	testl	%eax, %eax	# path
	je	.L27	#,
	jmp	.L11	#
.L27:
	.loc 1 268 0
	movq	-160(%rbp), %rax	# pend, tmp110
	movq	32(%rax), %rax	# pend_4->brack_head, D.9112
	testq	%rax, %rax	# D.9112
	jne	.L28	#,
	.loc 1 268 0 is_stmt 0 discriminator 1
	movq	-160(%rbp), %rax	# pend, tmp111
	movq	-152(%rbp), %rdx	# new, tmp112
	movq	%rdx, 32(%rax)	# tmp112, pend_4->brack_head
	jmp	.L29	#
.L28:
	.loc 1 268 0 discriminator 2
	movq	-160(%rbp), %rax	# pend, tmp113
	movq	40(%rax), %rax	# pend_4->brack_tail, D.9112
	movq	-152(%rbp), %rdx	# new, tmp114
	movq	%rdx, (%rax)	# tmp114, _26->next
.L29:
	.loc 1 268 0 discriminator 1
	movq	-160(%rbp), %rax	# pend, tmp115
	movq	-152(%rbp), %rdx	# new, tmp116
	movq	%rdx, 40(%rax)	# tmp116, pend_4->brack_tail
	jmp	.L24	#
.L25:
	.loc 1 269 0 is_stmt 1
	movq	-160(%rbp), %rax	# pend, tmp117
	movq	48(%rax), %rax	# pend_4->systm_head, D.9112
	testq	%rax, %rax	# D.9112
	jne	.L30	#,
	.loc 1 269 0 is_stmt 0 discriminator 1
	movq	-160(%rbp), %rax	# pend, tmp118
	movq	-152(%rbp), %rdx	# new, tmp119
	movq	%rdx, 48(%rax)	# tmp119, pend_4->systm_head
	jmp	.L31	#
.L30:
	.loc 1 269 0 discriminator 2
	movq	-160(%rbp), %rax	# pend, tmp120
	movq	56(%rax), %rax	# pend_4->systm_tail, D.9112
	movq	-152(%rbp), %rdx	# new, tmp121
	movq	%rdx, (%rax)	# tmp121, _28->next
.L31:
	.loc 1 269 0 discriminator 1
	movq	-160(%rbp), %rax	# pend, tmp122
	movq	-152(%rbp), %rdx	# new, tmp123
	movq	%rdx, 56(%rax)	# tmp123, pend_4->systm_tail
	jmp	.L24	#
.L26:
	.loc 1 270 0 is_stmt 1
	movq	-160(%rbp), %rax	# pend, tmp124
	movq	64(%rax), %rax	# pend_4->after_head, D.9112
	testq	%rax, %rax	# D.9112
	jne	.L32	#,
	.loc 1 270 0 is_stmt 0 discriminator 1
	movq	-160(%rbp), %rax	# pend, tmp125
	movq	-152(%rbp), %rdx	# new, tmp126
	movq	%rdx, 64(%rax)	# tmp126, pend_4->after_head
	jmp	.L33	#
.L32:
	.loc 1 270 0 discriminator 2
	movq	-160(%rbp), %rax	# pend, tmp127
	movq	72(%rax), %rax	# pend_4->after_tail, D.9112
	movq	-152(%rbp), %rdx	# new, tmp128
	movq	%rdx, (%rax)	# tmp128, _30->next
.L33:
	.loc 1 270 0 discriminator 1
	movq	-160(%rbp), %rax	# pend, tmp129
	movq	-152(%rbp), %rdx	# new, tmp130
	movq	%rdx, 72(%rax)	# tmp130, pend_4->after_tail
	nop
.L24:
.L11:
	.loc 1 272 0 is_stmt 1
	leave
	.cfi_def_cfa 7, 8
	ret
	.cfi_endproc
.LFE9:
	.size	append_include_chain, .-append_include_chain
	.section	.rodata
	.align 8
.LC3:
	.string	"ignoring duplicate directory \"%s\"\n"
	.text
	.type	remove_dup_dir, @function
remove_dup_dir:
.LFB10:
	.loc 1 281 0
	.cfi_startproc
	pushq	%rbp	#
	.cfi_def_cfa_offset 16
	.cfi_offset 6, -16
	movq	%rsp, %rbp	#,
	.cfi_def_cfa_register 6
	subq	$32, %rsp	#,
	movq	%rdi, -24(%rbp)	# pfile, pfile
	movq	%rsi, -32(%rbp)	# prev, prev
	.loc 1 282 0
	movq	-32(%rbp), %rax	# prev, tmp66
	movq	(%rax), %rax	# prev_1(D)->next, tmp67
	movq	%rax, -8(%rbp)	# tmp67, cur
	.loc 1 284 0
	movq	-24(%rbp), %rax	# pfile, tmp68
	movzbl	740(%rax), %eax	# pfile_3(D)->opts.verbose, D.9116
	testb	%al, %al	# D.9116
	je	.L36	#,
	.loc 1 285 0
	movq	-8(%rbp), %rax	# cur, tmp69
	movq	8(%rax), %rdx	# cur_2->name, D.9117
	movq	stderr(%rip), %rax	# stderr, stderr.8
	movl	$.LC3, %esi	#,
	movq	%rax, %rdi	# stderr.8,
	movl	$0, %eax	#,
	call	fprintf	#
.L36:
	.loc 1 287 0
	movq	-8(%rbp), %rax	# cur, tmp70
	movq	(%rax), %rdx	# cur_2->next, D.9118
	movq	-32(%rbp), %rax	# prev, tmp71
	movq	%rdx, (%rax)	# D.9118, prev_1(D)->next
	.loc 1 288 0
	movq	-8(%rbp), %rax	# cur, tmp72
	movq	8(%rax), %rax	# cur_2->name, D.9117
	movq	%rax, %rdi	# D.9117,
	call	free	#
	.loc 1 289 0
	movq	-8(%rbp), %rax	# cur, tmp73
	movq	%rax, %rdi	# tmp73,
	call	free	#
	.loc 1 291 0
	movq	-32(%rbp), %rax	# prev, D.9118
	.loc 1 292 0
	leave
	.cfi_def_cfa 7, 8
	ret
	.cfi_endproc
.LFE10:
	.size	remove_dup_dir, .-remove_dup_dir
	.section	.rodata
	.align 8
.LC4:
	.string	"changing search order for system directory \"%s\""
	.align 8
.LC5:
	.string	"  as it is the same as non-system directory \"%s\""
	.align 8
.LC6:
	.string	"  as it has already been specified as a non-system directory"
	.text
	.type	remove_dup_dirs, @function
remove_dup_dirs:
.LFB11:
	.loc 1 302 0
	.cfi_startproc
	pushq	%rbp	#
	.cfi_def_cfa_offset 16
	.cfi_offset 6, -16
	movq	%rsp, %rbp	#,
	.cfi_def_cfa_register 6
	subq	$48, %rsp	#,
	movq	%rdi, -40(%rbp)	# pfile, pfile
	movq	%rsi, -48(%rbp)	# head, head
	.loc 1 303 0
	movq	$0, -24(%rbp)	#, prev
	.loc 1 305 0
	movq	-48(%rbp), %rax	# head, tmp72
	movq	%rax, -16(%rbp)	# tmp72, cur
	jmp	.L39	#
.L46:
	.loc 1 307 0
	movq	-48(%rbp), %rax	# head, tmp73
	movq	%rax, -8(%rbp)	# tmp73, other
	jmp	.L40	#
.L45:
	.loc 1 308 0
	movq	-16(%rbp), %rax	# cur, tmp74
	movq	24(%rax), %rdx	# cur_3->ino, D.9120
	movq	-8(%rbp), %rax	# other, tmp75
	movq	24(%rax), %rax	# other_4->ino, D.9120
	cmpq	%rax, %rdx	# D.9120, D.9120
	jne	.L41	#,
	.loc 1 308 0 is_stmt 0 discriminator 1
	movq	-16(%rbp), %rax	# cur, tmp76
	movq	32(%rax), %rdx	# cur_3->dev, D.9120
	movq	-8(%rbp), %rax	# other, tmp77
	movq	32(%rax), %rax	# other_4->dev, D.9120
	cmpq	%rax, %rdx	# D.9120, D.9120
	jne	.L41	#,
	.loc 1 310 0 is_stmt 1
	movq	-16(%rbp), %rax	# cur, tmp78
	movl	40(%rax), %eax	# cur_3->sysp, D.9121
	testl	%eax, %eax	# D.9121
	je	.L42	#,
	.loc 1 310 0 is_stmt 0 discriminator 1
	movq	-8(%rbp), %rax	# other, tmp79
	movl	40(%rax), %eax	# other_4->sysp, D.9121
	testl	%eax, %eax	# D.9121
	jne	.L42	#,
	.loc 1 312 0 is_stmt 1
	movq	-16(%rbp), %rax	# cur, tmp80
	movq	8(%rax), %rdx	# cur_3->name, D.9122
	movq	-40(%rbp), %rax	# pfile, tmp81
	movl	$.LC4, %esi	#,
	movq	%rax, %rdi	# tmp81,
	movl	$0, %eax	#,
	call	cpp_warning	#
	.loc 1 315 0
	movq	-8(%rbp), %rax	# other, tmp82
	movq	8(%rax), %rdx	# other_4->name, D.9122
	movq	-16(%rbp), %rax	# cur, tmp83
	movq	8(%rax), %rax	# cur_3->name, D.9122
	movq	%rdx, %rsi	# D.9122,
	movq	%rax, %rdi	# D.9122,
	call	strcmp	#
	testl	%eax, %eax	# D.9121
	je	.L43	#,
	.loc 1 316 0
	movq	-8(%rbp), %rax	# other, tmp84
	movq	8(%rax), %rdx	# other_4->name, D.9122
	movq	-40(%rbp), %rax	# pfile, tmp85
	movl	$.LC5, %esi	#,
	movq	%rax, %rdi	# tmp85,
	movl	$0, %eax	#,
	call	cpp_warning	#
	jmp	.L42	#
.L43:
	.loc 1 320 0
	movq	-40(%rbp), %rax	# pfile, tmp86
	movl	$.LC6, %esi	#,
	movq	%rax, %rdi	# tmp86,
	movl	$0, %eax	#,
	call	cpp_warning	#
.L42:
	.loc 1 323 0
	movq	-24(%rbp), %rdx	# prev, tmp87
	movq	-40(%rbp), %rax	# pfile, tmp88
	movq	%rdx, %rsi	# tmp87,
	movq	%rax, %rdi	# tmp88,
	call	remove_dup_dir	#
	movq	%rax, -16(%rbp)	# tmp89, cur
	.loc 1 324 0
	jmp	.L44	#
.L41:
	.loc 1 307 0
	movq	-8(%rbp), %rax	# other, tmp90
	movq	(%rax), %rax	# other_4->next, tmp91
	movq	%rax, -8(%rbp)	# tmp91, other
.L40:
	.loc 1 307 0 is_stmt 0 discriminator 1
	movq	-8(%rbp), %rax	# other, tmp92
	cmpq	-16(%rbp), %rax	# cur, tmp92
	jne	.L45	#,
.L44:
	.loc 1 326 0 is_stmt 1
	movq	-16(%rbp), %rax	# cur, tmp93
	movq	%rax, -24(%rbp)	# tmp93, prev
	.loc 1 305 0
	movq	-16(%rbp), %rax	# cur, tmp94
	movq	(%rax), %rax	# cur_2->next, tmp95
	movq	%rax, -16(%rbp)	# tmp95, cur
.L39:
	.loc 1 305 0 is_stmt 0 discriminator 1
	cmpq	$0, -16(%rbp)	#, cur
	jne	.L46	#,
	.loc 1 329 0 is_stmt 1
	movq	-24(%rbp), %rax	# prev, D.9123
	.loc 1 330 0
	leave
	.cfi_def_cfa 7, 8
	ret
	.cfi_endproc
.LFE11:
	.size	remove_dup_dirs, .-remove_dup_dirs
	.type	merge_include_chains, @function
merge_include_chains:
.LFB12:
	.loc 1 340 0
	.cfi_startproc
	pushq	%rbp	#
	.cfi_def_cfa_offset 16
	.cfi_offset 6, -16
	movq	%rsp, %rbp	#,
	.cfi_def_cfa_register 6
	subq	$64, %rsp	#,
	movq	%rdi, -56(%rbp)	# pfile, pfile
	.loc 1 343 0
	movq	-56(%rbp), %rax	# pfile, tmp66
	movq	672(%rax), %rax	# pfile_6(D)->opts.pending, tmp67
	movq	%rax, -16(%rbp)	# tmp67, pend
	.loc 1 345 0
	movq	-16(%rbp), %rax	# pend, tmp68
	movq	16(%rax), %rax	# pend_7->quote_head, tmp69
	movq	%rax, -40(%rbp)	# tmp69, quote
	.loc 1 346 0
	movq	-16(%rbp), %rax	# pend, tmp70
	movq	32(%rax), %rax	# pend_7->brack_head, tmp71
	movq	%rax, -32(%rbp)	# tmp71, brack
	.loc 1 347 0
	movq	-16(%rbp), %rax	# pend, tmp72
	movq	48(%rax), %rax	# pend_7->systm_head, tmp73
	movq	%rax, -24(%rbp)	# tmp73, systm
	.loc 1 348 0
	movq	-16(%rbp), %rax	# pend, tmp74
	movq	24(%rax), %rax	# pend_7->quote_tail, tmp75
	movq	%rax, -8(%rbp)	# tmp75, qtail
	.loc 1 351 0
	cmpq	$0, -24(%rbp)	#, systm
	je	.L49	#,
	.loc 1 352 0
	movq	-16(%rbp), %rax	# pend, tmp76
	movq	56(%rax), %rax	# pend_7->systm_tail, D.9127
	movq	-16(%rbp), %rdx	# pend, tmp77
	movq	64(%rdx), %rdx	# pend_7->after_head, D.9127
	movq	%rdx, (%rax)	# D.9127, _12->next
	jmp	.L50	#
.L49:
	.loc 1 354 0
	movq	-16(%rbp), %rax	# pend, tmp78
	movq	64(%rax), %rax	# pend_7->after_head, tmp79
	movq	%rax, -24(%rbp)	# tmp79, systm
.L50:
	.loc 1 356 0
	cmpq	$0, -32(%rbp)	#, brack
	je	.L51	#,
	.loc 1 357 0
	movq	-16(%rbp), %rax	# pend, tmp80
	movq	40(%rax), %rax	# pend_7->brack_tail, D.9127
	movq	-24(%rbp), %rdx	# systm, tmp81
	movq	%rdx, (%rax)	# tmp81, _15->next
	jmp	.L52	#
.L51:
	.loc 1 359 0
	movq	-24(%rbp), %rax	# systm, tmp82
	movq	%rax, -32(%rbp)	# tmp82, brack
.L52:
	.loc 1 372 0
	movq	-32(%rbp), %rdx	# brack, tmp83
	movq	-56(%rbp), %rax	# pfile, tmp84
	movq	%rdx, %rsi	# tmp83,
	movq	%rax, %rdi	# tmp84,
	call	remove_dup_dirs	#
	.loc 1 373 0
	movq	-40(%rbp), %rdx	# quote, tmp85
	movq	-56(%rbp), %rax	# pfile, tmp86
	movq	%rdx, %rsi	# tmp85,
	movq	%rax, %rdi	# tmp86,
	call	remove_dup_dirs	#
	movq	%rax, -8(%rbp)	# tmp87, qtail
	.loc 1 375 0
	cmpq	$0, -40(%rbp)	#, quote
	je	.L53	#,
	.loc 1 377 0
	movq	-8(%rbp), %rax	# qtail, tmp88
	movq	-32(%rbp), %rdx	# brack, tmp89
	movq	%rdx, (%rax)	# tmp89, qtail_17->next
	.loc 1 380 0
	cmpq	$0, -32(%rbp)	#, brack
	je	.L55	#,
	.loc 1 380 0 is_stmt 0 discriminator 1
	movq	-8(%rbp), %rax	# qtail, tmp90
	movq	24(%rax), %rdx	# qtail_17->ino, D.9128
	movq	-32(%rbp), %rax	# brack, tmp91
	movq	24(%rax), %rax	# brack_2->ino, D.9128
	cmpq	%rax, %rdx	# D.9128, D.9128
	jne	.L55	#,
	.loc 1 381 0 is_stmt 1
	movq	-8(%rbp), %rax	# qtail, tmp92
	movq	32(%rax), %rdx	# qtail_17->dev, D.9128
	movq	-32(%rbp), %rax	# brack, tmp93
	movq	32(%rax), %rax	# brack_2->dev, D.9128
	cmpq	%rax, %rdx	# D.9128, D.9128
	jne	.L55	#,
	.loc 1 382 0
	movq	-8(%rbp), %rdx	# qtail, tmp94
	movq	-56(%rbp), %rax	# pfile, tmp95
	movq	%rdx, %rsi	# tmp94,
	movq	%rax, %rdi	# tmp95,
	call	remove_dup_dir	#
	movq	%rax, -32(%rbp)	# tmp96, brack
	jmp	.L55	#
.L53:
	.loc 1 385 0
	movq	-32(%rbp), %rax	# brack, tmp97
	movq	%rax, -40(%rbp)	# tmp97, quote
.L55:
	.loc 1 387 0
	movq	-56(%rbp), %rax	# pfile, tmp98
	movq	-40(%rbp), %rdx	# quote, tmp99
	movq	%rdx, 688(%rax)	# tmp99, pfile_6(D)->opts.quote_include
	.loc 1 388 0
	movq	-56(%rbp), %rax	# pfile, tmp100
	movq	-32(%rbp), %rdx	# brack, tmp101
	movq	%rdx, 696(%rax)	# tmp101, pfile_6(D)->opts.bracket_include
	.loc 1 389 0
	leave
	.cfi_def_cfa 7, 8
	ret
	.cfi_endproc
.LFE12:
	.size	merge_include_chains, .-merge_include_chains
	.section	.rodata
	.align 32
	.type	lang_defaults, @object
	.size	lang_defaults, 80
lang_defaults:
# c99:
	.byte	0
# objc:
	.byte	0
# cplusplus:
	.byte	0
# extended_numbers:
	.byte	1
# trigraphs:
	.byte	0
# dollars_in_ident:
	.byte	1
# cplusplus_comments:
	.byte	1
# digraphs:
	.byte	1
# c99:
	.byte	1
# objc:
	.byte	0
# cplusplus:
	.byte	0
# extended_numbers:
	.byte	1
# trigraphs:
	.byte	0
# dollars_in_ident:
	.byte	1
# cplusplus_comments:
	.byte	1
# digraphs:
	.byte	1
# c99:
	.byte	0
# objc:
	.byte	0
# cplusplus:
	.byte	0
# extended_numbers:
	.byte	0
# trigraphs:
	.byte	1
# dollars_in_ident:
	.byte	0
# cplusplus_comments:
	.byte	0
# digraphs:
	.byte	0
# c99:
	.byte	0
# objc:
	.byte	0
# cplusplus:
	.byte	0
# extended_numbers:
	.byte	0
# trigraphs:
	.byte	1
# dollars_in_ident:
	.byte	0
# cplusplus_comments:
	.byte	0
# digraphs:
	.byte	1
# c99:
	.byte	1
# objc:
	.byte	0
# cplusplus:
	.byte	0
# extended_numbers:
	.byte	1
# trigraphs:
	.byte	1
# dollars_in_ident:
	.byte	0
# cplusplus_comments:
	.byte	1
# digraphs:
	.byte	1
# c99:
	.byte	0
# objc:
	.byte	0
# cplusplus:
	.byte	1
# extended_numbers:
	.byte	1
# trigraphs:
	.byte	0
# dollars_in_ident:
	.byte	1
# cplusplus_comments:
	.byte	1
# digraphs:
	.byte	1
# c99:
	.byte	0
# objc:
	.byte	0
# cplusplus:
	.byte	1
# extended_numbers:
	.byte	1
# trigraphs:
	.byte	1
# dollars_in_ident:
	.byte	0
# cplusplus_comments:
	.byte	1
# digraphs:
	.byte	1
# c99:
	.byte	0
# objc:
	.byte	1
# cplusplus:
	.byte	0
# extended_numbers:
	.byte	1
# trigraphs:
	.byte	0
# dollars_in_ident:
	.byte	1
# cplusplus_comments:
	.byte	1
# digraphs:
	.byte	1
# c99:
	.byte	0
# objc:
	.byte	1
# cplusplus:
	.byte	1
# extended_numbers:
	.byte	1
# trigraphs:
	.byte	0
# dollars_in_ident:
	.byte	1
# cplusplus_comments:
	.byte	1
# digraphs:
	.byte	1
# c99:
	.byte	0
# objc:
	.byte	0
# cplusplus:
	.byte	0
# extended_numbers:
	.byte	1
# trigraphs:
	.byte	0
# dollars_in_ident:
	.byte	0
# cplusplus_comments:
	.byte	1
# digraphs:
	.byte	0
	.text
	.type	set_lang, @function
set_lang:
.LFB13:
	.loc 1 425 0
	.cfi_startproc
	pushq	%rbp	#
	.cfi_def_cfa_offset 16
	.cfi_offset 6, -16
	movq	%rsp, %rbp	#,
	.cfi_def_cfa_register 6
	movq	%rdi, -24(%rbp)	# pfile, pfile
	movl	%esi, -28(%rbp)	# lang, lang
	.loc 1 426 0
	movl	-28(%rbp), %eax	# lang, lang.9
	cltq
	salq	$3, %rax	#, tmp77
	addq	$lang_defaults, %rax	#, tmp78
	movq	%rax, -8(%rbp)	# tmp78, l
	.loc 1 428 0
	movq	-24(%rbp), %rax	# pfile, tmp79
	movl	-28(%rbp), %edx	# lang, tmp80
	movl	%edx, 736(%rax)	# tmp80, pfile_4(D)->opts.lang
	.loc 1 430 0
	movq	-8(%rbp), %rax	# l, tmp81
	movzbl	(%rax), %eax	# l_3->c99, D.9129
	movl	%eax, %edx	# D.9129, D.9130
	movq	-24(%rbp), %rax	# pfile, tmp82
	movb	%dl, 769(%rax)	# D.9130, pfile_4(D)->opts.c99
	.loc 1 431 0
	movq	-8(%rbp), %rax	# l, tmp83
	movzbl	1(%rax), %eax	# l_3->objc, D.9129
	movl	%eax, %edx	# D.9129, D.9130
	movq	-24(%rbp), %rax	# pfile, tmp84
	movb	%dl, 744(%rax)	# D.9130, pfile_4(D)->opts.objc
	.loc 1 432 0
	movq	-8(%rbp), %rax	# l, tmp85
	movzbl	2(%rax), %eax	# l_3->cplusplus, D.9129
	movl	%eax, %edx	# D.9129, D.9130
	movq	-24(%rbp), %rax	# pfile, tmp86
	movb	%dl, 742(%rax)	# D.9130, pfile_4(D)->opts.cplusplus
	.loc 1 433 0
	movq	-8(%rbp), %rax	# l, tmp87
	movzbl	3(%rax), %eax	# l_3->extended_numbers, D.9129
	movl	%eax, %edx	# D.9129, D.9130
	movq	-24(%rbp), %rax	# pfile, tmp88
	movb	%dl, 748(%rax)	# D.9130, pfile_4(D)->opts.extended_numbers
	.loc 1 434 0
	movq	-8(%rbp), %rax	# l, tmp89
	movzbl	4(%rax), %eax	# l_3->trigraphs, D.9129
	movl	%eax, %edx	# D.9129, D.9130
	movq	-24(%rbp), %rax	# pfile, tmp90
	movb	%dl, 746(%rax)	# D.9130, pfile_4(D)->opts.trigraphs
	.loc 1 435 0
	movq	-8(%rbp), %rax	# l, tmp91
	movzbl	5(%rax), %eax	# l_3->dollars_in_ident, D.9129
	movl	%eax, %edx	# D.9129, D.9130
	movq	-24(%rbp), %rax	# pfile, tmp92
	movb	%dl, 767(%rax)	# D.9130, pfile_4(D)->opts.dollars_in_ident
	.loc 1 436 0
	movq	-8(%rbp), %rax	# l, tmp93
	movzbl	6(%rax), %eax	# l_3->cplusplus_comments, D.9129
	movl	%eax, %edx	# D.9129, D.9130
	movq	-24(%rbp), %rax	# pfile, tmp94
	movb	%dl, 743(%rax)	# D.9130, pfile_4(D)->opts.cplusplus_comments
	.loc 1 437 0
	movq	-8(%rbp), %rax	# l, tmp95
	movzbl	7(%rax), %eax	# l_3->digraphs, D.9129
	movl	%eax, %edx	# D.9129, D.9130
	movq	-24(%rbp), %rax	# pfile, tmp96
	movb	%dl, 747(%rax)	# D.9130, pfile_4(D)->opts.digraphs
	.loc 1 438 0
	popq	%rbp	#
	.cfi_def_cfa 7, 8
	ret
	.cfi_endproc
.LFE13:
	.size	set_lang, .-set_lang
	.type	init_library, @function
init_library:
.LFB14:
	.loc 1 457 0
	.cfi_startproc
	pushq	%rbp	#
	.cfi_def_cfa_offset 16
	.cfi_offset 6, -16
	movq	%rsp, %rbp	#,
	.cfi_def_cfa_register 6
	.loc 1 460 0
	movl	initialized.7822(%rip), %eax	# initialized, initialized.10
	testl	%eax, %eax	# initialized.10
	jne	.L57	#,
	.loc 1 462 0
	movl	$1, initialized.7822(%rip)	#, initialized
.L57:
	.loc 1 476 0
	popq	%rbp	#
	.cfi_def_cfa 7, 8
	ret
	.cfi_endproc
.LFE14:
	.size	init_library, .-init_library
	.globl	cpp_create_reader
	.type	cpp_create_reader, @function
cpp_create_reader:
.LFB15:
	.loc 1 482 0
	.cfi_startproc
	pushq	%rbp	#
	.cfi_def_cfa_offset 16
	.cfi_offset 6, -16
	movq	%rsp, %rbp	#,
	.cfi_def_cfa_register 6
	subq	$32, %rsp	#,
	movl	%edi, -20(%rbp)	# lang, lang
	.loc 1 486 0
	call	init_library	#
	.loc 1 488 0
	movl	$832, %esi	#,
	movl	$1, %edi	#,
	call	xcalloc	#
	movq	%rax, -8(%rbp)	# tmp75, pfile
	.loc 1 490 0
	movl	-20(%rbp), %edx	# lang, tmp76
	movq	-8(%rbp), %rax	# pfile, tmp77
	movl	%edx, %esi	# tmp76,
	movq	%rax, %rdi	# tmp77,
	call	set_lang	#
	.loc 1 491 0
	movq	-8(%rbp), %rax	# pfile, tmp78
	movb	$1, 760(%rax)	#, pfile_1->opts.warn_import
	.loc 1 492 0
	movq	-8(%rbp), %rax	# pfile, tmp79
	movb	$1, 745(%rax)	#, pfile_1->opts.discard_comments
	.loc 1 493 0
	movq	-8(%rbp), %rax	# pfile, tmp80
	movb	$1, 776(%rax)	#, pfile_1->opts.show_column
	.loc 1 494 0
	movq	-8(%rbp), %rax	# pfile, tmp81
	movl	$8, 664(%rax)	#, pfile_1->opts.tabstop
	.loc 1 495 0
	movq	-8(%rbp), %rax	# pfile, tmp82
	movb	$1, 777(%rax)	#, pfile_1->opts.operator_names
	.loc 1 497 0
	movq	-8(%rbp), %rax	# pfile, tmp83
	movb	$1, 741(%rax)	#, pfile_1->opts.signed_char
	.loc 1 503 0
	movl	$112, %esi	#,
	movl	$1, %edi	#,
	call	xcalloc	#
	movq	%rax, %rdx	# tmp84, D.9131
	.loc 1 502 0
	movq	-8(%rbp), %rax	# pfile, tmp85
	movq	%rdx, 672(%rax)	# D.9131, pfile_1->opts.pending
	.loc 1 507 0
	call	deps_init	#
	movq	-8(%rbp), %rdx	# pfile, tmp86
	movq	%rax, 392(%rdx)	# D.9132, pfile_1->deps
	.loc 1 511 0
	movq	-8(%rbp), %rax	# pfile, tmp87
	addq	$24, %rax	#, D.9133
	movq	%rax, %rdi	# D.9133,
	call	init_line_maps	#
	.loc 1 512 0
	movq	-8(%rbp), %rax	# pfile, tmp88
	movl	$1, 64(%rax)	#, pfile_1->line
	.loc 1 515 0
	movq	-8(%rbp), %rax	# pfile, tmp89
	movzbl	745(%rax), %eax	# pfile_1->opts.discard_comments, D.9134
	testb	%al, %al	# D.9134
	sete	%al	#, D.9135
	movl	%eax, %edx	# D.9135, D.9134
	movq	-8(%rbp), %rax	# pfile, tmp90
	movb	%dl, 11(%rax)	# D.9134, pfile_1->state.save_comments
	.loc 1 518 0
	movq	-8(%rbp), %rax	# pfile, tmp91
	movb	$67, 302(%rax)	#, pfile_1->date.type
	.loc 1 519 0
	movq	-8(%rbp), %rax	# pfile, tmp92
	movb	$66, 350(%rax)	#, pfile_1->avoid_paste.type
	.loc 1 520 0
	movq	-8(%rbp), %rax	# pfile, tmp93
	movq	$0, 352(%rax)	#, pfile_1->avoid_paste.val.source
	.loc 1 521 0
	movq	-8(%rbp), %rax	# pfile, tmp94
	movb	$67, 374(%rax)	#, pfile_1->eof.type
	.loc 1 522 0
	movq	-8(%rbp), %rax	# pfile, tmp95
	movb	$0, 375(%rax)	#, pfile_1->eof.flags
	.loc 1 525 0
	movq	-8(%rbp), %rax	# pfile, tmp96
	addq	$200, %rax	#, D.9136
	movl	$250, %esi	#,
	movq	%rax, %rdi	# D.9136,
	call	_cpp_init_tokenrun	#
	.loc 1 526 0
	movq	-8(%rbp), %rax	# pfile, tmp97
	leaq	200(%rax), %rdx	#, D.9136
	movq	-8(%rbp), %rax	# pfile, tmp98
	movq	%rdx, 232(%rax)	# D.9136, pfile_1->cur_run
	.loc 1 527 0
	movq	-8(%rbp), %rax	# pfile, tmp99
	movq	216(%rax), %rdx	# pfile_1->base_run.base, D.9137
	movq	-8(%rbp), %rax	# pfile, tmp100
	movq	%rdx, 192(%rax)	# D.9137, pfile_1->cur_token
	.loc 1 530 0
	movq	-8(%rbp), %rax	# pfile, tmp101
	leaq	96(%rax), %rdx	#, D.9138
	movq	-8(%rbp), %rax	# pfile, tmp102
	movq	%rdx, 152(%rax)	# D.9138, pfile_1->context
	.loc 1 531 0
	movq	-8(%rbp), %rax	# pfile, tmp103
	movq	$0, 136(%rax)	#, pfile_1->base_context.macro
	.loc 1 532 0
	movq	-8(%rbp), %rax	# pfile, tmp104
	movq	$0, 96(%rax)	#, pfile_1->base_context.next
	movq	-8(%rbp), %rax	# pfile, tmp105
	movq	96(%rax), %rdx	# pfile_1->base_context.next, D.9139
	movq	-8(%rbp), %rax	# pfile, tmp106
	movq	%rdx, 104(%rax)	# D.9139, pfile_1->base_context.prev
	.loc 1 535 0
	movq	-8(%rbp), %rax	# pfile, tmp107
	movl	$0, %esi	#,
	movq	%rax, %rdi	# tmp107,
	call	_cpp_get_buff	#
	movq	-8(%rbp), %rdx	# pfile, tmp108
	movq	%rax, 72(%rdx)	# D.9140, pfile_1->a_buff
	.loc 1 536 0
	movq	-8(%rbp), %rax	# pfile, tmp109
	movl	$0, %esi	#,
	movq	%rax, %rdi	# tmp109,
	call	_cpp_get_buff	#
	movq	-8(%rbp), %rdx	# pfile, tmp110
	movq	%rax, 80(%rdx)	# D.9140, pfile_1->u_buff
	.loc 1 539 0
	movq	-8(%rbp), %rax	# pfile, tmp111
	addq	$488, %rax	#, D.9141
	movq	%rax, %rdi	# D.9141,
	call	gcc_obstack_init	#
	.loc 1 541 0
	movq	-8(%rbp), %rax	# pfile, tmp112
	movq	%rax, %rdi	# tmp112,
	call	_cpp_init_includes	#
	.loc 1 543 0
	movq	-8(%rbp), %rax	# pfile, D.9142
	.loc 1 544 0
	leave
	.cfi_def_cfa 7, 8
	ret
	.cfi_endproc
.LFE15:
	.size	cpp_create_reader, .-cpp_create_reader
	.globl	cpp_destroy
	.type	cpp_destroy, @function
cpp_destroy:
.LFB16:
	.loc 1 551 0
	.cfi_startproc
	pushq	%rbp	#
	.cfi_def_cfa_offset 16
	.cfi_offset 6, -16
	movq	%rsp, %rbp	#,
	.cfi_def_cfa_register 6
	subq	$96, %rsp	#,
	movq	%rdi, -88(%rbp)	# pfile, pfile
	.loc 1 557 0
	jmp	.L62	#
.L63:
	.loc 1 558 0
	movq	-88(%rbp), %rax	# pfile, tmp76
	movq	%rax, %rdi	# tmp76,
	call	_cpp_pop_buffer	#
.L62:
	.loc 1 557 0 discriminator 1
	movq	-88(%rbp), %rax	# pfile, tmp77
	movq	(%rax), %rax	# pfile_4(D)->buffer, D.9143
	testq	%rax, %rax	# D.9143
	jne	.L63	#,
	.loc 1 560 0
	movq	-88(%rbp), %rax	# pfile, tmp78
	movq	264(%rax), %rax	# pfile_4(D)->macro_buffer, D.9144
	testq	%rax, %rax	# D.9144
	je	.L64	#,
	.loc 1 562 0
	movq	-88(%rbp), %rax	# pfile, tmp79
	movq	264(%rax), %rax	# pfile_4(D)->macro_buffer, D.9144
	movq	%rax, %rdi	# D.9144,
	call	free	#
	.loc 1 563 0
	movq	-88(%rbp), %rax	# pfile, tmp80
	movq	$0, 264(%rax)	#, pfile_4(D)->macro_buffer
	.loc 1 564 0
	movq	-88(%rbp), %rax	# pfile, tmp81
	movl	$0, 272(%rax)	#, pfile_4(D)->macro_buffer_len
.L64:
	.loc 1 567 0
	movq	-88(%rbp), %rax	# pfile, tmp82
	movq	392(%rax), %rax	# pfile_4(D)->deps, D.9145
	movq	%rax, %rdi	# D.9145,
	call	deps_free	#
.LBB2:
	.loc 1 568 0
	movq	-88(%rbp), %rax	# pfile, tmp86
	addq	$488, %rax	#, tmp85
	movq	%rax, -40(%rbp)	# tmp85, __o
	movq	$0, -32(%rbp)	#, __obj
	movq	-40(%rbp), %rax	# __o, tmp87
	movq	8(%rax), %rax	# __o_9->chunk, D.9146
	cmpq	-32(%rbp), %rax	# __obj, D.9146
	jae	.L65	#,
	.loc 1 568 0 is_stmt 0 discriminator 1
	movq	-40(%rbp), %rax	# __o, tmp88
	movq	32(%rax), %rax	# __o_9->chunk_limit, D.9147
	cmpq	-32(%rbp), %rax	# __obj, D.9147
	jbe	.L65	#,
	movq	-40(%rbp), %rax	# __o, tmp89
	movq	-32(%rbp), %rdx	# __obj, tmp90
	movq	%rdx, 16(%rax)	# tmp90, __o_9->object_base
	movq	-40(%rbp), %rax	# __o, tmp91
	movq	16(%rax), %rdx	# __o_9->object_base, D.9147
	movq	-40(%rbp), %rax	# __o, tmp92
	movq	%rdx, 24(%rax)	# D.9147, __o_9->next_free
	jmp	.L66	#
.L65:
	.loc 1 568 0 discriminator 2
	movq	-32(%rbp), %rdx	# __obj, tmp93
	movq	-40(%rbp), %rax	# __o, tmp94
	movq	%rdx, %rsi	# tmp93,
	movq	%rax, %rdi	# tmp94,
	call	obstack_free	#
.L66:
.LBE2:
	.loc 1 570 0 is_stmt 1
	movq	-88(%rbp), %rax	# pfile, tmp95
	movq	%rax, %rdi	# tmp95,
	call	_cpp_destroy_hashtable	#
	.loc 1 571 0
	movq	-88(%rbp), %rax	# pfile, tmp96
	movq	%rax, %rdi	# tmp96,
	call	_cpp_cleanup_includes	#
	.loc 1 573 0
	movq	-88(%rbp), %rax	# pfile, tmp97
	movq	72(%rax), %rax	# pfile_4(D)->a_buff, D.9148
	movq	%rax, %rdi	# D.9148,
	call	_cpp_free_buff	#
	.loc 1 574 0
	movq	-88(%rbp), %rax	# pfile, tmp98
	movq	80(%rax), %rax	# pfile_4(D)->u_buff, D.9148
	movq	%rax, %rdi	# D.9148,
	call	_cpp_free_buff	#
	.loc 1 575 0
	movq	-88(%rbp), %rax	# pfile, tmp99
	movq	88(%rax), %rax	# pfile_4(D)->free_buffs, D.9148
	movq	%rax, %rdi	# D.9148,
	call	_cpp_free_buff	#
	.loc 1 577 0
	movq	-88(%rbp), %rax	# pfile, tmp103
	addq	$200, %rax	#, tmp102
	movq	%rax, -48(%rbp)	# tmp102, run
	jmp	.L67	#
.L69:
	.loc 1 579 0
	movq	-48(%rbp), %rax	# run, tmp104
	movq	(%rax), %rax	# run_3->next, tmp105
	movq	%rax, -24(%rbp)	# tmp105, runn
	.loc 1 580 0
	movq	-48(%rbp), %rax	# run, tmp106
	movq	16(%rax), %rax	# run_3->base, D.9149
	movq	%rax, %rdi	# D.9149,
	call	free	#
	.loc 1 581 0
	movq	-88(%rbp), %rax	# pfile, tmp107
	addq	$200, %rax	#, D.9150
	cmpq	-48(%rbp), %rax	# run, D.9150
	je	.L68	#,
	.loc 1 582 0
	movq	-48(%rbp), %rax	# run, tmp108
	movq	%rax, %rdi	# tmp108,
	call	free	#
.L68:
	.loc 1 577 0
	movq	-24(%rbp), %rax	# runn, tmp109
	movq	%rax, -48(%rbp)	# tmp109, run
.L67:
	.loc 1 577 0 is_stmt 0 discriminator 1
	cmpq	$0, -48(%rbp)	#, run
	jne	.L69	#,
	.loc 1 585 0 is_stmt 1
	movq	-88(%rbp), %rax	# pfile, tmp110
	movq	688(%rax), %rax	# pfile_4(D)->opts.quote_include, tmp111
	movq	%rax, -64(%rbp)	# tmp111, dir
	jmp	.L70	#
.L71:
	.loc 1 587 0 discriminator 2
	movq	-64(%rbp), %rax	# dir, tmp112
	movq	(%rax), %rax	# dir_1->next, tmp113
	movq	%rax, -16(%rbp)	# tmp113, dirn
	.loc 1 588 0 discriminator 2
	movq	-64(%rbp), %rax	# dir, tmp114
	movq	8(%rax), %rax	# dir_1->name, D.9151
	movq	%rax, %rdi	# D.9151,
	call	free	#
	.loc 1 589 0 discriminator 2
	movq	-64(%rbp), %rax	# dir, tmp115
	movq	%rax, %rdi	# tmp115,
	call	free	#
	.loc 1 585 0 discriminator 2
	movq	-16(%rbp), %rax	# dirn, tmp116
	movq	%rax, -64(%rbp)	# tmp116, dir
.L70:
	.loc 1 585 0 is_stmt 0 discriminator 1
	cmpq	$0, -64(%rbp)	#, dir
	jne	.L71	#,
	.loc 1 592 0 is_stmt 1
	movq	-88(%rbp), %rax	# pfile, tmp117
	movq	96(%rax), %rax	# pfile_4(D)->base_context.next, tmp118
	movq	%rax, -56(%rbp)	# tmp118, context
	jmp	.L72	#
.L73:
	.loc 1 594 0 discriminator 2
	movq	-56(%rbp), %rax	# context, tmp119
	movq	(%rax), %rax	# context_2->next, tmp120
	movq	%rax, -8(%rbp)	# tmp120, contextn
	.loc 1 595 0 discriminator 2
	movq	-56(%rbp), %rax	# context, tmp121
	movq	%rax, %rdi	# tmp121,
	call	free	#
	.loc 1 592 0 discriminator 2
	movq	-8(%rbp), %rax	# contextn, tmp122
	movq	%rax, -56(%rbp)	# tmp122, context
.L72:
	.loc 1 592 0 is_stmt 0 discriminator 1
	cmpq	$0, -56(%rbp)	#, context
	jne	.L73	#,
	.loc 1 598 0 is_stmt 1
	movq	-88(%rbp), %rax	# pfile, tmp123
	addq	$24, %rax	#, D.9152
	movq	%rax, %rdi	# D.9152,
	call	free_line_maps	#
	.loc 1 600 0
	movq	-88(%rbp), %rax	# pfile, tmp124
	movl	248(%rax), %eax	# pfile_4(D)->errors, D.9153
	movl	%eax, -68(%rbp)	# D.9153, result
	.loc 1 601 0
	movq	-88(%rbp), %rax	# pfile, tmp125
	movq	%rax, %rdi	# tmp125,
	call	free	#
	.loc 1 603 0
	movl	-68(%rbp), %eax	# result, D.9154
	.loc 1 604 0
	leave
	.cfi_def_cfa 7, 8
	ret
	.cfi_endproc
.LFE16:
	.size	cpp_destroy, .-cpp_destroy
	.section	.rodata
.LC7:
	.string	"__TIME__"
.LC8:
	.string	"__DATE__"
.LC9:
	.string	"__FILE__"
.LC10:
	.string	"__BASE_FILE__"
.LC11:
	.string	"__LINE__"
.LC12:
	.string	"__INCLUDE_LEVEL__"
.LC13:
	.string	"_Pragma"
.LC14:
	.string	"__VERSION__"
.LC15:
	.string	"__USER_LABEL_PREFIX__"
.LC16:
	.string	"__REGISTER_PREFIX__"
.LC17:
	.string	""
.LC18:
	.string	"__HAVE_BUILTIN_SETJMP__"
.LC19:
	.string	"1"
.LC20:
	.string	"__WCHAR_TYPE__"
.LC21:
	.string	"int"
.LC22:
	.string	"__WINT_TYPE__"
.LC23:
	.string	"unsigned int"
.LC24:
	.string	"__STDC__"
	.align 32
	.type	builtin_array, @object
	.size	builtin_array, 336
builtin_array:
# name:
	.quad	.LC7
# value:
	.quad	0
# builtin:
	.byte	5
# flags:
	.zero	1
	.value	8
# len:
	.value	8
	.zero	2
# name:
	.quad	.LC8
# value:
	.quad	0
# builtin:
	.byte	1
# flags:
	.zero	1
	.value	8
# len:
	.value	8
	.zero	2
# name:
	.quad	.LC9
# value:
	.quad	0
# builtin:
	.byte	2
# flags:
	.zero	1
	.value	8
# len:
	.value	8
	.zero	2
# name:
	.quad	.LC10
# value:
	.quad	0
# builtin:
	.byte	3
# flags:
	.zero	1
	.value	8
# len:
	.value	13
	.zero	2
# name:
	.quad	.LC11
# value:
	.quad	0
# builtin:
	.byte	0
# flags:
	.zero	1
	.value	8
# len:
	.value	8
	.zero	2
# name:
	.quad	.LC12
# value:
	.quad	0
# builtin:
	.byte	4
# flags:
	.zero	1
	.value	8
# len:
	.value	17
	.zero	2
# name:
	.quad	.LC13
# value:
	.quad	0
# builtin:
	.byte	7
# flags:
	.zero	1
	.value	8
# len:
	.value	7
	.zero	2
# name:
	.quad	.LC14
# value:
	.quad	0
# builtin:
	.byte	0
# flags:
	.zero	1
	.value	1
# len:
	.value	11
	.zero	2
# name:
	.quad	.LC15
# value:
	.quad	0
# builtin:
	.byte	0
# flags:
	.zero	1
	.value	2
# len:
	.value	21
	.zero	2
# name:
	.quad	.LC16
# value:
	.quad	.LC17
# builtin:
	.byte	0
# flags:
	.zero	1
	.value	0
# len:
	.value	19
	.zero	2
# name:
	.quad	.LC18
# value:
	.quad	.LC19
# builtin:
	.byte	0
# flags:
	.zero	1
	.value	0
# len:
	.value	23
	.zero	2
# name:
	.quad	.LC20
# value:
	.quad	.LC21
# builtin:
	.byte	0
# flags:
	.zero	1
	.value	0
# len:
	.value	14
	.zero	2
# name:
	.quad	.LC22
# value:
	.quad	.LC23
# builtin:
	.byte	0
# flags:
	.zero	1
	.value	0
# len:
	.value	13
	.zero	2
# name:
	.quad	.LC24
# value:
	.quad	.LC19
# builtin:
	.byte	0
# flags:
	.zero	1
	.value	0
# len:
	.value	8
	.zero	2
.LC25:
	.string	"and"
.LC26:
	.string	"and_eq"
.LC27:
	.string	"bitand"
.LC28:
	.string	"bitor"
.LC29:
	.string	"compl"
.LC30:
	.string	"not"
.LC31:
	.string	"not_eq"
.LC32:
	.string	"or"
.LC33:
	.string	"or_eq"
.LC34:
	.string	"xor"
.LC35:
	.string	"xor_eq"
	.align 32
	.type	operator_array, @object
	.size	operator_array, 176
operator_array:
# name:
	.quad	.LC25
# len:
	.long	3
# value:
	.long	17
# name:
	.quad	.LC26
# len:
	.long	6
# value:
	.long	33
# name:
	.quad	.LC27
# len:
	.long	6
# value:
	.long	9
# name:
	.quad	.LC28
# len:
	.long	5
# value:
	.long	10
# name:
	.quad	.LC29
# len:
	.long	5
# value:
	.long	16
# name:
	.quad	.LC30
# len:
	.long	3
# value:
	.long	1
# name:
	.quad	.LC31
# len:
	.long	6
# value:
	.long	25
# name:
	.quad	.LC32
# len:
	.long	2
# value:
	.long	18
# name:
	.quad	.LC33
# len:
	.long	5
# value:
	.long	34
# name:
	.quad	.LC34
# len:
	.long	3
# value:
	.long	11
# name:
	.quad	.LC35
# len:
	.long	6
# value:
	.long	35
	.text
	.type	mark_named_operators, @function
mark_named_operators:
.LFB17:
	.loc 1 704 0
	.cfi_startproc
	pushq	%rbp	#
	.cfi_def_cfa_offset 16
	.cfi_offset 6, -16
	movq	%rsp, %rbp	#,
	.cfi_def_cfa_register 6
	subq	$32, %rsp	#,
	movq	%rdi, -24(%rbp)	# pfile, pfile
	.loc 1 707 0
	movq	$operator_array, -16(%rbp)	#, b
	jmp	.L76	#
.L77:
.LBB3:
	.loc 1 711 0
	movq	-16(%rbp), %rax	# b, tmp64
	movl	8(%rax), %edx	# b_1->len, D.9184
	movq	-16(%rbp), %rax	# b, tmp65
	movq	(%rax), %rcx	# b_1->name, D.9185
	movq	-24(%rbp), %rax	# pfile, tmp66
	movq	%rcx, %rsi	# D.9185,
	movq	%rax, %rdi	# tmp66,
	call	cpp_lookup	#
	movq	%rax, -8(%rbp)	# tmp67, hp
	.loc 1 712 0
	movq	-8(%rbp), %rax	# hp, tmp68
	movzbl	21(%rax), %eax	# hp_6->flags, D.9186
	orl	$1, %eax	#, D.9186
	movl	%eax, %edx	# D.9186, D.9186
	movq	-8(%rbp), %rax	# hp, tmp69
	movb	%dl, 21(%rax)	# D.9186, hp_6->flags
	.loc 1 713 0
	movq	-16(%rbp), %rax	# b, tmp70
	movl	12(%rax), %edx	# b_1->value, D.9187
	movq	-8(%rbp), %rax	# hp, tmp71
	movl	%edx, 24(%rax)	# D.9187, hp_6->value.operator
.LBE3:
	.loc 1 709 0
	addq	$16, -16(%rbp)	#, b
.L76:
	.loc 1 707 0 discriminator 1
	cmpq	$operator_array+176, -16(%rbp)	#, b
	jb	.L77	#,
	.loc 1 715 0
	leave
	.cfi_def_cfa 7, 8
	ret
	.cfi_endproc
.LFE17:
	.size	mark_named_operators, .-mark_named_operators
	.section	.rodata
.LC36:
	.string	"%s \"%s\"\n"
.LC37:
	.string	"%s %s\n"
.LC38:
	.string	"__cplusplus 1"
.LC39:
	.string	"__GXX_WEAK__ 1"
.LC40:
	.string	"__OBJC__ 1"
.LC41:
	.string	"__STDC_VERSION__ 199409L"
.LC42:
	.string	"__STDC_VERSION__ 199901L"
.LC43:
	.string	"__CHAR_UNSIGNED__ 1"
.LC44:
	.string	"__STRICT_ANSI__ 1"
.LC45:
	.string	"__ASSEMBLER__ 1"
	.text
	.type	init_builtins, @function
init_builtins:
.LFB18:
	.loc 1 722 0
	.cfi_startproc
	pushq	%rbp	#
	.cfi_def_cfa_offset 16
	.cfi_offset 6, -16
	movq	%rsp, %rbp	#,
	.cfi_def_cfa_register 6
	pushq	%rbx	#
	subq	$56, %rsp	#,
	.cfi_offset 3, -24
	movq	%rdi, -56(%rbp)	# pfile, pfile
	.loc 1 725 0
	movq	$builtin_array, -48(%rbp)	#, b
	jmp	.L79	#
.L86:
	.loc 1 727 0
	movq	-48(%rbp), %rax	# b, tmp98
	movzwl	18(%rax), %eax	# b_1->flags, D.9188
	movzwl	%ax, %eax	# D.9188, D.9189
	andl	$8, %eax	#, D.9189
	testl	%eax, %eax	# D.9189
	je	.L80	#,
.LBB4:
	.loc 1 729 0
	movq	-48(%rbp), %rax	# b, tmp99
	movzwl	20(%rax), %eax	# b_1->len, D.9188
	movzwl	%ax, %edx	# D.9188, D.9190
	movq	-48(%rbp), %rax	# b, tmp100
	movq	(%rax), %rcx	# b_1->name, D.9191
	movq	-56(%rbp), %rax	# pfile, tmp101
	movq	%rcx, %rsi	# D.9191,
	movq	%rax, %rdi	# tmp101,
	call	cpp_lookup	#
	movq	%rax, -24(%rbp)	# tmp102, hp
	.loc 1 730 0
	movq	-24(%rbp), %rax	# hp, tmp103
	movb	$1, 20(%rax)	#, hp_12->type
	.loc 1 731 0
	movq	-24(%rbp), %rax	# hp, tmp104
	movzbl	21(%rax), %eax	# hp_12->flags, D.9192
	orl	$20, %eax	#, D.9192
	movl	%eax, %edx	# D.9192, D.9192
	movq	-24(%rbp), %rax	# hp, tmp105
	movb	%dl, 21(%rax)	# D.9192, hp_12->flags
	.loc 1 732 0
	movq	-48(%rbp), %rax	# b, tmp106
	movzbl	16(%rax), %eax	# b_1->builtin, D.9192
	movzbl	%al, %edx	# D.9192, D.9193
	movq	-24(%rbp), %rax	# hp, tmp107
	movl	%edx, 24(%rax)	# D.9193, hp_12->value.builtin
.LBE4:
	jmp	.L81	#
.L80:
.LBB5:
	.loc 1 739 0
	movq	-48(%rbp), %rax	# b, tmp108
	movzwl	18(%rax), %eax	# b_1->flags, D.9188
	movzwl	%ax, %eax	# D.9188, D.9189
	andl	$1, %eax	#, D.9189
	testl	%eax, %eax	# D.9189
	je	.L82	#,
	.loc 1 742 0
	movq	-48(%rbp), %rax	# b, tmp109
	movzwl	20(%rax), %eax	# b_1->len, D.9188
	movzwl	%ax, %ebx	# D.9188, D.9194
	movq	version_string(%rip), %rax	# version_string, version_string.11
	movq	%rax, %rdi	# version_string.11,
	call	strlen	#
	addq	%rbx, %rax	# D.9194, D.9194
	addq	$5, %rax	#, D.9194
	leaq	15(%rax), %rdx	#, tmp110
	movl	$16, %eax	#, tmp163
	subq	$1, %rax	#, tmp111
	addq	%rdx, %rax	# tmp110, tmp112
	movl	$16, %ebx	#, tmp164
	movl	$0, %edx	#, tmp115
	divq	%rbx	# tmp164
	imulq	$16, %rax, %rax	#, tmp114, tmp116
	subq	%rax, %rsp	# tmp116,
	movq	%rsp, %rax	#, tmp117
	addq	$15, %rax	#, tmp118
	shrq	$4, %rax	#, tmp119
	salq	$4, %rax	#, tmp120
	movq	%rax, -32(%rbp)	# tmp120, str
	.loc 1 743 0
	movq	version_string(%rip), %rcx	# version_string, version_string.12
	movq	-48(%rbp), %rax	# b, tmp121
	movq	(%rax), %rdx	# b_1->name, D.9191
	movq	-32(%rbp), %rax	# str, tmp122
	movl	$.LC36, %esi	#,
	movq	%rax, %rdi	# tmp122,
	movl	$0, %eax	#,
	call	sprintf	#
	jmp	.L83	#
.L82:
	.loc 1 747 0
	movq	-48(%rbp), %rax	# b, tmp123
	movzwl	18(%rax), %eax	# b_1->flags, D.9188
	movzwl	%ax, %eax	# D.9188, D.9189
	andl	$2, %eax	#, D.9189
	testl	%eax, %eax	# D.9189
	je	.L84	#,
	.loc 1 748 0
	movq	-56(%rbp), %rax	# pfile, tmp124
	movq	728(%rax), %rax	# pfile_11(D)->opts.user_label_prefix, tmp125
	movq	%rax, -40(%rbp)	# tmp125, val
	jmp	.L85	#
.L84:
	.loc 1 750 0
	movq	-48(%rbp), %rax	# b, tmp126
	movq	8(%rax), %rax	# b_1->value, tmp127
	movq	%rax, -40(%rbp)	# tmp127, val
.L85:
	.loc 1 753 0
	movq	-48(%rbp), %rax	# b, tmp128
	movzwl	20(%rax), %eax	# b_1->len, D.9188
	movzwl	%ax, %ebx	# D.9188, D.9194
	movq	-40(%rbp), %rax	# val, tmp129
	movq	%rax, %rdi	# tmp129,
	call	strlen	#
	addq	%rbx, %rax	# D.9194, D.9194
	addq	$3, %rax	#, D.9194
	leaq	15(%rax), %rdx	#, tmp130
	movl	$16, %eax	#, tmp165
	subq	$1, %rax	#, tmp131
	addq	%rdx, %rax	# tmp130, tmp132
	movl	$16, %ebx	#, tmp166
	movl	$0, %edx	#, tmp135
	divq	%rbx	# tmp166
	imulq	$16, %rax, %rax	#, tmp134, tmp136
	subq	%rax, %rsp	# tmp136,
	movq	%rsp, %rax	#, tmp137
	addq	$15, %rax	#, tmp138
	shrq	$4, %rax	#, tmp139
	salq	$4, %rax	#, tmp140
	movq	%rax, -32(%rbp)	# tmp140, str
	.loc 1 754 0
	movq	-48(%rbp), %rax	# b, tmp141
	movq	(%rax), %rdx	# b_1->name, D.9191
	movq	-40(%rbp), %rcx	# val, tmp142
	movq	-32(%rbp), %rax	# str, tmp143
	movl	$.LC37, %esi	#,
	movq	%rax, %rdi	# tmp143,
	movl	$0, %eax	#,
	call	sprintf	#
.L83:
	.loc 1 757 0
	movq	-32(%rbp), %rdx	# str, tmp144
	movq	-56(%rbp), %rax	# pfile, tmp145
	movq	%rdx, %rsi	# tmp144,
	movq	%rax, %rdi	# tmp145,
	call	_cpp_define_builtin	#
.L81:
.LBE5:
	.loc 1 725 0
	addq	$24, -48(%rbp)	#, b
.L79:
	.loc 1 725 0 is_stmt 0 discriminator 1
	cmpq	$builtin_array+336, -48(%rbp)	#, b
	jb	.L86	#,
	.loc 1 761 0 is_stmt 1
	movq	-56(%rbp), %rax	# pfile, tmp146
	movzbl	742(%rax), %eax	# pfile_11(D)->opts.cplusplus, D.9192
	testb	%al, %al	# D.9192
	je	.L87	#,
	.loc 1 763 0
	movq	-56(%rbp), %rax	# pfile, tmp147
	movl	$.LC38, %esi	#,
	movq	%rax, %rdi	# tmp147,
	call	_cpp_define_builtin	#
	.loc 1 765 0
	movq	-56(%rbp), %rax	# pfile, tmp148
	movl	$.LC39, %esi	#,
	movq	%rax, %rdi	# tmp148,
	call	_cpp_define_builtin	#
.L87:
	.loc 1 769 0
	movq	-56(%rbp), %rax	# pfile, tmp149
	movzbl	744(%rax), %eax	# pfile_11(D)->opts.objc, D.9192
	testb	%al, %al	# D.9192
	je	.L88	#,
	.loc 1 770 0
	movq	-56(%rbp), %rax	# pfile, tmp150
	movl	$.LC40, %esi	#,
	movq	%rax, %rdi	# tmp150,
	call	_cpp_define_builtin	#
.L88:
	.loc 1 772 0
	movq	-56(%rbp), %rax	# pfile, tmp151
	movl	736(%rax), %eax	# pfile_11(D)->opts.lang, D.9195
	cmpl	$3, %eax	#, D.9195
	jne	.L89	#,
	.loc 1 773 0
	movq	-56(%rbp), %rax	# pfile, tmp152
	movl	$.LC41, %esi	#,
	movq	%rax, %rdi	# tmp152,
	call	_cpp_define_builtin	#
	jmp	.L90	#
.L89:
	.loc 1 774 0
	movq	-56(%rbp), %rax	# pfile, tmp153
	movzbl	769(%rax), %eax	# pfile_11(D)->opts.c99, D.9192
	testb	%al, %al	# D.9192
	je	.L90	#,
	.loc 1 775 0
	movq	-56(%rbp), %rax	# pfile, tmp154
	movl	$.LC42, %esi	#,
	movq	%rax, %rdi	# tmp154,
	call	_cpp_define_builtin	#
.L90:
	.loc 1 777 0
	movq	-56(%rbp), %rax	# pfile, tmp155
	movzbl	741(%rax), %eax	# pfile_11(D)->opts.signed_char, D.9192
	testb	%al, %al	# D.9192
	jne	.L91	#,
	.loc 1 778 0
	movq	-56(%rbp), %rax	# pfile, tmp156
	movl	$.LC43, %esi	#,
	movq	%rax, %rdi	# tmp156,
	call	_cpp_define_builtin	#
.L91:
	.loc 1 780 0
	movq	-56(%rbp), %rax	# pfile, tmp157
	movl	736(%rax), %eax	# pfile_11(D)->opts.lang, D.9195
	cmpl	$2, %eax	#, D.9195
	je	.L92	#,
	.loc 1 781 0
	movq	-56(%rbp), %rax	# pfile, tmp158
	movl	736(%rax), %eax	# pfile_11(D)->opts.lang, D.9195
	cmpl	$3, %eax	#, D.9195
	je	.L92	#,
	.loc 1 782 0
	movq	-56(%rbp), %rax	# pfile, tmp159
	movl	736(%rax), %eax	# pfile_11(D)->opts.lang, D.9195
	cmpl	$4, %eax	#, D.9195
	jne	.L93	#,
.L92:
	.loc 1 783 0
	movq	-56(%rbp), %rax	# pfile, tmp160
	movl	$.LC44, %esi	#,
	movq	%rax, %rdi	# tmp160,
	call	_cpp_define_builtin	#
	jmp	.L78	#
.L93:
	.loc 1 784 0
	movq	-56(%rbp), %rax	# pfile, tmp161
	movl	736(%rax), %eax	# pfile_11(D)->opts.lang, D.9195
	cmpl	$9, %eax	#, D.9195
	jne	.L78	#,
	.loc 1 785 0
	movq	-56(%rbp), %rax	# pfile, tmp162
	movl	$.LC45, %esi	#,
	movq	%rax, %rdi	# tmp162,
	call	_cpp_define_builtin	#
.L78:
	.loc 1 786 0
	movq	-8(%rbp), %rbx	#,
	leave
	.cfi_def_cfa 7, 8
	ret
	.cfi_endproc
.LFE18:
	.size	init_builtins, .-init_builtins
	.section	.rodata
.LC46:
	.string	"CPATH"
.LC47:
	.string	"C_INCLUDE_PATH"
.LC48:
	.string	"CPLUS_INCLUDE_PATH"
.LC49:
	.string	"OBJC_INCLUDE_PATH"
.LC50:
	.string	"OBJCPLUS_INCLUDE_PATH"
	.text
	.type	init_standard_includes, @function
init_standard_includes:
.LFB19:
	.loc 1 797 0
	.cfi_startproc
	pushq	%rbp	#
	.cfi_def_cfa_offset 16
	.cfi_offset 6, -16
	movq	%rsp, %rbp	#,
	.cfi_def_cfa_register 6
	pushq	%rbx	#
	subq	$88, %rsp	#,
	.cfi_offset 3, -24
	movq	%rdi, -88(%rbp)	# pfile, pfile
	.loc 1 800 0
	movq	-88(%rbp), %rax	# pfile, tmp104
	movq	712(%rax), %rax	# pfile_4(D)->opts.include_prefix, tmp105
	movq	%rax, -48(%rbp)	# tmp105, specd_prefix
	.loc 1 808 0
	movl	$.LC46, %edi	#,
	call	getenv	#
	movq	%rax, -64(%rbp)	# tmp106, path
	.loc 1 809 0
	cmpq	$0, -64(%rbp)	#, path
	je	.L96	#,
	.loc 1 809 0 is_stmt 0 discriminator 1
	movq	-64(%rbp), %rax	# path, tmp107
	movzbl	(%rax), %eax	# *path_6, D.9207
	testb	%al, %al	# D.9207
	je	.L96	#,
	.loc 1 810 0 is_stmt 1
	movq	-64(%rbp), %rcx	# path, tmp108
	movq	-88(%rbp), %rax	# pfile, tmp109
	movl	$0, %edx	#,
	movq	%rcx, %rsi	# tmp108,
	movq	%rax, %rdi	# tmp109,
	call	path_include	#
.L96:
	.loc 1 812 0
	movq	-88(%rbp), %rax	# pfile, tmp110
	movzbl	744(%rax), %eax	# pfile_4(D)->opts.objc, D.9208
	movzbl	%al, %eax	# D.9208, D.9209
	leal	(%rax,%rax), %edx	#, D.9209
	movq	-88(%rbp), %rax	# pfile, tmp111
	movzbl	742(%rax), %eax	# pfile_4(D)->opts.cplusplus, D.9208
	movzbl	%al, %eax	# D.9208, D.9209
	addl	%edx, %eax	# D.9209, D.9209
	cmpl	$1, %eax	#, D.9209
	je	.L98	#,
	cmpl	$1, %eax	#, D.9209
	jg	.L99	#,
	testl	%eax, %eax	# D.9209
	je	.L100	#,
	jmp	.L97	#
.L99:
	cmpl	$2, %eax	#, D.9209
	je	.L101	#,
	cmpl	$3, %eax	#, D.9209
	je	.L102	#,
	jmp	.L97	#
.L100:
	.loc 1 815 0
	movl	$.LC47, %edi	#,
	call	getenv	#
	movq	%rax, -64(%rbp)	# tmp112, path
	.loc 1 816 0
	jmp	.L97	#
.L98:
	.loc 1 818 0
	movl	$.LC48, %edi	#,
	call	getenv	#
	movq	%rax, -64(%rbp)	# tmp113, path
	.loc 1 819 0
	jmp	.L97	#
.L101:
	.loc 1 821 0
	movl	$.LC49, %edi	#,
	call	getenv	#
	movq	%rax, -64(%rbp)	# tmp114, path
	.loc 1 822 0
	jmp	.L97	#
.L102:
	.loc 1 824 0
	movl	$.LC50, %edi	#,
	call	getenv	#
	movq	%rax, -64(%rbp)	# tmp115, path
	.loc 1 825 0
	nop
.L97:
	.loc 1 827 0
	cmpq	$0, -64(%rbp)	#, path
	je	.L103	#,
	.loc 1 827 0 is_stmt 0 discriminator 1
	movq	-64(%rbp), %rax	# path, tmp116
	movzbl	(%rax), %eax	# *path_1, D.9207
	testb	%al, %al	# D.9207
	je	.L103	#,
	.loc 1 828 0 is_stmt 1
	movq	-64(%rbp), %rcx	# path, tmp117
	movq	-88(%rbp), %rax	# pfile, tmp118
	movl	$1, %edx	#,
	movq	%rcx, %rsi	# tmp117,
	movq	%rax, %rdi	# tmp118,
	call	path_include	#
.L103:
	.loc 1 832 0
	cmpq	$0, -48(%rbp)	#, specd_prefix
	je	.L104	#,
	.loc 1 832 0 is_stmt 0 discriminator 1
	movq	cpp_GCC_INCLUDE_DIR_len(%rip), %rax	# cpp_GCC_INCLUDE_DIR_len, cpp_GCC_INCLUDE_DIR_len.13
	testq	%rax, %rax	# cpp_GCC_INCLUDE_DIR_len.13
	je	.L104	#,
.LBB6:
	.loc 1 836 0 is_stmt 1
	movq	cpp_GCC_INCLUDE_DIR_len(%rip), %rax	# cpp_GCC_INCLUDE_DIR_len, cpp_GCC_INCLUDE_DIR_len.14
	movl	%eax, -80(%rbp)	# cpp_GCC_INCLUDE_DIR_len.14, default_len
	.loc 1 837 0
	movl	-80(%rbp), %eax	# default_len, tmp119
	addl	$1, %eax	#, D.9209
	cltq
	leaq	15(%rax), %rdx	#, tmp120
	movl	$16, %eax	#, tmp172
	subq	$1, %rax	#, tmp121
	addq	%rdx, %rax	# tmp120, tmp122
	movl	$16, %ebx	#, tmp173
	movl	$0, %edx	#, tmp125
	divq	%rbx	# tmp173
	imulq	$16, %rax, %rax	#, tmp124, tmp126
	subq	%rax, %rsp	# tmp126,
	movq	%rsp, %rax	#, tmp127
	addq	$15, %rax	#, tmp128
	shrq	$4, %rax	#, tmp129
	salq	$4, %rax	#, tmp130
	movq	%rax, -40(%rbp)	# tmp130, default_prefix
	.loc 1 838 0
	movq	-48(%rbp), %rax	# specd_prefix, tmp131
	movq	%rax, %rdi	# tmp131,
	call	strlen	#
	movl	%eax, -76(%rbp)	# D.9210, specd_len
	.loc 1 840 0
	movl	-80(%rbp), %eax	# default_len, tmp132
	movslq	%eax, %rdx	# tmp132, D.9210
	movq	-40(%rbp), %rax	# default_prefix, tmp133
	movl	$cpp_GCC_INCLUDE_DIR, %esi	#,
	movq	%rax, %rdi	# tmp133,
	call	memcpy	#
	.loc 1 841 0
	movl	-80(%rbp), %eax	# default_len, tmp134
	movslq	%eax, %rdx	# tmp134, D.9211
	movq	-40(%rbp), %rax	# default_prefix, tmp135
	addq	%rdx, %rax	# D.9211, D.9212
	movb	$0, (%rax)	#, *_29
	.loc 1 843 0
	movq	$cpp_include_defaults, -56(%rbp)	#, p
	jmp	.L105	#
.L108:
	.loc 1 846 0
	movq	-56(%rbp), %rax	# p, tmp136
	movl	16(%rax), %eax	# p_2->cplusplus, D.9209
	testl	%eax, %eax	# D.9209
	je	.L106	#,
	.loc 1 847 0
	movq	-88(%rbp), %rax	# pfile, tmp137
	movzbl	742(%rax), %eax	# pfile_4(D)->opts.cplusplus, D.9208
	testb	%al, %al	# D.9208
	je	.L107	#,
	.loc 1 848 0
	movq	-88(%rbp), %rax	# pfile, tmp138
	movzbl	773(%rax), %eax	# pfile_4(D)->opts.no_standard_cplusplus_includes, D.9208
	testb	%al, %al	# D.9208
	jne	.L107	#,
.L106:
	.loc 1 851 0
	movl	-80(%rbp), %eax	# default_len, tmp139
	movslq	%eax, %rdx	# tmp139, D.9210
	movq	-56(%rbp), %rax	# p, tmp140
	movq	(%rax), %rax	# p_2->fname, D.9213
	movq	-40(%rbp), %rcx	# default_prefix, tmp141
	movq	%rcx, %rsi	# tmp141,
	movq	%rax, %rdi	# D.9213,
	call	memcmp	#
	testl	%eax, %eax	# D.9209
	jne	.L107	#,
.LBB7:
	.loc 1 854 0
	movq	-56(%rbp), %rax	# p, tmp142
	movq	(%rax), %rax	# p_2->fname, D.9213
	movq	%rax, %rdi	# D.9213,
	call	strlen	#
	movl	%eax, -72(%rbp)	# D.9210, flen
	.loc 1 855 0
	movl	-72(%rbp), %eax	# flen, tmp143
	movl	-76(%rbp), %edx	# specd_len, tmp144
	addl	%edx, %eax	# tmp144, D.9209
	subl	-80(%rbp), %eax	# default_len, tmp146
	movl	%eax, -68(%rbp)	# tmp146, this_len
	.loc 1 856 0
	movl	-68(%rbp), %eax	# this_len, tmp147
	addl	$1, %eax	#, D.9209
	cltq
	movq	%rax, %rdi	# D.9210,
	call	xmalloc	#
	movq	%rax, -32(%rbp)	# tmp148, str
	.loc 1 857 0
	movl	-76(%rbp), %eax	# specd_len, tmp149
	movslq	%eax, %rdx	# tmp149, D.9210
	movq	-48(%rbp), %rcx	# specd_prefix, tmp150
	movq	-32(%rbp), %rax	# str, tmp151
	movq	%rcx, %rsi	# tmp150,
	movq	%rax, %rdi	# tmp151,
	call	memcpy	#
	.loc 1 860 0
	movl	-80(%rbp), %eax	# default_len, tmp152
	movl	-72(%rbp), %edx	# flen, tmp153
	subl	%eax, %edx	# tmp152, D.9209
	movl	%edx, %eax	# D.9209, D.9209
	addl	$1, %eax	#, D.9209
	.loc 1 858 0
	cltq
	.loc 1 859 0
	movq	-56(%rbp), %rdx	# p, tmp154
	movq	(%rdx), %rcx	# p_2->fname, D.9213
	.loc 1 858 0
	movl	-80(%rbp), %edx	# default_len, tmp155
	movslq	%edx, %rdx	# tmp155, D.9211
	.loc 1 859 0
	leaq	(%rcx,%rdx), %rsi	#, D.9213
	.loc 1 858 0
	movl	-76(%rbp), %edx	# specd_len, tmp156
	movslq	%edx, %rcx	# tmp156, D.9211
	movq	-32(%rbp), %rdx	# str, tmp157
	addq	%rdx, %rcx	# tmp157, D.9212
	movq	%rax, %rdx	# D.9210,
	movq	%rcx, %rdi	# D.9212,
	call	memcpy	#
	.loc 1 862 0
	movq	-56(%rbp), %rax	# p, tmp158
	movl	20(%rax), %edx	# p_2->cxx_aware, D.9209
	movq	-32(%rbp), %rsi	# str, tmp159
	movq	-88(%rbp), %rax	# pfile, tmp160
	movl	%edx, %ecx	# D.9209,
	movl	$1, %edx	#,
	movq	%rax, %rdi	# tmp160,
	call	append_include_chain	#
.L107:
.LBE7:
	.loc 1 843 0
	addq	$24, -56(%rbp)	#, p
.L105:
	.loc 1 843 0 is_stmt 0 discriminator 1
	movq	-56(%rbp), %rax	# p, tmp161
	movq	(%rax), %rax	# p_2->fname, D.9213
	testq	%rax, %rax	# D.9213
	jne	.L108	#,
.L104:
.LBE6:
	.loc 1 869 0 is_stmt 1
	movq	$cpp_include_defaults, -56(%rbp)	#, p
	jmp	.L109	#
.L112:
	.loc 1 872 0
	movq	-56(%rbp), %rax	# p, tmp162
	movl	16(%rax), %eax	# p_3->cplusplus, D.9209
	testl	%eax, %eax	# D.9209
	je	.L110	#,
	.loc 1 873 0
	movq	-88(%rbp), %rax	# pfile, tmp163
	movzbl	742(%rax), %eax	# pfile_4(D)->opts.cplusplus, D.9208
	testb	%al, %al	# D.9208
	je	.L111	#,
	.loc 1 874 0
	movq	-88(%rbp), %rax	# pfile, tmp164
	movzbl	773(%rax), %eax	# pfile_4(D)->opts.no_standard_cplusplus_includes, D.9208
	testb	%al, %al	# D.9208
	jne	.L111	#,
.L110:
.LBB8:
	.loc 1 876 0
	movq	-56(%rbp), %rax	# p, tmp165
	movq	8(%rax), %rdx	# p_3->component, D.9213
	movq	-56(%rbp), %rax	# p, tmp166
	movq	(%rax), %rax	# p_3->fname, D.9213
	movq	%rdx, %rsi	# D.9213,
	movq	%rax, %rdi	# D.9213,
	call	update_path	#
	movq	%rax, -24(%rbp)	# tmp167, str
	.loc 1 877 0
	movq	-56(%rbp), %rax	# p, tmp168
	movl	20(%rax), %edx	# p_3->cxx_aware, D.9209
	movq	-24(%rbp), %rsi	# str, tmp169
	movq	-88(%rbp), %rax	# pfile, tmp170
	movl	%edx, %ecx	# D.9209,
	movl	$1, %edx	#,
	movq	%rax, %rdi	# tmp170,
	call	append_include_chain	#
.L111:
.LBE8:
	.loc 1 869 0
	addq	$24, -56(%rbp)	#, p
.L109:
	.loc 1 869 0 is_stmt 0 discriminator 1
	movq	-56(%rbp), %rax	# p, tmp171
	movq	(%rax), %rax	# p_3->fname, D.9213
	testq	%rax, %rax	# D.9213
	jne	.L112	#,
	.loc 1 880 0 is_stmt 1
	movq	-8(%rbp), %rbx	#,
	leave
	.cfi_def_cfa 7, 8
	ret
	.cfi_endproc
.LFE19:
	.size	init_standard_includes, .-init_standard_includes
	.type	push_include, @function
push_include:
.LFB20:
	.loc 1 888 0
	.cfi_startproc
	pushq	%rbp	#
	.cfi_def_cfa_offset 16
	.cfi_offset 6, -16
	movq	%rsp, %rbp	#,
	.cfi_def_cfa_register 6
	subq	$48, %rsp	#,
	movq	%rdi, -40(%rbp)	# pfile, pfile
	movq	%rsi, -48(%rbp)	# p, p
	.loc 1 893 0
	movb	$61, -26(%rbp)	#, header.type
	.loc 1 894 0
	movq	-48(%rbp), %rax	# p, tmp67
	movq	8(%rax), %rax	# p_1(D)->arg, D.9220
	movq	%rax, -16(%rbp)	# D.9220, header.val.str.text
	.loc 1 895 0
	movq	-48(%rbp), %rax	# p, tmp68
	movq	8(%rax), %rax	# p_1(D)->arg, D.9220
	movq	%rax, %rdi	# D.9220,
	call	strlen	#
	movl	%eax, -24(%rbp)	# D.9222, header.val.str.len
	.loc 1 897 0
	movq	-40(%rbp), %rax	# pfile, tmp69
	movl	64(%rax), %eax	# pfile_6(D)->line, D.9222
	leal	1(%rax), %edx	#, D.9222
	movq	-40(%rbp), %rax	# pfile, tmp70
	movl	%edx, 64(%rax)	# D.9222, pfile_6(D)->line
	.loc 1 899 0
	leaq	-32(%rbp), %rcx	#, tmp71
	movq	-40(%rbp), %rax	# pfile, tmp72
	movl	$3, %edx	#,
	movq	%rcx, %rsi	# tmp71,
	movq	%rax, %rdi	# tmp72,
	call	_cpp_execute_include	#
	.loc 1 900 0
	leave
	.cfi_def_cfa 7, 8
	ret
	.cfi_endproc
.LFE20:
	.size	push_include, .-push_include
	.type	free_chain, @function
free_chain:
.LFB21:
	.loc 1 906 0
	.cfi_startproc
	pushq	%rbp	#
	.cfi_def_cfa_offset 16
	.cfi_offset 6, -16
	movq	%rsp, %rbp	#,
	.cfi_def_cfa_register 6
	subq	$32, %rsp	#,
	movq	%rdi, -24(%rbp)	# head, head
	.loc 1 909 0
	jmp	.L116	#
.L117:
	.loc 1 911 0
	movq	-24(%rbp), %rax	# head, tmp59
	movq	(%rax), %rax	# head_1->next, tmp60
	movq	%rax, -8(%rbp)	# tmp60, next
	.loc 1 912 0
	movq	-24(%rbp), %rax	# head, tmp61
	movq	%rax, %rdi	# tmp61,
	call	free	#
	.loc 1 913 0
	movq	-8(%rbp), %rax	# next, tmp62
	movq	%rax, -24(%rbp)	# tmp62, head
.L116:
	.loc 1 909 0 discriminator 1
	cmpq	$0, -24(%rbp)	#, head
	jne	.L117	#,
	.loc 1 915 0
	leave
	.cfi_def_cfa 7, 8
	ret
	.cfi_endproc
.LFE21:
	.size	free_chain, .-free_chain
	.section	.rodata
	.align 8
.LC51:
	.string	"#include \"...\" search starts here:\n"
	.align 8
.LC52:
	.string	"#include <...> search starts here:\n"
.LC53:
	.string	" %s\n"
.LC54:
	.string	"End of search list.\n"
	.text
	.globl	cpp_read_main_file
	.type	cpp_read_main_file, @function
cpp_read_main_file:
.LFB22:
	.loc 1 926 0
	.cfi_startproc
	pushq	%rbp	#
	.cfi_def_cfa_offset 16
	.cfi_offset 6, -16
	movq	%rsp, %rbp	#,
	.cfi_def_cfa_register 6
	subq	$48, %rsp	#,
	movq	%rdi, -24(%rbp)	# pfile, pfile
	movq	%rsi, -32(%rbp)	# fname, fname
	movq	%rdx, -40(%rbp)	# table, table
	.loc 1 930 0
	movq	-40(%rbp), %rdx	# table, tmp77
	movq	-24(%rbp), %rax	# pfile, tmp78
	movq	%rdx, %rsi	# tmp77,
	movq	%rax, %rdi	# tmp78,
	call	_cpp_init_hashtable	#
	.loc 1 933 0
	movq	-24(%rbp), %rax	# pfile, tmp79
	movzbl	772(%rax), %eax	# pfile_3(D)->opts.no_standard_includes, D.9225
	testb	%al, %al	# D.9225
	jne	.L119	#,
	.loc 1 934 0
	movq	-24(%rbp), %rax	# pfile, tmp80
	movq	%rax, %rdi	# tmp80,
	call	init_standard_includes	#
.L119:
	.loc 1 936 0
	movq	-24(%rbp), %rax	# pfile, tmp81
	movq	%rax, %rdi	# tmp81,
	call	merge_include_chains	#
	.loc 1 939 0
	movq	-24(%rbp), %rax	# pfile, tmp82
	movzbl	740(%rax), %eax	# pfile_3(D)->opts.verbose, D.9225
	testb	%al, %al	# D.9225
	je	.L120	#,
.LBB9:
	.loc 1 942 0
	movq	stderr(%rip), %rax	# stderr, stderr.15
	movq	%rax, %rcx	# stderr.15,
	movl	$35, %edx	#,
	movl	$1, %esi	#,
	movl	$.LC51, %edi	#,
	call	fwrite	#
	.loc 1 943 0
	movq	-24(%rbp), %rax	# pfile, tmp83
	movq	688(%rax), %rax	# pfile_3(D)->opts.quote_include, tmp84
	movq	%rax, -8(%rbp)	# tmp84, l
	jmp	.L121	#
.L123:
	.loc 1 945 0
	movq	-24(%rbp), %rax	# pfile, tmp85
	movq	696(%rax), %rax	# pfile_3(D)->opts.bracket_include, D.9226
	cmpq	-8(%rbp), %rax	# l, D.9226
	jne	.L122	#,
	.loc 1 946 0
	movq	stderr(%rip), %rax	# stderr, stderr.16
	movq	%rax, %rcx	# stderr.16,
	movl	$35, %edx	#,
	movl	$1, %esi	#,
	movl	$.LC52, %edi	#,
	call	fwrite	#
.L122:
	.loc 1 947 0
	movq	-8(%rbp), %rax	# l, tmp86
	movq	8(%rax), %rdx	# l_1->name, D.9224
	movq	stderr(%rip), %rax	# stderr, stderr.17
	movl	$.LC53, %esi	#,
	movq	%rax, %rdi	# stderr.17,
	movl	$0, %eax	#,
	call	fprintf	#
	.loc 1 943 0
	movq	-8(%rbp), %rax	# l, tmp87
	movq	(%rax), %rax	# l_1->next, tmp88
	movq	%rax, -8(%rbp)	# tmp88, l
.L121:
	.loc 1 943 0 is_stmt 0 discriminator 1
	cmpq	$0, -8(%rbp)	#, l
	jne	.L123	#,
	.loc 1 949 0 is_stmt 1
	movq	stderr(%rip), %rax	# stderr, stderr.18
	movq	%rax, %rcx	# stderr.18,
	movl	$20, %edx	#,
	movl	$1, %esi	#,
	movl	$.LC54, %edi	#,
	call	fwrite	#
.L120:
.LBE9:
	.loc 1 952 0
	movq	-24(%rbp), %rax	# pfile, tmp89
	movzbl	749(%rax), %eax	# pfile_3(D)->opts.print_deps, D.9225
	testb	%al, %al	# D.9225
	je	.L124	#,
	.loc 1 954 0
	movq	-24(%rbp), %rax	# pfile, tmp90
	movq	392(%rax), %rax	# pfile_3(D)->deps, D.9227
	movq	-32(%rbp), %rdx	# fname, tmp91
	movq	%rdx, %rsi	# tmp91,
	movq	%rax, %rdi	# D.9227,
	call	deps_add_default_target	#
.L124:
	.loc 1 957 0
	movq	-32(%rbp), %rdx	# fname, tmp92
	movq	-24(%rbp), %rax	# pfile, tmp93
	movq	%rdx, %rsi	# tmp92,
	movq	%rax, %rdi	# tmp93,
	call	_cpp_read_file	#
	xorl	$1, %eax	#, D.9228
	testb	%al, %al	# D.9228
	je	.L125	#,
	.loc 1 958 0
	movl	$0, %eax	#, D.9224
	jmp	.L126	#
.L125:
	.loc 1 963 0
	movq	-24(%rbp), %rax	# pfile, tmp94
	movzbl	753(%rax), %eax	# pfile_3(D)->opts.print_include_names, D.9225
	testb	%al, %al	# D.9225
	setne	%dl	#, D.9228
	movq	-24(%rbp), %rax	# pfile, tmp95
	movb	%dl, 48(%rax)	# D.9228, pfile_3(D)->line_maps.trace_includes
	.loc 1 967 0
	movq	-24(%rbp), %rax	# pfile, tmp96
	movzbl	771(%rax), %eax	# pfile_3(D)->opts.preprocessed, D.9225
	testb	%al, %al	# D.9225
	je	.L127	#,
	.loc 1 968 0
	movq	-24(%rbp), %rax	# pfile, tmp97
	movq	%rax, %rdi	# tmp97,
	call	read_original_filename	#
.L127:
	.loc 1 970 0
	movq	-24(%rbp), %rax	# pfile, tmp98
	movq	56(%rax), %rax	# pfile_3(D)->map, D.9229
	movq	(%rax), %rax	# _24->to_file, D.9224
.L126:
	.loc 1 971 0
	leave
	.cfi_def_cfa 7, 8
	ret
	.cfi_endproc
.LFE22:
	.size	cpp_read_main_file, .-cpp_read_main_file
	.type	read_original_filename, @function
read_original_filename:
.LFB23:
	.loc 1 980 0
	.cfi_startproc
	pushq	%rbp	#
	.cfi_def_cfa_offset 16
	.cfi_offset 6, -16
	movq	%rsp, %rbp	#,
	.cfi_def_cfa_register 6
	subq	$32, %rsp	#,
	movq	%rdi, -24(%rbp)	# pfile, pfile
	.loc 1 985 0
	movq	-24(%rbp), %rax	# pfile, tmp64
	movq	%rax, %rdi	# tmp64,
	call	_cpp_lex_direct	#
	movq	%rax, -16(%rbp)	# tmp65, token
	.loc 1 986 0
	movq	-16(%rbp), %rax	# token, tmp66
	movzbl	6(%rax), %eax	# token_2->type, D.9234
	cmpb	$40, %al	#, D.9234
	jne	.L129	#,
	.loc 1 988 0
	movq	-24(%rbp), %rax	# pfile, tmp67
	movq	%rax, %rdi	# tmp67,
	call	_cpp_lex_direct	#
	movq	%rax, -8(%rbp)	# tmp68, token1
	.loc 1 989 0
	movq	-24(%rbp), %rax	# pfile, tmp69
	movl	$1, %esi	#,
	movq	%rax, %rdi	# tmp69,
	call	_cpp_backup_tokens	#
	.loc 1 992 0
	movq	-8(%rbp), %rax	# token1, tmp70
	movzbl	6(%rax), %eax	# token1_4->type, D.9234
	cmpb	$57, %al	#, D.9234
	jne	.L129	#,
	.loc 1 994 0
	movq	-16(%rbp), %rax	# token, tmp71
	movzbl	7(%rax), %eax	# token_2->flags, D.9234
	movzbl	%al, %eax	# D.9234, D.9235
	andl	$1, %eax	#, D.9235
	movl	%eax, %edx	# D.9235, D.9235
	movq	-24(%rbp), %rax	# pfile, tmp72
	movl	%edx, %esi	# D.9235,
	movq	%rax, %rdi	# tmp72,
	call	_cpp_handle_directive	#
	.loc 1 995 0
	jmp	.L128	#
.L129:
	.loc 1 1000 0
	movq	-24(%rbp), %rax	# pfile, tmp73
	movl	$1, %esi	#,
	movq	%rax, %rdi	# tmp73,
	call	_cpp_backup_tokens	#
.L128:
	.loc 1 1001 0
	leave
	.cfi_def_cfa 7, 8
	ret
	.cfi_endproc
.LFE23:
	.size	read_original_filename, .-read_original_filename
	.section	.rodata
.LC55:
	.string	"<built-in>"
.LC56:
	.string	"<command line>"
	.text
	.globl	cpp_finish_options
	.type	cpp_finish_options, @function
cpp_finish_options:
.LFB24:
	.loc 1 1009 0
	.cfi_startproc
	pushq	%rbp	#
	.cfi_def_cfa_offset 16
	.cfi_offset 6, -16
	movq	%rsp, %rbp	#,
	.cfi_def_cfa_register 6
	subq	$32, %rsp	#,
	movq	%rdi, -24(%rbp)	# pfile, pfile
	.loc 1 1011 0
	movq	-24(%rbp), %rax	# pfile, tmp72
	movzbl	742(%rax), %eax	# pfile_2(D)->opts.cplusplus, D.9236
	testb	%al, %al	# D.9236
	je	.L132	#,
	.loc 1 1011 0 is_stmt 0 discriminator 1
	movq	-24(%rbp), %rax	# pfile, tmp73
	movzbl	777(%rax), %eax	# pfile_2(D)->opts.operator_names, D.9236
	testb	%al, %al	# D.9236
	je	.L132	#,
	.loc 1 1012 0 is_stmt 1
	movq	-24(%rbp), %rax	# pfile, tmp74
	movq	%rax, %rdi	# tmp74,
	call	mark_named_operators	#
.L132:
	.loc 1 1016 0
	movq	-24(%rbp), %rax	# pfile, tmp75
	movzbl	771(%rax), %eax	# pfile_2(D)->opts.preprocessed, D.9236
	testb	%al, %al	# D.9236
	jne	.L133	#,
.LBB10:
	.loc 1 1020 0
	movq	-24(%rbp), %rax	# pfile, tmp76
	movl	$0, %r8d	#,
	movl	$1, %ecx	#,
	movl	$.LC55, %edx	#,
	movl	$2, %esi	#,
	movq	%rax, %rdi	# tmp76,
	call	_cpp_do_file_change	#
	.loc 1 1021 0
	movq	-24(%rbp), %rax	# pfile, tmp77
	movq	%rax, %rdi	# tmp77,
	call	init_builtins	#
	.loc 1 1022 0
	movq	-24(%rbp), %rax	# pfile, tmp78
	movl	$0, %r8d	#,
	movl	$1, %ecx	#,
	movl	$.LC56, %edx	#,
	movl	$2, %esi	#,
	movq	%rax, %rdi	# tmp78,
	call	_cpp_do_file_change	#
	.loc 1 1023 0
	movq	-24(%rbp), %rax	# pfile, tmp79
	movq	672(%rax), %rax	# pfile_2(D)->opts.pending, D.9237
	movq	(%rax), %rax	# _6->directive_head, tmp80
	movq	%rax, -8(%rbp)	# tmp80, p
	jmp	.L134	#
.L135:
	.loc 1 1024 0 discriminator 2
	movq	-8(%rbp), %rax	# p, tmp81
	movq	16(%rax), %rax	# p_1->handler, D.9238
	movq	-8(%rbp), %rdx	# p, tmp82
	movq	8(%rdx), %rcx	# p_1->arg, D.9239
	movq	-24(%rbp), %rdx	# pfile, tmp83
	movq	%rcx, %rsi	# D.9239,
	movq	%rdx, %rdi	# tmp83,
	call	*%rax	# D.9238
	.loc 1 1023 0 discriminator 2
	movq	-8(%rbp), %rax	# p, tmp84
	movq	(%rax), %rax	# p_1->next, tmp85
	movq	%rax, -8(%rbp)	# tmp85, p
.L134:
	.loc 1 1023 0 is_stmt 0 discriminator 1
	cmpq	$0, -8(%rbp)	#, p
	jne	.L135	#,
	.loc 1 1028 0 is_stmt 1
	jmp	.L136	#
.L138:
	.loc 1 1030 0
	movq	-8(%rbp), %rdx	# p, tmp86
	movq	-24(%rbp), %rax	# pfile, tmp87
	movq	%rdx, %rsi	# tmp86,
	movq	%rax, %rdi	# tmp87,
	call	push_include	#
	testb	%al, %al	# D.9240
	je	.L137	#,
	.loc 1 1032 0
	movq	-24(%rbp), %rax	# pfile, tmp88
	movq	(%rax), %rax	# pfile_2(D)->buffer, D.9241
	movb	$1, 83(%rax)	#, _14->return_at_eof
	.loc 1 1033 0
	movq	-24(%rbp), %rax	# pfile, tmp89
	movq	%rax, %rdi	# tmp89,
	call	cpp_scan_nooutput	#
.L137:
	.loc 1 1035 0
	movq	-24(%rbp), %rax	# pfile, tmp90
	movq	672(%rax), %rax	# pfile_2(D)->opts.pending, D.9237
	movq	-8(%rbp), %rdx	# p, tmp91
	movq	(%rdx), %rdx	# p_12->next, D.9242
	movq	%rdx, 80(%rax)	# D.9242, _15->imacros_head
	.loc 1 1036 0
	movq	-8(%rbp), %rax	# p, tmp92
	movq	%rax, %rdi	# tmp92,
	call	free	#
.L136:
	.loc 1 1028 0 discriminator 1
	movq	-24(%rbp), %rax	# pfile, tmp93
	movq	672(%rax), %rax	# pfile_2(D)->opts.pending, D.9237
	movq	80(%rax), %rax	# _11->imacros_head, tmp94
	movq	%rax, -8(%rbp)	# tmp94, p
	cmpq	$0, -8(%rbp)	#, p
	jne	.L138	#,
.L133:
.LBE10:
	.loc 1 1040 0
	movq	-24(%rbp), %rax	# pfile, tmp95
	movq	672(%rax), %rax	# pfile_2(D)->opts.pending, D.9237
	movq	(%rax), %rax	# _17->directive_head, D.9242
	movq	%rax, %rdi	# D.9242,
	call	free_chain	#
	.loc 1 1041 0
	movq	-24(%rbp), %rax	# pfile, tmp96
	movq	%rax, %rdi	# tmp96,
	call	_cpp_push_next_buffer	#
	.loc 1 1042 0
	leave
	.cfi_def_cfa 7, 8
	ret
	.cfi_endproc
.LFE24:
	.size	cpp_finish_options, .-cpp_finish_options
	.globl	_cpp_push_next_buffer
	.type	_cpp_push_next_buffer, @function
_cpp_push_next_buffer:
.LFB25:
	.loc 1 1050 0
	.cfi_startproc
	pushq	%rbp	#
	.cfi_def_cfa_offset 16
	.cfi_offset 6, -16
	movq	%rsp, %rbp	#,
	.cfi_def_cfa_register 6
	subq	$32, %rsp	#,
	movq	%rdi, -24(%rbp)	# pfile, pfile
	.loc 1 1051 0
	movb	$0, -9(%rbp)	#, pushed
	.loc 1 1057 0
	movq	-24(%rbp), %rax	# pfile, tmp74
	movq	672(%rax), %rax	# pfile_5(D)->opts.pending, D.9245
	testq	%rax, %rax	# D.9245
	je	.L140	#,
	.loc 1 1058 0
	movq	-24(%rbp), %rax	# pfile, tmp75
	movq	672(%rax), %rax	# pfile_5(D)->opts.pending, D.9245
	movq	80(%rax), %rax	# _7->imacros_head, D.9246
	testq	%rax, %rax	# D.9246
	jne	.L140	#,
	.loc 1 1060 0
	jmp	.L141	#
.L145:
.LBB11:
	.loc 1 1062 0
	movq	-24(%rbp), %rax	# pfile, tmp76
	movq	672(%rax), %rax	# pfile_5(D)->opts.pending, D.9245
	movq	96(%rax), %rax	# _10->include_head, tmp77
	movq	%rax, -8(%rbp)	# tmp77, p
	.loc 1 1064 0
	cmpq	$0, -8(%rbp)	#, p
	jne	.L142	#,
	.loc 1 1065 0
	jmp	.L143	#
.L142:
	.loc 1 1066 0
	movq	-24(%rbp), %rax	# pfile, tmp78
	movzbl	771(%rax), %eax	# pfile_5(D)->opts.preprocessed, D.9248
	testb	%al, %al	# D.9248
	jne	.L144	#,
	.loc 1 1067 0
	movq	-8(%rbp), %rdx	# p, tmp79
	movq	-24(%rbp), %rax	# pfile, tmp80
	movq	%rdx, %rsi	# tmp79,
	movq	%rax, %rdi	# tmp80,
	call	push_include	#
	movb	%al, -9(%rbp)	# tmp81, pushed
.L144:
	.loc 1 1068 0
	movq	-24(%rbp), %rax	# pfile, tmp82
	movq	672(%rax), %rax	# pfile_5(D)->opts.pending, D.9245
	movq	-8(%rbp), %rdx	# p, tmp83
	movq	(%rdx), %rdx	# p_11->next, D.9246
	movq	%rdx, 96(%rax)	# D.9246, _14->include_head
	.loc 1 1069 0
	movq	-8(%rbp), %rax	# p, tmp84
	movq	%rax, %rdi	# tmp84,
	call	free	#
.L141:
.LBE11:
	.loc 1 1060 0 discriminator 1
	movzbl	-9(%rbp), %eax	# pushed, tmp85
	xorl	$1, %eax	#, D.9247
	testb	%al, %al	# D.9247
	jne	.L145	#,
.L143:
	.loc 1 1072 0
	movzbl	-9(%rbp), %eax	# pushed, tmp86
	xorl	$1, %eax	#, D.9247
	testb	%al, %al	# D.9247
	je	.L140	#,
	.loc 1 1074 0
	movq	-24(%rbp), %rax	# pfile, tmp87
	movq	672(%rax), %rax	# pfile_5(D)->opts.pending, D.9245
	movq	%rax, %rdi	# D.9245,
	call	free	#
	.loc 1 1075 0
	movq	-24(%rbp), %rax	# pfile, tmp88
	movq	$0, 672(%rax)	#, pfile_5(D)->opts.pending
	.loc 1 1078 0
	movq	-24(%rbp), %rax	# pfile, tmp89
	movzbl	771(%rax), %eax	# pfile_5(D)->opts.preprocessed, D.9248
	testb	%al, %al	# D.9248
	jne	.L140	#,
	.loc 1 1080 0
	movq	-24(%rbp), %rax	# pfile, tmp90
	movq	24(%rax), %rax	# pfile_5(D)->line_maps.maps, D.9249
	.loc 1 1079 0
	movq	(%rax), %rdx	# _19->to_file, D.9250
	movq	-24(%rbp), %rax	# pfile, tmp91
	movl	$0, %r8d	#,
	movl	$1, %ecx	#,
	movl	$2, %esi	#,
	movq	%rax, %rdi	# tmp91,
	call	_cpp_do_file_change	#
.L140:
	.loc 1 1084 0
	movzbl	-9(%rbp), %eax	# pushed, D.9247
	.loc 1 1085 0
	leave
	.cfi_def_cfa 7, 8
	ret
	.cfi_endproc
.LFE25:
	.size	_cpp_push_next_buffer, .-_cpp_push_next_buffer
	.section	.rodata
.LC57:
	.string	"a"
.LC58:
	.string	"w"
.LC59:
	.string	"I/O error on output"
	.text
	.type	output_deps, @function
output_deps:
.LFB26:
	.loc 1 1091 0
	.cfi_startproc
	pushq	%rbp	#
	.cfi_def_cfa_offset 16
	.cfi_offset 6, -16
	movq	%rsp, %rbp	#,
	.cfi_def_cfa_register 6
	subq	$32, %rsp	#,
	movq	%rdi, -24(%rbp)	# pfile, pfile
	.loc 1 1093 0
	movq	$0, -16(%rbp)	#, deps_stream
	.loc 1 1095 0
	movq	-24(%rbp), %rax	# pfile, tmp71
	movzbl	752(%rax), %eax	# pfile_4(D)->opts.print_deps_append, D.9251
	.loc 1 1094 0
	testb	%al, %al	# D.9251
	je	.L148	#,
	.loc 1 1094 0 is_stmt 0 discriminator 1
	movl	$.LC57, %eax	#, iftmp.19
	jmp	.L149	#
.L148:
	.loc 1 1094 0 discriminator 2
	movl	$.LC58, %eax	#, iftmp.19
.L149:
	.loc 1 1094 0 discriminator 3
	movq	%rax, -8(%rbp)	# iftmp.19, deps_mode
	.loc 1 1097 0 is_stmt 1 discriminator 3
	movq	-24(%rbp), %rax	# pfile, tmp72
	movq	680(%rax), %rax	# pfile_4(D)->opts.deps_file, D.9252
	movzbl	(%rax), %eax	# *_9, D.9253
	testb	%al, %al	# D.9253
	jne	.L150	#,
	.loc 1 1098 0
	movq	stdout(%rip), %rax	# stdout, tmp73
	movq	%rax, -16(%rbp)	# tmp73, deps_stream
	jmp	.L151	#
.L150:
	.loc 1 1101 0
	movq	-24(%rbp), %rax	# pfile, tmp74
	movq	680(%rax), %rax	# pfile_4(D)->opts.deps_file, D.9252
	movq	-8(%rbp), %rdx	# deps_mode, tmp75
	movq	%rdx, %rsi	# tmp75,
	movq	%rax, %rdi	# D.9252,
	call	fopen	#
	movq	%rax, -16(%rbp)	# tmp76, deps_stream
	.loc 1 1102 0
	cmpq	$0, -16(%rbp)	#, deps_stream
	jne	.L151	#,
	.loc 1 1104 0
	movq	-24(%rbp), %rax	# pfile, tmp77
	movq	680(%rax), %rdx	# pfile_4(D)->opts.deps_file, D.9252
	movq	-24(%rbp), %rax	# pfile, tmp78
	movq	%rdx, %rsi	# D.9252,
	movq	%rax, %rdi	# tmp78,
	call	cpp_notice_from_errno	#
	.loc 1 1105 0
	jmp	.L147	#
.L151:
	.loc 1 1109 0
	movq	-24(%rbp), %rax	# pfile, tmp79
	movq	392(%rax), %rax	# pfile_4(D)->deps, D.9254
	movq	-16(%rbp), %rcx	# deps_stream, tmp80
	movl	$72, %edx	#,
	movq	%rcx, %rsi	# tmp80,
	movq	%rax, %rdi	# D.9254,
	call	deps_write	#
	.loc 1 1111 0
	movq	-24(%rbp), %rax	# pfile, tmp81
	movzbl	750(%rax), %eax	# pfile_4(D)->opts.deps_phony_targets, D.9251
	testb	%al, %al	# D.9251
	je	.L153	#,
	.loc 1 1112 0
	movq	-24(%rbp), %rax	# pfile, tmp82
	movq	392(%rax), %rax	# pfile_4(D)->deps, D.9254
	movq	-16(%rbp), %rdx	# deps_stream, tmp83
	movq	%rdx, %rsi	# tmp83,
	movq	%rax, %rdi	# D.9254,
	call	deps_phony_targets	#
.L153:
	.loc 1 1115 0
	movq	stdout(%rip), %rax	# stdout, stdout.20
	cmpq	%rax, -16(%rbp)	# stdout.20, deps_stream
	je	.L147	#,
	.loc 1 1117 0
	movq	-16(%rbp), %rax	# deps_stream, tmp84
	movq	%rax, %rdi	# tmp84,
	call	ferror	#
	testl	%eax, %eax	# D.9255
	jne	.L154	#,
	.loc 1 1117 0 is_stmt 0 discriminator 1
	movq	-16(%rbp), %rax	# deps_stream, tmp85
	movq	%rax, %rdi	# tmp85,
	call	fclose	#
	testl	%eax, %eax	# D.9255
	je	.L147	#,
.L154:
	.loc 1 1118 0 is_stmt 1
	movq	-24(%rbp), %rax	# pfile, tmp86
	movl	$.LC59, %esi	#,
	movq	%rax, %rdi	# tmp86,
	movl	$0, %eax	#,
	call	cpp_fatal	#
.L147:
	.loc 1 1120 0
	leave
	.cfi_def_cfa 7, 8
	ret
	.cfi_endproc
.LFE26:
	.size	output_deps, .-output_deps
	.globl	cpp_finish
	.type	cpp_finish, @function
cpp_finish:
.LFB27:
	.loc 1 1129 0
	.cfi_startproc
	pushq	%rbp	#
	.cfi_def_cfa_offset 16
	.cfi_offset 6, -16
	movq	%rsp, %rbp	#,
	.cfi_def_cfa_register 6
	subq	$16, %rsp	#,
	movq	%rdi, -8(%rbp)	# pfile, pfile
	.loc 1 1135 0
	jmp	.L156	#
.L157:
	.loc 1 1136 0
	movq	-8(%rbp), %rax	# pfile, tmp63
	movq	%rax, %rdi	# tmp63,
	call	_cpp_pop_buffer	#
.L156:
	.loc 1 1135 0 discriminator 1
	movq	-8(%rbp), %rax	# pfile, tmp64
	movq	(%rax), %rax	# pfile_1(D)->buffer, D.9259
	testq	%rax, %rax	# D.9259
	jne	.L157	#,
	.loc 1 1139 0
	movq	-8(%rbp), %rax	# pfile, tmp65
	movzbl	749(%rax), %eax	# pfile_1(D)->opts.print_deps, D.9260
	testb	%al, %al	# D.9260
	je	.L158	#,
	.loc 1 1139 0 is_stmt 0 discriminator 1
	movq	-8(%rbp), %rax	# pfile, tmp66
	movl	248(%rax), %eax	# pfile_1(D)->errors, D.9261
	testl	%eax, %eax	# D.9261
	jne	.L158	#,
	.loc 1 1140 0 is_stmt 1
	movq	-8(%rbp), %rax	# pfile, tmp67
	movq	%rax, %rdi	# tmp67,
	call	output_deps	#
.L158:
	.loc 1 1143 0
	movq	-8(%rbp), %rax	# pfile, tmp68
	movzbl	753(%rax), %eax	# pfile_1(D)->opts.print_include_names, D.9260
	testb	%al, %al	# D.9260
	je	.L155	#,
	.loc 1 1144 0
	movq	-8(%rbp), %rax	# pfile, tmp69
	movq	%rax, %rdi	# tmp69,
	call	_cpp_report_missing_guards	#
.L155:
	.loc 1 1145 0
	leave
	.cfi_def_cfa 7, 8
	ret
	.cfi_endproc
.LFE27:
	.size	cpp_finish, .-cpp_finish
	.type	new_pending_directive, @function
new_pending_directive:
.LFB28:
	.loc 1 1153 0
	.cfi_startproc
	pushq	%rbp	#
	.cfi_def_cfa_offset 16
	.cfi_offset 6, -16
	movq	%rsp, %rbp	#,
	.cfi_def_cfa_register 6
	subq	$48, %rsp	#,
	movq	%rdi, -24(%rbp)	# pend, pend
	movq	%rsi, -32(%rbp)	# text, text
	movq	%rdx, -40(%rbp)	# handler, handler
	.loc 1 1154 0
	movl	$24, %edi	#,
	call	xmalloc	#
	movq	%rax, -8(%rbp)	# tmp61, o
	.loc 1 1157 0
	movq	-8(%rbp), %rax	# o, tmp62
	movq	-32(%rbp), %rdx	# text, tmp63
	movq	%rdx, 8(%rax)	# tmp63, o_1->arg
	.loc 1 1158 0
	movq	-8(%rbp), %rax	# o, tmp64
	movq	$0, (%rax)	#, o_1->next
	.loc 1 1159 0
	movq	-8(%rbp), %rax	# o, tmp65
	movq	-40(%rbp), %rdx	# handler, tmp66
	movq	%rdx, 16(%rax)	# tmp66, o_1->handler
	.loc 1 1160 0
	movq	-24(%rbp), %rax	# pend, tmp67
	movq	(%rax), %rax	# pend_4(D)->directive_head, D.9262
	testq	%rax, %rax	# D.9262
	jne	.L161	#,
	.loc 1 1160 0 is_stmt 0 discriminator 1
	movq	-24(%rbp), %rax	# pend, tmp68
	movq	-8(%rbp), %rdx	# o, tmp69
	movq	%rdx, (%rax)	# tmp69, pend_4(D)->directive_head
	jmp	.L162	#
.L161:
	.loc 1 1160 0 discriminator 2
	movq	-24(%rbp), %rax	# pend, tmp70
	movq	8(%rax), %rax	# pend_4(D)->directive_tail, D.9262
	movq	-8(%rbp), %rdx	# o, tmp71
	movq	%rdx, (%rax)	# tmp71, _6->next
.L162:
	.loc 1 1160 0 discriminator 1
	movq	-24(%rbp), %rax	# pend, tmp72
	movq	-8(%rbp), %rdx	# o, tmp73
	movq	%rdx, 8(%rax)	# tmp73, pend_4(D)->directive_tail
	.loc 1 1161 0 is_stmt 1 discriminator 1
	leave
	.cfi_def_cfa 7, 8
	ret
	.cfi_endproc
.LFE28:
	.size	new_pending_directive, .-new_pending_directive
	.section	.rodata
.LC60:
	.string	"$"
.LC61:
	.string	"+"
.LC62:
	.string	"-help"
.LC63:
	.string	"-target-help"
.LC64:
	.string	"-version"
.LC65:
	.string	"A"
.LC66:
	.string	"assertion missing after %s"
.LC67:
	.string	"C"
.LC68:
	.string	"D"
.LC69:
	.string	"macro name missing after %s"
.LC70:
	.string	"H"
.LC71:
	.string	"I"
	.align 8
.LC72:
	.string	"directory name missing after %s"
.LC73:
	.string	"M"
.LC74:
	.string	"MD"
.LC75:
	.string	"file name missing after %s"
.LC76:
	.string	"MF"
.LC77:
	.string	"MG"
.LC78:
	.string	"MM"
.LC79:
	.string	"MMD"
.LC80:
	.string	"MP"
.LC81:
	.string	"MQ"
.LC82:
	.string	"target missing after %s"
.LC83:
	.string	"MT"
.LC84:
	.string	"P"
.LC85:
	.string	"U"
.LC86:
	.string	"W"
.LC87:
	.string	"argument missing after %s"
.LC88:
	.string	"d"
.LC89:
	.string	"fleading-underscore"
.LC90:
	.string	"fno-leading-underscore"
.LC91:
	.string	"fno-operator-names"
.LC92:
	.string	"fno-preprocessed"
.LC93:
	.string	"fno-show-column"
.LC94:
	.string	"fpreprocessed"
.LC95:
	.string	"fshow-column"
.LC96:
	.string	"fsigned-char"
.LC97:
	.string	"ftabstop="
.LC98:
	.string	"number missing after %s"
.LC99:
	.string	"funsigned-char"
.LC100:
	.string	"h"
.LC101:
	.string	"idirafter"
.LC102:
	.string	"imacros"
.LC103:
	.string	"include"
.LC104:
	.string	"iprefix"
.LC105:
	.string	"path name missing after %s"
.LC106:
	.string	"isystem"
.LC107:
	.string	"iwithprefix"
.LC108:
	.string	"iwithprefixbefore"
.LC109:
	.string	"lang-asm"
.LC110:
	.string	"lang-c"
.LC111:
	.string	"lang-c++"
.LC112:
	.string	"lang-c89"
.LC113:
	.string	"lang-objc"
.LC114:
	.string	"lang-objc++"
.LC115:
	.string	"nostdinc"
.LC116:
	.string	"nostdinc++"
.LC117:
	.string	"o"
.LC118:
	.string	"pedantic"
.LC119:
	.string	"pedantic-errors"
.LC120:
	.string	"remap"
.LC121:
	.string	"std=c++98"
.LC122:
	.string	"std=c89"
.LC123:
	.string	"std=c99"
.LC124:
	.string	"std=c9x"
.LC125:
	.string	"std=gnu89"
.LC126:
	.string	"std=gnu99"
.LC127:
	.string	"std=gnu9x"
.LC128:
	.string	"std=iso9899:1990"
.LC129:
	.string	"std=iso9899:199409"
.LC130:
	.string	"std=iso9899:1999"
.LC131:
	.string	"std=iso9899:199x"
.LC132:
	.string	"trigraphs"
.LC133:
	.string	"v"
.LC134:
	.string	"version"
	.align 32
	.type	cl_options, @object
	.size	cl_options, 2176
cl_options:
# opt_text:
	.quad	.LC60
# msg:
	.quad	0
# opt_len:
	.quad	1
# opt_code:
	.long	0
	.zero	4
# opt_text:
	.quad	.LC61
# msg:
	.quad	0
# opt_len:
	.quad	1
# opt_code:
	.long	1
	.zero	4
# opt_text:
	.quad	.LC62
# msg:
	.quad	0
# opt_len:
	.quad	5
# opt_code:
	.long	2
	.zero	4
# opt_text:
	.quad	.LC63
# msg:
	.quad	0
# opt_len:
	.quad	12
# opt_code:
	.long	3
	.zero	4
# opt_text:
	.quad	.LC64
# msg:
	.quad	0
# opt_len:
	.quad	8
# opt_code:
	.long	4
	.zero	4
# opt_text:
	.quad	.LC65
# msg:
	.quad	.LC66
# opt_len:
	.quad	1
# opt_code:
	.long	5
	.zero	4
# opt_text:
	.quad	.LC67
# msg:
	.quad	0
# opt_len:
	.quad	1
# opt_code:
	.long	6
	.zero	4
# opt_text:
	.quad	.LC68
# msg:
	.quad	.LC69
# opt_len:
	.quad	1
# opt_code:
	.long	7
	.zero	4
# opt_text:
	.quad	.LC70
# msg:
	.quad	0
# opt_len:
	.quad	1
# opt_code:
	.long	8
	.zero	4
# opt_text:
	.quad	.LC71
# msg:
	.quad	.LC72
# opt_len:
	.quad	1
# opt_code:
	.long	9
	.zero	4
# opt_text:
	.quad	.LC73
# msg:
	.quad	0
# opt_len:
	.quad	1
# opt_code:
	.long	10
	.zero	4
# opt_text:
	.quad	.LC74
# msg:
	.quad	.LC75
# opt_len:
	.quad	2
# opt_code:
	.long	11
	.zero	4
# opt_text:
	.quad	.LC76
# msg:
	.quad	.LC75
# opt_len:
	.quad	2
# opt_code:
	.long	12
	.zero	4
# opt_text:
	.quad	.LC77
# msg:
	.quad	0
# opt_len:
	.quad	2
# opt_code:
	.long	13
	.zero	4
# opt_text:
	.quad	.LC78
# msg:
	.quad	0
# opt_len:
	.quad	2
# opt_code:
	.long	14
	.zero	4
# opt_text:
	.quad	.LC79
# msg:
	.quad	.LC75
# opt_len:
	.quad	3
# opt_code:
	.long	15
	.zero	4
# opt_text:
	.quad	.LC80
# msg:
	.quad	0
# opt_len:
	.quad	2
# opt_code:
	.long	16
	.zero	4
# opt_text:
	.quad	.LC81
# msg:
	.quad	.LC82
# opt_len:
	.quad	2
# opt_code:
	.long	17
	.zero	4
# opt_text:
	.quad	.LC83
# msg:
	.quad	.LC82
# opt_len:
	.quad	2
# opt_code:
	.long	18
	.zero	4
# opt_text:
	.quad	.LC84
# msg:
	.quad	0
# opt_len:
	.quad	1
# opt_code:
	.long	19
	.zero	4
# opt_text:
	.quad	.LC85
# msg:
	.quad	.LC69
# opt_len:
	.quad	1
# opt_code:
	.long	20
	.zero	4
# opt_text:
	.quad	.LC86
# msg:
	.quad	.LC87
# opt_len:
	.quad	1
# opt_code:
	.long	21
	.zero	4
# opt_text:
	.quad	.LC88
# msg:
	.quad	.LC87
# opt_len:
	.quad	1
# opt_code:
	.long	22
	.zero	4
# opt_text:
	.quad	.LC89
# msg:
	.quad	0
# opt_len:
	.quad	19
# opt_code:
	.long	23
	.zero	4
# opt_text:
	.quad	.LC90
# msg:
	.quad	0
# opt_len:
	.quad	22
# opt_code:
	.long	24
	.zero	4
# opt_text:
	.quad	.LC91
# msg:
	.quad	0
# opt_len:
	.quad	18
# opt_code:
	.long	25
	.zero	4
# opt_text:
	.quad	.LC92
# msg:
	.quad	0
# opt_len:
	.quad	16
# opt_code:
	.long	26
	.zero	4
# opt_text:
	.quad	.LC93
# msg:
	.quad	0
# opt_len:
	.quad	15
# opt_code:
	.long	27
	.zero	4
# opt_text:
	.quad	.LC94
# msg:
	.quad	0
# opt_len:
	.quad	13
# opt_code:
	.long	28
	.zero	4
# opt_text:
	.quad	.LC95
# msg:
	.quad	0
# opt_len:
	.quad	12
# opt_code:
	.long	29
	.zero	4
# opt_text:
	.quad	.LC96
# msg:
	.quad	0
# opt_len:
	.quad	12
# opt_code:
	.long	30
	.zero	4
# opt_text:
	.quad	.LC97
# msg:
	.quad	.LC98
# opt_len:
	.quad	9
# opt_code:
	.long	31
	.zero	4
# opt_text:
	.quad	.LC99
# msg:
	.quad	0
# opt_len:
	.quad	14
# opt_code:
	.long	32
	.zero	4
# opt_text:
	.quad	.LC100
# msg:
	.quad	0
# opt_len:
	.quad	1
# opt_code:
	.long	33
	.zero	4
# opt_text:
	.quad	.LC101
# msg:
	.quad	.LC72
# opt_len:
	.quad	9
# opt_code:
	.long	34
	.zero	4
# opt_text:
	.quad	.LC102
# msg:
	.quad	.LC75
# opt_len:
	.quad	7
# opt_code:
	.long	35
	.zero	4
# opt_text:
	.quad	.LC103
# msg:
	.quad	.LC75
# opt_len:
	.quad	7
# opt_code:
	.long	36
	.zero	4
# opt_text:
	.quad	.LC104
# msg:
	.quad	.LC105
# opt_len:
	.quad	7
# opt_code:
	.long	37
	.zero	4
# opt_text:
	.quad	.LC106
# msg:
	.quad	.LC72
# opt_len:
	.quad	7
# opt_code:
	.long	38
	.zero	4
# opt_text:
	.quad	.LC107
# msg:
	.quad	.LC72
# opt_len:
	.quad	11
# opt_code:
	.long	39
	.zero	4
# opt_text:
	.quad	.LC108
# msg:
	.quad	.LC72
# opt_len:
	.quad	17
# opt_code:
	.long	40
	.zero	4
# opt_text:
	.quad	.LC109
# msg:
	.quad	0
# opt_len:
	.quad	8
# opt_code:
	.long	41
	.zero	4
# opt_text:
	.quad	.LC110
# msg:
	.quad	0
# opt_len:
	.quad	6
# opt_code:
	.long	42
	.zero	4
# opt_text:
	.quad	.LC111
# msg:
	.quad	0
# opt_len:
	.quad	8
# opt_code:
	.long	43
	.zero	4
# opt_text:
	.quad	.LC112
# msg:
	.quad	0
# opt_len:
	.quad	8
# opt_code:
	.long	44
	.zero	4
# opt_text:
	.quad	.LC113
# msg:
	.quad	0
# opt_len:
	.quad	9
# opt_code:
	.long	45
	.zero	4
# opt_text:
	.quad	.LC114
# msg:
	.quad	0
# opt_len:
	.quad	11
# opt_code:
	.long	46
	.zero	4
# opt_text:
	.quad	.LC115
# msg:
	.quad	0
# opt_len:
	.quad	8
# opt_code:
	.long	47
	.zero	4
# opt_text:
	.quad	.LC116
# msg:
	.quad	0
# opt_len:
	.quad	10
# opt_code:
	.long	48
	.zero	4
# opt_text:
	.quad	.LC117
# msg:
	.quad	.LC75
# opt_len:
	.quad	1
# opt_code:
	.long	49
	.zero	4
# opt_text:
	.quad	.LC118
# msg:
	.quad	0
# opt_len:
	.quad	8
# opt_code:
	.long	50
	.zero	4
# opt_text:
	.quad	.LC119
# msg:
	.quad	0
# opt_len:
	.quad	15
# opt_code:
	.long	51
	.zero	4
# opt_text:
	.quad	.LC120
# msg:
	.quad	0
# opt_len:
	.quad	5
# opt_code:
	.long	52
	.zero	4
# opt_text:
	.quad	.LC121
# msg:
	.quad	0
# opt_len:
	.quad	9
# opt_code:
	.long	53
	.zero	4
# opt_text:
	.quad	.LC122
# msg:
	.quad	0
# opt_len:
	.quad	7
# opt_code:
	.long	54
	.zero	4
# opt_text:
	.quad	.LC123
# msg:
	.quad	0
# opt_len:
	.quad	7
# opt_code:
	.long	55
	.zero	4
# opt_text:
	.quad	.LC124
# msg:
	.quad	0
# opt_len:
	.quad	7
# opt_code:
	.long	56
	.zero	4
# opt_text:
	.quad	.LC125
# msg:
	.quad	0
# opt_len:
	.quad	9
# opt_code:
	.long	57
	.zero	4
# opt_text:
	.quad	.LC126
# msg:
	.quad	0
# opt_len:
	.quad	9
# opt_code:
	.long	58
	.zero	4
# opt_text:
	.quad	.LC127
# msg:
	.quad	0
# opt_len:
	.quad	9
# opt_code:
	.long	59
	.zero	4
# opt_text:
	.quad	.LC128
# msg:
	.quad	0
# opt_len:
	.quad	16
# opt_code:
	.long	60
	.zero	4
# opt_text:
	.quad	.LC129
# msg:
	.quad	0
# opt_len:
	.quad	18
# opt_code:
	.long	61
	.zero	4
# opt_text:
	.quad	.LC130
# msg:
	.quad	0
# opt_len:
	.quad	16
# opt_code:
	.long	62
	.zero	4
# opt_text:
	.quad	.LC131
# msg:
	.quad	0
# opt_len:
	.quad	16
# opt_code:
	.long	63
	.zero	4
# opt_text:
	.quad	.LC132
# msg:
	.quad	0
# opt_len:
	.quad	9
# opt_code:
	.long	64
	.zero	4
# opt_text:
	.quad	.LC133
# msg:
	.quad	0
# opt_len:
	.quad	1
# opt_code:
	.long	65
	.zero	4
# opt_text:
	.quad	.LC134
# msg:
	.quad	0
# opt_len:
	.quad	7
# opt_code:
	.long	66
	.zero	4
# opt_text:
	.quad	.LC58
# msg:
	.quad	0
# opt_len:
	.quad	1
# opt_code:
	.long	67
	.zero	4
	.text
	.type	parse_option, @function
parse_option:
.LFB29:
	.loc 1 1286 0
	.cfi_startproc
	pushq	%rbp	#
	.cfi_def_cfa_offset 16
	.cfi_offset 6, -16
	movq	%rsp, %rbp	#,
	.cfi_def_cfa_register 6
	subq	$48, %rsp	#,
	movq	%rdi, -40(%rbp)	# input, input
	.loc 1 1291 0
	movl	$0, -24(%rbp)	#, mn
	.loc 1 1292 0
	movl	$68, -20(%rbp)	#, mx
	.loc 1 1294 0
	jmp	.L164	#
.L175:
	.loc 1 1296 0
	movl	-20(%rbp), %eax	# mx, tmp71
	movl	-24(%rbp), %edx	# mn, tmp72
	addl	%edx, %eax	# tmp72, D.9339
	shrl	%eax	# tmp73
	movl	%eax, -16(%rbp)	# tmp73, md
	.loc 1 1298 0
	movl	-16(%rbp), %eax	# md, tmp74
	salq	$5, %rax	#, tmp75
	addq	$cl_options+16, %rax	#, tmp76
	movq	(%rax), %rax	# cl_options[md_10].opt_len, tmp77
	movq	%rax, -8(%rbp)	# tmp77, opt_len
	.loc 1 1299 0
	movl	-16(%rbp), %eax	# md, tmp78
	salq	$5, %rax	#, tmp79
	addq	$cl_options, %rax	#, tmp80
	movq	(%rax), %rcx	# cl_options[md_10].opt_text, D.9340
	movq	-8(%rbp), %rdx	# opt_len, tmp81
	movq	-40(%rbp), %rax	# input, tmp82
	movq	%rcx, %rsi	# D.9340,
	movq	%rax, %rdi	# tmp82,
	call	memcmp	#
	movl	%eax, -12(%rbp)	# tmp83, comp
	.loc 1 1301 0
	cmpl	$0, -12(%rbp)	#, comp
	jle	.L165	#,
	.loc 1 1302 0
	movl	-16(%rbp), %eax	# md, tmp87
	addl	$1, %eax	#, tmp86
	movl	%eax, -24(%rbp)	# tmp86, mn
	jmp	.L164	#
.L165:
	.loc 1 1303 0
	cmpl	$0, -12(%rbp)	#, comp
	jns	.L166	#,
	.loc 1 1304 0
	movl	-16(%rbp), %eax	# md, tmp88
	movl	%eax, -20(%rbp)	# tmp88, mx
	jmp	.L164	#
.L166:
	.loc 1 1307 0
	movq	-8(%rbp), %rax	# opt_len, tmp89
	movq	-40(%rbp), %rdx	# input, tmp90
	addq	%rdx, %rax	# tmp90, D.9340
	movzbl	(%rax), %eax	# *_17, D.9341
	testb	%al, %al	# D.9341
	jne	.L167	#,
	.loc 1 1308 0
	movl	-16(%rbp), %eax	# md, D.9338
	jmp	.L168	#
.L167:
	.loc 1 1314 0
	movl	-16(%rbp), %eax	# md, tmp94
	addl	$1, %eax	#, tmp93
	movl	%eax, -24(%rbp)	# tmp93, mn
	.loc 1 1315 0
	movl	-16(%rbp), %eax	# md, tmp95
	salq	$5, %rax	#, tmp96
	addq	$cl_options, %rax	#, tmp97
	movq	8(%rax), %rax	# cl_options[md_10].msg, D.9340
	testq	%rax, %rax	# D.9340
	je	.L164	#,
	.loc 1 1320 0
	movl	-16(%rbp), %eax	# md, tmp98
	movl	%eax, -20(%rbp)	# tmp98, mx
	.loc 1 1321 0
	jmp	.L169	#
.L174:
	.loc 1 1323 0
	movl	-24(%rbp), %eax	# mn, tmp99
	salq	$5, %rax	#, tmp100
	addq	$cl_options+16, %rax	#, tmp101
	movq	(%rax), %rax	# cl_options[mn_1].opt_len, tmp102
	movq	%rax, -8(%rbp)	# tmp102, opt_len
	.loc 1 1324 0
	movl	-24(%rbp), %eax	# mn, tmp103
	salq	$5, %rax	#, tmp104
	addq	$cl_options, %rax	#, tmp105
	movq	(%rax), %rcx	# cl_options[mn_1].opt_text, D.9340
	movq	-8(%rbp), %rdx	# opt_len, tmp106
	movq	-40(%rbp), %rax	# input, tmp107
	movq	%rcx, %rsi	# D.9340,
	movq	%rax, %rdi	# tmp107,
	call	memcmp	#
	testl	%eax, %eax	# D.9338
	je	.L170	#,
	.loc 1 1325 0
	jmp	.L171	#
.L170:
	.loc 1 1326 0
	movq	-8(%rbp), %rax	# opt_len, tmp108
	movq	-40(%rbp), %rdx	# input, tmp109
	addq	%rdx, %rax	# tmp109, D.9340
	movzbl	(%rax), %eax	# *_26, D.9341
	testb	%al, %al	# D.9341
	jne	.L172	#,
	.loc 1 1327 0
	movl	-24(%rbp), %eax	# mn, D.9338
	jmp	.L168	#
.L172:
	.loc 1 1328 0
	movl	-24(%rbp), %eax	# mn, tmp110
	salq	$5, %rax	#, tmp111
	addq	$cl_options, %rax	#, tmp112
	movq	8(%rax), %rax	# cl_options[mn_1].msg, D.9340
	testq	%rax, %rax	# D.9340
	je	.L173	#,
	.loc 1 1329 0
	movl	-24(%rbp), %eax	# mn, tmp113
	movl	%eax, -20(%rbp)	# tmp113, mx
.L173:
	.loc 1 1321 0
	addl	$1, -24(%rbp)	#, mn
.L169:
	.loc 1 1321 0 is_stmt 0 discriminator 1
	cmpl	$67, -24(%rbp)	#, mn
	jbe	.L174	#,
.L171:
	.loc 1 1331 0 is_stmt 1
	movl	-20(%rbp), %eax	# mx, D.9338
	jmp	.L168	#
.L164:
	.loc 1 1294 0 discriminator 1
	movl	-20(%rbp), %eax	# mx, tmp114
	cmpl	-24(%rbp), %eax	# mn, tmp114
	ja	.L175	#,
	.loc 1 1336 0
	movl	$-1, %eax	#, D.9338
.L168:
	.loc 1 1337 0
	leave
	.cfi_def_cfa 7, 8
	ret
	.cfi_endproc
.LFE29:
	.size	parse_option, .-parse_option
	.section	.rodata
	.align 8
.LC135:
	.string	"too many filenames. Type %s --help for usage info"
.LC136:
	.string	"_"
	.align 8
.LC137:
	.string	"output filename specified twice"
.LC138:
	.string	"-"
.LC139:
	.string	"-I- specified twice"
.LC140:
	.string	"-Wall"
.LC141:
	.string	"-Wtraditional"
.LC142:
	.string	"-Wtrigraphs"
.LC143:
	.string	"-Wcomment"
.LC144:
	.string	"-Wcomments"
.LC145:
	.string	"-Wundef"
.LC146:
	.string	"-Wimport"
.LC147:
	.string	"-Werror"
.LC148:
	.string	"-Wsystem-headers"
.LC149:
	.string	"-Wno-traditional"
.LC150:
	.string	"-Wno-trigraphs"
.LC151:
	.string	"-Wno-comment"
.LC152:
	.string	"-Wno-comments"
.LC153:
	.string	"-Wno-undef"
.LC154:
	.string	"-Wno-import"
.LC155:
	.string	"-Wno-error"
.LC156:
	.string	"-Wno-system-headers"
	.text
	.globl	cpp_handle_option
	.type	cpp_handle_option, @function
cpp_handle_option:
.LFB30:
	.loc 1 1349 0
	.cfi_startproc
	pushq	%rbp	#
	.cfi_def_cfa_offset 16
	.cfi_offset 6, -16
	movq	%rsp, %rbp	#,
	.cfi_def_cfa_register 6
	subq	$112, %rsp	#,
	movq	%rdi, -88(%rbp)	# pfile, pfile
	movl	%esi, -92(%rbp)	# argc, argc
	movq	%rdx, -104(%rbp)	# argv, argv
	movl	%ecx, -96(%rbp)	# ignore, ignore
	.loc 1 1350 0
	movl	$0, -72(%rbp)	#, i
	.loc 1 1351 0
	movq	-88(%rbp), %rax	# pfile, tmp240
	movq	672(%rax), %rax	# pfile_8(D)->opts.pending, tmp241
	movq	%rax, -32(%rbp)	# tmp241, pend
	.loc 1 1354 0
	movl	-72(%rbp), %eax	# i, tmp242
	cltq
	leaq	0(,%rax,8), %rdx	#, D.9343
	movq	-104(%rbp), %rax	# argv, tmp243
	addq	%rdx, %rax	# D.9343, D.9344
	movq	(%rax), %rax	# *_13, D.9345
	movzbl	(%rax), %eax	# *_14, D.9346
	cmpb	$45, %al	#, D.9346
	jne	.L177	#,
	.loc 1 1354 0 is_stmt 0 discriminator 1
	movl	-72(%rbp), %eax	# i, tmp244
	cltq
	leaq	0(,%rax,8), %rdx	#, D.9343
	movq	-104(%rbp), %rax	# argv, tmp245
	addq	%rdx, %rax	# D.9343, D.9344
	movq	(%rax), %rax	# *_18, D.9345
	addq	$1, %rax	#, D.9345
	movzbl	(%rax), %eax	# *_20, D.9346
	testb	%al, %al	# D.9346
	jne	.L178	#,
.L177:
	.loc 1 1356 0 is_stmt 1
	movq	-88(%rbp), %rax	# pfile, tmp246
	movq	648(%rax), %rax	# pfile_8(D)->opts.in_fname, D.9347
	testq	%rax, %rax	# D.9347
	jne	.L179	#,
	.loc 1 1357 0
	movl	-72(%rbp), %eax	# i, tmp247
	cltq
	leaq	0(,%rax,8), %rdx	#, D.9343
	movq	-104(%rbp), %rax	# argv, tmp248
	addq	%rdx, %rax	# D.9343, D.9344
	movq	(%rax), %rdx	# *_204, D.9345
	movq	-88(%rbp), %rax	# pfile, tmp249
	movq	%rdx, 648(%rax)	# D.9345, pfile_8(D)->opts.in_fname
	jmp	.L180	#
.L179:
	.loc 1 1358 0
	movq	-88(%rbp), %rax	# pfile, tmp250
	movq	656(%rax), %rax	# pfile_8(D)->opts.out_fname, D.9347
	testq	%rax, %rax	# D.9347
	jne	.L181	#,
	.loc 1 1359 0
	movl	-72(%rbp), %eax	# i, tmp251
	cltq
	leaq	0(,%rax,8), %rdx	#, D.9343
	movq	-104(%rbp), %rax	# argv, tmp252
	addq	%rdx, %rax	# D.9343, D.9344
	movq	(%rax), %rdx	# *_209, D.9345
	movq	-88(%rbp), %rax	# pfile, tmp253
	movq	%rdx, 656(%rax)	# D.9345, pfile_8(D)->opts.out_fname
	jmp	.L180	#
.L181:
	.loc 1 1361 0
	movq	progname(%rip), %rdx	# progname, progname.21
	movq	-88(%rbp), %rax	# pfile, tmp254
	movl	$.LC135, %esi	#,
	movq	%rax, %rdi	# tmp254,
	movl	$0, %eax	#,
	call	cpp_fatal	#
	.loc 1 1356 0
	jmp	.L182	#
.L180:
	jmp	.L182	#
.L178:
.LBB12:
	.loc 1 1368 0
	movq	$0, -48(%rbp)	#, arg
	.loc 1 1371 0
	movl	-72(%rbp), %eax	# i, tmp255
	cltq
	leaq	0(,%rax,8), %rdx	#, D.9343
	movq	-104(%rbp), %rax	# argv, tmp256
	addq	%rdx, %rax	# D.9343, D.9344
	movq	(%rax), %rax	# *_25, D.9345
	addq	$1, %rax	#, D.9347
	movq	%rax, %rdi	# D.9347,
	call	parse_option	#
	movl	%eax, -68(%rbp)	# tmp257, opt_index
	.loc 1 1372 0
	cmpl	$0, -68(%rbp)	#, opt_index
	jns	.L183	#,
	.loc 1 1373 0
	movl	-72(%rbp), %eax	# i, D.9342
	jmp	.L184	#
.L183:
	.loc 1 1375 0
	movl	-68(%rbp), %eax	# opt_index, tmp259
	cltq
	salq	$5, %rax	#, tmp260
	addq	$cl_options+16, %rax	#, tmp261
	movl	8(%rax), %eax	# cl_options[opt_index_28].opt_code, tmp262
	movl	%eax, -64(%rbp)	# tmp262, opt_code
	.loc 1 1376 0
	movl	-68(%rbp), %eax	# opt_index, tmp264
	cltq
	salq	$5, %rax	#, tmp265
	addq	$cl_options, %rax	#, tmp266
	movq	8(%rax), %rax	# cl_options[opt_index_28].msg, D.9347
	testq	%rax, %rax	# D.9347
	je	.L185	#,
	.loc 1 1378 0
	movl	-72(%rbp), %eax	# i, tmp267
	cltq
	leaq	0(,%rax,8), %rdx	#, D.9343
	movq	-104(%rbp), %rax	# argv, tmp268
	addq	%rdx, %rax	# D.9343, D.9344
	movq	(%rax), %rax	# *_34, D.9345
	movl	-68(%rbp), %edx	# opt_index, tmp270
	movslq	%edx, %rdx	# tmp270, tmp269
	salq	$5, %rdx	#, tmp271
	addq	$cl_options+16, %rdx	#, tmp272
	movq	(%rdx), %rdx	# cl_options[opt_index_28].opt_len, D.9343
	addq	$1, %rdx	#, D.9348
	addq	%rdx, %rax	# D.9348, tmp273
	movq	%rax, -48(%rbp)	# tmp273, arg
	.loc 1 1383 0
	movq	-48(%rbp), %rax	# arg, tmp274
	movzbl	(%rax), %eax	# *arg_38, D.9346
	testb	%al, %al	# D.9346
	jne	.L185	#,
	.loc 1 1383 0 is_stmt 0 discriminator 1
	cmpl	$21, -64(%rbp)	#, opt_code
	je	.L185	#,
	.loc 1 1385 0 is_stmt 1
	addl	$1, -72(%rbp)	#, i
	movl	-72(%rbp), %eax	# i, tmp275
	cltq
	leaq	0(,%rax,8), %rdx	#, D.9343
	movq	-104(%rbp), %rax	# argv, tmp276
	addq	%rdx, %rax	# D.9343, D.9344
	movq	(%rax), %rax	# *_43, tmp277
	movq	%rax, -48(%rbp)	# tmp277, arg
	.loc 1 1386 0
	cmpq	$0, -48(%rbp)	#, arg
	jne	.L185	#,
	.loc 1 1388 0
	movl	-72(%rbp), %eax	# i, tmp278
	cltq
	salq	$3, %rax	#, D.9343
	leaq	-8(%rax), %rdx	#, D.9348
	movq	-104(%rbp), %rax	# argv, tmp279
	addq	%rdx, %rax	# D.9348, D.9344
	movq	(%rax), %rdx	# *_48, D.9345
	movl	-68(%rbp), %eax	# opt_index, tmp281
	cltq
	salq	$5, %rax	#, tmp282
	addq	$cl_options, %rax	#, tmp283
	movq	8(%rax), %rcx	# cl_options[opt_index_28].msg, D.9347
	movq	-88(%rbp), %rax	# pfile, tmp284
	movq	%rcx, %rsi	# D.9347,
	movq	%rax, %rdi	# tmp284,
	movl	$0, %eax	#,
	call	cpp_fatal	#
	.loc 1 1389 0
	movl	-92(%rbp), %eax	# argc, D.9342
	jmp	.L184	#
.L185:
	.loc 1 1394 0
	cmpl	$68, -64(%rbp)	#, opt_code
	ja	.L182	#,
	movl	-64(%rbp), %eax	# opt_code, tmp285
	movq	.L187(,%rax,8), %rax	#, tmp286
	jmp	*%rax	# tmp286
	.section	.rodata
	.align 8
	.align 4
.L187:
	.quad	.L186
	.quad	.L188
	.quad	.L189
	.quad	.L190
	.quad	.L191
	.quad	.L192
	.quad	.L193
	.quad	.L194
	.quad	.L195
	.quad	.L196
	.quad	.L197
	.quad	.L198
	.quad	.L199
	.quad	.L200
	.quad	.L201
	.quad	.L202
	.quad	.L203
	.quad	.L204
	.quad	.L204
	.quad	.L205
	.quad	.L206
	.quad	.L207
	.quad	.L292
	.quad	.L209
	.quad	.L210
	.quad	.L211
	.quad	.L212
	.quad	.L213
	.quad	.L214
	.quad	.L215
	.quad	.L216
	.quad	.L217
	.quad	.L218
	.quad	.L189
	.quad	.L219
	.quad	.L220
	.quad	.L220
	.quad	.L221
	.quad	.L222
	.quad	.L223
	.quad	.L223
	.quad	.L224
	.quad	.L225
	.quad	.L226
	.quad	.L227
	.quad	.L228
	.quad	.L229
	.quad	.L230
	.quad	.L231
	.quad	.L232
	.quad	.L233
	.quad	.L234
	.quad	.L235
	.quad	.L236
	.quad	.L227
	.quad	.L237
	.quad	.L237
	.quad	.L238
	.quad	.L239
	.quad	.L239
	.quad	.L227
	.quad	.L240
	.quad	.L237
	.quad	.L237
	.quad	.L241
	.quad	.L242
	.quad	.L243
	.quad	.L244
	.quad	.L291
	.text
.L209:
	.loc 1 1399 0
	movq	-88(%rbp), %rax	# pfile, tmp287
	movq	$.LC136, 728(%rax)	#, pfile_8(D)->opts.user_label_prefix
	.loc 1 1400 0
	jmp	.L182	#
.L210:
	.loc 1 1402 0
	movq	-88(%rbp), %rax	# pfile, tmp288
	movq	$.LC17, 728(%rax)	#, pfile_8(D)->opts.user_label_prefix
	.loc 1 1403 0
	jmp	.L182	#
.L211:
	.loc 1 1405 0
	movq	-88(%rbp), %rax	# pfile, tmp289
	movb	$0, 777(%rax)	#, pfile_8(D)->opts.operator_names
	.loc 1 1406 0
	jmp	.L182	#
.L214:
	.loc 1 1408 0
	movq	-88(%rbp), %rax	# pfile, tmp290
	movb	$1, 771(%rax)	#, pfile_8(D)->opts.preprocessed
	.loc 1 1409 0
	jmp	.L182	#
.L212:
	.loc 1 1411 0
	movq	-88(%rbp), %rax	# pfile, tmp291
	movb	$0, 771(%rax)	#, pfile_8(D)->opts.preprocessed
	.loc 1 1412 0
	jmp	.L182	#
.L215:
	.loc 1 1414 0
	movq	-88(%rbp), %rax	# pfile, tmp292
	movb	$1, 776(%rax)	#, pfile_8(D)->opts.show_column
	.loc 1 1415 0
	jmp	.L182	#
.L213:
	.loc 1 1417 0
	movq	-88(%rbp), %rax	# pfile, tmp293
	movb	$0, 776(%rax)	#, pfile_8(D)->opts.show_column
	.loc 1 1418 0
	jmp	.L182	#
.L216:
	.loc 1 1420 0
	movq	-88(%rbp), %rax	# pfile, tmp294
	movb	$1, 741(%rax)	#, pfile_8(D)->opts.signed_char
	.loc 1 1421 0
	jmp	.L182	#
.L218:
	.loc 1 1423 0
	movq	-88(%rbp), %rax	# pfile, tmp295
	movb	$0, 741(%rax)	#, pfile_8(D)->opts.signed_char
	.loc 1 1424 0
	jmp	.L182	#
.L217:
	.loc 1 1427 0
	movq	-48(%rbp), %rax	# arg, tmp296
	movzbl	(%rax), %eax	# *arg_3, D.9346
	testb	%al, %al	# D.9346
	je	.L246	#,
.LBB13:
	.loc 1 1430 0
	leaq	-56(%rbp), %rcx	#, tmp297
	movq	-48(%rbp), %rax	# arg, tmp298
	movl	$10, %edx	#,
	movq	%rcx, %rsi	# tmp297,
	movq	%rax, %rdi	# tmp298,
	call	strtol	#
	movq	%rax, -24(%rbp)	# tmp299, tabstop
	.loc 1 1431 0
	movq	-56(%rbp), %rax	# endptr, endptr.22
	movzbl	(%rax), %eax	# *endptr.22_55, D.9346
	testb	%al, %al	# D.9346
	jne	.L246	#,
	.loc 1 1431 0 is_stmt 0 discriminator 1
	cmpq	$0, -24(%rbp)	#, tabstop
	jle	.L246	#,
	cmpq	$100, -24(%rbp)	#, tabstop
	jg	.L246	#,
	.loc 1 1432 0 is_stmt 1
	movq	-24(%rbp), %rax	# tabstop, tmp300
	movl	%eax, %edx	# tmp300, D.9349
	movq	-88(%rbp), %rax	# pfile, tmp301
	movl	%edx, 664(%rax)	# D.9349, pfile_8(D)->opts.tabstop
.LBE13:
	.loc 1 1434 0
	jmp	.L182	#
.L246:
	jmp	.L182	#
.L244:
	.loc 1 1436 0
	movq	-88(%rbp), %rax	# pfile, tmp302
	movb	$1, 755(%rax)	#, pfile_8(D)->opts.inhibit_warnings
	.loc 1 1437 0
	jmp	.L182	#
.L189:
	.loc 1 1440 0
	call	print_help	#
	.loc 1 1441 0
	movq	-88(%rbp), %rax	# pfile, tmp303
	movb	$1, 778(%rax)	#, pfile_8(D)->opts.help_only
	.loc 1 1442 0
	jmp	.L182	#
.L190:
	.loc 1 1446 0
	movq	-88(%rbp), %rax	# pfile, tmp304
	movb	$1, 778(%rax)	#, pfile_8(D)->opts.help_only
	.loc 1 1447 0
	jmp	.L182	#
.L191:
	.loc 1 1452 0
	movq	-88(%rbp), %rax	# pfile, tmp305
	movb	$1, 778(%rax)	#, pfile_8(D)->opts.help_only
	.loc 1 1453 0
	movq	-88(%rbp), %rax	# pfile, tmp306
	movb	$1, 824(%rax)	#, pfile_8(D)->print_version
	.loc 1 1454 0
	jmp	.L182	#
.L242:
	.loc 1 1456 0
	movq	-88(%rbp), %rax	# pfile, tmp307
	movb	$1, 740(%rax)	#, pfile_8(D)->opts.verbose
	.loc 1 1457 0
	movq	-88(%rbp), %rax	# pfile, tmp308
	movb	$1, 824(%rax)	#, pfile_8(D)->print_version
	.loc 1 1458 0
	jmp	.L182	#
.L243:
	.loc 1 1460 0
	movq	-88(%rbp), %rax	# pfile, tmp309
	movb	$1, 824(%rax)	#, pfile_8(D)->print_version
	.loc 1 1461 0
	jmp	.L182	#
.L193:
	.loc 1 1464 0
	movq	-88(%rbp), %rax	# pfile, tmp310
	movb	$0, 745(%rax)	#, pfile_8(D)->opts.discard_comments
	.loc 1 1465 0
	jmp	.L182	#
.L205:
	.loc 1 1467 0
	movq	-88(%rbp), %rax	# pfile, tmp311
	movb	$1, 765(%rax)	#, pfile_8(D)->opts.no_line_commands
	.loc 1 1468 0
	jmp	.L182	#
.L186:
	.loc 1 1470 0
	movq	-88(%rbp), %rax	# pfile, tmp312
	movb	$0, 767(%rax)	#, pfile_8(D)->opts.dollars_in_ident
	.loc 1 1471 0
	jmp	.L182	#
.L195:
	.loc 1 1473 0
	movq	-88(%rbp), %rax	# pfile, tmp313
	movb	$1, 753(%rax)	#, pfile_8(D)->opts.print_include_names
	.loc 1 1474 0
	jmp	.L182	#
.L194:
	.loc 1 1476 0
	movq	-48(%rbp), %rcx	# arg, tmp314
	movq	-32(%rbp), %rax	# pend, tmp315
	movl	$cpp_define, %edx	#,
	movq	%rcx, %rsi	# tmp314,
	movq	%rax, %rdi	# tmp315,
	call	new_pending_directive	#
	.loc 1 1477 0
	jmp	.L182	#
.L234:
	.loc 1 1479 0
	movq	-88(%rbp), %rax	# pfile, tmp316
	movb	$1, 754(%rax)	#, pfile_8(D)->opts.pedantic_errors
.L233:
	.loc 1 1482 0
	movq	-88(%rbp), %rax	# pfile, tmp317
	movb	$1, 770(%rax)	#, pfile_8(D)->opts.pedantic
	.loc 1 1483 0
	jmp	.L182	#
.L241:
	.loc 1 1485 0
	movq	-88(%rbp), %rax	# pfile, tmp318
	movb	$1, 746(%rax)	#, pfile_8(D)->opts.trigraphs
	.loc 1 1486 0
	jmp	.L182	#
.L188:
	.loc 1 1488 0
	movq	-88(%rbp), %rax	# pfile, tmp319
	movb	$1, 742(%rax)	#, pfile_8(D)->opts.cplusplus
	.loc 1 1489 0
	movq	-88(%rbp), %rax	# pfile, tmp320
	movb	$1, 743(%rax)	#, pfile_8(D)->opts.cplusplus_comments
	.loc 1 1490 0
	jmp	.L182	#
.L235:
	.loc 1 1492 0
	movq	-88(%rbp), %rax	# pfile, tmp321
	movb	$1, 764(%rax)	#, pfile_8(D)->opts.remap
	.loc 1 1493 0
	jmp	.L182	#
.L221:
	.loc 1 1495 0
	movq	-88(%rbp), %rax	# pfile, tmp322
	movq	-48(%rbp), %rdx	# arg, tmp323
	movq	%rdx, 712(%rax)	# tmp323, pfile_8(D)->opts.include_prefix
	.loc 1 1496 0
	movq	-48(%rbp), %rax	# arg, tmp324
	movq	%rax, %rdi	# tmp324,
	call	strlen	#
	movl	%eax, %edx	# D.9343, D.9349
	movq	-88(%rbp), %rax	# pfile, tmp325
	movl	%edx, 720(%rax)	# D.9349, pfile_8(D)->opts.include_prefix_len
	.loc 1 1497 0
	jmp	.L182	#
.L225:
	.loc 1 1499 0
	movq	-88(%rbp), %rax	# pfile, tmp326
	movl	$0, %esi	#,
	movq	%rax, %rdi	# tmp326,
	call	set_lang	#
	.loc 1 1500 0
	jmp	.L182	#
.L226:
	.loc 1 1502 0
	movq	-88(%rbp), %rax	# pfile, tmp327
	movl	$5, %esi	#,
	movq	%rax, %rdi	# tmp327,
	call	set_lang	#
	.loc 1 1503 0
	jmp	.L182	#
.L228:
	.loc 1 1505 0
	movq	-88(%rbp), %rax	# pfile, tmp328
	movl	$7, %esi	#,
	movq	%rax, %rdi	# tmp328,
	call	set_lang	#
	.loc 1 1506 0
	jmp	.L182	#
.L229:
	.loc 1 1508 0
	movq	-88(%rbp), %rax	# pfile, tmp329
	movl	$8, %esi	#,
	movq	%rax, %rdi	# tmp329,
	call	set_lang	#
	.loc 1 1509 0
	jmp	.L182	#
.L224:
	.loc 1 1511 0
	movq	-88(%rbp), %rax	# pfile, tmp330
	movl	$9, %esi	#,
	movq	%rax, %rdi	# tmp330,
	call	set_lang	#
	.loc 1 1512 0
	jmp	.L182	#
.L236:
	.loc 1 1514 0
	movq	-88(%rbp), %rax	# pfile, tmp331
	movl	$6, %esi	#,
	movq	%rax, %rdi	# tmp331,
	call	set_lang	#
	.loc 1 1515 0
	jmp	.L182	#
.L238:
	.loc 1 1517 0
	movq	-88(%rbp), %rax	# pfile, tmp332
	movl	$0, %esi	#,
	movq	%rax, %rdi	# tmp332,
	call	set_lang	#
	.loc 1 1518 0
	jmp	.L182	#
.L239:
	.loc 1 1521 0
	movq	-88(%rbp), %rax	# pfile, tmp333
	movl	$1, %esi	#,
	movq	%rax, %rdi	# tmp333,
	call	set_lang	#
	.loc 1 1522 0
	jmp	.L182	#
.L240:
	.loc 1 1524 0
	movq	-88(%rbp), %rax	# pfile, tmp334
	movl	$3, %esi	#,
	movq	%rax, %rdi	# tmp334,
	call	set_lang	#
	.loc 1 1525 0
	jmp	.L182	#
.L227:
	.loc 1 1529 0
	movq	-88(%rbp), %rax	# pfile, tmp335
	movl	$2, %esi	#,
	movq	%rax, %rdi	# tmp335,
	call	set_lang	#
	.loc 1 1530 0
	jmp	.L182	#
.L237:
	.loc 1 1535 0
	movq	-88(%rbp), %rax	# pfile, tmp336
	movl	$4, %esi	#,
	movq	%rax, %rdi	# tmp336,
	call	set_lang	#
	.loc 1 1536 0
	jmp	.L182	#
.L230:
	.loc 1 1540 0
	movq	-88(%rbp), %rax	# pfile, tmp337
	movb	$1, 772(%rax)	#, pfile_8(D)->opts.no_standard_includes
	.loc 1 1541 0
	jmp	.L182	#
.L231:
	.loc 1 1544 0
	movq	-88(%rbp), %rax	# pfile, tmp338
	movb	$1, 773(%rax)	#, pfile_8(D)->opts.no_standard_cplusplus_includes
	.loc 1 1545 0
	jmp	.L182	#
.L232:
	.loc 1 1547 0
	movq	-88(%rbp), %rax	# pfile, tmp339
	movq	656(%rax), %rax	# pfile_8(D)->opts.out_fname, D.9347
	testq	%rax, %rax	# D.9347
	jne	.L248	#,
	.loc 1 1548 0
	movq	-88(%rbp), %rax	# pfile, tmp340
	movq	-48(%rbp), %rdx	# arg, tmp341
	movq	%rdx, 656(%rax)	# tmp341, pfile_8(D)->opts.out_fname
	.loc 1 1554 0
	jmp	.L182	#
.L248:
	.loc 1 1551 0
	movq	-88(%rbp), %rax	# pfile, tmp342
	movl	$.LC137, %esi	#,
	movq	%rax, %rdi	# tmp342,
	movl	$0, %eax	#,
	call	cpp_fatal	#
	.loc 1 1552 0
	movl	-92(%rbp), %eax	# argc, D.9342
	jmp	.L184	#
.L256:
.LBB14:
	.loc 1 1563 0
	movsbl	-73(%rbp), %eax	# c, D.9342
	cmpl	$73, %eax	#, D.9342
	je	.L251	#,
	cmpl	$73, %eax	#, D.9342
	jg	.L252	#,
	cmpl	$68, %eax	#, D.9342
	je	.L253	#,
	jmp	.L250	#
.L252:
	cmpl	$77, %eax	#, D.9342
	je	.L254	#,
	cmpl	$78, %eax	#, D.9342
	je	.L255	#,
	jmp	.L250	#
.L254:
	.loc 1 1566 0
	movq	-88(%rbp), %rax	# pfile, tmp343
	movb	$1, 774(%rax)	#, pfile_8(D)->opts.dump_macros
	.loc 1 1567 0
	jmp	.L250	#
.L255:
	.loc 1 1569 0
	movq	-88(%rbp), %rax	# pfile, tmp344
	movb	$2, 774(%rax)	#, pfile_8(D)->opts.dump_macros
	.loc 1 1570 0
	jmp	.L250	#
.L253:
	.loc 1 1572 0
	movq	-88(%rbp), %rax	# pfile, tmp345
	movb	$3, 774(%rax)	#, pfile_8(D)->opts.dump_macros
	.loc 1 1573 0
	jmp	.L250	#
.L251:
	.loc 1 1575 0
	movq	-88(%rbp), %rax	# pfile, tmp346
	movb	$1, 775(%rax)	#, pfile_8(D)->opts.dump_includes
	.loc 1 1576 0
	jmp	.L250	#
.L292:
	.loc 1 1562 0
	nop
.L250:
	.loc 1 1562 0 is_stmt 0 discriminator 1
	movq	-48(%rbp), %rax	# arg, arg.23
	leaq	1(%rax), %rdx	#, tmp347
	movq	%rdx, -48(%rbp)	# tmp347, arg
	movzbl	(%rax), %eax	# *arg.23_62, tmp348
	movb	%al, -73(%rbp)	# tmp348, c
	cmpb	$0, -73(%rbp)	#, c
	jne	.L256	#,
.LBE14:
	.loc 1 1579 0 is_stmt 1
	jmp	.L182	#
.L200:
	.loc 1 1582 0
	movq	-88(%rbp), %rax	# pfile, tmp349
	movb	$1, 751(%rax)	#, pfile_8(D)->opts.print_deps_missing_files
	.loc 1 1583 0
	jmp	.L182	#
.L197:
	.loc 1 1589 0
	movq	-88(%rbp), %rax	# pfile, tmp350
	movb	$2, 749(%rax)	#, pfile_8(D)->opts.print_deps
	.loc 1 1590 0
	movq	-88(%rbp), %rax	# pfile, tmp351
	movb	$1, 763(%rax)	#, pfile_8(D)->opts.no_output
	.loc 1 1591 0
	jmp	.L182	#
.L201:
	.loc 1 1593 0
	movq	-88(%rbp), %rax	# pfile, tmp352
	movb	$1, 749(%rax)	#, pfile_8(D)->opts.print_deps
	.loc 1 1594 0
	movq	-88(%rbp), %rax	# pfile, tmp353
	movb	$1, 763(%rax)	#, pfile_8(D)->opts.no_output
	.loc 1 1595 0
	jmp	.L182	#
.L199:
	.loc 1 1597 0
	movq	-88(%rbp), %rax	# pfile, tmp354
	movq	-48(%rbp), %rdx	# arg, tmp355
	movq	%rdx, 680(%rax)	# tmp355, pfile_8(D)->opts.deps_file
	.loc 1 1598 0
	jmp	.L182	#
.L203:
	.loc 1 1600 0
	movq	-88(%rbp), %rax	# pfile, tmp356
	movb	$1, 750(%rax)	#, pfile_8(D)->opts.deps_phony_targets
	.loc 1 1601 0
	jmp	.L182	#
.L204:
	.loc 1 1605 0
	cmpl	$17, -64(%rbp)	#, opt_code
	sete	%al	#, D.9350
	movzbl	%al, %edx	# D.9350, D.9342
	movq	-88(%rbp), %rax	# pfile, tmp357
	movq	392(%rax), %rax	# pfile_8(D)->deps, D.9351
	movq	-48(%rbp), %rcx	# arg, tmp358
	movq	%rcx, %rsi	# tmp358,
	movq	%rax, %rdi	# D.9351,
	call	deps_add_target	#
	.loc 1 1606 0
	jmp	.L182	#
.L198:
	.loc 1 1609 0
	movq	-88(%rbp), %rax	# pfile, tmp359
	movb	$2, 749(%rax)	#, pfile_8(D)->opts.print_deps
	.loc 1 1610 0
	movq	-88(%rbp), %rax	# pfile, tmp360
	movq	-48(%rbp), %rdx	# arg, tmp361
	movq	%rdx, 680(%rax)	# tmp361, pfile_8(D)->opts.deps_file
	.loc 1 1611 0
	jmp	.L182	#
.L202:
	.loc 1 1613 0
	movq	-88(%rbp), %rax	# pfile, tmp362
	movb	$1, 749(%rax)	#, pfile_8(D)->opts.print_deps
	.loc 1 1614 0
	movq	-88(%rbp), %rax	# pfile, tmp363
	movq	-48(%rbp), %rdx	# arg, tmp364
	movq	%rdx, 680(%rax)	# tmp364, pfile_8(D)->opts.deps_file
	.loc 1 1615 0
	jmp	.L182	#
.L192:
	.loc 1 1618 0
	movq	-48(%rbp), %rax	# arg, tmp365
	movzbl	(%rax), %eax	# *arg_3, D.9346
	cmpb	$45, %al	#, D.9346
	jne	.L257	#,
	.loc 1 1628 0
	movq	-48(%rbp), %rax	# arg, tmp366
	addq	$1, %rax	#, D.9347
	movzbl	(%rax), %eax	# *_70, D.9346
	testb	%al, %al	# D.9346
	jne	.L258	#,
	.loc 1 1630 0
	movq	-32(%rbp), %rax	# pend, tmp367
	movq	(%rax), %rax	# pend_9->directive_head, D.9352
	movq	%rax, %rdi	# D.9352,
	call	free_chain	#
	.loc 1 1631 0
	movq	-32(%rbp), %rax	# pend, tmp368
	movq	$0, (%rax)	#, pend_9->directive_head
	.loc 1 1632 0
	movq	-32(%rbp), %rax	# pend, tmp369
	movq	$0, 8(%rax)	#, pend_9->directive_tail
	.loc 1 1639 0
	jmp	.L182	#
.L258:
	.loc 1 1635 0
	movq	-48(%rbp), %rax	# arg, tmp370
	leaq	1(%rax), %rcx	#, D.9347
	movq	-32(%rbp), %rax	# pend, tmp371
	movl	$cpp_unassert, %edx	#,
	movq	%rcx, %rsi	# D.9347,
	movq	%rax, %rdi	# tmp371,
	call	new_pending_directive	#
	.loc 1 1639 0
	jmp	.L182	#
.L257:
	.loc 1 1638 0
	movq	-48(%rbp), %rcx	# arg, tmp372
	movq	-32(%rbp), %rax	# pend, tmp373
	movl	$cpp_assert, %edx	#,
	movq	%rcx, %rsi	# tmp372,
	movq	%rax, %rdi	# tmp373,
	call	new_pending_directive	#
	.loc 1 1639 0
	jmp	.L182	#
.L206:
	.loc 1 1641 0
	movq	-48(%rbp), %rcx	# arg, tmp374
	movq	-32(%rbp), %rax	# pend, tmp375
	movl	$cpp_undef, %edx	#,
	movq	%rcx, %rsi	# tmp374,
	movq	%rax, %rdi	# tmp375,
	call	new_pending_directive	#
	.loc 1 1642 0
	jmp	.L182	#
.L196:
	.loc 1 1644 0
	movq	-48(%rbp), %rax	# arg, tmp376
	movl	$.LC138, %esi	#,
	movq	%rax, %rdi	# tmp376,
	call	strcmp	#
	testl	%eax, %eax	# D.9342
	jne	.L261	#,
	.loc 1 1652 0
	movq	-88(%rbp), %rax	# pfile, tmp377
	movzbl	766(%rax), %eax	# pfile_8(D)->opts.ignore_srcdir, D.9353
	testb	%al, %al	# D.9353
	jne	.L262	#,
	.loc 1 1654 0
	movq	-32(%rbp), %rax	# pend, tmp378
	movq	32(%rax), %rdx	# pend_9->brack_head, D.9354
	movq	-32(%rbp), %rax	# pend, tmp379
	movq	%rdx, 16(%rax)	# D.9354, pend_9->quote_head
	.loc 1 1655 0
	movq	-32(%rbp), %rax	# pend, tmp380
	movq	40(%rax), %rdx	# pend_9->brack_tail, D.9354
	movq	-32(%rbp), %rax	# pend, tmp381
	movq	%rdx, 24(%rax)	# D.9354, pend_9->quote_tail
	.loc 1 1656 0
	movq	-32(%rbp), %rax	# pend, tmp382
	movq	$0, 32(%rax)	#, pend_9->brack_head
	.loc 1 1657 0
	movq	-32(%rbp), %rax	# pend, tmp383
	movq	$0, 40(%rax)	#, pend_9->brack_tail
	.loc 1 1658 0
	movq	-88(%rbp), %rax	# pfile, tmp384
	movb	$1, 766(%rax)	#, pfile_8(D)->opts.ignore_srcdir
	.loc 1 1668 0
	jmp	.L182	#
.L262:
	.loc 1 1662 0
	movq	-88(%rbp), %rax	# pfile, tmp385
	movl	$.LC139, %esi	#,
	movq	%rax, %rdi	# tmp385,
	movl	$0, %eax	#,
	call	cpp_fatal	#
	.loc 1 1663 0
	movl	-92(%rbp), %eax	# argc, D.9342
	jmp	.L184	#
.L261:
	.loc 1 1667 0
	movq	-48(%rbp), %rax	# arg, tmp386
	movq	%rax, %rdi	# tmp386,
	call	xstrdup	#
	movq	%rax, %rsi	# tmp387, D.9345
	movq	-88(%rbp), %rax	# pfile, tmp388
	movl	$0, %ecx	#,
	movl	$0, %edx	#,
	movq	%rax, %rdi	# tmp388,
	call	append_include_chain	#
	.loc 1 1668 0
	jmp	.L182	#
.L222:
	.loc 1 1672 0
	movq	-48(%rbp), %rax	# arg, tmp389
	movq	%rax, %rdi	# tmp389,
	call	xstrdup	#
	movq	%rax, %rsi	# tmp390, D.9345
	movq	-88(%rbp), %rax	# pfile, tmp391
	movl	$0, %ecx	#,
	movl	$1, %edx	#,
	movq	%rax, %rdi	# tmp391,
	call	append_include_chain	#
	.loc 1 1673 0
	jmp	.L182	#
.L220:
.LBB15:
	.loc 1 1677 0
	movl	$24, %edi	#,
	call	xmalloc	#
	movq	%rax, -16(%rbp)	# tmp392, o
	.loc 1 1679 0
	movq	-16(%rbp), %rax	# o, tmp393
	movq	-48(%rbp), %rdx	# arg, tmp394
	movq	%rdx, 8(%rax)	# tmp394, o_81->arg
	.loc 1 1680 0
	movq	-16(%rbp), %rax	# o, tmp395
	movq	$0, (%rax)	#, o_81->next
	.loc 1 1682 0
	cmpl	$36, -64(%rbp)	#, opt_code
	jne	.L264	#,
	.loc 1 1683 0
	movq	-32(%rbp), %rax	# pend, tmp396
	movq	96(%rax), %rax	# pend_9->include_head, D.9352
	testq	%rax, %rax	# D.9352
	jne	.L265	#,
	.loc 1 1683 0 is_stmt 0 discriminator 1
	movq	-32(%rbp), %rax	# pend, tmp397
	movq	-16(%rbp), %rdx	# o, tmp398
	movq	%rdx, 96(%rax)	# tmp398, pend_9->include_head
	jmp	.L266	#
.L265:
	.loc 1 1683 0 discriminator 2
	movq	-32(%rbp), %rax	# pend, tmp399
	movq	104(%rax), %rax	# pend_9->include_tail, D.9352
	movq	-16(%rbp), %rdx	# o, tmp400
	movq	%rdx, (%rax)	# tmp400, _83->next
.L266:
	.loc 1 1683 0 discriminator 1
	movq	-32(%rbp), %rax	# pend, tmp401
	movq	-16(%rbp), %rdx	# o, tmp402
	movq	%rdx, 104(%rax)	# tmp402, pend_9->include_tail
.LBE15:
	.loc 1 1687 0 is_stmt 1 discriminator 1
	jmp	.L182	#
.L264:
.LBB16:
	.loc 1 1685 0
	movq	-32(%rbp), %rax	# pend, tmp403
	movq	80(%rax), %rax	# pend_9->imacros_head, D.9352
	testq	%rax, %rax	# D.9352
	jne	.L268	#,
	.loc 1 1685 0 is_stmt 0 discriminator 1
	movq	-32(%rbp), %rax	# pend, tmp404
	movq	-16(%rbp), %rdx	# o, tmp405
	movq	%rdx, 80(%rax)	# tmp405, pend_9->imacros_head
	jmp	.L269	#
.L268:
	.loc 1 1685 0 discriminator 2
	movq	-32(%rbp), %rax	# pend, tmp406
	movq	88(%rax), %rax	# pend_9->imacros_tail, D.9352
	movq	-16(%rbp), %rdx	# o, tmp407
	movq	%rdx, (%rax)	# tmp407, _85->next
.L269:
	.loc 1 1685 0 discriminator 1
	movq	-32(%rbp), %rax	# pend, tmp408
	movq	-16(%rbp), %rdx	# o, tmp409
	movq	%rdx, 88(%rax)	# tmp409, pend_9->imacros_tail
.LBE16:
	.loc 1 1687 0 is_stmt 1 discriminator 1
	jmp	.L182	#
.L223:
.LBB17:
	.loc 1 1699 0
	movq	-48(%rbp), %rax	# arg, tmp410
	movq	%rax, %rdi	# tmp410,
	call	strlen	#
	movl	%eax, -60(%rbp)	# D.9343, len
	.loc 1 1701 0
	movq	-88(%rbp), %rax	# pfile, tmp411
	movq	712(%rax), %rax	# pfile_8(D)->opts.include_prefix, D.9347
	testq	%rax, %rax	# D.9347
	je	.L270	#,
.LBB18:
	.loc 1 1703 0
	movq	-88(%rbp), %rax	# pfile, tmp412
	movl	720(%rax), %eax	# pfile_8(D)->opts.include_prefix_len, D.9349
	movl	%eax, %eax	# D.9349, tmp490
	movq	%rax, -8(%rbp)	# tmp490, ipl
	.loc 1 1704 0
	movl	-60(%rbp), %eax	# len, tmp413
	movslq	%eax, %rdx	# tmp413, D.9343
	movq	-8(%rbp), %rax	# ipl, tmp414
	addq	%rdx, %rax	# D.9343, D.9343
	addq	$1, %rax	#, D.9343
	movq	%rax, %rdi	# D.9343,
	call	xmalloc	#
	movq	%rax, -40(%rbp)	# tmp415, fname
	.loc 1 1705 0
	movq	-88(%rbp), %rax	# pfile, tmp416
	movq	712(%rax), %rcx	# pfile_8(D)->opts.include_prefix, D.9347
	movq	-8(%rbp), %rdx	# ipl, tmp417
	movq	-40(%rbp), %rax	# fname, tmp418
	movq	%rcx, %rsi	# D.9347,
	movq	%rax, %rdi	# tmp418,
	call	memcpy	#
	.loc 1 1706 0
	movl	-60(%rbp), %eax	# len, tmp419
	addl	$1, %eax	#, D.9342
	movslq	%eax, %rdx	# D.9342, D.9343
	movq	-8(%rbp), %rax	# ipl, tmp420
	movq	-40(%rbp), %rcx	# fname, tmp421
	addq	%rax, %rcx	# tmp420, D.9345
	movq	-48(%rbp), %rax	# arg, tmp422
	movq	%rax, %rsi	# tmp422,
	movq	%rcx, %rdi	# D.9345,
	call	memcpy	#
.LBE18:
	jmp	.L271	#
.L270:
	.loc 1 1708 0
	movq	cpp_GCC_INCLUDE_DIR_len(%rip), %rax	# cpp_GCC_INCLUDE_DIR_len, cpp_GCC_INCLUDE_DIR_len.24
	testq	%rax, %rax	# cpp_GCC_INCLUDE_DIR_len.24
	je	.L272	#,
	.loc 1 1710 0
	movl	-60(%rbp), %eax	# len, tmp423
	movslq	%eax, %rdx	# tmp423, D.9343
	movq	cpp_GCC_INCLUDE_DIR_len(%rip), %rax	# cpp_GCC_INCLUDE_DIR_len, cpp_GCC_INCLUDE_DIR_len.25
	addq	%rdx, %rax	# D.9343, D.9343
	addq	$1, %rax	#, D.9343
	movq	%rax, %rdi	# D.9343,
	call	xmalloc	#
	movq	%rax, -40(%rbp)	# tmp424, fname
	.loc 1 1711 0
	movq	cpp_GCC_INCLUDE_DIR_len(%rip), %rdx	# cpp_GCC_INCLUDE_DIR_len, cpp_GCC_INCLUDE_DIR_len.26
	movq	-40(%rbp), %rax	# fname, tmp425
	movl	$cpp_GCC_INCLUDE_DIR, %esi	#,
	movq	%rax, %rdi	# tmp425,
	call	memcpy	#
	.loc 1 1712 0
	movl	-60(%rbp), %eax	# len, tmp426
	addl	$1, %eax	#, D.9342
	movslq	%eax, %rdx	# D.9342, D.9343
	movq	cpp_GCC_INCLUDE_DIR_len(%rip), %rcx	# cpp_GCC_INCLUDE_DIR_len, cpp_GCC_INCLUDE_DIR_len.27
	movq	-40(%rbp), %rax	# fname, tmp427
	addq	%rax, %rcx	# tmp427, D.9345
	movq	-48(%rbp), %rax	# arg, tmp428
	movq	%rax, %rsi	# tmp428,
	movq	%rcx, %rdi	# D.9345,
	call	memcpy	#
	jmp	.L271	#
.L272:
	.loc 1 1715 0
	movq	-48(%rbp), %rax	# arg, tmp429
	movq	%rax, %rdi	# tmp429,
	call	xstrdup	#
	movq	%rax, -40(%rbp)	# tmp430, fname
.L271:
	.loc 1 1717 0
	cmpl	$39, -64(%rbp)	#, opt_code
	sete	%al	#, D.9350
	movzbl	%al, %edx	# D.9350, D.9342
	movq	-40(%rbp), %rsi	# fname, tmp431
	movq	-88(%rbp), %rax	# pfile, tmp432
	movl	$0, %ecx	#,
	movq	%rax, %rdi	# tmp432,
	call	append_include_chain	#
.LBE17:
	.loc 1 1720 0
	jmp	.L182	#
.L219:
	.loc 1 1723 0
	movq	-48(%rbp), %rax	# arg, tmp433
	movq	%rax, %rdi	# tmp433,
	call	xstrdup	#
	movq	%rax, %rsi	# tmp434, D.9345
	movq	-88(%rbp), %rax	# pfile, tmp435
	movl	$0, %ecx	#,
	movl	$2, %edx	#,
	movq	%rax, %rdi	# tmp435,
	call	append_include_chain	#
	.loc 1 1724 0
	jmp	.L182	#
.L207:
	.loc 1 1727 0
	movl	-72(%rbp), %eax	# i, tmp436
	cltq
	leaq	0(,%rax,8), %rdx	#, D.9343
	movq	-104(%rbp), %rax	# argv, tmp437
	addq	%rdx, %rax	# D.9343, D.9344
	movq	(%rax), %rax	# *_116, D.9345
	movl	$.LC140, %esi	#,
	movq	%rax, %rdi	# D.9345,
	call	strcmp	#
	testl	%eax, %eax	# D.9342
	jne	.L273	#,
	.loc 1 1729 0
	movq	-88(%rbp), %rax	# pfile, tmp438
	movb	$1, 759(%rax)	#, pfile_8(D)->opts.warn_trigraphs
	.loc 1 1730 0
	movq	-88(%rbp), %rax	# pfile, tmp439
	movb	$1, 758(%rax)	#, pfile_8(D)->opts.warn_comments
	jmp	.L274	#
.L273:
	.loc 1 1732 0
	movl	-72(%rbp), %eax	# i, tmp440
	cltq
	leaq	0(,%rax,8), %rdx	#, D.9343
	movq	-104(%rbp), %rax	# argv, tmp441
	addq	%rdx, %rax	# D.9343, D.9344
	movq	(%rax), %rax	# *_121, D.9345
	movl	$.LC141, %esi	#,
	movq	%rax, %rdi	# D.9345,
	call	strcmp	#
	testl	%eax, %eax	# D.9342
	jne	.L275	#,
	.loc 1 1733 0
	movq	-88(%rbp), %rax	# pfile, tmp442
	movb	$1, 761(%rax)	#, pfile_8(D)->opts.warn_traditional
	jmp	.L274	#
.L275:
	.loc 1 1734 0
	movl	-72(%rbp), %eax	# i, tmp443
	cltq
	leaq	0(,%rax,8), %rdx	#, D.9343
	movq	-104(%rbp), %rax	# argv, tmp444
	addq	%rdx, %rax	# D.9343, D.9344
	movq	(%rax), %rax	# *_126, D.9345
	movl	$.LC142, %esi	#,
	movq	%rax, %rdi	# D.9345,
	call	strcmp	#
	testl	%eax, %eax	# D.9342
	jne	.L276	#,
	.loc 1 1735 0
	movq	-88(%rbp), %rax	# pfile, tmp445
	movb	$1, 759(%rax)	#, pfile_8(D)->opts.warn_trigraphs
	jmp	.L274	#
.L276:
	.loc 1 1736 0
	movl	-72(%rbp), %eax	# i, tmp446
	cltq
	leaq	0(,%rax,8), %rdx	#, D.9343
	movq	-104(%rbp), %rax	# argv, tmp447
	addq	%rdx, %rax	# D.9343, D.9344
	movq	(%rax), %rax	# *_131, D.9345
	movl	$.LC143, %esi	#,
	movq	%rax, %rdi	# D.9345,
	call	strcmp	#
	testl	%eax, %eax	# D.9342
	jne	.L277	#,
	.loc 1 1737 0
	movq	-88(%rbp), %rax	# pfile, tmp448
	movb	$1, 758(%rax)	#, pfile_8(D)->opts.warn_comments
	jmp	.L274	#
.L277:
	.loc 1 1738 0
	movl	-72(%rbp), %eax	# i, tmp449
	cltq
	leaq	0(,%rax,8), %rdx	#, D.9343
	movq	-104(%rbp), %rax	# argv, tmp450
	addq	%rdx, %rax	# D.9343, D.9344
	movq	(%rax), %rax	# *_136, D.9345
	movl	$.LC144, %esi	#,
	movq	%rax, %rdi	# D.9345,
	call	strcmp	#
	testl	%eax, %eax	# D.9342
	jne	.L278	#,
	.loc 1 1739 0
	movq	-88(%rbp), %rax	# pfile, tmp451
	movb	$1, 758(%rax)	#, pfile_8(D)->opts.warn_comments
	jmp	.L274	#
.L278:
	.loc 1 1740 0
	movl	-72(%rbp), %eax	# i, tmp452
	cltq
	leaq	0(,%rax,8), %rdx	#, D.9343
	movq	-104(%rbp), %rax	# argv, tmp453
	addq	%rdx, %rax	# D.9343, D.9344
	movq	(%rax), %rax	# *_141, D.9345
	movl	$.LC145, %esi	#,
	movq	%rax, %rdi	# D.9345,
	call	strcmp	#
	testl	%eax, %eax	# D.9342
	jne	.L279	#,
	.loc 1 1741 0
	movq	-88(%rbp), %rax	# pfile, tmp454
	movb	$1, 768(%rax)	#, pfile_8(D)->opts.warn_undef
	jmp	.L274	#
.L279:
	.loc 1 1742 0
	movl	-72(%rbp), %eax	# i, tmp455
	cltq
	leaq	0(,%rax,8), %rdx	#, D.9343
	movq	-104(%rbp), %rax	# argv, tmp456
	addq	%rdx, %rax	# D.9343, D.9344
	movq	(%rax), %rax	# *_146, D.9345
	movl	$.LC146, %esi	#,
	movq	%rax, %rdi	# D.9345,
	call	strcmp	#
	testl	%eax, %eax	# D.9342
	jne	.L280	#,
	.loc 1 1743 0
	movq	-88(%rbp), %rax	# pfile, tmp457
	movb	$1, 760(%rax)	#, pfile_8(D)->opts.warn_import
	jmp	.L274	#
.L280:
	.loc 1 1744 0
	movl	-72(%rbp), %eax	# i, tmp458
	cltq
	leaq	0(,%rax,8), %rdx	#, D.9343
	movq	-104(%rbp), %rax	# argv, tmp459
	addq	%rdx, %rax	# D.9343, D.9344
	movq	(%rax), %rax	# *_151, D.9345
	movl	$.LC147, %esi	#,
	movq	%rax, %rdi	# D.9345,
	call	strcmp	#
	testl	%eax, %eax	# D.9342
	jne	.L281	#,
	.loc 1 1745 0
	movq	-88(%rbp), %rax	# pfile, tmp460
	movb	$1, 762(%rax)	#, pfile_8(D)->opts.warnings_are_errors
	jmp	.L274	#
.L281:
	.loc 1 1746 0
	movl	-72(%rbp), %eax	# i, tmp461
	cltq
	leaq	0(,%rax,8), %rdx	#, D.9343
	movq	-104(%rbp), %rax	# argv, tmp462
	addq	%rdx, %rax	# D.9343, D.9344
	movq	(%rax), %rax	# *_156, D.9345
	movl	$.LC148, %esi	#,
	movq	%rax, %rdi	# D.9345,
	call	strcmp	#
	testl	%eax, %eax	# D.9342
	jne	.L282	#,
	.loc 1 1747 0
	movq	-88(%rbp), %rax	# pfile, tmp463
	movb	$1, 756(%rax)	#, pfile_8(D)->opts.warn_system_headers
	jmp	.L274	#
.L282:
	.loc 1 1748 0
	movl	-72(%rbp), %eax	# i, tmp464
	cltq
	leaq	0(,%rax,8), %rdx	#, D.9343
	movq	-104(%rbp), %rax	# argv, tmp465
	addq	%rdx, %rax	# D.9343, D.9344
	movq	(%rax), %rax	# *_161, D.9345
	movl	$.LC149, %esi	#,
	movq	%rax, %rdi	# D.9345,
	call	strcmp	#
	testl	%eax, %eax	# D.9342
	jne	.L283	#,
	.loc 1 1749 0
	movq	-88(%rbp), %rax	# pfile, tmp466
	movb	$0, 761(%rax)	#, pfile_8(D)->opts.warn_traditional
	jmp	.L274	#
.L283:
	.loc 1 1750 0
	movl	-72(%rbp), %eax	# i, tmp467
	cltq
	leaq	0(,%rax,8), %rdx	#, D.9343
	movq	-104(%rbp), %rax	# argv, tmp468
	addq	%rdx, %rax	# D.9343, D.9344
	movq	(%rax), %rax	# *_166, D.9345
	movl	$.LC150, %esi	#,
	movq	%rax, %rdi	# D.9345,
	call	strcmp	#
	testl	%eax, %eax	# D.9342
	jne	.L284	#,
	.loc 1 1751 0
	movq	-88(%rbp), %rax	# pfile, tmp469
	movb	$0, 759(%rax)	#, pfile_8(D)->opts.warn_trigraphs
	jmp	.L274	#
.L284:
	.loc 1 1752 0
	movl	-72(%rbp), %eax	# i, tmp470
	cltq
	leaq	0(,%rax,8), %rdx	#, D.9343
	movq	-104(%rbp), %rax	# argv, tmp471
	addq	%rdx, %rax	# D.9343, D.9344
	movq	(%rax), %rax	# *_171, D.9345
	movl	$.LC151, %esi	#,
	movq	%rax, %rdi	# D.9345,
	call	strcmp	#
	testl	%eax, %eax	# D.9342
	jne	.L285	#,
	.loc 1 1753 0
	movq	-88(%rbp), %rax	# pfile, tmp472
	movb	$0, 758(%rax)	#, pfile_8(D)->opts.warn_comments
	jmp	.L274	#
.L285:
	.loc 1 1754 0
	movl	-72(%rbp), %eax	# i, tmp473
	cltq
	leaq	0(,%rax,8), %rdx	#, D.9343
	movq	-104(%rbp), %rax	# argv, tmp474
	addq	%rdx, %rax	# D.9343, D.9344
	movq	(%rax), %rax	# *_176, D.9345
	movl	$.LC152, %esi	#,
	movq	%rax, %rdi	# D.9345,
	call	strcmp	#
	testl	%eax, %eax	# D.9342
	jne	.L286	#,
	.loc 1 1755 0
	movq	-88(%rbp), %rax	# pfile, tmp475
	movb	$0, 758(%rax)	#, pfile_8(D)->opts.warn_comments
	jmp	.L274	#
.L286:
	.loc 1 1756 0
	movl	-72(%rbp), %eax	# i, tmp476
	cltq
	leaq	0(,%rax,8), %rdx	#, D.9343
	movq	-104(%rbp), %rax	# argv, tmp477
	addq	%rdx, %rax	# D.9343, D.9344
	movq	(%rax), %rax	# *_181, D.9345
	movl	$.LC153, %esi	#,
	movq	%rax, %rdi	# D.9345,
	call	strcmp	#
	testl	%eax, %eax	# D.9342
	jne	.L287	#,
	.loc 1 1757 0
	movq	-88(%rbp), %rax	# pfile, tmp478
	movb	$0, 768(%rax)	#, pfile_8(D)->opts.warn_undef
	jmp	.L274	#
.L287:
	.loc 1 1758 0
	movl	-72(%rbp), %eax	# i, tmp479
	cltq
	leaq	0(,%rax,8), %rdx	#, D.9343
	movq	-104(%rbp), %rax	# argv, tmp480
	addq	%rdx, %rax	# D.9343, D.9344
	movq	(%rax), %rax	# *_186, D.9345
	movl	$.LC154, %esi	#,
	movq	%rax, %rdi	# D.9345,
	call	strcmp	#
	testl	%eax, %eax	# D.9342
	jne	.L288	#,
	.loc 1 1759 0
	movq	-88(%rbp), %rax	# pfile, tmp481
	movb	$0, 760(%rax)	#, pfile_8(D)->opts.warn_import
	jmp	.L274	#
.L288:
	.loc 1 1760 0
	movl	-72(%rbp), %eax	# i, tmp482
	cltq
	leaq	0(,%rax,8), %rdx	#, D.9343
	movq	-104(%rbp), %rax	# argv, tmp483
	addq	%rdx, %rax	# D.9343, D.9344
	movq	(%rax), %rax	# *_191, D.9345
	movl	$.LC155, %esi	#,
	movq	%rax, %rdi	# D.9345,
	call	strcmp	#
	testl	%eax, %eax	# D.9342
	jne	.L289	#,
	.loc 1 1761 0
	movq	-88(%rbp), %rax	# pfile, tmp484
	movb	$0, 762(%rax)	#, pfile_8(D)->opts.warnings_are_errors
	jmp	.L274	#
.L289:
	.loc 1 1762 0
	movl	-72(%rbp), %eax	# i, tmp485
	cltq
	leaq	0(,%rax,8), %rdx	#, D.9343
	movq	-104(%rbp), %rax	# argv, tmp486
	addq	%rdx, %rax	# D.9343, D.9344
	movq	(%rax), %rax	# *_196, D.9345
	movl	$.LC156, %esi	#,
	movq	%rax, %rdi	# D.9345,
	call	strcmp	#
	testl	%eax, %eax	# D.9342
	jne	.L290	#,
	.loc 1 1763 0
	movq	-88(%rbp), %rax	# pfile, tmp487
	movb	$0, 756(%rax)	#, pfile_8(D)->opts.warn_system_headers
	jmp	.L274	#
.L290:
	.loc 1 1764 0
	cmpl	$0, -96(%rbp)	#, ignore
	jne	.L274	#,
	.loc 1 1765 0
	movl	-72(%rbp), %eax	# i, D.9342
	jmp	.L184	#
.L274:
	.loc 1 1766 0
	jmp	.L182	#
.L291:
	.loc 1 1397 0
	nop
.L182:
.LBE12:
	.loc 1 1769 0
	movl	-72(%rbp), %eax	# i, tmp488
	addl	$1, %eax	#, D.9342
.L184:
	.loc 1 1770 0
	leave
	.cfi_def_cfa 7, 8
	ret
	.cfi_endproc
.LFE30:
	.size	cpp_handle_option, .-cpp_handle_option
	.globl	cpp_handle_options
	.type	cpp_handle_options, @function
cpp_handle_options:
.LFB31:
	.loc 1 1781 0
	.cfi_startproc
	pushq	%rbp	#
	.cfi_def_cfa_offset 16
	.cfi_offset 6, -16
	movq	%rsp, %rbp	#,
	.cfi_def_cfa_register 6
	subq	$48, %rsp	#,
	movq	%rdi, -24(%rbp)	# pfile, pfile
	movl	%esi, -28(%rbp)	# argc, argc
	movq	%rdx, -40(%rbp)	# argv, argv
	.loc 1 1785 0
	movl	$0, -8(%rbp)	#, i
	jmp	.L294	#
.L297:
	.loc 1 1787 0
	movl	-8(%rbp), %eax	# i, tmp65
	cltq
	leaq	0(,%rax,8), %rdx	#, D.9378
	movq	-40(%rbp), %rax	# argv, tmp66
	addq	%rax, %rdx	# tmp66, D.9379
	movl	-8(%rbp), %eax	# i, tmp67
	movl	-28(%rbp), %ecx	# argc, tmp68
	subl	%eax, %ecx	# tmp67, D.9380
	movl	%ecx, %esi	# D.9380, D.9380
	movq	-24(%rbp), %rax	# pfile, tmp69
	movl	$1, %ecx	#,
	movq	%rax, %rdi	# tmp69,
	call	cpp_handle_option	#
	movl	%eax, -4(%rbp)	# tmp70, strings_processed
	.loc 1 1788 0
	cmpl	$0, -4(%rbp)	#, strings_processed
	jne	.L295	#,
	.loc 1 1789 0
	jmp	.L296	#
.L295:
	.loc 1 1785 0
	movl	-4(%rbp), %eax	# strings_processed, tmp71
	addl	%eax, -8(%rbp)	# tmp71, i
.L294:
	.loc 1 1785 0 is_stmt 0 discriminator 1
	movl	-8(%rbp), %eax	# i, tmp72
	cmpl	-28(%rbp), %eax	# argc, tmp72
	jl	.L297	#,
.L296:
	.loc 1 1792 0 is_stmt 1
	movl	-8(%rbp), %eax	# i, D.9380
	.loc 1 1793 0
	leave
	.cfi_def_cfa 7, 8
	ret
	.cfi_endproc
.LFE31:
	.size	cpp_handle_options, .-cpp_handle_options
	.section	.rodata
.LC157:
	.string	"GNU CPP version %s (cpplib)"
.LC158:
	.string	" (x86-64 Linux/ELF)"
	.align 8
.LC159:
	.string	"you must additionally specify either -M or -MM"
	.text
	.globl	cpp_post_options
	.type	cpp_post_options, @function
cpp_post_options:
.LFB32:
	.loc 1 1800 0
	.cfi_startproc
	pushq	%rbp	#
	.cfi_def_cfa_offset 16
	.cfi_offset 6, -16
	movq	%rsp, %rbp	#,
	.cfi_def_cfa_register 6
	subq	$16, %rsp	#,
	movq	%rdi, -8(%rbp)	# pfile, pfile
	.loc 1 1801 0
	movq	-8(%rbp), %rax	# pfile, tmp80
	movzbl	824(%rax), %eax	# pfile_1(D)->print_version, D.9381
	testb	%al, %al	# D.9381
	je	.L300	#,
	.loc 1 1803 0
	movq	version_string(%rip), %rdx	# version_string, version_string.28
	movq	stderr(%rip), %rax	# stderr, stderr.29
	movl	$.LC157, %esi	#,
	movq	%rax, %rdi	# stderr.29,
	movl	$0, %eax	#,
	call	fprintf	#
	.loc 1 1805 0
	movq	stderr(%rip), %rax	# stderr, stderr.30
	movq	%rax, %rcx	# stderr.30,
	movl	$19, %edx	#,
	movl	$1, %esi	#,
	movl	$.LC158, %edi	#,
	call	fwrite	#
	.loc 1 1807 0
	movq	stderr(%rip), %rax	# stderr, stderr.31
	movq	%rax, %rsi	# stderr.31,
	movl	$10, %edi	#,
	call	fputc	#
.L300:
	.loc 1 1812 0
	movq	-8(%rbp), %rax	# pfile, tmp81
	movq	648(%rax), %rax	# pfile_1(D)->opts.in_fname, D.9382
	testq	%rax, %rax	# D.9382
	je	.L301	#,
	.loc 1 1813 0
	movq	-8(%rbp), %rax	# pfile, tmp82
	movq	648(%rax), %rax	# pfile_1(D)->opts.in_fname, D.9382
	movl	$.LC138, %esi	#,
	movq	%rax, %rdi	# D.9382,
	call	strcmp	#
	testl	%eax, %eax	# D.9383
	jne	.L302	#,
.L301:
	.loc 1 1814 0
	movq	-8(%rbp), %rax	# pfile, tmp83
	movq	$.LC17, 648(%rax)	#, pfile_1(D)->opts.in_fname
.L302:
	.loc 1 1816 0
	movq	-8(%rbp), %rax	# pfile, tmp84
	movq	656(%rax), %rax	# pfile_1(D)->opts.out_fname, D.9382
	testq	%rax, %rax	# D.9382
	je	.L303	#,
	.loc 1 1817 0
	movq	-8(%rbp), %rax	# pfile, tmp85
	movq	656(%rax), %rax	# pfile_1(D)->opts.out_fname, D.9382
	movl	$.LC138, %esi	#,
	movq	%rax, %rdi	# D.9382,
	call	strcmp	#
	testl	%eax, %eax	# D.9383
	jne	.L304	#,
.L303:
	.loc 1 1818 0
	movq	-8(%rbp), %rax	# pfile, tmp86
	movq	$.LC17, 656(%rax)	#, pfile_1(D)->opts.out_fname
.L304:
	.loc 1 1821 0
	movq	-8(%rbp), %rax	# pfile, tmp87
	movzbl	742(%rax), %eax	# pfile_1(D)->opts.cplusplus, D.9381
	testb	%al, %al	# D.9381
	je	.L305	#,
	.loc 1 1822 0
	movq	-8(%rbp), %rax	# pfile, tmp88
	movb	$0, 761(%rax)	#, pfile_1(D)->opts.warn_traditional
.L305:
	.loc 1 1825 0
	movq	-8(%rbp), %rax	# pfile, tmp89
	movq	728(%rax), %rax	# pfile_1(D)->opts.user_label_prefix, D.9382
	testq	%rax, %rax	# D.9382
	jne	.L306	#,
	.loc 1 1826 0
	movq	-8(%rbp), %rax	# pfile, tmp90
	movq	$.LC17, 728(%rax)	#, pfile_1(D)->opts.user_label_prefix
.L306:
	.loc 1 1830 0
	movq	-8(%rbp), %rax	# pfile, tmp91
	movzbl	771(%rax), %eax	# pfile_1(D)->opts.preprocessed, D.9381
	testb	%al, %al	# D.9381
	je	.L307	#,
	.loc 1 1831 0
	movq	-8(%rbp), %rax	# pfile, tmp92
	movb	$1, 15(%rax)	#, pfile_1(D)->state.prevent_expansion
.L307:
	.loc 1 1835 0
	movq	-8(%rbp), %rax	# pfile, tmp93
	movzbl	774(%rax), %eax	# pfile_1(D)->opts.dump_macros, D.9381
	cmpb	$1, %al	#, D.9381
	jne	.L308	#,
	.loc 1 1836 0
	movq	-8(%rbp), %rax	# pfile, tmp94
	movb	$1, 763(%rax)	#, pfile_1(D)->opts.no_output
.L308:
	.loc 1 1841 0
	movq	-8(%rbp), %rax	# pfile, tmp95
	movzbl	763(%rax), %eax	# pfile_1(D)->opts.no_output, D.9381
	testb	%al, %al	# D.9381
	je	.L309	#,
	.loc 1 1843 0
	movq	-8(%rbp), %rax	# pfile, tmp96
	movzbl	774(%rax), %eax	# pfile_1(D)->opts.dump_macros, D.9381
	cmpb	$1, %al	#, D.9381
	je	.L310	#,
	.loc 1 1844 0
	movq	-8(%rbp), %rax	# pfile, tmp97
	movb	$0, 774(%rax)	#, pfile_1(D)->opts.dump_macros
.L310:
	.loc 1 1845 0
	movq	-8(%rbp), %rax	# pfile, tmp98
	movb	$0, 775(%rax)	#, pfile_1(D)->opts.dump_includes
.L309:
	.loc 1 1851 0
	movq	-8(%rbp), %rax	# pfile, tmp99
	movq	%rax, %rdi	# tmp99,
	call	init_dependency_output	#
	.loc 1 1855 0
	movq	-8(%rbp), %rax	# pfile, tmp100
	movzbl	749(%rax), %eax	# pfile_1(D)->opts.print_deps, D.9381
	testb	%al, %al	# D.9381
	jne	.L299	#,
	.loc 1 1856 0 discriminator 1
	movq	-8(%rbp), %rax	# pfile, tmp101
	movzbl	751(%rax), %eax	# pfile_1(D)->opts.print_deps_missing_files, D.9381
	.loc 1 1855 0 discriminator 1
	testb	%al, %al	# D.9381
	jne	.L312	#,
	.loc 1 1857 0
	movq	-8(%rbp), %rax	# pfile, tmp102
	movq	680(%rax), %rax	# pfile_1(D)->opts.deps_file, D.9382
	testq	%rax, %rax	# D.9382
	jne	.L312	#,
	.loc 1 1858 0
	movq	-8(%rbp), %rax	# pfile, tmp103
	movzbl	750(%rax), %eax	# pfile_1(D)->opts.deps_phony_targets, D.9381
	testb	%al, %al	# D.9381
	je	.L299	#,
.L312:
	.loc 1 1859 0
	movq	-8(%rbp), %rax	# pfile, tmp104
	movl	$.LC159, %esi	#,
	movq	%rax, %rdi	# tmp104,
	movl	$0, %eax	#,
	call	cpp_fatal	#
.L299:
	.loc 1 1860 0
	leave
	.cfi_def_cfa 7, 8
	ret
	.cfi_endproc
.LFE32:
	.size	cpp_post_options, .-cpp_post_options
	.section	.rodata
.LC160:
	.string	"DEPENDENCIES_OUTPUT"
.LC161:
	.string	"SUNPRO_DEPENDENCIES"
	.text
	.type	init_dependency_output, @function
init_dependency_output:
.LFB33:
	.loc 1 1867 0
	.cfi_startproc
	pushq	%rbp	#
	.cfi_def_cfa_offset 16
	.cfi_offset 6, -16
	movq	%rsp, %rbp	#,
	.cfi_def_cfa_register 6
	subq	$48, %rsp	#,
	movq	%rdi, -40(%rbp)	# pfile, pfile
	.loc 1 1875 0
	movq	-40(%rbp), %rax	# pfile, tmp79
	movzbl	749(%rax), %eax	# pfile_3(D)->opts.print_deps, D.9387
	testb	%al, %al	# D.9387
	jne	.L314	#,
	.loc 1 1877 0
	movl	$.LC160, %edi	#,
	call	getenv	#
	movq	%rax, -24(%rbp)	# tmp80, spec
	.loc 1 1878 0
	cmpq	$0, -24(%rbp)	#, spec
	je	.L315	#,
	.loc 1 1879 0
	movq	-40(%rbp), %rax	# pfile, tmp81
	movb	$1, 749(%rax)	#, pfile_3(D)->opts.print_deps
	jmp	.L316	#
.L315:
	.loc 1 1882 0
	movl	$.LC161, %edi	#,
	call	getenv	#
	movq	%rax, -24(%rbp)	# tmp82, spec
	.loc 1 1883 0
	cmpq	$0, -24(%rbp)	#, spec
	je	.L317	#,
	.loc 1 1884 0
	movq	-40(%rbp), %rax	# pfile, tmp83
	movb	$2, 749(%rax)	#, pfile_3(D)->opts.print_deps
	jmp	.L316	#
.L317:
	.loc 1 1886 0
	jmp	.L313	#
.L316:
	.loc 1 1890 0
	movq	-24(%rbp), %rax	# spec, tmp84
	movl	$32, %esi	#,
	movq	%rax, %rdi	# tmp84,
	call	strchr	#
	movq	%rax, -8(%rbp)	# tmp85, s
	.loc 1 1891 0
	cmpq	$0, -8(%rbp)	#, s
	je	.L319	#,
	.loc 1 1894 0
	movq	-8(%rbp), %rax	# s, tmp86
	leaq	1(%rax), %rcx	#, D.9388
	movq	-40(%rbp), %rax	# pfile, tmp87
	movq	392(%rax), %rax	# pfile_3(D)->deps, D.9389
	movl	$0, %edx	#,
	movq	%rcx, %rsi	# D.9388,
	movq	%rax, %rdi	# D.9389,
	call	deps_add_target	#
	.loc 1 1895 0
	movq	-8(%rbp), %rdx	# s, s.32
	movq	-24(%rbp), %rax	# spec, spec.33
	subq	%rax, %rdx	# spec.33, D.9390
	movq	%rdx, %rax	# D.9390, D.9390
	addq	$1, %rax	#, D.9390
	movq	%rax, %rdi	# D.9391,
	call	xmalloc	#
	movq	%rax, -16(%rbp)	# tmp88, output_file
	.loc 1 1896 0
	movq	-8(%rbp), %rdx	# s, s.34
	movq	-24(%rbp), %rax	# spec, spec.35
	subq	%rax, %rdx	# spec.35, D.9390
	movq	%rdx, %rax	# D.9390, D.9390
	movq	%rax, %rdx	# D.9390, D.9391
	movq	-24(%rbp), %rcx	# spec, tmp89
	movq	-16(%rbp), %rax	# output_file, tmp90
	movq	%rcx, %rsi	# tmp89,
	movq	%rax, %rdi	# tmp90,
	call	memcpy	#
	.loc 1 1897 0
	movq	-8(%rbp), %rdx	# s, s.36
	movq	-24(%rbp), %rax	# spec, spec.37
	subq	%rax, %rdx	# spec.37, D.9390
	movq	%rdx, %rax	# D.9390, D.9390
	movq	%rax, %rdx	# D.9390, D.9392
	movq	-16(%rbp), %rax	# output_file, tmp91
	addq	%rdx, %rax	# D.9392, D.9393
	movb	$0, (%rax)	#, *_24
	jmp	.L320	#
.L319:
	.loc 1 1900 0
	movq	-24(%rbp), %rax	# spec, tmp92
	movq	%rax, -16(%rbp)	# tmp92, output_file
.L320:
	.loc 1 1903 0
	movq	-40(%rbp), %rax	# pfile, tmp93
	movq	680(%rax), %rax	# pfile_3(D)->opts.deps_file, D.9388
	testq	%rax, %rax	# D.9388
	jne	.L321	#,
	.loc 1 1904 0
	movq	-40(%rbp), %rax	# pfile, tmp94
	movq	-16(%rbp), %rdx	# output_file, tmp95
	movq	%rdx, 680(%rax)	# tmp95, pfile_3(D)->opts.deps_file
.L321:
	.loc 1 1906 0
	movq	-40(%rbp), %rax	# pfile, tmp96
	movb	$1, 752(%rax)	#, pfile_3(D)->opts.print_deps_append
	jmp	.L313	#
.L314:
	.loc 1 1908 0
	movq	-40(%rbp), %rax	# pfile, tmp97
	movq	680(%rax), %rax	# pfile_3(D)->opts.deps_file, D.9388
	testq	%rax, %rax	# D.9388
	jne	.L313	#,
	.loc 1 1911 0
	movq	-40(%rbp), %rax	# pfile, tmp98
	movq	656(%rax), %rdx	# pfile_3(D)->opts.out_fname, D.9388
	movq	-40(%rbp), %rax	# pfile, tmp99
	movq	%rdx, 680(%rax)	# D.9388, pfile_3(D)->opts.deps_file
.L313:
	.loc 1 1912 0
	leave
	.cfi_def_cfa 7, 8
	ret
	.cfi_endproc
.LFE33:
	.size	init_dependency_output, .-init_dependency_output
	.section	.rodata
	.align 8
.LC162:
	.ascii	"Switches:\n  -include <file>           Include the contents "
	.ascii	"of <file> before other files\n  -imacros <file>           Ac"
	.ascii	"cept definition of macros in <file>\n  -iprefix <path>      "
	.ascii	"     Specify <path> as a "
	.string	"prefix for next two options\n  -iwithprefix <dir>        Add <dir> to the end of the system include path\n  -iwithprefixbefore <dir>  Add <dir> to the end of the main include path\n  -isystem <dir>            Add <dir> to the start of the system include path\n"
	.align 8
.LC163:
	.ascii	"  -idirafter <dir>          Add <dir> to the end of the syst"
	.ascii	"em include path\n  -I <dir>                  Add <dir> to th"
	.ascii	"e end of the main include path\n  -I-                       "
	.ascii	"Fine-grained include path control; see info docs\n  -nostdin"
	.ascii	"c         "
	.string	"        Do not search system include directories\n                             (dirs specified with -isystem will still be used)\n  -nostdinc++               Do not search system include directories for C++\n  -o <file>                 Put output into <file>\n"
	.align 8
.LC164:
	.ascii	"  -pedantic                 Issue all warnings demanded by s"
	.ascii	"trict ISO C\n  -"
	.string	"pedantic-errors          Issue -pedantic warnings as errors instead\n  -trigraphs                Support ISO C trigraphs\n  -lang-c                   Assume that the input sources are in C\n  -lang-c89                 Assume that the input sources are in C89\n"
	.align 8
.LC165:
	.ascii	"  -lang-c++                 Assume that th"
	.string	"e input sources are in C++\n  -lang-objc                Assume that the input sources are in ObjectiveC\n  -lang-objc++              Assume that the input sources are in ObjectiveC++\n  -lang-asm                 Assume that the input sources are in assembler\n"
	.align 8
.LC166:
	.ascii	"  -std=<std name>           Specify the conformance standard"
	.ascii	"; one of:\n                            gnu89, gnu99, c89, c9"
	.ascii	"9, iso9899:1990,\n                            iso9899:199409"
	.ascii	", iso9899:1999\n  -+                        Allow parsing of"
	.ascii	" C++ "
	.string	"style features\n  -w                        Inhibit warning messages\n  -Wtrigraphs               Warn if trigraphs are encountered\n  -Wno-trigraphs            Do not warn about trigraphs\n  -Wcomment{s}              Warn if one comment starts inside another\n"
	.align 8
.LC167:
	.ascii	"  -Wno-comment{s}           Do not warn about comments\n  -W"
	.ascii	"traditional             Warn about features not present in t"
	.ascii	"raditional C\n  -Wno-traditiona"
	.string	"l          Do not warn about traditional C\n  -Wundef                   Warn if an undefined macro is used by #if\n  -Wno-undef                Do not warn about testing undefined macros\n  -Wimport                  Warn about the use of the #import directive\n"
	.align 8
.LC168:
	.ascii	"  -Wno-import               Do not warn about the use of #im"
	.ascii	"port\n  -Werror                   Treat all warnings as erro"
	.ascii	"rs\n  -W"
	.string	"no-error                Do not treat warnings as errors\n  -Wsystem-headers          Do not suppress warnings from system headers\n  -Wno-system-headers       Suppress warnings from system headers\n  -Wall                     Enable all preprocessor warnings\n"
	.align 8
.LC169:
	.ascii	"  -M                        Generate make dependencies\n  -M"
	.ascii	"M                       As -M, but ignore system header file"
	.ascii	"s\n  -MD                "
	.string	"       Generate make dependencies and compile\n  -MMD                      As -MD, but ignore system header files\n  -MF <file>                Write dependency output to the given file\n  -MG                       Treat missing header file as generated files\n"
	.align 8
.LC170:
	.string	"  -MP\t\t\t    Generate phony targets for all headers\n  -MQ <target>              Add a MAKE-quoted target\n  -MT <target>              Add an unquoted target\n"
	.align 8
.LC171:
	.ascii	"  -D<macro>                 Define a <macro> with string '1'"
	.ascii	" as its value\n  -D<macro>=<val>           Define a <m"
	.string	"acro> with <val> as its value\n  -A<question>=<answer>     Assert the <answer> to <question>\n  -A-<question>=<answer>    Disable the <answer> to <question>\n  -U<macro>                 Undefine <macro> \n  -v                        Display the version number\n"
	.align 8
.LC172:
	.ascii	"  -H                        Print the name of header files a"
	.ascii	"s they are used\n  -C                        Do not discard "
	.ascii	"comments\n  -dM                       Displ"
	.string	"ay a list of macro definitions active at end\n  -dD                       Preserve macro definitions in output\n  -dN                       As -dD except that only the names are preserved\n  -dI                       Include #include directives in the output\n"
	.align 8
.LC173:
	.ascii	"  -fpreprocessed            Treat the input file as already "
	.ascii	"preprocessed\n  -ftabstop=<number>        Distance between t"
	.ascii	"ab stops for column reporting\n  -P                        D"
	.ascii	"o not gener"
	.string	"ate #line directives\n  -$                        Do not allow '$' in identifiers\n  -remap                    Remap file names when including files\n  --version                 Display version information\n  -h or --help              Display this information\n"
	.text
	.type	print_help, @function
print_help:
.LFB34:
	.loc 1 1917 0
	.cfi_startproc
	pushq	%rbp	#
	.cfi_def_cfa_offset 16
	.cfi_offset 6, -16
	movq	%rsp, %rbp	#,
	.cfi_def_cfa_register 6
	.loc 1 1920 0
	movq	stdout(%rip), %rax	# stdout, stdout.38
	movq	%rax, %rcx	# stdout.38,
	movl	$458, %edx	#,
	movl	$1, %esi	#,
	movl	$.LC162, %edi	#,
	call	fwrite	#
	.loc 1 1929 0
	movq	stdout(%rip), %rax	# stdout, stdout.39
	movq	%rax, %rcx	# stdout.39,
	movl	$503, %edx	#,
	movl	$1, %esi	#,
	movl	$.LC163, %edi	#,
	call	fwrite	#
	.loc 1 1938 0
	movq	stdout(%rip), %rax	# stdout, stdout.40
	movq	%rax, %rcx	# stdout.40,
	movl	$331, %edx	#,
	movl	$1, %esi	#,
	movl	$.LC164, %edi	#,
	call	fwrite	#
	.loc 1 1945 0
	movq	stdout(%rip), %rax	# stdout, stdout.41
	movq	%rax, %rcx	# stdout.41,
	movl	$298, %edx	#,
	movl	$1, %esi	#,
	movl	$.LC165, %edi	#,
	call	fwrite	#
	.loc 1 1951 0
	movq	stdout(%rip), %rax	# stdout, stdout.42
	movq	%rax, %rcx	# stdout.42,
	movl	$498, %edx	#,
	movl	$1, %esi	#,
	movl	$.LC166, %edi	#,
	call	fwrite	#
	.loc 1 1961 0
	movq	stdout(%rip), %rax	# stdout, stdout.43
	movq	%rax, %rcx	# stdout.43,
	movl	$405, %edx	#,
	movl	$1, %esi	#,
	movl	$.LC167, %edi	#,
	call	fwrite	#
	.loc 1 1969 0
	movq	stdout(%rip), %rax	# stdout, stdout.44
	movq	%rax, %rcx	# stdout.44,
	movl	$382, %edx	#,
	movl	$1, %esi	#,
	movl	$.LC168, %edi	#,
	call	fwrite	#
	.loc 1 1977 0
	movq	stdout(%rip), %rax	# stdout, stdout.45
	movq	%rax, %rcx	# stdout.45,
	movl	$398, %edx	#,
	movl	$1, %esi	#,
	movl	$.LC169, %edi	#,
	call	fwrite	#
	.loc 1 1985 0
	movq	stdout(%rip), %rax	# stdout, stdout.46
	movq	%rax, %rcx	# stdout.46,
	movl	$155, %edx	#,
	movl	$1, %esi	#,
	movl	$.LC170, %edi	#,
	call	fwrite	#
	.loc 1 1990 0
	movq	stdout(%rip), %rax	# stdout, stdout.47
	movq	%rax, %rcx	# stdout.47,
	movl	$369, %edx	#,
	movl	$1, %esi	#,
	movl	$.LC171, %edi	#,
	call	fwrite	#
	.loc 1 1998 0
	movq	stdout(%rip), %rax	# stdout, stdout.48
	movq	%rax, %rcx	# stdout.48,
	movl	$417, %edx	#,
	movl	$1, %esi	#,
	movl	$.LC172, %edi	#,
	call	fwrite	#
	.loc 1 2006 0
	movq	stdout(%rip), %rax	# stdout, stdout.49
	movq	%rax, %rcx	# stdout.49,
	movl	$445, %edx	#,
	movl	$1, %esi	#,
	movl	$.LC173, %edi	#,
	call	fwrite	#
	.loc 1 2015 0
	popq	%rbp	#
	.cfi_def_cfa 7, 8
	ret
	.cfi_endproc
.LFE34:
	.size	print_help, .-print_help
	.local	initialized.7822
	.comm	initialized.7822,4,4
.Letext0:
	.file 2 "/usr/lib/gcc/x86_64-linux-gnu/4.8/include/stddef.h"
	.file 3 "/usr/include/x86_64-linux-gnu/bits/types.h"
	.file 4 "/usr/include/stdio.h"
	.file 5 "/usr/include/libio.h"
	.file 6 "/usr/include/x86_64-linux-gnu/sys/types.h"
	.file 7 "/usr/include/time.h"
	.file 8 "/usr/include/x86_64-linux-gnu/bits/stat.h"
	.file 9 "obstack.h"
	.file 10 "hashtable.h"
	.file 11 "cpphash.h"
	.file 12 "line-map.h"
	.file 13 "cpplib.h"
	.file 14 "cppdefault.h"
	.file 15 "version.h"
	.section	.note.GNU-stack,"",@progbits
