	.file	"cppmacro.c"
# GNU C (Ubuntu/Linaro 4.8.1-10ubuntu9) version 4.8.1 (x86_64-linux-gnu)
#	compiled by GNU C version 4.8.1, GMP version 5.1.2, MPFR version 3.1.1-p2, MPC version 1.0.1
# GGC heuristics: --param ggc-min-expand=100 --param ggc-min-heapsize=131072
# options passed:  -I . -imultiarch x86_64-linux-gnu -D SPEC_CPU -D NDEBUG
# -D SPEC_CPU_LP64 cppmacro.c -mtune=generic -march=x86-64 -g -fverbose-asm
# -fno-strict-aliasing -fstack-protector -Wformat -Wformat-security
# options enabled:  -faggressive-loop-optimizations
# -fasynchronous-unwind-tables -fauto-inc-dec -fbranch-count-reg -fcommon
# -fdelete-null-pointer-checks -fdwarf2-cfi-asm -fearly-inlining
# -feliminate-unused-debug-types -ffunction-cse -fgcse-lm -fgnu-runtime
# -fident -finline-atomics -fira-hoist-pressure -fira-share-save-slots
# -fira-share-spill-slots -fivopts -fkeep-static-consts
# -fleading-underscore -fmath-errno -fmerge-debug-strings
# -fmove-loop-invariants -fpeephole -fprefetch-loop-arrays
# -freg-struct-return -fsched-critical-path-heuristic
# -fsched-dep-count-heuristic -fsched-group-heuristic -fsched-interblock
# -fsched-last-insn-heuristic -fsched-rank-heuristic -fsched-spec
# -fsched-spec-insn-heuristic -fsched-stalled-insns-dep -fshow-column
# -fsigned-zeros -fsplit-ivs-in-unroller -fstack-protector
# -fstrict-volatile-bitfields -fsync-libcalls -ftrapping-math
# -ftree-coalesce-vars -ftree-cselim -ftree-forwprop -ftree-loop-if-convert
# -ftree-loop-im -ftree-loop-ivcanon -ftree-loop-optimize
# -ftree-parallelize-loops= -ftree-phiprop -ftree-pta -ftree-reassoc
# -ftree-scev-cprop -ftree-slp-vectorize -ftree-vect-loop-version
# -funit-at-a-time -funwind-tables -fverbose-asm -fzero-initialized-in-bss
# -m128bit-long-double -m64 -m80387 -maccumulate-outgoing-args
# -malign-stringops -mfancy-math-387 -mfp-ret-in-387 -mfxsr -mglibc
# -mieee-fp -mlong-double-80 -mmmx -mno-sse4 -mpush-args -mred-zone -msse
# -msse2 -mtls-direct-seg-refs

	.text
.Ltext0:
	.type	ustrncmp, @function
ustrncmp:
.LFB3:
	.file 1 "cpphash.h"
	.loc 1 451 0
	.cfi_startproc
	pushq	%rbp	#
	.cfi_def_cfa_offset 16
	.cfi_offset 6, -16
	movq	%rsp, %rbp	#,
	.cfi_def_cfa_register 6
	subq	$32, %rsp	#,
	movq	%rdi, -8(%rbp)	# s1, s1
	movq	%rsi, -16(%rbp)	# s2, s2
	movq	%rdx, -24(%rbp)	# n, n
	.loc 1 452 0
	movq	-24(%rbp), %rdx	# n, tmp61
	movq	-16(%rbp), %rcx	# s2, tmp62
	movq	-8(%rbp), %rax	# s1, tmp63
	movq	%rcx, %rsi	# tmp62,
	movq	%rax, %rdi	# tmp63,
	call	strncmp	#
	.loc 1 453 0
	leave
	.cfi_def_cfa 7, 8
	ret
	.cfi_endproc
.LFE3:
	.size	ustrncmp, .-ustrncmp
	.type	ustrlen, @function
ustrlen:
.LFB4:
	.loc 1 458 0
	.cfi_startproc
	pushq	%rbp	#
	.cfi_def_cfa_offset 16
	.cfi_offset 6, -16
	movq	%rsp, %rbp	#,
	.cfi_def_cfa_register 6
	subq	$16, %rsp	#,
	movq	%rdi, -8(%rbp)	# s1, s1
	.loc 1 459 0
	movq	-8(%rbp), %rax	# s1, tmp61
	movq	%rax, %rdi	# tmp61,
	call	strlen	#
	.loc 1 460 0
	leave
	.cfi_def_cfa 7, 8
	ret
	.cfi_endproc
.LFE4:
	.size	ustrlen, .-ustrlen
	.type	new_string_token, @function
new_string_token:
.LFB8:
	.file 2 "cppmacro.c"
	.loc 2 96 0
	.cfi_startproc
	pushq	%rbp	#
	.cfi_def_cfa_offset 16
	.cfi_offset 6, -16
	movq	%rsp, %rbp	#,
	.cfi_def_cfa_register 6
	subq	$48, %rsp	#,
	movq	%rdi, -24(%rbp)	# pfile, pfile
	movq	%rsi, -32(%rbp)	# text, text
	movl	%edx, -36(%rbp)	# len, len
	.loc 2 97 0
	movq	-24(%rbp), %rax	# pfile, tmp63
	movq	%rax, %rdi	# tmp63,
	call	_cpp_temp_token	#
	movq	%rax, -8(%rbp)	# tmp64, token
	.loc 2 99 0
	movl	-36(%rbp), %edx	# len, D.9247
	movq	-32(%rbp), %rax	# text, tmp65
	addq	%rdx, %rax	# D.9247, D.9248
	movb	$0, (%rax)	#, *_6
	.loc 2 100 0
	movq	-8(%rbp), %rax	# token, tmp66
	movb	$61, 6(%rax)	#, token_2->type
	.loc 2 101 0
	movq	-8(%rbp), %rax	# token, tmp67
	movl	-36(%rbp), %edx	# len, tmp68
	movl	%edx, 8(%rax)	# tmp68, token_2->val.str.len
	.loc 2 102 0
	movq	-8(%rbp), %rax	# token, tmp69
	movq	-32(%rbp), %rdx	# text, tmp70
	movq	%rdx, 16(%rax)	# tmp70, token_2->val.str.text
	.loc 2 103 0
	movq	-8(%rbp), %rax	# token, tmp71
	movb	$0, 7(%rax)	#, token_2->flags
	.loc 2 104 0
	movq	-8(%rbp), %rax	# token, D.9249
	.loc 2 105 0
	leave
	.cfi_def_cfa 7, 8
	ret
	.cfi_endproc
.LFE8:
	.size	new_string_token, .-new_string_token
	.section	.rodata
.LC0:
	.string	"%u"
	.text
	.type	new_number_token, @function
new_number_token:
.LFB9:
	.loc 2 112 0
	.cfi_startproc
	pushq	%rbp	#
	.cfi_def_cfa_offset 16
	.cfi_offset 6, -16
	movq	%rsp, %rbp	#,
	.cfi_def_cfa_register 6
	subq	$32, %rsp	#,
	movq	%rdi, -24(%rbp)	# pfile, pfile
	movl	%esi, -28(%rbp)	# number, number
	.loc 2 113 0
	movq	-24(%rbp), %rax	# pfile, tmp63
	movq	%rax, %rdi	# tmp63,
	call	_cpp_temp_token	#
	movq	%rax, -16(%rbp)	# tmp64, token
	.loc 2 115 0
	movq	-24(%rbp), %rax	# pfile, tmp65
	movl	$21, %esi	#,
	movq	%rax, %rdi	# tmp65,
	call	_cpp_unaligned_alloc	#
	movq	%rax, -8(%rbp)	# tmp66, buf
	.loc 2 117 0
	movl	-28(%rbp), %edx	# number, tmp67
	movq	-8(%rbp), %rax	# buf, tmp68
	movl	$.LC0, %esi	#,
	movq	%rax, %rdi	# tmp68,
	movl	$0, %eax	#,
	call	sprintf	#
	.loc 2 118 0
	movq	-16(%rbp), %rax	# token, tmp69
	movb	$57, 6(%rax)	#, token_2->type
	.loc 2 119 0
	movq	-16(%rbp), %rax	# token, tmp70
	movq	-8(%rbp), %rdx	# buf, tmp71
	movq	%rdx, 16(%rax)	# tmp71, token_2->val.str.text
	.loc 2 120 0
	movq	-8(%rbp), %rax	# buf, tmp72
	movq	%rax, %rdi	# tmp72,
	call	ustrlen	#
	movl	%eax, %edx	# D.9250, D.9251
	movq	-16(%rbp), %rax	# token, tmp73
	movl	%edx, 8(%rax)	# D.9251, token_2->val.str.len
	.loc 2 121 0
	movq	-16(%rbp), %rax	# token, tmp74
	movb	$0, 7(%rax)	#, token_2->flags
	.loc 2 122 0
	movq	-16(%rbp), %rax	# token, D.9252
	.loc 2 123 0
	leave
	.cfi_def_cfa 7, 8
	ret
	.cfi_endproc
.LFE9:
	.size	new_number_token, .-new_number_token
	.section	.rodata
.LC1:
	.string	"Jan"
.LC2:
	.string	"Feb"
.LC3:
	.string	"Mar"
.LC4:
	.string	"Apr"
.LC5:
	.string	"May"
.LC6:
	.string	"Jun"
.LC7:
	.string	"Jul"
.LC8:
	.string	"Aug"
.LC9:
	.string	"Sep"
.LC10:
	.string	"Oct"
.LC11:
	.string	"Nov"
.LC12:
	.string	"Dec"
	.align 32
	.type	monthnames, @object
	.size	monthnames, 96
monthnames:
	.quad	.LC1
	.quad	.LC2
	.quad	.LC3
	.quad	.LC4
	.quad	.LC5
	.quad	.LC6
	.quad	.LC7
	.quad	.LC8
	.quad	.LC9
	.quad	.LC10
	.quad	.LC11
	.quad	.LC12
.LC13:
	.string	"invalid built-in macro \"%s\""
.LC14:
	.string	"%s %2d %4d"
.LC15:
	.string	"%02d:%02d:%02d"
	.text
	.type	builtin_macro, @function
builtin_macro:
.LFB10:
	.loc 2 139 0
	.cfi_startproc
	pushq	%rbp	#
	.cfi_def_cfa_offset 16
	.cfi_offset 6, -16
	movq	%rsp, %rbp	#,
	.cfi_def_cfa_register 6
	subq	$80, %rsp	#,
	movq	%rdi, -72(%rbp)	# pfile, pfile
	movq	%rsi, -80(%rbp)	# node, node
	.loc 2 142 0
	movq	-80(%rbp), %rax	# node, tmp111
	movl	24(%rax), %eax	# node_7(D)->value.builtin, D.9267
	cmpl	$7, %eax	#, D.9267
	ja	.L10	#,
	movl	%eax, %eax	# D.9267, tmp112
	movq	.L12(,%rax,8), %rax	#, tmp113
	jmp	*%rax	# tmp113
	.section	.rodata
	.align 8
	.align 4
.L12:
	.quad	.L11
	.quad	.L13
	.quad	.L14
	.quad	.L14
	.quad	.L15
	.quad	.L13
	.quad	.L16
	.quad	.L17
	.text
.L10:
	.loc 2 145 0
	movq	-80(%rbp), %rax	# node, tmp114
	movq	8(%rax), %rdx	# node_7(D)->ident.str, D.9268
	movq	-72(%rbp), %rax	# pfile, tmp115
	movl	$.LC13, %esi	#,
	movq	%rax, %rdi	# tmp115,
	movl	$0, %eax	#,
	call	cpp_ice	#
	.loc 2 146 0
	movl	$0, %eax	#, D.9266
	jmp	.L18	#
.L14:
.LBB2:
	.loc 2 154 0
	movq	-72(%rbp), %rax	# pfile, tmp116
	movq	56(%rax), %rax	# pfile_10(D)->map, tmp117
	movq	%rax, -32(%rbp)	# tmp117, map
	.loc 2 156 0
	movq	-80(%rbp), %rax	# node, tmp118
	movl	24(%rax), %eax	# node_7(D)->value.builtin, D.9267
	cmpl	$3, %eax	#, D.9267
	jne	.L19	#,
	.loc 2 157 0
	jmp	.L20	#
.L21:
	.loc 2 158 0
	movq	-72(%rbp), %rax	# pfile, tmp119
	movq	24(%rax), %rcx	# pfile_10(D)->line_maps.maps, D.9269
	movq	-32(%rbp), %rax	# map, tmp120
	movl	16(%rax), %eax	# map_3->included_from, D.9266
	movslq	%eax, %rdx	# D.9266, D.9270
	movq	%rdx, %rax	# D.9270, tmp121
	addq	%rax, %rax	# tmp121
	addq	%rdx, %rax	# D.9270, tmp121
	salq	$3, %rax	#, tmp122
	addq	%rcx, %rax	# D.9269, tmp123
	movq	%rax, -32(%rbp)	# tmp123, map
.L20:
	.loc 2 157 0 discriminator 1
	movq	-32(%rbp), %rax	# map, tmp124
	movl	16(%rax), %eax	# map_3->included_from, D.9266
	testl	%eax, %eax	# D.9266
	jns	.L21	#,
.L19:
	.loc 2 160 0
	movq	-32(%rbp), %rax	# map, tmp125
	movq	(%rax), %rax	# map_4->to_file, tmp126
	movq	%rax, -24(%rbp)	# tmp126, name
	.loc 2 161 0
	movq	-24(%rbp), %rax	# name, tmp127
	movq	%rax, %rdi	# tmp127,
	call	strlen	#
	movl	%eax, -56(%rbp)	# D.9270, len
	.loc 2 162 0
	movl	-56(%rbp), %eax	# len, tmp128
	sall	$2, %eax	#, D.9271
	addl	$1, %eax	#, D.9271
	movl	%eax, %edx	# D.9271, D.9270
	movq	-72(%rbp), %rax	# pfile, tmp129
	movq	%rdx, %rsi	# D.9270,
	movq	%rax, %rdi	# tmp129,
	call	_cpp_unaligned_alloc	#
	movq	%rax, -16(%rbp)	# tmp130, buf
	.loc 2 163 0
	movl	-56(%rbp), %edx	# len, tmp131
	movq	-24(%rbp), %rcx	# name, tmp132
	movq	-16(%rbp), %rax	# buf, tmp133
	movq	%rcx, %rsi	# tmp132,
	movq	%rax, %rdi	# tmp133,
	call	cpp_quote_string	#
	movq	%rax, %rdx	# D.9272, D.9273
	movq	-16(%rbp), %rax	# buf, buf.0
	subq	%rax, %rdx	# buf.0, D.9273
	movq	%rdx, %rax	# D.9273, D.9273
	movl	%eax, -56(%rbp)	# D.9273, len
	.loc 2 165 0
	movl	-56(%rbp), %edx	# len, tmp134
	movq	-16(%rbp), %rcx	# buf, tmp135
	movq	-72(%rbp), %rax	# pfile, tmp136
	movq	%rcx, %rsi	# tmp135,
	movq	%rax, %rdi	# tmp136,
	call	new_string_token	#
	movq	%rax, -40(%rbp)	# tmp137, result
.LBE2:
	.loc 2 167 0
	jmp	.L22	#
.L15:
	.loc 2 173 0
	movq	-72(%rbp), %rax	# pfile, tmp138
	movl	44(%rax), %eax	# pfile_10(D)->line_maps.depth, D.9271
	leal	-1(%rax), %edx	#, D.9271
	movq	-72(%rbp), %rax	# pfile, tmp139
	movl	%edx, %esi	# D.9271,
	movq	%rax, %rdi	# tmp139,
	call	new_number_token	#
	movq	%rax, -40(%rbp)	# tmp140, result
	.loc 2 174 0
	jmp	.L22	#
.L11:
	.loc 2 181 0
	movq	-72(%rbp), %rax	# pfile, tmp141
	movq	192(%rax), %rax	# pfile_10(D)->cur_token, D.9274
	subq	$24, %rax	#, D.9274
	movl	(%rax), %edx	# _37->line, D.9271
	movq	-72(%rbp), %rax	# pfile, tmp142
	movq	56(%rax), %rax	# pfile_10(D)->map, D.9275
	movl	8(%rax), %eax	# _39->to_line, D.9271
	addl	%eax, %edx	# D.9271, D.9271
	movq	-72(%rbp), %rax	# pfile, tmp143
	movq	56(%rax), %rax	# pfile_10(D)->map, D.9275
	movl	12(%rax), %eax	# _42->from_line, D.9271
	.loc 2 180 0
	subl	%eax, %edx	# D.9271, D.9271
	movq	-72(%rbp), %rax	# pfile, tmp144
	movl	%edx, %esi	# D.9271,
	movq	%rax, %rdi	# tmp144,
	call	new_number_token	#
	movq	%rax, -40(%rbp)	# tmp145, result
	.loc 2 183 0
	jmp	.L22	#
.L16:
.LBB3:
	.loc 2 187 0
	movq	-72(%rbp), %rax	# pfile, tmp146
	movq	56(%rax), %rax	# pfile_10(D)->map, D.9275
	.loc 2 188 0
	testq	%rax, %rax	# D.9275
	je	.L23	#,
	.loc 2 187 0
	movq	-72(%rbp), %rax	# pfile, tmp147
	movq	56(%rax), %rax	# pfile_10(D)->map, D.9275
	movzbl	21(%rax), %eax	# _47->sysp, D.9276
	testb	%al, %al	# D.9276
	je	.L23	#,
	.loc 2 188 0
	movq	-72(%rbp), %rax	# pfile, tmp148
	movq	808(%rax), %rax	# pfile_10(D)->spec_nodes.n__STRICT_ANSI__, D.9277
	movzbl	20(%rax), %eax	# _49->type, D.9276
	testb	%al, %al	# D.9276
	je	.L24	#,
.L23:
	.loc 2 188 0 is_stmt 0 discriminator 1
	movl	$1, %eax	#, iftmp.1
	jmp	.L25	#
.L24:
	.loc 2 188 0 discriminator 2
	movl	$0, %eax	#, iftmp.1
.L25:
	.loc 2 187 0 is_stmt 1
	movl	%eax, -52(%rbp)	# iftmp.1, stdc
	.loc 2 189 0
	movl	-52(%rbp), %edx	# stdc, stdc.2
	movq	-72(%rbp), %rax	# pfile, tmp149
	movl	%edx, %esi	# stdc.2,
	movq	%rax, %rdi	# tmp149,
	call	new_number_token	#
	movq	%rax, -40(%rbp)	# tmp150, result
.LBE3:
	.loc 2 191 0
	jmp	.L22	#
.L13:
	.loc 2 195 0
	movq	-72(%rbp), %rax	# pfile, tmp151
	movzbl	302(%rax), %eax	# pfile_10(D)->date.type, D.9276
	cmpb	$67, %al	#, D.9276
	jne	.L26	#,
.LBB4:
	.loc 2 201 0
	movl	$0, %edi	#,
	call	time	#
	movq	%rax, -48(%rbp)	# tt.3, tt
	.loc 2 202 0
	leaq	-48(%rbp), %rax	#, tmp152
	movq	%rax, %rdi	# tmp152,
	call	localtime	#
	movq	%rax, -8(%rbp)	# tmp153, tb
	.loc 2 205 0
	movq	-72(%rbp), %rax	# pfile, tmp154
	movl	$12, %esi	#,
	movq	%rax, %rdi	# tmp154,
	call	_cpp_unaligned_alloc	#
	.loc 2 204 0
	movq	-72(%rbp), %rdx	# pfile, tmp155
	movq	%rax, 312(%rdx)	# D.9272, pfile_10(D)->date.val.str.text
	.loc 2 206 0
	movq	-72(%rbp), %rax	# pfile, tmp156
	movl	$11, 304(%rax)	#, pfile_10(D)->date.val.str.len
	.loc 2 207 0
	movq	-72(%rbp), %rax	# pfile, tmp157
	movb	$61, 302(%rax)	#, pfile_10(D)->date.type
	.loc 2 208 0
	movq	-72(%rbp), %rax	# pfile, tmp158
	movb	$0, 303(%rax)	#, pfile_10(D)->date.flags
	.loc 2 210 0
	movq	-8(%rbp), %rax	# tb, tmp159
	movl	20(%rax), %eax	# tb_58->tm_year, D.9266
	.loc 2 209 0
	leal	1900(%rax), %esi	#, D.9266
	movq	-8(%rbp), %rax	# tb, tmp160
	movl	12(%rax), %ecx	# tb_58->tm_mday, D.9266
	.loc 2 210 0
	movq	-8(%rbp), %rax	# tb, tmp161
	movl	16(%rax), %eax	# tb_58->tm_mon, D.9266
	.loc 2 209 0
	cltq
	movq	monthnames(,%rax,8), %rdx	# monthnames, D.9278
	movq	-72(%rbp), %rax	# pfile, tmp163
	movq	312(%rax), %rax	# pfile_10(D)->date.val.str.text, D.9268
	movl	%esi, %r8d	# D.9266,
	movl	$.LC14, %esi	#,
	movq	%rax, %rdi	# D.9268,
	movl	$0, %eax	#,
	call	sprintf	#
	.loc 2 213 0
	movq	-72(%rbp), %rax	# pfile, tmp164
	movl	$9, %esi	#,
	movq	%rax, %rdi	# tmp164,
	call	_cpp_unaligned_alloc	#
	.loc 2 212 0
	movq	-72(%rbp), %rdx	# pfile, tmp165
	movq	%rax, 336(%rdx)	# D.9272, pfile_10(D)->time.val.str.text
	.loc 2 214 0
	movq	-72(%rbp), %rax	# pfile, tmp166
	movl	$8, 328(%rax)	#, pfile_10(D)->time.val.str.len
	.loc 2 215 0
	movq	-72(%rbp), %rax	# pfile, tmp167
	movb	$61, 326(%rax)	#, pfile_10(D)->time.type
	.loc 2 216 0
	movq	-72(%rbp), %rax	# pfile, tmp168
	movb	$0, 327(%rax)	#, pfile_10(D)->time.flags
	.loc 2 217 0
	movq	-8(%rbp), %rax	# tb, tmp169
	movl	(%rax), %esi	# tb_58->tm_sec, D.9266
	movq	-8(%rbp), %rax	# tb, tmp170
	movl	4(%rax), %ecx	# tb_58->tm_min, D.9266
	movq	-8(%rbp), %rax	# tb, tmp171
	movl	8(%rax), %edx	# tb_58->tm_hour, D.9266
	movq	-72(%rbp), %rax	# pfile, tmp172
	movq	336(%rax), %rax	# pfile_10(D)->time.val.str.text, D.9268
	movl	%esi, %r8d	# D.9266,
	movl	$.LC15, %esi	#,
	movq	%rax, %rdi	# D.9268,
	movl	$0, %eax	#,
	call	sprintf	#
.L26:
.LBE4:
	.loc 2 221 0
	movq	-80(%rbp), %rax	# node, tmp173
	movl	24(%rax), %eax	# node_7(D)->value.builtin, D.9267
	cmpl	$1, %eax	#, D.9267
	jne	.L27	#,
	.loc 2 222 0
	movq	-72(%rbp), %rax	# pfile, tmp177
	addq	$296, %rax	#, tmp176
	movq	%rax, -40(%rbp)	# tmp176, result
	.loc 2 225 0
	jmp	.L22	#
.L27:
	.loc 2 224 0
	movq	-72(%rbp), %rax	# pfile, tmp181
	addq	$320, %rax	#, tmp180
	movq	%rax, -40(%rbp)	# tmp180, result
	.loc 2 225 0
	jmp	.L22	#
.L17:
	.loc 2 230 0
	movq	-72(%rbp), %rax	# pfile, tmp182
	movzbl	8(%rax), %eax	# pfile_10(D)->state.in_directive, D.9276
	testb	%al, %al	# D.9276
	je	.L29	#,
	.loc 2 231 0
	movl	$0, %eax	#, D.9266
	jmp	.L18	#
.L29:
	.loc 2 233 0
	movq	-72(%rbp), %rax	# pfile, tmp183
	movq	%rax, %rdi	# tmp183,
	call	_cpp_do__Pragma	#
	.loc 2 234 0
	movl	$1, %eax	#, D.9266
	jmp	.L18	#
.L22:
	.loc 2 237 0
	movq	-40(%rbp), %rdx	# result, tmp184
	movq	-72(%rbp), %rax	# pfile, tmp185
	movl	$1, %ecx	#,
	movl	$0, %esi	#,
	movq	%rax, %rdi	# tmp185,
	call	push_token_context	#
	.loc 2 238 0
	movl	$1, %eax	#, D.9266
.L18:
	.loc 2 239 0
	leave
	.cfi_def_cfa 7, 8
	ret
	.cfi_endproc
.LFE10:
	.size	builtin_macro, .-builtin_macro
	.section	.rodata
.LC16:
	.string	"\\%03o"
	.text
	.globl	cpp_quote_string
	.type	cpp_quote_string, @function
cpp_quote_string:
.LFB11:
	.loc 2 250 0
	.cfi_startproc
	pushq	%rbp	#
	.cfi_def_cfa_offset 16
	.cfi_offset 6, -16
	movq	%rsp, %rbp	#,
	.cfi_def_cfa_register 6
	subq	$48, %rsp	#,
	movq	%rdi, -24(%rbp)	# dest, dest
	movq	%rsi, -32(%rbp)	# src, src
	movl	%edx, -36(%rbp)	# len, len
	.loc 2 251 0
	jmp	.L31	#
.L35:
.LBB5:
	.loc 2 253 0
	movq	-32(%rbp), %rax	# src, src.4
	leaq	1(%rax), %rdx	#, tmp71
	movq	%rdx, -32(%rbp)	# tmp71, src
	movzbl	(%rax), %eax	# *src.4_9, tmp72
	movb	%al, -1(%rbp)	# tmp72, c
	.loc 2 255 0
	cmpb	$92, -1(%rbp)	#, c
	je	.L32	#,
	.loc 2 255 0 is_stmt 0 discriminator 1
	cmpb	$34, -1(%rbp)	#, c
	jne	.L33	#,
.L32:
	.loc 2 257 0 is_stmt 1
	movq	-24(%rbp), %rax	# dest, dest.5
	leaq	1(%rax), %rdx	#, tmp73
	movq	%rdx, -24(%rbp)	# tmp73, dest
	movb	$92, (%rax)	#, *dest.5_20
	.loc 2 258 0
	movq	-24(%rbp), %rax	# dest, dest.6
	leaq	1(%rax), %rdx	#, tmp74
	movq	%rdx, -24(%rbp)	# tmp74, dest
	movzbl	-1(%rbp), %edx	# c, tmp75
	movb	%dl, (%rax)	# tmp75, *dest.6_22
	jmp	.L31	#
.L33:
	.loc 2 262 0
	movzbl	-1(%rbp), %eax	# c, D.9282
	cltq
	movzwl	_sch_istable(%rax,%rax), %eax	# _sch_istable, D.9283
	movzwl	%ax, %eax	# D.9283, D.9282
	andl	$16, %eax	#, D.9282
	testl	%eax, %eax	# D.9282
	je	.L34	#,
	.loc 2 263 0
	movq	-24(%rbp), %rax	# dest, dest.7
	leaq	1(%rax), %rdx	#, tmp77
	movq	%rdx, -24(%rbp)	# tmp77, dest
	movzbl	-1(%rbp), %edx	# c, tmp78
	movb	%dl, (%rax)	# tmp78, *dest.7_16
	jmp	.L31	#
.L34:
	.loc 2 266 0
	movzbl	-1(%rbp), %edx	# c, D.9282
	movq	-24(%rbp), %rax	# dest, tmp79
	movl	$.LC16, %esi	#,
	movq	%rax, %rdi	# tmp79,
	movl	$0, %eax	#,
	call	sprintf	#
	.loc 2 267 0
	addq	$4, -24(%rbp)	#, dest
.L31:
.LBE5:
	.loc 2 251 0 discriminator 1
	movl	-36(%rbp), %eax	# len, len.8
	leal	-1(%rax), %edx	#, tmp80
	movl	%edx, -36(%rbp)	# tmp80, len
	testl	%eax, %eax	# len.8
	jne	.L35	#,
	.loc 2 272 0
	movq	-24(%rbp), %rax	# dest, D.9284
	.loc 2 273 0
	leave
	.cfi_def_cfa 7, 8
	ret
	.cfi_endproc
.LFE11:
	.size	cpp_quote_string, .-cpp_quote_string
	.section	.rodata
	.align 8
.LC17:
	.string	"invalid string literal, ignoring final '\\'"
	.text
	.type	stringify_arg, @function
stringify_arg:
.LFB12:
	.loc 2 281 0
	.cfi_startproc
	pushq	%rbp	#
	.cfi_def_cfa_offset 16
	.cfi_offset 6, -16
	movq	%rsp, %rbp	#,
	.cfi_def_cfa_register 6
	subq	$96, %rsp	#,
	movq	%rdi, -88(%rbp)	# pfile, pfile
	movq	%rsi, -96(%rbp)	# arg, arg
	.loc 2 282 0
	movq	-88(%rbp), %rax	# pfile, tmp112
	movq	80(%rax), %rax	# pfile_16(D)->u_buff, D.9286
	movq	16(%rax), %rax	# _17->cur, tmp113
	movq	%rax, -56(%rbp)	# tmp113, dest
	.loc 2 283 0
	movl	$0, -64(%rbp)	#, backslash_count
	.loc 2 284 0
	movq	$0, -48(%rbp)	#, source
	.loc 2 288 0
	movl	$0, -68(%rbp)	#, i
	jmp	.L38	#
.L52:
.LBB6:
	.loc 2 290 0
	movq	-96(%rbp), %rax	# arg, tmp114
	movq	(%rax), %rax	# arg_22(D)->first, D.9288
	movl	-68(%rbp), %edx	# i, D.9289
	salq	$3, %rdx	#, D.9289
	addq	%rdx, %rax	# D.9289, D.9288
	movq	(%rax), %rax	# *_27, tmp115
	movq	%rax, -32(%rbp)	# tmp115, token
	.loc 2 292 0
	movq	-32(%rbp), %rax	# token, tmp116
	movzbl	6(%rax), %eax	# token_28->type, D.9290
	cmpb	$66, %al	#, D.9290
	jne	.L39	#,
	.loc 2 294 0
	cmpq	$0, -48(%rbp)	#, source
	jne	.L40	#,
	.loc 2 295 0
	movq	-32(%rbp), %rax	# token, tmp117
	movq	8(%rax), %rax	# token_28->val.source, tmp118
	movq	%rax, -48(%rbp)	# tmp118, source
	.loc 2 296 0
	jmp	.L41	#
.L40:
	jmp	.L41	#
.L39:
	.loc 2 299 0
	movq	-32(%rbp), %rax	# token, tmp119
	movzbl	6(%rax), %eax	# token_28->type, D.9290
	.loc 2 300 0
	cmpb	$61, %al	#, D.9290
	je	.L42	#,
	.loc 2 299 0
	movq	-32(%rbp), %rax	# token, tmp120
	movzbl	6(%rax), %eax	# token_28->type, D.9290
	cmpb	$62, %al	#, D.9290
	je	.L42	#,
	.loc 2 300 0
	movq	-32(%rbp), %rax	# token, tmp121
	movzbl	6(%rax), %eax	# token_28->type, D.9290
	cmpb	$58, %al	#, D.9290
	je	.L42	#,
	.loc 2 300 0 is_stmt 0 discriminator 1
	movq	-32(%rbp), %rax	# token, tmp122
	movzbl	6(%rax), %eax	# token_28->type, D.9290
	cmpb	$59, %al	#, D.9290
	jne	.L43	#,
.L42:
	movl	$1, %eax	#, iftmp.9
	jmp	.L44	#
.L43:
	.loc 2 300 0 discriminator 2
	movl	$0, %eax	#, iftmp.9
.L44:
	.loc 2 299 0 is_stmt 1
	movl	%eax, -60(%rbp)	# iftmp.9, escape_it
	.loc 2 304 0
	movq	-32(%rbp), %rax	# token, tmp123
	movq	%rax, %rdi	# tmp123,
	call	cpp_token_len	#
	movl	%eax, %eax	# D.9287, tmp169
	movq	%rax, -40(%rbp)	# tmp169, len
	.loc 2 305 0
	cmpl	$0, -60(%rbp)	#, escape_it
	je	.L45	#,
	.loc 2 306 0
	salq	$2, -40(%rbp)	#, len
.L45:
	.loc 2 307 0
	addq	$2, -40(%rbp)	#, len
	.loc 2 309 0
	movq	-88(%rbp), %rax	# pfile, tmp124
	movq	80(%rax), %rax	# pfile_16(D)->u_buff, D.9286
	movq	24(%rax), %rax	# _42->limit, D.9291
	movq	%rax, %rdx	# D.9291, D.9292
	movq	-56(%rbp), %rax	# dest, dest.10
	subq	%rax, %rdx	# dest.10, D.9292
	movq	%rdx, %rax	# D.9292, D.9292
	cmpq	-40(%rbp), %rax	# len, D.9289
	jae	.L46	#,
.LBB7:
	.loc 2 311 0
	movq	-56(%rbp), %rdx	# dest, dest.11
	movq	-88(%rbp), %rax	# pfile, tmp125
	movq	80(%rax), %rax	# pfile_16(D)->u_buff, D.9286
	movq	16(%rax), %rax	# _49->cur, D.9291
	subq	%rax, %rdx	# D.9292, D.9292
	movq	%rdx, %rax	# D.9292, D.9292
	movq	%rax, -24(%rbp)	# D.9292, len_so_far
	.loc 2 312 0
	movq	-88(%rbp), %rax	# pfile, tmp126
	leaq	80(%rax), %rcx	#, D.9293
	movq	-40(%rbp), %rdx	# len, tmp127
	movq	-88(%rbp), %rax	# pfile, tmp128
	movq	%rcx, %rsi	# D.9293,
	movq	%rax, %rdi	# tmp128,
	call	_cpp_extend_buff	#
	.loc 2 313 0
	movq	-88(%rbp), %rax	# pfile, tmp129
	movq	80(%rax), %rax	# pfile_16(D)->u_buff, D.9286
	movq	16(%rax), %rdx	# _55->cur, D.9291
	movq	-24(%rbp), %rax	# len_so_far, tmp133
	addq	%rdx, %rax	# D.9291, tmp132
	movq	%rax, -56(%rbp)	# tmp132, dest
.L46:
.LBE7:
	.loc 2 317 0
	movq	-88(%rbp), %rax	# pfile, tmp134
	movq	80(%rax), %rax	# pfile_16(D)->u_buff, D.9286
	movq	16(%rax), %rax	# _58->cur, D.9291
	cmpq	-56(%rbp), %rax	# dest, D.9291
	je	.L47	#,
	.loc 2 319 0
	cmpq	$0, -48(%rbp)	#, source
	jne	.L48	#,
	.loc 2 320 0
	movq	-32(%rbp), %rax	# token, tmp135
	movq	%rax, -48(%rbp)	# tmp135, source
.L48:
	.loc 2 321 0
	movq	-48(%rbp), %rax	# source, tmp136
	movzbl	7(%rax), %eax	# source_11->flags, D.9290
	movzbl	%al, %eax	# D.9290, D.9294
	andl	$1, %eax	#, D.9294
	testl	%eax, %eax	# D.9294
	je	.L47	#,
	.loc 2 322 0
	movq	-56(%rbp), %rax	# dest, dest.12
	leaq	1(%rax), %rdx	#, tmp137
	movq	%rdx, -56(%rbp)	# tmp137, dest
	movb	$32, (%rax)	#, *dest.12_64
.L47:
	.loc 2 324 0
	movq	$0, -48(%rbp)	#, source
	.loc 2 326 0
	cmpl	$0, -60(%rbp)	#, escape_it
	je	.L49	#,
.LBB8:
	.loc 2 328 0
	movq	-40(%rbp), %rdx	# len, tmp138
	movq	-88(%rbp), %rax	# pfile, tmp139
	movq	%rdx, %rsi	# tmp138,
	movq	%rax, %rdi	# tmp139,
	call	_cpp_get_buff	#
	movq	%rax, -16(%rbp)	# tmp140, buff
	.loc 2 329 0
	movq	-16(%rbp), %rax	# buff, tmp141
	movq	16(%rax), %rax	# buff_67->cur, tmp142
	movq	%rax, -8(%rbp)	# tmp142, buf
	.loc 2 330 0
	movq	-8(%rbp), %rdx	# buf, tmp143
	movq	-32(%rbp), %rcx	# token, tmp144
	movq	-88(%rbp), %rax	# pfile, tmp145
	movq	%rcx, %rsi	# tmp144,
	movq	%rax, %rdi	# tmp145,
	call	cpp_spell_token	#
	movq	%rax, %rdx	# D.9291, D.9292
	movq	-8(%rbp), %rax	# buf, buf.13
	subq	%rax, %rdx	# buf.13, D.9292
	movq	%rdx, %rax	# D.9292, D.9292
	movq	%rax, -40(%rbp)	# D.9292, len
	.loc 2 331 0
	movq	-40(%rbp), %rax	# len, tmp146
	movl	%eax, %edx	# tmp146, D.9287
	movq	-8(%rbp), %rcx	# buf, tmp147
	movq	-56(%rbp), %rax	# dest, tmp148
	movq	%rcx, %rsi	# tmp147,
	movq	%rax, %rdi	# tmp148,
	call	cpp_quote_string	#
	movq	%rax, -56(%rbp)	# tmp149, dest
	.loc 2 332 0
	movq	-16(%rbp), %rdx	# buff, tmp150
	movq	-88(%rbp), %rax	# pfile, tmp151
	movq	%rdx, %rsi	# tmp150,
	movq	%rax, %rdi	# tmp151,
	call	_cpp_release_buff	#
.LBE8:
	jmp	.L50	#
.L49:
	.loc 2 335 0
	movq	-56(%rbp), %rdx	# dest, tmp152
	movq	-32(%rbp), %rcx	# token, tmp153
	movq	-88(%rbp), %rax	# pfile, tmp154
	movq	%rcx, %rsi	# tmp153,
	movq	%rax, %rdi	# tmp154,
	call	cpp_spell_token	#
	movq	%rax, -56(%rbp)	# tmp155, dest
.L50:
	.loc 2 337 0
	movq	-32(%rbp), %rax	# token, tmp156
	movzbl	6(%rax), %eax	# token_28->type, D.9290
	cmpb	$60, %al	#, D.9290
	jne	.L51	#,
	.loc 2 337 0 is_stmt 0 discriminator 1
	movq	-32(%rbp), %rax	# token, tmp157
	movzbl	8(%rax), %eax	# token_28->val.c, D.9290
	cmpb	$92, %al	#, D.9290
	jne	.L51	#,
	.loc 2 338 0 is_stmt 1
	addl	$1, -64(%rbp)	#, backslash_count
	jmp	.L41	#
.L51:
	.loc 2 340 0
	movl	$0, -64(%rbp)	#, backslash_count
.L41:
.LBE6:
	.loc 2 288 0
	addl	$1, -68(%rbp)	#, i
.L38:
	.loc 2 288 0 is_stmt 0 discriminator 1
	movq	-96(%rbp), %rax	# arg, tmp158
	movl	24(%rax), %eax	# arg_22(D)->count, D.9287
	cmpl	-68(%rbp), %eax	# i, D.9287
	ja	.L52	#,
	.loc 2 344 0 is_stmt 1
	movl	-64(%rbp), %eax	# backslash_count, tmp159
	andl	$1, %eax	#, D.9287
	testl	%eax, %eax	# D.9287
	je	.L53	#,
	.loc 2 346 0
	movq	-88(%rbp), %rax	# pfile, tmp160
	movl	$.LC17, %esi	#,
	movq	%rax, %rdi	# tmp160,
	movl	$0, %eax	#,
	call	cpp_warning	#
	.loc 2 347 0
	subq	$1, -56(%rbp)	#, dest
.L53:
	.loc 2 351 0
	movq	-56(%rbp), %rdx	# dest, dest.14
	movq	-88(%rbp), %rax	# pfile, tmp161
	movq	80(%rax), %rax	# pfile_16(D)->u_buff, D.9286
	movq	16(%rax), %rax	# _85->cur, D.9291
	subq	%rax, %rdx	# D.9292, D.9292
	movq	%rdx, %rax	# D.9292, D.9292
	movq	%rax, -40(%rbp)	# D.9292, len
	.loc 2 352 0
	movq	-88(%rbp), %rax	# pfile, tmp162
	movq	80(%rax), %rax	# pfile_16(D)->u_buff, D.9286
	movq	-56(%rbp), %rdx	# dest, tmp163
	addq	$1, %rdx	#, D.9291
	movq	%rdx, 16(%rax)	# D.9291, _90->cur
	.loc 2 353 0
	movq	-40(%rbp), %rax	# len, tmp164
	movl	%eax, %edx	# tmp164, D.9287
	movq	-40(%rbp), %rax	# len, tmp165
	negq	%rax	# D.9295
	movq	%rax, %rcx	# D.9295, D.9295
	movq	-56(%rbp), %rax	# dest, tmp166
	addq	%rax, %rcx	# tmp166, D.9291
	movq	-88(%rbp), %rax	# pfile, tmp167
	movq	%rcx, %rsi	# D.9291,
	movq	%rax, %rdi	# tmp167,
	call	new_string_token	#
	.loc 2 354 0
	leave
	.cfi_def_cfa 7, 8
	ret
	.cfi_endproc
.LFE12:
	.size	stringify_arg, .-stringify_arg
	.type	paste_tokens, @function
paste_tokens:
.LFB13:
	.loc 2 363 0
	.cfi_startproc
	pushq	%rbp	#
	.cfi_def_cfa_offset 16
	.cfi_offset 6, -16
	movq	%rsp, %rbp	#,
	.cfi_def_cfa_register 6
	pushq	%rbx	#
	subq	$72, %rsp	#,
	.cfi_offset 3, -24
	movq	%rdi, -56(%rbp)	# pfile, pfile
	movq	%rsi, -64(%rbp)	# plhs, plhs
	movq	%rdx, -72(%rbp)	# rhs, rhs
	.loc 2 369 0
	movq	-64(%rbp), %rax	# plhs, tmp87
	movq	(%rax), %rax	# *plhs_2(D), tmp88
	movq	%rax, -32(%rbp)	# tmp88, lhs
	.loc 2 370 0
	movq	-32(%rbp), %rax	# lhs, tmp89
	movq	%rax, %rdi	# tmp89,
	call	cpp_token_len	#
	movl	%eax, %ebx	#, D.9298
	movq	-72(%rbp), %rax	# rhs, tmp90
	movq	%rax, %rdi	# tmp90,
	call	cpp_token_len	#
	addl	%ebx, %eax	# D.9298, D.9298
	addl	$1, %eax	#, tmp91
	movl	%eax, -44(%rbp)	# tmp91, len
	.loc 2 371 0
	movl	-44(%rbp), %eax	# len, D.9299
	leaq	15(%rax), %rdx	#, tmp92
	movl	$16, %eax	#, tmp130
	subq	$1, %rax	#, tmp93
	addq	%rdx, %rax	# tmp92, tmp94
	movl	$16, %ebx	#, tmp131
	movl	$0, %edx	#, tmp97
	divq	%rbx	# tmp131
	imulq	$16, %rax, %rax	#, tmp96, tmp98
	subq	%rax, %rsp	# tmp98,
	movq	%rsp, %rax	#, tmp99
	addq	$15, %rax	#, tmp100
	shrq	$4, %rax	#, tmp101
	salq	$4, %rax	#, tmp102
	movq	%rax, -24(%rbp)	# tmp102, buf
	.loc 2 372 0
	movq	-24(%rbp), %rdx	# buf, tmp103
	movq	-32(%rbp), %rcx	# lhs, tmp104
	movq	-56(%rbp), %rax	# pfile, tmp105
	movq	%rcx, %rsi	# tmp104,
	movq	%rax, %rdi	# tmp105,
	call	cpp_spell_token	#
	movq	%rax, -40(%rbp)	# tmp106, end
	.loc 2 378 0
	movq	-32(%rbp), %rax	# lhs, tmp107
	movzbl	6(%rax), %eax	# lhs_3->type, D.9300
	cmpb	$7, %al	#, D.9300
	jne	.L56	#,
	.loc 2 379 0
	movq	-72(%rbp), %rax	# rhs, tmp108
	movzbl	6(%rax), %eax	# rhs_5(D)->type, D.9300
	cmpb	$6, %al	#, D.9300
	je	.L57	#,
	.loc 2 379 0 is_stmt 0 discriminator 1
	movq	-72(%rbp), %rax	# rhs, tmp109
	movzbl	6(%rax), %eax	# rhs_5(D)->type, D.9300
	cmpb	$7, %al	#, D.9300
	jne	.L56	#,
.L57:
	.loc 2 380 0 is_stmt 1
	movq	-40(%rbp), %rax	# end, end.15
	leaq	1(%rax), %rdx	#, tmp110
	movq	%rdx, -40(%rbp)	# tmp110, end
	movb	$32, (%rax)	#, *end.15_16
.L56:
	.loc 2 381 0
	movq	-40(%rbp), %rdx	# end, tmp111
	movq	-72(%rbp), %rcx	# rhs, tmp112
	movq	-56(%rbp), %rax	# pfile, tmp113
	movq	%rcx, %rsi	# tmp112,
	movq	%rax, %rdi	# tmp113,
	call	cpp_spell_token	#
	movq	%rax, -40(%rbp)	# tmp114, end
	.loc 2 382 0
	movq	-40(%rbp), %rax	# end, tmp115
	movb	$0, (%rax)	#, *end_18
	.loc 2 384 0
	movq	-40(%rbp), %rdx	# end, end.16
	movq	-24(%rbp), %rax	# buf, buf.17
	subq	%rax, %rdx	# buf.17, D.9301
	movq	%rdx, %rax	# D.9301, D.9301
	movq	%rax, %rdx	# D.9301, D.9299
	movq	-24(%rbp), %rsi	# buf, tmp116
	movq	-56(%rbp), %rax	# pfile, tmp117
	movl	$1, %r8d	#,
	movl	$1, %ecx	#,
	movq	%rax, %rdi	# tmp117,
	call	cpp_push_buffer	#
	.loc 2 387 0
	movq	-56(%rbp), %rax	# pfile, tmp118
	movq	(%rax), %rax	# pfile_11(D)->buffer, D.9302
	movq	-56(%rbp), %rdx	# pfile, tmp119
	movq	192(%rdx), %rdx	# pfile_11(D)->cur_token, D.9303
	subq	$24, %rdx	#, D.9303
	movzwl	4(%rdx), %edx	# _25->col, D.9304
	movzwl	%dx, %edx	# D.9304, D.9305
	subl	$1, %edx	#, D.9305
	movl	%edx, 64(%rax)	# D.9298, _23->col_adjust
	.loc 2 390 0
	movq	-56(%rbp), %rax	# pfile, tmp120
	movq	(%rax), %rax	# pfile_11(D)->buffer, D.9302
	movb	$0, 68(%rax)	#, _30->saved_flags
	.loc 2 393 0
	movq	-56(%rbp), %rax	# pfile, tmp121
	movq	%rax, %rdi	# tmp121,
	call	_cpp_temp_token	#
	movq	-56(%rbp), %rdx	# pfile, tmp122
	movq	%rax, 192(%rdx)	# D.9303, pfile_11(D)->cur_token
	.loc 2 394 0
	movq	-56(%rbp), %rax	# pfile, tmp123
	movq	%rax, %rdi	# tmp123,
	call	_cpp_lex_direct	#
	movq	-64(%rbp), %rdx	# plhs, tmp124
	movq	%rax, (%rdx)	# D.9303, *plhs_2(D)
	.loc 2 395 0
	movq	-56(%rbp), %rax	# pfile, tmp125
	movq	(%rax), %rax	# pfile_11(D)->buffer, D.9302
	movq	(%rax), %rdx	# _33->cur, D.9306
	movq	-56(%rbp), %rax	# pfile, tmp126
	movq	(%rax), %rax	# pfile_11(D)->buffer, D.9302
	movq	16(%rax), %rax	# _35->rlimit, D.9306
	cmpq	%rax, %rdx	# D.9306, D.9306
	sete	%al	#, tmp127
	movb	%al, -45(%rbp)	# tmp127, valid
	.loc 2 396 0
	movq	-56(%rbp), %rax	# pfile, tmp128
	movq	%rax, %rdi	# tmp128,
	call	_cpp_pop_buffer	#
	.loc 2 398 0
	movzbl	-45(%rbp), %eax	# valid, D.9307
	.loc 2 399 0
	movq	-8(%rbp), %rbx	#,
	leave
	.cfi_def_cfa 7, 8
	ret
	.cfi_endproc
.LFE13:
	.size	paste_tokens, .-paste_tokens
	.section	.rodata
	.align 8
.LC18:
	.string	"pasting \"%s\" and \"%s\" does not give a valid preprocessing token"
	.text
	.type	paste_all_tokens, @function
paste_all_tokens:
.LFB14:
	.loc 2 412 0
	.cfi_startproc
	pushq	%rbp	#
	.cfi_def_cfa_offset 16
	.cfi_offset 6, -16
	movq	%rsp, %rbp	#,
	.cfi_def_cfa_register 6
	pushq	%rbx	#
	subq	$40, %rsp	#,
	.cfi_offset 3, -24
	movq	%rdi, -40(%rbp)	# pfile, pfile
	movq	%rsi, -48(%rbp)	# lhs, lhs
	.loc 2 414 0
	movq	-40(%rbp), %rax	# pfile, tmp76
	movq	152(%rax), %rax	# pfile_2(D)->context, tmp77
	movq	%rax, -24(%rbp)	# tmp77, context
.L66:
	.loc 2 423 0
	movq	-24(%rbp), %rax	# context, tmp78
	movzbl	48(%rax), %eax	# context_3->direct_p, D.9309
	testb	%al, %al	# D.9309
	je	.L60	#,
	.loc 2 424 0
	movq	-24(%rbp), %rax	# context, tmp79
	movq	16(%rax), %rax	# context_3->first.token, D.9310
	leaq	24(%rax), %rcx	#, D.9310
	movq	-24(%rbp), %rdx	# context, tmp80
	movq	%rcx, 16(%rdx)	# D.9310, context_3->first.token
	movq	%rax, -32(%rbp)	# rhs.18, rhs
	jmp	.L61	#
.L60:
	.loc 2 426 0
	movq	-24(%rbp), %rax	# context, tmp81
	movq	16(%rax), %rax	# context_3->first.ptoken, D.9311
	leaq	8(%rax), %rcx	#, D.9311
	movq	-24(%rbp), %rdx	# context, tmp82
	movq	%rcx, 16(%rdx)	# D.9311, context_3->first.ptoken
	movq	(%rax), %rax	# *_10, tmp83
	movq	%rax, -32(%rbp)	# tmp83, rhs
.L61:
	.loc 2 428 0
	movq	-32(%rbp), %rax	# rhs, tmp84
	movzbl	6(%rax), %eax	# rhs_1->type, D.9312
	cmpb	$66, %al	#, D.9312
	jne	.L62	#,
	.loc 2 429 0
	call	abort	#
.L62:
	.loc 2 431 0
	movq	-32(%rbp), %rdx	# rhs, tmp85
	leaq	-48(%rbp), %rcx	#, tmp86
	movq	-40(%rbp), %rax	# pfile, tmp87
	movq	%rcx, %rsi	# tmp86,
	movq	%rax, %rdi	# tmp87,
	call	paste_tokens	#
	xorl	$1, %eax	#, D.9309
	testb	%al, %al	# D.9309
	je	.L63	#,
	.loc 2 433 0
	movq	-40(%rbp), %rax	# pfile, tmp88
	movl	$1, %esi	#,
	movq	%rax, %rdi	# tmp88,
	call	_cpp_backup_tokens	#
	.loc 2 436 0
	movq	-40(%rbp), %rax	# pfile, tmp89
	movl	736(%rax), %eax	# pfile_2(D)->opts.lang, D.9313
	cmpl	$9, %eax	#, D.9313
	je	.L64	#,
	.loc 2 437 0
	movq	-32(%rbp), %rdx	# rhs, tmp90
	movq	-40(%rbp), %rax	# pfile, tmp91
	movq	%rdx, %rsi	# tmp90,
	movq	%rax, %rdi	# tmp91,
	call	cpp_token_as_text	#
	movq	%rax, %rbx	#, D.9314
	movq	-48(%rbp), %rdx	# lhs, lhs.19
	movq	-40(%rbp), %rax	# pfile, tmp92
	movq	%rdx, %rsi	# lhs.19,
	movq	%rax, %rdi	# tmp92,
	call	cpp_token_as_text	#
	movq	%rax, %rdx	#, D.9314
	movq	-40(%rbp), %rax	# pfile, tmp93
	movq	%rbx, %rcx	# D.9314,
	movl	$.LC18, %esi	#,
	movq	%rax, %rdi	# tmp93,
	movl	$0, %eax	#,
	call	cpp_warning	#
	.loc 2 441 0
	jmp	.L65	#
.L64:
	jmp	.L65	#
.L63:
	.loc 2 444 0
	movq	-32(%rbp), %rax	# rhs, tmp94
	movzbl	7(%rax), %eax	# rhs_1->flags, D.9312
	movzbl	%al, %eax	# D.9312, D.9315
	andl	$8, %eax	#, D.9315
	testl	%eax, %eax	# D.9315
	jne	.L66	#,
.L65:
	.loc 2 447 0
	movq	-48(%rbp), %rdx	# lhs, lhs.20
	movq	-40(%rbp), %rax	# pfile, tmp95
	movl	$1, %ecx	#,
	movl	$0, %esi	#,
	movq	%rax, %rdi	# tmp95,
	call	push_token_context	#
	.loc 2 448 0
	addq	$40, %rsp	#,
	popq	%rbx	#
	popq	%rbp	#
	.cfi_def_cfa 7, 8
	ret
	.cfi_endproc
.LFE14:
	.size	paste_all_tokens, .-paste_all_tokens
	.section	.rodata
	.align 8
.LC19:
	.string	"directives may not be used inside a macro argument"
	.align 8
.LC20:
	.string	"unterminated argument list invoking macro \"%s\""
	.align 8
.LC21:
	.string	"ISO C99 requires rest arguments to be used"
	.align 8
.LC22:
	.string	"macro \"%s\" requires %u arguments, but only %u given"
	.align 8
.LC23:
	.string	"macro \"%s\" passed %u arguments, but takes just %u"
	.text
	.type	collect_args, @function
collect_args:
.LFB15:
	.loc 2 459 0
	.cfi_startproc
	pushq	%rbp	#
	.cfi_def_cfa_offset 16
	.cfi_offset 6, -16
	movq	%rsp, %rbp	#,
	.cfi_def_cfa_register 6
	subq	$80, %rsp	#,
	movq	%rdi, -72(%rbp)	# pfile, pfile
	movq	%rsi, -80(%rbp)	# node, node
	.loc 2 465 0
	movb	$0, -62(%rbp)	#, error
	.loc 2 467 0
	movq	-80(%rbp), %rax	# node, tmp149
	movq	24(%rax), %rax	# node_20(D)->value.macro, tmp150
	movq	%rax, -32(%rbp)	# tmp150, macro
	.loc 2 468 0
	movq	-32(%rbp), %rax	# macro, tmp151
	movzwl	24(%rax), %eax	# macro_21->paramc, D.9318
	testw	%ax, %ax	# D.9318
	je	.L68	#,
	.loc 2 469 0
	movq	-32(%rbp), %rax	# macro, tmp152
	movzwl	24(%rax), %eax	# macro_21->paramc, D.9318
	movzwl	%ax, %eax	# D.9318, tmp153
	movl	%eax, -60(%rbp)	# tmp153, argc
	jmp	.L69	#
.L68:
	.loc 2 471 0
	movl	$1, -60(%rbp)	#, argc
.L69:
	.loc 2 472 0
	movl	-60(%rbp), %edx	# argc, D.9319
	movq	%rdx, %rax	# D.9319, tmp154
	addq	%rax, %rax	# tmp154
	addq	%rdx, %rax	# D.9319, tmp154
	leaq	0(,%rax,8), %rdx	#, tmp155
	addq	%rdx, %rax	# tmp155, tmp154
	salq	$4, %rax	#, tmp156
	movq	%rax, %rdx	# tmp154, D.9319
	movq	-72(%rbp), %rax	# pfile, tmp157
	movq	%rdx, %rsi	# D.9319,
	movq	%rax, %rdi	# tmp157,
	call	_cpp_get_buff	#
	movq	%rax, -48(%rbp)	# tmp158, buff
	.loc 2 474 0
	movq	-48(%rbp), %rax	# buff, tmp159
	movq	%rax, -24(%rbp)	# tmp159, base_buff
	.loc 2 475 0
	movq	-48(%rbp), %rax	# buff, tmp160
	movq	8(%rax), %rax	# buff_29->base, tmp161
	movq	%rax, -16(%rbp)	# tmp161, args
	.loc 2 476 0
	movl	-60(%rbp), %eax	# argc, D.9319
	salq	$5, %rax	#, D.9319
	movq	%rax, %rdx	# D.9319, D.9319
	movq	-16(%rbp), %rax	# args, tmp162
	movl	$0, %esi	#,
	movq	%rax, %rdi	# tmp162,
	call	memset	#
	.loc 2 477 0
	movl	-60(%rbp), %eax	# argc, D.9319
	salq	$5, %rax	#, D.9319
	movq	%rax, %rdx	# D.9319, D.9319
	movq	-16(%rbp), %rax	# args, tmp163
	addq	%rax, %rdx	# tmp163, D.9320
	movq	-48(%rbp), %rax	# buff, tmp164
	movq	%rdx, 16(%rax)	# D.9320, buff_29->cur
	.loc 2 478 0
	movq	-16(%rbp), %rax	# args, tmp165
	movq	%rax, -40(%rbp)	# tmp165, arg
	movl	$0, -60(%rbp)	#, argc
.L84:
.LBB9:
	.loc 2 485 0
	movl	$0, -56(%rbp)	#, paren_depth
	.loc 2 486 0
	movl	$0, -52(%rbp)	#, ntokens
	.loc 2 488 0
	addl	$1, -60(%rbp)	#, argc
	.loc 2 489 0
	movq	-48(%rbp), %rax	# buff, tmp166
	movq	16(%rax), %rdx	# buff_1->cur, D.9320
	movq	-40(%rbp), %rax	# arg, tmp167
	movq	%rdx, (%rax)	# D.9320, arg_4->first
.L78:
	.loc 2 494 0
	movq	-40(%rbp), %rax	# arg, tmp168
	movq	(%rax), %rax	# arg_4->first, D.9321
	movl	-52(%rbp), %edx	# ntokens, tmp169
	addl	$2, %edx	#, D.9322
	movl	%edx, %edx	# D.9322, D.9319
	salq	$3, %rdx	#, D.9319
	addq	%rax, %rdx	# D.9321, D.9320
	movq	-48(%rbp), %rax	# buff, tmp170
	movq	24(%rax), %rax	# buff_2->limit, D.9320
	cmpq	%rax, %rdx	# D.9320, D.9320
	jbe	.L70	#,
	.loc 2 496 0
	movq	-48(%rbp), %rcx	# buff, tmp171
	movq	-72(%rbp), %rax	# pfile, tmp172
	movl	$8000, %edx	#,
	movq	%rcx, %rsi	# tmp171,
	movq	%rax, %rdi	# tmp172,
	call	_cpp_append_extend_buff	#
	movq	%rax, -48(%rbp)	# tmp173, buff
	.loc 2 498 0
	movq	-48(%rbp), %rax	# buff, tmp174
	movq	16(%rax), %rdx	# buff_49->cur, D.9320
	movq	-40(%rbp), %rax	# arg, tmp175
	movq	%rdx, (%rax)	# D.9320, arg_4->first
.L70:
	.loc 2 501 0
	movq	-72(%rbp), %rax	# pfile, tmp176
	movq	%rax, %rdi	# tmp176,
	call	cpp_get_token	#
	movq	%rax, -8(%rbp)	# tmp177, token
	.loc 2 503 0
	movq	-8(%rbp), %rax	# token, tmp178
	movzbl	6(%rax), %eax	# token_51->type, D.9323
	cmpb	$66, %al	#, D.9323
	jne	.L71	#,
	.loc 2 506 0
	cmpl	$0, -52(%rbp)	#, ntokens
	jne	.L72	#,
	.loc 2 507 0
	nop
	.loc 2 529 0
	jmp	.L78	#
.L71:
	.loc 2 509 0
	movq	-8(%rbp), %rax	# token, tmp179
	movzbl	6(%rax), %eax	# token_51->type, D.9323
	cmpb	$22, %al	#, D.9323
	jne	.L74	#,
	.loc 2 510 0
	addl	$1, -56(%rbp)	#, paren_depth
	jmp	.L72	#
.L74:
	.loc 2 511 0
	movq	-8(%rbp), %rax	# token, tmp180
	movzbl	6(%rax), %eax	# token_51->type, D.9323
	cmpb	$23, %al	#, D.9323
	jne	.L75	#,
	.loc 2 513 0
	movl	-56(%rbp), %eax	# paren_depth, paren_depth.21
	leal	-1(%rax), %edx	#, tmp181
	movl	%edx, -56(%rbp)	# tmp181, paren_depth
	testl	%eax, %eax	# paren_depth.21
	jne	.L72	#,
	.loc 2 514 0
	jmp	.L76	#
.L75:
	.loc 2 516 0
	movq	-8(%rbp), %rax	# token, tmp182
	movzbl	6(%rax), %eax	# token_51->type, D.9323
	cmpb	$21, %al	#, D.9323
	jne	.L77	#,
	.loc 2 520 0
	cmpl	$0, -56(%rbp)	#, paren_depth
	jne	.L72	#,
	.loc 2 521 0
	movq	-32(%rbp), %rax	# macro, tmp183
	movzbl	26(%rax), %eax	# *macro_21, D.9323
	andl	$2, %eax	#, D.9323
	testb	%al, %al	# D.9323
	je	.L76	#,
	.loc 2 521 0 is_stmt 0 discriminator 1
	movq	-32(%rbp), %rax	# macro, tmp184
	movzwl	24(%rax), %eax	# macro_21->paramc, D.9318
	movzwl	%ax, %eax	# D.9318, D.9322
	cmpl	-60(%rbp), %eax	# argc, D.9322
	jne	.L76	#,
	jmp	.L72	#
.L77:
	.loc 2 524 0 is_stmt 1
	movq	-8(%rbp), %rax	# token, tmp185
	movzbl	6(%rax), %eax	# token_51->type, D.9323
	cmpb	$67, %al	#, D.9323
	je	.L76	#,
	.loc 2 525 0
	movq	-8(%rbp), %rax	# token, tmp186
	movzbl	6(%rax), %eax	# token_51->type, D.9323
	cmpb	$40, %al	#, D.9323
	jne	.L72	#,
	.loc 2 525 0 is_stmt 0 discriminator 1
	movq	-8(%rbp), %rax	# token, tmp187
	movzbl	7(%rax), %eax	# token_51->flags, D.9323
	movzbl	%al, %eax	# D.9323, D.9324
	andl	$64, %eax	#, D.9324
	testl	%eax, %eax	# D.9324
	jne	.L76	#,
.L72:
	.loc 2 528 0 is_stmt 1
	movq	-40(%rbp), %rax	# arg, tmp188
	movq	(%rax), %rcx	# arg_4->first, D.9321
	movl	-52(%rbp), %eax	# ntokens, ntokens.22
	leal	1(%rax), %edx	#, tmp189
	movl	%edx, -52(%rbp)	# tmp189, ntokens
	movl	%eax, %eax	# ntokens.22, D.9319
	salq	$3, %rax	#, D.9319
	leaq	(%rcx,%rax), %rdx	#, D.9321
	movq	-8(%rbp), %rax	# token, tmp190
	movq	%rax, (%rdx)	# tmp190, *_136
	.loc 2 529 0
	jmp	.L78	#
.L76:
	.loc 2 532 0
	jmp	.L79	#
.L81:
	.loc 2 533 0
	subl	$1, -52(%rbp)	#, ntokens
.L79:
	.loc 2 532 0 discriminator 1
	cmpl	$0, -52(%rbp)	#, ntokens
	je	.L80	#,
	.loc 2 532 0 is_stmt 0 discriminator 2
	movq	-40(%rbp), %rax	# arg, tmp191
	movq	(%rax), %rax	# arg_4->first, D.9321
	movl	-52(%rbp), %edx	# ntokens, tmp192
	subl	$1, %edx	#, D.9322
	movl	%edx, %edx	# D.9322, D.9319
	salq	$3, %rdx	#, D.9319
	addq	%rdx, %rax	# D.9319, D.9321
	movq	(%rax), %rax	# *_72, D.9325
	movzbl	6(%rax), %eax	# _73->type, D.9323
	cmpb	$66, %al	#, D.9323
	je	.L81	#,
.L80:
	.loc 2 535 0 is_stmt 1
	movq	-40(%rbp), %rax	# arg, tmp193
	movl	-52(%rbp), %edx	# ntokens, tmp194
	movl	%edx, 24(%rax)	# tmp194, arg_4->count
	.loc 2 536 0
	movq	-40(%rbp), %rax	# arg, tmp195
	movq	(%rax), %rax	# arg_4->first, D.9321
	movl	-52(%rbp), %edx	# ntokens, D.9319
	salq	$3, %rdx	#, D.9319
	addq	%rdx, %rax	# D.9319, D.9321
	movq	-72(%rbp), %rdx	# pfile, tmp196
	addq	$368, %rdx	#, D.9326
	movq	%rdx, (%rax)	# D.9326, *_79
	.loc 2 540 0
	movq	-32(%rbp), %rax	# macro, tmp197
	movzwl	24(%rax), %eax	# macro_21->paramc, D.9318
	movzwl	%ax, %eax	# D.9318, D.9322
	cmpl	-60(%rbp), %eax	# argc, D.9322
	jb	.L82	#,
	.loc 2 542 0
	movq	-40(%rbp), %rax	# arg, tmp198
	movq	(%rax), %rax	# arg_4->first, D.9321
	movl	-52(%rbp), %edx	# ntokens, tmp199
	addl	$1, %edx	#, D.9322
	movl	%edx, %edx	# D.9322, D.9319
	salq	$3, %rdx	#, D.9319
	addq	%rax, %rdx	# D.9321, D.9320
	movq	-48(%rbp), %rax	# buff, tmp200
	movq	%rdx, 16(%rax)	# D.9320, buff_3->cur
	.loc 2 543 0
	movq	-32(%rbp), %rax	# macro, tmp201
	movzwl	24(%rax), %eax	# macro_21->paramc, D.9318
	movzwl	%ax, %eax	# D.9318, D.9322
	cmpl	-60(%rbp), %eax	# argc, D.9322
	je	.L82	#,
	.loc 2 544 0
	addq	$32, -40(%rbp)	#, arg
.L82:
.LBE9:
	.loc 2 547 0
	movq	-8(%rbp), %rax	# token, tmp202
	movzbl	6(%rax), %eax	# token_51->type, D.9323
	.loc 2 549 0
	cmpb	$23, %al	#, D.9323
	je	.L83	#,
	.loc 2 548 0
	movq	-8(%rbp), %rax	# token, tmp203
	movzbl	6(%rax), %eax	# token_51->type, D.9323
	cmpb	$67, %al	#, D.9323
	je	.L83	#,
	.loc 2 549 0
	movq	-8(%rbp), %rax	# token, tmp204
	movzbl	6(%rax), %eax	# token_51->type, D.9323
	cmpb	$40, %al	#, D.9323
	jne	.L84	#,
.L83:
	.loc 2 551 0
	movq	-8(%rbp), %rax	# token, tmp205
	movzbl	6(%rax), %eax	# token_51->type, D.9323
	cmpb	$67, %al	#, D.9323
	je	.L85	#,
	.loc 2 551 0 is_stmt 0 discriminator 1
	movq	-8(%rbp), %rax	# token, tmp206
	movzbl	6(%rax), %eax	# token_51->type, D.9323
	cmpb	$40, %al	#, D.9323
	jne	.L86	#,
.L85:
.LBB10:
	.loc 2 553 0 is_stmt 1
	movb	$0, -61(%rbp)	#, step_back
	.loc 2 561 0
	movq	-8(%rbp), %rax	# token, tmp207
	movzbl	6(%rax), %eax	# token_51->type, D.9323
	cmpb	$40, %al	#, D.9323
	jne	.L87	#,
	.loc 2 563 0
	movq	-72(%rbp), %rax	# pfile, tmp208
	movl	$.LC19, %esi	#,
	movq	%rax, %rdi	# tmp208,
	movl	$0, %eax	#,
	call	cpp_error	#
	.loc 2 565 0
	movb	$1, -61(%rbp)	#, step_back
	jmp	.L88	#
.L87:
	.loc 2 568 0
	movq	-72(%rbp), %rax	# pfile, tmp209
	movq	152(%rax), %rax	# pfile_28(D)->context, D.9328
	movq	8(%rax), %rax	# _120->prev, D.9329
	testq	%rax, %rax	# D.9329
	jne	.L89	#,
	.loc 2 568 0 is_stmt 0 discriminator 2
	movq	-72(%rbp), %rax	# pfile, tmp210
	movzbl	8(%rax), %eax	# pfile_28(D)->state.in_directive, D.9323
	testb	%al, %al	# D.9323
	je	.L90	#,
.L89:
	.loc 2 568 0 discriminator 1
	movl	$1, %eax	#, iftmp.23
	jmp	.L91	#
.L90:
	.loc 2 568 0 discriminator 3
	movl	$0, %eax	#, iftmp.23
.L91:
	.loc 2 568 0 discriminator 4
	movb	%al, -61(%rbp)	# iftmp.23, step_back
	andb	$1, -61(%rbp)	#, step_back
.L88:
	.loc 2 574 0 is_stmt 1
	cmpb	$0, -61(%rbp)	#, step_back
	je	.L92	#,
	.loc 2 575 0
	movq	-72(%rbp), %rax	# pfile, tmp211
	movl	$1, %esi	#,
	movq	%rax, %rdi	# tmp211,
	call	_cpp_backup_tokens	#
.L92:
	.loc 2 576 0
	movq	-80(%rbp), %rax	# node, tmp212
	movq	8(%rax), %rdx	# node_20(D)->ident.str, D.9327
	movq	-72(%rbp), %rax	# pfile, tmp213
	movl	$.LC20, %esi	#,
	movq	%rax, %rdi	# tmp213,
	movl	$0, %eax	#,
	call	cpp_error	#
	.loc 2 578 0
	movb	$1, -62(%rbp)	#, error
.LBE10:
	.loc 2 552 0
	jmp	.L93	#
.L86:
	.loc 2 580 0
	movq	-32(%rbp), %rax	# macro, tmp214
	movzwl	24(%rax), %eax	# macro_21->paramc, D.9318
	movzwl	%ax, %eax	# D.9318, D.9322
	cmpl	-60(%rbp), %eax	# argc, D.9322
	jbe	.L94	#,
	.loc 2 590 0
	movl	-60(%rbp), %eax	# argc, tmp215
	leal	1(%rax), %edx	#, D.9322
	movq	-32(%rbp), %rax	# macro, tmp216
	movzwl	24(%rax), %eax	# macro_21->paramc, D.9318
	movzwl	%ax, %eax	# D.9318, D.9322
	cmpl	%eax, %edx	# D.9322, D.9322
	jne	.L95	#,
	.loc 2 590 0 is_stmt 0 discriminator 1
	movq	-32(%rbp), %rax	# macro, tmp217
	movzbl	26(%rax), %eax	# *macro_21, D.9323
	andl	$2, %eax	#, D.9323
	testb	%al, %al	# D.9323
	je	.L95	#,
	.loc 2 592 0 is_stmt 1
	movq	-72(%rbp), %rax	# pfile, tmp218
	movzbl	770(%rax), %eax	# pfile_28(D)->opts.pedantic, D.9323
	testb	%al, %al	# D.9323
	je	.L96	#,
	.loc 2 592 0 is_stmt 0 discriminator 1
	movq	-32(%rbp), %rax	# macro, tmp219
	movzbl	26(%rax), %eax	# *macro_21, D.9323
	andl	$4, %eax	#, D.9323
	testb	%al, %al	# D.9323
	jne	.L96	#,
	.loc 2 593 0 is_stmt 1
	movq	-72(%rbp), %rax	# pfile, tmp220
	movl	$.LC21, %esi	#,
	movq	%rax, %rdi	# tmp220,
	movl	$0, %eax	#,
	call	cpp_pedwarn	#
	.loc 2 592 0
	jmp	.L97	#
.L96:
	.loc 2 592 0 is_stmt 0 discriminator 2
	jmp	.L97	#
.L95:
	.loc 2 599 0 is_stmt 1
	movq	-32(%rbp), %rax	# macro, tmp221
	movzwl	24(%rax), %eax	# macro_21->paramc, D.9318
	.loc 2 597 0
	movzwl	%ax, %ecx	# D.9318, D.9324
	movq	-80(%rbp), %rax	# node, tmp222
	movq	8(%rax), %rdx	# node_20(D)->ident.str, D.9327
	movl	-60(%rbp), %esi	# argc, tmp223
	movq	-72(%rbp), %rax	# pfile, tmp224
	movl	%esi, %r8d	# tmp223,
	movl	$.LC22, %esi	#,
	movq	%rax, %rdi	# tmp224,
	movl	$0, %eax	#,
	call	cpp_error	#
	.loc 2 600 0
	movb	$1, -62(%rbp)	#, error
	jmp	.L93	#
.L97:
	jmp	.L93	#
.L94:
	.loc 2 603 0
	movq	-32(%rbp), %rax	# macro, tmp225
	movzwl	24(%rax), %eax	# macro_21->paramc, D.9318
	movzwl	%ax, %eax	# D.9318, D.9322
	cmpl	-60(%rbp), %eax	# argc, D.9322
	jae	.L93	#,
	.loc 2 606 0
	cmpl	$1, -60(%rbp)	#, argc
	jne	.L98	#,
	.loc 2 606 0 is_stmt 0 discriminator 1
	movq	-40(%rbp), %rax	# arg, tmp226
	movl	24(%rax), %eax	# arg_5->count, D.9322
	testl	%eax, %eax	# D.9322
	je	.L93	#,
.L98:
	.loc 2 610 0 is_stmt 1
	movq	-32(%rbp), %rax	# macro, tmp227
	movzwl	24(%rax), %eax	# macro_21->paramc, D.9318
	.loc 2 608 0
	movzwl	%ax, %esi	# D.9318, D.9324
	movq	-80(%rbp), %rax	# node, tmp228
	movq	8(%rax), %rdx	# node_20(D)->ident.str, D.9327
	movl	-60(%rbp), %ecx	# argc, tmp229
	movq	-72(%rbp), %rax	# pfile, tmp230
	movl	%esi, %r8d	# D.9324,
	movl	$.LC23, %esi	#,
	movq	%rax, %rdi	# tmp230,
	movl	$0, %eax	#,
	call	cpp_error	#
	.loc 2 611 0
	movb	$1, -62(%rbp)	#, error
.L93:
	.loc 2 615 0
	movzbl	-62(%rbp), %eax	# error, tmp231
	xorl	$1, %eax	#, D.9330
	testb	%al, %al	# D.9330
	je	.L99	#,
	.loc 2 616 0
	movq	-24(%rbp), %rax	# base_buff, D.9317
	jmp	.L100	#
.L99:
	.loc 2 618 0
	movq	-24(%rbp), %rdx	# base_buff, tmp232
	movq	-72(%rbp), %rax	# pfile, tmp233
	movq	%rdx, %rsi	# tmp232,
	movq	%rax, %rdi	# tmp233,
	call	_cpp_release_buff	#
	.loc 2 619 0
	movl	$0, %eax	#, D.9317
.L100:
	.loc 2 620 0
	leave
	.cfi_def_cfa 7, 8
	ret
	.cfi_endproc
.LFE15:
	.size	collect_args, .-collect_args
	.type	funlike_invocation_p, @function
funlike_invocation_p:
.LFB16:
	.loc 2 630 0
	.cfi_startproc
	pushq	%rbp	#
	.cfi_def_cfa_offset 16
	.cfi_offset 6, -16
	movq	%rsp, %rbp	#,
	.cfi_def_cfa_register 6
	subq	$32, %rsp	#,
	movq	%rdi, -24(%rbp)	# pfile, pfile
	movq	%rsi, -32(%rbp)	# node, node
	.loc 2 631 0
	movq	$0, -16(%rbp)	#, padding
.L106:
	.loc 2 635 0
	movq	-24(%rbp), %rax	# pfile, tmp69
	movq	%rax, %rdi	# tmp69,
	call	cpp_get_token	#
	movq	%rax, -8(%rbp)	# tmp70, token
	.loc 2 636 0
	movq	-8(%rbp), %rax	# token, tmp71
	movzbl	6(%rax), %eax	# token_6->type, D.9337
	cmpb	$66, %al	#, D.9337
	je	.L102	#,
	.loc 2 637 0
	nop
	.loc 2 643 0
	movq	-8(%rbp), %rax	# token, tmp75
	movzbl	6(%rax), %eax	# token_6->type, D.9337
	cmpb	$22, %al	#, D.9337
	jne	.L107	#,
	jmp	.L111	#
.L102:
	.loc 2 638 0
	cmpq	$0, -16(%rbp)	#, padding
	je	.L104	#,
	.loc 2 639 0
	movq	-16(%rbp), %rax	# padding, tmp72
	movzbl	7(%rax), %eax	# padding_1->flags, D.9337
	movzbl	%al, %eax	# D.9337, D.9339
	andl	$1, %eax	#, D.9339
	testl	%eax, %eax	# D.9339
	jne	.L105	#,
	.loc 2 639 0 is_stmt 0 discriminator 1
	movq	-8(%rbp), %rax	# token, tmp73
	movq	8(%rax), %rax	# token_6->val.source, D.9340
	testq	%rax, %rax	# D.9340
	jne	.L105	#,
.L104:
	.loc 2 640 0 is_stmt 1
	movq	-8(%rbp), %rax	# token, tmp74
	movq	%rax, -16(%rbp)	# tmp74, padding
	.loc 2 641 0
	jmp	.L106	#
.L105:
	jmp	.L106	#
.L111:
	.loc 2 645 0
	movq	-24(%rbp), %rax	# pfile, tmp76
	movb	$2, 16(%rax)	#, pfile_5(D)->state.parsing_args
	.loc 2 646 0
	movq	-32(%rbp), %rdx	# node, tmp77
	movq	-24(%rbp), %rax	# pfile, tmp78
	movq	%rdx, %rsi	# tmp77,
	movq	%rax, %rdi	# tmp78,
	call	collect_args	#
	jmp	.L108	#
.L107:
	.loc 2 651 0
	movq	-8(%rbp), %rax	# token, tmp79
	movzbl	6(%rax), %eax	# token_6->type, D.9337
	cmpb	$67, %al	#, D.9337
	jne	.L109	#,
	.loc 2 651 0 is_stmt 0 discriminator 1
	movq	-24(%rbp), %rax	# pfile, tmp80
	addq	$368, %rax	#, D.9338
	cmpq	-8(%rbp), %rax	# token, D.9338
	jne	.L110	#,
.L109:
	.loc 2 656 0 is_stmt 1
	movq	-24(%rbp), %rax	# pfile, tmp81
	movl	$1, %esi	#,
	movq	%rax, %rdi	# tmp81,
	call	_cpp_backup_tokens	#
	.loc 2 657 0
	cmpq	$0, -16(%rbp)	#, padding
	je	.L110	#,
	.loc 2 658 0
	movq	-16(%rbp), %rdx	# padding, tmp82
	movq	-24(%rbp), %rax	# pfile, tmp83
	movl	$1, %ecx	#,
	movl	$0, %esi	#,
	movq	%rax, %rdi	# tmp83,
	call	push_token_context	#
.L110:
	.loc 2 661 0
	movl	$0, %eax	#, D.9336
.L108:
	.loc 2 662 0
	leave
	.cfi_def_cfa 7, 8
	ret
	.cfi_endproc
.LFE16:
	.size	funlike_invocation_p, .-funlike_invocation_p
	.section	.rodata
	.align 8
.LC24:
	.string	"function-like macro \"%s\" must be used with arguments in traditional C"
	.text
	.type	enter_macro_context, @function
enter_macro_context:
.LFB17:
	.loc 2 672 0
	.cfi_startproc
	pushq	%rbp	#
	.cfi_def_cfa_offset 16
	.cfi_offset 6, -16
	movq	%rsp, %rbp	#,
	.cfi_def_cfa_register 6
	subq	$32, %rsp	#,
	movq	%rdi, -24(%rbp)	# pfile, pfile
	movq	%rsi, -32(%rbp)	# node, node
	.loc 2 674 0
	movq	-24(%rbp), %rax	# pfile, tmp87
	movb	$0, 184(%rax)	#, pfile_2(D)->mi_valid
	.loc 2 676 0
	movq	-24(%rbp), %rax	# pfile, tmp88
	movb	$0, 10(%rax)	#, pfile_2(D)->state.angled_headers
	.loc 2 679 0
	movq	-32(%rbp), %rax	# node, tmp89
	movzbl	21(%rax), %eax	# node_3(D)->flags, D.9342
	movzbl	%al, %eax	# D.9342, D.9341
	andl	$4, %eax	#, D.9341
	testl	%eax, %eax	# D.9341
	jne	.L113	#,
.LBB11:
	.loc 2 681 0
	movq	-32(%rbp), %rax	# node, tmp90
	movq	24(%rax), %rax	# node_3(D)->value.macro, tmp91
	movq	%rax, -16(%rbp)	# tmp91, macro
	.loc 2 683 0
	movq	-16(%rbp), %rax	# macro, tmp92
	movzbl	26(%rax), %eax	# *macro_7, D.9342
	andl	$1, %eax	#, D.9342
	testb	%al, %al	# D.9342
	je	.L114	#,
.LBB12:
	.loc 2 687 0
	movq	-24(%rbp), %rax	# pfile, tmp93
	movzbl	15(%rax), %eax	# pfile_2(D)->state.prevent_expansion, D.9342
	leal	1(%rax), %edx	#, D.9342
	movq	-24(%rbp), %rax	# pfile, tmp94
	movb	%dl, 15(%rax)	# D.9342, pfile_2(D)->state.prevent_expansion
	.loc 2 688 0
	movq	-24(%rbp), %rax	# pfile, tmp95
	movl	244(%rax), %eax	# pfile_2(D)->keep_tokens, D.9343
	leal	1(%rax), %edx	#, D.9343
	movq	-24(%rbp), %rax	# pfile, tmp96
	movl	%edx, 244(%rax)	# D.9343, pfile_2(D)->keep_tokens
	.loc 2 689 0
	movq	-24(%rbp), %rax	# pfile, tmp97
	movb	$1, 16(%rax)	#, pfile_2(D)->state.parsing_args
	.loc 2 690 0
	movq	-32(%rbp), %rdx	# node, tmp98
	movq	-24(%rbp), %rax	# pfile, tmp99
	movq	%rdx, %rsi	# tmp98,
	movq	%rax, %rdi	# tmp99,
	call	funlike_invocation_p	#
	movq	%rax, -8(%rbp)	# tmp100, buff
	.loc 2 691 0
	movq	-24(%rbp), %rax	# pfile, tmp101
	movb	$0, 16(%rax)	#, pfile_2(D)->state.parsing_args
	.loc 2 692 0
	movq	-24(%rbp), %rax	# pfile, tmp102
	movl	244(%rax), %eax	# pfile_2(D)->keep_tokens, D.9343
	leal	-1(%rax), %edx	#, D.9343
	movq	-24(%rbp), %rax	# pfile, tmp103
	movl	%edx, 244(%rax)	# D.9343, pfile_2(D)->keep_tokens
	.loc 2 693 0
	movq	-24(%rbp), %rax	# pfile, tmp104
	movzbl	15(%rax), %eax	# pfile_2(D)->state.prevent_expansion, D.9342
	leal	-1(%rax), %edx	#, D.9342
	movq	-24(%rbp), %rax	# pfile, tmp105
	movb	%dl, 15(%rax)	# D.9342, pfile_2(D)->state.prevent_expansion
	.loc 2 695 0
	cmpq	$0, -8(%rbp)	#, buff
	jne	.L115	#,
	.loc 2 697 0
	movq	-24(%rbp), %rax	# pfile, tmp106
	movzbl	761(%rax), %eax	# pfile_2(D)->opts.warn_traditional, D.9342
	testb	%al, %al	# D.9342
	je	.L116	#,
	.loc 2 697 0 is_stmt 0 discriminator 1
	movq	-32(%rbp), %rax	# node, tmp107
	movq	24(%rax), %rax	# node_3(D)->value.macro, D.9344
	movzbl	26(%rax), %eax	# *_22, D.9342
	andl	$4, %eax	#, D.9342
	testb	%al, %al	# D.9342
	jne	.L116	#,
	.loc 2 698 0 is_stmt 1
	movq	-32(%rbp), %rax	# node, tmp108
	movq	8(%rax), %rdx	# node_3(D)->ident.str, D.9345
	movq	-24(%rbp), %rax	# pfile, tmp109
	movl	$.LC24, %esi	#,
	movq	%rax, %rdi	# tmp109,
	movl	$0, %eax	#,
	call	cpp_warning	#
.L116:
	.loc 2 702 0
	movl	$0, %eax	#, D.9341
	jmp	.L117	#
.L115:
	.loc 2 705 0
	movq	-32(%rbp), %rax	# node, tmp110
	movq	24(%rax), %rax	# node_3(D)->value.macro, D.9344
	movzwl	24(%rax), %eax	# _27->paramc, D.9346
	testw	%ax, %ax	# D.9346
	je	.L118	#,
	.loc 2 706 0
	movq	-8(%rbp), %rax	# buff, tmp111
	movq	8(%rax), %rdx	# buff_15->base, D.9347
	movq	-32(%rbp), %rcx	# node, tmp112
	movq	-24(%rbp), %rax	# pfile, tmp113
	movq	%rcx, %rsi	# tmp112,
	movq	%rax, %rdi	# tmp113,
	call	replace_args	#
.L118:
	.loc 2 707 0
	movq	-8(%rbp), %rdx	# buff, tmp114
	movq	-24(%rbp), %rax	# pfile, tmp115
	movq	%rdx, %rsi	# tmp114,
	movq	%rax, %rdi	# tmp115,
	call	_cpp_release_buff	#
.L114:
.LBE12:
	.loc 2 711 0
	movq	-32(%rbp), %rax	# node, tmp116
	movzbl	21(%rax), %eax	# node_3(D)->flags, D.9342
	orl	$32, %eax	#, D.9342
	movl	%eax, %edx	# D.9342, D.9342
	movq	-32(%rbp), %rax	# node, tmp117
	movb	%dl, 21(%rax)	# D.9342, node_3(D)->flags
	.loc 2 713 0
	movq	-16(%rbp), %rax	# macro, tmp118
	movzwl	24(%rax), %eax	# macro_7->paramc, D.9346
	testw	%ax, %ax	# D.9346
	jne	.L119	#,
	.loc 2 714 0
	movq	-16(%rbp), %rax	# macro, tmp119
	movl	20(%rax), %ecx	# macro_7->count, D.9343
	movq	-16(%rbp), %rax	# macro, tmp120
	movq	8(%rax), %rdx	# macro_7->expansion, D.9348
	movq	-32(%rbp), %rsi	# node, tmp121
	movq	-24(%rbp), %rax	# pfile, tmp122
	movq	%rax, %rdi	# tmp122,
	call	push_token_context	#
.L119:
	.loc 2 716 0
	movl	$1, %eax	#, D.9341
	jmp	.L117	#
.L113:
.LBE11:
	.loc 2 720 0
	movq	-32(%rbp), %rdx	# node, tmp123
	movq	-24(%rbp), %rax	# pfile, tmp124
	movq	%rdx, %rsi	# tmp123,
	movq	%rax, %rdi	# tmp124,
	call	builtin_macro	#
.L117:
	.loc 2 721 0
	leave
	.cfi_def_cfa 7, 8
	ret
	.cfi_endproc
.LFE17:
	.size	enter_macro_context, .-enter_macro_context
	.type	replace_args, @function
replace_args:
.LFB18:
	.loc 2 732 0
	.cfi_startproc
	pushq	%rbp	#
	.cfi_def_cfa_offset 16
	.cfi_offset 6, -16
	movq	%rsp, %rbp	#,
	.cfi_def_cfa_register 6
	pushq	%rbx	#
	subq	$136, %rsp	#,
	.cfi_offset 3, -24
	movq	%rdi, -120(%rbp)	# pfile, pfile
	movq	%rsi, -128(%rbp)	# node, node
	movq	%rdx, -136(%rbp)	# args, args
	.loc 2 744 0
	movq	-128(%rbp), %rax	# node, tmp161
	movq	24(%rax), %rax	# node_20(D)->value.macro, tmp162
	movq	%rax, -64(%rbp)	# tmp162, macro
	.loc 2 745 0
	movq	-64(%rbp), %rax	# macro, tmp163
	movl	20(%rax), %eax	# macro_21->count, tmp164
	movl	%eax, -104(%rbp)	# tmp164, total
	.loc 2 746 0
	movq	-64(%rbp), %rax	# macro, tmp165
	movq	8(%rax), %rcx	# macro_21->expansion, D.9350
	movq	-64(%rbp), %rax	# macro, tmp166
	movl	20(%rax), %eax	# macro_21->count, D.9351
	movl	%eax, %edx	# D.9351, D.9352
	movq	%rdx, %rax	# D.9352, tmp167
	addq	%rax, %rax	# tmp167
	addq	%rdx, %rax	# D.9352, tmp167
	salq	$3, %rax	#, tmp168
	addq	%rcx, %rax	# D.9350, tmp169
	movq	%rax, -56(%rbp)	# tmp169, limit
	.loc 2 748 0
	movq	-64(%rbp), %rax	# macro, tmp170
	movq	8(%rax), %rax	# macro_21->expansion, tmp171
	movq	%rax, -96(%rbp)	# tmp171, src
	jmp	.L121	#
.L128:
	.loc 2 749 0
	movq	-96(%rbp), %rax	# src, tmp172
	movzbl	6(%rax), %eax	# src_4->type, D.9353
	cmpb	$65, %al	#, D.9353
	jne	.L122	#,
	.loc 2 752 0
	addl	$2, -104(%rbp)	#, total
	.loc 2 756 0
	movq	-96(%rbp), %rax	# src, tmp173
	movl	8(%rax), %eax	# src_4->val.arg_no, D.9351
	subl	$1, %eax	#, D.9351
	movl	%eax, %eax	# D.9351, D.9352
	salq	$5, %rax	#, D.9352
	movq	%rax, %rdx	# D.9352, D.9352
	movq	-136(%rbp), %rax	# args, tmp177
	addq	%rdx, %rax	# D.9352, tmp176
	movq	%rax, -48(%rbp)	# tmp176, arg
	.loc 2 758 0
	movq	-96(%rbp), %rax	# src, tmp178
	movzbl	7(%rax), %eax	# src_4->flags, D.9353
	movzbl	%al, %eax	# D.9353, D.9354
	andl	$4, %eax	#, D.9354
	testl	%eax, %eax	# D.9354
	je	.L123	#,
	.loc 2 760 0
	movq	-48(%rbp), %rax	# arg, tmp179
	movq	16(%rax), %rax	# arg_36->stringified, D.9355
	testq	%rax, %rax	# D.9355
	jne	.L122	#,
	.loc 2 761 0
	movq	-48(%rbp), %rdx	# arg, tmp180
	movq	-120(%rbp), %rax	# pfile, tmp181
	movq	%rdx, %rsi	# tmp180,
	movq	%rax, %rdi	# tmp181,
	call	stringify_arg	#
	movq	-48(%rbp), %rdx	# arg, tmp182
	movq	%rax, 16(%rdx)	# D.9355, arg_36->stringified
	jmp	.L122	#
.L123:
	.loc 2 763 0
	movq	-96(%rbp), %rax	# src, tmp183
	movzbl	7(%rax), %eax	# src_4->flags, D.9353
	movzbl	%al, %eax	# D.9353, D.9354
	andl	$8, %eax	#, D.9354
	testl	%eax, %eax	# D.9354
	jne	.L125	#,
	.loc 2 764 0
	movq	-64(%rbp), %rax	# macro, tmp184
	movq	8(%rax), %rax	# macro_21->expansion, D.9350
	cmpq	-96(%rbp), %rax	# src, D.9350
	jae	.L126	#,
	.loc 2 764 0 is_stmt 0 discriminator 1
	movq	-96(%rbp), %rax	# src, tmp185
	subq	$24, %rax	#, D.9355
	movzbl	7(%rax), %eax	# _47->flags, D.9353
	movzbl	%al, %eax	# D.9353, D.9354
	andl	$8, %eax	#, D.9354
	testl	%eax, %eax	# D.9354
	je	.L126	#,
.L125:
	.loc 2 765 0 is_stmt 1
	movq	-48(%rbp), %rax	# arg, tmp186
	movl	24(%rax), %edx	# arg_36->count, D.9351
	movl	-104(%rbp), %eax	# total, tmp187
	addl	%edx, %eax	# D.9351, D.9351
	subl	$1, %eax	#, tmp188
	movl	%eax, -104(%rbp)	# tmp188, total
	jmp	.L122	#
.L126:
	.loc 2 768 0
	movq	-48(%rbp), %rax	# arg, tmp189
	movq	8(%rax), %rax	# arg_36->expanded, D.9356
	testq	%rax, %rax	# D.9356
	jne	.L127	#,
	.loc 2 769 0
	movq	-48(%rbp), %rdx	# arg, tmp190
	movq	-120(%rbp), %rax	# pfile, tmp191
	movq	%rdx, %rsi	# tmp190,
	movq	%rax, %rdi	# tmp191,
	call	expand_arg	#
.L127:
	.loc 2 770 0
	movq	-48(%rbp), %rax	# arg, tmp192
	movl	28(%rax), %edx	# arg_36->expanded_count, D.9351
	movl	-104(%rbp), %eax	# total, tmp193
	addl	%edx, %eax	# D.9351, D.9351
	subl	$1, %eax	#, tmp194
	movl	%eax, -104(%rbp)	# tmp194, total
.L122:
	.loc 2 748 0
	addq	$24, -96(%rbp)	#, src
.L121:
	.loc 2 748 0 is_stmt 0 discriminator 1
	movq	-96(%rbp), %rax	# src, tmp195
	cmpq	-56(%rbp), %rax	# limit, tmp195
	jb	.L128	#,
	.loc 2 776 0 is_stmt 1
	movl	-104(%rbp), %eax	# total, D.9352
	leaq	0(,%rax,8), %rdx	#, D.9352
	movq	-120(%rbp), %rax	# pfile, tmp196
	movq	%rdx, %rsi	# D.9352,
	movq	%rax, %rdi	# tmp196,
	call	_cpp_get_buff	#
	movq	%rax, -40(%rbp)	# tmp197, buff
	.loc 2 777 0
	movq	-40(%rbp), %rax	# buff, tmp198
	movq	8(%rax), %rax	# buff_61->base, tmp199
	movq	%rax, -32(%rbp)	# tmp199, first
	.loc 2 778 0
	movq	-32(%rbp), %rax	# first, tmp200
	movq	%rax, -88(%rbp)	# tmp200, dest
	.loc 2 780 0
	movq	-64(%rbp), %rax	# macro, tmp201
	movq	8(%rax), %rax	# macro_21->expansion, tmp202
	movq	%rax, -96(%rbp)	# tmp202, src
	jmp	.L129	#
.L145:
.LBB13:
	.loc 2 785 0
	movq	-96(%rbp), %rax	# src, tmp203
	movzbl	6(%rax), %eax	# src_5->type, D.9353
	cmpb	$65, %al	#, D.9353
	je	.L130	#,
	.loc 2 787 0
	movq	-88(%rbp), %rax	# dest, dest.24
	leaq	8(%rax), %rdx	#, tmp204
	movq	%rdx, -88(%rbp)	# tmp204, dest
	movq	-96(%rbp), %rdx	# src, tmp205
	movq	%rdx, (%rax)	# tmp205, *dest.24_66
	.loc 2 788 0
	jmp	.L131	#
.L130:
	.loc 2 791 0
	movq	$0, -72(%rbp)	#, paste_flag
	.loc 2 792 0
	movq	-96(%rbp), %rax	# src, tmp206
	movl	8(%rax), %eax	# src_5->val.arg_no, D.9351
	subl	$1, %eax	#, D.9351
	movl	%eax, %eax	# D.9351, D.9352
	salq	$5, %rax	#, D.9352
	movq	%rax, %rdx	# D.9352, D.9352
	movq	-136(%rbp), %rax	# args, tmp210
	addq	%rdx, %rax	# D.9352, tmp209
	movq	%rax, -48(%rbp)	# tmp209, arg
	.loc 2 793 0
	movq	-96(%rbp), %rax	# src, tmp211
	movzbl	7(%rax), %eax	# src_5->flags, D.9353
	movzbl	%al, %eax	# D.9353, D.9354
	andl	$4, %eax	#, D.9354
	testl	%eax, %eax	# D.9354
	je	.L132	#,
	.loc 2 794 0
	movl	$1, -100(%rbp)	#, count
	movq	-48(%rbp), %rax	# arg, tmp215
	addq	$16, %rax	#, tmp214
	movq	%rax, -80(%rbp)	# tmp214, from
	jmp	.L133	#
.L132:
	.loc 2 795 0
	movq	-96(%rbp), %rax	# src, tmp216
	movzbl	7(%rax), %eax	# src_5->flags, D.9353
	movzbl	%al, %eax	# D.9353, D.9354
	andl	$8, %eax	#, D.9354
	testl	%eax, %eax	# D.9354
	je	.L134	#,
	.loc 2 796 0
	movq	-48(%rbp), %rax	# arg, tmp217
	movl	24(%rax), %eax	# arg_73->count, tmp218
	movl	%eax, -100(%rbp)	# tmp218, count
	movq	-48(%rbp), %rax	# arg, tmp219
	movq	(%rax), %rax	# arg_73->first, tmp220
	movq	%rax, -80(%rbp)	# tmp220, from
	jmp	.L133	#
.L134:
	.loc 2 797 0
	movq	-64(%rbp), %rax	# macro, tmp221
	movq	8(%rax), %rax	# macro_21->expansion, D.9350
	cmpq	-96(%rbp), %rax	# src, D.9350
	je	.L135	#,
	.loc 2 797 0 is_stmt 0 discriminator 1
	movq	-96(%rbp), %rax	# src, tmp222
	subq	$24, %rax	#, D.9355
	movzbl	7(%rax), %eax	# _85->flags, D.9353
	movzbl	%al, %eax	# D.9353, D.9354
	andl	$8, %eax	#, D.9354
	testl	%eax, %eax	# D.9354
	je	.L135	#,
	.loc 2 799 0 is_stmt 1
	movq	-48(%rbp), %rax	# arg, tmp223
	movl	24(%rax), %eax	# arg_73->count, tmp224
	movl	%eax, -100(%rbp)	# tmp224, count
	movq	-48(%rbp), %rax	# arg, tmp225
	movq	(%rax), %rax	# arg_73->first, tmp226
	movq	%rax, -80(%rbp)	# tmp226, from
	.loc 2 800 0
	movq	-88(%rbp), %rax	# dest, tmp227
	cmpq	-32(%rbp), %rax	# first, tmp227
	je	.L136	#,
	.loc 2 806 0
	movq	-88(%rbp), %rax	# dest, tmp228
	subq	$8, %rax	#, D.9356
	movq	(%rax), %rax	# *_91, D.9355
	movzbl	6(%rax), %eax	# _92->type, D.9353
	cmpb	$21, %al	#, D.9353
	jne	.L137	#,
	.loc 2 807 0
	movq	-64(%rbp), %rax	# macro, tmp229
	movzbl	26(%rax), %eax	# *macro_21, D.9353
	andl	$2, %eax	#, D.9353
	testb	%al, %al	# D.9353
	je	.L137	#,
	.loc 2 808 0
	movq	-96(%rbp), %rax	# src, tmp230
	movl	8(%rax), %edx	# src_5->val.arg_no, D.9351
	movq	-64(%rbp), %rax	# macro, tmp231
	movzwl	24(%rax), %eax	# macro_21->paramc, D.9357
	movzwl	%ax, %eax	# D.9357, D.9351
	cmpl	%eax, %edx	# D.9351, D.9351
	jne	.L137	#,
	.loc 2 810 0
	cmpl	$0, -100(%rbp)	#, count
	jne	.L138	#,
	.loc 2 811 0
	subq	$8, -88(%rbp)	#, dest
	.loc 2 810 0
	jmp	.L136	#
.L138:
	.loc 2 813 0
	movq	-88(%rbp), %rax	# dest, tmp235
	subq	$8, %rax	#, tmp234
	movq	%rax, -72(%rbp)	# tmp234, paste_flag
	.loc 2 810 0
	jmp	.L136	#
.L137:
	.loc 2 816 0
	cmpl	$0, -100(%rbp)	#, count
	jne	.L136	#,
	.loc 2 817 0
	movq	-88(%rbp), %rax	# dest, tmp239
	subq	$8, %rax	#, tmp238
	movq	%rax, -72(%rbp)	# tmp238, paste_flag
	.loc 2 800 0
	jmp	.L133	#
.L136:
	.loc 2 800 0 is_stmt 0 discriminator 1
	jmp	.L133	#
.L135:
	.loc 2 821 0 is_stmt 1
	movq	-48(%rbp), %rax	# arg, tmp240
	movl	28(%rax), %eax	# arg_73->expanded_count, tmp241
	movl	%eax, -100(%rbp)	# tmp241, count
	movq	-48(%rbp), %rax	# arg, tmp242
	movq	8(%rax), %rax	# arg_73->expanded, tmp243
	movq	%rax, -80(%rbp)	# tmp243, from
.L133:
	.loc 2 824 0
	movq	-120(%rbp), %rax	# pfile, tmp244
	movzbl	8(%rax), %eax	# pfile_41(D)->state.in_directive, D.9353
	testb	%al, %al	# D.9353
	jne	.L140	#,
	.loc 2 825 0
	movq	-64(%rbp), %rax	# macro, tmp245
	movq	8(%rax), %rax	# macro_21->expansion, D.9350
	cmpq	-96(%rbp), %rax	# src, D.9350
	je	.L140	#,
	.loc 2 825 0 is_stmt 0 discriminator 1
	movq	-96(%rbp), %rax	# src, tmp246
	subq	$24, %rax	#, D.9355
	movzbl	7(%rax), %eax	# _106->flags, D.9353
	movzbl	%al, %eax	# D.9353, D.9354
	andl	$8, %eax	#, D.9354
	testl	%eax, %eax	# D.9354
	jne	.L140	#,
	.loc 2 826 0 is_stmt 1
	movq	-88(%rbp), %rbx	# dest, dest.25
	leaq	8(%rbx), %rax	#, tmp247
	movq	%rax, -88(%rbp)	# tmp247, dest
	movq	-96(%rbp), %rdx	# src, tmp248
	movq	-120(%rbp), %rax	# pfile, tmp249
	movq	%rdx, %rsi	# tmp248,
	movq	%rax, %rdi	# tmp249,
	call	padding_token	#
	movq	%rax, (%rbx)	# D.9355, *dest.25_110
.L140:
	.loc 2 828 0
	cmpl	$0, -100(%rbp)	#, count
	je	.L141	#,
	.loc 2 830 0
	movl	-100(%rbp), %eax	# count, D.9352
	leaq	0(,%rax,8), %rdx	#, D.9352
	movq	-80(%rbp), %rcx	# from, tmp250
	movq	-88(%rbp), %rax	# dest, tmp251
	movq	%rcx, %rsi	# tmp250,
	movq	%rax, %rdi	# tmp251,
	call	memcpy	#
	.loc 2 831 0
	movl	-100(%rbp), %eax	# count, D.9352
	salq	$3, %rax	#, D.9352
	addq	%rax, -88(%rbp)	# D.9352, dest
	.loc 2 835 0
	movq	-96(%rbp), %rax	# src, tmp252
	movzbl	7(%rax), %eax	# src_5->flags, D.9353
	movzbl	%al, %eax	# D.9353, D.9354
	andl	$8, %eax	#, D.9354
	testl	%eax, %eax	# D.9354
	je	.L141	#,
	.loc 2 836 0
	movq	-88(%rbp), %rax	# dest, tmp256
	subq	$8, %rax	#, tmp255
	movq	%rax, -72(%rbp)	# tmp255, paste_flag
.L141:
	.loc 2 840 0
	movq	-120(%rbp), %rax	# pfile, tmp257
	movzbl	8(%rax), %eax	# pfile_41(D)->state.in_directive, D.9353
	testb	%al, %al	# D.9353
	jne	.L142	#,
	.loc 2 840 0 is_stmt 0 discriminator 1
	movq	-96(%rbp), %rax	# src, tmp258
	movzbl	7(%rax), %eax	# src_5->flags, D.9353
	movzbl	%al, %eax	# D.9353, D.9354
	andl	$8, %eax	#, D.9354
	testl	%eax, %eax	# D.9354
	jne	.L142	#,
	.loc 2 841 0 is_stmt 1
	movq	-88(%rbp), %rax	# dest, dest.26
	leaq	8(%rax), %rdx	#, tmp259
	movq	%rdx, -88(%rbp)	# tmp259, dest
	movq	-120(%rbp), %rdx	# pfile, tmp260
	addq	$344, %rdx	#, D.9350
	movq	%rdx, (%rax)	# D.9350, *dest.26_126
.L142:
	.loc 2 844 0
	cmpq	$0, -72(%rbp)	#, paste_flag
	je	.L131	#,
.LBB14:
	.loc 2 846 0
	movq	-120(%rbp), %rax	# pfile, tmp261
	movq	%rax, %rdi	# tmp261,
	call	_cpp_temp_token	#
	movq	%rax, -24(%rbp)	# tmp262, token
	.loc 2 847 0
	movq	-72(%rbp), %rax	# paste_flag, tmp263
	movq	(%rax), %rax	# *paste_flag_19, D.9355
	movzbl	6(%rax), %edx	# _130->type, D.9353
	movq	-24(%rbp), %rax	# token, tmp264
	movb	%dl, 6(%rax)	# D.9353, token_129->type
	.loc 2 848 0
	movq	-72(%rbp), %rax	# paste_flag, tmp265
	movq	(%rax), %rax	# *paste_flag_19, D.9355
	movq	-24(%rbp), %rcx	# token, tmp266
	movq	16(%rax), %rdx	# _132->val.str,
	movq	8(%rax), %rax	# _132->val.str, tmp267
	movq	%rax, 8(%rcx)	# tmp267, token_129->val.str
	movq	%rdx, 16(%rcx)	#, token_129->val.str
	.loc 2 849 0
	movq	-96(%rbp), %rax	# src, tmp268
	movzbl	7(%rax), %eax	# src_5->flags, D.9353
	movzbl	%al, %eax	# D.9353, D.9354
	andl	$8, %eax	#, D.9354
	testl	%eax, %eax	# D.9354
	je	.L143	#,
	.loc 2 850 0
	movq	-72(%rbp), %rax	# paste_flag, tmp269
	movq	(%rax), %rax	# *paste_flag_19, D.9355
	movzbl	7(%rax), %eax	# _136->flags, D.9353
	orl	$8, %eax	#, D.9353
	movl	%eax, %edx	# D.9353, D.9353
	movq	-24(%rbp), %rax	# token, tmp270
	movb	%dl, 7(%rax)	# D.9353, token_129->flags
	jmp	.L144	#
.L143:
	.loc 2 852 0
	movq	-72(%rbp), %rax	# paste_flag, tmp271
	movq	(%rax), %rax	# *paste_flag_19, D.9355
	movzbl	7(%rax), %eax	# _139->flags, D.9353
	andl	$-9, %eax	#, D.9353
	movl	%eax, %edx	# D.9353, D.9353
	movq	-24(%rbp), %rax	# token, tmp272
	movb	%dl, 7(%rax)	# D.9353, token_129->flags
.L144:
	.loc 2 853 0
	movq	-72(%rbp), %rax	# paste_flag, tmp273
	movq	-24(%rbp), %rdx	# token, tmp274
	movq	%rdx, (%rax)	# tmp274, *paste_flag_19
.L131:
.LBE14:
.LBE13:
	.loc 2 780 0
	addq	$24, -96(%rbp)	#, src
.L129:
	.loc 2 780 0 is_stmt 0 discriminator 1
	movq	-96(%rbp), %rax	# src, tmp275
	cmpq	-56(%rbp), %rax	# limit, tmp275
	jb	.L145	#,
	.loc 2 858 0 is_stmt 1
	movl	$0, -108(%rbp)	#, i
	jmp	.L146	#
.L148:
	.loc 2 859 0
	movl	-108(%rbp), %eax	# i, D.9352
	salq	$5, %rax	#, D.9352
	movq	%rax, %rdx	# D.9352, D.9352
	movq	-136(%rbp), %rax	# args, tmp276
	addq	%rdx, %rax	# D.9352, D.9358
	movq	8(%rax), %rax	# _148->expanded, D.9356
	testq	%rax, %rax	# D.9356
	je	.L147	#,
	.loc 2 860 0
	movl	-108(%rbp), %eax	# i, D.9352
	salq	$5, %rax	#, D.9352
	movq	%rax, %rdx	# D.9352, D.9352
	movq	-136(%rbp), %rax	# args, tmp277
	addq	%rdx, %rax	# D.9352, D.9358
	movq	8(%rax), %rax	# _152->expanded, D.9356
	movq	%rax, %rdi	# D.9356,
	call	free	#
.L147:
	.loc 2 858 0
	addl	$1, -108(%rbp)	#, i
.L146:
	.loc 2 858 0 is_stmt 0 discriminator 1
	movq	-64(%rbp), %rax	# macro, tmp278
	movzwl	24(%rax), %eax	# macro_21->paramc, D.9357
	movzwl	%ax, %eax	# D.9357, D.9351
	cmpl	-108(%rbp), %eax	# i, D.9351
	ja	.L148	#,
	.loc 2 862 0 is_stmt 1
	movq	-88(%rbp), %rdx	# dest, dest.27
	movq	-32(%rbp), %rax	# first, first.28
	subq	%rax, %rdx	# first.28, D.9359
	movq	%rdx, %rax	# D.9359, D.9359
	sarq	$3, %rax	#, tmp279
	movl	%eax, %edi	# D.9359, D.9351
	movq	-32(%rbp), %rcx	# first, tmp280
	movq	-40(%rbp), %rdx	# buff, tmp281
	movq	-128(%rbp), %rsi	# node, tmp282
	movq	-120(%rbp), %rax	# pfile, tmp283
	movl	%edi, %r8d	# D.9351,
	movq	%rax, %rdi	# tmp283,
	call	push_ptoken_context	#
	.loc 2 863 0
	addq	$136, %rsp	#,
	popq	%rbx	#
	popq	%rbp	#
	.cfi_def_cfa 7, 8
	ret
	.cfi_endproc
.LFE18:
	.size	replace_args, .-replace_args
	.type	padding_token, @function
padding_token:
.LFB19:
	.loc 2 870 0
	.cfi_startproc
	pushq	%rbp	#
	.cfi_def_cfa_offset 16
	.cfi_offset 6, -16
	movq	%rsp, %rbp	#,
	.cfi_def_cfa_register 6
	subq	$32, %rsp	#,
	movq	%rdi, -24(%rbp)	# pfile, pfile
	movq	%rsi, -32(%rbp)	# source, source
	.loc 2 871 0
	movq	-24(%rbp), %rax	# pfile, tmp61
	movq	%rax, %rdi	# tmp61,
	call	_cpp_temp_token	#
	movq	%rax, -8(%rbp)	# tmp62, result
	.loc 2 873 0
	movq	-8(%rbp), %rax	# result, tmp63
	movb	$66, 6(%rax)	#, result_2->type
	.loc 2 874 0
	movq	-8(%rbp), %rax	# result, tmp64
	movq	-32(%rbp), %rdx	# source, tmp65
	movq	%rdx, 8(%rax)	# tmp65, result_2->val.source
	.loc 2 875 0
	movq	-8(%rbp), %rax	# result, tmp66
	movb	$0, 7(%rax)	#, result_2->flags
	.loc 2 876 0
	movq	-8(%rbp), %rax	# result, D.9360
	.loc 2 877 0
	leave
	.cfi_def_cfa 7, 8
	ret
	.cfi_endproc
.LFE19:
	.size	padding_token, .-padding_token
	.type	next_context, @function
next_context:
.LFB20:
	.loc 2 884 0
	.cfi_startproc
	pushq	%rbp	#
	.cfi_def_cfa_offset 16
	.cfi_offset 6, -16
	movq	%rsp, %rbp	#,
	.cfi_def_cfa_register 6
	subq	$32, %rsp	#,
	movq	%rdi, -24(%rbp)	# pfile, pfile
	.loc 2 885 0
	movq	-24(%rbp), %rax	# pfile, tmp64
	movq	152(%rax), %rax	# pfile_2(D)->context, D.9361
	movq	(%rax), %rax	# _3->next, tmp65
	movq	%rax, -8(%rbp)	# tmp65, result
	.loc 2 887 0
	cmpq	$0, -8(%rbp)	#, result
	jne	.L152	#,
	.loc 2 889 0
	movl	$56, %edi	#,
	call	xmalloc	#
	movq	%rax, -8(%rbp)	# tmp66, result
	.loc 2 890 0
	movq	-24(%rbp), %rax	# pfile, tmp67
	movq	152(%rax), %rdx	# pfile_2(D)->context, D.9361
	movq	-8(%rbp), %rax	# result, tmp68
	movq	%rdx, 8(%rax)	# D.9361, result_5->prev
	.loc 2 891 0
	movq	-8(%rbp), %rax	# result, tmp69
	movq	$0, (%rax)	#, result_5->next
	.loc 2 892 0
	movq	-24(%rbp), %rax	# pfile, tmp70
	movq	152(%rax), %rax	# pfile_2(D)->context, D.9361
	movq	-8(%rbp), %rdx	# result, tmp71
	movq	%rdx, (%rax)	# tmp71, _7->next
.L152:
	.loc 2 895 0
	movq	-24(%rbp), %rax	# pfile, tmp72
	movq	-8(%rbp), %rdx	# result, tmp73
	movq	%rdx, 152(%rax)	# tmp73, pfile_2(D)->context
	.loc 2 896 0
	movq	-8(%rbp), %rax	# result, D.9362
	.loc 2 897 0
	leave
	.cfi_def_cfa 7, 8
	ret
	.cfi_endproc
.LFE20:
	.size	next_context, .-next_context
	.type	push_ptoken_context, @function
push_ptoken_context:
.LFB21:
	.loc 2 907 0
	.cfi_startproc
	pushq	%rbp	#
	.cfi_def_cfa_offset 16
	.cfi_offset 6, -16
	movq	%rsp, %rbp	#,
	.cfi_def_cfa_register 6
	subq	$64, %rsp	#,
	movq	%rdi, -24(%rbp)	# pfile, pfile
	movq	%rsi, -32(%rbp)	# macro, macro
	movq	%rdx, -40(%rbp)	# buff, buff
	movq	%rcx, -48(%rbp)	# first, first
	movl	%r8d, -52(%rbp)	# count, count
	.loc 2 908 0
	movq	-24(%rbp), %rax	# pfile, tmp62
	movq	%rax, %rdi	# tmp62,
	call	next_context	#
	movq	%rax, -8(%rbp)	# tmp63, context
	.loc 2 910 0
	movq	-8(%rbp), %rax	# context, tmp64
	movb	$0, 48(%rax)	#, context_2->direct_p
	.loc 2 911 0
	movq	-8(%rbp), %rax	# context, tmp65
	movq	-32(%rbp), %rdx	# macro, tmp66
	movq	%rdx, 40(%rax)	# tmp66, context_2->macro
	.loc 2 912 0
	movq	-8(%rbp), %rax	# context, tmp67
	movq	-40(%rbp), %rdx	# buff, tmp68
	movq	%rdx, 32(%rax)	# tmp68, context_2->buff
	.loc 2 913 0
	movq	-8(%rbp), %rax	# context, tmp69
	movq	-48(%rbp), %rdx	# first, tmp70
	movq	%rdx, 16(%rax)	# tmp70, context_2->first.ptoken
	.loc 2 914 0
	movl	-52(%rbp), %eax	# count, D.9363
	leaq	0(,%rax,8), %rdx	#, D.9363
	movq	-48(%rbp), %rax	# first, tmp71
	addq	%rax, %rdx	# tmp71, D.9364
	movq	-8(%rbp), %rax	# context, tmp72
	movq	%rdx, 24(%rax)	# D.9364, context_2->last.ptoken
	.loc 2 915 0
	leave
	.cfi_def_cfa 7, 8
	ret
	.cfi_endproc
.LFE21:
	.size	push_ptoken_context, .-push_ptoken_context
	.type	push_token_context, @function
push_token_context:
.LFB22:
	.loc 2 924 0
	.cfi_startproc
	pushq	%rbp	#
	.cfi_def_cfa_offset 16
	.cfi_offset 6, -16
	movq	%rsp, %rbp	#,
	.cfi_def_cfa_register 6
	subq	$48, %rsp	#,
	movq	%rdi, -24(%rbp)	# pfile, pfile
	movq	%rsi, -32(%rbp)	# macro, macro
	movq	%rdx, -40(%rbp)	# first, first
	movl	%ecx, -44(%rbp)	# count, count
	.loc 2 925 0
	movq	-24(%rbp), %rax	# pfile, tmp62
	movq	%rax, %rdi	# tmp62,
	call	next_context	#
	movq	%rax, -8(%rbp)	# tmp63, context
	.loc 2 927 0
	movq	-8(%rbp), %rax	# context, tmp64
	movb	$1, 48(%rax)	#, context_2->direct_p
	.loc 2 928 0
	movq	-8(%rbp), %rax	# context, tmp65
	movq	-32(%rbp), %rdx	# macro, tmp66
	movq	%rdx, 40(%rax)	# tmp66, context_2->macro
	.loc 2 929 0
	movq	-8(%rbp), %rax	# context, tmp67
	movq	$0, 32(%rax)	#, context_2->buff
	.loc 2 930 0
	movq	-8(%rbp), %rax	# context, tmp68
	movq	-40(%rbp), %rdx	# first, tmp69
	movq	%rdx, 16(%rax)	# tmp69, context_2->first.token
	.loc 2 931 0
	movl	-44(%rbp), %edx	# count, D.9365
	movq	%rdx, %rax	# D.9365, tmp70
	addq	%rax, %rax	# tmp70
	addq	%rdx, %rax	# D.9365, tmp70
	salq	$3, %rax	#, tmp71
	movq	%rax, %rdx	# tmp70, D.9365
	movq	-40(%rbp), %rax	# first, tmp72
	addq	%rax, %rdx	# tmp72, D.9366
	movq	-8(%rbp), %rax	# context, tmp73
	movq	%rdx, 24(%rax)	# D.9366, context_2->last.token
	.loc 2 932 0
	leave
	.cfi_def_cfa 7, 8
	ret
	.cfi_endproc
.LFE22:
	.size	push_token_context, .-push_token_context
	.type	expand_arg, @function
expand_arg:
.LFB23:
	.loc 2 944 0
	.cfi_startproc
	pushq	%rbp	#
	.cfi_def_cfa_offset 16
	.cfi_offset 6, -16
	movq	%rsp, %rbp	#,
	.cfi_def_cfa_register 6
	subq	$32, %rsp	#,
	movq	%rdi, -24(%rbp)	# pfile, pfile
	movq	%rsi, -32(%rbp)	# arg, arg
	.loc 2 947 0
	movq	-32(%rbp), %rax	# arg, tmp79
	movl	24(%rax), %eax	# arg_3(D)->count, D.9367
	testl	%eax, %eax	# D.9367
	jne	.L157	#,
	.loc 2 948 0
	jmp	.L156	#
.L157:
	.loc 2 951 0
	movl	$256, -12(%rbp)	#, capacity
	.loc 2 953 0
	movl	-12(%rbp), %eax	# capacity, D.9368
	salq	$3, %rax	#, D.9368
	movq	%rax, %rdi	# D.9368,
	call	xmalloc	#
	movq	%rax, %rdx	# tmp80, D.9369
	.loc 2 952 0
	movq	-32(%rbp), %rax	# arg, tmp81
	movq	%rdx, 8(%rax)	# D.9369, arg_3(D)->expanded
	.loc 2 955 0
	movq	-32(%rbp), %rax	# arg, tmp82
	movl	24(%rax), %eax	# arg_3(D)->count, D.9367
	leal	1(%rax), %ecx	#, D.9367
	movq	-32(%rbp), %rax	# arg, tmp83
	movq	(%rax), %rdx	# arg_3(D)->first, D.9370
	movq	-24(%rbp), %rax	# pfile, tmp84
	movl	%ecx, %r8d	# D.9367,
	movq	%rdx, %rcx	# D.9370,
	movl	$0, %edx	#,
	movl	$0, %esi	#,
	movq	%rax, %rdi	# tmp84,
	call	push_ptoken_context	#
.L162:
.LBB15:
	.loc 2 960 0
	movq	-32(%rbp), %rax	# arg, tmp85
	movl	28(%rax), %eax	# arg_3(D)->expanded_count, D.9367
	addl	$1, %eax	#, D.9367
	cmpl	-12(%rbp), %eax	# capacity, D.9367
	jb	.L159	#,
	.loc 2 962 0
	sall	-12(%rbp)	# capacity
	.loc 2 964 0
	movl	-12(%rbp), %eax	# capacity, D.9368
	leaq	0(,%rax,8), %rdx	#, D.9368
	movq	-32(%rbp), %rax	# arg, tmp86
	movq	8(%rax), %rax	# arg_3(D)->expanded, D.9370
	movq	%rdx, %rsi	# D.9368,
	movq	%rax, %rdi	# D.9370,
	call	xrealloc	#
	.loc 2 963 0
	movq	-32(%rbp), %rdx	# arg, tmp87
	movq	%rax, 8(%rdx)	# D.9369, arg_3(D)->expanded
.L159:
	.loc 2 967 0
	movq	-24(%rbp), %rax	# pfile, tmp88
	movq	%rax, %rdi	# tmp88,
	call	cpp_get_token	#
	movq	%rax, -8(%rbp)	# tmp89, token
	.loc 2 969 0
	movq	-8(%rbp), %rax	# token, tmp90
	movzbl	6(%rax), %eax	# token_20->type, D.9371
	cmpb	$67, %al	#, D.9371
	jne	.L160	#,
	.loc 2 970 0
	nop
.LBE15:
	.loc 2 975 0
	movq	-24(%rbp), %rax	# pfile, tmp95
	movq	%rax, %rdi	# tmp95,
	call	_cpp_pop_context	#
	jmp	.L156	#
.L160:
.LBB16:
	.loc 2 972 0
	movq	-32(%rbp), %rax	# arg, tmp91
	movq	8(%rax), %rsi	# arg_3(D)->expanded, D.9370
	movq	-32(%rbp), %rax	# arg, tmp92
	movl	28(%rax), %eax	# arg_3(D)->expanded_count, D.9367
	leal	1(%rax), %ecx	#, D.9367
	movq	-32(%rbp), %rdx	# arg, tmp93
	movl	%ecx, 28(%rdx)	# D.9367, arg_3(D)->expanded_count
	movl	%eax, %eax	# D.9367, D.9368
	salq	$3, %rax	#, D.9368
	leaq	(%rsi,%rax), %rdx	#, D.9370
	movq	-8(%rbp), %rax	# token, tmp94
	movq	%rax, (%rdx)	# tmp94, *_28
.LBE16:
	.loc 2 973 0
	jmp	.L162	#
.L156:
	.loc 2 976 0
	leave
	.cfi_def_cfa 7, 8
	ret
	.cfi_endproc
.LFE23:
	.size	expand_arg, .-expand_arg
	.globl	_cpp_pop_context
	.type	_cpp_pop_context, @function
_cpp_pop_context:
.LFB24:
	.loc 2 984 0
	.cfi_startproc
	pushq	%rbp	#
	.cfi_def_cfa_offset 16
	.cfi_offset 6, -16
	movq	%rsp, %rbp	#,
	.cfi_def_cfa_register 6
	subq	$32, %rsp	#,
	movq	%rdi, -24(%rbp)	# pfile, pfile
	.loc 2 985 0
	movq	-24(%rbp), %rax	# pfile, tmp67
	movq	152(%rax), %rax	# pfile_1(D)->context, tmp68
	movq	%rax, -8(%rbp)	# tmp68, context
	.loc 2 987 0
	movq	-8(%rbp), %rax	# context, tmp69
	movq	40(%rax), %rax	# context_2->macro, D.9372
	testq	%rax, %rax	# D.9372
	je	.L164	#,
	.loc 2 988 0
	movq	-8(%rbp), %rax	# context, tmp70
	movq	40(%rax), %rax	# context_2->macro, D.9372
	movq	-8(%rbp), %rdx	# context, tmp71
	movq	40(%rdx), %rdx	# context_2->macro, D.9372
	movzbl	21(%rdx), %edx	# _5->flags, D.9373
	andl	$-33, %edx	#, D.9373
	movb	%dl, 21(%rax)	# D.9373, _4->flags
.L164:
	.loc 2 990 0
	movq	-8(%rbp), %rax	# context, tmp72
	movq	32(%rax), %rax	# context_2->buff, D.9374
	testq	%rax, %rax	# D.9374
	je	.L165	#,
	.loc 2 991 0
	movq	-8(%rbp), %rax	# context, tmp73
	movq	32(%rax), %rdx	# context_2->buff, D.9374
	movq	-24(%rbp), %rax	# pfile, tmp74
	movq	%rdx, %rsi	# D.9374,
	movq	%rax, %rdi	# tmp74,
	call	_cpp_release_buff	#
.L165:
	.loc 2 993 0
	movq	-8(%rbp), %rax	# context, tmp75
	movq	8(%rax), %rdx	# context_2->prev, D.9375
	movq	-24(%rbp), %rax	# pfile, tmp76
	movq	%rdx, 152(%rax)	# D.9375, pfile_1(D)->context
	.loc 2 994 0
	leave
	.cfi_def_cfa 7, 8
	ret
	.cfi_endproc
.LFE24:
	.size	_cpp_pop_context, .-_cpp_pop_context
	.globl	cpp_get_token
	.type	cpp_get_token, @function
cpp_get_token:
.LFB25:
	.loc 2 1010 0
	.cfi_startproc
	pushq	%rbp	#
	.cfi_def_cfa_offset 16
	.cfi_offset 6, -16
	movq	%rsp, %rbp	#,
	.cfi_def_cfa_register 6
	subq	$48, %rsp	#,
	movq	%rdi, -40(%rbp)	# pfile, pfile
.L181:
.LBB17:
	.loc 2 1016 0
	movq	-40(%rbp), %rax	# pfile, tmp89
	movq	152(%rax), %rax	# pfile_6(D)->context, tmp90
	movq	%rax, -24(%rbp)	# tmp90, context
	.loc 2 1019 0
	movq	-24(%rbp), %rax	# context, tmp91
	movq	8(%rax), %rax	# context_7->prev, D.9377
	testq	%rax, %rax	# D.9377
	jne	.L167	#,
	.loc 2 1020 0
	movq	-40(%rbp), %rax	# pfile, tmp92
	movq	%rax, %rdi	# tmp92,
	call	_cpp_lex_token	#
	movq	%rax, -32(%rbp)	# tmp93, result
	jmp	.L168	#
.L167:
	.loc 2 1021 0
	movq	-24(%rbp), %rax	# context, tmp94
	movq	16(%rax), %rdx	# context_7->first.token, D.9376
	movq	-24(%rbp), %rax	# context, tmp95
	movq	24(%rax), %rax	# context_7->last.token, D.9376
	cmpq	%rax, %rdx	# D.9376, D.9376
	je	.L169	#,
	.loc 2 1023 0
	movq	-24(%rbp), %rax	# context, tmp96
	movzbl	48(%rax), %eax	# context_7->direct_p, D.9378
	testb	%al, %al	# D.9378
	je	.L170	#,
	.loc 2 1024 0
	movq	-24(%rbp), %rax	# context, tmp97
	movq	16(%rax), %rax	# context_7->first.token, D.9376
	leaq	24(%rax), %rcx	#, D.9376
	movq	-24(%rbp), %rdx	# context, tmp98
	movq	%rcx, 16(%rdx)	# D.9376, context_7->first.token
	movq	%rax, -32(%rbp)	# result.29, result
	jmp	.L171	#
.L170:
	.loc 2 1026 0
	movq	-24(%rbp), %rax	# context, tmp99
	movq	16(%rax), %rax	# context_7->first.ptoken, D.9379
	leaq	8(%rax), %rcx	#, D.9379
	movq	-24(%rbp), %rdx	# context, tmp100
	movq	%rcx, 16(%rdx)	# D.9379, context_7->first.ptoken
	movq	(%rax), %rax	# *_18, tmp101
	movq	%rax, -32(%rbp)	# tmp101, result
.L171:
	.loc 2 1028 0
	movq	-32(%rbp), %rax	# result, tmp102
	movzbl	7(%rax), %eax	# result_1->flags, D.9380
	movzbl	%al, %eax	# D.9380, D.9381
	andl	$8, %eax	#, D.9381
	testl	%eax, %eax	# D.9381
	je	.L168	#,
	.loc 2 1030 0
	movq	-32(%rbp), %rdx	# result, tmp103
	movq	-40(%rbp), %rax	# pfile, tmp104
	movq	%rdx, %rsi	# tmp103,
	movq	%rax, %rdi	# tmp104,
	call	paste_all_tokens	#
	.loc 2 1031 0
	movq	-40(%rbp), %rax	# pfile, tmp105
	movzbl	8(%rax), %eax	# pfile_6(D)->state.in_directive, D.9380
	testb	%al, %al	# D.9380
	je	.L172	#,
	.loc 2 1032 0
	jmp	.L173	#
.L172:
	.loc 2 1033 0
	movq	-32(%rbp), %rdx	# result, tmp106
	movq	-40(%rbp), %rax	# pfile, tmp107
	movq	%rdx, %rsi	# tmp106,
	movq	%rax, %rdi	# tmp107,
	call	padding_token	#
	jmp	.L174	#
.L169:
	.loc 2 1038 0
	movq	-40(%rbp), %rax	# pfile, tmp108
	movq	%rax, %rdi	# tmp108,
	call	_cpp_pop_context	#
	.loc 2 1039 0
	movq	-40(%rbp), %rax	# pfile, tmp109
	movzbl	8(%rax), %eax	# pfile_6(D)->state.in_directive, D.9380
	testb	%al, %al	# D.9380
	je	.L175	#,
	.loc 2 1040 0
	jmp	.L173	#
.L175:
	.loc 2 1041 0
	movq	-40(%rbp), %rax	# pfile, tmp110
	addq	$344, %rax	#, D.9376
	jmp	.L174	#
.L168:
	.loc 2 1044 0
	movq	-32(%rbp), %rax	# result, tmp111
	movzbl	6(%rax), %eax	# result_2->type, D.9380
	cmpb	$56, %al	#, D.9380
	je	.L176	#,
	.loc 2 1045 0
	jmp	.L177	#
.L176:
	.loc 2 1047 0
	movq	-32(%rbp), %rax	# result, tmp112
	movq	8(%rax), %rax	# result_2->val.node, tmp113
	movq	%rax, -16(%rbp)	# tmp113, node
	.loc 2 1049 0
	movq	-16(%rbp), %rax	# node, tmp114
	movzbl	20(%rax), %eax	# node_29->type, D.9380
	cmpb	$1, %al	#, D.9380
	jne	.L177	#,
	.loc 2 1049 0 is_stmt 0 discriminator 1
	movq	-32(%rbp), %rax	# result, tmp115
	movzbl	7(%rax), %eax	# result_2->flags, D.9380
	movzbl	%al, %eax	# D.9380, D.9381
	andl	$32, %eax	#, D.9381
	testl	%eax, %eax	# D.9381
	jne	.L177	#,
	.loc 2 1052 0 is_stmt 1
	movq	-16(%rbp), %rax	# node, tmp116
	movzbl	21(%rax), %eax	# node_29->flags, D.9380
	movzbl	%al, %eax	# D.9380, D.9381
	andl	$32, %eax	#, D.9381
	testl	%eax, %eax	# D.9381
	jne	.L178	#,
	.loc 2 1054 0
	movq	-40(%rbp), %rax	# pfile, tmp117
	movzbl	15(%rax), %eax	# pfile_6(D)->state.prevent_expansion, D.9380
	testb	%al, %al	# D.9380
	jne	.L179	#,
	.loc 2 1055 0
	movq	-16(%rbp), %rdx	# node, tmp118
	movq	-40(%rbp), %rax	# pfile, tmp119
	movq	%rdx, %rsi	# tmp118,
	movq	%rax, %rdi	# tmp119,
	call	enter_macro_context	#
	testl	%eax, %eax	# D.9381
	je	.L179	#,
	.loc 2 1057 0
	movq	-40(%rbp), %rax	# pfile, tmp120
	movzbl	8(%rax), %eax	# pfile_6(D)->state.in_directive, D.9380
	testb	%al, %al	# D.9380
	je	.L180	#,
	.loc 2 1058 0
	jmp	.L173	#
.L180:
	.loc 2 1059 0
	movq	-32(%rbp), %rdx	# result, tmp121
	movq	-40(%rbp), %rax	# pfile, tmp122
	movq	%rdx, %rsi	# tmp121,
	movq	%rax, %rdi	# tmp122,
	call	padding_token	#
	jmp	.L174	#
.L178:
.LBB18:
	.loc 2 1066 0
	movq	-40(%rbp), %rax	# pfile, tmp123
	movq	%rax, %rdi	# tmp123,
	call	_cpp_temp_token	#
	movq	%rax, -8(%rbp)	# tmp124, t
	.loc 2 1067 0
	movq	-32(%rbp), %rax	# result, tmp125
	movzbl	6(%rax), %edx	# result_2->type, D.9380
	movq	-8(%rbp), %rax	# t, tmp126
	movb	%dl, 6(%rax)	# D.9380, t_41->type
	.loc 2 1068 0
	movq	-32(%rbp), %rax	# result, tmp127
	movzbl	7(%rax), %eax	# result_2->flags, D.9380
	orl	$32, %eax	#, D.9380
	movl	%eax, %edx	# D.9380, D.9380
	movq	-8(%rbp), %rax	# t, tmp128
	movb	%dl, 7(%rax)	# D.9380, t_41->flags
	.loc 2 1069 0
	movq	-8(%rbp), %rcx	# t, tmp129
	movq	-32(%rbp), %rax	# result, tmp130
	movq	16(%rax), %rdx	# result_2->val.str,
	movq	8(%rax), %rax	# result_2->val.str, tmp131
	movq	%rax, 8(%rcx)	# tmp131, t_41->val.str
	movq	%rdx, 16(%rcx)	#, t_41->val.str
	.loc 2 1070 0
	movq	-8(%rbp), %rax	# t, tmp132
	movq	%rax, -32(%rbp)	# tmp132, result
.LBE18:
	.loc 2 1073 0
	jmp	.L177	#
.L179:
	jmp	.L177	#
.L173:
.LBE17:
	.loc 2 1074 0
	jmp	.L181	#
.L177:
	.loc 2 1076 0
	movq	-32(%rbp), %rax	# result, D.9376
.L174:
	.loc 2 1077 0
	leave
	.cfi_def_cfa 7, 8
	ret
	.cfi_endproc
.LFE25:
	.size	cpp_get_token, .-cpp_get_token
	.globl	cpp_sys_macro_p
	.type	cpp_sys_macro_p, @function
cpp_sys_macro_p:
.LFB26:
	.loc 2 1085 0
	.cfi_startproc
	pushq	%rbp	#
	.cfi_def_cfa_offset 16
	.cfi_offset 6, -16
	movq	%rsp, %rbp	#,
	.cfi_def_cfa_register 6
	movq	%rdi, -24(%rbp)	# pfile, pfile
	.loc 2 1086 0
	movq	-24(%rbp), %rax	# pfile, tmp67
	movq	152(%rax), %rax	# pfile_2(D)->context, D.9382
	movq	40(%rax), %rax	# _3->macro, tmp68
	movq	%rax, -8(%rbp)	# tmp68, node
	.loc 2 1088 0
	cmpq	$0, -8(%rbp)	#, node
	je	.L183	#,
	.loc 2 1088 0 is_stmt 0 discriminator 1
	movq	-8(%rbp), %rax	# node, tmp69
	movq	24(%rax), %rax	# node_4->value.macro, D.9383
	testq	%rax, %rax	# D.9383
	je	.L183	#,
	movq	-8(%rbp), %rax	# node, tmp70
	movq	24(%rax), %rax	# node_4->value.macro, D.9383
	movzbl	26(%rax), %eax	# *_6, D.9384
	andl	$4, %eax	#, D.9384
	testb	%al, %al	# D.9384
	je	.L183	#,
	.loc 2 1088 0 discriminator 3
	movl	$1, %eax	#, iftmp.30
	jmp	.L184	#
.L183:
	.loc 2 1088 0 discriminator 2
	movl	$0, %eax	#, iftmp.30
.L184:
	.loc 2 1089 0 is_stmt 1 discriminator 4
	popq	%rbp	#
	.cfi_def_cfa 7, 8
	ret
	.cfi_endproc
.LFE26:
	.size	cpp_sys_macro_p, .-cpp_sys_macro_p
	.globl	cpp_scan_nooutput
	.type	cpp_scan_nooutput, @function
cpp_scan_nooutput:
.LFB27:
	.loc 2 1096 0
	.cfi_startproc
	pushq	%rbp	#
	.cfi_def_cfa_offset 16
	.cfi_offset 6, -16
	movq	%rsp, %rbp	#,
	.cfi_def_cfa_register 6
	subq	$16, %rsp	#,
	movq	%rdi, -8(%rbp)	# pfile, pfile
	.loc 2 1097 0
	nop
.L187:
	.loc 2 1097 0 is_stmt 0 discriminator 1
	movq	-8(%rbp), %rax	# pfile, tmp61
	movq	%rax, %rdi	# tmp61,
	call	cpp_get_token	#
	movzbl	6(%rax), %eax	# _2->type, D.9387
	cmpb	$67, %al	#, D.9387
	jne	.L187	#,
	.loc 2 1099 0 is_stmt 1
	leave
	.cfi_def_cfa 7, 8
	ret
	.cfi_endproc
.LFE27:
	.size	cpp_scan_nooutput, .-cpp_scan_nooutput
	.globl	_cpp_backup_tokens
	.type	_cpp_backup_tokens, @function
_cpp_backup_tokens:
.LFB28:
	.loc 2 1107 0
	.cfi_startproc
	pushq	%rbp	#
	.cfi_def_cfa_offset 16
	.cfi_offset 6, -16
	movq	%rsp, %rbp	#,
	.cfi_def_cfa_register 6
	subq	$16, %rsp	#,
	movq	%rdi, -8(%rbp)	# pfile, pfile
	movl	%esi, -12(%rbp)	# count, count
	.loc 2 1108 0
	movq	-8(%rbp), %rax	# pfile, tmp83
	movq	152(%rax), %rax	# pfile_2(D)->context, D.9388
	movq	8(%rax), %rax	# _3->prev, D.9389
	testq	%rax, %rax	# D.9389
	jne	.L189	#,
	.loc 2 1110 0
	movq	-8(%rbp), %rax	# pfile, tmp84
	movl	240(%rax), %edx	# pfile_2(D)->lookaheads, D.9390
	movl	-12(%rbp), %eax	# count, tmp85
	addl	%eax, %edx	# tmp85, D.9390
	movq	-8(%rbp), %rax	# pfile, tmp86
	movl	%edx, 240(%rax)	# D.9390, pfile_2(D)->lookaheads
	.loc 2 1111 0
	jmp	.L190	#
.L191:
	.loc 2 1113 0
	movq	-8(%rbp), %rax	# pfile, tmp87
	movq	192(%rax), %rax	# pfile_2(D)->cur_token, D.9391
	leaq	-24(%rax), %rdx	#, D.9391
	movq	-8(%rbp), %rax	# pfile, tmp88
	movq	%rdx, 192(%rax)	# D.9391, pfile_2(D)->cur_token
	.loc 2 1114 0
	movq	-8(%rbp), %rax	# pfile, tmp89
	movq	192(%rax), %rdx	# pfile_2(D)->cur_token, D.9391
	movq	-8(%rbp), %rax	# pfile, tmp90
	movq	232(%rax), %rax	# pfile_2(D)->cur_run, D.9392
	movq	16(%rax), %rax	# _13->base, D.9391
	cmpq	%rax, %rdx	# D.9391, D.9391
	jne	.L190	#,
	.loc 2 1116 0
	movq	-8(%rbp), %rax	# pfile, tmp91
	movq	232(%rax), %rax	# pfile_2(D)->cur_run, D.9392
	movq	8(%rax), %rax	# _15->prev, D.9392
	testq	%rax, %rax	# D.9392
	je	.L190	#,
	.loc 2 1118 0
	movq	-8(%rbp), %rax	# pfile, tmp92
	movq	232(%rax), %rax	# pfile_2(D)->cur_run, D.9392
	movq	8(%rax), %rdx	# _17->prev, D.9392
	movq	-8(%rbp), %rax	# pfile, tmp93
	movq	%rdx, 232(%rax)	# D.9392, pfile_2(D)->cur_run
	.loc 2 1119 0
	movq	-8(%rbp), %rax	# pfile, tmp94
	movq	232(%rax), %rax	# pfile_2(D)->cur_run, D.9392
	movq	24(%rax), %rdx	# _19->limit, D.9391
	movq	-8(%rbp), %rax	# pfile, tmp95
	movq	%rdx, 192(%rax)	# D.9391, pfile_2(D)->cur_token
.L190:
	.loc 2 1111 0 discriminator 1
	movl	-12(%rbp), %eax	# count, count.31
	leal	-1(%rax), %edx	#, tmp96
	movl	%edx, -12(%rbp)	# tmp96, count
	testl	%eax, %eax	# count.31
	jne	.L191	#,
	jmp	.L188	#
.L189:
	.loc 2 1125 0
	cmpl	$1, -12(%rbp)	#, count
	je	.L193	#,
	.loc 2 1126 0
	call	abort	#
.L193:
	.loc 2 1127 0
	movq	-8(%rbp), %rax	# pfile, tmp97
	movq	152(%rax), %rax	# pfile_2(D)->context, D.9388
	movzbl	48(%rax), %eax	# _21->direct_p, D.9393
	testb	%al, %al	# D.9393
	je	.L194	#,
	.loc 2 1128 0
	movq	-8(%rbp), %rax	# pfile, tmp98
	movq	152(%rax), %rax	# pfile_2(D)->context, D.9388
	movq	16(%rax), %rdx	# _23->first.token, D.9394
	subq	$24, %rdx	#, D.9394
	movq	%rdx, 16(%rax)	# D.9394, _23->first.token
	jmp	.L188	#
.L194:
	.loc 2 1130 0
	movq	-8(%rbp), %rax	# pfile, tmp99
	movq	152(%rax), %rax	# pfile_2(D)->context, D.9388
	movq	16(%rax), %rdx	# _26->first.ptoken, D.9395
	subq	$8, %rdx	#, D.9395
	movq	%rdx, 16(%rax)	# D.9395, _26->first.ptoken
.L188:
	.loc 2 1132 0
	leave
	.cfi_def_cfa 7, 8
	ret
	.cfi_endproc
.LFE28:
	.size	_cpp_backup_tokens, .-_cpp_backup_tokens
	.type	warn_of_redefinition, @function
warn_of_redefinition:
.LFB29:
	.loc 2 1141 0
	.cfi_startproc
	pushq	%rbp	#
	.cfi_def_cfa_offset 16
	.cfi_offset 6, -16
	movq	%rsp, %rbp	#,
	.cfi_def_cfa_register 6
	subq	$32, %rsp	#,
	movq	%rdi, -24(%rbp)	# node, node
	movq	%rsi, -32(%rbp)	# macro2, macro2
	.loc 2 1146 0
	movq	-24(%rbp), %rax	# node, tmp94
	movzbl	21(%rax), %eax	# node_4(D)->flags, D.9397
	movzbl	%al, %eax	# D.9397, D.9396
	andl	$16, %eax	#, D.9396
	testl	%eax, %eax	# D.9396
	je	.L196	#,
	.loc 2 1147 0
	movl	$1, %eax	#, D.9396
	jmp	.L197	#
.L196:
	.loc 2 1151 0
	movq	-24(%rbp), %rax	# node, tmp95
	movq	24(%rax), %rax	# node_4(D)->value.macro, tmp96
	movq	%rax, -8(%rbp)	# tmp96, macro1
	.loc 2 1154 0
	movq	-8(%rbp), %rax	# macro1, tmp97
	movl	20(%rax), %edx	# macro1_9->count, D.9398
	movq	-32(%rbp), %rax	# macro2, tmp98
	movl	20(%rax), %eax	# macro2_11(D)->count, D.9398
	cmpl	%eax, %edx	# D.9398, D.9398
	jne	.L198	#,
	.loc 2 1155 0
	movq	-8(%rbp), %rax	# macro1, tmp99
	movzwl	24(%rax), %edx	# macro1_9->paramc, D.9399
	movq	-32(%rbp), %rax	# macro2, tmp100
	movzwl	24(%rax), %eax	# macro2_11(D)->paramc, D.9399
	cmpw	%ax, %dx	# D.9399, D.9399
	jne	.L198	#,
	.loc 2 1156 0
	movq	-8(%rbp), %rax	# macro1, tmp101
	movzbl	26(%rax), %eax	# *macro1_9, tmp104
	andl	$1, %eax	#, D.9400
	movl	%eax, %edx	# D.9400, D.9400
	movq	-32(%rbp), %rax	# macro2, tmp105
	movzbl	26(%rax), %eax	# *macro2_11(D), tmp108
	andl	$1, %eax	#, D.9400
	cmpb	%al, %dl	# D.9400, D.9400
	jne	.L198	#,
	.loc 2 1157 0
	movq	-8(%rbp), %rax	# macro1, tmp109
	movzbl	26(%rax), %eax	# *macro1_9, tmp112
	shrb	%al	# D.9400
	movl	%eax, %edx	# D.9400, D.9400
	andl	$1, %edx	#, D.9400
	movq	-32(%rbp), %rax	# macro2, tmp113
	movzbl	26(%rax), %eax	# *macro2_11(D), tmp116
	shrb	%al	# D.9400
	andl	$1, %eax	#, D.9400
	cmpb	%al, %dl	# D.9400, D.9400
	je	.L199	#,
.L198:
	.loc 2 1158 0
	movl	$1, %eax	#, D.9396
	jmp	.L197	#
.L199:
	.loc 2 1161 0
	movl	$0, -12(%rbp)	#, i
	jmp	.L200	#
.L202:
	.loc 2 1162 0
	movq	-32(%rbp), %rax	# macro2, tmp117
	movq	8(%rax), %rcx	# macro2_11(D)->expansion, D.9401
	movl	-12(%rbp), %edx	# i, D.9402
	movq	%rdx, %rax	# D.9402, tmp118
	addq	%rax, %rax	# tmp118
	addq	%rdx, %rax	# D.9402, tmp118
	salq	$3, %rax	#, tmp119
	addq	%rax, %rcx	# D.9402, D.9403
	movq	-8(%rbp), %rax	# macro1, tmp120
	movq	8(%rax), %rsi	# macro1_9->expansion, D.9401
	movl	-12(%rbp), %edx	# i, D.9402
	movq	%rdx, %rax	# D.9402, tmp121
	addq	%rax, %rax	# tmp121
	addq	%rdx, %rax	# D.9402, tmp121
	salq	$3, %rax	#, tmp122
	addq	%rsi, %rax	# D.9401, D.9403
	movq	%rcx, %rsi	# D.9403,
	movq	%rax, %rdi	# D.9403,
	call	_cpp_equiv_tokens	#
	testl	%eax, %eax	# D.9396
	jne	.L201	#,
	.loc 2 1163 0
	movl	$1, %eax	#, D.9396
	jmp	.L197	#
.L201:
	.loc 2 1161 0
	addl	$1, -12(%rbp)	#, i
.L200:
	.loc 2 1161 0 is_stmt 0 discriminator 1
	movq	-8(%rbp), %rax	# macro1, tmp123
	movl	20(%rax), %eax	# macro1_9->count, D.9398
	cmpl	-12(%rbp), %eax	# i, D.9398
	ja	.L202	#,
	.loc 2 1166 0 is_stmt 1
	movl	$0, -12(%rbp)	#, i
	jmp	.L203	#
.L205:
	.loc 2 1167 0
	movq	-8(%rbp), %rax	# macro1, tmp124
	movq	(%rax), %rax	# macro1_9->params, D.9404
	movl	-12(%rbp), %edx	# i, D.9402
	salq	$3, %rdx	#, D.9402
	addq	%rdx, %rax	# D.9402, D.9404
	movq	(%rax), %rdx	# *_38, D.9405
	movq	-32(%rbp), %rax	# macro2, tmp125
	movq	(%rax), %rax	# macro2_11(D)->params, D.9404
	movl	-12(%rbp), %ecx	# i, D.9402
	salq	$3, %rcx	#, D.9402
	addq	%rcx, %rax	# D.9402, D.9404
	movq	(%rax), %rax	# *_43, D.9405
	cmpq	%rax, %rdx	# D.9405, D.9405
	je	.L204	#,
	.loc 2 1168 0
	movl	$1, %eax	#, D.9396
	jmp	.L197	#
.L204:
	.loc 2 1166 0
	addl	$1, -12(%rbp)	#, i
.L203:
	.loc 2 1166 0 is_stmt 0 discriminator 1
	movq	-8(%rbp), %rax	# macro1, tmp126
	movzwl	24(%rax), %eax	# macro1_9->paramc, D.9399
	movzwl	%ax, %eax	# D.9399, D.9398
	cmpl	-12(%rbp), %eax	# i, D.9398
	ja	.L205	#,
	.loc 2 1170 0 is_stmt 1
	movl	$0, %eax	#, D.9396
.L197:
	.loc 2 1171 0
	leave
	.cfi_def_cfa 7, 8
	ret
	.cfi_endproc
.LFE29:
	.size	warn_of_redefinition, .-warn_of_redefinition
	.globl	_cpp_free_definition
	.type	_cpp_free_definition, @function
_cpp_free_definition:
.LFB30:
	.loc 2 1177 0
	.cfi_startproc
	pushq	%rbp	#
	.cfi_def_cfa_offset 16
	.cfi_offset 6, -16
	movq	%rsp, %rbp	#,
	.cfi_def_cfa_register 6
	movq	%rdi, -8(%rbp)	# h, h
	.loc 2 1179 0
	movq	-8(%rbp), %rax	# h, tmp61
	movb	$0, 20(%rax)	#, h_1(D)->type
	.loc 2 1181 0
	movq	-8(%rbp), %rax	# h, tmp62
	movzbl	21(%rax), %eax	# h_1(D)->flags, D.9406
	andl	$-37, %eax	#, D.9406
	movl	%eax, %edx	# D.9406, D.9406
	movq	-8(%rbp), %rax	# h, tmp63
	movb	%dl, 21(%rax)	# D.9406, h_1(D)->flags
	.loc 2 1182 0
	popq	%rbp	#
	.cfi_def_cfa 7, 8
	ret
	.cfi_endproc
.LFE30:
	.size	_cpp_free_definition, .-_cpp_free_definition
	.section	.rodata
	.align 8
.LC25:
	.string	"duplicate macro parameter \"%s\""
	.text
	.type	save_parameter, @function
save_parameter:
.LFB31:
	.loc 2 1191 0
	.cfi_startproc
	pushq	%rbp	#
	.cfi_def_cfa_offset 16
	.cfi_offset 6, -16
	movq	%rsp, %rbp	#,
	.cfi_def_cfa_register 6
	subq	$32, %rsp	#,
	movq	%rdi, -8(%rbp)	# pfile, pfile
	movq	%rsi, -16(%rbp)	# macro, macro
	movq	%rdx, -24(%rbp)	# node, node
	.loc 2 1193 0
	movq	-24(%rbp), %rax	# node, tmp85
	movzwl	16(%rax), %eax	# node_2(D)->arg_index, D.9408
	testw	%ax, %ax	# D.9408
	je	.L208	#,
	.loc 2 1195 0
	movq	-24(%rbp), %rax	# node, tmp86
	movq	8(%rax), %rdx	# node_2(D)->ident.str, D.9409
	movq	-8(%rbp), %rax	# pfile, tmp87
	movl	$.LC25, %esi	#,
	movq	%rax, %rdi	# tmp87,
	movl	$0, %eax	#,
	call	cpp_error	#
	.loc 2 1196 0
	movl	$1, %eax	#, D.9407
	jmp	.L209	#
.L208:
	.loc 2 1199 0
	movq	-8(%rbp), %rax	# pfile, tmp88
	movq	72(%rax), %rax	# pfile_5(D)->a_buff, D.9410
	movq	24(%rax), %rax	# _7->limit, D.9411
	movq	%rax, %rdx	# D.9411, D.9412
	movq	-8(%rbp), %rax	# pfile, tmp89
	movq	72(%rax), %rax	# pfile_5(D)->a_buff, D.9410
	movq	16(%rax), %rax	# _10->cur, D.9411
	subq	%rax, %rdx	# D.9412, D.9412
	movq	%rdx, %rax	# D.9412, D.9412
	movq	%rax, %rdx	# D.9412, D.9413
	.loc 2 1200 0
	movq	-16(%rbp), %rax	# macro, tmp90
	movzwl	24(%rax), %eax	# macro_15(D)->paramc, D.9408
	movzwl	%ax, %eax	# D.9408, D.9407
	addl	$1, %eax	#, D.9407
	cltq
	salq	$3, %rax	#, D.9413
	.loc 2 1199 0
	cmpq	%rax, %rdx	# D.9413, D.9413
	jae	.L210	#,
	.loc 2 1201 0
	movq	-8(%rbp), %rax	# pfile, tmp91
	leaq	72(%rax), %rcx	#, D.9414
	movq	-8(%rbp), %rax	# pfile, tmp92
	movl	$8, %edx	#,
	movq	%rcx, %rsi	# D.9414,
	movq	%rax, %rdi	# tmp92,
	call	_cpp_extend_buff	#
.L210:
	.loc 2 1203 0
	movq	-8(%rbp), %rax	# pfile, tmp93
	movq	72(%rax), %rax	# pfile_5(D)->a_buff, D.9410
	movq	16(%rax), %rsi	# _22->cur, D.9411
	movq	-16(%rbp), %rax	# macro, tmp94
	movzwl	24(%rax), %eax	# macro_15(D)->paramc, D.9408
	leal	1(%rax), %ecx	#, D.9408
	movq	-16(%rbp), %rdx	# macro, tmp95
	movw	%cx, 24(%rdx)	# D.9408, macro_15(D)->paramc
	movzwl	%ax, %eax	# D.9408, D.9413
	salq	$3, %rax	#, D.9413
	leaq	(%rsi,%rax), %rdx	#, D.9415
	movq	-24(%rbp), %rax	# node, tmp96
	movq	%rax, (%rdx)	# tmp96, *_29
	.loc 2 1204 0
	movq	-16(%rbp), %rax	# macro, tmp97
	movzwl	24(%rax), %edx	# macro_15(D)->paramc, D.9408
	movq	-24(%rbp), %rax	# node, tmp98
	movw	%dx, 16(%rax)	# D.9408, node_2(D)->arg_index
	.loc 2 1205 0
	movl	$0, %eax	#, D.9407
.L209:
	.loc 2 1206 0
	leave
	.cfi_def_cfa 7, 8
	ret
	.cfi_endproc
.LFE31:
	.size	save_parameter, .-save_parameter
	.section	.rodata
	.align 8
.LC26:
	.string	"\"%s\" may not appear in macro parameter list"
	.align 8
.LC27:
	.string	"macro parameters must be comma-separated"
.LC28:
	.string	"parameter name missing"
	.align 8
.LC29:
	.string	"anonymous variadic macros were introduced in C99"
	.align 8
.LC30:
	.string	"ISO C does not permit named variadic macros"
	.align 8
.LC31:
	.string	"missing ')' in macro parameter list"
	.text
	.type	parse_params, @function
parse_params:
.LFB32:
	.loc 2 1213 0
	.cfi_startproc
	pushq	%rbp	#
	.cfi_def_cfa_offset 16
	.cfi_offset 6, -16
	movq	%rsp, %rbp	#,
	.cfi_def_cfa_register 6
	subq	$32, %rsp	#,
	movq	%rdi, -24(%rbp)	# pfile, pfile
	movq	%rsi, -32(%rbp)	# macro, macro
	.loc 2 1214 0
	movl	$0, -12(%rbp)	#, prev_ident
.L228:
.LBB19:
	.loc 2 1218 0
	movq	-24(%rbp), %rax	# pfile, tmp72
	movq	%rax, %rdi	# tmp72,
	call	_cpp_lex_token	#
	movq	%rax, -8(%rbp)	# tmp73, token
	.loc 2 1220 0
	movq	-8(%rbp), %rax	# token, tmp74
	movzbl	6(%rax), %eax	# token_6->type, D.9418
	movzbl	%al, %eax	# D.9418, D.9417
	subl	$21, %eax	#, tmp75
	cmpl	$46, %eax	#, tmp75
	ja	.L212	#,
	movl	%eax, %eax	# tmp75, tmp76
	movq	.L214(,%rax,8), %rax	#, tmp77
	jmp	*%rax	# tmp77
	.section	.rodata
	.align 8
	.align 4
.L214:
	.quad	.L213
	.quad	.L212
	.quad	.L215
	.quad	.L212
	.quad	.L212
	.quad	.L212
	.quad	.L212
	.quad	.L212
	.quad	.L212
	.quad	.L212
	.quad	.L212
	.quad	.L212
	.quad	.L212
	.quad	.L212
	.quad	.L212
	.quad	.L212
	.quad	.L212
	.quad	.L212
	.quad	.L212
	.quad	.L212
	.quad	.L212
	.quad	.L212
	.quad	.L212
	.quad	.L212
	.quad	.L212
	.quad	.L212
	.quad	.L216
	.quad	.L212
	.quad	.L212
	.quad	.L212
	.quad	.L212
	.quad	.L212
	.quad	.L212
	.quad	.L212
	.quad	.L212
	.quad	.L217
	.quad	.L212
	.quad	.L212
	.quad	.L212
	.quad	.L212
	.quad	.L212
	.quad	.L212
	.quad	.L212
	.quad	.L212
	.quad	.L212
	.quad	.L212
	.quad	.L218
	.text
.L212:
	.loc 2 1223 0
	movq	-8(%rbp), %rdx	# token, tmp78
	movq	-24(%rbp), %rax	# pfile, tmp79
	movq	%rdx, %rsi	# tmp78,
	movq	%rax, %rdi	# tmp79,
	call	cpp_token_as_text	#
	movq	%rax, %rdx	#, D.9419
	movq	-24(%rbp), %rax	# pfile, tmp80
	movl	$.LC26, %esi	#,
	movq	%rax, %rdi	# tmp80,
	movl	$0, %eax	#,
	call	cpp_error	#
	.loc 2 1225 0
	movl	$0, %eax	#, D.9417
	jmp	.L219	#
.L217:
	.loc 2 1228 0
	cmpl	$0, -12(%rbp)	#, prev_ident
	je	.L220	#,
	.loc 2 1230 0
	movq	-24(%rbp), %rax	# pfile, tmp81
	movl	$.LC27, %esi	#,
	movq	%rax, %rdi	# tmp81,
	movl	$0, %eax	#,
	call	cpp_error	#
	.loc 2 1231 0
	movl	$0, %eax	#, D.9417
	jmp	.L219	#
.L220:
	.loc 2 1233 0
	movl	$1, -12(%rbp)	#, prev_ident
	.loc 2 1235 0
	movq	-8(%rbp), %rax	# token, tmp82
	movq	8(%rax), %rdx	# token_6->val.node, D.9420
	movq	-32(%rbp), %rcx	# macro, tmp83
	movq	-24(%rbp), %rax	# pfile, tmp84
	movq	%rcx, %rsi	# tmp83,
	movq	%rax, %rdi	# tmp84,
	call	save_parameter	#
	testl	%eax, %eax	# D.9417
	je	.L221	#,
	.loc 2 1236 0
	movl	$0, %eax	#, D.9417
	jmp	.L219	#
.L221:
	.loc 2 1237 0
	jmp	.L222	#
.L215:
	.loc 2 1240 0
	cmpl	$0, -12(%rbp)	#, prev_ident
	jne	.L223	#,
	.loc 2 1240 0 is_stmt 0 discriminator 1
	movq	-32(%rbp), %rax	# macro, tmp85
	movzwl	24(%rax), %eax	# macro_14(D)->paramc, D.9421
	testw	%ax, %ax	# D.9421
	jne	.L213	#,
.L223:
	.loc 2 1241 0 is_stmt 1
	movl	$1, %eax	#, D.9417
	jmp	.L219	#
.L213:
	.loc 2 1245 0
	cmpl	$0, -12(%rbp)	#, prev_ident
	jne	.L224	#,
	.loc 2 1247 0
	movq	-24(%rbp), %rax	# pfile, tmp86
	movl	$.LC28, %esi	#,
	movq	%rax, %rdi	# tmp86,
	movl	$0, %eax	#,
	call	cpp_error	#
	.loc 2 1248 0
	movl	$0, %eax	#, D.9417
	jmp	.L219	#
.L224:
	.loc 2 1250 0
	movl	$0, -12(%rbp)	#, prev_ident
	.loc 2 1251 0
	jmp	.L222	#
.L216:
	.loc 2 1254 0
	movq	-32(%rbp), %rax	# macro, tmp87
	movzbl	26(%rax), %edx	# macro_14(D)->variadic, tmp90
	orl	$2, %edx	#, tmp91
	movb	%dl, 26(%rax)	# tmp91, macro_14(D)->variadic
	.loc 2 1255 0
	cmpl	$0, -12(%rbp)	#, prev_ident
	jne	.L225	#,
	.loc 2 1257 0
	movq	-24(%rbp), %rax	# pfile, tmp92
	movq	816(%rax), %rdx	# pfile_5(D)->spec_nodes.n__VA_ARGS__, D.9420
	movq	-32(%rbp), %rcx	# macro, tmp93
	movq	-24(%rbp), %rax	# pfile, tmp94
	movq	%rcx, %rsi	# tmp93,
	movq	%rax, %rdi	# tmp94,
	call	save_parameter	#
	.loc 2 1258 0
	movq	-24(%rbp), %rax	# pfile, tmp95
	movb	$1, 13(%rax)	#, pfile_5(D)->state.va_args_ok
	.loc 2 1259 0
	movq	-24(%rbp), %rax	# pfile, tmp96
	movzbl	769(%rax), %eax	# pfile_5(D)->opts.c99, D.9418
	testb	%al, %al	# D.9418
	jne	.L227	#,
	.loc 2 1259 0 is_stmt 0 discriminator 1
	movq	-24(%rbp), %rax	# pfile, tmp97
	movzbl	770(%rax), %eax	# pfile_5(D)->opts.pedantic, D.9418
	testb	%al, %al	# D.9418
	je	.L227	#,
	.loc 2 1260 0 is_stmt 1
	movq	-24(%rbp), %rax	# pfile, tmp98
	movl	$.LC29, %esi	#,
	movq	%rax, %rdi	# tmp98,
	movl	$0, %eax	#,
	call	cpp_pedwarn	#
	jmp	.L227	#
.L225:
	.loc 2 1263 0
	movq	-24(%rbp), %rax	# pfile, tmp99
	movzbl	770(%rax), %eax	# pfile_5(D)->opts.pedantic, D.9418
	testb	%al, %al	# D.9418
	je	.L227	#,
	.loc 2 1264 0
	movq	-24(%rbp), %rax	# pfile, tmp100
	movl	$.LC30, %esi	#,
	movq	%rax, %rdi	# tmp100,
	movl	$0, %eax	#,
	call	cpp_pedwarn	#
.L227:
	.loc 2 1267 0
	movq	-24(%rbp), %rax	# pfile, tmp101
	movq	%rax, %rdi	# tmp101,
	call	_cpp_lex_token	#
	movq	%rax, -8(%rbp)	# tmp102, token
	.loc 2 1268 0
	movq	-8(%rbp), %rax	# token, tmp103
	movzbl	6(%rax), %eax	# token_25->type, D.9418
	cmpb	$23, %al	#, D.9418
	jne	.L218	#,
	.loc 2 1269 0
	movl	$1, %eax	#, D.9417
	jmp	.L219	#
.L218:
	.loc 2 1273 0
	movq	-24(%rbp), %rax	# pfile, tmp104
	movl	$.LC31, %esi	#,
	movq	%rax, %rdi	# tmp104,
	movl	$0, %eax	#,
	call	cpp_error	#
	.loc 2 1274 0
	movl	$0, %eax	#, D.9417
	jmp	.L219	#
.L222:
.LBE19:
	.loc 2 1276 0
	jmp	.L228	#
.L219:
	.loc 2 1277 0
	leave
	.cfi_def_cfa 7, 8
	ret
	.cfi_endproc
.LFE32:
	.size	parse_params, .-parse_params
	.type	alloc_expansion_token, @function
alloc_expansion_token:
.LFB33:
	.loc 2 1284 0
	.cfi_startproc
	pushq	%rbp	#
	.cfi_def_cfa_offset 16
	.cfi_offset 6, -16
	movq	%rsp, %rbp	#,
	.cfi_def_cfa_register 6
	subq	$16, %rsp	#,
	movq	%rdi, -8(%rbp)	# pfile, pfile
	movq	%rsi, -16(%rbp)	# macro, macro
	.loc 2 1285 0
	movq	-8(%rbp), %rax	# pfile, tmp80
	movq	72(%rax), %rax	# pfile_1(D)->a_buff, D.9428
	movq	24(%rax), %rax	# _2->limit, D.9429
	movq	%rax, %rdx	# D.9429, D.9430
	movq	-8(%rbp), %rax	# pfile, tmp81
	movq	72(%rax), %rax	# pfile_1(D)->a_buff, D.9428
	movq	16(%rax), %rax	# _5->cur, D.9429
	subq	%rax, %rdx	# D.9430, D.9430
	movq	%rdx, %rax	# D.9430, D.9430
	movq	%rax, %rcx	# D.9430, D.9431
	movq	-16(%rbp), %rax	# macro, tmp82
	movl	20(%rax), %eax	# macro_10(D)->count, D.9432
	addl	$1, %eax	#, D.9432
	movl	%eax, %edx	# D.9432, D.9431
	movq	%rdx, %rax	# D.9431, tmp83
	addq	%rax, %rax	# tmp83
	addq	%rdx, %rax	# D.9431, tmp83
	salq	$3, %rax	#, tmp84
	cmpq	%rax, %rcx	# D.9431, D.9431
	jae	.L230	#,
	.loc 2 1286 0
	movq	-8(%rbp), %rax	# pfile, tmp85
	leaq	72(%rax), %rcx	#, D.9433
	movq	-8(%rbp), %rax	# pfile, tmp86
	movl	$24, %edx	#,
	movq	%rcx, %rsi	# D.9433,
	movq	%rax, %rdi	# tmp86,
	call	_cpp_extend_buff	#
.L230:
	.loc 2 1288 0
	movq	-8(%rbp), %rax	# pfile, tmp87
	movq	72(%rax), %rax	# pfile_1(D)->a_buff, D.9428
	movq	16(%rax), %rsi	# _16->cur, D.9429
	movq	-16(%rbp), %rax	# macro, tmp88
	movl	20(%rax), %eax	# macro_10(D)->count, D.9432
	leal	1(%rax), %ecx	#, D.9432
	movq	-16(%rbp), %rdx	# macro, tmp89
	movl	%ecx, 20(%rdx)	# D.9432, macro_10(D)->count
	movl	%eax, %edx	# D.9432, D.9431
	movq	%rdx, %rax	# D.9431, tmp90
	addq	%rax, %rax	# tmp90
	addq	%rdx, %rax	# D.9431, tmp90
	salq	$3, %rax	#, tmp91
	addq	%rsi, %rax	# D.9429, D.9434
	.loc 2 1289 0
	leave
	.cfi_def_cfa 7, 8
	ret
	.cfi_endproc
.LFE33:
	.size	alloc_expansion_token, .-alloc_expansion_token
	.type	lex_expansion_token, @function
lex_expansion_token:
.LFB34:
	.loc 2 1297 0
	.cfi_startproc
	pushq	%rbp	#
	.cfi_def_cfa_offset 16
	.cfi_offset 6, -16
	movq	%rsp, %rbp	#,
	.cfi_def_cfa_register 6
	subq	$32, %rsp	#,
	movq	%rdi, -24(%rbp)	# pfile, pfile
	movq	%rsi, -32(%rbp)	# macro, macro
	.loc 2 1300 0
	movq	-32(%rbp), %rdx	# macro, tmp73
	movq	-24(%rbp), %rax	# pfile, tmp74
	movq	%rdx, %rsi	# tmp73,
	movq	%rax, %rdi	# tmp74,
	call	alloc_expansion_token	#
	movq	-24(%rbp), %rdx	# pfile, tmp75
	movq	%rax, 192(%rdx)	# D.9435, pfile_1(D)->cur_token
	.loc 2 1301 0
	movq	-24(%rbp), %rax	# pfile, tmp76
	movq	%rax, %rdi	# tmp76,
	call	_cpp_lex_direct	#
	movq	%rax, -8(%rbp)	# tmp77, token
	.loc 2 1304 0
	movq	-8(%rbp), %rax	# token, tmp78
	movzbl	6(%rax), %eax	# token_4->type, D.9436
	cmpb	$56, %al	#, D.9436
	jne	.L233	#,
	.loc 2 1304 0 is_stmt 0 discriminator 1
	movq	-8(%rbp), %rax	# token, tmp79
	movq	8(%rax), %rax	# token_4->val.node, D.9437
	movzwl	16(%rax), %eax	# _6->arg_index, D.9438
	testw	%ax, %ax	# D.9438
	je	.L233	#,
	.loc 2 1306 0 is_stmt 1
	movq	-8(%rbp), %rax	# token, tmp80
	movb	$65, 6(%rax)	#, token_4->type
	.loc 2 1307 0
	movq	-8(%rbp), %rax	# token, tmp81
	movq	8(%rax), %rax	# token_4->val.node, D.9437
	movzwl	16(%rax), %eax	# _8->arg_index, D.9438
	movzwl	%ax, %edx	# D.9438, D.9439
	movq	-8(%rbp), %rax	# token, tmp82
	movl	%edx, 8(%rax)	# D.9439, token_4->val.arg_no
	jmp	.L234	#
.L233:
	.loc 2 1309 0
	movq	-24(%rbp), %rax	# pfile, tmp83
	movzbl	761(%rax), %eax	# pfile_1(D)->opts.warn_traditional, D.9436
	testb	%al, %al	# D.9436
	je	.L234	#,
	.loc 2 1309 0 is_stmt 0 discriminator 1
	movq	-32(%rbp), %rax	# macro, tmp84
	movzwl	24(%rax), %eax	# macro_2(D)->paramc, D.9438
	testw	%ax, %ax	# D.9438
	je	.L234	#,
	.loc 2 1310 0 is_stmt 1
	movq	-8(%rbp), %rax	# token, tmp85
	movzbl	6(%rax), %eax	# token_4->type, D.9436
	cmpb	$61, %al	#, D.9436
	je	.L235	#,
	.loc 2 1310 0 is_stmt 0 discriminator 1
	movq	-8(%rbp), %rax	# token, tmp86
	movzbl	6(%rax), %eax	# token_4->type, D.9436
	cmpb	$58, %al	#, D.9436
	jne	.L234	#,
.L235:
	.loc 2 1311 0 is_stmt 1
	movq	-8(%rbp), %rax	# token, tmp87
	leaq	8(%rax), %rdx	#, D.9440
	movq	-32(%rbp), %rcx	# macro, tmp88
	movq	-24(%rbp), %rax	# pfile, tmp89
	movq	%rcx, %rsi	# tmp88,
	movq	%rax, %rdi	# tmp89,
	call	check_trad_stringification	#
.L234:
	.loc 2 1313 0
	movq	-8(%rbp), %rax	# token, D.9435
	.loc 2 1314 0
	leave
	.cfi_def_cfa 7, 8
	ret
	.cfi_endproc
.LFE34:
	.size	lex_expansion_token, .-lex_expansion_token
	.section	.rodata
	.align 8
.LC32:
	.string	"ISO C requires whitespace after the macro name"
	.align 8
.LC33:
	.string	"'#' is not followed by a macro parameter"
	.align 8
.LC34:
	.string	"'##' cannot appear at either end of a macro expansion"
.LC35:
	.string	"\"%s\" redefined"
	.align 8
.LC36:
	.string	"this is the location of the previous definition"
.LC37:
	.string	"__STDC_"
	.text
	.globl	_cpp_create_definition
	.type	_cpp_create_definition, @function
_cpp_create_definition:
.LFB35:
	.loc 2 1321 0
	.cfi_startproc
	pushq	%rbp	#
	.cfi_def_cfa_offset 16
	.cfi_offset 6, -16
	movq	%rsp, %rbp	#,
	.cfi_def_cfa_register 6
	subq	$64, %rsp	#,
	movq	%rdi, -56(%rbp)	# pfile, pfile
	movq	%rsi, -64(%rbp)	# node, node
	.loc 2 1325 0
	movl	$1, -36(%rbp)	#, ok
	.loc 2 1327 0
	movq	-56(%rbp), %rax	# pfile, tmp168
	movl	$32, %esi	#,
	movq	%rax, %rdi	# tmp168,
	call	_cpp_aligned_alloc	#
	movq	%rax, -24(%rbp)	# tmp169, macro
	.loc 2 1328 0
	movq	-56(%rbp), %rax	# pfile, tmp170
	movl	68(%rax), %edx	# pfile_8(D)->directive_line, D.9441
	movq	-24(%rbp), %rax	# macro, tmp171
	movl	%edx, 16(%rax)	# D.9441, macro_9->line
	.loc 2 1329 0
	movq	-24(%rbp), %rax	# macro, tmp172
	movq	$0, (%rax)	#, macro_9->params
	.loc 2 1330 0
	movq	-24(%rbp), %rax	# macro, tmp173
	movw	$0, 24(%rax)	#, macro_9->paramc
	.loc 2 1331 0
	movq	-24(%rbp), %rax	# macro, tmp174
	movzbl	26(%rax), %edx	# macro_9->variadic, tmp177
	andl	$-3, %edx	#, tmp178
	movb	%dl, 26(%rax)	# tmp178, macro_9->variadic
	.loc 2 1332 0
	movq	-24(%rbp), %rax	# macro, tmp179
	movl	$0, 20(%rax)	#, macro_9->count
	.loc 2 1333 0
	movq	-24(%rbp), %rax	# macro, tmp180
	movzbl	26(%rax), %edx	# macro_9->fun_like, tmp183
	andl	$-2, %edx	#, tmp184
	movb	%dl, 26(%rax)	# tmp184, macro_9->fun_like
	.loc 2 1337 0
	movq	-56(%rbp), %rax	# pfile, tmp185
	movq	%rax, %rdi	# tmp185,
	call	_cpp_lex_token	#
	movq	%rax, -16(%rbp)	# tmp186, ctoken
	.loc 2 1339 0
	movq	-16(%rbp), %rax	# ctoken, tmp187
	movzbl	6(%rax), %eax	# ctoken_11->type, D.9442
	cmpb	$22, %al	#, D.9442
	jne	.L238	#,
	.loc 2 1339 0 is_stmt 0 discriminator 1
	movq	-16(%rbp), %rax	# ctoken, tmp188
	movzbl	7(%rax), %eax	# ctoken_11->flags, D.9442
	movzbl	%al, %eax	# D.9442, D.9443
	andl	$1, %eax	#, D.9443
	testl	%eax, %eax	# D.9443
	jne	.L238	#,
	.loc 2 1341 0 is_stmt 1
	movq	-24(%rbp), %rdx	# macro, tmp189
	movq	-56(%rbp), %rax	# pfile, tmp190
	movq	%rdx, %rsi	# tmp189,
	movq	%rax, %rdi	# tmp190,
	call	parse_params	#
	movl	%eax, -36(%rbp)	# D.9443, ok
	.loc 2 1342 0
	movq	-56(%rbp), %rax	# pfile, tmp191
	movq	72(%rax), %rax	# pfile_8(D)->a_buff, D.9444
	movq	16(%rax), %rdx	# _18->cur, D.9445
	movq	-24(%rbp), %rax	# macro, tmp192
	movq	%rdx, (%rax)	# D.9445, macro_9->params
	.loc 2 1343 0
	cmpl	$0, -36(%rbp)	#, ok
	jne	.L239	#,
	.loc 2 1344 0
	jmp	.L240	#
.L239:
	.loc 2 1347 0
	movq	-56(%rbp), %rax	# pfile, tmp193
	movq	72(%rax), %rax	# pfile_8(D)->a_buff, D.9444
	movq	-24(%rbp), %rdx	# macro, tmp194
	movq	(%rdx), %rcx	# macro_9->params, D.9446
	movq	-24(%rbp), %rdx	# macro, tmp195
	movzwl	24(%rdx), %edx	# macro_9->paramc, D.9447
	movzwl	%dx, %edx	# D.9447, D.9448
	salq	$3, %rdx	#, D.9448
	addq	%rcx, %rdx	# D.9446, D.9445
	movq	%rdx, 16(%rax)	# D.9445, _20->cur
	.loc 2 1348 0
	movq	-24(%rbp), %rax	# macro, tmp196
	movzbl	26(%rax), %edx	# macro_9->fun_like, tmp199
	orl	$1, %edx	#, tmp200
	movb	%dl, 26(%rax)	# tmp200, macro_9->fun_like
	jmp	.L241	#
.L238:
	.loc 2 1350 0
	movq	-16(%rbp), %rax	# ctoken, tmp201
	movzbl	6(%rax), %eax	# ctoken_11->type, D.9442
	cmpb	$67, %al	#, D.9442
	je	.L241	#,
	.loc 2 1350 0 is_stmt 0 discriminator 1
	movq	-16(%rbp), %rax	# ctoken, tmp202
	movzbl	7(%rax), %eax	# ctoken_11->flags, D.9442
	movzbl	%al, %eax	# D.9442, D.9443
	andl	$1, %eax	#, D.9443
	testl	%eax, %eax	# D.9443
	jne	.L241	#,
	.loc 2 1351 0 is_stmt 1
	movq	-56(%rbp), %rax	# pfile, tmp203
	movl	$.LC32, %esi	#,
	movq	%rax, %rdi	# tmp203,
	movl	$0, %eax	#,
	call	cpp_pedwarn	#
.L241:
	.loc 2 1353 0
	movq	-56(%rbp), %rax	# pfile, tmp204
	movq	192(%rax), %rax	# pfile_8(D)->cur_token, tmp205
	movq	%rax, -8(%rbp)	# tmp205, saved_cur_token
	.loc 2 1355 0
	movq	-24(%rbp), %rax	# macro, tmp206
	movzbl	26(%rax), %eax	# *macro_9, D.9442
	andl	$1, %eax	#, D.9442
	testb	%al, %al	# D.9442
	je	.L242	#,
	.loc 2 1356 0
	movq	-24(%rbp), %rdx	# macro, tmp207
	movq	-56(%rbp), %rax	# pfile, tmp208
	movq	%rdx, %rsi	# tmp207,
	movq	%rax, %rdi	# tmp208,
	call	lex_expansion_token	#
	movq	%rax, -32(%rbp)	# tmp209, token
	jmp	.L243	#
.L242:
	.loc 2 1359 0
	movq	-24(%rbp), %rdx	# macro, tmp210
	movq	-56(%rbp), %rax	# pfile, tmp211
	movq	%rdx, %rsi	# tmp210,
	movq	%rax, %rdi	# tmp211,
	call	alloc_expansion_token	#
	movq	%rax, -32(%rbp)	# tmp212, token
	.loc 2 1360 0
	movq	-32(%rbp), %rax	# token, tmp213
	movq	-16(%rbp), %rdx	# ctoken, tmp214
	movq	(%rdx), %rcx	# *ctoken_11, tmp215
	movq	%rcx, (%rax)	# tmp215, *token_34
	movq	8(%rdx), %rcx	# *ctoken_11, tmp216
	movq	%rcx, 8(%rax)	# tmp216, *token_34
	movq	16(%rdx), %rdx	# *ctoken_11, tmp217
	movq	%rdx, 16(%rax)	# tmp217, *token_34
.L243:
	.loc 2 1367 0
	movq	-24(%rbp), %rax	# macro, tmp218
	movl	20(%rax), %eax	# macro_9->count, D.9441
	cmpl	$1, %eax	#, D.9441
	jbe	.L244	#,
	.loc 2 1367 0 is_stmt 0 discriminator 1
	movq	-32(%rbp), %rax	# token, tmp219
	subq	$24, %rax	#, D.9449
	movzbl	6(%rax), %eax	# _36->type, D.9442
	cmpb	$40, %al	#, D.9442
	jne	.L244	#,
	movq	-24(%rbp), %rax	# macro, tmp220
	movzbl	26(%rax), %eax	# *macro_9, D.9442
	andl	$1, %eax	#, D.9442
	testb	%al, %al	# D.9442
	je	.L244	#,
	.loc 2 1369 0 is_stmt 1
	movq	-32(%rbp), %rax	# token, tmp221
	movzbl	6(%rax), %eax	# token_1->type, D.9442
	cmpb	$65, %al	#, D.9442
	jne	.L245	#,
	.loc 2 1371 0
	movq	-32(%rbp), %rax	# token, tmp222
	movzbl	7(%rax), %eax	# token_1->flags, D.9442
	andl	$-2, %eax	#, D.9442
	movl	%eax, %edx	# D.9442, D.9442
	movq	-32(%rbp), %rax	# token, tmp223
	movb	%dl, 7(%rax)	# D.9442, token_1->flags
	.loc 2 1372 0
	movq	-32(%rbp), %rax	# token, tmp224
	movzbl	7(%rax), %eax	# token_1->flags, D.9442
	orl	$4, %eax	#, D.9442
	movl	%eax, %edx	# D.9442, D.9442
	movq	-32(%rbp), %rax	# token, tmp225
	movb	%dl, 7(%rax)	# D.9442, token_1->flags
	.loc 2 1373 0
	movq	-32(%rbp), %rax	# token, tmp226
	movzbl	7(%rax), %eax	# token_1->flags, D.9442
	movq	-32(%rbp), %rdx	# token, tmp227
	subq	$24, %rdx	#, D.9449
	movzbl	7(%rdx), %edx	# _47->flags, D.9442
	andl	$1, %edx	#, D.9450
	orl	%edx, %eax	# D.9450, D.9450
	movl	%eax, %edx	# D.9450, D.9442
	movq	-32(%rbp), %rax	# token, tmp228
	movb	%dl, 7(%rax)	# D.9442, token_1->flags
	.loc 2 1374 0
	movq	-32(%rbp), %rax	# token, tmp229
	leaq	-24(%rax), %rdx	#, D.9449
	movq	-32(%rbp), %rax	# token, tmp230
	movq	(%rax), %rcx	# *token_1, tmp231
	movq	%rcx, (%rdx)	# tmp231, *_53
	movq	8(%rax), %rcx	# *token_1, tmp232
	movq	%rcx, 8(%rdx)	# tmp232, *_53
	movq	16(%rax), %rax	# *token_1, tmp233
	movq	%rax, 16(%rdx)	# tmp233, *_53
	.loc 2 1375 0
	movq	-24(%rbp), %rax	# macro, tmp234
	movl	20(%rax), %eax	# macro_9->count, D.9441
	leal	-1(%rax), %edx	#, D.9441
	movq	-24(%rbp), %rax	# macro, tmp235
	movl	%edx, 20(%rax)	# D.9441, macro_9->count
	jmp	.L244	#
.L245:
	.loc 2 1378 0
	movq	-56(%rbp), %rax	# pfile, tmp236
	movl	736(%rax), %eax	# pfile_8(D)->opts.lang, D.9451
	cmpl	$9, %eax	#, D.9451
	je	.L244	#,
	.loc 2 1380 0
	movl	$0, -36(%rbp)	#, ok
	.loc 2 1381 0
	movq	-56(%rbp), %rax	# pfile, tmp237
	movl	$.LC33, %esi	#,
	movq	%rax, %rdi	# tmp237,
	movl	$0, %eax	#,
	call	cpp_error	#
	.loc 2 1382 0
	jmp	.L246	#
.L244:
	.loc 2 1386 0
	movq	-32(%rbp), %rax	# token, tmp238
	movzbl	6(%rax), %eax	# token_1->type, D.9442
	cmpb	$67, %al	#, D.9442
	jne	.L247	#,
	.loc 2 1387 0
	nop
	.loc 2 1411 0
	movq	-56(%rbp), %rax	# pfile, tmp254
	movq	72(%rax), %rax	# pfile_8(D)->a_buff, D.9444
	movq	16(%rax), %rdx	# _59->cur, D.9445
	movq	-24(%rbp), %rax	# macro, tmp255
	movq	%rdx, 8(%rax)	# D.9445, macro_9->expansion
	.loc 2 1414 0
	movq	-24(%rbp), %rax	# macro, tmp256
	movl	20(%rax), %eax	# macro_9->count, D.9441
	leal	-1(%rax), %edx	#, D.9441
	movq	-24(%rbp), %rax	# macro, tmp257
	movl	%edx, 20(%rax)	# D.9441, macro_9->count
	.loc 2 1417 0
	movq	-24(%rbp), %rax	# macro, tmp258
	movl	20(%rax), %eax	# macro_9->count, D.9441
	testl	%eax, %eax	# D.9441
	je	.L253	#,
	jmp	.L260	#
.L247:
	.loc 2 1390 0
	movq	-32(%rbp), %rax	# token, tmp239
	movzbl	6(%rax), %eax	# token_1->type, D.9442
	cmpb	$41, %al	#, D.9442
	jne	.L249	#,
	.loc 2 1394 0
	movq	-24(%rbp), %rax	# macro, tmp240
	movl	20(%rax), %eax	# macro_9->count, D.9441
	leal	-1(%rax), %edx	#, D.9441
	movq	-24(%rbp), %rax	# macro, tmp241
	movl	%edx, 20(%rax)	# D.9441, macro_9->count
	movq	-24(%rbp), %rax	# macro, tmp242
	movl	20(%rax), %eax	# macro_9->count, D.9441
	testl	%eax, %eax	# D.9441
	je	.L250	#,
	.loc 2 1395 0
	movq	-24(%rbp), %rdx	# macro, tmp243
	movq	-56(%rbp), %rax	# pfile, tmp244
	movq	%rdx, %rsi	# tmp243,
	movq	%rax, %rdi	# tmp244,
	call	lex_expansion_token	#
	movq	%rax, -32(%rbp)	# tmp245, token
.L250:
	.loc 2 1397 0
	movq	-24(%rbp), %rax	# macro, tmp246
	movl	20(%rax), %eax	# macro_9->count, D.9441
	testl	%eax, %eax	# D.9441
	je	.L251	#,
	.loc 2 1397 0 is_stmt 0 discriminator 1
	movq	-32(%rbp), %rax	# token, tmp247
	movzbl	6(%rax), %eax	# token_2->type, D.9442
	cmpb	$67, %al	#, D.9442
	jne	.L252	#,
.L251:
	.loc 2 1399 0 is_stmt 1
	movl	$0, -36(%rbp)	#, ok
	.loc 2 1400 0
	movq	-56(%rbp), %rax	# pfile, tmp248
	movl	$.LC34, %esi	#,
	movq	%rax, %rdi	# tmp248,
	movl	$0, %eax	#,
	call	cpp_error	#
	.loc 2 1402 0
	jmp	.L246	#
.L252:
	.loc 2 1405 0
	movq	-32(%rbp), %rax	# token, tmp249
	leaq	-24(%rax), %rdx	#, D.9449
	movq	-32(%rbp), %rax	# token, tmp250
	subq	$24, %rax	#, D.9449
	movzbl	7(%rax), %eax	# _111->flags, D.9442
	orl	$8, %eax	#, D.9442
	movb	%al, 7(%rdx)	# D.9442, _110->flags
.L249:
	.loc 2 1408 0
	movq	-24(%rbp), %rdx	# macro, tmp251
	movq	-56(%rbp), %rax	# pfile, tmp252
	movq	%rdx, %rsi	# tmp251,
	movq	%rax, %rdi	# tmp252,
	call	lex_expansion_token	#
	movq	%rax, -32(%rbp)	# tmp253, token
	.loc 2 1409 0
	jmp	.L243	#
.L260:
	.loc 2 1418 0
	movq	-24(%rbp), %rax	# macro, tmp259
	movq	8(%rax), %rax	# macro_9->expansion, D.9449
	movq	-24(%rbp), %rdx	# macro, tmp260
	movq	8(%rdx), %rdx	# macro_9->expansion, D.9449
	movzbl	7(%rdx), %edx	# _65->flags, D.9442
	andl	$-2, %edx	#, D.9442
	movb	%dl, 7(%rax)	# D.9442, _64->flags
.L253:
	.loc 2 1421 0
	movq	-56(%rbp), %rax	# pfile, tmp261
	movq	72(%rax), %rcx	# pfile_8(D)->a_buff, D.9444
	movq	-24(%rbp), %rax	# macro, tmp262
	movq	8(%rax), %rsi	# macro_9->expansion, D.9449
	movq	-24(%rbp), %rax	# macro, tmp263
	movl	20(%rax), %eax	# macro_9->count, D.9441
	movl	%eax, %edx	# D.9441, D.9448
	movq	%rdx, %rax	# D.9448, tmp264
	addq	%rax, %rax	# tmp264
	addq	%rdx, %rax	# D.9448, tmp264
	salq	$3, %rax	#, tmp265
	addq	%rsi, %rax	# D.9449, D.9445
	movq	%rax, 16(%rcx)	# D.9445, _68->cur
	.loc 2 1424 0
	movq	-24(%rbp), %rax	# macro, tmp266
	movl	20(%rax), %eax	# macro_9->count, D.9441
	cmpl	$1, %eax	#, D.9441
	jne	.L254	#,
	.loc 2 1424 0 is_stmt 0 discriminator 1
	movq	-24(%rbp), %rax	# macro, tmp267
	movzbl	26(%rax), %eax	# *macro_9, D.9442
	andl	$1, %eax	#, D.9442
	testb	%al, %al	# D.9442
	jne	.L254	#,
	.loc 2 1425 0 is_stmt 1
	movq	-24(%rbp), %rax	# macro, tmp268
	movq	8(%rax), %rax	# macro_9->expansion, D.9449
	movzbl	6(%rax), %eax	# _77->type, D.9442
	cmpb	$56, %al	#, D.9442
	jne	.L254	#,
	.loc 2 1426 0
	movq	-24(%rbp), %rax	# macro, tmp269
	movq	8(%rax), %rax	# macro_9->expansion, D.9449
	movq	8(%rax), %rax	# _79->val.node, D.9452
	cmpq	-64(%rbp), %rax	# node, D.9452
	jne	.L254	#,
	.loc 2 1427 0
	movq	-64(%rbp), %rax	# node, tmp270
	movzbl	21(%rax), %eax	# node_81(D)->flags, D.9442
	orl	$32, %eax	#, D.9442
	movl	%eax, %edx	# D.9442, D.9442
	movq	-64(%rbp), %rax	# node, tmp271
	movb	%dl, 21(%rax)	# D.9442, node_81(D)->flags
.L254:
	.loc 2 1430 0
	movq	-56(%rbp), %rax	# pfile, tmp272
	movq	56(%rax), %rax	# pfile_8(D)->map, D.9453
	movzbl	21(%rax), %eax	# _84->sysp, D.9442
	testb	%al, %al	# D.9442
	setne	%dl	#, D.9454
	movq	-24(%rbp), %rax	# macro, tmp273
	andl	$1, %edx	#, tmp275
	leal	0(,%rdx,4), %ecx	#, tmp276
	movzbl	26(%rax), %edx	# macro_9->syshdr, tmp277
	andl	$-5, %edx	#, tmp278
	orl	%ecx, %edx	# tmp276, tmp279
	movb	%dl, 26(%rax)	# tmp279, macro_9->syshdr
	.loc 2 1432 0
	movq	-64(%rbp), %rax	# node, tmp280
	movzbl	20(%rax), %eax	# node_81(D)->type, D.9442
	testb	%al, %al	# D.9442
	je	.L255	#,
	.loc 2 1434 0
	movq	-24(%rbp), %rdx	# macro, tmp281
	movq	-64(%rbp), %rax	# node, tmp282
	movq	%rdx, %rsi	# tmp281,
	movq	%rax, %rdi	# tmp282,
	call	warn_of_redefinition	#
	testl	%eax, %eax	# D.9443
	je	.L256	#,
	.loc 2 1436 0
	movq	-64(%rbp), %rax	# node, tmp283
	movq	8(%rax), %rdx	# node_81(D)->ident.str, D.9455
	movq	-56(%rbp), %rax	# pfile, tmp284
	movl	68(%rax), %eax	# pfile_8(D)->directive_line, D.9441
	movl	%eax, %esi	# D.9441, D.9443
	movq	-56(%rbp), %rax	# pfile, tmp285
	movq	%rdx, %r8	# D.9455,
	movl	$.LC35, %ecx	#,
	movl	$0, %edx	#,
	movq	%rax, %rdi	# tmp285,
	movl	$0, %eax	#,
	call	cpp_pedwarn_with_line	#
	.loc 2 1439 0
	movq	-64(%rbp), %rax	# node, tmp286
	movzbl	20(%rax), %eax	# node_81(D)->type, D.9442
	cmpb	$1, %al	#, D.9442
	jne	.L256	#,
	.loc 2 1439 0 is_stmt 0 discriminator 1
	movq	-64(%rbp), %rax	# node, tmp287
	movzbl	21(%rax), %eax	# node_81(D)->flags, D.9442
	movzbl	%al, %eax	# D.9442, D.9443
	andl	$4, %eax	#, D.9443
	testl	%eax, %eax	# D.9443
	jne	.L256	#,
	.loc 2 1440 0 is_stmt 1
	movq	-64(%rbp), %rax	# node, tmp288
	movq	24(%rax), %rax	# node_81(D)->value.macro, D.9456
	movl	16(%rax), %eax	# _96->line, D.9441
	movl	%eax, %esi	# D.9441, D.9443
	movq	-56(%rbp), %rax	# pfile, tmp289
	movl	$.LC36, %ecx	#,
	movl	$0, %edx	#,
	movq	%rax, %rdi	# tmp289,
	movl	$0, %eax	#,
	call	cpp_pedwarn_with_line	#
.L256:
	.loc 2 1443 0
	movq	-64(%rbp), %rax	# node, tmp290
	movq	%rax, %rdi	# tmp290,
	call	_cpp_free_definition	#
.L255:
	.loc 2 1447 0
	movq	-64(%rbp), %rax	# node, tmp291
	movb	$1, 20(%rax)	#, node_81(D)->type
	.loc 2 1448 0
	movq	-64(%rbp), %rax	# node, tmp292
	movq	-24(%rbp), %rdx	# macro, tmp293
	movq	%rdx, 24(%rax)	# tmp293, node_81(D)->value.macro
	.loc 2 1449 0
	movq	-64(%rbp), %rax	# node, tmp294
	movq	8(%rax), %rax	# node_81(D)->ident.str, D.9455
	movl	$7, %edx	#,
	movl	$.LC37, %esi	#,
	movq	%rax, %rdi	# D.9455,
	call	ustrncmp	#
	testl	%eax, %eax	# D.9443
	jne	.L246	#,
	.loc 2 1450 0
	movq	-64(%rbp), %rax	# node, tmp295
	movzbl	21(%rax), %eax	# node_81(D)->flags, D.9442
	orl	$16, %eax	#, D.9442
	movl	%eax, %edx	# D.9442, D.9442
	movq	-64(%rbp), %rax	# node, tmp296
	movb	%dl, 21(%rax)	# D.9442, node_81(D)->flags
.L246:
	.loc 2 1455 0
	movq	-8(%rbp), %rax	# saved_cur_token, tmp297
	leaq	-24(%rax), %rdx	#, D.9449
	movq	-56(%rbp), %rax	# pfile, tmp298
	movq	192(%rax), %rax	# pfile_8(D)->cur_token, D.9449
	subq	$24, %rax	#, D.9449
	movzbl	6(%rax), %eax	# _118->type, D.9442
	movb	%al, 6(%rdx)	# D.9442, _116->type
	.loc 2 1456 0
	movq	-56(%rbp), %rax	# pfile, tmp299
	movq	-8(%rbp), %rdx	# saved_cur_token, tmp300
	movq	%rdx, 192(%rax)	# tmp300, pfile_8(D)->cur_token
.L240:
	.loc 2 1461 0
	movq	-56(%rbp), %rax	# pfile, tmp301
	movb	$0, 13(%rax)	#, pfile_8(D)->state.va_args_ok
	.loc 2 1464 0
	movq	-24(%rbp), %rax	# macro, tmp302
	movzwl	24(%rax), %eax	# macro_9->paramc, D.9447
	movzwl	%ax, %eax	# D.9447, tmp303
	movl	%eax, -40(%rbp)	# tmp303, i
	jmp	.L257	#
.L258:
	.loc 2 1465 0
	movq	-24(%rbp), %rax	# macro, tmp304
	movq	(%rax), %rax	# macro_9->params, D.9446
	movl	-40(%rbp), %edx	# i, D.9448
	salq	$3, %rdx	#, D.9448
	addq	%rdx, %rax	# D.9448, D.9446
	movq	(%rax), %rax	# *_127, D.9452
	movw	$0, 16(%rax)	#, _128->arg_index
.L257:
	.loc 2 1464 0 discriminator 1
	movl	-40(%rbp), %eax	# i, i.32
	leal	-1(%rax), %edx	#, tmp305
	movl	%edx, -40(%rbp)	# tmp305, i
	testl	%eax, %eax	# i.32
	jne	.L258	#,
	.loc 2 1467 0
	movl	-36(%rbp), %eax	# ok, D.9443
	.loc 2 1468 0
	leave
	.cfi_def_cfa 7, 8
	ret
	.cfi_endproc
.LFE35:
	.size	_cpp_create_definition, .-_cpp_create_definition
	.section	.rodata
	.align 8
.LC38:
	.string	"macro argument \"%s\" would be stringified with -traditional"
	.text
	.type	check_trad_stringification, @function
check_trad_stringification:
.LFB36:
	.loc 2 1477 0
	.cfi_startproc
	pushq	%rbp	#
	.cfi_def_cfa_offset 16
	.cfi_offset 6, -16
	movq	%rsp, %rbp	#,
	.cfi_def_cfa_register 6
	subq	$80, %rsp	#,
	movq	%rdi, -56(%rbp)	# pfile, pfile
	movq	%rsi, -64(%rbp)	# macro, macro
	movq	%rdx, -72(%rbp)	# string, string
	.loc 2 1479 0
	movq	-72(%rbp), %rax	# string, tmp90
	movq	8(%rax), %rdx	# string_5(D)->text, D.9463
	movq	-72(%rbp), %rax	# string, tmp91
	movl	(%rax), %eax	# string_5(D)->len, D.9464
	movl	%eax, %eax	# D.9464, D.9465
	addq	%rdx, %rax	# D.9463, tmp92
	movq	%rax, -16(%rbp)	# tmp92, limit
	.loc 2 1482 0
	movq	-72(%rbp), %rax	# string, tmp93
	movq	8(%rax), %rax	# string_5(D)->text, tmp94
	movq	%rax, -32(%rbp)	# tmp94, p
	jmp	.L262	#
.L273:
	.loc 2 1485 0
	jmp	.L263	#
.L265:
	.loc 2 1486 0
	addq	$1, -32(%rbp)	#, p
.L263:
	.loc 2 1485 0 discriminator 1
	movq	-32(%rbp), %rax	# p, tmp95
	cmpq	-16(%rbp), %rax	# limit, tmp95
	jae	.L264	#,
	.loc 2 1485 0 is_stmt 0 discriminator 2
	movq	-32(%rbp), %rax	# p, tmp96
	movzbl	(%rax), %eax	# *p_2, D.9466
	movzbl	%al, %eax	# D.9466, D.9467
	cltq
	movzwl	_sch_istable(%rax,%rax), %eax	# _sch_istable, D.9468
	movzwl	%ax, %eax	# D.9468, D.9467
	andl	$512, %eax	#, D.9467
	testl	%eax, %eax	# D.9467
	jne	.L264	#,
	.loc 2 1485 0 discriminator 1
	movq	-32(%rbp), %rax	# p, tmp98
	movzbl	(%rax), %eax	# *p_2, D.9466
	cmpb	$36, %al	#, D.9466
	jne	.L265	#,
	movq	-56(%rbp), %rax	# pfile, tmp99
	movzbl	767(%rax), %eax	# pfile_17(D)->opts.dollars_in_ident, D.9466
	testb	%al, %al	# D.9466
	je	.L265	#,
.L264:
	.loc 2 1489 0 is_stmt 1
	movq	-32(%rbp), %rax	# p, tmp100
	movq	%rax, -24(%rbp)	# tmp100, q
	.loc 2 1490 0
	jmp	.L266	#
.L268:
	.loc 2 1491 0
	addq	$1, -24(%rbp)	#, q
.L266:
	.loc 2 1490 0 discriminator 1
	movq	-24(%rbp), %rax	# q, tmp101
	cmpq	-16(%rbp), %rax	# limit, tmp101
	jae	.L267	#,
	.loc 2 1490 0 is_stmt 0 discriminator 2
	movq	-24(%rbp), %rax	# q, tmp102
	movzbl	(%rax), %eax	# *q_4, D.9466
	movzbl	%al, %eax	# D.9466, D.9467
	cltq
	movzwl	_sch_istable(%rax,%rax), %eax	# _sch_istable, D.9468
	movzwl	%ax, %eax	# D.9468, D.9467
	andl	$516, %eax	#, D.9467
	testl	%eax, %eax	# D.9467
	jne	.L268	#,
	.loc 2 1490 0 discriminator 1
	movq	-24(%rbp), %rax	# q, tmp104
	movzbl	(%rax), %eax	# *q_4, D.9466
	cmpb	$36, %al	#, D.9466
	jne	.L267	#,
	movq	-56(%rbp), %rax	# pfile, tmp105
	movzbl	767(%rax), %eax	# pfile_17(D)->opts.dollars_in_ident, D.9466
	testb	%al, %al	# D.9466
	jne	.L268	#,
.L267:
	.loc 2 1493 0 is_stmt 1
	movq	-24(%rbp), %rdx	# q, q.33
	movq	-32(%rbp), %rax	# p, p.34
	subq	%rax, %rdx	# p.34, D.9469
	movq	%rdx, %rax	# D.9469, D.9469
	movl	%eax, -36(%rbp)	# D.9469, len
	.loc 2 1497 0
	movl	$0, -40(%rbp)	#, i
	jmp	.L269	#
.L272:
.LBB20:
	.loc 2 1499 0
	movq	-64(%rbp), %rax	# macro, tmp106
	movq	(%rax), %rax	# macro_34(D)->params, D.9470
	movl	-40(%rbp), %edx	# i, D.9471
	salq	$3, %rdx	#, D.9471
	addq	%rdx, %rax	# D.9471, D.9470
	movq	(%rax), %rax	# *_40, tmp107
	movq	%rax, -8(%rbp)	# tmp107, node
	.loc 2 1501 0
	movq	-8(%rbp), %rax	# node, tmp108
	movl	(%rax), %eax	# node_41->ident.len, D.9464
	cmpl	-36(%rbp), %eax	# len, D.9464
	jne	.L270	#,
	.loc 2 1502 0
	movl	-36(%rbp), %edx	# len, D.9471
	movq	-8(%rbp), %rax	# node, tmp109
	movq	8(%rax), %rcx	# node_41->ident.str, D.9463
	movq	-32(%rbp), %rax	# p, tmp110
	movq	%rcx, %rsi	# D.9463,
	movq	%rax, %rdi	# tmp110,
	call	memcmp	#
	testl	%eax, %eax	# D.9467
	jne	.L270	#,
	.loc 2 1504 0
	movq	-8(%rbp), %rax	# node, tmp111
	movq	8(%rax), %rdx	# node_41->ident.str, D.9463
	movq	-56(%rbp), %rax	# pfile, tmp112
	movl	$.LC38, %esi	#,
	movq	%rax, %rdi	# tmp112,
	movl	$0, %eax	#,
	call	cpp_warning	#
	.loc 2 1507 0
	jmp	.L271	#
.L270:
.LBE20:
	.loc 2 1497 0
	addl	$1, -40(%rbp)	#, i
.L269:
	.loc 2 1497 0 is_stmt 0 discriminator 1
	movq	-64(%rbp), %rax	# macro, tmp113
	movzwl	24(%rax), %eax	# macro_34(D)->paramc, D.9468
	movzwl	%ax, %eax	# D.9468, D.9464
	cmpl	-40(%rbp), %eax	# i, D.9464
	ja	.L272	#,
.L271:
	.loc 2 1482 0 is_stmt 1
	movq	-24(%rbp), %rax	# q, tmp114
	movq	%rax, -32(%rbp)	# tmp114, p
.L262:
	.loc 2 1482 0 is_stmt 0 discriminator 1
	movq	-32(%rbp), %rax	# p, tmp115
	cmpq	-16(%rbp), %rax	# limit, tmp115
	jb	.L273	#,
	.loc 2 1511 0 is_stmt 1
	leave
	.cfi_def_cfa 7, 8
	ret
	.cfi_endproc
.LFE36:
	.size	check_trad_stringification, .-check_trad_stringification
	.section	.rodata
	.align 8
.LC39:
	.string	"invalid hash type %d in cpp_macro_definition"
	.text
	.globl	cpp_macro_definition
	.type	cpp_macro_definition, @function
cpp_macro_definition:
.LFB37:
	.loc 2 1522 0
	.cfi_startproc
	pushq	%rbp	#
	.cfi_def_cfa_offset 16
	.cfi_offset 6, -16
	movq	%rsp, %rbp	#,
	.cfi_def_cfa_register 6
	subq	$64, %rsp	#,
	movq	%rdi, -56(%rbp)	# pfile, pfile
	movq	%rsi, -64(%rbp)	# node, node
	.loc 2 1524 0
	movq	-64(%rbp), %rax	# node, tmp171
	movq	24(%rax), %rax	# node_22(D)->value.macro, tmp172
	movq	%rax, -32(%rbp)	# tmp172, macro
	.loc 2 1527 0
	movq	-64(%rbp), %rax	# node, tmp173
	movzbl	20(%rax), %eax	# node_22(D)->type, D.9474
	cmpb	$1, %al	#, D.9474
	jne	.L275	#,
	.loc 2 1527 0 is_stmt 0 discriminator 1
	movq	-64(%rbp), %rax	# node, tmp174
	movzbl	21(%rax), %eax	# node_22(D)->flags, D.9474
	movzbl	%al, %eax	# D.9474, D.9475
	andl	$4, %eax	#, D.9475
	testl	%eax, %eax	# D.9475
	je	.L276	#,
.L275:
	.loc 2 1529 0 is_stmt 1
	movq	-64(%rbp), %rax	# node, tmp175
	movzbl	20(%rax), %eax	# node_22(D)->type, D.9474
	movzbl	%al, %edx	# D.9474, D.9475
	movq	-56(%rbp), %rax	# pfile, tmp176
	movl	$.LC39, %esi	#,
	movq	%rax, %rdi	# tmp176,
	movl	$0, %eax	#,
	call	cpp_ice	#
	.loc 2 1530 0
	movl	$0, %eax	#, D.9473
	jmp	.L277	#
.L276:
	.loc 2 1534 0
	movq	-64(%rbp), %rax	# node, tmp177
	movl	(%rax), %eax	# node_22(D)->ident.len, D.9476
	addl	$2, %eax	#, tmp178
	movl	%eax, -44(%rbp)	# tmp178, len
	.loc 2 1535 0
	movq	-32(%rbp), %rax	# macro, tmp179
	movzbl	26(%rax), %eax	# *macro_23, D.9474
	andl	$1, %eax	#, D.9474
	testb	%al, %al	# D.9474
	je	.L278	#,
	.loc 2 1537 0
	addl	$4, -44(%rbp)	#, len
	.loc 2 1539 0
	movl	$0, -48(%rbp)	#, i
	jmp	.L279	#
.L280:
	.loc 2 1540 0 discriminator 2
	movq	-32(%rbp), %rax	# macro, tmp180
	movq	(%rax), %rax	# macro_23->params, D.9478
	movl	-48(%rbp), %edx	# i, D.9479
	salq	$3, %rdx	#, D.9479
	addq	%rdx, %rax	# D.9479, D.9478
	movq	(%rax), %rax	# *_39, D.9480
	movl	(%rax), %edx	# _40->ident.len, D.9476
	movl	-44(%rbp), %eax	# len, tmp181
	addl	%edx, %eax	# D.9476, D.9476
	addl	$1, %eax	#, tmp182
	movl	%eax, -44(%rbp)	# tmp182, len
	.loc 2 1539 0 discriminator 2
	addl	$1, -48(%rbp)	#, i
.L279:
	.loc 2 1539 0 is_stmt 0 discriminator 1
	movq	-32(%rbp), %rax	# macro, tmp183
	movzwl	24(%rax), %eax	# macro_23->paramc, D.9477
	movzwl	%ax, %eax	# D.9477, D.9476
	cmpl	-48(%rbp), %eax	# i, D.9476
	ja	.L280	#,
.L278:
	.loc 2 1543 0 is_stmt 1
	movl	$0, -48(%rbp)	#, i
	jmp	.L281	#
.L286:
.LBB21:
	.loc 2 1545 0
	movq	-32(%rbp), %rax	# macro, tmp184
	movq	8(%rax), %rcx	# macro_23->expansion, D.9481
	movl	-48(%rbp), %edx	# i, D.9479
	movq	%rdx, %rax	# D.9479, tmp185
	addq	%rax, %rax	# tmp185
	addq	%rdx, %rax	# D.9479, tmp185
	salq	$3, %rax	#, tmp186
	addq	%rcx, %rax	# D.9481, tmp187
	movq	%rax, -24(%rbp)	# tmp187, token
	.loc 2 1547 0
	movq	-24(%rbp), %rax	# token, tmp188
	movzbl	6(%rax), %eax	# token_50->type, D.9474
	cmpb	$65, %al	#, D.9474
	jne	.L282	#,
	.loc 2 1548 0
	movq	-32(%rbp), %rax	# macro, tmp189
	movq	(%rax), %rdx	# macro_23->params, D.9478
	movq	-24(%rbp), %rax	# token, tmp190
	movl	8(%rax), %eax	# token_50->val.arg_no, D.9476
	subl	$1, %eax	#, D.9476
	movl	%eax, %eax	# D.9476, D.9479
	salq	$3, %rax	#, D.9479
	addq	%rdx, %rax	# D.9478, D.9478
	movq	(%rax), %rax	# *_57, D.9480
	movl	(%rax), %eax	# _58->ident.len, D.9476
	addl	%eax, -44(%rbp)	# D.9476, len
	jmp	.L283	#
.L282:
	.loc 2 1550 0
	movq	-24(%rbp), %rax	# token, tmp191
	movq	%rax, %rdi	# tmp191,
	call	cpp_token_len	#
	addl	%eax, -44(%rbp)	# D.9476, len
.L283:
	.loc 2 1551 0
	movq	-24(%rbp), %rax	# token, tmp192
	movzbl	7(%rax), %eax	# token_50->flags, D.9474
	movzbl	%al, %eax	# D.9474, D.9475
	andl	$4, %eax	#, D.9475
	testl	%eax, %eax	# D.9475
	je	.L284	#,
	.loc 2 1552 0
	addl	$1, -44(%rbp)	#, len
.L284:
	.loc 2 1553 0
	movq	-24(%rbp), %rax	# token, tmp193
	movzbl	7(%rax), %eax	# token_50->flags, D.9474
	movzbl	%al, %eax	# D.9474, D.9475
	andl	$8, %eax	#, D.9475
	testl	%eax, %eax	# D.9475
	je	.L285	#,
	.loc 2 1554 0
	addl	$3, -44(%rbp)	#, len
.L285:
.LBE21:
	.loc 2 1543 0
	addl	$1, -48(%rbp)	#, i
.L281:
	.loc 2 1543 0 is_stmt 0 discriminator 1
	movq	-32(%rbp), %rax	# macro, tmp194
	movl	20(%rax), %eax	# macro_23->count, D.9476
	cmpl	-48(%rbp), %eax	# i, D.9476
	ja	.L286	#,
	.loc 2 1557 0 is_stmt 1
	movq	-56(%rbp), %rax	# pfile, tmp195
	movl	272(%rax), %eax	# pfile_72(D)->macro_buffer_len, D.9476
	cmpl	-44(%rbp), %eax	# len, D.9476
	jae	.L287	#,
	.loc 2 1559 0
	movl	-44(%rbp), %edx	# len, D.9479
	movq	-56(%rbp), %rax	# pfile, tmp196
	movq	264(%rax), %rax	# pfile_72(D)->macro_buffer, D.9482
	movq	%rdx, %rsi	# D.9479,
	movq	%rax, %rdi	# D.9482,
	call	xrealloc	#
	movq	-56(%rbp), %rdx	# pfile, tmp197
	movq	%rax, 264(%rdx)	# D.9483, pfile_72(D)->macro_buffer
	.loc 2 1560 0
	movq	-56(%rbp), %rax	# pfile, tmp198
	movl	-44(%rbp), %edx	# len, tmp199
	movl	%edx, 272(%rax)	# tmp199, pfile_72(D)->macro_buffer_len
.L287:
	.loc 2 1564 0
	movq	-56(%rbp), %rax	# pfile, tmp200
	movq	264(%rax), %rax	# pfile_72(D)->macro_buffer, tmp201
	movq	%rax, -40(%rbp)	# tmp201, buffer
	.loc 2 1565 0
	movq	-64(%rbp), %rax	# node, tmp202
	movl	(%rax), %eax	# node_22(D)->ident.len, D.9476
	movl	%eax, %edx	# D.9476, D.9479
	movq	-64(%rbp), %rax	# node, tmp203
	movq	8(%rax), %rcx	# node_22(D)->ident.str, D.9473
	movq	-40(%rbp), %rax	# buffer, tmp204
	movq	%rcx, %rsi	# D.9473,
	movq	%rax, %rdi	# tmp204,
	call	memcpy	#
	.loc 2 1566 0
	movq	-64(%rbp), %rax	# node, tmp205
	movl	(%rax), %eax	# node_22(D)->ident.len, D.9476
	movl	%eax, %eax	# D.9476, D.9484
	addq	%rax, -40(%rbp)	# D.9484, buffer
	.loc 2 1569 0
	movq	-32(%rbp), %rax	# macro, tmp206
	movzbl	26(%rax), %eax	# *macro_23, D.9474
	andl	$1, %eax	#, D.9474
	testb	%al, %al	# D.9474
	je	.L288	#,
	.loc 2 1571 0
	movq	-40(%rbp), %rax	# buffer, buffer.35
	leaq	1(%rax), %rdx	#, tmp207
	movq	%rdx, -40(%rbp)	# tmp207, buffer
	movb	$40, (%rax)	#, *buffer.35_86
	.loc 2 1572 0
	movl	$0, -48(%rbp)	#, i
	jmp	.L289	#
.L293:
.LBB22:
	.loc 2 1574 0
	movq	-32(%rbp), %rax	# macro, tmp208
	movq	(%rax), %rax	# macro_23->params, D.9478
	movl	-48(%rbp), %edx	# i, D.9479
	salq	$3, %rdx	#, D.9479
	addq	%rdx, %rax	# D.9479, D.9478
	movq	(%rax), %rax	# *_94, tmp209
	movq	%rax, -16(%rbp)	# tmp209, param
	.loc 2 1576 0
	movq	-56(%rbp), %rax	# pfile, tmp210
	movq	816(%rax), %rax	# pfile_72(D)->spec_nodes.n__VA_ARGS__, D.9480
	cmpq	-16(%rbp), %rax	# param, D.9480
	je	.L290	#,
	.loc 2 1578 0
	movq	-16(%rbp), %rax	# param, tmp211
	movl	(%rax), %eax	# param_95->ident.len, D.9476
	movl	%eax, %edx	# D.9476, D.9479
	movq	-16(%rbp), %rax	# param, tmp212
	movq	8(%rax), %rcx	# param_95->ident.str, D.9473
	movq	-40(%rbp), %rax	# buffer, tmp213
	movq	%rcx, %rsi	# D.9473,
	movq	%rax, %rdi	# tmp213,
	call	memcpy	#
	.loc 2 1579 0
	movq	-16(%rbp), %rax	# param, tmp214
	movl	(%rax), %eax	# param_95->ident.len, D.9476
	movl	%eax, %eax	# D.9476, D.9484
	addq	%rax, -40(%rbp)	# D.9484, buffer
.L290:
	.loc 2 1582 0
	movl	-48(%rbp), %eax	# i, tmp215
	leal	1(%rax), %edx	#, D.9476
	movq	-32(%rbp), %rax	# macro, tmp216
	movzwl	24(%rax), %eax	# macro_23->paramc, D.9477
	movzwl	%ax, %eax	# D.9477, D.9476
	cmpl	%eax, %edx	# D.9476, D.9476
	jae	.L291	#,
	.loc 2 1586 0
	movq	-40(%rbp), %rax	# buffer, buffer.36
	leaq	1(%rax), %rdx	#, tmp217
	movq	%rdx, -40(%rbp)	# tmp217, buffer
	movb	$44, (%rax)	#, *buffer.36_106
	jmp	.L292	#
.L291:
	.loc 2 1587 0
	movq	-32(%rbp), %rax	# macro, tmp218
	movzbl	26(%rax), %eax	# *macro_23, D.9474
	andl	$2, %eax	#, D.9474
	testb	%al, %al	# D.9474
	je	.L292	#,
	.loc 2 1588 0
	movq	-40(%rbp), %rax	# buffer, buffer.37
	leaq	1(%rax), %rdx	#, tmp219
	movq	%rdx, -40(%rbp)	# tmp219, buffer
	movb	$46, (%rax)	#, *buffer.37_110
	movq	-40(%rbp), %rax	# buffer, buffer.38
	leaq	1(%rax), %rdx	#, tmp220
	movq	%rdx, -40(%rbp)	# tmp220, buffer
	movb	$46, (%rax)	#, *buffer.38_112
	movq	-40(%rbp), %rax	# buffer, buffer.39
	leaq	1(%rax), %rdx	#, tmp221
	movq	%rdx, -40(%rbp)	# tmp221, buffer
	movb	$46, (%rax)	#, *buffer.39_114
.L292:
.LBE22:
	.loc 2 1572 0
	addl	$1, -48(%rbp)	#, i
.L289:
	.loc 2 1572 0 is_stmt 0 discriminator 1
	movq	-32(%rbp), %rax	# macro, tmp222
	movzwl	24(%rax), %eax	# macro_23->paramc, D.9477
	movzwl	%ax, %eax	# D.9477, D.9476
	cmpl	-48(%rbp), %eax	# i, D.9476
	ja	.L293	#,
	.loc 2 1590 0 is_stmt 1
	movq	-40(%rbp), %rax	# buffer, buffer.40
	leaq	1(%rax), %rdx	#, tmp223
	movq	%rdx, -40(%rbp)	# tmp223, buffer
	movb	$41, (%rax)	#, *buffer.40_117
.L288:
	.loc 2 1595 0
	movq	-40(%rbp), %rax	# buffer, buffer.41
	leaq	1(%rax), %rdx	#, tmp224
	movq	%rdx, -40(%rbp)	# tmp224, buffer
	movb	$32, (%rax)	#, *buffer.41_119
	.loc 2 1598 0
	movq	-32(%rbp), %rax	# macro, tmp225
	movl	20(%rax), %eax	# macro_23->count, D.9476
	testl	%eax, %eax	# D.9476
	je	.L294	#,
	.loc 2 1600 0
	movl	$0, -48(%rbp)	#, i
	jmp	.L295	#
.L301:
.LBB23:
	.loc 2 1602 0
	movq	-32(%rbp), %rax	# macro, tmp226
	movq	8(%rax), %rcx	# macro_23->expansion, D.9481
	movl	-48(%rbp), %edx	# i, D.9479
	movq	%rdx, %rax	# D.9479, tmp227
	addq	%rax, %rax	# tmp227
	addq	%rdx, %rax	# D.9479, tmp227
	salq	$3, %rax	#, tmp228
	addq	%rcx, %rax	# D.9481, tmp229
	movq	%rax, -8(%rbp)	# tmp229, token
	.loc 2 1604 0
	movq	-8(%rbp), %rax	# token, tmp230
	movzbl	7(%rax), %eax	# token_127->flags, D.9474
	movzbl	%al, %eax	# D.9474, D.9475
	andl	$1, %eax	#, D.9475
	testl	%eax, %eax	# D.9475
	je	.L296	#,
	.loc 2 1605 0
	movq	-40(%rbp), %rax	# buffer, buffer.42
	leaq	1(%rax), %rdx	#, tmp231
	movq	%rdx, -40(%rbp)	# tmp231, buffer
	movb	$32, (%rax)	#, *buffer.42_131
.L296:
	.loc 2 1606 0
	movq	-8(%rbp), %rax	# token, tmp232
	movzbl	7(%rax), %eax	# token_127->flags, D.9474
	movzbl	%al, %eax	# D.9474, D.9475
	andl	$4, %eax	#, D.9475
	testl	%eax, %eax	# D.9475
	je	.L297	#,
	.loc 2 1607 0
	movq	-40(%rbp), %rax	# buffer, buffer.43
	leaq	1(%rax), %rdx	#, tmp233
	movq	%rdx, -40(%rbp)	# tmp233, buffer
	movb	$35, (%rax)	#, *buffer.43_136
.L297:
	.loc 2 1609 0
	movq	-8(%rbp), %rax	# token, tmp234
	movzbl	6(%rax), %eax	# token_127->type, D.9474
	cmpb	$65, %al	#, D.9474
	jne	.L298	#,
	.loc 2 1611 0
	movq	-32(%rbp), %rax	# macro, tmp235
	movq	(%rax), %rdx	# macro_23->params, D.9478
	movq	-8(%rbp), %rax	# token, tmp236
	movl	8(%rax), %eax	# token_127->val.arg_no, D.9476
	subl	$1, %eax	#, D.9476
	movl	%eax, %eax	# D.9476, D.9479
	salq	$3, %rax	#, D.9479
	addq	%rdx, %rax	# D.9478, D.9478
	movq	(%rax), %rax	# *_144, D.9480
	movl	(%rax), %eax	# _145->ident.len, tmp237
	movl	%eax, -44(%rbp)	# tmp237, len
	.loc 2 1612 0
	movl	-44(%rbp), %edx	# len, D.9479
	.loc 2 1613 0
	movq	-32(%rbp), %rax	# macro, tmp238
	movq	(%rax), %rcx	# macro_23->params, D.9478
	movq	-8(%rbp), %rax	# token, tmp239
	movl	8(%rax), %eax	# token_127->val.arg_no, D.9476
	subl	$1, %eax	#, D.9476
	movl	%eax, %eax	# D.9476, D.9479
	salq	$3, %rax	#, D.9479
	addq	%rcx, %rax	# D.9478, D.9478
	movq	(%rax), %rax	# *_153, D.9480
	movq	8(%rax), %rcx	# _154->ident.str, D.9473
	.loc 2 1612 0
	movq	-40(%rbp), %rax	# buffer, tmp240
	movq	%rcx, %rsi	# D.9473,
	movq	%rax, %rdi	# tmp240,
	call	memcpy	#
	.loc 2 1614 0
	movl	-44(%rbp), %eax	# len, D.9484
	addq	%rax, -40(%rbp)	# D.9484, buffer
	jmp	.L299	#
.L298:
	.loc 2 1617 0
	movq	-40(%rbp), %rdx	# buffer, tmp241
	movq	-8(%rbp), %rcx	# token, tmp242
	movq	-56(%rbp), %rax	# pfile, tmp243
	movq	%rcx, %rsi	# tmp242,
	movq	%rax, %rdi	# tmp243,
	call	cpp_spell_token	#
	movq	%rax, -40(%rbp)	# tmp244, buffer
.L299:
	.loc 2 1619 0
	movq	-8(%rbp), %rax	# token, tmp245
	movzbl	7(%rax), %eax	# token_127->flags, D.9474
	movzbl	%al, %eax	# D.9474, D.9475
	andl	$8, %eax	#, D.9475
	testl	%eax, %eax	# D.9475
	je	.L300	#,
	.loc 2 1621 0
	movq	-40(%rbp), %rax	# buffer, buffer.44
	leaq	1(%rax), %rdx	#, tmp246
	movq	%rdx, -40(%rbp)	# tmp246, buffer
	movb	$32, (%rax)	#, *buffer.44_162
	.loc 2 1622 0
	movq	-40(%rbp), %rax	# buffer, buffer.45
	leaq	1(%rax), %rdx	#, tmp247
	movq	%rdx, -40(%rbp)	# tmp247, buffer
	movb	$35, (%rax)	#, *buffer.45_164
	.loc 2 1623 0
	movq	-40(%rbp), %rax	# buffer, buffer.46
	leaq	1(%rax), %rdx	#, tmp248
	movq	%rdx, -40(%rbp)	# tmp248, buffer
	movb	$35, (%rax)	#, *buffer.46_166
.L300:
.LBE23:
	.loc 2 1600 0
	addl	$1, -48(%rbp)	#, i
.L295:
	.loc 2 1600 0 is_stmt 0 discriminator 1
	movq	-32(%rbp), %rax	# macro, tmp249
	movl	20(%rax), %eax	# macro_23->count, D.9476
	cmpl	-48(%rbp), %eax	# i, D.9476
	ja	.L301	#,
.L294:
	.loc 2 1629 0 is_stmt 1
	movq	-40(%rbp), %rax	# buffer, tmp250
	movb	$0, (%rax)	#, *buffer_20
	.loc 2 1630 0
	movq	-56(%rbp), %rax	# pfile, tmp251
	movq	264(%rax), %rax	# pfile_72(D)->macro_buffer, D.9473
.L277:
	.loc 2 1631 0
	leave
	.cfi_def_cfa 7, 8
	ret
	.cfi_endproc
.LFE37:
	.size	cpp_macro_definition, .-cpp_macro_definition
.Letext0:
	.file 3 "/usr/lib/gcc/x86_64-linux-gnu/4.8/include/stddef.h"
	.file 4 "/usr/include/x86_64-linux-gnu/bits/types.h"
	.file 5 "/usr/include/x86_64-linux-gnu/sys/types.h"
	.file 6 "/usr/include/time.h"
	.file 7 "obstack.h"
	.file 8 "hashtable.h"
	.file 9 "line-map.h"
	.file 10 "cpplib.h"
	.file 11 "./safe-ctype.h"
	.section	.note.GNU-stack,"",@progbits
