	.file	"dwarf2out.c"
# GNU C (Ubuntu/Linaro 4.8.1-10ubuntu9) version 4.8.1 (x86_64-linux-gnu)
#	compiled by GNU C version 4.8.1, GMP version 5.1.2, MPFR version 3.1.1-p2, MPC version 1.0.1
# GGC heuristics: --param ggc-min-expand=100 --param ggc-min-heapsize=131072
# options passed:  -I . -imultiarch x86_64-linux-gnu -D SPEC_CPU -D NDEBUG
# -D SPEC_CPU_LP64 dwarf2out.c -mtune=generic -march=x86-64 -g
# -fverbose-asm -fno-strict-aliasing -fstack-protector -Wformat
# -Wformat-security
# options enabled:  -faggressive-loop-optimizations
# -fasynchronous-unwind-tables -fauto-inc-dec -fbranch-count-reg -fcommon
# -fdelete-null-pointer-checks -fdwarf2-cfi-asm -fearly-inlining
# -feliminate-unused-debug-types -ffunction-cse -fgcse-lm -fgnu-runtime
# -fident -finline-atomics -fira-hoist-pressure -fira-share-save-slots
# -fira-share-spill-slots -fivopts -fkeep-static-consts
# -fleading-underscore -fmath-errno -fmerge-debug-strings
# -fmove-loop-invariants -fpeephole -fprefetch-loop-arrays
# -freg-struct-return -fsched-critical-path-heuristic
# -fsched-dep-count-heuristic -fsched-group-heuristic -fsched-interblock
# -fsched-last-insn-heuristic -fsched-rank-heuristic -fsched-spec
# -fsched-spec-insn-heuristic -fsched-stalled-insns-dep -fshow-column
# -fsigned-zeros -fsplit-ivs-in-unroller -fstack-protector
# -fstrict-volatile-bitfields -fsync-libcalls -ftrapping-math
# -ftree-coalesce-vars -ftree-cselim -ftree-forwprop -ftree-loop-if-convert
# -ftree-loop-im -ftree-loop-ivcanon -ftree-loop-optimize
# -ftree-parallelize-loops= -ftree-phiprop -ftree-pta -ftree-reassoc
# -ftree-scev-cprop -ftree-slp-vectorize -ftree-vect-loop-version
# -funit-at-a-time -funwind-tables -fverbose-asm -fzero-initialized-in-bss
# -m128bit-long-double -m64 -m80387 -maccumulate-outgoing-args
# -malign-stringops -mfancy-math-387 -mfp-ret-in-387 -mfxsr -mglibc
# -mieee-fp -mlong-double-80 -mmmx -mno-sse4 -mpush-args -mred-zone -msse
# -msse2 -mtls-direct-seg-refs

	.text
.Ltext0:
	.globl	dwarf2out_do_frame
	.type	dwarf2out_do_frame, @function
dwarf2out_do_frame:
.LFB2:
	.file 1 "dwarf2out.c"
	.loc 1 92 0
	.cfi_startproc
	pushq	%rbp	#
	.cfi_def_cfa_offset 16
	.cfi_offset 6, -16
	movq	%rsp, %rbp	#,
	.cfi_def_cfa_register 6
	.loc 1 93 0
	movl	write_symbols(%rip), %eax	# write_symbols, write_symbols.1
	.loc 1 100 0
	cmpl	$4, %eax	#, write_symbols.1
	je	.L2	#,
	.loc 1 94 0
	movl	write_symbols(%rip), %eax	# write_symbols, write_symbols.2
	cmpl	$7, %eax	#, write_symbols.2
	je	.L2	#,
	.loc 1 99 0
	movl	flag_unwind_tables(%rip), %eax	# flag_unwind_tables, flag_unwind_tables.3
	testl	%eax, %eax	# flag_unwind_tables.3
	jne	.L2	#,
	.loc 1 100 0
	movl	flag_exceptions(%rip), %eax	# flag_exceptions, flag_exceptions.4
	testl	%eax, %eax	# flag_exceptions.4
	je	.L3	#,
.L2:
	.loc 1 100 0 is_stmt 0 discriminator 1
	movl	$1, %eax	#, iftmp.0
	jmp	.L4	#
.L3:
	.loc 1 100 0 discriminator 2
	movl	$0, %eax	#, iftmp.0
.L4:
	.loc 1 103 0 is_stmt 1
	popq	%rbp	#
	.cfi_def_cfa 7, 8
	ret
	.cfi_endproc
.LFE2:
	.size	dwarf2out_do_frame, .-dwarf2out_do_frame
	.globl	current_funcdef_number
	.bss
	.align 4
	.type	current_funcdef_number, @object
	.size	current_funcdef_number, 4
current_funcdef_number:
	.zero	4
	.section	.rodata
.LC0:
	.string	".eh_frame"
	.text
	.globl	default_eh_frame_section
	.type	default_eh_frame_section, @function
default_eh_frame_section:
.LFB3:
	.loc 1 123 0
	.cfi_startproc
	pushq	%rbp	#
	.cfi_def_cfa_offset 16
	.cfi_offset 6, -16
	movq	%rsp, %rbp	#,
	.cfi_def_cfa_register 6
	.loc 1 125 0
	movl	$512, %esi	#,
	movl	$.LC0, %edi	#,
	call	named_section_flags	#
	.loc 1 134 0
	popq	%rbp	#
	.cfi_def_cfa 7, 8
	ret
	.cfi_endproc
.LFE3:
	.size	default_eh_frame_section, .-default_eh_frame_section
	.local	fde_table
	.comm	fde_table,8,8
	.local	fde_table_allocated
	.comm	fde_table_allocated,4,4
	.local	fde_table_in_use
	.comm	fde_table_in_use,4,4
	.local	cie_cfi_head
	.comm	cie_cfi_head,8,8
	.local	current_funcdef_fde
	.comm	current_funcdef_fde,4,4
	.comm	debug_str_hash,8,8
	.globl	expand_builtin_dwarf_fp_regnum
	.type	expand_builtin_dwarf_fp_regnum, @function
expand_builtin_dwarf_fp_regnum:
.LFB4:
	.loc 1 386 0
	.cfi_startproc
	pushq	%rbp	#
	.cfi_def_cfa_offset 16
	.cfi_offset 6, -16
	movq	%rsp, %rbp	#,
	.cfi_def_cfa_register 6
	.loc 1 387 0
	movl	target_flags(%rip), %eax	# target_flags, target_flags.6
	andl	$33554432, %eax	#, D.23209
	testl	%eax, %eax	# D.23209
	je	.L8	#,
	.loc 1 387 0 is_stmt 0 discriminator 1
	movl	dbx64_register_map+24(%rip), %eax	# dbx64_register_map, D.23209
	cltq
	jmp	.L9	#
.L8:
	.loc 1 387 0 discriminator 2
	movl	svr4_dbx_register_map+24(%rip), %eax	# svr4_dbx_register_map, D.23209
	cltq
.L9:
	.loc 1 387 0 discriminator 3
	movq	%rax, %rsi	# iftmp.5,
	movl	$0, %edi	#,
	call	gen_rtx_CONST_INT	#
	.loc 1 388 0 is_stmt 1 discriminator 3
	popq	%rbp	#
	.cfi_def_cfa 7, 8
	ret
	.cfi_endproc
.LFE4:
	.size	expand_builtin_dwarf_fp_regnum, .-expand_builtin_dwarf_fp_regnum
	.globl	expand_builtin_init_dwarf_reg_sizes
	.type	expand_builtin_init_dwarf_reg_sizes, @function
expand_builtin_init_dwarf_reg_sizes:
.LFB6:
	.loc 1 414 0
	.cfi_startproc
	pushq	%rbp	#
	.cfi_def_cfa_offset 16
	.cfi_offset 6, -16
	movq	%rsp, %rbp	#,
	.cfi_def_cfa_register 6
	pushq	%rbx	#
	subq	$72, %rsp	#,
	.cfi_offset 3, -24
	movq	%rdi, -72(%rbp)	# address, address
	.loc 1 416 0
	movq	integer_types(%rip), %rax	# integer_types, D.23211
	movzbl	61(%rax), %eax	# *_4, tmp80
	shrb	%al	# D.23212
	movzbl	%al, %eax	# D.23212, tmp81
	movl	%eax, -52(%rbp)	# tmp81, mode
	.loc 1 417 0
	movq	-72(%rbp), %rax	# address, tmp82
	movl	$0, %ecx	#,
	movl	$0, %edx	#,
	movl	$0, %esi	#,
	movq	%rax, %rdi	# tmp82,
	call	expand_expr	#
	movq	%rax, -48(%rbp)	# tmp83, addr
	.loc 1 418 0
	movq	-48(%rbp), %rax	# addr, tmp84
	movq	%rax, %rsi	# tmp84,
	movl	$51, %edi	#,
	call	gen_rtx_MEM	#
	movq	%rax, -40(%rbp)	# tmp85, mem
	.loc 1 420 0
	movl	$0, -56(%rbp)	#, i
	jmp	.L12	#
.L19:
	.loc 1 421 0
	movl	target_flags(%rip), %eax	# target_flags, target_flags.8
	andl	$33554432, %eax	#, D.23213
	testl	%eax, %eax	# D.23213
	je	.L13	#,
	.loc 1 421 0 is_stmt 0 discriminator 1
	movl	-56(%rbp), %eax	# i, tmp87
	cltq
	movl	dbx64_register_map(,%rax,4), %eax	# dbx64_register_map, D.23213
	cmpl	$16, %eax	#, D.23213
	setle	%al	#, iftmp.7
	jmp	.L14	#
.L13:
	.loc 1 421 0 discriminator 2
	movl	-56(%rbp), %eax	# i, tmp89
	cltq
	movl	svr4_dbx_register_map(,%rax,4), %eax	# svr4_dbx_register_map, D.23213
	cmpl	$16, %eax	#, D.23213
	setle	%al	#, iftmp.7
.L14:
	.loc 1 421 0 discriminator 3
	testb	%al, %al	# iftmp.7
	je	.L15	#,
.LBB2:
	.loc 1 423 0 is_stmt 1
	movl	target_flags(%rip), %eax	# target_flags, target_flags.10
	andl	$33554432, %eax	#, D.23213
	testl	%eax, %eax	# D.23213
	je	.L16	#,
	.loc 1 423 0 is_stmt 0 discriminator 1
	movl	-56(%rbp), %eax	# i, tmp91
	cltq
	movl	dbx64_register_map(,%rax,4), %eax	# dbx64_register_map, iftmp.9
	jmp	.L17	#
.L16:
	.loc 1 423 0 discriminator 2
	movl	-56(%rbp), %eax	# i, tmp93
	cltq
	movl	svr4_dbx_register_map(,%rax,4), %eax	# svr4_dbx_register_map, iftmp.9
.L17:
	.loc 1 423 0 discriminator 3
	movl	-52(%rbp), %edx	# mode, mode.11
	movslq	%edx, %rdx	# mode.11, tmp94
	movzbl	mode_size(%rdx), %edx	# mode_size, D.23214
	movzbl	%dl, %edx	# D.23214, D.23213
	imull	%edx, %eax	# D.23213, D.23213
	cltq
	movq	%rax, -32(%rbp)	# tmp95, offset
	.loc 1 424 0 is_stmt 1 discriminator 3
	movl	-56(%rbp), %eax	# i, tmp97
	cltq
	movl	reg_raw_mode(,%rax,4), %eax	# reg_raw_mode, D.23215
	cltq
	movzbl	mode_size(%rax), %eax	# mode_size, D.23214
	movzbl	%al, %eax	# D.23214, tmp99
	movq	%rax, -24(%rbp)	# tmp99, size
	.loc 1 426 0 discriminator 3
	cmpq	$0, -32(%rbp)	#, offset
	jns	.L18	#,
	.loc 1 427 0
	jmp	.L15	#
.L18:
	.loc 1 429 0
	movq	-24(%rbp), %rax	# size, tmp100
	movq	%rax, %rsi	# tmp100,
	movl	$0, %edi	#,
	call	gen_rtx_CONST_INT	#
	movq	%rax, %rbx	#, D.23216
	movq	-32(%rbp), %rdx	# offset, tmp101
	movl	-52(%rbp), %esi	# mode, tmp102
	movq	-40(%rbp), %rax	# mem, tmp103
	movl	$1, %r8d	#,
	movl	$1, %ecx	#,
	movq	%rax, %rdi	# tmp103,
	call	adjust_address_1	#
	movq	%rbx, %rsi	# D.23216,
	movq	%rax, %rdi	# D.23216,
	call	emit_move_insn	#
.L15:
.LBE2:
	.loc 1 420 0
	addl	$1, -56(%rbp)	#, i
.L12:
	.loc 1 420 0 is_stmt 0 discriminator 1
	cmpl	$52, -56(%rbp)	#, i
	jle	.L19	#,
	.loc 1 431 0 is_stmt 1
	addq	$72, %rsp	#,
	popq	%rbx	#
	popq	%rbp	#
	.cfi_def_cfa 7, 8
	ret
	.cfi_endproc
.LFE6:
	.size	expand_builtin_init_dwarf_reg_sizes, .-expand_builtin_init_dwarf_reg_sizes
	.section	.rodata
.LC1:
	.string	"DW_CFA_advance_loc"
.LC2:
	.string	"DW_CFA_offset"
.LC3:
	.string	"DW_CFA_restore"
.LC4:
	.string	"DW_CFA_nop"
.LC5:
	.string	"DW_CFA_set_loc"
.LC6:
	.string	"DW_CFA_advance_loc1"
.LC7:
	.string	"DW_CFA_advance_loc2"
.LC8:
	.string	"DW_CFA_advance_loc4"
.LC9:
	.string	"DW_CFA_offset_extended"
.LC10:
	.string	"DW_CFA_restore_extended"
.LC11:
	.string	"DW_CFA_undefined"
.LC12:
	.string	"DW_CFA_same_value"
.LC13:
	.string	"DW_CFA_register"
.LC14:
	.string	"DW_CFA_remember_state"
.LC15:
	.string	"DW_CFA_restore_state"
.LC16:
	.string	"DW_CFA_def_cfa"
.LC17:
	.string	"DW_CFA_def_cfa_register"
.LC18:
	.string	"DW_CFA_def_cfa_offset"
.LC19:
	.string	"DW_CFA_def_cfa_expression"
.LC20:
	.string	"DW_CFA_expression"
.LC21:
	.string	"DW_CFA_offset_extended_sf"
.LC22:
	.string	"DW_CFA_def_cfa_sf"
.LC23:
	.string	"DW_CFA_def_cfa_offset_sf"
.LC24:
	.string	"DW_CFA_MIPS_advance_loc8"
.LC25:
	.string	"DW_CFA_GNU_window_save"
.LC26:
	.string	"DW_CFA_GNU_args_size"
	.align 8
.LC27:
	.string	"DW_CFA_GNU_negative_offset_extended"
.LC28:
	.string	"DW_CFA_<unknown>"
	.text
	.type	dwarf_cfi_name, @function
dwarf_cfi_name:
.LFB7:
	.loc 1 438 0
	.cfi_startproc
	pushq	%rbp	#
	.cfi_def_cfa_offset 16
	.cfi_offset 6, -16
	movq	%rsp, %rbp	#,
	.cfi_def_cfa_register 6
	movl	%edi, -4(%rbp)	# cfi_opc, cfi_opc
	.loc 1 439 0
	cmpl	$192, -4(%rbp)	#, cfi_opc
	ja	.L21	#,
	movl	-4(%rbp), %eax	# cfi_opc, tmp61
	movq	.L23(,%rax,8), %rax	#, tmp62
	jmp	*%rax	# tmp62
	.section	.rodata
	.align 8
	.align 4
.L23:
	.quad	.L22
	.quad	.L24
	.quad	.L25
	.quad	.L26
	.quad	.L27
	.quad	.L28
	.quad	.L29
	.quad	.L30
	.quad	.L31
	.quad	.L32
	.quad	.L33
	.quad	.L34
	.quad	.L35
	.quad	.L36
	.quad	.L37
	.quad	.L38
	.quad	.L39
	.quad	.L40
	.quad	.L41
	.quad	.L42
	.quad	.L21
	.quad	.L21
	.quad	.L21
	.quad	.L21
	.quad	.L21
	.quad	.L21
	.quad	.L21
	.quad	.L21
	.quad	.L21
	.quad	.L43
	.quad	.L21
	.quad	.L21
	.quad	.L21
	.quad	.L21
	.quad	.L21
	.quad	.L21
	.quad	.L21
	.quad	.L21
	.quad	.L21
	.quad	.L21
	.quad	.L21
	.quad	.L21
	.quad	.L21
	.quad	.L21
	.quad	.L21
	.quad	.L44
	.quad	.L45
	.quad	.L46
	.quad	.L21
	.quad	.L21
	.quad	.L21
	.quad	.L21
	.quad	.L21
	.quad	.L21
	.quad	.L21
	.quad	.L21
	.quad	.L21
	.quad	.L21
	.quad	.L21
	.quad	.L21
	.quad	.L21
	.quad	.L21
	.quad	.L21
	.quad	.L21
	.quad	.L47
	.quad	.L21
	.quad	.L21
	.quad	.L21
	.quad	.L21
	.quad	.L21
	.quad	.L21
	.quad	.L21
	.quad	.L21
	.quad	.L21
	.quad	.L21
	.quad	.L21
	.quad	.L21
	.quad	.L21
	.quad	.L21
	.quad	.L21
	.quad	.L21
	.quad	.L21
	.quad	.L21
	.quad	.L21
	.quad	.L21
	.quad	.L21
	.quad	.L21
	.quad	.L21
	.quad	.L21
	.quad	.L21
	.quad	.L21
	.quad	.L21
	.quad	.L21
	.quad	.L21
	.quad	.L21
	.quad	.L21
	.quad	.L21
	.quad	.L21
	.quad	.L21
	.quad	.L21
	.quad	.L21
	.quad	.L21
	.quad	.L21
	.quad	.L21
	.quad	.L21
	.quad	.L21
	.quad	.L21
	.quad	.L21
	.quad	.L21
	.quad	.L21
	.quad	.L21
	.quad	.L21
	.quad	.L21
	.quad	.L21
	.quad	.L21
	.quad	.L21
	.quad	.L21
	.quad	.L21
	.quad	.L21
	.quad	.L21
	.quad	.L21
	.quad	.L21
	.quad	.L21
	.quad	.L21
	.quad	.L21
	.quad	.L21
	.quad	.L21
	.quad	.L21
	.quad	.L48
	.quad	.L21
	.quad	.L21
	.quad	.L21
	.quad	.L21
	.quad	.L21
	.quad	.L21
	.quad	.L21
	.quad	.L21
	.quad	.L21
	.quad	.L21
	.quad	.L21
	.quad	.L21
	.quad	.L21
	.quad	.L21
	.quad	.L21
	.quad	.L21
	.quad	.L21
	.quad	.L21
	.quad	.L21
	.quad	.L21
	.quad	.L21
	.quad	.L21
	.quad	.L21
	.quad	.L21
	.quad	.L21
	.quad	.L21
	.quad	.L21
	.quad	.L21
	.quad	.L21
	.quad	.L21
	.quad	.L21
	.quad	.L21
	.quad	.L21
	.quad	.L21
	.quad	.L21
	.quad	.L21
	.quad	.L21
	.quad	.L21
	.quad	.L21
	.quad	.L21
	.quad	.L21
	.quad	.L21
	.quad	.L21
	.quad	.L21
	.quad	.L21
	.quad	.L21
	.quad	.L21
	.quad	.L21
	.quad	.L21
	.quad	.L21
	.quad	.L21
	.quad	.L21
	.quad	.L21
	.quad	.L21
	.quad	.L21
	.quad	.L21
	.quad	.L21
	.quad	.L21
	.quad	.L21
	.quad	.L21
	.quad	.L21
	.quad	.L21
	.quad	.L21
	.quad	.L49
	.text
.L47:
	.loc 1 442 0
	movl	$.LC1, %eax	#, D.23217
	jmp	.L50	#
.L48:
	.loc 1 444 0
	movl	$.LC2, %eax	#, D.23217
	jmp	.L50	#
.L49:
	.loc 1 446 0
	movl	$.LC3, %eax	#, D.23217
	jmp	.L50	#
.L22:
	.loc 1 448 0
	movl	$.LC4, %eax	#, D.23217
	jmp	.L50	#
.L24:
	.loc 1 450 0
	movl	$.LC5, %eax	#, D.23217
	jmp	.L50	#
.L25:
	.loc 1 452 0
	movl	$.LC6, %eax	#, D.23217
	jmp	.L50	#
.L26:
	.loc 1 454 0
	movl	$.LC7, %eax	#, D.23217
	jmp	.L50	#
.L27:
	.loc 1 456 0
	movl	$.LC8, %eax	#, D.23217
	jmp	.L50	#
.L28:
	.loc 1 458 0
	movl	$.LC9, %eax	#, D.23217
	jmp	.L50	#
.L29:
	.loc 1 460 0
	movl	$.LC10, %eax	#, D.23217
	jmp	.L50	#
.L30:
	.loc 1 462 0
	movl	$.LC11, %eax	#, D.23217
	jmp	.L50	#
.L31:
	.loc 1 464 0
	movl	$.LC12, %eax	#, D.23217
	jmp	.L50	#
.L32:
	.loc 1 466 0
	movl	$.LC13, %eax	#, D.23217
	jmp	.L50	#
.L33:
	.loc 1 468 0
	movl	$.LC14, %eax	#, D.23217
	jmp	.L50	#
.L34:
	.loc 1 470 0
	movl	$.LC15, %eax	#, D.23217
	jmp	.L50	#
.L35:
	.loc 1 472 0
	movl	$.LC16, %eax	#, D.23217
	jmp	.L50	#
.L36:
	.loc 1 474 0
	movl	$.LC17, %eax	#, D.23217
	jmp	.L50	#
.L37:
	.loc 1 476 0
	movl	$.LC18, %eax	#, D.23217
	jmp	.L50	#
.L38:
	.loc 1 480 0
	movl	$.LC19, %eax	#, D.23217
	jmp	.L50	#
.L39:
	.loc 1 482 0
	movl	$.LC20, %eax	#, D.23217
	jmp	.L50	#
.L40:
	.loc 1 484 0
	movl	$.LC21, %eax	#, D.23217
	jmp	.L50	#
.L41:
	.loc 1 486 0
	movl	$.LC22, %eax	#, D.23217
	jmp	.L50	#
.L42:
	.loc 1 488 0
	movl	$.LC23, %eax	#, D.23217
	jmp	.L50	#
.L43:
	.loc 1 492 0
	movl	$.LC24, %eax	#, D.23217
	jmp	.L50	#
.L44:
	.loc 1 496 0
	movl	$.LC25, %eax	#, D.23217
	jmp	.L50	#
.L45:
	.loc 1 498 0
	movl	$.LC26, %eax	#, D.23217
	jmp	.L50	#
.L46:
	.loc 1 500 0
	movl	$.LC27, %eax	#, D.23217
	jmp	.L50	#
.L21:
	.loc 1 503 0
	movl	$.LC28, %eax	#, D.23217
.L50:
	.loc 1 505 0
	popq	%rbp	#
	.cfi_def_cfa 7, 8
	ret
	.cfi_endproc
.LFE7:
	.size	dwarf_cfi_name, .-dwarf_cfi_name
	.type	new_cfi, @function
new_cfi:
.LFB8:
	.loc 1 511 0
	.cfi_startproc
	pushq	%rbp	#
	.cfi_def_cfa_offset 16
	.cfi_offset 6, -16
	movq	%rsp, %rbp	#,
	.cfi_def_cfa_register 6
	subq	$16, %rsp	#,
	.loc 1 512 0
	movl	$32, %edi	#,
	call	xmalloc	#
	movq	%rax, -8(%rbp)	# tmp61, cfi
	.loc 1 514 0
	movq	-8(%rbp), %rax	# cfi, tmp62
	movq	$0, (%rax)	#, cfi_1->dw_cfi_next
	.loc 1 515 0
	movq	-8(%rbp), %rax	# cfi, tmp63
	movq	$0, 16(%rax)	#, cfi_1->dw_cfi_oprnd1.dw_cfi_reg_num
	.loc 1 516 0
	movq	-8(%rbp), %rax	# cfi, tmp64
	movq	$0, 24(%rax)	#, cfi_1->dw_cfi_oprnd2.dw_cfi_reg_num
	.loc 1 518 0
	movq	-8(%rbp), %rax	# cfi, D.23246
	.loc 1 519 0
	leave
	.cfi_def_cfa 7, 8
	ret
	.cfi_endproc
.LFE8:
	.size	new_cfi, .-new_cfi
	.type	add_cfi, @function
add_cfi:
.LFB9:
	.loc 1 527 0
	.cfi_startproc
	pushq	%rbp	#
	.cfi_def_cfa_offset 16
	.cfi_offset 6, -16
	movq	%rsp, %rbp	#,
	.cfi_def_cfa_register 6
	movq	%rdi, -24(%rbp)	# list_head, list_head
	movq	%rsi, -32(%rbp)	# cfi, cfi
	.loc 1 531 0
	movq	-24(%rbp), %rax	# list_head, tmp61
	movq	%rax, -8(%rbp)	# tmp61, p
	jmp	.L54	#
.L55:
	.loc 1 531 0 is_stmt 0 discriminator 2
	movq	-8(%rbp), %rax	# p, tmp62
	movq	(%rax), %rax	# *p_1, D.23247
	movq	%rax, -8(%rbp)	# D.23247, p
.L54:
	.loc 1 531 0 discriminator 1
	movq	-8(%rbp), %rax	# p, tmp63
	movq	(%rax), %rax	# *p_1, D.23247
	testq	%rax, %rax	# D.23247
	jne	.L55	#,
	.loc 1 534 0 is_stmt 1
	movq	-8(%rbp), %rax	# p, tmp64
	movq	-32(%rbp), %rdx	# cfi, tmp65
	movq	%rdx, (%rax)	# tmp65, *p_1
	.loc 1 535 0
	popq	%rbp	#
	.cfi_def_cfa 7, 8
	ret
	.cfi_endproc
.LFE9:
	.size	add_cfi, .-add_cfi
	.section	.rodata
.LC29:
	.string	"LCFI"
.LC30:
	.string	"*.%s%u"
.LC31:
	.string	":\n"
	.text
	.globl	dwarf2out_cfi_label
	.type	dwarf2out_cfi_label, @function
dwarf2out_cfi_label:
.LFB10:
	.loc 1 541 0
	.cfi_startproc
	pushq	%rbp	#
	.cfi_def_cfa_offset 16
	.cfi_offset 6, -16
	movq	%rsp, %rbp	#,
	.cfi_def_cfa_register 6
	.loc 1 545 0
	movq	label_num.13911(%rip), %rax	# label_num, label_num.12
	leaq	1(%rax), %rdx	#, label_num.14
	movq	%rdx, label_num.13911(%rip)	# label_num.14, label_num
	movl	%eax, %ecx	# D.23248,
	movl	$.LC29, %edx	#,
	movl	$.LC30, %esi	#,
	movl	$label.13910, %edi	#,
	movl	$0, %eax	#,
	call	sprintf	#
	.loc 1 546 0
	movq	asm_out_file(%rip), %rax	# asm_out_file, asm_out_file.15
	movl	$label.13910, %esi	#,
	movq	%rax, %rdi	# asm_out_file.15,
	call	assemble_name	#
	movq	asm_out_file(%rip), %rax	# asm_out_file, asm_out_file.16
	movq	%rax, %rcx	# asm_out_file.16,
	movl	$2, %edx	#,
	movl	$1, %esi	#,
	movl	$.LC31, %edi	#,
	call	fwrite	#
	.loc 1 547 0
	movl	$label.13910, %eax	#, D.23249
	.loc 1 548 0
	popq	%rbp	#
	.cfi_def_cfa 7, 8
	ret
	.cfi_endproc
.LFE10:
	.size	dwarf2out_cfi_label, .-dwarf2out_cfi_label
	.type	add_fde_cfi, @function
add_fde_cfi:
.LFB11:
	.loc 1 557 0
	.cfi_startproc
	pushq	%rbp	#
	.cfi_def_cfa_offset 16
	.cfi_offset 6, -16
	movq	%rsp, %rbp	#,
	.cfi_def_cfa_register 6
	subq	$32, %rsp	#,
	movq	%rdi, -24(%rbp)	# label, label
	movq	%rsi, -32(%rbp)	# cfi, cfi
	.loc 1 558 0
	cmpq	$0, -24(%rbp)	#, label
	je	.L59	#,
.LBB3:
	.loc 1 560 0
	movq	fde_table(%rip), %rcx	# fde_table, fde_table.17
	movl	fde_table_in_use(%rip), %eax	# fde_table_in_use, fde_table_in_use.18
	subl	$1, %eax	#, D.23253
	movl	%eax, %edx	# D.23253, D.23254
	movq	%rdx, %rax	# D.23254, tmp70
	salq	$2, %rax	#, tmp70
	addq	%rdx, %rax	# D.23254, tmp70
	salq	$3, %rax	#, tmp71
	addq	%rcx, %rax	# fde_table.17, tmp72
	movq	%rax, -16(%rbp)	# tmp72, fde
	.loc 1 562 0
	movq	-24(%rbp), %rax	# label, tmp73
	movzbl	(%rax), %eax	# *label_2(D), D.23255
	testb	%al, %al	# D.23255
	jne	.L60	#,
	.loc 1 563 0
	call	dwarf2out_cfi_label	#
	movq	%rax, -24(%rbp)	# tmp74, label
.L60:
	.loc 1 565 0
	movq	-16(%rbp), %rax	# fde, tmp75
	movq	8(%rax), %rax	# fde_8->dw_fde_current_label, D.23256
	testq	%rax, %rax	# D.23256
	je	.L61	#,
	.loc 1 566 0
	movq	-16(%rbp), %rax	# fde, tmp76
	movq	8(%rax), %rdx	# fde_8->dw_fde_current_label, D.23256
	movq	-24(%rbp), %rax	# label, tmp77
	movq	%rdx, %rsi	# D.23256,
	movq	%rax, %rdi	# tmp77,
	call	strcmp	#
	testl	%eax, %eax	# D.23257
	je	.L62	#,
.L61:
.LBB4:
	.loc 1 570 0
	movq	-24(%rbp), %rax	# label, tmp78
	movq	%rax, %rdi	# tmp78,
	call	xstrdup	#
	movq	%rax, -24(%rbp)	# tmp79, label
	movq	-16(%rbp), %rax	# fde, tmp80
	movq	-24(%rbp), %rdx	# label, tmp81
	movq	%rdx, 8(%rax)	# tmp81, fde_8->dw_fde_current_label
	.loc 1 573 0
	call	new_cfi	#
	movq	%rax, -8(%rbp)	# tmp82, xcfi
	.loc 1 574 0
	movq	-8(%rbp), %rax	# xcfi, tmp83
	movl	$4, 8(%rax)	#, xcfi_15->dw_cfi_opc
	.loc 1 575 0
	movq	-8(%rbp), %rax	# xcfi, tmp84
	movq	-24(%rbp), %rdx	# label, tmp85
	movq	%rdx, 16(%rax)	# tmp85, xcfi_15->dw_cfi_oprnd1.dw_cfi_addr
	.loc 1 576 0
	movq	-16(%rbp), %rax	# fde, tmp86
	leaq	24(%rax), %rdx	#, D.23258
	movq	-8(%rbp), %rax	# xcfi, tmp87
	movq	%rax, %rsi	# tmp87,
	movq	%rdx, %rdi	# D.23258,
	call	add_cfi	#
.L62:
.LBE4:
	.loc 1 579 0
	movq	-16(%rbp), %rax	# fde, tmp88
	leaq	24(%rax), %rdx	#, D.23258
	movq	-32(%rbp), %rax	# cfi, tmp89
	movq	%rax, %rsi	# tmp89,
	movq	%rdx, %rdi	# D.23258,
	call	add_cfi	#
.LBE3:
	jmp	.L58	#
.L59:
	.loc 1 583 0
	movq	-32(%rbp), %rax	# cfi, tmp90
	movq	%rax, %rsi	# tmp90,
	movl	$cie_cfi_head, %edi	#,
	call	add_cfi	#
.L58:
	.loc 1 584 0
	leave
	.cfi_def_cfa 7, 8
	ret
	.cfi_endproc
.LFE11:
	.size	add_fde_cfi, .-add_fde_cfi
	.type	lookup_cfa_1, @function
lookup_cfa_1:
.LFB12:
	.loc 1 592 0
	.cfi_startproc
	pushq	%rbp	#
	.cfi_def_cfa_offset 16
	.cfi_offset 6, -16
	movq	%rsp, %rbp	#,
	.cfi_def_cfa_register 6
	subq	$16, %rsp	#,
	movq	%rdi, -8(%rbp)	# cfi, cfi
	movq	%rsi, -16(%rbp)	# loc, loc
	.loc 1 593 0
	movq	-8(%rbp), %rax	# cfi, tmp65
	movl	8(%rax), %eax	# cfi_1(D)->dw_cfi_opc, D.23259
	cmpl	$13, %eax	#, D.23259
	je	.L66	#,
	cmpl	$13, %eax	#, D.23259
	ja	.L67	#,
	cmpl	$12, %eax	#, D.23259
	je	.L68	#,
	.loc 1 609 0
	jmp	.L64	#
.L67:
	.loc 1 593 0
	cmpl	$14, %eax	#, D.23259
	je	.L69	#,
	cmpl	$15, %eax	#, D.23259
	je	.L70	#,
	.loc 1 609 0
	jmp	.L64	#
.L69:
	.loc 1 596 0
	movq	-8(%rbp), %rax	# cfi, tmp66
	movq	16(%rax), %rdx	# cfi_1(D)->dw_cfi_oprnd1.dw_cfi_offset, D.23260
	movq	-16(%rbp), %rax	# loc, tmp67
	movq	%rdx, 8(%rax)	# D.23260, loc_4(D)->offset
	.loc 1 597 0
	jmp	.L64	#
.L66:
	.loc 1 599 0
	movq	-8(%rbp), %rax	# cfi, tmp68
	movq	16(%rax), %rdx	# cfi_1(D)->dw_cfi_oprnd1.dw_cfi_reg_num, D.23261
	movq	-16(%rbp), %rax	# loc, tmp69
	movq	%rdx, (%rax)	# D.23261, loc_4(D)->reg
	.loc 1 600 0
	jmp	.L64	#
.L68:
	.loc 1 602 0
	movq	-8(%rbp), %rax	# cfi, tmp70
	movq	16(%rax), %rdx	# cfi_1(D)->dw_cfi_oprnd1.dw_cfi_reg_num, D.23261
	movq	-16(%rbp), %rax	# loc, tmp71
	movq	%rdx, (%rax)	# D.23261, loc_4(D)->reg
	.loc 1 603 0
	movq	-8(%rbp), %rax	# cfi, tmp72
	movq	24(%rax), %rdx	# cfi_1(D)->dw_cfi_oprnd2.dw_cfi_offset, D.23260
	movq	-16(%rbp), %rax	# loc, tmp73
	movq	%rdx, 8(%rax)	# D.23260, loc_4(D)->offset
	.loc 1 604 0
	jmp	.L64	#
.L70:
	.loc 1 606 0
	movq	-8(%rbp), %rax	# cfi, tmp74
	movq	16(%rax), %rdx	# cfi_1(D)->dw_cfi_oprnd1.dw_cfi_loc, D.23262
	movq	-16(%rbp), %rax	# loc, tmp75
	movq	%rdx, %rsi	# D.23262,
	movq	%rax, %rdi	# tmp75,
	call	get_cfa_from_loc_descr	#
	.loc 1 607 0
	nop
.L64:
	.loc 1 611 0
	leave
	.cfi_def_cfa 7, 8
	ret
	.cfi_endproc
.LFE12:
	.size	lookup_cfa_1, .-lookup_cfa_1
	.type	lookup_cfa, @function
lookup_cfa:
.LFB13:
	.loc 1 618 0
	.cfi_startproc
	pushq	%rbp	#
	.cfi_def_cfa_offset 16
	.cfi_offset 6, -16
	movq	%rsp, %rbp	#,
	.cfi_def_cfa_register 6
	subq	$32, %rsp	#,
	movq	%rdi, -24(%rbp)	# loc, loc
	.loc 1 621 0
	movq	-24(%rbp), %rax	# loc, tmp65
	movq	$-1, (%rax)	#, loc_3(D)->reg
	.loc 1 622 0
	movq	-24(%rbp), %rax	# loc, tmp66
	movq	$0, 8(%rax)	#, loc_3(D)->offset
	.loc 1 623 0
	movq	-24(%rbp), %rax	# loc, tmp67
	movl	$0, 24(%rax)	#, loc_3(D)->indirect
	.loc 1 624 0
	movq	-24(%rbp), %rax	# loc, tmp68
	movq	$0, 16(%rax)	#, loc_3(D)->base_offset
	.loc 1 626 0
	movq	cie_cfi_head(%rip), %rax	# cie_cfi_head, tmp69
	movq	%rax, -16(%rbp)	# tmp69, cfi
	jmp	.L73	#
.L74:
	.loc 1 627 0 discriminator 2
	movq	-24(%rbp), %rdx	# loc, tmp70
	movq	-16(%rbp), %rax	# cfi, tmp71
	movq	%rdx, %rsi	# tmp70,
	movq	%rax, %rdi	# tmp71,
	call	lookup_cfa_1	#
	.loc 1 626 0 discriminator 2
	movq	-16(%rbp), %rax	# cfi, tmp72
	movq	(%rax), %rax	# cfi_1->dw_cfi_next, tmp73
	movq	%rax, -16(%rbp)	# tmp73, cfi
.L73:
	.loc 1 626 0 is_stmt 0 discriminator 1
	cmpq	$0, -16(%rbp)	#, cfi
	jne	.L74	#,
	.loc 1 629 0 is_stmt 1
	movl	fde_table_in_use(%rip), %eax	# fde_table_in_use, fde_table_in_use.19
	testl	%eax, %eax	# fde_table_in_use.19
	je	.L72	#,
.LBB5:
	.loc 1 631 0
	movq	fde_table(%rip), %rcx	# fde_table, fde_table.20
	movl	fde_table_in_use(%rip), %eax	# fde_table_in_use, fde_table_in_use.21
	subl	$1, %eax	#, D.23264
	movl	%eax, %edx	# D.23264, D.23265
	movq	%rdx, %rax	# D.23265, tmp74
	salq	$2, %rax	#, tmp74
	addq	%rdx, %rax	# D.23265, tmp74
	salq	$3, %rax	#, tmp75
	addq	%rcx, %rax	# fde_table.20, tmp76
	movq	%rax, -8(%rbp)	# tmp76, fde
	.loc 1 632 0
	movq	-8(%rbp), %rax	# fde, tmp77
	movq	24(%rax), %rax	# fde_12->dw_fde_cfi, tmp78
	movq	%rax, -16(%rbp)	# tmp78, cfi
	jmp	.L76	#
.L77:
	.loc 1 633 0 discriminator 2
	movq	-24(%rbp), %rdx	# loc, tmp79
	movq	-16(%rbp), %rax	# cfi, tmp80
	movq	%rdx, %rsi	# tmp79,
	movq	%rax, %rdi	# tmp80,
	call	lookup_cfa_1	#
	.loc 1 632 0 discriminator 2
	movq	-16(%rbp), %rax	# cfi, tmp81
	movq	(%rax), %rax	# cfi_2->dw_cfi_next, tmp82
	movq	%rax, -16(%rbp)	# tmp82, cfi
.L76:
	.loc 1 632 0 is_stmt 0 discriminator 1
	cmpq	$0, -16(%rbp)	#, cfi
	jne	.L77	#,
.L72:
.LBE5:
	.loc 1 635 0 is_stmt 1
	leave
	.cfi_def_cfa 7, 8
	ret
	.cfi_endproc
.LFE13:
	.size	lookup_cfa, .-lookup_cfa
	.local	cfa
	.comm	cfa,32,32
	.local	cfa_store
	.comm	cfa_store,32,32
	.local	args_size
	.comm	args_size,8,8
	.local	old_args_size
	.comm	old_args_size,8,8
	.globl	dwarf2out_def_cfa
	.type	dwarf2out_def_cfa, @function
dwarf2out_def_cfa:
.LFB14:
	.loc 1 659 0
	.cfi_startproc
	pushq	%rbp	#
	.cfi_def_cfa_offset 16
	.cfi_offset 6, -16
	movq	%rsp, %rbp	#,
	.cfi_def_cfa_register 6
	subq	$64, %rsp	#,
	movq	%rdi, -40(%rbp)	# label, label
	movl	%esi, -44(%rbp)	# reg, reg
	movq	%rdx, -56(%rbp)	# offset, offset
	.loc 1 661 0
	movl	$0, -8(%rbp)	#, loc.indirect
	.loc 1 662 0
	movq	$0, -16(%rbp)	#, loc.base_offset
	.loc 1 663 0
	movl	-44(%rbp), %eax	# reg, D.23266
	movq	%rax, -32(%rbp)	# D.23266, loc.reg
	.loc 1 664 0
	movq	-56(%rbp), %rax	# offset, tmp60
	movq	%rax, -24(%rbp)	# tmp60, loc.offset
	.loc 1 665 0
	leaq	-32(%rbp), %rdx	#, tmp61
	movq	-40(%rbp), %rax	# label, tmp62
	movq	%rdx, %rsi	# tmp61,
	movq	%rax, %rdi	# tmp62,
	call	def_cfa_1	#
	.loc 1 666 0
	leave
	.cfi_def_cfa 7, 8
	ret
	.cfi_endproc
.LFE14:
	.size	dwarf2out_def_cfa, .-dwarf2out_def_cfa
	.type	def_cfa_1, @function
def_cfa_1:
.LFB15:
	.loc 1 675 0
	.cfi_startproc
	pushq	%rbp	#
	.cfi_def_cfa_offset 16
	.cfi_offset 6, -16
	movq	%rsp, %rbp	#,
	.cfi_def_cfa_register 6
	subq	$96, %rsp	#,
	movq	%rdi, -88(%rbp)	# label, label
	movq	%rsi, -96(%rbp)	# loc_p, loc_p
	.loc 1 679 0
	movq	-96(%rbp), %rax	# loc_p, tmp91
	movq	(%rax), %rdx	# *loc_p_2(D), tmp93
	movq	%rdx, cfa(%rip)	# tmp93, cfa
	movq	8(%rax), %rdx	# *loc_p_2(D), tmp94
	movq	%rdx, cfa+8(%rip)	# tmp94, cfa
	movq	16(%rax), %rdx	# *loc_p_2(D), tmp95
	movq	%rdx, cfa+16(%rip)	# tmp95, cfa
	movq	24(%rax), %rax	# *loc_p_2(D), tmp96
	movq	%rax, cfa+24(%rip)	# tmp96, cfa
	.loc 1 680 0
	movq	-96(%rbp), %rax	# loc_p, tmp97
	movq	(%rax), %rdx	# *loc_p_2(D), tmp98
	movq	%rdx, -32(%rbp)	# tmp98, loc
	movq	8(%rax), %rdx	# *loc_p_2(D), tmp99
	movq	%rdx, -24(%rbp)	# tmp99, loc
	movq	16(%rax), %rdx	# *loc_p_2(D), tmp100
	movq	%rdx, -16(%rbp)	# tmp100, loc
	movq	24(%rax), %rax	# *loc_p_2(D), tmp101
	movq	%rax, -8(%rbp)	# tmp101, loc
	.loc 1 682 0
	movq	cfa_store(%rip), %rdx	# cfa_store.reg, D.23267
	movq	-32(%rbp), %rax	# loc.reg, D.23267
	cmpq	%rax, %rdx	# D.23267, D.23267
	jne	.L80	#,
	.loc 1 682 0 is_stmt 0 discriminator 1
	movl	-8(%rbp), %eax	# loc.indirect, D.23268
	testl	%eax, %eax	# D.23268
	jne	.L80	#,
	.loc 1 683 0 is_stmt 1
	movq	-24(%rbp), %rax	# loc.offset, D.23269
	movq	%rax, cfa_store+8(%rip)	# D.23269, cfa_store.offset
.L80:
	.loc 1 685 0
	movl	target_flags(%rip), %eax	# target_flags, target_flags.23
	andl	$33554432, %eax	#, D.23268
	testl	%eax, %eax	# D.23268
	je	.L81	#,
	.loc 1 685 0 is_stmt 0 discriminator 1
	movq	-32(%rbp), %rax	# loc.reg, D.23267
	movl	dbx64_register_map(,%rax,4), %eax	# dbx64_register_map, D.23268
	cltq
	jmp	.L82	#
.L81:
	.loc 1 685 0 discriminator 2
	movq	-32(%rbp), %rax	# loc.reg, D.23267
	movl	svr4_dbx_register_map(,%rax,4), %eax	# svr4_dbx_register_map, D.23268
	cltq
.L82:
	.loc 1 685 0 discriminator 3
	movq	%rax, -32(%rbp)	# iftmp.22, loc.reg
	.loc 1 686 0 is_stmt 1 discriminator 3
	leaq	-64(%rbp), %rax	#, tmp102
	movq	%rax, %rdi	# tmp102,
	call	lookup_cfa	#
	.loc 1 689 0 discriminator 3
	movq	-32(%rbp), %rdx	# loc.reg, D.23267
	movq	-64(%rbp), %rax	# old_cfa.reg, D.23267
	cmpq	%rax, %rdx	# D.23267, D.23267
	jne	.L83	#,
	.loc 1 689 0 is_stmt 0 discriminator 1
	movq	-24(%rbp), %rdx	# loc.offset, D.23269
	movq	-56(%rbp), %rax	# old_cfa.offset, D.23269
	cmpq	%rax, %rdx	# D.23269, D.23269
	jne	.L83	#,
	.loc 1 690 0 is_stmt 1
	movl	-8(%rbp), %edx	# loc.indirect, D.23268
	movl	-40(%rbp), %eax	# old_cfa.indirect, D.23268
	cmpl	%eax, %edx	# D.23268, D.23268
	jne	.L83	#,
	.loc 1 691 0
	movl	-8(%rbp), %eax	# loc.indirect, D.23268
	testl	%eax, %eax	# D.23268
	je	.L79	#,
	.loc 1 691 0 is_stmt 0 discriminator 1
	movq	-16(%rbp), %rdx	# loc.base_offset, D.23269
	movq	-48(%rbp), %rax	# old_cfa.base_offset, D.23269
	cmpq	%rax, %rdx	# D.23269, D.23269
	je	.L79	#,
.L83:
	.loc 1 694 0 is_stmt 1
	call	new_cfi	#
	movq	%rax, -80(%rbp)	# tmp103, cfi
	.loc 1 696 0
	movq	-32(%rbp), %rdx	# loc.reg, D.23267
	movq	-64(%rbp), %rax	# old_cfa.reg, D.23267
	cmpq	%rax, %rdx	# D.23267, D.23267
	jne	.L86	#,
	.loc 1 696 0 is_stmt 0 discriminator 1
	movl	-8(%rbp), %eax	# loc.indirect, D.23268
	testl	%eax, %eax	# D.23268
	jne	.L86	#,
	.loc 1 701 0 is_stmt 1
	movq	-80(%rbp), %rax	# cfi, tmp104
	movl	$14, 8(%rax)	#, cfi_24->dw_cfi_opc
	.loc 1 702 0
	movq	-24(%rbp), %rdx	# loc.offset, D.23269
	movq	-80(%rbp), %rax	# cfi, tmp105
	movq	%rdx, 16(%rax)	# D.23269, cfi_24->dw_cfi_oprnd1.dw_cfi_offset
	jmp	.L87	#
.L86:
	.loc 1 706 0
	movq	-24(%rbp), %rdx	# loc.offset, D.23269
	movq	-56(%rbp), %rax	# old_cfa.offset, D.23269
	cmpq	%rax, %rdx	# D.23269, D.23269
	jne	.L88	#,
	.loc 1 706 0 is_stmt 0 discriminator 1
	movq	-64(%rbp), %rax	# old_cfa.reg, D.23267
	cmpq	$-1, %rax	#, D.23267
	je	.L88	#,
	.loc 1 707 0 is_stmt 1
	movl	-8(%rbp), %eax	# loc.indirect, D.23268
	testl	%eax, %eax	# D.23268
	jne	.L88	#,
	.loc 1 712 0
	movq	-80(%rbp), %rax	# cfi, tmp106
	movl	$13, 8(%rax)	#, cfi_24->dw_cfi_opc
	.loc 1 713 0
	movq	-32(%rbp), %rdx	# loc.reg, D.23267
	movq	-80(%rbp), %rax	# cfi, tmp107
	movq	%rdx, 16(%rax)	# D.23267, cfi_24->dw_cfi_oprnd1.dw_cfi_reg_num
	jmp	.L87	#
.L88:
	.loc 1 717 0
	movl	-8(%rbp), %eax	# loc.indirect, D.23268
	testl	%eax, %eax	# D.23268
	jne	.L89	#,
	.loc 1 722 0
	movq	-80(%rbp), %rax	# cfi, tmp108
	movl	$12, 8(%rax)	#, cfi_24->dw_cfi_opc
	.loc 1 723 0
	movq	-32(%rbp), %rdx	# loc.reg, D.23267
	movq	-80(%rbp), %rax	# cfi, tmp109
	movq	%rdx, 16(%rax)	# D.23267, cfi_24->dw_cfi_oprnd1.dw_cfi_reg_num
	.loc 1 724 0
	movq	-24(%rbp), %rdx	# loc.offset, D.23269
	movq	-80(%rbp), %rax	# cfi, tmp110
	movq	%rdx, 24(%rax)	# D.23269, cfi_24->dw_cfi_oprnd2.dw_cfi_offset
	jmp	.L87	#
.L89:
.LBB6:
	.loc 1 733 0
	movq	-80(%rbp), %rax	# cfi, tmp111
	movl	$15, 8(%rax)	#, cfi_24->dw_cfi_opc
	.loc 1 734 0
	leaq	-32(%rbp), %rax	#, tmp112
	movq	%rax, %rdi	# tmp112,
	call	build_cfa_loc	#
	movq	%rax, -72(%rbp)	# tmp113, loc_list
	.loc 1 735 0
	movq	-80(%rbp), %rax	# cfi, tmp114
	movq	-72(%rbp), %rdx	# loc_list, tmp115
	movq	%rdx, 16(%rax)	# tmp115, cfi_24->dw_cfi_oprnd1.dw_cfi_loc
.L87:
.LBE6:
	.loc 1 738 0 discriminator 1
	movq	-80(%rbp), %rdx	# cfi, tmp116
	movq	-88(%rbp), %rax	# label, tmp117
	movq	%rdx, %rsi	# tmp116,
	movq	%rax, %rdi	# tmp117,
	call	add_fde_cfi	#
.L79:
	.loc 1 739 0
	leave
	.cfi_def_cfa 7, 8
	ret
	.cfi_endproc
.LFE15:
	.size	def_cfa_1, .-def_cfa_1
	.type	reg_save, @function
reg_save:
.LFB16:
	.loc 1 752 0
	.cfi_startproc
	pushq	%rbp	#
	.cfi_def_cfa_offset 16
	.cfi_offset 6, -16
	movq	%rsp, %rbp	#,
	.cfi_def_cfa_register 6
	pushq	%rbx	#
	subq	$56, %rsp	#,
	.cfi_offset 3, -24
	movq	%rdi, -40(%rbp)	# label, label
	movl	%esi, -44(%rbp)	# reg, reg
	movl	%edx, -48(%rbp)	# sreg, sreg
	movq	%rcx, -56(%rbp)	# offset, offset
	.loc 1 753 0
	call	new_cfi	#
	movq	%rax, -24(%rbp)	# tmp65, cfi
	.loc 1 755 0
	movl	-44(%rbp), %edx	# reg, D.23270
	movq	-24(%rbp), %rax	# cfi, tmp66
	movq	%rdx, 16(%rax)	# D.23270, cfi_2->dw_cfi_oprnd1.dw_cfi_reg_num
	.loc 1 759 0
	cmpl	$-1, -48(%rbp)	#, sreg
	jne	.L91	#,
	.loc 1 761 0
	movl	-44(%rbp), %eax	# reg, tmp67
	andl	$-64, %eax	#, D.23271
	testl	%eax, %eax	# D.23271
	je	.L92	#,
	.loc 1 764 0
	movq	-24(%rbp), %rax	# cfi, tmp68
	movl	$5, 8(%rax)	#, cfi_2->dw_cfi_opc
	jmp	.L93	#
.L92:
	.loc 1 766 0
	movq	-24(%rbp), %rax	# cfi, tmp69
	movl	$128, 8(%rax)	#, cfi_2->dw_cfi_opc
.L93:
	.loc 1 780 0
	movl	target_flags(%rip), %eax	# target_flags, target_flags.25
	andl	$33554432, %eax	#, D.23272
	testl	%eax, %eax	# D.23272
	je	.L94	#,
	.loc 1 780 0 is_stmt 0 discriminator 1
	movq	$-8, %rbx	#, iftmp.24
	jmp	.L95	#
.L94:
	.loc 1 780 0 discriminator 2
	movq	$-4, %rbx	#, iftmp.24
.L95:
	.loc 1 780 0 discriminator 3
	movq	-56(%rbp), %rax	# offset, tmp72
	cqto
	idivq	%rbx	# iftmp.24
	movq	%rax, -56(%rbp)	# tmp70, offset
	.loc 1 781 0 is_stmt 1 discriminator 3
	cmpq	$0, -56(%rbp)	#, offset
	jns	.L96	#,
	.loc 1 782 0
	movq	-24(%rbp), %rax	# cfi, tmp73
	movl	$17, 8(%rax)	#, cfi_2->dw_cfi_opc
.L96:
	.loc 1 784 0
	movq	-24(%rbp), %rax	# cfi, tmp74
	movq	-56(%rbp), %rdx	# offset, tmp75
	movq	%rdx, 24(%rax)	# tmp75, cfi_2->dw_cfi_oprnd2.dw_cfi_offset
	jmp	.L97	#
.L91:
	.loc 1 786 0
	movl	-48(%rbp), %eax	# sreg, tmp76
	cmpl	-44(%rbp), %eax	# reg, tmp76
	jne	.L98	#,
	.loc 1 788 0
	jmp	.L90	#
.L98:
	.loc 1 791 0
	movq	-24(%rbp), %rax	# cfi, tmp77
	movl	$9, 8(%rax)	#, cfi_2->dw_cfi_opc
	.loc 1 792 0
	movl	-48(%rbp), %edx	# sreg, D.23270
	movq	-24(%rbp), %rax	# cfi, tmp78
	movq	%rdx, 24(%rax)	# D.23270, cfi_2->dw_cfi_oprnd2.dw_cfi_reg_num
.L97:
	.loc 1 795 0
	movq	-24(%rbp), %rdx	# cfi, tmp79
	movq	-40(%rbp), %rax	# label, tmp80
	movq	%rdx, %rsi	# tmp79,
	movq	%rax, %rdi	# tmp80,
	call	add_fde_cfi	#
.L90:
	.loc 1 796 0
	addq	$56, %rsp	#,
	popq	%rbx	#
	popq	%rbp	#
	.cfi_def_cfa 7, 8
	ret
	.cfi_endproc
.LFE16:
	.size	reg_save, .-reg_save
	.globl	dwarf2out_window_save
	.type	dwarf2out_window_save, @function
dwarf2out_window_save:
.LFB17:
	.loc 1 808 0
	.cfi_startproc
	pushq	%rbp	#
	.cfi_def_cfa_offset 16
	.cfi_offset 6, -16
	movq	%rsp, %rbp	#,
	.cfi_def_cfa_register 6
	subq	$32, %rsp	#,
	movq	%rdi, -24(%rbp)	# label, label
	.loc 1 809 0
	call	new_cfi	#
	movq	%rax, -8(%rbp)	# tmp59, cfi
	.loc 1 811 0
	movq	-8(%rbp), %rax	# cfi, tmp60
	movl	$45, 8(%rax)	#, cfi_1->dw_cfi_opc
	.loc 1 812 0
	movq	-8(%rbp), %rdx	# cfi, tmp61
	movq	-24(%rbp), %rax	# label, tmp62
	movq	%rdx, %rsi	# tmp61,
	movq	%rax, %rdi	# tmp62,
	call	add_fde_cfi	#
	.loc 1 813 0
	leave
	.cfi_def_cfa 7, 8
	ret
	.cfi_endproc
.LFE17:
	.size	dwarf2out_window_save, .-dwarf2out_window_save
	.globl	dwarf2out_args_size
	.type	dwarf2out_args_size, @function
dwarf2out_args_size:
.LFB18:
	.loc 1 822 0
	.cfi_startproc
	pushq	%rbp	#
	.cfi_def_cfa_offset 16
	.cfi_offset 6, -16
	movq	%rsp, %rbp	#,
	.cfi_def_cfa_register 6
	subq	$32, %rsp	#,
	movq	%rdi, -24(%rbp)	# label, label
	movq	%rsi, -32(%rbp)	# size, size
	.loc 1 825 0
	movq	old_args_size(%rip), %rax	# old_args_size, old_args_size.26
	cmpq	%rax, -32(%rbp)	# old_args_size.26, size
	jne	.L102	#,
	.loc 1 826 0
	jmp	.L101	#
.L102:
	.loc 1 828 0
	movq	-32(%rbp), %rax	# size, tmp60
	movq	%rax, old_args_size(%rip)	# tmp60, old_args_size
	.loc 1 830 0
	call	new_cfi	#
	movq	%rax, -8(%rbp)	# tmp61, cfi
	.loc 1 831 0
	movq	-8(%rbp), %rax	# cfi, tmp62
	movl	$46, 8(%rax)	#, cfi_3->dw_cfi_opc
	.loc 1 832 0
	movq	-8(%rbp), %rax	# cfi, tmp63
	movq	-32(%rbp), %rdx	# size, tmp64
	movq	%rdx, 16(%rax)	# tmp64, cfi_3->dw_cfi_oprnd1.dw_cfi_offset
	.loc 1 833 0
	movq	-8(%rbp), %rdx	# cfi, tmp65
	movq	-24(%rbp), %rax	# label, tmp66
	movq	%rdx, %rsi	# tmp65,
	movq	%rax, %rdi	# tmp66,
	call	add_fde_cfi	#
.L101:
	.loc 1 834 0
	leave
	.cfi_def_cfa 7, 8
	ret
	.cfi_endproc
.LFE18:
	.size	dwarf2out_args_size, .-dwarf2out_args_size
	.globl	dwarf2out_reg_save
	.type	dwarf2out_reg_save, @function
dwarf2out_reg_save:
.LFB19:
	.loc 1 844 0
	.cfi_startproc
	pushq	%rbp	#
	.cfi_def_cfa_offset 16
	.cfi_offset 6, -16
	movq	%rsp, %rbp	#,
	.cfi_def_cfa_register 6
	subq	$32, %rsp	#,
	movq	%rdi, -8(%rbp)	# label, label
	movl	%esi, -12(%rbp)	# reg, reg
	movq	%rdx, -24(%rbp)	# offset, offset
	.loc 1 845 0
	movl	target_flags(%rip), %eax	# target_flags, target_flags.28
	andl	$33554432, %eax	#, D.23274
	testl	%eax, %eax	# D.23274
	je	.L105	#,
	.loc 1 845 0 is_stmt 0 discriminator 1
	movl	-12(%rbp), %eax	# reg, tmp64
	movl	dbx64_register_map(,%rax,4), %eax	# dbx64_register_map, D.23274
	jmp	.L106	#
.L105:
	.loc 1 845 0 discriminator 2
	movl	-12(%rbp), %eax	# reg, tmp65
	movl	svr4_dbx_register_map(,%rax,4), %eax	# svr4_dbx_register_map, D.23274
.L106:
	.loc 1 845 0 discriminator 3
	movq	-24(%rbp), %rdx	# offset, tmp66
	movq	-8(%rbp), %rdi	# label, tmp67
	movq	%rdx, %rcx	# tmp66,
	movl	$-1, %edx	#,
	movl	%eax, %esi	# iftmp.27,
	call	reg_save	#
	.loc 1 846 0 is_stmt 1 discriminator 3
	leave
	.cfi_def_cfa 7, 8
	ret
	.cfi_endproc
.LFE19:
	.size	dwarf2out_reg_save, .-dwarf2out_reg_save
	.globl	dwarf2out_return_save
	.type	dwarf2out_return_save, @function
dwarf2out_return_save:
.LFB20:
	.loc 1 855 0
	.cfi_startproc
	pushq	%rbp	#
	.cfi_def_cfa_offset 16
	.cfi_offset 6, -16
	movq	%rsp, %rbp	#,
	.cfi_def_cfa_register 6
	subq	$16, %rsp	#,
	movq	%rdi, -8(%rbp)	# label, label
	movq	%rsi, -16(%rbp)	# offset, offset
	.loc 1 856 0
	movl	target_flags(%rip), %eax	# target_flags, target_flags.30
	andl	$33554432, %eax	#, D.23275
	testl	%eax, %eax	# D.23275
	je	.L108	#,
	.loc 1 856 0 is_stmt 0 discriminator 1
	movl	$16, %eax	#, iftmp.29
	jmp	.L109	#
.L108:
	.loc 1 856 0 discriminator 2
	movl	$8, %eax	#, iftmp.29
.L109:
	.loc 1 856 0 discriminator 3
	movq	-16(%rbp), %rdx	# offset, tmp62
	movq	-8(%rbp), %rdi	# label, tmp63
	movq	%rdx, %rcx	# tmp62,
	movl	$-1, %edx	#,
	movl	%eax, %esi	# iftmp.29,
	call	reg_save	#
	.loc 1 857 0 is_stmt 1 discriminator 3
	leave
	.cfi_def_cfa 7, 8
	ret
	.cfi_endproc
.LFE20:
	.size	dwarf2out_return_save, .-dwarf2out_return_save
	.globl	dwarf2out_return_reg
	.type	dwarf2out_return_reg, @function
dwarf2out_return_reg:
.LFB21:
	.loc 1 866 0
	.cfi_startproc
	pushq	%rbp	#
	.cfi_def_cfa_offset 16
	.cfi_offset 6, -16
	movq	%rsp, %rbp	#,
	.cfi_def_cfa_register 6
	subq	$16, %rsp	#,
	movq	%rdi, -8(%rbp)	# label, label
	movl	%esi, -12(%rbp)	# sreg, sreg
	.loc 1 867 0
	movl	target_flags(%rip), %eax	# target_flags, target_flags.32
	andl	$33554432, %eax	#, D.23276
	testl	%eax, %eax	# D.23276
	je	.L111	#,
	.loc 1 867 0 is_stmt 0 discriminator 1
	movl	$16, %eax	#, iftmp.31
	jmp	.L112	#
.L111:
	.loc 1 867 0 discriminator 2
	movl	$8, %eax	#, iftmp.31
.L112:
	.loc 1 867 0 discriminator 3
	movl	-12(%rbp), %edx	# sreg, tmp62
	movq	-8(%rbp), %rdi	# label, tmp63
	movl	$0, %ecx	#,
	movl	%eax, %esi	# iftmp.31,
	call	reg_save	#
	.loc 1 868 0 is_stmt 1 discriminator 3
	leave
	.cfi_def_cfa 7, 8
	ret
	.cfi_endproc
.LFE21:
	.size	dwarf2out_return_reg, .-dwarf2out_return_reg
	.section	.rodata
.LC32:
	.string	"dwarf2out.c"
	.text
	.type	initial_return_save, @function
initial_return_save:
.LFB22:
	.loc 1 876 0
	.cfi_startproc
	pushq	%rbp	#
	.cfi_def_cfa_offset 16
	.cfi_offset 6, -16
	movq	%rsp, %rbp	#,
	.cfi_def_cfa_register 6
	subq	$32, %rsp	#,
	movq	%rdi, -24(%rbp)	# rtl, rtl
	.loc 1 877 0
	movl	$-1, -12(%rbp)	#, reg
	.loc 1 878 0
	movq	$0, -8(%rbp)	#, offset
	.loc 1 880 0
	movq	-24(%rbp), %rax	# rtl, tmp86
	movzwl	(%rax), %eax	# rtl_8(D)->code, D.23277
	movzwl	%ax, %eax	# D.23277, D.23278
	cmpl	$66, %eax	#, D.23278
	je	.L115	#,
	cmpl	$75, %eax	#, D.23278
	je	.L116	#,
	cmpl	$61, %eax	#, D.23278
	jne	.L133	#,
	.loc 1 884 0
	movl	target_flags(%rip), %eax	# target_flags, target_flags.34
	andl	$33554432, %eax	#, D.23279
	testl	%eax, %eax	# D.23279
	je	.L118	#,
	.loc 1 884 0 is_stmt 0 discriminator 1
	movq	-24(%rbp), %rax	# rtl, tmp87
	movl	8(%rax), %eax	# rtl_8(D)->fld[0].rtuint, D.23278
	movl	%eax, %eax	# D.23278, tmp88
	movl	dbx64_register_map(,%rax,4), %eax	# dbx64_register_map, D.23279
	jmp	.L119	#
.L118:
	.loc 1 884 0 discriminator 2
	movq	-24(%rbp), %rax	# rtl, tmp89
	movl	8(%rax), %eax	# rtl_8(D)->fld[0].rtuint, D.23278
	movl	%eax, %eax	# D.23278, tmp90
	movl	svr4_dbx_register_map(,%rax,4), %eax	# svr4_dbx_register_map, D.23279
.L119:
	.loc 1 884 0 discriminator 3
	movl	%eax, -12(%rbp)	# iftmp.33, reg
	.loc 1 885 0 is_stmt 1 discriminator 3
	jmp	.L120	#
.L115:
	.loc 1 889 0
	movq	-24(%rbp), %rax	# rtl, tmp91
	movq	8(%rax), %rax	# rtl_8(D)->fld[0].rtx, tmp92
	movq	%rax, -24(%rbp)	# tmp92, rtl
	.loc 1 890 0
	movq	-24(%rbp), %rax	# rtl, tmp93
	movzwl	(%rax), %eax	# rtl_20->code, D.23277
	movzwl	%ax, %eax	# D.23277, D.23278
	cmpl	$75, %eax	#, D.23278
	je	.L122	#,
	cmpl	$76, %eax	#, D.23278
	je	.L123	#,
	cmpl	$61, %eax	#, D.23278
	jne	.L134	#,
	.loc 1 893 0
	movq	-24(%rbp), %rax	# rtl, tmp94
	movl	8(%rax), %eax	# rtl_20->fld[0].rtuint, D.23278
	cmpl	$7, %eax	#, D.23278
	je	.L125	#,
	.loc 1 894 0
	movl	$__FUNCTION__.13995, %edx	#,
	movl	$894, %esi	#,
	movl	$.LC32, %edi	#,
	call	fancy_abort	#
.L125:
	.loc 1 895 0
	movq	$0, -8(%rbp)	#, offset
	.loc 1 896 0
	jmp	.L126	#
.L122:
	.loc 1 899 0
	movq	-24(%rbp), %rax	# rtl, tmp95
	movq	8(%rax), %rax	# rtl_20->fld[0].rtx, D.23280
	movl	8(%rax), %eax	# _25->fld[0].rtuint, D.23278
	cmpl	$7, %eax	#, D.23278
	je	.L127	#,
	.loc 1 900 0
	movl	$__FUNCTION__.13995, %edx	#,
	movl	$900, %esi	#,
	movl	$.LC32, %edi	#,
	call	fancy_abort	#
.L127:
	.loc 1 901 0
	movq	-24(%rbp), %rax	# rtl, tmp96
	movq	16(%rax), %rax	# rtl_20->fld[1].rtx, D.23280
	movq	8(%rax), %rax	# _27->fld[0].rtwint, tmp97
	movq	%rax, -8(%rbp)	# tmp97, offset
	.loc 1 902 0
	jmp	.L126	#
.L123:
	.loc 1 905 0
	movq	-24(%rbp), %rax	# rtl, tmp98
	movq	8(%rax), %rax	# rtl_20->fld[0].rtx, D.23280
	movl	8(%rax), %eax	# _29->fld[0].rtuint, D.23278
	cmpl	$7, %eax	#, D.23278
	je	.L128	#,
	.loc 1 906 0
	movl	$__FUNCTION__.13995, %edx	#,
	movl	$906, %esi	#,
	movl	$.LC32, %edi	#,
	call	fancy_abort	#
.L128:
	.loc 1 907 0
	movq	-24(%rbp), %rax	# rtl, tmp99
	movq	16(%rax), %rax	# rtl_20->fld[1].rtx, D.23280
	movq	8(%rax), %rax	# _31->fld[0].rtwint, D.23281
	negq	%rax	# tmp100
	movq	%rax, -8(%rbp)	# tmp100, offset
	.loc 1 908 0
	jmp	.L126	#
.L134:
	.loc 1 911 0
	movl	$__FUNCTION__.13995, %edx	#,
	movl	$911, %esi	#,
	movl	$.LC32, %edi	#,
	call	fancy_abort	#
.L126:
	.loc 1 914 0
	jmp	.L120	#
.L116:
	.loc 1 920 0
	movq	-24(%rbp), %rax	# rtl, tmp101
	movq	16(%rax), %rax	# rtl_8(D)->fld[1].rtx, D.23280
	movzwl	(%rax), %eax	# _34->code, D.23277
	cmpw	$54, %ax	#, D.23277
	je	.L129	#,
	.loc 1 921 0
	movl	$__FUNCTION__.13995, %edx	#,
	movl	$921, %esi	#,
	movl	$.LC32, %edi	#,
	call	fancy_abort	#
.L129:
	.loc 1 922 0
	movq	-24(%rbp), %rax	# rtl, tmp102
	movq	8(%rax), %rax	# rtl_8(D)->fld[0].rtx, D.23280
	movq	%rax, %rdi	# D.23280,
	call	initial_return_save	#
	.loc 1 923 0
	jmp	.L113	#
.L133:
	.loc 1 926 0
	movl	$__FUNCTION__.13995, %edx	#,
	movl	$926, %esi	#,
	movl	$.LC32, %edi	#,
	call	fancy_abort	#
.L120:
	.loc 1 929 0
	movq	cfa+8(%rip), %rax	# cfa.offset, D.23281
	movq	-8(%rbp), %rdx	# offset, tmp103
	movq	%rdx, %rcx	# tmp103, D.23281
	subq	%rax, %rcx	# D.23281, D.23281
	movl	target_flags(%rip), %eax	# target_flags, target_flags.36
	andl	$33554432, %eax	#, D.23279
	testl	%eax, %eax	# D.23279
	je	.L131	#,
	.loc 1 929 0 is_stmt 0 discriminator 1
	movl	$16, %eax	#, iftmp.35
	jmp	.L132	#
.L131:
	.loc 1 929 0 discriminator 2
	movl	$8, %eax	#, iftmp.35
.L132:
	.loc 1 929 0 discriminator 3
	movl	-12(%rbp), %edx	# reg, tmp104
	movl	%eax, %esi	# iftmp.35,
	movl	$0, %edi	#,
	call	reg_save	#
.L113:
	.loc 1 930 0 is_stmt 1
	leave
	.cfi_def_cfa 7, 8
	ret
	.cfi_endproc
.LFE22:
	.size	initial_return_save, .-initial_return_save
	.type	stack_adjust_offset, @function
stack_adjust_offset:
.LFB23:
	.loc 1 938 0
	.cfi_startproc
	pushq	%rbp	#
	.cfi_def_cfa_offset 16
	.cfi_offset 6, -16
	movq	%rsp, %rbp	#,
	.cfi_def_cfa_register 6
	subq	$64, %rsp	#,
	movq	%rdi, -56(%rbp)	# pattern, pattern
	.loc 1 939 0
	movq	-56(%rbp), %rax	# pattern, tmp80
	movq	16(%rax), %rax	# pattern_6(D)->fld[1].rtx, tmp81
	movq	%rax, -24(%rbp)	# tmp81, src
	.loc 1 940 0
	movq	-56(%rbp), %rax	# pattern, tmp82
	movq	8(%rax), %rax	# pattern_6(D)->fld[0].rtx, tmp83
	movq	%rax, -16(%rbp)	# tmp83, dest
	.loc 1 941 0
	movq	$0, -32(%rbp)	#, offset
	.loc 1 944 0
	movq	global_rtl+16(%rip), %rax	# global_rtl, D.23284
	cmpq	-16(%rbp), %rax	# dest, D.23284
	jne	.L136	#,
	.loc 1 947 0
	movq	-24(%rbp), %rax	# src, tmp84
	movzwl	(%rax), %eax	# src_7->code, D.23285
	movzwl	%ax, %eax	# D.23285, tmp85
	movl	%eax, -36(%rbp)	# tmp85, code
	.loc 1 948 0
	cmpl	$75, -36(%rbp)	#, code
	je	.L137	#,
	.loc 1 948 0 is_stmt 0 discriminator 1
	cmpl	$76, -36(%rbp)	#, code
	jne	.L138	#,
.L137:
	.loc 1 949 0 is_stmt 1
	movq	-24(%rbp), %rax	# src, tmp86
	movq	8(%rax), %rdx	# src_7->fld[0].rtx, D.23284
	movq	global_rtl+16(%rip), %rax	# global_rtl, D.23284
	cmpq	%rax, %rdx	# D.23284, D.23284
	jne	.L138	#,
	.loc 1 950 0
	movq	-24(%rbp), %rax	# src, tmp87
	movq	16(%rax), %rax	# src_7->fld[1].rtx, D.23284
	movzwl	(%rax), %eax	# _15->code, D.23285
	cmpw	$54, %ax	#, D.23285
	je	.L139	#,
.L138:
	.loc 1 951 0
	movl	$0, %eax	#, D.23283
	jmp	.L140	#
.L139:
	.loc 1 953 0
	movq	-24(%rbp), %rax	# src, tmp88
	movq	16(%rax), %rax	# src_7->fld[1].rtx, D.23284
	movq	8(%rax), %rax	# _17->fld[0].rtwint, tmp89
	movq	%rax, -32(%rbp)	# tmp89, offset
	jmp	.L141	#
.L136:
	.loc 1 955 0
	movq	-16(%rbp), %rax	# dest, tmp90
	movzwl	(%rax), %eax	# dest_8->code, D.23285
	cmpw	$66, %ax	#, D.23285
	jne	.L142	#,
	.loc 1 958 0
	movq	-16(%rbp), %rax	# dest, tmp91
	movq	8(%rax), %rax	# dest_8->fld[0].rtx, tmp92
	movq	%rax, -24(%rbp)	# tmp92, src
	.loc 1 959 0
	movq	-24(%rbp), %rax	# src, tmp93
	movzwl	(%rax), %eax	# src_21->code, D.23285
	movzwl	%ax, %eax	# D.23285, tmp94
	movl	%eax, -36(%rbp)	# tmp94, code
	.loc 1 961 0
	cmpl	$96, -36(%rbp)	#, code
	je	.L143	#,
	.loc 1 961 0 is_stmt 0 discriminator 1
	cmpl	$97, -36(%rbp)	#, code
	je	.L143	#,
	cmpl	$100, -36(%rbp)	#, code
	jne	.L144	#,
.L143:
	.loc 1 962 0 is_stmt 1
	movq	-24(%rbp), %rax	# src, tmp95
	movq	8(%rax), %rdx	# src_21->fld[0].rtx, D.23284
	movq	global_rtl+16(%rip), %rax	# global_rtl, D.23284
	cmpq	%rax, %rdx	# D.23284, D.23284
	je	.L145	#,
.L144:
	.loc 1 963 0
	movl	$0, %eax	#, D.23283
	jmp	.L140	#
.L145:
	.loc 1 965 0
	cmpl	$100, -36(%rbp)	#, code
	jne	.L146	#,
.LBB7:
	.loc 1 967 0
	movq	-24(%rbp), %rax	# src, tmp96
	movq	16(%rax), %rax	# src_21->fld[1].rtx, D.23284
	movq	16(%rax), %rax	# _26->fld[1].rtx, tmp97
	movq	%rax, -8(%rbp)	# tmp97, val
	.loc 1 970 0
	movq	-24(%rbp), %rax	# src, tmp98
	movq	16(%rax), %rax	# src_21->fld[1].rtx, D.23284
	movzwl	(%rax), %eax	# _28->code, D.23285
	cmpw	$75, %ax	#, D.23285
	jne	.L147	#,
	.loc 1 971 0 discriminator 1
	movq	-8(%rbp), %rax	# val, tmp99
	movzwl	(%rax), %eax	# val_27->code, D.23285
	.loc 1 970 0 discriminator 1
	cmpw	$54, %ax	#, D.23285
	je	.L148	#,
.L147:
	.loc 1 972 0
	movl	$__FUNCTION__.14010, %edx	#,
	movl	$972, %esi	#,
	movl	$.LC32, %edi	#,
	call	fancy_abort	#
.L148:
	.loc 1 974 0
	movq	-8(%rbp), %rax	# val, tmp100
	movq	8(%rax), %rax	# val_27->fld[0].rtwint, D.23283
	negq	%rax	# tmp101
	movq	%rax, -32(%rbp)	# tmp101, offset
.LBE7:
	jmp	.L141	#
.L146:
	.loc 1 977 0
	movq	-16(%rbp), %rax	# dest, tmp102
	movzbl	2(%rax), %eax	# dest_8->mode, D.23286
	movzbl	%al, %eax	# D.23286, D.23287
	cltq
	movzbl	mode_size(%rax), %eax	# mode_size, D.23286
	movzbl	%al, %eax	# D.23286, tmp104
	movq	%rax, -32(%rbp)	# tmp104, offset
	jmp	.L141	#
.L142:
	.loc 1 980 0
	movl	$0, %eax	#, D.23283
	jmp	.L140	#
.L141:
	.loc 1 982 0
	cmpl	$75, -36(%rbp)	#, code
	je	.L150	#,
	.loc 1 982 0 is_stmt 0 discriminator 1
	cmpl	$97, -36(%rbp)	#, code
	jne	.L151	#,
.L150:
	.loc 1 983 0 is_stmt 1
	negq	-32(%rbp)	# offset
.L151:
	.loc 1 985 0
	movq	-32(%rbp), %rax	# offset, D.23283
.L140:
	.loc 1 986 0
	leave
	.cfi_def_cfa 7, 8
	ret
	.cfi_endproc
.LFE23:
	.size	stack_adjust_offset, .-stack_adjust_offset
	.section	.rodata
.LC33:
	.string	""
	.text
	.type	dwarf2out_stack_adjust, @function
dwarf2out_stack_adjust:
.LFB24:
	.loc 1 995 0
	.cfi_startproc
	pushq	%rbp	#
	.cfi_def_cfa_offset 16
	.cfi_offset 6, -16
	movq	%rsp, %rbp	#,
	.cfi_def_cfa_register 6
	subq	$48, %rsp	#,
	movq	%rdi, -40(%rbp)	# insn, insn
	.loc 1 1000 0
	movl	flag_asynchronous_unwind_tables(%rip), %eax	# flag_asynchronous_unwind_tables, flag_asynchronous_unwind_tables.37
	testl	%eax, %eax	# flag_asynchronous_unwind_tables.37
	jne	.L153	#,
	.loc 1 1000 0 is_stmt 0 discriminator 1
	movq	-40(%rbp), %rax	# insn, tmp96
	movzwl	(%rax), %eax	# insn_8(D)->code, D.23288
	cmpw	$34, %ax	#, D.23288
	jne	.L153	#,
	.loc 1 1003 0 is_stmt 1
	movq	-40(%rbp), %rax	# insn, tmp97
	movq	32(%rax), %rax	# insn_8(D)->fld[3].rtx, tmp98
	movq	%rax, -40(%rbp)	# tmp98, insn
	.loc 1 1004 0
	movq	-40(%rbp), %rax	# insn, tmp99
	movzwl	(%rax), %eax	# insn_10->code, D.23288
	cmpw	$39, %ax	#, D.23288
	jne	.L154	#,
	.loc 1 1005 0
	movq	-40(%rbp), %rax	# insn, tmp100
	movq	8(%rax), %rax	# insn_10->fld[0].rtvec, D.23289
	movq	8(%rax), %rax	# _12->elem, tmp101
	movq	%rax, -40(%rbp)	# tmp101, insn
.L154:
	.loc 1 1006 0
	movq	-40(%rbp), %rax	# insn, tmp102
	movzwl	(%rax), %eax	# insn_1->code, D.23288
	cmpw	$47, %ax	#, D.23288
	jne	.L155	#,
	.loc 1 1007 0
	movq	-40(%rbp), %rax	# insn, tmp103
	movq	16(%rax), %rax	# insn_1->fld[1].rtx, tmp104
	movq	%rax, -40(%rbp)	# tmp104, insn
.L155:
	.loc 1 1008 0
	movq	-40(%rbp), %rax	# insn, tmp105
	movzwl	(%rax), %eax	# insn_2->code, D.23288
	cmpw	$50, %ax	#, D.23288
	je	.L156	#,
	.loc 1 1009 0
	movl	$__FUNCTION__.14017, %edx	#,
	movl	$1009, %esi	#,
	movl	$.LC32, %edi	#,
	call	fancy_abort	#
.L156:
	.loc 1 1011 0
	movq	-40(%rbp), %rax	# insn, tmp106
	movq	16(%rax), %rax	# insn_2->fld[1].rtx, D.23290
	movq	8(%rax), %rax	# _17->fld[0].rtwint, D.23291
	movq	%rax, %rsi	# D.23291,
	movl	$.LC33, %edi	#,
	call	dwarf2out_args_size	#
	.loc 1 1012 0
	jmp	.L152	#
.L153:
	.loc 1 1017 0
	movl	flag_asynchronous_unwind_tables(%rip), %eax	# flag_asynchronous_unwind_tables, flag_asynchronous_unwind_tables.38
	testl	%eax, %eax	# flag_asynchronous_unwind_tables.38
	jne	.L158	#,
	.loc 1 1017 0 is_stmt 0 discriminator 1
	movq	cfa(%rip), %rax	# cfa.reg, D.23292
	cmpq	$7, %rax	#, D.23292
	je	.L158	#,
	.loc 1 1018 0 is_stmt 1
	jmp	.L152	#
.L158:
	.loc 1 1020 0
	movq	-40(%rbp), %rax	# insn, tmp107
	movzwl	(%rax), %eax	# insn_8(D)->code, D.23288
	cmpw	$35, %ax	#, D.23288
	jne	.L159	#,
	.loc 1 1026 0
	movq	args_size(%rip), %rax	# args_size, args_size.39
	negq	%rax	# tmp108
	movq	%rax, -16(%rbp)	# tmp108, offset
	jmp	.L160	#
.L159:
	.loc 1 1031 0
	movq	-40(%rbp), %rax	# insn, tmp109
	movq	32(%rax), %rax	# insn_8(D)->fld[3].rtx, D.23290
	movzwl	(%rax), %eax	# _24->code, D.23288
	cmpw	$47, %ax	#, D.23288
	jne	.L161	#,
	.loc 1 1032 0
	movq	-40(%rbp), %rax	# insn, tmp110
	movq	32(%rax), %rax	# insn_8(D)->fld[3].rtx, D.23290
	movq	%rax, %rdi	# D.23290,
	call	stack_adjust_offset	#
	movq	%rax, -16(%rbp)	# tmp111, offset
	jmp	.L160	#
.L161:
	.loc 1 1033 0
	movq	-40(%rbp), %rax	# insn, tmp112
	movq	32(%rax), %rax	# insn_8(D)->fld[3].rtx, D.23290
	movzwl	(%rax), %eax	# _28->code, D.23288
	cmpw	$39, %ax	#, D.23288
	je	.L162	#,
	.loc 1 1034 0
	movq	-40(%rbp), %rax	# insn, tmp113
	movq	32(%rax), %rax	# insn_8(D)->fld[3].rtx, D.23290
	movzwl	(%rax), %eax	# _30->code, D.23288
	cmpw	$24, %ax	#, D.23288
	jne	.L163	#,
.L162:
	.loc 1 1038 0
	movq	$0, -16(%rbp)	#, offset
	movq	-40(%rbp), %rax	# insn, tmp114
	movq	32(%rax), %rax	# insn_8(D)->fld[3].rtx, D.23290
	movq	8(%rax), %rax	# _33->fld[0].rtvec, D.23289
	movl	(%rax), %eax	# _34->num_elem, D.23293
	subl	$1, %eax	#, tmp115
	movl	%eax, -20(%rbp)	# tmp115, i
	jmp	.L164	#
.L166:
	.loc 1 1039 0
	movq	-40(%rbp), %rax	# insn, tmp116
	movq	32(%rax), %rax	# insn_8(D)->fld[3].rtx, D.23290
	movq	8(%rax), %rax	# _37->fld[0].rtvec, D.23289
	movl	-20(%rbp), %edx	# i, tmp118
	movslq	%edx, %rdx	# tmp118, tmp117
	movq	8(%rax,%rdx,8), %rax	# _38->elem, D.23290
	movzwl	(%rax), %eax	# _39->code, D.23288
	cmpw	$47, %ax	#, D.23288
	jne	.L165	#,
	.loc 1 1040 0
	movq	-40(%rbp), %rax	# insn, tmp119
	movq	32(%rax), %rax	# insn_8(D)->fld[3].rtx, D.23290
	movq	8(%rax), %rax	# _41->fld[0].rtvec, D.23289
	movl	-20(%rbp), %edx	# i, tmp121
	movslq	%edx, %rdx	# tmp121, tmp120
	movq	8(%rax,%rdx,8), %rax	# _42->elem, D.23290
	movq	%rax, %rdi	# D.23290,
	call	stack_adjust_offset	#
	addq	%rax, -16(%rbp)	# D.23291, offset
.L165:
	.loc 1 1038 0
	subl	$1, -20(%rbp)	#, i
.L164:
	.loc 1 1038 0 is_stmt 0 discriminator 1
	cmpl	$0, -20(%rbp)	#, i
	jns	.L166	#,
	.loc 1 1033 0 is_stmt 1
	jmp	.L160	#
.L163:
	.loc 1 1043 0
	jmp	.L152	#
.L160:
	.loc 1 1045 0
	cmpq	$0, -16(%rbp)	#, offset
	jne	.L167	#,
	.loc 1 1046 0
	jmp	.L152	#
.L167:
	.loc 1 1048 0
	movq	cfa(%rip), %rax	# cfa.reg, D.23292
	cmpq	$7, %rax	#, D.23292
	jne	.L168	#,
	.loc 1 1049 0
	movq	cfa+8(%rip), %rdx	# cfa.offset, D.23291
	movq	-16(%rbp), %rax	# offset, tmp122
	addq	%rdx, %rax	# D.23291, D.23291
	movq	%rax, cfa+8(%rip)	# D.23291, cfa.offset
.L168:
	.loc 1 1055 0
	movq	args_size(%rip), %rdx	# args_size, args_size.40
	movq	-16(%rbp), %rax	# offset, tmp123
	addq	%rdx, %rax	# args_size.40, args_size.41
	movq	%rax, args_size(%rip)	# args_size.41, args_size
	.loc 1 1056 0
	movq	args_size(%rip), %rax	# args_size, args_size.42
	testq	%rax, %rax	# args_size.42
	jns	.L169	#,
	.loc 1 1057 0
	movq	$0, args_size(%rip)	#, args_size
.L169:
	.loc 1 1059 0
	call	dwarf2out_cfi_label	#
	movq	%rax, -8(%rbp)	# tmp124, label
	.loc 1 1060 0
	movq	-8(%rbp), %rax	# label, tmp125
	movl	$cfa, %esi	#,
	movq	%rax, %rdi	# tmp125,
	call	def_cfa_1	#
	.loc 1 1061 0
	movq	args_size(%rip), %rdx	# args_size, args_size.43
	movq	-8(%rbp), %rax	# label, tmp126
	movq	%rdx, %rsi	# args_size.43,
	movq	%rax, %rdi	# tmp126,
	call	dwarf2out_args_size	#
.L152:
	.loc 1 1062 0
	leave
	.cfi_def_cfa 7, 8
	ret
	.cfi_endproc
.LFE24:
	.size	dwarf2out_stack_adjust, .-dwarf2out_stack_adjust
	.local	queued_reg_saves
	.comm	queued_reg_saves,8,8
	.local	last_reg_save_label
	.comm	last_reg_save_label,8,8
	.type	queue_reg_save, @function
queue_reg_save:
.LFB25:
	.loc 1 1083 0
	.cfi_startproc
	pushq	%rbp	#
	.cfi_def_cfa_offset 16
	.cfi_offset 6, -16
	movq	%rsp, %rbp	#,
	.cfi_def_cfa_register 6
	subq	$48, %rsp	#,
	movq	%rdi, -24(%rbp)	# label, label
	movq	%rsi, -32(%rbp)	# reg, reg
	movq	%rdx, -40(%rbp)	# offset, offset
	.loc 1 1084 0
	movl	$24, %edi	#,
	call	xmalloc	#
	movq	%rax, -8(%rbp)	# tmp60, q
	.loc 1 1086 0
	movq	queued_reg_saves(%rip), %rdx	# queued_reg_saves, queued_reg_saves.44
	movq	-8(%rbp), %rax	# q, tmp61
	movq	%rdx, (%rax)	# queued_reg_saves.44, q_1->next
	.loc 1 1087 0
	movq	-8(%rbp), %rax	# q, tmp62
	movq	-32(%rbp), %rdx	# reg, tmp63
	movq	%rdx, 8(%rax)	# tmp63, q_1->reg
	.loc 1 1088 0
	movq	-8(%rbp), %rax	# q, tmp64
	movq	-40(%rbp), %rdx	# offset, tmp65
	movq	%rdx, 16(%rax)	# tmp65, q_1->cfa_offset
	.loc 1 1089 0
	movq	-8(%rbp), %rax	# q, tmp66
	movq	%rax, queued_reg_saves(%rip)	# tmp66, queued_reg_saves
	.loc 1 1091 0
	movq	-24(%rbp), %rax	# label, tmp67
	movq	%rax, last_reg_save_label(%rip)	# tmp67, last_reg_save_label
	.loc 1 1092 0
	leave
	.cfi_def_cfa 7, 8
	ret
	.cfi_endproc
.LFE25:
	.size	queue_reg_save, .-queue_reg_save
	.type	flush_queued_reg_saves, @function
flush_queued_reg_saves:
.LFB26:
	.loc 1 1096 0
	.cfi_startproc
	pushq	%rbp	#
	.cfi_def_cfa_offset 16
	.cfi_offset 6, -16
	movq	%rsp, %rbp	#,
	.cfi_def_cfa_register 6
	subq	$16, %rsp	#,
	.loc 1 1099 0
	movq	queued_reg_saves(%rip), %rax	# queued_reg_saves, tmp63
	movq	%rax, -16(%rbp)	# tmp63, q
	jmp	.L172	#
.L173:
	.loc 1 1101 0 discriminator 2
	movq	-16(%rbp), %rax	# q, tmp64
	movq	16(%rax), %rdx	# q_1->cfa_offset, D.23295
	movq	-16(%rbp), %rax	# q, tmp65
	movq	8(%rax), %rax	# q_1->reg, D.23296
	movl	8(%rax), %ecx	# _4->fld[0].rtuint, D.23297
	movq	last_reg_save_label(%rip), %rax	# last_reg_save_label, last_reg_save_label.45
	movl	%ecx, %esi	# D.23297,
	movq	%rax, %rdi	# last_reg_save_label.45,
	call	dwarf2out_reg_save	#
	.loc 1 1102 0 discriminator 2
	movq	-16(%rbp), %rax	# q, tmp66
	movq	(%rax), %rax	# q_1->next, tmp67
	movq	%rax, -8(%rbp)	# tmp67, next
	.loc 1 1103 0 discriminator 2
	movq	-16(%rbp), %rax	# q, tmp68
	movq	%rax, %rdi	# tmp68,
	call	free	#
	.loc 1 1099 0 discriminator 2
	movq	-8(%rbp), %rax	# next, tmp69
	movq	%rax, -16(%rbp)	# tmp69, q
.L172:
	.loc 1 1099 0 is_stmt 0 discriminator 1
	cmpq	$0, -16(%rbp)	#, q
	jne	.L173	#,
	.loc 1 1106 0 is_stmt 1
	movq	$0, queued_reg_saves(%rip)	#, queued_reg_saves
	.loc 1 1107 0
	movq	$0, last_reg_save_label(%rip)	#, last_reg_save_label
	.loc 1 1108 0
	leave
	.cfi_def_cfa 7, 8
	ret
	.cfi_endproc
.LFE26:
	.size	flush_queued_reg_saves, .-flush_queued_reg_saves
	.type	clobbers_queued_reg_save, @function
clobbers_queued_reg_save:
.LFB27:
	.loc 1 1113 0
	.cfi_startproc
	pushq	%rbp	#
	.cfi_def_cfa_offset 16
	.cfi_offset 6, -16
	movq	%rsp, %rbp	#,
	.cfi_def_cfa_register 6
	subq	$32, %rsp	#,
	movq	%rdi, -24(%rbp)	# insn, insn
	.loc 1 1116 0
	movq	queued_reg_saves(%rip), %rax	# queued_reg_saves, tmp63
	movq	%rax, -8(%rbp)	# tmp63, q
	jmp	.L175	#
.L178:
	.loc 1 1117 0
	movq	-8(%rbp), %rax	# q, tmp64
	movq	8(%rax), %rax	# q_1->reg, D.23299
	movq	-24(%rbp), %rdx	# insn, tmp65
	movq	%rdx, %rsi	# tmp65,
	movq	%rax, %rdi	# D.23299,
	call	modified_in_p	#
	testl	%eax, %eax	# D.23300
	je	.L176	#,
	.loc 1 1118 0
	movl	$1, %eax	#, D.23298
	jmp	.L177	#
.L176:
	.loc 1 1116 0
	movq	-8(%rbp), %rax	# q, tmp66
	movq	(%rax), %rax	# q_1->next, tmp67
	movq	%rax, -8(%rbp)	# tmp67, q
.L175:
	.loc 1 1116 0 is_stmt 0 discriminator 1
	cmpq	$0, -8(%rbp)	#, q
	jne	.L178	#,
	.loc 1 1120 0 is_stmt 1
	movl	$0, %eax	#, D.23298
.L177:
	.loc 1 1121 0
	leave
	.cfi_def_cfa 7, 8
	ret
	.cfi_endproc
.LFE27:
	.size	clobbers_queued_reg_save, .-clobbers_queued_reg_save
	.local	cfa_temp
	.comm	cfa_temp,32,32
	.type	dwarf2out_frame_debug_expr, @function
dwarf2out_frame_debug_expr:
.LFB28:
	.loc 1 1285 0
	.cfi_startproc
	pushq	%rbp	#
	.cfi_def_cfa_offset 16
	.cfi_offset 6, -16
	movq	%rsp, %rbp	#,
	.cfi_def_cfa_register 6
	subq	$64, %rsp	#,
	movq	%rdi, -56(%rbp)	# expr, expr
	movq	%rsi, -64(%rbp)	# label, label
	.loc 1 1294 0
	movq	-56(%rbp), %rax	# expr, tmp264
	movzwl	(%rax), %eax	# expr_11(D)->code, D.23301
	cmpw	$39, %ax	#, D.23301
	je	.L180	#,
	.loc 1 1294 0 is_stmt 0 discriminator 1
	movq	-56(%rbp), %rax	# expr, tmp265
	movzwl	(%rax), %eax	# expr_11(D)->code, D.23301
	cmpw	$24, %ax	#, D.23301
	jne	.L181	#,
.L180:
.LBB8:
	.loc 1 1297 0 is_stmt 1
	movq	-56(%rbp), %rax	# expr, tmp266
	movq	8(%rax), %rax	# expr_11(D)->fld[0].rtvec, D.23308
	movl	(%rax), %eax	# _230->num_elem, tmp267
	movl	%eax, -36(%rbp)	# tmp267, limit
	.loc 1 1299 0
	movl	$0, -40(%rbp)	#, par_index
	jmp	.L182	#
.L185:
	.loc 1 1300 0
	movq	-56(%rbp), %rax	# expr, tmp268
	movq	8(%rax), %rax	# expr_11(D)->fld[0].rtvec, D.23308
	movl	-40(%rbp), %edx	# par_index, tmp270
	movslq	%edx, %rdx	# tmp270, tmp269
	movq	8(%rax,%rdx,8), %rax	# _233->elem, D.23305
	movzwl	(%rax), %eax	# _234->code, D.23301
	cmpw	$47, %ax	#, D.23301
	jne	.L183	#,
	.loc 1 1301 0
	movq	-56(%rbp), %rax	# expr, tmp271
	movq	8(%rax), %rax	# expr_11(D)->fld[0].rtvec, D.23308
	movl	-40(%rbp), %edx	# par_index, tmp273
	movslq	%edx, %rdx	# tmp273, tmp272
	movq	8(%rax,%rdx,8), %rax	# _236->elem, D.23305
	movzbl	3(%rax), %eax	# *_237, D.23306
	andl	$-128, %eax	#, D.23306
	testb	%al, %al	# D.23306
	jne	.L184	#,
	.loc 1 1302 0
	cmpl	$0, -40(%rbp)	#, par_index
	jne	.L183	#,
.L184:
	.loc 1 1303 0
	movq	-56(%rbp), %rax	# expr, tmp274
	movq	8(%rax), %rax	# expr_11(D)->fld[0].rtvec, D.23308
	movl	-40(%rbp), %edx	# par_index, tmp276
	movslq	%edx, %rdx	# tmp276, tmp275
	movq	8(%rax,%rdx,8), %rax	# _240->elem, D.23305
	movq	-64(%rbp), %rdx	# label, tmp277
	movq	%rdx, %rsi	# tmp277,
	movq	%rax, %rdi	# D.23305,
	call	dwarf2out_frame_debug_expr	#
.L183:
	.loc 1 1299 0
	addl	$1, -40(%rbp)	#, par_index
.L182:
	.loc 1 1299 0 is_stmt 0 discriminator 1
	movl	-40(%rbp), %eax	# par_index, tmp278
	cmpl	-36(%rbp), %eax	# limit, tmp278
	jl	.L185	#,
	.loc 1 1305 0 is_stmt 1
	jmp	.L179	#
.L181:
.LBE8:
	.loc 1 1308 0
	movq	-56(%rbp), %rax	# expr, tmp279
	movzwl	(%rax), %eax	# expr_11(D)->code, D.23301
	cmpw	$47, %ax	#, D.23301
	je	.L187	#,
	.loc 1 1309 0
	movl	$__FUNCTION__.14060, %edx	#,
	movl	$1309, %esi	#,
	movl	$.LC32, %edi	#,
	call	fancy_abort	#
.L187:
	.loc 1 1311 0
	movq	-56(%rbp), %rax	# expr, tmp280
	movq	16(%rax), %rax	# expr_11(D)->fld[1].rtx, tmp281
	movq	%rax, -16(%rbp)	# tmp281, src
	.loc 1 1312 0
	movq	-56(%rbp), %rax	# expr, tmp282
	movq	8(%rax), %rax	# expr_11(D)->fld[0].rtx, tmp283
	movq	%rax, -8(%rbp)	# tmp283, dest
	.loc 1 1314 0
	movq	-8(%rbp), %rax	# dest, tmp284
	movzwl	(%rax), %eax	# dest_16->code, D.23301
	movzwl	%ax, %eax	# D.23301, D.23302
	cmpl	$61, %eax	#, D.23302
	je	.L189	#,
	cmpl	$66, %eax	#, D.23302
	je	.L190	#,
	jmp	.L255	#
.L189:
	.loc 1 1320 0
	movq	-16(%rbp), %rax	# src, tmp285
	movzwl	(%rax), %eax	# src_15->code, D.23301
	movzwl	%ax, %eax	# D.23301, D.23302
	cmpl	$76, %eax	#, D.23302
	ja	.L192	#,
	cmpl	$75, %eax	#, D.23302
	jae	.L193	#,
	cmpl	$54, %eax	#, D.23302
	je	.L194	#,
	cmpl	$61, %eax	#, D.23302
	je	.L195	#,
	jmp	.L191	#
.L192:
	cmpl	$134, %eax	#, D.23302
	je	.L257	#,
	cmpl	$135, %eax	#, D.23302
	je	.L193	#,
	cmpl	$84, %eax	#, D.23302
	je	.L197	#,
	jmp	.L191	#
.L195:
	.loc 1 1324 0
	movq	cfa(%rip), %rdx	# cfa.reg, D.23303
	movq	-16(%rbp), %rax	# src, tmp286
	movl	8(%rax), %eax	# src_15->fld[0].rtuint, D.23302
	movl	%eax, %eax	# D.23302, D.23303
	cmpq	%rax, %rdx	# D.23303, D.23303
	je	.L198	#,
	.loc 1 1328 0
	movl	$__FUNCTION__.14060, %edx	#,
	movl	$1328, %esi	#,
	movl	$.LC32, %edi	#,
	call	fancy_abort	#
.L198:
	.loc 1 1334 0
	movq	-8(%rbp), %rax	# dest, tmp287
	movl	8(%rax), %eax	# dest_16->fld[0].rtuint, D.23302
	movl	%eax, %eax	# D.23302, D.23303
	movq	%rax, cfa(%rip)	# D.23303, cfa.reg
	.loc 1 1335 0
	movq	cfa(%rip), %rax	# cfa.reg, D.23303
	movq	%rax, cfa_temp(%rip)	# D.23303, cfa_temp.reg
	.loc 1 1336 0
	movq	cfa+8(%rip), %rax	# cfa.offset, D.23304
	movq	%rax, cfa_temp+8(%rip)	# D.23304, cfa_temp.offset
	.loc 1 1337 0
	jmp	.L199	#
.L193:
	.loc 1 1342 0
	movq	global_rtl+16(%rip), %rax	# global_rtl, D.23305
	cmpq	-8(%rbp), %rax	# dest, D.23305
	jne	.L200	#,
	.loc 1 1346 0
	movq	-16(%rbp), %rax	# src, tmp288
	movq	16(%rax), %rax	# src_15->fld[1].rtx, D.23305
	movzwl	(%rax), %eax	# _29->code, D.23301
	movzwl	%ax, %eax	# D.23301, D.23302
	cmpl	$54, %eax	#, D.23302
	je	.L202	#,
	cmpl	$61, %eax	#, D.23302
	je	.L203	#,
	jmp	.L256	#
.L202:
	.loc 1 1349 0
	movq	-16(%rbp), %rax	# src, tmp289
	movq	16(%rax), %rax	# src_15->fld[1].rtx, D.23305
	movq	8(%rax), %rax	# _32->fld[0].rtwint, tmp290
	movq	%rax, -32(%rbp)	# tmp290, offset
	.loc 1 1350 0
	jmp	.L204	#
.L203:
	.loc 1 1352 0
	movq	-16(%rbp), %rax	# src, tmp291
	movq	16(%rax), %rax	# src_15->fld[1].rtx, D.23305
	movl	8(%rax), %eax	# _34->fld[0].rtuint, D.23302
	movl	%eax, %edx	# D.23302, D.23303
	movq	cfa_temp(%rip), %rax	# cfa_temp.reg, D.23303
	cmpq	%rax, %rdx	# D.23303, D.23303
	je	.L205	#,
	.loc 1 1353 0
	movl	$__FUNCTION__.14060, %edx	#,
	movl	$1353, %esi	#,
	movl	$.LC32, %edi	#,
	call	fancy_abort	#
.L205:
	.loc 1 1354 0
	movq	cfa_temp+8(%rip), %rax	# cfa_temp.offset, tmp292
	movq	%rax, -32(%rbp)	# tmp292, offset
	.loc 1 1355 0
	jmp	.L204	#
.L256:
	.loc 1 1357 0
	movl	$__FUNCTION__.14060, %edx	#,
	movl	$1357, %esi	#,
	movl	$.LC32, %edi	#,
	call	fancy_abort	#
.L204:
	.loc 1 1360 0
	movq	-16(%rbp), %rax	# src, tmp293
	movq	8(%rax), %rdx	# src_15->fld[0].rtx, D.23305
	movq	global_rtl+32(%rip), %rax	# global_rtl, D.23305
	cmpq	%rax, %rdx	# D.23305, D.23305
	jne	.L206	#,
	.loc 1 1363 0
	movq	cfa(%rip), %rax	# cfa.reg, D.23303
	cmpq	$6, %rax	#, D.23303
	je	.L207	#,
	.loc 1 1364 0
	movl	$__FUNCTION__.14060, %edx	#,
	movl	$1364, %esi	#,
	movl	$.LC32, %edi	#,
	call	fancy_abort	#
.L207:
	.loc 1 1365 0
	movq	$7, cfa(%rip)	#, cfa.reg
	jmp	.L208	#
.L206:
	.loc 1 1367 0
	movq	-16(%rbp), %rax	# src, tmp294
	movzwl	(%rax), %eax	# src_15->code, D.23301
	cmpw	$135, %ax	#, D.23301
	je	.L208	#,
	.loc 1 1370 0
	movq	-16(%rbp), %rax	# src, tmp295
	movq	8(%rax), %rdx	# src_15->fld[0].rtx, D.23305
	movq	global_rtl+16(%rip), %rax	# global_rtl, D.23305
	cmpq	%rax, %rdx	# D.23305, D.23305
	je	.L208	#,
	.loc 1 1371 0
	movl	$__FUNCTION__.14060, %edx	#,
	movl	$1371, %esi	#,
	movl	$.LC32, %edi	#,
	call	fancy_abort	#
.L208:
	.loc 1 1373 0
	movq	-16(%rbp), %rax	# src, tmp296
	movzwl	(%rax), %eax	# src_15->code, D.23301
	cmpw	$76, %ax	#, D.23301
	je	.L209	#,
	.loc 1 1374 0
	negq	-32(%rbp)	# offset
.L209:
	.loc 1 1375 0
	movq	cfa(%rip), %rax	# cfa.reg, D.23303
	cmpq	$7, %rax	#, D.23303
	jne	.L210	#,
	.loc 1 1376 0
	movq	cfa+8(%rip), %rdx	# cfa.offset, D.23304
	movq	-32(%rbp), %rax	# offset, tmp297
	addq	%rdx, %rax	# D.23304, D.23304
	movq	%rax, cfa+8(%rip)	# D.23304, cfa.offset
.L210:
	.loc 1 1377 0
	movq	cfa_store(%rip), %rax	# cfa_store.reg, D.23303
	cmpq	$7, %rax	#, D.23303
	jne	.L212	#,
	.loc 1 1378 0
	movq	cfa_store+8(%rip), %rdx	# cfa_store.offset, D.23304
	movq	-32(%rbp), %rax	# offset, tmp298
	addq	%rdx, %rax	# D.23304, D.23304
	movq	%rax, cfa_store+8(%rip)	# D.23304, cfa_store.offset
	.loc 1 1444 0
	jmp	.L199	#
.L200:
	.loc 1 1380 0
	movq	global_rtl+32(%rip), %rax	# global_rtl, D.23305
	cmpq	-8(%rbp), %rax	# dest, D.23305
	jne	.L213	#,
	.loc 1 1385 0
	movl	frame_pointer_needed(%rip), %eax	# frame_pointer_needed, frame_pointer_needed.46
	testl	%eax, %eax	# frame_pointer_needed.46
	jne	.L214	#,
	.loc 1 1386 0
	movl	$__FUNCTION__.14060, %edx	#,
	movl	$1386, %esi	#,
	movl	$.LC32, %edi	#,
	call	fancy_abort	#
.L214:
	.loc 1 1388 0
	movq	-16(%rbp), %rax	# src, tmp299
	movq	8(%rax), %rax	# src_15->fld[0].rtx, D.23305
	movzwl	(%rax), %eax	# _55->code, D.23301
	cmpw	$61, %ax	#, D.23301
	jne	.L215	#,
	.loc 1 1389 0
	movq	-16(%rbp), %rax	# src, tmp300
	movq	8(%rax), %rax	# src_15->fld[0].rtx, D.23305
	movl	8(%rax), %eax	# _57->fld[0].rtuint, D.23302
	movl	%eax, %edx	# D.23302, D.23303
	movq	cfa(%rip), %rax	# cfa.reg, D.23303
	cmpq	%rax, %rdx	# D.23303, D.23303
	jne	.L215	#,
	.loc 1 1390 0
	movq	-16(%rbp), %rax	# src, tmp301
	movq	16(%rax), %rax	# src_15->fld[1].rtx, D.23305
	movzwl	(%rax), %eax	# _61->code, D.23301
	cmpw	$54, %ax	#, D.23301
	jne	.L215	#,
	.loc 1 1392 0
	movq	-16(%rbp), %rax	# src, tmp302
	movq	16(%rax), %rax	# src_15->fld[1].rtx, D.23305
	movq	8(%rax), %rax	# _63->fld[0].rtwint, tmp303
	movq	%rax, -32(%rbp)	# tmp303, offset
	.loc 1 1393 0
	movq	-16(%rbp), %rax	# src, tmp304
	movzwl	(%rax), %eax	# src_15->code, D.23301
	cmpw	$76, %ax	#, D.23301
	je	.L216	#,
	.loc 1 1394 0
	negq	-32(%rbp)	# offset
.L216:
	.loc 1 1395 0
	movq	cfa+8(%rip), %rdx	# cfa.offset, D.23304
	movq	-32(%rbp), %rax	# offset, tmp305
	addq	%rdx, %rax	# D.23304, D.23304
	movq	%rax, cfa+8(%rip)	# D.23304, cfa.offset
	.loc 1 1396 0
	movq	$6, cfa(%rip)	#, cfa.reg
	jmp	.L212	#
.L215:
	.loc 1 1399 0
	movl	$__FUNCTION__.14060, %edx	#,
	movl	$1399, %esi	#,
	movl	$.LC32, %edi	#,
	call	fancy_abort	#
.L213:
	.loc 1 1403 0
	movq	-16(%rbp), %rax	# src, tmp306
	movzwl	(%rax), %eax	# src_15->code, D.23301
	cmpw	$76, %ax	#, D.23301
	jne	.L217	#,
	.loc 1 1404 0
	movl	$__FUNCTION__.14060, %edx	#,
	movl	$1404, %esi	#,
	movl	$.LC32, %edi	#,
	call	fancy_abort	#
.L217:
	.loc 1 1407 0
	movq	-16(%rbp), %rax	# src, tmp307
	movq	8(%rax), %rax	# src_15->fld[0].rtx, D.23305
	movzwl	(%rax), %eax	# _70->code, D.23301
	cmpw	$61, %ax	#, D.23301
	jne	.L218	#,
	.loc 1 1408 0
	movq	-16(%rbp), %rax	# src, tmp308
	movq	8(%rax), %rax	# src_15->fld[0].rtx, D.23305
	movl	8(%rax), %eax	# _72->fld[0].rtuint, D.23302
	movl	%eax, %edx	# D.23302, D.23303
	movq	cfa(%rip), %rax	# cfa.reg, D.23303
	cmpq	%rax, %rdx	# D.23303, D.23303
	jne	.L218	#,
	.loc 1 1409 0
	movq	-16(%rbp), %rax	# src, tmp309
	movq	16(%rax), %rax	# src_15->fld[1].rtx, D.23305
	movzwl	(%rax), %eax	# _76->code, D.23301
	cmpw	$54, %ax	#, D.23301
	jne	.L218	#,
	.loc 1 1413 0
	movq	-16(%rbp), %rax	# src, tmp310
	movq	16(%rax), %rax	# src_15->fld[1].rtx, D.23305
	movq	8(%rax), %rax	# _78->fld[0].rtwint, D.23304
	negq	%rax	# tmp311
	movq	%rax, -32(%rbp)	# tmp311, offset
	.loc 1 1414 0
	movq	cfa+8(%rip), %rdx	# cfa.offset, D.23304
	movq	-32(%rbp), %rax	# offset, tmp312
	addq	%rdx, %rax	# D.23304, D.23304
	movq	%rax, cfa+8(%rip)	# D.23304, cfa.offset
	.loc 1 1415 0
	movq	-8(%rbp), %rax	# dest, tmp313
	movl	8(%rax), %eax	# dest_16->fld[0].rtuint, D.23302
	movl	%eax, %eax	# D.23302, D.23303
	movq	%rax, cfa(%rip)	# D.23303, cfa.reg
	.loc 1 1417 0
	movq	cfa(%rip), %rax	# cfa.reg, D.23303
	movq	%rax, cfa_temp(%rip)	# D.23303, cfa_temp.reg
	.loc 1 1418 0
	movq	cfa+8(%rip), %rax	# cfa.offset, D.23304
	movq	%rax, cfa_temp+8(%rip)	# D.23304, cfa_temp.offset
	jmp	.L212	#
.L218:
	.loc 1 1422 0
	movq	-16(%rbp), %rax	# src, tmp314
	movq	8(%rax), %rax	# src_15->fld[0].rtx, D.23305
	movzwl	(%rax), %eax	# _87->code, D.23301
	cmpw	$61, %ax	#, D.23301
	jne	.L219	#,
	.loc 1 1423 0
	movq	-16(%rbp), %rax	# src, tmp315
	movq	8(%rax), %rax	# src_15->fld[0].rtx, D.23305
	movl	8(%rax), %eax	# _89->fld[0].rtuint, D.23302
	movl	%eax, %edx	# D.23302, D.23303
	movq	cfa_temp(%rip), %rax	# cfa_temp.reg, D.23303
	cmpq	%rax, %rdx	# D.23303, D.23303
	jne	.L219	#,
	.loc 1 1424 0
	movq	-16(%rbp), %rax	# src, tmp316
	movq	16(%rax), %rdx	# src_15->fld[1].rtx, D.23305
	movq	global_rtl+16(%rip), %rax	# global_rtl, D.23305
	cmpq	%rax, %rdx	# D.23305, D.23305
	jne	.L219	#,
	.loc 1 1428 0
	movq	cfa(%rip), %rax	# cfa.reg, D.23303
	cmpq	$7, %rax	#, D.23303
	je	.L220	#,
	.loc 1 1429 0
	movl	$__FUNCTION__.14060, %edx	#,
	movl	$1429, %esi	#,
	movl	$.LC32, %edi	#,
	call	fancy_abort	#
.L220:
	.loc 1 1430 0
	movq	-8(%rbp), %rax	# dest, tmp317
	movl	8(%rax), %eax	# dest_16->fld[0].rtuint, D.23302
	movl	%eax, %eax	# D.23302, D.23303
	movq	%rax, cfa_store(%rip)	# D.23303, cfa_store.reg
	.loc 1 1431 0
	movq	cfa+8(%rip), %rdx	# cfa.offset, D.23304
	movq	cfa_temp+8(%rip), %rax	# cfa_temp.offset, D.23304
	subq	%rax, %rdx	# D.23304, D.23304
	movq	%rdx, %rax	# D.23304, D.23304
	movq	%rax, cfa_store+8(%rip)	# D.23304, cfa_store.offset
	jmp	.L212	#
.L219:
	.loc 1 1435 0
	movq	-16(%rbp), %rax	# src, tmp318
	movzwl	(%rax), %eax	# src_15->code, D.23301
	cmpw	$135, %ax	#, D.23301
	jne	.L221	#,
	.loc 1 1436 0
	movq	-16(%rbp), %rax	# src, tmp319
	movq	16(%rax), %rax	# src_15->fld[1].rtx, D.23305
	movzwl	(%rax), %eax	# _102->code, D.23301
	cmpw	$54, %ax	#, D.23301
	jne	.L221	#,
	.loc 1 1438 0
	movq	-8(%rbp), %rax	# dest, tmp320
	movl	8(%rax), %eax	# dest_16->fld[0].rtuint, D.23302
	movl	%eax, %eax	# D.23302, D.23303
	movq	%rax, cfa_temp(%rip)	# D.23303, cfa_temp.reg
	.loc 1 1439 0
	movq	-16(%rbp), %rax	# src, tmp321
	movq	16(%rax), %rax	# src_15->fld[1].rtx, D.23305
	movq	8(%rax), %rax	# _106->fld[0].rtwint, D.23304
	movq	%rax, cfa_temp+8(%rip)	# D.23304, cfa_temp.offset
	jmp	.L212	#
.L221:
	.loc 1 1442 0
	movl	$__FUNCTION__.14060, %edx	#,
	movl	$1442, %esi	#,
	movl	$.LC32, %edi	#,
	call	fancy_abort	#
.L212:
	.loc 1 1444 0
	jmp	.L199	#
.L194:
	.loc 1 1448 0
	movq	-8(%rbp), %rax	# dest, tmp322
	movl	8(%rax), %eax	# dest_16->fld[0].rtuint, D.23302
	movl	%eax, %eax	# D.23302, D.23303
	movq	%rax, cfa_temp(%rip)	# D.23303, cfa_temp.reg
	.loc 1 1449 0
	movq	-16(%rbp), %rax	# src, tmp323
	movq	8(%rax), %rax	# src_15->fld[0].rtwint, D.23304
	movq	%rax, cfa_temp+8(%rip)	# D.23304, cfa_temp.offset
	.loc 1 1450 0
	jmp	.L199	#
.L197:
	.loc 1 1454 0
	movq	-16(%rbp), %rax	# src, tmp324
	movq	8(%rax), %rax	# src_15->fld[0].rtx, D.23305
	movzwl	(%rax), %eax	# _111->code, D.23301
	cmpw	$61, %ax	#, D.23301
	jne	.L222	#,
	.loc 1 1455 0
	movq	-16(%rbp), %rax	# src, tmp325
	movq	8(%rax), %rax	# src_15->fld[0].rtx, D.23305
	movl	8(%rax), %eax	# _113->fld[0].rtuint, D.23302
	movl	%eax, %edx	# D.23302, D.23303
	movq	cfa_temp(%rip), %rax	# cfa_temp.reg, D.23303
	cmpq	%rax, %rdx	# D.23303, D.23303
	jne	.L222	#,
	.loc 1 1456 0
	movq	-16(%rbp), %rax	# src, tmp326
	movq	16(%rax), %rax	# src_15->fld[1].rtx, D.23305
	movzwl	(%rax), %eax	# _117->code, D.23301
	cmpw	$54, %ax	#, D.23301
	je	.L223	#,
.L222:
	.loc 1 1457 0
	movl	$__FUNCTION__.14060, %edx	#,
	movl	$1457, %esi	#,
	movl	$.LC32, %edi	#,
	call	fancy_abort	#
.L223:
	.loc 1 1459 0
	movq	-8(%rbp), %rax	# dest, tmp327
	movl	8(%rax), %eax	# dest_16->fld[0].rtuint, D.23302
	movl	%eax, %edx	# D.23302, D.23303
	movq	cfa_temp(%rip), %rax	# cfa_temp.reg, D.23303
	cmpq	%rax, %rdx	# D.23303, D.23303
	je	.L224	#,
	.loc 1 1460 0
	movq	-8(%rbp), %rax	# dest, tmp328
	movl	8(%rax), %eax	# dest_16->fld[0].rtuint, D.23302
	movl	%eax, %eax	# D.23302, D.23303
	movq	%rax, cfa_temp(%rip)	# D.23303, cfa_temp.reg
.L224:
	.loc 1 1461 0
	movq	cfa_temp+8(%rip), %rdx	# cfa_temp.offset, D.23304
	movq	-16(%rbp), %rax	# src, tmp329
	movq	16(%rax), %rax	# src_15->fld[1].rtx, D.23305
	movq	8(%rax), %rax	# _125->fld[0].rtwint, D.23304
	orq	%rdx, %rax	# D.23304, D.23304
	movq	%rax, cfa_temp+8(%rip)	# D.23304, cfa_temp.offset
	.loc 1 1462 0
	jmp	.L199	#
.L191:
	.loc 1 1471 0
	movl	$__FUNCTION__.14060, %edx	#,
	movl	$1471, %esi	#,
	movl	$.LC32, %edi	#,
	call	fancy_abort	#
.L257:
	.loc 1 1468 0
	nop
.L199:
	.loc 1 1474 0
	movq	-64(%rbp), %rax	# label, tmp330
	movl	$cfa, %esi	#,
	movq	%rax, %rdi	# tmp330,
	call	def_cfa_1	#
	.loc 1 1475 0
	jmp	.L179	#
.L190:
	.loc 1 1478 0
	movq	-16(%rbp), %rax	# src, tmp331
	movzwl	(%rax), %eax	# src_15->code, D.23301
	cmpw	$61, %ax	#, D.23301
	je	.L225	#,
	.loc 1 1479 0
	movl	$__FUNCTION__.14060, %edx	#,
	movl	$1479, %esi	#,
	movl	$.LC32, %edi	#,
	call	fancy_abort	#
.L225:
	.loc 1 1483 0
	movq	-8(%rbp), %rax	# dest, tmp332
	movq	8(%rax), %rax	# dest_16->fld[0].rtx, D.23305
	movzwl	(%rax), %eax	# _130->code, D.23301
	movzwl	%ax, %eax	# D.23301, D.23302
	subl	$61, %eax	#, tmp333
	cmpl	$74, %eax	#, tmp333
	ja	.L226	#,
	movl	%eax, %eax	# tmp333, tmp334
	movq	.L228(,%rax,8), %rax	#, tmp335
	jmp	*%rax	# tmp335
	.section	.rodata
	.align 8
	.align 4
.L228:
	.quad	.L227
	.quad	.L226
	.quad	.L226
	.quad	.L226
	.quad	.L226
	.quad	.L226
	.quad	.L226
	.quad	.L226
	.quad	.L226
	.quad	.L226
	.quad	.L226
	.quad	.L226
	.quad	.L226
	.quad	.L226
	.quad	.L229
	.quad	.L229
	.quad	.L226
	.quad	.L226
	.quad	.L226
	.quad	.L226
	.quad	.L226
	.quad	.L226
	.quad	.L226
	.quad	.L226
	.quad	.L226
	.quad	.L226
	.quad	.L226
	.quad	.L226
	.quad	.L226
	.quad	.L226
	.quad	.L226
	.quad	.L226
	.quad	.L226
	.quad	.L226
	.quad	.L226
	.quad	.L230
	.quad	.L230
	.quad	.L226
	.quad	.L231
	.quad	.L232
	.quad	.L226
	.quad	.L226
	.quad	.L226
	.quad	.L226
	.quad	.L226
	.quad	.L226
	.quad	.L226
	.quad	.L226
	.quad	.L226
	.quad	.L226
	.quad	.L226
	.quad	.L226
	.quad	.L226
	.quad	.L226
	.quad	.L226
	.quad	.L226
	.quad	.L226
	.quad	.L226
	.quad	.L226
	.quad	.L226
	.quad	.L226
	.quad	.L226
	.quad	.L226
	.quad	.L226
	.quad	.L226
	.quad	.L226
	.quad	.L226
	.quad	.L226
	.quad	.L226
	.quad	.L226
	.quad	.L226
	.quad	.L226
	.quad	.L226
	.quad	.L226
	.quad	.L229
	.text
.L232:
	.loc 1 1489 0
	movq	-8(%rbp), %rax	# dest, tmp336
	movq	8(%rax), %rax	# dest_16->fld[0].rtx, D.23305
	movq	16(%rax), %rax	# _133->fld[1].rtx, D.23305
	movq	16(%rax), %rax	# _134->fld[1].rtx, D.23305
	movzwl	(%rax), %eax	# _135->code, D.23301
	cmpw	$54, %ax	#, D.23301
	je	.L233	#,
	.loc 1 1490 0
	movl	$__FUNCTION__.14060, %edx	#,
	movl	$1490, %esi	#,
	movl	$.LC32, %edi	#,
	call	fancy_abort	#
.L233:
	.loc 1 1491 0
	movq	-8(%rbp), %rax	# dest, tmp337
	movq	8(%rax), %rax	# dest_16->fld[0].rtx, D.23305
	movq	16(%rax), %rax	# _137->fld[1].rtx, D.23305
	movq	16(%rax), %rax	# _138->fld[1].rtx, D.23305
	movq	8(%rax), %rax	# _139->fld[0].rtwint, D.23304
	negq	%rax	# tmp338
	movq	%rax, -32(%rbp)	# tmp338, offset
	.loc 1 1493 0
	movq	-8(%rbp), %rax	# dest, tmp339
	movq	8(%rax), %rax	# dest_16->fld[0].rtx, D.23305
	movq	8(%rax), %rax	# _142->fld[0].rtx, D.23305
	movl	8(%rax), %eax	# _143->fld[0].rtuint, D.23302
	cmpl	$7, %eax	#, D.23302
	jne	.L234	#,
	.loc 1 1494 0
	movq	cfa_store(%rip), %rax	# cfa_store.reg, D.23303
	cmpq	$7, %rax	#, D.23303
	je	.L235	#,
.L234:
	.loc 1 1495 0
	movl	$__FUNCTION__.14060, %edx	#,
	movl	$1495, %esi	#,
	movl	$.LC32, %edi	#,
	call	fancy_abort	#
.L235:
	.loc 1 1497 0
	movq	cfa_store+8(%rip), %rdx	# cfa_store.offset, D.23304
	movq	-32(%rbp), %rax	# offset, tmp340
	addq	%rdx, %rax	# D.23304, D.23304
	movq	%rax, cfa_store+8(%rip)	# D.23304, cfa_store.offset
	.loc 1 1498 0
	movq	cfa(%rip), %rax	# cfa.reg, D.23303
	cmpq	$7, %rax	#, D.23303
	jne	.L236	#,
	.loc 1 1499 0
	movq	cfa_store+8(%rip), %rax	# cfa_store.offset, D.23304
	movq	%rax, cfa+8(%rip)	# D.23304, cfa.offset
.L236:
	.loc 1 1501 0
	movq	cfa_store+8(%rip), %rax	# cfa_store.offset, D.23304
	negq	%rax	# tmp341
	movq	%rax, -32(%rbp)	# tmp341, offset
	.loc 1 1502 0
	jmp	.L237	#
.L230:
	.loc 1 1507 0
	movq	-8(%rbp), %rax	# dest, tmp342
	movzbl	2(%rax), %eax	# dest_16->mode, D.23306
	movzbl	%al, %eax	# D.23306, D.23307
	cltq
	movzbl	mode_size(%rax), %eax	# mode_size, D.23306
	movzbl	%al, %eax	# D.23306, tmp344
	movq	%rax, -32(%rbp)	# tmp344, offset
	.loc 1 1508 0
	movq	-8(%rbp), %rax	# dest, tmp345
	movq	8(%rax), %rax	# dest_16->fld[0].rtx, D.23305
	movzwl	(%rax), %eax	# _156->code, D.23301
	cmpw	$97, %ax	#, D.23301
	jne	.L238	#,
	.loc 1 1509 0
	negq	-32(%rbp)	# offset
.L238:
	.loc 1 1511 0
	movq	-8(%rbp), %rax	# dest, tmp346
	movq	8(%rax), %rax	# dest_16->fld[0].rtx, D.23305
	movq	8(%rax), %rax	# _159->fld[0].rtx, D.23305
	movl	8(%rax), %eax	# _160->fld[0].rtuint, D.23302
	cmpl	$7, %eax	#, D.23302
	jne	.L239	#,
	.loc 1 1512 0
	movq	cfa_store(%rip), %rax	# cfa_store.reg, D.23303
	cmpq	$7, %rax	#, D.23303
	je	.L240	#,
.L239:
	.loc 1 1513 0
	movl	$__FUNCTION__.14060, %edx	#,
	movl	$1513, %esi	#,
	movl	$.LC32, %edi	#,
	call	fancy_abort	#
.L240:
	.loc 1 1515 0
	movq	cfa_store+8(%rip), %rdx	# cfa_store.offset, D.23304
	movq	-32(%rbp), %rax	# offset, tmp347
	addq	%rdx, %rax	# D.23304, D.23304
	movq	%rax, cfa_store+8(%rip)	# D.23304, cfa_store.offset
	.loc 1 1516 0
	movq	cfa(%rip), %rax	# cfa.reg, D.23303
	cmpq	$7, %rax	#, D.23303
	jne	.L241	#,
	.loc 1 1517 0
	movq	cfa_store+8(%rip), %rax	# cfa_store.offset, D.23304
	movq	%rax, cfa+8(%rip)	# D.23304, cfa.offset
.L241:
	.loc 1 1519 0
	movq	cfa_store+8(%rip), %rax	# cfa_store.offset, D.23304
	negq	%rax	# tmp348
	movq	%rax, -32(%rbp)	# tmp348, offset
	.loc 1 1520 0
	jmp	.L237	#
.L229:
	.loc 1 1527 0
	movq	-8(%rbp), %rax	# dest, tmp349
	movq	8(%rax), %rax	# dest_16->fld[0].rtx, D.23305
	movq	16(%rax), %rax	# _169->fld[1].rtx, D.23305
	movzwl	(%rax), %eax	# _170->code, D.23301
	cmpw	$54, %ax	#, D.23301
	je	.L242	#,
	.loc 1 1528 0
	movl	$__FUNCTION__.14060, %edx	#,
	movl	$1528, %esi	#,
	movl	$.LC32, %edi	#,
	call	fancy_abort	#
.L242:
	.loc 1 1529 0
	movq	-8(%rbp), %rax	# dest, tmp350
	movq	8(%rax), %rax	# dest_16->fld[0].rtx, D.23305
	movq	16(%rax), %rax	# _172->fld[1].rtx, D.23305
	movq	8(%rax), %rax	# _173->fld[0].rtwint, tmp351
	movq	%rax, -32(%rbp)	# tmp351, offset
	.loc 1 1530 0
	movq	-8(%rbp), %rax	# dest, tmp352
	movq	8(%rax), %rax	# dest_16->fld[0].rtx, D.23305
	movzwl	(%rax), %eax	# _175->code, D.23301
	cmpw	$76, %ax	#, D.23301
	jne	.L243	#,
	.loc 1 1531 0
	negq	-32(%rbp)	# offset
.L243:
	.loc 1 1533 0
	movq	cfa_store(%rip), %rdx	# cfa_store.reg, D.23303
	movq	-8(%rbp), %rax	# dest, tmp353
	movq	8(%rax), %rax	# dest_16->fld[0].rtx, D.23305
	movq	8(%rax), %rax	# _179->fld[0].rtx, D.23305
	movl	8(%rax), %eax	# _180->fld[0].rtuint, D.23302
	movl	%eax, %eax	# D.23302, D.23303
	cmpq	%rax, %rdx	# D.23303, D.23303
	jne	.L244	#,
	.loc 1 1534 0
	movq	cfa_store+8(%rip), %rax	# cfa_store.offset, D.23304
	subq	%rax, -32(%rbp)	# D.23304, offset
	jmp	.L245	#
.L244:
	.loc 1 1535 0
	movq	cfa_temp(%rip), %rdx	# cfa_temp.reg, D.23303
	movq	-8(%rbp), %rax	# dest, tmp354
	movq	8(%rax), %rax	# dest_16->fld[0].rtx, D.23305
	movq	8(%rax), %rax	# _186->fld[0].rtx, D.23305
	movl	8(%rax), %eax	# _187->fld[0].rtuint, D.23302
	movl	%eax, %eax	# D.23302, D.23303
	cmpq	%rax, %rdx	# D.23303, D.23303
	jne	.L246	#,
	.loc 1 1536 0
	movq	cfa_temp+8(%rip), %rax	# cfa_temp.offset, D.23304
	subq	%rax, -32(%rbp)	# D.23304, offset
	jmp	.L245	#
.L246:
	.loc 1 1538 0
	movl	$__FUNCTION__.14060, %edx	#,
	movl	$1538, %esi	#,
	movl	$.LC32, %edi	#,
	call	fancy_abort	#
.L245:
	.loc 1 1539 0
	jmp	.L237	#
.L227:
	.loc 1 1544 0
	movq	cfa_store(%rip), %rdx	# cfa_store.reg, D.23303
	movq	-8(%rbp), %rax	# dest, tmp355
	movq	8(%rax), %rax	# dest_16->fld[0].rtx, D.23305
	movl	8(%rax), %eax	# _193->fld[0].rtuint, D.23302
	movl	%eax, %eax	# D.23302, D.23303
	cmpq	%rax, %rdx	# D.23303, D.23303
	jne	.L247	#,
	.loc 1 1545 0
	movq	cfa_store+8(%rip), %rax	# cfa_store.offset, D.23304
	negq	%rax	# tmp356
	movq	%rax, -32(%rbp)	# tmp356, offset
	jmp	.L248	#
.L247:
	.loc 1 1546 0
	movq	cfa_temp(%rip), %rdx	# cfa_temp.reg, D.23303
	movq	-8(%rbp), %rax	# dest, tmp357
	movq	8(%rax), %rax	# dest_16->fld[0].rtx, D.23305
	movl	8(%rax), %eax	# _199->fld[0].rtuint, D.23302
	movl	%eax, %eax	# D.23302, D.23303
	cmpq	%rax, %rdx	# D.23303, D.23303
	jne	.L249	#,
	.loc 1 1547 0
	movq	cfa_temp+8(%rip), %rax	# cfa_temp.offset, D.23304
	negq	%rax	# tmp358
	movq	%rax, -32(%rbp)	# tmp358, offset
	jmp	.L248	#
.L249:
	.loc 1 1549 0
	movl	$__FUNCTION__.14060, %edx	#,
	movl	$1549, %esi	#,
	movl	$.LC32, %edi	#,
	call	fancy_abort	#
.L248:
	.loc 1 1550 0
	jmp	.L237	#
.L231:
	.loc 1 1554 0
	movq	cfa_temp(%rip), %rdx	# cfa_temp.reg, D.23303
	movq	-8(%rbp), %rax	# dest, tmp359
	movq	8(%rax), %rax	# dest_16->fld[0].rtx, D.23305
	movq	8(%rax), %rax	# _205->fld[0].rtx, D.23305
	movl	8(%rax), %eax	# _206->fld[0].rtuint, D.23302
	movl	%eax, %eax	# D.23302, D.23303
	cmpq	%rax, %rdx	# D.23303, D.23303
	je	.L250	#,
	.loc 1 1555 0
	movl	$__FUNCTION__.14060, %edx	#,
	movl	$1555, %esi	#,
	movl	$.LC32, %edi	#,
	call	fancy_abort	#
.L250:
	.loc 1 1556 0
	movq	cfa_temp+8(%rip), %rax	# cfa_temp.offset, D.23304
	negq	%rax	# tmp360
	movq	%rax, -32(%rbp)	# tmp360, offset
	.loc 1 1557 0
	movq	cfa_temp+8(%rip), %rdx	# cfa_temp.offset, D.23304
	movq	-8(%rbp), %rax	# dest, tmp361
	movzbl	2(%rax), %eax	# dest_16->mode, D.23306
	movzbl	%al, %eax	# D.23306, D.23307
	cltq
	movzbl	mode_size(%rax), %eax	# mode_size, D.23306
	movzbl	%al, %eax	# D.23306, D.23304
	subq	%rax, %rdx	# D.23304, D.23304
	movq	%rdx, %rax	# D.23304, D.23304
	movq	%rax, cfa_temp+8(%rip)	# D.23304, cfa_temp.offset
	.loc 1 1558 0
	jmp	.L237	#
.L226:
	.loc 1 1561 0
	movl	$__FUNCTION__.14060, %edx	#,
	movl	$1561, %esi	#,
	movl	$.LC32, %edi	#,
	call	fancy_abort	#
.L237:
	.loc 1 1564 0
	movq	-16(%rbp), %rax	# src, tmp363
	movl	8(%rax), %eax	# src_15->fld[0].rtuint, D.23302
	cmpl	$7, %eax	#, D.23302
	je	.L251	#,
	.loc 1 1565 0
	movq	-16(%rbp), %rax	# src, tmp364
	movl	8(%rax), %eax	# src_15->fld[0].rtuint, D.23302
	cmpl	$6, %eax	#, D.23302
	je	.L251	#,
	.loc 1 1566 0
	movq	-16(%rbp), %rax	# src, tmp365
	movl	8(%rax), %eax	# src_15->fld[0].rtuint, D.23302
	movl	%eax, %edx	# D.23302, D.23303
	movq	cfa(%rip), %rax	# cfa.reg, D.23303
	cmpq	%rax, %rdx	# D.23303, D.23303
	jne	.L251	#,
	.loc 1 1570 0
	movq	cfa+8(%rip), %rax	# cfa.offset, D.23304
	testq	%rax, %rax	# D.23304
	jne	.L252	#,
	.loc 1 1575 0
	movq	-64(%rbp), %rax	# label, tmp366
	movl	$cfa, %esi	#,
	movq	%rax, %rdi	# tmp366,
	call	def_cfa_1	#
	.loc 1 1576 0
	movq	global_rtl+16(%rip), %rcx	# global_rtl, D.23305
	movq	-32(%rbp), %rdx	# offset, tmp367
	movq	-64(%rbp), %rax	# label, tmp368
	movq	%rcx, %rsi	# D.23305,
	movq	%rax, %rdi	# tmp368,
	call	queue_reg_save	#
	.loc 1 1577 0
	jmp	.L179	#
.L252:
.LBB9:
	.loc 1 1583 0
	movq	-8(%rbp), %rax	# dest, tmp369
	movq	8(%rax), %rax	# dest_16->fld[0].rtx, tmp370
	movq	%rax, -24(%rbp)	# tmp370, x
	.loc 1 1585 0
	movq	-24(%rbp), %rax	# x, tmp371
	movzwl	(%rax), %eax	# x_224->code, D.23301
	cmpw	$61, %ax	#, D.23301
	je	.L253	#,
	.loc 1 1586 0
	movq	-24(%rbp), %rax	# x, tmp372
	movq	8(%rax), %rax	# x_224->fld[0].rtx, tmp373
	movq	%rax, -24(%rbp)	# tmp373, x
.L253:
	.loc 1 1587 0
	movq	-24(%rbp), %rax	# x, tmp374
	movzwl	(%rax), %eax	# x_10->code, D.23301
	cmpw	$61, %ax	#, D.23301
	je	.L254	#,
	.loc 1 1588 0
	movl	$__FUNCTION__.14060, %edx	#,
	movl	$1588, %esi	#,
	movl	$.LC32, %edi	#,
	call	fancy_abort	#
.L254:
	.loc 1 1590 0
	movq	-24(%rbp), %rax	# x, tmp375
	movl	8(%rax), %eax	# x_10->fld[0].rtuint, D.23302
	movl	%eax, %eax	# D.23302, D.23303
	movq	%rax, cfa(%rip)	# D.23303, cfa.reg
	.loc 1 1591 0
	movq	-32(%rbp), %rax	# offset, tmp376
	movq	%rax, cfa+16(%rip)	# tmp376, cfa.base_offset
	.loc 1 1592 0
	movl	$1, cfa+24(%rip)	#, cfa.indirect
	.loc 1 1593 0
	movq	-64(%rbp), %rax	# label, tmp377
	movl	$cfa, %esi	#,
	movq	%rax, %rdi	# tmp377,
	call	def_cfa_1	#
	.loc 1 1594 0
	jmp	.L179	#
.L251:
.LBE9:
	.loc 1 1598 0
	movq	-64(%rbp), %rax	# label, tmp378
	movl	$cfa, %esi	#,
	movq	%rax, %rdi	# tmp378,
	call	def_cfa_1	#
	.loc 1 1599 0
	movq	-32(%rbp), %rdx	# offset, tmp379
	movq	-16(%rbp), %rcx	# src, tmp380
	movq	-64(%rbp), %rax	# label, tmp381
	movq	%rcx, %rsi	# tmp380,
	movq	%rax, %rdi	# tmp381,
	call	queue_reg_save	#
	.loc 1 1600 0
	jmp	.L179	#
.L255:
	.loc 1 1603 0
	movl	$__FUNCTION__.14060, %edx	#,
	movl	$1603, %esi	#,
	movl	$.LC32, %edi	#,
	call	fancy_abort	#
.L179:
	.loc 1 1605 0
	leave
	.cfi_def_cfa 7, 8
	ret
	.cfi_endproc
.LFE28:
	.size	dwarf2out_frame_debug_expr, .-dwarf2out_frame_debug_expr
	.globl	dwarf2out_frame_debug
	.type	dwarf2out_frame_debug, @function
dwarf2out_frame_debug:
.LFB29:
	.loc 1 1614 0
	.cfi_startproc
	pushq	%rbp	#
	.cfi_def_cfa_offset 16
	.cfi_offset 6, -16
	movq	%rsp, %rbp	#,
	.cfi_def_cfa_register 6
	subq	$32, %rsp	#,
	movq	%rdi, -24(%rbp)	# insn, insn
	.loc 1 1618 0
	cmpq	$0, -24(%rbp)	#, insn
	jne	.L259	#,
	.loc 1 1621 0
	call	flush_queued_reg_saves	#
	.loc 1 1624 0
	movl	$cfa, %edi	#,
	call	lookup_cfa	#
	.loc 1 1625 0
	movq	cfa(%rip), %rdx	# cfa.reg, D.23310
	movl	target_flags(%rip), %eax	# target_flags, target_flags.48
	andl	$33554432, %eax	#, D.23311
	testl	%eax, %eax	# D.23311
	je	.L260	#,
	.loc 1 1625 0 is_stmt 0 discriminator 1
	movl	dbx64_register_map+28(%rip), %eax	# dbx64_register_map, D.23311
	cltq
	jmp	.L261	#
.L260:
	.loc 1 1625 0 discriminator 2
	movl	svr4_dbx_register_map+28(%rip), %eax	# svr4_dbx_register_map, D.23311
	cltq
.L261:
	.loc 1 1625 0 discriminator 3
	cmpq	%rax, %rdx	# iftmp.47, D.23310
	je	.L262	#,
	.loc 1 1626 0 is_stmt 1
	movl	$__FUNCTION__.14094, %edx	#,
	movl	$1626, %esi	#,
	movl	$.LC32, %edi	#,
	call	fancy_abort	#
.L262:
	.loc 1 1628 0
	movq	$7, cfa(%rip)	#, cfa.reg
	.loc 1 1629 0
	movq	cfa(%rip), %rax	# cfa, tmp73
	movq	%rax, cfa_store(%rip)	# tmp73, cfa_store
	movq	cfa+8(%rip), %rax	# cfa, tmp74
	movq	%rax, cfa_store+8(%rip)	# tmp74, cfa_store
	movq	cfa+16(%rip), %rax	# cfa, tmp75
	movq	%rax, cfa_store+16(%rip)	# tmp75, cfa_store
	movq	cfa+24(%rip), %rax	# cfa, tmp76
	movq	%rax, cfa_store+24(%rip)	# tmp76, cfa_store
	.loc 1 1630 0
	movq	$-1, cfa_temp(%rip)	#, cfa_temp.reg
	.loc 1 1631 0
	movq	$0, cfa_temp+8(%rip)	#, cfa_temp.offset
	.loc 1 1632 0
	jmp	.L258	#
.L259:
	.loc 1 1635 0
	movq	-24(%rbp), %rax	# insn, tmp77
	movzwl	(%rax), %eax	# insn_3(D)->code, D.23312
	cmpw	$32, %ax	#, D.23312
	jne	.L264	#,
	.loc 1 1635 0 is_stmt 0 discriminator 1
	movq	-24(%rbp), %rax	# insn, tmp78
	movq	%rax, %rdi	# tmp78,
	call	clobbers_queued_reg_save	#
	testb	%al, %al	# D.23313
	je	.L265	#,
.L264:
	.loc 1 1636 0 is_stmt 1
	call	flush_queued_reg_saves	#
.L265:
	.loc 1 1638 0
	movq	-24(%rbp), %rax	# insn, tmp79
	movzbl	3(%rax), %eax	# *insn_3(D), D.23314
	andl	$-128, %eax	#, D.23314
	testb	%al, %al	# D.23314
	jne	.L266	#,
	.loc 1 1640 0
	movl	target_flags(%rip), %eax	# target_flags, target_flags.49
	andl	$4096, %eax	#, D.23311
	testl	%eax, %eax	# D.23311
	jne	.L267	#,
	.loc 1 1641 0
	movq	-24(%rbp), %rax	# insn, tmp80
	movq	%rax, %rdi	# tmp80,
	call	dwarf2out_stack_adjust	#
	.loc 1 1643 0
	jmp	.L258	#
.L267:
	jmp	.L258	#
.L266:
	.loc 1 1646 0
	call	dwarf2out_cfi_label	#
	movq	%rax, -16(%rbp)	# tmp81, label
	.loc 1 1647 0
	movq	-24(%rbp), %rax	# insn, tmp82
	movl	$0, %edx	#,
	movl	$21, %esi	#,
	movq	%rax, %rdi	# tmp82,
	call	find_reg_note	#
	movq	%rax, -8(%rbp)	# tmp83, src
	.loc 1 1648 0
	cmpq	$0, -8(%rbp)	#, src
	je	.L268	#,
	.loc 1 1649 0
	movq	-8(%rbp), %rax	# src, tmp84
	movq	8(%rax), %rax	# src_18->fld[0].rtx, tmp85
	movq	%rax, -24(%rbp)	# tmp85, insn
	jmp	.L269	#
.L268:
	.loc 1 1651 0
	movq	-24(%rbp), %rax	# insn, tmp86
	movq	32(%rax), %rax	# insn_3(D)->fld[3].rtx, tmp87
	movq	%rax, -24(%rbp)	# tmp87, insn
.L269:
	.loc 1 1653 0
	movq	-16(%rbp), %rdx	# label, tmp88
	movq	-24(%rbp), %rax	# insn, tmp89
	movq	%rdx, %rsi	# tmp88,
	movq	%rax, %rdi	# tmp89,
	call	dwarf2out_frame_debug_expr	#
.L258:
	.loc 1 1654 0
	leave
	.cfi_def_cfa 7, 8
	ret
	.cfi_endproc
.LFE29:
	.size	dwarf2out_frame_debug, .-dwarf2out_frame_debug
	.section	.rodata
.LC34:
	.string	"DW_CFA_advance_loc 0x%lx"
.LC35:
	.string	"DW_CFA_offset, column 0x%lx"
.LC36:
	.string	"DW_CFA_restore, column 0x%lx"
.LC37:
	.string	"%s"
	.text
	.type	output_cfi, @function
output_cfi:
.LFB30:
	.loc 1 1663 0
	.cfi_startproc
	pushq	%rbp	#
	.cfi_def_cfa_offset 16
	.cfi_offset 6, -16
	movq	%rsp, %rbp	#,
	.cfi_def_cfa_register 6
	subq	$32, %rsp	#,
	movq	%rdi, -8(%rbp)	# cfi, cfi
	movq	%rsi, -16(%rbp)	# fde, fde
	movl	%edx, -20(%rbp)	# for_eh, for_eh
	.loc 1 1664 0
	movq	-8(%rbp), %rax	# cfi, tmp122
	movl	8(%rax), %eax	# cfi_4(D)->dw_cfi_opc, D.23315
	cmpl	$64, %eax	#, D.23315
	jne	.L271	#,
	.loc 1 1665 0
	movq	-8(%rbp), %rax	# cfi, tmp123
	movq	16(%rax), %rdx	# cfi_4(D)->dw_cfi_oprnd1.dw_cfi_offset, D.23316
	movq	-8(%rbp), %rax	# cfi, tmp124
	movl	8(%rax), %eax	# cfi_4(D)->dw_cfi_opc, D.23315
	.loc 1 1666 0
	movl	%eax, %ecx	# D.23315, D.23316
	movq	-8(%rbp), %rax	# cfi, tmp125
	movq	16(%rax), %rax	# cfi_4(D)->dw_cfi_oprnd1.dw_cfi_offset, D.23316
	andl	$63, %eax	#, D.23316
	orq	%rcx, %rax	# D.23316, D.23316
	.loc 1 1665 0
	movq	%rdx, %rcx	# D.23316,
	movl	$.LC34, %edx	#,
	movq	%rax, %rsi	# D.23317,
	movl	$1, %edi	#,
	movl	$0, %eax	#,
	call	dw2_asm_output_data	#
	jmp	.L270	#
.L271:
	.loc 1 1669 0
	movq	-8(%rbp), %rax	# cfi, tmp126
	movl	8(%rax), %eax	# cfi_4(D)->dw_cfi_opc, D.23315
	cmpl	$128, %eax	#, D.23315
	jne	.L273	#,
	.loc 1 1671 0
	movq	-8(%rbp), %rax	# cfi, tmp127
	movq	16(%rax), %rax	# cfi_4(D)->dw_cfi_oprnd1.dw_cfi_reg_num, D.23317
	movq	-8(%rbp), %rdx	# cfi, tmp128
	movl	8(%rdx), %edx	# cfi_4(D)->dw_cfi_opc, D.23315
	movl	%edx, %ecx	# D.23315, D.23317
	.loc 1 1672 0
	movq	-8(%rbp), %rdx	# cfi, tmp129
	movq	16(%rdx), %rdx	# cfi_4(D)->dw_cfi_oprnd1.dw_cfi_reg_num, D.23317
	andl	$63, %edx	#, D.23317
	.loc 1 1671 0
	orq	%rdx, %rcx	# D.23317, D.23317
	movq	%rcx, %rsi	# D.23317, D.23317
	movq	%rax, %rcx	# D.23317,
	movl	$.LC35, %edx	#,
	movl	$1, %edi	#,
	movl	$0, %eax	#,
	call	dw2_asm_output_data	#
	.loc 1 1675 0
	movq	-8(%rbp), %rax	# cfi, tmp130
	movq	24(%rax), %rax	# cfi_4(D)->dw_cfi_oprnd2.dw_cfi_offset, D.23316
	movl	$0, %esi	#,
	movq	%rax, %rdi	# D.23317,
	movl	$0, %eax	#,
	call	dw2_asm_output_data_uleb128	#
	jmp	.L270	#
.L273:
	.loc 1 1677 0
	movq	-8(%rbp), %rax	# cfi, tmp131
	movl	8(%rax), %eax	# cfi_4(D)->dw_cfi_opc, D.23315
	cmpl	$192, %eax	#, D.23315
	jne	.L274	#,
	.loc 1 1678 0
	movq	-8(%rbp), %rax	# cfi, tmp132
	movq	16(%rax), %rax	# cfi_4(D)->dw_cfi_oprnd1.dw_cfi_reg_num, D.23317
	movq	-8(%rbp), %rdx	# cfi, tmp133
	movl	8(%rdx), %edx	# cfi_4(D)->dw_cfi_opc, D.23315
	movl	%edx, %ecx	# D.23315, D.23317
	.loc 1 1679 0
	movq	-8(%rbp), %rdx	# cfi, tmp134
	movq	16(%rdx), %rdx	# cfi_4(D)->dw_cfi_oprnd1.dw_cfi_reg_num, D.23317
	andl	$63, %edx	#, D.23317
	.loc 1 1678 0
	orq	%rdx, %rcx	# D.23317, D.23317
	movq	%rcx, %rsi	# D.23317, D.23317
	movq	%rax, %rcx	# D.23317,
	movl	$.LC36, %edx	#,
	movl	$1, %edi	#,
	movl	$0, %eax	#,
	call	dw2_asm_output_data	#
	jmp	.L270	#
.L274:
	.loc 1 1685 0
	movq	-8(%rbp), %rax	# cfi, tmp135
	movl	8(%rax), %eax	# cfi_4(D)->dw_cfi_opc, D.23315
	.loc 1 1684 0
	movl	%eax, %edi	# D.23315,
	call	dwarf_cfi_name	#
	movq	%rax, %rdx	#, D.23318
	movq	-8(%rbp), %rax	# cfi, tmp136
	movl	8(%rax), %eax	# cfi_4(D)->dw_cfi_opc, D.23315
	movl	%eax, %eax	# D.23315, D.23317
	movq	%rdx, %rcx	# D.23318,
	movl	$.LC37, %edx	#,
	movq	%rax, %rsi	# D.23317,
	movl	$1, %edi	#,
	movl	$0, %eax	#,
	call	dw2_asm_output_data	#
	.loc 1 1687 0
	movq	-8(%rbp), %rax	# cfi, tmp137
	movl	8(%rax), %eax	# cfi_4(D)->dw_cfi_opc, D.23315
	cmpl	$47, %eax	#, D.23315
	ja	.L299	#,
	movl	%eax, %eax	# D.23315, tmp138
	movq	.L277(,%rax,8), %rax	#, tmp139
	jmp	*%rax	# tmp139
	.section	.rodata
	.align 8
	.align 4
.L277:
	.quad	.L299
	.quad	.L276
	.quad	.L278
	.quad	.L279
	.quad	.L280
	.quad	.L281
	.quad	.L282
	.quad	.L282
	.quad	.L282
	.quad	.L283
	.quad	.L299
	.quad	.L299
	.quad	.L281
	.quad	.L282
	.quad	.L284
	.quad	.L285
	.quad	.L285
	.quad	.L286
	.quad	.L286
	.quad	.L287
	.quad	.L299
	.quad	.L299
	.quad	.L299
	.quad	.L299
	.quad	.L299
	.quad	.L299
	.quad	.L299
	.quad	.L299
	.quad	.L299
	.quad	.L288
	.quad	.L299
	.quad	.L299
	.quad	.L299
	.quad	.L299
	.quad	.L299
	.quad	.L299
	.quad	.L299
	.quad	.L299
	.quad	.L299
	.quad	.L299
	.quad	.L299
	.quad	.L299
	.quad	.L299
	.quad	.L299
	.quad	.L299
	.quad	.L299
	.quad	.L284
	.quad	.L290
	.text
.L276:
	.loc 1 1690 0
	cmpl	$0, -20(%rbp)	#, for_eh
	je	.L291	#,
	.loc 1 1691 0
	movq	-8(%rbp), %rax	# cfi, tmp140
	movq	16(%rax), %rdx	# cfi_4(D)->dw_cfi_oprnd1.dw_cfi_addr, D.23318
	.loc 1 1693 0
	movl	target_flags(%rip), %eax	# target_flags, target_flags.51
	andl	$33554432, %eax	#, D.23319
	.loc 1 1691 0
	testl	%eax, %eax	# D.23319
	je	.L292	#,
	.loc 1 1691 0 is_stmt 0 discriminator 1
	movl	$5, %eax	#, iftmp.50
	jmp	.L293	#
.L292:
	.loc 1 1691 0 discriminator 2
	movl	$4, %eax	#, iftmp.50
.L293:
	.loc 1 1691 0 discriminator 3
	movl	%eax, %esi	# iftmp.50,
	movl	$68, %edi	#,
	call	gen_rtx_fmt_s	#
	movq	%rax, %rcx	#, D.23320
	.loc 1 1692 0 is_stmt 1 discriminator 3
	movl	flag_pic(%rip), %eax	# flag_pic, flag_pic.53
	.loc 1 1691 0 discriminator 3
	testl	%eax, %eax	# flag_pic.53
	je	.L294	#,
	.loc 1 1691 0 is_stmt 0 discriminator 4
	movl	$27, %eax	#, iftmp.52
	jmp	.L295	#
.L294:
	.loc 1 1691 0 discriminator 5
	movl	$0, %eax	#, iftmp.52
.L295:
	.loc 1 1691 0 discriminator 1
	movl	$0, %edx	#,
	movq	%rcx, %rsi	# D.23320,
	movl	%eax, %edi	# iftmp.52,
	movl	$0, %eax	#,
	call	dw2_asm_output_encoded_addr_rtx	#
	.loc 1 1698 0 is_stmt 1 discriminator 1
	jmp	.L270	#
.L291:
	.loc 1 1696 0
	movq	-8(%rbp), %rax	# cfi, tmp141
	movq	16(%rax), %rcx	# cfi_4(D)->dw_cfi_oprnd1.dw_cfi_addr, D.23318
	movl	target_flags(%rip), %eax	# target_flags, target_flags.55
	andl	$33554432, %eax	#, D.23319
	testl	%eax, %eax	# D.23319
	je	.L297	#,
	.loc 1 1696 0 is_stmt 0 discriminator 1
	movl	$8, %eax	#, iftmp.54
	jmp	.L298	#
.L297:
	.loc 1 1696 0 discriminator 2
	movl	$4, %eax	#, iftmp.54
.L298:
	.loc 1 1696 0 discriminator 3
	movl	$0, %edx	#,
	movq	%rcx, %rsi	# D.23318,
	movl	%eax, %edi	# iftmp.54,
	movl	$0, %eax	#,
	call	dw2_asm_output_addr	#
	.loc 1 1698 0 is_stmt 1 discriminator 3
	jmp	.L270	#
.L278:
	.loc 1 1701 0
	movq	-16(%rbp), %rax	# fde, tmp142
	movq	8(%rax), %rdx	# fde_49(D)->dw_fde_current_label, D.23318
	movq	-8(%rbp), %rax	# cfi, tmp143
	movq	16(%rax), %rax	# cfi_4(D)->dw_cfi_oprnd1.dw_cfi_addr, D.23318
	movl	$0, %ecx	#,
	movq	%rax, %rsi	# D.23318,
	movl	$1, %edi	#,
	movl	$0, %eax	#,
	call	dw2_asm_output_delta	#
	.loc 1 1703 0
	movq	-8(%rbp), %rax	# cfi, tmp144
	movq	16(%rax), %rdx	# cfi_4(D)->dw_cfi_oprnd1.dw_cfi_addr, D.23318
	movq	-16(%rbp), %rax	# fde, tmp145
	movq	%rdx, 8(%rax)	# D.23318, fde_49(D)->dw_fde_current_label
	.loc 1 1704 0
	jmp	.L270	#
.L279:
	.loc 1 1707 0
	movq	-16(%rbp), %rax	# fde, tmp146
	movq	8(%rax), %rdx	# fde_49(D)->dw_fde_current_label, D.23318
	movq	-8(%rbp), %rax	# cfi, tmp147
	movq	16(%rax), %rax	# cfi_4(D)->dw_cfi_oprnd1.dw_cfi_addr, D.23318
	movl	$0, %ecx	#,
	movq	%rax, %rsi	# D.23318,
	movl	$2, %edi	#,
	movl	$0, %eax	#,
	call	dw2_asm_output_delta	#
	.loc 1 1709 0
	movq	-8(%rbp), %rax	# cfi, tmp148
	movq	16(%rax), %rdx	# cfi_4(D)->dw_cfi_oprnd1.dw_cfi_addr, D.23318
	movq	-16(%rbp), %rax	# fde, tmp149
	movq	%rdx, 8(%rax)	# D.23318, fde_49(D)->dw_fde_current_label
	.loc 1 1710 0
	jmp	.L270	#
.L280:
	.loc 1 1713 0
	movq	-16(%rbp), %rax	# fde, tmp150
	movq	8(%rax), %rdx	# fde_49(D)->dw_fde_current_label, D.23318
	movq	-8(%rbp), %rax	# cfi, tmp151
	movq	16(%rax), %rax	# cfi_4(D)->dw_cfi_oprnd1.dw_cfi_addr, D.23318
	movl	$0, %ecx	#,
	movq	%rax, %rsi	# D.23318,
	movl	$4, %edi	#,
	movl	$0, %eax	#,
	call	dw2_asm_output_delta	#
	.loc 1 1715 0
	movq	-8(%rbp), %rax	# cfi, tmp152
	movq	16(%rax), %rdx	# cfi_4(D)->dw_cfi_oprnd1.dw_cfi_addr, D.23318
	movq	-16(%rbp), %rax	# fde, tmp153
	movq	%rdx, 8(%rax)	# D.23318, fde_49(D)->dw_fde_current_label
	.loc 1 1716 0
	jmp	.L270	#
.L288:
	.loc 1 1719 0
	movq	-16(%rbp), %rax	# fde, tmp154
	movq	8(%rax), %rdx	# fde_49(D)->dw_fde_current_label, D.23318
	movq	-8(%rbp), %rax	# cfi, tmp155
	movq	16(%rax), %rax	# cfi_4(D)->dw_cfi_oprnd1.dw_cfi_addr, D.23318
	movl	$0, %ecx	#,
	movq	%rax, %rsi	# D.23318,
	movl	$8, %edi	#,
	movl	$0, %eax	#,
	call	dw2_asm_output_delta	#
	.loc 1 1721 0
	movq	-8(%rbp), %rax	# cfi, tmp156
	movq	16(%rax), %rdx	# cfi_4(D)->dw_cfi_oprnd1.dw_cfi_addr, D.23318
	movq	-16(%rbp), %rax	# fde, tmp157
	movq	%rdx, 8(%rax)	# D.23318, fde_49(D)->dw_fde_current_label
	.loc 1 1722 0
	jmp	.L270	#
.L281:
	.loc 1 1726 0
	movq	-8(%rbp), %rax	# cfi, tmp158
	movq	16(%rax), %rax	# cfi_4(D)->dw_cfi_oprnd1.dw_cfi_reg_num, D.23317
	movl	$0, %esi	#,
	movq	%rax, %rdi	# D.23317,
	movl	$0, %eax	#,
	call	dw2_asm_output_data_uleb128	#
	.loc 1 1728 0
	movq	-8(%rbp), %rax	# cfi, tmp159
	movq	24(%rax), %rax	# cfi_4(D)->dw_cfi_oprnd2.dw_cfi_offset, D.23316
	movl	$0, %esi	#,
	movq	%rax, %rdi	# D.23317,
	movl	$0, %eax	#,
	call	dw2_asm_output_data_uleb128	#
	.loc 1 1729 0
	jmp	.L270	#
.L286:
	.loc 1 1733 0
	movq	-8(%rbp), %rax	# cfi, tmp160
	movq	16(%rax), %rax	# cfi_4(D)->dw_cfi_oprnd1.dw_cfi_reg_num, D.23317
	movl	$0, %esi	#,
	movq	%rax, %rdi	# D.23317,
	movl	$0, %eax	#,
	call	dw2_asm_output_data_uleb128	#
	.loc 1 1735 0
	movq	-8(%rbp), %rax	# cfi, tmp161
	movq	24(%rax), %rax	# cfi_4(D)->dw_cfi_oprnd2.dw_cfi_offset, D.23316
	movl	$0, %esi	#,
	movq	%rax, %rdi	# D.23316,
	movl	$0, %eax	#,
	call	dw2_asm_output_data_sleb128	#
	.loc 1 1736 0
	jmp	.L270	#
.L282:
	.loc 1 1742 0
	movq	-8(%rbp), %rax	# cfi, tmp162
	movq	16(%rax), %rax	# cfi_4(D)->dw_cfi_oprnd1.dw_cfi_reg_num, D.23317
	movl	$0, %esi	#,
	movq	%rax, %rdi	# D.23317,
	movl	$0, %eax	#,
	call	dw2_asm_output_data_uleb128	#
	.loc 1 1744 0
	jmp	.L270	#
.L283:
	.loc 1 1747 0
	movq	-8(%rbp), %rax	# cfi, tmp163
	movq	16(%rax), %rax	# cfi_4(D)->dw_cfi_oprnd1.dw_cfi_reg_num, D.23317
	movl	$0, %esi	#,
	movq	%rax, %rdi	# D.23317,
	movl	$0, %eax	#,
	call	dw2_asm_output_data_uleb128	#
	.loc 1 1749 0
	movq	-8(%rbp), %rax	# cfi, tmp164
	movq	24(%rax), %rax	# cfi_4(D)->dw_cfi_oprnd2.dw_cfi_reg_num, D.23317
	movl	$0, %esi	#,
	movq	%rax, %rdi	# D.23317,
	movl	$0, %eax	#,
	call	dw2_asm_output_data_uleb128	#
	.loc 1 1751 0
	jmp	.L270	#
.L284:
	.loc 1 1755 0
	movq	-8(%rbp), %rax	# cfi, tmp165
	movq	16(%rax), %rax	# cfi_4(D)->dw_cfi_oprnd1.dw_cfi_offset, D.23316
	movl	$0, %esi	#,
	movq	%rax, %rdi	# D.23317,
	movl	$0, %eax	#,
	call	dw2_asm_output_data_uleb128	#
	.loc 1 1756 0
	jmp	.L270	#
.L287:
	.loc 1 1759 0
	movq	-8(%rbp), %rax	# cfi, tmp166
	movq	16(%rax), %rax	# cfi_4(D)->dw_cfi_oprnd1.dw_cfi_offset, D.23316
	movl	$0, %esi	#,
	movq	%rax, %rdi	# D.23316,
	movl	$0, %eax	#,
	call	dw2_asm_output_data_sleb128	#
	.loc 1 1760 0
	jmp	.L270	#
.L285:
	.loc 1 1767 0
	movq	-8(%rbp), %rax	# cfi, tmp167
	movq	%rax, %rdi	# tmp167,
	call	output_cfa_loc	#
	.loc 1 1768 0
	jmp	.L270	#
.L290:
	.loc 1 1772 0
	movl	$__FUNCTION__.14122, %edx	#,
	movl	$1772, %esi	#,
	movl	$.LC32, %edi	#,
	call	fancy_abort	#
.L299:
	.loc 1 1775 0
	nop
.L270:
	.loc 1 1778 0
	leave
	.cfi_def_cfa 7, 8
	ret
	.cfi_endproc
.LFE30:
	.size	output_cfi, .-output_cfi
	.section	.rodata
.LC38:
	.string	".debug_frame"
.LC39:
	.string	"Lframe"
.LC40:
	.string	"LSCIE"
.LC41:
	.string	"LECIE"
	.align 8
.LC42:
	.string	"Length of Common Information Entry"
.LC43:
	.string	"CIE Identifier Tag"
.LC44:
	.string	"CIE Version"
.LC45:
	.string	"CIE Augmentation"
.LC46:
	.string	"CIE Code Alignment Factor"
.LC47:
	.string	"CIE Data Alignment Factor"
.LC48:
	.string	"CIE RA Column"
.LC49:
	.string	"Augmentation size"
.LC50:
	.string	"Personality (%s)"
.LC51:
	.string	"LSDA Encoding (%s)"
.LC52:
	.string	"FDE Encoding (%s)"
.LC53:
	.string	"\t.align %d\n"
.LC54:
	.string	"LSFDE"
.LC55:
	.string	".%s%u:\n"
.LC56:
	.string	"LASFDE"
.LC57:
	.string	"LEFDE"
.LC58:
	.string	"FDE Length"
.LC59:
	.string	"FDE CIE offset"
.LC60:
	.string	"FDE initial location"
.LC61:
	.string	"FDE address range"
.LC62:
	.string	"LLSDA"
.LC63:
	.string	"Language Specific Data Area"
	.align 8
.LC64:
	.string	"Language Specific Data Area (none)"
	.text
	.type	output_call_frame_info, @function
output_call_frame_info:
.LFB31:
	.loc 1 1787 0
	.cfi_startproc
	pushq	%rbp	#
	.cfi_def_cfa_offset 16
	.cfi_offset 6, -16
	movq	%rsp, %rbp	#,
	.cfi_def_cfa_register 6
	pushq	%r12	#
	pushq	%rbx	#
	subq	$208, %rsp	#,
	.cfi_offset 12, -24
	.cfi_offset 3, -32
	movl	%edi, -212(%rbp)	# for_eh, for_eh
	.loc 1 1787 0
	movq	%fs:40, %rax	#, tmp316
	movq	%rax, -24(%rbp)	# tmp316, D.23335
	xorl	%eax, %eax	# tmp316
	.loc 1 1792 0
	movl	$0, -196(%rbp)	#, any_lsda_needed
	.loc 1 1795 0
	movl	$0, -188(%rbp)	#, fde_encoding
	.loc 1 1796 0
	movl	$0, -184(%rbp)	#, per_encoding
	.loc 1 1797 0
	movl	$0, -180(%rbp)	#, lsda_encoding
	.loc 1 1801 0
	cmpl	$0, -212(%rbp)	#, for_eh
	je	.L301	#,
.LBB10:
	.loc 1 1803 0
	movl	flag_asynchronous_unwind_tables(%rip), %eax	# flag_asynchronous_unwind_tables, tmp222
	movl	%eax, -176(%rbp)	# tmp222, any_eh_needed
	.loc 1 1805 0
	movl	$0, -200(%rbp)	#, i
	jmp	.L302	#
.L305:
	.loc 1 1806 0
	movq	fde_table(%rip), %rcx	# fde_table, fde_table.56
	movl	-200(%rbp), %edx	# i, D.23325
	movq	%rdx, %rax	# D.23325, tmp223
	salq	$2, %rax	#, tmp223
	addq	%rdx, %rax	# D.23325, tmp223
	salq	$3, %rax	#, tmp224
	addq	%rcx, %rax	# fde_table.56, D.23326
	movzbl	36(%rax), %eax	# *_51, D.23327
	andl	$2, %eax	#, D.23327
	testb	%al, %al	# D.23327
	je	.L303	#,
	.loc 1 1807 0
	movl	$1, -196(%rbp)	#, any_lsda_needed
	movl	-196(%rbp), %eax	# any_lsda_needed, tmp225
	movl	%eax, -176(%rbp)	# tmp225, any_eh_needed
	jmp	.L304	#
.L303:
	.loc 1 1808 0
	movq	fde_table(%rip), %rcx	# fde_table, fde_table.57
	movl	-200(%rbp), %edx	# i, D.23325
	movq	%rdx, %rax	# D.23325, tmp226
	salq	$2, %rax	#, tmp226
	addq	%rdx, %rax	# D.23325, tmp226
	salq	$3, %rax	#, tmp227
	addq	%rcx, %rax	# fde_table.57, D.23326
	movzbl	36(%rax), %eax	# *_59, D.23327
	andl	$1, %eax	#, D.23327
	testb	%al, %al	# D.23327
	jne	.L304	#,
	.loc 1 1809 0
	movl	$1, -176(%rbp)	#, any_eh_needed
.L304:
	.loc 1 1805 0
	addl	$1, -200(%rbp)	#, i
.L302:
	.loc 1 1805 0 is_stmt 0 discriminator 1
	movl	fde_table_in_use(%rip), %eax	# fde_table_in_use, fde_table_in_use.58
	cmpl	%eax, -200(%rbp)	# fde_table_in_use.58, i
	jb	.L305	#,
	.loc 1 1811 0 is_stmt 1
	cmpl	$0, -176(%rbp)	#, any_eh_needed
	jne	.L301	#,
	.loc 1 1812 0
	jmp	.L300	#
.L301:
.LBE10:
	.loc 1 1816 0
	movl	flag_debug_asm(%rip), %eax	# flag_debug_asm, flag_debug_asm.59
	testl	%eax, %eax	# flag_debug_asm.59
	je	.L307	#,
	.loc 1 1817 0
	call	app_enable	#
.L307:
	.loc 1 1819 0
	cmpl	$0, -212(%rbp)	#, for_eh
	je	.L308	#,
	.loc 1 1820 0
	movq	targetm+144(%rip), %rax	# targetm.asm_out.eh_frame_section, D.23328
	call	*%rax	# D.23328
	jmp	.L309	#
.L308:
	.loc 1 1822 0
	movl	$1024, %esi	#,
	movl	$.LC38, %edi	#,
	call	named_section_flags	#
.L309:
	.loc 1 1824 0
	movl	-212(%rbp), %edx	# for_eh, for_eh.60
	leaq	-48(%rbp), %rax	#, tmp228
	movl	%edx, %ecx	# for_eh.60,
	movl	$.LC39, %edx	#,
	movl	$.LC30, %esi	#,
	movq	%rax, %rdi	# tmp228,
	movl	$0, %eax	#,
	call	sprintf	#
	.loc 1 1825 0
	movq	asm_out_file(%rip), %rax	# asm_out_file, asm_out_file.61
	leaq	-48(%rbp), %rdx	#, tmp229
	movq	%rdx, %rsi	# tmp229,
	movq	%rax, %rdi	# asm_out_file.61,
	call	assemble_name	#
	movq	asm_out_file(%rip), %rax	# asm_out_file, asm_out_file.62
	movq	%rax, %rcx	# asm_out_file.62,
	movl	$2, %edx	#,
	movl	$1, %esi	#,
	movl	$.LC31, %edi	#,
	call	fwrite	#
	.loc 1 1828 0
	movl	-212(%rbp), %edx	# for_eh, for_eh.63
	leaq	-112(%rbp), %rax	#, tmp230
	movl	%edx, %ecx	# for_eh.63,
	movl	$.LC40, %edx	#,
	movl	$.LC30, %esi	#,
	movq	%rax, %rdi	# tmp230,
	movl	$0, %eax	#,
	call	sprintf	#
	.loc 1 1829 0
	movl	-212(%rbp), %edx	# for_eh, for_eh.64
	leaq	-80(%rbp), %rax	#, tmp231
	movl	%edx, %ecx	# for_eh.64,
	movl	$.LC41, %edx	#,
	movl	$.LC30, %esi	#,
	movq	%rax, %rdi	# tmp231,
	movl	$0, %eax	#,
	call	sprintf	#
	.loc 1 1830 0
	leaq	-112(%rbp), %rdx	#, tmp232
	leaq	-80(%rbp), %rax	#, tmp233
	movl	$.LC42, %ecx	#,
	movq	%rax, %rsi	# tmp233,
	movl	$4, %edi	#,
	movl	$0, %eax	#,
	call	dw2_asm_output_delta	#
	.loc 1 1832 0
	movq	asm_out_file(%rip), %rax	# asm_out_file, asm_out_file.65
	leaq	-112(%rbp), %rdx	#, tmp234
	movq	%rdx, %rsi	# tmp234,
	movq	%rax, %rdi	# asm_out_file.65,
	call	assemble_name	#
	movq	asm_out_file(%rip), %rax	# asm_out_file, asm_out_file.66
	movq	%rax, %rcx	# asm_out_file.66,
	movl	$2, %edx	#,
	movl	$1, %esi	#,
	movl	$.LC31, %edi	#,
	call	fwrite	#
	.loc 1 1836 0
	cmpl	$0, -212(%rbp)	#, for_eh
	je	.L310	#,
	.loc 1 1836 0 is_stmt 0 discriminator 1
	movl	$0, %eax	#, iftmp.67
	jmp	.L311	#
.L310:
	.loc 1 1836 0 discriminator 2
	movl	$4294967295, %eax	#, iftmp.67
.L311:
	.loc 1 1836 0 discriminator 3
	movl	$.LC43, %edx	#,
	movq	%rax, %rsi	# iftmp.67,
	movl	$4, %edi	#,
	movl	$0, %eax	#,
	call	dw2_asm_output_data	#
	.loc 1 1840 0 is_stmt 1 discriminator 3
	movl	$.LC44, %edx	#,
	movl	$1, %esi	#,
	movl	$1, %edi	#,
	movl	$0, %eax	#,
	call	dw2_asm_output_data	#
	.loc 1 1842 0 discriminator 3
	movb	$0, -128(%rbp)	#, augmentation
	.loc 1 1843 0 discriminator 3
	movl	$0, -192(%rbp)	#, augmentation_size
	.loc 1 1844 0 discriminator 3
	cmpl	$0, -212(%rbp)	#, for_eh
	je	.L312	#,
.LBB11:
	.loc 1 1858 0
	movl	flag_pic(%rip), %eax	# flag_pic, flag_pic.69
	testl	%eax, %eax	# flag_pic.69
	je	.L313	#,
	.loc 1 1858 0 is_stmt 0 discriminator 1
	movl	$27, %eax	#, iftmp.68
	jmp	.L314	#
.L313:
	.loc 1 1858 0 discriminator 2
	movl	$0, %eax	#, iftmp.68
.L314:
	.loc 1 1858 0 discriminator 3
	movl	%eax, -188(%rbp)	# iftmp.68, fde_encoding
	.loc 1 1859 0 is_stmt 1 discriminator 3
	movl	flag_pic(%rip), %eax	# flag_pic, flag_pic.71
	testl	%eax, %eax	# flag_pic.71
	je	.L315	#,
	.loc 1 1859 0 is_stmt 0 discriminator 1
	movl	$155, %eax	#, iftmp.70
	jmp	.L316	#
.L315:
	.loc 1 1859 0 discriminator 2
	movl	$0, %eax	#, iftmp.70
.L316:
	.loc 1 1859 0 discriminator 3
	movl	%eax, -184(%rbp)	# iftmp.70, per_encoding
	.loc 1 1860 0 is_stmt 1 discriminator 3
	movl	flag_pic(%rip), %eax	# flag_pic, flag_pic.73
	testl	%eax, %eax	# flag_pic.73
	je	.L317	#,
	.loc 1 1860 0 is_stmt 0 discriminator 1
	movl	$27, %eax	#, iftmp.72
	jmp	.L318	#
.L317:
	.loc 1 1860 0 discriminator 2
	movl	$0, %eax	#, iftmp.72
.L318:
	.loc 1 1860 0 discriminator 3
	movl	%eax, -180(%rbp)	# iftmp.72, lsda_encoding
	.loc 1 1862 0 is_stmt 1 discriminator 3
	leaq	-128(%rbp), %rax	#, tmp235
	addq	$1, %rax	#, tmp236
	movq	%rax, -144(%rbp)	# tmp236, p
	.loc 1 1863 0 discriminator 3
	movq	libfunc_table+152(%rip), %rax	# libfunc_table, D.23329
	testq	%rax, %rax	# D.23329
	je	.L319	#,
	.loc 1 1865 0
	movq	-144(%rbp), %rax	# p, p.74
	leaq	1(%rax), %rdx	#, tmp237
	movq	%rdx, -144(%rbp)	# tmp237, p
	movb	$80, (%rax)	#, *p.74_90
	.loc 1 1866 0
	movl	-184(%rbp), %eax	# per_encoding, tmp238
	movl	%eax, %edi	# tmp238,
	call	size_of_encoded_value	#
	addl	$1, %eax	#, D.23330
	addl	%eax, -192(%rbp)	# D.23330, augmentation_size
.L319:
	.loc 1 1868 0
	cmpl	$0, -196(%rbp)	#, any_lsda_needed
	je	.L320	#,
	.loc 1 1870 0
	movq	-144(%rbp), %rax	# p, p.75
	leaq	1(%rax), %rdx	#, tmp239
	movq	%rdx, -144(%rbp)	# tmp239, p
	movb	$76, (%rax)	#, *p.75_95
	.loc 1 1871 0
	addl	$1, -192(%rbp)	#, augmentation_size
.L320:
	.loc 1 1873 0
	cmpl	$0, -188(%rbp)	#, fde_encoding
	je	.L321	#,
	.loc 1 1875 0
	movq	-144(%rbp), %rax	# p, p.76
	leaq	1(%rax), %rdx	#, tmp240
	movq	%rdx, -144(%rbp)	# tmp240, p
	movb	$82, (%rax)	#, *p.76_98
	.loc 1 1876 0
	addl	$1, -192(%rbp)	#, augmentation_size
.L321:
	.loc 1 1878 0
	leaq	-128(%rbp), %rax	#, tmp241
	addq	$1, %rax	#, tmp242
	cmpq	%rax, -144(%rbp)	# tmp242, p
	jbe	.L322	#,
	.loc 1 1880 0
	movb	$122, -128(%rbp)	#, augmentation
	.loc 1 1881 0
	movq	-144(%rbp), %rax	# p, tmp243
	movb	$0, (%rax)	#, *p_19
.L322:
	.loc 1 1885 0
	movq	libfunc_table+152(%rip), %rax	# libfunc_table, D.23329
	testq	%rax, %rax	# D.23329
	je	.L312	#,
	.loc 1 1885 0 is_stmt 0 discriminator 1
	cmpl	$80, -184(%rbp)	#, per_encoding
	jne	.L312	#,
.LBB12:
	.loc 1 1890 0 is_stmt 1
	leaq	-128(%rbp), %rax	#, tmp244
	movq	%rax, %rdi	# tmp244,
	call	strlen	#
	.loc 1 1887 0
	movl	%eax, %ebx	# D.23325, D.23331
	.loc 1 1891 0
	movl	$1, %edi	#,
	call	size_of_uleb128	#
	.loc 1 1887 0
	addl	%eax, %ebx	# D.23331, D.23331
	.loc 1 1892 0
	movl	target_flags(%rip), %eax	# target_flags, target_flags.78
	andl	$33554432, %eax	#, D.23330
	testl	%eax, %eax	# D.23330
	je	.L323	#,
	.loc 1 1892 0 is_stmt 0 discriminator 1
	movq	$-8, %rax	#, iftmp.77
	jmp	.L324	#
.L323:
	.loc 1 1892 0 discriminator 2
	movq	$-4, %rax	#, iftmp.77
.L324:
	.loc 1 1892 0 discriminator 3
	movq	%rax, %rdi	# iftmp.77,
	call	size_of_sleb128	#
	.loc 1 1887 0 is_stmt 1 discriminator 3
	addl	%ebx, %eax	# D.23331, D.23331
	addl	$13, %eax	#, D.23331
	movl	%eax, -168(%rbp)	# D.23331, offset
	.loc 1 1896 0 discriminator 3
	movl	-168(%rbp), %eax	# offset, tmp245
	negl	%eax	# D.23330
	movl	%eax, %edx	# D.23330, D.23330
	movl	target_flags(%rip), %eax	# target_flags, target_flags.80
	andl	$33554432, %eax	#, D.23330
	testl	%eax, %eax	# D.23330
	je	.L325	#,
	.loc 1 1896 0 is_stmt 0 discriminator 1
	movl	$7, %eax	#, iftmp.79
	jmp	.L326	#
.L325:
	.loc 1 1896 0 discriminator 2
	movl	$3, %eax	#, iftmp.79
.L326:
	.loc 1 1896 0 discriminator 3
	andl	%edx, %eax	# D.23330, tmp246
	movl	%eax, -164(%rbp)	# tmp246, pad
	.loc 1 1898 0 is_stmt 1 discriminator 3
	movl	-164(%rbp), %eax	# pad, tmp247
	addl	%eax, -192(%rbp)	# tmp247, augmentation_size
	.loc 1 1902 0 discriminator 3
	movl	-192(%rbp), %eax	# augmentation_size, tmp248
	cltq
	movq	%rax, %rdi	# D.23325,
	call	size_of_uleb128	#
	cmpl	$1, %eax	#, D.23330
	je	.L312	#,
	.loc 1 1903 0
	movl	$__FUNCTION__.14146, %edx	#,
	movl	$1903, %esi	#,
	movl	$.LC32, %edi	#,
	call	fancy_abort	#
.L312:
.LBE12:
.LBE11:
	.loc 1 1907 0
	leaq	-128(%rbp), %rax	#, tmp249
	movl	$.LC45, %edx	#,
	movq	$-1, %rsi	#,
	movq	%rax, %rdi	# tmp249,
	movl	$0, %eax	#,
	call	dw2_asm_output_nstring	#
	.loc 1 1908 0
	movl	$.LC46, %esi	#,
	movl	$1, %edi	#,
	movl	$0, %eax	#,
	call	dw2_asm_output_data_uleb128	#
	.loc 1 1909 0
	movl	target_flags(%rip), %eax	# target_flags, target_flags.82
	andl	$33554432, %eax	#, D.23330
	testl	%eax, %eax	# D.23330
	je	.L327	#,
	.loc 1 1909 0 is_stmt 0 discriminator 1
	movq	$-8, %rax	#, iftmp.81
	jmp	.L328	#
.L327:
	.loc 1 1909 0 discriminator 2
	movq	$-4, %rax	#, iftmp.81
.L328:
	.loc 1 1909 0 discriminator 3
	movl	$.LC47, %esi	#,
	movq	%rax, %rdi	# iftmp.81,
	movl	$0, %eax	#,
	call	dw2_asm_output_data_sleb128	#
	.loc 1 1911 0 is_stmt 1 discriminator 3
	movl	target_flags(%rip), %eax	# target_flags, target_flags.84
	andl	$33554432, %eax	#, D.23330
	testl	%eax, %eax	# D.23330
	je	.L329	#,
	.loc 1 1911 0 is_stmt 0 discriminator 1
	movl	$16, %eax	#, iftmp.83
	jmp	.L330	#
.L329:
	.loc 1 1911 0 discriminator 2
	movl	$8, %eax	#, iftmp.83
.L330:
	.loc 1 1911 0 discriminator 3
	movl	$.LC48, %edx	#,
	movq	%rax, %rsi	# iftmp.83,
	movl	$1, %edi	#,
	movl	$0, %eax	#,
	call	dw2_asm_output_data	#
	.loc 1 1913 0 is_stmt 1 discriminator 3
	movzbl	-128(%rbp), %eax	# augmentation, D.23332
	testb	%al, %al	# D.23332
	je	.L331	#,
	.loc 1 1915 0
	movl	-192(%rbp), %eax	# augmentation_size, tmp250
	cltq
	movl	$.LC49, %esi	#,
	movq	%rax, %rdi	# D.23325,
	movl	$0, %eax	#,
	call	dw2_asm_output_data_uleb128	#
	.loc 1 1916 0
	movq	libfunc_table+152(%rip), %rax	# libfunc_table, D.23329
	testq	%rax, %rax	# D.23329
	je	.L332	#,
	.loc 1 1918 0
	movl	-184(%rbp), %eax	# per_encoding, tmp251
	movl	%eax, %edi	# tmp251,
	call	eh_data_format_name	#
	movq	%rax, %rdx	#, D.23333
	movl	-184(%rbp), %eax	# per_encoding, tmp252
	cltq
	movq	%rdx, %rcx	# D.23333,
	movl	$.LC50, %edx	#,
	movq	%rax, %rsi	# D.23325,
	movl	$1, %edi	#,
	movl	$0, %eax	#,
	call	dw2_asm_output_data	#
	.loc 1 1920 0
	movq	libfunc_table+152(%rip), %rcx	# libfunc_table, D.23329
	movl	-184(%rbp), %eax	# per_encoding, tmp253
	movl	$0, %edx	#,
	movq	%rcx, %rsi	# D.23329,
	movl	%eax, %edi	# tmp253,
	movl	$0, %eax	#,
	call	dw2_asm_output_encoded_addr_rtx	#
.L332:
	.loc 1 1924 0
	cmpl	$0, -196(%rbp)	#, any_lsda_needed
	je	.L333	#,
	.loc 1 1925 0
	movl	-180(%rbp), %eax	# lsda_encoding, tmp254
	movl	%eax, %edi	# tmp254,
	call	eh_data_format_name	#
	movq	%rax, %rdx	#, D.23333
	movl	-180(%rbp), %eax	# lsda_encoding, tmp255
	cltq
	movq	%rdx, %rcx	# D.23333,
	movl	$.LC51, %edx	#,
	movq	%rax, %rsi	# D.23325,
	movl	$1, %edi	#,
	movl	$0, %eax	#,
	call	dw2_asm_output_data	#
.L333:
	.loc 1 1928 0
	cmpl	$0, -188(%rbp)	#, fde_encoding
	je	.L331	#,
	.loc 1 1929 0
	movl	-188(%rbp), %eax	# fde_encoding, tmp256
	movl	%eax, %edi	# tmp256,
	call	eh_data_format_name	#
	movq	%rax, %rdx	#, D.23333
	movl	-188(%rbp), %eax	# fde_encoding, tmp257
	cltq
	movq	%rdx, %rcx	# D.23333,
	movl	$.LC52, %edx	#,
	movq	%rax, %rsi	# D.23325,
	movl	$1, %edi	#,
	movl	$0, %eax	#,
	call	dw2_asm_output_data	#
.L331:
	.loc 1 1933 0
	movq	cie_cfi_head(%rip), %rax	# cie_cfi_head, tmp258
	movq	%rax, -152(%rbp)	# tmp258, cfi
	jmp	.L334	#
.L335:
	.loc 1 1934 0 discriminator 2
	movl	-212(%rbp), %edx	# for_eh, tmp259
	movq	-152(%rbp), %rax	# cfi, tmp260
	movl	$0, %esi	#,
	movq	%rax, %rdi	# tmp260,
	call	output_cfi	#
	.loc 1 1933 0 discriminator 2
	movq	-152(%rbp), %rax	# cfi, tmp261
	movq	(%rax), %rax	# cfi_3->dw_cfi_next, tmp262
	movq	%rax, -152(%rbp)	# tmp262, cfi
.L334:
	.loc 1 1933 0 is_stmt 0 discriminator 1
	cmpq	$0, -152(%rbp)	#, cfi
	jne	.L335	#,
	.loc 1 1937 0 is_stmt 1
	movl	target_flags(%rip), %eax	# target_flags, target_flags.86
	andl	$33554432, %eax	#, D.23330
	testl	%eax, %eax	# D.23330
	je	.L336	#,
	.loc 1 1937 0 is_stmt 0 discriminator 1
	movl	$8, %eax	#, iftmp.85
	jmp	.L337	#
.L336:
	.loc 1 1937 0 discriminator 2
	movl	$4, %eax	#, iftmp.85
.L337:
	.loc 1 1937 0 discriminator 3
	movq	%rax, %rdi	# iftmp.85,
	call	floor_log2_wide	#
	testl	%eax, %eax	# D.23330
	je	.L338	#,
	.loc 1 1937 0 discriminator 1
	movl	target_flags(%rip), %eax	# target_flags, target_flags.88
	andl	$33554432, %eax	#, D.23330
	testl	%eax, %eax	# D.23330
	je	.L339	#,
	movl	$8, %eax	#, iftmp.87
	jmp	.L340	#
.L339:
	.loc 1 1937 0 discriminator 2
	movl	$4, %eax	#, iftmp.87
.L340:
	.loc 1 1937 0 discriminator 3
	movq	%rax, %rdi	# iftmp.87,
	call	floor_log2_wide	#
	movl	$1, %edx	#, tmp263
	movl	%eax, %ecx	# D.23330, tmp319
	sall	%cl, %edx	# tmp319, D.23330
	movq	asm_out_file(%rip), %rax	# asm_out_file, asm_out_file.89
	movl	$.LC53, %esi	#,
	movq	%rax, %rdi	# asm_out_file.89,
	movl	$0, %eax	#,
	call	fprintf	#
.L338:
	.loc 1 1939 0 is_stmt 1
	movq	asm_out_file(%rip), %rax	# asm_out_file, asm_out_file.90
	leaq	-80(%rbp), %rdx	#, tmp264
	movq	%rdx, %rsi	# tmp264,
	movq	%rax, %rdi	# asm_out_file.90,
	call	assemble_name	#
	movq	asm_out_file(%rip), %rax	# asm_out_file, asm_out_file.91
	movq	%rax, %rcx	# asm_out_file.91,
	movl	$2, %edx	#,
	movl	$1, %esi	#,
	movl	$.LC31, %edi	#,
	call	fwrite	#
	.loc 1 1942 0
	movl	$0, -200(%rbp)	#, i
	jmp	.L341	#
.L375:
	.loc 1 1944 0
	movq	fde_table(%rip), %rcx	# fde_table, fde_table.92
	movl	-200(%rbp), %edx	# i, D.23325
	movq	%rdx, %rax	# D.23325, tmp265
	salq	$2, %rax	#, tmp265
	addq	%rdx, %rax	# D.23325, tmp265
	salq	$3, %rax	#, tmp266
	addq	%rcx, %rax	# fde_table.92, tmp267
	movq	%rax, -136(%rbp)	# tmp267, fde
	.loc 1 1947 0
	movl	flag_asynchronous_unwind_tables(%rip), %eax	# flag_asynchronous_unwind_tables, flag_asynchronous_unwind_tables.93
	testl	%eax, %eax	# flag_asynchronous_unwind_tables.93
	jne	.L342	#,
	.loc 1 1947 0 is_stmt 0 discriminator 1
	cmpl	$0, -212(%rbp)	#, for_eh
	je	.L342	#,
	movq	-136(%rbp), %rax	# fde, tmp268
	movzbl	36(%rax), %eax	# *fde_164, D.23327
	andl	$1, %eax	#, D.23327
	testb	%al, %al	# D.23327
	je	.L342	#,
	.loc 1 1948 0 is_stmt 1
	movq	-136(%rbp), %rax	# fde, tmp269
	movzbl	36(%rax), %eax	# *fde_164, D.23327
	andl	$2, %eax	#, D.23327
	testb	%al, %al	# D.23327
	jne	.L342	#,
	.loc 1 1949 0
	jmp	.L343	#
.L342:
	.loc 1 1951 0
	movl	-200(%rbp), %eax	# i, tmp270
	leal	(%rax,%rax), %edx	#, D.23334
	movl	-212(%rbp), %eax	# for_eh, for_eh.94
	addl	%eax, %edx	# for_eh.94, D.23334
	movq	asm_out_file(%rip), %rax	# asm_out_file, asm_out_file.95
	movl	%edx, %ecx	# D.23334,
	movl	$.LC54, %edx	#,
	movl	$.LC55, %esi	#,
	movq	%rax, %rdi	# asm_out_file.95,
	movl	$0, %eax	#,
	call	fprintf	#
	.loc 1 1952 0
	movl	-200(%rbp), %eax	# i, tmp271
	leal	(%rax,%rax), %edx	#, D.23334
	movl	-212(%rbp), %eax	# for_eh, for_eh.96
	addl	%eax, %edx	# for_eh.96, D.23334
	leaq	-112(%rbp), %rax	#, tmp272
	movl	%edx, %ecx	# D.23334,
	movl	$.LC56, %edx	#,
	movl	$.LC30, %esi	#,
	movq	%rax, %rdi	# tmp272,
	movl	$0, %eax	#,
	call	sprintf	#
	.loc 1 1953 0
	movl	-200(%rbp), %eax	# i, tmp273
	leal	(%rax,%rax), %edx	#, D.23334
	movl	-212(%rbp), %eax	# for_eh, for_eh.97
	addl	%eax, %edx	# for_eh.97, D.23334
	leaq	-80(%rbp), %rax	#, tmp274
	movl	%edx, %ecx	# D.23334,
	movl	$.LC57, %edx	#,
	movl	$.LC30, %esi	#,
	movq	%rax, %rdi	# tmp274,
	movl	$0, %eax	#,
	call	sprintf	#
	.loc 1 1954 0
	leaq	-112(%rbp), %rdx	#, tmp275
	leaq	-80(%rbp), %rax	#, tmp276
	movl	$.LC58, %ecx	#,
	movq	%rax, %rsi	# tmp276,
	movl	$4, %edi	#,
	movl	$0, %eax	#,
	call	dw2_asm_output_delta	#
	.loc 1 1956 0
	movq	asm_out_file(%rip), %rax	# asm_out_file, asm_out_file.98
	leaq	-112(%rbp), %rdx	#, tmp277
	movq	%rdx, %rsi	# tmp277,
	movq	%rax, %rdi	# asm_out_file.98,
	call	assemble_name	#
	movq	asm_out_file(%rip), %rax	# asm_out_file, asm_out_file.99
	movq	%rax, %rcx	# asm_out_file.99,
	movl	$2, %edx	#,
	movl	$1, %esi	#,
	movl	$.LC31, %edi	#,
	call	fwrite	#
	.loc 1 1958 0
	cmpl	$0, -212(%rbp)	#, for_eh
	je	.L344	#,
	.loc 1 1959 0
	leaq	-48(%rbp), %rdx	#, tmp278
	leaq	-112(%rbp), %rax	#, tmp279
	movl	$.LC59, %ecx	#,
	movq	%rax, %rsi	# tmp279,
	movl	$4, %edi	#,
	movl	$0, %eax	#,
	call	dw2_asm_output_delta	#
	jmp	.L345	#
.L344:
	.loc 1 1961 0
	leaq	-48(%rbp), %rax	#, tmp280
	movl	$.LC59, %edx	#,
	movq	%rax, %rsi	# tmp280,
	movl	$4, %edi	#,
	movl	$0, %eax	#,
	call	dw2_asm_output_offset	#
.L345:
	.loc 1 1964 0
	cmpl	$0, -212(%rbp)	#, for_eh
	je	.L346	#,
	.loc 1 1966 0
	movq	-136(%rbp), %rax	# fde, tmp281
	movq	(%rax), %rdx	# fde_164->dw_fde_begin, D.23333
	.loc 1 1967 0
	movl	target_flags(%rip), %eax	# target_flags, target_flags.101
	andl	$33554432, %eax	#, D.23330
	.loc 1 1966 0
	testl	%eax, %eax	# D.23330
	je	.L347	#,
	.loc 1 1966 0 is_stmt 0 discriminator 1
	movl	$5, %eax	#, iftmp.100
	jmp	.L348	#
.L347:
	.loc 1 1966 0 discriminator 2
	movl	$4, %eax	#, iftmp.100
.L348:
	.loc 1 1966 0 discriminator 1
	movl	%eax, %esi	# iftmp.100,
	movl	$68, %edi	#,
	call	gen_rtx_fmt_s	#
	movq	%rax, %rcx	#, D.23329
	movl	-188(%rbp), %eax	# fde_encoding, tmp282
	movl	$.LC60, %edx	#,
	movq	%rcx, %rsi	# D.23329,
	movl	%eax, %edi	# tmp282,
	movl	$0, %eax	#,
	call	dw2_asm_output_encoded_addr_rtx	#
	.loc 1 1969 0 is_stmt 1 discriminator 1
	movq	-136(%rbp), %rax	# fde, tmp283
	movq	(%rax), %r12	# fde_164->dw_fde_begin, D.23333
	movq	-136(%rbp), %rax	# fde, tmp284
	movq	16(%rax), %rbx	# fde_164->dw_fde_end, D.23333
	movl	-188(%rbp), %eax	# fde_encoding, tmp285
	movl	%eax, %edi	# tmp285,
	call	size_of_encoded_value	#
	movl	$.LC61, %ecx	#,
	movq	%r12, %rdx	# D.23333,
	movq	%rbx, %rsi	# D.23333,
	movl	%eax, %edi	# D.23330,
	movl	$0, %eax	#,
	call	dw2_asm_output_delta	#
	jmp	.L349	#
.L346:
	.loc 1 1975 0
	movq	-136(%rbp), %rax	# fde, tmp286
	movq	(%rax), %rcx	# fde_164->dw_fde_begin, D.23333
	movl	target_flags(%rip), %eax	# target_flags, target_flags.103
	andl	$33554432, %eax	#, D.23330
	testl	%eax, %eax	# D.23330
	je	.L350	#,
	.loc 1 1975 0 is_stmt 0 discriminator 1
	movl	$8, %eax	#, iftmp.102
	jmp	.L351	#
.L350:
	.loc 1 1975 0 discriminator 2
	movl	$4, %eax	#, iftmp.102
.L351:
	.loc 1 1975 0 discriminator 3
	movl	$.LC60, %edx	#,
	movq	%rcx, %rsi	# D.23333,
	movl	%eax, %edi	# iftmp.102,
	movl	$0, %eax	#,
	call	dw2_asm_output_addr	#
	.loc 1 1977 0 is_stmt 1 discriminator 3
	movq	-136(%rbp), %rax	# fde, tmp287
	movq	(%rax), %rdx	# fde_164->dw_fde_begin, D.23333
	movq	-136(%rbp), %rax	# fde, tmp288
	movq	16(%rax), %rsi	# fde_164->dw_fde_end, D.23333
	movl	target_flags(%rip), %eax	# target_flags, target_flags.105
	andl	$33554432, %eax	#, D.23330
	testl	%eax, %eax	# D.23330
	je	.L352	#,
	.loc 1 1977 0 is_stmt 0 discriminator 1
	movl	$8, %eax	#, iftmp.104
	jmp	.L353	#
.L352:
	.loc 1 1977 0 discriminator 2
	movl	$4, %eax	#, iftmp.104
.L353:
	.loc 1 1977 0 discriminator 3
	movl	$.LC61, %ecx	#,
	movl	%eax, %edi	# iftmp.104,
	movl	$0, %eax	#,
	call	dw2_asm_output_delta	#
.L349:
	.loc 1 1982 0 is_stmt 1
	movzbl	-128(%rbp), %eax	# augmentation, D.23332
	testb	%al, %al	# D.23332
	je	.L354	#,
	.loc 1 1984 0
	cmpl	$0, -196(%rbp)	#, any_lsda_needed
	je	.L355	#,
.LBB13:
	.loc 1 1986 0
	movl	-180(%rbp), %eax	# lsda_encoding, tmp289
	movl	%eax, %edi	# tmp289,
	call	size_of_encoded_value	#
	movl	%eax, -172(%rbp)	# tmp290, size
	.loc 1 1988 0
	cmpl	$80, -180(%rbp)	#, lsda_encoding
	jne	.L356	#,
.LBB14:
	.loc 1 1992 0
	movl	-188(%rbp), %eax	# fde_encoding, tmp291
	movl	%eax, %edi	# tmp291,
	call	size_of_encoded_value	#
	addl	$4, %eax	#, D.23330
	addl	%eax, %eax	# D.23330
	.loc 1 1990 0
	addl	$1, %eax	#, tmp292
	movl	%eax, -160(%rbp)	# tmp292, offset
	.loc 1 1994 0
	movl	-160(%rbp), %eax	# offset, tmp293
	negl	%eax	# D.23330
	movl	%eax, %edx	# D.23330, D.23330
	movl	target_flags(%rip), %eax	# target_flags, target_flags.107
	andl	$33554432, %eax	#, D.23330
	testl	%eax, %eax	# D.23330
	je	.L357	#,
	.loc 1 1994 0 is_stmt 0 discriminator 1
	movl	$7, %eax	#, iftmp.106
	jmp	.L358	#
.L357:
	.loc 1 1994 0 discriminator 2
	movl	$3, %eax	#, iftmp.106
.L358:
	.loc 1 1994 0 discriminator 3
	andl	%edx, %eax	# D.23330, tmp294
	movl	%eax, -156(%rbp)	# tmp294, pad
	.loc 1 1996 0 is_stmt 1 discriminator 3
	movl	-156(%rbp), %eax	# pad, tmp295
	addl	%eax, -172(%rbp)	# tmp295, size
	.loc 1 1997 0 discriminator 3
	movl	-172(%rbp), %eax	# size, tmp296
	cltq
	movq	%rax, %rdi	# D.23325,
	call	size_of_uleb128	#
	cmpl	$1, %eax	#, D.23330
	je	.L356	#,
	.loc 1 1998 0
	movl	$__FUNCTION__.14146, %edx	#,
	movl	$1998, %esi	#,
	movl	$.LC32, %edi	#,
	call	fancy_abort	#
.L356:
.LBE14:
	.loc 1 2001 0
	movl	-172(%rbp), %eax	# size, tmp297
	cltq
	movl	$.LC49, %esi	#,
	movq	%rax, %rdi	# D.23325,
	movl	$0, %eax	#,
	call	dw2_asm_output_data_uleb128	#
	.loc 1 2003 0
	movq	-136(%rbp), %rax	# fde, tmp298
	movzbl	36(%rax), %eax	# *fde_164, D.23327
	andl	$2, %eax	#, D.23327
	testb	%al, %al	# D.23327
	je	.L359	#,
	.loc 1 2005 0
	movq	-136(%rbp), %rax	# fde, tmp299
	movl	32(%rax), %edx	# fde_164->funcdef_number, D.23334
	leaq	-112(%rbp), %rax	#, tmp300
	movl	%edx, %ecx	# D.23334,
	movl	$.LC62, %edx	#,
	movl	$.LC30, %esi	#,
	movq	%rax, %rdi	# tmp300,
	movl	$0, %eax	#,
	call	sprintf	#
	.loc 1 2008 0
	movl	target_flags(%rip), %eax	# target_flags, target_flags.109
	andl	$33554432, %eax	#, D.23330
	.loc 1 2007 0
	testl	%eax, %eax	# D.23330
	je	.L360	#,
	.loc 1 2007 0 is_stmt 0 discriminator 1
	movl	$5, %eax	#, iftmp.108
	jmp	.L361	#
.L360:
	.loc 1 2007 0 discriminator 2
	movl	$4, %eax	#, iftmp.108
.L361:
	.loc 1 2007 0 discriminator 1
	leaq	-112(%rbp), %rdx	#, tmp301
	movl	%eax, %esi	# iftmp.108,
	movl	$68, %edi	#,
	call	gen_rtx_fmt_s	#
	movq	%rax, %rcx	#, D.23329
	movl	-180(%rbp), %eax	# lsda_encoding, tmp302
	movl	$.LC63, %edx	#,
	movq	%rcx, %rsi	# D.23329,
	movl	%eax, %edi	# tmp302,
	movl	$0, %eax	#,
	call	dw2_asm_output_encoded_addr_rtx	#
	jmp	.L354	#
.L359:
	.loc 1 2013 0 is_stmt 1
	cmpl	$80, -180(%rbp)	#, lsda_encoding
	jne	.L363	#,
	.loc 1 2014 0
	movl	target_flags(%rip), %eax	# target_flags, target_flags.111
	andl	$33554432, %eax	#, D.23330
	testl	%eax, %eax	# D.23330
	je	.L364	#,
	.loc 1 2014 0 is_stmt 0 discriminator 1
	movl	$8, %eax	#, iftmp.110
	jmp	.L365	#
.L364:
	.loc 1 2014 0 discriminator 2
	movl	$4, %eax	#, iftmp.110
.L365:
	.loc 1 2014 0 discriminator 3
	movq	%rax, %rdi	# iftmp.110,
	call	floor_log2_wide	#
	testl	%eax, %eax	# D.23330
	je	.L363	#,
	.loc 1 2014 0 discriminator 1
	movl	target_flags(%rip), %eax	# target_flags, target_flags.113
	andl	$33554432, %eax	#, D.23330
	testl	%eax, %eax	# D.23330
	je	.L366	#,
	movl	$8, %eax	#, iftmp.112
	jmp	.L367	#
.L366:
	.loc 1 2014 0 discriminator 2
	movl	$4, %eax	#, iftmp.112
.L367:
	.loc 1 2014 0 discriminator 3
	movq	%rax, %rdi	# iftmp.112,
	call	floor_log2_wide	#
	movl	$1, %edx	#, tmp303
	movl	%eax, %ecx	# D.23330, tmp321
	sall	%cl, %edx	# tmp321, D.23330
	movq	asm_out_file(%rip), %rax	# asm_out_file, asm_out_file.114
	movl	$.LC53, %esi	#,
	movq	%rax, %rdi	# asm_out_file.114,
	movl	$0, %eax	#,
	call	fprintf	#
.L363:
	.loc 1 2016 0 is_stmt 1
	movl	-180(%rbp), %eax	# lsda_encoding, tmp304
	movl	%eax, %edi	# tmp304,
	call	size_of_encoded_value	#
	movl	$.LC64, %edx	#,
	movl	$0, %esi	#,
	movl	%eax, %edi	# D.23330,
	movl	$0, %eax	#,
	call	dw2_asm_output_data	#
.LBE13:
	jmp	.L354	#
.L355:
	.loc 1 2021 0
	movl	$.LC49, %esi	#,
	movl	$0, %edi	#,
	movl	$0, %eax	#,
	call	dw2_asm_output_data_uleb128	#
.L354:
	.loc 1 2026 0
	movq	-136(%rbp), %rax	# fde, tmp305
	movq	(%rax), %rdx	# fde_164->dw_fde_begin, D.23333
	movq	-136(%rbp), %rax	# fde, tmp306
	movq	%rdx, 8(%rax)	# D.23333, fde_164->dw_fde_current_label
	.loc 1 2027 0
	movq	-136(%rbp), %rax	# fde, tmp307
	movq	24(%rax), %rax	# fde_164->dw_fde_cfi, tmp308
	movq	%rax, -152(%rbp)	# tmp308, cfi
	jmp	.L368	#
.L369:
	.loc 1 2028 0 discriminator 2
	movl	-212(%rbp), %edx	# for_eh, tmp309
	movq	-136(%rbp), %rcx	# fde, tmp310
	movq	-152(%rbp), %rax	# cfi, tmp311
	movq	%rcx, %rsi	# tmp310,
	movq	%rax, %rdi	# tmp311,
	call	output_cfi	#
	.loc 1 2027 0 discriminator 2
	movq	-152(%rbp), %rax	# cfi, tmp312
	movq	(%rax), %rax	# cfi_4->dw_cfi_next, tmp313
	movq	%rax, -152(%rbp)	# tmp313, cfi
.L368:
	.loc 1 2027 0 is_stmt 0 discriminator 1
	cmpq	$0, -152(%rbp)	#, cfi
	jne	.L369	#,
	.loc 1 2031 0 is_stmt 1
	movl	target_flags(%rip), %eax	# target_flags, target_flags.116
	andl	$33554432, %eax	#, D.23330
	testl	%eax, %eax	# D.23330
	je	.L370	#,
	.loc 1 2031 0 is_stmt 0 discriminator 1
	movl	$8, %eax	#, iftmp.115
	jmp	.L371	#
.L370:
	.loc 1 2031 0 discriminator 2
	movl	$4, %eax	#, iftmp.115
.L371:
	.loc 1 2031 0 discriminator 3
	movq	%rax, %rdi	# iftmp.115,
	call	floor_log2_wide	#
	testl	%eax, %eax	# D.23330
	je	.L372	#,
	.loc 1 2031 0 discriminator 1
	movl	target_flags(%rip), %eax	# target_flags, target_flags.118
	andl	$33554432, %eax	#, D.23330
	testl	%eax, %eax	# D.23330
	je	.L373	#,
	movl	$8, %eax	#, iftmp.117
	jmp	.L374	#
.L373:
	.loc 1 2031 0 discriminator 2
	movl	$4, %eax	#, iftmp.117
.L374:
	.loc 1 2031 0 discriminator 3
	movq	%rax, %rdi	# iftmp.117,
	call	floor_log2_wide	#
	movl	$1, %edx	#, tmp314
	movl	%eax, %ecx	# D.23330, tmp322
	sall	%cl, %edx	# tmp322, D.23330
	movq	asm_out_file(%rip), %rax	# asm_out_file, asm_out_file.119
	movl	$.LC53, %esi	#,
	movq	%rax, %rdi	# asm_out_file.119,
	movl	$0, %eax	#,
	call	fprintf	#
.L372:
	.loc 1 2033 0 is_stmt 1
	movq	asm_out_file(%rip), %rax	# asm_out_file, asm_out_file.120
	leaq	-80(%rbp), %rdx	#, tmp315
	movq	%rdx, %rsi	# tmp315,
	movq	%rax, %rdi	# asm_out_file.120,
	call	assemble_name	#
	movq	asm_out_file(%rip), %rax	# asm_out_file, asm_out_file.121
	movq	%rax, %rcx	# asm_out_file.121,
	movl	$2, %edx	#,
	movl	$1, %esi	#,
	movl	$.LC31, %edi	#,
	call	fwrite	#
.L343:
	.loc 1 1942 0
	addl	$1, -200(%rbp)	#, i
.L341:
	.loc 1 1942 0 is_stmt 0 discriminator 1
	movl	fde_table_in_use(%rip), %eax	# fde_table_in_use, fde_table_in_use.122
	cmpl	%eax, -200(%rbp)	# fde_table_in_use.122, i
	jb	.L375	#,
	.loc 1 2047 0 is_stmt 1
	movl	flag_debug_asm(%rip), %eax	# flag_debug_asm, flag_debug_asm.123
	testl	%eax, %eax	# flag_debug_asm.123
	je	.L300	#,
	.loc 1 2048 0
	call	app_disable	#
.L300:
	.loc 1 2049 0
	movq	-24(%rbp), %rax	# D.23335, tmp317
	xorq	%fs:40, %rax	#, tmp317
	je	.L378	#,
	call	__stack_chk_fail	#
.L378:
	addq	$208, %rsp	#,
	popq	%rbx	#
	popq	%r12	#
	popq	%rbp	#
	.cfi_def_cfa 7, 8
	ret
	.cfi_endproc
.LFE31:
	.size	output_call_frame_info, .-output_call_frame_info
	.section	.rodata
.LC65:
	.string	"LFB"
	.text
	.globl	dwarf2out_begin_prologue
	.type	dwarf2out_begin_prologue, @function
dwarf2out_begin_prologue:
.LFB32:
	.loc 1 2058 0
	.cfi_startproc
	pushq	%rbp	#
	.cfi_def_cfa_offset 16
	.cfi_offset 6, -16
	movq	%rsp, %rbp	#,
	.cfi_def_cfa_register 6
	subq	$80, %rsp	#,
	movl	%edi, -68(%rbp)	# line, line
	movq	%rsi, -80(%rbp)	# file, file
	.loc 1 2058 0
	movq	%fs:40, %rax	#, tmp123
	movq	%rax, -8(%rbp)	# tmp123, D.23370
	xorl	%eax, %eax	# tmp123
	.loc 1 2062 0
	movq	$0, current_function_func_begin_label(%rip)	#, current_function_func_begin_label
	.loc 1 2072 0
	call	dwarf2out_do_frame	#
	testl	%eax, %eax	# D.23365
	je	.L379	#,
	.loc 1 2076 0
	movl	current_funcdef_number(%rip), %eax	# current_funcdef_number, current_funcdef_number.124
	addl	$1, %eax	#, current_funcdef_number.125
	movl	%eax, current_funcdef_number(%rip)	# current_funcdef_number.125, current_funcdef_number
	.loc 1 2077 0
	movq	current_function_decl(%rip), %rax	# current_function_decl, current_function_decl.126
	movq	%rax, %rdi	# current_function_decl.126,
	call	function_section	#
	.loc 1 2078 0
	movl	current_funcdef_number(%rip), %edx	# current_funcdef_number, current_funcdef_number.127
	leaq	-48(%rbp), %rax	#, tmp91
	movl	%edx, %ecx	# current_funcdef_number.127,
	movl	$.LC65, %edx	#,
	movl	$.LC30, %esi	#,
	movq	%rax, %rdi	# tmp91,
	movl	$0, %eax	#,
	call	sprintf	#
	.loc 1 2080 0
	movl	current_funcdef_number(%rip), %edx	# current_funcdef_number, current_funcdef_number.128
	movq	asm_out_file(%rip), %rax	# asm_out_file, asm_out_file.129
	movl	%edx, %ecx	# current_funcdef_number.128,
	movl	$.LC65, %edx	#,
	movl	$.LC55, %esi	#,
	movq	%rax, %rdi	# asm_out_file.129,
	movl	$0, %eax	#,
	call	fprintf	#
	.loc 1 2082 0
	leaq	-48(%rbp), %rax	#, tmp92
	movq	%rax, %rdi	# tmp92,
	call	get_identifier	#
	movq	%rax, current_function_func_begin_label(%rip)	# current_function_func_begin_label.130, current_function_func_begin_label
	.loc 1 2091 0
	movl	fde_table_in_use(%rip), %edx	# fde_table_in_use, fde_table_in_use.131
	movl	fde_table_allocated(%rip), %eax	# fde_table_allocated, fde_table_allocated.132
	cmpl	%eax, %edx	# fde_table_allocated.132, fde_table_in_use.131
	jne	.L382	#,
	.loc 1 2093 0
	movl	fde_table_allocated(%rip), %eax	# fde_table_allocated, fde_table_allocated.133
	addl	$256, %eax	#, fde_table_allocated.134
	movl	%eax, fde_table_allocated(%rip)	# fde_table_allocated.134, fde_table_allocated
	.loc 1 2095 0
	movl	fde_table_allocated(%rip), %eax	# fde_table_allocated, fde_table_allocated.135
	movl	%eax, %edx	# fde_table_allocated.135, D.23366
	movq	%rdx, %rax	# D.23366, tmp93
	salq	$2, %rax	#, tmp93
	addq	%rdx, %rax	# D.23366, tmp93
	salq	$3, %rax	#, tmp94
	movq	%rax, %rdx	# tmp93, D.23366
	movq	fde_table(%rip), %rax	# fde_table, fde_table.136
	movq	%rdx, %rsi	# D.23366,
	movq	%rax, %rdi	# fde_table.136,
	call	xrealloc	#
	movq	%rax, fde_table(%rip)	# fde_table.137, fde_table
.L382:
	.loc 1 2100 0
	movl	fde_table_in_use(%rip), %eax	# fde_table_in_use, fde_table_in_use.138
	movl	%eax, current_funcdef_fde(%rip)	# fde_table_in_use.138, current_funcdef_fde
	.loc 1 2103 0
	movq	fde_table(%rip), %rcx	# fde_table, fde_table.139
	movl	fde_table_in_use(%rip), %eax	# fde_table_in_use, fde_table_in_use.140
	leal	1(%rax), %edx	#, fde_table_in_use.142
	movl	%edx, fde_table_in_use(%rip)	# fde_table_in_use.142, fde_table_in_use
	movl	%eax, %edx	# fde_table_in_use.141, D.23366
	movq	%rdx, %rax	# D.23366, tmp95
	salq	$2, %rax	#, tmp95
	addq	%rdx, %rax	# D.23366, tmp95
	salq	$3, %rax	#, tmp96
	addq	%rcx, %rax	# fde_table.139, tmp97
	movq	%rax, -56(%rbp)	# tmp97, fde
	.loc 1 2104 0
	leaq	-48(%rbp), %rax	#, tmp98
	movq	%rax, %rdi	# tmp98,
	call	xstrdup	#
	movq	%rax, %rdx	# tmp99, D.23367
	movq	-56(%rbp), %rax	# fde, tmp100
	movq	%rdx, (%rax)	# D.23367, fde_25->dw_fde_begin
	.loc 1 2105 0
	movq	-56(%rbp), %rax	# fde, tmp101
	movq	$0, 8(%rax)	#, fde_25->dw_fde_current_label
	.loc 1 2106 0
	movq	-56(%rbp), %rax	# fde, tmp102
	movq	$0, 16(%rax)	#, fde_25->dw_fde_end
	.loc 1 2107 0
	movq	-56(%rbp), %rax	# fde, tmp103
	movq	$0, 24(%rax)	#, fde_25->dw_fde_cfi
	.loc 1 2108 0
	movl	current_funcdef_number(%rip), %edx	# current_funcdef_number, current_funcdef_number.143
	movq	-56(%rbp), %rax	# fde, tmp104
	movl	%edx, 32(%rax)	# current_funcdef_number.143, fde_25->funcdef_number
	.loc 1 2109 0
	movl	current_function_nothrow(%rip), %eax	# current_function_nothrow, current_function_nothrow.144
	andl	$1, %eax	#, D.23369
	movl	%eax, %edx	# D.23369, D.23369
	movq	-56(%rbp), %rax	# fde, tmp105
	movl	%edx, %ecx	# D.23369, tmp107
	andl	$1, %ecx	#, tmp107
	movzbl	36(%rax), %edx	# fde_25->nothrow, tmp108
	andl	$-2, %edx	#, tmp109
	orl	%ecx, %edx	# tmp107, tmp110
	movb	%dl, 36(%rax)	# tmp110, fde_25->nothrow
	.loc 1 2110 0
	movq	cfun(%rip), %rax	# cfun, cfun.145
	movzbl	426(%rax), %eax	# *cfun.145_31, tmp113
	shrb	$6, %al	#, D.23369
	andl	$1, %eax	#, D.23369
	movq	-56(%rbp), %rdx	# fde, tmp114
	andl	$1, %eax	#, tmp116
	leal	(%rax,%rax), %ecx	#, tmp117
	movzbl	36(%rdx), %eax	# fde_25->uses_eh_lsda, tmp118
	andl	$-3, %eax	#, tmp119
	orl	%ecx, %eax	# tmp117, tmp120
	movb	%al, 36(%rdx)	# tmp120, fde_25->uses_eh_lsda
	.loc 1 2112 0
	movq	$0, old_args_size(%rip)	#, old_args_size
	movq	old_args_size(%rip), %rax	# old_args_size, old_args_size.146
	movq	%rax, args_size(%rip)	# old_args_size.146, args_size
	.loc 1 2117 0
	cmpq	$0, -80(%rbp)	#, file
	je	.L379	#,
	.loc 1 2118 0
	movq	-80(%rbp), %rdx	# file, tmp121
	movl	-68(%rbp), %eax	# line, tmp122
	movq	%rdx, %rsi	# tmp121,
	movl	%eax, %edi	# tmp122,
	call	dwarf2out_source_line	#
.L379:
	.loc 1 2120 0
	movq	-8(%rbp), %rax	# D.23370, tmp124
	xorq	%fs:40, %rax	#, tmp124
	je	.L384	#,
	call	__stack_chk_fail	#
.L384:
	leave
	.cfi_def_cfa 7, 8
	ret
	.cfi_endproc
.LFE32:
	.size	dwarf2out_begin_prologue, .-dwarf2out_begin_prologue
	.section	.rodata
.LC66:
	.string	"LFE"
	.text
	.globl	dwarf2out_end_epilogue
	.type	dwarf2out_end_epilogue, @function
dwarf2out_end_epilogue:
.LFB33:
	.loc 1 2128 0
	.cfi_startproc
	pushq	%rbp	#
	.cfi_def_cfa_offset 16
	.cfi_offset 6, -16
	movq	%rsp, %rbp	#,
	.cfi_def_cfa_register 6
	subq	$64, %rsp	#,
	.loc 1 2128 0
	movq	%fs:40, %rax	#, tmp76
	movq	%rax, -8(%rbp)	# tmp76, D.23375
	xorl	%eax, %eax	# tmp76
	.loc 1 2134 0
	movl	current_funcdef_number(%rip), %edx	# current_funcdef_number, current_funcdef_number.147
	leaq	-48(%rbp), %rax	#, tmp68
	movl	%edx, %ecx	# current_funcdef_number.147,
	movl	$.LC66, %edx	#,
	movl	$.LC30, %esi	#,
	movq	%rax, %rdi	# tmp68,
	movl	$0, %eax	#,
	call	sprintf	#
	.loc 1 2135 0
	movq	asm_out_file(%rip), %rax	# asm_out_file, asm_out_file.148
	leaq	-48(%rbp), %rdx	#, tmp69
	movq	%rdx, %rsi	# tmp69,
	movq	%rax, %rdi	# asm_out_file.148,
	call	assemble_name	#
	movq	asm_out_file(%rip), %rax	# asm_out_file, asm_out_file.149
	movq	%rax, %rcx	# asm_out_file.149,
	movl	$2, %edx	#,
	movl	$1, %esi	#,
	movl	$.LC31, %edi	#,
	call	fwrite	#
	.loc 1 2136 0
	movq	fde_table(%rip), %rcx	# fde_table, fde_table.150
	movl	fde_table_in_use(%rip), %eax	# fde_table_in_use, fde_table_in_use.151
	subl	$1, %eax	#, D.23372
	movl	%eax, %edx	# D.23372, D.23373
	movq	%rdx, %rax	# D.23373, tmp70
	salq	$2, %rax	#, tmp70
	addq	%rdx, %rax	# D.23373, tmp70
	salq	$3, %rax	#, tmp71
	addq	%rcx, %rax	# fde_table.150, tmp72
	movq	%rax, -56(%rbp)	# tmp72, fde
	.loc 1 2137 0
	leaq	-48(%rbp), %rax	#, tmp73
	movq	%rax, %rdi	# tmp73,
	call	xstrdup	#
	movq	%rax, %rdx	# tmp74, D.23374
	movq	-56(%rbp), %rax	# fde, tmp75
	movq	%rdx, 16(%rax)	# D.23374, fde_9->dw_fde_end
	.loc 1 2138 0
	movq	-8(%rbp), %rax	# D.23375, tmp77
	xorq	%fs:40, %rax	#, tmp77
	je	.L386	#,
	call	__stack_chk_fail	#
.L386:
	leave
	.cfi_def_cfa 7, 8
	ret
	.cfi_endproc
.LFE33:
	.size	dwarf2out_end_epilogue, .-dwarf2out_end_epilogue
	.globl	dwarf2out_frame_init
	.type	dwarf2out_frame_init, @function
dwarf2out_frame_init:
.LFB34:
	.loc 1 2142 0
	.cfi_startproc
	pushq	%rbp	#
	.cfi_def_cfa_offset 16
	.cfi_offset 6, -16
	movq	%rsp, %rbp	#,
	.cfi_def_cfa_register 6
	.loc 1 2144 0
	movl	$40, %esi	#,
	movl	$256, %edi	#,
	call	xcalloc	#
	movq	%rax, fde_table(%rip)	# fde_table.152, fde_table
	.loc 1 2145 0
	movl	$256, fde_table_allocated(%rip)	#, fde_table_allocated
	.loc 1 2146 0
	movl	$0, fde_table_in_use(%rip)	#, fde_table_in_use
	.loc 1 2153 0
	movl	target_flags(%rip), %eax	# target_flags, target_flags.154
	andl	$33554432, %eax	#, D.23377
	testl	%eax, %eax	# D.23377
	je	.L388	#,
	.loc 1 2153 0 is_stmt 0 discriminator 1
	movl	$8, %eax	#, iftmp.153
	jmp	.L389	#
.L388:
	.loc 1 2153 0 discriminator 2
	movl	$4, %eax	#, iftmp.153
.L389:
	.loc 1 2153 0 discriminator 3
	movq	%rax, %rdx	# iftmp.153,
	movl	$7, %esi	#,
	movl	$0, %edi	#,
	call	dwarf2out_def_cfa	#
	.loc 1 2154 0 is_stmt 1 discriminator 3
	movl	$7, %esi	#,
	movl	$0, %edi	#,
	call	gen_rtx_REG	#
	movq	%rax, %rsi	# D.23378,
	movl	$0, %edi	#,
	call	gen_rtx_MEM	#
	movq	%rax, %rdi	# D.23378,
	call	initial_return_save	#
	.loc 1 2156 0 discriminator 3
	popq	%rbp	#
	.cfi_def_cfa 7, 8
	ret
	.cfi_endproc
.LFE34:
	.size	dwarf2out_frame_init, .-dwarf2out_frame_init
	.globl	dwarf2out_frame_finish
	.type	dwarf2out_frame_finish, @function
dwarf2out_frame_finish:
.LFB35:
	.loc 1 2160 0
	.cfi_startproc
	pushq	%rbp	#
	.cfi_def_cfa_offset 16
	.cfi_offset 6, -16
	movq	%rsp, %rbp	#,
	.cfi_def_cfa_register 6
	.loc 1 2162 0
	movl	write_symbols(%rip), %eax	# write_symbols, write_symbols.155
	cmpl	$4, %eax	#, write_symbols.155
	je	.L391	#,
	.loc 1 2162 0 is_stmt 0 discriminator 1
	movl	write_symbols(%rip), %eax	# write_symbols, write_symbols.156
	cmpl	$7, %eax	#, write_symbols.156
	jne	.L392	#,
.L391:
	.loc 1 2163 0 is_stmt 1
	movl	$0, %edi	#,
	call	output_call_frame_info	#
.L392:
	.loc 1 2165 0
	movl	flag_unwind_tables(%rip), %eax	# flag_unwind_tables, flag_unwind_tables.157
	testl	%eax, %eax	# flag_unwind_tables.157
	jne	.L393	#,
	.loc 1 2165 0 is_stmt 0 discriminator 1
	movl	flag_exceptions(%rip), %eax	# flag_exceptions, flag_exceptions.158
	testl	%eax, %eax	# flag_exceptions.158
	je	.L390	#,
.L393:
	.loc 1 2166 0 is_stmt 1
	movl	$1, %edi	#,
	call	output_call_frame_info	#
.L390:
	.loc 1 2167 0
	popq	%rbp	#
	.cfi_def_cfa 7, 8
	ret
	.cfi_endproc
.LFE35:
	.size	dwarf2out_frame_finish, .-dwarf2out_frame_finish
	.section	.rodata
.LC67:
	.string	"DW_OP_addr"
.LC68:
	.string	"DW_OP_deref"
.LC69:
	.string	"DW_OP_const1u"
.LC70:
	.string	"DW_OP_const1s"
.LC71:
	.string	"DW_OP_const2u"
.LC72:
	.string	"DW_OP_const2s"
.LC73:
	.string	"DW_OP_const4u"
.LC74:
	.string	"DW_OP_const4s"
.LC75:
	.string	"DW_OP_const8u"
.LC76:
	.string	"DW_OP_const8s"
.LC77:
	.string	"DW_OP_constu"
.LC78:
	.string	"DW_OP_consts"
.LC79:
	.string	"DW_OP_dup"
.LC80:
	.string	"DW_OP_drop"
.LC81:
	.string	"DW_OP_over"
.LC82:
	.string	"DW_OP_pick"
.LC83:
	.string	"DW_OP_swap"
.LC84:
	.string	"DW_OP_rot"
.LC85:
	.string	"DW_OP_xderef"
.LC86:
	.string	"DW_OP_abs"
.LC87:
	.string	"DW_OP_and"
.LC88:
	.string	"DW_OP_div"
.LC89:
	.string	"DW_OP_minus"
.LC90:
	.string	"DW_OP_mod"
.LC91:
	.string	"DW_OP_mul"
.LC92:
	.string	"DW_OP_neg"
.LC93:
	.string	"DW_OP_not"
.LC94:
	.string	"DW_OP_or"
.LC95:
	.string	"DW_OP_plus"
.LC96:
	.string	"DW_OP_plus_uconst"
.LC97:
	.string	"DW_OP_shl"
.LC98:
	.string	"DW_OP_shr"
.LC99:
	.string	"DW_OP_shra"
.LC100:
	.string	"DW_OP_xor"
.LC101:
	.string	"DW_OP_bra"
.LC102:
	.string	"DW_OP_eq"
.LC103:
	.string	"DW_OP_ge"
.LC104:
	.string	"DW_OP_gt"
.LC105:
	.string	"DW_OP_le"
.LC106:
	.string	"DW_OP_lt"
.LC107:
	.string	"DW_OP_ne"
.LC108:
	.string	"DW_OP_skip"
.LC109:
	.string	"DW_OP_lit0"
.LC110:
	.string	"DW_OP_lit1"
.LC111:
	.string	"DW_OP_lit2"
.LC112:
	.string	"DW_OP_lit3"
.LC113:
	.string	"DW_OP_lit4"
.LC114:
	.string	"DW_OP_lit5"
.LC115:
	.string	"DW_OP_lit6"
.LC116:
	.string	"DW_OP_lit7"
.LC117:
	.string	"DW_OP_lit8"
.LC118:
	.string	"DW_OP_lit9"
.LC119:
	.string	"DW_OP_lit10"
.LC120:
	.string	"DW_OP_lit11"
.LC121:
	.string	"DW_OP_lit12"
.LC122:
	.string	"DW_OP_lit13"
.LC123:
	.string	"DW_OP_lit14"
.LC124:
	.string	"DW_OP_lit15"
.LC125:
	.string	"DW_OP_lit16"
.LC126:
	.string	"DW_OP_lit17"
.LC127:
	.string	"DW_OP_lit18"
.LC128:
	.string	"DW_OP_lit19"
.LC129:
	.string	"DW_OP_lit20"
.LC130:
	.string	"DW_OP_lit21"
.LC131:
	.string	"DW_OP_lit22"
.LC132:
	.string	"DW_OP_lit23"
.LC133:
	.string	"DW_OP_lit24"
.LC134:
	.string	"DW_OP_lit25"
.LC135:
	.string	"DW_OP_lit26"
.LC136:
	.string	"DW_OP_lit27"
.LC137:
	.string	"DW_OP_lit28"
.LC138:
	.string	"DW_OP_lit29"
.LC139:
	.string	"DW_OP_lit30"
.LC140:
	.string	"DW_OP_lit31"
.LC141:
	.string	"DW_OP_reg0"
.LC142:
	.string	"DW_OP_reg1"
.LC143:
	.string	"DW_OP_reg2"
.LC144:
	.string	"DW_OP_reg3"
.LC145:
	.string	"DW_OP_reg4"
.LC146:
	.string	"DW_OP_reg5"
.LC147:
	.string	"DW_OP_reg6"
.LC148:
	.string	"DW_OP_reg7"
.LC149:
	.string	"DW_OP_reg8"
.LC150:
	.string	"DW_OP_reg9"
.LC151:
	.string	"DW_OP_reg10"
.LC152:
	.string	"DW_OP_reg11"
.LC153:
	.string	"DW_OP_reg12"
.LC154:
	.string	"DW_OP_reg13"
.LC155:
	.string	"DW_OP_reg14"
.LC156:
	.string	"DW_OP_reg15"
.LC157:
	.string	"DW_OP_reg16"
.LC158:
	.string	"DW_OP_reg17"
.LC159:
	.string	"DW_OP_reg18"
.LC160:
	.string	"DW_OP_reg19"
.LC161:
	.string	"DW_OP_reg20"
.LC162:
	.string	"DW_OP_reg21"
.LC163:
	.string	"DW_OP_reg22"
.LC164:
	.string	"DW_OP_reg23"
.LC165:
	.string	"DW_OP_reg24"
.LC166:
	.string	"DW_OP_reg25"
.LC167:
	.string	"DW_OP_reg26"
.LC168:
	.string	"DW_OP_reg27"
.LC169:
	.string	"DW_OP_reg28"
.LC170:
	.string	"DW_OP_reg29"
.LC171:
	.string	"DW_OP_reg30"
.LC172:
	.string	"DW_OP_reg31"
.LC173:
	.string	"DW_OP_breg0"
.LC174:
	.string	"DW_OP_breg1"
.LC175:
	.string	"DW_OP_breg2"
.LC176:
	.string	"DW_OP_breg3"
.LC177:
	.string	"DW_OP_breg4"
.LC178:
	.string	"DW_OP_breg5"
.LC179:
	.string	"DW_OP_breg6"
.LC180:
	.string	"DW_OP_breg7"
.LC181:
	.string	"DW_OP_breg8"
.LC182:
	.string	"DW_OP_breg9"
.LC183:
	.string	"DW_OP_breg10"
.LC184:
	.string	"DW_OP_breg11"
.LC185:
	.string	"DW_OP_breg12"
.LC186:
	.string	"DW_OP_breg13"
.LC187:
	.string	"DW_OP_breg14"
.LC188:
	.string	"DW_OP_breg15"
.LC189:
	.string	"DW_OP_breg16"
.LC190:
	.string	"DW_OP_breg17"
.LC191:
	.string	"DW_OP_breg18"
.LC192:
	.string	"DW_OP_breg19"
.LC193:
	.string	"DW_OP_breg20"
.LC194:
	.string	"DW_OP_breg21"
.LC195:
	.string	"DW_OP_breg22"
.LC196:
	.string	"DW_OP_breg23"
.LC197:
	.string	"DW_OP_breg24"
.LC198:
	.string	"DW_OP_breg25"
.LC199:
	.string	"DW_OP_breg26"
.LC200:
	.string	"DW_OP_breg27"
.LC201:
	.string	"DW_OP_breg28"
.LC202:
	.string	"DW_OP_breg29"
.LC203:
	.string	"DW_OP_breg30"
.LC204:
	.string	"DW_OP_breg31"
.LC205:
	.string	"DW_OP_regx"
.LC206:
	.string	"DW_OP_fbreg"
.LC207:
	.string	"DW_OP_bregx"
.LC208:
	.string	"DW_OP_piece"
.LC209:
	.string	"DW_OP_deref_size"
.LC210:
	.string	"DW_OP_xderef_size"
.LC211:
	.string	"DW_OP_nop"
.LC212:
	.string	"OP_<unknown>"
	.text
	.type	dwarf_stack_op_name, @function
dwarf_stack_op_name:
.LFB36:
	.loc 1 2293 0
	.cfi_startproc
	pushq	%rbp	#
	.cfi_def_cfa_offset 16
	.cfi_offset 6, -16
	movq	%rsp, %rbp	#,
	.cfi_def_cfa_register 6
	movl	%edi, -4(%rbp)	# op, op
	.loc 1 2294 0
	movl	-4(%rbp), %eax	# op, tmp62
	subl	$3, %eax	#, tmp61
	cmpl	$147, %eax	#, tmp61
	ja	.L396	#,
	movl	%eax, %eax	# tmp61, tmp63
	movq	.L398(,%rax,8), %rax	#, tmp64
	jmp	*%rax	# tmp64
	.section	.rodata
	.align 8
	.align 4
.L398:
	.quad	.L397
	.quad	.L396
	.quad	.L396
	.quad	.L399
	.quad	.L396
	.quad	.L400
	.quad	.L401
	.quad	.L402
	.quad	.L403
	.quad	.L404
	.quad	.L405
	.quad	.L406
	.quad	.L407
	.quad	.L408
	.quad	.L409
	.quad	.L410
	.quad	.L411
	.quad	.L412
	.quad	.L413
	.quad	.L414
	.quad	.L415
	.quad	.L416
	.quad	.L417
	.quad	.L418
	.quad	.L419
	.quad	.L420
	.quad	.L421
	.quad	.L422
	.quad	.L423
	.quad	.L424
	.quad	.L425
	.quad	.L426
	.quad	.L427
	.quad	.L428
	.quad	.L429
	.quad	.L430
	.quad	.L431
	.quad	.L432
	.quad	.L433
	.quad	.L434
	.quad	.L435
	.quad	.L436
	.quad	.L437
	.quad	.L438
	.quad	.L439
	.quad	.L440
	.quad	.L441
	.quad	.L442
	.quad	.L443
	.quad	.L444
	.quad	.L445
	.quad	.L446
	.quad	.L447
	.quad	.L448
	.quad	.L449
	.quad	.L450
	.quad	.L451
	.quad	.L452
	.quad	.L453
	.quad	.L454
	.quad	.L455
	.quad	.L456
	.quad	.L457
	.quad	.L458
	.quad	.L459
	.quad	.L460
	.quad	.L461
	.quad	.L462
	.quad	.L463
	.quad	.L464
	.quad	.L465
	.quad	.L466
	.quad	.L467
	.quad	.L468
	.quad	.L469
	.quad	.L470
	.quad	.L471
	.quad	.L472
	.quad	.L473
	.quad	.L474
	.quad	.L475
	.quad	.L476
	.quad	.L477
	.quad	.L478
	.quad	.L479
	.quad	.L480
	.quad	.L481
	.quad	.L482
	.quad	.L483
	.quad	.L484
	.quad	.L485
	.quad	.L486
	.quad	.L487
	.quad	.L488
	.quad	.L489
	.quad	.L490
	.quad	.L491
	.quad	.L492
	.quad	.L493
	.quad	.L494
	.quad	.L495
	.quad	.L496
	.quad	.L497
	.quad	.L498
	.quad	.L499
	.quad	.L500
	.quad	.L501
	.quad	.L502
	.quad	.L503
	.quad	.L504
	.quad	.L505
	.quad	.L506
	.quad	.L507
	.quad	.L508
	.quad	.L509
	.quad	.L510
	.quad	.L511
	.quad	.L512
	.quad	.L513
	.quad	.L514
	.quad	.L515
	.quad	.L516
	.quad	.L517
	.quad	.L518
	.quad	.L519
	.quad	.L520
	.quad	.L521
	.quad	.L522
	.quad	.L523
	.quad	.L524
	.quad	.L525
	.quad	.L526
	.quad	.L527
	.quad	.L528
	.quad	.L529
	.quad	.L530
	.quad	.L531
	.quad	.L532
	.quad	.L533
	.quad	.L534
	.quad	.L535
	.quad	.L536
	.quad	.L537
	.quad	.L538
	.quad	.L539
	.quad	.L540
	.quad	.L541
	.quad	.L542
	.text
.L397:
	.loc 1 2297 0
	movl	$.LC67, %eax	#, D.23379
	jmp	.L543	#
.L399:
	.loc 1 2299 0
	movl	$.LC68, %eax	#, D.23379
	jmp	.L543	#
.L400:
	.loc 1 2301 0
	movl	$.LC69, %eax	#, D.23379
	jmp	.L543	#
.L401:
	.loc 1 2303 0
	movl	$.LC70, %eax	#, D.23379
	jmp	.L543	#
.L402:
	.loc 1 2305 0
	movl	$.LC71, %eax	#, D.23379
	jmp	.L543	#
.L403:
	.loc 1 2307 0
	movl	$.LC72, %eax	#, D.23379
	jmp	.L543	#
.L404:
	.loc 1 2309 0
	movl	$.LC73, %eax	#, D.23379
	jmp	.L543	#
.L405:
	.loc 1 2311 0
	movl	$.LC74, %eax	#, D.23379
	jmp	.L543	#
.L406:
	.loc 1 2313 0
	movl	$.LC75, %eax	#, D.23379
	jmp	.L543	#
.L407:
	.loc 1 2315 0
	movl	$.LC76, %eax	#, D.23379
	jmp	.L543	#
.L408:
	.loc 1 2317 0
	movl	$.LC77, %eax	#, D.23379
	jmp	.L543	#
.L409:
	.loc 1 2319 0
	movl	$.LC78, %eax	#, D.23379
	jmp	.L543	#
.L410:
	.loc 1 2321 0
	movl	$.LC79, %eax	#, D.23379
	jmp	.L543	#
.L411:
	.loc 1 2323 0
	movl	$.LC80, %eax	#, D.23379
	jmp	.L543	#
.L412:
	.loc 1 2325 0
	movl	$.LC81, %eax	#, D.23379
	jmp	.L543	#
.L413:
	.loc 1 2327 0
	movl	$.LC82, %eax	#, D.23379
	jmp	.L543	#
.L414:
	.loc 1 2329 0
	movl	$.LC83, %eax	#, D.23379
	jmp	.L543	#
.L415:
	.loc 1 2331 0
	movl	$.LC84, %eax	#, D.23379
	jmp	.L543	#
.L416:
	.loc 1 2333 0
	movl	$.LC85, %eax	#, D.23379
	jmp	.L543	#
.L417:
	.loc 1 2335 0
	movl	$.LC86, %eax	#, D.23379
	jmp	.L543	#
.L418:
	.loc 1 2337 0
	movl	$.LC87, %eax	#, D.23379
	jmp	.L543	#
.L419:
	.loc 1 2339 0
	movl	$.LC88, %eax	#, D.23379
	jmp	.L543	#
.L420:
	.loc 1 2341 0
	movl	$.LC89, %eax	#, D.23379
	jmp	.L543	#
.L421:
	.loc 1 2343 0
	movl	$.LC90, %eax	#, D.23379
	jmp	.L543	#
.L422:
	.loc 1 2345 0
	movl	$.LC91, %eax	#, D.23379
	jmp	.L543	#
.L423:
	.loc 1 2347 0
	movl	$.LC92, %eax	#, D.23379
	jmp	.L543	#
.L424:
	.loc 1 2349 0
	movl	$.LC93, %eax	#, D.23379
	jmp	.L543	#
.L425:
	.loc 1 2351 0
	movl	$.LC94, %eax	#, D.23379
	jmp	.L543	#
.L426:
	.loc 1 2353 0
	movl	$.LC95, %eax	#, D.23379
	jmp	.L543	#
.L427:
	.loc 1 2355 0
	movl	$.LC96, %eax	#, D.23379
	jmp	.L543	#
.L428:
	.loc 1 2357 0
	movl	$.LC97, %eax	#, D.23379
	jmp	.L543	#
.L429:
	.loc 1 2359 0
	movl	$.LC98, %eax	#, D.23379
	jmp	.L543	#
.L430:
	.loc 1 2361 0
	movl	$.LC99, %eax	#, D.23379
	jmp	.L543	#
.L431:
	.loc 1 2363 0
	movl	$.LC100, %eax	#, D.23379
	jmp	.L543	#
.L432:
	.loc 1 2365 0
	movl	$.LC101, %eax	#, D.23379
	jmp	.L543	#
.L433:
	.loc 1 2367 0
	movl	$.LC102, %eax	#, D.23379
	jmp	.L543	#
.L434:
	.loc 1 2369 0
	movl	$.LC103, %eax	#, D.23379
	jmp	.L543	#
.L435:
	.loc 1 2371 0
	movl	$.LC104, %eax	#, D.23379
	jmp	.L543	#
.L436:
	.loc 1 2373 0
	movl	$.LC105, %eax	#, D.23379
	jmp	.L543	#
.L437:
	.loc 1 2375 0
	movl	$.LC106, %eax	#, D.23379
	jmp	.L543	#
.L438:
	.loc 1 2377 0
	movl	$.LC107, %eax	#, D.23379
	jmp	.L543	#
.L439:
	.loc 1 2379 0
	movl	$.LC108, %eax	#, D.23379
	jmp	.L543	#
.L440:
	.loc 1 2381 0
	movl	$.LC109, %eax	#, D.23379
	jmp	.L543	#
.L441:
	.loc 1 2383 0
	movl	$.LC110, %eax	#, D.23379
	jmp	.L543	#
.L442:
	.loc 1 2385 0
	movl	$.LC111, %eax	#, D.23379
	jmp	.L543	#
.L443:
	.loc 1 2387 0
	movl	$.LC112, %eax	#, D.23379
	jmp	.L543	#
.L444:
	.loc 1 2389 0
	movl	$.LC113, %eax	#, D.23379
	jmp	.L543	#
.L445:
	.loc 1 2391 0
	movl	$.LC114, %eax	#, D.23379
	jmp	.L543	#
.L446:
	.loc 1 2393 0
	movl	$.LC115, %eax	#, D.23379
	jmp	.L543	#
.L447:
	.loc 1 2395 0
	movl	$.LC116, %eax	#, D.23379
	jmp	.L543	#
.L448:
	.loc 1 2397 0
	movl	$.LC117, %eax	#, D.23379
	jmp	.L543	#
.L449:
	.loc 1 2399 0
	movl	$.LC118, %eax	#, D.23379
	jmp	.L543	#
.L450:
	.loc 1 2401 0
	movl	$.LC119, %eax	#, D.23379
	jmp	.L543	#
.L451:
	.loc 1 2403 0
	movl	$.LC120, %eax	#, D.23379
	jmp	.L543	#
.L452:
	.loc 1 2405 0
	movl	$.LC121, %eax	#, D.23379
	jmp	.L543	#
.L453:
	.loc 1 2407 0
	movl	$.LC122, %eax	#, D.23379
	jmp	.L543	#
.L454:
	.loc 1 2409 0
	movl	$.LC123, %eax	#, D.23379
	jmp	.L543	#
.L455:
	.loc 1 2411 0
	movl	$.LC124, %eax	#, D.23379
	jmp	.L543	#
.L456:
	.loc 1 2413 0
	movl	$.LC125, %eax	#, D.23379
	jmp	.L543	#
.L457:
	.loc 1 2415 0
	movl	$.LC126, %eax	#, D.23379
	jmp	.L543	#
.L458:
	.loc 1 2417 0
	movl	$.LC127, %eax	#, D.23379
	jmp	.L543	#
.L459:
	.loc 1 2419 0
	movl	$.LC128, %eax	#, D.23379
	jmp	.L543	#
.L460:
	.loc 1 2421 0
	movl	$.LC129, %eax	#, D.23379
	jmp	.L543	#
.L461:
	.loc 1 2423 0
	movl	$.LC130, %eax	#, D.23379
	jmp	.L543	#
.L462:
	.loc 1 2425 0
	movl	$.LC131, %eax	#, D.23379
	jmp	.L543	#
.L463:
	.loc 1 2427 0
	movl	$.LC132, %eax	#, D.23379
	jmp	.L543	#
.L464:
	.loc 1 2429 0
	movl	$.LC133, %eax	#, D.23379
	jmp	.L543	#
.L465:
	.loc 1 2431 0
	movl	$.LC134, %eax	#, D.23379
	jmp	.L543	#
.L466:
	.loc 1 2433 0
	movl	$.LC135, %eax	#, D.23379
	jmp	.L543	#
.L467:
	.loc 1 2435 0
	movl	$.LC136, %eax	#, D.23379
	jmp	.L543	#
.L468:
	.loc 1 2437 0
	movl	$.LC137, %eax	#, D.23379
	jmp	.L543	#
.L469:
	.loc 1 2439 0
	movl	$.LC138, %eax	#, D.23379
	jmp	.L543	#
.L470:
	.loc 1 2441 0
	movl	$.LC139, %eax	#, D.23379
	jmp	.L543	#
.L471:
	.loc 1 2443 0
	movl	$.LC140, %eax	#, D.23379
	jmp	.L543	#
.L472:
	.loc 1 2445 0
	movl	$.LC141, %eax	#, D.23379
	jmp	.L543	#
.L473:
	.loc 1 2447 0
	movl	$.LC142, %eax	#, D.23379
	jmp	.L543	#
.L474:
	.loc 1 2449 0
	movl	$.LC143, %eax	#, D.23379
	jmp	.L543	#
.L475:
	.loc 1 2451 0
	movl	$.LC144, %eax	#, D.23379
	jmp	.L543	#
.L476:
	.loc 1 2453 0
	movl	$.LC145, %eax	#, D.23379
	jmp	.L543	#
.L477:
	.loc 1 2455 0
	movl	$.LC146, %eax	#, D.23379
	jmp	.L543	#
.L478:
	.loc 1 2457 0
	movl	$.LC147, %eax	#, D.23379
	jmp	.L543	#
.L479:
	.loc 1 2459 0
	movl	$.LC148, %eax	#, D.23379
	jmp	.L543	#
.L480:
	.loc 1 2461 0
	movl	$.LC149, %eax	#, D.23379
	jmp	.L543	#
.L481:
	.loc 1 2463 0
	movl	$.LC150, %eax	#, D.23379
	jmp	.L543	#
.L482:
	.loc 1 2465 0
	movl	$.LC151, %eax	#, D.23379
	jmp	.L543	#
.L483:
	.loc 1 2467 0
	movl	$.LC152, %eax	#, D.23379
	jmp	.L543	#
.L484:
	.loc 1 2469 0
	movl	$.LC153, %eax	#, D.23379
	jmp	.L543	#
.L485:
	.loc 1 2471 0
	movl	$.LC154, %eax	#, D.23379
	jmp	.L543	#
.L486:
	.loc 1 2473 0
	movl	$.LC155, %eax	#, D.23379
	jmp	.L543	#
.L487:
	.loc 1 2475 0
	movl	$.LC156, %eax	#, D.23379
	jmp	.L543	#
.L488:
	.loc 1 2477 0
	movl	$.LC157, %eax	#, D.23379
	jmp	.L543	#
.L489:
	.loc 1 2479 0
	movl	$.LC158, %eax	#, D.23379
	jmp	.L543	#
.L490:
	.loc 1 2481 0
	movl	$.LC159, %eax	#, D.23379
	jmp	.L543	#
.L491:
	.loc 1 2483 0
	movl	$.LC160, %eax	#, D.23379
	jmp	.L543	#
.L492:
	.loc 1 2485 0
	movl	$.LC161, %eax	#, D.23379
	jmp	.L543	#
.L493:
	.loc 1 2487 0
	movl	$.LC162, %eax	#, D.23379
	jmp	.L543	#
.L494:
	.loc 1 2489 0
	movl	$.LC163, %eax	#, D.23379
	jmp	.L543	#
.L495:
	.loc 1 2491 0
	movl	$.LC164, %eax	#, D.23379
	jmp	.L543	#
.L496:
	.loc 1 2493 0
	movl	$.LC165, %eax	#, D.23379
	jmp	.L543	#
.L497:
	.loc 1 2495 0
	movl	$.LC166, %eax	#, D.23379
	jmp	.L543	#
.L498:
	.loc 1 2497 0
	movl	$.LC167, %eax	#, D.23379
	jmp	.L543	#
.L499:
	.loc 1 2499 0
	movl	$.LC168, %eax	#, D.23379
	jmp	.L543	#
.L500:
	.loc 1 2501 0
	movl	$.LC169, %eax	#, D.23379
	jmp	.L543	#
.L501:
	.loc 1 2503 0
	movl	$.LC170, %eax	#, D.23379
	jmp	.L543	#
.L502:
	.loc 1 2505 0
	movl	$.LC171, %eax	#, D.23379
	jmp	.L543	#
.L503:
	.loc 1 2507 0
	movl	$.LC172, %eax	#, D.23379
	jmp	.L543	#
.L504:
	.loc 1 2509 0
	movl	$.LC173, %eax	#, D.23379
	jmp	.L543	#
.L505:
	.loc 1 2511 0
	movl	$.LC174, %eax	#, D.23379
	jmp	.L543	#
.L506:
	.loc 1 2513 0
	movl	$.LC175, %eax	#, D.23379
	jmp	.L543	#
.L507:
	.loc 1 2515 0
	movl	$.LC176, %eax	#, D.23379
	jmp	.L543	#
.L508:
	.loc 1 2517 0
	movl	$.LC177, %eax	#, D.23379
	jmp	.L543	#
.L509:
	.loc 1 2519 0
	movl	$.LC178, %eax	#, D.23379
	jmp	.L543	#
.L510:
	.loc 1 2521 0
	movl	$.LC179, %eax	#, D.23379
	jmp	.L543	#
.L511:
	.loc 1 2523 0
	movl	$.LC180, %eax	#, D.23379
	jmp	.L543	#
.L512:
	.loc 1 2525 0
	movl	$.LC181, %eax	#, D.23379
	jmp	.L543	#
.L513:
	.loc 1 2527 0
	movl	$.LC182, %eax	#, D.23379
	jmp	.L543	#
.L514:
	.loc 1 2529 0
	movl	$.LC183, %eax	#, D.23379
	jmp	.L543	#
.L515:
	.loc 1 2531 0
	movl	$.LC184, %eax	#, D.23379
	jmp	.L543	#
.L516:
	.loc 1 2533 0
	movl	$.LC185, %eax	#, D.23379
	jmp	.L543	#
.L517:
	.loc 1 2535 0
	movl	$.LC186, %eax	#, D.23379
	jmp	.L543	#
.L518:
	.loc 1 2537 0
	movl	$.LC187, %eax	#, D.23379
	jmp	.L543	#
.L519:
	.loc 1 2539 0
	movl	$.LC188, %eax	#, D.23379
	jmp	.L543	#
.L520:
	.loc 1 2541 0
	movl	$.LC189, %eax	#, D.23379
	jmp	.L543	#
.L521:
	.loc 1 2543 0
	movl	$.LC190, %eax	#, D.23379
	jmp	.L543	#
.L522:
	.loc 1 2545 0
	movl	$.LC191, %eax	#, D.23379
	jmp	.L543	#
.L523:
	.loc 1 2547 0
	movl	$.LC192, %eax	#, D.23379
	jmp	.L543	#
.L524:
	.loc 1 2549 0
	movl	$.LC193, %eax	#, D.23379
	jmp	.L543	#
.L525:
	.loc 1 2551 0
	movl	$.LC194, %eax	#, D.23379
	jmp	.L543	#
.L526:
	.loc 1 2553 0
	movl	$.LC195, %eax	#, D.23379
	jmp	.L543	#
.L527:
	.loc 1 2555 0
	movl	$.LC196, %eax	#, D.23379
	jmp	.L543	#
.L528:
	.loc 1 2557 0
	movl	$.LC197, %eax	#, D.23379
	jmp	.L543	#
.L529:
	.loc 1 2559 0
	movl	$.LC198, %eax	#, D.23379
	jmp	.L543	#
.L530:
	.loc 1 2561 0
	movl	$.LC199, %eax	#, D.23379
	jmp	.L543	#
.L531:
	.loc 1 2563 0
	movl	$.LC200, %eax	#, D.23379
	jmp	.L543	#
.L532:
	.loc 1 2565 0
	movl	$.LC201, %eax	#, D.23379
	jmp	.L543	#
.L533:
	.loc 1 2567 0
	movl	$.LC202, %eax	#, D.23379
	jmp	.L543	#
.L534:
	.loc 1 2569 0
	movl	$.LC203, %eax	#, D.23379
	jmp	.L543	#
.L535:
	.loc 1 2571 0
	movl	$.LC204, %eax	#, D.23379
	jmp	.L543	#
.L536:
	.loc 1 2573 0
	movl	$.LC205, %eax	#, D.23379
	jmp	.L543	#
.L537:
	.loc 1 2575 0
	movl	$.LC206, %eax	#, D.23379
	jmp	.L543	#
.L538:
	.loc 1 2577 0
	movl	$.LC207, %eax	#, D.23379
	jmp	.L543	#
.L539:
	.loc 1 2579 0
	movl	$.LC208, %eax	#, D.23379
	jmp	.L543	#
.L540:
	.loc 1 2581 0
	movl	$.LC209, %eax	#, D.23379
	jmp	.L543	#
.L541:
	.loc 1 2583 0
	movl	$.LC210, %eax	#, D.23379
	jmp	.L543	#
.L542:
	.loc 1 2585 0
	movl	$.LC211, %eax	#, D.23379
	jmp	.L543	#
.L396:
	.loc 1 2587 0
	movl	$.LC212, %eax	#, D.23379
.L543:
	.loc 1 2589 0
	popq	%rbp	#
	.cfi_def_cfa 7, 8
	ret
	.cfi_endproc
.LFE36:
	.size	dwarf_stack_op_name, .-dwarf_stack_op_name
	.type	new_loc_descr, @function
new_loc_descr:
.LFB37:
	.loc 1 2600 0
	.cfi_startproc
	pushq	%rbp	#
	.cfi_def_cfa_offset 16
	.cfi_offset 6, -16
	movq	%rsp, %rbp	#,
	.cfi_def_cfa_register 6
	subq	$48, %rsp	#,
	movl	%edi, -20(%rbp)	# op, op
	movq	%rsi, -32(%rbp)	# oprnd1, oprnd1
	movq	%rdx, -40(%rbp)	# oprnd2, oprnd2
	.loc 1 2603 0
	movl	$72, %esi	#,
	movl	$1, %edi	#,
	call	xcalloc	#
	movq	%rax, -8(%rbp)	# tmp61, descr
	.loc 1 2606 0
	movq	-8(%rbp), %rax	# descr, tmp62
	movl	-20(%rbp), %edx	# op, tmp63
	movl	%edx, 8(%rax)	# tmp63, descr_1->dw_loc_opc
	.loc 1 2607 0
	movq	-8(%rbp), %rax	# descr, tmp64
	movl	$6, 16(%rax)	#, descr_1->dw_loc_oprnd1.val_class
	.loc 1 2608 0
	movq	-8(%rbp), %rax	# descr, tmp65
	movq	-32(%rbp), %rdx	# oprnd1, tmp66
	movq	%rdx, 24(%rax)	# tmp66, descr_1->dw_loc_oprnd1.v.val_unsigned
	.loc 1 2609 0
	movq	-8(%rbp), %rax	# descr, tmp67
	movl	$6, 40(%rax)	#, descr_1->dw_loc_oprnd2.val_class
	.loc 1 2610 0
	movq	-8(%rbp), %rax	# descr, tmp68
	movq	-40(%rbp), %rdx	# oprnd2, tmp69
	movq	%rdx, 48(%rax)	# tmp69, descr_1->dw_loc_oprnd2.v.val_unsigned
	.loc 1 2612 0
	movq	-8(%rbp), %rax	# descr, D.23526
	.loc 1 2613 0
	leave
	.cfi_def_cfa 7, 8
	ret
	.cfi_endproc
.LFE37:
	.size	new_loc_descr, .-new_loc_descr
	.type	add_loc_descr, @function
add_loc_descr:
.LFB38:
	.loc 1 2622 0
	.cfi_startproc
	pushq	%rbp	#
	.cfi_def_cfa_offset 16
	.cfi_offset 6, -16
	movq	%rsp, %rbp	#,
	.cfi_def_cfa_register 6
	movq	%rdi, -24(%rbp)	# list_head, list_head
	movq	%rsi, -32(%rbp)	# descr, descr
	.loc 1 2626 0
	movq	-24(%rbp), %rax	# list_head, tmp61
	movq	%rax, -8(%rbp)	# tmp61, d
	jmp	.L547	#
.L548:
	.loc 1 2626 0 is_stmt 0 discriminator 2
	movq	-8(%rbp), %rax	# d, tmp62
	movq	(%rax), %rax	# *d_1, D.23527
	movq	%rax, -8(%rbp)	# D.23527, d
.L547:
	.loc 1 2626 0 discriminator 1
	movq	-8(%rbp), %rax	# d, tmp63
	movq	(%rax), %rax	# *d_1, D.23527
	testq	%rax, %rax	# D.23527
	jne	.L548	#,
	.loc 1 2629 0 is_stmt 1
	movq	-8(%rbp), %rax	# d, tmp64
	movq	-32(%rbp), %rdx	# descr, tmp65
	movq	%rdx, (%rax)	# tmp65, *d_1
	.loc 1 2630 0
	popq	%rbp	#
	.cfi_def_cfa 7, 8
	ret
	.cfi_endproc
.LFE38:
	.size	add_loc_descr, .-add_loc_descr
	.type	size_of_loc_descr, @function
size_of_loc_descr:
.LFB39:
	.loc 1 2637 0
	.cfi_startproc
	pushq	%rbp	#
	.cfi_def_cfa_offset 16
	.cfi_offset 6, -16
	movq	%rsp, %rbp	#,
	.cfi_def_cfa_register 6
	subq	$32, %rsp	#,
	movq	%rdi, -24(%rbp)	# loc, loc
	.loc 1 2638 0
	movq	$1, -8(%rbp)	#, size
	.loc 1 2640 0
	movq	-24(%rbp), %rax	# loc, tmp92
	movl	8(%rax), %eax	# loc_4(D)->dw_loc_opc, D.23528
	subl	$3, %eax	#, tmp93
	cmpl	$146, %eax	#, tmp93
	ja	.L572	#,
	movl	%eax, %eax	# tmp93, tmp94
	movq	.L552(,%rax,8), %rax	#, tmp95
	jmp	*%rax	# tmp95
	.section	.rodata
	.align 8
	.align 4
.L552:
	.quad	.L551
	.quad	.L572
	.quad	.L572
	.quad	.L572
	.quad	.L572
	.quad	.L553
	.quad	.L553
	.quad	.L554
	.quad	.L554
	.quad	.L555
	.quad	.L555
	.quad	.L556
	.quad	.L556
	.quad	.L557
	.quad	.L558
	.quad	.L572
	.quad	.L572
	.quad	.L572
	.quad	.L559
	.quad	.L572
	.quad	.L572
	.quad	.L572
	.quad	.L572
	.quad	.L572
	.quad	.L572
	.quad	.L572
	.quad	.L572
	.quad	.L572
	.quad	.L572
	.quad	.L572
	.quad	.L572
	.quad	.L572
	.quad	.L560
	.quad	.L572
	.quad	.L572
	.quad	.L572
	.quad	.L572
	.quad	.L561
	.quad	.L572
	.quad	.L572
	.quad	.L572
	.quad	.L572
	.quad	.L572
	.quad	.L572
	.quad	.L561
	.quad	.L572
	.quad	.L572
	.quad	.L572
	.quad	.L572
	.quad	.L572
	.quad	.L572
	.quad	.L572
	.quad	.L572
	.quad	.L572
	.quad	.L572
	.quad	.L572
	.quad	.L572
	.quad	.L572
	.quad	.L572
	.quad	.L572
	.quad	.L572
	.quad	.L572
	.quad	.L572
	.quad	.L572
	.quad	.L572
	.quad	.L572
	.quad	.L572
	.quad	.L572
	.quad	.L572
	.quad	.L572
	.quad	.L572
	.quad	.L572
	.quad	.L572
	.quad	.L572
	.quad	.L572
	.quad	.L572
	.quad	.L572
	.quad	.L572
	.quad	.L572
	.quad	.L572
	.quad	.L572
	.quad	.L572
	.quad	.L572
	.quad	.L572
	.quad	.L572
	.quad	.L572
	.quad	.L572
	.quad	.L572
	.quad	.L572
	.quad	.L572
	.quad	.L572
	.quad	.L572
	.quad	.L572
	.quad	.L572
	.quad	.L572
	.quad	.L572
	.quad	.L572
	.quad	.L572
	.quad	.L572
	.quad	.L572
	.quad	.L572
	.quad	.L572
	.quad	.L572
	.quad	.L572
	.quad	.L572
	.quad	.L572
	.quad	.L572
	.quad	.L572
	.quad	.L572
	.quad	.L562
	.quad	.L562
	.quad	.L562
	.quad	.L562
	.quad	.L562
	.quad	.L562
	.quad	.L562
	.quad	.L562
	.quad	.L562
	.quad	.L562
	.quad	.L562
	.quad	.L562
	.quad	.L562
	.quad	.L562
	.quad	.L562
	.quad	.L562
	.quad	.L562
	.quad	.L562
	.quad	.L562
	.quad	.L562
	.quad	.L562
	.quad	.L562
	.quad	.L562
	.quad	.L562
	.quad	.L562
	.quad	.L562
	.quad	.L562
	.quad	.L562
	.quad	.L562
	.quad	.L562
	.quad	.L562
	.quad	.L562
	.quad	.L563
	.quad	.L564
	.quad	.L565
	.quad	.L566
	.quad	.L567
	.quad	.L567
	.text
.L551:
	.loc 1 2643 0
	movl	target_flags(%rip), %eax	# target_flags, target_flags.160
	andl	$33554432, %eax	#, D.23529
	testl	%eax, %eax	# D.23529
	je	.L568	#,
	.loc 1 2643 0 is_stmt 0 discriminator 1
	movl	$8, %eax	#, iftmp.159
	jmp	.L569	#
.L568:
	.loc 1 2643 0 discriminator 2
	movl	$4, %eax	#, iftmp.159
.L569:
	.loc 1 2643 0 discriminator 3
	addq	%rax, -8(%rbp)	# iftmp.159, size
	.loc 1 2644 0 is_stmt 1 discriminator 3
	jmp	.L570	#
.L553:
	.loc 1 2647 0
	addq	$1, -8(%rbp)	#, size
	.loc 1 2648 0
	jmp	.L570	#
.L554:
	.loc 1 2651 0
	addq	$2, -8(%rbp)	#, size
	.loc 1 2652 0
	jmp	.L570	#
.L555:
	.loc 1 2655 0
	addq	$4, -8(%rbp)	#, size
	.loc 1 2656 0
	jmp	.L570	#
.L556:
	.loc 1 2659 0
	addq	$8, -8(%rbp)	#, size
	.loc 1 2660 0
	jmp	.L570	#
.L557:
	.loc 1 2662 0
	movq	-24(%rbp), %rax	# loc, tmp96
	movq	24(%rax), %rax	# loc_4(D)->dw_loc_oprnd1.v.val_unsigned, D.23530
	movq	%rax, %rdi	# D.23530,
	call	size_of_uleb128	#
	cltq
	addq	%rax, -8(%rbp)	# D.23530, size
	.loc 1 2663 0
	jmp	.L570	#
.L558:
	.loc 1 2665 0
	movq	-24(%rbp), %rax	# loc, tmp97
	movq	24(%rax), %rax	# loc_4(D)->dw_loc_oprnd1.v.val_int, D.23531
	movq	%rax, %rdi	# D.23531,
	call	size_of_sleb128	#
	cltq
	addq	%rax, -8(%rbp)	# D.23530, size
	.loc 1 2666 0
	jmp	.L570	#
.L559:
	.loc 1 2668 0
	addq	$1, -8(%rbp)	#, size
	.loc 1 2669 0
	jmp	.L570	#
.L560:
	.loc 1 2671 0
	movq	-24(%rbp), %rax	# loc, tmp98
	movq	24(%rax), %rax	# loc_4(D)->dw_loc_oprnd1.v.val_unsigned, D.23530
	movq	%rax, %rdi	# D.23530,
	call	size_of_uleb128	#
	cltq
	addq	%rax, -8(%rbp)	# D.23530, size
	.loc 1 2672 0
	jmp	.L570	#
.L561:
	.loc 1 2675 0
	addq	$2, -8(%rbp)	#, size
	.loc 1 2676 0
	jmp	.L570	#
.L562:
	.loc 1 2709 0
	movq	-24(%rbp), %rax	# loc, tmp99
	movq	24(%rax), %rax	# loc_4(D)->dw_loc_oprnd1.v.val_int, D.23531
	movq	%rax, %rdi	# D.23531,
	call	size_of_sleb128	#
	cltq
	addq	%rax, -8(%rbp)	# D.23530, size
	.loc 1 2710 0
	jmp	.L570	#
.L563:
	.loc 1 2712 0
	movq	-24(%rbp), %rax	# loc, tmp100
	movq	24(%rax), %rax	# loc_4(D)->dw_loc_oprnd1.v.val_unsigned, D.23530
	movq	%rax, %rdi	# D.23530,
	call	size_of_uleb128	#
	cltq
	addq	%rax, -8(%rbp)	# D.23530, size
	.loc 1 2713 0
	jmp	.L570	#
.L564:
	.loc 1 2715 0
	movq	-24(%rbp), %rax	# loc, tmp101
	movq	24(%rax), %rax	# loc_4(D)->dw_loc_oprnd1.v.val_int, D.23531
	movq	%rax, %rdi	# D.23531,
	call	size_of_sleb128	#
	cltq
	addq	%rax, -8(%rbp)	# D.23530, size
	.loc 1 2716 0
	jmp	.L570	#
.L565:
	.loc 1 2718 0
	movq	-24(%rbp), %rax	# loc, tmp102
	movq	24(%rax), %rax	# loc_4(D)->dw_loc_oprnd1.v.val_unsigned, D.23530
	movq	%rax, %rdi	# D.23530,
	call	size_of_uleb128	#
	cltq
	addq	%rax, -8(%rbp)	# D.23530, size
	.loc 1 2719 0
	movq	-24(%rbp), %rax	# loc, tmp103
	movq	48(%rax), %rax	# loc_4(D)->dw_loc_oprnd2.v.val_int, D.23531
	movq	%rax, %rdi	# D.23531,
	call	size_of_sleb128	#
	cltq
	addq	%rax, -8(%rbp)	# D.23530, size
	.loc 1 2720 0
	jmp	.L570	#
.L566:
	.loc 1 2722 0
	movq	-24(%rbp), %rax	# loc, tmp104
	movq	24(%rax), %rax	# loc_4(D)->dw_loc_oprnd1.v.val_unsigned, D.23530
	movq	%rax, %rdi	# D.23530,
	call	size_of_uleb128	#
	cltq
	addq	%rax, -8(%rbp)	# D.23530, size
	.loc 1 2723 0
	jmp	.L570	#
.L567:
	.loc 1 2726 0
	addq	$1, -8(%rbp)	#, size
	.loc 1 2727 0
	jmp	.L570	#
.L572:
	.loc 1 2729 0
	nop
.L570:
	.loc 1 2732 0
	movq	-8(%rbp), %rax	# size, D.23530
	.loc 1 2733 0
	leave
	.cfi_def_cfa 7, 8
	ret
	.cfi_endproc
.LFE39:
	.size	size_of_loc_descr, .-size_of_loc_descr
	.type	size_of_locs, @function
size_of_locs:
.LFB40:
	.loc 1 2740 0
	.cfi_startproc
	pushq	%rbp	#
	.cfi_def_cfa_offset 16
	.cfi_offset 6, -16
	movq	%rsp, %rbp	#,
	.cfi_def_cfa_register 6
	subq	$32, %rsp	#,
	movq	%rdi, -24(%rbp)	# loc, loc
	.loc 1 2743 0
	movq	$0, -8(%rbp)	#, size
	jmp	.L574	#
.L575:
	.loc 1 2745 0 discriminator 2
	movq	-8(%rbp), %rax	# size, tmp63
	movl	%eax, %edx	# tmp63, D.23532
	movq	-24(%rbp), %rax	# loc, tmp64
	movl	%edx, 64(%rax)	# D.23532, loc_1->dw_loc_addr
	.loc 1 2746 0 discriminator 2
	movq	-24(%rbp), %rax	# loc, tmp65
	movq	%rax, %rdi	# tmp65,
	call	size_of_loc_descr	#
	addq	%rax, -8(%rbp)	# D.23533, size
	.loc 1 2743 0 discriminator 2
	movq	-24(%rbp), %rax	# loc, tmp66
	movq	(%rax), %rax	# loc_1->dw_loc_next, tmp67
	movq	%rax, -24(%rbp)	# tmp67, loc
.L574:
	.loc 1 2743 0 is_stmt 0 discriminator 1
	cmpq	$0, -24(%rbp)	#, loc
	jne	.L575	#,
	.loc 1 2749 0 is_stmt 1
	movq	-8(%rbp), %rax	# size, D.23533
	.loc 1 2750 0
	leave
	.cfi_def_cfa 7, 8
	ret
	.cfi_endproc
.LFE40:
	.size	size_of_locs, .-size_of_locs
	.type	output_loc_operands, @function
output_loc_operands:
.LFB41:
	.loc 1 2757 0
	.cfi_startproc
	pushq	%rbp	#
	.cfi_def_cfa_offset 16
	.cfi_offset 6, -16
	movq	%rsp, %rbp	#,
	.cfi_def_cfa_register 6
	subq	$48, %rsp	#,
	movq	%rdi, -40(%rbp)	# loc, loc
	.loc 1 2758 0
	movq	-40(%rbp), %rax	# loc, tmp94
	addq	$16, %rax	#, tmp93
	movq	%rax, -16(%rbp)	# tmp93, val1
	.loc 1 2759 0
	movq	-40(%rbp), %rax	# loc, tmp98
	addq	$40, %rax	#, tmp97
	movq	%rax, -8(%rbp)	# tmp97, val2
	.loc 1 2761 0
	movq	-40(%rbp), %rax	# loc, tmp99
	movl	8(%rax), %eax	# loc_2(D)->dw_loc_opc, D.23534
	subl	$3, %eax	#, tmp100
	cmpl	$146, %eax	#, tmp100
	ja	.L601	#,
	movl	%eax, %eax	# tmp100, tmp101
	movq	.L580(,%rax,8), %rax	#, tmp102
	jmp	*%rax	# tmp102
	.section	.rodata
	.align 8
	.align 4
.L580:
	.quad	.L579
	.quad	.L601
	.quad	.L601
	.quad	.L601
	.quad	.L601
	.quad	.L581
	.quad	.L581
	.quad	.L582
	.quad	.L582
	.quad	.L583
	.quad	.L583
	.quad	.L584
	.quad	.L584
	.quad	.L585
	.quad	.L586
	.quad	.L601
	.quad	.L601
	.quad	.L601
	.quad	.L587
	.quad	.L601
	.quad	.L601
	.quad	.L601
	.quad	.L601
	.quad	.L601
	.quad	.L601
	.quad	.L601
	.quad	.L601
	.quad	.L601
	.quad	.L601
	.quad	.L601
	.quad	.L601
	.quad	.L601
	.quad	.L588
	.quad	.L601
	.quad	.L601
	.quad	.L601
	.quad	.L601
	.quad	.L589
	.quad	.L601
	.quad	.L601
	.quad	.L601
	.quad	.L601
	.quad	.L601
	.quad	.L601
	.quad	.L589
	.quad	.L601
	.quad	.L601
	.quad	.L601
	.quad	.L601
	.quad	.L601
	.quad	.L601
	.quad	.L601
	.quad	.L601
	.quad	.L601
	.quad	.L601
	.quad	.L601
	.quad	.L601
	.quad	.L601
	.quad	.L601
	.quad	.L601
	.quad	.L601
	.quad	.L601
	.quad	.L601
	.quad	.L601
	.quad	.L601
	.quad	.L601
	.quad	.L601
	.quad	.L601
	.quad	.L601
	.quad	.L601
	.quad	.L601
	.quad	.L601
	.quad	.L601
	.quad	.L601
	.quad	.L601
	.quad	.L601
	.quad	.L601
	.quad	.L601
	.quad	.L601
	.quad	.L601
	.quad	.L601
	.quad	.L601
	.quad	.L601
	.quad	.L601
	.quad	.L601
	.quad	.L601
	.quad	.L601
	.quad	.L601
	.quad	.L601
	.quad	.L601
	.quad	.L601
	.quad	.L601
	.quad	.L601
	.quad	.L601
	.quad	.L601
	.quad	.L601
	.quad	.L601
	.quad	.L601
	.quad	.L601
	.quad	.L601
	.quad	.L601
	.quad	.L601
	.quad	.L601
	.quad	.L601
	.quad	.L601
	.quad	.L601
	.quad	.L601
	.quad	.L601
	.quad	.L601
	.quad	.L590
	.quad	.L590
	.quad	.L590
	.quad	.L590
	.quad	.L590
	.quad	.L590
	.quad	.L590
	.quad	.L590
	.quad	.L590
	.quad	.L590
	.quad	.L590
	.quad	.L590
	.quad	.L590
	.quad	.L590
	.quad	.L590
	.quad	.L590
	.quad	.L590
	.quad	.L590
	.quad	.L590
	.quad	.L590
	.quad	.L590
	.quad	.L590
	.quad	.L590
	.quad	.L590
	.quad	.L590
	.quad	.L590
	.quad	.L590
	.quad	.L590
	.quad	.L590
	.quad	.L590
	.quad	.L590
	.quad	.L590
	.quad	.L591
	.quad	.L592
	.quad	.L593
	.quad	.L594
	.quad	.L595
	.quad	.L595
	.text
.L579:
	.loc 1 2765 0
	movq	-16(%rbp), %rax	# val1, tmp103
	movq	8(%rax), %rcx	# val1_3->v.val_addr, D.23535
	movl	target_flags(%rip), %eax	# target_flags, target_flags.162
	andl	$33554432, %eax	#, D.23536
	testl	%eax, %eax	# D.23536
	je	.L596	#,
	.loc 1 2765 0 is_stmt 0 discriminator 1
	movl	$8, %eax	#, iftmp.161
	jmp	.L597	#
.L596:
	.loc 1 2765 0 discriminator 2
	movl	$4, %eax	#, iftmp.161
.L597:
	.loc 1 2765 0 discriminator 3
	movl	$0, %edx	#,
	movq	%rcx, %rsi	# D.23535,
	movl	%eax, %edi	# iftmp.161,
	movl	$0, %eax	#,
	call	dw2_asm_output_addr_rtx	#
	.loc 1 2766 0 is_stmt 1 discriminator 3
	jmp	.L577	#
.L582:
	.loc 1 2769 0
	movq	-16(%rbp), %rax	# val1, tmp104
	movq	8(%rax), %rax	# val1_3->v.val_int, D.23537
	movl	$0, %edx	#,
	movq	%rax, %rsi	# D.23538,
	movl	$2, %edi	#,
	movl	$0, %eax	#,
	call	dw2_asm_output_data	#
	.loc 1 2770 0
	jmp	.L577	#
.L583:
	.loc 1 2773 0
	movq	-16(%rbp), %rax	# val1, tmp105
	movq	8(%rax), %rax	# val1_3->v.val_int, D.23537
	movl	$0, %edx	#,
	movq	%rax, %rsi	# D.23538,
	movl	$4, %edi	#,
	movl	$0, %eax	#,
	call	dw2_asm_output_data	#
	.loc 1 2774 0
	jmp	.L577	#
.L584:
	.loc 1 2779 0
	movq	-16(%rbp), %rax	# val1, tmp106
	movq	8(%rax), %rax	# val1_3->v.val_int, D.23537
	movl	$0, %edx	#,
	movq	%rax, %rsi	# D.23538,
	movl	$8, %edi	#,
	movl	$0, %eax	#,
	call	dw2_asm_output_data	#
	.loc 1 2780 0
	jmp	.L577	#
.L589:
.LBB15:
	.loc 1 2786 0
	movq	-16(%rbp), %rax	# val1, tmp107
	movl	(%rax), %eax	# val1_3->val_class, D.23539
	cmpl	$2, %eax	#, D.23539
	jne	.L599	#,
	.loc 1 2787 0
	movq	-16(%rbp), %rax	# val1, tmp108
	movq	8(%rax), %rax	# val1_3->v.val_loc, D.23540
	movl	64(%rax), %edx	# _18->dw_loc_addr, D.23536
	movq	-40(%rbp), %rax	# loc, tmp109
	movl	64(%rax), %eax	# loc_2(D)->dw_loc_addr, D.23536
	movl	$-3, %ecx	#, tmp110
	subl	%eax, %ecx	# D.23536, D.23536
	movl	%ecx, %eax	# D.23536, D.23536
	addl	%edx, %eax	# D.23536, tmp111
	movl	%eax, -20(%rbp)	# tmp111, offset
	.loc 1 2791 0
	movl	-20(%rbp), %eax	# offset, tmp112
	cltq
	movl	$0, %edx	#,
	movq	%rax, %rsi	# D.23538,
	movl	$2, %edi	#,
	movl	$0, %eax	#,
	call	dw2_asm_output_data	#
.LBE15:
	.loc 1 2793 0
	jmp	.L577	#
.L599:
.LBB16:
	.loc 1 2789 0
	movl	$__FUNCTION__.14497, %edx	#,
	movl	$2789, %esi	#,
	movl	$.LC32, %edi	#,
	call	fancy_abort	#
.L581:
.LBE16:
	.loc 1 2812 0
	movq	-16(%rbp), %rax	# val1, tmp113
	movq	8(%rax), %rax	# val1_3->v.val_int, D.23537
	movl	$0, %edx	#,
	movq	%rax, %rsi	# D.23538,
	movl	$1, %edi	#,
	movl	$0, %eax	#,
	call	dw2_asm_output_data	#
	.loc 1 2813 0
	jmp	.L577	#
.L585:
	.loc 1 2815 0
	movq	-16(%rbp), %rax	# val1, tmp114
	movq	8(%rax), %rax	# val1_3->v.val_unsigned, D.23538
	movl	$0, %esi	#,
	movq	%rax, %rdi	# D.23538,
	movl	$0, %eax	#,
	call	dw2_asm_output_data_uleb128	#
	.loc 1 2816 0
	jmp	.L577	#
.L586:
	.loc 1 2818 0
	movq	-16(%rbp), %rax	# val1, tmp115
	movq	8(%rax), %rax	# val1_3->v.val_int, D.23537
	movl	$0, %esi	#,
	movq	%rax, %rdi	# D.23537,
	movl	$0, %eax	#,
	call	dw2_asm_output_data_sleb128	#
	.loc 1 2819 0
	jmp	.L577	#
.L587:
	.loc 1 2821 0
	movq	-16(%rbp), %rax	# val1, tmp116
	movq	8(%rax), %rax	# val1_3->v.val_int, D.23537
	movl	$0, %edx	#,
	movq	%rax, %rsi	# D.23538,
	movl	$1, %edi	#,
	movl	$0, %eax	#,
	call	dw2_asm_output_data	#
	.loc 1 2822 0
	jmp	.L577	#
.L588:
	.loc 1 2824 0
	movq	-16(%rbp), %rax	# val1, tmp117
	movq	8(%rax), %rax	# val1_3->v.val_unsigned, D.23538
	movl	$0, %esi	#,
	movq	%rax, %rdi	# D.23538,
	movl	$0, %eax	#,
	call	dw2_asm_output_data_uleb128	#
	.loc 1 2825 0
	jmp	.L577	#
.L590:
	.loc 1 2858 0
	movq	-16(%rbp), %rax	# val1, tmp118
	movq	8(%rax), %rax	# val1_3->v.val_int, D.23537
	movl	$0, %esi	#,
	movq	%rax, %rdi	# D.23537,
	movl	$0, %eax	#,
	call	dw2_asm_output_data_sleb128	#
	.loc 1 2859 0
	jmp	.L577	#
.L591:
	.loc 1 2861 0
	movq	-16(%rbp), %rax	# val1, tmp119
	movq	8(%rax), %rax	# val1_3->v.val_unsigned, D.23538
	movl	$0, %esi	#,
	movq	%rax, %rdi	# D.23538,
	movl	$0, %eax	#,
	call	dw2_asm_output_data_uleb128	#
	.loc 1 2862 0
	jmp	.L577	#
.L592:
	.loc 1 2864 0
	movq	-16(%rbp), %rax	# val1, tmp120
	movq	8(%rax), %rax	# val1_3->v.val_int, D.23537
	movl	$0, %esi	#,
	movq	%rax, %rdi	# D.23537,
	movl	$0, %eax	#,
	call	dw2_asm_output_data_sleb128	#
	.loc 1 2865 0
	jmp	.L577	#
.L593:
	.loc 1 2867 0
	movq	-16(%rbp), %rax	# val1, tmp121
	movq	8(%rax), %rax	# val1_3->v.val_unsigned, D.23538
	movl	$0, %esi	#,
	movq	%rax, %rdi	# D.23538,
	movl	$0, %eax	#,
	call	dw2_asm_output_data_uleb128	#
	.loc 1 2868 0
	movq	-8(%rbp), %rax	# val2, tmp122
	movq	8(%rax), %rax	# val2_4->v.val_int, D.23537
	movl	$0, %esi	#,
	movq	%rax, %rdi	# D.23537,
	movl	$0, %eax	#,
	call	dw2_asm_output_data_sleb128	#
	.loc 1 2869 0
	jmp	.L577	#
.L594:
	.loc 1 2871 0
	movq	-16(%rbp), %rax	# val1, tmp123
	movq	8(%rax), %rax	# val1_3->v.val_unsigned, D.23538
	movl	$0, %esi	#,
	movq	%rax, %rdi	# D.23538,
	movl	$0, %eax	#,
	call	dw2_asm_output_data_uleb128	#
	.loc 1 2872 0
	jmp	.L577	#
.L595:
	.loc 1 2875 0
	movq	-16(%rbp), %rax	# val1, tmp124
	movq	8(%rax), %rax	# val1_3->v.val_int, D.23537
	movl	$0, %edx	#,
	movq	%rax, %rsi	# D.23538,
	movl	$1, %edi	#,
	movl	$0, %eax	#,
	call	dw2_asm_output_data	#
	.loc 1 2876 0
	jmp	.L577	#
.L601:
	.loc 1 2879 0
	nop
.L577:
	.loc 1 2881 0
	leave
	.cfi_def_cfa 7, 8
	ret
	.cfi_endproc
.LFE41:
	.size	output_loc_operands, .-output_loc_operands
	.type	output_loc_sequence, @function
output_loc_sequence:
.LFB42:
	.loc 1 2888 0
	.cfi_startproc
	pushq	%rbp	#
	.cfi_def_cfa_offset 16
	.cfi_offset 6, -16
	movq	%rsp, %rbp	#,
	.cfi_def_cfa_register 6
	subq	$16, %rsp	#,
	movq	%rdi, -8(%rbp)	# loc, loc
	.loc 1 2889 0
	jmp	.L603	#
.L604:
	.loc 1 2893 0 discriminator 2
	movq	-8(%rbp), %rax	# loc, tmp63
	movl	8(%rax), %eax	# loc_1->dw_loc_opc, D.23541
	.loc 1 2892 0 discriminator 2
	movl	%eax, %edi	# D.23541,
	call	dwarf_stack_op_name	#
	movq	%rax, %rdx	#, D.23542
	movq	-8(%rbp), %rax	# loc, tmp64
	movl	8(%rax), %eax	# loc_1->dw_loc_opc, D.23541
	movl	%eax, %eax	# D.23541, D.23543
	movq	%rdx, %rcx	# D.23542,
	movl	$.LC37, %edx	#,
	movq	%rax, %rsi	# D.23543,
	movl	$1, %edi	#,
	movl	$0, %eax	#,
	call	dw2_asm_output_data	#
	.loc 1 2896 0 discriminator 2
	movq	-8(%rbp), %rax	# loc, tmp65
	movq	%rax, %rdi	# tmp65,
	call	output_loc_operands	#
	.loc 1 2889 0 discriminator 2
	movq	-8(%rbp), %rax	# loc, tmp66
	movq	(%rax), %rax	# loc_1->dw_loc_next, tmp67
	movq	%rax, -8(%rbp)	# tmp67, loc
.L603:
	.loc 1 2889 0 is_stmt 0 discriminator 1
	cmpq	$0, -8(%rbp)	#, loc
	jne	.L604	#,
	.loc 1 2898 0 is_stmt 1
	leave
	.cfi_def_cfa 7, 8
	ret
	.cfi_endproc
.LFE42:
	.size	output_loc_sequence, .-output_loc_sequence
	.type	output_cfa_loc, @function
output_cfa_loc:
.LFB43:
	.loc 1 2906 0
	.cfi_startproc
	pushq	%rbp	#
	.cfi_def_cfa_offset 16
	.cfi_offset 6, -16
	movq	%rsp, %rbp	#,
	.cfi_def_cfa_register 6
	subq	$32, %rsp	#,
	movq	%rdi, -24(%rbp)	# cfi, cfi
	.loc 1 2911 0
	movq	-24(%rbp), %rax	# cfi, tmp59
	movq	16(%rax), %rax	# cfi_1(D)->dw_cfi_oprnd1.dw_cfi_loc, tmp60
	movq	%rax, -16(%rbp)	# tmp60, loc
	.loc 1 2912 0
	movq	-16(%rbp), %rax	# loc, tmp61
	movq	%rax, %rdi	# tmp61,
	call	size_of_locs	#
	movq	%rax, -8(%rbp)	# tmp62, size
	.loc 1 2913 0
	movq	-8(%rbp), %rax	# size, tmp63
	movl	$0, %esi	#,
	movq	%rax, %rdi	# tmp63,
	movl	$0, %eax	#,
	call	dw2_asm_output_data_uleb128	#
	.loc 1 2916 0
	movq	-16(%rbp), %rax	# loc, tmp64
	movq	%rax, %rdi	# tmp64,
	call	output_loc_sequence	#
	.loc 1 2917 0
	leave
	.cfi_def_cfa 7, 8
	ret
	.cfi_endproc
.LFE43:
	.size	output_cfa_loc, .-output_cfa_loc
	.type	build_cfa_loc, @function
build_cfa_loc:
.LFB44:
	.loc 1 2925 0
	.cfi_startproc
	pushq	%rbp	#
	.cfi_def_cfa_offset 16
	.cfi_offset 6, -16
	movq	%rsp, %rbp	#,
	.cfi_def_cfa_register 6
	subq	$32, %rsp	#,
	movq	%rdi, -24(%rbp)	# cfa, cfa
	.loc 1 2928 0
	movq	-24(%rbp), %rax	# cfa, tmp85
	movl	24(%rax), %eax	# cfa_1(D)->indirect, D.23544
	testl	%eax, %eax	# D.23544
	jne	.L607	#,
	.loc 1 2929 0
	movl	$__FUNCTION__.14562, %edx	#,
	movl	$2929, %esi	#,
	movl	$.LC32, %edi	#,
	call	fancy_abort	#
.L607:
	.loc 1 2931 0
	movq	-24(%rbp), %rax	# cfa, tmp86
	movq	16(%rax), %rax	# cfa_1(D)->base_offset, D.23545
	testq	%rax, %rax	# D.23545
	je	.L608	#,
	.loc 1 2933 0
	movq	-24(%rbp), %rax	# cfa, tmp87
	movq	(%rax), %rax	# cfa_1(D)->reg, D.23546
	cmpq	$31, %rax	#, D.23546
	ja	.L609	#,
	.loc 1 2934 0
	movq	-24(%rbp), %rax	# cfa, tmp88
	movq	16(%rax), %rax	# cfa_1(D)->base_offset, D.23545
	movq	-24(%rbp), %rdx	# cfa, tmp89
	movq	(%rdx), %rdx	# cfa_1(D)->reg, D.23546
	leal	112(%rdx), %ecx	#, D.23547
	movl	$0, %edx	#,
	movq	%rax, %rsi	# D.23546,
	movl	%ecx, %edi	# D.23547,
	call	new_loc_descr	#
	movq	%rax, -16(%rbp)	# head.163, head
	jmp	.L611	#
.L609:
	.loc 1 2936 0
	movq	-24(%rbp), %rax	# cfa, tmp90
	movq	16(%rax), %rax	# cfa_1(D)->base_offset, D.23545
	movq	%rax, %rdx	# D.23545, D.23546
	movq	-24(%rbp), %rax	# cfa, tmp91
	movq	(%rax), %rax	# cfa_1(D)->reg, D.23546
	movq	%rax, %rsi	# D.23546,
	movl	$146, %edi	#,
	call	new_loc_descr	#
	movq	%rax, -16(%rbp)	# head.164, head
	jmp	.L611	#
.L608:
	.loc 1 2938 0
	movq	-24(%rbp), %rax	# cfa, tmp92
	movq	(%rax), %rax	# cfa_1(D)->reg, D.23546
	cmpq	$31, %rax	#, D.23546
	ja	.L612	#,
	.loc 1 2939 0
	movq	-24(%rbp), %rax	# cfa, tmp93
	movq	(%rax), %rax	# cfa_1(D)->reg, D.23546
	addl	$80, %eax	#, D.23547
	movl	$0, %edx	#,
	movl	$0, %esi	#,
	movl	%eax, %edi	# D.23547,
	call	new_loc_descr	#
	movq	%rax, -16(%rbp)	# head.165, head
	jmp	.L611	#
.L612:
	.loc 1 2941 0
	movq	-24(%rbp), %rax	# cfa, tmp94
	movq	(%rax), %rax	# cfa_1(D)->reg, D.23546
	movl	$0, %edx	#,
	movq	%rax, %rsi	# D.23546,
	movl	$144, %edi	#,
	call	new_loc_descr	#
	movq	%rax, -16(%rbp)	# head.166, head
.L611:
	.loc 1 2943 0
	movq	-16(%rbp), %rax	# head, head.167
	movl	$5, 16(%rax)	#, head.167_22->dw_loc_oprnd1.val_class
	.loc 1 2944 0
	movl	$0, %edx	#,
	movl	$0, %esi	#,
	movl	$6, %edi	#,
	call	new_loc_descr	#
	movq	%rax, -8(%rbp)	# tmp95, tmp
	.loc 1 2945 0
	movq	-8(%rbp), %rdx	# tmp, tmp96
	leaq	-16(%rbp), %rax	#, tmp97
	movq	%rdx, %rsi	# tmp96,
	movq	%rax, %rdi	# tmp97,
	call	add_loc_descr	#
	.loc 1 2946 0
	movq	-24(%rbp), %rax	# cfa, tmp98
	movq	8(%rax), %rax	# cfa_1(D)->offset, D.23545
	testq	%rax, %rax	# D.23545
	je	.L613	#,
	.loc 1 2948 0
	movq	-24(%rbp), %rax	# cfa, tmp99
	movq	8(%rax), %rax	# cfa_1(D)->offset, D.23545
	movl	$0, %edx	#,
	movq	%rax, %rsi	# D.23546,
	movl	$35, %edi	#,
	call	new_loc_descr	#
	movq	%rax, -8(%rbp)	# tmp100, tmp
	.loc 1 2949 0
	movq	-8(%rbp), %rdx	# tmp, tmp101
	leaq	-16(%rbp), %rax	#, tmp102
	movq	%rdx, %rsi	# tmp101,
	movq	%rax, %rdi	# tmp102,
	call	add_loc_descr	#
.L613:
	.loc 1 2952 0
	movq	-16(%rbp), %rax	# head, D.23548
	.loc 1 2953 0
	leave
	.cfi_def_cfa 7, 8
	ret
	.cfi_endproc
.LFE44:
	.size	build_cfa_loc, .-build_cfa_loc
	.section	.rodata
.LC213:
	.string	"DW_LOC_OP %s not implemented\n"
	.text
	.type	get_cfa_from_loc_descr, @function
get_cfa_from_loc_descr:
.LFB45:
	.loc 1 2962 0
	.cfi_startproc
	pushq	%rbp	#
	.cfi_def_cfa_offset 16
	.cfi_offset 6, -16
	movq	%rsp, %rbp	#,
	.cfi_def_cfa_register 6
	subq	$32, %rsp	#,
	movq	%rdi, -24(%rbp)	# cfa, cfa
	movq	%rsi, -32(%rbp)	# loc, loc
	.loc 1 2964 0
	movq	-24(%rbp), %rax	# cfa, tmp73
	movq	$0, 8(%rax)	#, cfa_2(D)->offset
	.loc 1 2965 0
	movq	-24(%rbp), %rax	# cfa, tmp74
	movq	$0, 16(%rax)	#, cfa_2(D)->base_offset
	.loc 1 2966 0
	movq	-24(%rbp), %rax	# cfa, tmp75
	movl	$0, 24(%rax)	#, cfa_2(D)->indirect
	.loc 1 2967 0
	movq	-24(%rbp), %rax	# cfa, tmp76
	movq	$-1, (%rax)	#, cfa_2(D)->reg
	.loc 1 2969 0
	movq	-32(%rbp), %rax	# loc, tmp77
	movq	%rax, -8(%rbp)	# tmp77, ptr
	jmp	.L616	#
.L626:
.LBB17:
	.loc 1 2971 0
	movq	-8(%rbp), %rax	# ptr, tmp78
	movl	8(%rax), %eax	# ptr_1->dw_loc_opc, tmp79
	movl	%eax, -12(%rbp)	# tmp79, op
	.loc 1 2973 0
	movl	-12(%rbp), %eax	# op, op
	cmpl	$111, %eax	#, op
	ja	.L618	#,
	cmpl	$80, %eax	#, op
	jae	.L619	#,
	cmpl	$6, %eax	#, op
	je	.L620	#,
	cmpl	$35, %eax	#, op
	je	.L621	#,
	jmp	.L617	#
.L618:
	cmpl	$144, %eax	#, op
	je	.L622	#,
	cmpl	$144, %eax	#, op
	jb	.L623	#,
	cmpl	$146, %eax	#, op
	je	.L624	#,
	jmp	.L617	#
.L619:
	.loc 1 3007 0
	movl	-12(%rbp), %eax	# op, tmp81
	subl	$80, %eax	#, D.23549
	movl	%eax, %edx	# D.23549, D.23550
	movq	-24(%rbp), %rax	# cfa, tmp82
	movq	%rdx, (%rax)	# D.23550, cfa_2(D)->reg
	.loc 1 3008 0
	jmp	.L625	#
.L622:
	.loc 1 3010 0
	movq	-8(%rbp), %rax	# ptr, tmp83
	movq	24(%rax), %rax	# ptr_1->dw_loc_oprnd1.v.val_int, D.23551
	movq	%rax, %rdx	# D.23551, D.23550
	movq	-24(%rbp), %rax	# cfa, tmp84
	movq	%rdx, (%rax)	# D.23550, cfa_2(D)->reg
	.loc 1 3011 0
	jmp	.L625	#
.L623:
	.loc 1 3044 0
	movl	-12(%rbp), %eax	# op, tmp85
	subl	$112, %eax	#, D.23549
	movl	%eax, %edx	# D.23549, D.23550
	movq	-24(%rbp), %rax	# cfa, tmp86
	movq	%rdx, (%rax)	# D.23550, cfa_2(D)->reg
	.loc 1 3045 0
	movq	-8(%rbp), %rax	# ptr, tmp87
	movq	24(%rax), %rdx	# ptr_1->dw_loc_oprnd1.v.val_int, D.23551
	movq	-24(%rbp), %rax	# cfa, tmp88
	movq	%rdx, 16(%rax)	# D.23551, cfa_2(D)->base_offset
	.loc 1 3046 0
	jmp	.L625	#
.L624:
	.loc 1 3048 0
	movq	-8(%rbp), %rax	# ptr, tmp89
	movq	24(%rax), %rax	# ptr_1->dw_loc_oprnd1.v.val_int, D.23551
	movq	%rax, %rdx	# D.23551, D.23550
	movq	-24(%rbp), %rax	# cfa, tmp90
	movq	%rdx, (%rax)	# D.23550, cfa_2(D)->reg
	.loc 1 3049 0
	movq	-8(%rbp), %rax	# ptr, tmp91
	movq	48(%rax), %rdx	# ptr_1->dw_loc_oprnd2.v.val_int, D.23551
	movq	-24(%rbp), %rax	# cfa, tmp92
	movq	%rdx, 16(%rax)	# D.23551, cfa_2(D)->base_offset
	.loc 1 3050 0
	jmp	.L625	#
.L620:
	.loc 1 3052 0
	movq	-24(%rbp), %rax	# cfa, tmp93
	movl	$1, 24(%rax)	#, cfa_2(D)->indirect
	.loc 1 3053 0
	jmp	.L625	#
.L621:
	.loc 1 3055 0
	movq	-8(%rbp), %rax	# ptr, tmp94
	movq	24(%rax), %rax	# ptr_1->dw_loc_oprnd1.v.val_unsigned, D.23550
	movq	%rax, %rdx	# D.23550, D.23551
	movq	-24(%rbp), %rax	# cfa, tmp95
	movq	%rdx, 8(%rax)	# D.23551, cfa_2(D)->offset
	.loc 1 3056 0
	jmp	.L625	#
.L617:
	.loc 1 3059 0
	movq	-8(%rbp), %rax	# ptr, tmp96
	movl	8(%rax), %eax	# ptr_1->dw_loc_opc, D.23552
	.loc 1 3058 0
	movl	%eax, %edi	# D.23552,
	call	dwarf_stack_op_name	#
	movq	%rax, %rsi	# D.23553,
	movl	$.LC213, %edi	#,
	movl	$0, %eax	#,
	call	internal_error	#
.L625:
.LBE17:
	.loc 1 2969 0
	movq	-8(%rbp), %rax	# ptr, tmp97
	movq	(%rax), %rax	# ptr_1->dw_loc_next, tmp98
	movq	%rax, -8(%rbp)	# tmp98, ptr
.L616:
	.loc 1 2969 0 is_stmt 0 discriminator 1
	cmpq	$0, -8(%rbp)	#, ptr
	jne	.L626	#,
	.loc 1 3062 0 is_stmt 1
	leave
	.cfi_def_cfa 7, 8
	ret
	.cfi_endproc
.LFE45:
	.size	get_cfa_from_loc_descr, .-get_cfa_from_loc_descr
	.globl	dwarf2_debug_hooks
	.data
	.align 32
	.type	dwarf2_debug_hooks, @object
	.size	dwarf2_debug_hooks, 160
dwarf2_debug_hooks:
# init:
	.quad	dwarf2out_init
# finish:
	.quad	dwarf2out_finish
# define:
	.quad	dwarf2out_define
# undef:
	.quad	dwarf2out_undef
# start_source_file:
	.quad	dwarf2out_start_source_file
# end_source_file:
	.quad	dwarf2out_end_source_file
# begin_block:
	.quad	dwarf2out_begin_block
# end_block:
	.quad	dwarf2out_end_block
# ignore_block:
	.quad	dwarf2out_ignore_block
# source_line:
	.quad	dwarf2out_source_line
# begin_prologue:
	.quad	dwarf2out_begin_prologue
# end_prologue:
	.quad	debug_nothing_int
# end_epilogue:
	.quad	dwarf2out_end_epilogue
# begin_function:
	.quad	debug_nothing_tree
# end_function:
	.quad	debug_nothing_int
# function_decl:
	.quad	dwarf2out_decl
# global_decl:
	.quad	dwarf2out_global_decl
# deferred_inline_function:
	.quad	debug_nothing_tree
# outlining_inline_function:
	.quad	dwarf2out_abstract_function
# label:
	.quad	debug_nothing_rtx
	.local	next_die_offset
	.comm	next_die_offset,8,8
	.local	comp_unit_die
	.comm	comp_unit_die,8,8
	.local	limbo_die_list
	.comm	limbo_die_list,8,8
	.local	file_table
	.comm	file_table,24,16
	.local	primary_filename
	.comm	primary_filename,8,8
	.local	decl_die_table
	.comm	decl_die_table,8,8
	.local	decl_die_table_allocated
	.comm	decl_die_table_allocated,4,4
	.local	decl_die_table_in_use
	.comm	decl_die_table_in_use,4,4
	.comm	decl_scope_table,8,8
	.local	abbrev_die_table
	.comm	abbrev_die_table,8,8
	.local	abbrev_die_table_allocated
	.comm	abbrev_die_table_allocated,4,4
	.local	abbrev_die_table_in_use
	.comm	abbrev_die_table_in_use,4,4
	.local	line_info_table
	.comm	line_info_table,8,8
	.local	line_info_table_allocated
	.comm	line_info_table_allocated,4,4
	.local	separate_line_info_table_in_use
	.comm	separate_line_info_table_in_use,4,4
	.local	separate_line_info_table
	.comm	separate_line_info_table,8,8
	.local	separate_line_info_table_allocated
	.comm	separate_line_info_table_allocated,4,4
	.local	line_info_table_in_use
	.comm	line_info_table_in_use,4,4
	.local	pubname_table
	.comm	pubname_table,8,8
	.local	pubname_table_allocated
	.comm	pubname_table_allocated,4,4
	.local	pubname_table_in_use
	.comm	pubname_table_in_use,4,4
	.local	arange_table
	.comm	arange_table,8,8
	.local	arange_table_allocated
	.comm	arange_table_allocated,4,4
	.local	arange_table_in_use
	.comm	arange_table_in_use,4,4
	.local	ranges_table
	.comm	ranges_table,8,8
	.local	ranges_table_allocated
	.comm	ranges_table_allocated,4,4
	.local	ranges_table_in_use
	.comm	ranges_table_in_use,4,4
	.local	have_location_lists
	.comm	have_location_lists,4,4
	.comm	incomplete_types,8,8
	.local	current_function_has_inlines
	.comm	current_function_has_inlines,4,4
	.local	used_rtx_varray
	.comm	used_rtx_varray,8,8
	.local	text_end_label
	.comm	text_end_label,30,16
	.local	text_section_label
	.comm	text_section_label,30,16
	.local	abbrev_section_label
	.comm	abbrev_section_label,30,16
	.local	debug_info_section_label
	.comm	debug_info_section_label,30,16
	.local	debug_line_section_label
	.comm	debug_line_section_label,30,16
	.local	macinfo_section_label
	.comm	macinfo_section_label,30,16
	.local	loc_section_label
	.comm	loc_section_label,30,16
	.local	ranges_section_label
	.comm	ranges_section_label,60,32
	.local	demangle_name_func
	.comm	demangle_name_func,8,8
	.text
	.globl	dwarf2out_set_demangle_name_func
	.type	dwarf2out_set_demangle_name_func, @function
dwarf2out_set_demangle_name_func:
.LFB46:
	.loc 1 3797 0
	.cfi_startproc
	pushq	%rbp	#
	.cfi_def_cfa_offset 16
	.cfi_offset 6, -16
	movq	%rsp, %rbp	#,
	.cfi_def_cfa_register 6
	movq	%rdi, -8(%rbp)	# func, func
	.loc 1 3798 0
	movq	-8(%rbp), %rax	# func, tmp59
	movq	%rax, demangle_name_func(%rip)	# tmp59, demangle_name_func
	.loc 1 3799 0
	popq	%rbp	#
	.cfi_def_cfa 7, 8
	ret
	.cfi_endproc
.LFE46:
	.size	dwarf2out_set_demangle_name_func, .-dwarf2out_set_demangle_name_func
	.type	is_pseudo_reg, @function
is_pseudo_reg:
.LFB47:
	.loc 1 3806 0
	.cfi_startproc
	pushq	%rbp	#
	.cfi_def_cfa_offset 16
	.cfi_offset 6, -16
	movq	%rsp, %rbp	#,
	.cfi_def_cfa_register 6
	movq	%rdi, -8(%rbp)	# rtl, rtl
	.loc 1 3807 0
	movq	-8(%rbp), %rax	# rtl, tmp67
	movzwl	(%rax), %eax	# rtl_2(D)->code, D.23556
	.loc 1 3808 0
	cmpw	$61, %ax	#, D.23556
	jne	.L629	#,
	.loc 1 3807 0
	movq	-8(%rbp), %rax	# rtl, tmp68
	movl	8(%rax), %eax	# rtl_2(D)->fld[0].rtuint, D.23557
	cmpl	$52, %eax	#, D.23557
	ja	.L630	#,
.L629:
	.loc 1 3808 0 discriminator 1
	movq	-8(%rbp), %rax	# rtl, tmp69
	movzwl	(%rax), %eax	# rtl_2(D)->code, D.23556
	cmpw	$63, %ax	#, D.23556
	jne	.L631	#,
	.loc 1 3809 0
	movq	-8(%rbp), %rax	# rtl, tmp70
	movq	8(%rax), %rax	# rtl_2(D)->fld[0].rtx, D.23558
	movl	8(%rax), %eax	# _6->fld[0].rtuint, D.23557
	cmpl	$52, %eax	#, D.23557
	jbe	.L631	#,
.L630:
	.loc 1 3808 0
	movl	$1, %eax	#, iftmp.521
	jmp	.L632	#
.L631:
	.loc 1 3808 0 is_stmt 0 discriminator 2
	movl	$0, %eax	#, iftmp.521
.L632:
	.loc 1 3810 0 is_stmt 1
	popq	%rbp	#
	.cfi_def_cfa 7, 8
	ret
	.cfi_endproc
.LFE47:
	.size	is_pseudo_reg, .-is_pseudo_reg
	.type	type_main_variant, @function
type_main_variant:
.LFB48:
	.loc 1 3818 0
	.cfi_startproc
	pushq	%rbp	#
	.cfi_def_cfa_offset 16
	.cfi_offset 6, -16
	movq	%rsp, %rbp	#,
	.cfi_def_cfa_register 6
	movq	%rdi, -8(%rbp)	# type, type
	.loc 1 3819 0
	movq	-8(%rbp), %rax	# type, tmp63
	movq	128(%rax), %rax	# type_3(D)->type.main_variant, tmp64
	movq	%rax, -8(%rbp)	# tmp64, type
	.loc 1 3826 0
	movq	-8(%rbp), %rax	# type, tmp65
	movzbl	16(%rax), %eax	# type_4->common.code, D.23560
	cmpb	$18, %al	#, D.23560
	jne	.L635	#,
	.loc 1 3827 0
	jmp	.L636	#
.L637:
	.loc 1 3828 0
	movq	-8(%rbp), %rax	# type, tmp66
	movq	128(%rax), %rax	# type_1->type.main_variant, tmp67
	movq	%rax, -8(%rbp)	# tmp67, type
.L636:
	.loc 1 3827 0 discriminator 1
	movq	-8(%rbp), %rax	# type, tmp68
	movq	128(%rax), %rax	# type_1->type.main_variant, D.23561
	cmpq	-8(%rbp), %rax	# type, D.23561
	jne	.L637	#,
.L635:
	.loc 1 3830 0
	movq	-8(%rbp), %rax	# type, D.23562
	.loc 1 3831 0
	popq	%rbp	#
	.cfi_def_cfa 7, 8
	ret
	.cfi_endproc
.LFE48:
	.size	type_main_variant, .-type_main_variant
	.type	is_tagged_type, @function
is_tagged_type:
.LFB49:
	.loc 1 3838 0
	.cfi_startproc
	pushq	%rbp	#
	.cfi_def_cfa_offset 16
	.cfi_offset 6, -16
	movq	%rsp, %rbp	#,
	.cfi_def_cfa_register 6
	movq	%rdi, -24(%rbp)	# type, type
	.loc 1 3839 0
	movq	-24(%rbp), %rax	# type, tmp63
	movzbl	16(%rax), %eax	# type_2(D)->common.code, D.23563
	movzbl	%al, %eax	# D.23563, tmp64
	movl	%eax, -4(%rbp)	# tmp64, code
	.loc 1 3842 0
	cmpl	$20, -4(%rbp)	#, code
	je	.L640	#,
	.loc 1 3841 0
	cmpl	$21, -4(%rbp)	#, code
	je	.L640	#,
	.loc 1 3842 0
	cmpl	$22, -4(%rbp)	#, code
	je	.L640	#,
	.loc 1 3842 0 is_stmt 0 discriminator 1
	cmpl	$10, -4(%rbp)	#, code
	jne	.L641	#,
.L640:
	movl	$1, %eax	#, iftmp.594
	jmp	.L642	#
.L641:
	.loc 1 3842 0 discriminator 2
	movl	$0, %eax	#, iftmp.594
.L642:
	.loc 1 3843 0 is_stmt 1
	popq	%rbp	#
	.cfi_def_cfa 7, 8
	ret
	.cfi_endproc
.LFE49:
	.size	is_tagged_type, .-is_tagged_type
	.section	.rodata
.LC214:
	.string	"DW_TAG_padding"
.LC215:
	.string	"DW_TAG_array_type"
.LC216:
	.string	"DW_TAG_class_type"
.LC217:
	.string	"DW_TAG_entry_point"
.LC218:
	.string	"DW_TAG_enumeration_type"
.LC219:
	.string	"DW_TAG_formal_parameter"
.LC220:
	.string	"DW_TAG_imported_declaration"
.LC221:
	.string	"DW_TAG_label"
.LC222:
	.string	"DW_TAG_lexical_block"
.LC223:
	.string	"DW_TAG_member"
.LC224:
	.string	"DW_TAG_pointer_type"
.LC225:
	.string	"DW_TAG_reference_type"
.LC226:
	.string	"DW_TAG_compile_unit"
.LC227:
	.string	"DW_TAG_string_type"
.LC228:
	.string	"DW_TAG_structure_type"
.LC229:
	.string	"DW_TAG_subroutine_type"
.LC230:
	.string	"DW_TAG_typedef"
.LC231:
	.string	"DW_TAG_union_type"
.LC232:
	.string	"DW_TAG_unspecified_parameters"
.LC233:
	.string	"DW_TAG_variant"
.LC234:
	.string	"DW_TAG_common_block"
.LC235:
	.string	"DW_TAG_common_inclusion"
.LC236:
	.string	"DW_TAG_inheritance"
.LC237:
	.string	"DW_TAG_inlined_subroutine"
.LC238:
	.string	"DW_TAG_module"
.LC239:
	.string	"DW_TAG_ptr_to_member_type"
.LC240:
	.string	"DW_TAG_set_type"
.LC241:
	.string	"DW_TAG_subrange_type"
.LC242:
	.string	"DW_TAG_with_stmt"
.LC243:
	.string	"DW_TAG_access_declaration"
.LC244:
	.string	"DW_TAG_base_type"
.LC245:
	.string	"DW_TAG_catch_block"
.LC246:
	.string	"DW_TAG_const_type"
.LC247:
	.string	"DW_TAG_constant"
.LC248:
	.string	"DW_TAG_enumerator"
.LC249:
	.string	"DW_TAG_file_type"
.LC250:
	.string	"DW_TAG_friend"
.LC251:
	.string	"DW_TAG_namelist"
.LC252:
	.string	"DW_TAG_namelist_item"
.LC253:
	.string	"DW_TAG_packed_type"
.LC254:
	.string	"DW_TAG_subprogram"
.LC255:
	.string	"DW_TAG_template_type_param"
.LC256:
	.string	"DW_TAG_template_value_param"
.LC257:
	.string	"DW_TAG_thrown_type"
.LC258:
	.string	"DW_TAG_try_block"
.LC259:
	.string	"DW_TAG_variant_part"
.LC260:
	.string	"DW_TAG_variable"
.LC261:
	.string	"DW_TAG_volatile_type"
.LC262:
	.string	"DW_TAG_MIPS_loop"
.LC263:
	.string	"DW_TAG_format_label"
.LC264:
	.string	"DW_TAG_function_template"
.LC265:
	.string	"DW_TAG_class_template"
.LC266:
	.string	"DW_TAG_GNU_BINCL"
.LC267:
	.string	"DW_TAG_GNU_EINCL"
.LC268:
	.string	"DW_TAG_<unknown>"
	.text
	.type	dwarf_tag_name, @function
dwarf_tag_name:
.LFB50:
	.loc 1 3850 0
	.cfi_startproc
	pushq	%rbp	#
	.cfi_def_cfa_offset 16
	.cfi_offset 6, -16
	movq	%rsp, %rbp	#,
	.cfi_def_cfa_register 6
	movl	%edi, -4(%rbp)	# tag, tag
	.loc 1 3851 0
	movl	-4(%rbp), %eax	# tag, tag
	cmpl	$32, %eax	#, tag
	je	.L646	#,
	cmpl	$32, %eax	#, tag
	ja	.L647	#,
	cmpl	$17, %eax	#, tag
	je	.L648	#,
	cmpl	$17, %eax	#, tag
	ja	.L649	#,
	cmpl	$5, %eax	#, tag
	je	.L650	#,
	cmpl	$5, %eax	#, tag
	ja	.L651	#,
	cmpl	$2, %eax	#, tag
	je	.L652	#,
	cmpl	$2, %eax	#, tag
	ja	.L653	#,
	testl	%eax, %eax	# tag
	je	.L654	#,
	cmpl	$1, %eax	#, tag
	je	.L655	#,
	jmp	.L645	#
.L653:
	cmpl	$3, %eax	#, tag
	je	.L656	#,
	cmpl	$4, %eax	#, tag
	je	.L657	#,
	jmp	.L645	#
.L651:
	cmpl	$11, %eax	#, tag
	je	.L658	#,
	cmpl	$11, %eax	#, tag
	ja	.L659	#,
	cmpl	$8, %eax	#, tag
	je	.L660	#,
	cmpl	$10, %eax	#, tag
	je	.L661	#,
	jmp	.L645	#
.L659:
	cmpl	$15, %eax	#, tag
	je	.L662	#,
	cmpl	$15, %eax	#, tag
	ja	.L663	#,
	cmpl	$13, %eax	#, tag
	je	.L664	#,
	jmp	.L645	#
.L649:
	cmpl	$25, %eax	#, tag
	je	.L665	#,
	cmpl	$25, %eax	#, tag
	ja	.L666	#,
	cmpl	$21, %eax	#, tag
	je	.L667	#,
	cmpl	$21, %eax	#, tag
	ja	.L668	#,
	cmpl	$18, %eax	#, tag
	je	.L669	#,
	cmpl	$19, %eax	#, tag
	je	.L670	#,
	jmp	.L645	#
.L668:
	cmpl	$23, %eax	#, tag
	je	.L671	#,
	cmpl	$23, %eax	#, tag
	ja	.L672	#,
	jmp	.L716	#
.L666:
	cmpl	$28, %eax	#, tag
	je	.L674	#,
	cmpl	$28, %eax	#, tag
	ja	.L675	#,
	cmpl	$26, %eax	#, tag
	je	.L676	#,
	cmpl	$27, %eax	#, tag
	je	.L677	#,
	jmp	.L645	#
.L675:
	cmpl	$30, %eax	#, tag
	je	.L678	#,
	cmpl	$30, %eax	#, tag
	ja	.L679	#,
	jmp	.L717	#
.L647:
	cmpl	$46, %eax	#, tag
	je	.L681	#,
	cmpl	$46, %eax	#, tag
	ja	.L682	#,
	cmpl	$39, %eax	#, tag
	je	.L683	#,
	cmpl	$39, %eax	#, tag
	ja	.L684	#,
	cmpl	$35, %eax	#, tag
	je	.L685	#,
	cmpl	$35, %eax	#, tag
	ja	.L686	#,
	cmpl	$33, %eax	#, tag
	je	.L687	#,
	cmpl	$34, %eax	#, tag
	je	.L688	#,
	jmp	.L645	#
.L686:
	cmpl	$37, %eax	#, tag
	je	.L689	#,
	cmpl	$37, %eax	#, tag
	ja	.L690	#,
	jmp	.L718	#
.L684:
	cmpl	$42, %eax	#, tag
	je	.L692	#,
	cmpl	$42, %eax	#, tag
	ja	.L693	#,
	cmpl	$40, %eax	#, tag
	je	.L694	#,
	cmpl	$41, %eax	#, tag
	je	.L695	#,
	jmp	.L645	#
.L693:
	cmpl	$44, %eax	#, tag
	je	.L696	#,
	cmpl	$44, %eax	#, tag
	ja	.L697	#,
	jmp	.L719	#
.L682:
	cmpl	$53, %eax	#, tag
	je	.L699	#,
	cmpl	$53, %eax	#, tag
	ja	.L700	#,
	cmpl	$49, %eax	#, tag
	je	.L701	#,
	cmpl	$49, %eax	#, tag
	ja	.L702	#,
	cmpl	$47, %eax	#, tag
	je	.L703	#,
	cmpl	$48, %eax	#, tag
	je	.L704	#,
	jmp	.L645	#
.L702:
	cmpl	$51, %eax	#, tag
	je	.L705	#,
	cmpl	$51, %eax	#, tag
	ja	.L706	#,
	jmp	.L720	#
.L700:
	cmpl	$16642, %eax	#, tag
	je	.L708	#,
	cmpl	$16642, %eax	#, tag
	ja	.L709	#,
	cmpl	$16513, %eax	#, tag
	je	.L710	#,
	cmpl	$16641, %eax	#, tag
	je	.L711	#,
	jmp	.L645	#
.L709:
	cmpl	$16644, %eax	#, tag
	je	.L712	#,
	cmpl	$16644, %eax	#, tag
	jb	.L713	#,
	cmpl	$16645, %eax	#, tag
	je	.L714	#,
	jmp	.L645	#
.L654:
	.loc 1 3854 0
	movl	$.LC214, %eax	#, D.23565
	jmp	.L715	#
.L655:
	.loc 1 3856 0
	movl	$.LC215, %eax	#, D.23565
	jmp	.L715	#
.L652:
	.loc 1 3858 0
	movl	$.LC216, %eax	#, D.23565
	jmp	.L715	#
.L656:
	.loc 1 3860 0
	movl	$.LC217, %eax	#, D.23565
	jmp	.L715	#
.L657:
	.loc 1 3862 0
	movl	$.LC218, %eax	#, D.23565
	jmp	.L715	#
.L650:
	.loc 1 3864 0
	movl	$.LC219, %eax	#, D.23565
	jmp	.L715	#
.L660:
	.loc 1 3866 0
	movl	$.LC220, %eax	#, D.23565
	jmp	.L715	#
.L661:
	.loc 1 3868 0
	movl	$.LC221, %eax	#, D.23565
	jmp	.L715	#
.L658:
	.loc 1 3870 0
	movl	$.LC222, %eax	#, D.23565
	jmp	.L715	#
.L664:
	.loc 1 3872 0
	movl	$.LC223, %eax	#, D.23565
	jmp	.L715	#
.L662:
	.loc 1 3874 0
	movl	$.LC224, %eax	#, D.23565
	jmp	.L715	#
.L663:
	.loc 1 3876 0
	movl	$.LC225, %eax	#, D.23565
	jmp	.L715	#
.L648:
	.loc 1 3878 0
	movl	$.LC226, %eax	#, D.23565
	jmp	.L715	#
.L669:
	.loc 1 3880 0
	movl	$.LC227, %eax	#, D.23565
	jmp	.L715	#
.L670:
	.loc 1 3882 0
	movl	$.LC228, %eax	#, D.23565
	jmp	.L715	#
.L667:
	.loc 1 3884 0
	movl	$.LC229, %eax	#, D.23565
	jmp	.L715	#
.L716:
	.loc 1 3886 0
	movl	$.LC230, %eax	#, D.23565
	jmp	.L715	#
.L671:
	.loc 1 3888 0
	movl	$.LC231, %eax	#, D.23565
	jmp	.L715	#
.L672:
	.loc 1 3890 0
	movl	$.LC232, %eax	#, D.23565
	jmp	.L715	#
.L665:
	.loc 1 3892 0
	movl	$.LC233, %eax	#, D.23565
	jmp	.L715	#
.L676:
	.loc 1 3894 0
	movl	$.LC234, %eax	#, D.23565
	jmp	.L715	#
.L677:
	.loc 1 3896 0
	movl	$.LC235, %eax	#, D.23565
	jmp	.L715	#
.L674:
	.loc 1 3898 0
	movl	$.LC236, %eax	#, D.23565
	jmp	.L715	#
.L717:
	.loc 1 3900 0
	movl	$.LC237, %eax	#, D.23565
	jmp	.L715	#
.L678:
	.loc 1 3902 0
	movl	$.LC238, %eax	#, D.23565
	jmp	.L715	#
.L679:
	.loc 1 3904 0
	movl	$.LC239, %eax	#, D.23565
	jmp	.L715	#
.L646:
	.loc 1 3906 0
	movl	$.LC240, %eax	#, D.23565
	jmp	.L715	#
.L687:
	.loc 1 3908 0
	movl	$.LC241, %eax	#, D.23565
	jmp	.L715	#
.L688:
	.loc 1 3910 0
	movl	$.LC242, %eax	#, D.23565
	jmp	.L715	#
.L685:
	.loc 1 3912 0
	movl	$.LC243, %eax	#, D.23565
	jmp	.L715	#
.L718:
	.loc 1 3914 0
	movl	$.LC244, %eax	#, D.23565
	jmp	.L715	#
.L689:
	.loc 1 3916 0
	movl	$.LC245, %eax	#, D.23565
	jmp	.L715	#
.L690:
	.loc 1 3918 0
	movl	$.LC246, %eax	#, D.23565
	jmp	.L715	#
.L683:
	.loc 1 3920 0
	movl	$.LC247, %eax	#, D.23565
	jmp	.L715	#
.L694:
	.loc 1 3922 0
	movl	$.LC248, %eax	#, D.23565
	jmp	.L715	#
.L695:
	.loc 1 3924 0
	movl	$.LC249, %eax	#, D.23565
	jmp	.L715	#
.L692:
	.loc 1 3926 0
	movl	$.LC250, %eax	#, D.23565
	jmp	.L715	#
.L719:
	.loc 1 3928 0
	movl	$.LC251, %eax	#, D.23565
	jmp	.L715	#
.L696:
	.loc 1 3930 0
	movl	$.LC252, %eax	#, D.23565
	jmp	.L715	#
.L697:
	.loc 1 3932 0
	movl	$.LC253, %eax	#, D.23565
	jmp	.L715	#
.L681:
	.loc 1 3934 0
	movl	$.LC254, %eax	#, D.23565
	jmp	.L715	#
.L703:
	.loc 1 3936 0
	movl	$.LC255, %eax	#, D.23565
	jmp	.L715	#
.L704:
	.loc 1 3938 0
	movl	$.LC256, %eax	#, D.23565
	jmp	.L715	#
.L701:
	.loc 1 3940 0
	movl	$.LC257, %eax	#, D.23565
	jmp	.L715	#
.L720:
	.loc 1 3942 0
	movl	$.LC258, %eax	#, D.23565
	jmp	.L715	#
.L705:
	.loc 1 3944 0
	movl	$.LC259, %eax	#, D.23565
	jmp	.L715	#
.L706:
	.loc 1 3946 0
	movl	$.LC260, %eax	#, D.23565
	jmp	.L715	#
.L699:
	.loc 1 3948 0
	movl	$.LC261, %eax	#, D.23565
	jmp	.L715	#
.L710:
	.loc 1 3950 0
	movl	$.LC262, %eax	#, D.23565
	jmp	.L715	#
.L711:
	.loc 1 3952 0
	movl	$.LC263, %eax	#, D.23565
	jmp	.L715	#
.L708:
	.loc 1 3954 0
	movl	$.LC264, %eax	#, D.23565
	jmp	.L715	#
.L713:
	.loc 1 3956 0
	movl	$.LC265, %eax	#, D.23565
	jmp	.L715	#
.L712:
	.loc 1 3958 0
	movl	$.LC266, %eax	#, D.23565
	jmp	.L715	#
.L714:
	.loc 1 3960 0
	movl	$.LC267, %eax	#, D.23565
	jmp	.L715	#
.L645:
	.loc 1 3962 0
	movl	$.LC268, %eax	#, D.23565
.L715:
	.loc 1 3964 0
	popq	%rbp	#
	.cfi_def_cfa 7, 8
	ret
	.cfi_endproc
.LFE50:
	.size	dwarf_tag_name, .-dwarf_tag_name
	.section	.rodata
.LC269:
	.string	"DW_AT_sibling"
.LC270:
	.string	"DW_AT_location"
.LC271:
	.string	"DW_AT_name"
.LC272:
	.string	"DW_AT_ordering"
.LC273:
	.string	"DW_AT_subscr_data"
.LC274:
	.string	"DW_AT_byte_size"
.LC275:
	.string	"DW_AT_bit_offset"
.LC276:
	.string	"DW_AT_bit_size"
.LC277:
	.string	"DW_AT_element_list"
.LC278:
	.string	"DW_AT_stmt_list"
.LC279:
	.string	"DW_AT_low_pc"
.LC280:
	.string	"DW_AT_high_pc"
.LC281:
	.string	"DW_AT_language"
.LC282:
	.string	"DW_AT_member"
.LC283:
	.string	"DW_AT_discr"
.LC284:
	.string	"DW_AT_discr_value"
.LC285:
	.string	"DW_AT_visibility"
.LC286:
	.string	"DW_AT_import"
.LC287:
	.string	"DW_AT_string_length"
.LC288:
	.string	"DW_AT_common_reference"
.LC289:
	.string	"DW_AT_comp_dir"
.LC290:
	.string	"DW_AT_const_value"
.LC291:
	.string	"DW_AT_containing_type"
.LC292:
	.string	"DW_AT_default_value"
.LC293:
	.string	"DW_AT_inline"
.LC294:
	.string	"DW_AT_is_optional"
.LC295:
	.string	"DW_AT_lower_bound"
.LC296:
	.string	"DW_AT_producer"
.LC297:
	.string	"DW_AT_prototyped"
.LC298:
	.string	"DW_AT_return_addr"
.LC299:
	.string	"DW_AT_start_scope"
.LC300:
	.string	"DW_AT_stride_size"
.LC301:
	.string	"DW_AT_upper_bound"
.LC302:
	.string	"DW_AT_abstract_origin"
.LC303:
	.string	"DW_AT_accessibility"
.LC304:
	.string	"DW_AT_address_class"
.LC305:
	.string	"DW_AT_artificial"
.LC306:
	.string	"DW_AT_base_types"
.LC307:
	.string	"DW_AT_calling_convention"
.LC308:
	.string	"DW_AT_count"
.LC309:
	.string	"DW_AT_data_member_location"
.LC310:
	.string	"DW_AT_decl_column"
.LC311:
	.string	"DW_AT_decl_file"
.LC312:
	.string	"DW_AT_decl_line"
.LC313:
	.string	"DW_AT_declaration"
.LC314:
	.string	"DW_AT_discr_list"
.LC315:
	.string	"DW_AT_encoding"
.LC316:
	.string	"DW_AT_external"
.LC317:
	.string	"DW_AT_frame_base"
.LC318:
	.string	"DW_AT_friend"
.LC319:
	.string	"DW_AT_identifier_case"
.LC320:
	.string	"DW_AT_macro_info"
.LC321:
	.string	"DW_AT_namelist_items"
.LC322:
	.string	"DW_AT_priority"
.LC323:
	.string	"DW_AT_segment"
.LC324:
	.string	"DW_AT_specification"
.LC325:
	.string	"DW_AT_static_link"
.LC326:
	.string	"DW_AT_type"
.LC327:
	.string	"DW_AT_use_location"
.LC328:
	.string	"DW_AT_variable_parameter"
.LC329:
	.string	"DW_AT_virtuality"
.LC330:
	.string	"DW_AT_vtable_elem_location"
.LC331:
	.string	"DW_AT_allocated"
.LC332:
	.string	"DW_AT_associated"
.LC333:
	.string	"DW_AT_data_location"
.LC334:
	.string	"DW_AT_stride"
.LC335:
	.string	"DW_AT_entry_pc"
.LC336:
	.string	"DW_AT_use_UTF8"
.LC337:
	.string	"DW_AT_extension"
.LC338:
	.string	"DW_AT_ranges"
.LC339:
	.string	"DW_AT_trampoline"
.LC340:
	.string	"DW_AT_call_column"
.LC341:
	.string	"DW_AT_call_file"
.LC342:
	.string	"DW_AT_call_line"
.LC343:
	.string	"DW_AT_MIPS_fde"
.LC344:
	.string	"DW_AT_MIPS_loop_begin"
.LC345:
	.string	"DW_AT_MIPS_tail_loop_begin"
.LC346:
	.string	"DW_AT_MIPS_epilog_begin"
.LC347:
	.string	"DW_AT_MIPS_loop_unroll_factor"
	.align 8
.LC348:
	.string	"DW_AT_MIPS_software_pipeline_depth"
.LC349:
	.string	"DW_AT_MIPS_linkage_name"
.LC350:
	.string	"DW_AT_MIPS_stride"
.LC351:
	.string	"DW_AT_MIPS_abstract_name"
.LC352:
	.string	"DW_AT_MIPS_clone_origin"
.LC353:
	.string	"DW_AT_MIPS_has_inlines"
.LC354:
	.string	"DW_AT_sf_names"
.LC355:
	.string	"DW_AT_src_info"
.LC356:
	.string	"DW_AT_mac_info"
.LC357:
	.string	"DW_AT_src_coords"
.LC358:
	.string	"DW_AT_body_begin"
.LC359:
	.string	"DW_AT_body_end"
.LC360:
	.string	"DW_AT_GNU_vector"
.LC361:
	.string	"DW_AT_VMS_rtnbeg_pd_address"
.LC362:
	.string	"DW_AT_<unknown>"
	.text
	.type	dwarf_attr_name, @function
dwarf_attr_name:
.LFB51:
	.loc 1 3971 0
	.cfi_startproc
	pushq	%rbp	#
	.cfi_def_cfa_offset 16
	.cfi_offset 6, -16
	movq	%rsp, %rbp	#,
	.cfi_def_cfa_register 6
	movl	%edi, -4(%rbp)	# attr, attr
	.loc 1 3972 0
	movl	-4(%rbp), %eax	# attr, attr
	cmpl	$62, %eax	#, attr
	je	.L723	#,
	cmpl	$62, %eax	#, attr
	ja	.L724	#,
	cmpl	$29, %eax	#, attr
	je	.L725	#,
	cmpl	$29, %eax	#, attr
	ja	.L726	#,
	cmpl	$17, %eax	#, attr
	je	.L727	#,
	cmpl	$17, %eax	#, attr
	ja	.L728	#,
	cmpl	$10, %eax	#, attr
	je	.L729	#,
	cmpl	$10, %eax	#, attr
	ja	.L730	#,
	cmpl	$2, %eax	#, attr
	je	.L731	#,
	cmpl	$2, %eax	#, attr
	ja	.L732	#,
	cmpl	$1, %eax	#, attr
	je	.L733	#,
	jmp	.L722	#
.L732:
	cmpl	$3, %eax	#, attr
	je	.L734	#,
	cmpl	$9, %eax	#, attr
	je	.L735	#,
	jmp	.L722	#
.L730:
	cmpl	$13, %eax	#, attr
	je	.L736	#,
	cmpl	$13, %eax	#, attr
	ja	.L737	#,
	cmpl	$11, %eax	#, attr
	je	.L738	#,
	cmpl	$12, %eax	#, attr
	je	.L739	#,
	jmp	.L722	#
.L737:
	cmpl	$15, %eax	#, attr
	je	.L740	#,
	cmpl	$16, %eax	#, attr
	je	.L741	#,
	jmp	.L722	#
.L728:
	cmpl	$23, %eax	#, attr
	je	.L742	#,
	cmpl	$23, %eax	#, attr
	ja	.L743	#,
	cmpl	$20, %eax	#, attr
	je	.L744	#,
	cmpl	$20, %eax	#, attr
	ja	.L745	#,
	cmpl	$18, %eax	#, attr
	je	.L746	#,
	cmpl	$19, %eax	#, attr
	je	.L747	#,
	jmp	.L722	#
.L745:
	cmpl	$21, %eax	#, attr
	je	.L748	#,
	cmpl	$22, %eax	#, attr
	je	.L749	#,
	jmp	.L722	#
.L743:
	cmpl	$26, %eax	#, attr
	je	.L750	#,
	cmpl	$26, %eax	#, attr
	ja	.L751	#,
	cmpl	$24, %eax	#, attr
	je	.L752	#,
	cmpl	$25, %eax	#, attr
	je	.L753	#,
	jmp	.L722	#
.L751:
	cmpl	$27, %eax	#, attr
	je	.L754	#,
	cmpl	$28, %eax	#, attr
	je	.L755	#,
	jmp	.L722	#
.L726:
	cmpl	$50, %eax	#, attr
	je	.L756	#,
	cmpl	$50, %eax	#, attr
	ja	.L757	#,
	cmpl	$39, %eax	#, attr
	je	.L758	#,
	cmpl	$39, %eax	#, attr
	ja	.L759	#,
	cmpl	$33, %eax	#, attr
	je	.L760	#,
	cmpl	$33, %eax	#, attr
	ja	.L761	#,
	cmpl	$30, %eax	#, attr
	je	.L762	#,
	cmpl	$32, %eax	#, attr
	je	.L763	#,
	jmp	.L722	#
.L761:
	cmpl	$34, %eax	#, attr
	je	.L764	#,
	cmpl	$37, %eax	#, attr
	je	.L765	#,
	jmp	.L722	#
.L759:
	cmpl	$46, %eax	#, attr
	je	.L766	#,
	cmpl	$46, %eax	#, attr
	ja	.L767	#,
	cmpl	$42, %eax	#, attr
	je	.L768	#,
	cmpl	$44, %eax	#, attr
	je	.L769	#,
	jmp	.L722	#
.L767:
	cmpl	$47, %eax	#, attr
	je	.L770	#,
	cmpl	$49, %eax	#, attr
	je	.L771	#,
	jmp	.L722	#
.L757:
	cmpl	$56, %eax	#, attr
	je	.L772	#,
	cmpl	$56, %eax	#, attr
	ja	.L773	#,
	cmpl	$53, %eax	#, attr
	je	.L774	#,
	cmpl	$53, %eax	#, attr
	ja	.L775	#,
	cmpl	$51, %eax	#, attr
	je	.L776	#,
	cmpl	$52, %eax	#, attr
	je	.L777	#,
	jmp	.L722	#
.L775:
	cmpl	$54, %eax	#, attr
	je	.L778	#,
	cmpl	$55, %eax	#, attr
	je	.L779	#,
	jmp	.L722	#
.L773:
	cmpl	$59, %eax	#, attr
	je	.L780	#,
	cmpl	$59, %eax	#, attr
	ja	.L781	#,
	cmpl	$57, %eax	#, attr
	je	.L782	#,
	cmpl	$58, %eax	#, attr
	je	.L783	#,
	jmp	.L722	#
.L781:
	cmpl	$60, %eax	#, attr
	je	.L784	#,
	cmpl	$61, %eax	#, attr
	je	.L785	#,
	jmp	.L722	#
.L724:
	cmpl	$85, %eax	#, attr
	je	.L786	#,
	cmpl	$85, %eax	#, attr
	ja	.L787	#,
	cmpl	$73, %eax	#, attr
	je	.L788	#,
	cmpl	$73, %eax	#, attr
	ja	.L789	#,
	cmpl	$67, %eax	#, attr
	je	.L790	#,
	cmpl	$67, %eax	#, attr
	ja	.L791	#,
	cmpl	$64, %eax	#, attr
	je	.L792	#,
	cmpl	$64, %eax	#, attr
	jb	.L793	#,
	cmpl	$65, %eax	#, attr
	je	.L794	#,
	cmpl	$66, %eax	#, attr
	je	.L795	#,
	jmp	.L722	#
.L791:
	cmpl	$70, %eax	#, attr
	je	.L796	#,
	cmpl	$70, %eax	#, attr
	ja	.L797	#,
	cmpl	$68, %eax	#, attr
	je	.L798	#,
	cmpl	$69, %eax	#, attr
	je	.L799	#,
	jmp	.L722	#
.L797:
	cmpl	$71, %eax	#, attr
	je	.L800	#,
	cmpl	$72, %eax	#, attr
	je	.L801	#,
	jmp	.L722	#
.L789:
	cmpl	$79, %eax	#, attr
	je	.L802	#,
	cmpl	$79, %eax	#, attr
	ja	.L803	#,
	cmpl	$76, %eax	#, attr
	je	.L804	#,
	cmpl	$76, %eax	#, attr
	ja	.L805	#,
	cmpl	$74, %eax	#, attr
	je	.L806	#,
	cmpl	$75, %eax	#, attr
	je	.L807	#,
	jmp	.L722	#
.L805:
	cmpl	$77, %eax	#, attr
	je	.L808	#,
	cmpl	$78, %eax	#, attr
	je	.L809	#,
	jmp	.L722	#
.L803:
	cmpl	$82, %eax	#, attr
	je	.L810	#,
	cmpl	$82, %eax	#, attr
	ja	.L811	#,
	cmpl	$80, %eax	#, attr
	je	.L812	#,
	cmpl	$81, %eax	#, attr
	je	.L813	#,
	jmp	.L722	#
.L811:
	cmpl	$83, %eax	#, attr
	je	.L814	#,
	cmpl	$84, %eax	#, attr
	je	.L815	#,
	jmp	.L722	#
.L787:
	cmpl	$8200, %eax	#, attr
	je	.L816	#,
	cmpl	$8200, %eax	#, attr
	ja	.L817	#,
	cmpl	$8194, %eax	#, attr
	je	.L818	#,
	cmpl	$8194, %eax	#, attr
	ja	.L819	#,
	cmpl	$88, %eax	#, attr
	je	.L820	#,
	cmpl	$88, %eax	#, attr
	ja	.L821	#,
	cmpl	$86, %eax	#, attr
	je	.L822	#,
	cmpl	$87, %eax	#, attr
	je	.L823	#,
	jmp	.L722	#
.L821:
	cmpl	$89, %eax	#, attr
	je	.L824	#,
	cmpl	$8193, %eax	#, attr
	je	.L825	#,
	jmp	.L722	#
.L819:
	cmpl	$8197, %eax	#, attr
	je	.L826	#,
	cmpl	$8197, %eax	#, attr
	ja	.L827	#,
	cmpl	$8195, %eax	#, attr
	je	.L828	#,
	cmpl	$8196, %eax	#, attr
	je	.L829	#,
	jmp	.L722	#
.L827:
	cmpl	$8198, %eax	#, attr
	je	.L830	#,
	cmpl	$8199, %eax	#, attr
	je	.L831	#,
	jmp	.L722	#
.L817:
	cmpl	$8451, %eax	#, attr
	je	.L832	#,
	cmpl	$8451, %eax	#, attr
	ja	.L833	#,
	cmpl	$8203, %eax	#, attr
	je	.L834	#,
	cmpl	$8203, %eax	#, attr
	ja	.L835	#,
	cmpl	$8201, %eax	#, attr
	je	.L836	#,
	cmpl	$8202, %eax	#, attr
	je	.L837	#,
	jmp	.L722	#
.L835:
	cmpl	$8449, %eax	#, attr
	je	.L838	#,
	cmpl	$8450, %eax	#, attr
	je	.L839	#,
	jmp	.L722	#
.L833:
	cmpl	$8454, %eax	#, attr
	je	.L840	#,
	cmpl	$8454, %eax	#, attr
	ja	.L841	#,
	cmpl	$8452, %eax	#, attr
	je	.L842	#,
	cmpl	$8453, %eax	#, attr
	je	.L843	#,
	jmp	.L722	#
.L841:
	cmpl	$8455, %eax	#, attr
	je	.L844	#,
	cmpl	$8705, %eax	#, attr
	je	.L845	#,
	jmp	.L722	#
.L733:
	.loc 1 3975 0
	movl	$.LC269, %eax	#, D.23636
	jmp	.L846	#
.L731:
	.loc 1 3977 0
	movl	$.LC270, %eax	#, D.23636
	jmp	.L846	#
.L734:
	.loc 1 3979 0
	movl	$.LC271, %eax	#, D.23636
	jmp	.L846	#
.L735:
	.loc 1 3981 0
	movl	$.LC272, %eax	#, D.23636
	jmp	.L846	#
.L729:
	.loc 1 3983 0
	movl	$.LC273, %eax	#, D.23636
	jmp	.L846	#
.L738:
	.loc 1 3985 0
	movl	$.LC274, %eax	#, D.23636
	jmp	.L846	#
.L739:
	.loc 1 3987 0
	movl	$.LC275, %eax	#, D.23636
	jmp	.L846	#
.L736:
	.loc 1 3989 0
	movl	$.LC276, %eax	#, D.23636
	jmp	.L846	#
.L740:
	.loc 1 3991 0
	movl	$.LC277, %eax	#, D.23636
	jmp	.L846	#
.L741:
	.loc 1 3993 0
	movl	$.LC278, %eax	#, D.23636
	jmp	.L846	#
.L727:
	.loc 1 3995 0
	movl	$.LC279, %eax	#, D.23636
	jmp	.L846	#
.L746:
	.loc 1 3997 0
	movl	$.LC280, %eax	#, D.23636
	jmp	.L846	#
.L747:
	.loc 1 3999 0
	movl	$.LC281, %eax	#, D.23636
	jmp	.L846	#
.L744:
	.loc 1 4001 0
	movl	$.LC282, %eax	#, D.23636
	jmp	.L846	#
.L748:
	.loc 1 4003 0
	movl	$.LC283, %eax	#, D.23636
	jmp	.L846	#
.L749:
	.loc 1 4005 0
	movl	$.LC284, %eax	#, D.23636
	jmp	.L846	#
.L742:
	.loc 1 4007 0
	movl	$.LC285, %eax	#, D.23636
	jmp	.L846	#
.L752:
	.loc 1 4009 0
	movl	$.LC286, %eax	#, D.23636
	jmp	.L846	#
.L753:
	.loc 1 4011 0
	movl	$.LC287, %eax	#, D.23636
	jmp	.L846	#
.L750:
	.loc 1 4013 0
	movl	$.LC288, %eax	#, D.23636
	jmp	.L846	#
.L754:
	.loc 1 4015 0
	movl	$.LC289, %eax	#, D.23636
	jmp	.L846	#
.L755:
	.loc 1 4017 0
	movl	$.LC290, %eax	#, D.23636
	jmp	.L846	#
.L725:
	.loc 1 4019 0
	movl	$.LC291, %eax	#, D.23636
	jmp	.L846	#
.L762:
	.loc 1 4021 0
	movl	$.LC292, %eax	#, D.23636
	jmp	.L846	#
.L763:
	.loc 1 4023 0
	movl	$.LC293, %eax	#, D.23636
	jmp	.L846	#
.L760:
	.loc 1 4025 0
	movl	$.LC294, %eax	#, D.23636
	jmp	.L846	#
.L764:
	.loc 1 4027 0
	movl	$.LC295, %eax	#, D.23636
	jmp	.L846	#
.L765:
	.loc 1 4029 0
	movl	$.LC296, %eax	#, D.23636
	jmp	.L846	#
.L758:
	.loc 1 4031 0
	movl	$.LC297, %eax	#, D.23636
	jmp	.L846	#
.L768:
	.loc 1 4033 0
	movl	$.LC298, %eax	#, D.23636
	jmp	.L846	#
.L769:
	.loc 1 4035 0
	movl	$.LC299, %eax	#, D.23636
	jmp	.L846	#
.L766:
	.loc 1 4037 0
	movl	$.LC300, %eax	#, D.23636
	jmp	.L846	#
.L770:
	.loc 1 4039 0
	movl	$.LC301, %eax	#, D.23636
	jmp	.L846	#
.L771:
	.loc 1 4041 0
	movl	$.LC302, %eax	#, D.23636
	jmp	.L846	#
.L756:
	.loc 1 4043 0
	movl	$.LC303, %eax	#, D.23636
	jmp	.L846	#
.L776:
	.loc 1 4045 0
	movl	$.LC304, %eax	#, D.23636
	jmp	.L846	#
.L777:
	.loc 1 4047 0
	movl	$.LC305, %eax	#, D.23636
	jmp	.L846	#
.L774:
	.loc 1 4049 0
	movl	$.LC306, %eax	#, D.23636
	jmp	.L846	#
.L778:
	.loc 1 4051 0
	movl	$.LC307, %eax	#, D.23636
	jmp	.L846	#
.L779:
	.loc 1 4053 0
	movl	$.LC308, %eax	#, D.23636
	jmp	.L846	#
.L772:
	.loc 1 4055 0
	movl	$.LC309, %eax	#, D.23636
	jmp	.L846	#
.L782:
	.loc 1 4057 0
	movl	$.LC310, %eax	#, D.23636
	jmp	.L846	#
.L783:
	.loc 1 4059 0
	movl	$.LC311, %eax	#, D.23636
	jmp	.L846	#
.L780:
	.loc 1 4061 0
	movl	$.LC312, %eax	#, D.23636
	jmp	.L846	#
.L784:
	.loc 1 4063 0
	movl	$.LC313, %eax	#, D.23636
	jmp	.L846	#
.L785:
	.loc 1 4065 0
	movl	$.LC314, %eax	#, D.23636
	jmp	.L846	#
.L723:
	.loc 1 4067 0
	movl	$.LC315, %eax	#, D.23636
	jmp	.L846	#
.L793:
	.loc 1 4069 0
	movl	$.LC316, %eax	#, D.23636
	jmp	.L846	#
.L792:
	.loc 1 4071 0
	movl	$.LC317, %eax	#, D.23636
	jmp	.L846	#
.L794:
	.loc 1 4073 0
	movl	$.LC318, %eax	#, D.23636
	jmp	.L846	#
.L795:
	.loc 1 4075 0
	movl	$.LC319, %eax	#, D.23636
	jmp	.L846	#
.L790:
	.loc 1 4077 0
	movl	$.LC320, %eax	#, D.23636
	jmp	.L846	#
.L798:
	.loc 1 4079 0
	movl	$.LC321, %eax	#, D.23636
	jmp	.L846	#
.L799:
	.loc 1 4081 0
	movl	$.LC322, %eax	#, D.23636
	jmp	.L846	#
.L796:
	.loc 1 4083 0
	movl	$.LC323, %eax	#, D.23636
	jmp	.L846	#
.L800:
	.loc 1 4085 0
	movl	$.LC324, %eax	#, D.23636
	jmp	.L846	#
.L801:
	.loc 1 4087 0
	movl	$.LC325, %eax	#, D.23636
	jmp	.L846	#
.L788:
	.loc 1 4089 0
	movl	$.LC326, %eax	#, D.23636
	jmp	.L846	#
.L806:
	.loc 1 4091 0
	movl	$.LC327, %eax	#, D.23636
	jmp	.L846	#
.L807:
	.loc 1 4093 0
	movl	$.LC328, %eax	#, D.23636
	jmp	.L846	#
.L804:
	.loc 1 4095 0
	movl	$.LC329, %eax	#, D.23636
	jmp	.L846	#
.L808:
	.loc 1 4097 0
	movl	$.LC330, %eax	#, D.23636
	jmp	.L846	#
.L809:
	.loc 1 4100 0
	movl	$.LC331, %eax	#, D.23636
	jmp	.L846	#
.L802:
	.loc 1 4102 0
	movl	$.LC332, %eax	#, D.23636
	jmp	.L846	#
.L812:
	.loc 1 4104 0
	movl	$.LC333, %eax	#, D.23636
	jmp	.L846	#
.L813:
	.loc 1 4106 0
	movl	$.LC334, %eax	#, D.23636
	jmp	.L846	#
.L810:
	.loc 1 4108 0
	movl	$.LC335, %eax	#, D.23636
	jmp	.L846	#
.L814:
	.loc 1 4110 0
	movl	$.LC336, %eax	#, D.23636
	jmp	.L846	#
.L815:
	.loc 1 4112 0
	movl	$.LC337, %eax	#, D.23636
	jmp	.L846	#
.L786:
	.loc 1 4114 0
	movl	$.LC338, %eax	#, D.23636
	jmp	.L846	#
.L822:
	.loc 1 4116 0
	movl	$.LC339, %eax	#, D.23636
	jmp	.L846	#
.L823:
	.loc 1 4118 0
	movl	$.LC340, %eax	#, D.23636
	jmp	.L846	#
.L820:
	.loc 1 4120 0
	movl	$.LC341, %eax	#, D.23636
	jmp	.L846	#
.L824:
	.loc 1 4122 0
	movl	$.LC342, %eax	#, D.23636
	jmp	.L846	#
.L825:
	.loc 1 4125 0
	movl	$.LC343, %eax	#, D.23636
	jmp	.L846	#
.L818:
	.loc 1 4127 0
	movl	$.LC344, %eax	#, D.23636
	jmp	.L846	#
.L828:
	.loc 1 4129 0
	movl	$.LC345, %eax	#, D.23636
	jmp	.L846	#
.L829:
	.loc 1 4131 0
	movl	$.LC346, %eax	#, D.23636
	jmp	.L846	#
.L826:
	.loc 1 4133 0
	movl	$.LC347, %eax	#, D.23636
	jmp	.L846	#
.L830:
	.loc 1 4135 0
	movl	$.LC348, %eax	#, D.23636
	jmp	.L846	#
.L831:
	.loc 1 4137 0
	movl	$.LC349, %eax	#, D.23636
	jmp	.L846	#
.L816:
	.loc 1 4139 0
	movl	$.LC350, %eax	#, D.23636
	jmp	.L846	#
.L836:
	.loc 1 4141 0
	movl	$.LC351, %eax	#, D.23636
	jmp	.L846	#
.L837:
	.loc 1 4143 0
	movl	$.LC352, %eax	#, D.23636
	jmp	.L846	#
.L834:
	.loc 1 4145 0
	movl	$.LC353, %eax	#, D.23636
	jmp	.L846	#
.L838:
	.loc 1 4148 0
	movl	$.LC354, %eax	#, D.23636
	jmp	.L846	#
.L839:
	.loc 1 4150 0
	movl	$.LC355, %eax	#, D.23636
	jmp	.L846	#
.L832:
	.loc 1 4152 0
	movl	$.LC356, %eax	#, D.23636
	jmp	.L846	#
.L842:
	.loc 1 4154 0
	movl	$.LC357, %eax	#, D.23636
	jmp	.L846	#
.L843:
	.loc 1 4156 0
	movl	$.LC358, %eax	#, D.23636
	jmp	.L846	#
.L840:
	.loc 1 4158 0
	movl	$.LC359, %eax	#, D.23636
	jmp	.L846	#
.L844:
	.loc 1 4160 0
	movl	$.LC360, %eax	#, D.23636
	jmp	.L846	#
.L845:
	.loc 1 4163 0
	movl	$.LC361, %eax	#, D.23636
	jmp	.L846	#
.L722:
	.loc 1 4166 0
	movl	$.LC362, %eax	#, D.23636
.L846:
	.loc 1 4168 0
	popq	%rbp	#
	.cfi_def_cfa 7, 8
	ret
	.cfi_endproc
.LFE51:
	.size	dwarf_attr_name, .-dwarf_attr_name
	.section	.rodata
.LC363:
	.string	"DW_FORM_addr"
.LC364:
	.string	"DW_FORM_block2"
.LC365:
	.string	"DW_FORM_block4"
.LC366:
	.string	"DW_FORM_data2"
.LC367:
	.string	"DW_FORM_data4"
.LC368:
	.string	"DW_FORM_data8"
.LC369:
	.string	"DW_FORM_string"
.LC370:
	.string	"DW_FORM_block"
.LC371:
	.string	"DW_FORM_block1"
.LC372:
	.string	"DW_FORM_data1"
.LC373:
	.string	"DW_FORM_flag"
.LC374:
	.string	"DW_FORM_sdata"
.LC375:
	.string	"DW_FORM_strp"
.LC376:
	.string	"DW_FORM_udata"
.LC377:
	.string	"DW_FORM_ref_addr"
.LC378:
	.string	"DW_FORM_ref1"
.LC379:
	.string	"DW_FORM_ref2"
.LC380:
	.string	"DW_FORM_ref4"
.LC381:
	.string	"DW_FORM_ref8"
.LC382:
	.string	"DW_FORM_ref_udata"
.LC383:
	.string	"DW_FORM_indirect"
.LC384:
	.string	"DW_FORM_<unknown>"
	.text
	.type	dwarf_form_name, @function
dwarf_form_name:
.LFB52:
	.loc 1 4175 0
	.cfi_startproc
	pushq	%rbp	#
	.cfi_def_cfa_offset 16
	.cfi_offset 6, -16
	movq	%rsp, %rbp	#,
	.cfi_def_cfa_register 6
	movl	%edi, -4(%rbp)	# form, form
	.loc 1 4176 0
	cmpl	$22, -4(%rbp)	#, form
	ja	.L848	#,
	movl	-4(%rbp), %eax	# form, tmp61
	movq	.L850(,%rax,8), %rax	#, tmp62
	jmp	*%rax	# tmp62
	.section	.rodata
	.align 8
	.align 4
.L850:
	.quad	.L848
	.quad	.L849
	.quad	.L848
	.quad	.L851
	.quad	.L852
	.quad	.L853
	.quad	.L854
	.quad	.L855
	.quad	.L856
	.quad	.L857
	.quad	.L858
	.quad	.L859
	.quad	.L860
	.quad	.L861
	.quad	.L862
	.quad	.L863
	.quad	.L864
	.quad	.L865
	.quad	.L866
	.quad	.L867
	.quad	.L868
	.quad	.L869
	.quad	.L870
	.text
.L849:
	.loc 1 4179 0
	movl	$.LC363, %eax	#, D.23761
	jmp	.L871	#
.L851:
	.loc 1 4181 0
	movl	$.LC364, %eax	#, D.23761
	jmp	.L871	#
.L852:
	.loc 1 4183 0
	movl	$.LC365, %eax	#, D.23761
	jmp	.L871	#
.L853:
	.loc 1 4185 0
	movl	$.LC366, %eax	#, D.23761
	jmp	.L871	#
.L854:
	.loc 1 4187 0
	movl	$.LC367, %eax	#, D.23761
	jmp	.L871	#
.L855:
	.loc 1 4189 0
	movl	$.LC368, %eax	#, D.23761
	jmp	.L871	#
.L856:
	.loc 1 4191 0
	movl	$.LC369, %eax	#, D.23761
	jmp	.L871	#
.L857:
	.loc 1 4193 0
	movl	$.LC370, %eax	#, D.23761
	jmp	.L871	#
.L858:
	.loc 1 4195 0
	movl	$.LC371, %eax	#, D.23761
	jmp	.L871	#
.L859:
	.loc 1 4197 0
	movl	$.LC372, %eax	#, D.23761
	jmp	.L871	#
.L860:
	.loc 1 4199 0
	movl	$.LC373, %eax	#, D.23761
	jmp	.L871	#
.L861:
	.loc 1 4201 0
	movl	$.LC374, %eax	#, D.23761
	jmp	.L871	#
.L862:
	.loc 1 4203 0
	movl	$.LC375, %eax	#, D.23761
	jmp	.L871	#
.L863:
	.loc 1 4205 0
	movl	$.LC376, %eax	#, D.23761
	jmp	.L871	#
.L864:
	.loc 1 4207 0
	movl	$.LC377, %eax	#, D.23761
	jmp	.L871	#
.L865:
	.loc 1 4209 0
	movl	$.LC378, %eax	#, D.23761
	jmp	.L871	#
.L866:
	.loc 1 4211 0
	movl	$.LC379, %eax	#, D.23761
	jmp	.L871	#
.L867:
	.loc 1 4213 0
	movl	$.LC380, %eax	#, D.23761
	jmp	.L871	#
.L868:
	.loc 1 4215 0
	movl	$.LC381, %eax	#, D.23761
	jmp	.L871	#
.L869:
	.loc 1 4217 0
	movl	$.LC382, %eax	#, D.23761
	jmp	.L871	#
.L870:
	.loc 1 4219 0
	movl	$.LC383, %eax	#, D.23761
	jmp	.L871	#
.L848:
	.loc 1 4221 0
	movl	$.LC384, %eax	#, D.23761
.L871:
	.loc 1 4223 0
	popq	%rbp	#
	.cfi_def_cfa 7, 8
	ret
	.cfi_endproc
.LFE52:
	.size	dwarf_form_name, .-dwarf_form_name
	.type	decl_ultimate_origin, @function
decl_ultimate_origin:
.LFB53:
	.loc 1 4265 0
	.cfi_startproc
	pushq	%rbp	#
	.cfi_def_cfa_offset 16
	.cfi_offset 6, -16
	movq	%rsp, %rbp	#,
	.cfi_def_cfa_register 6
	movq	%rdi, -8(%rbp)	# decl, decl
	.loc 1 4269 0
	movq	-8(%rbp), %rax	# decl, tmp64
	movzbl	49(%rax), %eax	# *decl_2(D), D.23785
	andl	$-128, %eax	#, D.23785
	testb	%al, %al	# D.23785
	je	.L873	#,
	.loc 1 4269 0 is_stmt 0 discriminator 1
	movq	-8(%rbp), %rax	# decl, tmp65
	movq	112(%rax), %rax	# decl_2(D)->decl.abstract_origin, D.23786
	cmpq	-8(%rbp), %rax	# decl, D.23786
	jne	.L873	#,
	.loc 1 4270 0 is_stmt 1
	movl	$0, %eax	#, D.23784
	jmp	.L874	#
.L873:
	.loc 1 4279 0
	movq	-8(%rbp), %rax	# decl, tmp66
	movq	112(%rax), %rax	# decl_2(D)->decl.abstract_origin, D.23784
.L874:
	.loc 1 4280 0
	popq	%rbp	#
	.cfi_def_cfa 7, 8
	ret
	.cfi_endproc
.LFE53:
	.size	decl_ultimate_origin, .-decl_ultimate_origin
	.type	block_ultimate_origin, @function
block_ultimate_origin:
.LFB54:
	.loc 1 4291 0
	.cfi_startproc
	pushq	%rbp	#
	.cfi_def_cfa_offset 16
	.cfi_offset 6, -16
	movq	%rsp, %rbp	#,
	.cfi_def_cfa_register 6
	movq	%rdi, -40(%rbp)	# block, block
	.loc 1 4292 0
	movq	-40(%rbp), %rax	# block, tmp65
	movq	56(%rax), %rax	# block_4(D)->block.abstract_origin, tmp66
	movq	%rax, -16(%rbp)	# tmp66, immediate_origin
	.loc 1 4297 0
	movq	-40(%rbp), %rax	# block, tmp67
	movzbl	24(%rax), %eax	# *block_4(D), D.23788
	andl	$2, %eax	#, D.23788
	testb	%al, %al	# D.23788
	je	.L876	#,
	.loc 1 4297 0 is_stmt 0 discriminator 1
	movq	-16(%rbp), %rax	# immediate_origin, tmp68
	cmpq	-40(%rbp), %rax	# block, tmp68
	jne	.L876	#,
	.loc 1 4298 0 is_stmt 1
	movl	$0, %eax	#, D.23787
	jmp	.L877	#
.L876:
	.loc 1 4300 0
	cmpq	$0, -16(%rbp)	#, immediate_origin
	jne	.L878	#,
	.loc 1 4301 0
	movl	$0, %eax	#, D.23787
	jmp	.L877	#
.L878:
.LBB18:
	.loc 1 4305 0
	movq	-16(%rbp), %rax	# immediate_origin, tmp69
	movq	%rax, -24(%rbp)	# tmp69, lookahead
.L882:
	.loc 1 4309 0
	movq	-24(%rbp), %rax	# lookahead, tmp70
	movq	%rax, -8(%rbp)	# tmp70, ret_val
	.loc 1 4310 0
	movq	-8(%rbp), %rax	# ret_val, tmp71
	movzbl	16(%rax), %eax	# ret_val_11->common.code, D.23788
	.loc 1 4311 0
	cmpb	$4, %al	#, D.23788
	jne	.L879	#,
	.loc 1 4311 0 is_stmt 0 discriminator 1
	movq	-8(%rbp), %rax	# ret_val, tmp72
	movq	56(%rax), %rax	# ret_val_11->block.abstract_origin, iftmp.168
	jmp	.L880	#
.L879:
	.loc 1 4311 0 discriminator 2
	movl	$0, %eax	#, iftmp.168
.L880:
	.loc 1 4310 0 is_stmt 1
	movq	%rax, -24(%rbp)	# iftmp.168, lookahead
	.loc 1 4313 0
	cmpq	$0, -24(%rbp)	#, lookahead
	je	.L881	#,
	.loc 1 4313 0 is_stmt 0 discriminator 1
	movq	-24(%rbp), %rax	# lookahead, tmp73
	cmpq	-8(%rbp), %rax	# ret_val, tmp73
	jne	.L882	#,
.L881:
	.loc 1 4315 0 is_stmt 1
	movq	-8(%rbp), %rax	# ret_val, D.23787
.L877:
.LBE18:
	.loc 1 4317 0
	popq	%rbp	#
	.cfi_def_cfa 7, 8
	ret
	.cfi_endproc
.LFE54:
	.size	block_ultimate_origin, .-block_ultimate_origin
	.type	decl_class_context, @function
decl_class_context:
.LFB55:
	.loc 1 4326 0
	.cfi_startproc
	pushq	%rbp	#
	.cfi_def_cfa_offset 16
	.cfi_offset 6, -16
	movq	%rsp, %rbp	#,
	.cfi_def_cfa_register 6
	movq	%rdi, -24(%rbp)	# decl, decl
	.loc 1 4327 0
	movq	$0, -8(%rbp)	#, context
	.loc 1 4329 0
	movq	-24(%rbp), %rax	# decl, tmp70
	movzbl	16(%rax), %eax	# decl_4(D)->common.code, D.23789
	cmpb	$30, %al	#, D.23789
	jne	.L884	#,
	.loc 1 4329 0 is_stmt 0 discriminator 1
	movq	-24(%rbp), %rax	# decl, tmp71
	movq	184(%rax), %rax	# decl_4(D)->decl.vindex, D.23790
	testq	%rax, %rax	# D.23790
	jne	.L885	#,
.L884:
	.loc 1 4330 0 is_stmt 1
	movq	-24(%rbp), %rax	# decl, tmp72
	movq	80(%rax), %rax	# decl_4(D)->decl.context, tmp73
	movq	%rax, -8(%rbp)	# tmp73, context
	jmp	.L886	#
.L885:
	.loc 1 4332 0
	movq	-24(%rbp), %rax	# decl, tmp74
	movq	8(%rax), %rax	# decl_4(D)->common.type, D.23790
	movq	24(%rax), %rax	# _7->type.values, D.23790
	movq	32(%rax), %rax	# _8->list.value, D.23790
	movq	8(%rax), %rax	# _9->common.type, D.23790
	movq	128(%rax), %rax	# _10->type.main_variant, tmp75
	movq	%rax, -8(%rbp)	# tmp75, context
.L886:
	.loc 1 4335 0
	cmpq	$0, -8(%rbp)	#, context
	je	.L887	#,
	.loc 1 4335 0 is_stmt 0 discriminator 1
	movq	-8(%rbp), %rax	# context, tmp76
	movzbl	16(%rax), %eax	# context_1->common.code, D.23789
	movzbl	%al, %eax	# D.23789, D.23791
	cltq
	movzbl	tree_code_type(%rax), %eax	# tree_code_type, D.23792
	cmpb	$116, %al	#, D.23792
	je	.L887	#,
	.loc 1 4336 0 is_stmt 1
	movq	$0, -8(%rbp)	#, context
.L887:
	.loc 1 4338 0
	movq	-8(%rbp), %rax	# context, D.23793
	.loc 1 4339 0
	popq	%rbp	#
	.cfi_def_cfa 7, 8
	ret
	.cfi_endproc
.LFE55:
	.size	decl_class_context, .-decl_class_context
	.type	add_dwarf_attr, @function
add_dwarf_attr:
.LFB56:
	.loc 1 4348 0
	.cfi_startproc
	pushq	%rbp	#
	.cfi_def_cfa_offset 16
	.cfi_offset 6, -16
	movq	%rsp, %rbp	#,
	.cfi_def_cfa_register 6
	movq	%rdi, -8(%rbp)	# die, die
	movq	%rsi, -16(%rbp)	# attr, attr
	.loc 1 4349 0
	cmpq	$0, -8(%rbp)	#, die
	je	.L889	#,
	.loc 1 4349 0 is_stmt 0 discriminator 1
	cmpq	$0, -16(%rbp)	#, attr
	je	.L889	#,
	.loc 1 4351 0 is_stmt 1
	movq	-8(%rbp), %rax	# die, tmp60
	movq	16(%rax), %rdx	# die_1(D)->die_attr, D.23794
	movq	-16(%rbp), %rax	# attr, tmp61
	movq	%rdx, 8(%rax)	# D.23794, attr_2(D)->dw_attr_next
	.loc 1 4352 0
	movq	-8(%rbp), %rax	# die, tmp62
	movq	-16(%rbp), %rdx	# attr, tmp63
	movq	%rdx, 16(%rax)	# tmp63, die_1(D)->die_attr
.L889:
	.loc 1 4354 0
	popq	%rbp	#
	.cfi_def_cfa 7, 8
	ret
	.cfi_endproc
.LFE56:
	.size	add_dwarf_attr, .-add_dwarf_attr
	.type	AT_class, @function
AT_class:
.LFB57:
	.loc 1 4359 0
	.cfi_startproc
	pushq	%rbp	#
	.cfi_def_cfa_offset 16
	.cfi_offset 6, -16
	movq	%rsp, %rbp	#,
	.cfi_def_cfa_register 6
	movq	%rdi, -8(%rbp)	# a, a
	.loc 1 4360 0
	movq	-8(%rbp), %rax	# a, tmp61
	movl	16(%rax), %eax	# a_1(D)->dw_attr_val.val_class, D.23795
	.loc 1 4361 0
	popq	%rbp	#
	.cfi_def_cfa 7, 8
	ret
	.cfi_endproc
.LFE57:
	.size	AT_class, .-AT_class
	.type	add_AT_flag, @function
add_AT_flag:
.LFB58:
	.loc 1 4370 0
	.cfi_startproc
	pushq	%rbp	#
	.cfi_def_cfa_offset 16
	.cfi_offset 6, -16
	movq	%rsp, %rbp	#,
	.cfi_def_cfa_register 6
	subq	$32, %rsp	#,
	movq	%rdi, -24(%rbp)	# die, die
	movl	%esi, -28(%rbp)	# attr_kind, attr_kind
	movl	%edx, -32(%rbp)	# flag, flag
	.loc 1 4371 0
	movl	$40, %edi	#,
	call	xmalloc	#
	movq	%rax, -8(%rbp)	# tmp60, attr
	.loc 1 4373 0
	movq	-8(%rbp), %rax	# attr, tmp61
	movq	$0, 8(%rax)	#, attr_1->dw_attr_next
	.loc 1 4374 0
	movq	-8(%rbp), %rax	# attr, tmp62
	movl	-28(%rbp), %edx	# attr_kind, tmp63
	movl	%edx, (%rax)	# tmp63, attr_1->dw_attr
	.loc 1 4375 0
	movq	-8(%rbp), %rax	# attr, tmp64
	movl	$9, 16(%rax)	#, attr_1->dw_attr_val.val_class
	.loc 1 4376 0
	movl	-32(%rbp), %eax	# flag, tmp65
	movl	%eax, %edx	# tmp65, D.23796
	movq	-8(%rbp), %rax	# attr, tmp66
	movb	%dl, 24(%rax)	# D.23796, attr_1->dw_attr_val.v.val_flag
	.loc 1 4377 0
	movq	-8(%rbp), %rdx	# attr, tmp67
	movq	-24(%rbp), %rax	# die, tmp68
	movq	%rdx, %rsi	# tmp67,
	movq	%rax, %rdi	# tmp68,
	call	add_dwarf_attr	#
	.loc 1 4378 0
	leave
	.cfi_def_cfa 7, 8
	ret
	.cfi_endproc
.LFE58:
	.size	add_AT_flag, .-add_AT_flag
	.type	AT_flag, @function
AT_flag:
.LFB59:
	.loc 1 4383 0
	.cfi_startproc
	pushq	%rbp	#
	.cfi_def_cfa_offset 16
	.cfi_offset 6, -16
	movq	%rsp, %rbp	#,
	.cfi_def_cfa_register 6
	subq	$16, %rsp	#,
	movq	%rdi, -8(%rbp)	# a, a
	.loc 1 4384 0
	cmpq	$0, -8(%rbp)	#, a
	je	.L895	#,
	.loc 1 4384 0 is_stmt 0 discriminator 1
	movq	-8(%rbp), %rax	# a, tmp63
	movq	%rax, %rdi	# tmp63,
	call	AT_class	#
	cmpl	$9, %eax	#, D.23797
	jne	.L895	#,
	.loc 1 4385 0 is_stmt 1
	movq	-8(%rbp), %rax	# a, tmp64
	movzbl	24(%rax), %eax	# a_1(D)->dw_attr_val.v.val_flag, D.23798
	movzbl	%al, %eax	# D.23798, D.23799
	jmp	.L897	#
.L895:
	.loc 1 4387 0
	movl	$__FUNCTION__.15489, %edx	#,
	movl	$4387, %esi	#,
	movl	$.LC32, %edi	#,
	call	fancy_abort	#
.L897:
	.loc 1 4388 0 discriminator 1
	leave
	.cfi_def_cfa 7, 8
	ret
	.cfi_endproc
.LFE59:
	.size	AT_flag, .-AT_flag
	.type	add_AT_int, @function
add_AT_int:
.LFB60:
	.loc 1 4397 0
	.cfi_startproc
	pushq	%rbp	#
	.cfi_def_cfa_offset 16
	.cfi_offset 6, -16
	movq	%rsp, %rbp	#,
	.cfi_def_cfa_register 6
	subq	$48, %rsp	#,
	movq	%rdi, -24(%rbp)	# die, die
	movl	%esi, -28(%rbp)	# attr_kind, attr_kind
	movq	%rdx, -40(%rbp)	# int_val, int_val
	.loc 1 4398 0
	movl	$40, %edi	#,
	call	xmalloc	#
	movq	%rax, -8(%rbp)	# tmp59, attr
	.loc 1 4400 0
	movq	-8(%rbp), %rax	# attr, tmp60
	movq	$0, 8(%rax)	#, attr_1->dw_attr_next
	.loc 1 4401 0
	movq	-8(%rbp), %rax	# attr, tmp61
	movl	-28(%rbp), %edx	# attr_kind, tmp62
	movl	%edx, (%rax)	# tmp62, attr_1->dw_attr
	.loc 1 4402 0
	movq	-8(%rbp), %rax	# attr, tmp63
	movl	$5, 16(%rax)	#, attr_1->dw_attr_val.val_class
	.loc 1 4403 0
	movq	-8(%rbp), %rax	# attr, tmp64
	movq	-40(%rbp), %rdx	# int_val, tmp65
	movq	%rdx, 24(%rax)	# tmp65, attr_1->dw_attr_val.v.val_int
	.loc 1 4404 0
	movq	-8(%rbp), %rdx	# attr, tmp66
	movq	-24(%rbp), %rax	# die, tmp67
	movq	%rdx, %rsi	# tmp66,
	movq	%rax, %rdi	# tmp67,
	call	add_dwarf_attr	#
	.loc 1 4405 0
	leave
	.cfi_def_cfa 7, 8
	ret
	.cfi_endproc
.LFE60:
	.size	add_AT_int, .-add_AT_int
	.type	AT_int, @function
AT_int:
.LFB61:
	.loc 1 4410 0
	.cfi_startproc
	pushq	%rbp	#
	.cfi_def_cfa_offset 16
	.cfi_offset 6, -16
	movq	%rsp, %rbp	#,
	.cfi_def_cfa_register 6
	subq	$16, %rsp	#,
	movq	%rdi, -8(%rbp)	# a, a
	.loc 1 4411 0
	cmpq	$0, -8(%rbp)	#, a
	je	.L900	#,
	.loc 1 4411 0 is_stmt 0 discriminator 1
	movq	-8(%rbp), %rax	# a, tmp62
	movq	%rax, %rdi	# tmp62,
	call	AT_class	#
	cmpl	$5, %eax	#, D.23800
	jne	.L900	#,
	.loc 1 4412 0 is_stmt 1
	movq	-8(%rbp), %rax	# a, tmp63
	movq	24(%rax), %rax	# a_1(D)->dw_attr_val.v.val_int, D.23801
	jmp	.L902	#
.L900:
	.loc 1 4414 0
	movl	$__FUNCTION__.15499, %edx	#,
	movl	$4414, %esi	#,
	movl	$.LC32, %edi	#,
	call	fancy_abort	#
.L902:
	.loc 1 4415 0 discriminator 1
	leave
	.cfi_def_cfa 7, 8
	ret
	.cfi_endproc
.LFE61:
	.size	AT_int, .-AT_int
	.type	add_AT_unsigned, @function
add_AT_unsigned:
.LFB62:
	.loc 1 4424 0
	.cfi_startproc
	pushq	%rbp	#
	.cfi_def_cfa_offset 16
	.cfi_offset 6, -16
	movq	%rsp, %rbp	#,
	.cfi_def_cfa_register 6
	subq	$48, %rsp	#,
	movq	%rdi, -24(%rbp)	# die, die
	movl	%esi, -28(%rbp)	# attr_kind, attr_kind
	movq	%rdx, -40(%rbp)	# unsigned_val, unsigned_val
	.loc 1 4425 0
	movl	$40, %edi	#,
	call	xmalloc	#
	movq	%rax, -8(%rbp)	# tmp59, attr
	.loc 1 4427 0
	movq	-8(%rbp), %rax	# attr, tmp60
	movq	$0, 8(%rax)	#, attr_1->dw_attr_next
	.loc 1 4428 0
	movq	-8(%rbp), %rax	# attr, tmp61
	movl	-28(%rbp), %edx	# attr_kind, tmp62
	movl	%edx, (%rax)	# tmp62, attr_1->dw_attr
	.loc 1 4429 0
	movq	-8(%rbp), %rax	# attr, tmp63
	movl	$6, 16(%rax)	#, attr_1->dw_attr_val.val_class
	.loc 1 4430 0
	movq	-8(%rbp), %rax	# attr, tmp64
	movq	-40(%rbp), %rdx	# unsigned_val, tmp65
	movq	%rdx, 24(%rax)	# tmp65, attr_1->dw_attr_val.v.val_unsigned
	.loc 1 4431 0
	movq	-8(%rbp), %rdx	# attr, tmp66
	movq	-24(%rbp), %rax	# die, tmp67
	movq	%rdx, %rsi	# tmp66,
	movq	%rax, %rdi	# tmp67,
	call	add_dwarf_attr	#
	.loc 1 4432 0
	leave
	.cfi_def_cfa 7, 8
	ret
	.cfi_endproc
.LFE62:
	.size	add_AT_unsigned, .-add_AT_unsigned
	.type	AT_unsigned, @function
AT_unsigned:
.LFB63:
	.loc 1 4437 0
	.cfi_startproc
	pushq	%rbp	#
	.cfi_def_cfa_offset 16
	.cfi_offset 6, -16
	movq	%rsp, %rbp	#,
	.cfi_def_cfa_register 6
	subq	$16, %rsp	#,
	movq	%rdi, -8(%rbp)	# a, a
	.loc 1 4438 0
	cmpq	$0, -8(%rbp)	#, a
	je	.L905	#,
	.loc 1 4438 0 is_stmt 0 discriminator 1
	movq	-8(%rbp), %rax	# a, tmp62
	movq	%rax, %rdi	# tmp62,
	call	AT_class	#
	cmpl	$6, %eax	#, D.23802
	jne	.L905	#,
	.loc 1 4439 0 is_stmt 1
	movq	-8(%rbp), %rax	# a, tmp63
	movq	24(%rax), %rax	# a_1(D)->dw_attr_val.v.val_unsigned, D.23803
	jmp	.L907	#
.L905:
	.loc 1 4441 0
	movl	$__FUNCTION__.15509, %edx	#,
	movl	$4441, %esi	#,
	movl	$.LC32, %edi	#,
	call	fancy_abort	#
.L907:
	.loc 1 4442 0 discriminator 1
	leave
	.cfi_def_cfa 7, 8
	ret
	.cfi_endproc
.LFE63:
	.size	AT_unsigned, .-AT_unsigned
	.type	add_AT_long_long, @function
add_AT_long_long:
.LFB64:
	.loc 1 4452 0
	.cfi_startproc
	pushq	%rbp	#
	.cfi_def_cfa_offset 16
	.cfi_offset 6, -16
	movq	%rsp, %rbp	#,
	.cfi_def_cfa_register 6
	subq	$48, %rsp	#,
	movq	%rdi, -24(%rbp)	# die, die
	movl	%esi, -28(%rbp)	# attr_kind, attr_kind
	movq	%rdx, -40(%rbp)	# val_hi, val_hi
	movq	%rcx, -48(%rbp)	# val_low, val_low
	.loc 1 4453 0
	movl	$40, %edi	#,
	call	xmalloc	#
	movq	%rax, -8(%rbp)	# tmp59, attr
	.loc 1 4455 0
	movq	-8(%rbp), %rax	# attr, tmp60
	movq	$0, 8(%rax)	#, attr_1->dw_attr_next
	.loc 1 4456 0
	movq	-8(%rbp), %rax	# attr, tmp61
	movl	-28(%rbp), %edx	# attr_kind, tmp62
	movl	%edx, (%rax)	# tmp62, attr_1->dw_attr
	.loc 1 4457 0
	movq	-8(%rbp), %rax	# attr, tmp63
	movl	$7, 16(%rax)	#, attr_1->dw_attr_val.val_class
	.loc 1 4458 0
	movq	-8(%rbp), %rax	# attr, tmp64
	movq	-40(%rbp), %rdx	# val_hi, tmp65
	movq	%rdx, 24(%rax)	# tmp65, attr_1->dw_attr_val.v.val_long_long.hi
	.loc 1 4459 0
	movq	-8(%rbp), %rax	# attr, tmp66
	movq	-48(%rbp), %rdx	# val_low, tmp67
	movq	%rdx, 32(%rax)	# tmp67, attr_1->dw_attr_val.v.val_long_long.low
	.loc 1 4460 0
	movq	-8(%rbp), %rdx	# attr, tmp68
	movq	-24(%rbp), %rax	# die, tmp69
	movq	%rdx, %rsi	# tmp68,
	movq	%rax, %rdi	# tmp69,
	call	add_dwarf_attr	#
	.loc 1 4461 0
	leave
	.cfi_def_cfa 7, 8
	ret
	.cfi_endproc
.LFE64:
	.size	add_AT_long_long, .-add_AT_long_long
	.type	add_AT_float, @function
add_AT_float:
.LFB65:
	.loc 1 4471 0
	.cfi_startproc
	pushq	%rbp	#
	.cfi_def_cfa_offset 16
	.cfi_offset 6, -16
	movq	%rsp, %rbp	#,
	.cfi_def_cfa_register 6
	subq	$48, %rsp	#,
	movq	%rdi, -24(%rbp)	# die, die
	movl	%esi, -28(%rbp)	# attr_kind, attr_kind
	movl	%edx, -32(%rbp)	# length, length
	movq	%rcx, -40(%rbp)	# array, array
	.loc 1 4472 0
	movl	$40, %edi	#,
	call	xmalloc	#
	movq	%rax, -8(%rbp)	# tmp59, attr
	.loc 1 4474 0
	movq	-8(%rbp), %rax	# attr, tmp60
	movq	$0, 8(%rax)	#, attr_1->dw_attr_next
	.loc 1 4475 0
	movq	-8(%rbp), %rax	# attr, tmp61
	movl	-28(%rbp), %edx	# attr_kind, tmp62
	movl	%edx, (%rax)	# tmp62, attr_1->dw_attr
	.loc 1 4476 0
	movq	-8(%rbp), %rax	# attr, tmp63
	movl	$8, 16(%rax)	#, attr_1->dw_attr_val.val_class
	.loc 1 4477 0
	movq	-8(%rbp), %rax	# attr, tmp64
	movl	-32(%rbp), %edx	# length, tmp65
	movl	%edx, 32(%rax)	# tmp65, attr_1->dw_attr_val.v.val_float.length
	.loc 1 4478 0
	movq	-8(%rbp), %rax	# attr, tmp66
	movq	-40(%rbp), %rdx	# array, tmp67
	movq	%rdx, 24(%rax)	# tmp67, attr_1->dw_attr_val.v.val_float.array
	.loc 1 4479 0
	movq	-8(%rbp), %rdx	# attr, tmp68
	movq	-24(%rbp), %rax	# die, tmp69
	movq	%rdx, %rsi	# tmp68,
	movq	%rax, %rdi	# tmp69,
	call	add_dwarf_attr	#
	.loc 1 4480 0
	leave
	.cfi_def_cfa 7, 8
	ret
	.cfi_endproc
.LFE65:
	.size	add_AT_float, .-add_AT_float
	.type	add_AT_string, @function
add_AT_string:
.LFB66:
	.loc 1 4489 0
	.cfi_startproc
	pushq	%rbp	#
	.cfi_def_cfa_offset 16
	.cfi_offset 6, -16
	movq	%rsp, %rbp	#,
	.cfi_def_cfa_register 6
	subq	$48, %rsp	#,
	movq	%rdi, -24(%rbp)	# die, die
	movl	%esi, -28(%rbp)	# attr_kind, attr_kind
	movq	%rdx, -40(%rbp)	# str, str
	.loc 1 4490 0
	movl	$40, %edi	#,
	call	xmalloc	#
	movq	%rax, -16(%rbp)	# tmp67, attr
	.loc 1 4493 0
	movq	debug_str_hash(%rip), %rax	# debug_str_hash, debug_str_hash.403
	testq	%rax, %rax	# debug_str_hash.403
	jne	.L911	#,
	.loc 1 4495 0
	movl	$10, %edi	#,
	call	ht_create	#
	movq	%rax, debug_str_hash(%rip)	# debug_str_hash.404, debug_str_hash
	.loc 1 4496 0
	movq	debug_str_hash(%rip), %rax	# debug_str_hash, debug_str_hash.405
	movq	$indirect_string_alloc, 96(%rax)	#, debug_str_hash.405_4->alloc_node
.L911:
	.loc 1 4501 0
	movq	-40(%rbp), %rax	# str, tmp68
	movq	%rax, %rdi	# tmp68,
	call	strlen	#
	.loc 1 4500 0
	movl	%eax, %edx	# D.23804, D.23805
	movq	debug_str_hash(%rip), %rax	# debug_str_hash, debug_str_hash.406
	.loc 1 4499 0
	movq	-40(%rbp), %rsi	# str, tmp69
	movl	$1, %ecx	#,
	movq	%rax, %rdi	# debug_str_hash.406,
	call	ht_lookup	#
	movq	%rax, -8(%rbp)	# tmp70, node
	.loc 1 4502 0
	movq	-8(%rbp), %rax	# node, tmp71
	movl	16(%rax), %eax	# node_9->refcount, D.23805
	leal	1(%rax), %edx	#, D.23805
	movq	-8(%rbp), %rax	# node, tmp72
	movl	%edx, 16(%rax)	# D.23805, node_9->refcount
	.loc 1 4504 0
	movq	-16(%rbp), %rax	# attr, tmp73
	movq	$0, 8(%rax)	#, attr_1->dw_attr_next
	.loc 1 4505 0
	movq	-16(%rbp), %rax	# attr, tmp74
	movl	-28(%rbp), %edx	# attr_kind, tmp75
	movl	%edx, (%rax)	# tmp75, attr_1->dw_attr
	.loc 1 4506 0
	movq	-16(%rbp), %rax	# attr, tmp76
	movl	$14, 16(%rax)	#, attr_1->dw_attr_val.val_class
	.loc 1 4507 0
	movq	-16(%rbp), %rax	# attr, tmp77
	movq	-8(%rbp), %rdx	# node, tmp78
	movq	%rdx, 24(%rax)	# tmp78, attr_1->dw_attr_val.v.val_str
	.loc 1 4508 0
	movq	-16(%rbp), %rdx	# attr, tmp79
	movq	-24(%rbp), %rax	# die, tmp80
	movq	%rdx, %rsi	# tmp79,
	movq	%rax, %rdi	# tmp80,
	call	add_dwarf_attr	#
	.loc 1 4509 0
	leave
	.cfi_def_cfa 7, 8
	ret
	.cfi_endproc
.LFE66:
	.size	add_AT_string, .-add_AT_string
	.type	AT_string, @function
AT_string:
.LFB67:
	.loc 1 4514 0
	.cfi_startproc
	pushq	%rbp	#
	.cfi_def_cfa_offset 16
	.cfi_offset 6, -16
	movq	%rsp, %rbp	#,
	.cfi_def_cfa_register 6
	subq	$16, %rsp	#,
	movq	%rdi, -8(%rbp)	# a, a
	.loc 1 4515 0
	cmpq	$0, -8(%rbp)	#, a
	je	.L913	#,
	.loc 1 4515 0 is_stmt 0 discriminator 1
	movq	-8(%rbp), %rax	# a, tmp63
	movq	%rax, %rdi	# tmp63,
	call	AT_class	#
	cmpl	$14, %eax	#, D.23806
	jne	.L913	#,
	.loc 1 4516 0 is_stmt 1
	movq	-8(%rbp), %rax	# a, tmp64
	movq	24(%rax), %rax	# a_1(D)->dw_attr_val.v.val_str, D.23807
	movq	8(%rax), %rax	# _3->id.str, D.23808
	jmp	.L915	#
.L913:
	.loc 1 4518 0
	movl	$__FUNCTION__.15534, %edx	#,
	movl	$4518, %esi	#,
	movl	$.LC32, %edi	#,
	call	fancy_abort	#
.L915:
	.loc 1 4519 0 discriminator 1
	leave
	.cfi_def_cfa 7, 8
	ret
	.cfi_endproc
.LFE67:
	.size	AT_string, .-AT_string
	.section	.rodata
.LC385:
	.string	"LC"
	.text
	.type	AT_string_form, @function
AT_string_form:
.LFB68:
	.loc 1 4527 0
	.cfi_startproc
	pushq	%rbp	#
	.cfi_def_cfa_offset 16
	.cfi_offset 6, -16
	movq	%rsp, %rbp	#,
	.cfi_def_cfa_register 6
	pushq	%rbx	#
	subq	$88, %rsp	#,
	.cfi_offset 3, -24
	movq	%rdi, -88(%rbp)	# a, a
	.loc 1 4527 0
	movq	%fs:40, %rax	#, tmp86
	movq	%rax, -24(%rbp)	# tmp86, D.23813
	xorl	%eax, %eax	# tmp86
	.loc 1 4528 0
	cmpq	$0, -88(%rbp)	#, a
	je	.L917	#,
	.loc 1 4528 0 is_stmt 0 discriminator 1
	movq	-88(%rbp), %rax	# a, tmp71
	movq	%rax, %rdi	# tmp71,
	call	AT_class	#
	cmpl	$14, %eax	#, D.23810
	jne	.L917	#,
.LBB19:
	.loc 1 4535 0 is_stmt 1
	movq	-88(%rbp), %rax	# a, tmp72
	movq	24(%rax), %rax	# a_2(D)->dw_attr_val.v.val_str, tmp73
	movq	%rax, -72(%rbp)	# tmp73, node
	.loc 1 4536 0
	movq	-72(%rbp), %rax	# node, tmp74
	movl	20(%rax), %eax	# node_4->form, D.23811
	testl	%eax, %eax	# D.23811
	je	.L918	#,
	.loc 1 4537 0
	movq	-72(%rbp), %rax	# node, tmp75
	movl	20(%rax), %eax	# node_4->form, D.23811
	jmp	.L919	#
.L918:
	.loc 1 4539 0
	movq	-72(%rbp), %rax	# node, tmp76
	movl	(%rax), %eax	# node_4->id.len, D.23811
	addl	$1, %eax	#, tmp77
	movl	%eax, -76(%rbp)	# tmp77, len
	.loc 1 4543 0
	cmpl	$4, -76(%rbp)	#, len
	jbe	.L920	#,
	.loc 1 4543 0 is_stmt 0 discriminator 1
	movq	-72(%rbp), %rax	# node, tmp78
	movl	16(%rax), %eax	# node_4->refcount, D.23811
	testl	%eax, %eax	# D.23811
	jne	.L921	#,
.L920:
	.loc 1 4544 0 is_stmt 1
	movq	-72(%rbp), %rax	# node, tmp79
	movl	$8, 20(%rax)	#, node_4->form
	movl	$8, %eax	#, D.23809
	jmp	.L919	#
.L921:
	.loc 1 4553 0
	movl	const_labelno(%rip), %eax	# const_labelno, const_labelno.169
	movl	%eax, %edx	# const_labelno.169, const_labelno.170
	leaq	-64(%rbp), %rax	#, tmp80
	movl	%edx, %ecx	# const_labelno.170,
	movl	$.LC385, %edx	#,
	movl	$.LC30, %esi	#,
	movq	%rax, %rdi	# tmp80,
	movl	$0, %eax	#,
	call	sprintf	#
	.loc 1 4554 0
	movl	const_labelno(%rip), %eax	# const_labelno, const_labelno.171
	addl	$1, %eax	#, const_labelno.172
	movl	%eax, const_labelno(%rip)	# const_labelno.172, const_labelno
	.loc 1 4555 0
	leaq	-64(%rbp), %rax	#, tmp81
	movq	%rax, %rdi	# tmp81,
	call	xstrdup	#
	movq	%rax, %rdx	# tmp82, D.23812
	movq	-72(%rbp), %rax	# node, tmp83
	movq	%rdx, 24(%rax)	# D.23812, node_4->label
	.loc 1 4557 0
	movq	-72(%rbp), %rax	# node, tmp84
	movl	$14, 20(%rax)	#, node_4->form
	movl	$14, %eax	#, D.23809
.L919:
.LBE19:
	.loc 1 4561 0
	movq	-24(%rbp), %rbx	# D.23813, tmp87
	xorq	%fs:40, %rbx	#, tmp87
	je	.L923	#,
	jmp	.L924	#
.L917:
	.loc 1 4560 0
	movl	$__FUNCTION__.15543, %edx	#,
	movl	$4560, %esi	#,
	movl	$.LC32, %edi	#,
	call	fancy_abort	#
.L924:
	.loc 1 4561 0
	call	__stack_chk_fail	#
.L923:
	addq	$88, %rsp	#,
	popq	%rbx	#
	popq	%rbp	#
	.cfi_def_cfa 7, 8
	ret
	.cfi_endproc
.LFE68:
	.size	AT_string_form, .-AT_string_form
	.type	add_AT_die_ref, @function
add_AT_die_ref:
.LFB69:
	.loc 1 4570 0
	.cfi_startproc
	pushq	%rbp	#
	.cfi_def_cfa_offset 16
	.cfi_offset 6, -16
	movq	%rsp, %rbp	#,
	.cfi_def_cfa_register 6
	subq	$48, %rsp	#,
	movq	%rdi, -24(%rbp)	# die, die
	movl	%esi, -28(%rbp)	# attr_kind, attr_kind
	movq	%rdx, -40(%rbp)	# targ_die, targ_die
	.loc 1 4571 0
	movl	$40, %edi	#,
	call	xmalloc	#
	movq	%rax, -8(%rbp)	# tmp59, attr
	.loc 1 4573 0
	movq	-8(%rbp), %rax	# attr, tmp60
	movq	$0, 8(%rax)	#, attr_1->dw_attr_next
	.loc 1 4574 0
	movq	-8(%rbp), %rax	# attr, tmp61
	movl	-28(%rbp), %edx	# attr_kind, tmp62
	movl	%edx, (%rax)	# tmp62, attr_1->dw_attr
	.loc 1 4575 0
	movq	-8(%rbp), %rax	# attr, tmp63
	movl	$10, 16(%rax)	#, attr_1->dw_attr_val.val_class
	.loc 1 4576 0
	movq	-8(%rbp), %rax	# attr, tmp64
	movq	-40(%rbp), %rdx	# targ_die, tmp65
	movq	%rdx, 24(%rax)	# tmp65, attr_1->dw_attr_val.v.val_die_ref.die
	.loc 1 4577 0
	movq	-8(%rbp), %rax	# attr, tmp66
	movl	$0, 32(%rax)	#, attr_1->dw_attr_val.v.val_die_ref.external
	.loc 1 4578 0
	movq	-8(%rbp), %rdx	# attr, tmp67
	movq	-24(%rbp), %rax	# die, tmp68
	movq	%rdx, %rsi	# tmp67,
	movq	%rax, %rdi	# tmp68,
	call	add_dwarf_attr	#
	.loc 1 4579 0
	leave
	.cfi_def_cfa 7, 8
	ret
	.cfi_endproc
.LFE69:
	.size	add_AT_die_ref, .-add_AT_die_ref
	.type	AT_ref, @function
AT_ref:
.LFB70:
	.loc 1 4584 0
	.cfi_startproc
	pushq	%rbp	#
	.cfi_def_cfa_offset 16
	.cfi_offset 6, -16
	movq	%rsp, %rbp	#,
	.cfi_def_cfa_register 6
	subq	$16, %rsp	#,
	movq	%rdi, -8(%rbp)	# a, a
	.loc 1 4585 0
	cmpq	$0, -8(%rbp)	#, a
	je	.L927	#,
	.loc 1 4585 0 is_stmt 0 discriminator 1
	movq	-8(%rbp), %rax	# a, tmp62
	movq	%rax, %rdi	# tmp62,
	call	AT_class	#
	cmpl	$10, %eax	#, D.23815
	jne	.L927	#,
	.loc 1 4586 0 is_stmt 1
	movq	-8(%rbp), %rax	# a, tmp63
	movq	24(%rax), %rax	# a_1(D)->dw_attr_val.v.val_die_ref.die, D.23816
	jmp	.L929	#
.L927:
	.loc 1 4588 0
	movl	$__FUNCTION__.15553, %edx	#,
	movl	$4588, %esi	#,
	movl	$.LC32, %edi	#,
	call	fancy_abort	#
.L929:
	.loc 1 4589 0 discriminator 1
	leave
	.cfi_def_cfa 7, 8
	ret
	.cfi_endproc
.LFE70:
	.size	AT_ref, .-AT_ref
	.type	AT_ref_external, @function
AT_ref_external:
.LFB71:
	.loc 1 4594 0
	.cfi_startproc
	pushq	%rbp	#
	.cfi_def_cfa_offset 16
	.cfi_offset 6, -16
	movq	%rsp, %rbp	#,
	.cfi_def_cfa_register 6
	subq	$8, %rsp	#,
	movq	%rdi, -8(%rbp)	# a, a
	.loc 1 4595 0
	cmpq	$0, -8(%rbp)	#, a
	je	.L931	#,
	.loc 1 4595 0 is_stmt 0 discriminator 1
	movq	-8(%rbp), %rax	# a, tmp62
	movq	%rax, %rdi	# tmp62,
	call	AT_class	#
	cmpl	$10, %eax	#, D.23818
	jne	.L931	#,
	.loc 1 4596 0 is_stmt 1
	movq	-8(%rbp), %rax	# a, tmp63
	movl	32(%rax), %eax	# a_2(D)->dw_attr_val.v.val_die_ref.external, D.23817
	jmp	.L932	#
.L931:
	.loc 1 4598 0
	movl	$0, %eax	#, D.23817
.L932:
	.loc 1 4599 0
	leave
	.cfi_def_cfa 7, 8
	ret
	.cfi_endproc
.LFE71:
	.size	AT_ref_external, .-AT_ref_external
	.type	set_AT_ref_external, @function
set_AT_ref_external:
.LFB72:
	.loc 1 4605 0
	.cfi_startproc
	pushq	%rbp	#
	.cfi_def_cfa_offset 16
	.cfi_offset 6, -16
	movq	%rsp, %rbp	#,
	.cfi_def_cfa_register 6
	subq	$16, %rsp	#,
	movq	%rdi, -8(%rbp)	# a, a
	movl	%esi, -12(%rbp)	# i, i
	.loc 1 4606 0
	cmpq	$0, -8(%rbp)	#, a
	je	.L934	#,
	.loc 1 4606 0 is_stmt 0 discriminator 1
	movq	-8(%rbp), %rax	# a, tmp60
	movq	%rax, %rdi	# tmp60,
	call	AT_class	#
	cmpl	$10, %eax	#, D.23819
	jne	.L934	#,
	.loc 1 4607 0 is_stmt 1
	movq	-8(%rbp), %rax	# a, tmp61
	movl	-12(%rbp), %edx	# i, tmp62
	movl	%edx, 32(%rax)	# tmp62, a_1(D)->dw_attr_val.v.val_die_ref.external
	jmp	.L935	#
.L934:
	.loc 1 4609 0
	movl	$__FUNCTION__.15561, %edx	#,
	movl	$4609, %esi	#,
	movl	$.LC32, %edi	#,
	call	fancy_abort	#
.L935:
	.loc 1 4610 0
	leave
	.cfi_def_cfa 7, 8
	ret
	.cfi_endproc
.LFE72:
	.size	set_AT_ref_external, .-set_AT_ref_external
	.type	add_AT_loc, @function
add_AT_loc:
.LFB74:
	.loc 1 4636 0
	.cfi_startproc
	pushq	%rbp	#
	.cfi_def_cfa_offset 16
	.cfi_offset 6, -16
	movq	%rsp, %rbp	#,
	.cfi_def_cfa_register 6
	subq	$48, %rsp	#,
	movq	%rdi, -24(%rbp)	# die, die
	movl	%esi, -28(%rbp)	# attr_kind, attr_kind
	movq	%rdx, -40(%rbp)	# loc, loc
	.loc 1 4637 0
	movl	$40, %edi	#,
	call	xmalloc	#
	movq	%rax, -8(%rbp)	# tmp59, attr
	.loc 1 4639 0
	movq	-8(%rbp), %rax	# attr, tmp60
	movq	$0, 8(%rax)	#, attr_1->dw_attr_next
	.loc 1 4640 0
	movq	-8(%rbp), %rax	# attr, tmp61
	movl	-28(%rbp), %edx	# attr_kind, tmp62
	movl	%edx, (%rax)	# tmp62, attr_1->dw_attr
	.loc 1 4641 0
	movq	-8(%rbp), %rax	# attr, tmp63
	movl	$2, 16(%rax)	#, attr_1->dw_attr_val.val_class
	.loc 1 4642 0
	movq	-8(%rbp), %rax	# attr, tmp64
	movq	-40(%rbp), %rdx	# loc, tmp65
	movq	%rdx, 24(%rax)	# tmp65, attr_1->dw_attr_val.v.val_loc
	.loc 1 4643 0
	movq	-8(%rbp), %rdx	# attr, tmp66
	movq	-24(%rbp), %rax	# die, tmp67
	movq	%rdx, %rsi	# tmp66,
	movq	%rax, %rdi	# tmp67,
	call	add_dwarf_attr	#
	.loc 1 4644 0
	leave
	.cfi_def_cfa 7, 8
	ret
	.cfi_endproc
.LFE74:
	.size	add_AT_loc, .-add_AT_loc
	.type	AT_loc, @function
AT_loc:
.LFB75:
	.loc 1 4649 0
	.cfi_startproc
	pushq	%rbp	#
	.cfi_def_cfa_offset 16
	.cfi_offset 6, -16
	movq	%rsp, %rbp	#,
	.cfi_def_cfa_register 6
	subq	$16, %rsp	#,
	movq	%rdi, -8(%rbp)	# a, a
	.loc 1 4650 0
	cmpq	$0, -8(%rbp)	#, a
	je	.L938	#,
	.loc 1 4650 0 is_stmt 0 discriminator 1
	movq	-8(%rbp), %rax	# a, tmp62
	movq	%rax, %rdi	# tmp62,
	call	AT_class	#
	cmpl	$2, %eax	#, D.23820
	jne	.L938	#,
	.loc 1 4651 0 is_stmt 1
	movq	-8(%rbp), %rax	# a, tmp63
	movq	24(%rax), %rax	# a_1(D)->dw_attr_val.v.val_loc, D.23821
	jmp	.L940	#
.L938:
	.loc 1 4653 0
	movl	$__FUNCTION__.15577, %edx	#,
	movl	$4653, %esi	#,
	movl	$.LC32, %edi	#,
	call	fancy_abort	#
.L940:
	.loc 1 4654 0 discriminator 1
	leave
	.cfi_def_cfa 7, 8
	ret
	.cfi_endproc
.LFE75:
	.size	AT_loc, .-AT_loc
	.type	AT_loc_list, @function
AT_loc_list:
.LFB77:
	.loc 1 4675 0
	.cfi_startproc
	pushq	%rbp	#
	.cfi_def_cfa_offset 16
	.cfi_offset 6, -16
	movq	%rsp, %rbp	#,
	.cfi_def_cfa_register 6
	subq	$16, %rsp	#,
	movq	%rdi, -8(%rbp)	# a, a
	.loc 1 4676 0
	cmpq	$0, -8(%rbp)	#, a
	je	.L942	#,
	.loc 1 4676 0 is_stmt 0 discriminator 1
	movq	-8(%rbp), %rax	# a, tmp62
	movq	%rax, %rdi	# tmp62,
	call	AT_class	#
	cmpl	$3, %eax	#, D.23822
	jne	.L942	#,
	.loc 1 4677 0 is_stmt 1
	movq	-8(%rbp), %rax	# a, tmp63
	movq	24(%rax), %rax	# a_1(D)->dw_attr_val.v.val_loc_list, D.23823
	jmp	.L944	#
.L942:
	.loc 1 4679 0
	movl	$__FUNCTION__.15587, %edx	#,
	movl	$4679, %esi	#,
	movl	$.LC32, %edi	#,
	call	fancy_abort	#
.L944:
	.loc 1 4680 0 discriminator 1
	leave
	.cfi_def_cfa 7, 8
	ret
	.cfi_endproc
.LFE77:
	.size	AT_loc_list, .-AT_loc_list
	.type	add_AT_addr, @function
add_AT_addr:
.LFB78:
	.loc 1 4689 0
	.cfi_startproc
	pushq	%rbp	#
	.cfi_def_cfa_offset 16
	.cfi_offset 6, -16
	movq	%rsp, %rbp	#,
	.cfi_def_cfa_register 6
	subq	$48, %rsp	#,
	movq	%rdi, -24(%rbp)	# die, die
	movl	%esi, -28(%rbp)	# attr_kind, attr_kind
	movq	%rdx, -40(%rbp)	# addr, addr
	.loc 1 4690 0
	movl	$40, %edi	#,
	call	xmalloc	#
	movq	%rax, -8(%rbp)	# tmp59, attr
	.loc 1 4692 0
	movq	-8(%rbp), %rax	# attr, tmp60
	movq	$0, 8(%rax)	#, attr_1->dw_attr_next
	.loc 1 4693 0
	movq	-8(%rbp), %rax	# attr, tmp61
	movl	-28(%rbp), %edx	# attr_kind, tmp62
	movl	%edx, (%rax)	# tmp62, attr_1->dw_attr
	.loc 1 4694 0
	movq	-8(%rbp), %rax	# attr, tmp63
	movl	$0, 16(%rax)	#, attr_1->dw_attr_val.val_class
	.loc 1 4695 0
	movq	-8(%rbp), %rax	# attr, tmp64
	movq	-40(%rbp), %rdx	# addr, tmp65
	movq	%rdx, 24(%rax)	# tmp65, attr_1->dw_attr_val.v.val_addr
	.loc 1 4696 0
	movq	-8(%rbp), %rdx	# attr, tmp66
	movq	-24(%rbp), %rax	# die, tmp67
	movq	%rdx, %rsi	# tmp66,
	movq	%rax, %rdi	# tmp67,
	call	add_dwarf_attr	#
	.loc 1 4697 0
	leave
	.cfi_def_cfa 7, 8
	ret
	.cfi_endproc
.LFE78:
	.size	add_AT_addr, .-add_AT_addr
	.type	AT_addr, @function
AT_addr:
.LFB79:
	.loc 1 4702 0
	.cfi_startproc
	pushq	%rbp	#
	.cfi_def_cfa_offset 16
	.cfi_offset 6, -16
	movq	%rsp, %rbp	#,
	.cfi_def_cfa_register 6
	subq	$16, %rsp	#,
	movq	%rdi, -8(%rbp)	# a, a
	.loc 1 4703 0
	cmpq	$0, -8(%rbp)	#, a
	je	.L947	#,
	.loc 1 4703 0 is_stmt 0 discriminator 1
	movq	-8(%rbp), %rax	# a, tmp62
	movq	%rax, %rdi	# tmp62,
	call	AT_class	#
	testl	%eax, %eax	# D.23824
	jne	.L947	#,
	.loc 1 4704 0 is_stmt 1
	movq	-8(%rbp), %rax	# a, tmp63
	movq	24(%rax), %rax	# a_1(D)->dw_attr_val.v.val_addr, D.23825
	jmp	.L949	#
.L947:
	.loc 1 4706 0
	movl	$__FUNCTION__.15597, %edx	#,
	movl	$4706, %esi	#,
	movl	$.LC32, %edi	#,
	call	fancy_abort	#
.L949:
	.loc 1 4707 0 discriminator 1
	leave
	.cfi_def_cfa 7, 8
	ret
	.cfi_endproc
.LFE79:
	.size	AT_addr, .-AT_addr
	.type	add_AT_lbl_id, @function
add_AT_lbl_id:
.LFB80:
	.loc 1 4716 0
	.cfi_startproc
	pushq	%rbp	#
	.cfi_def_cfa_offset 16
	.cfi_offset 6, -16
	movq	%rsp, %rbp	#,
	.cfi_def_cfa_register 6
	subq	$48, %rsp	#,
	movq	%rdi, -24(%rbp)	# die, die
	movl	%esi, -28(%rbp)	# attr_kind, attr_kind
	movq	%rdx, -40(%rbp)	# lbl_id, lbl_id
	.loc 1 4717 0
	movl	$40, %edi	#,
	call	xmalloc	#
	movq	%rax, -8(%rbp)	# tmp60, attr
	.loc 1 4719 0
	movq	-8(%rbp), %rax	# attr, tmp61
	movq	$0, 8(%rax)	#, attr_1->dw_attr_next
	.loc 1 4720 0
	movq	-8(%rbp), %rax	# attr, tmp62
	movl	-28(%rbp), %edx	# attr_kind, tmp63
	movl	%edx, (%rax)	# tmp63, attr_1->dw_attr
	.loc 1 4721 0
	movq	-8(%rbp), %rax	# attr, tmp64
	movl	$12, 16(%rax)	#, attr_1->dw_attr_val.val_class
	.loc 1 4722 0
	movq	-40(%rbp), %rax	# lbl_id, tmp65
	movq	%rax, %rdi	# tmp65,
	call	xstrdup	#
	movq	%rax, %rdx	# tmp66, D.23826
	movq	-8(%rbp), %rax	# attr, tmp67
	movq	%rdx, 24(%rax)	# D.23826, attr_1->dw_attr_val.v.val_lbl_id
	.loc 1 4723 0
	movq	-8(%rbp), %rdx	# attr, tmp68
	movq	-24(%rbp), %rax	# die, tmp69
	movq	%rdx, %rsi	# tmp68,
	movq	%rax, %rdi	# tmp69,
	call	add_dwarf_attr	#
	.loc 1 4724 0
	leave
	.cfi_def_cfa 7, 8
	ret
	.cfi_endproc
.LFE80:
	.size	add_AT_lbl_id, .-add_AT_lbl_id
	.type	add_AT_lbl_offset, @function
add_AT_lbl_offset:
.LFB81:
	.loc 1 4733 0
	.cfi_startproc
	pushq	%rbp	#
	.cfi_def_cfa_offset 16
	.cfi_offset 6, -16
	movq	%rsp, %rbp	#,
	.cfi_def_cfa_register 6
	subq	$48, %rsp	#,
	movq	%rdi, -24(%rbp)	# die, die
	movl	%esi, -28(%rbp)	# attr_kind, attr_kind
	movq	%rdx, -40(%rbp)	# label, label
	.loc 1 4734 0
	movl	$40, %edi	#,
	call	xmalloc	#
	movq	%rax, -8(%rbp)	# tmp60, attr
	.loc 1 4736 0
	movq	-8(%rbp), %rax	# attr, tmp61
	movq	$0, 8(%rax)	#, attr_1->dw_attr_next
	.loc 1 4737 0
	movq	-8(%rbp), %rax	# attr, tmp62
	movl	-28(%rbp), %edx	# attr_kind, tmp63
	movl	%edx, (%rax)	# tmp63, attr_1->dw_attr
	.loc 1 4738 0
	movq	-8(%rbp), %rax	# attr, tmp64
	movl	$13, 16(%rax)	#, attr_1->dw_attr_val.val_class
	.loc 1 4739 0
	movq	-40(%rbp), %rax	# label, tmp65
	movq	%rax, %rdi	# tmp65,
	call	xstrdup	#
	movq	%rax, %rdx	# tmp66, D.23827
	movq	-8(%rbp), %rax	# attr, tmp67
	movq	%rdx, 24(%rax)	# D.23827, attr_1->dw_attr_val.v.val_lbl_id
	.loc 1 4740 0
	movq	-8(%rbp), %rdx	# attr, tmp68
	movq	-24(%rbp), %rax	# die, tmp69
	movq	%rdx, %rsi	# tmp68,
	movq	%rax, %rdi	# tmp69,
	call	add_dwarf_attr	#
	.loc 1 4741 0
	leave
	.cfi_def_cfa 7, 8
	ret
	.cfi_endproc
.LFE81:
	.size	add_AT_lbl_offset, .-add_AT_lbl_offset
	.type	add_AT_range_list, @function
add_AT_range_list:
.LFB83:
	.loc 1 4767 0
	.cfi_startproc
	pushq	%rbp	#
	.cfi_def_cfa_offset 16
	.cfi_offset 6, -16
	movq	%rsp, %rbp	#,
	.cfi_def_cfa_register 6
	subq	$48, %rsp	#,
	movq	%rdi, -24(%rbp)	# die, die
	movl	%esi, -28(%rbp)	# attr_kind, attr_kind
	movq	%rdx, -40(%rbp)	# offset, offset
	.loc 1 4768 0
	movl	$40, %edi	#,
	call	xmalloc	#
	movq	%rax, -8(%rbp)	# tmp59, attr
	.loc 1 4770 0
	movq	-8(%rbp), %rax	# attr, tmp60
	movq	$0, 8(%rax)	#, attr_1->dw_attr_next
	.loc 1 4771 0
	movq	-8(%rbp), %rax	# attr, tmp61
	movl	-28(%rbp), %edx	# attr_kind, tmp62
	movl	%edx, (%rax)	# tmp62, attr_1->dw_attr
	.loc 1 4772 0
	movq	-8(%rbp), %rax	# attr, tmp63
	movl	$4, 16(%rax)	#, attr_1->dw_attr_val.val_class
	.loc 1 4773 0
	movq	-8(%rbp), %rax	# attr, tmp64
	movq	-40(%rbp), %rdx	# offset, tmp65
	movq	%rdx, 24(%rax)	# tmp65, attr_1->dw_attr_val.v.val_offset
	.loc 1 4774 0
	movq	-8(%rbp), %rdx	# attr, tmp66
	movq	-24(%rbp), %rax	# die, tmp67
	movq	%rdx, %rsi	# tmp66,
	movq	%rax, %rdi	# tmp67,
	call	add_dwarf_attr	#
	.loc 1 4775 0
	leave
	.cfi_def_cfa 7, 8
	ret
	.cfi_endproc
.LFE83:
	.size	add_AT_range_list, .-add_AT_range_list
	.type	AT_lbl, @function
AT_lbl:
.LFB84:
	.loc 1 4780 0
	.cfi_startproc
	pushq	%rbp	#
	.cfi_def_cfa_offset 16
	.cfi_offset 6, -16
	movq	%rsp, %rbp	#,
	.cfi_def_cfa_register 6
	subq	$16, %rsp	#,
	movq	%rdi, -8(%rbp)	# a, a
	.loc 1 4781 0
	cmpq	$0, -8(%rbp)	#, a
	je	.L954	#,
	.loc 1 4781 0 is_stmt 0 discriminator 1
	movq	-8(%rbp), %rax	# a, tmp63
	movq	%rax, %rdi	# tmp63,
	call	AT_class	#
	cmpl	$12, %eax	#, D.23828
	je	.L955	#,
	.loc 1 4782 0 is_stmt 1
	movq	-8(%rbp), %rax	# a, tmp64
	movq	%rax, %rdi	# tmp64,
	call	AT_class	#
	cmpl	$13, %eax	#, D.23828
	jne	.L954	#,
.L955:
	.loc 1 4783 0
	movq	-8(%rbp), %rax	# a, tmp65
	movq	24(%rax), %rax	# a_1(D)->dw_attr_val.v.val_lbl_id, D.23829
	jmp	.L957	#
.L954:
	.loc 1 4785 0
	movl	$__FUNCTION__.15625, %edx	#,
	movl	$4785, %esi	#,
	movl	$.LC32, %edi	#,
	call	fancy_abort	#
.L957:
	.loc 1 4786 0 discriminator 1
	leave
	.cfi_def_cfa 7, 8
	ret
	.cfi_endproc
.LFE84:
	.size	AT_lbl, .-AT_lbl
	.type	get_AT, @function
get_AT:
.LFB85:
	.loc 1 4794 0
	.cfi_startproc
	pushq	%rbp	#
	.cfi_def_cfa_offset 16
	.cfi_offset 6, -16
	movq	%rsp, %rbp	#,
	.cfi_def_cfa_register 6
	subq	$32, %rsp	#,
	movq	%rdi, -24(%rbp)	# die, die
	movl	%esi, -28(%rbp)	# attr_kind, attr_kind
	.loc 1 4796 0
	movq	$0, -8(%rbp)	#, spec
	.loc 1 4798 0
	cmpq	$0, -24(%rbp)	#, die
	je	.L959	#,
	.loc 1 4800 0
	movq	-24(%rbp), %rax	# die, tmp64
	movq	16(%rax), %rax	# die_6(D)->die_attr, tmp65
	movq	%rax, -16(%rbp)	# tmp65, a
	jmp	.L960	#
.L965:
	.loc 1 4801 0
	movq	-16(%rbp), %rax	# a, tmp66
	movl	(%rax), %eax	# a_1->dw_attr, D.23831
	cmpl	-28(%rbp), %eax	# attr_kind, D.23831
	jne	.L961	#,
	.loc 1 4802 0
	movq	-16(%rbp), %rax	# a, D.23830
	jmp	.L962	#
.L961:
	.loc 1 4803 0
	movq	-16(%rbp), %rax	# a, tmp67
	movl	(%rax), %eax	# a_1->dw_attr, D.23831
	cmpl	$71, %eax	#, D.23831
	je	.L963	#,
	.loc 1 4804 0
	movq	-16(%rbp), %rax	# a, tmp68
	movl	(%rax), %eax	# a_1->dw_attr, D.23831
	cmpl	$49, %eax	#, D.23831
	jne	.L964	#,
.L963:
	.loc 1 4805 0
	movq	-16(%rbp), %rax	# a, tmp69
	movq	%rax, %rdi	# tmp69,
	call	AT_ref	#
	movq	%rax, -8(%rbp)	# tmp70, spec
.L964:
	.loc 1 4800 0
	movq	-16(%rbp), %rax	# a, tmp71
	movq	8(%rax), %rax	# a_1->dw_attr_next, tmp72
	movq	%rax, -16(%rbp)	# tmp72, a
.L960:
	.loc 1 4800 0 is_stmt 0 discriminator 1
	cmpq	$0, -16(%rbp)	#, a
	jne	.L965	#,
	.loc 1 4807 0 is_stmt 1
	cmpq	$0, -8(%rbp)	#, spec
	je	.L959	#,
	.loc 1 4808 0
	movl	-28(%rbp), %edx	# attr_kind, tmp73
	movq	-8(%rbp), %rax	# spec, tmp74
	movl	%edx, %esi	# tmp73,
	movq	%rax, %rdi	# tmp74,
	call	get_AT	#
	jmp	.L962	#
.L959:
	.loc 1 4811 0
	movl	$0, %eax	#, D.23830
.L962:
	.loc 1 4812 0
	leave
	.cfi_def_cfa 7, 8
	ret
	.cfi_endproc
.LFE85:
	.size	get_AT, .-get_AT
	.type	get_AT_low_pc, @function
get_AT_low_pc:
.LFB86:
	.loc 1 4821 0
	.cfi_startproc
	pushq	%rbp	#
	.cfi_def_cfa_offset 16
	.cfi_offset 6, -16
	movq	%rsp, %rbp	#,
	.cfi_def_cfa_register 6
	subq	$32, %rsp	#,
	movq	%rdi, -24(%rbp)	# die, die
	.loc 1 4822 0
	movq	-24(%rbp), %rax	# die, tmp62
	movl	$17, %esi	#,
	movq	%rax, %rdi	# tmp62,
	call	get_AT	#
	movq	%rax, -8(%rbp)	# tmp63, a
	.loc 1 4824 0
	cmpq	$0, -8(%rbp)	#, a
	je	.L967	#,
	.loc 1 4824 0 is_stmt 0 discriminator 1
	movq	-8(%rbp), %rax	# a, tmp64
	movq	%rax, %rdi	# tmp64,
	call	AT_lbl	#
	jmp	.L968	#
.L967:
	.loc 1 4824 0 discriminator 2
	movl	$0, %eax	#, iftmp.328
.L968:
	.loc 1 4825 0 is_stmt 1 discriminator 3
	leave
	.cfi_def_cfa 7, 8
	ret
	.cfi_endproc
.LFE86:
	.size	get_AT_low_pc, .-get_AT_low_pc
	.type	get_AT_hi_pc, @function
get_AT_hi_pc:
.LFB87:
	.loc 1 4834 0
	.cfi_startproc
	pushq	%rbp	#
	.cfi_def_cfa_offset 16
	.cfi_offset 6, -16
	movq	%rsp, %rbp	#,
	.cfi_def_cfa_register 6
	subq	$32, %rsp	#,
	movq	%rdi, -24(%rbp)	# die, die
	.loc 1 4835 0
	movq	-24(%rbp), %rax	# die, tmp62
	movl	$18, %esi	#,
	movq	%rax, %rdi	# tmp62,
	call	get_AT	#
	movq	%rax, -8(%rbp)	# tmp63, a
	.loc 1 4837 0
	cmpq	$0, -8(%rbp)	#, a
	je	.L971	#,
	.loc 1 4837 0 is_stmt 0 discriminator 1
	movq	-8(%rbp), %rax	# a, tmp64
	movq	%rax, %rdi	# tmp64,
	call	AT_lbl	#
	jmp	.L972	#
.L971:
	.loc 1 4837 0 discriminator 2
	movl	$0, %eax	#, iftmp.329
.L972:
	.loc 1 4838 0 is_stmt 1 discriminator 3
	leave
