	.file	"expmed.c"
# GNU C (Ubuntu/Linaro 4.8.1-10ubuntu9) version 4.8.1 (x86_64-linux-gnu)
#	compiled by GNU C version 4.8.1, GMP version 5.1.2, MPFR version 3.1.1-p2, MPC version 1.0.1
# GGC heuristics: --param ggc-min-expand=100 --param ggc-min-heapsize=131072
# options passed:  -I . -imultiarch x86_64-linux-gnu -D SPEC_CPU -D NDEBUG
# -D SPEC_CPU_LP64 expmed.c -mtune=generic -march=x86-64 -g -fverbose-asm
# -fno-strict-aliasing -fstack-protector -Wformat -Wformat-security
# options enabled:  -faggressive-loop-optimizations
# -fasynchronous-unwind-tables -fauto-inc-dec -fbranch-count-reg -fcommon
# -fdelete-null-pointer-checks -fdwarf2-cfi-asm -fearly-inlining
# -feliminate-unused-debug-types -ffunction-cse -fgcse-lm -fgnu-runtime
# -fident -finline-atomics -fira-hoist-pressure -fira-share-save-slots
# -fira-share-spill-slots -fivopts -fkeep-static-consts
# -fleading-underscore -fmath-errno -fmerge-debug-strings
# -fmove-loop-invariants -fpeephole -fprefetch-loop-arrays
# -freg-struct-return -fsched-critical-path-heuristic
# -fsched-dep-count-heuristic -fsched-group-heuristic -fsched-interblock
# -fsched-last-insn-heuristic -fsched-rank-heuristic -fsched-spec
# -fsched-spec-insn-heuristic -fsched-stalled-insns-dep -fshow-column
# -fsigned-zeros -fsplit-ivs-in-unroller -fstack-protector
# -fstrict-volatile-bitfields -fsync-libcalls -ftrapping-math
# -ftree-coalesce-vars -ftree-cselim -ftree-forwprop -ftree-loop-if-convert
# -ftree-loop-im -ftree-loop-ivcanon -ftree-loop-optimize
# -ftree-parallelize-loops= -ftree-phiprop -ftree-pta -ftree-reassoc
# -ftree-scev-cprop -ftree-slp-vectorize -ftree-vect-loop-version
# -funit-at-a-time -funwind-tables -fverbose-asm -fzero-initialized-in-bss
# -m128bit-long-double -m64 -m80387 -maccumulate-outgoing-args
# -malign-stringops -mfancy-math-387 -mfp-ret-in-387 -mfxsr -mglibc
# -mieee-fp -mlong-double-80 -mmmx -mno-sse4 -mpush-args -mred-zone -msse
# -msse2 -mtls-direct-seg-refs

	.text
.Ltext0:
	.local	sdiv_pow2_cheap
	.comm	sdiv_pow2_cheap,4,4
	.local	smod_pow2_cheap
	.comm	smod_pow2_cheap,4,4
	.local	add_cost
	.comm	add_cost,4,4
	.local	negate_cost
	.comm	negate_cost,4,4
	.local	zero_cost
	.comm	zero_cost,4,4
	.local	shift_cost
	.comm	shift_cost,256,32
	.local	shiftadd_cost
	.comm	shiftadd_cost,256,32
	.local	shiftsub_cost
	.comm	shiftsub_cost,256,32
	.local	mul_cost
	.comm	mul_cost,236,32
	.local	div_cost
	.comm	div_cost,236,32
	.local	mul_widen_cost
	.comm	mul_widen_cost,236,32
	.local	mul_highpart_cost
	.comm	mul_highpart_cost,236,32
	.globl	init_expmed
	.type	init_expmed, @function
init_expmed:
.LFB2:
	.file 1 "expmed.c"
	.loc 1 105 0
	.cfi_startproc
	pushq	%rbp	#
	.cfi_def_cfa_offset 16
	.cfi_offset 6, -16
	movq	%rsp, %rbp	#,
	.cfi_def_cfa_register 6
	pushq	%r13	#
	pushq	%r12	#
	pushq	%rbx	#
	subq	$56, %rsp	#,
	.cfi_offset 13, -24
	.cfi_offset 12, -32
	.cfi_offset 3, -40
	.loc 1 108 0
	movl	word_mode(%rip), %eax	# word_mode, word_mode.0
	movl	$10000, %esi	#,
	movl	%eax, %edi	# word_mode.0,
	call	gen_rtx_REG	#
	movq	%rax, -64(%rbp)	# tmp160, reg
	.loc 1 114 0
	call	start_sequence	#
	.loc 1 116 0
	movl	word_mode(%rip), %eax	# word_mode, word_mode.1
	movl	$10000, %esi	#,
	movl	%eax, %edi	# word_mode.1,
	call	gen_rtx_REG	#
	movq	%rax, -64(%rbp)	# tmp161, reg
	.loc 1 118 0
	movq	const_int_rtx+512(%rip), %rax	# const_int_rtx, D.17493
	movl	$0, %esi	#,
	movq	%rax, %rdi	# D.17493,
	call	rtx_cost	#
	movl	%eax, zero_cost(%rip)	# zero_cost.2, zero_cost
	.loc 1 119 0
	movl	word_mode(%rip), %eax	# word_mode, word_mode.3
	movq	-64(%rbp), %rcx	# reg, tmp162
	movq	-64(%rbp), %rdx	# reg, tmp163
	movl	%eax, %esi	# word_mode.3,
	movl	$75, %edi	#,
	call	gen_rtx_fmt_ee	#
	movl	$47, %esi	#,
	movq	%rax, %rdi	# D.17493,
	call	rtx_cost	#
	movl	%eax, add_cost(%rip)	# add_cost.4, add_cost
	.loc 1 121 0
	movq	const_int_rtx+512(%rip), %rcx	# const_int_rtx, D.17493
	movl	word_mode(%rip), %eax	# word_mode, word_mode.5
	movq	-64(%rbp), %rdx	# reg, tmp164
	movl	%eax, %esi	# word_mode.5,
	movl	$87, %edi	#,
	call	gen_rtx_fmt_ee	#
	movq	%rax, %rdx	#, D.17493
	movq	-64(%rbp), %rax	# reg, tmp165
	movq	%rdx, %rcx	# D.17493,
	movq	%rax, %rdx	# tmp165,
	movl	$0, %esi	#,
	movl	$47, %edi	#,
	call	gen_rtx_fmt_ee	#
	movq	%rax, %rdi	# D.17493,
	call	emit_insn	#
	movq	%rax, -56(%rbp)	# tmp166, shift_insn
	.loc 1 126 0
	movq	const_int_rtx+512(%rip), %rcx	# const_int_rtx, D.17493
	movl	word_mode(%rip), %eax	# word_mode, word_mode.6
	movq	-64(%rbp), %rdx	# reg, tmp167
	movl	%eax, %esi	# word_mode.6,
	movl	$78, %edi	#,
	call	gen_rtx_fmt_ee	#
	movq	%rax, %rdx	#, D.17493
	movl	word_mode(%rip), %eax	# word_mode, word_mode.7
	movq	-64(%rbp), %rcx	# reg, tmp168
	movl	%eax, %esi	# word_mode.7,
	movl	$75, %edi	#,
	call	gen_rtx_fmt_ee	#
	movq	%rax, %rdx	#, D.17493
	movq	-64(%rbp), %rax	# reg, tmp169
	movq	%rdx, %rcx	# D.17493,
	movq	%rax, %rdx	# tmp169,
	movl	$0, %esi	#,
	movl	$47, %edi	#,
	call	gen_rtx_fmt_ee	#
	movq	%rax, %rdi	# D.17493,
	call	emit_insn	#
	movq	%rax, -48(%rbp)	# tmp170, shiftadd_insn
	.loc 1 133 0
	movq	const_int_rtx+512(%rip), %rcx	# const_int_rtx, D.17493
	movl	word_mode(%rip), %eax	# word_mode, word_mode.8
	movq	-64(%rbp), %rdx	# reg, tmp171
	movl	%eax, %esi	# word_mode.8,
	movl	$78, %edi	#,
	call	gen_rtx_fmt_ee	#
	movq	%rax, %rdx	#, D.17493
	movl	word_mode(%rip), %eax	# word_mode, word_mode.9
	movq	-64(%rbp), %rcx	# reg, tmp172
	movl	%eax, %esi	# word_mode.9,
	movl	$76, %edi	#,
	call	gen_rtx_fmt_ee	#
	movq	%rax, %rdx	#, D.17493
	movq	-64(%rbp), %rax	# reg, tmp173
	movq	%rdx, %rcx	# D.17493,
	movq	%rax, %rdx	# tmp173,
	movl	$0, %esi	#,
	movl	$47, %edi	#,
	call	gen_rtx_fmt_ee	#
	movq	%rax, %rdi	# D.17493,
	call	emit_insn	#
	movq	%rax, -40(%rbp)	# tmp174, shiftsub_insn
	.loc 1 139 0
	call	init_recog	#
	.loc 1 141 0
	movl	$0, shift_cost(%rip)	#, shift_cost
	.loc 1 142 0
	movl	add_cost(%rip), %eax	# add_cost, add_cost.10
	movl	%eax, shiftsub_cost(%rip)	# add_cost.10, shiftsub_cost
	movl	shiftsub_cost(%rip), %eax	# shiftsub_cost, D.17494
	movl	%eax, shiftadd_cost(%rip)	# D.17494, shiftadd_cost
	.loc 1 144 0
	movl	$1, -76(%rbp)	#, m
	jmp	.L2	#
.L6:
	.loc 1 146 0
	movl	-76(%rbp), %eax	# m, tmp176
	cltq
	movl	$32000, shiftsub_cost(,%rax,4)	#, shiftsub_cost
	movl	-76(%rbp), %eax	# m, tmp178
	cltq
	movl	shiftsub_cost(,%rax,4), %edx	# shiftsub_cost, D.17494
	movl	-76(%rbp), %eax	# m, tmp180
	cltq
	movl	%edx, shiftadd_cost(,%rax,4)	# D.17494, shiftadd_cost
	movl	-76(%rbp), %eax	# m, tmp182
	cltq
	movl	shiftadd_cost(,%rax,4), %edx	# shiftadd_cost, D.17494
	movl	-76(%rbp), %eax	# m, tmp184
	cltq
	movl	%edx, shift_cost(,%rax,4)	# D.17494, shift_cost
	.loc 1 148 0
	movq	-56(%rbp), %rax	# shift_insn, tmp185
	movq	32(%rax), %rax	# shift_insn_16->fld[3].rtx, D.17493
	movq	16(%rax), %rbx	# _36->fld[1].rtx, D.17493
	movl	-76(%rbp), %eax	# m, tmp186
	cltq
	movq	%rax, %rsi	# D.17495,
	movl	$0, %edi	#,
	call	gen_rtx_CONST_INT	#
	movq	%rax, 16(%rbx)	# D.17493, _37->fld[1].rtx
	.loc 1 149 0
	movq	-56(%rbp), %rax	# shift_insn, tmp187
	movq	32(%rax), %rax	# shift_insn_16->fld[3].rtx, D.17493
	leaq	-80(%rbp), %rdx	#, tmp188
	movq	-56(%rbp), %rcx	# shift_insn, tmp189
	movq	%rcx, %rsi	# tmp189,
	movq	%rax, %rdi	# D.17493,
	call	recog	#
	testl	%eax, %eax	# D.17494
	js	.L3	#,
	.loc 1 150 0
	movq	-56(%rbp), %rax	# shift_insn, tmp190
	movq	32(%rax), %rax	# shift_insn_16->fld[3].rtx, D.17493
	movq	16(%rax), %rax	# _42->fld[1].rtx, D.17493
	movl	$47, %esi	#,
	movq	%rax, %rdi	# D.17493,
	call	rtx_cost	#
	movl	-76(%rbp), %edx	# m, tmp192
	movslq	%edx, %rdx	# tmp192, tmp191
	movl	%eax, shift_cost(,%rdx,4)	# D.17494, shift_cost
.L3:
	.loc 1 152 0
	movq	-48(%rbp), %rax	# shiftadd_insn, tmp193
	movq	32(%rax), %rax	# shiftadd_insn_23->fld[3].rtx, D.17493
	movq	16(%rax), %rax	# _45->fld[1].rtx, D.17493
	movq	8(%rax), %rbx	# _46->fld[0].rtx, D.17493
	.loc 1 153 0
	movl	-76(%rbp), %eax	# m, tmp194
	movl	$1, %edx	#, tmp195
	movl	%eax, %ecx	# tmp194, tmp245
	salq	%cl, %rdx	# tmp245, D.17495
	movq	%rdx, %rax	# D.17495, D.17495
	movq	%rax, %rsi	# D.17495,
	movl	$0, %edi	#,
	call	gen_rtx_CONST_INT	#
	movq	%rax, 16(%rbx)	# D.17493, _47->fld[1].rtx
	.loc 1 154 0
	movq	-48(%rbp), %rax	# shiftadd_insn, tmp196
	movq	32(%rax), %rax	# shiftadd_insn_23->fld[3].rtx, D.17493
	leaq	-80(%rbp), %rdx	#, tmp197
	movq	-48(%rbp), %rcx	# shiftadd_insn, tmp198
	movq	%rcx, %rsi	# tmp198,
	movq	%rax, %rdi	# D.17493,
	call	recog	#
	testl	%eax, %eax	# D.17494
	js	.L4	#,
	.loc 1 155 0
	movq	-48(%rbp), %rax	# shiftadd_insn, tmp199
	movq	32(%rax), %rax	# shiftadd_insn_23->fld[3].rtx, D.17493
	movq	16(%rax), %rax	# _52->fld[1].rtx, D.17493
	movl	$47, %esi	#,
	movq	%rax, %rdi	# D.17493,
	call	rtx_cost	#
	movl	-76(%rbp), %edx	# m, tmp201
	movslq	%edx, %rdx	# tmp201, tmp200
	movl	%eax, shiftadd_cost(,%rdx,4)	# D.17494, shiftadd_cost
.L4:
	.loc 1 157 0
	movq	-40(%rbp), %rax	# shiftsub_insn, tmp202
	movq	32(%rax), %rax	# shiftsub_insn_30->fld[3].rtx, D.17493
	movq	16(%rax), %rax	# _55->fld[1].rtx, D.17493
	movq	8(%rax), %rbx	# _56->fld[0].rtx, D.17493
	.loc 1 158 0
	movl	-76(%rbp), %eax	# m, tmp203
	movl	$1, %edx	#, tmp204
	movl	%eax, %ecx	# tmp203, tmp247
	salq	%cl, %rdx	# tmp247, D.17495
	movq	%rdx, %rax	# D.17495, D.17495
	movq	%rax, %rsi	# D.17495,
	movl	$0, %edi	#,
	call	gen_rtx_CONST_INT	#
	movq	%rax, 16(%rbx)	# D.17493, _57->fld[1].rtx
	.loc 1 159 0
	movq	-40(%rbp), %rax	# shiftsub_insn, tmp205
	movq	32(%rax), %rax	# shiftsub_insn_30->fld[3].rtx, D.17493
	leaq	-80(%rbp), %rdx	#, tmp206
	movq	-40(%rbp), %rcx	# shiftsub_insn, tmp207
	movq	%rcx, %rsi	# tmp207,
	movq	%rax, %rdi	# D.17493,
	call	recog	#
	testl	%eax, %eax	# D.17494
	js	.L5	#,
	.loc 1 160 0
	movq	-40(%rbp), %rax	# shiftsub_insn, tmp208
	movq	32(%rax), %rax	# shiftsub_insn_30->fld[3].rtx, D.17493
	movq	16(%rax), %rax	# _62->fld[1].rtx, D.17493
	movl	$47, %esi	#,
	movq	%rax, %rdi	# D.17493,
	call	rtx_cost	#
	movl	-76(%rbp), %edx	# m, tmp210
	movslq	%edx, %rdx	# tmp210, tmp209
	movl	%eax, shiftsub_cost(,%rdx,4)	# D.17494, shiftsub_cost
.L5:
	.loc 1 144 0
	addl	$1, -76(%rbp)	#, m
.L2:
	.loc 1 144 0 is_stmt 0 discriminator 1
	cmpl	$63, -76(%rbp)	#, m
	jle	.L6	#,
	.loc 1 163 0 is_stmt 1
	movl	word_mode(%rip), %eax	# word_mode, word_mode.11
	movq	-64(%rbp), %rdx	# reg, tmp211
	movl	%eax, %esi	# word_mode.11,
	movl	$77, %edi	#,
	call	gen_rtx_fmt_e	#
	movl	$47, %esi	#,
	movq	%rax, %rdi	# D.17493,
	call	rtx_cost	#
	movl	%eax, negate_cost(%rip)	# negate_cost.12, negate_cost
	.loc 1 166 0
	movl	$32, %esi	#,
	movl	$0, %edi	#,
	call	gen_rtx_CONST_INT	#
	movq	%rax, %rcx	#, D.17493
	movl	word_mode(%rip), %eax	# word_mode, word_mode.13
	movq	-64(%rbp), %rdx	# reg, tmp212
	movl	%eax, %esi	# word_mode.13,
	movl	$79, %edi	#,
	call	gen_rtx_fmt_ee	#
	movl	$47, %esi	#,
	movq	%rax, %rdi	# D.17493,
	call	rtx_cost	#
	.loc 1 167 0
	movl	add_cost(%rip), %edx	# add_cost, add_cost.14
	addl	%edx, %edx	# D.17494
	cmpl	%edx, %eax	# D.17494, D.17494
	setle	%al	#, D.17496
	movzbl	%al, %eax	# D.17496, sdiv_pow2_cheap.15
	.loc 1 166 0
	movl	%eax, sdiv_pow2_cheap(%rip)	# sdiv_pow2_cheap.15, sdiv_pow2_cheap
	.loc 1 169 0
	movl	$32, %esi	#,
	movl	$0, %edi	#,
	call	gen_rtx_CONST_INT	#
	movq	%rax, %rcx	#, D.17493
	movl	word_mode(%rip), %eax	# word_mode, word_mode.16
	movq	-64(%rbp), %rdx	# reg, tmp213
	movl	%eax, %esi	# word_mode.16,
	movl	$80, %edi	#,
	call	gen_rtx_fmt_ee	#
	movl	$47, %esi	#,
	movq	%rax, %rdi	# D.17493,
	call	rtx_cost	#
	.loc 1 170 0
	movl	add_cost(%rip), %edx	# add_cost, add_cost.17
	addl	%edx, %edx	# D.17494
	cmpl	%edx, %eax	# D.17494, D.17494
	setle	%al	#, D.17496
	movzbl	%al, %eax	# D.17496, smod_pow2_cheap.18
	.loc 1 169 0
	movl	%eax, smod_pow2_cheap(%rip)	# smod_pow2_cheap.18, smod_pow2_cheap
	.loc 1 172 0
	movl	class_narrowest_mode+4(%rip), %eax	# class_narrowest_mode, tmp214
	movl	%eax, -72(%rbp)	# tmp214, mode
	jmp	.L7	#
.L9:
	.loc 1 176 0
	movl	-72(%rbp), %eax	# mode, tmp215
	movl	$10000, %esi	#,
	movl	%eax, %edi	# tmp215,
	call	gen_rtx_REG	#
	movq	%rax, -64(%rbp)	# tmp216, reg
	.loc 1 177 0
	movl	-72(%rbp), %ebx	# mode, mode.19
	movq	-64(%rbp), %rcx	# reg, tmp217
	movq	-64(%rbp), %rdx	# reg, tmp218
	movl	-72(%rbp), %eax	# mode, tmp219
	movl	%eax, %esi	# tmp219,
	movl	$81, %edi	#,
	call	gen_rtx_fmt_ee	#
	movl	$47, %esi	#,
	movq	%rax, %rdi	# D.17493,
	call	rtx_cost	#
	movslq	%ebx, %rdx	# mode.19, tmp220
	movl	%eax, div_cost(,%rdx,4)	# D.17494, div_cost
	.loc 1 178 0
	movl	-72(%rbp), %ebx	# mode, mode.20
	movq	-64(%rbp), %rcx	# reg, tmp221
	movq	-64(%rbp), %rdx	# reg, tmp222
	movl	-72(%rbp), %eax	# mode, tmp223
	movl	%eax, %esi	# tmp223,
	movl	$78, %edi	#,
	call	gen_rtx_fmt_ee	#
	movl	$47, %esi	#,
	movq	%rax, %rdi	# D.17493,
	call	rtx_cost	#
	movslq	%ebx, %rdx	# mode.20, tmp224
	movl	%eax, mul_cost(,%rdx,4)	# D.17494, mul_cost
	.loc 1 179 0
	movl	-72(%rbp), %eax	# mode, mode.21
	cltq
	movzbl	mode_wider_mode(%rax), %eax	# mode_wider_mode, D.17497
	movzbl	%al, %eax	# D.17497, tmp226
	movl	%eax, -68(%rbp)	# tmp226, wider_mode
	.loc 1 180 0
	cmpl	$0, -68(%rbp)	#, wider_mode
	je	.L8	#,
	.loc 1 182 0
	movl	-68(%rbp), %r12d	# wider_mode, wider_mode.22
	.loc 1 183 0
	movq	-64(%rbp), %rdx	# reg, tmp227
	movl	-68(%rbp), %eax	# wider_mode, tmp228
	movl	%eax, %esi	# tmp228,
	movl	$121, %edi	#,
	call	gen_rtx_fmt_e	#
	movq	%rax, %rbx	#, D.17493
	movq	-64(%rbp), %rdx	# reg, tmp229
	movl	-68(%rbp), %eax	# wider_mode, tmp230
	movl	%eax, %esi	# tmp230,
	movl	$121, %edi	#,
	call	gen_rtx_fmt_e	#
	movq	%rax, %rdx	#, D.17493
	movl	-68(%rbp), %eax	# wider_mode, tmp231
	movq	%rbx, %rcx	# D.17493,
	movl	%eax, %esi	# tmp231,
	movl	$78, %edi	#,
	call	gen_rtx_fmt_ee	#
	movl	$47, %esi	#,
	movq	%rax, %rdi	# D.17493,
	call	rtx_cost	#
	movslq	%r12d, %rdx	# wider_mode.22, tmp232
	movl	%eax, mul_widen_cost(,%rdx,4)	# D.17494, mul_widen_cost
	.loc 1 187 0
	movl	-72(%rbp), %r13d	# mode, mode.23
	.loc 1 188 0
	movl	-72(%rbp), %eax	# mode, mode.24
	cltq
	movzwl	mode_bitsize(%rax,%rax), %eax	# mode_bitsize, D.17498
	movzwl	%ax, %eax	# D.17498, D.17495
	movq	%rax, %rsi	# D.17495,
	movl	$0, %edi	#,
	call	gen_rtx_CONST_INT	#
	movq	%rax, %rbx	#, D.17493
	movq	-64(%rbp), %rdx	# reg, tmp234
	movl	-68(%rbp), %eax	# wider_mode, tmp235
	movl	%eax, %esi	# tmp235,
	movl	$121, %edi	#,
	call	gen_rtx_fmt_e	#
	movq	%rax, %r12	#, D.17493
	movq	-64(%rbp), %rdx	# reg, tmp236
	movl	-68(%rbp), %eax	# wider_mode, tmp237
	movl	%eax, %esi	# tmp237,
	movl	$121, %edi	#,
	call	gen_rtx_fmt_e	#
	movq	%rax, %rdx	#, D.17493
	movl	-68(%rbp), %eax	# wider_mode, tmp238
	movq	%r12, %rcx	# D.17493,
	movl	%eax, %esi	# tmp238,
	movl	$78, %edi	#,
	call	gen_rtx_fmt_ee	#
	movq	%rax, %rdx	#, D.17493
	movl	-68(%rbp), %eax	# wider_mode, tmp239
	movq	%rbx, %rcx	# D.17493,
	movl	%eax, %esi	# tmp239,
	movl	$90, %edi	#,
	call	gen_rtx_fmt_ee	#
	movq	%rax, %rdx	#, D.17493
	movl	-72(%rbp), %eax	# mode, tmp240
	movl	%eax, %esi	# tmp240,
	movl	$122, %edi	#,
	call	gen_rtx_fmt_e	#
	movl	$47, %esi	#,
	movq	%rax, %rdi	# D.17493,
	call	rtx_cost	#
	movslq	%r13d, %rdx	# mode.23, tmp241
	movl	%eax, mul_highpart_cost(,%rdx,4)	# D.17494, mul_highpart_cost
.L8:
	.loc 1 174 0
	movl	-72(%rbp), %eax	# mode, mode.25
	cltq
	movzbl	mode_wider_mode(%rax), %eax	# mode_wider_mode, D.17497
	movzbl	%al, %eax	# D.17497, tmp243
	movl	%eax, -72(%rbp)	# tmp243, mode
.L7:
	.loc 1 172 0 discriminator 1
	cmpl	$0, -72(%rbp)	#, mode
	jne	.L9	#,
	.loc 1 201 0
	call	end_sequence	#
	.loc 1 202 0
	addq	$56, %rsp	#,
	popq	%rbx	#
	popq	%r12	#
	popq	%r13	#
	popq	%rbp	#
	.cfi_def_cfa 7, 8
	ret
	.cfi_endproc
.LFE2:
	.size	init_expmed, .-init_expmed
	.globl	negate_rtx
	.type	negate_rtx, @function
negate_rtx:
.LFB3:
	.loc 1 212 0
	.cfi_startproc
	pushq	%rbp	#
	.cfi_def_cfa_offset 16
	.cfi_offset 6, -16
	movq	%rsp, %rbp	#,
	.cfi_def_cfa_register 6
	subq	$32, %rsp	#,
	movl	%edi, -20(%rbp)	# mode, mode
	movq	%rsi, -32(%rbp)	# x, x
	.loc 1 213 0
	movl	-20(%rbp), %ecx	# mode, tmp62
	movq	-32(%rbp), %rdx	# x, tmp63
	movl	-20(%rbp), %eax	# mode, tmp64
	movl	%eax, %esi	# tmp64,
	movl	$77, %edi	#,
	call	simplify_unary_operation	#
	movq	%rax, -8(%rbp)	# tmp65, result
	.loc 1 215 0
	cmpq	$0, -8(%rbp)	#, result
	jne	.L11	#,
	.loc 1 216 0
	movq	optab_table+256(%rip), %rsi	# optab_table, D.17499
	movq	-32(%rbp), %rdx	# x, tmp66
	movl	-20(%rbp), %eax	# mode, tmp67
	movl	$0, %r8d	#,
	movl	$0, %ecx	#,
	movl	%eax, %edi	# tmp67,
	call	expand_unop	#
	movq	%rax, -8(%rbp)	# tmp68, result
.L11:
	.loc 1 218 0
	movq	-8(%rbp), %rax	# result, D.17500
	.loc 1 219 0
	leave
	.cfi_def_cfa 7, 8
	ret
	.cfi_endproc
.LFE3:
	.size	negate_rtx, .-negate_rtx
	.section	.rodata
.LC0:
	.string	"expmed.c"
	.text
	.globl	mode_for_extraction
	.type	mode_for_extraction, @function
mode_for_extraction:
.LFB4:
	.loc 1 229 0
	.cfi_startproc
	pushq	%rbp	#
	.cfi_def_cfa_offset 16
	.cfi_offset 6, -16
	movq	%rsp, %rbp	#,
	.cfi_def_cfa_register 6
	subq	$32, %rsp	#,
	movl	%edi, -20(%rbp)	# pattern, pattern
	movl	%esi, -24(%rbp)	# opno, opno
	.loc 1 232 0
	movl	-20(%rbp), %eax	# pattern, pattern
	cmpl	$1, %eax	#, pattern
	je	.L15	#,
	cmpl	$1, %eax	#, pattern
	jb	.L16	#,
	cmpl	$2, %eax	#, pattern
	je	.L17	#,
	jmp	.L22	#
.L16:
	.loc 1 237 0
	movq	$insn_data+44560, -8(%rbp)	#, data
	.loc 1 238 0
	jmp	.L18	#
.L15:
	.loc 1 245 0
	movq	$insn_data+44480, -8(%rbp)	#, data
	.loc 1 246 0
	jmp	.L18	#
.L17:
	.loc 1 253 0
	movq	$insn_data+44520, -8(%rbp)	#, data
	.loc 1 254 0
	jmp	.L18	#
.L22:
	.loc 1 259 0
	movl	$__FUNCTION__.12772, %edx	#,
	movl	$259, %esi	#,
	movl	$.LC0, %edi	#,
	call	fancy_abort	#
.L18:
	.loc 1 262 0
	cmpl	$-1, -24(%rbp)	#, opno
	jne	.L19	#,
	.loc 1 263 0
	movl	$0, %eax	#, D.17501
	jmp	.L20	#
.L19:
	.loc 1 267 0
	movq	-8(%rbp), %rax	# data, tmp72
	movq	24(%rax), %rcx	# data_1->operand, D.17502
	movl	-24(%rbp), %eax	# opno, tmp73
	movslq	%eax, %rdx	# tmp73, D.17503
	movq	%rdx, %rax	# D.17503, tmp74
	addq	%rax, %rax	# tmp74
	addq	%rdx, %rax	# D.17503, tmp74
	salq	$3, %rax	#, tmp75
	addq	%rcx, %rax	# D.17502, D.17502
	movzwl	16(%rax), %eax	# _12->mode, D.17504
	testw	%ax, %ax	# D.17504
	jne	.L21	#,
	.loc 1 268 0
	movl	word_mode(%rip), %eax	# word_mode, D.17501
	jmp	.L20	#
.L21:
	.loc 1 269 0
	movq	-8(%rbp), %rax	# data, tmp76
	movq	24(%rax), %rcx	# data_1->operand, D.17502
	movl	-24(%rbp), %eax	# opno, tmp77
	movslq	%eax, %rdx	# tmp77, D.17503
	movq	%rdx, %rax	# D.17503, tmp78
	addq	%rax, %rax	# tmp78
	addq	%rdx, %rax	# D.17503, tmp78
	salq	$3, %rax	#, tmp79
	addq	%rcx, %rax	# D.17502, D.17502
	movzwl	16(%rax), %eax	# _18->mode, D.17504
	movzwl	%ax, %eax	# D.17504, D.17501
.L20:
	.loc 1 270 0
	leave
	.cfi_def_cfa 7, 8
	ret
	.cfi_endproc
.LFE4:
	.size	mode_for_extraction, .-mode_for_extraction
	.globl	store_bit_field
	.type	store_bit_field, @function
store_bit_field:
.LFB5:
	.loc 1 296 0
	.cfi_startproc
	pushq	%rbp	#
	.cfi_def_cfa_offset 16
	.cfi_offset 6, -16
	movq	%rsp, %rbp	#,
	.cfi_def_cfa_register 6
	pushq	%rbx	#
	subq	$200, %rsp	#,
	.cfi_offset 3, -24
	movq	%rdi, -168(%rbp)	# str_rtx, str_rtx
	movq	%rsi, -176(%rbp)	# bitsize, bitsize
	movq	%rdx, -184(%rbp)	# bitnum, bitnum
	movl	%ecx, -188(%rbp)	# fieldmode, fieldmode
	movq	%r8, -200(%rbp)	# value, value
	movq	%r9, -208(%rbp)	# total_size, total_size
	.loc 1 298 0
	movq	-168(%rbp), %rax	# str_rtx, tmp342
	movzwl	(%rax), %eax	# str_rtx_50(D)->code, D.17507
	.loc 1 297 0
	cmpw	$66, %ax	#, D.17507
	je	.L24	#,
	.loc 1 298 0 discriminator 1
	movl	target_flags(%rip), %eax	# target_flags, target_flags.28
	andl	$33554432, %eax	#, D.17508
	.loc 1 297 0 discriminator 1
	testl	%eax, %eax	# D.17508
	je	.L25	#,
	.loc 1 297 0 is_stmt 0 discriminator 3
	movl	$64, %eax	#, iftmp.27
	jmp	.L27	#
.L25:
	.loc 1 297 0 discriminator 4
	movl	$32, %eax	#, iftmp.27
	jmp	.L27	#
.L24:
	.loc 1 297 0 discriminator 2
	movl	$8, %eax	#, iftmp.26
.L27:
	.loc 1 297 0 discriminator 5
	movl	%eax, -140(%rbp)	# iftmp.26, unit
	.loc 1 299 0 is_stmt 1 discriminator 5
	movl	-140(%rbp), %ebx	# unit, D.17509
	movq	-184(%rbp), %rax	# bitnum, tmp345
	movl	$0, %edx	#, tmp344
	divq	%rbx	# D.17509
	movq	%rax, -88(%rbp)	# tmp343, offset
	.loc 1 300 0 discriminator 5
	movl	-140(%rbp), %ecx	# unit, D.17509
	movq	-184(%rbp), %rax	# bitnum, tmp347
	movl	$0, %edx	#, tmp348
	divq	%rcx	# D.17509
	movq	%rdx, -48(%rbp)	# tmp348, bitpos
	.loc 1 301 0 discriminator 5
	movq	-168(%rbp), %rax	# str_rtx, tmp350
	movq	%rax, -80(%rbp)	# tmp350, op0
	.loc 1 304 0 discriminator 5
	movl	$3, %esi	#,
	movl	$0, %edi	#,
	call	mode_for_extraction	#
	movl	%eax, -136(%rbp)	# tmp351, op_mode
	.loc 1 308 0 discriminator 5
	cmpq	$0, -208(%rbp)	#, total_size
	js	.L28	#,
	.loc 1 309 0
	movq	-208(%rbp), %rax	# total_size, total_size.29
	movq	-48(%rbp), %rdx	# bitpos, tmp352
	shrq	$7, %rdx	#, D.17509
	.loc 1 310 0
	salq	$4, %rdx	#, D.17509
	.loc 1 309 0
	subq	%rdx, %rax	# D.17509, D.17509
	movq	%rax, -208(%rbp)	# D.17509, total_size
	.loc 1 312 0
	jmp	.L29	#
.L28:
	jmp	.L29	#
.L32:
	.loc 1 319 0
	movq	-80(%rbp), %rax	# op0, tmp353
	movl	16(%rax), %eax	# op0_8->fld[1].rtuint, D.17510
	movl	target_flags(%rip), %edx	# target_flags, target_flags.31
	andl	$33554432, %edx	#, D.17508
	testl	%edx, %edx	# D.17508
	je	.L30	#,
	.loc 1 319 0 is_stmt 0 discriminator 1
	movl	$8, %ebx	#, iftmp.30
	jmp	.L31	#
.L30:
	.loc 1 319 0 discriminator 2
	movl	$4, %ebx	#, iftmp.30
.L31:
	.loc 1 319 0 discriminator 3
	movl	$0, %edx	#, tmp355
	divl	%ebx	# iftmp.30
	movl	%eax, %eax	# D.17510, D.17509
	addq	%rax, -88(%rbp)	# D.17509, offset
	.loc 1 322 0 is_stmt 1 discriminator 3
	movq	-80(%rbp), %rax	# op0, tmp356
	movq	8(%rax), %rax	# op0_8->fld[0].rtx, tmp357
	movq	%rax, -80(%rbp)	# tmp357, op0
.L29:
	.loc 1 312 0 discriminator 1
	movq	-80(%rbp), %rax	# op0, tmp358
	movzwl	(%rax), %eax	# op0_8->code, D.17507
	cmpw	$63, %ax	#, D.17507
	je	.L32	#,
	.loc 1 325 0
	movq	-200(%rbp), %rax	# value, tmp359
	movl	$0, %esi	#,
	movq	%rax, %rdi	# tmp359,
	call	protect_from_queue	#
	movq	%rax, -200(%rbp)	# tmp360, value
	.loc 1 327 0
	movl	flag_force_mem(%rip), %eax	# flag_force_mem, flag_force_mem.32
	testl	%eax, %eax	# flag_force_mem.32
	je	.L33	#,
.LBB2:
	.loc 1 329 0
	movl	generating_concat_p(%rip), %eax	# generating_concat_p, tmp361
	movl	%eax, -132(%rbp)	# tmp361, old_generating_concat_p
	.loc 1 330 0
	movl	$0, generating_concat_p(%rip)	#, generating_concat_p
	.loc 1 331 0
	movq	-200(%rbp), %rax	# value, tmp362
	movq	%rax, %rdi	# tmp362,
	call	force_not_mem	#
	movq	%rax, -200(%rbp)	# tmp363, value
	.loc 1 332 0
	movl	-132(%rbp), %eax	# old_generating_concat_p, tmp364
	movl	%eax, generating_concat_p(%rip)	# tmp364, generating_concat_p
.L33:
.LBE2:
	.loc 1 342 0
	movl	target_flags(%rip), %eax	# target_flags, target_flags.34
	andl	$33554432, %eax	#, D.17508
	testl	%eax, %eax	# D.17508
	je	.L34	#,
	.loc 1 342 0 is_stmt 0 discriminator 1
	movl	$64, %ebx	#, iftmp.33
	jmp	.L35	#
.L34:
	.loc 1 342 0 discriminator 2
	movl	$32, %ebx	#, iftmp.33
.L35:
	.loc 1 342 0 discriminator 3
	movq	-184(%rbp), %rax	# bitnum, tmp365
	movl	$0, %edx	#, tmp366
	divq	%rbx	# iftmp.33
	movq	%rdx, %rcx	# tmp366, tmp366
	movq	%rcx, %rax	# tmp366, D.17509
	shrq	$3, %rax	#, D.17509
	movl	%eax, %edx	# D.17509, D.17511
	.loc 1 343 0 is_stmt 1 discriminator 3
	movl	target_flags(%rip), %eax	# target_flags, target_flags.36
	andl	$33554432, %eax	#, D.17508
	.loc 1 342 0 discriminator 3
	testl	%eax, %eax	# D.17508
	je	.L36	#,
	.loc 1 342 0 is_stmt 0 discriminator 1
	movl	$8, %eax	#, iftmp.35
	jmp	.L37	#
.L36:
	.loc 1 342 0 discriminator 2
	movl	$4, %eax	#, iftmp.35
.L37:
	.loc 1 342 0 discriminator 3
	movq	-88(%rbp), %rcx	# offset, tmp368
	imull	%ecx, %eax	# D.17511, D.17511
	addl	%edx, %eax	# D.17511, D.17511
	movl	%eax, -128(%rbp)	# D.17511, byte_offset
	.loc 1 345 0 is_stmt 1 discriminator 3
	cmpq	$0, -48(%rbp)	#, bitpos
	jne	.L38	#,
	.loc 1 346 0
	movl	-188(%rbp), %eax	# fieldmode, fieldmode.37
	cltq
	movzwl	mode_bitsize(%rax,%rax), %eax	# mode_bitsize, D.17507
	movzwl	%ax, %eax	# D.17507, D.17509
	cmpq	-176(%rbp), %rax	# bitsize, D.17509
	jne	.L38	#,
	.loc 1 347 0
	movq	-80(%rbp), %rax	# op0, tmp370
	movzwl	(%rax), %eax	# op0_8->code, D.17507
	cmpw	$66, %ax	#, D.17507
	je	.L39	#,
	.loc 1 348 0
	movl	-188(%rbp), %eax	# fieldmode, fieldmode.38
	cltq
	movzbl	mode_size(%rax), %eax	# mode_size, D.17512
	movzbl	%al, %edx	# D.17512, D.17508
	movl	target_flags(%rip), %eax	# target_flags, target_flags.40
	andl	$33554432, %eax	#, D.17508
	testl	%eax, %eax	# D.17508
	je	.L40	#,
	.loc 1 348 0 is_stmt 0 discriminator 1
	movl	$8, %eax	#, iftmp.39
	jmp	.L41	#
.L40:
	.loc 1 348 0 discriminator 2
	movl	$4, %eax	#, iftmp.39
.L41:
	.loc 1 347 0 is_stmt 1
	cmpl	%eax, %edx	# iftmp.39, D.17508
	jge	.L42	#,
	.loc 1 349 0
	movq	-80(%rbp), %rax	# op0, tmp372
	movzbl	2(%rax), %eax	# op0_8->mode, D.17512
	movzbl	%al, %eax	# D.17512, D.17508
	cltq
	movzbl	mode_size(%rax), %edx	# mode_size, D.17512
	movl	-188(%rbp), %eax	# fieldmode, fieldmode.41
	cltq
	movzbl	mode_size(%rax), %eax	# mode_size, D.17512
	cmpb	%al, %dl	# D.17512, D.17512
	jne	.L38	#,
.L42:
	.loc 1 350 0
	movl	-188(%rbp), %eax	# fieldmode, fieldmode.42
	cltq
	movzbl	mode_size(%rax), %eax	# mode_size, D.17512
	movzbl	%al, %ecx	# D.17512, D.17508
	movl	-128(%rbp), %eax	# byte_offset, tmp376
	cltd
	idivl	%ecx	# D.17508
	movl	%edx, %eax	# tmp377, D.17508
	testl	%eax, %eax	# D.17508
	jne	.L38	#,
.L39:
	.loc 1 355 0
	movq	-80(%rbp), %rax	# op0, tmp379
	movzbl	2(%rax), %eax	# op0_8->mode, D.17512
	movzbl	%al, %eax	# D.17512, D.17510
	cmpl	-188(%rbp), %eax	# fieldmode, D.17510
	je	.L43	#,
	.loc 1 357 0
	movq	-80(%rbp), %rax	# op0, tmp380
	movzwl	(%rax), %eax	# op0_8->code, D.17507
	cmpw	$63, %ax	#, D.17507
	jne	.L44	#,
	.loc 1 359 0
	movq	-80(%rbp), %rax	# op0, tmp381
	movq	8(%rax), %rax	# op0_8->fld[0].rtx, D.17513
	movzbl	2(%rax), %eax	# _127->mode, D.17512
	movzbl	%al, %eax	# D.17512, D.17510
	cmpl	-188(%rbp), %eax	# fieldmode, D.17510
	je	.L45	#,
	.loc 1 360 0
	movl	-188(%rbp), %eax	# fieldmode, fieldmode.43
	cltq
	movl	mode_class(,%rax,4), %eax	# mode_class, D.17514
	cmpl	$1, %eax	#, D.17514
	je	.L45	#,
	.loc 1 361 0
	movl	-188(%rbp), %eax	# fieldmode, fieldmode.44
	cltq
	movl	mode_class(,%rax,4), %eax	# mode_class, D.17514
	cmpl	$3, %eax	#, D.17514
	jne	.L46	#,
.L45:
	.loc 1 362 0
	movq	-80(%rbp), %rax	# op0, tmp384
	movq	8(%rax), %rax	# op0_8->fld[0].rtx, tmp385
	movq	%rax, -80(%rbp)	# tmp385, op0
	jmp	.L44	#
.L46:
	.loc 1 367 0
	movl	$__FUNCTION__.12791, %edx	#,
	movl	$367, %esi	#,
	movl	$.LC0, %edi	#,
	call	fancy_abort	#
.L44:
	.loc 1 369 0
	movq	-80(%rbp), %rax	# op0, tmp386
	movzwl	(%rax), %eax	# op0_9->code, D.17507
	cmpw	$61, %ax	#, D.17507
	jne	.L47	#,
	.loc 1 370 0
	movl	-128(%rbp), %edx	# byte_offset, tmp387
	movq	-80(%rbp), %rcx	# op0, tmp388
	movl	-188(%rbp), %eax	# fieldmode, tmp389
	movq	%rcx, %rsi	# tmp388,
	movl	%eax, %edi	# tmp389,
	call	gen_rtx_SUBREG	#
	movq	%rax, -80(%rbp)	# tmp390, op0
	jmp	.L43	#
.L47:
	.loc 1 372 0
	movq	-88(%rbp), %rdx	# offset, offset.45
	movl	-188(%rbp), %esi	# fieldmode, tmp391
	movq	-80(%rbp), %rax	# op0, tmp392
	movl	$1, %r8d	#,
	movl	$1, %ecx	#,
	movq	%rax, %rdi	# tmp392,
	call	adjust_address_1	#
	movq	%rax, -80(%rbp)	# tmp393, op0
.L43:
	.loc 1 374 0
	movq	-200(%rbp), %rdx	# value, tmp394
	movq	-80(%rbp), %rax	# op0, tmp395
	movq	%rdx, %rsi	# tmp394,
	movq	%rax, %rdi	# tmp395,
	call	emit_move_insn	#
	.loc 1 375 0
	movq	-200(%rbp), %rax	# value, D.17506
	jmp	.L48	#
.L38:
.LBB3:
	.loc 1 383 0
	movq	-80(%rbp), %rax	# op0, tmp396
	movzbl	2(%rax), %eax	# op0_8->mode, D.17512
	movzbl	%al, %eax	# D.17512, D.17515
	movl	%eax, %edi	# D.17515,
	call	int_mode_for_mode	#
	movl	%eax, -124(%rbp)	# tmp397, imode
	.loc 1 384 0
	movq	-80(%rbp), %rax	# op0, tmp398
	movzbl	2(%rax), %eax	# op0_8->mode, D.17512
	movzbl	%al, %eax	# D.17512, D.17510
	cmpl	-124(%rbp), %eax	# imode, D.17510
	je	.L49	#,
	.loc 1 386 0
	movq	-80(%rbp), %rax	# op0, tmp399
	movzwl	(%rax), %eax	# op0_8->code, D.17507
	cmpw	$66, %ax	#, D.17507
	jne	.L50	#,
	.loc 1 387 0
	movl	-124(%rbp), %esi	# imode, tmp400
	movq	-80(%rbp), %rax	# op0, tmp401
	movl	$1, %r8d	#,
	movl	$1, %ecx	#,
	movl	$0, %edx	#,
	movq	%rax, %rdi	# tmp401,
	call	adjust_address_1	#
	movq	%rax, -80(%rbp)	# tmp402, op0
	jmp	.L49	#
.L50:
	.loc 1 388 0
	cmpl	$51, -124(%rbp)	#, imode
	je	.L51	#,
	.loc 1 389 0
	movq	-80(%rbp), %rdx	# op0, tmp403
	movl	-124(%rbp), %eax	# imode, tmp404
	movq	%rdx, %rsi	# tmp403,
	movl	%eax, %edi	# tmp404,
	call	gen_lowpart	#
	movq	%rax, -80(%rbp)	# tmp405, op0
	jmp	.L49	#
.L51:
	.loc 1 391 0
	movl	$__FUNCTION__.12791, %edx	#,
	movl	$391, %esi	#,
	movl	$.LC0, %edi	#,
	call	fancy_abort	#
.L49:
.LBE3:
	.loc 1 397 0
	movq	-80(%rbp), %rax	# op0, tmp406
	movzwl	(%rax), %eax	# op0_11->code, D.17507
	cmpw	$66, %ax	#, D.17507
	jne	.L127	#,
	.loc 1 399 0
	movq	-80(%rbp), %rax	# op0, tmp407
	movq	%rax, %rdi	# tmp407,
	call	shallow_copy_rtx	#
	movq	%rax, -80(%rbp)	# tmp408, op0
	.loc 1 400 0
	movq	-80(%rbp), %rax	# op0, tmp409
	movl	$0, %esi	#,
	movq	%rax, %rdi	# tmp409,
	call	set_mem_alias_set	#
	.loc 1 401 0
	movq	-80(%rbp), %rax	# op0, tmp410
	movl	$0, %esi	#,
	movq	%rax, %rdi	# tmp410,
	call	set_mem_expr	#
.L127:
	.loc 1 415 0
	movq	-80(%rbp), %rax	# op0, tmp411
	movzwl	(%rax), %eax	# op0_12->code, D.17507
	cmpw	$66, %ax	#, D.17507
	je	.L53	#,
	.loc 1 416 0
	cmpq	$0, -48(%rbp)	#, bitpos
	jne	.L53	#,
	.loc 1 417 0
	movl	-188(%rbp), %eax	# fieldmode, fieldmode.46
	cltq
	movzwl	mode_bitsize(%rax,%rax), %eax	# mode_bitsize, D.17507
	movzwl	%ax, %eax	# D.17507, D.17509
	cmpq	-176(%rbp), %rax	# bitsize, D.17509
	jne	.L53	#,
	.loc 1 418 0
	movq	optab_table+248(%rip), %rax	# optab_table, D.17516
	movl	-188(%rbp), %edx	# fieldmode, fieldmode.47
	movslq	%edx, %rdx	# fieldmode.47, tmp413
	salq	$4, %rdx	#, tmp414
	addq	%rdx, %rax	# tmp414, tmp415
	movl	8(%rax), %eax	# _154->handlers[fieldmode.47_155].insn_code, D.17517
	cmpl	$1317, %eax	#, D.17517
	je	.L53	#,
.LBB4:
	.loc 1 421 0
	movq	optab_table+248(%rip), %rax	# optab_table, D.17516
	movl	-188(%rbp), %edx	# fieldmode, fieldmode.48
	movslq	%edx, %rdx	# fieldmode.48, tmp416
	salq	$4, %rdx	#, tmp417
	addq	%rdx, %rax	# tmp417, tmp418
	movl	8(%rax), %eax	# _157->handlers[fieldmode.48_158].insn_code, D.17517
	movl	%eax, -120(%rbp)	# D.17517, icode
	.loc 1 424 0
	movq	-200(%rbp), %rax	# value, tmp419
	movzwl	(%rax), %eax	# value_1->code, D.17507
	cmpw	$54, %ax	#, D.17507
	je	.L54	#,
	.loc 1 424 0 is_stmt 0 discriminator 1
	movq	-200(%rbp), %rax	# value, tmp420
	movzwl	(%rax), %eax	# value_1->code, D.17507
	cmpw	$61, %ax	#, D.17507
	jne	.L55	#,
.L54:
	.loc 1 425 0 is_stmt 1
	movq	-200(%rbp), %rdx	# value, tmp421
	movl	-188(%rbp), %eax	# fieldmode, tmp422
	movq	%rdx, %rsi	# tmp421,
	movl	%eax, %edi	# tmp422,
	call	gen_lowpart	#
	movq	%rax, -200(%rbp)	# tmp423, value
	jmp	.L56	#
.L55:
	.loc 1 426 0
	movq	-200(%rbp), %rax	# value, tmp424
	movzwl	(%rax), %eax	# value_1->code, D.17507
	cmpw	$68, %ax	#, D.17507
	je	.L56	#,
	.loc 1 427 0
	movq	-200(%rbp), %rax	# value, tmp425
	movzwl	(%rax), %eax	# value_1->code, D.17507
	cmpw	$67, %ax	#, D.17507
	je	.L56	#,
	.loc 1 428 0
	movq	-200(%rbp), %rax	# value, tmp426
	movzwl	(%rax), %eax	# value_1->code, D.17507
	.loc 1 426 0
	cmpw	$58, %ax	#, D.17507
	je	.L56	#,
	.loc 1 429 0
	movq	-200(%rbp), %rcx	# value, tmp427
	movl	-188(%rbp), %eax	# fieldmode, tmp428
	movl	$0, %edx	#,
	movq	%rcx, %rsi	# tmp427,
	movl	%eax, %edi	# tmp428,
	call	convert_to_mode	#
	movq	%rax, -200(%rbp)	# tmp429, value
.L56:
	.loc 1 431 0
	movl	-120(%rbp), %eax	# icode, tmp431
	movslq	%eax, %rdx	# tmp431, tmp430
	movq	%rdx, %rax	# tmp430, tmp432
	salq	$2, %rax	#, tmp432
	addq	%rdx, %rax	# tmp430, tmp432
	salq	$3, %rax	#, tmp433
	addq	$insn_data+24, %rax	#, tmp434
	movq	(%rax), %rax	# insn_data[icode_160].operand, D.17518
	addq	$24, %rax	#, D.17518
	movq	(%rax), %rax	# _169->predicate, D.17519
	movl	-188(%rbp), %ecx	# fieldmode, tmp435
	movq	-200(%rbp), %rdx	# value, tmp436
	movl	%ecx, %esi	# tmp435,
	movq	%rdx, %rdi	# tmp436,
	call	*%rax	# D.17519
	testl	%eax, %eax	# D.17508
	jne	.L57	#,
	.loc 1 432 0
	movq	-200(%rbp), %rdx	# value, tmp437
	movl	-188(%rbp), %eax	# fieldmode, tmp438
	movq	%rdx, %rsi	# tmp437,
	movl	%eax, %edi	# tmp438,
	call	copy_to_mode_reg	#
	movq	%rax, -200(%rbp)	# tmp439, value
.L57:
	.loc 1 434 0
	movq	-80(%rbp), %rax	# op0, tmp440
	movzwl	(%rax), %eax	# op0_12->code, D.17507
	cmpw	$63, %ax	#, D.17507
	jne	.L58	#,
	.loc 1 436 0
	movq	-80(%rbp), %rax	# op0, tmp441
	movq	8(%rax), %rax	# op0_12->fld[0].rtx, D.17513
	movzbl	2(%rax), %eax	# _174->mode, D.17512
	movzbl	%al, %eax	# D.17512, D.17510
	cmpl	-188(%rbp), %eax	# fieldmode, D.17510
	je	.L59	#,
	.loc 1 437 0
	movl	-188(%rbp), %eax	# fieldmode, fieldmode.49
	cltq
	movl	mode_class(,%rax,4), %eax	# mode_class, D.17514
	cmpl	$1, %eax	#, D.17514
	je	.L59	#,
	.loc 1 438 0
	movl	-188(%rbp), %eax	# fieldmode, fieldmode.50
	cltq
	movl	mode_class(,%rax,4), %eax	# mode_class, D.17514
	cmpl	$3, %eax	#, D.17514
	jne	.L60	#,
.L59:
	.loc 1 439 0
	movq	-80(%rbp), %rax	# op0, tmp444
	movq	8(%rax), %rax	# op0_12->fld[0].rtx, tmp445
	movq	%rax, -80(%rbp)	# tmp445, op0
	jmp	.L58	#
.L60:
	.loc 1 444 0
	movl	$__FUNCTION__.12791, %edx	#,
	movl	$444, %esi	#,
	movl	$.LC0, %edi	#,
	call	fancy_abort	#
.L58:
	.loc 1 448 0
	movl	-120(%rbp), %eax	# icode, tmp447
	movslq	%eax, %rdx	# tmp447, tmp446
	movq	%rdx, %rax	# tmp446, tmp448
	salq	$2, %rax	#, tmp448
	addq	%rdx, %rax	# tmp446, tmp448
	salq	$3, %rax	#, tmp449
	addq	$insn_data+16, %rax	#, tmp450
	movq	(%rax), %rbx	# insn_data[icode_160].genfun, D.17520
	.loc 1 449 0
	movl	target_flags(%rip), %eax	# target_flags, target_flags.52
	andl	$33554432, %eax	#, D.17508
	testl	%eax, %eax	# D.17508
	je	.L61	#,
	.loc 1 449 0 is_stmt 0 discriminator 1
	movl	$64, %ecx	#, iftmp.51
	jmp	.L62	#
.L61:
	.loc 1 449 0 discriminator 2
	movl	$32, %ecx	#, iftmp.51
.L62:
	.loc 1 449 0 discriminator 3
	movq	-184(%rbp), %rax	# bitnum, tmp451
	movl	$0, %edx	#, tmp452
	divq	%rcx	# iftmp.51
	movq	%rdx, %rcx	# tmp452, tmp452
	movq	%rcx, %rax	# tmp452, D.17509
	shrq	$3, %rax	#, D.17509
	.loc 1 447 0 is_stmt 1 discriminator 3
	movl	%eax, %edx	# D.17509, D.17511
	.loc 1 450 0 discriminator 3
	movl	target_flags(%rip), %eax	# target_flags, target_flags.54
	andl	$33554432, %eax	#, D.17508
	.loc 1 447 0 discriminator 3
	testl	%eax, %eax	# D.17508
	je	.L63	#,
	.loc 1 447 0 is_stmt 0 discriminator 1
	movl	$8, %eax	#, iftmp.53
	jmp	.L64	#
.L63:
	.loc 1 447 0 discriminator 2
	movl	$4, %eax	#, iftmp.53
.L64:
	.loc 1 447 0 discriminator 3
	movq	-88(%rbp), %rcx	# offset, tmp454
	imull	%ecx, %eax	# D.17511, D.17511
	addl	%edx, %eax	# D.17511, D.17511
	movl	%eax, %edx	# D.17511, D.17508
	movq	-80(%rbp), %rcx	# op0, tmp455
	movl	-188(%rbp), %eax	# fieldmode, tmp456
	movq	%rcx, %rsi	# tmp455,
	movl	%eax, %edi	# tmp456,
	call	gen_rtx_SUBREG	#
	movq	-200(%rbp), %rdx	# value, tmp457
	movq	%rdx, %rsi	# tmp457,
	movq	%rax, %rdi	# D.17513,
	movl	$0, %eax	#,
	call	*%rbx	# D.17520
	movq	%rax, %rdi	# D.17513,
	call	emit_insn	#
	.loc 1 453 0 is_stmt 1 discriminator 3
	movq	-200(%rbp), %rax	# value, D.17506
	jmp	.L48	#
.L53:
.LBE4:
	.loc 1 458 0
	movl	target_flags(%rip), %eax	# target_flags, target_flags.56
	andl	$33554432, %eax	#, D.17508
	testl	%eax, %eax	# D.17508
	je	.L65	#,
	.loc 1 458 0 is_stmt 0 discriminator 1
	movl	$64, %eax	#, iftmp.55
	jmp	.L66	#
.L65:
	.loc 1 458 0 discriminator 2
	movl	$32, %eax	#, iftmp.55
.L66:
	.loc 1 458 0 discriminator 3
	cmpq	-176(%rbp), %rax	# bitsize, iftmp.55
	jae	.L67	#,
.LBB5:
	.loc 1 466 0 is_stmt 1
	movl	$0, -116(%rbp)	#, backwards
	.loc 1 467 0
	movl	target_flags(%rip), %eax	# target_flags, target_flags.58
	andl	$33554432, %eax	#, D.17508
	testl	%eax, %eax	# D.17508
	je	.L68	#,
	.loc 1 467 0 is_stmt 0 discriminator 1
	movl	$63, %eax	#, iftmp.57
	jmp	.L69	#
.L68:
	.loc 1 467 0 discriminator 2
	movl	$31, %eax	#, iftmp.57
.L69:
	.loc 1 467 0 discriminator 3
	movq	-176(%rbp), %rdx	# bitsize, tmp458
	addq	%rdx, %rax	# tmp458, D.17509
	movl	target_flags(%rip), %edx	# target_flags, target_flags.60
	andl	$33554432, %edx	#, D.17508
	testl	%edx, %edx	# D.17508
	je	.L70	#,
	.loc 1 467 0 discriminator 1
	movl	$64, %ebx	#, iftmp.59
	jmp	.L71	#
.L70:
	.loc 1 467 0 discriminator 2
	movl	$32, %ebx	#, iftmp.59
.L71:
	.loc 1 467 0 discriminator 3
	movl	$0, %edx	#, tmp460
	divq	%rbx	# iftmp.59
	movl	%eax, -112(%rbp)	# D.17509, nwords
	.loc 1 475 0 is_stmt 1 discriminator 3
	movl	target_flags(%rip), %eax	# target_flags, target_flags.62
	andl	$33554432, %eax	#, D.17508
	testl	%eax, %eax	# D.17508
	je	.L72	#,
	.loc 1 475 0 is_stmt 0 discriminator 1
	movl	$64, %eax	#, iftmp.61
	jmp	.L73	#
.L72:
	.loc 1 475 0 discriminator 2
	movl	$32, %eax	#, iftmp.61
.L73:
	.loc 1 475 0 discriminator 3
	imull	-112(%rbp), %eax	# nwords, D.17510
	movl	$1, %esi	#,
	movl	%eax, %edi	# D.17510,
	call	smallest_mode_for_size	#
	movl	%eax, -188(%rbp)	# tmp461, fieldmode
	.loc 1 477 0 is_stmt 1 discriminator 3
	movl	$0, -148(%rbp)	#, i
	jmp	.L74	#
.L89:
.LBB6:
	.loc 1 481 0
	cmpl	$0, -116(%rbp)	#, backwards
	je	.L75	#,
	.loc 1 481 0 is_stmt 0 discriminator 1
	movl	-148(%rbp), %eax	# i, tmp462
	movl	-112(%rbp), %edx	# nwords, tmp463
	subl	%eax, %edx	# tmp462, D.17510
	movl	%edx, %eax	# D.17510, D.17510
	subl	$1, %eax	#, iftmp.63
	jmp	.L76	#
.L75:
	.loc 1 481 0 discriminator 2
	movl	-148(%rbp), %eax	# i, iftmp.63
.L76:
	.loc 1 481 0 discriminator 3
	movl	%eax, -108(%rbp)	# iftmp.63, wordnum
	.loc 1 482 0 is_stmt 1 discriminator 3
	cmpl	$0, -116(%rbp)	#, backwards
	je	.L77	#,
	.loc 1 483 0
	movq	-176(%rbp), %rax	# bitsize, tmp464
	movl	%eax, %edx	# tmp464, D.17508
	movl	-148(%rbp), %eax	# i, i.65
	notl	%eax	# D.17508
	movl	%eax, %ecx	# D.17508, D.17508
	movl	target_flags(%rip), %eax	# target_flags, target_flags.67
	andl	$33554432, %eax	#, D.17508
	testl	%eax, %eax	# D.17508
	je	.L78	#,
	.loc 1 483 0 is_stmt 0 discriminator 1
	movl	$64, %eax	#, iftmp.66
	jmp	.L79	#
.L78:
	.loc 1 483 0 discriminator 2
	movl	$32, %eax	#, iftmp.66
.L79:
	.loc 1 483 0 discriminator 1
	imull	%ecx, %eax	# D.17508, D.17508
	addl	%edx, %eax	# D.17508, D.17508
	movl	$0, %edx	#, tmp465
	testl	%eax, %eax	# D.17508
	cmovs	%edx, %eax	# D.17508,, tmp465, D.17508
	jmp	.L80	#
.L77:
	.loc 1 486 0 is_stmt 1
	movl	target_flags(%rip), %eax	# target_flags, target_flags.69
	andl	$33554432, %eax	#, D.17508
	testl	%eax, %eax	# D.17508
	je	.L81	#,
	.loc 1 486 0 is_stmt 0 discriminator 1
	movl	$64, %eax	#, iftmp.68
	jmp	.L82	#
.L81:
	.loc 1 486 0 discriminator 2
	movl	$32, %eax	#, iftmp.68
.L82:
	.loc 1 486 0 discriminator 3
	movl	-148(%rbp), %edx	# i, i.70
	imull	%edx, %eax	# i.70, D.17508
.L80:
	.loc 1 482 0 is_stmt 1 discriminator 1
	movl	%eax, -104(%rbp)	# iftmp.64, bit_offset
	.loc 1 492 0 discriminator 1
	movq	-200(%rbp), %rax	# value, tmp466
	movzbl	2(%rax), %eax	# value_1->mode, D.17512
	.loc 1 488 0 discriminator 1
	testb	%al, %al	# D.17512
	je	.L83	#,
	.loc 1 494 0
	movq	-200(%rbp), %rax	# value, tmp467
	movzbl	2(%rax), %eax	# value_1->mode, D.17512
	.loc 1 488 0
	movzbl	%al, %eax	# D.17512, iftmp.71
	jmp	.L84	#
.L83:
	.loc 1 488 0 is_stmt 0 discriminator 1
	movl	-188(%rbp), %eax	# fieldmode, iftmp.71
.L84:
	.loc 1 488 0 discriminator 2
	movl	-108(%rbp), %esi	# wordnum, tmp468
	movq	-200(%rbp), %rcx	# value, tmp469
	movl	%eax, %edx	# iftmp.71,
	movq	%rcx, %rdi	# tmp469,
	call	operand_subword_force	#
	movq	%rax, %rdi	#, D.17513
	movl	word_mode(%rip), %ecx	# word_mode, word_mode.72
	movl	-104(%rbp), %edx	# bit_offset, D.17509
	movq	-184(%rbp), %rax	# bitnum, tmp470
	leaq	(%rdx,%rax), %r10	#, D.17509
	movl	target_flags(%rip), %eax	# target_flags, target_flags.74
	andl	$33554432, %eax	#, D.17508
	testl	%eax, %eax	# D.17508
	je	.L85	#,
	.loc 1 488 0 discriminator 1
	movl	$64, %eax	#, iftmp.73
	jmp	.L86	#
.L85:
	.loc 1 488 0 discriminator 2
	movl	$32, %eax	#, iftmp.73
.L86:
	.loc 1 488 0 discriminator 3
	imull	-148(%rbp), %eax	# i, D.17510
	movl	%eax, %eax	# D.17510, D.17509
	movq	-176(%rbp), %rdx	# bitsize, tmp471
	subq	%rax, %rdx	# D.17509, D.17509
	movl	target_flags(%rip), %eax	# target_flags, target_flags.76
	andl	$33554432, %eax	#, D.17508
	testl	%eax, %eax	# D.17508
	je	.L87	#,
	movl	$64, %eax	#, iftmp.75
	jmp	.L88	#
.L87:
	.loc 1 488 0 discriminator 4
	movl	$32, %eax	#, iftmp.75
.L88:
	.loc 1 488 0 discriminator 5
	cmpq	%rax, %rdx	# iftmp.75, D.17509
	cmovbe	%rdx, %rax	# D.17509,, D.17509
	movq	%rax, %rsi	# D.17509, D.17509
	movq	-208(%rbp), %rdx	# total_size, tmp472
	movq	-80(%rbp), %rax	# op0, tmp473
	movq	%rdx, %r9	# tmp472,
	movq	%rdi, %r8	# D.17513,
	movq	%r10, %rdx	# D.17509,
	movq	%rax, %rdi	# tmp473,
	call	store_bit_field	#
.LBE6:
	.loc 1 477 0 is_stmt 1 discriminator 5
	addl	$1, -148(%rbp)	#, i
.L74:
	.loc 1 477 0 is_stmt 0 discriminator 1
	movl	-148(%rbp), %eax	# i, tmp474
	cmpl	-112(%rbp), %eax	# nwords, tmp474
	jb	.L89	#,
	.loc 1 497 0 is_stmt 1
	movq	-200(%rbp), %rax	# value, D.17506
	jmp	.L48	#
.L67:
.LBE5:
	.loc 1 506 0
	movq	-80(%rbp), %rax	# op0, tmp475
	movzwl	(%rax), %eax	# op0_12->code, D.17507
	cmpw	$66, %ax	#, D.17507
	je	.L90	#,
	.loc 1 508 0
	cmpq	$0, -88(%rbp)	#, offset
	jne	.L91	#,
	.loc 1 509 0
	movq	-80(%rbp), %rax	# op0, tmp476
	movzbl	2(%rax), %eax	# op0_12->mode, D.17512
	movzbl	%al, %eax	# D.17512, D.17508
	cltq
	movzbl	mode_size(%rax), %eax	# mode_size, D.17512
	movzbl	%al, %edx	# D.17512, D.17508
	movl	target_flags(%rip), %eax	# target_flags, target_flags.78
	andl	$33554432, %eax	#, D.17508
	testl	%eax, %eax	# D.17508
	je	.L92	#,
	.loc 1 509 0 is_stmt 0 discriminator 1
	movl	$8, %eax	#, iftmp.77
	jmp	.L93	#
.L92:
	.loc 1 509 0 discriminator 2
	movl	$4, %eax	#, iftmp.77
.L93:
	.loc 1 509 0 discriminator 3
	cmpl	%eax, %edx	# iftmp.77, D.17508
	jle	.L94	#,
.L91:
	.loc 1 511 0 is_stmt 1
	movq	-80(%rbp), %rax	# op0, tmp478
	movzwl	(%rax), %eax	# op0_12->code, D.17507
	cmpw	$61, %ax	#, D.17507
	je	.L95	#,
	.loc 1 517 0
	movq	-80(%rbp), %rax	# op0, tmp479
	movzwl	(%rax), %eax	# op0_12->code, D.17507
	cmpw	$63, %ax	#, D.17507
	jne	.L96	#,
	.loc 1 518 0
	movq	-80(%rbp), %rax	# op0, tmp480
	movzbl	2(%rax), %eax	# op0_12->mode, D.17512
	movzbl	%al, %eax	# D.17512, D.17508
	cltq
	movzbl	mode_size(%rax), %edx	# mode_size, D.17512
	.loc 1 519 0
	movq	-80(%rbp), %rax	# op0, tmp482
	movq	8(%rax), %rax	# op0_12->fld[0].rtx, D.17513
	movzbl	2(%rax), %eax	# _283->mode, D.17512
	movzbl	%al, %eax	# D.17512, D.17508
	cltq
	movzbl	mode_size(%rax), %eax	# mode_size, D.17512
	.loc 1 518 0
	cmpb	%al, %dl	# D.17512, D.17512
	jne	.L96	#,
	.loc 1 520 0
	movq	-80(%rbp), %rax	# op0, tmp484
	movq	8(%rax), %rax	# op0_12->fld[0].rtx, tmp485
	movq	%rax, -80(%rbp)	# tmp485, op0
	jmp	.L95	#
.L96:
	.loc 1 522 0
	movl	$__FUNCTION__.12791, %edx	#,
	movl	$522, %esi	#,
	movl	$.LC0, %edi	#,
	call	fancy_abort	#
.L95:
	.loc 1 525 0
	movl	target_flags(%rip), %eax	# target_flags, target_flags.80
	andl	$33554432, %eax	#, D.17508
	.loc 1 524 0
	testl	%eax, %eax	# D.17508
	je	.L97	#,
	.loc 1 524 0 is_stmt 0 discriminator 1
	movl	$8, %eax	#, iftmp.79
	jmp	.L98	#
.L97:
	.loc 1 524 0 discriminator 2
	movl	$4, %eax	#, iftmp.79
.L98:
	.loc 1 524 0 discriminator 3
	movq	-88(%rbp), %rdx	# offset, tmp486
	imull	%edx, %eax	# D.17511, D.17511
	movl	%eax, %ebx	# D.17511, D.17508
	movl	target_flags(%rip), %eax	# target_flags, target_flags.82
	andl	$33554432, %eax	#, D.17508
	testl	%eax, %eax	# D.17508
	je	.L99	#,
	.loc 1 524 0 discriminator 4
	movl	$64, %eax	#, iftmp.81
	jmp	.L100	#
.L99:
	.loc 1 524 0 discriminator 5
	movl	$32, %eax	#, iftmp.81
.L100:
	.loc 1 524 0 discriminator 6
	movl	$0, %edx	#,
	movl	$1, %esi	#,
	movl	%eax, %edi	# iftmp.81,
	call	mode_for_size	#
	movq	-80(%rbp), %rcx	# op0, tmp487
	movl	%ebx, %edx	# D.17508,
	movq	%rcx, %rsi	# tmp487,
	movl	%eax, %edi	# D.17515,
	call	gen_rtx_SUBREG	#
	movq	%rax, -80(%rbp)	# tmp488, op0
.L94:
	.loc 1 527 0 is_stmt 1
	movq	$0, -88(%rbp)	#, offset
	jmp	.L101	#
.L90:
	.loc 1 530 0
	movq	-80(%rbp), %rax	# op0, tmp489
	movl	$1, %esi	#,
	movq	%rax, %rdi	# tmp489,
	call	protect_from_queue	#
	movq	%rax, -80(%rbp)	# tmp490, op0
.L101:
	.loc 1 536 0
	movq	-200(%rbp), %rax	# value, tmp491
	movzbl	2(%rax), %eax	# value_1->mode, D.17512
	movzbl	%al, %eax	# D.17512, D.17508
	cltq
	movl	mode_class(,%rax,4), %eax	# mode_class, D.17514
	cmpl	$1, %eax	#, D.17514
	je	.L102	#,
	.loc 1 537 0
	movq	-200(%rbp), %rax	# value, tmp493
	movzbl	2(%rax), %eax	# value_1->mode, D.17512
	movzbl	%al, %eax	# D.17512, D.17508
	cltq
	movl	mode_class(,%rax,4), %eax	# mode_class, D.17514
	cmpl	$3, %eax	#, D.17514
	je	.L102	#,
	.loc 1 538 0
	movl	word_mode(%rip), %eax	# word_mode, word_mode.83
	movq	-200(%rbp), %rdx	# value, tmp495
	movq	%rdx, %rsi	# tmp495,
	movl	%eax, %edi	# word_mode.83,
	call	gen_lowpart	#
	movq	%rax, -200(%rbp)	# tmp496, value
.L102:
	.loc 1 544 0
	movq	-200(%rbp), %rax	# value, tmp497
	movzbl	2(%rax), %eax	# value_4->mode, D.17512
	.loc 1 543 0
	cmpb	$51, %al	#, D.17512
	je	.L103	#,
	.loc 1 545 0
	cmpq	$1, -176(%rbp)	#, bitsize
	jne	.L104	#,
	.loc 1 545 0 is_stmt 0 discriminator 1
	movq	-200(%rbp), %rax	# value, tmp498
	movzwl	(%rax), %eax	# value_4->code, D.17507
	cmpw	$54, %ax	#, D.17507
	je	.L103	#,
.L104:
	.loc 1 547 0 is_stmt 1
	movl	-136(%rbp), %eax	# op_mode, op_mode.84
	cltq
	movzwl	mode_bitsize(%rax,%rax), %eax	# mode_bitsize, D.17507
	movzwl	%ax, %eax	# D.17507, D.17509
	cmpq	-176(%rbp), %rax	# bitsize, D.17509
	jb	.L103	#,
	.loc 1 548 0
	movq	-80(%rbp), %rax	# op0, tmp500
	movzwl	(%rax), %eax	# op0_16->code, D.17507
	cmpw	$61, %ax	#, D.17507
	je	.L105	#,
	.loc 1 548 0 is_stmt 0 discriminator 1
	movq	-80(%rbp), %rax	# op0, tmp501
	movzwl	(%rax), %eax	# op0_16->code, D.17507
	cmpw	$63, %ax	#, D.17507
	jne	.L106	#,
.L105:
	.loc 1 549 0 is_stmt 1 discriminator 2
	movq	-48(%rbp), %rax	# bitpos, tmp502
	movq	-176(%rbp), %rdx	# bitsize, tmp503
	addq	%rax, %rdx	# tmp502, D.17509
	movl	-136(%rbp), %eax	# op_mode, op_mode.85
	cltq
	movzwl	mode_bitsize(%rax,%rax), %eax	# mode_bitsize, D.17507
	movzwl	%ax, %eax	# D.17507, D.17509
	.loc 1 548 0 discriminator 2
	cmpq	%rax, %rdx	# D.17509, D.17509
	ja	.L103	#,
.L106:
.LBB7:
	.loc 1 551 0
	movq	-48(%rbp), %rax	# bitpos, tmp505
	movl	%eax, -100(%rbp)	# tmp505, xbitpos
	.loc 1 553 0
	movq	-80(%rbp), %rax	# op0, tmp506
	movq	%rax, -64(%rbp)	# tmp506, xop0
	.loc 1 554 0
	call	get_last_insn	#
	movq	%rax, -40(%rbp)	# tmp507, last
	.loc 1 556 0
	movl	$3, %esi	#,
	movl	$0, %edi	#,
	call	mode_for_extraction	#
	movl	%eax, -96(%rbp)	# tmp508, maxmode
	.loc 1 557 0
	movl	volatile_ok(%rip), %eax	# volatile_ok, tmp509
	movl	%eax, -92(%rbp)	# tmp509, save_volatile_ok
	.loc 1 559 0
	movl	$1, volatile_ok(%rip)	#, volatile_ok
	.loc 1 565 0
	movq	-80(%rbp), %rax	# op0, tmp510
	movzwl	(%rax), %eax	# op0_16->code, D.17507
	cmpw	$66, %ax	#, D.17507
	jne	.L107	#,
	.loc 1 566 0
	movq	insn_data+44584(%rip), %rax	# insn_data[1114].operand, D.17518
	.loc 1 567 0
	movq	(%rax), %rax	# _328->predicate, D.17519
	movq	-80(%rbp), %rdx	# op0, tmp511
	movl	$0, %esi	#,
	movq	%rdx, %rdi	# tmp511,
	call	*%rax	# D.17519
	.loc 1 566 0
	testl	%eax, %eax	# D.17508
	jne	.L107	#,
.LBB8:
	.loc 1 577 0
	movq	-80(%rbp), %rax	# op0, tmp512
	movzbl	2(%rax), %eax	# op0_16->mode, D.17512
	cmpb	$51, %al	#, D.17512
	je	.L108	#,
	.loc 1 578 0
	movq	-80(%rbp), %rax	# op0, tmp513
	movzbl	2(%rax), %eax	# op0_16->mode, D.17512
	movzbl	%al, %eax	# D.17512, D.17508
	cltq
	movzbl	mode_size(%rax), %edx	# mode_size, D.17512
	movl	-96(%rbp), %eax	# maxmode, maxmode.86
	cltq
	movzbl	mode_size(%rax), %eax	# mode_size, D.17512
	cmpb	%al, %dl	# D.17512, D.17512
	jbe	.L109	#,
.L108:
	.loc 1 581 0
	movq	-80(%rbp), %rax	# op0, tmp516
	movzbl	3(%rax), %eax	# *op0_16, tmp519
	shrb	$3, %al	#, D.17521
	andl	$1, %eax	#, D.17521
	.loc 1 580 0
	movzbl	%al, %ecx	# D.17521, D.17508
	movq	-80(%rbp), %rax	# op0, tmp520
	movq	16(%rax), %rax	# op0_16->fld[1].rtmem, D.17522
	testq	%rax, %rax	# D.17522
	je	.L110	#,
	.loc 1 580 0 is_stmt 0 discriminator 1
	movq	-80(%rbp), %rax	# op0, tmp521
	movq	16(%rax), %rax	# op0_16->fld[1].rtmem, D.17522
	movl	32(%rax), %eax	# _342->align, iftmp.87
	jmp	.L111	#
.L110:
	.loc 1 580 0 discriminator 2
	movl	$8, %eax	#, iftmp.87
.L111:
	.loc 1 580 0 discriminator 3
	movq	-184(%rbp), %rdx	# bitnum, tmp522
	movl	%edx, %esi	# tmp522, D.17508
	movq	-176(%rbp), %rdx	# bitsize, tmp523
	movl	%edx, %edi	# tmp523, D.17508
	movl	-96(%rbp), %edx	# maxmode, tmp524
	movl	%ecx, %r8d	# D.17508,
	movl	%edx, %ecx	# tmp524,
	movl	%eax, %edx	# iftmp.87,
	call	get_best_mode	#
	movl	%eax, -144(%rbp)	# tmp525, bestmode
	jmp	.L112	#
.L109:
	.loc 1 583 0 is_stmt 1
	movq	-80(%rbp), %rax	# op0, tmp526
	movzbl	2(%rax), %eax	# op0_16->mode, D.17512
	movzbl	%al, %eax	# D.17512, tmp527
	movl	%eax, -144(%rbp)	# tmp527, bestmode
.L112:
	.loc 1 585 0
	cmpl	$0, -144(%rbp)	#, bestmode
	jne	.L113	#,
	.loc 1 588 0
	jmp	.L103	#
.L113:
	.loc 1 592 0
	movl	-144(%rbp), %eax	# bestmode, bestmode.88
	cltq
	movzwl	mode_bitsize(%rax,%rax), %eax	# mode_bitsize, D.17507
	movzwl	%ax, %eax	# D.17507, tmp529
	movl	%eax, -140(%rbp)	# tmp529, unit
	.loc 1 593 0
	movl	-140(%rbp), %ebx	# unit, D.17509
	movq	-184(%rbp), %rax	# bitnum, tmp532
	movl	$0, %edx	#, tmp531
	divq	%rbx	# D.17509
	movq	%rax, %rdx	# tmp530, D.17509
	movl	-144(%rbp), %eax	# bestmode, bestmode.89
	cltq
	movzbl	mode_size(%rax), %eax	# mode_size, D.17512
	movzbl	%al, %eax	# D.17512, D.17509
	imulq	%rdx, %rax	# D.17509, tmp534
	movq	%rax, -88(%rbp)	# tmp534, offset
	.loc 1 594 0
	movl	-140(%rbp), %ecx	# unit, D.17509
	movq	-184(%rbp), %rax	# bitnum, tmp536
	movl	$0, %edx	#, tmp537
	divq	%rcx	# D.17509
	movq	%rdx, -48(%rbp)	# tmp537, bitpos
	.loc 1 595 0
	movq	-88(%rbp), %rdx	# offset, offset.90
	movl	-144(%rbp), %esi	# bestmode, tmp539
	movq	-80(%rbp), %rax	# op0, tmp540
	movl	$1, %r8d	#,
	movl	$1, %ecx	#,
	movq	%rax, %rdi	# tmp540,
	call	adjust_address_1	#
	movq	%rax, -80(%rbp)	# tmp541, op0
	.loc 1 599 0
	movq	-80(%rbp), %rax	# op0, tmp542
	movq	%rax, %rdi	# tmp542,
	call	copy_to_reg	#
	movq	%rax, -32(%rbp)	# tmp543, tempreg
	.loc 1 600 0
	movq	-208(%rbp), %r8	# total_size, tmp544
	movq	-200(%rbp), %rdi	# value, tmp545
	movl	-188(%rbp), %ecx	# fieldmode, tmp546
	movq	-48(%rbp), %rdx	# bitpos, tmp547
	movq	-176(%rbp), %rsi	# bitsize, tmp548
	movq	-32(%rbp), %rax	# tempreg, tmp549
	movq	%r8, %r9	# tmp544,
	movq	%rdi, %r8	# tmp545,
	movq	%rax, %rdi	# tmp549,
	call	store_bit_field	#
	.loc 1 602 0
	movq	-32(%rbp), %rdx	# tempreg, tmp550
	movq	-80(%rbp), %rax	# op0, tmp551
	movq	%rdx, %rsi	# tmp550,
	movq	%rax, %rdi	# tmp551,
	call	emit_move_insn	#
	.loc 1 603 0
	movq	-200(%rbp), %rax	# value, D.17506
	jmp	.L48	#
.L107:
.LBE8:
	.loc 1 605 0
	movl	-92(%rbp), %eax	# save_volatile_ok, tmp552
	movl	%eax, volatile_ok(%rip)	# tmp552, volatile_ok
	.loc 1 608 0
	movq	-64(%rbp), %rax	# xop0, tmp553
	movzwl	(%rax), %eax	# xop0_323->code, D.17507
	cmpw	$66, %ax	#, D.17507
	jne	.L114	#,
	.loc 1 609 0
	movq	-88(%rbp), %rdx	# offset, offset.91
	movl	byte_mode(%rip), %esi	# byte_mode, byte_mode.92
	movq	-64(%rbp), %rax	# xop0, tmp554
	movl	$1, %r8d	#,
	movl	$1, %ecx	#,
	movq	%rax, %rdi	# tmp554,
	call	adjust_address_1	#
	movq	%rax, -64(%rbp)	# tmp555, xop0
.L114:
	.loc 1 613 0
	movq	-64(%rbp), %rax	# xop0, tmp556
	movzwl	(%rax), %eax	# xop0_21->code, D.17507
	cmpw	$63, %ax	#, D.17507
	jne	.L115	#,
	.loc 1 616 0
	movq	-64(%rbp), %rax	# xop0, tmp557
	movl	16(%rax), %eax	# xop0_21->fld[1].rtuint, D.17510
	movl	%eax, %edx	# D.17510, D.17508
	movq	-64(%rbp), %rax	# xop0, tmp558
	movq	8(%rax), %rcx	# xop0_21->fld[0].rtx, D.17513
	movl	-96(%rbp), %eax	# maxmode, tmp559
	movq	%rcx, %rsi	# D.17513,
	movl	%eax, %edi	# tmp559,
	call	gen_rtx_SUBREG	#
	movq	%rax, -64(%rbp)	# tmp560, xop0
.L115:
	.loc 1 617 0
	movq	-64(%rbp), %rax	# xop0, tmp561
	movzwl	(%rax), %eax	# xop0_22->code, D.17507
	cmpw	$61, %ax	#, D.17507
	jne	.L128	#,
	.loc 1 617 0 is_stmt 0 discriminator 1
	movq	-64(%rbp), %rax	# xop0, tmp562
	movzbl	2(%rax), %eax	# xop0_22->mode, D.17512
	movzbl	%al, %eax	# D.17512, D.17510
	cmpl	-96(%rbp), %eax	# maxmode, D.17510
	je	.L128	#,
	.loc 1 618 0 is_stmt 1
	movq	-64(%rbp), %rcx	# xop0, tmp563
	movl	-96(%rbp), %eax	# maxmode, tmp564
	movl	$0, %edx	#,
	movq	%rcx, %rsi	# tmp563,
	movl	%eax, %edi	# tmp564,
	call	gen_rtx_SUBREG	#
	movq	%rax, -64(%rbp)	# tmp565, xop0
.L128:
	.loc 1 631 0
	movl	-96(%rbp), %eax	# maxmode, maxmode.96
	cltq
	movzwl	mode_bitsize(%rax,%rax), %eax	# mode_bitsize, D.17507
	movzwl	%ax, %eax	# D.17507, tmp567
	movl	%eax, -140(%rbp)	# tmp567, unit
	.loc 1 634 0
	movq	-200(%rbp), %rax	# value, tmp568
	movq	%rax, -72(%rbp)	# tmp568, value1
	.loc 1 635 0
	movq	-200(%rbp), %rax	# value, tmp569
	movzbl	2(%rax), %eax	# value_4->mode, D.17512
	movzbl	%al, %eax	# D.17512, D.17510
	cmpl	-96(%rbp), %eax	# maxmode, D.17510
	je	.L117	#,
	.loc 1 637 0
	movq	-200(%rbp), %rax	# value, tmp570
	movzbl	2(%rax), %eax	# value_4->mode, D.17512
	movzbl	%al, %eax	# D.17512, D.17508
	cltq
	movzwl	mode_bitsize(%rax,%rax), %eax	# mode_bitsize, D.17507
	movzwl	%ax, %eax	# D.17507, D.17509
	cmpq	-176(%rbp), %rax	# bitsize, D.17509
	jb	.L118	#,
	.loc 1 643 0
	movq	-200(%rbp), %rax	# value, tmp572
	movzbl	2(%rax), %eax	# value_4->mode, D.17512
	movzbl	%al, %eax	# D.17512, D.17508
	cltq
	movzbl	mode_size(%rax), %edx	# mode_size, D.17512
	movl	-96(%rbp), %eax	# maxmode, maxmode.97
	cltq
	movzbl	mode_size(%rax), %eax	# mode_size, D.17512
	cmpb	%al, %dl	# D.17512, D.17512
	jae	.L119	#,
.LBB9:
	.loc 1 647 0
	movq	-200(%rbp), %rax	# value, tmp575
	movzbl	2(%rax), %eax	# value_4->mode, D.17512
	movzbl	%al, %edx	# D.17512, D.17515
	movq	-72(%rbp), %rsi	# value1, tmp576
	movl	-96(%rbp), %eax	# maxmode, tmp577
	movl	$0, %ecx	#,
	movl	%eax, %edi	# tmp577,
	call	simplify_subreg	#
	movq	%rax, -56(%rbp)	# tmp578, tmp
	.loc 1 648 0
	cmpq	$0, -56(%rbp)	#, tmp
	jne	.L120	#,
	.loc 1 652 0
	movq	-200(%rbp), %rax	# value, tmp579
	movzbl	2(%rax), %eax	# value_4->mode, D.17512
	.loc 1 649 0
	movzbl	%al, %ebx	# D.17512, D.17515
	.loc 1 650 0
	movq	-200(%rbp), %rax	# value, tmp580
	movzbl	2(%rax), %eax	# value_4->mode, D.17512
	.loc 1 649 0
	movzbl	%al, %eax	# D.17512, D.17515
	movq	-72(%rbp), %rdx	# value1, tmp581
	movq	%rdx, %rsi	# tmp581,
	movl	%eax, %edi	# D.17515,
	call	force_reg	#
	movq	%rax, %rsi	#, D.17513
	movl	-96(%rbp), %eax	# maxmode, tmp582
	movl	$0, %ecx	#,
	movl	%ebx, %edx	# D.17515,
	movl	%eax, %edi	# tmp582,
	call	simplify_gen_subreg	#
	movq	%rax, -56(%rbp)	# tmp583, tmp
.L120:
	.loc 1 653 0
	movq	-56(%rbp), %rax	# tmp, tmp584
	movq	%rax, -72(%rbp)	# tmp584, value1
.LBE9:
	jmp	.L117	#
.L119:
	.loc 1 656 0
	movq	-72(%rbp), %rdx	# value1, tmp585
	movl	-96(%rbp), %eax	# maxmode, tmp586
	movq	%rdx, %rsi	# tmp585,
	movl	%eax, %edi	# tmp586,
	call	gen_lowpart	#
	movq	%rax, -72(%rbp)	# tmp587, value1
	jmp	.L117	#
.L118:
	.loc 1 658 0
	movq	-200(%rbp), %rax	# value, tmp588
	movzwl	(%rax), %eax	# value_4->code, D.17507
	cmpw	$54, %ax	#, D.17507
	jne	.L122	#,
	.loc 1 659 0
	movq	-200(%rbp), %rax	# value, tmp589
	movq	8(%rax), %rax	# value_4->fld[0].rtwint, D.17523
	movl	-96(%rbp), %edx	# maxmode, tmp590
	movl	%edx, %esi	# tmp590,
	movq	%rax, %rdi	# D.17523,
	call	trunc_int_for_mode	#
	movq	%rax, %rsi	# D.17523,
	movl	$0, %edi	#,
	call	gen_rtx_CONST_INT	#
	movq	%rax, -72(%rbp)	# tmp591, value1
	jmp	.L117	#
.L122:
	.loc 1 660 0
	movq	-200(%rbp), %rax	# value, tmp592
	movzwl	(%rax), %eax	# value_4->code, D.17507
	cmpw	$67, %ax	#, D.17507
	je	.L117	#,
	.loc 1 660 0 is_stmt 0 discriminator 1
	movq	-200(%rbp), %rax	# value, tmp593
	movzwl	(%rax), %eax	# value_4->code, D.17507
	cmpw	$68, %ax	#, D.17507
	je	.L117	#,
	movq	-200(%rbp), %rax	# value, tmp594
	movzwl	(%rax), %eax	# value_4->code, D.17507
	cmpw	$54, %ax	#, D.17507
	je	.L117	#,
	movq	-200(%rbp), %rax	# value, tmp595
	movzwl	(%rax), %eax	# value_4->code, D.17507
	cmpw	$55, %ax	#, D.17507
	je	.L117	#,
	movq	-200(%rbp), %rax	# value, tmp596
	movzwl	(%rax), %eax	# value_4->code, D.17507
	cmpw	$58, %ax	#, D.17507
	je	.L117	#,
	movq	-200(%rbp), %rax	# value, tmp597
	movzwl	(%rax), %eax	# value_4->code, D.17507
	cmpw	$134, %ax	#, D.17507
	je	.L117	#,
	movq	-200(%rbp), %rax	# value, tmp598
	movzwl	(%rax), %eax	# value_4->code, D.17507
	cmpw	$56, %ax	#, D.17507
	je	.L117	#,
	movq	-200(%rbp), %rax	# value, tmp599
	movzwl	(%rax), %eax	# value_4->code, D.17507
	cmpw	$140, %ax	#, D.17507
	je	.L117	#,
	.loc 1 665 0 is_stmt 1
	movl	$__FUNCTION__.12791, %edx	#,
	movl	$665, %esi	#,
	movl	$.LC0, %edi	#,
	call	fancy_abort	#
.L117:
	.loc 1 670 0
	movq	insn_data+44584(%rip), %rax	# insn_data[1114].operand, D.17518
	addq	$72, %rax	#, D.17518
	.loc 1 671 0
	movq	(%rax), %rax	# _415->predicate, D.17519
	movl	-96(%rbp), %ecx	# maxmode, tmp600
	movq	-72(%rbp), %rdx	# value1, tmp601
	movl	%ecx, %esi	# tmp600,
	movq	%rdx, %rdi	# tmp601,
	call	*%rax	# D.17519
	.loc 1 670 0
	testl	%eax, %eax	# D.17508
	jne	.L123	#,
	.loc 1 672 0
	movq	-72(%rbp), %rdx	# value1, tmp602
	movl	-96(%rbp), %eax	# maxmode, tmp603
	movq	%rdx, %rsi	# tmp602,
	movl	%eax, %edi	# tmp603,
	call	force_reg	#
	movq	%rax, -72(%rbp)	# tmp604, value1
.L123:
	.loc 1 674 0
	movl	-100(%rbp), %eax	# xbitpos, tmp605
	cltq
	movq	%rax, %rsi	# D.17523,
	movl	$0, %edi	#,
	call	gen_rtx_CONST_INT	#
	movq	%rax, %rbx	#, D.17513
	movq	-176(%rbp), %rax	# bitsize, bitsize.98
	movq	%rax, %rsi	# bitsize.98,
	movl	$0, %edi	#,
	call	gen_rtx_CONST_INT	#
	movq	%rax, %rsi	#, D.17513
	movq	-72(%rbp), %rdx	# value1, tmp606
	movq	-64(%rbp), %rax	# xop0, tmp607
	movq	%rdx, %rcx	# tmp606,
	movq	%rbx, %rdx	# D.17513,
	movq	%rax, %rdi	# tmp607,
	call	gen_insv	#
	movq	%rax, -24(%rbp)	# tmp608, pat
	.loc 1 675 0
	cmpq	$0, -24(%rbp)	#, pat
	je	.L124	#,
	.loc 1 676 0
	movq	-24(%rbp), %rax	# pat, tmp609
	movq	%rax, %rdi	# tmp609,
	call	emit_insn	#
.LBE7:
	.loc 1 550 0
	jmp	.L126	#
.L124:
.LBB10:
	.loc 1 679 0
	movq	-40(%rbp), %rax	# last, tmp610
	movq	%rax, %rdi	# tmp610,
	call	delete_insns_since	#
	.loc 1 680 0
	movq	-200(%rbp), %rdi	# value, tmp611
	movq	-48(%rbp), %rcx	# bitpos, tmp612
	movq	-176(%rbp), %rdx	# bitsize, tmp613
	movq	-88(%rbp), %rsi	# offset, tmp614
	movq	-80(%rbp), %rax	# op0, tmp615
	movq	%rdi, %r8	# tmp611,
	movq	%rax, %rdi	# tmp615,
	call	store_fixed_bit_field	#
.LBE10:
	.loc 1 550 0
	jmp	.L126	#
.L103:
	.loc 1 686 0
	movq	-200(%rbp), %rdi	# value, tmp616
	movq	-48(%rbp), %rcx	# bitpos, tmp617
	movq	-176(%rbp), %rdx	# bitsize, tmp618
	movq	-88(%rbp), %rsi	# offset, tmp619
	movq	-80(%rbp), %rax	# op0, tmp620
	movq	%rdi, %r8	# tmp616,
	movq	%rax, %rdi	# tmp620,
	call	store_fixed_bit_field	#
.L126:
	.loc 1 687 0
	movq	-200(%rbp), %rax	# value, D.17506
.L48:
	.loc 1 688 0
	addq	$200, %rsp	#,
	popq	%rbx	#
	popq	%rbp	#
	.cfi_def_cfa 7, 8
	ret
	.cfi_endproc
.LFE5:
	.size	store_bit_field, .-store_bit_field
	.type	store_fixed_bit_field, @function
store_fixed_bit_field:
.LFB6:
	.loc 1 706 0
	.cfi_startproc
	pushq	%rbp	#
	.cfi_def_cfa_offset 16
	.cfi_offset 6, -16
	movq	%rsp, %rbp	#,
	.cfi_def_cfa_register 6
	pushq	%rbx	#
	subq	$104, %rsp	#,
	.cfi_offset 3, -24
	movq	%rdi, -72(%rbp)	# op0, op0
	movq	%rsi, -80(%rbp)	# offset, offset
	movq	%rdx, -88(%rbp)	# bitsize, bitsize
	movq	%rcx, -96(%rbp)	# bitpos, bitpos
	movq	%r8, -104(%rbp)	# value, value
	.loc 1 708 0
	movl	target_flags(%rip), %eax	# target_flags, target_flags.100
	andl	$33554432, %eax	#, D.17527
	testl	%eax, %eax	# D.17527
	je	.L130	#,
	.loc 1 708 0 is_stmt 0 discriminator 1
	movl	$64, %eax	#, iftmp.99
	jmp	.L131	#
.L130:
	.loc 1 708 0 discriminator 2
	movl	$32, %eax	#, iftmp.99
.L131:
	.loc 1 708 0 discriminator 3
	movl	%eax, -48(%rbp)	# iftmp.99, total_bits
	.loc 1 710 0 is_stmt 1 discriminator 3
	movl	$0, -56(%rbp)	#, all_zero
	.loc 1 711 0 discriminator 3
	movl	$0, -52(%rbp)	#, all_one
	.loc 1 720 0 discriminator 3
	movq	-72(%rbp), %rax	# op0, tmp151
	movzwl	(%rax), %eax	# op0_29(D)->code, D.17528
	cmpw	$61, %ax	#, D.17528
	je	.L132	#,
	.loc 1 720 0 is_stmt 0 discriminator 1
	movq	-72(%rbp), %rax	# op0, tmp152
	movzwl	(%rax), %eax	# op0_29(D)->code, D.17528
	cmpw	$63, %ax	#, D.17528
	jne	.L133	#,
.L132:
	.loc 1 722 0 is_stmt 1
	cmpq	$0, -80(%rbp)	#, offset
	je	.L134	#,
	.loc 1 723 0
	movl	$__FUNCTION__.12826, %edx	#,
	movl	$723, %esi	#,
	movl	$.LC0, %edi	#,
	call	fancy_abort	#
.L134:
	.loc 1 725 0
	movq	-96(%rbp), %rax	# bitpos, tmp153
	movq	-88(%rbp), %rdx	# bitsize, tmp154
	addq	%rax, %rdx	# tmp153, D.17533
	movl	target_flags(%rip), %eax	# target_flags, target_flags.102
	andl	$33554432, %eax	#, D.17527
	testl	%eax, %eax	# D.17527
	je	.L135	#,
	.loc 1 725 0 is_stmt 0 discriminator 1
	movl	$64, %eax	#, iftmp.101
	jmp	.L136	#
.L135:
	.loc 1 725 0 discriminator 2
	movl	$32, %eax	#, iftmp.101
.L136:
	.loc 1 725 0 discriminator 3
	cmpq	%rax, %rdx	# iftmp.101, D.17533
	jbe	.L137	#,
	.loc 1 727 0 is_stmt 1
	movq	-104(%rbp), %rcx	# value, tmp155
	movq	-96(%rbp), %rdx	# bitpos, tmp156
	movq	-88(%rbp), %rsi	# bitsize, tmp157
	movq	-72(%rbp), %rax	# op0, tmp158
	movq	%rax, %rdi	# tmp158,
	call	store_split_bit_field	#
	.loc 1 728 0
	jmp	.L129	#
.L137:
	.loc 1 725 0 discriminator 1
	jmp	.L139	#
.L133:
	.loc 1 738 0
	movq	-72(%rbp), %rax	# op0, tmp159
	movzbl	2(%rax), %eax	# op0_29(D)->mode, D.17529
	movzbl	%al, %eax	# D.17529, tmp160
	movl	%eax, -60(%rbp)	# tmp160, mode
	.loc 1 739 0
	movl	-60(%rbp), %eax	# mode, mode.103
	cltq
	movzwl	mode_bitsize(%rax,%rax), %eax	# mode_bitsize, D.17528
	testw	%ax, %ax	# D.17528
	je	.L140	#,
	.loc 1 740 0
	movl	-60(%rbp), %eax	# mode, mode.104
	cltq
	movzwl	mode_bitsize(%rax,%rax), %edx	# mode_bitsize, D.17528
	movl	word_mode(%rip), %eax	# word_mode, word_mode.105
	cltq
	movzwl	mode_bitsize(%rax,%rax), %eax	# mode_bitsize, D.17528
	cmpw	%ax, %dx	# D.17528, D.17528
	jbe	.L141	#,
.L140:
	.loc 1 741 0
	movl	word_mode(%rip), %eax	# word_mode, tmp164
	movl	%eax, -60(%rbp)	# tmp164, mode
.L141:
	.loc 1 743 0
	movq	-72(%rbp), %rax	# op0, tmp165
	movzbl	3(%rax), %eax	# *op0_29(D), tmp168
	shrb	$3, %al	#, D.17530
	andl	$1, %eax	#, D.17530
	.loc 1 742 0
	movzbl	%al, %ecx	# D.17530, D.17527
	.loc 1 743 0
	movq	-72(%rbp), %rax	# op0, tmp169
	movq	16(%rax), %rax	# op0_29(D)->fld[1].rtmem, D.17531
	.loc 1 742 0
	testq	%rax, %rax	# D.17531
	je	.L142	#,
	.loc 1 743 0
	movq	-72(%rbp), %rax	# op0, tmp170
	movq	16(%rax), %rax	# op0_29(D)->fld[1].rtmem, D.17531
	.loc 1 742 0
	movl	32(%rax), %eax	# _45->align, iftmp.107
	jmp	.L143	#
.L142:
	.loc 1 742 0 is_stmt 0 discriminator 1
	movl	$8, %eax	#, iftmp.107
.L143:
	.loc 1 742 0 discriminator 2
	movq	-80(%rbp), %rdx	# offset, tmp171
	leal	0(,%rdx,8), %esi	#, D.17532
	movq	-96(%rbp), %rdx	# bitpos, tmp172
	addl	%esi, %edx	# D.17532, D.17532
	movl	%edx, %esi	# D.17532, D.17527
	movq	-88(%rbp), %rdx	# bitsize, tmp173
	movl	%edx, %edi	# tmp173, D.17527
	movl	-60(%rbp), %edx	# mode, tmp174
	movl	%ecx, %r8d	# D.17527,
	movl	%edx, %ecx	# tmp174,
	movl	%eax, %edx	# iftmp.107,
	call	get_best_mode	#
	movl	%eax, -60(%rbp)	# tmp175, mode
	.loc 1 745 0 is_stmt 1 discriminator 2
	cmpl	$0, -60(%rbp)	#, mode
	jne	.L144	#,
	.loc 1 749 0
	movq	-80(%rbp), %rax	# offset, tmp176
	leaq	0(,%rax,8), %rdx	#, D.17533
	movq	-96(%rbp), %rax	# bitpos, tmp177
	leaq	(%rdx,%rax), %rdi	#, D.17533
	movq	-104(%rbp), %rdx	# value, tmp178
	movq	-88(%rbp), %rsi	# bitsize, tmp179
	movq	-72(%rbp), %rax	# op0, tmp180
	movq	%rdx, %rcx	# tmp178,
	movq	%rdi, %rdx	# D.17533,
	movq	%rax, %rdi	# tmp180,
	call	store_split_bit_field	#
	.loc 1 751 0
	jmp	.L129	#
.L144:
	.loc 1 754 0
	movl	-60(%rbp), %eax	# mode, mode.108
	cltq
	movzwl	mode_bitsize(%rax,%rax), %eax	# mode_bitsize, D.17528
	movzwl	%ax, %eax	# D.17528, tmp182
	movl	%eax, -48(%rbp)	# tmp182, total_bits
	.loc 1 759 0
	movl	-48(%rbp), %eax	# total_bits, D.17533
	cmpq	-96(%rbp), %rax	# bitpos, D.17533
	ja	.L145	#,
	.loc 1 761 0
	movl	-48(%rbp), %ebx	# total_bits, D.17533
	movq	-96(%rbp), %rax	# bitpos, tmp185
	movl	$0, %edx	#, tmp184
	divq	%rbx	# D.17533
	movq	%rax, %rdx	# tmp183, D.17533
	movl	-48(%rbp), %eax	# total_bits, tmp186
	shrl	$3, %eax	#, D.17534
	movl	%eax, %eax	# D.17534, D.17533
	imulq	%rdx, %rax	# D.17533, D.17533
	addq	%rax, -80(%rbp)	# D.17533, offset
	.loc 1 762 0
	movl	-48(%rbp), %ebx	# total_bits, D.17533
	movq	-96(%rbp), %rax	# bitpos, tmp189
	movl	$0, %edx	#, tmp188
	divq	%rbx	# D.17533
	movq	%rax, %rdx	# tmp187, D.17533
	movl	-48(%rbp), %eax	# total_bits, tmp190
	shrl	$3, %eax	#, D.17534
	movl	%eax, %eax	# D.17534, D.17533
	imulq	%rdx, %rax	# D.17533, D.17533
	.loc 1 763 0
	salq	$3, %rax	#, D.17533
	.loc 1 762 0
	subq	%rax, -96(%rbp)	# D.17533, bitpos
.L145:
	.loc 1 770 0
	movl	-48(%rbp), %eax	# total_bits, tmp191
	shrl	$3, %eax	#, D.17534
	movl	%eax, %ecx	# D.17534, D.17533
	movq	-80(%rbp), %rax	# offset, tmp192
	movl	$0, %edx	#, tmp193
	divq	%rcx	# D.17533
	movq	%rdx, %rax	# tmp193, D.17533
	salq	$3, %rax	#, D.17533
	addq	%rax, -96(%rbp)	# D.17533, bitpos
	.loc 1 771 0
	movl	-48(%rbp), %eax	# total_bits, tmp195
	shrl	$3, %eax	#, D.17534
	movl	%eax, %ecx	# D.17534, D.17533
	movq	-80(%rbp), %rax	# offset, tmp196
	movl	$0, %edx	#, tmp197
	divq	%rcx	# D.17533
	movq	%rdx, %rax	# tmp197, D.17533
	subq	%rax, -80(%rbp)	# D.17533, offset
	.loc 1 772 0
	movq	-80(%rbp), %rdx	# offset, offset.109
	movl	-60(%rbp), %esi	# mode, tmp199
	movq	-72(%rbp), %rax	# op0, tmp200
	movl	$1, %r8d	#,
	movl	$1, %ecx	#,
	movq	%rax, %rdi	# tmp200,
	call	adjust_address_1	#
	movq	%rax, -72(%rbp)	# tmp201, op0
.L139:
	.loc 1 775 0
	movq	-72(%rbp), %rax	# op0, tmp202
	movzbl	2(%rax), %eax	# op0_1->mode, D.17529
	movzbl	%al, %eax	# D.17529, tmp203
	movl	%eax, -60(%rbp)	# tmp203, mode
	.loc 1 795 0
	movq	-104(%rbp), %rax	# value, tmp204
	movzwl	(%rax), %eax	# value_60(D)->code, D.17528
	cmpw	$54, %ax	#, D.17528
	jne	.L146	#,
.LBB11:
	.loc 1 797 0
	movq	-104(%rbp), %rax	# value, tmp205
	movq	8(%rax), %rax	# value_60(D)->fld[0].rtwint, tmp206
	movq	%rax, -24(%rbp)	# tmp206, v
	.loc 1 799 0
	cmpq	$63, -88(%rbp)	#, bitsize
	ja	.L147	#,
	.loc 1 800 0
	movq	-88(%rbp), %rax	# bitsize, tmp207
	movl	$1, %edx	#, tmp208
	movl	%eax, %ecx	# D.17527, tmp263
	salq	%cl, %rdx	# tmp263, D.17535
	movq	%rdx, %rax	# D.17535, D.17535
	subq	$1, %rax	#, D.17535
	andq	%rax, -24(%rbp)	# D.17535, v
.L147:
	.loc 1 802 0
	cmpq	$0, -24(%rbp)	#, v
	jne	.L148	#,
	.loc 1 803 0
	movl	$1, -56(%rbp)	#, all_zero
	jmp	.L149	#
.L148:
	.loc 1 804 0
	cmpq	$63, -88(%rbp)	#, bitsize
	ja	.L150	#,
	.loc 1 805 0
	movq	-88(%rbp), %rax	# bitsize, tmp209
	movl	$1, %edx	#, tmp210
	movl	%eax, %ecx	# D.17527, tmp265
	salq	%cl, %rdx	# tmp265, D.17535
	movq	%rdx, %rax	# D.17535, D.17535
	subq	$1, %rax	#, D.17535
	cmpq	-24(%rbp), %rax	# v, D.17535
	je	.L151	#,
.L150:
	.loc 1 806 0
	cmpq	$64, -88(%rbp)	#, bitsize
	jne	.L149	#,
	.loc 1 806 0 is_stmt 0 discriminator 1
	cmpq	$-1, -24(%rbp)	#, v
	jne	.L149	#,
.L151:
	.loc 1 807 0 is_stmt 1
	movl	$1, -52(%rbp)	#, all_one
.L149:
	.loc 1 809 0 discriminator 1
	movq	-88(%rbp), %rax	# bitsize, tmp211
	movl	%eax, %ecx	# tmp211, D.17527
	movq	-96(%rbp), %rax	# bitpos, tmp212
	movl	%eax, %edx	# tmp212, D.17527
	movq	-104(%rbp), %rsi	# value, tmp213
	movl	-60(%rbp), %eax	# mode, tmp214
	movl	%eax, %edi	# tmp214,
	call	lshift_value	#
	movq	%rax, -104(%rbp)	# tmp215, value
.LBE11:
	jmp	.L152	#
.L146:
.LBB12:
	.loc 1 813 0
	movq	-104(%rbp), %rax	# value, tmp216
	movzbl	2(%rax), %eax	# value_60(D)->mode, D.17529
	movzbl	%al, %eax	# D.17529, D.17527
	cltq
	movzwl	mode_bitsize(%rax,%rax), %eax	# mode_bitsize, D.17528
	movzwl	%ax, %eax	# D.17528, D.17533
	.loc 1 814 0
	cmpq	-88(%rbp), %rax	# bitsize, D.17533
	je	.L153	#,
	.loc 1 814 0 is_stmt 0 discriminator 1
	movq	-88(%rbp), %rax	# bitsize, tmp218
	movq	-96(%rbp), %rdx	# bitpos, tmp219
	addq	%rax, %rdx	# tmp218, D.17533
	movl	-60(%rbp), %eax	# mode, mode.111
	cltq
	movzwl	mode_bitsize(%rax,%rax), %eax	# mode_bitsize, D.17528
	movzwl	%ax, %eax	# D.17528, D.17533
	cmpq	%rax, %rdx	# D.17533, D.17533
	je	.L153	#,
	.loc 1 814 0 discriminator 3
	movl	$1, %eax	#, iftmp.110
	jmp	.L154	#
.L153:
	.loc 1 814 0 discriminator 2
	movl	$0, %eax	#, iftmp.110
.L154:
	.loc 1 813 0 is_stmt 1
	movl	%eax, -44(%rbp)	# iftmp.110, must_and
	.loc 1 816 0
	movq	-104(%rbp), %rax	# value, tmp221
	movzbl	2(%rax), %eax	# value_60(D)->mode, D.17529
	movzbl	%al, %eax	# D.17529, D.17534
	cmpl	-60(%rbp), %eax	# mode, D.17534
	je	.L155	#,
	.loc 1 818 0
	movq	-104(%rbp), %rax	# value, tmp222
	movzwl	(%rax), %eax	# value_60(D)->code, D.17528
	cmpw	$61, %ax	#, D.17528
	je	.L156	#,
	.loc 1 818 0 is_stmt 0 discriminator 1
	movq	-104(%rbp), %rax	# value, tmp223
	movzwl	(%rax), %eax	# value_60(D)->code, D.17528
	cmpw	$63, %ax	#, D.17528
	jne	.L157	#,
.L156:
	.loc 1 819 0 is_stmt 1
	movl	-60(%rbp), %eax	# mode, mode.112
	cltq
	movzbl	mode_size(%rax), %edx	# mode_size, D.17529
	movq	-104(%rbp), %rax	# value, tmp225
	movzbl	2(%rax), %eax	# value_60(D)->mode, D.17529
	movzbl	%al, %eax	# D.17529, D.17527
	cltq
	movzbl	mode_size(%rax), %eax	# mode_size, D.17529
	cmpb	%al, %dl	# D.17529, D.17529
	jae	.L157	#,
	.loc 1 820 0
	movq	-104(%rbp), %rdx	# value, tmp227
	movl	-60(%rbp), %eax	# mode, tmp228
	movq	%rdx, %rsi	# tmp227,
	movl	%eax, %edi	# tmp228,
	call	gen_lowpart	#
	movq	%rax, -104(%rbp)	# tmp229, value
	jmp	.L155	#
.L157:
	.loc 1 822 0
	movq	-104(%rbp), %rcx	# value, tmp230
	movl	-60(%rbp), %eax	# mode, tmp231
	movl	$1, %edx	#,
	movq	%rcx, %rsi	# tmp230,
	movl	%eax, %edi	# tmp231,
	call	convert_to_mode	#
	movq	%rax, -104(%rbp)	# tmp232, value
.L155:
	.loc 1 825 0
	cmpl	$0, -44(%rbp)	#, must_and
	je	.L158	#,
	.loc 1 826 0
	movq	-88(%rbp), %rax	# bitsize, tmp233
	movl	%eax, %edx	# tmp233, D.17527
	movl	-60(%rbp), %eax	# mode, tmp234
	movl	$0, %ecx	#,
	movl	$0, %esi	#,
	movl	%eax, %edi	# tmp234,
	call	mask_rtx	#
	movq	%rax, %rcx	#, D.17536
	movq	optab_table+144(%rip), %rsi	# optab_table, D.17537
	movq	-104(%rbp), %rdx	# value, tmp235
	movl	-60(%rbp), %eax	# mode, tmp236
	movl	$3, (%rsp)	#,
	movl	$1, %r9d	#,
	movl	$0, %r8d	#,
	movl	%eax, %edi	# tmp236,
	call	expand_binop	#
	movq	%rax, -104(%rbp)	# tmp237, value
.L158:
	.loc 1 829 0
	cmpq	$0, -96(%rbp)	#, bitpos
	je	.L152	#,
	.loc 1 830 0
	movq	-96(%rbp), %rax	# bitpos, tmp238
	movl	$0, %esi	#,
	movq	%rax, %rdi	# tmp238,
	call	build_int_2_wide	#
	movq	%rax, %rcx	#, D.17538
	movq	-104(%rbp), %rdx	# value, tmp239
	movl	-60(%rbp), %eax	# mode, tmp240
	movl	$1, %r9d	#,
	movl	$0, %r8d	#,
	movl	%eax, %esi	# tmp240,
	movl	$82, %edi	#,
	call	expand_shift	#
	movq	%rax, -104(%rbp)	# tmp241, value
.L152:
.LBE12:
	.loc 1 837 0
	movq	-72(%rbp), %rax	# op0, tmp242
	movzwl	(%rax), %eax	# op0_1->code, D.17528
	cmpw	$61, %ax	#, D.17528
	je	.L159	#,
	.loc 1 837 0 is_stmt 0 discriminator 2
	movl	flag_force_mem(%rip), %eax	# flag_force_mem, flag_force_mem.114
	testl	%eax, %eax	# flag_force_mem.114
	jne	.L160	#,
.L159:
	.loc 1 837 0 discriminator 1
	movq	-72(%rbp), %rax	# op0, iftmp.113
	jmp	.L161	#
.L160:
	movl	$0, %eax	#, iftmp.113
.L161:
	.loc 1 837 0 discriminator 3
	movq	%rax, -40(%rbp)	# iftmp.113, subtarget
	.loc 1 839 0 is_stmt 1 discriminator 3
	cmpl	$0, -52(%rbp)	#, all_one
	jne	.L162	#,
	.loc 1 841 0
	movq	-88(%rbp), %rax	# bitsize, tmp243
	movl	%eax, %edx	# tmp243, D.17527
	movq	-96(%rbp), %rax	# bitpos, tmp244
	movl	%eax, %esi	# tmp244, D.17527
	movl	-60(%rbp), %eax	# mode, tmp245
	movl	$1, %ecx	#,
	movl	%eax, %edi	# tmp245,
	call	mask_rtx	#
	movq	%rax, %rcx	#, D.17536
	movq	optab_table+144(%rip), %rsi	# optab_table, D.17537
	movq	-40(%rbp), %rdi	# subtarget, tmp246
	movq	-72(%rbp), %rdx	# op0, tmp247
	movl	-60(%rbp), %eax	# mode, tmp248
	movl	$3, (%rsp)	#,
	movl	$1, %r9d	#,
	movq	%rdi, %r8	# tmp246,
	movl	%eax, %edi	# tmp248,
	call	expand_binop	#
	movq	%rax, -32(%rbp)	# tmp249, temp
	.loc 1 844 0
	movq	-32(%rbp), %rax	# temp, tmp250
	movq	%rax, -40(%rbp)	# tmp250, subtarget
	jmp	.L163	#
.L162:
	.loc 1 847 0
	movq	-72(%rbp), %rax	# op0, tmp251
	movq	%rax, -32(%rbp)	# tmp251, temp
.L163:
	.loc 1 851 0
	cmpl	$0, -56(%rbp)	#, all_zero
	jne	.L164	#,
	.loc 1 852 0
	movq	optab_table+152(%rip), %rsi	# optab_table, D.17537
	movq	-40(%rbp), %rdi	# subtarget, tmp252
	movq	-104(%rbp), %rcx	# value, tmp253
	movq	-32(%rbp), %rdx	# temp, tmp254
	movl	-60(%rbp), %eax	# mode, tmp255
	movl	$3, (%rsp)	#,
	movl	$1, %r9d	#,
	movq	%rdi, %r8	# tmp252,
	movl	%eax, %edi	# tmp255,
	call	expand_binop	#
	movq	%rax, -32(%rbp)	# tmp256, temp
.L164:
	.loc 1 854 0
	movq	-72(%rbp), %rax	# op0, tmp257
	cmpq	-32(%rbp), %rax	# temp, tmp257
	je	.L129	#,
	.loc 1 855 0
	movq	-32(%rbp), %rdx	# temp, tmp258
	movq	-72(%rbp), %rax	# op0, tmp259
	movq	%rdx, %rsi	# tmp258,
	movq	%rax, %rdi	# tmp259,
	call	emit_move_insn	#
.L129:
	.loc 1 856 0
	addq	$104, %rsp	#,
	popq	%rbx	#
	popq	%rbp	#
	.cfi_def_cfa 7, 8
	ret
	.cfi_endproc
.LFE6:
	.size	store_fixed_bit_field, .-store_fixed_bit_field
	.type	store_split_bit_field, @function
store_split_bit_field:
.LFB7:
	.loc 1 872 0
	.cfi_startproc
	pushq	%rbp	#
	.cfi_def_cfa_offset 16
	.cfi_offset 6, -16
	movq	%rsp, %rbp	#,
	.cfi_def_cfa_register 6
	pushq	%rbx	#
	subq	$120, %rsp	#,
	.cfi_offset 3, -24
	movq	%rdi, -88(%rbp)	# op0, op0
	movq	%rsi, -96(%rbp)	# bitsize, bitsize
	movq	%rdx, -104(%rbp)	# bitpos, bitpos
	movq	%rcx, -112(%rbp)	# value, value
	.loc 1 874 0
	movl	$0, -72(%rbp)	#, bitsdone
	.loc 1 878 0
	movq	-88(%rbp), %rax	# op0, tmp134
	movzwl	(%rax), %eax	# op0_15(D)->code, D.17539
	cmpw	$61, %ax	#, D.17539
	je	.L166	#,
	.loc 1 878 0 is_stmt 0 discriminator 1
	movq	-88(%rbp), %rax	# op0, tmp135
	movzwl	(%rax), %eax	# op0_15(D)->code, D.17539
	cmpw	$63, %ax	#, D.17539
	jne	.L167	#,
.L166:
	.loc 1 879 0 is_stmt 1
	movl	target_flags(%rip), %eax	# target_flags, target_flags.116
	andl	$33554432, %eax	#, D.17540
	testl	%eax, %eax	# D.17540
	je	.L168	#,
	.loc 1 879 0 is_stmt 0 discriminator 1
	movl	$64, %eax	#, iftmp.115
	jmp	.L169	#
.L168:
	.loc 1 879 0 discriminator 2
	movl	$32, %eax	#, iftmp.115
.L169:
	.loc 1 879 0 discriminator 3
	movl	%eax, -76(%rbp)	# iftmp.115, unit
	jmp	.L170	#
.L167:
	.loc 1 881 0 is_stmt 1
	movl	target_flags(%rip), %eax	# target_flags, target_flags.118
	andl	$33554432, %eax	#, D.17540
	testl	%eax, %eax	# D.17540
	je	.L171	#,
	.loc 1 881 0 is_stmt 0 discriminator 1
	movl	$64, %edx	#, iftmp.117
	jmp	.L172	#
.L171:
	.loc 1 881 0 discriminator 2
	movl	$32, %edx	#, iftmp.117
.L172:
	.loc 1 881 0 discriminator 3
	movq	-88(%rbp), %rax	# op0, tmp136
	movq	16(%rax), %rax	# op0_15(D)->fld[1].rtmem, D.17541
	testq	%rax, %rax	# D.17541
	je	.L173	#,
	.loc 1 881 0 discriminator 1
	movq	-88(%rbp), %rax	# op0, tmp137
	movq	16(%rax), %rax	# op0_15(D)->fld[1].rtmem, D.17541
	movl	32(%rax), %eax	# _23->align, iftmp.119
	jmp	.L174	#
.L173:
	.loc 1 881 0 discriminator 2
	movl	$8, %eax	#, iftmp.119
.L174:
	.loc 1 881 0 discriminator 3
	cmpl	%eax, %edx	# iftmp.119, iftmp.117
	cmovbe	%edx, %eax	# iftmp.117,, tmp138
	movl	%eax, -76(%rbp)	# tmp138, unit
.L170:
	.loc 1 886 0 is_stmt 1
	movq	-112(%rbp), %rax	# value, tmp139
	movzwl	(%rax), %eax	# value_32(D)->code, D.17539
	cmpw	$67, %ax	#, D.17539
	je	.L175	#,
	.loc 1 886 0 is_stmt 0 discriminator 2
	movq	-112(%rbp), %rax	# value, tmp140
	movzwl	(%rax), %eax	# value_32(D)->code, D.17539
	cmpw	$68, %ax	#, D.17539
	je	.L175	#,
	.loc 1 886 0 discriminator 1
	movq	-112(%rbp), %rax	# value, tmp141
	movzwl	(%rax), %eax	# value_32(D)->code, D.17539
	cmpw	$54, %ax	#, D.17539
	je	.L175	#,
	movq	-112(%rbp), %rax	# value, tmp142
	movzwl	(%rax), %eax	# value_32(D)->code, D.17539
	cmpw	$55, %ax	#, D.17539
	je	.L175	#,
	movq	-112(%rbp), %rax	# value, tmp143
	movzwl	(%rax), %eax	# value_32(D)->code, D.17539
	cmpw	$58, %ax	#, D.17539
	je	.L175	#,
	movq	-112(%rbp), %rax	# value, tmp144
	movzwl	(%rax), %eax	# value_32(D)->code, D.17539
	cmpw	$134, %ax	#, D.17539
	je	.L175	#,
	movq	-112(%rbp), %rax	# value, tmp145
	movzwl	(%rax), %eax	# value_32(D)->code, D.17539
	cmpw	$56, %ax	#, D.17539
	je	.L175	#,
	movq	-112(%rbp), %rax	# value, tmp146
	movzwl	(%rax), %eax	# value_32(D)->code, D.17539
	cmpw	$140, %ax	#, D.17539
	jne	.L176	#,
.L175:
	movq	-112(%rbp), %rax	# value, tmp147
	movzwl	(%rax), %eax	# value_32(D)->code, D.17539
	cmpw	$54, %ax	#, D.17539
	je	.L176	#,
.LBB13:
	.loc 1 888 0 is_stmt 1
	movl	word_mode(%rip), %eax	# word_mode, word_mode.120
	movq	-112(%rbp), %rdx	# value, tmp148
	movq	%rdx, %rsi	# tmp148,
	movl	%eax, %edi	# word_mode.120,
	call	gen_lowpart_common	#
	movq	%rax, -40(%rbp)	# tmp149, word
	.loc 1 890 0
	cmpq	$0, -40(%rbp)	#, word
	je	.L177	#,
	.loc 1 890 0 is_stmt 0 discriminator 1
	movq	-112(%rbp), %rax	# value, tmp150
	cmpq	-40(%rbp), %rax	# word, tmp150
	je	.L177	#,
	.loc 1 891 0 is_stmt 1
	movq	-40(%rbp), %rax	# word, tmp151
	movq	%rax, -112(%rbp)	# tmp151, value
.LBE13:
	.loc 1 887 0
	jmp	.L181	#
.L177:
.LBB14:
	.loc 1 894 0
	movq	-112(%rbp), %rax	# value, tmp152
	movzbl	2(%rax), %eax	# value_32(D)->mode, D.17542
	.loc 1 893 0
	testb	%al, %al	# D.17542
	je	.L179	#,
	.loc 1 895 0
	movq	-112(%rbp), %rax	# value, tmp153
	movzbl	2(%rax), %eax	# value_32(D)->mode, D.17542
	.loc 1 893 0
	movzbl	%al, %eax	# D.17542, iftmp.121
	jmp	.L180	#
.L179:
	.loc 1 893 0 is_stmt 0 discriminator 1
	movl	word_mode(%rip), %eax	# word_mode, iftmp.121
.L180:
	.loc 1 893 0 discriminator 2
	movq	-112(%rbp), %rdx	# value, tmp154
	movq	%rdx, %rsi	# tmp154,
	movl	%eax, %edi	# iftmp.121,
	call	force_reg	#
	movq	%rax, %rdx	#, D.17543
	movl	word_mode(%rip), %eax	# word_mode, word_mode.122
	movq	%rdx, %rsi	# D.17543,
	movl	%eax, %edi	# word_mode.122,
	call	gen_lowpart_common	#
	movq	%rax, -112(%rbp)	# tmp155, value
.LBE14:
	.loc 1 887 0 is_stmt 1 discriminator 2
	jmp	.L181	#
.L176:
	.loc 1 898 0
	movq	-112(%rbp), %rax	# value, tmp156
	movzwl	(%rax), %eax	# value_32(D)->code, D.17539
	cmpw	$70, %ax	#, D.17539
	jne	.L181	#,
	.loc 1 899 0
	movq	-112(%rbp), %rax	# value, tmp157
	movq	%rax, %rdi	# tmp157,
	call	copy_to_reg	#
	movq	%rax, -112(%rbp)	# tmp158, value
	.loc 1 901 0
	jmp	.L182	#
.L181:
	jmp	.L182	#
.L192:
.LBB15:
	.loc 1 908 0
	movl	-72(%rbp), %edx	# bitsdone, D.17544
	movq	-104(%rbp), %rax	# bitpos, tmp159
	addq	%rdx, %rax	# D.17544, D.17544
	movl	-76(%rbp), %ebx	# unit, D.17544
	movl	$0, %edx	#, tmp161
	divq	%rbx	# D.17544
	movq	%rax, -48(%rbp)	# tmp160, offset
	.loc 1 909 0
	movl	-72(%rbp), %edx	# bitsdone, D.17544
	movq	-104(%rbp), %rax	# bitpos, tmp162
	addq	%rdx, %rax	# D.17544, D.17544
	movl	-76(%rbp), %ecx	# unit, D.17544
	movl	$0, %edx	#, tmp163
	divq	%rcx	# D.17544
	movq	%rdx, -32(%rbp)	# tmp163, thispos
	.loc 1 914 0
	movl	target_flags(%rip), %eax	# target_flags, target_flags.124
	andl	$33554432, %eax	#, D.17540
	testl	%eax, %eax	# D.17540
	je	.L183	#,
	.loc 1 914 0 is_stmt 0 discriminator 1
	movl	$64, %eax	#, iftmp.123
	jmp	.L184	#
.L183:
	.loc 1 914 0 discriminator 2
	movl	$32, %eax	#, iftmp.123
.L184:
	.loc 1 914 0 discriminator 3
	movl	-72(%rbp), %edx	# bitsdone, D.17544
	movq	-96(%rbp), %rcx	# bitsize, tmp165
	subq	%rdx, %rcx	# D.17544, D.17544
	movq	%rcx, %rdx	# D.17544, D.17544
	cmpq	%rdx, %rax	# D.17544, iftmp.123
	cmova	%rdx, %rax	# iftmp.123,, D.17544, tmp166
	movq	%rax, -24(%rbp)	# tmp166, thissize
	.loc 1 915 0 is_stmt 1 discriminator 3
	movl	-76(%rbp), %eax	# unit, D.17544
	subq	-32(%rbp), %rax	# thispos, D.17544
	movq	%rax, %rdx	# D.17544, D.17544
	movq	-24(%rbp), %rax	# thissize, tmp168
	cmpq	%rax, %rdx	# tmp168, D.17544
	cmovbe	%rdx, %rax	# D.17544,, tmp167
	movq	%rax, -24(%rbp)	# tmp167, thissize
	.loc 1 945 0 discriminator 3
	movq	-112(%rbp), %rax	# value, tmp169
	movzwl	(%rax), %eax	# value_2->code, D.17539
	cmpw	$54, %ax	#, D.17539
	jne	.L185	#,
	.loc 1 946 0
	movq	-112(%rbp), %rax	# value, tmp170
	movq	8(%rax), %rax	# value_2->fld[0].rtwint, D.17545
	movq	%rax, %rdx	# D.17545, D.17544
	movl	-72(%rbp), %eax	# bitsdone, bitsdone.128
	movq	%rdx, %rsi	# D.17544, D.17544
	movl	%eax, %ecx	# bitsdone.128, tmp200
	shrq	%cl, %rsi	# tmp200, D.17544
	movq	-24(%rbp), %rax	# thissize, tmp171
	movl	$1, %edx	#, tmp172
	movl	%eax, %ecx	# D.17540, tmp202
	salq	%cl, %rdx	# tmp202, D.17545
	movq	%rdx, %rax	# D.17545, D.17545
	subq	$1, %rax	#, D.17545
	andq	%rsi, %rax	# D.17544, D.17544
	movq	%rax, %rsi	# D.17545,
	movl	$0, %edi	#,
	call	gen_rtx_CONST_INT	#
	movq	%rax, -64(%rbp)	# tmp173, part
	jmp	.L186	#
.L185:
	.loc 1 950 0
	movl	-72(%rbp), %ecx	# bitsdone, D.17544
	movl	word_mode(%rip), %eax	# word_mode, word_mode.129
	movq	-24(%rbp), %rdx	# thissize, tmp174
	movq	-112(%rbp), %rsi	# value, tmp175
	movl	$1, (%rsp)	#,
	movl	$0, %r9d	#,
	movq	%rcx, %r8	# D.17544,
	movq	%rdx, %rcx	# tmp174,
	movl	$0, %edx	#,
	movl	%eax, %edi	# word_mode.129,
	call	extract_fixed_bit_field	#
	movq	%rax, -64(%rbp)	# tmp176, part
.L186:
	.loc 1 960 0
	movq	-88(%rbp), %rax	# op0, tmp177
	movzwl	(%rax), %eax	# op0_15(D)->code, D.17539
	cmpw	$63, %ax	#, D.17539
	jne	.L187	#,
.LBB16:
	.loc 1 962 0
	movq	-88(%rbp), %rax	# op0, tmp178
	movl	16(%rax), %eax	# op0_15(D)->fld[1].rtuint, D.17546
	movl	target_flags(%rip), %edx	# target_flags, target_flags.131
	andl	$33554432, %edx	#, D.17540
	testl	%edx, %edx	# D.17540
	je	.L188	#,
	.loc 1 962 0 is_stmt 0 discriminator 1
	movl	$8, %ebx	#, iftmp.130
	jmp	.L189	#
.L188:
	.loc 1 962 0 discriminator 2
	movl	$4, %ebx	#, iftmp.130
.L189:
	.loc 1 962 0 discriminator 1
	movl	$0, %edx	#, tmp180
	divl	%ebx	# iftmp.130
	movl	%eax, %edx	# tmp179, D.17546
	movq	-48(%rbp), %rax	# offset, tmp181
	addl	%edx, %eax	# D.17546, D.17547
	movl	%eax, -68(%rbp)	# D.17547, word_offset
	.loc 1 964 0 is_stmt 1 discriminator 1
	movq	-88(%rbp), %rax	# op0, tmp182
	movq	8(%rax), %rax	# op0_15(D)->fld[0].rtx, D.17543
	movzbl	2(%rax), %eax	# _100->mode, D.17542
	.loc 1 963 0 discriminator 1
	movzbl	%al, %edx	# D.17542, D.17548
	movl	-68(%rbp), %ecx	# word_offset, word_offset.132
	movq	-88(%rbp), %rax	# op0, tmp183
	movq	8(%rax), %rax	# op0_15(D)->fld[0].rtx, D.17543
	movl	%ecx, %esi	# word_offset.132,
	movq	%rax, %rdi	# D.17543,
	call	operand_subword_force	#
	movq	%rax, -56(%rbp)	# tmp184, word
	.loc 1 965 0 discriminator 1
	movq	$0, -48(%rbp)	#, offset
.LBE16:
	jmp	.L190	#
.L187:
	.loc 1 967 0
	movq	-88(%rbp), %rax	# op0, tmp185
	movzwl	(%rax), %eax	# op0_15(D)->code, D.17539
	cmpw	$61, %ax	#, D.17539
	jne	.L191	#,
	.loc 1 969 0
	movq	-88(%rbp), %rax	# op0, tmp186
	movzbl	2(%rax), %eax	# op0_15(D)->mode, D.17542
	movzbl	%al, %edx	# D.17542, D.17548
	movq	-48(%rbp), %rax	# offset, tmp187
	movl	%eax, %ecx	# tmp187, D.17546
	movq	-88(%rbp), %rax	# op0, tmp188
	movl	%ecx, %esi	# D.17546,
	movq	%rax, %rdi	# tmp188,
	call	operand_subword_force	#
	movq	%rax, -56(%rbp)	# tmp189, word
	.loc 1 970 0
	movq	$0, -48(%rbp)	#, offset
	jmp	.L190	#
.L191:
	.loc 1 973 0
	movq	-88(%rbp), %rax	# op0, tmp190
	movq	%rax, -56(%rbp)	# tmp190, word
.L190:
	.loc 1 977 0
	movl	-76(%rbp), %eax	# unit, D.17544
	imulq	-48(%rbp), %rax	# offset, D.17544
	shrq	$3, %rax	#, D.17544
	movq	%rax, %rsi	# D.17544, D.17544
	movq	-64(%rbp), %rdi	# part, tmp191
	movq	-32(%rbp), %rcx	# thispos, tmp192
	movq	-24(%rbp), %rdx	# thissize, tmp193
	movq	-56(%rbp), %rax	# word, tmp194
	movq	%rdi, %r8	# tmp191,
	movq	%rax, %rdi	# tmp194,
	call	store_fixed_bit_field	#
	.loc 1 979 0
	movq	-24(%rbp), %rax	# thissize, tmp195
	addl	%eax, -72(%rbp)	# D.17546, bitsdone
.L182:
.LBE15:
	.loc 1 901 0 discriminator 1
	movl	-72(%rbp), %eax	# bitsdone, D.17544
	cmpq	-96(%rbp), %rax	# bitsize, D.17544
	jb	.L192	#,
	.loc 1 981 0
	addq	$120, %rsp	#,
	popq	%rbx	#
	popq	%rbp	#
	.cfi_def_cfa 7, 8
	ret
	.cfi_endproc
.LFE7:
	.size	store_split_bit_field, .-store_split_bit_field
	.globl	extract_bit_field
	.type	extract_bit_field, @function
extract_bit_field:
.LFB8:
	.loc 1 1013 0
	.cfi_startproc
	pushq	%rbp	#
	.cfi_def_cfa_offset 16
	.cfi_offset 6, -16
	movq	%rsp, %rbp	#,
	.cfi_def_cfa_register 6
	pushq	%rbx	#
	subq	$376, %rsp	#,
	.cfi_offset 3, -24
	movq	%rdi, -328(%rbp)	# str_rtx, str_rtx
	movq	%rsi, -336(%rbp)	# bitsize, bitsize
	movq	%rdx, -344(%rbp)	# bitnum, bitnum
	movl	%ecx, -348(%rbp)	# unsignedp, unsignedp
	movq	%r8, -360(%rbp)	# target, target
	movl	%r9d, -352(%rbp)	# mode, mode
	.loc 1 1015 0
	movq	-328(%rbp), %rax	# str_rtx, tmp381
	movzwl	(%rax), %eax	# str_rtx_74(D)->code, D.17550
	.loc 1 1014 0
	cmpw	$66, %ax	#, D.17550
	je	.L194	#,
	.loc 1 1015 0 discriminator 1
	movl	target_flags(%rip), %eax	# target_flags, target_flags.135
	andl	$33554432, %eax	#, D.17551
	.loc 1 1014 0 discriminator 1
	testl	%eax, %eax	# D.17551
	je	.L195	#,
	.loc 1 1014 0 is_stmt 0 discriminator 3
	movl	$64, %eax	#, iftmp.134
	jmp	.L197	#
.L195:
	.loc 1 1014 0 discriminator 4
	movl	$32, %eax	#, iftmp.134
	jmp	.L197	#
.L194:
	.loc 1 1014 0 discriminator 2
	movl	$8, %eax	#, iftmp.133
.L197:
	.loc 1 1014 0 discriminator 5
	movl	%eax, -288(%rbp)	# iftmp.133, unit
	.loc 1 1016 0 is_stmt 1 discriminator 5
	movl	-288(%rbp), %ebx	# unit, D.17552
	movq	-344(%rbp), %rax	# bitnum, tmp384
	movl	$0, %edx	#, tmp383
	divq	%rbx	# D.17552
	movq	%rax, -216(%rbp)	# tmp382, offset
	.loc 1 1017 0 discriminator 5
	movl	-288(%rbp), %ecx	# unit, D.17552
	movq	-344(%rbp), %rax	# bitnum, tmp386
	movl	$0, %edx	#, tmp387
	divq	%rcx	# D.17552
	movq	%rdx, -112(%rbp)	# tmp387, bitpos
	.loc 1 1018 0 discriminator 5
	movq	-328(%rbp), %rax	# str_rtx, tmp389
	movq	%rax, -208(%rbp)	# tmp389, op0
	.loc 1 1019 0 discriminator 5
	movq	-360(%rbp), %rax	# target, tmp390
	movq	%rax, -200(%rbp)	# tmp390, spec_target
	.loc 1 1020 0 discriminator 5
	movq	$0, -192(%rbp)	#, spec_target_subreg
	.loc 1 1022 0 discriminator 5
	movl	$0, %esi	#,
	movl	$1, %edi	#,
	call	mode_for_extraction	#
	movl	%eax, -284(%rbp)	# tmp391, extv_mode
	.loc 1 1023 0 discriminator 5
	movl	$0, %esi	#,
	movl	$2, %edi	#,
	call	mode_for_extraction	#
	movl	%eax, -280(%rbp)	# tmp392, extzv_mode
	.loc 1 1029 0 discriminator 5
	cmpq	$0, 24(%rbp)	#, total_size
	js	.L198	#,
	.loc 1 1030 0
	movq	24(%rbp), %rax	# total_size, total_size.136
	movq	-112(%rbp), %rdx	# bitpos, tmp393
	shrq	$7, %rdx	#, D.17552
	.loc 1 1031 0
	salq	$4, %rdx	#, D.17552
	.loc 1 1030 0
	subq	%rdx, %rax	# D.17552, D.17552
	movq	%rax, 24(%rbp)	# D.17552, total_size
.L198:
	.loc 1 1033 0
	cmpl	$0, 16(%rbp)	#, tmode
	jne	.L199	#,
	.loc 1 1034 0
	movl	-352(%rbp), %eax	# mode, tmp394
	movl	%eax, 16(%rbp)	# tmp394, tmode
	.loc 1 1035 0
	jmp	.L200	#
.L199:
	jmp	.L200	#
.L205:
.LBB17:
	.loc 1 1037 0
	movq	-208(%rbp), %rax	# op0, tmp395
	movzbl	2(%rax), %eax	# op0_10->mode, D.17553
	movzbl	%al, %eax	# D.17553, D.17551
	cltq
	movzwl	mode_bitsize(%rax,%rax), %eax	# mode_bitsize, D.17550
	movzwl	%ax, %eax	# D.17550, tmp397
	movl	%eax, -276(%rbp)	# tmp397, outer_size
	.loc 1 1038 0
	movq	-208(%rbp), %rax	# op0, tmp398
	movq	8(%rax), %rax	# op0_10->fld[0].rtx, D.17554
	movzbl	2(%rax), %eax	# _108->mode, D.17553
	movzbl	%al, %eax	# D.17553, D.17551
	cltq
	movzwl	mode_bitsize(%rax,%rax), %eax	# mode_bitsize, D.17550
	movzwl	%ax, %eax	# D.17550, tmp400
	movl	%eax, -272(%rbp)	# tmp400, inner_size
	.loc 1 1040 0
	movq	-208(%rbp), %rax	# op0, tmp401
	movl	16(%rax), %eax	# op0_10->fld[1].rtuint, D.17555
	movl	target_flags(%rip), %edx	# target_flags, target_flags.138
	andl	$33554432, %edx	#, D.17551
	testl	%edx, %edx	# D.17551
	je	.L201	#,
	.loc 1 1040 0 is_stmt 0 discriminator 1
	movl	$8, %ebx	#, iftmp.137
	jmp	.L202	#
.L201:
	.loc 1 1040 0 discriminator 2
	movl	$4, %ebx	#, iftmp.137
.L202:
	.loc 1 1040 0 discriminator 3
	movl	$0, %edx	#, tmp403
	divl	%ebx	# iftmp.137
	movl	%eax, %eax	# D.17555, D.17552
	addq	%rax, -216(%rbp)	# D.17552, offset
	.loc 1 1042 0 is_stmt 1 discriminator 3
	movl	target_flags(%rip), %eax	# target_flags, target_flags.140
	andl	$33554432, %eax	#, D.17551
	testl	%eax, %eax	# D.17551
	je	.L203	#,
	.loc 1 1042 0 is_stmt 0 discriminator 1
	movl	$64, %eax	#, iftmp.139
	jmp	.L204	#
.L203:
	.loc 1 1042 0 discriminator 2
	movl	$32, %eax	#, iftmp.139
.L204:
	.loc 1 1042 0 discriminator 3
	movl	-272(%rbp), %edx	# inner_size, tmp405
	cmpl	%edx, %eax	# tmp405, iftmp.139
	cmovg	%edx, %eax	# iftmp.139,, tmp405, tmp404
	movl	%eax, -272(%rbp)	# tmp404, inner_size
	.loc 1 1054 0 is_stmt 1 discriminator 3
	movq	-208(%rbp), %rax	# op0, tmp406
	movq	8(%rax), %rax	# op0_10->fld[0].rtx, tmp407
	movq	%rax, -208(%rbp)	# tmp407, op0
.L200:
.LBE17:
	.loc 1 1035 0 discriminator 1
	movq	-208(%rbp), %rax	# op0, tmp408
	movzwl	(%rax), %eax	# op0_10->code, D.17550
	cmpw	$63, %ax	#, D.17550
	je	.L205	#,
	.loc 1 1057 0
	movq	-208(%rbp), %rax	# op0, tmp409
	movzwl	(%rax), %eax	# op0_10->code, D.17550
	cmpw	$61, %ax	#, D.17550
	jne	.L206	#,
	.loc 1 1058 0
	movq	-208(%rbp), %rax	# op0, tmp410
	movzbl	2(%rax), %eax	# op0_10->mode, D.17553
	movzbl	%al, %eax	# D.17553, D.17555
	cmpl	-352(%rbp), %eax	# mode, D.17555
	jne	.L206	#,
	.loc 1 1059 0
	cmpq	$0, -344(%rbp)	#, bitnum
	jne	.L206	#,
	.loc 1 1060 0
	movq	-208(%rbp), %rax	# op0, tmp411
	movzbl	2(%rax), %eax	# op0_10->mode, D.17553
	movzbl	%al, %eax	# D.17553, D.17551
	cltq
	movzwl	mode_bitsize(%rax,%rax), %eax	# mode_bitsize, D.17550
	movzwl	%ax, %eax	# D.17550, D.17552
	cmpq	-336(%rbp), %rax	# bitsize, D.17552
	jne	.L206	#,
	.loc 1 1063 0
	movq	-208(%rbp), %rax	# op0, D.17549
	jmp	.L207	#
.L206:
.LBB18:
	.loc 1 1069 0
	movq	-208(%rbp), %rax	# op0, tmp413
	movzbl	2(%rax), %eax	# op0_10->mode, D.17553
	movzbl	%al, %eax	# D.17553, D.17556
	movl	%eax, %edi	# D.17556,
	call	int_mode_for_mode	#
	movl	%eax, -268(%rbp)	# tmp414, imode
	.loc 1 1070 0
	movq	-208(%rbp), %rax	# op0, tmp415
	movzbl	2(%rax), %eax	# op0_10->mode, D.17553
	movzbl	%al, %eax	# D.17553, D.17555
	cmpl	-268(%rbp), %eax	# imode, D.17555
	je	.L208	#,
	.loc 1 1072 0
	movq	-208(%rbp), %rax	# op0, tmp416
	movzwl	(%rax), %eax	# op0_10->code, D.17550
	cmpw	$66, %ax	#, D.17550
	jne	.L209	#,
	.loc 1 1073 0
	movl	-268(%rbp), %esi	# imode, tmp417
	movq	-208(%rbp), %rax	# op0, tmp418
	movl	$1, %r8d	#,
	movl	$1, %ecx	#,
	movl	$0, %edx	#,
	movq	%rax, %rdi	# tmp418,
	call	adjust_address_1	#
	movq	%rax, -208(%rbp)	# tmp419, op0
	jmp	.L208	#
.L209:
	.loc 1 1074 0
	cmpl	$51, -268(%rbp)	#, imode
	je	.L210	#,
	.loc 1 1075 0
	movq	-208(%rbp), %rdx	# op0, tmp420
	movl	-268(%rbp), %eax	# imode, tmp421
	movq	%rdx, %rsi	# tmp420,
	movl	%eax, %edi	# tmp421,
	call	gen_lowpart	#
	movq	%rax, -208(%rbp)	# tmp422, op0
	jmp	.L208	#
.L210:
	.loc 1 1077 0
	movl	$__FUNCTION__.12875, %edx	#,
	movl	$1077, %esi	#,
	movl	$.LC0, %edi	#,
	call	fancy_abort	#
.L208:
.LBE18:
	.loc 1 1083 0
	movq	-208(%rbp), %rax	# op0, tmp423
	movzwl	(%rax), %eax	# op0_11->code, D.17550
	cmpw	$66, %ax	#, D.17550
	jne	.L323	#,
	.loc 1 1085 0
	movq	-208(%rbp), %rax	# op0, tmp424
	movq	%rax, %rdi	# tmp424,
	call	shallow_copy_rtx	#
	movq	%rax, -208(%rbp)	# tmp425, op0
	.loc 1 1086 0
	movq	-208(%rbp), %rax	# op0, tmp426
	movl	$0, %esi	#,
	movq	%rax, %rdi	# tmp426,
	call	set_mem_alias_set	#
	.loc 1 1087 0
	movq	-208(%rbp), %rax	# op0, tmp427
	movl	$0, %esi	#,
	movq	%rax, %rdi	# tmp427,
	call	set_mem_expr	#
.L323:
	.loc 1 1108 0
	movl	target_flags(%rip), %eax	# target_flags, target_flags.142
	andl	$33554432, %eax	#, D.17551
	testl	%eax, %eax	# D.17551
	je	.L212	#,
	.loc 1 1108 0 is_stmt 0 discriminator 1
	movl	$64, %ebx	#, iftmp.141
	jmp	.L213	#
.L212:
	.loc 1 1108 0 discriminator 2
	movl	$32, %ebx	#, iftmp.141
.L213:
	.loc 1 1108 0 discriminator 3
	movq	-344(%rbp), %rax	# bitnum, tmp428
	movl	$0, %edx	#, tmp429
	divq	%rbx	# iftmp.141
	movq	%rdx, %rcx	# tmp429, tmp429
	movq	%rcx, %rax	# tmp429, D.17552
	shrq	$3, %rax	#, D.17552
	movl	%eax, %edx	# D.17552, D.17557
	.loc 1 1109 0 is_stmt 1 discriminator 3
	movl	target_flags(%rip), %eax	# target_flags, target_flags.144
	andl	$33554432, %eax	#, D.17551
	.loc 1 1108 0 discriminator 3
	testl	%eax, %eax	# D.17551
	je	.L214	#,
	.loc 1 1108 0 is_stmt 0 discriminator 1
	movl	$8, %eax	#, iftmp.143
	jmp	.L215	#
.L214:
	.loc 1 1108 0 discriminator 2
	movl	$4, %eax	#, iftmp.143
.L215:
	.loc 1 1108 0 discriminator 3
	movq	-216(%rbp), %rcx	# offset, tmp431
	imull	%ecx, %eax	# D.17557, D.17557
	addl	%edx, %eax	# D.17557, D.17557
	movl	%eax, -264(%rbp)	# D.17557, byte_offset
	.loc 1 1111 0 is_stmt 1 discriminator 3
	movl	16(%rbp), %eax	# tmode, tmode.146
	cltq
	movl	mode_class(,%rax,4), %eax	# mode_class, D.17558
	cmpl	$7, %eax	#, D.17558
	je	.L216	#,
	.loc 1 1111 0 is_stmt 0 discriminator 1
	movl	16(%rbp), %eax	# tmode, tmode.147
	cltq
	movl	mode_class(,%rax,4), %eax	# mode_class, D.17558
	cmpl	$8, %eax	#, D.17558
	je	.L216	#,
	.loc 1 1113 0 is_stmt 1 discriminator 1
	movl	16(%rbp), %eax	# tmode, tmode.148
	cltq
	movl	mode_class(,%rax,4), %ecx	# mode_class, D.17558
	movq	-336(%rbp), %rax	# bitsize, tmp435
	.loc 1 1111 0 discriminator 1
	movl	$0, %edx	#,
	movl	%ecx, %esi	# D.17558,
	movl	%eax, %edi	# D.17555,
	call	mode_for_size	#
	jmp	.L217	#
.L216:
	.loc 1 1111 0 is_stmt 0 discriminator 2
	movl	-352(%rbp), %eax	# mode, iftmp.145
.L217:
	.loc 1 1111 0 discriminator 3
	movl	%eax, -260(%rbp)	# iftmp.145, mode1
	.loc 1 1115 0 is_stmt 1 discriminator 3
	movq	-208(%rbp), %rax	# op0, tmp436
	movzwl	(%rax), %eax	# op0_12->code, D.17550
	cmpw	$66, %ax	#, D.17550
	je	.L218	#,
	.loc 1 1118 0
	movl	-260(%rbp), %eax	# mode1, mode1.149
	cltq
	movzbl	mode_size(%rax), %eax	# mode_size, D.17553
	testb	%al, %al	# D.17553
	je	.L218	#,
	.loc 1 1119 0
	movl	-260(%rbp), %eax	# mode1, mode1.150
	cltq
	movzbl	mode_size(%rax), %eax	# mode_size, D.17553
	movzbl	%al, %ecx	# D.17553, D.17551
	movl	-264(%rbp), %eax	# byte_offset, tmp439
	cltd
	idivl	%ecx	# D.17551
	movl	%edx, %eax	# tmp440, D.17551
	testl	%eax, %eax	# D.17551
	je	.L219	#,
.L218:
	.loc 1 1120 0
	movq	-208(%rbp), %rax	# op0, tmp442
	movzwl	(%rax), %eax	# op0_12->code, D.17550
	cmpw	$66, %ax	#, D.17550
	jne	.L220	#,
.L219:
	.loc 1 1124 0
	movl	target_flags(%rip), %eax	# target_flags, target_flags.152
	andl	$33554432, %eax	#, D.17551
	testl	%eax, %eax	# D.17551
	je	.L221	#,
	.loc 1 1124 0 is_stmt 0 discriminator 1
	movl	$64, %eax	#, iftmp.151
	jmp	.L222	#
.L221:
	.loc 1 1124 0 discriminator 2
	movl	$32, %eax	#, iftmp.151
.L222:
	.loc 1 1124 0 discriminator 3
	cmpq	-336(%rbp), %rax	# bitsize, iftmp.151
	ja	.L223	#,
	.loc 1 1124 0 discriminator 1
	movl	-352(%rbp), %eax	# mode, mode.153
	cltq
	movzwl	mode_bitsize(%rax,%rax), %eax	# mode_bitsize, D.17550
	movzwl	%ax, %eax	# D.17550, D.17552
	cmpq	-336(%rbp), %rax	# bitsize, D.17552
	jne	.L223	#,
	.loc 1 1125 0 is_stmt 1
	movl	target_flags(%rip), %eax	# target_flags, target_flags.155
	andl	$33554432, %eax	#, D.17551
	testl	%eax, %eax	# D.17551
	je	.L224	#,
	.loc 1 1125 0 is_stmt 0 discriminator 1
	movl	$64, %ebx	#, iftmp.154
	jmp	.L225	#
.L224:
	.loc 1 1125 0 discriminator 2
	movl	$32, %ebx	#, iftmp.154
.L225:
	.loc 1 1125 0 discriminator 3
	movq	-112(%rbp), %rax	# bitpos, tmp444
	movl	$0, %edx	#, tmp445
	divq	%rbx	# iftmp.154
	movq	%rdx, %rcx	# tmp445, tmp445
	movq	%rcx, %rax	# tmp445, D.17552
	testq	%rax, %rax	# D.17552
	je	.L226	#,
.L223:
	.loc 1 1126 0 is_stmt 1
	movl	16(%rbp), %eax	# tmode, tmode.156
	cltq
	movl	mode_class(,%rax,4), %ecx	# mode_class, D.17558
	movq	-336(%rbp), %rax	# bitsize, tmp448
	movl	$0, %edx	#,
	movl	%ecx, %esi	# D.17558,
	movl	%eax, %edi	# D.17555,
	call	mode_for_size	#
	cmpl	$51, %eax	#, D.17556
	je	.L220	#,
	.loc 1 1131 0
	cmpq	$0, -112(%rbp)	#, bitpos
	jne	.L220	#,
.L226:
	.loc 1 1135 0
	movq	-208(%rbp), %rax	# op0, tmp449
	movzbl	2(%rax), %eax	# op0_12->mode, D.17553
	movzbl	%al, %eax	# D.17553, D.17555
	cmpl	-260(%rbp), %eax	# mode1, D.17555
	je	.L227	#,
	.loc 1 1137 0
	movq	-208(%rbp), %rax	# op0, tmp450
	movzwl	(%rax), %eax	# op0_12->code, D.17550
	cmpw	$63, %ax	#, D.17550
	jne	.L228	#,
	.loc 1 1139 0
	movq	-208(%rbp), %rax	# op0, tmp451
	movq	8(%rax), %rax	# op0_12->fld[0].rtx, D.17554
	movzbl	2(%rax), %eax	# _198->mode, D.17553
	movzbl	%al, %eax	# D.17553, D.17555
	cmpl	-260(%rbp), %eax	# mode1, D.17555
	je	.L229	#,
	.loc 1 1140 0
	movl	-260(%rbp), %eax	# mode1, mode1.157
	cltq
	movl	mode_class(,%rax,4), %eax	# mode_class, D.17558
	cmpl	$1, %eax	#, D.17558
	je	.L229	#,
	.loc 1 1141 0
	movl	-260(%rbp), %eax	# mode1, mode1.158
	cltq
	movl	mode_class(,%rax,4), %eax	# mode_class, D.17558
	cmpl	$3, %eax	#, D.17558
	jne	.L230	#,
.L229:
	.loc 1 1142 0
	movq	-208(%rbp), %rax	# op0, tmp454
	movq	8(%rax), %rax	# op0_12->fld[0].rtx, tmp455
	movq	%rax, -208(%rbp)	# tmp455, op0
	jmp	.L228	#
.L230:
	.loc 1 1147 0
	movl	$__FUNCTION__.12875, %edx	#,
	movl	$1147, %esi	#,
	movl	$.LC0, %edi	#,
	call	fancy_abort	#
.L228:
	.loc 1 1149 0
	movq	-208(%rbp), %rax	# op0, tmp456
	movzwl	(%rax), %eax	# op0_13->code, D.17550
	cmpw	$61, %ax	#, D.17550
	jne	.L231	#,
	.loc 1 1150 0
	movl	-264(%rbp), %edx	# byte_offset, tmp457
	movq	-208(%rbp), %rcx	# op0, tmp458
	movl	-260(%rbp), %eax	# mode1, tmp459
	movq	%rcx, %rsi	# tmp458,
	movl	%eax, %edi	# tmp459,
	call	gen_rtx_SUBREG	#
	movq	%rax, -208(%rbp)	# tmp460, op0
	jmp	.L227	#
.L231:
	.loc 1 1152 0
	movq	-216(%rbp), %rdx	# offset, offset.159
	movl	-260(%rbp), %esi	# mode1, tmp461
	movq	-208(%rbp), %rax	# op0, tmp462
	movl	$1, %r8d	#,
	movl	$1, %ecx	#,
	movq	%rax, %rdi	# tmp462,
	call	adjust_address_1	#
	movq	%rax, -208(%rbp)	# tmp463, op0
.L227:
	.loc 1 1154 0
	movl	-260(%rbp), %eax	# mode1, tmp464
	cmpl	-352(%rbp), %eax	# mode, tmp464
	je	.L232	#,
	.loc 1 1155 0
	movl	-348(%rbp), %edx	# unsignedp, tmp465
	movq	-208(%rbp), %rax	# op0, tmp466
	movq	%rax, %rsi	# tmp466,
	movl	16(%rbp), %edi	# tmode,
	call	convert_to_mode	#
	jmp	.L207	#
.L232:
	.loc 1 1156 0
	movq	-208(%rbp), %rax	# op0, D.17549
	jmp	.L207	#
.L220:
	.loc 1 1161 0
	movl	target_flags(%rip), %eax	# target_flags, target_flags.161
	andl	$33554432, %eax	#, D.17551
	testl	%eax, %eax	# D.17551
	je	.L233	#,
	.loc 1 1161 0 is_stmt 0 discriminator 1
	movl	$64, %eax	#, iftmp.160
	jmp	.L234	#
.L233:
	.loc 1 1161 0 discriminator 2
	movl	$32, %eax	#, iftmp.160
.L234:
	.loc 1 1161 0 discriminator 3
	cmpq	-336(%rbp), %rax	# bitsize, iftmp.160
	jae	.L235	#,
.LBB19:
	.loc 1 1168 0 is_stmt 1
	movl	target_flags(%rip), %eax	# target_flags, target_flags.163
	andl	$33554432, %eax	#, D.17551
	testl	%eax, %eax	# D.17551
	je	.L236	#,
	.loc 1 1168 0 is_stmt 0 discriminator 1
	movl	$63, %eax	#, iftmp.162
	jmp	.L237	#
.L236:
	.loc 1 1168 0 discriminator 2
	movl	$31, %eax	#, iftmp.162
.L237:
	.loc 1 1168 0 discriminator 3
	movq	-336(%rbp), %rdx	# bitsize, tmp467
	addq	%rdx, %rax	# tmp467, D.17552
	movl	target_flags(%rip), %edx	# target_flags, target_flags.165
	andl	$33554432, %edx	#, D.17551
	testl	%edx, %edx	# D.17551
	je	.L238	#,
	.loc 1 1168 0 discriminator 1
	movl	$64, %ebx	#, iftmp.164
	jmp	.L239	#
.L238:
	.loc 1 1168 0 discriminator 2
	movl	$32, %ebx	#, iftmp.164
.L239:
	.loc 1 1168 0 discriminator 3
	movl	$0, %edx	#, tmp469
	divq	%rbx	# iftmp.164
	movl	%eax, -256(%rbp)	# D.17552, nwords
	.loc 1 1171 0 is_stmt 1 discriminator 3
	cmpq	$0, -360(%rbp)	#, target
	je	.L240	#,
	.loc 1 1171 0 is_stmt 0 discriminator 1
	movq	-360(%rbp), %rax	# target, tmp470
	movzwl	(%rax), %eax	# target_89(D)->code, D.17550
	cmpw	$61, %ax	#, D.17550
	je	.L241	#,
.L240:
	.loc 1 1172 0 is_stmt 1
	movl	-352(%rbp), %eax	# mode, tmp471
	movl	%eax, %edi	# tmp471,
	call	gen_reg_rtx	#
	movq	%rax, -360(%rbp)	# tmp472, target
.L241:
	.loc 1 1175 0
	movq	-360(%rbp), %rax	# target, tmp473
	movq	%rax, %rdx	# tmp473,
	movl	$0, %esi	#,
	movl	$49, %edi	#,
	call	gen_rtx_fmt_e	#
	movq	%rax, %rdi	# D.17554,
	call	emit_insn	#
	.loc 1 1177 0
	movl	$0, -308(%rbp)	#, i
	jmp	.L242	#
.L251:
.LBB20:
	.loc 1 1182 0
	movl	-308(%rbp), %eax	# i, tmp474
	movl	%eax, -252(%rbp)	# tmp474, wordnum
	.loc 1 1190 0
	movl	target_flags(%rip), %eax	# target_flags, target_flags.167
	andl	$33554432, %eax	#, D.17551
	testl	%eax, %eax	# D.17551
	je	.L243	#,
	.loc 1 1190 0 is_stmt 0 discriminator 1
	movl	$64, %eax	#, iftmp.166
	jmp	.L244	#
.L243:
	.loc 1 1190 0 discriminator 2
	movl	$32, %eax	#, iftmp.166
.L244:
	.loc 1 1190 0 discriminator 3
	movl	-308(%rbp), %edx	# i, i.168
	imull	%edx, %eax	# i.168, D.17551
	.loc 1 1187 0 is_stmt 1 discriminator 3
	movl	%eax, -248(%rbp)	# D.17551, bit_offset
	.loc 1 1191 0 discriminator 3
	movl	-252(%rbp), %esi	# wordnum, tmp475
	movq	-360(%rbp), %rax	# target, tmp476
	movl	$0, %ecx	#,
	movl	$1, %edx	#,
	movq	%rax, %rdi	# tmp476,
	call	operand_subword	#
	movq	%rax, -104(%rbp)	# tmp477, target_part
	.loc 1 1193 0 discriminator 3
	movl	word_mode(%rip), %ecx	# word_mode, word_mode.169
	movl	-248(%rbp), %edx	# bit_offset, D.17552
	movq	-344(%rbp), %rax	# bitnum, tmp478
	leaq	(%rdx,%rax), %rdi	#, D.17552
	movl	target_flags(%rip), %eax	# target_flags, target_flags.171
	andl	$33554432, %eax	#, D.17551
	testl	%eax, %eax	# D.17551
	je	.L245	#,
	.loc 1 1193 0 is_stmt 0 discriminator 1
	movl	$64, %eax	#, iftmp.170
	jmp	.L246	#
.L245:
	.loc 1 1193 0 discriminator 2
	movl	$32, %eax	#, iftmp.170
.L246:
	.loc 1 1193 0 discriminator 3
	imull	-308(%rbp), %eax	# i, D.17555
	movl	%eax, %eax	# D.17555, D.17552
	movq	-336(%rbp), %rdx	# bitsize, tmp479
	subq	%rax, %rdx	# D.17552, D.17552
	movl	target_flags(%rip), %eax	# target_flags, target_flags.173
	andl	$33554432, %eax	#, D.17551
	testl	%eax, %eax	# D.17551
	je	.L247	#,
	.loc 1 1193 0 discriminator 1
	movl	$64, %eax	#, iftmp.172
	jmp	.L248	#
.L247:
	.loc 1 1193 0 discriminator 2
	movl	$32, %eax	#, iftmp.172
.L248:
	.loc 1 1193 0 discriminator 3
	cmpq	%rax, %rdx	# iftmp.172, D.17552
	cmovbe	%rdx, %rax	# D.17552,, D.17552
	movq	%rax, %rsi	# D.17552, D.17552
	.loc 1 1192 0 is_stmt 1 discriminator 3
	movl	-352(%rbp), %r9d	# mode, tmp480
	movq	-104(%rbp), %r8	# target_part, tmp481
	movq	-208(%rbp), %rax	# op0, tmp482
	movq	24(%rbp), %rdx	# total_size, tmp483
	movq	%rdx, 8(%rsp)	# tmp483,
	movl	%ecx, (%rsp)	# word_mode.169,
	movl	$1, %ecx	#,
	movq	%rdi, %rdx	# D.17552,
	movq	%rax, %rdi	# tmp482,
	call	extract_bit_field	#
	movq	%rax, -96(%rbp)	# tmp484, result_part
	.loc 1 1198 0 discriminator 3
	cmpq	$0, -104(%rbp)	#, target_part
	jne	.L249	#,
	.loc 1 1199 0
	movl	$__FUNCTION__.12875, %edx	#,
	movl	$1199, %esi	#,
	movl	$.LC0, %edi	#,
	call	fancy_abort	#
.L249:
	.loc 1 1201 0
	movq	-96(%rbp), %rax	# result_part, tmp485
	cmpq	-104(%rbp), %rax	# target_part, tmp485
	je	.L250	#,
	.loc 1 1202 0
	movq	-96(%rbp), %rdx	# result_part, tmp486
	movq	-104(%rbp), %rax	# target_part, tmp487
	movq	%rdx, %rsi	# tmp486,
	movq	%rax, %rdi	# tmp487,
	call	emit_move_insn	#
.L250:
.LBE20:
	.loc 1 1177 0
	addl	$1, -308(%rbp)	#, i
.L242:
	.loc 1 1177 0 is_stmt 0 discriminator 1
	movl	-308(%rbp), %eax	# i, tmp488
	cmpl	-256(%rbp), %eax	# nwords, tmp488
	jb	.L251	#,
	.loc 1 1205 0 is_stmt 1
	cmpl	$0, -348(%rbp)	#, unsignedp
	je	.L252	#,
	.loc 1 1209 0
	movq	-360(%rbp), %rax	# target, tmp489
	movzbl	2(%rax), %eax	# target_1->mode, D.17553
	movzbl	%al, %eax	# D.17553, D.17551
	cltq
	movzbl	mode_size(%rax), %eax	# mode_size, D.17553
	movzbl	%al, %edx	# D.17553, D.17555
	movl	target_flags(%rip), %eax	# target_flags, target_flags.175
	andl	$33554432, %eax	#, D.17551
	testl	%eax, %eax	# D.17551
	je	.L253	#,
	.loc 1 1209 0 is_stmt 0 discriminator 1
	movl	$8, %eax	#, iftmp.174
	jmp	.L254	#
.L253:
	.loc 1 1209 0 discriminator 2
	movl	$4, %eax	#, iftmp.174
.L254:
	.loc 1 1209 0 discriminator 3
	imull	-256(%rbp), %eax	# nwords, D.17555
	cmpl	%eax, %edx	# D.17555, D.17555
	jbe	.L255	#,
.LBB21:
	.loc 1 1213 0 is_stmt 1
	movq	-360(%rbp), %rax	# target, tmp491
	movzbl	2(%rax), %eax	# target_1->mode, D.17553
	movzbl	%al, %eax	# D.17553, D.17551
	cltq
	movzbl	mode_size(%rax), %eax	# mode_size, D.17553
	movzbl	%al, %eax	# D.17553, D.17551
	movl	target_flags(%rip), %edx	# target_flags, target_flags.177
	andl	$33554432, %edx	#, D.17551
	testl	%edx, %edx	# D.17551
	je	.L256	#,
	.loc 1 1213 0 is_stmt 0 discriminator 1
	movl	$8, %ebx	#, iftmp.176
	jmp	.L257	#
.L256:
	.loc 1 1213 0 discriminator 2
	movl	$4, %ebx	#, iftmp.176
.L257:
	.loc 1 1213 0 discriminator 3
	cltd
	idivl	%ebx	# iftmp.176
	movl	%eax, -244(%rbp)	# D.17551, total_words
	.loc 1 1214 0 is_stmt 1 discriminator 3
	movl	-256(%rbp), %eax	# nwords, tmp495
	movl	%eax, -304(%rbp)	# tmp495, i
	jmp	.L258	#
.L259:
	.loc 1 1216 0 discriminator 2
	movq	const_int_rtx+512(%rip), %rbx	# const_int_rtx, D.17554
	movl	-304(%rbp), %esi	# i, tmp496
	movq	-360(%rbp), %rax	# target, tmp497
	movl	$0, %ecx	#,
	movl	$1, %edx	#,
	movq	%rax, %rdi	# tmp497,
	call	operand_subword	#
	movq	%rbx, %rsi	# D.17554,
	movq	%rax, %rdi	# D.17554,
	call	emit_move_insn	#
	.loc 1 1214 0 discriminator 2
	addl	$1, -304(%rbp)	#, i
.L258:
	.loc 1 1214 0 is_stmt 0 discriminator 1
	movl	-304(%rbp), %eax	# i, tmp498
	cmpl	-244(%rbp), %eax	# total_words, tmp498
	jb	.L259	#,
.L255:
.LBE21:
	.loc 1 1221 0 is_stmt 1
	movq	-360(%rbp), %rax	# target, D.17549
	jmp	.L207	#
.L252:
	.loc 1 1226 0
	movl	-352(%rbp), %eax	# mode, mode.178
	cltq
	movzwl	mode_bitsize(%rax,%rax), %eax	# mode_bitsize, D.17550
	.loc 1 1225 0
	movzwl	%ax, %eax	# D.17550, D.17552
	subq	-336(%rbp), %rax	# bitsize, D.17552
	movl	$0, %esi	#,
	movq	%rax, %rdi	# D.17552,
	call	build_int_2_wide	#
	movq	%rax, %rcx	#, D.17559
	movq	-360(%rbp), %rdx	# target, tmp500
	movl	-352(%rbp), %eax	# mode, tmp501
	movl	$0, %r9d	#,
	movl	$0, %r8d	#,
	movl	%eax, %esi	# tmp501,
	movl	$82, %edi	#,
	call	expand_shift	#
	movq	%rax, -360(%rbp)	# tmp502, target
	.loc 1 1229 0
	movl	-352(%rbp), %eax	# mode, mode.179
	cltq
	movzwl	mode_bitsize(%rax,%rax), %eax	# mode_bitsize, D.17550
	.loc 1 1228 0
	movzwl	%ax, %eax	# D.17550, D.17552
	subq	-336(%rbp), %rax	# bitsize, D.17552
	movl	$0, %esi	#,
	movq	%rax, %rdi	# D.17552,
	call	build_int_2_wide	#
	movq	%rax, %rcx	#, D.17559
	movq	-360(%rbp), %rdx	# target, tmp504
	movl	-352(%rbp), %eax	# mode, tmp505
	movl	$0, %r9d	#,
	movl	$0, %r8d	#,
	movl	%eax, %esi	# tmp505,
	movl	$83, %edi	#,
	call	expand_shift	#
	jmp	.L207	#
.L235:
.LBE19:
	.loc 1 1240 0
	movl	16(%rbp), %edi	# tmode,
	call	int_mode_for_mode	#
	movl	%eax, -312(%rbp)	# tmp506, int_mode
	.loc 1 1241 0
	cmpl	$51, -312(%rbp)	#, int_mode
	jne	.L260	#,
	.loc 1 1242 0
	movl	-352(%rbp), %eax	# mode, tmp507
	movl	%eax, %edi	# tmp507,
	call	int_mode_for_mode	#
	movl	%eax, -312(%rbp)	# tmp508, int_mode
.L260:
	.loc 1 1243 0
	cmpl	$51, -312(%rbp)	#, int_mode
	jne	.L261	#,
	.loc 1 1244 0
	movl	$__FUNCTION__.12875, %edx	#,
	movl	$1244, %esi	#,
	movl	$.LC0, %edi	#,
	call	fancy_abort	#
.L261:
	.loc 1 1250 0
	movq	-208(%rbp), %rax	# op0, tmp509
	movzwl	(%rax), %eax	# op0_12->code, D.17550
	cmpw	$66, %ax	#, D.17550
	je	.L262	#,
	.loc 1 1252 0
	cmpq	$0, -216(%rbp)	#, offset
	jne	.L263	#,
	.loc 1 1253 0
	movq	-208(%rbp), %rax	# op0, tmp510
	movzbl	2(%rax), %eax	# op0_12->mode, D.17553
	movzbl	%al, %eax	# D.17553, D.17551
	cltq
	movzbl	mode_size(%rax), %eax	# mode_size, D.17553
	movzbl	%al, %edx	# D.17553, D.17551
	movl	target_flags(%rip), %eax	# target_flags, target_flags.181
	andl	$33554432, %eax	#, D.17551
	testl	%eax, %eax	# D.17551
	je	.L264	#,
	.loc 1 1253 0 is_stmt 0 discriminator 1
	movl	$8, %eax	#, iftmp.180
	jmp	.L265	#
.L264:
	.loc 1 1253 0 discriminator 2
	movl	$4, %eax	#, iftmp.180
.L265:
	.loc 1 1253 0 discriminator 3
	cmpl	%eax, %edx	# iftmp.180, D.17551
	jle	.L266	#,
.L263:
	.loc 1 1255 0 is_stmt 1
	movq	-208(%rbp), %rax	# op0, tmp512
	movzwl	(%rax), %eax	# op0_12->code, D.17550
	cmpw	$61, %ax	#, D.17550
	je	.L267	#,
	.loc 1 1256 0
	movq	-208(%rbp), %rax	# op0, tmp513
	movq	%rax, %rdi	# tmp513,
	call	copy_to_reg	#
	movq	%rax, -208(%rbp)	# tmp514, op0
.L267:
	.loc 1 1258 0
	movl	target_flags(%rip), %eax	# target_flags, target_flags.183
	andl	$33554432, %eax	#, D.17551
	.loc 1 1257 0
	testl	%eax, %eax	# D.17551
	je	.L268	#,
	.loc 1 1257 0 is_stmt 0 discriminator 1
	movl	$8, %eax	#, iftmp.182
	jmp	.L269	#
.L268:
	.loc 1 1257 0 discriminator 2
	movl	$4, %eax	#, iftmp.182
.L269:
	.loc 1 1257 0 discriminator 3
	movq	-216(%rbp), %rdx	# offset, tmp515
	imull	%edx, %eax	# D.17557, D.17557
	movl	%eax, %ebx	# D.17557, D.17551
	movl	target_flags(%rip), %eax	# target_flags, target_flags.185
	andl	$33554432, %eax	#, D.17551
	testl	%eax, %eax	# D.17551
	je	.L270	#,
	.loc 1 1257 0 discriminator 4
	movl	$64, %eax	#, iftmp.184
	jmp	.L271	#
.L270:
	.loc 1 1257 0 discriminator 5
	movl	$32, %eax	#, iftmp.184
.L271:
	.loc 1 1257 0 discriminator 6
	movl	$0, %edx	#,
	movl	$1, %esi	#,
	movl	%eax, %edi	# iftmp.184,
	call	mode_for_size	#
	movq	-208(%rbp), %rcx	# op0, tmp516
	movl	%ebx, %edx	# D.17551,
	movq	%rcx, %rsi	# tmp516,
	movl	%eax, %edi	# D.17556,
	call	gen_rtx_SUBREG	#
	movq	%rax, -208(%rbp)	# tmp517, op0
.L266:
	.loc 1 1260 0 is_stmt 1
	movq	$0, -216(%rbp)	#, offset
	jmp	.L272	#
.L262:
	.loc 1 1263 0
	movq	-328(%rbp), %rax	# str_rtx, tmp518
	movl	$1, %esi	#,
	movq	%rax, %rdi	# tmp518,
	call	protect_from_queue	#
	movq	%rax, -208(%rbp)	# tmp519, op0
.L272:
	.loc 1 1267 0
	cmpl	$0, -348(%rbp)	#, unsignedp
	je	.L273	#,
	.loc 1 1270 0
	movl	-280(%rbp), %eax	# extzv_mode, extzv_mode.186
	cltq
	movzwl	mode_bitsize(%rax,%rax), %eax	# mode_bitsize, D.17550
	movzwl	%ax, %eax	# D.17550, D.17552
	.loc 1 1269 0
	cmpq	-336(%rbp), %rax	# bitsize, D.17552
	jb	.L274	#,
	.loc 1 1271 0
	movq	-208(%rbp), %rax	# op0, tmp521
	movzwl	(%rax), %eax	# op0_17->code, D.17550
	cmpw	$61, %ax	#, D.17550
	je	.L275	#,
	.loc 1 1271 0 is_stmt 0 discriminator 1
	movq	-208(%rbp), %rax	# op0, tmp522
	movzwl	(%rax), %eax	# op0_17->code, D.17550
	cmpw	$63, %ax	#, D.17550
	jne	.L276	#,
.L275:
	.loc 1 1272 0 is_stmt 1 discriminator 2
	movq	-112(%rbp), %rax	# bitpos, tmp523
	movq	-336(%rbp), %rdx	# bitsize, tmp524
	addq	%rax, %rdx	# tmp523, D.17552
	movl	-280(%rbp), %eax	# extzv_mode, extzv_mode.187
	cltq
	movzwl	mode_bitsize(%rax,%rax), %eax	# mode_bitsize, D.17550
	movzwl	%ax, %eax	# D.17550, D.17552
	.loc 1 1271 0 discriminator 2
	cmpq	%rax, %rdx	# D.17552, D.17552
	ja	.L274	#,
.L276:
.LBB22:
	.loc 1 1274 0
	movq	-112(%rbp), %rax	# bitpos, tmp526
	movq	%rax, -184(%rbp)	# tmp526, xbitpos
	movq	-216(%rbp), %rax	# offset, tmp527
	movq	%rax, -88(%rbp)	# tmp527, xoffset
	.loc 1 1276 0
	call	get_last_insn	#
	movq	%rax, -80(%rbp)	# tmp528, last
	.loc 1 1277 0
	movq	-208(%rbp), %rax	# op0, tmp529
	movq	%rax, -176(%rbp)	# tmp529, xop0
	.loc 1 1278 0
	movq	-360(%rbp), %rax	# target, tmp530
	movq	%rax, -168(%rbp)	# tmp530, xtarget
	.loc 1 1279 0
	movq	-200(%rbp), %rax	# spec_target, tmp531
	movq	%rax, -160(%rbp)	# tmp531, xspec_target
	.loc 1 1280 0
	movq	-192(%rbp), %rax	# spec_target_subreg, tmp532
	movq	%rax, -152(%rbp)	# tmp532, xspec_target_subreg
	.loc 1 1282 0
	movl	$0, %esi	#,
	movl	$2, %edi	#,
	call	mode_for_extraction	#
	movl	%eax, -240(%rbp)	# tmp533, maxmode
	.loc 1 1284 0
	movq	-176(%rbp), %rax	# xop0, tmp534
	movzwl	(%rax), %eax	# xop0_334->code, D.17550
	cmpw	$66, %ax	#, D.17550
	jne	.L277	#,
.LBB23:
	.loc 1 1286 0
	movl	volatile_ok(%rip), %eax	# volatile_ok, tmp535
	movl	%eax, -236(%rbp)	# tmp535, save_volatile_ok
	.loc 1 1287 0
	movl	$1, volatile_ok(%rip)	#, volatile_ok
	.loc 1 1290 0
	movq	insn_data+44544(%rip), %rax	# insn_data[1113].operand, D.17560
	addq	$24, %rax	#, D.17560
	.loc 1 1291 0
	movq	(%rax), %rax	# _342->predicate, D.17561
	movq	-176(%rbp), %rdx	# xop0, tmp536
	movzbl	2(%rdx), %edx	# xop0_334->mode, D.17553
	movzbl	%dl, %ecx	# D.17553, D.17556
	movq	-176(%rbp), %rdx	# xop0, tmp537
	movl	%ecx, %esi	# D.17556,
	movq	%rdx, %rdi	# tmp537,
	call	*%rax	# D.17561
	.loc 1 1290 0
	testl	%eax, %eax	# D.17551
	jne	.L278	#,
.LBB24:
	.loc 1 1302 0
	movq	-176(%rbp), %rax	# xop0, tmp538
	movzbl	2(%rax), %eax	# xop0_334->mode, D.17553
	cmpb	$51, %al	#, D.17553
	je	.L279	#,
	.loc 1 1303 0
	movq	-208(%rbp), %rax	# op0, tmp539
	movzbl	2(%rax), %eax	# op0_17->mode, D.17553
	movzbl	%al, %eax	# D.17553, D.17551
	cltq
	movzbl	mode_size(%rax), %edx	# mode_size, D.17553
	.loc 1 1304 0
	movl	-240(%rbp), %eax	# maxmode, maxmode.188
	cltq
	movzbl	mode_size(%rax), %eax	# mode_size, D.17553
	.loc 1 1303 0
	cmpb	%al, %dl	# D.17553, D.17553
	jbe	.L280	#,
.L279:
	.loc 1 1307 0
	movq	-176(%rbp), %rax	# xop0, tmp542
	movzbl	3(%rax), %eax	# *xop0_334, tmp545
	shrb	$3, %al	#, D.17562
	andl	$1, %eax	#, D.17562
	.loc 1 1305 0
	movzbl	%al, %ecx	# D.17562, D.17551
	.loc 1 1306 0
	movq	-176(%rbp), %rax	# xop0, tmp546
	movq	16(%rax), %rax	# xop0_334->fld[1].rtmem, D.17563
	.loc 1 1305 0
	testq	%rax, %rax	# D.17563
	je	.L281	#,
	.loc 1 1306 0
	movq	-176(%rbp), %rax	# xop0, tmp547
	movq	16(%rax), %rax	# xop0_334->fld[1].rtmem, D.17563
	.loc 1 1305 0
	movl	32(%rax), %eax	# _358->align, iftmp.189
	jmp	.L282	#
.L281:
	.loc 1 1305 0 is_stmt 0 discriminator 1
	movl	$8, %eax	#, iftmp.189
.L282:
	.loc 1 1305 0 discriminator 2
	movq	-344(%rbp), %rdx	# bitnum, tmp548
	movl	%edx, %esi	# tmp548, D.17551
	movq	-336(%rbp), %rdx	# bitsize, tmp549
	movl	%edx, %edi	# tmp549, D.17551
	movl	-240(%rbp), %edx	# maxmode, tmp550
	movl	%ecx, %r8d	# D.17551,
	movl	%edx, %ecx	# tmp550,
	movl	%eax, %edx	# iftmp.189,
	call	get_best_mode	#
	movl	%eax, -300(%rbp)	# tmp551, bestmode
	jmp	.L283	#
.L280:
	.loc 1 1309 0 is_stmt 1
	movq	-176(%rbp), %rax	# xop0, tmp552
	movzbl	2(%rax), %eax	# xop0_334->mode, D.17553
	movzbl	%al, %eax	# D.17553, tmp553
	movl	%eax, -300(%rbp)	# tmp553, bestmode
.L283:
	.loc 1 1311 0
	cmpl	$0, -300(%rbp)	#, bestmode
	jne	.L284	#,
	.loc 1 1314 0
	jmp	.L274	#
.L284:
	.loc 1 1318 0
	movl	-300(%rbp), %eax	# bestmode, bestmode.190
	cltq
	movzwl	mode_bitsize(%rax,%rax), %eax	# mode_bitsize, D.17550
	movzwl	%ax, %eax	# D.17550, tmp555
	movl	%eax, -288(%rbp)	# tmp555, unit
	.loc 1 1319 0
	movl	-288(%rbp), %ebx	# unit, D.17552
	movq	-344(%rbp), %rax	# bitnum, tmp558
	movl	$0, %edx	#, tmp557
	divq	%rbx	# D.17552
	movq	%rax, %rdx	# tmp556, D.17552
	movl	-300(%rbp), %eax	# bestmode, bestmode.191
	cltq
	movzbl	mode_size(%rax), %eax	# mode_size, D.17553
	movzbl	%al, %eax	# D.17553, D.17552
	imulq	%rdx, %rax	# D.17552, tmp560
	movq	%rax, -88(%rbp)	# tmp560, xoffset
	.loc 1 1320 0
	movl	-288(%rbp), %ecx	# unit, D.17552
	movq	-344(%rbp), %rax	# bitnum, tmp562
	movl	$0, %edx	#, tmp563
	divq	%rcx	# D.17552
	movq	%rdx, -184(%rbp)	# tmp563, xbitpos
	.loc 1 1321 0
	movq	-88(%rbp), %rdx	# xoffset, xoffset.192
	movl	-300(%rbp), %esi	# bestmode, tmp565
	movq	-176(%rbp), %rax	# xop0, tmp566
	movl	$1, %r8d	#,
	movl	$1, %ecx	#,
	movq	%rax, %rdi	# tmp566,
	call	adjust_address_1	#
	movq	%rax, -176(%rbp)	# tmp567, xop0
	.loc 1 1324 0
	movq	-176(%rbp), %rdx	# xop0, tmp568
	movl	-300(%rbp), %eax	# bestmode, tmp569
	movq	%rdx, %rsi	# tmp568,
	movl	%eax, %edi	# tmp569,
	call	force_reg	#
	movq	%rax, -176(%rbp)	# tmp570, xop0
.LBE24:
	jmp	.L285	#
.L278:
	.loc 1 1330 0
	movq	-88(%rbp), %rdx	# xoffset, xoffset.193
	movl	byte_mode(%rip), %esi	# byte_mode, byte_mode.194
	movq	-176(%rbp), %rax	# xop0, tmp571
	movl	$1, %r8d	#,
	movl	$1, %ecx	#,
	movq	%rax, %rdi	# tmp571,
	call	adjust_address_1	#
	movq	%rax, -176(%rbp)	# tmp572, xop0
.L285:
	.loc 1 1332 0
	movl	-236(%rbp), %eax	# save_volatile_ok, tmp573
	movl	%eax, volatile_ok(%rip)	# tmp573, volatile_ok
.L277:
.LBE23:
	.loc 1 1337 0
	movq	-176(%rbp), %rax	# xop0, tmp574
	movzwl	(%rax), %eax	# xop0_32->code, D.17550
	cmpw	$63, %ax	#, D.17550
	jne	.L286	#,
	.loc 1 1337 0 is_stmt 0 discriminator 1
	movq	-176(%rbp), %rax	# xop0, tmp575
	movzbl	2(%rax), %eax	# xop0_32->mode, D.17553
	movzbl	%al, %eax	# D.17553, D.17555
	cmpl	-240(%rbp), %eax	# maxmode, D.17555
	je	.L286	#,
	.loc 1 1338 0 is_stmt 1
	jmp	.L274	#
.L286:
	.loc 1 1339 0
	movq	-176(%rbp), %rax	# xop0, tmp576
	movzwl	(%rax), %eax	# xop0_32->code, D.17550
	cmpw	$61, %ax	#, D.17550
	jne	.L324	#,
	.loc 1 1339 0 is_stmt 0 discriminator 1
	movq	-176(%rbp), %rax	# xop0, tmp577
	movzbl	2(%rax), %eax	# xop0_32->mode, D.17553
	movzbl	%al, %eax	# D.17553, D.17555
	cmpl	-240(%rbp), %eax	# maxmode, D.17555
	je	.L324	#,
	.loc 1 1340 0 is_stmt 1
	movq	-176(%rbp), %rcx	# xop0, tmp578
	movl	-240(%rbp), %eax	# maxmode, tmp579
	movl	$0, %edx	#,
	movq	%rcx, %rsi	# tmp578,
	movl	%eax, %edi	# tmp579,
	call	gen_rtx_SUBREG	#
	movq	%rax, -176(%rbp)	# tmp580, xop0
.L324:
	.loc 1 1351 0
	movl	-240(%rbp), %eax	# maxmode, maxmode.196
	cltq
	movzwl	mode_bitsize(%rax,%rax), %eax	# mode_bitsize, D.17550
	movzwl	%ax, %eax	# D.17550, tmp582
	movl	%eax, -288(%rbp)	# tmp582, unit
	.loc 1 1353 0
	cmpq	$0, -168(%rbp)	#, xtarget
	je	.L288	#,
	.loc 1 1354 0
	movl	flag_force_mem(%rip), %eax	# flag_force_mem, flag_force_mem.197
	testl	%eax, %eax	# flag_force_mem.197
	je	.L289	#,
	.loc 1 1354 0 is_stmt 0 discriminator 1
	movq	-168(%rbp), %rax	# xtarget, tmp583
	movzwl	(%rax), %eax	# xtarget_335->code, D.17550
	cmpw	$66, %ax	#, D.17550
	jne	.L289	#,
.L288:
	.loc 1 1355 0 is_stmt 1
	movl	16(%rbp), %edi	# tmode,
	call	gen_reg_rtx	#
	movq	%rax, -160(%rbp)	# tmp584, xspec_target
	movq	-160(%rbp), %rax	# xspec_target, tmp585
	movq	%rax, -168(%rbp)	# tmp585, xtarget
.L289:
	.loc 1 1357 0
	movq	-168(%rbp), %rax	# xtarget, tmp586
	movzbl	2(%rax), %eax	# xtarget_34->mode, D.17553
	movzbl	%al, %eax	# D.17553, D.17555
	cmpl	-240(%rbp), %eax	# maxmode, D.17555
	je	.L290	#,
	.loc 1 1359 0
	movq	-168(%rbp), %rax	# xtarget, tmp587
	movzwl	(%rax), %eax	# xtarget_34->code, D.17550
	cmpw	$61, %ax	#, D.17550
	jne	.L291	#,
.LBB25:
	.loc 1 1361 0
	movl	-240(%rbp), %eax	# maxmode, maxmode.198
	cltq
	movzbl	mode_size(%rax), %edx	# mode_size, D.17553
	.loc 1 1362 0
	movq	-168(%rbp), %rax	# xtarget, tmp589
	movzbl	2(%rax), %eax	# xtarget_34->mode, D.17553
	movzbl	%al, %eax	# D.17553, D.17551
	cltq
	movzbl	mode_size(%rax), %eax	# mode_size, D.17553
	cmpb	%al, %dl	# D.17553, D.17553
	seta	%al	#, D.17564
	.loc 1 1361 0
	movzbl	%al, %eax	# D.17564, tmp591
	movl	%eax, -232(%rbp)	# tmp591, wider
	.loc 1 1363 0
	movq	-168(%rbp), %rdx	# xtarget, tmp592
	movl	-240(%rbp), %eax	# maxmode, tmp593
	movq	%rdx, %rsi	# tmp592,
	movl	%eax, %edi	# tmp593,
	call	gen_lowpart	#
	movq	%rax, -168(%rbp)	# tmp594, xtarget
	.loc 1 1364 0
	cmpl	$0, -232(%rbp)	#, wider
	je	.L292	#,
	.loc 1 1365 0
	movq	-168(%rbp), %rax	# xtarget, tmp595
	movq	%rax, -152(%rbp)	# tmp595, xspec_target_subreg
.LBE25:
	jmp	.L290	#
.L292:
	jmp	.L290	#
.L291:
	.loc 1 1368 0
	movl	-240(%rbp), %eax	# maxmode, tmp596
	movl	%eax, %edi	# tmp596,
	call	gen_reg_rtx	#
	movq	%rax, -168(%rbp)	# tmp597, xtarget
.L290:
	.loc 1 1373 0
	movq	insn_data+44544(%rip), %rax	# insn_data[1113].operand, D.17560
	.loc 1 1374 0
	movq	(%rax), %rax	# _408->predicate, D.17561
	movl	-240(%rbp), %ecx	# maxmode, tmp598
	movq	-168(%rbp), %rdx	# xtarget, tmp599
	movl	%ecx, %esi	# tmp598,
	movq	%rdx, %rdi	# tmp599,
	call	*%rax	# D.17561
	.loc 1 1373 0
	testl	%eax, %eax	# D.17551
	jne	.L293	#,
	.loc 1 1375 0
	movl	-240(%rbp), %eax	# maxmode, tmp600
	movl	%eax, %edi	# tmp600,
	call	gen_reg_rtx	#
	movq	%rax, -168(%rbp)	# tmp601, xtarget
.L293:
	.loc 1 1377 0
	movq	-336(%rbp), %rax	# bitsize, bitsize.199
	movq	%rax, %rsi	# bitsize.199,
	movl	$0, %edi	#,
	call	gen_rtx_CONST_INT	#
	movq	%rax, -72(%rbp)	# tmp602, bitsize_rtx
	.loc 1 1378 0
	movq	-184(%rbp), %rax	# xbitpos, xbitpos.200
	movq	%rax, %rsi	# xbitpos.200,
	movl	$0, %edi	#,
	call	gen_rtx_CONST_INT	#
	movq	%rax, -64(%rbp)	# tmp603, bitpos_rtx
	.loc 1 1380 0
	movq	-168(%rbp), %rax	# xtarget, tmp604
	movl	$1, %esi	#,
	movq	%rax, %rdi	# tmp604,
	call	protect_from_queue	#
	movq	-64(%rbp), %rcx	# bitpos_rtx, tmp605
	movq	-72(%rbp), %rdx	# bitsize_rtx, tmp606
	movq	-176(%rbp), %rsi	# xop0, tmp607
	movq	%rax, %rdi	# D.17554,
	call	gen_extzv	#
	movq	%rax, -56(%rbp)	# tmp608, pat
	.loc 1 1382 0
	cmpq	$0, -56(%rbp)	#, pat
	je	.L294	#,
	.loc 1 1384 0
	movq	-56(%rbp), %rax	# pat, tmp609
	movq	%rax, %rdi	# tmp609,
	call	emit_insn	#
	.loc 1 1385 0
	movq	-168(%rbp), %rax	# xtarget, tmp610
	movq	%rax, -360(%rbp)	# tmp610, target
	.loc 1 1386 0
	movq	-160(%rbp), %rax	# xspec_target, tmp611
	movq	%rax, -200(%rbp)	# tmp611, spec_target
	.loc 1 1387 0
	movq	-152(%rbp), %rax	# xspec_target_subreg, tmp612
	movq	%rax, -192(%rbp)	# tmp612, spec_target_subreg
.LBE22:
	.loc 1 1273 0
	jmp	.L296	#
.L294:
.LBB26:
	.loc 1 1391 0
	movq	-80(%rbp), %rax	# last, tmp613
	movq	%rax, %rdi	# tmp613,
	call	delete_insns_since	#
	.loc 1 1392 0
	movq	-360(%rbp), %r8	# target, tmp614
	movq	-112(%rbp), %rdi	# bitpos, tmp615
	movq	-336(%rbp), %rcx	# bitsize, tmp616
	movq	-216(%rbp), %rdx	# offset, tmp617
	movq	-208(%rbp), %rsi	# op0, tmp618
	movl	-312(%rbp), %eax	# int_mode, tmp619
	movl	$1, (%rsp)	#,
	movq	%r8, %r9	# tmp614,
	movq	%rdi, %r8	# tmp615,
	movl	%eax, %edi	# tmp619,
	call	extract_fixed_bit_field	#
	movq	%rax, -360(%rbp)	# tmp620, target
.LBE26:
	.loc 1 1273 0
	jmp	.L296	#
.L274:
	.loc 1 1398 0
	movq	-360(%rbp), %r8	# target, tmp621
	movq	-112(%rbp), %rdi	# bitpos, tmp622
	movq	-336(%rbp), %rcx	# bitsize, tmp623
	movq	-216(%rbp), %rdx	# offset, tmp624
	movq	-208(%rbp), %rsi	# op0, tmp625
	movl	-312(%rbp), %eax	# int_mode, tmp626
	movl	$1, (%rsp)	#,
	movq	%r8, %r9	# tmp621,
	movq	%rdi, %r8	# tmp622,
	movl	%eax, %edi	# tmp626,
	call	extract_fixed_bit_field	#
	movq	%rax, -360(%rbp)	# tmp627, target
	jmp	.L297	#
.L296:
	jmp	.L297	#
.L273:
	.loc 1 1404 0
	movl	-284(%rbp), %eax	# extv_mode, extv_mode.201
	cltq
	movzwl	mode_bitsize(%rax,%rax), %eax	# mode_bitsize, D.17550
	movzwl	%ax, %eax	# D.17550, D.17552
	.loc 1 1403 0
	cmpq	-336(%rbp), %rax	# bitsize, D.17552
	jb	.L298	#,
	.loc 1 1405 0
	movq	-208(%rbp), %rax	# op0, tmp629
	movzwl	(%rax), %eax	# op0_17->code, D.17550
	cmpw	$61, %ax	#, D.17550
	je	.L299	#,
	.loc 1 1405 0 is_stmt 0 discriminator 1
	movq	-208(%rbp), %rax	# op0, tmp630
	movzwl	(%rax), %eax	# op0_17->code, D.17550
	cmpw	$63, %ax	#, D.17550
	jne	.L300	#,
.L299:
	.loc 1 1406 0 is_stmt 1 discriminator 2
	movq	-112(%rbp), %rax	# bitpos, tmp631
	movq	-336(%rbp), %rdx	# bitsize, tmp632
	addq	%rax, %rdx	# tmp631, D.17552
	movl	-284(%rbp), %eax	# extv_mode, extv_mode.202
	cltq
	movzwl	mode_bitsize(%rax,%rax), %eax	# mode_bitsize, D.17550
	movzwl	%ax, %eax	# D.17550, D.17552
	.loc 1 1405 0 discriminator 2
	cmpq	%rax, %rdx	# D.17552, D.17552
	ja	.L298	#,
.L300:
.LBB27:
	.loc 1 1408 0
	movq	-112(%rbp), %rax	# bitpos, tmp634
	movl	%eax, -296(%rbp)	# tmp634, xbitpos
	movq	-216(%rbp), %rax	# offset, tmp635
	movl	%eax, -228(%rbp)	# tmp635, xoffset
	.loc 1 1410 0
	call	get_last_insn	#
	movq	%rax, -48(%rbp)	# tmp636, last
	.loc 1 1411 0
	movq	-208(%rbp), %rax	# op0, tmp637
	movq	%rax, -144(%rbp)	# tmp637, xop0
	movq	-360(%rbp), %rax	# target, tmp638
	movq	%rax, -136(%rbp)	# tmp638, xtarget
	.loc 1 1412 0
	movq	-200(%rbp), %rax	# spec_target, tmp639
	movq	%rax, -128(%rbp)	# tmp639, xspec_target
	.loc 1 1413 0
	movq	-192(%rbp), %rax	# spec_target_subreg, tmp640
	movq	%rax, -120(%rbp)	# tmp640, xspec_target_subreg
	.loc 1 1415 0
	movl	$0, %esi	#,
	movl	$1, %edi	#,
	call	mode_for_extraction	#
	movl	%eax, -224(%rbp)	# tmp641, maxmode
	.loc 1 1417 0
	movq	-144(%rbp), %rax	# xop0, tmp642
	movzwl	(%rax), %eax	# xop0_435->code, D.17550
	cmpw	$66, %ax	#, D.17550
	jne	.L301	#,
	.loc 1 1420 0
	movq	insn_data+44504(%rip), %rax	# insn_data[1112].operand, D.17560
	addq	$24, %rax	#, D.17560
	.loc 1 1421 0
	movq	(%rax), %rax	# _442->predicate, D.17561
	movq	-144(%rbp), %rdx	# xop0, tmp643
	movzbl	2(%rdx), %edx	# xop0_435->mode, D.17553
	movzbl	%dl, %ecx	# D.17553, D.17556
	movq	-144(%rbp), %rdx	# xop0, tmp644
	movl	%ecx, %esi	# D.17556,
	movq	%rdx, %rdi	# tmp644,
	call	*%rax	# D.17561
	.loc 1 1420 0
	testl	%eax, %eax	# D.17551
	jne	.L302	#,
.LBB28:
	.loc 1 1432 0
	movq	-144(%rbp), %rax	# xop0, tmp645
	movzbl	2(%rax), %eax	# xop0_435->mode, D.17553
	cmpb	$51, %al	#, D.17553
	je	.L303	#,
	.loc 1 1433 0
	movq	-208(%rbp), %rax	# op0, tmp646
	movzbl	2(%rax), %eax	# op0_17->mode, D.17553
	movzbl	%al, %eax	# D.17553, D.17551
	cltq
	movzbl	mode_size(%rax), %edx	# mode_size, D.17553
	.loc 1 1434 0
	movl	-224(%rbp), %eax	# maxmode, maxmode.203
	cltq
	movzbl	mode_size(%rax), %eax	# mode_size, D.17553
	.loc 1 1433 0
	cmpb	%al, %dl	# D.17553, D.17553
	jbe	.L304	#,
.L303:
	.loc 1 1437 0
	movq	-144(%rbp), %rax	# xop0, tmp649
	movzbl	3(%rax), %eax	# *xop0_435, tmp652
	shrb	$3, %al	#, D.17562
	andl	$1, %eax	#, D.17562
	.loc 1 1435 0
	movzbl	%al, %ecx	# D.17562, D.17551
	.loc 1 1436 0
	movq	-144(%rbp), %rax	# xop0, tmp653
	movq	16(%rax), %rax	# xop0_435->fld[1].rtmem, D.17563
	.loc 1 1435 0
	testq	%rax, %rax	# D.17563
	je	.L305	#,
	.loc 1 1436 0
	movq	-144(%rbp), %rax	# xop0, tmp654
	movq	16(%rax), %rax	# xop0_435->fld[1].rtmem, D.17563
	.loc 1 1435 0
	movl	32(%rax), %eax	# _458->align, iftmp.204
	jmp	.L306	#
.L305:
	.loc 1 1435 0 is_stmt 0 discriminator 1
	movl	$8, %eax	#, iftmp.204
.L306:
	.loc 1 1435 0 discriminator 2
	movq	-344(%rbp), %rdx	# bitnum, tmp655
	movl	%edx, %esi	# tmp655, D.17551
	movq	-336(%rbp), %rdx	# bitsize, tmp656
	movl	%edx, %edi	# tmp656, D.17551
	movl	-224(%rbp), %edx	# maxmode, tmp657
	movl	%ecx, %r8d	# D.17551,
	movl	%edx, %ecx	# tmp657,
	movl	%eax, %edx	# iftmp.204,
	call	get_best_mode	#
	movl	%eax, -292(%rbp)	# tmp658, bestmode
	jmp	.L307	#
.L304:
	.loc 1 1439 0 is_stmt 1
	movq	-144(%rbp), %rax	# xop0, tmp659
	movzbl	2(%rax), %eax	# xop0_435->mode, D.17553
	movzbl	%al, %eax	# D.17553, tmp660
	movl	%eax, -292(%rbp)	# tmp660, bestmode
.L307:
	.loc 1 1441 0
	cmpl	$0, -292(%rbp)	#, bestmode
	jne	.L308	#,
	.loc 1 1444 0
	jmp	.L298	#
.L308:
	.loc 1 1448 0
	movl	-292(%rbp), %eax	# bestmode, bestmode.205
	cltq
	movzwl	mode_bitsize(%rax,%rax), %eax	# mode_bitsize, D.17550
	movzwl	%ax, %eax	# D.17550, tmp662
	movl	%eax, -288(%rbp)	# tmp662, unit
	.loc 1 1449 0
	movl	-288(%rbp), %ebx	# unit, D.17552
	movq	-344(%rbp), %rax	# bitnum, tmp665
	movl	$0, %edx	#, tmp664
	divq	%rbx	# D.17552
	movl	%eax, %edx	# D.17552, D.17557
	movl	-292(%rbp), %eax	# bestmode, bestmode.206
	cltq
	movzbl	mode_size(%rax), %eax	# mode_size, D.17553
	movzbl	%al, %eax	# D.17553, D.17557
	imull	%edx, %eax	# D.17557, D.17557
	movl	%eax, -228(%rbp)	# D.17557, xoffset
	.loc 1 1450 0
	movl	-288(%rbp), %ecx	# unit, D.17552
	movq	-344(%rbp), %rax	# bitnum, tmp667
	movl	$0, %edx	#, tmp668
	divq	%rcx	# D.17552
	movq	%rdx, %rax	# tmp668, D.17552
	movl	%eax, -296(%rbp)	# D.17552, xbitpos
	.loc 1 1451 0
	movl	-228(%rbp), %eax	# xoffset, tmp670
	movslq	%eax, %rdx	# tmp670, D.17565
	movl	-292(%rbp), %esi	# bestmode, tmp671
	movq	-144(%rbp), %rax	# xop0, tmp672
	movl	$1, %r8d	#,
	movl	$1, %ecx	#,
	movq	%rax, %rdi	# tmp672,
	call	adjust_address_1	#
	movq	%rax, -144(%rbp)	# tmp673, xop0
	.loc 1 1454 0
	movq	-144(%rbp), %rdx	# xop0, tmp674
	movl	-292(%rbp), %eax	# bestmode, tmp675
	movq	%rdx, %rsi	# tmp674,
	movl	%eax, %edi	# tmp675,
	call	force_reg	#
	movq	%rax, -144(%rbp)	# tmp676, xop0
.LBE28:
	jmp	.L301	#
.L302:
	.loc 1 1460 0
	movl	-228(%rbp), %eax	# xoffset, tmp677
	movslq	%eax, %rdx	# tmp677, D.17565
	movl	byte_mode(%rip), %esi	# byte_mode, byte_mode.207
	movq	-144(%rbp), %rax	# xop0, tmp678
	movl	$1, %r8d	#,
	movl	$1, %ecx	#,
	movq	%rax, %rdi	# tmp678,
	call	adjust_address_1	#
	movq	%rax, -144(%rbp)	# tmp679, xop0
.L301:
	.loc 1 1465 0
	movq	-144(%rbp), %rax	# xop0, tmp680
	movzwl	(%rax), %eax	# xop0_42->code, D.17550
	cmpw	$63, %ax	#, D.17550
	jne	.L309	#,
	.loc 1 1465 0 is_stmt 0 discriminator 1
	movq	-144(%rbp), %rax	# xop0, tmp681
	movzbl	2(%rax), %eax	# xop0_42->mode, D.17553
	movzbl	%al, %eax	# D.17553, D.17555
	cmpl	-224(%rbp), %eax	# maxmode, D.17555
	je	.L309	#,
	.loc 1 1466 0 is_stmt 1
	jmp	.L298	#
.L309:
	.loc 1 1467 0
	movq	-144(%rbp), %rax	# xop0, tmp682
	movzwl	(%rax), %eax	# xop0_42->code, D.17550
	cmpw	$61, %ax	#, D.17550
	jne	.L325	#,
	.loc 1 1467 0 is_stmt 0 discriminator 1
	movq	-144(%rbp), %rax	# xop0, tmp683
	movzbl	2(%rax), %eax	# xop0_42->mode, D.17553
	movzbl	%al, %eax	# D.17553, D.17555
	cmpl	-224(%rbp), %eax	# maxmode, D.17555
	je	.L325	#,
	.loc 1 1468 0 is_stmt 1
	movq	-144(%rbp), %rcx	# xop0, tmp684
	movl	-224(%rbp), %eax	# maxmode, tmp685
	movl	$0, %edx	#,
	movq	%rcx, %rsi	# tmp684,
	movl	%eax, %edi	# tmp685,
	call	gen_rtx_SUBREG	#
	movq	%rax, -144(%rbp)	# tmp686, xop0
.L325:
	.loc 1 1480 0
	movl	-224(%rbp), %eax	# maxmode, maxmode.211
	cltq
	movzwl	mode_bitsize(%rax,%rax), %eax	# mode_bitsize, D.17550
	movzwl	%ax, %eax	# D.17550, tmp688
	movl	%eax, -288(%rbp)	# tmp688, unit
	.loc 1 1482 0
	cmpq	$0, -136(%rbp)	#, xtarget
	je	.L311	#,
	.loc 1 1483 0
	movl	flag_force_mem(%rip), %eax	# flag_force_mem, flag_force_mem.212
	testl	%eax, %eax	# flag_force_mem.212
	je	.L312	#,
	.loc 1 1483 0 is_stmt 0 discriminator 1
	movq	-136(%rbp), %rax	# xtarget, tmp689
	movzwl	(%rax), %eax	# xtarget_436->code, D.17550
	cmpw	$66, %ax	#, D.17550
	jne	.L312	#,
.L311:
	.loc 1 1484 0 is_stmt 1
	movl	16(%rbp), %edi	# tmode,
	call	gen_reg_rtx	#
	movq	%rax, -128(%rbp)	# tmp690, xspec_target
	movq	-128(%rbp), %rax	# xspec_target, tmp691
	movq	%rax, -136(%rbp)	# tmp691, xtarget
.L312:
	.loc 1 1486 0
	movq	-136(%rbp), %rax	# xtarget, tmp692
	movzbl	2(%rax), %eax	# xtarget_44->mode, D.17553
	movzbl	%al, %eax	# D.17553, D.17555
	cmpl	-224(%rbp), %eax	# maxmode, D.17555
	je	.L313	#,
	.loc 1 1488 0
	movq	-136(%rbp), %rax	# xtarget, tmp693
	movzwl	(%rax), %eax	# xtarget_44->code, D.17550
	cmpw	$61, %ax	#, D.17550
	jne	.L314	#,
.LBB29:
	.loc 1 1490 0
	movl	-224(%rbp), %eax	# maxmode, maxmode.213
	cltq
	movzbl	mode_size(%rax), %edx	# mode_size, D.17553
	.loc 1 1491 0
	movq	-136(%rbp), %rax	# xtarget, tmp695
	movzbl	2(%rax), %eax	# xtarget_44->mode, D.17553
	movzbl	%al, %eax	# D.17553, D.17551
	cltq
	movzbl	mode_size(%rax), %eax	# mode_size, D.17553
	cmpb	%al, %dl	# D.17553, D.17553
	seta	%al	#, D.17564
	.loc 1 1490 0
	movzbl	%al, %eax	# D.17564, tmp697
	movl	%eax, -220(%rbp)	# tmp697, wider
	.loc 1 1492 0
	movq	-136(%rbp), %rdx	# xtarget, tmp698
	movl	-224(%rbp), %eax	# maxmode, tmp699
	movq	%rdx, %rsi	# tmp698,
	movl	%eax, %edi	# tmp699,
	call	gen_lowpart	#
	movq	%rax, -136(%rbp)	# tmp700, xtarget
	.loc 1 1493 0
	cmpl	$0, -220(%rbp)	#, wider
	je	.L315	#,
	.loc 1 1494 0
	movq	-136(%rbp), %rax	# xtarget, tmp701
	movq	%rax, -120(%rbp)	# tmp701, xspec_target_subreg
.LBE29:
	jmp	.L313	#
.L315:
	jmp	.L313	#
.L314:
	.loc 1 1497 0
	movl	-224(%rbp), %eax	# maxmode, tmp702
	movl	%eax, %edi	# tmp702,
	call	gen_reg_rtx	#
	movq	%rax, -136(%rbp)	# tmp703, xtarget
.L313:
	.loc 1 1502 0
	movq	insn_data+44504(%rip), %rax	# insn_data[1112].operand, D.17560
	.loc 1 1503 0
	movq	(%rax), %rax	# _511->predicate, D.17561
	movl	-224(%rbp), %ecx	# maxmode, tmp704
	movq	-136(%rbp), %rdx	# xtarget, tmp705
	movl	%ecx, %esi	# tmp704,
	movq	%rdx, %rdi	# tmp705,
	call	*%rax	# D.17561
	.loc 1 1502 0
	testl	%eax, %eax	# D.17551
	jne	.L316	#,
	.loc 1 1504 0
	movl	-224(%rbp), %eax	# maxmode, tmp706
	movl	%eax, %edi	# tmp706,
	call	gen_reg_rtx	#
	movq	%rax, -136(%rbp)	# tmp707, xtarget
.L316:
	.loc 1 1506 0
	movq	-336(%rbp), %rax	# bitsize, bitsize.214
	movq	%rax, %rsi	# bitsize.214,
	movl	$0, %edi	#,
	call	gen_rtx_CONST_INT	#
	movq	%rax, -40(%rbp)	# tmp708, bitsize_rtx
	.loc 1 1507 0
	movl	-296(%rbp), %eax	# xbitpos, tmp709
	cltq
	movq	%rax, %rsi	# D.17565,
	movl	$0, %edi	#,
	call	gen_rtx_CONST_INT	#
	movq	%rax, -32(%rbp)	# tmp710, bitpos_rtx
	.loc 1 1509 0
	movq	-136(%rbp), %rax	# xtarget, tmp711
	movl	$1, %esi	#,
	movq	%rax, %rdi	# tmp711,
	call	protect_from_queue	#
	movq	-32(%rbp), %rcx	# bitpos_rtx, tmp712
	movq	-40(%rbp), %rdx	# bitsize_rtx, tmp713
	movq	-144(%rbp), %rsi	# xop0, tmp714
	movq	%rax, %rdi	# D.17554,
	call	gen_extv	#
	movq	%rax, -24(%rbp)	# tmp715, pat
	.loc 1 1511 0
	cmpq	$0, -24(%rbp)	#, pat
	je	.L317	#,
	.loc 1 1513 0
	movq	-24(%rbp), %rax	# pat, tmp716
	movq	%rax, %rdi	# tmp716,
	call	emit_insn	#
	.loc 1 1514 0
	movq	-136(%rbp), %rax	# xtarget, tmp717
	movq	%rax, -360(%rbp)	# tmp717, target
	.loc 1 1515 0
	movq	-128(%rbp), %rax	# xspec_target, tmp718
	movq	%rax, -200(%rbp)	# tmp718, spec_target
	.loc 1 1516 0
	movq	-120(%rbp), %rax	# xspec_target_subreg, tmp719
	movq	%rax, -192(%rbp)	# tmp719, spec_target_subreg
.LBE27:
	.loc 1 1407 0
	jmp	.L297	#
.L317:
.LBB30:
	.loc 1 1520 0
	movq	-48(%rbp), %rax	# last, tmp720
	movq	%rax, %rdi	# tmp720,
	call	delete_insns_since	#
	.loc 1 1521 0
	movq	-360(%rbp), %r8	# target, tmp721
	movq	-112(%rbp), %rdi	# bitpos, tmp722
	movq	-336(%rbp), %rcx	# bitsize, tmp723
	movq	-216(%rbp), %rdx	# offset, tmp724
	movq	-208(%rbp), %rsi	# op0, tmp725
	movl	-312(%rbp), %eax	# int_mode, tmp726
	movl	$0, (%rsp)	#,
	movq	%r8, %r9	# tmp721,
	movq	%rdi, %r8	# tmp722,
	movl	%eax, %edi	# tmp726,
	call	extract_fixed_bit_field	#
	movq	%rax, -360(%rbp)	# tmp727, target
.LBE30:
	.loc 1 1407 0
	jmp	.L297	#
.L298:
	.loc 1 1527 0
	movq	-360(%rbp), %r8	# target, tmp728
	movq	-112(%rbp), %rdi	# bitpos, tmp729
	movq	-336(%rbp), %rcx	# bitsize, tmp730
	movq	-216(%rbp), %rdx	# offset, tmp731
	movq	-208(%rbp), %rsi	# op0, tmp732
	movl	-312(%rbp), %eax	# int_mode, tmp733
	movl	$0, (%rsp)	#,
	movq	%r8, %r9	# tmp728,
	movq	%rdi, %r8	# tmp729,
	movl	%eax, %edi	# tmp733,
	call	extract_fixed_bit_field	#
	movq	%rax, -360(%rbp)	# tmp734, target
.L297:
	.loc 1 1530 0
	movq	-360(%rbp), %rax	# target, tmp735
	cmpq	-200(%rbp), %rax	# spec_target, tmp735
	jne	.L319	#,
	.loc 1 1531 0
	movq	-360(%rbp), %rax	# target, D.17549
	jmp	.L207	#
.L319:
	.loc 1 1532 0
	movq	-360(%rbp), %rax	# target, tmp736
	cmpq	-192(%rbp), %rax	# spec_target_subreg, tmp736
	jne	.L320	#,
	.loc 1 1533 0
	movq	-200(%rbp), %rax	# spec_target, D.17549
	jmp	.L207	#
.L320:
	.loc 1 1534 0
	movq	-360(%rbp), %rax	# target, tmp737
	movzbl	2(%rax), %eax	# target_5->mode, D.17553
	movzbl	%al, %eax	# D.17553, D.17555
	cmpl	16(%rbp), %eax	# tmode, D.17555
	je	.L321	#,
	.loc 1 1534 0 is_stmt 0 discriminator 1
	movq	-360(%rbp), %rax	# target, tmp738
	movzbl	2(%rax), %eax	# target_5->mode, D.17553
	movzbl	%al, %eax	# D.17553, D.17555
	cmpl	-352(%rbp), %eax	# mode, D.17555
	je	.L321	#,
	.loc 1 1539 0 is_stmt 1
	movl	16(%rbp), %eax	# tmode, tmode.215
	cltq
	movl	mode_class(,%rax,4), %eax	# mode_class, D.17558
	cmpl	$1, %eax	#, D.17558
	je	.L322	#,
	.loc 1 1540 0
	movl	16(%rbp), %eax	# tmode, tmode.216
	cltq
	movl	mode_class(,%rax,4), %eax	# mode_class, D.17558
	cmpl	$3, %eax	#, D.17558
	je	.L322	#,
	.loc 1 1542 0
	movl	16(%rbp), %eax	# tmode, tmode.217
	cltq
	movzwl	mode_bitsize(%rax,%rax), %eax	# mode_bitsize, D.17550
	movzwl	%ax, %eax	# D.17550, D.17555
	movl	$0, %edx	#,
	movl	$1, %esi	#,
	movl	%eax, %edi	# D.17555,
	call	mode_for_size	#
	movl	-348(%rbp), %edx	# unsignedp, tmp742
	movq	-360(%rbp), %rcx	# target, tmp743
	movq	%rcx, %rsi	# tmp743,
	movl	%eax, %edi	# D.17556,
	call	convert_to_mode	#
	movq	%rax, -360(%rbp)	# tmp744, target
	.loc 1 1545 0
	movq	-360(%rbp), %rax	# target, tmp745
	movq	%rax, %rsi	# tmp745,
	movl	16(%rbp), %edi	# tmode,
	call	gen_lowpart	#
	jmp	.L207	#
.L322:
	.loc 1 1548 0
	movl	-348(%rbp), %edx	# unsignedp, tmp746
	movq	-360(%rbp), %rax	# target, tmp747
	movq	%rax, %rsi	# tmp747,
	movl	16(%rbp), %edi	# tmode,
	call	convert_to_mode	#
	jmp	.L207	#
.L321:
	.loc 1 1550 0
	movq	-360(%rbp), %rax	# target, D.17549
.L207:
	.loc 1 1551 0
	addq	$376, %rsp	#,
	popq	%rbx	#
	popq	%rbp	#
	.cfi_def_cfa 7, 8
	ret
	.cfi_endproc
.LFE8:
	.size	extract_bit_field, .-extract_bit_field
	.type	extract_fixed_bit_field, @function
extract_fixed_bit_field:
.LFB9:
	.loc 1 1576 0
	.cfi_startproc
	pushq	%rbp	#
	.cfi_def_cfa_offset 16
	.cfi_offset 6, -16
	movq	%rsp, %rbp	#,
	.cfi_def_cfa_register 6
	pushq	%rbx	#
	subq	$120, %rsp	#,
	.cfi_offset 3, -24
	movl	%edi, -68(%rbp)	# tmode, tmode
	movq	%rsi, -80(%rbp)	# op0, op0
	movq	%rdx, -88(%rbp)	# offset, offset
	movq	%rcx, -96(%rbp)	# bitsize, bitsize
	movq	%r8, -104(%rbp)	# bitpos, bitpos
	movq	%r9, -112(%rbp)	# target, target
	.loc 1 1577 0
	movl	target_flags(%rip), %eax	# target_flags, target_flags.219
	andl	$33554432, %eax	#, D.17567
	testl	%eax, %eax	# D.17567
	je	.L327	#,
	.loc 1 1577 0 is_stmt 0 discriminator 1
	movl	$64, %eax	#, iftmp.218
	jmp	.L328	#
.L327:
	.loc 1 1577 0 discriminator 2
	movl	$32, %eax	#, iftmp.218
.L328:
	.loc 1 1577 0 discriminator 3
	movl	%eax, -52(%rbp)	# iftmp.218, total_bits
	.loc 1 1580 0 is_stmt 1 discriminator 3
	movq	-80(%rbp), %rax	# op0, tmp146
	movzwl	(%rax), %eax	# op0_23(D)->code, D.17568
	cmpw	$63, %ax	#, D.17568
	je	.L329	#,
	.loc 1 1580 0 is_stmt 0 discriminator 1
	movq	-80(%rbp), %rax	# op0, tmp147
	movzwl	(%rax), %eax	# op0_23(D)->code, D.17568
	cmpw	$61, %ax	#, D.17568
	jne	.L330	#,
.L329:
	.loc 1 1583 0 is_stmt 1
	movq	-104(%rbp), %rax	# bitpos, tmp148
	movq	-96(%rbp), %rdx	# bitsize, tmp149
	addq	%rax, %rdx	# tmp148, D.17572
	movl	target_flags(%rip), %eax	# target_flags, target_flags.221
	andl	$33554432, %eax	#, D.17567
	testl	%eax, %eax	# D.17567
	je	.L331	#,
	.loc 1 1583 0 is_stmt 0 discriminator 1
	movl	$64, %eax	#, iftmp.220
	jmp	.L332	#
.L331:
	.loc 1 1583 0 discriminator 2
	movl	$32, %eax	#, iftmp.220
.L332:
	.loc 1 1583 0 discriminator 3
	cmpq	%rax, %rdx	# iftmp.220, D.17572
	jbe	.L333	#,
	.loc 1 1584 0 is_stmt 1
	movq	-104(%rbp), %rdx	# bitpos, tmp150
	movq	-96(%rbp), %rsi	# bitsize, tmp151
	movq	-80(%rbp), %rax	# op0, tmp152
	movl	16(%rbp), %ecx	# unsignedp,
	movq	%rax, %rdi	# tmp152,
	call	extract_split_bit_field	#
	jmp	.L334	#
.L333:
	.loc 1 1583 0 discriminator 1
	jmp	.L335	#
.L330:
	.loc 1 1593 0
	movq	-80(%rbp), %rax	# op0, tmp153
	movzbl	3(%rax), %eax	# *op0_23(D), tmp156
	shrb	$3, %al	#, D.17569
	andl	$1, %eax	#, D.17569
	.loc 1 1592 0
	movzbl	%al, %ecx	# D.17569, D.17567
	movl	word_mode(%rip), %edx	# word_mode, word_mode.222
	.loc 1 1593 0
	movq	-80(%rbp), %rax	# op0, tmp157
	movq	16(%rax), %rax	# op0_23(D)->fld[1].rtmem, D.17570
	.loc 1 1592 0
	testq	%rax, %rax	# D.17570
	je	.L336	#,
	.loc 1 1593 0
	movq	-80(%rbp), %rax	# op0, tmp158
	movq	16(%rax), %rax	# op0_23(D)->fld[1].rtmem, D.17570
	.loc 1 1592 0
	movl	32(%rax), %eax	# _30->align, iftmp.223
	jmp	.L337	#
.L336:
	.loc 1 1592 0 is_stmt 0 discriminator 1
	movl	$8, %eax	#, iftmp.223
.L337:
	.loc 1 1592 0 discriminator 2
	movq	-88(%rbp), %rsi	# offset, tmp159
	leal	0(,%rsi,8), %edi	#, D.17571
	movq	-104(%rbp), %rsi	# bitpos, tmp160
	addl	%edi, %esi	# D.17571, D.17571
	movq	-96(%rbp), %rdi	# bitsize, tmp161
	movl	%ecx, %r8d	# D.17567,
	movl	%edx, %ecx	# word_mode.222,
	movl	%eax, %edx	# iftmp.223,
	call	get_best_mode	#
	movl	%eax, -56(%rbp)	# tmp162, mode
	.loc 1 1595 0 is_stmt 1 discriminator 2
	cmpl	$0, -56(%rbp)	#, mode
	jne	.L338	#,
	.loc 1 1599 0
	movq	-88(%rbp), %rax	# offset, tmp163
	leaq	0(,%rax,8), %rdx	#, D.17572
	.loc 1 1598 0
	movq	-104(%rbp), %rax	# bitpos, tmp164
	addq	%rax, %rdx	# tmp164, D.17572
	movq	-96(%rbp), %rsi	# bitsize, tmp165
	movq	-80(%rbp), %rax	# op0, tmp166
	movl	16(%rbp), %ecx	# unsignedp,
	movq	%rax, %rdi	# tmp166,
	call	extract_split_bit_field	#
	jmp	.L334	#
.L338:
	.loc 1 1602 0
	movl	-56(%rbp), %eax	# mode, mode.224
	cltq
	movzwl	mode_bitsize(%rax,%rax), %eax	# mode_bitsize, D.17568
	movzwl	%ax, %eax	# D.17568, tmp168
	movl	%eax, -52(%rbp)	# tmp168, total_bits
	.loc 1 1607 0
	movl	-52(%rbp), %eax	# total_bits, D.17572
	cmpq	-104(%rbp), %rax	# bitpos, D.17572
	ja	.L339	#,
	.loc 1 1609 0
	movl	-52(%rbp), %ebx	# total_bits, D.17572
	movq	-104(%rbp), %rax	# bitpos, tmp171
	movl	$0, %edx	#, tmp170
	divq	%rbx	# D.17572
	movq	%rax, %rdx	# tmp169, D.17572
	movl	-52(%rbp), %eax	# total_bits, tmp172
	shrl	$3, %eax	#, D.17573
	movl	%eax, %eax	# D.17573, D.17572
	imulq	%rdx, %rax	# D.17572, D.17572
	addq	%rax, -88(%rbp)	# D.17572, offset
	.loc 1 1610 0
	movl	-52(%rbp), %ebx	# total_bits, D.17572
	movq	-104(%rbp), %rax	# bitpos, tmp175
	movl	$0, %edx	#, tmp174
	divq	%rbx	# D.17572
	movq	%rax, %rdx	# tmp173, D.17572
	movl	-52(%rbp), %eax	# total_bits, tmp176
	shrl	$3, %eax	#, D.17573
	movl	%eax, %eax	# D.17573, D.17572
	imulq	%rdx, %rax	# D.17572, D.17572
	.loc 1 1611 0
	salq	$3, %rax	#, D.17572
	.loc 1 1610 0
	subq	%rax, -104(%rbp)	# D.17572, bitpos
.L339:
	.loc 1 1618 0
	movl	-52(%rbp), %eax	# total_bits, tmp177
	shrl	$3, %eax	#, D.17573
	movl	%eax, %ecx	# D.17573, D.17572
	movq	-88(%rbp), %rax	# offset, tmp178
	movl	$0, %edx	#, tmp179
	divq	%rcx	# D.17572
	movq	%rdx, %rax	# tmp179, D.17572
	salq	$3, %rax	#, D.17572
	addq	%rax, -104(%rbp)	# D.17572, bitpos
	.loc 1 1619 0
	movl	-52(%rbp), %eax	# total_bits, tmp181
	shrl	$3, %eax	#, D.17573
	movl	%eax, %ecx	# D.17573, D.17572
	movq	-88(%rbp), %rax	# offset, tmp182
	movl	$0, %edx	#, tmp183
	divq	%rcx	# D.17572
	movq	%rdx, %rax	# tmp183, D.17572
	subq	%rax, -88(%rbp)	# D.17572, offset
	.loc 1 1620 0
	movq	-88(%rbp), %rdx	# offset, offset.225
	movl	-56(%rbp), %esi	# mode, tmp185
	movq	-80(%rbp), %rax	# op0, tmp186
	movl	$1, %r8d	#,
	movl	$1, %ecx	#,
	movq	%rax, %rdi	# tmp186,
	call	adjust_address_1	#
	movq	%rax, -80(%rbp)	# tmp187, op0
.L335:
	.loc 1 1623 0
	movq	-80(%rbp), %rax	# op0, tmp188
	movzbl	2(%rax), %eax	# op0_1->mode, D.17574
	movzbl	%al, %eax	# D.17574, tmp189
	movl	%eax, -56(%rbp)	# tmp189, mode
	.loc 1 1633 0
	cmpl	$0, 16(%rbp)	#, unsignedp
	je	.L340	#,
	.loc 1 1635 0
	cmpq	$0, -104(%rbp)	#, bitpos
	je	.L341	#,
.LBB31:
	.loc 1 1639 0
	movq	-104(%rbp), %rax	# bitpos, tmp190
	movl	$0, %esi	#,
	movq	%rax, %rdi	# tmp190,
	call	build_int_2_wide	#
	movq	%rax, -40(%rbp)	# tmp191, amount
	.loc 1 1644 0
	cmpq	$0, -112(%rbp)	#, target
	je	.L342	#,
	.loc 1 1642 0
	movq	-112(%rbp), %rax	# target, tmp192
	movzwl	(%rax), %eax	# target_84(D)->code, D.17568
	cmpw	$61, %ax	#, D.17568
	jne	.L342	#,
	.loc 1 1643 0
	movq	-112(%rbp), %rax	# target, tmp193
	movzbl	3(%rax), %eax	# *target_84(D), D.17574
	andl	$64, %eax	#, D.17574
	testb	%al, %al	# D.17574
	jne	.L342	#,
	.loc 1 1644 0
	movq	-112(%rbp), %rax	# target, iftmp.226
	jmp	.L343	#
.L342:
	.loc 1 1644 0 is_stmt 0 discriminator 1
	movl	$0, %eax	#, iftmp.226
.L343:
	.loc 1 1642 0 is_stmt 1
	movq	%rax, -48(%rbp)	# iftmp.226, subtarget
	.loc 1 1645 0
	movl	-68(%rbp), %eax	# tmode, tmp194
	cmpl	-56(%rbp), %eax	# mode, tmp194
	je	.L344	#,
	.loc 1 1645 0 is_stmt 0 discriminator 1
	movq	$0, -48(%rbp)	#, subtarget
.L344:
	.loc 1 1646 0 is_stmt 1
	movq	-48(%rbp), %rsi	# subtarget, tmp195
	movq	-40(%rbp), %rcx	# amount, tmp196
	movq	-80(%rbp), %rdx	# op0, tmp197
	movl	-56(%rbp), %eax	# mode, tmp198
	movl	$1, %r9d	#,
	movq	%rsi, %r8	# tmp195,
	movl	%eax, %esi	# tmp198,
	movl	$83, %edi	#,
	call	expand_shift	#
	movq	%rax, -80(%rbp)	# tmp199, op0
.L341:
.LBE31:
	.loc 1 1649 0
	movl	-56(%rbp), %eax	# mode, tmp200
	cmpl	-68(%rbp), %eax	# tmode, tmp200
	je	.L345	#,
	.loc 1 1650 0
	movq	-80(%rbp), %rcx	# op0, tmp201
	movl	-68(%rbp), %eax	# tmode, tmp202
	movl	$1, %edx	#,
	movq	%rcx, %rsi	# tmp201,
	movl	%eax, %edi	# tmp202,
	call	convert_to_mode	#
	movq	%rax, -80(%rbp)	# tmp203, op0
.L345:
	.loc 1 1655 0
	movl	-56(%rbp), %eax	# mode, mode.227
	cltq
	movzwl	mode_bitsize(%rax,%rax), %eax	# mode_bitsize, D.17568
	movzwl	%ax, %eax	# D.17568, D.17572
	movq	-96(%rbp), %rdx	# bitsize, tmp205
	movq	-104(%rbp), %rcx	# bitpos, tmp206
	addq	%rcx, %rdx	# tmp206, D.17572
	cmpq	%rdx, %rax	# D.17572, D.17572
	je	.L346	#,
	.loc 1 1656 0
	movq	-96(%rbp), %rax	# bitsize, tmp207
	movl	%eax, %edx	# tmp207, D.17567
	.loc 1 1657 0
	movq	-80(%rbp), %rax	# op0, tmp208
	movzbl	2(%rax), %eax	# op0_3->mode, D.17574
	.loc 1 1656 0
	movzbl	%al, %eax	# D.17574, D.17575
	movl	$0, %ecx	#,
	movl	$0, %esi	#,
	movl	%eax, %edi	# D.17575,
	call	mask_rtx	#
	movq	%rax, %rcx	#, D.17576
	movq	optab_table+144(%rip), %rsi	# optab_table, D.17577
	movq	-80(%rbp), %rax	# op0, tmp209
	movzbl	2(%rax), %eax	# op0_3->mode, D.17574
	movzbl	%al, %eax	# D.17574, D.17575
	movq	-112(%rbp), %rdi	# target, tmp210
	movq	-80(%rbp), %rdx	# op0, tmp211
	movl	$3, (%rsp)	#,
	movl	$1, %r9d	#,
	movq	%rdi, %r8	# tmp210,
	movl	%eax, %edi	# D.17575,
	call	expand_binop	#
	jmp	.L334	#
.L346:
	.loc 1 1659 0
	movq	-80(%rbp), %rax	# op0, D.17566
	jmp	.L334	#
.L340:
	.loc 1 1664 0
	movq	-80(%rbp), %rdx	# op0, tmp212
	movl	-56(%rbp), %eax	# mode, tmp213
	movq	%rdx, %rsi	# tmp212,
	movl	%eax, %edi	# tmp213,
	call	force_reg	#
	movq	%rax, -80(%rbp)	# tmp214, op0
	.loc 1 1665 0
	movl	-56(%rbp), %eax	# mode, tmp215
	cmpl	-68(%rbp), %eax	# tmode, tmp215
	je	.L347	#,
	.loc 1 1666 0
	movq	$0, -112(%rbp)	#, target
.L347:
	.loc 1 1670 0
	movl	class_narrowest_mode+4(%rip), %eax	# class_narrowest_mode, tmp216
	movl	%eax, -56(%rbp)	# tmp216, mode
	jmp	.L348	#
.L351:
	.loc 1 1672 0
	movl	-56(%rbp), %eax	# mode, mode.228
	cltq
	movzwl	mode_bitsize(%rax,%rax), %eax	# mode_bitsize, D.17568
	movzwl	%ax, %eax	# D.17568, D.17572
	movq	-104(%rbp), %rdx	# bitpos, tmp218
	movq	-96(%rbp), %rcx	# bitsize, tmp219
	addq	%rcx, %rdx	# tmp219, D.17572
	cmpq	%rdx, %rax	# D.17572, D.17572
	jb	.L349	#,
	.loc 1 1674 0
	movq	-80(%rbp), %rcx	# op0, tmp220
	movl	-56(%rbp), %eax	# mode, tmp221
	movl	$0, %edx	#,
	movq	%rcx, %rsi	# tmp220,
	movl	%eax, %edi	# tmp221,
	call	convert_to_mode	#
	movq	%rax, -80(%rbp)	# tmp222, op0
	.loc 1 1675 0
	jmp	.L350	#
.L349:
	.loc 1 1671 0
	movl	-56(%rbp), %eax	# mode, mode.229
	cltq
	movzbl	mode_wider_mode(%rax), %eax	# mode_wider_mode, D.17574
	movzbl	%al, %eax	# D.17574, tmp224
	movl	%eax, -56(%rbp)	# tmp224, mode
.L348:
	.loc 1 1670 0 discriminator 1
	cmpl	$0, -56(%rbp)	#, mode
	jne	.L351	#,
.L350:
	.loc 1 1678 0
	movl	-56(%rbp), %eax	# mode, mode.230
	cltq
	movzwl	mode_bitsize(%rax,%rax), %eax	# mode_bitsize, D.17568
	movzwl	%ax, %eax	# D.17568, D.17572
	movq	-104(%rbp), %rdx	# bitpos, tmp226
	movq	-96(%rbp), %rcx	# bitsize, tmp227
	addq	%rcx, %rdx	# tmp227, D.17572
	cmpq	%rdx, %rax	# D.17572, D.17572
	je	.L352	#,
.LBB32:
	.loc 1 1681 0
	movl	-56(%rbp), %eax	# mode, mode.231
	cltq
	movzwl	mode_bitsize(%rax,%rax), %eax	# mode_bitsize, D.17568
	movzwl	%ax, %eax	# D.17568, D.17572
	movq	-104(%rbp), %rdx	# bitpos, tmp229
	movq	-96(%rbp), %rcx	# bitsize, tmp230
	addq	%rcx, %rdx	# tmp230, D.17572
	subq	%rdx, %rax	# D.17572, D.17572
	.loc 1 1680 0
	movl	$0, %esi	#,
	movq	%rax, %rdi	# D.17572,
	call	build_int_2_wide	#
	movq	%rax, -32(%rbp)	# tmp231, amount
	.loc 1 1686 0
	cmpq	$0, -112(%rbp)	#, target
	je	.L353	#,
	.loc 1 1684 0
	movq	-112(%rbp), %rax	# target, tmp232
	movzwl	(%rax), %eax	# target_6->code, D.17568
	cmpw	$61, %ax	#, D.17568
	jne	.L353	#,
	.loc 1 1685 0
	movq	-112(%rbp), %rax	# target, tmp233
	movzbl	3(%rax), %eax	# *target_6, D.17574
	andl	$64, %eax	#, D.17574
	testb	%al, %al	# D.17574
	jne	.L353	#,
	.loc 1 1686 0
	movq	-112(%rbp), %rax	# target, iftmp.232
	jmp	.L354	#
.L353:
	.loc 1 1686 0 is_stmt 0 discriminator 1
	movl	$0, %eax	#, iftmp.232
.L354:
	.loc 1 1684 0 is_stmt 1
	movq	%rax, -24(%rbp)	# iftmp.232, subtarget
	.loc 1 1687 0
	movq	-24(%rbp), %rsi	# subtarget, tmp234
	movq	-32(%rbp), %rcx	# amount, tmp235
	movq	-80(%rbp), %rdx	# op0, tmp236
	movl	-56(%rbp), %eax	# mode, tmp237
	movl	$1, %r9d	#,
	movq	%rsi, %r8	# tmp234,
	movl	%eax, %esi	# tmp237,
	movl	$82, %edi	#,
	call	expand_shift	#
	movq	%rax, -80(%rbp)	# tmp238, op0
.L352:
.LBE32:
	.loc 1 1691 0
	movl	-56(%rbp), %eax	# mode, mode.233
	cltq
	movzwl	mode_bitsize(%rax,%rax), %eax	# mode_bitsize, D.17568
	.loc 1 1690 0
	movzwl	%ax, %eax	# D.17568, D.17572
	subq	-96(%rbp), %rax	# bitsize, D.17572
	movl	$0, %esi	#,
	movq	%rax, %rdi	# D.17572,
	call	build_int_2_wide	#
	movq	%rax, %rcx	#, D.17578
	movq	-112(%rbp), %rsi	# target, tmp240
	movq	-80(%rbp), %rdx	# op0, tmp241
	movl	-56(%rbp), %eax	# mode, tmp242
	movl	$0, %r9d	#,
	movq	%rsi, %r8	# tmp240,
	movl	%eax, %esi	# tmp242,
	movl	$83, %edi	#,
	call	expand_shift	#
.L334:
	.loc 1 1693 0
	addq	$120, %rsp	#,
	popq	%rbx	#
	popq	%rbp	#
	.cfi_def_cfa 7, 8
	ret
	.cfi_endproc
.LFE9:
	.size	extract_fixed_bit_field, .-extract_fixed_bit_field
	.type	mask_rtx, @function
mask_rtx:
.LFB10:
	.loc 1 1705 0
	.cfi_startproc
	pushq	%rbp	#
	.cfi_def_cfa_offset 16
	.cfi_offset 6, -16
	movq	%rsp, %rbp	#,
	.cfi_def_cfa_register 6
	subq	$32, %rsp	#,
	movl	%edi, -20(%rbp)	# mode, mode
	movl	%esi, -24(%rbp)	# bitpos, bitpos
	movl	%edx, -28(%rbp)	# bitsize, bitsize
	movl	%ecx, -32(%rbp)	# complement, complement
	.loc 1 1708 0
	cmpl	$63, -24(%rbp)	#, bitpos
	jg	.L356	#,
	.loc 1 1709 0
	movl	-24(%rbp), %eax	# bitpos, tmp74
	movq	$-1, %rdx	#, tmp75
	movl	%eax, %ecx	# tmp74, tmp93
	salq	%cl, %rdx	# tmp93, tmp76
	movq	%rdx, %rax	# tmp76, tmp76
	movq	%rax, -16(%rbp)	# tmp76, masklow
	jmp	.L357	#
.L356:
	.loc 1 1711 0
	movq	$0, -16(%rbp)	#, masklow
.L357:
	.loc 1 1713 0
	movl	-28(%rbp), %eax	# bitsize, tmp77
	movl	-24(%rbp), %edx	# bitpos, tmp78
	addl	%edx, %eax	# tmp78, D.17579
	cmpl	$63, %eax	#, D.17579
	jg	.L358	#,
	.loc 1 1715 0
	movl	$64, %eax	#, tmp79
	subl	-24(%rbp), %eax	# bitpos, D.17579
	subl	-28(%rbp), %eax	# bitsize, D.17579
	movq	$-1, %rdx	#, tmp80
	movl	%eax, %ecx	# D.17579, tmp94
	shrq	%cl, %rdx	# tmp94, D.17580
	.loc 1 1714 0
	movq	-16(%rbp), %rax	# masklow, masklow.234
	andq	%rdx, %rax	# D.17580, D.17580
	movq	%rax, -16(%rbp)	# D.17580, masklow
.L358:
	.loc 1 1717 0
	cmpl	$64, -24(%rbp)	#, bitpos
	jg	.L359	#,
	.loc 1 1718 0
	movq	$-1, -8(%rbp)	#, maskhigh
	jmp	.L360	#
.L359:
	.loc 1 1720 0
	movl	-24(%rbp), %eax	# bitpos, tmp81
	subl	$64, %eax	#, D.17579
	movq	$-1, %rdx	#, tmp82
	movl	%eax, %ecx	# D.17579, tmp96
	salq	%cl, %rdx	# tmp96, tmp83
	movq	%rdx, %rax	# tmp83, tmp83
	movq	%rax, -8(%rbp)	# tmp83, maskhigh
.L360:
	.loc 1 1722 0
	movl	-28(%rbp), %eax	# bitsize, tmp84
	movl	-24(%rbp), %edx	# bitpos, tmp85
	addl	%edx, %eax	# tmp85, D.17579
	cmpl	$64, %eax	#, D.17579
	jle	.L361	#,
	.loc 1 1724 0
	movl	$128, %eax	#, tmp86
	subl	-24(%rbp), %eax	# bitpos, D.17579
	subl	-28(%rbp), %eax	# bitsize, D.17579
	movq	$-1, %rdx	#, tmp87
	movl	%eax, %ecx	# D.17579, tmp97
	shrq	%cl, %rdx	# tmp97, D.17580
	.loc 1 1723 0
	movq	-8(%rbp), %rax	# maskhigh, maskhigh.235
	andq	%rdx, %rax	# D.17580, D.17580
	movq	%rax, -8(%rbp)	# D.17580, maskhigh
	jmp	.L362	#
.L361:
	.loc 1 1726 0
	movq	$0, -8(%rbp)	#, maskhigh
.L362:
	.loc 1 1728 0
	cmpl	$0, -32(%rbp)	#, complement
	je	.L363	#,
	.loc 1 1730 0
	notq	-8(%rbp)	# maskhigh
	.loc 1 1731 0
	notq	-16(%rbp)	# masklow
.L363:
	.loc 1 1734 0
	movl	-20(%rbp), %edx	# mode, tmp88
	movq	-8(%rbp), %rcx	# maskhigh, tmp89
	movq	-16(%rbp), %rax	# masklow, tmp90
	movq	%rcx, %rsi	# tmp89,
	movq	%rax, %rdi	# tmp90,
	call	immed_double_const	#
	.loc 1 1735 0
	leave
	.cfi_def_cfa 7, 8
	ret
	.cfi_endproc
.LFE10:
	.size	mask_rtx, .-mask_rtx
	.type	lshift_value, @function
lshift_value:
.LFB11:
	.loc 1 1745 0
	.cfi_startproc
	pushq	%rbp	#
	.cfi_def_cfa_offset 16
	.cfi_offset 6, -16
	movq	%rsp, %rbp	#,
	.cfi_def_cfa_register 6
	subq	$64, %rsp	#,
	movl	%edi, -36(%rbp)	# mode, mode
	movq	%rsi, -48(%rbp)	# value, value
	movl	%edx, -40(%rbp)	# bitpos, bitpos
	movl	%ecx, -52(%rbp)	# bitsize, bitsize
	.loc 1 1746 0
	movq	-48(%rbp), %rax	# value, tmp71
	movq	8(%rax), %rax	# value_5(D)->fld[0].rtwint, D.17582
	movq	%rax, -24(%rbp)	# D.17582, v
	.loc 1 1749 0
	cmpl	$63, -52(%rbp)	#, bitsize
	jg	.L366	#,
	.loc 1 1750 0
	movl	-52(%rbp), %eax	# bitsize, tmp72
	movq	$-1, %rdx	#, tmp73
	movl	%eax, %ecx	# tmp72, tmp85
	salq	%cl, %rdx	# tmp85, D.17582
	movq	%rdx, %rax	# D.17582, D.17582
	notq	%rax	# D.17582
	andq	%rax, -24(%rbp)	# D.17583, v
.L366:
	.loc 1 1752 0
	cmpl	$63, -40(%rbp)	#, bitpos
	jg	.L367	#,
	.loc 1 1754 0
	movl	-40(%rbp), %eax	# bitpos, tmp74
	movq	-24(%rbp), %rdx	# v, tmp75
	movl	%eax, %ecx	# tmp74, tmp87
	salq	%cl, %rdx	# tmp87, D.17583
	movq	%rdx, %rax	# D.17583, D.17583
	movq	%rax, -16(%rbp)	# D.17583, low
	.loc 1 1755 0
	cmpl	$0, -40(%rbp)	#, bitpos
	jle	.L368	#,
	.loc 1 1755 0 is_stmt 0 discriminator 1
	movl	$64, %eax	#, tmp76
	subl	-40(%rbp), %eax	# bitpos, D.17584
	movq	-24(%rbp), %rdx	# v, tmp77
	movl	%eax, %ecx	# D.17584, tmp89
	shrq	%cl, %rdx	# tmp89, D.17583
	movq	%rdx, %rax	# D.17583, D.17583
	jmp	.L369	#
.L368:
	.loc 1 1755 0 discriminator 2
	movl	$0, %eax	#, iftmp.236
.L369:
	.loc 1 1755 0 discriminator 1
	movq	%rax, -8(%rbp)	# iftmp.236, high
	jmp	.L370	#
.L367:
	.loc 1 1759 0 is_stmt 1
	movq	$0, -16(%rbp)	#, low
	.loc 1 1760 0
	movl	-40(%rbp), %eax	# bitpos, tmp78
	subl	$64, %eax	#, D.17584
	movq	-24(%rbp), %rdx	# v, tmp79
	movl	%eax, %ecx	# D.17584, tmp91
	salq	%cl, %rdx	# tmp91, D.17583
	movq	%rdx, %rax	# D.17583, D.17583
	movq	%rax, -8(%rbp)	# D.17583, high
.L370:
	.loc 1 1763 0
	movl	-36(%rbp), %edx	# mode, tmp80
	movq	-8(%rbp), %rcx	# high, tmp81
	movq	-16(%rbp), %rax	# low, tmp82
	movq	%rcx, %rsi	# tmp81,
	movq	%rax, %rdi	# tmp82,
	call	immed_double_const	#
	.loc 1 1764 0
	leave
	.cfi_def_cfa 7, 8
	ret
	.cfi_endproc
.LFE11:
	.size	lshift_value, .-lshift_value
	.type	extract_split_bit_field, @function
extract_split_bit_field:
.LFB12:
	.loc 1 1778 0
	.cfi_startproc
	pushq	%rbp	#
	.cfi_def_cfa_offset 16
	.cfi_offset 6, -16
	movq	%rsp, %rbp	#,
	.cfi_def_cfa_register 6
	pushq	%rbx	#
	subq	$120, %rsp	#,
	.cfi_offset 3, -24
	movq	%rdi, -88(%rbp)	# op0, op0
	movq	%rsi, -96(%rbp)	# bitsize, bitsize
	movq	%rdx, -104(%rbp)	# bitpos, bitpos
	movl	%ecx, -108(%rbp)	# unsignedp, unsignedp
	.loc 1 1780 0
	movl	$0, -76(%rbp)	#, bitsdone
	.loc 1 1781 0
	movq	$0, -64(%rbp)	#, result
	.loc 1 1782 0
	movl	$1, -72(%rbp)	#, first
	.loc 1 1786 0
	movq	-88(%rbp), %rax	# op0, tmp127
	movzwl	(%rax), %eax	# op0_20(D)->code, D.17587
	cmpw	$61, %ax	#, D.17587
	je	.L373	#,
	.loc 1 1786 0 is_stmt 0 discriminator 1
	movq	-88(%rbp), %rax	# op0, tmp128
	movzwl	(%rax), %eax	# op0_20(D)->code, D.17587
	cmpw	$63, %ax	#, D.17587
	jne	.L374	#,
.L373:
	.loc 1 1787 0 is_stmt 1
	movl	target_flags(%rip), %eax	# target_flags, target_flags.238
	andl	$33554432, %eax	#, D.17588
	testl	%eax, %eax	# D.17588
	je	.L375	#,
	.loc 1 1787 0 is_stmt 0 discriminator 1
	movl	$64, %eax	#, iftmp.237
	jmp	.L376	#
.L375:
	.loc 1 1787 0 discriminator 2
	movl	$32, %eax	#, iftmp.237
.L376:
	.loc 1 1787 0 discriminator 3
	movl	%eax, -80(%rbp)	# iftmp.237, unit
	.loc 1 1791 0 is_stmt 1 discriminator 3
	jmp	.L382	#
.L374:
	.loc 1 1789 0
	movl	target_flags(%rip), %eax	# target_flags, target_flags.240
	andl	$33554432, %eax	#, D.17588
	testl	%eax, %eax	# D.17588
	je	.L378	#,
	.loc 1 1789 0 is_stmt 0 discriminator 1
	movl	$64, %edx	#, iftmp.239
	jmp	.L379	#
.L378:
	.loc 1 1789 0 discriminator 2
	movl	$32, %edx	#, iftmp.239
.L379:
	.loc 1 1789 0 discriminator 3
	movq	-88(%rbp), %rax	# op0, tmp129
	movq	16(%rax), %rax	# op0_20(D)->fld[1].rtmem, D.17589
	testq	%rax, %rax	# D.17589
	je	.L380	#,
	.loc 1 1789 0 discriminator 1
	movq	-88(%rbp), %rax	# op0, tmp130
	movq	16(%rax), %rax	# op0_20(D)->fld[1].rtmem, D.17589
	movl	32(%rax), %eax	# _28->align, iftmp.241
	jmp	.L381	#
.L380:
	.loc 1 1789 0 discriminator 2
	movl	$8, %eax	#, iftmp.241
.L381:
	.loc 1 1789 0 discriminator 3
	cmpl	%eax, %edx	# iftmp.241, iftmp.239
	cmovbe	%edx, %eax	# iftmp.239,, tmp131
	movl	%eax, -80(%rbp)	# tmp131, unit
	.loc 1 1791 0 is_stmt 1 discriminator 3
	jmp	.L382	#
.L393:
.LBB33:
	.loc 1 1798 0
	movl	-76(%rbp), %edx	# bitsdone, D.17590
	movq	-104(%rbp), %rax	# bitpos, tmp132
	addq	%rdx, %rax	# D.17590, D.17590
	movl	-80(%rbp), %ebx	# unit, D.17590
	movl	$0, %edx	#, tmp134
	divq	%rbx	# D.17590
	movq	%rax, -40(%rbp)	# tmp133, offset
	.loc 1 1799 0
	movl	-76(%rbp), %edx	# bitsdone, D.17590
	movq	-104(%rbp), %rax	# bitpos, tmp135
	addq	%rdx, %rax	# D.17590, D.17590
	movl	-80(%rbp), %ecx	# unit, D.17590
	movl	$0, %edx	#, tmp136
	divq	%rcx	# D.17590
	movq	%rdx, -32(%rbp)	# tmp136, thispos
	.loc 1 1804 0
	movl	target_flags(%rip), %eax	# target_flags, target_flags.243
	andl	$33554432, %eax	#, D.17588
	testl	%eax, %eax	# D.17588
	je	.L383	#,
	.loc 1 1804 0 is_stmt 0 discriminator 1
	movl	$64, %eax	#, iftmp.242
	jmp	.L384	#
.L383:
	.loc 1 1804 0 discriminator 2
	movl	$32, %eax	#, iftmp.242
.L384:
	.loc 1 1804 0 discriminator 3
	movl	-76(%rbp), %edx	# bitsdone, D.17590
	movq	-96(%rbp), %rcx	# bitsize, tmp138
	subq	%rdx, %rcx	# D.17590, D.17590
	movq	%rcx, %rdx	# D.17590, D.17590
	cmpq	%rdx, %rax	# D.17590, iftmp.242
	cmova	%rdx, %rax	# iftmp.242,, D.17590, tmp139
	movq	%rax, -24(%rbp)	# tmp139, thissize
	.loc 1 1805 0 is_stmt 1 discriminator 3
	movl	-80(%rbp), %eax	# unit, D.17590
	subq	-32(%rbp), %rax	# thispos, D.17590
	movq	%rax, %rdx	# D.17590, D.17590
	movq	-24(%rbp), %rax	# thissize, tmp141
	cmpq	%rax, %rdx	# tmp141, D.17590
	cmovbe	%rdx, %rax	# D.17590,, tmp140
	movq	%rax, -24(%rbp)	# tmp140, thissize
	.loc 1 1813 0 discriminator 3
	movq	-88(%rbp), %rax	# op0, tmp142
	movzwl	(%rax), %eax	# op0_20(D)->code, D.17587
	cmpw	$63, %ax	#, D.17587
	jne	.L385	#,
.LBB34:
	.loc 1 1815 0
	movq	-88(%rbp), %rax	# op0, tmp143
	movl	16(%rax), %eax	# op0_20(D)->fld[1].rtuint, D.17591
	movl	target_flags(%rip), %edx	# target_flags, target_flags.245
	andl	$33554432, %edx	#, D.17588
	testl	%edx, %edx	# D.17588
	je	.L386	#,
	.loc 1 1815 0 is_stmt 0 discriminator 1
	movl	$8, %ebx	#, iftmp.244
	jmp	.L387	#
.L386:
	.loc 1 1815 0 discriminator 2
	movl	$4, %ebx	#, iftmp.244
.L387:
	.loc 1 1815 0 discriminator 1
	movl	$0, %edx	#, tmp145
	divl	%ebx	# iftmp.244
	movl	%eax, %edx	# tmp144, D.17591
	movq	-40(%rbp), %rax	# offset, tmp146
	addl	%edx, %eax	# D.17591, D.17592
	movl	%eax, -68(%rbp)	# D.17592, word_offset
	.loc 1 1817 0 is_stmt 1 discriminator 1
	movq	-88(%rbp), %rax	# op0, tmp147
	movq	8(%rax), %rax	# op0_20(D)->fld[0].rtx, D.17593
	movzbl	2(%rax), %eax	# _68->mode, D.17594
	.loc 1 1816 0 discriminator 1
	movzbl	%al, %edx	# D.17594, D.17595
	movl	-68(%rbp), %ecx	# word_offset, word_offset.246
	movq	-88(%rbp), %rax	# op0, tmp148
	movq	8(%rax), %rax	# op0_20(D)->fld[0].rtx, D.17593
	movl	%ecx, %esi	# word_offset.246,
	movq	%rax, %rdi	# D.17593,
	call	operand_subword_force	#
	movq	%rax, -48(%rbp)	# tmp149, word
	.loc 1 1818 0 discriminator 1
	movq	$0, -40(%rbp)	#, offset
.LBE34:
	jmp	.L388	#
.L385:
	.loc 1 1820 0
	movq	-88(%rbp), %rax	# op0, tmp150
	movzwl	(%rax), %eax	# op0_20(D)->code, D.17587
	cmpw	$61, %ax	#, D.17587
	jne	.L389	#,
	.loc 1 1822 0
	movq	-88(%rbp), %rax	# op0, tmp151
	movzbl	2(%rax), %eax	# op0_20(D)->mode, D.17594
	movzbl	%al, %edx	# D.17594, D.17595
	movq	-40(%rbp), %rax	# offset, tmp152
	movl	%eax, %ecx	# tmp152, D.17591
	movq	-88(%rbp), %rax	# op0, tmp153
	movl	%ecx, %esi	# D.17591,
	movq	%rax, %rdi	# tmp153,
	call	operand_subword_force	#
	movq	%rax, -48(%rbp)	# tmp154, word
	.loc 1 1823 0
	movq	$0, -40(%rbp)	#, offset
	jmp	.L388	#
.L389:
	.loc 1 1826 0
	movq	-88(%rbp), %rax	# op0, tmp155
	movq	%rax, -48(%rbp)	# tmp155, word
.L388:
	.loc 1 1833 0
	movl	-80(%rbp), %eax	# unit, D.17590
	imulq	-40(%rbp), %rax	# offset, D.17590
	.loc 1 1832 0
	shrq	$3, %rax	#, D.17590
	movq	%rax, %rdi	# D.17590, D.17590
	movl	word_mode(%rip), %eax	# word_mode, word_mode.247
	movq	-32(%rbp), %rcx	# thispos, tmp156
	movq	-24(%rbp), %rdx	# thissize, tmp157
	movq	-48(%rbp), %rsi	# word, tmp158
	movl	$1, (%rsp)	#,
	movl	$0, %r9d	#,
	movq	%rcx, %r8	# tmp156,
	movq	%rdx, %rcx	# tmp157,
	movq	%rdi, %rdx	# D.17590,
	movl	%eax, %edi	# word_mode.247,
	call	extract_fixed_bit_field	#
	movq	%rax, -56(%rbp)	# tmp159, part
	.loc 1 1835 0
	movq	-24(%rbp), %rax	# thissize, tmp160
	addl	%eax, -76(%rbp)	# D.17591, bitsdone
	.loc 1 1846 0
	movl	-76(%rbp), %eax	# bitsdone, D.17590
	cmpq	-24(%rbp), %rax	# thissize, D.17590
	je	.L390	#,
	.loc 1 1847 0
	movl	-76(%rbp), %eax	# bitsdone, D.17590
	subq	-24(%rbp), %rax	# thissize, D.17590
	movl	$0, %esi	#,
	movq	%rax, %rdi	# D.17590,
	call	build_int_2_wide	#
	movq	%rax, %rcx	#, D.17596
	movl	word_mode(%rip), %eax	# word_mode, word_mode.249
	movq	-56(%rbp), %rdx	# part, tmp161
	movl	$1, %r9d	#,
	movl	$0, %r8d	#,
	movl	%eax, %esi	# word_mode.249,
	movl	$82, %edi	#,
	call	expand_shift	#
	movq	%rax, -56(%rbp)	# tmp162, part
.L390:
	.loc 1 1851 0
	cmpl	$0, -72(%rbp)	#, first
	je	.L391	#,
	.loc 1 1852 0
	movq	-56(%rbp), %rax	# part, tmp163
	movq	%rax, -64(%rbp)	# tmp163, result
	jmp	.L392	#
.L391:
	.loc 1 1856 0
	movq	optab_table+152(%rip), %rsi	# optab_table, D.17597
	movl	word_mode(%rip), %eax	# word_mode, word_mode.250
	movq	-64(%rbp), %rcx	# result, tmp164
	movq	-56(%rbp), %rdx	# part, tmp165
	movl	$3, (%rsp)	#,
	movl	$1, %r9d	#,
	movl	$0, %r8d	#,
	movl	%eax, %edi	# word_mode.250,
	call	expand_binop	#
	movq	%rax, -64(%rbp)	# tmp166, result
.L392:
	.loc 1 1859 0
	movl	$0, -72(%rbp)	#, first
.L382:
.LBE33:
	.loc 1 1791 0 discriminator 1
	movl	-76(%rbp), %eax	# bitsdone, D.17590
	cmpq	-96(%rbp), %rax	# bitsize, D.17590
	jb	.L393	#,
	.loc 1 1863 0
	cmpl	$0, -108(%rbp)	#, unsignedp
	je	.L394	#,
	.loc 1 1864 0
	movq	-64(%rbp), %rax	# result, D.17586
	jmp	.L395	#
.L394:
	.loc 1 1867 0
	movl	target_flags(%rip), %eax	# target_flags, target_flags.252
	andl	$33554432, %eax	#, D.17588
	.loc 1 1866 0
	testl	%eax, %eax	# D.17588
	je	.L396	#,
	.loc 1 1866 0 is_stmt 0 discriminator 1
	movl	$64, %eax	#, iftmp.251
	jmp	.L397	#
.L396:
	.loc 1 1866 0 discriminator 2
	movl	$32, %eax	#, iftmp.251
.L397:
	.loc 1 1866 0 discriminator 3
	subq	-96(%rbp), %rax	# bitsize, D.17590
	movl	$0, %esi	#,
	movq	%rax, %rdi	# D.17590,
	call	build_int_2_wide	#
	movq	%rax, %rcx	#, D.17596
	movl	word_mode(%rip), %eax	# word_mode, word_mode.253
	movq	-64(%rbp), %rdx	# result, tmp167
	movl	$0, %r9d	#,
	movl	$0, %r8d	#,
	movl	%eax, %esi	# word_mode.253,
	movl	$82, %edi	#,
	call	expand_shift	#
	movq	%rax, -64(%rbp)	# tmp168, result
	.loc 1 1870 0 is_stmt 1 discriminator 3
	movl	target_flags(%rip), %eax	# target_flags, target_flags.255
	andl	$33554432, %eax	#, D.17588
	.loc 1 1869 0 discriminator 3
	testl	%eax, %eax	# D.17588
	je	.L398	#,
	.loc 1 1869 0 is_stmt 0 discriminator 1
	movl	$64, %eax	#, iftmp.254
	jmp	.L399	#
.L398:
	.loc 1 1869 0 discriminator 2
	movl	$32, %eax	#, iftmp.254
.L399:
	.loc 1 1869 0 discriminator 3
	subq	-96(%rbp), %rax	# bitsize, D.17590
	movl	$0, %esi	#,
	movq	%rax, %rdi	# D.17590,
	call	build_int_2_wide	#
	movq	%rax, %rcx	#, D.17596
	movl	word_mode(%rip), %eax	# word_mode, word_mode.256
	movq	-64(%rbp), %rdx	# result, tmp169
	movl	$0, %r9d	#,
	movl	$0, %r8d	#,
	movl	%eax, %esi	# word_mode.256,
	movl	$83, %edi	#,
	call	expand_shift	#
.L395:
	.loc 1 1871 0 is_stmt 1
	addq	$120, %rsp	#,
	popq	%rbx	#
	popq	%rbp	#
	.cfi_def_cfa 7, 8
	ret
	.cfi_endproc
.LFE12:
	.size	extract_split_bit_field, .-extract_split_bit_field
	.globl	expand_inc
	.type	expand_inc, @function
expand_inc:
.LFB13:
	.loc 1 1878 0
	.cfi_startproc
	pushq	%rbp	#
	.cfi_def_cfa_offset 16
	.cfi_offset 6, -16
	movq	%rsp, %rbp	#,
	.cfi_def_cfa_register 6
	subq	$48, %rsp	#,
	movq	%rdi, -24(%rbp)	# target, target
	movq	%rsi, -32(%rbp)	# inc, inc
	.loc 1 1879 0
	movq	optab_table(%rip), %rsi	# optab_table, D.17598
	movq	-24(%rbp), %rax	# target, tmp62
	movzbl	2(%rax), %eax	# target_2(D)->mode, D.17599
	movzbl	%al, %eax	# D.17599, D.17600
	movq	-24(%rbp), %rdi	# target, tmp63
	movq	-32(%rbp), %rcx	# inc, tmp64
	movq	-24(%rbp), %rdx	# target, tmp65
	movl	$3, (%rsp)	#,
	movl	$0, %r9d	#,
	movq	%rdi, %r8	# tmp63,
	movl	%eax, %edi	# D.17600,
	call	expand_binop	#
	movq	%rax, -8(%rbp)	# tmp66, value
	.loc 1 1882 0
	movq	-8(%rbp), %rax	# value, tmp67
	cmpq	-24(%rbp), %rax	# target, tmp67
	je	.L400	#,
	.loc 1 1883 0
	movq	-8(%rbp), %rdx	# value, tmp68
	movq	-24(%rbp), %rax	# target, tmp69
	movq	%rdx, %rsi	# tmp68,
	movq	%rax, %rdi	# tmp69,
	call	emit_move_insn	#
.L400:
	.loc 1 1884 0
	leave
	.cfi_def_cfa 7, 8
	ret
	.cfi_endproc
.LFE13:
	.size	expand_inc, .-expand_inc
	.globl	expand_dec
	.type	expand_dec, @function
expand_dec:
.LFB14:
	.loc 1 1891 0
	.cfi_startproc
	pushq	%rbp	#
	.cfi_def_cfa_offset 16
	.cfi_offset 6, -16
	movq	%rsp, %rbp	#,
	.cfi_def_cfa_register 6
	subq	$48, %rsp	#,
	movq	%rdi, -24(%rbp)	# target, target
	movq	%rsi, -32(%rbp)	# dec, dec
	.loc 1 1892 0
	movq	optab_table+16(%rip), %rsi	# optab_table, D.17601
	movq	-24(%rbp), %rax	# target, tmp62
	movzbl	2(%rax), %eax	# target_2(D)->mode, D.17602
	movzbl	%al, %eax	# D.17602, D.17603
	movq	-24(%rbp), %rdi	# target, tmp63
	movq	-32(%rbp), %rcx	# dec, tmp64
	movq	-24(%rbp), %rdx	# target, tmp65
	movl	$3, (%rsp)	#,
	movl	$0, %r9d	#,
	movq	%rdi, %r8	# tmp63,
	movl	%eax, %edi	# D.17603,
	call	expand_binop	#
	movq	%rax, -8(%rbp)	# tmp66, value
	.loc 1 1895 0
	movq	-8(%rbp), %rax	# value, tmp67
	cmpq	-24(%rbp), %rax	# target, tmp67
	je	.L402	#,
	.loc 1 1896 0
	movq	-8(%rbp), %rdx	# value, tmp68
	movq	-24(%rbp), %rax	# target, tmp69
	movq	%rdx, %rsi	# tmp68,
	movq	%rax, %rdi	# tmp69,
	call	emit_move_insn	#
.L402:
	.loc 1 1897 0
	leave
	.cfi_def_cfa 7, 8
	ret
	.cfi_endproc
.LFE14:
	.size	expand_dec, .-expand_dec
	.globl	expand_shift
	.type	expand_shift, @function
expand_shift:
.LFB15:
	.loc 1 1914 0
	.cfi_startproc
	pushq	%rbp	#
	.cfi_def_cfa_offset 16
	.cfi_offset 6, -16
	movq	%rsp, %rbp	#,
	.cfi_def_cfa_register 6
	addq	$-128, %rsp	#,
	movl	%edi, -84(%rbp)	# code, code
	movl	%esi, -88(%rbp)	# mode, mode
	movq	%rdx, -96(%rbp)	# shifted, shifted
	movq	%rcx, -104(%rbp)	# amount, amount
	movq	%r8, -112(%rbp)	# target, target
	movl	%r9d, -116(%rbp)	# unsignedp, unsignedp
	.loc 1 1915 0
	movq	$0, -56(%rbp)	#, temp
	.loc 1 1916 0
	cmpl	$82, -84(%rbp)	#, code
	je	.L405	#,
	.loc 1 1916 0 is_stmt 0 discriminator 2
	cmpl	$84, -84(%rbp)	#, code
	jne	.L406	#,
.L405:
	.loc 1 1916 0 discriminator 1
	movl	$1, %eax	#, iftmp.257
	jmp	.L407	#
.L406:
	.loc 1 1916 0 discriminator 3
	movl	$0, %eax	#, iftmp.257
.L407:
	.loc 1 1916 0 discriminator 4
	movl	%eax, -64(%rbp)	# iftmp.257, left
	.loc 1 1917 0 is_stmt 1 discriminator 4
	cmpl	$84, -84(%rbp)	#, code
	je	.L408	#,
	.loc 1 1917 0 is_stmt 0 discriminator 2
	cmpl	$85, -84(%rbp)	#, code
	jne	.L409	#,
.L408:
	.loc 1 1917 0 discriminator 1
	movl	$1, %eax	#, iftmp.258
	jmp	.L410	#
.L409:
	.loc 1 1917 0 discriminator 3
	movl	$0, %eax	#, iftmp.258
.L410:
	.loc 1 1917 0 discriminator 4
	movl	%eax, -60(%rbp)	# iftmp.258, rotate
	.loc 1 1924 0 is_stmt 1 discriminator 4
	movq	-104(%rbp), %rax	# amount, tmp91
	movl	$0, %ecx	#,
	movl	$0, %edx	#,
	movl	$0, %esi	#,
	movq	%rax, %rdi	# tmp91,
	call	expand_expr	#
	movq	%rax, -48(%rbp)	# tmp92, op1
	.loc 1 1940 0 discriminator 4
	movq	const_int_rtx+512(%rip), %rax	# const_int_rtx, D.17605
	cmpq	-48(%rbp), %rax	# op1, D.17605
	jne	.L411	#,
	.loc 1 1941 0
	movq	-96(%rbp), %rax	# shifted, D.17604
	jmp	.L412	#
.L411:
	.loc 1 1943 0
	movl	$0, -76(%rbp)	#, try
	jmp	.L413	#
.L440:
.LBB35:
	.loc 1 1947 0
	cmpl	$0, -76(%rbp)	#, try
	jne	.L414	#,
	.loc 1 1948 0
	movl	$0, -72(%rbp)	#, methods
	jmp	.L415	#
.L414:
	.loc 1 1949 0
	cmpl	$1, -76(%rbp)	#, try
	jne	.L416	#,
	.loc 1 1950 0
	movl	$2, -72(%rbp)	#, methods
	jmp	.L415	#
.L416:
	.loc 1 1952 0
	movl	$3, -72(%rbp)	#, methods
.L415:
	.loc 1 1954 0
	cmpl	$0, -60(%rbp)	#, rotate
	je	.L417	#,
	.loc 1 1957 0
	cmpl	$2, -72(%rbp)	#, methods
	jne	.L418	#,
	.loc 1 1958 0
	jmp	.L419	#
.L418:
	.loc 1 1959 0
	cmpl	$3, -72(%rbp)	#, methods
	jne	.L420	#,
.LBB36:
	.loc 1 1973 0
	movq	-112(%rbp), %rax	# target, tmp93
	cmpq	-96(%rbp), %rax	# shifted, tmp93
	je	.L421	#,
	.loc 1 1973 0 is_stmt 0 discriminator 1
	movq	-112(%rbp), %rax	# target, iftmp.259
	jmp	.L422	#
.L421:
	.loc 1 1973 0 discriminator 2
	movl	$0, %eax	#, iftmp.259
.L422:
	.loc 1 1973 0 discriminator 3
	movq	%rax, -40(%rbp)	# iftmp.259, subtarget
	.loc 1 1975 0 is_stmt 1 discriminator 3
	movq	-104(%rbp), %rax	# amount, tmp94
	movq	8(%rax), %rax	# amount_26(D)->common.type, tmp95
	movq	%rax, -32(%rbp)	# tmp95, type
	.loc 1 1976 0 discriminator 3
	movq	-48(%rbp), %rdx	# op1, tmp96
	movq	-32(%rbp), %rax	# type, tmp97
	movq	%rdx, %rsi	# tmp96,
	movq	%rax, %rdi	# tmp97,
	call	make_tree	#
	movq	%rax, -24(%rbp)	# tmp98, new_amount
	.loc 1 1980 0 discriminator 3
	movl	-88(%rbp), %eax	# mode, mode.260
	cltq
	movzwl	mode_bitsize(%rax,%rax), %eax	# mode_bitsize, D.17606
	.loc 1 1978 0 discriminator 3
	movzwl	%ax, %eax	# D.17606, D.17607
	movl	$0, %esi	#,
	movq	%rax, %rdi	# D.17607,
	call	build_int_2_wide	#
	movq	%rax, %rdx	#, D.17608
	movq	-32(%rbp), %rax	# type, tmp100
	movq	%rdx, %rsi	# D.17608,
	movq	%rax, %rdi	# tmp100,
	call	convert	#
	movq	%rax, %rdx	#, D.17608
	movq	-104(%rbp), %rcx	# amount, tmp101
	movq	-32(%rbp), %rax	# type, tmp102
	movq	%rax, %rsi	# tmp102,
	movl	$60, %edi	#,
	movl	$0, %eax	#,
	call	build	#
	.loc 1 1977 0 discriminator 3
	movq	%rax, %rdi	# D.17608,
	call	fold	#
	movq	%rax, -16(%rbp)	# tmp103, other_amount
	.loc 1 1984 0 discriminator 3
	movq	-96(%rbp), %rdx	# shifted, tmp104
	movl	-88(%rbp), %eax	# mode, tmp105
	movq	%rdx, %rsi	# tmp104,
	movl	%eax, %edi	# tmp105,
	call	force_reg	#
	movq	%rax, -96(%rbp)	# tmp106, shifted
	.loc 1 1986 0 discriminator 3
	cmpl	$0, -64(%rbp)	#, left
	je	.L423	#,
	.loc 1 1986 0 is_stmt 0 discriminator 1
	movl	$82, %eax	#, iftmp.261
	jmp	.L424	#
.L423:
	.loc 1 1986 0 discriminator 2
	movl	$83, %eax	#, iftmp.261
.L424:
	.loc 1 1986 0 discriminator 3
	movq	-40(%rbp), %rdi	# subtarget, tmp107
	movq	-24(%rbp), %rcx	# new_amount, tmp108
	movq	-96(%rbp), %rdx	# shifted, tmp109
	movl	-88(%rbp), %esi	# mode, tmp110
	movl	$1, %r9d	#,
	movq	%rdi, %r8	# tmp107,
	movl	%eax, %edi	# iftmp.261,
	call	expand_shift	#
	movq	%rax, -56(%rbp)	# tmp111, temp
	.loc 1 1988 0 is_stmt 1 discriminator 3
	cmpl	$0, -64(%rbp)	#, left
	je	.L425	#,
	.loc 1 1988 0 is_stmt 0 discriminator 1
	movl	$83, %eax	#, iftmp.262
	jmp	.L426	#
.L425:
	.loc 1 1988 0 discriminator 2
	movl	$82, %eax	#, iftmp.262
.L426:
	.loc 1 1988 0 discriminator 3
	movq	-16(%rbp), %rcx	# other_amount, tmp112
	movq	-96(%rbp), %rdx	# shifted, tmp113
	movl	-88(%rbp), %esi	# mode, tmp114
	movl	$1, %r9d	#,
	movl	$0, %r8d	#,
	movl	%eax, %edi	# iftmp.262,
	call	expand_shift	#
	movq	%rax, -8(%rbp)	# tmp115, temp1
	.loc 1 1990 0 is_stmt 1 discriminator 3
	movq	optab_table+152(%rip), %rsi	# optab_table, D.17609
	movl	-116(%rbp), %r9d	# unsignedp, tmp116
	movq	-112(%rbp), %r8	# target, tmp117
	movq	-8(%rbp), %rcx	# temp1, tmp118
	movq	-56(%rbp), %rdx	# temp, tmp119
	movl	-88(%rbp), %eax	# mode, tmp120
	movl	-72(%rbp), %edi	# methods, tmp121
	movl	%edi, (%rsp)	# tmp121,
	movl	%eax, %edi	# tmp120,
	call	expand_binop	#
	jmp	.L412	#
.L420:
.LBE36:
	.loc 1 1994 0
	cmpl	$0, -64(%rbp)	#, left
	je	.L427	#,
	.loc 1 1994 0 is_stmt 0 discriminator 1
	movq	optab_table+192(%rip), %rax	# optab_table, iftmp.263
	jmp	.L428	#
.L427:
	.loc 1 1994 0 discriminator 2
	movq	optab_table+200(%rip), %rax	# optab_table, iftmp.263
.L428:
	.loc 1 1994 0 discriminator 3
	movl	-116(%rbp), %r9d	# unsignedp, tmp122
	movq	-112(%rbp), %r8	# target, tmp123
	movq	-48(%rbp), %rcx	# op1, tmp124
	movq	-96(%rbp), %rdx	# shifted, tmp125
	movl	-88(%rbp), %edi	# mode, tmp126
	movl	-72(%rbp), %esi	# methods, tmp127
	movl	%esi, (%rsp)	# tmp127,
	movq	%rax, %rsi	# iftmp.263,
	call	expand_binop	#
	movq	%rax, -56(%rbp)	# tmp128, temp
	.loc 1 2001 0 is_stmt 1 discriminator 3
	cmpq	$0, -56(%rbp)	#, temp
	jne	.L432	#,
	.loc 1 2001 0 is_stmt 0 discriminator 1
	movq	-48(%rbp), %rax	# op1, tmp129
	movzwl	(%rax), %eax	# op1_27->code, D.17606
	cmpw	$54, %ax	#, D.17606
	jne	.L432	#,
	.loc 1 2002 0 is_stmt 1
	movq	-48(%rbp), %rax	# op1, tmp130
	movq	8(%rax), %rax	# op1_27->fld[0].rtwint, D.17610
	testq	%rax, %rax	# D.17610
	jle	.L432	#,
	.loc 1 2003 0
	movq	-48(%rbp), %rax	# op1, tmp131
	movq	8(%rax), %rax	# op1_27->fld[0].rtwint, D.17610
	movl	%eax, %edx	# D.17610, D.17611
	movl	-88(%rbp), %eax	# mode, mode.264
	cltq
	movzwl	mode_bitsize(%rax,%rax), %eax	# mode_bitsize, D.17606
	movzwl	%ax, %eax	# D.17606, D.17611
	cmpl	%eax, %edx	# D.17611, D.17611
	jae	.L432	#,
	.loc 1 2007 0
	movl	-88(%rbp), %eax	# mode, mode.265
	cltq
	movzwl	mode_bitsize(%rax,%rax), %eax	# mode_bitsize, D.17606
	.loc 1 2004 0
	movzwl	%ax, %edx	# D.17606, D.17610
	.loc 1 2007 0
	movq	-48(%rbp), %rax	# op1, tmp134
	movq	8(%rax), %rax	# op1_27->fld[0].rtwint, D.17610
	.loc 1 2004 0
	subq	%rax, %rdx	# D.17610, D.17610
	movq	%rdx, %rax	# D.17610, D.17610
	movq	%rax, %rsi	# D.17610,
	movl	$0, %edi	#,
	call	gen_rtx_CONST_INT	#
	movq	%rax, %rcx	#, D.17605
	cmpl	$0, -64(%rbp)	#, left
	je	.L430	#,
	.loc 1 2004 0 is_stmt 0 discriminator 1
	movq	optab_table+200(%rip), %rax	# optab_table, iftmp.266
	jmp	.L431	#
.L430:
	.loc 1 2004 0 discriminator 2
	movq	optab_table+192(%rip), %rax	# optab_table, iftmp.266
.L431:
	.loc 1 2004 0 discriminator 3
	movl	-116(%rbp), %r9d	# unsignedp, tmp135
	movq	-112(%rbp), %r8	# target, tmp136
	movq	-96(%rbp), %rdx	# shifted, tmp137
	movl	-88(%rbp), %edi	# mode, tmp138
	movl	-72(%rbp), %esi	# methods, tmp139
	movl	%esi, (%rsp)	# tmp139,
	movq	%rax, %rsi	# iftmp.266,
	call	expand_binop	#
	movq	%rax, -56(%rbp)	# tmp140, temp
	jmp	.L432	#
.L417:
	.loc 1 2011 0 is_stmt 1
	cmpl	$0, -116(%rbp)	#, unsignedp
	je	.L432	#,
	.loc 1 2012 0
	cmpl	$0, -64(%rbp)	#, left
	je	.L433	#,
	.loc 1 2012 0 is_stmt 0 discriminator 1
	movq	optab_table+168(%rip), %rax	# optab_table, iftmp.267
	jmp	.L434	#
.L433:
	.loc 1 2012 0 discriminator 2
	movq	optab_table+176(%rip), %rax	# optab_table, iftmp.267
.L434:
	.loc 1 2012 0 discriminator 3
	movl	-116(%rbp), %r9d	# unsignedp, tmp141
	movq	-112(%rbp), %r8	# target, tmp142
	movq	-48(%rbp), %rcx	# op1, tmp143
	movq	-96(%rbp), %rdx	# shifted, tmp144
	movl	-88(%rbp), %edi	# mode, tmp145
	movl	-72(%rbp), %esi	# methods, tmp146
	movl	%esi, (%rsp)	# tmp146,
	movq	%rax, %rsi	# iftmp.267,
	call	expand_binop	#
	movq	%rax, -56(%rbp)	# tmp147, temp
.L432:
	.loc 1 2019 0 is_stmt 1
	cmpq	$0, -56(%rbp)	#, temp
	jne	.L419	#,
	.loc 1 2019 0 is_stmt 0 discriminator 1
	cmpl	$0, -60(%rbp)	#, rotate
	jne	.L419	#,
	.loc 1 2020 0 is_stmt 1
	cmpl	$0, -116(%rbp)	#, unsignedp
	je	.L435	#,
	.loc 1 2020 0 is_stmt 0 discriminator 1
	cmpl	$0, -64(%rbp)	#, left
	jne	.L419	#,
	cmpl	$2, -72(%rbp)	#, methods
	jne	.L419	#,
.L435:
.LBB37:
	.loc 1 2022 0 is_stmt 1
	movl	-72(%rbp), %eax	# methods, tmp148
	movl	%eax, -68(%rbp)	# tmp148, methods1
	.loc 1 2026 0
	cmpl	$0, -116(%rbp)	#, unsignedp
	je	.L436	#,
	.loc 1 2027 0
	movl	$4, -68(%rbp)	#, methods1
.L436:
	.loc 1 2031 0
	cmpl	$0, -64(%rbp)	#, left
	je	.L437	#,
	.loc 1 2031 0 is_stmt 0 discriminator 1
	movq	optab_table+168(%rip), %rax	# optab_table, iftmp.268
	jmp	.L438	#
.L437:
	.loc 1 2031 0 discriminator 2
	movq	optab_table+184(%rip), %rax	# optab_table, iftmp.268
.L438:
	.loc 1 2031 0 discriminator 3
	movl	-116(%rbp), %r9d	# unsignedp, tmp149
	movq	-112(%rbp), %r8	# target, tmp150
	movq	-48(%rbp), %rcx	# op1, tmp151
	movq	-96(%rbp), %rdx	# shifted, tmp152
	movl	-88(%rbp), %edi	# mode, tmp153
	movl	-68(%rbp), %esi	# methods1, tmp154
	movl	%esi, (%rsp)	# tmp154,
	movq	%rax, %rsi	# iftmp.268,
	call	expand_binop	#
	movq	%rax, -56(%rbp)	# tmp155, temp
.L419:
.LBE37:
.LBE35:
	.loc 1 1943 0 is_stmt 1
	addl	$1, -76(%rbp)	#, try
.L413:
	.loc 1 1943 0 is_stmt 0 discriminator 1
	cmpq	$0, -56(%rbp)	#, temp
	jne	.L439	#,
	.loc 1 1943 0 discriminator 2
	cmpl	$2, -76(%rbp)	#, try
	jle	.L440	#,
.L439:
	.loc 1 2042 0 is_stmt 1
	cmpq	$0, -56(%rbp)	#, temp
	jne	.L441	#,
	.loc 1 2043 0
	movl	$__FUNCTION__.13007, %edx	#,
	movl	$2043, %esi	#,
	movl	$.LC0, %edi	#,
	call	fancy_abort	#
.L441:
	.loc 1 2044 0
	movq	-56(%rbp), %rax	# temp, D.17604
.L412:
	.loc 1 2045 0
	leave
	.cfi_def_cfa 7, 8
	ret
	.cfi_endproc
.LFE15:
	.size	expand_shift, .-expand_shift
	.type	synth_mult, @function
synth_mult:
.LFB16:
	.loc 1 2104 0
	.cfi_startproc
	pushq	%rbp	#
	.cfi_def_cfa_offset 16
	.cfi_offset 6, -16
	movq	%rsp, %rbp	#,
	.cfi_def_cfa_register 6
	pushq	%rbx	#
	subq	$152, %rsp	#,
	.cfi_offset 3, -24
	movq	%rdi, -136(%rbp)	# alg_out, alg_out
	movq	%rsi, -144(%rbp)	# t, t
	movl	%edx, -148(%rbp)	# cost_limit, cost_limit
	.loc 1 2112 0
	movl	-148(%rbp), %eax	# cost_limit, tmp178
	movl	%eax, %edx	# tmp178, D.17612
	movq	-136(%rbp), %rax	# alg_out, tmp179
	movw	%dx, (%rax)	# D.17612, alg_out_33(D)->cost
	.loc 1 2114 0
	cmpl	$0, -148(%rbp)	#, cost_limit
	jg	.L443	#,
	.loc 1 2115 0
	jmp	.L442	#
.L443:
	.loc 1 2118 0
	cmpq	$1, -144(%rbp)	#, t
	jne	.L445	#,
	.loc 1 2120 0
	movq	-136(%rbp), %rax	# alg_out, tmp180
	movw	$1, 2(%rax)	#, alg_out_33(D)->ops
	.loc 1 2121 0
	movq	-136(%rbp), %rax	# alg_out, tmp181
	movw	$0, (%rax)	#, alg_out_33(D)->cost
	.loc 1 2122 0
	movq	-136(%rbp), %rax	# alg_out, tmp182
	movl	$1, 4(%rax)	#, alg_out_33(D)->op
	.loc 1 2123 0
	jmp	.L442	#
.L445:
	.loc 1 2128 0
	cmpq	$0, -144(%rbp)	#, t
	jne	.L446	#,
	.loc 1 2130 0
	movl	zero_cost(%rip), %eax	# zero_cost, zero_cost.269
	cmpl	-148(%rbp), %eax	# cost_limit, zero_cost.269
	jl	.L447	#,
	.loc 1 2131 0
	jmp	.L442	#
.L447:
	.loc 1 2134 0
	movq	-136(%rbp), %rax	# alg_out, tmp183
	movw	$1, 2(%rax)	#, alg_out_33(D)->ops
	.loc 1 2135 0
	movl	zero_cost(%rip), %eax	# zero_cost, zero_cost.270
	movl	%eax, %edx	# zero_cost.270, D.17612
	movq	-136(%rbp), %rax	# alg_out, tmp184
	movw	%dx, (%rax)	# D.17612, alg_out_33(D)->cost
	.loc 1 2136 0
	movq	-136(%rbp), %rax	# alg_out, tmp185
	movl	$0, 4(%rax)	#, alg_out_33(D)->op
	.loc 1 2137 0
	jmp	.L442	#
.L446:
	.loc 1 2143 0
	movl	$16, %eax	#, tmp405
	subq	$1, %rax	#, tmp186
	addq	$339, %rax	#, tmp187
	movl	$16, %ebx	#, tmp406
	movl	$0, %edx	#, tmp190
	divq	%rbx	# tmp406
	imulq	$16, %rax, %rax	#, tmp189, tmp191
	subq	%rax, %rsp	# tmp191,
	movq	%rsp, %rax	#, tmp192
	addq	$15, %rax	#, tmp193
	shrq	$4, %rax	#, tmp194
	salq	$4, %rax	#, tmp195
	movq	%rax, -112(%rbp)	# tmp195, alg_in
	.loc 1 2144 0
	movl	$16, %eax	#, tmp407
	subq	$1, %rax	#, tmp196
	addq	$339, %rax	#, tmp197
	movl	$16, %ebx	#, tmp408
	movl	$0, %edx	#, tmp200
	divq	%rbx	# tmp408
	imulq	$16, %rax, %rax	#, tmp199, tmp201
	subq	%rax, %rsp	# tmp201,
	movq	%rsp, %rax	#, tmp202
	addq	$15, %rax	#, tmp203
	shrq	$4, %rax	#, tmp204
	salq	$4, %rax	#, tmp205
	movq	%rax, -104(%rbp)	# tmp205, best_alg
	.loc 1 2149 0
	movq	-144(%rbp), %rax	# t, tmp206
	andl	$1, %eax	#, D.17613
	testq	%rax, %rax	# D.17613
	jne	.L448	#,
	.loc 1 2151 0
	movq	-144(%rbp), %rax	# t, tmp207
	negq	%rax	# D.17613
	andq	-144(%rbp), %rax	# t, D.17613
	movq	%rax, %rdi	# D.17613,
	call	floor_log2_wide	#
	movl	%eax, -120(%rbp)	# tmp208, m
	.loc 1 2152 0
	movl	target_flags(%rip), %eax	# target_flags, target_flags.272
	andl	$33554432, %eax	#, D.17614
	testl	%eax, %eax	# D.17614
	je	.L449	#,
	.loc 1 2152 0 is_stmt 0 discriminator 1
	movl	$64, %eax	#, iftmp.271
	jmp	.L450	#
.L449:
	.loc 1 2152 0 discriminator 2
	movl	$32, %eax	#, iftmp.271
.L450:
	.loc 1 2152 0 discriminator 3
	cmpl	-120(%rbp), %eax	# m, iftmp.271
	jle	.L448	#,
	.loc 1 2154 0 is_stmt 1
	movl	-120(%rbp), %eax	# m, tmp212
	movq	-144(%rbp), %rdx	# t, tmp214
	movl	%eax, %ecx	# tmp212, tmp412
	shrq	%cl, %rdx	# tmp412, tmp213
	movq	%rdx, %rax	# tmp213, tmp213
	movq	%rax, -88(%rbp)	# tmp213, q
	.loc 1 2155 0
	movl	-120(%rbp), %eax	# m, tmp216
	cltq
	movl	shift_cost(,%rax,4), %eax	# shift_cost, tmp217
	movl	%eax, -116(%rbp)	# tmp217, cost
	.loc 1 2156 0
	movl	-116(%rbp), %eax	# cost, tmp218
	movl	-148(%rbp), %edx	# cost_limit, tmp219
	subl	%eax, %edx	# tmp218, D.17614
	movq	-88(%rbp), %rcx	# q, tmp220
	movq	-112(%rbp), %rax	# alg_in, tmp221
	movq	%rcx, %rsi	# tmp220,
	movq	%rax, %rdi	# tmp221,
	call	synth_mult	#
	.loc 1 2158 0
	movq	-112(%rbp), %rax	# alg_in, tmp222
	movzwl	(%rax), %eax	# alg_in_38->cost, D.17612
	cwtl
	addl	%eax, -116(%rbp)	# D.17614, cost
	.loc 1 2159 0
	movl	-116(%rbp), %eax	# cost, tmp223
	cmpl	-148(%rbp), %eax	# cost_limit, tmp223
	jge	.L448	#,
.LBB38:
	.loc 1 2162 0
	movq	-112(%rbp), %rax	# alg_in, tmp224
	movq	%rax, -80(%rbp)	# tmp224, x
	movq	-104(%rbp), %rax	# best_alg, tmp225
	movq	%rax, -112(%rbp)	# tmp225, alg_in
	movq	-80(%rbp), %rax	# x, tmp226
	movq	%rax, -104(%rbp)	# tmp226, best_alg
	.loc 1 2163 0
	movq	-104(%rbp), %rax	# best_alg, tmp227
	movzwl	2(%rax), %eax	# best_alg_56->ops, D.17612
	cwtl
	movl	-120(%rbp), %edx	# m, tmp228
	movl	%edx, %ecx	# tmp228, D.17615
	movq	-104(%rbp), %rdx	# best_alg, tmp229
	cltq
	movb	%cl, 260(%rdx,%rax)	# D.17615, best_alg_56->log
	.loc 1 2164 0
	movq	-104(%rbp), %rax	# best_alg, tmp231
	movzwl	2(%rax), %eax	# best_alg_56->ops, D.17612
	movswl	%ax, %edx	# D.17612, D.17614
	movq	-104(%rbp), %rax	# best_alg, tmp232
	movslq	%edx, %rdx	# D.17614, tmp233
	movl	$2, 4(%rax,%rdx,4)	#, best_alg_56->op
	.loc 1 2165 0
	movl	-116(%rbp), %eax	# cost, tmp234
	movl	%eax, -148(%rbp)	# tmp234, cost_limit
.L448:
.LBE38:
	.loc 1 2171 0
	movq	-144(%rbp), %rax	# t, tmp235
	andl	$1, %eax	#, D.17613
	testq	%rax, %rax	# D.17613
	je	.L451	#,
.LBB39:
	.loc 1 2175 0
	movq	$1, -96(%rbp)	#, w
	jmp	.L452	#
.L453:
	.loc 1 2175 0 is_stmt 0 discriminator 2
	salq	-96(%rbp)	# w
.L452:
	.loc 1 2175 0 discriminator 1
	movq	-144(%rbp), %rax	# t, tmp236
	movq	-96(%rbp), %rdx	# w, tmp237
	andq	%rdx, %rax	# tmp237, D.17613
	testq	%rax, %rax	# D.17613
	jne	.L453	#,
	.loc 1 2182 0 is_stmt 1
	cmpq	$0, -96(%rbp)	#, w
	je	.L454	#,
	.loc 1 2183 0
	cmpq	$2, -96(%rbp)	#, w
	jbe	.L455	#,
	.loc 1 2186 0
	cmpq	$3, -144(%rbp)	#, t
	je	.L455	#,
.L454:
	.loc 1 2190 0
	movl	add_cost(%rip), %eax	# add_cost, tmp238
	movl	%eax, -116(%rbp)	# tmp238, cost
	.loc 1 2191 0
	movl	-116(%rbp), %eax	# cost, tmp239
	movl	-148(%rbp), %edx	# cost_limit, tmp240
	subl	%eax, %edx	# tmp239, D.17614
	movq	-144(%rbp), %rax	# t, tmp241
	leaq	1(%rax), %rcx	#, D.17613
	movq	-112(%rbp), %rax	# alg_in, tmp242
	movq	%rcx, %rsi	# D.17613,
	movq	%rax, %rdi	# tmp242,
	call	synth_mult	#
	.loc 1 2193 0
	movq	-112(%rbp), %rax	# alg_in, tmp243
	movzwl	(%rax), %eax	# alg_in_10->cost, D.17612
	cwtl
	addl	%eax, -116(%rbp)	# D.17614, cost
	.loc 1 2194 0
	movl	-116(%rbp), %eax	# cost, tmp244
	cmpl	-148(%rbp), %eax	# cost_limit, tmp244
	jge	.L456	#,
.LBB40:
	.loc 1 2197 0
	movq	-112(%rbp), %rax	# alg_in, tmp245
	movq	%rax, -64(%rbp)	# tmp245, x
	movq	-104(%rbp), %rax	# best_alg, tmp246
	movq	%rax, -112(%rbp)	# tmp246, alg_in
	movq	-64(%rbp), %rax	# x, tmp247
	movq	%rax, -104(%rbp)	# tmp247, best_alg
	.loc 1 2198 0
	movq	-104(%rbp), %rax	# best_alg, tmp248
	movzwl	2(%rax), %eax	# best_alg_89->ops, D.17612
	cwtl
	movq	-104(%rbp), %rdx	# best_alg, tmp249
	cltq
	movb	$0, 260(%rdx,%rax)	#, best_alg_89->log
	.loc 1 2199 0
	movq	-104(%rbp), %rax	# best_alg, tmp251
	movzwl	2(%rax), %eax	# best_alg_89->ops, D.17612
	movswl	%ax, %edx	# D.17612, D.17614
	movq	-104(%rbp), %rax	# best_alg, tmp252
	movslq	%edx, %rdx	# D.17614, tmp253
	movl	$4, 4(%rax,%rdx,4)	#, best_alg_89->op
	.loc 1 2200 0
	movl	-116(%rbp), %eax	# cost, tmp254
	movl	%eax, -148(%rbp)	# tmp254, cost_limit
.LBE40:
	.loc 1 2194 0
	jmp	.L451	#
.L456:
	.loc 1 2194 0 is_stmt 0 discriminator 1
	jmp	.L451	#
.L455:
	.loc 1 2207 0 is_stmt 1
	movl	add_cost(%rip), %eax	# add_cost, tmp255
	movl	%eax, -116(%rbp)	# tmp255, cost
	.loc 1 2208 0
	movl	-116(%rbp), %eax	# cost, tmp256
	movl	-148(%rbp), %edx	# cost_limit, tmp257
	subl	%eax, %edx	# tmp256, D.17614
	movq	-144(%rbp), %rax	# t, tmp258
	leaq	-1(%rax), %rcx	#, D.17613
	movq	-112(%rbp), %rax	# alg_in, tmp259
	movq	%rcx, %rsi	# D.17613,
	movq	%rax, %rdi	# tmp259,
	call	synth_mult	#
	.loc 1 2210 0
	movq	-112(%rbp), %rax	# alg_in, tmp260
	movzwl	(%rax), %eax	# alg_in_10->cost, D.17612
	cwtl
	addl	%eax, -116(%rbp)	# D.17614, cost
	.loc 1 2211 0
	movl	-116(%rbp), %eax	# cost, tmp261
	cmpl	-148(%rbp), %eax	# cost_limit, tmp261
	jge	.L451	#,
.LBB41:
	.loc 1 2214 0
	movq	-112(%rbp), %rax	# alg_in, tmp262
	movq	%rax, -72(%rbp)	# tmp262, x
	movq	-104(%rbp), %rax	# best_alg, tmp263
	movq	%rax, -112(%rbp)	# tmp263, alg_in
	movq	-72(%rbp), %rax	# x, tmp264
	movq	%rax, -104(%rbp)	# tmp264, best_alg
	.loc 1 2215 0
	movq	-104(%rbp), %rax	# best_alg, tmp265
	movzwl	2(%rax), %eax	# best_alg_75->ops, D.17612
	cwtl
	movq	-104(%rbp), %rdx	# best_alg, tmp266
	cltq
	movb	$0, 260(%rdx,%rax)	#, best_alg_75->log
	.loc 1 2216 0
	movq	-104(%rbp), %rax	# best_alg, tmp268
	movzwl	2(%rax), %eax	# best_alg_75->ops, D.17612
	movswl	%ax, %edx	# D.17612, D.17614
	movq	-104(%rbp), %rax	# best_alg, tmp269
	movslq	%edx, %rdx	# D.17614, tmp270
	movl	$3, 4(%rax,%rdx,4)	#, best_alg_75->op
	.loc 1 2217 0
	movl	-116(%rbp), %eax	# cost, tmp271
	movl	%eax, -148(%rbp)	# tmp271, cost_limit
.L451:
.LBE41:
.LBE39:
	.loc 1 2232 0
	movq	-144(%rbp), %rax	# t, tmp272
	subq	$1, %rax	#, D.17613
	movq	%rax, %rdi	# D.17613,
	call	floor_log2_wide	#
	movl	%eax, -120(%rbp)	# tmp273, m
	jmp	.L457	#
.L467:
.LBB42:
	.loc 1 2236 0
	movl	-120(%rbp), %eax	# m, tmp274
	movl	$1, %edx	#, tmp275
	movl	%eax, %ecx	# tmp274, tmp414
	salq	%cl, %rdx	# tmp414, D.17613
	movq	%rdx, %rax	# D.17613, D.17613
	addq	$1, %rax	#, tmp276
	movq	%rax, -56(%rbp)	# tmp276, d
	.loc 1 2237 0
	movq	-144(%rbp), %rax	# t, tmp277
	movl	$0, %edx	#, tmp278
	divq	-56(%rbp)	# d
	movq	%rdx, %rax	# tmp278, D.17613
	testq	%rax, %rax	# D.17613
	jne	.L458	#,
	.loc 1 2237 0 is_stmt 0 discriminator 1
	movq	-144(%rbp), %rax	# t, tmp280
	cmpq	-56(%rbp), %rax	# d, tmp280
	jbe	.L458	#,
	movl	target_flags(%rip), %eax	# target_flags, target_flags.274
	andl	$33554432, %eax	#, D.17614
	testl	%eax, %eax	# D.17614
	je	.L459	#,
	movl	$64, %eax	#, iftmp.273
	jmp	.L460	#
.L459:
	.loc 1 2237 0 discriminator 2
	movl	$32, %eax	#, iftmp.273
.L460:
	.loc 1 2237 0 discriminator 3
	cmpl	-120(%rbp), %eax	# m, iftmp.273
	jle	.L458	#,
	.loc 1 2239 0 is_stmt 1
	movl	-120(%rbp), %eax	# m, tmp282
	cltq
	movl	shift_cost(,%rax,4), %edx	# shift_cost, D.17614
	movl	add_cost(%rip), %eax	# add_cost, add_cost.275
	addl	%eax, %edx	# add_cost.275, D.17614
	movl	-120(%rbp), %eax	# m, tmp284
	cltq
	movl	shiftadd_cost(,%rax,4), %eax	# shiftadd_cost, D.17614
	cmpl	%eax, %edx	# D.17614, D.17614
	cmovle	%edx, %eax	# D.17614,, tmp285
	movl	%eax, -116(%rbp)	# tmp285, cost
	.loc 1 2240 0
	movl	-116(%rbp), %eax	# cost, tmp286
	movl	-148(%rbp), %edx	# cost_limit, tmp287
	movl	%edx, %esi	# tmp287, D.17614
	subl	%eax, %esi	# tmp286, D.17614
	movq	-144(%rbp), %rax	# t, tmp290
	movl	$0, %edx	#, tmp289
	divq	-56(%rbp)	# d
	movq	%rax, %rcx	# tmp288, D.17613
	movq	-112(%rbp), %rax	# alg_in, tmp291
	movl	%esi, %edx	# D.17614,
	movq	%rcx, %rsi	# D.17613,
	movq	%rax, %rdi	# tmp291,
	call	synth_mult	#
	.loc 1 2242 0
	movq	-112(%rbp), %rax	# alg_in, tmp292
	movzwl	(%rax), %eax	# alg_in_12->cost, D.17612
	cwtl
	addl	%eax, -116(%rbp)	# D.17614, cost
	.loc 1 2243 0
	movl	-116(%rbp), %eax	# cost, tmp293
	cmpl	-148(%rbp), %eax	# cost_limit, tmp293
	jge	.L461	#,
.LBB43:
	.loc 1 2246 0
	movq	-112(%rbp), %rax	# alg_in, tmp294
	movq	%rax, -48(%rbp)	# tmp294, x
	movq	-104(%rbp), %rax	# best_alg, tmp295
	movq	%rax, -112(%rbp)	# tmp295, alg_in
	movq	-48(%rbp), %rax	# x, tmp296
	movq	%rax, -104(%rbp)	# tmp296, best_alg
	.loc 1 2247 0
	movq	-104(%rbp), %rax	# best_alg, tmp297
	movzwl	2(%rax), %eax	# best_alg_116->ops, D.17612
	cwtl
	movl	-120(%rbp), %edx	# m, tmp298
	movl	%edx, %ecx	# tmp298, D.17615
	movq	-104(%rbp), %rdx	# best_alg, tmp299
	cltq
	movb	%cl, 260(%rdx,%rax)	# D.17615, best_alg_116->log
	.loc 1 2248 0
	movq	-104(%rbp), %rax	# best_alg, tmp301
	movzwl	2(%rax), %eax	# best_alg_116->ops, D.17612
	movswl	%ax, %edx	# D.17612, D.17614
	movq	-104(%rbp), %rax	# best_alg, tmp302
	movslq	%edx, %rdx	# D.17614, tmp303
	movl	$5, 4(%rax,%rdx,4)	#, best_alg_116->op
	.loc 1 2249 0
	movl	-116(%rbp), %eax	# cost, tmp304
	movl	%eax, -148(%rbp)	# tmp304, cost_limit
.LBE43:
	.loc 1 2252 0
	jmp	.L462	#
.L461:
	jmp	.L462	#
.L458:
	.loc 1 2255 0
	movl	-120(%rbp), %eax	# m, tmp305
	movl	$1, %edx	#, tmp306
	movl	%eax, %ecx	# tmp305, tmp417
	salq	%cl, %rdx	# tmp417, D.17613
	movq	%rdx, %rax	# D.17613, D.17613
	subq	$1, %rax	#, tmp307
	movq	%rax, -56(%rbp)	# tmp307, d
	.loc 1 2256 0
	movq	-144(%rbp), %rax	# t, tmp308
	movl	$0, %edx	#, tmp309
	divq	-56(%rbp)	# d
	movq	%rdx, %rax	# tmp309, D.17613
	testq	%rax, %rax	# D.17613
	jne	.L463	#,
	.loc 1 2256 0 is_stmt 0 discriminator 1
	movq	-144(%rbp), %rax	# t, tmp311
	cmpq	-56(%rbp), %rax	# d, tmp311
	jbe	.L463	#,
	movl	target_flags(%rip), %eax	# target_flags, target_flags.277
	andl	$33554432, %eax	#, D.17614
	testl	%eax, %eax	# D.17614
	je	.L464	#,
	movl	$64, %eax	#, iftmp.276
	jmp	.L465	#
.L464:
	.loc 1 2256 0 discriminator 2
	movl	$32, %eax	#, iftmp.276
.L465:
	.loc 1 2256 0 discriminator 3
	cmpl	-120(%rbp), %eax	# m, iftmp.276
	jle	.L463	#,
	.loc 1 2258 0 is_stmt 1
	movl	-120(%rbp), %eax	# m, tmp313
	cltq
	movl	shift_cost(,%rax,4), %edx	# shift_cost, D.17614
	movl	add_cost(%rip), %eax	# add_cost, add_cost.278
	addl	%eax, %edx	# add_cost.278, D.17614
	movl	-120(%rbp), %eax	# m, tmp315
	cltq
	movl	shiftsub_cost(,%rax,4), %eax	# shiftsub_cost, D.17614
	cmpl	%eax, %edx	# D.17614, D.17614
	cmovle	%edx, %eax	# D.17614,, tmp316
	movl	%eax, -116(%rbp)	# tmp316, cost
	.loc 1 2259 0
	movl	-116(%rbp), %eax	# cost, tmp317
	movl	-148(%rbp), %edx	# cost_limit, tmp318
	movl	%edx, %esi	# tmp318, D.17614
	subl	%eax, %esi	# tmp317, D.17614
	movq	-144(%rbp), %rax	# t, tmp321
	movl	$0, %edx	#, tmp320
	divq	-56(%rbp)	# d
	movq	%rax, %rcx	# tmp319, D.17613
	movq	-112(%rbp), %rax	# alg_in, tmp322
	movl	%esi, %edx	# D.17614,
	movq	%rcx, %rsi	# D.17613,
	movq	%rax, %rdi	# tmp322,
	call	synth_mult	#
	.loc 1 2261 0
	movq	-112(%rbp), %rax	# alg_in, tmp323
	movzwl	(%rax), %eax	# alg_in_12->cost, D.17612
	cwtl
	addl	%eax, -116(%rbp)	# D.17614, cost
	.loc 1 2262 0
	movl	-116(%rbp), %eax	# cost, tmp324
	cmpl	-148(%rbp), %eax	# cost_limit, tmp324
	jge	.L466	#,
.LBB44:
	.loc 1 2265 0
	movq	-112(%rbp), %rax	# alg_in, tmp325
	movq	%rax, -40(%rbp)	# tmp325, x
	movq	-104(%rbp), %rax	# best_alg, tmp326
	movq	%rax, -112(%rbp)	# tmp326, alg_in
	movq	-40(%rbp), %rax	# x, tmp327
	movq	%rax, -104(%rbp)	# tmp327, best_alg
	.loc 1 2266 0
	movq	-104(%rbp), %rax	# best_alg, tmp328
	movzwl	2(%rax), %eax	# best_alg_142->ops, D.17612
	cwtl
	movl	-120(%rbp), %edx	# m, tmp329
	movl	%edx, %ecx	# tmp329, D.17615
	movq	-104(%rbp), %rdx	# best_alg, tmp330
	cltq
	movb	%cl, 260(%rdx,%rax)	# D.17615, best_alg_142->log
	.loc 1 2267 0
	movq	-104(%rbp), %rax	# best_alg, tmp332
	movzwl	2(%rax), %eax	# best_alg_142->ops, D.17612
	movswl	%ax, %edx	# D.17612, D.17614
	movq	-104(%rbp), %rax	# best_alg, tmp333
	movslq	%edx, %rdx	# D.17614, tmp334
	movl	$6, 4(%rax,%rdx,4)	#, best_alg_142->op
	.loc 1 2268 0
	movl	-116(%rbp), %eax	# cost, tmp335
	movl	%eax, -148(%rbp)	# tmp335, cost_limit
.LBE44:
	.loc 1 2270 0
	jmp	.L462	#
.L466:
	jmp	.L462	#
.L463:
.LBE42:
	.loc 1 2232 0
	subl	$1, -120(%rbp)	#, m
.L457:
	.loc 1 2232 0 is_stmt 0 discriminator 1
	cmpl	$1, -120(%rbp)	#, m
	jg	.L467	#,
.L462:
	.loc 1 2276 0 is_stmt 1
	movq	-144(%rbp), %rax	# t, tmp336
	andl	$1, %eax	#, D.17613
	testq	%rax, %rax	# D.17613
	je	.L468	#,
	.loc 1 2278 0
	movq	-144(%rbp), %rax	# t, tmp340
	subq	$1, %rax	#, tmp339
	movq	%rax, -88(%rbp)	# tmp339, q
	.loc 1 2279 0
	movq	-88(%rbp), %rax	# q, tmp341
	negq	%rax	# D.17613
	andq	%rax, -88(%rbp)	# D.17613, q
	.loc 1 2280 0
	movq	-88(%rbp), %rax	# q, tmp342
	movq	%rax, %rdi	# tmp342,
	call	exact_log2_wide	#
	movl	%eax, -120(%rbp)	# tmp343, m
	.loc 1 2281 0
	cmpl	$0, -120(%rbp)	#, m
	js	.L469	#,
	.loc 1 2281 0 is_stmt 0 discriminator 1
	movl	target_flags(%rip), %eax	# target_flags, target_flags.280
	andl	$33554432, %eax	#, D.17614
	testl	%eax, %eax	# D.17614
	je	.L470	#,
	movl	$64, %eax	#, iftmp.279
	jmp	.L471	#
.L470:
	.loc 1 2281 0 discriminator 2
	movl	$32, %eax	#, iftmp.279
.L471:
	.loc 1 2281 0 discriminator 3
	cmpl	-120(%rbp), %eax	# m, iftmp.279
	jle	.L469	#,
	.loc 1 2283 0 is_stmt 1
	movl	-120(%rbp), %eax	# m, tmp345
	cltq
	movl	shiftadd_cost(,%rax,4), %eax	# shiftadd_cost, tmp346
	movl	%eax, -116(%rbp)	# tmp346, cost
	.loc 1 2284 0
	movl	-116(%rbp), %eax	# cost, tmp347
	movl	-148(%rbp), %edx	# cost_limit, tmp348
	subl	%eax, %edx	# tmp347, D.17614
	movq	-144(%rbp), %rax	# t, tmp349
	leaq	-1(%rax), %rsi	#, D.17613
	movl	-120(%rbp), %eax	# m, tmp350
	movl	%eax, %ecx	# tmp350, tmp420
	shrq	%cl, %rsi	# tmp420, D.17613
	movq	%rsi, %rcx	# D.17613, D.17613
	movq	-112(%rbp), %rax	# alg_in, tmp351
	movq	%rcx, %rsi	# D.17613,
	movq	%rax, %rdi	# tmp351,
	call	synth_mult	#
	.loc 1 2286 0
	movq	-112(%rbp), %rax	# alg_in, tmp352
	movzwl	(%rax), %eax	# alg_in_15->cost, D.17612
	cwtl
	addl	%eax, -116(%rbp)	# D.17614, cost
	.loc 1 2287 0
	movl	-116(%rbp), %eax	# cost, tmp353
	cmpl	-148(%rbp), %eax	# cost_limit, tmp353
	jge	.L469	#,
.LBB45:
	.loc 1 2290 0
	movq	-112(%rbp), %rax	# alg_in, tmp354
	movq	%rax, -32(%rbp)	# tmp354, x
	movq	-104(%rbp), %rax	# best_alg, tmp355
	movq	%rax, -112(%rbp)	# tmp355, alg_in
	movq	-32(%rbp), %rax	# x, tmp356
	movq	%rax, -104(%rbp)	# tmp356, best_alg
	.loc 1 2291 0
	movq	-104(%rbp), %rax	# best_alg, tmp357
	movzwl	2(%rax), %eax	# best_alg_168->ops, D.17612
	cwtl
	movl	-120(%rbp), %edx	# m, tmp358
	movl	%edx, %ecx	# tmp358, D.17615
	movq	-104(%rbp), %rdx	# best_alg, tmp359
	cltq
	movb	%cl, 260(%rdx,%rax)	# D.17615, best_alg_168->log
	.loc 1 2292 0
	movq	-104(%rbp), %rax	# best_alg, tmp361
	movzwl	2(%rax), %eax	# best_alg_168->ops, D.17612
	movswl	%ax, %edx	# D.17612, D.17614
	movq	-104(%rbp), %rax	# best_alg, tmp362
	movslq	%edx, %rdx	# D.17614, tmp363
	movl	$7, 4(%rax,%rdx,4)	#, best_alg_168->op
	.loc 1 2293 0
	movl	-116(%rbp), %eax	# cost, tmp364
	movl	%eax, -148(%rbp)	# tmp364, cost_limit
.L469:
.LBE45:
	.loc 1 2297 0
	movq	-144(%rbp), %rax	# t, tmp368
	addq	$1, %rax	#, tmp367
	movq	%rax, -88(%rbp)	# tmp367, q
	.loc 1 2298 0
	movq	-88(%rbp), %rax	# q, tmp369
	negq	%rax	# D.17613
	andq	%rax, -88(%rbp)	# D.17613, q
	.loc 1 2299 0
	movq	-88(%rbp), %rax	# q, tmp370
	movq	%rax, %rdi	# tmp370,
	call	exact_log2_wide	#
	movl	%eax, -120(%rbp)	# tmp371, m
	.loc 1 2300 0
	cmpl	$0, -120(%rbp)	#, m
	js	.L468	#,
	.loc 1 2300 0 is_stmt 0 discriminator 1
	movl	target_flags(%rip), %eax	# target_flags, target_flags.282
	andl	$33554432, %eax	#, D.17614
	testl	%eax, %eax	# D.17614
	je	.L472	#,
	movl	$64, %eax	#, iftmp.281
	jmp	.L473	#
.L472:
	.loc 1 2300 0 discriminator 2
	movl	$32, %eax	#, iftmp.281
.L473:
	.loc 1 2300 0 discriminator 3
	cmpl	-120(%rbp), %eax	# m, iftmp.281
	jle	.L468	#,
	.loc 1 2302 0 is_stmt 1
	movl	-120(%rbp), %eax	# m, tmp373
	cltq
	movl	shiftsub_cost(,%rax,4), %eax	# shiftsub_cost, tmp374
	movl	%eax, -116(%rbp)	# tmp374, cost
	.loc 1 2303 0
	movl	-116(%rbp), %eax	# cost, tmp375
	movl	-148(%rbp), %edx	# cost_limit, tmp376
	subl	%eax, %edx	# tmp375, D.17614
	movq	-144(%rbp), %rax	# t, tmp377
	leaq	1(%rax), %rsi	#, D.17613
	movl	-120(%rbp), %eax	# m, tmp378
	movl	%eax, %ecx	# tmp378, tmp422
	shrq	%cl, %rsi	# tmp422, D.17613
	movq	%rsi, %rcx	# D.17613, D.17613
	movq	-112(%rbp), %rax	# alg_in, tmp379
	movq	%rcx, %rsi	# D.17613,
	movq	%rax, %rdi	# tmp379,
	call	synth_mult	#
	.loc 1 2305 0
	movq	-112(%rbp), %rax	# alg_in, tmp380
	movzwl	(%rax), %eax	# alg_in_16->cost, D.17612
	cwtl
	addl	%eax, -116(%rbp)	# D.17614, cost
	.loc 1 2306 0
	movl	-116(%rbp), %eax	# cost, tmp381
	cmpl	-148(%rbp), %eax	# cost_limit, tmp381
	jge	.L468	#,
.LBB46:
	.loc 1 2309 0
	movq	-112(%rbp), %rax	# alg_in, tmp382
	movq	%rax, -24(%rbp)	# tmp382, x
	movq	-104(%rbp), %rax	# best_alg, tmp383
	movq	%rax, -112(%rbp)	# tmp383, alg_in
	movq	-24(%rbp), %rax	# x, tmp384
	movq	%rax, -104(%rbp)	# tmp384, best_alg
	.loc 1 2310 0
	movq	-104(%rbp), %rax	# best_alg, tmp385
	movzwl	2(%rax), %eax	# best_alg_192->ops, D.17612
	cwtl
	movl	-120(%rbp), %edx	# m, tmp386
	movl	%edx, %ecx	# tmp386, D.17615
	movq	-104(%rbp), %rdx	# best_alg, tmp387
	cltq
	movb	%cl, 260(%rdx,%rax)	# D.17615, best_alg_192->log
	.loc 1 2311 0
	movq	-104(%rbp), %rax	# best_alg, tmp389
	movzwl	2(%rax), %eax	# best_alg_192->ops, D.17612
	movswl	%ax, %edx	# D.17612, D.17614
	movq	-104(%rbp), %rax	# best_alg, tmp390
	movslq	%edx, %rdx	# D.17614, tmp391
	movl	$8, 4(%rax,%rdx,4)	#, best_alg_192->op
	.loc 1 2312 0
	movl	-116(%rbp), %eax	# cost, tmp392
	movl	%eax, -148(%rbp)	# tmp392, cost_limit
.L468:
.LBE46:
	.loc 1 2319 0
	movq	-136(%rbp), %rax	# alg_out, tmp393
	movzwl	(%rax), %eax	# alg_out_33(D)->cost, D.17612
	cwtl
	cmpl	-148(%rbp), %eax	# cost_limit, D.17614
	jne	.L474	#,
	.loc 1 2320 0
	jmp	.L442	#
.L474:
	.loc 1 2324 0
	movq	-104(%rbp), %rax	# best_alg, tmp394
	movzwl	2(%rax), %eax	# best_alg_24->ops, D.17612
	cmpw	$64, %ax	#, D.17612
	jne	.L475	#,
	.loc 1 2325 0
	jmp	.L442	#
.L475:
	.loc 1 2330 0
	movq	-104(%rbp), %rax	# best_alg, tmp395
	movzwl	2(%rax), %eax	# best_alg_24->ops, D.17612
	addl	$1, %eax	#, D.17616
	movl	%eax, %edx	# D.17616, D.17612
	movq	-136(%rbp), %rax	# alg_out, tmp396
	movw	%dx, 2(%rax)	# D.17612, alg_out_33(D)->ops
	.loc 1 2331 0
	movl	-148(%rbp), %eax	# cost_limit, tmp397
	movl	%eax, %edx	# tmp397, D.17612
	movq	-136(%rbp), %rax	# alg_out, tmp398
	movw	%dx, (%rax)	# D.17612, alg_out_33(D)->cost
	.loc 1 2333 0
	movq	-136(%rbp), %rax	# alg_out, tmp399
	movzwl	2(%rax), %eax	# alg_out_33(D)->ops, D.17612
	.loc 1 2332 0
	movswq	%ax, %rax	# D.17612, D.17613
	leaq	0(,%rax,4), %rdx	#, D.17613
	movq	-104(%rbp), %rax	# best_alg, tmp400
	leaq	4(%rax), %rcx	#, D.17617
	movq	-136(%rbp), %rax	# alg_out, tmp401
	addq	$4, %rax	#, D.17617
	movq	%rcx, %rsi	# D.17617,
	movq	%rax, %rdi	# D.17617,
	call	memcpy	#
	.loc 1 2335 0
	movq	-136(%rbp), %rax	# alg_out, tmp402
	movzwl	2(%rax), %eax	# alg_out_33(D)->ops, D.17612
	.loc 1 2334 0
	movswq	%ax, %rax	# D.17612, D.17613
	movq	-104(%rbp), %rdx	# best_alg, tmp403
	leaq	260(%rdx), %rsi	#, D.17618
	movq	-136(%rbp), %rdx	# alg_out, tmp404
	leaq	260(%rdx), %rcx	#, D.17618
	movq	%rax, %rdx	# D.17613,
	movq	%rcx, %rdi	# D.17618,
	call	memcpy	#
.L442:
	.loc 1 2336 0
	movq	-8(%rbp), %rbx	#,
	leave
	.cfi_def_cfa 7, 8
	ret
	.cfi_endproc
.LFE16:
	.size	synth_mult, .-synth_mult
	.globl	expand_mult
	.type	expand_mult, @function
expand_mult:
.LFB17:
	.loc 1 2351 0
	.cfi_startproc
	pushq	%rbp	#
	.cfi_def_cfa_offset 16
	.cfi_offset 6, -16
	movq	%rsp, %rbp	#,
	.cfi_def_cfa_register 6
	pushq	%rbx	#
	subq	$824, %rsp	#,
	.cfi_offset 3, -24
	movl	%edi, -788(%rbp)	# mode, mode
	movq	%rsi, -800(%rbp)	# op0, op0
	movq	%rdx, -808(%rbp)	# op1, op1
	movq	%rcx, -816(%rbp)	# target, target
	movl	%r8d, -792(%rbp)	# unsignedp, unsignedp
	.loc 1 2351 0
	movq	%fs:40, %rax	#, tmp329
	movq	%rax, -24(%rbp)	# tmp329, D.17632
	xorl	%eax, %eax	# tmp329
	.loc 1 2352 0
	movq	-808(%rbp), %rax	# op1, tmp167
	movq	%rax, -760(%rbp)	# tmp167, const_op1
	.loc 1 2363 0
	movq	-808(%rbp), %rax	# op1, tmp168
	movzwl	(%rax), %eax	# op1_29(D)->code, D.17620
	cmpw	$55, %ax	#, D.17620
	jne	.L477	#,
	.loc 1 2364 0
	movq	-808(%rbp), %rax	# op1, tmp169
	movzbl	2(%rax), %eax	# op1_29(D)->mode, D.17621
	movzbl	%al, %eax	# D.17621, D.17622
	cltq
	movl	mode_class(,%rax,4), %eax	# mode_class, D.17623
	cmpl	$1, %eax	#, D.17623
	jne	.L477	#,
	.loc 1 2365 0
	movl	target_flags(%rip), %eax	# target_flags, target_flags.283
	andl	$33554432, %eax	#, D.17622
	testl	%eax, %eax	# D.17622
	jne	.L477	#,
	.loc 1 2366 0
	movq	-808(%rbp), %rax	# op1, tmp171
	movq	24(%rax), %rax	# op1_29(D)->fld[2].rtwint, D.17624
	testq	%rax, %rax	# D.17624
	jne	.L477	#,
	.loc 1 2367 0
	movq	-808(%rbp), %rax	# op1, tmp172
	movq	16(%rax), %rax	# op1_29(D)->fld[1].rtwint, D.17624
	movq	%rax, %rsi	# D.17624,
	movl	$0, %edi	#,
	call	gen_rtx_CONST_INT	#
	movq	%rax, -760(%rbp)	# tmp173, const_op1
	jmp	.L478	#
.L477:
	.loc 1 2368 0
	movl	-788(%rbp), %eax	# mode, mode.284
	cltq
	movzwl	mode_bitsize(%rax,%rax), %eax	# mode_bitsize, D.17620
	cmpw	$32, %ax	#, D.17620
	jbe	.L478	#,
	.loc 1 2369 0
	movq	-808(%rbp), %rax	# op1, tmp175
	movzwl	(%rax), %eax	# op1_29(D)->code, D.17620
	cmpw	$54, %ax	#, D.17620
	jne	.L478	#,
	.loc 1 2370 0
	movq	-808(%rbp), %rax	# op1, tmp176
	movq	8(%rax), %rax	# op1_29(D)->fld[0].rtwint, D.17624
	testq	%rax, %rax	# D.17624
	jns	.L478	#,
	.loc 1 2371 0
	movq	$0, -760(%rbp)	#, const_op1
.L478:
	.loc 1 2378 0
	cmpq	$0, -760(%rbp)	#, const_op1
	je	.L479	#,
	.loc 1 2378 0 is_stmt 0 discriminator 1
	movq	-760(%rbp), %rax	# const_op1, tmp177
	movzwl	(%rax), %eax	# const_op1_3->code, D.17620
	cmpw	$54, %ax	#, D.17620
	jne	.L479	#,
	.loc 1 2379 0 is_stmt 1
	cmpl	$0, -792(%rbp)	#, unsignedp
	jne	.L480	#,
	.loc 1 2379 0 is_stmt 0 discriminator 1
	movl	flag_trapv(%rip), %eax	# flag_trapv, flag_trapv.285
	testl	%eax, %eax	# flag_trapv.285
	jne	.L479	#,
.L480:
.LBB47:
	.loc 1 2383 0 is_stmt 1
	movq	-808(%rbp), %rax	# op1, tmp178
	movq	8(%rax), %rax	# op1_29(D)->fld[0].rtwint, tmp179
	movq	%rax, -728(%rbp)	# tmp179, val
	.loc 1 2387 0
	movl	$0, -784(%rbp)	#, variant
	.loc 1 2391 0
	movq	-800(%rbp), %rdx	# op0, tmp180
	movl	-788(%rbp), %eax	# mode, tmp181
	movq	%rdx, %rsi	# tmp180,
	movl	%eax, %edi	# tmp181,
	call	force_reg	#
	movq	%rax, -800(%rbp)	# tmp182, op0
	.loc 1 2397 0
	movq	-808(%rbp), %rcx	# op1, tmp183
	movq	-800(%rbp), %rdx	# op0, tmp184
	movl	-788(%rbp), %eax	# mode, tmp185
	movl	%eax, %esi	# tmp185,
	movl	$78, %edi	#,
	call	gen_rtx_fmt_ee	#
	movl	$47, %esi	#,
	movq	%rax, %rdi	# D.17625,
	call	rtx_cost	#
	movl	%eax, -772(%rbp)	# tmp186, mult_cost
	.loc 1 2398 0
	movl	add_cost(%rip), %edx	# add_cost, add_cost.286
	movl	%edx, %eax	# add_cost.286, tmp187
	addl	%eax, %eax	# tmp187
	addl	%edx, %eax	# add_cost.286, tmp187
	sall	$2, %eax	#, tmp188
	movl	%eax, %edx	# tmp187, D.17622
	movl	-772(%rbp), %eax	# mult_cost, tmp190
	cmpl	%eax, %edx	# tmp190, D.17622
	cmovle	%edx, %eax	# D.17622,, tmp189
	movl	%eax, -772(%rbp)	# tmp189, mult_cost
	.loc 1 2400 0
	movq	-728(%rbp), %rcx	# val, val.287
	movl	-772(%rbp), %edx	# mult_cost, tmp191
	leaq	-688(%rbp), %rax	#, tmp192
	movq	%rcx, %rsi	# val.287,
	movq	%rax, %rdi	# tmp192,
	call	synth_mult	#
	.loc 1 2404 0
	movl	-788(%rbp), %eax	# mode, mode.288
	cltq
	movzwl	mode_bitsize(%rax,%rax), %eax	# mode_bitsize, D.17620
	cmpw	$32, %ax	#, D.17620
	ja	.L481	#,
	.loc 1 2407 0
	movzwl	-688(%rbp), %eax	# alg.cost, D.17626
	movswl	%ax, %edx	# D.17626, D.17622
	movl	-772(%rbp), %eax	# mult_cost, tmp194
	cmpl	%eax, %edx	# tmp194, D.17622
	cmovg	%eax, %edx	# D.17622,, tmp194, D.17622
	.loc 1 2406 0
	movl	negate_cost(%rip), %eax	# negate_cost, negate_cost.289
	subl	%eax, %edx	# negate_cost.289, D.17622
	movq	-728(%rbp), %rax	# val, tmp195
	negq	%rax	# D.17624
	movq	%rax, %rcx	# D.17624, D.17627
	leaq	-352(%rbp), %rax	#, tmp196
	movq	%rcx, %rsi	# D.17627,
	movq	%rax, %rdi	# tmp196,
	call	synth_mult	#
	.loc 1 2408 0
	movzwl	-352(%rbp), %eax	# alg2.cost, D.17626
	movswl	%ax, %edx	# D.17626, D.17622
	movl	negate_cost(%rip), %eax	# negate_cost, negate_cost.290
	addl	%eax, %edx	# negate_cost.290, D.17622
	movzwl	-688(%rbp), %eax	# alg.cost, D.17626
	cwtl
	cmpl	%eax, %edx	# D.17622, D.17622
	jge	.L481	#,
	.loc 1 2409 0
	leaq	-688(%rbp), %rdx	#, tmp197
	leaq	-352(%rbp), %rax	#, tmp198
	movl	$40, %ecx	#, tmp199
	movq	%rdx, %rdi	# tmp197, tmp197
	movq	%rax, %rsi	# tmp198, tmp198
	rep movsq
	movq	%rsi, %rax	# tmp198, tmp198
	movq	%rdi, %rdx	# tmp197, tmp197
	movl	(%rax), %ecx	# alg2, tmp200
	movl	%ecx, (%rdx)	# tmp200, alg
	addq	$4, %rdx	#, tmp197
	addq	$4, %rax	#, tmp198
	movl	$1, -784(%rbp)	#, variant
.L481:
	.loc 1 2414 0
	movzwl	-688(%rbp), %eax	# alg.cost, D.17626
	movswl	%ax, %edx	# D.17626, D.17622
	movl	-772(%rbp), %eax	# mult_cost, tmp201
	cmpl	%eax, %edx	# tmp201, D.17622
	cmovg	%eax, %edx	# D.17622,, tmp201, D.17622
	.loc 1 2413 0
	movl	add_cost(%rip), %eax	# add_cost, add_cost.291
	subl	%eax, %edx	# add_cost.291, D.17622
	movq	-728(%rbp), %rax	# val, tmp202
	subq	$1, %rax	#, D.17624
	movq	%rax, %rcx	# D.17624, D.17627
	leaq	-352(%rbp), %rax	#, tmp203
	movq	%rcx, %rsi	# D.17627,
	movq	%rax, %rdi	# tmp203,
	call	synth_mult	#
	.loc 1 2415 0
	movzwl	-352(%rbp), %eax	# alg2.cost, D.17626
	movswl	%ax, %edx	# D.17626, D.17622
	movl	add_cost(%rip), %eax	# add_cost, add_cost.292
	addl	%eax, %edx	# add_cost.292, D.17622
	movzwl	-688(%rbp), %eax	# alg.cost, D.17626
	cwtl
	cmpl	%eax, %edx	# D.17622, D.17622
	jge	.L482	#,
	.loc 1 2416 0
	leaq	-688(%rbp), %rdx	#, tmp204
	leaq	-352(%rbp), %rax	#, tmp205
	movl	$40, %ecx	#, tmp206
	movq	%rdx, %rdi	# tmp204, tmp204
	movq	%rax, %rsi	# tmp205, tmp205
	rep movsq
	movq	%rsi, %rax	# tmp205, tmp205
	movq	%rdi, %rdx	# tmp204, tmp204
	movl	(%rax), %ecx	# alg2, tmp207
	movl	%ecx, (%rdx)	# tmp207, alg
	addq	$4, %rdx	#, tmp204
	addq	$4, %rax	#, tmp205
	movl	$2, -784(%rbp)	#, variant
.L482:
	.loc 1 2418 0
	movzwl	-688(%rbp), %eax	# alg.cost, D.17626
	cwtl
	cmpl	-772(%rbp), %eax	# mult_cost, D.17622
	jge	.L479	#,
.LBB48:
	.loc 1 2425 0
	movq	-800(%rbp), %rax	# op0, tmp208
	movl	$0, %esi	#,
	movq	%rax, %rdi	# tmp208,
	call	protect_from_queue	#
	movq	%rax, -800(%rbp)	# tmp209, op0
	.loc 1 2429 0
	movq	-800(%rbp), %rax	# op0, tmp210
	movzwl	(%rax), %eax	# op0_91->code, D.17620
	cmpw	$66, %ax	#, D.17620
	jne	.L484	#,
	.loc 1 2430 0
	movq	-800(%rbp), %rdx	# op0, tmp211
	movl	-788(%rbp), %eax	# mode, tmp212
	movq	%rdx, %rsi	# tmp211,
	movl	%eax, %edi	# tmp212,
	call	force_reg	#
	movq	%rax, -800(%rbp)	# tmp213, op0
.L484:
	.loc 1 2435 0
	movl	-684(%rbp), %eax	# alg.op, D.17628
	testl	%eax, %eax	# D.17628
	jne	.L485	#,
	.loc 1 2437 0
	movq	const_int_rtx+512(%rip), %rdx	# const_int_rtx, D.17625
	movl	-788(%rbp), %eax	# mode, tmp214
	movq	%rdx, %rsi	# D.17625,
	movl	%eax, %edi	# tmp214,
	call	copy_to_mode_reg	#
	movq	%rax, -744(%rbp)	# tmp215, accum
	.loc 1 2438 0
	movq	$0, -752(%rbp)	#, val_so_far
	jmp	.L486	#
.L485:
	.loc 1 2440 0
	movl	-684(%rbp), %eax	# alg.op, D.17628
	cmpl	$1, %eax	#, D.17628
	jne	.L487	#,
	.loc 1 2442 0
	movq	-800(%rbp), %rdx	# op0, tmp216
	movl	-788(%rbp), %eax	# mode, tmp217
	movq	%rdx, %rsi	# tmp216,
	movl	%eax, %edi	# tmp217,
	call	copy_to_mode_reg	#
	movq	%rax, -744(%rbp)	# tmp218, accum
	.loc 1 2443 0
	movq	$1, -752(%rbp)	#, val_so_far
	jmp	.L486	#
.L487:
	.loc 1 2446 0
	movl	$__FUNCTION__.13089, %edx	#,
	movl	$2446, %esi	#,
	movl	$.LC0, %edi	#,
	call	fancy_abort	#
.L486:
	.loc 1 2448 0
	movl	$1, -780(%rbp)	#, opno
	jmp	.L488	#
.L520:
.LBB49:
	.loc 1 2450 0
	movl	-780(%rbp), %eax	# opno, tmp220
	cltq
	movzbl	-428(%rbp,%rax), %eax	# alg.log, D.17629
	movsbl	%al, %eax	# D.17629, tmp221
	movl	%eax, -768(%rbp)	# tmp221, log
	.loc 1 2451 0
	call	preserve_subexpressions_p	#
	movl	%eax, -764(%rbp)	# tmp222, preserve
	.loc 1 2452 0
	cmpl	$0, -764(%rbp)	#, preserve
	jne	.L489	#,
	.loc 1 2452 0 is_stmt 0 discriminator 1
	movq	-744(%rbp), %rax	# accum, iftmp.293
	jmp	.L490	#
.L489:
	.loc 1 2452 0 discriminator 2
	movl	$0, %eax	#, iftmp.293
.L490:
	.loc 1 2452 0 discriminator 3
	movq	%rax, -720(%rbp)	# iftmp.293, shift_subtarget
	.loc 1 2454 0 is_stmt 1 discriminator 3
	movzwl	-686(%rbp), %eax	# alg.ops, D.17626
	cwtl
	subl	$1, %eax	#, D.17622
	.loc 1 2456 0 discriminator 3
	cmpl	-780(%rbp), %eax	# opno, D.17622
	jne	.L491	#,
	.loc 1 2454 0
	cmpq	$0, -816(%rbp)	#, target
	je	.L491	#,
	.loc 1 2454 0 is_stmt 0 discriminator 1
	cmpl	$2, -784(%rbp)	#, variant
	je	.L491	#,
	.loc 1 2455 0 is_stmt 1
	cmpl	$0, -764(%rbp)	#, preserve
	jne	.L491	#,
	.loc 1 2456 0
	movq	-816(%rbp), %rax	# target, iftmp.294
	jmp	.L492	#
.L491:
	.loc 1 2456 0 is_stmt 0 discriminator 1
	movl	$0, %eax	#, iftmp.294
.L492:
	.loc 1 2453 0 is_stmt 1
	movq	%rax, -712(%rbp)	# iftmp.294, add_target
	.loc 1 2457 0
	cmpl	$0, -764(%rbp)	#, preserve
	jne	.L493	#,
	.loc 1 2457 0 is_stmt 0 discriminator 1
	movq	-744(%rbp), %rax	# accum, iftmp.295
	jmp	.L494	#
.L493:
	.loc 1 2457 0 discriminator 2
	movl	$0, %eax	#, iftmp.295
.L494:
	.loc 1 2457 0 discriminator 3
	movq	%rax, -704(%rbp)	# iftmp.295, accum_target
	.loc 1 2459 0 is_stmt 1 discriminator 3
	movl	-780(%rbp), %eax	# opno, tmp224
	cltq
	movl	-684(%rbp,%rax,4), %eax	# alg.op, D.17628
	cmpl	$8, %eax	#, D.17628
	ja	.L495	#,
	movl	%eax, %eax	# D.17628, tmp225
	movq	.L497(,%rax,8), %rax	#, tmp226
	jmp	*%rax	# tmp226
	.section	.rodata
	.align 8
	.align 4
.L497:
	.quad	.L495
	.quad	.L495
	.quad	.L496
	.quad	.L498
	.quad	.L499
	.quad	.L500
	.quad	.L501
	.quad	.L502
	.quad	.L503
	.text
.L496:
	.loc 1 2462 0
	movl	-768(%rbp), %eax	# log, tmp227
	cltq
	movl	$0, %esi	#,
	movq	%rax, %rdi	# D.17627,
	call	build_int_2_wide	#
	movq	%rax, %rcx	#, D.17630
	movq	-744(%rbp), %rdx	# accum, tmp228
	movl	-788(%rbp), %eax	# mode, tmp229
	movl	$0, %r9d	#,
	movl	$0, %r8d	#,
	movl	%eax, %esi	# tmp229,
	movl	$82, %edi	#,
	call	expand_shift	#
	movq	%rax, -744(%rbp)	# tmp230, accum
	.loc 1 2464 0
	movl	-768(%rbp), %eax	# log, tmp231
	movl	%eax, %ecx	# tmp231, tmp335
	salq	%cl, -752(%rbp)	# tmp335, val_so_far
	.loc 1 2465 0
	jmp	.L504	#
.L498:
	.loc 1 2468 0
	movl	-768(%rbp), %eax	# log, tmp232
	cltq
	movl	$0, %esi	#,
	movq	%rax, %rdi	# D.17627,
	call	build_int_2_wide	#
	movq	%rax, %rcx	#, D.17630
	movq	-800(%rbp), %rdx	# op0, tmp233
	movl	-788(%rbp), %eax	# mode, tmp234
	movl	$0, %r9d	#,
	movl	$0, %r8d	#,
	movl	%eax, %esi	# tmp234,
	movl	$82, %edi	#,
	call	expand_shift	#
	movq	%rax, -736(%rbp)	# tmp235, tem
	.loc 1 2470 0
	cmpq	$0, -712(%rbp)	#, add_target
	je	.L505	#,
	.loc 1 2470 0 is_stmt 0 discriminator 1
	movq	-712(%rbp), %rbx	# add_target, iftmp.296
	jmp	.L506	#
.L505:
	.loc 1 2470 0 discriminator 2
	movq	-704(%rbp), %rbx	# accum_target, iftmp.296
.L506:
	.loc 1 2470 0 discriminator 3
	movq	-736(%rbp), %rcx	# tem, tmp236
	movq	-744(%rbp), %rdx	# accum, tmp237
	movl	-788(%rbp), %eax	# mode, tmp238
	movl	%eax, %esi	# tmp238,
	movl	$75, %edi	#,
	call	gen_rtx_fmt_ee	#
	movq	%rbx, %rsi	# iftmp.296,
	movq	%rax, %rdi	# D.17625,
	call	force_operand	#
	movq	%rax, -744(%rbp)	# tmp239, accum
	.loc 1 2473 0 is_stmt 1 discriminator 3
	movl	-768(%rbp), %eax	# log, tmp240
	movl	$1, %edx	#, tmp241
	movl	%eax, %ecx	# tmp240, tmp337
	salq	%cl, %rdx	# tmp337, D.17624
	movq	%rdx, %rax	# D.17624, D.17624
	addq	%rax, -752(%rbp)	# D.17624, val_so_far
	.loc 1 2474 0 discriminator 3
	jmp	.L504	#
.L499:
	.loc 1 2477 0
	movl	-768(%rbp), %eax	# log, tmp242
	cltq
	movl	$0, %esi	#,
	movq	%rax, %rdi	# D.17627,
	call	build_int_2_wide	#
	movq	%rax, %rcx	#, D.17630
	movq	-800(%rbp), %rdx	# op0, tmp243
	movl	-788(%rbp), %eax	# mode, tmp244
	movl	$0, %r9d	#,
	movl	$0, %r8d	#,
	movl	%eax, %esi	# tmp244,
	movl	$82, %edi	#,
	call	expand_shift	#
	movq	%rax, -736(%rbp)	# tmp245, tem
	.loc 1 2479 0
	cmpq	$0, -712(%rbp)	#, add_target
	je	.L507	#,
	.loc 1 2479 0 is_stmt 0 discriminator 1
	movq	-712(%rbp), %rbx	# add_target, iftmp.297
	jmp	.L508	#
.L507:
	.loc 1 2479 0 discriminator 2
	movq	-704(%rbp), %rbx	# accum_target, iftmp.297
.L508:
	.loc 1 2479 0 discriminator 3
	movq	-736(%rbp), %rcx	# tem, tmp246
	movq	-744(%rbp), %rdx	# accum, tmp247
	movl	-788(%rbp), %eax	# mode, tmp248
	movl	%eax, %esi	# tmp248,
	movl	$76, %edi	#,
	call	gen_rtx_fmt_ee	#
	movq	%rbx, %rsi	# iftmp.297,
	movq	%rax, %rdi	# D.17625,
	call	force_operand	#
	movq	%rax, -744(%rbp)	# tmp249, accum
	.loc 1 2482 0 is_stmt 1 discriminator 3
	movl	-768(%rbp), %eax	# log, tmp250
	movl	$1, %edx	#, tmp251
	movl	%eax, %ecx	# tmp250, tmp339
	salq	%cl, %rdx	# tmp339, D.17624
	movq	%rdx, %rax	# D.17624, D.17624
	subq	%rax, -752(%rbp)	# D.17624, val_so_far
	.loc 1 2483 0 discriminator 3
	jmp	.L504	#
.L502:
	.loc 1 2486 0
	movl	-768(%rbp), %eax	# log, tmp252
	cltq
	movl	$0, %esi	#,
	movq	%rax, %rdi	# D.17627,
	call	build_int_2_wide	#
	movq	%rax, %rcx	#, D.17630
	movq	-720(%rbp), %rsi	# shift_subtarget, tmp253
	movq	-744(%rbp), %rdx	# accum, tmp254
	movl	-788(%rbp), %eax	# mode, tmp255
	movl	$0, %r9d	#,
	movq	%rsi, %r8	# tmp253,
	movl	%eax, %esi	# tmp255,
	movl	$82, %edi	#,
	call	expand_shift	#
	movq	%rax, -744(%rbp)	# tmp256, accum
	.loc 1 2489 0
	cmpq	$0, -712(%rbp)	#, add_target
	je	.L509	#,
	.loc 1 2489 0 is_stmt 0 discriminator 1
	movq	-712(%rbp), %rbx	# add_target, iftmp.298
	jmp	.L510	#
.L509:
	.loc 1 2489 0 discriminator 2
	movq	-704(%rbp), %rbx	# accum_target, iftmp.298
.L510:
	.loc 1 2489 0 discriminator 3
	movq	-800(%rbp), %rcx	# op0, tmp257
	movq	-744(%rbp), %rdx	# accum, tmp258
	movl	-788(%rbp), %eax	# mode, tmp259
	movl	%eax, %esi	# tmp259,
	movl	$75, %edi	#,
	call	gen_rtx_fmt_ee	#
	movq	%rbx, %rsi	# iftmp.298,
	movq	%rax, %rdi	# D.17625,
	call	force_operand	#
	movq	%rax, -744(%rbp)	# tmp260, accum
	.loc 1 2492 0 is_stmt 1 discriminator 3
	movl	-768(%rbp), %eax	# log, tmp261
	movq	-752(%rbp), %rdx	# val_so_far, tmp262
	movl	%eax, %ecx	# tmp261, tmp341
	salq	%cl, %rdx	# tmp341, D.17624
	movq	%rdx, %rax	# D.17624, D.17624
	addq	$1, %rax	#, tmp263
	movq	%rax, -752(%rbp)	# tmp263, val_so_far
	.loc 1 2493 0 discriminator 3
	jmp	.L504	#
.L503:
	.loc 1 2496 0
	movl	-768(%rbp), %eax	# log, tmp264
	cltq
	movl	$0, %esi	#,
	movq	%rax, %rdi	# D.17627,
	call	build_int_2_wide	#
	movq	%rax, %rcx	#, D.17630
	movq	-720(%rbp), %rsi	# shift_subtarget, tmp265
	movq	-744(%rbp), %rdx	# accum, tmp266
	movl	-788(%rbp), %eax	# mode, tmp267
	movl	$0, %r9d	#,
	movq	%rsi, %r8	# tmp265,
	movl	%eax, %esi	# tmp267,
	movl	$82, %edi	#,
	call	expand_shift	#
	movq	%rax, -744(%rbp)	# tmp268, accum
	.loc 1 2499 0
	cmpq	$0, -712(%rbp)	#, add_target
	je	.L511	#,
	.loc 1 2499 0 is_stmt 0 discriminator 1
	movq	-712(%rbp), %rbx	# add_target, iftmp.299
	jmp	.L512	#
.L511:
	.loc 1 2499 0 discriminator 2
	movq	-704(%rbp), %rbx	# accum_target, iftmp.299
.L512:
	.loc 1 2499 0 discriminator 3
	movq	-800(%rbp), %rcx	# op0, tmp269
	movq	-744(%rbp), %rdx	# accum, tmp270
	movl	-788(%rbp), %eax	# mode, tmp271
	movl	%eax, %esi	# tmp271,
	movl	$76, %edi	#,
	call	gen_rtx_fmt_ee	#
	movq	%rbx, %rsi	# iftmp.299,
	movq	%rax, %rdi	# D.17625,
	call	force_operand	#
	movq	%rax, -744(%rbp)	# tmp272, accum
	.loc 1 2502 0 is_stmt 1 discriminator 3
	movl	-768(%rbp), %eax	# log, tmp273
	movq	-752(%rbp), %rdx	# val_so_far, tmp274
	movl	%eax, %ecx	# tmp273, tmp343
	salq	%cl, %rdx	# tmp343, D.17624
	movq	%rdx, %rax	# D.17624, D.17624
	subq	$1, %rax	#, tmp275
	movq	%rax, -752(%rbp)	# tmp275, val_so_far
	.loc 1 2503 0 discriminator 3
	jmp	.L504	#
.L500:
	.loc 1 2506 0
	movl	-768(%rbp), %eax	# log, tmp276
	cltq
	movl	$0, %esi	#,
	movq	%rax, %rdi	# D.17627,
	call	build_int_2_wide	#
	movq	%rax, %rcx	#, D.17630
	movq	-744(%rbp), %rdx	# accum, tmp277
	movl	-788(%rbp), %eax	# mode, tmp278
	movl	$0, %r9d	#,
	movl	$0, %r8d	#,
	movl	%eax, %esi	# tmp278,
	movl	$82, %edi	#,
	call	expand_shift	#
	movq	%rax, -736(%rbp)	# tmp279, tem
	.loc 1 2508 0
	cmpq	$0, -712(%rbp)	#, add_target
	je	.L513	#,
	.loc 1 2508 0 is_stmt 0 discriminator 1
	movq	-712(%rbp), %rbx	# add_target, iftmp.300
	jmp	.L514	#
.L513:
	.loc 1 2508 0 discriminator 2
	movq	-704(%rbp), %rbx	# accum_target, iftmp.300
.L514:
	.loc 1 2508 0 discriminator 3
	movq	-736(%rbp), %rcx	# tem, tmp280
	movq	-744(%rbp), %rdx	# accum, tmp281
	movl	-788(%rbp), %eax	# mode, tmp282
	movl	%eax, %esi	# tmp282,
	movl	$75, %edi	#,
	call	gen_rtx_fmt_ee	#
	movq	%rbx, %rsi	# iftmp.300,
	movq	%rax, %rdi	# D.17625,
	call	force_operand	#
	movq	%rax, -744(%rbp)	# tmp283, accum
	.loc 1 2511 0 is_stmt 1 discriminator 3
	movl	-768(%rbp), %eax	# log, tmp284
	movq	-752(%rbp), %rdx	# val_so_far, tmp285
	movl	%eax, %ecx	# tmp284, tmp345
	salq	%cl, %rdx	# tmp345, D.17624
	movq	%rdx, %rax	# D.17624, D.17624
	addq	%rax, -752(%rbp)	# D.17624, val_so_far
	.loc 1 2512 0 discriminator 3
	jmp	.L504	#
.L501:
	.loc 1 2515 0
	movl	-768(%rbp), %eax	# log, tmp286
	cltq
	movl	$0, %esi	#,
	movq	%rax, %rdi	# D.17627,
	call	build_int_2_wide	#
	movq	%rax, %rcx	#, D.17630
	movq	-744(%rbp), %rdx	# accum, tmp287
	movl	-788(%rbp), %eax	# mode, tmp288
	movl	$0, %r9d	#,
	movl	$0, %r8d	#,
	movl	%eax, %esi	# tmp288,
	movl	$82, %edi	#,
	call	expand_shift	#
	movq	%rax, -736(%rbp)	# tmp289, tem
	.loc 1 2517 0
	cmpq	$0, -712(%rbp)	#, add_target
	jne	.L515	#,
	.loc 1 2519 0
	cmpl	$0, -764(%rbp)	#, preserve
	jne	.L516	#,
	.loc 1 2519 0 is_stmt 0 discriminator 1
	movq	-736(%rbp), %rax	# tem, iftmp.302
	jmp	.L517	#
.L516:
	.loc 1 2519 0 discriminator 2
	movl	$0, %eax	#, iftmp.302
.L517:
	.loc 1 2517 0 is_stmt 1 discriminator 1
	movq	%rax, %rbx	# iftmp.302, iftmp.301
	jmp	.L518	#
.L515:
	movq	-712(%rbp), %rbx	# add_target, iftmp.301
.L518:
	.loc 1 2517 0 is_stmt 0 discriminator 2
	movq	-744(%rbp), %rcx	# accum, tmp290
	movq	-736(%rbp), %rdx	# tem, tmp291
	movl	-788(%rbp), %eax	# mode, tmp292
	movl	%eax, %esi	# tmp292,
	movl	$76, %edi	#,
	call	gen_rtx_fmt_ee	#
	movq	%rbx, %rsi	# iftmp.301,
	movq	%rax, %rdi	# D.17625,
	call	force_operand	#
	movq	%rax, -744(%rbp)	# tmp293, accum
	.loc 1 2520 0 is_stmt 1 discriminator 2
	movl	-768(%rbp), %eax	# log, tmp294
	movq	-752(%rbp), %rdx	# val_so_far, tmp295
	movl	%eax, %ecx	# tmp294, tmp347
	salq	%cl, %rdx	# tmp347, D.17624
	movq	%rdx, %rax	# D.17624, D.17624
	subq	-752(%rbp), %rax	# val_so_far, tmp297
	movq	%rax, -752(%rbp)	# tmp297, val_so_far
	.loc 1 2521 0 discriminator 2
	jmp	.L504	#
.L495:
	.loc 1 2524 0
	movl	$__FUNCTION__.13089, %edx	#,
	movl	$2524, %esi	#,
	movl	$.LC0, %edi	#,
	call	fancy_abort	#
.L504:
	.loc 1 2532 0
	movq	-800(%rbp), %rax	# op0, tmp298
	movq	%rax, -736(%rbp)	# tmp298, tem
	movl	-788(%rbp), %eax	# mode, tmp299
	movl	%eax, -776(%rbp)	# tmp299, nmode
	.loc 1 2533 0
	movq	-744(%rbp), %rax	# accum, tmp300
	movzwl	(%rax), %eax	# accum_12->code, D.17620
	cmpw	$63, %ax	#, D.17620
	jne	.L519	#,
	.loc 1 2535 0
	movq	-744(%rbp), %rax	# accum, tmp301
	movq	8(%rax), %rax	# accum_12->fld[0].rtx, D.17625
	movzbl	2(%rax), %eax	# _184->mode, D.17621
	movzbl	%al, %eax	# D.17621, tmp302
	movl	%eax, -776(%rbp)	# tmp302, nmode
	.loc 1 2536 0
	movq	-800(%rbp), %rdx	# op0, tmp303
	movl	-776(%rbp), %eax	# nmode, tmp304
	movq	%rdx, %rsi	# tmp303,
	movl	%eax, %edi	# tmp304,
	call	gen_lowpart	#
	movq	%rax, -736(%rbp)	# tmp305, tem
.L519:
	.loc 1 2539 0
	call	get_last_insn	#
	movq	%rax, -696(%rbp)	# tmp306, insn
	.loc 1 2540 0
	movq	-752(%rbp), %rax	# val_so_far, tmp307
	movq	%rax, %rsi	# tmp307,
	movl	$0, %edi	#,
	call	gen_rtx_CONST_INT	#
	movq	%rax, %rcx	#, D.17625
	movq	-736(%rbp), %rdx	# tem, tmp308
	movl	-776(%rbp), %eax	# nmode, tmp309
	movl	%eax, %esi	# tmp309,
	movl	$78, %edi	#,
	call	gen_rtx_fmt_ee	#
	movq	%rax, %rdx	#, D.17625
	movq	-696(%rbp), %rax	# insn, tmp310
	movl	$4, %esi	#,
	movq	%rax, %rdi	# tmp310,
	call	set_unique_reg_note	#
.LBE49:
	.loc 1 2448 0
	addl	$1, -780(%rbp)	#, opno
.L488:
	.loc 1 2448 0 is_stmt 0 discriminator 1
	movzwl	-686(%rbp), %eax	# alg.ops, D.17626
	cwtl
	cmpl	-780(%rbp), %eax	# opno, D.17622
	jg	.L520	#,
	.loc 1 2546 0 is_stmt 1
	cmpl	$1, -784(%rbp)	#, variant
	jne	.L521	#,
	.loc 1 2548 0
	negq	-752(%rbp)	# val_so_far
	.loc 1 2549 0
	movq	optab_table+256(%rip), %rsi	# optab_table, D.17631
	movq	-816(%rbp), %rcx	# target, tmp311
	movq	-744(%rbp), %rdx	# accum, tmp312
	movl	-788(%rbp), %eax	# mode, tmp313
	movl	$0, %r8d	#,
	movl	%eax, %edi	# tmp313,
	call	expand_unop	#
	movq	%rax, -744(%rbp)	# tmp314, accum
	jmp	.L522	#
.L521:
	.loc 1 2551 0
	cmpl	$2, -784(%rbp)	#, variant
	jne	.L522	#,
	.loc 1 2553 0
	addq	$1, -752(%rbp)	#, val_so_far
	.loc 1 2554 0
	movq	-800(%rbp), %rcx	# op0, tmp315
	movq	-744(%rbp), %rdx	# accum, tmp316
	movl	-788(%rbp), %eax	# mode, tmp317
	movl	%eax, %esi	# tmp317,
	movl	$75, %edi	#,
	call	gen_rtx_fmt_ee	#
	movq	-816(%rbp), %rdx	# target, tmp318
	movq	%rdx, %rsi	# tmp318,
	movq	%rax, %rdi	# D.17625,
	call	force_operand	#
	movq	%rax, -744(%rbp)	# tmp319, accum
.L522:
	.loc 1 2557 0
	movq	-728(%rbp), %rax	# val, tmp320
	cmpq	-752(%rbp), %rax	# val_so_far, tmp320
	je	.L523	#,
	.loc 1 2558 0
	movl	$__FUNCTION__.13089, %edx	#,
	movl	$2558, %esi	#,
	movl	$.LC0, %edi	#,
	call	fancy_abort	#
.L523:
	.loc 1 2560 0
	movq	-744(%rbp), %rax	# accum, D.17619
	jmp	.L524	#
.L479:
.LBE48:
.LBE47:
	.loc 1 2566 0
	cmpl	$0, -792(%rbp)	#, unsignedp
	jne	.L525	#,
	.loc 1 2568 0
	movl	flag_trapv(%rip), %eax	# flag_trapv, flag_trapv.304
	testl	%eax, %eax	# flag_trapv.304
	je	.L525	#,
	.loc 1 2568 0 is_stmt 0 discriminator 1
	movl	-788(%rbp), %eax	# mode, mode.305
	cltq
	movl	mode_class(,%rax,4), %eax	# mode_class, D.17623
	cmpl	$1, %eax	#, D.17623
	jne	.L525	#,
	.loc 1 2566 0 is_stmt 1
	movq	optab_table+40(%rip), %rax	# optab_table, iftmp.303
	jmp	.L526	#
.L525:
	.loc 1 2566 0 is_stmt 0 discriminator 1
	movq	optab_table+32(%rip), %rax	# optab_table, iftmp.303
.L526:
	.loc 1 2566 0 discriminator 2
	movl	-792(%rbp), %r8d	# unsignedp, tmp322
	movq	-816(%rbp), %rsi	# target, tmp323
	movq	-808(%rbp), %rcx	# op1, tmp324
	movq	-800(%rbp), %rdx	# op0, tmp325
	movl	-788(%rbp), %edi	# mode, tmp326
	movl	$3, (%rsp)	#,
	movl	%r8d, %r9d	# tmp322,
	movq	%rsi, %r8	# tmp323,
	movq	%rax, %rsi	# iftmp.303,
	call	expand_binop	#
	movq	%rax, -800(%rbp)	# tmp327, op0
	.loc 1 2571 0 is_stmt 1 discriminator 2
	cmpq	$0, -800(%rbp)	#, op0
	jne	.L527	#,
	.loc 1 2572 0
	movl	$__FUNCTION__.13089, %edx	#,
	movl	$2572, %esi	#,
	movl	$.LC0, %edi	#,
	call	fancy_abort	#
.L527:
	.loc 1 2573 0
	movq	-800(%rbp), %rax	# op0, D.17619
.L524:
	.loc 1 2574 0
	movq	-24(%rbp), %rbx	# D.17632, tmp330
	xorq	%fs:40, %rbx	#, tmp330
	je	.L528	#,
	call	__stack_chk_fail	#
.L528:
	addq	$824, %rsp	#,
	popq	%rbx	#
	popq	%rbp	#
	.cfi_def_cfa 7, 8
	ret
	.cfi_endproc
.LFE17:
	.size	expand_mult, .-expand_mult
	.globl	ceil_log2
	.type	ceil_log2, @function
ceil_log2:
.LFB18:
	.loc 1 2581 0
	.cfi_startproc
	pushq	%rbp	#
	.cfi_def_cfa_offset 16
	.cfi_offset 6, -16
	movq	%rsp, %rbp	#,
	.cfi_def_cfa_register 6
	subq	$16, %rsp	#,
	movq	%rdi, -8(%rbp)	# x, x
	.loc 1 2582 0
	movq	-8(%rbp), %rax	# x, tmp63
	subq	$1, %rax	#, D.17635
	movq	%rax, %rdi	# D.17635,
	call	floor_log2_wide	#
	addl	$1, %eax	#, D.17636
	.loc 1 2583 0
	leave
	.cfi_def_cfa 7, 8
	ret
	.cfi_endproc
.LFE18:
	.size	ceil_log2, .-ceil_log2
	.type	choose_multiplier, @function
choose_multiplier:
.LFB19:
	.loc 1 2610 0
	.cfi_startproc
	pushq	%rbp	#
	.cfi_def_cfa_offset 16
	.cfi_offset 6, -16
	movq	%rsp, %rbp	#,
	.cfi_def_cfa_register 6
	subq	$192, %rsp	#,
	movq	%rdi, -120(%rbp)	# d, d
	movl	%esi, -124(%rbp)	# n, n
	movl	%edx, -128(%rbp)	# precision, precision
	movq	%rcx, -136(%rbp)	# multiplier_ptr, multiplier_ptr
	movq	%r8, -144(%rbp)	# post_shift_ptr, post_shift_ptr
	movq	%r9, -152(%rbp)	# lgup_ptr, lgup_ptr
	.loc 1 2619 0
	movq	-120(%rbp), %rax	# d, tmp94
	movq	%rax, %rdi	# tmp94,
	call	ceil_log2	#
	movl	%eax, -100(%rbp)	# tmp95, lgup
	.loc 1 2621 0
	movl	-100(%rbp), %eax	# lgup, tmp96
	cmpl	-124(%rbp), %eax	# n, tmp96
	jle	.L532	#,
	.loc 1 2622 0
	movl	$__FUNCTION__.13130, %edx	#,
	movl	$2622, %esi	#,
	movl	$.LC0, %edi	#,
	call	fancy_abort	#
.L532:
	.loc 1 2624 0
	movl	-100(%rbp), %eax	# lgup, tmp101
	movl	-124(%rbp), %edx	# n, tmp102
	addl	%edx, %eax	# tmp102, tmp100
	movl	%eax, -96(%rbp)	# tmp100, pow
	.loc 1 2625 0
	movl	-100(%rbp), %eax	# lgup, tmp103
	movl	-124(%rbp), %edx	# n, tmp104
	addl	%edx, %eax	# tmp104, D.17638
	subl	-128(%rbp), %eax	# precision, tmp106
	movl	%eax, -92(%rbp)	# tmp106, pow2
	.loc 1 2627 0
	cmpl	$128, -96(%rbp)	#, pow
	jne	.L533	#,
	.loc 1 2631 0
	movl	$__FUNCTION__.13130, %edx	#,
	movl	$2631, %esi	#,
	movl	$.LC0, %edi	#,
	call	fancy_abort	#
.L533:
	.loc 1 2635 0
	cmpl	$63, -96(%rbp)	#, pow
	jle	.L534	#,
	.loc 1 2637 0
	movl	-96(%rbp), %eax	# pow, tmp107
	subl	$64, %eax	#, D.17638
	movl	$1, %edx	#, tmp108
	movl	%eax, %ecx	# D.17638, tmp148
	salq	%cl, %rdx	# tmp148, tmp109
	movq	%rdx, %rax	# tmp109, tmp109
	movq	%rax, -32(%rbp)	# tmp109, nh
	.loc 1 2638 0
	movq	$0, -40(%rbp)	#, nl
	jmp	.L535	#
.L534:
	.loc 1 2642 0
	movq	$0, -32(%rbp)	#, nh
	.loc 1 2643 0
	movl	-96(%rbp), %eax	# pow, tmp110
	movl	$1, %edx	#, tmp111
	movl	%eax, %ecx	# tmp110, tmp150
	salq	%cl, %rdx	# tmp150, tmp112
	movq	%rdx, %rax	# tmp112, tmp112
	movq	%rax, -40(%rbp)	# tmp112, nl
.L535:
	.loc 1 2645 0
	movq	-120(%rbp), %rsi	# d, tmp113
	movq	-32(%rbp), %rdx	# nh, tmp114
	movq	-40(%rbp), %rax	# nl, tmp115
	leaq	-48(%rbp), %rcx	#, tmp116
	movq	%rcx, 24(%rsp)	# tmp116,
	leaq	-56(%rbp), %rcx	#, tmp117
	movq	%rcx, 16(%rsp)	# tmp117,
	leaq	-80(%rbp), %rcx	#, tmp118
	movq	%rcx, 8(%rsp)	# tmp118,
	leaq	-64(%rbp), %rcx	#, tmp119
	movq	%rcx, (%rsp)	# tmp119,
	movl	$0, %r9d	#,
	movq	%rsi, %r8	# tmp113,
	movq	%rdx, %rcx	# tmp114,
	movq	%rax, %rdx	# tmp115,
	movl	$1, %esi	#,
	movl	$62, %edi	#,
	call	div_and_round_double	#
	.loc 1 2649 0
	cmpl	$63, -92(%rbp)	#, pow2
	jle	.L536	#,
	.loc 1 2650 0
	movl	-92(%rbp), %eax	# pow2, tmp120
	subl	$64, %eax	#, D.17638
	movl	$1, %edx	#, tmp121
	movl	%eax, %ecx	# D.17638, tmp152
	salq	%cl, %rdx	# tmp152, D.17639
	movq	%rdx, %rax	# D.17639, D.17639
	orq	%rax, -32(%rbp)	# D.17639, nh
	jmp	.L537	#
.L536:
	.loc 1 2652 0
	movl	-92(%rbp), %eax	# pow2, tmp122
	movl	$1, %edx	#, tmp123
	movl	%eax, %ecx	# tmp122, tmp154
	salq	%cl, %rdx	# tmp154, D.17637
	movq	%rdx, %rax	# D.17637, D.17637
	orq	%rax, -40(%rbp)	# D.17637, nl
.L537:
	.loc 1 2653 0
	movq	-120(%rbp), %rsi	# d, tmp124
	movq	-32(%rbp), %rdx	# nh, tmp125
	movq	-40(%rbp), %rax	# nl, tmp126
	leaq	-48(%rbp), %rcx	#, tmp127
	movq	%rcx, 24(%rsp)	# tmp127,
	leaq	-56(%rbp), %rcx	#, tmp128
	movq	%rcx, 16(%rsp)	# tmp128,
	leaq	-88(%rbp), %rcx	#, tmp129
	movq	%rcx, 8(%rsp)	# tmp129,
	leaq	-72(%rbp), %rcx	#, tmp130
	movq	%rcx, (%rsp)	# tmp130,
	movl	$0, %r9d	#,
	movq	%rsi, %r8	# tmp124,
	movq	%rdx, %rcx	# tmp125,
	movq	%rax, %rdx	# tmp126,
	movl	$1, %esi	#,
	movl	$62, %edi	#,
	call	div_and_round_double	#
	.loc 1 2656 0
	movq	-88(%rbp), %rax	# mhigh_hi, mhigh_hi.306
	testq	%rax, %rax	# mhigh_hi.306
	je	.L538	#,
	.loc 1 2656 0 is_stmt 0 discriminator 1
	movq	-32(%rbp), %rax	# nh, nh.307
	subq	-120(%rbp), %rax	# d, D.17637
	cmpq	-120(%rbp), %rax	# d, D.17637
	jb	.L538	#,
	.loc 1 2657 0 is_stmt 1
	movl	$__FUNCTION__.13130, %edx	#,
	movl	$2657, %esi	#,
	movl	$.LC0, %edi	#,
	call	fancy_abort	#
.L538:
	.loc 1 2658 0
	movq	-88(%rbp), %rax	# mhigh_hi, mhigh_hi.308
	cmpq	$1, %rax	#, mhigh_hi.308
	jg	.L539	#,
	.loc 1 2658 0 is_stmt 0 discriminator 1
	movq	-80(%rbp), %rax	# mlow_hi, mlow_hi.309
	cmpq	$1, %rax	#, mlow_hi.309
	jle	.L540	#,
.L539:
	.loc 1 2659 0 is_stmt 1
	movl	$__FUNCTION__.13130, %edx	#,
	movl	$2659, %esi	#,
	movl	$.LC0, %edi	#,
	call	fancy_abort	#
.L540:
	.loc 1 2661 0
	movq	-80(%rbp), %rdx	# mlow_hi, mlow_hi.310
	movq	-88(%rbp), %rax	# mhigh_hi, mhigh_hi.311
	cmpq	%rax, %rdx	# mhigh_hi.311, mlow_hi.310
	jl	.L541	#,
	.loc 1 2661 0 is_stmt 0 discriminator 1
	movq	-80(%rbp), %rdx	# mlow_hi, mlow_hi.312
	movq	-88(%rbp), %rax	# mhigh_hi, mhigh_hi.313
	cmpq	%rax, %rdx	# mhigh_hi.313, mlow_hi.312
	jne	.L542	#,
	movq	-64(%rbp), %rdx	# mlow_lo, mlow_lo.314
	movq	-72(%rbp), %rax	# mhigh_lo, mhigh_lo.315
	cmpq	%rax, %rdx	# mhigh_lo.315, mlow_lo.314
	jb	.L541	#,
.L542:
	.loc 1 2662 0 is_stmt 1
	movl	$__FUNCTION__.13130, %edx	#,
	movl	$2662, %esi	#,
	movl	$.LC0, %edi	#,
	call	fancy_abort	#
.L541:
	.loc 1 2668 0
	movl	-100(%rbp), %eax	# lgup, tmp131
	movl	%eax, -104(%rbp)	# tmp131, post_shift
	jmp	.L543	#
.L546:
.LBB50:
	.loc 1 2670 0
	movq	-80(%rbp), %rax	# mlow_hi, mlow_hi.316
	salq	$63, %rax	#, D.17639
	movq	-64(%rbp), %rdx	# mlow_lo, mlow_lo.317
	shrq	%rdx	# D.17637
	orq	%rdx, %rax	# D.17637, tmp132
	movq	%rax, -24(%rbp)	# tmp132, ml_lo
	.loc 1 2671 0
	movq	-88(%rbp), %rax	# mhigh_hi, mhigh_hi.318
	salq	$63, %rax	#, D.17639
	movq	-72(%rbp), %rdx	# mhigh_lo, mhigh_lo.319
	shrq	%rdx	# D.17637
	orq	%rdx, %rax	# D.17637, tmp133
	movq	%rax, -16(%rbp)	# tmp133, mh_lo
	.loc 1 2672 0
	movq	-24(%rbp), %rax	# ml_lo, tmp134
	cmpq	-16(%rbp), %rax	# mh_lo, tmp134
	jb	.L544	#,
	.loc 1 2673 0
	jmp	.L545	#
.L544:
	.loc 1 2675 0
	movq	$0, -80(%rbp)	#, mlow_hi
	.loc 1 2676 0
	movq	-24(%rbp), %rax	# ml_lo, tmp135
	movq	%rax, -64(%rbp)	# tmp135, mlow_lo
	.loc 1 2677 0
	movq	$0, -88(%rbp)	#, mhigh_hi
	.loc 1 2678 0
	movq	-16(%rbp), %rax	# mh_lo, tmp136
	movq	%rax, -72(%rbp)	# tmp136, mhigh_lo
.LBE50:
	.loc 1 2668 0
	subl	$1, -104(%rbp)	#, post_shift
.L543:
	.loc 1 2668 0 is_stmt 0 discriminator 1
	cmpl	$0, -104(%rbp)	#, post_shift
	jg	.L546	#,
.L545:
	.loc 1 2681 0 is_stmt 1
	movq	-144(%rbp), %rax	# post_shift_ptr, tmp137
	movl	-104(%rbp), %edx	# post_shift, tmp138
	movl	%edx, (%rax)	# tmp138, *post_shift_ptr_49(D)
	.loc 1 2682 0
	movq	-152(%rbp), %rax	# lgup_ptr, tmp139
	movl	-100(%rbp), %edx	# lgup, tmp140
	movl	%edx, (%rax)	# tmp140, *lgup_ptr_50(D)
	.loc 1 2683 0
	cmpl	$63, -124(%rbp)	#, n
	jg	.L547	#,
.LBB51:
	.loc 1 2685 0
	movl	-124(%rbp), %eax	# n, tmp141
	movl	$1, %edx	#, tmp142
	movl	%eax, %ecx	# tmp141, tmp156
	salq	%cl, %rdx	# tmp156, D.17637
	movq	%rdx, %rax	# D.17637, D.17637
	subq	$1, %rax	#, tmp143
	movq	%rax, -8(%rbp)	# tmp143, mask
	.loc 1 2686 0
	movq	-72(%rbp), %rax	# mhigh_lo, mhigh_lo.320
	andq	-8(%rbp), %rax	# mask, D.17637
	movq	%rax, %rdx	# D.17637, D.17637
	movq	-136(%rbp), %rax	# multiplier_ptr, tmp144
	movq	%rdx, (%rax)	# D.17637, *multiplier_ptr_55(D)
	.loc 1 2687 0
	movq	-72(%rbp), %rax	# mhigh_lo, mhigh_lo.321
	cmpq	-8(%rbp), %rax	# mask, mhigh_lo.321
	setae	%al	#, D.17640
	movzbl	%al, %eax	# D.17640, D.17637
	jmp	.L549	#
.L547:
.LBE51:
	.loc 1 2691 0
	movq	-72(%rbp), %rdx	# mhigh_lo, mhigh_lo.322
	movq	-136(%rbp), %rax	# multiplier_ptr, tmp145
	movq	%rdx, (%rax)	# mhigh_lo.322, *multiplier_ptr_55(D)
	.loc 1 2692 0
	movq	-88(%rbp), %rax	# mhigh_hi, mhigh_hi.323
.L549:
	.loc 1 2694 0
	leave
	.cfi_def_cfa 7, 8
	ret
	.cfi_endproc
.LFE19:
	.size	choose_multiplier, .-choose_multiplier
	.type	invert_mod2n, @function
invert_mod2n:
.LFB20:
	.loc 1 2703 0
	.cfi_startproc
	pushq	%rbp	#
	.cfi_def_cfa_offset 16
	.cfi_offset 6, -16
	movq	%rsp, %rbp	#,
	.cfi_def_cfa_register 6
	movq	%rdi, -40(%rbp)	# x, x
	movl	%esi, -44(%rbp)	# n, n
	.loc 1 2711 0
	movq	-40(%rbp), %rax	# x, tmp66
	movq	%rax, -16(%rbp)	# tmp66, y
	.loc 1 2712 0
	movl	$3, -20(%rbp)	#, nbit
	.loc 1 2716 0
	cmpl	$64, -44(%rbp)	#, n
	je	.L551	#,
	.loc 1 2716 0 is_stmt 0 discriminator 1
	movl	-44(%rbp), %eax	# n, tmp67
	movl	$1, %edx	#, tmp68
	movl	%eax, %ecx	# tmp67, tmp76
	salq	%cl, %rdx	# tmp76, D.17641
	movq	%rdx, %rax	# D.17641, D.17641
	subq	$1, %rax	#, iftmp.324
	jmp	.L552	#
.L551:
	.loc 1 2716 0 discriminator 2
	movq	$-1, %rax	#, iftmp.324
.L552:
	.loc 1 2714 0 is_stmt 1
	movq	%rax, -8(%rbp)	# iftmp.324, mask
	.loc 1 2718 0
	jmp	.L553	#
.L554:
	.loc 1 2720 0
	movq	-40(%rbp), %rax	# x, tmp69
	imulq	-16(%rbp), %rax	# y, D.17641
	movl	$2, %edx	#, tmp70
	subq	%rax, %rdx	# D.17641, D.17641
	movq	%rdx, %rax	# D.17641, D.17641
	imulq	-16(%rbp), %rax	# y, D.17641
	andq	-8(%rbp), %rax	# mask, tmp72
	movq	%rax, -16(%rbp)	# tmp72, y
	.loc 1 2721 0
	sall	-20(%rbp)	# nbit
.L553:
	.loc 1 2718 0 discriminator 1
	movl	-20(%rbp), %eax	# nbit, tmp73
	cmpl	-44(%rbp), %eax	# n, tmp73
	jl	.L554	#,
	.loc 1 2723 0
	movq	-16(%rbp), %rax	# y, D.17641
	.loc 1 2724 0
	popq	%rbp	#
	.cfi_def_cfa 7, 8
	ret
	.cfi_endproc
.LFE20:
	.size	invert_mod2n, .-invert_mod2n
	.globl	expand_mult_highpart_adjust
	.type	expand_mult_highpart_adjust, @function
expand_mult_highpart_adjust:
.LFB21:
	.loc 1 2741 0
	.cfi_startproc
	pushq	%rbp	#
	.cfi_def_cfa_offset 16
	.cfi_offset 6, -16
	movq	%rsp, %rbp	#,
	.cfi_def_cfa_register 6
	subq	$64, %rsp	#,
	movl	%edi, -20(%rbp)	# mode, mode
	movq	%rsi, -32(%rbp)	# adj_operand, adj_operand
	movq	%rdx, -40(%rbp)	# op0, op0
	movq	%rcx, -48(%rbp)	# op1, op1
	movq	%r8, -56(%rbp)	# target, target
	movl	%r9d, -24(%rbp)	# unsignedp, unsignedp
	.loc 1 2743 0
	cmpl	$0, -24(%rbp)	#, unsignedp
	je	.L557	#,
	.loc 1 2743 0 is_stmt 0 discriminator 1
	movl	$75, %eax	#, iftmp.325
	jmp	.L558	#
.L557:
	.loc 1 2743 0 discriminator 2
	movl	$76, %eax	#, iftmp.325
.L558:
	.loc 1 2743 0 discriminator 3
	movl	%eax, -12(%rbp)	# iftmp.325, adj_code
	.loc 1 2746 0 is_stmt 1 discriminator 3
	movl	-20(%rbp), %eax	# mode, mode.326
	cltq
	movzwl	mode_bitsize(%rax,%rax), %eax	# mode_bitsize, D.17642
	movzwl	%ax, %eax	# D.17642, D.17643
	subl	$1, %eax	#, D.17643
	.loc 1 2745 0 discriminator 3
	cltq
	movl	$0, %esi	#,
	movq	%rax, %rdi	# D.17644,
	call	build_int_2_wide	#
	movq	%rax, %rcx	#, D.17645
	movq	-40(%rbp), %rdx	# op0, tmp77
	movl	-20(%rbp), %eax	# mode, tmp78
	movl	$0, %r9d	#,
	movl	$0, %r8d	#,
	movl	%eax, %esi	# tmp78,
	movl	$83, %edi	#,
	call	expand_shift	#
	movq	%rax, -8(%rbp)	# tmp79, tem
	.loc 1 2748 0 discriminator 3
	movq	-48(%rbp), %rdx	# op1, tmp80
	movq	-8(%rbp), %rsi	# tem, tmp81
	movl	-20(%rbp), %eax	# mode, tmp82
	movl	$0, %ecx	#,
	movl	%eax, %edi	# tmp82,
	call	expand_and	#
	movq	%rax, -8(%rbp)	# tmp83, tem
	.loc 1 2750 0 discriminator 3
	movq	-8(%rbp), %rcx	# tem, tmp84
	movq	-32(%rbp), %rdx	# adj_operand, tmp85
	movl	-20(%rbp), %esi	# mode, tmp86
	movl	-12(%rbp), %eax	# adj_code, tmp87
	movl	%eax, %edi	# tmp87,
	call	gen_rtx_fmt_ee	#
	movq	-32(%rbp), %rdx	# adj_operand, tmp88
	movq	%rdx, %rsi	# tmp88,
	movq	%rax, %rdi	# D.17646,
	call	force_operand	#
	movq	%rax, -32(%rbp)	# tmp89, adj_operand
	.loc 1 2754 0 discriminator 3
	movl	-20(%rbp), %eax	# mode, mode.327
	cltq
	movzwl	mode_bitsize(%rax,%rax), %eax	# mode_bitsize, D.17642
	movzwl	%ax, %eax	# D.17642, D.17643
	subl	$1, %eax	#, D.17643
	.loc 1 2753 0 discriminator 3
	cltq
	movl	$0, %esi	#,
	movq	%rax, %rdi	# D.17644,
	call	build_int_2_wide	#
	movq	%rax, %rcx	#, D.17645
	movq	-48(%rbp), %rdx	# op1, tmp91
	movl	-20(%rbp), %eax	# mode, tmp92
	movl	$0, %r9d	#,
	movl	$0, %r8d	#,
	movl	%eax, %esi	# tmp92,
	movl	$83, %edi	#,
	call	expand_shift	#
	movq	%rax, -8(%rbp)	# tmp93, tem
	.loc 1 2756 0 discriminator 3
	movq	-40(%rbp), %rdx	# op0, tmp94
	movq	-8(%rbp), %rsi	# tem, tmp95
	movl	-20(%rbp), %eax	# mode, tmp96
	movl	$0, %ecx	#,
	movl	%eax, %edi	# tmp96,
	call	expand_and	#
	movq	%rax, -8(%rbp)	# tmp97, tem
	.loc 1 2757 0 discriminator 3
	movq	-8(%rbp), %rcx	# tem, tmp98
	movq	-32(%rbp), %rdx	# adj_operand, tmp99
	movl	-20(%rbp), %esi	# mode, tmp100
	movl	-12(%rbp), %eax	# adj_code, tmp101
	movl	%eax, %edi	# tmp101,
	call	gen_rtx_fmt_ee	#
	movq	-56(%rbp), %rdx	# target, tmp102
	movq	%rdx, %rsi	# tmp102,
	movq	%rax, %rdi	# D.17646,
	call	force_operand	#
	movq	%rax, -56(%rbp)	# tmp103, target
	.loc 1 2760 0 discriminator 3
	movq	-56(%rbp), %rax	# target, D.17647
	.loc 1 2761 0 discriminator 3
	leave
	.cfi_def_cfa 7, 8
	ret
	.cfi_endproc
.LFE21:
	.size	expand_mult_highpart_adjust, .-expand_mult_highpart_adjust
	.globl	expand_mult_highpart
	.type	expand_mult_highpart, @function
expand_mult_highpart:
.LFB22:
	.loc 1 2780 0
	.cfi_startproc
	pushq	%rbp	#
	.cfi_def_cfa_offset 16
	.cfi_offset 6, -16
	movq	%rsp, %rbp	#,
	.cfi_def_cfa_register 6
	subq	$112, %rsp	#,
	movl	%edi, -68(%rbp)	# mode, mode
	movq	%rsi, -80(%rbp)	# op0, op0
	movq	%rdx, -88(%rbp)	# cnst1, cnst1
	movq	%rcx, -96(%rbp)	# target, target
	movl	%r8d, -72(%rbp)	# unsignedp, unsignedp
	movl	%r9d, -100(%rbp)	# max_cost, max_cost
	.loc 1 2781 0
	movl	-68(%rbp), %eax	# mode, mode.328
	cltq
	movzbl	mode_wider_mode(%rax), %eax	# mode_wider_mode, D.17649
	movzbl	%al, %eax	# D.17649, tmp138
	movl	%eax, -56(%rbp)	# tmp138, wider_mode
	.loc 1 2785 0
	movl	-68(%rbp), %eax	# mode, mode.329
	cltq
	movzwl	mode_bitsize(%rax,%rax), %eax	# mode_bitsize, D.17650
	movzwl	%ax, %eax	# D.17650, tmp140
	movl	%eax, -52(%rbp)	# tmp140, size
	.loc 1 2789 0
	cmpl	$64, -52(%rbp)	#, size
	jle	.L561	#,
	.loc 1 2790 0
	movl	$__FUNCTION__.13172, %edx	#,
	movl	$2790, %esi	#,
	movl	$.LC0, %edi	#,
	call	fancy_abort	#
.L561:
	.loc 1 2792 0
	movq	-88(%rbp), %rax	# cnst1, cnst1.330
	movl	-68(%rbp), %edx	# mode, tmp141
	movl	%edx, %esi	# tmp141,
	movq	%rax, %rdi	# cnst1.330,
	call	trunc_int_for_mode	#
	movq	%rax, %rsi	# D.17651,
	movl	$0, %edi	#,
	call	gen_rtx_CONST_INT	#
	movq	%rax, -40(%rbp)	# tmp142, op1
	.loc 1 2795 0
	cmpl	$0, -72(%rbp)	#, unsignedp
	jne	.L562	#,
	.loc 1 2798 0
	movq	-88(%rbp), %rax	# cnst1, cnst1.332
	.loc 1 2795 0
	sarq	$63, %rax	#, iftmp.331
	jmp	.L563	#
.L562:
	.loc 1 2795 0 is_stmt 0 discriminator 1
	movl	$0, %eax	#, iftmp.331
.L563:
	.loc 1 2795 0 discriminator 2
	movq	-88(%rbp), %rcx	# cnst1, cnst1.333
	movl	-56(%rbp), %edx	# wider_mode, tmp143
	movq	%rax, %rsi	# iftmp.331,
	movq	%rcx, %rdi	# cnst1.333,
	call	immed_double_const	#
	movq	%rax, -32(%rbp)	# tmp144, wide_op1
	.loc 1 2803 0 is_stmt 1 discriminator 2
	movl	target_flags(%rip), %eax	# target_flags, target_flags.335
	andl	$33554432, %eax	#, D.17652
	testl	%eax, %eax	# D.17652
	je	.L564	#,
	.loc 1 2803 0 is_stmt 0 discriminator 1
	movl	$64, %eax	#, iftmp.334
	jmp	.L565	#
.L564:
	.loc 1 2803 0 discriminator 2
	movl	$32, %eax	#, iftmp.334
.L565:
	.loc 1 2803 0 discriminator 3
	cmpl	-52(%rbp), %eax	# size, iftmp.334
	jle	.L566	#,
	.loc 1 2804 0 is_stmt 1
	movl	-56(%rbp), %eax	# wider_mode, wider_mode.336
	cltq
	movl	mul_cost(,%rax,4), %edx	# mul_cost, D.17652
	movl	-52(%rbp), %eax	# size, tmp146
	subl	$1, %eax	#, D.17652
	cltq
	movl	shift_cost(,%rax,4), %eax	# shift_cost, D.17652
	addl	%edx, %eax	# D.17652, D.17652
	cmpl	-100(%rbp), %eax	# max_cost, D.17652
	jge	.L566	#,
	.loc 1 2808 0
	movl	-72(%rbp), %edx	# unsignedp, tmp148
	movq	-80(%rbp), %rcx	# op0, tmp149
	movl	-56(%rbp), %eax	# wider_mode, tmp150
	movq	%rcx, %rsi	# tmp149,
	movl	%eax, %edi	# tmp150,
	call	convert_to_mode	#
	movq	%rax, -80(%rbp)	# tmp151, op0
	.loc 1 2812 0
	movq	-32(%rbp), %rdx	# wide_op1, tmp152
	movq	-80(%rbp), %rsi	# op0, tmp153
	movl	-56(%rbp), %eax	# wider_mode, tmp154
	movl	$0, %r8d	#,
	movl	$0, %ecx	#,
	movl	%eax, %edi	# tmp154,
	call	expand_mult	#
	movq	%rax, -24(%rbp)	# tmp155, tem
	.loc 1 2813 0
	movl	-52(%rbp), %eax	# size, tmp156
	cltq
	movl	$0, %esi	#,
	movq	%rax, %rdi	# D.17653,
	call	build_int_2_wide	#
	movq	%rax, %rcx	#, D.17654
	movq	-24(%rbp), %rdx	# tem, tmp157
	movl	-56(%rbp), %eax	# wider_mode, tmp158
	movl	$1, %r9d	#,
	movl	$0, %r8d	#,
	movl	%eax, %esi	# tmp158,
	movl	$83, %edi	#,
	call	expand_shift	#
	movq	%rax, -24(%rbp)	# tmp159, tem
	.loc 1 2815 0
	movl	-72(%rbp), %ecx	# unsignedp, tmp160
	movq	-24(%rbp), %rdx	# tem, tmp161
	movl	-56(%rbp), %esi	# wider_mode, tmp162
	movl	-68(%rbp), %eax	# mode, tmp163
	movl	%eax, %edi	# tmp163,
	call	convert_modes	#
	jmp	.L567	#
.L566:
	.loc 1 2818 0
	cmpq	$0, -96(%rbp)	#, target
	jne	.L568	#,
	.loc 1 2819 0
	movl	-68(%rbp), %eax	# mode, tmp164
	movl	%eax, %edi	# tmp164,
	call	gen_reg_rtx	#
	movq	%rax, -96(%rbp)	# tmp165, target
.L568:
	.loc 1 2823 0
	movl	-68(%rbp), %eax	# mode, mode.337
	cltq
	movl	mul_highpart_cost(,%rax,4), %eax	# mul_highpart_cost, D.17652
	cmpl	-100(%rbp), %eax	# max_cost, D.17652
	jge	.L569	#,
	.loc 1 2825 0
	cmpl	$0, -72(%rbp)	#, unsignedp
	je	.L570	#,
	.loc 1 2825 0 is_stmt 0 discriminator 1
	movq	optab_table+56(%rip), %rax	# optab_table, iftmp.338
	jmp	.L571	#
.L570:
	.loc 1 2825 0 discriminator 2
	movq	optab_table+48(%rip), %rax	# optab_table, iftmp.338
.L571:
	.loc 1 2825 0 discriminator 3
	movq	%rax, -16(%rbp)	# iftmp.338, mul_highpart_optab
	.loc 1 2826 0 is_stmt 1 discriminator 3
	movl	-72(%rbp), %r8d	# unsignedp, tmp167
	movq	-96(%rbp), %rdi	# target, tmp168
	movq	-40(%rbp), %rcx	# op1, tmp169
	movq	-80(%rbp), %rdx	# op0, tmp170
	movq	-16(%rbp), %rsi	# mul_highpart_optab, tmp171
	movl	-68(%rbp), %eax	# mode, tmp172
	movl	$0, (%rsp)	#,
	movl	%r8d, %r9d	# tmp167,
	movq	%rdi, %r8	# tmp168,
	movl	%eax, %edi	# tmp172,
	call	expand_binop	#
	movq	%rax, -96(%rbp)	# tmp173, target
	.loc 1 2828 0 discriminator 3
	cmpq	$0, -96(%rbp)	#, target
	je	.L569	#,
	.loc 1 2829 0
	movq	-96(%rbp), %rax	# target, D.17648
	jmp	.L567	#
.L569:
	.loc 1 2834 0
	movl	-52(%rbp), %eax	# size, tmp174
	leal	-1(%rax), %edx	#, D.17652
	movl	target_flags(%rip), %eax	# target_flags, target_flags.340
	andl	$33554432, %eax	#, D.17652
	testl	%eax, %eax	# D.17652
	je	.L572	#,
	.loc 1 2834 0 is_stmt 0 discriminator 1
	movl	$64, %eax	#, iftmp.339
	jmp	.L573	#
.L572:
	.loc 1 2834 0 discriminator 2
	movl	$32, %eax	#, iftmp.339
.L573:
	.loc 1 2834 0 discriminator 3
	cmpl	%eax, %edx	# iftmp.339, D.17652
	jge	.L574	#,
	.loc 1 2835 0 is_stmt 1
	movl	-68(%rbp), %eax	# mode, mode.341
	cltq
	movl	mul_highpart_cost(,%rax,4), %edx	# mul_highpart_cost, D.17652
	movl	-52(%rbp), %eax	# size, tmp176
	subl	$1, %eax	#, D.17652
	cltq
	movl	shift_cost(,%rax,4), %eax	# shift_cost, D.17652
	addl	%eax, %eax	# D.17652
	addl	%eax, %edx	# D.17652, D.17652
	movl	add_cost(%rip), %eax	# add_cost, add_cost.342
	sall	$2, %eax	#, D.17652
	addl	%edx, %eax	# D.17652, D.17652
	cmpl	-100(%rbp), %eax	# max_cost, D.17652
	jge	.L574	#,
	.loc 1 2838 0
	cmpl	$0, -72(%rbp)	#, unsignedp
	je	.L575	#,
	.loc 1 2838 0 is_stmt 0 discriminator 1
	movq	optab_table+48(%rip), %rax	# optab_table, iftmp.343
	jmp	.L576	#
.L575:
	.loc 1 2838 0 discriminator 2
	movq	optab_table+56(%rip), %rax	# optab_table, iftmp.343
.L576:
	.loc 1 2838 0 discriminator 3
	movq	%rax, -16(%rbp)	# iftmp.343, mul_highpart_optab
	.loc 1 2839 0 is_stmt 1 discriminator 3
	movl	-72(%rbp), %r8d	# unsignedp, tmp178
	movq	-96(%rbp), %rdi	# target, tmp179
	movq	-40(%rbp), %rcx	# op1, tmp180
	movq	-80(%rbp), %rdx	# op0, tmp181
	movq	-16(%rbp), %rsi	# mul_highpart_optab, tmp182
	movl	-68(%rbp), %eax	# mode, tmp183
	movl	$0, (%rsp)	#,
	movl	%r8d, %r9d	# tmp178,
	movq	%rdi, %r8	# tmp179,
	movl	%eax, %edi	# tmp183,
	call	expand_binop	#
	movq	%rax, -96(%rbp)	# tmp184, target
	.loc 1 2841 0 discriminator 3
	cmpq	$0, -96(%rbp)	#, target
	je	.L574	#,
	.loc 1 2843 0
	movl	-72(%rbp), %r8d	# unsignedp, tmp185
	movq	-96(%rbp), %rdi	# target, tmp186
	movq	-40(%rbp), %rcx	# op1, tmp187
	movq	-80(%rbp), %rdx	# op0, tmp188
	movq	-96(%rbp), %rsi	# target, tmp189
	movl	-68(%rbp), %eax	# mode, tmp190
	movl	%r8d, %r9d	# tmp185,
	movq	%rdi, %r8	# tmp186,
	movl	%eax, %edi	# tmp190,
	call	expand_mult_highpart_adjust	#
	jmp	.L567	#
.L574:
	.loc 1 2848 0
	cmpl	$0, -72(%rbp)	#, unsignedp
	je	.L577	#,
	.loc 1 2848 0 is_stmt 0 discriminator 1
	movq	optab_table+72(%rip), %rax	# optab_table, iftmp.344
	jmp	.L578	#
.L577:
	.loc 1 2848 0 discriminator 2
	movq	optab_table+64(%rip), %rax	# optab_table, iftmp.344
.L578:
	.loc 1 2848 0 discriminator 3
	movq	%rax, -48(%rbp)	# iftmp.344, moptab
	.loc 1 2849 0 is_stmt 1 discriminator 3
	movl	-56(%rbp), %edx	# wider_mode, wider_mode.345
	movq	-48(%rbp), %rax	# moptab, tmp191
	movslq	%edx, %rdx	# wider_mode.345, tmp192
	salq	$4, %rdx	#, tmp193
	addq	%rdx, %rax	# tmp193, tmp194
	movl	8(%rax), %eax	# moptab_80->handlers[wider_mode.345_81].insn_code, D.17655
	cmpl	$1317, %eax	#, D.17655
	je	.L579	#,
	.loc 1 2850 0
	movl	-56(%rbp), %eax	# wider_mode, wider_mode.346
	cltq
	movl	mul_widen_cost(,%rax,4), %eax	# mul_widen_cost, D.17652
	cmpl	-100(%rbp), %eax	# max_cost, D.17652
	jge	.L579	#,
	.loc 1 2852 0
	movq	-40(%rbp), %rdx	# op1, tmp196
	movl	-68(%rbp), %eax	# mode, tmp197
	movq	%rdx, %rsi	# tmp196,
	movl	%eax, %edi	# tmp197,
	call	force_reg	#
	movq	%rax, -40(%rbp)	# tmp198, op1
	.loc 1 2853 0
	jmp	.L580	#
.L579:
	.loc 1 2857 0
	movq	optab_table+32(%rip), %rax	# optab_table, tmp199
	movq	%rax, -48(%rbp)	# tmp199, moptab
	.loc 1 2858 0
	movq	optab_table+32(%rip), %rax	# optab_table, D.17656
	movl	-56(%rbp), %edx	# wider_mode, wider_mode.347
	movslq	%edx, %rdx	# wider_mode.347, tmp200
	salq	$4, %rdx	#, tmp201
	addq	%rdx, %rax	# tmp201, tmp202
	movl	8(%rax), %eax	# _87->handlers[wider_mode.347_88].insn_code, D.17655
	cmpl	$1317, %eax	#, D.17655
	je	.L581	#,
	.loc 1 2859 0
	movl	-52(%rbp), %eax	# size, tmp203
	leal	-1(%rax), %edx	#, D.17652
	movl	target_flags(%rip), %eax	# target_flags, target_flags.349
	andl	$33554432, %eax	#, D.17652
	testl	%eax, %eax	# D.17652
	je	.L582	#,
	.loc 1 2859 0 is_stmt 0 discriminator 1
	movl	$64, %eax	#, iftmp.348
	jmp	.L583	#
.L582:
	.loc 1 2859 0 discriminator 2
	movl	$32, %eax	#, iftmp.348
.L583:
	.loc 1 2859 0 discriminator 3
	cmpl	%eax, %edx	# iftmp.348, D.17652
	jge	.L581	#,
	.loc 1 2860 0 is_stmt 1
	movl	-56(%rbp), %eax	# wider_mode, wider_mode.350
	cltq
	movl	mul_cost(,%rax,4), %edx	# mul_cost, D.17652
	movl	-52(%rbp), %eax	# size, tmp205
	subl	$1, %eax	#, D.17652
	cltq
	movl	shift_cost(,%rax,4), %eax	# shift_cost, D.17652
	addl	%edx, %eax	# D.17652, D.17652
	cmpl	-100(%rbp), %eax	# max_cost, D.17652
	jge	.L581	#,
	.loc 1 2862 0
	movq	-32(%rbp), %rax	# wide_op1, tmp207
	movq	%rax, -40(%rbp)	# tmp207, op1
	.loc 1 2863 0
	jmp	.L580	#
.L581:
	.loc 1 2867 0
	cmpl	$0, -72(%rbp)	#, unsignedp
	je	.L584	#,
	.loc 1 2867 0 is_stmt 0 discriminator 1
	movq	optab_table+64(%rip), %rax	# optab_table, iftmp.351
	jmp	.L585	#
.L584:
	.loc 1 2867 0 discriminator 2
	movq	optab_table+72(%rip), %rax	# optab_table, iftmp.351
.L585:
	.loc 1 2867 0 discriminator 3
	movq	%rax, -48(%rbp)	# iftmp.351, moptab
	.loc 1 2868 0 is_stmt 1 discriminator 3
	movl	-56(%rbp), %edx	# wider_mode, wider_mode.352
	movq	-48(%rbp), %rax	# moptab, tmp208
	movslq	%edx, %rdx	# wider_mode.352, tmp209
	salq	$4, %rdx	#, tmp210
	addq	%rdx, %rax	# tmp210, tmp211
	movl	8(%rax), %eax	# moptab_103->handlers[wider_mode.352_104].insn_code, D.17655
	cmpl	$1317, %eax	#, D.17655
	je	.L586	#,
	.loc 1 2869 0
	movl	-52(%rbp), %eax	# size, tmp212
	leal	-1(%rax), %edx	#, D.17652
	movl	target_flags(%rip), %eax	# target_flags, target_flags.354
	andl	$33554432, %eax	#, D.17652
	testl	%eax, %eax	# D.17652
	je	.L587	#,
	.loc 1 2869 0 is_stmt 0 discriminator 1
	movl	$64, %eax	#, iftmp.353
	jmp	.L588	#
.L587:
	.loc 1 2869 0 discriminator 2
	movl	$32, %eax	#, iftmp.353
.L588:
	.loc 1 2869 0 discriminator 3
	cmpl	%eax, %edx	# iftmp.353, D.17652
	jge	.L586	#,
	.loc 1 2870 0 is_stmt 1
	movl	-56(%rbp), %eax	# wider_mode, wider_mode.355
	cltq
	movl	mul_widen_cost(,%rax,4), %edx	# mul_widen_cost, D.17652
	.loc 1 2871 0
	movl	-52(%rbp), %eax	# size, tmp214
	subl	$1, %eax	#, D.17652
	cltq
	movl	shift_cost(,%rax,4), %eax	# shift_cost, D.17652
	addl	%eax, %eax	# D.17652
	addl	%eax, %edx	# D.17652, D.17652
	movl	add_cost(%rip), %eax	# add_cost, add_cost.356
	sall	$2, %eax	#, D.17652
	addl	%edx, %eax	# D.17652, D.17652
	.loc 1 2870 0
	cmpl	-100(%rbp), %eax	# max_cost, D.17652
	jge	.L586	#,
.LBB52:
	.loc 1 2873 0
	movq	-40(%rbp), %rdx	# op1, tmp216
	movl	-68(%rbp), %eax	# mode, tmp217
	movq	%rdx, %rsi	# tmp216,
	movl	%eax, %edi	# tmp217,
	call	force_reg	#
	movq	%rax, -8(%rbp)	# tmp218, regop1
	.loc 1 2874 0
	cmpl	$0, -72(%rbp)	#, unsignedp
	sete	%al	#, D.17657
	movzbl	%al, %edi	# D.17657, D.17652
	movq	-8(%rbp), %rcx	# regop1, tmp219
	movq	-80(%rbp), %rdx	# op0, tmp220
	movq	-48(%rbp), %rsi	# moptab, tmp221
	movl	-56(%rbp), %eax	# wider_mode, tmp222
	movl	$2, (%rsp)	#,
	movl	%edi, %r9d	# D.17652,
	movl	$0, %r8d	#,
	movl	%eax, %edi	# tmp222,
	call	expand_binop	#
	movq	%rax, -24(%rbp)	# tmp223, tem
	.loc 1 2876 0
	cmpq	$0, -24(%rbp)	#, tem
	je	.L586	#,
	.loc 1 2879 0
	movl	-52(%rbp), %eax	# size, tmp224
	cltq
	movl	$0, %esi	#,
	movq	%rax, %rdi	# D.17653,
	call	build_int_2_wide	#
	movq	%rax, %rcx	#, D.17654
	movq	-24(%rbp), %rdx	# tem, tmp225
	movl	-56(%rbp), %eax	# wider_mode, tmp226
	movl	$1, %r9d	#,
	movl	$0, %r8d	#,
	movl	%eax, %esi	# tmp226,
	movl	$83, %edi	#,
	call	expand_shift	#
	movq	%rax, -24(%rbp)	# tmp227, tem
	.loc 1 2881 0
	movl	-72(%rbp), %ecx	# unsignedp, tmp228
	movq	-24(%rbp), %rdx	# tem, tmp229
	movl	-56(%rbp), %esi	# wider_mode, tmp230
	movl	-68(%rbp), %eax	# mode, tmp231
	movl	%eax, %edi	# tmp231,
	call	convert_modes	#
	movq	%rax, -24(%rbp)	# tmp232, tem
	.loc 1 2883 0
	movl	-72(%rbp), %r8d	# unsignedp, tmp233
	movq	-96(%rbp), %rdi	# target, tmp234
	movq	-40(%rbp), %rcx	# op1, tmp235
	movq	-80(%rbp), %rdx	# op0, tmp236
	movq	-24(%rbp), %rsi	# tem, tmp237
	movl	-68(%rbp), %eax	# mode, tmp238
	movl	%r8d, %r9d	# tmp233,
	movq	%rdi, %r8	# tmp234,
	movl	%eax, %edi	# tmp238,
	call	expand_mult_highpart_adjust	#
	jmp	.L567	#
.L586:
.LBE52:
	.loc 1 2888 0
	movl	$0, %eax	#, D.17648
	jmp	.L567	#
.L580:
	.loc 1 2892 0
	movl	-72(%rbp), %edi	# unsignedp, tmp239
	movq	-40(%rbp), %rcx	# op1, tmp240
	movq	-80(%rbp), %rdx	# op0, tmp241
	movq	-48(%rbp), %rsi	# moptab, tmp242
	movl	-56(%rbp), %eax	# wider_mode, tmp243
	movl	$2, (%rsp)	#,
	movl	%edi, %r9d	# tmp239,
	movl	$0, %r8d	#,
	movl	%eax, %edi	# tmp243,
	call	expand_binop	#
	movq	%rax, -24(%rbp)	# tmp244, tem
	.loc 1 2894 0
	cmpq	$0, -24(%rbp)	#, tem
	jne	.L589	#,
	.loc 1 2895 0
	movl	$0, %eax	#, D.17648
	jmp	.L567	#
.L589:
	.loc 1 2898 0
	movl	word_mode(%rip), %eax	# word_mode, word_mode.357
	cmpl	%eax, -68(%rbp)	# word_mode.357, mode
	jne	.L590	#,
	.loc 1 2900 0
	movq	-24(%rbp), %rdx	# tem, tmp245
	movl	-68(%rbp), %eax	# mode, tmp246
	movq	%rdx, %rsi	# tmp245,
	movl	%eax, %edi	# tmp246,
	call	gen_highpart	#
	jmp	.L567	#
.L590:
	.loc 1 2904 0
	movl	-52(%rbp), %eax	# size, tmp247
	cltq
	movl	$0, %esi	#,
	movq	%rax, %rdi	# D.17653,
	call	build_int_2_wide	#
	movq	%rax, %rcx	#, D.17654
	movq	-24(%rbp), %rdx	# tem, tmp248
	movl	-56(%rbp), %eax	# wider_mode, tmp249
	movl	$1, %r9d	#,
	movl	$0, %r8d	#,
	movl	%eax, %esi	# tmp249,
	movl	$83, %edi	#,
	call	expand_shift	#
	movq	%rax, -24(%rbp)	# tmp250, tem
	.loc 1 2906 0
	movl	-72(%rbp), %ecx	# unsignedp, tmp251
	movq	-24(%rbp), %rdx	# tem, tmp252
	movl	-56(%rbp), %esi	# wider_mode, tmp253
	movl	-68(%rbp), %eax	# mode, tmp254
	movl	%eax, %edi	# tmp254,
	call	convert_modes	#
.L567:
	.loc 1 2908 0
	leave
	.cfi_def_cfa 7, 8
	ret
	.cfi_endproc
.LFE22:
	.size	expand_mult_highpart, .-expand_mult_highpart
	.globl	expand_divmod
	.type	expand_divmod, @function
expand_divmod:
.LFB23:
	.loc 1 2957 0
	.cfi_startproc
	pushq	%rbp	#
	.cfi_def_cfa_offset 16
	.cfi_offset 6, -16
	movq	%rsp, %rbp	#,
	.cfi_def_cfa_register 6
	subq	$816, %rsp	#,
	movl	%edi, -756(%rbp)	# rem_flag, rem_flag
	movl	%esi, -760(%rbp)	# code, code
	movl	%edx, -764(%rbp)	# mode, mode
	movq	%rcx, -776(%rbp)	# op0, op0
	movq	%r8, -784(%rbp)	# op1, op1
	movq	%r9, -792(%rbp)	# target, target
	.loc 1 2960 0
	movq	$0, -688(%rbp)	#, quotient
	movq	$0, -680(%rbp)	#, remainder
	.loc 1 2969 0
	movq	-784(%rbp), %rax	# op1, tmp531
	movzwl	(%rax), %eax	# op1_124(D)->code, D.17659
	cmpw	$54, %ax	#, D.17659
	sete	%al	#, D.17660
	movzbl	%al, %eax	# D.17660, tmp532
	movl	%eax, -736(%rbp)	# tmp532, op1_is_constant
	.loc 1 2971 0
	cmpl	$0, -736(%rbp)	#, op1_is_constant
	je	.L592	#,
	.loc 1 2971 0 is_stmt 0 discriminator 1
	movq	-784(%rbp), %rax	# op1, tmp533
	movq	8(%rax), %rdx	# op1_124(D)->fld[0].rtwint, D.17661
	movq	-784(%rbp), %rax	# op1, tmp534
	movq	8(%rax), %rax	# op1_124(D)->fld[0].rtwint, D.17661
	subq	$1, %rax	#, D.17661
	andq	%rdx, %rax	# D.17661, D.17661
	testq	%rax, %rax	# D.17661
	je	.L593	#,
	.loc 1 2972 0 is_stmt 1
	cmpl	$0, 16(%rbp)	#, unsignedp
	jne	.L592	#,
	.loc 1 2972 0 is_stmt 0 discriminator 1
	movq	-784(%rbp), %rax	# op1, tmp535
	movq	8(%rax), %rax	# op1_124(D)->fld[0].rtwint, D.17661
	negq	%rax	# D.17661
	movq	%rax, %rdx	# D.17661, D.17661
	movq	-784(%rbp), %rax	# op1, tmp536
	movq	8(%rax), %rax	# op1_124(D)->fld[0].rtwint, D.17661
	notq	%rax	# D.17661
	andq	%rdx, %rax	# D.17661, D.17661
	testq	%rax, %rax	# D.17661
	jne	.L592	#,
.L593:
	.loc 1 2971 0 is_stmt 1 discriminator 3
	movl	$1, %eax	#, iftmp.358
	jmp	.L594	#
.L592:
	.loc 1 2971 0 is_stmt 0 discriminator 2
	movl	$0, %eax	#, iftmp.358
.L594:
	.loc 1 2970 0 is_stmt 1
	movl	%eax, -732(%rbp)	# iftmp.358, op1_is_pow2
	.loc 1 3006 0
	movq	const_int_rtx+520(%rip), %rax	# const_int_rtx, D.17662
	cmpq	-784(%rbp), %rax	# op1, D.17662
	jne	.L595	#,
	.loc 1 3007 0
	cmpl	$0, -756(%rbp)	#, rem_flag
	je	.L596	#,
	.loc 1 3007 0 is_stmt 0 discriminator 1
	movq	const_int_rtx+512(%rip), %rax	# const_int_rtx, iftmp.359
	jmp	.L597	#
.L596:
	.loc 1 3007 0 discriminator 2
	movq	-776(%rbp), %rax	# op0, iftmp.359
.L597:
	.loc 1 3007 0 discriminator 3
	jmp	.L598	#
.L595:
	.loc 1 3011 0 is_stmt 1
	cmpl	$0, 16(%rbp)	#, unsignedp
	jne	.L599	#,
	.loc 1 3011 0 is_stmt 0 discriminator 1
	movq	const_int_rtx+504(%rip), %rax	# const_int_rtx, D.17662
	cmpq	-784(%rbp), %rax	# op1, D.17662
	jne	.L599	#,
	.loc 1 3013 0 is_stmt 1
	cmpl	$0, -756(%rbp)	#, rem_flag
	je	.L600	#,
	.loc 1 3014 0
	movq	const_int_rtx+512(%rip), %rax	# const_int_rtx, D.17658
	jmp	.L598	#
.L600:
	.loc 1 3015 0
	movl	flag_trapv(%rip), %eax	# flag_trapv, flag_trapv.361
	testl	%eax, %eax	# flag_trapv.361
	je	.L601	#,
	.loc 1 3015 0 is_stmt 0 discriminator 1
	movl	-764(%rbp), %eax	# mode, mode.362
	cltq
	movl	mode_class(,%rax,4), %eax	# mode_class, D.17663
	cmpl	$1, %eax	#, D.17663
	jne	.L601	#,
	movq	optab_table+264(%rip), %rax	# optab_table, iftmp.360
	jmp	.L602	#
.L601:
	.loc 1 3015 0 discriminator 2
	movq	optab_table+256(%rip), %rax	# optab_table, iftmp.360
.L602:
	.loc 1 3015 0 discriminator 3
	movq	-792(%rbp), %rcx	# target, tmp538
	movq	-776(%rbp), %rdx	# op0, tmp539
	movl	-764(%rbp), %edi	# mode, tmp540
	movl	$0, %r8d	#,
	movq	%rax, %rsi	# iftmp.360,
	call	expand_unop	#
	jmp	.L598	#
.L599:
	.loc 1 3019 0 is_stmt 1
	cmpq	$0, -792(%rbp)	#, target
	je	.L603	#,
	.loc 1 3023 0
	movq	-792(%rbp), %rax	# target, tmp541
	movzwl	(%rax), %eax	# target_155(D)->code, D.17659
	cmpw	$61, %ax	#, D.17659
	jne	.L604	#,
	.loc 1 3023 0 is_stmt 0 discriminator 1
	movq	-792(%rbp), %rax	# target, tmp542
	movzbl	3(%rax), %eax	# *target_155(D), D.17664
	andl	$64, %eax	#, D.17664
	testb	%al, %al	# D.17664
	jne	.L605	#,
.L604:
	.loc 1 3025 0 is_stmt 1
	cmpl	$0, -756(%rbp)	#, rem_flag
	jne	.L606	#,
	.loc 1 3025 0 is_stmt 0 discriminator 1
	cmpl	$0, -736(%rbp)	#, op1_is_constant
	je	.L607	#,
.L606:
	.loc 1 3026 0 is_stmt 1
	movq	-776(%rbp), %rdx	# op0, tmp543
	movq	-792(%rbp), %rax	# target, tmp544
	movq	%rdx, %rsi	# tmp543,
	movq	%rax, %rdi	# tmp544,
	call	reg_mentioned_p	#
	testl	%eax, %eax	# D.17665
	jne	.L605	#,
	.loc 1 3027 0
	movq	-776(%rbp), %rax	# op0, tmp545
	movzwl	(%rax), %eax	# op0_144(D)->code, D.17659
	cmpw	$66, %ax	#, D.17659
	jne	.L607	#,
	.loc 1 3027 0 is_stmt 0 discriminator 1
	movq	-792(%rbp), %rax	# target, tmp546
	movzwl	(%rax), %eax	# target_155(D)->code, D.17659
	cmpw	$66, %ax	#, D.17659
	je	.L605	#,
.L607:
	.loc 1 3028 0 is_stmt 1
	movq	-784(%rbp), %rdx	# op1, tmp547
	movq	-792(%rbp), %rax	# target, tmp548
