	.file	"expr.c"
# GNU C (Ubuntu/Linaro 4.8.1-10ubuntu9) version 4.8.1 (x86_64-linux-gnu)
#	compiled by GNU C version 4.8.1, GMP version 5.1.2, MPFR version 3.1.1-p2, MPC version 1.0.1
# GGC heuristics: --param ggc-min-expand=100 --param ggc-min-heapsize=131072
# options passed:  -I . -imultiarch x86_64-linux-gnu -D SPEC_CPU -D NDEBUG
# -D SPEC_CPU_LP64 expr.c -mtune=generic -march=x86-64 -g -fverbose-asm
# -fno-strict-aliasing -fstack-protector -Wformat -Wformat-security
# options enabled:  -faggressive-loop-optimizations
# -fasynchronous-unwind-tables -fauto-inc-dec -fbranch-count-reg -fcommon
# -fdelete-null-pointer-checks -fdwarf2-cfi-asm -fearly-inlining
# -feliminate-unused-debug-types -ffunction-cse -fgcse-lm -fgnu-runtime
# -fident -finline-atomics -fira-hoist-pressure -fira-share-save-slots
# -fira-share-spill-slots -fivopts -fkeep-static-consts
# -fleading-underscore -fmath-errno -fmerge-debug-strings
# -fmove-loop-invariants -fpeephole -fprefetch-loop-arrays
# -freg-struct-return -fsched-critical-path-heuristic
# -fsched-dep-count-heuristic -fsched-group-heuristic -fsched-interblock
# -fsched-last-insn-heuristic -fsched-rank-heuristic -fsched-spec
# -fsched-spec-insn-heuristic -fsched-stalled-insns-dep -fshow-column
# -fsigned-zeros -fsplit-ivs-in-unroller -fstack-protector
# -fstrict-volatile-bitfields -fsync-libcalls -ftrapping-math
# -ftree-coalesce-vars -ftree-cselim -ftree-forwprop -ftree-loop-if-convert
# -ftree-loop-im -ftree-loop-ivcanon -ftree-loop-optimize
# -ftree-parallelize-loops= -ftree-phiprop -ftree-pta -ftree-reassoc
# -ftree-scev-cprop -ftree-slp-vectorize -ftree-vect-loop-version
# -funit-at-a-time -funwind-tables -fverbose-asm -fzero-initialized-in-bss
# -m128bit-long-double -m64 -m80387 -maccumulate-outgoing-args
# -malign-stringops -mfancy-math-387 -mfp-ret-in-387 -mfxsr -mglibc
# -mieee-fp -mlong-double-80 -mmmx -mno-sse4 -mpush-args -mred-zone -msse
# -msse2 -mtls-direct-seg-refs

	.text
.Ltext0:
	.comm	cse_not_expected,4,4
	.local	placeholder_list
	.comm	placeholder_list,8,8
	.local	direct_load
	.comm	direct_load,59,32
	.local	direct_store
	.comm	direct_store,59,32
	.comm	movstr_optab,236,32
	.comm	clrstr_optab,236,32
	.globl	init_expr_once
	.type	init_expr_once, @function
init_expr_once:
.LFB2:
	.file 1 "expr.c"
	.loc 1 206 0
	.cfi_startproc
	pushq	%rbp	#
	.cfi_def_cfa_offset 16
	.cfi_offset 6, -16
	movq	%rsp, %rbp	#,
	.cfi_def_cfa_register 6
	subq	$64, %rsp	#,
	.loc 1 212 0
	call	start_sequence	#
	.loc 1 217 0
	movq	global_rtl+16(%rip), %rax	# global_rtl, D.25546
	movq	%rax, %rsi	# D.25546,
	movl	$0, %edi	#,
	call	gen_rtx_MEM	#
	movq	%rax, -40(%rbp)	# tmp83, mem
	.loc 1 218 0
	movq	global_rtl+24(%rip), %rax	# global_rtl, D.25546
	movq	%rax, %rsi	# D.25546,
	movl	$0, %edi	#,
	call	gen_rtx_MEM	#
	movq	%rax, -32(%rbp)	# tmp84, mem1
	.loc 1 220 0
	movl	$0, %ecx	#,
	movl	$0, %edx	#,
	movl	$0, %esi	#,
	movl	$47, %edi	#,
	call	gen_rtx_fmt_ee	#
	movq	%rax, %rdi	# D.25546,
	call	emit_insn	#
	movq	%rax, -24(%rbp)	# tmp85, insn
	.loc 1 221 0
	movq	-24(%rbp), %rax	# insn, tmp86
	movq	32(%rax), %rax	# insn_8->fld[3].rtx, tmp87
	movq	%rax, -16(%rbp)	# tmp87, pat
	.loc 1 223 0
	movl	$0, -48(%rbp)	#, mode
	jmp	.L2	#
.L11:
.LBB2:
	.loc 1 229 0
	movl	-48(%rbp), %ecx	# mode, mode.0
	movl	-48(%rbp), %eax	# mode, mode.1
	movslq	%eax, %rdx	# mode.1, tmp88
	movb	$0, direct_store(%rdx)	#, direct_store
	cltq
	movzbl	direct_store(%rax), %edx	# direct_store, D.25547
	movslq	%ecx, %rax	# mode.0, tmp90
	movb	%dl, direct_load(%rax)	# D.25547, direct_load
	.loc 1 230 0
	movl	-48(%rbp), %eax	# mode, tmp91
	movl	%eax, %edx	# tmp91, D.25548
	movq	-40(%rbp), %rax	# mem, tmp92
	movb	%dl, 2(%rax)	# D.25548, mem_4->mode
	.loc 1 231 0
	movl	-48(%rbp), %eax	# mode, tmp93
	movl	%eax, %edx	# tmp93, D.25548
	movq	-32(%rbp), %rax	# mem1, tmp94
	movb	%dl, 2(%rax)	# D.25548, mem1_6->mode
	.loc 1 236 0
	cmpl	$0, -48(%rbp)	#, mode
	je	.L3	#,
	.loc 1 236 0 is_stmt 0 discriminator 1
	cmpl	$51, -48(%rbp)	#, mode
	je	.L3	#,
	.loc 1 237 0 is_stmt 1
	movl	$0, -44(%rbp)	#, regno
	jmp	.L4	#
.L10:
	.loc 1 241 0
	movl	-48(%rbp), %edx	# mode, tmp95
	movl	-44(%rbp), %eax	# regno, tmp96
	movl	%edx, %esi	# tmp95,
	movl	%eax, %edi	# tmp96,
	call	ix86_hard_regno_mode_ok	#
	testl	%eax, %eax	# D.25549
	jne	.L5	#,
	.loc 1 242 0
	jmp	.L6	#
.L5:
	.loc 1 244 0
	movl	-44(%rbp), %edx	# regno, tmp97
	movl	-48(%rbp), %eax	# mode, tmp98
	movl	%edx, %esi	# tmp97,
	movl	%eax, %edi	# tmp98,
	call	gen_rtx_REG	#
	movq	%rax, -8(%rbp)	# tmp99, reg
	.loc 1 246 0
	movq	-16(%rbp), %rax	# pat, tmp100
	movq	-40(%rbp), %rdx	# mem, tmp101
	movq	%rdx, 16(%rax)	# tmp101, pat_9->fld[1].rtx
	.loc 1 247 0
	movq	-16(%rbp), %rax	# pat, tmp102
	movq	-8(%rbp), %rdx	# reg, tmp103
	movq	%rdx, 8(%rax)	# tmp103, pat_9->fld[0].rtx
	.loc 1 248 0
	leaq	-52(%rbp), %rdx	#, tmp104
	movq	-24(%rbp), %rcx	# insn, tmp105
	movq	-16(%rbp), %rax	# pat, tmp106
	movq	%rcx, %rsi	# tmp105,
	movq	%rax, %rdi	# tmp106,
	call	recog	#
	testl	%eax, %eax	# D.25549
	js	.L7	#,
	.loc 1 249 0
	movl	-48(%rbp), %eax	# mode, mode.2
	cltq
	movb	$1, direct_load(%rax)	#, direct_load
.L7:
	.loc 1 251 0
	movq	-16(%rbp), %rax	# pat, tmp108
	movq	-32(%rbp), %rdx	# mem1, tmp109
	movq	%rdx, 16(%rax)	# tmp109, pat_9->fld[1].rtx
	.loc 1 252 0
	movq	-16(%rbp), %rax	# pat, tmp110
	movq	-8(%rbp), %rdx	# reg, tmp111
	movq	%rdx, 8(%rax)	# tmp111, pat_9->fld[0].rtx
	.loc 1 253 0
	leaq	-52(%rbp), %rdx	#, tmp112
	movq	-24(%rbp), %rcx	# insn, tmp113
	movq	-16(%rbp), %rax	# pat, tmp114
	movq	%rcx, %rsi	# tmp113,
	movq	%rax, %rdi	# tmp114,
	call	recog	#
	testl	%eax, %eax	# D.25549
	js	.L8	#,
	.loc 1 254 0
	movl	-48(%rbp), %eax	# mode, mode.3
	cltq
	movb	$1, direct_load(%rax)	#, direct_load
.L8:
	.loc 1 256 0
	movq	-16(%rbp), %rax	# pat, tmp116
	movq	-8(%rbp), %rdx	# reg, tmp117
	movq	%rdx, 16(%rax)	# tmp117, pat_9->fld[1].rtx
	.loc 1 257 0
	movq	-16(%rbp), %rax	# pat, tmp118
	movq	-40(%rbp), %rdx	# mem, tmp119
	movq	%rdx, 8(%rax)	# tmp119, pat_9->fld[0].rtx
	.loc 1 258 0
	leaq	-52(%rbp), %rdx	#, tmp120
	movq	-24(%rbp), %rcx	# insn, tmp121
	movq	-16(%rbp), %rax	# pat, tmp122
	movq	%rcx, %rsi	# tmp121,
	movq	%rax, %rdi	# tmp122,
	call	recog	#
	testl	%eax, %eax	# D.25549
	js	.L9	#,
	.loc 1 259 0
	movl	-48(%rbp), %eax	# mode, mode.4
	cltq
	movb	$1, direct_store(%rax)	#, direct_store
.L9:
	.loc 1 261 0
	movq	-16(%rbp), %rax	# pat, tmp124
	movq	-8(%rbp), %rdx	# reg, tmp125
	movq	%rdx, 16(%rax)	# tmp125, pat_9->fld[1].rtx
	.loc 1 262 0
	movq	-16(%rbp), %rax	# pat, tmp126
	movq	-32(%rbp), %rdx	# mem1, tmp127
	movq	%rdx, 8(%rax)	# tmp127, pat_9->fld[0].rtx
	.loc 1 263 0
	leaq	-52(%rbp), %rdx	#, tmp128
	movq	-24(%rbp), %rcx	# insn, tmp129
	movq	-16(%rbp), %rax	# pat, tmp130
	movq	%rcx, %rsi	# tmp129,
	movq	%rax, %rdi	# tmp130,
	call	recog	#
	testl	%eax, %eax	# D.25549
	js	.L6	#,
	.loc 1 264 0
	movl	-48(%rbp), %eax	# mode, mode.5
	cltq
	movb	$1, direct_store(%rax)	#, direct_store
.L6:
	.loc 1 239 0
	addl	$1, -44(%rbp)	#, regno
.L4:
	.loc 1 237 0 discriminator 1
	cmpl	$52, -44(%rbp)	#, regno
	jg	.L3	#,
	.loc 1 238 0
	movl	-48(%rbp), %eax	# mode, mode.6
	cltq
	movzbl	direct_load(%rax), %eax	# direct_load, D.25547
	testb	%al, %al	# D.25547
	je	.L10	#,
	.loc 1 238 0 is_stmt 0 discriminator 1
	movl	-48(%rbp), %eax	# mode, mode.7
	cltq
	movzbl	direct_store(%rax), %eax	# direct_store, D.25547
	testb	%al, %al	# D.25547
	je	.L10	#,
.L3:
.LBE2:
	.loc 1 224 0 is_stmt 1
	movl	-48(%rbp), %eax	# mode, mode.8
	addl	$1, %eax	#, D.25549
	movl	%eax, -48(%rbp)	# D.25549, mode
.L2:
	.loc 1 223 0 discriminator 1
	movl	-48(%rbp), %eax	# mode, mode.9
	cmpl	$58, %eax	#, mode.9
	jle	.L11	#,
	.loc 1 268 0
	call	end_sequence	#
	.loc 1 269 0
	leave
	.cfi_def_cfa 7, 8
	ret
	.cfi_endproc
.LFE2:
	.size	init_expr_once, .-init_expr_once
	.globl	init_expr
	.type	init_expr, @function
init_expr:
.LFB3:
	.loc 1 275 0
	.cfi_startproc
	pushq	%rbp	#
	.cfi_def_cfa_offset 16
	.cfi_offset 6, -16
	movq	%rsp, %rbp	#,
	.cfi_def_cfa_register 6
	pushq	%rbx	#
	subq	$8, %rsp	#,
	.cfi_offset 3, -24
	.loc 1 276 0
	movq	cfun(%rip), %rbx	# cfun, cfun.10
	movl	$48, %edi	#,
	call	xmalloc	#
	movq	%rax, 16(%rbx)	# D.25550, cfun.10_1->expr
	.loc 1 278 0
	movq	cfun(%rip), %rax	# cfun, cfun.11
	movq	16(%rax), %rax	# cfun.11_3->expr, D.25551
	movq	$0, 40(%rax)	#, _4->x_pending_chain
	.loc 1 279 0
	movq	cfun(%rip), %rax	# cfun, cfun.12
	movq	16(%rax), %rax	# cfun.12_5->expr, D.25551
	movl	$0, (%rax)	#, _6->x_pending_stack_adjust
	.loc 1 280 0
	movq	cfun(%rip), %rax	# cfun, cfun.13
	movq	16(%rax), %rax	# cfun.13_7->expr, D.25551
	movl	$0, 8(%rax)	#, _8->x_stack_pointer_delta
	.loc 1 281 0
	movq	cfun(%rip), %rax	# cfun, cfun.14
	movq	16(%rax), %rax	# cfun.14_9->expr, D.25551
	movl	$0, 4(%rax)	#, _10->x_inhibit_defer_pop
	.loc 1 282 0
	movq	cfun(%rip), %rax	# cfun, cfun.15
	movq	16(%rax), %rax	# cfun.15_11->expr, D.25551
	movq	$0, 16(%rax)	#, _12->x_saveregs_value
	.loc 1 283 0
	movq	cfun(%rip), %rax	# cfun, cfun.16
	movq	16(%rax), %rax	# cfun.16_13->expr, D.25551
	movq	$0, 24(%rax)	#, _14->x_apply_args_value
	.loc 1 284 0
	movq	cfun(%rip), %rax	# cfun, cfun.17
	movq	16(%rax), %rax	# cfun.17_15->expr, D.25551
	movq	$0, 32(%rax)	#, _16->x_forced_labels
	.loc 1 285 0
	addq	$8, %rsp	#,
	popq	%rbx	#
	popq	%rbp	#
	.cfi_def_cfa 7, 8
	ret
	.cfi_endproc
.LFE3:
	.size	init_expr, .-init_expr
	.globl	mark_expr_status
	.type	mark_expr_status, @function
mark_expr_status:
.LFB4:
	.loc 1 290 0
	.cfi_startproc
	pushq	%rbp	#
	.cfi_def_cfa_offset 16
	.cfi_offset 6, -16
	movq	%rsp, %rbp	#,
	.cfi_def_cfa_register 6
	subq	$48, %rsp	#,
	movq	%rdi, -40(%rbp)	# p, p
	.loc 1 291 0
	cmpq	$0, -40(%rbp)	#, p
	jne	.L14	#,
	.loc 1 292 0
	jmp	.L13	#
.L14:
.LBB3:
	.loc 1 294 0
	movq	-40(%rbp), %rax	# p, tmp62
	movq	16(%rax), %rax	# p_1(D)->x_saveregs_value, tmp63
	movq	%rax, -24(%rbp)	# tmp63, r__
	cmpq	$0, -24(%rbp)	#, r__
	je	.L16	#,
	.loc 1 294 0 is_stmt 0 discriminator 1
	movq	-24(%rbp), %rax	# r__, tmp64
	movq	%rax, %rdi	# tmp64,
	call	ggc_set_mark	#
	testl	%eax, %eax	# D.25552
	jne	.L16	#,
	movq	-24(%rbp), %rax	# r__, tmp65
	movq	%rax, %rdi	# tmp65,
	call	ggc_mark_rtx_children	#
.L16:
.LBE3:
.LBB4:
	.loc 1 295 0 is_stmt 1
	movq	-40(%rbp), %rax	# p, tmp66
	movq	24(%rax), %rax	# p_1(D)->x_apply_args_value, tmp67
	movq	%rax, -16(%rbp)	# tmp67, r__
	cmpq	$0, -16(%rbp)	#, r__
	je	.L17	#,
	.loc 1 295 0 is_stmt 0 discriminator 1
	movq	-16(%rbp), %rax	# r__, tmp68
	movq	%rax, %rdi	# tmp68,
	call	ggc_set_mark	#
	testl	%eax, %eax	# D.25552
	jne	.L17	#,
	movq	-16(%rbp), %rax	# r__, tmp69
	movq	%rax, %rdi	# tmp69,
	call	ggc_mark_rtx_children	#
.L17:
.LBE4:
.LBB5:
	.loc 1 296 0 is_stmt 1
	movq	-40(%rbp), %rax	# p, tmp70
	movq	32(%rax), %rax	# p_1(D)->x_forced_labels, tmp71
	movq	%rax, -8(%rbp)	# tmp71, r__
	cmpq	$0, -8(%rbp)	#, r__
	je	.L13	#,
	.loc 1 296 0 is_stmt 0 discriminator 1
	movq	-8(%rbp), %rax	# r__, tmp72
	movq	%rax, %rdi	# tmp72,
	call	ggc_set_mark	#
	testl	%eax, %eax	# D.25552
	jne	.L13	#,
	movq	-8(%rbp), %rax	# r__, tmp73
	movq	%rax, %rdi	# tmp73,
	call	ggc_mark_rtx_children	#
.L13:
.LBE5:
	.loc 1 297 0 is_stmt 1
	leave
	.cfi_def_cfa 7, 8
	ret
	.cfi_endproc
.LFE4:
	.size	mark_expr_status, .-mark_expr_status
	.globl	free_expr_status
	.type	free_expr_status, @function
free_expr_status:
.LFB5:
	.loc 1 302 0
	.cfi_startproc
	pushq	%rbp	#
	.cfi_def_cfa_offset 16
	.cfi_offset 6, -16
	movq	%rsp, %rbp	#,
	.cfi_def_cfa_register 6
	subq	$16, %rsp	#,
	movq	%rdi, -8(%rbp)	# f, f
	.loc 1 303 0
	movq	-8(%rbp), %rax	# f, tmp60
	movq	16(%rax), %rax	# f_1(D)->expr, D.25553
	movq	%rax, %rdi	# D.25553,
	call	free	#
	.loc 1 304 0
	movq	-8(%rbp), %rax	# f, tmp61
	movq	$0, 16(%rax)	#, f_1(D)->expr
	.loc 1 305 0
	leave
	.cfi_def_cfa 7, 8
	ret
	.cfi_endproc
.LFE5:
	.size	free_expr_status, .-free_expr_status
	.section	.rodata
.LC0:
	.string	"expr.c"
	.text
	.globl	finish_expr_for_function
	.type	finish_expr_for_function, @function
finish_expr_for_function:
.LFB6:
	.loc 1 311 0
	.cfi_startproc
	pushq	%rbp	#
	.cfi_def_cfa_offset 16
	.cfi_offset 6, -16
	movq	%rsp, %rbp	#,
	.cfi_def_cfa_register 6
	.loc 1 312 0
	movq	cfun(%rip), %rax	# cfun, cfun.18
	movq	16(%rax), %rax	# cfun.18_1->expr, D.25554
	movq	40(%rax), %rax	# _2->x_pending_chain, D.25555
	testq	%rax, %rax	# D.25555
	je	.L19	#,
	.loc 1 313 0
	movl	$__FUNCTION__.14186, %edx	#,
	movl	$313, %esi	#,
	movl	$.LC0, %edi	#,
	call	fancy_abort	#
.L19:
	.loc 1 314 0
	popq	%rbp	#
	.cfi_def_cfa 7, 8
	ret
	.cfi_endproc
.LFE6:
	.size	finish_expr_for_function, .-finish_expr_for_function
	.type	enqueue_insn, @function
enqueue_insn:
.LFB7:
	.loc 1 329 0
	.cfi_startproc
	pushq	%rbp	#
	.cfi_def_cfa_offset 16
	.cfi_offset 6, -16
	movq	%rsp, %rbp	#,
	.cfi_def_cfa_register 6
	pushq	%rbx	#
	subq	$40, %rsp	#,
	.cfi_offset 3, -24
	movq	%rdi, -24(%rbp)	# var, var
	movq	%rsi, -32(%rbp)	# body, body
	.loc 1 330 0
	movq	cfun(%rip), %rax	# cfun, cfun.19
	movq	16(%rax), %rbx	# cfun.19_1->expr, D.25557
	movq	cfun(%rip), %rax	# cfun, cfun.20
	movq	16(%rax), %rax	# cfun.20_3->expr, D.25557
	movq	40(%rax), %rcx	# _4->x_pending_chain, D.25558
	movq	-24(%rbp), %rax	# var, tmp71
	movzbl	2(%rax), %eax	# var_6(D)->mode, D.25559
	movzbl	%al, %eax	# D.25559, D.25560
	movq	-32(%rbp), %rsi	# body, tmp72
	movq	-24(%rbp), %rdx	# var, tmp73
	movq	%rcx, (%rsp)	# D.25558,
	movq	%rsi, %r9	# tmp72,
	movl	$0, %r8d	#,
	movl	$0, %ecx	#,
	movl	%eax, %esi	# D.25560,
	movl	$71, %edi	#,
	call	gen_rtx_fmt_eeeee	#
	movq	%rax, 40(%rbx)	# D.25558, _2->x_pending_chain
	.loc 1 332 0
	movq	cfun(%rip), %rax	# cfun, cfun.21
	movq	16(%rax), %rax	# cfun.21_11->expr, D.25557
	movq	40(%rax), %rax	# _12->x_pending_chain, D.25561
	.loc 1 333 0
	addq	$40, %rsp	#,
	popq	%rbx	#
	popq	%rbp	#
	.cfi_def_cfa 7, 8
	ret
	.cfi_endproc
.LFE7:
	.size	enqueue_insn, .-enqueue_insn
	.globl	protect_from_queue
	.type	protect_from_queue, @function
protect_from_queue:
.LFB8:
	.loc 1 354 0
	.cfi_startproc
	pushq	%rbp	#
	.cfi_def_cfa_offset 16
	.cfi_offset 6, -16
	movq	%rsp, %rbp	#,
	.cfi_def_cfa_register 6
	pushq	%rbx	#
	subq	$88, %rsp	#,
	.cfi_offset 3, -24
	movq	%rdi, -88(%rbp)	# x, x
	movl	%esi, -92(%rbp)	# modify, modify
	.loc 1 355 0
	movq	-88(%rbp), %rax	# x, tmp90
	movzwl	(%rax), %eax	# x_4(D)->code, D.25563
	movzwl	%ax, %eax	# D.25563, tmp91
	movl	%eax, -68(%rbp)	# tmp91, code
	.loc 1 363 0
	cmpl	$71, -68(%rbp)	#, code
	je	.L24	#,
	.loc 1 370 0
	cmpl	$66, -68(%rbp)	#, code
	jne	.L25	#,
	.loc 1 370 0 is_stmt 0 discriminator 1
	movq	-88(%rbp), %rax	# x, tmp92
	movzbl	2(%rax), %eax	# x_4(D)->mode, D.25564
	cmpb	$51, %al	#, D.25564
	je	.L25	#,
	.loc 1 371 0 is_stmt 1
	movq	-88(%rbp), %rax	# x, tmp93
	movq	8(%rax), %rax	# x_4(D)->fld[0].rtx, D.25565
	movzwl	(%rax), %eax	# _8->code, D.25563
	cmpw	$71, %ax	#, D.25563
	jne	.L25	#,
	.loc 1 371 0 is_stmt 0 discriminator 1
	cmpl	$0, -92(%rbp)	#, modify
	jne	.L25	#,
.LBB6:
	.loc 1 373 0 is_stmt 1
	movq	-88(%rbp), %rax	# x, tmp94
	movq	8(%rax), %rax	# x_4(D)->fld[0].rtx, tmp95
	movq	%rax, -64(%rbp)	# tmp95, y
	.loc 1 374 0
	movq	-64(%rbp), %rax	# y, tmp96
	movq	8(%rax), %rdx	# y_11->fld[0].rtx, D.25565
	movq	-88(%rbp), %rax	# x, tmp97
	movq	%rdx, %rsi	# D.25565,
	movq	%rax, %rdi	# tmp97,
	call	replace_equiv_address_nv	#
	movq	%rax, -56(%rbp)	# tmp98, new
	.loc 1 376 0
	movq	-64(%rbp), %rax	# y, tmp99
	movq	16(%rax), %rax	# y_11->fld[1].rtx, D.25565
	testq	%rax, %rax	# D.25565
	je	.L26	#,
.LBB7:
	.loc 1 378 0
	movq	-88(%rbp), %rax	# x, tmp100
	movzbl	2(%rax), %eax	# x_4(D)->mode, D.25564
	movzbl	%al, %eax	# D.25564, D.25566
	movl	%eax, %edi	# D.25566,
	call	gen_reg_rtx	#
	movq	%rax, -48(%rbp)	# tmp101, temp
	.loc 1 380 0
	movq	-64(%rbp), %rax	# y, tmp102
	movq	16(%rax), %rbx	# y_11->fld[1].rtx, D.25565
	movq	-56(%rbp), %rdx	# new, tmp103
	movq	-48(%rbp), %rax	# temp, tmp104
	movq	%rdx, %rsi	# tmp103,
	movq	%rax, %rdi	# tmp104,
	call	gen_move_insn	#
	movq	%rbx, %rsi	# D.25565,
	movq	%rax, %rdi	# D.25565,
	call	emit_insn_before	#
	.loc 1 382 0
	movq	-48(%rbp), %rax	# temp, D.25562
	jmp	.L27	#
.L26:
.LBE7:
	.loc 1 387 0
	movq	-56(%rbp), %rax	# new, tmp105
	movq	8(%rax), %rax	# new_13->fld[0].rtx, D.25565
	movq	%rax, %rdi	# D.25565,
	call	copy_to_reg	#
	movq	%rax, %rdx	#, D.25565
	movq	-56(%rbp), %rax	# new, tmp106
	movq	%rdx, %rsi	# D.25565,
	movq	%rax, %rdi	# tmp106,
	call	replace_equiv_address	#
	jmp	.L27	#
.L25:
.LBE6:
	.loc 1 392 0
	cmpl	$66, -68(%rbp)	#, code
	jne	.L28	#,
.LBB8:
	.loc 1 394 0
	movq	-88(%rbp), %rax	# x, tmp107
	movq	8(%rax), %rax	# x_4(D)->fld[0].rtx, D.25565
	movl	$0, %esi	#,
	movq	%rax, %rdi	# D.25565,
	call	protect_from_queue	#
	movq	%rax, -40(%rbp)	# tmp108, tem
	.loc 1 395 0
	movq	-88(%rbp), %rax	# x, tmp109
	movq	8(%rax), %rax	# x_4(D)->fld[0].rtx, D.25565
	cmpq	-40(%rbp), %rax	# tem, D.25565
	je	.L29	#,
	.loc 1 397 0
	movq	-88(%rbp), %rax	# x, tmp110
	movq	%rax, %rdi	# tmp110,
	call	copy_rtx	#
	movq	%rax, -88(%rbp)	# tmp111, x
	.loc 1 398 0
	movq	-88(%rbp), %rax	# x, tmp112
	movq	-40(%rbp), %rdx	# tem, tmp113
	movq	%rdx, 8(%rax)	# tmp113, x_27->fld[0].rtx
.LBE8:
	jmp	.L30	#
.L29:
	jmp	.L30	#
.L28:
	.loc 1 401 0
	cmpl	$75, -68(%rbp)	#, code
	je	.L31	#,
	.loc 1 401 0 is_stmt 0 discriminator 1
	cmpl	$78, -68(%rbp)	#, code
	jne	.L30	#,
.L31:
.LBB9:
	.loc 1 403 0 is_stmt 1
	movq	-88(%rbp), %rax	# x, tmp114
	movq	8(%rax), %rax	# x_4(D)->fld[0].rtx, D.25565
	movl	$0, %esi	#,
	movq	%rax, %rdi	# D.25565,
	call	protect_from_queue	#
	movq	%rax, -32(%rbp)	# tmp115, new0
	.loc 1 404 0
	movq	-88(%rbp), %rax	# x, tmp116
	movq	16(%rax), %rax	# x_4(D)->fld[1].rtx, D.25565
	movl	$0, %esi	#,
	movq	%rax, %rdi	# D.25565,
	call	protect_from_queue	#
	movq	%rax, -24(%rbp)	# tmp117, new1
	.loc 1 405 0
	movq	-88(%rbp), %rax	# x, tmp118
	movq	8(%rax), %rax	# x_4(D)->fld[0].rtx, D.25565
	cmpq	-32(%rbp), %rax	# new0, D.25565
	jne	.L32	#,
	.loc 1 405 0 is_stmt 0 discriminator 1
	movq	-88(%rbp), %rax	# x, tmp119
	movq	16(%rax), %rax	# x_4(D)->fld[1].rtx, D.25565
	cmpq	-24(%rbp), %rax	# new1, D.25565
	je	.L30	#,
.L32:
	.loc 1 407 0 is_stmt 1
	movq	-88(%rbp), %rax	# x, tmp120
	movq	%rax, %rdi	# tmp120,
	call	copy_rtx	#
	movq	%rax, -88(%rbp)	# tmp121, x
	.loc 1 408 0
	movq	-88(%rbp), %rax	# x, tmp122
	movq	-32(%rbp), %rdx	# new0, tmp123
	movq	%rdx, 8(%rax)	# tmp123, x_34->fld[0].rtx
	.loc 1 409 0
	movq	-88(%rbp), %rax	# x, tmp124
	movq	-24(%rbp), %rdx	# new1, tmp125
	movq	%rdx, 16(%rax)	# tmp125, x_34->fld[1].rtx
.L30:
.LBE9:
	.loc 1 412 0
	movq	-88(%rbp), %rax	# x, D.25562
	jmp	.L27	#
.L24:
	.loc 1 417 0
	movq	-88(%rbp), %rax	# x, tmp126
	movq	16(%rax), %rax	# x_4(D)->fld[1].rtx, D.25565
	testq	%rax, %rax	# D.25565
	jne	.L33	#,
	.loc 1 418 0
	movq	-88(%rbp), %rax	# x, tmp127
	movq	8(%rax), %rax	# x_4(D)->fld[0].rtx, D.25565
	movq	%rax, %rdi	# D.25565,
	call	copy_to_reg	#
	jmp	.L27	#
.L33:
	.loc 1 421 0
	movq	-88(%rbp), %rax	# x, tmp128
	movq	24(%rax), %rax	# x_4(D)->fld[2].rtx, D.25565
	testq	%rax, %rax	# D.25565
	je	.L34	#,
	.loc 1 422 0
	movq	-88(%rbp), %rax	# x, tmp129
	movq	24(%rax), %rax	# x_4(D)->fld[2].rtx, D.25562
	jmp	.L27	#
.L34:
	.loc 1 425 0
	movq	-88(%rbp), %rax	# x, tmp130
	movq	8(%rax), %rax	# x_4(D)->fld[0].rtx, D.25565
	movzbl	2(%rax), %eax	# _41->mode, D.25564
	movzbl	%al, %eax	# D.25564, D.25566
	movl	%eax, %edi	# D.25566,
	call	gen_reg_rtx	#
	movq	-88(%rbp), %rdx	# x, tmp131
	movq	%rax, 24(%rdx)	# D.25565, x_4(D)->fld[2].rtx
	.loc 1 426 0
	movq	-88(%rbp), %rax	# x, tmp132
	movq	16(%rax), %rbx	# x_4(D)->fld[1].rtx, D.25565
	movq	-88(%rbp), %rax	# x, tmp133
	movq	8(%rax), %rdx	# x_4(D)->fld[0].rtx, D.25565
	movq	-88(%rbp), %rax	# x, tmp134
	movq	24(%rax), %rax	# x_4(D)->fld[2].rtx, D.25565
	movq	%rdx, %rsi	# D.25565,
	movq	%rax, %rdi	# D.25565,
	call	gen_move_insn	#
	movq	%rbx, %rsi	# D.25565,
	movq	%rax, %rdi	# D.25565,
	call	emit_insn_before	#
	.loc 1 428 0
	movq	-88(%rbp), %rax	# x, tmp135
	movq	24(%rax), %rax	# x_4(D)->fld[2].rtx, D.25562
.L27:
	.loc 1 429 0
	addq	$88, %rsp	#,
	popq	%rbx	#
	popq	%rbp	#
	.cfi_def_cfa 7, 8
	ret
	.cfi_endproc
.LFE8:
	.size	protect_from_queue, .-protect_from_queue
	.globl	queued_subexp_p
	.type	queued_subexp_p, @function
queued_subexp_p:
.LFB9:
	.loc 1 439 0
	.cfi_startproc
	pushq	%rbp	#
	.cfi_def_cfa_offset 16
	.cfi_offset 6, -16
	movq	%rsp, %rbp	#,
	.cfi_def_cfa_register 6
	subq	$32, %rsp	#,
	movq	%rdi, -24(%rbp)	# x, x
	.loc 1 440 0
	movq	-24(%rbp), %rax	# x, tmp68
	movzwl	(%rax), %eax	# x_3(D)->code, D.25568
	movzwl	%ax, %eax	# D.25568, tmp69
	movl	%eax, -4(%rbp)	# tmp69, code
	.loc 1 441 0
	movl	-4(%rbp), %eax	# code, tmp71
	subl	$66, %eax	#, tmp70
	cmpl	$12, %eax	#, tmp70
	ja	.L36	#,
	movl	%eax, %eax	# tmp70, tmp72
	movq	.L38(,%rax,8), %rax	#, tmp73
	jmp	*%rax	# tmp73
	.section	.rodata
	.align 8
	.align 4
.L38:
	.quad	.L37
	.quad	.L36
	.quad	.L36
	.quad	.L36
	.quad	.L36
	.quad	.L39
	.quad	.L36
	.quad	.L36
	.quad	.L36
	.quad	.L40
	.quad	.L40
	.quad	.L36
	.quad	.L40
	.text
.L39:
	.loc 1 444 0
	movl	$1, %eax	#, D.25567
	jmp	.L41	#
.L37:
	.loc 1 446 0
	movq	-24(%rbp), %rax	# x, tmp74
	movq	8(%rax), %rax	# x_3(D)->fld[0].rtx, D.25569
	movq	%rax, %rdi	# D.25569,
	call	queued_subexp_p	#
	jmp	.L41	#
.L40:
	.loc 1 450 0
	movq	-24(%rbp), %rax	# x, tmp75
	movq	8(%rax), %rax	# x_3(D)->fld[0].rtx, D.25569
	movq	%rax, %rdi	# D.25569,
	call	queued_subexp_p	#
	.loc 1 451 0
	testl	%eax, %eax	# D.25567
	jne	.L42	#,
	.loc 1 451 0 is_stmt 0 discriminator 2
	movq	-24(%rbp), %rax	# x, tmp76
	movq	16(%rax), %rax	# x_3(D)->fld[1].rtx, D.25569
	movq	%rax, %rdi	# D.25569,
	call	queued_subexp_p	#
	testl	%eax, %eax	# D.25567
	je	.L43	#,
.L42:
	.loc 1 451 0 discriminator 1
	movl	$1, %eax	#, iftmp.22
	jmp	.L44	#
.L43:
	.loc 1 451 0 discriminator 3
	movl	$0, %eax	#, iftmp.22
.L44:
	.loc 1 450 0 is_stmt 1
	jmp	.L41	#
.L36:
	.loc 1 453 0
	movl	$0, %eax	#, D.25567
.L41:
	.loc 1 455 0
	leave
	.cfi_def_cfa 7, 8
	ret
	.cfi_endproc
.LFE9:
	.size	queued_subexp_p, .-queued_subexp_p
	.globl	emit_queue
	.type	emit_queue, @function
emit_queue:
.LFB10:
	.loc 1 461 0
	.cfi_startproc
	pushq	%rbp	#
	.cfi_def_cfa_offset 16
	.cfi_offset 6, -16
	movq	%rsp, %rbp	#,
	.cfi_def_cfa_register 6
	subq	$16, %rsp	#,
	.loc 1 463 0
	jmp	.L46	#
.L49:
.LBB10:
	.loc 1 465 0
	movq	-16(%rbp), %rax	# p, tmp71
	movq	32(%rax), %rax	# p_3->fld[3].rtx, tmp72
	movq	%rax, -8(%rbp)	# tmp72, body
	.loc 1 467 0
	movq	-8(%rbp), %rax	# body, tmp73
	movzwl	(%rax), %eax	# body_4->code, D.25571
	cmpw	$24, %ax	#, D.25571
	jne	.L47	#,
	.loc 1 469 0
	movq	-16(%rbp), %rax	# p, tmp74
	movq	32(%rax), %rax	# p_3->fld[3].rtx, D.25572
	movq	8(%rax), %rax	# _6->fld[0].rtvec, D.25573
	movq	8(%rax), %rdx	# _7->elem, D.25572
	movq	-16(%rbp), %rax	# p, tmp75
	movq	%rdx, 16(%rax)	# D.25572, p_3->fld[1].rtx
	.loc 1 470 0
	movq	-16(%rbp), %rax	# p, tmp76
	movq	32(%rax), %rax	# p_3->fld[3].rtx, D.25572
	movq	%rax, %rdi	# D.25572,
	call	emit_insn	#
	jmp	.L48	#
.L47:
	.loc 1 473 0
	movq	-16(%rbp), %rax	# p, tmp77
	movq	32(%rax), %rax	# p_3->fld[3].rtx, D.25572
	movq	%rax, %rdi	# D.25572,
	call	emit_insn	#
	movq	-16(%rbp), %rdx	# p, tmp78
	movq	%rax, 16(%rdx)	# D.25572, p_3->fld[1].rtx
.L48:
	.loc 1 474 0
	movq	cfun(%rip), %rax	# cfun, cfun.23
	movq	16(%rax), %rax	# cfun.23_12->expr, D.25570
	movq	-16(%rbp), %rdx	# p, tmp79
	movq	40(%rdx), %rdx	# p_3->fld[4].rtx, D.25572
	movq	%rdx, 40(%rax)	# D.25572, _13->x_pending_chain
.L46:
.LBE10:
	.loc 1 463 0 discriminator 1
	movq	cfun(%rip), %rax	# cfun, cfun.24
	movq	16(%rax), %rax	# cfun.24_1->expr, D.25570
	movq	40(%rax), %rax	# _2->x_pending_chain, tmp80
	movq	%rax, -16(%rbp)	# tmp80, p
	cmpq	$0, -16(%rbp)	#, p
	jne	.L49	#,
	.loc 1 476 0
	leave
	.cfi_def_cfa 7, 8
	ret
	.cfi_endproc
.LFE10:
	.size	emit_queue, .-emit_queue
	.globl	convert_move
	.type	convert_move, @function
convert_move:
.LFB11:
	.loc 1 487 0
	.cfi_startproc
	pushq	%rbp	#
	.cfi_def_cfa_offset 16
	.cfi_offset 6, -16
	movq	%rsp, %rbp	#,
	.cfi_def_cfa_register 6
	pushq	%rbx	#
	subq	$184, %rsp	#,
	.cfi_offset 3, -24
	movq	%rdi, -168(%rbp)	# to, to
	movq	%rsi, -176(%rbp)	# from, from
	movl	%edx, -180(%rbp)	# unsignedp, unsignedp
	.loc 1 488 0
	movq	-168(%rbp), %rax	# to, tmp274
	movzbl	2(%rax), %eax	# to_35(D)->mode, D.25574
	movzbl	%al, %eax	# D.25574, tmp275
	movl	%eax, -132(%rbp)	# tmp275, to_mode
	.loc 1 489 0
	movq	-176(%rbp), %rax	# from, tmp276
	movzbl	2(%rax), %eax	# from_38(D)->mode, D.25574
	movzbl	%al, %eax	# D.25574, tmp277
	movl	%eax, -148(%rbp)	# tmp277, from_mode
	.loc 1 490 0
	movl	-132(%rbp), %eax	# to_mode, to_mode.25
	cltq
	movl	mode_class(,%rax,4), %eax	# mode_class, D.25575
	cmpl	$2, %eax	#, D.25575
	sete	%al	#, D.25576
	movzbl	%al, %eax	# D.25576, tmp279
	movl	%eax, -128(%rbp)	# tmp279, to_real
	.loc 1 491 0
	movl	-148(%rbp), %eax	# from_mode, from_mode.26
	cltq
	movl	mode_class(,%rax,4), %eax	# mode_class, D.25575
	cmpl	$2, %eax	#, D.25575
	sete	%al	#, D.25576
	movzbl	%al, %eax	# D.25576, tmp281
	movl	%eax, -124(%rbp)	# tmp281, from_real
	.loc 1 496 0
	cmpl	$0, -180(%rbp)	#, unsignedp
	je	.L51	#,
	.loc 1 496 0 is_stmt 0 discriminator 1
	movl	$121, %eax	#, iftmp.27
	jmp	.L52	#
.L51:
	.loc 1 496 0 discriminator 2
	movl	$120, %eax	#, iftmp.27
.L52:
	.loc 1 496 0 discriminator 3
	movl	%eax, -120(%rbp)	# iftmp.27, equiv_code
	.loc 1 498 0 is_stmt 1 discriminator 3
	movq	-168(%rbp), %rax	# to, tmp282
	movl	$1, %esi	#,
	movq	%rax, %rdi	# tmp282,
	call	protect_from_queue	#
	movq	%rax, -168(%rbp)	# tmp283, to
	.loc 1 499 0 discriminator 3
	movq	-176(%rbp), %rax	# from, tmp284
	movl	$0, %esi	#,
	movq	%rax, %rdi	# tmp284,
	call	protect_from_queue	#
	movq	%rax, -176(%rbp)	# tmp285, from
	.loc 1 501 0 discriminator 3
	movl	-128(%rbp), %eax	# to_real, tmp286
	cmpl	-124(%rbp), %eax	# from_real, tmp286
	je	.L53	#,
	.loc 1 502 0
	movl	$__FUNCTION__.14231, %edx	#,
	movl	$502, %esi	#,
	movl	$.LC0, %edi	#,
	call	fancy_abort	#
.L53:
	.loc 1 508 0
	movq	-176(%rbp), %rax	# from, tmp287
	movzwl	(%rax), %eax	# from_54->code, D.25577
	cmpw	$63, %ax	#, D.25577
	jne	.L54	#,
	.loc 1 508 0 is_stmt 0 discriminator 1
	movq	-176(%rbp), %rax	# from, tmp288
	movzbl	3(%rax), %eax	# *from_54, D.25574
	andl	$16, %eax	#, D.25574
	testb	%al, %al	# D.25574
	je	.L54	#,
	.loc 1 509 0 is_stmt 1
	movq	-176(%rbp), %rax	# from, tmp289
	movq	8(%rax), %rax	# from_54->fld[0].rtx, D.25578
	movzbl	2(%rax), %eax	# _58->mode, D.25574
	movzbl	%al, %eax	# D.25574, D.25579
	cltq
	movzbl	mode_size(%rax), %edx	# mode_size, D.25574
	.loc 1 510 0
	movl	-132(%rbp), %eax	# to_mode, to_mode.28
	cltq
	movzbl	mode_size(%rax), %eax	# mode_size, D.25574
	.loc 1 509 0
	cmpb	%al, %dl	# D.25574, D.25574
	jb	.L54	#,
	.loc 1 511 0
	movq	-176(%rbp), %rax	# from, tmp292
	movzbl	3(%rax), %eax	# *from_54, tmp295
	shrb	$2, %al	#, D.25580
	andl	$1, %eax	#, D.25580
	movzbl	%al, %eax	# D.25580, D.25579
	cmpl	-180(%rbp), %eax	# unsignedp, D.25579
	jne	.L54	#,
	.loc 1 512 0
	movq	-176(%rbp), %rdx	# from, tmp296
	movl	-132(%rbp), %eax	# to_mode, tmp297
	movq	%rdx, %rsi	# tmp296,
	movl	%eax, %edi	# tmp297,
	call	gen_lowpart	#
	movq	%rax, -176(%rbp)	# tmp298, from
	movl	-132(%rbp), %eax	# to_mode, tmp299
	movl	%eax, -148(%rbp)	# tmp299, from_mode
.L54:
	.loc 1 514 0
	movq	-168(%rbp), %rax	# to, tmp300
	movzwl	(%rax), %eax	# to_53->code, D.25577
	cmpw	$63, %ax	#, D.25577
	jne	.L55	#,
	.loc 1 514 0 is_stmt 0 discriminator 1
	movq	-168(%rbp), %rax	# to, tmp301
	movzbl	3(%rax), %eax	# *to_53, D.25574
	andl	$16, %eax	#, D.25574
	testb	%al, %al	# D.25574
	je	.L55	#,
	.loc 1 515 0 is_stmt 1
	movl	$__FUNCTION__.14231, %edx	#,
	movl	$515, %esi	#,
	movl	$.LC0, %edi	#,
	call	fancy_abort	#
.L55:
	.loc 1 517 0
	movl	-132(%rbp), %eax	# to_mode, tmp302
	cmpl	-148(%rbp), %eax	# from_mode, tmp302
	je	.L56	#,
	.loc 1 518 0
	cmpl	$0, -148(%rbp)	#, from_mode
	jne	.L57	#,
	.loc 1 518 0 is_stmt 0 discriminator 1
	movq	-176(%rbp), %rax	# from, tmp303
	movzwl	(%rax), %eax	# from_2->code, D.25577
	cmpw	$67, %ax	#, D.25577
	je	.L56	#,
	movq	-176(%rbp), %rax	# from, tmp304
	movzwl	(%rax), %eax	# from_2->code, D.25577
	cmpw	$68, %ax	#, D.25577
	je	.L56	#,
	movq	-176(%rbp), %rax	# from, tmp305
	movzwl	(%rax), %eax	# from_2->code, D.25577
	cmpw	$54, %ax	#, D.25577
	je	.L56	#,
	movq	-176(%rbp), %rax	# from, tmp306
	movzwl	(%rax), %eax	# from_2->code, D.25577
	cmpw	$55, %ax	#, D.25577
	je	.L56	#,
	movq	-176(%rbp), %rax	# from, tmp307
	movzwl	(%rax), %eax	# from_2->code, D.25577
	cmpw	$58, %ax	#, D.25577
	je	.L56	#,
	movq	-176(%rbp), %rax	# from, tmp308
	movzwl	(%rax), %eax	# from_2->code, D.25577
	cmpw	$134, %ax	#, D.25577
	je	.L56	#,
	movq	-176(%rbp), %rax	# from, tmp309
	movzwl	(%rax), %eax	# from_2->code, D.25577
	cmpw	$56, %ax	#, D.25577
	je	.L56	#,
	movq	-176(%rbp), %rax	# from, tmp310
	movzwl	(%rax), %eax	# from_2->code, D.25577
	cmpw	$140, %ax	#, D.25577
	jne	.L57	#,
.L56:
	.loc 1 520 0 is_stmt 1
	movq	-176(%rbp), %rdx	# from, tmp311
	movq	-168(%rbp), %rax	# to, tmp312
	movq	%rdx, %rsi	# tmp311,
	movq	%rax, %rdi	# tmp312,
	call	emit_move_insn	#
	.loc 1 521 0
	jmp	.L50	#
.L57:
	.loc 1 524 0
	movl	-132(%rbp), %eax	# to_mode, to_mode.29
	cltq
	movl	mode_class(,%rax,4), %eax	# mode_class, D.25575
	cmpl	$7, %eax	#, D.25575
	je	.L59	#,
	.loc 1 524 0 is_stmt 0 discriminator 1
	movl	-132(%rbp), %eax	# to_mode, to_mode.30
	cltq
	movl	mode_class(,%rax,4), %eax	# mode_class, D.25575
	cmpl	$8, %eax	#, D.25575
	je	.L59	#,
	movl	-148(%rbp), %eax	# from_mode, from_mode.31
	cltq
	movl	mode_class(,%rax,4), %eax	# mode_class, D.25575
	cmpl	$7, %eax	#, D.25575
	je	.L59	#,
	movl	-148(%rbp), %eax	# from_mode, from_mode.32
	cltq
	movl	mode_class(,%rax,4), %eax	# mode_class, D.25575
	cmpl	$8, %eax	#, D.25575
	jne	.L60	#,
.L59:
	.loc 1 526 0 is_stmt 1
	movl	-148(%rbp), %eax	# from_mode, from_mode.33
	cltq
	movzwl	mode_bitsize(%rax,%rax), %edx	# mode_bitsize, D.25577
	movl	-132(%rbp), %eax	# to_mode, to_mode.34
	cltq
	movzwl	mode_bitsize(%rax,%rax), %eax	# mode_bitsize, D.25577
	cmpw	%ax, %dx	# D.25577, D.25577
	je	.L61	#,
	.loc 1 527 0
	movl	$__FUNCTION__.14231, %edx	#,
	movl	$527, %esi	#,
	movl	$.LC0, %edi	#,
	call	fancy_abort	#
.L61:
	.loc 1 529 0
	movl	-132(%rbp), %eax	# to_mode, to_mode.35
	cltq
	movl	mode_class(,%rax,4), %eax	# mode_class, D.25575
	cmpl	$7, %eax	#, D.25575
	je	.L62	#,
	.loc 1 529 0 is_stmt 0 discriminator 1
	movl	-132(%rbp), %eax	# to_mode, to_mode.36
	cltq
	movl	mode_class(,%rax,4), %eax	# mode_class, D.25575
	cmpl	$8, %eax	#, D.25575
	jne	.L63	#,
.L62:
	.loc 1 530 0 is_stmt 1
	movq	-176(%rbp), %rax	# from, tmp321
	movzbl	2(%rax), %eax	# from_2->mode, D.25574
	movzbl	%al, %edx	# D.25574, D.25587
	movq	-176(%rbp), %rsi	# from, tmp322
	movl	-132(%rbp), %eax	# to_mode, tmp323
	movl	$0, %ecx	#,
	movl	%eax, %edi	# tmp323,
	call	simplify_gen_subreg	#
	movq	%rax, -176(%rbp)	# tmp324, from
	jmp	.L64	#
.L63:
	.loc 1 532 0
	movq	-168(%rbp), %rax	# to, tmp325
	movzbl	2(%rax), %eax	# to_53->mode, D.25574
	movzbl	%al, %edx	# D.25574, D.25587
	movq	-168(%rbp), %rsi	# to, tmp326
	movl	-148(%rbp), %eax	# from_mode, tmp327
	movl	$0, %ecx	#,
	movl	%eax, %edi	# tmp327,
	call	simplify_gen_subreg	#
	movq	%rax, -168(%rbp)	# tmp328, to
.L64:
	.loc 1 534 0
	movq	-176(%rbp), %rdx	# from, tmp329
	movq	-168(%rbp), %rax	# to, tmp330
	movq	%rdx, %rsi	# tmp329,
	movq	%rax, %rdi	# tmp330,
	call	emit_move_insn	#
	.loc 1 535 0
	jmp	.L50	#
.L60:
	.loc 1 538 0
	movl	-128(%rbp), %eax	# to_real, tmp331
	cmpl	-124(%rbp), %eax	# from_real, tmp331
	je	.L65	#,
	.loc 1 539 0
	movl	$__FUNCTION__.14231, %edx	#,
	movl	$539, %esi	#,
	movl	$.LC0, %edi	#,
	call	fancy_abort	#
.L65:
	.loc 1 541 0
	cmpl	$0, -128(%rbp)	#, to_real
	je	.L66	#,
.LBB11:
	.loc 1 545 0
	movl	-148(%rbp), %eax	# from_mode, from_mode.37
	cltq
	movzwl	mode_bitsize(%rax,%rax), %edx	# mode_bitsize, D.25577
	movl	-132(%rbp), %eax	# to_mode, to_mode.38
	cltq
	movzwl	mode_bitsize(%rax,%rax), %eax	# mode_bitsize, D.25577
	cmpw	%ax, %dx	# D.25577, D.25577
	jae	.L67	#,
	.loc 1 548 0
	movl	-148(%rbp), %ecx	# from_mode, tmp334
	movl	-132(%rbp), %eax	# to_mode, tmp335
	movl	$0, %edx	#,
	movl	%ecx, %esi	# tmp334,
	movl	%eax, %edi	# tmp335,
	call	can_extend_p	#
	movl	%eax, -116(%rbp)	# tmp336, code
	cmpl	$1317, -116(%rbp)	#, code
	je	.L67	#,
	.loc 1 551 0
	movl	-116(%rbp), %eax	# code, code.39
	movq	-176(%rbp), %rdx	# from, tmp337
	movq	-168(%rbp), %rsi	# to, tmp338
	movl	$0, %ecx	#,
	movl	%eax, %edi	# code.39,
	call	emit_unop_insn	#
	.loc 1 552 0
	jmp	.L50	#
.L67:
	.loc 1 665 0
	movl	target_flags(%rip), %eax	# target_flags, target_flags.40
	andl	$1, %eax	#, D.25579
	testl	%eax, %eax	# D.25579
	jne	.L68	#,
	.loc 1 665 0 is_stmt 0 discriminator 2
	movl	target_flags(%rip), %eax	# target_flags, target_flags.41
	andl	$262144, %eax	#, D.25579
	testl	%eax, %eax	# D.25579
	je	.L69	#,
.L68:
	.loc 1 665 0 discriminator 1
	cmpl	$16, -148(%rbp)	#, from_mode
	jne	.L69	#,
	cmpl	$15, -132(%rbp)	#, to_mode
	jne	.L69	#,
	.loc 1 667 0 is_stmt 1
	movq	-176(%rbp), %rdx	# from, tmp339
	movq	-168(%rbp), %rax	# to, tmp340
	movl	$0, %ecx	#,
	movq	%rax, %rsi	# tmp340,
	movl	$909, %edi	#,
	call	emit_unop_insn	#
	.loc 1 668 0
	jmp	.L50	#
.L69:
	.loc 1 672 0
	movl	target_flags(%rip), %eax	# target_flags, target_flags.42
	andl	$33554432, %eax	#, D.25579
	testl	%eax, %eax	# D.25579
	jne	.L70	#,
	.loc 1 672 0 is_stmt 0 discriminator 1
	movl	target_flags(%rip), %eax	# target_flags, target_flags.43
	andl	$1, %eax	#, D.25579
	testl	%eax, %eax	# D.25579
	je	.L70	#,
	cmpl	$17, -148(%rbp)	#, from_mode
	jne	.L70	#,
	cmpl	$15, -132(%rbp)	#, to_mode
	jne	.L70	#,
	.loc 1 674 0 is_stmt 1
	movq	-176(%rbp), %rdx	# from, tmp341
	movq	-168(%rbp), %rax	# to, tmp342
	movl	$0, %ecx	#,
	movq	%rax, %rsi	# tmp342,
	movl	$913, %edi	#,
	call	emit_unop_insn	#
	.loc 1 675 0
	jmp	.L50	#
.L70:
	.loc 1 679 0
	movl	target_flags(%rip), %eax	# target_flags, target_flags.44
	andl	$1, %eax	#, D.25579
	testl	%eax, %eax	# D.25579
	je	.L71	#,
	.loc 1 679 0 is_stmt 0 discriminator 1
	cmpl	$18, -148(%rbp)	#, from_mode
	jne	.L71	#,
	cmpl	$15, -132(%rbp)	#, to_mode
	jne	.L71	#,
	.loc 1 681 0 is_stmt 1
	movq	-176(%rbp), %rdx	# from, tmp343
	movq	-168(%rbp), %rax	# to, tmp344
	movl	$0, %ecx	#,
	movq	%rax, %rsi	# tmp344,
	movl	$916, %edi	#,
	call	emit_unop_insn	#
	.loc 1 682 0
	jmp	.L50	#
.L71:
	.loc 1 686 0
	movl	target_flags(%rip), %eax	# target_flags, target_flags.45
	andl	$33554432, %eax	#, D.25579
	testl	%eax, %eax	# D.25579
	jne	.L72	#,
	.loc 1 686 0 is_stmt 0 discriminator 1
	movl	target_flags(%rip), %eax	# target_flags, target_flags.46
	andl	$1, %eax	#, D.25579
	testl	%eax, %eax	# D.25579
	je	.L72	#,
	cmpl	$17, -148(%rbp)	#, from_mode
	jne	.L72	#,
	cmpl	$16, -132(%rbp)	#, to_mode
	jne	.L72	#,
	.loc 1 688 0 is_stmt 1
	movq	-176(%rbp), %rdx	# from, tmp345
	movq	-168(%rbp), %rax	# to, tmp346
	movl	$0, %ecx	#,
	movq	%rax, %rsi	# tmp346,
	movl	$919, %edi	#,
	call	emit_unop_insn	#
	.loc 1 689 0
	jmp	.L50	#
.L72:
	.loc 1 693 0
	movl	target_flags(%rip), %eax	# target_flags, target_flags.47
	andl	$1, %eax	#, D.25579
	testl	%eax, %eax	# D.25579
	je	.L73	#,
	.loc 1 693 0 is_stmt 0 discriminator 1
	cmpl	$18, -148(%rbp)	#, from_mode
	jne	.L73	#,
	cmpl	$16, -132(%rbp)	#, to_mode
	jne	.L73	#,
	.loc 1 695 0 is_stmt 1
	movq	-176(%rbp), %rdx	# from, tmp347
	movq	-168(%rbp), %rax	# to, tmp348
	movl	$0, %ecx	#,
	movq	%rax, %rsi	# tmp348,
	movl	$922, %edi	#,
	call	emit_unop_insn	#
	.loc 1 696 0
	jmp	.L50	#
.L73:
	.loc 1 700 0
	movq	$0, -104(%rbp)	#, libcall
	.loc 1 701 0
	movl	-148(%rbp), %eax	# from_mode, from_mode
	cmpl	$16, %eax	#, from_mode
	je	.L75	#,
	cmpl	$16, %eax	#, from_mode
	ja	.L76	#,
	cmpl	$15, %eax	#, from_mode
	je	.L77	#,
	.loc 1 776 0
	jmp	.L85	#
.L76:
	.loc 1 701 0
	cmpl	$17, %eax	#, from_mode
	je	.L78	#,
	cmpl	$18, %eax	#, from_mode
	je	.L79	#,
	.loc 1 776 0
	jmp	.L85	#
.L77:
	.loc 1 704 0
	movl	-132(%rbp), %eax	# to_mode, to_mode
	cmpl	$17, %eax	#, to_mode
	je	.L81	#,
	cmpl	$18, %eax	#, to_mode
	je	.L82	#,
	cmpl	$16, %eax	#, to_mode
	je	.L83	#,
	.loc 1 719 0
	jmp	.L84	#
.L83:
	.loc 1 707 0
	movq	libfunc_table(%rip), %rax	# libfunc_table, tmp351
	movq	%rax, -104(%rbp)	# tmp351, libcall
	.loc 1 708 0
	jmp	.L84	#
.L81:
	.loc 1 711 0
	movq	libfunc_table+8(%rip), %rax	# libfunc_table, tmp352
	movq	%rax, -104(%rbp)	# tmp352, libcall
	.loc 1 712 0
	jmp	.L84	#
.L82:
	.loc 1 715 0
	movq	libfunc_table+16(%rip), %rax	# libfunc_table, tmp353
	movq	%rax, -104(%rbp)	# tmp353, libcall
	.loc 1 716 0
	nop
.L84:
	.loc 1 721 0
	jmp	.L85	#
.L75:
	.loc 1 724 0
	movl	-132(%rbp), %eax	# to_mode, to_mode
	cmpl	$17, %eax	#, to_mode
	je	.L87	#,
	cmpl	$18, %eax	#, to_mode
	je	.L88	#,
	cmpl	$15, %eax	#, to_mode
	je	.L89	#,
	.loc 1 739 0
	jmp	.L90	#
.L89:
	.loc 1 727 0
	movq	libfunc_table+40(%rip), %rax	# libfunc_table, tmp355
	movq	%rax, -104(%rbp)	# tmp355, libcall
	.loc 1 728 0
	jmp	.L90	#
.L87:
	.loc 1 731 0
	movq	libfunc_table+24(%rip), %rax	# libfunc_table, tmp356
	movq	%rax, -104(%rbp)	# tmp356, libcall
	.loc 1 732 0
	jmp	.L90	#
.L88:
	.loc 1 735 0
	movq	libfunc_table+32(%rip), %rax	# libfunc_table, tmp357
	movq	%rax, -104(%rbp)	# tmp357, libcall
	.loc 1 736 0
	nop
.L90:
	.loc 1 741 0
	jmp	.L85	#
.L78:
	.loc 1 744 0
	movl	-132(%rbp), %eax	# to_mode, to_mode
	cmpl	$15, %eax	#, to_mode
	je	.L92	#,
	cmpl	$16, %eax	#, to_mode
	je	.L93	#,
	.loc 1 755 0
	jmp	.L94	#
.L92:
	.loc 1 747 0
	movq	libfunc_table+48(%rip), %rax	# libfunc_table, tmp359
	movq	%rax, -104(%rbp)	# tmp359, libcall
	.loc 1 748 0
	jmp	.L94	#
.L93:
	.loc 1 751 0
	movq	libfunc_table+64(%rip), %rax	# libfunc_table, tmp360
	movq	%rax, -104(%rbp)	# tmp360, libcall
	.loc 1 752 0
	nop
.L94:
	.loc 1 757 0
	jmp	.L85	#
.L79:
	.loc 1 760 0
	movl	-132(%rbp), %eax	# to_mode, to_mode
	cmpl	$15, %eax	#, to_mode
	je	.L96	#,
	cmpl	$16, %eax	#, to_mode
	je	.L97	#,
	.loc 1 771 0
	jmp	.L98	#
.L96:
	.loc 1 763 0
	movq	libfunc_table+56(%rip), %rax	# libfunc_table, tmp362
	movq	%rax, -104(%rbp)	# tmp362, libcall
	.loc 1 764 0
	jmp	.L98	#
.L97:
	.loc 1 767 0
	movq	libfunc_table+72(%rip), %rax	# libfunc_table, tmp363
	movq	%rax, -104(%rbp)	# tmp363, libcall
	.loc 1 768 0
	nop
.L98:
	.loc 1 773 0
	nop
.L85:
	.loc 1 779 0
	cmpq	$0, -104(%rbp)	#, libcall
	jne	.L99	#,
	.loc 1 781 0
	movl	$__FUNCTION__.14231, %edx	#,
	movl	$781, %esi	#,
	movl	$.LC0, %edi	#,
	call	fancy_abort	#
.L99:
	.loc 1 783 0
	call	start_sequence	#
	.loc 1 784 0
	movq	-176(%rbp), %rsi	# from, tmp364
	movl	-132(%rbp), %edx	# to_mode, tmp365
	movq	-104(%rbp), %rax	# libcall, tmp366
	movl	-148(%rbp), %ecx	# from_mode, tmp367
	movl	%ecx, (%rsp)	# tmp367,
	movq	%rsi, %r9	# tmp364,
	movl	$1, %r8d	#,
	movl	%edx, %ecx	# tmp365,
	movl	$1, %edx	#,
	movl	$0, %esi	#,
	movq	%rax, %rdi	# tmp366,
	movl	$0, %eax	#,
	call	emit_library_call_value	#
	movq	%rax, -88(%rbp)	# tmp368, value
	.loc 1 786 0
	call	get_insns	#
	movq	%rax, -80(%rbp)	# tmp369, insns
	.loc 1 787 0
	call	end_sequence	#
	.loc 1 788 0
	movq	-176(%rbp), %rdx	# from, tmp370
	movl	-132(%rbp), %eax	# to_mode, tmp371
	movl	%eax, %esi	# tmp371,
	movl	$124, %edi	#,
	call	gen_rtx_fmt_e	#
	movq	%rax, %rcx	#, D.25578
	movq	-88(%rbp), %rdx	# value, tmp372
	movq	-168(%rbp), %rsi	# to, tmp373
	movq	-80(%rbp), %rax	# insns, tmp374
	movq	%rax, %rdi	# tmp374,
	call	emit_libcall_block	#
	.loc 1 790 0
	jmp	.L50	#
.L66:
.LBE11:
	.loc 1 796 0
	movl	-148(%rbp), %eax	# from_mode, from_mode.48
	cltq
	movzwl	mode_bitsize(%rax,%rax), %edx	# mode_bitsize, D.25577
	movl	-132(%rbp), %eax	# to_mode, to_mode.49
	cltq
	movzwl	mode_bitsize(%rax,%rax), %eax	# mode_bitsize, D.25577
	cmpw	%ax, %dx	# D.25577, D.25577
	jae	.L100	#,
	.loc 1 797 0
	movl	-132(%rbp), %eax	# to_mode, to_mode.50
	cltq
	movzwl	mode_bitsize(%rax,%rax), %eax	# mode_bitsize, D.25577
	movzwl	%ax, %edx	# D.25577, D.25579
	movl	target_flags(%rip), %eax	# target_flags, target_flags.52
	andl	$33554432, %eax	#, D.25579
	testl	%eax, %eax	# D.25579
	je	.L101	#,
	.loc 1 797 0 is_stmt 0 discriminator 1
	movl	$64, %eax	#, iftmp.51
	jmp	.L102	#
.L101:
	.loc 1 797 0 discriminator 2
	movl	$32, %eax	#, iftmp.51
.L102:
	.loc 1 797 0 discriminator 3
	cmpl	%eax, %edx	# iftmp.51, D.25579
	jle	.L100	#,
.LBB12:
	.loc 1 805 0 is_stmt 1
	movl	-132(%rbp), %eax	# to_mode, to_mode.53
	cltq
	movzbl	mode_size(%rax), %eax	# mode_size, D.25574
	movzbl	%al, %edx	# D.25574, D.25579
	movl	target_flags(%rip), %eax	# target_flags, target_flags.55
	andl	$33554432, %eax	#, D.25579
	testl	%eax, %eax	# D.25579
	je	.L103	#,
	.loc 1 805 0 is_stmt 0 discriminator 1
	movl	$8, %eax	#, iftmp.54
	jmp	.L104	#
.L103:
	.loc 1 805 0 discriminator 2
	movl	$4, %eax	#, iftmp.54
.L104:
	.loc 1 805 0 discriminator 3
	addl	%edx, %eax	# D.25579, D.25579
	subl	$1, %eax	#, D.25579
	movl	target_flags(%rip), %edx	# target_flags, target_flags.57
	andl	$33554432, %edx	#, D.25579
	testl	%edx, %edx	# D.25579
	je	.L105	#,
	.loc 1 805 0 discriminator 1
	movl	$8, %ebx	#, iftmp.56
	jmp	.L106	#
.L105:
	.loc 1 805 0 discriminator 2
	movl	$4, %ebx	#, iftmp.56
.L106:
	.loc 1 805 0 discriminator 3
	cltd
	idivl	%ebx	# iftmp.56
	movl	%eax, -112(%rbp)	# tmp379, nwords
	.loc 1 808 0 is_stmt 1 discriminator 3
	movl	-180(%rbp), %edx	# unsignedp, tmp381
	movl	-148(%rbp), %ecx	# from_mode, tmp382
	movl	-132(%rbp), %eax	# to_mode, tmp383
	movl	%ecx, %esi	# tmp382,
	movl	%eax, %edi	# tmp383,
	call	can_extend_p	#
	movl	%eax, -116(%rbp)	# tmp384, code
	cmpl	$1317, -116(%rbp)	#, code
	je	.L107	#,
	.loc 1 815 0
	movl	optimize(%rip), %eax	# optimize, optimize.58
	testl	%eax, %eax	# optimize.58
	jle	.L108	#,
	.loc 1 815 0 is_stmt 0 discriminator 1
	movq	-176(%rbp), %rax	# from, tmp385
	movzwl	(%rax), %eax	# from_2->code, D.25577
	cmpw	$63, %ax	#, D.25577
	jne	.L108	#,
	.loc 1 816 0 is_stmt 1
	movq	-176(%rbp), %rdx	# from, tmp386
	movl	-148(%rbp), %eax	# from_mode, tmp387
	movq	%rdx, %rsi	# tmp386,
	movl	%eax, %edi	# tmp387,
	call	force_reg	#
	movq	%rax, -176(%rbp)	# tmp388, from
.L108:
	.loc 1 817 0
	movl	-116(%rbp), %eax	# code, code.59
	movl	-120(%rbp), %ecx	# equiv_code, tmp389
	movq	-176(%rbp), %rdx	# from, tmp390
	movq	-168(%rbp), %rsi	# to, tmp391
	movl	%eax, %edi	# code.59,
	call	emit_unop_insn	#
	.loc 1 818 0
	jmp	.L50	#
.L107:
	.loc 1 821 0
	movl	-148(%rbp), %eax	# from_mode, from_mode.60
	cltq
	movzwl	mode_bitsize(%rax,%rax), %eax	# mode_bitsize, D.25577
	movzwl	%ax, %edx	# D.25577, D.25579
	movl	target_flags(%rip), %eax	# target_flags, target_flags.62
	andl	$33554432, %eax	#, D.25579
	testl	%eax, %eax	# D.25579
	je	.L109	#,
	.loc 1 821 0 is_stmt 0 discriminator 1
	movl	$64, %eax	#, iftmp.61
	jmp	.L110	#
.L109:
	.loc 1 821 0 discriminator 2
	movl	$32, %eax	#, iftmp.61
.L110:
	.loc 1 821 0 discriminator 3
	cmpl	%eax, %edx	# iftmp.61, D.25579
	jge	.L111	#,
	.loc 1 822 0 is_stmt 1
	movl	word_mode(%rip), %ecx	# word_mode, word_mode.63
	movl	-180(%rbp), %edx	# unsignedp, tmp393
	movl	-132(%rbp), %eax	# to_mode, tmp394
	movl	%ecx, %esi	# word_mode.63,
	movl	%eax, %edi	# tmp394,
	call	can_extend_p	#
	movl	%eax, -116(%rbp)	# tmp395, code
	cmpl	$1317, -116(%rbp)	#, code
	je	.L111	#,
	.loc 1 825 0
	movq	-168(%rbp), %rax	# to, tmp396
	movzwl	(%rax), %eax	# to_53->code, D.25577
	cmpw	$61, %ax	#, D.25577
	jne	.L112	#,
	.loc 1 826 0
	movq	-168(%rbp), %rax	# to, tmp397
	movq	%rax, %rdx	# tmp397,
	movl	$0, %esi	#,
	movl	$49, %edi	#,
	call	gen_rtx_fmt_e	#
	movq	%rax, %rdi	# D.25578,
	call	emit_insn	#
.L112:
	.loc 1 827 0
	movl	word_mode(%rip), %eax	# word_mode, word_mode.64
	movq	-168(%rbp), %rdx	# to, tmp398
	movq	%rdx, %rsi	# tmp398,
	movl	%eax, %edi	# word_mode.64,
	call	gen_lowpart	#
	movl	-180(%rbp), %edx	# unsignedp, tmp399
	movq	-176(%rbp), %rcx	# from, tmp400
	movq	%rcx, %rsi	# tmp400,
	movq	%rax, %rdi	# D.25578,
	call	convert_move	#
	.loc 1 828 0
	movl	word_mode(%rip), %eax	# word_mode, word_mode.65
	movq	-168(%rbp), %rdx	# to, tmp401
	movq	%rdx, %rsi	# tmp401,
	movl	%eax, %edi	# word_mode.65,
	call	gen_lowpart	#
	movq	%rax, %rdx	#, D.25578
	movl	-116(%rbp), %eax	# code, code.66
	movl	-120(%rbp), %ecx	# equiv_code, tmp402
	movq	-168(%rbp), %rsi	# to, tmp403
	movl	%eax, %edi	# code.66,
	call	emit_unop_insn	#
	.loc 1 830 0
	jmp	.L50	#
.L111:
	.loc 1 834 0
	call	start_sequence	#
	.loc 1 839 0
	movq	-176(%rbp), %rdx	# from, tmp404
	movq	-168(%rbp), %rax	# to, tmp405
	movq	%rdx, %rsi	# tmp404,
	movq	%rax, %rdi	# tmp405,
	call	reg_overlap_mentioned_p	#
	testl	%eax, %eax	# D.25579
	je	.L113	#,
	.loc 1 840 0
	movq	-176(%rbp), %rdx	# from, tmp406
	movl	-148(%rbp), %eax	# from_mode, tmp407
	movq	%rdx, %rsi	# tmp406,
	movl	%eax, %edi	# tmp407,
	call	force_reg	#
	movq	%rax, -176(%rbp)	# tmp408, from
.L113:
	.loc 1 843 0
	movl	-148(%rbp), %eax	# from_mode, from_mode.67
	cltq
	movzwl	mode_bitsize(%rax,%rax), %eax	# mode_bitsize, D.25577
	movzwl	%ax, %edx	# D.25577, D.25579
	movl	target_flags(%rip), %eax	# target_flags, target_flags.69
	andl	$33554432, %eax	#, D.25579
	testl	%eax, %eax	# D.25579
	je	.L114	#,
	.loc 1 843 0 is_stmt 0 discriminator 1
	movl	$64, %eax	#, iftmp.68
	jmp	.L115	#
.L114:
	.loc 1 843 0 discriminator 2
	movl	$32, %eax	#, iftmp.68
.L115:
	.loc 1 843 0 discriminator 3
	cmpl	%eax, %edx	# iftmp.68, D.25579
	jge	.L116	#,
	.loc 1 844 0 is_stmt 1
	movl	word_mode(%rip), %eax	# word_mode, tmp410
	movl	%eax, -140(%rbp)	# tmp410, lowpart_mode
	jmp	.L117	#
.L116:
	.loc 1 846 0
	movl	-148(%rbp), %eax	# from_mode, tmp411
	movl	%eax, -140(%rbp)	# tmp411, lowpart_mode
.L117:
	.loc 1 848 0
	movl	-180(%rbp), %edx	# unsignedp, tmp412
	movq	-176(%rbp), %rcx	# from, tmp413
	movl	-140(%rbp), %eax	# lowpart_mode, tmp414
	movq	%rcx, %rsi	# tmp413,
	movl	%eax, %edi	# tmp414,
	call	convert_to_mode	#
	movq	%rax, -72(%rbp)	# tmp415, lowfrom
	.loc 1 850 0
	movq	-168(%rbp), %rdx	# to, tmp416
	movl	-140(%rbp), %eax	# lowpart_mode, tmp417
	movq	%rdx, %rsi	# tmp416,
	movl	%eax, %edi	# tmp417,
	call	gen_lowpart	#
	movq	%rax, -64(%rbp)	# tmp418, lowpart
	.loc 1 851 0
	movq	-72(%rbp), %rdx	# lowfrom, tmp419
	movq	-64(%rbp), %rax	# lowpart, tmp420
	movq	%rdx, %rsi	# tmp419,
	movq	%rax, %rdi	# tmp420,
	call	emit_move_insn	#
	.loc 1 854 0
	cmpl	$0, -180(%rbp)	#, unsignedp
	je	.L118	#,
	.loc 1 855 0
	movq	const_int_rtx+512(%rip), %rax	# const_int_rtx, tmp421
	movq	%rax, -96(%rbp)	# tmp421, fill_value
	jmp	.L119	#
.L118:
	.loc 1 873 0
	movl	-140(%rbp), %eax	# lowpart_mode, lowpart_mode.71
	cltq
	movzwl	mode_bitsize(%rax,%rax), %eax	# mode_bitsize, D.25577
	movzwl	%ax, %eax	# D.25577, D.25579
	subl	$1, %eax	#, D.25579
	.loc 1 872 0
	cltq
	movl	$0, %esi	#,
	movq	%rax, %rdi	# D.25581,
	call	size_int_wide	#
	movq	%rax, %rcx	#, D.25582
	movq	-72(%rbp), %rdx	# lowfrom, tmp423
	movl	-140(%rbp), %eax	# lowpart_mode, tmp424
	movl	$0, %r9d	#,
	movl	$0, %r8d	#,
	movl	%eax, %esi	# tmp424,
	movl	$83, %edi	#,
	call	expand_shift	#
	movq	%rax, -96(%rbp)	# tmp425, fill_value
	.loc 1 875 0
	movl	word_mode(%rip), %eax	# word_mode, word_mode.72
	movq	-96(%rbp), %rcx	# fill_value, tmp426
	movl	$1, %edx	#,
	movq	%rcx, %rsi	# tmp426,
	movl	%eax, %edi	# word_mode.72,
	call	convert_to_mode	#
	movq	%rax, -96(%rbp)	# tmp427, fill_value
.L119:
	.loc 1 880 0
	movl	-140(%rbp), %eax	# lowpart_mode, lowpart_mode.73
	cltq
	movzbl	mode_size(%rax), %eax	# mode_size, D.25574
	movzbl	%al, %eax	# D.25574, D.25579
	movl	target_flags(%rip), %edx	# target_flags, target_flags.75
	andl	$33554432, %edx	#, D.25579
	testl	%edx, %edx	# D.25579
	je	.L120	#,
	.loc 1 880 0 is_stmt 0 discriminator 1
	movl	$8, %ebx	#, iftmp.74
	jmp	.L121	#
.L120:
	.loc 1 880 0 discriminator 2
	movl	$4, %ebx	#, iftmp.74
.L121:
	.loc 1 880 0 discriminator 3
	cltd
	idivl	%ebx	# iftmp.74
	movl	%eax, -144(%rbp)	# tmp429, i
	jmp	.L122	#
.L125:
.LBB13:
	.loc 1 882 0 is_stmt 1
	movl	-144(%rbp), %eax	# i, tmp431
	movl	%eax, -108(%rbp)	# tmp431, index
	.loc 1 883 0
	movl	-108(%rbp), %esi	# index, index.76
	movl	-132(%rbp), %edx	# to_mode, tmp432
	movq	-168(%rbp), %rax	# to, tmp433
	movl	%edx, %ecx	# tmp432,
	movl	$1, %edx	#,
	movq	%rax, %rdi	# tmp433,
	call	operand_subword	#
	movq	%rax, -56(%rbp)	# tmp434, subword
	.loc 1 885 0
	cmpq	$0, -56(%rbp)	#, subword
	jne	.L123	#,
	.loc 1 886 0
	movl	$__FUNCTION__.14231, %edx	#,
	movl	$886, %esi	#,
	movl	$.LC0, %edi	#,
	call	fancy_abort	#
.L123:
	.loc 1 888 0
	movq	-96(%rbp), %rax	# fill_value, tmp435
	cmpq	-56(%rbp), %rax	# subword, tmp435
	je	.L124	#,
	.loc 1 889 0
	movq	-96(%rbp), %rdx	# fill_value, tmp436
	movq	-56(%rbp), %rax	# subword, tmp437
	movq	%rdx, %rsi	# tmp436,
	movq	%rax, %rdi	# tmp437,
	call	emit_move_insn	#
.L124:
.LBE13:
	.loc 1 880 0
	addl	$1, -144(%rbp)	#, i
.L122:
	.loc 1 880 0 is_stmt 0 discriminator 1
	movl	-144(%rbp), %eax	# i, tmp438
	cmpl	-112(%rbp), %eax	# nwords, tmp438
	jl	.L125	#,
	.loc 1 892 0 is_stmt 1
	call	get_insns	#
	movq	%rax, -48(%rbp)	# tmp439, insns
	.loc 1 893 0
	call	end_sequence	#
	.loc 1 895 0
	movq	-176(%rbp), %rax	# from, tmp440
	movq	%rax, %rdi	# tmp440,
	call	copy_rtx	#
	movq	%rax, %rdx	#, D.25578
	movl	-132(%rbp), %ecx	# to_mode, tmp441
	movl	-120(%rbp), %eax	# equiv_code, tmp442
	movl	%ecx, %esi	# tmp441,
	movl	%eax, %edi	# tmp442,
	call	gen_rtx_fmt_e	#
	movq	%rax, %rcx	#, D.25578
	movq	-176(%rbp), %rdx	# from, tmp443
	movq	-168(%rbp), %rsi	# to, tmp444
	movq	-48(%rbp), %rax	# insns, tmp445
	movq	%rcx, %r8	# D.25578,
	movl	$0, %ecx	#,
	movq	%rax, %rdi	# tmp445,
	call	emit_no_conflict_block	#
	.loc 1 897 0
	jmp	.L50	#
.L100:
.LBE12:
	.loc 1 901 0
	movl	-148(%rbp), %eax	# from_mode, from_mode.77
	cltq
	movzwl	mode_bitsize(%rax,%rax), %eax	# mode_bitsize, D.25577
	movzwl	%ax, %edx	# D.25577, D.25579
	movl	target_flags(%rip), %eax	# target_flags, target_flags.79
	andl	$33554432, %eax	#, D.25579
	testl	%eax, %eax	# D.25579
	je	.L126	#,
	.loc 1 901 0 is_stmt 0 discriminator 1
	movl	$64, %eax	#, iftmp.78
	jmp	.L127	#
.L126:
	.loc 1 901 0 discriminator 2
	movl	$32, %eax	#, iftmp.78
.L127:
	.loc 1 901 0 discriminator 3
	cmpl	%eax, %edx	# iftmp.78, D.25579
	jle	.L128	#,
	.loc 1 902 0 is_stmt 1
	movl	-132(%rbp), %eax	# to_mode, to_mode.80
	cltq
	movzwl	mode_bitsize(%rax,%rax), %eax	# mode_bitsize, D.25577
	movzwl	%ax, %edx	# D.25577, D.25579
	movl	target_flags(%rip), %eax	# target_flags, target_flags.82
	andl	$33554432, %eax	#, D.25579
	testl	%eax, %eax	# D.25579
	je	.L129	#,
	.loc 1 902 0 is_stmt 0 discriminator 1
	movl	$64, %eax	#, iftmp.81
	jmp	.L130	#
.L129:
	.loc 1 902 0 discriminator 2
	movl	$32, %eax	#, iftmp.81
.L130:
	.loc 1 902 0 discriminator 3
	cmpl	%eax, %edx	# iftmp.81, D.25579
	jg	.L128	#,
	.loc 1 904 0 is_stmt 1
	movq	-176(%rbp), %rax	# from, tmp448
	movzwl	(%rax), %eax	# from_2->code, D.25577
	cmpw	$66, %ax	#, D.25577
	jne	.L131	#,
	.loc 1 905 0
	movq	-176(%rbp), %rax	# from, tmp449
	movzbl	3(%rax), %eax	# *from_2, D.25574
	andl	$8, %eax	#, D.25574
	testb	%al, %al	# D.25574
	jne	.L131	#,
	.loc 1 906 0
	movl	-132(%rbp), %eax	# to_mode, to_mode.83
	cltq
	movzbl	direct_load(%rax), %eax	# direct_load, D.25583
	testb	%al, %al	# D.25583
	je	.L131	#,
	.loc 1 907 0
	movq	-176(%rbp), %rax	# from, tmp451
	movq	8(%rax), %rax	# from_2->fld[0].rtx, D.25578
	movq	%rax, %rdi	# D.25578,
	call	mode_dependent_address_p	#
	testl	%eax, %eax	# D.25579
	je	.L132	#,
.L131:
	.loc 1 908 0
	movq	-176(%rbp), %rax	# from, tmp452
	movzwl	(%rax), %eax	# from_2->code, D.25577
	cmpw	$61, %ax	#, D.25577
	je	.L132	#,
	.loc 1 909 0
	movq	-176(%rbp), %rax	# from, tmp453
	movzwl	(%rax), %eax	# from_2->code, D.25577
	.loc 1 904 0
	cmpw	$63, %ax	#, D.25577
	je	.L132	#,
	.loc 1 910 0
	movq	-176(%rbp), %rdx	# from, tmp454
	movl	-148(%rbp), %eax	# from_mode, tmp455
	movq	%rdx, %rsi	# tmp454,
	movl	%eax, %edi	# tmp455,
	call	force_reg	#
	movq	%rax, -176(%rbp)	# tmp456, from
.L132:
	.loc 1 911 0
	movl	word_mode(%rip), %eax	# word_mode, word_mode.84
	movq	-176(%rbp), %rdx	# from, tmp457
	movq	%rdx, %rsi	# tmp457,
	movl	%eax, %edi	# word_mode.84,
	call	gen_lowpart	#
	movq	%rax, %rcx	#, D.25578
	movq	-168(%rbp), %rax	# to, tmp458
	movl	$0, %edx	#,
	movq	%rcx, %rsi	# D.25578,
	movq	%rax, %rdi	# tmp458,
	call	convert_move	#
	.loc 1 912 0
	jmp	.L50	#
.L128:
	.loc 1 916 0
	cmpl	$8, -132(%rbp)	#, to_mode
	jne	.L133	#,
	.loc 1 918 0
	cmpl	$2, -148(%rbp)	#, from_mode
	je	.L134	#,
	.loc 1 919 0
	movl	-180(%rbp), %edx	# unsignedp, tmp459
	movq	-176(%rbp), %rax	# from, tmp460
	movq	%rax, %rsi	# tmp460,
	movl	$2, %edi	#,
	call	convert_to_mode	#
	movq	%rax, -176(%rbp)	# tmp461, from
.L134:
	.loc 1 928 0
	movl	$__FUNCTION__.14231, %edx	#,
	movl	$928, %esi	#,
	movl	$.LC0, %edi	#,
	call	fancy_abort	#
.L133:
	.loc 1 931 0
	cmpl	$8, -148(%rbp)	#, from_mode
	jne	.L135	#,
	.loc 1 933 0
	cmpl	$2, -132(%rbp)	#, to_mode
	je	.L136	#,
	.loc 1 935 0
	movl	-180(%rbp), %edx	# unsignedp, tmp462
	movq	-176(%rbp), %rax	# from, tmp463
	movq	%rax, %rsi	# tmp463,
	movl	$2, %edi	#,
	call	convert_to_mode	#
	movq	%rax, -176(%rbp)	# tmp464, from
	.loc 1 936 0
	movl	$2, -148(%rbp)	#, from_mode
	jmp	.L135	#
.L136:
	.loc 1 947 0
	movl	$__FUNCTION__.14231, %edx	#,
	movl	$947, %esi	#,
	movl	$.LC0, %edi	#,
	call	fancy_abort	#
.L135:
	.loc 1 951 0
	cmpl	$10, -132(%rbp)	#, to_mode
	jne	.L137	#,
	.loc 1 953 0
	cmpl	$4, -148(%rbp)	#, from_mode
	je	.L138	#,
	.loc 1 954 0
	movl	-180(%rbp), %edx	# unsignedp, tmp465
	movq	-176(%rbp), %rax	# from, tmp466
	movq	%rax, %rsi	# tmp466,
	movl	$4, %edi	#,
	call	convert_to_mode	#
	movq	%rax, -176(%rbp)	# tmp467, from
.L138:
	.loc 1 963 0
	movl	$__FUNCTION__.14231, %edx	#,
	movl	$963, %esi	#,
	movl	$.LC0, %edi	#,
	call	fancy_abort	#
.L137:
	.loc 1 966 0
	cmpl	$10, -148(%rbp)	#, from_mode
	jne	.L139	#,
	.loc 1 968 0
	cmpl	$4, -132(%rbp)	#, to_mode
	je	.L140	#,
	.loc 1 970 0
	movl	-180(%rbp), %edx	# unsignedp, tmp468
	movq	-176(%rbp), %rax	# from, tmp469
	movq	%rax, %rsi	# tmp469,
	movl	$4, %edi	#,
	call	convert_to_mode	#
	movq	%rax, -176(%rbp)	# tmp470, from
	.loc 1 971 0
	movl	$4, -148(%rbp)	#, from_mode
	jmp	.L139	#
.L140:
	.loc 1 989 0
	movl	$__FUNCTION__.14231, %edx	#,
	movl	$989, %esi	#,
	movl	$.LC0, %edi	#,
	call	fancy_abort	#
.L139:
	.loc 1 993 0
	cmpl	$11, -132(%rbp)	#, to_mode
	jne	.L141	#,
	.loc 1 995 0
	cmpl	$5, -148(%rbp)	#, from_mode
	je	.L142	#,
	.loc 1 996 0
	movl	-180(%rbp), %edx	# unsignedp, tmp471
	movq	-176(%rbp), %rax	# from, tmp472
	movq	%rax, %rsi	# tmp472,
	movl	$5, %edi	#,
	call	convert_to_mode	#
	movq	%rax, -176(%rbp)	# tmp473, from
.L142:
	.loc 1 1005 0
	movl	$__FUNCTION__.14231, %edx	#,
	movl	$1005, %esi	#,
	movl	$.LC0, %edi	#,
	call	fancy_abort	#
.L141:
	.loc 1 1008 0
	cmpl	$11, -148(%rbp)	#, from_mode
	jne	.L143	#,
	.loc 1 1010 0
	cmpl	$5, -132(%rbp)	#, to_mode
	je	.L144	#,
	.loc 1 1012 0
	movl	-180(%rbp), %edx	# unsignedp, tmp474
	movq	-176(%rbp), %rax	# from, tmp475
	movq	%rax, %rsi	# tmp475,
	movl	$5, %edi	#,
	call	convert_to_mode	#
	movq	%rax, -176(%rbp)	# tmp476, from
	.loc 1 1013 0
	movl	$5, -148(%rbp)	#, from_mode
	jmp	.L143	#
.L144:
	.loc 1 1024 0
	movl	$__FUNCTION__.14231, %edx	#,
	movl	$1024, %esi	#,
	movl	$.LC0, %edi	#,
	call	fancy_abort	#
.L143:
	.loc 1 1032 0
	movl	-132(%rbp), %eax	# to_mode, to_mode.85
	cltq
	movzwl	mode_bitsize(%rax,%rax), %edx	# mode_bitsize, D.25577
	movl	-148(%rbp), %eax	# from_mode, from_mode.86
	cltq
	movzwl	mode_bitsize(%rax,%rax), %eax	# mode_bitsize, D.25577
	cmpw	%ax, %dx	# D.25577, D.25577
	jae	.L145	#,
	.loc 1 1036 0
	movq	-176(%rbp), %rax	# from, tmp479
	movzwl	(%rax), %eax	# from_9->code, D.25577
	cmpw	$66, %ax	#, D.25577
	jne	.L146	#,
	.loc 1 1037 0
	movq	-176(%rbp), %rax	# from, tmp480
	movzbl	3(%rax), %eax	# *from_9, D.25574
	andl	$8, %eax	#, D.25574
	testb	%al, %al	# D.25574
	jne	.L146	#,
	.loc 1 1038 0
	movl	-132(%rbp), %eax	# to_mode, to_mode.87
	cltq
	movzbl	direct_load(%rax), %eax	# direct_load, D.25583
	testb	%al, %al	# D.25583
	je	.L146	#,
	.loc 1 1039 0
	movq	-176(%rbp), %rax	# from, tmp482
	movq	8(%rax), %rax	# from_9->fld[0].rtx, D.25578
	movq	%rax, %rdi	# D.25578,
	call	mode_dependent_address_p	#
	testl	%eax, %eax	# D.25579
	je	.L147	#,
.L146:
	.loc 1 1040 0
	movq	-176(%rbp), %rax	# from, tmp483
	movzwl	(%rax), %eax	# from_9->code, D.25577
	cmpw	$61, %ax	#, D.25577
	je	.L147	#,
	.loc 1 1041 0
	movq	-176(%rbp), %rax	# from, tmp484
	movzwl	(%rax), %eax	# from_9->code, D.25577
	.loc 1 1036 0
	cmpw	$63, %ax	#, D.25577
	je	.L147	#,
	.loc 1 1042 0
	movq	-176(%rbp), %rdx	# from, tmp485
	movl	-148(%rbp), %eax	# from_mode, tmp486
	movq	%rdx, %rsi	# tmp485,
	movl	%eax, %edi	# tmp486,
	call	force_reg	#
	movq	%rax, -176(%rbp)	# tmp487, from
.L147:
	.loc 1 1043 0
	movq	-176(%rbp), %rax	# from, tmp488
	movzwl	(%rax), %eax	# from_10->code, D.25577
	cmpw	$61, %ax	#, D.25577
	jne	.L148	#,
	.loc 1 1043 0 is_stmt 0 discriminator 1
	movq	-176(%rbp), %rax	# from, tmp489
	movl	8(%rax), %eax	# from_10->fld[0].rtuint, D.25584
	cmpl	$52, %eax	#, D.25584
	ja	.L148	#,
	.loc 1 1044 0 is_stmt 1
	movq	-176(%rbp), %rax	# from, tmp490
	movl	8(%rax), %eax	# from_10->fld[0].rtuint, D.25584
	movl	-132(%rbp), %edx	# to_mode, tmp491
	movl	%edx, %esi	# tmp491,
	movl	%eax, %edi	# D.25579,
	call	ix86_hard_regno_mode_ok	#
	testl	%eax, %eax	# D.25579
	jne	.L148	#,
	.loc 1 1045 0
	movq	-176(%rbp), %rax	# from, tmp492
	movq	%rax, %rdi	# tmp492,
	call	copy_to_reg	#
	movq	%rax, -176(%rbp)	# tmp493, from
.L148:
	.loc 1 1046 0
	movq	-176(%rbp), %rdx	# from, tmp494
	movl	-132(%rbp), %eax	# to_mode, tmp495
	movq	%rdx, %rsi	# tmp494,
	movl	%eax, %edi	# tmp495,
	call	gen_lowpart	#
	movq	%rax, %rdx	#, D.25578
	movq	-168(%rbp), %rax	# to, tmp496
	movq	%rdx, %rsi	# D.25578,
	movq	%rax, %rdi	# tmp496,
	call	emit_move_insn	#
	.loc 1 1047 0
	jmp	.L50	#
.L145:
	.loc 1 1051 0
	movl	-132(%rbp), %eax	# to_mode, to_mode.88
	cltq
	movzwl	mode_bitsize(%rax,%rax), %edx	# mode_bitsize, D.25577
	movl	-148(%rbp), %eax	# from_mode, from_mode.89
	cltq
	movzwl	mode_bitsize(%rax,%rax), %eax	# mode_bitsize, D.25577
	cmpw	%ax, %dx	# D.25577, D.25577
	jbe	.L149	#,
	.loc 1 1054 0
	movl	-180(%rbp), %edx	# unsignedp, tmp499
	movl	-148(%rbp), %ecx	# from_mode, tmp500
	movl	-132(%rbp), %eax	# to_mode, tmp501
	movl	%ecx, %esi	# tmp500,
	movl	%eax, %edi	# tmp501,
	call	can_extend_p	#
	movl	%eax, -116(%rbp)	# tmp502, code
	cmpl	$1317, -116(%rbp)	#, code
	je	.L150	#,
	.loc 1 1057 0
	movl	flag_force_mem(%rip), %eax	# flag_force_mem, flag_force_mem.90
	testl	%eax, %eax	# flag_force_mem.90
	je	.L151	#,
	.loc 1 1058 0
	movq	-176(%rbp), %rax	# from, tmp503
	movq	%rax, %rdi	# tmp503,
	call	force_not_mem	#
	movq	%rax, -176(%rbp)	# tmp504, from
.L151:
	.loc 1 1060 0
	movl	-116(%rbp), %eax	# code, code.91
	movl	-120(%rbp), %ecx	# equiv_code, tmp505
	movq	-176(%rbp), %rdx	# from, tmp506
	movq	-168(%rbp), %rsi	# to, tmp507
	movl	%eax, %edi	# code.91,
	call	emit_unop_insn	#
	.loc 1 1061 0
	jmp	.L50	#
.L150:
.LBB14:
	.loc 1 1070 0
	movl	-148(%rbp), %eax	# from_mode, tmp508
	movl	%eax, -136(%rbp)	# tmp508, intermediate
	jmp	.L152	#
.L155:
	.loc 1 1072 0
	movl	-180(%rbp), %edx	# unsignedp, tmp509
	movl	-136(%rbp), %ecx	# intermediate, tmp510
	movl	-132(%rbp), %eax	# to_mode, tmp511
	movl	%ecx, %esi	# tmp510,
	movl	%eax, %edi	# tmp511,
	call	can_extend_p	#
	cmpl	$1317, %eax	#, D.25585
	jne	.L153	#,
	.loc 1 1074 0
	movl	-132(%rbp), %eax	# to_mode, to_mode.92
	cltq
	movzbl	mode_size(%rax), %edx	# mode_size, D.25574
	movl	-136(%rbp), %eax	# intermediate, intermediate.93
	cltq
	movzbl	mode_size(%rax), %eax	# mode_size, D.25574
	cmpb	%al, %dl	# D.25574, D.25574
	jae	.L154	#,
.L153:
	.loc 1 1077 0
	movl	-180(%rbp), %edx	# unsignedp, tmp514
	movl	-148(%rbp), %ecx	# from_mode, tmp515
	movl	-136(%rbp), %eax	# intermediate, tmp516
	movl	%ecx, %esi	# tmp515,
	movl	%eax, %edi	# tmp516,
	call	can_extend_p	#
	cmpl	$1317, %eax	#, D.25585
	je	.L154	#,
	.loc 1 1080 0
	movl	-180(%rbp), %edx	# unsignedp, tmp517
	movq	-176(%rbp), %rcx	# from, tmp518
	movl	-136(%rbp), %eax	# intermediate, tmp519
	movq	%rcx, %rsi	# tmp518,
	movl	%eax, %edi	# tmp519,
	call	convert_to_mode	#
	movq	%rax, %rcx	#, D.25578
	movl	-180(%rbp), %edx	# unsignedp, tmp520
	movq	-168(%rbp), %rax	# to, tmp521
	movq	%rcx, %rsi	# D.25578,
	movq	%rax, %rdi	# tmp521,
	call	convert_move	#
	.loc 1 1082 0
	jmp	.L50	#
.L154:
	.loc 1 1071 0
	movl	-136(%rbp), %eax	# intermediate, intermediate.94
	cltq
	movzbl	mode_wider_mode(%rax), %eax	# mode_wider_mode, D.25574
	movzbl	%al, %eax	# D.25574, tmp523
	movl	%eax, -136(%rbp)	# tmp523, intermediate
.L152:
	.loc 1 1070 0 discriminator 1
	cmpl	$0, -136(%rbp)	#, intermediate
	jne	.L155	#,
	.loc 1 1087 0
	movl	-132(%rbp), %eax	# to_mode, to_mode.95
	cltq
	movzwl	mode_bitsize(%rax,%rax), %eax	# mode_bitsize, D.25577
	movzwl	%ax, %edx	# D.25577, D.25579
	movl	-148(%rbp), %eax	# from_mode, from_mode.96
	cltq
	movzwl	mode_bitsize(%rax,%rax), %eax	# mode_bitsize, D.25577
	movzwl	%ax, %eax	# D.25577, D.25579
	subl	%eax, %edx	# D.25579, D.25579
	movl	%edx, %eax	# D.25579, D.25579
	cltq
	movl	$0, %esi	#,
	movq	%rax, %rdi	# D.25586,
	call	build_int_2_wide	#
	movq	%rax, -40(%rbp)	# tmp526, shift_amount
	.loc 1 1089 0
	movq	-176(%rbp), %rdx	# from, tmp527
	movl	-148(%rbp), %eax	# from_mode, tmp528
	movq	%rdx, %rsi	# tmp527,
	movl	%eax, %edi	# tmp528,
	call	force_reg	#
	movq	%rax, %rdx	#, D.25578
	movl	-132(%rbp), %eax	# to_mode, tmp529
	movq	%rdx, %rsi	# D.25578,
	movl	%eax, %edi	# tmp529,
	call	gen_lowpart	#
	movq	%rax, -176(%rbp)	# tmp530, from
	.loc 1 1090 0
	movl	-180(%rbp), %edi	# unsignedp, tmp531
	movq	-168(%rbp), %rsi	# to, tmp532
	movq	-40(%rbp), %rcx	# shift_amount, tmp533
	movq	-176(%rbp), %rdx	# from, tmp534
	movl	-132(%rbp), %eax	# to_mode, tmp535
	movl	%edi, %r9d	# tmp531,
	movq	%rsi, %r8	# tmp532,
	movl	%eax, %esi	# tmp535,
	movl	$82, %edi	#,
	call	expand_shift	#
	movq	%rax, -32(%rbp)	# tmp536, tmp
	.loc 1 1092 0
	movl	-180(%rbp), %edi	# unsignedp, tmp537
	movq	-168(%rbp), %rsi	# to, tmp538
	movq	-40(%rbp), %rcx	# shift_amount, tmp539
	movq	-32(%rbp), %rdx	# tmp, tmp540
	movl	-132(%rbp), %eax	# to_mode, tmp541
	movl	%edi, %r9d	# tmp537,
	movq	%rsi, %r8	# tmp538,
	movl	%eax, %esi	# tmp541,
	movl	$83, %edi	#,
	call	expand_shift	#
	movq	%rax, -32(%rbp)	# tmp542, tmp
	.loc 1 1094 0
	movq	-32(%rbp), %rax	# tmp, tmp543
	cmpq	-168(%rbp), %rax	# to, tmp543
	je	.L156	#,
	.loc 1 1095 0
	movq	-32(%rbp), %rdx	# tmp, tmp544
	movq	-168(%rbp), %rax	# to, tmp545
	movq	%rdx, %rsi	# tmp544,
	movq	%rax, %rdi	# tmp545,
	call	emit_move_insn	#
	.loc 1 1096 0
	jmp	.L50	#
.L156:
	jmp	.L50	#
.L149:
.LBE14:
	.loc 1 1102 0
	cmpl	$5, -148(%rbp)	#, from_mode
	jne	.L157	#,
	.loc 1 1102 0 is_stmt 0 discriminator 1
	cmpl	$4, -132(%rbp)	#, to_mode
	jne	.L157	#,
	.loc 1 1111 0 is_stmt 1
	movq	-176(%rbp), %rdx	# from, tmp546
	movl	-148(%rbp), %eax	# from_mode, tmp547
	movq	%rdx, %rsi	# tmp546,
	movl	%eax, %edi	# tmp547,
	call	force_reg	#
	movq	%rax, %rcx	#, D.25578
	movl	-180(%rbp), %edx	# unsignedp, tmp548
	movq	-168(%rbp), %rax	# to, tmp549
	movq	%rcx, %rsi	# D.25578,
	movq	%rax, %rdi	# tmp549,
	call	convert_move	#
	.loc 1 1112 0
	jmp	.L50	#
.L157:
	.loc 1 1115 0
	cmpl	$5, -148(%rbp)	#, from_mode
	jne	.L158	#,
	.loc 1 1115 0 is_stmt 0 discriminator 1
	cmpl	$3, -132(%rbp)	#, to_mode
	jne	.L158	#,
	.loc 1 1124 0 is_stmt 1
	movq	-176(%rbp), %rdx	# from, tmp550
	movl	-148(%rbp), %eax	# from_mode, tmp551
	movq	%rdx, %rsi	# tmp550,
	movl	%eax, %edi	# tmp551,
	call	force_reg	#
	movq	%rax, %rcx	#, D.25578
	movl	-180(%rbp), %edx	# unsignedp, tmp552
	movq	-168(%rbp), %rax	# to, tmp553
	movq	%rcx, %rsi	# D.25578,
	movq	%rax, %rdi	# tmp553,
	call	convert_move	#
	.loc 1 1125 0
	jmp	.L50	#
.L158:
	.loc 1 1128 0
	cmpl	$5, -148(%rbp)	#, from_mode
	jne	.L159	#,
	.loc 1 1128 0 is_stmt 0 discriminator 1
	cmpl	$2, -132(%rbp)	#, to_mode
	jne	.L159	#,
	.loc 1 1137 0 is_stmt 1
	movq	-176(%rbp), %rdx	# from, tmp554
	movl	-148(%rbp), %eax	# from_mode, tmp555
	movq	%rdx, %rsi	# tmp554,
	movl	%eax, %edi	# tmp555,
	call	force_reg	#
	movq	%rax, %rcx	#, D.25578
	movl	-180(%rbp), %edx	# unsignedp, tmp556
	movq	-168(%rbp), %rax	# to, tmp557
	movq	%rcx, %rsi	# D.25578,
	movq	%rax, %rdi	# tmp557,
	call	convert_move	#
	.loc 1 1138 0
	jmp	.L50	#
.L159:
	.loc 1 1141 0
	cmpl	$4, -148(%rbp)	#, from_mode
	jne	.L160	#,
	.loc 1 1141 0 is_stmt 0 discriminator 1
	cmpl	$3, -132(%rbp)	#, to_mode
	jne	.L160	#,
	.loc 1 1150 0 is_stmt 1
	movq	-176(%rbp), %rdx	# from, tmp558
	movl	-148(%rbp), %eax	# from_mode, tmp559
	movq	%rdx, %rsi	# tmp558,
	movl	%eax, %edi	# tmp559,
	call	force_reg	#
	movq	%rax, %rcx	#, D.25578
	movl	-180(%rbp), %edx	# unsignedp, tmp560
	movq	-168(%rbp), %rax	# to, tmp561
	movq	%rcx, %rsi	# D.25578,
	movq	%rax, %rdi	# tmp561,
	call	convert_move	#
	.loc 1 1151 0
	jmp	.L50	#
.L160:
	.loc 1 1154 0
	cmpl	$4, -148(%rbp)	#, from_mode
	jne	.L161	#,
	.loc 1 1154 0 is_stmt 0 discriminator 1
	cmpl	$2, -132(%rbp)	#, to_mode
	jne	.L161	#,
	.loc 1 1163 0 is_stmt 1
	movq	-176(%rbp), %rdx	# from, tmp562
	movl	-148(%rbp), %eax	# from_mode, tmp563
	movq	%rdx, %rsi	# tmp562,
	movl	%eax, %edi	# tmp563,
	call	force_reg	#
	movq	%rax, %rcx	#, D.25578
	movl	-180(%rbp), %edx	# unsignedp, tmp564
	movq	-168(%rbp), %rax	# to, tmp565
	movq	%rcx, %rsi	# D.25578,
	movq	%rax, %rdi	# tmp565,
	call	convert_move	#
	.loc 1 1164 0
	jmp	.L50	#
.L161:
	.loc 1 1167 0
	cmpl	$3, -148(%rbp)	#, from_mode
	jne	.L162	#,
	.loc 1 1167 0 is_stmt 0 discriminator 1
	cmpl	$2, -132(%rbp)	#, to_mode
	jne	.L162	#,
	.loc 1 1176 0 is_stmt 1
	movq	-176(%rbp), %rdx	# from, tmp566
	movl	-148(%rbp), %eax	# from_mode, tmp567
	movq	%rdx, %rsi	# tmp566,
	movl	%eax, %edi	# tmp567,
	call	force_reg	#
	movq	%rax, %rcx	#, D.25578
	movl	-180(%rbp), %edx	# unsignedp, tmp568
	movq	-168(%rbp), %rax	# to, tmp569
	movq	%rcx, %rsi	# D.25578,
	movq	%rax, %rdi	# tmp569,
	call	convert_move	#
	.loc 1 1177 0
	jmp	.L50	#
.L162:
	.loc 1 1180 0
	cmpl	$6, -148(%rbp)	#, from_mode
	jne	.L163	#,
	.loc 1 1180 0 is_stmt 0 discriminator 1
	cmpl	$5, -132(%rbp)	#, to_mode
	jne	.L163	#,
	.loc 1 1189 0 is_stmt 1
	movq	-176(%rbp), %rdx	# from, tmp570
	movl	-148(%rbp), %eax	# from_mode, tmp571
	movq	%rdx, %rsi	# tmp570,
	movl	%eax, %edi	# tmp571,
	call	force_reg	#
	movq	%rax, %rcx	#, D.25578
	movl	-180(%rbp), %edx	# unsignedp, tmp572
	movq	-168(%rbp), %rax	# to, tmp573
	movq	%rcx, %rsi	# D.25578,
	movq	%rax, %rdi	# tmp573,
	call	convert_move	#
	.loc 1 1190 0
	jmp	.L50	#
.L163:
	.loc 1 1193 0
	cmpl	$6, -148(%rbp)	#, from_mode
	jne	.L164	#,
	.loc 1 1193 0 is_stmt 0 discriminator 1
	cmpl	$4, -132(%rbp)	#, to_mode
	jne	.L164	#,
	.loc 1 1202 0 is_stmt 1
	movq	-176(%rbp), %rdx	# from, tmp574
	movl	-148(%rbp), %eax	# from_mode, tmp575
	movq	%rdx, %rsi	# tmp574,
	movl	%eax, %edi	# tmp575,
	call	force_reg	#
	movq	%rax, %rcx	#, D.25578
	movl	-180(%rbp), %edx	# unsignedp, tmp576
	movq	-168(%rbp), %rax	# to, tmp577
	movq	%rcx, %rsi	# D.25578,
	movq	%rax, %rdi	# tmp577,
	call	convert_move	#
	.loc 1 1203 0
	jmp	.L50	#
.L164:
	.loc 1 1206 0
	cmpl	$6, -148(%rbp)	#, from_mode
	jne	.L165	#,
	.loc 1 1206 0 is_stmt 0 discriminator 1
	cmpl	$3, -132(%rbp)	#, to_mode
	jne	.L165	#,
	.loc 1 1215 0 is_stmt 1
	movq	-176(%rbp), %rdx	# from, tmp578
	movl	-148(%rbp), %eax	# from_mode, tmp579
	movq	%rdx, %rsi	# tmp578,
	movl	%eax, %edi	# tmp579,
	call	force_reg	#
	movq	%rax, %rcx	#, D.25578
	movl	-180(%rbp), %edx	# unsignedp, tmp580
	movq	-168(%rbp), %rax	# to, tmp581
	movq	%rcx, %rsi	# D.25578,
	movq	%rax, %rdi	# tmp581,
	call	convert_move	#
	.loc 1 1216 0
	jmp	.L50	#
.L165:
	.loc 1 1219 0
	cmpl	$6, -148(%rbp)	#, from_mode
	jne	.L166	#,
	.loc 1 1219 0 is_stmt 0 discriminator 1
	cmpl	$2, -132(%rbp)	#, to_mode
	jne	.L166	#,
	.loc 1 1228 0 is_stmt 1
	movq	-176(%rbp), %rdx	# from, tmp582
	movl	-148(%rbp), %eax	# from_mode, tmp583
	movq	%rdx, %rsi	# tmp582,
	movl	%eax, %edi	# tmp583,
	call	force_reg	#
	movq	%rax, %rcx	#, D.25578
	movl	-180(%rbp), %edx	# unsignedp, tmp584
	movq	-168(%rbp), %rax	# to, tmp585
	movq	%rcx, %rsi	# D.25578,
	movq	%rax, %rdi	# tmp585,
	call	convert_move	#
	.loc 1 1229 0
	jmp	.L50	#
.L166:
	.loc 1 1235 0
	movl	-132(%rbp), %eax	# to_mode, to_mode.97
	cltq
	movzwl	mode_bitsize(%rax,%rax), %edx	# mode_bitsize, D.25577
	movl	-148(%rbp), %eax	# from_mode, from_mode.98
	cltq
	movzwl	mode_bitsize(%rax,%rax), %eax	# mode_bitsize, D.25577
	cmpw	%ax, %dx	# D.25577, D.25577
	jae	.L167	#,
.LBB15:
	.loc 1 1237 0
	movq	-176(%rbp), %rdx	# from, tmp588
	movl	-132(%rbp), %eax	# to_mode, tmp589
	movq	%rdx, %rsi	# tmp588,
	movl	%eax, %edi	# tmp589,
	call	gen_lowpart	#
	movq	%rax, %rdx	#, D.25578
	movl	-132(%rbp), %eax	# to_mode, tmp590
	movq	%rdx, %rsi	# D.25578,
	movl	%eax, %edi	# tmp590,
	call	force_reg	#
	movq	%rax, -24(%rbp)	# tmp591, temp
	.loc 1 1238 0
	movq	-24(%rbp), %rdx	# temp, tmp592
	movq	-168(%rbp), %rax	# to, tmp593
	movq	%rdx, %rsi	# tmp592,
	movq	%rax, %rdi	# tmp593,
	call	emit_move_insn	#
	.loc 1 1239 0
	jmp	.L50	#
.L167:
.LBE15:
	.loc 1 1243 0
	movl	$__FUNCTION__.14231, %edx	#,
	movl	$1243, %esi	#,
	movl	$.LC0, %edi	#,
	call	fancy_abort	#
.L50:
	.loc 1 1244 0
	addq	$184, %rsp	#,
	popq	%rbx	#
	popq	%rbp	#
	.cfi_def_cfa 7, 8
	ret
	.cfi_endproc
.LFE11:
	.size	convert_move, .-convert_move
	.globl	convert_to_mode
	.type	convert_to_mode, @function
convert_to_mode:
.LFB12:
	.loc 1 1261 0
	.cfi_startproc
	pushq	%rbp	#
	.cfi_def_cfa_offset 16
	.cfi_offset 6, -16
	movq	%rsp, %rbp	#,
	.cfi_def_cfa_register 6
	subq	$16, %rsp	#,
	movl	%edi, -4(%rbp)	# mode, mode
	movq	%rsi, -16(%rbp)	# x, x
	movl	%edx, -8(%rbp)	# unsignedp, unsignedp
	.loc 1 1262 0
	movl	-8(%rbp), %ecx	# unsignedp, tmp61
	movq	-16(%rbp), %rdx	# x, tmp62
	movl	-4(%rbp), %eax	# mode, tmp63
	movl	$0, %esi	#,
	movl	%eax, %edi	# tmp63,
	call	convert_modes	#
	.loc 1 1263 0
	leave
	.cfi_def_cfa 7, 8
	ret
	.cfi_endproc
.LFE12:
	.size	convert_to_mode, .-convert_to_mode
	.globl	convert_modes
	.type	convert_modes, @function
convert_modes:
.LFB13:
	.loc 1 1283 0
	.cfi_startproc
	pushq	%rbp	#
	.cfi_def_cfa_offset 16
	.cfi_offset 6, -16
	movq	%rsp, %rbp	#,
	.cfi_def_cfa_register 6
	subq	$64, %rsp	#,
	movl	%edi, -36(%rbp)	# mode, mode
	movl	%esi, -40(%rbp)	# oldmode, oldmode
	movq	%rdx, -48(%rbp)	# x, x
	movl	%ecx, -52(%rbp)	# unsignedp, unsignedp
	.loc 1 1289 0
	movq	-48(%rbp), %rax	# x, tmp118
	movzwl	(%rax), %eax	# x_6(D)->code, D.25591
	cmpw	$63, %ax	#, D.25591
	jne	.L171	#,
	.loc 1 1289 0 is_stmt 0 discriminator 1
	movq	-48(%rbp), %rax	# x, tmp119
	movzbl	3(%rax), %eax	# *x_6(D), D.25592
	andl	$16, %eax	#, D.25592
	testb	%al, %al	# D.25592
	je	.L171	#,
	.loc 1 1290 0 is_stmt 1
	movq	-48(%rbp), %rax	# x, tmp120
	movq	8(%rax), %rax	# x_6(D)->fld[0].rtx, D.25593
	movzbl	2(%rax), %eax	# _10->mode, D.25592
	movzbl	%al, %eax	# D.25592, D.25594
	cltq
	movzbl	mode_size(%rax), %edx	# mode_size, D.25592
	movl	-36(%rbp), %eax	# mode, mode.99
	cltq
	movzbl	mode_size(%rax), %eax	# mode_size, D.25592
	cmpb	%al, %dl	# D.25592, D.25592
	jb	.L171	#,
	.loc 1 1291 0
	movq	-48(%rbp), %rax	# x, tmp123
	movzbl	3(%rax), %eax	# *x_6(D), tmp126
	shrb	$2, %al	#, D.25595
	andl	$1, %eax	#, D.25595
	movzbl	%al, %eax	# D.25595, D.25594
	cmpl	-52(%rbp), %eax	# unsignedp, D.25594
	jne	.L171	#,
	.loc 1 1292 0
	movq	-48(%rbp), %rdx	# x, tmp127
	movl	-36(%rbp), %eax	# mode, tmp128
	movq	%rdx, %rsi	# tmp127,
	movl	%eax, %edi	# tmp128,
	call	gen_lowpart	#
	movq	%rax, -48(%rbp)	# tmp129, x
.L171:
	.loc 1 1294 0
	movq	-48(%rbp), %rax	# x, tmp130
	movzbl	2(%rax), %eax	# x_2->mode, D.25592
	testb	%al, %al	# D.25592
	je	.L172	#,
	.loc 1 1295 0
	movq	-48(%rbp), %rax	# x, tmp131
	movzbl	2(%rax), %eax	# x_2->mode, D.25592
	movzbl	%al, %eax	# D.25592, tmp132
	movl	%eax, -40(%rbp)	# tmp132, oldmode
.L172:
	.loc 1 1297 0
	movl	-36(%rbp), %eax	# mode, tmp133
	cmpl	-40(%rbp), %eax	# oldmode, tmp133
	jne	.L173	#,
	.loc 1 1298 0
	movq	-48(%rbp), %rax	# x, D.25590
	jmp	.L174	#
.L173:
	.loc 1 1306 0
	cmpl	$0, -52(%rbp)	#, unsignedp
	je	.L175	#,
	.loc 1 1306 0 is_stmt 0 discriminator 1
	movl	-36(%rbp), %eax	# mode, mode.100
	cltq
	movl	mode_class(,%rax,4), %eax	# mode_class, D.25596
	cmpl	$1, %eax	#, D.25596
	jne	.L175	#,
	.loc 1 1307 0 is_stmt 1
	movl	-36(%rbp), %eax	# mode, mode.101
	cltq
	movzwl	mode_bitsize(%rax,%rax), %eax	# mode_bitsize, D.25591
	cmpw	$128, %ax	#, D.25591
	jne	.L175	#,
	.loc 1 1308 0
	movq	-48(%rbp), %rax	# x, tmp136
	movzwl	(%rax), %eax	# x_2->code, D.25591
	cmpw	$54, %ax	#, D.25591
	jne	.L175	#,
	.loc 1 1308 0 is_stmt 0 discriminator 1
	movq	-48(%rbp), %rax	# x, tmp137
	movq	8(%rax), %rax	# x_2->fld[0].rtwint, D.25597
	testq	%rax, %rax	# D.25597
	jns	.L175	#,
.LBB16:
	.loc 1 1310 0 is_stmt 1
	movq	-48(%rbp), %rax	# x, tmp138
	movq	8(%rax), %rax	# x_2->fld[0].rtwint, tmp139
	movq	%rax, -24(%rbp)	# tmp139, val
	.loc 1 1312 0
	cmpl	$0, -40(%rbp)	#, oldmode
	je	.L176	#,
	.loc 1 1313 0
	movl	-40(%rbp), %eax	# oldmode, oldmode.102
	cltq
	movzwl	mode_bitsize(%rax,%rax), %eax	# mode_bitsize, D.25591
	cmpw	$63, %ax	#, D.25591
	ja	.L176	#,
.LBB17:
	.loc 1 1315 0
	movl	-40(%rbp), %eax	# oldmode, oldmode.103
	cltq
	movzwl	mode_bitsize(%rax,%rax), %eax	# mode_bitsize, D.25591
	movzwl	%ax, %eax	# D.25591, tmp142
	movl	%eax, -32(%rbp)	# tmp142, width
	.loc 1 1318 0
	movl	-32(%rbp), %eax	# width, tmp143
	movl	$1, %edx	#, tmp144
	movl	%eax, %ecx	# tmp143, tmp182
	salq	%cl, %rdx	# tmp182, D.25597
	movq	%rdx, %rax	# D.25597, D.25597
	subq	$1, %rax	#, D.25597
	andq	%rax, -24(%rbp)	# D.25597, val
.L176:
.LBE17:
	.loc 1 1321 0
	movl	-36(%rbp), %edx	# mode, tmp145
	movq	-24(%rbp), %rax	# val, tmp146
	movl	$0, %esi	#,
	movq	%rax, %rdi	# tmp146,
	call	immed_double_const	#
	jmp	.L174	#
.L175:
.LBE16:
	.loc 1 1329 0
	movq	-48(%rbp), %rax	# x, tmp147
	movzwl	(%rax), %eax	# x_2->code, D.25591
	cmpw	$54, %ax	#, D.25591
	jne	.L177	#,
	.loc 1 1330 0
	movl	-36(%rbp), %eax	# mode, mode.104
	cltq
	movzwl	mode_bitsize(%rax,%rax), %eax	# mode_bitsize, D.25591
	cmpw	$64, %ax	#, D.25591
	jbe	.L178	#,
.L177:
	.loc 1 1331 0
	movl	-36(%rbp), %eax	# mode, mode.105
	cltq
	movl	mode_class(,%rax,4), %eax	# mode_class, D.25596
	cmpl	$1, %eax	#, D.25596
	jne	.L179	#,
	.loc 1 1332 0
	movl	-40(%rbp), %eax	# oldmode, oldmode.106
	cltq
	movl	mode_class(,%rax,4), %eax	# mode_class, D.25596
	cmpl	$1, %eax	#, D.25596
	jne	.L179	#,
	.loc 1 1333 0
	movq	-48(%rbp), %rax	# x, tmp151
	movzwl	(%rax), %eax	# x_2->code, D.25591
	cmpw	$55, %ax	#, D.25591
	je	.L178	#,
	.loc 1 1334 0
	movl	-36(%rbp), %eax	# mode, mode.107
	cltq
	movzbl	mode_size(%rax), %edx	# mode_size, D.25592
	movl	-40(%rbp), %eax	# oldmode, oldmode.108
	cltq
	movzbl	mode_size(%rax), %eax	# mode_size, D.25592
	cmpb	%al, %dl	# D.25592, D.25592
	ja	.L179	#,
	.loc 1 1335 0
	movq	-48(%rbp), %rax	# x, tmp154
	movzwl	(%rax), %eax	# x_2->code, D.25591
	cmpw	$66, %ax	#, D.25591
	jne	.L180	#,
	.loc 1 1335 0 is_stmt 0 discriminator 1
	movq	-48(%rbp), %rax	# x, tmp155
	movzbl	3(%rax), %eax	# *x_2, D.25592
	andl	$8, %eax	#, D.25592
	testb	%al, %al	# D.25592
	jne	.L180	#,
	.loc 1 1336 0 is_stmt 1
	movl	-36(%rbp), %eax	# mode, mode.109
	cltq
	movzbl	direct_load(%rax), %eax	# direct_load, D.25598
	testb	%al, %al	# D.25598
	jne	.L178	#,
.L180:
	.loc 1 1337 0
	movq	-48(%rbp), %rax	# x, tmp157
	movzwl	(%rax), %eax	# x_2->code, D.25591
	cmpw	$61, %ax	#, D.25591
	jne	.L179	#,
.L178:
	.loc 1 1344 0
	movq	-48(%rbp), %rax	# x, tmp158
	movzwl	(%rax), %eax	# x_2->code, D.25591
	cmpw	$54, %ax	#, D.25591
	jne	.L181	#,
	.loc 1 1344 0 is_stmt 0 discriminator 1
	cmpl	$0, -40(%rbp)	#, oldmode
	je	.L181	#,
	.loc 1 1345 0 is_stmt 1
	movl	-36(%rbp), %eax	# mode, mode.110
	cltq
	movzbl	mode_size(%rax), %edx	# mode_size, D.25592
	movl	-40(%rbp), %eax	# oldmode, oldmode.111
	cltq
	movzbl	mode_size(%rax), %eax	# mode_size, D.25592
	cmpb	%al, %dl	# D.25592, D.25592
	jbe	.L181	#,
.LBB18:
	.loc 1 1347 0
	movq	-48(%rbp), %rax	# x, tmp161
	movq	8(%rax), %rax	# x_2->fld[0].rtwint, tmp162
	movq	%rax, -16(%rbp)	# tmp162, val
	.loc 1 1348 0
	movl	-40(%rbp), %eax	# oldmode, oldmode.112
	cltq
	movzwl	mode_bitsize(%rax,%rax), %eax	# mode_bitsize, D.25591
	movzwl	%ax, %eax	# D.25591, tmp164
	movl	%eax, -28(%rbp)	# tmp164, width
	.loc 1 1352 0
	movl	-28(%rbp), %eax	# width, tmp165
	movl	$1, %edx	#, tmp166
	movl	%eax, %ecx	# tmp165, tmp184
	salq	%cl, %rdx	# tmp184, D.25597
	movq	%rdx, %rax	# D.25597, D.25597
	subq	$1, %rax	#, D.25597
	andq	%rax, -16(%rbp)	# D.25597, val
	.loc 1 1353 0
	cmpl	$0, -52(%rbp)	#, unsignedp
	jne	.L182	#,
	.loc 1 1354 0
	movl	-28(%rbp), %eax	# width, tmp167
	subl	$1, %eax	#, D.25594
	movq	-16(%rbp), %rdx	# val, tmp168
	movl	%eax, %ecx	# D.25594, tmp186
	sarq	%cl, %rdx	# tmp186, D.25597
	movq	%rdx, %rax	# D.25597, D.25597
	andl	$1, %eax	#, D.25597
	testq	%rax, %rax	# D.25597
	je	.L182	#,
	.loc 1 1355 0
	movl	-28(%rbp), %eax	# width, tmp169
	movq	$-1, %rdx	#, tmp170
	movl	%eax, %ecx	# tmp169, tmp188
	salq	%cl, %rdx	# tmp188, D.25597
	movq	%rdx, %rax	# D.25597, D.25597
	orq	%rax, -16(%rbp)	# D.25597, val
.L182:
	.loc 1 1357 0
	movl	-36(%rbp), %edx	# mode, tmp171
	movq	-16(%rbp), %rax	# val, tmp172
	movl	%edx, %esi	# tmp171,
	movq	%rax, %rdi	# tmp172,
	call	trunc_int_for_mode	#
	movq	%rax, %rsi	# D.25597,
	movl	$0, %edi	#,
	call	gen_rtx_CONST_INT	#
	jmp	.L174	#
.L181:
.LBE18:
	.loc 1 1360 0
	movq	-48(%rbp), %rdx	# x, tmp173
	movl	-36(%rbp), %eax	# mode, tmp174
	movq	%rdx, %rsi	# tmp173,
	movl	%eax, %edi	# tmp174,
	call	gen_lowpart	#
	jmp	.L174	#
.L179:
	.loc 1 1363 0
	movl	-36(%rbp), %eax	# mode, tmp175
	movl	%eax, %edi	# tmp175,
	call	gen_reg_rtx	#
	movq	%rax, -8(%rbp)	# tmp176, temp
	.loc 1 1364 0
	movl	-52(%rbp), %edx	# unsignedp, tmp177
	movq	-48(%rbp), %rcx	# x, tmp178
	movq	-8(%rbp), %rax	# temp, tmp179
	movq	%rcx, %rsi	# tmp178,
	movq	%rax, %rdi	# tmp179,
	call	convert_move	#
	.loc 1 1365 0
	movq	-8(%rbp), %rax	# temp, D.25590
.L174:
	.loc 1 1366 0
	leave
	.cfi_def_cfa 7, 8
	ret
	.cfi_endproc
.LFE13:
	.size	convert_modes, .-convert_modes
	.globl	move_by_pieces
	.type	move_by_pieces, @function
move_by_pieces:
.LFB14:
	.loc 1 1393 0
	.cfi_startproc
	pushq	%rbp	#
	.cfi_def_cfa_offset 16
	.cfi_offset 6, -16
	movq	%rsp, %rbp	#,
	.cfi_def_cfa_register 6
	subq	$144, %rsp	#,
	movq	%rdi, -120(%rbp)	# to, to
	movq	%rsi, -128(%rbp)	# from, from
	movq	%rdx, -136(%rbp)	# len, len
	movl	%ecx, -140(%rbp)	# align, align
	.loc 1 1395 0
	movq	-128(%rbp), %rax	# from, tmp118
	movq	8(%rax), %rax	# from_15(D)->fld[0].rtx, tmp119
	movq	%rax, -88(%rbp)	# tmp119, from_addr
	.loc 1 1396 0
	movl	target_flags(%rip), %eax	# target_flags, target_flags.114
	andl	$33554432, %eax	#, D.25599
	testl	%eax, %eax	# D.25599
	je	.L184	#,
	.loc 1 1396 0 is_stmt 0 discriminator 1
	movl	$9, %eax	#, iftmp.113
	jmp	.L185	#
.L184:
	.loc 1 1396 0 discriminator 2
	movl	$5, %eax	#, iftmp.113
.L185:
	.loc 1 1396 0 discriminator 3
	movl	%eax, -112(%rbp)	# iftmp.113, max_size
	.loc 1 1397 0 is_stmt 1 discriminator 3
	movl	$0, -108(%rbp)	#, mode
	.loc 1 1400 0 discriminator 3
	movq	$0, -24(%rbp)	#, data.offset
	.loc 1 1401 0 discriminator 3
	movq	-88(%rbp), %rax	# from_addr, tmp120
	movq	%rax, -48(%rbp)	# tmp120, data.from_addr
	.loc 1 1402 0 discriminator 3
	cmpq	$0, -120(%rbp)	#, to
	je	.L186	#,
	.loc 1 1404 0
	movq	-120(%rbp), %rax	# to, tmp121
	movq	8(%rax), %rax	# to_23(D)->fld[0].rtx, tmp122
	movq	%rax, -96(%rbp)	# tmp122, to_addr
	.loc 1 1405 0
	movq	-120(%rbp), %rax	# to, tmp123
	movq	%rax, -80(%rbp)	# tmp123, data.to
	.loc 1 1407 0
	movq	-96(%rbp), %rax	# to_addr, tmp124
	movzwl	(%rax), %eax	# to_addr_24->code, D.25600
	.loc 1 1408 0
	cmpw	$97, %ax	#, D.25600
	je	.L187	#,
	.loc 1 1407 0
	movq	-96(%rbp), %rax	# to_addr, tmp125
	movzwl	(%rax), %eax	# to_addr_24->code, D.25600
	cmpw	$96, %ax	#, D.25600
	je	.L187	#,
	.loc 1 1408 0
	movq	-96(%rbp), %rax	# to_addr, tmp126
	movzwl	(%rax), %eax	# to_addr_24->code, D.25600
	cmpw	$99, %ax	#, D.25600
	je	.L187	#,
	.loc 1 1408 0 is_stmt 0 discriminator 1
	movq	-96(%rbp), %rax	# to_addr, tmp127
	movzwl	(%rax), %eax	# to_addr_24->code, D.25600
	cmpw	$98, %ax	#, D.25600
	jne	.L188	#,
.L187:
	movl	$1, %eax	#, iftmp.115
	jmp	.L189	#
.L188:
	.loc 1 1408 0 discriminator 2
	movl	$0, %eax	#, iftmp.115
.L189:
	.loc 1 1407 0 is_stmt 1
	movl	%eax, -64(%rbp)	# iftmp.115, data.autinc_to
	.loc 1 1410 0
	movq	-96(%rbp), %rax	# to_addr, tmp128
	movzwl	(%rax), %eax	# to_addr_24->code, D.25600
	cmpw	$96, %ax	#, D.25600
	je	.L190	#,
	.loc 1 1410 0 is_stmt 0 discriminator 2
	movq	-96(%rbp), %rax	# to_addr, tmp129
	movzwl	(%rax), %eax	# to_addr_24->code, D.25600
	cmpw	$98, %ax	#, D.25600
	jne	.L191	#,
.L190:
	.loc 1 1410 0 discriminator 1
	movl	$1, %eax	#, iftmp.116
	jmp	.L192	#
.L191:
	.loc 1 1410 0 discriminator 3
	movl	$0, %eax	#, iftmp.116
.L192:
	.loc 1 1410 0 discriminator 4
	movl	%eax, -16(%rbp)	# iftmp.116, data.reverse
	jmp	.L193	#
.L186:
	.loc 1 1414 0 is_stmt 1
	movq	$0, -96(%rbp)	#, to_addr
	.loc 1 1415 0
	movq	$0, -80(%rbp)	#, data.to
	.loc 1 1416 0
	movl	$1, -64(%rbp)	#, data.autinc_to
	.loc 1 1418 0
	movl	$1, -16(%rbp)	#, data.reverse
.L193:
	.loc 1 1423 0
	movq	-96(%rbp), %rax	# to_addr, tmp130
	movq	%rax, -72(%rbp)	# tmp130, data.to_addr
	.loc 1 1424 0
	movq	-128(%rbp), %rax	# from, tmp131
	movq	%rax, -56(%rbp)	# tmp131, data.from
	.loc 1 1426 0
	movq	-88(%rbp), %rax	# from_addr, tmp132
	movzwl	(%rax), %eax	# from_addr_16->code, D.25600
	.loc 1 1428 0
	cmpw	$97, %ax	#, D.25600
	je	.L194	#,
	.loc 1 1426 0
	movq	-88(%rbp), %rax	# from_addr, tmp133
	movzwl	(%rax), %eax	# from_addr_16->code, D.25600
	cmpw	$96, %ax	#, D.25600
	je	.L194	#,
	.loc 1 1427 0
	movq	-88(%rbp), %rax	# from_addr, tmp134
	movzwl	(%rax), %eax	# from_addr_16->code, D.25600
	cmpw	$99, %ax	#, D.25600
	je	.L194	#,
	.loc 1 1428 0
	movq	-88(%rbp), %rax	# from_addr, tmp135
	movzwl	(%rax), %eax	# from_addr_16->code, D.25600
	cmpw	$98, %ax	#, D.25600
	jne	.L195	#,
.L194:
	.loc 1 1428 0 is_stmt 0 discriminator 1
	movl	$1, %eax	#, iftmp.117
	jmp	.L196	#
.L195:
	.loc 1 1428 0 discriminator 2
	movl	$0, %eax	#, iftmp.117
.L196:
	.loc 1 1426 0 is_stmt 1
	movl	%eax, -40(%rbp)	# iftmp.117, data.autinc_from
	.loc 1 1430 0
	movl	$0, -36(%rbp)	#, data.explicit_inc_from
	.loc 1 1431 0
	movl	$0, -60(%rbp)	#, data.explicit_inc_to
	.loc 1 1432 0
	movl	-16(%rbp), %eax	# data.reverse, D.25599
	testl	%eax, %eax	# D.25599
	je	.L197	#,
	.loc 1 1432 0 is_stmt 0 discriminator 1
	movq	-136(%rbp), %rax	# len, len.118
	movq	%rax, -24(%rbp)	# len.118, data.offset
.L197:
	.loc 1 1433 0 is_stmt 1
	movq	-136(%rbp), %rax	# len, tmp136
	movq	%rax, -32(%rbp)	# tmp136, data.len
	.loc 1 1438 0
	movl	-40(%rbp), %eax	# data.autinc_from, D.25599
	testl	%eax, %eax	# D.25599
	je	.L198	#,
	.loc 1 1438 0 is_stmt 0 discriminator 1
	movl	-64(%rbp), %eax	# data.autinc_to, D.25599
	testl	%eax, %eax	# D.25599
	jne	.L215	#,
.L198:
	.loc 1 1439 0 is_stmt 1
	movl	-140(%rbp), %edx	# align, tmp137
	movq	-136(%rbp), %rax	# len, tmp138
	movl	%edx, %esi	# tmp137,
	movq	%rax, %rdi	# tmp138,
	call	move_by_pieces_ninsns	#
	cmpq	$2, %rax	#, D.25601
	jbe	.L215	#,
	.loc 1 1442 0
	movl	class_narrowest_mode+4(%rip), %eax	# class_narrowest_mode, tmp139
	movl	%eax, -104(%rbp)	# tmp139, tmode
	jmp	.L200	#
.L202:
	.loc 1 1444 0
	movl	-104(%rbp), %eax	# tmode, tmode.119
	cltq
	movzbl	mode_size(%rax), %eax	# mode_size, D.25602
	movzbl	%al, %eax	# D.25602, D.25603
	cmpl	-112(%rbp), %eax	# max_size, D.25603
	jae	.L201	#,
	.loc 1 1445 0
	movl	-104(%rbp), %eax	# tmode, tmp141
	movl	%eax, -108(%rbp)	# tmp141, mode
.L201:
	.loc 1 1443 0
	movl	-104(%rbp), %eax	# tmode, tmode.120
	cltq
	movzbl	mode_wider_mode(%rax), %eax	# mode_wider_mode, D.25602
	movzbl	%al, %eax	# D.25602, tmp143
	movl	%eax, -104(%rbp)	# tmp143, tmode
.L200:
	.loc 1 1442 0 discriminator 1
	cmpl	$0, -104(%rbp)	#, tmode
	jne	.L202	#,
	.loc 1 1459 0
	movl	-40(%rbp), %eax	# data.autinc_from, D.25599
	testl	%eax, %eax	# D.25599
	jne	.L216	#,
	.loc 1 1459 0 is_stmt 0 discriminator 1
	movq	-88(%rbp), %rax	# from_addr, tmp144
	movzwl	(%rax), %eax	# from_addr_16->code, D.25600
	cmpw	$67, %ax	#, D.25600
	je	.L204	#,
	movq	-88(%rbp), %rax	# from_addr, tmp145
	movzwl	(%rax), %eax	# from_addr_16->code, D.25600
	cmpw	$68, %ax	#, D.25600
	je	.L204	#,
	movq	-88(%rbp), %rax	# from_addr, tmp146
	movzwl	(%rax), %eax	# from_addr_16->code, D.25600
	cmpw	$54, %ax	#, D.25600
	je	.L204	#,
	movq	-88(%rbp), %rax	# from_addr, tmp147
	movzwl	(%rax), %eax	# from_addr_16->code, D.25600
	cmpw	$55, %ax	#, D.25600
	je	.L204	#,
	movq	-88(%rbp), %rax	# from_addr, tmp148
	movzwl	(%rax), %eax	# from_addr_16->code, D.25600
	cmpw	$58, %ax	#, D.25600
	je	.L204	#,
	movq	-88(%rbp), %rax	# from_addr, tmp149
	movzwl	(%rax), %eax	# from_addr_16->code, D.25600
	cmpw	$134, %ax	#, D.25600
	je	.L204	#,
	movq	-88(%rbp), %rax	# from_addr, tmp150
	movzwl	(%rax), %eax	# from_addr_16->code, D.25600
	cmpw	$56, %ax	#, D.25600
	je	.L204	#,
	movq	-88(%rbp), %rax	# from_addr, tmp151
	movzwl	(%rax), %eax	# from_addr_16->code, D.25600
	cmpw	$140, %ax	#, D.25600
	jne	.L216	#,
.L204:
	.loc 1 1460 0 is_stmt 1
	movq	-88(%rbp), %rax	# from_addr, tmp152
	movq	%rax, %rdi	# tmp152,
	call	copy_addr_to_reg	#
	movq	%rax, -48(%rbp)	# D.25604, data.from_addr
.L216:
	.loc 1 1473 0
	movl	-64(%rbp), %eax	# data.autinc_to, D.25599
	testl	%eax, %eax	# D.25599
	jne	.L215	#,
	.loc 1 1473 0 is_stmt 0 discriminator 1
	movq	-96(%rbp), %rax	# to_addr, tmp153
	movzwl	(%rax), %eax	# to_addr_1->code, D.25600
	cmpw	$67, %ax	#, D.25600
	je	.L205	#,
	movq	-96(%rbp), %rax	# to_addr, tmp154
	movzwl	(%rax), %eax	# to_addr_1->code, D.25600
	cmpw	$68, %ax	#, D.25600
	je	.L205	#,
	movq	-96(%rbp), %rax	# to_addr, tmp155
	movzwl	(%rax), %eax	# to_addr_1->code, D.25600
	cmpw	$54, %ax	#, D.25600
	je	.L205	#,
	movq	-96(%rbp), %rax	# to_addr, tmp156
	movzwl	(%rax), %eax	# to_addr_1->code, D.25600
	cmpw	$55, %ax	#, D.25600
	je	.L205	#,
	movq	-96(%rbp), %rax	# to_addr, tmp157
	movzwl	(%rax), %eax	# to_addr_1->code, D.25600
	cmpw	$58, %ax	#, D.25600
	je	.L205	#,
	movq	-96(%rbp), %rax	# to_addr, tmp158
	movzwl	(%rax), %eax	# to_addr_1->code, D.25600
	cmpw	$134, %ax	#, D.25600
	je	.L205	#,
	movq	-96(%rbp), %rax	# to_addr, tmp159
	movzwl	(%rax), %eax	# to_addr_1->code, D.25600
	cmpw	$56, %ax	#, D.25600
	je	.L205	#,
	movq	-96(%rbp), %rax	# to_addr, tmp160
	movzwl	(%rax), %eax	# to_addr_1->code, D.25600
	cmpw	$140, %ax	#, D.25600
	jne	.L215	#,
.L205:
	.loc 1 1474 0 is_stmt 1
	movq	-96(%rbp), %rax	# to_addr, tmp161
	movq	%rax, %rdi	# tmp161,
	call	copy_addr_to_reg	#
	movq	%rax, -72(%rbp)	# D.25604, data.to_addr
.L215:
	.loc 1 1479 0
	movl	$128, -140(%rbp)	#, align
	.loc 1 1484 0
	jmp	.L206	#
.L213:
	.loc 1 1486 0
	movl	class_narrowest_mode+4(%rip), %eax	# class_narrowest_mode, tmp162
	movl	%eax, -104(%rbp)	# tmp162, tmode
	jmp	.L207	#
.L209:
	.loc 1 1488 0
	movl	-104(%rbp), %eax	# tmode, tmode.123
	cltq
	movzbl	mode_size(%rax), %eax	# mode_size, D.25602
	movzbl	%al, %eax	# D.25602, D.25603
	cmpl	-112(%rbp), %eax	# max_size, D.25603
	jae	.L208	#,
	.loc 1 1489 0
	movl	-104(%rbp), %eax	# tmode, tmp164
	movl	%eax, -108(%rbp)	# tmp164, mode
.L208:
	.loc 1 1487 0
	movl	-104(%rbp), %eax	# tmode, tmode.124
	cltq
	movzbl	mode_wider_mode(%rax), %eax	# mode_wider_mode, D.25602
	movzbl	%al, %eax	# D.25602, tmp166
	movl	%eax, -104(%rbp)	# tmp166, tmode
.L207:
	.loc 1 1486 0 discriminator 1
	cmpl	$0, -104(%rbp)	#, tmode
	jne	.L209	#,
	.loc 1 1491 0
	cmpl	$0, -108(%rbp)	#, mode
	jne	.L210	#,
	.loc 1 1492 0
	jmp	.L211	#
.L210:
	.loc 1 1494 0
	movq	optab_table+240(%rip), %rax	# optab_table, D.25605
	movl	-108(%rbp), %edx	# mode, mode.125
	movslq	%edx, %rdx	# mode.125, tmp167
	salq	$4, %rdx	#, tmp168
	addq	%rdx, %rax	# tmp168, tmp169
	movl	8(%rax), %eax	# _86->handlers[mode.125_87].insn_code, tmp170
	movl	%eax, -100(%rbp)	# tmp170, icode
	.loc 1 1495 0
	cmpl	$1317, -100(%rbp)	#, icode
	je	.L212	#,
	.loc 1 1495 0 is_stmt 0 discriminator 1
	movl	-108(%rbp), %eax	# mode, tmp171
	movl	%eax, %edi	# tmp171,
	call	get_mode_alignment	#
	cmpl	-140(%rbp), %eax	# align, D.25603
	ja	.L212	#,
	.loc 1 1496 0 is_stmt 1
	movl	-100(%rbp), %eax	# icode, icode.126
	movslq	%eax, %rdx	# icode.126, tmp172
	movq	%rdx, %rax	# tmp172, tmp173
	salq	$2, %rax	#, tmp173
	addq	%rdx, %rax	# tmp172, tmp173
	salq	$3, %rax	#, tmp174
	addq	$insn_data+16, %rax	#, tmp175
	movq	(%rax), %rax	# insn_data[icode.126_90].genfun, D.25606
	leaq	-80(%rbp), %rdx	#, tmp176
	movl	-108(%rbp), %ecx	# mode, tmp177
	movl	%ecx, %esi	# tmp177,
	movq	%rax, %rdi	# D.25606,
	call	move_by_pieces_1	#
.L212:
	.loc 1 1498 0
	movl	-108(%rbp), %eax	# mode, mode.127
	cltq
	movzbl	mode_size(%rax), %eax	# mode_size, D.25602
	movzbl	%al, %eax	# D.25602, tmp179
	movl	%eax, -112(%rbp)	# tmp179, max_size
.L206:
	.loc 1 1484 0 discriminator 1
	cmpl	$1, -112(%rbp)	#, max_size
	ja	.L213	#,
.L211:
	.loc 1 1502 0
	movq	-32(%rbp), %rax	# data.len, D.25601
	testq	%rax, %rax	# D.25601
	je	.L183	#,
	.loc 1 1503 0
	movl	$__FUNCTION__.14315, %edx	#,
	movl	$1503, %esi	#,
	movl	$.LC0, %edi	#,
	call	fancy_abort	#
.L183:
	.loc 1 1504 0
	leave
	.cfi_def_cfa 7, 8
	ret
	.cfi_endproc
.LFE14:
	.size	move_by_pieces, .-move_by_pieces
	.type	move_by_pieces_ninsns, @function
move_by_pieces_ninsns:
.LFB15:
	.loc 1 1513 0
	.cfi_startproc
	pushq	%rbp	#
	.cfi_def_cfa_offset 16
	.cfi_offset 6, -16
	movq	%rsp, %rbp	#,
	.cfi_def_cfa_register 6
	pushq	%rbx	#
	subq	$56, %rsp	#,
	.cfi_offset 3, -24
	movq	%rdi, -56(%rbp)	# l, l
	movl	%esi, -60(%rbp)	# align, align
	.loc 1 1514 0
	movq	$0, -32(%rbp)	#, n_insns
	.loc 1 1515 0
	movq	$17, -24(%rbp)	#, max_size
	.loc 1 1519 0
	movl	$128, -40(%rbp)	#, align
	.loc 1 1521 0
	jmp	.L218	#
.L225:
.LBB19:
	.loc 1 1523 0
	movl	$0, -48(%rbp)	#, mode
	.loc 1 1526 0
	movl	class_narrowest_mode+4(%rip), %eax	# class_narrowest_mode, tmp78
	movl	%eax, -44(%rbp)	# tmp78, tmode
	jmp	.L219	#
.L221:
	.loc 1 1528 0
	movl	-44(%rbp), %eax	# tmode, tmode.128
	cltq
	movzbl	mode_size(%rax), %eax	# mode_size, D.25607
	movzbl	%al, %eax	# D.25607, D.25608
	cmpq	-24(%rbp), %rax	# max_size, D.25608
	jae	.L220	#,
	.loc 1 1529 0
	movl	-44(%rbp), %eax	# tmode, tmp80
	movl	%eax, -48(%rbp)	# tmp80, mode
.L220:
	.loc 1 1527 0
	movl	-44(%rbp), %eax	# tmode, tmode.129
	cltq
	movzbl	mode_wider_mode(%rax), %eax	# mode_wider_mode, D.25607
	movzbl	%al, %eax	# D.25607, tmp82
	movl	%eax, -44(%rbp)	# tmp82, tmode
.L219:
	.loc 1 1526 0 discriminator 1
	cmpl	$0, -44(%rbp)	#, tmode
	jne	.L221	#,
	.loc 1 1531 0
	cmpl	$0, -48(%rbp)	#, mode
	jne	.L222	#,
	.loc 1 1532 0
	jmp	.L223	#
.L222:
	.loc 1 1534 0
	movq	optab_table+240(%rip), %rax	# optab_table, D.25609
	movl	-48(%rbp), %edx	# mode, mode.130
	movslq	%edx, %rdx	# mode.130, tmp83
	salq	$4, %rdx	#, tmp84
	addq	%rdx, %rax	# tmp84, tmp85
	movl	8(%rax), %eax	# _22->handlers[mode.130_23].insn_code, tmp86
	movl	%eax, -36(%rbp)	# tmp86, icode
	.loc 1 1535 0
	cmpl	$1317, -36(%rbp)	#, icode
	je	.L224	#,
	.loc 1 1535 0 is_stmt 0 discriminator 1
	movl	-48(%rbp), %eax	# mode, tmp87
	movl	%eax, %edi	# tmp87,
	call	get_mode_alignment	#
	cmpl	-40(%rbp), %eax	# align, D.25610
	ja	.L224	#,
	.loc 1 1536 0 is_stmt 1
	movl	-48(%rbp), %eax	# mode, mode.131
	cltq
	movzbl	mode_size(%rax), %eax	# mode_size, D.25607
	movzbl	%al, %ebx	# D.25607, D.25608
	movq	-56(%rbp), %rax	# l, tmp91
	movl	$0, %edx	#, tmp90
	divq	%rbx	# D.25608
	addq	%rax, -32(%rbp)	# D.25608, n_insns
	movl	-48(%rbp), %eax	# mode, mode.132
	cltq
	movzbl	mode_size(%rax), %eax	# mode_size, D.25607
	movzbl	%al, %ecx	# D.25607, D.25608
	movq	-56(%rbp), %rax	# l, tmp94
	movl	$0, %edx	#, tmp95
	divq	%rcx	# D.25608
	movq	%rdx, -56(%rbp)	# tmp95, l
.L224:
	.loc 1 1538 0
	movl	-48(%rbp), %eax	# mode, mode.133
	cltq
	movzbl	mode_size(%rax), %eax	# mode_size, D.25607
	movzbl	%al, %eax	# D.25607, tmp98
	movq	%rax, -24(%rbp)	# tmp98, max_size
.L218:
.LBE19:
	.loc 1 1521 0 discriminator 1
	cmpq	$1, -24(%rbp)	#, max_size
	ja	.L225	#,
.L223:
	.loc 1 1541 0
	cmpq	$0, -56(%rbp)	#, l
	je	.L226	#,
	.loc 1 1542 0
	movl	$__FUNCTION__.14331, %edx	#,
	movl	$1542, %esi	#,
	movl	$.LC0, %edi	#,
	call	fancy_abort	#
.L226:
	.loc 1 1543 0
	movq	-32(%rbp), %rax	# n_insns, D.25608
	.loc 1 1544 0
	addq	$56, %rsp	#,
	popq	%rbx	#
	popq	%rbp	#
	.cfi_def_cfa 7, 8
	ret
	.cfi_endproc
.LFE15:
	.size	move_by_pieces_ninsns, .-move_by_pieces_ninsns
	.type	move_by_pieces_1, @function
move_by_pieces_1:
.LFB16:
	.loc 1 1555 0
	.cfi_startproc
	pushq	%rbp	#
	.cfi_def_cfa_offset 16
	.cfi_offset 6, -16
	movq	%rsp, %rbp	#,
	.cfi_def_cfa_register 6
	subq	$64, %rsp	#,
	movq	%rdi, -40(%rbp)	# genfun, genfun
	movl	%esi, -44(%rbp)	# mode, mode
	movq	%rdx, -56(%rbp)	# data, data
	.loc 1 1556 0
	movl	-44(%rbp), %eax	# mode, mode.134
	cltq
	movzbl	mode_size(%rax), %eax	# mode_size, D.25613
	movzbl	%al, %eax	# D.25613, tmp90
	movl	%eax, -20(%rbp)	# tmp90, size
	.loc 1 1557 0
	movq	$0, -16(%rbp)	#, to1
	.loc 1 1559 0
	jmp	.L229	#
.L238:
	.loc 1 1561 0
	movq	-56(%rbp), %rax	# data, tmp91
	movl	64(%rax), %eax	# data_9(D)->reverse, D.25615
	testl	%eax, %eax	# D.25615
	je	.L230	#,
	.loc 1 1562 0
	movq	-56(%rbp), %rax	# data, tmp92
	movq	56(%rax), %rdx	# data_9(D)->offset, D.25616
	movl	-20(%rbp), %eax	# size, D.25616
	subq	%rax, %rdx	# D.25616, D.25616
	movq	-56(%rbp), %rax	# data, tmp93
	movq	%rdx, 56(%rax)	# D.25616, data_9(D)->offset
.L230:
	.loc 1 1564 0
	movq	-56(%rbp), %rax	# data, tmp94
	movq	(%rax), %rax	# data_9(D)->to, D.25617
	testq	%rax, %rax	# D.25617
	je	.L231	#,
	.loc 1 1566 0
	movq	-56(%rbp), %rax	# data, tmp95
	movl	16(%rax), %eax	# data_9(D)->autinc_to, D.25615
	testl	%eax, %eax	# D.25615
	je	.L232	#,
	.loc 1 1567 0
	movq	-56(%rbp), %rax	# data, tmp96
	movq	56(%rax), %rcx	# data_9(D)->offset, D.25616
	movq	-56(%rbp), %rax	# data, tmp97
	movq	8(%rax), %rdx	# data_9(D)->to_addr, D.25617
	movq	-56(%rbp), %rax	# data, tmp98
	movq	(%rax), %rax	# data_9(D)->to, D.25617
	movl	-44(%rbp), %esi	# mode, tmp99
	movl	$1, %r8d	#,
	movq	%rax, %rdi	# D.25617,
	call	adjust_automodify_address_1	#
	movq	%rax, -16(%rbp)	# tmp100, to1
	jmp	.L231	#
.L232:
	.loc 1 1570 0
	movq	-56(%rbp), %rax	# data, tmp101
	movq	56(%rax), %rdx	# data_9(D)->offset, D.25616
	movq	-56(%rbp), %rax	# data, tmp102
	movq	(%rax), %rax	# data_9(D)->to, D.25617
	movl	-44(%rbp), %esi	# mode, tmp103
	movl	$1, %r8d	#,
	movl	$1, %ecx	#,
	movq	%rax, %rdi	# D.25617,
	call	adjust_address_1	#
	movq	%rax, -16(%rbp)	# tmp104, to1
.L231:
	.loc 1 1573 0
	movq	-56(%rbp), %rax	# data, tmp105
	movl	40(%rax), %eax	# data_9(D)->autinc_from, D.25615
	testl	%eax, %eax	# D.25615
	je	.L233	#,
	.loc 1 1574 0
	movq	-56(%rbp), %rax	# data, tmp106
	movq	56(%rax), %rcx	# data_9(D)->offset, D.25616
	movq	-56(%rbp), %rax	# data, tmp107
	movq	32(%rax), %rdx	# data_9(D)->from_addr, D.25617
	movq	-56(%rbp), %rax	# data, tmp108
	movq	24(%rax), %rax	# data_9(D)->from, D.25617
	movl	-44(%rbp), %esi	# mode, tmp109
	movl	$1, %r8d	#,
	movq	%rax, %rdi	# D.25617,
	call	adjust_automodify_address_1	#
	movq	%rax, -8(%rbp)	# tmp110, from1
	jmp	.L239	#
.L233:
	.loc 1 1577 0
	movq	-56(%rbp), %rax	# data, tmp111
	movq	56(%rax), %rdx	# data_9(D)->offset, D.25616
	movq	-56(%rbp), %rax	# data, tmp112
	movq	24(%rax), %rax	# data_9(D)->from, D.25617
	movl	-44(%rbp), %esi	# mode, tmp113
	movl	$1, %r8d	#,
	movl	$1, %ecx	#,
	movq	%rax, %rdi	# D.25617,
	call	adjust_address_1	#
	movq	%rax, -8(%rbp)	# tmp114, from1
.L239:
	.loc 1 1586 0
	movq	-56(%rbp), %rax	# data, tmp115
	movq	(%rax), %rax	# data_9(D)->to, D.25617
	testq	%rax, %rax	# D.25617
	je	.L235	#,
	.loc 1 1587 0
	movq	-8(%rbp), %rcx	# from1, tmp116
	movq	-16(%rbp), %rax	# to1, tmp117
	movq	-40(%rbp), %rdx	# genfun, tmp118
	movq	%rcx, %rsi	# tmp116,
	movq	%rax, %rdi	# tmp117,
	movl	$0, %eax	#,
	call	*%rdx	# tmp118
	movq	%rax, %rdi	# D.25617,
	call	emit_insn	#
	jmp	.L240	#
.L235:
	.loc 1 1591 0
	movq	-8(%rbp), %rcx	# from1, tmp119
	movl	-44(%rbp), %eax	# mode, tmp120
	movl	$0, %edx	#,
	movq	%rcx, %rsi	# tmp119,
	movl	%eax, %edi	# tmp120,
	call	emit_single_push_insn	#
.L240:
	.loc 1 1602 0
	movq	-56(%rbp), %rax	# data, tmp121
	movl	64(%rax), %eax	# data_9(D)->reverse, D.25615
	testl	%eax, %eax	# D.25615
	jne	.L237	#,
	.loc 1 1603 0
	movq	-56(%rbp), %rax	# data, tmp122
	movq	56(%rax), %rdx	# data_9(D)->offset, D.25616
	movl	-20(%rbp), %eax	# size, D.25616
	addq	%rax, %rdx	# D.25616, D.25616
	movq	-56(%rbp), %rax	# data, tmp123
	movq	%rdx, 56(%rax)	# D.25616, data_9(D)->offset
.L237:
	.loc 1 1605 0
	movq	-56(%rbp), %rax	# data, tmp124
	movq	48(%rax), %rdx	# data_9(D)->len, D.25614
	movl	-20(%rbp), %eax	# size, D.25614
	subq	%rax, %rdx	# D.25614, D.25614
	movq	-56(%rbp), %rax	# data, tmp125
	movq	%rdx, 48(%rax)	# D.25614, data_9(D)->len
.L229:
	.loc 1 1559 0 discriminator 1
	movq	-56(%rbp), %rax	# data, tmp126
	movq	48(%rax), %rdx	# data_9(D)->len, D.25614
	movl	-20(%rbp), %eax	# size, D.25614
	cmpq	%rax, %rdx	# D.25614, D.25614
	jae	.L238	#,
	.loc 1 1607 0
	leave
	.cfi_def_cfa 7, 8
	ret
	.cfi_endproc
.LFE16:
	.size	move_by_pieces_1, .-move_by_pieces_1
	.section	.rodata
.LC1:
	.string	"memcpy"
	.text
	.globl	emit_block_move
	.type	emit_block_move, @function
emit_block_move:
.LFB17:
	.loc 1 1625 0
	.cfi_startproc
	pushq	%rbp	#
	.cfi_def_cfa_offset 16
	.cfi_offset 6, -16
	movq	%rsp, %rbp	#,
	.cfi_def_cfa_register 6
	pushq	%rbx	#
	subq	$136, %rsp	#,
	.cfi_offset 3, -24
	movq	%rdi, -120(%rbp)	# x, x
	movq	%rsi, -128(%rbp)	# y, y
	movq	%rdx, -136(%rbp)	# size, size
	.loc 1 1626 0
	movq	$0, -88(%rbp)	#, retval
	.loc 1 1631 0
	movq	-128(%rbp), %rax	# y, tmp161
	movq	16(%rax), %rax	# y_12(D)->fld[1].rtmem, D.25619
	testq	%rax, %rax	# D.25619
	je	.L242	#,
	.loc 1 1631 0 is_stmt 0 discriminator 1
	movq	-128(%rbp), %rax	# y, tmp162
	movq	16(%rax), %rax	# y_12(D)->fld[1].rtmem, D.25619
	movl	32(%rax), %edx	# _14->align, iftmp.135
	jmp	.L243	#
.L242:
	.loc 1 1631 0 discriminator 2
	movl	$8, %edx	#, iftmp.135
.L243:
	.loc 1 1631 0 discriminator 3
	movq	-120(%rbp), %rax	# x, tmp163
	movq	16(%rax), %rax	# x_17(D)->fld[1].rtmem, D.25619
	testq	%rax, %rax	# D.25619
	je	.L244	#,
	.loc 1 1631 0 discriminator 1
	movq	-120(%rbp), %rax	# x, tmp164
	movq	16(%rax), %rax	# x_17(D)->fld[1].rtmem, D.25619
	movl	32(%rax), %eax	# _19->align, iftmp.136
	jmp	.L245	#
.L244:
	.loc 1 1631 0 discriminator 2
	movl	$8, %eax	#, iftmp.136
.L245:
	.loc 1 1631 0 discriminator 3
	cmpl	%eax, %edx	# iftmp.136, iftmp.135
	cmovbe	%edx, %eax	# iftmp.135,, tmp165
	movl	%eax, -96(%rbp)	# tmp165, align
	.loc 1 1633 0 is_stmt 1 discriminator 3
	movq	-120(%rbp), %rax	# x, tmp166
	movzbl	2(%rax), %eax	# x_17(D)->mode, D.25620
	cmpb	$51, %al	#, D.25620
	je	.L246	#,
	.loc 1 1634 0
	movl	$__FUNCTION__.14354, %edx	#,
	movl	$1634, %esi	#,
	movl	$.LC0, %edi	#,
	call	fancy_abort	#
.L246:
	.loc 1 1636 0
	movq	-128(%rbp), %rax	# y, tmp167
	movzbl	2(%rax), %eax	# y_12(D)->mode, D.25620
	cmpb	$51, %al	#, D.25620
	je	.L247	#,
	.loc 1 1637 0
	movl	$__FUNCTION__.14354, %edx	#,
	movl	$1637, %esi	#,
	movl	$.LC0, %edi	#,
	call	fancy_abort	#
.L247:
	.loc 1 1639 0
	movq	-120(%rbp), %rax	# x, tmp168
	movl	$1, %esi	#,
	movq	%rax, %rdi	# tmp168,
	call	protect_from_queue	#
	movq	%rax, -120(%rbp)	# tmp169, x
	.loc 1 1640 0
	movq	-128(%rbp), %rax	# y, tmp170
	movl	$0, %esi	#,
	movq	%rax, %rdi	# tmp170,
	call	protect_from_queue	#
	movq	%rax, -128(%rbp)	# tmp171, y
	.loc 1 1641 0
	movq	-136(%rbp), %rax	# size, tmp172
	movl	$0, %esi	#,
	movq	%rax, %rdi	# tmp172,
	call	protect_from_queue	#
	movq	%rax, -136(%rbp)	# tmp173, size
	.loc 1 1643 0
	movq	-120(%rbp), %rax	# x, tmp174
	movzwl	(%rax), %eax	# x_25->code, D.25621
	cmpw	$66, %ax	#, D.25621
	je	.L248	#,
	.loc 1 1644 0
	movl	$__FUNCTION__.14354, %edx	#,
	movl	$1644, %esi	#,
	movl	$.LC0, %edi	#,
	call	fancy_abort	#
.L248:
	.loc 1 1645 0
	movq	-128(%rbp), %rax	# y, tmp175
	movzwl	(%rax), %eax	# y_26->code, D.25621
	cmpw	$66, %ax	#, D.25621
	je	.L249	#,
	.loc 1 1646 0
	movl	$__FUNCTION__.14354, %edx	#,
	movl	$1646, %esi	#,
	movl	$.LC0, %edi	#,
	call	fancy_abort	#
.L249:
	.loc 1 1647 0
	cmpq	$0, -136(%rbp)	#, size
	jne	.L250	#,
	.loc 1 1648 0
	movl	$__FUNCTION__.14354, %edx	#,
	movl	$1648, %esi	#,
	movl	$.LC0, %edi	#,
	call	fancy_abort	#
.L250:
	.loc 1 1650 0
	movq	-136(%rbp), %rax	# size, tmp176
	movzwl	(%rax), %eax	# size_28->code, D.25621
	cmpw	$54, %ax	#, D.25621
	jne	.L251	#,
	.loc 1 1650 0 is_stmt 0 discriminator 1
	movq	-136(%rbp), %rax	# size, tmp177
	movq	8(%rax), %rax	# size_28->fld[0].rtwint, D.25622
	movl	-96(%rbp), %edx	# align, tmp178
	movl	%edx, %esi	# tmp178,
	movq	%rax, %rdi	# D.25623,
	call	move_by_pieces_ninsns	#
	movq	%rax, %rdx	#, D.25623
	movl	optimize_size(%rip), %eax	# optimize_size, optimize_size.138
	testl	%eax, %eax	# optimize_size.138
	jne	.L252	#,
	movq	ix86_cost(%rip), %rax	# ix86_cost, ix86_cost.139
	movl	40(%rax), %eax	# ix86_cost.139_36->move_ratio, D.25624
	movl	%eax, %eax	# D.25625, iftmp.137
	jmp	.L253	#
.L252:
	.loc 1 1650 0 discriminator 2
	movl	$3, %eax	#, iftmp.137
.L253:
	.loc 1 1650 0 discriminator 3
	cmpq	%rax, %rdx	# iftmp.137, D.25623
	jae	.L251	#,
	.loc 1 1651 0 is_stmt 1
	movq	-136(%rbp), %rax	# size, tmp179
	movq	8(%rax), %rax	# size_28->fld[0].rtwint, D.25622
	movq	%rax, %rdx	# D.25622, D.25623
	movl	-96(%rbp), %ecx	# align, tmp180
	movq	-128(%rbp), %rsi	# y, tmp181
	movq	-120(%rbp), %rax	# x, tmp182
	movq	%rax, %rdi	# tmp182,
	call	move_by_pieces	#
	jmp	.L254	#
.L251:
.LBB20:
	.loc 1 1658 0
	movl	-96(%rbp), %eax	# align, tmp183
	shrl	$3, %eax	#, D.25625
	movl	%eax, %eax	# D.25625, D.25622
	movq	%rax, %rsi	# D.25622,
	movl	$0, %edi	#,
	call	gen_rtx_CONST_INT	#
	movq	%rax, -72(%rbp)	# tmp184, opalign
	.loc 1 1662 0
	movl	$1, volatile_ok(%rip)	#, volatile_ok
	.loc 1 1664 0
	movl	class_narrowest_mode+4(%rip), %eax	# class_narrowest_mode, tmp185
	movl	%eax, -100(%rbp)	# tmp185, mode
	jmp	.L255	#
.L267:
.LBB21:
	.loc 1 1667 0
	movl	-100(%rbp), %eax	# mode, mode.140
	cltq
	movl	movstr_optab(,%rax,4), %eax	# movstr_optab, tmp187
	movl	%eax, -92(%rbp)	# tmp187, code
	.loc 1 1670 0
	cmpl	$1317, -92(%rbp)	#, code
	je	.L256	#,
	.loc 1 1675 0
	movq	-136(%rbp), %rax	# size, tmp188
	movzwl	(%rax), %eax	# size_28->code, D.25621
	cmpw	$54, %ax	#, D.25621
	jne	.L257	#,
	.loc 1 1676 0
	movq	-136(%rbp), %rax	# size, tmp189
	movq	8(%rax), %rax	# size_28->fld[0].rtwint, D.25622
	movq	%rax, %rdx	# D.25622, D.25623
	.loc 1 1677 0
	movl	-100(%rbp), %eax	# mode, mode.141
	cltq
	movq	mode_mask_array(,%rax,8), %rax	# mode_mask_array, D.25623
	shrq	%rax	# D.25623
	.loc 1 1676 0
	cmpq	%rax, %rdx	# D.25623, D.25623
	jbe	.L258	#,
.L257:
	.loc 1 1678 0
	movl	-100(%rbp), %eax	# mode, mode.142
	cltq
	movzwl	mode_bitsize(%rax,%rax), %eax	# mode_bitsize, D.25621
	movzwl	%ax, %edx	# D.25621, D.25624
	movl	target_flags(%rip), %eax	# target_flags, target_flags.144
	andl	$33554432, %eax	#, D.25624
	testl	%eax, %eax	# D.25624
	je	.L259	#,
	.loc 1 1678 0 is_stmt 0 discriminator 1
	movl	$64, %eax	#, iftmp.143
	jmp	.L260	#
.L259:
	.loc 1 1678 0 discriminator 2
	movl	$32, %eax	#, iftmp.143
.L260:
	.loc 1 1678 0 discriminator 3
	cmpl	%eax, %edx	# iftmp.143, D.25624
	jl	.L256	#,
.L258:
	.loc 1 1679 0 is_stmt 1
	movl	-92(%rbp), %eax	# code, code.145
	movslq	%eax, %rdx	# code.145, tmp192
	movq	%rdx, %rax	# tmp192, tmp193
	salq	$2, %rax	#, tmp193
	addq	%rdx, %rax	# tmp192, tmp193
	salq	$3, %rax	#, tmp194
	addq	$insn_data+24, %rax	#, tmp195
	movq	(%rax), %rax	# insn_data[code.145_62].operand, D.25626
	movq	(%rax), %rax	# _63->predicate, tmp196
	movq	%rax, -64(%rbp)	# tmp196, pred
	cmpq	$0, -64(%rbp)	#, pred
	je	.L261	#,
	.loc 1 1680 0
	movq	-120(%rbp), %rdx	# x, tmp197
	movq	-64(%rbp), %rax	# pred, tmp198
	movl	$51, %esi	#,
	movq	%rdx, %rdi	# tmp197,
	call	*%rax	# tmp198
	testl	%eax, %eax	# D.25624
	je	.L256	#,
.L261:
	.loc 1 1681 0
	movl	-92(%rbp), %eax	# code, code.146
	movslq	%eax, %rdx	# code.146, tmp199
	movq	%rdx, %rax	# tmp199, tmp200
	salq	$2, %rax	#, tmp200
	addq	%rdx, %rax	# tmp199, tmp200
	salq	$3, %rax	#, tmp201
	addq	$insn_data+24, %rax	#, tmp202
	movq	(%rax), %rax	# insn_data[code.146_66].operand, D.25626
	addq	$24, %rax	#, D.25626
	movq	(%rax), %rax	# _68->predicate, tmp203
	movq	%rax, -64(%rbp)	# tmp203, pred
	cmpq	$0, -64(%rbp)	#, pred
	je	.L262	#,
	.loc 1 1682 0
	movq	-128(%rbp), %rdx	# y, tmp204
	movq	-64(%rbp), %rax	# pred, tmp205
	movl	$51, %esi	#,
	movq	%rdx, %rdi	# tmp204,
	call	*%rax	# tmp205
	testl	%eax, %eax	# D.25624
	je	.L256	#,
.L262:
	.loc 1 1683 0
	movl	-92(%rbp), %eax	# code, code.147
	movslq	%eax, %rdx	# code.147, tmp206
	movq	%rdx, %rax	# tmp206, tmp207
	salq	$2, %rax	#, tmp207
	addq	%rdx, %rax	# tmp206, tmp207
	salq	$3, %rax	#, tmp208
	addq	$insn_data+24, %rax	#, tmp209
	movq	(%rax), %rax	# insn_data[code.147_71].operand, D.25626
	addq	$72, %rax	#, D.25626
	movq	(%rax), %rax	# _73->predicate, tmp210
	movq	%rax, -64(%rbp)	# tmp210, pred
	cmpq	$0, -64(%rbp)	#, pred
	je	.L263	#,
	.loc 1 1684 0
	movq	-72(%rbp), %rdx	# opalign, tmp211
	movq	-64(%rbp), %rax	# pred, tmp212
	movl	$0, %esi	#,
	movq	%rdx, %rdi	# tmp211,
	call	*%rax	# tmp212
	testl	%eax, %eax	# D.25624
	je	.L256	#,
.L263:
.LBB22:
	.loc 1 1687 0
	call	get_last_insn	#
	movq	%rax, -56(%rbp)	# tmp213, last
	.loc 1 1690 0
	movq	-136(%rbp), %rcx	# size, tmp214
	movl	-100(%rbp), %eax	# mode, tmp215
	movl	$1, %edx	#,
	movq	%rcx, %rsi	# tmp214,
	movl	%eax, %edi	# tmp215,
	call	convert_to_mode	#
	movq	%rax, -80(%rbp)	# tmp216, op2
	.loc 1 1691 0
	movl	-92(%rbp), %eax	# code, code.148
	movslq	%eax, %rdx	# code.148, tmp217
	movq	%rdx, %rax	# tmp217, tmp218
	salq	$2, %rax	#, tmp218
	addq	%rdx, %rax	# tmp217, tmp218
	salq	$3, %rax	#, tmp219
	addq	$insn_data+24, %rax	#, tmp220
	movq	(%rax), %rax	# insn_data[code.148_78].operand, D.25626
	addq	$48, %rax	#, D.25626
	movq	(%rax), %rax	# _80->predicate, tmp221
	movq	%rax, -64(%rbp)	# tmp221, pred
	.loc 1 1692 0
	cmpq	$0, -64(%rbp)	#, pred
	je	.L264	#,
	.loc 1 1692 0 is_stmt 0 discriminator 1
	movl	-100(%rbp), %ecx	# mode, tmp222
	movq	-80(%rbp), %rdx	# op2, tmp223
	movq	-64(%rbp), %rax	# pred, tmp224
	movl	%ecx, %esi	# tmp222,
	movq	%rdx, %rdi	# tmp223,
	call	*%rax	# tmp224
	testl	%eax, %eax	# D.25624
	jne	.L264	#,
	.loc 1 1693 0 is_stmt 1
	movq	-80(%rbp), %rdx	# op2, tmp225
	movl	-100(%rbp), %eax	# mode, tmp226
	movq	%rdx, %rsi	# tmp225,
	movl	%eax, %edi	# tmp226,
	call	copy_to_mode_reg	#
	movq	%rax, -80(%rbp)	# tmp227, op2
.L264:
	.loc 1 1695 0
	movl	-92(%rbp), %eax	# code, code.149
	movslq	%eax, %rdx	# code.149, tmp228
	movq	%rdx, %rax	# tmp228, tmp229
	salq	$2, %rax	#, tmp229
	addq	%rdx, %rax	# tmp228, tmp229
	salq	$3, %rax	#, tmp230
	addq	$insn_data+16, %rax	#, tmp231
	movq	(%rax), %r8	# insn_data[code.149_84].genfun, D.25627
	movq	-72(%rbp), %rcx	# opalign, tmp232
	movq	-80(%rbp), %rdx	# op2, tmp233
	movq	-128(%rbp), %rsi	# y, tmp234
	movq	-120(%rbp), %rax	# x, tmp235
	movq	%rax, %rdi	# tmp235,
	movl	$0, %eax	#,
	call	*%r8	# D.25627
	movq	%rax, -48(%rbp)	# tmp236, pat
	.loc 1 1696 0
	cmpq	$0, -48(%rbp)	#, pat
	je	.L265	#,
	.loc 1 1698 0
	movq	-48(%rbp), %rax	# pat, tmp237
	movq	%rax, %rdi	# tmp237,
	call	emit_insn	#
	.loc 1 1699 0
	movl	$0, volatile_ok(%rip)	#, volatile_ok
	.loc 1 1700 0
	movl	$0, %eax	#, D.25618
	jmp	.L266	#
.L265:
	.loc 1 1703 0
	movq	-56(%rbp), %rax	# last, tmp238
	movq	%rax, %rdi	# tmp238,
	call	delete_insns_since	#
.L256:
.LBE22:
.LBE21:
	.loc 1 1665 0
	movl	-100(%rbp), %eax	# mode, mode.150
	cltq
	movzbl	mode_wider_mode(%rax), %eax	# mode_wider_mode, D.25620
	movzbl	%al, %eax	# D.25620, tmp240
	movl	%eax, -100(%rbp)	# tmp240, mode
.L255:
	.loc 1 1664 0 discriminator 1
	cmpl	$0, -100(%rbp)	#, mode
	jne	.L267	#,
	.loc 1 1707 0
	movl	$0, volatile_ok(%rip)	#, volatile_ok
	.loc 1 1729 0
	movq	-120(%rbp), %rax	# x, tmp241
	movq	8(%rax), %rdx	# x_25->fld[0].rtx, D.25628
	movl	target_flags(%rip), %eax	# target_flags, target_flags.152
	andl	$33554432, %eax	#, D.25624
	testl	%eax, %eax	# D.25624
	je	.L268	#,
	.loc 1 1729 0 is_stmt 0 discriminator 1
	movl	$5, %eax	#, iftmp.151
	jmp	.L269	#
.L268:
	.loc 1 1729 0 discriminator 2
	movl	$4, %eax	#, iftmp.151
.L269:
	.loc 1 1729 0 discriminator 3
	movq	%rdx, %rsi	# D.25628,
	movl	%eax, %edi	# iftmp.151,
	call	copy_to_mode_reg	#
	movq	%rax, -120(%rbp)	# tmp242, x
	.loc 1 1730 0 is_stmt 1 discriminator 3
	movq	-128(%rbp), %rax	# y, tmp243
	movq	8(%rax), %rdx	# y_26->fld[0].rtx, D.25628
	movl	target_flags(%rip), %eax	# target_flags, target_flags.154
	andl	$33554432, %eax	#, D.25624
	testl	%eax, %eax	# D.25624
	je	.L270	#,
	.loc 1 1730 0 is_stmt 0 discriminator 1
	movl	$5, %eax	#, iftmp.153
	jmp	.L271	#
.L270:
	.loc 1 1730 0 discriminator 2
	movl	$4, %eax	#, iftmp.153
.L271:
	.loc 1 1730 0 discriminator 3
	movq	%rdx, %rsi	# D.25628,
	movl	%eax, %edi	# iftmp.153,
	call	copy_to_mode_reg	#
	movq	%rax, -128(%rbp)	# tmp244, y
	.loc 1 1733 0 is_stmt 1 discriminator 3
	movq	sizetype_tab(%rip), %rax	# sizetype_tab, D.25629
	movzbl	61(%rax), %eax	# *_103, tmp247
	shrb	%al	# D.25630
	movzbl	%al, %eax	# D.25630, D.25631
	movq	-136(%rbp), %rdx	# size, tmp248
	movq	%rdx, %rsi	# tmp248,
	movl	%eax, %edi	# D.25631,
	call	copy_to_mode_reg	#
	movq	%rax, -136(%rbp)	# tmp249, size
	.loc 1 1752 0 discriminator 3
	movq	fn.14350(%rip), %rax	# fn, fn.155
	testq	%rax, %rax	# fn.155
	jne	.L272	#,
.LBB23:
	.loc 1 1758 0
	movl	$.LC1, %edi	#,
	call	get_identifier	#
	movq	%rax, fn.14350(%rip)	# fn.156, fn
	.loc 1 1759 0
	movq	global_trees+216(%rip), %rax	# global_trees, D.25629
	movq	%rax, %rdi	# D.25629,
	call	build_pointer_type	#
	movq	%rax, -40(%rbp)	# tmp250, fntype
	.loc 1 1760 0
	movq	-40(%rbp), %rax	# fntype, tmp251
	movl	$0, %esi	#,
	movq	%rax, %rdi	# tmp251,
	call	build_function_type	#
	movq	%rax, -40(%rbp)	# tmp252, fntype
	.loc 1 1761 0
	movq	fn.14350(%rip), %rax	# fn, fn.157
	movq	-40(%rbp), %rdx	# fntype, tmp253
	movq	%rax, %rsi	# fn.157,
	movl	$30, %edi	#,
	call	build_decl	#
	movq	%rax, fn.14350(%rip)	# fn.158, fn
	.loc 1 1762 0
	movl	$1, %esi	#,
	movl	$fn.14350, %edi	#,
	call	ggc_add_tree_root	#
	.loc 1 1763 0
	movq	fn.14350(%rip), %rax	# fn, fn.159
	movzbl	49(%rax), %edx	#, tmp256
	orl	$1, %edx	#, tmp257
	movb	%dl, 49(%rax)	# tmp257,
	.loc 1 1764 0
	movq	fn.14350(%rip), %rax	# fn, fn.160
	movzbl	18(%rax), %edx	#, tmp260
	orl	$8, %edx	#, tmp261
	movb	%dl, 18(%rax)	# tmp261,
	.loc 1 1765 0
	movq	fn.14350(%rip), %rax	# fn, fn.161
	movzbl	50(%rax), %edx	#, tmp264
	orl	$64, %edx	#, tmp265
	movb	%dl, 50(%rax)	# tmp265,
	.loc 1 1766 0
	movq	fn.14350(%rip), %rax	# fn, fn.162
	movzbl	18(%rax), %edx	#, tmp268
	orl	$2, %edx	#, tmp269
	movb	%dl, 18(%rax)	# tmp269,
	.loc 1 1767 0
	movq	fn.14350(%rip), %rax	# fn, fn.163
	movl	$0, %esi	#,
	movq	%rax, %rdi	# fn.163,
	call	make_decl_rtl	#
	.loc 1 1768 0
	movq	fn.14350(%rip), %rax	# fn, fn.164
	movq	%rax, %rdi	# fn.164,
	call	assemble_external	#
.L272:
.LBE23:
	.loc 1 1776 0
	movq	global_trees+216(%rip), %rax	# global_trees, D.25629
	movq	%rax, %rdi	# D.25629,
	call	build_pointer_type	#
	movq	-120(%rbp), %rdx	# x, tmp270
	movq	%rdx, %rsi	# tmp270,
	movq	%rax, %rdi	# D.25629,
	call	make_tree	#
	movq	%rax, %rsi	# D.25629,
	movl	$0, %edi	#,
	call	build_tree_list	#
	movq	%rax, -32(%rbp)	# tmp271, arg_list
	.loc 1 1779 0
	movq	global_trees+216(%rip), %rax	# global_trees, D.25629
	movq	%rax, %rdi	# D.25629,
	call	build_pointer_type	#
	movq	-128(%rbp), %rdx	# y, tmp272
	movq	%rdx, %rsi	# tmp272,
	movq	%rax, %rdi	# D.25629,
	call	make_tree	#
	movq	%rax, %rsi	# D.25629,
	movl	$0, %edi	#,
	call	build_tree_list	#
	movq	-32(%rbp), %rdx	# arg_list, tmp273
	movq	%rax, (%rdx)	# D.25629, arg_list_123->common.chain
	.loc 1 1781 0
	movq	-32(%rbp), %rax	# arg_list, tmp274
	movq	(%rax), %rbx	# arg_list_123->common.chain, D.25629
	.loc 1 1782 0
	movq	sizetype_tab(%rip), %rax	# sizetype_tab, D.25629
	movq	-136(%rbp), %rdx	# size, tmp275
	movq	%rdx, %rsi	# tmp275,
	movq	%rax, %rdi	# D.25629,
	call	make_tree	#
	movq	%rax, %rsi	# D.25629,
	movl	$0, %edi	#,
	call	build_tree_list	#
	movq	%rax, (%rbx)	# D.25629, _128->common.chain
	.loc 1 1783 0
	movq	-32(%rbp), %rax	# arg_list, tmp276
	movq	(%rax), %rax	# arg_list_123->common.chain, D.25629
	movq	(%rax), %rax	# _132->common.chain, D.25629
	movq	$0, (%rax)	#, _133->common.chain
	.loc 1 1786 0
	movq	fn.14350(%rip), %rbx	# fn, fn.165
	movq	fn.14350(%rip), %rax	# fn, fn.166
	movq	8(%rax), %rax	# fn.166_135->common.type, D.25629
	movq	%rax, %rdi	# D.25629,
	call	build_pointer_type	#
	movq	%rbx, %rdx	# fn.165,
	movq	%rax, %rsi	# D.25629,
	movl	$121, %edi	#,
	call	build1	#
	movq	%rax, -24(%rbp)	# tmp277, call_expr
	.loc 1 1787 0
	movq	fn.14350(%rip), %rax	# fn, fn.167
	movq	8(%rax), %rax	# fn.167_139->common.type, D.25629
	movq	8(%rax), %rax	# _140->common.type, D.25629
	movq	-32(%rbp), %rcx	# arg_list, tmp278
	movq	-24(%rbp), %rdx	# call_expr, tmp279
	movl	$0, %r8d	#,
	movq	%rax, %rsi	# D.25629,
	movl	$53, %edi	#,
	movl	$0, %eax	#,
	call	build	#
	movq	%rax, -24(%rbp)	# tmp280, call_expr
	.loc 1 1789 0
	movq	-24(%rbp), %rax	# call_expr, tmp281
	movzbl	17(%rax), %edx	#, tmp284
	orl	$1, %edx	#, tmp285
	movb	%dl, 17(%rax)	# tmp285,
	.loc 1 1791 0
	movq	-24(%rbp), %rax	# call_expr, tmp286
	movl	$0, %ecx	#,
	movl	$0, %edx	#,
	movl	$0, %esi	#,
	movq	%rax, %rdi	# tmp286,
	call	expand_expr	#
	movq	%rax, -88(%rbp)	# tmp287, retval
	.loc 1 1803 0
	movq	-120(%rbp), %rax	# x, tmp288
	movzbl	3(%rax), %eax	# *x_96, D.25620
	andl	$4, %eax	#, D.25620
	testb	%al, %al	# D.25620
	je	.L254	#,
	.loc 1 1804 0
	movq	-120(%rbp), %rax	# x, tmp289
	movq	%rax, %rdx	# tmp289,
	movl	$0, %esi	#,
	movl	$49, %edi	#,
	call	gen_rtx_fmt_e	#
	movq	%rax, %rdi	# D.25628,
	call	emit_insn	#
.L254:
.LBE20:
	.loc 1 1807 0
	movq	-88(%rbp), %rax	# retval, D.25618
.L266:
	.loc 1 1808 0
	addq	$136, %rsp	#,
	popq	%rbx	#
	popq	%rbp	#
	.cfi_def_cfa 7, 8
	ret
	.cfi_endproc
.LFE17:
	.size	emit_block_move, .-emit_block_move
	.globl	move_block_to_reg
	.type	move_block_to_reg, @function
move_block_to_reg:
.LFB18:
	.loc 1 1819 0
	.cfi_startproc
	pushq	%rbp	#
	.cfi_def_cfa_offset 16
	.cfi_offset 6, -16
	movq	%rsp, %rbp	#,
	.cfi_def_cfa_register 6
	pushq	%rbx	#
	subq	$56, %rsp	#,
	.cfi_offset 3, -24
	movl	%edi, -36(%rbp)	# regno, regno
	movq	%rsi, -48(%rbp)	# x, x
	movl	%edx, -40(%rbp)	# nregs, nregs
	movl	%ecx, -52(%rbp)	# mode, mode
	.loc 1 1826 0
	cmpl	$0, -40(%rbp)	#, nregs
	jne	.L274	#,
	.loc 1 1827 0
	jmp	.L273	#
.L274:
	.loc 1 1849 0
	movl	$0, -20(%rbp)	#, i
	jmp	.L276	#
.L277:
	.loc 1 1850 0 discriminator 2
	movl	-20(%rbp), %ecx	# i, i.168
	movl	-52(%rbp), %edx	# mode, tmp64
	movq	-48(%rbp), %rax	# x, tmp65
	movl	%ecx, %esi	# i.168,
	movq	%rax, %rdi	# tmp65,
	call	operand_subword_force	#
	movq	%rax, %rbx	#, D.25633
	movl	-20(%rbp), %eax	# i, tmp66
	movl	-36(%rbp), %edx	# regno, tmp67
	addl	%eax, %edx	# tmp66, D.25634
	movl	word_mode(%rip), %eax	# word_mode, word_mode.169
	movl	%edx, %esi	# D.25634,
	movl	%eax, %edi	# word_mode.169,
	call	gen_rtx_REG	#
	movq	%rbx, %rsi	# D.25633,
	movq	%rax, %rdi	# D.25633,
	call	emit_move_insn	#
	.loc 1 1849 0 discriminator 2
	addl	$1, -20(%rbp)	#, i
.L276:
	.loc 1 1849 0 is_stmt 0 discriminator 1
	movl	-20(%rbp), %eax	# i, tmp68
	cmpl	-40(%rbp), %eax	# nregs, tmp68
	jl	.L277	#,
.L273:
	.loc 1 1852 0 is_stmt 1
	addq	$56, %rsp	#,
	popq	%rbx	#
	popq	%rbp	#
	.cfi_def_cfa 7, 8
	ret
	.cfi_endproc
.LFE18:
	.size	move_block_to_reg, .-move_block_to_reg
	.globl	move_block_from_reg
	.type	move_block_from_reg, @function
move_block_from_reg:
.LFB19:
	.loc 1 1864 0
	.cfi_startproc
	pushq	%rbp	#
	.cfi_def_cfa_offset 16
	.cfi_offset 6, -16
	movq	%rsp, %rbp	#,
	.cfi_def_cfa_register 6
	pushq	%rbx	#
	subq	$56, %rsp	#,
	.cfi_offset 3, -24
	movl	%edi, -36(%rbp)	# regno, regno
	movq	%rsi, -48(%rbp)	# x, x
	movl	%edx, -40(%rbp)	# nregs, nregs
	movl	%ecx, -52(%rbp)	# size, size
	.loc 1 1872 0
	cmpl	$0, -40(%rbp)	#, nregs
	jne	.L279	#,
	.loc 1 1873 0
	jmp	.L278	#
.L279:
	.loc 1 1877 0
	movl	target_flags(%rip), %eax	# target_flags, target_flags.171
	andl	$33554432, %eax	#, D.25635
	testl	%eax, %eax	# D.25635
	je	.L281	#,
	.loc 1 1877 0 is_stmt 0 discriminator 1
	movl	$8, %eax	#, iftmp.170
	jmp	.L282	#
.L281:
	.loc 1 1877 0 discriminator 2
	movl	$4, %eax	#, iftmp.170
.L282:
	.loc 1 1877 0 discriminator 3
	cmpl	-52(%rbp), %eax	# size, iftmp.170
	jl	.L283	#,
	.loc 1 1878 0 is_stmt 1
	movl	-52(%rbp), %eax	# size, tmp70
	sall	$3, %eax	#, D.25635
	movl	$0, %edx	#,
	movl	$1, %esi	#,
	movl	%eax, %edi	# D.25636,
	call	mode_for_size	#
	movl	%eax, -28(%rbp)	# tmp71, mode
	cmpl	$51, -28(%rbp)	#, mode
	je	.L283	#,
	.loc 1 1881 0
	movl	-36(%rbp), %edx	# regno, tmp72
	movl	-28(%rbp), %eax	# mode, tmp73
	movl	%edx, %esi	# tmp72,
	movl	%eax, %edi	# tmp73,
	call	gen_rtx_REG	#
	movq	%rax, %rbx	#, D.25637
	movl	-28(%rbp), %esi	# mode, tmp74
	movq	-48(%rbp), %rax	# x, tmp75
	movl	$1, %r8d	#,
	movl	$1, %ecx	#,
	movl	$0, %edx	#,
	movq	%rax, %rdi	# tmp75,
	call	adjust_address_1	#
	movq	%rbx, %rsi	# D.25637,
	movq	%rax, %rdi	# D.25637,
	call	emit_move_insn	#
	.loc 1 1882 0
	jmp	.L278	#
.L283:
	.loc 1 1923 0
	movl	$0, -32(%rbp)	#, i
	jmp	.L284	#
.L286:
.LBB24:
	.loc 1 1925 0
	movl	-32(%rbp), %esi	# i, i.176
	movq	-48(%rbp), %rax	# x, tmp76
	movl	$51, %ecx	#,
	movl	$1, %edx	#,
	movq	%rax, %rdi	# tmp76,
	call	operand_subword	#
	movq	%rax, -24(%rbp)	# tmp77, tem
	.loc 1 1927 0
	cmpq	$0, -24(%rbp)	#, tem
	jne	.L285	#,
	.loc 1 1928 0
	movl	$__FUNCTION__.14386, %edx	#,
	movl	$1928, %esi	#,
	movl	$.LC0, %edi	#,
	call	fancy_abort	#
.L285:
	.loc 1 1930 0
	movl	-32(%rbp), %eax	# i, tmp78
	movl	-36(%rbp), %edx	# regno, tmp79
	addl	%eax, %edx	# tmp78, D.25635
	movl	word_mode(%rip), %eax	# word_mode, word_mode.177
	movl	%edx, %esi	# D.25635,
	movl	%eax, %edi	# word_mode.177,
	call	gen_rtx_REG	#
	movq	%rax, %rdx	#, D.25637
	movq	-24(%rbp), %rax	# tem, tmp80
	movq	%rdx, %rsi	# D.25637,
	movq	%rax, %rdi	# tmp80,
	call	emit_move_insn	#
.LBE24:
	.loc 1 1923 0
	addl	$1, -32(%rbp)	#, i
.L284:
	.loc 1 1923 0 is_stmt 0 discriminator 1
	movl	-32(%rbp), %eax	# i, tmp81
	cmpl	-40(%rbp), %eax	# nregs, tmp81
	jl	.L286	#,
.L278:
	.loc 1 1932 0 is_stmt 1
	addq	$56, %rsp	#,
	popq	%rbx	#
	popq	%rbp	#
	.cfi_def_cfa 7, 8
	ret
	.cfi_endproc
.LFE19:
	.size	move_block_from_reg, .-move_block_from_reg
	.globl	emit_group_load
	.type	emit_group_load, @function
emit_group_load:
.LFB20:
	.loc 1 1948 0
	.cfi_startproc
	pushq	%rbp	#
	.cfi_def_cfa_offset 16
	.cfi_offset 6, -16
	movq	%rsp, %rbp	#,
	.cfi_def_cfa_register 6
	pushq	%rbx	#
	subq	$120, %rsp	#,
	.cfi_offset 3, -24
	movq	%rdi, -88(%rbp)	# dst, dst
	movq	%rsi, -96(%rbp)	# orig_src, orig_src
	movl	%edx, -100(%rbp)	# ssize, ssize
	.loc 1 1952 0
	movq	-88(%rbp), %rax	# dst, tmp251
	movzwl	(%rax), %eax	# dst_8(D)->code, D.25638
	cmpw	$39, %ax	#, D.25638
	je	.L288	#,
	.loc 1 1953 0
	movl	$__FUNCTION__.14400, %edx	#,
	movl	$1953, %esi	#,
	movl	$.LC0, %edi	#,
	call	fancy_abort	#
.L288:
	.loc 1 1957 0
	movq	-88(%rbp), %rax	# dst, tmp252
	movq	8(%rax), %rax	# dst_8(D)->fld[0].rtvec, D.25639
	movq	8(%rax), %rax	# _10->elem, D.25640
	movq	8(%rax), %rax	# _11->fld[0].rtx, D.25640
	testq	%rax, %rax	# D.25640
	je	.L289	#,
	.loc 1 1958 0
	movl	$0, -68(%rbp)	#, start
	jmp	.L290	#
.L289:
	.loc 1 1960 0
	movl	$1, -68(%rbp)	#, start
.L290:
	.loc 1 1962 0
	movq	-88(%rbp), %rax	# dst, tmp253
	movq	8(%rax), %rax	# dst_8(D)->fld[0].rtvec, D.25639
	movl	(%rax), %eax	# _15->num_elem, D.25641
	cltq
	salq	$3, %rax	#, D.25642
	leaq	15(%rax), %rdx	#, tmp254
	movl	$16, %eax	#, tmp396
	subq	$1, %rax	#, tmp255
	addq	%rdx, %rax	# tmp254, tmp256
	movl	$16, %ebx	#, tmp397
	movl	$0, %edx	#, tmp259
	divq	%rbx	# tmp397
	imulq	$16, %rax, %rax	#, tmp258, tmp260
	subq	%rax, %rsp	# tmp260,
	leaq	16(%rsp), %rax	#, tmp261
	addq	$15, %rax	#, tmp262
	shrq	$4, %rax	#, tmp263
	salq	$4, %rax	#, tmp264
	movq	%rax, -40(%rbp)	# tmp264, tmps
	.loc 1 1965 0
	movl	-68(%rbp), %eax	# start, tmp265
	movl	%eax, -64(%rbp)	# tmp265, i
	jmp	.L291	#
.L312:
.LBB25:
	.loc 1 1967 0
	movq	-88(%rbp), %rax	# dst, tmp266
	movq	8(%rax), %rax	# dst_8(D)->fld[0].rtvec, D.25639
	movl	-64(%rbp), %edx	# i, tmp268
	movslq	%edx, %rdx	# tmp268, tmp267
	movq	8(%rax,%rdx,8), %rax	# _23->elem, D.25640
	movq	8(%rax), %rax	# _24->fld[0].rtx, D.25640
	movzbl	2(%rax), %eax	# _25->mode, D.25643
	movzbl	%al, %eax	# D.25643, tmp269
	movl	%eax, -56(%rbp)	# tmp269, mode
	.loc 1 1968 0
	movq	-88(%rbp), %rax	# dst, tmp270
	movq	8(%rax), %rax	# dst_8(D)->fld[0].rtvec, D.25639
	movl	-64(%rbp), %edx	# i, tmp272
	movslq	%edx, %rdx	# tmp272, tmp271
	movq	8(%rax,%rdx,8), %rax	# _28->elem, D.25640
	movq	16(%rax), %rax	# _29->fld[1].rtx, D.25640
	movq	8(%rax), %rax	# _30->fld[0].rtwint, tmp273
	movq	%rax, -32(%rbp)	# tmp273, bytepos
	.loc 1 1969 0
	movl	-56(%rbp), %eax	# mode, mode.178
	cltq
	movzbl	mode_size(%rax), %eax	# mode_size, D.25643
	movzbl	%al, %eax	# D.25643, tmp275
	movl	%eax, -60(%rbp)	# tmp275, bytelen
	.loc 1 1970 0
	movl	$0, -52(%rbp)	#, shift
	.loc 1 1973 0
	cmpl	$0, -100(%rbp)	#, ssize
	js	.L292	#,
	.loc 1 1973 0 is_stmt 0 discriminator 1
	movl	-60(%rbp), %edx	# bytelen, D.25644
	movq	-32(%rbp), %rax	# bytepos, tmp276
	addq	%rax, %rdx	# tmp276, D.25644
	movl	-100(%rbp), %eax	# ssize, tmp277
	cltq
	cmpq	%rax, %rdx	# D.25644, D.25644
	jle	.L292	#,
	.loc 1 1975 0 is_stmt 1
	movl	-60(%rbp), %eax	# bytelen, D.25644
	movl	-100(%rbp), %edx	# ssize, tmp278
	movslq	%edx, %rdx	# tmp278, D.25644
	movq	-32(%rbp), %rcx	# bytepos, tmp279
	subq	%rdx, %rcx	# D.25644, D.25644
	movq	%rcx, %rdx	# D.25644, D.25644
	addq	%rdx, %rax	# D.25644, D.25644
	sall	$3, %eax	#, D.25645
	movl	%eax, -52(%rbp)	# D.25645, shift
	.loc 1 1976 0
	movl	-100(%rbp), %edx	# ssize, ssize.179
	movq	-32(%rbp), %rax	# bytepos, tmp280
	subl	%eax, %edx	# D.25646, tmp281
	movl	%edx, %eax	# tmp281, tmp281
	movl	%eax, -60(%rbp)	# tmp281, bytelen
	.loc 1 1977 0
	cmpl	$0, -60(%rbp)	#, bytelen
	jne	.L292	#,
	.loc 1 1978 0
	movl	$__FUNCTION__.14400, %edx	#,
	movl	$1978, %esi	#,
	movl	$.LC0, %edi	#,
	call	fancy_abort	#
.L292:
	.loc 1 1984 0
	movq	-96(%rbp), %rax	# orig_src, tmp282
	movq	%rax, -48(%rbp)	# tmp282, src
	.loc 1 1985 0
	movq	-96(%rbp), %rax	# orig_src, tmp283
	movzwl	(%rax), %eax	# orig_src_50(D)->code, D.25638
	cmpw	$66, %ax	#, D.25638
	je	.L293	#,
	.loc 1 1986 0
	movq	-96(%rbp), %rax	# orig_src, tmp284
	movzwl	(%rax), %eax	# orig_src_50(D)->code, D.25638
	cmpw	$67, %ax	#, D.25638
	je	.L294	#,
	.loc 1 1986 0 is_stmt 0 discriminator 1
	movq	-96(%rbp), %rax	# orig_src, tmp285
	movzwl	(%rax), %eax	# orig_src_50(D)->code, D.25638
	cmpw	$68, %ax	#, D.25638
	je	.L294	#,
	movq	-96(%rbp), %rax	# orig_src, tmp286
	movzwl	(%rax), %eax	# orig_src_50(D)->code, D.25638
	cmpw	$54, %ax	#, D.25638
	je	.L294	#,
	movq	-96(%rbp), %rax	# orig_src, tmp287
	movzwl	(%rax), %eax	# orig_src_50(D)->code, D.25638
	cmpw	$55, %ax	#, D.25638
	je	.L294	#,
	movq	-96(%rbp), %rax	# orig_src, tmp288
	movzwl	(%rax), %eax	# orig_src_50(D)->code, D.25638
	cmpw	$58, %ax	#, D.25638
	je	.L294	#,
	movq	-96(%rbp), %rax	# orig_src, tmp289
	movzwl	(%rax), %eax	# orig_src_50(D)->code, D.25638
	cmpw	$134, %ax	#, D.25638
	je	.L294	#,
	movq	-96(%rbp), %rax	# orig_src, tmp290
	movzwl	(%rax), %eax	# orig_src_50(D)->code, D.25638
	cmpw	$56, %ax	#, D.25638
	je	.L294	#,
	movq	-96(%rbp), %rax	# orig_src, tmp291
	movzwl	(%rax), %eax	# orig_src_50(D)->code, D.25638
	cmpw	$140, %ax	#, D.25638
	jne	.L295	#,
.L294:
	.loc 1 1987 0 is_stmt 1
	movq	-96(%rbp), %rax	# orig_src, tmp292
	movzbl	2(%rax), %eax	# orig_src_50(D)->mode, D.25643
	movzbl	%al, %eax	# D.25643, D.25646
	cmpl	-56(%rbp), %eax	# mode, D.25646
	je	.L293	#,
	.loc 1 1988 0
	movq	-96(%rbp), %rax	# orig_src, tmp293
	movzbl	2(%rax), %eax	# orig_src_50(D)->mode, D.25643
	testb	%al, %al	# D.25643
	je	.L293	#,
.L295:
	.loc 1 1990 0
	movq	-96(%rbp), %rax	# orig_src, tmp294
	movzbl	2(%rax), %eax	# orig_src_50(D)->mode, D.25643
	testb	%al, %al	# D.25643
	jne	.L296	#,
	.loc 1 1991 0
	movl	-56(%rbp), %eax	# mode, tmp295
	movl	%eax, %edi	# tmp295,
	call	gen_reg_rtx	#
	movq	%rax, -48(%rbp)	# tmp296, src
	jmp	.L297	#
.L296:
	.loc 1 1993 0
	movq	-96(%rbp), %rax	# orig_src, tmp297
	movzbl	2(%rax), %eax	# orig_src_50(D)->mode, D.25643
	movzbl	%al, %eax	# D.25643, D.25647
	movl	%eax, %edi	# D.25647,
	call	gen_reg_rtx	#
	movq	%rax, -48(%rbp)	# tmp298, src
.L297:
	.loc 1 1995 0
	movq	-96(%rbp), %rdx	# orig_src, tmp299
	movq	-48(%rbp), %rax	# src, tmp300
	movq	%rdx, %rsi	# tmp299,
	movq	%rax, %rdi	# tmp300,
	call	emit_move_insn	#
.L293:
	.loc 1 1999 0
	movq	-48(%rbp), %rax	# src, tmp301
	movzwl	(%rax), %eax	# src_2->code, D.25638
	cmpw	$66, %ax	#, D.25638
	jne	.L298	#,
	.loc 1 2000 0
	movq	-48(%rbp), %rax	# src, tmp302
	movq	16(%rax), %rax	# src_2->fld[1].rtmem, D.25648
	testq	%rax, %rax	# D.25648
	je	.L299	#,
	.loc 1 2000 0 is_stmt 0 discriminator 1
	movq	-48(%rbp), %rax	# src, tmp303
	movq	16(%rax), %rax	# src_2->fld[1].rtmem, D.25648
	movl	32(%rax), %ebx	# _71->align, iftmp.180
	jmp	.L300	#
.L299:
	.loc 1 2000 0 discriminator 2
	movl	$8, %ebx	#, iftmp.180
.L300:
	.loc 1 2000 0 discriminator 3
	movl	-56(%rbp), %eax	# mode, tmp304
	movl	%eax, %edi	# tmp304,
	call	get_mode_alignment	#
	cmpl	%eax, %ebx	# D.25646, iftmp.180
	jb	.L298	#,
	.loc 1 2001 0 is_stmt 1
	movq	-32(%rbp), %rax	# bytepos, tmp305
	leaq	0(,%rax,8), %rbx	#, D.25644
	movl	-56(%rbp), %eax	# mode, tmp306
	movl	%eax, %edi	# tmp306,
	call	get_mode_alignment	#
	movl	%eax, %ecx	# D.25646, D.25644
	movq	%rbx, %rax	# D.25644, tmp308
	cqto
	idivq	%rcx	# D.25644
	movq	%rdx, %rax	# tmp307, D.25644
	testq	%rax, %rax	# D.25644
	jne	.L298	#,
	.loc 1 2002 0
	movl	-56(%rbp), %eax	# mode, mode.181
	cltq
	movzbl	mode_size(%rax), %eax	# mode_size, D.25643
	movzbl	%al, %eax	# D.25643, D.25646
	cmpl	-60(%rbp), %eax	# bytelen, D.25646
	jne	.L298	#,
	.loc 1 2004 0
	movl	-64(%rbp), %eax	# i, tmp310
	cltq
	leaq	0(,%rax,8), %rdx	#, D.25642
	movq	-40(%rbp), %rax	# tmps, tmp311
	leaq	(%rdx,%rax), %rbx	#, D.25649
	movl	-56(%rbp), %eax	# mode, tmp312
	movl	%eax, %edi	# tmp312,
	call	gen_reg_rtx	#
	movq	%rax, (%rbx)	# D.25640, *_84
	.loc 1 2005 0
	movq	-32(%rbp), %rdx	# bytepos, tmp313
	movl	-56(%rbp), %esi	# mode, tmp314
	movq	-48(%rbp), %rax	# src, tmp315
	movl	$1, %r8d	#,
	movl	$1, %ecx	#,
	movq	%rax, %rdi	# tmp315,
	call	adjust_address_1	#
	movq	%rax, %rdx	#, D.25640
	movl	-64(%rbp), %eax	# i, tmp316
	cltq
	leaq	0(,%rax,8), %rcx	#, D.25642
	movq	-40(%rbp), %rax	# tmps, tmp317
	addq	%rcx, %rax	# D.25642, D.25649
	movq	(%rax), %rax	# *_89, D.25640
	movq	%rdx, %rsi	# D.25640,
	movq	%rax, %rdi	# D.25640,
	call	emit_move_insn	#
	jmp	.L301	#
.L298:
	.loc 1 2007 0
	movq	-48(%rbp), %rax	# src, tmp318
	movzwl	(%rax), %eax	# src_2->code, D.25638
	cmpw	$65, %ax	#, D.25638
	jne	.L302	#,
	.loc 1 2009 0
	cmpq	$0, -32(%rbp)	#, bytepos
	jne	.L303	#,
	.loc 1 2010 0
	movq	-48(%rbp), %rax	# src, tmp319
	movq	8(%rax), %rax	# src_2->fld[0].rtx, D.25640
	movzbl	2(%rax), %eax	# _92->mode, D.25643
	movzbl	%al, %eax	# D.25643, D.25641
	cltq
	movzbl	mode_size(%rax), %eax	# mode_size, D.25643
	movzbl	%al, %eax	# D.25643, D.25646
	cmpl	-60(%rbp), %eax	# bytelen, D.25646
	je	.L304	#,
.L303:
	.loc 1 2011 0
	movq	-48(%rbp), %rax	# src, tmp321
	movq	8(%rax), %rax	# src_2->fld[0].rtx, D.25640
	movzbl	2(%rax), %eax	# _97->mode, D.25643
	movzbl	%al, %eax	# D.25643, D.25641
	cltq
	movzbl	mode_size(%rax), %eax	# mode_size, D.25643
	movzbl	%al, %eax	# D.25643, D.25644
	cmpq	-32(%rbp), %rax	# bytepos, D.25644
	jne	.L305	#,
	.loc 1 2012 0
	movq	-48(%rbp), %rax	# src, tmp323
	movq	16(%rax), %rax	# src_2->fld[1].rtx, D.25640
	movzbl	2(%rax), %eax	# _102->mode, D.25643
	movzbl	%al, %eax	# D.25643, D.25641
	cltq
	movzbl	mode_size(%rax), %eax	# mode_size, D.25643
	movzbl	%al, %eax	# D.25643, D.25646
	cmpl	-60(%rbp), %eax	# bytelen, D.25646
	jne	.L305	#,
.L304:
	.loc 1 2014 0
	movl	-64(%rbp), %eax	# i, tmp325
	cltq
	leaq	0(,%rax,8), %rdx	#, D.25642
	movq	-40(%rbp), %rax	# tmps, tmp326
	leaq	(%rdx,%rax), %rcx	#, D.25649
	cmpq	$0, -32(%rbp)	#, bytepos
	setne	%al	#, D.25650
	movzbl	%al, %edx	# D.25650, D.25641
	movq	-48(%rbp), %rax	# src, tmp327
	movslq	%edx, %rdx	# D.25641, tmp328
	movq	8(%rax,%rdx,8), %rax	# src_2->fld[_122].rtx, D.25640
	movq	%rax, (%rcx)	# D.25640, *_120
	.loc 1 2015 0
	movl	-64(%rbp), %eax	# i, tmp329
	cltq
	leaq	0(,%rax,8), %rdx	#, D.25642
	movq	-40(%rbp), %rax	# tmps, tmp330
	addq	%rdx, %rax	# D.25642, D.25649
	movq	(%rax), %rax	# *_126, D.25640
	movzwl	(%rax), %eax	# _127->code, D.25638
	cmpw	$67, %ax	#, D.25638
	je	.L306	#,
	.loc 1 2015 0 is_stmt 0 discriminator 1
	movl	-64(%rbp), %eax	# i, tmp331
	cltq
	leaq	0(,%rax,8), %rdx	#, D.25642
	movq	-40(%rbp), %rax	# tmps, tmp332
	addq	%rdx, %rax	# D.25642, D.25649
	movq	(%rax), %rax	# *_131, D.25640
	movzwl	(%rax), %eax	# _132->code, D.25638
	cmpw	$68, %ax	#, D.25638
	je	.L306	#,
	movl	-64(%rbp), %eax	# i, tmp333
	cltq
	leaq	0(,%rax,8), %rdx	#, D.25642
	movq	-40(%rbp), %rax	# tmps, tmp334
	addq	%rdx, %rax	# D.25642, D.25649
	movq	(%rax), %rax	# *_136, D.25640
	movzwl	(%rax), %eax	# _137->code, D.25638
	cmpw	$54, %ax	#, D.25638
	je	.L306	#,
	movl	-64(%rbp), %eax	# i, tmp335
	cltq
	leaq	0(,%rax,8), %rdx	#, D.25642
	movq	-40(%rbp), %rax	# tmps, tmp336
	addq	%rdx, %rax	# D.25642, D.25649
	movq	(%rax), %rax	# *_141, D.25640
	movzwl	(%rax), %eax	# _142->code, D.25638
	cmpw	$55, %ax	#, D.25638
	je	.L306	#,
	movl	-64(%rbp), %eax	# i, tmp337
	cltq
	leaq	0(,%rax,8), %rdx	#, D.25642
	movq	-40(%rbp), %rax	# tmps, tmp338
	addq	%rdx, %rax	# D.25642, D.25649
	movq	(%rax), %rax	# *_146, D.25640
	movzwl	(%rax), %eax	# _147->code, D.25638
	cmpw	$58, %ax	#, D.25638
	je	.L306	#,
	movl	-64(%rbp), %eax	# i, tmp339
	cltq
	leaq	0(,%rax,8), %rdx	#, D.25642
	movq	-40(%rbp), %rax	# tmps, tmp340
	addq	%rdx, %rax	# D.25642, D.25649
	movq	(%rax), %rax	# *_151, D.25640
	movzwl	(%rax), %eax	# _152->code, D.25638
	cmpw	$134, %ax	#, D.25638
	je	.L306	#,
	movl	-64(%rbp), %eax	# i, tmp341
	cltq
	leaq	0(,%rax,8), %rdx	#, D.25642
	movq	-40(%rbp), %rax	# tmps, tmp342
	addq	%rdx, %rax	# D.25642, D.25649
	movq	(%rax), %rax	# *_156, D.25640
	movzwl	(%rax), %eax	# _157->code, D.25638
	cmpw	$56, %ax	#, D.25638
	je	.L306	#,
	movl	-64(%rbp), %eax	# i, tmp343
	cltq
	leaq	0(,%rax,8), %rdx	#, D.25642
	movq	-40(%rbp), %rax	# tmps, tmp344
	addq	%rdx, %rax	# D.25642, D.25649
	movq	(%rax), %rax	# *_161, D.25640
	movzwl	(%rax), %eax	# _162->code, D.25638
	cmpw	$140, %ax	#, D.25638
	je	.L306	#,
	.loc 1 2016 0 is_stmt 1
	movl	-64(%rbp), %eax	# i, tmp345
	cltq
	leaq	0(,%rax,8), %rdx	#, D.25642
	movq	-40(%rbp), %rax	# tmps, tmp346
	addq	%rdx, %rax	# D.25642, D.25649
	movq	(%rax), %rax	# *_166, D.25640
	movzwl	(%rax), %eax	# _167->code, D.25638
	cmpw	$61, %ax	#, D.25638
	jne	.L307	#,
	.loc 1 2016 0 is_stmt 0 discriminator 1
	movl	-64(%rbp), %eax	# i, tmp347
	cltq
	leaq	0(,%rax,8), %rdx	#, D.25642
	movq	-40(%rbp), %rax	# tmps, tmp348
	addq	%rdx, %rax	# D.25642, D.25649
	movq	(%rax), %rax	# *_171, D.25640
	movzbl	2(%rax), %eax	# _172->mode, D.25643
	movzbl	%al, %eax	# D.25643, D.25646
	cmpl	-56(%rbp), %eax	# mode, D.25646
	je	.L306	#,
.L307:
	.loc 1 2017 0 is_stmt 1
	movl	-64(%rbp), %eax	# i, tmp349
	cltq
	leaq	0(,%rax,8), %rdx	#, D.25642
	movq	-40(%rbp), %rax	# tmps, tmp350
	leaq	(%rdx,%rax), %rbx	#, D.25649
	movl	-100(%rbp), %eax	# ssize, tmp351
	movslq	%eax, %rdx	# tmp351, D.25644
	movl	-60(%rbp), %eax	# bytelen, tmp352
	sall	$3, %eax	#, D.25646
	movl	%eax, %esi	# D.25646, D.25642
	movl	-64(%rbp), %eax	# i, tmp353
	cltq
	leaq	0(,%rax,8), %rcx	#, D.25642
	movq	-40(%rbp), %rax	# tmps, tmp354
	addq	%rcx, %rax	# D.25642, D.25649
	movq	(%rax), %rax	# *_183, D.25640
	movl	-56(%rbp), %ecx	# mode, tmp355
	movq	%rdx, 8(%rsp)	# D.25644,
	movl	-56(%rbp), %edx	# mode, tmp356
	movl	%edx, (%rsp)	# tmp356,
	movl	%ecx, %r9d	# tmp355,
	movl	$0, %r8d	#,
	movl	$1, %ecx	#,
	movl	$0, %edx	#,
	movq	%rax, %rdi	# D.25640,
	call	extract_bit_field	#
	movq	%rax, (%rbx)	# D.25640, *_177
	.loc 1 2015 0
	jmp	.L308	#
.L306:
	.loc 1 2015 0 is_stmt 0 discriminator 2
	jmp	.L308	#
.L305:
	.loc 1 2020 0 is_stmt 1
	cmpq	$0, -32(%rbp)	#, bytepos
	jne	.L309	#,
.LBB26:
	.loc 1 2023 0
	movq	-48(%rbp), %rax	# src, tmp357
	movzbl	2(%rax), %eax	# src_2->mode, D.25643
	movzbl	%al, %eax	# D.25643, D.25641
	cltq
	movzbl	mode_size(%rax), %eax	# mode_size, D.25643
	.loc 1 2022 0
	movzbl	%al, %ecx	# D.25643, D.25644
	movq	-48(%rbp), %rax	# src, tmp359
	movzbl	2(%rax), %eax	# src_2->mode, D.25643
	movzbl	%al, %eax	# D.25643, D.25647
	movl	$0, %edx	#,
	movq	%rcx, %rsi	# D.25644,
	movl	%eax, %edi	# D.25647,
	call	assign_stack_temp	#
	movq	%rax, -24(%rbp)	# tmp360, mem
	.loc 1 2024 0
	movq	-48(%rbp), %rdx	# src, tmp361
	movq	-24(%rbp), %rax	# mem, tmp362
	movq	%rdx, %rsi	# tmp361,
	movq	%rax, %rdi	# tmp362,
	call	emit_move_insn	#
	.loc 1 2025 0
	movl	-64(%rbp), %eax	# i, tmp363
	cltq
	leaq	0(,%rax,8), %rdx	#, D.25642
	movq	-40(%rbp), %rax	# tmps, tmp364
	leaq	(%rdx,%rax), %rbx	#, D.25649
	movl	-56(%rbp), %esi	# mode, tmp365
	movq	-24(%rbp), %rax	# mem, tmp366
	movl	$1, %r8d	#,
	movl	$1, %ecx	#,
	movl	$0, %edx	#,
	movq	%rax, %rdi	# tmp366,
	call	adjust_address_1	#
	movq	%rax, (%rbx)	# D.25640, *_116
.LBE26:
	jmp	.L315	#
.L309:
	.loc 1 2028 0
	movl	$__FUNCTION__.14400, %edx	#,
	movl	$2028, %esi	#,
	movl	$.LC0, %edi	#,
	call	fancy_abort	#
.L308:
	jmp	.L315	#
.L302:
	.loc 1 2030 0
	movq	-48(%rbp), %rax	# src, tmp367
	movzwl	(%rax), %eax	# src_2->code, D.25638
	cmpw	$67, %ax	#, D.25638
	je	.L310	#,
	.loc 1 2030 0 is_stmt 0 discriminator 1
	movq	-48(%rbp), %rax	# src, tmp368
	movzwl	(%rax), %eax	# src_2->code, D.25638
	cmpw	$68, %ax	#, D.25638
	je	.L310	#,
	movq	-48(%rbp), %rax	# src, tmp369
	movzwl	(%rax), %eax	# src_2->code, D.25638
	cmpw	$54, %ax	#, D.25638
	je	.L310	#,
	movq	-48(%rbp), %rax	# src, tmp370
	movzwl	(%rax), %eax	# src_2->code, D.25638
	cmpw	$55, %ax	#, D.25638
	je	.L310	#,
	movq	-48(%rbp), %rax	# src, tmp371
	movzwl	(%rax), %eax	# src_2->code, D.25638
	cmpw	$58, %ax	#, D.25638
	je	.L310	#,
	movq	-48(%rbp), %rax	# src, tmp372
	movzwl	(%rax), %eax	# src_2->code, D.25638
	cmpw	$134, %ax	#, D.25638
	je	.L310	#,
	movq	-48(%rbp), %rax	# src, tmp373
	movzwl	(%rax), %eax	# src_2->code, D.25638
	cmpw	$56, %ax	#, D.25638
	je	.L310	#,
	movq	-48(%rbp), %rax	# src, tmp374
	movzwl	(%rax), %eax	# src_2->code, D.25638
	cmpw	$140, %ax	#, D.25638
	je	.L310	#,
	.loc 1 2031 0 is_stmt 1
	movq	-48(%rbp), %rax	# src, tmp375
	movzwl	(%rax), %eax	# src_2->code, D.25638
	cmpw	$61, %ax	#, D.25638
	jne	.L311	#,
	.loc 1 2031 0 is_stmt 0 discriminator 1
	movq	-48(%rbp), %rax	# src, tmp376
	movzbl	2(%rax), %eax	# src_2->mode, D.25643
	movzbl	%al, %eax	# D.25643, D.25646
	cmpl	-56(%rbp), %eax	# mode, D.25646
	jne	.L311	#,
.L310:
	.loc 1 2032 0 is_stmt 1
	movl	-64(%rbp), %eax	# i, tmp377
	cltq
	leaq	0(,%rax,8), %rdx	#, D.25642
	movq	-40(%rbp), %rax	# tmps, tmp378
	addq	%rax, %rdx	# tmp378, D.25649
	movq	-48(%rbp), %rax	# src, tmp379
	movq	%rax, (%rdx)	# tmp379, *_208
	jmp	.L301	#
.L311:
	.loc 1 2034 0
	movl	-64(%rbp), %eax	# i, tmp380
	cltq
	leaq	0(,%rax,8), %rdx	#, D.25642
	movq	-40(%rbp), %rax	# tmps, tmp381
	leaq	(%rdx,%rax), %rbx	#, D.25649
	movl	-100(%rbp), %eax	# ssize, tmp382
	movslq	%eax, %rcx	# tmp382, D.25644
	.loc 1 2035 0
	movq	-32(%rbp), %rax	# bytepos, tmp383
	salq	$3, %rax	#, D.25644
	.loc 1 2034 0
	movq	%rax, %rdx	# D.25644, D.25642
	movl	-60(%rbp), %eax	# bytelen, tmp384
	sall	$3, %eax	#, D.25646
	movl	%eax, %esi	# D.25646, D.25642
	movl	-56(%rbp), %edi	# mode, tmp385
	movq	-48(%rbp), %rax	# src, tmp386
	movq	%rcx, 8(%rsp)	# D.25644,
	movl	-56(%rbp), %ecx	# mode, tmp387
	movl	%ecx, (%rsp)	# tmp387,
	movl	%edi, %r9d	# tmp385,
	movl	$0, %r8d	#,
	movl	$1, %ecx	#,
	movq	%rax, %rdi	# tmp386,
	call	extract_bit_field	#
	movq	%rax, (%rbx)	# D.25640, *_199
	jmp	.L315	#
.L301:
.L315:
.LBE25:
	.loc 1 1965 0
	addl	$1, -64(%rbp)	#, i
.L291:
	.loc 1 1965 0 is_stmt 0 discriminator 1
	movq	-88(%rbp), %rax	# dst, tmp388
	movq	8(%rax), %rax	# dst_8(D)->fld[0].rtvec, D.25639
	movl	(%rax), %eax	# _21->num_elem, D.25641
	cmpl	-64(%rbp), %eax	# i, D.25641
	jg	.L312	#,
	.loc 1 2043 0 is_stmt 1
	call	emit_queue	#
	.loc 1 2046 0
	movl	-68(%rbp), %eax	# start, tmp389
	movl	%eax, -64(%rbp)	# tmp389, i
	jmp	.L313	#
.L314:
	.loc 1 2047 0 discriminator 2
	movl	-64(%rbp), %eax	# i, tmp390
	cltq
	leaq	0(,%rax,8), %rdx	#, D.25642
	movq	-40(%rbp), %rax	# tmps, tmp391
	addq	%rdx, %rax	# D.25642, D.25649
	movq	(%rax), %rdx	# *_215, D.25640
	movq	-88(%rbp), %rax	# dst, tmp392
	movq	8(%rax), %rax	# dst_8(D)->fld[0].rtvec, D.25639
	movl	-64(%rbp), %ecx	# i, tmp394
	movslq	%ecx, %rcx	# tmp394, tmp393
	movq	8(%rax,%rcx,8), %rax	# _217->elem, D.25640
	movq	8(%rax), %rax	# _218->fld[0].rtx, D.25640
	movq	%rdx, %rsi	# D.25640,
	movq	%rax, %rdi	# D.25640,
	call	emit_move_insn	#
	.loc 1 2046 0 discriminator 2
	addl	$1, -64(%rbp)	#, i
.L313:
	.loc 1 2046 0 is_stmt 0 discriminator 1
	movq	-88(%rbp), %rax	# dst, tmp395
	movq	8(%rax), %rax	# dst_8(D)->fld[0].rtvec, D.25639
	movl	(%rax), %eax	# _211->num_elem, D.25641
	cmpl	-64(%rbp), %eax	# i, D.25641
	jg	.L314	#,
	.loc 1 2048 0 is_stmt 1
	movq	-8(%rbp), %rbx	#,
	leave
	.cfi_def_cfa 7, 8
	ret
	.cfi_endproc
.LFE20:
	.size	emit_group_load, .-emit_group_load
	.globl	emit_group_store
	.type	emit_group_store, @function
emit_group_store:
.LFB21:
	.loc 1 2058 0
	.cfi_startproc
	pushq	%rbp	#
	.cfi_def_cfa_offset 16
	.cfi_offset 6, -16
	movq	%rsp, %rbp	#,
	.cfi_def_cfa_register 6
	pushq	%rbx	#
	subq	$104, %rsp	#,
	.cfi_offset 3, -24
	movq	%rdi, -88(%rbp)	# orig_dst, orig_dst
	movq	%rsi, -96(%rbp)	# src, src
	movl	%edx, -100(%rbp)	# ssize, ssize
	.loc 1 2062 0
	movq	-96(%rbp), %rax	# src, tmp153
	movzwl	(%rax), %eax	# src_9(D)->code, D.25652
	cmpw	$39, %ax	#, D.25652
	je	.L317	#,
	.loc 1 2063 0
	movl	$__FUNCTION__.14421, %edx	#,
	movl	$2063, %esi	#,
	movl	$.LC0, %edi	#,
	call	fancy_abort	#
.L317:
	.loc 1 2067 0
	movq	-96(%rbp), %rax	# src, tmp154
	movq	8(%rax), %rax	# src_9(D)->fld[0].rtvec, D.25653
	movq	8(%rax), %rax	# _11->elem, D.25654
	movq	8(%rax), %rax	# _12->fld[0].rtx, D.25654
	testq	%rax, %rax	# D.25654
	je	.L318	#,
	.loc 1 2068 0
	movl	$0, -80(%rbp)	#, start
	jmp	.L319	#
.L318:
	.loc 1 2070 0
	movl	$1, -80(%rbp)	#, start
.L319:
	.loc 1 2072 0
	movq	-96(%rbp), %rax	# src, tmp155
	movq	8(%rax), %rax	# src_9(D)->fld[0].rtvec, D.25653
	movl	(%rax), %eax	# _16->num_elem, D.25655
	cltq
	salq	$3, %rax	#, D.25656
	leaq	15(%rax), %rdx	#, tmp156
	movl	$16, %eax	#, tmp249
	subq	$1, %rax	#, tmp157
	addq	%rdx, %rax	# tmp156, tmp158
	movl	$16, %ebx	#, tmp250
	movl	$0, %edx	#, tmp161
	divq	%rbx	# tmp250
	imulq	$16, %rax, %rax	#, tmp160, tmp162
	subq	%rax, %rsp	# tmp162,
	movq	%rsp, %rax	#, tmp163
	addq	$15, %rax	#, tmp164
	shrq	$4, %rax	#, tmp165
	salq	$4, %rax	#, tmp166
	movq	%rax, -40(%rbp)	# tmp166, tmps
	.loc 1 2075 0
	movl	-80(%rbp), %eax	# start, tmp167
	movl	%eax, -76(%rbp)	# tmp167, i
	jmp	.L320	#
.L321:
.LBB27:
	.loc 1 2077 0 discriminator 2
	movq	-96(%rbp), %rax	# src, tmp168
	movq	8(%rax), %rax	# src_9(D)->fld[0].rtvec, D.25653
	movl	-76(%rbp), %edx	# i, tmp170
	movslq	%edx, %rdx	# tmp170, tmp169
	movq	8(%rax,%rdx,8), %rax	# _24->elem, D.25654
	movq	8(%rax), %rax	# _25->fld[0].rtx, tmp171
	movq	%rax, -32(%rbp)	# tmp171, reg
	.loc 1 2078 0 discriminator 2
	movl	-76(%rbp), %eax	# i, tmp172
	cltq
	leaq	0(,%rax,8), %rdx	#, D.25656
	movq	-40(%rbp), %rax	# tmps, tmp173
	leaq	(%rdx,%rax), %rbx	#, D.25657
	movq	-32(%rbp), %rax	# reg, tmp174
	movzbl	2(%rax), %eax	# reg_26->mode, D.25658
	movzbl	%al, %eax	# D.25658, D.25659
	movl	%eax, %edi	# D.25659,
	call	gen_reg_rtx	#
	movq	%rax, (%rbx)	# D.25654, *_29
	.loc 1 2079 0 discriminator 2
	movl	-76(%rbp), %eax	# i, tmp175
	cltq
	leaq	0(,%rax,8), %rdx	#, D.25656
	movq	-40(%rbp), %rax	# tmps, tmp176
	addq	%rdx, %rax	# D.25656, D.25657
	movq	(%rax), %rax	# *_35, D.25654
	movq	-32(%rbp), %rdx	# reg, tmp177
	movq	%rdx, %rsi	# tmp177,
	movq	%rax, %rdi	# D.25654,
	call	emit_move_insn	#
.LBE27:
	.loc 1 2075 0 discriminator 2
	addl	$1, -76(%rbp)	#, i
.L320:
	.loc 1 2075 0 is_stmt 0 discriminator 1
	movq	-96(%rbp), %rax	# src, tmp178
	movq	8(%rax), %rax	# src_9(D)->fld[0].rtvec, D.25653
	movl	(%rax), %eax	# _22->num_elem, D.25655
	cmpl	-76(%rbp), %eax	# i, D.25655
	jg	.L321	#,
	.loc 1 2081 0 is_stmt 1
	call	emit_queue	#
	.loc 1 2085 0
	movq	-88(%rbp), %rax	# orig_dst, tmp179
	movq	%rax, -64(%rbp)	# tmp179, dst
	.loc 1 2086 0
	movq	-64(%rbp), %rax	# dst, tmp180
	movzwl	(%rax), %eax	# dst_39->code, D.25652
	cmpw	$39, %ax	#, D.25652
	jne	.L322	#,
.LBB28:
	.loc 1 2093 0
	movq	-96(%rbp), %rdx	# src, tmp181
	movq	-64(%rbp), %rax	# dst, tmp182
	movq	%rdx, %rsi	# tmp181,
	movq	%rax, %rdi	# tmp182,
	call	rtx_equal_p	#
	testl	%eax, %eax	# D.25655
	je	.L323	#,
	.loc 1 2094 0
	jmp	.L316	#
.L323:
	.loc 1 2100 0
	movl	-100(%rbp), %eax	# ssize, tmp183
	movslq	%eax, %rcx	# tmp183, D.25660
	movq	-64(%rbp), %rax	# dst, tmp184
	movzbl	2(%rax), %eax	# dst_39->mode, D.25658
	movzbl	%al, %eax	# D.25658, D.25659
	movl	$0, %edx	#,
	movq	%rcx, %rsi	# D.25660,
	movl	%eax, %edi	# D.25659,
	call	assign_stack_temp	#
	movq	%rax, -24(%rbp)	# tmp185, temp
	.loc 1 2101 0
	movl	-100(%rbp), %edx	# ssize, tmp186
	movq	-96(%rbp), %rcx	# src, tmp187
	movq	-24(%rbp), %rax	# temp, tmp188
	movq	%rcx, %rsi	# tmp187,
	movq	%rax, %rdi	# tmp188,
	call	emit_group_store	#
	.loc 1 2102 0
	movl	-100(%rbp), %edx	# ssize, tmp189
	movq	-24(%rbp), %rcx	# temp, tmp190
	movq	-64(%rbp), %rax	# dst, tmp191
	movq	%rcx, %rsi	# tmp190,
	movq	%rax, %rdi	# tmp191,
	call	emit_group_load	#
	.loc 1 2103 0
	jmp	.L316	#
.L322:
.LBE28:
	.loc 1 2105 0
	movq	-64(%rbp), %rax	# dst, tmp192
	movzwl	(%rax), %eax	# dst_39->code, D.25652
	cmpw	$66, %ax	#, D.25652
	je	.L325	#,
	.loc 1 2105 0 is_stmt 0 discriminator 1
	movq	-64(%rbp), %rax	# dst, tmp193
	movzwl	(%rax), %eax	# dst_39->code, D.25652
	cmpw	$65, %ax	#, D.25652
	je	.L325	#,
	.loc 1 2107 0 is_stmt 1
	movq	-88(%rbp), %rax	# orig_dst, tmp194
	movzbl	2(%rax), %eax	# orig_dst_38(D)->mode, D.25658
	movzbl	%al, %eax	# D.25658, D.25659
	movl	%eax, %edi	# D.25659,
	call	gen_reg_rtx	#
	movq	%rax, -64(%rbp)	# tmp195, dst
	.loc 1 2109 0
	movq	const_int_rtx+512(%rip), %rdx	# const_int_rtx, D.25654
	movq	-64(%rbp), %rax	# dst, tmp196
	movq	%rdx, %rsi	# D.25654,
	movq	%rax, %rdi	# tmp196,
	call	emit_move_insn	#
.L325:
	.loc 1 2113 0
	movl	-80(%rbp), %eax	# start, tmp197
	movl	%eax, -76(%rbp)	# tmp197, i
	jmp	.L326	#
.L335:
.LBB29:
	.loc 1 2115 0
	movq	-96(%rbp), %rax	# src, tmp198
	movq	8(%rax), %rax	# src_9(D)->fld[0].rtvec, D.25653
	movl	-76(%rbp), %edx	# i, tmp200
	movslq	%edx, %rdx	# tmp200, tmp199
	movq	8(%rax,%rdx,8), %rax	# _56->elem, D.25654
	movq	16(%rax), %rax	# _57->fld[1].rtx, D.25654
	movq	8(%rax), %rax	# _58->fld[0].rtwint, tmp201
	movq	%rax, -56(%rbp)	# tmp201, bytepos
	.loc 1 2116 0
	movl	-76(%rbp), %eax	# i, tmp202
	cltq
	leaq	0(,%rax,8), %rdx	#, D.25656
	movq	-40(%rbp), %rax	# tmps, tmp203
	addq	%rdx, %rax	# D.25656, D.25657
	movq	(%rax), %rax	# *_62, D.25654
	movzbl	2(%rax), %eax	# _63->mode, D.25658
	movzbl	%al, %eax	# D.25658, tmp204
	movl	%eax, -68(%rbp)	# tmp204, mode
	.loc 1 2117 0
	movl	-68(%rbp), %eax	# mode, mode.182
	cltq
	movzbl	mode_size(%rax), %eax	# mode_size, D.25658
	movzbl	%al, %eax	# D.25658, tmp206
	movl	%eax, -72(%rbp)	# tmp206, bytelen
	.loc 1 2118 0
	movq	-64(%rbp), %rax	# dst, tmp207
	movq	%rax, -48(%rbp)	# tmp207, dest
	.loc 1 2121 0
	cmpl	$0, -100(%rbp)	#, ssize
	js	.L327	#,
	.loc 1 2121 0 is_stmt 0 discriminator 1
	movl	-72(%rbp), %edx	# bytelen, D.25660
	movq	-56(%rbp), %rax	# bytepos, tmp208
	addq	%rax, %rdx	# tmp208, D.25660
	movl	-100(%rbp), %eax	# ssize, tmp209
	cltq
	cmpq	%rax, %rdx	# D.25660, D.25660
	jle	.L327	#,
	.loc 1 2129 0 is_stmt 1
	movl	-100(%rbp), %edx	# ssize, ssize.183
	movq	-56(%rbp), %rax	# bytepos, tmp210
	subl	%eax, %edx	# D.25661, tmp211
	movl	%edx, %eax	# tmp211, tmp211
	movl	%eax, -72(%rbp)	# tmp211, bytelen
.L327:
	.loc 1 2132 0
	movq	-64(%rbp), %rax	# dst, tmp212
	movzwl	(%rax), %eax	# dst_1->code, D.25652
	cmpw	$65, %ax	#, D.25652
	jne	.L328	#,
	.loc 1 2134 0
	movl	-72(%rbp), %edx	# bytelen, D.25660
	movq	-56(%rbp), %rax	# bytepos, tmp213
	addq	%rax, %rdx	# tmp213, D.25660
	movq	-64(%rbp), %rax	# dst, tmp214
	movq	8(%rax), %rax	# dst_1->fld[0].rtx, D.25654
	movzbl	2(%rax), %eax	# _79->mode, D.25658
	movzbl	%al, %eax	# D.25658, D.25655
	cltq
	movzbl	mode_size(%rax), %eax	# mode_size, D.25658
	movzbl	%al, %eax	# D.25658, D.25660
	cmpq	%rax, %rdx	# D.25660, D.25660
	jg	.L329	#,
	.loc 1 2135 0
	movq	-64(%rbp), %rax	# dst, tmp216
	movq	8(%rax), %rax	# dst_1->fld[0].rtx, tmp217
	movq	%rax, -48(%rbp)	# tmp217, dest
	jmp	.L328	#
.L329:
	.loc 1 2136 0
	movq	-64(%rbp), %rax	# dst, tmp218
	movq	8(%rax), %rax	# dst_1->fld[0].rtx, D.25654
	movzbl	2(%rax), %eax	# _85->mode, D.25658
	movzbl	%al, %eax	# D.25658, D.25655
	cltq
	movzbl	mode_size(%rax), %eax	# mode_size, D.25658
	movzbl	%al, %eax	# D.25658, D.25660
	cmpq	-56(%rbp), %rax	# bytepos, D.25660
	jg	.L330	#,
	.loc 1 2138 0
	movq	-64(%rbp), %rax	# dst, tmp220
	movq	8(%rax), %rax	# dst_1->fld[0].rtx, D.25654
	movzbl	2(%rax), %eax	# _90->mode, D.25658
	movzbl	%al, %eax	# D.25658, D.25655
	cltq
	movzbl	mode_size(%rax), %eax	# mode_size, D.25658
	movzbl	%al, %eax	# D.25658, D.25660
	subq	%rax, -56(%rbp)	# D.25660, bytepos
	.loc 1 2139 0
	movq	-64(%rbp), %rax	# dst, tmp222
	movq	16(%rax), %rax	# dst_1->fld[1].rtx, tmp223
	movq	%rax, -48(%rbp)	# tmp223, dest
	jmp	.L328	#
.L330:
	.loc 1 2142 0
	movl	$__FUNCTION__.14421, %edx	#,
	movl	$2142, %esi	#,
	movl	$.LC0, %edi	#,
	call	fancy_abort	#
.L328:
	.loc 1 2146 0
	movq	-48(%rbp), %rax	# dest, tmp224
	movzwl	(%rax), %eax	# dest_7->code, D.25652
	cmpw	$66, %ax	#, D.25652
	jne	.L331	#,
	.loc 1 2147 0
	movq	-48(%rbp), %rax	# dest, tmp225
	movq	16(%rax), %rax	# dest_7->fld[1].rtmem, D.25662
	testq	%rax, %rax	# D.25662
	je	.L332	#,
	.loc 1 2147 0 is_stmt 0 discriminator 1
	movq	-48(%rbp), %rax	# dest, tmp226
	movq	16(%rax), %rax	# dest_7->fld[1].rtmem, D.25662
	movl	32(%rax), %ebx	# _99->align, iftmp.184
	jmp	.L333	#
.L332:
	.loc 1 2147 0 discriminator 2
	movl	$8, %ebx	#, iftmp.184
.L333:
	.loc 1 2147 0 discriminator 3
	movl	-68(%rbp), %eax	# mode, tmp227
	movl	%eax, %edi	# tmp227,
	call	get_mode_alignment	#
	cmpl	%eax, %ebx	# D.25661, iftmp.184
	jb	.L331	#,
	.loc 1 2148 0 is_stmt 1
	movq	-56(%rbp), %rax	# bytepos, tmp228
	leaq	0(,%rax,8), %rbx	#, D.25660
	movl	-68(%rbp), %eax	# mode, tmp229
	movl	%eax, %edi	# tmp229,
	call	get_mode_alignment	#
	movl	%eax, %ecx	# D.25661, D.25660
	movq	%rbx, %rax	# D.25660, tmp231
	cqto
	idivq	%rcx	# D.25660
	movq	%rdx, %rax	# tmp230, D.25660
	testq	%rax, %rax	# D.25660
	jne	.L331	#,
	.loc 1 2149 0
	movl	-68(%rbp), %eax	# mode, mode.185
	cltq
	movzbl	mode_size(%rax), %eax	# mode_size, D.25658
	movzbl	%al, %eax	# D.25658, D.25661
	cmpl	-72(%rbp), %eax	# bytelen, D.25661
	jne	.L331	#,
	.loc 1 2150 0
	movl	-76(%rbp), %eax	# i, tmp233
	cltq
	leaq	0(,%rax,8), %rdx	#, D.25656
	movq	-40(%rbp), %rax	# tmps, tmp234
	addq	%rdx, %rax	# D.25656, D.25657
	movq	(%rax), %rbx	# *_112, D.25654
	movq	-56(%rbp), %rdx	# bytepos, tmp235
	movl	-68(%rbp), %esi	# mode, tmp236
	movq	-48(%rbp), %rax	# dest, tmp237
	movl	$1, %r8d	#,
	movl	$1, %ecx	#,
	movq	%rax, %rdi	# tmp237,
	call	adjust_address_1	#
	movq	%rbx, %rsi	# D.25654,
	movq	%rax, %rdi	# D.25654,
	call	emit_move_insn	#
	jmp	.L334	#
.L331:
	.loc 1 2152 0
	movl	-100(%rbp), %eax	# ssize, tmp238
	movslq	%eax, %r8	# tmp238, D.25660
	.loc 1 2153 0
	movl	-76(%rbp), %eax	# i, tmp239
	cltq
	leaq	0(,%rax,8), %rdx	#, D.25656
	movq	-40(%rbp), %rax	# tmps, tmp240
	addq	%rdx, %rax	# D.25656, D.25657
	.loc 1 2152 0
	movq	(%rax), %rdi	# *_118, D.25654
	movq	-56(%rbp), %rax	# bytepos, tmp241
	salq	$3, %rax	#, D.25660
	movq	%rax, %rdx	# D.25660, D.25656
	movl	-72(%rbp), %eax	# bytelen, tmp242
	sall	$3, %eax	#, D.25661
	movl	%eax, %esi	# D.25661, D.25656
	movl	-68(%rbp), %ecx	# mode, tmp243
	movq	-48(%rbp), %rax	# dest, tmp244
	movq	%r8, %r9	# D.25660,
	movq	%rdi, %r8	# D.25654,
	movq	%rax, %rdi	# tmp244,
	call	store_bit_field	#
.L334:
.LBE29:
	.loc 1 2113 0
	addl	$1, -76(%rbp)	#, i
.L326:
	.loc 1 2113 0 is_stmt 0 discriminator 1
	movq	-96(%rbp), %rax	# src, tmp245
	movq	8(%rax), %rax	# src_9(D)->fld[0].rtvec, D.25653
	movl	(%rax), %eax	# _54->num_elem, D.25655
	cmpl	-76(%rbp), %eax	# i, D.25655
	jg	.L335	#,
	.loc 1 2156 0 is_stmt 1
	call	emit_queue	#
	.loc 1 2159 0
	movq	-64(%rbp), %rax	# dst, tmp246
	movzwl	(%rax), %eax	# dst_1->code, D.25652
	cmpw	$61, %ax	#, D.25652
	jne	.L316	#,
	.loc 1 2160 0
	movq	-64(%rbp), %rdx	# dst, tmp247
	movq	-88(%rbp), %rax	# orig_dst, tmp248
	movq	%rdx, %rsi	# tmp247,
	movq	%rax, %rdi	# tmp248,
	call	emit_move_insn	#
.L316:
	.loc 1 2161 0
	movq	-8(%rbp), %rbx	#,
	leave
	.cfi_def_cfa 7, 8
	ret
	.cfi_endproc
.LFE21:
	.size	emit_group_store, .-emit_group_store
	.globl	copy_blkmode_from_reg
	.type	copy_blkmode_from_reg, @function
copy_blkmode_from_reg:
.LFB22:
	.loc 1 2177 0
	.cfi_startproc
	pushq	%rbp	#
	.cfi_def_cfa_offset 16
	.cfi_offset 6, -16
	movq	%rsp, %rbp	#,
	.cfi_def_cfa_register 6
	pushq	%rbx	#
	subq	$120, %rsp	#,
	.cfi_offset 3, -24
	movq	%rdi, -88(%rbp)	# tgtblk, tgtblk
	movq	%rsi, -96(%rbp)	# srcreg, srcreg
	movq	%rdx, -104(%rbp)	# type, type
	.loc 1 2178 0
	movq	-104(%rbp), %rax	# type, tmp134
	movq	%rax, %rdi	# tmp134,
	call	int_size_in_bytes	#
	movq	%rax, -40(%rbp)	# D.25663, bytes
	.loc 1 2179 0
	movq	$0, -72(%rbp)	#, src
	movq	$0, -64(%rbp)	#, dst
	.loc 1 2180 0
	movl	target_flags(%rip), %eax	# target_flags, target_flags.187
	andl	$33554432, %eax	#, D.25664
	testl	%eax, %eax	# D.25664
	je	.L337	#,
	.loc 1 2180 0 is_stmt 0 discriminator 1
	movl	$64, %eax	#, iftmp.186
	jmp	.L338	#
.L337:
	.loc 1 2180 0 discriminator 2
	movl	$32, %eax	#, iftmp.186
.L338:
	.loc 1 2180 0 discriminator 3
	movq	-104(%rbp), %rdx	# type, tmp135
	movl	64(%rdx), %edx	# type_20(D)->type.align, D.25665
	cmpl	%edx, %eax	# D.25665, iftmp.186
	cmova	%edx, %eax	# iftmp.186,, D.25665, D.25665
	movl	%eax, %eax	# D.25665, tmp195
	movq	%rax, -32(%rbp)	# tmp195, bitsize
	.loc 1 2181 0 is_stmt 1 discriminator 3
	movq	$0, -24(%rbp)	#, big_endian_correction
	.loc 1 2183 0 discriminator 3
	cmpq	$0, -88(%rbp)	#, tgtblk
	jne	.L339	#,
	.loc 1 2186 0
	movq	-104(%rbp), %rax	# type, tmp136
	movzbl	17(%rax), %eax	# *type_20(D), tmp139
	shrb	$4, %al	#, D.25666
	andl	$1, %eax	#, D.25666
	movzbl	%al, %edx	# D.25666, D.25664
	movq	-104(%rbp), %rax	# type, tmp140
	movzbl	17(%rax), %eax	# *type_20(D), tmp143
	shrb	$3, %al	#, D.25666
	andl	$1, %eax	#, D.25666
	movzbl	%al, %eax	# D.25666, D.25664
	addl	%eax, %eax	# D.25664
	orl	%eax, %edx	# D.25664, D.25664
	movq	-104(%rbp), %rax	# type, tmp144
	movzbl	62(%rax), %eax	# *type_20(D), tmp147
	shrb	$5, %al	#, D.25666
	andl	$1, %eax	#, D.25666
	movzbl	%al, %eax	# D.25666, D.25664
	sall	$2, %eax	#, D.25664
	orl	%eax, %edx	# D.25664, D.25664
	movq	-104(%rbp), %rax	# type, tmp148
	movzbl	16(%rax), %eax	# type_20(D)->common.code, D.25667
	cmpb	$20, %al	#, D.25667
	jne	.L340	#,
	.loc 1 2186 0 is_stmt 0 discriminator 1
	movq	-104(%rbp), %rax	# type, tmp149
	movq	8(%rax), %rax	# type_20(D)->common.type, D.25668
	testq	%rax, %rax	# D.25668
	je	.L340	#,
	.loc 1 2186 0 discriminator 3
	movl	$1, %eax	#, iftmp.188
	jmp	.L341	#
.L340:
	.loc 1 2186 0 discriminator 2
	movl	$0, %eax	#, iftmp.188
.L341:
	.loc 1 2186 0 discriminator 4
	sall	$3, %eax	#, D.25664
	orl	%edx, %eax	# D.25664, D.25664
	.loc 1 2185 0 is_stmt 1 discriminator 4
	orl	$1, %eax	#, D.25664
	movl	%eax, %edx	# D.25664, D.25664
	movq	-104(%rbp), %rax	# type, tmp150
	movl	%edx, %esi	# D.25664,
	movq	%rax, %rdi	# tmp150,
	call	build_qualified_type	#
	movl	$1, %ecx	#,
	movl	$1, %edx	#,
	movl	$0, %esi	#,
	movq	%rax, %rdi	# D.25668,
	call	assign_temp	#
	movq	%rax, -88(%rbp)	# tmp151, tgtblk
	.loc 1 2189 0 discriminator 4
	movq	-88(%rbp), %rax	# tgtblk, tmp152
	movq	%rax, %rdi	# tmp152,
	call	preserve_temp_slots	#
.L339:
	.loc 1 2198 0
	movq	-96(%rbp), %rax	# srcreg, tmp153
	movzbl	2(%rax), %eax	# srcreg_53(D)->mode, D.25667
	cmpb	$51, %al	#, D.25667
	je	.L367	#,
	.loc 1 2199 0
	movq	-96(%rbp), %rax	# srcreg, tmp154
	movzbl	2(%rax), %eax	# srcreg_53(D)->mode, D.25667
	movzbl	%al, %eax	# D.25667, D.25664
	cltq
	movzbl	mode_size(%rax), %eax	# mode_size, D.25667
	movzbl	%al, %edx	# D.25667, D.25664
	movl	target_flags(%rip), %eax	# target_flags, target_flags.190
	andl	$33554432, %eax	#, D.25664
	testl	%eax, %eax	# D.25664
	je	.L343	#,
	.loc 1 2199 0 is_stmt 0 discriminator 1
	movl	$8, %eax	#, iftmp.189
	jmp	.L344	#
.L343:
	.loc 1 2199 0 discriminator 2
	movl	$4, %eax	#, iftmp.189
.L344:
	.loc 1 2199 0 discriminator 3
	cmpl	%eax, %edx	# iftmp.189, D.25664
	jge	.L367	#,
	.loc 1 2204 0 is_stmt 1
	movq	-104(%rbp), %rax	# type, tmp156
	movzbl	17(%rax), %eax	# *type_20(D), tmp159
	shrb	$5, %al	#, D.25666
	andl	$1, %eax	#, D.25666
	movzbl	%al, %edx	# D.25666, D.25664
	movl	word_mode(%rip), %eax	# word_mode, word_mode.192
	movq	-96(%rbp), %rcx	# srcreg, tmp160
	movq	%rcx, %rsi	# tmp160,
	movl	%eax, %edi	# word_mode.192,
	call	convert_to_mode	#
	movq	%rax, -96(%rbp)	# tmp161, srcreg
.L367:
	.loc 1 2222 0
	movq	$0, -56(%rbp)	#, bitpos
	movq	-24(%rbp), %rax	# big_endian_correction, tmp162
	movq	%rax, -48(%rbp)	# tmp162, xbitpos
	jmp	.L345	#
.L365:
	.loc 1 2229 0
	movl	target_flags(%rip), %eax	# target_flags, target_flags.198
	andl	$33554432, %eax	#, D.25664
	testl	%eax, %eax	# D.25664
	je	.L346	#,
	.loc 1 2229 0 is_stmt 0 discriminator 1
	movl	$64, %ebx	#, iftmp.197
	jmp	.L347	#
.L346:
	.loc 1 2229 0 discriminator 2
	movl	$32, %ebx	#, iftmp.197
.L347:
	.loc 1 2229 0 discriminator 3
	movq	-48(%rbp), %rax	# xbitpos, tmp163
	movl	$0, %edx	#, tmp164
	divq	%rbx	# iftmp.197
	movq	%rdx, %rcx	# tmp164, tmp164
	movq	%rcx, %rax	# tmp164, D.25669
	testq	%rax, %rax	# D.25669
	je	.L348	#,
	.loc 1 2230 0 is_stmt 1
	movq	-48(%rbp), %rax	# xbitpos, tmp166
	cmpq	-24(%rbp), %rax	# big_endian_correction, tmp166
	jne	.L349	#,
.L348:
	.loc 1 2232 0
	movq	-96(%rbp), %rax	# srcreg, tmp167
	movzbl	2(%rax), %eax	# srcreg_2->mode, D.25667
	.loc 1 2231 0
	movzbl	%al, %esi	# D.25667, D.25670
	movl	target_flags(%rip), %eax	# target_flags, target_flags.200
	andl	$33554432, %eax	#, D.25664
	testl	%eax, %eax	# D.25664
	je	.L350	#,
	.loc 1 2231 0 is_stmt 0 discriminator 1
	movl	$64, %ebx	#, iftmp.199
	jmp	.L351	#
.L350:
	.loc 1 2231 0 discriminator 2
	movl	$32, %ebx	#, iftmp.199
.L351:
	.loc 1 2231 0 discriminator 3
	movq	-48(%rbp), %rax	# xbitpos, tmp170
	movl	$0, %edx	#, tmp169
	divq	%rbx	# iftmp.199
	movl	%eax, %ecx	# D.25669, D.25665
	movq	-96(%rbp), %rax	# srcreg, tmp171
	movl	%esi, %edx	# D.25670,
	movl	%ecx, %esi	# D.25665,
	movq	%rax, %rdi	# tmp171,
	call	operand_subword_force	#
	movq	%rax, -72(%rbp)	# tmp172, src
.L349:
	.loc 1 2236 0 is_stmt 1
	movl	target_flags(%rip), %eax	# target_flags, target_flags.202
	andl	$33554432, %eax	#, D.25664
	testl	%eax, %eax	# D.25664
	je	.L352	#,
	.loc 1 2236 0 is_stmt 0 discriminator 1
	movl	$64, %ebx	#, iftmp.201
	jmp	.L353	#
.L352:
	.loc 1 2236 0 discriminator 2
	movl	$32, %ebx	#, iftmp.201
.L353:
	.loc 1 2236 0 discriminator 3
	movq	-56(%rbp), %rax	# bitpos, tmp173
	movl	$0, %edx	#, tmp174
	divq	%rbx	# iftmp.201
	movq	%rdx, %rcx	# tmp174, tmp174
	movq	%rcx, %rax	# tmp174, D.25669
	testq	%rax, %rax	# D.25669
	jne	.L354	#,
	.loc 1 2237 0 is_stmt 1
	movl	target_flags(%rip), %eax	# target_flags, target_flags.204
	andl	$33554432, %eax	#, D.25664
	testl	%eax, %eax	# D.25664
	je	.L355	#,
	.loc 1 2237 0 is_stmt 0 discriminator 1
	movl	$64, %ebx	#, iftmp.203
	jmp	.L356	#
.L355:
	.loc 1 2237 0 discriminator 2
	movl	$32, %ebx	#, iftmp.203
.L356:
	.loc 1 2237 0 discriminator 3
	movq	-56(%rbp), %rax	# bitpos, tmp178
	movl	$0, %edx	#, tmp177
	divq	%rbx	# iftmp.203
	movl	%eax, %esi	# D.25669, D.25665
	movq	-88(%rbp), %rax	# tgtblk, tmp179
	movl	$51, %ecx	#,
	movl	$1, %edx	#,
	movq	%rax, %rdi	# tmp179,
	call	operand_subword	#
	movq	%rax, -64(%rbp)	# tmp180, dst
.L354:
	.loc 1 2246 0 is_stmt 1
	movl	target_flags(%rip), %eax	# target_flags, target_flags.206
	andl	$33554432, %eax	#, D.25664
	.loc 1 2241 0
	testl	%eax, %eax	# D.25664
	je	.L357	#,
	.loc 1 2241 0 is_stmt 0 discriminator 1
	movl	$64, %ebx	#, iftmp.205
	jmp	.L358	#
.L357:
	.loc 1 2241 0 discriminator 2
	movl	$32, %ebx	#, iftmp.205
.L358:
	.loc 1 2245 0 is_stmt 1 discriminator 3
	movl	target_flags(%rip), %eax	# target_flags, target_flags.208
	andl	$33554432, %eax	#, D.25664
	.loc 1 2241 0 discriminator 3
	testl	%eax, %eax	# D.25664
	je	.L359	#,
	.loc 1 2241 0 is_stmt 0 discriminator 4
	movl	$64, %ecx	#, iftmp.207
	jmp	.L360	#
.L359:
	.loc 1 2241 0 discriminator 5
	movl	$32, %ecx	#, iftmp.207
.L360:
	.loc 1 2241 0 discriminator 6
	movl	word_mode(%rip), %edi	# word_mode, word_mode.209
	movl	word_mode(%rip), %r8d	# word_mode, word_mode.210
	.loc 1 2243 0 is_stmt 1 discriminator 6
	movl	target_flags(%rip), %eax	# target_flags, target_flags.212
	andl	$33554432, %eax	#, D.25664
	.loc 1 2241 0 discriminator 6
	testl	%eax, %eax	# D.25664
	je	.L361	#,
	.loc 1 2241 0 is_stmt 0 discriminator 7
	movl	$64, %esi	#, iftmp.211
	jmp	.L362	#
.L361:
	.loc 1 2241 0 discriminator 8
	movl	$32, %esi	#, iftmp.211
.L362:
	.loc 1 2241 0 discriminator 9
	movq	-48(%rbp), %rax	# xbitpos, tmp181
	movl	$0, %edx	#, tmp182
	divq	%rsi	# iftmp.211
	movq	%rdx, %rsi	# tmp182, tmp182
	movq	%rsi, %rdx	# tmp182, D.25669
	movq	-32(%rbp), %rsi	# bitsize, tmp184
	movq	-72(%rbp), %rax	# src, tmp185
	movq	%rcx, 8(%rsp)	# iftmp.207,
	movl	%edi, (%rsp)	# word_mode.209,
	movl	%r8d, %r9d	# word_mode.210,
	movl	$0, %r8d	#,
	movl	$1, %ecx	#,
	movq	%rax, %rdi	# tmp185,
	call	extract_bit_field	#
	movq	%rax, %rdi	#, D.25671
	movl	word_mode(%rip), %ecx	# word_mode, word_mode.213
	movl	target_flags(%rip), %eax	# target_flags, target_flags.215
	andl	$33554432, %eax	#, D.25664
	testl	%eax, %eax	# D.25664
	je	.L363	#,
	.loc 1 2241 0 discriminator 10
	movl	$64, %esi	#, iftmp.214
	jmp	.L364	#
.L363:
	.loc 1 2241 0 discriminator 11
	movl	$32, %esi	#, iftmp.214
.L364:
	.loc 1 2241 0 discriminator 12
	movq	-56(%rbp), %rax	# bitpos, tmp186
	movl	$0, %edx	#, tmp187
	divq	%rsi	# iftmp.214
	movq	%rdx, %rsi	# tmp187, tmp187
	movq	%rsi, %rdx	# tmp187, D.25669
	movq	-32(%rbp), %rsi	# bitsize, tmp189
	movq	-64(%rbp), %rax	# dst, tmp190
	movq	%rbx, %r9	# iftmp.205,
	movq	%rdi, %r8	# D.25671,
	movq	%rax, %rdi	# tmp190,
	call	store_bit_field	#
	.loc 1 2224 0 is_stmt 1 discriminator 12
	movq	-32(%rbp), %rax	# bitsize, tmp191
	addq	%rax, -56(%rbp)	# tmp191, bitpos
	movq	-32(%rbp), %rax	# bitsize, tmp192
	addq	%rax, -48(%rbp)	# tmp192, xbitpos
.L345:
	.loc 1 2223 0 discriminator 1
	movq	-40(%rbp), %rax	# bytes, tmp193
	salq	$3, %rax	#, D.25669
	.loc 1 2222 0 discriminator 1
	cmpq	-56(%rbp), %rax	# bitpos, D.25669
	ja	.L365	#,
	.loc 1 2249 0
	movq	-88(%rbp), %rax	# tgtblk, D.25672
	.loc 1 2250 0
	addq	$120, %rsp	#,
	popq	%rbx	#
	popq	%rbp	#
	.cfi_def_cfa 7, 8
	ret
	.cfi_endproc
.LFE22:
	.size	copy_blkmode_from_reg, .-copy_blkmode_from_reg
	.globl	use_reg
	.type	use_reg, @function
use_reg:
.LFB23:
	.loc 1 2258 0
	.cfi_startproc
	pushq	%rbp	#
	.cfi_def_cfa_offset 16
	.cfi_offset 6, -16
	movq	%rsp, %rbp	#,
	.cfi_def_cfa_register 6
	pushq	%rbx	#
	subq	$24, %rsp	#,
	.cfi_offset 3, -24
	movq	%rdi, -24(%rbp)	# call_fusage, call_fusage
	movq	%rsi, -32(%rbp)	# reg, reg
	.loc 1 2259 0
	movq	-32(%rbp), %rax	# reg, tmp64
	movzwl	(%rax), %eax	# reg_1(D)->code, D.25673
	cmpw	$61, %ax	#, D.25673
	jne	.L369	#,
	.loc 1 2260 0
	movq	-32(%rbp), %rax	# reg, tmp65
	movl	8(%rax), %eax	# reg_1(D)->fld[0].rtuint, D.25674
	cmpl	$52, %eax	#, D.25674
	jbe	.L370	#,
.L369:
	.loc 1 2261 0
	movl	$__FUNCTION__.14454, %edx	#,
	movl	$2261, %esi	#,
	movl	$.LC0, %edi	#,
	call	fancy_abort	#
.L370:
	.loc 1 2264 0
	movq	-24(%rbp), %rax	# call_fusage, tmp66
	movq	(%rax), %rbx	# *call_fusage_4(D), D.25675
	movq	-32(%rbp), %rax	# reg, tmp67
	movq	%rax, %rdx	# tmp67,
	movl	$0, %esi	#,
	movl	$48, %edi	#,
	call	gen_rtx_fmt_e	#
	movq	%rbx, %rcx	# D.25675,
	movq	%rax, %rdx	# D.25675,
	movl	$0, %esi	#,
	movl	$3, %edi	#,
	call	gen_rtx_fmt_ee	#
	movq	-24(%rbp), %rdx	# call_fusage, tmp68
	movq	%rax, (%rdx)	# D.25675, *call_fusage_4(D)
	.loc 1 2266 0
	addq	$24, %rsp	#,
	popq	%rbx	#
	popq	%rbp	#
	.cfi_def_cfa 7, 8
	ret
	.cfi_endproc
.LFE23:
	.size	use_reg, .-use_reg
	.globl	use_regs
	.type	use_regs, @function
use_regs:
.LFB24:
	.loc 1 2276 0
	.cfi_startproc
	pushq	%rbp	#
	.cfi_def_cfa_offset 16
	.cfi_offset 6, -16
	movq	%rsp, %rbp	#,
	.cfi_def_cfa_register 6
	subq	$32, %rsp	#,
	movq	%rdi, -24(%rbp)	# call_fusage, call_fusage
	movl	%esi, -28(%rbp)	# regno, regno
	movl	%edx, -32(%rbp)	# nregs, nregs
	.loc 1 2279 0
	movl	-32(%rbp), %eax	# nregs, tmp64
	movl	-28(%rbp), %edx	# regno, tmp65
	addl	%edx, %eax	# tmp65, D.25676
	cmpl	$53, %eax	#, D.25676
	jle	.L372	#,
	.loc 1 2280 0
	movl	$__FUNCTION__.14461, %edx	#,
	movl	$2280, %esi	#,
	movl	$.LC0, %edi	#,
	call	fancy_abort	#
.L372:
	.loc 1 2282 0
	movl	$0, -4(%rbp)	#, i
	jmp	.L373	#
.L374:
	.loc 1 2283 0 discriminator 2
	movl	-4(%rbp), %eax	# i, tmp66
	movl	-28(%rbp), %edx	# regno, tmp67
	addl	%eax, %edx	# tmp66, D.25676
	movl	-4(%rbp), %eax	# i, tmp68
	movl	-28(%rbp), %ecx	# regno, tmp69
	addl	%ecx, %eax	# tmp69, D.25676
	cltq
	movl	reg_raw_mode(,%rax,4), %eax	# reg_raw_mode, D.25677
	movl	%edx, %esi	# D.25676,
	movl	%eax, %edi	# D.25677,
	call	gen_rtx_REG	#
	movq	%rax, %rdx	#, D.25678
	movq	-24(%rbp), %rax	# call_fusage, tmp71
	movq	%rdx, %rsi	# D.25678,
	movq	%rax, %rdi	# tmp71,
	call	use_reg	#
	.loc 1 2282 0 discriminator 2
	addl	$1, -4(%rbp)	#, i
.L373:
	.loc 1 2282 0 is_stmt 0 discriminator 1
	movl	-4(%rbp), %eax	# i, tmp72
	cmpl	-32(%rbp), %eax	# nregs, tmp72
	jl	.L374	#,
	.loc 1 2284 0 is_stmt 1
	leave
	.cfi_def_cfa 7, 8
	ret
	.cfi_endproc
.LFE24:
	.size	use_regs, .-use_regs
	.globl	use_group_regs
	.type	use_group_regs, @function
use_group_regs:
.LFB25:
	.loc 1 2294 0
	.cfi_startproc
	pushq	%rbp	#
	.cfi_def_cfa_offset 16
	.cfi_offset 6, -16
	movq	%rsp, %rbp	#,
	.cfi_def_cfa_register 6
	subq	$32, %rsp	#,
	movq	%rdi, -24(%rbp)	# call_fusage, call_fusage
	movq	%rsi, -32(%rbp)	# regs, regs
	.loc 1 2297 0
	movl	$0, -12(%rbp)	#, i
	jmp	.L376	#
.L378:
.LBB30:
	.loc 1 2299 0
	movq	-32(%rbp), %rax	# regs, tmp64
	movq	8(%rax), %rax	# regs_3(D)->fld[0].rtvec, D.25679
	movl	-12(%rbp), %edx	# i, tmp66
	movslq	%edx, %rdx	# tmp66, tmp65
	movq	8(%rax,%rdx,8), %rax	# _6->elem, D.25681
	movq	8(%rax), %rax	# _7->fld[0].rtx, tmp67
	movq	%rax, -8(%rbp)	# tmp67, reg
	.loc 1 2304 0
	cmpq	$0, -8(%rbp)	#, reg
	je	.L377	#,
	.loc 1 2304 0 is_stmt 0 discriminator 1
	movq	-8(%rbp), %rax	# reg, tmp68
	movzwl	(%rax), %eax	# reg_8->code, D.25682
	cmpw	$61, %ax	#, D.25682
	jne	.L377	#,
	.loc 1 2305 0 is_stmt 1
	movq	-8(%rbp), %rdx	# reg, tmp69
	movq	-24(%rbp), %rax	# call_fusage, tmp70
	movq	%rdx, %rsi	# tmp69,
	movq	%rax, %rdi	# tmp70,
	call	use_reg	#
.L377:
.LBE30:
	.loc 1 2297 0
	addl	$1, -12(%rbp)	#, i
.L376:
	.loc 1 2297 0 is_stmt 0 discriminator 1
	movq	-32(%rbp), %rax	# regs, tmp71
	movq	8(%rax), %rax	# regs_3(D)->fld[0].rtvec, D.25679
	movl	(%rax), %eax	# _4->num_elem, D.25680
	cmpl	-12(%rbp), %eax	# i, D.25680
	jg	.L378	#,
	.loc 1 2307 0 is_stmt 1
	leave
	.cfi_def_cfa 7, 8
	ret
	.cfi_endproc
.LFE25:
	.size	use_group_regs, .-use_group_regs
	.globl	can_store_by_pieces
	.type	can_store_by_pieces, @function
can_store_by_pieces:
.LFB26:
	.loc 1 2316 0
	.cfi_startproc
	pushq	%rbp	#
	.cfi_def_cfa_offset 16
	.cfi_offset 6, -16
	movq	%rsp, %rbp	#,
	.cfi_def_cfa_register 6
	subq	$96, %rsp	#,
	movq	%rdi, -72(%rbp)	# len, len
	movq	%rsi, -80(%rbp)	# constfun, constfun
	movq	%rdx, -88(%rbp)	# constfundata, constfundata
	movl	%ecx, -92(%rbp)	# align, align
	.loc 1 2318 0
	movq	$0, -16(%rbp)	#, offset
	.loc 1 2324 0
	movl	-92(%rbp), %edx	# align, tmp86
	movq	-72(%rbp), %rax	# len, tmp87
	movl	%edx, %esi	# tmp86,
	movq	%rax, %rdi	# tmp87,
	call	move_by_pieces_ninsns	#
	movq	%rax, %rdx	#, D.25684
	movl	optimize_size(%rip), %eax	# optimize_size, optimize_size.217
	testl	%eax, %eax	# optimize_size.217
	jne	.L380	#,
	.loc 1 2324 0 is_stmt 0 discriminator 1
	movq	ix86_cost(%rip), %rax	# ix86_cost, ix86_cost.218
	movl	40(%rax), %eax	# ix86_cost.218_24->move_ratio, D.25683
	movl	%eax, %eax	# D.25685, iftmp.216
	jmp	.L381	#
.L380:
	.loc 1 2324 0 discriminator 2
	movl	$3, %eax	#, iftmp.216
.L381:
	.loc 1 2324 0 discriminator 3
	cmpq	%rax, %rdx	# iftmp.216, D.25684
	jb	.L382	#,
	.loc 1 2325 0 is_stmt 1
	movl	$0, %eax	#, D.25683
	jmp	.L383	#
.L382:
	.loc 1 2329 0
	movl	$128, -92(%rbp)	#, align
	.loc 1 2334 0
	movl	$0, -44(%rbp)	#, reverse
	jmp	.L384	#
.L400:
	.loc 1 2338 0
	movq	-72(%rbp), %rax	# len, tmp88
	movq	%rax, -24(%rbp)	# tmp88, l
	.loc 1 2339 0
	movl	$0, -52(%rbp)	#, mode
	.loc 1 2340 0
	movl	target_flags(%rip), %eax	# target_flags, target_flags.220
	andl	$33554432, %eax	#, D.25683
	testl	%eax, %eax	# D.25683
	je	.L385	#,
	.loc 1 2340 0 is_stmt 0 discriminator 1
	movl	$9, %eax	#, iftmp.219
	jmp	.L386	#
.L385:
	.loc 1 2340 0 discriminator 2
	movl	$5, %eax	#, iftmp.219
.L386:
	.loc 1 2340 0 discriminator 3
	movq	%rax, -32(%rbp)	# iftmp.219, max_size
	.loc 1 2341 0 is_stmt 1 discriminator 3
	jmp	.L387	#
.L398:
	.loc 1 2343 0
	movl	class_narrowest_mode+4(%rip), %eax	# class_narrowest_mode, tmp89
	movl	%eax, -48(%rbp)	# tmp89, tmode
	jmp	.L388	#
.L390:
	.loc 1 2345 0
	movl	-48(%rbp), %eax	# tmode, tmode.221
	cltq
	movzbl	mode_size(%rax), %eax	# mode_size, D.25686
	movzbl	%al, %eax	# D.25686, D.25684
	cmpq	-32(%rbp), %rax	# max_size, D.25684
	jae	.L389	#,
	.loc 1 2346 0
	movl	-48(%rbp), %eax	# tmode, tmp91
	movl	%eax, -52(%rbp)	# tmp91, mode
.L389:
	.loc 1 2344 0
	movl	-48(%rbp), %eax	# tmode, tmode.222
	cltq
	movzbl	mode_wider_mode(%rax), %eax	# mode_wider_mode, D.25686
	movzbl	%al, %eax	# D.25686, tmp93
	movl	%eax, -48(%rbp)	# tmp93, tmode
.L388:
	.loc 1 2343 0 discriminator 1
	cmpl	$0, -48(%rbp)	#, tmode
	jne	.L390	#,
	.loc 1 2348 0
	cmpl	$0, -52(%rbp)	#, mode
	jne	.L391	#,
	.loc 1 2349 0
	jmp	.L392	#
.L391:
	.loc 1 2351 0
	movq	optab_table+240(%rip), %rax	# optab_table, D.25687
	movl	-52(%rbp), %edx	# mode, mode.223
	movslq	%edx, %rdx	# mode.223, tmp94
	salq	$4, %rdx	#, tmp95
	addq	%rdx, %rax	# tmp95, tmp96
	movl	8(%rax), %eax	# _47->handlers[mode.223_48].insn_code, tmp97
	movl	%eax, -40(%rbp)	# tmp97, icode
	.loc 1 2352 0
	cmpl	$1317, -40(%rbp)	#, icode
	je	.L393	#,
	.loc 1 2353 0
	movl	-52(%rbp), %eax	# mode, tmp98
	movl	%eax, %edi	# tmp98,
	call	get_mode_alignment	#
	cmpl	-92(%rbp), %eax	# align, D.25685
	ja	.L393	#,
.LBB31:
	.loc 1 2355 0
	movl	-52(%rbp), %eax	# mode, mode.224
	cltq
	movzbl	mode_size(%rax), %eax	# mode_size, D.25686
	movzbl	%al, %eax	# D.25686, tmp100
	movl	%eax, -36(%rbp)	# tmp100, size
	.loc 1 2357 0
	jmp	.L394	#
.L397:
	.loc 1 2359 0
	cmpl	$0, -44(%rbp)	#, reverse
	je	.L395	#,
	.loc 1 2360 0
	movl	-36(%rbp), %eax	# size, D.25688
	subq	%rax, -16(%rbp)	# D.25688, offset
.L395:
	.loc 1 2362 0
	movl	-52(%rbp), %edx	# mode, tmp101
	movq	-16(%rbp), %rsi	# offset, tmp102
	movq	-88(%rbp), %rcx	# constfundata, tmp103
	movq	-80(%rbp), %rax	# constfun, tmp104
	movq	%rcx, %rdi	# tmp103,
	call	*%rax	# tmp104
	movq	%rax, -8(%rbp)	# tmp105, cst
	.loc 1 2366 0
	cmpl	$0, -44(%rbp)	#, reverse
	jne	.L396	#,
	.loc 1 2367 0
	movl	-36(%rbp), %eax	# size, D.25688
	addq	%rax, -16(%rbp)	# D.25688, offset
.L396:
	.loc 1 2369 0
	movl	-36(%rbp), %eax	# size, D.25684
	subq	%rax, -24(%rbp)	# D.25684, l
.L394:
	.loc 1 2357 0 discriminator 1
	movl	-36(%rbp), %eax	# size, D.25684
	cmpq	-24(%rbp), %rax	# l, D.25684
	jbe	.L397	#,
.L393:
.LBE31:
	.loc 1 2373 0
	movl	-52(%rbp), %eax	# mode, mode.225
	cltq
	movzbl	mode_size(%rax), %eax	# mode_size, D.25686
	movzbl	%al, %eax	# D.25686, tmp107
	movq	%rax, -32(%rbp)	# tmp107, max_size
.L387:
	.loc 1 2341 0 discriminator 1
	cmpq	$1, -32(%rbp)	#, max_size
	ja	.L398	#,
.L392:
	.loc 1 2377 0
	cmpq	$0, -24(%rbp)	#, l
	je	.L399	#,
	.loc 1 2378 0
	movl	$__FUNCTION__.14501, %edx	#,
	movl	$2378, %esi	#,
	movl	$.LC0, %edi	#,
	call	fancy_abort	#
.L399:
	.loc 1 2336 0
	addl	$1, -44(%rbp)	#, reverse
.L384:
	.loc 1 2334 0 discriminator 1
	cmpl	$0, -44(%rbp)	#, reverse
	jle	.L400	#,
	.loc 1 2381 0
	movl	$1, %eax	#, D.25683
.L383:
	.loc 1 2382 0
	leave
	.cfi_def_cfa 7, 8
	ret
	.cfi_endproc
.LFE26:
	.size	can_store_by_pieces, .-can_store_by_pieces
	.globl	store_by_pieces
	.type	store_by_pieces, @function
store_by_pieces:
.LFB27:
	.loc 1 2396 0
	.cfi_startproc
	pushq	%rbp	#
	.cfi_def_cfa_offset 16
	.cfi_offset 6, -16
	movq	%rsp, %rbp	#,
	.cfi_def_cfa_register 6
	subq	$112, %rsp	#,
	movq	%rdi, -72(%rbp)	# to, to
	movq	%rsi, -80(%rbp)	# len, len
	movq	%rdx, -88(%rbp)	# constfun, constfun
	movq	%rcx, -96(%rbp)	# constfundata, constfundata
	movl	%r8d, -100(%rbp)	# align, align
	.loc 1 2399 0
	movl	-100(%rbp), %edx	# align, tmp65
	movq	-80(%rbp), %rax	# len, tmp66
	movl	%edx, %esi	# tmp65,
	movq	%rax, %rdi	# tmp66,
	call	move_by_pieces_ninsns	#
	movq	%rax, %rdx	#, D.25689
	movl	optimize_size(%rip), %eax	# optimize_size, optimize_size.227
	testl	%eax, %eax	# optimize_size.227
	jne	.L402	#,
	.loc 1 2399 0 is_stmt 0 discriminator 1
	movq	ix86_cost(%rip), %rax	# ix86_cost, ix86_cost.228
	movl	40(%rax), %eax	# ix86_cost.228_6->move_ratio, D.25690
	movl	%eax, %eax	# D.25691, iftmp.226
	jmp	.L403	#
.L402:
	.loc 1 2399 0 discriminator 2
	movl	$3, %eax	#, iftmp.226
.L403:
	.loc 1 2399 0 discriminator 3
	cmpq	%rax, %rdx	# iftmp.226, D.25689
	jb	.L404	#,
	.loc 1 2400 0 is_stmt 1
	movl	$__FUNCTION__.14516, %edx	#,
	movl	$2400, %esi	#,
	movl	$.LC0, %edi	#,
	call	fancy_abort	#
.L404:
	.loc 1 2401 0
	movq	-72(%rbp), %rax	# to, tmp67
	movl	$1, %esi	#,
	movq	%rax, %rdi	# tmp67,
	call	protect_from_queue	#
	movq	%rax, -72(%rbp)	# tmp68, to
	.loc 1 2402 0
	movq	-88(%rbp), %rax	# constfun, tmp69
	movq	%rax, -24(%rbp)	# tmp69, data.constfun
	.loc 1 2403 0
	movq	-96(%rbp), %rax	# constfundata, tmp70
	movq	%rax, -16(%rbp)	# tmp70, data.constfundata
	.loc 1 2404 0
	movq	-80(%rbp), %rax	# len, tmp71
	movq	%rax, -40(%rbp)	# tmp71, data.len
	.loc 1 2405 0
	movq	-72(%rbp), %rax	# to, tmp72
	movq	%rax, -64(%rbp)	# tmp72, data.to
	.loc 1 2406 0
	movl	-100(%rbp), %edx	# align, tmp73
	leaq	-64(%rbp), %rax	#, tmp74
	movl	%edx, %esi	# tmp73,
	movq	%rax, %rdi	# tmp74,
	call	store_by_pieces_1	#
	.loc 1 2407 0
	leave
	.cfi_def_cfa 7, 8
	ret
	.cfi_endproc
.LFE27:
	.size	store_by_pieces, .-store_by_pieces
	.type	clear_by_pieces, @function
clear_by_pieces:
.LFB28:
	.loc 1 2418 0
	.cfi_startproc
	pushq	%rbp	#
	.cfi_def_cfa_offset 16
	.cfi_offset 6, -16
	movq	%rsp, %rbp	#,
	.cfi_def_cfa_register 6
	subq	$96, %rsp	#,
	movq	%rdi, -72(%rbp)	# to, to
	movq	%rsi, -80(%rbp)	# len, len
	movl	%edx, -84(%rbp)	# align, align
	.loc 1 2421 0
	movq	$clear_by_pieces_1, -24(%rbp)	#, data.constfun
	.loc 1 2422 0
	movq	$0, -16(%rbp)	#, data.constfundata
	.loc 1 2423 0
	movq	-80(%rbp), %rax	# len, tmp59
	movq	%rax, -40(%rbp)	# tmp59, data.len
	.loc 1 2424 0
	movq	-72(%rbp), %rax	# to, tmp60
	movq	%rax, -64(%rbp)	# tmp60, data.to
	.loc 1 2425 0
	movl	-84(%rbp), %edx	# align, tmp61
	leaq	-64(%rbp), %rax	#, tmp62
	movl	%edx, %esi	# tmp61,
	movq	%rax, %rdi	# tmp62,
	call	store_by_pieces_1	#
	.loc 1 2426 0
	leave
	.cfi_def_cfa 7, 8
	ret
	.cfi_endproc
.LFE28:
	.size	clear_by_pieces, .-clear_by_pieces
	.type	clear_by_pieces_1, @function
clear_by_pieces_1:
.LFB29:
	.loc 1 2436 0
	.cfi_startproc
	pushq	%rbp	#
	.cfi_def_cfa_offset 16
	.cfi_offset 6, -16
	movq	%rsp, %rbp	#,
	.cfi_def_cfa_register 6
	movq	%rdi, -8(%rbp)	# data, data
	movq	%rsi, -16(%rbp)	# offset, offset
	movl	%edx, -20(%rbp)	# mode, mode
	.loc 1 2437 0
	movq	const_int_rtx+512(%rip), %rax	# const_int_rtx, D.25692
	.loc 1 2438 0
	popq	%rbp	#
	.cfi_def_cfa 7, 8
	ret
	.cfi_endproc
.LFE29:
	.size	clear_by_pieces_1, .-clear_by_pieces_1
	.type	store_by_pieces_1, @function
store_by_pieces_1:
.LFB30:
	.loc 1 2449 0
	.cfi_startproc
	pushq	%rbp	#
	.cfi_def_cfa_offset 16
	.cfi_offset 6, -16
	movq	%rsp, %rbp	#,
	.cfi_def_cfa_register 6
	subq	$48, %rsp	#,
	movq	%rdi, -40(%rbp)	# data, data
	movl	%esi, -44(%rbp)	# align, align
	.loc 1 2450 0
	movq	-40(%rbp), %rax	# data, tmp105
	movq	(%rax), %rax	# data_13(D)->to, D.25693
	movq	8(%rax), %rax	# _14->fld[0].rtx, tmp106
	movq	%rax, -8(%rbp)	# tmp106, to_addr
	.loc 1 2451 0
	movl	target_flags(%rip), %eax	# target_flags, target_flags.230
	andl	$33554432, %eax	#, D.25694
	testl	%eax, %eax	# D.25694
	je	.L409	#,
	.loc 1 2451 0 is_stmt 0 discriminator 1
	movl	$9, %eax	#, iftmp.229
	jmp	.L410	#
.L409:
	.loc 1 2451 0 discriminator 2
	movl	$5, %eax	#, iftmp.229
.L410:
	.loc 1 2451 0 discriminator 3
	movq	%rax, -16(%rbp)	# iftmp.229, max_size
	.loc 1 2452 0 is_stmt 1 discriminator 3
	movl	$0, -28(%rbp)	#, mode
	.loc 1 2455 0 discriminator 3
	movq	-40(%rbp), %rax	# data, tmp107
	movq	$0, 32(%rax)	#, data_13(D)->offset
	.loc 1 2456 0 discriminator 3
	movq	-40(%rbp), %rax	# data, tmp108
	movq	-8(%rbp), %rdx	# to_addr, tmp109
	movq	%rdx, 8(%rax)	# tmp109, data_13(D)->to_addr
	.loc 1 2458 0 discriminator 3
	movq	-8(%rbp), %rax	# to_addr, tmp110
	movzwl	(%rax), %eax	# to_addr_15->code, D.25695
	.loc 1 2459 0 discriminator 3
	cmpw	$97, %ax	#, D.25695
	je	.L411	#,
	.loc 1 2458 0
	movq	-8(%rbp), %rax	# to_addr, tmp111
	movzwl	(%rax), %eax	# to_addr_15->code, D.25695
	cmpw	$96, %ax	#, D.25695
	je	.L411	#,
	.loc 1 2459 0
	movq	-8(%rbp), %rax	# to_addr, tmp112
	movzwl	(%rax), %eax	# to_addr_15->code, D.25695
	cmpw	$99, %ax	#, D.25695
	je	.L411	#,
	.loc 1 2459 0 is_stmt 0 discriminator 1
	movq	-8(%rbp), %rax	# to_addr, tmp113
	movzwl	(%rax), %eax	# to_addr_15->code, D.25695
	cmpw	$98, %ax	#, D.25695
	jne	.L412	#,
.L411:
	movl	$1, %eax	#, iftmp.231
	jmp	.L413	#
.L412:
	.loc 1 2459 0 discriminator 2
	movl	$0, %eax	#, iftmp.231
.L413:
	.loc 1 2458 0 is_stmt 1
	movq	-40(%rbp), %rdx	# data, tmp114
	movl	%eax, 16(%rdx)	# iftmp.231, data_13(D)->autinc_to
	.loc 1 2461 0
	movq	-40(%rbp), %rax	# data, tmp115
	movl	$0, 20(%rax)	#, data_13(D)->explicit_inc_to
	.loc 1 2463 0
	movq	-8(%rbp), %rax	# to_addr, tmp116
	movzwl	(%rax), %eax	# to_addr_15->code, D.25695
	cmpw	$96, %ax	#, D.25695
	je	.L414	#,
	.loc 1 2463 0 is_stmt 0 discriminator 2
	movq	-8(%rbp), %rax	# to_addr, tmp117
	movzwl	(%rax), %eax	# to_addr_15->code, D.25695
	cmpw	$98, %ax	#, D.25695
	jne	.L415	#,
.L414:
	.loc 1 2463 0 discriminator 1
	movl	$1, %eax	#, iftmp.232
	jmp	.L416	#
.L415:
	.loc 1 2463 0 discriminator 3
	movl	$0, %eax	#, iftmp.232
.L416:
	.loc 1 2463 0 discriminator 4
	movq	-40(%rbp), %rdx	# data, tmp118
	movl	%eax, 56(%rdx)	# iftmp.232, data_13(D)->reverse
	.loc 1 2464 0 is_stmt 1 discriminator 4
	movq	-40(%rbp), %rax	# data, tmp119
	movl	56(%rax), %eax	# data_13(D)->reverse, D.25694
	testl	%eax, %eax	# D.25694
	je	.L417	#,
	.loc 1 2465 0
	movq	-40(%rbp), %rax	# data, tmp120
	movq	24(%rax), %rax	# data_13(D)->len, D.25696
	movq	%rax, %rdx	# D.25696, D.25697
	movq	-40(%rbp), %rax	# data, tmp121
	movq	%rdx, 32(%rax)	# D.25697, data_13(D)->offset
.L417:
	.loc 1 2470 0
	movq	-40(%rbp), %rax	# data, tmp122
	movl	16(%rax), %eax	# data_13(D)->autinc_to, D.25694
	testl	%eax, %eax	# D.25694
	jne	.L432	#,
	.loc 1 2471 0
	movq	-40(%rbp), %rax	# data, tmp123
	movq	24(%rax), %rax	# data_13(D)->len, D.25696
	movl	-44(%rbp), %edx	# align, tmp124
	movl	%edx, %esi	# tmp124,
	movq	%rax, %rdi	# D.25696,
	call	move_by_pieces_ninsns	#
	cmpq	$2, %rax	#, D.25696
	jbe	.L432	#,
	.loc 1 2474 0
	movl	class_narrowest_mode+4(%rip), %eax	# class_narrowest_mode, tmp125
	movl	%eax, -24(%rbp)	# tmp125, tmode
	jmp	.L419	#
.L421:
	.loc 1 2476 0
	movl	-24(%rbp), %eax	# tmode, tmode.233
	cltq
	movzbl	mode_size(%rax), %eax	# mode_size, D.25698
	movzbl	%al, %eax	# D.25698, D.25696
	cmpq	-16(%rbp), %rax	# max_size, D.25696
	jae	.L420	#,
	.loc 1 2477 0
	movl	-24(%rbp), %eax	# tmode, tmp127
	movl	%eax, -28(%rbp)	# tmp127, mode
.L420:
	.loc 1 2475 0
	movl	-24(%rbp), %eax	# tmode, tmode.234
	cltq
	movzbl	mode_wider_mode(%rax), %eax	# mode_wider_mode, D.25698
	movzbl	%al, %eax	# D.25698, tmp129
	movl	%eax, -24(%rbp)	# tmp129, tmode
.L419:
	.loc 1 2474 0 discriminator 1
	cmpl	$0, -24(%rbp)	#, tmode
	jne	.L421	#,
	.loc 1 2494 0
	movq	-40(%rbp), %rax	# data, tmp130
	movl	16(%rax), %eax	# data_13(D)->autinc_to, D.25694
	testl	%eax, %eax	# D.25694
	jne	.L432	#,
	.loc 1 2494 0 is_stmt 0 discriminator 1
	movq	-8(%rbp), %rax	# to_addr, tmp131
	movzwl	(%rax), %eax	# to_addr_15->code, D.25695
	cmpw	$67, %ax	#, D.25695
	je	.L422	#,
	movq	-8(%rbp), %rax	# to_addr, tmp132
	movzwl	(%rax), %eax	# to_addr_15->code, D.25695
	cmpw	$68, %ax	#, D.25695
	je	.L422	#,
	movq	-8(%rbp), %rax	# to_addr, tmp133
	movzwl	(%rax), %eax	# to_addr_15->code, D.25695
	cmpw	$54, %ax	#, D.25695
	je	.L422	#,
	movq	-8(%rbp), %rax	# to_addr, tmp134
	movzwl	(%rax), %eax	# to_addr_15->code, D.25695
	cmpw	$55, %ax	#, D.25695
	je	.L422	#,
	movq	-8(%rbp), %rax	# to_addr, tmp135
	movzwl	(%rax), %eax	# to_addr_15->code, D.25695
	cmpw	$58, %ax	#, D.25695
	je	.L422	#,
	movq	-8(%rbp), %rax	# to_addr, tmp136
	movzwl	(%rax), %eax	# to_addr_15->code, D.25695
	cmpw	$134, %ax	#, D.25695
	je	.L422	#,
	movq	-8(%rbp), %rax	# to_addr, tmp137
	movzwl	(%rax), %eax	# to_addr_15->code, D.25695
	cmpw	$56, %ax	#, D.25695
	je	.L422	#,
	movq	-8(%rbp), %rax	# to_addr, tmp138
	movzwl	(%rax), %eax	# to_addr_15->code, D.25695
	cmpw	$140, %ax	#, D.25695
	jne	.L432	#,
.L422:
	.loc 1 2495 0 is_stmt 1
	movq	-8(%rbp), %rax	# to_addr, tmp139
	movq	%rax, %rdi	# tmp139,
	call	copy_addr_to_reg	#
	movq	-40(%rbp), %rdx	# data, tmp140
	movq	%rax, 8(%rdx)	# D.25693, data_13(D)->to_addr
.L432:
	.loc 1 2500 0
	movl	$128, -44(%rbp)	#, align
	.loc 1 2505 0
	jmp	.L423	#
.L430:
	.loc 1 2507 0
	movl	class_narrowest_mode+4(%rip), %eax	# class_narrowest_mode, tmp141
	movl	%eax, -24(%rbp)	# tmp141, tmode
	jmp	.L424	#
.L426:
	.loc 1 2509 0
	movl	-24(%rbp), %eax	# tmode, tmode.235
	cltq
	movzbl	mode_size(%rax), %eax	# mode_size, D.25698
	movzbl	%al, %eax	# D.25698, D.25696
	cmpq	-16(%rbp), %rax	# max_size, D.25696
	jae	.L425	#,
	.loc 1 2510 0
	movl	-24(%rbp), %eax	# tmode, tmp143
	movl	%eax, -28(%rbp)	# tmp143, mode
.L425:
	.loc 1 2508 0
	movl	-24(%rbp), %eax	# tmode, tmode.236
	cltq
	movzbl	mode_wider_mode(%rax), %eax	# mode_wider_mode, D.25698
	movzbl	%al, %eax	# D.25698, tmp145
	movl	%eax, -24(%rbp)	# tmp145, tmode
.L424:
	.loc 1 2507 0 discriminator 1
	cmpl	$0, -24(%rbp)	#, tmode
	jne	.L426	#,
	.loc 1 2512 0
	cmpl	$0, -28(%rbp)	#, mode
	jne	.L427	#,
	.loc 1 2513 0
	jmp	.L428	#
.L427:
	.loc 1 2515 0
	movq	optab_table+240(%rip), %rax	# optab_table, D.25699
	movl	-28(%rbp), %edx	# mode, mode.237
	movslq	%edx, %rdx	# mode.237, tmp146
	salq	$4, %rdx	#, tmp147
	addq	%rdx, %rax	# tmp147, tmp148
	movl	8(%rax), %eax	# _66->handlers[mode.237_67].insn_code, tmp149
	movl	%eax, -20(%rbp)	# tmp149, icode
	.loc 1 2516 0
	cmpl	$1317, -20(%rbp)	#, icode
	je	.L429	#,
	.loc 1 2516 0 is_stmt 0 discriminator 1
	movl	-28(%rbp), %eax	# mode, tmp150
	movl	%eax, %edi	# tmp150,
	call	get_mode_alignment	#
	cmpl	-44(%rbp), %eax	# align, D.25700
	ja	.L429	#,
	.loc 1 2517 0 is_stmt 1
	movl	-20(%rbp), %eax	# icode, icode.238
	movslq	%eax, %rdx	# icode.238, tmp151
	movq	%rdx, %rax	# tmp151, tmp152
	salq	$2, %rax	#, tmp152
	addq	%rdx, %rax	# tmp151, tmp152
	salq	$3, %rax	#, tmp153
	addq	$insn_data+16, %rax	#, tmp154
	movq	(%rax), %rax	# insn_data[icode.238_70].genfun, D.25701
	movq	-40(%rbp), %rdx	# data, tmp155
	movl	-28(%rbp), %ecx	# mode, tmp156
	movl	%ecx, %esi	# tmp156,
	movq	%rax, %rdi	# D.25701,
	call	store_by_pieces_2	#
.L429:
	.loc 1 2519 0
	movl	-28(%rbp), %eax	# mode, mode.239
	cltq
	movzbl	mode_size(%rax), %eax	# mode_size, D.25698
	movzbl	%al, %eax	# D.25698, tmp158
	movq	%rax, -16(%rbp)	# tmp158, max_size
.L423:
	.loc 1 2505 0 discriminator 1
	cmpq	$1, -16(%rbp)	#, max_size
	ja	.L430	#,
.L428:
	.loc 1 2523 0
	movq	-40(%rbp), %rax	# data, tmp159
	movq	24(%rax), %rax	# data_13(D)->len, D.25696
	testq	%rax, %rax	# D.25696
	je	.L408	#,
	.loc 1 2524 0
	movl	$__FUNCTION__.14546, %edx	#,
	movl	$2524, %esi	#,
	movl	$.LC0, %edi	#,
	call	fancy_abort	#
.L408:
	.loc 1 2525 0
	leave
	.cfi_def_cfa 7, 8
	ret
	.cfi_endproc
.LFE30:
	.size	store_by_pieces_1, .-store_by_pieces_1
	.type	store_by_pieces_2, @function
store_by_pieces_2:
.LFB31:
	.loc 1 2536 0
	.cfi_startproc
	pushq	%rbp	#
	.cfi_def_cfa_offset 16
	.cfi_offset 6, -16
	movq	%rsp, %rbp	#,
	.cfi_def_cfa_register 6
	subq	$64, %rsp	#,
	movq	%rdi, -40(%rbp)	# genfun, genfun
	movl	%esi, -44(%rbp)	# mode, mode
	movq	%rdx, -56(%rbp)	# data, data
	.loc 1 2537 0
	movl	-44(%rbp), %eax	# mode, mode.240
	cltq
	movzbl	mode_size(%rax), %eax	# mode_size, D.25702
	movzbl	%al, %eax	# D.25702, tmp85
	movl	%eax, -20(%rbp)	# tmp85, size
	.loc 1 2540 0
	jmp	.L434	#
.L439:
	.loc 1 2542 0
	movq	-56(%rbp), %rax	# data, tmp86
	movl	56(%rax), %eax	# data_6(D)->reverse, D.25704
	testl	%eax, %eax	# D.25704
	je	.L435	#,
	.loc 1 2543 0
	movq	-56(%rbp), %rax	# data, tmp87
	movq	32(%rax), %rdx	# data_6(D)->offset, D.25705
	movl	-20(%rbp), %eax	# size, D.25705
	subq	%rax, %rdx	# D.25705, D.25705
	movq	-56(%rbp), %rax	# data, tmp88
	movq	%rdx, 32(%rax)	# D.25705, data_6(D)->offset
.L435:
	.loc 1 2545 0
	movq	-56(%rbp), %rax	# data, tmp89
	movl	16(%rax), %eax	# data_6(D)->autinc_to, D.25704
	testl	%eax, %eax	# D.25704
	je	.L436	#,
	.loc 1 2546 0
	movq	-56(%rbp), %rax	# data, tmp90
	movq	32(%rax), %rcx	# data_6(D)->offset, D.25705
	movq	-56(%rbp), %rax	# data, tmp91
	movq	8(%rax), %rdx	# data_6(D)->to_addr, D.25706
	movq	-56(%rbp), %rax	# data, tmp92
	movq	(%rax), %rax	# data_6(D)->to, D.25706
	movl	-44(%rbp), %esi	# mode, tmp93
	movl	$1, %r8d	#,
	movq	%rax, %rdi	# D.25706,
	call	adjust_automodify_address_1	#
	movq	%rax, -16(%rbp)	# tmp94, to1
	jmp	.L440	#
.L436:
	.loc 1 2549 0
	movq	-56(%rbp), %rax	# data, tmp95
	movq	32(%rax), %rdx	# data_6(D)->offset, D.25705
	movq	-56(%rbp), %rax	# data, tmp96
	movq	(%rax), %rax	# data_6(D)->to, D.25706
	movl	-44(%rbp), %esi	# mode, tmp97
	movl	$1, %r8d	#,
	movl	$1, %ecx	#,
	movq	%rax, %rdi	# D.25706,
	call	adjust_address_1	#
	movq	%rax, -16(%rbp)	# tmp98, to1
.L440:
	.loc 1 2555 0
	movq	-56(%rbp), %rax	# data, tmp99
	movq	40(%rax), %rax	# data_6(D)->constfun, D.25707
	movq	-56(%rbp), %rdx	# data, tmp100
	movq	32(%rdx), %rsi	# data_6(D)->offset, D.25705
	movq	-56(%rbp), %rdx	# data, tmp101
	movq	48(%rdx), %rcx	# data_6(D)->constfundata, D.25708
	movl	-44(%rbp), %edx	# mode, tmp102
	movq	%rcx, %rdi	# D.25708,
	call	*%rax	# D.25707
	movq	%rax, -8(%rbp)	# tmp103, cst
	.loc 1 2556 0
	movq	-8(%rbp), %rcx	# cst, tmp104
	movq	-16(%rbp), %rax	# to1, tmp105
	movq	-40(%rbp), %rdx	# genfun, tmp106
	movq	%rcx, %rsi	# tmp104,
	movq	%rax, %rdi	# tmp105,
	movl	$0, %eax	#,
	call	*%rdx	# tmp106
	movq	%rax, %rdi	# D.25706,
	call	emit_insn	#
	.loc 1 2561 0
	movq	-56(%rbp), %rax	# data, tmp107
	movl	56(%rax), %eax	# data_6(D)->reverse, D.25704
	testl	%eax, %eax	# D.25704
	jne	.L438	#,
	.loc 1 2562 0
	movq	-56(%rbp), %rax	# data, tmp108
	movq	32(%rax), %rdx	# data_6(D)->offset, D.25705
	movl	-20(%rbp), %eax	# size, D.25705
	addq	%rax, %rdx	# D.25705, D.25705
	movq	-56(%rbp), %rax	# data, tmp109
	movq	%rdx, 32(%rax)	# D.25705, data_6(D)->offset
.L438:
	.loc 1 2564 0
	movq	-56(%rbp), %rax	# data, tmp110
	movq	24(%rax), %rdx	# data_6(D)->len, D.25703
	movl	-20(%rbp), %eax	# size, D.25703
	subq	%rax, %rdx	# D.25703, D.25703
	movq	-56(%rbp), %rax	# data, tmp111
	movq	%rdx, 24(%rax)	# D.25703, data_6(D)->len
.L434:
	.loc 1 2540 0 discriminator 1
	movq	-56(%rbp), %rax	# data, tmp112
	movq	24(%rax), %rdx	# data_6(D)->len, D.25703
	movl	-20(%rbp), %eax	# size, D.25703
	cmpq	%rax, %rdx	# D.25703, D.25703
	jae	.L439	#,
	.loc 1 2566 0
	leave
	.cfi_def_cfa 7, 8
	ret
	.cfi_endproc
.LFE31:
	.size	store_by_pieces_2, .-store_by_pieces_2
	.section	.rodata
.LC2:
	.string	"memset"
	.text
	.globl	clear_storage
	.type	clear_storage, @function
clear_storage:
.LFB32:
	.loc 1 2575 0
	.cfi_startproc
	pushq	%rbp	#
	.cfi_def_cfa_offset 16
	.cfi_offset 6, -16
	movq	%rsp, %rbp	#,
	.cfi_def_cfa_register 6
	pushq	%rbx	#
	subq	$120, %rsp	#,
	.cfi_offset 3, -24
	movq	%rdi, -120(%rbp)	# object, object
	movq	%rsi, -128(%rbp)	# size, size
	.loc 1 2580 0
	movq	$0, -88(%rbp)	#, retval
	.loc 1 2581 0
	movq	-120(%rbp), %rax	# object, tmp161
	movzwl	(%rax), %eax	# object_11(D)->code, D.25710
	.loc 1 2582 0
	cmpw	$66, %ax	#, D.25710
	jne	.L442	#,
	.loc 1 2581 0
	movq	-120(%rbp), %rax	# object, tmp162
	movq	16(%rax), %rax	# object_11(D)->fld[1].rtmem, D.25711
	testq	%rax, %rax	# D.25711
	je	.L443	#,
	.loc 1 2581 0 is_stmt 0 discriminator 1
	movq	-120(%rbp), %rax	# object, tmp163
	movq	16(%rax), %rax	# object_11(D)->fld[1].rtmem, D.25711
	movl	32(%rax), %eax	# _14->align, iftmp.242
	jmp	.L445	#
.L443:
	.loc 1 2581 0 discriminator 2
	movl	$8, %eax	#, iftmp.242
	jmp	.L445	#
.L442:
	.loc 1 2582 0 is_stmt 1 discriminator 1
	movq	-120(%rbp), %rax	# object, tmp164
	movzbl	2(%rax), %eax	# object_11(D)->mode, D.25712
	movzbl	%al, %eax	# D.25712, D.25713
	movl	%eax, %edi	# D.25713,
	call	get_mode_alignment	#
.L445:
	.loc 1 2581 0
	movl	%eax, -96(%rbp)	# iftmp.241, align
	.loc 1 2586 0
	movq	-120(%rbp), %rax	# object, tmp165
	movzbl	2(%rax), %eax	# object_11(D)->mode, D.25712
	cmpb	$51, %al	#, D.25712
	je	.L446	#,
	.loc 1 2587 0
	movq	-128(%rbp), %rax	# size, tmp166
	movzwl	(%rax), %eax	# size_23(D)->code, D.25710
	cmpw	$54, %ax	#, D.25710
	jne	.L446	#,
	.loc 1 2588 0
	movq	-120(%rbp), %rax	# object, tmp167
	movzbl	2(%rax), %eax	# object_11(D)->mode, D.25712
	movzbl	%al, %eax	# D.25712, D.25714
	cltq
	movzbl	mode_size(%rax), %eax	# mode_size, D.25712
	movzbl	%al, %edx	# D.25712, D.25715
	movq	-128(%rbp), %rax	# size, tmp169
	movq	8(%rax), %rax	# size_23(D)->fld[0].rtwint, D.25716
	cmpl	%eax, %edx	# D.25715, D.25715
	jne	.L446	#,
	.loc 1 2589 0
	movq	-120(%rbp), %rax	# object, tmp170
	movzbl	2(%rax), %eax	# object_11(D)->mode, D.25712
	movzbl	%al, %eax	# D.25712, D.25714
	cltq
	movq	const_tiny_rtx(,%rax,8), %rdx	# const_tiny_rtx, D.25717
	movq	-120(%rbp), %rax	# object, tmp172
	movq	%rdx, %rsi	# D.25717,
	movq	%rax, %rdi	# tmp172,
	call	emit_move_insn	#
	jmp	.L447	#
.L446:
	.loc 1 2592 0
	movq	-120(%rbp), %rax	# object, tmp173
	movl	$1, %esi	#,
	movq	%rax, %rdi	# tmp173,
	call	protect_from_queue	#
	movq	%rax, -120(%rbp)	# tmp174, object
	.loc 1 2593 0
	movq	-128(%rbp), %rax	# size, tmp175
	movl	$0, %esi	#,
	movq	%rax, %rdi	# tmp175,
	call	protect_from_queue	#
	movq	%rax, -128(%rbp)	# tmp176, size
	.loc 1 2595 0
	movq	-128(%rbp), %rax	# size, tmp177
	movzwl	(%rax), %eax	# size_35->code, D.25710
	cmpw	$54, %ax	#, D.25710
	jne	.L448	#,
	.loc 1 2596 0
	movq	-128(%rbp), %rax	# size, tmp178
	movq	8(%rax), %rax	# size_35->fld[0].rtwint, D.25716
	movl	-96(%rbp), %edx	# align, tmp179
	movl	%edx, %esi	# tmp179,
	movq	%rax, %rdi	# D.25718,
	call	move_by_pieces_ninsns	#
	movq	%rax, %rdx	#, D.25718
	movl	optimize_size(%rip), %eax	# optimize_size, optimize_size.244
	testl	%eax, %eax	# optimize_size.244
	jne	.L449	#,
	.loc 1 2596 0 is_stmt 0 discriminator 1
	movq	ix86_cost(%rip), %rax	# ix86_cost, ix86_cost.245
	movl	40(%rax), %eax	# ix86_cost.245_41->move_ratio, D.25714
	movl	%eax, %eax	# D.25715, iftmp.243
	jmp	.L450	#
.L449:
	.loc 1 2596 0 discriminator 2
	movl	$3, %eax	#, iftmp.243
.L450:
	.loc 1 2596 0 discriminator 3
	cmpq	%rax, %rdx	# iftmp.243, D.25718
	jae	.L448	#,
	.loc 1 2597 0 is_stmt 1
	movq	-128(%rbp), %rax	# size, tmp180
	movq	8(%rax), %rax	# size_35->fld[0].rtwint, D.25716
	movq	%rax, %rcx	# D.25716, D.25718
	movl	-96(%rbp), %edx	# align, tmp181
	movq	-120(%rbp), %rax	# object, tmp182
	movq	%rcx, %rsi	# D.25718,
	movq	%rax, %rdi	# tmp182,
	call	clear_by_pieces	#
	jmp	.L447	#
.L448:
.LBB32:
	.loc 1 2604 0
	movl	-96(%rbp), %eax	# align, tmp183
	shrl	$3, %eax	#, D.25715
	movl	%eax, %eax	# D.25715, D.25716
	movq	%rax, %rsi	# D.25716,
	movl	$0, %edi	#,
	call	gen_rtx_CONST_INT	#
	movq	%rax, -72(%rbp)	# tmp184, opalign
	.loc 1 2607 0
	movl	class_narrowest_mode+4(%rip), %eax	# class_narrowest_mode, tmp185
	movl	%eax, -100(%rbp)	# tmp185, mode
	jmp	.L451	#
.L462:
.LBB33:
	.loc 1 2610 0
	movl	-100(%rbp), %eax	# mode, mode.246
	cltq
	movl	clrstr_optab(,%rax,4), %eax	# clrstr_optab, tmp187
	movl	%eax, -92(%rbp)	# tmp187, code
	.loc 1 2613 0
	cmpl	$1317, -92(%rbp)	#, code
	je	.L452	#,
	.loc 1 2618 0
	movq	-128(%rbp), %rax	# size, tmp188
	movzwl	(%rax), %eax	# size_35->code, D.25710
	cmpw	$54, %ax	#, D.25710
	jne	.L453	#,
	.loc 1 2619 0
	movq	-128(%rbp), %rax	# size, tmp189
	movq	8(%rax), %rax	# size_35->fld[0].rtwint, D.25716
	movq	%rax, %rdx	# D.25716, D.25718
	.loc 1 2620 0
	movl	-100(%rbp), %eax	# mode, mode.247
	cltq
	movq	mode_mask_array(,%rax,8), %rax	# mode_mask_array, D.25718
	shrq	%rax	# D.25718
	.loc 1 2619 0
	cmpq	%rax, %rdx	# D.25718, D.25718
	jbe	.L454	#,
.L453:
	.loc 1 2621 0
	movl	-100(%rbp), %eax	# mode, mode.248
	cltq
	movzwl	mode_bitsize(%rax,%rax), %eax	# mode_bitsize, D.25710
	movzwl	%ax, %edx	# D.25710, D.25714
	movl	target_flags(%rip), %eax	# target_flags, target_flags.250
	andl	$33554432, %eax	#, D.25714
	testl	%eax, %eax	# D.25714
	je	.L455	#,
	.loc 1 2621 0 is_stmt 0 discriminator 1
	movl	$64, %eax	#, iftmp.249
	jmp	.L456	#
.L455:
	.loc 1 2621 0 discriminator 2
	movl	$32, %eax	#, iftmp.249
.L456:
	.loc 1 2621 0 discriminator 3
	cmpl	%eax, %edx	# iftmp.249, D.25714
	jl	.L452	#,
.L454:
	.loc 1 2622 0 is_stmt 1
	movl	-92(%rbp), %eax	# code, code.251
	movslq	%eax, %rdx	# code.251, tmp192
	movq	%rdx, %rax	# tmp192, tmp193
	salq	$2, %rax	#, tmp193
	addq	%rdx, %rax	# tmp192, tmp193
	salq	$3, %rax	#, tmp194
	addq	$insn_data+24, %rax	#, tmp195
	movq	(%rax), %rax	# insn_data[code.251_67].operand, D.25719
	movq	(%rax), %rax	# _68->predicate, tmp196
	movq	%rax, -64(%rbp)	# tmp196, pred
	cmpq	$0, -64(%rbp)	#, pred
	je	.L457	#,
	.loc 1 2623 0
	movq	-120(%rbp), %rdx	# object, tmp197
	movq	-64(%rbp), %rax	# pred, tmp198
	movl	$51, %esi	#,
	movq	%rdx, %rdi	# tmp197,
	call	*%rax	# tmp198
	testl	%eax, %eax	# D.25714
	je	.L452	#,
.L457:
	.loc 1 2624 0
	movl	-92(%rbp), %eax	# code, code.252
	movslq	%eax, %rdx	# code.252, tmp199
	movq	%rdx, %rax	# tmp199, tmp200
	salq	$2, %rax	#, tmp200
	addq	%rdx, %rax	# tmp199, tmp200
	salq	$3, %rax	#, tmp201
	addq	$insn_data+24, %rax	#, tmp202
	movq	(%rax), %rax	# insn_data[code.252_71].operand, D.25719
	addq	$48, %rax	#, D.25719
	movq	(%rax), %rax	# _73->predicate, tmp203
	movq	%rax, -64(%rbp)	# tmp203, pred
	cmpq	$0, -64(%rbp)	#, pred
	je	.L458	#,
	.loc 1 2625 0
	movq	-72(%rbp), %rdx	# opalign, tmp204
	movq	-64(%rbp), %rax	# pred, tmp205
	movl	$0, %esi	#,
	movq	%rdx, %rdi	# tmp204,
	call	*%rax	# tmp205
	testl	%eax, %eax	# D.25714
	je	.L452	#,
.L458:
.LBB34:
	.loc 1 2628 0
	call	get_last_insn	#
	movq	%rax, -56(%rbp)	# tmp206, last
	.loc 1 2631 0
	movq	-128(%rbp), %rcx	# size, tmp207
	movl	-100(%rbp), %eax	# mode, tmp208
	movl	$1, %edx	#,
	movq	%rcx, %rsi	# tmp207,
	movl	%eax, %edi	# tmp208,
	call	convert_to_mode	#
	movq	%rax, -80(%rbp)	# tmp209, op1
	.loc 1 2632 0
	movl	-92(%rbp), %eax	# code, code.253
	movslq	%eax, %rdx	# code.253, tmp210
	movq	%rdx, %rax	# tmp210, tmp211
	salq	$2, %rax	#, tmp211
	addq	%rdx, %rax	# tmp210, tmp211
	salq	$3, %rax	#, tmp212
	addq	$insn_data+24, %rax	#, tmp213
	movq	(%rax), %rax	# insn_data[code.253_78].operand, D.25719
	addq	$24, %rax	#, D.25719
	movq	(%rax), %rax	# _80->predicate, tmp214
	movq	%rax, -64(%rbp)	# tmp214, pred
	.loc 1 2633 0
	cmpq	$0, -64(%rbp)	#, pred
	je	.L459	#,
	.loc 1 2633 0 is_stmt 0 discriminator 1
	movl	-100(%rbp), %ecx	# mode, tmp215
	movq	-80(%rbp), %rdx	# op1, tmp216
	movq	-64(%rbp), %rax	# pred, tmp217
	movl	%ecx, %esi	# tmp215,
	movq	%rdx, %rdi	# tmp216,
	call	*%rax	# tmp217
	testl	%eax, %eax	# D.25714
	jne	.L459	#,
	.loc 1 2634 0 is_stmt 1
	movq	-80(%rbp), %rdx	# op1, tmp218
	movl	-100(%rbp), %eax	# mode, tmp219
	movq	%rdx, %rsi	# tmp218,
	movl	%eax, %edi	# tmp219,
	call	copy_to_mode_reg	#
	movq	%rax, -80(%rbp)	# tmp220, op1
.L459:
	.loc 1 2636 0
	movl	-92(%rbp), %eax	# code, code.254
	movslq	%eax, %rdx	# code.254, tmp221
	movq	%rdx, %rax	# tmp221, tmp222
	salq	$2, %rax	#, tmp222
	addq	%rdx, %rax	# tmp221, tmp222
	salq	$3, %rax	#, tmp223
	addq	$insn_data+16, %rax	#, tmp224
	movq	(%rax), %rcx	# insn_data[code.254_84].genfun, D.25720
	movq	-72(%rbp), %rdx	# opalign, tmp225
	movq	-80(%rbp), %rsi	# op1, tmp226
	movq	-120(%rbp), %rax	# object, tmp227
	movq	%rax, %rdi	# tmp227,
	movl	$0, %eax	#,
	call	*%rcx	# D.25720
	movq	%rax, -48(%rbp)	# tmp228, pat
	.loc 1 2637 0
	cmpq	$0, -48(%rbp)	#, pat
	je	.L460	#,
	.loc 1 2639 0
	movq	-48(%rbp), %rax	# pat, tmp229
	movq	%rax, %rdi	# tmp229,
	call	emit_insn	#
	.loc 1 2640 0
	movl	$0, %eax	#, D.25709
	jmp	.L461	#
.L460:
	.loc 1 2643 0
	movq	-56(%rbp), %rax	# last, tmp230
	movq	%rax, %rdi	# tmp230,
	call	delete_insns_since	#
.L452:
.LBE34:
.LBE33:
	.loc 1 2608 0
	movl	-100(%rbp), %eax	# mode, mode.255
	cltq
	movzbl	mode_wider_mode(%rax), %eax	# mode_wider_mode, D.25712
	movzbl	%al, %eax	# D.25712, tmp232
	movl	%eax, -100(%rbp)	# tmp232, mode
.L451:
	.loc 1 2607 0 discriminator 1
	cmpl	$0, -100(%rbp)	#, mode
	jne	.L462	#,
	.loc 1 2667 0
	movq	-120(%rbp), %rax	# object, tmp233
	movq	8(%rax), %rdx	# object_34->fld[0].rtx, D.25717
	movl	target_flags(%rip), %eax	# target_flags, target_flags.257
	andl	$33554432, %eax	#, D.25714
	testl	%eax, %eax	# D.25714
	je	.L463	#,
	.loc 1 2667 0 is_stmt 0 discriminator 1
	movl	$5, %eax	#, iftmp.256
	jmp	.L464	#
.L463:
	.loc 1 2667 0 discriminator 2
	movl	$4, %eax	#, iftmp.256
.L464:
	.loc 1 2667 0 discriminator 3
	movq	%rdx, %rsi	# D.25717,
	movl	%eax, %edi	# iftmp.256,
	call	copy_to_mode_reg	#
	movq	%rax, -120(%rbp)	# tmp234, object
	.loc 1 2670 0 is_stmt 1 discriminator 3
	movq	sizetype_tab(%rip), %rax	# sizetype_tab, D.25721
	movzbl	61(%rax), %eax	# *_97, tmp237
	shrb	%al	# D.25722
	movzbl	%al, %eax	# D.25722, D.25713
	movq	-128(%rbp), %rdx	# size, tmp238
	movq	%rdx, %rsi	# tmp238,
	movl	%eax, %edi	# D.25713,
	call	copy_to_mode_reg	#
	movq	%rax, -128(%rbp)	# tmp239, size
	.loc 1 2690 0 discriminator 3
	movq	fn.14563(%rip), %rax	# fn, fn.258
	testq	%rax, %rax	# fn.258
	jne	.L465	#,
.LBB35:
	.loc 1 2696 0
	movl	$.LC2, %edi	#,
	call	get_identifier	#
	movq	%rax, fn.14563(%rip)	# fn.259, fn
	.loc 1 2697 0
	movq	global_trees+216(%rip), %rax	# global_trees, D.25721
	movq	%rax, %rdi	# D.25721,
	call	build_pointer_type	#
	movq	%rax, -40(%rbp)	# tmp240, fntype
	.loc 1 2698 0
	movq	-40(%rbp), %rax	# fntype, tmp241
	movl	$0, %esi	#,
	movq	%rax, %rdi	# tmp241,
	call	build_function_type	#
	movq	%rax, -40(%rbp)	# tmp242, fntype
	.loc 1 2699 0
	movq	fn.14563(%rip), %rax	# fn, fn.260
	movq	-40(%rbp), %rdx	# fntype, tmp243
	movq	%rax, %rsi	# fn.260,
	movl	$30, %edi	#,
	call	build_decl	#
	movq	%rax, fn.14563(%rip)	# fn.261, fn
	.loc 1 2700 0
	movl	$1, %esi	#,
	movl	$fn.14563, %edi	#,
	call	ggc_add_tree_root	#
	.loc 1 2701 0
	movq	fn.14563(%rip), %rax	# fn, fn.262
	movzbl	49(%rax), %edx	#, tmp246
	orl	$1, %edx	#, tmp247
	movb	%dl, 49(%rax)	# tmp247,
	.loc 1 2702 0
	movq	fn.14563(%rip), %rax	# fn, fn.263
	movzbl	18(%rax), %edx	#, tmp250
	orl	$8, %edx	#, tmp251
	movb	%dl, 18(%rax)	# tmp251,
	.loc 1 2703 0
	movq	fn.14563(%rip), %rax	# fn, fn.264
	movzbl	50(%rax), %edx	#, tmp254
	orl	$64, %edx	#, tmp255
	movb	%dl, 50(%rax)	# tmp255,
	.loc 1 2704 0
	movq	fn.14563(%rip), %rax	# fn, fn.265
	movzbl	18(%rax), %edx	#, tmp258
	orl	$2, %edx	#, tmp259
	movb	%dl, 18(%rax)	# tmp259,
	.loc 1 2705 0
	movq	fn.14563(%rip), %rax	# fn, fn.266
	movl	$0, %esi	#,
	movq	%rax, %rdi	# fn.266,
	call	make_decl_rtl	#
	.loc 1 2706 0
	movq	fn.14563(%rip), %rax	# fn, fn.267
	movq	%rax, %rdi	# fn.267,
	call	assemble_external	#
.L465:
.LBE35:
	.loc 1 2715 0
	movq	global_trees+216(%rip), %rax	# global_trees, D.25721
	movq	%rax, %rdi	# D.25721,
	call	build_pointer_type	#
	movq	-120(%rbp), %rdx	# object, tmp260
	movq	%rdx, %rsi	# tmp260,
	movq	%rax, %rdi	# D.25721,
	call	make_tree	#
	movq	%rax, %rsi	# D.25721,
	movl	$0, %edi	#,
	call	build_tree_list	#
	movq	%rax, -32(%rbp)	# tmp261, arg_list
	.loc 1 2719 0
	movq	const_int_rtx+512(%rip), %rdx	# const_int_rtx, D.25717
	movq	integer_types+40(%rip), %rax	# integer_types, D.25721
	movq	%rdx, %rsi	# D.25717,
	movq	%rax, %rdi	# D.25721,
	call	make_tree	#
	movq	%rax, %rsi	# D.25721,
	movl	$0, %edi	#,
	call	build_tree_list	#
	movq	-32(%rbp), %rdx	# arg_list, tmp262
	movq	%rax, (%rdx)	# D.25721, arg_list_117->common.chain
	.loc 1 2721 0
	movq	-32(%rbp), %rax	# arg_list, tmp263
	movq	(%rax), %rbx	# arg_list_117->common.chain, D.25721
	.loc 1 2722 0
	movq	sizetype_tab(%rip), %rax	# sizetype_tab, D.25721
	movq	-128(%rbp), %rdx	# size, tmp264
	movq	%rdx, %rsi	# tmp264,
	movq	%rax, %rdi	# D.25721,
	call	make_tree	#
	movq	%rax, %rsi	# D.25721,
	movl	$0, %edi	#,
	call	build_tree_list	#
	movq	%rax, (%rbx)	# D.25721, _122->common.chain
	.loc 1 2723 0
	movq	-32(%rbp), %rax	# arg_list, tmp265
	movq	(%rax), %rax	# arg_list_117->common.chain, D.25721
	movq	(%rax), %rax	# _126->common.chain, D.25721
	movq	$0, (%rax)	#, _127->common.chain
	.loc 1 2726 0
	movq	fn.14563(%rip), %rbx	# fn, fn.268
	.loc 1 2727 0
	movq	fn.14563(%rip), %rax	# fn, fn.269
	.loc 1 2726 0
	movq	8(%rax), %rax	# fn.269_129->common.type, D.25721
	movq	%rax, %rdi	# D.25721,
	call	build_pointer_type	#
	movq	%rbx, %rdx	# fn.268,
	movq	%rax, %rsi	# D.25721,
	movl	$121, %edi	#,
	call	build1	#
	movq	%rax, -24(%rbp)	# tmp266, call_expr
	.loc 1 2728 0
	movq	fn.14563(%rip), %rax	# fn, fn.270
	movq	8(%rax), %rax	# fn.270_133->common.type, D.25721
	movq	8(%rax), %rax	# _134->common.type, D.25721
	movq	-32(%rbp), %rcx	# arg_list, tmp267
	movq	-24(%rbp), %rdx	# call_expr, tmp268
	movl	$0, %r8d	#,
	movq	%rax, %rsi	# D.25721,
	movl	$53, %edi	#,
	movl	$0, %eax	#,
	call	build	#
	movq	%rax, -24(%rbp)	# tmp269, call_expr
	.loc 1 2730 0
	movq	-24(%rbp), %rax	# call_expr, tmp270
	movzbl	17(%rax), %edx	#, tmp273
	orl	$1, %edx	#, tmp274
	movb	%dl, 17(%rax)	# tmp274,
	.loc 1 2732 0
	movq	-24(%rbp), %rax	# call_expr, tmp275
	movl	$0, %ecx	#,
	movl	$0, %edx	#,
	movl	$0, %esi	#,
	movq	%rax, %rdi	# tmp275,
	call	expand_expr	#
	movq	%rax, -88(%rbp)	# tmp276, retval
	.loc 1 2742 0
	movq	-120(%rbp), %rax	# object, tmp277
	movzbl	3(%rax), %eax	# *object_96, D.25712
	andl	$4, %eax	#, D.25712
	testb	%al, %al	# D.25712
	je	.L447	#,
	.loc 1 2743 0
	movq	-120(%rbp), %rax	# object, tmp278
	movq	%rax, %rdx	# tmp278,
	movl	$0, %esi	#,
	movl	$49, %edi	#,
	call	gen_rtx_fmt_e	#
	movq	%rax, %rdi	# D.25717,
	call	emit_insn	#
.L447:
.LBE32:
	.loc 1 2747 0
	movq	-88(%rbp), %rax	# retval, D.25709
.L461:
	.loc 1 2748 0
	addq	$120, %rsp	#,
	popq	%rbx	#
	popq	%rbp	#
	.cfi_def_cfa 7, 8
	ret
	.cfi_endproc
.LFE32:
	.size	clear_storage, .-clear_storage
	.globl	emit_move_insn
	.type	emit_move_insn, @function
emit_move_insn:
.LFB33:
	.loc 1 2760 0
	.cfi_startproc
	pushq	%rbp	#
	.cfi_def_cfa_offset 16
	.cfi_offset 6, -16
	movq	%rsp, %rbp	#,
	.cfi_def_cfa_register 6
	subq	$48, %rsp	#,
	movq	%rdi, -40(%rbp)	# x, x
	movq	%rsi, -48(%rbp)	# y, y
	.loc 1 2761 0
	movq	-40(%rbp), %rax	# x, tmp102
	movzbl	2(%rax), %eax	# x_3(D)->mode, D.25724
	movzbl	%al, %eax	# D.25724, tmp103
	movl	%eax, -20(%rbp)	# tmp103, mode
	.loc 1 2762 0
	movq	$0, -16(%rbp)	#, y_cst
	.loc 1 2765 0
	movq	-40(%rbp), %rax	# x, tmp104
	movl	$1, %esi	#,
	movq	%rax, %rdi	# tmp104,
	call	protect_from_queue	#
	movq	%rax, -40(%rbp)	# tmp105, x
	.loc 1 2766 0
	movq	-48(%rbp), %rax	# y, tmp106
	movl	$0, %esi	#,
	movq	%rax, %rdi	# tmp106,
	call	protect_from_queue	#
	movq	%rax, -48(%rbp)	# tmp107, y
	.loc 1 2768 0
	cmpl	$51, -20(%rbp)	#, mode
	je	.L467	#,
	.loc 1 2768 0 is_stmt 0 discriminator 1
	movq	-48(%rbp), %rax	# y, tmp108
	movzbl	2(%rax), %eax	# y_9->mode, D.25724
	movzbl	%al, %eax	# D.25724, D.25725
	cmpl	-20(%rbp), %eax	# mode, D.25725
	je	.L468	#,
	movq	-48(%rbp), %rax	# y, tmp109
	movzbl	2(%rax), %eax	# y_9->mode, D.25724
	testb	%al, %al	# D.25724
	je	.L468	#,
.L467:
	.loc 1 2769 0 is_stmt 1
	movl	$__FUNCTION__.14586, %edx	#,
	movl	$2769, %esi	#,
	movl	$.LC0, %edi	#,
	call	fancy_abort	#
.L468:
	.loc 1 2782 0
	movq	-40(%rbp), %rax	# x, tmp111
	movzwl	(%rax), %eax	# x_7->code, D.25726
	cmpw	$66, %ax	#, D.25726
	jne	.L469	#,
	.loc 1 2783 0
	movq	-40(%rbp), %rax	# x, tmp112
	movq	8(%rax), %rdx	# x_7->fld[0].rtx, D.25727
	movq	-40(%rbp), %rax	# x, tmp113
	movzbl	2(%rax), %eax	# x_7->mode, D.25724
	movzbl	%al, %eax	# D.25724, D.25728
	movq	%rdx, %rsi	# D.25727,
	movl	%eax, %edi	# D.25728,
	call	memory_address_p	#
	testl	%eax, %eax	# D.25729
	jne	.L470	#,
	.loc 1 2784 0
	movq	-40(%rbp), %rax	# x, tmp114
	movzbl	2(%rax), %eax	# x_7->mode, D.25724
	movzbl	%al, %edx	# D.25724, D.25728
	movq	-40(%rbp), %rax	# x, tmp115
	movl	%edx, %esi	# D.25728,
	movq	%rax, %rdi	# tmp115,
	call	push_operand	#
	testl	%eax, %eax	# D.25729
	je	.L471	#,
.L470:
	.loc 1 2785 0
	movl	flag_force_addr(%rip), %eax	# flag_force_addr, flag_force_addr.271
	testl	%eax, %eax	# flag_force_addr.271
	je	.L469	#,
	.loc 1 2786 0
	movq	-40(%rbp), %rax	# x, tmp116
	movq	8(%rax), %rax	# x_7->fld[0].rtx, D.25727
	movzwl	(%rax), %eax	# _23->code, D.25726
	cmpw	$67, %ax	#, D.25726
	je	.L471	#,
	.loc 1 2786 0 is_stmt 0 discriminator 1
	movq	-40(%rbp), %rax	# x, tmp117
	movq	8(%rax), %rax	# x_7->fld[0].rtx, D.25727
	movzwl	(%rax), %eax	# _25->code, D.25726
	cmpw	$68, %ax	#, D.25726
	je	.L471	#,
	movq	-40(%rbp), %rax	# x, tmp118
	movq	8(%rax), %rax	# x_7->fld[0].rtx, D.25727
	movzwl	(%rax), %eax	# _27->code, D.25726
	cmpw	$54, %ax	#, D.25726
	je	.L471	#,
	movq	-40(%rbp), %rax	# x, tmp119
	movq	8(%rax), %rax	# x_7->fld[0].rtx, D.25727
	movzwl	(%rax), %eax	# _29->code, D.25726
	cmpw	$58, %ax	#, D.25726
	je	.L471	#,
	movq	-40(%rbp), %rax	# x, tmp120
	movq	8(%rax), %rax	# x_7->fld[0].rtx, D.25727
	movzwl	(%rax), %eax	# _31->code, D.25726
	cmpw	$55, %ax	#, D.25726
	jne	.L469	#,
.L471:
	.loc 1 2787 0 is_stmt 1
	movq	-40(%rbp), %rax	# x, tmp121
	movq	%rax, %rdi	# tmp121,
	call	validize_mem	#
	movq	%rax, -40(%rbp)	# tmp122, x
.L469:
	.loc 1 2789 0
	movq	-48(%rbp), %rax	# y, tmp123
	movzwl	(%rax), %eax	# y_9->code, D.25726
	cmpw	$66, %ax	#, D.25726
	jne	.L472	#,
	.loc 1 2790 0
	movq	-48(%rbp), %rax	# y, tmp124
	movq	8(%rax), %rdx	# y_9->fld[0].rtx, D.25727
	movq	-48(%rbp), %rax	# y, tmp125
	movzbl	2(%rax), %eax	# y_9->mode, D.25724
	movzbl	%al, %eax	# D.25724, D.25728
	movq	%rdx, %rsi	# D.25727,
	movl	%eax, %edi	# D.25728,
	call	memory_address_p	#
	testl	%eax, %eax	# D.25729
	je	.L473	#,
	.loc 1 2791 0
	movl	flag_force_addr(%rip), %eax	# flag_force_addr, flag_force_addr.272
	testl	%eax, %eax	# flag_force_addr.272
	je	.L472	#,
	.loc 1 2792 0
	movq	-48(%rbp), %rax	# y, tmp126
	movq	8(%rax), %rax	# y_9->fld[0].rtx, D.25727
	movzwl	(%rax), %eax	# _40->code, D.25726
	cmpw	$67, %ax	#, D.25726
	je	.L473	#,
	.loc 1 2792 0 is_stmt 0 discriminator 1
	movq	-48(%rbp), %rax	# y, tmp127
	movq	8(%rax), %rax	# y_9->fld[0].rtx, D.25727
	movzwl	(%rax), %eax	# _42->code, D.25726
	cmpw	$68, %ax	#, D.25726
	je	.L473	#,
	movq	-48(%rbp), %rax	# y, tmp128
	movq	8(%rax), %rax	# y_9->fld[0].rtx, D.25727
	movzwl	(%rax), %eax	# _44->code, D.25726
	cmpw	$54, %ax	#, D.25726
	je	.L473	#,
	movq	-48(%rbp), %rax	# y, tmp129
	movq	8(%rax), %rax	# y_9->fld[0].rtx, D.25727
	movzwl	(%rax), %eax	# _46->code, D.25726
	cmpw	$58, %ax	#, D.25726
	je	.L473	#,
	movq	-48(%rbp), %rax	# y, tmp130
	movq	8(%rax), %rax	# y_9->fld[0].rtx, D.25727
	movzwl	(%rax), %eax	# _48->code, D.25726
	cmpw	$55, %ax	#, D.25726
	jne	.L472	#,
.L473:
	.loc 1 2793 0 is_stmt 1
	movq	-48(%rbp), %rax	# y, tmp131
	movq	%rax, %rdi	# tmp131,
	call	validize_mem	#
	movq	%rax, -48(%rbp)	# tmp132, y
.L472:
	.loc 1 2795 0
	cmpl	$51, -20(%rbp)	#, mode
	jne	.L474	#,
	.loc 1 2796 0
	movl	$__FUNCTION__.14586, %edx	#,
	movl	$2796, %esi	#,
	movl	$.LC0, %edi	#,
	call	fancy_abort	#
.L474:
	.loc 1 2798 0
	movq	-48(%rbp), %rdx	# y, tmp133
	movq	-40(%rbp), %rax	# x, tmp134
	movq	%rdx, %rsi	# tmp133,
	movq	%rax, %rdi	# tmp134,
	call	emit_move_insn_1	#
	movq	%rax, -8(%rbp)	# tmp135, last_insn
	.loc 1 2800 0
	cmpq	$0, -16(%rbp)	#, y_cst
	je	.L475	#,
	.loc 1 2800 0 is_stmt 0 discriminator 1
	movq	-40(%rbp), %rax	# x, tmp136
	movzwl	(%rax), %eax	# x_1->code, D.25726
	cmpw	$61, %ax	#, D.25726
	jne	.L475	#,
	.loc 1 2801 0 is_stmt 1
	movq	-16(%rbp), %rdx	# y_cst, tmp137
	movq	-8(%rbp), %rax	# last_insn, tmp138
	movl	$4, %esi	#,
	movq	%rax, %rdi	# tmp138,
	call	set_unique_reg_note	#
.L475:
	.loc 1 2803 0
	movq	-8(%rbp), %rax	# last_insn, D.25730
	.loc 1 2804 0
	leave
	.cfi_def_cfa 7, 8
	ret
	.cfi_endproc
.LFE33:
	.size	emit_move_insn, .-emit_move_insn
	.section	.rodata
	.align 8
.LC3:
	.string	"function using short complex types cannot be inline"
	.text
	.globl	emit_move_insn_1
	.type	emit_move_insn_1, @function
emit_move_insn_1:
.LFB34:
	.loc 1 2813 0
	.cfi_startproc
	pushq	%rbp	#
	.cfi_def_cfa_offset 16
	.cfi_offset 6, -16
	movq	%rsp, %rbp	#,
	.cfi_def_cfa_register 6
	pushq	%r12	#
	pushq	%rbx	#
	subq	$224, %rsp	#,
	.cfi_offset 12, -24
	.cfi_offset 3, -32
	movq	%rdi, -216(%rbp)	# x, x
	movq	%rsi, -224(%rbp)	# y, y
	.loc 1 2814 0
	movq	-216(%rbp), %rax	# x, tmp288
	movzbl	2(%rax), %eax	# x_29(D)->mode, D.25732
	movzbl	%al, %eax	# D.25732, tmp289
	movl	%eax, -188(%rbp)	# tmp289, mode
	.loc 1 2816 0
	movl	-188(%rbp), %eax	# mode, mode.273
	cltq
	movl	mode_class(,%rax,4), %eax	# mode_class, tmp291
	movl	%eax, -184(%rbp)	# tmp291, class
	.loc 1 2818 0
	cmpl	$58, -188(%rbp)	#, mode
	jbe	.L478	#,
	.loc 1 2819 0
	movl	$__FUNCTION__.14594, %edx	#,
	movl	$2819, %esi	#,
	movl	$.LC0, %edi	#,
	call	fancy_abort	#
.L478:
	.loc 1 2821 0
	movq	optab_table+240(%rip), %rax	# optab_table, D.25733
	movl	-188(%rbp), %edx	# mode, mode.274
	movslq	%edx, %rdx	# mode.274, tmp292
	salq	$4, %rdx	#, tmp293
	addq	%rdx, %rax	# tmp293, tmp294
	movl	8(%rax), %eax	# _34->handlers[mode.274_35].insn_code, D.25734
	cmpl	$1317, %eax	#, D.25734
	je	.L479	#,
	.loc 1 2823 0
	movq	optab_table+240(%rip), %rax	# optab_table, D.25733
	movl	-188(%rbp), %edx	# mode, mode.275
	movslq	%edx, %rdx	# mode.275, tmp295
	salq	$4, %rdx	#, tmp296
	addq	%rdx, %rax	# tmp296, tmp297
	movl	8(%rax), %eax	# _37->handlers[mode.275_38].insn_code, D.25734
	movslq	%eax, %rdx	# D.25735, tmp298
	movq	%rdx, %rax	# tmp298, tmp299
	salq	$2, %rax	#, tmp299
	addq	%rdx, %rax	# tmp298, tmp299
	salq	$3, %rax	#, tmp300
	addq	$insn_data+16, %rax	#, tmp301
	movq	(%rax), %rdx	# insn_data[_40].genfun, D.25736
	movq	-224(%rbp), %rcx	# y, tmp302
	movq	-216(%rbp), %rax	# x, tmp303
	movq	%rcx, %rsi	# tmp302,
	movq	%rax, %rdi	# tmp303,
	movl	$0, %eax	#,
	call	*%rdx	# D.25736
	.loc 1 2822 0
	movq	%rax, %rdi	# D.25737,
	call	emit_insn	#
	jmp	.L480	#
.L479:
	.loc 1 2826 0
	cmpl	$6, -184(%rbp)	#, class
	je	.L481	#,
	.loc 1 2826 0 is_stmt 0 discriminator 1
	cmpl	$5, -184(%rbp)	#, class
	jne	.L482	#,
.L481:
	.loc 1 2827 0 is_stmt 1
	cmpl	$5, -184(%rbp)	#, class
	jne	.L483	#,
	.loc 1 2827 0 is_stmt 0 discriminator 1
	movl	$1, %eax	#, iftmp.276
	jmp	.L484	#
.L483:
	.loc 1 2827 0 discriminator 2
	movl	$2, %eax	#, iftmp.276
.L484:
	.loc 1 2827 0 discriminator 3
	movl	-188(%rbp), %edx	# mode, mode.277
	movslq	%edx, %rdx	# mode.277, tmp304
	movzbl	mode_unit_size(%rdx), %edx	# mode_unit_size, D.25732
	.loc 1 2828 0 is_stmt 1 discriminator 3
	movzbl	%dl, %edx	# D.25732, D.25735
	sall	$3, %edx	#, D.25735
	.loc 1 2827 0 discriminator 3
	movl	%edx, %ecx	# D.25735, D.25738
	movl	$0, %edx	#,
	movl	%eax, %esi	# iftmp.276,
	movl	%ecx, %edi	# D.25738,
	call	mode_for_size	#
	movl	%eax, -180(%rbp)	# tmp305, submode
	cmpl	$51, -180(%rbp)	#, submode
	je	.L482	#,
	.loc 1 2832 0
	movq	optab_table+240(%rip), %rax	# optab_table, D.25733
	movl	-180(%rbp), %edx	# submode, submode.278
	movslq	%edx, %rdx	# submode.278, tmp306
	salq	$4, %rdx	#, tmp307
	addq	%rdx, %rax	# tmp307, tmp308
	movl	8(%rax), %eax	# _53->handlers[submode.278_54].insn_code, D.25734
	cmpl	$1317, %eax	#, D.25734
	je	.L482	#,
.LBB36:
	.loc 1 2836 0
	movq	-216(%rbp), %rax	# x, tmp309
	movzbl	2(%rax), %eax	# x_29(D)->mode, D.25732
	movzbl	%al, %edx	# D.25732, D.25739
	movq	-216(%rbp), %rax	# x, tmp310
	movl	%edx, %esi	# D.25739,
	movq	%rax, %rdi	# tmp310,
	call	push_operand	#
	movl	%eax, -176(%rbp)	# tmp311, stack
	.loc 1 2841 0
	cmpl	$0, -176(%rbp)	#, stack
	je	.L485	#,
	.loc 1 2842 0
	movl	target_flags(%rip), %eax	# target_flags, target_flags.280
	andl	$33554432, %eax	#, D.25735
	testl	%eax, %eax	# D.25735
	je	.L486	#,
	.loc 1 2842 0 is_stmt 0 discriminator 1
	movl	-180(%rbp), %eax	# submode, submode.281
	cltq
	movzbl	mode_size(%rax), %eax	# mode_size, D.25732
	movzbl	%al, %eax	# D.25732, D.25735
	addl	$7, %eax	#, D.25735
	andl	$-8, %eax	#, iftmp.279
	jmp	.L487	#
.L486:
	.loc 1 2842 0 discriminator 2
	movl	-180(%rbp), %eax	# submode, submode.282
	cltq
	movzbl	mode_size(%rax), %eax	# mode_size, D.25732
	movzbl	%al, %eax	# D.25732, D.25735
	addl	$1, %eax	#, D.25735
	andl	$-2, %eax	#, iftmp.279
.L487:
	.loc 1 2843 0 is_stmt 1 discriminator 3
	movl	-180(%rbp), %edx	# submode, submode.283
	movslq	%edx, %rdx	# submode.283, tmp314
	movzbl	mode_size(%rdx), %edx	# mode_size, D.25732
	movzbl	%dl, %edx	# D.25732, D.25735
	.loc 1 2842 0 discriminator 3
	cmpl	%edx, %eax	# D.25735, iftmp.279
	je	.L485	#,
.LBB37:
	.loc 1 2850 0
	movq	global_rtl+16(%rip), %rbx	# global_rtl, D.25737
	.loc 1 2857 0
	movl	target_flags(%rip), %eax	# target_flags, target_flags.285
	andl	$33554432, %eax	#, D.25735
	.loc 1 2850 0
	testl	%eax, %eax	# D.25735
	je	.L488	#,
	.loc 1 2857 0
	movq	-216(%rbp), %rax	# x, tmp315
	movzbl	2(%rax), %eax	# x_29(D)->mode, D.25732
	movzbl	%al, %eax	# D.25732, D.25735
	cltq
	movzbl	mode_size(%rax), %eax	# mode_size, D.25732
	movzbl	%al, %eax	# D.25732, D.25735
	addl	$7, %eax	#, D.25735
	andl	$-8, %eax	#, D.25735
	.loc 1 2850 0
	cltq
	jmp	.L489	#
.L488:
	.loc 1 2857 0 discriminator 1
	movq	-216(%rbp), %rax	# x, tmp317
	movzbl	2(%rax), %eax	# x_29(D)->mode, D.25732
	movzbl	%al, %eax	# D.25732, D.25735
	cltq
	movzbl	mode_size(%rax), %eax	# mode_size, D.25732
	movzbl	%al, %eax	# D.25732, D.25735
	addl	$1, %eax	#, D.25735
	andl	$-2, %eax	#, D.25735
	.loc 1 2850 0 discriminator 1
	cltq
.L489:
	.loc 1 2850 0 is_stmt 0 discriminator 2
	movq	%rax, %rsi	# iftmp.284,
	movl	$0, %edi	#,
	call	gen_rtx_CONST_INT	#
	movq	%rax, %rcx	#, D.25737
	movq	global_rtl+16(%rip), %rdx	# global_rtl, D.25737
	movq	optab_table+16(%rip), %rsi	# optab_table, D.25733
	movl	target_flags(%rip), %eax	# target_flags, target_flags.287
	andl	$33554432, %eax	#, D.25735
	testl	%eax, %eax	# D.25735
	je	.L490	#,
	.loc 1 2850 0 discriminator 3
	movl	$5, %eax	#, iftmp.286
	jmp	.L491	#
.L490:
	.loc 1 2850 0 discriminator 4
	movl	$4, %eax	#, iftmp.286
.L491:
	.loc 1 2850 0 discriminator 5
	movl	$3, (%rsp)	#,
	movl	$0, %r9d	#,
	movq	%rbx, %r8	# D.25737,
	movl	%eax, %edi	# iftmp.286,
	call	expand_binop	#
	movq	%rax, -128(%rbp)	# tmp319, temp
	.loc 1 2862 0 is_stmt 1 discriminator 5
	movq	global_rtl+16(%rip), %rax	# global_rtl, D.25737
	cmpq	-128(%rbp), %rax	# temp, D.25737
	je	.L492	#,
	.loc 1 2863 0
	movq	global_rtl+16(%rip), %rax	# global_rtl, D.25737
	movq	-128(%rbp), %rdx	# temp, tmp320
	movq	%rdx, %rsi	# tmp320,
	movq	%rax, %rdi	# D.25737,
	call	emit_move_insn	#
.L492:
	.loc 1 2866 0
	movq	$0, -120(%rbp)	#, offset1
	.loc 1 2867 0
	movl	-180(%rbp), %eax	# submode, submode.288
	cltq
	movzbl	mode_size(%rax), %eax	# mode_size, D.25732
	movzbl	%al, %eax	# D.25732, tmp322
	movq	%rax, -112(%rbp)	# tmp322, offset2
	.loc 1 2874 0
	movq	-224(%rbp), %rdx	# y, tmp323
	movl	-180(%rbp), %eax	# submode, tmp324
	movq	%rdx, %rsi	# tmp323,
	movl	%eax, %edi	# tmp324,
	call	gen_realpart	#
	movq	%rax, %rbx	#, D.25737
	movq	-120(%rbp), %rax	# offset1, tmp325
	movq	%rax, %rsi	# tmp325,
	movl	$0, %edi	#,
	call	gen_rtx_CONST_INT	#
	movq	%rax, %rcx	#, D.25737
	movq	global_rtl+16(%rip), %rdx	# global_rtl, D.25737
	.loc 1 2875 0
	movl	target_flags(%rip), %eax	# target_flags, target_flags.290
	andl	$33554432, %eax	#, D.25735
	.loc 1 2874 0
	testl	%eax, %eax	# D.25735
	je	.L493	#,
	.loc 1 2874 0 is_stmt 0 discriminator 1
	movl	$5, %eax	#, iftmp.289
	jmp	.L494	#
.L493:
	.loc 1 2874 0 discriminator 2
	movl	$4, %eax	#, iftmp.289
.L494:
	.loc 1 2874 0 discriminator 3
	movl	%eax, %esi	# iftmp.289,
	movl	$75, %edi	#,
	call	gen_rtx_fmt_ee	#
	movq	%rax, %rdx	#, D.25737
	movl	-180(%rbp), %ecx	# submode, tmp326
	movq	-216(%rbp), %rax	# x, tmp327
	movl	%ecx, %esi	# tmp326,
	movq	%rax, %rdi	# tmp327,
	call	change_address	#
	movq	%rbx, %rsi	# D.25737,
	movq	%rax, %rdi	# D.25737,
	call	emit_move_insn	#
	.loc 1 2879 0 is_stmt 1 discriminator 3
	movq	-224(%rbp), %rdx	# y, tmp328
	movl	-180(%rbp), %eax	# submode, tmp329
	movq	%rdx, %rsi	# tmp328,
	movl	%eax, %edi	# tmp329,
	call	gen_imagpart	#
	movq	%rax, %rbx	#, D.25737
	movq	-112(%rbp), %rax	# offset2, tmp330
	movq	%rax, %rsi	# tmp330,
	movl	$0, %edi	#,
	call	gen_rtx_CONST_INT	#
	movq	%rax, %rcx	#, D.25737
	movq	global_rtl+16(%rip), %rdx	# global_rtl, D.25737
	.loc 1 2880 0 discriminator 3
	movl	target_flags(%rip), %eax	# target_flags, target_flags.292
	andl	$33554432, %eax	#, D.25735
	.loc 1 2879 0 discriminator 3
	testl	%eax, %eax	# D.25735
	je	.L495	#,
	.loc 1 2879 0 is_stmt 0 discriminator 1
	movl	$5, %eax	#, iftmp.291
	jmp	.L496	#
.L495:
	.loc 1 2879 0 discriminator 2
	movl	$4, %eax	#, iftmp.291
.L496:
	.loc 1 2879 0 discriminator 3
	movl	%eax, %esi	# iftmp.291,
	movl	$75, %edi	#,
	call	gen_rtx_fmt_ee	#
	movq	%rax, %rdx	#, D.25737
	movl	-180(%rbp), %ecx	# submode, tmp331
	movq	-216(%rbp), %rax	# x, tmp332
	movl	%ecx, %esi	# tmp331,
	movq	%rax, %rdi	# tmp332,
	call	change_address	#
	movq	%rbx, %rsi	# D.25737,
	movq	%rax, %rdi	# D.25737,
	call	emit_move_insn	#
.LBE37:
	.loc 1 2844 0 is_stmt 1 discriminator 3
	jmp	.L497	#
.L485:
	.loc 1 2892 0
	cmpl	$0, -176(%rbp)	#, stack
	je	.L498	#,
	.loc 1 2897 0
	movq	optab_table+240(%rip), %rax	# optab_table, D.25733
	movl	-180(%rbp), %edx	# submode, submode.293
	movslq	%edx, %rdx	# submode.293, tmp333
	salq	$4, %rdx	#, tmp334
	addq	%rdx, %rax	# tmp334, tmp335
	movl	8(%rax), %eax	# _123->handlers[submode.293_124].insn_code, D.25734
	.loc 1 2898 0
	movslq	%eax, %rdx	# D.25735, tmp336
	movq	%rdx, %rax	# tmp336, tmp337
	salq	$2, %rax	#, tmp337
	addq	%rdx, %rax	# tmp336, tmp337
	salq	$3, %rax	#, tmp338
	addq	$insn_data+16, %rax	#, tmp339
	movq	(%rax), %rbx	# insn_data[_126].genfun, D.25736
	.loc 1 2897 0
	movq	-224(%rbp), %rdx	# y, tmp340
	movl	-180(%rbp), %eax	# submode, tmp341
	movq	%rdx, %rsi	# tmp340,
	movl	%eax, %edi	# tmp341,
	call	gen_imagpart	#
	movq	%rax, %r12	#, D.25737
	movq	-216(%rbp), %rax	# x, tmp342
	movq	8(%rax), %rdx	# x_29(D)->fld[0].rtx, D.25737
	movl	-180(%rbp), %eax	# submode, tmp343
	movq	%rdx, %rsi	# D.25737,
	movl	%eax, %edi	# tmp343,
	call	gen_rtx_MEM	#
	movq	%r12, %rsi	# D.25737,
	movq	%rax, %rdi	# D.25737,
	movl	$0, %eax	#,
	call	*%rbx	# D.25736
	movq	%rax, %rdi	# D.25737,
	call	emit_insn	#
	.loc 1 2900 0
	movq	optab_table+240(%rip), %rax	# optab_table, D.25733
	movl	-180(%rbp), %edx	# submode, submode.294
	movslq	%edx, %rdx	# submode.294, tmp344
	salq	$4, %rdx	#, tmp345
	addq	%rdx, %rax	# tmp345, tmp346
	movl	8(%rax), %eax	# _132->handlers[submode.294_133].insn_code, D.25734
	.loc 1 2901 0
	movslq	%eax, %rdx	# D.25735, tmp347
	movq	%rdx, %rax	# tmp347, tmp348
	salq	$2, %rax	#, tmp348
	addq	%rdx, %rax	# tmp347, tmp348
	salq	$3, %rax	#, tmp349
	addq	$insn_data+16, %rax	#, tmp350
	movq	(%rax), %rbx	# insn_data[_135].genfun, D.25736
	.loc 1 2900 0
	movq	-224(%rbp), %rdx	# y, tmp351
	movl	-180(%rbp), %eax	# submode, tmp352
	movq	%rdx, %rsi	# tmp351,
	movl	%eax, %edi	# tmp352,
	call	gen_realpart	#
	movq	%rax, %r12	#, D.25737
	movq	-216(%rbp), %rax	# x, tmp353
	movq	8(%rax), %rdx	# x_29(D)->fld[0].rtx, D.25737
	movl	-180(%rbp), %eax	# submode, tmp354
	movq	%rdx, %rsi	# D.25737,
	movl	%eax, %edi	# tmp354,
	call	gen_rtx_MEM	#
	movq	%r12, %rsi	# D.25737,
	movq	%rax, %rdi	# D.25737,
	movl	$0, %eax	#,
	call	*%rbx	# D.25736
	movq	%rax, %rdi	# D.25737,
	call	emit_insn	#
	jmp	.L497	#
.L498:
.LBB38:
	.loc 1 2926 0
	movl	-188(%rbp), %eax	# mode, mode.295
	cltq
	movzwl	mode_bitsize(%rax,%rax), %eax	# mode_bitsize, D.25740
	movzwl	%ax, %edx	# D.25740, D.25735
	movl	target_flags(%rip), %eax	# target_flags, target_flags.297
	andl	$33554432, %eax	#, D.25735
	testl	%eax, %eax	# D.25735
	je	.L499	#,
	.loc 1 2926 0 is_stmt 0 discriminator 1
	movl	$128, %eax	#, iftmp.296
	jmp	.L500	#
.L499:
	.loc 1 2926 0 discriminator 2
	movl	$64, %eax	#, iftmp.296
.L500:
	.loc 1 2926 0 discriminator 3
	cmpl	%eax, %edx	# iftmp.296, D.25735
	jge	.L501	#,
	.loc 1 2927 0 is_stmt 1
	movl	reload_in_progress(%rip), %edx	# reload_in_progress, reload_in_progress.298
	movl	reload_completed(%rip), %eax	# reload_completed, reload_completed.299
	orl	%edx, %eax	# reload_in_progress.298, D.25735
	testl	%eax, %eax	# D.25735
	jne	.L501	#,
.LBB39:
	.loc 1 2930 0
	movq	-216(%rbp), %rax	# x, tmp356
	movzwl	(%rax), %eax	# x_29(D)->code, D.25740
	cmpw	$61, %ax	#, D.25740
	jne	.L502	#,
	.loc 1 2930 0 is_stmt 0 discriminator 1
	movq	-216(%rbp), %rax	# x, tmp357
	movl	8(%rax), %eax	# x_29(D)->fld[0].rtuint, D.25738
	cmpl	$52, %eax	#, D.25738
	ja	.L502	#,
	.loc 1 2930 0 discriminator 3
	movl	$1, %eax	#, iftmp.300
	jmp	.L503	#
.L502:
	.loc 1 2930 0 discriminator 2
	movl	$0, %eax	#, iftmp.300
.L503:
	.loc 1 2929 0 is_stmt 1
	movl	%eax, -172(%rbp)	# iftmp.300, packed_dest_p
	.loc 1 2932 0
	movq	-224(%rbp), %rax	# y, tmp358
	movzwl	(%rax), %eax	# y_42(D)->code, D.25740
	cmpw	$61, %ax	#, D.25740
	jne	.L504	#,
	.loc 1 2932 0 is_stmt 0 discriminator 1
	movq	-224(%rbp), %rax	# y, tmp359
	movl	8(%rax), %eax	# y_42(D)->fld[0].rtuint, D.25738
	cmpl	$52, %eax	#, D.25738
	ja	.L504	#,
	.loc 1 2932 0 discriminator 3
	movl	$1, %eax	#, iftmp.301
	jmp	.L505	#
.L504:
	.loc 1 2932 0 discriminator 2
	movl	$0, %eax	#, iftmp.301
.L505:
	.loc 1 2931 0 is_stmt 1
	movl	%eax, -168(%rbp)	# iftmp.301, packed_src_p
	.loc 1 2934 0
	cmpl	$0, -172(%rbp)	#, packed_dest_p
	jne	.L506	#,
	.loc 1 2934 0 is_stmt 0 discriminator 1
	cmpl	$0, -168(%rbp)	#, packed_src_p
	je	.L501	#,
.L506:
.LBB40:
	.loc 1 2936 0 is_stmt 1
	cmpl	$6, -184(%rbp)	#, class
	jne	.L507	#,
	.loc 1 2936 0 is_stmt 0 discriminator 1
	movl	$2, %eax	#, iftmp.302
	jmp	.L508	#
.L507:
	.loc 1 2936 0 discriminator 2
	movl	$1, %eax	#, iftmp.302
.L508:
	.loc 1 2936 0 discriminator 3
	movl	%eax, -164(%rbp)	# iftmp.302, reg_class
	.loc 1 2940 0 is_stmt 1 discriminator 3
	movl	-188(%rbp), %eax	# mode, mode.303
	cltq
	movzwl	mode_bitsize(%rax,%rax), %eax	# mode_bitsize, D.25740
	movzwl	%ax, %eax	# D.25740, D.25738
	.loc 1 2939 0 discriminator 3
	movl	-164(%rbp), %ecx	# reg_class, tmp361
	movl	$1, %edx	#,
	movl	%ecx, %esi	# tmp361,
	movl	%eax, %edi	# D.25738,
	call	mode_for_size	#
	movl	%eax, -160(%rbp)	# tmp362, reg_mode
	.loc 1 2942 0 discriminator 3
	cmpl	$51, -160(%rbp)	#, reg_mode
	je	.L501	#,
.LBB41:
	.loc 1 2945 0
	movl	-188(%rbp), %eax	# mode, mode.304
	cltq
	movzbl	mode_size(%rax), %eax	# mode_size, D.25732
	.loc 1 2944 0
	movzbl	%al, %ecx	# D.25732, D.25741
	movl	-160(%rbp), %eax	# reg_mode, tmp364
	movl	$0, %edx	#,
	movq	%rcx, %rsi	# D.25741,
	movl	%eax, %edi	# tmp364,
	call	assign_stack_temp	#
	movq	%rax, -104(%rbp)	# tmp365, mem
	.loc 1 2946 0
	movl	-188(%rbp), %esi	# mode, tmp366
	movq	-104(%rbp), %rax	# mem, tmp367
	movl	$1, %r8d	#,
	movl	$1, %ecx	#,
	movl	$0, %edx	#,
	movq	%rax, %rdi	# tmp367,
	call	adjust_address_1	#
	movq	%rax, -96(%rbp)	# tmp368, cmem
	.loc 1 2948 0
	movq	cfun(%rip), %rax	# cfun, cfun.305
	.loc 1 2949 0
	movq	$.LC3, 136(%rax)	#, cfun.305_173->cannot_inline
	.loc 1 2951 0
	cmpl	$0, -172(%rbp)	#, packed_dest_p
	je	.L509	#,
.LBB42:
	.loc 1 2953 0
	movq	-216(%rbp), %rcx	# x, tmp369
	movl	-160(%rbp), %eax	# reg_mode, tmp370
	movl	$0, %edx	#,
	movq	%rcx, %rsi	# tmp369,
	movl	%eax, %edi	# tmp370,
	call	gen_rtx_SUBREG	#
	movq	%rax, -88(%rbp)	# tmp371, sreg
	.loc 1 2955 0
	movq	-224(%rbp), %rdx	# y, tmp372
	movq	-96(%rbp), %rax	# cmem, tmp373
	movq	%rdx, %rsi	# tmp372,
	movq	%rax, %rdi	# tmp373,
	call	emit_move_insn_1	#
	.loc 1 2956 0
	movq	-104(%rbp), %rdx	# mem, tmp374
	movq	-88(%rbp), %rax	# sreg, tmp375
	movq	%rdx, %rsi	# tmp374,
	movq	%rax, %rdi	# tmp375,
	call	emit_move_insn_1	#
	jmp	.L480	#
.L509:
.LBE42:
.LBB43:
	.loc 1 2960 0
	movq	-224(%rbp), %rcx	# y, tmp376
	movl	-160(%rbp), %eax	# reg_mode, tmp377
	movl	$0, %edx	#,
	movq	%rcx, %rsi	# tmp376,
	movl	%eax, %edi	# tmp377,
	call	gen_rtx_SUBREG	#
	movq	%rax, -80(%rbp)	# tmp378, sreg
	.loc 1 2962 0
	movq	-80(%rbp), %rdx	# sreg, tmp379
	movq	-104(%rbp), %rax	# mem, tmp380
	movq	%rdx, %rsi	# tmp379,
	movq	%rax, %rdi	# tmp380,
	call	emit_move_insn_1	#
	.loc 1 2963 0
	movq	-96(%rbp), %rdx	# cmem, tmp381
	movq	-216(%rbp), %rax	# x, tmp382
	movq	%rdx, %rsi	# tmp381,
	movq	%rax, %rdi	# tmp382,
	call	emit_move_insn_1	#
	jmp	.L480	#
.L501:
.LBE43:
.LBE41:
.LBE40:
.LBE39:
	.loc 1 2969 0
	movq	-216(%rbp), %rdx	# x, tmp383
	movl	-180(%rbp), %eax	# submode, tmp384
	movq	%rdx, %rsi	# tmp383,
	movl	%eax, %edi	# tmp384,
	call	gen_realpart	#
	movq	%rax, -72(%rbp)	# tmp385, realpart_x
	.loc 1 2970 0
	movq	-224(%rbp), %rdx	# y, tmp386
	movl	-180(%rbp), %eax	# submode, tmp387
	movq	%rdx, %rsi	# tmp386,
	movl	%eax, %edi	# tmp387,
	call	gen_realpart	#
	movq	%rax, -64(%rbp)	# tmp388, realpart_y
	.loc 1 2971 0
	movq	-216(%rbp), %rdx	# x, tmp389
	movl	-180(%rbp), %eax	# submode, tmp390
	movq	%rdx, %rsi	# tmp389,
	movl	%eax, %edi	# tmp390,
	call	gen_imagpart	#
	movq	%rax, -56(%rbp)	# tmp391, imagpart_x
	.loc 1 2972 0
	movq	-224(%rbp), %rdx	# y, tmp392
	movl	-180(%rbp), %eax	# submode, tmp393
	movq	%rdx, %rsi	# tmp392,
	movl	%eax, %edi	# tmp393,
	call	gen_imagpart	#
	movq	%rax, -48(%rbp)	# tmp394, imagpart_y
	.loc 1 2978 0
	movq	-216(%rbp), %rax	# x, tmp395
	cmpq	-224(%rbp), %rax	# y, tmp395
	je	.L510	#,
	.loc 1 2979 0
	movl	reload_in_progress(%rip), %eax	# reload_in_progress, reload_in_progress.306
	testl	%eax, %eax	# reload_in_progress.306
	jne	.L510	#,
	.loc 1 2979 0 is_stmt 0 discriminator 1
	movl	reload_completed(%rip), %eax	# reload_completed, reload_completed.307
	testl	%eax, %eax	# reload_completed.307
	jne	.L510	#,
	.loc 1 2980 0 is_stmt 1
	movq	-72(%rbp), %rax	# realpart_x, tmp396
	movzwl	(%rax), %eax	# realpart_x_178->code, D.25740
	cmpw	$63, %ax	#, D.25740
	je	.L511	#,
	.loc 1 2981 0
	movq	-56(%rbp), %rax	# imagpart_x, tmp397
	movzwl	(%rax), %eax	# imagpart_x_180->code, D.25740
	cmpw	$63, %ax	#, D.25740
	jne	.L510	#,
.L511:
	.loc 1 2982 0
	movq	-216(%rbp), %rax	# x, tmp398
	movq	%rax, %rdx	# tmp398,
	movl	$0, %esi	#,
	movl	$49, %edi	#,
	call	gen_rtx_fmt_e	#
	movq	%rax, %rdi	# D.25737,
	call	emit_insn	#
.L510:
	.loc 1 2984 0
	movq	optab_table+240(%rip), %rax	# optab_table, D.25733
	movl	-180(%rbp), %edx	# submode, submode.308
	movslq	%edx, %rdx	# submode.308, tmp399
	salq	$4, %rdx	#, tmp400
	addq	%rdx, %rax	# tmp400, tmp401
	movl	8(%rax), %eax	# _187->handlers[submode.308_188].insn_code, D.25734
	.loc 1 2985 0
	movslq	%eax, %rdx	# D.25735, tmp402
	movq	%rdx, %rax	# tmp402, tmp403
	salq	$2, %rax	#, tmp403
	addq	%rdx, %rax	# tmp402, tmp403
	salq	$3, %rax	#, tmp404
	addq	$insn_data+16, %rax	#, tmp405
	movq	(%rax), %rdx	# insn_data[_190].genfun, D.25736
	.loc 1 2984 0
	movq	-64(%rbp), %rcx	# realpart_y, tmp406
	movq	-72(%rbp), %rax	# realpart_x, tmp407
	movq	%rcx, %rsi	# tmp406,
	movq	%rax, %rdi	# tmp407,
	movl	$0, %eax	#,
	call	*%rdx	# D.25736
	movq	%rax, %rdi	# D.25737,
	call	emit_insn	#
	.loc 1 2986 0
	movq	optab_table+240(%rip), %rax	# optab_table, D.25733
	movl	-180(%rbp), %edx	# submode, submode.309
	movslq	%edx, %rdx	# submode.309, tmp408
	salq	$4, %rdx	#, tmp409
	addq	%rdx, %rax	# tmp409, tmp410
	movl	8(%rax), %eax	# _193->handlers[submode.309_194].insn_code, D.25734
	.loc 1 2987 0
	movslq	%eax, %rdx	# D.25735, tmp411
	movq	%rdx, %rax	# tmp411, tmp412
	salq	$2, %rax	#, tmp412
	addq	%rdx, %rax	# tmp411, tmp412
	salq	$3, %rax	#, tmp413
	addq	$insn_data+16, %rax	#, tmp414
	movq	(%rax), %rdx	# insn_data[_196].genfun, D.25736
	.loc 1 2986 0
	movq	-48(%rbp), %rcx	# imagpart_y, tmp415
	movq	-56(%rbp), %rax	# imagpart_x, tmp416
	movq	%rcx, %rsi	# tmp415,
	movq	%rax, %rdi	# tmp416,
	movl	$0, %eax	#,
	call	*%rdx	# D.25736
	movq	%rax, %rdi	# D.25737,
	call	emit_insn	#
.L497:
.LBE38:
	.loc 1 2990 0
	call	get_last_insn	#
	jmp	.L480	#
.L482:
.LBE36:
	.loc 1 2996 0
	movl	-188(%rbp), %eax	# mode, mode.310
	cltq
	movzbl	mode_size(%rax), %eax	# mode_size, D.25732
	movzbl	%al, %edx	# D.25732, D.25735
	movl	target_flags(%rip), %eax	# target_flags, target_flags.312
	andl	$33554432, %eax	#, D.25735
	testl	%eax, %eax	# D.25735
	je	.L512	#,
	.loc 1 2996 0 is_stmt 0 discriminator 1
	movl	$8, %eax	#, iftmp.311
	jmp	.L513	#
.L512:
	.loc 1 2996 0 discriminator 2
	movl	$4, %eax	#, iftmp.311
.L513:
	.loc 1 2996 0 discriminator 3
	cmpl	%eax, %edx	# iftmp.311, D.25735
	jle	.L514	#,
.LBB44:
	.loc 1 2998 0 is_stmt 1
	movq	$0, -152(%rbp)	#, last_insn
	.loc 1 3007 0
	movq	-216(%rbp), %rax	# x, tmp418
	movzbl	2(%rax), %eax	# x_29(D)->mode, D.25732
	movzbl	%al, %edx	# D.25732, D.25739
	movq	-216(%rbp), %rax	# x, tmp419
	movl	%edx, %esi	# D.25739,
	movq	%rax, %rdi	# tmp419,
	call	push_operand	#
	testl	%eax, %eax	# D.25735
	je	.L515	#,
.LBB45:
	.loc 1 3014 0
	movq	global_rtl+16(%rip), %rbx	# global_rtl, D.25737
	.loc 1 3021 0
	movl	target_flags(%rip), %eax	# target_flags, target_flags.314
	andl	$33554432, %eax	#, D.25735
	.loc 1 3014 0
	testl	%eax, %eax	# D.25735
	je	.L516	#,
	.loc 1 3021 0
	movq	-216(%rbp), %rax	# x, tmp420
	movzbl	2(%rax), %eax	# x_29(D)->mode, D.25732
	movzbl	%al, %eax	# D.25732, D.25735
	cltq
	movzbl	mode_size(%rax), %eax	# mode_size, D.25732
	movzbl	%al, %eax	# D.25732, D.25735
	addl	$7, %eax	#, D.25735
	andl	$-8, %eax	#, D.25735
	.loc 1 3014 0
	cltq
	jmp	.L517	#
.L516:
	.loc 1 3021 0 discriminator 1
	movq	-216(%rbp), %rax	# x, tmp422
	movzbl	2(%rax), %eax	# x_29(D)->mode, D.25732
	movzbl	%al, %eax	# D.25732, D.25735
	cltq
	movzbl	mode_size(%rax), %eax	# mode_size, D.25732
	movzbl	%al, %eax	# D.25732, D.25735
	addl	$1, %eax	#, D.25735
	andl	$-2, %eax	#, D.25735
	.loc 1 3014 0 discriminator 1
	cltq
.L517:
	.loc 1 3014 0 is_stmt 0 discriminator 2
	movq	%rax, %rsi	# iftmp.313,
	movl	$0, %edi	#,
	call	gen_rtx_CONST_INT	#
	movq	%rax, %rcx	#, D.25737
	movq	global_rtl+16(%rip), %rdx	# global_rtl, D.25737
	movq	optab_table+16(%rip), %rsi	# optab_table, D.25733
	movl	target_flags(%rip), %eax	# target_flags, target_flags.316
	andl	$33554432, %eax	#, D.25735
	testl	%eax, %eax	# D.25735
	je	.L518	#,
	.loc 1 3014 0 discriminator 3
	movl	$5, %eax	#, iftmp.315
	jmp	.L519	#
.L518:
	.loc 1 3014 0 discriminator 4
	movl	$4, %eax	#, iftmp.315
.L519:
	.loc 1 3014 0 discriminator 5
	movl	$3, (%rsp)	#,
	movl	$0, %r9d	#,
	movq	%rbx, %r8	# D.25737,
	movl	%eax, %edi	# iftmp.315,
	call	expand_binop	#
	movq	%rax, -144(%rbp)	# tmp424, temp
	.loc 1 3026 0 is_stmt 1 discriminator 5
	movq	global_rtl+16(%rip), %rax	# global_rtl, D.25737
	cmpq	-144(%rbp), %rax	# temp, D.25737
	je	.L520	#,
	.loc 1 3027 0
	movq	global_rtl+16(%rip), %rax	# global_rtl, D.25737
	movq	-144(%rbp), %rdx	# temp, tmp425
	movq	%rdx, %rsi	# tmp425,
	movq	%rax, %rdi	# D.25737,
	call	emit_move_insn	#
.L520:
	.loc 1 3029 0
	movq	-216(%rbp), %rax	# x, tmp426
	movq	8(%rax), %rax	# x_29(D)->fld[0].rtx, D.25737
	movzwl	(%rax), %eax	# _238->code, D.25740
	movzwl	%ax, %eax	# D.25740, tmp427
	movl	%eax, -156(%rbp)	# tmp427, code
	.loc 1 3032 0
	cmpl	$99, -156(%rbp)	#, code
	jne	.L521	#,
	.loc 1 3033 0
	movq	-216(%rbp), %rax	# x, tmp428
	movzbl	2(%rax), %eax	# x_29(D)->mode, D.25732
	movzbl	%al, %eax	# D.25732, D.25735
	cltq
	movzbl	mode_size(%rax), %eax	# mode_size, D.25732
	movzbl	%al, %eax	# D.25732, D.25741
	negq	%rax	# D.25741
	movq	%rax, %rsi	# D.25741,
	movl	$0, %edi	#,
	call	gen_rtx_CONST_INT	#
	movq	%rax, %rcx	#, D.25737
	movq	global_rtl+16(%rip), %rdx	# global_rtl, D.25737
	movl	target_flags(%rip), %eax	# target_flags, target_flags.318
	andl	$33554432, %eax	#, D.25735
	testl	%eax, %eax	# D.25735
	je	.L522	#,
	.loc 1 3033 0 is_stmt 0 discriminator 1
	movl	$5, %eax	#, iftmp.317
	jmp	.L523	#
.L522:
	.loc 1 3033 0 discriminator 2
	movl	$4, %eax	#, iftmp.317
.L523:
	.loc 1 3033 0 discriminator 1
	movl	%eax, %esi	# iftmp.317,
	movl	$75, %edi	#,
	call	gen_rtx_fmt_ee	#
	movq	%rax, -144(%rbp)	# tmp430, temp
	jmp	.L524	#
.L521:
	.loc 1 3036 0 is_stmt 1
	cmpl	$98, -156(%rbp)	#, code
	jne	.L525	#,
	.loc 1 3037 0
	movq	-216(%rbp), %rax	# x, tmp431
	movzbl	2(%rax), %eax	# x_29(D)->mode, D.25732
	movzbl	%al, %eax	# D.25732, D.25735
	cltq
	movzbl	mode_size(%rax), %eax	# mode_size, D.25732
	movzbl	%al, %eax	# D.25732, D.25741
	movq	%rax, %rsi	# D.25741,
	movl	$0, %edi	#,
	call	gen_rtx_CONST_INT	#
	movq	%rax, %rcx	#, D.25737
	movq	global_rtl+16(%rip), %rdx	# global_rtl, D.25737
	movl	target_flags(%rip), %eax	# target_flags, target_flags.320
	andl	$33554432, %eax	#, D.25735
	testl	%eax, %eax	# D.25735
	je	.L526	#,
	.loc 1 3037 0 is_stmt 0 discriminator 1
	movl	$5, %eax	#, iftmp.319
	jmp	.L527	#
.L526:
	.loc 1 3037 0 discriminator 2
	movl	$4, %eax	#, iftmp.319
.L527:
	movl	%eax, %esi	# iftmp.319,
	movl	$75, %edi	#,
	call	gen_rtx_fmt_ee	#
	movq	%rax, -144(%rbp)	# tmp433, temp
	jmp	.L524	#
.L525:
	.loc 1 3040 0 is_stmt 1
	movq	global_rtl+16(%rip), %rax	# global_rtl, tmp434
	movq	%rax, -144(%rbp)	# tmp434, temp
.L524:
	.loc 1 3042 0
	movq	-144(%rbp), %rdx	# temp, tmp435
	movq	-216(%rbp), %rax	# x, tmp436
	movl	$0, %esi	#,
	movq	%rax, %rdi	# tmp436,
	call	change_address	#
	movq	%rax, -216(%rbp)	# tmp437, x
.L515:
.LBE45:
	.loc 1 3048 0
	movl	reload_in_progress(%rip), %eax	# reload_in_progress, reload_in_progress.321
	testl	%eax, %eax	# reload_in_progress.321
	je	.L528	#,
	.loc 1 3048 0 is_stmt 0 discriminator 1
	movq	-216(%rbp), %rax	# x, tmp438
	movzwl	(%rax), %eax	# x_1->code, D.25740
	cmpw	$66, %ax	#, D.25740
	jne	.L528	#,
	.loc 1 3049 0 is_stmt 1
	movq	-216(%rbp), %rax	# x, tmp439
	addq	$8, %rax	#, D.25742
	movq	%rax, %rdi	# D.25742,
	call	find_replacement	#
	movq	%rax, -40(%rbp)	# tmp440, inner
	movq	-216(%rbp), %rax	# x, tmp441
	movq	8(%rax), %rax	# x_1->fld[0].rtx, D.25737
	cmpq	%rax, -40(%rbp)	# D.25737, inner
	je	.L528	#,
	.loc 1 3050 0
	movq	-40(%rbp), %rdx	# inner, tmp442
	movq	-216(%rbp), %rax	# x, tmp443
	movq	%rdx, %rsi	# tmp442,
	movq	%rax, %rdi	# tmp443,
	call	replace_equiv_address_nv	#
	movq	%rax, -216(%rbp)	# tmp444, x
.L528:
	.loc 1 3051 0
	movl	reload_in_progress(%rip), %eax	# reload_in_progress, reload_in_progress.322
	testl	%eax, %eax	# reload_in_progress.322
	je	.L529	#,
	.loc 1 3051 0 is_stmt 0 discriminator 1
	movq	-224(%rbp), %rax	# y, tmp445
	movzwl	(%rax), %eax	# y_42(D)->code, D.25740
	cmpw	$66, %ax	#, D.25740
	jne	.L529	#,
	.loc 1 3052 0 is_stmt 1
	movq	-224(%rbp), %rax	# y, tmp446
	addq	$8, %rax	#, D.25742
	movq	%rax, %rdi	# D.25742,
	call	find_replacement	#
	movq	%rax, -40(%rbp)	# tmp447, inner
	movq	-224(%rbp), %rax	# y, tmp448
	movq	8(%rax), %rax	# y_42(D)->fld[0].rtx, D.25737
	cmpq	%rax, -40(%rbp)	# D.25737, inner
	je	.L529	#,
	.loc 1 3053 0
	movq	-40(%rbp), %rdx	# inner, tmp449
	movq	-224(%rbp), %rax	# y, tmp450
	movq	%rdx, %rsi	# tmp449,
	movq	%rax, %rdi	# tmp450,
	call	replace_equiv_address_nv	#
	movq	%rax, -224(%rbp)	# tmp451, y
.L529:
	.loc 1 3055 0
	call	start_sequence	#
	.loc 1 3057 0
	movl	$0, -196(%rbp)	#, need_clobber
	.loc 1 3058 0
	movl	$0, -192(%rbp)	#, i
	jmp	.L530	#
.L540:
.LBB46:
	.loc 1 3062 0
	movl	-192(%rbp), %esi	# i, i.323
	movl	-188(%rbp), %edx	# mode, tmp452
	movq	-216(%rbp), %rax	# x, tmp453
	movl	%edx, %ecx	# tmp452,
	movl	$1, %edx	#,
	movq	%rax, %rdi	# tmp453,
	call	operand_subword	#
	movq	%rax, -32(%rbp)	# tmp454, xpart
	.loc 1 3063 0
	movl	-192(%rbp), %esi	# i, i.324
	movl	-188(%rbp), %edx	# mode, tmp455
	movq	-224(%rbp), %rax	# y, tmp456
	movl	%edx, %ecx	# tmp455,
	movl	$1, %edx	#,
	movq	%rax, %rdi	# tmp456,
	call	operand_subword	#
	movq	%rax, -136(%rbp)	# tmp457, ypart
	.loc 1 3068 0
	cmpq	$0, -136(%rbp)	#, ypart
	jne	.L531	#,
	.loc 1 3068 0 is_stmt 0 discriminator 1
	movq	-224(%rbp), %rax	# y, tmp458
	movzwl	(%rax), %eax	# y_5->code, D.25740
	cmpw	$67, %ax	#, D.25740
	je	.L532	#,
	movq	-224(%rbp), %rax	# y, tmp459
	movzwl	(%rax), %eax	# y_5->code, D.25740
	cmpw	$68, %ax	#, D.25740
	je	.L532	#,
	movq	-224(%rbp), %rax	# y, tmp460
	movzwl	(%rax), %eax	# y_5->code, D.25740
	cmpw	$54, %ax	#, D.25740
	je	.L532	#,
	movq	-224(%rbp), %rax	# y, tmp461
	movzwl	(%rax), %eax	# y_5->code, D.25740
	cmpw	$55, %ax	#, D.25740
	je	.L532	#,
	movq	-224(%rbp), %rax	# y, tmp462
	movzwl	(%rax), %eax	# y_5->code, D.25740
	cmpw	$58, %ax	#, D.25740
	je	.L532	#,
	movq	-224(%rbp), %rax	# y, tmp463
	movzwl	(%rax), %eax	# y_5->code, D.25740
	cmpw	$134, %ax	#, D.25740
	je	.L532	#,
	movq	-224(%rbp), %rax	# y, tmp464
	movzwl	(%rax), %eax	# y_5->code, D.25740
	cmpw	$56, %ax	#, D.25740
	je	.L532	#,
	movq	-224(%rbp), %rax	# y, tmp465
	movzwl	(%rax), %eax	# y_5->code, D.25740
	cmpw	$140, %ax	#, D.25740
	jne	.L531	#,
.L532:
	.loc 1 3070 0 is_stmt 1
	movq	-224(%rbp), %rdx	# y, tmp466
	movl	-188(%rbp), %eax	# mode, tmp467
	movq	%rdx, %rsi	# tmp466,
	movl	%eax, %edi	# tmp467,
	call	force_const_mem	#
	movq	%rax, -224(%rbp)	# tmp468, y
	.loc 1 3071 0
	movl	-192(%rbp), %esi	# i, i.325
	movl	-188(%rbp), %edx	# mode, tmp469
	movq	-224(%rbp), %rax	# y, tmp470
	movl	%edx, %ecx	# tmp469,
	movl	$1, %edx	#,
	movq	%rax, %rdi	# tmp470,
	call	operand_subword	#
	movq	%rax, -136(%rbp)	# tmp471, ypart
	jmp	.L533	#
.L531:
	.loc 1 3073 0
	cmpq	$0, -136(%rbp)	#, ypart
	jne	.L533	#,
	.loc 1 3074 0
	movl	-192(%rbp), %ecx	# i, i.326
	movl	-188(%rbp), %edx	# mode, tmp472
	movq	-224(%rbp), %rax	# y, tmp473
	movl	%ecx, %esi	# i.326,
	movq	%rax, %rdi	# tmp473,
	call	operand_subword_force	#
	movq	%rax, -136(%rbp)	# tmp474, ypart
.L533:
	.loc 1 3076 0
	cmpq	$0, -32(%rbp)	#, xpart
	je	.L534	#,
	.loc 1 3076 0 is_stmt 0 discriminator 1
	cmpq	$0, -136(%rbp)	#, ypart
	jne	.L535	#,
.L534:
	.loc 1 3077 0 is_stmt 1
	movl	$__FUNCTION__.14594, %edx	#,
	movl	$3077, %esi	#,
	movl	$.LC0, %edi	#,
	call	fancy_abort	#
.L535:
	.loc 1 3079 0
	movq	-32(%rbp), %rax	# xpart, tmp475
	movzwl	(%rax), %eax	# xpart_294->code, D.25740
	cmpw	$63, %ax	#, D.25740
	sete	%al	#, D.25743
	movzbl	%al, %eax	# D.25743, D.25735
	orl	%eax, -196(%rbp)	# D.25735, need_clobber
	.loc 1 3081 0
	movq	-136(%rbp), %rdx	# ypart, tmp476
	movq	-32(%rbp), %rax	# xpart, tmp477
	movq	%rdx, %rsi	# tmp476,
	movq	%rax, %rdi	# tmp477,
	call	emit_move_insn	#
	movq	%rax, -152(%rbp)	# tmp478, last_insn
.LBE46:
	.loc 1 3060 0
	addl	$1, -192(%rbp)	#, i
.L530:
	.loc 1 3059 0
	movl	-188(%rbp), %eax	# mode, mode.327
	cltq
	movzbl	mode_size(%rax), %eax	# mode_size, D.25732
	movzbl	%al, %edx	# D.25732, D.25735
	movl	target_flags(%rip), %eax	# target_flags, target_flags.329
	andl	$33554432, %eax	#, D.25735
	testl	%eax, %eax	# D.25735
	je	.L536	#,
	.loc 1 3059 0 is_stmt 0 discriminator 1
	movl	$7, %eax	#, iftmp.328
	jmp	.L537	#
.L536:
	.loc 1 3059 0 discriminator 2
	movl	$3, %eax	#, iftmp.328
.L537:
	.loc 1 3059 0 discriminator 3
	addl	%edx, %eax	# D.25735, D.25735
	movl	target_flags(%rip), %edx	# target_flags, target_flags.331
	andl	$33554432, %edx	#, D.25735
	testl	%edx, %edx	# D.25735
	je	.L538	#,
	.loc 1 3059 0 discriminator 1
	movl	$8, %ebx	#, iftmp.330
	jmp	.L539	#
.L538:
	.loc 1 3059 0 discriminator 2
	movl	$4, %ebx	#, iftmp.330
.L539:
	.loc 1 3059 0 discriminator 3
	cltd
	idivl	%ebx	# iftmp.330
	.loc 1 3058 0 is_stmt 1 discriminator 3
	cmpl	-192(%rbp), %eax	# i, D.25735
	jg	.L540	#,
	.loc 1 3084 0
	call	gen_sequence	#
	movq	%rax, -24(%rbp)	# tmp482, seq
	.loc 1 3085 0
	call	end_sequence	#
	.loc 1 3091 0
	movq	-216(%rbp), %rax	# x, tmp483
	cmpq	-224(%rbp), %rax	# y, tmp483
	je	.L541	#,
	.loc 1 3092 0
	movl	reload_in_progress(%rip), %eax	# reload_in_progress, reload_in_progress.332
	testl	%eax, %eax	# reload_in_progress.332
	jne	.L541	#,
	.loc 1 3092 0 is_stmt 0 discriminator 1
	movl	reload_completed(%rip), %eax	# reload_completed, reload_completed.333
	testl	%eax, %eax	# reload_completed.333
	jne	.L541	#,
	.loc 1 3093 0 is_stmt 1
	cmpl	$0, -196(%rbp)	#, need_clobber
	je	.L541	#,
	.loc 1 3094 0
	movq	-216(%rbp), %rax	# x, tmp484
	movq	%rax, %rdx	# tmp484,
	movl	$0, %esi	#,
	movl	$49, %edi	#,
	call	gen_rtx_fmt_e	#
	movq	%rax, %rdi	# D.25737,
	call	emit_insn	#
.L541:
	.loc 1 3096 0
	movq	-24(%rbp), %rax	# seq, tmp485
	movq	%rax, %rdi	# tmp485,
	call	emit_insn	#
	.loc 1 3098 0
	movq	-152(%rbp), %rax	# last_insn, D.25731
	jmp	.L480	#
.L514:
.LBE44:
	.loc 1 3101 0
	movl	$__FUNCTION__.14594, %edx	#,
	movl	$3101, %esi	#,
	movl	$.LC0, %edi	#,
	call	fancy_abort	#
.L480:
	.loc 1 3102 0
	addq	$224, %rsp	#,
	popq	%rbx	#
	popq	%r12	#
	popq	%rbp	#
	.cfi_def_cfa 7, 8
	ret
	.cfi_endproc
.LFE34:
	.size	emit_move_insn_1, .-emit_move_insn_1
	.globl	push_block
	.type	push_block, @function
push_block:
.LFB35:
	.loc 1 3119 0
	.cfi_startproc
	pushq	%rbp	#
	.cfi_def_cfa_offset 16
	.cfi_offset 6, -16
	movq	%rsp, %rbp	#,
	.cfi_def_cfa_register 6
	subq	$48, %rsp	#,
	movq	%rdi, -24(%rbp)	# size, size
	movl	%esi, -28(%rbp)	# extra, extra
	movl	%edx, -32(%rbp)	# below, below
	.loc 1 3122 0
	movl	ptr_mode(%rip), %esi	# ptr_mode, ptr_mode.334
	movl	target_flags(%rip), %eax	# target_flags, target_flags.336
	andl	$33554432, %eax	#, D.25745
	testl	%eax, %eax	# D.25745
	je	.L543	#,
	.loc 1 3122 0 is_stmt 0 discriminator 1
	movl	$5, %eax	#, iftmp.335
	jmp	.L544	#
.L543:
	.loc 1 3122 0 discriminator 2
	movl	$4, %eax	#, iftmp.335
.L544:
	.loc 1 3122 0 discriminator 3
	movq	-24(%rbp), %rdx	# size, tmp87
	movl	$1, %ecx	#,
	movl	%eax, %edi	# iftmp.335,
	call	convert_modes	#
	movq	%rax, -24(%rbp)	# tmp88, size
	.loc 1 3123 0 is_stmt 1 discriminator 3
	movq	-24(%rbp), %rax	# size, tmp89
	movzwl	(%rax), %eax	# size_12->code, D.25746
	cmpw	$67, %ax	#, D.25746
	je	.L545	#,
	.loc 1 3123 0 is_stmt 0 discriminator 1
	movq	-24(%rbp), %rax	# size, tmp90
	movzwl	(%rax), %eax	# size_12->code, D.25746
	cmpw	$68, %ax	#, D.25746
	je	.L545	#,
	movq	-24(%rbp), %rax	# size, tmp91
	movzwl	(%rax), %eax	# size_12->code, D.25746
	cmpw	$54, %ax	#, D.25746
	je	.L545	#,
	movq	-24(%rbp), %rax	# size, tmp92
	movzwl	(%rax), %eax	# size_12->code, D.25746
	cmpw	$55, %ax	#, D.25746
	je	.L545	#,
	movq	-24(%rbp), %rax	# size, tmp93
	movzwl	(%rax), %eax	# size_12->code, D.25746
	cmpw	$58, %ax	#, D.25746
	je	.L545	#,
	movq	-24(%rbp), %rax	# size, tmp94
	movzwl	(%rax), %eax	# size_12->code, D.25746
	cmpw	$134, %ax	#, D.25746
	je	.L545	#,
	movq	-24(%rbp), %rax	# size, tmp95
	movzwl	(%rax), %eax	# size_12->code, D.25746
	cmpw	$56, %ax	#, D.25746
	je	.L545	#,
	movq	-24(%rbp), %rax	# size, tmp96
	movzwl	(%rax), %eax	# size_12->code, D.25746
	cmpw	$140, %ax	#, D.25746
	jne	.L546	#,
.L545:
	.loc 1 3124 0 is_stmt 1
	movl	-28(%rbp), %eax	# extra, tmp97
	movslq	%eax, %rdx	# tmp97, D.25747
	movq	-24(%rbp), %rax	# size, tmp98
	movq	%rdx, %rsi	# D.25747,
	movq	%rax, %rdi	# tmp98,
	call	plus_constant_wide	#
	movq	%rax, %rdi	# D.25748,
	call	anti_adjust_stack	#
	jmp	.L547	#
.L546:
	.loc 1 3125 0
	movq	-24(%rbp), %rax	# size, tmp99
	movzwl	(%rax), %eax	# size_12->code, D.25746
	cmpw	$61, %ax	#, D.25746
	jne	.L548	#,
	.loc 1 3125 0 is_stmt 0 discriminator 1
	cmpl	$0, -28(%rbp)	#, extra
	jne	.L548	#,
	.loc 1 3126 0 is_stmt 1
	movq	-24(%rbp), %rax	# size, tmp100
	movq	%rax, %rdi	# tmp100,
	call	anti_adjust_stack	#
	jmp	.L547	#
.L548:
	.loc 1 3129 0
	movl	target_flags(%rip), %eax	# target_flags, target_flags.338
	andl	$33554432, %eax	#, D.25745
	testl	%eax, %eax	# D.25745
	je	.L549	#,
	.loc 1 3129 0 is_stmt 0 discriminator 1
	movl	$5, %eax	#, iftmp.337
	jmp	.L550	#
.L549:
	.loc 1 3129 0 discriminator 2
	movl	$4, %eax	#, iftmp.337
.L550:
	.loc 1 3129 0 discriminator 3
	movq	-24(%rbp), %rdx	# size, tmp101
	movq	%rdx, %rsi	# tmp101,
	movl	%eax, %edi	# iftmp.337,
	call	copy_to_mode_reg	#
	movq	%rax, -8(%rbp)	# tmp102, temp
	.loc 1 3130 0 is_stmt 1 discriminator 3
	cmpl	$0, -28(%rbp)	#, extra
	je	.L551	#,
	.loc 1 3131 0
	movl	-28(%rbp), %eax	# extra, tmp103
	cltq
	movq	%rax, %rsi	# D.25747,
	movl	$0, %edi	#,
	call	gen_rtx_CONST_INT	#
	movq	%rax, %rcx	#, D.25748
	movq	optab_table(%rip), %rsi	# optab_table, D.25749
	movl	target_flags(%rip), %eax	# target_flags, target_flags.340
	andl	$33554432, %eax	#, D.25745
	testl	%eax, %eax	# D.25745
	je	.L552	#,
	.loc 1 3131 0 is_stmt 0 discriminator 1
	movl	$5, %eax	#, iftmp.339
	jmp	.L553	#
.L552:
	.loc 1 3131 0 discriminator 2
	movl	$4, %eax	#, iftmp.339
.L553:
	.loc 1 3131 0 discriminator 3
	movq	-8(%rbp), %rdi	# temp, tmp104
	movq	-8(%rbp), %rdx	# temp, tmp105
	movl	$3, (%rsp)	#,
	movl	$0, %r9d	#,
	movq	%rdi, %r8	# tmp104,
	movl	%eax, %edi	# iftmp.339,
	call	expand_binop	#
	movq	%rax, -8(%rbp)	# tmp106, temp
.L551:
	.loc 1 3133 0 is_stmt 1
	movq	-8(%rbp), %rax	# temp, tmp107
	movq	%rax, %rdi	# tmp107,
	call	anti_adjust_stack	#
.L547:
	.loc 1 3142 0
	movq	global_rtl+72(%rip), %rax	# global_rtl, tmp108
	movq	%rax, -8(%rbp)	# tmp108, temp
	.loc 1 3143 0
	cmpl	$0, -28(%rbp)	#, extra
	je	.L556	#,
	.loc 1 3143 0 is_stmt 0 discriminator 1
	cmpl	$0, -32(%rbp)	#, below
	je	.L556	#,
	.loc 1 3144 0 is_stmt 1
	movl	-28(%rbp), %eax	# extra, tmp109
	movslq	%eax, %rdx	# tmp109, D.25747
	movq	-8(%rbp), %rax	# temp, tmp110
	movq	%rdx, %rsi	# D.25747,
	movq	%rax, %rdi	# tmp110,
	call	plus_constant_wide	#
	movq	%rax, -8(%rbp)	# tmp111, temp
.L556:
	.loc 1 3159 0
	movl	class_narrowest_mode+4(%rip), %eax	# class_narrowest_mode, D.25750
	movq	-8(%rbp), %rdx	# temp, tmp112
	movq	%rdx, %rsi	# tmp112,
	movl	%eax, %edi	# D.25750,
	call	memory_address	#
	.loc 1 3160 0
	leave
	.cfi_def_cfa 7, 8
	ret
	.cfi_endproc
.LFE35:
	.size	push_block, .-push_block
	.type	emit_single_push_insn, @function
emit_single_push_insn:
.LFB36:
	.loc 1 3171 0
	.cfi_startproc
	pushq	%rbp	#
	.cfi_def_cfa_offset 16
	.cfi_offset 6, -16
	movq	%rsp, %rbp	#,
	.cfi_def_cfa_register 6
	subq	$64, %rsp	#,
	movl	%edi, -36(%rbp)	# mode, mode
	movq	%rsi, -48(%rbp)	# x, x
	movq	%rdx, -56(%rbp)	# type, type
	.loc 1 3173 0
	movl	target_flags(%rip), %eax	# target_flags, target_flags.351
	andl	$33554432, %eax	#, D.25752
	testl	%eax, %eax	# D.25752
	je	.L558	#,
	.loc 1 3173 0 is_stmt 0 discriminator 1
	movl	-36(%rbp), %eax	# mode, mode.352
	cltq
	movzbl	mode_size(%rax), %eax	# mode_size, D.25753
	movzbl	%al, %eax	# D.25753, D.25752
	addl	$7, %eax	#, D.25752
	andl	$-8, %eax	#, iftmp.350
	jmp	.L559	#
.L558:
	.loc 1 3173 0 discriminator 2
	movl	-36(%rbp), %eax	# mode, mode.353
	cltq
	movzbl	mode_size(%rax), %eax	# mode_size, D.25753
	movzbl	%al, %eax	# D.25753, D.25752
	addl	$1, %eax	#, D.25752
	andl	$-2, %eax	#, iftmp.350
.L559:
	.loc 1 3173 0 discriminator 3
	movl	%eax, -32(%rbp)	# iftmp.350, rounded_size
	.loc 1 3178 0 is_stmt 1 discriminator 3
	movq	cfun(%rip), %rax	# cfun, cfun.354
	movq	16(%rax), %rdx	# cfun.354_24->expr, D.25755
	movq	cfun(%rip), %rax	# cfun, cfun.355
	movq	16(%rax), %rax	# cfun.355_26->expr, D.25755
	movl	8(%rax), %ecx	# _27->x_stack_pointer_delta, D.25752
	movl	target_flags(%rip), %eax	# target_flags, target_flags.357
	andl	$33554432, %eax	#, D.25752
	testl	%eax, %eax	# D.25752
	je	.L560	#,
	.loc 1 3178 0 is_stmt 0 discriminator 1
	movl	-36(%rbp), %eax	# mode, mode.358
	cltq
	movzbl	mode_size(%rax), %eax	# mode_size, D.25753
	movzbl	%al, %eax	# D.25753, D.25752
	addl	$7, %eax	#, D.25752
	andl	$-8, %eax	#, iftmp.356
	jmp	.L561	#
.L560:
	.loc 1 3178 0 discriminator 2
	movl	-36(%rbp), %eax	# mode, mode.359
	cltq
	movzbl	mode_size(%rax), %eax	# mode_size, D.25753
	movzbl	%al, %eax	# D.25753, D.25752
	addl	$1, %eax	#, D.25752
	andl	$-2, %eax	#, iftmp.356
.L561:
	.loc 1 3178 0 discriminator 3
	addl	%ecx, %eax	# D.25752, D.25752
	movl	%eax, 8(%rdx)	# D.25752, _25->x_stack_pointer_delta
	.loc 1 3181 0 is_stmt 1 discriminator 3
	movq	optab_table+384(%rip), %rax	# optab_table, D.25756
	movl	-36(%rbp), %edx	# mode, mode.360
	movslq	%edx, %rdx	# mode.360, tmp120
	salq	$4, %rdx	#, tmp121
	addq	%rdx, %rax	# tmp121, tmp122
	movl	8(%rax), %eax	# _42->handlers[mode.360_43].insn_code, tmp123
	movl	%eax, -28(%rbp)	# tmp123, icode
	.loc 1 3182 0 discriminator 3
	cmpl	$1317, -28(%rbp)	#, icode
	je	.L562	#,
	.loc 1 3184 0
	movl	-28(%rbp), %eax	# icode, icode.361
	movslq	%eax, %rdx	# icode.361, tmp124
	movq	%rdx, %rax	# tmp124, tmp125
	salq	$2, %rax	#, tmp125
	addq	%rdx, %rax	# tmp124, tmp125
	salq	$3, %rax	#, tmp126
	addq	$insn_data+24, %rax	#, tmp127
	movq	(%rax), %rax	# insn_data[icode.361_45].operand, D.25757
	movq	(%rax), %rax	# _46->predicate, tmp128
	movq	%rax, -16(%rbp)	# tmp128, pred
	cmpq	$0, -16(%rbp)	#, pred
	je	.L563	#,
	.loc 1 3185 0
	movl	-36(%rbp), %ecx	# mode, tmp129
	movq	-48(%rbp), %rdx	# x, tmp130
	movq	-16(%rbp), %rax	# pred, tmp131
	movl	%ecx, %esi	# tmp129,
	movq	%rdx, %rdi	# tmp130,
	call	*%rax	# tmp131
	testl	%eax, %eax	# D.25752
	jne	.L563	#,
	.loc 1 3186 0
	movq	-48(%rbp), %rdx	# x, tmp132
	movl	-36(%rbp), %eax	# mode, tmp133
	movq	%rdx, %rsi	# tmp132,
	movl	%eax, %edi	# tmp133,
	call	force_reg	#
	movq	%rax, -48(%rbp)	# tmp134, x
.L563:
	.loc 1 3187 0
	movl	-28(%rbp), %eax	# icode, icode.362
	movslq	%eax, %rdx	# icode.362, tmp135
	movq	%rdx, %rax	# tmp135, tmp136
	salq	$2, %rax	#, tmp136
	addq	%rdx, %rax	# tmp135, tmp136
	salq	$3, %rax	#, tmp137
	addq	$insn_data+16, %rax	#, tmp138
	movq	(%rax), %rdx	# insn_data[icode.362_51].genfun, D.25758
	movq	-48(%rbp), %rax	# x, tmp139
	movq	%rax, %rdi	# tmp139,
	movl	$0, %eax	#,
	call	*%rdx	# D.25758
	movq	%rax, %rdi	# D.25759,
	call	emit_insn	#
	.loc 1 3188 0
	jmp	.L557	#
.L562:
	.loc 1 3190 0
	movl	-36(%rbp), %eax	# mode, mode.363
	cltq
	movzbl	mode_size(%rax), %eax	# mode_size, D.25753
	movzbl	%al, %eax	# D.25753, D.25754
	cmpl	-32(%rbp), %eax	# rounded_size, D.25754
	jne	.L565	#,
	.loc 1 3191 0
	movq	global_rtl+16(%rip), %rdx	# global_rtl, D.25759
	movl	target_flags(%rip), %eax	# target_flags, target_flags.365
	andl	$33554432, %eax	#, D.25752
	testl	%eax, %eax	# D.25752
	je	.L566	#,
	.loc 1 3191 0 is_stmt 0 discriminator 1
	movl	$5, %eax	#, iftmp.364
	jmp	.L567	#
.L566:
	.loc 1 3191 0 discriminator 2
	movl	$4, %eax	#, iftmp.364
.L567:
	.loc 1 3191 0 discriminator 1
	movl	%eax, %esi	# iftmp.364,
	movl	$96, %edi	#,
	call	gen_rtx_fmt_e	#
	movq	%rax, -24(%rbp)	# tmp141, dest_addr
	jmp	.L568	#
.L565:
	.loc 1 3195 0 is_stmt 1
	movl	-32(%rbp), %eax	# rounded_size, D.25760
	negq	%rax	# D.25760
	movq	%rax, %rsi	# D.25760,
	movl	$0, %edi	#,
	call	gen_rtx_CONST_INT	#
	movq	%rax, %rcx	#, D.25759
	movq	global_rtl+16(%rip), %rdx	# global_rtl, D.25759
	movl	target_flags(%rip), %eax	# target_flags, target_flags.367
	andl	$33554432, %eax	#, D.25752
	testl	%eax, %eax	# D.25752
	je	.L569	#,
	.loc 1 3195 0 is_stmt 0 discriminator 1
	movl	$5, %eax	#, iftmp.366
	jmp	.L570	#
.L569:
	.loc 1 3195 0 discriminator 2
	movl	$4, %eax	#, iftmp.366
.L570:
	.loc 1 3195 0 discriminator 3
	movl	%eax, %esi	# iftmp.366,
	movl	$75, %edi	#,
	call	gen_rtx_fmt_ee	#
	movq	%rax, -24(%rbp)	# tmp142, dest_addr
	.loc 1 3201 0 is_stmt 1 discriminator 3
	movq	global_rtl+16(%rip), %rdx	# global_rtl, D.25759
	movl	target_flags(%rip), %eax	# target_flags, target_flags.369
	andl	$33554432, %eax	#, D.25752
	testl	%eax, %eax	# D.25752
	je	.L571	#,
	.loc 1 3201 0 is_stmt 0 discriminator 1
	movl	$5, %eax	#, iftmp.368
	jmp	.L572	#
.L571:
	.loc 1 3201 0 discriminator 2
	movl	$4, %eax	#, iftmp.368
.L572:
	.loc 1 3201 0 discriminator 3
	movq	-24(%rbp), %rcx	# dest_addr, tmp143
	movl	%eax, %esi	# iftmp.368,
	movl	$100, %edi	#,
	call	gen_rtx_fmt_ee	#
	movq	%rax, -24(%rbp)	# tmp144, dest_addr
.L568:
	.loc 1 3204 0 is_stmt 1
	movq	-24(%rbp), %rdx	# dest_addr, tmp145
	movl	-36(%rbp), %eax	# mode, tmp146
	movq	%rdx, %rsi	# tmp145,
	movl	%eax, %edi	# tmp146,
	call	gen_rtx_MEM	#
	movq	%rax, -8(%rbp)	# tmp147, dest
	.loc 1 3206 0
	cmpq	$0, -56(%rbp)	#, type
	je	.L573	#,
	.loc 1 3208 0
	movq	-56(%rbp), %rcx	# type, tmp148
	movq	-8(%rbp), %rax	# dest, tmp149
	movl	$1, %edx	#,
	movq	%rcx, %rsi	# tmp148,
	movq	%rax, %rdi	# tmp149,
	call	set_mem_attributes	#
	.loc 1 3210 0
	movl	flag_optimize_sibling_calls(%rip), %eax	# flag_optimize_sibling_calls, flag_optimize_sibling_calls.370
	testl	%eax, %eax	# flag_optimize_sibling_calls.370
	je	.L573	#,
	.loc 1 3215 0
	movq	-8(%rbp), %rax	# dest, tmp150
	movl	$0, %esi	#,
	movq	%rax, %rdi	# tmp150,
	call	set_mem_alias_set	#
.L573:
	.loc 1 3217 0
	movq	-48(%rbp), %rdx	# x, tmp151
	movq	-8(%rbp), %rax	# dest, tmp152
	movq	%rdx, %rsi	# tmp151,
	movq	%rax, %rdi	# tmp152,
	call	emit_move_insn	#
.L557:
	.loc 1 3218 0
	leave
	.cfi_def_cfa 7, 8
	ret
	.cfi_endproc
.LFE36:
	.size	emit_single_push_insn, .-emit_single_push_insn
	.globl	emit_push_insn
	.type	emit_push_insn, @function
emit_push_insn:
.LFB37:
	.loc 1 3269 0
	.cfi_startproc
	pushq	%rbp	#
	.cfi_def_cfa_offset 16
	.cfi_offset 6, -16
	movq	%rsp, %rbp	#,
	.cfi_def_cfa_register 6
	pushq	%r12	#
	pushq	%rbx	#
	subq	$240, %rsp	#,
	.cfi_offset 12, -24
	.cfi_offset 3, -32
	movq	%rdi, -168(%rbp)	# x, x
	movl	%esi, -172(%rbp)	# mode, mode
	movq	%rdx, -184(%rbp)	# type, type
	movq	%rcx, -192(%rbp)	# size, size
	movl	%r8d, -176(%rbp)	# align, align
	movl	%r9d, -196(%rbp)	# partial, partial
	.loc 1 3271 0
	movl	$2, -144(%rbp)	#, stack_direction
	.loc 1 3281 0
	movl	$1, -140(%rbp)	#, where_pad
	.loc 1 3289 0
	movq	-168(%rbp), %rax	# x, tmp254
	movl	$0, %esi	#,
	movq	%rax, %rdi	# tmp254,
	call	protect_from_queue	#
	movq	%rax, -168(%rbp)	# tmp255, x
	movq	-168(%rbp), %rax	# x, tmp256
	movq	%rax, -104(%rbp)	# tmp256, xinner
	.loc 1 3291 0
	cmpl	$51, -172(%rbp)	#, mode
	jne	.L575	#,
.LBB47:
	.loc 1 3296 0
	movl	target_flags(%rip), %eax	# target_flags, target_flags.373
	andl	$33554432, %eax	#, D.25761
	testl	%eax, %eax	# D.25761
	je	.L576	#,
	.loc 1 3296 0 is_stmt 0 discriminator 1
	movl	$8, %eax	#, iftmp.372
	jmp	.L577	#
.L576:
	.loc 1 3296 0 discriminator 2
	movl	$4, %eax	#, iftmp.372
.L577:
	.loc 1 3296 0 discriminator 3
	imull	-196(%rbp), %eax	# partial, tmp257
	movl	%eax, -136(%rbp)	# tmp257, used
	.loc 1 3297 0 is_stmt 1 discriminator 3
	movl	target_flags(%rip), %eax	# target_flags, target_flags.375
	andl	$33554432, %eax	#, D.25761
	testl	%eax, %eax	# D.25761
	je	.L578	#,
	.loc 1 3297 0 is_stmt 0 discriminator 1
	movl	$8, %ebx	#, iftmp.374
	jmp	.L579	#
.L578:
	.loc 1 3297 0 discriminator 2
	movl	$4, %ebx	#, iftmp.374
.L579:
	.loc 1 3297 0 discriminator 3
	movl	-136(%rbp), %eax	# used, tmp259
	cltd
	idivl	%ebx	# iftmp.374
	movl	%edx, %ecx	# tmp260, tmp260
	movl	%ecx, -132(%rbp)	# tmp260, offset
	.loc 1 3300 0 is_stmt 1 discriminator 3
	cmpq	$0, -192(%rbp)	#, size
	jne	.L580	#,
	.loc 1 3301 0
	movl	$__FUNCTION__.14660, %edx	#,
	movl	$3301, %esi	#,
	movl	$.LC0, %edi	#,
	call	fancy_abort	#
.L580:
	.loc 1 3303 0
	movl	-132(%rbp), %eax	# offset, tmp262
	subl	%eax, -136(%rbp)	# tmp262, used
	.loc 1 3308 0
	cmpl	$0, -196(%rbp)	#, partial
	je	.L581	#,
	.loc 1 3309 0
	movl	-136(%rbp), %eax	# used, tmp263
	movslq	%eax, %rdx	# tmp263, D.25762
	movq	-104(%rbp), %rax	# xinner, tmp264
	movl	$1, %r8d	#,
	movl	$1, %ecx	#,
	movl	$51, %esi	#,
	movq	%rax, %rdi	# tmp264,
	call	adjust_address_1	#
	movq	%rax, -104(%rbp)	# tmp265, xinner
.L581:
	.loc 1 3315 0
	cmpl	$0, 48(%rbp)	#, reg_parm_stack_space
	je	.L582	#,
	.loc 1 3315 0 is_stmt 0 discriminator 1
	movl	-136(%rbp), %eax	# used, iftmp.376
	jmp	.L583	#
.L582:
	.loc 1 3315 0 discriminator 2
	movl	$0, %eax	#, iftmp.376
.L583:
	.loc 1 3315 0 discriminator 3
	movl	%eax, -128(%rbp)	# iftmp.376, skip
	.loc 1 3321 0 is_stmt 1 discriminator 3
	cmpq	$0, 32(%rbp)	#, args_addr
	jne	.L584	#,
	.loc 1 3322 0
	movl	target_flags(%rip), %eax	# target_flags, target_flags.377
	andl	$2048, %eax	#, D.25761
	testl	%eax, %eax	# D.25761
	jne	.L584	#,
	.loc 1 3322 0 is_stmt 0 discriminator 1
	movl	target_flags(%rip), %eax	# target_flags, target_flags.378
	andl	$4096, %eax	#, D.25761
	testl	%eax, %eax	# D.25761
	jne	.L584	#,
	.loc 1 3323 0 is_stmt 1
	movq	-192(%rbp), %rax	# size, tmp266
	movzwl	(%rax), %eax	# size_48(D)->code, D.25763
	cmpw	$54, %ax	#, D.25763
	jne	.L584	#,
	.loc 1 3324 0
	cmpl	$0, -128(%rbp)	#, skip
	jne	.L584	#,
	.loc 1 3325 0
	movq	-192(%rbp), %rax	# size, tmp267
	movq	8(%rax), %rax	# size_48(D)->fld[0].rtwint, D.25762
	movl	%eax, %edx	# D.25762, D.25764
	movl	-136(%rbp), %eax	# used, used.379
	subl	%eax, %edx	# used.379, D.25764
	movl	%edx, %eax	# D.25764, D.25764
	movl	%eax, %eax	# D.25764, D.25765
	movl	-176(%rbp), %edx	# align, tmp268
	movl	%edx, %esi	# tmp268,
	movq	%rax, %rdi	# D.25765,
	call	move_by_pieces_ninsns	#
	movq	%rax, %rdx	#, D.25765
	movl	optimize_size(%rip), %eax	# optimize_size, optimize_size.381
	testl	%eax, %eax	# optimize_size.381
	jne	.L585	#,
	.loc 1 3325 0 is_stmt 0 discriminator 1
	movq	ix86_cost(%rip), %rax	# ix86_cost, ix86_cost.382
	movl	40(%rax), %eax	# ix86_cost.382_70->move_ratio, D.25761
	movl	%eax, %eax	# D.25764, iftmp.380
	jmp	.L586	#
.L585:
	.loc 1 3325 0 discriminator 2
	movl	$3, %eax	#, iftmp.380
.L586:
