	.file	"final.c"
# GNU C (Ubuntu/Linaro 4.8.1-10ubuntu9) version 4.8.1 (x86_64-linux-gnu)
#	compiled by GNU C version 4.8.1, GMP version 5.1.2, MPFR version 3.1.1-p2, MPC version 1.0.1
# GGC heuristics: --param ggc-min-expand=100 --param ggc-min-heapsize=131072
# options passed:  -I . -imultiarch x86_64-linux-gnu -D SPEC_CPU -D NDEBUG
# -D SPEC_CPU_LP64 final.c -mtune=generic -march=x86-64 -g -fverbose-asm
# -fno-strict-aliasing -fstack-protector -Wformat -Wformat-security
# options enabled:  -faggressive-loop-optimizations
# -fasynchronous-unwind-tables -fauto-inc-dec -fbranch-count-reg -fcommon
# -fdelete-null-pointer-checks -fdwarf2-cfi-asm -fearly-inlining
# -feliminate-unused-debug-types -ffunction-cse -fgcse-lm -fgnu-runtime
# -fident -finline-atomics -fira-hoist-pressure -fira-share-save-slots
# -fira-share-spill-slots -fivopts -fkeep-static-consts
# -fleading-underscore -fmath-errno -fmerge-debug-strings
# -fmove-loop-invariants -fpeephole -fprefetch-loop-arrays
# -freg-struct-return -fsched-critical-path-heuristic
# -fsched-dep-count-heuristic -fsched-group-heuristic -fsched-interblock
# -fsched-last-insn-heuristic -fsched-rank-heuristic -fsched-spec
# -fsched-spec-insn-heuristic -fsched-stalled-insns-dep -fshow-column
# -fsigned-zeros -fsplit-ivs-in-unroller -fstack-protector
# -fstrict-volatile-bitfields -fsync-libcalls -ftrapping-math
# -ftree-coalesce-vars -ftree-cselim -ftree-forwprop -ftree-loop-if-convert
# -ftree-loop-im -ftree-loop-ivcanon -ftree-loop-optimize
# -ftree-parallelize-loops= -ftree-phiprop -ftree-pta -ftree-reassoc
# -ftree-scev-cprop -ftree-slp-vectorize -ftree-vect-loop-version
# -funit-at-a-time -funwind-tables -fverbose-asm -fzero-initialized-in-bss
# -m128bit-long-double -m64 -m80387 -maccumulate-outgoing-args
# -malign-stringops -mfancy-math-387 -mfp-ret-in-387 -mfxsr -mglibc
# -mieee-fp -mlong-double-80 -mmmx -mno-sse4 -mpush-args -mred-zone -msse
# -msse2 -mtls-direct-seg-refs

	.text
.Ltext0:
	.local	debug_insn
	.comm	debug_insn,8,8
	.comm	current_output_insn,8,8
	.local	last_linenum
	.comm	last_linenum,4,4
	.local	high_block_linenum
	.comm	high_block_linenum,4,4
	.local	high_function_linenum
	.comm	high_function_linenum,4,4
	.local	last_filename
	.comm	last_filename,8,8
	.local	this_is_asm_operands
	.comm	this_is_asm_operands,8,8
	.local	insn_noperands
	.comm	insn_noperands,4,4
	.local	last_ignored_compare
	.comm	last_ignored_compare,8,8
	.data
	.align 4
	.type	new_block, @object
	.size	new_block, 4
new_block:
	.long	1
	.local	insn_counter
	.comm	insn_counter,4,4
	.comm	regs_ever_live,53,32
	.comm	frame_pointer_needed,4,4
	.local	block_depth
	.comm	block_depth,4,4
	.local	app_on
	.comm	app_on,4,4
	.comm	final_sequence,8,8
	.local	dialect_number
	.comm	dialect_number,4,4
	.local	line_note_exists
	.comm	line_note_exists,8,8
	.text
	.globl	init_final
	.type	init_final, @function
init_final:
.LFB2:
	.file 1 "final.c"
	.loc 1 230 0
	.cfi_startproc
	pushq	%rbp	#
	.cfi_def_cfa_offset 16
	.cfi_offset 6, -16
	movq	%rsp, %rbp	#,
	.cfi_def_cfa_register 6
	movq	%rdi, -8(%rbp)	# filename, filename
	.loc 1 231 0
	movl	$0, app_on(%rip)	#, app_on
	.loc 1 232 0
	movq	$0, final_sequence(%rip)	#, final_sequence
	.loc 1 235 0
	movl	ix86_asm_dialect(%rip), %eax	# ix86_asm_dialect, ix86_asm_dialect.0
	movl	%eax, dialect_number(%rip)	# ix86_asm_dialect.1, dialect_number
	.loc 1 237 0
	popq	%rbp	#
	.cfi_def_cfa 7, 8
	ret
	.cfi_endproc
.LFE2:
	.size	init_final, .-init_final
	.section	.rodata
.LC0:
	.string	"final.c"
.LC1:
	.string	"\t.align %d\n"
.LC2:
	.string	"LPBX"
.LC3:
	.string	".%s%u:\n"
.LC4:
	.string	"*.%s%u"
.LC5:
	.string	"\t.local\t"
.LC6:
	.string	"\t.comm\t"
.LC7:
	.string	",%u,%u\n"
	.text
	.globl	end_final
	.type	end_final, @function
end_final:
.LFB3:
	.loc 1 245 0
	.cfi_startproc
	pushq	%rbp	#
	.cfi_def_cfa_offset 16
	.cfi_offset 6, -16
	movq	%rsp, %rbp	#,
	.cfi_def_cfa_register 6
	pushq	%rbx	#
	subq	$104, %rsp	#,
	.cfi_offset 3, -24
	movq	%rdi, -104(%rbp)	# filename, filename
	.loc 1 245 0
	movq	%fs:40, %rax	#, tmp208
	movq	%rax, -24(%rbp)	# tmp208, D.16522
	xorl	%eax, %eax	# tmp208
	.loc 1 246 0
	movl	profile_arc_flag(%rip), %eax	# profile_arc_flag, profile_arc_flag.2
	testl	%eax, %eax	# profile_arc_flag.2
	je	.L2	#,
.LBB2:
	.loc 1 249 0
	movl	$16, %edi	#,
	call	exact_log2_wide	#
	movl	%eax, -96(%rbp)	# tmp135, align
	.loc 1 251 0
	movl	target_flags(%rip), %eax	# target_flags, target_flags.4
	andl	$33554432, %eax	#, D.16516
	testl	%eax, %eax	# D.16516
	je	.L4	#,
	.loc 1 251 0 is_stmt 0 discriminator 1
	movl	$8, %eax	#, iftmp.3
	jmp	.L5	#
.L4:
	.loc 1 251 0 discriminator 2
	movl	$4, %eax	#, iftmp.3
.L5:
	.loc 1 251 0 discriminator 3
	movl	%eax, -92(%rbp)	# iftmp.3, long_bytes
	.loc 1 252 0 is_stmt 1 discriminator 3
	movl	$8, -88(%rbp)	#, gcov_type_bytes
	.loc 1 253 0 discriminator 3
	movl	target_flags(%rip), %eax	# target_flags, target_flags.6
	andl	$33554432, %eax	#, D.16516
	testl	%eax, %eax	# D.16516
	je	.L6	#,
	.loc 1 253 0 is_stmt 0 discriminator 1
	movl	$8, %eax	#, iftmp.5
	jmp	.L7	#
.L6:
	.loc 1 253 0 discriminator 2
	movl	$4, %eax	#, iftmp.5
.L7:
	.loc 1 253 0 discriminator 3
	movl	%eax, -84(%rbp)	# iftmp.5, pointer_bytes
	.loc 1 254 0 is_stmt 1 discriminator 3
	movl	target_flags(%rip), %eax	# target_flags, target_flags.8
	andl	$33554432, %eax	#, D.16516
	testl	%eax, %eax	# D.16516
	je	.L8	#,
	.loc 1 254 0 is_stmt 0 discriminator 1
	movl	$64, %eax	#, iftmp.7
	jmp	.L9	#
.L8:
	.loc 1 254 0 discriminator 2
	movl	$32, %eax	#, iftmp.7
.L9:
	.loc 1 254 0 discriminator 3
	movl	%eax, -80(%rbp)	# iftmp.7, align2
	.loc 1 256 0 is_stmt 1 discriminator 3
	movl	count_instrumented_edges(%rip), %eax	# count_instrumented_edges, count_instrumented_edges.9
	movl	-88(%rbp), %edx	# gcov_type_bytes, tmp137
	imull	%edx, %eax	# tmp137, tmp136
	movl	%eax, -76(%rbp)	# tmp136, size
	.loc 1 257 0 discriminator 3
	movl	-76(%rbp), %eax	# size, tmp138
	movl	%eax, -72(%rbp)	# tmp138, rounded
	.loc 1 259 0 discriminator 3
	addl	$15, -72(%rbp)	#, rounded
	.loc 1 260 0 discriminator 3
	movl	-72(%rbp), %eax	# rounded, tmp139
	leal	15(%rax), %edx	#, tmp141
	testl	%eax, %eax	# tmp140
	cmovs	%edx, %eax	# tmp141,, tmp140
	sarl	$4, %eax	#, tmp142
	sall	$4, %eax	#, tmp143
	movl	%eax, -72(%rbp)	# tmp143, rounded
	.loc 1 266 0 discriminator 3
	movl	-92(%rbp), %eax	# long_bytes, tmp144
	cmpl	-84(%rbp), %eax	# pointer_bytes, tmp144
	je	.L10	#,
	.loc 1 267 0
	movl	$__FUNCTION__.13862, %edx	#,
	movl	$267, %esi	#,
	movl	$.LC0, %edi	#,
	call	fancy_abort	#
.L10:
	.loc 1 269 0
	call	data_section	#
	.loc 1 287 0
	cmpl	$0, -96(%rbp)	#, align
	je	.L11	#,
	.loc 1 287 0 is_stmt 0 discriminator 1
	movl	-96(%rbp), %eax	# align, tmp145
	movl	$1, %edx	#, tmp146
	movl	%eax, %ecx	# tmp145, tmp210
	sall	%cl, %edx	# tmp210, D.16516
	movq	asm_out_file(%rip), %rax	# asm_out_file, asm_out_file.10
	movl	$.LC1, %esi	#,
	movq	%rax, %rdi	# asm_out_file.10,
	movl	$0, %eax	#,
	call	fprintf	#
.L11:
	.loc 1 289 0 is_stmt 1
	movq	asm_out_file(%rip), %rax	# asm_out_file, asm_out_file.11
	movl	$0, %ecx	#,
	movl	$.LC2, %edx	#,
	movl	$.LC3, %esi	#,
	movq	%rax, %rdi	# asm_out_file.11,
	movl	$0, %eax	#,
	call	fprintf	#
	.loc 1 292 0
	movl	-92(%rbp), %esi	# long_bytes, long_bytes.12
	movq	const_int_rtx+512(%rip), %rax	# const_int_rtx, D.16517
	movl	-80(%rbp), %edx	# align2, tmp147
	movl	$1, %ecx	#,
	movq	%rax, %rdi	# D.16517,
	call	assemble_integer	#
	.loc 1 295 0
	leaq	-48(%rbp), %rax	#, tmp148
	movl	$1, %ecx	#,
	movl	$.LC2, %edx	#,
	movl	$.LC4, %esi	#,
	movq	%rax, %rdi	# tmp148,
	movl	$0, %eax	#,
	call	sprintf	#
	.loc 1 296 0
	movl	-84(%rbp), %ebx	# pointer_bytes, pointer_bytes.13
	movl	target_flags(%rip), %eax	# target_flags, target_flags.15
	andl	$33554432, %eax	#, D.16516
	testl	%eax, %eax	# D.16516
	je	.L12	#,
	.loc 1 296 0 is_stmt 0 discriminator 1
	movl	$5, %eax	#, iftmp.14
	jmp	.L13	#
.L12:
	.loc 1 296 0 discriminator 2
	movl	$4, %eax	#, iftmp.14
.L13:
	.loc 1 296 0 discriminator 3
	leaq	-48(%rbp), %rdx	#, tmp149
	movl	%eax, %esi	# iftmp.14,
	movl	$68, %edi	#,
	call	gen_rtx_fmt_s	#
	movl	-80(%rbp), %edx	# align2, tmp150
	movl	$1, %ecx	#,
	movl	%ebx, %esi	# pointer_bytes.13,
	movq	%rax, %rdi	# D.16517,
	call	assemble_integer	#
	.loc 1 300 0 is_stmt 1 discriminator 3
	leaq	-48(%rbp), %rax	#, tmp151
	movl	$2, %ecx	#,
	movl	$.LC2, %edx	#,
	movl	$.LC4, %esi	#,
	movq	%rax, %rdi	# tmp151,
	movl	$0, %eax	#,
	call	sprintf	#
	.loc 1 301 0 discriminator 3
	movl	-84(%rbp), %ebx	# pointer_bytes, pointer_bytes.16
	movl	target_flags(%rip), %eax	# target_flags, target_flags.18
	andl	$33554432, %eax	#, D.16516
	testl	%eax, %eax	# D.16516
	je	.L14	#,
	.loc 1 301 0 is_stmt 0 discriminator 1
	movl	$5, %eax	#, iftmp.17
	jmp	.L15	#
.L14:
	.loc 1 301 0 discriminator 2
	movl	$4, %eax	#, iftmp.17
.L15:
	.loc 1 301 0 discriminator 3
	leaq	-48(%rbp), %rdx	#, tmp152
	movl	%eax, %esi	# iftmp.17,
	movl	$68, %edi	#,
	call	gen_rtx_fmt_s	#
	movl	-80(%rbp), %edx	# align2, tmp153
	movl	$1, %ecx	#,
	movl	%ebx, %esi	# pointer_bytes.16,
	movq	%rax, %rdi	# D.16517,
	call	assemble_integer	#
	.loc 1 305 0 is_stmt 1 discriminator 3
	movl	-92(%rbp), %ebx	# long_bytes, long_bytes.19
	movl	count_instrumented_edges(%rip), %eax	# count_instrumented_edges, count_instrumented_edges.20
	cltq
	movq	%rax, %rsi	# D.16518,
	movl	$0, %edi	#,
	call	gen_rtx_CONST_INT	#
	movl	-80(%rbp), %edx	# align2, tmp154
	movl	$1, %ecx	#,
	movl	%ebx, %esi	# long_bytes.19,
	movq	%rax, %rdi	# D.16517,
	call	assemble_integer	#
	.loc 1 309 0 discriminator 3
	movl	-84(%rbp), %esi	# pointer_bytes, pointer_bytes.21
	movq	const_int_rtx+512(%rip), %rax	# const_int_rtx, D.16517
	movl	-80(%rbp), %edx	# align2, tmp155
	movl	$1, %ecx	#,
	movq	%rax, %rdi	# D.16517,
	call	assemble_integer	#
	.loc 1 311 0 discriminator 3
	movl	-84(%rbp), %esi	# pointer_bytes, pointer_bytes.22
	movq	const_int_rtx+512(%rip), %rax	# const_int_rtx, D.16517
	movl	-80(%rbp), %edx	# align2, tmp156
	movl	$1, %ecx	#,
	movq	%rax, %rdi	# D.16517,
	call	assemble_integer	#
	.loc 1 314 0 discriminator 3
	movl	-92(%rbp), %ebx	# long_bytes, long_bytes.23
	movl	target_flags(%rip), %eax	# target_flags, target_flags.25
	andl	$33554432, %eax	#, D.16516
	testl	%eax, %eax	# D.16516
	je	.L16	#,
	.loc 1 314 0 is_stmt 0 discriminator 1
	movl	$88, %eax	#, iftmp.24
	jmp	.L17	#
.L16:
	.loc 1 314 0 discriminator 2
	movl	$44, %eax	#, iftmp.24
.L17:
	.loc 1 314 0 discriminator 3
	movq	%rax, %rsi	# iftmp.24,
	movl	$0, %edi	#,
	call	gen_rtx_CONST_INT	#
	movl	-80(%rbp), %edx	# align2, tmp157
	movl	$1, %ecx	#,
	movl	%ebx, %esi	# long_bytes.23,
	movq	%rax, %rdi	# D.16517,
	call	assemble_integer	#
	.loc 1 317 0 is_stmt 1 discriminator 3
	movl	-84(%rbp), %esi	# pointer_bytes, pointer_bytes.26
	movq	const_int_rtx+512(%rip), %rax	# const_int_rtx, D.16517
	movl	-80(%rbp), %edx	# align2, tmp158
	movl	$1, %ecx	#,
	movq	%rax, %rdi	# D.16517,
	call	assemble_integer	#
	.loc 1 320 0 discriminator 3
	movl	-84(%rbp), %esi	# pointer_bytes, pointer_bytes.27
	movq	const_int_rtx+512(%rip), %rax	# const_int_rtx, D.16517
	movl	-80(%rbp), %edx	# align2, tmp159
	movl	$1, %ecx	#,
	movq	%rax, %rdi	# D.16517,
	call	assemble_integer	#
	.loc 1 321 0 discriminator 3
	movl	-84(%rbp), %esi	# pointer_bytes, pointer_bytes.28
	movq	const_int_rtx+512(%rip), %rax	# const_int_rtx, D.16517
	movl	-80(%rbp), %edx	# align2, tmp160
	movl	$1, %ecx	#,
	movq	%rax, %rdi	# D.16517,
	call	assemble_integer	#
	.loc 1 324 0 discriminator 3
	movl	target_flags(%rip), %eax	# target_flags, target_flags.30
	andl	$33554432, %eax	#, D.16516
	testl	%eax, %eax	# D.16516
	je	.L18	#,
	.loc 1 324 0 is_stmt 0 discriminator 1
	movl	$8, %eax	#, iftmp.29
	jmp	.L19	#
.L18:
	.loc 1 324 0 discriminator 2
	movl	$4, %eax	#, iftmp.29
.L19:
	.loc 1 324 0 discriminator 3
	movq	const_int_rtx+512(%rip), %rdi	# const_int_rtx, D.16517
	movl	-80(%rbp), %edx	# align2, tmp161
	movl	$1, %ecx	#,
	movl	%eax, %esi	# iftmp.29,
	call	assemble_integer	#
	.loc 1 328 0 is_stmt 1 discriminator 3
	movq	asm_out_file(%rip), %rax	# asm_out_file, asm_out_file.31
	movl	$1, %ecx	#,
	movl	$.LC2, %edx	#,
	movl	$.LC3, %esi	#,
	movq	%rax, %rdi	# asm_out_file.31,
	movl	$0, %eax	#,
	call	fprintf	#
.LBB3:
	.loc 1 330 0 discriminator 3
	call	getpwd	#
	movq	%rax, -64(%rbp)	# tmp162, cwd
	.loc 1 331 0 discriminator 3
	movq	-104(%rbp), %rax	# filename, tmp163
	movq	%rax, %rdi	# tmp163,
	call	strlen	#
	movl	%eax, %ebx	# D.16519, D.16520
	movq	-64(%rbp), %rax	# cwd, tmp164
	movq	%rax, %rdi	# tmp164,
	call	strlen	#
	addl	%ebx, %eax	# D.16520, D.16520
	addl	$1, %eax	#, D.16520
	movl	%eax, -68(%rbp)	# D.16520, len
	.loc 1 332 0 discriminator 3
	movl	-68(%rbp), %eax	# len, tmp165
	addl	$4, %eax	#, D.16516
	cltq
	leaq	15(%rax), %rdx	#, tmp166
	movl	$16, %eax	#, tmp206
	subq	$1, %rax	#, tmp167
	addq	%rdx, %rax	# tmp166, tmp168
	movl	$16, %ebx	#, tmp207
	movl	$0, %edx	#, tmp171
	divq	%rbx	# tmp207
	imulq	$16, %rax, %rax	#, tmp170, tmp172
	subq	%rax, %rsp	# tmp172,
	movq	%rsp, %rax	#, tmp173
	addq	$15, %rax	#, tmp174
	shrq	$4, %rax	#, tmp175
	salq	$4, %rax	#, tmp176
	movq	%rax, -56(%rbp)	# tmp176, data_file
	.loc 1 334 0 discriminator 3
	movq	-64(%rbp), %rdx	# cwd, tmp177
	movq	-56(%rbp), %rax	# data_file, tmp178
	movq	%rdx, %rsi	# tmp177,
	movq	%rax, %rdi	# tmp178,
	call	strcpy	#
	.loc 1 335 0 discriminator 3
	movq	-56(%rbp), %rax	# data_file, tmp179
	movq	$-1, %rcx	#, tmp183
	movq	%rax, %rdx	# tmp179, tmp182
	movl	$0, %eax	#, tmp184
	movq	%rdx, %rdi	# tmp182, tmp182
	repnz scasb
	movq	%rcx, %rax	# tmp180, tmp180
	notq	%rax	# tmp181
	leaq	-1(%rax), %rdx	#, D.16519
	movq	-56(%rbp), %rax	# data_file, tmp185
	addq	%rdx, %rax	# D.16519, D.16521
	movw	$47, (%rax)	#, MEM[(void *)_88]
	.loc 1 336 0 discriminator 3
	movq	-104(%rbp), %rdx	# filename, tmp186
	movq	-56(%rbp), %rax	# data_file, tmp187
	movq	%rdx, %rsi	# tmp186,
	movq	%rax, %rdi	# tmp187,
	call	strcat	#
	.loc 1 337 0 discriminator 3
	movl	-68(%rbp), %edx	# len, tmp188
	movq	-56(%rbp), %rax	# data_file, tmp189
	movl	%edx, %esi	# tmp188,
	movq	%rax, %rdi	# tmp189,
	call	strip_off_ending	#
	.loc 1 338 0 discriminator 3
	movq	-56(%rbp), %rax	# data_file, tmp190
	movq	$-1, %rcx	#, tmp194
	movq	%rax, %rdx	# tmp190, tmp193
	movl	$0, %eax	#, tmp195
	movq	%rdx, %rdi	# tmp193, tmp193
	repnz scasb
	movq	%rcx, %rax	# tmp191, tmp191
	notq	%rax	# tmp192
	leaq	-1(%rax), %rdx	#, D.16519
	movq	-56(%rbp), %rax	# data_file, tmp196
	addq	%rdx, %rax	# D.16519, D.16521
	movl	$6382638, (%rax)	#, MEM[(void *)_90]
	.loc 1 339 0 discriminator 3
	movq	-56(%rbp), %rax	# data_file, tmp197
	movq	%rax, %rdi	# tmp197,
	call	strlen	#
	addl	$1, %eax	#, D.16520
	movl	%eax, %edx	# D.16520, D.16516
	movq	-56(%rbp), %rax	# data_file, tmp198
	movl	%edx, %esi	# D.16516,
	movq	%rax, %rdi	# tmp198,
	call	assemble_string	#
.LBE3:
	.loc 1 343 0 discriminator 3
	cmpl	$0, -76(%rbp)	#, size
	jne	.L20	#,
	.loc 1 346 0
	cmpl	$0, -96(%rbp)	#, align
	je	.L21	#,
	.loc 1 346 0 is_stmt 0 discriminator 1
	movl	-96(%rbp), %eax	# align, tmp199
	movl	$1, %edx	#, tmp200
	movl	%eax, %ecx	# tmp199, tmp216
	sall	%cl, %edx	# tmp216, D.16516
	movq	asm_out_file(%rip), %rax	# asm_out_file, asm_out_file.32
	movl	$.LC1, %esi	#,
	movq	%rax, %rdi	# asm_out_file.32,
	movl	$0, %eax	#,
	call	fprintf	#
.L21:
	.loc 1 347 0 is_stmt 1
	movq	asm_out_file(%rip), %rax	# asm_out_file, asm_out_file.33
	movl	$2, %ecx	#,
	movl	$.LC2, %edx	#,
	movl	$.LC3, %esi	#,
	movq	%rax, %rdi	# asm_out_file.33,
	movl	$0, %eax	#,
	call	fprintf	#
	.loc 1 348 0
	cmpl	$0, -76(%rbp)	#, size
	je	.L2	#,
	.loc 1 349 0
	movl	-76(%rbp), %eax	# size, tmp201
	movl	%eax, %edi	# tmp201,
	call	assemble_zeros	#
	jmp	.L2	#
.L20:
	.loc 1 353 0
	leaq	-48(%rbp), %rax	#, tmp202
	movl	$2, %ecx	#,
	movl	$.LC2, %edx	#,
	movl	$.LC4, %esi	#,
	movq	%rax, %rdi	# tmp202,
	movl	$0, %eax	#,
	call	sprintf	#
	.loc 1 364 0
	movq	asm_out_file(%rip), %rax	# asm_out_file, asm_out_file.34
	movq	%rax, %rcx	# asm_out_file.34,
	movl	$8, %edx	#,
	movl	$1, %esi	#,
	movl	$.LC5, %edi	#,
	call	fwrite	#
	movq	asm_out_file(%rip), %rax	# asm_out_file, asm_out_file.35
	leaq	-48(%rbp), %rdx	#, tmp203
	movq	%rdx, %rsi	# tmp203,
	movq	%rax, %rdi	# asm_out_file.35,
	call	assemble_name	#
	movq	asm_out_file(%rip), %rax	# asm_out_file, asm_out_file.36
	movq	%rax, %rsi	# asm_out_file.36,
	movl	$10, %edi	#,
	call	fputc	#
	movq	asm_out_file(%rip), %rax	# asm_out_file, asm_out_file.37
	movq	%rax, %rcx	# asm_out_file.37,
	movl	$7, %edx	#,
	movl	$1, %esi	#,
	movl	$.LC6, %edi	#,
	call	fwrite	#
	movq	asm_out_file(%rip), %rax	# asm_out_file, asm_out_file.38
	leaq	-48(%rbp), %rdx	#, tmp204
	movq	%rdx, %rsi	# tmp204,
	movq	%rax, %rdi	# asm_out_file.38,
	call	assemble_name	#
	movq	asm_out_file(%rip), %rax	# asm_out_file, asm_out_file.39
	movl	-76(%rbp), %edx	# size, tmp205
	movl	$16, %ecx	#,
	movl	$.LC7, %esi	#,
	movq	%rax, %rdi	# asm_out_file.39,
	movl	$0, %eax	#,
	call	fprintf	#
.L2:
.LBE2:
	.loc 1 372 0
	movq	-24(%rbp), %rax	# D.16522, tmp209
	xorq	%fs:40, %rax	#, tmp209
	je	.L24	#,
	call	__stack_chk_fail	#
.L24:
	movq	-8(%rbp), %rbx	#,
	leave
	.cfi_def_cfa 7, 8
	ret
	.cfi_endproc
.LFE3:
	.size	end_final, .-end_final
	.globl	default_function_pro_epilogue
	.type	default_function_pro_epilogue, @function
default_function_pro_epilogue:
.LFB4:
	.loc 1 382 0
	.cfi_startproc
	pushq	%rbp	#
	.cfi_def_cfa_offset 16
	.cfi_offset 6, -16
	movq	%rsp, %rbp	#,
	.cfi_def_cfa_register 6
	movq	%rdi, -8(%rbp)	# file, file
	movq	%rsi, -16(%rbp)	# size, size
	.loc 1 383 0
	popq	%rbp	#
	.cfi_def_cfa 7, 8
	ret
	.cfi_endproc
.LFE4:
	.size	default_function_pro_epilogue, .-default_function_pro_epilogue
	.globl	no_asm_to_stream
	.type	no_asm_to_stream, @function
no_asm_to_stream:
.LFB5:
	.loc 1 389 0
	.cfi_startproc
	pushq	%rbp	#
	.cfi_def_cfa_offset 16
	.cfi_offset 6, -16
	movq	%rsp, %rbp	#,
	.cfi_def_cfa_register 6
	movq	%rdi, -8(%rbp)	# file, file
	.loc 1 390 0
	popq	%rbp	#
	.cfi_def_cfa 7, 8
	ret
	.cfi_endproc
.LFE5:
	.size	no_asm_to_stream, .-no_asm_to_stream
	.section	.rodata
.LC8:
	.string	"/APP\n"
	.text
	.globl	app_enable
	.type	app_enable, @function
app_enable:
.LFB6:
	.loc 1 397 0
	.cfi_startproc
	pushq	%rbp	#
	.cfi_def_cfa_offset 16
	.cfi_offset 6, -16
	movq	%rsp, %rbp	#,
	.cfi_def_cfa_register 6
	.loc 1 398 0
	movl	app_on(%rip), %eax	# app_on, app_on.40
	testl	%eax, %eax	# app_on.40
	jne	.L27	#,
	.loc 1 400 0
	movq	asm_out_file(%rip), %rax	# asm_out_file, asm_out_file.41
	movq	%rax, %rcx	# asm_out_file.41,
	movl	$5, %edx	#,
	movl	$1, %esi	#,
	movl	$.LC8, %edi	#,
	call	fwrite	#
	.loc 1 401 0
	movl	$1, app_on(%rip)	#, app_on
.L27:
	.loc 1 403 0
	popq	%rbp	#
	.cfi_def_cfa 7, 8
	ret
	.cfi_endproc
.LFE6:
	.size	app_enable, .-app_enable
	.section	.rodata
.LC9:
	.string	"/NO_APP\n"
	.text
	.globl	app_disable
	.type	app_disable, @function
app_disable:
.LFB7:
	.loc 1 410 0
	.cfi_startproc
	pushq	%rbp	#
	.cfi_def_cfa_offset 16
	.cfi_offset 6, -16
	movq	%rsp, %rbp	#,
	.cfi_def_cfa_register 6
	.loc 1 411 0
	movl	app_on(%rip), %eax	# app_on, app_on.42
	testl	%eax, %eax	# app_on.42
	je	.L29	#,
	.loc 1 413 0
	movq	asm_out_file(%rip), %rax	# asm_out_file, asm_out_file.43
	movq	%rax, %rcx	# asm_out_file.43,
	movl	$8, %edx	#,
	movl	$1, %esi	#,
	movl	$.LC9, %edi	#,
	call	fwrite	#
	.loc 1 414 0
	movl	$0, app_on(%rip)	#, app_on
.L29:
	.loc 1 416 0
	popq	%rbp	#
	.cfi_def_cfa 7, 8
	ret
	.cfi_endproc
.LFE7:
	.size	app_disable, .-app_disable
	.local	insn_lengths
	.comm	insn_lengths,8,8
	.comm	insn_addresses_,8,8
	.local	insn_lengths_max_uid
	.comm	insn_lengths_max_uid,4,4
	.comm	insn_current_address,4,4
	.comm	insn_last_address,4,4
	.comm	insn_current_align,4,4
	.local	uid_align
	.comm	uid_align,8,8
	.local	uid_shuid
	.comm	uid_shuid,8,8
	.local	label_align
	.comm	label_align,8,8
	.globl	init_insn_lengths
	.type	init_insn_lengths, @function
init_insn_lengths:
.LFB8:
	.loc 1 480 0
	.cfi_startproc
	pushq	%rbp	#
	.cfi_def_cfa_offset 16
	.cfi_offset 6, -16
	movq	%rsp, %rbp	#,
	.cfi_def_cfa_register 6
	.loc 1 481 0
	movq	uid_shuid(%rip), %rax	# uid_shuid, uid_shuid.44
	testq	%rax, %rax	# uid_shuid.44
	je	.L32	#,
	.loc 1 483 0
	movq	uid_shuid(%rip), %rax	# uid_shuid, uid_shuid.45
	movq	%rax, %rdi	# uid_shuid.45,
	call	free	#
	.loc 1 484 0
	movq	$0, uid_shuid(%rip)	#, uid_shuid
.L32:
	.loc 1 486 0
	movq	insn_lengths(%rip), %rax	# insn_lengths, insn_lengths.46
	testq	%rax, %rax	# insn_lengths.46
	je	.L33	#,
	.loc 1 488 0
	movq	insn_lengths(%rip), %rax	# insn_lengths, insn_lengths.47
	movq	%rax, %rdi	# insn_lengths.47,
	call	free	#
	.loc 1 489 0
	movq	$0, insn_lengths(%rip)	#, insn_lengths
	.loc 1 490 0
	movl	$0, insn_lengths_max_uid(%rip)	#, insn_lengths_max_uid
.L33:
	.loc 1 493 0
	movq	insn_addresses_(%rip), %rax	# insn_addresses_, insn_addresses_.48
	testq	%rax, %rax	# insn_addresses_.48
	je	.L34	#,
	.loc 1 493 0 is_stmt 0 discriminator 1
	movq	insn_addresses_(%rip), %rax	# insn_addresses_, insn_addresses_.49
	movq	%rax, %rdi	# insn_addresses_.49,
	call	free	#
	movq	$0, insn_addresses_(%rip)	#, insn_addresses_
.L34:
	.loc 1 495 0 is_stmt 1
	movq	uid_align(%rip), %rax	# uid_align, uid_align.50
	testq	%rax, %rax	# uid_align.50
	je	.L31	#,
	.loc 1 497 0
	movq	uid_align(%rip), %rax	# uid_align, uid_align.51
	movq	%rax, %rdi	# uid_align.51,
	call	free	#
	.loc 1 498 0
	movq	$0, uid_align(%rip)	#, uid_align
.L31:
	.loc 1 500 0
	popq	%rbp	#
	.cfi_def_cfa 7, 8
	ret
	.cfi_endproc
.LFE8:
	.size	init_insn_lengths, .-init_insn_lengths
	.globl	get_attr_length
	.type	get_attr_length, @function
get_attr_length:
.LFB9:
	.loc 1 508 0
	.cfi_startproc
	pushq	%rbp	#
	.cfi_def_cfa_offset 16
	.cfi_offset 6, -16
	movq	%rsp, %rbp	#,
	.cfi_def_cfa_register 6
	pushq	%rbx	#
	subq	$40, %rsp	#,
	.cfi_offset 3, -24
	movq	%rdi, -40(%rbp)	# insn, insn
	.loc 1 512 0
	movl	$0, -28(%rbp)	#, length
	.loc 1 514 0
	movq	-40(%rbp), %rax	# insn, tmp84
	movl	8(%rax), %edx	# insn_8(D)->fld[0].rtint, D.16536
	movl	insn_lengths_max_uid(%rip), %eax	# insn_lengths_max_uid, insn_lengths_max_uid.52
	cmpl	%eax, %edx	# insn_lengths_max_uid.52, D.16536
	jge	.L37	#,
	.loc 1 515 0
	movq	insn_lengths(%rip), %rdx	# insn_lengths, insn_lengths.53
	movq	-40(%rbp), %rax	# insn, tmp85
	movl	8(%rax), %eax	# insn_8(D)->fld[0].rtint, D.16536
	cltq
	salq	$2, %rax	#, D.16537
	addq	%rdx, %rax	# insn_lengths.53, D.16538
	movl	(%rax), %eax	# *_15, D.16536
	jmp	.L38	#
.L37:
	.loc 1 517 0
	movq	-40(%rbp), %rax	# insn, tmp86
	movzwl	(%rax), %eax	# insn_8(D)->code, D.16539
	movzwl	%ax, %eax	# D.16539, D.16540
	subl	$32, %eax	#, tmp87
	cmpl	$5, %eax	#, tmp87
	ja	.L55	#,
	movl	%eax, %eax	# tmp87, tmp88
	movq	.L41(,%rax,8), %rax	#, tmp89
	jmp	*%rax	# tmp89
	.section	.rodata
	.align 8
	.align 4
.L41:
	.quad	.L40
	.quad	.L42
	.quad	.L43
	.quad	.L44
	.quad	.L44
	.quad	.L44
	.text
.L44:
	.loc 1 522 0
	movl	$0, %eax	#, D.16536
	jmp	.L38	#
.L43:
	.loc 1 525 0
	movq	-40(%rbp), %rax	# insn, tmp90
	movq	%rax, %rdi	# tmp90,
	call	insn_default_length	#
	movl	%eax, -28(%rbp)	# tmp91, length
	.loc 1 526 0
	jmp	.L45	#
.L42:
	.loc 1 529 0
	movq	-40(%rbp), %rax	# insn, tmp92
	movq	32(%rax), %rax	# insn_8(D)->fld[3].rtx, tmp93
	movq	%rax, -24(%rbp)	# tmp93, body
	.loc 1 530 0
	movq	-24(%rbp), %rax	# body, tmp94
	movzwl	(%rax), %eax	# body_21->code, D.16539
	cmpw	$44, %ax	#, D.16539
	je	.L46	#,
	.loc 1 530 0 is_stmt 0 discriminator 1
	movq	-24(%rbp), %rax	# body, tmp95
	movzwl	(%rax), %eax	# body_21->code, D.16539
	cmpw	$45, %ax	#, D.16539
	je	.L46	#,
	.loc 1 536 0 is_stmt 1
	movq	-40(%rbp), %rax	# insn, tmp96
	movq	%rax, %rdi	# tmp96,
	call	insn_default_length	#
	movl	%eax, -28(%rbp)	# tmp97, length
	.loc 1 537 0
	jmp	.L45	#
.L46:
	jmp	.L45	#
.L40:
	.loc 1 540 0
	movq	-40(%rbp), %rax	# insn, tmp98
	movq	32(%rax), %rax	# insn_8(D)->fld[3].rtx, tmp99
	movq	%rax, -24(%rbp)	# tmp99, body
	.loc 1 541 0
	movq	-24(%rbp), %rax	# body, tmp100
	movzwl	(%rax), %eax	# body_25->code, D.16539
	cmpw	$48, %ax	#, D.16539
	je	.L47	#,
	.loc 1 541 0 is_stmt 0 discriminator 1
	movq	-24(%rbp), %rax	# body, tmp101
	movzwl	(%rax), %eax	# body_25->code, D.16539
	cmpw	$49, %ax	#, D.16539
	jne	.L48	#,
.L47:
	.loc 1 542 0 is_stmt 1
	movl	$0, %eax	#, D.16536
	jmp	.L38	#
.L48:
	.loc 1 544 0
	movq	-24(%rbp), %rax	# body, tmp102
	movzwl	(%rax), %eax	# body_25->code, D.16539
	cmpw	$40, %ax	#, D.16539
	je	.L49	#,
	.loc 1 544 0 is_stmt 0 discriminator 1
	movq	-24(%rbp), %rax	# body, tmp103
	movq	%rax, %rdi	# tmp103,
	call	asm_noperands	#
	testl	%eax, %eax	# D.16536
	js	.L50	#,
.L49:
	.loc 1 545 0 is_stmt 1
	movq	-24(%rbp), %rax	# body, tmp104
	movq	%rax, %rdi	# tmp104,
	call	asm_insn_count	#
	movl	%eax, %ebx	#, D.16536
	movq	-40(%rbp), %rax	# insn, tmp105
	movq	%rax, %rdi	# tmp105,
	call	insn_default_length	#
	imull	%ebx, %eax	# D.16536, tmp106
	movl	%eax, -28(%rbp)	# tmp106, length
	.loc 1 551 0
	jmp	.L45	#
.L50:
	.loc 1 546 0
	movq	-24(%rbp), %rax	# body, tmp107
	movzwl	(%rax), %eax	# body_25->code, D.16539
	cmpw	$24, %ax	#, D.16539
	jne	.L52	#,
	.loc 1 547 0
	movl	$0, -32(%rbp)	#, i
	jmp	.L53	#
.L54:
	.loc 1 548 0 discriminator 2
	movq	-24(%rbp), %rax	# body, tmp108
	movq	8(%rax), %rax	# body_25->fld[0].rtvec, D.16541
	movl	-32(%rbp), %edx	# i, tmp110
	movslq	%edx, %rdx	# tmp110, tmp109
	movq	8(%rax,%rdx,8), %rax	# _34->elem, D.16542
	movq	%rax, %rdi	# D.16542,
	call	get_attr_length	#
	addl	%eax, -28(%rbp)	# D.16536, length
	.loc 1 547 0 discriminator 2
	addl	$1, -32(%rbp)	#, i
.L53:
	.loc 1 547 0 is_stmt 0 discriminator 1
	movq	-24(%rbp), %rax	# body, tmp111
	movq	8(%rax), %rax	# body_25->fld[0].rtvec, D.16541
	movl	(%rax), %eax	# _32->num_elem, D.16536
	cmpl	-32(%rbp), %eax	# i, D.16536
	jg	.L54	#,
	.loc 1 551 0 is_stmt 1
	jmp	.L45	#
.L52:
	.loc 1 550 0
	movq	-40(%rbp), %rax	# insn, tmp112
	movq	%rax, %rdi	# tmp112,
	call	insn_default_length	#
	movl	%eax, -28(%rbp)	# tmp113, length
	.loc 1 551 0
	jmp	.L45	#
.L55:
	.loc 1 554 0
	nop
.L45:
	.loc 1 560 0
	movl	-28(%rbp), %eax	# length, D.16536
.L38:
	.loc 1 564 0
	addq	$40, %rsp	#,
	popq	%rbx	#
	popq	%rbp	#
	.cfi_def_cfa 7, 8
	ret
	.cfi_endproc
.LFE9:
	.size	get_attr_length, .-get_attr_length
	.type	final_addr_vec_align, @function
final_addr_vec_align:
.LFB10:
	.loc 1 643 0
	.cfi_startproc
	pushq	%rbp	#
	.cfi_def_cfa_offset 16
	.cfi_offset 6, -16
	movq	%rsp, %rbp	#,
	.cfi_def_cfa_register 6
	subq	$32, %rsp	#,
	movq	%rdi, -24(%rbp)	# addr_vec, addr_vec
	.loc 1 644 0
	movq	-24(%rbp), %rax	# addr_vec, tmp66
	movq	32(%rax), %rax	# addr_vec_2(D)->fld[3].rtx, D.16543
	movzbl	2(%rax), %eax	# _3->mode, D.16544
	movzbl	%al, %eax	# D.16544, D.16545
	cltq
	movzbl	mode_size(%rax), %eax	# mode_size, D.16544
	movzbl	%al, %eax	# D.16544, tmp68
	movl	%eax, -4(%rbp)	# tmp68, align
	.loc 1 646 0
	cmpl	$16, -4(%rbp)	#, align
	jle	.L57	#,
	.loc 1 647 0
	movl	$16, -4(%rbp)	#, align
.L57:
	.loc 1 648 0
	movl	-4(%rbp), %eax	# align, tmp69
	cltq
	movq	%rax, %rdi	# D.16546,
	call	exact_log2_wide	#
	.loc 1 650 0
	leave
	.cfi_def_cfa 7, 8
	ret
	.cfi_endproc
.LFE10:
	.size	final_addr_vec_align, .-final_addr_vec_align
	.local	min_labelno
	.comm	min_labelno,4,4
	.local	max_labelno
	.comm	max_labelno,4,4
	.globl	label_to_alignment
	.type	label_to_alignment, @function
label_to_alignment:
.LFB11:
	.loc 1 674 0
	.cfi_startproc
	pushq	%rbp	#
	.cfi_def_cfa_offset 16
	.cfi_offset 6, -16
	movq	%rsp, %rbp	#,
	.cfi_def_cfa_register 6
	movq	%rdi, -8(%rbp)	# label, label
	.loc 1 675 0
	movq	label_align(%rip), %rdx	# label_align, label_align.54
	movq	-8(%rbp), %rax	# label, tmp69
	movl	48(%rax), %ecx	# label_2(D)->fld[5].rtint, D.16547
	movl	min_labelno(%rip), %eax	# min_labelno, min_labelno.55
	subl	%eax, %ecx	# min_labelno.55, D.16547
	movl	%ecx, %eax	# D.16547, D.16547
	cltq
	salq	$2, %rax	#, D.16548
	addq	%rdx, %rax	# label_align.54, D.16549
	movzwl	(%rax), %eax	# _8->alignment, D.16550
	cwtl
	.loc 1 676 0
	popq	%rbp	#
	.cfi_def_cfa 7, 8
	ret
	.cfi_endproc
.LFE11:
	.size	label_to_alignment, .-label_to_alignment
	.type	align_fuzz, @function
align_fuzz:
.LFB12:
	.loc 1 712 0
	.cfi_startproc
	pushq	%rbp	#
	.cfi_def_cfa_offset 16
	.cfi_offset 6, -16
	movq	%rsp, %rbp	#,
	.cfi_def_cfa_register 6
	movq	%rdi, -40(%rbp)	# start, start
	movq	%rsi, -48(%rbp)	# end, end
	movl	%edx, -52(%rbp)	# known_align_log, known_align_log
	movl	%ecx, -56(%rbp)	# growth, growth
	.loc 1 713 0
	movq	-40(%rbp), %rax	# start, tmp102
	movl	8(%rax), %eax	# start_6(D)->fld[0].rtint, tmp103
	movl	%eax, -24(%rbp)	# tmp103, uid
	.loc 1 715 0
	movl	-52(%rbp), %eax	# known_align_log, tmp104
	movl	$1, %edx	#, tmp105
	movl	%eax, %ecx	# tmp104, tmp133
	sall	%cl, %edx	# tmp133, tmp106
	movl	%edx, %eax	# tmp106, tmp106
	movl	%eax, -32(%rbp)	# tmp106, known_align
	.loc 1 716 0
	movq	uid_shuid(%rip), %rdx	# uid_shuid, uid_shuid.56
	movq	-48(%rbp), %rax	# end, tmp107
	movl	8(%rax), %eax	# end_11(D)->fld[0].rtint, D.16551
	cltq
	salq	$2, %rax	#, D.16552
	addq	%rdx, %rax	# uid_shuid.56, D.16553
	movl	(%rax), %eax	# *_15, tmp108
	movl	%eax, -20(%rbp)	# tmp108, end_shuid
	.loc 1 717 0
	movl	$0, -28(%rbp)	#, fuzz
	.loc 1 719 0
	movq	uid_align(%rip), %rax	# uid_align, uid_align.57
	movl	-24(%rbp), %edx	# uid, tmp109
	movslq	%edx, %rdx	# tmp109, D.16552
	salq	$3, %rdx	#, D.16552
	addq	%rdx, %rax	# D.16552, D.16554
	movq	(%rax), %rax	# *_21, tmp110
	movq	%rax, -8(%rbp)	# tmp110, align_label
	jmp	.L62	#
.L67:
.LBB4:
	.loc 1 723 0
	movq	-8(%rbp), %rax	# align_label, tmp111
	movl	8(%rax), %eax	# align_label_1->fld[0].rtint, tmp112
	movl	%eax, -24(%rbp)	# tmp112, uid
	.loc 1 724 0
	movq	insn_addresses_(%rip), %rax	# insn_addresses_, insn_addresses_.58
	movl	-24(%rbp), %edx	# uid, tmp114
	movslq	%edx, %rdx	# tmp114, tmp113
	addq	$8, %rdx	#, tmp115
	movl	(%rax,%rdx,4), %edx	# insn_addresses_.58_24->data.i, D.16551
	movq	insn_lengths(%rip), %rax	# insn_lengths, insn_lengths.59
	movl	-24(%rbp), %ecx	# uid, tmp116
	movslq	%ecx, %rcx	# tmp116, D.16552
	salq	$2, %rcx	#, D.16552
	addq	%rcx, %rax	# D.16552, D.16553
	movl	(%rax), %eax	# *_29, D.16551
	subl	%eax, %edx	# D.16551, tmp117
	movl	%edx, %eax	# tmp117, tmp117
	movl	%eax, -16(%rbp)	# tmp117, align_addr
	.loc 1 725 0
	movq	uid_shuid(%rip), %rax	# uid_shuid, uid_shuid.60
	movl	-24(%rbp), %edx	# uid, tmp118
	movslq	%edx, %rdx	# tmp118, D.16552
	salq	$2, %rdx	#, D.16552
	addq	%rdx, %rax	# D.16552, D.16553
	movl	(%rax), %eax	# *_35, D.16551
	cmpl	-20(%rbp), %eax	# end_shuid, D.16551
	jle	.L63	#,
	.loc 1 726 0
	jmp	.L64	#
.L63:
	.loc 1 727 0
	movq	label_align(%rip), %rdx	# label_align, label_align.61
	movq	-8(%rbp), %rax	# align_label, tmp119
	movl	48(%rax), %ecx	# align_label_1->fld[5].rtint, D.16551
	movl	min_labelno(%rip), %eax	# min_labelno, min_labelno.62
	subl	%eax, %ecx	# min_labelno.62, D.16551
	movl	%ecx, %eax	# D.16551, D.16551
	cltq
	salq	$2, %rax	#, D.16552
	addq	%rdx, %rax	# label_align.61, D.16555
	movzwl	(%rax), %eax	# _43->alignment, D.16556
	cwtl
	movl	%eax, -52(%rbp)	# tmp120, known_align_log
	.loc 1 728 0
	movl	-52(%rbp), %eax	# known_align_log, tmp121
	movl	$1, %edx	#, tmp122
	movl	%eax, %ecx	# tmp121, tmp137
	sall	%cl, %edx	# tmp137, tmp123
	movl	%edx, %eax	# tmp123, tmp123
	movl	%eax, -12(%rbp)	# tmp123, new_align
	.loc 1 729 0
	movl	-12(%rbp), %eax	# new_align, tmp124
	cmpl	-32(%rbp), %eax	# known_align, tmp124
	jge	.L65	#,
	.loc 1 730 0
	jmp	.L66	#
.L65:
	.loc 1 731 0
	movl	-16(%rbp), %eax	# align_addr, tmp125
	negl	%eax	# D.16551
	xorl	-56(%rbp), %eax	# growth, D.16557
	movl	%eax, %edx	# D.16557, D.16557
	movl	-32(%rbp), %eax	# known_align, tmp126
	movl	-12(%rbp), %ecx	# new_align, tmp127
	subl	%eax, %ecx	# tmp126, D.16551
	movl	%ecx, %eax	# D.16551, D.16551
	andl	%eax, %edx	# D.16557, D.16557
	movl	-28(%rbp), %eax	# fuzz, fuzz.63
	addl	%edx, %eax	# D.16557, D.16557
	movl	%eax, -28(%rbp)	# D.16557, fuzz
	.loc 1 732 0
	movl	-12(%rbp), %eax	# new_align, tmp128
	movl	%eax, -32(%rbp)	# tmp128, known_align
.L66:
.LBE4:
	.loc 1 719 0
	movq	uid_align(%rip), %rax	# uid_align, uid_align.64
	movl	-24(%rbp), %edx	# uid, tmp129
	movslq	%edx, %rdx	# tmp129, D.16552
	salq	$3, %rdx	#, D.16552
	addq	%rdx, %rax	# D.16552, D.16554
	movq	(%rax), %rax	# *_61, tmp130
	movq	%rax, -8(%rbp)	# tmp130, align_label
.L62:
	.loc 1 719 0 is_stmt 0 discriminator 1
	cmpq	$0, -8(%rbp)	#, align_label
	jne	.L67	#,
.L64:
	.loc 1 734 0 is_stmt 1
	movl	-28(%rbp), %eax	# fuzz, D.16551
	.loc 1 735 0
	popq	%rbp	#
	.cfi_def_cfa 7, 8
	ret
	.cfi_endproc
.LFE12:
	.size	align_fuzz, .-align_fuzz
	.globl	insn_current_reference_address
	.type	insn_current_reference_address, @function
insn_current_reference_address:
.LFB13:
	.loc 1 752 0
	.cfi_startproc
	pushq	%rbp	#
	.cfi_def_cfa_offset 16
	.cfi_offset 6, -16
	movq	%rsp, %rbp	#,
	.cfi_def_cfa_register 6
	pushq	%rbx	#
	subq	$40, %rsp	#,
	.cfi_offset 3, -24
	movq	%rdi, -48(%rbp)	# branch, branch
	.loc 1 756 0
	movq	insn_addresses_(%rip), %rax	# insn_addresses_, insn_addresses_.65
	testq	%rax, %rax	# insn_addresses_.65
	jne	.L70	#,
	.loc 1 757 0
	movl	$0, %eax	#, D.16558
	jmp	.L71	#
.L70:
	.loc 1 759 0
	movq	-48(%rbp), %rax	# branch, tmp88
	movq	16(%rax), %rax	# branch_4(D)->fld[1].rtx, D.16559
	movq	24(%rax), %rax	# _5->fld[2].rtx, tmp89
	movq	%rax, -24(%rbp)	# tmp89, seq
	.loc 1 760 0
	movq	-24(%rbp), %rax	# seq, tmp90
	movl	8(%rax), %eax	# seq_6->fld[0].rtint, tmp91
	movl	%eax, -28(%rbp)	# tmp91, seq_uid
	.loc 1 761 0
	movq	-48(%rbp), %rax	# branch, tmp92
	movzwl	(%rax), %eax	# branch_4(D)->code, D.16560
	cmpw	$33, %ax	#, D.16560
	je	.L72	#,
	.loc 1 767 0
	movl	insn_current_address(%rip), %eax	# insn_current_address, D.16558
	jmp	.L71	#
.L72:
	.loc 1 768 0
	movq	-48(%rbp), %rax	# branch, tmp93
	movq	64(%rax), %rax	# branch_4(D)->fld[7].rtx, tmp94
	movq	%rax, -16(%rbp)	# tmp94, dest
	.loc 1 772 0
	movq	uid_shuid(%rip), %rdx	# uid_shuid, uid_shuid.66
	movq	-24(%rbp), %rax	# seq, tmp95
	movl	8(%rax), %eax	# seq_6->fld[0].rtint, D.16558
	cltq
	salq	$2, %rax	#, D.16561
	addq	%rdx, %rax	# uid_shuid.66, D.16562
	movl	(%rax), %edx	# *_15, D.16558
	movq	uid_shuid(%rip), %rcx	# uid_shuid, uid_shuid.67
	movq	-16(%rbp), %rax	# dest, tmp96
	movl	8(%rax), %eax	# dest_10->fld[0].rtint, D.16558
	cltq
	salq	$2, %rax	#, D.16561
	addq	%rcx, %rax	# uid_shuid.67, D.16562
	movl	(%rax), %eax	# *_21, D.16558
	cmpl	%eax, %edx	# D.16558, D.16558
	jge	.L73	#,
	.loc 1 775 0
	movq	insn_lengths(%rip), %rax	# insn_lengths, insn_lengths.68
	movl	-28(%rbp), %edx	# seq_uid, tmp97
	movslq	%edx, %rdx	# tmp97, D.16561
	salq	$2, %rdx	#, D.16561
	addq	%rdx, %rax	# D.16561, D.16562
	movl	(%rax), %edx	# *_26, D.16558
	movl	insn_last_address(%rip), %eax	# insn_last_address, insn_last_address.69
	leal	(%rdx,%rax), %ebx	#, D.16558
	.loc 1 776 0
	movl	length_unit_log(%rip), %edx	# length_unit_log, length_unit_log.70
	movq	-16(%rbp), %rsi	# dest, tmp98
	movq	-24(%rbp), %rax	# seq, tmp99
	movl	$-1, %ecx	#,
	movq	%rax, %rdi	# tmp99,
	call	align_fuzz	#
	.loc 1 775 0
	subl	%eax, %ebx	# D.16558, D.16558
	movl	%ebx, %eax	# D.16558, D.16558
	jmp	.L71	#
.L73:
	.loc 1 782 0
	movl	length_unit_log(%rip), %edx	# length_unit_log, length_unit_log.71
	movq	-24(%rbp), %rsi	# seq, tmp100
	movq	-16(%rbp), %rax	# dest, tmp101
	movl	$-1, %ecx	#,
	movq	%rax, %rdi	# tmp101,
	call	align_fuzz	#
	movl	insn_current_address(%rip), %edx	# insn_current_address, insn_current_address.72
	.loc 1 781 0
	addl	%edx, %eax	# insn_current_address.72, D.16558
.L71:
	.loc 1 784 0
	addq	$40, %rsp	#,
	popq	%rbx	#
	popq	%rbp	#
	.cfi_def_cfa 7, 8
	ret
	.cfi_endproc
.LFE13:
	.size	insn_current_reference_address, .-insn_current_reference_address
	.globl	compute_alignments
	.type	compute_alignments, @function
compute_alignments:
.LFB14:
	.loc 1 789 0
	.cfi_startproc
	pushq	%rbp	#
	.cfi_def_cfa_offset 16
	.cfi_offset 6, -16
	movq	%rsp, %rbp	#,
	.cfi_def_cfa_register 6
	subq	$64, %rsp	#,
	.loc 1 793 0
	movq	label_align(%rip), %rax	# label_align, label_align.73
	testq	%rax, %rax	# label_align.73
	je	.L75	#,
	.loc 1 795 0
	movq	label_align(%rip), %rax	# label_align, label_align.74
	movq	%rax, %rdi	# label_align.74,
	call	free	#
	.loc 1 796 0
	movq	$0, label_align(%rip)	#, label_align
.L75:
	.loc 1 799 0
	call	max_label_num	#
	movl	%eax, max_labelno(%rip)	# max_labelno.75, max_labelno
	.loc 1 800 0
	call	get_first_label_num	#
	movl	%eax, min_labelno(%rip)	# min_labelno.76, min_labelno
	.loc 1 802 0
	movl	max_labelno(%rip), %edx	# max_labelno, max_labelno.77
	movl	min_labelno(%rip), %eax	# min_labelno, min_labelno.78
	subl	%eax, %edx	# min_labelno.78, D.16563
	movl	%edx, %eax	# D.16563, D.16563
	addl	$1, %eax	#, D.16563
	cltq
	movl	$4, %esi	#,
	movq	%rax, %rdi	# D.16564,
	call	xcalloc	#
	.loc 1 801 0
	movq	%rax, label_align(%rip)	# label_align.79, label_align
	.loc 1 805 0
	movl	optimize(%rip), %eax	# optimize, optimize.80
	testl	%eax, %eax	# optimize.80
	je	.L76	#,
	.loc 1 805 0 is_stmt 0 discriminator 1
	movl	optimize_size(%rip), %eax	# optimize_size, optimize_size.81
	testl	%eax, %eax	# optimize_size.81
	je	.L77	#,
.L76:
	.loc 1 806 0 is_stmt 1
	jmp	.L74	#
.L77:
	.loc 1 808 0
	movl	$0, -52(%rbp)	#, i
	jmp	.L79	#
.L89:
.LBB5:
	.loc 1 810 0
	movq	basic_block_info(%rip), %rax	# basic_block_info, basic_block_info.82
	movl	-52(%rbp), %edx	# i, tmp120
	movslq	%edx, %rdx	# tmp120, tmp119
	addq	$4, %rdx	#, tmp121
	movq	(%rax,%rdx,8), %rax	# basic_block_info.82_27->data.bb, tmp122
	movq	%rax, -16(%rbp)	# tmp122, bb
	.loc 1 811 0
	movq	-16(%rbp), %rax	# bb, tmp123
	movq	(%rax), %rax	# bb_28->head, tmp124
	movq	%rax, -8(%rbp)	# tmp124, label
	.loc 1 812 0
	movl	$0, -40(%rbp)	#, fallthru_frequency
	movl	$0, -36(%rbp)	#, branch_frequency
	movl	$0, -32(%rbp)	#, has_fallthru
	.loc 1 815 0
	movq	-8(%rbp), %rax	# label, tmp125
	movzwl	(%rax), %eax	# label_29->code, D.16565
	cmpw	$36, %ax	#, D.16565
	je	.L80	#,
	.loc 1 816 0
	jmp	.L81	#
.L80:
	.loc 1 817 0
	movl	align_labels_log(%rip), %eax	# align_labels_log, tmp126
	movl	%eax, -44(%rbp)	# tmp126, max_log
	.loc 1 818 0
	movl	align_labels_max_skip(%rip), %eax	# align_labels_max_skip, tmp127
	movl	%eax, -48(%rbp)	# tmp127, max_skip
	.loc 1 820 0
	movq	-16(%rbp), %rax	# bb, tmp128
	movq	32(%rax), %rax	# bb_28->pred, tmp129
	movq	%rax, -24(%rbp)	# tmp129, e
	jmp	.L82	#
.L85:
	.loc 1 822 0
	movq	-24(%rbp), %rax	# e, tmp130
	movl	48(%rax), %eax	# e_12->flags, D.16563
	andl	$1, %eax	#, D.16563
	testl	%eax, %eax	# D.16563
	je	.L83	#,
	.loc 1 823 0
	movl	$1, -32(%rbp)	#, has_fallthru
	movq	-24(%rbp), %rax	# e, tmp131
	movq	16(%rax), %rax	# e_12->src, D.16566
	movl	104(%rax), %edx	# _40->frequency, D.16563
	movq	-24(%rbp), %rax	# e, tmp132
	movl	52(%rax), %eax	# e_12->probability, D.16563
	imull	%edx, %eax	# D.16563, D.16563
	leal	5000(%rax), %ecx	#, D.16563
	movl	$1759218605, %edx	#, tmp134
	movl	%ecx, %eax	# D.16563, tmp173
	imull	%edx	# tmp134
	sarl	$12, %edx	#, tmp135
	movl	%ecx, %eax	# D.16563, tmp136
	sarl	$31, %eax	#, tmp136
	subl	%eax, %edx	# tmp136, D.16563
	movl	%edx, %eax	# D.16563, D.16563
	addl	%eax, -40(%rbp)	# D.16563, fallthru_frequency
	jmp	.L84	#
.L83:
	.loc 1 825 0
	movq	-24(%rbp), %rax	# e, tmp137
	movq	16(%rax), %rax	# e_12->src, D.16566
	movl	104(%rax), %edx	# _47->frequency, D.16563
	movq	-24(%rbp), %rax	# e, tmp138
	movl	52(%rax), %eax	# e_12->probability, D.16563
	imull	%edx, %eax	# D.16563, D.16563
	leal	5000(%rax), %ecx	#, D.16563
	movl	$1759218605, %edx	#, tmp140
	movl	%ecx, %eax	# D.16563, tmp174
	imull	%edx	# tmp140
	sarl	$12, %edx	#, tmp141
	movl	%ecx, %eax	# D.16563, tmp142
	sarl	$31, %eax	#, tmp142
	subl	%eax, %edx	# tmp142, D.16563
	movl	%edx, %eax	# D.16563, D.16563
	addl	%eax, -36(%rbp)	# D.16563, branch_frequency
.L84:
	.loc 1 820 0
	movq	-24(%rbp), %rax	# e, tmp143
	movq	(%rax), %rax	# e_12->pred_next, tmp144
	movq	%rax, -24(%rbp)	# tmp144, e
.L82:
	.loc 1 820 0 is_stmt 0 discriminator 1
	cmpq	$0, -24(%rbp)	#, e
	jne	.L85	#,
	.loc 1 838 0 is_stmt 1
	cmpl	$0, -32(%rbp)	#, has_fallthru
	jne	.L86	#,
	.loc 1 839 0
	cmpl	$1000, -36(%rbp)	#, branch_frequency
	jg	.L87	#,
	.loc 1 840 0
	movq	-16(%rbp), %rax	# bb, tmp145
	movl	104(%rax), %ecx	# bb_28->frequency, D.16563
	movq	basic_block_info(%rip), %rax	# basic_block_info, basic_block_info.83
	movl	-52(%rbp), %edx	# i, tmp146
	subl	$1, %edx	#, D.16563
	movslq	%edx, %rdx	# D.16563, tmp147
	addq	$4, %rdx	#, tmp148
	movq	(%rax,%rdx,8), %rax	# basic_block_info.83_56->data.bb, D.16566
	movl	104(%rax), %edx	# _58->frequency, D.16563
	movl	%edx, %eax	# D.16563, tmp149
	sall	$2, %eax	#, tmp149
	addl	%edx, %eax	# D.16563, tmp149
	addl	%eax, %eax	# tmp150
	cmpl	%eax, %ecx	# D.16563, D.16563
	jle	.L86	#,
	.loc 1 841 0
	movq	basic_block_info(%rip), %rax	# basic_block_info, basic_block_info.84
	movl	-52(%rbp), %edx	# i, tmp151
	subl	$1, %edx	#, D.16563
	movslq	%edx, %rdx	# D.16563, tmp152
	addq	$4, %rdx	#, tmp153
	movq	(%rax,%rdx,8), %rax	# basic_block_info.84_61->data.bb, D.16566
	movl	104(%rax), %edx	# _63->frequency, D.16563
	.loc 1 842 0
	movl	entry_exit_blocks+104(%rip), %eax	# entry_exit_blocks[0].frequency, D.16563
	movl	%eax, %ecx	# D.16563, tmp154
	shrl	$31, %ecx	#, tmp154
	addl	%ecx, %eax	# tmp154, tmp155
	sarl	%eax	# tmp156
	.loc 1 841 0
	cmpl	%eax, %edx	# D.16563, D.16563
	jg	.L86	#,
.L87:
	.loc 1 844 0
	movl	align_jumps_log(%rip), %eax	# align_jumps_log, tmp157
	movl	%eax, -28(%rbp)	# tmp157, log
	.loc 1 845 0
	movl	-44(%rbp), %eax	# max_log, tmp158
	cmpl	-28(%rbp), %eax	# log, tmp158
	jge	.L86	#,
	.loc 1 847 0
	movl	-28(%rbp), %eax	# log, tmp159
	movl	%eax, -44(%rbp)	# tmp159, max_log
	.loc 1 848 0
	movl	align_jumps_max_skip(%rip), %eax	# align_jumps_max_skip, tmp160
	movl	%eax, -48(%rbp)	# tmp160, max_skip
.L86:
	.loc 1 853 0
	cmpl	$0, -32(%rbp)	#, has_fallthru
	je	.L88	#,
	.loc 1 854 0
	movl	-40(%rbp), %eax	# fallthru_frequency, tmp161
	movl	-36(%rbp), %edx	# branch_frequency, tmp162
	addl	%edx, %eax	# tmp162, D.16563
	cmpl	$1000, %eax	#, D.16563
	jle	.L88	#,
	.loc 1 855 0
	movl	-40(%rbp), %edx	# fallthru_frequency, tmp163
	movl	%edx, %eax	# tmp163, tmp164
	sall	$2, %eax	#, tmp164
	addl	%edx, %eax	# tmp163, D.16563
	cmpl	-36(%rbp), %eax	# branch_frequency, D.16563
	jge	.L88	#,
	.loc 1 857 0
	movl	align_loops_log(%rip), %eax	# align_loops_log, tmp165
	movl	%eax, -28(%rbp)	# tmp165, log
	.loc 1 858 0
	movl	-44(%rbp), %eax	# max_log, tmp166
	cmpl	-28(%rbp), %eax	# log, tmp166
	jge	.L88	#,
	.loc 1 860 0
	movl	-28(%rbp), %eax	# log, tmp167
	movl	%eax, -44(%rbp)	# tmp167, max_log
	.loc 1 861 0
	movl	align_loops_max_skip(%rip), %eax	# align_loops_max_skip, tmp168
	movl	%eax, -48(%rbp)	# tmp168, max_skip
.L88:
	.loc 1 864 0
	movq	label_align(%rip), %rdx	# label_align, label_align.85
	movq	-8(%rbp), %rax	# label, tmp169
	movl	48(%rax), %ecx	# label_29->fld[5].rtint, D.16563
	movl	min_labelno(%rip), %eax	# min_labelno, min_labelno.86
	subl	%eax, %ecx	# min_labelno.86, D.16563
	movl	%ecx, %eax	# D.16563, D.16563
	cltq
	salq	$2, %rax	#, D.16564
	addq	%rax, %rdx	# D.16564, D.16567
	movl	-44(%rbp), %eax	# max_log, tmp170
	movw	%ax, (%rdx)	# D.16568, _81->alignment
	.loc 1 865 0
	movq	label_align(%rip), %rdx	# label_align, label_align.87
	movq	-8(%rbp), %rax	# label, tmp171
	movl	48(%rax), %ecx	# label_29->fld[5].rtint, D.16563
	movl	min_labelno(%rip), %eax	# min_labelno, min_labelno.88
	subl	%eax, %ecx	# min_labelno.88, D.16563
	movl	%ecx, %eax	# D.16563, D.16563
	cltq
	salq	$2, %rax	#, D.16564
	addq	%rax, %rdx	# D.16564, D.16567
	movl	-48(%rbp), %eax	# max_skip, tmp172
	movw	%ax, 2(%rdx)	# D.16568, _89->max_skip
.L81:
.LBE5:
	.loc 1 808 0
	addl	$1, -52(%rbp)	#, i
.L79:
	.loc 1 808 0 is_stmt 0 discriminator 1
	movl	n_basic_blocks(%rip), %eax	# n_basic_blocks, n_basic_blocks.89
	cmpl	%eax, -52(%rbp)	# n_basic_blocks.89, i
	jl	.L89	#,
.L74:
	.loc 1 867 0 is_stmt 1
	leave
	.cfi_def_cfa 7, 8
	ret
	.cfi_endproc
.LFE14:
	.size	compute_alignments, .-compute_alignments
	.section	.rodata
.LC10:
	.string	"insn_addresses"
	.text
	.globl	shorten_branches
	.type	shorten_branches, @function
shorten_branches:
.LFB15:
	.loc 1 889 0
	.cfi_startproc
	pushq	%rbp	#
	.cfi_def_cfa_offset 16
	.cfi_offset 6, -16
	movq	%rsp, %rbp	#,
	.cfi_def_cfa_register 6
	pushq	%r12	#
	pushq	%rbx	#
	subq	$352, %rsp	#,
	.cfi_offset 12, -24
	.cfi_offset 3, -32
	movq	%rdi, -360(%rbp)	# first, first
	.loc 1 898 0
	movl	$1, -328(%rbp)	#, something_changed
	.loc 1 907 0
	call	get_max_uid	#
	movl	%eax, -300(%rbp)	# tmp380, max_uid
	.loc 1 909 0
	movl	-300(%rbp), %eax	# max_uid, tmp381
	cltq
	salq	$2, %rax	#, D.16569
	movq	%rax, %rdi	# D.16569,
	call	xmalloc	#
	movq	%rax, uid_shuid(%rip)	# uid_shuid.90, uid_shuid
	.loc 1 911 0
	call	max_label_num	#
	movl	max_labelno(%rip), %edx	# max_labelno, max_labelno.91
	cmpl	%edx, %eax	# max_labelno.91, D.16570
	je	.L91	#,
.LBB6:
	.loc 1 913 0
	movl	max_labelno(%rip), %eax	# max_labelno, tmp383
	movl	%eax, -296(%rbp)	# tmp383, old
	.loc 1 917 0
	call	max_label_num	#
	movl	%eax, max_labelno(%rip)	# max_labelno.92, max_labelno
	.loc 1 919 0
	movl	max_labelno(%rip), %edx	# max_labelno, max_labelno.93
	movl	min_labelno(%rip), %eax	# min_labelno, min_labelno.94
	subl	%eax, %edx	# min_labelno.94, D.16570
	movl	%edx, %eax	# D.16570, D.16570
	addl	$1, %eax	#, tmp384
	movl	%eax, -292(%rbp)	# tmp384, n_labels
	.loc 1 920 0
	movl	min_labelno(%rip), %eax	# min_labelno, min_labelno.95
	movl	-296(%rbp), %edx	# old, tmp385
	subl	%eax, %edx	# min_labelno.95, D.16570
	movl	%edx, %eax	# D.16570, D.16570
	addl	$1, %eax	#, tmp386
	movl	%eax, -288(%rbp)	# tmp386, n_old_labels
	.loc 1 923 0
	movl	-292(%rbp), %eax	# n_labels, tmp387
	cltq
	leaq	0(,%rax,4), %rdx	#, D.16569
	movq	label_align(%rip), %rax	# label_align, label_align.96
	movq	%rdx, %rsi	# D.16569,
	movq	%rax, %rdi	# label_align.96,
	call	xrealloc	#
	.loc 1 922 0
	movq	%rax, label_align(%rip)	# label_align.97, label_align
	.loc 1 927 0
	movl	-288(%rbp), %eax	# n_old_labels, tmp388
	cmpl	-292(%rbp), %eax	# n_labels, tmp388
	jle	.L92	#,
	.loc 1 928 0
	movl	$__FUNCTION__.13976, %edx	#,
	movl	$928, %esi	#,
	movl	$.LC0, %edi	#,
	call	fancy_abort	#
.L92:
	.loc 1 931 0
	movl	-288(%rbp), %eax	# n_old_labels, tmp389
	movl	-292(%rbp), %edx	# n_labels, tmp390
	subl	%eax, %edx	# tmp389, D.16570
	movl	%edx, %eax	# D.16570, D.16570
	.loc 1 930 0
	cltq
	leaq	0(,%rax,4), %rdx	#, D.16569
	movq	label_align(%rip), %rax	# label_align, label_align.98
	movl	-288(%rbp), %ecx	# n_old_labels, tmp391
	movslq	%ecx, %rcx	# tmp391, D.16569
	salq	$2, %rcx	#, D.16569
	addq	%rcx, %rax	# D.16569, D.16571
	movl	$0, %esi	#,
	movq	%rax, %rdi	# D.16571,
	call	memset	#
.L91:
.LBE6:
	.loc 1 940 0
	movl	$0, -336(%rbp)	#, max_log
	.loc 1 941 0
	movl	$0, -332(%rbp)	#, max_skip
	.loc 1 943 0
	call	get_insns	#
	movq	%rax, -224(%rbp)	# tmp392, insn
	movl	$1, -340(%rbp)	#, i
	jmp	.L93	#
.L104:
.LBB7:
	.loc 1 947 0
	movq	uid_shuid(%rip), %rdx	# uid_shuid, uid_shuid.99
	movq	-224(%rbp), %rax	# insn, tmp393
	movl	8(%rax), %eax	# insn_1->fld[0].rtint, D.16570
	cltq
	salq	$2, %rax	#, D.16569
	leaq	(%rdx,%rax), %rcx	#, D.16572
	movl	-340(%rbp), %eax	# i, i.100
	leal	1(%rax), %edx	#, tmp394
	movl	%edx, -340(%rbp)	# tmp394, i
	movl	%eax, (%rcx)	# i.100, *_70
	.loc 1 948 0
	movq	-224(%rbp), %rax	# insn, tmp395
	movzwl	(%rax), %eax	# insn_1->code, D.16573
	movzwl	%ax, %eax	# D.16573, D.16570
	cltq
	movzbl	rtx_class(%rax), %eax	# rtx_class, D.16574
	cmpb	$105, %al	#, D.16574
	je	.L94	#,
	.loc 1 956 0
	movq	-224(%rbp), %rax	# insn, tmp397
	movzwl	(%rax), %eax	# insn_1->code, D.16573
	cmpw	$36, %ax	#, D.16573
	jne	.L95	#,
.LBB8:
	.loc 1 961 0
	movq	label_align(%rip), %rdx	# label_align, label_align.101
	movq	-224(%rbp), %rax	# insn, tmp398
	movl	48(%rax), %ecx	# insn_1->fld[5].rtint, D.16570
	movl	min_labelno(%rip), %eax	# min_labelno, min_labelno.102
	subl	%eax, %ecx	# min_labelno.102, D.16570
	movl	%ecx, %eax	# D.16570, D.16570
	cltq
	salq	$2, %rax	#, D.16569
	addq	%rdx, %rax	# label_align.101, D.16575
	movzwl	(%rax), %eax	# _83->alignment, D.16576
	cwtl
	movl	%eax, -284(%rbp)	# tmp399, log
	.loc 1 962 0
	movl	-336(%rbp), %eax	# max_log, tmp400
	cmpl	-284(%rbp), %eax	# log, tmp400
	jge	.L96	#,
	.loc 1 964 0
	movl	-284(%rbp), %eax	# log, tmp401
	movl	%eax, -336(%rbp)	# tmp401, max_log
	.loc 1 965 0
	movq	label_align(%rip), %rdx	# label_align, label_align.103
	movq	-224(%rbp), %rax	# insn, tmp402
	movl	48(%rax), %ecx	# insn_1->fld[5].rtint, D.16570
	movl	min_labelno(%rip), %eax	# min_labelno, min_labelno.104
	subl	%eax, %ecx	# min_labelno.104, D.16570
	movl	%ecx, %eax	# D.16570, D.16570
	cltq
	salq	$2, %rax	#, D.16569
	addq	%rdx, %rax	# label_align.103, D.16575
	movzwl	2(%rax), %eax	# _93->max_skip, D.16576
	cwtl
	movl	%eax, -332(%rbp)	# tmp403, max_skip
.L96:
	.loc 1 968 0
	movl	align_labels_log(%rip), %eax	# align_labels_log, tmp404
	movl	%eax, -284(%rbp)	# tmp404, log
	.loc 1 969 0
	movl	-336(%rbp), %eax	# max_log, tmp405
	cmpl	-284(%rbp), %eax	# log, tmp405
	jge	.L97	#,
	.loc 1 971 0
	movl	-284(%rbp), %eax	# log, tmp406
	movl	%eax, -336(%rbp)	# tmp406, max_log
	.loc 1 972 0
	movl	align_labels_max_skip(%rip), %eax	# align_labels_max_skip, tmp407
	movl	%eax, -332(%rbp)	# tmp407, max_skip
.L97:
	.loc 1 974 0
	movq	-224(%rbp), %rax	# insn, tmp408
	movq	24(%rax), %rax	# insn_1->fld[2].rtx, tmp409
	movq	%rax, -200(%rbp)	# tmp409, next
	.loc 1 977 0
	movl	target_flags(%rip), %eax	# target_flags, target_flags.105
	andl	$33554432, %eax	#, D.16570
	testl	%eax, %eax	# D.16570
	jne	.L98	#,
	.loc 1 977 0 is_stmt 0 discriminator 1
	movl	flag_pic(%rip), %eax	# flag_pic, flag_pic.106
	testl	%eax, %eax	# flag_pic.106
	je	.L98	#,
	.loc 1 982 0 is_stmt 1
	cmpq	$0, -200(%rbp)	#, next
	je	.L98	#,
	.loc 1 982 0 is_stmt 0 discriminator 1
	movq	-200(%rbp), %rax	# next, tmp410
	movzwl	(%rax), %eax	# next_99->code, D.16573
	cmpw	$33, %ax	#, D.16573
	jne	.L98	#,
.LBB9:
	.loc 1 984 0 is_stmt 1
	movq	-200(%rbp), %rax	# next, tmp411
	movq	32(%rax), %rax	# next_99->fld[3].rtx, tmp412
	movq	%rax, -192(%rbp)	# tmp412, nextbody
	.loc 1 985 0
	movq	-192(%rbp), %rax	# nextbody, tmp413
	movzwl	(%rax), %eax	# nextbody_104->code, D.16573
	cmpw	$44, %ax	#, D.16573
	je	.L99	#,
	.loc 1 986 0
	movq	-192(%rbp), %rax	# nextbody, tmp414
	movzwl	(%rax), %eax	# nextbody_104->code, D.16573
	cmpw	$45, %ax	#, D.16573
	jne	.L98	#,
.L99:
	.loc 1 988 0
	movq	-200(%rbp), %rax	# next, tmp415
	movq	%rax, %rdi	# tmp415,
	call	final_addr_vec_align	#
	movl	%eax, -284(%rbp)	# tmp416, log
	.loc 1 989 0
	movl	-336(%rbp), %eax	# max_log, tmp417
	cmpl	-284(%rbp), %eax	# log, tmp417
	jge	.L98	#,
	.loc 1 991 0
	movl	-284(%rbp), %eax	# log, tmp418
	movl	%eax, -336(%rbp)	# tmp418, max_log
	.loc 1 992 0
	movl	align_labels_max_skip(%rip), %eax	# align_labels_max_skip, tmp419
	movl	%eax, -332(%rbp)	# tmp419, max_skip
.L98:
.LBE9:
	.loc 1 996 0
	movq	label_align(%rip), %rdx	# label_align, label_align.107
	movq	-224(%rbp), %rax	# insn, tmp420
	movl	48(%rax), %ecx	# insn_1->fld[5].rtint, D.16570
	movl	min_labelno(%rip), %eax	# min_labelno, min_labelno.108
	subl	%eax, %ecx	# min_labelno.108, D.16570
	movl	%ecx, %eax	# D.16570, D.16570
	cltq
	salq	$2, %rax	#, D.16569
	addq	%rax, %rdx	# D.16569, D.16575
	movl	-336(%rbp), %eax	# max_log, tmp421
	movw	%ax, (%rdx)	# D.16576, _116->alignment
	.loc 1 997 0
	movq	label_align(%rip), %rdx	# label_align, label_align.109
	movq	-224(%rbp), %rax	# insn, tmp422
	movl	48(%rax), %ecx	# insn_1->fld[5].rtint, D.16570
	movl	min_labelno(%rip), %eax	# min_labelno, min_labelno.110
	subl	%eax, %ecx	# min_labelno.110, D.16570
	movl	%ecx, %eax	# D.16570, D.16570
	cltq
	salq	$2, %rax	#, D.16569
	addq	%rax, %rdx	# D.16569, D.16575
	movl	-332(%rbp), %eax	# max_skip, tmp423
	movw	%ax, 2(%rdx)	# D.16576, _124->max_skip
	.loc 1 998 0
	movl	$0, -336(%rbp)	#, max_log
	.loc 1 999 0
	movl	$0, -332(%rbp)	#, max_skip
.LBE8:
	jmp	.L94	#
.L95:
	.loc 1 1001 0
	movq	-224(%rbp), %rax	# insn, tmp424
	movzwl	(%rax), %eax	# insn_1->code, D.16573
	cmpw	$35, %ax	#, D.16573
	jne	.L94	#,
.LBB10:
	.loc 1 1005 0
	movq	-224(%rbp), %rax	# insn, tmp425
	movq	%rax, -208(%rbp)	# tmp425, label
	jmp	.L100	#
.L103:
	.loc 1 1007 0
	movq	-208(%rbp), %rax	# label, tmp426
	movzwl	(%rax), %eax	# label_26->code, D.16573
	cmpw	$36, %ax	#, D.16573
	jne	.L101	#,
	.loc 1 1009 0
	movl	$0, -284(%rbp)	#, log
	.loc 1 1010 0
	movl	-336(%rbp), %eax	# max_log, tmp427
	cmpl	-284(%rbp), %eax	# log, tmp427
	jge	.L102	#,
	.loc 1 1012 0
	movl	-284(%rbp), %eax	# log, tmp428
	movl	%eax, -336(%rbp)	# tmp428, max_log
	.loc 1 1013 0
	movl	$0, -332(%rbp)	#, max_skip
	.loc 1 1015 0
	jmp	.L94	#
.L102:
	jmp	.L94	#
.L101:
	.loc 1 1006 0
	movq	-208(%rbp), %rax	# label, tmp429
	movq	24(%rax), %rax	# label_26->fld[2].rtx, tmp430
	movq	%rax, -208(%rbp)	# tmp430, label
.L100:
	.loc 1 1005 0 discriminator 1
	cmpq	$0, -208(%rbp)	#, label
	je	.L94	#,
	.loc 1 1005 0 is_stmt 0 discriminator 2
	movq	-208(%rbp), %rax	# label, tmp431
	movzwl	(%rax), %eax	# label_26->code, D.16573
	movzwl	%ax, %eax	# D.16573, D.16570
	cltq
	movzbl	rtx_class(%rax), %eax	# rtx_class, D.16574
	cmpb	$105, %al	#, D.16574
	jne	.L103	#,
.L94:
.LBE10:
.LBE7:
	.loc 1 943 0 is_stmt 1
	movq	-224(%rbp), %rax	# insn, tmp433
	movq	24(%rax), %rax	# insn_1->fld[2].rtx, tmp434
	movq	%rax, -224(%rbp)	# tmp434, insn
.L93:
	.loc 1 943 0 is_stmt 0 discriminator 1
	cmpq	$0, -224(%rbp)	#, insn
	jne	.L104	#,
	.loc 1 1022 0 is_stmt 1
	movl	-300(%rbp), %eax	# max_uid, tmp435
	cltq
	salq	$2, %rax	#, D.16569
	movq	%rax, %rdi	# D.16569,
	call	xmalloc	#
	movq	%rax, insn_lengths(%rip)	# insn_lengths.111, insn_lengths
	.loc 1 1023 0
	movl	-300(%rbp), %eax	# max_uid, tmp437
	movl	%eax, insn_lengths_max_uid(%rip)	# tmp437, insn_lengths_max_uid
	.loc 1 1026 0
	movl	-300(%rbp), %eax	# max_uid, tmp438
	cltq
	movl	$.LC10, %edx	#,
	movl	$4, %esi	#,
	movq	%rax, %rdi	# D.16569,
	call	varray_init	#
	movq	%rax, insn_addresses_(%rip)	# insn_addresses_.112, insn_addresses_
	.loc 1 1028 0
	movl	-300(%rbp), %eax	# max_uid, tmp439
	cltq
	movl	$1, %esi	#,
	movq	%rax, %rdi	# D.16569,
	call	xcalloc	#
	movq	%rax, -184(%rbp)	# tmp440, varying_length
	.loc 1 1035 0
	movl	-300(%rbp), %eax	# max_uid, tmp441
	cltq
	movl	$8, %esi	#,
	movq	%rax, %rdi	# D.16569,
	call	xcalloc	#
	movq	%rax, uid_align(%rip)	# uid_align.113, uid_align
	.loc 1 1037 0
	movl	$16, -340(%rbp)	#, i
	jmp	.L105	#
.L106:
	.loc 1 1038 0
	movl	-340(%rbp), %eax	# i, tmp444
	cltq
	movq	$0, -144(%rbp,%rax,8)	#, align_tab
.L105:
	.loc 1 1037 0 discriminator 1
	subl	$1, -340(%rbp)	#, i
	cmpl	$0, -340(%rbp)	#, i
	jns	.L106	#,
	.loc 1 1039 0
	call	get_last_insn	#
	movq	%rax, -216(%rbp)	# tmp445, seq
	.loc 1 1040 0
	jmp	.L107	#
.L113:
.LBB11:
	.loc 1 1042 0
	movq	-216(%rbp), %rax	# seq, tmp446
	movl	8(%rax), %eax	# seq_19->fld[0].rtint, tmp447
	movl	%eax, -280(%rbp)	# tmp447, uid
	.loc 1 1044 0
	movq	-216(%rbp), %rax	# seq, tmp448
	movzwl	(%rax), %eax	# seq_19->code, D.16573
	cmpw	$36, %ax	#, D.16573
	jne	.L108	#,
	.loc 1 1044 0 is_stmt 0 discriminator 1
	movq	label_align(%rip), %rdx	# label_align, label_align.115
	movq	-216(%rbp), %rax	# seq, tmp449
	movl	48(%rax), %ecx	# seq_19->fld[5].rtint, D.16570
	movl	min_labelno(%rip), %eax	# min_labelno, min_labelno.116
	subl	%eax, %ecx	# min_labelno.116, D.16570
	movl	%ecx, %eax	# D.16570, D.16570
	cltq
	salq	$2, %rax	#, D.16569
	addq	%rdx, %rax	# label_align.115, D.16575
	movzwl	(%rax), %eax	# _159->alignment, D.16576
	cwtl
	jmp	.L109	#
.L108:
	.loc 1 1044 0 discriminator 2
	movl	$0, %eax	#, iftmp.114
.L109:
	.loc 1 1044 0 discriminator 3
	movl	%eax, -276(%rbp)	# iftmp.114, log
	.loc 1 1045 0 is_stmt 1 discriminator 3
	movq	uid_align(%rip), %rax	# uid_align, uid_align.117
	movl	-280(%rbp), %edx	# uid, tmp450
	movslq	%edx, %rdx	# tmp450, D.16569
	salq	$3, %rdx	#, D.16569
	addq	%rax, %rdx	# uid_align.117, D.16577
	movq	-144(%rbp), %rax	# align_tab, D.16578
	movq	%rax, (%rdx)	# D.16578, *_167
	.loc 1 1046 0 discriminator 3
	cmpl	$0, -276(%rbp)	#, log
	je	.L110	#,
	.loc 1 1049 0
	movq	uid_align(%rip), %rax	# uid_align, uid_align.118
	movl	-280(%rbp), %edx	# uid, tmp451
	movslq	%edx, %rdx	# tmp451, D.16569
	salq	$3, %rdx	#, D.16569
	addq	%rax, %rdx	# uid_align.118, D.16577
	movl	-276(%rbp), %eax	# log, tmp453
	cltq
	movq	-144(%rbp,%rax,8), %rax	# align_tab, D.16578
	movq	%rax, (%rdx)	# D.16578, *_172
	.loc 1 1050 0
	movl	-276(%rbp), %eax	# log, tmp457
	subl	$1, %eax	#, tmp456
	movl	%eax, -340(%rbp)	# tmp456, i
	jmp	.L111	#
.L112:
	.loc 1 1051 0 discriminator 2
	movl	-340(%rbp), %eax	# i, tmp459
	cltq
	movq	-216(%rbp), %rdx	# seq, tmp460
	movq	%rdx, -144(%rbp,%rax,8)	# tmp460, align_tab
	.loc 1 1050 0 discriminator 2
	subl	$1, -340(%rbp)	#, i
.L111:
	.loc 1 1050 0 is_stmt 0 discriminator 1
	cmpl	$0, -340(%rbp)	#, i
	jns	.L112	#,
.L110:
.LBE11:
	.loc 1 1040 0 is_stmt 1
	movq	-216(%rbp), %rax	# seq, tmp461
	movq	16(%rax), %rax	# seq_19->fld[1].rtx, tmp462
	movq	%rax, -216(%rbp)	# tmp462, seq
.L107:
	.loc 1 1040 0 is_stmt 0 discriminator 1
	cmpq	$0, -216(%rbp)	#, seq
	jne	.L113	#,
	.loc 1 1112 0 is_stmt 1
	movl	$0, insn_current_address(%rip)	#, insn_current_address
	movq	-360(%rbp), %rax	# first, tmp463
	movq	%rax, -224(%rbp)	# tmp463, insn
	jmp	.L114	#
.L134:
	.loc 1 1116 0
	movq	-224(%rbp), %rax	# insn, tmp464
	movl	8(%rax), %eax	# insn_2->fld[0].rtint, tmp465
	movl	%eax, -272(%rbp)	# tmp465, uid
	.loc 1 1118 0
	movq	insn_lengths(%rip), %rax	# insn_lengths, insn_lengths.119
	movl	-272(%rbp), %edx	# uid, tmp466
	movslq	%edx, %rdx	# tmp466, D.16569
	salq	$2, %rdx	#, D.16569
	addq	%rdx, %rax	# D.16569, D.16572
	movl	$0, (%rax)	#, *_183
	.loc 1 1120 0
	movq	-224(%rbp), %rax	# insn, tmp467
	movzwl	(%rax), %eax	# insn_2->code, D.16573
	cmpw	$36, %ax	#, D.16573
	jne	.L115	#,
.LBB12:
	.loc 1 1122 0
	movq	label_align(%rip), %rdx	# label_align, label_align.120
	movq	-224(%rbp), %rax	# insn, tmp468
	movl	48(%rax), %ecx	# insn_2->fld[5].rtint, D.16570
	movl	min_labelno(%rip), %eax	# min_labelno, min_labelno.121
	subl	%eax, %ecx	# min_labelno.121, D.16570
	movl	%ecx, %eax	# D.16570, D.16570
	cltq
	salq	$2, %rax	#, D.16569
	addq	%rdx, %rax	# label_align.120, D.16575
	movzwl	(%rax), %eax	# _191->alignment, D.16576
	cwtl
	movl	%eax, -268(%rbp)	# tmp469, log
	.loc 1 1123 0
	cmpl	$0, -268(%rbp)	#, log
	je	.L115	#,
.LBB13:
	.loc 1 1125 0
	movl	-268(%rbp), %eax	# log, tmp470
	movl	$1, %edx	#, tmp471
	movl	%eax, %ecx	# tmp470, tmp633
	sall	%cl, %edx	# tmp633, tmp472
	movl	%edx, %eax	# tmp472, tmp472
	movl	%eax, -264(%rbp)	# tmp472, align
	.loc 1 1126 0
	movl	insn_current_address(%rip), %edx	# insn_current_address, insn_current_address.122
	movl	-264(%rbp), %eax	# align, tmp473
	addl	%edx, %eax	# insn_current_address.122, D.16570
	leal	-1(%rax), %edx	#, D.16570
	movl	-264(%rbp), %eax	# align, tmp474
	negl	%eax	# D.16570
	andl	%edx, %eax	# D.16570, tmp475
	movl	%eax, -260(%rbp)	# tmp475, new_address
	.loc 1 1127 0
	movq	insn_lengths(%rip), %rax	# insn_lengths, insn_lengths.123
	movl	-272(%rbp), %edx	# uid, tmp476
	movslq	%edx, %rdx	# tmp476, D.16569
	salq	$2, %rdx	#, D.16569
	addq	%rdx, %rax	# D.16569, D.16572
	movl	insn_current_address(%rip), %edx	# insn_current_address, insn_current_address.124
	movl	-260(%rbp), %ecx	# new_address, tmp477
	subl	%edx, %ecx	# insn_current_address.124, D.16570
	movl	%ecx, %edx	# D.16570, D.16570
	movl	%edx, (%rax)	# D.16570, *_203
.L115:
.LBE13:
.LBE12:
	.loc 1 1131 0
	movq	insn_addresses_(%rip), %rax	# insn_addresses_, insn_addresses_.125
	movl	insn_current_address(%rip), %edx	# insn_current_address, insn_current_address.126
	movl	-272(%rbp), %ecx	# uid, tmp479
	movslq	%ecx, %rcx	# tmp479, tmp478
	addq	$8, %rcx	#, tmp480
	movl	%edx, (%rax,%rcx,4)	# insn_current_address.126, insn_addresses_.125_206->data.i
	.loc 1 1133 0
	movq	-224(%rbp), %rax	# insn, tmp481
	movzwl	(%rax), %eax	# insn_2->code, D.16573
	cmpw	$37, %ax	#, D.16573
	je	.L116	#,
	.loc 1 1133 0 is_stmt 0 discriminator 1
	movq	-224(%rbp), %rax	# insn, tmp482
	movzwl	(%rax), %eax	# insn_2->code, D.16573
	cmpw	$35, %ax	#, D.16573
	je	.L116	#,
	.loc 1 1134 0 is_stmt 1
	movq	-224(%rbp), %rax	# insn, tmp483
	movzwl	(%rax), %eax	# insn_2->code, D.16573
	cmpw	$36, %ax	#, D.16573
	jne	.L117	#,
.L116:
	.loc 1 1135 0
	jmp	.L118	#
.L117:
	.loc 1 1136 0
	movq	-224(%rbp), %rax	# insn, tmp484
	movzbl	3(%rax), %eax	# *insn_2, D.16579
	andl	$8, %eax	#, D.16579
	testb	%al, %al	# D.16579
	je	.L119	#,
	.loc 1 1137 0
	jmp	.L118	#
.L119:
	.loc 1 1139 0
	movq	-224(%rbp), %rax	# insn, tmp485
	movq	32(%rax), %rax	# insn_2->fld[3].rtx, tmp486
	movq	%rax, -176(%rbp)	# tmp486, body
	.loc 1 1140 0
	movq	-176(%rbp), %rax	# body, tmp487
	movzwl	(%rax), %eax	# body_213->code, D.16573
	cmpw	$44, %ax	#, D.16573
	je	.L120	#,
	.loc 1 1140 0 is_stmt 0 discriminator 1
	movq	-176(%rbp), %rax	# body, tmp488
	movzwl	(%rax), %eax	# body_213->code, D.16573
	cmpw	$45, %ax	#, D.16573
	jne	.L121	#,
.L120:
	.loc 1 1144 0 is_stmt 1
	movl	target_flags(%rip), %eax	# target_flags, target_flags.127
	andl	$33554432, %eax	#, D.16570
	testl	%eax, %eax	# D.16570
	jne	.L122	#,
	.loc 1 1144 0 is_stmt 0 discriminator 1
	movl	flag_pic(%rip), %eax	# flag_pic, flag_pic.128
	testl	%eax, %eax	# flag_pic.128
	je	.L122	#,
	.loc 1 1149 0 is_stmt 1
	movq	insn_lengths(%rip), %rax	# insn_lengths, insn_lengths.129
	movl	-272(%rbp), %edx	# uid, tmp489
	movslq	%edx, %rdx	# tmp489, D.16569
	salq	$2, %rdx	#, D.16569
	leaq	(%rax,%rdx), %rcx	#, D.16572
	movq	-176(%rbp), %rax	# body, tmp490
	movzwl	(%rax), %eax	# body_213->code, D.16573
	cmpw	$45, %ax	#, D.16573
	sete	%al	#, D.16583
	movzbl	%al, %edx	# D.16583, D.16570
	movq	-176(%rbp), %rax	# body, tmp491
	movslq	%edx, %rdx	# D.16570, tmp492
	movq	8(%rax,%rdx,8), %rax	# body_213->fld[_295].rtvec, D.16580
	movl	(%rax), %edx	# _296->num_elem, D.16570
	.loc 1 1151 0
	movq	-176(%rbp), %rax	# body, tmp493
	movzbl	2(%rax), %eax	# body_213->mode, D.16579
	movzbl	%al, %eax	# D.16579, D.16570
	cltq
	movzbl	mode_size(%rax), %eax	# mode_size, D.16579
	movzbl	%al, %eax	# D.16579, D.16570
	imull	%edx, %eax	# D.16570, D.16570
	.loc 1 1149 0
	movl	%eax, (%rcx)	# D.16570, *_292
	.loc 1 1144 0
	jmp	.L118	#
.L122:
	.loc 1 1144 0 is_stmt 0 discriminator 2
	jmp	.L118	#
.L121:
	.loc 1 1154 0 is_stmt 1
	movq	-176(%rbp), %rax	# body, tmp495
	movzwl	(%rax), %eax	# body_213->code, D.16573
	cmpw	$40, %ax	#, D.16573
	je	.L123	#,
	.loc 1 1154 0 is_stmt 0 discriminator 1
	movq	-176(%rbp), %rax	# body, tmp496
	movq	%rax, %rdi	# tmp496,
	call	asm_noperands	#
	testl	%eax, %eax	# D.16570
	js	.L124	#,
.L123:
	.loc 1 1155 0 is_stmt 1
	movq	insn_lengths(%rip), %rax	# insn_lengths, insn_lengths.130
	movl	-272(%rbp), %edx	# uid, tmp497
	movslq	%edx, %rdx	# tmp497, D.16569
	salq	$2, %rdx	#, D.16569
	leaq	(%rax,%rdx), %r12	#, D.16572
	movq	-176(%rbp), %rax	# body, tmp498
	movq	%rax, %rdi	# tmp498,
	call	asm_insn_count	#
	movl	%eax, %ebx	#, D.16570
	movq	-224(%rbp), %rax	# insn, tmp499
	movq	%rax, %rdi	# tmp499,
	call	insn_default_length	#
	imull	%ebx, %eax	# D.16570, D.16570
	movl	%eax, (%r12)	# D.16570, *_282
	jmp	.L118	#
.L124:
	.loc 1 1156 0
	movq	-176(%rbp), %rax	# body, tmp500
	movzwl	(%rax), %eax	# body_213->code, D.16573
	cmpw	$24, %ax	#, D.16573
	jne	.L125	#,
.LBB14:
	.loc 1 1163 0
	movl	$0, -256(%rbp)	#, const_delay_slots
	.loc 1 1168 0
	movl	$0, -324(%rbp)	#, i
	jmp	.L126	#
.L133:
.LBB15:
	.loc 1 1170 0
	movq	-176(%rbp), %rax	# body, tmp501
	movq	8(%rax), %rax	# body_213->fld[0].rtvec, D.16580
	movl	-324(%rbp), %edx	# i, tmp503
	movslq	%edx, %rdx	# tmp503, tmp502
	movq	8(%rax,%rdx,8), %rax	# _223->elem, tmp504
	movq	%rax, -168(%rbp)	# tmp504, inner_insn
	.loc 1 1171 0
	movq	-168(%rbp), %rax	# inner_insn, tmp505
	movl	8(%rax), %eax	# inner_insn_224->fld[0].rtint, tmp506
	movl	%eax, -252(%rbp)	# tmp506, inner_uid
	.loc 1 1174 0
	movq	-176(%rbp), %rax	# body, tmp507
	movzwl	(%rax), %eax	# body_213->code, D.16573
	cmpw	$40, %ax	#, D.16573
	je	.L127	#,
	.loc 1 1175 0
	movq	-176(%rbp), %rax	# body, tmp508
	movq	8(%rax), %rax	# body_213->fld[0].rtvec, D.16580
	movl	-324(%rbp), %edx	# i, tmp510
	movslq	%edx, %rdx	# tmp510, tmp509
	movq	8(%rax,%rdx,8), %rax	# _227->elem, D.16578
	movq	32(%rax), %rax	# _228->fld[3].rtx, D.16578
	movq	%rax, %rdi	# D.16578,
	call	asm_noperands	#
	testl	%eax, %eax	# D.16570
	js	.L128	#,
.L127:
	.loc 1 1176 0
	movq	-168(%rbp), %rax	# inner_insn, tmp511
	movq	32(%rax), %rax	# inner_insn_224->fld[3].rtx, D.16578
	movq	%rax, %rdi	# D.16578,
	call	asm_insn_count	#
	movl	%eax, %ebx	#, D.16570
	.loc 1 1177 0
	movq	-168(%rbp), %rax	# inner_insn, tmp512
	movq	%rax, %rdi	# tmp512,
	call	insn_default_length	#
	.loc 1 1176 0
	imull	%ebx, %eax	# D.16570, tmp513
	movl	%eax, -320(%rbp)	# tmp513, inner_length
	jmp	.L129	#
.L128:
	.loc 1 1179 0
	movq	-168(%rbp), %rax	# inner_insn, tmp514
	movq	%rax, %rdi	# tmp514,
	call	insn_default_length	#
	movl	%eax, -320(%rbp)	# tmp515, inner_length
.L129:
	.loc 1 1181 0
	movq	insn_lengths(%rip), %rax	# insn_lengths, insn_lengths.131
	movl	-252(%rbp), %edx	# inner_uid, tmp516
	movslq	%edx, %rdx	# tmp516, D.16569
	salq	$2, %rdx	#, D.16569
	addq	%rax, %rdx	# insn_lengths.131, D.16572
	movl	-320(%rbp), %eax	# inner_length, tmp517
	movl	%eax, (%rdx)	# tmp517, *_239
	.loc 1 1182 0
	cmpl	$0, -256(%rbp)	#, const_delay_slots
	je	.L130	#,
	.loc 1 1184 0
	movl	-252(%rbp), %eax	# inner_uid, tmp518
	movslq	%eax, %rdx	# tmp518, D.16581
	movq	-184(%rbp), %rax	# varying_length, tmp519
	leaq	(%rdx,%rax), %rbx	#, D.16582
	.loc 1 1185 0
	movq	-168(%rbp), %rax	# inner_insn, tmp520
	movq	%rax, %rdi	# tmp520,
	call	insn_variable_length_p	#
	movb	%al, (%rbx)	# D.16574, *_241
	.loc 1 1184 0
	movzbl	(%rbx), %eax	# *_241, D.16574
	testb	%al, %al	# D.16574
	je	.L131	#,
	.loc 1 1186 0
	movl	-272(%rbp), %eax	# uid, tmp521
	movslq	%eax, %rdx	# tmp521, D.16581
	movq	-184(%rbp), %rax	# varying_length, tmp522
	addq	%rdx, %rax	# D.16581, D.16582
	movb	$1, (%rax)	#, *_246
.L131:
	.loc 1 1187 0
	movq	insn_addresses_(%rip), %rax	# insn_addresses_, insn_addresses_.132
	.loc 1 1188 0
	movq	insn_lengths(%rip), %rdx	# insn_lengths, insn_lengths.133
	movl	-272(%rbp), %ecx	# uid, tmp523
	movslq	%ecx, %rcx	# tmp523, D.16569
	salq	$2, %rcx	#, D.16569
	addq	%rcx, %rdx	# D.16569, D.16572
	movl	(%rdx), %ecx	# *_251, D.16570
	movl	insn_current_address(%rip), %edx	# insn_current_address, insn_current_address.134
	addl	%edx, %ecx	# insn_current_address.134, D.16570
	.loc 1 1187 0
	movl	-252(%rbp), %edx	# inner_uid, tmp525
	movslq	%edx, %rdx	# tmp525, tmp524
	addq	$8, %rdx	#, tmp526
	movl	%ecx, (%rax,%rdx,4)	# D.16570, insn_addresses_.132_247->data.i
	jmp	.L132	#
.L130:
	.loc 1 1191 0
	movl	-252(%rbp), %eax	# inner_uid, tmp527
	movslq	%eax, %rdx	# tmp527, D.16581
	movq	-184(%rbp), %rax	# varying_length, tmp528
	addq	%rdx, %rax	# D.16581, D.16582
	movb	$0, (%rax)	#, *_256
.L132:
	.loc 1 1192 0
	movq	insn_lengths(%rip), %rax	# insn_lengths, insn_lengths.135
	movl	-272(%rbp), %edx	# uid, tmp529
	movslq	%edx, %rdx	# tmp529, D.16569
	salq	$2, %rdx	#, D.16569
	addq	%rdx, %rax	# D.16569, D.16572
	movq	insn_lengths(%rip), %rdx	# insn_lengths, insn_lengths.136
	movl	-272(%rbp), %ecx	# uid, tmp530
	movslq	%ecx, %rcx	# tmp530, D.16569
	salq	$2, %rcx	#, D.16569
	addq	%rcx, %rdx	# D.16569, D.16572
	movl	(%rdx), %ecx	# *_264, D.16570
	movl	-320(%rbp), %edx	# inner_length, tmp531
	addl	%ecx, %edx	# D.16570, D.16570
	movl	%edx, (%rax)	# D.16570, *_260
.LBE15:
	.loc 1 1168 0
	addl	$1, -324(%rbp)	#, i
.L126:
	.loc 1 1168 0 is_stmt 0 discriminator 1
	movq	-176(%rbp), %rax	# body, tmp532
	movq	8(%rax), %rax	# body_213->fld[0].rtvec, D.16580
	movl	(%rax), %eax	# _221->num_elem, D.16570
	cmpl	-324(%rbp), %eax	# i, D.16570
	jg	.L133	#,
.LBE14:
	jmp	.L118	#
.L125:
	.loc 1 1195 0 is_stmt 1
	movq	-176(%rbp), %rax	# body, tmp533
	movzwl	(%rax), %eax	# body_213->code, D.16573
	cmpw	$48, %ax	#, D.16573
	je	.L118	#,
	.loc 1 1195 0 is_stmt 0 discriminator 1
	movq	-176(%rbp), %rax	# body, tmp534
	movzwl	(%rax), %eax	# body_213->code, D.16573
	cmpw	$49, %ax	#, D.16573
	je	.L118	#,
	.loc 1 1197 0 is_stmt 1
	movq	insn_lengths(%rip), %rax	# insn_lengths, insn_lengths.137
	movl	-272(%rbp), %edx	# uid, tmp535
	movslq	%edx, %rdx	# tmp535, D.16569
	salq	$2, %rdx	#, D.16569
	leaq	(%rax,%rdx), %rbx	#, D.16572
	movq	-224(%rbp), %rax	# insn, tmp536
	movq	%rax, %rdi	# tmp536,
	call	insn_default_length	#
	movl	%eax, (%rbx)	# D.16570, *_273
	.loc 1 1198 0
	movl	-272(%rbp), %eax	# uid, tmp537
	movslq	%eax, %rdx	# tmp537, D.16581
	movq	-184(%rbp), %rax	# varying_length, tmp538
	leaq	(%rdx,%rax), %rbx	#, D.16582
	movq	-224(%rbp), %rax	# insn, tmp539
	movq	%rax, %rdi	# tmp539,
	call	insn_variable_length_p	#
	movb	%al, (%rbx)	# D.16574, *_276
.L118:
	.loc 1 1114 0
	movq	insn_lengths(%rip), %rax	# insn_lengths, insn_lengths.138
	movl	-272(%rbp), %edx	# uid, tmp540
	movslq	%edx, %rdx	# tmp540, D.16569
	salq	$2, %rdx	#, D.16569
	addq	%rdx, %rax	# D.16569, D.16572
	movl	(%rax), %edx	# *_306, D.16570
	movl	insn_current_address(%rip), %eax	# insn_current_address, insn_current_address.139
	addl	%edx, %eax	# D.16570, insn_current_address.140
	movl	%eax, insn_current_address(%rip)	# insn_current_address.140, insn_current_address
	movq	-224(%rbp), %rax	# insn, tmp541
	movq	24(%rax), %rax	# insn_2->fld[2].rtx, tmp542
	movq	%rax, -224(%rbp)	# tmp542, insn
.L114:
	.loc 1 1112 0 discriminator 1
	cmpq	$0, -224(%rbp)	#, insn
	jne	.L134	#,
	.loc 1 1213 0
	jmp	.L135	#
.L156:
	.loc 1 1215 0
	movl	$0, -328(%rbp)	#, something_changed
	.loc 1 1216 0
	movl	$15, insn_current_align(%rip)	#, insn_current_align
	.loc 1 1217 0
	movl	$0, insn_current_address(%rip)	#, insn_current_address
	movq	-360(%rbp), %rax	# first, tmp543
	movq	%rax, -224(%rbp)	# tmp543, insn
	jmp	.L136	#
.L154:
.LBB16:
	.loc 1 1227 0
	movq	-224(%rbp), %rax	# insn, tmp544
	movl	8(%rax), %eax	# insn_3->fld[0].rtint, tmp545
	movl	%eax, -272(%rbp)	# tmp545, uid
	.loc 1 1229 0
	movq	-224(%rbp), %rax	# insn, tmp546
	movzwl	(%rax), %eax	# insn_3->code, D.16573
	cmpw	$36, %ax	#, D.16573
	jne	.L137	#,
.LBB17:
	.loc 1 1231 0
	movq	label_align(%rip), %rdx	# label_align, label_align.141
	movq	-224(%rbp), %rax	# insn, tmp547
	movl	48(%rax), %ecx	# insn_3->fld[5].rtint, D.16570
	movl	min_labelno(%rip), %eax	# min_labelno, min_labelno.142
	subl	%eax, %ecx	# min_labelno.142, D.16570
	movl	%ecx, %eax	# D.16570, D.16570
	cltq
	salq	$2, %rax	#, D.16569
	addq	%rdx, %rax	# label_align.141, D.16575
	movzwl	(%rax), %eax	# _321->alignment, D.16576
	cwtl
	movl	%eax, -248(%rbp)	# tmp548, log
	.loc 1 1232 0
	movl	insn_current_align(%rip), %eax	# insn_current_align, insn_current_align.143
	cmpl	%eax, -248(%rbp)	# insn_current_align.143, log
	jle	.L138	#,
.LBB18:
	.loc 1 1234 0
	movl	-248(%rbp), %eax	# log, tmp549
	movl	$1, %edx	#, tmp550
	movl	%eax, %ecx	# tmp549, tmp637
	sall	%cl, %edx	# tmp637, tmp551
	movl	%edx, %eax	# tmp551, tmp551
	movl	%eax, -244(%rbp)	# tmp551, align
	.loc 1 1235 0
	movl	insn_current_address(%rip), %edx	# insn_current_address, insn_current_address.144
	movl	-244(%rbp), %eax	# align, tmp552
	addl	%edx, %eax	# insn_current_address.144, D.16570
	leal	-1(%rax), %edx	#, D.16570
	movl	-244(%rbp), %eax	# align, tmp553
	negl	%eax	# D.16570
	andl	%edx, %eax	# D.16570, tmp554
	movl	%eax, -240(%rbp)	# tmp554, new_address
	.loc 1 1236 0
	movq	insn_lengths(%rip), %rax	# insn_lengths, insn_lengths.145
	movl	-272(%rbp), %edx	# uid, tmp555
	movslq	%edx, %rdx	# tmp555, D.16569
	salq	$2, %rdx	#, D.16569
	addq	%rdx, %rax	# D.16569, D.16572
	movl	insn_current_address(%rip), %edx	# insn_current_address, insn_current_address.146
	movl	-240(%rbp), %ecx	# new_address, tmp556
	subl	%edx, %ecx	# insn_current_address.146, D.16570
	movl	%ecx, %edx	# D.16570, D.16570
	movl	%edx, (%rax)	# D.16570, *_334
	.loc 1 1237 0
	movl	-248(%rbp), %eax	# log, tmp557
	movl	%eax, insn_current_align(%rip)	# tmp557, insn_current_align
	.loc 1 1238 0
	movl	-240(%rbp), %eax	# new_address, tmp558
	movl	%eax, insn_current_address(%rip)	# tmp558, insn_current_address
.LBE18:
	jmp	.L139	#
.L138:
	.loc 1 1241 0
	movq	insn_lengths(%rip), %rax	# insn_lengths, insn_lengths.147
	movl	-272(%rbp), %edx	# uid, tmp559
	movslq	%edx, %rdx	# tmp559, D.16569
	salq	$2, %rdx	#, D.16569
	addq	%rdx, %rax	# D.16569, D.16572
	movl	$0, (%rax)	#, *_340
.L139:
	.loc 1 1242 0
	movq	insn_addresses_(%rip), %rax	# insn_addresses_, insn_addresses_.148
	movl	insn_current_address(%rip), %edx	# insn_current_address, insn_current_address.149
	movl	-272(%rbp), %ecx	# uid, tmp561
	movslq	%ecx, %rcx	# tmp561, tmp560
	addq	$8, %rcx	#, tmp562
	movl	%edx, (%rax,%rcx,4)	# insn_current_address.149, insn_addresses_.148_341->data.i
	.loc 1 1243 0
	jmp	.L140	#
.L137:
.LBE17:
	.loc 1 1246 0
	movl	length_unit_log(%rip), %eax	# length_unit_log, tmp563
	movl	%eax, -236(%rbp)	# tmp563, length_align
	.loc 1 1247 0
	movl	insn_current_align(%rip), %eax	# insn_current_align, insn_current_align.150
	cmpl	%eax, -236(%rbp)	# insn_current_align.150, length_align
	jge	.L141	#,
	.loc 1 1248 0
	movl	-236(%rbp), %eax	# length_align, tmp564
	movl	%eax, insn_current_align(%rip)	# tmp564, insn_current_align
.L141:
	.loc 1 1250 0
	movq	insn_addresses_(%rip), %rax	# insn_addresses_, insn_addresses_.151
	movl	-272(%rbp), %edx	# uid, tmp566
	movslq	%edx, %rdx	# tmp566, tmp565
	addq	$8, %rdx	#, tmp567
	movl	(%rax,%rdx,4), %eax	# insn_addresses_.151_345->data.i, insn_last_address.152
	movl	%eax, insn_last_address(%rip)	# insn_last_address.152, insn_last_address
	.loc 1 1251 0
	movq	insn_addresses_(%rip), %rax	# insn_addresses_, insn_addresses_.153
	movl	insn_current_address(%rip), %edx	# insn_current_address, insn_current_address.154
	movl	-272(%rbp), %ecx	# uid, tmp569
	movslq	%ecx, %rcx	# tmp569, tmp568
	addq	$8, %rcx	#, tmp570
	movl	%edx, (%rax,%rcx,4)	# insn_current_address.154, insn_addresses_.153_347->data.i
	.loc 1 1366 0
	movl	-272(%rbp), %eax	# uid, tmp571
	movslq	%eax, %rdx	# tmp571, D.16581
	movq	-184(%rbp), %rax	# varying_length, tmp572
	addq	%rdx, %rax	# D.16581, D.16582
	movzbl	(%rax), %eax	# *_350, D.16574
	testb	%al, %al	# D.16574
	jne	.L142	#,
	.loc 1 1368 0
	movq	-224(%rbp), %rax	# insn, tmp573
	movzwl	(%rax), %eax	# insn_3->code, D.16573
	cmpw	$32, %ax	#, D.16573
	jne	.L143	#,
	.loc 1 1369 0
	movq	-224(%rbp), %rax	# insn, tmp574
	movq	32(%rax), %rax	# insn_3->fld[3].rtx, D.16578
	movzwl	(%rax), %eax	# _353->code, D.16573
	cmpw	$24, %ax	#, D.16573
	jne	.L143	#,
.LBB19:
	.loc 1 1373 0
	movq	-224(%rbp), %rax	# insn, tmp575
	movq	32(%rax), %rax	# insn_3->fld[3].rtx, tmp576
	movq	%rax, -176(%rbp)	# tmp576, body
	.loc 1 1374 0
	movl	$0, -312(%rbp)	#, i
	jmp	.L144	#
.L145:
.LBB20:
	.loc 1 1376 0 discriminator 2
	movq	-176(%rbp), %rax	# body, tmp577
	movq	8(%rax), %rax	# body_355->fld[0].rtvec, D.16580
	movl	-312(%rbp), %edx	# i, tmp579
	movslq	%edx, %rdx	# tmp579, tmp578
	movq	8(%rax,%rdx,8), %rax	# _359->elem, tmp580
	movq	%rax, -160(%rbp)	# tmp580, inner_insn
	.loc 1 1377 0 discriminator 2
	movq	-160(%rbp), %rax	# inner_insn, tmp581
	movl	8(%rax), %eax	# inner_insn_360->fld[0].rtint, tmp582
	movl	%eax, -232(%rbp)	# tmp582, inner_uid
	.loc 1 1379 0 discriminator 2
	movq	insn_addresses_(%rip), %rax	# insn_addresses_, insn_addresses_.155
	movl	insn_current_address(%rip), %edx	# insn_current_address, insn_current_address.156
	movl	-232(%rbp), %ecx	# inner_uid, tmp584
	movslq	%ecx, %rcx	# tmp584, tmp583
	addq	$8, %rcx	#, tmp585
	movl	%edx, (%rax,%rcx,4)	# insn_current_address.156, insn_addresses_.155_362->data.i
	.loc 1 1381 0 discriminator 2
	movq	insn_lengths(%rip), %rax	# insn_lengths, insn_lengths.157
	movl	-232(%rbp), %edx	# inner_uid, tmp586
	movslq	%edx, %rdx	# tmp586, D.16569
	salq	$2, %rdx	#, D.16569
	addq	%rdx, %rax	# D.16569, D.16572
	movl	(%rax), %edx	# *_367, D.16570
	movl	insn_current_address(%rip), %eax	# insn_current_address, insn_current_address.158
	addl	%edx, %eax	# D.16570, insn_current_address.159
	movl	%eax, insn_current_address(%rip)	# insn_current_address.159, insn_current_address
.LBE20:
	.loc 1 1374 0 discriminator 2
	addl	$1, -312(%rbp)	#, i
.L144:
	.loc 1 1374 0 is_stmt 0 discriminator 1
	movq	-176(%rbp), %rax	# body, tmp587
	movq	8(%rax), %rax	# body_355->fld[0].rtvec, D.16580
	movl	(%rax), %eax	# _357->num_elem, D.16570
	cmpl	-312(%rbp), %eax	# i, D.16570
	jg	.L145	#,
.LBE19:
	.loc 1 1370 0 is_stmt 1
	nop
	.loc 1 1387 0
	jmp	.L140	#
.L143:
	.loc 1 1385 0
	movq	insn_lengths(%rip), %rax	# insn_lengths, insn_lengths.160
	movl	-272(%rbp), %edx	# uid, tmp588
	movslq	%edx, %rdx	# tmp588, D.16569
	salq	$2, %rdx	#, D.16569
	addq	%rdx, %rax	# D.16569, D.16572
	movl	(%rax), %edx	# *_375, D.16570
	movl	insn_current_address(%rip), %eax	# insn_current_address, insn_current_address.161
	addl	%edx, %eax	# D.16570, insn_current_address.162
	movl	%eax, insn_current_address(%rip)	# insn_current_address.162, insn_current_address
	.loc 1 1387 0
	jmp	.L140	#
.L142:
	.loc 1 1390 0
	movq	-224(%rbp), %rax	# insn, tmp589
	movzwl	(%rax), %eax	# insn_3->code, D.16573
	cmpw	$32, %ax	#, D.16573
	jne	.L147	#,
	.loc 1 1390 0 is_stmt 0 discriminator 1
	movq	-224(%rbp), %rax	# insn, tmp590
	movq	32(%rax), %rax	# insn_3->fld[3].rtx, D.16578
	movzwl	(%rax), %eax	# _380->code, D.16573
	cmpw	$24, %ax	#, D.16573
	jne	.L147	#,
.LBB21:
	.loc 1 1394 0 is_stmt 1
	movq	-224(%rbp), %rax	# insn, tmp591
	movq	32(%rax), %rax	# insn_3->fld[3].rtx, tmp592
	movq	%rax, -176(%rbp)	# tmp592, body
	.loc 1 1395 0
	movl	$0, -316(%rbp)	#, new_length
	.loc 1 1396 0
	movl	$0, -308(%rbp)	#, i
	jmp	.L148	#
.L152:
.LBB22:
	.loc 1 1398 0
	movq	-176(%rbp), %rax	# body, tmp593
	movq	8(%rax), %rax	# body_382->fld[0].rtvec, D.16580
	movl	-308(%rbp), %edx	# i, tmp595
	movslq	%edx, %rdx	# tmp595, tmp594
	movq	8(%rax,%rdx,8), %rax	# _387->elem, tmp596
	movq	%rax, -152(%rbp)	# tmp596, inner_insn
	.loc 1 1399 0
	movq	-152(%rbp), %rax	# inner_insn, tmp597
	movl	8(%rax), %eax	# inner_insn_388->fld[0].rtint, tmp598
	movl	%eax, -228(%rbp)	# tmp598, inner_uid
	.loc 1 1402 0
	movq	insn_addresses_(%rip), %rax	# insn_addresses_, insn_addresses_.163
	movl	insn_current_address(%rip), %edx	# insn_current_address, insn_current_address.164
	movl	-228(%rbp), %ecx	# inner_uid, tmp600
	movslq	%ecx, %rcx	# tmp600, tmp599
	addq	$8, %rcx	#, tmp601
	movl	%edx, (%rax,%rcx,4)	# insn_current_address.164, insn_addresses_.163_390->data.i
	.loc 1 1406 0
	movl	-228(%rbp), %eax	# inner_uid, tmp602
	movslq	%eax, %rdx	# tmp602, D.16581
	movq	-184(%rbp), %rax	# varying_length, tmp603
	addq	%rdx, %rax	# D.16581, D.16582
	movzbl	(%rax), %eax	# *_393, D.16574
	testb	%al, %al	# D.16574
	jne	.L149	#,
	.loc 1 1407 0
	movq	insn_lengths(%rip), %rax	# insn_lengths, insn_lengths.165
	movl	-228(%rbp), %edx	# inner_uid, tmp604
	movslq	%edx, %rdx	# tmp604, D.16569
	salq	$2, %rdx	#, D.16569
	addq	%rdx, %rax	# D.16569, D.16572
	movl	(%rax), %eax	# *_398, tmp605
	movl	%eax, -304(%rbp)	# tmp605, inner_length
	jmp	.L150	#
.L149:
	.loc 1 1409 0
	movq	-152(%rbp), %rax	# inner_insn, tmp606
	movq	%rax, %rdi	# tmp606,
	call	insn_current_length	#
	movl	%eax, -304(%rbp)	# tmp607, inner_length
.L150:
	.loc 1 1411 0
	movq	insn_lengths(%rip), %rax	# insn_lengths, insn_lengths.166
	movl	-228(%rbp), %edx	# inner_uid, tmp608
	movslq	%edx, %rdx	# tmp608, D.16569
	salq	$2, %rdx	#, D.16569
	addq	%rdx, %rax	# D.16569, D.16572
	movl	(%rax), %eax	# *_404, D.16570
	cmpl	-304(%rbp), %eax	# inner_length, D.16570
	je	.L151	#,
	.loc 1 1413 0
	movq	insn_lengths(%rip), %rax	# insn_lengths, insn_lengths.167
	movl	-228(%rbp), %edx	# inner_uid, tmp609
	movslq	%edx, %rdx	# tmp609, D.16569
	salq	$2, %rdx	#, D.16569
	addq	%rax, %rdx	# insn_lengths.167, D.16572
	movl	-304(%rbp), %eax	# inner_length, tmp610
	movl	%eax, (%rdx)	# tmp610, *_409
	.loc 1 1414 0
	movl	$1, -328(%rbp)	#, something_changed
.L151:
	.loc 1 1416 0
	movq	insn_lengths(%rip), %rax	# insn_lengths, insn_lengths.168
	movl	-228(%rbp), %edx	# inner_uid, tmp611
	movslq	%edx, %rdx	# tmp611, D.16569
	salq	$2, %rdx	#, D.16569
	addq	%rdx, %rax	# D.16569, D.16572
	movl	(%rax), %edx	# *_414, D.16570
	movl	insn_current_address(%rip), %eax	# insn_current_address, insn_current_address.169
	addl	%edx, %eax	# D.16570, insn_current_address.170
	movl	%eax, insn_current_address(%rip)	# insn_current_address.170, insn_current_address
	.loc 1 1417 0
	movl	-304(%rbp), %eax	# inner_length, tmp612
	addl	%eax, -316(%rbp)	# tmp612, new_length
.LBE22:
	.loc 1 1396 0
	addl	$1, -308(%rbp)	#, i
.L148:
	.loc 1 1396 0 is_stmt 0 discriminator 1
	movq	-176(%rbp), %rax	# body, tmp613
	movq	8(%rax), %rax	# body_382->fld[0].rtvec, D.16580
	movl	(%rax), %eax	# _385->num_elem, D.16570
	cmpl	-308(%rbp), %eax	# i, D.16570
	jg	.L152	#,
.LBE21:
	.loc 1 1391 0 is_stmt 1
	jmp	.L153	#
.L147:
	.loc 1 1422 0
	movq	-224(%rbp), %rax	# insn, tmp614
	movq	%rax, %rdi	# tmp614,
	call	insn_current_length	#
	movl	%eax, -316(%rbp)	# tmp615, new_length
	.loc 1 1423 0
	movl	insn_current_address(%rip), %edx	# insn_current_address, insn_current_address.171
	movl	-316(%rbp), %eax	# new_length, tmp616
	addl	%edx, %eax	# insn_current_address.171, insn_current_address.172
	movl	%eax, insn_current_address(%rip)	# insn_current_address.172, insn_current_address
.L153:
	.loc 1 1433 0
	movq	insn_lengths(%rip), %rax	# insn_lengths, insn_lengths.173
	movl	-272(%rbp), %edx	# uid, tmp617
	movslq	%edx, %rdx	# tmp617, D.16569
	salq	$2, %rdx	#, D.16569
	addq	%rdx, %rax	# D.16569, D.16572
	movl	(%rax), %eax	# *_426, D.16570
	cmpl	-316(%rbp), %eax	# new_length, D.16570
	je	.L140	#,
	.loc 1 1435 0
	movq	insn_lengths(%rip), %rax	# insn_lengths, insn_lengths.174
	movl	-272(%rbp), %edx	# uid, tmp618
	movslq	%edx, %rdx	# tmp618, D.16569
	salq	$2, %rdx	#, D.16569
	addq	%rax, %rdx	# insn_lengths.174, D.16572
	movl	-316(%rbp), %eax	# new_length, tmp619
	movl	%eax, (%rdx)	# tmp619, *_431
	.loc 1 1436 0
	movl	$1, -328(%rbp)	#, something_changed
.L140:
.LBE16:
	.loc 1 1219 0
	movq	-224(%rbp), %rax	# insn, tmp620
	movq	24(%rax), %rax	# insn_3->fld[2].rtx, tmp621
	movq	%rax, -224(%rbp)	# tmp621, insn
.L136:
	.loc 1 1217 0 discriminator 1
	cmpq	$0, -224(%rbp)	#, insn
	jne	.L154	#,
	.loc 1 1440 0
	movl	optimize(%rip), %eax	# optimize, optimize.175
	testl	%eax, %eax	# optimize.175
	jne	.L135	#,
	.loc 1 1441 0
	jmp	.L155	#
.L135:
	.loc 1 1213 0 discriminator 1
	cmpl	$0, -328(%rbp)	#, something_changed
	jne	.L156	#,
.L155:
	.loc 1 1444 0
	movq	-184(%rbp), %rax	# varying_length, tmp622
	movq	%rax, %rdi	# tmp622,
	call	free	#
	.loc 1 1447 0
	addq	$352, %rsp	#,
	popq	%rbx	#
	popq	%r12	#
	popq	%rbp	#
	.cfi_def_cfa 7, 8
	ret
	.cfi_endproc
.LFE15:
	.size	shorten_branches, .-shorten_branches
	.type	asm_insn_count, @function
asm_insn_count:
.LFB16:
	.loc 1 1457 0
	.cfi_startproc
	pushq	%rbp	#
	.cfi_def_cfa_offset 16
	.cfi_offset 6, -16
	movq	%rsp, %rbp	#,
	.cfi_def_cfa_register 6
	subq	$32, %rsp	#,
	movq	%rdi, -24(%rbp)	# body, body
	.loc 1 1459 0
	movl	$1, -12(%rbp)	#, count
	.loc 1 1461 0
	movq	-24(%rbp), %rax	# body, tmp65
	movzwl	(%rax), %eax	# body_6(D)->code, D.16585
	cmpw	$40, %ax	#, D.16585
	jne	.L158	#,
	.loc 1 1462 0
	movq	-24(%rbp), %rax	# body, tmp66
	movq	8(%rax), %rax	# body_6(D)->fld[0].rtstr, tmp67
	movq	%rax, -8(%rbp)	# tmp67, template
	.loc 1 1466 0
	jmp	.L160	#
.L158:
	.loc 1 1464 0
	movq	-24(%rbp), %rax	# body, tmp68
	movl	$0, %r8d	#,
	movl	$0, %ecx	#,
	movl	$0, %edx	#,
	movl	$0, %esi	#,
	movq	%rax, %rdi	# tmp68,
	call	decode_asm_operands	#
	movq	%rax, -8(%rbp)	# tmp69, template
	.loc 1 1466 0
	jmp	.L160	#
.L163:
	.loc 1 1467 0
	movq	-8(%rbp), %rax	# template, tmp70
	movzbl	(%rax), %eax	# *template_2, D.16586
	cmpb	$59, %al	#, D.16586
	je	.L161	#,
	.loc 1 1467 0 is_stmt 0 discriminator 1
	movq	-8(%rbp), %rax	# template, tmp71
	movzbl	(%rax), %eax	# *template_2, D.16586
	cmpb	$10, %al	#, D.16586
	jne	.L162	#,
.L161:
	.loc 1 1468 0 is_stmt 1
	addl	$1, -12(%rbp)	#, count
.L162:
	.loc 1 1466 0
	addq	$1, -8(%rbp)	#, template
.L160:
	.loc 1 1466 0 is_stmt 0 discriminator 1
	movq	-8(%rbp), %rax	# template, tmp72
	movzbl	(%rax), %eax	# *template_2, D.16586
	testb	%al, %al	# D.16586
	jne	.L163	#,
	.loc 1 1470 0 is_stmt 1
	movl	-12(%rbp), %eax	# count, D.16587
	.loc 1 1471 0
	leave
	.cfi_def_cfa 7, 8
	ret
	.cfi_endproc
.LFE16:
	.size	asm_insn_count, .-asm_insn_count
	.globl	final_start_function
	.type	final_start_function, @function
final_start_function:
.LFB17:
	.loc 1 1489 0
	.cfi_startproc
	pushq	%rbp	#
	.cfi_def_cfa_offset 16
	.cfi_offset 6, -16
	movq	%rsp, %rbp	#,
	.cfi_def_cfa_register 6
	pushq	%rbx	#
	subq	$40, %rsp	#,
	.cfi_offset 3, -24
	movq	%rdi, -24(%rbp)	# first, first
	movq	%rsi, -32(%rbp)	# file, file
	movl	%edx, -36(%rbp)	# optimize, optimize
	.loc 1 1490 0
	movl	$0, block_depth(%rip)	#, block_depth
	.loc 1 1492 0
	movq	$0, this_is_asm_operands(%rip)	#, this_is_asm_operands
	.loc 1 1507 0
	movq	-24(%rbp), %rax	# first, tmp76
	movl	40(%rax), %eax	# first_1(D)->fld[4].rtint, D.16588
	cmpl	$-99, %eax	#, D.16588
	je	.L166	#,
	.loc 1 1508 0
	movq	-24(%rbp), %rax	# first, tmp77
	movq	%rax, %rdi	# tmp77,
	call	notice_source_line	#
.L166:
	.loc 1 1509 0
	movl	last_linenum(%rip), %eax	# last_linenum, last_linenum.176
	movl	%eax, high_function_linenum(%rip)	# last_linenum.176, high_function_linenum
	movl	high_function_linenum(%rip), %eax	# high_function_linenum, high_function_linenum.177
	movl	%eax, high_block_linenum(%rip)	# high_function_linenum.177, high_block_linenum
	.loc 1 1511 0
	movq	debug_hooks(%rip), %rax	# debug_hooks, debug_hooks.178
	movq	80(%rax), %rax	# debug_hooks.178_5->begin_prologue, D.16589
	movq	last_filename(%rip), %rcx	# last_filename, last_filename.179
	movl	last_linenum(%rip), %edx	# last_linenum, last_linenum.180
	movq	%rcx, %rsi	# last_filename.179,
	movl	%edx, %edi	# last_linenum.181,
	call	*%rax	# D.16589
	.loc 1 1514 0
	movl	write_symbols(%rip), %eax	# write_symbols, write_symbols.182
	cmpl	$4, %eax	#, write_symbols.182
	je	.L167	#,
	.loc 1 1514 0 is_stmt 0 discriminator 1
	movl	write_symbols(%rip), %eax	# write_symbols, write_symbols.183
	cmpl	$7, %eax	#, write_symbols.183
	je	.L167	#,
	.loc 1 1515 0 is_stmt 1
	movl	$0, %esi	#,
	movl	$0, %edi	#,
	call	dwarf2out_begin_prologue	#
.L167:
	.loc 1 1531 0
	call	dwarf2out_do_frame	#
	testl	%eax, %eax	# D.16588
	je	.L168	#,
	.loc 1 1532 0
	movl	$0, %edi	#,
	call	dwarf2out_frame_debug	#
.L168:
	.loc 1 1537 0
	movl	write_symbols(%rip), %eax	# write_symbols, write_symbols.184
	testl	%eax, %eax	# write_symbols.184
	je	.L169	#,
	.loc 1 1539 0
	call	remove_unnecessary_notes	#
	.loc 1 1540 0
	call	reorder_blocks	#
	.loc 1 1541 0
	movq	current_function_decl(%rip), %rax	# current_function_decl, current_function_decl.185
	movq	%rax, %rdi	# current_function_decl.185,
	call	number_blocks	#
	.loc 1 1545 0
	movq	current_function_decl(%rip), %rax	# current_function_decl, current_function_decl.186
	movq	104(%rax), %rax	# current_function_decl.186_15->decl.initial, D.16590
	movzbl	17(%rax), %edx	#, tmp80
	orl	$64, %edx	#, tmp81
	movb	%dl, 17(%rax)	# tmp81,
.L169:
	.loc 1 1549 0
	movq	targetm+96(%rip), %rbx	# targetm.asm_out.function_prologue, D.16591
	call	get_frame_size	#
	movq	%rax, %rdx	#, D.16592
	movq	-32(%rbp), %rax	# file, tmp82
	movq	%rdx, %rsi	# D.16592,
	movq	%rax, %rdi	# tmp82,
	call	*%rbx	# D.16591
	.loc 1 1563 0
	addq	$40, %rsp	#,
	popq	%rbx	#
	popq	%rbp	#
	.cfi_def_cfa 7, 8
	ret
	.cfi_endproc
.LFE17:
	.size	final_start_function, .-final_start_function
	.type	profile_after_prologue, @function
profile_after_prologue:
.LFB18:
	.loc 1 1568 0
	.cfi_startproc
	pushq	%rbp	#
	.cfi_def_cfa_offset 16
	.cfi_offset 6, -16
	movq	%rsp, %rbp	#,
	.cfi_def_cfa_register 6
	subq	$16, %rsp	#,
	movq	%rdi, -8(%rbp)	# file, file
	.loc 1 1570 0
	movq	cfun(%rip), %rax	# cfun, cfun.187
	movzbl	425(%rax), %eax	# *cfun.187_1, D.16593
	andl	$64, %eax	#, D.16593
	testb	%al, %al	# D.16593
	je	.L170	#,
	.loc 1 1571 0
	movq	-8(%rbp), %rax	# file, tmp62
	movq	%rax, %rdi	# tmp62,
	call	profile_function	#
.L170:
	.loc 1 1573 0
	leave
	.cfi_def_cfa 7, 8
	ret
	.cfi_endproc
.LFE18:
	.size	profile_after_prologue, .-profile_after_prologue
	.section	.rodata
.LC11:
	.string	"\tpush{l}\t%%e%s\n"
.LC12:
	.string	"\tcall\t*mcount@PLT\n"
.LC13:
	.string	"\tcall\t*mcount@GOT(%%ebx)\n"
.LC14:
	.string	"\tcall\tmcount\n"
.LC15:
	.string	"\tpop{l}\t%%e%s\n"
	.text
	.type	profile_function, @function
profile_function:
.LFB19:
	.loc 1 1578 0
	.cfi_startproc
	pushq	%rbp	#
	.cfi_def_cfa_offset 16
	.cfi_offset 6, -16
	movq	%rsp, %rbp	#,
	.cfi_def_cfa_register 6
	subq	$32, %rsp	#,
	movq	%rdi, -24(%rbp)	# file, file
	.loc 1 1587 0
	movq	cfun(%rip), %rax	# cfun, cfun.188
	movzbl	424(%rax), %eax	# *cfun.188_3, tmp76
	shrb	$3, %al	#, D.16594
	andl	$1, %eax	#, D.16594
	movzbl	%al, %eax	# D.16594, tmp77
	movl	%eax, -4(%rbp)	# tmp77, cxt
	.loc 1 1598 0
	movq	current_function_decl(%rip), %rax	# current_function_decl, current_function_decl.189
	movq	%rax, %rdi	# current_function_decl.189,
	call	function_section	#
	.loc 1 1617 0
	cmpl	$0, -4(%rbp)	#, cxt
	je	.L173	#,
	.loc 1 1619 0
	movl	target_flags(%rip), %eax	# target_flags, target_flags.191
	andl	$33554432, %eax	#, D.16595
	testl	%eax, %eax	# D.16595
	je	.L174	#,
	.loc 1 1619 0 is_stmt 0 discriminator 1
	movl	$39, %eax	#, iftmp.190
	jmp	.L175	#
.L174:
	.loc 1 1619 0 discriminator 2
	movl	$2, %eax	#, iftmp.190
.L175:
	.loc 1 1619 0 discriminator 3
	cltq
	movq	reg_names(,%rax,8), %rdx	# reg_names, D.16596
	movq	-24(%rbp), %rax	# file, tmp79
	movl	$.LC11, %esi	#,
	movq	%rax, %rdi	# tmp79,
	movl	$0, %eax	#,
	call	asm_fprintf	#
.L173:
	.loc 1 1624 0 is_stmt 1
	movl	target_flags(%rip), %eax	# target_flags, target_flags.192
	andl	$33554432, %eax	#, D.16595
	testl	%eax, %eax	# D.16595
	je	.L176	#,
	.loc 1 1624 0 is_stmt 0 discriminator 1
	movl	flag_pic(%rip), %eax	# flag_pic, flag_pic.193
	testl	%eax, %eax	# flag_pic.193
	je	.L176	#,
	movq	-24(%rbp), %rax	# file, tmp80
	movq	%rax, %rcx	# tmp80,
	movl	$18, %edx	#,
	movl	$1, %esi	#,
	movl	$.LC12, %edi	#,
	call	fwrite	#
	jmp	.L177	#
.L176:
	.loc 1 1624 0 discriminator 2
	movl	flag_pic(%rip), %eax	# flag_pic, flag_pic.194
	testl	%eax, %eax	# flag_pic.194
	je	.L178	#,
	.loc 1 1624 0 discriminator 1
	movq	-24(%rbp), %rax	# file, tmp81
	movl	$.LC13, %esi	#,
	movq	%rax, %rdi	# tmp81,
	movl	$0, %eax	#,
	call	fprintf	#
	jmp	.L177	#
.L178:
	.loc 1 1624 0 discriminator 2
	movq	-24(%rbp), %rax	# file, tmp82
	movq	%rax, %rcx	# tmp82,
	movl	$13, %edx	#,
	movl	$1, %esi	#,
	movl	$.LC14, %edi	#,
	call	fwrite	#
.L177:
	.loc 1 1631 0 is_stmt 1
	cmpl	$0, -4(%rbp)	#, cxt
	je	.L172	#,
	.loc 1 1633 0
	movl	target_flags(%rip), %eax	# target_flags, target_flags.196
	andl	$33554432, %eax	#, D.16595
	testl	%eax, %eax	# D.16595
	je	.L180	#,
	.loc 1 1633 0 is_stmt 0 discriminator 1
	movl	$39, %eax	#, iftmp.195
	jmp	.L181	#
.L180:
	.loc 1 1633 0 discriminator 2
	movl	$2, %eax	#, iftmp.195
.L181:
	.loc 1 1633 0 discriminator 3
	cltq
	movq	reg_names(,%rax,8), %rdx	# reg_names, D.16596
	movq	-24(%rbp), %rax	# file, tmp84
	movl	$.LC15, %esi	#,
	movq	%rax, %rdi	# tmp84,
	movl	$0, %eax	#,
	call	asm_fprintf	#
.L172:
	.loc 1 1649 0 is_stmt 1
	leave
	.cfi_def_cfa 7, 8
	ret
	.cfi_endproc
.LFE19:
	.size	profile_function, .-profile_function
	.globl	final_end_function
	.type	final_end_function, @function
final_end_function:
.LFB20:
	.loc 1 1657 0
	.cfi_startproc
	pushq	%rbp	#
	.cfi_def_cfa_offset 16
	.cfi_offset 6, -16
	movq	%rsp, %rbp	#,
	.cfi_def_cfa_register 6
	pushq	%rbx	#
	subq	$8, %rsp	#,
	.cfi_offset 3, -24
	.loc 1 1658 0
	call	app_disable	#
	.loc 1 1660 0
	movq	debug_hooks(%rip), %rax	# debug_hooks, debug_hooks.197
	movq	112(%rax), %rax	# debug_hooks.197_1->end_function, D.16602
	movl	high_function_linenum(%rip), %edx	# high_function_linenum, high_function_linenum.198
	movl	%edx, %edi	# high_function_linenum.199,
	call	*%rax	# D.16602
	.loc 1 1664 0
	movq	targetm+120(%rip), %rbx	# targetm.asm_out.function_epilogue, D.16603
	call	get_frame_size	#
	movq	%rax, %rdx	#, D.16604
	movq	asm_out_file(%rip), %rax	# asm_out_file, asm_out_file.200
	movq	%rdx, %rsi	# D.16604,
	movq	%rax, %rdi	# asm_out_file.200,
	call	*%rbx	# D.16603
	.loc 1 1667 0
	movq	debug_hooks(%rip), %rax	# debug_hooks, debug_hooks.201
	movq	96(%rax), %rax	# debug_hooks.201_8->end_epilogue, D.16605
	call	*%rax	# D.16605
	.loc 1 1670 0
	movl	write_symbols(%rip), %eax	# write_symbols, write_symbols.202
	cmpl	$4, %eax	#, write_symbols.202
	je	.L182	#,
	.loc 1 1670 0 is_stmt 0 discriminator 1
	movl	write_symbols(%rip), %eax	# write_symbols, write_symbols.203
	cmpl	$7, %eax	#, write_symbols.203
	je	.L182	#,
	.loc 1 1671 0 is_stmt 1
	call	dwarf2out_do_frame	#
	testl	%eax, %eax	# D.16606
	je	.L182	#,
	.loc 1 1672 0
	call	dwarf2out_end_epilogue	#
.L182:
	.loc 1 1674 0
	addq	$8, %rsp	#,
	popq	%rbx	#
	popq	%rbp	#
	.cfi_def_cfa 7, 8
	ret
	.cfi_endproc
.LFE20:
	.size	final_end_function, .-final_end_function
	.globl	final
	.type	final, @function
final:
.LFB21:
	.loc 1 1693 0
	.cfi_startproc
	pushq	%rbp	#
	.cfi_def_cfa_offset 16
	.cfi_offset 6, -16
	movq	%rsp, %rbp	#,
	.cfi_def_cfa_register 6
	subq	$48, %rsp	#,
	movq	%rdi, -24(%rbp)	# first, first
	movq	%rsi, -32(%rbp)	# file, file
	movl	%edx, -36(%rbp)	# optimize, optimize
	movl	%ecx, -40(%rbp)	# prescan, prescan
	.loc 1 1695 0
	movl	$0, -16(%rbp)	#, max_line
	.loc 1 1696 0
	movl	$0, -12(%rbp)	#, max_uid
	.loc 1 1698 0
	movq	$0, last_ignored_compare(%rip)	#, last_ignored_compare
	.loc 1 1699 0
	movl	$1, new_block(%rip)	#, new_block
	.loc 1 1729 0
	movq	-24(%rbp), %rax	# first, tmp80
	movq	%rax, -8(%rbp)	# tmp80, insn
	jmp	.L185	#
.L187:
	.loc 1 1730 0
	movq	-8(%rbp), %rax	# insn, tmp81
	movzwl	(%rax), %eax	# insn_1->code, D.16607
	cmpw	$37, %ax	#, D.16607
	jne	.L186	#,
	.loc 1 1730 0 is_stmt 0 discriminator 1
	movq	-8(%rbp), %rax	# insn, tmp82
	movl	40(%rax), %eax	# insn_1->fld[4].rtint, D.16608
	cmpl	-16(%rbp), %eax	# max_line, D.16608
	jle	.L186	#,
	.loc 1 1731 0 is_stmt 1
	movq	-8(%rbp), %rax	# insn, tmp83
	movl	40(%rax), %eax	# insn_1->fld[4].rtint, tmp84
	movl	%eax, -16(%rbp)	# tmp84, max_line
.L186:
	.loc 1 1729 0
	movq	-8(%rbp), %rax	# insn, tmp85
	movq	24(%rax), %rax	# insn_1->fld[2].rtx, tmp86
	movq	%rax, -8(%rbp)	# tmp86, insn
.L185:
	.loc 1 1729 0 is_stmt 0 discriminator 1
	cmpq	$0, -8(%rbp)	#, insn
	jne	.L187	#,
	.loc 1 1734 0 is_stmt 1
	movl	-16(%rbp), %eax	# max_line, tmp87
	addl	$1, %eax	#, D.16608
	cltq
	movl	$1, %esi	#,
	movq	%rax, %rdi	# D.16609,
	call	xcalloc	#
	movq	%rax, line_note_exists(%rip)	# line_note_exists.204, line_note_exists
	.loc 1 1736 0
	movq	-24(%rbp), %rax	# first, tmp89
	movq	%rax, -8(%rbp)	# tmp89, insn
	jmp	.L188	#
.L191:
	.loc 1 1738 0
	movq	-8(%rbp), %rax	# insn, tmp90
	movl	8(%rax), %eax	# insn_2->fld[0].rtint, D.16608
	cmpl	-12(%rbp), %eax	# max_uid, D.16608
	jle	.L189	#,
	.loc 1 1739 0
	movq	-8(%rbp), %rax	# insn, tmp91
	movl	8(%rax), %eax	# insn_2->fld[0].rtint, tmp92
	movl	%eax, -12(%rbp)	# tmp92, max_uid
.L189:
	.loc 1 1740 0
	movq	-8(%rbp), %rax	# insn, tmp93
	movzwl	(%rax), %eax	# insn_2->code, D.16607
	cmpw	$37, %ax	#, D.16607
	jne	.L190	#,
	.loc 1 1740 0 is_stmt 0 discriminator 1
	movq	-8(%rbp), %rax	# insn, tmp94
	movl	40(%rax), %eax	# insn_2->fld[4].rtint, D.16608
	testl	%eax, %eax	# D.16608
	jle	.L190	#,
	.loc 1 1741 0 is_stmt 1
	movq	line_note_exists(%rip), %rdx	# line_note_exists, line_note_exists.205
	movq	-8(%rbp), %rax	# insn, tmp95
	movl	40(%rax), %eax	# insn_2->fld[4].rtint, D.16608
	cltq
	addq	%rdx, %rax	# line_note_exists.205, D.16611
	movb	$1, (%rax)	#, *_27
.L190:
	.loc 1 1736 0
	movq	-8(%rbp), %rax	# insn, tmp96
	movq	24(%rax), %rax	# insn_2->fld[2].rtx, tmp97
	movq	%rax, -8(%rbp)	# tmp97, insn
.L188:
	.loc 1 1736 0 is_stmt 0 discriminator 1
	cmpq	$0, -8(%rbp)	#, insn
	jne	.L191	#,
	.loc 1 1756 0 is_stmt 1
	call	init_recog	#
	.loc 1 1761 0
	movq	-24(%rbp), %rax	# first, tmp98
	movq	24(%rax), %rax	# first_10(D)->fld[2].rtx, tmp99
	movq	%rax, -8(%rbp)	# tmp99, insn
	jmp	.L192	#
.L195:
	.loc 1 1764 0
	movq	-8(%rbp), %rax	# insn, tmp100
	movl	8(%rax), %eax	# insn_3->fld[0].rtint, D.16608
	movl	%eax, %edx	# D.16612, D.16609
	movq	insn_addresses_(%rip), %rax	# insn_addresses_, insn_addresses_.206
	movq	(%rax), %rax	# insn_addresses_.206_33->num_elements, D.16609
	cmpq	%rax, %rdx	# D.16609, D.16609
	jb	.L193	#,
	.loc 1 1770 0
	movl	$-1, insn_current_address(%rip)	#, insn_current_address
	jmp	.L194	#
.L193:
	.loc 1 1778 0
	movq	insn_addresses_(%rip), %rax	# insn_addresses_, insn_addresses_.207
	movq	-8(%rbp), %rdx	# insn, tmp101
	movl	8(%rdx), %edx	# insn_3->fld[0].rtint, D.16608
	movslq	%edx, %rdx	# D.16608, tmp102
	addq	$8, %rdx	#, tmp103
	movl	(%rax,%rdx,4), %eax	# insn_addresses_.207_35->data.i, insn_current_address.208
	movl	%eax, insn_current_address(%rip)	# insn_current_address.208, insn_current_address
.L194:
	.loc 1 1781 0
	movl	-40(%rbp), %ecx	# prescan, tmp104
	movl	-36(%rbp), %edx	# optimize, tmp105
	movq	-32(%rbp), %rsi	# file, tmp106
	movq	-8(%rbp), %rax	# insn, tmp107
	movl	$0, %r8d	#,
	movq	%rax, %rdi	# tmp107,
	call	final_scan_insn	#
	movq	%rax, -8(%rbp)	# tmp108, insn
.L192:
	.loc 1 1761 0 discriminator 1
	cmpq	$0, -8(%rbp)	#, insn
	jne	.L195	#,
	.loc 1 1784 0
	movq	line_note_exists(%rip), %rax	# line_note_exists, line_note_exists.209
	movq	%rax, %rdi	# line_note_exists.209,
	call	free	#
	.loc 1 1785 0
	movq	$0, line_note_exists(%rip)	#, line_note_exists
	.loc 1 1786 0
	leave
	.cfi_def_cfa 7, 8
	ret
	.cfi_endproc
.LFE21:
	.size	final, .-final
	.globl	get_insn_template
	.type	get_insn_template, @function
get_insn_template:
.LFB22:
	.loc 1 1792 0
	.cfi_startproc
	pushq	%rbp	#
	.cfi_def_cfa_offset 16
	.cfi_offset 6, -16
	movq	%rsp, %rbp	#,
	.cfi_def_cfa_register 6
	subq	$32, %rsp	#,
	movl	%edi, -20(%rbp)	# code, code
	movq	%rsi, -32(%rbp)	# insn, insn
	.loc 1 1793 0
	movl	-20(%rbp), %eax	# code, tmp69
	movslq	%eax, %rdx	# tmp69, tmp68
	movq	%rdx, %rax	# tmp68, tmp70
	salq	$2, %rax	#, tmp70
	addq	%rdx, %rax	# tmp68, tmp70
	salq	$3, %rax	#, tmp71
	addq	$insn_data+8, %rax	#, tmp72
	movq	(%rax), %rax	# insn_data[code_2(D)].output, tmp73
	movq	%rax, -8(%rbp)	# tmp73, output
	.loc 1 1794 0
	movl	-20(%rbp), %eax	# code, tmp75
	movslq	%eax, %rdx	# tmp75, tmp74
	movq	%rdx, %rax	# tmp74, tmp76
	salq	$2, %rax	#, tmp76
	addq	%rdx, %rax	# tmp74, tmp76
	salq	$3, %rax	#, tmp77
	addq	$insn_data+32, %rax	#, tmp78
	movzbl	3(%rax), %eax	# insn_data[code_2(D)].output_format, D.16614
	movsbl	%al, %eax	# D.16614, D.16615
	cmpl	$2, %eax	#, D.16615
	je	.L198	#,
	cmpl	$3, %eax	#, D.16615
	je	.L199	#,
	cmpl	$1, %eax	#, D.16615
	jne	.L203	#,
	.loc 1 1797 0
	movq	-8(%rbp), %rax	# output, D.16613
	jmp	.L201	#
.L198:
	.loc 1 1799 0
	movl	which_alternative(%rip), %eax	# which_alternative, which_alternative.210
	cltq
	leaq	0(,%rax,8), %rdx	#, D.16616
	movq	-8(%rbp), %rax	# output, tmp79
	addq	%rdx, %rax	# D.16616, D.16617
	movq	(%rax), %rax	# *_10, D.16613
	jmp	.L201	#
.L199:
	.loc 1 1801 0
	cmpq	$0, -32(%rbp)	#, insn
	jne	.L202	#,
	.loc 1 1802 0
	movl	$__FUNCTION__.14086, %edx	#,
	movl	$1802, %esi	#,
	movl	$.LC0, %edi	#,
	call	fancy_abort	#
.L202:
	.loc 1 1803 0
	movq	-8(%rbp), %rax	# output, output.211
	movq	-32(%rbp), %rdx	# insn, tmp80
	movq	%rdx, %rsi	# tmp80,
	movl	$recog_data, %edi	#,
	call	*%rax	# output.211
	jmp	.L201	#
.L203:
	.loc 1 1806 0
	movl	$__FUNCTION__.14086, %edx	#,
	movl	$1806, %esi	#,
	movl	$.LC0, %edi	#,
	call	fancy_abort	#
.L201:
	.loc 1 1808 0
	leave
	.cfi_def_cfa 7, 8
	ret
	.cfi_endproc
.LFE22:
	.size	get_insn_template, .-get_insn_template
	.section	.rodata
.LC16:
	.string	"#"
.LC17:
	.string	"\t%s basic block %d\n"
.LC18:
	.string	"LEHB"
.LC19:
	.string	"LEHE"
.LC20:
	.string	"L"
.LC21:
	.string	"\t.p2align %d\n"
.LC22:
	.string	"\t.p2align %d,,%d\n"
.LC23:
	.string	":\n"
.LC24:
	.string	"\t%s\n"
.LC25:
	.string	""
.LC26:
	.string	"could not split insn"
	.text
	.globl	final_scan_insn
	.type	final_scan_insn, @function
final_scan_insn:
.LFB23:
	.loc 1 1825 0
	.cfi_startproc
	pushq	%rbp	#
	.cfi_def_cfa_offset 16
	.cfi_offset 6, -16
	movq	%rsp, %rbp	#,
	.cfi_def_cfa_register 6
	pushq	%rbx	#
	subq	$200, %rsp	#,
	.cfi_offset 3, -24
	movq	%rdi, -184(%rbp)	# insn, insn
	movq	%rsi, -192(%rbp)	# file, file
	movl	%edx, -196(%rbp)	# optimize, optimize
	movl	%ecx, -200(%rbp)	# prescan, prescan
	movl	%r8d, -204(%rbp)	# nopeepholes, nopeepholes
	.loc 1 1830 0
	movl	insn_counter(%rip), %eax	# insn_counter, insn_counter.212
	addl	$1, %eax	#, insn_counter.213
	movl	%eax, insn_counter(%rip)	# insn_counter.213, insn_counter
	.loc 1 1834 0
	movq	-184(%rbp), %rax	# insn, tmp250
	movzbl	3(%rax), %eax	# *insn_13(D), D.16619
	andl	$8, %eax	#, D.16619
	testb	%al, %al	# D.16619
	je	.L205	#,
	.loc 1 1835 0
	movq	-184(%rbp), %rax	# insn, tmp251
	movq	24(%rax), %rax	# insn_13(D)->fld[2].rtx, D.16618
	jmp	.L206	#
.L205:
	.loc 1 1837 0
	movq	-184(%rbp), %rax	# insn, tmp252
	movzwl	(%rax), %eax	# insn_13(D)->code, D.16620
	movzwl	%ax, %eax	# D.16620, D.16621
	cmpl	$36, %eax	#, D.16621
	je	.L208	#,
	cmpl	$37, %eax	#, D.16621
	je	.L209	#,
	cmpl	$35, %eax	#, D.16621
	je	.L210	#,
	jmp	.L298	#
.L209:
	.loc 1 1840 0
	cmpl	$0, -200(%rbp)	#, prescan
	jle	.L211	#,
	.loc 1 1841 0
	jmp	.L212	#
.L211:
	.loc 1 1843 0
	movq	-184(%rbp), %rax	# insn, tmp253
	movl	40(%rax), %eax	# insn_13(D)->fld[4].rtint, D.16622
	addl	$99, %eax	#, tmp254
	cmpl	$99, %eax	#, tmp254
	ja	.L213	#,
	movl	%eax, %eax	# tmp254, tmp255
	movq	.L215(,%rax,8), %rax	#, tmp256
	jmp	*%rax	# tmp256
	.section	.rodata
	.align 8
	.align 4
.L215:
	.quad	.L299
	.quad	.L216
	.quad	.L217
	.quad	.L299
	.quad	.L299
	.quad	.L299
	.quad	.L299
	.quad	.L299
	.quad	.L299
	.quad	.L218
	.quad	.L219
	.quad	.L220
	.quad	.L221
	.quad	.L222
	.quad	.L223
	.quad	.L299
	.quad	.L299
	.quad	.L299
	.quad	.L299
	.quad	.L224
	.quad	.L299
	.quad	.L213
	.quad	.L213
	.quad	.L213
	.quad	.L213
	.quad	.L213
	.quad	.L213
	.quad	.L213
	.quad	.L213
	.quad	.L213
	.quad	.L213
	.quad	.L213
	.quad	.L213
	.quad	.L213
	.quad	.L213
	.quad	.L213
	.quad	.L213
	.quad	.L213
	.quad	.L213
	.quad	.L213
	.quad	.L213
	.quad	.L213
	.quad	.L213
	.quad	.L213
	.quad	.L213
	.quad	.L213
	.quad	.L213
	.quad	.L213
	.quad	.L213
	.quad	.L213
	.quad	.L213
	.quad	.L213
	.quad	.L213
	.quad	.L213
	.quad	.L213
	.quad	.L213
	.quad	.L213
	.quad	.L213
	.quad	.L213
	.quad	.L213
	.quad	.L213
	.quad	.L213
	.quad	.L213
	.quad	.L213
	.quad	.L213
	.quad	.L213
	.quad	.L213
	.quad	.L213
	.quad	.L213
	.quad	.L213
	.quad	.L213
	.quad	.L213
	.quad	.L213
	.quad	.L213
	.quad	.L213
	.quad	.L213
	.quad	.L213
	.quad	.L213
	.quad	.L213
	.quad	.L213
	.quad	.L213
	.quad	.L213
	.quad	.L213
	.quad	.L213
	.quad	.L213
	.quad	.L213
	.quad	.L213
	.quad	.L213
	.quad	.L213
	.quad	.L213
	.quad	.L213
	.quad	.L213
	.quad	.L213
	.quad	.L213
	.quad	.L213
	.quad	.L213
	.quad	.L213
	.quad	.L213
	.quad	.L213
	.quad	.L299
	.text
.L224:
	.loc 1 1863 0
	movl	flag_debug_asm(%rip), %eax	# flag_debug_asm, flag_debug_asm.214
	testl	%eax, %eax	# flag_debug_asm.214
	je	.L227	#,
	.loc 1 1865 0
	movq	-184(%rbp), %rax	# insn, tmp257
	movq	32(%rax), %rax	# insn_13(D)->fld[3].bb, D.16623
	.loc 1 1864 0
	movl	88(%rax), %edx	# _22->index, D.16622
	movq	asm_out_file(%rip), %rax	# asm_out_file, asm_out_file.215
	movl	%edx, %ecx	# D.16622,
	movl	$.LC16, %edx	#,
	movl	$.LC17, %esi	#,
	movq	%rax, %rdi	# asm_out_file.215,
	movl	$0, %eax	#,
	call	fprintf	#
	.loc 1 1866 0
	jmp	.L226	#
.L227:
	jmp	.L226	#
.L222:
	.loc 1 1869 0
	movq	-184(%rbp), %rax	# insn, tmp258
	movl	32(%rax), %eax	# insn_13(D)->fld[3].rtint, D.16622
	movl	%eax, %edx	# D.16622, D.16621
	movq	asm_out_file(%rip), %rax	# asm_out_file, asm_out_file.216
	movl	%edx, %ecx	# D.16621,
	movl	$.LC18, %edx	#,
	movl	$.LC3, %esi	#,
	movq	%rax, %rdi	# asm_out_file.216,
	movl	$0, %eax	#,
	call	fprintf	#
	.loc 1 1871 0
	jmp	.L226	#
.L223:
	.loc 1 1874 0
	movq	-184(%rbp), %rax	# insn, tmp259
	movl	32(%rax), %eax	# insn_13(D)->fld[3].rtint, D.16622
	movl	%eax, %edx	# D.16622, D.16621
	movq	asm_out_file(%rip), %rax	# asm_out_file, asm_out_file.217
	movl	%edx, %ecx	# D.16621,
	movl	$.LC19, %edx	#,
	movl	$.LC3, %esi	#,
	movq	%rax, %rdi	# asm_out_file.217,
	movl	$0, %eax	#,
	call	fprintf	#
	.loc 1 1876 0
	jmp	.L226	#
.L218:
	.loc 1 1879 0
	movq	targetm+104(%rip), %rax	# targetm.asm_out.function_end_prologue, D.16624
	movq	-192(%rbp), %rdx	# file, tmp260
	movq	%rdx, %rdi	# tmp260,
	call	*%rax	# D.16624
	.loc 1 1880 0
	movq	-192(%rbp), %rax	# file, tmp261
	movq	%rax, %rdi	# tmp261,
	call	profile_after_prologue	#
	.loc 1 1881 0
	jmp	.L226	#
.L219:
	.loc 1 1884 0
	movq	targetm+112(%rip), %rax	# targetm.asm_out.function_begin_epilogue, D.16624
	movq	-192(%rbp), %rdx	# file, tmp262
	movq	%rdx, %rdi	# tmp262,
	call	*%rax	# D.16624
	.loc 1 1885 0
	jmp	.L226	#
.L221:
	.loc 1 1888 0
	call	app_disable	#
	.loc 1 1889 0
	movq	debug_hooks(%rip), %rax	# debug_hooks, debug_hooks.218
	movq	88(%rax), %rax	# debug_hooks.218_34->end_prologue, D.16625
	movl	last_linenum(%rip), %edx	# last_linenum, last_linenum.219
	movl	%edx, %edi	# last_linenum.220,
	call	*%rax	# D.16625
	.loc 1 1890 0
	jmp	.L226	#
.L216:
	.loc 1 1893 0
	movl	debug_info_level(%rip), %eax	# debug_info_level, debug_info_level.221
	cmpl	$2, %eax	#, debug_info_level.221
	je	.L228	#,
	.loc 1 1894 0
	movl	debug_info_level(%rip), %eax	# debug_info_level, debug_info_level.222
	cmpl	$3, %eax	#, debug_info_level.222
	je	.L228	#,
	.loc 1 1895 0
	movl	write_symbols(%rip), %eax	# write_symbols, write_symbols.223
	cmpl	$3, %eax	#, write_symbols.223
	je	.L228	#,
	.loc 1 1896 0
	movl	write_symbols(%rip), %eax	# write_symbols, write_symbols.224
	cmpl	$4, %eax	#, write_symbols.224
	je	.L228	#,
	.loc 1 1897 0
	movl	write_symbols(%rip), %eax	# write_symbols, write_symbols.225
	cmpl	$7, %eax	#, write_symbols.225
	je	.L228	#,
	.loc 1 1898 0
	movl	write_symbols(%rip), %eax	# write_symbols, write_symbols.226
	cmpl	$6, %eax	#, write_symbols.226
	jne	.L229	#,
.L228:
.LBB23:
	.loc 1 1900 0
	movq	-184(%rbp), %rax	# insn, tmp263
	movq	32(%rax), %rax	# insn_13(D)->fld[3].rttree, D.16626
	movl	24(%rax), %eax	# *_44, tmp266
	shrl	$2, %eax	#, D.16627
	movl	%eax, -152(%rbp)	# D.16627, n
	.loc 1 1902 0
	call	app_disable	#
	.loc 1 1903 0
	movl	block_depth(%rip), %eax	# block_depth, block_depth.227
	addl	$1, %eax	#, block_depth.228
	movl	%eax, block_depth(%rip)	# block_depth.228, block_depth
	.loc 1 1904 0
	movl	last_linenum(%rip), %eax	# last_linenum, last_linenum.229
	movl	%eax, high_block_linenum(%rip)	# last_linenum.229, high_block_linenum
	.loc 1 1907 0
	movq	debug_hooks(%rip), %rax	# debug_hooks, debug_hooks.230
	movq	48(%rax), %rax	# debug_hooks.230_50->begin_block, D.16628
	movl	-152(%rbp), %ecx	# n, n.231
	movl	last_linenum(%rip), %edx	# last_linenum, last_linenum.232
	movl	%ecx, %esi	# n.231,
	movl	%edx, %edi	# last_linenum.233,
	call	*%rax	# D.16628
	.loc 1 1910 0
	movq	-184(%rbp), %rax	# insn, tmp267
	movq	32(%rax), %rax	# insn_13(D)->fld[3].rttree, D.16626
	movzbl	17(%rax), %edx	#, tmp270
	orl	$64, %edx	#, tmp271
	movb	%dl, 17(%rax)	# tmp271,
.LBE23:
	.loc 1 1912 0
	jmp	.L226	#
.L229:
	jmp	.L226	#
.L217:
	.loc 1 1915 0
	movl	debug_info_level(%rip), %eax	# debug_info_level, debug_info_level.234
	cmpl	$2, %eax	#, debug_info_level.234
	je	.L230	#,
	.loc 1 1916 0
	movl	debug_info_level(%rip), %eax	# debug_info_level, debug_info_level.235
	cmpl	$3, %eax	#, debug_info_level.235
	je	.L230	#,
	.loc 1 1917 0
	movl	write_symbols(%rip), %eax	# write_symbols, write_symbols.236
	cmpl	$3, %eax	#, write_symbols.236
	je	.L230	#,
	.loc 1 1918 0
	movl	write_symbols(%rip), %eax	# write_symbols, write_symbols.237
	cmpl	$4, %eax	#, write_symbols.237
	je	.L230	#,
	.loc 1 1919 0
	movl	write_symbols(%rip), %eax	# write_symbols, write_symbols.238
	cmpl	$7, %eax	#, write_symbols.238
	je	.L230	#,
	.loc 1 1920 0
	movl	write_symbols(%rip), %eax	# write_symbols, write_symbols.239
	cmpl	$6, %eax	#, write_symbols.239
	jne	.L231	#,
.L230:
.LBB24:
	.loc 1 1922 0
	movq	-184(%rbp), %rax	# insn, tmp272
	movq	32(%rax), %rax	# insn_13(D)->fld[3].rttree, D.16626
	movl	24(%rax), %eax	# *_62, tmp275
	shrl	$2, %eax	#, D.16627
	movl	%eax, -148(%rbp)	# D.16627, n
	.loc 1 1924 0
	call	app_disable	#
	.loc 1 1927 0
	movl	block_depth(%rip), %eax	# block_depth, block_depth.240
	subl	$1, %eax	#, block_depth.241
	movl	%eax, block_depth(%rip)	# block_depth.241, block_depth
	.loc 1 1928 0
	movl	block_depth(%rip), %eax	# block_depth, block_depth.242
	testl	%eax, %eax	# block_depth.242
	jns	.L232	#,
	.loc 1 1929 0
	movl	$__FUNCTION__.14120, %edx	#,
	movl	$1929, %esi	#,
	movl	$.LC0, %edi	#,
	call	fancy_abort	#
.L232:
	.loc 1 1931 0
	movq	debug_hooks(%rip), %rax	# debug_hooks, debug_hooks.243
	movq	56(%rax), %rax	# debug_hooks.243_68->end_block, D.16628
	movl	-148(%rbp), %ecx	# n, n.244
	movl	high_block_linenum(%rip), %edx	# high_block_linenum, high_block_linenum.245
	movl	%ecx, %esi	# n.244,
	movl	%edx, %edi	# high_block_linenum.246,
	call	*%rax	# D.16628
.LBE24:
	.loc 1 1933 0
	jmp	.L226	#
.L231:
	jmp	.L226	#
.L220:
	.loc 1 1939 0
	movq	-184(%rbp), %rax	# insn, tmp276
	movl	48(%rax), %eax	# insn_13(D)->fld[5].rtint, D.16622
	movl	%eax, %edx	# D.16622, D.16621
	movq	-192(%rbp), %rax	# file, tmp277
	movl	%edx, %ecx	# D.16621,
	movl	$.LC20, %edx	#,
	movl	$.LC3, %esi	#,
	movq	%rax, %rdi	# tmp277,
	movl	$0, %eax	#,
	call	fprintf	#
	.loc 1 1940 0
	jmp	.L226	#
.L213:
	.loc 1 1946 0
	movq	-184(%rbp), %rax	# insn, tmp278
	movl	40(%rax), %eax	# insn_13(D)->fld[4].rtint, D.16622
	testl	%eax, %eax	# D.16622
	jg	.L233	#,
	.loc 1 1947 0
	movl	$__FUNCTION__.14120, %edx	#,
	movl	$1947, %esi	#,
	movl	$.LC0, %edi	#,
	call	fancy_abort	#
.L233:
.LBB25:
	.loc 1 1952 0
	movl	$0, -168(%rbp)	#, note_after
	.loc 1 1956 0
	movq	-184(%rbp), %rax	# insn, tmp279
	movq	24(%rax), %rax	# insn_13(D)->fld[2].rtx, tmp280
	movq	%rax, -120(%rbp)	# tmp280, note
	jmp	.L234	#
.L244:
	.loc 1 1958 0
	movq	-120(%rbp), %rax	# note, tmp281
	movzwl	(%rax), %eax	# note_1->code, D.16620
	cmpw	$37, %ax	#, D.16620
	je	.L235	#,
	.loc 1 1958 0 is_stmt 0 discriminator 1
	movq	-120(%rbp), %rax	# note, tmp282
	movzwl	(%rax), %eax	# note_1->code, D.16620
	cmpw	$36, %ax	#, D.16620
	jne	.L236	#,
.L235:
	.loc 1 1963 0 is_stmt 1
	movq	-120(%rbp), %rax	# note, tmp283
	movzwl	(%rax), %eax	# note_1->code, D.16620
	cmpw	$37, %ax	#, D.16620
	jne	.L237	#,
	.loc 1 1964 0
	movq	-120(%rbp), %rax	# note, tmp284
	movl	40(%rax), %eax	# note_1->fld[4].rtint, D.16622
	cmpl	$-98, %eax	#, D.16622
	je	.L236	#,
	.loc 1 1965 0
	movq	-120(%rbp), %rax	# note, tmp285
	movl	40(%rax), %eax	# note_1->fld[4].rtint, D.16622
	cmpl	$-97, %eax	#, D.16622
	je	.L236	#,
	.loc 1 1966 0
	movq	-120(%rbp), %rax	# note, tmp286
	movl	40(%rax), %eax	# note_1->fld[4].rtint, D.16622
	cmpl	$-87, %eax	#, D.16622
	je	.L236	#,
.L237:
	.loc 1 1968 0
	movq	-120(%rbp), %rax	# note, tmp287
	movzwl	(%rax), %eax	# note_1->code, D.16620
	cmpw	$37, %ax	#, D.16620
	jne	.L238	#,
	.loc 1 1968 0 is_stmt 0 discriminator 1
	movq	-120(%rbp), %rax	# note, tmp288
	movl	40(%rax), %eax	# note_1->fld[4].rtint, D.16622
	testl	%eax, %eax	# D.16622
	jle	.L238	#,
.LBB26:
	.loc 1 1973 0 is_stmt 1
	movq	-184(%rbp), %rax	# insn, tmp289
	movl	40(%rax), %eax	# insn_13(D)->fld[4].rtint, D.16622
	addl	$1, %eax	#, tmp290
	movl	%eax, -164(%rbp)	# tmp290, num
	jmp	.L239	#
.L242:
	.loc 1 1976 0
	movq	line_note_exists(%rip), %rdx	# line_note_exists, line_note_exists.247
	movl	-164(%rbp), %eax	# num, tmp291
	cltq
	addq	%rdx, %rax	# line_note_exists.247, D.16630
	movzbl	(%rax), %eax	# *_91, D.16631
	testb	%al, %al	# D.16631
	je	.L240	#,
	.loc 1 1977 0
	jmp	.L241	#
.L240:
	.loc 1 1975 0
	addl	$1, -164(%rbp)	#, num
.L239:
	.loc 1 1974 0 discriminator 1
	movq	-120(%rbp), %rax	# note, tmp292
	movl	40(%rax), %eax	# note_1->fld[4].rtint, D.16622
	.loc 1 1973 0 discriminator 1
	cmpl	-164(%rbp), %eax	# num, D.16622
	jg	.L242	#,
.L241:
	.loc 1 1979 0
	movq	-120(%rbp), %rax	# note, tmp293
	movl	40(%rax), %eax	# note_1->fld[4].rtint, D.16622
	cmpl	-164(%rbp), %eax	# num, D.16622
	jg	.L243	#,
	.loc 1 1980 0
	movl	$1, -168(%rbp)	#, note_after
	.loc 1 1981 0
	jmp	.L236	#
.L243:
	jmp	.L236	#
.L238:
.LBE26:
	.loc 1 1956 0
	movq	-120(%rbp), %rax	# note, tmp294
	movq	24(%rax), %rax	# note_1->fld[2].rtx, tmp295
	movq	%rax, -120(%rbp)	# tmp295, note
.L234:
	.loc 1 1956 0 is_stmt 0 discriminator 1
	cmpq	$0, -120(%rbp)	#, note
	jne	.L244	#,
.L236:
	.loc 1 1987 0 is_stmt 1
	cmpl	$0, -168(%rbp)	#, note_after
	jne	.L245	#,
	.loc 1 1989 0
	movq	-184(%rbp), %rax	# insn, tmp296
	movq	%rax, %rdi	# tmp296,
	call	notice_source_line	#
	.loc 1 1990 0
	movq	debug_hooks(%rip), %rax	# debug_hooks, debug_hooks.248
	movq	72(%rax), %rax	# debug_hooks.248_97->source_line, D.16632
	movq	last_filename(%rip), %rcx	# last_filename, last_filename.249
	movl	last_linenum(%rip), %edx	# last_linenum, last_linenum.250
	movq	%rcx, %rsi	# last_filename.249,
	movl	%edx, %edi	# last_linenum.251,
	call	*%rax	# D.16632
.LBE25:
	.loc 1 1993 0
	jmp	.L226	#
.L245:
	jmp	.L226	#
.L299:
	.loc 1 1857 0
	nop
.L226:
	.loc 1 1995 0
	jmp	.L212	#
.L210:
	.loc 1 1999 0
	call	dwarf2out_do_frame	#
	testl	%eax, %eax	# D.16622
	je	.L246	#,
	.loc 1 2000 0
	movq	-184(%rbp), %rax	# insn, tmp297
	movq	%rax, %rdi	# tmp297,
	call	dwarf2out_frame_debug	#
	.loc 1 2002 0
	jmp	.L212	#
.L246:
	jmp	.L212	#
.L208:
	.loc 1 2007 0
	movq	-184(%rbp), %rax	# insn, tmp298
	movl	48(%rax), %edx	# insn_13(D)->fld[5].rtint, D.16622
	movl	max_labelno(%rip), %eax	# max_labelno, max_labelno.252
	cmpl	%eax, %edx	# max_labelno.252, D.16622
	jg	.L247	#,
.LBB27:
	.loc 1 2009 0
	movq	label_align(%rip), %rdx	# label_align, label_align.253
	movq	-184(%rbp), %rax	# insn, tmp299
	movl	48(%rax), %ecx	# insn_13(D)->fld[5].rtint, D.16622
	movl	min_labelno(%rip), %eax	# min_labelno, min_labelno.254
	subl	%eax, %ecx	# min_labelno.254, D.16622
	movl	%ecx, %eax	# D.16622, D.16622
	cltq
	salq	$2, %rax	#, D.16633
	addq	%rdx, %rax	# label_align.253, D.16634
	movzwl	(%rax), %eax	# _111->alignment, D.16635
	cwtl
	movl	%eax, -144(%rbp)	# tmp300, align
	.loc 1 2011 0
	movq	label_align(%rip), %rdx	# label_align, label_align.255
	movq	-184(%rbp), %rax	# insn, tmp301
	movl	48(%rax), %ecx	# insn_13(D)->fld[5].rtint, D.16622
	movl	min_labelno(%rip), %eax	# min_labelno, min_labelno.256
	subl	%eax, %ecx	# min_labelno.256, D.16622
	movl	%ecx, %eax	# D.16622, D.16622
	cltq
	salq	$2, %rax	#, D.16633
	addq	%rdx, %rax	# label_align.255, D.16634
	movzwl	2(%rax), %eax	# _120->max_skip, D.16635
	cwtl
	movl	%eax, -140(%rbp)	# tmp302, max_skip
	.loc 1 2014 0
	cmpl	$0, -144(%rbp)	#, align
	je	.L247	#,
	.loc 1 2014 0 is_stmt 0 discriminator 1
	movq	-184(%rbp), %rax	# insn, tmp303
	movq	24(%rax), %rax	# insn_13(D)->fld[2].rtx, D.16636
	testq	%rax, %rax	# D.16636
	je	.L247	#,
	.loc 1 2017 0 is_stmt 1
	cmpl	$0, -144(%rbp)	#, align
	je	.L247	#,
	.loc 1 2017 0 is_stmt 0 discriminator 1
	cmpl	$0, -140(%rbp)	#, max_skip
	jne	.L248	#,
	movl	-144(%rbp), %edx	# align, tmp304
	movq	-192(%rbp), %rax	# file, tmp305
	movl	$.LC21, %esi	#,
	movq	%rax, %rdi	# tmp305,
	movl	$0, %eax	#,
	call	fprintf	#
	jmp	.L247	#
.L248:
	.loc 1 2017 0 discriminator 2
	movl	-140(%rbp), %ecx	# max_skip, tmp306
	movl	-144(%rbp), %edx	# align, tmp307
	movq	-192(%rbp), %rax	# file, tmp308
	movl	$.LC22, %esi	#,
	movq	%rax, %rdi	# tmp308,
	movl	$0, %eax	#,
	call	fprintf	#
.L247:
.LBE27:
	.loc 1 2050 0 is_stmt 1
	cmpl	$0, -200(%rbp)	#, prescan
	jle	.L249	#,
	.loc 1 2051 0
	jmp	.L212	#
.L249:
	.loc 1 2052 0
	movl	$1, new_block(%rip)	#, new_block
	.loc 1 2058 0
	movq	-184(%rbp), %rax	# insn, tmp309
	movq	56(%rax), %rax	# insn_13(D)->fld[6].rtstr, D.16637
	testq	%rax, %rax	# D.16637
	je	.L250	#,
	.loc 1 2059 0
	movq	debug_hooks(%rip), %rax	# debug_hooks, debug_hooks.257
	movq	152(%rax), %rax	# debug_hooks.257_125->label, D.16638
	movq	-184(%rbp), %rdx	# insn, tmp310
	movq	%rdx, %rdi	# tmp310,
	call	*%rax	# D.16638
.L250:
	.loc 1 2061 0
	movl	app_on(%rip), %eax	# app_on, app_on.258
	testl	%eax, %eax	# app_on.258
	je	.L251	#,
	.loc 1 2063 0
	movq	-192(%rbp), %rax	# file, tmp311
	movq	%rax, %rcx	# tmp311,
	movl	$8, %edx	#,
	movl	$1, %esi	#,
	movl	$.LC9, %edi	#,
	call	fwrite	#
	.loc 1 2064 0
	movl	$0, app_on(%rip)	#, app_on
.L251:
	.loc 1 2066 0
	movq	-184(%rbp), %rax	# insn, tmp312
	movq	24(%rax), %rax	# insn_13(D)->fld[2].rtx, D.16636
	testq	%rax, %rax	# D.16636
	je	.L252	#,
	.loc 1 2067 0
	movq	-184(%rbp), %rax	# insn, tmp313
	movq	24(%rax), %rax	# insn_13(D)->fld[2].rtx, D.16636
	movzwl	(%rax), %eax	# _129->code, D.16620
	cmpw	$33, %ax	#, D.16620
	jne	.L252	#,
.LBB28:
	.loc 1 2069 0
	movq	-184(%rbp), %rax	# insn, tmp314
	movq	24(%rax), %rax	# insn_13(D)->fld[2].rtx, D.16636
	movq	32(%rax), %rax	# _131->fld[3].rtx, tmp315
	movq	%rax, -96(%rbp)	# tmp315, nextbody
	.loc 1 2075 0
	movq	-96(%rbp), %rax	# nextbody, tmp316
	movzwl	(%rax), %eax	# nextbody_132->code, D.16620
	cmpw	$44, %ax	#, D.16620
	je	.L253	#,
	.loc 1 2076 0
	movq	-96(%rbp), %rax	# nextbody, tmp317
	movzwl	(%rax), %eax	# nextbody_132->code, D.16620
	cmpw	$45, %ax	#, D.16620
	jne	.L252	#,
.L253:
	.loc 1 2083 0
	movl	target_flags(%rip), %eax	# target_flags, target_flags.259
	andl	$33554432, %eax	#, D.16622
	testl	%eax, %eax	# D.16622
	jne	.L254	#,
	.loc 1 2083 0 is_stmt 0 discriminator 1
	movl	flag_pic(%rip), %eax	# flag_pic, flag_pic.260
	testl	%eax, %eax	# flag_pic.260
	jne	.L255	#,
.L254:
.LBB29:
	.loc 1 2087 0 is_stmt 1
	call	readonly_data_section	#
	.loc 1 2090 0
	movq	-184(%rbp), %rax	# insn, tmp318
	movq	24(%rax), %rax	# insn_13(D)->fld[2].rtx, D.16636
	movq	%rax, %rdi	# D.16636,
	call	final_addr_vec_align	#
	movl	%eax, -136(%rbp)	# tmp319, log_align
	.loc 1 2094 0
	cmpl	$0, -136(%rbp)	#, log_align
	je	.L256	#,
	.loc 1 2094 0 is_stmt 0 discriminator 1
	movl	-136(%rbp), %eax	# log_align, tmp320
	movl	$1, %edx	#, tmp321
	movl	%eax, %ecx	# tmp320, tmp444
	sall	%cl, %edx	# tmp444, D.16622
	movq	-192(%rbp), %rax	# file, tmp322
	movl	$.LC1, %esi	#,
	movq	%rax, %rdi	# tmp322,
	movl	$0, %eax	#,
	call	fprintf	#
.LBE29:
	.loc 1 2084 0 is_stmt 1 discriminator 1
	jmp	.L257	#
.L256:
	.loc 1 2084 0 is_stmt 0
	jmp	.L257	#
.L255:
	.loc 1 2097 0 is_stmt 1
	movq	current_function_decl(%rip), %rax	# current_function_decl, current_function_decl.261
	movq	%rax, %rdi	# current_function_decl.261,
	call	function_section	#
.L257:
	.loc 1 2100 0
	movq	-192(%rbp), %rax	# file, tmp323
	movl	$4, %edx	#,
	movl	$.LC1, %esi	#,
	movq	%rax, %rdi	# tmp323,
	movl	$0, %eax	#,
	call	fprintf	#
	movq	-184(%rbp), %rax	# insn, tmp324
	movl	48(%rax), %eax	# insn_13(D)->fld[5].rtint, D.16622
	movl	%eax, %edx	# D.16622, D.16621
	movq	-192(%rbp), %rax	# file, tmp325
	movl	%edx, %ecx	# D.16621,
	movl	$.LC20, %edx	#,
	movl	$.LC3, %esi	#,
	movq	%rax, %rdi	# tmp325,
	movl	$0, %eax	#,
	call	fprintf	#
	.loc 1 2109 0
	jmp	.L212	#
.L252:
.LBE28:
	.loc 1 2112 0
	movq	-184(%rbp), %rax	# insn, tmp326
	movq	64(%rax), %rax	# insn_13(D)->fld[7].rtstr, D.16637
	testq	%rax, %rax	# D.16637
	je	.L258	#,
	.loc 1 2113 0
	movq	-184(%rbp), %rax	# insn, tmp327
	movq	64(%rax), %rdx	# insn_13(D)->fld[7].rtstr, D.16637
	movq	-192(%rbp), %rax	# file, tmp328
	movq	%rdx, %rsi	# D.16637,
	movq	%rax, %rdi	# tmp328,
	call	assemble_name	#
	movq	-192(%rbp), %rax	# file, tmp329
	movq	%rax, %rcx	# tmp329,
	movl	$2, %edx	#,
	movl	$1, %esi	#,
	movl	$.LC23, %edi	#,
	call	fwrite	#
	.loc 1 2116 0
	jmp	.L212	#
.L258:
	.loc 1 2115 0
	movq	-184(%rbp), %rax	# insn, tmp330
	movl	48(%rax), %eax	# insn_13(D)->fld[5].rtint, D.16622
	movl	%eax, %edx	# D.16622, D.16621
	movq	-192(%rbp), %rax	# file, tmp331
	movl	%edx, %ecx	# D.16621,
	movl	$.LC20, %edx	#,
	movl	$.LC3, %esi	#,
	movq	%rax, %rdi	# tmp331,
	movl	$0, %eax	#,
	call	fprintf	#
	.loc 1 2116 0
	jmp	.L212	#
.L298:
.LBB30:
	.loc 1 2120 0
	movq	-184(%rbp), %rax	# insn, tmp332
	movq	32(%rax), %rax	# insn_13(D)->fld[3].rtx, tmp333
	movq	%rax, -88(%rbp)	# tmp333, body
	.loc 1 2128 0
	movq	-88(%rbp), %rax	# body, tmp334
	movzwl	(%rax), %eax	# body_148->code, D.16620
	cmpw	$48, %ax	#, D.16620
	je	.L212	#,
	.loc 1 2129 0
	movq	-88(%rbp), %rax	# body, tmp335
	movzwl	(%rax), %eax	# body_148->code, D.16620
	cmpw	$49, %ax	#, D.16620
	je	.L212	#,
	.loc 1 2149 0
	movq	-88(%rbp), %rax	# body, tmp336
	movzwl	(%rax), %eax	# body_148->code, D.16620
	cmpw	$44, %ax	#, D.16620
	je	.L260	#,
	.loc 1 2149 0 is_stmt 0 discriminator 1
	movq	-88(%rbp), %rax	# body, tmp337
	movzwl	(%rax), %eax	# body_148->code, D.16620
	cmpw	$45, %ax	#, D.16620
	jne	.L261	#,
.L260:
.LBB31:
	.loc 1 2155 0 is_stmt 1
	cmpl	$0, -200(%rbp)	#, prescan
	jle	.L262	#,
	.loc 1 2156 0
	jmp	.L212	#
.L262:
	.loc 1 2158 0
	movl	app_on(%rip), %eax	# app_on, app_on.262
	testl	%eax, %eax	# app_on.262
	je	.L263	#,
	.loc 1 2160 0
	movq	-192(%rbp), %rax	# file, tmp338
	movq	%rax, %rcx	# tmp338,
	movl	$8, %edx	#,
	movl	$1, %esi	#,
	movl	$.LC9, %edi	#,
	call	fwrite	#
	.loc 1 2161 0
	movl	$0, app_on(%rip)	#, app_on
.L263:
	.loc 1 2182 0
	movq	-88(%rbp), %rax	# body, tmp339
	movzwl	(%rax), %eax	# body_148->code, D.16620
	cmpw	$45, %ax	#, D.16620
	sete	%al	#, D.16641
	movzbl	%al, %edx	# D.16641, D.16622
	movq	-88(%rbp), %rax	# body, tmp340
	movslq	%edx, %rdx	# D.16622, tmp341
	movq	8(%rax,%rdx,8), %rax	# body_148->fld[_222].rtvec, D.16639
	movl	(%rax), %eax	# _223->num_elem, tmp342
	movl	%eax, -124(%rbp)	# tmp342, vlen
	.loc 1 2183 0
	movl	$0, -160(%rbp)	#, idx
	jmp	.L264	#
.L267:
	.loc 1 2185 0
	movq	-88(%rbp), %rax	# body, tmp343
	movzwl	(%rax), %eax	# body_148->code, D.16620
	cmpw	$44, %ax	#, D.16620
	jne	.L265	#,
	.loc 1 2188 0
	movq	-88(%rbp), %rax	# body, tmp344
	movq	8(%rax), %rax	# body_148->fld[0].rtvec, D.16639
	movl	-160(%rbp), %edx	# idx, tmp346
	movslq	%edx, %rdx	# tmp346, tmp345
	movq	8(%rax,%rdx,8), %rax	# _227->elem, D.16636
	movq	8(%rax), %rax	# _228->fld[0].rtx, D.16636
	movl	48(%rax), %edx	# _229->fld[5].rtint, D.16622
	movq	-192(%rbp), %rax	# file, tmp347
	movl	%edx, %esi	# D.16622,
	movq	%rax, %rdi	# tmp347,
	call	ix86_output_addr_vec_elt	#
	jmp	.L266	#
.L265:
	.loc 1 2197 0
	movq	-88(%rbp), %rax	# body, tmp348
	movq	8(%rax), %rax	# body_148->fld[0].rtx, D.16636
	movq	8(%rax), %rax	# _231->fld[0].rtx, D.16636
	movl	48(%rax), %edx	# _232->fld[5].rtint, D.16622
	movq	-88(%rbp), %rax	# body, tmp349
	movq	16(%rax), %rax	# body_148->fld[1].rtvec, D.16639
	movl	-160(%rbp), %ecx	# idx, tmp351
	movslq	%ecx, %rcx	# tmp351, tmp350
	movq	8(%rax,%rcx,8), %rax	# _234->elem, D.16636
	movq	8(%rax), %rax	# _235->fld[0].rtx, D.16636
	movl	48(%rax), %ecx	# _236->fld[5].rtint, D.16622
	movq	-192(%rbp), %rax	# file, tmp352
	movl	%ecx, %esi	# D.16622,
	movq	%rax, %rdi	# tmp352,
	call	ix86_output_addr_diff_elt	#
.L266:
	.loc 1 2183 0
	addl	$1, -160(%rbp)	#, idx
.L264:
	.loc 1 2183 0 is_stmt 0 discriminator 1
	movl	-160(%rbp), %eax	# idx, tmp353
	cmpl	-124(%rbp), %eax	# vlen, tmp353
	jl	.L267	#,
	.loc 1 2214 0 is_stmt 1
	movq	current_function_decl(%rip), %rax	# current_function_decl, current_function_decl.263
	movq	%rax, %rdi	# current_function_decl.263,
	call	function_section	#
	.loc 1 2216 0
	jmp	.L212	#
.L261:
.LBE31:
	.loc 1 2219 0
	movq	-88(%rbp), %rax	# body, tmp354
	movzwl	(%rax), %eax	# body_148->code, D.16620
	cmpw	$40, %ax	#, D.16620
	jne	.L268	#,
.LBB32:
	.loc 1 2221 0
	movq	-88(%rbp), %rax	# body, tmp355
	movq	8(%rax), %rax	# body_148->fld[0].rtstr, tmp356
	movq	%rax, -80(%rbp)	# tmp356, string
	.loc 1 2225 0
	cmpl	$0, -200(%rbp)	#, prescan
	jle	.L269	#,
	.loc 1 2226 0
	jmp	.L212	#
.L269:
	.loc 1 2228 0
	movq	-80(%rbp), %rax	# string, tmp357
	movzbl	(%rax), %eax	# *string_154, D.16631
	testb	%al, %al	# D.16631
	je	.L270	#,
	.loc 1 2230 0
	movl	app_on(%rip), %eax	# app_on, app_on.264
	testl	%eax, %eax	# app_on.264
	jne	.L271	#,
	.loc 1 2232 0
	movq	-192(%rbp), %rax	# file, tmp358
	movq	%rax, %rcx	# tmp358,
	movl	$5, %edx	#,
	movl	$1, %esi	#,
	movl	$.LC8, %edi	#,
	call	fwrite	#
	.loc 1 2233 0
	movl	$1, app_on(%rip)	#, app_on
.L271:
	.loc 1 2235 0
	movq	asm_out_file(%rip), %rax	# asm_out_file, asm_out_file.265
	movq	-80(%rbp), %rdx	# string, tmp359
	movl	$.LC24, %esi	#,
	movq	%rax, %rdi	# asm_out_file.265,
	movl	$0, %eax	#,
	call	fprintf	#
	.loc 1 2237 0
	jmp	.L212	#
.L270:
	jmp	.L212	#
.L268:
.LBE32:
	.loc 1 2241 0
	movq	-88(%rbp), %rax	# body, tmp360
	movq	%rax, %rdi	# tmp360,
	call	asm_noperands	#
	testl	%eax, %eax	# D.16622
	js	.L272	#,
.LBB33:
	.loc 1 2243 0
	movq	-88(%rbp), %rax	# body, tmp361
	movq	%rax, %rdi	# tmp361,
	call	asm_noperands	#
	movl	%eax, -132(%rbp)	# D.16622, noperands
	.loc 1 2244 0
	movl	-132(%rbp), %eax	# noperands, D.16633
	salq	$3, %rax	#, D.16633
	leaq	15(%rax), %rdx	#, tmp362
	movl	$16, %eax	#, tmp440
	subq	$1, %rax	#, tmp363
	addq	%rdx, %rax	# tmp362, tmp364
	movl	$16, %ebx	#, tmp441
	movl	$0, %edx	#, tmp367
	divq	%rbx	# tmp441
	imulq	$16, %rax, %rax	#, tmp366, tmp368
	subq	%rax, %rsp	# tmp368,
	movq	%rsp, %rax	#, tmp369
	addq	$15, %rax	#, tmp370
	shrq	$4, %rax	#, tmp371
	salq	$4, %rax	#, tmp372
	movq	%rax, -72(%rbp)	# tmp372, ops
	.loc 1 2249 0
	cmpl	$0, -200(%rbp)	#, prescan
	jle	.L273	#,
	.loc 1 2250 0
	jmp	.L212	#
.L273:
	.loc 1 2253 0
	movq	-72(%rbp), %rsi	# ops, tmp373
	movq	-88(%rbp), %rax	# body, tmp374
	movl	$0, %r8d	#,
	movl	$0, %ecx	#,
	movl	$0, %edx	#,
	movq	%rax, %rdi	# tmp374,
	call	decode_asm_operands	#
	movq	%rax, -64(%rbp)	# tmp375, string
	.loc 1 2255 0
	movl	-132(%rbp), %eax	# noperands, tmp376
	movl	%eax, insn_noperands(%rip)	# tmp376, insn_noperands
	.loc 1 2256 0
	movq	-184(%rbp), %rax	# insn, tmp377
	movq	%rax, this_is_asm_operands(%rip)	# tmp377, this_is_asm_operands
	.loc 1 2259 0
	movq	-64(%rbp), %rax	# string, tmp378
	movzbl	(%rax), %eax	# *string_164, D.16631
	testb	%al, %al	# D.16631
	je	.L274	#,
	.loc 1 2261 0
	movl	app_on(%rip), %eax	# app_on, app_on.266
	testl	%eax, %eax	# app_on.266
	jne	.L275	#,
	.loc 1 2263 0
	movq	-192(%rbp), %rax	# file, tmp379
	movq	%rax, %rcx	# tmp379,
	movl	$5, %edx	#,
	movl	$1, %esi	#,
	movl	$.LC8, %edi	#,
	call	fwrite	#
	.loc 1 2264 0
	movl	$1, app_on(%rip)	#, app_on
.L275:
	.loc 1 2266 0
	movq	-72(%rbp), %rdx	# ops, tmp380
	movq	-64(%rbp), %rax	# string, tmp381
	movq	%rdx, %rsi	# tmp380,
	movq	%rax, %rdi	# tmp381,
	call	output_asm_insn	#
.L274:
	.loc 1 2269 0
	movq	$0, this_is_asm_operands(%rip)	#, this_is_asm_operands
	.loc 1 2270 0
	jmp	.L212	#
.L272:
.LBE33:
	.loc 1 2273 0
	cmpl	$0, -200(%rbp)	#, prescan
	jg	.L276	#,
	.loc 1 2273 0 is_stmt 0 discriminator 1
	movl	app_on(%rip), %eax	# app_on, app_on.267
	testl	%eax, %eax	# app_on.267
	je	.L276	#,
	.loc 1 2275 0 is_stmt 1
	movq	-192(%rbp), %rax	# file, tmp382
	movq	%rax, %rcx	# tmp382,
	movl	$8, %edx	#,
	movl	$1, %esi	#,
	movl	$.LC9, %edi	#,
	call	fwrite	#
	.loc 1 2276 0
	movl	$0, app_on(%rip)	#, app_on
.L276:
	.loc 1 2279 0
	movq	-88(%rbp), %rax	# body, tmp383
	movzwl	(%rax), %eax	# body_148->code, D.16620
	cmpw	$24, %ax	#, D.16620
	jne	.L277	#,
.LBB34:
	.loc 1 2285 0
	cmpl	$0, -200(%rbp)	#, prescan
	jle	.L278	#,
	.loc 1 2286 0
	jmp	.L212	#
.L278:
	.loc 1 2287 0
	movq	-88(%rbp), %rax	# body, tmp384
	movq	%rax, final_sequence(%rip)	# tmp384, final_sequence
	.loc 1 2294 0
	movq	-88(%rbp), %rax	# body, tmp385
	movq	8(%rax), %rax	# body_148->fld[0].rtvec, D.16639
	movq	8(%rax), %rax	# _169->elem, D.16636
	movl	-200(%rbp), %edx	# prescan, tmp386
	movq	-192(%rbp), %rsi	# file, tmp387
	movl	$1, %r8d	#,
	movl	%edx, %ecx	# tmp386,
	movl	$0, %edx	#,
	movq	%rax, %rdi	# D.16636,
	call	final_scan_insn	#
	movq	%rax, -56(%rbp)	# tmp388, next
	.loc 1 2295 0
	movq	-88(%rbp), %rax	# body, tmp389
	movq	8(%rax), %rax	# body_148->fld[0].rtvec, D.16639
	movq	16(%rax), %rax	# _172->elem, D.16636
	cmpq	-56(%rbp), %rax	# next, D.16636
	je	.L279	#,
	.loc 1 2297 0
	movq	$0, final_sequence(%rip)	#, final_sequence
	.loc 1 2298 0
	movq	-56(%rbp), %rax	# next, D.16618
	jmp	.L206	#
.L279:
	.loc 1 2301 0
	movl	$1, -156(%rbp)	#, i
	jmp	.L280	#
.L282:
.LBB35:
	.loc 1 2303 0
	movq	-88(%rbp), %rax	# body, tmp390
	movq	8(%rax), %rax	# body_148->fld[0].rtvec, D.16639
	movl	-156(%rbp), %edx	# i, tmp392
	movslq	%edx, %rdx	# tmp392, tmp391
	movq	8(%rax,%rdx,8), %rax	# _178->elem, tmp393
	movq	%rax, -112(%rbp)	# tmp393, insn
	.loc 1 2304 0
	movq	-112(%rbp), %rax	# insn, tmp394
	movq	24(%rax), %rax	# insn_179->fld[2].rtx, tmp395
	movq	%rax, -48(%rbp)	# tmp395, next
.L281:
	.loc 1 2308 0 discriminator 1
	movl	-200(%rbp), %edx	# prescan, tmp396
	movq	-192(%rbp), %rsi	# file, tmp397
	movq	-112(%rbp), %rax	# insn, tmp398
	movl	$1, %r8d	#,
	movl	%edx, %ecx	# tmp396,
	movl	$0, %edx	#,
	movq	%rax, %rdi	# tmp398,
	call	final_scan_insn	#
	movq	%rax, -112(%rbp)	# tmp399, insn
	.loc 1 2309 0 discriminator 1
	movq	-112(%rbp), %rax	# insn, tmp400
	cmpq	-48(%rbp), %rax	# next, tmp400
	jne	.L281	#,
.LBE35:
	.loc 1 2301 0
	addl	$1, -156(%rbp)	#, i
.L280:
	.loc 1 2301 0 is_stmt 0 discriminator 1
	movq	-88(%rbp), %rax	# body, tmp401
	movq	8(%rax), %rax	# body_148->fld[0].rtvec, D.16639
	movl	(%rax), %eax	# _176->num_elem, D.16622
	cmpl	-156(%rbp), %eax	# i, D.16622
	jg	.L282	#,
	.loc 1 2314 0 is_stmt 1
	movq	$0, final_sequence(%rip)	#, final_sequence
	.loc 1 2325 0
	jmp	.L212	#
.L277:
.LBE34:
	.loc 1 2330 0
	movq	-184(%rbp), %rax	# insn, tmp403
	movq	32(%rax), %rax	# insn_13(D)->fld[3].rtx, tmp404
	movq	%rax, -88(%rbp)	# tmp404, body
	.loc 1 2539 0
	movq	-184(%rbp), %rax	# insn, tmp405
	movl	40(%rax), %eax	# insn_13(D)->fld[4].rtint, D.16622
	testl	%eax, %eax	# D.16622
	js	.L283	#,
	.loc 1 2539 0 is_stmt 0 discriminator 1
	movq	-184(%rbp), %rax	# insn, tmp406
	movl	40(%rax), %eax	# insn_13(D)->fld[4].rtint, iftmp.268
	jmp	.L284	#
.L283:
	.loc 1 2539 0 discriminator 2
	movq	-184(%rbp), %rax	# insn, tmp407
	movq	%rax, %rdi	# tmp407,
	call	recog_memoized_1	#
.L284:
	.loc 1 2539 0 discriminator 3
	movl	%eax, -128(%rbp)	# iftmp.268, insn_code_number
	.loc 1 2540 0 is_stmt 1 discriminator 3
	movq	-184(%rbp), %rax	# insn, tmp408
	movq	%rax, %rdi	# tmp408,
	call	cleanup_subreg_operands	#
	.loc 1 2543 0 discriminator 3
	movl	flag_dump_rtl_in_asm(%rip), %eax	# flag_dump_rtl_in_asm, flag_dump_rtl_in_asm.269
	testl	%eax, %eax	# flag_dump_rtl_in_asm.269
	je	.L285	#,
	.loc 1 2545 0
	movq	$.LC16, print_rtx_head(%rip)	#, print_rtx_head
	.loc 1 2546 0
	movq	asm_out_file(%rip), %rax	# asm_out_file, asm_out_file.270
	movq	-184(%rbp), %rdx	# insn, tmp409
	movq	%rdx, %rsi	# tmp409,
	movq	%rax, %rdi	# asm_out_file.270,
	call	print_rtl_single	#
	.loc 1 2547 0
	movq	$.LC25, print_rtx_head(%rip)	#, print_rtx_head
.L285:
	.loc 1 2550 0
	movl	$1, %edi	#,
	call	constrain_operands_cached	#
	testl	%eax, %eax	# D.16622
	jne	.L286	#,
	.loc 1 2551 0
	movq	-184(%rbp), %rax	# insn, tmp410
	movl	$__FUNCTION__.14120, %ecx	#,
	movl	$2551, %edx	#,
	movl	$.LC0, %esi	#,
	movq	%rax, %rdi	# tmp410,
	call	_fatal_insn_not_found	#
.L286:
	.loc 1 2578 0
	movq	-184(%rbp), %rax	# insn, tmp411
	movq	%rax, debug_insn(%rip)	# tmp411, debug_insn
	movq	debug_insn(%rip), %rax	# debug_insn, debug_insn.271
	movq	%rax, current_output_insn(%rip)	# debug_insn.271, current_output_insn
	.loc 1 2581 0
	movq	-184(%rbp), %rax	# insn, tmp412
	movzwl	(%rax), %eax	# insn_13(D)->code, D.16620
	cmpw	$34, %ax	#, D.16620
	jne	.L287	#,
	.loc 1 2581 0 is_stmt 0 discriminator 1
	call	dwarf2out_do_frame	#
	testl	%eax, %eax	# D.16622
	je	.L287	#,
	.loc 1 2582 0 is_stmt 1
	movq	-184(%rbp), %rax	# insn, tmp413
	movq	%rax, %rdi	# tmp413,
	call	dwarf2out_frame_debug	#
.L287:
	.loc 1 2586 0
	movq	-184(%rbp), %rdx	# insn, tmp414
	movl	-128(%rbp), %eax	# insn_code_number, tmp415
	movq	%rdx, %rsi	# tmp414,
	movl	%eax, %edi	# tmp415,
	call	get_insn_template	#
	movq	%rax, -40(%rbp)	# tmp416, template
	.loc 1 2591 0
	cmpq	$0, -40(%rbp)	#, template
	jne	.L288	#,
.LBB36:
	.loc 1 2595 0
	movq	-184(%rbp), %rax	# insn, tmp417
	movq	%rax, %rdi	# tmp417,
	call	prev_nonnote_insn	#
	movq	last_ignored_compare(%rip), %rdx	# last_ignored_compare, last_ignored_compare.272
	cmpq	%rdx, %rax	# last_ignored_compare.272, D.16636
	je	.L289	#,
	.loc 1 2596 0
	movl	$__FUNCTION__.14120, %edx	#,
	movl	$2596, %esi	#,
	movl	$.LC0, %edi	#,
	call	fancy_abort	#
.L289:
	.loc 1 2597 0
	movl	$0, new_block(%rip)	#, new_block
	.loc 1 2603 0
	movq	-184(%rbp), %rax	# insn, tmp418
	movq	%rax, -104(%rbp)	# tmp418, prev
	jmp	.L290	#
.L292:
	.loc 1 2607 0
	movq	-104(%rbp), %rax	# prev, tmp419
	movzwl	(%rax), %eax	# prev_8->code, D.16620
	cmpw	$37, %ax	#, D.16620
	jne	.L291	#,
	.loc 1 2608 0
	movq	-104(%rbp), %rax	# prev, tmp420
	movq	%rax, %rdi	# tmp420,
	call	delete_insn	#
.L291:
	.loc 1 2605 0
	movq	-104(%rbp), %rax	# prev, tmp421
	movq	16(%rax), %rax	# prev_8->fld[1].rtx, tmp422
	movq	%rax, -104(%rbp)	# tmp422, prev
.L290:
	.loc 1 2604 0 discriminator 1
	movq	last_ignored_compare(%rip), %rax	# last_ignored_compare, last_ignored_compare.273
	.loc 1 2603 0 discriminator 1
	cmpq	%rax, -104(%rbp)	# last_ignored_compare.273, prev
	jne	.L292	#,
	.loc 1 2611 0
	movq	-104(%rbp), %rax	# prev, D.16618
	jmp	.L206	#
.L288:
.LBE36:
	.loc 1 2616 0
	movq	-40(%rbp), %rax	# template, tmp423
	movzbl	(%rax), %eax	# *template_197, D.16631
	cmpb	$35, %al	#, D.16631
	jne	.L293	#,
	.loc 1 2616 0 is_stmt 0 discriminator 1
	movq	-40(%rbp), %rax	# template, tmp424
	addq	$1, %rax	#, D.16637
	movzbl	(%rax), %eax	# *_206, D.16631
	testb	%al, %al	# D.16631
	jne	.L293	#,
.LBB37:
	.loc 1 2618 0 is_stmt 1
	movq	-184(%rbp), %rcx	# insn, tmp425
	movq	-88(%rbp), %rax	# body, tmp426
	movl	$0, %edx	#,
	movq	%rcx, %rsi	# tmp425,
	movq	%rax, %rdi	# tmp426,
	call	try_split	#
	movq	%rax, -32(%rbp)	# tmp427, new
	.loc 1 2621 0
	movq	-32(%rbp), %rax	# new, tmp428
	cmpq	-184(%rbp), %rax	# insn, tmp428
	jne	.L294	#,
	.loc 1 2621 0 is_stmt 0 discriminator 1
	movq	-32(%rbp), %rax	# new, tmp429
	movq	32(%rax), %rax	# new_208->fld[3].rtx, D.16636
	cmpq	-88(%rbp), %rax	# body, D.16636
	jne	.L294	#,
	.loc 1 2622 0 is_stmt 1
	movq	-184(%rbp), %rax	# insn, tmp430
	movl	$__FUNCTION__.14120, %r8d	#,
	movl	$2622, %ecx	#,
	movl	$.LC0, %edx	#,
	movq	%rax, %rsi	# tmp430,
	movl	$.LC26, %edi	#,
	call	_fatal_insn	#
.L294:
	.loc 1 2628 0
	movl	$__FUNCTION__.14120, %edx	#,
	movl	$2628, %esi	#,
	movl	$.LC0, %edi	#,
	call	fancy_abort	#
.L293:
.LBE37:
	.loc 1 2635 0
	cmpl	$0, -200(%rbp)	#, prescan
	jle	.L295	#,
	.loc 1 2636 0
	jmp	.L212	#
.L295:
	.loc 1 2643 0
	movq	-40(%rbp), %rax	# template, tmp431
	movl	$recog_data, %esi	#,
	movq	%rax, %rdi	# tmp431,
	call	output_asm_insn	#
	.loc 1 2647 0
	movq	-184(%rbp), %rax	# insn, tmp432
	movzwl	(%rax), %eax	# insn_13(D)->code, D.16620
	cmpw	$32, %ax	#, D.16620
	jne	.L296	#,
	.loc 1 2647 0 is_stmt 0 discriminator 1
	call	dwarf2out_do_frame	#
	testl	%eax, %eax	# D.16622
	je	.L296	#,
	.loc 1 2648 0 is_stmt 1
	movq	-184(%rbp), %rax	# insn, tmp433
	movq	%rax, %rdi	# tmp433,
	call	dwarf2out_frame_debug	#
.L296:
	.loc 1 2667 0
	movq	-184(%rbp), %rax	# insn, tmp434
	movl	$0, %edx	#,
	movl	$30, %esi	#,
	movq	%rax, %rdi	# tmp434,
	call	find_reg_note	#
	movq	%rax, -24(%rbp)	# tmp435, note
	.loc 1 2668 0
	cmpq	$0, -24(%rbp)	#, note
	je	.L297	#,
	.loc 1 2670 0
	movq	-24(%rbp), %rax	# note, tmp436
	movq	8(%rax), %rax	# note_212->fld[0].rtx, D.16636
	movq	16(%rax), %rax	# _213->fld[1].rtx, D.16636
	.loc 1 2669 0
	movq	8(%rax), %rdx	# _214->fld[0].rtwint, D.16640
	movq	-24(%rbp), %rax	# note, tmp437
	movq	8(%rax), %rax	# note_212->fld[0].rtx, D.16636
	movq	8(%rax), %rax	# _216->fld[0].rtx, D.16636
	movq	%rdx, %rsi	# D.16640,
	movq	%rax, %rdi	# D.16636,
	call	assemble_vtable_entry	#
.L297:
	.loc 1 2672 0
	movq	$0, debug_insn(%rip)	#, debug_insn
	movq	debug_insn(%rip), %rax	# debug_insn, debug_insn.274
	movq	%rax, current_output_insn(%rip)	# debug_insn.274, current_output_insn
.L212:
.LBE30:
	.loc 1 2675 0
	movq	-184(%rbp), %rax	# insn, tmp438
	movq	24(%rax), %rax	# insn_13(D)->fld[2].rtx, D.16618
.L206:
	.loc 1 2676 0
	movq	-8(%rbp), %rbx	#,
	leave
	.cfi_def_cfa 7, 8
	ret
	.cfi_endproc
.LFE23:
	.size	final_scan_insn, .-final_scan_insn
	.type	notice_source_line, @function
notice_source_line:
.LFB24:
	.loc 1 2684 0
	.cfi_startproc
	pushq	%rbp	#
	.cfi_def_cfa_offset 16
	.cfi_offset 6, -16
	movq	%rsp, %rbp	#,
	.cfi_def_cfa_register 6
	movq	%rdi, -24(%rbp)	# insn, insn
	.loc 1 2685 0
	movq	-24(%rbp), %rax	# insn, tmp66
	movq	32(%rax), %rax	# insn_1(D)->fld[3].rtstr, tmp67
	movq	%rax, -8(%rbp)	# tmp67, filename
	.loc 1 2687 0
	movq	-8(%rbp), %rax	# filename, tmp68
	movq	%rax, last_filename(%rip)	# tmp68, last_filename
	.loc 1 2688 0
	movq	-24(%rbp), %rax	# insn, tmp69
	movl	40(%rax), %eax	# insn_1(D)->fld[4].rtint, last_linenum.275
	movl	%eax, last_linenum(%rip)	# last_linenum.275, last_linenum
	.loc 1 2689 0
	movl	high_block_linenum(%rip), %edx	# high_block_linenum, high_block_linenum.276
	movl	last_linenum(%rip), %eax	# last_linenum, last_linenum.277
	cmpl	%eax, %edx	# last_linenum.277, high_block_linenum.276
	cmovge	%edx, %eax	# high_block_linenum.276,, high_block_linenum.278
	movl	%eax, high_block_linenum(%rip)	# high_block_linenum.278, high_block_linenum
	.loc 1 2690 0
	movl	high_function_linenum(%rip), %edx	# high_function_linenum, high_function_linenum.279
	movl	last_linenum(%rip), %eax	# last_linenum, last_linenum.280
	cmpl	%eax, %edx	# last_linenum.280, high_function_linenum.279
	cmovge	%edx, %eax	# high_function_linenum.279,, high_function_linenum.281
	movl	%eax, high_function_linenum(%rip)	# high_function_linenum.281, high_function_linenum
	.loc 1 2691 0
	popq	%rbp	#
	.cfi_def_cfa 7, 8
	ret
	.cfi_endproc
.LFE24:
	.size	notice_source_line, .-notice_source_line
	.globl	cleanup_subreg_operands
	.type	cleanup_subreg_operands, @function
cleanup_subreg_operands:
.LFB25:
	.loc 1 2699 0
	.cfi_startproc
	pushq	%rbp	#
	.cfi_def_cfa_offset 16
	.cfi_offset 6, -16
	movq	%rsp, %rbp	#,
	.cfi_def_cfa_register 6
	pushq	%rbx	#
	subq	$40, %rsp	#,
	.cfi_offset 3, -24
	movq	%rdi, -40(%rbp)	# insn, insn
	.loc 1 2701 0
	movq	-40(%rbp), %rax	# insn, tmp94
	movq	%rax, %rdi	# tmp94,
	call	extract_insn_cached	#
	.loc 1 2702 0
	movl	$0, -20(%rbp)	#, i
	jmp	.L302	#
.L306:
	.loc 1 2709 0
	movl	-20(%rbp), %eax	# i, tmp96
	cltq
	addq	$30, %rax	#, tmp97
	movq	recog_data(,%rax,8), %rax	# recog_data.operand_loc, D.16655
	movq	(%rax), %rax	# *_7, D.16656
	movzwl	(%rax), %eax	# _8->code, D.16657
	cmpw	$63, %ax	#, D.16657
	jne	.L303	#,
	.loc 1 2710 0
	movl	-20(%rbp), %eax	# i, tmp99
	cltq
	addq	$30, %rax	#, tmp100
	movq	recog_data(,%rax,8), %rax	# recog_data.operand_loc, D.16655
	movq	%rax, %rdi	# D.16655,
	call	alter_subreg	#
	movl	-20(%rbp), %edx	# i, tmp102
	movslq	%edx, %rdx	# tmp102, tmp101
	movq	%rax, recog_data(,%rdx,8)	# D.16656, recog_data.operand
	jmp	.L304	#
.L303:
	.loc 1 2711 0
	movl	-20(%rbp), %eax	# i, tmp104
	cltq
	movq	recog_data(,%rax,8), %rax	# recog_data.operand, D.16656
	movzwl	(%rax), %eax	# _12->code, D.16657
	cmpw	$75, %ax	#, D.16657
	je	.L305	#,
	.loc 1 2712 0
	movl	-20(%rbp), %eax	# i, tmp106
	cltq
	movq	recog_data(,%rax,8), %rax	# recog_data.operand, D.16656
	movzwl	(%rax), %eax	# _14->code, D.16657
	cmpw	$78, %ax	#, D.16657
	je	.L305	#,
	.loc 1 2713 0
	movl	-20(%rbp), %eax	# i, tmp108
	cltq
	movq	recog_data(,%rax,8), %rax	# recog_data.operand, D.16656
	movzwl	(%rax), %eax	# _16->code, D.16657
	cmpw	$66, %ax	#, D.16657
	jne	.L304	#,
.L305:
	.loc 1 2714 0
	movl	-20(%rbp), %eax	# i, tmp110
	cltq
	addq	$30, %rax	#, tmp111
	movq	recog_data(,%rax,8), %rax	# recog_data.operand_loc, D.16655
	movq	%rax, %rdi	# D.16655,
	call	walk_alter_subreg	#
	movl	-20(%rbp), %edx	# i, tmp113
	movslq	%edx, %rdx	# tmp113, tmp112
	movq	%rax, recog_data(,%rdx,8)	# D.16656, recog_data.operand
.L304:
	.loc 1 2702 0
	addl	$1, -20(%rbp)	#, i
.L302:
	.loc 1 2702 0 is_stmt 0 discriminator 1
	movzbl	recog_data+996(%rip), %eax	# recog_data.n_operands, D.16653
	movsbl	%al, %eax	# D.16653, D.16654
	cmpl	-20(%rbp), %eax	# i, D.16654
	jg	.L306	#,
	.loc 1 2717 0 is_stmt 1
	movl	$0, -20(%rbp)	#, i
	jmp	.L307	#
.L311:
	.loc 1 2719 0
	movl	-20(%rbp), %eax	# i, tmp115
	cltq
	addq	$120, %rax	#, tmp116
	movq	recog_data(,%rax,8), %rax	# recog_data.dup_loc, D.16655
	movq	(%rax), %rax	# *_24, D.16656
	movzwl	(%rax), %eax	# _25->code, D.16657
	cmpw	$63, %ax	#, D.16657
	jne	.L308	#,
	.loc 1 2720 0
	movl	-20(%rbp), %eax	# i, tmp118
	cltq
	addq	$120, %rax	#, tmp119
	movq	recog_data(,%rax,8), %rbx	# recog_data.dup_loc, D.16655
	movl	-20(%rbp), %eax	# i, tmp121
	cltq
	addq	$120, %rax	#, tmp122
	movq	recog_data(,%rax,8), %rax	# recog_data.dup_loc, D.16655
	movq	%rax, %rdi	# D.16655,
	call	alter_subreg	#
	movq	%rax, (%rbx)	# D.16656, *_27
	jmp	.L309	#
.L308:
	.loc 1 2721 0
	movl	-20(%rbp), %eax	# i, tmp124
	cltq
	addq	$120, %rax	#, tmp125
	movq	recog_data(,%rax,8), %rax	# recog_data.dup_loc, D.16655
	movq	(%rax), %rax	# *_30, D.16656
	movzwl	(%rax), %eax	# _31->code, D.16657
	cmpw	$75, %ax	#, D.16657
	je	.L310	#,
	.loc 1 2722 0
	movl	-20(%rbp), %eax	# i, tmp127
	cltq
	addq	$120, %rax	#, tmp128
	movq	recog_data(,%rax,8), %rax	# recog_data.dup_loc, D.16655
	movq	(%rax), %rax	# *_33, D.16656
	movzwl	(%rax), %eax	# _34->code, D.16657
	cmpw	$78, %ax	#, D.16657
	je	.L310	#,
	.loc 1 2723 0
	movl	-20(%rbp), %eax	# i, tmp130
	cltq
	addq	$120, %rax	#, tmp131
	movq	recog_data(,%rax,8), %rax	# recog_data.dup_loc, D.16655
	movq	(%rax), %rax	# *_36, D.16656
	movzwl	(%rax), %eax	# _37->code, D.16657
	cmpw	$66, %ax	#, D.16657
	jne	.L309	#,
.L310:
	.loc 1 2724 0
	movl	-20(%rbp), %eax	# i, tmp133
	cltq
	addq	$120, %rax	#, tmp134
	movq	recog_data(,%rax,8), %rbx	# recog_data.dup_loc, D.16655
	movl	-20(%rbp), %eax	# i, tmp136
	cltq
	addq	$120, %rax	#, tmp137
	movq	recog_data(,%rax,8), %rax	# recog_data.dup_loc, D.16655
	movq	%rax, %rdi	# D.16655,
	call	walk_alter_subreg	#
	movq	%rax, (%rbx)	# D.16656, *_39
.L309:
	.loc 1 2717 0
	addl	$1, -20(%rbp)	#, i
.L307:
	.loc 1 2717 0 is_stmt 0 discriminator 1
	movzbl	recog_data+997(%rip), %eax	# recog_data.n_dups, D.16653
	movsbl	%al, %eax	# D.16653, D.16654
	cmpl	-20(%rbp), %eax	# i, D.16654
	jg	.L311	#,
	.loc 1 2726 0 is_stmt 1
	addq	$40, %rsp	#,
	popq	%rbx	#
	popq	%rbp	#
	.cfi_def_cfa 7, 8
	ret
	.cfi_endproc
.LFE25:
	.size	cleanup_subreg_operands, .-cleanup_subreg_operands
	.globl	alter_subreg
	.type	alter_subreg, @function
alter_subreg:
.LFB26:
	.loc 1 2734 0
	.cfi_startproc
	pushq	%rbp	#
	.cfi_def_cfa_offset 16
	.cfi_offset 6, -16
	movq	%rsp, %rbp	#,
	.cfi_def_cfa_register 6
	subq	$48, %rsp	#,
	movq	%rdi, -40(%rbp)	# xp, xp
	.loc 1 2735 0
	movq	-40(%rbp), %rax	# xp, tmp75
	movq	(%rax), %rax	# *xp_1(D), tmp76
	movq	%rax, -24(%rbp)	# tmp76, x
	.loc 1 2736 0
	movq	-24(%rbp), %rax	# x, tmp77
	movq	8(%rax), %rax	# x_2->fld[0].rtx, tmp78
	movq	%rax, -16(%rbp)	# tmp78, y
	.loc 1 2740 0
	movq	-16(%rbp), %rax	# y, tmp79
	movzwl	(%rax), %eax	# y_3->code, D.16658
	cmpw	$66, %ax	#, D.16658
	jne	.L313	#,
	.loc 1 2741 0
	movq	-24(%rbp), %rax	# x, tmp80
	movl	16(%rax), %eax	# x_2->fld[1].rtuint, D.16659
	movl	%eax, %edx	# D.16659, D.16660
	movq	-24(%rbp), %rax	# x, tmp81
	movzbl	2(%rax), %eax	# x_2->mode, D.16661
	movzbl	%al, %esi	# D.16661, D.16662
	movq	-16(%rbp), %rax	# y, tmp82
	movl	$1, %r8d	#,
	movl	$1, %ecx	#,
	movq	%rax, %rdi	# tmp82,
	call	adjust_address_1	#
	movq	-40(%rbp), %rdx	# xp, tmp83
	movq	%rax, (%rdx)	# D.16663, *xp_1(D)
	jmp	.L314	#
.L313:
.LBB38:
	.loc 1 2744 0
	movq	-24(%rbp), %rax	# x, tmp84
	movl	16(%rax), %ecx	# x_2->fld[1].rtuint, D.16659
	movq	-16(%rbp), %rax	# y, tmp85
	movzbl	2(%rax), %eax	# y_3->mode, D.16661
	movzbl	%al, %edx	# D.16661, D.16662
	movq	-24(%rbp), %rax	# x, tmp86
	movzbl	2(%rax), %eax	# x_2->mode, D.16661
	movzbl	%al, %eax	# D.16661, D.16662
	movq	-16(%rbp), %rsi	# y, tmp87
	movl	%eax, %edi	# D.16662,
	call	simplify_subreg	#
	movq	%rax, -8(%rbp)	# tmp88, new
	.loc 1 2747 0
	cmpq	$0, -8(%rbp)	#, new
	je	.L315	#,
	.loc 1 2748 0
	movq	-40(%rbp), %rax	# xp, tmp89
	movq	-8(%rbp), %rdx	# new, tmp90
	movq	%rdx, (%rax)	# tmp90, *xp_1(D)
	jmp	.L314	#
.L315:
	.loc 1 2750 0
	movq	-16(%rbp), %rax	# y, tmp91
	movzwl	(%rax), %eax	# y_3->code, D.16658
	cmpw	$61, %ax	#, D.16658
	jne	.L316	#,
.LBB39:
	.loc 1 2752 0
	movq	-24(%rbp), %rax	# x, tmp92
	movl	$1, %esi	#,
	movq	%rax, %rdi	# tmp92,
	call	subreg_hard_regno	#
	movl	%eax, -28(%rbp)	# D.16664, regno
	.loc 1 2753 0
	movq	-24(%rbp), %rax	# x, tmp93
	movw	$61, (%rax)	#, x_2->code
	.loc 1 2754 0
	movq	-24(%rbp), %rax	# x, tmp94
	movl	-28(%rbp), %edx	# regno, tmp95
	movl	%edx, 8(%rax)	# tmp95, x_2->fld[0].rtuint
	.loc 1 2755 0
	movq	-16(%rbp), %rax	# y, tmp96
	movl	16(%rax), %edx	# y_3->fld[1].rtuint, D.16659
	movq	-24(%rbp), %rax	# x, tmp97
	movl	%edx, 16(%rax)	# D.16659, x_2->fld[1].rtuint
	.loc 1 2758 0
	movq	-24(%rbp), %rax	# x, tmp98
	movzbl	3(%rax), %edx	# x_2->used, tmp101
	andl	$-33, %edx	#, tmp102
	movb	%dl, 3(%rax)	# tmp102, x_2->used
.LBE39:
	jmp	.L314	#
.L316:
	.loc 1 2761 0
	movl	$__FUNCTION__.14188, %edx	#,
	movl	$2761, %esi	#,
	movl	$.LC0, %edi	#,
	call	fancy_abort	#
.L314:
.LBE38:
	.loc 1 2764 0
	movq	-40(%rbp), %rax	# xp, tmp103
	movq	(%rax), %rax	# *xp_1(D), D.16665
	.loc 1 2765 0
	leave
	.cfi_def_cfa 7, 8
	ret
	.cfi_endproc
.LFE26:
	.size	alter_subreg, .-alter_subreg
	.type	walk_alter_subreg, @function
walk_alter_subreg:
.LFB27:
	.loc 1 2772 0
	.cfi_startproc
	pushq	%rbp	#
	.cfi_def_cfa_offset 16
	.cfi_offset 6, -16
	movq	%rsp, %rbp	#,
	.cfi_def_cfa_register 6
	subq	$32, %rsp	#,
	movq	%rdi, -24(%rbp)	# xp, xp
	.loc 1 2773 0
	movq	-24(%rbp), %rax	# xp, tmp69
	movq	(%rax), %rax	# *xp_2(D), tmp70
	movq	%rax, -8(%rbp)	# tmp70, x
	.loc 1 2774 0
	movq	-8(%rbp), %rax	# x, tmp71
	movzwl	(%rax), %eax	# x_3->code, D.16667
	movzwl	%ax, %eax	# D.16667, D.16668
	cmpl	$66, %eax	#, D.16668
	je	.L320	#,
	cmpl	$66, %eax	#, D.16668
	ja	.L321	#,
	cmpl	$63, %eax	#, D.16668
	je	.L322	#,
	.loc 1 2790 0
	jmp	.L324	#
.L321:
	.loc 1 2774 0
	cmpl	$75, %eax	#, D.16668
	je	.L323	#,
	cmpl	$78, %eax	#, D.16668
	je	.L323	#,
	.loc 1 2790 0
	jmp	.L324	#
.L323:
	.loc 1 2778 0
	movq	-8(%rbp), %rax	# x, tmp72
	addq	$8, %rax	#, D.16669
	movq	%rax, %rdi	# D.16669,
	call	walk_alter_subreg	#
	movq	-8(%rbp), %rdx	# x, tmp73
	movq	%rax, 8(%rdx)	# D.16670, x_3->fld[0].rtx
	.loc 1 2779 0
	movq	-8(%rbp), %rax	# x, tmp74
	addq	$16, %rax	#, D.16669
	movq	%rax, %rdi	# D.16669,
	call	walk_alter_subreg	#
	movq	-8(%rbp), %rdx	# x, tmp75
	movq	%rax, 16(%rdx)	# D.16670, x_3->fld[1].rtx
	.loc 1 2780 0
	jmp	.L324	#
.L320:
	.loc 1 2783 0
	movq	-8(%rbp), %rax	# x, tmp76
	addq	$8, %rax	#, D.16669
	movq	%rax, %rdi	# D.16669,
	call	walk_alter_subreg	#
	movq	-8(%rbp), %rdx	# x, tmp77
	movq	%rax, 8(%rdx)	# D.16670, x_3->fld[0].rtx
	.loc 1 2784 0
	jmp	.L324	#
.L322:
	.loc 1 2787 0
	movq	-24(%rbp), %rax	# xp, tmp78
	movq	%rax, %rdi	# tmp78,
	call	alter_subreg	#
	jmp	.L325	#
.L324:
	.loc 1 2793 0
	movq	-24(%rbp), %rax	# xp, tmp79
	movq	(%rax), %rax	# *xp_2(D), D.16666
.L325:
	.loc 1 2794 0
	leave
	.cfi_def_cfa 7, 8
	ret
	.cfi_endproc
.LFE27:
	.size	walk_alter_subreg, .-walk_alter_subreg
	.section	.rodata
.LC27:
	.string	"invalid `asm': "
.LC28:
	.string	"output_operand: "
.LC29:
	.string	"%s%s"
.LC30:
	.string	"%s"
	.text
	.globl	output_operand_lossage
	.type	output_operand_lossage, @function
output_operand_lossage:
.LFB28:
	.loc 1 2963 0
	.cfi_startproc
	pushq	%rbp	#
	.cfi_def_cfa_offset 16
	.cfi_offset 6, -16
	movq	%rsp, %rbp	#,
	.cfi_def_cfa_register 6
	subq	$240, %rsp	#,
	movq	%rsi, -168(%rbp)	#,
	movq	%rdx, -160(%rbp)	#,
	movq	%rcx, -152(%rbp)	#,
	movq	%r8, -144(%rbp)	#,
	movq	%r9, -136(%rbp)	#,
	testb	%al, %al	#
	je	.L327	#,
	.loc 1 2963 0
	movaps	%xmm0, -128(%rbp)	#,
	movaps	%xmm1, -112(%rbp)	#,
	movaps	%xmm2, -96(%rbp)	#,
	movaps	%xmm3, -80(%rbp)	#,
	movaps	%xmm4, -64(%rbp)	#,
	movaps	%xmm5, -48(%rbp)	#,
	movaps	%xmm6, -32(%rbp)	#,
	movaps	%xmm7, -16(%rbp)	#,
.L327:
	movq	%rdi, -232(%rbp)	# msgid, msgid
.LBB40:
	.loc 1 2967 0
	movl	$8, -200(%rbp)	#, MEM[(struct [1] *)&ap].gp_offset
	movl	$48, -196(%rbp)	#, MEM[(struct [1] *)&ap].fp_offset
	leaq	16(%rbp), %rax	#, tmp74
	movq	%rax, -192(%rbp)	# tmp74, MEM[(struct [1] *)&ap].overflow_arg_area
	leaq	-176(%rbp), %rax	#, tmp75
	movq	%rax, -184(%rbp)	# tmp75, MEM[(struct [1] *)&ap].reg_save_area
.LBB41:
	.loc 1 2970 0
	movq	this_is_asm_operands(%rip), %rax	# this_is_asm_operands, this_is_asm_operands.283
	testq	%rax, %rax	# this_is_asm_operands.283
	je	.L328	#,
	.loc 1 2970 0 is_stmt 0 discriminator 1
	movl	$.LC27, %eax	#, iftmp.282
	jmp	.L329	#
.L328:
	.loc 1 2970 0 discriminator 2
	movl	$.LC28, %eax	#, iftmp.282
.L329:
	.loc 1 2970 0 discriminator 3
	movq	%rax, -208(%rbp)	# iftmp.282, pfx_str
	.loc 1 2971 0 is_stmt 1 discriminator 3
	movq	-232(%rbp), %rcx	# msgid, tmp69
	movq	-208(%rbp), %rdx	# pfx_str, tmp70
	leaq	-224(%rbp), %rax	#, tmp71
	movl	$.LC29, %esi	#,
	movq	%rax, %rdi	# tmp71,
	movl	$0, %eax	#,
	call	asprintf	#
	.loc 1 2972 0 discriminator 3
	movq	-224(%rbp), %rcx	# fmt_string, fmt_string.284
	leaq	-200(%rbp), %rdx	#, tmp72
	leaq	-216(%rbp), %rax	#, tmp73
	movq	%rcx, %rsi	# fmt_string.284,
	movq	%rax, %rdi	# tmp73,
	call	vasprintf	#
	.loc 1 2974 0 discriminator 3
	movq	this_is_asm_operands(%rip), %rax	# this_is_asm_operands, this_is_asm_operands.285
	testq	%rax, %rax	# this_is_asm_operands.285
	je	.L330	#,
	.loc 1 2975 0
	movq	-216(%rbp), %rdx	# new_message, new_message.286
	movq	this_is_asm_operands(%rip), %rax	# this_is_asm_operands, this_is_asm_operands.287
	movl	$.LC30, %esi	#,
	movq	%rax, %rdi	# this_is_asm_operands.287,
	movl	$0, %eax	#,
	call	error_for_asm	#
	jmp	.L332	#
.L330:
	.loc 1 2977 0
	movq	-216(%rbp), %rax	# new_message, new_message.288
	movq	%rax, %rsi	# new_message.288,
	movl	$.LC30, %edi	#,
	movl	$0, %eax	#,
	call	internal_error	#
.L332:
	.loc 1 2979 0
	movq	-224(%rbp), %rax	# fmt_string, fmt_string.289
	movq	%rax, %rdi	# fmt_string.289,
	call	free	#
	.loc 1 2980 0
	movq	-216(%rbp), %rax	# new_message, new_message.290
	movq	%rax, %rdi	# new_message.290,
	call	free	#
.LBE41:
.LBE40:
	.loc 1 2982 0
	leave
	.cfi_def_cfa 7, 8
	ret
	.cfi_endproc
.LFE28:
	.size	output_operand_lossage, .-output_operand_lossage
	.section	.rodata
.LC31:
	.string	"\t%s %d\t%s"
.LC32:
	.string	"/%d"
.LC33:
	.string	"\t[length = %d]"
	.text
	.type	output_asm_name, @function
output_asm_name:
.LFB29:
	.loc 1 2991 0
	.cfi_startproc
	pushq	%rbp	#
	.cfi_def_cfa_offset 16
	.cfi_offset 6, -16
	movq	%rsp, %rbp	#,
	.cfi_def_cfa_register 6
	subq	$16, %rsp	#,
	.loc 1 2992 0
	movq	debug_insn(%rip), %rax	# debug_insn, debug_insn.291
	testq	%rax, %rax	# debug_insn.291
	je	.L333	#,
.LBB42:
	.loc 1 2994 0
	movq	debug_insn(%rip), %rax	# debug_insn, debug_insn.292
	movl	40(%rax), %eax	# debug_insn.292_2->fld[4].rtint, tmp72
	movl	%eax, -4(%rbp)	# tmp72, num
	.loc 1 2995 0
	movl	-4(%rbp), %eax	# num, tmp74
	movslq	%eax, %rdx	# tmp74, tmp73
	movq	%rdx, %rax	# tmp73, tmp75
	salq	$2, %rax	#, tmp75
	addq	%rdx, %rax	# tmp73, tmp75
	salq	$3, %rax	#, tmp76
	addq	$insn_data, %rax	#, tmp77
	movq	(%rax), %rcx	# insn_data[num_3].name, D.16678
	.loc 1 2996 0
	movq	debug_insn(%rip), %rax	# debug_insn, debug_insn.293
	.loc 1 2995 0
	movl	8(%rax), %edx	# debug_insn.293_5->fld[0].rtint, D.16679
	movq	asm_out_file(%rip), %rax	# asm_out_file, asm_out_file.294
	movq	%rcx, %r8	# D.16678,
	movl	%edx, %ecx	# D.16679,
	movl	$.LC16, %edx	#,
	movl	$.LC31, %esi	#,
	movq	%rax, %rdi	# asm_out_file.294,
	movl	$0, %eax	#,
	call	fprintf	#
	.loc 1 2998 0
	movl	-4(%rbp), %eax	# num, tmp79
	movslq	%eax, %rdx	# tmp79, tmp78
	movq	%rdx, %rax	# tmp78, tmp80
	salq	$2, %rax	#, tmp80
	addq	%rdx, %rax	# tmp78, tmp80
	salq	$3, %rax	#, tmp81
	addq	$insn_data+32, %rax	#, tmp82
	movzbl	2(%rax), %eax	# insn_data[num_3].n_alternatives, D.16680
	cmpb	$1, %al	#, D.16680
	jle	.L335	#,
	.loc 1 2999 0
	movl	which_alternative(%rip), %eax	# which_alternative, which_alternative.295
	leal	1(%rax), %edx	#, D.16679
	movq	asm_out_file(%rip), %rax	# asm_out_file, asm_out_file.296
	movl	$.LC32, %esi	#,
	movq	%rax, %rdi	# asm_out_file.296,
	movl	$0, %eax	#,
	call	fprintf	#
.L335:
	.loc 1 3001 0
	movq	debug_insn(%rip), %rax	# debug_insn, debug_insn.297
	movq	%rax, %rdi	# debug_insn.297,
	call	get_attr_length	#
	movl	%eax, %edx	#, D.16679
	movq	asm_out_file(%rip), %rax	# asm_out_file, asm_out_file.298
	movl	$.LC33, %esi	#,
	movq	%rax, %rdi	# asm_out_file.298,
	movl	$0, %eax	#,
	call	fprintf	#
	.loc 1 3006 0
	movq	$0, debug_insn(%rip)	#, debug_insn
.L333:
.LBE42:
	.loc 1 3008 0
	leave
	.cfi_def_cfa 7, 8
	ret
	.cfi_endproc
.LFE29:
	.size	output_asm_name, .-output_asm_name
	.type	get_mem_expr_from_op, @function
get_mem_expr_from_op:
.LFB30:
	.loc 1 3018 0
	.cfi_startproc
	pushq	%rbp	#
	.cfi_def_cfa_offset 16
	.cfi_offset 6, -16
	movq	%rsp, %rbp	#,
	.cfi_def_cfa_register 6
	subq	$32, %rsp	#,
	movq	%rdi, -24(%rbp)	# op, op
	movq	%rsi, -32(%rbp)	# paddressp, paddressp
	.loc 1 3022 0
	movq	-32(%rbp), %rax	# paddressp, tmp88
	movl	$0, (%rax)	#, *paddressp_5(D)
	.loc 1 3024 0
	cmpq	$0, -24(%rbp)	#, op
	jne	.L337	#,
	.loc 1 3025 0
	movl	$0, %eax	#, D.16684
	jmp	.L350	#
.L337:
	.loc 1 3027 0
	movq	-24(%rbp), %rax	# op, tmp89
	movzwl	(%rax), %eax	# op_6(D)->code, D.16685
	cmpw	$61, %ax	#, D.16685
	jne	.L339	#,
	.loc 1 3027 0 is_stmt 0 discriminator 1
	movq	-24(%rbp), %rax	# op, tmp90
	movl	16(%rax), %eax	# op_6(D)->fld[1].rtuint, D.16686
	cmpl	$52, %eax	#, D.16686
	jbe	.L339	#,
	.loc 1 3028 0 is_stmt 1
	movq	cfun(%rip), %rax	# cfun, cfun.299
	movq	24(%rax), %rax	# cfun.299_10->emit, D.16687
	movq	72(%rax), %rdx	# _11->regno_decl, D.16688
	movq	-24(%rbp), %rax	# op, tmp91
	movl	16(%rax), %eax	# op_6(D)->fld[1].rtuint, D.16686
	movl	%eax, %eax	# D.16686, D.16689
	salq	$3, %rax	#, D.16689
	addq	%rdx, %rax	# D.16688, D.16688
	movq	(%rax), %rax	# *_16, D.16684
	jmp	.L350	#
.L339:
	.loc 1 3029 0
	movq	-24(%rbp), %rax	# op, tmp92
	movzwl	(%rax), %eax	# op_6(D)->code, D.16685
	cmpw	$66, %ax	#, D.16685
	je	.L340	#,
	.loc 1 3030 0
	movl	$0, %eax	#, D.16684
	jmp	.L350	#
.L340:
	.loc 1 3032 0
	movq	-24(%rbp), %rax	# op, tmp93
	movq	16(%rax), %rax	# op_6(D)->fld[1].rtmem, D.16690
	testq	%rax, %rax	# D.16690
	je	.L341	#,
	.loc 1 3032 0 is_stmt 0 discriminator 1
	movq	-24(%rbp), %rax	# op, tmp94
	movq	16(%rax), %rax	# op_6(D)->fld[1].rtmem, D.16690
	movq	8(%rax), %rax	# _21->expr, D.16691
	testq	%rax, %rax	# D.16691
	je	.L341	#,
	.loc 1 3033 0 is_stmt 1
	movq	-24(%rbp), %rax	# op, tmp95
	movq	16(%rax), %rax	# op_6(D)->fld[1].rtmem, D.16690
	testq	%rax, %rax	# D.16690
	je	.L342	#,
	.loc 1 3033 0 is_stmt 0 discriminator 1
	movq	-24(%rbp), %rax	# op, tmp96
	movq	16(%rax), %rax	# op_6(D)->fld[1].rtmem, D.16690
	movq	8(%rax), %rax	# _24->expr, iftmp.300
	jmp	.L343	#
.L342:
	.loc 1 3033 0 discriminator 2
	movl	$0, %eax	#, iftmp.300
.L343:
	.loc 1 3033 0 discriminator 3
	jmp	.L350	#
.L341:
	.loc 1 3036 0 is_stmt 1
	movq	-32(%rbp), %rax	# paddressp, tmp97
	movl	$1, (%rax)	#, *paddressp_5(D)
	.loc 1 3037 0
	movq	-24(%rbp), %rax	# op, tmp98
	movq	8(%rax), %rax	# op_6(D)->fld[0].rtx, tmp99
	movq	%rax, -24(%rbp)	# tmp99, op
	.loc 1 3042 0
	leaq	-12(%rbp), %rdx	#, tmp100
	movq	-24(%rbp), %rax	# op, tmp101
	movq	%rdx, %rsi	# tmp100,
	movq	%rax, %rdi	# tmp101,
	call	get_mem_expr_from_op	#
	movq	%rax, -8(%rbp)	# tmp102, expr
	cmpq	$0, -8(%rbp)	#, expr
	je	.L344	#,
	.loc 1 3042 0 is_stmt 0 discriminator 1
	movl	-12(%rbp), %eax	# inner_addressp, inner_addressp.301
	testl	%eax, %eax	# inner_addressp.301
	jne	.L344	#,
	.loc 1 3043 0 is_stmt 1
	movq	-8(%rbp), %rax	# expr, D.16684
	jmp	.L350	#
.L344:
	.loc 1 3044 0
	movq	-24(%rbp), %rax	# op, tmp103
	movzwl	(%rax), %eax	# op_28->code, D.16685
	cmpw	$75, %ax	#, D.16685
	jne	.L345	#,
	.loc 1 3045 0
	movq	-24(%rbp), %rax	# op, tmp104
	movq	16(%rax), %rax	# op_28->fld[1].rtx, D.16692
	leaq	-12(%rbp), %rdx	#, tmp105
	movq	%rdx, %rsi	# tmp105,
	movq	%rax, %rdi	# D.16692,
	call	get_mem_expr_from_op	#
	movq	%rax, -8(%rbp)	# tmp106, expr
	cmpq	$0, -8(%rbp)	#, expr
	je	.L345	#,
	.loc 1 3046 0
	movq	-8(%rbp), %rax	# expr, D.16684
	jmp	.L350	#
.L345:
	.loc 1 3048 0
	jmp	.L346	#
.L347:
	.loc 1 3050 0
	movq	-24(%rbp), %rax	# op, tmp107
	movq	8(%rax), %rax	# op_1->fld[0].rtx, tmp108
	movq	%rax, -24(%rbp)	# tmp108, op
.L346:
	.loc 1 3048 0 discriminator 1
	movq	-24(%rbp), %rax	# op, tmp109
	movzwl	(%rax), %eax	# op_1->code, D.16685
	movzwl	%ax, %eax	# D.16685, D.16693
	cltq
	movzbl	rtx_class(%rax), %eax	# rtx_class, D.16694
	cmpb	$49, %al	#, D.16694
	je	.L347	#,
	.loc 1 3049 0
	movq	-24(%rbp), %rax	# op, tmp111
	movzwl	(%rax), %eax	# op_1->code, D.16685
	movzwl	%ax, %eax	# D.16685, D.16693
	cltq
	movzbl	rtx_class(%rax), %eax	# rtx_class, D.16694
	cmpb	$50, %al	#, D.16694
	je	.L347	#,
	.loc 1 3052 0
	leaq	-12(%rbp), %rdx	#, tmp113
	movq	-24(%rbp), %rax	# op, tmp114
	movq	%rdx, %rsi	# tmp113,
	movq	%rax, %rdi	# tmp114,
	call	get_mem_expr_from_op	#
	movq	%rax, -8(%rbp)	# tmp115, expr
	.loc 1 3053 0
	movl	-12(%rbp), %eax	# inner_addressp, inner_addressp.303
	testl	%eax, %eax	# inner_addressp.303
	jne	.L348	#,
	.loc 1 3053 0 is_stmt 0 discriminator 1
	movq	-8(%rbp), %rax	# expr, iftmp.302
	jmp	.L349	#
.L348:
	.loc 1 3053 0 discriminator 2
	movl	$0, %eax	#, iftmp.302
.L349:
.L350:
	.loc 1 3054 0 is_stmt 1
	leave
	.cfi_def_cfa 7, 8
	ret
	.cfi_endproc
.LFE30:
	.size	get_mem_expr_from_op, .-get_mem_expr_from_op
	.section	.rodata
.LC34:
	.string	"*"
.LC35:
	.string	"%c%s %s"
	.text
	.type	output_asm_operand_names, @function
output_asm_operand_names:
.LFB31:
	.loc 1 3065 0
	.cfi_startproc
	pushq	%rbp	#
	.cfi_def_cfa_offset 16
	.cfi_offset 6, -16
	movq	%rsp, %rbp	#,
	.cfi_def_cfa_register 6
	subq	$64, %rsp	#,
	movq	%rdi, -40(%rbp)	# operands, operands
	movq	%rsi, -48(%rbp)	# oporder, oporder
	movl	%edx, -52(%rbp)	# nops, nops
	.loc 1 3066 0
	movl	$0, -16(%rbp)	#, wrote
	.loc 1 3069 0
	movl	$0, -12(%rbp)	#, i
	jmp	.L352	#
.L360:
.LBB43:
	.loc 1 3072 0
	movl	-12(%rbp), %eax	# i, tmp73
	cltq
	leaq	0(,%rax,4), %rdx	#, D.16695
	movq	-48(%rbp), %rax	# oporder, tmp74
	addq	%rdx, %rax	# D.16695, D.16696
	movl	(%rax), %eax	# *_13, D.16697
	cltq
	leaq	0(,%rax,8), %rdx	#, D.16695
	movq	-40(%rbp), %rax	# operands, tmp75
	addq	%rdx, %rax	# D.16695, D.16698
	movq	(%rax), %rax	# *_18, D.16699
	leaq	-20(%rbp), %rdx	#, tmp76
	movq	%rdx, %rsi	# tmp76,
	movq	%rax, %rdi	# D.16699,
	call	get_mem_expr_from_op	#
	movq	%rax, -8(%rbp)	# tmp77, expr
	.loc 1 3074 0
	cmpq	$0, -8(%rbp)	#, expr
	je	.L353	#,
	.loc 1 3078 0
	movl	-20(%rbp), %eax	# addressp, addressp.305
	.loc 1 3076 0
	testl	%eax, %eax	# addressp.305
	je	.L354	#,
	.loc 1 3076 0 is_stmt 0 discriminator 1
	movl	$.LC34, %ecx	#, iftmp.304
	jmp	.L355	#
.L354:
	.loc 1 3076 0 discriminator 2
	movl	$.LC25, %ecx	#, iftmp.304
.L355:
	.loc 1 3076 0 discriminator 3
	cmpl	$0, -16(%rbp)	#, wrote
	je	.L356	#,
	.loc 1 3076 0 discriminator 4
	movl	$.LC25, %edx	#, iftmp.306
	jmp	.L357	#
.L356:
	.loc 1 3076 0 discriminator 5
	movl	$.LC16, %edx	#, iftmp.306
.L357:
	.loc 1 3076 0 discriminator 6
	cmpl	$0, -16(%rbp)	#, wrote
	je	.L358	#,
	.loc 1 3076 0 discriminator 7
	movl	$44, %eax	#, iftmp.307
	jmp	.L359	#
.L358:
	.loc 1 3076 0 discriminator 8
	movl	$9, %eax	#, iftmp.307
.L359:
	.loc 1 3076 0 discriminator 9
	movq	asm_out_file(%rip), %rdi	# asm_out_file, asm_out_file.308
	movq	%rcx, %r8	# iftmp.304,
	movq	%rdx, %rcx	# iftmp.306,
	movl	%eax, %edx	# iftmp.307,
	movl	$.LC35, %esi	#,
	movl	$0, %eax	#,
	call	fprintf	#
	.loc 1 3079 0 is_stmt 1 discriminator 9
	movq	asm_out_file(%rip), %rax	# asm_out_file, asm_out_file.309
	movq	-8(%rbp), %rdx	# expr, tmp78
	movq	%rdx, %rsi	# tmp78,
	movq	%rax, %rdi	# asm_out_file.309,
	call	print_mem_expr	#
	.loc 1 3080 0 discriminator 9
	movl	$1, -16(%rbp)	#, wrote
.L353:
.LBE43:
	.loc 1 3069 0
	addl	$1, -12(%rbp)	#, i
.L352:
	.loc 1 3069 0 is_stmt 0 discriminator 1
	movl	-12(%rbp), %eax	# i, tmp79
	cmpl	-52(%rbp), %eax	# nops, tmp79
	jl	.L360	#,
	.loc 1 3083 0 is_stmt 1
	leave
	.cfi_def_cfa 7, 8
	ret
	.cfi_endproc
.LFE31:
	.size	output_asm_operand_names, .-output_asm_operand_names
	.section	.rodata
	.align 8
.LC36:
	.string	"nested assembly dialect alternatives"
	.align 8
.LC37:
	.string	"unterminated assembly dialect alternative"
.LC38:
	.string	"%d"
	.align 8
.LC39:
	.string	"operand number missing after %%-letter"
.LC40:
	.string	"operand number out of range"
.LC41:
	.string	"%ld"
.LC42:
	.string	"invalid %%-code"
	.text
	.globl	output_asm_insn
	.type	output_asm_insn, @function
output_asm_insn:
.LFB32:
	.loc 1 3105 0
	.cfi_startproc
	pushq	%rbp	#
	.cfi_def_cfa_offset 16
	.cfi_offset 6, -16
	movq	%rsp, %rbp	#,
	.cfi_def_cfa_register 6
	subq	$224, %rsp	#,
	movq	%rdi, -216(%rbp)	# template, template
	movq	%rsi, -224(%rbp)	# operands, operands
	.loc 1 3105 0
	movq	%fs:40, %rax	#, tmp295
	movq	%rax, -8(%rbp)	# tmp295, D.16709
	xorl	%eax, %eax	# tmp295
	.loc 1 3109 0
	movl	$0, -204(%rbp)	#, dialect
	.loc 1 3113 0
	movl	$0, -200(%rbp)	#, ops
	.loc 1 3117 0
	movq	-216(%rbp), %rax	# template, tmp201
	movzbl	(%rax), %eax	# *template_23(D), D.16702
	testb	%al, %al	# D.16702
	je	.L361	#,
	.loc 1 3120 0
	leaq	-48(%rbp), %rax	#, tmp202
	movl	$30, %edx	#,
	movl	$0, %esi	#,
	movq	%rax, %rdi	# tmp202,
	call	memset	#
	.loc 1 3121 0
	movq	-216(%rbp), %rax	# template, tmp203
	movq	%rax, -184(%rbp)	# tmp203, p
	.loc 1 3122 0
	movq	asm_out_file(%rip), %rax	# asm_out_file, asm_out_file.310
	movq	%rax, %rsi	# asm_out_file.310,
	movl	$9, %edi	#,
	call	_IO_putc	#
	.loc 1 3128 0
	jmp	.L364	#
.L419:
	.loc 1 3129 0
	movl	-192(%rbp), %eax	# c, c
	cmpl	$123, %eax	#, c
	je	.L366	#,
	cmpl	$123, %eax	#, c
	jg	.L367	#,
	cmpl	$10, %eax	#, c
	je	.L368	#,
	cmpl	$37, %eax	#, c
	je	.L369	#,
	jmp	.L365	#
.L367:
	cmpl	$124, %eax	#, c
	je	.L370	#,
	cmpl	$125, %eax	#, c
	je	.L371	#,
	jmp	.L365	#
.L368:
	.loc 1 3132 0
	movl	flag_verbose_asm(%rip), %eax	# flag_verbose_asm, flag_verbose_asm.311
	testl	%eax, %eax	# flag_verbose_asm.311
	je	.L372	#,
	.loc 1 3133 0
	movl	-200(%rbp), %edx	# ops, tmp205
	leaq	-176(%rbp), %rcx	#, tmp206
	movq	-224(%rbp), %rax	# operands, tmp207
	movq	%rcx, %rsi	# tmp206,
	movq	%rax, %rdi	# tmp207,
	call	output_asm_operand_names	#
.L372:
	.loc 1 3134 0
	movl	flag_print_asm_name(%rip), %eax	# flag_print_asm_name, flag_print_asm_name.312
	testl	%eax, %eax	# flag_print_asm_name.312
	je	.L373	#,
	.loc 1 3135 0
	call	output_asm_name	#
.L373:
	.loc 1 3137 0
	movl	$0, -200(%rbp)	#, ops
	.loc 1 3138 0
	leaq	-48(%rbp), %rax	#, tmp208
	movl	$30, %edx	#,
	movl	$0, %esi	#,
	movq	%rax, %rdi	# tmp208,
	call	memset	#
	.loc 1 3140 0
	movq	asm_out_file(%rip), %rdx	# asm_out_file, asm_out_file.313
	movl	-192(%rbp), %eax	# c, tmp209
	movq	%rdx, %rsi	# asm_out_file.313,
	movl	%eax, %edi	# tmp209,
	call	_IO_putc	#
	.loc 1 3149 0
	jmp	.L364	#
.L366:
.LBB44:
	.loc 1 3156 0
	cmpl	$0, -204(%rbp)	#, dialect
	je	.L374	#,
	.loc 1 3157 0
	movl	$.LC36, %edi	#,
	movl	$0, %eax	#,
	call	output_operand_lossage	#
	jmp	.L375	#
.L374:
	.loc 1 3159 0
	movl	$1, -204(%rbp)	#, dialect
.L375:
	.loc 1 3163 0
	movl	$0, -196(%rbp)	#, i
	jmp	.L376	#
.L382:
	.loc 1 3165 0
	nop
.L378:
	.loc 1 3165 0 is_stmt 0 discriminator 1
	movq	-184(%rbp), %rax	# p, tmp210
	movzbl	(%rax), %eax	# *p_1, D.16702
	testb	%al, %al	# D.16702
	je	.L377	#,
	.loc 1 3165 0 discriminator 2
	movq	-184(%rbp), %rax	# p, tmp211
	movzbl	(%rax), %eax	# *p_1, D.16702
	cmpb	$125, %al	#, D.16702
	je	.L377	#,
	.loc 1 3165 0 discriminator 1
	movq	-184(%rbp), %rax	# p, p.314
	leaq	1(%rax), %rdx	#, tmp212
	movq	%rdx, -184(%rbp)	# tmp212, p
	movzbl	(%rax), %eax	# *p.314_41, D.16702
	cmpb	$124, %al	#, D.16702
	jne	.L378	#,
.L377:
	.loc 1 3167 0 is_stmt 1
	movq	-184(%rbp), %rax	# p, tmp213
	movzbl	(%rax), %eax	# *p_2, D.16702
	cmpb	$125, %al	#, D.16702
	jne	.L379	#,
	.loc 1 3168 0
	jmp	.L380	#
.L379:
	.loc 1 3169 0
	movq	-184(%rbp), %rax	# p, tmp214
	movzbl	(%rax), %eax	# *p_2, D.16702
	cmpb	$124, %al	#, D.16702
	jne	.L381	#,
	.loc 1 3170 0
	addq	$1, -184(%rbp)	#, p
.L381:
	.loc 1 3163 0
	addl	$1, -196(%rbp)	#, i
.L376:
	.loc 1 3163 0 is_stmt 0 discriminator 1
	movl	dialect_number(%rip), %eax	# dialect_number, dialect_number.315
	cmpl	%eax, -196(%rbp)	# dialect_number.315, i
	jl	.L382	#,
.L380:
	.loc 1 3173 0 is_stmt 1
	movq	-184(%rbp), %rax	# p, tmp215
	movzbl	(%rax), %eax	# *p_5, D.16702
	testb	%al, %al	# D.16702
	jne	.L383	#,
	.loc 1 3174 0
	movl	$.LC37, %edi	#,
	movl	$0, %eax	#,
	call	output_operand_lossage	#
.LBE44:
	.loc 1 3176 0
	jmp	.L364	#
.L383:
	jmp	.L364	#
.L370:
	.loc 1 3179 0
	cmpl	$0, -204(%rbp)	#, dialect
	je	.L384	#,
.L387:
	.loc 1 3184 0
	movq	-184(%rbp), %rax	# p, tmp216
	movzbl	(%rax), %eax	# *p_6, D.16702
	testb	%al, %al	# D.16702
	jne	.L385	#,
	.loc 1 3186 0
	movl	$.LC37, %edi	#,
	movl	$0, %eax	#,
	call	output_operand_lossage	#
	.loc 1 3187 0
	jmp	.L386	#
.L385:
	.loc 1 3190 0
	movq	-184(%rbp), %rax	# p, p.316
	leaq	1(%rax), %rdx	#, tmp217
	movq	%rdx, -184(%rbp)	# tmp217, p
	movzbl	(%rax), %eax	# *p.316_50, D.16702
	cmpb	$125, %al	#, D.16702
	jne	.L387	#,
.L386:
	.loc 1 3191 0
	movl	$0, -204(%rbp)	#, dialect
	.loc 1 3195 0
	jmp	.L364	#
.L384:
	.loc 1 3194 0
	movq	asm_out_file(%rip), %rdx	# asm_out_file, asm_out_file.317
	movl	-192(%rbp), %eax	# c, tmp218
	movq	%rdx, %rsi	# asm_out_file.317,
	movl	%eax, %edi	# tmp218,
	call	_IO_putc	#
	.loc 1 3195 0
	jmp	.L364	#
.L371:
	.loc 1 3198 0
	cmpl	$0, -204(%rbp)	#, dialect
	jne	.L389	#,
	.loc 1 3199 0
	movq	asm_out_file(%rip), %rdx	# asm_out_file, asm_out_file.318
	movl	-192(%rbp), %eax	# c, tmp219
	movq	%rdx, %rsi	# asm_out_file.318,
	movl	%eax, %edi	# tmp219,
	call	_IO_putc	#
.L389:
	.loc 1 3200 0
	movl	$0, -204(%rbp)	#, dialect
	.loc 1 3201 0
	jmp	.L364	#
.L369:
	.loc 1 3206 0
	movq	-184(%rbp), %rax	# p, tmp220
	movzbl	(%rax), %eax	# *p_28, D.16702
	cmpb	$37, %al	#, D.16702
	jne	.L390	#,
	.loc 1 3208 0
	addq	$1, -184(%rbp)	#, p
	.loc 1 3209 0
	movq	asm_out_file(%rip), %rdx	# asm_out_file, asm_out_file.319
	movl	-192(%rbp), %eax	# c, tmp221
	movq	%rdx, %rsi	# asm_out_file.319,
	movl	%eax, %edi	# tmp221,
	call	_IO_putc	#
	jmp	.L391	#
.L390:
	.loc 1 3214 0
	movq	-184(%rbp), %rax	# p, tmp222
	movzbl	(%rax), %eax	# *p_28, D.16702
	cmpb	$61, %al	#, D.16702
	jne	.L392	#,
	.loc 1 3216 0
	addq	$1, -184(%rbp)	#, p
	.loc 1 3217 0
	movl	insn_counter(%rip), %edx	# insn_counter, insn_counter.320
	movq	asm_out_file(%rip), %rax	# asm_out_file, asm_out_file.321
	movl	$.LC38, %esi	#,
	movq	%rax, %rdi	# asm_out_file.321,
	movl	$0, %eax	#,
	call	fprintf	#
	jmp	.L391	#
.L392:
	.loc 1 3224 0
	movq	-184(%rbp), %rax	# p, tmp223
	movzbl	(%rax), %eax	# *p_28, D.16702
	movsbl	%al, %eax	# D.16702, D.16703
	movzbl	%al, %eax	# D.16703, D.16703
	cltq
	movzwl	_sch_istable(%rax,%rax), %eax	# _sch_istable, D.16704
	movzwl	%ax, %eax	# D.16704, D.16703
	andl	$136, %eax	#, D.16703
	testl	%eax, %eax	# D.16703
	je	.L393	#,
.LBB45:
	.loc 1 3226 0
	movq	-184(%rbp), %rax	# p, p.322
	leaq	1(%rax), %rdx	#, tmp225
	movq	%rdx, -184(%rbp)	# tmp225, p
	movzbl	(%rax), %eax	# *p.322_70, D.16702
	movsbl	%al, %eax	# D.16702, tmp226
	movl	%eax, -188(%rbp)	# tmp226, letter
	.loc 1 3227 0
	movq	-184(%rbp), %rax	# p, tmp227
	movq	%rax, %rdi	# tmp227,
	call	atoi	#
	movl	%eax, -192(%rbp)	# tmp228, c
	.loc 1 3229 0
	movq	-184(%rbp), %rax	# p, tmp229
	movzbl	(%rax), %eax	# *p_71, D.16702
	movsbl	%al, %eax	# D.16702, D.16703
	movzbl	%al, %eax	# D.16703, D.16703
	cltq
	movzwl	_sch_istable(%rax,%rax), %eax	# _sch_istable, D.16704
	movzwl	%ax, %eax	# D.16704, D.16703
	andl	$4, %eax	#, D.16703
	testl	%eax, %eax	# D.16703
	jne	.L394	#,
	.loc 1 3230 0
	movl	$.LC39, %edi	#,
	movl	$0, %eax	#,
	call	output_operand_lossage	#
	jmp	.L395	#
.L394:
	.loc 1 3231 0
	movq	this_is_asm_operands(%rip), %rax	# this_is_asm_operands, this_is_asm_operands.323
	testq	%rax, %rax	# this_is_asm_operands.323
	je	.L396	#,
	.loc 1 3232 0
	cmpl	$0, -192(%rbp)	#, c
	js	.L397	#,
	.loc 1 3232 0 is_stmt 0 discriminator 1
	movl	-192(%rbp), %edx	# c, c.324
	movl	insn_noperands(%rip), %eax	# insn_noperands, insn_noperands.325
	cmpl	%eax, %edx	# insn_noperands.325, c.324
	jb	.L396	#,
.L397:
	.loc 1 3233 0 is_stmt 1
	movl	$.LC40, %edi	#,
	movl	$0, %eax	#,
	call	output_operand_lossage	#
	jmp	.L395	#
.L396:
	.loc 1 3234 0
	cmpl	$108, -188(%rbp)	#, letter
	jne	.L398	#,
	.loc 1 3235 0
	movl	-192(%rbp), %eax	# c, tmp231
	cltq
	leaq	0(,%rax,8), %rdx	#, D.16705
	movq	-224(%rbp), %rax	# operands, tmp232
	addq	%rdx, %rax	# D.16705, D.16706
	movq	(%rax), %rax	# *_86, D.16707
	movq	%rax, %rdi	# D.16707,
	call	output_asm_label	#
	jmp	.L395	#
.L398:
	.loc 1 3236 0
	cmpl	$97, -188(%rbp)	#, letter
	jne	.L399	#,
	.loc 1 3237 0
	movl	-192(%rbp), %eax	# c, tmp233
	cltq
	leaq	0(,%rax,8), %rdx	#, D.16705
	movq	-224(%rbp), %rax	# operands, tmp234
	addq	%rdx, %rax	# D.16705, D.16706
	movq	(%rax), %rax	# *_90, D.16707
	movq	%rax, %rdi	# D.16707,
	call	output_address	#
	jmp	.L395	#
.L399:
	.loc 1 3238 0
	cmpl	$99, -188(%rbp)	#, letter
	jne	.L400	#,
	.loc 1 3240 0
	movl	-192(%rbp), %eax	# c, tmp235
	cltq
	leaq	0(,%rax,8), %rdx	#, D.16705
	movq	-224(%rbp), %rax	# operands, tmp236
	addq	%rdx, %rax	# D.16705, D.16706
	movq	(%rax), %rax	# *_94, D.16707
	movzwl	(%rax), %eax	# _95->code, D.16704
	cmpw	$67, %ax	#, D.16704
	je	.L401	#,
	.loc 1 3240 0 is_stmt 0 discriminator 1
	movl	-192(%rbp), %eax	# c, tmp237
	cltq
	leaq	0(,%rax,8), %rdx	#, D.16705
	movq	-224(%rbp), %rax	# operands, tmp238
	addq	%rdx, %rax	# D.16705, D.16706
	movq	(%rax), %rax	# *_99, D.16707
	movzwl	(%rax), %eax	# _100->code, D.16704
	cmpw	$68, %ax	#, D.16704
	je	.L401	#,
	movl	-192(%rbp), %eax	# c, tmp239
	cltq
	leaq	0(,%rax,8), %rdx	#, D.16705
	movq	-224(%rbp), %rax	# operands, tmp240
	addq	%rdx, %rax	# D.16705, D.16706
	movq	(%rax), %rax	# *_104, D.16707
	movzwl	(%rax), %eax	# _105->code, D.16704
	cmpw	$54, %ax	#, D.16704
	je	.L401	#,
	movl	-192(%rbp), %eax	# c, tmp241
	cltq
	leaq	0(,%rax,8), %rdx	#, D.16705
	movq	-224(%rbp), %rax	# operands, tmp242
	addq	%rdx, %rax	# D.16705, D.16706
	movq	(%rax), %rax	# *_109, D.16707
	movzwl	(%rax), %eax	# _110->code, D.16704
	cmpw	$58, %ax	#, D.16704
	je	.L401	#,
	movl	-192(%rbp), %eax	# c, tmp243
	cltq
	leaq	0(,%rax,8), %rdx	#, D.16705
	movq	-224(%rbp), %rax	# operands, tmp244
	addq	%rdx, %rax	# D.16705, D.16706
	movq	(%rax), %rax	# *_114, D.16707
	movzwl	(%rax), %eax	# _115->code, D.16704
	cmpw	$55, %ax	#, D.16704
	jne	.L402	#,
.L401:
	.loc 1 3241 0 is_stmt 1
	movl	-192(%rbp), %eax	# c, tmp245
	cltq
	leaq	0(,%rax,8), %rdx	#, D.16705
	movq	-224(%rbp), %rax	# operands, tmp246
	addq	%rdx, %rax	# D.16705, D.16706
	movq	(%rax), %rdx	# *_123, D.16707
	movq	asm_out_file(%rip), %rax	# asm_out_file, asm_out_file.326
	movq	%rdx, %rsi	# D.16707,
	movq	%rax, %rdi	# asm_out_file.326,
	call	output_addr_const	#
	jmp	.L395	#
.L402:
	.loc 1 3243 0
	movl	-192(%rbp), %eax	# c, tmp247
	cltq
	leaq	0(,%rax,8), %rdx	#, D.16705
	movq	-224(%rbp), %rax	# operands, tmp248
	addq	%rdx, %rax	# D.16705, D.16706
	movq	(%rax), %rax	# *_119, D.16707
	movl	$99, %esi	#,
	movq	%rax, %rdi	# D.16707,
	call	output_operand	#
	jmp	.L395	#
.L400:
	.loc 1 3245 0
	cmpl	$110, -188(%rbp)	#, letter
	jne	.L404	#,
	.loc 1 3247 0
	movl	-192(%rbp), %eax	# c, tmp249
	cltq
	leaq	0(,%rax,8), %rdx	#, D.16705
	movq	-224(%rbp), %rax	# operands, tmp250
	addq	%rdx, %rax	# D.16705, D.16706
	movq	(%rax), %rax	# *_128, D.16707
	movzwl	(%rax), %eax	# _129->code, D.16704
	cmpw	$54, %ax	#, D.16704
	jne	.L405	#,
	.loc 1 3249 0
	movl	-192(%rbp), %eax	# c, tmp251
	cltq
	leaq	0(,%rax,8), %rdx	#, D.16705
	movq	-224(%rbp), %rax	# operands, tmp252
	addq	%rdx, %rax	# D.16705, D.16706
	movq	(%rax), %rax	# *_133, D.16707
	movq	8(%rax), %rax	# _134->fld[0].rtwint, D.16708
	.loc 1 3248 0
	negq	%rax	# D.16708
	movq	%rax, %rdx	# D.16708, D.16708
	movq	asm_out_file(%rip), %rax	# asm_out_file, asm_out_file.327
	movl	$.LC41, %esi	#,
	movq	%rax, %rdi	# asm_out_file.327,
	movl	$0, %eax	#,
	call	fprintf	#
	jmp	.L395	#
.L405:
	.loc 1 3252 0
	movq	asm_out_file(%rip), %rax	# asm_out_file, asm_out_file.328
	movq	%rax, %rsi	# asm_out_file.328,
	movl	$45, %edi	#,
	call	_IO_putc	#
	.loc 1 3253 0
	movl	-192(%rbp), %eax	# c, tmp253
	cltq
	leaq	0(,%rax,8), %rdx	#, D.16705
	movq	-224(%rbp), %rax	# operands, tmp254
	addq	%rdx, %rax	# D.16705, D.16706
	movq	(%rax), %rdx	# *_141, D.16707
	movq	asm_out_file(%rip), %rax	# asm_out_file, asm_out_file.329
	movq	%rdx, %rsi	# D.16707,
	movq	%rax, %rdi	# asm_out_file.329,
	call	output_addr_const	#
	jmp	.L395	#
.L404:
	.loc 1 3257 0
	movl	-192(%rbp), %eax	# c, tmp255
	cltq
	leaq	0(,%rax,8), %rdx	#, D.16705
	movq	-224(%rbp), %rax	# operands, tmp256
	addq	%rdx, %rax	# D.16705, D.16706
	movq	(%rax), %rax	# *_146, D.16707
	movl	-188(%rbp), %edx	# letter, tmp257
	movl	%edx, %esi	# tmp257,
	movq	%rax, %rdi	# D.16707,
	call	output_operand	#
.L395:
	.loc 1 3259 0
	movl	-192(%rbp), %eax	# c, tmp259
	cltq
	movzbl	-48(%rbp,%rax), %eax	# opoutput, D.16702
	testb	%al, %al	# D.16702
	jne	.L407	#,
	.loc 1 3260 0
	movl	-200(%rbp), %eax	# ops, ops.330
	leal	1(%rax), %edx	#, tmp260
	movl	%edx, -200(%rbp)	# tmp260, ops
	cltq
	movl	-192(%rbp), %edx	# c, tmp262
	movl	%edx, -176(%rbp,%rax,4)	# tmp262, oporder
.L407:
	.loc 1 3261 0
	movl	-192(%rbp), %eax	# c, tmp264
	cltq
	movb	$1, -48(%rbp,%rax)	#, opoutput
	.loc 1 3263 0
	jmp	.L408	#
.L409:
	.loc 1 3264 0
	addq	$1, -184(%rbp)	#, p
.L408:
	.loc 1 3263 0 discriminator 1
	movq	-184(%rbp), %rax	# p, tmp265
	movzbl	(%rax), %eax	# *p_9, D.16702
	movsbl	%al, %eax	# D.16702, tmp266
	movl	%eax, -192(%rbp)	# tmp266, c
	movl	-192(%rbp), %eax	# c, tmp267
	movzbl	%al, %eax	# tmp267, D.16703
	cltq
	movzwl	_sch_istable(%rax,%rax), %eax	# _sch_istable, D.16704
	movzwl	%ax, %eax	# D.16704, D.16703
	andl	$4, %eax	#, D.16703
	testl	%eax, %eax	# D.16703
	jne	.L409	#,
.LBE45:
	jmp	.L391	#
.L393:
	.loc 1 3267 0
	movq	-184(%rbp), %rax	# p, tmp269
	movzbl	(%rax), %eax	# *p_28, D.16702
	movsbl	%al, %eax	# D.16702, D.16703
	movzbl	%al, %eax	# D.16703, D.16703
	cltq
	movzwl	_sch_istable(%rax,%rax), %eax	# _sch_istable, D.16704
	movzwl	%ax, %eax	# D.16704, D.16703
	andl	$4, %eax	#, D.16703
	testl	%eax, %eax	# D.16703
	je	.L410	#,
	.loc 1 3269 0
	movq	-184(%rbp), %rax	# p, tmp271
	movq	%rax, %rdi	# tmp271,
	call	atoi	#
	movl	%eax, -192(%rbp)	# tmp272, c
	.loc 1 3270 0
	movq	this_is_asm_operands(%rip), %rax	# this_is_asm_operands, this_is_asm_operands.331
	testq	%rax, %rax	# this_is_asm_operands.331
	je	.L411	#,
	.loc 1 3271 0
	cmpl	$0, -192(%rbp)	#, c
	js	.L412	#,
	.loc 1 3271 0 is_stmt 0 discriminator 1
	movl	-192(%rbp), %edx	# c, c.332
	movl	insn_noperands(%rip), %eax	# insn_noperands, insn_noperands.333
	cmpl	%eax, %edx	# insn_noperands.333, c.332
	jb	.L411	#,
.L412:
	.loc 1 3272 0 is_stmt 1
	movl	$.LC40, %edi	#,
	movl	$0, %eax	#,
	call	output_operand_lossage	#
	jmp	.L413	#
.L411:
	.loc 1 3274 0
	movl	-192(%rbp), %eax	# c, tmp273
	cltq
	leaq	0(,%rax,8), %rdx	#, D.16705
	movq	-224(%rbp), %rax	# operands, tmp274
	addq	%rdx, %rax	# D.16705, D.16706
	movq	(%rax), %rax	# *_170, D.16707
	movl	$0, %esi	#,
	movq	%rax, %rdi	# D.16707,
	call	output_operand	#
.L413:
	.loc 1 3276 0
	movl	-192(%rbp), %eax	# c, tmp276
	cltq
	movzbl	-48(%rbp,%rax), %eax	# opoutput, D.16702
	testb	%al, %al	# D.16702
	jne	.L414	#,
	.loc 1 3277 0
	movl	-200(%rbp), %eax	# ops, ops.334
	leal	1(%rax), %edx	#, tmp277
	movl	%edx, -200(%rbp)	# tmp277, ops
	cltq
	movl	-192(%rbp), %edx	# c, tmp279
	movl	%edx, -176(%rbp,%rax,4)	# tmp279, oporder
.L414:
	.loc 1 3278 0
	movl	-192(%rbp), %eax	# c, tmp281
	cltq
	movb	$1, -48(%rbp,%rax)	#, opoutput
	.loc 1 3280 0
	jmp	.L415	#
.L416:
	.loc 1 3281 0
	addq	$1, -184(%rbp)	#, p
.L415:
	.loc 1 3280 0 discriminator 1
	movq	-184(%rbp), %rax	# p, tmp282
	movzbl	(%rax), %eax	# *p_10, D.16702
	movsbl	%al, %eax	# D.16702, tmp283
	movl	%eax, -192(%rbp)	# tmp283, c
	movl	-192(%rbp), %eax	# c, tmp284
	movzbl	%al, %eax	# tmp284, D.16703
	cltq
	movzwl	_sch_istable(%rax,%rax), %eax	# _sch_istable, D.16704
	movzwl	%ax, %eax	# D.16704, D.16703
	andl	$4, %eax	#, D.16703
	testl	%eax, %eax	# D.16703
	jne	.L416	#,
	.loc 1 3292 0
	jmp	.L364	#
.L410:
	.loc 1 3287 0
	movq	-184(%rbp), %rax	# p, tmp286
	movzbl	(%rax), %eax	# *p_28, D.16702
	cmpb	$42, %al	#, D.16702
	je	.L417	#,
	.loc 1 3287 0 is_stmt 0 discriminator 1
	movq	-184(%rbp), %rax	# p, tmp287
	movzbl	(%rax), %eax	# *p_28, D.16702
	cmpb	$43, %al	#, D.16702
	jne	.L418	#,
.L417:
	.loc 1 3288 0 is_stmt 1
	movq	-184(%rbp), %rax	# p, p.335
	leaq	1(%rax), %rdx	#, tmp288
	movq	%rdx, -184(%rbp)	# tmp288, p
	movzbl	(%rax), %eax	# *p.335_184, D.16702
	movsbl	%al, %eax	# D.16702, D.16703
	movl	%eax, %esi	# D.16703,
	movl	$0, %edi	#,
	call	output_operand	#
	jmp	.L391	#
.L418:
	.loc 1 3291 0
	movl	$.LC42, %edi	#,
	movl	$0, %eax	#,
	call	output_operand_lossage	#
	.loc 1 3292 0
	jmp	.L364	#
.L391:
	jmp	.L364	#
.L365:
	.loc 1 3295 0
	movq	asm_out_file(%rip), %rdx	# asm_out_file, asm_out_file.336
	movl	-192(%rbp), %eax	# c, tmp289
	movq	%rdx, %rsi	# asm_out_file.336,
	movl	%eax, %edi	# tmp289,
	call	_IO_putc	#
.L364:
	.loc 1 3128 0 discriminator 1
	movq	-184(%rbp), %rax	# p, p.337
	leaq	1(%rax), %rdx	#, tmp290
	movq	%rdx, -184(%rbp)	# tmp290, p
	movzbl	(%rax), %eax	# *p.337_27, D.16702
	movsbl	%al, %eax	# D.16702, tmp291
	movl	%eax, -192(%rbp)	# tmp291, c
	cmpl	$0, -192(%rbp)	#, c
	jne	.L419	#,
	.loc 1 3299 0
	movl	flag_verbose_asm(%rip), %eax	# flag_verbose_asm, flag_verbose_asm.338
	testl	%eax, %eax	# flag_verbose_asm.338
	je	.L420	#,
	.loc 1 3300 0
	movl	-200(%rbp), %edx	# ops, tmp292
	leaq	-176(%rbp), %rcx	#, tmp293
	movq	-224(%rbp), %rax	# operands, tmp294
	movq	%rcx, %rsi	# tmp293,
	movq	%rax, %rdi	# tmp294,
	call	output_asm_operand_names	#
.L420:
	.loc 1 3301 0
	movl	flag_print_asm_name(%rip), %eax	# flag_print_asm_name, flag_print_asm_name.339
	testl	%eax, %eax	# flag_print_asm_name.339
	je	.L421	#,
	.loc 1 3302 0
	call	output_asm_name	#
.L421:
	.loc 1 3304 0
	movq	asm_out_file(%rip), %rax	# asm_out_file, asm_out_file.340
	movq	%rax, %rsi	# asm_out_file.340,
	movl	$10, %edi	#,
	call	_IO_putc	#
.L361:
	.loc 1 3305 0
	movq	-8(%rbp), %rax	# D.16709, tmp296
	xorq	%fs:40, %rax	#, tmp296
	je	.L422	#,
	call	__stack_chk_fail	#
.L422:
	leave
	.cfi_def_cfa 7, 8
	ret
	.cfi_endproc
.LFE32:
	.size	output_asm_insn, .-output_asm_insn
	.section	.rodata
.LC43:
	.string	"`%%l' operand isn't a label"
	.text
	.globl	output_asm_label
	.type	output_asm_label, @function
output_asm_label:
.LFB33:
	.loc 1 3312 0
	.cfi_startproc
	pushq	%rbp	#
	.cfi_def_cfa_offset 16
	.cfi_offset 6, -16
	movq	%rsp, %rbp	#,
	.cfi_def_cfa_register 6
	subq	$288, %rsp	#,
	movq	%rdi, -280(%rbp)	# x, x
	.loc 1 3312 0
	movq	%fs:40, %rax	#, tmp75
	movq	%rax, -8(%rbp)	# tmp75, D.16721
	xorl	%eax, %eax	# tmp75
	.loc 1 3315 0
	movq	-280(%rbp), %rax	# x, tmp66
	movzwl	(%rax), %eax	# x_2(D)->code, D.16718
	cmpw	$67, %ax	#, D.16718
	jne	.L424	#,
	.loc 1 3316 0
	movq	-280(%rbp), %rax	# x, tmp67
	movq	8(%rax), %rax	# x_2(D)->fld[0].rtx, tmp68
	movq	%rax, -280(%rbp)	# tmp68, x
.L424:
	.loc 1 3317 0
	movq	-280(%rbp), %rax	# x, tmp69
	movzwl	(%rax), %eax	# x_1->code, D.16718
	cmpw	$36, %ax	#, D.16718
	je	.L425	#,
	.loc 1 3318 0
	movq	-280(%rbp), %rax	# x, tmp70
	movzwl	(%rax), %eax	# x_1->code, D.16718
	cmpw	$37, %ax	#, D.16718
	jne	.L426	#,
	.loc 1 3319 0
	movq	-280(%rbp), %rax	# x, tmp71
	movl	40(%rax), %eax	# x_1->fld[4].rtint, D.16719
	cmpl	$-88, %eax	#, D.16719
	jne	.L426	#,
.L425:
	.loc 1 3320 0
	movq	-280(%rbp), %rax	# x, tmp72
	movl	48(%rax), %eax	# x_1->fld[5].rtint, D.16719
	movl	%eax, %edx	# D.16719, D.16720
	leaq	-272(%rbp), %rax	#, tmp73
	movl	%edx, %ecx	# D.16720,
	movl	$.LC20, %edx	#,
	movl	$.LC4, %esi	#,
	movq	%rax, %rdi	# tmp73,
	movl	$0, %eax	#,
	call	sprintf	#
	jmp	.L427	#
.L426:
	.loc 1 3322 0
	movl	$.LC43, %edi	#,
	movl	$0, %eax	#,
	call	output_operand_lossage	#
.L427:
	.loc 1 3324 0
	movq	asm_out_file(%rip), %rax	# asm_out_file, asm_out_file.341
	leaq	-272(%rbp), %rdx	#, tmp74
	movq	%rdx, %rsi	# tmp74,
	movq	%rax, %rdi	# asm_out_file.341,
	call	assemble_name	#
	.loc 1 3325 0
	movq	-8(%rbp), %rax	# D.16721, tmp76
	xorq	%fs:40, %rax	#, tmp76
	je	.L428	#,
	call	__stack_chk_fail	#
.L428:
	leave
	.cfi_def_cfa 7, 8
	ret
	.cfi_endproc
.LFE33:
	.size	output_asm_label, .-output_asm_label
	.type	output_operand, @function
output_operand:
.LFB34:
	.loc 1 3341 0
	.cfi_startproc
	pushq	%rbp	#
	.cfi_def_cfa_offset 16
	.cfi_offset 6, -16
	movq	%rsp, %rbp	#,
	.cfi_def_cfa_register 6
	subq	$16, %rsp	#,
	movq	%rdi, -8(%rbp)	# x, x
	movl	%esi, -12(%rbp)	# code, code
	.loc 1 3342 0
	movq	-8(%rbp), %rax	# x, x.342
	testq	%rax, %rax	# x.342
	je	.L430	#,
	.loc 1 3342 0 is_stmt 0 discriminator 1
	movq	-8(%rbp), %rax	# x, x.343
	movzwl	(%rax), %eax	# x.343_2->code, D.16723
	cmpw	$63, %ax	#, D.16723
	jne	.L430	#,
	.loc 1 3343 0 is_stmt 1
	leaq	-8(%rbp), %rax	#, tmp70
	movq	%rax, %rdi	# tmp70,
	call	alter_subreg	#
	movq	%rax, -8(%rbp)	# x.344, x
.L430:
	.loc 1 3348 0
	movq	-8(%rbp), %rax	# x, x.345
	testq	%rax, %rax	# x.345
	je	.L431	#,
	.loc 1 3348 0 is_stmt 0 discriminator 1
	movq	-8(%rbp), %rax	# x, x.346
	movzwl	(%rax), %eax	# x.346_6->code, D.16723
	cmpw	$61, %ax	#, D.16723
	jne	.L431	#,
	movq	-8(%rbp), %rax	# x, x.347
	movl	8(%rax), %eax	# x.347_8->fld[0].rtuint, D.16724
	cmpl	$52, %eax	#, D.16724
	jbe	.L431	#,
	.loc 1 3349 0 is_stmt 1
	movl	$__FUNCTION__.14275, %edx	#,
	movl	$3349, %esi	#,
	movl	$.LC0, %edi	#,
	call	fancy_abort	#
.L431:
	.loc 1 3351 0
	movq	-8(%rbp), %rcx	# x, x.348
	movq	asm_out_file(%rip), %rax	# asm_out_file, asm_out_file.349
	movl	-12(%rbp), %edx	# code, tmp71
	movq	%rcx, %rsi	# x.348,
	movq	%rax, %rdi	# asm_out_file.349,
	call	print_operand	#
	.loc 1 3352 0
	leave
	.cfi_def_cfa 7, 8
	ret
	.cfi_endproc
.LFE34:
	.size	output_operand, .-output_operand
	.globl	output_address
	.type	output_address, @function
output_address:
.LFB35:
	.loc 1 3361 0
	.cfi_startproc
	pushq	%rbp	#
	.cfi_def_cfa_offset 16
	.cfi_offset 6, -16
	movq	%rsp, %rbp	#,
	.cfi_def_cfa_register 6
	subq	$16, %rsp	#,
	movq	%rdi, -8(%rbp)	# x, x
	.loc 1 3362 0
	leaq	-8(%rbp), %rax	#, tmp61
	movq	%rax, %rdi	# tmp61,
	call	walk_alter_subreg	#
	.loc 1 3363 0
	movq	-8(%rbp), %rdx	# x, x.350
	movq	asm_out_file(%rip), %rax	# asm_out_file, asm_out_file.351
	movq	%rdx, %rsi	# x.350,
	movq	%rax, %rdi	# asm_out_file.351,
	call	print_operand_address	#
	.loc 1 3364 0
	leave
	.cfi_def_cfa 7, 8
	ret
	.cfi_endproc
.LFE35:
	.size	output_address, .-output_address
	.section	.rodata
.LC44:
	.string	"0x%lx%016lx"
.LC45:
	.string	"0x%lx"
.LC46:
	.string	"floating constant misused"
.LC47:
	.string	"invalid expression as operand"
	.text
	.globl	output_addr_const
	.type	output_addr_const, @function
output_addr_const:
.LFB36:
	.loc 1 3374 0
	.cfi_startproc
	pushq	%rbp	#
	.cfi_def_cfa_offset 16
	.cfi_offset 6, -16
	movq	%rsp, %rbp	#,
	.cfi_def_cfa_register 6
	subq	$288, %rsp	#,
	movq	%rdi, -280(%rbp)	# file, file
	movq	%rsi, -288(%rbp)	# x, x
	.loc 1 3374 0
	movq	%fs:40, %rax	#, tmp159
	movq	%rax, -8(%rbp)	# tmp159, D.16732
	xorl	%eax, %eax	# tmp159
.L434:
	.loc 1 3378 0
	movq	-288(%rbp), %rax	# x, tmp100
	movzwl	(%rax), %eax	# x_1->code, D.16725
	movzwl	%ax, %eax	# D.16725, D.16726
	subl	$36, %eax	#, tmp101
	cmpl	$85, %eax	#, tmp101
	ja	.L435	#,
	movl	%eax, %eax	# tmp101, tmp102
	movq	.L437(,%rax,8), %rax	#, tmp103
	jmp	*%rax	# tmp103
	.section	.rodata
	.align 8
	.align 4
.L437:
	.quad	.L436
	.quad	.L435
	.quad	.L435
	.quad	.L435
	.quad	.L435
	.quad	.L435
	.quad	.L435
	.quad	.L435
	.quad	.L435
	.quad	.L435
	.quad	.L435
	.quad	.L435
	.quad	.L435
	.quad	.L435
	.quad	.L435
	.quad	.L435
	.quad	.L435
	.quad	.L435
	.quad	.L438
	.quad	.L439
	.quad	.L435
	.quad	.L435
	.quad	.L440
	.quad	.L441
	.quad	.L435
	.quad	.L435
	.quad	.L435
	.quad	.L442
	.quad	.L435
	.quad	.L435
	.quad	.L435
	.quad	.L443
	.quad	.L444
	.quad	.L435
	.quad	.L435
	.quad	.L435
	.quad	.L435
	.quad	.L435
	.quad	.L435
	.quad	.L445
	.quad	.L446
	.quad	.L435
	.quad	.L435
	.quad	.L435
	.quad	.L435
	.quad	.L435
	.quad	.L435
	.quad	.L435
	.quad	.L435
	.quad	.L435
	.quad	.L435
	.quad	.L435
	.quad	.L435
	.quad	.L435
	.quad	.L435
	.quad	.L435
	.quad	.L435
	.quad	.L435
	.quad	.L435
	.quad	.L435
	.quad	.L435
	.quad	.L435
	.quad	.L435
	.quad	.L435
	.quad	.L435
	.quad	.L435
	.quad	.L435
	.quad	.L435
	.quad	.L435
	.quad	.L435
	.quad	.L435
	.quad	.L435
	.quad	.L435
	.quad	.L435
	.quad	.L435
	.quad	.L435
	.quad	.L435
	.quad	.L435
	.quad	.L435
	.quad	.L435
	.quad	.L435
	.quad	.L435
	.quad	.L435
	.quad	.L435
	.quad	.L442
	.quad	.L442
	.text
.L441:
	.loc 1 3381 0
	movq	-280(%rbp), %rax	# file, tmp104
	movq	%rax, %rsi	# tmp104,
	movl	$46, %edi	#,
	call	_IO_putc	#
	.loc 1 3382 0
	jmp	.L433	#
.L444:
	.loc 1 3388 0
	movq	-288(%rbp), %rax	# x, tmp105
	movq	8(%rax), %rdx	# x_1->fld[0].rtstr, D.16727
	movq	-280(%rbp), %rax	# file, tmp106
	movq	%rdx, %rsi	# D.16727,
	movq	%rax, %rdi	# tmp106,
	call	assemble_name	#
	.loc 1 3390 0
	jmp	.L433	#
.L443:
	.loc 1 3393 0
	movq	-288(%rbp), %rax	# x, tmp107
	movq	8(%rax), %rax	# x_1->fld[0].rtx, tmp108
	movq	%rax, -288(%rbp)	# tmp108, x
.L436:
	.loc 1 3396 0
	movq	-288(%rbp), %rax	# x, tmp109
	movl	48(%rax), %eax	# x_2->fld[5].rtint, D.16728
	movl	%eax, %edx	# D.16728, D.16726
	leaq	-272(%rbp), %rax	#, tmp110
	movl	%edx, %ecx	# D.16726,
	movl	$.LC20, %edx	#,
	movl	$.LC4, %esi	#,
	movq	%rax, %rdi	# tmp110,
	movl	$0, %eax	#,
	call	sprintf	#
	.loc 1 3400 0
	leaq	-272(%rbp), %rdx	#, tmp111
	movq	-280(%rbp), %rax	# file, tmp112
	movq	%rdx, %rsi	# tmp111,
	movq	%rax, %rdi	# tmp112,
	call	assemble_name	#
	.loc 1 3402 0
	jmp	.L433	#
.L438:
	.loc 1 3405 0
	movq	-288(%rbp), %rax	# x, tmp113
	movq	8(%rax), %rdx	# x_1->fld[0].rtwint, D.16729
	movq	-280(%rbp), %rax	# file, tmp114
	movl	$.LC41, %esi	#,
	movq	%rax, %rdi	# tmp114,
	movl	$0, %eax	#,
	call	fprintf	#
	.loc 1 3406 0
	jmp	.L433	#
.L440:
	.loc 1 3411 0
	movq	-288(%rbp), %rax	# x, tmp115
	movq	8(%rax), %rdx	# x_1->fld[0].rtx, D.16730
	movq	-280(%rbp), %rax	# file, tmp116
	movq	%rdx, %rsi	# D.16730,
	movq	%rax, %rdi	# tmp116,
	call	output_addr_const	#
	.loc 1 3412 0
	jmp	.L433	#
.L439:
	.loc 1 3415 0
	movq	-288(%rbp), %rax	# x, tmp117
	movzbl	2(%rax), %eax	# x_1->mode, D.16731
	testb	%al, %al	# D.16731
	jne	.L448	#,
	.loc 1 3418 0
	movq	-288(%rbp), %rax	# x, tmp118
	movq	24(%rax), %rax	# x_1->fld[2].rtwint, D.16729
	testq	%rax, %rax	# D.16729
	je	.L449	#,
	.loc 1 3419 0
	movq	-288(%rbp), %rax	# x, tmp119
	movq	16(%rax), %rcx	# x_1->fld[1].rtwint, D.16729
	movq	-288(%rbp), %rax	# x, tmp120
	movq	24(%rax), %rdx	# x_1->fld[2].rtwint, D.16729
	movq	-280(%rbp), %rax	# file, tmp121
	movl	$.LC44, %esi	#,
	movq	%rax, %rdi	# tmp121,
	movl	$0, %eax	#,
	call	fprintf	#
	jmp	.L452	#
.L449:
	.loc 1 3421 0
	movq	-288(%rbp), %rax	# x, tmp122
	movq	16(%rax), %rax	# x_1->fld[1].rtwint, D.16729
	testq	%rax, %rax	# D.16729
	jns	.L451	#,
	.loc 1 3422 0
	movq	-288(%rbp), %rax	# x, tmp123
	movq	16(%rax), %rdx	# x_1->fld[1].rtwint, D.16729
	movq	-280(%rbp), %rax	# file, tmp124
	movl	$.LC45, %esi	#,
	movq	%rax, %rdi	# tmp124,
	movl	$0, %eax	#,
	call	fprintf	#
	jmp	.L452	#
.L451:
	.loc 1 3424 0
	movq	-288(%rbp), %rax	# x, tmp125
	movq	16(%rax), %rdx	# x_1->fld[1].rtwint, D.16729
	movq	-280(%rbp), %rax	# file, tmp126
	movl	$.LC41, %esi	#,
	movq	%rax, %rdi	# tmp126,
	movl	$0, %eax	#,
	call	fprintf	#
	.loc 1 3430 0
	jmp	.L433	#
.L448:
	.loc 1 3429 0
	movl	$.LC46, %edi	#,
	movl	$0, %eax	#,
	call	output_operand_lossage	#
	.loc 1 3430 0
	jmp	.L433	#
.L452:
	jmp	.L433	#
.L445:
	.loc 1 3434 0
	movq	-288(%rbp), %rax	# x, tmp127
	movq	8(%rax), %rax	# x_1->fld[0].rtx, D.16730
	movzwl	(%rax), %eax	# _20->code, D.16725
	cmpw	$54, %ax	#, D.16725
	jne	.L453	#,
	.loc 1 3436 0
	movq	-288(%rbp), %rax	# x, tmp128
	movq	16(%rax), %rdx	# x_1->fld[1].rtx, D.16730
	movq	-280(%rbp), %rax	# file, tmp129
	movq	%rdx, %rsi	# D.16730,
	movq	%rax, %rdi	# tmp129,
	call	output_addr_const	#
	.loc 1 3437 0
	movq	-288(%rbp), %rax	# x, tmp130
	movq	8(%rax), %rax	# x_1->fld[0].rtx, D.16730
	movq	8(%rax), %rax	# _23->fld[0].rtwint, D.16729
	testq	%rax, %rax	# D.16729
	js	.L454	#,
	.loc 1 3438 0
	movq	-280(%rbp), %rax	# file, tmp131
	movq	%rax, %rsi	# tmp131,
	movl	$43, %edi	#,
	call	fputc	#
.L454:
	.loc 1 3439 0
	movq	-288(%rbp), %rax	# x, tmp132
	movq	8(%rax), %rdx	# x_1->fld[0].rtx, D.16730
	movq	-280(%rbp), %rax	# file, tmp133
	movq	%rdx, %rsi	# D.16730,
	movq	%rax, %rdi	# tmp133,
	call	output_addr_const	#
	.loc 1 3449 0
	jmp	.L433	#
.L453:
	.loc 1 3443 0
	movq	-288(%rbp), %rax	# x, tmp134
	movq	8(%rax), %rdx	# x_1->fld[0].rtx, D.16730
	movq	-280(%rbp), %rax	# file, tmp135
	movq	%rdx, %rsi	# D.16730,
	movq	%rax, %rdi	# tmp135,
	call	output_addr_const	#
	.loc 1 3444 0
	movq	-288(%rbp), %rax	# x, tmp136
	movq	16(%rax), %rax	# x_1->fld[1].rtx, D.16730
	movzwl	(%rax), %eax	# _27->code, D.16725
	cmpw	$54, %ax	#, D.16725
	jne	.L456	#,
	.loc 1 3445 0
	movq	-288(%rbp), %rax	# x, tmp137
	movq	16(%rax), %rax	# x_1->fld[1].rtx, D.16730
	movq	8(%rax), %rax	# _29->fld[0].rtwint, D.16729
	testq	%rax, %rax	# D.16729
	js	.L457	#,
.L456:
	.loc 1 3446 0
	movq	-280(%rbp), %rax	# file, tmp138
	movq	%rax, %rsi	# tmp138,
	movl	$43, %edi	#,
	call	fputc	#
.L457:
	.loc 1 3447 0
	movq	-288(%rbp), %rax	# x, tmp139
	movq	16(%rax), %rdx	# x_1->fld[1].rtx, D.16730
	movq	-280(%rbp), %rax	# file, tmp140
	movq	%rdx, %rsi	# D.16730,
	movq	%rax, %rdi	# tmp140,
	call	output_addr_const	#
	.loc 1 3449 0
	jmp	.L433	#
.L446:
	.loc 1 3454 0
	movq	-288(%rbp), %rax	# x, tmp141
	movq	%rax, %rdi	# tmp141,
	call	simplify_subtraction	#
	movq	%rax, -288(%rbp)	# tmp142, x
	.loc 1 3455 0
	movq	-288(%rbp), %rax	# x, tmp143
	movzwl	(%rax), %eax	# x_32->code, D.16725
	cmpw	$76, %ax	#, D.16725
	je	.L458	#,
	.loc 1 3456 0
	jmp	.L434	#
.L458:
	.loc 1 3458 0
	movq	-288(%rbp), %rax	# x, tmp144
	movq	8(%rax), %rdx	# x_32->fld[0].rtx, D.16730
	movq	-280(%rbp), %rax	# file, tmp145
	movq	%rdx, %rsi	# D.16730,
	movq	%rax, %rdi	# tmp145,
	call	output_addr_const	#
	.loc 1 3459 0
	movq	-280(%rbp), %rax	# file, tmp146
	movq	%rax, %rsi	# tmp146,
	movl	$45, %edi	#,
	call	fputc	#
	.loc 1 3460 0
	movq	-288(%rbp), %rax	# x, tmp147
	movq	16(%rax), %rax	# x_32->fld[1].rtx, D.16730
	movzwl	(%rax), %eax	# _35->code, D.16725
	cmpw	$54, %ax	#, D.16725
	jne	.L459	#,
	.loc 1 3460 0 is_stmt 0 discriminator 1
	movq	-288(%rbp), %rax	# x, tmp148
	movq	16(%rax), %rax	# x_32->fld[1].rtx, D.16730
	movq	8(%rax), %rax	# _37->fld[0].rtwint, D.16729
	testq	%rax, %rax	# D.16729
	jns	.L460	#,
.L459:
	.loc 1 3461 0 is_stmt 1
	movq	-288(%rbp), %rax	# x, tmp149
	movq	16(%rax), %rax	# x_32->fld[1].rtx, D.16730
	movzwl	(%rax), %eax	# _39->code, D.16725
	cmpw	$59, %ax	#, D.16725
	je	.L460	#,
	.loc 1 3462 0
	movq	-288(%rbp), %rax	# x, tmp150
	movq	16(%rax), %rax	# x_32->fld[1].rtx, D.16730
	movzwl	(%rax), %eax	# _41->code, D.16725
	cmpw	$68, %ax	#, D.16725
	jne	.L461	#,
.L460:
	.loc 1 3463 0
	movq	-288(%rbp), %rax	# x, tmp151
	movq	16(%rax), %rdx	# x_32->fld[1].rtx, D.16730
	movq	-280(%rbp), %rax	# file, tmp152
	movq	%rdx, %rsi	# D.16730,
	movq	%rax, %rdi	# tmp152,
	call	output_addr_const	#
	.loc 1 3470 0
	jmp	.L433	#
.L461:
	.loc 1 3466 0
	movq	targetm(%rip), %rax	# targetm.asm_out.open_paren, D.16727
	movq	-280(%rbp), %rdx	# file, tmp153
	movq	%rdx, %rsi	# tmp153,
	movq	%rax, %rdi	# D.16727,
	call	fputs	#
	.loc 1 3467 0
	movq	-288(%rbp), %rax	# x, tmp154
	movq	16(%rax), %rdx	# x_32->fld[1].rtx, D.16730
	movq	-280(%rbp), %rax	# file, tmp155
	movq	%rdx, %rsi	# D.16730,
	movq	%rax, %rdi	# tmp155,
	call	output_addr_const	#
	.loc 1 3468 0
	movq	targetm+8(%rip), %rax	# targetm.asm_out.close_paren, D.16727
	movq	-280(%rbp), %rdx	# file, tmp156
	movq	%rdx, %rsi	# tmp156,
	movq	%rax, %rdi	# D.16727,
	call	fputs	#
	.loc 1 3470 0
	jmp	.L433	#
.L442:
	.loc 1 3475 0
	movq	-288(%rbp), %rax	# x, tmp157
	movq	8(%rax), %rdx	# x_1->fld[0].rtx, D.16730
	movq	-280(%rbp), %rax	# file, tmp158
	movq	%rdx, %rsi	# D.16730,
	movq	%rax, %rdi	# tmp158,
	call	output_addr_const	#
	.loc 1 3476 0
	jmp	.L433	#
.L435:
	.loc 1 3485 0
	movl	$.LC47, %edi	#,
	movl	$0, %eax	#,
	call	output_operand_lossage	#
.L433:
	.loc 1 3487 0
	movq	-8(%rbp), %rax	# D.16732, tmp160
	xorq	%fs:40, %rax	#, tmp160
	je	.L463	#,
	call	__stack_chk_fail	#
.L463:
	leave
	.cfi_def_cfa 7, 8
	ret
	.cfi_endproc
.LFE36:
	.size	output_addr_const, .-output_addr_const
	.section	.rodata
.LC48:
	.string	"%%"
	.text
	.globl	asm_fprintf
	.type	asm_fprintf, @function
asm_fprintf:
.LFB37:
	.loc 1 3501 0
	.cfi_startproc
	pushq	%rbp	#
	.cfi_def_cfa_offset 16
	.cfi_offset 6, -16
	movq	%rsp, %rbp	#,
	.cfi_def_cfa_register 6
	subq	$288, %rsp	#,
	movq	%rdi, -264(%rbp)	# file, file
	movq	%rdx, -160(%rbp)	#,
	movq	%rcx, -152(%rbp)	#,
	movq	%r8, -144(%rbp)	#,
	movq	%r9, -136(%rbp)	#,
	testb	%al, %al	#
	je	.L465	#,
	.loc 1 3501 0
	movaps	%xmm0, -128(%rbp)	#,
	movaps	%xmm1, -112(%rbp)	#,
	movaps	%xmm2, -96(%rbp)	#,
	movaps	%xmm3, -80(%rbp)	#,
	movaps	%xmm4, -64(%rbp)	#,
	movaps	%xmm5, -48(%rbp)	#,
	movaps	%xmm6, -32(%rbp)	#,
	movaps	%xmm7, -16(%rbp)	#,
.L465:
	movq	%rsi, -272(%rbp)	# p, p
	movq	%fs:40, %rax	#, tmp193
	movq	%rax, -184(%rbp)	# tmp193, D.16746
	xorl	%eax, %eax	# tmp193
.LBB46:
	.loc 1 3505 0
	movl	$16, -232(%rbp)	#, MEM[(struct [1] *)&argptr].gp_offset
	movl	$48, -228(%rbp)	#, MEM[(struct [1] *)&argptr].fp_offset
	leaq	16(%rbp), %rax	#, tmp195
	movq	%rax, -224(%rbp)	# tmp195, MEM[(struct [1] *)&argptr].overflow_arg_area
	leaq	-176(%rbp), %rax	#, tmp196
	movq	%rax, -216(%rbp)	# tmp196, MEM[(struct [1] *)&argptr].reg_save_area
.LBB47:
	.loc 1 3509 0
	movb	$37, -208(%rbp)	#, buf
	.loc 1 3511 0
	jmp	.L466	#
.L506:
	.loc 1 3512 0
	movsbl	-245(%rbp), %eax	# c, D.16737
	cmpl	$123, %eax	#, D.16737
	je	.L468	#,
	cmpl	$123, %eax	#, D.16737
	jg	.L469	#,
	cmpl	$37, %eax	#, D.16737
	je	.L470	#,
	jmp	.L467	#
.L469:
	cmpl	$124, %eax	#, D.16737
	je	.L508	#,
	cmpl	$125, %eax	#, D.16737
	je	.L509	#,
	jmp	.L467	#
.L468:
.LBB48:
	.loc 1 3521 0
	movl	$0, -244(%rbp)	#, i
	jmp	.L473	#
.L477:
	.loc 1 3523 0
	nop
.L475:
	.loc 1 3523 0 is_stmt 0 discriminator 1
	movq	-272(%rbp), %rax	# p, tmp142
	movzbl	(%rax), %eax	# *p_1, D.16738
	testb	%al, %al	# D.16738
	je	.L474	#,
	.loc 1 3523 0 discriminator 2
	movq	-272(%rbp), %rax	# p, p.352
	leaq	1(%rax), %rdx	#, tmp143
	movq	%rdx, -272(%rbp)	# tmp143, p
	movzbl	(%rax), %eax	# *p.352_26, D.16738
	cmpb	$124, %al	#, D.16738
	jne	.L475	#,
.L474:
	.loc 1 3526 0 is_stmt 1
	movq	-272(%rbp), %rax	# p, tmp144
	movzbl	(%rax), %eax	# *p_2, D.16738
	cmpb	$124, %al	#, D.16738
	jne	.L476	#,
	.loc 1 3527 0
	addq	$1, -272(%rbp)	#, p
.L476:
	.loc 1 3521 0
	addl	$1, -244(%rbp)	#, i
.L473:
	.loc 1 3521 0 is_stmt 0 discriminator 1
	movl	dialect_number(%rip), %eax	# dialect_number, dialect_number.353
	cmpl	%eax, -244(%rbp)	# dialect_number.353, i
	jl	.L477	#,
.LBE48:
	.loc 1 3530 0 is_stmt 1
	jmp	.L466	#
.L508:
	.loc 1 3534 0
	nop
.L479:
	.loc 1 3534 0 is_stmt 0 discriminator 1
	movq	-272(%rbp), %rax	# p, tmp145
	movzbl	(%rax), %eax	# *p_5, D.16738
	testb	%al, %al	# D.16738
	je	.L478	#,
	.loc 1 3534 0 discriminator 2
	movq	-272(%rbp), %rax	# p, p.354
	leaq	1(%rax), %rdx	#, tmp146
	movq	%rdx, -272(%rbp)	# tmp146, p
	movzbl	(%rax), %eax	# *p.354_33, D.16738
	cmpb	$125, %al	#, D.16738
	jne	.L479	#,
.L478:
	.loc 1 3536 0 is_stmt 1
	jmp	.L466	#
.L470:
	.loc 1 3543 0
	movq	-272(%rbp), %rax	# p, p.355
	leaq	1(%rax), %rdx	#, tmp147
	movq	%rdx, -272(%rbp)	# tmp147, p
	movzbl	(%rax), %eax	# *p.355_36, tmp148
	movb	%al, -245(%rbp)	# tmp148, c
	.loc 1 3544 0
	leaq	-208(%rbp), %rax	#, tmp149
	addq	$1, %rax	#, tmp150
	movq	%rax, -240(%rbp)	# tmp150, q
	.loc 1 3545 0
	jmp	.L480	#
.L481:
	.loc 1 3547 0
	movq	-240(%rbp), %rax	# q, q.356
	leaq	1(%rax), %rdx	#, tmp151
	movq	%rdx, -240(%rbp)	# tmp151, q
	movzbl	-245(%rbp), %edx	# c, tmp152
	movb	%dl, (%rax)	# tmp152, *q.356_123
	.loc 1 3548 0
	movq	-272(%rbp), %rax	# p, p.357
	leaq	1(%rax), %rdx	#, tmp153
	movq	%rdx, -272(%rbp)	# tmp153, p
	movzbl	(%rax), %eax	# *p.357_125, tmp154
	movb	%al, -245(%rbp)	# tmp154, c
.L480:
	.loc 1 3545 0 discriminator 1
	movsbl	-245(%rbp), %eax	# c, D.16737
	movzbl	%al, %eax	# D.16737, D.16737
	cltq
	movzwl	_sch_istable(%rax,%rax), %eax	# _sch_istable, D.16739
	movzwl	%ax, %eax	# D.16739, D.16737
	andl	$4, %eax	#, D.16737
	testl	%eax, %eax	# D.16737
	jne	.L481	#,
	.loc 1 3545 0 is_stmt 0 discriminator 2
	cmpb	$46, -245(%rbp)	#, c
	je	.L481	#,
	.loc 1 3550 0 is_stmt 1
	movsbl	-245(%rbp), %eax	# c, D.16737
	subl	$37, %eax	#, tmp156
	cmpl	$83, %eax	#, tmp156
	ja	.L482	#,
	movl	%eax, %eax	# tmp156, tmp157
	movq	.L484(,%rax,8), %rax	#, tmp158
	jmp	*%rax	# tmp158
	.section	.rodata
	.align 8
	.align 4
.L484:
	.quad	.L483
	.quad	.L482
	.quad	.L482
	.quad	.L482
	.quad	.L482
	.quad	.L482
	.quad	.L482
	.quad	.L482
	.quad	.L482
	.quad	.L482
	.quad	.L482
	.quad	.L482
	.quad	.L482
	.quad	.L482
	.quad	.L482
	.quad	.L482
	.quad	.L482
	.quad	.L482
	.quad	.L482
	.quad	.L482
	.quad	.L482
	.quad	.L482
	.quad	.L482
	.quad	.L482
	.quad	.L482
	.quad	.L482
	.quad	.L482
	.quad	.L482
	.quad	.L482
	.quad	.L482
	.quad	.L482
	.quad	.L482
	.quad	.L482
	.quad	.L482
	.quad	.L482
	.quad	.L482
	.quad	.L510
	.quad	.L482
	.quad	.L482
	.quad	.L486
	.quad	.L482
	.quad	.L482
	.quad	.L510
	.quad	.L482
	.quad	.L482
	.quad	.L510
	.quad	.L482
	.quad	.L482
	.quad	.L489
	.quad	.L482
	.quad	.L482
	.quad	.L490
	.quad	.L482
	.quad	.L482
	.quad	.L482
	.quad	.L482
	.quad	.L482
	.quad	.L482
	.quad	.L482
	.quad	.L482
	.quad	.L482
	.quad	.L482
	.quad	.L482
	.quad	.L490
	.quad	.L491
	.quad	.L491
	.quad	.L491
	.quad	.L482
	.quad	.L490
	.quad	.L482
	.quad	.L482
	.quad	.L492
	.quad	.L482
	.quad	.L482
	.quad	.L490
	.quad	.L490
	.quad	.L482
	.quad	.L482
	.quad	.L493
	.quad	.L482
	.quad	.L490
	.quad	.L482
	.quad	.L494
	.quad	.L490
	.text
.L483:
	.loc 1 3553 0
	movq	-264(%rbp), %rax	# file, tmp159
	movl	$.LC48, %esi	#,
	movq	%rax, %rdi	# tmp159,
	movl	$0, %eax	#,
	call	fprintf	#
	.loc 1 3554 0
	jmp	.L495	#
.L490:
	.loc 1 3559 0
	movq	-240(%rbp), %rax	# q, q.358
	leaq	1(%rax), %rdx	#, tmp160
	movq	%rdx, -240(%rbp)	# tmp160, q
	movzbl	-245(%rbp), %edx	# c, tmp161
	movb	%dl, (%rax)	# tmp161, *q.358_47
	.loc 1 3560 0
	movq	-240(%rbp), %rax	# q, tmp162
	movb	$0, (%rax)	#, *q_48
	.loc 1 3561 0
	movl	-232(%rbp), %eax	# argptr.gp_offset, D.16740
	cmpl	$48, %eax	#, D.16740
	jae	.L496	#,
	.loc 1 3561 0 is_stmt 0 discriminator 2
	movq	-216(%rbp), %rdx	# argptr.reg_save_area, D.16741
	movl	-232(%rbp), %eax	# argptr.gp_offset, D.16740
	movl	%eax, %eax	# D.16740, D.16742
	addq	%rdx, %rax	# D.16741, addr.359
	movl	-232(%rbp), %edx	# argptr.gp_offset, D.16740
	addl	$8, %edx	#, D.16740
	movl	%edx, -232(%rbp)	# D.16740, argptr.gp_offset
	jmp	.L497	#
.L496:
	.loc 1 3561 0 discriminator 1
	movq	-224(%rbp), %rdx	# argptr.overflow_arg_area, D.16741
	movq	%rdx, %rax	# D.16741, addr.359
	addq	$8, %rdx	#, D.16741
	movq	%rdx, -224(%rbp)	# D.16741, argptr.overflow_arg_area
.L497:
	.loc 1 3561 0 discriminator 3
	movl	(%rax), %edx	# MEM[(int * {ref-all})addr.359_13], D.16737
	leaq	-208(%rbp), %rcx	#, tmp163
	movq	-264(%rbp), %rax	# file, tmp164
	movq	%rcx, %rsi	# tmp163,
	movq	%rax, %rdi	# tmp164,
	movl	$0, %eax	#,
	call	fprintf	#
	.loc 1 3562 0 is_stmt 1 discriminator 3
	jmp	.L495	#
.L494:
	.loc 1 3572 0
	movq	-240(%rbp), %rax	# q, q.360
	leaq	1(%rax), %rdx	#, tmp165
	movq	%rdx, -240(%rbp)	# tmp165, q
	movb	$108, (%rax)	#, *q.360_60
	.loc 1 3579 0
	movq	-240(%rbp), %rax	# q, q.361
	leaq	1(%rax), %rdx	#, tmp166
	movq	%rdx, -240(%rbp)	# tmp166, q
	movq	-272(%rbp), %rdx	# p, p.362
	leaq	1(%rdx), %rcx	#, tmp167
	movq	%rcx, -272(%rbp)	# tmp167, p
	movzbl	(%rdx), %edx	# *p.362_64, D.16738
	movb	%dl, (%rax)	# D.16738, *q.361_62
	.loc 1 3580 0
	movq	-240(%rbp), %rax	# q, tmp168
	movb	$0, (%rax)	#, *q_63
	.loc 1 3581 0
	movl	-232(%rbp), %eax	# argptr.gp_offset, D.16740
	cmpl	$48, %eax	#, D.16740
	jae	.L498	#,
	.loc 1 3581 0 is_stmt 0 discriminator 2
	movq	-216(%rbp), %rdx	# argptr.reg_save_area, D.16741
	movl	-232(%rbp), %eax	# argptr.gp_offset, D.16740
	movl	%eax, %eax	# D.16740, D.16742
	addq	%rdx, %rax	# D.16741, addr.363
	movl	-232(%rbp), %edx	# argptr.gp_offset, D.16740
	addl	$8, %edx	#, D.16740
	movl	%edx, -232(%rbp)	# D.16740, argptr.gp_offset
	jmp	.L499	#
.L498:
	.loc 1 3581 0 discriminator 1
	movq	-224(%rbp), %rdx	# argptr.overflow_arg_area, D.16741
	movq	%rdx, %rax	# D.16741, addr.363
	addq	$8, %rdx	#, D.16741
	movq	%rdx, -224(%rbp)	# D.16741, argptr.overflow_arg_area
.L499:
	.loc 1 3581 0 discriminator 3
	movq	(%rax), %rdx	# MEM[(long int * {ref-all})addr.363_14], D.16743
	leaq	-208(%rbp), %rcx	#, tmp169
	movq	-264(%rbp), %rax	# file, tmp170
	movq	%rcx, %rsi	# tmp169,
	movq	%rax, %rdi	# tmp170,
	movl	$0, %eax	#,
	call	fprintf	#
	.loc 1 3582 0 is_stmt 1 discriminator 3
	jmp	.L495	#
.L492:
	.loc 1 3585 0
	movq	-240(%rbp), %rax	# q, q.364
	leaq	1(%rax), %rdx	#, tmp171
	movq	%rdx, -240(%rbp)	# tmp171, q
	movzbl	-245(%rbp), %edx	# c, tmp172
	movb	%dl, (%rax)	# tmp172, *q.364_78
	.loc 1 3586 0
	movq	-240(%rbp), %rax	# q, q.365
	leaq	1(%rax), %rdx	#, tmp173
	movq	%rdx, -240(%rbp)	# tmp173, q
	movq	-272(%rbp), %rdx	# p, p.366
	leaq	1(%rdx), %rcx	#, tmp174
	movq	%rcx, -272(%rbp)	# tmp174, p
	movzbl	(%rdx), %edx	# *p.366_82, D.16738
	movb	%dl, (%rax)	# D.16738, *q.365_80
	.loc 1 3587 0
	movq	-240(%rbp), %rax	# q, tmp175
	movb	$0, (%rax)	#, *q_81
	.loc 1 3588 0
	movl	-232(%rbp), %eax	# argptr.gp_offset, D.16740
	cmpl	$48, %eax	#, D.16740
	jae	.L500	#,
	.loc 1 3588 0 is_stmt 0 discriminator 2
	movq	-216(%rbp), %rdx	# argptr.reg_save_area, D.16741
	movl	-232(%rbp), %eax	# argptr.gp_offset, D.16740
	movl	%eax, %eax	# D.16740, D.16742
	addq	%rdx, %rax	# D.16741, addr.367
	movl	-232(%rbp), %edx	# argptr.gp_offset, D.16740
	addl	$8, %edx	#, D.16740
	movl	%edx, -232(%rbp)	# D.16740, argptr.gp_offset
	jmp	.L501	#
.L500:
	.loc 1 3588 0 discriminator 1
	movq	-224(%rbp), %rdx	# argptr.overflow_arg_area, D.16741
	movq	%rdx, %rax	# D.16741, addr.367
	addq	$8, %rdx	#, D.16741
	movq	%rdx, -224(%rbp)	# D.16741, argptr.overflow_arg_area
.L501:
	.loc 1 3588 0 discriminator 3
	movq	(%rax), %rdx	# MEM[(long int * {ref-all})addr.367_15], D.16743
	leaq	-208(%rbp), %rcx	#, tmp176
	movq	-264(%rbp), %rax	# file, tmp177
	movq	%rcx, %rsi	# tmp176,
	movq	%rax, %rdi	# tmp177,
	movl	$0, %eax	#,
	call	fprintf	#
	.loc 1 3589 0 is_stmt 1 discriminator 3
	jmp	.L495	#
.L491:
	.loc 1 3594 0
	movq	-240(%rbp), %rax	# q, q.368
	leaq	1(%rax), %rdx	#, tmp178
	movq	%rdx, -240(%rbp)	# tmp178, q
	movzbl	-245(%rbp), %edx	# c, tmp179
	movb	%dl, (%rax)	# tmp179, *q.368_96
	.loc 1 3595 0
	movq	-240(%rbp), %rax	# q, tmp180
	movb	$0, (%rax)	#, *q_97
	.loc 1 3596 0
	movl	-228(%rbp), %eax	# argptr.fp_offset, D.16740
	cmpl	$176, %eax	#, D.16740
	jae	.L502	#,
	.loc 1 3596 0 is_stmt 0 discriminator 2
	movq	-216(%rbp), %rdx	# argptr.reg_save_area, D.16741
	movl	-228(%rbp), %eax	# argptr.fp_offset, D.16740
	movl	%eax, %eax	# D.16740, D.16742
	addq	%rdx, %rax	# D.16741, addr.369
	movl	-228(%rbp), %edx	# argptr.fp_offset, D.16740
	addl	$16, %edx	#, D.16740
	movl	%edx, -228(%rbp)	# D.16740, argptr.fp_offset
	jmp	.L503	#
.L502:
	.loc 1 3596 0 discriminator 1
	movq	-224(%rbp), %rdx	# argptr.overflow_arg_area, D.16741
	movq	%rdx, %rax	# D.16741, addr.369
	addq	$8, %rdx	#, D.16741
	movq	%rdx, -224(%rbp)	# D.16741, argptr.overflow_arg_area
.L503:
	.loc 1 3596 0 discriminator 3
	movq	(%rax), %rax	# MEM[(double * {ref-all})addr.369_16], D.16744
	leaq	-208(%rbp), %rcx	#, tmp181
	movq	-264(%rbp), %rdx	# file, tmp182
	movq	%rax, -280(%rbp)	# D.16744, %sfp
	movsd	-280(%rbp), %xmm0	# %sfp,
	movq	%rcx, %rsi	# tmp181,
	movq	%rdx, %rdi	# tmp182,
	movl	$1, %eax	#,
	call	fprintf	#
	.loc 1 3597 0 is_stmt 1 discriminator 3
	jmp	.L495	#
.L493:
	.loc 1 3600 0
	movq	-240(%rbp), %rax	# q, q.370
	leaq	1(%rax), %rdx	#, tmp183
	movq	%rdx, -240(%rbp)	# tmp183, q
	movzbl	-245(%rbp), %edx	# c, tmp184
	movb	%dl, (%rax)	# tmp184, *q.370_109
	.loc 1 3601 0
	movq	-240(%rbp), %rax	# q, tmp185
	movb	$0, (%rax)	#, *q_110
	.loc 1 3602 0
	movl	-232(%rbp), %eax	# argptr.gp_offset, D.16740
	cmpl	$48, %eax	#, D.16740
	jae	.L504	#,
	.loc 1 3602 0 is_stmt 0 discriminator 2
	movq	-216(%rbp), %rdx	# argptr.reg_save_area, D.16741
	movl	-232(%rbp), %eax	# argptr.gp_offset, D.16740
	movl	%eax, %eax	# D.16740, D.16742
	addq	%rdx, %rax	# D.16741, addr.371
	movl	-232(%rbp), %edx	# argptr.gp_offset, D.16740
	addl	$8, %edx	#, D.16740
	movl	%edx, -232(%rbp)	# D.16740, argptr.gp_offset
	jmp	.L505	#
.L504:
	.loc 1 3602 0 discriminator 1
	movq	-224(%rbp), %rdx	# argptr.overflow_arg_area, D.16741
	movq	%rdx, %rax	# D.16741, addr.371
	addq	$8, %rdx	#, D.16741
	movq	%rdx, -224(%rbp)	# D.16741, argptr.overflow_arg_area
.L505:
	.loc 1 3602 0 discriminator 3
	movq	(%rax), %rdx	# MEM[(char * * {ref-all})addr.371_17], D.16745
	leaq	-208(%rbp), %rcx	#, tmp186
	movq	-264(%rbp), %rax	# file, tmp187
	movq	%rcx, %rsi	# tmp186,
	movq	%rax, %rdi	# tmp187,
	movl	$0, %eax	#,
	call	fprintf	#
	.loc 1 3603 0 is_stmt 1 discriminator 3
	jmp	.L495	#
.L486:
	.loc 1 3625 0
	movq	-264(%rbp), %rax	# file, tmp188
	movq	%rax, %rsi	# tmp188,
	movl	$46, %edi	#,
	call	fputc	#
	.loc 1 3627 0
	jmp	.L495	#
.L489:
	.loc 1 3630 0
	movq	user_label_prefix(%rip), %rax	# user_label_prefix, user_label_prefix.372
	movq	-264(%rbp), %rdx	# file, tmp189
	movq	%rdx, %rsi	# tmp189,
	movq	%rax, %rdi	# user_label_prefix.372,
	call	fputs	#
	.loc 1 3631 0
	jmp	.L495	#
.L482:
	.loc 1 3648 0
	movl	$__FUNCTION__.14347, %edx	#,
	movl	$3648, %esi	#,
	movl	$.LC0, %edi	#,
	call	fancy_abort	#
.L510:
	.loc 1 3621 0
	nop
.L495:
	.loc 1 3650 0
	jmp	.L466	#
.L467:
	.loc 1 3653 0
	movsbl	-245(%rbp), %eax	# c, D.16737
	movq	-264(%rbp), %rdx	# file, tmp190
	movq	%rdx, %rsi	# tmp190,
	movl	%eax, %edi	# D.16737,
	call	fputc	#
	jmp	.L466	#
.L509:
	.loc 1 3539 0
	nop
.L466:
	.loc 1 3511 0 discriminator 1
	movq	-272(%rbp), %rax	# p, p.373
	leaq	1(%rax), %rdx	#, tmp191
	movq	%rdx, -272(%rbp)	# tmp191, p
	movzbl	(%rax), %eax	# *p.373_19, tmp192
	movb	%al, -245(%rbp)	# tmp192, c
	cmpb	$0, -245(%rbp)	#, c
	jne	.L506	#,
.LBE47:
.LBE46:
	.loc 1 3656 0
	movq	-184(%rbp), %rax	# D.16746, tmp194
	xorq	%fs:40, %rax	#, tmp194
	je	.L507	#,
	call	__stack_chk_fail	#
.L507:
	leave
	.cfi_def_cfa 7, 8
	ret
	.cfi_endproc
.LFE37:
	.size	asm_fprintf, .-asm_fprintf
	.globl	split_double
	.type	split_double, @function
split_double:
.LFB38:
	.loc 1 3667 0
	.cfi_startproc
	pushq	%rbp	#
	.cfi_def_cfa_offset 16
	.cfi_offset 6, -16
	movq	%rsp, %rbp	#,
	.cfi_def_cfa_register 6
	subq	$160, %rsp	#,
	movq	%rdi, -120(%rbp)	# value, value
	movq	%rsi, -128(%rbp)	# first, first
	movq	%rdx, -136(%rbp)	# second, second
	.loc 1 3668 0
	movq	-120(%rbp), %rax	# value, tmp105
	movzwl	(%rax), %eax	# value_6(D)->code, D.16752
	cmpw	$54, %ax	#, D.16752
	jne	.L512	#,
	.loc 1 3670 0
	movl	target_flags(%rip), %eax	# target_flags, target_flags.374
	andl	$33554432, %eax	#, D.16753
	testl	%eax, %eax	# D.16753
	jne	.L513	#,
.LBB49:
	.loc 1 3679 0
	movq	$1, -96(%rbp)	#, sign_bit
	.loc 1 3680 0
	movl	target_flags(%rip), %eax	# target_flags, target_flags.376
	andl	$33554432, %eax	#, D.16753
	testl	%eax, %eax	# D.16753
	je	.L514	#,
	.loc 1 3680 0 is_stmt 0 discriminator 1
	movl	$63, %eax	#, iftmp.375
	jmp	.L515	#
.L514:
	.loc 1 3680 0 discriminator 2
	movl	$31, %eax	#, iftmp.375
.L515:
	.loc 1 3680 0 discriminator 3
	movl	%eax, %ecx	# iftmp.375, tmp155
	salq	%cl, -96(%rbp)	# tmp155, sign_bit
	.loc 1 3688 0 is_stmt 1 discriminator 3
	movq	-96(%rbp), %rax	# sign_bit, tmp109
	addq	%rax, %rax	# tmp108
	movq	%rax, -88(%rbp)	# tmp108, mask
	.loc 1 3689 0 discriminator 3
	subq	$1, -88(%rbp)	#, mask
	.loc 1 3692 0 discriminator 3
	movq	-88(%rbp), %rax	# mask, tmp113
	notq	%rax	# tmp112
	movq	%rax, -80(%rbp)	# tmp112, sign_extend
	.loc 1 3695 0 discriminator 3
	movq	-120(%rbp), %rax	# value, tmp114
	movq	8(%rax), %rax	# value_6(D)->fld[0].rtwint, D.16754
	movq	%rax, -112(%rbp)	# D.16754, low
	.loc 1 3696 0 discriminator 3
	movq	-88(%rbp), %rax	# mask, tmp115
	andq	%rax, -112(%rbp)	# tmp115, low
	.loc 1 3697 0 discriminator 3
	movq	-96(%rbp), %rax	# sign_bit, tmp116
	movq	-112(%rbp), %rdx	# low, tmp117
	andq	%rdx, %rax	# tmp117, D.16755
	testq	%rax, %rax	# D.16755
	je	.L516	#,
	.loc 1 3698 0
	movq	-80(%rbp), %rax	# sign_extend, tmp118
	orq	%rax, -112(%rbp)	# tmp118, low
.L516:
	.loc 1 3702 0
	movq	-120(%rbp), %rax	# value, tmp119
	movq	8(%rax), %rax	# value_6(D)->fld[0].rtwint, D.16754
	movq	%rax, -104(%rbp)	# D.16754, high
	.loc 1 3703 0
	movl	target_flags(%rip), %eax	# target_flags, target_flags.378
	andl	$33554432, %eax	#, D.16753
	testl	%eax, %eax	# D.16753
	je	.L517	#,
	.loc 1 3703 0 is_stmt 0 discriminator 1
	movl	$63, %eax	#, iftmp.377
	jmp	.L518	#
.L517:
	.loc 1 3703 0 discriminator 2
	movl	$31, %eax	#, iftmp.377
.L518:
	.loc 1 3703 0 discriminator 3
	movl	%eax, %ecx	# iftmp.377, tmp156
	shrq	%cl, -104(%rbp)	# tmp156, high
	.loc 1 3704 0 is_stmt 1 discriminator 3
	shrq	-104(%rbp)	# high
	.loc 1 3705 0 discriminator 3
	movq	-88(%rbp), %rax	# mask, tmp120
	andq	%rax, -104(%rbp)	# tmp120, high
	.loc 1 3706 0 discriminator 3
	movq	-96(%rbp), %rax	# sign_bit, tmp121
	movq	-104(%rbp), %rdx	# high, tmp122
	andq	%rdx, %rax	# tmp122, D.16755
	testq	%rax, %rax	# D.16755
	je	.L529	#,
	.loc 1 3707 0
	movq	-80(%rbp), %rax	# sign_extend, tmp123
	orq	%rax, -104(%rbp)	# tmp123, high
.L529:
	.loc 1 3717 0
	movq	-112(%rbp), %rax	# low, low.381
	movq	%rax, %rsi	# low.381,
	movl	$0, %edi	#,
	call	gen_rtx_CONST_INT	#
	movq	-128(%rbp), %rdx	# first, tmp124
	movq	%rax, (%rdx)	# D.16756, *first_37(D)
	.loc 1 3718 0
	movq	-104(%rbp), %rax	# high, high.382
	movq	%rax, %rsi	# high.382,
	movl	$0, %edi	#,
	call	gen_rtx_CONST_INT	#
	movq	-136(%rbp), %rdx	# second, tmp125
	movq	%rax, (%rdx)	# D.16756, *second_40(D)
.LBE49:
	jmp	.L511	#
.L513:
.LBB50:
	.loc 1 3726 0
	movq	-120(%rbp), %rax	# value, tmp126
	movq	8(%rax), %rax	# value_6(D)->fld[0].rtwint, D.16754
	testq	%rax, %rax	# D.16754
	jns	.L521	#,
	.loc 1 3726 0 is_stmt 0 discriminator 1
	movq	const_int_rtx+504(%rip), %rax	# const_int_rtx, iftmp.383
	jmp	.L522	#
.L521:
	.loc 1 3726 0 discriminator 2
	movq	const_int_rtx+512(%rip), %rax	# const_int_rtx, iftmp.383
.L522:
	.loc 1 3726 0 discriminator 3
	movq	%rax, -72(%rbp)	# iftmp.383, high
	.loc 1 3734 0 is_stmt 1 discriminator 3
	movq	-128(%rbp), %rax	# first, tmp127
	movq	-120(%rbp), %rdx	# value, tmp128
	movq	%rdx, (%rax)	# tmp128, *first_37(D)
	.loc 1 3735 0 discriminator 3
	movq	-136(%rbp), %rax	# second, tmp129
	movq	-72(%rbp), %rdx	# high, tmp130
	movq	%rdx, (%rax)	# tmp130, *second_40(D)
	jmp	.L511	#
.L512:
.LBE50:
	.loc 1 3739 0
	movq	-120(%rbp), %rax	# value, tmp131
	movzwl	(%rax), %eax	# value_6(D)->code, D.16752
	cmpw	$55, %ax	#, D.16752
	je	.L524	#,
	.loc 1 3748 0
	movq	-128(%rbp), %rax	# first, tmp132
	movq	-120(%rbp), %rdx	# value, tmp133
	movq	%rdx, (%rax)	# tmp133, *first_37(D)
	.loc 1 3749 0
	movq	const_int_rtx+512(%rip), %rdx	# const_int_rtx, D.16756
	movq	-136(%rbp), %rax	# second, tmp134
	movq	%rdx, (%rax)	# D.16756, *second_40(D)
	jmp	.L511	#
.L524:
	.loc 1 3752 0
	movq	-120(%rbp), %rax	# value, tmp135
	movzbl	2(%rax), %eax	# value_6(D)->mode, D.16757
	testb	%al, %al	# D.16757
	je	.L525	#,
	.loc 1 3754 0
	movq	-120(%rbp), %rax	# value, tmp136
	movzbl	2(%rax), %eax	# value_6(D)->mode, D.16757
	movzbl	%al, %eax	# D.16757, D.16753
	cltq
	movl	mode_class(,%rax,4), %eax	# mode_class, D.16758
	cmpl	$1, %eax	#, D.16758
	jne	.L526	#,
.L525:
	.loc 1 3765 0
	movq	-120(%rbp), %rax	# value, tmp138
	movq	16(%rax), %rax	# value_6(D)->fld[1].rtwint, D.16754
	movq	%rax, %rsi	# D.16754,
	movl	$0, %edi	#,
	call	gen_rtx_CONST_INT	#
	movq	-128(%rbp), %rdx	# first, tmp139
	movq	%rax, (%rdx)	# D.16756, *first_37(D)
	.loc 1 3766 0
	movq	-120(%rbp), %rax	# value, tmp140
	movq	24(%rax), %rax	# value_6(D)->fld[2].rtwint, D.16754
	movq	%rax, %rsi	# D.16754,
	movl	$0, %edi	#,
	call	gen_rtx_CONST_INT	#
	movq	-136(%rbp), %rdx	# second, tmp141
	movq	%rax, (%rdx)	# D.16756, *second_40(D)
	.loc 1 3758 0
	jmp	.L511	#
.L526:
.LBB51:
.LBB52:
	.loc 1 3774 0
	movq	-120(%rbp), %rax	# value, tmp142
	leaq	16(%rax), %rcx	#, D.16759
	leaq	-32(%rbp), %rax	#, tmp143
	movl	$24, %edx	#,
	movq	%rcx, %rsi	# D.16759,
	movq	%rax, %rdi	# tmp143,
	call	memcpy	#
	movq	-32(%rbp), %rax	# u.d, tmp144
	movq	%rax, -64(%rbp)	# tmp144, r
	movq	-24(%rbp), %rax	# u.d, tmp145
	movq	%rax, -56(%rbp)	# tmp145, r
	movq	-16(%rbp), %rax	# u.d, tmp146
	movq	%rax, -48(%rbp)	# tmp146, r
.LBE52:
	.loc 1 3780 0
	leaq	-32(%rbp), %rax	#, tmp147
	movq	-64(%rbp), %rdx	# r, tmp148
	movq	%rdx, (%rsp)	# tmp148,
	movq	-56(%rbp), %rdx	# r, tmp149
	movq	%rdx, 8(%rsp)	# tmp149,
	movq	-48(%rbp), %rdx	# r, tmp150
	movq	%rdx, 16(%rsp)	# tmp150,
	movq	%rax, %rdi	# tmp147,
	call	etardouble	#
	.loc 1 3789 0
	movl	target_flags(%rip), %eax	# target_flags, target_flags.384
	andl	$33554432, %eax	#, D.16753
	testl	%eax, %eax	# D.16753
	jne	.L527	#,
	.loc 1 3789 0 is_stmt 0 discriminator 1
	movl	target_flags(%rip), %eax	# target_flags, target_flags.385
	andl	$33554432, %eax	#, D.16753
	testl	%eax, %eax	# D.16753
	jne	.L527	#,
	.loc 1 3791 0 is_stmt 1
	movq	-32(%rbp), %rax	# l, D.16754
	andl	$2147483648, %eax	#, D.16754
	testq	%rax, %rax	# D.16754
	je	.L528	#,
	.loc 1 3792 0
	movq	-32(%rbp), %rdx	# l, D.16754
	movabsq	$-4294967296, %rax	#, tmp151
	orq	%rdx, %rax	# D.16754, D.16754
	movq	%rax, -32(%rbp)	# D.16754, l
.L528:
	.loc 1 3793 0
	movq	-24(%rbp), %rax	# l, D.16754
	andl	$2147483648, %eax	#, D.16754
	testq	%rax, %rax	# D.16754
	je	.L527	#,
	.loc 1 3794 0
	movq	-24(%rbp), %rdx	# l, D.16754
	movabsq	$-4294967296, %rax	#, tmp152
	orq	%rdx, %rax	# D.16754, D.16754
	movq	%rax, -24(%rbp)	# D.16754, l
.L527:
	.loc 1 3798 0
	movq	-32(%rbp), %rax	# l, D.16754
	movq	%rax, %rsi	# D.16754,
	movl	$0, %edi	#,
	call	gen_rtx_CONST_INT	#
	movq	-128(%rbp), %rdx	# first, tmp153
	movq	%rax, (%rdx)	# D.16756, *first_37(D)
	.loc 1 3799 0
	movq	-24(%rbp), %rax	# l, D.16754
	movq	%rax, %rsi	# D.16754,
	movl	$0, %edi	#,
	call	gen_rtx_CONST_INT	#
	movq	-136(%rbp), %rdx	# second, tmp154
	movq	%rax, (%rdx)	# D.16756, *second_40(D)
.L511:
.LBE51:
	.loc 1 3825 0
	leave
	.cfi_def_cfa 7, 8
	ret
	.cfi_endproc
.LFE38:
	.size	split_double, .-split_double
	.globl	leaf_function_p
	.type	leaf_function_p, @function
leaf_function_p:
.LFB39:
	.loc 1 3831 0
	.cfi_startproc
	pushq	%rbp	#
	.cfi_def_cfa_offset 16
	.cfi_offset 6, -16
	movq	%rsp, %rbp	#,
	.cfi_def_cfa_register 6
	subq	$16, %rsp	#,
	.loc 1 3835 0
	movq	cfun(%rip), %rax	# cfun, cfun.386
	movzbl	425(%rax), %eax	# *cfun.386_4, D.16763
	andl	$64, %eax	#, D.16763
	testb	%al, %al	# D.16763
	jne	.L531	#,
	.loc 1 3835 0 is_stmt 0 discriminator 1
	movl	profile_arc_flag(%rip), %eax	# profile_arc_flag, profile_arc_flag.387
	testl	%eax, %eax	# profile_arc_flag.387
	je	.L532	#,
.L531:
	.loc 1 3836 0 is_stmt 1
	movl	$0, %eax	#, D.16762
	jmp	.L533	#
.L532:
	.loc 1 3838 0
	call	get_insns	#
	movq	%rax, -16(%rbp)	# tmp96, insn
	jmp	.L534	#
.L537:
	.loc 1 3840 0
	movq	-16(%rbp), %rax	# insn, tmp97
	movzwl	(%rax), %eax	# insn_1->code, D.16764
	cmpw	$34, %ax	#, D.16764
	jne	.L535	#,
	.loc 1 3841 0
	movq	-16(%rbp), %rax	# insn, tmp98
	movzbl	3(%rax), %eax	# *insn_1, D.16763
	andl	$1, %eax	#, D.16763
	testb	%al, %al	# D.16763
	jne	.L535	#,
	.loc 1 3842 0
	movl	$0, %eax	#, D.16762
	jmp	.L533	#
.L535:
	.loc 1 3843 0
	movq	-16(%rbp), %rax	# insn, tmp99
	movzwl	(%rax), %eax	# insn_1->code, D.16764
	cmpw	$32, %ax	#, D.16764
	jne	.L536	#,
	.loc 1 3844 0
	movq	-16(%rbp), %rax	# insn, tmp100
	movq	32(%rax), %rax	# insn_1->fld[3].rtx, D.16765
	movzwl	(%rax), %eax	# _14->code, D.16764
	cmpw	$24, %ax	#, D.16764
	jne	.L536	#,
	.loc 1 3845 0
	movq	-16(%rbp), %rax	# insn, tmp101
	movq	32(%rax), %rax	# insn_1->fld[3].rtx, D.16765
	movq	8(%rax), %rax	# _16->fld[0].rtvec, D.16766
	movq	8(%rax), %rax	# _17->elem, D.16765
	movzwl	(%rax), %eax	# _18->code, D.16764
	cmpw	$34, %ax	#, D.16764
	jne	.L536	#,
	.loc 1 3846 0
	movq	-16(%rbp), %rax	# insn, tmp102
	movq	32(%rax), %rax	# insn_1->fld[3].rtx, D.16765
	movq	8(%rax), %rax	# _20->fld[0].rtvec, D.16766
	movq	8(%rax), %rax	# _21->elem, D.16765
	movzbl	3(%rax), %eax	# *_22, D.16763
	andl	$1, %eax	#, D.16763
	testb	%al, %al	# D.16763
	jne	.L536	#,
	.loc 1 3847 0
	movl	$0, %eax	#, D.16762
	jmp	.L533	#
.L536:
	.loc 1 3838 0
	movq	-16(%rbp), %rax	# insn, tmp103
	movq	24(%rax), %rax	# insn_1->fld[2].rtx, tmp104
	movq	%rax, -16(%rbp)	# tmp104, insn
.L534:
	.loc 1 3838 0 is_stmt 0 discriminator 1
	cmpq	$0, -16(%rbp)	#, insn
	jne	.L537	#,
	.loc 1 3849 0 is_stmt 1
	movq	cfun(%rip), %rax	# cfun, cfun.388
	movq	416(%rax), %rax	# cfun.388_27->epilogue_delay_list, tmp105
	movq	%rax, -8(%rbp)	# tmp105, link
	jmp	.L538	#
.L541:
	.loc 1 3853 0
	movq	-8(%rbp), %rax	# link, tmp106
	movq	8(%rax), %rax	# link_2->fld[0].rtx, tmp107
	movq	%rax, -16(%rbp)	# tmp107, insn
	.loc 1 3855 0
	movq	-16(%rbp), %rax	# insn, tmp108
	movzwl	(%rax), %eax	# insn_29->code, D.16764
	cmpw	$34, %ax	#, D.16764
	jne	.L539	#,
	.loc 1 3856 0
	movq	-16(%rbp), %rax	# insn, tmp109
	movzbl	3(%rax), %eax	# *insn_29, D.16763
	andl	$1, %eax	#, D.16763
	testb	%al, %al	# D.16763
	jne	.L539	#,
	.loc 1 3857 0
	movl	$0, %eax	#, D.16762
	jmp	.L533	#
.L539:
	.loc 1 3858 0
	movq	-16(%rbp), %rax	# insn, tmp110
	movzwl	(%rax), %eax	# insn_29->code, D.16764
	cmpw	$32, %ax	#, D.16764
	jne	.L540	#,
	.loc 1 3859 0
	movq	-16(%rbp), %rax	# insn, tmp111
	movq	32(%rax), %rax	# insn_29->fld[3].rtx, D.16765
	movzwl	(%rax), %eax	# _35->code, D.16764
	cmpw	$24, %ax	#, D.16764
	jne	.L540	#,
	.loc 1 3860 0
	movq	-16(%rbp), %rax	# insn, tmp112
	movq	32(%rax), %rax	# insn_29->fld[3].rtx, D.16765
	movq	8(%rax), %rax	# _37->fld[0].rtvec, D.16766
	movq	8(%rax), %rax	# _38->elem, D.16765
	movzwl	(%rax), %eax	# _39->code, D.16764
	cmpw	$34, %ax	#, D.16764
	jne	.L540	#,
	.loc 1 3861 0
	movq	-16(%rbp), %rax	# insn, tmp113
	movq	32(%rax), %rax	# insn_29->fld[3].rtx, D.16765
	movq	8(%rax), %rax	# _41->fld[0].rtvec, D.16766
	movq	8(%rax), %rax	# _42->elem, D.16765
	movzbl	3(%rax), %eax	# *_43, D.16763
	andl	$1, %eax	#, D.16763
	testb	%al, %al	# D.16763
	jne	.L540	#,
	.loc 1 3862 0
	movl	$0, %eax	#, D.16762
	jmp	.L533	#
.L540:
	.loc 1 3851 0
	movq	-8(%rbp), %rax	# link, tmp114
	movq	16(%rax), %rax	# link_2->fld[1].rtx, tmp115
	movq	%rax, -8(%rbp)	# tmp115, link
.L538:
	.loc 1 3849 0 discriminator 1
	cmpq	$0, -8(%rbp)	#, link
	jne	.L541	#,
	.loc 1 3865 0
	movl	$1, %eax	#, D.16762
.L533:
	.loc 1 3866 0
	leave
	.cfi_def_cfa 7, 8
	ret
	.cfi_endproc
.LFE39:
	.size	leaf_function_p, .-leaf_function_p
	.globl	final_forward_branch_p
	.type	final_forward_branch_p, @function
final_forward_branch_p:
.LFB40:
	.loc 1 3875 0
	.cfi_startproc
	pushq	%rbp	#
	.cfi_def_cfa_offset 16
	.cfi_offset 6, -16
	movq	%rsp, %rbp	#,
	.cfi_def_cfa_register 6
	subq	$32, %rsp	#,
	movq	%rdi, -24(%rbp)	# insn, insn
	.loc 1 3877 0
	movq	uid_shuid(%rip), %rax	# uid_shuid, uid_shuid.389
	testq	%rax, %rax	# uid_shuid.389
	jne	.L543	#,
	.loc 1 3878 0
	movl	$__FUNCTION__.14381, %edx	#,
	movl	$3878, %esi	#,
	movl	$.LC0, %edi	#,
	call	fancy_abort	#
.L543:
	.loc 1 3879 0
	movq	uid_shuid(%rip), %rdx	# uid_shuid, uid_shuid.390
	movq	-24(%rbp), %rax	# insn, tmp74
	movl	8(%rax), %eax	# insn_3(D)->fld[0].rtint, D.16767
	cltq
	salq	$2, %rax	#, D.16768
	addq	%rdx, %rax	# uid_shuid.390, D.16769
	movl	(%rax), %eax	# *_7, tmp75
	movl	%eax, -8(%rbp)	# tmp75, insn_id
	.loc 1 3880 0
	movq	uid_shuid(%rip), %rdx	# uid_shuid, uid_shuid.391
	movq	-24(%rbp), %rax	# insn, tmp76
	movq	64(%rax), %rax	# insn_3(D)->fld[7].rtx, D.16770
	movl	8(%rax), %eax	# _10->fld[0].rtint, D.16767
	cltq
	salq	$2, %rax	#, D.16768
	addq	%rdx, %rax	# uid_shuid.391, D.16769
	movl	(%rax), %eax	# *_14, tmp77
	movl	%eax, -4(%rbp)	# tmp77, label_id
	.loc 1 3882 0
	cmpl	$0, -8(%rbp)	#, insn_id
	je	.L544	#,
	.loc 1 3882 0 is_stmt 0 discriminator 1
	cmpl	$0, -4(%rbp)	#, label_id
	jne	.L545	#,
.L544:
	.loc 1 3883 0 is_stmt 1
	movl	$__FUNCTION__.14381, %edx	#,
	movl	$3883, %esi	#,
	movl	$.LC0, %edi	#,
	call	fancy_abort	#
.L545:
	.loc 1 3884 0
	movl	-8(%rbp), %eax	# insn_id, tmp78
	cmpl	-4(%rbp), %eax	# label_id, tmp78
	setl	%al	#, D.16771
	movzbl	%al, %eax	# D.16771, D.16767
	.loc 1 3885 0
	leave
	.cfi_def_cfa 7, 8
	ret
	.cfi_endproc
.LFE40:
	.size	final_forward_branch_p, .-final_forward_branch_p
	.section	.rodata
	.type	__FUNCTION__.13862, @object
	.size	__FUNCTION__.13862, 10
__FUNCTION__.13862:
	.string	"end_final"
	.align 16
	.type	__FUNCTION__.13976, @object
	.size	__FUNCTION__.13976, 17
__FUNCTION__.13976:
	.string	"shorten_branches"
	.align 16
	.type	__FUNCTION__.14086, @object
	.size	__FUNCTION__.14086, 18
__FUNCTION__.14086:
	.string	"get_insn_template"
	.align 16
	.type	__FUNCTION__.14120, @object
	.size	__FUNCTION__.14120, 16
__FUNCTION__.14120:
	.string	"final_scan_insn"
	.type	__FUNCTION__.14188, @object
	.size	__FUNCTION__.14188, 13
__FUNCTION__.14188:
	.string	"alter_subreg"
	.type	__FUNCTION__.14275, @object
	.size	__FUNCTION__.14275, 15
__FUNCTION__.14275:
	.string	"output_operand"
	.type	__FUNCTION__.14347, @object
	.size	__FUNCTION__.14347, 12
__FUNCTION__.14347:
	.string	"asm_fprintf"
	.align 16
	.type	__FUNCTION__.14381, @object
	.size	__FUNCTION__.14381, 23
__FUNCTION__.14381:
	.string	"final_forward_branch_p"
	.text
.Letext0:
	.file 2 "rtl.h"
	.file 3 "config.h"
	.file 4 "tree.h"
	.file 5 "i386.h"
	.file 6 "/usr/lib/gcc/x86_64-linux-gnu/4.8/include/stdarg.h"
	.file 7 "<built-in>"
	.file 8 "/usr/lib/gcc/x86_64-linux-gnu/4.8/include/stddef.h"
	.file 9 "/usr/include/x86_64-linux-gnu/bits/types.h"
	.file 10 "/usr/include/stdio.h"
	.file 11 "/usr/include/libio.h"
	.file 12 "machmode.h"
	.file 13 "real.h"
	.file 14 "hashtable.h"
	.file 15 "function.h"
	.file 16 "bitmap.h"
	.file 17 "basic-block.h"
	.file 18 "varray.h"
	.file 19 "regs.h"
	.file 20 "recog.h"
	.file 21 "flags.h"
	.file 22 "target.h"
	.file 23 "debug.h"
	.file 24 "./safe-ctype.h"
	.file 25 "hard-reg-set.h"
	.file 26 "output.h"
	.section	.note.GNU-stack,"",@progbits
