	.file	"fold-const.c"
# GNU C (Ubuntu/Linaro 4.8.1-10ubuntu9) version 4.8.1 (x86_64-linux-gnu)
#	compiled by GNU C version 4.8.1, GMP version 5.1.2, MPFR version 3.1.1-p2, MPC version 1.0.1
# GGC heuristics: --param ggc-min-expand=100 --param ggc-min-heapsize=131072
# options passed:  -I . -imultiarch x86_64-linux-gnu -D SPEC_CPU -D NDEBUG
# -D SPEC_CPU_LP64 fold-const.c -mtune=generic -march=x86-64 -g
# -fverbose-asm -fno-strict-aliasing -fstack-protector -Wformat
# -Wformat-security
# options enabled:  -faggressive-loop-optimizations
# -fasynchronous-unwind-tables -fauto-inc-dec -fbranch-count-reg -fcommon
# -fdelete-null-pointer-checks -fdwarf2-cfi-asm -fearly-inlining
# -feliminate-unused-debug-types -ffunction-cse -fgcse-lm -fgnu-runtime
# -fident -finline-atomics -fira-hoist-pressure -fira-share-save-slots
# -fira-share-spill-slots -fivopts -fkeep-static-consts
# -fleading-underscore -fmath-errno -fmerge-debug-strings
# -fmove-loop-invariants -fpeephole -fprefetch-loop-arrays
# -freg-struct-return -fsched-critical-path-heuristic
# -fsched-dep-count-heuristic -fsched-group-heuristic -fsched-interblock
# -fsched-last-insn-heuristic -fsched-rank-heuristic -fsched-spec
# -fsched-spec-insn-heuristic -fsched-stalled-insns-dep -fshow-column
# -fsigned-zeros -fsplit-ivs-in-unroller -fstack-protector
# -fstrict-volatile-bitfields -fsync-libcalls -ftrapping-math
# -ftree-coalesce-vars -ftree-cselim -ftree-forwprop -ftree-loop-if-convert
# -ftree-loop-im -ftree-loop-ivcanon -ftree-loop-optimize
# -ftree-parallelize-loops= -ftree-phiprop -ftree-pta -ftree-reassoc
# -ftree-scev-cprop -ftree-slp-vectorize -ftree-vect-loop-version
# -funit-at-a-time -funwind-tables -fverbose-asm -fzero-initialized-in-bss
# -m128bit-long-double -m64 -m80387 -maccumulate-outgoing-args
# -malign-stringops -mfancy-math-387 -mfp-ret-in-387 -mfxsr -mglibc
# -mieee-fp -mlong-double-80 -mmmx -mno-sse4 -mpush-args -mred-zone -msse
# -msse2 -mtls-direct-seg-refs

	.text
.Ltext0:
	.type	encode, @function
encode:
.LFB2:
	.file 1 "fold-const.c"
	.loc 1 149 0
	.cfi_startproc
	pushq	%rbp	#
	.cfi_def_cfa_offset 16
	.cfi_offset 6, -16
	movq	%rsp, %rbp	#,
	.cfi_def_cfa_register 6
	movq	%rdi, -8(%rbp)	# words, words
	movq	%rsi, -16(%rbp)	# low, low
	movq	%rdx, -24(%rbp)	# hi, hi
	.loc 1 150 0
	movq	-16(%rbp), %rax	# low, low.0
	movl	%eax, %edx	# low.0, D.20766
	movq	-8(%rbp), %rax	# words, tmp70
	movq	%rdx, (%rax)	# D.20766, *words_4(D)
	.loc 1 151 0
	movq	-8(%rbp), %rax	# words, tmp71
	leaq	8(%rax), %rdx	#, D.20767
	movq	-16(%rbp), %rax	# low, tmp72
	shrq	$32, %rax	#, D.20768
	movq	%rax, (%rdx)	# D.20766, *_5
	.loc 1 152 0
	movq	-8(%rbp), %rax	# words, tmp73
	leaq	16(%rax), %rdx	#, D.20767
	movq	-24(%rbp), %rax	# hi, tmp74
	movl	%eax, %eax	# tmp74, D.20766
	movq	%rax, (%rdx)	# D.20766, *_8
	.loc 1 153 0
	movq	-8(%rbp), %rax	# words, tmp75
	leaq	24(%rax), %rdx	#, D.20767
	movq	-24(%rbp), %rax	# hi, hi.1
	shrq	$32, %rax	#, D.20768
	movq	%rax, (%rdx)	# D.20766, *_11
	.loc 1 154 0
	popq	%rbp	#
	.cfi_def_cfa 7, 8
	ret
	.cfi_endproc
.LFE2:
	.size	encode, .-encode
	.type	decode, @function
decode:
.LFB3:
	.loc 1 165 0
	.cfi_startproc
	pushq	%rbp	#
	.cfi_def_cfa_offset 16
	.cfi_offset 6, -16
	movq	%rsp, %rbp	#,
	.cfi_def_cfa_register 6
	movq	%rdi, -8(%rbp)	# words, words
	movq	%rsi, -16(%rbp)	# low, low
	movq	%rdx, -24(%rbp)	# hi, hi
	.loc 1 166 0
	movq	-8(%rbp), %rax	# words, tmp75
	movq	(%rax), %rax	# *words_1(D), D.20769
	movq	-8(%rbp), %rdx	# words, tmp76
	addq	$8, %rdx	#, D.20771
	movq	(%rdx), %rdx	# *_4, D.20769
	salq	$32, %rdx	#, D.20770
	addq	%rax, %rdx	# D.20770, D.20770
	movq	-16(%rbp), %rax	# low, tmp77
	movq	%rdx, (%rax)	# D.20770, *low_9(D)
	.loc 1 167 0
	movq	-8(%rbp), %rax	# words, tmp78
	addq	$16, %rax	#, D.20771
	movq	(%rax), %rax	# *_10, D.20769
	movq	-8(%rbp), %rdx	# words, tmp79
	addq	$24, %rdx	#, D.20771
	movq	(%rdx), %rdx	# *_13, D.20769
	salq	$32, %rdx	#, D.20770
	addq	%rdx, %rax	# D.20770, D.20770
	movq	%rax, %rdx	# D.20770, D.20769
	movq	-24(%rbp), %rax	# hi, tmp80
	movq	%rdx, (%rax)	# D.20769, *hi_19(D)
	.loc 1 168 0
	popq	%rbp	#
	.cfi_def_cfa 7, 8
	ret
	.cfi_endproc
.LFE3:
	.size	decode, .-decode
	.globl	force_fit_type
	.type	force_fit_type, @function
force_fit_type:
.LFB4:
	.loc 1 184 0
	.cfi_startproc
	pushq	%rbp	#
	.cfi_def_cfa_offset 16
	.cfi_offset 6, -16
	movq	%rsp, %rbp	#,
	.cfi_def_cfa_register 6
	movq	%rdi, -40(%rbp)	# t, t
	movl	%esi, -44(%rbp)	# overflow, overflow
	.loc 1 189 0
	movq	-40(%rbp), %rax	# t, tmp120
	movzbl	16(%rax), %eax	# t_5(D)->common.code, D.20773
	cmpb	$26, %al	#, D.20773
	jne	.L4	#,
	.loc 1 195 0
	movl	-44(%rbp), %eax	# overflow, D.20772
	jmp	.L5	#
.L4:
	.loc 1 198 0
	movq	-40(%rbp), %rax	# t, tmp121
	movzbl	16(%rax), %eax	# t_5(D)->common.code, D.20773
	cmpb	$25, %al	#, D.20773
	je	.L6	#,
	.loc 1 199 0
	movl	-44(%rbp), %eax	# overflow, D.20772
	jmp	.L5	#
.L6:
	.loc 1 201 0
	movq	-40(%rbp), %rax	# t, tmp122
	movq	32(%rax), %rax	# t_5(D)->int_cst.int_cst.low, tmp123
	movq	%rax, -16(%rbp)	# tmp123, low
	.loc 1 202 0
	movq	-40(%rbp), %rax	# t, tmp124
	movq	40(%rax), %rax	# t_5(D)->int_cst.int_cst.high, tmp125
	movq	%rax, -8(%rbp)	# tmp125, high
	.loc 1 204 0
	movq	-40(%rbp), %rax	# t, tmp126
	movq	8(%rax), %rax	# t_5(D)->common.type, D.20774
	movzbl	16(%rax), %eax	# _13->common.code, D.20773
	cmpb	$13, %al	#, D.20773
	je	.L7	#,
	.loc 1 204 0 is_stmt 0 discriminator 1
	movq	-40(%rbp), %rax	# t, tmp127
	movq	8(%rax), %rax	# t_5(D)->common.type, D.20774
	movzbl	16(%rax), %eax	# _15->common.code, D.20773
	cmpb	$15, %al	#, D.20773
	jne	.L8	#,
.L7:
	.loc 1 205 0 is_stmt 1
	movl	target_flags(%rip), %eax	# target_flags, target_flags.3
	andl	$33554432, %eax	#, D.20772
	testl	%eax, %eax	# D.20772
	je	.L9	#,
	.loc 1 205 0 is_stmt 0 discriminator 1
	movl	$64, %eax	#, iftmp.2
	jmp	.L10	#
.L9:
	.loc 1 205 0 discriminator 2
	movl	$32, %eax	#, iftmp.2
.L10:
	.loc 1 205 0 discriminator 3
	movl	%eax, -20(%rbp)	# iftmp.2, prec
	jmp	.L11	#
.L8:
	.loc 1 207 0 is_stmt 1
	movq	-40(%rbp), %rax	# t, tmp128
	movq	8(%rax), %rax	# t_5(D)->common.type, D.20774
	movzwl	60(%rax), %eax	# *_17, tmp131
	andw	$511, %ax	#, D.20775
	movzwl	%ax, %eax	# D.20775, tmp132
	movl	%eax, -20(%rbp)	# tmp132, prec
.L11:
	.loc 1 211 0
	cmpl	$128, -20(%rbp)	#, prec
	je	.L12	#,
	.loc 1 213 0
	cmpl	$64, -20(%rbp)	#, prec
	jbe	.L13	#,
	.loc 1 215 0
	movq	-40(%rbp), %rax	# t, tmp133
	movq	40(%rax), %rdx	# t_5(D)->int_cst.int_cst.high, D.20776
	movl	-20(%rbp), %eax	# prec, tmp134
	subl	$64, %eax	#, D.20777
	movq	$-1, %rsi	#, tmp135
	movl	%eax, %ecx	# D.20772, tmp161
	salq	%cl, %rsi	# tmp161, D.20776
	movq	%rsi, %rax	# D.20776, D.20776
	notq	%rax	# D.20776
	andq	%rax, %rdx	# D.20776, D.20776
	movq	-40(%rbp), %rax	# t, tmp136
	movq	%rdx, 40(%rax)	# D.20776, t_5(D)->int_cst.int_cst.high
	jmp	.L12	#
.L13:
	.loc 1 218 0
	movq	-40(%rbp), %rax	# t, tmp137
	movq	$0, 40(%rax)	#, t_5(D)->int_cst.int_cst.high
	.loc 1 219 0
	cmpl	$63, -20(%rbp)	#, prec
	ja	.L12	#,
	.loc 1 220 0
	movq	-40(%rbp), %rax	# t, tmp138
	movq	32(%rax), %rdx	# t_5(D)->int_cst.int_cst.low, D.20778
	movl	-20(%rbp), %eax	# prec, prec.4
	movq	$-1, %rsi	#, tmp139
	movl	%eax, %ecx	# prec.4, tmp163
	salq	%cl, %rsi	# tmp163, D.20778
	movq	%rsi, %rax	# D.20778, D.20778
	notq	%rax	# D.20778
	andq	%rax, %rdx	# D.20778, D.20778
	movq	-40(%rbp), %rax	# t, tmp140
	movq	%rdx, 32(%rax)	# D.20778, t_5(D)->int_cst.int_cst.low
.L12:
	.loc 1 225 0
	movq	-40(%rbp), %rax	# t, tmp141
	movq	8(%rax), %rax	# t_5(D)->common.type, D.20774
	movzbl	17(%rax), %eax	# *_36, D.20773
	andl	$32, %eax	#, D.20773
	testb	%al, %al	# D.20773
	je	.L14	#,
	.loc 1 226 0
	movq	-40(%rbp), %rax	# t, tmp142
	movq	8(%rax), %rax	# t_5(D)->common.type, D.20774
	movzbl	16(%rax), %eax	# _39->common.code, D.20773
	cmpb	$6, %al	#, D.20773
	jne	.L15	#,
	.loc 1 227 0 discriminator 1
	movq	-40(%rbp), %rax	# t, tmp143
	movq	8(%rax), %rax	# t_5(D)->common.type, D.20774
	movzbl	62(%rax), %eax	# *_41, D.20773
	andl	$2, %eax	#, D.20773
	.loc 1 226 0 discriminator 1
	testb	%al, %al	# D.20773
	jne	.L14	#,
.L15:
	.loc 1 228 0
	movl	-44(%rbp), %eax	# overflow, D.20772
	jmp	.L5	#
.L14:
	.loc 1 231 0
	cmpl	$128, -20(%rbp)	#, prec
	je	.L16	#,
	.loc 1 232 0
	cmpl	$64, -20(%rbp)	#, prec
	jbe	.L17	#,
	.loc 1 233 0
	movq	-40(%rbp), %rax	# t, tmp144
	movq	40(%rax), %rdx	# t_5(D)->int_cst.int_cst.high, D.20776
	.loc 1 235 0
	movl	-20(%rbp), %eax	# prec, tmp145
	subl	$65, %eax	#, D.20777
	.loc 1 233 0
	movl	%eax, %ecx	# D.20772, tmp165
	sarq	%cl, %rdx	# tmp165, D.20776
	movq	%rdx, %rax	# D.20776, D.20776
	andl	$1, %eax	#, D.20776
	.loc 1 232 0
	testq	%rax, %rax	# D.20776
	setne	%al	#, iftmp.5
	jmp	.L18	#
.L17:
	.loc 1 236 0 discriminator 1
	movq	-40(%rbp), %rax	# t, tmp146
	movq	32(%rax), %rdx	# t_5(D)->int_cst.int_cst.low, D.20778
	.loc 1 237 0 discriminator 1
	movl	-20(%rbp), %eax	# prec, tmp147
	subl	$1, %eax	#, D.20777
	.loc 1 236 0 discriminator 1
	movl	%eax, %ecx	# D.20772, tmp167
	shrq	%cl, %rdx	# tmp167, D.20778
	movq	%rdx, %rax	# D.20778, D.20778
	andl	$1, %eax	#, D.20778
	.loc 1 232 0 discriminator 1
	testq	%rax, %rax	# D.20778
	setne	%al	#, iftmp.5
.L18:
	.loc 1 232 0 is_stmt 0 discriminator 2
	testb	%al, %al	# iftmp.5
	je	.L16	#,
	.loc 1 241 0 is_stmt 1
	cmpl	$64, -20(%rbp)	#, prec
	jbe	.L19	#,
	.loc 1 243 0
	movq	-40(%rbp), %rax	# t, tmp148
	movq	40(%rax), %rdx	# t_5(D)->int_cst.int_cst.high, D.20776
	movl	-20(%rbp), %eax	# prec, tmp149
	subl	$64, %eax	#, D.20777
	movq	$-1, %rsi	#, tmp150
	movl	%eax, %ecx	# D.20772, tmp169
	salq	%cl, %rsi	# tmp169, D.20776
	movq	%rsi, %rax	# D.20776, D.20776
	orq	%rax, %rdx	# D.20776, D.20776
	movq	-40(%rbp), %rax	# t, tmp151
	movq	%rdx, 40(%rax)	# D.20776, t_5(D)->int_cst.int_cst.high
	jmp	.L16	#
.L19:
	.loc 1 246 0
	movq	-40(%rbp), %rax	# t, tmp152
	movq	$-1, 40(%rax)	#, t_5(D)->int_cst.int_cst.high
	.loc 1 247 0
	cmpl	$63, -20(%rbp)	#, prec
	ja	.L16	#,
	.loc 1 248 0
	movq	-40(%rbp), %rax	# t, tmp153
	movq	32(%rax), %rdx	# t_5(D)->int_cst.int_cst.low, D.20778
	movl	-20(%rbp), %eax	# prec, prec.6
	movq	$-1, %rsi	#, tmp154
	movl	%eax, %ecx	# prec.6, tmp171
	salq	%cl, %rsi	# tmp171, D.20778
	movq	%rsi, %rax	# D.20778, D.20778
	orq	%rax, %rdx	# D.20778, D.20778
	movq	-40(%rbp), %rax	# t, tmp155
	movq	%rdx, 32(%rax)	# D.20778, t_5(D)->int_cst.int_cst.low
.L16:
	.loc 1 254 0
	movl	-44(%rbp), %eax	# overflow, tmp156
	movslq	%eax, %rdx	# tmp156, D.20778
	movq	-40(%rbp), %rax	# t, tmp157
	movq	32(%rax), %rax	# t_5(D)->int_cst.int_cst.low, D.20778
	xorq	-16(%rbp), %rax	# low, D.20778
	orq	%rax, %rdx	# D.20778, D.20778
	movq	-40(%rbp), %rax	# t, tmp158
	movq	40(%rax), %rax	# t_5(D)->int_cst.int_cst.high, D.20776
	xorq	-8(%rbp), %rax	# high, D.20776
	orq	%rdx, %rax	# D.20778, D.20778
	.loc 1 255 0
	testq	%rax, %rax	# D.20778
	setne	%al	#, D.20779
	.loc 1 253 0
	movzbl	%al, %eax	# D.20779, D.20772
.L5:
	.loc 1 256 0
	popq	%rbp	#
	.cfi_def_cfa 7, 8
	ret
	.cfi_endproc
.LFE4:
	.size	force_fit_type, .-force_fit_type
	.globl	add_double
	.type	add_double, @function
add_double:
.LFB5:
	.loc 1 269 0
	.cfi_startproc
	pushq	%rbp	#
	.cfi_def_cfa_offset 16
	.cfi_offset 6, -16
	movq	%rsp, %rbp	#,
	.cfi_def_cfa_register 6
	movq	%rdi, -24(%rbp)	# l1, l1
	movq	%rsi, -32(%rbp)	# h1, h1
	movq	%rdx, -40(%rbp)	# l2, l2
	movq	%rcx, -48(%rbp)	# h2, h2
	movq	%r8, -56(%rbp)	# lv, lv
	movq	%r9, -64(%rbp)	# hv, hv
	.loc 1 273 0
	movq	-40(%rbp), %rax	# l2, tmp73
	movq	-24(%rbp), %rdx	# l1, tmp74
	addq	%rdx, %rax	# tmp74, tmp72
	movq	%rax, -16(%rbp)	# tmp72, l
	.loc 1 274 0
	movq	-48(%rbp), %rax	# h2, tmp75
	movq	-32(%rbp), %rdx	# h1, tmp76
	addq	%rax, %rdx	# tmp75, D.20780
	movq	-16(%rbp), %rax	# l, tmp77
	cmpq	-24(%rbp), %rax	# l1, tmp77
	setb	%al	#, D.20781
	movzbl	%al, %eax	# D.20781, D.20780
	addq	%rdx, %rax	# D.20780, tmp78
	movq	%rax, -8(%rbp)	# tmp78, h
	.loc 1 276 0
	movq	-56(%rbp), %rax	# lv, tmp79
	movq	-16(%rbp), %rdx	# l, tmp80
	movq	%rdx, (%rax)	# tmp80, *lv_10(D)
	.loc 1 277 0
	movq	-64(%rbp), %rax	# hv, tmp81
	movq	-8(%rbp), %rdx	# h, tmp82
	movq	%rdx, (%rax)	# tmp82, *hv_11(D)
	.loc 1 278 0
	movq	-48(%rbp), %rax	# h2, tmp83
	movq	-32(%rbp), %rdx	# h1, tmp84
	xorq	%rdx, %rax	# tmp84, D.20780
	notq	%rax	# D.20780
	movq	%rax, %rcx	# D.20780, D.20780
	movq	-8(%rbp), %rax	# h, tmp85
	movq	-32(%rbp), %rdx	# h1, tmp86
	xorq	%rdx, %rax	# tmp86, D.20780
	andq	%rcx, %rax	# D.20780, D.20780
	shrq	$63, %rax	#, tmp87
	movzbl	%al, %eax	# D.20781, D.20782
	.loc 1 279 0
	popq	%rbp	#
	.cfi_def_cfa 7, 8
	ret
	.cfi_endproc
.LFE5:
	.size	add_double, .-add_double
	.globl	neg_double
	.type	neg_double, @function
neg_double:
.LFB6:
	.loc 1 292 0
	.cfi_startproc
	pushq	%rbp	#
	.cfi_def_cfa_offset 16
	.cfi_offset 6, -16
	movq	%rsp, %rbp	#,
	.cfi_def_cfa_register 6
	movq	%rdi, -8(%rbp)	# l1, l1
	movq	%rsi, -16(%rbp)	# h1, h1
	movq	%rdx, -24(%rbp)	# lv, lv
	movq	%rcx, -32(%rbp)	# hv, hv
	.loc 1 293 0
	cmpq	$0, -8(%rbp)	#, l1
	jne	.L23	#,
	.loc 1 295 0
	movq	-24(%rbp), %rax	# lv, tmp67
	movq	$0, (%rax)	#, *lv_3(D)
	.loc 1 296 0
	movq	-16(%rbp), %rax	# h1, tmp68
	negq	%rax	# D.20784
	movq	%rax, %rdx	# D.20784, D.20784
	movq	-32(%rbp), %rax	# hv, tmp69
	movq	%rdx, (%rax)	# D.20784, *hv_6(D)
	.loc 1 297 0
	movq	-32(%rbp), %rax	# hv, tmp70
	movq	(%rax), %rax	# *hv_6(D), D.20784
	andq	-16(%rbp), %rax	# h1, D.20784
	shrq	$63, %rax	#, tmp71
	movzbl	%al, %eax	# D.20785, D.20783
	jmp	.L24	#
.L23:
	.loc 1 301 0
	movq	-8(%rbp), %rax	# l1, tmp72
	negq	%rax	# D.20786
	movq	%rax, %rdx	# D.20786, D.20786
	movq	-24(%rbp), %rax	# lv, tmp73
	movq	%rdx, (%rax)	# D.20786, *lv_3(D)
	.loc 1 302 0
	movq	-16(%rbp), %rax	# h1, tmp74
	notq	%rax	# D.20784
	movq	%rax, %rdx	# D.20784, D.20784
	movq	-32(%rbp), %rax	# hv, tmp75
	movq	%rdx, (%rax)	# D.20784, *hv_6(D)
	.loc 1 303 0
	movl	$0, %eax	#, D.20783
.L24:
	.loc 1 305 0
	popq	%rbp	#
	.cfi_def_cfa 7, 8
	ret
	.cfi_endproc
.LFE6:
	.size	neg_double, .-neg_double
	.globl	mul_double
	.type	mul_double, @function
mul_double:
.LFB7:
	.loc 1 319 0
	.cfi_startproc
	pushq	%rbp	#
	.cfi_def_cfa_offset 16
	.cfi_offset 6, -16
	movq	%rsp, %rbp	#,
	.cfi_def_cfa_register 6
	subq	$240, %rsp	#,
	movq	%rdi, -200(%rbp)	# l1, l1
	movq	%rsi, -208(%rbp)	# h1, h1
	movq	%rdx, -216(%rbp)	# l2, l2
	movq	%rcx, -224(%rbp)	# h2, h2
	movq	%r8, -232(%rbp)	# lv, lv
	movq	%r9, -240(%rbp)	# hv, hv
	.loc 1 328 0
	movq	-208(%rbp), %rdx	# h1, tmp91
	movq	-200(%rbp), %rcx	# l1, tmp92
	leaq	-128(%rbp), %rax	#, tmp93
	movq	%rcx, %rsi	# tmp92,
	movq	%rax, %rdi	# tmp93,
	call	encode	#
	.loc 1 329 0
	movq	-224(%rbp), %rdx	# h2, tmp94
	movq	-216(%rbp), %rcx	# l2, tmp95
	leaq	-96(%rbp), %rax	#, tmp96
	movq	%rcx, %rsi	# tmp95,
	movq	%rax, %rdi	# tmp96,
	call	encode	#
	.loc 1 331 0
	leaq	-64(%rbp), %rax	#, tmp97
	movl	$64, %edx	#,
	movl	$0, %esi	#,
	movq	%rax, %rdi	# tmp97,
	call	memset	#
	.loc 1 333 0
	movl	$0, -180(%rbp)	#, i
	jmp	.L26	#
.L29:
	.loc 1 335 0
	movq	$0, -136(%rbp)	#, carry
	.loc 1 336 0
	movl	$0, -176(%rbp)	#, j
	jmp	.L27	#
.L28:
	.loc 1 338 0 discriminator 2
	movl	-176(%rbp), %eax	# j, tmp102
	movl	-180(%rbp), %edx	# i, tmp103
	addl	%edx, %eax	# tmp103, tmp101
	movl	%eax, -172(%rbp)	# tmp101, k
	.loc 1 340 0 discriminator 2
	movl	-180(%rbp), %eax	# i, tmp105
	cltq
	movq	-128(%rbp,%rax,8), %rdx	# arg1, D.20787
	movl	-176(%rbp), %eax	# j, tmp107
	cltq
	movq	-96(%rbp,%rax,8), %rax	# arg2, D.20787
	imulq	%rdx, %rax	# D.20787, D.20787
	addq	%rax, -136(%rbp)	# D.20788, carry
	.loc 1 342 0 discriminator 2
	movl	-172(%rbp), %eax	# k, tmp109
	cltq
	movq	-64(%rbp,%rax,8), %rax	# prod, D.20787
	addq	%rax, -136(%rbp)	# D.20788, carry
	.loc 1 343 0 discriminator 2
	movq	-136(%rbp), %rax	# carry, carry.7
	movl	%eax, %edx	# carry.7, D.20787
	movl	-172(%rbp), %eax	# k, tmp111
	cltq
	movq	%rdx, -64(%rbp,%rax,8)	# D.20787, prod
	.loc 1 344 0 discriminator 2
	shrq	$32, -136(%rbp)	#, carry
	.loc 1 336 0 discriminator 2
	addl	$1, -176(%rbp)	#, j
.L27:
	.loc 1 336 0 is_stmt 0 discriminator 1
	cmpl	$3, -176(%rbp)	#, j
	jle	.L28	#,
	.loc 1 346 0 is_stmt 1
	movl	-180(%rbp), %eax	# i, tmp112
	addl	$4, %eax	#, D.20789
	movq	-136(%rbp), %rdx	# carry, carry.8
	cltq
	movq	%rdx, -64(%rbp,%rax,8)	# carry.8, prod
	.loc 1 333 0
	addl	$1, -180(%rbp)	#, i
.L26:
	.loc 1 333 0 is_stmt 0 discriminator 1
	cmpl	$3, -180(%rbp)	#, i
	jle	.L29	#,
	.loc 1 349 0 is_stmt 1
	movq	-240(%rbp), %rdx	# hv, tmp114
	movq	-232(%rbp), %rcx	# lv, tmp115
	leaq	-64(%rbp), %rax	#, tmp116
	movq	%rcx, %rsi	# tmp115,
	movq	%rax, %rdi	# tmp116,
	call	decode	#
	.loc 1 353 0
	leaq	-152(%rbp), %rdx	#, tmp117
	leaq	-168(%rbp), %rax	#, tmp118
	leaq	-64(%rbp), %rcx	#, tmp119
	addq	$32, %rcx	#, tmp120
	movq	%rax, %rsi	# tmp118,
	movq	%rcx, %rdi	# tmp120,
	call	decode	#
	.loc 1 354 0
	cmpq	$0, -208(%rbp)	#, h1
	jns	.L30	#,
	.loc 1 356 0
	leaq	-144(%rbp), %rcx	#, tmp121
	leaq	-160(%rbp), %rdx	#, tmp122
	movq	-224(%rbp), %rsi	# h2, tmp123
	movq	-216(%rbp), %rax	# l2, tmp124
	movq	%rax, %rdi	# tmp124,
	call	neg_double	#
	.loc 1 357 0
	movq	-152(%rbp), %rcx	# tophigh, tophigh.9
	movq	-168(%rbp), %rdx	# toplow, toplow.10
	movq	-144(%rbp), %rsi	# neghigh, neghigh.11
	movq	-160(%rbp), %rax	# neglow, neglow.12
	leaq	-152(%rbp), %r8	#, tmp125
	leaq	-168(%rbp), %rdi	#, tmp126
	movq	%r8, %r9	# tmp125,
	movq	%rdi, %r8	# tmp126,
	movq	%rax, %rdi	# neglow.12,
	call	add_double	#
.L30:
	.loc 1 359 0
	cmpq	$0, -224(%rbp)	#, h2
	jns	.L31	#,
	.loc 1 361 0
	leaq	-144(%rbp), %rcx	#, tmp127
	leaq	-160(%rbp), %rdx	#, tmp128
	movq	-208(%rbp), %rsi	# h1, tmp129
	movq	-200(%rbp), %rax	# l1, tmp130
	movq	%rax, %rdi	# tmp130,
	call	neg_double	#
	.loc 1 362 0
	movq	-152(%rbp), %rcx	# tophigh, tophigh.13
	movq	-168(%rbp), %rdx	# toplow, toplow.14
	movq	-144(%rbp), %rsi	# neghigh, neghigh.15
	movq	-160(%rbp), %rax	# neglow, neglow.16
	leaq	-152(%rbp), %r8	#, tmp131
	leaq	-168(%rbp), %rdi	#, tmp132
	movq	%r8, %r9	# tmp131,
	movq	%rdi, %r8	# tmp132,
	movq	%rax, %rdi	# neglow.16,
	call	add_double	#
.L31:
	.loc 1 364 0
	movq	-240(%rbp), %rax	# hv, tmp133
	movq	(%rax), %rax	# *hv_29(D), D.20787
	testq	%rax, %rax	# D.20787
	jns	.L32	#,
	.loc 1 364 0 is_stmt 0 discriminator 1
	movq	-168(%rbp), %rdx	# toplow, toplow.18
	movq	-152(%rbp), %rax	# tophigh, tophigh.19
	andq	%rdx, %rax	# toplow.18, D.20788
	cmpq	$-1, %rax	#, D.20788
	setne	%al	#, D.20790
	movzbl	%al, %eax	# D.20790, iftmp.17
	jmp	.L33	#
.L32:
	.loc 1 364 0 discriminator 2
	movq	-168(%rbp), %rdx	# toplow, toplow.21
	movq	-152(%rbp), %rax	# tophigh, tophigh.22
	orq	%rdx, %rax	# toplow.21, D.20788
	testq	%rax, %rax	# D.20788
	setne	%al	#, D.20790
	movzbl	%al, %eax	# D.20790, iftmp.17
.L33:
	.loc 1 365 0 is_stmt 1 discriminator 3
	leave
	.cfi_def_cfa 7, 8
	ret
	.cfi_endproc
.LFE7:
	.size	mul_double, .-mul_double
	.globl	lshift_double
	.type	lshift_double, @function
lshift_double:
.LFB8:
	.loc 1 381 0
	.cfi_startproc
	pushq	%rbp	#
	.cfi_def_cfa_offset 16
	.cfi_offset 6, -16
	movq	%rsp, %rbp	#,
	.cfi_def_cfa_register 6
	subq	$80, %rsp	#,
	movq	%rdi, -24(%rbp)	# l1, l1
	movq	%rsi, -32(%rbp)	# h1, h1
	movq	%rdx, -40(%rbp)	# count, count
	movl	%ecx, -44(%rbp)	# prec, prec
	movq	%r8, -56(%rbp)	# lv, lv
	movq	%r9, -64(%rbp)	# hv, hv
	.loc 1 384 0
	cmpq	$0, -40(%rbp)	#, count
	jns	.L36	#,
	.loc 1 386 0
	movq	-40(%rbp), %rax	# count, tmp112
	negq	%rax	# D.20791
	movq	%rax, %rdi	# D.20791, D.20791
	movq	-64(%rbp), %r9	# hv, tmp113
	movq	-56(%rbp), %r8	# lv, tmp114
	movl	-44(%rbp), %edx	# prec, tmp115
	movq	-32(%rbp), %rsi	# h1, tmp116
	movq	-24(%rbp), %rax	# l1, tmp117
	movl	16(%rbp), %ecx	# arith, tmp118
	movl	%ecx, (%rsp)	# tmp118,
	movl	%edx, %ecx	# tmp115,
	movq	%rdi, %rdx	# D.20791,
	movq	%rax, %rdi	# tmp117,
	call	rshift_double	#
	.loc 1 387 0
	jmp	.L35	#
.L36:
	.loc 1 395 0
	cmpq	$127, -40(%rbp)	#, count
	jle	.L38	#,
	.loc 1 399 0
	movq	-64(%rbp), %rax	# hv, tmp119
	movq	$0, (%rax)	#, *hv_8(D)
	.loc 1 400 0
	movq	-56(%rbp), %rax	# lv, tmp120
	movq	$0, (%rax)	#, *lv_7(D)
	jmp	.L39	#
.L38:
	.loc 1 402 0
	cmpq	$63, -40(%rbp)	#, count
	jle	.L40	#,
	.loc 1 404 0
	movq	-40(%rbp), %rax	# count, tmp121
	subl	$64, %eax	#, D.20792
	movq	-24(%rbp), %rdx	# l1, tmp122
	movl	%eax, %ecx	# D.20793, tmp154
	salq	%cl, %rdx	# tmp154, D.20794
	movq	%rdx, %rax	# D.20794, D.20794
	movq	%rax, %rdx	# D.20794, D.20791
	movq	-64(%rbp), %rax	# hv, tmp123
	movq	%rdx, (%rax)	# D.20791, *hv_8(D)
	.loc 1 405 0
	movq	-56(%rbp), %rax	# lv, tmp124
	movq	$0, (%rax)	#, *lv_7(D)
	jmp	.L39	#
.L40:
	.loc 1 409 0
	movq	-32(%rbp), %rdx	# h1, h1.24
	movq	-40(%rbp), %rax	# count, tmp125
	movq	%rdx, %rsi	# h1.24, D.20794
	movl	%eax, %ecx	# D.20793, tmp156
	salq	%cl, %rsi	# tmp156, D.20794
	.loc 1 410 0
	movq	-40(%rbp), %rax	# count, tmp126
	movl	$63, %edx	#, tmp127
	subl	%eax, %edx	# D.20792, D.20792
	movl	%edx, %eax	# D.20792, D.20792
	movq	-24(%rbp), %rdx	# l1, tmp128
	movl	%eax, %ecx	# D.20793, tmp159
	shrq	%cl, %rdx	# tmp159, D.20794
	movq	%rdx, %rax	# D.20794, D.20794
	shrq	%rax	# D.20794
	orq	%rsi, %rax	# D.20794, D.20794
	.loc 1 409 0
	movq	%rax, %rdx	# D.20794, D.20791
	movq	-64(%rbp), %rax	# hv, tmp129
	movq	%rdx, (%rax)	# D.20791, *hv_8(D)
	.loc 1 411 0
	movq	-40(%rbp), %rax	# count, tmp130
	movq	-24(%rbp), %rdx	# l1, tmp131
	movl	%eax, %ecx	# D.20793, tmp160
	salq	%cl, %rdx	# tmp160, D.20794
	movq	-56(%rbp), %rax	# lv, tmp132
	movq	%rdx, (%rax)	# D.20794, *lv_7(D)
.L39:
	.loc 1 416 0
	cmpl	$64, -44(%rbp)	#, prec
	jbe	.L41	#,
	.loc 1 417 0
	movq	-64(%rbp), %rax	# hv, tmp133
	movq	(%rax), %rdx	# *hv_8(D), D.20791
	movl	-44(%rbp), %eax	# prec, tmp134
	subl	$65, %eax	#, D.20795
	movl	%eax, %ecx	# D.20793, tmp162
	sarq	%cl, %rdx	# tmp162, D.20791
	movq	%rdx, %rax	# D.20791, D.20791
	.loc 1 418 0
	andl	$1, %eax	#, D.20794
	.loc 1 416 0
	negq	%rax	# iftmp.25
	jmp	.L42	#
.L41:
	.loc 1 418 0 discriminator 1
	movq	-56(%rbp), %rax	# lv, tmp135
	movq	(%rax), %rdx	# *lv_7(D), D.20794
	movl	-44(%rbp), %eax	# prec, tmp136
	subl	$1, %eax	#, D.20795
	movl	%eax, %ecx	# D.20793, tmp164
	shrq	%cl, %rdx	# tmp164, D.20794
	movq	%rdx, %rax	# D.20794, D.20794
	andl	$1, %eax	#, D.20794
	.loc 1 416 0 discriminator 1
	negq	%rax	# iftmp.25
.L42:
	.loc 1 416 0 is_stmt 0 discriminator 2
	movq	%rax, -8(%rbp)	# iftmp.25, signmask
	.loc 1 420 0 is_stmt 1 discriminator 2
	cmpl	$127, -44(%rbp)	#, prec
	ja	.L35	#,
	.loc 1 422 0
	cmpl	$63, -44(%rbp)	#, prec
	jbe	.L43	#,
	.loc 1 424 0
	movq	-64(%rbp), %rax	# hv, tmp137
	movq	(%rax), %rdx	# *hv_8(D), D.20791
	movl	-44(%rbp), %eax	# prec, tmp138
	subl	$64, %eax	#, D.20795
	movq	$-1, %rsi	#, tmp139
	movl	%eax, %ecx	# D.20793, tmp166
	salq	%cl, %rsi	# tmp166, D.20791
	movq	%rsi, %rax	# D.20791, D.20791
	notq	%rax	# D.20791
	andq	%rax, %rdx	# D.20791, D.20791
	movq	-64(%rbp), %rax	# hv, tmp140
	movq	%rdx, (%rax)	# D.20791, *hv_8(D)
	.loc 1 425 0
	movq	-64(%rbp), %rax	# hv, tmp141
	movq	(%rax), %rax	# *hv_8(D), D.20791
	movq	%rax, %rdx	# D.20791, D.20794
	movl	-44(%rbp), %eax	# prec, tmp142
	subl	$64, %eax	#, D.20795
	movq	-8(%rbp), %rsi	# signmask, tmp143
	movl	%eax, %ecx	# D.20793, tmp168
	salq	%cl, %rsi	# tmp168, D.20794
	movq	%rsi, %rax	# D.20794, D.20794
	orq	%rdx, %rax	# D.20794, D.20794
	movq	%rax, %rdx	# D.20794, D.20791
	movq	-64(%rbp), %rax	# hv, tmp144
	movq	%rdx, (%rax)	# D.20791, *hv_8(D)
	jmp	.L35	#
.L43:
	.loc 1 429 0
	movq	-8(%rbp), %rdx	# signmask, signmask.26
	movq	-64(%rbp), %rax	# hv, tmp145
	movq	%rdx, (%rax)	# signmask.26, *hv_8(D)
	.loc 1 430 0
	movq	-56(%rbp), %rax	# lv, tmp146
	movq	(%rax), %rdx	# *lv_7(D), D.20794
	movl	-44(%rbp), %eax	# prec, prec.27
	movq	$-1, %rsi	#, tmp147
	movl	%eax, %ecx	# prec.27, tmp170
	salq	%cl, %rsi	# tmp170, D.20794
	movq	%rsi, %rax	# D.20794, D.20794
	notq	%rax	# D.20794
	andq	%rax, %rdx	# D.20794, D.20794
	movq	-56(%rbp), %rax	# lv, tmp148
	movq	%rdx, (%rax)	# D.20794, *lv_7(D)
	.loc 1 431 0
	movq	-56(%rbp), %rax	# lv, tmp149
	movq	(%rax), %rdx	# *lv_7(D), D.20794
	movl	-44(%rbp), %eax	# prec, prec.28
	movq	-8(%rbp), %rsi	# signmask, tmp150
	movl	%eax, %ecx	# prec.28, tmp172
	salq	%cl, %rsi	# tmp172, D.20794
	movq	%rsi, %rax	# D.20794, D.20794
	orq	%rax, %rdx	# D.20794, D.20794
	movq	-56(%rbp), %rax	# lv, tmp151
	movq	%rdx, (%rax)	# D.20794, *lv_7(D)
.L35:
	.loc 1 433 0
	leave
	.cfi_def_cfa 7, 8
	ret
	.cfi_endproc
.LFE8:
	.size	lshift_double, .-lshift_double
	.globl	rshift_double
	.type	rshift_double, @function
rshift_double:
.LFB9:
	.loc 1 448 0
	.cfi_startproc
	pushq	%rbp	#
	.cfi_def_cfa_offset 16
	.cfi_offset 6, -16
	movq	%rsp, %rbp	#,
	.cfi_def_cfa_register 6
	movq	%rdi, -24(%rbp)	# l1, l1
	movq	%rsi, -32(%rbp)	# h1, h1
	movq	%rdx, -40(%rbp)	# count, count
	movl	%ecx, -44(%rbp)	# prec, prec
	movq	%r8, -56(%rbp)	# lv, lv
	movq	%r9, -64(%rbp)	# hv, hv
	.loc 1 453 0
	cmpl	$0, 16(%rbp)	#, arith
	je	.L45	#,
	.loc 1 452 0
	movq	-32(%rbp), %rax	# h1, tmp116
	sarq	$63, %rax	#, D.20796
	jmp	.L46	#
.L45:
	.loc 1 453 0 discriminator 1
	movl	$0, %eax	#, iftmp.29
.L46:
	.loc 1 451 0
	movq	%rax, -8(%rbp)	# iftmp.29, signmask
	.loc 1 460 0
	cmpq	$127, -40(%rbp)	#, count
	jle	.L47	#,
	.loc 1 464 0
	movq	-64(%rbp), %rax	# hv, tmp117
	movq	$0, (%rax)	#, *hv_9(D)
	.loc 1 465 0
	movq	-56(%rbp), %rax	# lv, tmp118
	movq	$0, (%rax)	#, *lv_10(D)
	jmp	.L48	#
.L47:
	.loc 1 467 0
	cmpq	$63, -40(%rbp)	#, count
	jle	.L49	#,
	.loc 1 469 0
	movq	-64(%rbp), %rax	# hv, tmp119
	movq	$0, (%rax)	#, *hv_9(D)
	.loc 1 470 0
	movq	-32(%rbp), %rdx	# h1, h1.30
	movq	-40(%rbp), %rax	# count, tmp120
	subl	$64, %eax	#, D.20797
	movl	%eax, %ecx	# D.20798, tmp153
	shrq	%cl, %rdx	# tmp153, D.20799
	movq	-56(%rbp), %rax	# lv, tmp121
	movq	%rdx, (%rax)	# D.20799, *lv_10(D)
	jmp	.L48	#
.L49:
	.loc 1 474 0
	movq	-32(%rbp), %rdx	# h1, h1.31
	movq	-40(%rbp), %rax	# count, tmp122
	movl	%eax, %ecx	# D.20798, tmp155
	shrq	%cl, %rdx	# tmp155, D.20799
	movq	%rdx, %rax	# D.20799, D.20799
	movq	%rax, %rdx	# D.20799, D.20800
	movq	-64(%rbp), %rax	# hv, tmp123
	movq	%rdx, (%rax)	# D.20800, *hv_9(D)
	.loc 1 475 0
	movq	-40(%rbp), %rax	# count, tmp124
	movq	-24(%rbp), %rdx	# l1, tmp125
	movq	%rdx, %rsi	# tmp125, D.20799
	movl	%eax, %ecx	# D.20798, tmp157
	shrq	%cl, %rsi	# tmp157, D.20799
	.loc 1 476 0
	movq	-32(%rbp), %rdx	# h1, h1.32
	movq	-40(%rbp), %rax	# count, tmp126
	movl	$63, %ecx	#, tmp127
	subl	%eax, %ecx	# D.20797, D.20797
	movl	%ecx, %eax	# D.20797, D.20797
	movl	%eax, %ecx	# D.20798, tmp160
	salq	%cl, %rdx	# tmp160, D.20799
	movq	%rdx, %rax	# D.20799, D.20799
	addq	%rax, %rax	# D.20799
	orq	%rax, %rsi	# D.20799, D.20799
	movq	%rsi, %rdx	# D.20799, D.20799
	.loc 1 475 0
	movq	-56(%rbp), %rax	# lv, tmp128
	movq	%rdx, (%rax)	# D.20799, *lv_10(D)
.L48:
	.loc 1 481 0
	movl	-44(%rbp), %eax	# prec, D.20800
	cmpq	-40(%rbp), %rax	# count, D.20800
	jg	.L50	#,
	.loc 1 483 0
	movq	-8(%rbp), %rdx	# signmask, signmask.33
	movq	-64(%rbp), %rax	# hv, tmp129
	movq	%rdx, (%rax)	# signmask.33, *hv_9(D)
	.loc 1 484 0
	movq	-56(%rbp), %rax	# lv, tmp130
	movq	-8(%rbp), %rdx	# signmask, tmp131
	movq	%rdx, (%rax)	# tmp131, *lv_10(D)
	jmp	.L44	#
.L50:
	.loc 1 486 0
	movl	-44(%rbp), %eax	# prec, D.20800
	subq	-40(%rbp), %rax	# count, D.20800
	cmpq	$127, %rax	#, D.20800
	jg	.L44	#,
	.loc 1 488 0
	movl	-44(%rbp), %eax	# prec, D.20800
	subq	-40(%rbp), %rax	# count, D.20800
	cmpq	$63, %rax	#, D.20800
	jle	.L52	#,
	.loc 1 490 0
	movq	-64(%rbp), %rax	# hv, tmp132
	movq	(%rax), %rdx	# *hv_9(D), D.20800
	movq	-40(%rbp), %rax	# count, tmp133
	movl	-44(%rbp), %ecx	# prec, tmp134
	subl	%eax, %ecx	# D.20797, D.20797
	movl	%ecx, %eax	# D.20797, D.20797
	subl	$64, %eax	#, D.20797
	movq	$-1, %rsi	#, tmp135
	movl	%eax, %ecx	# D.20798, tmp164
	salq	%cl, %rsi	# tmp164, D.20800
	movq	%rsi, %rax	# D.20800, D.20800
	notq	%rax	# D.20800
	andq	%rax, %rdx	# D.20800, D.20800
	movq	-64(%rbp), %rax	# hv, tmp136
	movq	%rdx, (%rax)	# D.20800, *hv_9(D)
	.loc 1 491 0
	movq	-64(%rbp), %rax	# hv, tmp137
	movq	(%rax), %rax	# *hv_9(D), D.20800
	movq	%rax, %rdx	# D.20800, D.20799
	movq	-40(%rbp), %rax	# count, tmp138
	movl	-44(%rbp), %ecx	# prec, tmp139
	subl	%eax, %ecx	# D.20797, D.20797
	movl	%ecx, %eax	# D.20797, D.20797
	subl	$64, %eax	#, D.20797
	movq	-8(%rbp), %rsi	# signmask, tmp140
	movl	%eax, %ecx	# D.20798, tmp167
	salq	%cl, %rsi	# tmp167, D.20799
	movq	%rsi, %rax	# D.20799, D.20799
	orq	%rdx, %rax	# D.20799, D.20799
	movq	%rax, %rdx	# D.20799, D.20800
	movq	-64(%rbp), %rax	# hv, tmp141
	movq	%rdx, (%rax)	# D.20800, *hv_9(D)
	jmp	.L44	#
.L52:
	.loc 1 495 0
	movq	-8(%rbp), %rdx	# signmask, signmask.34
	movq	-64(%rbp), %rax	# hv, tmp142
	movq	%rdx, (%rax)	# signmask.34, *hv_9(D)
	.loc 1 496 0
	movq	-56(%rbp), %rax	# lv, tmp143
	movq	(%rax), %rdx	# *lv_10(D), D.20799
	movq	-40(%rbp), %rax	# count, tmp144
	movl	-44(%rbp), %ecx	# prec, tmp145
	subl	%eax, %ecx	# D.20797, D.20797
	movl	%ecx, %eax	# D.20797, D.20797
	movq	$-1, %rsi	#, tmp146
	movl	%eax, %ecx	# D.20798, tmp170
	salq	%cl, %rsi	# tmp170, D.20799
	movq	%rsi, %rax	# D.20799, D.20799
	notq	%rax	# D.20799
	andq	%rax, %rdx	# D.20799, D.20799
	movq	-56(%rbp), %rax	# lv, tmp147
	movq	%rdx, (%rax)	# D.20799, *lv_10(D)
	.loc 1 497 0
	movq	-56(%rbp), %rax	# lv, tmp148
	movq	(%rax), %rdx	# *lv_10(D), D.20799
	movq	-40(%rbp), %rax	# count, tmp149
	movl	-44(%rbp), %ecx	# prec, tmp150
	subl	%eax, %ecx	# D.20797, D.20797
	movl	%ecx, %eax	# D.20797, D.20797
	movq	-8(%rbp), %rsi	# signmask, tmp151
	movl	%eax, %ecx	# D.20798, tmp173
	salq	%cl, %rsi	# tmp173, D.20799
	movq	%rsi, %rax	# D.20799, D.20799
	orq	%rax, %rdx	# D.20799, D.20799
	movq	-56(%rbp), %rax	# lv, tmp152
	movq	%rdx, (%rax)	# D.20799, *lv_10(D)
.L44:
	.loc 1 499 0
	popq	%rbp	#
	.cfi_def_cfa 7, 8
	ret
	.cfi_endproc
.LFE9:
	.size	rshift_double, .-rshift_double
	.globl	lrotate_double
	.type	lrotate_double, @function
lrotate_double:
.LFB10:
	.loc 1 513 0
	.cfi_startproc
	pushq	%rbp	#
	.cfi_def_cfa_offset 16
	.cfi_offset 6, -16
	movq	%rsp, %rbp	#,
	.cfi_def_cfa_register 6
	subq	$96, %rsp	#,
	movq	%rdi, -40(%rbp)	# l1, l1
	movq	%rsi, -48(%rbp)	# h1, h1
	movq	%rdx, -56(%rbp)	# count, count
	movl	%ecx, -60(%rbp)	# prec, prec
	movq	%r8, -72(%rbp)	# lv, lv
	movq	%r9, -80(%rbp)	# hv, hv
	.loc 1 517 0
	movl	-60(%rbp), %ecx	# prec, D.20801
	movq	-56(%rbp), %rax	# count, tmp70
	cqto
	idivq	%rcx	# D.20801
	movq	%rdx, -56(%rbp)	# tmp71, count
	.loc 1 518 0
	cmpq	$0, -56(%rbp)	#, count
	jns	.L54	#,
	.loc 1 519 0
	movl	-60(%rbp), %eax	# prec, D.20801
	addq	%rax, -56(%rbp)	# D.20801, count
.L54:
	.loc 1 521 0
	leaq	-16(%rbp), %r8	#, tmp73
	leaq	-32(%rbp), %rdi	#, tmp74
	movl	-60(%rbp), %ecx	# prec, tmp75
	movq	-56(%rbp), %rdx	# count, tmp76
	movq	-48(%rbp), %rsi	# h1, tmp77
	movq	-40(%rbp), %rax	# l1, tmp78
	movl	$0, (%rsp)	#,
	movq	%r8, %r9	# tmp73,
	movq	%rdi, %r8	# tmp74,
	movq	%rax, %rdi	# tmp78,
	call	lshift_double	#
	.loc 1 522 0
	movl	-60(%rbp), %eax	# prec, D.20801
	subq	-56(%rbp), %rax	# count, D.20801
	movq	%rax, %rdx	# D.20801, D.20801
	leaq	-8(%rbp), %r8	#, tmp79
	leaq	-24(%rbp), %rdi	#, tmp80
	movl	-60(%rbp), %ecx	# prec, tmp81
	movq	-48(%rbp), %rsi	# h1, tmp82
	movq	-40(%rbp), %rax	# l1, tmp83
	movl	$0, (%rsp)	#,
	movq	%r8, %r9	# tmp79,
	movq	%rdi, %r8	# tmp80,
	movq	%rax, %rdi	# tmp83,
	call	rshift_double	#
	.loc 1 523 0
	movq	-32(%rbp), %rdx	# s1l, s1l.35
	movq	-24(%rbp), %rax	# s2l, s2l.36
	orq	%rax, %rdx	# s2l.36, D.20802
	movq	-72(%rbp), %rax	# lv, tmp84
	movq	%rdx, (%rax)	# D.20802, *lv_15(D)
	.loc 1 524 0
	movq	-16(%rbp), %rdx	# s1h, s1h.37
	movq	-8(%rbp), %rax	# s2h, s2h.38
	orq	%rax, %rdx	# s2h.38, D.20801
	movq	-80(%rbp), %rax	# hv, tmp85
	movq	%rdx, (%rax)	# D.20801, *hv_19(D)
	.loc 1 525 0
	leave
	.cfi_def_cfa 7, 8
	ret
	.cfi_endproc
.LFE10:
	.size	lrotate_double, .-lrotate_double
	.globl	rrotate_double
	.type	rrotate_double, @function
rrotate_double:
.LFB11:
	.loc 1 538 0
	.cfi_startproc
	pushq	%rbp	#
	.cfi_def_cfa_offset 16
	.cfi_offset 6, -16
	movq	%rsp, %rbp	#,
	.cfi_def_cfa_register 6
	subq	$96, %rsp	#,
	movq	%rdi, -40(%rbp)	# l1, l1
	movq	%rsi, -48(%rbp)	# h1, h1
	movq	%rdx, -56(%rbp)	# count, count
	movl	%ecx, -60(%rbp)	# prec, prec
	movq	%r8, -72(%rbp)	# lv, lv
	movq	%r9, -80(%rbp)	# hv, hv
	.loc 1 542 0
	movl	-60(%rbp), %ecx	# prec, D.20804
	movq	-56(%rbp), %rax	# count, tmp70
	cqto
	idivq	%rcx	# D.20804
	movq	%rdx, -56(%rbp)	# tmp71, count
	.loc 1 543 0
	cmpq	$0, -56(%rbp)	#, count
	jns	.L56	#,
	.loc 1 544 0
	movl	-60(%rbp), %eax	# prec, D.20804
	addq	%rax, -56(%rbp)	# D.20804, count
.L56:
	.loc 1 546 0
	leaq	-16(%rbp), %r8	#, tmp73
	leaq	-32(%rbp), %rdi	#, tmp74
	movl	-60(%rbp), %ecx	# prec, tmp75
	movq	-56(%rbp), %rdx	# count, tmp76
	movq	-48(%rbp), %rsi	# h1, tmp77
	movq	-40(%rbp), %rax	# l1, tmp78
	movl	$0, (%rsp)	#,
	movq	%r8, %r9	# tmp73,
	movq	%rdi, %r8	# tmp74,
	movq	%rax, %rdi	# tmp78,
	call	rshift_double	#
	.loc 1 547 0
	movl	-60(%rbp), %eax	# prec, D.20804
	subq	-56(%rbp), %rax	# count, D.20804
	movq	%rax, %rdx	# D.20804, D.20804
	leaq	-8(%rbp), %r8	#, tmp79
	leaq	-24(%rbp), %rdi	#, tmp80
	movl	-60(%rbp), %ecx	# prec, tmp81
	movq	-48(%rbp), %rsi	# h1, tmp82
	movq	-40(%rbp), %rax	# l1, tmp83
	movl	$0, (%rsp)	#,
	movq	%r8, %r9	# tmp79,
	movq	%rdi, %r8	# tmp80,
	movq	%rax, %rdi	# tmp83,
	call	lshift_double	#
	.loc 1 548 0
	movq	-32(%rbp), %rdx	# s1l, s1l.39
	movq	-24(%rbp), %rax	# s2l, s2l.40
	orq	%rax, %rdx	# s2l.40, D.20805
	movq	-72(%rbp), %rax	# lv, tmp84
	movq	%rdx, (%rax)	# D.20805, *lv_15(D)
	.loc 1 549 0
	movq	-16(%rbp), %rdx	# s1h, s1h.41
	movq	-8(%rbp), %rax	# s2h, s2h.42
	orq	%rax, %rdx	# s2h.42, D.20804
	movq	-80(%rbp), %rax	# hv, tmp85
	movq	%rdx, (%rax)	# D.20804, *hv_19(D)
	.loc 1 550 0
	leave
	.cfi_def_cfa 7, 8
	ret
	.cfi_endproc
.LFE11:
	.size	rrotate_double, .-rrotate_double
	.section	.rodata
.LC0:
	.string	"fold-const.c"
	.text
	.globl	div_and_round_double
	.type	div_and_round_double, @function
div_and_round_double:
.LFB12:
	.loc 1 573 0
	.cfi_startproc
	pushq	%rbp	#
	.cfi_def_cfa_offset 16
	.cfi_offset 6, -16
	movq	%rsp, %rbp	#,
	.cfi_def_cfa_register 6
	pushq	%rbx	#
	subq	$312, %rsp	#,
	.cfi_offset 3, -24
	movl	%edi, -276(%rbp)	# code, code
	movl	%esi, -280(%rbp)	# uns, uns
	movq	%rdx, -288(%rbp)	# lnum_orig, lnum_orig
	movq	%rcx, -296(%rbp)	# hnum_orig, hnum_orig
	movq	%r8, -304(%rbp)	# lden_orig, lden_orig
	movq	%r9, -312(%rbp)	# hden_orig, hden_orig
	.loc 1 574 0
	movl	$0, -272(%rbp)	#, quo_neg
	.loc 1 579 0
	movq	$0, -168(%rbp)	#, carry
	.loc 1 580 0
	movq	-288(%rbp), %rax	# lnum_orig, tmp211
	movq	%rax, -248(%rbp)	# tmp211, lnum
	.loc 1 581 0
	movq	-296(%rbp), %rax	# hnum_orig, tmp212
	movq	%rax, -240(%rbp)	# tmp212, hnum
	.loc 1 582 0
	movq	-304(%rbp), %rax	# lden_orig, tmp213
	movq	%rax, -232(%rbp)	# tmp213, lden
	.loc 1 583 0
	movq	-312(%rbp), %rax	# hden_orig, tmp214
	movq	%rax, -224(%rbp)	# tmp214, hden
	.loc 1 584 0
	movl	$0, -260(%rbp)	#, overflow
	.loc 1 586 0
	movq	-224(%rbp), %rax	# hden, hden.43
	testq	%rax, %rax	# hden.43
	jne	.L58	#,
	.loc 1 586 0 is_stmt 0 discriminator 1
	movq	-232(%rbp), %rax	# lden, lden.44
	testq	%rax, %rax	# lden.44
	jne	.L58	#,
	.loc 1 587 0 is_stmt 1
	movl	$1, -260(%rbp)	#, overflow
	movq	$1, -232(%rbp)	#, lden
.L58:
	.loc 1 590 0
	cmpl	$0, -280(%rbp)	#, uns
	jne	.L59	#,
	.loc 1 592 0
	movq	-240(%rbp), %rax	# hnum, hnum.45
	testq	%rax, %rax	# hnum.45
	jns	.L60	#,
	.loc 1 594 0
	notl	-272(%rbp)	# quo_neg
	.loc 1 596 0
	movq	-240(%rbp), %rsi	# hnum, hnum.46
	movq	-248(%rbp), %rax	# lnum, lnum.47
	leaq	-240(%rbp), %rcx	#, tmp215
	leaq	-248(%rbp), %rdx	#, tmp216
	movq	%rax, %rdi	# lnum.47,
	call	neg_double	#
	testl	%eax, %eax	# D.20806
	je	.L60	#,
	.loc 1 597 0
	movq	-232(%rbp), %rax	# lden, lden.48
	movq	%rax, %rdx	# lden.48, lden.49
	movq	-224(%rbp), %rax	# hden, hden.50
	andq	%rdx, %rax	# lden.49, D.20807
	cmpq	$-1, %rax	#, D.20807
	jne	.L60	#,
	.loc 1 598 0
	movl	$1, -260(%rbp)	#, overflow
.L60:
	.loc 1 600 0
	movq	-224(%rbp), %rax	# hden, hden.51
	testq	%rax, %rax	# hden.51
	jns	.L59	#,
	.loc 1 602 0
	notl	-272(%rbp)	# quo_neg
	.loc 1 603 0
	movq	-224(%rbp), %rsi	# hden, hden.52
	movq	-232(%rbp), %rax	# lden, lden.53
	leaq	-224(%rbp), %rcx	#, tmp217
	leaq	-232(%rbp), %rdx	#, tmp218
	movq	%rax, %rdi	# lden.53,
	call	neg_double	#
.L59:
	.loc 1 607 0
	movq	-240(%rbp), %rax	# hnum, hnum.54
	testq	%rax, %rax	# hnum.54
	jne	.L61	#,
	.loc 1 607 0 is_stmt 0 discriminator 1
	movq	-224(%rbp), %rax	# hden, hden.55
	testq	%rax, %rax	# hden.55
	jne	.L61	#,
	.loc 1 609 0 is_stmt 1
	movq	40(%rbp), %rax	# hrem, tmp219
	movq	$0, (%rax)	#, *hrem_52(D)
	movq	40(%rbp), %rax	# hrem, tmp220
	movq	(%rax), %rdx	# *hrem_52(D), D.20807
	movq	24(%rbp), %rax	# hquo, tmp221
	movq	%rdx, (%rax)	# D.20807, *hquo_54(D)
	.loc 1 611 0
	movq	-248(%rbp), %rax	# lnum, lnum.56
	movq	-232(%rbp), %rbx	# lden, lden.57
	movl	$0, %edx	#, tmp223
	divq	%rbx	# lden.57
	movq	%rax, %rdx	# tmp222, D.20808
	movq	16(%rbp), %rax	# lquo, tmp224
	movq	%rdx, (%rax)	# D.20808, *lquo_58(D)
	.loc 1 612 0
	jmp	.L62	#
.L61:
	.loc 1 615 0
	movq	-240(%rbp), %rax	# hnum, hnum.58
	testq	%rax, %rax	# hnum.58
	jne	.L63	#,
	.loc 1 618 0
	movq	16(%rbp), %rax	# lquo, tmp225
	movq	$0, (%rax)	#, *lquo_58(D)
	movq	24(%rbp), %rax	# hquo, tmp226
	movq	$0, (%rax)	#, *hquo_54(D)
	.loc 1 619 0
	movq	-240(%rbp), %rdx	# hnum, hnum.59
	movq	40(%rbp), %rax	# hrem, tmp227
	movq	%rdx, (%rax)	# hnum.59, *hrem_52(D)
	.loc 1 620 0
	movq	-248(%rbp), %rdx	# lnum, lnum.60
	movq	32(%rbp), %rax	# lrem, tmp228
	movq	%rdx, (%rax)	# lnum.60, *lrem_62(D)
	.loc 1 621 0
	jmp	.L62	#
.L63:
	.loc 1 624 0
	leaq	-96(%rbp), %rax	#, tmp229
	movl	$32, %edx	#,
	movl	$0, %esi	#,
	movq	%rax, %rdi	# tmp229,
	call	memset	#
	.loc 1 626 0
	leaq	-64(%rbp), %rax	#, tmp230
	movl	$40, %edx	#,
	movl	$0, %esi	#,
	movq	%rax, %rdi	# tmp230,
	call	memset	#
	.loc 1 627 0
	leaq	-128(%rbp), %rax	#, tmp231
	movl	$32, %edx	#,
	movl	$0, %esi	#,
	movq	%rax, %rdi	# tmp231,
	call	memset	#
	.loc 1 629 0
	movq	-240(%rbp), %rdx	# hnum, hnum.61
	movq	-248(%rbp), %rcx	# lnum, lnum.62
	leaq	-64(%rbp), %rax	#, tmp232
	movq	%rcx, %rsi	# lnum.62,
	movq	%rax, %rdi	# tmp232,
	call	encode	#
	.loc 1 630 0
	movq	-224(%rbp), %rdx	# hden, hden.63
	movq	-232(%rbp), %rcx	# lden, lden.64
	leaq	-128(%rbp), %rax	#, tmp233
	movq	%rcx, %rsi	# lden.64,
	movq	%rax, %rdi	# tmp233,
	call	encode	#
	.loc 1 633 0
	movq	-224(%rbp), %rax	# hden, hden.65
	testq	%rax, %rax	# hden.65
	jne	.L64	#,
	.loc 1 633 0 is_stmt 0 discriminator 1
	movq	-232(%rbp), %rdx	# lden, lden.66
	movl	$4294967295, %eax	#, tmp234
	cmpq	%rax, %rdx	# tmp234, lden.66
	ja	.L64	#,
	.loc 1 636 0 is_stmt 1
	movl	$3, -268(%rbp)	#, i
	jmp	.L65	#
.L66:
	.loc 1 638 0 discriminator 2
	movl	-268(%rbp), %eax	# i, tmp236
	cltq
	movq	-64(%rbp,%rax,8), %rax	# num, D.20807
	movq	-168(%rbp), %rdx	# carry, tmp237
	salq	$32, %rdx	#, D.20808
	addq	%rdx, %rax	# D.20808, tmp238
	movq	%rax, -152(%rbp)	# tmp238, work
	.loc 1 639 0 discriminator 2
	movq	-232(%rbp), %rbx	# lden, lden.67
	movq	-152(%rbp), %rax	# work, tmp241
	movl	$0, %edx	#, tmp240
	divq	%rbx	# lden.67
	movq	%rax, %rdx	# D.20808, D.20807
	movl	-268(%rbp), %eax	# i, tmp243
	cltq
	movq	%rdx, -96(%rbp,%rax,8)	# D.20807, quo
	.loc 1 640 0 discriminator 2
	movq	-232(%rbp), %rcx	# lden, lden.68
	movq	-152(%rbp), %rax	# work, tmp245
	movl	$0, %edx	#, tmp246
	divq	%rcx	# lden.68
	movq	%rdx, -168(%rbp)	# tmp246, carry
	.loc 1 636 0 discriminator 2
	subl	$1, -268(%rbp)	#, i
.L65:
	.loc 1 636 0 is_stmt 0 discriminator 1
	cmpl	$0, -268(%rbp)	#, i
	jns	.L66	#,
	.loc 1 633 0 is_stmt 1
	jmp	.L67	#
.L64:
.LBB2:
	.loc 1 651 0
	movl	$3, -268(%rbp)	#, i
.L70:
	.loc 1 652 0
	movl	-268(%rbp), %eax	# i, tmp249
	cltq
	movq	-128(%rbp,%rax,8), %rax	# den, D.20807
	testq	%rax, %rax	# D.20807
	je	.L68	#,
	.loc 1 654 0
	movl	-268(%rbp), %eax	# i, tmp250
	movl	%eax, -256(%rbp)	# tmp250, den_hi_sig
	.loc 1 655 0
	nop
	.loc 1 661 0
	movl	-256(%rbp), %eax	# den_hi_sig, tmp252
	cltq
	movq	-128(%rbp,%rax,8), %rax	# den, D.20807
	addq	$1, %rax	#, D.20807
	movq	%rax, %rbx	# D.20807, D.20808
	movabsq	$4294967296, %rax	#, tmp255
	movl	$0, %edx	#, tmp254
	divq	%rbx	# D.20808
	movq	%rax, -144(%rbp)	# tmp253, scale
	.loc 1 662 0
	cmpq	$1, -144(%rbp)	#, scale
	jbe	.L71	#,
	jmp	.L108	#
.L68:
	.loc 1 651 0
	subl	$1, -268(%rbp)	#, i
	.loc 1 661 0
	jmp	.L70	#
.L108:
	.loc 1 664 0
	movq	$0, -168(%rbp)	#, carry
	.loc 1 665 0
	movl	$0, -268(%rbp)	#, i
	jmp	.L72	#
.L73:
	.loc 1 667 0 discriminator 2
	movl	-268(%rbp), %eax	# i, tmp257
	cltq
	movq	-64(%rbp,%rax,8), %rax	# num, D.20807
	imulq	-144(%rbp), %rax	# scale, D.20808
	movq	%rax, %rdx	# D.20808, D.20808
	movq	-168(%rbp), %rax	# carry, tmp261
	addq	%rdx, %rax	# D.20808, tmp260
	movq	%rax, -152(%rbp)	# tmp260, work
	.loc 1 668 0 discriminator 2
	movq	-152(%rbp), %rax	# work, work.69
	movl	%eax, %edx	# work.69, D.20807
	movl	-268(%rbp), %eax	# i, tmp263
	cltq
	movq	%rdx, -64(%rbp,%rax,8)	# D.20807, num
	.loc 1 669 0 discriminator 2
	movq	-152(%rbp), %rax	# work, tmp267
	shrq	$32, %rax	#, tmp266
	movq	%rax, -168(%rbp)	# tmp266, carry
	.loc 1 665 0 discriminator 2
	addl	$1, -268(%rbp)	#, i
.L72:
	.loc 1 665 0 is_stmt 0 discriminator 1
	cmpl	$3, -268(%rbp)	#, i
	jle	.L73	#,
	.loc 1 672 0 is_stmt 1
	movq	-168(%rbp), %rax	# carry, carry.70
	movq	%rax, -32(%rbp)	# carry.70, num
	.loc 1 673 0
	movq	$0, -168(%rbp)	#, carry
	.loc 1 674 0
	movl	$0, -268(%rbp)	#, i
	jmp	.L74	#
.L76:
	.loc 1 676 0
	movl	-268(%rbp), %eax	# i, tmp269
	cltq
	movq	-128(%rbp,%rax,8), %rax	# den, D.20807
	imulq	-144(%rbp), %rax	# scale, D.20808
	movq	%rax, %rdx	# D.20808, D.20808
	movq	-168(%rbp), %rax	# carry, tmp273
	addq	%rdx, %rax	# D.20808, tmp272
	movq	%rax, -152(%rbp)	# tmp272, work
	.loc 1 677 0
	movq	-152(%rbp), %rax	# work, work.71
	movl	%eax, %edx	# work.71, D.20807
	movl	-268(%rbp), %eax	# i, tmp275
	cltq
	movq	%rdx, -128(%rbp,%rax,8)	# D.20807, den
	.loc 1 678 0
	movq	-152(%rbp), %rax	# work, tmp279
	shrq	$32, %rax	#, tmp278
	movq	%rax, -168(%rbp)	# tmp278, carry
	.loc 1 679 0
	movl	-268(%rbp), %eax	# i, tmp281
	cltq
	movq	-128(%rbp,%rax,8), %rax	# den, D.20807
	testq	%rax, %rax	# D.20807
	je	.L75	#,
	.loc 1 679 0 is_stmt 0 discriminator 1
	movl	-268(%rbp), %eax	# i, tmp282
	movl	%eax, -256(%rbp)	# tmp282, den_hi_sig
.L75:
	.loc 1 674 0 is_stmt 1
	addl	$1, -268(%rbp)	#, i
.L74:
	.loc 1 674 0 is_stmt 0 discriminator 1
	cmpl	$3, -268(%rbp)	#, i
	jle	.L76	#,
.L71:
	.loc 1 683 0 is_stmt 1
	movl	$4, -252(%rbp)	#, num_hi_sig
	.loc 1 686 0
	movl	-256(%rbp), %eax	# den_hi_sig, tmp283
	movl	-252(%rbp), %edx	# num_hi_sig, tmp284
	subl	%eax, %edx	# tmp283, D.20806
	movl	%edx, %eax	# D.20806, D.20806
	subl	$1, %eax	#, tmp285
	movl	%eax, -268(%rbp)	# tmp285, i
	jmp	.L77	#
.L86:
.LBB3:
	.loc 1 693 0
	movl	-256(%rbp), %eax	# den_hi_sig, tmp286
	movl	-268(%rbp), %edx	# i, tmp287
	addl	%edx, %eax	# tmp287, D.20806
	addl	$1, %eax	#, tmp288
	movl	%eax, -252(%rbp)	# tmp288, num_hi_sig
	.loc 1 694 0
	movl	-252(%rbp), %eax	# num_hi_sig, tmp290
	cltq
	movq	-64(%rbp,%rax,8), %rax	# num, D.20807
	salq	$32, %rax	#, D.20808
	movq	%rax, %rdx	# D.20808, D.20808
	movl	-252(%rbp), %eax	# num_hi_sig, tmp291
	subl	$1, %eax	#, D.20806
	cltq
	movq	-64(%rbp,%rax,8), %rax	# num, D.20807
	addq	%rdx, %rax	# D.20808, tmp293
	movq	%rax, -152(%rbp)	# tmp293, work
	.loc 1 695 0
	movl	-252(%rbp), %eax	# num_hi_sig, tmp295
	cltq
	movq	-64(%rbp,%rax,8), %rdx	# num, D.20807
	movl	-256(%rbp), %eax	# den_hi_sig, tmp297
	cltq
	movq	-128(%rbp,%rax,8), %rax	# den, D.20807
	cmpq	%rax, %rdx	# D.20807, D.20807
	je	.L78	#,
	.loc 1 696 0
	movl	-256(%rbp), %eax	# den_hi_sig, tmp299
	cltq
	movq	-128(%rbp,%rax,8), %rax	# den, D.20807
	movq	%rax, %rbx	# D.20807, D.20808
	movq	-152(%rbp), %rax	# work, tmp302
	movl	$0, %edx	#, tmp301
	divq	%rbx	# D.20808
	movq	%rax, -160(%rbp)	# tmp300, quo_est
	jmp	.L79	#
.L78:
	.loc 1 698 0
	movl	$4294967295, %eax	#, tmp439
	movq	%rax, -160(%rbp)	# tmp439, quo_est
.L79:
	.loc 1 701 0
	movl	-256(%rbp), %eax	# den_hi_sig, tmp304
	cltq
	movq	-128(%rbp,%rax,8), %rax	# den, D.20807
	imulq	-160(%rbp), %rax	# quo_est, D.20808
	movq	-152(%rbp), %rdx	# work, tmp308
	subq	%rax, %rdx	# D.20808, tmp307
	movq	%rdx, %rax	# tmp307, tmp307
	movq	%rax, -136(%rbp)	# tmp307, tmp
	.loc 1 702 0
	movl	$4294967295, %eax	#, tmp309
	cmpq	%rax, -136(%rbp)	# tmp309, tmp
	ja	.L80	#,
	.loc 1 703 0
	movl	-256(%rbp), %eax	# den_hi_sig, tmp310
	subl	$1, %eax	#, D.20806
	cltq
	movq	-128(%rbp,%rax,8), %rax	# den, D.20807
	imulq	-160(%rbp), %rax	# quo_est, D.20808
	movq	%rax, %rdx	# D.20808, D.20808
	.loc 1 704 0
	movq	-136(%rbp), %rax	# tmp, tmp312
	salq	$32, %rax	#, D.20808
	movq	%rax, %rcx	# D.20808, D.20808
	movl	-252(%rbp), %eax	# num_hi_sig, tmp313
	subl	$2, %eax	#, D.20806
	cltq
	movq	-64(%rbp,%rax,8), %rax	# num, D.20807
	addq	%rcx, %rax	# D.20808, D.20808
	.loc 1 703 0
	cmpq	%rax, %rdx	# D.20808, D.20808
	jbe	.L80	#,
	.loc 1 705 0
	subq	$1, -160(%rbp)	#, quo_est
.L80:
	.loc 1 711 0
	movq	$0, -168(%rbp)	#, carry
	.loc 1 712 0
	movl	$0, -264(%rbp)	#, j
	jmp	.L81	#
.L82:
	.loc 1 714 0 discriminator 2
	movl	-264(%rbp), %eax	# j, tmp316
	cltq
	movq	-128(%rbp,%rax,8), %rax	# den, D.20807
	imulq	-160(%rbp), %rax	# quo_est, D.20808
	movq	%rax, %rdx	# D.20808, D.20808
	movq	-168(%rbp), %rax	# carry, tmp320
	addq	%rdx, %rax	# D.20808, tmp319
	movq	%rax, -152(%rbp)	# tmp319, work
	.loc 1 715 0 discriminator 2
	movq	-152(%rbp), %rax	# work, tmp324
	shrq	$32, %rax	#, tmp323
	movq	%rax, -168(%rbp)	# tmp323, carry
	.loc 1 716 0 discriminator 2
	movl	-264(%rbp), %eax	# j, tmp325
	movl	-268(%rbp), %edx	# i, tmp326
	addl	%edx, %eax	# tmp326, D.20806
	cltq
	movq	-64(%rbp,%rax,8), %rax	# num, D.20807
	movq	%rax, %rdx	# D.20807, D.20808
	movq	-152(%rbp), %rax	# work, tmp328
	movl	%eax, %eax	# tmp328, D.20808
	subq	%rax, %rdx	# D.20808, tmp329
	movq	%rdx, %rax	# tmp329, tmp329
	movq	%rax, -152(%rbp)	# tmp329, work
	.loc 1 717 0 discriminator 2
	movl	-264(%rbp), %eax	# j, tmp330
	movl	-268(%rbp), %edx	# i, tmp331
	leal	(%rdx,%rax), %ecx	#, D.20806
	movq	-152(%rbp), %rax	# work, work.72
	movl	%eax, %edx	# work.72, D.20807
	movslq	%ecx, %rax	# D.20806, tmp332
	movq	%rdx, -64(%rbp,%rax,8)	# D.20807, num
	.loc 1 718 0 discriminator 2
	movq	-152(%rbp), %rax	# work, tmp333
	shrq	$32, %rax	#, D.20808
	testq	%rax, %rax	# D.20808
	setne	%al	#, D.20809
	movzbl	%al, %eax	# D.20809, D.20808
	addq	%rax, -168(%rbp)	# D.20808, carry
	.loc 1 712 0 discriminator 2
	addl	$1, -264(%rbp)	#, j
.L81:
	.loc 1 712 0 is_stmt 0 discriminator 1
	movl	-264(%rbp), %eax	# j, tmp334
	cmpl	-256(%rbp), %eax	# den_hi_sig, tmp334
	jle	.L82	#,
	.loc 1 723 0 is_stmt 1
	movl	-252(%rbp), %eax	# num_hi_sig, tmp336
	cltq
	movq	-64(%rbp,%rax,8), %rax	# num, D.20807
	cmpq	-168(%rbp), %rax	# carry, D.20808
	jae	.L83	#,
	.loc 1 725 0
	subq	$1, -160(%rbp)	#, quo_est
	.loc 1 726 0
	movq	$0, -168(%rbp)	#, carry
	.loc 1 727 0
	movl	$0, -264(%rbp)	#, j
	jmp	.L84	#
.L85:
	.loc 1 729 0 discriminator 2
	movl	-264(%rbp), %eax	# j, tmp337
	movl	-268(%rbp), %edx	# i, tmp338
	addl	%edx, %eax	# tmp338, D.20806
	cltq
	movq	-64(%rbp,%rax,8), %rdx	# num, D.20807
	movl	-264(%rbp), %eax	# j, tmp341
	cltq
	movq	-128(%rbp,%rax,8), %rax	# den, D.20807
	addq	%rdx, %rax	# D.20807, D.20807
	movq	%rax, %rdx	# D.20807, D.20808
	movq	-168(%rbp), %rax	# carry, tmp345
	addq	%rdx, %rax	# D.20808, tmp344
	movq	%rax, -152(%rbp)	# tmp344, work
	.loc 1 730 0 discriminator 2
	movq	-152(%rbp), %rax	# work, tmp349
	shrq	$32, %rax	#, tmp348
	movq	%rax, -168(%rbp)	# tmp348, carry
	.loc 1 731 0 discriminator 2
	movl	-264(%rbp), %eax	# j, tmp350
	movl	-268(%rbp), %edx	# i, tmp351
	leal	(%rdx,%rax), %ecx	#, D.20806
	movq	-152(%rbp), %rax	# work, work.73
	movl	%eax, %edx	# work.73, D.20807
	movslq	%ecx, %rax	# D.20806, tmp352
	movq	%rdx, -64(%rbp,%rax,8)	# D.20807, num
	.loc 1 727 0 discriminator 2
	addl	$1, -264(%rbp)	#, j
.L84:
	.loc 1 727 0 is_stmt 0 discriminator 1
	movl	-264(%rbp), %eax	# j, tmp353
	cmpl	-256(%rbp), %eax	# den_hi_sig, tmp353
	jle	.L85	#,
	.loc 1 734 0 is_stmt 1
	movl	-252(%rbp), %eax	# num_hi_sig, tmp355
	cltq
	movq	-64(%rbp,%rax,8), %rax	# num, D.20807
	movq	%rax, %rdx	# D.20807, D.20808
	movq	-168(%rbp), %rax	# carry, tmp356
	addq	%rdx, %rax	# D.20808, D.20808
	movq	%rax, %rdx	# D.20808, D.20807
	movl	-252(%rbp), %eax	# num_hi_sig, tmp358
	cltq
	movq	%rdx, -64(%rbp,%rax,8)	# D.20807, num
.L83:
	.loc 1 738 0
	movq	-160(%rbp), %rdx	# quo_est, quo_est.74
	movl	-268(%rbp), %eax	# i, tmp360
	cltq
	movq	%rdx, -96(%rbp,%rax,8)	# quo_est.74, quo
.LBE3:
	.loc 1 686 0
	subl	$1, -268(%rbp)	#, i
.L77:
	.loc 1 686 0 is_stmt 0 discriminator 1
	cmpl	$0, -268(%rbp)	#, i
	jns	.L86	#,
.L67:
.LBE2:
	.loc 1 742 0 is_stmt 1
	movq	24(%rbp), %rdx	# hquo, tmp361
	leaq	-96(%rbp), %rax	#, tmp362
	movq	16(%rbp), %rsi	# lquo,
	movq	%rax, %rdi	# tmp362,
	call	decode	#
.L62:
	.loc 1 746 0
	cmpl	$0, -272(%rbp)	#, quo_neg
	je	.L87	#,
	.loc 1 747 0
	movq	24(%rbp), %rax	# hquo, tmp363
	movq	(%rax), %rsi	# *hquo_54(D), D.20807
	movq	16(%rbp), %rax	# lquo, tmp364
	movq	(%rax), %rax	# *lquo_58(D), D.20808
	movq	24(%rbp), %rdx	# hquo, tmp365
	movq	%rdx, %rcx	# tmp365,
	movq	16(%rbp), %rdx	# lquo,
	movq	%rax, %rdi	# D.20808,
	call	neg_double	#
.L87:
	.loc 1 750 0
	movq	24(%rbp), %rax	# hquo, tmp366
	movq	(%rax), %rsi	# *hquo_54(D), D.20807
	movq	16(%rbp), %rax	# lquo, tmp367
	movq	(%rax), %rax	# *lquo_58(D), D.20808
	movq	40(%rbp), %r8	# hrem, tmp368
	movq	32(%rbp), %rdi	# lrem, tmp369
	movq	-312(%rbp), %rcx	# hden_orig, tmp370
	movq	-304(%rbp), %rdx	# lden_orig, tmp371
	movq	%r8, %r9	# tmp368,
	movq	%rdi, %r8	# tmp369,
	movq	%rax, %rdi	# D.20808,
	call	mul_double	#
	.loc 1 751 0
	movq	40(%rbp), %rax	# hrem, tmp372
	movq	(%rax), %rsi	# *hrem_52(D), D.20807
	movq	32(%rbp), %rax	# lrem, tmp373
	movq	(%rax), %rax	# *lrem_62(D), D.20808
	movq	40(%rbp), %rcx	# hrem, tmp374
	movq	32(%rbp), %rdx	# lrem, tmp375
	movq	%rax, %rdi	# D.20808,
	call	neg_double	#
	.loc 1 752 0
	movq	40(%rbp), %rax	# hrem, tmp376
	movq	(%rax), %rcx	# *hrem_52(D), D.20807
	movq	32(%rbp), %rax	# lrem, tmp377
	movq	(%rax), %rdx	# *lrem_62(D), D.20808
	movq	40(%rbp), %r8	# hrem, tmp378
	movq	32(%rbp), %rdi	# lrem, tmp379
	movq	-296(%rbp), %rsi	# hnum_orig, tmp380
	movq	-288(%rbp), %rax	# lnum_orig, tmp381
	movq	%r8, %r9	# tmp378,
	movq	%rdi, %r8	# tmp379,
	movq	%rax, %rdi	# tmp381,
	call	add_double	#
	.loc 1 754 0
	movl	-276(%rbp), %eax	# code, tmp383
	subl	$62, %eax	#, tmp382
	cmpl	$9, %eax	#, tmp382
	ja	.L88	#,
	movl	%eax, %eax	# tmp382, tmp384
	movq	.L90(,%rax,8), %rax	#, tmp385
	jmp	*%rax	# tmp385
	.section	.rodata
	.align 8
	.align 4
.L90:
	.quad	.L89
	.quad	.L91
	.quad	.L92
	.quad	.L93
	.quad	.L89
	.quad	.L91
	.quad	.L92
	.quad	.L93
	.quad	.L88
	.quad	.L89
	.text
.L89:
	.loc 1 759 0
	movl	-260(%rbp), %eax	# overflow, D.20806
	jmp	.L107	#
.L92:
	.loc 1 763 0
	cmpl	$0, -272(%rbp)	#, quo_neg
	je	.L95	#,
	.loc 1 763 0 is_stmt 0 discriminator 1
	movq	32(%rbp), %rax	# lrem, tmp386
	movq	(%rax), %rax	# *lrem_62(D), D.20808
	testq	%rax, %rax	# D.20808
	jne	.L96	#,
	movq	40(%rbp), %rax	# hrem, tmp387
	movq	(%rax), %rax	# *hrem_52(D), D.20807
	testq	%rax, %rax	# D.20807
	je	.L95	#,
.L96:
	.loc 1 766 0 is_stmt 1
	movq	24(%rbp), %rax	# hquo, tmp388
	movq	(%rax), %rsi	# *hquo_54(D), D.20807
	movq	16(%rbp), %rax	# lquo, tmp389
	movq	(%rax), %rax	# *lquo_58(D), D.20808
	movq	24(%rbp), %rdx	# hquo, tmp390
	movq	%rdx, %r9	# tmp390,
	movq	16(%rbp), %r8	# lquo,
	movq	$-1, %rcx	#,
	movq	$-1, %rdx	#,
	movq	%rax, %rdi	# D.20808,
	call	add_double	#
	.loc 1 771 0
	jmp	.L97	#
.L95:
	.loc 1 770 0
	movl	-260(%rbp), %eax	# overflow, D.20806
	jmp	.L107	#
.L91:
	.loc 1 775 0
	cmpl	$0, -272(%rbp)	#, quo_neg
	jne	.L98	#,
	.loc 1 775 0 is_stmt 0 discriminator 1
	movq	32(%rbp), %rax	# lrem, tmp391
	movq	(%rax), %rax	# *lrem_62(D), D.20808
	testq	%rax, %rax	# D.20808
	jne	.L99	#,
	movq	40(%rbp), %rax	# hrem, tmp392
	movq	(%rax), %rax	# *hrem_52(D), D.20807
	testq	%rax, %rax	# D.20807
	je	.L98	#,
.L99:
	.loc 1 777 0 is_stmt 1
	movq	24(%rbp), %rax	# hquo, tmp393
	movq	(%rax), %rsi	# *hquo_54(D), D.20807
	movq	16(%rbp), %rax	# lquo, tmp394
	movq	(%rax), %rax	# *lquo_58(D), D.20808
	movq	24(%rbp), %rdx	# hquo, tmp395
	movq	%rdx, %r9	# tmp395,
	movq	16(%rbp), %r8	# lquo,
	movl	$0, %ecx	#,
	movl	$1, %edx	#,
	movq	%rax, %rdi	# D.20808,
	call	add_double	#
	.loc 1 782 0
	jmp	.L97	#
.L98:
	.loc 1 781 0
	movl	-260(%rbp), %eax	# overflow, D.20806
	jmp	.L107	#
.L93:
.LBB4:
	.loc 1 787 0
	movq	32(%rbp), %rax	# lrem, tmp396
	movq	(%rax), %rax	# *lrem_62(D), labs_rem.75
	movq	%rax, -216(%rbp)	# labs_rem.75, labs_rem
	.loc 1 788 0
	movq	40(%rbp), %rax	# hrem, tmp397
	movq	(%rax), %rax	# *hrem_52(D), habs_rem.76
	movq	%rax, -208(%rbp)	# habs_rem.76, habs_rem
	.loc 1 789 0
	movq	-232(%rbp), %rax	# lden, lden.77
	movq	%rax, -200(%rbp)	# lden.77, labs_den
	.loc 1 790 0
	movq	-224(%rbp), %rax	# hden, hden.78
	movq	%rax, -184(%rbp)	# hden.78, habs_den
	.loc 1 793 0
	movq	40(%rbp), %rax	# hrem, tmp398
	movq	(%rax), %rax	# *hrem_52(D), D.20807
	testq	%rax, %rax	# D.20807
	jns	.L100	#,
	.loc 1 794 0
	movq	40(%rbp), %rax	# hrem, tmp399
	movq	(%rax), %rsi	# *hrem_52(D), D.20807
	movq	32(%rbp), %rax	# lrem, tmp400
	movq	(%rax), %rax	# *lrem_62(D), D.20808
	leaq	-208(%rbp), %rcx	#, tmp401
	leaq	-216(%rbp), %rdx	#, tmp402
	movq	%rax, %rdi	# D.20808,
	call	neg_double	#
.L100:
	.loc 1 795 0
	movq	-224(%rbp), %rax	# hden, hden.79
	testq	%rax, %rax	# hden.79
	jns	.L101	#,
	.loc 1 796 0
	movq	-224(%rbp), %rsi	# hden, hden.80
	movq	-232(%rbp), %rax	# lden, lden.81
	leaq	-184(%rbp), %rcx	#, tmp403
	leaq	-200(%rbp), %rdx	#, tmp404
	movq	%rax, %rdi	# lden.81,
	call	neg_double	#
.L101:
	.loc 1 799 0
	movq	-208(%rbp), %rdx	# habs_rem, habs_rem.82
	movq	-216(%rbp), %rax	# labs_rem, labs_rem.83
	leaq	-176(%rbp), %rsi	#, tmp405
	leaq	-192(%rbp), %rcx	#, tmp406
	movq	%rsi, %r9	# tmp405,
	movq	%rcx, %r8	# tmp406,
	movq	%rdx, %rcx	# habs_rem.82,
	movq	%rax, %rdx	# labs_rem.83,
	movl	$0, %esi	#,
	movl	$2, %edi	#,
	call	mul_double	#
	.loc 1 802 0
	movq	-184(%rbp), %rax	# habs_den, habs_den.84
	movq	%rax, %rdx	# habs_den.84, habs_den.85
	.loc 1 803 0
	movq	-176(%rbp), %rax	# htwice, htwice.86
	.loc 1 802 0
	cmpq	%rax, %rdx	# htwice.87, habs_den.85
	jb	.L102	#,
	.loc 1 805 0
	movq	-184(%rbp), %rdx	# habs_den, habs_den.88
	movq	-176(%rbp), %rax	# htwice, htwice.89
	.loc 1 804 0
	cmpq	%rax, %rdx	# htwice.89, habs_den.88
	jne	.L103	#,
	.loc 1 806 0
	movq	-200(%rbp), %rdx	# labs_den, labs_den.90
	movq	-192(%rbp), %rax	# ltwice, ltwice.91
	cmpq	%rax, %rdx	# ltwice.91, labs_den.90
	jae	.L103	#,
.L102:
	.loc 1 808 0
	movq	24(%rbp), %rax	# hquo, tmp407
	movq	(%rax), %rax	# *hquo_54(D), D.20807
	testq	%rax, %rax	# D.20807
	jns	.L104	#,
	.loc 1 810 0
	movq	24(%rbp), %rax	# hquo, tmp408
	movq	(%rax), %rsi	# *hquo_54(D), D.20807
	movq	16(%rbp), %rax	# lquo, tmp409
	movq	(%rax), %rax	# *lquo_58(D), D.20808
	movq	24(%rbp), %rdx	# hquo, tmp410
	movq	%rdx, %r9	# tmp410,
	movq	16(%rbp), %r8	# lquo,
	movq	$-1, %rcx	#,
	movq	$-1, %rdx	#,
	movq	%rax, %rdi	# D.20808,
	call	add_double	#
	.loc 1 808 0
	jmp	.L106	#
.L104:
	.loc 1 814 0
	movq	24(%rbp), %rax	# hquo, tmp411
	movq	(%rax), %rsi	# *hquo_54(D), D.20807
	movq	16(%rbp), %rax	# lquo, tmp412
	movq	(%rax), %rax	# *lquo_58(D), D.20808
	movq	24(%rbp), %rdx	# hquo, tmp413
	movq	%rdx, %r9	# tmp413,
	movq	16(%rbp), %r8	# lquo,
	movl	$0, %ecx	#,
	movl	$1, %edx	#,
	movq	%rax, %rdi	# D.20808,
	call	add_double	#
	.loc 1 808 0
	jmp	.L106	#
.L103:
	.loc 1 818 0
	movl	-260(%rbp), %eax	# overflow, D.20806
	jmp	.L107	#
.L106:
.LBE4:
	.loc 1 820 0
	jmp	.L97	#
.L88:
	.loc 1 823 0
	movl	$__FUNCTION__.12314, %edx	#,
	movl	$823, %esi	#,
	movl	$.LC0, %edi	#,
	call	fancy_abort	#
.L97:
	.loc 1 827 0
	movq	24(%rbp), %rax	# hquo, tmp414
	movq	(%rax), %rsi	# *hquo_54(D), D.20807
	movq	16(%rbp), %rax	# lquo, tmp415
	movq	(%rax), %rax	# *lquo_58(D), D.20808
	movq	40(%rbp), %r8	# hrem, tmp416
	movq	32(%rbp), %rdi	# lrem, tmp417
	movq	-312(%rbp), %rcx	# hden_orig, tmp418
	movq	-304(%rbp), %rdx	# lden_orig, tmp419
	movq	%r8, %r9	# tmp416,
	movq	%rdi, %r8	# tmp417,
	movq	%rax, %rdi	# D.20808,
	call	mul_double	#
	.loc 1 828 0
	movq	40(%rbp), %rax	# hrem, tmp420
	movq	(%rax), %rsi	# *hrem_52(D), D.20807
	movq	32(%rbp), %rax	# lrem, tmp421
	movq	(%rax), %rax	# *lrem_62(D), D.20808
	movq	40(%rbp), %rcx	# hrem, tmp422
	movq	32(%rbp), %rdx	# lrem, tmp423
	movq	%rax, %rdi	# D.20808,
	call	neg_double	#
	.loc 1 829 0
	movq	40(%rbp), %rax	# hrem, tmp424
	movq	(%rax), %rcx	# *hrem_52(D), D.20807
	movq	32(%rbp), %rax	# lrem, tmp425
	movq	(%rax), %rdx	# *lrem_62(D), D.20808
	movq	40(%rbp), %r8	# hrem, tmp426
	movq	32(%rbp), %rdi	# lrem, tmp427
	movq	-296(%rbp), %rsi	# hnum_orig, tmp428
	movq	-288(%rbp), %rax	# lnum_orig, tmp429
	movq	%r8, %r9	# tmp426,
	movq	%rdi, %r8	# tmp427,
	movq	%rax, %rdi	# tmp429,
	call	add_double	#
	.loc 1 830 0
	movl	-260(%rbp), %eax	# overflow, D.20806
.L107:
	.loc 1 831 0
	addq	$312, %rsp	#,
	popq	%rbx	#
	popq	%rbp	#
	.cfi_def_cfa 7, 8
	ret
	.cfi_endproc
.LFE12:
	.size	div_and_round_double, .-div_and_round_double
	.type	negate_expr, @function
negate_expr:
.LFB13:
	.loc 1 1345 0
	.cfi_startproc
	pushq	%rbp	#
	.cfi_def_cfa_offset 16
	.cfi_offset 6, -16
	movq	%rsp, %rbp	#,
	.cfi_def_cfa_register 6
	subq	$32, %rsp	#,
	movq	%rdi, -24(%rbp)	# t, t
	.loc 1 1349 0
	cmpq	$0, -24(%rbp)	#, t
	jne	.L110	#,
	.loc 1 1350 0
	movl	$0, %eax	#, D.20813
	jmp	.L111	#
.L110:
	.loc 1 1352 0
	movq	-24(%rbp), %rax	# t, tmp97
	movq	8(%rax), %rax	# t_3(D)->common.type, tmp98
	movq	%rax, -16(%rbp)	# tmp98, type
	.loc 1 1353 0
	jmp	.L112	#
.L115:
	.loc 1 1353 0 is_stmt 0 discriminator 1
	movq	-24(%rbp), %rax	# t, tmp99
	movq	32(%rax), %rax	# t_1->exp.operands, tmp100
	movq	%rax, -24(%rbp)	# tmp100, t
.L112:
	movq	-24(%rbp), %rax	# t, tmp101
	movzbl	16(%rax), %eax	# t_1->common.code, D.20814
	cmpb	$115, %al	#, D.20814
	je	.L113	#,
	.loc 1 1353 0 discriminator 3
	movq	-24(%rbp), %rax	# t, tmp102
	movzbl	16(%rax), %eax	# t_1->common.code, D.20814
	cmpb	$114, %al	#, D.20814
	je	.L113	#,
	.loc 1 1353 0 discriminator 1
	movq	-24(%rbp), %rax	# t, tmp103
	movzbl	16(%rax), %eax	# t_1->common.code, D.20814
	cmpb	$116, %al	#, D.20814
	jne	.L114	#,
.L113:
	.loc 1 1353 0 discriminator 2
	movq	-24(%rbp), %rax	# t, tmp104
	movq	32(%rax), %rdx	# t_1->exp.operands, D.20815
	movq	global_trees(%rip), %rax	# global_trees, D.20815
	cmpq	%rax, %rdx	# D.20815, D.20815
	je	.L114	#,
	.loc 1 1353 0 discriminator 1
	movq	-24(%rbp), %rax	# t, tmp105
	movq	8(%rax), %rax	# t_1->common.type, D.20815
	movzbl	61(%rax), %eax	# *_11, tmp108
	shrb	%al	# D.20816
	movl	%eax, %edx	# D.20816, D.20816
	movq	-24(%rbp), %rax	# t, tmp109
	movq	32(%rax), %rax	# t_1->exp.operands, D.20815
	movq	8(%rax), %rax	# _13->common.type, D.20815
	movzbl	61(%rax), %eax	# *_14, tmp112
	shrb	%al	# D.20816
	cmpb	%al, %dl	# D.20816, D.20816
	jne	.L114	#,
	movq	-24(%rbp), %rax	# t, tmp113
	movq	8(%rax), %rax	# t_1->common.type, D.20815
	movzbl	17(%rax), %eax	# *_16, tmp116
	shrb	$5, %al	#, D.20817
	movl	%eax, %edx	# D.20817, D.20817
	andl	$1, %edx	#, D.20817
	movq	-24(%rbp), %rax	# t, tmp117
	movq	32(%rax), %rax	# t_1->exp.operands, D.20815
	movq	8(%rax), %rax	# _18->common.type, D.20815
	movzbl	17(%rax), %eax	# *_19, tmp120
	shrb	$5, %al	#, D.20817
	andl	$1, %eax	#, D.20817
	cmpb	%al, %dl	# D.20817, D.20817
	je	.L115	#,
.L114:
	.loc 1 1355 0 is_stmt 1
	movq	-24(%rbp), %rax	# t, tmp121
	movzbl	16(%rax), %eax	# t_1->common.code, D.20814
	movzbl	%al, %eax	# D.20814, D.20818
	cmpl	$60, %eax	#, D.20818
	je	.L117	#,
	cmpl	$60, %eax	#, D.20818
	ja	.L118	#,
	subl	$25, %eax	#, tmp122
	cmpl	$1, %eax	#, tmp122
	ja	.L127	#,
	jmp	.L126	#
.L118:
	cmpl	$77, %eax	#, D.20818
	je	.L120	#,
	.loc 1 1378 0
	jmp	.L127	#
.L126:
	.loc 1 1359 0
	movq	-16(%rbp), %rax	# type, tmp123
	movzbl	17(%rax), %eax	# *type_5, D.20814
	andl	$32, %eax	#, D.20814
	testb	%al, %al	# D.20814
	jne	.L121	#,
	.loc 1 1360 0
	movq	-24(%rbp), %rdx	# t, tmp124
	movq	-16(%rbp), %rax	# type, tmp125
	movq	%rax, %rsi	# tmp125,
	movl	$77, %edi	#,
	call	build1	#
	movq	%rax, %rdi	# D.20815,
	call	fold	#
	movq	%rax, -8(%rbp)	# tmp126, tem
	cmpq	$0, -8(%rbp)	#, tem
	je	.L121	#,
	.loc 1 1361 0
	movq	-8(%rbp), %rax	# tem, tmp127
	movzbl	18(%rax), %eax	# *tem_27, D.20814
	andl	$8, %eax	#, D.20814
	testb	%al, %al	# D.20814
	jne	.L121	#,
	.loc 1 1362 0
	movq	-8(%rbp), %rax	# tem, D.20813
	jmp	.L111	#
.L121:
	.loc 1 1363 0
	jmp	.L122	#
.L120:
	.loc 1 1366 0
	movq	-24(%rbp), %rax	# t, tmp128
	movq	32(%rax), %rdx	# t_1->exp.operands, D.20815
	movq	-16(%rbp), %rax	# type, tmp129
	movq	%rdx, %rsi	# D.20815,
	movq	%rax, %rdi	# tmp129,
	call	convert	#
	jmp	.L111	#
.L117:
	.loc 1 1370 0
	movq	-16(%rbp), %rax	# type, tmp130
	movzbl	16(%rax), %eax	# type_5->common.code, D.20814
	cmpb	$7, %al	#, D.20814
	je	.L123	#,
	.loc 1 1370 0 is_stmt 0 discriminator 1
	movq	-16(%rbp), %rax	# type, tmp131
	movzbl	16(%rax), %eax	# type_5->common.code, D.20814
	cmpb	$8, %al	#, D.20814
	jne	.L124	#,
	movq	-16(%rbp), %rax	# type, tmp132
	movq	8(%rax), %rax	# type_5->common.type, D.20815
	movzbl	16(%rax), %eax	# _35->common.code, D.20814
	cmpb	$7, %al	#, D.20814
	jne	.L124	#,
.L123:
	.loc 1 1370 0 discriminator 2
	movl	flag_unsafe_math_optimizations(%rip), %eax	# flag_unsafe_math_optimizations, flag_unsafe_math_optimizations.92
	testl	%eax, %eax	# flag_unsafe_math_optimizations.92
	je	.L125	#,
.L124:
	.loc 1 1371 0 is_stmt 1
	movq	-24(%rbp), %rax	# t, tmp133
	movq	32(%rax), %rcx	# t_1->exp.operands, D.20815
	movq	-24(%rbp), %rax	# t, tmp134
	movq	40(%rax), %rdx	# t_1->exp.operands, D.20815
	movq	-24(%rbp), %rax	# t, tmp135
	movq	8(%rax), %rax	# t_1->common.type, D.20815
	movq	%rax, %rsi	# D.20815,
	movl	$60, %edi	#,
	movl	$0, %eax	#,
	call	build	#
	movq	%rax, %rdi	# D.20815,
	call	fold	#
	movq	%rax, %rdx	#, D.20815
	movq	-16(%rbp), %rax	# type, tmp136
	movq	%rdx, %rsi	# D.20815,
	movq	%rax, %rdi	# tmp136,
	call	convert	#
	jmp	.L111	#
.L125:
	.loc 1 1375 0
	jmp	.L122	#
.L127:
	.loc 1 1378 0
	nop
.L122:
	.loc 1 1381 0
	movq	-24(%rbp), %rax	# t, tmp137
	movq	8(%rax), %rax	# t_1->common.type, D.20815
	movq	-24(%rbp), %rdx	# t, tmp138
	movq	%rax, %rsi	# D.20815,
	movl	$77, %edi	#,
	call	build1	#
	movq	%rax, %rdi	# D.20815,
	call	fold	#
	movq	%rax, %rdx	#, D.20815
	movq	-16(%rbp), %rax	# type, tmp139
	movq	%rdx, %rsi	# D.20815,
	movq	%rax, %rdi	# tmp139,
	call	convert	#
.L111:
	.loc 1 1382 0
	leave
	.cfi_def_cfa 7, 8
	ret
	.cfi_endproc
.LFE13:
	.size	negate_expr, .-negate_expr
	.type	split_tree, @function
split_tree:
.LFB14:
	.loc 1 1410 0
	.cfi_startproc
	pushq	%rbp	#
	.cfi_def_cfa_offset 16
	.cfi_offset 6, -16
	movq	%rsp, %rbp	#,
	.cfi_def_cfa_register 6
	subq	$96, %rsp	#,
	movq	%rdi, -56(%rbp)	# in, in
	movl	%esi, -60(%rbp)	# code, code
	movq	%rdx, -72(%rbp)	# conp, conp
	movq	%rcx, -80(%rbp)	# litp, litp
	movq	%r8, -88(%rbp)	# minus_litp, minus_litp
	movl	%r9d, -64(%rbp)	# negate_p, negate_p
	.loc 1 1411 0
	movq	$0, -24(%rbp)	#, var
	.loc 1 1413 0
	movq	-72(%rbp), %rax	# conp, tmp110
	movq	$0, (%rax)	#, *conp_14(D)
	.loc 1 1414 0
	movq	-80(%rbp), %rax	# litp, tmp111
	movq	$0, (%rax)	#, *litp_15(D)
	.loc 1 1415 0
	movq	-88(%rbp), %rax	# minus_litp, tmp112
	movq	$0, (%rax)	#, *minus_litp_16(D)
	.loc 1 1418 0
	jmp	.L129	#
.L132:
	.loc 1 1418 0 is_stmt 0 discriminator 1
	movq	-56(%rbp), %rax	# in, tmp113
	movq	32(%rax), %rax	# in_1->exp.operands, tmp114
	movq	%rax, -56(%rbp)	# tmp114, in
.L129:
	movq	-56(%rbp), %rax	# in, tmp115
	movzbl	16(%rax), %eax	# in_1->common.code, D.20820
	cmpb	$115, %al	#, D.20820
	je	.L130	#,
	.loc 1 1418 0 discriminator 3
	movq	-56(%rbp), %rax	# in, tmp116
	movzbl	16(%rax), %eax	# in_1->common.code, D.20820
	cmpb	$114, %al	#, D.20820
	je	.L130	#,
	.loc 1 1418 0 discriminator 1
	movq	-56(%rbp), %rax	# in, tmp117
	movzbl	16(%rax), %eax	# in_1->common.code, D.20820
	cmpb	$116, %al	#, D.20820
	jne	.L131	#,
.L130:
	.loc 1 1418 0 discriminator 2
	movq	-56(%rbp), %rax	# in, tmp118
	movq	32(%rax), %rdx	# in_1->exp.operands, D.20821
	movq	global_trees(%rip), %rax	# global_trees, D.20821
	cmpq	%rax, %rdx	# D.20821, D.20821
	je	.L131	#,
	.loc 1 1418 0 discriminator 1
	movq	-56(%rbp), %rax	# in, tmp119
	movq	8(%rax), %rax	# in_1->common.type, D.20821
	movzbl	61(%rax), %eax	# *_23, tmp122
	shrb	%al	# D.20822
	movl	%eax, %edx	# D.20822, D.20822
	movq	-56(%rbp), %rax	# in, tmp123
	movq	32(%rax), %rax	# in_1->exp.operands, D.20821
	movq	8(%rax), %rax	# _25->common.type, D.20821
	movzbl	61(%rax), %eax	# *_26, tmp126
	shrb	%al	# D.20822
	cmpb	%al, %dl	# D.20822, D.20822
	jne	.L131	#,
	movq	-56(%rbp), %rax	# in, tmp127
	movq	8(%rax), %rax	# in_1->common.type, D.20821
	movzbl	17(%rax), %eax	# *_28, tmp130
	shrb	$5, %al	#, D.20823
	movl	%eax, %edx	# D.20823, D.20823
	andl	$1, %edx	#, D.20823
	movq	-56(%rbp), %rax	# in, tmp131
	movq	32(%rax), %rax	# in_1->exp.operands, D.20821
	movq	8(%rax), %rax	# _30->common.type, D.20821
	movzbl	17(%rax), %eax	# *_31, tmp134
	shrb	$5, %al	#, D.20823
	andl	$1, %eax	#, D.20823
	cmpb	%al, %dl	# D.20823, D.20823
	je	.L132	#,
.L131:
	.loc 1 1420 0 is_stmt 1
	movq	-56(%rbp), %rax	# in, tmp135
	movzbl	16(%rax), %eax	# in_1->common.code, D.20820
	cmpb	$25, %al	#, D.20820
	je	.L133	#,
	.loc 1 1420 0 is_stmt 0 discriminator 1
	movq	-56(%rbp), %rax	# in, tmp136
	movzbl	16(%rax), %eax	# in_1->common.code, D.20820
	cmpb	$26, %al	#, D.20820
	jne	.L134	#,
.L133:
	.loc 1 1421 0 is_stmt 1
	movq	-80(%rbp), %rax	# litp, tmp137
	movq	-56(%rbp), %rdx	# in, tmp138
	movq	%rdx, (%rax)	# tmp138, *litp_15(D)
	jmp	.L135	#
.L134:
	.loc 1 1422 0
	movq	-56(%rbp), %rax	# in, tmp139
	movzbl	16(%rax), %eax	# in_1->common.code, D.20820
	movzbl	%al, %eax	# D.20820, D.20824
	cmpl	-60(%rbp), %eax	# code, D.20824
	je	.L136	#,
	.loc 1 1423 0
	movq	-56(%rbp), %rax	# in, tmp140
	movq	8(%rax), %rax	# in_1->common.type, D.20821
	movzbl	16(%rax), %eax	# _39->common.code, D.20820
	cmpb	$7, %al	#, D.20820
	je	.L137	#,
	.loc 1 1423 0 is_stmt 0 discriminator 1
	movq	-56(%rbp), %rax	# in, tmp141
	movq	8(%rax), %rax	# in_1->common.type, D.20821
	movzbl	16(%rax), %eax	# _41->common.code, D.20820
	cmpb	$8, %al	#, D.20820
	jne	.L138	#,
	movq	-56(%rbp), %rax	# in, tmp142
	movq	8(%rax), %rax	# in_1->common.type, D.20821
	movq	8(%rax), %rax	# _43->common.type, D.20821
	movzbl	16(%rax), %eax	# _44->common.code, D.20820
	cmpb	$7, %al	#, D.20820
	je	.L137	#,
.L138:
	.loc 1 1428 0 is_stmt 1
	cmpl	$59, -60(%rbp)	#, code
	jne	.L139	#,
	.loc 1 1428 0 is_stmt 0 discriminator 1
	movq	-56(%rbp), %rax	# in, tmp143
	movzbl	16(%rax), %eax	# in_1->common.code, D.20820
	cmpb	$60, %al	#, D.20820
	je	.L136	#,
.L139:
	.loc 1 1429 0 is_stmt 1
	cmpl	$60, -60(%rbp)	#, code
	jne	.L137	#,
	.loc 1 1429 0 is_stmt 0 discriminator 1
	movq	-56(%rbp), %rax	# in, tmp144
	movzbl	16(%rax), %eax	# in_1->common.code, D.20820
	cmpb	$59, %al	#, D.20820
	jne	.L137	#,
.L136:
.LBB5:
	.loc 1 1431 0 is_stmt 1
	movq	-56(%rbp), %rax	# in, tmp145
	movq	32(%rax), %rax	# in_1->exp.operands, tmp146
	movq	%rax, -16(%rbp)	# tmp146, op0
	.loc 1 1432 0
	movq	-56(%rbp), %rax	# in, tmp147
	movq	40(%rax), %rax	# in_1->exp.operands, tmp148
	movq	%rax, -8(%rbp)	# tmp148, op1
	.loc 1 1433 0
	movq	-56(%rbp), %rax	# in, tmp149
	movzbl	16(%rax), %eax	# in_1->common.code, D.20820
	cmpb	$60, %al	#, D.20820
	sete	%al	#, D.20825
	movzbl	%al, %eax	# D.20825, tmp150
	movl	%eax, -28(%rbp)	# tmp150, neg1_p
	.loc 1 1434 0
	movl	$0, -40(%rbp)	#, neg_litp_p
	movl	$0, -36(%rbp)	#, neg_conp_p
	movl	$0, -32(%rbp)	#, neg_var_p
	.loc 1 1437 0
	movq	-16(%rbp), %rax	# op0, tmp151
	movzbl	16(%rax), %eax	# op0_51->common.code, D.20820
	cmpb	$25, %al	#, D.20820
	je	.L140	#,
	.loc 1 1437 0 is_stmt 0 discriminator 1
	movq	-16(%rbp), %rax	# op0, tmp152
	movzbl	16(%rax), %eax	# op0_51->common.code, D.20820
	cmpb	$26, %al	#, D.20820
	jne	.L141	#,
.L140:
	.loc 1 1438 0 is_stmt 1
	movq	-80(%rbp), %rax	# litp, tmp153
	movq	-16(%rbp), %rdx	# op0, tmp154
	movq	%rdx, (%rax)	# tmp154, *litp_15(D)
	movq	$0, -16(%rbp)	#, op0
	jmp	.L142	#
.L141:
	.loc 1 1439 0
	movq	-8(%rbp), %rax	# op1, tmp155
	movzbl	16(%rax), %eax	# op1_52->common.code, D.20820
	cmpb	$25, %al	#, D.20820
	je	.L143	#,
	.loc 1 1439 0 is_stmt 0 discriminator 1
	movq	-8(%rbp), %rax	# op1, tmp156
	movzbl	16(%rax), %eax	# op1_52->common.code, D.20820
	cmpb	$26, %al	#, D.20820
	jne	.L142	#,
.L143:
	.loc 1 1440 0 is_stmt 1
	movq	-80(%rbp), %rax	# litp, tmp157
	movq	-8(%rbp), %rdx	# op1, tmp158
	movq	%rdx, (%rax)	# tmp158, *litp_15(D)
	movl	-28(%rbp), %eax	# neg1_p, tmp159
	movl	%eax, -40(%rbp)	# tmp159, neg_litp_p
	movq	$0, -8(%rbp)	#, op1
.L142:
	.loc 1 1442 0
	cmpq	$0, -16(%rbp)	#, op0
	je	.L144	#,
	.loc 1 1442 0 is_stmt 0 discriminator 1
	movq	-16(%rbp), %rax	# op0, tmp160
	movzbl	17(%rax), %eax	# *op0_6, D.20820
	andl	$2, %eax	#, D.20820
	testb	%al, %al	# D.20820
	je	.L144	#,
	.loc 1 1443 0 is_stmt 1
	movq	-72(%rbp), %rax	# conp, tmp161
	movq	-16(%rbp), %rdx	# op0, tmp162
	movq	%rdx, (%rax)	# tmp162, *conp_14(D)
	movq	$0, -16(%rbp)	#, op0
	jmp	.L145	#
.L144:
	.loc 1 1444 0
	cmpq	$0, -8(%rbp)	#, op1
	je	.L145	#,
	.loc 1 1444 0 is_stmt 0 discriminator 1
	movq	-8(%rbp), %rax	# op1, tmp163
	movzbl	17(%rax), %eax	# *op1_8, D.20820
	andl	$2, %eax	#, D.20820
	testb	%al, %al	# D.20820
	je	.L145	#,
	.loc 1 1445 0 is_stmt 1
	movq	-72(%rbp), %rax	# conp, tmp164
	movq	-8(%rbp), %rdx	# op1, tmp165
	movq	%rdx, (%rax)	# tmp165, *conp_14(D)
	movl	-28(%rbp), %eax	# neg1_p, tmp166
	movl	%eax, -36(%rbp)	# tmp166, neg_conp_p
	movq	$0, -8(%rbp)	#, op1
.L145:
	.loc 1 1449 0
	cmpq	$0, -16(%rbp)	#, op0
	je	.L146	#,
	.loc 1 1449 0 is_stmt 0 discriminator 1
	cmpq	$0, -8(%rbp)	#, op1
	je	.L146	#,
	.loc 1 1450 0 is_stmt 1
	movq	-56(%rbp), %rax	# in, tmp167
	movq	%rax, -24(%rbp)	# tmp167, var
	jmp	.L147	#
.L146:
	.loc 1 1451 0
	cmpq	$0, -16(%rbp)	#, op0
	je	.L148	#,
	.loc 1 1452 0
	movq	-16(%rbp), %rax	# op0, tmp168
	movq	%rax, -24(%rbp)	# tmp168, var
	jmp	.L147	#
.L148:
	.loc 1 1454 0
	movq	-8(%rbp), %rax	# op1, tmp169
	movq	%rax, -24(%rbp)	# tmp169, var
	movl	-28(%rbp), %eax	# neg1_p, tmp170
	movl	%eax, -32(%rbp)	# tmp170, neg_var_p
.L147:
	.loc 1 1457 0
	cmpl	$0, -40(%rbp)	#, neg_litp_p
	je	.L149	#,
	.loc 1 1458 0
	movq	-80(%rbp), %rax	# litp, tmp171
	movq	(%rax), %rdx	# *litp_15(D), D.20821
	movq	-88(%rbp), %rax	# minus_litp, tmp172
	movq	%rdx, (%rax)	# D.20821, *minus_litp_16(D)
	movq	-80(%rbp), %rax	# litp, tmp173
	movq	$0, (%rax)	#, *litp_15(D)
.L149:
	.loc 1 1459 0
	cmpl	$0, -36(%rbp)	#, neg_conp_p
	je	.L150	#,
	.loc 1 1460 0
	movq	-72(%rbp), %rax	# conp, tmp174
	movq	(%rax), %rax	# *conp_14(D), D.20821
	movq	%rax, %rdi	# D.20821,
	call	negate_expr	#
	movq	-72(%rbp), %rdx	# conp, tmp175
	movq	%rax, (%rdx)	# D.20821, *conp_14(D)
.L150:
	.loc 1 1461 0
	cmpl	$0, -32(%rbp)	#, neg_var_p
	je	.L151	#,
	.loc 1 1462 0
	movq	-24(%rbp), %rax	# var, tmp176
	movq	%rax, %rdi	# tmp176,
	call	negate_expr	#
	movq	%rax, -24(%rbp)	# tmp177, var
.LBE5:
	.loc 1 1430 0
	jmp	.L135	#
.L151:
	jmp	.L135	#
.L137:
	.loc 1 1464 0
	movq	-56(%rbp), %rax	# in, tmp178
	movzbl	17(%rax), %eax	# *in_1, D.20820
	andl	$2, %eax	#, D.20820
	testb	%al, %al	# D.20820
	je	.L152	#,
	.loc 1 1465 0
	movq	-72(%rbp), %rax	# conp, tmp179
	movq	-56(%rbp), %rdx	# in, tmp180
	movq	%rdx, (%rax)	# tmp180, *conp_14(D)
	jmp	.L135	#
.L152:
	.loc 1 1467 0
	movq	-56(%rbp), %rax	# in, tmp181
	movq	%rax, -24(%rbp)	# tmp181, var
.L135:
	.loc 1 1469 0
	cmpl	$0, -64(%rbp)	#, negate_p
	je	.L153	#,
	.loc 1 1471 0
	movq	-80(%rbp), %rax	# litp, tmp182
	movq	(%rax), %rax	# *litp_15(D), D.20821
	testq	%rax, %rax	# D.20821
	je	.L154	#,
	.loc 1 1472 0
	movq	-80(%rbp), %rax	# litp, tmp183
	movq	(%rax), %rdx	# *litp_15(D), D.20821
	movq	-88(%rbp), %rax	# minus_litp, tmp184
	movq	%rdx, (%rax)	# D.20821, *minus_litp_16(D)
	movq	-80(%rbp), %rax	# litp, tmp185
	movq	$0, (%rax)	#, *litp_15(D)
	jmp	.L155	#
.L154:
	.loc 1 1473 0
	movq	-88(%rbp), %rax	# minus_litp, tmp186
	movq	(%rax), %rax	# *minus_litp_16(D), D.20821
	testq	%rax, %rax	# D.20821
	je	.L155	#,
	.loc 1 1474 0
	movq	-88(%rbp), %rax	# minus_litp, tmp187
	movq	(%rax), %rdx	# *minus_litp_16(D), D.20821
	movq	-80(%rbp), %rax	# litp, tmp188
	movq	%rdx, (%rax)	# D.20821, *litp_15(D)
	movq	-88(%rbp), %rax	# minus_litp, tmp189
	movq	$0, (%rax)	#, *minus_litp_16(D)
.L155:
	.loc 1 1475 0
	movq	-72(%rbp), %rax	# conp, tmp190
	movq	(%rax), %rax	# *conp_14(D), D.20821
	movq	%rax, %rdi	# D.20821,
	call	negate_expr	#
	movq	-72(%rbp), %rdx	# conp, tmp191
	movq	%rax, (%rdx)	# D.20821, *conp_14(D)
	.loc 1 1476 0
	movq	-24(%rbp), %rax	# var, tmp192
	movq	%rax, %rdi	# tmp192,
	call	negate_expr	#
	movq	%rax, -24(%rbp)	# tmp193, var
.L153:
	.loc 1 1479 0
	movq	-24(%rbp), %rax	# var, D.20826
	.loc 1 1480 0
	leave
	.cfi_def_cfa 7, 8
	ret
	.cfi_endproc
.LFE14:
	.size	split_tree, .-split_tree
	.type	associate_trees, @function
associate_trees:
.LFB15:
	.loc 1 1491 0
	.cfi_startproc
	pushq	%rbp	#
	.cfi_def_cfa_offset 16
	.cfi_offset 6, -16
	movq	%rsp, %rbp	#,
	.cfi_def_cfa_register 6
	pushq	%rbx	#
	subq	$40, %rsp	#,
	.cfi_offset 3, -24
	movq	%rdi, -24(%rbp)	# t1, t1
	movq	%rsi, -32(%rbp)	# t2, t2
	movl	%edx, -36(%rbp)	# code, code
	movq	%rcx, -48(%rbp)	# type, type
	.loc 1 1492 0
	cmpq	$0, -24(%rbp)	#, t1
	jne	.L158	#,
	.loc 1 1493 0
	movq	-32(%rbp), %rax	# t2, D.20827
	jmp	.L159	#
.L158:
	.loc 1 1494 0
	cmpq	$0, -32(%rbp)	#, t2
	jne	.L160	#,
	.loc 1 1495 0
	movq	-24(%rbp), %rax	# t1, D.20827
	jmp	.L159	#
.L160:
	.loc 1 1500 0
	movq	-24(%rbp), %rax	# t1, tmp80
	movzbl	16(%rax), %eax	# t1_2(D)->common.code, D.20828
	movzbl	%al, %eax	# D.20828, D.20829
	cmpl	-36(%rbp), %eax	# code, D.20829
	je	.L161	#,
	.loc 1 1500 0 is_stmt 0 discriminator 1
	movq	-32(%rbp), %rax	# t2, tmp81
	movzbl	16(%rax), %eax	# t2_3(D)->common.code, D.20828
	movzbl	%al, %eax	# D.20828, D.20829
	cmpl	-36(%rbp), %eax	# code, D.20829
	je	.L161	#,
	.loc 1 1501 0 is_stmt 1
	movq	-24(%rbp), %rax	# t1, tmp82
	movzbl	16(%rax), %eax	# t1_2(D)->common.code, D.20828
	cmpb	$60, %al	#, D.20828
	je	.L161	#,
	.loc 1 1501 0 is_stmt 0 discriminator 1
	movq	-32(%rbp), %rax	# t2, tmp83
	movzbl	16(%rax), %eax	# t2_3(D)->common.code, D.20828
	cmpb	$60, %al	#, D.20828
	jne	.L162	#,
.L161:
	.loc 1 1503 0 is_stmt 1
	movq	-24(%rbp), %rax	# t1, tmp84
	movzbl	16(%rax), %eax	# t1_2(D)->common.code, D.20828
	cmpb	$77, %al	#, D.20828
	jne	.L163	#,
	.loc 1 1504 0
	movq	-24(%rbp), %rax	# t1, tmp85
	movq	32(%rax), %rdx	# t1_2(D)->exp.operands, D.20830
	movq	-48(%rbp), %rax	# type, tmp86
	movq	%rdx, %rsi	# D.20830,
	movq	%rax, %rdi	# tmp86,
	call	convert	#
	movq	%rax, %rbx	#, D.20830
	movq	-32(%rbp), %rdx	# t2, tmp87
	movq	-48(%rbp), %rax	# type, tmp88
	movq	%rdx, %rsi	# tmp87,
	movq	%rax, %rdi	# tmp88,
	call	convert	#
	movq	%rax, %rdx	#, D.20830
	movq	-48(%rbp), %rax	# type, tmp89
	movq	%rbx, %rcx	# D.20830,
	movq	%rax, %rsi	# tmp89,
	movl	$60, %edi	#,
	movl	$0, %eax	#,
	call	build	#
	jmp	.L159	#
.L163:
	.loc 1 1506 0
	movq	-32(%rbp), %rax	# t2, tmp90
	movzbl	16(%rax), %eax	# t2_3(D)->common.code, D.20828
	cmpb	$77, %al	#, D.20828
	jne	.L164	#,
	.loc 1 1507 0
	movq	-32(%rbp), %rax	# t2, tmp91
	movq	32(%rax), %rdx	# t2_3(D)->exp.operands, D.20830
	movq	-48(%rbp), %rax	# type, tmp92
	movq	%rdx, %rsi	# D.20830,
	movq	%rax, %rdi	# tmp92,
	call	convert	#
	movq	%rax, %rbx	#, D.20830
	movq	-24(%rbp), %rdx	# t1, tmp93
	movq	-48(%rbp), %rax	# type, tmp94
	movq	%rdx, %rsi	# tmp93,
	movq	%rax, %rdi	# tmp94,
	call	convert	#
	movq	%rax, %rdx	#, D.20830
	movq	-48(%rbp), %rax	# type, tmp95
	movq	%rbx, %rcx	# D.20830,
	movq	%rax, %rsi	# tmp95,
	movl	$60, %edi	#,
	movl	$0, %eax	#,
	call	build	#
	jmp	.L159	#
.L164:
	.loc 1 1510 0
	movq	-32(%rbp), %rdx	# t2, tmp96
	movq	-48(%rbp), %rax	# type, tmp97
	movq	%rdx, %rsi	# tmp96,
	movq	%rax, %rdi	# tmp97,
	call	convert	#
	movq	%rax, %rbx	#, D.20830
	movq	-24(%rbp), %rdx	# t1, tmp98
	movq	-48(%rbp), %rax	# type, tmp99
	movq	%rdx, %rsi	# tmp98,
	movq	%rax, %rdi	# tmp99,
	call	convert	#
	movq	%rax, %rdx	#, D.20830
	movq	-48(%rbp), %rsi	# type, tmp100
	movl	-36(%rbp), %eax	# code, tmp101
	movq	%rbx, %rcx	# D.20830,
	movl	%eax, %edi	# tmp101,
	movl	$0, %eax	#,
	call	build	#
	jmp	.L159	#
.L162:
	.loc 1 1513 0
	movq	-32(%rbp), %rdx	# t2, tmp102
	movq	-48(%rbp), %rax	# type, tmp103
	movq	%rdx, %rsi	# tmp102,
	movq	%rax, %rdi	# tmp103,
	call	convert	#
	movq	%rax, %rbx	#, D.20830
	movq	-24(%rbp), %rdx	# t1, tmp104
	movq	-48(%rbp), %rax	# type, tmp105
	movq	%rdx, %rsi	# tmp104,
	movq	%rax, %rdi	# tmp105,
	call	convert	#
	movq	%rax, %rdx	#, D.20830
	movq	-48(%rbp), %rsi	# type, tmp106
	movl	-36(%rbp), %eax	# code, tmp107
	movq	%rbx, %rcx	# D.20830,
	movl	%eax, %edi	# tmp107,
	movl	$0, %eax	#,
	call	build	#
	movq	%rax, %rdi	# D.20830,
	call	fold	#
.L159:
	.loc 1 1514 0
	addq	$40, %rsp	#,
	popq	%rbx	#
	popq	%rbp	#
	.cfi_def_cfa 7, 8
	ret
	.cfi_endproc
.LFE15:
	.size	associate_trees, .-associate_trees
	.type	int_const_binop, @function
int_const_binop:
.LFB16:
	.loc 1 1526 0
	.cfi_startproc
	pushq	%rbp	#
	.cfi_def_cfa_offset 16
	.cfi_offset 6, -16
	movq	%rsp, %rbp	#,
	.cfi_def_cfa_register 6
	subq	$160, %rsp	#,
	movl	%edi, -100(%rbp)	# code, code
	movq	%rsi, -112(%rbp)	# arg1, arg1
	movq	%rdx, -120(%rbp)	# arg2, arg2
	movl	%ecx, -104(%rbp)	# notrunc, notrunc
	.loc 1 1534 0
	movq	-112(%rbp), %rax	# arg1, tmp163
	movq	8(%rax), %rax	# arg1_15(D)->common.type, tmp164
	movq	%rax, -32(%rbp)	# tmp164, type
	.loc 1 1535 0
	movq	-32(%rbp), %rax	# type, tmp165
	movzbl	17(%rax), %eax	# *type_16, tmp168
	shrb	$5, %al	#, D.20832
	andl	$1, %eax	#, D.20832
	movzbl	%al, %eax	# D.20832, tmp169
	movl	%eax, -88(%rbp)	# tmp169, uns
	.loc 1 1537 0
	movq	-32(%rbp), %rax	# type, tmp170
	movzbl	16(%rax), %eax	# type_16->common.code, D.20833
	cmpb	$6, %al	#, D.20833
	jne	.L166	#,
	.loc 1 1537 0 is_stmt 0 discriminator 1
	movq	-32(%rbp), %rax	# type, tmp171
	movzbl	62(%rax), %eax	# *type_16, D.20833
	andl	$2, %eax	#, D.20833
	testb	%al, %al	# D.20833
	je	.L166	#,
	.loc 1 1537 0 discriminator 3
	movl	$1, %eax	#, iftmp.93
	jmp	.L167	#
.L166:
	.loc 1 1537 0 discriminator 2
	movl	$0, %eax	#, iftmp.93
.L167:
	.loc 1 1536 0 is_stmt 1
	movl	%eax, -84(%rbp)	# iftmp.93, is_sizetype
	.loc 1 1538 0
	movl	$0, -96(%rbp)	#, overflow
	.loc 1 1539 0
	movl	$0, -92(%rbp)	#, no_overflow
	.loc 1 1541 0
	movq	-112(%rbp), %rax	# arg1, tmp172
	movq	32(%rax), %rax	# arg1_15(D)->int_cst.int_cst.low, tmp173
	movq	%rax, -48(%rbp)	# tmp173, int1l
	.loc 1 1542 0
	movq	-112(%rbp), %rax	# arg1, tmp174
	movq	40(%rax), %rax	# arg1_15(D)->int_cst.int_cst.high, tmp175
	movq	%rax, -24(%rbp)	# tmp175, int1h
	.loc 1 1543 0
	movq	-120(%rbp), %rax	# arg2, tmp176
	movq	32(%rax), %rax	# arg2_29(D)->int_cst.int_cst.low, tmp177
	movq	%rax, -40(%rbp)	# tmp177, int2l
	.loc 1 1544 0
	movq	-120(%rbp), %rax	# arg2, tmp178
	movq	40(%rax), %rax	# arg2_29(D)->int_cst.int_cst.high, tmp179
	movq	%rax, -16(%rbp)	# tmp179, int2h
	.loc 1 1546 0
	movl	-100(%rbp), %eax	# code, tmp181
	subl	$59, %eax	#, tmp180
	cmpl	$30, %eax	#, tmp180
	ja	.L168	#,
	movl	%eax, %eax	# tmp180, tmp182
	movq	.L170(,%rax,8), %rax	#, tmp183
	jmp	*%rax	# tmp183
	.section	.rodata
	.align 8
	.align 4
.L170:
	.quad	.L169
	.quad	.L171
	.quad	.L172
	.quad	.L173
	.quad	.L173
	.quad	.L173
	.quad	.L174
	.quad	.L175
	.quad	.L175
	.quad	.L175
	.quad	.L176
	.quad	.L168
	.quad	.L173
	.quad	.L168
	.quad	.L168
	.quad	.L168
	.quad	.L168
	.quad	.L168
	.quad	.L168
	.quad	.L177
	.quad	.L177
	.quad	.L168
	.quad	.L168
	.quad	.L178
	.quad	.L179
	.quad	.L180
	.quad	.L181
	.quad	.L182
	.quad	.L183
	.quad	.L184
	.quad	.L185
	.text
.L182:
	.loc 1 1549 0
	movq	-40(%rbp), %rax	# int2l, tmp184
	movq	-48(%rbp), %rdx	# int1l, tmp185
	orq	%rdx, %rax	# tmp185, low.94
	movq	%rax, -80(%rbp)	# low.94, low
	movq	-16(%rbp), %rax	# int2h, tmp186
	movq	-24(%rbp), %rdx	# int1h, tmp187
	orq	%rdx, %rax	# tmp187, hi.95
	movq	%rax, -72(%rbp)	# hi.95, hi
	.loc 1 1550 0
	jmp	.L186	#
.L183:
	.loc 1 1553 0
	movq	-40(%rbp), %rax	# int2l, tmp188
	movq	-48(%rbp), %rdx	# int1l, tmp189
	xorq	%rdx, %rax	# tmp189, low.96
	movq	%rax, -80(%rbp)	# low.96, low
	movq	-16(%rbp), %rax	# int2h, tmp190
	movq	-24(%rbp), %rdx	# int1h, tmp191
	xorq	%rdx, %rax	# tmp191, hi.97
	movq	%rax, -72(%rbp)	# hi.97, hi
	.loc 1 1554 0
	jmp	.L186	#
.L184:
	.loc 1 1557 0
	movq	-40(%rbp), %rax	# int2l, tmp192
	movq	-48(%rbp), %rdx	# int1l, tmp193
	andq	%rdx, %rax	# tmp193, low.98
	movq	%rax, -80(%rbp)	# low.98, low
	movq	-16(%rbp), %rax	# int2h, tmp194
	movq	-24(%rbp), %rdx	# int1h, tmp195
	andq	%rdx, %rax	# tmp195, hi.99
	movq	%rax, -72(%rbp)	# hi.99, hi
	.loc 1 1558 0
	jmp	.L186	#
.L185:
	.loc 1 1561 0
	movq	-40(%rbp), %rax	# int2l, tmp196
	notq	%rax	# D.20834
	andq	-48(%rbp), %rax	# int1l, low.100
	movq	%rax, -80(%rbp)	# low.100, low
	movq	-16(%rbp), %rax	# int2h, tmp197
	notq	%rax	# D.20835
	andq	-24(%rbp), %rax	# int1h, hi.101
	movq	%rax, -72(%rbp)	# hi.101, hi
	.loc 1 1562 0
	jmp	.L186	#
.L179:
	.loc 1 1565 0
	negq	-40(%rbp)	# int2l
.L178:
	.loc 1 1570 0
	cmpl	$0, -88(%rbp)	#, uns
	sete	%al	#, D.20836
	movzbl	%al, %edi	# D.20836, D.20837
	movq	-32(%rbp), %rax	# type, tmp198
	movzwl	60(%rax), %eax	# *type_16, tmp201
	andw	$511, %ax	#, D.20838
	movzwl	%ax, %ecx	# D.20838, D.20839
	movq	-40(%rbp), %rdx	# int2l, int2l.102
	leaq	-72(%rbp), %r9	#, tmp202
	leaq	-80(%rbp), %r8	#, tmp203
	movq	-24(%rbp), %rsi	# int1h, tmp204
	movq	-48(%rbp), %rax	# int1l, tmp205
	movl	%edi, (%rsp)	# D.20837,
	movq	%rax, %rdi	# tmp205,
	call	lshift_double	#
	.loc 1 1572 0
	movl	$1, -92(%rbp)	#, no_overflow
	.loc 1 1573 0
	jmp	.L186	#
.L181:
	.loc 1 1576 0
	negq	-40(%rbp)	# int2l
.L180:
	.loc 1 1578 0
	movq	-32(%rbp), %rax	# type, tmp206
	movzwl	60(%rax), %eax	# *type_16, tmp209
	andw	$511, %ax	#, D.20838
	movzwl	%ax, %ecx	# D.20838, D.20839
	movq	-40(%rbp), %rdx	# int2l, int2l.103
	leaq	-72(%rbp), %r8	#, tmp210
	leaq	-80(%rbp), %rdi	#, tmp211
	movq	-24(%rbp), %rsi	# int1h, tmp212
	movq	-48(%rbp), %rax	# int1l, tmp213
	movq	%r8, %r9	# tmp210,
	movq	%rdi, %r8	# tmp211,
	movq	%rax, %rdi	# tmp213,
	call	lrotate_double	#
	.loc 1 1580 0
	jmp	.L186	#
.L169:
	.loc 1 1583 0
	leaq	-72(%rbp), %r8	#, tmp214
	leaq	-80(%rbp), %rdi	#, tmp215
	movq	-16(%rbp), %rcx	# int2h, tmp216
	movq	-40(%rbp), %rdx	# int2l, tmp217
	movq	-24(%rbp), %rsi	# int1h, tmp218
	movq	-48(%rbp), %rax	# int1l, tmp219
	movq	%r8, %r9	# tmp214,
	movq	%rdi, %r8	# tmp215,
	movq	%rax, %rdi	# tmp219,
	call	add_double	#
	movl	%eax, -96(%rbp)	# tmp220, overflow
	.loc 1 1584 0
	jmp	.L186	#
.L171:
	.loc 1 1587 0
	leaq	-72(%rbp), %rcx	#, tmp221
	leaq	-80(%rbp), %rdx	#, tmp222
	movq	-16(%rbp), %rsi	# int2h, tmp223
	movq	-40(%rbp), %rax	# int2l, tmp224
	movq	%rax, %rdi	# tmp224,
	call	neg_double	#
	.loc 1 1588 0
	movq	-72(%rbp), %rcx	# hi, hi.104
	movq	-80(%rbp), %rdx	# low, low.105
	leaq	-72(%rbp), %r8	#, tmp225
	leaq	-80(%rbp), %rdi	#, tmp226
	movq	-24(%rbp), %rsi	# int1h, tmp227
	movq	-48(%rbp), %rax	# int1l, tmp228
	movq	%r8, %r9	# tmp225,
	movq	%rdi, %r8	# tmp226,
	movq	%rax, %rdi	# tmp228,
	call	add_double	#
	.loc 1 1589 0
	movq	-72(%rbp), %rax	# hi, hi.106
	xorq	-16(%rbp), %rax	# int2h, D.20835
	notq	%rax	# D.20835
	movq	%rax, %rdx	# D.20835, D.20835
	movq	-72(%rbp), %rax	# hi, hi.107
	xorq	-24(%rbp), %rax	# int1h, D.20835
	andq	%rdx, %rax	# D.20835, D.20835
	shrq	$63, %rax	#, tmp229
	movzbl	%al, %eax	# D.20836, tmp230
	movl	%eax, -96(%rbp)	# tmp230, overflow
	.loc 1 1590 0
	jmp	.L186	#
.L172:
	.loc 1 1593 0
	leaq	-72(%rbp), %r8	#, tmp231
	leaq	-80(%rbp), %rdi	#, tmp232
	movq	-16(%rbp), %rcx	# int2h, tmp233
	movq	-40(%rbp), %rdx	# int2l, tmp234
	movq	-24(%rbp), %rsi	# int1h, tmp235
	movq	-48(%rbp), %rax	# int1l, tmp236
	movq	%r8, %r9	# tmp231,
	movq	%rdi, %r8	# tmp232,
	movq	%rax, %rdi	# tmp236,
	call	mul_double	#
	movl	%eax, -96(%rbp)	# tmp237, overflow
	.loc 1 1594 0
	jmp	.L186	#
.L173:
	.loc 1 1600 0
	cmpq	$0, -16(%rbp)	#, int2h
	jne	.L174	#,
	.loc 1 1600 0 is_stmt 0 discriminator 1
	movq	-40(%rbp), %rax	# int2l, int2l.108
	testq	%rax, %rax	# int2l.108
	jle	.L174	#,
	.loc 1 1601 0 is_stmt 1
	movq	-112(%rbp), %rax	# arg1, tmp238
	movzbl	18(%rax), %eax	# *arg1_15(D), D.20833
	andl	$4, %eax	#, D.20833
	testb	%al, %al	# D.20833
	jne	.L174	#,
	.loc 1 1602 0
	movq	-120(%rbp), %rax	# arg2, tmp239
	movzbl	18(%rax), %eax	# *arg2_29(D), D.20833
	andl	$4, %eax	#, D.20833
	testb	%al, %al	# D.20833
	jne	.L174	#,
	.loc 1 1603 0
	cmpq	$0, -24(%rbp)	#, int1h
	jne	.L174	#,
	.loc 1 1603 0 is_stmt 0 discriminator 1
	movq	-48(%rbp), %rax	# int1l, int1l.109
	testq	%rax, %rax	# int1l.109
	js	.L174	#,
	.loc 1 1605 0 is_stmt 1
	cmpl	$63, -100(%rbp)	#, code
	jne	.L187	#,
	.loc 1 1606 0
	movq	-48(%rbp), %rax	# int1l, tmp240
	movq	-40(%rbp), %rdx	# int2l, tmp241
	addq	%rdx, %rax	# tmp241, D.20834
	subq	$1, %rax	#, tmp242
	movq	%rax, -48(%rbp)	# tmp242, int1l
.L187:
	.loc 1 1608 0
	movq	-48(%rbp), %rax	# int1l, tmp245
	movl	$0, %edx	#, tmp244
	divq	-40(%rbp)	# int2l
	movq	%rax, -80(%rbp)	# low.110, low
	movq	$0, -72(%rbp)	#, hi
	.loc 1 1609 0
	jmp	.L186	#
.L174:
	.loc 1 1615 0
	cmpq	$0, -16(%rbp)	#, int2h
	jne	.L188	#,
	.loc 1 1615 0 is_stmt 0 discriminator 1
	cmpq	$1, -40(%rbp)	#, int2l
	jne	.L188	#,
	.loc 1 1617 0 is_stmt 1
	movq	-48(%rbp), %rax	# int1l, tmp246
	movq	%rax, -80(%rbp)	# tmp246, low
	movq	-24(%rbp), %rax	# int1h, tmp247
	movq	%rax, -72(%rbp)	# tmp247, hi
	.loc 1 1618 0
	jmp	.L186	#
.L188:
	.loc 1 1620 0
	movq	-48(%rbp), %rax	# int1l, tmp248
	cmpq	-40(%rbp), %rax	# int2l, tmp248
	jne	.L189	#,
	.loc 1 1620 0 is_stmt 0 discriminator 1
	movq	-24(%rbp), %rax	# int1h, tmp249
	cmpq	-16(%rbp), %rax	# int2h, tmp249
	jne	.L189	#,
	.loc 1 1621 0 is_stmt 1
	cmpq	$0, -48(%rbp)	#, int1l
	jne	.L190	#,
	.loc 1 1621 0 is_stmt 0 discriminator 1
	cmpq	$0, -24(%rbp)	#, int1h
	je	.L189	#,
.L190:
	.loc 1 1623 0 is_stmt 1
	movq	$1, -80(%rbp)	#, low
	movq	$0, -72(%rbp)	#, hi
	.loc 1 1624 0
	jmp	.L186	#
.L189:
	.loc 1 1626 0
	movq	-16(%rbp), %r9	# int2h, tmp250
	movq	-40(%rbp), %r8	# int2l, tmp251
	movq	-24(%rbp), %rcx	# int1h, tmp252
	movq	-48(%rbp), %rdx	# int1l, tmp253
	movl	-88(%rbp), %esi	# uns, tmp254
	movl	-100(%rbp), %eax	# code, tmp255
	leaq	-56(%rbp), %rdi	#, tmp256
	movq	%rdi, 24(%rsp)	# tmp256,
	leaq	-64(%rbp), %rdi	#, tmp257
	movq	%rdi, 16(%rsp)	# tmp257,
	leaq	-72(%rbp), %rdi	#, tmp258
	movq	%rdi, 8(%rsp)	# tmp258,
	leaq	-80(%rbp), %rdi	#, tmp259
	movq	%rdi, (%rsp)	# tmp259,
	movl	%eax, %edi	# tmp255,
	call	div_and_round_double	#
	movl	%eax, -96(%rbp)	# tmp260, overflow
	.loc 1 1628 0
	jmp	.L186	#
.L175:
	.loc 1 1633 0
	cmpq	$0, -16(%rbp)	#, int2h
	jne	.L176	#,
	.loc 1 1633 0 is_stmt 0 discriminator 1
	movq	-40(%rbp), %rax	# int2l, int2l.111
	testq	%rax, %rax	# int2l.111
	jle	.L176	#,
	.loc 1 1634 0 is_stmt 1
	movq	-112(%rbp), %rax	# arg1, tmp261
	movzbl	18(%rax), %eax	# *arg1_15(D), D.20833
	andl	$4, %eax	#, D.20833
	testb	%al, %al	# D.20833
	jne	.L176	#,
	.loc 1 1635 0
	movq	-120(%rbp), %rax	# arg2, tmp262
	movzbl	18(%rax), %eax	# *arg2_29(D), D.20833
	andl	$4, %eax	#, D.20833
	testb	%al, %al	# D.20833
	jne	.L176	#,
	.loc 1 1636 0
	cmpq	$0, -24(%rbp)	#, int1h
	jne	.L176	#,
	.loc 1 1636 0 is_stmt 0 discriminator 1
	movq	-48(%rbp), %rax	# int1l, int1l.112
	testq	%rax, %rax	# int1l.112
	js	.L176	#,
	.loc 1 1638 0 is_stmt 1
	cmpl	$67, -100(%rbp)	#, code
	jne	.L191	#,
	.loc 1 1639 0
	movq	-48(%rbp), %rax	# int1l, tmp263
	movq	-40(%rbp), %rdx	# int2l, tmp264
	addq	%rdx, %rax	# tmp264, D.20834
	subq	$1, %rax	#, tmp265
	movq	%rax, -48(%rbp)	# tmp265, int1l
.L191:
	.loc 1 1640 0
	movq	-48(%rbp), %rax	# int1l, tmp266
	movl	$0, %edx	#, tmp267
	divq	-40(%rbp)	# int2l
	movq	%rdx, %rax	# tmp267, low.113
	movq	%rax, -80(%rbp)	# low.113, low
	movq	$0, -72(%rbp)	#, hi
	.loc 1 1641 0
	jmp	.L186	#
.L176:
	.loc 1 1647 0
	movq	-16(%rbp), %r9	# int2h, tmp269
	movq	-40(%rbp), %r8	# int2l, tmp270
	movq	-24(%rbp), %rcx	# int1h, tmp271
	movq	-48(%rbp), %rdx	# int1l, tmp272
	movl	-88(%rbp), %esi	# uns, tmp273
	movl	-100(%rbp), %eax	# code, tmp274
	leaq	-72(%rbp), %rdi	#, tmp275
	movq	%rdi, 24(%rsp)	# tmp275,
	leaq	-80(%rbp), %rdi	#, tmp276
	movq	%rdi, 16(%rsp)	# tmp276,
	leaq	-56(%rbp), %rdi	#, tmp277
	movq	%rdi, 8(%rsp)	# tmp277,
	leaq	-64(%rbp), %rdi	#, tmp278
	movq	%rdi, (%rsp)	# tmp278,
	movl	%eax, %edi	# tmp274,
	call	div_and_round_double	#
	movl	%eax, -96(%rbp)	# tmp279, overflow
	.loc 1 1650 0
	jmp	.L186	#
.L177:
	.loc 1 1654 0
	cmpl	$0, -88(%rbp)	#, uns
	je	.L192	#,
	.loc 1 1655 0
	movq	-24(%rbp), %rdx	# int1h, int1h.115
	.loc 1 1656 0
	movq	-16(%rbp), %rax	# int2h, int2h.116
	.loc 1 1657 0
	cmpq	%rax, %rdx	# int2h.116, int1h.115
	jb	.L193	#,
	.loc 1 1657 0 is_stmt 0 discriminator 2
	movq	-24(%rbp), %rax	# int1h, tmp280
	cmpq	-16(%rbp), %rax	# int2h, tmp280
	jne	.L194	#,
	.loc 1 1659 0 is_stmt 1
	movq	-48(%rbp), %rax	# int1l, tmp281
	cmpq	-40(%rbp), %rax	# int2l, tmp281
	jae	.L194	#,
.L193:
	.loc 1 1657 0 discriminator 1
	movl	$1, %eax	#, iftmp.114
	jmp	.L195	#
.L194:
	.loc 1 1657 0 is_stmt 0 discriminator 3
	movl	$0, %eax	#, iftmp.114
.L195:
	.loc 1 1655 0 is_stmt 1
	cltq
	movq	%rax, -80(%rbp)	# low.117, low
	jmp	.L196	#
.L192:
	.loc 1 1662 0
	movq	-24(%rbp), %rax	# int1h, tmp282
	cmpq	-16(%rbp), %rax	# int2h, tmp282
	jl	.L197	#,
	.loc 1 1662 0 is_stmt 0 discriminator 2
	movq	-24(%rbp), %rax	# int1h, tmp283
	cmpq	-16(%rbp), %rax	# int2h, tmp283
	jne	.L198	#,
	.loc 1 1662 0 discriminator 3
	movq	-48(%rbp), %rax	# int1l, tmp284
	cmpq	-40(%rbp), %rax	# int2l, tmp284
	jae	.L198	#,
.L197:
	.loc 1 1662 0 discriminator 1
	movl	$1, %eax	#, iftmp.118
	jmp	.L199	#
.L198:
	.loc 1 1662 0 discriminator 4
	movl	$0, %eax	#, iftmp.118
.L199:
	.loc 1 1661 0 is_stmt 1
	cltq
	movq	%rax, -80(%rbp)	# low.119, low
.L196:
	.loc 1 1664 0
	cmpl	$78, -100(%rbp)	#, code
	sete	%al	#, D.20836
	movzbl	%al, %edx	# D.20836, D.20834
	movq	-80(%rbp), %rax	# low, low.120
	cmpq	%rax, %rdx	# low.120, D.20834
	jne	.L200	#,
	.loc 1 1665 0
	movq	-48(%rbp), %rax	# int1l, tmp285
	movq	%rax, -80(%rbp)	# tmp285, low
	movq	-24(%rbp), %rax	# int1h, tmp286
	movq	%rax, -72(%rbp)	# tmp286, hi
	.loc 1 1668 0
	jmp	.L186	#
.L200:
	.loc 1 1667 0
	movq	-40(%rbp), %rax	# int2l, tmp287
	movq	%rax, -80(%rbp)	# tmp287, low
	movq	-16(%rbp), %rax	# int2h, tmp288
	movq	%rax, -72(%rbp)	# tmp288, hi
	.loc 1 1668 0
	jmp	.L186	#
.L168:
	.loc 1 1671 0
	movl	$__FUNCTION__.12397, %edx	#,
	movl	$1671, %esi	#,
	movl	$.LC0, %edi	#,
	call	fancy_abort	#
.L186:
	.loc 1 1677 0
	cmpl	$0, -84(%rbp)	#, is_sizetype
	je	.L202	#,
	.loc 1 1678 0
	movq	-72(%rbp), %rax	# hi, hi.121
	testq	%rax, %rax	# hi.121
	jne	.L203	#,
	.loc 1 1678 0 is_stmt 0 discriminator 1
	movq	-80(%rbp), %rax	# low, low.122
	testq	%rax, %rax	# low.123
	jns	.L204	#,
.L203:
	.loc 1 1679 0 is_stmt 1
	movq	-72(%rbp), %rax	# hi, hi.124
	cmpq	$-1, %rax	#, hi.124
	jne	.L202	#,
	.loc 1 1679 0 is_stmt 0 discriminator 1
	movq	-80(%rbp), %rax	# low, low.125
	testq	%rax, %rax	# low.126
	jns	.L202	#,
.L204:
	.loc 1 1680 0 is_stmt 1
	cmpl	$0, -96(%rbp)	#, overflow
	jne	.L202	#,
	.loc 1 1680 0 is_stmt 0 discriminator 1
	movq	-112(%rbp), %rax	# arg1, tmp289
	movzbl	18(%rax), %eax	# *arg1_15(D), D.20833
	andl	$8, %eax	#, D.20833
	testb	%al, %al	# D.20833
	jne	.L202	#,
	movq	-120(%rbp), %rax	# arg2, tmp290
	movzbl	18(%rax), %eax	# *arg2_29(D), D.20833
	andl	$8, %eax	#, D.20833
	testb	%al, %al	# D.20833
	jne	.L202	#,
	.loc 1 1681 0 is_stmt 1
	movq	-80(%rbp), %rax	# low, low.127
	movq	-32(%rbp), %rdx	# type, tmp291
	movq	%rdx, %rsi	# tmp291,
	movq	%rax, %rdi	# low.128,
	call	size_int_type_wide	#
	jmp	.L218	#
.L202:
	.loc 1 1684 0
	movq	-72(%rbp), %rdx	# hi, hi.129
	movq	-80(%rbp), %rax	# low, low.130
	movq	%rdx, %rsi	# hi.129,
	movq	%rax, %rdi	# low.130,
	call	build_int_2_wide	#
	movq	%rax, -8(%rbp)	# tmp292, t
	.loc 1 1685 0
	movq	-112(%rbp), %rax	# arg1, tmp293
	movq	8(%rax), %rdx	# arg1_15(D)->common.type, D.20840
	movq	-8(%rbp), %rax	# t, tmp294
	movq	%rdx, 8(%rax)	# D.20840, t_112->common.type
	.loc 1 1689 0
	cmpl	$0, -104(%rbp)	#, notrunc
	je	.L206	#,
	.loc 1 1690 0
	cmpl	$0, -88(%rbp)	#, uns
	je	.L207	#,
	.loc 1 1690 0 is_stmt 0 discriminator 2
	cmpl	$0, -84(%rbp)	#, is_sizetype
	je	.L208	#,
.L207:
	.loc 1 1690 0 discriminator 1
	cmpl	$0, -96(%rbp)	#, overflow
	je	.L208	#,
	.loc 1 1690 0 discriminator 3
	movl	$1, %eax	#, iftmp.132
	jmp	.L209	#
.L208:
	.loc 1 1690 0 discriminator 1
	movl	$0, %eax	#, iftmp.132
.L209:
	.loc 1 1689 0 is_stmt 1
	movl	%eax, %edx	# iftmp.132, iftmp.131
	jmp	.L210	#
.L206:
	.loc 1 1691 0
	cmpl	$0, -88(%rbp)	#, uns
	je	.L211	#,
	.loc 1 1691 0 is_stmt 0 discriminator 2
	cmpl	$0, -84(%rbp)	#, is_sizetype
	je	.L212	#,
.L211:
	.loc 1 1691 0 discriminator 1
	cmpl	$0, -96(%rbp)	#, overflow
	je	.L212	#,
	.loc 1 1691 0 discriminator 3
	movl	$1, %eax	#, iftmp.134
	jmp	.L213	#
.L212:
	.loc 1 1691 0 discriminator 1
	movl	$0, %eax	#, iftmp.134
.L213:
	.loc 1 1691 0 discriminator 4
	movq	-8(%rbp), %rdx	# t, tmp295
	movl	%eax, %esi	# iftmp.134,
	movq	%rdx, %rdi	# tmp295,
	call	force_fit_type	#
	.loc 1 1692 0 is_stmt 1 discriminator 4
	testl	%eax, %eax	# D.20837
	je	.L214	#,
	.loc 1 1692 0 is_stmt 0 discriminator 1
	cmpl	$0, -92(%rbp)	#, no_overflow
	jne	.L214	#,
	.loc 1 1692 0 discriminator 3
	movl	$1, %eax	#, iftmp.133
	jmp	.L215	#
.L214:
	.loc 1 1692 0 discriminator 2
	movl	$0, %eax	#, iftmp.133
.L215:
	.loc 1 1689 0 is_stmt 1
	movl	%eax, %edx	# iftmp.133, iftmp.131
.L210:
	.loc 1 1693 0
	movq	-112(%rbp), %rax	# arg1, tmp296
	movzbl	18(%rax), %eax	# *arg1_15(D), tmp299
	shrb	$3, %al	#, D.20832
	andl	$1, %eax	#, D.20832
	.loc 1 1689 0
	orl	%eax, %edx	# D.20841, D.20841
	.loc 1 1694 0
	movq	-120(%rbp), %rax	# arg2, tmp300
	movzbl	18(%rax), %eax	# *arg2_29(D), tmp303
	shrb	$3, %al	#, D.20832
	andl	$1, %eax	#, D.20832
	.loc 1 1689 0
	orl	%edx, %eax	# D.20841, D.20841
	andl	$1, %eax	#, D.20832
	movl	%eax, %edx	# D.20832, D.20832
	movq	-8(%rbp), %rax	# t, tmp304
	andl	$1, %edx	#, tmp306
	leal	0(,%rdx,8), %ecx	#, tmp307
	movzbl	18(%rax), %edx	#, tmp308
	andl	$-9, %edx	#, tmp309
	orl	%ecx, %edx	# tmp307, tmp310
	movb	%dl, 18(%rax)	# tmp310,
	.loc 1 1698 0
	cmpl	$0, -84(%rbp)	#, is_sizetype
	je	.L216	#,
	.loc 1 1699 0
	movq	-8(%rbp), %rax	# t, tmp311
	movzbl	18(%rax), %eax	# *t_112, D.20833
	andl	$8, %eax	#, D.20833
	testb	%al, %al	# D.20833
	jne	.L216	#,
	.loc 1 1700 0
	movq	-8(%rbp), %rax	# t, tmp312
	movq	40(%rax), %rdx	# t_112->int_cst.int_cst.high, D.20835
	movq	-72(%rbp), %rax	# hi, hi.135
	cmpq	%rax, %rdx	# hi.135, D.20835
	jne	.L217	#,
	.loc 1 1701 0
	movq	-8(%rbp), %rax	# t, tmp313
	movq	32(%rax), %rdx	# t_112->int_cst.int_cst.low, D.20834
	movq	-80(%rbp), %rax	# low, low.136
	cmpq	%rax, %rdx	# low.136, D.20834
	je	.L216	#,
.L217:
	.loc 1 1702 0
	movq	-8(%rbp), %rax	# t, tmp314
	movzbl	18(%rax), %edx	#, tmp317
	orl	$8, %edx	#, tmp318
	movb	%dl, 18(%rax)	# tmp318,
.L216:
	.loc 1 1704 0
	movq	-8(%rbp), %rax	# t, tmp319
	movzbl	18(%rax), %eax	# *t_112, tmp322
	shrb	$3, %al	#, D.20832
	andl	$1, %eax	#, D.20832
	movl	%eax, %edx	# D.20832, D.20842
	.loc 1 1705 0
	movq	-112(%rbp), %rax	# arg1, tmp323
	movzbl	18(%rax), %eax	# *arg1_15(D), tmp326
	shrb	$2, %al	#, D.20832
	andl	$1, %eax	#, D.20832
	.loc 1 1704 0
	orl	%edx, %eax	# D.20842, D.20842
	movl	%eax, %edx	# D.20842, D.20841
	.loc 1 1706 0
	movq	-120(%rbp), %rax	# arg2, tmp327
	movzbl	18(%rax), %eax	# *arg2_29(D), tmp330
	shrb	$2, %al	#, D.20832
	andl	$1, %eax	#, D.20832
	.loc 1 1704 0
	orl	%edx, %eax	# D.20841, D.20841
	andl	$1, %eax	#, D.20832
	movl	%eax, %edx	# D.20832, D.20832
	movq	-8(%rbp), %rax	# t, tmp331
	andl	$1, %edx	#, tmp333
	leal	0(,%rdx,4), %ecx	#, tmp334
	movzbl	18(%rax), %edx	#, tmp335
	andl	$-5, %edx	#, tmp336
	orl	%ecx, %edx	# tmp334, tmp337
	movb	%dl, 18(%rax)	# tmp337,
	.loc 1 1707 0
	movq	-8(%rbp), %rax	# t, D.20831
.L218:
	.loc 1 1708 0
	leave
	.cfi_def_cfa 7, 8
	ret
	.cfi_endproc
.LFE16:
	.size	int_const_binop, .-int_const_binop
	.type	const_binop_1, @function
const_binop_1:
.LFB17:
	.loc 1 1725 0
	.cfi_startproc
	pushq	%rbp	#
	.cfi_def_cfa_offset 16
	.cfi_offset 6, -16
	movq	%rsp, %rbp	#,
	.cfi_def_cfa_register 6
	subq	$112, %rsp	#,
	movq	%rdi, -88(%rbp)	# data, data
	.loc 1 1726 0
	movq	-88(%rbp), %rax	# data, tmp68
	movq	%rax, -72(%rbp)	# tmp68, args
	.loc 1 1730 0
	movq	-72(%rbp), %rax	# args, tmp69
	leaq	40(%rax), %rcx	#, D.20843
	movq	-72(%rbp), %rax	# args, tmp70
	leaq	16(%rax), %rdx	#, D.20843
	movq	-72(%rbp), %rax	# args, tmp71
	movl	(%rax), %eax	# args_2->code, D.20844
	movl	%eax, %esi	# D.20844, D.20845
	leaq	-64(%rbp), %rax	#, tmp72
	movq	%rax, %rdi	# tmp72,
	call	earith	#
	.loc 1 1770 0
	movq	-72(%rbp), %rax	# args, tmp73
	movq	8(%rax), %rax	# args_2->type, D.20846
	movzbl	61(%rax), %eax	# *_7, tmp76
	shrb	%al	# D.20847
	.loc 1 1769 0
	movzbl	%al, %edx	# D.20847, D.20848
	leaq	-32(%rbp), %rax	#, tmp77
	movq	-64(%rbp), %rcx	# value, tmp78
	movq	%rcx, (%rsp)	# tmp78,
	movq	-56(%rbp), %rcx	# value, tmp79
	movq	%rcx, 8(%rsp)	# tmp79,
	movq	-48(%rbp), %rcx	# value, tmp80
	movq	%rcx, 16(%rsp)	# tmp80,
	movl	%edx, %esi	# D.20848,
	movq	%rax, %rdi	# tmp77,
	call	real_value_truncate	#
	movq	-72(%rbp), %rax	# args, tmp81
	movq	8(%rax), %rax	# args_2->type, D.20846
	movq	-32(%rbp), %rdx	# D.14364, tmp82
	movq	%rdx, (%rsp)	# tmp82,
	movq	-24(%rbp), %rdx	# D.14364, tmp83
	movq	%rdx, 8(%rsp)	# tmp83,
	movq	-16(%rbp), %rdx	# D.14364, tmp84
	movq	%rdx, 16(%rsp)	# tmp84,
	movq	%rax, %rdi	# D.20846,
	call	build_real	#
	movq	-72(%rbp), %rdx	# args, tmp85
	movq	%rax, 64(%rdx)	# D.20846, args_2->t
	.loc 1 1771 0
	leave
	.cfi_def_cfa 7, 8
	ret
	.cfi_endproc
.LFE17:
	.size	const_binop_1, .-const_binop_1
	.type	const_binop, @function
const_binop:
.LFB18:
	.loc 1 1784 0
	.cfi_startproc
	pushq	%rbp	#
	.cfi_def_cfa_offset 16
	.cfi_offset 6, -16
	movq	%rsp, %rbp	#,
	.cfi_def_cfa_register 6
	pushq	%r12	#
	pushq	%rbx	#
	subq	$272, %rsp	#,
	.cfi_offset 12, -24
	.cfi_offset 3, -32
	movl	%edi, -244(%rbp)	# code, code
	movq	%rsi, -256(%rbp)	# arg1, arg1
	movq	%rdx, -264(%rbp)	# arg2, arg2
	movl	%ecx, -248(%rbp)	# notrunc, notrunc
	.loc 1 1785 0
	jmp	.L221	#
.L224:
	.loc 1 1785 0 is_stmt 0 discriminator 1
	movq	-256(%rbp), %rax	# arg1, tmp147
	movq	32(%rax), %rax	# arg1_1->exp.operands, tmp148
	movq	%rax, -256(%rbp)	# tmp148, arg1
.L221:
	movq	-256(%rbp), %rax	# arg1, tmp149
	movzbl	16(%rax), %eax	# arg1_1->common.code, D.20852
	cmpb	$115, %al	#, D.20852
	je	.L222	#,
	.loc 1 1785 0 discriminator 3
	movq	-256(%rbp), %rax	# arg1, tmp150
	movzbl	16(%rax), %eax	# arg1_1->common.code, D.20852
	cmpb	$114, %al	#, D.20852
	je	.L222	#,
	.loc 1 1785 0 discriminator 1
	movq	-256(%rbp), %rax	# arg1, tmp151
	movzbl	16(%rax), %eax	# arg1_1->common.code, D.20852
	cmpb	$116, %al	#, D.20852
	jne	.L223	#,
.L222:
	.loc 1 1785 0 discriminator 2
	movq	-256(%rbp), %rax	# arg1, tmp152
	movq	32(%rax), %rdx	# arg1_1->exp.operands, D.20853
	movq	global_trees(%rip), %rax	# global_trees, D.20853
	cmpq	%rax, %rdx	# D.20853, D.20853
	je	.L223	#,
	.loc 1 1785 0 discriminator 1
	movq	-256(%rbp), %rax	# arg1, tmp153
	movq	8(%rax), %rax	# arg1_1->common.type, D.20853
	movzbl	61(%rax), %eax	# *_16, tmp156
	shrb	%al	# D.20854
	movl	%eax, %edx	# D.20854, D.20854
	movq	-256(%rbp), %rax	# arg1, tmp157
	movq	32(%rax), %rax	# arg1_1->exp.operands, D.20853
	movq	8(%rax), %rax	# _18->common.type, D.20853
	movzbl	61(%rax), %eax	# *_19, tmp160
	shrb	%al	# D.20854
	cmpb	%al, %dl	# D.20854, D.20854
	je	.L224	#,
.L223:
	.loc 1 1786 0 is_stmt 1
	jmp	.L225	#
.L228:
	.loc 1 1786 0 is_stmt 0 discriminator 1
	movq	-264(%rbp), %rax	# arg2, tmp161
	movq	32(%rax), %rax	# arg2_2->exp.operands, tmp162
	movq	%rax, -264(%rbp)	# tmp162, arg2
.L225:
	movq	-264(%rbp), %rax	# arg2, tmp163
	movzbl	16(%rax), %eax	# arg2_2->common.code, D.20852
	cmpb	$115, %al	#, D.20852
	je	.L226	#,
	.loc 1 1786 0 discriminator 3
	movq	-264(%rbp), %rax	# arg2, tmp164
	movzbl	16(%rax), %eax	# arg2_2->common.code, D.20852
	cmpb	$114, %al	#, D.20852
	je	.L226	#,
	.loc 1 1786 0 discriminator 1
	movq	-264(%rbp), %rax	# arg2, tmp165
	movzbl	16(%rax), %eax	# arg2_2->common.code, D.20852
	cmpb	$116, %al	#, D.20852
	jne	.L227	#,
.L226:
	.loc 1 1786 0 discriminator 2
	movq	-264(%rbp), %rax	# arg2, tmp166
	movq	32(%rax), %rdx	# arg2_2->exp.operands, D.20853
	movq	global_trees(%rip), %rax	# global_trees, D.20853
	cmpq	%rax, %rdx	# D.20853, D.20853
	je	.L227	#,
	.loc 1 1786 0 discriminator 1
	movq	-264(%rbp), %rax	# arg2, tmp167
	movq	8(%rax), %rax	# arg2_2->common.type, D.20853
	movzbl	61(%rax), %eax	# *_28, tmp170
	shrb	%al	# D.20854
	movl	%eax, %edx	# D.20854, D.20854
	movq	-264(%rbp), %rax	# arg2, tmp171
	movq	32(%rax), %rax	# arg2_2->exp.operands, D.20853
	movq	8(%rax), %rax	# _30->common.type, D.20853
	movzbl	61(%rax), %eax	# *_31, tmp174
	shrb	%al	# D.20854
	cmpb	%al, %dl	# D.20854, D.20854
	je	.L228	#,
.L227:
	.loc 1 1788 0 is_stmt 1
	movq	-256(%rbp), %rax	# arg1, tmp175
	movzbl	16(%rax), %eax	# arg1_1->common.code, D.20852
	cmpb	$25, %al	#, D.20852
	jne	.L229	#,
	.loc 1 1789 0
	movl	-248(%rbp), %ecx	# notrunc, tmp176
	movq	-264(%rbp), %rdx	# arg2, tmp177
	movq	-256(%rbp), %rsi	# arg1, tmp178
	movl	-244(%rbp), %eax	# code, tmp179
	movl	%eax, %edi	# tmp179,
	call	int_const_binop	#
	jmp	.L230	#
.L229:
	.loc 1 1792 0
	movq	-256(%rbp), %rax	# arg1, tmp180
	movzbl	16(%rax), %eax	# arg1_1->common.code, D.20852
	cmpb	$26, %al	#, D.20852
	jne	.L231	#,
.LBB6:
	.loc 1 1796 0
	movl	$0, -228(%rbp)	#, overflow
	.loc 1 1800 0
	movq	-256(%rbp), %rax	# arg1, tmp181
	movq	32(%rax), %rdx	# arg1_1->real_cst.real_cst, tmp182
	movq	%rdx, -160(%rbp)	# tmp182, d1
	movq	40(%rax), %rdx	# arg1_1->real_cst.real_cst, tmp183
	movq	%rdx, -152(%rbp)	# tmp183, d1
	movq	48(%rax), %rax	# arg1_1->real_cst.real_cst, tmp184
	movq	%rax, -144(%rbp)	# tmp184, d1
	.loc 1 1801 0
	movq	-264(%rbp), %rax	# arg2, tmp185
	movq	32(%rax), %rdx	# arg2_2->real_cst.real_cst, tmp186
	movq	%rdx, -128(%rbp)	# tmp186, d2
	movq	40(%rax), %rdx	# arg2_2->real_cst.real_cst, tmp187
	movq	%rdx, -120(%rbp)	# tmp187, d2
	movq	48(%rax), %rax	# arg2_2->real_cst.real_cst, tmp188
	movq	%rax, -112(%rbp)	# tmp188, d2
	.loc 1 1805 0
	movq	-160(%rbp), %rax	# d1, tmp189
	movq	%rax, (%rsp)	# tmp189,
	movq	-152(%rbp), %rax	# d1, tmp190
	movq	%rax, 8(%rsp)	# tmp190,
	movq	-144(%rbp), %rax	# d1, tmp191
	movq	%rax, 16(%rsp)	# tmp191,
	call	target_isnan	#
	testl	%eax, %eax	# D.20855
	je	.L232	#,
	.loc 1 1806 0
	movq	-256(%rbp), %rax	# arg1, D.20851
	jmp	.L230	#
.L232:
	.loc 1 1807 0
	movq	-128(%rbp), %rax	# d2, tmp192
	movq	%rax, (%rsp)	# tmp192,
	movq	-120(%rbp), %rax	# d2, tmp193
	movq	%rax, 8(%rsp)	# tmp193,
	movq	-112(%rbp), %rax	# d2, tmp194
	movq	%rax, 16(%rsp)	# tmp194,
	call	target_isnan	#
	testl	%eax, %eax	# D.20855
	je	.L234	#,
	.loc 1 1808 0
	movq	-264(%rbp), %rax	# arg2, D.20851
	jmp	.L230	#
.L234:
	.loc 1 1811 0
	movq	-256(%rbp), %rax	# arg1, tmp195
	movq	8(%rax), %rax	# arg1_1->common.type, D.20853
	movq	%rax, -88(%rbp)	# D.20853, args.type
	.loc 1 1812 0
	movq	-160(%rbp), %rax	# d1, tmp196
	movq	%rax, -80(%rbp)	# tmp196, args.d1
	movq	-152(%rbp), %rax	# d1, tmp197
	movq	%rax, -72(%rbp)	# tmp197, args.d1
	movq	-144(%rbp), %rax	# d1, tmp198
	movq	%rax, -64(%rbp)	# tmp198, args.d1
	.loc 1 1813 0
	movq	-128(%rbp), %rax	# d2, tmp199
	movq	%rax, -56(%rbp)	# tmp199, args.d2
	movq	-120(%rbp), %rax	# d2, tmp200
	movq	%rax, -48(%rbp)	# tmp200, args.d2
	movq	-112(%rbp), %rax	# d2, tmp201
	movq	%rax, -40(%rbp)	# tmp201, args.d2
	.loc 1 1814 0
	movl	-244(%rbp), %eax	# code, tmp202
	movl	%eax, -96(%rbp)	# tmp202, args.code
	.loc 1 1816 0
	leaq	-96(%rbp), %rax	#, tmp203
	movq	%rax, %rsi	# tmp203,
	movl	$const_binop_1, %edi	#,
	call	do_float_handler	#
	testl	%eax, %eax	# D.20855
	je	.L235	#,
	.loc 1 1818 0
	movq	-32(%rbp), %rax	# args.t, tmp204
	movq	%rax, -224(%rbp)	# tmp204, t
	jmp	.L236	#
.L235:
	.loc 1 1822 0
	movq	-256(%rbp), %rax	# arg1, tmp205
	movq	%rax, %rdi	# tmp205,
	call	copy_node	#
	movq	%rax, -224(%rbp)	# tmp206, t
	.loc 1 1823 0
	movl	$1, -228(%rbp)	#, overflow
.L236:
	.loc 1 1827 0
	movl	-228(%rbp), %edx	# overflow, tmp207
	movq	-224(%rbp), %rax	# t, tmp208
	movl	%edx, %esi	# tmp207,
	movq	%rax, %rdi	# tmp208,
	call	force_fit_type	#
	movl	%eax, %edx	# D.20855, D.20856
	.loc 1 1828 0
	movq	-256(%rbp), %rax	# arg1, tmp209
	movzbl	18(%rax), %eax	# *arg1_1, tmp212
	shrb	$3, %al	#, D.20857
	andl	$1, %eax	#, D.20857
	.loc 1 1827 0
	orl	%eax, %edx	# D.20856, D.20856
	.loc 1 1828 0
	movq	-264(%rbp), %rax	# arg2, tmp213
	movzbl	18(%rax), %eax	# *arg2_2, tmp216
	shrb	$3, %al	#, D.20857
	andl	$1, %eax	#, D.20857
	.loc 1 1827 0
	orl	%edx, %eax	# D.20856, D.20856
	andl	$1, %eax	#, D.20857
	movl	%eax, %edx	# D.20857, D.20857
	movq	-224(%rbp), %rax	# t, tmp217
	andl	$1, %edx	#, tmp219
	leal	0(,%rdx,8), %ecx	#, tmp220
	movzbl	18(%rax), %edx	#, tmp221
	andl	$-9, %edx	#, tmp222
	orl	%ecx, %edx	# tmp220, tmp223
	movb	%dl, 18(%rax)	# tmp223,
	.loc 1 1830 0
	movq	-224(%rbp), %rax	# t, tmp224
	movzbl	18(%rax), %eax	# *t_4, tmp227
	shrb	$3, %al	#, D.20857
	andl	$1, %eax	#, D.20857
	movl	%eax, %edx	# D.20857, D.20858
	.loc 1 1831 0
	movq	-256(%rbp), %rax	# arg1, tmp228
	movzbl	18(%rax), %eax	# *arg1_1, tmp231
	shrb	$2, %al	#, D.20857
	andl	$1, %eax	#, D.20857
	.loc 1 1830 0
	orl	%edx, %eax	# D.20858, D.20858
	movl	%eax, %edx	# D.20858, D.20856
	.loc 1 1832 0
	movq	-264(%rbp), %rax	# arg2, tmp232
	movzbl	18(%rax), %eax	# *arg2_2, tmp235
	shrb	$2, %al	#, D.20857
	andl	$1, %eax	#, D.20857
	.loc 1 1830 0
	orl	%edx, %eax	# D.20856, D.20856
	andl	$1, %eax	#, D.20857
	movl	%eax, %edx	# D.20857, D.20857
	movq	-224(%rbp), %rax	# t, tmp236
	andl	$1, %edx	#, tmp238
	leal	0(,%rdx,4), %ecx	#, tmp239
	movzbl	18(%rax), %edx	#, tmp240
	andl	$-5, %edx	#, tmp241
	orl	%ecx, %edx	# tmp239, tmp242
	movb	%dl, 18(%rax)	# tmp242,
	.loc 1 1833 0
	movq	-224(%rbp), %rax	# t, D.20851
	jmp	.L230	#
.L231:
.LBE6:
	.loc 1 1836 0
	movq	-256(%rbp), %rax	# arg1, tmp243
	movzbl	16(%rax), %eax	# arg1_1->common.code, D.20852
	cmpb	$27, %al	#, D.20852
	jne	.L237	#,
.LBB7:
	.loc 1 1838 0
	movq	-256(%rbp), %rax	# arg1, tmp244
	movq	8(%rax), %rax	# arg1_1->common.type, tmp245
	movq	%rax, -208(%rbp)	# tmp245, type
	.loc 1 1839 0
	movq	-256(%rbp), %rax	# arg1, tmp246
	movq	32(%rax), %rax	# arg1_1->complex.real, tmp247
	movq	%rax, -200(%rbp)	# tmp247, r1
	.loc 1 1840 0
	movq	-256(%rbp), %rax	# arg1, tmp248
	movq	40(%rax), %rax	# arg1_1->complex.imag, tmp249
	movq	%rax, -192(%rbp)	# tmp249, i1
	.loc 1 1841 0
	movq	-264(%rbp), %rax	# arg2, tmp250
	movq	32(%rax), %rax	# arg2_2->complex.real, tmp251
	movq	%rax, -184(%rbp)	# tmp251, r2
	.loc 1 1842 0
	movq	-264(%rbp), %rax	# arg2, tmp252
	movq	40(%rax), %rax	# arg2_2->complex.imag, tmp253
	movq	%rax, -176(%rbp)	# tmp253, i2
	.loc 1 1845 0
	movl	-244(%rbp), %eax	# code, code
	cmpl	$60, %eax	#, code
	je	.L239	#,
	cmpl	$60, %eax	#, code
	ja	.L240	#,
	cmpl	$59, %eax	#, code
	je	.L241	#,
	jmp	.L238	#
.L240:
	cmpl	$61, %eax	#, code
	je	.L242	#,
	cmpl	$70, %eax	#, code
	je	.L243	#,
	jmp	.L238	#
.L241:
	.loc 1 1848 0
	movl	-248(%rbp), %ecx	# notrunc, tmp255
	movq	-176(%rbp), %rdx	# i2, tmp256
	movq	-192(%rbp), %rax	# i1, tmp257
	movq	%rax, %rsi	# tmp257,
	movl	$59, %edi	#,
	call	const_binop	#
	movq	%rax, %rbx	#, D.20853
	movl	-248(%rbp), %ecx	# notrunc, tmp258
	movq	-184(%rbp), %rdx	# r2, tmp259
	movq	-200(%rbp), %rax	# r1, tmp260
	movq	%rax, %rsi	# tmp260,
	movl	$59, %edi	#,
	call	const_binop	#
	movq	%rax, %rcx	#, D.20853
	movq	-208(%rbp), %rax	# type, tmp261
	movq	%rbx, %rdx	# D.20853,
	movq	%rcx, %rsi	# D.20853,
	movq	%rax, %rdi	# tmp261,
	call	build_complex	#
	movq	%rax, -216(%rbp)	# tmp262, t
	.loc 1 1851 0
	jmp	.L244	#
.L239:
	.loc 1 1854 0
	movl	-248(%rbp), %ecx	# notrunc, tmp263
	movq	-176(%rbp), %rdx	# i2, tmp264
	movq	-192(%rbp), %rax	# i1, tmp265
	movq	%rax, %rsi	# tmp265,
	movl	$60, %edi	#,
	call	const_binop	#
	movq	%rax, %rbx	#, D.20853
	movl	-248(%rbp), %ecx	# notrunc, tmp266
	movq	-184(%rbp), %rdx	# r2, tmp267
	movq	-200(%rbp), %rax	# r1, tmp268
	movq	%rax, %rsi	# tmp268,
	movl	$60, %edi	#,
	call	const_binop	#
	movq	%rax, %rcx	#, D.20853
	movq	-208(%rbp), %rax	# type, tmp269
	movq	%rbx, %rdx	# D.20853,
	movq	%rcx, %rsi	# D.20853,
	movq	%rax, %rdi	# tmp269,
	call	build_complex	#
	movq	%rax, -216(%rbp)	# tmp270, t
	.loc 1 1857 0
	jmp	.L244	#
.L242:
	.loc 1 1860 0
	movl	-248(%rbp), %ecx	# notrunc, tmp271
	movq	-184(%rbp), %rdx	# r2, tmp272
	movq	-192(%rbp), %rax	# i1, tmp273
	movq	%rax, %rsi	# tmp273,
	movl	$61, %edi	#,
	call	const_binop	#
	movq	%rax, %rbx	#, D.20853
	movl	-248(%rbp), %ecx	# notrunc, tmp274
	movq	-176(%rbp), %rdx	# i2, tmp275
	movq	-200(%rbp), %rax	# r1, tmp276
	movq	%rax, %rsi	# tmp276,
	movl	$61, %edi	#,
	call	const_binop	#
	movl	-248(%rbp), %edx	# notrunc, tmp277
	movl	%edx, %ecx	# tmp277,
	movq	%rbx, %rdx	# D.20853,
	movq	%rax, %rsi	# D.20853,
	movl	$59, %edi	#,
	call	const_binop	#
	movq	%rax, %rbx	#, D.20853
	movl	-248(%rbp), %ecx	# notrunc, tmp278
	movq	-176(%rbp), %rdx	# i2, tmp279
	movq	-192(%rbp), %rax	# i1, tmp280
	movq	%rax, %rsi	# tmp280,
	movl	$61, %edi	#,
	call	const_binop	#
	movq	%rax, %r12	#, D.20853
	movl	-248(%rbp), %ecx	# notrunc, tmp281
	movq	-184(%rbp), %rdx	# r2, tmp282
	movq	-200(%rbp), %rax	# r1, tmp283
	movq	%rax, %rsi	# tmp283,
	movl	$61, %edi	#,
	call	const_binop	#
	movl	-248(%rbp), %edx	# notrunc, tmp284
	movl	%edx, %ecx	# tmp284,
	movq	%r12, %rdx	# D.20853,
	movq	%rax, %rsi	# D.20853,
	movl	$60, %edi	#,
	call	const_binop	#
	movq	%rax, %rcx	#, D.20853
	movq	-208(%rbp), %rax	# type, tmp285
	movq	%rbx, %rdx	# D.20853,
	movq	%rcx, %rsi	# D.20853,
	movq	%rax, %rdi	# tmp285,
	call	build_complex	#
	movq	%rax, -216(%rbp)	# tmp286, t
	.loc 1 1873 0
	jmp	.L244	#
.L243:
.LBB8:
	.loc 1 1878 0
	movl	-248(%rbp), %ecx	# notrunc, tmp287
	movq	-176(%rbp), %rdx	# i2, tmp288
	movq	-176(%rbp), %rax	# i2, tmp289
	movq	%rax, %rsi	# tmp289,
	movl	$61, %edi	#,
	call	const_binop	#
	movq	%rax, %rbx	#, D.20853
	movl	-248(%rbp), %ecx	# notrunc, tmp290
	movq	-184(%rbp), %rdx	# r2, tmp291
	movq	-184(%rbp), %rax	# r2, tmp292
	movq	%rax, %rsi	# tmp292,
	movl	$61, %edi	#,
	call	const_binop	#
	.loc 1 1877 0
	movl	-248(%rbp), %edx	# notrunc, tmp293
	movl	%edx, %ecx	# tmp293,
	movq	%rbx, %rdx	# D.20853,
	movq	%rax, %rsi	# D.20853,
	movl	$59, %edi	#,
	call	const_binop	#
	movq	%rax, -168(%rbp)	# tmp294, magsquared
	.loc 1 1883 0
	movl	-248(%rbp), %ecx	# notrunc, tmp295
	movq	-176(%rbp), %rdx	# i2, tmp296
	movq	-200(%rbp), %rax	# r1, tmp297
	movq	%rax, %rsi	# tmp297,
	movl	$61, %edi	#,
	call	const_binop	#
	movq	%rax, %rbx	#, D.20853
	movl	-248(%rbp), %ecx	# notrunc, tmp298
	movq	-184(%rbp), %rdx	# r2, tmp299
	movq	-192(%rbp), %rax	# i1, tmp300
	movq	%rax, %rsi	# tmp300,
	movl	$61, %edi	#,
	call	const_binop	#
	movl	-248(%rbp), %edx	# notrunc, tmp301
	movl	%edx, %ecx	# tmp301,
	movq	%rbx, %rdx	# D.20853,
	movq	%rax, %rsi	# D.20853,
	movl	$60, %edi	#,
	call	const_binop	#
	movq	%rax, %rsi	#, D.20853
	.loc 1 1895 0
	movq	-200(%rbp), %rax	# r1, tmp302
	movq	8(%rax), %rax	# r1_73->common.type, D.20853
	movzbl	16(%rax), %eax	# _96->common.code, D.20852
	.loc 1 1883 0
	cmpb	$6, %al	#, D.20852
	je	.L245	#,
	.loc 1 1895 0
	movq	-200(%rbp), %rax	# r1, tmp303
	movq	8(%rax), %rax	# r1_73->common.type, D.20853
	movzbl	16(%rax), %eax	# _98->common.code, D.20852
	cmpb	$10, %al	#, D.20852
	je	.L245	#,
	.loc 1 1895 0 is_stmt 0 discriminator 1
	movq	-200(%rbp), %rax	# r1, tmp304
	movq	8(%rax), %rax	# r1_73->common.type, D.20853
	movzbl	16(%rax), %eax	# _100->common.code, D.20852
	cmpb	$11, %al	#, D.20852
	je	.L245	#,
	movq	-200(%rbp), %rax	# r1, tmp305
	movq	8(%rax), %rax	# r1_73->common.type, D.20853
	movzbl	16(%rax), %eax	# _102->common.code, D.20852
	cmpb	$12, %al	#, D.20852
	jne	.L246	#,
.L245:
	.loc 1 1883 0 is_stmt 1 discriminator 1
	movl	$62, %eax	#, iftmp.137
	jmp	.L247	#
.L246:
	.loc 1 1883 0 is_stmt 0
	movl	$70, %eax	#, iftmp.137
.L247:
	.loc 1 1883 0 discriminator 2
	movl	-248(%rbp), %ecx	# notrunc, tmp306
	movq	-168(%rbp), %rdx	# magsquared, tmp307
	movl	%eax, %edi	# iftmp.137,
	call	const_binop	#
	movq	%rax, %rbx	#, D.20853
	movl	-248(%rbp), %ecx	# notrunc, tmp308
	movq	-176(%rbp), %rdx	# i2, tmp309
	movq	-192(%rbp), %rax	# i1, tmp310
	movq	%rax, %rsi	# tmp310,
	movl	$61, %edi	#,
	call	const_binop	#
	movq	%rax, %r12	#, D.20853
	movl	-248(%rbp), %ecx	# notrunc, tmp311
	movq	-184(%rbp), %rdx	# r2, tmp312
	movq	-200(%rbp), %rax	# r1, tmp313
	movq	%rax, %rsi	# tmp313,
	movl	$61, %edi	#,
	call	const_binop	#
	movl	-248(%rbp), %edx	# notrunc, tmp314
	movl	%edx, %ecx	# tmp314,
	movq	%r12, %rdx	# D.20853,
	movq	%rax, %rsi	# D.20853,
	movl	$59, %edi	#,
	call	const_binop	#
	movq	%rax, %rsi	#, D.20853
	.loc 1 1885 0 is_stmt 1 discriminator 2
	movq	-200(%rbp), %rax	# r1, tmp315
	movq	8(%rax), %rax	# r1_73->common.type, D.20853
	movzbl	16(%rax), %eax	# _110->common.code, D.20852
	.loc 1 1883 0 discriminator 2
	cmpb	$6, %al	#, D.20852
	je	.L248	#,
	.loc 1 1885 0
	movq	-200(%rbp), %rax	# r1, tmp316
	movq	8(%rax), %rax	# r1_73->common.type, D.20853
	movzbl	16(%rax), %eax	# _112->common.code, D.20852
	cmpb	$10, %al	#, D.20852
	je	.L248	#,
	.loc 1 1885 0 is_stmt 0 discriminator 1
	movq	-200(%rbp), %rax	# r1, tmp317
	movq	8(%rax), %rax	# r1_73->common.type, D.20853
	movzbl	16(%rax), %eax	# _114->common.code, D.20852
	cmpb	$11, %al	#, D.20852
	je	.L248	#,
	movq	-200(%rbp), %rax	# r1, tmp318
	movq	8(%rax), %rax	# r1_73->common.type, D.20853
	movzbl	16(%rax), %eax	# _116->common.code, D.20852
	cmpb	$12, %al	#, D.20852
	jne	.L249	#,
.L248:
	.loc 1 1883 0 is_stmt 1 discriminator 3
	movl	$62, %eax	#, iftmp.138
	jmp	.L250	#
.L249:
	.loc 1 1883 0 is_stmt 0
	movl	$70, %eax	#, iftmp.138
.L250:
	.loc 1 1883 0 discriminator 4
	movl	-248(%rbp), %ecx	# notrunc, tmp319
	movq	-168(%rbp), %rdx	# magsquared, tmp320
	movl	%eax, %edi	# iftmp.138,
	call	const_binop	#
	movq	%rax, %rcx	#, D.20853
	movq	-208(%rbp), %rax	# type, tmp321
	movq	%rbx, %rdx	# D.20853,
	movq	%rcx, %rsi	# D.20853,
	movq	%rax, %rdi	# tmp321,
	call	build_complex	#
	movq	%rax, -216(%rbp)	# tmp322, t
.LBE8:
	.loc 1 1905 0 is_stmt 1 discriminator 4
	jmp	.L244	#
.L238:
	.loc 1 1908 0
	movl	$__FUNCTION__.12439, %edx	#,
	movl	$1908, %esi	#,
	movl	$.LC0, %edi	#,
	call	fancy_abort	#
.L244:
	.loc 1 1910 0
	movq	-216(%rbp), %rax	# t, D.20851
	jmp	.L230	#
.L237:
.LBE7:
	.loc 1 1912 0
	movl	$0, %eax	#, D.20851
.L230:
	.loc 1 1913 0
	addq	$272, %rsp	#,
	popq	%rbx	#
	popq	%r12	#
	popq	%rbp	#
	.cfi_def_cfa 7, 8
	ret
	.cfi_endproc
.LFE18:
	.size	const_binop, .-const_binop
	.type	size_htab_hash, @function
size_htab_hash:
.LFB19:
	.loc 1 1923 0
	.cfi_startproc
	pushq	%rbp	#
	.cfi_def_cfa_offset 16
	.cfi_offset 6, -16
	movq	%rsp, %rbp	#,
	.cfi_def_cfa_register 6
	movq	%rdi, -24(%rbp)	# x, x
	.loc 1 1924 0
	movq	-24(%rbp), %rax	# x, tmp75
	movq	%rax, -8(%rbp)	# tmp75, t
	.loc 1 1926 0
	movq	-8(%rbp), %rax	# t, tmp76
	movq	40(%rax), %rax	# t_2->int_cst.int_cst.high, D.20860
	movl	%eax, %edx	# D.20860, D.20861
	movq	-8(%rbp), %rax	# t, tmp77
	movq	32(%rax), %rax	# t_2->int_cst.int_cst.low, D.20862
	xorl	%eax, %edx	# D.20861, D.20861
	.loc 1 1927 0
	movq	-8(%rbp), %rax	# t, tmp78
	movq	8(%rax), %rax	# t_2->common.type, D.20863
	sarq	$3, %rax	#, D.20860
	.loc 1 1926 0
	xorl	%eax, %edx	# D.20861, D.20861
	.loc 1 1928 0
	movq	-8(%rbp), %rax	# t, tmp79
	movzbl	18(%rax), %eax	# *t_2, tmp82
	shrb	$3, %al	#, D.20864
	andl	$1, %eax	#, D.20864
	movzbl	%al, %eax	# D.20864, D.20865
	sall	$20, %eax	#, D.20865
	.loc 1 1926 0
	xorl	%edx, %eax	# D.20861, D.20866
	.loc 1 1929 0
	popq	%rbp	#
	.cfi_def_cfa 7, 8
	ret
	.cfi_endproc
.LFE19:
	.size	size_htab_hash, .-size_htab_hash
	.type	size_htab_eq, @function
size_htab_eq:
.LFB20:
	.loc 1 1938 0
	.cfi_startproc
	pushq	%rbp	#
	.cfi_def_cfa_offset 16
	.cfi_offset 6, -16
	movq	%rsp, %rbp	#,
	.cfi_def_cfa_register 6
	movq	%rdi, -24(%rbp)	# x, x
	movq	%rsi, -32(%rbp)	# y, y
	.loc 1 1939 0
	movq	-24(%rbp), %rax	# x, tmp70
	movq	%rax, -16(%rbp)	# tmp70, xt
	.loc 1 1940 0
	movq	-32(%rbp), %rax	# y, tmp71
	movq	%rax, -8(%rbp)	# tmp71, yt
	.loc 1 1942 0
	movq	-16(%rbp), %rax	# xt, tmp72
	movq	40(%rax), %rdx	# xt_3->int_cst.int_cst.high, D.20867
	movq	-8(%rbp), %rax	# yt, tmp73
	movq	40(%rax), %rax	# yt_5->int_cst.int_cst.high, D.20867
	.loc 1 1945 0
	cmpq	%rax, %rdx	# D.20867, D.20867
	jne	.L254	#,
	.loc 1 1943 0
	movq	-16(%rbp), %rax	# xt, tmp74
	movq	32(%rax), %rdx	# xt_3->int_cst.int_cst.low, D.20868
	movq	-8(%rbp), %rax	# yt, tmp75
	movq	32(%rax), %rax	# yt_5->int_cst.int_cst.low, D.20868
	cmpq	%rax, %rdx	# D.20868, D.20868
	jne	.L254	#,
	.loc 1 1944 0
	movq	-16(%rbp), %rax	# xt, tmp76
	movq	8(%rax), %rdx	# xt_3->common.type, D.20869
	movq	-8(%rbp), %rax	# yt, tmp77
	movq	8(%rax), %rax	# yt_5->common.type, D.20869
	cmpq	%rax, %rdx	# D.20869, D.20869
	jne	.L254	#,
	.loc 1 1945 0
	movq	-16(%rbp), %rax	# xt, tmp78
	movzbl	18(%rax), %eax	# *xt_3, tmp81
	shrb	$3, %al	#, D.20870
	movl	%eax, %edx	# D.20870, D.20870
	andl	$1, %edx	#, D.20870
	movq	-8(%rbp), %rax	# yt, tmp82
	movzbl	18(%rax), %eax	# *yt_5, tmp85
	shrb	$3, %al	#, D.20870
	andl	$1, %eax	#, D.20870
	cmpb	%al, %dl	# D.20870, D.20870
	jne	.L254	#,
	.loc 1 1945 0 is_stmt 0 discriminator 2
	movl	$1, %eax	#, iftmp.139
	jmp	.L255	#
.L254:
	.loc 1 1945 0 discriminator 1
	movl	$0, %eax	#, iftmp.139
.L255:
	.loc 1 1946 0 is_stmt 1
	popq	%rbp	#
	.cfi_def_cfa 7, 8
	ret
	.cfi_endproc
.LFE20:
	.size	size_htab_eq, .-size_htab_eq
	.globl	size_int_wide
	.type	size_int_wide, @function
size_int_wide:
.LFB21:
	.loc 1 1955 0
	.cfi_startproc
	pushq	%rbp	#
	.cfi_def_cfa_offset 16
	.cfi_offset 6, -16
	movq	%rsp, %rbp	#,
	.cfi_def_cfa_register 6
	subq	$16, %rsp	#,
	movq	%rdi, -8(%rbp)	# number, number
	movl	%esi, -12(%rbp)	# kind, kind
	.loc 1 1956 0
	movl	-12(%rbp), %eax	# kind, kind.140
	cltq
	movq	sizetype_tab(,%rax,8), %rdx	# sizetype_tab, D.20872
	movq	-8(%rbp), %rax	# number, tmp64
	movq	%rdx, %rsi	# D.20872,
	movq	%rax, %rdi	# tmp64,
	call	size_int_type_wide	#
	.loc 1 1957 0
	leave
	.cfi_def_cfa 7, 8
	ret
	.cfi_endproc
.LFE21:
	.size	size_int_wide, .-size_int_wide
	.globl	size_int_type_wide
	.type	size_int_type_wide, @function
size_int_type_wide:
.LFB22:
	.loc 1 1965 0
	.cfi_startproc
	pushq	%rbp	#
	.cfi_def_cfa_offset 16
	.cfi_offset 6, -16
	movq	%rsp, %rbp	#,
	.cfi_def_cfa_register 6
	pushq	%r12	#
	pushq	%rbx	#
	subq	$32, %rsp	#,
	.cfi_offset 12, -24
	.cfi_offset 3, -32
	movq	%rdi, -40(%rbp)	# number, number
	movq	%rsi, -48(%rbp)	# type, type
	.loc 1 1970 0
	movq	size_htab.12458(%rip), %rax	# size_htab, size_htab.141
	testq	%rax, %rax	# size_htab.141
	jne	.L260	#,
	.loc 1 1972 0
	movl	$0, %ecx	#,
	movl	$size_htab_eq, %edx	#,
	movl	$size_htab_hash, %esi	#,
	movl	$1024, %edi	#,
	call	htab_create	#
	movq	%rax, size_htab.12458(%rip)	# size_htab.142, size_htab
	.loc 1 1973 0
	movq	size_htab.12458(%rip), %rax	# size_htab, size_htab.143
	movl	$0, %edx	#,
	movl	$0, %esi	#,
	movq	%rax, %rdi	# size_htab.143,
	call	ggc_add_deletable_htab	#
	.loc 1 1974 0
	movl	$25, %edi	#,
	call	make_node	#
	movq	%rax, new_const.12459(%rip)	# new_const.144, new_const
	.loc 1 1975 0
	movl	$1, %esi	#,
	movl	$new_const.12459, %edi	#,
	call	ggc_add_tree_root	#
.L260:
	.loc 1 1981 0
	movq	new_const.12459(%rip), %rax	# new_const, new_const.145
	movq	-40(%rbp), %rdx	# number, number.146
	movq	%rdx, 32(%rax)	# number.146, new_const.145_7->int_cst.int_cst.low
	.loc 1 1982 0
	movq	new_const.12459(%rip), %rdx	# new_const, new_const.147
	cmpq	$0, -40(%rbp)	#, number
	jns	.L261	#,
	.loc 1 1982 0 is_stmt 0 discriminator 1
	movq	$-1, %rax	#, iftmp.148
	jmp	.L262	#
.L261:
	.loc 1 1982 0 discriminator 2
	movl	$0, %eax	#, iftmp.148
.L262:
	.loc 1 1982 0 discriminator 3
	movq	%rax, 40(%rdx)	# iftmp.148, new_const.147_10->int_cst.int_cst.high
	.loc 1 1983 0 is_stmt 1 discriminator 3
	movq	new_const.12459(%rip), %rax	# new_const, new_const.149
	movq	-48(%rbp), %rdx	# type, tmp82
	movq	%rdx, 8(%rax)	# tmp82, new_const.149_13->common.type
	.loc 1 1984 0 discriminator 3
	movq	new_const.12459(%rip), %r12	# new_const, new_const.150
	movq	new_const.12459(%rip), %rbx	# new_const, new_const.151
	.loc 1 1985 0 discriminator 3
	movq	new_const.12459(%rip), %rax	# new_const, new_const.152
	movl	$0, %esi	#,
	movq	%rax, %rdi	# new_const.152,
	call	force_fit_type	#
	andl	$1, %eax	#, D.20877
	andl	$1, %eax	#, tmp84
	leal	0(,%rax,4), %edx	#, tmp85
	movzbl	18(%rbx), %eax	#, tmp86
	andl	$-5, %eax	#, tmp87
	orl	%edx, %eax	# tmp85, tmp88
	movb	%al, 18(%rbx)	# tmp88,
	.loc 1 1984 0 discriminator 3
	movzbl	18(%rbx), %eax	# *new_const.151_16, tmp91
	shrb	$2, %al	#, D.20877
	andl	$1, %eax	#, D.20877
	andl	$1, %eax	#, tmp93
	leal	0(,%rax,8), %edx	#, tmp94
	movzbl	18(%r12), %eax	#, tmp95
	andl	$-9, %eax	#, tmp96
	orl	%edx, %eax	# tmp94, tmp97
	movb	%al, 18(%r12)	# tmp97,
	.loc 1 1987 0 discriminator 3
	movq	new_const.12459(%rip), %rcx	# new_const, new_const.153
	movq	size_htab.12458(%rip), %rax	# size_htab, size_htab.154
	movl	$1, %edx	#,
	movq	%rcx, %rsi	# new_const.153,
	movq	%rax, %rdi	# size_htab.154,
	call	htab_find_slot	#
	movq	%rax, -32(%rbp)	# tmp98, slot
	.loc 1 1988 0 discriminator 3
	movq	-32(%rbp), %rax	# slot, tmp99
	movq	(%rax), %rax	# *slot_24, D.20878
	testq	%rax, %rax	# D.20878
	jne	.L263	#,
.LBB9:
	.loc 1 1990 0
	movq	new_const.12459(%rip), %rax	# new_const, tmp100
	movq	%rax, -24(%rbp)	# tmp100, t
	.loc 1 1992 0
	movq	new_const.12459(%rip), %rdx	# new_const, new_const.155
	movq	-32(%rbp), %rax	# slot, tmp101
	movq	%rdx, (%rax)	# new_const.155, *slot_24
	.loc 1 1993 0
	movl	$25, %edi	#,
	call	make_node	#
	movq	%rax, new_const.12459(%rip)	# new_const.156, new_const
	.loc 1 1994 0
	movq	-24(%rbp), %rax	# t, D.20874
	jmp	.L264	#
.L263:
.LBE9:
	.loc 1 1997 0
	movq	-32(%rbp), %rax	# slot, tmp102
	movq	(%rax), %rax	# *slot_24, D.20874
.L264:
	.loc 1 1998 0
	addq	$32, %rsp	#,
	popq	%rbx	#
	popq	%r12	#
	popq	%rbp	#
	.cfi_def_cfa 7, 8
	ret
	.cfi_endproc
.LFE22:
	.size	size_int_type_wide, .-size_int_type_wide
	.globl	size_binop
	.type	size_binop, @function
size_binop:
.LFB23:
	.loc 1 2009 0
	.cfi_startproc
	pushq	%rbp	#
	.cfi_def_cfa_offset 16
	.cfi_offset 6, -16
	movq	%rsp, %rbp	#,
	.cfi_def_cfa_register 6
	subq	$48, %rsp	#,
	movl	%edi, -20(%rbp)	# code, code
	movq	%rsi, -32(%rbp)	# arg0, arg0
	movq	%rdx, -40(%rbp)	# arg1, arg1
	.loc 1 2010 0
	movq	-32(%rbp), %rax	# arg0, tmp73
	movq	8(%rax), %rax	# arg0_2(D)->common.type, tmp74
	movq	%rax, -8(%rbp)	# tmp74, type
	.loc 1 2012 0
	movq	-8(%rbp), %rax	# type, tmp75
	movzbl	16(%rax), %eax	# type_3->common.code, D.20880
	cmpb	$6, %al	#, D.20880
	jne	.L266	#,
	.loc 1 2012 0 is_stmt 0 discriminator 1
	movq	-8(%rbp), %rax	# type, tmp76
	movzbl	62(%rax), %eax	# *type_3, D.20880
	andl	$2, %eax	#, D.20880
	testb	%al, %al	# D.20880
	je	.L266	#,
	.loc 1 2013 0 is_stmt 1
	movq	-40(%rbp), %rax	# arg1, tmp77
	movq	8(%rax), %rax	# arg1_7(D)->common.type, D.20881
	cmpq	-8(%rbp), %rax	# type, D.20881
	je	.L267	#,
.L266:
	.loc 1 2014 0
	movl	$__FUNCTION__.12468, %edx	#,
	movl	$2014, %esi	#,
	movl	$.LC0, %edi	#,
	call	fancy_abort	#
.L267:
	.loc 1 2017 0
	movq	-32(%rbp), %rax	# arg0, tmp78
	movzbl	16(%rax), %eax	# arg0_2(D)->common.code, D.20880
	cmpb	$25, %al	#, D.20880
	jne	.L268	#,
	.loc 1 2017 0 is_stmt 0 discriminator 1
	movq	-40(%rbp), %rax	# arg1, tmp79
	movzbl	16(%rax), %eax	# arg1_7(D)->common.code, D.20880
	cmpb	$25, %al	#, D.20880
	jne	.L268	#,
	.loc 1 2020 0 is_stmt 1
	cmpl	$59, -20(%rbp)	#, code
	jne	.L269	#,
	.loc 1 2020 0 is_stmt 0 discriminator 1
	movq	-32(%rbp), %rax	# arg0, tmp80
	movq	%rax, %rdi	# tmp80,
	call	integer_zerop	#
	testl	%eax, %eax	# D.20882
	je	.L269	#,
	.loc 1 2021 0 is_stmt 1
	movq	-40(%rbp), %rax	# arg1, D.20879
	jmp	.L270	#
.L269:
	.loc 1 2022 0
	cmpl	$60, -20(%rbp)	#, code
	je	.L271	#,
	.loc 1 2022 0 is_stmt 0 discriminator 1
	cmpl	$59, -20(%rbp)	#, code
	jne	.L272	#,
.L271:
	.loc 1 2023 0 is_stmt 1
	movq	-40(%rbp), %rax	# arg1, tmp81
	movq	%rax, %rdi	# tmp81,
	call	integer_zerop	#
	testl	%eax, %eax	# D.20882
	je	.L272	#,
	.loc 1 2024 0
	movq	-32(%rbp), %rax	# arg0, D.20879
	jmp	.L270	#
.L272:
	.loc 1 2025 0
	cmpl	$61, -20(%rbp)	#, code
	jne	.L273	#,
	.loc 1 2025 0 is_stmt 0 discriminator 1
	movq	-32(%rbp), %rax	# arg0, tmp82
	movq	%rax, %rdi	# tmp82,
	call	integer_onep	#
	testl	%eax, %eax	# D.20882
	je	.L273	#,
	.loc 1 2026 0 is_stmt 1
	movq	-40(%rbp), %rax	# arg1, D.20879
	jmp	.L270	#
.L273:
	.loc 1 2029 0
	movq	-40(%rbp), %rdx	# arg1, tmp83
	movq	-32(%rbp), %rsi	# arg0, tmp84
	movl	-20(%rbp), %eax	# code, tmp85
	movl	$0, %ecx	#,
	movl	%eax, %edi	# tmp85,
	call	int_const_binop	#
	jmp	.L270	#
.L268:
	.loc 1 2032 0
	movq	global_trees(%rip), %rax	# global_trees, D.20881
	cmpq	-32(%rbp), %rax	# arg0, D.20881
	je	.L274	#,
	.loc 1 2032 0 is_stmt 0 discriminator 1
	movq	global_trees(%rip), %rax	# global_trees, D.20881
	cmpq	-40(%rbp), %rax	# arg1, D.20881
	jne	.L275	#,
.L274:
	.loc 1 2033 0 is_stmt 1
	movq	global_trees(%rip), %rax	# global_trees, D.20879
	jmp	.L270	#
.L275:
	.loc 1 2035 0
	movq	-40(%rbp), %rcx	# arg1, tmp86
	movq	-32(%rbp), %rdx	# arg0, tmp87
	movq	-8(%rbp), %rsi	# type, tmp88
	movl	-20(%rbp), %eax	# code, tmp89
	movl	%eax, %edi	# tmp89,
	movl	$0, %eax	#,
	call	build	#
	movq	%rax, %rdi	# D.20881,
	call	fold	#
.L270:
	.loc 1 2036 0
	leave
	.cfi_def_cfa 7, 8
	ret
	.cfi_endproc
.LFE23:
	.size	size_binop, .-size_binop
	.globl	size_diffop
	.type	size_diffop, @function
size_diffop:
.LFB24:
	.loc 1 2045 0
	.cfi_startproc
	pushq	%rbp	#
	.cfi_def_cfa_offset 16
	.cfi_offset 6, -16
	movq	%rsp, %rbp	#,
	.cfi_def_cfa_register 6
	pushq	%rbx	#
	subq	$40, %rsp	#,
	.cfi_offset 3, -24
	movq	%rdi, -40(%rbp)	# arg0, arg0
	movq	%rsi, -48(%rbp)	# arg1, arg1
	.loc 1 2046 0
	movq	-40(%rbp), %rax	# arg0, tmp82
	movq	8(%rax), %rax	# arg0_3(D)->common.type, tmp83
	movq	%rax, -32(%rbp)	# tmp83, type
	.loc 1 2049 0
	movq	-32(%rbp), %rax	# type, tmp84
	movzbl	16(%rax), %eax	# type_4->common.code, D.20884
	cmpb	$6, %al	#, D.20884
	jne	.L277	#,
	.loc 1 2049 0 is_stmt 0 discriminator 1
	movq	-32(%rbp), %rax	# type, tmp85
	movzbl	62(%rax), %eax	# *type_4, D.20884
	andl	$2, %eax	#, D.20884
	testb	%al, %al	# D.20884
	je	.L277	#,
	.loc 1 2050 0 is_stmt 1
	movq	-48(%rbp), %rax	# arg1, tmp86
	movq	8(%rax), %rax	# arg1_8(D)->common.type, D.20885
	cmpq	-32(%rbp), %rax	# type, D.20885
	je	.L278	#,
.L277:
	.loc 1 2051 0
	movl	$__FUNCTION__.12475, %edx	#,
	movl	$2051, %esi	#,
	movl	$.LC0, %edi	#,
	call	fancy_abort	#
.L278:
	.loc 1 2054 0
	movq	-32(%rbp), %rax	# type, tmp87
	movzbl	17(%rax), %eax	# *type_4, D.20884
	andl	$32, %eax	#, D.20884
	testb	%al, %al	# D.20884
	jne	.L279	#,
	.loc 1 2055 0
	movq	-48(%rbp), %rdx	# arg1, tmp88
	movq	-40(%rbp), %rax	# arg0, tmp89
	movq	%rax, %rsi	# tmp89,
	movl	$60, %edi	#,
	call	size_binop	#
	jmp	.L280	#
.L279:
	.loc 1 2057 0
	movq	sizetype_tab+24(%rip), %rax	# sizetype_tab, D.20885
	.loc 1 2058 0
	cmpq	-32(%rbp), %rax	# type, D.20885
	je	.L281	#,
	.loc 1 2057 0
	movq	sizetype_tab+40(%rip), %rax	# sizetype_tab, D.20885
	cmpq	-32(%rbp), %rax	# type, D.20885
	jne	.L282	#,
.L281:
	.loc 1 2058 0 discriminator 1
	movq	sizetype_tab+32(%rip), %rax	# sizetype_tab, iftmp.157
	jmp	.L283	#
.L282:
	.loc 1 2058 0 is_stmt 0
	movq	sizetype_tab+8(%rip), %rax	# sizetype_tab, iftmp.157
.L283:
	.loc 1 2057 0 is_stmt 1
	movq	%rax, -24(%rbp)	# iftmp.157, ctype
	.loc 1 2063 0
	movq	-40(%rbp), %rax	# arg0, tmp90
	movzbl	16(%rax), %eax	# arg0_3(D)->common.code, D.20884
	cmpb	$25, %al	#, D.20884
	jne	.L284	#,
	.loc 1 2063 0 is_stmt 0 discriminator 1
	movq	-48(%rbp), %rax	# arg1, tmp91
	movzbl	16(%rax), %eax	# arg1_8(D)->common.code, D.20884
	cmpb	$25, %al	#, D.20884
	je	.L285	#,
.L284:
	.loc 1 2064 0 is_stmt 1
	movq	-48(%rbp), %rdx	# arg1, tmp92
	movq	-24(%rbp), %rax	# ctype, tmp93
	movq	%rdx, %rsi	# tmp92,
	movq	%rax, %rdi	# tmp93,
	call	convert	#
	movq	%rax, %rbx	#, D.20885
	movq	-40(%rbp), %rdx	# arg0, tmp94
	movq	-24(%rbp), %rax	# ctype, tmp95
	movq	%rdx, %rsi	# tmp94,
	movq	%rax, %rdi	# tmp95,
	call	convert	#
	movq	%rbx, %rdx	# D.20885,
	movq	%rax, %rsi	# D.20885,
	movl	$60, %edi	#,
	call	size_binop	#
	jmp	.L280	#
.L285:
	.loc 1 2071 0
	movq	-48(%rbp), %rdx	# arg1, tmp96
	movq	-40(%rbp), %rax	# arg0, tmp97
	movq	%rdx, %rsi	# tmp96,
	movq	%rax, %rdi	# tmp97,
	call	tree_int_cst_equal	#
	testl	%eax, %eax	# D.20886
	je	.L286	#,
	.loc 1 2072 0
	movq	global_trees+88(%rip), %rdx	# global_trees, D.20885
	movq	-24(%rbp), %rax	# ctype, tmp98
	movq	%rdx, %rsi	# D.20885,
	movq	%rax, %rdi	# tmp98,
	call	convert	#
	jmp	.L280	#
.L286:
	.loc 1 2073 0
	movq	-40(%rbp), %rdx	# arg0, tmp99
	movq	-48(%rbp), %rax	# arg1, tmp100
	movq	%rdx, %rsi	# tmp99,
	movq	%rax, %rdi	# tmp100,
	call	tree_int_cst_lt	#
	testl	%eax, %eax	# D.20886
	je	.L287	#,
	.loc 1 2074 0
	movq	-48(%rbp), %rdx	# arg1, tmp101
	movq	-40(%rbp), %rax	# arg0, tmp102
	movq	%rax, %rsi	# tmp102,
	movl	$60, %edi	#,
	call	size_binop	#
	movq	%rax, %rdx	#, D.20885
	movq	-24(%rbp), %rax	# ctype, tmp103
	movq	%rdx, %rsi	# D.20885,
	movq	%rax, %rdi	# tmp103,
	call	convert	#
	jmp	.L280	#
.L287:
	.loc 1 2076 0
	movq	-40(%rbp), %rdx	# arg0, tmp104
	movq	-48(%rbp), %rax	# arg1, tmp105
	movq	%rax, %rsi	# tmp105,
	movl	$60, %edi	#,
	call	size_binop	#
	movq	%rax, %rdx	#, D.20885
	movq	-24(%rbp), %rax	# ctype, tmp106
	movq	%rdx, %rsi	# D.20885,
	movq	%rax, %rdi	# tmp106,
	call	convert	#
	movq	%rax, %rbx	#, D.20885
	movq	global_trees+88(%rip), %rdx	# global_trees, D.20885
	movq	-24(%rbp), %rax	# ctype, tmp107
	movq	%rdx, %rsi	# D.20885,
	movq	%rax, %rdi	# tmp107,
	call	convert	#
	movq	%rbx, %rdx	# D.20885,
	movq	%rax, %rsi	# D.20885,
	movl	$60, %edi	#,
	call	size_binop	#
.L280:
	.loc 1 2078 0
	addq	$40, %rsp	#,
	popq	%rbx	#
	popq	%rbp	#
	.cfi_def_cfa 7, 8
	ret
	.cfi_endproc
.LFE24:
	.size	size_diffop, .-size_diffop
	.type	fold_convert_1, @function
fold_convert_1:
.LFB25:
	.loc 1 2094 0
	.cfi_startproc
	pushq	%rbp	#
	.cfi_def_cfa_offset 16
	.cfi_offset 6, -16
	movq	%rsp, %rbp	#,
	.cfi_def_cfa_register 6
	subq	$80, %rsp	#,
	movq	%rdi, -56(%rbp)	# data, data
	.loc 1 2095 0
	movq	-56(%rbp), %rax	# data, tmp65
	movq	%rax, -40(%rbp)	# tmp65, args
	.loc 1 2099 0
	movq	-40(%rbp), %rax	# args, tmp66
	movq	(%rax), %rax	# args_2->arg1, D.20887
	.loc 1 2098 0
	movq	-40(%rbp), %rdx	# args, tmp67
	movq	8(%rdx), %rdx	# args_2->type, D.20887
	movzbl	61(%rdx), %edx	# *_4, tmp70
	shrb	%dl	# D.20888
	.loc 1 2097 0
	movzbl	%dl, %ecx	# D.20888, D.20889
	leaq	-32(%rbp), %rdx	#, tmp71
	movq	32(%rax), %rsi	# _3->real_cst.real_cst, tmp72
	movq	%rsi, (%rsp)	# tmp72,
	movq	40(%rax), %rsi	# _3->real_cst.real_cst, tmp73
	movq	%rsi, 8(%rsp)	# tmp73,
	movq	48(%rax), %rax	# _3->real_cst.real_cst, tmp74
	movq	%rax, 16(%rsp)	# tmp74,
	movl	%ecx, %esi	# D.20889,
	movq	%rdx, %rdi	# tmp71,
	call	real_value_truncate	#
	movq	-40(%rbp), %rax	# args, tmp75
	movq	8(%rax), %rax	# args_2->type, D.20887
	movq	-32(%rbp), %rdx	# D.14636, tmp76
	movq	%rdx, (%rsp)	# tmp76,
	movq	-24(%rbp), %rdx	# D.14636, tmp77
	movq	%rdx, 8(%rsp)	# tmp77,
	movq	-16(%rbp), %rdx	# D.14636, tmp78
	movq	%rdx, 16(%rsp)	# tmp78,
	movq	%rax, %rdi	# D.20887,
	call	build_real	#
	movq	-40(%rbp), %rdx	# args, tmp79
	movq	%rax, 16(%rdx)	# D.20887, args_2->t
	.loc 1 2100 0
	leave
	.cfi_def_cfa 7, 8
	ret
	.cfi_endproc
.LFE25:
	.size	fold_convert_1, .-fold_convert_1
	.type	fold_convert, @function
fold_convert:
.LFB26:
	.loc 1 2109 0
	.cfi_startproc
	pushq	%rbp	#
	.cfi_def_cfa_offset 16
	.cfi_offset 6, -16
	movq	%rsp, %rbp	#,
	.cfi_def_cfa_register 6
	pushq	%rbx	#
	subq	$248, %rsp	#,
	.cfi_offset 3, -24
	movq	%rdi, -168(%rbp)	# t, t
	movq	%rsi, -176(%rbp)	# arg1, arg1
	.loc 1 2110 0
	movq	-168(%rbp), %rax	# t, tmp145
	movq	8(%rax), %rax	# t_10(D)->common.type, tmp146
	movq	%rax, -128(%rbp)	# tmp146, type
	.loc 1 2111 0
	movl	$0, -152(%rbp)	#, overflow
	.loc 1 2113 0
	movq	-128(%rbp), %rax	# type, tmp147
	movzbl	16(%rax), %eax	# type_11->common.code, D.20892
	cmpb	$13, %al	#, D.20892
	je	.L290	#,
	.loc 1 2113 0 is_stmt 0 discriminator 1
	movq	-128(%rbp), %rax	# type, tmp148
	movzbl	16(%rax), %eax	# type_11->common.code, D.20892
	cmpb	$15, %al	#, D.20892
	je	.L290	#,
	movq	-128(%rbp), %rax	# type, tmp149
	movzbl	16(%rax), %eax	# type_11->common.code, D.20892
	cmpb	$6, %al	#, D.20892
	je	.L290	#,
	movq	-128(%rbp), %rax	# type, tmp150
	movzbl	16(%rax), %eax	# type_11->common.code, D.20892
	cmpb	$10, %al	#, D.20892
	je	.L290	#,
	movq	-128(%rbp), %rax	# type, tmp151
	movzbl	16(%rax), %eax	# type_11->common.code, D.20892
	cmpb	$11, %al	#, D.20892
	je	.L290	#,
	movq	-128(%rbp), %rax	# type, tmp152
	movzbl	16(%rax), %eax	# type_11->common.code, D.20892
	cmpb	$12, %al	#, D.20892
	jne	.L291	#,
.L290:
	.loc 1 2115 0 is_stmt 1
	movq	-176(%rbp), %rax	# arg1, tmp153
	movzbl	16(%rax), %eax	# arg1_20(D)->common.code, D.20892
	cmpb	$25, %al	#, D.20892
	jne	.L292	#,
	.loc 1 2119 0
	movq	-128(%rbp), %rax	# type, tmp154
	movzwl	60(%rax), %eax	# *type_11, tmp157
	andw	$511, %ax	#, D.20896
	movzwl	%ax, %eax	# D.20896, D.20893
	cmpl	$128, %eax	#, D.20893
	jle	.L293	#,
	.loc 1 2120 0
	movq	-168(%rbp), %rax	# t, D.20891
	jmp	.L294	#
.L293:
	.loc 1 2124 0
	movq	-128(%rbp), %rax	# type, tmp158
	movzbl	16(%rax), %eax	# type_11->common.code, D.20892
	cmpb	$6, %al	#, D.20892
	jne	.L295	#,
	.loc 1 2124 0 is_stmt 0 discriminator 1
	movq	-128(%rbp), %rax	# type, tmp159
	movzbl	62(%rax), %eax	# *type_11, D.20892
	andl	$2, %eax	#, D.20892
	testb	%al, %al	# D.20892
	je	.L295	#,
	.loc 1 2125 0 is_stmt 1
	movq	-176(%rbp), %rax	# arg1, tmp160
	movzbl	18(%rax), %eax	# *arg1_20(D), D.20892
	andl	$4, %eax	#, D.20892
	testb	%al, %al	# D.20892
	jne	.L295	#,
	.loc 1 2126 0
	movq	-176(%rbp), %rax	# arg1, tmp161
	movl	$10000, %esi	#,
	movq	%rax, %rdi	# tmp161,
	call	compare_tree_int	#
	testl	%eax, %eax	# D.20893
	jns	.L295	#,
	.loc 1 2127 0
	movq	-176(%rbp), %rax	# arg1, tmp162
	movq	32(%rax), %rax	# arg1_20(D)->int_cst.int_cst.low, D.20897
	movq	-128(%rbp), %rdx	# type, tmp163
	movq	%rdx, %rsi	# tmp163,
	movq	%rax, %rdi	# D.20898,
	call	size_int_type_wide	#
	jmp	.L294	#
.L295:
	.loc 1 2131 0
	movq	-176(%rbp), %rax	# arg1, tmp164
	movq	40(%rax), %rdx	# arg1_20(D)->int_cst.int_cst.high, D.20898
	movq	-176(%rbp), %rax	# arg1, tmp165
	movq	32(%rax), %rax	# arg1_20(D)->int_cst.int_cst.low, D.20897
	movq	%rdx, %rsi	# D.20898,
	movq	%rax, %rdi	# D.20897,
	call	build_int_2_wide	#
	movq	%rax, -168(%rbp)	# tmp166, t
	.loc 1 2133 0
	movq	-168(%rbp), %rax	# t, tmp167
	movq	-128(%rbp), %rdx	# type, tmp168
	movq	%rdx, 8(%rax)	# tmp168, t_60->common.type
	.loc 1 2141 0
	movq	-176(%rbp), %rax	# arg1, tmp169
	movq	40(%rax), %rax	# arg1_20(D)->int_cst.int_cst.high, D.20898
	.loc 1 2140 0
	testq	%rax, %rax	# D.20898
	jns	.L296	#,
	.loc 1 2142 0 discriminator 1
	movq	-128(%rbp), %rax	# type, tmp170
	movzbl	17(%rax), %eax	# *type_11, tmp173
	shrb	$5, %al	#, D.20894
	andl	$1, %eax	#, D.20894
	.loc 1 2143 0 discriminator 1
	movzbl	%al, %edx	# D.20894, D.20893
	movq	-176(%rbp), %rax	# arg1, tmp174
	movq	8(%rax), %rax	# arg1_20(D)->common.type, D.20899
	movzbl	17(%rax), %eax	# *_64, tmp177
	shrb	$5, %al	#, D.20894
	andl	$1, %eax	#, D.20894
	movzbl	%al, %eax	# D.20894, D.20893
	.loc 1 2140 0 discriminator 1
	cmpl	%eax, %edx	# D.20893, D.20893
	jge	.L296	#,
	.loc 1 2140 0 is_stmt 0 discriminator 3
	movl	$1, %eax	#, iftmp.159
	jmp	.L297	#
.L296:
	.loc 1 2140 0 discriminator 2
	movl	$0, %eax	#, iftmp.159
.L297:
	.loc 1 2140 0 discriminator 4
	movq	-168(%rbp), %rdx	# t, tmp178
	movl	%eax, %esi	# iftmp.159,
	movq	%rdx, %rdi	# tmp178,
	call	force_fit_type	#
	.loc 1 2145 0 is_stmt 1 discriminator 4
	testl	%eax, %eax	# D.20893
	je	.L298	#,
	.loc 1 2144 0
	movq	-176(%rbp), %rax	# arg1, tmp179
	movq	8(%rax), %rax	# arg1_20(D)->common.type, D.20899
	movzbl	16(%rax), %eax	# _70->common.code, D.20892
	cmpb	$13, %al	#, D.20892
	je	.L298	#,
	.loc 1 2144 0 is_stmt 0 discriminator 1
	movq	-176(%rbp), %rax	# arg1, tmp180
	movq	8(%rax), %rax	# arg1_20(D)->common.type, D.20899
	movzbl	16(%rax), %eax	# _72->common.code, D.20892
	cmpb	$15, %al	#, D.20892
	jne	.L299	#,
.L298:
	.loc 1 2145 0 is_stmt 1 discriminator 1
	movq	-176(%rbp), %rax	# arg1, tmp181
	movzbl	18(%rax), %eax	# *arg1_20(D), D.20892
	andl	$8, %eax	#, D.20892
	testb	%al, %al	# D.20892
	je	.L300	#,
.L299:
	.loc 1 2145 0 is_stmt 0 discriminator 2
	movl	$1, %eax	#, iftmp.158
	jmp	.L301	#
.L300:
	.loc 1 2145 0 discriminator 3
	movl	$0, %eax	#, iftmp.158
.L301:
	.loc 1 2140 0 is_stmt 1
	andl	$1, %eax	#, D.20894
	movl	%eax, %edx	# D.20894, D.20894
	movq	-168(%rbp), %rax	# t, tmp182
	andl	$1, %edx	#, tmp184
	leal	0(,%rdx,8), %ecx	#, tmp185
	movzbl	18(%rax), %edx	#, tmp186
	andl	$-9, %edx	#, tmp187
	orl	%ecx, %edx	# tmp185, tmp188
	movb	%dl, 18(%rax)	# tmp188,
	.loc 1 2147 0
	movq	-168(%rbp), %rax	# t, tmp189
	movzbl	18(%rax), %eax	# *t_60, tmp192
	shrb	$3, %al	#, D.20894
	andl	$1, %eax	#, D.20894
	movl	%eax, %edx	# D.20894, D.20892
	movq	-176(%rbp), %rax	# arg1, tmp193
	movzbl	18(%rax), %eax	# *arg1_20(D), tmp196
	shrb	$2, %al	#, D.20894
	andl	$1, %eax	#, D.20894
	orl	%edx, %eax	# D.20892, D.20892
	andl	$1, %eax	#, D.20894
	movl	%eax, %edx	# D.20894, D.20894
	movq	-168(%rbp), %rax	# t, tmp197
	andl	$1, %edx	#, tmp199
	leal	0(,%rdx,4), %ecx	#, tmp200
	movzbl	18(%rax), %edx	#, tmp201
	andl	$-5, %edx	#, tmp202
	orl	%ecx, %edx	# tmp200, tmp203
	movb	%dl, 18(%rax)	# tmp203,
	jmp	.L302	#
.L292:
	.loc 1 2150 0
	movq	-176(%rbp), %rax	# arg1, tmp204
	movzbl	16(%rax), %eax	# arg1_20(D)->common.code, D.20892
	cmpb	$26, %al	#, D.20892
	jne	.L302	#,
.LBB10:
	.loc 1 2157 0
	movq	-176(%rbp), %rax	# arg1, tmp205
	movq	8(%rax), %rax	# arg1_20(D)->common.type, tmp206
	movq	%rax, -120(%rbp)	# tmp206, type1
	.loc 1 2160 0
	movq	-176(%rbp), %rax	# arg1, tmp207
	movq	32(%rax), %rdx	# arg1_20(D)->real_cst.real_cst, tmp208
	movq	%rdx, -112(%rbp)	# tmp208, x
	movq	40(%rax), %rdx	# arg1_20(D)->real_cst.real_cst, tmp209
	movq	%rdx, -104(%rbp)	# tmp209, x
	movq	48(%rax), %rax	# arg1_20(D)->real_cst.real_cst, tmp210
	movq	%rax, -96(%rbp)	# tmp210, x
	.loc 1 2161 0
	movq	-128(%rbp), %rax	# type, tmp211
	movq	104(%rax), %rdx	# type_11->type.minval, D.20899
	leaq	-208(%rbp), %rax	#, tmp212
	movq	-120(%rbp), %rcx	# type1, tmp213
	movq	%rcx, %rsi	# tmp213,
	movq	%rax, %rdi	# tmp212,
	call	real_value_from_int_cst	#
	movq	-208(%rbp), %rax	#, tmp214
	movq	%rax, -80(%rbp)	# tmp214, l
	movq	-200(%rbp), %rax	#, tmp215
	movq	%rax, -72(%rbp)	# tmp215, l
	movq	-192(%rbp), %rax	#, tmp216
	movq	%rax, -64(%rbp)	# tmp216, l
	.loc 1 2163 0
	movq	-128(%rbp), %rax	# type, tmp217
	movq	112(%rax), %rax	# type_11->type.maxval, D.20899
	testq	%rax, %rax	# D.20899
	sete	%al	#, D.20900
	movzbl	%al, %eax	# D.20900, tmp218
	movl	%eax, -148(%rbp)	# tmp218, no_upper_bound
	.loc 1 2164 0
	cmpl	$0, -148(%rbp)	#, no_upper_bound
	jne	.L303	#,
	.loc 1 2165 0
	movq	-128(%rbp), %rax	# type, tmp219
	movq	112(%rax), %rdx	# type_11->type.maxval, D.20899
	leaq	-208(%rbp), %rax	#, tmp220
	movq	-120(%rbp), %rcx	# type1, tmp221
	movq	%rcx, %rsi	# tmp221,
	movq	%rax, %rdi	# tmp220,
	call	real_value_from_int_cst	#
	movq	-208(%rbp), %rax	#, tmp222
	movq	%rax, -48(%rbp)	# tmp222, u
	movq	-200(%rbp), %rax	#, tmp223
	movq	%rax, -40(%rbp)	# tmp223, u
	movq	-192(%rbp), %rax	#, tmp224
	movq	%rax, -32(%rbp)	# tmp224, u
.L303:
	.loc 1 2171 0
	leaq	-80(%rbp), %rdx	#, tmp225
	leaq	-80(%rbp), %rax	#, tmp226
	movl	$dconst1, %ecx	#,
	movl	$60, %esi	#,
	movq	%rax, %rdi	# tmp226,
	call	earith	#
	.loc 1 2172 0
	cmpl	$0, -148(%rbp)	#, no_upper_bound
	jne	.L304	#,
	.loc 1 2173 0
	leaq	-48(%rbp), %rdx	#, tmp227
	leaq	-48(%rbp), %rax	#, tmp228
	movl	$dconst1, %ecx	#,
	movl	$59, %esi	#,
	movq	%rax, %rdi	# tmp228,
	call	earith	#
.L304:
	.loc 1 2181 0
	movq	-112(%rbp), %rax	# x, tmp229
	movq	%rax, (%rsp)	# tmp229,
	movq	-104(%rbp), %rax	# x, tmp230
	movq	%rax, 8(%rsp)	# tmp230,
	movq	-96(%rbp), %rax	# x, tmp231
	movq	%rax, 16(%rsp)	# tmp231,
	call	target_isnan	#
	testl	%eax, %eax	# D.20893
	je	.L305	#,
	.loc 1 2182 0
	movl	$1, -152(%rbp)	#, overflow
	movq	dconst0(%rip), %rax	# dconst0, tmp233
	movq	%rax, -112(%rbp)	# tmp233, x
	movq	dconst0+8(%rip), %rax	# dconst0, tmp234
	movq	%rax, -104(%rbp)	# tmp234, x
	movq	dconst0+16(%rip), %rax	# dconst0, tmp235
	movq	%rax, -96(%rbp)	# tmp235, x
	jmp	.L306	#
.L305:
	.loc 1 2183 0
	movq	-112(%rbp), %rax	# x, tmp236
	movq	%rax, 24(%rsp)	# tmp236,
	movq	-104(%rbp), %rax	# x, tmp237
	movq	%rax, 32(%rsp)	# tmp237,
	movq	-96(%rbp), %rax	# x, tmp238
	movq	%rax, 40(%rsp)	# tmp238,
	movq	-80(%rbp), %rax	# l, tmp239
	movq	%rax, (%rsp)	# tmp239,
	movq	-72(%rbp), %rax	# l, tmp240
	movq	%rax, 8(%rsp)	# tmp240,
	movq	-64(%rbp), %rax	# l, tmp241
	movq	%rax, 16(%rsp)	# tmp241,
	call	ereal_cmp	#
	cmpl	$-1, %eax	#, D.20893
	jne	.L307	#,
	.loc 1 2184 0
	cmpl	$0, -148(%rbp)	#, no_upper_bound
	jne	.L307	#,
	.loc 1 2185 0
	movq	-48(%rbp), %rax	# u, tmp242
	movq	%rax, 24(%rsp)	# tmp242,
	movq	-40(%rbp), %rax	# u, tmp243
	movq	%rax, 32(%rsp)	# tmp243,
	movq	-32(%rbp), %rax	# u, tmp244
	movq	%rax, 40(%rsp)	# tmp244,
	movq	-112(%rbp), %rax	# x, tmp245
	movq	%rax, (%rsp)	# tmp245,
	movq	-104(%rbp), %rax	# x, tmp246
	movq	%rax, 8(%rsp)	# tmp246,
	movq	-96(%rbp), %rax	# x, tmp247
	movq	%rax, 16(%rsp)	# tmp247,
	call	ereal_cmp	#
	.loc 1 2183 0
	cmpl	$-1, %eax	#, D.20893
	je	.L306	#,
.L307:
	.loc 1 2186 0
	movl	$1, -152(%rbp)	#, overflow
.L306:
.LBB11:
	.loc 1 2213 0 discriminator 1
	leaq	-136(%rbp), %rdx	#, tmp248
	leaq	-144(%rbp), %rax	#, tmp249
	movq	-112(%rbp), %rcx	# x, tmp250
	movq	%rcx, (%rsp)	# tmp250,
	movq	-104(%rbp), %rcx	# x, tmp251
	movq	%rcx, 8(%rsp)	# tmp251,
	movq	-96(%rbp), %rcx	# x, tmp252
	movq	%rcx, 16(%rsp)	# tmp252,
	movq	%rdx, %rsi	# tmp248,
	movq	%rax, %rdi	# tmp249,
	call	ereal_to_int	#
	.loc 1 2214 0 discriminator 1
	movq	-136(%rbp), %rdx	# high, high.160
	movq	-144(%rbp), %rax	# low, low.161
	movq	%rdx, %rsi	# high.160,
	movq	%rax, %rdi	# low.162,
	call	build_int_2_wide	#
	movq	%rax, -168(%rbp)	# tmp253, t
.LBE11:
	.loc 1 2217 0 discriminator 1
	movq	-168(%rbp), %rax	# t, tmp254
	movq	-128(%rbp), %rdx	# type, tmp255
	movq	%rdx, 8(%rax)	# tmp255, t_101->common.type
	.loc 1 2219 0 discriminator 1
	movq	-176(%rbp), %rax	# arg1, tmp256
	movzbl	18(%rax), %eax	# *arg1_20(D), tmp259
	shrb	$3, %al	#, D.20894
	andl	$1, %eax	#, D.20894
	movl	%eax, %ebx	# D.20894, D.20895
	movl	-152(%rbp), %edx	# overflow, tmp260
	movq	-168(%rbp), %rax	# t, tmp261
	movl	%edx, %esi	# tmp260,
	movq	%rax, %rdi	# tmp261,
	call	force_fit_type	#
	orl	%ebx, %eax	# D.20895, D.20895
	andl	$1, %eax	#, D.20894
	movl	%eax, %edx	# D.20894, D.20894
	movq	-168(%rbp), %rax	# t, tmp262
	andl	$1, %edx	#, tmp264
	leal	0(,%rdx,8), %ecx	#, tmp265
	movzbl	18(%rax), %edx	#, tmp266
	andl	$-9, %edx	#, tmp267
	orl	%ecx, %edx	# tmp265, tmp268
	movb	%dl, 18(%rax)	# tmp268,
	.loc 1 2221 0 discriminator 1
	movq	-168(%rbp), %rax	# t, tmp269
	movzbl	18(%rax), %eax	# *t_101, tmp272
	shrb	$3, %al	#, D.20894
	andl	$1, %eax	#, D.20894
	movl	%eax, %edx	# D.20894, D.20892
	movq	-176(%rbp), %rax	# arg1, tmp273
	movzbl	18(%rax), %eax	# *arg1_20(D), tmp276
	shrb	$2, %al	#, D.20894
	andl	$1, %eax	#, D.20894
	orl	%edx, %eax	# D.20892, D.20892
	andl	$1, %eax	#, D.20894
	movl	%eax, %edx	# D.20894, D.20894
	movq	-168(%rbp), %rax	# t, tmp277
	andl	$1, %edx	#, tmp279
	leal	0(,%rdx,4), %ecx	#, tmp280
	movzbl	18(%rax), %edx	#, tmp281
	andl	$-5, %edx	#, tmp282
	orl	%ecx, %edx	# tmp280, tmp283
	movb	%dl, 18(%rax)	# tmp283,
.L302:
.LBE10:
	.loc 1 2224 0
	movq	-168(%rbp), %rax	# t, tmp284
	movq	-128(%rbp), %rdx	# type, tmp285
	movq	%rdx, 8(%rax)	# tmp285, t_1->common.type
	jmp	.L308	#
.L291:
	.loc 1 2226 0
	movq	-128(%rbp), %rax	# type, tmp286
	movzbl	16(%rax), %eax	# type_11->common.code, D.20892
	cmpb	$7, %al	#, D.20892
	jne	.L308	#,
	.loc 1 2229 0
	movq	-176(%rbp), %rax	# arg1, tmp287
	movzbl	16(%rax), %eax	# arg1_20(D)->common.code, D.20892
	cmpb	$25, %al	#, D.20892
	jne	.L309	#,
	.loc 1 2230 0
	movq	-176(%rbp), %rdx	# arg1, tmp288
	movq	-128(%rbp), %rax	# type, tmp289
	movq	%rdx, %rsi	# tmp288,
	movq	%rax, %rdi	# tmp289,
	call	build_real_from_int_cst	#
	jmp	.L294	#
.L309:
	.loc 1 2232 0
	movq	-176(%rbp), %rax	# arg1, tmp290
	movzbl	16(%rax), %eax	# arg1_20(D)->common.code, D.20892
	cmpb	$26, %al	#, D.20892
	jne	.L308	#,
.LBB12:
	.loc 1 2236 0
	movq	-176(%rbp), %rax	# arg1, tmp291
	movq	32(%rax), %rdx	# arg1_20(D)->real_cst.real_cst, tmp292
	movq	%rdx, (%rsp)	# tmp292,
	movq	40(%rax), %rdx	# arg1_20(D)->real_cst.real_cst, tmp293
	movq	%rdx, 8(%rsp)	# tmp293,
	movq	48(%rax), %rax	# arg1_20(D)->real_cst.real_cst, tmp294
	movq	%rax, 16(%rsp)	# tmp294,
	call	target_isnan	#
	testl	%eax, %eax	# D.20893
	je	.L310	#,
	.loc 1 2238 0
	movq	-176(%rbp), %rax	# arg1, tmp295
	movq	%rax, -168(%rbp)	# tmp295, t
	.loc 1 2239 0
	movq	-176(%rbp), %rax	# arg1, tmp296
	movq	-128(%rbp), %rdx	# type, tmp297
	movq	%rdx, 8(%rax)	# tmp297, arg1_20(D)->common.type
	.loc 1 2240 0
	movq	-168(%rbp), %rax	# t, D.20891
	jmp	.L294	#
.L310:
	.loc 1 2244 0
	movq	-176(%rbp), %rax	# arg1, tmp298
	movq	%rax, -48(%rbp)	# tmp298, args.arg1
	.loc 1 2245 0
	movq	-128(%rbp), %rax	# type, tmp299
	movq	%rax, -40(%rbp)	# tmp299, args.type
	.loc 1 2247 0
	leaq	-48(%rbp), %rax	#, tmp300
	movq	%rax, %rsi	# tmp300,
	movl	$fold_convert_1, %edi	#,
	call	do_float_handler	#
	testl	%eax, %eax	# D.20893
	je	.L312	#,
	.loc 1 2250 0
	movq	-32(%rbp), %rax	# args.t, tmp301
	movq	%rax, -168(%rbp)	# tmp301, t
	jmp	.L313	#
.L312:
	.loc 1 2255 0
	movl	$1, -152(%rbp)	#, overflow
	.loc 1 2256 0
	movq	-176(%rbp), %rax	# arg1, tmp302
	movq	%rax, %rdi	# tmp302,
	call	copy_node	#
	movq	%rax, -168(%rbp)	# tmp303, t
.L313:
	.loc 1 2260 0
	movq	-176(%rbp), %rax	# arg1, tmp304
	movzbl	18(%rax), %eax	# *arg1_20(D), tmp307
	shrb	$3, %al	#, D.20894
	andl	$1, %eax	#, D.20894
	movl	%eax, %ebx	# D.20894, D.20895
	movl	-152(%rbp), %edx	# overflow, tmp308
	movq	-168(%rbp), %rax	# t, tmp309
	movl	%edx, %esi	# tmp308,
	movq	%rax, %rdi	# tmp309,
	call	force_fit_type	#
	orl	%ebx, %eax	# D.20895, D.20895
	andl	$1, %eax	#, D.20894
	movl	%eax, %edx	# D.20894, D.20894
	movq	-168(%rbp), %rax	# t, tmp310
	andl	$1, %edx	#, tmp312
	leal	0(,%rdx,8), %ecx	#, tmp313
	movzbl	18(%rax), %edx	#, tmp314
	andl	$-9, %edx	#, tmp315
	orl	%ecx, %edx	# tmp313, tmp316
	movb	%dl, 18(%rax)	# tmp316,
	.loc 1 2262 0
	movq	-168(%rbp), %rax	# t, tmp317
	movzbl	18(%rax), %eax	# *t_2, tmp320
	shrb	$3, %al	#, D.20894
	andl	$1, %eax	#, D.20894
	movl	%eax, %edx	# D.20894, D.20892
	movq	-176(%rbp), %rax	# arg1, tmp321
	movzbl	18(%rax), %eax	# *arg1_20(D), tmp324
	shrb	$2, %al	#, D.20894
	andl	$1, %eax	#, D.20894
	orl	%edx, %eax	# D.20892, D.20892
	andl	$1, %eax	#, D.20894
	movl	%eax, %edx	# D.20894, D.20894
	movq	-168(%rbp), %rax	# t, tmp325
	andl	$1, %edx	#, tmp327
	leal	0(,%rdx,4), %ecx	#, tmp328
	movzbl	18(%rax), %edx	#, tmp329
	andl	$-5, %edx	#, tmp330
	orl	%ecx, %edx	# tmp328, tmp331
	movb	%dl, 18(%rax)	# tmp331,
	.loc 1 2263 0
	movq	-168(%rbp), %rax	# t, D.20891
	jmp	.L294	#
.L308:
.LBE12:
	.loc 1 2266 0
	movq	-168(%rbp), %rax	# t, tmp332
	movzbl	17(%rax), %edx	#, tmp335
	orl	$2, %edx	#, tmp336
	movb	%dl, 17(%rax)	# tmp336,
	.loc 1 2267 0
	movq	-168(%rbp), %rax	# t, D.20891
.L294:
	.loc 1 2268 0
	addq	$248, %rsp	#,
	popq	%rbx	#
	popq	%rbp	#
	.cfi_def_cfa 7, 8
	ret
	.cfi_endproc
.LFE26:
	.size	fold_convert, .-fold_convert
	.globl	non_lvalue
	.type	non_lvalue, @function
non_lvalue:
.LFB27:
	.loc 1 2275 0
	.cfi_startproc
	pushq	%rbp	#
	.cfi_def_cfa_offset 16
	.cfi_offset 6, -16
	movq	%rsp, %rbp	#,
	.cfi_def_cfa_register 6
	subq	$32, %rsp	#,
	movq	%rdi, -24(%rbp)	# x, x
	.loc 1 2279 0
	movq	-24(%rbp), %rax	# x, tmp68
	movzbl	16(%rax), %eax	# x_2(D)->common.code, D.20905
	cmpb	$116, %al	#, D.20905
	je	.L315	#,
	.loc 1 2280 0
	movq	-24(%rbp), %rax	# x, tmp69
	movzbl	16(%rax), %eax	# x_2(D)->common.code, D.20905
	cmpb	$25, %al	#, D.20905
	je	.L315	#,
	.loc 1 2281 0
	movq	-24(%rbp), %rax	# x, tmp70
	movzbl	16(%rax), %eax	# x_2(D)->common.code, D.20905
	cmpb	$26, %al	#, D.20905
	je	.L315	#,
	.loc 1 2282 0
	movq	-24(%rbp), %rax	# x, tmp71
	movzbl	16(%rax), %eax	# x_2(D)->common.code, D.20905
	cmpb	$29, %al	#, D.20905
	je	.L315	#,
	.loc 1 2283 0
	movq	-24(%rbp), %rax	# x, tmp72
	movzbl	16(%rax), %eax	# x_2(D)->common.code, D.20905
	cmpb	$121, %al	#, D.20905
	jne	.L316	#,
.L315:
	.loc 1 2284 0
	movq	-24(%rbp), %rax	# x, D.20904
	jmp	.L317	#
.L316:
	.loc 1 2286 0
	movq	-24(%rbp), %rax	# x, tmp73
	movq	8(%rax), %rax	# x_2(D)->common.type, D.20906
	movq	-24(%rbp), %rdx	# x, tmp74
	movq	%rax, %rsi	# D.20906,
	movl	$116, %edi	#,
	call	build1	#
	movq	%rax, -8(%rbp)	# tmp75, result
	.loc 1 2287 0
	movq	-24(%rbp), %rax	# x, tmp76
	movzbl	17(%rax), %eax	# *x_2(D), tmp79
	shrb	%al	# D.20907
	andl	$1, %eax	#, D.20907
	movq	-8(%rbp), %rdx	# result, tmp80
	andl	$1, %eax	#, tmp82
	leal	(%rax,%rax), %ecx	#, tmp83
	movzbl	17(%rdx), %eax	#, tmp84
	andl	$-3, %eax	#, tmp85
	orl	%ecx, %eax	# tmp83, tmp86
	movb	%al, 17(%rdx)	# tmp86,
	.loc 1 2288 0
	movq	-8(%rbp), %rax	# result, D.20904
.L317:
	.loc 1 2289 0
	leave
	.cfi_def_cfa 7, 8
	ret
	.cfi_endproc
.LFE27:
	.size	non_lvalue, .-non_lvalue
	.comm	pedantic_lvalues,4,4
	.globl	pedantic_non_lvalue
	.type	pedantic_non_lvalue, @function
pedantic_non_lvalue:
.LFB28:
	.loc 1 2302 0
	.cfi_startproc
	pushq	%rbp	#
	.cfi_def_cfa_offset 16
	.cfi_offset 6, -16
	movq	%rsp, %rbp	#,
	.cfi_def_cfa_register 6
	subq	$16, %rsp	#,
	movq	%rdi, -8(%rbp)	# x, x
	.loc 1 2303 0
	movl	pedantic_lvalues(%rip), %eax	# pedantic_lvalues, pedantic_lvalues.163
	testl	%eax, %eax	# pedantic_lvalues.163
	je	.L319	#,
	.loc 1 2304 0
	movq	-8(%rbp), %rax	# x, tmp62
	movq	%rax, %rdi	# tmp62,
	call	non_lvalue	#
	jmp	.L320	#
.L319:
	.loc 1 2306 0
	movq	-8(%rbp), %rax	# x, D.20908
.L320:
	.loc 1 2307 0
	leave
	.cfi_def_cfa 7, 8
	ret
	.cfi_endproc
.LFE28:
	.size	pedantic_non_lvalue, .-pedantic_non_lvalue
	.type	invert_tree_comparison, @function
invert_tree_comparison:
.LFB29:
	.loc 1 2316 0
	.cfi_startproc
	pushq	%rbp	#
	.cfi_def_cfa_offset 16
	.cfi_offset 6, -16
	movq	%rsp, %rbp	#,
	.cfi_def_cfa_register 6
	subq	$16, %rsp	#,
	movl	%edi, -4(%rbp)	# code, code
	.loc 1 2317 0
	movl	-4(%rbp), %eax	# code, tmp62
	subl	$97, %eax	#, tmp61
	cmpl	$5, %eax	#, tmp61
	ja	.L322	#,
	movl	%eax, %eax	# tmp61, tmp63
	movq	.L324(,%rax,8), %rax	#, tmp64
	jmp	*%rax	# tmp64
	.section	.rodata
	.align 8
	.align 4
.L324:
	.quad	.L323
	.quad	.L325
	.quad	.L326
	.quad	.L327
	.quad	.L328
	.quad	.L329
	.text
.L328:
	.loc 1 2320 0
	movl	$102, %eax	#, D.20909
	jmp	.L330	#
.L329:
	.loc 1 2322 0
	movl	$101, %eax	#, D.20909
	jmp	.L330	#
.L326:
	.loc 1 2324 0
	movl	$98, %eax	#, D.20909
	jmp	.L330	#
.L327:
	.loc 1 2326 0
	movl	$97, %eax	#, D.20909
	jmp	.L330	#
.L323:
	.loc 1 2328 0
	movl	$100, %eax	#, D.20909
	jmp	.L330	#
.L325:
	.loc 1 2330 0
	movl	$99, %eax	#, D.20909
	jmp	.L330	#
.L322:
	.loc 1 2332 0
	movl	$__FUNCTION__.12516, %edx	#,
	movl	$2332, %esi	#,
	movl	$.LC0, %edi	#,
	call	fancy_abort	#
.L330:
	.loc 1 2334 0
	leave
	.cfi_def_cfa 7, 8
	ret
	.cfi_endproc
.LFE29:
	.size	invert_tree_comparison, .-invert_tree_comparison
	.type	swap_tree_comparison, @function
swap_tree_comparison:
.LFB30:
	.loc 1 2342 0
	.cfi_startproc
	pushq	%rbp	#
	.cfi_def_cfa_offset 16
	.cfi_offset 6, -16
	movq	%rsp, %rbp	#,
	.cfi_def_cfa_register 6
	subq	$16, %rsp	#,
	movl	%edi, -4(%rbp)	# code, code
	.loc 1 2343 0
	movl	-4(%rbp), %eax	# code, tmp62
	subl	$97, %eax	#, tmp61
	cmpl	$5, %eax	#, tmp61
	ja	.L332	#,
	movl	%eax, %eax	# tmp61, tmp63
	movq	.L334(,%rax,8), %rax	#, tmp64
	jmp	*%rax	# tmp64
	.section	.rodata
	.align 8
	.align 4
.L334:
	.quad	.L333
	.quad	.L335
	.quad	.L336
	.quad	.L337
	.quad	.L338
	.quad	.L338
	.text
.L338:
	.loc 1 2347 0
	movl	-4(%rbp), %eax	# code, D.20910
	jmp	.L339	#
.L336:
	.loc 1 2349 0
	movl	$97, %eax	#, D.20910
	jmp	.L339	#
.L337:
	.loc 1 2351 0
	movl	$98, %eax	#, D.20910
	jmp	.L339	#
.L333:
	.loc 1 2353 0
	movl	$99, %eax	#, D.20910
	jmp	.L339	#
.L335:
	.loc 1 2355 0
	movl	$100, %eax	#, D.20910
	jmp	.L339	#
.L332:
	.loc 1 2357 0
	movl	$__FUNCTION__.12527, %edx	#,
	movl	$2357, %esi	#,
	movl	$.LC0, %edi	#,
	call	fancy_abort	#
.L339:
	.loc 1 2359 0
	leave
	.cfi_def_cfa 7, 8
	ret
	.cfi_endproc
.LFE30:
	.size	swap_tree_comparison, .-swap_tree_comparison
	.type	truth_value_p, @function
truth_value_p:
.LFB31:
	.loc 1 2366 0
	.cfi_startproc
	pushq	%rbp	#
	.cfi_def_cfa_offset 16
	.cfi_offset 6, -16
	movq	%rsp, %rbp	#,
	.cfi_def_cfa_register 6
	movl	%edi, -4(%rbp)	# code, code
	.loc 1 2367 0
	movl	-4(%rbp), %eax	# code, code.165
	cltq
	movzbl	tree_code_type(%rax), %eax	# tree_code_type, D.20911
	.loc 1 2370 0
	cmpb	$60, %al	#, D.20911
	je	.L341	#,
	.loc 1 2368 0
	cmpl	$93, -4(%rbp)	#, code
	je	.L341	#,
	.loc 1 2368 0 is_stmt 0 discriminator 1
	cmpl	$91, -4(%rbp)	#, code
	je	.L341	#,
	.loc 1 2369 0 is_stmt 1
	cmpl	$94, -4(%rbp)	#, code
	je	.L341	#,
	.loc 1 2369 0 is_stmt 0 discriminator 1
	cmpl	$92, -4(%rbp)	#, code
	je	.L341	#,
	.loc 1 2370 0 is_stmt 1
	cmpl	$95, -4(%rbp)	#, code
	je	.L341	#,
	.loc 1 2370 0 is_stmt 0 discriminator 1
	cmpl	$96, -4(%rbp)	#, code
	jne	.L342	#,
.L341:
	movl	$1, %eax	#, iftmp.164
	jmp	.L343	#
.L342:
	.loc 1 2370 0 discriminator 2
	movl	$0, %eax	#, iftmp.164
.L343:
	.loc 1 2371 0 is_stmt 1
	popq	%rbp	#
	.cfi_def_cfa 7, 8
	ret
	.cfi_endproc
.LFE31:
	.size	truth_value_p, .-truth_value_p
	.globl	operand_equal_p
	.type	operand_equal_p, @function
operand_equal_p:
.LFB32:
	.loc 1 2385 0
	.cfi_startproc
	pushq	%rbp	#
	.cfi_def_cfa_offset 16
	.cfi_offset 6, -16
	movq	%rsp, %rbp	#,
	.cfi_def_cfa_register 6
	subq	$48, %rsp	#,
	movq	%rdi, -24(%rbp)	# arg0, arg0
	movq	%rsi, -32(%rbp)	# arg1, arg1
	movl	%edx, -36(%rbp)	# only_const, only_const
	.loc 1 2389 0
	movq	-24(%rbp), %rax	# arg0, tmp206
	movq	8(%rax), %rax	# arg0_13(D)->common.type, D.20914
	movzbl	17(%rax), %eax	# *_14, tmp209
	shrb	$5, %al	#, D.20915
	movl	%eax, %edx	# D.20915, D.20915
	andl	$1, %edx	#, D.20915
	movq	-32(%rbp), %rax	# arg1, tmp210
	movq	8(%rax), %rax	# arg1_16(D)->common.type, D.20914
	movzbl	17(%rax), %eax	# *_17, tmp213
	shrb	$5, %al	#, D.20915
	andl	$1, %eax	#, D.20915
	cmpb	%al, %dl	# D.20915, D.20915
	je	.L346	#,
	.loc 1 2390 0
	movl	$0, %eax	#, D.20913
	jmp	.L347	#
.L346:
	.loc 1 2392 0
	jmp	.L348	#
.L351:
	.loc 1 2392 0 is_stmt 0 discriminator 1
	movq	-24(%rbp), %rax	# arg0, tmp214
	movq	32(%rax), %rax	# arg0_1->exp.operands, tmp215
	movq	%rax, -24(%rbp)	# tmp215, arg0
.L348:
	movq	-24(%rbp), %rax	# arg0, tmp216
	movzbl	16(%rax), %eax	# arg0_1->common.code, D.20916
	cmpb	$115, %al	#, D.20916
	je	.L349	#,
	.loc 1 2392 0 discriminator 3
	movq	-24(%rbp), %rax	# arg0, tmp217
	movzbl	16(%rax), %eax	# arg0_1->common.code, D.20916
	cmpb	$114, %al	#, D.20916
	je	.L349	#,
	.loc 1 2392 0 discriminator 1
	movq	-24(%rbp), %rax	# arg0, tmp218
	movzbl	16(%rax), %eax	# arg0_1->common.code, D.20916
	cmpb	$116, %al	#, D.20916
	jne	.L350	#,
.L349:
	.loc 1 2392 0 discriminator 2
	movq	-24(%rbp), %rax	# arg0, tmp219
	movq	32(%rax), %rdx	# arg0_1->exp.operands, D.20914
	movq	global_trees(%rip), %rax	# global_trees, D.20914
	cmpq	%rax, %rdx	# D.20914, D.20914
	je	.L350	#,
	.loc 1 2392 0 discriminator 1
	movq	-24(%rbp), %rax	# arg0, tmp220
	movq	8(%rax), %rax	# arg0_1->common.type, D.20914
	movzbl	61(%rax), %eax	# *_25, tmp223
	shrb	%al	# D.20917
	movl	%eax, %edx	# D.20917, D.20917
	movq	-24(%rbp), %rax	# arg0, tmp224
	movq	32(%rax), %rax	# arg0_1->exp.operands, D.20914
	movq	8(%rax), %rax	# _27->common.type, D.20914
	movzbl	61(%rax), %eax	# *_28, tmp227
	shrb	%al	# D.20917
	cmpb	%al, %dl	# D.20917, D.20917
	je	.L351	#,
.L350:
	.loc 1 2393 0 is_stmt 1
	jmp	.L352	#
.L355:
	.loc 1 2393 0 is_stmt 0 discriminator 1
	movq	-32(%rbp), %rax	# arg1, tmp228
	movq	32(%rax), %rax	# arg1_2->exp.operands, tmp229
	movq	%rax, -32(%rbp)	# tmp229, arg1
.L352:
	movq	-32(%rbp), %rax	# arg1, tmp230
	movzbl	16(%rax), %eax	# arg1_2->common.code, D.20916
	cmpb	$115, %al	#, D.20916
	je	.L353	#,
	.loc 1 2393 0 discriminator 3
	movq	-32(%rbp), %rax	# arg1, tmp231
	movzbl	16(%rax), %eax	# arg1_2->common.code, D.20916
	cmpb	$114, %al	#, D.20916
	je	.L353	#,
	.loc 1 2393 0 discriminator 1
	movq	-32(%rbp), %rax	# arg1, tmp232
	movzbl	16(%rax), %eax	# arg1_2->common.code, D.20916
	cmpb	$116, %al	#, D.20916
	jne	.L354	#,
.L353:
	.loc 1 2393 0 discriminator 2
	movq	-32(%rbp), %rax	# arg1, tmp233
	movq	32(%rax), %rdx	# arg1_2->exp.operands, D.20914
	movq	global_trees(%rip), %rax	# global_trees, D.20914
	cmpq	%rax, %rdx	# D.20914, D.20914
	je	.L354	#,
	.loc 1 2393 0 discriminator 1
	movq	-32(%rbp), %rax	# arg1, tmp234
	movq	8(%rax), %rax	# arg1_2->common.type, D.20914
	movzbl	61(%rax), %eax	# *_36, tmp237
	shrb	%al	# D.20917
	movl	%eax, %edx	# D.20917, D.20917
	movq	-32(%rbp), %rax	# arg1, tmp238
	movq	32(%rax), %rax	# arg1_2->exp.operands, D.20914
	movq	8(%rax), %rax	# _38->common.type, D.20914
	movzbl	61(%rax), %eax	# *_39, tmp241
	shrb	%al	# D.20917
	cmpb	%al, %dl	# D.20917, D.20917
	je	.L355	#,
.L354:
	.loc 1 2395 0 is_stmt 1
	movq	-24(%rbp), %rax	# arg0, tmp242
	movzbl	16(%rax), %edx	# arg0_1->common.code, D.20916
	movq	-32(%rbp), %rax	# arg1, tmp243
	movzbl	16(%rax), %eax	# arg1_2->common.code, D.20916
	cmpb	%al, %dl	# D.20916, D.20916
	jne	.L356	#,
	.loc 1 2398 0
	movq	-24(%rbp), %rax	# arg0, tmp244
	movq	8(%rax), %rax	# arg0_1->common.type, D.20914
	movzbl	16(%rax), %eax	# _44->common.code, D.20916
	testb	%al, %al	# D.20916
	je	.L356	#,
	.loc 1 2399 0
	movq	-32(%rbp), %rax	# arg1, tmp245
	movq	8(%rax), %rax	# arg1_2->common.type, D.20914
	movzbl	16(%rax), %eax	# _46->common.code, D.20916
	testb	%al, %al	# D.20916
	je	.L356	#,
	.loc 1 2400 0
	movq	-24(%rbp), %rax	# arg0, tmp246
	movq	8(%rax), %rax	# arg0_1->common.type, D.20914
	movzbl	61(%rax), %eax	# *_48, tmp249
	shrb	%al	# D.20917
	movl	%eax, %edx	# D.20917, D.20917
	movq	-32(%rbp), %rax	# arg1, tmp250
	movq	8(%rax), %rax	# arg1_2->common.type, D.20914
	movzbl	61(%rax), %eax	# *_50, tmp253
	shrb	%al	# D.20917
	cmpb	%al, %dl	# D.20917, D.20917
	je	.L357	#,
.L356:
	.loc 1 2401 0
	movl	$0, %eax	#, D.20913
	jmp	.L347	#
.L357:
	.loc 1 2410 0
	movq	-24(%rbp), %rax	# arg0, tmp254
	cmpq	-32(%rbp), %rax	# arg1, tmp254
	jne	.L358	#,
	.loc 1 2410 0 is_stmt 0 discriminator 1
	cmpl	$0, -36(%rbp)	#, only_const
	jne	.L358	#,
	.loc 1 2411 0 is_stmt 1
	movq	-24(%rbp), %rax	# arg0, tmp255
	movzbl	16(%rax), %eax	# arg0_1->common.code, D.20916
	cmpb	$118, %al	#, D.20916
	je	.L359	#,
	.loc 1 2412 0
	movq	-24(%rbp), %rax	# arg0, tmp256
	movzbl	17(%rax), %eax	# *arg0_1, D.20916
	andl	$1, %eax	#, D.20916
	testb	%al, %al	# D.20916
	jne	.L358	#,
	.loc 1 2412 0 is_stmt 0 discriminator 1
	movq	-32(%rbp), %rax	# arg1, tmp257
	movzbl	17(%rax), %eax	# *arg1_2, D.20916
	andl	$1, %eax	#, D.20916
	testb	%al, %al	# D.20916
	jne	.L358	#,
.L359:
	.loc 1 2413 0 is_stmt 1
	movl	$1, %eax	#, D.20913
	jmp	.L347	#
.L358:
	.loc 1 2417 0
	movq	-24(%rbp), %rax	# arg0, tmp258
	movzbl	17(%rax), %eax	# *arg0_1, D.20916
	andl	$2, %eax	#, D.20916
	testb	%al, %al	# D.20916
	je	.L360	#,
	.loc 1 2417 0 is_stmt 0 discriminator 1
	movq	-32(%rbp), %rax	# arg1, tmp259
	movzbl	17(%rax), %eax	# *arg1_2, D.20916
	andl	$2, %eax	#, D.20916
	testb	%al, %al	# D.20916
	je	.L360	#,
	.loc 1 2418 0 is_stmt 1
	movq	-24(%rbp), %rax	# arg0, tmp260
	movzbl	16(%rax), %eax	# arg0_1->common.code, D.20916
	movzbl	%al, %eax	# D.20916, D.20918
	cmpl	$27, %eax	#, D.20918
	je	.L362	#,
	cmpl	$27, %eax	#, D.20918
	ja	.L363	#,
	cmpl	$25, %eax	#, D.20918
	je	.L364	#,
	cmpl	$26, %eax	#, D.20918
	je	.L365	#,
	.loc 1 2468 0
	jmp	.L360	#
.L363:
	.loc 1 2418 0
	cmpl	$29, %eax	#, D.20918
	je	.L366	#,
	cmpl	$29, %eax	#, D.20918
	jb	.L367	#,
	cmpl	$121, %eax	#, D.20918
	je	.L368	#,
	.loc 1 2468 0
	jmp	.L360	#
.L364:
	.loc 1 2421 0
	movq	-24(%rbp), %rax	# arg0, tmp261
	movzbl	18(%rax), %eax	# *arg0_1, D.20916
	andl	$4, %eax	#, D.20916
	.loc 1 2423 0
	testb	%al, %al	# D.20916
	jne	.L369	#,
	.loc 1 2422 0
	movq	-32(%rbp), %rax	# arg1, tmp262
	movzbl	18(%rax), %eax	# *arg1_2, D.20916
	andl	$4, %eax	#, D.20916
	testb	%al, %al	# D.20916
	jne	.L369	#,
	.loc 1 2423 0
	movq	-32(%rbp), %rdx	# arg1, tmp263
	movq	-24(%rbp), %rax	# arg0, tmp264
	movq	%rdx, %rsi	# tmp263,
	movq	%rax, %rdi	# tmp264,
	call	tree_int_cst_equal	#
	testl	%eax, %eax	# D.20913
	je	.L369	#,
	.loc 1 2423 0 is_stmt 0 discriminator 2
	movl	$1, %eax	#, iftmp.166
	jmp	.L370	#
.L369:
	.loc 1 2423 0 discriminator 1
	movl	$0, %eax	#, iftmp.166
.L370:
	.loc 1 2421 0 is_stmt 1
	jmp	.L347	#
.L365:
	.loc 1 2426 0
	movq	-24(%rbp), %rax	# arg0, tmp265
	movzbl	18(%rax), %eax	# *arg0_1, D.20916
	andl	$4, %eax	#, D.20916
	.loc 1 2428 0
	testb	%al, %al	# D.20916
	jne	.L371	#,
	.loc 1 2427 0
	movq	-32(%rbp), %rax	# arg1, tmp266
	movzbl	18(%rax), %eax	# *arg1_2, D.20916
	andl	$4, %eax	#, D.20916
	testb	%al, %al	# D.20916
	jne	.L371	#,
	.loc 1 2428 0
	movq	-32(%rbp), %rax	# arg1, tmp267
	leaq	32(%rax), %rcx	#, D.20919
	movq	-24(%rbp), %rax	# arg0, tmp268
	addq	$32, %rax	#, D.20919
	movl	$24, %edx	#,
	movq	%rcx, %rsi	# D.20919,
	movq	%rax, %rdi	# D.20919,
	call	memcmp	#
	testl	%eax, %eax	# D.20913
	jne	.L371	#,
	.loc 1 2428 0 is_stmt 0 discriminator 2
	movl	$1, %eax	#, iftmp.167
	jmp	.L372	#
.L371:
	.loc 1 2428 0 discriminator 1
	movl	$0, %eax	#, iftmp.167
.L372:
	.loc 1 2426 0 is_stmt 1
	jmp	.L347	#
.L367:
.LBB13:
	.loc 1 2435 0
	movq	-24(%rbp), %rax	# arg0, tmp269
	movzbl	18(%rax), %eax	# *arg0_1, D.20916
	andl	$4, %eax	#, D.20916
	testb	%al, %al	# D.20916
	jne	.L373	#,
	.loc 1 2436 0
	movq	-32(%rbp), %rax	# arg1, tmp270
	movzbl	18(%rax), %eax	# *arg1_2, D.20916
	andl	$4, %eax	#, D.20916
	testb	%al, %al	# D.20916
	je	.L374	#,
.L373:
	.loc 1 2437 0
	movl	$0, %eax	#, D.20913
	jmp	.L347	#
.L374:
	.loc 1 2439 0
	movq	-24(%rbp), %rax	# arg0, tmp271
	movq	32(%rax), %rax	# arg0_1->vector.elements, tmp272
	movq	%rax, -16(%rbp)	# tmp272, v1
	.loc 1 2440 0
	movq	-32(%rbp), %rax	# arg1, tmp273
	movq	32(%rax), %rax	# arg1_2->vector.elements, tmp274
	movq	%rax, -8(%rbp)	# tmp274, v2
	.loc 1 2441 0
	jmp	.L375	#
.L378:
	.loc 1 2443 0
	movl	-36(%rbp), %edx	# only_const, tmp275
	movq	-8(%rbp), %rcx	# v2, tmp276
	movq	-16(%rbp), %rax	# v1, tmp277
	movq	%rcx, %rsi	# tmp276,
	movq	%rax, %rdi	# tmp277,
	call	operand_equal_p	#
	testl	%eax, %eax	# D.20913
	jne	.L376	#,
	.loc 1 2444 0
	movl	$0, %eax	#, D.20913
	jmp	.L347	#
.L376:
	.loc 1 2445 0
	movq	-16(%rbp), %rax	# v1, tmp278
	movq	(%rax), %rax	# v1_3->common.chain, tmp279
	movq	%rax, -16(%rbp)	# tmp279, v1
	.loc 1 2446 0
	movq	-8(%rbp), %rax	# v2, tmp280
	movq	(%rax), %rax	# v2_4->common.chain, tmp281
	movq	%rax, -8(%rbp)	# tmp281, v2
.L375:
	.loc 1 2441 0 discriminator 1
	cmpq	$0, -16(%rbp)	#, v1
	je	.L377	#,
	.loc 1 2441 0 is_stmt 0 discriminator 2
	cmpq	$0, -8(%rbp)	#, v2
	jne	.L378	#,
.L377:
	.loc 1 2449 0 is_stmt 1
	movl	$1, %eax	#, D.20913
	jmp	.L347	#
.L362:
.LBE13:
	.loc 1 2453 0
	movq	-32(%rbp), %rax	# arg1, tmp282
	movq	32(%rax), %rcx	# arg1_2->complex.real, D.20914
	movq	-24(%rbp), %rax	# arg0, tmp283
	movq	32(%rax), %rax	# arg0_1->complex.real, D.20914
	movl	-36(%rbp), %edx	# only_const, tmp284
	movq	%rcx, %rsi	# D.20914,
	movq	%rax, %rdi	# D.20914,
	call	operand_equal_p	#
	.loc 1 2455 0
	testl	%eax, %eax	# D.20913
	je	.L379	#,
	.loc 1 2455 0 is_stmt 0 discriminator 1
	movq	-32(%rbp), %rax	# arg1, tmp285
	movq	40(%rax), %rcx	# arg1_2->complex.imag, D.20914
	movq	-24(%rbp), %rax	# arg0, tmp286
	movq	40(%rax), %rax	# arg0_1->complex.imag, D.20914
	movl	-36(%rbp), %edx	# only_const, tmp287
	movq	%rcx, %rsi	# D.20914,
	movq	%rax, %rdi	# D.20914,
	call	operand_equal_p	#
	testl	%eax, %eax	# D.20913
	je	.L379	#,
	.loc 1 2455 0 discriminator 3
	movl	$1, %eax	#, iftmp.168
	jmp	.L380	#
.L379:
	.loc 1 2455 0 discriminator 2
	movl	$0, %eax	#, iftmp.168
.L380:
	.loc 1 2453 0 is_stmt 1
	jmp	.L347	#
.L366:
	.loc 1 2459 0
	movq	-24(%rbp), %rax	# arg0, tmp288
	movl	32(%rax), %edx	# arg0_1->string.length, D.20913
	movq	-32(%rbp), %rax	# arg1, tmp289
	movl	32(%rax), %eax	# arg1_2->string.length, D.20913
	.loc 1 2460 0
	cmpl	%eax, %edx	# D.20913, D.20913
	jne	.L381	#,
	.loc 1 2462 0 discriminator 1
	movq	-24(%rbp), %rax	# arg0, tmp290
	movl	32(%rax), %eax	# arg0_1->string.length, D.20913
	.loc 1 2460 0 discriminator 1
	movslq	%eax, %rdx	# D.20913, D.20920
	.loc 1 2461 0 discriminator 1
	movq	-32(%rbp), %rax	# arg1, tmp291
	movq	40(%rax), %rcx	# arg1_2->string.pointer, D.20921
	.loc 1 2460 0 discriminator 1
	movq	-24(%rbp), %rax	# arg0, tmp292
	movq	40(%rax), %rax	# arg0_1->string.pointer, D.20921
	movq	%rcx, %rsi	# D.20921,
	movq	%rax, %rdi	# D.20921,
	call	memcmp	#
	testl	%eax, %eax	# D.20913
	jne	.L381	#,
	.loc 1 2460 0 is_stmt 0 discriminator 3
	movl	$1, %eax	#, iftmp.169
	jmp	.L382	#
.L381:
	.loc 1 2460 0 discriminator 2
	movl	$0, %eax	#, iftmp.169
.L382:
	.loc 1 2459 0 is_stmt 1
	jmp	.L347	#
.L368:
	.loc 1 2465 0
	movq	-32(%rbp), %rax	# arg1, tmp293
	movq	32(%rax), %rcx	# arg1_2->exp.operands, D.20914
	movq	-24(%rbp), %rax	# arg0, tmp294
	movq	32(%rax), %rax	# arg0_1->exp.operands, D.20914
	movl	$0, %edx	#,
	movq	%rcx, %rsi	# D.20914,
	movq	%rax, %rdi	# D.20914,
	call	operand_equal_p	#
	jmp	.L347	#
.L360:
	.loc 1 2471 0
	cmpl	$0, -36(%rbp)	#, only_const
	je	.L383	#,
	.loc 1 2472 0
	movl	$0, %eax	#, D.20913
	jmp	.L347	#
.L383:
	.loc 1 2474 0
	movq	-24(%rbp), %rax	# arg0, tmp295
	movzbl	16(%rax), %eax	# arg0_1->common.code, D.20916
	movzbl	%al, %eax	# D.20916, D.20913
	cltq
	movzbl	tree_code_type(%rax), %eax	# tree_code_type, D.20922
	movsbl	%al, %eax	# D.20922, D.20913
	cmpl	$60, %eax	#, D.20913
	je	.L385	#,
	cmpl	$60, %eax	#, D.20913
	jg	.L386	#,
	cmpl	$49, %eax	#, D.20913
	je	.L387	#,
	cmpl	$50, %eax	#, D.20913
	je	.L385	#,
	jmp	.L384	#
.L386:
	cmpl	$101, %eax	#, D.20913
	je	.L388	#,
	cmpl	$114, %eax	#, D.20913
	je	.L389	#,
	jmp	.L384	#
.L387:
	.loc 1 2478 0
	movq	-24(%rbp), %rax	# arg0, tmp297
	movzbl	16(%rax), %eax	# arg0_1->common.code, D.20916
	cmpb	$115, %al	#, D.20916
	je	.L390	#,
	.loc 1 2478 0 is_stmt 0 discriminator 1
	movq	-24(%rbp), %rax	# arg0, tmp298
	movzbl	16(%rax), %eax	# arg0_1->common.code, D.20916
	cmpb	$114, %al	#, D.20916
	jne	.L391	#,
.L390:
	.loc 1 2479 0 is_stmt 1
	movq	-24(%rbp), %rax	# arg0, tmp299
	movq	8(%rax), %rax	# arg0_1->common.type, D.20914
	movzbl	17(%rax), %eax	# *_124, tmp302
	shrb	$5, %al	#, D.20915
	movl	%eax, %edx	# D.20915, D.20915
	andl	$1, %edx	#, D.20915
	.loc 1 2480 0
	movq	-32(%rbp), %rax	# arg1, tmp303
	movq	8(%rax), %rax	# arg1_2->common.type, D.20914
	movzbl	17(%rax), %eax	# *_126, tmp306
	shrb	$5, %al	#, D.20915
	andl	$1, %eax	#, D.20915
	.loc 1 2479 0
	cmpb	%al, %dl	# D.20915, D.20915
	je	.L391	#,
	.loc 1 2481 0
	movl	$0, %eax	#, D.20913
	jmp	.L347	#
.L391:
	.loc 1 2483 0
	movq	-32(%rbp), %rax	# arg1, tmp307
	movq	32(%rax), %rcx	# arg1_2->exp.operands, D.20914
	movq	-24(%rbp), %rax	# arg0, tmp308
	movq	32(%rax), %rax	# arg0_1->exp.operands, D.20914
	movl	$0, %edx	#,
	movq	%rcx, %rsi	# D.20914,
	movq	%rax, %rdi	# D.20914,
	call	operand_equal_p	#
	jmp	.L347	#
.L385:
	.loc 1 2488 0
	movq	-32(%rbp), %rax	# arg1, tmp309
	movq	32(%rax), %rcx	# arg1_2->exp.operands, D.20914
	movq	-24(%rbp), %rax	# arg0, tmp310
	movq	32(%rax), %rax	# arg0_1->exp.operands, D.20914
	movl	$0, %edx	#,
	movq	%rcx, %rsi	# D.20914,
	movq	%rax, %rdi	# D.20914,
	call	operand_equal_p	#
	testl	%eax, %eax	# D.20913
	je	.L392	#,
	.loc 1 2489 0
	movq	-32(%rbp), %rax	# arg1, tmp311
	movq	40(%rax), %rcx	# arg1_2->exp.operands, D.20914
	movq	-24(%rbp), %rax	# arg0, tmp312
	movq	40(%rax), %rax	# arg0_1->exp.operands, D.20914
	movl	$0, %edx	#,
	movq	%rcx, %rsi	# D.20914,
	movq	%rax, %rdi	# D.20914,
	call	operand_equal_p	#
	testl	%eax, %eax	# D.20913
	je	.L392	#,
	.loc 1 2491 0
	movl	$1, %eax	#, D.20913
	jmp	.L347	#
.L392:
	.loc 1 2494 0
	movq	-24(%rbp), %rax	# arg0, tmp313
	movzbl	16(%rax), %eax	# arg0_1->common.code, D.20916
	.loc 1 2502 0
	cmpb	$59, %al	#, D.20916
	je	.L393	#,
	.loc 1 2494 0
	movq	-24(%rbp), %rax	# arg0, tmp314
	movzbl	16(%rax), %eax	# arg0_1->common.code, D.20916
	cmpb	$61, %al	#, D.20916
	je	.L393	#,
	.loc 1 2495 0
	movq	-24(%rbp), %rax	# arg0, tmp315
	movzbl	16(%rax), %eax	# arg0_1->common.code, D.20916
	cmpb	$78, %al	#, D.20916
	je	.L393	#,
	.loc 1 2495 0 is_stmt 0 discriminator 1
	movq	-24(%rbp), %rax	# arg0, tmp316
	movzbl	16(%rax), %eax	# arg0_1->common.code, D.20916
	cmpb	$79, %al	#, D.20916
	je	.L393	#,
	.loc 1 2496 0 is_stmt 1
	movq	-24(%rbp), %rax	# arg0, tmp317
	movzbl	16(%rax), %eax	# arg0_1->common.code, D.20916
	cmpb	$86, %al	#, D.20916
	je	.L393	#,
	.loc 1 2497 0
	movq	-24(%rbp), %rax	# arg0, tmp318
	movzbl	16(%rax), %eax	# arg0_1->common.code, D.20916
	cmpb	$87, %al	#, D.20916
	je	.L393	#,
	.loc 1 2498 0
	movq	-24(%rbp), %rax	# arg0, tmp319
	movzbl	16(%rax), %eax	# arg0_1->common.code, D.20916
	cmpb	$88, %al	#, D.20916
	je	.L393	#,
	.loc 1 2499 0
	movq	-24(%rbp), %rax	# arg0, tmp320
	movzbl	16(%rax), %eax	# arg0_1->common.code, D.20916
	cmpb	$102, %al	#, D.20916
	je	.L393	#,
	.loc 1 2499 0 is_stmt 0 discriminator 1
	movq	-24(%rbp), %rax	# arg0, tmp321
	movzbl	16(%rax), %eax	# arg0_1->common.code, D.20916
	cmpb	$101, %al	#, D.20916
	jne	.L394	#,
.L393:
	.loc 1 2500 0 is_stmt 1
	movq	-32(%rbp), %rax	# arg1, tmp322
	movq	40(%rax), %rcx	# arg1_2->exp.operands, D.20914
	movq	-24(%rbp), %rax	# arg0, tmp323
	movq	32(%rax), %rax	# arg0_1->exp.operands, D.20914
	movl	$0, %edx	#,
	movq	%rcx, %rsi	# D.20914,
	movq	%rax, %rdi	# D.20914,
	call	operand_equal_p	#
	testl	%eax, %eax	# D.20913
	je	.L394	#,
	.loc 1 2502 0
	movq	-32(%rbp), %rax	# arg1, tmp324
	movq	32(%rax), %rcx	# arg1_2->exp.operands, D.20914
	movq	-24(%rbp), %rax	# arg0, tmp325
	movq	40(%rax), %rax	# arg0_1->exp.operands, D.20914
	movl	$0, %edx	#,
	movq	%rcx, %rsi	# D.20914,
	movq	%rax, %rdi	# D.20914,
	call	operand_equal_p	#
	testl	%eax, %eax	# D.20913
	je	.L394	#,
	.loc 1 2502 0 is_stmt 0 discriminator 1
	movl	$1, %eax	#, iftmp.170
	jmp	.L395	#
.L394:
	.loc 1 2502 0 discriminator 2
	movl	$0, %eax	#, iftmp.170
.L395:
	.loc 1 2494 0 is_stmt 1
	jmp	.L347	#
.L389:
	.loc 1 2508 0
	movq	-24(%rbp), %rax	# arg0, tmp326
	movzbl	17(%rax), %eax	# *arg0_1, D.20916
	andl	$1, %eax	#, D.20916
	testb	%al, %al	# D.20916
	jne	.L396	#,
	.loc 1 2509 0
	movq	-32(%rbp), %rax	# arg1, tmp327
	movzbl	17(%rax), %eax	# *arg1_2, D.20916
	andl	$1, %eax	#, D.20916
	testb	%al, %al	# D.20916
	je	.L397	#,
.L396:
	.loc 1 2510 0
	movl	$0, %eax	#, D.20913
	jmp	.L347	#
.L397:
	.loc 1 2512 0
	movq	-24(%rbp), %rax	# arg0, tmp328
	movzbl	16(%rax), %eax	# arg0_1->common.code, D.20916
	movzbl	%al, %eax	# D.20916, D.20918
	subl	$39, %eax	#, tmp329
	cmpl	$5, %eax	#, tmp329
	ja	.L398	#,
	movl	%eax, %eax	# tmp329, tmp330
	movq	.L400(,%rax,8), %rax	#, tmp331
	jmp	*%rax	# tmp331
	.section	.rodata
	.align 8
	.align 4
.L400:
	.quad	.L399
	.quad	.L401
	.quad	.L402
	.quad	.L398
	.quad	.L399
	.quad	.L399
	.text
.L402:
	.loc 1 2515 0
	movq	-32(%rbp), %rax	# arg1, tmp332
	movq	32(%rax), %rcx	# arg1_2->exp.operands, D.20914
	movq	-24(%rbp), %rax	# arg0, tmp333
	movq	32(%rax), %rax	# arg0_1->exp.operands, D.20914
	movl	$0, %edx	#,
	movq	%rcx, %rsi	# D.20914,
	movq	%rax, %rdi	# D.20914,
	call	operand_equal_p	#
	jmp	.L347	#
.L399:
	.loc 1 2521 0
	movq	-32(%rbp), %rax	# arg1, tmp334
	movq	32(%rax), %rcx	# arg1_2->exp.operands, D.20914
	movq	-24(%rbp), %rax	# arg0, tmp335
	movq	32(%rax), %rax	# arg0_1->exp.operands, D.20914
	movl	$0, %edx	#,
	movq	%rcx, %rsi	# D.20914,
	movq	%rax, %rdi	# D.20914,
	call	operand_equal_p	#
	.loc 1 2523 0
	testl	%eax, %eax	# D.20913
	je	.L403	#,
	.loc 1 2523 0 is_stmt 0 discriminator 1
	movq	-32(%rbp), %rax	# arg1, tmp336
	movq	40(%rax), %rcx	# arg1_2->exp.operands, D.20914
	movq	-24(%rbp), %rax	# arg0, tmp337
	movq	40(%rax), %rax	# arg0_1->exp.operands, D.20914
	movl	$0, %edx	#,
	movq	%rcx, %rsi	# D.20914,
	movq	%rax, %rdi	# D.20914,
	call	operand_equal_p	#
	testl	%eax, %eax	# D.20913
	je	.L403	#,
	.loc 1 2523 0 discriminator 3
	movl	$1, %eax	#, iftmp.171
	jmp	.L404	#
.L403:
	.loc 1 2523 0 discriminator 2
	movl	$0, %eax	#, iftmp.171
.L404:
	.loc 1 2521 0 is_stmt 1
	jmp	.L347	#
.L401:
	.loc 1 2527 0
	movq	-32(%rbp), %rax	# arg1, tmp338
	movq	32(%rax), %rcx	# arg1_2->exp.operands, D.20914
	movq	-24(%rbp), %rax	# arg0, tmp339
	movq	32(%rax), %rax	# arg0_1->exp.operands, D.20914
	movl	$0, %edx	#,
	movq	%rcx, %rsi	# D.20914,
	movq	%rax, %rdi	# D.20914,
	call	operand_equal_p	#
	.loc 1 2531 0
	testl	%eax, %eax	# D.20913
	je	.L405	#,
	.loc 1 2529 0
	movq	-32(%rbp), %rax	# arg1, tmp340
	movq	40(%rax), %rcx	# arg1_2->exp.operands, D.20914
	movq	-24(%rbp), %rax	# arg0, tmp341
	movq	40(%rax), %rax	# arg0_1->exp.operands, D.20914
	movl	$0, %edx	#,
	movq	%rcx, %rsi	# D.20914,
	movq	%rax, %rdi	# D.20914,
	call	operand_equal_p	#
	testl	%eax, %eax	# D.20913
	je	.L405	#,
	.loc 1 2531 0
	movq	-32(%rbp), %rax	# arg1, tmp342
	movq	48(%rax), %rcx	# arg1_2->exp.operands, D.20914
	movq	-24(%rbp), %rax	# arg0, tmp343
	movq	48(%rax), %rax	# arg0_1->exp.operands, D.20914
	movl	$0, %edx	#,
	movq	%rcx, %rsi	# D.20914,
	movq	%rax, %rdi	# D.20914,
	call	operand_equal_p	#
	testl	%eax, %eax	# D.20913
	je	.L405	#,
	.loc 1 2531 0 is_stmt 0 discriminator 2
	movl	$1, %eax	#, iftmp.172
	jmp	.L406	#
.L405:
	.loc 1 2531 0 discriminator 1
	movl	$0, %eax	#, iftmp.172
.L406:
	.loc 1 2527 0 is_stmt 1
	jmp	.L347	#
.L398:
	.loc 1 2534 0
	movl	$0, %eax	#, D.20913
	jmp	.L347	#
.L388:
	.loc 1 2538 0
	movq	-24(%rbp), %rax	# arg0, tmp344
	movzbl	16(%rax), %eax	# arg0_1->common.code, D.20916
	cmpb	$120, %al	#, D.20916
	jne	.L407	#,
	.loc 1 2539 0
	movq	-32(%rbp), %rax	# arg1, tmp345
	addq	$40, %rax	#, D.20923
	movq	(%rax), %rdx	# MEM[(struct rtx_def * *)_190], D.20924
	movq	-24(%rbp), %rax	# arg0, tmp346
	addq	$40, %rax	#, D.20923
	movq	(%rax), %rax	# MEM[(struct rtx_def * *)_192], D.20924
	movq	%rdx, %rsi	# D.20924,
	movq	%rax, %rdi	# D.20924,
	call	rtx_equal_p	#
	jmp	.L347	#
.L407:
	.loc 1 2540 0
	movl	$0, %eax	#, D.20913
	jmp	.L347	#
.L384:
	.loc 1 2543 0
	movl	$0, %eax	#, D.20913
.L347:
	.loc 1 2545 0
	leave
	.cfi_def_cfa 7, 8
	ret
	.cfi_endproc
.LFE32:
	.size	operand_equal_p, .-operand_equal_p
	.type	operand_equal_for_comparison_p, @function
operand_equal_for_comparison_p:
.LFB33:
	.loc 1 2556 0
	.cfi_startproc
	pushq	%rbp	#
	.cfi_def_cfa_offset 16
	.cfi_offset 6, -16
	movq	%rsp, %rbp	#,
	.cfi_def_cfa_register 6
	subq	$80, %rsp	#,
	movq	%rdi, -56(%rbp)	# arg0, arg0
	movq	%rsi, -64(%rbp)	# arg1, arg1
	movq	%rdx, -72(%rbp)	# other, other
	.loc 1 2561 0
	movq	-64(%rbp), %rcx	# arg1, tmp114
	movq	-56(%rbp), %rax	# arg0, tmp115
	movl	$0, %edx	#,
	movq	%rcx, %rsi	# tmp114,
	movq	%rax, %rdi	# tmp115,
	call	operand_equal_p	#
	testl	%eax, %eax	# D.20927
	je	.L409	#,
	.loc 1 2562 0
	movl	$1, %eax	#, D.20927
	jmp	.L424	#
.L409:
	.loc 1 2564 0
	movq	-56(%rbp), %rax	# arg0, tmp116
	movq	8(%rax), %rax	# arg0_4(D)->common.type, D.20928
	movzbl	16(%rax), %eax	# _8->common.code, D.20929
	cmpb	$6, %al	#, D.20929
	je	.L411	#,
	.loc 1 2564 0 is_stmt 0 discriminator 1
	movq	-56(%rbp), %rax	# arg0, tmp117
	movq	8(%rax), %rax	# arg0_4(D)->common.type, D.20928
	movzbl	16(%rax), %eax	# _10->common.code, D.20929
	cmpb	$10, %al	#, D.20929
	je	.L411	#,
	movq	-56(%rbp), %rax	# arg0, tmp118
	movq	8(%rax), %rax	# arg0_4(D)->common.type, D.20928
	movzbl	16(%rax), %eax	# _12->common.code, D.20929
	cmpb	$11, %al	#, D.20929
	je	.L411	#,
	movq	-56(%rbp), %rax	# arg0, tmp119
	movq	8(%rax), %rax	# arg0_4(D)->common.type, D.20928
	movzbl	16(%rax), %eax	# _14->common.code, D.20929
	cmpb	$12, %al	#, D.20929
	jne	.L412	#,
.L411:
	.loc 1 2565 0 is_stmt 1
	movq	-64(%rbp), %rax	# arg1, tmp120
	movq	8(%rax), %rax	# arg1_5(D)->common.type, D.20928
	movzbl	16(%rax), %eax	# _16->common.code, D.20929
	cmpb	$6, %al	#, D.20929
	je	.L413	#,
	.loc 1 2565 0 is_stmt 0 discriminator 1
	movq	-64(%rbp), %rax	# arg1, tmp121
	movq	8(%rax), %rax	# arg1_5(D)->common.type, D.20928
	movzbl	16(%rax), %eax	# _18->common.code, D.20929
	cmpb	$10, %al	#, D.20929
	je	.L413	#,
	movq	-64(%rbp), %rax	# arg1, tmp122
	movq	8(%rax), %rax	# arg1_5(D)->common.type, D.20928
	movzbl	16(%rax), %eax	# _20->common.code, D.20929
	cmpb	$11, %al	#, D.20929
	je	.L413	#,
	movq	-64(%rbp), %rax	# arg1, tmp123
	movq	8(%rax), %rax	# arg1_5(D)->common.type, D.20928
	movzbl	16(%rax), %eax	# _22->common.code, D.20929
	cmpb	$12, %al	#, D.20929
	je	.L413	#,
.L412:
	.loc 1 2566 0 is_stmt 1
	movl	$0, %eax	#, D.20927
	jmp	.L424	#
.L413:
	.loc 1 2571 0
	movq	-56(%rbp), %rax	# arg0, tmp124
	movq	%rax, -32(%rbp)	# tmp124, primarg0
	movq	-64(%rbp), %rax	# arg1, tmp125
	movq	%rax, -24(%rbp)	# tmp125, primarg1
	.loc 1 2572 0
	jmp	.L414	#
.L417:
	.loc 1 2572 0 is_stmt 0 discriminator 1
	movq	-32(%rbp), %rax	# primarg0, tmp126
	movq	32(%rax), %rax	# primarg0_1->exp.operands, tmp127
	movq	%rax, -32(%rbp)	# tmp127, primarg0
.L414:
	movq	-32(%rbp), %rax	# primarg0, tmp128
	movzbl	16(%rax), %eax	# primarg0_1->common.code, D.20929
	cmpb	$115, %al	#, D.20929
	je	.L415	#,
	.loc 1 2572 0 discriminator 3
	movq	-32(%rbp), %rax	# primarg0, tmp129
	movzbl	16(%rax), %eax	# primarg0_1->common.code, D.20929
	cmpb	$114, %al	#, D.20929
	je	.L415	#,
	.loc 1 2572 0 discriminator 1
	movq	-32(%rbp), %rax	# primarg0, tmp130
	movzbl	16(%rax), %eax	# primarg0_1->common.code, D.20929
	cmpb	$116, %al	#, D.20929
	jne	.L416	#,
.L415:
	.loc 1 2572 0 discriminator 2
	movq	-32(%rbp), %rax	# primarg0, tmp131
	movq	32(%rax), %rdx	# primarg0_1->exp.operands, D.20928
	movq	global_trees(%rip), %rax	# global_trees, D.20928
	cmpq	%rax, %rdx	# D.20928, D.20928
	je	.L416	#,
	.loc 1 2572 0 discriminator 1
	movq	-32(%rbp), %rax	# primarg0, tmp132
	movq	8(%rax), %rax	# primarg0_1->common.type, D.20928
	movzbl	61(%rax), %eax	# *_31, tmp135
	shrb	%al	# D.20930
	movl	%eax, %edx	# D.20930, D.20930
	movq	-32(%rbp), %rax	# primarg0, tmp136
	movq	32(%rax), %rax	# primarg0_1->exp.operands, D.20928
	movq	8(%rax), %rax	# _33->common.type, D.20928
	movzbl	61(%rax), %eax	# *_34, tmp139
	shrb	%al	# D.20930
	cmpb	%al, %dl	# D.20930, D.20930
	je	.L417	#,
.L416:
	.loc 1 2573 0 is_stmt 1
	jmp	.L418	#
.L421:
	.loc 1 2573 0 is_stmt 0 discriminator 1
	movq	-24(%rbp), %rax	# primarg1, tmp140
	movq	32(%rax), %rax	# primarg1_2->exp.operands, tmp141
	movq	%rax, -24(%rbp)	# tmp141, primarg1
.L418:
	movq	-24(%rbp), %rax	# primarg1, tmp142
	movzbl	16(%rax), %eax	# primarg1_2->common.code, D.20929
	cmpb	$115, %al	#, D.20929
	je	.L419	#,
	.loc 1 2573 0 discriminator 3
	movq	-24(%rbp), %rax	# primarg1, tmp143
	movzbl	16(%rax), %eax	# primarg1_2->common.code, D.20929
	cmpb	$114, %al	#, D.20929
	je	.L419	#,
	.loc 1 2573 0 discriminator 1
	movq	-24(%rbp), %rax	# primarg1, tmp144
	movzbl	16(%rax), %eax	# primarg1_2->common.code, D.20929
	cmpb	$116, %al	#, D.20929
	jne	.L420	#,
.L419:
	.loc 1 2573 0 discriminator 2
	movq	-24(%rbp), %rax	# primarg1, tmp145
	movq	32(%rax), %rdx	# primarg1_2->exp.operands, D.20928
	movq	global_trees(%rip), %rax	# global_trees, D.20928
	cmpq	%rax, %rdx	# D.20928, D.20928
	je	.L420	#,
	.loc 1 2573 0 discriminator 1
	movq	-24(%rbp), %rax	# primarg1, tmp146
	movq	8(%rax), %rax	# primarg1_2->common.type, D.20928
	movzbl	61(%rax), %eax	# *_42, tmp149
	shrb	%al	# D.20930
	movl	%eax, %edx	# D.20930, D.20930
	movq	-24(%rbp), %rax	# primarg1, tmp150
	movq	32(%rax), %rax	# primarg1_2->exp.operands, D.20928
	movq	8(%rax), %rax	# _44->common.type, D.20928
	movzbl	61(%rax), %eax	# *_45, tmp153
	shrb	%al	# D.20930
	cmpb	%al, %dl	# D.20930, D.20930
	je	.L421	#,
.L420:
	.loc 1 2574 0 is_stmt 1
	movq	-24(%rbp), %rcx	# primarg1, tmp154
	movq	-32(%rbp), %rax	# primarg0, tmp155
	movl	$0, %edx	#,
	movq	%rcx, %rsi	# tmp154,
	movq	%rax, %rdi	# tmp155,
	call	operand_equal_p	#
	testl	%eax, %eax	# D.20927
	je	.L422	#,
	.loc 1 2575 0
	movl	$1, %eax	#, D.20927
	jmp	.L424	#
.L422:
	.loc 1 2583 0
	leaq	-44(%rbp), %rdx	#, tmp156
	movq	-64(%rbp), %rax	# arg1, tmp157
	movq	%rdx, %rsi	# tmp156,
	movq	%rax, %rdi	# tmp157,
	call	get_narrower	#
	movq	%rax, -24(%rbp)	# tmp158, primarg1
	.loc 1 2584 0
	leaq	-40(%rbp), %rdx	#, tmp159
	movq	-72(%rbp), %rax	# other, tmp160
	movq	%rdx, %rsi	# tmp159,
	movq	%rax, %rdi	# tmp160,
	call	get_narrower	#
	movq	%rax, -16(%rbp)	# tmp161, primother
	.loc 1 2586 0
	movq	-64(%rbp), %rax	# arg1, tmp162
	movq	8(%rax), %rax	# arg1_5(D)->common.type, D.20928
	movzwl	60(%rax), %eax	# *_53, tmp165
	andw	$511, %ax	#, D.20931
	movzwl	%ax, %eax	# D.20931, tmp166
	movl	%eax, -36(%rbp)	# tmp166, correct_width
	.loc 1 2587 0
	movl	-44(%rbp), %edx	# unsignedp1, unsignedp1.173
	movl	-40(%rbp), %eax	# unsignedpo, unsignedpo.174
	cmpl	%eax, %edx	# unsignedpo.174, unsignedp1.173
	jne	.L423	#,
	.loc 1 2588 0
	movq	-24(%rbp), %rax	# primarg1, tmp167
	movq	8(%rax), %rax	# primarg1_50->common.type, D.20928
	movzwl	60(%rax), %eax	# *_58, tmp170
	andw	$511, %ax	#, D.20931
	movzwl	%ax, %eax	# D.20931, D.20932
	cmpl	-36(%rbp), %eax	# correct_width, D.20932
	jae	.L423	#,
	.loc 1 2589 0
	movq	-16(%rbp), %rax	# primother, tmp171
	movq	8(%rax), %rax	# primother_52->common.type, D.20928
	movzwl	60(%rax), %eax	# *_61, tmp174
	andw	$511, %ax	#, D.20931
	movzwl	%ax, %eax	# D.20931, D.20932
	cmpl	-36(%rbp), %eax	# correct_width, D.20932
	jae	.L423	#,
.LBB14:
	.loc 1 2591 0
	movq	-56(%rbp), %rax	# arg0, tmp175
	movq	8(%rax), %rax	# arg0_4(D)->common.type, tmp176
	movq	%rax, -8(%rbp)	# tmp176, type
	.loc 1 2595 0
	movq	-24(%rbp), %rax	# primarg1, tmp177
	movq	8(%rax), %rdx	# primarg1_50->common.type, D.20928
	movl	-44(%rbp), %eax	# unsignedp1, unsignedp1.175
	movq	%rdx, %rsi	# D.20928,
	movl	%eax, %edi	# unsignedp1.175,
	call	signed_or_unsigned_type	#
	movq	-24(%rbp), %rdx	# primarg1, tmp178
	movq	%rdx, %rsi	# tmp178,
	movq	%rax, %rdi	# D.20928,
	call	convert	#
	movq	%rax, -24(%rbp)	# tmp179, primarg1
	.loc 1 2599 0
	movq	-24(%rbp), %rdx	# primarg1, tmp180
	movq	-8(%rbp), %rax	# type, tmp181
	movq	%rdx, %rsi	# tmp180,
	movq	%rax, %rdi	# tmp181,
	call	convert	#
	movq	%rax, %rcx	#, D.20928
	movq	-56(%rbp), %rax	# arg0, tmp182
	movl	$0, %edx	#,
	movq	%rcx, %rsi	# D.20928,
	movq	%rax, %rdi	# tmp182,
	call	operand_equal_p	#
	testl	%eax, %eax	# D.20927
	je	.L423	#,
	.loc 1 2600 0
	movl	$1, %eax	#, D.20927
	jmp	.L424	#
.L423:
.LBE14:
	.loc 1 2603 0
	movl	$0, %eax	#, D.20927
.L424:
	.loc 1 2604 0
	leave
	.cfi_def_cfa 7, 8
	ret
	.cfi_endproc
.LFE33:
	.size	operand_equal_for_comparison_p, .-operand_equal_for_comparison_p
	.type	twoval_comparison_p, @function
twoval_comparison_p:
.LFB34:
	.loc 1 2621 0
	.cfi_startproc
	pushq	%rbp	#
	.cfi_def_cfa_offset 16
	.cfi_offset 6, -16
	movq	%rsp, %rbp	#,
	.cfi_def_cfa_register 6
	subq	$48, %rsp	#,
	movq	%rdi, -24(%rbp)	# arg, arg
	movq	%rsi, -32(%rbp)	# cval1, cval1
	movq	%rdx, -40(%rbp)	# cval2, cval2
	movq	%rcx, -48(%rbp)	# save_p, save_p
	.loc 1 2622 0
	movq	-24(%rbp), %rax	# arg, tmp105
	movzbl	16(%rax), %eax	# arg_5(D)->common.code, D.20934
	movzbl	%al, %eax	# D.20934, tmp106
	movl	%eax, -4(%rbp)	# tmp106, code
	.loc 1 2623 0
	movl	-4(%rbp), %eax	# code, code.176
	cltq
	movzbl	tree_code_type(%rax), %eax	# tree_code_type, tmp108
	movb	%al, -5(%rbp)	# tmp108, class
	.loc 1 2626 0
	cmpb	$101, -5(%rbp)	#, class
	jne	.L426	#,
	.loc 1 2626 0 is_stmt 0 discriminator 1
	cmpl	$96, -4(%rbp)	#, code
	jne	.L426	#,
	.loc 1 2627 0 is_stmt 1
	movb	$49, -5(%rbp)	#, class
	jmp	.L427	#
.L426:
	.loc 1 2628 0
	cmpb	$101, -5(%rbp)	#, class
	jne	.L428	#,
	.loc 1 2629 0
	cmpl	$91, -4(%rbp)	#, code
	je	.L429	#,
	.loc 1 2629 0 is_stmt 0 discriminator 1
	cmpl	$92, -4(%rbp)	#, code
	je	.L429	#,
	.loc 1 2630 0 is_stmt 1
	cmpl	$47, -4(%rbp)	#, code
	jne	.L428	#,
.L429:
	.loc 1 2631 0
	movb	$50, -5(%rbp)	#, class
	jmp	.L427	#
.L428:
	.loc 1 2633 0
	cmpb	$101, -5(%rbp)	#, class
	jne	.L427	#,
	.loc 1 2633 0 is_stmt 0 discriminator 1
	cmpl	$118, -4(%rbp)	#, code
	jne	.L427	#,
	movq	-24(%rbp), %rax	# arg, tmp109
	addq	$48, %rax	#, D.20935
	movq	(%rax), %rax	# MEM[(struct rtx_def * *)_12], D.20936
	testq	%rax, %rax	# D.20936
	jne	.L427	#,
	.loc 1 2634 0 is_stmt 1
	movq	-24(%rbp), %rax	# arg, tmp110
	movq	32(%rax), %rax	# arg_5(D)->exp.operands, D.20937
	movzbl	17(%rax), %eax	# *_14, D.20934
	andl	$1, %eax	#, D.20934
	testb	%al, %al	# D.20934
	jne	.L427	#,
	.loc 1 2638 0
	movq	-32(%rbp), %rax	# cval1, tmp111
	movq	(%rax), %rax	# *cval1_17(D), D.20937
	testq	%rax, %rax	# D.20937
	jne	.L430	#,
	.loc 1 2638 0 is_stmt 0 discriminator 1
	movq	-40(%rbp), %rax	# cval2, tmp112
	movq	(%rax), %rax	# *cval2_19(D), D.20937
	testq	%rax, %rax	# D.20937
	je	.L431	#,
.L430:
	.loc 1 2639 0 is_stmt 1
	movl	$0, %eax	#, D.20933
	jmp	.L432	#
.L431:
	.loc 1 2641 0
	movb	$49, -5(%rbp)	#, class
	.loc 1 2642 0
	movq	-48(%rbp), %rax	# save_p, tmp113
	movl	$1, (%rax)	#, *save_p_22(D)
.L427:
	.loc 1 2645 0
	movsbl	-5(%rbp), %eax	# class, D.20933
	cmpl	$60, %eax	#, D.20933
	je	.L434	#,
	cmpl	$60, %eax	#, D.20933
	jg	.L435	#,
	cmpl	$49, %eax	#, D.20933
	je	.L436	#,
	cmpl	$50, %eax	#, D.20933
	je	.L437	#,
	jmp	.L433	#
.L435:
	cmpl	$99, %eax	#, D.20933
	je	.L438	#,
	cmpl	$101, %eax	#, D.20933
	je	.L439	#,
	jmp	.L433	#
.L436:
	.loc 1 2648 0
	movq	-24(%rbp), %rax	# arg, tmp114
	movq	32(%rax), %rax	# arg_5(D)->exp.operands, D.20937
	movq	-48(%rbp), %rcx	# save_p, tmp115
	movq	-40(%rbp), %rdx	# cval2, tmp116
	movq	-32(%rbp), %rsi	# cval1, tmp117
	movq	%rax, %rdi	# D.20937,
	call	twoval_comparison_p	#
	jmp	.L432	#
.L437:
	.loc 1 2651 0
	movq	-24(%rbp), %rax	# arg, tmp118
	movq	32(%rax), %rax	# arg_5(D)->exp.operands, D.20937
	movq	-48(%rbp), %rcx	# save_p, tmp119
	movq	-40(%rbp), %rdx	# cval2, tmp120
	movq	-32(%rbp), %rsi	# cval1, tmp121
	movq	%rax, %rdi	# D.20937,
	call	twoval_comparison_p	#
	.loc 1 2652 0
	testl	%eax, %eax	# D.20933
	je	.L440	#,
	.loc 1 2652 0 is_stmt 0 discriminator 1
	movq	-24(%rbp), %rax	# arg, tmp122
	movq	40(%rax), %rax	# arg_5(D)->exp.operands, D.20937
	movq	-48(%rbp), %rcx	# save_p, tmp123
	movq	-40(%rbp), %rdx	# cval2, tmp124
	movq	-32(%rbp), %rsi	# cval1, tmp125
	movq	%rax, %rdi	# D.20937,
	call	twoval_comparison_p	#
	testl	%eax, %eax	# D.20933
	je	.L440	#,
	.loc 1 2652 0 discriminator 3
	movl	$1, %eax	#, iftmp.177
	jmp	.L441	#
.L440:
	.loc 1 2652 0 discriminator 2
	movl	$0, %eax	#, iftmp.177
.L441:
	.loc 1 2651 0 is_stmt 1
	jmp	.L432	#
.L438:
	.loc 1 2656 0
	movl	$1, %eax	#, D.20933
	jmp	.L432	#
.L439:
	.loc 1 2659 0
	cmpl	$51, -4(%rbp)	#, code
	jne	.L442	#,
	.loc 1 2660 0
	movq	-24(%rbp), %rax	# arg, tmp126
	movq	32(%rax), %rax	# arg_5(D)->exp.operands, D.20937
	movq	-48(%rbp), %rcx	# save_p, tmp127
	movq	-40(%rbp), %rdx	# cval2, tmp128
	movq	-32(%rbp), %rsi	# cval1, tmp129
	movq	%rax, %rdi	# D.20937,
	call	twoval_comparison_p	#
	.loc 1 2664 0
	testl	%eax, %eax	# D.20933
	je	.L443	#,
	.loc 1 2662 0
	movq	-24(%rbp), %rax	# arg, tmp130
	movq	40(%rax), %rax	# arg_5(D)->exp.operands, D.20937
	movq	-48(%rbp), %rcx	# save_p, tmp131
	movq	-40(%rbp), %rdx	# cval2, tmp132
	movq	-32(%rbp), %rsi	# cval1, tmp133
	movq	%rax, %rdi	# D.20937,
	call	twoval_comparison_p	#
	testl	%eax, %eax	# D.20933
	je	.L443	#,
	.loc 1 2664 0
	movq	-24(%rbp), %rax	# arg, tmp134
	movq	48(%rax), %rax	# arg_5(D)->exp.operands, D.20937
	movq	-48(%rbp), %rcx	# save_p, tmp135
	movq	-40(%rbp), %rdx	# cval2, tmp136
	movq	-32(%rbp), %rsi	# cval1, tmp137
	movq	%rax, %rdi	# D.20937,
	call	twoval_comparison_p	#
	testl	%eax, %eax	# D.20933
	je	.L443	#,
	.loc 1 2664 0 is_stmt 0 discriminator 2
	movl	$1, %eax	#, iftmp.178
	jmp	.L444	#
.L443:
	.loc 1 2664 0 discriminator 1
	movl	$0, %eax	#, iftmp.178
.L444:
	.loc 1 2660 0 is_stmt 1
	jmp	.L432	#
.L442:
	.loc 1 2666 0
	movl	$0, %eax	#, D.20933
	jmp	.L432	#
.L434:
	.loc 1 2675 0
	movq	-24(%rbp), %rax	# arg, tmp138
	movq	40(%rax), %rcx	# arg_5(D)->exp.operands, D.20937
	movq	-24(%rbp), %rax	# arg, tmp139
	movq	32(%rax), %rax	# arg_5(D)->exp.operands, D.20937
	movl	$0, %edx	#,
	movq	%rcx, %rsi	# D.20937,
	movq	%rax, %rdi	# D.20937,
	call	operand_equal_p	#
	testl	%eax, %eax	# D.20933
	je	.L445	#,
	.loc 1 2677 0
	movl	$0, %eax	#, D.20933
	jmp	.L432	#
.L445:
	.loc 1 2679 0
	movq	-32(%rbp), %rax	# cval1, tmp140
	movq	(%rax), %rax	# *cval1_17(D), D.20937
	testq	%rax, %rax	# D.20937
	jne	.L446	#,
	.loc 1 2680 0
	movq	-24(%rbp), %rax	# arg, tmp141
	movq	32(%rax), %rdx	# arg_5(D)->exp.operands, D.20937
	movq	-32(%rbp), %rax	# cval1, tmp142
	movq	%rdx, (%rax)	# D.20937, *cval1_17(D)
	jmp	.L447	#
.L446:
	.loc 1 2681 0
	movq	-24(%rbp), %rax	# arg, tmp143
	movq	32(%rax), %rcx	# arg_5(D)->exp.operands, D.20937
	movq	-32(%rbp), %rax	# cval1, tmp144
	movq	(%rax), %rax	# *cval1_17(D), D.20937
	movl	$0, %edx	#,
	movq	%rcx, %rsi	# D.20937,
	movq	%rax, %rdi	# D.20937,
	call	operand_equal_p	#
	testl	%eax, %eax	# D.20933
	jne	.L447	#,
	.loc 1 2683 0
	movq	-40(%rbp), %rax	# cval2, tmp145
	movq	(%rax), %rax	# *cval2_19(D), D.20937
	testq	%rax, %rax	# D.20937
	jne	.L448	#,
	.loc 1 2684 0
	movq	-24(%rbp), %rax	# arg, tmp146
	movq	32(%rax), %rdx	# arg_5(D)->exp.operands, D.20937
	movq	-40(%rbp), %rax	# cval2, tmp147
	movq	%rdx, (%rax)	# D.20937, *cval2_19(D)
	jmp	.L447	#
.L448:
	.loc 1 2685 0
	movq	-24(%rbp), %rax	# arg, tmp148
	movq	32(%rax), %rcx	# arg_5(D)->exp.operands, D.20937
	movq	-40(%rbp), %rax	# cval2, tmp149
	movq	(%rax), %rax	# *cval2_19(D), D.20937
	movl	$0, %edx	#,
	movq	%rcx, %rsi	# D.20937,
	movq	%rax, %rdi	# D.20937,
	call	operand_equal_p	#
	testl	%eax, %eax	# D.20933
	jne	.L447	#,
	.loc 1 2688 0
	movl	$0, %eax	#, D.20933
	jmp	.L432	#
.L447:
	.loc 1 2690 0
	movq	-24(%rbp), %rax	# arg, tmp150
	movq	40(%rax), %rcx	# arg_5(D)->exp.operands, D.20937
	movq	-32(%rbp), %rax	# cval1, tmp151
	movq	(%rax), %rax	# *cval1_17(D), D.20937
	movl	$0, %edx	#,
	movq	%rcx, %rsi	# D.20937,
	movq	%rax, %rdi	# D.20937,
	call	operand_equal_p	#
	testl	%eax, %eax	# D.20933
	jne	.L449	#,
	.loc 1 2692 0
	movq	-40(%rbp), %rax	# cval2, tmp152
	movq	(%rax), %rax	# *cval2_19(D), D.20937
	testq	%rax, %rax	# D.20937
	jne	.L450	#,
	.loc 1 2693 0
	movq	-24(%rbp), %rax	# arg, tmp153
	movq	40(%rax), %rdx	# arg_5(D)->exp.operands, D.20937
	movq	-40(%rbp), %rax	# cval2, tmp154
	movq	%rdx, (%rax)	# D.20937, *cval2_19(D)
	jmp	.L449	#
.L450:
	.loc 1 2694 0
	movq	-24(%rbp), %rax	# arg, tmp155
	movq	40(%rax), %rcx	# arg_5(D)->exp.operands, D.20937
	movq	-40(%rbp), %rax	# cval2, tmp156
	movq	(%rax), %rax	# *cval2_19(D), D.20937
	movl	$0, %edx	#,
	movq	%rcx, %rsi	# D.20937,
	movq	%rax, %rdi	# D.20937,
	call	operand_equal_p	#
	testl	%eax, %eax	# D.20933
	jne	.L449	#,
	.loc 1 2697 0
	movl	$0, %eax	#, D.20933
	jmp	.L432	#
.L449:
	.loc 1 2699 0
	movl	$1, %eax	#, D.20933
	jmp	.L432	#
.L433:
	.loc 1 2702 0
	movl	$0, %eax	#, D.20933
.L432:
	.loc 1 2704 0
	leave
	.cfi_def_cfa 7, 8
	ret
	.cfi_endproc
.LFE34:
	.size	twoval_comparison_p, .-twoval_comparison_p
	.type	eval_subst, @function
eval_subst:
.LFB35:
	.loc 1 2715 0
	.cfi_startproc
	pushq	%rbp	#
	.cfi_def_cfa_offset 16
	.cfi_offset 6, -16
	movq	%rsp, %rbp	#,
	.cfi_def_cfa_register 6
	pushq	%r12	#
	pushq	%rbx	#
	subq	$80, %rsp	#,
	.cfi_offset 12, -24
	.cfi_offset 3, -32
	movq	%rdi, -56(%rbp)	# arg, arg
	movq	%rsi, -64(%rbp)	# old0, old0
	movq	%rdx, -72(%rbp)	# new0, new0
	movq	%rcx, -80(%rbp)	# old1, old1
	movq	%r8, -88(%rbp)	# new1, new1
	.loc 1 2716 0
	movq	-56(%rbp), %rax	# arg, tmp86
	movq	8(%rax), %rax	# arg_5(D)->common.type, tmp87
	movq	%rax, -24(%rbp)	# tmp87, type
	.loc 1 2717 0
	movq	-56(%rbp), %rax	# arg, tmp88
	movzbl	16(%rax), %eax	# arg_5(D)->common.code, D.20940
	movzbl	%al, %eax	# D.20940, tmp89
	movl	%eax, -44(%rbp)	# tmp89, code
	.loc 1 2718 0
	movl	-44(%rbp), %eax	# code, code.179
	cltq
	movzbl	tree_code_type(%rax), %eax	# tree_code_type, tmp91
	movb	%al, -45(%rbp)	# tmp91, class
	.loc 1 2721 0
	cmpb	$101, -45(%rbp)	#, class
	jne	.L452	#,
	.loc 1 2721 0 is_stmt 0 discriminator 1
	cmpl	$96, -44(%rbp)	#, code
	jne	.L452	#,
	.loc 1 2722 0 is_stmt 1
	movb	$49, -45(%rbp)	#, class
	jmp	.L453	#
.L452:
	.loc 1 2723 0
	cmpb	$101, -45(%rbp)	#, class
	jne	.L453	#,
	.loc 1 2724 0
	cmpl	$91, -44(%rbp)	#, code
	je	.L454	#,
	.loc 1 2724 0 is_stmt 0 discriminator 1
	cmpl	$92, -44(%rbp)	#, code
	jne	.L453	#,
.L454:
	.loc 1 2725 0 is_stmt 1
	movb	$50, -45(%rbp)	#, class
.L453:
	.loc 1 2727 0
	movsbl	-45(%rbp), %eax	# class, D.20941
	cmpl	$50, %eax	#, D.20941
	je	.L456	#,
	cmpl	$50, %eax	#, D.20941
	jg	.L457	#,
	cmpl	$49, %eax	#, D.20941
	je	.L458	#,
	jmp	.L455	#
.L457:
	cmpl	$60, %eax	#, D.20941
	je	.L459	#,
	cmpl	$101, %eax	#, D.20941
	je	.L460	#,
	jmp	.L455	#
.L458:
	.loc 1 2730 0
	movq	-56(%rbp), %rax	# arg, tmp92
	movq	32(%rax), %rax	# arg_5(D)->exp.operands, D.20942
	movq	-88(%rbp), %rdi	# new1, tmp93
	movq	-80(%rbp), %rcx	# old1, tmp94
	movq	-72(%rbp), %rdx	# new0, tmp95
	movq	-64(%rbp), %rsi	# old0, tmp96
	movq	%rdi, %r8	# tmp93,
	movq	%rax, %rdi	# D.20942,
	call	eval_subst	#
	movq	%rax, %rdx	#, D.20942
	movq	-24(%rbp), %rcx	# type, tmp97
	movl	-44(%rbp), %eax	# code, tmp98
	movq	%rcx, %rsi	# tmp97,
	movl	%eax, %edi	# tmp98,
	call	build1	#
	movq	%rax, %rdi	# D.20942,
	call	fold	#
	jmp	.L461	#
.L456:
	.loc 1 2735 0
	movq	-56(%rbp), %rax	# arg, tmp99
	movq	40(%rax), %rax	# arg_5(D)->exp.operands, D.20942
	movq	-88(%rbp), %rdi	# new1, tmp100
	movq	-80(%rbp), %rcx	# old1, tmp101
	movq	-72(%rbp), %rdx	# new0, tmp102
	movq	-64(%rbp), %rsi	# old0, tmp103
	movq	%rdi, %r8	# tmp100,
	movq	%rax, %rdi	# D.20942,
	call	eval_subst	#
	movq	%rax, %rbx	#, D.20942
	movq	-56(%rbp), %rax	# arg, tmp104
	movq	32(%rax), %rax	# arg_5(D)->exp.operands, D.20942
	movq	-88(%rbp), %rdi	# new1, tmp105
	movq	-80(%rbp), %rcx	# old1, tmp106
	movq	-72(%rbp), %rdx	# new0, tmp107
	movq	-64(%rbp), %rsi	# old0, tmp108
	movq	%rdi, %r8	# tmp105,
	movq	%rax, %rdi	# D.20942,
	call	eval_subst	#
	movq	%rax, %rdx	#, D.20942
	movq	-24(%rbp), %rsi	# type, tmp109
	movl	-44(%rbp), %eax	# code, tmp110
	movq	%rbx, %rcx	# D.20942,
	movl	%eax, %edi	# tmp110,
	movl	$0, %eax	#,
	call	build	#
	movq	%rax, %rdi	# D.20942,
	call	fold	#
	jmp	.L461	#
.L460:
	.loc 1 2742 0
	movl	-44(%rbp), %eax	# code, code
	cmpl	$51, %eax	#, code
	je	.L463	#,
	cmpl	$118, %eax	#, code
	je	.L464	#,
	cmpl	$47, %eax	#, code
	je	.L465	#,
	.loc 1 2759 0
	jmp	.L459	#
.L464:
	.loc 1 2745 0
	movq	-56(%rbp), %rax	# arg, tmp112
	movq	32(%rax), %rax	# arg_5(D)->exp.operands, D.20942
	movq	-88(%rbp), %rdi	# new1, tmp113
	movq	-80(%rbp), %rcx	# old1, tmp114
	movq	-72(%rbp), %rdx	# new0, tmp115
	movq	-64(%rbp), %rsi	# old0, tmp116
	movq	%rdi, %r8	# tmp113,
	movq	%rax, %rdi	# D.20942,
	call	eval_subst	#
	jmp	.L461	#
.L465:
	.loc 1 2748 0
	movq	-56(%rbp), %rax	# arg, tmp117
	movq	40(%rax), %rax	# arg_5(D)->exp.operands, D.20942
	movq	-88(%rbp), %rdi	# new1, tmp118
	movq	-80(%rbp), %rcx	# old1, tmp119
	movq	-72(%rbp), %rdx	# new0, tmp120
	movq	-64(%rbp), %rsi	# old0, tmp121
	movq	%rdi, %r8	# tmp118,
	movq	%rax, %rdi	# D.20942,
	call	eval_subst	#
	jmp	.L461	#
.L463:
	.loc 1 2751 0
	movq	-56(%rbp), %rax	# arg, tmp122
	movq	48(%rax), %rax	# arg_5(D)->exp.operands, D.20942
	movq	-88(%rbp), %rdi	# new1, tmp123
	movq	-80(%rbp), %rcx	# old1, tmp124
	movq	-72(%rbp), %rdx	# new0, tmp125
	movq	-64(%rbp), %rsi	# old0, tmp126
	movq	%rdi, %r8	# tmp123,
	movq	%rax, %rdi	# D.20942,
	call	eval_subst	#
	movq	%rax, %r12	#, D.20942
	movq	-56(%rbp), %rax	# arg, tmp127
	movq	40(%rax), %rax	# arg_5(D)->exp.operands, D.20942
	movq	-88(%rbp), %rdi	# new1, tmp128
	movq	-80(%rbp), %rcx	# old1, tmp129
	movq	-72(%rbp), %rdx	# new0, tmp130
	movq	-64(%rbp), %rsi	# old0, tmp131
	movq	%rdi, %r8	# tmp128,
	movq	%rax, %rdi	# D.20942,
	call	eval_subst	#
	movq	%rax, %rbx	#, D.20942
	movq	-56(%rbp), %rax	# arg, tmp132
	movq	32(%rax), %rax	# arg_5(D)->exp.operands, D.20942
	movq	-88(%rbp), %rdi	# new1, tmp133
	movq	-80(%rbp), %rcx	# old1, tmp134
	movq	-72(%rbp), %rdx	# new0, tmp135
	movq	-64(%rbp), %rsi	# old0, tmp136
	movq	%rdi, %r8	# tmp133,
	movq	%rax, %rdi	# D.20942,
	call	eval_subst	#
	movq	%rax, %rdx	#, D.20942
	movq	-24(%rbp), %rsi	# type, tmp137
	movl	-44(%rbp), %eax	# code, tmp138
	movq	%r12, %r8	# D.20942,
	movq	%rbx, %rcx	# D.20942,
	movl	%eax, %edi	# tmp138,
	movl	$0, %eax	#,
	call	build	#
	movq	%rax, %rdi	# D.20942,
	call	fold	#
	jmp	.L461	#
.L459:
.LBB15:
	.loc 1 2765 0
	movq	-56(%rbp), %rax	# arg, tmp139
	movq	32(%rax), %rax	# arg_5(D)->exp.operands, tmp140
	movq	%rax, -40(%rbp)	# tmp140, arg0
	.loc 1 2766 0
	movq	-56(%rbp), %rax	# arg, tmp141
	movq	40(%rax), %rax	# arg_5(D)->exp.operands, tmp142
	movq	%rax, -32(%rbp)	# tmp142, arg1
	.loc 1 2772 0
	movq	-40(%rbp), %rax	# arg0, tmp143
	cmpq	-64(%rbp), %rax	# old0, tmp143
	je	.L466	#,
	.loc 1 2772 0 is_stmt 0 discriminator 1
	movq	-64(%rbp), %rcx	# old0, tmp144
	movq	-40(%rbp), %rax	# arg0, tmp145
	movl	$0, %edx	#,
	movq	%rcx, %rsi	# tmp144,
	movq	%rax, %rdi	# tmp145,
	call	operand_equal_p	#
	testl	%eax, %eax	# D.20941
	je	.L467	#,
.L466:
	.loc 1 2773 0 is_stmt 1
	movq	-72(%rbp), %rax	# new0, tmp146
	movq	%rax, -40(%rbp)	# tmp146, arg0
	jmp	.L468	#
.L467:
	.loc 1 2774 0
	movq	-40(%rbp), %rax	# arg0, tmp147
	cmpq	-80(%rbp), %rax	# old1, tmp147
	je	.L469	#,
	.loc 1 2774 0 is_stmt 0 discriminator 1
	movq	-80(%rbp), %rcx	# old1, tmp148
	movq	-40(%rbp), %rax	# arg0, tmp149
	movl	$0, %edx	#,
	movq	%rcx, %rsi	# tmp148,
	movq	%rax, %rdi	# tmp149,
	call	operand_equal_p	#
	testl	%eax, %eax	# D.20941
	je	.L468	#,
.L469:
	.loc 1 2775 0 is_stmt 1
	movq	-88(%rbp), %rax	# new1, tmp150
	movq	%rax, -40(%rbp)	# tmp150, arg0
.L468:
	.loc 1 2777 0
	movq	-32(%rbp), %rax	# arg1, tmp151
	cmpq	-64(%rbp), %rax	# old0, tmp151
	je	.L470	#,
	.loc 1 2777 0 is_stmt 0 discriminator 1
	movq	-64(%rbp), %rcx	# old0, tmp152
	movq	-32(%rbp), %rax	# arg1, tmp153
	movl	$0, %edx	#,
	movq	%rcx, %rsi	# tmp152,
	movq	%rax, %rdi	# tmp153,
	call	operand_equal_p	#
	testl	%eax, %eax	# D.20941
	je	.L471	#,
.L470:
	.loc 1 2778 0 is_stmt 1
	movq	-72(%rbp), %rax	# new0, tmp154
	movq	%rax, -32(%rbp)	# tmp154, arg1
	jmp	.L472	#
.L471:
	.loc 1 2779 0
	movq	-32(%rbp), %rax	# arg1, tmp155
	cmpq	-80(%rbp), %rax	# old1, tmp155
	je	.L473	#,
	.loc 1 2779 0 is_stmt 0 discriminator 1
	movq	-80(%rbp), %rcx	# old1, tmp156
	movq	-32(%rbp), %rax	# arg1, tmp157
	movl	$0, %edx	#,
	movq	%rcx, %rsi	# tmp156,
	movq	%rax, %rdi	# tmp157,
	call	operand_equal_p	#
	testl	%eax, %eax	# D.20941
	je	.L472	#,
.L473:
	.loc 1 2780 0 is_stmt 1
	movq	-88(%rbp), %rax	# new1, tmp158
	movq	%rax, -32(%rbp)	# tmp158, arg1
.L472:
	.loc 1 2782 0
	movq	-32(%rbp), %rcx	# arg1, tmp159
	movq	-40(%rbp), %rdx	# arg0, tmp160
	movq	-24(%rbp), %rsi	# type, tmp161
	movl	-44(%rbp), %eax	# code, tmp162
	movl	%eax, %edi	# tmp162,
	movl	$0, %eax	#,
	call	build	#
	movq	%rax, %rdi	# D.20942,
	call	fold	#
	jmp	.L461	#
.L455:
.LBE15:
	.loc 1 2786 0
	movq	-56(%rbp), %rax	# arg, D.20939
.L461:
	.loc 1 2788 0
	addq	$80, %rsp	#,
	popq	%rbx	#
	popq	%r12	#
	popq	%rbp	#
	.cfi_def_cfa 7, 8
	ret
	.cfi_endproc
.LFE35:
	.size	eval_subst, .-eval_subst
	.type	omit_one_operand, @function
omit_one_operand:
.LFB36:
	.loc 1 2800 0
	.cfi_startproc
	pushq	%rbp	#
	.cfi_def_cfa_offset 16
	.cfi_offset 6, -16
	movq	%rsp, %rbp	#,
	.cfi_def_cfa_register 6
	subq	$48, %rsp	#,
	movq	%rdi, -24(%rbp)	# type, type
	movq	%rsi, -32(%rbp)	# result, result
	movq	%rdx, -40(%rbp)	# omitted, omitted
	.loc 1 2801 0
	movq	-32(%rbp), %rdx	# result, tmp63
	movq	-24(%rbp), %rax	# type, tmp64
	movq	%rdx, %rsi	# tmp63,
	movq	%rax, %rdi	# tmp64,
	call	convert	#
	movq	%rax, -8(%rbp)	# tmp65, t
	.loc 1 2803 0
	movq	-40(%rbp), %rax	# omitted, tmp66
	movzbl	17(%rax), %eax	# *omitted_5(D), D.20945
	andl	$1, %eax	#, D.20945
	testb	%al, %al	# D.20945
	je	.L475	#,
	.loc 1 2804 0
	movq	-8(%rbp), %rcx	# t, tmp67
	movq	-40(%rbp), %rdx	# omitted, tmp68
	movq	-24(%rbp), %rax	# type, tmp69
	movq	%rax, %rsi	# tmp69,
	movl	$47, %edi	#,
	movl	$0, %eax	#,
	call	build	#
	jmp	.L476	#
.L475:
	.loc 1 2806 0
	movq	-8(%rbp), %rax	# t, tmp70
	movq	%rax, %rdi	# tmp70,
	call	non_lvalue	#
.L476:
	.loc 1 2807 0
	leave
	.cfi_def_cfa 7, 8
	ret
	.cfi_endproc
.LFE36:
	.size	omit_one_operand, .-omit_one_operand
	.type	pedantic_omit_one_operand, @function
pedantic_omit_one_operand:
.LFB37:
	.loc 1 2814 0
	.cfi_startproc
	pushq	%rbp	#
	.cfi_def_cfa_offset 16
	.cfi_offset 6, -16
	movq	%rsp, %rbp	#,
	.cfi_def_cfa_register 6
	subq	$48, %rsp	#,
	movq	%rdi, -24(%rbp)	# type, type
	movq	%rsi, -32(%rbp)	# result, result
	movq	%rdx, -40(%rbp)	# omitted, omitted
	.loc 1 2815 0
	movq	-32(%rbp), %rdx	# result, tmp63
	movq	-24(%rbp), %rax	# type, tmp64
	movq	%rdx, %rsi	# tmp63,
	movq	%rax, %rdi	# tmp64,
	call	convert	#
	movq	%rax, -8(%rbp)	# tmp65, t
	.loc 1 2817 0
	movq	-40(%rbp), %rax	# omitted, tmp66
	movzbl	17(%rax), %eax	# *omitted_5(D), D.20947
	andl	$1, %eax	#, D.20947
	testb	%al, %al	# D.20947
	je	.L478	#,
	.loc 1 2818 0
	movq	-8(%rbp), %rcx	# t, tmp67
	movq	-40(%rbp), %rdx	# omitted, tmp68
	movq	-24(%rbp), %rax	# type, tmp69
	movq	%rax, %rsi	# tmp69,
	movl	$47, %edi	#,
	movl	$0, %eax	#,
	call	build	#
	jmp	.L479	#
.L478:
	.loc 1 2820 0
	movq	-8(%rbp), %rax	# t, tmp70
	movq	%rax, %rdi	# tmp70,
	call	pedantic_non_lvalue	#
.L479:
	.loc 1 2821 0
	leave
	.cfi_def_cfa 7, 8
	ret
	.cfi_endproc
.LFE37:
	.size	pedantic_omit_one_operand, .-pedantic_omit_one_operand
	.globl	invert_truthvalue
	.type	invert_truthvalue, @function
invert_truthvalue:
.LFB38:
	.loc 1 2830 0
	.cfi_startproc
	pushq	%rbp	#
	.cfi_def_cfa_offset 16
	.cfi_offset 6, -16
	movq	%rsp, %rbp	#,
	.cfi_def_cfa_register 6
	pushq	%r12	#
	pushq	%rbx	#
	subq	$32, %rsp	#,
	.cfi_offset 12, -24
	.cfi_offset 3, -32
	movq	%rdi, -40(%rbp)	# arg, arg
	.loc 1 2831 0
	movq	-40(%rbp), %rax	# arg, tmp129
	movq	8(%rax), %rax	# arg_2(D)->common.type, tmp130
	movq	%rax, -24(%rbp)	# tmp130, type
	.loc 1 2832 0
	movq	-40(%rbp), %rax	# arg, tmp131
	movzbl	16(%rax), %eax	# arg_2(D)->common.code, D.20949
	movzbl	%al, %eax	# D.20949, tmp132
	movl	%eax, -28(%rbp)	# tmp132, code
	.loc 1 2834 0
	cmpl	$0, -28(%rbp)	#, code
	jne	.L481	#,
	.loc 1 2835 0
	movq	-40(%rbp), %rax	# arg, D.20948
	jmp	.L482	#
.L481:
	.loc 1 2841 0
	movl	-28(%rbp), %eax	# code, code.180
	cltq
	movzbl	tree_code_type(%rax), %eax	# tree_code_type, D.20950
	cmpb	$60, %al	#, D.20950
	jne	.L483	#,
	.loc 1 2843 0
	movq	-40(%rbp), %rax	# arg, tmp134
	movq	32(%rax), %rax	# arg_2(D)->exp.operands, D.20951
	movq	8(%rax), %rax	# _9->common.type, D.20951
	movzbl	16(%rax), %eax	# _10->common.code, D.20949
	cmpb	$7, %al	#, D.20949
	je	.L484	#,
	.loc 1 2843 0 is_stmt 0 discriminator 1
	movq	-40(%rbp), %rax	# arg, tmp135
	movq	32(%rax), %rax	# arg_2(D)->exp.operands, D.20951
	movq	8(%rax), %rax	# _12->common.type, D.20951
	movzbl	16(%rax), %eax	# _13->common.code, D.20949
	cmpb	$8, %al	#, D.20949
	jne	.L485	#,
	movq	-40(%rbp), %rax	# arg, tmp136
	movq	32(%rax), %rax	# arg_2(D)->exp.operands, D.20951
	movq	8(%rax), %rax	# _15->common.type, D.20951
	movq	8(%rax), %rax	# _16->common.type, D.20951
	movzbl	16(%rax), %eax	# _17->common.code, D.20949
	cmpb	$7, %al	#, D.20949
	jne	.L485	#,
.L484:
	.loc 1 2844 0 is_stmt 1
	movl	flag_unsafe_math_optimizations(%rip), %eax	# flag_unsafe_math_optimizations, flag_unsafe_math_optimizations.181
	testl	%eax, %eax	# flag_unsafe_math_optimizations.181
	jne	.L485	#,
	.loc 1 2845 0
	cmpl	$102, -28(%rbp)	#, code
	je	.L485	#,
	.loc 1 2846 0
	cmpl	$101, -28(%rbp)	#, code
	je	.L485	#,
	.loc 1 2847 0
	movq	-40(%rbp), %rdx	# arg, tmp137
	movq	-24(%rbp), %rax	# type, tmp138
	movq	%rax, %rsi	# tmp138,
	movl	$96, %edi	#,
	call	build1	#
	jmp	.L482	#
.L485:
	.loc 1 2849 0
	movq	-40(%rbp), %rax	# arg, tmp139
	movq	40(%rax), %r12	# arg_2(D)->exp.operands, D.20951
	movq	-40(%rbp), %rax	# arg, tmp140
	movq	32(%rax), %rbx	# arg_2(D)->exp.operands, D.20951
	movl	-28(%rbp), %eax	# code, tmp141
	movl	%eax, %edi	# tmp141,
	call	invert_tree_comparison	#
	movq	-24(%rbp), %rsi	# type, tmp142
	movq	%r12, %rcx	# D.20951,
	movq	%rbx, %rdx	# D.20951,
	movl	%eax, %edi	# D.20952,
	movl	$0, %eax	#,
	call	build	#
	jmp	.L482	#
.L483:
	.loc 1 2853 0
	movl	-28(%rbp), %eax	# code, tmp144
	subl	$25, %eax	#, tmp143
	cmpl	$93, %eax	#, tmp143
	ja	.L507	#,
	movl	%eax, %eax	# tmp143, tmp145
	movq	.L488(,%rax,8), %rax	#, tmp146
	jmp	*%rax	# tmp146
	.section	.rodata
	.align 8
	.align 4
.L488:
	.quad	.L487
	.quad	.L507
	.quad	.L507
	.quad	.L507
	.quad	.L507
	.quad	.L507
	.quad	.L507
	.quad	.L507
	.quad	.L507
	.quad	.L507
	.quad	.L507
	.quad	.L507
	.quad	.L507
	.quad	.L507
	.quad	.L507
	.quad	.L507
	.quad	.L507
	.quad	.L507
	.quad	.L507
	.quad	.L507
	.quad	.L507
	.quad	.L507
	.quad	.L489
	.quad	.L507
	.quad	.L507
	.quad	.L507
	.quad	.L490
	.quad	.L507
	.quad	.L507
	.quad	.L507
	.quad	.L507
	.quad	.L491
	.quad	.L507
	.quad	.L492
	.quad	.L507
	.quad	.L507
	.quad	.L507
	.quad	.L507
	.quad	.L507
	.quad	.L507
	.quad	.L507
	.quad	.L507
	.quad	.L507
	.quad	.L507
	.quad	.L507
	.quad	.L507
	.quad	.L507
	.quad	.L507
	.quad	.L507
	.quad	.L507
	.quad	.L507
	.quad	.L493
	.quad	.L507
	.quad	.L507
	.quad	.L507
	.quad	.L507
	.quad	.L507
	.quad	.L507
	.quad	.L507
	.quad	.L507
	.quad	.L507
	.quad	.L507
	.quad	.L507
	.quad	.L494
	.quad	.L507
	.quad	.L507
	.quad	.L495
	.quad	.L496
	.quad	.L497
	.quad	.L498
	.quad	.L499
	.quad	.L500
	.quad	.L507
	.quad	.L507
	.quad	.L507
	.quad	.L507
	.quad	.L507
	.quad	.L507
	.quad	.L507
	.quad	.L507
	.quad	.L507
	.quad	.L507
	.quad	.L507
	.quad	.L507
	.quad	.L507
	.quad	.L507
	.quad	.L507
	.quad	.L507
	.quad	.L507
	.quad	.L493
	.quad	.L493
	.quad	.L501
	.quad	.L507
	.quad	.L502
	.text
.L487:
	.loc 1 2856 0
	movq	-40(%rbp), %rax	# arg, tmp147
	movq	%rax, %rdi	# tmp147,
	call	integer_zerop	#
	cltq
	movl	$0, %esi	#,
	movq	%rax, %rdi	# D.20954,
	call	build_int_2_wide	#
	movq	%rax, %rdx	#, D.20951
	movq	-24(%rbp), %rax	# type, tmp148
	movq	%rdx, %rsi	# D.20951,
	movq	%rax, %rdi	# tmp148,
	call	convert	#
	jmp	.L482	#
.L497:
	.loc 1 2859 0
	movq	-40(%rbp), %rax	# arg, tmp149
	movq	40(%rax), %rax	# arg_2(D)->exp.operands, D.20951
	movq	%rax, %rdi	# D.20951,
	call	invert_truthvalue	#
	movq	%rax, %rbx	#, D.20951
	movq	-40(%rbp), %rax	# arg, tmp150
	movq	32(%rax), %rax	# arg_2(D)->exp.operands, D.20951
	movq	%rax, %rdi	# D.20951,
	call	invert_truthvalue	#
	movq	%rax, %rdx	#, D.20951
	movq	-24(%rbp), %rax	# type, tmp151
	movq	%rbx, %rcx	# D.20951,
	movq	%rax, %rsi	# tmp151,
	movl	$94, %edi	#,
	movl	$0, %eax	#,
	call	build	#
	jmp	.L482	#
.L498:
	.loc 1 2864 0
	movq	-40(%rbp), %rax	# arg, tmp152
	movq	40(%rax), %rax	# arg_2(D)->exp.operands, D.20951
	movq	%rax, %rdi	# D.20951,
	call	invert_truthvalue	#
	movq	%rax, %rbx	#, D.20951
	movq	-40(%rbp), %rax	# arg, tmp153
	movq	32(%rax), %rax	# arg_2(D)->exp.operands, D.20951
	movq	%rax, %rdi	# D.20951,
	call	invert_truthvalue	#
	movq	%rax, %rdx	#, D.20951
	movq	-24(%rbp), %rax	# type, tmp154
	movq	%rbx, %rcx	# D.20951,
	movq	%rax, %rsi	# tmp154,
	movl	$93, %edi	#,
	movl	$0, %eax	#,
	call	build	#
	jmp	.L482	#
.L499:
	.loc 1 2874 0
	movq	-40(%rbp), %rax	# arg, tmp155
	movq	40(%rax), %rax	# arg_2(D)->exp.operands, D.20951
	movzbl	16(%rax), %eax	# _39->common.code, D.20949
	cmpb	$96, %al	#, D.20949
	jne	.L503	#,
	.loc 1 2876 0
	movq	-40(%rbp), %rax	# arg, tmp156
	movq	40(%rax), %rax	# arg_2(D)->exp.operands, D.20951
	.loc 1 2875 0
	movq	32(%rax), %rcx	# _41->exp.operands, D.20951
	movq	-40(%rbp), %rax	# arg, tmp157
	movq	32(%rax), %rdx	# arg_2(D)->exp.operands, D.20951
	movq	-24(%rbp), %rax	# type, tmp158
	movq	%rax, %rsi	# tmp158,
	movl	$95, %edi	#,
	movl	$0, %eax	#,
	call	build	#
	jmp	.L482	#
.L503:
	.loc 1 2878 0
	movq	-40(%rbp), %rax	# arg, tmp159
	movq	40(%rax), %rbx	# arg_2(D)->exp.operands, D.20951
	movq	-40(%rbp), %rax	# arg, tmp160
	movq	32(%rax), %rax	# arg_2(D)->exp.operands, D.20951
	movq	%rax, %rdi	# D.20951,
	call	invert_truthvalue	#
	movq	%rax, %rdx	#, D.20951
	movq	-24(%rbp), %rax	# type, tmp161
	movq	%rbx, %rcx	# D.20951,
	movq	%rax, %rsi	# tmp161,
	movl	$95, %edi	#,
	movl	$0, %eax	#,
	call	build	#
	jmp	.L482	#
.L495:
	.loc 1 2883 0
	movq	-40(%rbp), %rax	# arg, tmp162
	movq	40(%rax), %rax	# arg_2(D)->exp.operands, D.20951
	movq	%rax, %rdi	# D.20951,
	call	invert_truthvalue	#
	movq	%rax, %rbx	#, D.20951
	movq	-40(%rbp), %rax	# arg, tmp163
	movq	32(%rax), %rax	# arg_2(D)->exp.operands, D.20951
	movq	%rax, %rdi	# D.20951,
	call	invert_truthvalue	#
	movq	%rax, %rdx	#, D.20951
	movq	-24(%rbp), %rax	# type, tmp164
	movq	%rbx, %rcx	# D.20951,
	movq	%rax, %rsi	# tmp164,
	movl	$92, %edi	#,
	movl	$0, %eax	#,
	call	build	#
	jmp	.L482	#
.L496:
	.loc 1 2888 0
	movq	-40(%rbp), %rax	# arg, tmp165
	movq	40(%rax), %rax	# arg_2(D)->exp.operands, D.20951
	movq	%rax, %rdi	# D.20951,
	call	invert_truthvalue	#
	movq	%rax, %rbx	#, D.20951
	movq	-40(%rbp), %rax	# arg, tmp166
	movq	32(%rax), %rax	# arg_2(D)->exp.operands, D.20951
	movq	%rax, %rdi	# D.20951,
	call	invert_truthvalue	#
	movq	%rax, %rdx	#, D.20951
	movq	-24(%rbp), %rax	# type, tmp167
	movq	%rbx, %rcx	# D.20951,
	movq	%rax, %rsi	# tmp167,
	movl	$91, %edi	#,
	movl	$0, %eax	#,
	call	build	#
	jmp	.L482	#
.L500:
	.loc 1 2893 0
	movq	-40(%rbp), %rax	# arg, tmp168
	movq	32(%rax), %rax	# arg_2(D)->exp.operands, D.20948
	jmp	.L482	#
.L490:
	.loc 1 2896 0
	movq	-40(%rbp), %rax	# arg, tmp169
	movq	48(%rax), %rax	# arg_2(D)->exp.operands, D.20951
	movq	%rax, %rdi	# D.20951,
	call	invert_truthvalue	#
	movq	%rax, %rbx	#, D.20951
	movq	-40(%rbp), %rax	# arg, tmp170
	movq	40(%rax), %rax	# arg_2(D)->exp.operands, D.20951
	movq	%rax, %rdi	# D.20951,
	call	invert_truthvalue	#
	movq	%rax, %rcx	#, D.20951
	movq	-40(%rbp), %rax	# arg, tmp171
	movq	32(%rax), %rdx	# arg_2(D)->exp.operands, D.20951
	movq	-24(%rbp), %rax	# type, tmp172
	movq	%rbx, %r8	# D.20951,
	movq	%rax, %rsi	# tmp172,
	movl	$51, %edi	#,
	movl	$0, %eax	#,
	call	build	#
	jmp	.L482	#
.L489:
	.loc 1 2901 0
	movq	-40(%rbp), %rax	# arg, tmp173
	movq	40(%rax), %rax	# arg_2(D)->exp.operands, D.20951
	movq	%rax, %rdi	# D.20951,
	call	invert_truthvalue	#
	movq	%rax, %rcx	#, D.20951
	movq	-40(%rbp), %rax	# arg, tmp174
	movq	32(%rax), %rdx	# arg_2(D)->exp.operands, D.20951
	movq	-24(%rbp), %rax	# type, tmp175
	movq	%rax, %rsi	# tmp175,
	movl	$47, %edi	#,
	movl	$0, %eax	#,
	call	build	#
	jmp	.L482	#
.L492:
	.loc 1 2905 0
	movq	-40(%rbp), %rax	# arg, tmp176
	movq	40(%rax), %rbx	# arg_2(D)->exp.operands, D.20951
	movq	-40(%rbp), %rax	# arg, tmp177
	movq	32(%rax), %rax	# arg_2(D)->exp.operands, D.20951
	movq	%rax, %rdi	# D.20951,
	call	invert_truthvalue	#
	movq	%rax, %rdx	#, D.20951
	movq	-24(%rbp), %rax	# type, tmp178
	movq	%rbx, %rcx	# D.20951,
	movq	%rax, %rsi	# tmp178,
	movl	$58, %edi	#,
	movl	$0, %eax	#,
	call	build	#
	jmp	.L482	#
.L501:
	.loc 1 2910 0
	movq	-40(%rbp), %rax	# arg, tmp179
	movq	32(%rax), %rax	# arg_2(D)->exp.operands, D.20951
	movq	%rax, %rdi	# D.20951,
	call	invert_truthvalue	#
	jmp	.L482	#
.L493:
	.loc 1 2915 0
	movq	-40(%rbp), %rax	# arg, tmp180
	movq	32(%rax), %rax	# arg_2(D)->exp.operands, D.20951
	movq	%rax, %rdi	# D.20951,
	call	invert_truthvalue	#
	movq	%rax, %rdx	#, D.20951
	movq	-40(%rbp), %rax	# arg, tmp181
	movzbl	16(%rax), %eax	# arg_2(D)->common.code, D.20949
	movzbl	%al, %eax	# D.20949, D.20952
	movq	-24(%rbp), %rcx	# type, tmp182
	movq	%rcx, %rsi	# tmp182,
	movl	%eax, %edi	# D.20952,
	call	build1	#
	jmp	.L482	#
.L494:
	.loc 1 2919 0
	movq	-40(%rbp), %rax	# arg, tmp183
	movq	40(%rax), %rax	# arg_2(D)->exp.operands, D.20951
	movq	%rax, %rdi	# D.20951,
	call	integer_onep	#
	testl	%eax, %eax	# D.20953
	jne	.L504	#,
	.loc 1 2920 0
	jmp	.L505	#
.L504:
	.loc 1 2921 0
	movq	global_trees+88(%rip), %rdx	# global_trees, D.20951
	movq	-24(%rbp), %rax	# type, tmp184
	movq	%rdx, %rsi	# D.20951,
	movq	%rax, %rdi	# tmp184,
	call	convert	#
	movq	%rax, %rcx	#, D.20951
	movq	-40(%rbp), %rdx	# arg, tmp185
	movq	-24(%rbp), %rax	# type, tmp186
	movq	%rax, %rsi	# tmp186,
	movl	$101, %edi	#,
	movl	$0, %eax	#,
	call	build	#
	jmp	.L482	#
.L502:
	.loc 1 2924 0
	movq	-40(%rbp), %rdx	# arg, tmp187
	movq	-24(%rbp), %rax	# type, tmp188
	movq	%rax, %rsi	# tmp188,
	movl	$96, %edi	#,
	call	build1	#
	jmp	.L482	#
.L491:
	.loc 1 2927 0
	movq	-40(%rbp), %rax	# arg, tmp189
	movq	32(%rax), %rax	# arg_2(D)->exp.operands, D.20951
	movq	%rax, %rdi	# D.20951,
	call	invert_truthvalue	#
	movq	%rax, %rdx	#, D.20951
	movq	-24(%rbp), %rax	# type, tmp190
	movq	%rax, %rsi	# tmp190,
	movl	$56, %edi	#,
	call	build1	#
	jmp	.L482	#
.L507:
	.loc 1 2931 0
	nop
.L505:
	.loc 1 2933 0
	movq	-40(%rbp), %rax	# arg, tmp191
	movq	8(%rax), %rax	# arg_2(D)->common.type, D.20951
	movzbl	16(%rax), %eax	# _90->common.code, D.20949
	cmpb	$11, %al	#, D.20949
	je	.L506	#,
	.loc 1 2934 0
	movl	$__FUNCTION__.12657, %edx	#,
	movl	$2934, %esi	#,
	movl	$.LC0, %edi	#,
	call	fancy_abort	#
.L506:
	.loc 1 2935 0
	movq	-40(%rbp), %rdx	# arg, tmp192
	movq	-24(%rbp), %rax	# type, tmp193
	movq	%rax, %rsi	# tmp193,
	movl	$96, %edi	#,
	call	build1	#
.L482:
	.loc 1 2936 0
	addq	$32, %rsp	#,
	popq	%rbx	#
	popq	%r12	#
	popq	%rbp	#
	.cfi_def_cfa 7, 8
	ret
	.cfi_endproc
.LFE38:
	.size	invert_truthvalue, .-invert_truthvalue
	.type	distribute_bit_expr, @function
distribute_bit_expr:
.LFB39:
	.loc 1 2952 0
	.cfi_startproc
	pushq	%rbp	#
	.cfi_def_cfa_offset 16
	.cfi_offset 6, -16
	movq	%rsp, %rbp	#,
	.cfi_def_cfa_register 6
	subq	$64, %rsp	#,
	movl	%edi, -36(%rbp)	# code, code
	movq	%rsi, -48(%rbp)	# type, type
	movq	%rdx, -56(%rbp)	# arg0, arg0
	movq	%rcx, -64(%rbp)	# arg1, arg1
	.loc 1 2956 0
	movq	-56(%rbp), %rax	# arg0, tmp84
	movzbl	16(%rax), %edx	# arg0_5(D)->common.code, D.20956
	movq	-64(%rbp), %rax	# arg1, tmp85
	movzbl	16(%rax), %eax	# arg1_7(D)->common.code, D.20956
	cmpb	%al, %dl	# D.20956, D.20956
	jne	.L509	#,
	.loc 1 2957 0
	movq	-56(%rbp), %rax	# arg0, tmp86
	movzbl	16(%rax), %eax	# arg0_5(D)->common.code, D.20956
	movzbl	%al, %eax	# D.20956, D.20957
	cmpl	-36(%rbp), %eax	# code, D.20957
	je	.L509	#,
	.loc 1 2958 0
	movq	-56(%rbp), %rax	# arg0, tmp87
	movzbl	16(%rax), %eax	# arg0_5(D)->common.code, D.20956
	cmpb	$88, %al	#, D.20956
	je	.L510	#,
	.loc 1 2959 0
	movq	-56(%rbp), %rax	# arg0, tmp88
	movzbl	16(%rax), %eax	# arg0_5(D)->common.code, D.20956
	cmpb	$86, %al	#, D.20956
	je	.L510	#,
.L509:
	.loc 1 2960 0
	movl	$0, %eax	#, D.20955
	jmp	.L511	#
.L510:
	.loc 1 2962 0
	movq	-64(%rbp), %rax	# arg1, tmp89
	movq	32(%rax), %rcx	# arg1_7(D)->exp.operands, D.20958
	movq	-56(%rbp), %rax	# arg0, tmp90
	movq	32(%rax), %rax	# arg0_5(D)->exp.operands, D.20958
	movl	$0, %edx	#,
	movq	%rcx, %rsi	# D.20958,
	movq	%rax, %rdi	# D.20958,
	call	operand_equal_p	#
	testl	%eax, %eax	# D.20959
	je	.L512	#,
	.loc 1 2964 0
	movq	-56(%rbp), %rax	# arg0, tmp91
	movq	32(%rax), %rax	# arg0_5(D)->exp.operands, tmp92
	movq	%rax, -24(%rbp)	# tmp92, common
	.loc 1 2965 0
	movq	-56(%rbp), %rax	# arg0, tmp93
	movq	40(%rax), %rax	# arg0_5(D)->exp.operands, tmp94
	movq	%rax, -16(%rbp)	# tmp94, left
	.loc 1 2966 0
	movq	-64(%rbp), %rax	# arg1, tmp95
	movq	40(%rax), %rax	# arg1_7(D)->exp.operands, tmp96
	movq	%rax, -8(%rbp)	# tmp96, right
	jmp	.L513	#
.L512:
	.loc 1 2968 0
	movq	-64(%rbp), %rax	# arg1, tmp97
	movq	40(%rax), %rcx	# arg1_7(D)->exp.operands, D.20958
	movq	-56(%rbp), %rax	# arg0, tmp98
	movq	32(%rax), %rax	# arg0_5(D)->exp.operands, D.20958
	movl	$0, %edx	#,
	movq	%rcx, %rsi	# D.20958,
	movq	%rax, %rdi	# D.20958,
	call	operand_equal_p	#
	testl	%eax, %eax	# D.20959
	je	.L514	#,
	.loc 1 2970 0
	movq	-56(%rbp), %rax	# arg0, tmp99
	movq	32(%rax), %rax	# arg0_5(D)->exp.operands, tmp100
	movq	%rax, -24(%rbp)	# tmp100, common
	.loc 1 2971 0
	movq	-56(%rbp), %rax	# arg0, tmp101
	movq	40(%rax), %rax	# arg0_5(D)->exp.operands, tmp102
	movq	%rax, -16(%rbp)	# tmp102, left
	.loc 1 2972 0
	movq	-64(%rbp), %rax	# arg1, tmp103
	movq	32(%rax), %rax	# arg1_7(D)->exp.operands, tmp104
	movq	%rax, -8(%rbp)	# tmp104, right
	jmp	.L513	#
.L514:
	.loc 1 2974 0
	movq	-64(%rbp), %rax	# arg1, tmp105
	movq	32(%rax), %rcx	# arg1_7(D)->exp.operands, D.20958
	movq	-56(%rbp), %rax	# arg0, tmp106
	movq	40(%rax), %rax	# arg0_5(D)->exp.operands, D.20958
	movl	$0, %edx	#,
	movq	%rcx, %rsi	# D.20958,
	movq	%rax, %rdi	# D.20958,
	call	operand_equal_p	#
	testl	%eax, %eax	# D.20959
	je	.L515	#,
	.loc 1 2976 0
	movq	-56(%rbp), %rax	# arg0, tmp107
	movq	40(%rax), %rax	# arg0_5(D)->exp.operands, tmp108
	movq	%rax, -24(%rbp)	# tmp108, common
	.loc 1 2977 0
	movq	-56(%rbp), %rax	# arg0, tmp109
	movq	32(%rax), %rax	# arg0_5(D)->exp.operands, tmp110
	movq	%rax, -16(%rbp)	# tmp110, left
	.loc 1 2978 0
	movq	-64(%rbp), %rax	# arg1, tmp111
	movq	40(%rax), %rax	# arg1_7(D)->exp.operands, tmp112
	movq	%rax, -8(%rbp)	# tmp112, right
	jmp	.L513	#
.L515:
	.loc 1 2980 0
	movq	-64(%rbp), %rax	# arg1, tmp113
	movq	40(%rax), %rcx	# arg1_7(D)->exp.operands, D.20958
	movq	-56(%rbp), %rax	# arg0, tmp114
	movq	40(%rax), %rax	# arg0_5(D)->exp.operands, D.20958
	movl	$0, %edx	#,
	movq	%rcx, %rsi	# D.20958,
	movq	%rax, %rdi	# D.20958,
	call	operand_equal_p	#
	testl	%eax, %eax	# D.20959
	je	.L516	#,
	.loc 1 2982 0
	movq	-56(%rbp), %rax	# arg0, tmp115
	movq	40(%rax), %rax	# arg0_5(D)->exp.operands, tmp116
	movq	%rax, -24(%rbp)	# tmp116, common
	.loc 1 2983 0
	movq	-56(%rbp), %rax	# arg0, tmp117
	movq	32(%rax), %rax	# arg0_5(D)->exp.operands, tmp118
	movq	%rax, -16(%rbp)	# tmp118, left
	.loc 1 2984 0
	movq	-64(%rbp), %rax	# arg1, tmp119
	movq	32(%rax), %rax	# arg1_7(D)->exp.operands, tmp120
	movq	%rax, -8(%rbp)	# tmp120, right
	jmp	.L513	#
.L516:
	.loc 1 2987 0
	movl	$0, %eax	#, D.20955
	jmp	.L511	#
.L513:
	.loc 1 2989 0
	movq	-8(%rbp), %rcx	# right, tmp121
	movq	-16(%rbp), %rdx	# left, tmp122
	movq	-48(%rbp), %rsi	# type, tmp123
	movl	-36(%rbp), %eax	# code, tmp124
	movl	%eax, %edi	# tmp124,
	movl	$0, %eax	#,
	call	build	#
	movq	%rax, %rdi	# D.20958,
	call	fold	#
	movq	%rax, %rcx	#, D.20958
	movq	-56(%rbp), %rax	# arg0, tmp125
	movzbl	16(%rax), %eax	# arg0_5(D)->common.code, D.20956
	movzbl	%al, %eax	# D.20956, D.20960
	movq	-24(%rbp), %rdx	# common, tmp126
	movq	-48(%rbp), %rsi	# type, tmp127
	movl	%eax, %edi	# D.20960,
	movl	$0, %eax	#,
	call	build	#
	movq	%rax, %rdi	# D.20958,
	call	fold	#
.L511:
	.loc 1 2991 0
	leave
	.cfi_def_cfa 7, 8
	ret
	.cfi_endproc
.LFE39:
	.size	distribute_bit_expr, .-distribute_bit_expr
	.type	make_bit_field_ref, @function
make_bit_field_ref:
.LFB40:
	.loc 1 3002 0
	.cfi_startproc
	pushq	%rbp	#
	.cfi_def_cfa_offset 16
	.cfi_offset 6, -16
	movq	%rsp, %rbp	#,
	.cfi_def_cfa_register 6
	pushq	%rbx	#
	subq	$56, %rsp	#,
	.cfi_offset 3, -24
	movq	%rdi, -40(%rbp)	# inner, inner
	movq	%rsi, -48(%rbp)	# type, type
	movl	%edx, -52(%rbp)	# bitsize, bitsize
	movl	%ecx, -56(%rbp)	# bitpos, bitpos
	movl	%r8d, -60(%rbp)	# unsignedp, unsignedp
	.loc 1 3003 0
	movl	-56(%rbp), %eax	# bitpos, tmp67
	cltq
	movl	$3, %esi	#,
	movq	%rax, %rdi	# D.20961,
	call	size_int_wide	#
	movq	%rax, %rbx	#, D.20962
	movl	-52(%rbp), %eax	# bitsize, tmp68
	cltq
	movl	$0, %esi	#,
	movq	%rax, %rdi	# D.20961,
	call	size_int_wide	#
	movq	%rax, %rcx	#, D.20962
	movq	-40(%rbp), %rdx	# inner, tmp69
	movq	-48(%rbp), %rax	# type, tmp70
	movq	%rbx, %r8	# D.20962,
	movq	%rax, %rsi	# tmp70,
	movl	$40, %edi	#,
	movl	$0, %eax	#,
	call	build	#
	movq	%rax, -24(%rbp)	# tmp71, result
	.loc 1 3006 0
	movl	-60(%rbp), %eax	# unsignedp, tmp72
	andl	$1, %eax	#, D.20964
	movl	%eax, %edx	# D.20964, D.20964
	movq	-24(%rbp), %rax	# result, tmp73
	andl	$1, %edx	#, tmp75
	movl	%edx, %ecx	# tmp75, tmp76
	sall	$5, %ecx	#, tmp76
	movzbl	17(%rax), %edx	#, tmp77
	andl	$-33, %edx	#, tmp78
	orl	%ecx, %edx	# tmp76, tmp79
	movb	%dl, 17(%rax)	# tmp79,
	.loc 1 3008 0
	movq	-24(%rbp), %rax	# result, D.20965
	.loc 1 3009 0
	addq	$56, %rsp	#,
	popq	%rbx	#
	popq	%rbp	#
	.cfi_def_cfa 7, 8
	ret
	.cfi_endproc
.LFE40:
	.size	make_bit_field_ref, .-make_bit_field_ref
	.section	.rodata
	.align 8
.LC1:
	.string	"comparison is always %d due to width of bit-field"
	.text
	.type	optimize_bit_field_compare, @function
optimize_bit_field_compare:
.LFB41:
	.loc 1 3036 0
	.cfi_startproc
	pushq	%rbp	#
	.cfi_def_cfa_offset 16
	.cfi_offset 6, -16
	movq	%rsp, %rbp	#,
	.cfi_def_cfa_register 6
	pushq	%rbx	#
	subq	$200, %rsp	#,
	.cfi_offset 3, -24
	movl	%edi, -164(%rbp)	# code, code
	movq	%rsi, -176(%rbp)	# compare_type, compare_type
	movq	%rdx, -184(%rbp)	# lhs, lhs
	movq	%rcx, -192(%rbp)	# rhs, rhs
	.loc 1 3038 0
	movq	-184(%rbp), %rax	# lhs, tmp147
	movq	8(%rax), %rax	# lhs_10(D)->common.type, tmp148
	movq	%rax, -80(%rbp)	# tmp148, type
	.loc 1 3040 0
	movq	-192(%rbp), %rax	# rhs, tmp149
	movzbl	16(%rax), %eax	# rhs_12(D)->common.code, D.20967
	cmpb	$25, %al	#, D.20967
	sete	%al	#, D.20968
	movzbl	%al, %eax	# D.20968, tmp150
	movl	%eax, -136(%rbp)	# tmp150, const_p
	.loc 1 3043 0
	movl	$0, -144(%rbp)	#, lvolatilep
	movl	$0, -140(%rbp)	#, rvolatilep
	.loc 1 3044 0
	movq	$0, -88(%rbp)	#, rinner
	.loc 1 3053 0
	leaq	-152(%rbp), %r9	#, tmp151
	leaq	-160(%rbp), %r8	#, tmp152
	leaq	-96(%rbp), %rcx	#, tmp153
	leaq	-128(%rbp), %rdx	#, tmp154
	leaq	-120(%rbp), %rsi	#, tmp155
	movq	-184(%rbp), %rax	# lhs, tmp156
	leaq	-144(%rbp), %rdi	#, tmp157
	movq	%rdi, (%rsp)	# tmp157,
	movq	%rax, %rdi	# tmp156,
	call	get_inner_reference	#
	movq	%rax, -72(%rbp)	# tmp158, linner
	.loc 1 3055 0
	movq	-72(%rbp), %rax	# linner, tmp159
	cmpq	-184(%rbp), %rax	# lhs, tmp159
	je	.L520	#,
	.loc 1 3055 0 is_stmt 0 discriminator 1
	movl	-160(%rbp), %eax	# lmode, lmode.182
	cltq
	movzwl	mode_bitsize(%rax,%rax), %eax	# mode_bitsize, D.20969
	movzwl	%ax, %edx	# D.20969, D.20970
	movq	-120(%rbp), %rax	# lbitsize, lbitsize.184
	cmpq	%rax, %rdx	# lbitsize.184, D.20970
	je	.L520	#,
	movq	-120(%rbp), %rax	# lbitsize, lbitsize.185
	testq	%rax, %rax	# lbitsize.185
	js	.L520	#,
	.loc 1 3056 0 is_stmt 1
	movq	-96(%rbp), %rax	# offset, offset.186
	testq	%rax, %rax	# offset.186
	jne	.L520	#,
	.loc 1 3056 0 is_stmt 0 discriminator 1
	movq	-72(%rbp), %rax	# linner, tmp161
	movzbl	16(%rax), %eax	# linner_17->common.code, D.20967
	cmpb	$57, %al	#, D.20967
	jne	.L521	#,
.L520:
	.loc 1 3057 0 is_stmt 1
	movl	$0, %eax	#, D.20966
	jmp	.L543	#
.L521:
	.loc 1 3059 0
	cmpl	$0, -136(%rbp)	#, const_p
	jne	.L523	#,
	.loc 1 3063 0
	leaq	-148(%rbp), %r9	#, tmp162
	leaq	-156(%rbp), %r8	#, tmp163
	leaq	-96(%rbp), %rcx	#, tmp164
	leaq	-112(%rbp), %rdx	#, tmp165
	leaq	-104(%rbp), %rsi	#, tmp166
	movq	-192(%rbp), %rax	# rhs, tmp167
	leaq	-140(%rbp), %rdi	#, tmp168
	movq	%rdi, (%rsp)	# tmp168,
	movq	%rax, %rdi	# tmp167,
	call	get_inner_reference	#
	movq	%rax, -88(%rbp)	# tmp169, rinner
	.loc 1 3066 0
	movq	-88(%rbp), %rax	# rinner, tmp170
	cmpq	-192(%rbp), %rax	# rhs, tmp170
	je	.L524	#,
	.loc 1 3066 0 is_stmt 0 discriminator 1
	movq	-128(%rbp), %rdx	# lbitpos, lbitpos.187
	movq	-112(%rbp), %rax	# rbitpos, rbitpos.188
	cmpq	%rax, %rdx	# rbitpos.188, lbitpos.187
	jne	.L524	#,
	movq	-120(%rbp), %rdx	# lbitsize, lbitsize.189
	movq	-104(%rbp), %rax	# rbitsize, rbitsize.190
	cmpq	%rax, %rdx	# rbitsize.190, lbitsize.189
	jne	.L524	#,
	.loc 1 3067 0 is_stmt 1
	movl	-152(%rbp), %edx	# lunsignedp, lunsignedp.191
	movl	-148(%rbp), %eax	# runsignedp, runsignedp.192
	cmpl	%eax, %edx	# runsignedp.192, lunsignedp.191
	jne	.L524	#,
	.loc 1 3067 0 is_stmt 0 discriminator 1
	movq	-96(%rbp), %rax	# offset, offset.193
	testq	%rax, %rax	# offset.193
	jne	.L524	#,
	.loc 1 3068 0 is_stmt 1
	movq	-88(%rbp), %rax	# rinner, tmp171
	movzbl	16(%rax), %eax	# rinner_26->common.code, D.20967
	cmpb	$57, %al	#, D.20967
	jne	.L523	#,
.L524:
	.loc 1 3069 0
	movl	$0, %eax	#, D.20966
	jmp	.L543	#
.L523:
	.loc 1 3078 0
	movl	-144(%rbp), %eax	# lvolatilep, lvolatilep.195
	.loc 1 3074 0
	testl	%eax, %eax	# lvolatilep.195
	jne	.L525	#,
	.loc 1 3078 0 discriminator 2
	movl	-140(%rbp), %eax	# rvolatilep, rvolatilep.196
	.loc 1 3074 0 discriminator 2
	testl	%eax, %eax	# rvolatilep.196
	je	.L526	#,
.L525:
	.loc 1 3074 0 is_stmt 0 discriminator 1
	movl	$1, %edx	#, iftmp.194
	jmp	.L527	#
.L526:
	.loc 1 3074 0 discriminator 3
	movl	$0, %edx	#, iftmp.194
.L527:
	.loc 1 3074 0 discriminator 4
	movl	word_mode(%rip), %r9d	# word_mode, word_mode.197
	cmpl	$0, -136(%rbp)	#, const_p
	je	.L528	#,
	.loc 1 3075 0 is_stmt 1
	movq	-72(%rbp), %rax	# linner, tmp172
	movq	8(%rax), %rax	# linner_17->common.type, D.20971
	.loc 1 3074 0
	movl	64(%rax), %eax	# _41->type.align, iftmp.198
	jmp	.L529	#
.L528:
	.loc 1 3076 0 discriminator 5
	movq	-88(%rbp), %rax	# rinner, tmp173
	movq	8(%rax), %rax	# rinner_3->common.type, D.20971
	movl	64(%rax), %ecx	# _43->type.align, D.20972
	movq	-72(%rbp), %rax	# linner, tmp174
	movq	8(%rax), %rax	# linner_17->common.type, D.20971
	movl	64(%rax), %eax	# _45->type.align, D.20972
	.loc 1 3074 0 discriminator 5
	cmpl	%eax, %ecx	# D.20972, D.20972
	cmovbe	%ecx, %eax	# D.20972,, iftmp.198
.L529:
	.loc 1 3074 0 is_stmt 0 discriminator 6
	movq	-128(%rbp), %rcx	# lbitpos, lbitpos.199
	movl	%ecx, %esi	# lbitpos.199, D.20973
	movq	-120(%rbp), %rcx	# lbitsize, lbitsize.200
	movl	%ecx, %edi	# lbitsize.200, D.20973
	movl	%edx, %r8d	# iftmp.194,
	movl	%r9d, %ecx	# word_mode.197,
	movl	%eax, %edx	# iftmp.198,
	call	get_best_mode	#
	movl	%eax, -132(%rbp)	# tmp175, nmode
	.loc 1 3079 0 is_stmt 1 discriminator 6
	cmpl	$0, -132(%rbp)	#, nmode
	jne	.L530	#,
	.loc 1 3080 0
	movl	$0, %eax	#, D.20966
	jmp	.L543	#
.L530:
	.loc 1 3084 0
	movl	-132(%rbp), %eax	# nmode, tmp176
	movl	$0, %esi	#,
	movl	%eax, %edi	# tmp176,
	call	type_for_mode	#
	movq	%rax, -64(%rbp)	# tmp177, signed_type
	.loc 1 3085 0
	movl	-132(%rbp), %eax	# nmode, tmp178
	movl	$1, %esi	#,
	movl	%eax, %edi	# tmp178,
	call	type_for_mode	#
	movq	%rax, -56(%rbp)	# tmp179, unsigned_type
	.loc 1 3090 0
	movl	-132(%rbp), %eax	# nmode, nmode.201
	cltq
	movzwl	mode_bitsize(%rax,%rax), %eax	# mode_bitsize, D.20969
	movzwl	%ax, %eax	# D.20969, tmp181
	movq	%rax, -48(%rbp)	# tmp181, nbitsize
	.loc 1 3091 0
	movq	-48(%rbp), %rax	# nbitsize, tmp182
	negq	%rax	# D.20970
	movq	%rax, %rdx	# D.20970, D.20970
	movq	-128(%rbp), %rax	# lbitpos, lbitpos.202
	andq	%rdx, %rax	# D.20970, tmp183
	movq	%rax, -40(%rbp)	# tmp183, nbitpos
	.loc 1 3092 0
	movq	-128(%rbp), %rax	# lbitpos, lbitpos.203
	subq	-40(%rbp), %rax	# nbitpos, lbitpos.204
	movq	%rax, -128(%rbp)	# lbitpos.204, lbitpos
	.loc 1 3093 0
	movq	-120(%rbp), %rax	# lbitsize, lbitsize.205
	cmpq	%rax, -48(%rbp)	# lbitsize.205, nbitsize
	jne	.L531	#,
	.loc 1 3094 0
	movl	$0, %eax	#, D.20966
	jmp	.L543	#
.L531:
	.loc 1 3100 0
	movq	$-1, %rsi	#,
	movq	$-1, %rdi	#,
	call	build_int_2_wide	#
	movq	%rax, -32(%rbp)	# tmp184, mask
	.loc 1 3101 0
	movq	-32(%rbp), %rax	# mask, tmp185
	movq	-56(%rbp), %rdx	# unsigned_type, tmp186
	movq	%rdx, 8(%rax)	# tmp186, mask_66->common.type
	.loc 1 3102 0
	movq	-32(%rbp), %rax	# mask, tmp187
	movl	$0, %esi	#,
	movq	%rax, %rdi	# tmp187,
	call	force_fit_type	#
	.loc 1 3103 0
	movq	-32(%rbp), %rdx	# mask, tmp188
	movq	-56(%rbp), %rax	# unsigned_type, tmp189
	movq	%rdx, %rsi	# tmp188,
	movq	%rax, %rdi	# tmp189,
	call	convert	#
	movq	%rax, -32(%rbp)	# tmp190, mask
	.loc 1 3104 0
	movq	-120(%rbp), %rax	# lbitsize, lbitsize.209
	movq	-48(%rbp), %rdx	# nbitsize, tmp191
	subq	%rax, %rdx	# lbitsize.209, D.20970
	movq	%rdx, %rax	# D.20970, D.20970
	movl	$0, %esi	#,
	movq	%rax, %rdi	# D.20970,
	call	size_int_wide	#
	movq	%rax, %rdx	#, D.20971
	movq	-32(%rbp), %rax	# mask, tmp192
	movl	$0, %ecx	#,
	movq	%rax, %rsi	# tmp192,
	movl	$82, %edi	#,
	call	const_binop	#
	movq	%rax, -32(%rbp)	# tmp193, mask
	.loc 1 3106 0
	movq	-120(%rbp), %rax	# lbitsize, lbitsize.210
	movq	-48(%rbp), %rdx	# nbitsize, tmp194
	subq	%rax, %rdx	# lbitsize.210, D.20970
	.loc 1 3105 0
	movq	-128(%rbp), %rax	# lbitpos, lbitpos.211
	subq	%rax, %rdx	# lbitpos.211, D.20970
	movq	%rdx, %rax	# D.20970, D.20970
	movl	$0, %esi	#,
	movq	%rax, %rdi	# D.20970,
	call	size_int_wide	#
	movq	%rax, %rdx	#, D.20971
	movq	-32(%rbp), %rax	# mask, tmp195
	movl	$0, %ecx	#,
	movq	%rax, %rsi	# tmp195,
	movl	$83, %edi	#,
	call	const_binop	#
	movq	%rax, -32(%rbp)	# tmp196, mask
	.loc 1 3108 0
	cmpl	$0, -136(%rbp)	#, const_p
	jne	.L532	#,
	.loc 1 3111 0
	movq	-40(%rbp), %rax	# nbitpos, tmp197
	movl	%eax, %ecx	# tmp197, D.20973
	movq	-48(%rbp), %rax	# nbitsize, tmp198
	movl	%eax, %edx	# tmp198, D.20973
	movq	-56(%rbp), %rsi	# unsigned_type, tmp199
	movq	-88(%rbp), %rax	# rinner, tmp200
	movl	$1, %r8d	#,
	movq	%rax, %rdi	# tmp200,
	call	make_bit_field_ref	#
	movq	%rax, %rdx	#, D.20971
	movq	-32(%rbp), %rcx	# mask, tmp201
	movq	-56(%rbp), %rax	# unsigned_type, tmp202
	movq	%rax, %rsi	# tmp202,
	movl	$88, %edi	#,
	movl	$0, %eax	#,
	call	build	#
	movq	%rax, %rbx	#, D.20971
	movq	-40(%rbp), %rax	# nbitpos, tmp203
	movl	%eax, %ecx	# tmp203, D.20973
	movq	-48(%rbp), %rax	# nbitsize, tmp204
	movl	%eax, %edx	# tmp204, D.20973
	movq	-56(%rbp), %rsi	# unsigned_type, tmp205
	movq	-72(%rbp), %rax	# linner, tmp206
	movl	$1, %r8d	#,
	movq	%rax, %rdi	# tmp206,
	call	make_bit_field_ref	#
	movq	%rax, %rdx	#, D.20971
	movq	-32(%rbp), %rcx	# mask, tmp207
	movq	-56(%rbp), %rax	# unsigned_type, tmp208
	movq	%rax, %rsi	# tmp208,
	movl	$88, %edi	#,
	movl	$0, %eax	#,
	call	build	#
	movq	%rax, %rdx	#, D.20971
	movq	-176(%rbp), %rsi	# compare_type, tmp209
	movl	-164(%rbp), %eax	# code, tmp210
	movq	%rbx, %rcx	# D.20971,
	movl	%eax, %edi	# tmp210,
	movl	$0, %eax	#,
	call	build	#
	jmp	.L543	#
.L532:
	.loc 1 3130 0
	movl	-152(%rbp), %eax	# lunsignedp, lunsignedp.212
	testl	%eax, %eax	# lunsignedp.212
	je	.L533	#,
	.loc 1 3132 0
	movq	-120(%rbp), %rax	# lbitsize, lbitsize.213
	movl	$0, %esi	#,
	movq	%rax, %rdi	# lbitsize.213,
	call	size_int_wide	#
	movq	%rax, %rbx	#, D.20971
	movq	-192(%rbp), %rdx	# rhs, tmp211
	movq	-56(%rbp), %rax	# unsigned_type, tmp212
	movq	%rdx, %rsi	# tmp211,
	movq	%rax, %rdi	# tmp212,
	call	convert	#
	movl	$0, %ecx	#,
	movq	%rbx, %rdx	# D.20971,
	movq	%rax, %rsi	# D.20971,
	movl	$83, %edi	#,
	call	const_binop	#
	movq	%rax, %rdi	# D.20971,
	call	integer_zerop	#
	testl	%eax, %eax	# D.20973
	jne	.L534	#,
	.loc 1 3136 0
	cmpl	$102, -164(%rbp)	#, code
	sete	%al	#, D.20968
	movzbl	%al, %eax	# D.20968, D.20973
	movl	%eax, %esi	# D.20973,
	movl	$.LC1, %edi	#,
	movl	$0, %eax	#,
	call	warning	#
	.loc 1 3138 0
	cmpl	$102, -164(%rbp)	#, code
	jne	.L535	#,
	.loc 1 3138 0 is_stmt 0 discriminator 1
	movq	global_trees+96(%rip), %rax	# global_trees, iftmp.214
	jmp	.L536	#
.L535:
	.loc 1 3138 0 discriminator 2
	movq	global_trees+88(%rip), %rax	# global_trees, iftmp.214
.L536:
	.loc 1 3138 0 discriminator 3
	movq	-176(%rbp), %rdx	# compare_type, tmp213
	movq	%rax, %rsi	# iftmp.214,
	movq	%rdx, %rdi	# tmp213,
	call	convert	#
	jmp	.L543	#
.L533:
.LBB16:
	.loc 1 3145 0 is_stmt 1
	movq	-120(%rbp), %rax	# lbitsize, lbitsize.215
	subq	$1, %rax	#, D.20970
	movl	$0, %esi	#,
	movq	%rax, %rdi	# D.20970,
	call	size_int_wide	#
	movq	%rax, %rbx	#, D.20971
	movq	-192(%rbp), %rdx	# rhs, tmp214
	movq	-64(%rbp), %rax	# signed_type, tmp215
	movq	%rdx, %rsi	# tmp214,
	movq	%rax, %rdi	# tmp215,
	call	convert	#
	movl	$0, %ecx	#,
	movq	%rbx, %rdx	# D.20971,
	movq	%rax, %rsi	# D.20971,
	movl	$83, %edi	#,
	call	const_binop	#
	movq	%rax, -24(%rbp)	# tmp216, tem
	.loc 1 3147 0
	movq	-24(%rbp), %rax	# tem, tmp217
	movq	%rax, %rdi	# tmp217,
	call	integer_zerop	#
	testl	%eax, %eax	# D.20973
	jne	.L534	#,
	.loc 1 3147 0 is_stmt 0 discriminator 1
	movq	-24(%rbp), %rax	# tem, tmp218
	movq	%rax, %rdi	# tmp218,
	call	integer_all_onesp	#
	testl	%eax, %eax	# D.20973
	jne	.L534	#,
	.loc 1 3149 0 is_stmt 1
	cmpl	$102, -164(%rbp)	#, code
	sete	%al	#, D.20968
	movzbl	%al, %eax	# D.20968, D.20973
	movl	%eax, %esi	# D.20973,
	movl	$.LC1, %edi	#,
	movl	$0, %eax	#,
	call	warning	#
	.loc 1 3151 0
	cmpl	$102, -164(%rbp)	#, code
	jne	.L537	#,
	.loc 1 3151 0 is_stmt 0 discriminator 1
	movq	global_trees+96(%rip), %rax	# global_trees, iftmp.216
	jmp	.L538	#
.L537:
	.loc 1 3151 0 discriminator 2
	movq	global_trees+88(%rip), %rax	# global_trees, iftmp.216
.L538:
	.loc 1 3151 0 discriminator 3
	movq	-176(%rbp), %rdx	# compare_type, tmp219
	movq	%rax, %rsi	# iftmp.216,
	movq	%rdx, %rdi	# tmp219,
	call	convert	#
	jmp	.L543	#
.L534:
.LBE16:
	.loc 1 3158 0 is_stmt 1
	movq	-120(%rbp), %rax	# lbitsize, lbitsize.217
	cmpq	$1, %rax	#, lbitsize.217
	jne	.L539	#,
	.loc 1 3158 0 is_stmt 0 discriminator 1
	movq	-192(%rbp), %rax	# rhs, tmp220
	movq	%rax, %rdi	# tmp220,
	call	integer_zerop	#
	testl	%eax, %eax	# D.20973
	jne	.L539	#,
	.loc 1 3160 0 is_stmt 1
	cmpl	$101, -164(%rbp)	#, code
	jne	.L540	#,
	.loc 1 3160 0 is_stmt 0 discriminator 1
	movl	$102, %eax	#, iftmp.218
	jmp	.L541	#
.L540:
	.loc 1 3160 0 discriminator 2
	movl	$101, %eax	#, iftmp.218
.L541:
	.loc 1 3160 0 discriminator 3
	movl	%eax, -164(%rbp)	# iftmp.218, code
	.loc 1 3161 0 is_stmt 1 discriminator 3
	movq	global_trees+88(%rip), %rdx	# global_trees, D.20971
	movq	-80(%rbp), %rax	# type, tmp221
	movq	%rdx, %rsi	# D.20971,
	movq	%rax, %rdi	# tmp221,
	call	convert	#
	movq	%rax, -192(%rbp)	# tmp222, rhs
.L539:
	.loc 1 3167 0
	movq	-40(%rbp), %rax	# nbitpos, tmp223
	movl	%eax, %ecx	# tmp223, D.20973
	movq	-48(%rbp), %rax	# nbitsize, tmp224
	movl	%eax, %edx	# tmp224, D.20973
	movq	-56(%rbp), %rsi	# unsigned_type, tmp225
	movq	-72(%rbp), %rax	# linner, tmp226
	movl	$1, %r8d	#,
	movq	%rax, %rdi	# tmp226,
	call	make_bit_field_ref	#
	movq	%rax, -184(%rbp)	# tmp227, lhs
	.loc 1 3168 0
	movl	-144(%rbp), %eax	# lvolatilep, lvolatilep.219
	testl	%eax, %eax	# lvolatilep.219
	je	.L542	#,
	.loc 1 3170 0
	movq	-184(%rbp), %rax	# lhs, tmp228
	movzbl	17(%rax), %edx	#, tmp231
	orl	$1, %edx	#, tmp232
	movb	%dl, 17(%rax)	# tmp232,
	.loc 1 3171 0
	movq	-184(%rbp), %rax	# lhs, tmp233
	movzbl	17(%rax), %edx	#, tmp236
	orl	$8, %edx	#, tmp237
	movb	%dl, 17(%rax)	# tmp237,
.L542:
	.loc 1 3174 0
	movq	-128(%rbp), %rax	# lbitpos, lbitpos.220
	movl	$0, %esi	#,
	movq	%rax, %rdi	# lbitpos.220,
	call	size_int_wide	#
	movq	%rax, %rbx	#, D.20971
	movq	-192(%rbp), %rdx	# rhs, tmp238
	movq	-56(%rbp), %rax	# unsigned_type, tmp239
	movq	%rdx, %rsi	# tmp238,
	movq	%rax, %rdi	# tmp239,
	call	convert	#
	movl	$0, %ecx	#,
	movq	%rbx, %rdx	# D.20971,
	movq	%rax, %rsi	# D.20971,
	movl	$82, %edi	#,
	call	const_binop	#
	movq	-32(%rbp), %rdx	# mask, tmp240
	movl	$0, %ecx	#,
	movq	%rax, %rsi	# D.20971,
	movl	$88, %edi	#,
	call	const_binop	#
	movq	%rax, %rdi	# D.20971,
	call	fold	#
	movq	%rax, -192(%rbp)	# tmp241, rhs
	.loc 1 3180 0
	movq	-32(%rbp), %rcx	# mask, tmp242
	movq	-184(%rbp), %rdx	# lhs, tmp243
	movq	-56(%rbp), %rax	# unsigned_type, tmp244
	movq	%rax, %rsi	# tmp244,
	movl	$88, %edi	#,
	movl	$0, %eax	#,
	call	build	#
	movq	%rax, %rdx	#, D.20971
	movq	-192(%rbp), %rcx	# rhs, tmp245
	movq	-176(%rbp), %rsi	# compare_type, tmp246
	movl	-164(%rbp), %eax	# code, tmp247
	movl	%eax, %edi	# tmp247,
	movl	$0, %eax	#,
	call	build	#
.L543:
	.loc 1 3183 0
	addq	$200, %rsp	#,
	popq	%rbx	#
	popq	%rbp	#
	.cfi_def_cfa 7, 8
	ret
	.cfi_endproc
.LFE41:
	.size	optimize_bit_field_compare, .-optimize_bit_field_compare
	.type	decode_field_reference, @function
decode_field_reference:
.LFB42:
	.loc 1 3217 0
	.cfi_startproc
	pushq	%rbp	#
	.cfi_def_cfa_offset 16
	.cfi_offset 6, -16
	movq	%rsp, %rbp	#,
	.cfi_def_cfa_register 6
	subq	$112, %rsp	#,
	movq	%rdi, -56(%rbp)	# exp, exp
	movq	%rsi, -64(%rbp)	# pbitsize, pbitsize
	movq	%rdx, -72(%rbp)	# pbitpos, pbitpos
	movq	%rcx, -80(%rbp)	# pmode, pmode
	movq	%r8, -88(%rbp)	# punsignedp, punsignedp
	movq	%r9, -96(%rbp)	# pvolatilep, pvolatilep
	.loc 1 3218 0
	movq	$0, -32(%rbp)	#, and_mask
	.loc 1 3226 0
	movq	-56(%rbp), %rax	# exp, tmp117
	movq	8(%rax), %rax	# exp_9(D)->common.type, D.20976
	movzbl	16(%rax), %eax	# _10->common.code, D.20977
	cmpb	$6, %al	#, D.20977
	je	.L545	#,
	.loc 1 3226 0 is_stmt 0 discriminator 1
	movq	-56(%rbp), %rax	# exp, tmp118
	movq	8(%rax), %rax	# exp_9(D)->common.type, D.20976
	movzbl	16(%rax), %eax	# _12->common.code, D.20977
	cmpb	$10, %al	#, D.20977
	je	.L545	#,
	movq	-56(%rbp), %rax	# exp, tmp119
	movq	8(%rax), %rax	# exp_9(D)->common.type, D.20976
	movzbl	16(%rax), %eax	# _14->common.code, D.20977
	cmpb	$11, %al	#, D.20977
	je	.L545	#,
	movq	-56(%rbp), %rax	# exp, tmp120
	movq	8(%rax), %rax	# exp_9(D)->common.type, D.20976
	movzbl	16(%rax), %eax	# _16->common.code, D.20977
	cmpb	$12, %al	#, D.20977
	je	.L545	#,
	.loc 1 3227 0 is_stmt 1
	movl	$0, %eax	#, D.20975
	jmp	.L564	#
.L545:
	.loc 1 3229 0
	jmp	.L547	#
.L550:
	.loc 1 3229 0 is_stmt 0 discriminator 1
	movq	-56(%rbp), %rax	# exp, tmp121
	movq	32(%rax), %rax	# exp_1->exp.operands, tmp122
	movq	%rax, -56(%rbp)	# tmp122, exp
.L547:
	movq	-56(%rbp), %rax	# exp, tmp123
	movzbl	16(%rax), %eax	# exp_1->common.code, D.20977
	cmpb	$115, %al	#, D.20977
	je	.L548	#,
	.loc 1 3229 0 discriminator 3
	movq	-56(%rbp), %rax	# exp, tmp124
	movzbl	16(%rax), %eax	# exp_1->common.code, D.20977
	cmpb	$114, %al	#, D.20977
	je	.L548	#,
	.loc 1 3229 0 discriminator 1
	movq	-56(%rbp), %rax	# exp, tmp125
	movzbl	16(%rax), %eax	# exp_1->common.code, D.20977
	cmpb	$116, %al	#, D.20977
	jne	.L549	#,
.L548:
	.loc 1 3229 0 discriminator 2
	movq	-56(%rbp), %rax	# exp, tmp126
	movq	32(%rax), %rdx	# exp_1->exp.operands, D.20976
	movq	global_trees(%rip), %rax	# global_trees, D.20976
	cmpq	%rax, %rdx	# D.20976, D.20976
	je	.L549	#,
	.loc 1 3229 0 discriminator 1
	movq	-56(%rbp), %rax	# exp, tmp127
	movq	8(%rax), %rax	# exp_1->common.type, D.20976
	movzbl	61(%rax), %eax	# *_24, tmp130
	shrb	%al	# D.20978
	movl	%eax, %edx	# D.20978, D.20978
	movq	-56(%rbp), %rax	# exp, tmp131
	movq	32(%rax), %rax	# exp_1->exp.operands, D.20976
	movq	8(%rax), %rax	# _26->common.type, D.20976
	movzbl	61(%rax), %eax	# *_27, tmp134
	shrb	%al	# D.20978
	cmpb	%al, %dl	# D.20978, D.20978
	je	.L550	#,
.L549:
	.loc 1 3231 0 is_stmt 1
	movq	-56(%rbp), %rax	# exp, tmp135
	movzbl	16(%rax), %eax	# exp_1->common.code, D.20977
	cmpb	$88, %al	#, D.20977
	jne	.L551	#,
	.loc 1 3233 0
	movq	-56(%rbp), %rax	# exp, tmp136
	movq	40(%rax), %rax	# exp_1->exp.operands, tmp137
	movq	%rax, -32(%rbp)	# tmp137, and_mask
	.loc 1 3234 0
	movq	-56(%rbp), %rax	# exp, tmp138
	movq	32(%rax), %rax	# exp_1->exp.operands, tmp139
	movq	%rax, -56(%rbp)	# tmp139, exp
	.loc 1 3235 0
	jmp	.L552	#
.L555:
	.loc 1 3235 0 is_stmt 0 discriminator 1
	movq	-56(%rbp), %rax	# exp, tmp140
	movq	32(%rax), %rax	# exp_2->exp.operands, tmp141
	movq	%rax, -56(%rbp)	# tmp141, exp
.L552:
	movq	-56(%rbp), %rax	# exp, tmp142
	movzbl	16(%rax), %eax	# exp_2->common.code, D.20977
	cmpb	$115, %al	#, D.20977
	je	.L553	#,
	.loc 1 3235 0 discriminator 3
	movq	-56(%rbp), %rax	# exp, tmp143
	movzbl	16(%rax), %eax	# exp_2->common.code, D.20977
	cmpb	$114, %al	#, D.20977
	je	.L553	#,
	.loc 1 3235 0 discriminator 1
	movq	-56(%rbp), %rax	# exp, tmp144
	movzbl	16(%rax), %eax	# exp_2->common.code, D.20977
	cmpb	$116, %al	#, D.20977
	jne	.L554	#,
.L553:
	.loc 1 3235 0 discriminator 2
	movq	-56(%rbp), %rax	# exp, tmp145
	movq	32(%rax), %rdx	# exp_2->exp.operands, D.20976
	movq	global_trees(%rip), %rax	# global_trees, D.20976
	cmpq	%rax, %rdx	# D.20976, D.20976
	je	.L554	#,
	.loc 1 3235 0 discriminator 1
	movq	-56(%rbp), %rax	# exp, tmp146
	movq	8(%rax), %rax	# exp_2->common.type, D.20976
	movzbl	61(%rax), %eax	# *_38, tmp149
	shrb	%al	# D.20978
	movl	%eax, %edx	# D.20978, D.20978
	movq	-56(%rbp), %rax	# exp, tmp150
	movq	32(%rax), %rax	# exp_2->exp.operands, D.20976
	movq	8(%rax), %rax	# _40->common.type, D.20976
	movzbl	61(%rax), %eax	# *_41, tmp153
	shrb	%al	# D.20978
	cmpb	%al, %dl	# D.20978, D.20978
	je	.L555	#,
.L554:
	jmp	.L556	#
.L559:
	movq	-32(%rbp), %rax	# and_mask, tmp154
	movq	32(%rax), %rax	# and_mask_4->exp.operands, tmp155
	movq	%rax, -32(%rbp)	# tmp155, and_mask
.L556:
	movq	-32(%rbp), %rax	# and_mask, tmp156
	movzbl	16(%rax), %eax	# and_mask_4->common.code, D.20977
	cmpb	$115, %al	#, D.20977
	je	.L557	#,
	.loc 1 3235 0 discriminator 3
	movq	-32(%rbp), %rax	# and_mask, tmp157
	movzbl	16(%rax), %eax	# and_mask_4->common.code, D.20977
	cmpb	$114, %al	#, D.20977
	je	.L557	#,
	.loc 1 3235 0 discriminator 1
	movq	-32(%rbp), %rax	# and_mask, tmp158
	movzbl	16(%rax), %eax	# and_mask_4->common.code, D.20977
	cmpb	$116, %al	#, D.20977
	jne	.L558	#,
.L557:
	.loc 1 3235 0 discriminator 2
	movq	-32(%rbp), %rax	# and_mask, tmp159
	movq	32(%rax), %rdx	# and_mask_4->exp.operands, D.20976
	movq	global_trees(%rip), %rax	# global_trees, D.20976
	cmpq	%rax, %rdx	# D.20976, D.20976
	je	.L558	#,
	.loc 1 3235 0 discriminator 1
	movq	-32(%rbp), %rax	# and_mask, tmp160
	movq	8(%rax), %rax	# and_mask_4->common.type, D.20976
	movzbl	61(%rax), %eax	# *_49, tmp163
	shrb	%al	# D.20978
	movl	%eax, %edx	# D.20978, D.20978
	movq	-32(%rbp), %rax	# and_mask, tmp164
	movq	32(%rax), %rax	# and_mask_4->exp.operands, D.20976
	movq	8(%rax), %rax	# _51->common.type, D.20976
	movzbl	61(%rax), %eax	# *_52, tmp167
	shrb	%al	# D.20978
	cmpb	%al, %dl	# D.20978, D.20978
	je	.L559	#,
.L558:
	.loc 1 3236 0 is_stmt 1
	movq	-32(%rbp), %rax	# and_mask, tmp168
	movzbl	16(%rax), %eax	# and_mask_4->common.code, D.20977
	cmpb	$25, %al	#, D.20977
	je	.L551	#,
	.loc 1 3237 0
	movl	$0, %eax	#, D.20975
	jmp	.L564	#
.L551:
	.loc 1 3240 0
	movq	-88(%rbp), %r9	# punsignedp, tmp169
	movq	-80(%rbp), %r8	# pmode, tmp170
	leaq	-40(%rbp), %rcx	#, tmp171
	movq	-72(%rbp), %rdx	# pbitpos, tmp172
	movq	-64(%rbp), %rsi	# pbitsize, tmp173
	movq	-56(%rbp), %rax	# exp, tmp174
	movq	-96(%rbp), %rdi	# pvolatilep, tmp175
	movq	%rdi, (%rsp)	# tmp175,
	movq	%rax, %rdi	# tmp174,
	call	get_inner_reference	#
	movq	%rax, -16(%rbp)	# tmp176, inner
	.loc 1 3242 0
	movq	-16(%rbp), %rax	# inner, tmp177
	cmpq	-56(%rbp), %rax	# exp, tmp177
	jne	.L560	#,
	.loc 1 3242 0 is_stmt 0 discriminator 1
	cmpq	$0, -32(%rbp)	#, and_mask
	je	.L561	#,
.L560:
	.loc 1 3243 0 is_stmt 1
	movq	-64(%rbp), %rax	# pbitsize, tmp178
	movq	(%rax), %rax	# *pbitsize_57(D), D.20979
	testq	%rax, %rax	# D.20979
	js	.L561	#,
	.loc 1 3243 0 is_stmt 0 discriminator 1
	movq	-40(%rbp), %rax	# offset, offset.221
	testq	%rax, %rax	# offset.221
	jne	.L561	#,
	.loc 1 3244 0 is_stmt 1
	movq	-16(%rbp), %rax	# inner, tmp179
	movzbl	16(%rax), %eax	# inner_62->common.code, D.20977
	cmpb	$57, %al	#, D.20977
	jne	.L562	#,
.L561:
	.loc 1 3245 0
	movl	$0, %eax	#, D.20975
	jmp	.L564	#
.L562:
	.loc 1 3248 0
	movq	-64(%rbp), %rax	# pbitsize, tmp180
	movq	(%rax), %rax	# *pbitsize_57(D), D.20979
	movl	$1, %esi	#,
	movl	%eax, %edi	# D.20980,
	call	type_for_size	#
	movq	%rax, -8(%rbp)	# tmp181, unsigned_type
	.loc 1 3249 0
	movq	-8(%rbp), %rax	# unsigned_type, tmp182
	movzwl	60(%rax), %eax	# *unsigned_type_68, tmp185
	andw	$511, %ax	#, D.20981
	movzwl	%ax, %eax	# D.20981, tmp186
	movl	%eax, -44(%rbp)	# tmp186, precision
	.loc 1 3251 0
	movq	$-1, %rsi	#,
	movq	$-1, %rdi	#,
	call	build_int_2_wide	#
	movq	%rax, -24(%rbp)	# tmp187, mask
	.loc 1 3252 0
	movq	-24(%rbp), %rax	# mask, tmp188
	movq	-8(%rbp), %rdx	# unsigned_type, tmp189
	movq	%rdx, 8(%rax)	# tmp189, mask_71->common.type
	.loc 1 3253 0
	movq	-24(%rbp), %rax	# mask, tmp190
	movl	$0, %esi	#,
	movq	%rax, %rdi	# tmp190,
	call	force_fit_type	#
	.loc 1 3254 0
	movl	-44(%rbp), %edx	# precision, D.20979
	movq	-64(%rbp), %rax	# pbitsize, tmp191
	movq	(%rax), %rax	# *pbitsize_57(D), D.20979
	subq	%rax, %rdx	# D.20979, D.20979
	movq	%rdx, %rax	# D.20979, D.20979
	movl	$0, %esi	#,
	movq	%rax, %rdi	# D.20979,
	call	size_int_wide	#
	movq	%rax, %rdx	#, D.20976
	movq	-24(%rbp), %rax	# mask, tmp192
	movl	$0, %ecx	#,
	movq	%rax, %rsi	# tmp192,
	movl	$82, %edi	#,
	call	const_binop	#
	movq	%rax, -24(%rbp)	# tmp193, mask
	.loc 1 3255 0
	movl	-44(%rbp), %edx	# precision, D.20979
	movq	-64(%rbp), %rax	# pbitsize, tmp194
	movq	(%rax), %rax	# *pbitsize_57(D), D.20979
	subq	%rax, %rdx	# D.20979, D.20979
	movq	%rdx, %rax	# D.20979, D.20979
	movl	$0, %esi	#,
	movq	%rax, %rdi	# D.20979,
	call	size_int_wide	#
	movq	%rax, %rdx	#, D.20976
	movq	-24(%rbp), %rax	# mask, tmp195
	movl	$0, %ecx	#,
	movq	%rax, %rsi	# tmp195,
	movl	$83, %edi	#,
	call	const_binop	#
	movq	%rax, -24(%rbp)	# tmp196, mask
	.loc 1 3258 0
	cmpq	$0, -32(%rbp)	#, and_mask
	je	.L563	#,
	.loc 1 3259 0
	movq	-32(%rbp), %rdx	# and_mask, tmp197
	movq	-8(%rbp), %rax	# unsigned_type, tmp198
	movq	%rdx, %rsi	# tmp197,
	movq	%rax, %rdi	# tmp198,
	call	convert	#
	movq	%rax, %rdx	#, D.20976
	movq	-24(%rbp), %rcx	# mask, tmp199
	movq	-8(%rbp), %rax	# unsigned_type, tmp200
	movq	%rax, %rsi	# tmp200,
	movl	$88, %edi	#,
	movl	$0, %eax	#,
	call	build	#
	movq	%rax, %rdi	# D.20976,
	call	fold	#
	movq	%rax, -24(%rbp)	# tmp201, mask
.L563:
	.loc 1 3262 0
	movq	16(%rbp), %rax	# pmask, tmp202
	movq	-24(%rbp), %rdx	# mask, tmp203
	movq	%rdx, (%rax)	# tmp203, *pmask_85(D)
	.loc 1 3263 0
	movq	24(%rbp), %rax	# pand_mask, tmp204
	movq	-32(%rbp), %rdx	# and_mask, tmp205
	movq	%rdx, (%rax)	# tmp205, *pand_mask_86(D)
	.loc 1 3264 0
	movq	-16(%rbp), %rax	# inner, D.20975
.L564:
	.loc 1 3265 0
	leave
	.cfi_def_cfa 7, 8
	ret
	.cfi_endproc
.LFE42:
	.size	decode_field_reference, .-decode_field_reference
	.type	all_ones_mask_p, @function
all_ones_mask_p:
.LFB43:
	.loc 1 3274 0
	.cfi_startproc
	pushq	%rbp	#
	.cfi_def_cfa_offset 16
	.cfi_offset 6, -16
	movq	%rsp, %rbp	#,
	.cfi_def_cfa_register 6
	pushq	%rbx	#
	subq	$56, %rsp	#,
	.cfi_offset 3, -24
	movq	%rdi, -56(%rbp)	# mask, mask
	movl	%esi, -60(%rbp)	# size, size
	.loc 1 3275 0
	movq	-56(%rbp), %rax	# mask, tmp73
	movq	8(%rax), %rax	# mask_1(D)->common.type, tmp74
	movq	%rax, -32(%rbp)	# tmp74, type
	.loc 1 3276 0
	movq	-32(%rbp), %rax	# type, tmp75
	movzwl	60(%rax), %eax	# *type_2, tmp78
	andw	$511, %ax	#, D.20982
	movzwl	%ax, %eax	# D.20982, tmp79
	movl	%eax, -36(%rbp)	# tmp79, precision
	.loc 1 3279 0
	movq	$-1, %rsi	#,
	movq	$-1, %rdi	#,
	call	build_int_2_wide	#
	movq	%rax, -24(%rbp)	# tmp80, tmask
	.loc 1 3280 0
	movq	-32(%rbp), %rax	# type, tmp81
	movq	%rax, %rdi	# tmp81,
	call	signed_type	#
	movq	-24(%rbp), %rdx	# tmask, tmp82
	movq	%rax, 8(%rdx)	# D.20983, tmask_5->common.type
	.loc 1 3281 0
	movq	-24(%rbp), %rax	# tmask, tmp83
	movl	$0, %esi	#,
	movq	%rax, %rdi	# tmp83,
	call	force_fit_type	#
	.loc 1 3288 0
	movl	-60(%rbp), %eax	# size, size.222
	movl	-36(%rbp), %edx	# precision, tmp84
	subl	%eax, %edx	# size.222, D.20984
	movl	%edx, %eax	# D.20984, D.20984
	.loc 1 3283 0
	movl	%eax, %eax	# D.20984, D.20985
	movl	$0, %esi	#,
	movq	%rax, %rdi	# D.20985,
	call	size_int_wide	#
	movq	%rax, %rbx	#, D.20983
	.loc 1 3286 0
	movl	-60(%rbp), %eax	# size, size.223
	movl	-36(%rbp), %edx	# precision, tmp85
	subl	%eax, %edx	# size.223, D.20984
	movl	%edx, %eax	# D.20984, D.20984
	.loc 1 3283 0
	movl	%eax, %eax	# D.20984, D.20985
	movl	$0, %esi	#,
	movq	%rax, %rdi	# D.20985,
	call	size_int_wide	#
	movq	%rax, %rdx	#, D.20983
	movq	-24(%rbp), %rax	# tmask, tmp86
	movl	$0, %ecx	#,
	movq	%rax, %rsi	# tmp86,
	movl	$82, %edi	#,
	call	const_binop	#
	movl	$0, %ecx	#,
	movq	%rbx, %rdx	# D.20983,
	movq	%rax, %rsi	# D.20983,
	movl	$83, %edi	#,
	call	const_binop	#
	movq	%rax, %rdx	#, D.20983
	.loc 1 3282 0
	movq	-56(%rbp), %rax	# mask, tmp87
	movq	%rdx, %rsi	# D.20983,
	movq	%rax, %rdi	# tmp87,
	call	tree_int_cst_equal	#
	.loc 1 3289 0
	addq	$56, %rsp	#,
	popq	%rbx	#
	popq	%rbp	#
	.cfi_def_cfa 7, 8
	ret
	.cfi_endproc
.LFE43:
	.size	all_ones_mask_p, .-all_ones_mask_p
	.type	simple_operand_p, @function
simple_operand_p:
.LFB44:
	.loc 1 3297 0
	.cfi_startproc
	pushq	%rbp	#
	.cfi_def_cfa_offset 16
	.cfi_offset 6, -16
	movq	%rsp, %rbp	#,
	.cfi_def_cfa_register 6
	movq	%rdi, -8(%rbp)	# exp, exp
	.loc 1 3299 0
	jmp	.L568	#
.L571:
	.loc 1 3303 0
	movq	-8(%rbp), %rax	# exp, tmp89
	movq	32(%rax), %rax	# exp_1->exp.operands, tmp90
	movq	%rax, -8(%rbp)	# tmp90, exp
.L568:
	.loc 1 3299 0 discriminator 1
	movq	-8(%rbp), %rax	# exp, tmp91
	movzbl	16(%rax), %eax	# exp_1->common.code, D.20987
	cmpb	$115, %al	#, D.20987
	je	.L569	#,
	.loc 1 3300 0
	movq	-8(%rbp), %rax	# exp, tmp92
	movzbl	16(%rax), %eax	# exp_1->common.code, D.20987
	cmpb	$114, %al	#, D.20987
	jne	.L570	#,
.L569:
	.loc 1 3301 0
	movq	-8(%rbp), %rax	# exp, tmp93
	movq	8(%rax), %rax	# exp_1->common.type, D.20988
	movzbl	61(%rax), %eax	# *_6, tmp96
	shrb	%al	# D.20989
	movl	%eax, %edx	# D.20989, D.20989
	.loc 1 3302 0
	movq	-8(%rbp), %rax	# exp, tmp97
	movq	32(%rax), %rax	# exp_1->exp.operands, D.20988
	movq	8(%rax), %rax	# _8->common.type, D.20988
	movzbl	61(%rax), %eax	# *_9, tmp100
	shrb	%al	# D.20989
	.loc 1 3301 0
	cmpb	%al, %dl	# D.20989, D.20989
	je	.L571	#,
.L570:
	.loc 1 3305 0
	movq	-8(%rbp), %rax	# exp, tmp101
	movzbl	16(%rax), %eax	# exp_1->common.code, D.20987
	movzbl	%al, %eax	# D.20987, D.20990
	cltq
	movzbl	tree_code_type(%rax), %eax	# tree_code_type, D.20991
	.loc 1 3306 0
	cmpb	$99, %al	#, D.20991
	je	.L572	#,
	.loc 1 3306 0 is_stmt 0 discriminator 2
	movq	-8(%rbp), %rax	# exp, tmp103
	movzbl	16(%rax), %eax	# exp_1->common.code, D.20987
	movzbl	%al, %eax	# D.20987, D.20990
	cltq
	movzbl	tree_code_type(%rax), %eax	# tree_code_type, D.20991
	cmpb	$100, %al	#, D.20991
	jne	.L573	#,
	.loc 1 3307 0 is_stmt 1
	movq	-8(%rbp), %rax	# exp, tmp105
	movzbl	17(%rax), %eax	# *exp_1, D.20987
	andl	$4, %eax	#, D.20987
	testb	%al, %al	# D.20987
	jne	.L573	#,
	.loc 1 3308 0
	movq	-8(%rbp), %rax	# exp, tmp106
	movzbl	17(%rax), %eax	# *exp_1, D.20987
	andl	$8, %eax	#, D.20987
	testb	%al, %al	# D.20987
	jne	.L573	#,
	.loc 1 3309 0
	movq	-8(%rbp), %rax	# exp, tmp107
	movzbl	49(%rax), %eax	# *exp_1, D.20987
	andl	$2, %eax	#, D.20987
	testb	%al, %al	# D.20987
	jne	.L573	#,
	.loc 1 3313 0
	movq	-8(%rbp), %rax	# exp, tmp108
	movzbl	18(%rax), %eax	# *exp_1, D.20987
	andl	$8, %eax	#, D.20987
	testb	%al, %al	# D.20987
	jne	.L573	#,
	.loc 1 3314 0
	movq	-8(%rbp), %rax	# exp, tmp109
	movzbl	49(%rax), %eax	# *exp_1, D.20987
	andl	$1, %eax	#, D.20987
	testb	%al, %al	# D.20987
	jne	.L573	#,
	.loc 1 3317 0
	movq	-8(%rbp), %rax	# exp, tmp110
	movzbl	18(%rax), %eax	# *exp_1, D.20987
	andl	$4, %eax	#, D.20987
	testb	%al, %al	# D.20987
	je	.L572	#,
	.loc 1 3317 0 is_stmt 0 discriminator 1
	movq	-8(%rbp), %rax	# exp, tmp111
	movzbl	49(%rax), %eax	# *exp_1, D.20987
	andl	$4, %eax	#, D.20987
	testb	%al, %al	# D.20987
	je	.L573	#,
.L572:
	.loc 1 3306 0 is_stmt 1 discriminator 1
	movl	$1, %eax	#, iftmp.224
	jmp	.L574	#
.L573:
	.loc 1 3306 0 is_stmt 0 discriminator 3
	movl	$0, %eax	#, iftmp.224
.L574:
	.loc 1 3318 0 is_stmt 1
	popq	%rbp	#
	.cfi_def_cfa 7, 8
	ret
	.cfi_endproc
.LFE44:
	.size	simple_operand_p, .-simple_operand_p
	.type	range_binop, @function
range_binop:
.LFB45:
	.loc 1 3361 0
	.cfi_startproc
	pushq	%rbp	#
	.cfi_def_cfa_offset 16
	.cfi_offset 6, -16
	movq	%rsp, %rbp	#,
	.cfi_def_cfa_register 6
	subq	$80, %rsp	#,
	movl	%edi, -36(%rbp)	# code, code
	movq	%rsi, -48(%rbp)	# type, type
	movq	%rdx, -56(%rbp)	# arg0, arg0
	movl	%ecx, -40(%rbp)	# upper0_p, upper0_p
	movq	%r8, -64(%rbp)	# arg1, arg1
	movl	%r9d, -68(%rbp)	# upper1_p, upper1_p
	.loc 1 3371 0
	cmpq	$0, -56(%rbp)	#, arg0
	je	.L577	#,
	.loc 1 3371 0 is_stmt 0 discriminator 1
	cmpq	$0, -64(%rbp)	#, arg1
	je	.L577	#,
	.loc 1 3373 0 is_stmt 1
	movq	-56(%rbp), %rax	# arg0, tmp90
	movq	8(%rax), %rax	# arg0_11(D)->common.type, D.20993
	movq	-64(%rbp), %rdx	# arg1, tmp91
	movq	%rdx, %rsi	# tmp91,
	movq	%rax, %rdi	# D.20993,
	call	convert	#
	movq	%rax, %rcx	#, D.20993
	cmpq	$0, -48(%rbp)	#, type
	jne	.L578	#,
	.loc 1 3373 0 is_stmt 0 discriminator 1
	movq	-56(%rbp), %rax	# arg0, tmp92
	movq	8(%rax), %rax	# arg0_11(D)->common.type, iftmp.225
	jmp	.L579	#
.L578:
	.loc 1 3373 0 discriminator 2
	movq	-48(%rbp), %rax	# type, iftmp.225
.L579:
	.loc 1 3373 0 discriminator 3
	movq	-56(%rbp), %rdx	# arg0, tmp93
	movl	-36(%rbp), %edi	# code, tmp94
	movq	%rax, %rsi	# iftmp.225,
	movl	$0, %eax	#,
	call	build	#
	movq	%rax, %rdi	# D.20993,
	call	fold	#
	movq	%rax, -8(%rbp)	# tmp95, tem
	.loc 1 3375 0 is_stmt 1 discriminator 3
	jmp	.L580	#
.L583:
	.loc 1 3375 0 is_stmt 0 discriminator 1
	movq	-8(%rbp), %rax	# tem, tmp96
	movq	32(%rax), %rax	# tem_1->exp.operands, tmp97
	movq	%rax, -8(%rbp)	# tmp97, tem
.L580:
	movq	-8(%rbp), %rax	# tem, tmp98
	movzbl	16(%rax), %eax	# tem_1->common.code, D.20994
	cmpb	$115, %al	#, D.20994
	je	.L581	#,
	.loc 1 3375 0 discriminator 3
	movq	-8(%rbp), %rax	# tem, tmp99
	movzbl	16(%rax), %eax	# tem_1->common.code, D.20994
	cmpb	$114, %al	#, D.20994
	je	.L581	#,
	.loc 1 3375 0 discriminator 1
	movq	-8(%rbp), %rax	# tem, tmp100
	movzbl	16(%rax), %eax	# tem_1->common.code, D.20994
	cmpb	$116, %al	#, D.20994
	jne	.L582	#,
.L581:
	.loc 1 3375 0 discriminator 2
	movq	-8(%rbp), %rax	# tem, tmp101
	movq	32(%rax), %rdx	# tem_1->exp.operands, D.20993
	movq	global_trees(%rip), %rax	# global_trees, D.20993
	cmpq	%rax, %rdx	# D.20993, D.20993
	je	.L582	#,
	.loc 1 3375 0 discriminator 1
	movq	-8(%rbp), %rax	# tem, tmp102
	movq	8(%rax), %rax	# tem_1->common.type, D.20993
	movzbl	61(%rax), %eax	# *_26, tmp105
	shrb	%al	# D.20995
	movl	%eax, %edx	# D.20995, D.20995
	movq	-8(%rbp), %rax	# tem, tmp106
	movq	32(%rax), %rax	# tem_1->exp.operands, D.20993
