	.file	"gcse.c"
# GNU C (Ubuntu/Linaro 4.8.1-10ubuntu9) version 4.8.1 (x86_64-linux-gnu)
#	compiled by GNU C version 4.8.1, GMP version 5.1.2, MPFR version 3.1.1-p2, MPC version 1.0.1
# GGC heuristics: --param ggc-min-expand=100 --param ggc-min-heapsize=131072
# options passed:  -I . -imultiarch x86_64-linux-gnu -D SPEC_CPU -D NDEBUG
# -D SPEC_CPU_LP64 gcse.c -mtune=generic -march=x86-64 -g -fverbose-asm
# -fno-strict-aliasing -fstack-protector -Wformat -Wformat-security
# options enabled:  -faggressive-loop-optimizations
# -fasynchronous-unwind-tables -fauto-inc-dec -fbranch-count-reg -fcommon
# -fdelete-null-pointer-checks -fdwarf2-cfi-asm -fearly-inlining
# -feliminate-unused-debug-types -ffunction-cse -fgcse-lm -fgnu-runtime
# -fident -finline-atomics -fira-hoist-pressure -fira-share-save-slots
# -fira-share-spill-slots -fivopts -fkeep-static-consts
# -fleading-underscore -fmath-errno -fmerge-debug-strings
# -fmove-loop-invariants -fpeephole -fprefetch-loop-arrays
# -freg-struct-return -fsched-critical-path-heuristic
# -fsched-dep-count-heuristic -fsched-group-heuristic -fsched-interblock
# -fsched-last-insn-heuristic -fsched-rank-heuristic -fsched-spec
# -fsched-spec-insn-heuristic -fsched-stalled-insns-dep -fshow-column
# -fsigned-zeros -fsplit-ivs-in-unroller -fstack-protector
# -fstrict-volatile-bitfields -fsync-libcalls -ftrapping-math
# -ftree-coalesce-vars -ftree-cselim -ftree-forwprop -ftree-loop-if-convert
# -ftree-loop-im -ftree-loop-ivcanon -ftree-loop-optimize
# -ftree-parallelize-loops= -ftree-phiprop -ftree-pta -ftree-reassoc
# -ftree-scev-cprop -ftree-slp-vectorize -ftree-vect-loop-version
# -funit-at-a-time -funwind-tables -fverbose-asm -fzero-initialized-in-bss
# -m128bit-long-double -m64 -m80387 -maccumulate-outgoing-args
# -malign-stringops -mfancy-math-387 -mfp-ret-in-387 -mfxsr -mglibc
# -mieee-fp -mlong-double-80 -mmmx -mno-sse4 -mpush-args -mred-zone -msse
# -msse2 -mtls-direct-seg-refs

	.text
.Ltext0:
	.local	gcse_file
	.comm	gcse_file,8,8
	.local	run_jump_opt_after_gcse
	.comm	run_jump_opt_after_gcse,4,4
	.local	debug_stderr
	.comm	debug_stderr,8,8
	.local	gcse_obstack
	.comm	gcse_obstack,88,32
	.local	can_copy_p
	.comm	can_copy_p,59,32
	.local	can_copy_init_p
	.comm	can_copy_init_p,4,4
	.local	expr_hash_table_size
	.comm	expr_hash_table_size,4,4
	.local	expr_hash_table
	.comm	expr_hash_table,8,8
	.local	set_hash_table_size
	.comm	set_hash_table_size,4,4
	.local	set_hash_table
	.comm	set_hash_table,8,8
	.local	uid_cuid
	.comm	uid_cuid,8,8
	.local	max_uid
	.comm	max_uid,4,4
	.local	max_cuid
	.comm	max_cuid,4,4
	.local	cuid_insn
	.comm	cuid_insn,8,8
	.local	max_gcse_regno
	.comm	max_gcse_regno,4,4
	.local	n_exprs
	.comm	n_exprs,4,4
	.local	n_sets
	.comm	n_sets,4,4
	.local	reg_set_table
	.comm	reg_set_table,8,8
	.local	reg_set_table_size
	.comm	reg_set_table_size,4,4
	.local	pre_ldst_mems
	.comm	pre_ldst_mems,8,8
	.local	reg_set_bitmap
	.comm	reg_set_bitmap,8,8
	.local	reg_set_in_block
	.comm	reg_set_in_block,8,8
	.local	modify_mem_list
	.comm	modify_mem_list,8,8
	.comm	modify_mem_list_set,8,8
	.local	canon_modify_mem_list
	.comm	canon_modify_mem_list,8,8
	.comm	canon_modify_mem_list_set,8,8
	.local	bytes_used
	.comm	bytes_used,4,4
	.local	gcse_subst_count
	.comm	gcse_subst_count,4,4
	.local	gcse_create_count
	.comm	gcse_create_count,4,4
	.local	const_prop_count
	.comm	const_prop_count,4,4
	.local	copy_prop_count
	.comm	copy_prop_count,4,4
	.local	rd_kill
	.comm	rd_kill,8,8
	.local	rd_gen
	.comm	rd_gen,8,8
	.local	reaching_defs
	.comm	reaching_defs,8,8
	.local	rd_out
	.comm	rd_out,8,8
	.local	ae_kill
	.comm	ae_kill,8,8
	.local	ae_gen
	.comm	ae_gen,8,8
	.local	ae_in
	.comm	ae_in,8,8
	.local	ae_out
	.comm	ae_out,8,8
	.section	.rodata
	.align 8
.LC0:
	.string	"GCSE disabled: %d > 1000 basic blocks and %d >= 20 edges/basic block"
	.align 8
.LC1:
	.string	"GCSE disabled: %d basic blocks and %d registers"
.LC2:
	.string	"GCSE pass %d\n\n"
.LC3:
	.string	"GCSE of %s: %d basic blocks, "
.LC4:
	.string	"es"
.LC5:
	.string	""
.LC6:
	.string	"%d pass%s, %d bytes\n\n"
	.text
	.globl	gcse_main
	.type	gcse_main, @function
gcse_main:
.LFB2:
	.file 1 "gcse.c"
	.loc 1 711 0
	.cfi_startproc
	pushq	%rbp	#
	.cfi_def_cfa_offset 16
	.cfi_offset 6, -16
	movq	%rsp, %rbp	#,
	.cfi_def_cfa_register 6
	pushq	%rbx	#
	subq	$88, %rsp	#,
	.cfi_offset 3, -24
	movq	%rdi, -88(%rbp)	# f, f
	movq	%rsi, -96(%rbp)	# file, file
	.loc 1 726 0
	movq	cfun(%rip), %rax	# cfun, cfun.0
	movzbl	424(%rax), %eax	# *cfun.0_10, D.19045
	andl	$16, %eax	#, D.19045
	testb	%al, %al	# D.19045
	je	.L2	#,
	.loc 1 727 0
	movl	$0, %eax	#, D.19044
	jmp	.L3	#
.L2:
	.loc 1 730 0
	movl	$0, run_jump_opt_after_gcse(%rip)	#, run_jump_opt_after_gcse
	.loc 1 733 0
	movq	stderr(%rip), %rax	# stderr, stderr.1
	movq	%rax, debug_stderr(%rip)	# stderr.1, debug_stderr
	.loc 1 734 0
	movq	-96(%rbp), %rax	# file, tmp147
	movq	%rax, gcse_file(%rip)	# tmp147, gcse_file
	.loc 1 738 0
	call	max_reg_num	#
	movl	%eax, max_gcse_regno(%rip)	# max_gcse_regno.2, max_gcse_regno
	.loc 1 740 0
	cmpq	$0, -96(%rbp)	#, file
	je	.L4	#,
	.loc 1 741 0
	movq	-96(%rbp), %rax	# file, tmp148
	movq	%rax, %rdi	# tmp148,
	call	dump_flow_info	#
.L4:
	.loc 1 743 0
	movl	n_basic_blocks(%rip), %eax	# n_basic_blocks, tmp149
	movl	%eax, -64(%rbp)	# tmp149, orig_bb_count
	.loc 1 745 0
	movl	n_basic_blocks(%rip), %eax	# n_basic_blocks, n_basic_blocks.3
	cmpl	$1, %eax	#, n_basic_blocks.3
	jg	.L5	#,
	.loc 1 746 0
	movl	$0, %eax	#, D.19044
	jmp	.L3	#
.L5:
	.loc 1 756 0
	movl	n_basic_blocks(%rip), %eax	# n_basic_blocks, n_basic_blocks.4
	cmpl	$1000, %eax	#, n_basic_blocks.4
	jle	.L6	#,
	.loc 1 756 0 is_stmt 0 discriminator 1
	movl	n_edges(%rip), %eax	# n_edges, n_edges.5
	movl	n_basic_blocks(%rip), %ebx	# n_basic_blocks, n_basic_blocks.6
	cltd
	idivl	%ebx	# n_basic_blocks.6
	cmpl	$19, %eax	#, D.19044
	jle	.L6	#,
	.loc 1 758 0 is_stmt 1
	movl	warn_disabled_optimization(%rip), %eax	# warn_disabled_optimization, warn_disabled_optimization.7
	testl	%eax, %eax	# warn_disabled_optimization.7
	je	.L7	#,
	.loc 1 759 0
	movl	n_edges(%rip), %eax	# n_edges, n_edges.8
	movl	n_basic_blocks(%rip), %ebx	# n_basic_blocks, n_basic_blocks.9
	cltd
	idivl	%ebx	# n_basic_blocks.9
	movl	%eax, %edx	# tmp152, D.19044
	movl	n_basic_blocks(%rip), %eax	# n_basic_blocks, n_basic_blocks.10
	movl	%eax, %esi	# n_basic_blocks.10,
	movl	$.LC0, %edi	#,
	movl	$0, %eax	#,
	call	warning	#
.L7:
	.loc 1 761 0
	movl	$0, %eax	#, D.19044
	jmp	.L3	#
.L6:
	.loc 1 767 0
	movl	max_gcse_regno(%rip), %eax	# max_gcse_regno, max_gcse_regno.11
	addl	$63, %eax	#, D.19046
	shrl	$6, %eax	#, D.19046
	movl	%eax, %edx	# D.19046, D.19046
	movl	n_basic_blocks(%rip), %eax	# n_basic_blocks, n_basic_blocks.12
	imull	%edx, %eax	# D.19046, D.19046
	.loc 1 768 0
	movl	%eax, %eax	# D.19046, D.19047
	leaq	0(,%rax,8), %rdx	#, D.19047
	movq	compiler_params(%rip), %rax	# compiler_params, compiler_params.14
	addq	$96, %rax	#, D.19048
	movl	8(%rax), %eax	# _40->value, D.19044
	cltq
	.loc 1 766 0
	cmpq	%rax, %rdx	# D.19047, D.19047
	jbe	.L8	#,
	.loc 1 770 0
	movl	warn_disabled_optimization(%rip), %eax	# warn_disabled_optimization, warn_disabled_optimization.15
	testl	%eax, %eax	# warn_disabled_optimization.15
	je	.L9	#,
	.loc 1 771 0
	movl	max_gcse_regno(%rip), %edx	# max_gcse_regno, max_gcse_regno.16
	movl	n_basic_blocks(%rip), %eax	# n_basic_blocks, n_basic_blocks.17
	movl	%eax, %esi	# n_basic_blocks.17,
	movl	$.LC1, %edi	#,
	movl	$0, %eax	#,
	call	warning	#
.L9:
	.loc 1 774 0
	movl	$0, %eax	#, D.19044
	jmp	.L3	#
.L8:
	.loc 1 778 0
	movl	can_copy_init_p(%rip), %eax	# can_copy_init_p, can_copy_init_p.18
	testl	%eax, %eax	# can_copy_init_p.18
	jne	.L10	#,
	.loc 1 780 0
	call	compute_can_copy	#
	.loc 1 781 0
	movl	$1, can_copy_init_p(%rip)	#, can_copy_init_p
.L10:
	.loc 1 784 0
	movl	$gcse_obstack, %edi	#,
	call	gcc_obstack_init	#
	.loc 1 785 0
	movl	$0, bytes_used(%rip)	#, bytes_used
	.loc 1 788 0
	call	init_alias_analysis	#
	.loc 1 798 0
	movl	max_gcse_regno(%rip), %eax	# max_gcse_regno, max_gcse_regno.19
	movl	%eax, %edi	# max_gcse_regno.20,
	call	alloc_reg_set_mem	#
	.loc 1 799 0
	movq	-88(%rbp), %rax	# f, tmp154
	movq	%rax, %rdi	# tmp154,
	call	compute_sets	#
	.loc 1 801 0
	movl	$0, -72(%rbp)	#, pass
	.loc 1 802 0
	movl	bytes_used(%rip), %eax	# bytes_used, tmp155
	movl	%eax, -60(%rbp)	# tmp155, initial_bytes_used
	.loc 1 803 0
	movl	$0, -68(%rbp)	#, max_pass_bytes
	.loc 1 804 0
	movl	$1, %edi	#,
	call	gcse_alloc	#
	movq	%rax, -56(%rbp)	# tmp156, gcse_obstack_bottom
	.loc 1 805 0
	movl	$1, -76(%rbp)	#, changed
	.loc 1 806 0
	jmp	.L11	#
.L22:
	.loc 1 808 0
	movl	$0, -76(%rbp)	#, changed
	.loc 1 809 0
	cmpq	$0, -96(%rbp)	#, file
	je	.L12	#,
	.loc 1 810 0
	movl	-72(%rbp), %eax	# pass, tmp157
	leal	1(%rax), %edx	#, D.19044
	movq	-96(%rbp), %rax	# file, tmp158
	movl	$.LC2, %esi	#,
	movq	%rax, %rdi	# tmp158,
	movl	$0, %eax	#,
	call	fprintf	#
.L12:
	.loc 1 814 0
	movl	-60(%rbp), %eax	# initial_bytes_used, tmp159
	movl	%eax, bytes_used(%rip)	# tmp159, bytes_used
	.loc 1 817 0
	call	max_reg_num	#
	movl	%eax, max_gcse_regno(%rip)	# max_gcse_regno.21, max_gcse_regno
	.loc 1 819 0
	movq	-88(%rbp), %rax	# f, tmp160
	movq	%rax, %rdi	# tmp160,
	call	alloc_gcse_mem	#
	.loc 1 823 0
	movl	-72(%rbp), %eax	# pass, tmp161
	addl	$1, %eax	#, D.19044
	movl	$0, %esi	#,
	movl	%eax, %edi	# D.19044,
	call	one_cprop_pass	#
	movl	%eax, -76(%rbp)	# tmp162, changed
	.loc 1 825 0
	movl	optimize_size(%rip), %eax	# optimize_size, optimize_size.22
	testl	%eax, %eax	# optimize_size.22
	je	.L13	#,
	.loc 1 826 0
	movl	-72(%rbp), %eax	# pass, tmp163
	addl	$1, %eax	#, D.19044
	movl	%eax, %edi	# D.19044,
	call	one_classic_gcse_pass	#
	orl	%eax, -76(%rbp)	# D.19044, changed
	jmp	.L14	#
.L13:
	.loc 1 829 0
	movl	-72(%rbp), %eax	# pass, tmp164
	addl	$1, %eax	#, D.19044
	movl	%eax, %edi	# D.19044,
	call	one_pre_gcse_pass	#
	orl	%eax, -76(%rbp)	# D.19044, changed
	.loc 1 833 0
	cmpl	$0, -76(%rbp)	#, changed
	je	.L15	#,
	.loc 1 835 0
	call	free_modify_mem_tables	#
	.loc 1 837 0
	movl	n_basic_blocks(%rip), %eax	# n_basic_blocks, n_basic_blocks.23
	cltq
	sall	$3, %eax	#, D.19046
	movl	%eax, %edi	# D.19046,
	call	gmalloc	#
	movq	%rax, modify_mem_list(%rip)	# modify_mem_list.24, modify_mem_list
	.loc 1 839 0
	movl	n_basic_blocks(%rip), %eax	# n_basic_blocks, n_basic_blocks.25
	cltq
	sall	$3, %eax	#, D.19046
	movl	%eax, %edi	# D.19046,
	call	gmalloc	#
	movq	%rax, canon_modify_mem_list(%rip)	# canon_modify_mem_list.26, canon_modify_mem_list
	.loc 1 840 0
	movl	n_basic_blocks(%rip), %eax	# n_basic_blocks, n_basic_blocks.27
	cltq
	leaq	0(,%rax,8), %rdx	#, D.19047
	movq	modify_mem_list(%rip), %rax	# modify_mem_list, modify_mem_list.28
	movl	$0, %esi	#,
	movq	%rax, %rdi	# modify_mem_list.28,
	call	memset	#
	.loc 1 841 0
	movl	n_basic_blocks(%rip), %eax	# n_basic_blocks, n_basic_blocks.29
	cltq
	leaq	0(,%rax,8), %rdx	#, D.19047
	movq	canon_modify_mem_list(%rip), %rax	# canon_modify_mem_list, canon_modify_mem_list.30
	movl	$0, %esi	#,
	movq	%rax, %rdi	# canon_modify_mem_list.30,
	call	memset	#
	.loc 1 842 0
	movl	n_basic_blocks(%rip), %eax	# n_basic_blocks, tmp165
	movl	%eax, -64(%rbp)	# tmp165, orig_bb_count
.L15:
	.loc 1 844 0
	call	free_reg_set_mem	#
	.loc 1 845 0
	call	max_reg_num	#
	movl	%eax, %edi	# D.19044,
	call	alloc_reg_set_mem	#
	.loc 1 846 0
	movq	-88(%rbp), %rax	# f, tmp166
	movq	%rax, %rdi	# tmp166,
	call	compute_sets	#
	.loc 1 847 0
	movl	$1, run_jump_opt_after_gcse(%rip)	#, run_jump_opt_after_gcse
.L14:
	.loc 1 850 0
	movl	bytes_used(%rip), %eax	# bytes_used, bytes_used.31
	cmpl	%eax, -68(%rbp)	# bytes_used.31, max_pass_bytes
	jge	.L16	#,
	.loc 1 851 0
	movl	bytes_used(%rip), %eax	# bytes_used, tmp167
	movl	%eax, -68(%rbp)	# tmp167, max_pass_bytes
.L16:
	.loc 1 857 0
	call	free_gcse_mem	#
	.loc 1 864 0
	movl	optimize_size(%rip), %eax	# optimize_size, optimize_size.32
	testl	%eax, %eax	# optimize_size.32
	je	.L17	#,
	.loc 1 866 0
	call	max_reg_num	#
	movl	%eax, max_gcse_regno(%rip)	# max_gcse_regno.33, max_gcse_regno
	.loc 1 867 0
	movq	-88(%rbp), %rax	# f, tmp168
	movq	%rax, %rdi	# tmp168,
	call	alloc_gcse_mem	#
	.loc 1 868 0
	call	one_code_hoisting_pass	#
	orl	%eax, -76(%rbp)	# D.19044, changed
	.loc 1 869 0
	call	free_gcse_mem	#
	.loc 1 871 0
	movl	bytes_used(%rip), %eax	# bytes_used, bytes_used.34
	cmpl	%eax, -68(%rbp)	# bytes_used.34, max_pass_bytes
	jge	.L17	#,
	.loc 1 872 0
	movl	bytes_used(%rip), %eax	# bytes_used, tmp169
	movl	%eax, -68(%rbp)	# tmp169, max_pass_bytes
.L17:
	.loc 1 875 0
	cmpq	$0, -96(%rbp)	#, file
	je	.L18	#,
	.loc 1 877 0
	movq	-96(%rbp), %rax	# file, tmp170
	movq	%rax, %rsi	# tmp170,
	movl	$10, %edi	#,
	call	fputc	#
	.loc 1 878 0
	movq	-96(%rbp), %rax	# file, tmp171
	movq	%rax, %rdi	# tmp171,
	call	fflush	#
.L18:
.LBB2:
	.loc 1 881 0
	movq	$gcse_obstack, -48(%rbp)	#, __o
	movq	-56(%rbp), %rax	# gcse_obstack_bottom, tmp172
	movq	%rax, -40(%rbp)	# tmp172, __obj
	movq	-48(%rbp), %rax	# __o, tmp173
	movq	8(%rax), %rax	# __o_101->chunk, D.19049
	cmpq	-40(%rbp), %rax	# __obj, D.19049
	jae	.L19	#,
	.loc 1 881 0 is_stmt 0 discriminator 1
	movq	-48(%rbp), %rax	# __o, tmp174
	movq	32(%rax), %rax	# __o_101->chunk_limit, D.19050
	cmpq	-40(%rbp), %rax	# __obj, D.19050
	jbe	.L19	#,
	movq	-48(%rbp), %rax	# __o, tmp175
	movq	-40(%rbp), %rdx	# __obj, tmp176
	movq	%rdx, 16(%rax)	# tmp176, __o_101->object_base
	movq	-48(%rbp), %rax	# __o, tmp177
	movq	16(%rax), %rdx	# __o_101->object_base, D.19050
	movq	-48(%rbp), %rax	# __o, tmp178
	movq	%rdx, 24(%rax)	# D.19050, __o_101->next_free
	jmp	.L20	#
.L19:
	.loc 1 881 0 discriminator 2
	movq	-40(%rbp), %rdx	# __obj, tmp179
	movq	-48(%rbp), %rax	# __o, tmp180
	movq	%rdx, %rsi	# tmp179,
	movq	%rax, %rdi	# tmp180,
	call	obstack_free	#
.L20:
.LBE2:
	.loc 1 882 0 is_stmt 1
	addl	$1, -72(%rbp)	#, pass
.L11:
	.loc 1 806 0 discriminator 1
	cmpl	$0, -76(%rbp)	#, changed
	je	.L21	#,
	.loc 1 806 0 is_stmt 0 discriminator 2
	movq	compiler_params(%rip), %rax	# compiler_params, compiler_params.35
	addq	$120, %rax	#, D.19048
	movl	8(%rax), %eax	# _57->value, D.19044
	cmpl	-72(%rbp), %eax	# pass, D.19044
	jg	.L22	#,
.L21:
	.loc 1 888 0 is_stmt 1
	call	max_reg_num	#
	movl	%eax, max_gcse_regno(%rip)	# max_gcse_regno.36, max_gcse_regno
	.loc 1 889 0
	movq	-88(%rbp), %rax	# f, tmp181
	movq	%rax, %rdi	# tmp181,
	call	alloc_gcse_mem	#
	.loc 1 891 0
	movl	-72(%rbp), %eax	# pass, tmp182
	addl	$1, %eax	#, D.19044
	movl	$1, %esi	#,
	movl	%eax, %edi	# D.19044,
	call	one_cprop_pass	#
	.loc 1 892 0
	call	free_gcse_mem	#
	.loc 1 894 0
	cmpq	$0, -96(%rbp)	#, file
	je	.L23	#,
	.loc 1 896 0
	movl	n_basic_blocks(%rip), %ecx	# n_basic_blocks, n_basic_blocks.37
	.loc 1 897 0
	movq	cfun(%rip), %rax	# cfun, cfun.38
	.loc 1 896 0
	movq	40(%rax), %rdx	# cfun.38_111->name, D.19051
	movq	-96(%rbp), %rax	# file, tmp183
	movl	$.LC3, %esi	#,
	movq	%rax, %rdi	# tmp183,
	movl	$0, %eax	#,
	call	fprintf	#
	.loc 1 898 0
	cmpl	$1, -72(%rbp)	#, pass
	jle	.L24	#,
	.loc 1 898 0 is_stmt 0 discriminator 1
	movl	$.LC4, %eax	#, iftmp.39
	jmp	.L25	#
.L24:
	.loc 1 898 0 discriminator 2
	movl	$.LC5, %eax	#, iftmp.39
.L25:
	.loc 1 898 0 discriminator 3
	movl	-68(%rbp), %ecx	# max_pass_bytes, tmp184
	movl	-72(%rbp), %edx	# pass, tmp185
	movq	-96(%rbp), %rdi	# file, tmp186
	movl	%ecx, %r8d	# tmp184,
	movq	%rax, %rcx	# iftmp.39,
	movl	$.LC6, %esi	#,
	movl	$0, %eax	#,
	call	fprintf	#
.L23:
.LBB3:
	.loc 1 902 0 is_stmt 1
	movq	$gcse_obstack, -32(%rbp)	#, __o
	movq	$0, -24(%rbp)	#, __obj
	movq	-32(%rbp), %rax	# __o, tmp187
	movq	8(%rax), %rax	# __o_115->chunk, D.19049
	cmpq	-24(%rbp), %rax	# __obj, D.19049
	jae	.L26	#,
	.loc 1 902 0 is_stmt 0 discriminator 1
	movq	-32(%rbp), %rax	# __o, tmp188
	movq	32(%rax), %rax	# __o_115->chunk_limit, D.19050
	cmpq	-24(%rbp), %rax	# __obj, D.19050
	jbe	.L26	#,
	movq	-32(%rbp), %rax	# __o, tmp189
	movq	-24(%rbp), %rdx	# __obj, tmp190
	movq	%rdx, 16(%rax)	# tmp190, __o_115->object_base
	movq	-32(%rbp), %rax	# __o, tmp191
	movq	16(%rax), %rdx	# __o_115->object_base, D.19050
	movq	-32(%rbp), %rax	# __o, tmp192
	movq	%rdx, 24(%rax)	# D.19050, __o_115->next_free
	jmp	.L27	#
.L26:
	.loc 1 902 0 discriminator 2
	movq	-24(%rbp), %rdx	# __obj, tmp193
	movq	-32(%rbp), %rax	# __o, tmp194
	movq	%rdx, %rsi	# tmp193,
	movq	%rax, %rdi	# tmp194,
	call	obstack_free	#
.L27:
.LBE3:
	.loc 1 903 0 is_stmt 1
	call	free_reg_set_mem	#
	.loc 1 905 0
	call	end_alias_analysis	#
	.loc 1 906 0
	call	max_reg_num	#
	cltq
	movl	$0, %edx	#,
	movl	$0, %esi	#,
	movq	%rax, %rdi	# D.19047,
	call	allocate_reg_info	#
	.loc 1 912 0
	movl	run_jump_opt_after_gcse(%rip), %eax	# run_jump_opt_after_gcse, D.19044
.L3:
	.loc 1 913 0
	addq	$88, %rsp	#,
	popq	%rbx	#
	popq	%rbp	#
	.cfi_def_cfa 7, 8
	ret
	.cfi_endproc
.LFE2:
	.size	gcse_main, .-gcse_main
	.type	compute_can_copy, @function
compute_can_copy:
.LFB3:
	.loc 1 921 0
	.cfi_startproc
	pushq	%rbp	#
	.cfi_def_cfa_offset 16
	.cfi_offset 6, -16
	movq	%rsp, %rbp	#,
	.cfi_def_cfa_register 6
	subq	$32, %rsp	#,
	.loc 1 926 0
	movl	$59, %edx	#,
	movl	$0, %esi	#,
	movl	$can_copy_p, %edi	#,
	call	memset	#
	.loc 1 928 0
	call	start_sequence	#
	.loc 1 929 0
	movl	$0, -20(%rbp)	#, i
	jmp	.L29	#
.L33:
	.loc 1 930 0
	movl	-20(%rbp), %eax	# i, tmp65
	cltq
	movl	mode_class(,%rax,4), %eax	# mode_class, D.19059
	cmpl	$4, %eax	#, D.19059
	jne	.L30	#,
	.loc 1 935 0
	movl	-20(%rbp), %eax	# i, i.40
	movl	$58, %esi	#,
	movl	%eax, %edi	# i.40,
	call	gen_rtx_REG	#
	movq	%rax, -16(%rbp)	# tmp66, reg
	.loc 1 936 0
	movq	-16(%rbp), %rdx	# reg, tmp67
	movq	-16(%rbp), %rax	# reg, tmp68
	movq	%rdx, %rcx	# tmp67,
	movq	%rax, %rdx	# tmp68,
	movl	$0, %esi	#,
	movl	$47, %edi	#,
	call	gen_rtx_fmt_ee	#
	movq	%rax, %rdi	# D.19060,
	call	emit_insn	#
	movq	%rax, -8(%rbp)	# tmp69, insn
	.loc 1 937 0
	movq	-8(%rbp), %rax	# insn, tmp70
	movq	32(%rax), %rax	# insn_7->fld[3].rtx, D.19060
	movq	-8(%rbp), %rcx	# insn, tmp71
	movl	$0, %edx	#,
	movq	%rcx, %rsi	# tmp71,
	movq	%rax, %rdi	# D.19060,
	call	recog	#
	testl	%eax, %eax	# D.19061
	js	.L32	#,
	.loc 1 938 0
	movl	-20(%rbp), %eax	# i, tmp73
	cltq
	movb	$1, can_copy_p(%rax)	#, can_copy_p
	jmp	.L32	#
.L30:
	.loc 1 942 0
	movl	-20(%rbp), %eax	# i, tmp75
	cltq
	movb	$1, can_copy_p(%rax)	#, can_copy_p
.L32:
	.loc 1 929 0
	addl	$1, -20(%rbp)	#, i
.L29:
	.loc 1 929 0 is_stmt 0 discriminator 1
	cmpl	$58, -20(%rbp)	#, i
	jle	.L33	#,
	.loc 1 944 0 is_stmt 1
	call	end_sequence	#
	.loc 1 945 0
	leave
	.cfi_def_cfa 7, 8
	ret
	.cfi_endproc
.LFE3:
	.size	compute_can_copy, .-compute_can_copy
	.type	gmalloc, @function
gmalloc:
.LFB4:
	.loc 1 952 0
	.cfi_startproc
	pushq	%rbp	#
	.cfi_def_cfa_offset 16
	.cfi_offset 6, -16
	movq	%rsp, %rbp	#,
	.cfi_def_cfa_register 6
	subq	$16, %rsp	#,
	movl	%edi, -4(%rbp)	# size, size
	.loc 1 953 0
	movl	bytes_used(%rip), %eax	# bytes_used, bytes_used.41
	movl	%eax, %edx	# bytes_used.41, bytes_used.42
	movl	-4(%rbp), %eax	# size, tmp66
	addl	%edx, %eax	# bytes_used.42, D.19062
	movl	%eax, bytes_used(%rip)	# bytes_used.43, bytes_used
	.loc 1 954 0
	movl	-4(%rbp), %eax	# size, D.19063
	movq	%rax, %rdi	# D.19063,
	call	xmalloc	#
	.loc 1 955 0
	leave
	.cfi_def_cfa 7, 8
	ret
	.cfi_endproc
.LFE4:
	.size	gmalloc, .-gmalloc
	.type	grealloc, @function
grealloc:
.LFB5:
	.loc 1 965 0
	.cfi_startproc
	pushq	%rbp	#
	.cfi_def_cfa_offset 16
	.cfi_offset 6, -16
	movq	%rsp, %rbp	#,
	.cfi_def_cfa_register 6
	subq	$16, %rsp	#,
	movq	%rdi, -8(%rbp)	# ptr, ptr
	movl	%esi, -12(%rbp)	# size, size
	.loc 1 966 0
	movl	-12(%rbp), %edx	# size, D.19065
	movq	-8(%rbp), %rax	# ptr, tmp62
	movq	%rdx, %rsi	# D.19065,
	movq	%rax, %rdi	# tmp62,
	call	xrealloc	#
	.loc 1 967 0
	leave
	.cfi_def_cfa 7, 8
	ret
	.cfi_endproc
.LFE5:
	.size	grealloc, .-grealloc
	.type	gcse_alloc, @function
gcse_alloc:
.LFB6:
	.loc 1 976 0
	.cfi_startproc
	pushq	%rbp	#
	.cfi_def_cfa_offset 16
	.cfi_offset 6, -16
	movq	%rsp, %rbp	#,
	.cfi_def_cfa_register 6
	subq	$64, %rsp	#,
	movq	%rdi, -56(%rbp)	# size, size
.LBB4:
	.loc 1 977 0
	movq	$gcse_obstack, -32(%rbp)	#, __h
.LBB5:
	movq	-32(%rbp), %rax	# __h, tmp94
	movq	%rax, -24(%rbp)	# tmp94, __o
	movq	-56(%rbp), %rax	# size, tmp95
	movl	%eax, -36(%rbp)	# tmp95, __len
	movq	-24(%rbp), %rax	# __o, tmp96
	movq	32(%rax), %rax	# __o_2->chunk_limit, D.19067
	movq	%rax, %rdx	# D.19067, D.19068
	movq	-24(%rbp), %rax	# __o, tmp97
	movq	24(%rax), %rax	# __o_2->next_free, D.19067
	subq	%rax, %rdx	# D.19068, D.19068
	movl	-36(%rbp), %eax	# __len, tmp98
	cltq
	cmpq	%rax, %rdx	# D.19068, D.19068
	jge	.L39	#,
	.loc 1 977 0 is_stmt 0 discriminator 1
	movl	-36(%rbp), %edx	# __len, tmp99
	movq	-24(%rbp), %rax	# __o, tmp100
	movl	%edx, %esi	# tmp99,
	movq	%rax, %rdi	# tmp100,
	call	_obstack_newchunk	#
.L39:
	.loc 1 977 0 discriminator 2
	movq	-24(%rbp), %rax	# __o, tmp101
	movq	24(%rax), %rdx	# __o_2->next_free, D.19067
	movl	-36(%rbp), %eax	# __len, tmp102
	cltq
	addq	%rax, %rdx	# D.19069, D.19067
	movq	-24(%rbp), %rax	# __o, tmp103
	movq	%rdx, 24(%rax)	# D.19067, __o_2->next_free
.LBE5:
.LBB6:
	movq	-32(%rbp), %rax	# __h, tmp104
	movq	%rax, -16(%rbp)	# tmp104, __o1
	movq	-16(%rbp), %rax	# __o1, tmp105
	movq	16(%rax), %rax	# __o1_14->object_base, tmp106
	movq	%rax, -8(%rbp)	# tmp106, value
	movq	-16(%rbp), %rax	# __o1, tmp107
	movq	24(%rax), %rax	# __o1_14->next_free, D.19067
	cmpq	-8(%rbp), %rax	# value, D.19067
	jne	.L40	#,
	.loc 1 977 0 discriminator 1
	movq	-16(%rbp), %rax	# __o1, tmp108
	movzbl	80(%rax), %edx	# __o1_14->maybe_empty_object, tmp111
	orl	$2, %edx	#, tmp112
	movb	%dl, 80(%rax)	# tmp112, __o1_14->maybe_empty_object
.L40:
	.loc 1 977 0 discriminator 2
	movq	-16(%rbp), %rax	# __o1, tmp113
	movq	24(%rax), %rax	# __o1_14->next_free, D.19067
	movq	%rax, %rdx	# D.19067, D.19068
	movq	-16(%rbp), %rax	# __o1, tmp114
	movl	48(%rax), %eax	# __o1_14->alignment_mask, D.19070
	cltq
	addq	%rax, %rdx	# D.19068, D.19068
	movq	-16(%rbp), %rax	# __o1, tmp115
	movl	48(%rax), %eax	# __o1_14->alignment_mask, D.19070
	notl	%eax	# D.19070
	cltq
	andq	%rdx, %rax	# D.19068, D.19068
	movq	%rax, %rdx	# D.19068, D.19067
	movq	-16(%rbp), %rax	# __o1, tmp116
	movq	%rdx, 24(%rax)	# D.19067, __o1_14->next_free
	movq	-16(%rbp), %rax	# __o1, tmp117
	movq	24(%rax), %rax	# __o1_14->next_free, D.19067
	movq	%rax, %rdx	# D.19067, D.19068
	movq	-16(%rbp), %rax	# __o1, tmp118
	movq	8(%rax), %rax	# __o1_14->chunk, D.19071
	movq	%rdx, %rcx	# D.19068, D.19068
	subq	%rax, %rcx	# D.19068, D.19068
	movq	-16(%rbp), %rax	# __o1, tmp119
	movq	32(%rax), %rax	# __o1_14->chunk_limit, D.19067
	movq	%rax, %rdx	# D.19067, D.19068
	movq	-16(%rbp), %rax	# __o1, tmp120
	movq	8(%rax), %rax	# __o1_14->chunk, D.19071
	subq	%rax, %rdx	# D.19068, D.19068
	movq	%rdx, %rax	# D.19068, D.19068
	cmpq	%rax, %rcx	# D.19068, D.19068
	jle	.L41	#,
	.loc 1 977 0 discriminator 1
	movq	-16(%rbp), %rax	# __o1, tmp121
	movq	32(%rax), %rdx	# __o1_14->chunk_limit, D.19067
	movq	-16(%rbp), %rax	# __o1, tmp122
	movq	%rdx, 24(%rax)	# D.19067, __o1_14->next_free
.L41:
	.loc 1 977 0 discriminator 2
	movq	-16(%rbp), %rax	# __o1, tmp123
	movq	24(%rax), %rdx	# __o1_14->next_free, D.19067
	movq	-16(%rbp), %rax	# __o1, tmp124
	movq	%rdx, 16(%rax)	# D.19067, __o1_14->object_base
	movq	-8(%rbp), %rax	# value, D.19072
.LBE6:
.LBE4:
	.loc 1 978 0 is_stmt 1 discriminator 2
	leave
	.cfi_def_cfa 7, 8
	ret
	.cfi_endproc
.LFE6:
	.size	gcse_alloc, .-gcse_alloc
	.type	alloc_gcse_mem, @function
alloc_gcse_mem:
.LFB7:
	.loc 1 988 0
	.cfi_startproc
	pushq	%rbp	#
	.cfi_def_cfa_offset 16
	.cfi_offset 6, -16
	movq	%rsp, %rbp	#,
	.cfi_def_cfa_register 6
	subq	$32, %rsp	#,
	movq	%rdi, -24(%rbp)	# f, f
	.loc 1 996 0
	call	get_max_uid	#
	movl	%eax, max_uid(%rip)	# max_uid.44, max_uid
	.loc 1 997 0
	movl	max_uid(%rip), %eax	# max_uid, max_uid.45
	addl	$1, %eax	#, D.19073
	sall	$2, %eax	#, D.19074
	movl	%eax, -12(%rbp)	# D.19074, n
	.loc 1 998 0
	movl	-12(%rbp), %eax	# n, n.46
	movl	%eax, %edi	# n.46,
	call	gmalloc	#
	movq	%rax, uid_cuid(%rip)	# uid_cuid.47, uid_cuid
	.loc 1 999 0
	movl	-12(%rbp), %eax	# n, tmp126
	movslq	%eax, %rdx	# tmp126, D.19075
	movq	uid_cuid(%rip), %rax	# uid_cuid, uid_cuid.48
	movl	$0, %esi	#,
	movq	%rax, %rdi	# uid_cuid.48,
	call	memset	#
	.loc 1 1000 0
	movq	-24(%rbp), %rax	# f, tmp127
	movq	%rax, -8(%rbp)	# tmp127, insn
	movl	$0, -16(%rbp)	#, i
	jmp	.L44	#
.L47:
	.loc 1 1002 0
	movq	-8(%rbp), %rax	# insn, tmp128
	movzwl	(%rax), %eax	# insn_5->code, D.19076
	movzwl	%ax, %eax	# D.19076, D.19073
	cltq
	movzbl	rtx_class(%rax), %eax	# rtx_class, D.19077
	cmpb	$105, %al	#, D.19077
	jne	.L45	#,
	.loc 1 1003 0
	movq	uid_cuid(%rip), %rdx	# uid_cuid, uid_cuid.49
	movq	-8(%rbp), %rax	# insn, tmp130
	movl	8(%rax), %eax	# insn_5->fld[0].rtint, D.19073
	cltq
	salq	$2, %rax	#, D.19075
	leaq	(%rdx,%rax), %rcx	#, D.19078
	movl	-16(%rbp), %eax	# i, i.50
	leal	1(%rax), %edx	#, tmp131
	movl	%edx, -16(%rbp)	# tmp131, i
	movl	%eax, (%rcx)	# i.50, *_27
	jmp	.L46	#
.L45:
	.loc 1 1005 0
	movq	uid_cuid(%rip), %rdx	# uid_cuid, uid_cuid.51
	movq	-8(%rbp), %rax	# insn, tmp132
	movl	8(%rax), %eax	# insn_5->fld[0].rtint, D.19073
	cltq
	salq	$2, %rax	#, D.19075
	addq	%rax, %rdx	# D.19075, D.19078
	movl	-16(%rbp), %eax	# i, tmp133
	movl	%eax, (%rdx)	# tmp133, *_34
.L46:
	.loc 1 1000 0
	movq	-8(%rbp), %rax	# insn, tmp134
	movq	24(%rax), %rax	# insn_5->fld[2].rtx, tmp135
	movq	%rax, -8(%rbp)	# tmp135, insn
.L44:
	.loc 1 1000 0 is_stmt 0 discriminator 1
	cmpq	$0, -8(%rbp)	#, insn
	jne	.L47	#,
	.loc 1 1010 0 is_stmt 1
	movl	-16(%rbp), %eax	# i, tmp136
	movl	%eax, max_cuid(%rip)	# tmp136, max_cuid
	.loc 1 1011 0
	movl	max_cuid(%rip), %eax	# max_cuid, max_cuid.52
	addl	$1, %eax	#, D.19073
	sall	$3, %eax	#, D.19074
	movl	%eax, -12(%rbp)	# D.19074, n
	.loc 1 1012 0
	movl	-12(%rbp), %eax	# n, n.53
	movl	%eax, %edi	# n.53,
	call	gmalloc	#
	movq	%rax, cuid_insn(%rip)	# cuid_insn.54, cuid_insn
	.loc 1 1013 0
	movl	-12(%rbp), %eax	# n, tmp137
	movslq	%eax, %rdx	# tmp137, D.19075
	movq	cuid_insn(%rip), %rax	# cuid_insn, cuid_insn.55
	movl	$0, %esi	#,
	movq	%rax, %rdi	# cuid_insn.55,
	call	memset	#
	.loc 1 1014 0
	movq	-24(%rbp), %rax	# f, tmp138
	movq	%rax, -8(%rbp)	# tmp138, insn
	movl	$0, -16(%rbp)	#, i
	jmp	.L48	#
.L50:
	.loc 1 1015 0
	movq	-8(%rbp), %rax	# insn, tmp139
	movzwl	(%rax), %eax	# insn_6->code, D.19076
	movzwl	%ax, %eax	# D.19076, D.19073
	cltq
	movzbl	rtx_class(%rax), %eax	# rtx_class, D.19077
	cmpb	$105, %al	#, D.19077
	jne	.L49	#,
	.loc 1 1016 0
	movq	cuid_insn(%rip), %rcx	# cuid_insn, cuid_insn.56
	movl	-16(%rbp), %eax	# i, i.57
	leal	1(%rax), %edx	#, tmp141
	movl	%edx, -16(%rbp)	# tmp141, i
	cltq
	salq	$3, %rax	#, D.19075
	leaq	(%rcx,%rax), %rdx	#, D.19079
	movq	-8(%rbp), %rax	# insn, tmp142
	movq	%rax, (%rdx)	# tmp142, *_55
.L49:
	.loc 1 1014 0
	movq	-8(%rbp), %rax	# insn, tmp143
	movq	24(%rax), %rax	# insn_6->fld[2].rtx, tmp144
	movq	%rax, -8(%rbp)	# tmp144, insn
.L48:
	.loc 1 1014 0 is_stmt 0 discriminator 1
	cmpq	$0, -8(%rbp)	#, insn
	jne	.L50	#,
	.loc 1 1019 0 is_stmt 1
	movl	$24, %edi	#,
	call	xmalloc	#
	movq	%rax, %rdi	# D.19080,
	call	bitmap_initialize	#
	movq	%rax, reg_set_bitmap(%rip)	# reg_set_bitmap.58, reg_set_bitmap
	.loc 1 1022 0
	movl	max_gcse_regno(%rip), %edx	# max_gcse_regno, max_gcse_regno.59
	movl	n_basic_blocks(%rip), %eax	# n_basic_blocks, n_basic_blocks.60
	movl	%edx, %esi	# max_gcse_regno.59,
	movl	%eax, %edi	# n_basic_blocks.61,
	call	sbitmap_vector_alloc	#
	movq	%rax, reg_set_in_block(%rip)	# reg_set_in_block.62, reg_set_in_block
	.loc 1 1026 0
	movl	n_basic_blocks(%rip), %eax	# n_basic_blocks, n_basic_blocks.63
	cltq
	sall	$3, %eax	#, D.19081
	movl	%eax, %edi	# D.19081,
	call	gmalloc	#
	movq	%rax, modify_mem_list(%rip)	# modify_mem_list.64, modify_mem_list
	.loc 1 1027 0
	movl	n_basic_blocks(%rip), %eax	# n_basic_blocks, n_basic_blocks.65
	cltq
	sall	$3, %eax	#, D.19081
	movl	%eax, %edi	# D.19081,
	call	gmalloc	#
	movq	%rax, canon_modify_mem_list(%rip)	# canon_modify_mem_list.66, canon_modify_mem_list
	.loc 1 1028 0
	movl	n_basic_blocks(%rip), %eax	# n_basic_blocks, n_basic_blocks.67
	cltq
	leaq	0(,%rax,8), %rdx	#, D.19075
	movq	modify_mem_list(%rip), %rax	# modify_mem_list, modify_mem_list.68
	movl	$0, %esi	#,
	movq	%rax, %rdi	# modify_mem_list.68,
	call	memset	#
	.loc 1 1029 0
	movl	n_basic_blocks(%rip), %eax	# n_basic_blocks, n_basic_blocks.69
	cltq
	leaq	0(,%rax,8), %rdx	#, D.19075
	movq	canon_modify_mem_list(%rip), %rax	# canon_modify_mem_list, canon_modify_mem_list.70
	movl	$0, %esi	#,
	movq	%rax, %rdi	# canon_modify_mem_list.70,
	call	memset	#
	.loc 1 1030 0
	movl	$24, %edi	#,
	call	xmalloc	#
	movq	%rax, %rdi	# D.19080,
	call	bitmap_initialize	#
	movq	%rax, modify_mem_list_set(%rip)	# modify_mem_list_set.71, modify_mem_list_set
	.loc 1 1031 0
	movl	$24, %edi	#,
	call	xmalloc	#
	movq	%rax, %rdi	# D.19080,
	call	bitmap_initialize	#
	movq	%rax, canon_modify_mem_list_set(%rip)	# canon_modify_mem_list_set.72, canon_modify_mem_list_set
	.loc 1 1032 0
	leave
	.cfi_def_cfa 7, 8
	ret
	.cfi_endproc
.LFE7:
	.size	alloc_gcse_mem, .-alloc_gcse_mem
	.type	free_gcse_mem, @function
free_gcse_mem:
.LFB8:
	.loc 1 1038 0
	.cfi_startproc
	pushq	%rbp	#
	.cfi_def_cfa_offset 16
	.cfi_offset 6, -16
	movq	%rsp, %rbp	#,
	.cfi_def_cfa_register 6
	.loc 1 1039 0
	movq	uid_cuid(%rip), %rax	# uid_cuid, uid_cuid.73
	movq	%rax, %rdi	# uid_cuid.73,
	call	free	#
	.loc 1 1040 0
	movq	cuid_insn(%rip), %rax	# cuid_insn, cuid_insn.74
	movq	%rax, %rdi	# cuid_insn.74,
	call	free	#
	.loc 1 1042 0
	movq	reg_set_bitmap(%rip), %rax	# reg_set_bitmap, reg_set_bitmap.75
	testq	%rax, %rax	# reg_set_bitmap.75
	je	.L52	#,
	.loc 1 1042 0 is_stmt 0 discriminator 1
	movq	reg_set_bitmap(%rip), %rax	# reg_set_bitmap, reg_set_bitmap.76
	movq	%rax, %rdi	# reg_set_bitmap.76,
	call	bitmap_clear	#
	movq	reg_set_bitmap(%rip), %rax	# reg_set_bitmap, reg_set_bitmap.77
	movq	%rax, %rdi	# reg_set_bitmap.77,
	call	free	#
	movq	$0, reg_set_bitmap(%rip)	#, reg_set_bitmap
.L52:
	.loc 1 1044 0 is_stmt 1
	movq	reg_set_in_block(%rip), %rax	# reg_set_in_block, reg_set_in_block.78
	movq	%rax, %rdi	# reg_set_in_block.78,
	call	free	#
	.loc 1 1045 0
	call	free_modify_mem_tables	#
	.loc 1 1046 0
	movq	modify_mem_list_set(%rip), %rax	# modify_mem_list_set, modify_mem_list_set.79
	testq	%rax, %rax	# modify_mem_list_set.79
	je	.L53	#,
	.loc 1 1046 0 is_stmt 0 discriminator 1
	movq	modify_mem_list_set(%rip), %rax	# modify_mem_list_set, modify_mem_list_set.80
	movq	%rax, %rdi	# modify_mem_list_set.80,
	call	bitmap_clear	#
	movq	modify_mem_list_set(%rip), %rax	# modify_mem_list_set, modify_mem_list_set.81
	movq	%rax, %rdi	# modify_mem_list_set.81,
	call	free	#
	movq	$0, modify_mem_list_set(%rip)	#, modify_mem_list_set
.L53:
	.loc 1 1047 0 is_stmt 1
	movq	canon_modify_mem_list_set(%rip), %rax	# canon_modify_mem_list_set, canon_modify_mem_list_set.82
	testq	%rax, %rax	# canon_modify_mem_list_set.82
	je	.L51	#,
	.loc 1 1047 0 is_stmt 0 discriminator 1
	movq	canon_modify_mem_list_set(%rip), %rax	# canon_modify_mem_list_set, canon_modify_mem_list_set.83
	movq	%rax, %rdi	# canon_modify_mem_list_set.83,
	call	bitmap_clear	#
	movq	canon_modify_mem_list_set(%rip), %rax	# canon_modify_mem_list_set, canon_modify_mem_list_set.84
	movq	%rax, %rdi	# canon_modify_mem_list_set.84,
	call	free	#
	movq	$0, canon_modify_mem_list_set(%rip)	#, canon_modify_mem_list_set
.L51:
	.loc 1 1048 0 is_stmt 1
	popq	%rbp	#
	.cfi_def_cfa 7, 8
	ret
	.cfi_endproc
.LFE8:
	.size	free_gcse_mem, .-free_gcse_mem
	.type	get_bitmap_width, @function
get_bitmap_width:
.LFB9:
	.loc 1 1072 0
	.cfi_startproc
	pushq	%rbp	#
	.cfi_def_cfa_offset 16
	.cfi_offset 6, -16
	movq	%rsp, %rbp	#,
	.cfi_def_cfa_register 6
	movl	%edi, -20(%rbp)	# n, n
	movl	%esi, -24(%rbp)	# x, x
	movl	%edx, -28(%rbp)	# y, y
	.loc 1 1076 0
	movq	$10485760, -16(%rbp)	#, max_bitmap_memory
	.loc 1 1080 0
	movl	-20(%rbp), %eax	# n, tmp73
	imull	-24(%rbp), %eax	# x, D.19082
	cltq
	salq	$3, %rax	#, tmp74
	movq	%rax, -8(%rbp)	# tmp74, column_size
	.loc 1 1084 0
	movl	-28(%rbp), %eax	# y, y.85
	addl	$63, %eax	#, D.19084
	shrl	$6, %eax	#, D.19084
	movl	%eax, %eax	# D.19084, D.19083
	imulq	-8(%rbp), %rax	# column_size, D.19083
	cmpq	-16(%rbp), %rax	# max_bitmap_memory, D.19083
	ja	.L56	#,
	.loc 1 1085 0
	movl	-28(%rbp), %eax	# y, D.19082
	jmp	.L57	#
.L56:
	.loc 1 1089 0
	movq	-8(%rbp), %rax	# column_size, tmp75
	movq	-16(%rbp), %rdx	# max_bitmap_memory, tmp76
	addq	%rdx, %rax	# tmp76, D.19083
	subq	$1, %rax	#, D.19083
	.loc 1 1090 0
	movl	$0, %edx	#, tmp78
	divq	-8(%rbp)	# column_size
	.loc 1 1089 0
	sall	$6, %eax	#, D.19085
.L57:
	.loc 1 1091 0
	popq	%rbp	#
	.cfi_def_cfa 7, 8
	ret
	.cfi_endproc
.LFE9:
	.size	get_bitmap_width, .-get_bitmap_width
	.type	compute_local_properties, @function
compute_local_properties:
.LFB10:
	.loc 1 1127 0
	.cfi_startproc
	pushq	%rbp	#
	.cfi_def_cfa_offset 16
	.cfi_offset 6, -16
	movq	%rsp, %rbp	#,
	.cfi_def_cfa_register 6
	subq	$80, %rsp	#,
	movq	%rdi, -56(%rbp)	# transp, transp
	movq	%rsi, -64(%rbp)	# comp, comp
	movq	%rdx, -72(%rbp)	# antloc, antloc
	movl	%ecx, -76(%rbp)	# setp, setp
	.loc 1 1132 0
	cmpq	$0, -56(%rbp)	#, transp
	je	.L59	#,
	.loc 1 1134 0
	cmpl	$0, -76(%rbp)	#, setp
	je	.L60	#,
	.loc 1 1135 0
	movl	n_basic_blocks(%rip), %eax	# n_basic_blocks, n_basic_blocks.86
	movl	%eax, %edx	# n_basic_blocks.86, n_basic_blocks.87
	movq	-56(%rbp), %rax	# transp, tmp121
	movl	%edx, %esi	# n_basic_blocks.87,
	movq	%rax, %rdi	# tmp121,
	call	sbitmap_vector_zero	#
	jmp	.L59	#
.L60:
	.loc 1 1137 0
	movl	n_basic_blocks(%rip), %eax	# n_basic_blocks, n_basic_blocks.88
	movl	%eax, %edx	# n_basic_blocks.88, n_basic_blocks.89
	movq	-56(%rbp), %rax	# transp, tmp122
	movl	%edx, %esi	# n_basic_blocks.89,
	movq	%rax, %rdi	# tmp122,
	call	sbitmap_vector_ones	#
.L59:
	.loc 1 1140 0
	cmpq	$0, -64(%rbp)	#, comp
	je	.L61	#,
	.loc 1 1141 0
	movl	n_basic_blocks(%rip), %eax	# n_basic_blocks, n_basic_blocks.90
	movl	%eax, %edx	# n_basic_blocks.90, n_basic_blocks.91
	movq	-64(%rbp), %rax	# comp, tmp123
	movl	%edx, %esi	# n_basic_blocks.91,
	movq	%rax, %rdi	# tmp123,
	call	sbitmap_vector_zero	#
.L61:
	.loc 1 1142 0
	cmpq	$0, -72(%rbp)	#, antloc
	je	.L62	#,
	.loc 1 1143 0
	movl	n_basic_blocks(%rip), %eax	# n_basic_blocks, n_basic_blocks.92
	movl	%eax, %edx	# n_basic_blocks.92, n_basic_blocks.93
	movq	-72(%rbp), %rax	# antloc, tmp124
	movl	%edx, %esi	# n_basic_blocks.93,
	movq	%rax, %rdi	# tmp124,
	call	sbitmap_vector_zero	#
.L62:
	.loc 1 1148 0
	cmpl	$0, -76(%rbp)	#, setp
	je	.L63	#,
	.loc 1 1148 0 is_stmt 0 discriminator 1
	movl	set_hash_table_size(%rip), %eax	# set_hash_table_size, iftmp.94
	jmp	.L64	#
.L63:
	.loc 1 1148 0 discriminator 2
	movl	expr_hash_table_size(%rip), %eax	# expr_hash_table_size, iftmp.94
.L64:
	.loc 1 1148 0 discriminator 3
	movl	%eax, -32(%rbp)	# iftmp.94, hash_table_size
	.loc 1 1149 0 is_stmt 1 discriminator 3
	cmpl	$0, -76(%rbp)	#, setp
	je	.L65	#,
	.loc 1 1149 0 is_stmt 0 discriminator 1
	movq	set_hash_table(%rip), %rax	# set_hash_table, iftmp.95
	jmp	.L66	#
.L65:
	.loc 1 1149 0 discriminator 2
	movq	expr_hash_table(%rip), %rax	# expr_hash_table, iftmp.95
.L66:
	.loc 1 1149 0 discriminator 3
	movq	%rax, -8(%rbp)	# iftmp.95, hash_table
	.loc 1 1151 0 is_stmt 1 discriminator 3
	movl	$0, -36(%rbp)	#, i
	jmp	.L67	#
.L77:
.LBB7:
	.loc 1 1155 0
	movl	-36(%rbp), %eax	# i, D.19087
	leaq	0(,%rax,8), %rdx	#, D.19087
	movq	-8(%rbp), %rax	# hash_table, tmp125
	addq	%rdx, %rax	# D.19087, D.19088
	movq	(%rax), %rax	# *_28, tmp126
	movq	%rax, -24(%rbp)	# tmp126, expr
	jmp	.L68	#
.L76:
.LBB8:
	.loc 1 1157 0
	movq	-24(%rbp), %rax	# expr, tmp127
	movl	8(%rax), %eax	# expr_2->bitmap_index, tmp128
	movl	%eax, -28(%rbp)	# tmp128, indx
	.loc 1 1163 0
	cmpq	$0, -56(%rbp)	#, transp
	je	.L69	#,
	.loc 1 1164 0
	movq	-24(%rbp), %rax	# expr, tmp129
	movq	(%rax), %rax	# expr_2->expr, D.19089
	movl	-76(%rbp), %ecx	# setp, tmp130
	movq	-56(%rbp), %rdx	# transp, tmp131
	movl	-28(%rbp), %esi	# indx, tmp132
	movq	%rax, %rdi	# D.19089,
	call	compute_transp	#
.L69:
	.loc 1 1168 0
	cmpq	$0, -72(%rbp)	#, antloc
	je	.L70	#,
	.loc 1 1169 0
	movq	-24(%rbp), %rax	# expr, tmp133
	movq	24(%rax), %rax	# expr_2->antic_occr, tmp134
	movq	%rax, -16(%rbp)	# tmp134, occr
	jmp	.L71	#
.L72:
	.loc 1 1171 0 discriminator 2
	movq	basic_block_for_insn(%rip), %rax	# basic_block_for_insn, basic_block_for_insn.96
	movq	-16(%rbp), %rdx	# occr, tmp135
	movq	8(%rdx), %rdx	# occr_3->insn, D.19089
	movl	8(%rdx), %edx	# _34->fld[0].rtint, D.19090
	movslq	%edx, %rdx	# D.19090, tmp136
	addq	$4, %rdx	#, tmp137
	movq	(%rax,%rdx,8), %rax	# basic_block_for_insn.96_33->data.bb, D.19091
	movl	88(%rax), %eax	# _36->index, D.19090
	cltq
	leaq	0(,%rax,8), %rdx	#, D.19087
	movq	-72(%rbp), %rax	# antloc, tmp138
	addq	%rdx, %rax	# D.19087, D.19092
	movq	(%rax), %rdx	# *_40, D.19093
	movl	-28(%rbp), %eax	# indx, indx.97
	shrl	$6, %eax	#, D.19094
	movq	basic_block_for_insn(%rip), %rcx	# basic_block_for_insn, basic_block_for_insn.98
	movq	-16(%rbp), %rsi	# occr, tmp139
	movq	8(%rsi), %rsi	# occr_3->insn, D.19089
	movl	8(%rsi), %esi	# _45->fld[0].rtint, D.19090
	movslq	%esi, %rsi	# D.19090, tmp140
	addq	$4, %rsi	#, tmp141
	movq	(%rcx,%rsi,8), %rcx	# basic_block_for_insn.98_44->data.bb, D.19091
	movl	88(%rcx), %ecx	# _47->index, D.19090
	movslq	%ecx, %rcx	# D.19090, D.19087
	leaq	0(,%rcx,8), %rsi	#, D.19087
	movq	-72(%rbp), %rcx	# antloc, tmp142
	addq	%rsi, %rcx	# D.19087, D.19092
	movq	(%rcx), %rcx	# *_51, D.19093
	movl	%eax, %esi	# D.19094, tmp143
	addq	$2, %rsi	#, tmp144
	movq	(%rcx,%rsi,8), %rsi	# _52->elms, D.19087
	movl	-28(%rbp), %ecx	# indx, tmp145
	andl	$63, %ecx	#, D.19090
	movl	$1, %edi	#, tmp146
	salq	%cl, %rdi	# D.19090, D.19087
	movq	%rdi, %rcx	# D.19087, D.19087
	orq	%rsi, %rcx	# D.19087, D.19087
	movl	%eax, %eax	# D.19094, tmp147
	addq	$2, %rax	#, tmp148
	movq	%rcx, (%rdx,%rax,8)	# D.19087, _41->elms
	.loc 1 1175 0 discriminator 2
	movq	-16(%rbp), %rax	# occr, tmp149
	movb	$0, 16(%rax)	#, occr_3->deleted_p
	.loc 1 1169 0 discriminator 2
	movq	-16(%rbp), %rax	# occr, tmp150
	movq	(%rax), %rax	# occr_3->next, tmp151
	movq	%rax, -16(%rbp)	# tmp151, occr
.L71:
	.loc 1 1169 0 is_stmt 0 discriminator 1
	cmpq	$0, -16(%rbp)	#, occr
	jne	.L72	#,
.L70:
	.loc 1 1180 0 is_stmt 1
	cmpq	$0, -64(%rbp)	#, comp
	je	.L73	#,
	.loc 1 1181 0
	movq	-24(%rbp), %rax	# expr, tmp152
	movq	32(%rax), %rax	# expr_2->avail_occr, tmp153
	movq	%rax, -16(%rbp)	# tmp153, occr
	jmp	.L74	#
.L75:
	.loc 1 1183 0 discriminator 2
	movq	basic_block_for_insn(%rip), %rax	# basic_block_for_insn, basic_block_for_insn.99
	movq	-16(%rbp), %rdx	# occr, tmp154
	movq	8(%rdx), %rdx	# occr_4->insn, D.19089
	movl	8(%rdx), %edx	# _60->fld[0].rtint, D.19090
	movslq	%edx, %rdx	# D.19090, tmp155
	addq	$4, %rdx	#, tmp156
	movq	(%rax,%rdx,8), %rax	# basic_block_for_insn.99_59->data.bb, D.19091
	movl	88(%rax), %eax	# _62->index, D.19090
	cltq
	leaq	0(,%rax,8), %rdx	#, D.19087
	movq	-64(%rbp), %rax	# comp, tmp157
	addq	%rdx, %rax	# D.19087, D.19092
	movq	(%rax), %rdx	# *_66, D.19093
	movl	-28(%rbp), %eax	# indx, indx.100
	shrl	$6, %eax	#, D.19094
	movq	basic_block_for_insn(%rip), %rcx	# basic_block_for_insn, basic_block_for_insn.101
	movq	-16(%rbp), %rsi	# occr, tmp158
	movq	8(%rsi), %rsi	# occr_4->insn, D.19089
	movl	8(%rsi), %esi	# _71->fld[0].rtint, D.19090
	movslq	%esi, %rsi	# D.19090, tmp159
	addq	$4, %rsi	#, tmp160
	movq	(%rcx,%rsi,8), %rcx	# basic_block_for_insn.101_70->data.bb, D.19091
	movl	88(%rcx), %ecx	# _73->index, D.19090
	movslq	%ecx, %rcx	# D.19090, D.19087
	leaq	0(,%rcx,8), %rsi	#, D.19087
	movq	-64(%rbp), %rcx	# comp, tmp161
	addq	%rsi, %rcx	# D.19087, D.19092
	movq	(%rcx), %rcx	# *_77, D.19093
	movl	%eax, %esi	# D.19094, tmp162
	addq	$2, %rsi	#, tmp163
	movq	(%rcx,%rsi,8), %rsi	# _78->elms, D.19087
	movl	-28(%rbp), %ecx	# indx, tmp164
	andl	$63, %ecx	#, D.19090
	movl	$1, %edi	#, tmp165
	salq	%cl, %rdi	# D.19090, D.19087
	movq	%rdi, %rcx	# D.19087, D.19087
	orq	%rsi, %rcx	# D.19087, D.19087
	movl	%eax, %eax	# D.19094, tmp166
	addq	$2, %rax	#, tmp167
	movq	%rcx, (%rdx,%rax,8)	# D.19087, _67->elms
	.loc 1 1187 0 discriminator 2
	movq	-16(%rbp), %rax	# occr, tmp168
	movb	$0, 17(%rax)	#, occr_4->copied_p
	.loc 1 1181 0 discriminator 2
	movq	-16(%rbp), %rax	# occr, tmp169
	movq	(%rax), %rax	# occr_4->next, tmp170
	movq	%rax, -16(%rbp)	# tmp170, occr
.L74:
	.loc 1 1181 0 is_stmt 0 discriminator 1
	cmpq	$0, -16(%rbp)	#, occr
	jne	.L75	#,
.L73:
	.loc 1 1192 0 is_stmt 1
	movq	-24(%rbp), %rax	# expr, tmp171
	movq	$0, 40(%rax)	#, expr_2->reaching_reg
.LBE8:
	.loc 1 1155 0
	movq	-24(%rbp), %rax	# expr, tmp172
	movq	16(%rax), %rax	# expr_2->next_same_hash, tmp173
	movq	%rax, -24(%rbp)	# tmp173, expr
.L68:
	.loc 1 1155 0 is_stmt 0 discriminator 1
	cmpq	$0, -24(%rbp)	#, expr
	jne	.L76	#,
.LBE7:
	.loc 1 1151 0 is_stmt 1
	addl	$1, -36(%rbp)	#, i
.L67:
	.loc 1 1151 0 is_stmt 0 discriminator 1
	movl	-36(%rbp), %eax	# i, tmp174
	cmpl	-32(%rbp), %eax	# hash_table_size, tmp174
	jb	.L77	#,
	.loc 1 1195 0 is_stmt 1
	leave
	.cfi_def_cfa 7, 8
	ret
	.cfi_endproc
.LFE10:
	.size	compute_local_properties, .-compute_local_properties
	.local	reg_set_obstack
	.comm	reg_set_obstack,88,32
	.type	alloc_reg_set_mem, @function
alloc_reg_set_mem:
.LFB11:
	.loc 1 1207 0
	.cfi_startproc
	pushq	%rbp	#
	.cfi_def_cfa_offset 16
	.cfi_offset 6, -16
	movq	%rsp, %rbp	#,
	.cfi_def_cfa_register 6
	subq	$32, %rsp	#,
	movl	%edi, -20(%rbp)	# n_regs, n_regs
	.loc 1 1210 0
	movl	-20(%rbp), %eax	# n_regs, tmp66
	addl	$100, %eax	#, reg_set_table_size.102
	movl	%eax, reg_set_table_size(%rip)	# reg_set_table_size.102, reg_set_table_size
	.loc 1 1211 0
	movl	reg_set_table_size(%rip), %eax	# reg_set_table_size, reg_set_table_size.103
	cltq
	sall	$3, %eax	#, tmp67
	movl	%eax, -4(%rbp)	# tmp67, n
	.loc 1 1212 0
	movl	-4(%rbp), %eax	# n, tmp68
	movl	%eax, %edi	# tmp68,
	call	gmalloc	#
	movq	%rax, reg_set_table(%rip)	# reg_set_table.104, reg_set_table
	.loc 1 1213 0
	movl	-4(%rbp), %edx	# n, D.19095
	movq	reg_set_table(%rip), %rax	# reg_set_table, reg_set_table.105
	movl	$0, %esi	#,
	movq	%rax, %rdi	# reg_set_table.105,
	call	memset	#
	.loc 1 1215 0
	movl	$reg_set_obstack, %edi	#,
	call	gcc_obstack_init	#
	.loc 1 1216 0
	leave
	.cfi_def_cfa 7, 8
	ret
	.cfi_endproc
.LFE11:
	.size	alloc_reg_set_mem, .-alloc_reg_set_mem
	.type	free_reg_set_mem, @function
free_reg_set_mem:
.LFB12:
	.loc 1 1220 0
	.cfi_startproc
	pushq	%rbp	#
	.cfi_def_cfa_offset 16
	.cfi_offset 6, -16
	movq	%rsp, %rbp	#,
	.cfi_def_cfa_register 6
	subq	$16, %rsp	#,
	.loc 1 1221 0
	movq	reg_set_table(%rip), %rax	# reg_set_table, reg_set_table.106
	movq	%rax, %rdi	# reg_set_table.106,
	call	free	#
.LBB9:
	.loc 1 1222 0
	movq	$reg_set_obstack, -16(%rbp)	#, __o
	movq	$0, -8(%rbp)	#, __obj
	movq	-16(%rbp), %rax	# __o, tmp63
	movq	8(%rax), %rax	# __o_2->chunk, D.19097
	cmpq	-8(%rbp), %rax	# __obj, D.19097
	jae	.L80	#,
	.loc 1 1222 0 is_stmt 0 discriminator 1
	movq	-16(%rbp), %rax	# __o, tmp64
	movq	32(%rax), %rax	# __o_2->chunk_limit, D.19098
	cmpq	-8(%rbp), %rax	# __obj, D.19098
	jbe	.L80	#,
	movq	-16(%rbp), %rax	# __o, tmp65
	movq	-8(%rbp), %rdx	# __obj, tmp66
	movq	%rdx, 16(%rax)	# tmp66, __o_2->object_base
	movq	-16(%rbp), %rax	# __o, tmp67
	movq	16(%rax), %rdx	# __o_2->object_base, D.19098
	movq	-16(%rbp), %rax	# __o, tmp68
	movq	%rdx, 24(%rax)	# D.19098, __o_2->next_free
	jmp	.L79	#
.L80:
	.loc 1 1222 0 discriminator 2
	movq	-8(%rbp), %rdx	# __obj, tmp69
	movq	-16(%rbp), %rax	# __o, tmp70
	movq	%rdx, %rsi	# tmp69,
	movq	%rax, %rdi	# tmp70,
	call	obstack_free	#
.L79:
.LBE9:
	.loc 1 1223 0 is_stmt 1
	leave
	.cfi_def_cfa 7, 8
	ret
	.cfi_endproc
.LFE12:
	.size	free_reg_set_mem, .-free_reg_set_mem
	.type	record_one_set, @function
record_one_set:
.LFB13:
	.loc 1 1231 0
	.cfi_startproc
	pushq	%rbp	#
	.cfi_def_cfa_offset 16
	.cfi_offset 6, -16
	movq	%rsp, %rbp	#,
	.cfi_def_cfa_register 6
	subq	$64, %rsp	#,
	movl	%edi, -52(%rbp)	# regno, regno
	movq	%rsi, -64(%rbp)	# insn, insn
	.loc 1 1236 0
	movl	reg_set_table_size(%rip), %eax	# reg_set_table_size, reg_set_table_size.107
	cmpl	%eax, -52(%rbp)	# reg_set_table_size.107, regno
	jl	.L83	#,
.LBB10:
	.loc 1 1238 0
	movl	-52(%rbp), %eax	# regno, tmp124
	addl	$100, %eax	#, tmp123
	movl	%eax, -48(%rbp)	# tmp123, new_size
	.loc 1 1241 0
	movl	-48(%rbp), %eax	# new_size, tmp125
	cltq
	leal	0(,%rax,8), %edx	#, D.19100
	movq	reg_set_table(%rip), %rax	# reg_set_table, reg_set_table.108
	movl	%edx, %esi	# D.19100,
	movq	%rax, %rdi	# reg_set_table.108,
	call	grealloc	#
	movq	%rax, reg_set_table(%rip)	# reg_set_table.109, reg_set_table
	.loc 1 1244 0
	movl	reg_set_table_size(%rip), %eax	# reg_set_table_size, reg_set_table_size.110
	movl	-48(%rbp), %edx	# new_size, tmp126
	subl	%eax, %edx	# reg_set_table_size.110, D.19101
	movl	%edx, %eax	# D.19101, D.19101
	.loc 1 1243 0
	cltq
	leaq	0(,%rax,8), %rdx	#, D.19099
	movq	reg_set_table(%rip), %rax	# reg_set_table, reg_set_table.111
	movl	reg_set_table_size(%rip), %ecx	# reg_set_table_size, reg_set_table_size.112
	movslq	%ecx, %rcx	# reg_set_table_size.112, D.19099
	salq	$3, %rcx	#, D.19099
	addq	%rcx, %rax	# D.19099, D.19102
	movl	$0, %esi	#,
	movq	%rax, %rdi	# D.19102,
	call	memset	#
	.loc 1 1245 0
	movl	-48(%rbp), %eax	# new_size, tmp127
	movl	%eax, reg_set_table_size(%rip)	# tmp127, reg_set_table_size
.L83:
.LBE10:
.LBB11:
	.loc 1 1248 0
	movq	$reg_set_obstack, -40(%rbp)	#, __h
.LBB12:
	movq	-40(%rbp), %rax	# __h, tmp128
	movq	%rax, -32(%rbp)	# tmp128, __o
	movl	$16, -44(%rbp)	#, __len
	movq	-32(%rbp), %rax	# __o, tmp129
	movq	32(%rax), %rax	# __o_19->chunk_limit, D.19103
	movq	%rax, %rdx	# D.19103, D.19104
	movq	-32(%rbp), %rax	# __o, tmp130
	movq	24(%rax), %rax	# __o_19->next_free, D.19103
	subq	%rax, %rdx	# D.19104, D.19104
	movl	-44(%rbp), %eax	# __len, tmp131
	cltq
	cmpq	%rax, %rdx	# D.19104, D.19104
	jge	.L84	#,
	.loc 1 1248 0 is_stmt 0 discriminator 1
	movl	-44(%rbp), %edx	# __len, tmp132
	movq	-32(%rbp), %rax	# __o, tmp133
	movl	%edx, %esi	# tmp132,
	movq	%rax, %rdi	# tmp133,
	call	_obstack_newchunk	#
.L84:
	.loc 1 1248 0 discriminator 2
	movq	-32(%rbp), %rax	# __o, tmp134
	movq	24(%rax), %rdx	# __o_19->next_free, D.19103
	movl	-44(%rbp), %eax	# __len, tmp135
	cltq
	addq	%rax, %rdx	# D.19105, D.19103
	movq	-32(%rbp), %rax	# __o, tmp136
	movq	%rdx, 24(%rax)	# D.19103, __o_19->next_free
.LBE12:
.LBB13:
	movq	-40(%rbp), %rax	# __h, tmp137
	movq	%rax, -24(%rbp)	# tmp137, __o1
	movq	-24(%rbp), %rax	# __o1, tmp138
	movq	16(%rax), %rax	# __o1_30->object_base, tmp139
	movq	%rax, -16(%rbp)	# tmp139, value
	movq	-24(%rbp), %rax	# __o1, tmp140
	movq	24(%rax), %rax	# __o1_30->next_free, D.19103
	cmpq	-16(%rbp), %rax	# value, D.19103
	jne	.L85	#,
	.loc 1 1248 0 discriminator 1
	movq	-24(%rbp), %rax	# __o1, tmp141
	movzbl	80(%rax), %edx	# __o1_30->maybe_empty_object, tmp144
	orl	$2, %edx	#, tmp145
	movb	%dl, 80(%rax)	# tmp145, __o1_30->maybe_empty_object
.L85:
	.loc 1 1248 0 discriminator 2
	movq	-24(%rbp), %rax	# __o1, tmp146
	movq	24(%rax), %rax	# __o1_30->next_free, D.19103
	movq	%rax, %rdx	# D.19103, D.19104
	movq	-24(%rbp), %rax	# __o1, tmp147
	movl	48(%rax), %eax	# __o1_30->alignment_mask, D.19101
	cltq
	addq	%rax, %rdx	# D.19104, D.19104
	movq	-24(%rbp), %rax	# __o1, tmp148
	movl	48(%rax), %eax	# __o1_30->alignment_mask, D.19101
	notl	%eax	# D.19101
	cltq
	andq	%rdx, %rax	# D.19104, D.19104
	movq	%rax, %rdx	# D.19104, D.19103
	movq	-24(%rbp), %rax	# __o1, tmp149
	movq	%rdx, 24(%rax)	# D.19103, __o1_30->next_free
	movq	-24(%rbp), %rax	# __o1, tmp150
	movq	24(%rax), %rax	# __o1_30->next_free, D.19103
	movq	%rax, %rdx	# D.19103, D.19104
	movq	-24(%rbp), %rax	# __o1, tmp151
	movq	8(%rax), %rax	# __o1_30->chunk, D.19106
	movq	%rdx, %rcx	# D.19104, D.19104
	subq	%rax, %rcx	# D.19104, D.19104
	movq	-24(%rbp), %rax	# __o1, tmp152
	movq	32(%rax), %rax	# __o1_30->chunk_limit, D.19103
	movq	%rax, %rdx	# D.19103, D.19104
	movq	-24(%rbp), %rax	# __o1, tmp153
	movq	8(%rax), %rax	# __o1_30->chunk, D.19106
	subq	%rax, %rdx	# D.19104, D.19104
	movq	%rdx, %rax	# D.19104, D.19104
	cmpq	%rax, %rcx	# D.19104, D.19104
	jle	.L86	#,
	.loc 1 1248 0 discriminator 1
	movq	-24(%rbp), %rax	# __o1, tmp154
	movq	32(%rax), %rdx	# __o1_30->chunk_limit, D.19103
	movq	-24(%rbp), %rax	# __o1, tmp155
	movq	%rdx, 24(%rax)	# D.19103, __o1_30->next_free
.L86:
	.loc 1 1248 0 discriminator 2
	movq	-24(%rbp), %rax	# __o1, tmp156
	movq	24(%rax), %rdx	# __o1_30->next_free, D.19103
	movq	-24(%rbp), %rax	# __o1, tmp157
	movq	%rdx, 16(%rax)	# D.19103, __o1_30->object_base
	movq	-16(%rbp), %rax	# value, D.19102
.LBE13:
.LBE11:
	movq	%rax, -8(%rbp)	# new_reg_info.113, new_reg_info
	.loc 1 1250 0 is_stmt 1 discriminator 2
	movl	bytes_used(%rip), %eax	# bytes_used, bytes_used.114
	addl	$16, %eax	#, D.19107
	movl	%eax, bytes_used(%rip)	# bytes_used.116, bytes_used
	.loc 1 1251 0 discriminator 2
	movq	-8(%rbp), %rax	# new_reg_info, tmp158
	movq	-64(%rbp), %rdx	# insn, tmp159
	movq	%rdx, 8(%rax)	# tmp159, new_reg_info_57->insn
	.loc 1 1252 0 discriminator 2
	movq	reg_set_table(%rip), %rax	# reg_set_table, reg_set_table.117
	movl	-52(%rbp), %edx	# regno, tmp160
	movslq	%edx, %rdx	# tmp160, D.19099
	salq	$3, %rdx	#, D.19099
	addq	%rdx, %rax	# D.19099, D.19108
	movq	(%rax), %rdx	# *_66, D.19109
	movq	-8(%rbp), %rax	# new_reg_info, tmp161
	movq	%rdx, (%rax)	# D.19109, new_reg_info_57->next
	.loc 1 1253 0 discriminator 2
	movq	reg_set_table(%rip), %rax	# reg_set_table, reg_set_table.118
	movl	-52(%rbp), %edx	# regno, tmp162
	movslq	%edx, %rdx	# tmp162, D.19099
	salq	$3, %rdx	#, D.19099
	addq	%rax, %rdx	# reg_set_table.118, D.19108
	movq	-8(%rbp), %rax	# new_reg_info, tmp163
	movq	%rax, (%rdx)	# tmp163, *_71
	.loc 1 1254 0 discriminator 2
	leave
	.cfi_def_cfa 7, 8
	ret
	.cfi_endproc
.LFE13:
	.size	record_one_set, .-record_one_set
	.type	record_set_info, @function
record_set_info:
.LFB14:
	.loc 1 1264 0
	.cfi_startproc
	pushq	%rbp	#
	.cfi_def_cfa_offset 16
	.cfi_offset 6, -16
	movq	%rsp, %rbp	#,
	.cfi_def_cfa_register 6
	subq	$48, %rsp	#,
	movq	%rdi, -24(%rbp)	# dest, dest
	movq	%rsi, -32(%rbp)	# setter, setter
	movq	%rdx, -40(%rbp)	# data, data
	.loc 1 1265 0
	movq	-40(%rbp), %rax	# data, tmp63
	movq	%rax, -8(%rbp)	# tmp63, record_set_insn
	.loc 1 1267 0
	movq	-24(%rbp), %rax	# dest, tmp64
	movzwl	(%rax), %eax	# dest_3(D)->code, D.19110
	cmpw	$61, %ax	#, D.19110
	jne	.L87	#,
	.loc 1 1267 0 is_stmt 0 discriminator 1
	movq	-24(%rbp), %rax	# dest, tmp65
	movl	8(%rax), %eax	# dest_3(D)->fld[0].rtuint, D.19111
	cmpl	$52, %eax	#, D.19111
	jbe	.L87	#,
	.loc 1 1268 0 is_stmt 1
	movq	-24(%rbp), %rax	# dest, tmp66
	movl	8(%rax), %eax	# dest_3(D)->fld[0].rtuint, D.19111
	movq	-8(%rbp), %rdx	# record_set_insn, tmp67
	movq	%rdx, %rsi	# tmp67,
	movl	%eax, %edi	# D.19112,
	call	record_one_set	#
.L87:
	.loc 1 1269 0
	leave
	.cfi_def_cfa 7, 8
	ret
	.cfi_endproc
.LFE14:
	.size	record_set_info, .-record_set_info
	.type	compute_sets, @function
compute_sets:
.LFB15:
	.loc 1 1279 0
	.cfi_startproc
	pushq	%rbp	#
	.cfi_def_cfa_offset 16
	.cfi_offset 6, -16
	movq	%rsp, %rbp	#,
	.cfi_def_cfa_register 6
	subq	$32, %rsp	#,
	movq	%rdi, -24(%rbp)	# f, f
	.loc 1 1282 0
	movq	-24(%rbp), %rax	# f, tmp63
	movq	%rax, -8(%rbp)	# tmp63, insn
	jmp	.L90	#
.L92:
	.loc 1 1283 0
	movq	-8(%rbp), %rax	# insn, tmp64
	movzwl	(%rax), %eax	# insn_1->code, D.19113
	movzwl	%ax, %eax	# D.19113, D.19114
	cltq
	movzbl	rtx_class(%rax), %eax	# rtx_class, D.19115
	cmpb	$105, %al	#, D.19115
	jne	.L91	#,
	.loc 1 1284 0
	movq	-8(%rbp), %rax	# insn, tmp66
	movq	32(%rax), %rax	# insn_1->fld[3].rtx, D.19116
	movq	-8(%rbp), %rdx	# insn, tmp67
	movl	$record_set_info, %esi	#,
	movq	%rax, %rdi	# D.19116,
	call	note_stores	#
.L91:
	.loc 1 1282 0
	movq	-8(%rbp), %rax	# insn, tmp68
	movq	24(%rax), %rax	# insn_1->fld[2].rtx, tmp69
	movq	%rax, -8(%rbp)	# tmp69, insn
.L90:
	.loc 1 1282 0 is_stmt 0 discriminator 1
	cmpq	$0, -8(%rbp)	#, insn
	jne	.L92	#,
	.loc 1 1285 0 is_stmt 1
	leave
	.cfi_def_cfa 7, 8
	ret
	.cfi_endproc
.LFE15:
	.size	compute_sets, .-compute_sets
	.local	reg_avail_info
	.comm	reg_avail_info,8,8
	.local	current_bb
	.comm	current_bb,4,4
	.type	want_to_gcse_p, @function
want_to_gcse_p:
.LFB16:
	.loc 1 1310 0
	.cfi_startproc
	pushq	%rbp	#
	.cfi_def_cfa_offset 16
	.cfi_offset 6, -16
	movq	%rsp, %rbp	#,
	.cfi_def_cfa_register 6
	pushq	%rbx	#
	subq	$40, %rsp	#,
	.cfi_offset 3, -24
	movq	%rdi, -40(%rbp)	# x, x
	.loc 1 1312 0
	movl	$0, -24(%rbp)	#, num_clobbers
	.loc 1 1315 0
	movq	-40(%rbp), %rax	# x, tmp88
	movzwl	(%rax), %eax	# x_3(D)->code, D.19118
	movzwl	%ax, %eax	# D.19118, D.19119
	subl	$50, %eax	#, tmp89
	cmpl	$13, %eax	#, tmp89
	ja	.L106	#,
	movl	%eax, %eax	# tmp89, tmp90
	movq	.L96(,%rax,8), %rax	#, tmp91
	jmp	*%rax	# tmp91
	.section	.rodata
	.align 8
	.align 4
.L96:
	.quad	.L95
	.quad	.L106
	.quad	.L106
	.quad	.L106
	.quad	.L95
	.quad	.L95
	.quad	.L95
	.quad	.L106
	.quad	.L106
	.quad	.L106
	.quad	.L106
	.quad	.L95
	.quad	.L106
	.quad	.L95
	.text
.L95:
	.loc 1 1323 0
	movl	$0, %eax	#, D.19117
	jmp	.L104	#
.L106:
	.loc 1 1326 0
	nop
	.loc 1 1330 0
	movq	-40(%rbp), %rax	# x, tmp92
	movzbl	2(%rax), %eax	# x_3(D)->mode, D.19120
	movzbl	%al, %edx	# D.19120, D.19121
	movq	-40(%rbp), %rax	# x, tmp93
	movl	%edx, %esi	# D.19121,
	movq	%rax, %rdi	# tmp93,
	call	general_operand	#
	testl	%eax, %eax	# D.19117
	je	.L98	#,
	.loc 1 1331 0
	movl	$1, %eax	#, D.19117
	jmp	.L104	#
.L98:
	.loc 1 1332 0
	movq	-40(%rbp), %rax	# x, tmp94
	movzbl	2(%rax), %eax	# x_3(D)->mode, D.19120
	testb	%al, %al	# D.19120
	jne	.L99	#,
	.loc 1 1333 0
	movl	$0, %eax	#, D.19117
	jmp	.L104	#
.L99:
	.loc 1 1337 0
	movq	test_insn.12084(%rip), %rax	# test_insn, test_insn.119
	testq	%rax, %rax	# test_insn.119
	jne	.L100	#,
	.loc 1 1340 0
	movq	const_int_rtx+512(%rip), %rbx	# const_int_rtx, D.19122
	movl	word_mode(%rip), %eax	# word_mode, word_mode.120
	movl	$106, %esi	#,
	movl	%eax, %edi	# word_mode.120,
	call	gen_rtx_REG	#
	movq	%rbx, %rcx	# D.19122,
	movq	%rax, %rdx	# D.19122,
	movl	$0, %esi	#,
	movl	$47, %edi	#,
	call	gen_rtx_fmt_ee	#
	movq	%rax, %rdi	# D.19122,
	call	make_insn_raw	#
	movq	%rax, test_insn.12084(%rip)	# test_insn.121, test_insn
	.loc 1 1344 0
	movq	test_insn.12084(%rip), %rdx	# test_insn, test_insn.122
	movq	test_insn.12084(%rip), %rax	# test_insn, test_insn.123
	movq	$0, 16(%rax)	#, test_insn.123_20->fld[1].rtx
	movq	16(%rax), %rax	# test_insn.123_20->fld[1].rtx, D.19122
	movq	%rax, 24(%rdx)	# D.19122, test_insn.122_19->fld[2].rtx
	.loc 1 1345 0
	movl	$1, %esi	#,
	movl	$test_insn.12084, %edi	#,
	call	ggc_add_rtx_root	#
.L100:
	.loc 1 1350 0
	movq	test_insn.12084(%rip), %rax	# test_insn, test_insn.124
	movq	32(%rax), %rax	# test_insn.124_22->fld[3].rtx, D.19122
	movq	8(%rax), %rax	# _23->fld[0].rtx, D.19122
	movq	-40(%rbp), %rdx	# x, tmp95
	movzbl	2(%rdx), %edx	# x_3(D)->mode, D.19120
	movb	%dl, 2(%rax)	# D.19120, _24->mode
	.loc 1 1351 0
	movq	test_insn.12084(%rip), %rax	# test_insn, test_insn.125
	movq	32(%rax), %rax	# test_insn.125_26->fld[3].rtx, D.19122
	movq	-40(%rbp), %rdx	# x, tmp96
	movq	%rdx, 16(%rax)	# tmp96, _27->fld[1].rtx
	.loc 1 1352 0
	movq	test_insn.12084(%rip), %rcx	# test_insn, test_insn.127
	movq	test_insn.12084(%rip), %rax	# test_insn, test_insn.128
	movq	32(%rax), %rax	# test_insn.128_29->fld[3].rtx, D.19122
	.loc 1 1353 0
	leaq	-24(%rbp), %rdx	#, tmp97
	movq	%rcx, %rsi	# test_insn.127,
	movq	%rax, %rdi	# D.19122,
	call	recog	#
	movl	%eax, -20(%rbp)	# tmp98, icode
	cmpl	$0, -20(%rbp)	#, icode
	js	.L101	#,
	.loc 1 1353 0 is_stmt 0 discriminator 1
	movl	-24(%rbp), %eax	# num_clobbers, num_clobbers.129
	testl	%eax, %eax	# num_clobbers.129
	je	.L102	#,
	.loc 1 1353 0 discriminator 4
	movl	-20(%rbp), %eax	# icode, tmp99
	movl	%eax, %edi	# tmp99,
	call	added_clobbers_hard_reg_p	#
	testl	%eax, %eax	# D.19117
	jne	.L101	#,
.L102:
	.loc 1 1353 0 discriminator 3
	movl	$1, %eax	#, iftmp.126
	jmp	.L103	#
.L101:
	.loc 1 1353 0 discriminator 2
	movl	$0, %eax	#, iftmp.126
.L103:
.L104:
	.loc 1 1354 0 is_stmt 1
	addq	$40, %rsp	#,
	popq	%rbx	#
	popq	%rbp	#
	.cfi_def_cfa 7, 8
	ret
	.cfi_endproc
.LFE16:
	.size	want_to_gcse_p, .-want_to_gcse_p
	.type	oprs_unchanged_p, @function
oprs_unchanged_p:
.LFB17:
	.loc 1 1364 0
	.cfi_startproc
	pushq	%rbp	#
	.cfi_def_cfa_offset 16
	.cfi_offset 6, -16
	movq	%rsp, %rbp	#,
	.cfi_def_cfa_register 6
	subq	$64, %rsp	#,
	movq	%rdi, -40(%rbp)	# x, x
	movq	%rsi, -48(%rbp)	# insn, insn
	movl	%edx, -52(%rbp)	# avail_p, avail_p
	.loc 1 1369 0
	cmpq	$0, -40(%rbp)	#, x
	jne	.L108	#,
	.loc 1 1370 0
	movl	$1, %eax	#, D.19123
	jmp	.L109	#
.L108:
	.loc 1 1372 0
	movq	-40(%rbp), %rax	# x, tmp113
	movzwl	(%rax), %eax	# x_4(D)->code, D.19124
	movzwl	%ax, %eax	# D.19124, tmp114
	movl	%eax, -20(%rbp)	# tmp114, code
	.loc 1 1373 0
	movl	-20(%rbp), %eax	# code, tmp116
	subl	$44, %eax	#, tmp115
	cmpl	$57, %eax	#, tmp115
	ja	.L128	#,
	movl	%eax, %eax	# tmp115, tmp117
	movq	.L112(,%rax,8), %rax	#, tmp118
	jmp	*%rax	# tmp118
	.section	.rodata
	.align 8
	.align 4
.L112:
	.quad	.L111
	.quad	.L111
	.quad	.L128
	.quad	.L128
	.quad	.L128
	.quad	.L128
	.quad	.L128
	.quad	.L128
	.quad	.L128
	.quad	.L128
	.quad	.L111
	.quad	.L111
	.quad	.L111
	.quad	.L128
	.quad	.L111
	.quad	.L111
	.quad	.L128
	.quad	.L113
	.quad	.L128
	.quad	.L128
	.quad	.L128
	.quad	.L128
	.quad	.L114
	.quad	.L111
	.quad	.L111
	.quad	.L111
	.quad	.L128
	.quad	.L128
	.quad	.L128
	.quad	.L128
	.quad	.L128
	.quad	.L128
	.quad	.L128
	.quad	.L128
	.quad	.L128
	.quad	.L128
	.quad	.L128
	.quad	.L128
	.quad	.L128
	.quad	.L128
	.quad	.L128
	.quad	.L128
	.quad	.L128
	.quad	.L128
	.quad	.L128
	.quad	.L128
	.quad	.L128
	.quad	.L128
	.quad	.L128
	.quad	.L128
	.quad	.L128
	.quad	.L128
	.quad	.L115
	.quad	.L115
	.quad	.L115
	.quad	.L115
	.quad	.L115
	.quad	.L115
	.text
.L113:
.LBB14:
	.loc 1 1377 0
	movq	reg_avail_info(%rip), %rcx	# reg_avail_info, reg_avail_info.130
	movq	-40(%rbp), %rax	# x, tmp119
	movl	8(%rax), %eax	# x_4(D)->fld[0].rtuint, D.19125
	movl	%eax, %edx	# D.19125, D.19126
	movq	%rdx, %rax	# D.19126, tmp120
	addq	%rax, %rax	# tmp120
	addq	%rdx, %rax	# D.19126, tmp120
	salq	$2, %rax	#, tmp121
	addq	%rcx, %rax	# reg_avail_info.130, tmp122
	movq	%rax, -16(%rbp)	# tmp122, info
	.loc 1 1379 0
	movq	-16(%rbp), %rax	# info, tmp123
	movl	(%rax), %edx	# info_12->last_bb, D.19123
	movl	current_bb(%rip), %eax	# current_bb, current_bb.131
	cmpl	%eax, %edx	# current_bb.131, D.19123
	je	.L116	#,
	.loc 1 1380 0
	movl	$1, %eax	#, D.19123
	jmp	.L109	#
.L116:
	.loc 1 1381 0
	cmpl	$0, -52(%rbp)	#, avail_p
	je	.L117	#,
	.loc 1 1382 0
	movq	-16(%rbp), %rax	# info, tmp124
	movl	8(%rax), %edx	# info_12->last_set, D.19123
	movq	uid_cuid(%rip), %rcx	# uid_cuid, uid_cuid.132
	movq	-48(%rbp), %rax	# insn, tmp125
	movl	8(%rax), %eax	# insn_19(D)->fld[0].rtint, D.19123
	cltq
	salq	$2, %rax	#, D.19126
	addq	%rcx, %rax	# uid_cuid.132, D.19127
	movl	(%rax), %eax	# *_23, D.19123
	cmpl	%eax, %edx	# D.19123, D.19123
	setl	%al	#, D.19128
	movzbl	%al, %eax	# D.19128, D.19123
	jmp	.L109	#
.L117:
	.loc 1 1384 0
	movq	-16(%rbp), %rax	# info, tmp126
	movl	4(%rax), %edx	# info_12->first_set, D.19123
	movq	uid_cuid(%rip), %rcx	# uid_cuid, uid_cuid.133
	movq	-48(%rbp), %rax	# insn, tmp127
	movl	8(%rax), %eax	# insn_19(D)->fld[0].rtint, D.19123
	cltq
	salq	$2, %rax	#, D.19126
	addq	%rcx, %rax	# uid_cuid.133, D.19127
	movl	(%rax), %eax	# *_32, D.19123
	cmpl	%eax, %edx	# D.19123, D.19123
	setge	%al	#, D.19128
	movzbl	%al, %eax	# D.19128, D.19123
	jmp	.L109	#
.L114:
.LBE14:
	.loc 1 1388 0
	movq	uid_cuid(%rip), %rdx	# uid_cuid, uid_cuid.134
	movq	-48(%rbp), %rax	# insn, tmp128
	movl	8(%rax), %eax	# insn_19(D)->fld[0].rtint, D.19123
	cltq
	salq	$2, %rax	#, D.19126
	addq	%rdx, %rax	# uid_cuid.134, D.19127
	movl	(%rax), %esi	# *_40, D.19123
	movq	basic_block_info(%rip), %rax	# basic_block_info, basic_block_info.135
	movl	current_bb(%rip), %edx	# current_bb, current_bb.136
	movslq	%edx, %rdx	# current_bb.136, tmp129
	addq	$4, %rdx	#, tmp130
	movq	(%rax,%rdx,8), %rax	# basic_block_info.135_42->data.bb, D.19129
	movl	-52(%rbp), %ecx	# avail_p, tmp131
	movq	-40(%rbp), %rdx	# x, tmp132
	movq	%rax, %rdi	# D.19129,
	call	load_killed_in_block_p	#
	testl	%eax, %eax	# D.19123
	je	.L118	#,
	.loc 1 1390 0
	movl	$0, %eax	#, D.19123
	jmp	.L109	#
.L118:
	.loc 1 1392 0
	movq	-40(%rbp), %rax	# x, tmp133
	movq	8(%rax), %rax	# x_4(D)->fld[0].rtx, D.19130
	movl	-52(%rbp), %edx	# avail_p, tmp134
	movq	-48(%rbp), %rcx	# insn, tmp135
	movq	%rcx, %rsi	# tmp135,
	movq	%rax, %rdi	# D.19130,
	call	oprs_unchanged_p	#
	jmp	.L109	#
.L115:
	.loc 1 1400 0
	movl	$0, %eax	#, D.19123
	jmp	.L109	#
.L111:
	.loc 1 1412 0
	movl	$1, %eax	#, D.19123
	jmp	.L109	#
.L128:
	.loc 1 1415 0
	nop
	.loc 1 1418 0
	movl	-20(%rbp), %eax	# code, code.137
	cltq
	movzbl	rtx_length(%rax), %eax	# rtx_length, D.19131
	movzbl	%al, %eax	# D.19131, D.19123
	subl	$1, %eax	#, tmp137
	movl	%eax, -28(%rbp)	# tmp137, i
	movl	-20(%rbp), %eax	# code, code.138
	cltq
	movq	rtx_format(,%rax,8), %rax	# rtx_format, tmp139
	movq	%rax, -8(%rbp)	# tmp139, fmt
	jmp	.L119	#
.L126:
	.loc 1 1420 0
	movl	-28(%rbp), %eax	# i, tmp140
	movslq	%eax, %rdx	# tmp140, D.19132
	movq	-8(%rbp), %rax	# fmt, tmp141
	addq	%rdx, %rax	# D.19132, D.19133
	movzbl	(%rax), %eax	# *_58, D.19134
	cmpb	$101, %al	#, D.19134
	jne	.L120	#,
	.loc 1 1425 0
	cmpl	$0, -28(%rbp)	#, i
	jne	.L121	#,
	.loc 1 1426 0
	movq	-40(%rbp), %rax	# x, tmp142
	movl	-28(%rbp), %edx	# i, tmp144
	movslq	%edx, %rdx	# tmp144, tmp143
	movq	8(%rax,%rdx,8), %rax	# x_4(D)->fld[i_1].rtx, D.19130
	movl	-52(%rbp), %edx	# avail_p, tmp145
	movq	-48(%rbp), %rcx	# insn, tmp146
	movq	%rcx, %rsi	# tmp146,
	movq	%rax, %rdi	# D.19130,
	call	oprs_unchanged_p	#
	jmp	.L109	#
.L121:
	.loc 1 1428 0
	movq	-40(%rbp), %rax	# x, tmp147
	movl	-28(%rbp), %edx	# i, tmp149
	movslq	%edx, %rdx	# tmp149, tmp148
	movq	8(%rax,%rdx,8), %rax	# x_4(D)->fld[i_1].rtx, D.19130
	movl	-52(%rbp), %edx	# avail_p, tmp150
	movq	-48(%rbp), %rcx	# insn, tmp151
	movq	%rcx, %rsi	# tmp151,
	movq	%rax, %rdi	# D.19130,
	call	oprs_unchanged_p	#
	testl	%eax, %eax	# D.19123
	jne	.L122	#,
	.loc 1 1429 0
	movl	$0, %eax	#, D.19123
	jmp	.L109	#
.L120:
	.loc 1 1431 0
	movl	-28(%rbp), %eax	# i, tmp152
	movslq	%eax, %rdx	# tmp152, D.19132
	movq	-8(%rbp), %rax	# fmt, tmp153
	addq	%rdx, %rax	# D.19132, D.19133
	movzbl	(%rax), %eax	# *_66, D.19134
	cmpb	$69, %al	#, D.19134
	jne	.L122	#,
	.loc 1 1432 0
	movl	$0, -24(%rbp)	#, j
	jmp	.L123	#
.L125:
	.loc 1 1433 0
	movq	-40(%rbp), %rax	# x, tmp154
	movl	-28(%rbp), %edx	# i, tmp156
	movslq	%edx, %rdx	# tmp156, tmp155
	movq	8(%rax,%rdx,8), %rax	# x_4(D)->fld[i_1].rtvec, D.19135
	movl	-24(%rbp), %edx	# j, tmp158
	movslq	%edx, %rdx	# tmp158, tmp157
	movq	8(%rax,%rdx,8), %rax	# _71->elem, D.19130
	movl	-52(%rbp), %edx	# avail_p, tmp159
	movq	-48(%rbp), %rcx	# insn, tmp160
	movq	%rcx, %rsi	# tmp160,
	movq	%rax, %rdi	# D.19130,
	call	oprs_unchanged_p	#
	testl	%eax, %eax	# D.19123
	jne	.L124	#,
	.loc 1 1434 0
	movl	$0, %eax	#, D.19123
	jmp	.L109	#
.L124:
	.loc 1 1432 0
	addl	$1, -24(%rbp)	#, j
.L123:
	.loc 1 1432 0 is_stmt 0 discriminator 1
	movq	-40(%rbp), %rax	# x, tmp161
	movl	-28(%rbp), %edx	# i, tmp163
	movslq	%edx, %rdx	# tmp163, tmp162
	movq	8(%rax,%rdx,8), %rax	# x_4(D)->fld[i_1].rtvec, D.19135
	movl	(%rax), %eax	# _69->num_elem, D.19123
	cmpl	-24(%rbp), %eax	# j, D.19123
	jg	.L125	#,
.L122:
	.loc 1 1418 0 is_stmt 1
	subl	$1, -28(%rbp)	#, i
.L119:
	.loc 1 1418 0 is_stmt 0 discriminator 1
	cmpl	$0, -28(%rbp)	#, i
	jns	.L126	#,
	.loc 1 1437 0 is_stmt 1
	movl	$1, %eax	#, D.19123
.L109:
	.loc 1 1438 0
	leave
	.cfi_def_cfa 7, 8
	ret
	.cfi_endproc
.LFE17:
	.size	oprs_unchanged_p, .-oprs_unchanged_p
	.local	gcse_mems_conflict_p
	.comm	gcse_mems_conflict_p,4,4
	.local	gcse_mem_operand
	.comm	gcse_mem_operand,8,8
	.type	mems_conflict_for_gcse_p, @function
mems_conflict_for_gcse_p:
.LFB18:
	.loc 1 1459 0
	.cfi_startproc
	pushq	%rbp	#
	.cfi_def_cfa_offset 16
	.cfi_offset 6, -16
	movq	%rsp, %rbp	#,
	.cfi_def_cfa_register 6
	subq	$32, %rsp	#,
	movq	%rdi, -8(%rbp)	# dest, dest
	movq	%rsi, -16(%rbp)	# setter, setter
	movq	%rdx, -24(%rbp)	# data, data
	.loc 1 1460 0
	jmp	.L130	#
.L131:
	.loc 1 1464 0
	movq	-8(%rbp), %rax	# dest, tmp71
	movq	8(%rax), %rax	# dest_1->fld[0].rtx, tmp72
	movq	%rax, -8(%rbp)	# tmp72, dest
.L130:
	.loc 1 1460 0 discriminator 1
	movq	-8(%rbp), %rax	# dest, tmp73
	movzwl	(%rax), %eax	# dest_1->code, D.19136
	cmpw	$63, %ax	#, D.19136
	je	.L131	#,
	.loc 1 1461 0
	movq	-8(%rbp), %rax	# dest, tmp74
	movzwl	(%rax), %eax	# dest_1->code, D.19136
	cmpw	$133, %ax	#, D.19136
	je	.L131	#,
	.loc 1 1462 0
	movq	-8(%rbp), %rax	# dest, tmp75
	movzwl	(%rax), %eax	# dest_1->code, D.19136
	cmpw	$132, %ax	#, D.19136
	je	.L131	#,
	.loc 1 1463 0
	movq	-8(%rbp), %rax	# dest, tmp76
	movzwl	(%rax), %eax	# dest_1->code, D.19136
	cmpw	$64, %ax	#, D.19136
	je	.L131	#,
	.loc 1 1469 0
	movq	-8(%rbp), %rax	# dest, tmp77
	movzwl	(%rax), %eax	# dest_1->code, D.19136
	cmpw	$66, %ax	#, D.19136
	je	.L132	#,
	.loc 1 1470 0
	jmp	.L129	#
.L132:
	.loc 1 1475 0
	movq	gcse_mem_operand(%rip), %rax	# gcse_mem_operand, gcse_mem_operand.139
	cmpq	%rax, -8(%rbp)	# gcse_mem_operand.139, dest
	jne	.L134	#,
	.loc 1 1475 0 is_stmt 0 discriminator 1
	movq	pre_ldst_mems(%rip), %rax	# pre_ldst_mems, pre_ldst_mems.140
	testq	%rax, %rax	# pre_ldst_mems.140
	je	.L134	#,
	.loc 1 1477 0 is_stmt 1
	movq	-8(%rbp), %rax	# dest, tmp78
	movq	%rax, %rdi	# tmp78,
	call	find_rtx_in_ldst	#
	testq	%rax, %rax	# D.19137
	jne	.L135	#,
	.loc 1 1478 0
	movl	$1, gcse_mems_conflict_p(%rip)	#, gcse_mems_conflict_p
	.loc 1 1479 0
	jmp	.L129	#
.L135:
	jmp	.L129	#
.L134:
	.loc 1 1482 0
	movq	gcse_mem_operand(%rip), %rdx	# gcse_mem_operand, gcse_mem_operand.141
	movq	-8(%rbp), %rax	# dest, tmp79
	movzbl	2(%rax), %eax	# dest_1->mode, D.19138
	movzbl	%al, %esi	# D.19138, D.19139
	movq	-8(%rbp), %rax	# dest, tmp80
	movl	$rtx_addr_varies_p, %ecx	#,
	movq	%rax, %rdi	# tmp80,
	call	true_dependence	#
	testl	%eax, %eax	# D.19140
	je	.L129	#,
	.loc 1 1484 0
	movl	$1, gcse_mems_conflict_p(%rip)	#, gcse_mems_conflict_p
.L129:
	.loc 1 1485 0
	leave
	.cfi_def_cfa 7, 8
	ret
	.cfi_endproc
.LFE18:
	.size	mems_conflict_for_gcse_p, .-mems_conflict_for_gcse_p
	.type	load_killed_in_block_p, @function
load_killed_in_block_p:
.LFB19:
	.loc 1 1501 0
	.cfi_startproc
	pushq	%rbp	#
	.cfi_def_cfa_offset 16
	.cfi_offset 6, -16
	movq	%rsp, %rbp	#,
	.cfi_def_cfa_register 6
	subq	$48, %rsp	#,
	movq	%rdi, -24(%rbp)	# bb, bb
	movl	%esi, -28(%rbp)	# uid_limit, uid_limit
	movq	%rdx, -40(%rbp)	# x, x
	movl	%ecx, -32(%rbp)	# avail_p, avail_p
	.loc 1 1502 0
	movq	modify_mem_list(%rip), %rdx	# modify_mem_list, modify_mem_list.142
	movq	-24(%rbp), %rax	# bb, tmp83
	movl	88(%rax), %eax	# bb_4(D)->index, D.19141
	cltq
	salq	$3, %rax	#, D.19142
	addq	%rdx, %rax	# modify_mem_list.142, D.19143
	movq	(%rax), %rax	# *_8, tmp84
	movq	%rax, -16(%rbp)	# tmp84, list_entry
	.loc 1 1503 0
	jmp	.L137	#
.L144:
.LBB15:
	.loc 1 1507 0
	cmpl	$0, -32(%rbp)	#, avail_p
	je	.L138	#,
	.loc 1 1508 0
	movq	uid_cuid(%rip), %rdx	# uid_cuid, uid_cuid.143
	movq	-16(%rbp), %rax	# list_entry, tmp85
	movq	8(%rax), %rax	# list_entry_1->fld[0].rtx, D.19144
	movl	8(%rax), %eax	# _12->fld[0].rtint, D.19141
	cltq
	salq	$2, %rax	#, D.19142
	addq	%rdx, %rax	# uid_cuid.143, D.19145
	movl	(%rax), %eax	# *_16, D.19141
	cmpl	-28(%rbp), %eax	# uid_limit, D.19141
	jl	.L139	#,
.L138:
	.loc 1 1509 0
	cmpl	$0, -32(%rbp)	#, avail_p
	jne	.L140	#,
	.loc 1 1510 0
	movq	uid_cuid(%rip), %rdx	# uid_cuid, uid_cuid.144
	movq	-16(%rbp), %rax	# list_entry, tmp86
	movq	8(%rax), %rax	# list_entry_1->fld[0].rtx, D.19144
	movl	8(%rax), %eax	# _20->fld[0].rtint, D.19141
	cltq
	salq	$2, %rax	#, D.19142
	addq	%rdx, %rax	# uid_cuid.144, D.19145
	movl	(%rax), %eax	# *_24, D.19141
	cmpl	-28(%rbp), %eax	# uid_limit, D.19141
	jle	.L140	#,
.L139:
	.loc 1 1512 0
	movq	-16(%rbp), %rax	# list_entry, tmp87
	movq	16(%rax), %rax	# list_entry_1->fld[1].rtx, tmp88
	movq	%rax, -16(%rbp)	# tmp88, list_entry
	.loc 1 1513 0
	jmp	.L137	#
.L140:
	.loc 1 1516 0
	movq	-16(%rbp), %rax	# list_entry, tmp89
	movq	8(%rax), %rax	# list_entry_1->fld[0].rtx, tmp90
	movq	%rax, -8(%rbp)	# tmp90, setter
	.loc 1 1521 0
	movq	-8(%rbp), %rax	# setter, tmp91
	movzwl	(%rax), %eax	# setter_26->code, D.19146
	cmpw	$34, %ax	#, D.19146
	jne	.L141	#,
	.loc 1 1522 0
	movl	$1, %eax	#, D.19141
	jmp	.L142	#
.L141:
	.loc 1 1529 0
	movq	-40(%rbp), %rax	# x, tmp92
	movq	%rax, gcse_mem_operand(%rip)	# tmp92, gcse_mem_operand
	.loc 1 1530 0
	movl	$0, gcse_mems_conflict_p(%rip)	#, gcse_mems_conflict_p
	.loc 1 1531 0
	movq	-8(%rbp), %rax	# setter, tmp93
	movq	32(%rax), %rax	# setter_26->fld[3].rtx, D.19144
	movl	$0, %edx	#,
	movl	$mems_conflict_for_gcse_p, %esi	#,
	movq	%rax, %rdi	# D.19144,
	call	note_stores	#
	.loc 1 1532 0
	movl	gcse_mems_conflict_p(%rip), %eax	# gcse_mems_conflict_p, gcse_mems_conflict_p.145
	testl	%eax, %eax	# gcse_mems_conflict_p.145
	je	.L143	#,
	.loc 1 1533 0
	movl	$1, %eax	#, D.19141
	jmp	.L142	#
.L143:
	.loc 1 1534 0
	movq	-16(%rbp), %rax	# list_entry, tmp94
	movq	16(%rax), %rax	# list_entry_1->fld[1].rtx, tmp95
	movq	%rax, -16(%rbp)	# tmp95, list_entry
.L137:
.LBE15:
	.loc 1 1503 0 discriminator 1
	cmpq	$0, -16(%rbp)	#, list_entry
	jne	.L144	#,
	.loc 1 1536 0
	movl	$0, %eax	#, D.19141
.L142:
	.loc 1 1537 0
	leave
	.cfi_def_cfa 7, 8
	ret
	.cfi_endproc
.LFE19:
	.size	load_killed_in_block_p, .-load_killed_in_block_p
	.type	oprs_anticipatable_p, @function
oprs_anticipatable_p:
.LFB20:
	.loc 1 1545 0
	.cfi_startproc
	pushq	%rbp	#
	.cfi_def_cfa_offset 16
	.cfi_offset 6, -16
	movq	%rsp, %rbp	#,
	.cfi_def_cfa_register 6
	subq	$16, %rsp	#,
	movq	%rdi, -8(%rbp)	# x, x
	movq	%rsi, -16(%rbp)	# insn, insn
	.loc 1 1546 0
	movq	-16(%rbp), %rcx	# insn, tmp61
	movq	-8(%rbp), %rax	# x, tmp62
	movl	$0, %edx	#,
	movq	%rcx, %rsi	# tmp61,
	movq	%rax, %rdi	# tmp62,
	call	oprs_unchanged_p	#
	.loc 1 1547 0
	leave
	.cfi_def_cfa 7, 8
	ret
	.cfi_endproc
.LFE20:
	.size	oprs_anticipatable_p, .-oprs_anticipatable_p
	.type	oprs_available_p, @function
oprs_available_p:
.LFB21:
	.loc 1 1555 0
	.cfi_startproc
	pushq	%rbp	#
	.cfi_def_cfa_offset 16
	.cfi_offset 6, -16
	movq	%rsp, %rbp	#,
	.cfi_def_cfa_register 6
	subq	$16, %rsp	#,
	movq	%rdi, -8(%rbp)	# x, x
	movq	%rsi, -16(%rbp)	# insn, insn
	.loc 1 1556 0
	movq	-16(%rbp), %rcx	# insn, tmp61
	movq	-8(%rbp), %rax	# x, tmp62
	movl	$1, %edx	#,
	movq	%rcx, %rsi	# tmp61,
	movq	%rax, %rdi	# tmp62,
	call	oprs_unchanged_p	#
	.loc 1 1557 0
	leave
	.cfi_def_cfa 7, 8
	ret
	.cfi_endproc
.LFE21:
	.size	oprs_available_p, .-oprs_available_p
	.type	hash_expr, @function
hash_expr:
.LFB22:
	.loc 1 1573 0
	.cfi_startproc
	pushq	%rbp	#
	.cfi_def_cfa_offset 16
	.cfi_offset 6, -16
	movq	%rsp, %rbp	#,
	.cfi_def_cfa_register 6
	subq	$48, %rsp	#,
	movq	%rdi, -24(%rbp)	# x, x
	movl	%esi, -28(%rbp)	# mode, mode
	movq	%rdx, -40(%rbp)	# do_not_record_p, do_not_record_p
	movl	%ecx, -32(%rbp)	# hash_table_size, hash_table_size
	.loc 1 1576 0
	movq	-40(%rbp), %rax	# do_not_record_p, tmp62
	movl	$0, (%rax)	#, *do_not_record_p_1(D)
	.loc 1 1578 0
	movq	-40(%rbp), %rdx	# do_not_record_p, tmp63
	movl	-28(%rbp), %ecx	# mode, tmp64
	movq	-24(%rbp), %rax	# x, tmp65
	movl	%ecx, %esi	# tmp64,
	movq	%rax, %rdi	# tmp65,
	call	hash_expr_1	#
	movl	%eax, -4(%rbp)	# tmp66, hash
	.loc 1 1579 0
	movl	-32(%rbp), %ecx	# hash_table_size, hash_table_size.146
	movl	-4(%rbp), %eax	# hash, tmp67
	movl	$0, %edx	#, tmp68
	divl	%ecx	# hash_table_size.146
	movl	%edx, %eax	# tmp68, D.19149
	.loc 1 1580 0
	leave
	.cfi_def_cfa 7, 8
	ret
	.cfi_endproc
.LFE22:
	.size	hash_expr, .-hash_expr
	.type	hash_string_1, @function
hash_string_1:
.LFB23:
	.loc 1 1587 0
	.cfi_startproc
	pushq	%rbp	#
	.cfi_def_cfa_offset 16
	.cfi_offset 6, -16
	movq	%rsp, %rbp	#,
	.cfi_def_cfa_register 6
	movq	%rdi, -24(%rbp)	# ps, ps
	.loc 1 1588 0
	movl	$0, -12(%rbp)	#, hash
	.loc 1 1589 0
	movq	-24(%rbp), %rax	# ps, tmp65
	movq	%rax, -8(%rbp)	# tmp65, p
	.loc 1 1591 0
	cmpq	$0, -8(%rbp)	#, p
	je	.L152	#,
	.loc 1 1592 0
	jmp	.L153	#
.L154:
	.loc 1 1593 0
	movq	-8(%rbp), %rax	# p, p.151
	leaq	1(%rax), %rdx	#, tmp66
	movq	%rdx, -8(%rbp)	# tmp66, p
	movzbl	(%rax), %eax	# *p.151_8, D.19150
	movzbl	%al, %eax	# D.19150, D.19151
	addl	%eax, -12(%rbp)	# D.19151, hash
.L153:
	.loc 1 1592 0 discriminator 1
	movq	-8(%rbp), %rax	# p, tmp67
	movzbl	(%rax), %eax	# *p_3, D.19150
	testb	%al, %al	# D.19150
	jne	.L154	#,
.L152:
	.loc 1 1595 0
	movl	-12(%rbp), %eax	# hash, D.19151
	.loc 1 1596 0
	popq	%rbp	#
	.cfi_def_cfa 7, 8
	ret
	.cfi_endproc
.LFE23:
	.size	hash_string_1, .-hash_string_1
	.section	.rodata
.LC7:
	.string	"gcse.c"
	.text
	.type	hash_expr_1, @function
hash_expr_1:
.LFB24:
	.loc 1 1605 0
	.cfi_startproc
	pushq	%rbp	#
	.cfi_def_cfa_offset 16
	.cfi_offset 6, -16
	movq	%rsp, %rbp	#,
	.cfi_def_cfa_register 6
	pushq	%rbx	#
	subq	$88, %rsp	#,
	.cfi_offset 3, -24
	movq	%rdi, -72(%rbp)	# x, x
	movl	%esi, -76(%rbp)	# mode, mode
	movq	%rdx, -88(%rbp)	# do_not_record_p, do_not_record_p
	.loc 1 1607 0
	movl	$0, -56(%rbp)	#, hash
	.loc 1 1615 0
	cmpq	$0, -72(%rbp)	#, x
	jne	.L157	#,
	.loc 1 1616 0
	movl	-56(%rbp), %eax	# hash, D.19152
	jmp	.L158	#
.L157:
	.loc 1 1619 0
	movq	-72(%rbp), %rax	# x, tmp171
	movzwl	(%rax), %eax	# x_1->code, D.19153
	movzwl	%ax, %eax	# D.19153, tmp172
	movl	%eax, -48(%rbp)	# tmp172, code
	.loc 1 1620 0
	movl	-48(%rbp), %eax	# code, tmp174
	subl	$41, %eax	#, tmp173
	cmpl	$58, %eax	#, tmp173
	ja	.L197	#,
	movl	%eax, %eax	# tmp173, tmp175
	movq	.L161(,%rax,8), %rax	#, tmp176
	jmp	*%rax	# tmp176
	.section	.rodata
	.align 8
	.align 4
.L161:
	.quad	.L160
	.quad	.L197
	.quad	.L162
	.quad	.L197
	.quad	.L197
	.quad	.L197
	.quad	.L197
	.quad	.L197
	.quad	.L197
	.quad	.L162
	.quad	.L197
	.quad	.L197
	.quad	.L197
	.quad	.L163
	.quad	.L164
	.quad	.L165
	.quad	.L197
	.quad	.L197
	.quad	.L162
	.quad	.L197
	.quad	.L166
	.quad	.L197
	.quad	.L197
	.quad	.L197
	.quad	.L197
	.quad	.L167
	.quad	.L168
	.quad	.L169
	.quad	.L162
	.quad	.L197
	.quad	.L197
	.quad	.L197
	.quad	.L197
	.quad	.L197
	.quad	.L197
	.quad	.L197
	.quad	.L197
	.quad	.L197
	.quad	.L197
	.quad	.L197
	.quad	.L197
	.quad	.L197
	.quad	.L197
	.quad	.L197
	.quad	.L197
	.quad	.L197
	.quad	.L197
	.quad	.L197
	.quad	.L197
	.quad	.L197
	.quad	.L197
	.quad	.L197
	.quad	.L197
	.quad	.L197
	.quad	.L197
	.quad	.L162
	.quad	.L162
	.quad	.L162
	.quad	.L162
	.text
.L166:
	.loc 1 1623 0
	movq	-72(%rbp), %rax	# x, tmp177
	movl	8(%rax), %edx	# x_1->fld[0].rtuint, D.19152
	movl	-56(%rbp), %eax	# hash, tmp178
	addl	%edx, %eax	# D.19152, D.19152
	addl	$7808, %eax	#, tmp179
	movl	%eax, -56(%rbp)	# tmp179, hash
	.loc 1 1624 0
	movl	-56(%rbp), %eax	# hash, D.19152
	jmp	.L158	#
.L163:
	.loc 1 1628 0
	movq	-72(%rbp), %rax	# x, tmp180
	movq	8(%rax), %rax	# x_1->fld[0].rtwint, D.19154
	movl	%eax, %edx	# D.19154, D.19152
	movl	-76(%rbp), %eax	# mode, tmp181
	addl	%eax, %edx	# tmp181, D.19152
	.loc 1 1627 0
	movl	-56(%rbp), %eax	# hash, tmp182
	addl	%edx, %eax	# D.19152, D.19152
	addl	$6912, %eax	#, tmp183
	movl	%eax, -56(%rbp)	# tmp183, hash
	.loc 1 1629 0
	movl	-56(%rbp), %eax	# hash, D.19152
	jmp	.L158	#
.L164:
	.loc 1 1634 0
	movq	-72(%rbp), %rax	# x, tmp184
	movzbl	2(%rax), %eax	# x_1->mode, D.19155
	movzbl	%al, %edx	# D.19155, D.19152
	movl	-48(%rbp), %eax	# code, tmp185
	addl	%edx, %eax	# D.19152, D.19152
	addl	%eax, -56(%rbp)	# D.19152, hash
	.loc 1 1635 0
	movq	-72(%rbp), %rax	# x, tmp186
	movzbl	2(%rax), %eax	# x_1->mode, D.19155
	testb	%al, %al	# D.19155
	je	.L170	#,
	.loc 1 1636 0
	movl	$2, -64(%rbp)	#, i
	jmp	.L171	#
.L172:
	.loc 1 1637 0 discriminator 2
	movq	-72(%rbp), %rax	# x, tmp187
	movl	-64(%rbp), %edx	# i, tmp189
	movslq	%edx, %rdx	# tmp189, tmp188
	movq	8(%rax,%rdx,8), %rax	# x_1->fld[i_3].rtwint, D.19154
	addl	%eax, -56(%rbp)	# D.19152, hash
	.loc 1 1636 0 discriminator 2
	addl	$1, -64(%rbp)	#, i
.L171:
	.loc 1 1636 0 is_stmt 0 discriminator 1
	movzbl	rtx_length+55(%rip), %eax	# rtx_length, D.19155
	movzbl	%al, %eax	# D.19155, D.19156
	cmpl	-64(%rbp), %eax	# i, D.19156
	jg	.L172	#,
	jmp	.L173	#
.L170:
	.loc 1 1639 0 is_stmt 1
	movq	-72(%rbp), %rax	# x, tmp190
	movq	16(%rax), %rax	# x_1->fld[1].rtwint, D.19154
	movl	%eax, %edx	# D.19154, D.19152
	.loc 1 1640 0
	movq	-72(%rbp), %rax	# x, tmp191
	movq	24(%rax), %rax	# x_1->fld[2].rtwint, D.19154
	addl	%edx, %eax	# D.19152, D.19152
	.loc 1 1639 0
	addl	%eax, -56(%rbp)	# D.19152, hash
.L173:
	.loc 1 1641 0
	movl	-56(%rbp), %eax	# hash, D.19152
	jmp	.L158	#
.L165:
.LBB16:
	.loc 1 1648 0
	movq	-72(%rbp), %rax	# x, tmp192
	movq	8(%rax), %rax	# x_1->fld[0].rtvec, D.19157
	movl	(%rax), %eax	# _55->num_elem, tmp193
	movl	%eax, -44(%rbp)	# tmp193, units
	.loc 1 1650 0
	movl	$0, -64(%rbp)	#, i
	jmp	.L174	#
.L175:
	.loc 1 1652 0 discriminator 2
	movq	-72(%rbp), %rax	# x, tmp194
	movq	8(%rax), %rax	# x_1->fld[0].rtvec, D.19157
	movl	-64(%rbp), %edx	# i, tmp196
	movslq	%edx, %rdx	# tmp196, tmp195
	movq	8(%rax,%rdx,8), %rax	# _58->elem, tmp197
	movq	%rax, -32(%rbp)	# tmp197, elt
	.loc 1 1653 0 discriminator 2
	movq	-32(%rbp), %rax	# elt, tmp198
	movzbl	2(%rax), %eax	# elt_59->mode, D.19155
	movzbl	%al, %ecx	# D.19155, D.19158
	movq	-88(%rbp), %rdx	# do_not_record_p, tmp199
	movq	-32(%rbp), %rax	# elt, tmp200
	movl	%ecx, %esi	# D.19158,
	movq	%rax, %rdi	# tmp200,
	call	hash_expr_1	#
	addl	%eax, -56(%rbp)	# D.19152, hash
	.loc 1 1650 0 discriminator 2
	addl	$1, -64(%rbp)	#, i
.L174:
	.loc 1 1650 0 is_stmt 0 discriminator 1
	movl	-64(%rbp), %eax	# i, tmp201
	cmpl	-44(%rbp), %eax	# units, tmp201
	jl	.L175	#,
	.loc 1 1656 0 is_stmt 1
	movl	-56(%rbp), %eax	# hash, D.19152
	jmp	.L158	#
.L168:
.LBE16:
	.loc 1 1664 0
	movq	-72(%rbp), %rax	# x, tmp202
	movq	8(%rax), %rax	# x_1->fld[0].rtx, D.19159
	movl	48(%rax), %eax	# _67->fld[5].rtint, D.19156
	.loc 1 1663 0
	movl	%eax, %edx	# D.19156, D.19152
	movl	-56(%rbp), %eax	# hash, tmp203
	addl	%edx, %eax	# D.19152, D.19152
	addl	$8576, %eax	#, tmp204
	movl	%eax, -56(%rbp)	# tmp204, hash
	.loc 1 1665 0
	movl	-56(%rbp), %eax	# hash, D.19152
	jmp	.L158	#
.L169:
.LBB17:
	.loc 1 1674 0
	movl	$0, -52(%rbp)	#, h
	.loc 1 1675 0
	movq	-72(%rbp), %rax	# x, tmp205
	movq	8(%rax), %rax	# x_1->fld[0].rtstr, tmp206
	movq	%rax, -40(%rbp)	# tmp206, p
	.loc 1 1677 0
	jmp	.L176	#
.L177:
	.loc 1 1678 0
	movl	-52(%rbp), %eax	# h, tmp207
	sall	$7, %eax	#, D.19152
	movl	%eax, %ecx	# D.19152, D.19152
	movq	-40(%rbp), %rax	# p, p.147
	leaq	1(%rax), %rdx	#, tmp208
	movq	%rdx, -40(%rbp)	# tmp208, p
	movzbl	(%rax), %eax	# *p.147_77, D.19155
	movzbl	%al, %eax	# D.19155, D.19152
	addl	%ecx, %eax	# D.19152, D.19152
	addl	%eax, -52(%rbp)	# D.19152, h
.L176:
	.loc 1 1677 0 discriminator 1
	movq	-40(%rbp), %rax	# p, tmp209
	movzbl	(%rax), %eax	# *p_17, D.19155
	testb	%al, %al	# D.19155
	jne	.L177	#,
	.loc 1 1680 0
	movl	-56(%rbp), %eax	# hash, tmp210
	movl	-52(%rbp), %edx	# h, tmp211
	addl	%edx, %eax	# tmp211, D.19152
	addl	$8704, %eax	#, tmp212
	movl	%eax, -56(%rbp)	# tmp212, hash
	.loc 1 1681 0
	movl	-56(%rbp), %eax	# hash, D.19152
	jmp	.L158	#
.L167:
.LBE17:
	.loc 1 1685 0
	movq	-72(%rbp), %rax	# x, tmp213
	movzbl	3(%rax), %eax	# *x_1, D.19155
	andl	$8, %eax	#, D.19155
	testb	%al, %al	# D.19155
	je	.L178	#,
	.loc 1 1687 0
	movq	-88(%rbp), %rax	# do_not_record_p, tmp214
	movl	$1, (%rax)	#, *do_not_record_p_62(D)
	.loc 1 1688 0
	movl	$0, %eax	#, D.19152
	jmp	.L158	#
.L178:
	.loc 1 1691 0
	addl	$66, -56(%rbp)	#, hash
	.loc 1 1692 0
	movq	-72(%rbp), %rax	# x, tmp215
	movq	16(%rax), %rax	# x_1->fld[1].rtmem, D.19160
	testq	%rax, %rax	# D.19160
	je	.L179	#,
	.loc 1 1692 0 is_stmt 0 discriminator 1
	movq	-72(%rbp), %rax	# x, tmp216
	movq	16(%rax), %rax	# x_1->fld[1].rtmem, D.19160
	movq	(%rax), %rax	# _91->alias, D.19154
	jmp	.L180	#
.L179:
	.loc 1 1692 0 discriminator 2
	movl	$0, %eax	#, iftmp.148
.L180:
	.loc 1 1692 0 discriminator 3
	addl	%eax, -56(%rbp)	# iftmp.148, hash
	.loc 1 1693 0 is_stmt 1 discriminator 3
	movq	-72(%rbp), %rax	# x, tmp217
	movq	8(%rax), %rax	# x_1->fld[0].rtx, tmp218
	movq	%rax, -72(%rbp)	# tmp218, x
	.loc 1 1694 0 discriminator 3
	jmp	.L157	#
.L162:
	.loc 1 1704 0
	movq	-88(%rbp), %rax	# do_not_record_p, tmp219
	movl	$1, (%rax)	#, *do_not_record_p_62(D)
	.loc 1 1705 0
	movl	$0, %eax	#, D.19152
	jmp	.L158	#
.L160:
	.loc 1 1708 0
	movq	-72(%rbp), %rax	# x, tmp220
	movzbl	3(%rax), %eax	# *x_1, D.19155
	andl	$8, %eax	#, D.19155
	testb	%al, %al	# D.19155
	je	.L181	#,
	.loc 1 1710 0
	movq	-88(%rbp), %rax	# do_not_record_p, tmp221
	movl	$1, (%rax)	#, *do_not_record_p_62(D)
	.loc 1 1711 0
	movl	$0, %eax	#, D.19152
	jmp	.L158	#
.L181:
	.loc 1 1716 0
	movq	-72(%rbp), %rax	# x, tmp222
	movzbl	2(%rax), %eax	# x_1->mode, D.19155
	movzbl	%al, %edx	# D.19155, D.19152
	movl	-48(%rbp), %eax	# code, tmp223
	leal	(%rdx,%rax), %ebx	#, D.19152
	.loc 1 1717 0
	movq	-72(%rbp), %rax	# x, tmp224
	movq	8(%rax), %rax	# x_1->fld[0].rtstr, D.19161
	movq	%rax, %rdi	# D.19161,
	call	hash_string_1	#
	addl	%eax, %ebx	# D.19152, D.19152
	.loc 1 1718 0
	movq	-72(%rbp), %rax	# x, tmp225
	movq	16(%rax), %rax	# x_1->fld[1].rtstr, D.19161
	movq	%rax, %rdi	# D.19161,
	call	hash_string_1	#
	leal	(%rbx,%rax), %edx	#, D.19152
	.loc 1 1719 0
	movq	-72(%rbp), %rax	# x, tmp226
	movl	24(%rax), %eax	# x_1->fld[2].rtint, D.19156
	addl	%edx, %eax	# D.19152, D.19152
	.loc 1 1716 0
	addl	%eax, -56(%rbp)	# D.19152, hash
	.loc 1 1721 0
	movq	-72(%rbp), %rax	# x, tmp227
	movq	32(%rax), %rax	# x_1->fld[3].rtvec, D.19157
	movl	(%rax), %eax	# _114->num_elem, D.19156
	testl	%eax, %eax	# D.19156
	je	.L182	#,
	.loc 1 1723 0
	movl	$1, -64(%rbp)	#, i
	jmp	.L183	#
.L184:
	.loc 1 1726 0 discriminator 2
	movq	-72(%rbp), %rax	# x, tmp228
	movq	32(%rax), %rax	# x_1->fld[3].rtvec, D.19157
	movl	-64(%rbp), %edx	# i, tmp230
	movslq	%edx, %rdx	# tmp230, tmp229
	movq	8(%rax,%rdx,8), %rax	# _119->elem, D.19159
	movzbl	2(%rax), %eax	# _120->mode, D.19155
	.loc 1 1725 0 discriminator 2
	movzbl	%al, %ecx	# D.19155, D.19158
	movq	-72(%rbp), %rax	# x, tmp231
	movq	32(%rax), %rax	# x_1->fld[3].rtvec, D.19157
	movl	-64(%rbp), %edx	# i, tmp233
	movslq	%edx, %rdx	# tmp233, tmp232
	movq	8(%rax,%rdx,8), %rax	# _123->elem, D.19159
	movq	-88(%rbp), %rdx	# do_not_record_p, tmp234
	movl	%ecx, %esi	# D.19158,
	movq	%rax, %rdi	# D.19159,
	call	hash_expr_1	#
	movl	%eax, %ebx	#, D.19152
	.loc 1 1728 0 discriminator 2
	movq	-72(%rbp), %rax	# x, tmp235
	movq	40(%rax), %rax	# x_1->fld[4].rtvec, D.19157
	movl	-64(%rbp), %edx	# i, tmp237
	movslq	%edx, %rdx	# tmp237, tmp236
	movq	8(%rax,%rdx,8), %rax	# _126->elem, D.19159
	movq	8(%rax), %rax	# _127->fld[0].rtstr, D.19161
	movq	%rax, %rdi	# D.19161,
	call	hash_string_1	#
	addl	%ebx, %eax	# D.19152, D.19152
	.loc 1 1725 0 discriminator 2
	addl	%eax, -56(%rbp)	# D.19152, hash
	.loc 1 1723 0 discriminator 2
	addl	$1, -64(%rbp)	#, i
.L183:
	.loc 1 1723 0 is_stmt 0 discriminator 1
	movq	-72(%rbp), %rax	# x, tmp238
	movq	32(%rax), %rax	# x_1->fld[3].rtvec, D.19157
	movl	(%rax), %eax	# _117->num_elem, D.19156
	cmpl	-64(%rbp), %eax	# i, D.19156
	jg	.L184	#,
	.loc 1 1732 0 is_stmt 1
	movq	-72(%rbp), %rax	# x, tmp239
	movq	40(%rax), %rax	# x_1->fld[4].rtvec, D.19157
	movq	8(%rax), %rax	# _133->elem, D.19159
	movq	8(%rax), %rax	# _134->fld[0].rtstr, D.19161
	movq	%rax, %rdi	# D.19161,
	call	hash_string_1	#
	addl	%eax, -56(%rbp)	# D.19152, hash
	.loc 1 1733 0
	movq	-72(%rbp), %rax	# x, tmp240
	movq	32(%rax), %rax	# x_1->fld[3].rtvec, D.19157
	movq	8(%rax), %rax	# _138->elem, tmp241
	movq	%rax, -72(%rbp)	# tmp241, x
	.loc 1 1734 0
	movq	-72(%rbp), %rax	# x, tmp242
	movzbl	2(%rax), %eax	# x_139->mode, D.19155
	movzbl	%al, %eax	# D.19155, tmp243
	movl	%eax, -76(%rbp)	# tmp243, mode
	.loc 1 1735 0
	jmp	.L157	#
.L182:
	.loc 1 1737 0
	movl	-56(%rbp), %eax	# hash, D.19152
	jmp	.L158	#
.L197:
	.loc 1 1741 0
	nop
	.loc 1 1744 0
	movq	-72(%rbp), %rax	# x, tmp244
	movzbl	2(%rax), %eax	# x_1->mode, D.19155
	movzbl	%al, %edx	# D.19155, D.19152
	movl	-48(%rbp), %eax	# code, tmp245
	addl	%edx, %eax	# D.19152, D.19152
	addl	%eax, -56(%rbp)	# D.19152, hash
	.loc 1 1745 0
	movl	-48(%rbp), %eax	# code, code.149
	cltq
	movzbl	rtx_length(%rax), %eax	# rtx_length, D.19155
	movzbl	%al, %eax	# D.19155, D.19156
	subl	$1, %eax	#, tmp247
	movl	%eax, -64(%rbp)	# tmp247, i
	movl	-48(%rbp), %eax	# code, code.150
	cltq
	movq	rtx_format(,%rax,8), %rax	# rtx_format, tmp249
	movq	%rax, -24(%rbp)	# tmp249, fmt
	jmp	.L185	#
.L195:
	.loc 1 1747 0
	movl	-64(%rbp), %eax	# i, tmp250
	movslq	%eax, %rdx	# tmp250, D.19162
	movq	-24(%rbp), %rax	# fmt, tmp251
	addq	%rdx, %rax	# D.19162, D.19161
	movzbl	(%rax), %eax	# *_154, D.19163
	cmpb	$101, %al	#, D.19163
	jne	.L186	#,
	.loc 1 1752 0
	cmpl	$0, -64(%rbp)	#, i
	jne	.L187	#,
	.loc 1 1754 0
	movq	-72(%rbp), %rax	# x, tmp252
	movl	-64(%rbp), %edx	# i, tmp254
	movslq	%edx, %rdx	# tmp254, tmp253
	movq	8(%rax,%rdx,8), %rax	# x_1->fld[i_6].rtx, tmp255
	movq	%rax, -72(%rbp)	# tmp255, x
	.loc 1 1755 0
	jmp	.L157	#
.L187:
	.loc 1 1758 0
	movq	-72(%rbp), %rax	# x, tmp256
	movl	-64(%rbp), %edx	# i, tmp258
	movslq	%edx, %rdx	# tmp258, tmp257
	movq	8(%rax,%rdx,8), %rax	# x_1->fld[i_6].rtx, D.19159
	movq	-88(%rbp), %rdx	# do_not_record_p, tmp259
	movl	$0, %esi	#,
	movq	%rax, %rdi	# D.19159,
	call	hash_expr_1	#
	addl	%eax, -56(%rbp)	# D.19152, hash
	.loc 1 1759 0
	movq	-88(%rbp), %rax	# do_not_record_p, tmp260
	movl	(%rax), %eax	# *do_not_record_p_62(D), D.19156
	testl	%eax, %eax	# D.19156
	je	.L188	#,
	.loc 1 1760 0
	movl	$0, %eax	#, D.19152
	jmp	.L158	#
.L186:
	.loc 1 1763 0
	movl	-64(%rbp), %eax	# i, tmp261
	movslq	%eax, %rdx	# tmp261, D.19162
	movq	-24(%rbp), %rax	# fmt, tmp262
	addq	%rdx, %rax	# D.19162, D.19161
	movzbl	(%rax), %eax	# *_163, D.19163
	cmpb	$69, %al	#, D.19163
	jne	.L189	#,
	.loc 1 1764 0
	movl	$0, -60(%rbp)	#, j
	jmp	.L190	#
.L192:
	.loc 1 1766 0
	movq	-72(%rbp), %rax	# x, tmp263
	movl	-64(%rbp), %edx	# i, tmp265
	movslq	%edx, %rdx	# tmp265, tmp264
	movq	8(%rax,%rdx,8), %rax	# x_1->fld[i_6].rtvec, D.19157
	movl	-60(%rbp), %edx	# j, tmp267
	movslq	%edx, %rdx	# tmp267, tmp266
	movq	8(%rax,%rdx,8), %rax	# _168->elem, D.19159
	movq	-88(%rbp), %rdx	# do_not_record_p, tmp268
	movl	$0, %esi	#,
	movq	%rax, %rdi	# D.19159,
	call	hash_expr_1	#
	addl	%eax, -56(%rbp)	# D.19152, hash
	.loc 1 1767 0
	movq	-88(%rbp), %rax	# do_not_record_p, tmp269
	movl	(%rax), %eax	# *do_not_record_p_62(D), D.19156
	testl	%eax, %eax	# D.19156
	je	.L191	#,
	.loc 1 1768 0
	movl	$0, %eax	#, D.19152
	jmp	.L158	#
.L191:
	.loc 1 1764 0
	addl	$1, -60(%rbp)	#, j
.L190:
	.loc 1 1764 0 is_stmt 0 discriminator 1
	movq	-72(%rbp), %rax	# x, tmp270
	movl	-64(%rbp), %edx	# i, tmp272
	movslq	%edx, %rdx	# tmp272, tmp271
	movq	8(%rax,%rdx,8), %rax	# x_1->fld[i_6].rtvec, D.19157
	movl	(%rax), %eax	# _166->num_elem, D.19156
	cmpl	-60(%rbp), %eax	# j, D.19156
	jg	.L192	#,
	jmp	.L188	#
.L189:
	.loc 1 1771 0 is_stmt 1
	movl	-64(%rbp), %eax	# i, tmp273
	movslq	%eax, %rdx	# tmp273, D.19162
	movq	-24(%rbp), %rax	# fmt, tmp274
	addq	%rdx, %rax	# D.19162, D.19161
	movzbl	(%rax), %eax	# *_176, D.19163
	cmpb	$115, %al	#, D.19163
	jne	.L193	#,
	.loc 1 1772 0
	movq	-72(%rbp), %rax	# x, tmp275
	movl	-64(%rbp), %edx	# i, tmp277
	movslq	%edx, %rdx	# tmp277, tmp276
	movq	8(%rax,%rdx,8), %rax	# x_1->fld[i_6].rtstr, D.19161
	movq	%rax, %rdi	# D.19161,
	call	hash_string_1	#
	addl	%eax, -56(%rbp)	# D.19152, hash
	jmp	.L188	#
.L193:
	.loc 1 1773 0
	movl	-64(%rbp), %eax	# i, tmp278
	movslq	%eax, %rdx	# tmp278, D.19162
	movq	-24(%rbp), %rax	# fmt, tmp279
	addq	%rdx, %rax	# D.19162, D.19161
	movzbl	(%rax), %eax	# *_182, D.19163
	cmpb	$105, %al	#, D.19163
	jne	.L194	#,
	.loc 1 1774 0
	movq	-72(%rbp), %rax	# x, tmp280
	movl	-64(%rbp), %edx	# i, tmp282
	movslq	%edx, %rdx	# tmp282, tmp281
	movl	8(%rax,%rdx,8), %eax	# x_1->fld[i_6].rtint, D.19156
	addl	%eax, -56(%rbp)	# D.19152, hash
	jmp	.L188	#
.L194:
	.loc 1 1776 0
	movl	$__FUNCTION__.12223, %edx	#,
	movl	$1776, %esi	#,
	movl	$.LC7, %edi	#,
	call	fancy_abort	#
.L188:
	.loc 1 1745 0
	subl	$1, -64(%rbp)	#, i
.L185:
	.loc 1 1745 0 is_stmt 0 discriminator 1
	cmpl	$0, -64(%rbp)	#, i
	jns	.L195	#,
	.loc 1 1779 0 is_stmt 1
	movl	-56(%rbp), %eax	# hash, D.19152
.L158:
	.loc 1 1780 0
	addq	$88, %rsp	#,
	popq	%rbx	#
	popq	%rbp	#
	.cfi_def_cfa 7, 8
	ret
	.cfi_endproc
.LFE24:
	.size	hash_expr_1, .-hash_expr_1
	.type	hash_set, @function
hash_set:
.LFB25:
	.loc 1 1793 0
	.cfi_startproc
	pushq	%rbp	#
	.cfi_def_cfa_offset 16
	.cfi_offset 6, -16
	movq	%rsp, %rbp	#,
	.cfi_def_cfa_register 6
	movl	%edi, -20(%rbp)	# regno, regno
	movl	%esi, -24(%rbp)	# hash_table_size, hash_table_size
	.loc 1 1796 0
	movl	-20(%rbp), %eax	# regno, tmp62
	movl	%eax, -4(%rbp)	# tmp62, hash
	.loc 1 1797 0
	movl	-24(%rbp), %ecx	# hash_table_size, hash_table_size.152
	movl	-4(%rbp), %eax	# hash, tmp63
	movl	$0, %edx	#, tmp64
	divl	%ecx	# hash_table_size.152
	movl	%edx, %eax	# tmp64, D.19165
	.loc 1 1798 0
	popq	%rbp	#
	.cfi_def_cfa 7, 8
	ret
	.cfi_endproc
.LFE25:
	.size	hash_set, .-hash_set
	.type	expr_equiv_p, @function
expr_equiv_p:
.LFB26:
	.loc 1 1806 0
	.cfi_startproc
	pushq	%rbp	#
	.cfi_def_cfa_offset 16
	.cfi_offset 6, -16
	movq	%rsp, %rbp	#,
	.cfi_def_cfa_register 6
	subq	$48, %rsp	#,
	movq	%rdi, -40(%rbp)	# x, x
	movq	%rsi, -48(%rbp)	# y, y
	.loc 1 1811 0
	movq	-40(%rbp), %rax	# x, tmp162
	cmpq	-48(%rbp), %rax	# y, tmp162
	jne	.L201	#,
	.loc 1 1812 0
	movl	$1, %eax	#, D.19166
	jmp	.L202	#
.L201:
	.loc 1 1814 0
	cmpq	$0, -40(%rbp)	#, x
	je	.L203	#,
	.loc 1 1814 0 is_stmt 0 discriminator 1
	cmpq	$0, -48(%rbp)	#, y
	jne	.L204	#,
.L203:
	.loc 1 1815 0 is_stmt 1
	movq	-40(%rbp), %rax	# x, tmp163
	cmpq	-48(%rbp), %rax	# y, tmp163
	sete	%al	#, D.19170
	movzbl	%al, %eax	# D.19170, D.19166
	jmp	.L202	#
.L204:
	.loc 1 1817 0
	movq	-40(%rbp), %rax	# x, tmp164
	movzwl	(%rax), %eax	# x_8(D)->code, D.19167
	movzwl	%ax, %eax	# D.19167, tmp165
	movl	%eax, -12(%rbp)	# tmp165, code
	.loc 1 1818 0
	movq	-48(%rbp), %rax	# y, tmp166
	movzwl	(%rax), %eax	# y_9(D)->code, D.19167
	movzwl	%ax, %eax	# D.19167, D.19168
	cmpl	-12(%rbp), %eax	# code, D.19168
	je	.L205	#,
	.loc 1 1819 0
	movl	$0, %eax	#, D.19166
	jmp	.L202	#
.L205:
	.loc 1 1822 0
	movq	-40(%rbp), %rax	# x, tmp167
	movzbl	2(%rax), %edx	# x_8(D)->mode, D.19169
	movq	-48(%rbp), %rax	# y, tmp168
	movzbl	2(%rax), %eax	# y_9(D)->mode, D.19169
	cmpb	%al, %dl	# D.19169, D.19169
	je	.L206	#,
	.loc 1 1823 0
	movl	$0, %eax	#, D.19166
	jmp	.L202	#
.L206:
	.loc 1 1825 0
	movl	-12(%rbp), %eax	# code, tmp170
	subl	$41, %eax	#, tmp169
	cmpl	$62, %eax	#, tmp169
	ja	.L255	#,
	movl	%eax, %eax	# tmp169, tmp171
	movq	.L209(,%rax,8), %rax	#, tmp172
	jmp	*%rax	# tmp172
	.section	.rodata
	.align 8
	.align 4
.L209:
	.quad	.L208
	.quad	.L255
	.quad	.L255
	.quad	.L255
	.quad	.L255
	.quad	.L255
	.quad	.L255
	.quad	.L255
	.quad	.L255
	.quad	.L255
	.quad	.L255
	.quad	.L255
	.quad	.L255
	.quad	.L210
	.quad	.L255
	.quad	.L255
	.quad	.L255
	.quad	.L255
	.quad	.L211
	.quad	.L255
	.quad	.L212
	.quad	.L255
	.quad	.L255
	.quad	.L255
	.quad	.L255
	.quad	.L213
	.quad	.L214
	.quad	.L215
	.quad	.L211
	.quad	.L255
	.quad	.L255
	.quad	.L255
	.quad	.L255
	.quad	.L255
	.quad	.L216
	.quad	.L255
	.quad	.L255
	.quad	.L216
	.quad	.L255
	.quad	.L255
	.quad	.L255
	.quad	.L255
	.quad	.L216
	.quad	.L216
	.quad	.L216
	.quad	.L255
	.quad	.L255
	.quad	.L255
	.quad	.L255
	.quad	.L255
	.quad	.L255
	.quad	.L255
	.quad	.L255
	.quad	.L255
	.quad	.L255
	.quad	.L255
	.quad	.L255
	.quad	.L255
	.quad	.L255
	.quad	.L255
	.quad	.L255
	.quad	.L216
	.quad	.L216
	.text
.L211:
	.loc 1 1829 0
	movq	-40(%rbp), %rax	# x, tmp173
	cmpq	-48(%rbp), %rax	# y, tmp173
	sete	%al	#, D.19170
	movzbl	%al, %eax	# D.19170, D.19166
	jmp	.L202	#
.L210:
	.loc 1 1832 0
	movq	-40(%rbp), %rax	# x, tmp174
	movq	8(%rax), %rdx	# x_8(D)->fld[0].rtwint, D.19171
	movq	-48(%rbp), %rax	# y, tmp175
	movq	8(%rax), %rax	# y_9(D)->fld[0].rtwint, D.19171
	cmpq	%rax, %rdx	# D.19171, D.19171
	sete	%al	#, D.19170
	movzbl	%al, %eax	# D.19170, D.19166
	jmp	.L202	#
.L214:
	.loc 1 1835 0
	movq	-40(%rbp), %rax	# x, tmp176
	movq	8(%rax), %rdx	# x_8(D)->fld[0].rtx, D.19172
	movq	-48(%rbp), %rax	# y, tmp177
	movq	8(%rax), %rax	# y_9(D)->fld[0].rtx, D.19172
	cmpq	%rax, %rdx	# D.19172, D.19172
	sete	%al	#, D.19170
	movzbl	%al, %eax	# D.19170, D.19166
	jmp	.L202	#
.L215:
	.loc 1 1838 0
	movq	-40(%rbp), %rax	# x, tmp178
	movq	8(%rax), %rdx	# x_8(D)->fld[0].rtstr, D.19173
	movq	-48(%rbp), %rax	# y, tmp179
	movq	8(%rax), %rax	# y_9(D)->fld[0].rtstr, D.19173
	cmpq	%rax, %rdx	# D.19173, D.19173
	sete	%al	#, D.19170
	movzbl	%al, %eax	# D.19170, D.19166
	jmp	.L202	#
.L212:
	.loc 1 1841 0
	movq	-40(%rbp), %rax	# x, tmp180
	movl	8(%rax), %edx	# x_8(D)->fld[0].rtuint, D.19168
	movq	-48(%rbp), %rax	# y, tmp181
	movl	8(%rax), %eax	# y_9(D)->fld[0].rtuint, D.19168
	cmpl	%eax, %edx	# D.19168, D.19168
	sete	%al	#, D.19170
	movzbl	%al, %eax	# D.19170, D.19166
	jmp	.L202	#
.L213:
	.loc 1 1847 0
	movq	-40(%rbp), %rax	# x, tmp182
	movq	16(%rax), %rax	# x_8(D)->fld[1].rtmem, D.19174
	testq	%rax, %rax	# D.19174
	je	.L217	#,
	.loc 1 1847 0 is_stmt 0 discriminator 1
	movq	-40(%rbp), %rax	# x, tmp183
	movq	16(%rax), %rax	# x_8(D)->fld[1].rtmem, D.19174
	movq	(%rax), %rdx	# _38->alias, iftmp.153
	jmp	.L218	#
.L217:
	.loc 1 1847 0 discriminator 2
	movl	$0, %edx	#, iftmp.153
.L218:
	.loc 1 1847 0 discriminator 3
	movq	-48(%rbp), %rax	# y, tmp184
	movq	16(%rax), %rax	# y_9(D)->fld[1].rtmem, D.19174
	testq	%rax, %rax	# D.19174
	je	.L219	#,
	.loc 1 1847 0 discriminator 1
	movq	-48(%rbp), %rax	# y, tmp185
	movq	16(%rax), %rax	# y_9(D)->fld[1].rtmem, D.19174
	movq	(%rax), %rax	# _42->alias, iftmp.154
	jmp	.L220	#
.L219:
	.loc 1 1847 0 discriminator 2
	movl	$0, %eax	#, iftmp.154
.L220:
	.loc 1 1847 0 discriminator 3
	cmpq	%rax, %rdx	# iftmp.154, iftmp.153
	je	.L221	#,
	.loc 1 1848 0 is_stmt 1
	movl	$0, %eax	#, D.19166
	jmp	.L202	#
.L221:
	.loc 1 1849 0
	jmp	.L222	#
.L216:
	.loc 1 1859 0
	movq	-48(%rbp), %rax	# y, tmp186
	movq	8(%rax), %rdx	# y_9(D)->fld[0].rtx, D.19172
	movq	-40(%rbp), %rax	# x, tmp187
	movq	8(%rax), %rax	# x_8(D)->fld[0].rtx, D.19172
	movq	%rdx, %rsi	# D.19172,
	movq	%rax, %rdi	# D.19172,
	call	expr_equiv_p	#
	.loc 1 1861 0
	testl	%eax, %eax	# D.19166
	je	.L223	#,
	.loc 1 1860 0
	movq	-48(%rbp), %rax	# y, tmp188
	movq	16(%rax), %rdx	# y_9(D)->fld[1].rtx, D.19172
	movq	-40(%rbp), %rax	# x, tmp189
	movq	16(%rax), %rax	# x_8(D)->fld[1].rtx, D.19172
	movq	%rdx, %rsi	# D.19172,
	movq	%rax, %rdi	# D.19172,
	call	expr_equiv_p	#
	testl	%eax, %eax	# D.19166
	jne	.L224	#,
.L223:
	.loc 1 1861 0 discriminator 1
	movq	-48(%rbp), %rax	# y, tmp190
	movq	16(%rax), %rdx	# y_9(D)->fld[1].rtx, D.19172
	movq	-40(%rbp), %rax	# x, tmp191
	movq	8(%rax), %rax	# x_8(D)->fld[0].rtx, D.19172
	movq	%rdx, %rsi	# D.19172,
	movq	%rax, %rdi	# D.19172,
	call	expr_equiv_p	#
	testl	%eax, %eax	# D.19166
	je	.L225	#,
	.loc 1 1862 0
	movq	-48(%rbp), %rax	# y, tmp192
	movq	8(%rax), %rdx	# y_9(D)->fld[0].rtx, D.19172
	movq	-40(%rbp), %rax	# x, tmp193
	movq	16(%rax), %rax	# x_8(D)->fld[1].rtx, D.19172
	movq	%rdx, %rsi	# D.19172,
	movq	%rax, %rdi	# D.19172,
	call	expr_equiv_p	#
	testl	%eax, %eax	# D.19166
	je	.L225	#,
.L224:
	.loc 1 1861 0
	movl	$1, %eax	#, iftmp.155
	jmp	.L226	#
.L225:
	.loc 1 1861 0 is_stmt 0 discriminator 2
	movl	$0, %eax	#, iftmp.155
.L226:
	.loc 1 1859 0 is_stmt 1
	jmp	.L202	#
.L208:
	.loc 1 1869 0
	movq	-40(%rbp), %rax	# x, tmp194
	movzbl	3(%rax), %eax	# *x_8(D), D.19169
	andl	$8, %eax	#, D.19169
	testb	%al, %al	# D.19169
	jne	.L227	#,
	.loc 1 1869 0 is_stmt 0 discriminator 1
	movq	-48(%rbp), %rax	# y, tmp195
	movzbl	3(%rax), %eax	# *y_9(D), D.19169
	andl	$8, %eax	#, D.19169
	testb	%al, %al	# D.19169
	je	.L228	#,
.L227:
	.loc 1 1870 0 is_stmt 1
	movl	$0, %eax	#, D.19166
	jmp	.L202	#
.L228:
	.loc 1 1872 0
	movq	-40(%rbp), %rax	# x, tmp196
	movzbl	2(%rax), %edx	# x_8(D)->mode, D.19169
	movq	-48(%rbp), %rax	# y, tmp197
	movzbl	2(%rax), %eax	# y_9(D)->mode, D.19169
	cmpb	%al, %dl	# D.19169, D.19169
	jne	.L229	#,
	.loc 1 1873 0
	movq	-48(%rbp), %rax	# y, tmp198
	movq	8(%rax), %rdx	# y_9(D)->fld[0].rtstr, D.19173
	movq	-40(%rbp), %rax	# x, tmp199
	movq	8(%rax), %rax	# x_8(D)->fld[0].rtstr, D.19173
	movq	%rdx, %rsi	# D.19173,
	movq	%rax, %rdi	# D.19173,
	call	strcmp	#
	testl	%eax, %eax	# D.19166
	jne	.L229	#,
	.loc 1 1874 0
	movq	-48(%rbp), %rax	# y, tmp200
	movq	16(%rax), %rdx	# y_9(D)->fld[1].rtstr, D.19173
	movq	-40(%rbp), %rax	# x, tmp201
	movq	16(%rax), %rax	# x_8(D)->fld[1].rtstr, D.19173
	movq	%rdx, %rsi	# D.19173,
	movq	%rax, %rdi	# D.19173,
	call	strcmp	#
	testl	%eax, %eax	# D.19166
	jne	.L229	#,
	.loc 1 1876 0
	movq	-40(%rbp), %rax	# x, tmp202
	movl	24(%rax), %edx	# x_8(D)->fld[2].rtint, D.19166
	movq	-48(%rbp), %rax	# y, tmp203
	movl	24(%rax), %eax	# y_9(D)->fld[2].rtint, D.19166
	cmpl	%eax, %edx	# D.19166, D.19166
	jne	.L229	#,
	.loc 1 1877 0
	movq	-40(%rbp), %rax	# x, tmp204
	movq	32(%rax), %rax	# x_8(D)->fld[3].rtvec, D.19175
	movl	(%rax), %edx	# _75->num_elem, D.19166
	movq	-48(%rbp), %rax	# y, tmp205
	movq	32(%rax), %rax	# y_9(D)->fld[3].rtvec, D.19175
	movl	(%rax), %eax	# _77->num_elem, D.19166
	cmpl	%eax, %edx	# D.19166, D.19166
	je	.L230	#,
.L229:
	.loc 1 1878 0
	movl	$0, %eax	#, D.19166
	jmp	.L202	#
.L230:
	.loc 1 1880 0
	movq	-40(%rbp), %rax	# x, tmp206
	movq	32(%rax), %rax	# x_8(D)->fld[3].rtvec, D.19175
	movl	(%rax), %eax	# _79->num_elem, D.19166
	testl	%eax, %eax	# D.19166
	je	.L231	#,
	.loc 1 1882 0
	movq	-40(%rbp), %rax	# x, tmp207
	movq	32(%rax), %rax	# x_8(D)->fld[3].rtvec, D.19175
	movl	(%rax), %eax	# _81->num_elem, D.19166
	subl	$1, %eax	#, tmp208
	movl	%eax, -20(%rbp)	# tmp208, i
	jmp	.L232	#
.L235:
	.loc 1 1884 0
	movq	-48(%rbp), %rax	# y, tmp209
	movq	32(%rax), %rax	# y_9(D)->fld[3].rtvec, D.19175
	.loc 1 1883 0
	movl	-20(%rbp), %edx	# i, tmp211
	movslq	%edx, %rdx	# tmp211, tmp210
	movq	8(%rax,%rdx,8), %rdx	# _84->elem, D.19172
	movq	-40(%rbp), %rax	# x, tmp212
	movq	32(%rax), %rax	# x_8(D)->fld[3].rtvec, D.19175
	movl	-20(%rbp), %ecx	# i, tmp214
	movslq	%ecx, %rcx	# tmp214, tmp213
	movq	8(%rax,%rcx,8), %rax	# _86->elem, D.19172
	movq	%rdx, %rsi	# D.19172,
	movq	%rax, %rdi	# D.19172,
	call	expr_equiv_p	#
	testl	%eax, %eax	# D.19166
	je	.L233	#,
	.loc 1 1886 0
	movq	-48(%rbp), %rax	# y, tmp215
	movq	40(%rax), %rax	# y_9(D)->fld[4].rtvec, D.19175
	movl	-20(%rbp), %edx	# i, tmp217
	movslq	%edx, %rdx	# tmp217, tmp216
	movq	8(%rax,%rdx,8), %rax	# _89->elem, D.19172
	.loc 1 1885 0
	movq	8(%rax), %rdx	# _90->fld[0].rtstr, D.19173
	movq	-40(%rbp), %rax	# x, tmp218
	movq	40(%rax), %rax	# x_8(D)->fld[4].rtvec, D.19175
	movl	-20(%rbp), %ecx	# i, tmp220
	movslq	%ecx, %rcx	# tmp220, tmp219
	movq	8(%rax,%rcx,8), %rax	# _92->elem, D.19172
	movq	8(%rax), %rax	# _93->fld[0].rtstr, D.19173
	movq	%rdx, %rsi	# D.19173,
	movq	%rax, %rdi	# D.19173,
	call	strcmp	#
	testl	%eax, %eax	# D.19166
	je	.L234	#,
.L233:
	.loc 1 1887 0
	movl	$0, %eax	#, D.19166
	jmp	.L202	#
.L234:
	.loc 1 1882 0
	subl	$1, -20(%rbp)	#, i
.L232:
	.loc 1 1882 0 is_stmt 0 discriminator 1
	cmpl	$0, -20(%rbp)	#, i
	jns	.L235	#,
.L231:
	.loc 1 1890 0 is_stmt 1
	movl	$1, %eax	#, D.19166
	jmp	.L202	#
.L255:
	.loc 1 1893 0
	nop
.L222:
	.loc 1 1899 0
	movl	-12(%rbp), %eax	# code, code.156
	cltq
	movq	rtx_format(,%rax,8), %rax	# rtx_format, tmp222
	movq	%rax, -8(%rbp)	# tmp222, fmt
	.loc 1 1900 0
	movl	-12(%rbp), %eax	# code, code.157
	cltq
	movzbl	rtx_length(%rax), %eax	# rtx_length, D.19169
	movzbl	%al, %eax	# D.19169, D.19166
	subl	$1, %eax	#, tmp224
	movl	%eax, -20(%rbp)	# tmp224, i
	jmp	.L236	#
.L254:
	.loc 1 1902 0
	movl	-20(%rbp), %eax	# i, tmp225
	movslq	%eax, %rdx	# tmp225, D.19176
	movq	-8(%rbp), %rax	# fmt, tmp226
	addq	%rdx, %rax	# D.19176, D.19173
	movzbl	(%rax), %eax	# *_108, D.19177
	movsbl	%al, %eax	# D.19177, D.19166
	cmpl	$101, %eax	#, D.19166
	je	.L238	#,
	cmpl	$101, %eax	#, D.19166
	jg	.L239	#,
	cmpl	$48, %eax	#, D.19166
	je	.L256	#,
	cmpl	$69, %eax	#, D.19166
	je	.L241	#,
	jmp	.L237	#
.L239:
	cmpl	$115, %eax	#, D.19166
	je	.L242	#,
	cmpl	$119, %eax	#, D.19166
	je	.L243	#,
	cmpl	$105, %eax	#, D.19166
	je	.L244	#,
	jmp	.L237	#
.L238:
	.loc 1 1905 0
	movq	-48(%rbp), %rax	# y, tmp227
	movl	-20(%rbp), %edx	# i, tmp229
	movslq	%edx, %rdx	# tmp229, tmp228
	movq	8(%rax,%rdx,8), %rdx	# y_9(D)->fld[i_2].rtx, D.19172
	movq	-40(%rbp), %rax	# x, tmp230
	movl	-20(%rbp), %ecx	# i, tmp232
	movslq	%ecx, %rcx	# tmp232, tmp231
	movq	8(%rax,%rcx,8), %rax	# x_8(D)->fld[i_2].rtx, D.19172
	movq	%rdx, %rsi	# D.19172,
	movq	%rax, %rdi	# D.19172,
	call	expr_equiv_p	#
	testl	%eax, %eax	# D.19166
	jne	.L245	#,
	.loc 1 1906 0
	movl	$0, %eax	#, D.19166
	jmp	.L202	#
.L245:
	.loc 1 1907 0
	jmp	.L246	#
.L241:
	.loc 1 1910 0
	movq	-40(%rbp), %rax	# x, tmp233
	movl	-20(%rbp), %edx	# i, tmp235
	movslq	%edx, %rdx	# tmp235, tmp234
	movq	8(%rax,%rdx,8), %rax	# x_8(D)->fld[i_2].rtvec, D.19175
	movl	(%rax), %ecx	# _115->num_elem, D.19166
	movq	-48(%rbp), %rax	# y, tmp236
	movl	-20(%rbp), %edx	# i, tmp238
	movslq	%edx, %rdx	# tmp238, tmp237
	movq	8(%rax,%rdx,8), %rax	# y_9(D)->fld[i_2].rtvec, D.19175
	movl	(%rax), %eax	# _117->num_elem, D.19166
	cmpl	%eax, %ecx	# D.19166, D.19166
	je	.L247	#,
	.loc 1 1911 0
	movl	$0, %eax	#, D.19166
	jmp	.L202	#
.L247:
	.loc 1 1912 0
	movl	$0, -16(%rbp)	#, j
	jmp	.L248	#
.L250:
	.loc 1 1913 0
	movq	-48(%rbp), %rax	# y, tmp239
	movl	-20(%rbp), %edx	# i, tmp241
	movslq	%edx, %rdx	# tmp241, tmp240
	movq	8(%rax,%rdx,8), %rax	# y_9(D)->fld[i_2].rtvec, D.19175
	movl	-16(%rbp), %edx	# j, tmp243
	movslq	%edx, %rdx	# tmp243, tmp242
	movq	8(%rax,%rdx,8), %rdx	# _123->elem, D.19172
	movq	-40(%rbp), %rax	# x, tmp244
	movl	-20(%rbp), %ecx	# i, tmp246
	movslq	%ecx, %rcx	# tmp246, tmp245
	movq	8(%rax,%rcx,8), %rax	# x_8(D)->fld[i_2].rtvec, D.19175
	movl	-16(%rbp), %ecx	# j, tmp248
	movslq	%ecx, %rcx	# tmp248, tmp247
	movq	8(%rax,%rcx,8), %rax	# _125->elem, D.19172
	movq	%rdx, %rsi	# D.19172,
	movq	%rax, %rdi	# D.19172,
	call	expr_equiv_p	#
	testl	%eax, %eax	# D.19166
	jne	.L249	#,
	.loc 1 1914 0
	movl	$0, %eax	#, D.19166
	jmp	.L202	#
.L249:
	.loc 1 1912 0
	addl	$1, -16(%rbp)	#, j
.L248:
	.loc 1 1912 0 is_stmt 0 discriminator 1
	movq	-40(%rbp), %rax	# x, tmp249
	movl	-20(%rbp), %edx	# i, tmp251
	movslq	%edx, %rdx	# tmp251, tmp250
	movq	8(%rax,%rdx,8), %rax	# x_8(D)->fld[i_2].rtvec, D.19175
	movl	(%rax), %eax	# _121->num_elem, D.19166
	cmpl	-16(%rbp), %eax	# j, D.19166
	jg	.L250	#,
	.loc 1 1915 0 is_stmt 1
	jmp	.L246	#
.L242:
	.loc 1 1918 0
	movq	-48(%rbp), %rax	# y, tmp252
	movl	-20(%rbp), %edx	# i, tmp254
	movslq	%edx, %rdx	# tmp254, tmp253
	movq	8(%rax,%rdx,8), %rdx	# y_9(D)->fld[i_2].rtstr, D.19173
	movq	-40(%rbp), %rax	# x, tmp255
	movl	-20(%rbp), %ecx	# i, tmp257
	movslq	%ecx, %rcx	# tmp257, tmp256
	movq	8(%rax,%rcx,8), %rax	# x_8(D)->fld[i_2].rtstr, D.19173
	movq	%rdx, %rsi	# D.19173,
	movq	%rax, %rdi	# D.19173,
	call	strcmp	#
	testl	%eax, %eax	# D.19166
	je	.L251	#,
	.loc 1 1919 0
	movl	$0, %eax	#, D.19166
	jmp	.L202	#
.L251:
	.loc 1 1920 0
	jmp	.L246	#
.L244:
	.loc 1 1923 0
	movq	-40(%rbp), %rax	# x, tmp258
	movl	-20(%rbp), %edx	# i, tmp260
	movslq	%edx, %rdx	# tmp260, tmp259
	movl	8(%rax,%rdx,8), %ecx	# x_8(D)->fld[i_2].rtint, D.19166
	movq	-48(%rbp), %rax	# y, tmp261
	movl	-20(%rbp), %edx	# i, tmp263
	movslq	%edx, %rdx	# tmp263, tmp262
	movl	8(%rax,%rdx,8), %eax	# y_9(D)->fld[i_2].rtint, D.19166
	cmpl	%eax, %ecx	# D.19166, D.19166
	je	.L252	#,
	.loc 1 1924 0
	movl	$0, %eax	#, D.19166
	jmp	.L202	#
.L252:
	.loc 1 1925 0
	jmp	.L246	#
.L243:
	.loc 1 1928 0
	movq	-40(%rbp), %rax	# x, tmp264
	movl	-20(%rbp), %edx	# i, tmp266
	movslq	%edx, %rdx	# tmp266, tmp265
	movq	8(%rax,%rdx,8), %rcx	# x_8(D)->fld[i_2].rtwint, D.19171
	movq	-48(%rbp), %rax	# y, tmp267
	movl	-20(%rbp), %edx	# i, tmp269
	movslq	%edx, %rdx	# tmp269, tmp268
	movq	8(%rax,%rdx,8), %rax	# y_9(D)->fld[i_2].rtwint, D.19171
	cmpq	%rax, %rcx	# D.19171, D.19171
	je	.L253	#,
	.loc 1 1929 0
	movl	$0, %eax	#, D.19166
	jmp	.L202	#
.L253:
	.loc 1 1930 0
	jmp	.L246	#
.L237:
	.loc 1 1936 0
	movl	$__FUNCTION__.12271, %edx	#,
	movl	$1936, %esi	#,
	movl	$.LC7, %edi	#,
	call	fancy_abort	#
.L256:
	.loc 1 1933 0
	nop
.L246:
	.loc 1 1900 0
	subl	$1, -20(%rbp)	#, i
.L236:
	.loc 1 1900 0 is_stmt 0 discriminator 1
	cmpl	$0, -20(%rbp)	#, i
	jns	.L254	#,
	.loc 1 1940 0 is_stmt 1
	movl	$1, %eax	#, D.19166
.L202:
	.loc 1 1941 0
	leave
	.cfi_def_cfa 7, 8
	ret
	.cfi_endproc
.LFE26:
	.size	expr_equiv_p, .-expr_equiv_p
	.type	insert_expr_in_table, @function
insert_expr_in_table:
.LFB27:
	.loc 1 1959 0
	.cfi_startproc
	pushq	%rbp	#
	.cfi_def_cfa_offset 16
	.cfi_offset 6, -16
	movq	%rsp, %rbp	#,
	.cfi_def_cfa_register 6
	subq	$96, %rsp	#,
	movq	%rdi, -72(%rbp)	# x, x
	movl	%esi, -76(%rbp)	# mode, mode
	movq	%rdx, -88(%rbp)	# insn, insn
	movl	%ecx, -80(%rbp)	# antic_p, antic_p
	movl	%r8d, -92(%rbp)	# avail_p, avail_p
	.loc 1 1962 0
	movq	$0, -32(%rbp)	#, last_expr
	.loc 1 1964 0
	movq	$0, -8(%rbp)	#, last_occr
	.loc 1 1966 0
	movl	expr_hash_table_size(%rip), %eax	# expr_hash_table_size, expr_hash_table_size.158
	movl	%eax, %ecx	# expr_hash_table_size.158, expr_hash_table_size.159
	leaq	-52(%rbp), %rdx	#, tmp111
	movl	-76(%rbp), %esi	# mode, tmp112
	movq	-72(%rbp), %rax	# x, tmp113
	movq	%rax, %rdi	# tmp113,
	call	hash_expr	#
	movl	%eax, -44(%rbp)	# tmp114, hash
	.loc 1 1971 0
	movl	-52(%rbp), %eax	# do_not_record_p, do_not_record_p.160
	testl	%eax, %eax	# do_not_record_p.160
	jne	.L257	#,
	.loc 1 1974 0
	movq	expr_hash_table(%rip), %rax	# expr_hash_table, expr_hash_table.161
	movl	-44(%rbp), %edx	# hash, D.19179
	salq	$3, %rdx	#, D.19179
	addq	%rdx, %rax	# D.19179, D.19180
	movq	(%rax), %rax	# *_22, tmp115
	movq	%rax, -40(%rbp)	# tmp115, cur_expr
	.loc 1 1975 0
	movl	$0, -48(%rbp)	#, found
	.loc 1 1977 0
	jmp	.L260	#
.L262:
	.loc 1 1981 0
	movq	-40(%rbp), %rax	# cur_expr, tmp116
	movq	%rax, -32(%rbp)	# tmp116, last_expr
	.loc 1 1982 0
	movq	-40(%rbp), %rax	# cur_expr, tmp117
	movq	16(%rax), %rax	# cur_expr_3->next_same_hash, tmp118
	movq	%rax, -40(%rbp)	# tmp118, cur_expr
.L260:
	.loc 1 1977 0 discriminator 1
	cmpq	$0, -40(%rbp)	#, cur_expr
	je	.L261	#,
	.loc 1 1977 0 is_stmt 0 discriminator 2
	movq	-40(%rbp), %rax	# cur_expr, tmp119
	movq	(%rax), %rax	# cur_expr_3->expr, D.19181
	movq	-72(%rbp), %rdx	# x, tmp120
	movq	%rdx, %rsi	# tmp120,
	movq	%rax, %rdi	# D.19181,
	call	expr_equiv_p	#
	movl	%eax, -48(%rbp)	# tmp121, found
	cmpl	$0, -48(%rbp)	#, found
	je	.L262	#,
.L261:
	.loc 1 1985 0 is_stmt 1
	cmpl	$0, -48(%rbp)	#, found
	jne	.L263	#,
	.loc 1 1987 0
	movl	$48, %edi	#,
	call	gcse_alloc	#
	movq	%rax, -40(%rbp)	# tmp122, cur_expr
	.loc 1 1988 0
	movl	bytes_used(%rip), %eax	# bytes_used, bytes_used.162
	addl	$48, %eax	#, D.19182
	movl	%eax, bytes_used(%rip)	# bytes_used.164, bytes_used
	.loc 1 1989 0
	movq	expr_hash_table(%rip), %rax	# expr_hash_table, expr_hash_table.165
	movl	-44(%rbp), %edx	# hash, D.19179
	salq	$3, %rdx	#, D.19179
	addq	%rdx, %rax	# D.19179, D.19180
	movq	(%rax), %rax	# *_37, D.19183
	testq	%rax, %rax	# D.19183
	jne	.L264	#,
	.loc 1 1991 0
	movq	expr_hash_table(%rip), %rax	# expr_hash_table, expr_hash_table.166
	movl	-44(%rbp), %edx	# hash, D.19179
	salq	$3, %rdx	#, D.19179
	addq	%rax, %rdx	# expr_hash_table.166, D.19180
	movq	-40(%rbp), %rax	# cur_expr, tmp123
	movq	%rax, (%rdx)	# tmp123, *_42
	jmp	.L265	#
.L264:
	.loc 1 1994 0
	movq	-32(%rbp), %rax	# last_expr, tmp124
	movq	-40(%rbp), %rdx	# cur_expr, tmp125
	movq	%rdx, 16(%rax)	# tmp125, last_expr_5->next_same_hash
.L265:
	.loc 1 1997 0
	movq	-40(%rbp), %rax	# cur_expr, tmp126
	movq	-72(%rbp), %rdx	# x, tmp127
	movq	%rdx, (%rax)	# tmp127, cur_expr_29->expr
	.loc 1 1998 0
	movl	n_exprs(%rip), %eax	# n_exprs, n_exprs.167
	leal	1(%rax), %edx	#, n_exprs.169
	movl	%edx, n_exprs(%rip)	# n_exprs.169, n_exprs
	movq	-40(%rbp), %rdx	# cur_expr, tmp128
	movl	%eax, 8(%rdx)	# n_exprs.168, cur_expr_29->bitmap_index
	.loc 1 1999 0
	movq	-40(%rbp), %rax	# cur_expr, tmp129
	movq	$0, 16(%rax)	#, cur_expr_29->next_same_hash
	.loc 1 2000 0
	movq	-40(%rbp), %rax	# cur_expr, tmp130
	movq	$0, 24(%rax)	#, cur_expr_29->antic_occr
	.loc 1 2001 0
	movq	-40(%rbp), %rax	# cur_expr, tmp131
	movq	$0, 32(%rax)	#, cur_expr_29->avail_occr
.L263:
	.loc 1 2005 0
	cmpl	$0, -80(%rbp)	#, antic_p
	je	.L266	#,
	.loc 1 2007 0
	movq	-40(%rbp), %rax	# cur_expr, tmp132
	movq	24(%rax), %rax	# cur_expr_4->antic_occr, tmp133
	movq	%rax, -24(%rbp)	# tmp133, antic_occr
	.loc 1 2010 0
	jmp	.L267	#
.L269:
	.loc 1 2014 0
	movq	-24(%rbp), %rax	# antic_occr, tmp134
	movq	%rax, -8(%rbp)	# tmp134, last_occr
	.loc 1 2015 0
	movq	-24(%rbp), %rax	# antic_occr, tmp135
	movq	(%rax), %rax	# antic_occr_6->next, tmp136
	movq	%rax, -24(%rbp)	# tmp136, antic_occr
.L267:
	.loc 1 2010 0 discriminator 1
	cmpq	$0, -24(%rbp)	#, antic_occr
	je	.L268	#,
	.loc 1 2010 0 is_stmt 0 discriminator 2
	movq	basic_block_for_insn(%rip), %rax	# basic_block_for_insn, basic_block_for_insn.170
	movq	-24(%rbp), %rdx	# antic_occr, tmp137
	movq	8(%rdx), %rdx	# antic_occr_6->insn, D.19181
	movl	8(%rdx), %edx	# _49->fld[0].rtint, D.19184
	movslq	%edx, %rdx	# D.19184, tmp138
	addq	$4, %rdx	#, tmp139
	movq	(%rax,%rdx,8), %rax	# basic_block_for_insn.170_48->data.bb, D.19185
	movl	88(%rax), %ecx	# _51->index, D.19184
	movq	basic_block_for_insn(%rip), %rax	# basic_block_for_insn, basic_block_for_insn.171
	movq	-88(%rbp), %rdx	# insn, tmp140
	movl	8(%rdx), %edx	# insn_54(D)->fld[0].rtint, D.19184
	movslq	%edx, %rdx	# D.19184, tmp141
	addq	$4, %rdx	#, tmp142
	movq	(%rax,%rdx,8), %rax	# basic_block_for_insn.171_53->data.bb, D.19185
	movl	88(%rax), %eax	# _56->index, D.19184
	cmpl	%eax, %ecx	# D.19184, D.19184
	jne	.L269	#,
.L268:
	.loc 1 2018 0 is_stmt 1
	cmpq	$0, -24(%rbp)	#, antic_occr
	jne	.L266	#,
	.loc 1 2026 0
	movl	$24, %edi	#,
	call	gcse_alloc	#
	movq	%rax, -24(%rbp)	# tmp143, antic_occr
	.loc 1 2027 0
	movl	bytes_used(%rip), %eax	# bytes_used, bytes_used.172
	addl	$24, %eax	#, D.19182
	movl	%eax, bytes_used(%rip)	# bytes_used.174, bytes_used
	.loc 1 2029 0
	movq	-40(%rbp), %rax	# cur_expr, tmp144
	movq	24(%rax), %rax	# cur_expr_4->antic_occr, D.19186
	testq	%rax, %rax	# D.19186
	jne	.L270	#,
	.loc 1 2030 0
	movq	-40(%rbp), %rax	# cur_expr, tmp145
	movq	-24(%rbp), %rdx	# antic_occr, tmp146
	movq	%rdx, 24(%rax)	# tmp146, cur_expr_4->antic_occr
	jmp	.L271	#
.L270:
	.loc 1 2032 0
	movq	-8(%rbp), %rax	# last_occr, tmp147
	movq	-24(%rbp), %rdx	# antic_occr, tmp148
	movq	%rdx, (%rax)	# tmp148, last_occr_8->next
.L271:
	.loc 1 2034 0
	movq	-24(%rbp), %rax	# antic_occr, tmp149
	movq	-88(%rbp), %rdx	# insn, tmp150
	movq	%rdx, 8(%rax)	# tmp150, antic_occr_60->insn
	.loc 1 2035 0
	movq	-24(%rbp), %rax	# antic_occr, tmp151
	movq	$0, (%rax)	#, antic_occr_60->next
.L266:
	.loc 1 2039 0
	cmpl	$0, -92(%rbp)	#, avail_p
	je	.L257	#,
	.loc 1 2041 0
	movq	-40(%rbp), %rax	# cur_expr, tmp152
	movq	32(%rax), %rax	# cur_expr_4->avail_occr, tmp153
	movq	%rax, -16(%rbp)	# tmp153, avail_occr
	.loc 1 2044 0
	jmp	.L273	#
.L275:
	.loc 1 2048 0
	movq	-16(%rbp), %rax	# avail_occr, tmp154
	movq	%rax, -8(%rbp)	# tmp154, last_occr
	.loc 1 2049 0
	movq	-16(%rbp), %rax	# avail_occr, tmp155
	movq	(%rax), %rax	# avail_occr_7->next, tmp156
	movq	%rax, -16(%rbp)	# tmp156, avail_occr
.L273:
	.loc 1 2044 0 discriminator 1
	cmpq	$0, -16(%rbp)	#, avail_occr
	je	.L274	#,
	.loc 1 2044 0 is_stmt 0 discriminator 2
	movq	basic_block_for_insn(%rip), %rax	# basic_block_for_insn, basic_block_for_insn.175
	movq	-16(%rbp), %rdx	# avail_occr, tmp157
	movq	8(%rdx), %rdx	# avail_occr_7->insn, D.19181
	movl	8(%rdx), %edx	# _69->fld[0].rtint, D.19184
	movslq	%edx, %rdx	# D.19184, tmp158
	addq	$4, %rdx	#, tmp159
	movq	(%rax,%rdx,8), %rax	# basic_block_for_insn.175_68->data.bb, D.19185
	movl	88(%rax), %ecx	# _71->index, D.19184
	movq	basic_block_for_insn(%rip), %rax	# basic_block_for_insn, basic_block_for_insn.176
	movq	-88(%rbp), %rdx	# insn, tmp160
	movl	8(%rdx), %edx	# insn_54(D)->fld[0].rtint, D.19184
	movslq	%edx, %rdx	# D.19184, tmp161
	addq	$4, %rdx	#, tmp162
	movq	(%rax,%rdx,8), %rax	# basic_block_for_insn.176_73->data.bb, D.19185
	movl	88(%rax), %eax	# _75->index, D.19184
	cmpl	%eax, %ecx	# D.19184, D.19184
	jne	.L275	#,
.L274:
	.loc 1 2052 0 is_stmt 1
	cmpq	$0, -16(%rbp)	#, avail_occr
	je	.L276	#,
	.loc 1 2057 0
	movq	-16(%rbp), %rax	# avail_occr, tmp163
	movq	-88(%rbp), %rdx	# insn, tmp164
	movq	%rdx, 8(%rax)	# tmp164, avail_occr_7->insn
	jmp	.L257	#
.L276:
	.loc 1 2061 0
	movl	$24, %edi	#,
	call	gcse_alloc	#
	movq	%rax, -16(%rbp)	# tmp165, avail_occr
	.loc 1 2062 0
	movl	bytes_used(%rip), %eax	# bytes_used, bytes_used.177
	addl	$24, %eax	#, D.19182
	movl	%eax, bytes_used(%rip)	# bytes_used.179, bytes_used
	.loc 1 2065 0
	movq	-40(%rbp), %rax	# cur_expr, tmp166
	movq	32(%rax), %rax	# cur_expr_4->avail_occr, D.19186
	testq	%rax, %rax	# D.19186
	jne	.L277	#,
	.loc 1 2066 0
	movq	-40(%rbp), %rax	# cur_expr, tmp167
	movq	-16(%rbp), %rdx	# avail_occr, tmp168
	movq	%rdx, 32(%rax)	# tmp168, cur_expr_4->avail_occr
	jmp	.L278	#
.L277:
	.loc 1 2068 0
	movq	-8(%rbp), %rax	# last_occr, tmp169
	movq	-16(%rbp), %rdx	# avail_occr, tmp170
	movq	%rdx, (%rax)	# tmp170, last_occr_10->next
.L278:
	.loc 1 2070 0
	movq	-16(%rbp), %rax	# avail_occr, tmp171
	movq	-88(%rbp), %rdx	# insn, tmp172
	movq	%rdx, 8(%rax)	# tmp172, avail_occr_79->insn
	.loc 1 2071 0
	movq	-16(%rbp), %rax	# avail_occr, tmp173
	movq	$0, (%rax)	#, avail_occr_79->next
.L257:
	.loc 1 2074 0
	leave
	.cfi_def_cfa 7, 8
	ret
	.cfi_endproc
.LFE27:
	.size	insert_expr_in_table, .-insert_expr_in_table
	.type	insert_set_in_table, @function
insert_set_in_table:
.LFB28:
	.loc 1 2085 0
	.cfi_startproc
	pushq	%rbp	#
	.cfi_def_cfa_offset 16
	.cfi_offset 6, -16
	movq	%rsp, %rbp	#,
	.cfi_def_cfa_register 6
	subq	$64, %rsp	#,
	movq	%rdi, -56(%rbp)	# x, x
	movq	%rsi, -64(%rbp)	# insn, insn
	.loc 1 2088 0
	movq	$0, -24(%rbp)	#, last_expr
	.loc 1 2089 0
	movq	$0, -8(%rbp)	#, last_occr
	.loc 1 2091 0
	movq	-56(%rbp), %rax	# x, tmp103
	movzwl	(%rax), %eax	# x_10(D)->code, D.19187
	cmpw	$47, %ax	#, D.19187
	jne	.L280	#,
	.loc 1 2092 0
	movq	-56(%rbp), %rax	# x, tmp104
	movq	8(%rax), %rax	# x_10(D)->fld[0].rtx, D.19188
	movzwl	(%rax), %eax	# _12->code, D.19187
	cmpw	$61, %ax	#, D.19187
	je	.L281	#,
.L280:
	.loc 1 2093 0
	movl	$__FUNCTION__.12309, %edx	#,
	movl	$2093, %esi	#,
	movl	$.LC7, %edi	#,
	call	fancy_abort	#
.L281:
	.loc 1 2095 0
	movl	set_hash_table_size(%rip), %eax	# set_hash_table_size, set_hash_table_size.180
	movl	%eax, %edx	# set_hash_table_size.180, set_hash_table_size.181
	movq	-56(%rbp), %rax	# x, tmp105
	movq	8(%rax), %rax	# x_10(D)->fld[0].rtx, D.19188
	movl	8(%rax), %eax	# _16->fld[0].rtuint, D.19189
	movl	%edx, %esi	# set_hash_table_size.181,
	movl	%eax, %edi	# D.19190,
	call	hash_set	#
	movl	%eax, -36(%rbp)	# tmp106, hash
	.loc 1 2097 0
	movq	set_hash_table(%rip), %rax	# set_hash_table, set_hash_table.182
	movl	-36(%rbp), %edx	# hash, D.19191
	salq	$3, %rdx	#, D.19191
	addq	%rdx, %rax	# D.19191, D.19192
	movq	(%rax), %rax	# *_23, tmp107
	movq	%rax, -32(%rbp)	# tmp107, cur_expr
	.loc 1 2098 0
	movl	$0, -40(%rbp)	#, found
	.loc 1 2100 0
	jmp	.L282	#
.L284:
	.loc 1 2104 0
	movq	-32(%rbp), %rax	# cur_expr, tmp108
	movq	%rax, -24(%rbp)	# tmp108, last_expr
	.loc 1 2105 0
	movq	-32(%rbp), %rax	# cur_expr, tmp109
	movq	16(%rax), %rax	# cur_expr_3->next_same_hash, tmp110
	movq	%rax, -32(%rbp)	# tmp110, cur_expr
.L282:
	.loc 1 2100 0 discriminator 1
	cmpq	$0, -32(%rbp)	#, cur_expr
	je	.L283	#,
	.loc 1 2100 0 is_stmt 0 discriminator 2
	movq	-32(%rbp), %rax	# cur_expr, tmp111
	movq	(%rax), %rax	# cur_expr_3->expr, D.19188
	movq	-56(%rbp), %rdx	# x, tmp112
	movq	%rdx, %rsi	# tmp112,
	movq	%rax, %rdi	# D.19188,
	call	expr_equiv_p	#
	movl	%eax, -40(%rbp)	# tmp113, found
	cmpl	$0, -40(%rbp)	#, found
	je	.L284	#,
.L283:
	.loc 1 2108 0 is_stmt 1
	cmpl	$0, -40(%rbp)	#, found
	jne	.L285	#,
	.loc 1 2110 0
	movl	$48, %edi	#,
	call	gcse_alloc	#
	movq	%rax, -32(%rbp)	# tmp114, cur_expr
	.loc 1 2111 0
	movl	bytes_used(%rip), %eax	# bytes_used, bytes_used.183
	addl	$48, %eax	#, D.19193
	movl	%eax, bytes_used(%rip)	# bytes_used.185, bytes_used
	.loc 1 2112 0
	movq	set_hash_table(%rip), %rax	# set_hash_table, set_hash_table.186
	movl	-36(%rbp), %edx	# hash, D.19191
	salq	$3, %rdx	#, D.19191
	addq	%rdx, %rax	# D.19191, D.19192
	movq	(%rax), %rax	# *_38, D.19194
	testq	%rax, %rax	# D.19194
	jne	.L286	#,
	.loc 1 2114 0
	movq	set_hash_table(%rip), %rax	# set_hash_table, set_hash_table.187
	movl	-36(%rbp), %edx	# hash, D.19191
	salq	$3, %rdx	#, D.19191
	addq	%rax, %rdx	# set_hash_table.187, D.19192
	movq	-32(%rbp), %rax	# cur_expr, tmp115
	movq	%rax, (%rdx)	# tmp115, *_43
	jmp	.L287	#
.L286:
	.loc 1 2117 0
	movq	-24(%rbp), %rax	# last_expr, tmp116
	movq	-32(%rbp), %rdx	# cur_expr, tmp117
	movq	%rdx, 16(%rax)	# tmp117, last_expr_5->next_same_hash
.L287:
	.loc 1 2122 0
	movq	-56(%rbp), %rax	# x, tmp118
	movq	%rax, %rdi	# tmp118,
	call	copy_rtx	#
	movq	-32(%rbp), %rdx	# cur_expr, tmp119
	movq	%rax, (%rdx)	# D.19188, cur_expr_30->expr
	.loc 1 2123 0
	movl	n_sets(%rip), %eax	# n_sets, n_sets.188
	leal	1(%rax), %edx	#, n_sets.190
	movl	%edx, n_sets(%rip)	# n_sets.190, n_sets
	movq	-32(%rbp), %rdx	# cur_expr, tmp120
	movl	%eax, 8(%rdx)	# n_sets.189, cur_expr_30->bitmap_index
	.loc 1 2124 0
	movq	-32(%rbp), %rax	# cur_expr, tmp121
	movq	$0, 16(%rax)	#, cur_expr_30->next_same_hash
	.loc 1 2125 0
	movq	-32(%rbp), %rax	# cur_expr, tmp122
	movq	$0, 24(%rax)	#, cur_expr_30->antic_occr
	.loc 1 2126 0
	movq	-32(%rbp), %rax	# cur_expr, tmp123
	movq	$0, 32(%rax)	#, cur_expr_30->avail_occr
.L285:
	.loc 1 2130 0
	movq	-32(%rbp), %rax	# cur_expr, tmp124
	movq	32(%rax), %rax	# cur_expr_4->avail_occr, tmp125
	movq	%rax, -16(%rbp)	# tmp125, cur_occr
	.loc 1 2133 0
	jmp	.L288	#
.L290:
	.loc 1 2137 0
	movq	-16(%rbp), %rax	# cur_occr, tmp126
	movq	%rax, -8(%rbp)	# tmp126, last_occr
	.loc 1 2138 0
	movq	-16(%rbp), %rax	# cur_occr, tmp127
	movq	(%rax), %rax	# cur_occr_6->next, tmp128
	movq	%rax, -16(%rbp)	# tmp128, cur_occr
.L288:
	.loc 1 2133 0 discriminator 1
	cmpq	$0, -16(%rbp)	#, cur_occr
	je	.L289	#,
	.loc 1 2133 0 is_stmt 0 discriminator 2
	movq	basic_block_for_insn(%rip), %rax	# basic_block_for_insn, basic_block_for_insn.191
	movq	-16(%rbp), %rdx	# cur_occr, tmp129
	movq	8(%rdx), %rdx	# cur_occr_6->insn, D.19188
	movl	8(%rdx), %edx	# _50->fld[0].rtint, D.19190
	movslq	%edx, %rdx	# D.19190, tmp130
	addq	$4, %rdx	#, tmp131
	movq	(%rax,%rdx,8), %rax	# basic_block_for_insn.191_49->data.bb, D.19195
	movl	88(%rax), %ecx	# _52->index, D.19190
	movq	basic_block_for_insn(%rip), %rax	# basic_block_for_insn, basic_block_for_insn.192
	movq	-64(%rbp), %rdx	# insn, tmp132
	movl	8(%rdx), %edx	# insn_55(D)->fld[0].rtint, D.19190
	movslq	%edx, %rdx	# D.19190, tmp133
	addq	$4, %rdx	#, tmp134
	movq	(%rax,%rdx,8), %rax	# basic_block_for_insn.192_54->data.bb, D.19195
	movl	88(%rax), %eax	# _57->index, D.19190
	cmpl	%eax, %ecx	# D.19190, D.19190
	jne	.L290	#,
.L289:
	.loc 1 2141 0 is_stmt 1
	cmpq	$0, -16(%rbp)	#, cur_occr
	je	.L291	#,
	.loc 1 2145 0
	movq	-16(%rbp), %rax	# cur_occr, tmp135
	movq	-64(%rbp), %rdx	# insn, tmp136
	movq	%rdx, 8(%rax)	# tmp136, cur_occr_6->insn
	jmp	.L279	#
.L291:
	.loc 1 2149 0
	movl	$24, %edi	#,
	call	gcse_alloc	#
	movq	%rax, -16(%rbp)	# tmp137, cur_occr
	.loc 1 2150 0
	movl	bytes_used(%rip), %eax	# bytes_used, bytes_used.193
	addl	$24, %eax	#, D.19193
	movl	%eax, bytes_used(%rip)	# bytes_used.195, bytes_used
	.loc 1 2153 0
	movq	-32(%rbp), %rax	# cur_expr, tmp138
	movq	32(%rax), %rax	# cur_expr_4->avail_occr, D.19196
	testq	%rax, %rax	# D.19196
	jne	.L293	#,
	.loc 1 2154 0
	movq	-32(%rbp), %rax	# cur_expr, tmp139
	movq	-16(%rbp), %rdx	# cur_occr, tmp140
	movq	%rdx, 32(%rax)	# tmp140, cur_expr_4->avail_occr
	jmp	.L294	#
.L293:
	.loc 1 2156 0
	movq	-8(%rbp), %rax	# last_occr, tmp141
	movq	-16(%rbp), %rdx	# cur_occr, tmp142
	movq	%rdx, (%rax)	# tmp142, last_occr_7->next
.L294:
	.loc 1 2158 0
	movq	-16(%rbp), %rax	# cur_occr, tmp143
	movq	-64(%rbp), %rdx	# insn, tmp144
	movq	%rdx, 8(%rax)	# tmp144, cur_occr_61->insn
	.loc 1 2159 0
	movq	-16(%rbp), %rax	# cur_occr, tmp145
	movq	$0, (%rax)	#, cur_occr_61->next
.L279:
	.loc 1 2161 0
	leave
	.cfi_def_cfa 7, 8
	ret
	.cfi_endproc
.LFE28:
	.size	insert_set_in_table, .-insert_set_in_table
	.type	hash_scan_set, @function
hash_scan_set:
.LFB29:
	.loc 1 2171 0
	.cfi_startproc
	pushq	%rbp	#
	.cfi_def_cfa_offset 16
	.cfi_offset 6, -16
	movq	%rsp, %rbp	#,
	.cfi_def_cfa_register 6
	subq	$80, %rsp	#,
	movq	%rdi, -56(%rbp)	# pat, pat
	movq	%rsi, -64(%rbp)	# insn, insn
	movl	%edx, -68(%rbp)	# set_p, set_p
	.loc 1 2172 0
	movq	-56(%rbp), %rax	# pat, tmp123
	movq	16(%rax), %rax	# pat_5(D)->fld[1].rtx, tmp124
	movq	%rax, -32(%rbp)	# tmp124, src
	.loc 1 2173 0
	movq	-56(%rbp), %rax	# pat, tmp125
	movq	8(%rax), %rax	# pat_5(D)->fld[0].rtx, tmp126
	movq	%rax, -24(%rbp)	# tmp126, dest
	.loc 1 2176 0
	movq	-32(%rbp), %rax	# src, tmp127
	movzwl	(%rax), %eax	# src_6->code, D.19197
	cmpw	$50, %ax	#, D.19197
	jne	.L296	#,
	.loc 1 2177 0
	movq	-64(%rbp), %rdx	# insn, tmp128
	movq	-32(%rbp), %rax	# src, tmp129
	movq	%rdx, %rsi	# tmp128,
	movq	%rax, %rdi	# tmp129,
	call	hash_scan_call	#
	jmp	.L295	#
.L296:
	.loc 1 2179 0
	movq	-24(%rbp), %rax	# dest, tmp130
	movzwl	(%rax), %eax	# dest_7->code, D.19197
	cmpw	$61, %ax	#, D.19197
	jne	.L295	#,
.LBB18:
	.loc 1 2181 0
	movq	-24(%rbp), %rax	# dest, tmp131
	movl	8(%rax), %eax	# dest_7->fld[0].rtuint, tmp132
	movl	%eax, -44(%rbp)	# tmp132, regno
	.loc 1 2186 0
	cmpl	$0, -68(%rbp)	#, set_p
	je	.L298	#,
	.loc 1 2186 0 is_stmt 0 discriminator 1
	movq	-64(%rbp), %rax	# insn, tmp133
	movq	%rax, %rdi	# tmp133,
	call	find_reg_equal_equiv_note	#
	movq	%rax, -16(%rbp)	# tmp134, note
	cmpq	$0, -16(%rbp)	#, note
	je	.L298	#,
	.loc 1 2187 0 is_stmt 1
	movq	-16(%rbp), %rax	# note, tmp135
	movq	8(%rax), %rax	# note_13->fld[0].rtx, D.19198
	movzwl	(%rax), %eax	# _14->code, D.19197
	cmpw	$67, %ax	#, D.19197
	je	.L299	#,
	.loc 1 2187 0 is_stmt 0 discriminator 1
	movq	-16(%rbp), %rax	# note, tmp136
	movq	8(%rax), %rax	# note_13->fld[0].rtx, D.19198
	movzwl	(%rax), %eax	# _16->code, D.19197
	cmpw	$68, %ax	#, D.19197
	je	.L299	#,
	movq	-16(%rbp), %rax	# note, tmp137
	movq	8(%rax), %rax	# note_13->fld[0].rtx, D.19198
	movzwl	(%rax), %eax	# _18->code, D.19197
	cmpw	$54, %ax	#, D.19197
	je	.L299	#,
	movq	-16(%rbp), %rax	# note, tmp138
	movq	8(%rax), %rax	# note_13->fld[0].rtx, D.19198
	movzwl	(%rax), %eax	# _20->code, D.19197
	cmpw	$55, %ax	#, D.19197
	je	.L299	#,
	movq	-16(%rbp), %rax	# note, tmp139
	movq	8(%rax), %rax	# note_13->fld[0].rtx, D.19198
	movzwl	(%rax), %eax	# _22->code, D.19197
	cmpw	$58, %ax	#, D.19197
	je	.L299	#,
	movq	-16(%rbp), %rax	# note, tmp140
	movq	8(%rax), %rax	# note_13->fld[0].rtx, D.19198
	movzwl	(%rax), %eax	# _24->code, D.19197
	cmpw	$134, %ax	#, D.19197
	je	.L299	#,
	movq	-16(%rbp), %rax	# note, tmp141
	movq	8(%rax), %rax	# note_13->fld[0].rtx, D.19198
	movzwl	(%rax), %eax	# _26->code, D.19197
	cmpw	$56, %ax	#, D.19197
	je	.L299	#,
	movq	-16(%rbp), %rax	# note, tmp142
	movq	8(%rax), %rax	# note_13->fld[0].rtx, D.19198
	movzwl	(%rax), %eax	# _28->code, D.19197
	cmpw	$140, %ax	#, D.19197
	jne	.L298	#,
.L299:
	.loc 1 2188 0 is_stmt 1
	movq	-16(%rbp), %rax	# note, tmp143
	movq	8(%rax), %rax	# note_13->fld[0].rtx, tmp144
	movq	%rax, -32(%rbp)	# tmp144, src
	movq	-32(%rbp), %rdx	# src, tmp145
	movq	-24(%rbp), %rax	# dest, tmp146
	movq	%rdx, %rcx	# tmp145,
	movq	%rax, %rdx	# tmp146,
	movl	$0, %esi	#,
	movl	$47, %edi	#,
	call	gen_rtx_fmt_ee	#
	movq	%rax, -56(%rbp)	# tmp147, pat
.L298:
	.loc 1 2191 0
	cmpl	$0, -68(%rbp)	#, set_p
	jne	.L300	#,
	.loc 1 2192 0
	cmpl	$52, -44(%rbp)	#, regno
	jbe	.L300	#,
	.loc 1 2194 0
	movq	-24(%rbp), %rax	# dest, tmp148
	movzbl	2(%rax), %eax	# dest_7->mode, D.19199
	movzbl	%al, %eax	# D.19199, D.19200
	movl	%eax, %eax	# D.19200, tmp149
	movzbl	can_copy_p(%rax), %eax	# can_copy_p, D.19201
	testb	%al, %al	# D.19201
	je	.L300	#,
	.loc 1 2198 0
	movq	-64(%rbp), %rax	# insn, tmp150
	movq	%rax, %rdi	# tmp150,
	call	can_throw_internal	#
	xorl	$1, %eax	#, D.19202
	testb	%al, %al	# D.19202
	je	.L300	#,
	.loc 1 2200 0
	movq	-32(%rbp), %rax	# src, tmp151
	movq	%rax, %rdi	# tmp151,
	call	want_to_gcse_p	#
	testl	%eax, %eax	# D.19203
	je	.L300	#,
	.loc 1 2202 0
	movq	-56(%rbp), %rax	# pat, tmp152
	movq	%rax, %rdi	# tmp152,
	call	set_noop_p	#
	testl	%eax, %eax	# D.19203
	jne	.L300	#,
	.loc 1 2208 0
	movq	-64(%rbp), %rax	# insn, tmp153
	movl	$0, %edx	#,
	movl	$3, %esi	#,
	movq	%rax, %rdi	# tmp153,
	call	find_reg_note	#
	movq	%rax, -16(%rbp)	# tmp154, note
	cmpq	$0, -16(%rbp)	#, note
	je	.L301	#,
	.loc 1 2209 0
	movq	-16(%rbp), %rax	# note, tmp155
	movq	8(%rax), %rax	# note_39->fld[0].rtx, D.19198
	movzwl	(%rax), %eax	# _40->code, D.19197
	cmpw	$66, %ax	#, D.19197
	je	.L300	#,
.L301:
.LBB19:
	.loc 1 2214 0
	movq	-64(%rbp), %rdx	# insn, tmp156
	movq	-32(%rbp), %rax	# src, tmp157
	movq	%rdx, %rsi	# tmp156,
	movq	%rax, %rdi	# tmp157,
	call	oprs_anticipatable_p	#
	testl	%eax, %eax	# D.19203
	je	.L302	#,
	.loc 1 2214 0 is_stmt 0 discriminator 1
	movq	-64(%rbp), %rax	# insn, tmp158
	movzwl	(%rax), %eax	# insn_9(D)->code, D.19197
	movzwl	%ax, %eax	# D.19197, D.19203
	cltq
	movzbl	rtx_class(%rax), %eax	# rtx_class, D.19201
	cmpb	$105, %al	#, D.19201
	jne	.L302	#,
	.loc 1 2214 0 discriminator 3
	movq	-64(%rbp), %rax	# insn, tmp160
	movq	32(%rax), %rax	# insn_9(D)->fld[3].rtx, D.19198
	movzwl	(%rax), %eax	# _46->code, D.19197
	cmpw	$47, %ax	#, D.19197
	jne	.L303	#,
	.loc 1 2214 0 discriminator 5
	movq	-64(%rbp), %rax	# insn, tmp161
	movq	32(%rax), %rax	# insn_9(D)->fld[3].rtx, D.19198
	testq	%rax, %rax	# D.19198
	jne	.L304	#,
	jmp	.L302	#
.L303:
	.loc 1 2214 0 discriminator 6
	movq	-64(%rbp), %rax	# insn, tmp162
	movq	32(%rax), %rdx	# insn_9(D)->fld[3].rtx, D.19198
	movq	-64(%rbp), %rax	# insn, tmp163
	movq	%rdx, %rsi	# D.19198,
	movq	%rax, %rdi	# tmp163,
	call	single_set_2	#
	testq	%rax, %rax	# D.19198
	je	.L302	#,
.L304:
	.loc 1 2214 0 discriminator 7
	movl	$1, %eax	#, iftmp.196
	jmp	.L305	#
.L302:
	.loc 1 2214 0 discriminator 2
	movl	$0, %eax	#, iftmp.196
.L305:
	.loc 1 2214 0 discriminator 8
	movl	%eax, -40(%rbp)	# iftmp.196, antic_p
	.loc 1 2219 0 is_stmt 1 discriminator 8
	movq	-64(%rbp), %rdx	# insn, tmp164
	movq	-32(%rbp), %rax	# src, tmp165
	movq	%rdx, %rsi	# tmp164,
	movq	%rax, %rdi	# tmp165,
	call	oprs_available_p	#
	.loc 1 2220 0 discriminator 8
	testl	%eax, %eax	# D.19203
	je	.L306	#,
	.loc 1 2220 0 is_stmt 0 discriminator 1
	movq	-64(%rbp), %rax	# insn, tmp166
	movzwl	(%rax), %eax	# insn_9(D)->code, D.19197
	cmpw	$33, %ax	#, D.19197
	je	.L306	#,
	.loc 1 2220 0 discriminator 3
	movl	$1, %eax	#, iftmp.197
	jmp	.L307	#
.L306:
	.loc 1 2220 0 discriminator 2
	movl	$0, %eax	#, iftmp.197
.L307:
	.loc 1 2219 0 is_stmt 1
	movl	%eax, -36(%rbp)	# iftmp.197, avail_p
	.loc 1 2222 0
	movq	-24(%rbp), %rax	# dest, tmp167
	movzbl	2(%rax), %eax	# dest_7->mode, D.19199
	movzbl	%al, %esi	# D.19199, D.19204
	movl	-36(%rbp), %edi	# avail_p, tmp168
	movl	-40(%rbp), %ecx	# antic_p, tmp169
	movq	-64(%rbp), %rdx	# insn, tmp170
	movq	-32(%rbp), %rax	# src, tmp171
	movl	%edi, %r8d	# tmp168,
	movq	%rax, %rdi	# tmp171,
	call	insert_expr_in_table	#
.LBE19:
	.loc 1 2210 0
	jmp	.L295	#
.L300:
	.loc 1 2226 0
	cmpl	$0, -68(%rbp)	#, set_p
	je	.L295	#,
	.loc 1 2227 0
	cmpl	$52, -44(%rbp)	#, regno
	jbe	.L295	#,
	.loc 1 2228 0
	movq	-32(%rbp), %rax	# src, tmp172
	movzwl	(%rax), %eax	# src_2->code, D.19197
	cmpw	$61, %ax	#, D.19197
	jne	.L308	#,
	.loc 1 2229 0
	movq	-32(%rbp), %rax	# src, tmp173
	movl	8(%rax), %eax	# src_2->fld[0].rtuint, D.19200
	cmpl	$52, %eax	#, D.19200
	jbe	.L308	#,
	.loc 1 2230 0
	movq	-24(%rbp), %rax	# dest, tmp174
	movzbl	2(%rax), %eax	# dest_7->mode, D.19199
	movzbl	%al, %eax	# D.19199, D.19200
	movl	%eax, %eax	# D.19200, tmp175
	movzbl	can_copy_p(%rax), %eax	# can_copy_p, D.19201
	testb	%al, %al	# D.19201
	je	.L308	#,
	.loc 1 2231 0
	movq	-32(%rbp), %rax	# src, tmp176
	movl	8(%rax), %eax	# src_2->fld[0].rtuint, D.19200
	cmpl	-44(%rbp), %eax	# regno, D.19200
	jne	.L309	#,
.L308:
	.loc 1 2232 0
	movq	-32(%rbp), %rax	# src, tmp177
	movzwl	(%rax), %eax	# src_2->code, D.19197
	cmpw	$67, %ax	#, D.19197
	je	.L309	#,
	.loc 1 2232 0 is_stmt 0 discriminator 1
	movq	-32(%rbp), %rax	# src, tmp178
	movzwl	(%rax), %eax	# src_2->code, D.19197
	cmpw	$68, %ax	#, D.19197
	je	.L309	#,
	movq	-32(%rbp), %rax	# src, tmp179
	movzwl	(%rax), %eax	# src_2->code, D.19197
	cmpw	$54, %ax	#, D.19197
	je	.L309	#,
	movq	-32(%rbp), %rax	# src, tmp180
	movzwl	(%rax), %eax	# src_2->code, D.19197
	cmpw	$55, %ax	#, D.19197
	je	.L309	#,
	movq	-32(%rbp), %rax	# src, tmp181
	movzwl	(%rax), %eax	# src_2->code, D.19197
	cmpw	$58, %ax	#, D.19197
	je	.L309	#,
	movq	-32(%rbp), %rax	# src, tmp182
	movzwl	(%rax), %eax	# src_2->code, D.19197
	cmpw	$134, %ax	#, D.19197
	je	.L309	#,
	movq	-32(%rbp), %rax	# src, tmp183
	movzwl	(%rax), %eax	# src_2->code, D.19197
	cmpw	$56, %ax	#, D.19197
	je	.L309	#,
	movq	-32(%rbp), %rax	# src, tmp184
	movzwl	(%rax), %eax	# src_2->code, D.19197
	cmpw	$140, %ax	#, D.19197
	jne	.L295	#,
.L309:
	.loc 1 2236 0 is_stmt 1
	movq	basic_block_info(%rip), %rax	# basic_block_info, basic_block_info.198
	movq	basic_block_for_insn(%rip), %rdx	# basic_block_for_insn, basic_block_for_insn.199
	movq	-64(%rbp), %rcx	# insn, tmp185
	movl	8(%rcx), %ecx	# insn_9(D)->fld[0].rtint, D.19203
	movslq	%ecx, %rcx	# D.19203, tmp186
	addq	$4, %rcx	#, tmp187
	movq	(%rdx,%rcx,8), %rdx	# basic_block_for_insn.199_76->data.bb, D.19205
	movl	88(%rdx), %edx	# _78->index, D.19203
	movslq	%edx, %rdx	# D.19203, tmp188
	addq	$4, %rdx	#, tmp189
	movq	(%rax,%rdx,8), %rax	# basic_block_info.198_75->data.bb, D.19205
	movq	8(%rax), %rax	# _80->end, D.19198
	cmpq	-64(%rbp), %rax	# insn, D.19198
	je	.L310	#,
	.loc 1 2237 0
	movq	-64(%rbp), %rax	# insn, tmp190
	movq	%rax, %rdi	# tmp190,
	call	next_nonnote_insn	#
	movq	%rax, -8(%rbp)	# tmp191, tmp
	cmpq	$0, -8(%rbp)	#, tmp
	je	.L295	#,
	.loc 1 2238 0
	movq	-8(%rbp), %rdx	# tmp, tmp192
	movq	-56(%rbp), %rax	# pat, tmp193
	movq	%rdx, %rsi	# tmp192,
	movq	%rax, %rdi	# tmp193,
	call	oprs_available_p	#
	testl	%eax, %eax	# D.19203
	je	.L295	#,
.L310:
	.loc 1 2239 0
	movq	-64(%rbp), %rdx	# insn, tmp194
	movq	-56(%rbp), %rax	# pat, tmp195
	movq	%rdx, %rsi	# tmp194,
	movq	%rax, %rdi	# tmp195,
	call	insert_set_in_table	#
.L295:
.LBE18:
	.loc 1 2241 0
	leave
	.cfi_def_cfa 7, 8
	ret
	.cfi_endproc
.LFE29:
	.size	hash_scan_set, .-hash_scan_set
	.type	hash_scan_clobber, @function
hash_scan_clobber:
.LFB30:
	.loc 1 2246 0
	.cfi_startproc
	pushq	%rbp	#
	.cfi_def_cfa_offset 16
	.cfi_offset 6, -16
	movq	%rsp, %rbp	#,
	.cfi_def_cfa_register 6
	movq	%rdi, -8(%rbp)	# x, x
	movq	%rsi, -16(%rbp)	# insn, insn
	.loc 1 2248 0
	popq	%rbp	#
	.cfi_def_cfa 7, 8
	ret
	.cfi_endproc
.LFE30:
	.size	hash_scan_clobber, .-hash_scan_clobber
	.type	hash_scan_call, @function
hash_scan_call:
.LFB31:
	.loc 1 2253 0
	.cfi_startproc
	pushq	%rbp	#
	.cfi_def_cfa_offset 16
	.cfi_offset 6, -16
	movq	%rsp, %rbp	#,
	.cfi_def_cfa_register 6
	movq	%rdi, -8(%rbp)	# x, x
	movq	%rsi, -16(%rbp)	# insn, insn
	.loc 1 2255 0
	popq	%rbp	#
	.cfi_def_cfa 7, 8
	ret
	.cfi_endproc
.LFE31:
	.size	hash_scan_call, .-hash_scan_call
	.type	hash_scan_insn, @function
hash_scan_insn:
.LFB32:
	.loc 1 2275 0
	.cfi_startproc
	pushq	%rbp	#
	.cfi_def_cfa_offset 16
	.cfi_offset 6, -16
	movq	%rsp, %rbp	#,
	.cfi_def_cfa_register 6
	subq	$48, %rsp	#,
	movq	%rdi, -40(%rbp)	# insn, insn
	movl	%esi, -44(%rbp)	# set_p, set_p
	movl	%edx, -48(%rbp)	# in_libcall_block, in_libcall_block
	.loc 1 2276 0
	movq	-40(%rbp), %rax	# insn, tmp69
	movq	32(%rax), %rax	# insn_2(D)->fld[3].rtx, tmp70
	movq	%rax, -16(%rbp)	# tmp70, pat
	.loc 1 2279 0
	cmpl	$0, -48(%rbp)	#, in_libcall_block
	je	.L314	#,
	.loc 1 2280 0
	jmp	.L313	#
.L314:
	.loc 1 2285 0
	movq	-16(%rbp), %rax	# pat, tmp71
	movzwl	(%rax), %eax	# pat_3->code, D.19206
	cmpw	$47, %ax	#, D.19206
	jne	.L316	#,
	.loc 1 2286 0
	movl	-44(%rbp), %edx	# set_p, tmp72
	movq	-40(%rbp), %rcx	# insn, tmp73
	movq	-16(%rbp), %rax	# pat, tmp74
	movq	%rcx, %rsi	# tmp73,
	movq	%rax, %rdi	# tmp74,
	call	hash_scan_set	#
	jmp	.L313	#
.L316:
	.loc 1 2287 0
	movq	-16(%rbp), %rax	# pat, tmp75
	movzwl	(%rax), %eax	# pat_3->code, D.19206
	cmpw	$39, %ax	#, D.19206
	jne	.L317	#,
	.loc 1 2288 0
	movl	$0, -20(%rbp)	#, i
	jmp	.L318	#
.L322:
.LBB20:
	.loc 1 2290 0
	movq	-16(%rbp), %rax	# pat, tmp76
	movq	8(%rax), %rax	# pat_3->fld[0].rtvec, D.19207
	movl	-20(%rbp), %edx	# i, tmp78
	movslq	%edx, %rdx	# tmp78, tmp77
	movq	8(%rax,%rdx,8), %rax	# _11->elem, tmp79
	movq	%rax, -8(%rbp)	# tmp79, x
	.loc 1 2292 0
	movq	-8(%rbp), %rax	# x, tmp80
	movzwl	(%rax), %eax	# x_12->code, D.19206
	cmpw	$47, %ax	#, D.19206
	jne	.L319	#,
	.loc 1 2293 0
	movl	-44(%rbp), %edx	# set_p, tmp81
	movq	-40(%rbp), %rcx	# insn, tmp82
	movq	-8(%rbp), %rax	# x, tmp83
	movq	%rcx, %rsi	# tmp82,
	movq	%rax, %rdi	# tmp83,
	call	hash_scan_set	#
	jmp	.L320	#
.L319:
	.loc 1 2294 0
	movq	-8(%rbp), %rax	# x, tmp84
	movzwl	(%rax), %eax	# x_12->code, D.19206
	cmpw	$49, %ax	#, D.19206
	jne	.L321	#,
	.loc 1 2295 0
	movq	-40(%rbp), %rdx	# insn, tmp85
	movq	-8(%rbp), %rax	# x, tmp86
	movq	%rdx, %rsi	# tmp85,
	movq	%rax, %rdi	# tmp86,
	call	hash_scan_clobber	#
	jmp	.L320	#
.L321:
	.loc 1 2296 0
	movq	-8(%rbp), %rax	# x, tmp87
	movzwl	(%rax), %eax	# x_12->code, D.19206
	cmpw	$50, %ax	#, D.19206
	jne	.L320	#,
	.loc 1 2297 0
	movq	-40(%rbp), %rdx	# insn, tmp88
	movq	-8(%rbp), %rax	# x, tmp89
	movq	%rdx, %rsi	# tmp88,
	movq	%rax, %rdi	# tmp89,
	call	hash_scan_call	#
.L320:
.LBE20:
	.loc 1 2288 0
	addl	$1, -20(%rbp)	#, i
.L318:
	.loc 1 2288 0 is_stmt 0 discriminator 1
	movq	-16(%rbp), %rax	# pat, tmp90
	movq	8(%rax), %rax	# pat_3->fld[0].rtvec, D.19207
	movl	(%rax), %eax	# _9->num_elem, D.19208
	cmpl	-20(%rbp), %eax	# i, D.19208
	jg	.L322	#,
	jmp	.L313	#
.L317:
	.loc 1 2300 0 is_stmt 1
	movq	-16(%rbp), %rax	# pat, tmp91
	movzwl	(%rax), %eax	# pat_3->code, D.19206
	cmpw	$49, %ax	#, D.19206
	jne	.L323	#,
	.loc 1 2301 0
	movq	-40(%rbp), %rdx	# insn, tmp92
	movq	-16(%rbp), %rax	# pat, tmp93
	movq	%rdx, %rsi	# tmp92,
	movq	%rax, %rdi	# tmp93,
	call	hash_scan_clobber	#
	jmp	.L313	#
.L323:
	.loc 1 2302 0
	movq	-16(%rbp), %rax	# pat, tmp94
	movzwl	(%rax), %eax	# pat_3->code, D.19206
	cmpw	$50, %ax	#, D.19206
	jne	.L313	#,
	.loc 1 2303 0
	movq	-40(%rbp), %rdx	# insn, tmp95
	movq	-16(%rbp), %rax	# pat, tmp96
	movq	%rdx, %rsi	# tmp95,
	movq	%rax, %rdi	# tmp96,
	call	hash_scan_call	#
.L313:
	.loc 1 2304 0
	leave
	.cfi_def_cfa 7, 8
	ret
	.cfi_endproc
.LFE32:
	.size	hash_scan_insn, .-hash_scan_insn
	.section	.rodata
	.align 8
.LC8:
	.string	"%s hash table (%d buckets, %d entries)\n"
.LC9:
	.string	"Index %d (hash value %d)\n  "
	.text
	.type	dump_hash_table, @function
dump_hash_table:
.LFB33:
	.loc 1 2312 0
	.cfi_startproc
	pushq	%rbp	#
	.cfi_def_cfa_offset 16
	.cfi_offset 6, -16
	movq	%rsp, %rbp	#,
	.cfi_def_cfa_register 6
	subq	$64, %rsp	#,
	movq	%rdi, -40(%rbp)	# file, file
	movq	%rsi, -48(%rbp)	# name, name
	movq	%rdx, -56(%rbp)	# table, table
	movl	%ecx, -60(%rbp)	# table_size, table_size
	movl	%r8d, -64(%rbp)	# total_size, total_size
	.loc 1 2320 0
	movl	-64(%rbp), %eax	# total_size, tmp87
	cltq
	movl	$8, %esi	#,
	movq	%rax, %rdi	# D.19209,
	call	xcalloc	#
	movq	%rax, -16(%rbp)	# tmp88, flat_table
	.loc 1 2321 0
	movl	-64(%rbp), %eax	# total_size, tmp89
	cltq
	salq	$2, %rax	#, D.19209
	movq	%rax, %rdi	# D.19209,
	call	xmalloc	#
	movq	%rax, -8(%rbp)	# tmp90, hash_val
	.loc 1 2323 0
	movl	$0, -28(%rbp)	#, i
	jmp	.L325	#
.L328:
	.loc 1 2324 0
	movl	-28(%rbp), %eax	# i, tmp91
	cltq
	leaq	0(,%rax,8), %rdx	#, D.19209
	movq	-56(%rbp), %rax	# table, tmp92
	addq	%rdx, %rax	# D.19209, D.19210
	movq	(%rax), %rax	# *_15, tmp93
	movq	%rax, -24(%rbp)	# tmp93, expr
	jmp	.L326	#
.L327:
	.loc 1 2326 0 discriminator 2
	movq	-24(%rbp), %rax	# expr, tmp94
	movl	8(%rax), %eax	# expr_3->bitmap_index, D.19211
	cltq
	leaq	0(,%rax,8), %rdx	#, D.19209
	movq	-16(%rbp), %rax	# flat_table, tmp95
	addq	%rax, %rdx	# tmp95, D.19210
	movq	-24(%rbp), %rax	# expr, tmp96
	movq	%rax, (%rdx)	# tmp96, *_20
	.loc 1 2327 0 discriminator 2
	movq	-24(%rbp), %rax	# expr, tmp97
	movl	8(%rax), %eax	# expr_3->bitmap_index, D.19211
	cltq
	leaq	0(,%rax,4), %rdx	#, D.19209
	movq	-8(%rbp), %rax	# hash_val, tmp98
	addq	%rax, %rdx	# tmp98, D.19212
	movl	-28(%rbp), %eax	# i, i.200
	movl	%eax, (%rdx)	# i.200, *_24
	.loc 1 2324 0 discriminator 2
	movq	-24(%rbp), %rax	# expr, tmp99
	movq	16(%rax), %rax	# expr_3->next_same_hash, tmp100
	movq	%rax, -24(%rbp)	# tmp100, expr
.L326:
	.loc 1 2324 0 is_stmt 0 discriminator 1
	cmpq	$0, -24(%rbp)	#, expr
	jne	.L327	#,
	.loc 1 2323 0 is_stmt 1
	addl	$1, -28(%rbp)	#, i
.L325:
	.loc 1 2323 0 is_stmt 0 discriminator 1
	movl	-28(%rbp), %eax	# i, tmp101
	cmpl	-60(%rbp), %eax	# table_size, tmp101
	jl	.L328	#,
	.loc 1 2330 0 is_stmt 1
	movl	-64(%rbp), %esi	# total_size, tmp102
	movl	-60(%rbp), %ecx	# table_size, tmp103
	movq	-48(%rbp), %rdx	# name, tmp104
	movq	-40(%rbp), %rax	# file, tmp105
	movl	%esi, %r8d	# tmp102,
	movl	$.LC8, %esi	#,
	movq	%rax, %rdi	# tmp105,
	movl	$0, %eax	#,
	call	fprintf	#
	.loc 1 2333 0
	movl	$0, -28(%rbp)	#, i
	jmp	.L329	#
.L331:
	.loc 1 2334 0
	movl	-28(%rbp), %eax	# i, tmp106
	cltq
	leaq	0(,%rax,8), %rdx	#, D.19209
	movq	-16(%rbp), %rax	# flat_table, tmp107
	addq	%rdx, %rax	# D.19209, D.19210
	movq	(%rax), %rax	# *_33, D.19213
	testq	%rax, %rax	# D.19213
	je	.L330	#,
	.loc 1 2336 0
	movl	-28(%rbp), %eax	# i, tmp108
	cltq
	leaq	0(,%rax,8), %rdx	#, D.19209
	movq	-16(%rbp), %rax	# flat_table, tmp109
	addq	%rdx, %rax	# D.19209, D.19210
	movq	(%rax), %rax	# *_37, tmp110
	movq	%rax, -24(%rbp)	# tmp110, expr
	.loc 1 2338 0
	movl	-28(%rbp), %eax	# i, tmp111
	cltq
	leaq	0(,%rax,4), %rdx	#, D.19209
	movq	-8(%rbp), %rax	# hash_val, tmp112
	addq	%rdx, %rax	# D.19209, D.19212
	.loc 1 2337 0
	movl	(%rax), %ecx	# *_41, D.19214
	movq	-24(%rbp), %rax	# expr, tmp113
	movl	8(%rax), %edx	# expr_38->bitmap_index, D.19211
	movq	-40(%rbp), %rax	# file, tmp114
	movl	$.LC9, %esi	#,
	movq	%rax, %rdi	# tmp114,
	movl	$0, %eax	#,
	call	fprintf	#
	.loc 1 2339 0
	movq	-24(%rbp), %rax	# expr, tmp115
	movq	(%rax), %rdx	# expr_38->expr, D.19215
	movq	-40(%rbp), %rax	# file, tmp116
	movq	%rdx, %rsi	# D.19215,
	movq	%rax, %rdi	# tmp116,
	call	print_rtl	#
	.loc 1 2340 0
	movq	-40(%rbp), %rax	# file, tmp117
	movq	%rax, %rsi	# tmp117,
	movl	$10, %edi	#,
	call	fputc	#
.L330:
	.loc 1 2333 0
	addl	$1, -28(%rbp)	#, i
.L329:
	.loc 1 2333 0 is_stmt 0 discriminator 1
	movl	-28(%rbp), %eax	# i, tmp118
	cmpl	-64(%rbp), %eax	# total_size, tmp118
	jl	.L331	#,
	.loc 1 2343 0 is_stmt 1
	movq	-40(%rbp), %rax	# file, tmp119
	movq	%rax, %rsi	# tmp119,
	movl	$10, %edi	#,
	call	fputc	#
	.loc 1 2345 0
	movq	-16(%rbp), %rax	# flat_table, tmp120
	movq	%rax, %rdi	# tmp120,
	call	free	#
	.loc 1 2346 0
	movq	-8(%rbp), %rax	# hash_val, tmp121
	movq	%rax, %rdi	# tmp121,
	call	free	#
	.loc 1 2347 0
	leave
	.cfi_def_cfa 7, 8
	ret
	.cfi_endproc
.LFE33:
	.size	dump_hash_table, .-dump_hash_table
	.type	record_last_reg_set_info, @function
record_last_reg_set_info:
.LFB34:
	.loc 1 2367 0
	.cfi_startproc
	pushq	%rbp	#
	.cfi_def_cfa_offset 16
	.cfi_offset 6, -16
	movq	%rsp, %rbp	#,
	.cfi_def_cfa_register 6
	movq	%rdi, -24(%rbp)	# insn, insn
	movl	%esi, -28(%rbp)	# regno, regno
	.loc 1 2368 0
	movq	reg_avail_info(%rip), %rcx	# reg_avail_info, reg_avail_info.201
	movl	-28(%rbp), %eax	# regno, tmp88
	movslq	%eax, %rdx	# tmp88, D.19218
	movq	%rdx, %rax	# D.19218, tmp89
	addq	%rax, %rax	# tmp89
	addq	%rdx, %rax	# D.19218, tmp89
	salq	$2, %rax	#, tmp90
	addq	%rcx, %rax	# reg_avail_info.201, tmp91
	movq	%rax, -8(%rbp)	# tmp91, info
	.loc 1 2369 0
	movq	uid_cuid(%rip), %rdx	# uid_cuid, uid_cuid.202
	movq	-24(%rbp), %rax	# insn, tmp92
	movl	8(%rax), %eax	# insn_7(D)->fld[0].rtint, D.19219
	cltq
	salq	$2, %rax	#, D.19218
	addq	%rdx, %rax	# uid_cuid.202, D.19220
	movl	(%rax), %eax	# *_11, tmp93
	movl	%eax, -12(%rbp)	# tmp93, cuid
	.loc 1 2371 0
	movq	-8(%rbp), %rax	# info, tmp94
	movl	-12(%rbp), %edx	# cuid, tmp95
	movl	%edx, 8(%rax)	# tmp95, info_5->last_set
	.loc 1 2372 0
	movq	-8(%rbp), %rax	# info, tmp96
	movl	(%rax), %edx	# info_5->last_bb, D.19219
	movl	current_bb(%rip), %eax	# current_bb, current_bb.203
	cmpl	%eax, %edx	# current_bb.203, D.19219
	je	.L332	#,
	.loc 1 2374 0
	movl	current_bb(%rip), %edx	# current_bb, current_bb.204
	movq	-8(%rbp), %rax	# info, tmp97
	movl	%edx, (%rax)	# current_bb.204, info_5->last_bb
	.loc 1 2375 0
	movq	-8(%rbp), %rax	# info, tmp98
	movl	-12(%rbp), %edx	# cuid, tmp99
	movl	%edx, 4(%rax)	# tmp99, info_5->first_set
	.loc 1 2376 0
	movq	reg_set_in_block(%rip), %rax	# reg_set_in_block, reg_set_in_block.205
	movl	current_bb(%rip), %edx	# current_bb, current_bb.206
	movslq	%edx, %rdx	# current_bb.206, D.19218
	salq	$3, %rdx	#, D.19218
	addq	%rdx, %rax	# D.19218, D.19221
	movq	(%rax), %rdx	# *_20, D.19222
	movl	-28(%rbp), %eax	# regno, regno.207
	shrl	$6, %eax	#, D.19223
	movq	reg_set_in_block(%rip), %rcx	# reg_set_in_block, reg_set_in_block.208
	movl	current_bb(%rip), %esi	# current_bb, current_bb.209
	movslq	%esi, %rsi	# current_bb.209, D.19218
	salq	$3, %rsi	#, D.19218
	addq	%rsi, %rcx	# D.19218, D.19221
	movq	(%rcx), %rcx	# *_28, D.19222
	movl	%eax, %esi	# D.19223, tmp100
	addq	$2, %rsi	#, tmp101
	movq	(%rcx,%rsi,8), %rsi	# _29->elms, D.19218
	movl	-28(%rbp), %ecx	# regno, tmp102
	andl	$63, %ecx	#, D.19219
	movl	$1, %edi	#, tmp103
	salq	%cl, %rdi	# D.19219, D.19218
	movq	%rdi, %rcx	# D.19218, D.19218
	orq	%rsi, %rcx	# D.19218, D.19218
	movl	%eax, %eax	# D.19223, tmp104
	addq	$2, %rax	#, tmp105
	movq	%rcx, (%rdx,%rax,8)	# D.19218, _21->elms
.L332:
	.loc 1 2378 0
	popq	%rbp	#
	.cfi_def_cfa 7, 8
	ret
	.cfi_endproc
.LFE34:
	.size	record_last_reg_set_info, .-record_last_reg_set_info
	.type	canon_list_insert, @function
canon_list_insert:
.LFB35:
	.loc 1 2390 0
	.cfi_startproc
	pushq	%rbp	#
	.cfi_def_cfa_offset 16
	.cfi_offset 6, -16
	movq	%rsp, %rbp	#,
	.cfi_def_cfa_register 6
	pushq	%rbx	#
	subq	$72, %rsp	#,
	.cfi_offset 3, -24
	movq	%rdi, -56(%rbp)	# dest, dest
	movq	%rsi, -64(%rbp)	# unused1, unused1
	movq	%rdx, -72(%rbp)	# v_insn, v_insn
	.loc 1 2394 0
	jmp	.L335	#
.L336:
	.loc 1 2398 0
	movq	-56(%rbp), %rax	# dest, tmp89
	movq	8(%rax), %rax	# dest_1->fld[0].rtx, tmp90
	movq	%rax, -56(%rbp)	# tmp90, dest
.L335:
	.loc 1 2394 0 discriminator 1
	movq	-56(%rbp), %rax	# dest, tmp91
	movzwl	(%rax), %eax	# dest_1->code, D.19224
	cmpw	$63, %ax	#, D.19224
	je	.L336	#,
	.loc 1 2395 0
	movq	-56(%rbp), %rax	# dest, tmp92
	movzwl	(%rax), %eax	# dest_1->code, D.19224
	cmpw	$133, %ax	#, D.19224
	je	.L336	#,
	.loc 1 2396 0
	movq	-56(%rbp), %rax	# dest, tmp93
	movzwl	(%rax), %eax	# dest_1->code, D.19224
	cmpw	$132, %ax	#, D.19224
	je	.L336	#,
	.loc 1 2397 0
	movq	-56(%rbp), %rax	# dest, tmp94
	movzwl	(%rax), %eax	# dest_1->code, D.19224
	cmpw	$64, %ax	#, D.19224
	je	.L336	#,
	.loc 1 2404 0
	movq	-56(%rbp), %rax	# dest, tmp95
	movzwl	(%rax), %eax	# dest_1->code, D.19224
	cmpw	$66, %ax	#, D.19224
	je	.L337	#,
	.loc 1 2405 0
	jmp	.L334	#
.L337:
	.loc 1 2407 0
	movq	-56(%rbp), %rax	# dest, tmp96
	movq	8(%rax), %rax	# dest_1->fld[0].rtx, D.19225
	movq	%rax, %rdi	# D.19225,
	call	get_addr	#
	movq	%rax, -32(%rbp)	# tmp97, dest_addr
	.loc 1 2408 0
	movq	-32(%rbp), %rax	# dest_addr, tmp98
	movq	%rax, %rdi	# tmp98,
	call	canon_rtx	#
	movq	%rax, -32(%rbp)	# tmp99, dest_addr
	.loc 1 2409 0
	movq	-72(%rbp), %rax	# v_insn, tmp100
	movq	%rax, -24(%rbp)	# tmp100, insn
	.loc 1 2410 0
	movq	basic_block_for_insn(%rip), %rax	# basic_block_for_insn, basic_block_for_insn.210
	movq	-24(%rbp), %rdx	# insn, tmp101
	movl	8(%rdx), %edx	# insn_12->fld[0].rtint, D.19226
	movslq	%edx, %rdx	# D.19226, tmp102
	addq	$4, %rdx	#, tmp103
	movq	(%rax,%rdx,8), %rax	# basic_block_for_insn.210_13->data.bb, D.19227
	movl	88(%rax), %eax	# _15->index, tmp104
	movl	%eax, -36(%rbp)	# tmp104, bb
	.loc 1 2412 0
	movq	canon_modify_mem_list(%rip), %rax	# canon_modify_mem_list, canon_modify_mem_list.211
	movl	-36(%rbp), %edx	# bb, tmp105
	movslq	%edx, %rdx	# tmp105, D.19228
	salq	$3, %rdx	#, D.19228
	leaq	(%rax,%rdx), %rbx	#, D.19229
	.loc 1 2413 0
	movq	canon_modify_mem_list(%rip), %rax	# canon_modify_mem_list, canon_modify_mem_list.212
	movl	-36(%rbp), %edx	# bb, tmp106
	movslq	%edx, %rdx	# tmp106, D.19228
	salq	$3, %rdx	#, D.19228
	addq	%rdx, %rax	# D.19228, D.19229
	movq	(%rax), %rdx	# *_24, D.19225
	movq	-32(%rbp), %rax	# dest_addr, tmp107
	movq	%rax, %rsi	# tmp107,
	movl	$0, %edi	#,
	call	alloc_EXPR_LIST	#
	.loc 1 2412 0
	movq	%rax, (%rbx)	# D.19225, *_20
	.loc 1 2414 0
	movq	canon_modify_mem_list(%rip), %rax	# canon_modify_mem_list, canon_modify_mem_list.213
	movl	-36(%rbp), %edx	# bb, tmp108
	movslq	%edx, %rdx	# tmp108, D.19228
	salq	$3, %rdx	#, D.19228
	leaq	(%rax,%rdx), %rbx	#, D.19229
	.loc 1 2415 0
	movq	canon_modify_mem_list(%rip), %rax	# canon_modify_mem_list, canon_modify_mem_list.214
	movl	-36(%rbp), %edx	# bb, tmp109
	movslq	%edx, %rdx	# tmp109, D.19228
	salq	$3, %rdx	#, D.19228
	addq	%rdx, %rax	# D.19228, D.19229
	movq	(%rax), %rdx	# *_34, D.19225
	movq	-56(%rbp), %rax	# dest, tmp110
	movq	%rax, %rsi	# tmp110,
	movl	$0, %edi	#,
	call	alloc_EXPR_LIST	#
	.loc 1 2414 0
	movq	%rax, (%rbx)	# D.19225, *_30
	.loc 1 2416 0
	movq	canon_modify_mem_list_set(%rip), %rax	# canon_modify_mem_list_set, canon_modify_mem_list_set.215
	movl	-36(%rbp), %edx	# bb, tmp111
	movl	%edx, %esi	# tmp111,
	movq	%rax, %rdi	# canon_modify_mem_list_set.215,
	call	bitmap_set_bit	#
.L334:
	.loc 1 2417 0
	addq	$72, %rsp	#,
	popq	%rbx	#
	popq	%rbp	#
	.cfi_def_cfa 7, 8
	ret
	.cfi_endproc
.LFE35:
	.size	canon_list_insert, .-canon_list_insert
	.type	record_last_mem_set_info, @function
record_last_mem_set_info:
.LFB36:
	.loc 1 2426 0
	.cfi_startproc
	pushq	%rbp	#
	.cfi_def_cfa_offset 16
	.cfi_offset 6, -16
	movq	%rsp, %rbp	#,
	.cfi_def_cfa_register 6
	pushq	%rbx	#
	subq	$40, %rsp	#,
	.cfi_offset 3, -24
	movq	%rdi, -40(%rbp)	# insn, insn
	.loc 1 2427 0
	movq	basic_block_for_insn(%rip), %rax	# basic_block_for_insn, basic_block_for_insn.216
	movq	-40(%rbp), %rdx	# insn, tmp86
	movl	8(%rdx), %edx	# insn_2(D)->fld[0].rtint, D.19230
	movslq	%edx, %rdx	# D.19230, tmp87
	addq	$4, %rdx	#, tmp88
	movq	(%rax,%rdx,8), %rax	# basic_block_for_insn.216_1->data.bb, D.19231
	movl	88(%rax), %eax	# _4->index, tmp89
	movl	%eax, -20(%rbp)	# tmp89, bb
	.loc 1 2431 0
	movq	modify_mem_list(%rip), %rax	# modify_mem_list, modify_mem_list.217
	movl	-20(%rbp), %edx	# bb, tmp90
	movslq	%edx, %rdx	# tmp90, D.19232
	salq	$3, %rdx	#, D.19232
	leaq	(%rax,%rdx), %rbx	#, D.19233
	movq	modify_mem_list(%rip), %rax	# modify_mem_list, modify_mem_list.218
	movl	-20(%rbp), %edx	# bb, tmp91
	movslq	%edx, %rdx	# tmp91, D.19232
	salq	$3, %rdx	#, D.19232
	addq	%rdx, %rax	# D.19232, D.19233
	movq	(%rax), %rdx	# *_13, D.19234
	movq	-40(%rbp), %rax	# insn, tmp92
	movq	%rdx, %rsi	# D.19234,
	movq	%rax, %rdi	# tmp92,
	call	alloc_INSN_LIST	#
	movq	%rax, (%rbx)	# D.19234, *_9
	.loc 1 2432 0
	movq	modify_mem_list_set(%rip), %rax	# modify_mem_list_set, modify_mem_list_set.219
	movl	-20(%rbp), %edx	# bb, tmp93
	movl	%edx, %esi	# tmp93,
	movq	%rax, %rdi	# modify_mem_list_set.219,
	call	bitmap_set_bit	#
	.loc 1 2434 0
	movq	-40(%rbp), %rax	# insn, tmp94
	movzwl	(%rax), %eax	# insn_2(D)->code, D.19235
	cmpw	$34, %ax	#, D.19235
	jne	.L340	#,
	.loc 1 2439 0
	movq	canon_modify_mem_list(%rip), %rax	# canon_modify_mem_list, canon_modify_mem_list.220
	movl	-20(%rbp), %edx	# bb, tmp95
	movslq	%edx, %rdx	# tmp95, D.19232
	salq	$3, %rdx	#, D.19232
	leaq	(%rax,%rdx), %rbx	#, D.19233
	.loc 1 2440 0
	movq	canon_modify_mem_list(%rip), %rax	# canon_modify_mem_list, canon_modify_mem_list.221
	movl	-20(%rbp), %edx	# bb, tmp96
	movslq	%edx, %rdx	# tmp96, D.19232
	salq	$3, %rdx	#, D.19232
	addq	%rdx, %rax	# D.19232, D.19233
	movq	(%rax), %rdx	# *_25, D.19234
	movq	-40(%rbp), %rax	# insn, tmp97
	movq	%rdx, %rsi	# D.19234,
	movq	%rax, %rdi	# tmp97,
	call	alloc_INSN_LIST	#
	.loc 1 2439 0
	movq	%rax, (%rbx)	# D.19234, *_21
	.loc 1 2441 0
	movq	canon_modify_mem_list_set(%rip), %rax	# canon_modify_mem_list_set, canon_modify_mem_list_set.222
	movl	-20(%rbp), %edx	# bb, tmp98
	movl	%edx, %esi	# tmp98,
	movq	%rax, %rdi	# canon_modify_mem_list_set.222,
	call	bitmap_set_bit	#
	jmp	.L339	#
.L340:
	.loc 1 2444 0
	movq	-40(%rbp), %rax	# insn, tmp99
	movq	32(%rax), %rax	# insn_2(D)->fld[3].rtx, D.19234
	movq	-40(%rbp), %rdx	# insn, tmp100
	movl	$canon_list_insert, %esi	#,
	movq	%rax, %rdi	# D.19234,
	call	note_stores	#
.L339:
	.loc 1 2445 0
	addq	$40, %rsp	#,
	popq	%rbx	#
	popq	%rbp	#
	.cfi_def_cfa 7, 8
	ret
	.cfi_endproc
.LFE36:
	.size	record_last_mem_set_info, .-record_last_mem_set_info
	.type	record_last_set_info, @function
record_last_set_info:
.LFB37:
	.loc 1 2455 0
	.cfi_startproc
	pushq	%rbp	#
	.cfi_def_cfa_offset 16
	.cfi_offset 6, -16
	movq	%rsp, %rbp	#,
	.cfi_def_cfa_register 6
	subq	$48, %rsp	#,
	movq	%rdi, -24(%rbp)	# dest, dest
	movq	%rsi, -32(%rbp)	# setter, setter
	movq	%rdx, -40(%rbp)	# data, data
	.loc 1 2456 0
	movq	-40(%rbp), %rax	# data, tmp67
	movq	%rax, -8(%rbp)	# tmp67, last_set_insn
	.loc 1 2458 0
	movq	-24(%rbp), %rax	# dest, tmp68
	movzwl	(%rax), %eax	# dest_4(D)->code, D.19236
	cmpw	$63, %ax	#, D.19236
	jne	.L343	#,
	.loc 1 2459 0
	movq	-24(%rbp), %rax	# dest, tmp69
	movq	8(%rax), %rax	# dest_4(D)->fld[0].rtx, tmp70
	movq	%rax, -24(%rbp)	# tmp70, dest
.L343:
	.loc 1 2461 0
	movq	-24(%rbp), %rax	# dest, tmp71
	movzwl	(%rax), %eax	# dest_1->code, D.19236
	cmpw	$61, %ax	#, D.19236
	jne	.L344	#,
	.loc 1 2462 0
	movq	-24(%rbp), %rax	# dest, tmp72
	movl	8(%rax), %eax	# dest_1->fld[0].rtuint, D.19237
	movl	%eax, %edx	# D.19237, D.19238
	movq	-8(%rbp), %rax	# last_set_insn, tmp73
	movl	%edx, %esi	# D.19238,
	movq	%rax, %rdi	# tmp73,
	call	record_last_reg_set_info	#
	jmp	.L342	#
.L344:
	.loc 1 2463 0
	movq	-24(%rbp), %rax	# dest, tmp74
	movzwl	(%rax), %eax	# dest_1->code, D.19236
	cmpw	$66, %ax	#, D.19236
	jne	.L342	#,
	.loc 1 2465 0
	movq	-24(%rbp), %rax	# dest, tmp75
	movzbl	2(%rax), %eax	# dest_1->mode, D.19239
	movzbl	%al, %edx	# D.19239, D.19240
	movq	-24(%rbp), %rax	# dest, tmp76
	movl	%edx, %esi	# D.19240,
	movq	%rax, %rdi	# tmp76,
	call	push_operand	#
	testl	%eax, %eax	# D.19238
	jne	.L342	#,
	.loc 1 2466 0
	movq	-8(%rbp), %rax	# last_set_insn, tmp77
	movq	%rax, %rdi	# tmp77,
	call	record_last_mem_set_info	#
.L342:
	.loc 1 2467 0
	leave
	.cfi_def_cfa 7, 8
	ret
	.cfi_endproc
.LFE37:
	.size	record_last_set_info, .-record_last_set_info
	.type	compute_hash_table, @function
compute_hash_table:
.LFB38:
	.loc 1 2489 0
	.cfi_startproc
	pushq	%rbp	#
	.cfi_def_cfa_offset 16
	.cfi_offset 6, -16
	movq	%rsp, %rbp	#,
	.cfi_def_cfa_register 6
	subq	$48, %rsp	#,
	movl	%edi, -36(%rbp)	# set_p, set_p
	.loc 1 2496 0
	movl	n_basic_blocks(%rip), %eax	# n_basic_blocks, n_basic_blocks.223
	movl	%eax, %edx	# n_basic_blocks.223, n_basic_blocks.224
	movq	reg_set_in_block(%rip), %rax	# reg_set_in_block, reg_set_in_block.225
	movl	%edx, %esi	# n_basic_blocks.224,
	movq	%rax, %rdi	# reg_set_in_block.225,
	call	sbitmap_vector_zero	#
	.loc 1 2499 0
	call	clear_modify_mem_tables	#
	.loc 1 2502 0
	movl	max_gcse_regno(%rip), %edx	# max_gcse_regno, max_gcse_regno.226
	movl	%edx, %eax	# max_gcse_regno.226, tmp107
	addl	%eax, %eax	# tmp107
	addl	%edx, %eax	# max_gcse_regno.226, tmp107
	sall	$2, %eax	#, tmp108
	movl	%eax, %edi	# D.19241,
	call	gmalloc	#
	.loc 1 2501 0
	movq	%rax, reg_avail_info(%rip)	# reg_avail_info.227, reg_avail_info
	.loc 1 2504 0
	movl	$0, -20(%rbp)	#, i
	jmp	.L347	#
.L348:
	.loc 1 2505 0 discriminator 2
	movq	reg_avail_info(%rip), %rcx	# reg_avail_info, reg_avail_info.228
	movl	-20(%rbp), %edx	# i, D.19242
	movq	%rdx, %rax	# D.19242, tmp109
	addq	%rax, %rax	# tmp109
	addq	%rdx, %rax	# D.19242, tmp109
	salq	$2, %rax	#, tmp110
	addq	%rcx, %rax	# reg_avail_info.228, D.19243
	movl	$-1, (%rax)	#, _19->last_bb
	.loc 1 2504 0 discriminator 2
	addl	$1, -20(%rbp)	#, i
.L347:
	.loc 1 2504 0 is_stmt 0 discriminator 1
	movl	max_gcse_regno(%rip), %eax	# max_gcse_regno, max_gcse_regno.229
	cmpl	%eax, -20(%rbp)	# max_gcse_regno.229, i
	jb	.L348	#,
	.loc 1 2507 0 is_stmt 1
	movl	$0, current_bb(%rip)	#, current_bb
	jmp	.L349	#
.L366:
.LBB21:
	.loc 1 2518 0
	movq	basic_block_info(%rip), %rax	# basic_block_info, basic_block_info.230
	movl	current_bb(%rip), %edx	# current_bb, current_bb.231
	movslq	%edx, %rdx	# current_bb.231, tmp111
	addq	$4, %rdx	#, tmp112
	movq	(%rax,%rdx,8), %rax	# basic_block_info.230_23->data.bb, D.19244
	movq	(%rax), %rax	# _25->head, tmp113
	movq	%rax, -8(%rbp)	# tmp113, insn
	jmp	.L350	#
.L359:
	.loc 1 2522 0
	movq	-8(%rbp), %rax	# insn, tmp114
	movzwl	(%rax), %eax	# insn_2->code, D.19246
	movzwl	%ax, %eax	# D.19246, D.19247
	cltq
	movzbl	rtx_class(%rax), %eax	# rtx_class, D.19248
	cmpb	$105, %al	#, D.19248
	je	.L351	#,
	.loc 1 2523 0
	jmp	.L352	#
.L351:
	.loc 1 2525 0
	movq	-8(%rbp), %rax	# insn, tmp116
	movzwl	(%rax), %eax	# insn_2->code, D.19246
	cmpw	$34, %ax	#, D.19246
	jne	.L353	#,
.LBB22:
	.loc 1 2527 0
	movb	$0, -21(%rbp)	#, clobbers_all
	.loc 1 2534 0
	movl	$0, -16(%rbp)	#, regno
	jmp	.L354	#
.L357:
	.loc 1 2535 0
	cmpb	$0, -21(%rbp)	#, clobbers_all
	jne	.L355	#,
	.loc 1 2536 0
	movq	regs_invalidated_by_call(%rip), %rdx	# regs_invalidated_by_call, regs_invalidated_by_call.232
	movl	-16(%rbp), %eax	# regno, regno.233
	movl	%eax, %ecx	# regno.233, tmp141
	shrq	%cl, %rdx	# tmp141, D.19242
	movq	%rdx, %rax	# D.19242, D.19242
	andl	$1, %eax	#, D.19242
	testq	%rax, %rax	# D.19242
	je	.L356	#,
.L355:
	.loc 1 2537 0
	movl	-16(%rbp), %edx	# regno, regno.234
	movq	-8(%rbp), %rax	# insn, tmp117
	movl	%edx, %esi	# regno.234,
	movq	%rax, %rdi	# tmp117,
	call	record_last_reg_set_info	#
.L356:
	.loc 1 2534 0
	addl	$1, -16(%rbp)	#, regno
.L354:
	.loc 1 2534 0 is_stmt 0 discriminator 1
	cmpl	$52, -16(%rbp)	#, regno
	jbe	.L357	#,
	.loc 1 2539 0 is_stmt 1
	movq	-8(%rbp), %rax	# insn, tmp118
	movq	%rax, %rdi	# tmp118,
	call	mark_call	#
.L353:
.LBE22:
	.loc 1 2542 0
	movq	-8(%rbp), %rax	# insn, tmp119
	movq	32(%rax), %rax	# insn_2->fld[3].rtx, D.19245
	movq	-8(%rbp), %rdx	# insn, tmp120
	movl	$record_last_set_info, %esi	#,
	movq	%rax, %rdi	# D.19245,
	call	note_stores	#
.L352:
	.loc 1 2520 0
	movq	-8(%rbp), %rax	# insn, tmp121
	movq	24(%rax), %rax	# insn_2->fld[2].rtx, tmp122
	movq	%rax, -8(%rbp)	# tmp122, insn
.L350:
	.loc 1 2518 0 discriminator 1
	cmpq	$0, -8(%rbp)	#, insn
	je	.L358	#,
	.loc 1 2519 0
	movq	basic_block_info(%rip), %rax	# basic_block_info, basic_block_info.235
	movl	current_bb(%rip), %edx	# current_bb, current_bb.236
	movslq	%edx, %rdx	# current_bb.236, tmp123
	addq	$4, %rdx	#, tmp124
	movq	(%rax,%rdx,8), %rax	# basic_block_info.235_27->data.bb, D.19244
	movq	8(%rax), %rax	# _29->end, D.19245
	movq	24(%rax), %rax	# _30->fld[2].rtx, D.19245
	cmpq	-8(%rbp), %rax	# insn, D.19245
	jne	.L359	#,
.L358:
	.loc 1 2547 0
	movq	basic_block_info(%rip), %rax	# basic_block_info, basic_block_info.237
	movl	current_bb(%rip), %edx	# current_bb, current_bb.238
	movslq	%edx, %rdx	# current_bb.238, tmp125
	addq	$4, %rdx	#, tmp126
	movq	(%rax,%rdx,8), %rax	# basic_block_info.237_46->data.bb, D.19244
	movq	(%rax), %rax	# _48->head, tmp127
	movq	%rax, -8(%rbp)	# tmp127, insn
	movl	$0, -12(%rbp)	#, in_libcall_block
	jmp	.L360	#
.L365:
	.loc 1 2550 0
	movq	-8(%rbp), %rax	# insn, tmp128
	movzwl	(%rax), %eax	# insn_3->code, D.19246
	movzwl	%ax, %eax	# D.19246, D.19247
	cltq
	movzbl	rtx_class(%rax), %eax	# rtx_class, D.19248
	cmpb	$105, %al	#, D.19248
	jne	.L361	#,
	.loc 1 2552 0
	movq	-8(%rbp), %rax	# insn, tmp130
	movl	$0, %edx	#,
	movl	$7, %esi	#,
	movq	%rax, %rdi	# tmp130,
	call	find_reg_note	#
	testq	%rax, %rax	# D.19245
	je	.L362	#,
	.loc 1 2553 0
	movl	$1, -12(%rbp)	#, in_libcall_block
	jmp	.L363	#
.L362:
	.loc 1 2554 0
	cmpl	$0, -36(%rbp)	#, set_p
	je	.L363	#,
	.loc 1 2554 0 is_stmt 0 discriminator 1
	movq	-8(%rbp), %rax	# insn, tmp131
	movl	$0, %edx	#,
	movl	$6, %esi	#,
	movq	%rax, %rdi	# tmp131,
	call	find_reg_note	#
	testq	%rax, %rax	# D.19245
	je	.L363	#,
	.loc 1 2555 0 is_stmt 1
	movl	$0, -12(%rbp)	#, in_libcall_block
.L363:
	.loc 1 2556 0
	movl	-12(%rbp), %edx	# in_libcall_block, tmp132
	movl	-36(%rbp), %ecx	# set_p, tmp133
	movq	-8(%rbp), %rax	# insn, tmp134
	movl	%ecx, %esi	# tmp133,
	movq	%rax, %rdi	# tmp134,
	call	hash_scan_insn	#
	.loc 1 2557 0
	cmpl	$0, -36(%rbp)	#, set_p
	jne	.L361	#,
	.loc 1 2557 0 is_stmt 0 discriminator 1
	movq	-8(%rbp), %rax	# insn, tmp135
	movl	$0, %edx	#,
	movl	$6, %esi	#,
	movq	%rax, %rdi	# tmp135,
	call	find_reg_note	#
	testq	%rax, %rax	# D.19245
	je	.L361	#,
	.loc 1 2558 0 is_stmt 1
	movl	$0, -12(%rbp)	#, in_libcall_block
.L361:
	.loc 1 2549 0
	movq	-8(%rbp), %rax	# insn, tmp136
	movq	24(%rax), %rax	# insn_3->fld[2].rtx, tmp137
	movq	%rax, -8(%rbp)	# tmp137, insn
.L360:
	.loc 1 2547 0 discriminator 1
	cmpq	$0, -8(%rbp)	#, insn
	je	.L364	#,
	.loc 1 2548 0
	movq	basic_block_info(%rip), %rax	# basic_block_info, basic_block_info.239
	movl	current_bb(%rip), %edx	# current_bb, current_bb.240
	movslq	%edx, %rdx	# current_bb.240, tmp138
	addq	$4, %rdx	#, tmp139
	movq	(%rax,%rdx,8), %rax	# basic_block_info.239_51->data.bb, D.19244
	movq	8(%rax), %rax	# _53->end, D.19245
	movq	24(%rax), %rax	# _54->fld[2].rtx, D.19245
	cmpq	-8(%rbp), %rax	# insn, D.19245
	jne	.L365	#,
.L364:
.LBE21:
	.loc 1 2507 0
	movl	current_bb(%rip), %eax	# current_bb, current_bb.241
	addl	$1, %eax	#, current_bb.242
	movl	%eax, current_bb(%rip)	# current_bb.242, current_bb
.L349:
	.loc 1 2507 0 is_stmt 0 discriminator 1
	movl	current_bb(%rip), %edx	# current_bb, current_bb.243
	movl	n_basic_blocks(%rip), %eax	# n_basic_blocks, n_basic_blocks.244
	cmpl	%eax, %edx	# n_basic_blocks.244, current_bb.243
	jl	.L366	#,
	.loc 1 2562 0 is_stmt 1
	movq	reg_avail_info(%rip), %rax	# reg_avail_info, reg_avail_info.245
	movq	%rax, %rdi	# reg_avail_info.245,
	call	free	#
	.loc 1 2563 0
	movq	$0, reg_avail_info(%rip)	#, reg_avail_info
	.loc 1 2564 0
	leave
	.cfi_def_cfa 7, 8
	ret
	.cfi_endproc
.LFE38:
	.size	compute_hash_table, .-compute_hash_table
	.type	alloc_set_hash_table, @function
alloc_set_hash_table:
.LFB39:
	.loc 1 2573 0
	.cfi_startproc
	pushq	%rbp	#
	.cfi_def_cfa_offset 16
	.cfi_offset 6, -16
	movq	%rsp, %rbp	#,
	.cfi_def_cfa_register 6
	subq	$32, %rsp	#,
	movl	%edi, -20(%rbp)	# n_insns, n_insns
	.loc 1 2576 0
	movl	-20(%rbp), %eax	# n_insns, tmp68
	leal	3(%rax), %edx	#, tmp70
	testl	%eax, %eax	# tmp69
	cmovs	%edx, %eax	# tmp70,, tmp69
	sarl	$2, %eax	#, tmp71
	movl	%eax, set_hash_table_size(%rip)	# set_hash_table_size.246, set_hash_table_size
	.loc 1 2577 0
	movl	set_hash_table_size(%rip), %eax	# set_hash_table_size, set_hash_table_size.247
	cmpl	$10, %eax	#, set_hash_table_size.247
	ja	.L368	#,
	.loc 1 2578 0
	movl	$11, set_hash_table_size(%rip)	#, set_hash_table_size
.L368:
	.loc 1 2583 0
	movl	set_hash_table_size(%rip), %eax	# set_hash_table_size, set_hash_table_size.248
	orl	$1, %eax	#, set_hash_table_size.249
	movl	%eax, set_hash_table_size(%rip)	# set_hash_table_size.249, set_hash_table_size
	.loc 1 2584 0
	movl	set_hash_table_size(%rip), %eax	# set_hash_table_size, set_hash_table_size.250
	sall	$3, %eax	#, D.19250
	movl	%eax, -4(%rbp)	# D.19250, n
	.loc 1 2585 0
	movl	-4(%rbp), %eax	# n, n.251
	movl	%eax, %edi	# n.251,
	call	gmalloc	#
	movq	%rax, set_hash_table(%rip)	# set_hash_table.252, set_hash_table
	.loc 1 2586 0
	leave
	.cfi_def_cfa 7, 8
	ret
	.cfi_endproc
.LFE39:
	.size	alloc_set_hash_table, .-alloc_set_hash_table
	.type	free_set_hash_table, @function
free_set_hash_table:
.LFB40:
	.loc 1 2592 0
	.cfi_startproc
	pushq	%rbp	#
	.cfi_def_cfa_offset 16
	.cfi_offset 6, -16
	movq	%rsp, %rbp	#,
	.cfi_def_cfa_register 6
	.loc 1 2593 0
	movq	set_hash_table(%rip), %rax	# set_hash_table, set_hash_table.253
	movq	%rax, %rdi	# set_hash_table.253,
	call	free	#
	.loc 1 2594 0
	popq	%rbp	#
	.cfi_def_cfa 7, 8
	ret
	.cfi_endproc
.LFE40:
	.size	free_set_hash_table, .-free_set_hash_table
	.type	compute_set_hash_table, @function
compute_set_hash_table:
.LFB41:
	.loc 1 2600 0
	.cfi_startproc
	pushq	%rbp	#
	.cfi_def_cfa_offset 16
	.cfi_offset 6, -16
	movq	%rsp, %rbp	#,
	.cfi_def_cfa_register 6
	.loc 1 2602 0
	movl	$0, n_sets(%rip)	#, n_sets
	.loc 1 2603 0
	movl	set_hash_table_size(%rip), %eax	# set_hash_table_size, set_hash_table_size.254
	movl	%eax, %eax	# set_hash_table_size.254, D.19251
	leaq	0(,%rax,8), %rdx	#, D.19251
	movq	set_hash_table(%rip), %rax	# set_hash_table, set_hash_table.255
	movl	$0, %esi	#,
	movq	%rax, %rdi	# set_hash_table.255,
	call	memset	#
	.loc 1 2606 0
	movl	$1, %edi	#,
	call	compute_hash_table	#
	.loc 1 2607 0
	popq	%rbp	#
	.cfi_def_cfa 7, 8
	ret
	.cfi_endproc
.LFE41:
	.size	compute_set_hash_table, .-compute_set_hash_table
	.type	alloc_expr_hash_table, @function
alloc_expr_hash_table:
.LFB42:
	.loc 1 2616 0
	.cfi_startproc
	pushq	%rbp	#
	.cfi_def_cfa_offset 16
	.cfi_offset 6, -16
	movq	%rsp, %rbp	#,
	.cfi_def_cfa_register 6
	subq	$32, %rsp	#,
	movl	%edi, -20(%rbp)	# n_insns, n_insns
	.loc 1 2619 0
	movl	-20(%rbp), %eax	# n_insns, tmp67
	shrl	%eax	# expr_hash_table_size.256
	movl	%eax, expr_hash_table_size(%rip)	# expr_hash_table_size.256, expr_hash_table_size
	.loc 1 2621 0
	movl	expr_hash_table_size(%rip), %eax	# expr_hash_table_size, expr_hash_table_size.257
	cmpl	$10, %eax	#, expr_hash_table_size.257
	ja	.L372	#,
	.loc 1 2622 0
	movl	$11, expr_hash_table_size(%rip)	#, expr_hash_table_size
.L372:
	.loc 1 2627 0
	movl	expr_hash_table_size(%rip), %eax	# expr_hash_table_size, expr_hash_table_size.258
	orl	$1, %eax	#, expr_hash_table_size.259
	movl	%eax, expr_hash_table_size(%rip)	# expr_hash_table_size.259, expr_hash_table_size
	.loc 1 2628 0
	movl	expr_hash_table_size(%rip), %eax	# expr_hash_table_size, expr_hash_table_size.260
	sall	$3, %eax	#, D.19252
	movl	%eax, -4(%rbp)	# D.19252, n
	.loc 1 2629 0
	movl	-4(%rbp), %eax	# n, n.261
	movl	%eax, %edi	# n.261,
	call	gmalloc	#
	movq	%rax, expr_hash_table(%rip)	# expr_hash_table.262, expr_hash_table
	.loc 1 2630 0
	leave
	.cfi_def_cfa 7, 8
	ret
	.cfi_endproc
.LFE42:
	.size	alloc_expr_hash_table, .-alloc_expr_hash_table
	.type	free_expr_hash_table, @function
free_expr_hash_table:
.LFB43:
	.loc 1 2636 0
	.cfi_startproc
	pushq	%rbp	#
	.cfi_def_cfa_offset 16
	.cfi_offset 6, -16
	movq	%rsp, %rbp	#,
	.cfi_def_cfa_register 6
	.loc 1 2637 0
	movq	expr_hash_table(%rip), %rax	# expr_hash_table, expr_hash_table.263
	movq	%rax, %rdi	# expr_hash_table.263,
	call	free	#
	.loc 1 2638 0
	popq	%rbp	#
	.cfi_def_cfa 7, 8
	ret
	.cfi_endproc
.LFE43:
	.size	free_expr_hash_table, .-free_expr_hash_table
	.type	compute_expr_hash_table, @function
compute_expr_hash_table:
.LFB44:
	.loc 1 2644 0
	.cfi_startproc
	pushq	%rbp	#
	.cfi_def_cfa_offset 16
	.cfi_offset 6, -16
	movq	%rsp, %rbp	#,
	.cfi_def_cfa_register 6
	.loc 1 2646 0
	movl	$0, n_exprs(%rip)	#, n_exprs
	.loc 1 2647 0
	movl	expr_hash_table_size(%rip), %eax	# expr_hash_table_size, expr_hash_table_size.264
	movl	%eax, %eax	# expr_hash_table_size.264, D.19253
	leaq	0(,%rax,8), %rdx	#, D.19253
	movq	expr_hash_table(%rip), %rax	# expr_hash_table, expr_hash_table.265
	movl	$0, %esi	#,
	movq	%rax, %rdi	# expr_hash_table.265,
	call	memset	#
	.loc 1 2650 0
	movl	$0, %edi	#,
	call	compute_hash_table	#
	.loc 1 2651 0
	popq	%rbp	#
	.cfi_def_cfa 7, 8
	ret
	.cfi_endproc
.LFE44:
	.size	compute_expr_hash_table, .-compute_expr_hash_table
	.type	lookup_expr, @function
lookup_expr:
.LFB45:
	.loc 1 2661 0
	.cfi_startproc
	pushq	%rbp	#
	.cfi_def_cfa_offset 16
	.cfi_offset 6, -16
	movq	%rsp, %rbp	#,
	.cfi_def_cfa_register 6
	subq	$32, %rsp	#,
	movq	%rdi, -24(%rbp)	# pat, pat
	.loc 1 2663 0
	movl	expr_hash_table_size(%rip), %eax	# expr_hash_table_size, expr_hash_table_size.266
	movl	%eax, %ecx	# expr_hash_table_size.266, expr_hash_table_size.267
	movq	-24(%rbp), %rax	# pat, tmp72
	movzbl	2(%rax), %eax	# pat_5(D)->mode, D.19255
	movzbl	%al, %esi	# D.19255, D.19256
	leaq	-16(%rbp), %rdx	#, tmp73
	movq	-24(%rbp), %rax	# pat, tmp74
	movq	%rax, %rdi	# tmp74,
	call	hash_expr	#
	movl	%eax, -12(%rbp)	# tmp75, hash
	.loc 1 2667 0
	movl	-16(%rbp), %eax	# do_not_record_p, do_not_record_p.268
	testl	%eax, %eax	# do_not_record_p.268
	je	.L376	#,
	.loc 1 2668 0
	movl	$0, %eax	#, D.19254
	jmp	.L381	#
.L376:
	.loc 1 2670 0
	movq	expr_hash_table(%rip), %rax	# expr_hash_table, expr_hash_table.269
	movl	-12(%rbp), %edx	# hash, D.19257
	salq	$3, %rdx	#, D.19257
	addq	%rdx, %rax	# D.19257, D.19258
	movq	(%rax), %rax	# *_14, tmp76
	movq	%rax, -8(%rbp)	# tmp76, expr
	.loc 1 2672 0
	jmp	.L378	#
.L380:
	.loc 1 2673 0
	movq	-8(%rbp), %rax	# expr, tmp77
	movq	16(%rax), %rax	# expr_1->next_same_hash, tmp78
	movq	%rax, -8(%rbp)	# tmp78, expr
.L378:
	.loc 1 2672 0 discriminator 1
	cmpq	$0, -8(%rbp)	#, expr
	je	.L379	#,
	.loc 1 2672 0 is_stmt 0 discriminator 2
	movq	-8(%rbp), %rax	# expr, tmp79
	movq	(%rax), %rax	# expr_1->expr, D.19259
	movq	-24(%rbp), %rdx	# pat, tmp80
	movq	%rdx, %rsi	# tmp80,
	movq	%rax, %rdi	# D.19259,
	call	expr_equiv_p	#
	testl	%eax, %eax	# D.19260
	je	.L380	#,
.L379:
	.loc 1 2675 0 is_stmt 1
	movq	-8(%rbp), %rax	# expr, D.19254
.L381:
	.loc 1 2676 0
	leave
	.cfi_def_cfa 7, 8
	ret
	.cfi_endproc
.LFE45:
	.size	lookup_expr, .-lookup_expr
	.type	lookup_set, @function
lookup_set:
.LFB46:
	.loc 1 2686 0
	.cfi_startproc
	pushq	%rbp	#
	.cfi_def_cfa_offset 16
	.cfi_offset 6, -16
	movq	%rsp, %rbp	#,
	.cfi_def_cfa_register 6
	subq	$32, %rsp	#,
	movl	%edi, -20(%rbp)	# regno, regno
	movq	%rsi, -32(%rbp)	# pat, pat
	.loc 1 2687 0
	movl	set_hash_table_size(%rip), %eax	# set_hash_table_size, set_hash_table_size.270
	movl	%eax, %edx	# set_hash_table_size.270, set_hash_table_size.271
	movl	-20(%rbp), %eax	# regno, regno.272
	movl	%edx, %esi	# set_hash_table_size.271,
	movl	%eax, %edi	# regno.272,
	call	hash_set	#
	movl	%eax, -12(%rbp)	# tmp73, hash
	.loc 1 2690 0
	movq	set_hash_table(%rip), %rax	# set_hash_table, set_hash_table.273
	movl	-12(%rbp), %edx	# hash, D.19261
	salq	$3, %rdx	#, D.19261
	addq	%rdx, %rax	# D.19261, D.19262
	movq	(%rax), %rax	# *_12, tmp74
	movq	%rax, -8(%rbp)	# tmp74, expr
	.loc 1 2692 0
	cmpq	$0, -32(%rbp)	#, pat
	je	.L383	#,
	.loc 1 2694 0
	jmp	.L384	#
.L386:
	.loc 1 2695 0
	movq	-8(%rbp), %rax	# expr, tmp75
	movq	16(%rax), %rax	# expr_1->next_same_hash, tmp76
	movq	%rax, -8(%rbp)	# tmp76, expr
.L384:
	.loc 1 2694 0 discriminator 1
	cmpq	$0, -8(%rbp)	#, expr
	je	.L385	#,
	.loc 1 2694 0 is_stmt 0 discriminator 2
	movq	-8(%rbp), %rax	# expr, tmp77
	movq	(%rax), %rax	# expr_1->expr, D.19263
	movq	-32(%rbp), %rdx	# pat, tmp78
	movq	%rdx, %rsi	# tmp78,
	movq	%rax, %rdi	# D.19263,
	call	expr_equiv_p	#
	testl	%eax, %eax	# D.19264
	je	.L386	#,
	jmp	.L385	#
.L383:
	.loc 1 2699 0 is_stmt 1
	jmp	.L387	#
.L388:
	.loc 1 2700 0
	movq	-8(%rbp), %rax	# expr, tmp79
	movq	16(%rax), %rax	# expr_2->next_same_hash, tmp80
	movq	%rax, -8(%rbp)	# tmp80, expr
.L387:
	.loc 1 2699 0 discriminator 1
	cmpq	$0, -8(%rbp)	#, expr
	je	.L385	#,
	.loc 1 2699 0 is_stmt 0 discriminator 2
	movq	-8(%rbp), %rax	# expr, tmp81
	movq	(%rax), %rax	# expr_2->expr, D.19263
	movq	8(%rax), %rax	# _18->fld[0].rtx, D.19263
	movl	8(%rax), %eax	# _19->fld[0].rtuint, D.19265
	cmpl	-20(%rbp), %eax	# regno, D.19265
	jne	.L388	#,
.L385:
	.loc 1 2703 0 is_stmt 1
	movq	-8(%rbp), %rax	# expr, D.19266
	.loc 1 2704 0
	leave
	.cfi_def_cfa 7, 8
	ret
	.cfi_endproc
.LFE46:
	.size	lookup_set, .-lookup_set
	.type	next_set, @function
next_set:
.LFB47:
	.loc 1 2712 0
	.cfi_startproc
	pushq	%rbp	#
	.cfi_def_cfa_offset 16
	.cfi_offset 6, -16
	movq	%rsp, %rbp	#,
	.cfi_def_cfa_register 6
	movl	%edi, -4(%rbp)	# regno, regno
	movq	%rsi, -16(%rbp)	# expr, expr
.L392:
	.loc 1 2714 0 discriminator 1
	movq	-16(%rbp), %rax	# expr, tmp64
	movq	16(%rax), %rax	# expr_1->next_same_hash, tmp65
	movq	%rax, -16(%rbp)	# tmp65, expr
	.loc 1 2715 0 discriminator 1
	cmpq	$0, -16(%rbp)	#, expr
	je	.L391	#,
	movq	-16(%rbp), %rax	# expr, tmp66
	movq	(%rax), %rax	# expr_3->expr, D.19267
	movq	8(%rax), %rax	# _4->fld[0].rtx, D.19267
	movl	8(%rax), %eax	# _5->fld[0].rtuint, D.19268
	cmpl	-4(%rbp), %eax	# regno, D.19268
	jne	.L392	#,
.L391:
	.loc 1 2717 0
	movq	-16(%rbp), %rax	# expr, D.19269
	.loc 1 2718 0
	popq	%rbp	#
	.cfi_def_cfa 7, 8
	ret
	.cfi_endproc
.LFE47:
	.size	next_set, .-next_set
	.type	free_insn_expr_list_list, @function
free_insn_expr_list_list:
.LFB48:
	.loc 1 2726 0
	.cfi_startproc
	pushq	%rbp	#
	.cfi_def_cfa_offset 16
	.cfi_offset 6, -16
	movq	%rsp, %rbp	#,
	.cfi_def_cfa_register 6
	subq	$32, %rsp	#,
	movq	%rdi, -24(%rbp)	# listp, listp
	.loc 1 2729 0
	movq	-24(%rbp), %rax	# listp, tmp60
	movq	(%rax), %rax	# *listp_2(D), tmp61
	movq	%rax, -16(%rbp)	# tmp61, list
	jmp	.L395	#
.L398:
	.loc 1 2731 0
	movq	-16(%rbp), %rax	# list, tmp62
	movq	16(%rax), %rax	# list_1->fld[1].rtx, tmp63
	movq	%rax, -8(%rbp)	# tmp63, next
	.loc 1 2732 0
	movq	-16(%rbp), %rax	# list, tmp64
	movzwl	(%rax), %eax	# list_1->code, D.19270
	cmpw	$3, %ax	#, D.19270
	jne	.L396	#,
	.loc 1 2733 0
	movq	-16(%rbp), %rax	# list, tmp65
	movq	%rax, %rdi	# tmp65,
	call	free_EXPR_LIST_node	#
	jmp	.L397	#
.L396:
	.loc 1 2735 0
	movq	-16(%rbp), %rax	# list, tmp66
	movq	%rax, %rdi	# tmp66,
	call	free_INSN_LIST_node	#
.L397:
	.loc 1 2729 0
	movq	-8(%rbp), %rax	# next, tmp67
	movq	%rax, -16(%rbp)	# tmp67, list
.L395:
	.loc 1 2729 0 is_stmt 0 discriminator 1
	cmpq	$0, -16(%rbp)	#, list
	jne	.L398	#,
	.loc 1 2738 0 is_stmt 1
	movq	-24(%rbp), %rax	# listp, tmp68
	movq	$0, (%rax)	#, *listp_2(D)
	.loc 1 2739 0
	leave
	.cfi_def_cfa 7, 8
	ret
	.cfi_endproc
.LFE48:
	.size	free_insn_expr_list_list, .-free_insn_expr_list_list
	.type	clear_modify_mem_tables, @function
clear_modify_mem_tables:
.LFB49:
	.loc 1 2744 0
	.cfi_startproc
	pushq	%rbp	#
	.cfi_def_cfa_offset 16
	.cfi_offset 6, -16
	movq	%rsp, %rbp	#,
	.cfi_def_cfa_register 6
	subq	$80, %rsp	#,
.LBB23:
	.loc 1 2747 0
	movq	modify_mem_list_set(%rip), %rax	# modify_mem_list_set, modify_mem_list_set.274
	movq	(%rax), %rax	# modify_mem_list_set.274_23->first, tmp91
	movq	%rax, -48(%rbp)	# tmp91, ptr_
	movl	$0, -60(%rbp)	#, indx_
	movl	$0, -76(%rbp)	#, bit_num_
	movl	$0, -72(%rbp)	#, word_num_
	jmp	.L400	#
.L402:
	.loc 1 2747 0 is_stmt 0 discriminator 1
	movq	-48(%rbp), %rax	# ptr_, tmp92
	movq	(%rax), %rax	# ptr__1->next, tmp93
	movq	%rax, -48(%rbp)	# tmp93, ptr_
.L400:
	cmpq	$0, -48(%rbp)	#, ptr_
	je	.L401	#,
	.loc 1 2747 0 discriminator 2
	movq	-48(%rbp), %rax	# ptr_, tmp94
	movl	16(%rax), %eax	# ptr__1->indx, D.19271
	cmpl	-60(%rbp), %eax	# indx_, D.19271
	jb	.L402	#,
.L401:
	.loc 1 2747 0 discriminator 3
	cmpq	$0, -48(%rbp)	#, ptr_
	je	.L403	#,
	.loc 1 2747 0 discriminator 1
	movq	-48(%rbp), %rax	# ptr_, tmp95
	movl	16(%rax), %eax	# ptr__1->indx, D.19271
	cmpl	-60(%rbp), %eax	# indx_, D.19271
	je	.L403	#,
	movl	$0, -76(%rbp)	#, bit_num_
	movl	$0, -72(%rbp)	#, word_num_
	jmp	.L404	#
.L403:
	.loc 1 2747 0 discriminator 2
	jmp	.L404	#
.L411:
	.loc 1 2747 0
	jmp	.L405	#
.L410:
.LBB24:
	.loc 1 2747 0 discriminator 2
	movq	-48(%rbp), %rax	# ptr_, tmp96
	movl	-72(%rbp), %edx	# word_num_, tmp97
	addq	$2, %rdx	#, tmp98
	movq	8(%rax,%rdx,8), %rax	# ptr__2->bits, tmp99
	movq	%rax, -40(%rbp)	# tmp99, word_
	cmpq	$0, -40(%rbp)	#, word_
	je	.L406	#,
	.loc 1 2747 0 discriminator 1
	jmp	.L407	#
.L409:
.LBB25:
	.loc 1 2747 0 discriminator 2
	movl	-76(%rbp), %eax	# bit_num_, bit_num_.275
	movl	$1, %edx	#, tmp100
	movl	%eax, %ecx	# bit_num_.275, tmp132
	salq	%cl, %rdx	# tmp132, tmp101
	movq	%rdx, %rax	# tmp101, tmp101
	movq	%rax, -16(%rbp)	# tmp101, mask_
	movq	-16(%rbp), %rax	# mask_, tmp102
	movq	-40(%rbp), %rdx	# word_, tmp103
	andq	%rdx, %rax	# tmp103, D.19272
	testq	%rax, %rax	# D.19272
	je	.L408	#,
	.loc 1 2747 0 discriminator 1
	movq	-16(%rbp), %rax	# mask_, tmp104
	notq	%rax	# D.19272
	andq	%rax, -40(%rbp)	# D.19272, word_
	movq	-48(%rbp), %rax	# ptr_, tmp105
	movl	16(%rax), %eax	# ptr__2->indx, D.19271
	leal	(%rax,%rax), %edx	#, D.19271
	movl	-72(%rbp), %eax	# word_num_, tmp106
	addl	%edx, %eax	# D.19271, D.19271
	sall	$6, %eax	#, D.19271
	movl	%eax, %edx	# D.19271, D.19271
	movl	-76(%rbp), %eax	# bit_num_, tmp107
	addl	%edx, %eax	# D.19271, D.19271
	movl	%eax, -56(%rbp)	# D.19271, i
	movq	modify_mem_list(%rip), %rax	# modify_mem_list, modify_mem_list.276
	movl	-56(%rbp), %edx	# i, tmp108
	movslq	%edx, %rdx	# tmp108, D.19272
	salq	$3, %rdx	#, D.19272
	addq	%rdx, %rax	# D.19272, D.19273
	movq	%rax, %rdi	# D.19273,
	call	free_INSN_LIST_list	#
	cmpq	$0, -40(%rbp)	#, word_
	jne	.L408	#,
	jmp	.L406	#
.L408:
.LBE25:
	.loc 1 2747 0 discriminator 2
	addl	$1, -76(%rbp)	#, bit_num_
.L407:
	.loc 1 2747 0 discriminator 1
	cmpl	$63, -76(%rbp)	#, bit_num_
	jbe	.L409	#,
.L406:
	.loc 1 2747 0 discriminator 2
	movl	$0, -76(%rbp)	#, bit_num_
.LBE24:
	addl	$1, -72(%rbp)	#, word_num_
.L405:
	.loc 1 2747 0 discriminator 1
	cmpl	$1, -72(%rbp)	#, word_num_
	jbe	.L410	#,
	.loc 1 2747 0 discriminator 3
	movl	$0, -72(%rbp)	#, word_num_
	movq	-48(%rbp), %rax	# ptr_, tmp109
	movq	(%rax), %rax	# ptr__2->next, tmp110
	movq	%rax, -48(%rbp)	# tmp110, ptr_
.L404:
	.loc 1 2747 0 discriminator 1
	cmpq	$0, -48(%rbp)	#, ptr_
	jne	.L411	#,
.LBE23:
	.loc 1 2749 0 is_stmt 1
	movq	modify_mem_list_set(%rip), %rax	# modify_mem_list_set, modify_mem_list_set.277
	movq	%rax, %rdi	# modify_mem_list_set.277,
	call	bitmap_clear	#
.LBB26:
	.loc 1 2751 0
	movq	canon_modify_mem_list_set(%rip), %rax	# canon_modify_mem_list_set, canon_modify_mem_list_set.278
	movq	(%rax), %rax	# canon_modify_mem_list_set.278_55->first, tmp111
	movq	%rax, -32(%rbp)	# tmp111, ptr_
	movl	$0, -52(%rbp)	#, indx_
	movl	$0, -68(%rbp)	#, bit_num_
	movl	$0, -64(%rbp)	#, word_num_
	jmp	.L412	#
.L414:
	.loc 1 2751 0 is_stmt 0 discriminator 1
	movq	-32(%rbp), %rax	# ptr_, tmp112
	movq	(%rax), %rax	# ptr__12->next, tmp113
	movq	%rax, -32(%rbp)	# tmp113, ptr_
.L412:
	cmpq	$0, -32(%rbp)	#, ptr_
	je	.L413	#,
	.loc 1 2751 0 discriminator 2
	movq	-32(%rbp), %rax	# ptr_, tmp114
	movl	16(%rax), %eax	# ptr__12->indx, D.19271
	cmpl	-52(%rbp), %eax	# indx_, D.19271
	jb	.L414	#,
.L413:
	.loc 1 2751 0 discriminator 3
	cmpq	$0, -32(%rbp)	#, ptr_
	je	.L415	#,
	.loc 1 2751 0 discriminator 1
	movq	-32(%rbp), %rax	# ptr_, tmp115
	movl	16(%rax), %eax	# ptr__12->indx, D.19271
	cmpl	-52(%rbp), %eax	# indx_, D.19271
	je	.L415	#,
	movl	$0, -68(%rbp)	#, bit_num_
	movl	$0, -64(%rbp)	#, word_num_
	jmp	.L416	#
.L415:
	.loc 1 2751 0 discriminator 2
	jmp	.L416	#
.L423:
	.loc 1 2751 0
	jmp	.L417	#
.L422:
.LBB27:
	.loc 1 2751 0 discriminator 2
	movq	-32(%rbp), %rax	# ptr_, tmp116
	movl	-64(%rbp), %edx	# word_num_, tmp117
	addq	$2, %rdx	#, tmp118
	movq	8(%rax,%rdx,8), %rax	# ptr__13->bits, tmp119
	movq	%rax, -24(%rbp)	# tmp119, word_
	cmpq	$0, -24(%rbp)	#, word_
	je	.L418	#,
	.loc 1 2751 0 discriminator 1
	jmp	.L419	#
.L421:
.LBB28:
	.loc 1 2751 0 discriminator 2
	movl	-68(%rbp), %eax	# bit_num_, bit_num_.279
	movl	$1, %edx	#, tmp120
	movl	%eax, %ecx	# bit_num_.279, tmp135
	salq	%cl, %rdx	# tmp135, tmp121
	movq	%rdx, %rax	# tmp121, tmp121
	movq	%rax, -8(%rbp)	# tmp121, mask_
	movq	-8(%rbp), %rax	# mask_, tmp122
	movq	-24(%rbp), %rdx	# word_, tmp123
	andq	%rdx, %rax	# tmp123, D.19272
	testq	%rax, %rax	# D.19272
	je	.L420	#,
	.loc 1 2751 0 discriminator 1
	movq	-8(%rbp), %rax	# mask_, tmp124
	notq	%rax	# D.19272
	andq	%rax, -24(%rbp)	# D.19272, word_
	movq	-32(%rbp), %rax	# ptr_, tmp125
	movl	16(%rax), %eax	# ptr__13->indx, D.19271
	leal	(%rax,%rax), %edx	#, D.19271
	movl	-64(%rbp), %eax	# word_num_, tmp126
	addl	%edx, %eax	# D.19271, D.19271
	sall	$6, %eax	#, D.19271
	movl	%eax, %edx	# D.19271, D.19271
	movl	-68(%rbp), %eax	# bit_num_, tmp127
	addl	%edx, %eax	# D.19271, D.19271
	movl	%eax, -56(%rbp)	# D.19271, i
	movq	canon_modify_mem_list(%rip), %rax	# canon_modify_mem_list, canon_modify_mem_list.280
	movl	-56(%rbp), %edx	# i, tmp128
	movslq	%edx, %rdx	# tmp128, D.19272
	salq	$3, %rdx	#, D.19272
	addq	%rdx, %rax	# D.19272, D.19273
	movq	%rax, %rdi	# D.19273,
	call	free_insn_expr_list_list	#
	cmpq	$0, -24(%rbp)	#, word_
	jne	.L420	#,
	jmp	.L418	#
.L420:
.LBE28:
	.loc 1 2751 0 discriminator 2
	addl	$1, -68(%rbp)	#, bit_num_
.L419:
	.loc 1 2751 0 discriminator 1
	cmpl	$63, -68(%rbp)	#, bit_num_
	jbe	.L421	#,
.L418:
	.loc 1 2751 0 discriminator 2
	movl	$0, -68(%rbp)	#, bit_num_
.LBE27:
	addl	$1, -64(%rbp)	#, word_num_
.L417:
	.loc 1 2751 0 discriminator 1
	cmpl	$1, -64(%rbp)	#, word_num_
	jbe	.L422	#,
	.loc 1 2751 0 discriminator 3
	movl	$0, -64(%rbp)	#, word_num_
	movq	-32(%rbp), %rax	# ptr_, tmp129
	movq	(%rax), %rax	# ptr__13->next, tmp130
	movq	%rax, -32(%rbp)	# tmp130, ptr_
.L416:
	.loc 1 2751 0 discriminator 1
	cmpq	$0, -32(%rbp)	#, ptr_
	jne	.L423	#,
.LBE26:
	.loc 1 2754 0 is_stmt 1
	movq	canon_modify_mem_list_set(%rip), %rax	# canon_modify_mem_list_set, canon_modify_mem_list_set.281
	movq	%rax, %rdi	# canon_modify_mem_list_set.281,
	call	bitmap_clear	#
	.loc 1 2755 0
	leave
	.cfi_def_cfa 7, 8
	ret
	.cfi_endproc
.LFE49:
	.size	clear_modify_mem_tables, .-clear_modify_mem_tables
	.type	free_modify_mem_tables, @function
free_modify_mem_tables:
.LFB50:
	.loc 1 2761 0
	.cfi_startproc
	pushq	%rbp	#
	.cfi_def_cfa_offset 16
	.cfi_offset 6, -16
	movq	%rsp, %rbp	#,
	.cfi_def_cfa_register 6
	.loc 1 2762 0
	call	clear_modify_mem_tables	#
	.loc 1 2763 0
	movq	modify_mem_list(%rip), %rax	# modify_mem_list, modify_mem_list.282
	movq	%rax, %rdi	# modify_mem_list.282,
	call	free	#
	.loc 1 2764 0
	movq	canon_modify_mem_list(%rip), %rax	# canon_modify_mem_list, canon_modify_mem_list.283
	movq	%rax, %rdi	# canon_modify_mem_list.283,
	call	free	#
	.loc 1 2765 0
	movq	$0, modify_mem_list(%rip)	#, modify_mem_list
	.loc 1 2766 0
	movq	$0, canon_modify_mem_list(%rip)	#, canon_modify_mem_list
	.loc 1 2767 0
	popq	%rbp	#
	.cfi_def_cfa 7, 8
	ret
	.cfi_endproc
.LFE50:
	.size	free_modify_mem_tables, .-free_modify_mem_tables
	.type	reset_opr_set_tables, @function
reset_opr_set_tables:
.LFB51:
	.loc 1 2774 0
	.cfi_startproc
	pushq	%rbp	#
	.cfi_def_cfa_offset 16
	.cfi_offset 6, -16
	movq	%rsp, %rbp	#,
	.cfi_def_cfa_register 6
	.loc 1 2777 0
	movq	reg_set_bitmap(%rip), %rax	# reg_set_bitmap, reg_set_bitmap.284
	movq	%rax, %rdi	# reg_set_bitmap.284,
	call	bitmap_clear	#
	.loc 1 2782 0
	call	clear_modify_mem_tables	#
	.loc 1 2783 0
	popq	%rbp	#
	.cfi_def_cfa 7, 8
	ret
	.cfi_endproc
.LFE51:
	.size	reset_opr_set_tables, .-reset_opr_set_tables
	.type	oprs_not_set_p, @function
oprs_not_set_p:
.LFB52:
	.loc 1 2791 0
	.cfi_startproc
	pushq	%rbp	#
	.cfi_def_cfa_offset 16
	.cfi_offset 6, -16
	movq	%rsp, %rbp	#,
	.cfi_def_cfa_register 6
	subq	$48, %rsp	#,
	movq	%rdi, -40(%rbp)	# x, x
	movq	%rsi, -48(%rbp)	# insn, insn
	.loc 1 2796 0
	cmpq	$0, -40(%rbp)	#, x
	jne	.L427	#,
	.loc 1 2797 0
	movl	$1, %eax	#, D.19274
	jmp	.L428	#
.L427:
	.loc 1 2799 0
	movq	-40(%rbp), %rax	# x, tmp96
	movzwl	(%rax), %eax	# x_4(D)->code, D.19275
	movzwl	%ax, %eax	# D.19275, tmp97
	movl	%eax, -12(%rbp)	# tmp97, code
	.loc 1 2800 0
	movl	-12(%rbp), %eax	# code, tmp99
	subl	$44, %eax	#, tmp98
	cmpl	$25, %eax	#, tmp98
	ja	.L444	#,
	movl	%eax, %eax	# tmp98, tmp100
	movq	.L431(,%rax,8), %rax	#, tmp101
	jmp	*%rax	# tmp101
	.section	.rodata
	.align 8
	.align 4
.L431:
	.quad	.L430
	.quad	.L430
	.quad	.L444
	.quad	.L444
	.quad	.L444
	.quad	.L444
	.quad	.L444
	.quad	.L444
	.quad	.L444
	.quad	.L444
	.quad	.L430
	.quad	.L430
	.quad	.L430
	.quad	.L444
	.quad	.L430
	.quad	.L430
	.quad	.L444
	.quad	.L432
	.quad	.L444
	.quad	.L444
	.quad	.L444
	.quad	.L444
	.quad	.L433
	.quad	.L430
	.quad	.L430
	.quad	.L430
	.text
.L430:
	.loc 1 2812 0
	movl	$1, %eax	#, D.19274
	jmp	.L428	#
.L433:
	.loc 1 2816 0
	movq	uid_cuid(%rip), %rdx	# uid_cuid, uid_cuid.285
	movq	-48(%rbp), %rax	# insn, tmp102
	movl	8(%rax), %eax	# insn_10(D)->fld[0].rtint, D.19274
	cltq
	salq	$2, %rax	#, D.19276
	addq	%rdx, %rax	# uid_cuid.285, D.19277
	.loc 1 2815 0
	movl	(%rax), %esi	# *_14, D.19274
	movq	basic_block_for_insn(%rip), %rax	# basic_block_for_insn, basic_block_for_insn.286
	movq	-48(%rbp), %rdx	# insn, tmp103
	movl	8(%rdx), %edx	# insn_10(D)->fld[0].rtint, D.19274
	movslq	%edx, %rdx	# D.19274, tmp104
	addq	$4, %rdx	#, tmp105
	movq	(%rax,%rdx,8), %rax	# basic_block_for_insn.286_16->data.bb, D.19278
	movq	-40(%rbp), %rdx	# x, tmp106
	movl	$0, %ecx	#,
	movq	%rax, %rdi	# D.19278,
	call	load_killed_in_block_p	#
	testl	%eax, %eax	# D.19274
	je	.L434	#,
	.loc 1 2817 0
	movl	$0, %eax	#, D.19274
	jmp	.L428	#
.L434:
	.loc 1 2819 0
	movq	-40(%rbp), %rax	# x, tmp107
	movq	8(%rax), %rax	# x_4(D)->fld[0].rtx, D.19279
	movq	-48(%rbp), %rdx	# insn, tmp108
	movq	%rdx, %rsi	# tmp108,
	movq	%rax, %rdi	# D.19279,
	call	oprs_not_set_p	#
	jmp	.L428	#
.L432:
	.loc 1 2822 0
	movq	-40(%rbp), %rax	# x, tmp109
	movl	8(%rax), %eax	# x_4(D)->fld[0].rtuint, D.19280
	movl	%eax, %edx	# D.19280, D.19274
	movq	reg_set_bitmap(%rip), %rax	# reg_set_bitmap, reg_set_bitmap.287
	movl	%edx, %esi	# D.19274,
	movq	%rax, %rdi	# reg_set_bitmap.287,
	call	bitmap_bit_p	#
	testl	%eax, %eax	# D.19274
	sete	%al	#, D.19281
	movzbl	%al, %eax	# D.19281, D.19274
	jmp	.L428	#
.L444:
	.loc 1 2825 0
	nop
	.loc 1 2828 0
	movl	-12(%rbp), %eax	# code, code.288
	cltq
	movzbl	rtx_length(%rax), %eax	# rtx_length, D.19282
	movzbl	%al, %eax	# D.19282, D.19274
	subl	$1, %eax	#, tmp111
	movl	%eax, -20(%rbp)	# tmp111, i
	movl	-12(%rbp), %eax	# code, code.289
	cltq
	movq	rtx_format(,%rax,8), %rax	# rtx_format, tmp113
	movq	%rax, -8(%rbp)	# tmp113, fmt
	jmp	.L435	#
.L442:
	.loc 1 2830 0
	movl	-20(%rbp), %eax	# i, tmp114
	movslq	%eax, %rdx	# tmp114, D.19283
	movq	-8(%rbp), %rax	# fmt, tmp115
	addq	%rdx, %rax	# D.19283, D.19284
	movzbl	(%rax), %eax	# *_36, D.19285
	cmpb	$101, %al	#, D.19285
	jne	.L436	#,
	.loc 1 2835 0
	cmpl	$0, -20(%rbp)	#, i
	jne	.L437	#,
	.loc 1 2836 0
	movq	-40(%rbp), %rax	# x, tmp116
	movl	-20(%rbp), %edx	# i, tmp118
	movslq	%edx, %rdx	# tmp118, tmp117
	movq	8(%rax,%rdx,8), %rax	# x_4(D)->fld[i_1].rtx, D.19279
	movq	-48(%rbp), %rdx	# insn, tmp119
	movq	%rdx, %rsi	# tmp119,
	movq	%rax, %rdi	# D.19279,
	call	oprs_not_set_p	#
	jmp	.L428	#
.L437:
	.loc 1 2838 0
	movq	-40(%rbp), %rax	# x, tmp120
	movl	-20(%rbp), %edx	# i, tmp122
	movslq	%edx, %rdx	# tmp122, tmp121
	movq	8(%rax,%rdx,8), %rax	# x_4(D)->fld[i_1].rtx, D.19279
	movq	-48(%rbp), %rdx	# insn, tmp123
	movq	%rdx, %rsi	# tmp123,
	movq	%rax, %rdi	# D.19279,
	call	oprs_not_set_p	#
	testl	%eax, %eax	# D.19274
	jne	.L438	#,
	.loc 1 2839 0
	movl	$0, %eax	#, D.19274
	jmp	.L428	#
.L436:
	.loc 1 2841 0
	movl	-20(%rbp), %eax	# i, tmp124
	movslq	%eax, %rdx	# tmp124, D.19283
	movq	-8(%rbp), %rax	# fmt, tmp125
	addq	%rdx, %rax	# D.19283, D.19284
	movzbl	(%rax), %eax	# *_44, D.19285
	cmpb	$69, %al	#, D.19285
	jne	.L438	#,
	.loc 1 2842 0
	movl	$0, -16(%rbp)	#, j
	jmp	.L439	#
.L441:
	.loc 1 2843 0
	movq	-40(%rbp), %rax	# x, tmp126
	movl	-20(%rbp), %edx	# i, tmp128
	movslq	%edx, %rdx	# tmp128, tmp127
	movq	8(%rax,%rdx,8), %rax	# x_4(D)->fld[i_1].rtvec, D.19286
	movl	-16(%rbp), %edx	# j, tmp130
	movslq	%edx, %rdx	# tmp130, tmp129
	movq	8(%rax,%rdx,8), %rax	# _49->elem, D.19279
	movq	-48(%rbp), %rdx	# insn, tmp131
	movq	%rdx, %rsi	# tmp131,
	movq	%rax, %rdi	# D.19279,
	call	oprs_not_set_p	#
	testl	%eax, %eax	# D.19274
	jne	.L440	#,
	.loc 1 2844 0
	movl	$0, %eax	#, D.19274
	jmp	.L428	#
.L440:
	.loc 1 2842 0
	addl	$1, -16(%rbp)	#, j
.L439:
	.loc 1 2842 0 is_stmt 0 discriminator 1
	movq	-40(%rbp), %rax	# x, tmp132
	movl	-20(%rbp), %edx	# i, tmp134
	movslq	%edx, %rdx	# tmp134, tmp133
	movq	8(%rax,%rdx,8), %rax	# x_4(D)->fld[i_1].rtvec, D.19286
	movl	(%rax), %eax	# _47->num_elem, D.19274
	cmpl	-16(%rbp), %eax	# j, D.19274
	jg	.L441	#,
.L438:
	.loc 1 2828 0 is_stmt 1
	subl	$1, -20(%rbp)	#, i
.L435:
	.loc 1 2828 0 is_stmt 0 discriminator 1
	cmpl	$0, -20(%rbp)	#, i
	jns	.L442	#,
	.loc 1 2847 0 is_stmt 1
	movl	$1, %eax	#, D.19274
.L428:
	.loc 1 2848 0
	leave
	.cfi_def_cfa 7, 8
	ret
	.cfi_endproc
.LFE52:
	.size	oprs_not_set_p, .-oprs_not_set_p
	.type	mark_call, @function
mark_call:
.LFB53:
	.loc 1 2855 0
	.cfi_startproc
	pushq	%rbp	#
	.cfi_def_cfa_offset 16
	.cfi_offset 6, -16
	movq	%rsp, %rbp	#,
	.cfi_def_cfa_register 6
	subq	$16, %rsp	#,
	movq	%rdi, -8(%rbp)	# insn, insn
	.loc 1 2856 0
	movq	-8(%rbp), %rax	# insn, tmp61
	movzbl	3(%rax), %eax	# *insn_1(D), D.19287
	andl	$4, %eax	#, D.19287
	testb	%al, %al	# D.19287
	jne	.L445	#,
	.loc 1 2857 0
	movq	-8(%rbp), %rax	# insn, tmp62
	movq	%rax, %rdi	# tmp62,
	call	record_last_mem_set_info	#
.L445:
	.loc 1 2858 0
	leave
	.cfi_def_cfa 7, 8
	ret
	.cfi_endproc
.LFE53:
	.size	mark_call, .-mark_call
	.type	mark_set, @function
mark_set:
.LFB54:
	.loc 1 2865 0
	.cfi_startproc
	pushq	%rbp	#
	.cfi_def_cfa_offset 16
	.cfi_offset 6, -16
	movq	%rsp, %rbp	#,
	.cfi_def_cfa_register 6
	subq	$32, %rsp	#,
	movq	%rdi, -24(%rbp)	# pat, pat
	movq	%rsi, -32(%rbp)	# insn, insn
	.loc 1 2866 0
	movq	-24(%rbp), %rax	# pat, tmp70
	movq	8(%rax), %rax	# pat_2(D)->fld[0].rtx, tmp71
	movq	%rax, -8(%rbp)	# tmp71, dest
	.loc 1 2868 0
	jmp	.L448	#
.L449:
	.loc 1 2872 0
	movq	-8(%rbp), %rax	# dest, tmp72
	movq	8(%rax), %rax	# dest_1->fld[0].rtx, tmp73
	movq	%rax, -8(%rbp)	# tmp73, dest
.L448:
	.loc 1 2868 0 discriminator 1
	movq	-8(%rbp), %rax	# dest, tmp74
	movzwl	(%rax), %eax	# dest_1->code, D.19288
	cmpw	$63, %ax	#, D.19288
	je	.L449	#,
	.loc 1 2869 0
	movq	-8(%rbp), %rax	# dest, tmp75
	movzwl	(%rax), %eax	# dest_1->code, D.19288
	cmpw	$133, %ax	#, D.19288
	je	.L449	#,
	.loc 1 2870 0
	movq	-8(%rbp), %rax	# dest, tmp76
	movzwl	(%rax), %eax	# dest_1->code, D.19288
	cmpw	$132, %ax	#, D.19288
	je	.L449	#,
	.loc 1 2871 0
	movq	-8(%rbp), %rax	# dest, tmp77
	movzwl	(%rax), %eax	# dest_1->code, D.19288
	cmpw	$64, %ax	#, D.19288
	je	.L449	#,
	.loc 1 2874 0
	movq	-8(%rbp), %rax	# dest, tmp78
	movzwl	(%rax), %eax	# dest_1->code, D.19288
	cmpw	$61, %ax	#, D.19288
	jne	.L450	#,
	.loc 1 2875 0
	movq	-8(%rbp), %rax	# dest, tmp79
	movl	8(%rax), %eax	# dest_1->fld[0].rtuint, D.19289
	movl	%eax, %edx	# D.19289, D.19290
	movq	reg_set_bitmap(%rip), %rax	# reg_set_bitmap, reg_set_bitmap.290
	movl	%edx, %esi	# D.19290,
	movq	%rax, %rdi	# reg_set_bitmap.290,
	call	bitmap_set_bit	#
	jmp	.L451	#
.L450:
	.loc 1 2876 0
	movq	-8(%rbp), %rax	# dest, tmp80
	movzwl	(%rax), %eax	# dest_1->code, D.19288
	cmpw	$66, %ax	#, D.19288
	jne	.L451	#,
	.loc 1 2877 0
	movq	-32(%rbp), %rax	# insn, tmp81
	movq	%rax, %rdi	# tmp81,
	call	record_last_mem_set_info	#
.L451:
	.loc 1 2879 0
	movq	-24(%rbp), %rax	# pat, tmp82
	movq	16(%rax), %rax	# pat_2(D)->fld[1].rtx, D.19291
	movzwl	(%rax), %eax	# _14->code, D.19288
	cmpw	$50, %ax	#, D.19288
	jne	.L447	#,
	.loc 1 2880 0
	movq	-32(%rbp), %rax	# insn, tmp83
	movq	%rax, %rdi	# tmp83,
	call	mark_call	#
.L447:
	.loc 1 2881 0
	leave
	.cfi_def_cfa 7, 8
	ret
	.cfi_endproc
.LFE54:
	.size	mark_set, .-mark_set
	.type	mark_clobber, @function
mark_clobber:
.LFB55:
	.loc 1 2888 0
	.cfi_startproc
	pushq	%rbp	#
	.cfi_def_cfa_offset 16
	.cfi_offset 6, -16
	movq	%rsp, %rbp	#,
	.cfi_def_cfa_register 6
	subq	$32, %rsp	#,
	movq	%rdi, -24(%rbp)	# pat, pat
	movq	%rsi, -32(%rbp)	# insn, insn
	.loc 1 2889 0
	movq	-24(%rbp), %rax	# pat, tmp65
	movq	8(%rax), %rax	# pat_2(D)->fld[0].rtx, tmp66
	movq	%rax, -8(%rbp)	# tmp66, clob
	.loc 1 2891 0
	jmp	.L454	#
.L455:
	.loc 1 2892 0
	movq	-8(%rbp), %rax	# clob, tmp67
	movq	8(%rax), %rax	# clob_1->fld[0].rtx, tmp68
	movq	%rax, -8(%rbp)	# tmp68, clob
.L454:
	.loc 1 2891 0 discriminator 1
	movq	-8(%rbp), %rax	# clob, tmp69
	movzwl	(%rax), %eax	# clob_1->code, D.19292
	cmpw	$63, %ax	#, D.19292
	je	.L455	#,
	.loc 1 2891 0 is_stmt 0 discriminator 2
	movq	-8(%rbp), %rax	# clob, tmp70
	movzwl	(%rax), %eax	# clob_1->code, D.19292
	cmpw	$64, %ax	#, D.19292
	je	.L455	#,
	.loc 1 2894 0 is_stmt 1
	movq	-8(%rbp), %rax	# clob, tmp71
	movzwl	(%rax), %eax	# clob_1->code, D.19292
	cmpw	$61, %ax	#, D.19292
	jne	.L456	#,
	.loc 1 2895 0
	movq	-8(%rbp), %rax	# clob, tmp72
	movl	8(%rax), %eax	# clob_1->fld[0].rtuint, D.19293
	movl	%eax, %edx	# D.19293, D.19294
	movq	reg_set_bitmap(%rip), %rax	# reg_set_bitmap, reg_set_bitmap.291
	movl	%edx, %esi	# D.19294,
	movq	%rax, %rdi	# reg_set_bitmap.291,
	call	bitmap_set_bit	#
	jmp	.L453	#
.L456:
	.loc 1 2897 0
	movq	-32(%rbp), %rax	# insn, tmp73
	movq	%rax, %rdi	# tmp73,
	call	record_last_mem_set_info	#
.L453:
	.loc 1 2898 0
	leave
	.cfi_def_cfa 7, 8
	ret
	.cfi_endproc
.LFE55:
	.size	mark_clobber, .-mark_clobber
	.type	mark_oprs_set, @function
mark_oprs_set:
.LFB56:
	.loc 1 2906 0
	.cfi_startproc
	pushq	%rbp	#
	.cfi_def_cfa_offset 16
	.cfi_offset 6, -16
	movq	%rsp, %rbp	#,
	.cfi_def_cfa_register 6
	subq	$48, %rsp	#,
	movq	%rdi, -40(%rbp)	# insn, insn
	.loc 1 2907 0
	movq	-40(%rbp), %rax	# insn, tmp69
	movq	32(%rax), %rax	# insn_2(D)->fld[3].rtx, tmp70
	movq	%rax, -16(%rbp)	# tmp70, pat
	.loc 1 2910 0
	movq	-16(%rbp), %rax	# pat, tmp71
	movzwl	(%rax), %eax	# pat_3->code, D.19295
	cmpw	$47, %ax	#, D.19295
	jne	.L459	#,
	.loc 1 2911 0
	movq	-40(%rbp), %rdx	# insn, tmp72
	movq	-16(%rbp), %rax	# pat, tmp73
	movq	%rdx, %rsi	# tmp72,
	movq	%rax, %rdi	# tmp73,
	call	mark_set	#
	jmp	.L458	#
.L459:
	.loc 1 2912 0
	movq	-16(%rbp), %rax	# pat, tmp74
	movzwl	(%rax), %eax	# pat_3->code, D.19295
	cmpw	$39, %ax	#, D.19295
	jne	.L461	#,
	.loc 1 2913 0
	movl	$0, -20(%rbp)	#, i
	jmp	.L462	#
.L466:
.LBB29:
	.loc 1 2915 0
	movq	-16(%rbp), %rax	# pat, tmp75
	movq	8(%rax), %rax	# pat_3->fld[0].rtvec, D.19296
	movl	-20(%rbp), %edx	# i, tmp77
	movslq	%edx, %rdx	# tmp77, tmp76
	movq	8(%rax,%rdx,8), %rax	# _9->elem, tmp78
	movq	%rax, -8(%rbp)	# tmp78, x
	.loc 1 2917 0
	movq	-8(%rbp), %rax	# x, tmp79
	movzwl	(%rax), %eax	# x_10->code, D.19295
	cmpw	$47, %ax	#, D.19295
	jne	.L463	#,
	.loc 1 2918 0
	movq	-40(%rbp), %rdx	# insn, tmp80
	movq	-8(%rbp), %rax	# x, tmp81
	movq	%rdx, %rsi	# tmp80,
	movq	%rax, %rdi	# tmp81,
	call	mark_set	#
	jmp	.L464	#
.L463:
	.loc 1 2919 0
	movq	-8(%rbp), %rax	# x, tmp82
	movzwl	(%rax), %eax	# x_10->code, D.19295
	cmpw	$49, %ax	#, D.19295
	jne	.L465	#,
	.loc 1 2920 0
	movq	-40(%rbp), %rdx	# insn, tmp83
	movq	-8(%rbp), %rax	# x, tmp84
	movq	%rdx, %rsi	# tmp83,
	movq	%rax, %rdi	# tmp84,
	call	mark_clobber	#
	jmp	.L464	#
.L465:
	.loc 1 2921 0
	movq	-8(%rbp), %rax	# x, tmp85
	movzwl	(%rax), %eax	# x_10->code, D.19295
	cmpw	$50, %ax	#, D.19295
	jne	.L464	#,
	.loc 1 2922 0
	movq	-40(%rbp), %rax	# insn, tmp86
	movq	%rax, %rdi	# tmp86,
	call	mark_call	#
.L464:
.LBE29:
	.loc 1 2913 0
	addl	$1, -20(%rbp)	#, i
.L462:
	.loc 1 2913 0 is_stmt 0 discriminator 1
	movq	-16(%rbp), %rax	# pat, tmp87
	movq	8(%rax), %rax	# pat_3->fld[0].rtvec, D.19296
	movl	(%rax), %eax	# _7->num_elem, D.19297
	cmpl	-20(%rbp), %eax	# i, D.19297
	jg	.L466	#,
	jmp	.L458	#
.L461:
	.loc 1 2925 0 is_stmt 1
	movq	-16(%rbp), %rax	# pat, tmp88
	movzwl	(%rax), %eax	# pat_3->code, D.19295
	cmpw	$49, %ax	#, D.19295
	jne	.L467	#,
	.loc 1 2926 0
	movq	-40(%rbp), %rdx	# insn, tmp89
	movq	-16(%rbp), %rax	# pat, tmp90
	movq	%rdx, %rsi	# tmp89,
	movq	%rax, %rdi	# tmp90,
	call	mark_clobber	#
	jmp	.L458	#
.L467:
	.loc 1 2927 0
	movq	-16(%rbp), %rax	# pat, tmp91
	movzwl	(%rax), %eax	# pat_3->code, D.19295
	cmpw	$50, %ax	#, D.19295
	jne	.L458	#,
	.loc 1 2928 0
	movq	-40(%rbp), %rax	# insn, tmp92
	movq	%rax, %rdi	# tmp92,
	call	mark_call	#
.L458:
	.loc 1 2929 0
	leave
	.cfi_def_cfa 7, 8
	ret
	.cfi_endproc
.LFE56:
	.size	mark_oprs_set, .-mark_oprs_set
	.type	alloc_rd_mem, @function
alloc_rd_mem:
.LFB57:
	.loc 1 2939 0
	.cfi_startproc
	pushq	%rbp	#
	.cfi_def_cfa_offset 16
	.cfi_offset 6, -16
	movq	%rsp, %rbp	#,
	.cfi_def_cfa_register 6
	subq	$16, %rsp	#,
	movl	%edi, -4(%rbp)	# n_blocks, n_blocks
	movl	%esi, -8(%rbp)	# n_insns, n_insns
	.loc 1 2940 0
	movl	-8(%rbp), %edx	# n_insns, n_insns.292
	movl	-4(%rbp), %eax	# n_blocks, n_blocks.293
	movl	%edx, %esi	# n_insns.292,
	movl	%eax, %edi	# n_blocks.293,
	call	sbitmap_vector_alloc	#
	movq	%rax, rd_kill(%rip)	# rd_kill.294, rd_kill
	.loc 1 2941 0
	movl	n_basic_blocks(%rip), %eax	# n_basic_blocks, n_basic_blocks.295
	movl	%eax, %edx	# n_basic_blocks.295, n_basic_blocks.296
	movq	rd_kill(%rip), %rax	# rd_kill, rd_kill.297
	movl	%edx, %esi	# n_basic_blocks.296,
	movq	%rax, %rdi	# rd_kill.297,
	call	sbitmap_vector_zero	#
	.loc 1 2943 0
	movl	-8(%rbp), %edx	# n_insns, n_insns.298
	movl	-4(%rbp), %eax	# n_blocks, n_blocks.299
	movl	%edx, %esi	# n_insns.298,
	movl	%eax, %edi	# n_blocks.299,
	call	sbitmap_vector_alloc	#
	movq	%rax, rd_gen(%rip)	# rd_gen.300, rd_gen
	.loc 1 2944 0
	movl	n_basic_blocks(%rip), %eax	# n_basic_blocks, n_basic_blocks.301
	movl	%eax, %edx	# n_basic_blocks.301, n_basic_blocks.302
	movq	rd_gen(%rip), %rax	# rd_gen, rd_gen.303
	movl	%edx, %esi	# n_basic_blocks.302,
	movq	%rax, %rdi	# rd_gen.303,
	call	sbitmap_vector_zero	#
	.loc 1 2946 0
	movl	-8(%rbp), %edx	# n_insns, n_insns.304
	movl	-4(%rbp), %eax	# n_blocks, n_blocks.305
	movl	%edx, %esi	# n_insns.304,
	movl	%eax, %edi	# n_blocks.305,
	call	sbitmap_vector_alloc	#
	movq	%rax, reaching_defs(%rip)	# reaching_defs.306, reaching_defs
	.loc 1 2947 0
	movl	n_basic_blocks(%rip), %eax	# n_basic_blocks, n_basic_blocks.307
	movl	%eax, %edx	# n_basic_blocks.307, n_basic_blocks.308
	movq	reaching_defs(%rip), %rax	# reaching_defs, reaching_defs.309
	movl	%edx, %esi	# n_basic_blocks.308,
	movq	%rax, %rdi	# reaching_defs.309,
	call	sbitmap_vector_zero	#
	.loc 1 2949 0
	movl	-8(%rbp), %edx	# n_insns, n_insns.310
	movl	-4(%rbp), %eax	# n_blocks, n_blocks.311
	movl	%edx, %esi	# n_insns.310,
	movl	%eax, %edi	# n_blocks.311,
	call	sbitmap_vector_alloc	#
	movq	%rax, rd_out(%rip)	# rd_out.312, rd_out
	.loc 1 2950 0
	movl	n_basic_blocks(%rip), %eax	# n_basic_blocks, n_basic_blocks.313
	movl	%eax, %edx	# n_basic_blocks.313, n_basic_blocks.314
	movq	rd_out(%rip), %rax	# rd_out, rd_out.315
	movl	%edx, %esi	# n_basic_blocks.314,
	movq	%rax, %rdi	# rd_out.315,
	call	sbitmap_vector_zero	#
	.loc 1 2951 0
	leave
	.cfi_def_cfa 7, 8
	ret
	.cfi_endproc
.LFE57:
	.size	alloc_rd_mem, .-alloc_rd_mem
	.type	free_rd_mem, @function
free_rd_mem:
.LFB58:
	.loc 1 2957 0
	.cfi_startproc
	pushq	%rbp	#
	.cfi_def_cfa_offset 16
	.cfi_offset 6, -16
	movq	%rsp, %rbp	#,
	.cfi_def_cfa_register 6
	.loc 1 2958 0
	movq	rd_kill(%rip), %rax	# rd_kill, rd_kill.316
	movq	%rax, %rdi	# rd_kill.316,
	call	free	#
	.loc 1 2959 0
	movq	rd_gen(%rip), %rax	# rd_gen, rd_gen.317
	movq	%rax, %rdi	# rd_gen.317,
	call	free	#
	.loc 1 2960 0
	movq	reaching_defs(%rip), %rax	# reaching_defs, reaching_defs.318
	movq	%rax, %rdi	# reaching_defs.318,
	call	free	#
	.loc 1 2961 0
	movq	rd_out(%rip), %rax	# rd_out, rd_out.319
	movq	%rax, %rdi	# rd_out.319,
	call	free	#
	.loc 1 2962 0
	popq	%rbp	#
	.cfi_def_cfa 7, 8
	ret
	.cfi_endproc
.LFE58:
	.size	free_rd_mem, .-free_rd_mem
	.type	handle_rd_kill_set, @function
handle_rd_kill_set:
.LFB59:
	.loc 1 2971 0
	.cfi_startproc
	pushq	%rbp	#
	.cfi_def_cfa_offset 16
	.cfi_offset 6, -16
	movq	%rsp, %rbp	#,
	.cfi_def_cfa_register 6
	movq	%rdi, -24(%rbp)	# insn, insn
	movl	%esi, -28(%rbp)	# regno, regno
	movq	%rdx, -40(%rbp)	# bb, bb
	.loc 1 2974 0
	movq	reg_set_table(%rip), %rax	# reg_set_table, reg_set_table.320
	movl	-28(%rbp), %edx	# regno, tmp104
	movslq	%edx, %rdx	# tmp104, D.19298
	salq	$3, %rdx	#, D.19298
	addq	%rdx, %rax	# D.19298, D.19299
	movq	(%rax), %rax	# *_6, tmp105
	movq	%rax, -8(%rbp)	# tmp105, this_reg
	jmp	.L471	#
.L473:
	.loc 1 2975 0
	movq	basic_block_for_insn(%rip), %rax	# basic_block_for_insn, basic_block_for_insn.321
	movq	-8(%rbp), %rdx	# this_reg, tmp106
	movq	8(%rdx), %rdx	# this_reg_1->insn, D.19300
	movl	8(%rdx), %edx	# _9->fld[0].rtint, D.19301
	movslq	%edx, %rdx	# D.19301, tmp107
	addq	$4, %rdx	#, tmp108
	movq	(%rax,%rdx,8), %rax	# basic_block_for_insn.321_8->data.bb, D.19302
	movl	88(%rax), %ecx	# _11->index, D.19301
	movq	basic_block_for_insn(%rip), %rax	# basic_block_for_insn, basic_block_for_insn.322
	movq	-24(%rbp), %rdx	# insn, tmp109
	movl	8(%rdx), %edx	# insn_14(D)->fld[0].rtint, D.19301
	movslq	%edx, %rdx	# D.19301, tmp110
	addq	$4, %rdx	#, tmp111
	movq	(%rax,%rdx,8), %rax	# basic_block_for_insn.322_13->data.bb, D.19302
	movl	88(%rax), %eax	# _16->index, D.19301
	cmpl	%eax, %ecx	# D.19301, D.19301
	je	.L472	#,
	.loc 1 2976 0
	movq	rd_kill(%rip), %rdx	# rd_kill, rd_kill.323
	movq	-40(%rbp), %rax	# bb, tmp112
	movl	88(%rax), %eax	# bb_19(D)->index, D.19301
	cltq
	salq	$3, %rax	#, D.19298
	addq	%rdx, %rax	# rd_kill.323, D.19303
	movq	(%rax), %rdx	# *_23, D.19304
	movq	uid_cuid(%rip), %rcx	# uid_cuid, uid_cuid.324
	movq	-8(%rbp), %rax	# this_reg, tmp113
	movq	8(%rax), %rax	# this_reg_1->insn, D.19300
	movl	8(%rax), %eax	# _26->fld[0].rtint, D.19301
	cltq
	salq	$2, %rax	#, D.19298
	addq	%rcx, %rax	# uid_cuid.324, D.19305
	movl	(%rax), %eax	# *_30, D.19301
	shrl	$6, %eax	#, D.19306
	movq	rd_kill(%rip), %rsi	# rd_kill, rd_kill.325
	movq	-40(%rbp), %rcx	# bb, tmp114
	movl	88(%rcx), %ecx	# bb_19(D)->index, D.19301
	movslq	%ecx, %rcx	# D.19301, D.19298
	salq	$3, %rcx	#, D.19298
	addq	%rsi, %rcx	# rd_kill.325, D.19303
	movq	(%rcx), %rcx	# *_38, D.19304
	movl	%eax, %esi	# D.19306, tmp115
	addq	$2, %rsi	#, tmp116
	movq	(%rcx,%rsi,8), %rsi	# _39->elms, D.19298
	movq	uid_cuid(%rip), %rdi	# uid_cuid, uid_cuid.326
	movq	-8(%rbp), %rcx	# this_reg, tmp117
	movq	8(%rcx), %rcx	# this_reg_1->insn, D.19300
	movl	8(%rcx), %ecx	# _42->fld[0].rtint, D.19301
	movslq	%ecx, %rcx	# D.19301, D.19298
	salq	$2, %rcx	#, D.19298
	addq	%rdi, %rcx	# uid_cuid.326, D.19305
	movl	(%rcx), %ecx	# *_46, D.19301
	andl	$63, %ecx	#, D.19301
	movl	$1, %edi	#, tmp118
	salq	%cl, %rdi	# D.19301, D.19298
	movq	%rdi, %rcx	# D.19298, D.19298
	orq	%rsi, %rcx	# D.19298, D.19298
	movl	%eax, %eax	# D.19306, tmp119
	addq	$2, %rax	#, tmp120
	movq	%rcx, (%rdx,%rax,8)	# D.19298, _24->elms
.L472:
	.loc 1 2974 0
	movq	-8(%rbp), %rax	# this_reg, tmp121
	movq	(%rax), %rax	# this_reg_1->next, tmp122
	movq	%rax, -8(%rbp)	# tmp122, this_reg
.L471:
	.loc 1 2974 0 is_stmt 0 discriminator 1
	cmpq	$0, -8(%rbp)	#, this_reg
	jne	.L473	#,
	.loc 1 2977 0 is_stmt 1
	popq	%rbp	#
	.cfi_def_cfa 7, 8
	ret
	.cfi_endproc
.LFE59:
	.size	handle_rd_kill_set, .-handle_rd_kill_set
	.type	compute_kill_rd, @function
compute_kill_rd:
.LFB60:
	.loc 1 2983 0
	.cfi_startproc
	pushq	%rbp	#
	.cfi_def_cfa_offset 16
	.cfi_offset 6, -16
	movq	%rsp, %rbp	#,
	.cfi_def_cfa_register 6
	subq	$48, %rsp	#,
	.loc 1 2996 0
	movl	$0, -36(%rbp)	#, bb
	jmp	.L475	#
.L488:
	.loc 1 2997 0
	movl	$0, -32(%rbp)	#, cuid
	jmp	.L476	#
.L487:
	.loc 1 2998 0
	movq	rd_gen(%rip), %rax	# rd_gen, rd_gen.327
	movl	-36(%rbp), %edx	# bb, tmp109
	movslq	%edx, %rdx	# tmp109, D.19307
	salq	$3, %rdx	#, D.19307
	addq	%rdx, %rax	# D.19307, D.19308
	movq	(%rax), %rax	# *_12, D.19309
	movl	-32(%rbp), %edx	# cuid, cuid.328
	shrl	$6, %edx	#, D.19310
	movl	%edx, %edx	# D.19310, tmp110
	addq	$2, %rdx	#, tmp111
	movq	(%rax,%rdx,8), %rdx	# _13->elms, D.19307
	movl	-32(%rbp), %eax	# cuid, tmp112
	andl	$63, %eax	#, D.19311
	movl	%eax, %ecx	# D.19311, tmp147
	shrq	%cl, %rdx	# tmp147, D.19307
	movq	%rdx, %rax	# D.19307, D.19307
	andl	$1, %eax	#, D.19307
	testq	%rax, %rax	# D.19307
	je	.L477	#,
.LBB30:
	.loc 1 3000 0
	movq	cuid_insn(%rip), %rax	# cuid_insn, cuid_insn.329
	movl	-32(%rbp), %edx	# cuid, tmp113
	movslq	%edx, %rdx	# tmp113, D.19307
	salq	$3, %rdx	#, D.19307
	addq	%rdx, %rax	# D.19307, D.19312
	movq	(%rax), %rax	# *_23, tmp114
	movq	%rax, -16(%rbp)	# tmp114, insn
	.loc 1 3001 0
	movq	-16(%rbp), %rax	# insn, tmp115
	movq	32(%rax), %rax	# insn_24->fld[3].rtx, tmp116
	movq	%rax, -8(%rbp)	# tmp116, pat
	.loc 1 3003 0
	movq	-16(%rbp), %rax	# insn, tmp117
	movzwl	(%rax), %eax	# insn_24->code, D.19313
	cmpw	$34, %ax	#, D.19313
	jne	.L478	#,
	.loc 1 3005 0
	movl	$0, -28(%rbp)	#, regno
	jmp	.L479	#
.L481:
	.loc 1 3006 0
	movq	regs_invalidated_by_call(%rip), %rdx	# regs_invalidated_by_call, regs_invalidated_by_call.330
	movl	-28(%rbp), %eax	# regno, regno.331
	movl	%eax, %ecx	# regno.331, tmp149
	shrq	%cl, %rdx	# tmp149, D.19307
	movq	%rdx, %rax	# D.19307, D.19307
	andl	$1, %eax	#, D.19307
	testq	%rax, %rax	# D.19307
	je	.L480	#,
	.loc 1 3007 0
	movq	basic_block_info(%rip), %rax	# basic_block_info, basic_block_info.332
	movl	-36(%rbp), %edx	# bb, tmp119
	movslq	%edx, %rdx	# tmp119, tmp118
	addq	$4, %rdx	#, tmp120
	movq	(%rax,%rdx,8), %rdx	# basic_block_info.332_32->data.bb, D.19314
	movl	-28(%rbp), %ecx	# regno, regno.333
	movq	-16(%rbp), %rax	# insn, tmp121
	movl	%ecx, %esi	# regno.333,
	movq	%rax, %rdi	# tmp121,
	call	handle_rd_kill_set	#
.L480:
	.loc 1 3005 0
	addl	$1, -28(%rbp)	#, regno
.L479:
	.loc 1 3005 0 is_stmt 0 discriminator 1
	cmpl	$52, -28(%rbp)	#, regno
	jbe	.L481	#,
.L478:
	.loc 1 3010 0 is_stmt 1
	movq	-8(%rbp), %rax	# pat, tmp122
	movzwl	(%rax), %eax	# pat_25->code, D.19313
	cmpw	$39, %ax	#, D.19313
	jne	.L482	#,
	.loc 1 3012 0
	movq	-8(%rbp), %rax	# pat, tmp123
	movq	8(%rax), %rax	# pat_25->fld[0].rtvec, D.19315
	movl	(%rax), %eax	# _37->num_elem, D.19311
	subl	$1, %eax	#, tmp124
	movl	%eax, -24(%rbp)	# tmp124, i
	jmp	.L483	#
.L486:
.LBB31:
	.loc 1 3014 0
	movq	-8(%rbp), %rax	# pat, tmp125
	movq	8(%rax), %rax	# pat_25->fld[0].rtvec, D.19315
	movl	-24(%rbp), %edx	# i, tmp127
	movslq	%edx, %rdx	# tmp127, tmp126
	movq	8(%rax,%rdx,8), %rax	# _40->elem, D.19316
	movzwl	(%rax), %eax	# _41->code, D.19313
	movzwl	%ax, %eax	# D.19313, tmp128
	movl	%eax, -20(%rbp)	# tmp128, code
	.loc 1 3016 0
	cmpl	$47, -20(%rbp)	#, code
	je	.L484	#,
	.loc 1 3016 0 is_stmt 0 discriminator 1
	cmpl	$49, -20(%rbp)	#, code
	jne	.L485	#,
.L484:
	.loc 1 3017 0 is_stmt 1
	movq	-8(%rbp), %rax	# pat, tmp129
	movq	8(%rax), %rax	# pat_25->fld[0].rtvec, D.19315
	movl	-24(%rbp), %edx	# i, tmp131
	movslq	%edx, %rdx	# tmp131, tmp130
	movq	8(%rax,%rdx,8), %rax	# _44->elem, D.19316
	movq	8(%rax), %rax	# _45->fld[0].rtx, D.19316
	movzwl	(%rax), %eax	# _46->code, D.19313
	cmpw	$61, %ax	#, D.19313
	jne	.L485	#,
	.loc 1 3020 0
	movq	basic_block_info(%rip), %rax	# basic_block_info, basic_block_info.334
	.loc 1 3018 0
	movl	-36(%rbp), %edx	# bb, tmp133
	movslq	%edx, %rdx	# tmp133, tmp132
	addq	$4, %rdx	#, tmp134
	movq	(%rax,%rdx,8), %rdx	# basic_block_info.334_48->data.bb, D.19314
	.loc 1 3019 0
	movq	-8(%rbp), %rax	# pat, tmp135
	movq	8(%rax), %rax	# pat_25->fld[0].rtvec, D.19315
	movl	-24(%rbp), %ecx	# i, tmp137
	movslq	%ecx, %rcx	# tmp137, tmp136
	movq	8(%rax,%rcx,8), %rax	# _50->elem, D.19316
	movq	8(%rax), %rax	# _51->fld[0].rtx, D.19316
	movl	8(%rax), %eax	# _52->fld[0].rtuint, D.19310
	.loc 1 3018 0
	movl	%eax, %ecx	# D.19310, D.19311
	movq	-16(%rbp), %rax	# insn, tmp138
	movl	%ecx, %esi	# D.19311,
	movq	%rax, %rdi	# tmp138,
	call	handle_rd_kill_set	#
.L485:
.LBE31:
	.loc 1 3012 0
	subl	$1, -24(%rbp)	#, i
.L483:
	.loc 1 3012 0 is_stmt 0 discriminator 1
	cmpl	$0, -24(%rbp)	#, i
	jns	.L486	#,
	jmp	.L477	#
.L482:
	.loc 1 3023 0 is_stmt 1
	movq	-8(%rbp), %rax	# pat, tmp139
	movzwl	(%rax), %eax	# pat_25->code, D.19313
	cmpw	$47, %ax	#, D.19313
	jne	.L477	#,
	.loc 1 3023 0 is_stmt 0 discriminator 1
	movq	-8(%rbp), %rax	# pat, tmp140
	movq	8(%rax), %rax	# pat_25->fld[0].rtx, D.19316
	movzwl	(%rax), %eax	# _57->code, D.19313
	cmpw	$61, %ax	#, D.19313
	jne	.L477	#,
	.loc 1 3026 0 is_stmt 1
	movq	basic_block_info(%rip), %rax	# basic_block_info, basic_block_info.335
	movl	-36(%rbp), %edx	# bb, tmp142
	movslq	%edx, %rdx	# tmp142, tmp141
	addq	$4, %rdx	#, tmp143
	movq	(%rax,%rdx,8), %rdx	# basic_block_info.335_59->data.bb, D.19314
	movq	-8(%rbp), %rax	# pat, tmp144
	movq	8(%rax), %rax	# pat_25->fld[0].rtx, D.19316
	movl	8(%rax), %eax	# _61->fld[0].rtuint, D.19310
	movl	%eax, %ecx	# D.19310, D.19311
	movq	-16(%rbp), %rax	# insn, tmp145
	movl	%ecx, %esi	# D.19311,
	movq	%rax, %rdi	# tmp145,
	call	handle_rd_kill_set	#
.L477:
.LBE30:
	.loc 1 2997 0
	addl	$1, -32(%rbp)	#, cuid
.L476:
	.loc 1 2997 0 is_stmt 0 discriminator 1
	movl	max_cuid(%rip), %eax	# max_cuid, max_cuid.336
	cmpl	%eax, -32(%rbp)	# max_cuid.336, cuid
	jl	.L487	#,
	.loc 1 2996 0 is_stmt 1
	addl	$1, -36(%rbp)	#, bb
.L475:
	.loc 1 2996 0 is_stmt 0 discriminator 1
	movl	n_basic_blocks(%rip), %eax	# n_basic_blocks, n_basic_blocks.337
	cmpl	%eax, -36(%rbp)	# n_basic_blocks.337, bb
	jl	.L488	#,
	.loc 1 3028 0 is_stmt 1
	leave
	.cfi_def_cfa 7, 8
	ret
	.cfi_endproc
.LFE60:
	.size	compute_kill_rd, .-compute_kill_rd
	.section	.rodata
	.align 8
.LC10:
	.string	"reaching def computation: %d passes\n"
	.text
	.type	compute_rd, @function
compute_rd:
.LFB61:
	.loc 1 3037 0
	.cfi_startproc
	pushq	%rbp	#
	.cfi_def_cfa_offset 16
	.cfi_offset 6, -16
	movq	%rsp, %rbp	#,
	.cfi_def_cfa_register 6
	subq	$16, %rsp	#,
	.loc 1 3040 0
	movl	$0, -12(%rbp)	#, bb
	jmp	.L490	#
.L491:
	.loc 1 3041 0 discriminator 2
	movq	rd_gen(%rip), %rax	# rd_gen, rd_gen.338
	movl	-12(%rbp), %edx	# bb, tmp100
	movslq	%edx, %rdx	# tmp100, D.19317
	salq	$3, %rdx	#, D.19317
	addq	%rdx, %rax	# D.19317, D.19318
	movq	(%rax), %rdx	# *_11, D.19319
	movq	rd_out(%rip), %rax	# rd_out, rd_out.339
	movl	-12(%rbp), %ecx	# bb, tmp101
	movslq	%ecx, %rcx	# tmp101, D.19317
	salq	$3, %rcx	#, D.19317
	addq	%rcx, %rax	# D.19317, D.19318
	movq	(%rax), %rax	# *_16, D.19319
	movq	%rdx, %rsi	# D.19319,
	movq	%rax, %rdi	# D.19319,
	call	sbitmap_copy	#
	.loc 1 3040 0 discriminator 2
	addl	$1, -12(%rbp)	#, bb
.L490:
	.loc 1 3040 0 is_stmt 0 discriminator 1
	movl	n_basic_blocks(%rip), %eax	# n_basic_blocks, n_basic_blocks.340
	cmpl	%eax, -12(%rbp)	# n_basic_blocks.340, bb
	jl	.L491	#,
	.loc 1 3043 0 is_stmt 1
	movl	$0, -4(%rbp)	#, passes
	.loc 1 3044 0
	movl	$1, -8(%rbp)	#, changed
	.loc 1 3045 0
	jmp	.L492	#
.L495:
	.loc 1 3047 0
	movl	$0, -8(%rbp)	#, changed
	.loc 1 3048 0
	movl	$0, -12(%rbp)	#, bb
	jmp	.L493	#
.L494:
	.loc 1 3050 0 discriminator 2
	movq	rd_out(%rip), %rcx	# rd_out, rd_out.341
	movq	reaching_defs(%rip), %rax	# reaching_defs, reaching_defs.342
	movl	-12(%rbp), %edx	# bb, tmp102
	movslq	%edx, %rdx	# tmp102, D.19317
	salq	$3, %rdx	#, D.19317
	addq	%rdx, %rax	# D.19317, D.19318
	movq	(%rax), %rax	# *_28, D.19319
	movl	-12(%rbp), %edx	# bb, tmp103
	movq	%rcx, %rsi	# rd_out.341,
	movq	%rax, %rdi	# D.19319,
	call	sbitmap_union_of_preds	#
	.loc 1 3052 0 discriminator 2
	movq	rd_kill(%rip), %rax	# rd_kill, rd_kill.343
	movl	-12(%rbp), %edx	# bb, tmp104
	movslq	%edx, %rdx	# tmp104, D.19317
	salq	$3, %rdx	#, D.19317
	addq	%rdx, %rax	# D.19317, D.19318
	.loc 1 3051 0 discriminator 2
	movq	(%rax), %rcx	# *_33, D.19319
	.loc 1 3052 0 discriminator 2
	movq	reaching_defs(%rip), %rax	# reaching_defs, reaching_defs.344
	movl	-12(%rbp), %edx	# bb, tmp105
	movslq	%edx, %rdx	# tmp105, D.19317
	salq	$3, %rdx	#, D.19317
	addq	%rdx, %rax	# D.19317, D.19318
	.loc 1 3051 0 discriminator 2
	movq	(%rax), %rdx	# *_38, D.19319
	movq	rd_gen(%rip), %rax	# rd_gen, rd_gen.345
	movl	-12(%rbp), %esi	# bb, tmp106
	movslq	%esi, %rsi	# tmp106, D.19317
	salq	$3, %rsi	#, D.19317
	addq	%rsi, %rax	# D.19317, D.19318
	movq	(%rax), %rsi	# *_43, D.19319
	movq	rd_out(%rip), %rax	# rd_out, rd_out.346
	movl	-12(%rbp), %edi	# bb, tmp107
	movslq	%edi, %rdi	# tmp107, D.19317
	salq	$3, %rdi	#, D.19317
	addq	%rdi, %rax	# D.19317, D.19318
	movq	(%rax), %rax	# *_48, D.19319
	movq	%rax, %rdi	# D.19319,
	call	sbitmap_union_of_diff	#
	orl	%eax, -8(%rbp)	# D.19320, changed
	.loc 1 3048 0 discriminator 2
	addl	$1, -12(%rbp)	#, bb
.L493:
	.loc 1 3048 0 is_stmt 0 discriminator 1
	movl	n_basic_blocks(%rip), %eax	# n_basic_blocks, n_basic_blocks.347
	cmpl	%eax, -12(%rbp)	# n_basic_blocks.347, bb
	jl	.L494	#,
	.loc 1 3054 0 is_stmt 1
	addl	$1, -4(%rbp)	#, passes
.L492:
	.loc 1 3045 0 discriminator 1
	cmpl	$0, -8(%rbp)	#, changed
	jne	.L495	#,
	.loc 1 3057 0
	movq	gcse_file(%rip), %rax	# gcse_file, gcse_file.348
	testq	%rax, %rax	# gcse_file.348
	je	.L489	#,
	.loc 1 3058 0
	movq	gcse_file(%rip), %rax	# gcse_file, gcse_file.349
	movl	-4(%rbp), %edx	# passes, tmp108
	movl	$.LC10, %esi	#,
	movq	%rax, %rdi	# gcse_file.349,
	movl	$0, %eax	#,
	call	fprintf	#
.L489:
	.loc 1 3059 0
	leave
	.cfi_def_cfa 7, 8
	ret
	.cfi_endproc
.LFE61:
	.size	compute_rd, .-compute_rd
	.type	alloc_avail_expr_mem, @function
alloc_avail_expr_mem:
.LFB62:
	.loc 1 3068 0
	.cfi_startproc
	pushq	%rbp	#
	.cfi_def_cfa_offset 16
	.cfi_offset 6, -16
	movq	%rsp, %rbp	#,
	.cfi_def_cfa_register 6
	subq	$16, %rsp	#,
	movl	%edi, -4(%rbp)	# n_blocks, n_blocks
	movl	%esi, -8(%rbp)	# n_exprs, n_exprs
	.loc 1 3069 0
	movl	-8(%rbp), %edx	# n_exprs, n_exprs.350
	movl	-4(%rbp), %eax	# n_blocks, n_blocks.351
	movl	%edx, %esi	# n_exprs.350,
	movl	%eax, %edi	# n_blocks.351,
	call	sbitmap_vector_alloc	#
	movq	%rax, ae_kill(%rip)	# ae_kill.352, ae_kill
	.loc 1 3070 0
	movl	n_basic_blocks(%rip), %eax	# n_basic_blocks, n_basic_blocks.353
	movl	%eax, %edx	# n_basic_blocks.353, n_basic_blocks.354
	movq	ae_kill(%rip), %rax	# ae_kill, ae_kill.355
	movl	%edx, %esi	# n_basic_blocks.354,
	movq	%rax, %rdi	# ae_kill.355,
	call	sbitmap_vector_zero	#
	.loc 1 3072 0
	movl	-8(%rbp), %edx	# n_exprs, n_exprs.356
	movl	-4(%rbp), %eax	# n_blocks, n_blocks.357
	movl	%edx, %esi	# n_exprs.356,
	movl	%eax, %edi	# n_blocks.357,
	call	sbitmap_vector_alloc	#
	movq	%rax, ae_gen(%rip)	# ae_gen.358, ae_gen
	.loc 1 3073 0
	movl	n_basic_blocks(%rip), %eax	# n_basic_blocks, n_basic_blocks.359
	movl	%eax, %edx	# n_basic_blocks.359, n_basic_blocks.360
	movq	ae_gen(%rip), %rax	# ae_gen, ae_gen.361
	movl	%edx, %esi	# n_basic_blocks.360,
	movq	%rax, %rdi	# ae_gen.361,
	call	sbitmap_vector_zero	#
	.loc 1 3075 0
	movl	-8(%rbp), %edx	# n_exprs, n_exprs.362
	movl	-4(%rbp), %eax	# n_blocks, n_blocks.363
	movl	%edx, %esi	# n_exprs.362,
	movl	%eax, %edi	# n_blocks.363,
	call	sbitmap_vector_alloc	#
	movq	%rax, ae_in(%rip)	# ae_in.364, ae_in
	.loc 1 3076 0
	movl	n_basic_blocks(%rip), %eax	# n_basic_blocks, n_basic_blocks.365
	movl	%eax, %edx	# n_basic_blocks.365, n_basic_blocks.366
	movq	ae_in(%rip), %rax	# ae_in, ae_in.367
	movl	%edx, %esi	# n_basic_blocks.366,
	movq	%rax, %rdi	# ae_in.367,
	call	sbitmap_vector_zero	#
	.loc 1 3078 0
	movl	-8(%rbp), %edx	# n_exprs, n_exprs.368
	movl	-4(%rbp), %eax	# n_blocks, n_blocks.369
	movl	%edx, %esi	# n_exprs.368,
	movl	%eax, %edi	# n_blocks.369,
	call	sbitmap_vector_alloc	#
	movq	%rax, ae_out(%rip)	# ae_out.370, ae_out
	.loc 1 3079 0
	movl	n_basic_blocks(%rip), %eax	# n_basic_blocks, n_basic_blocks.371
	movl	%eax, %edx	# n_basic_blocks.371, n_basic_blocks.372
	movq	ae_out(%rip), %rax	# ae_out, ae_out.373
	movl	%edx, %esi	# n_basic_blocks.372,
	movq	%rax, %rdi	# ae_out.373,
	call	sbitmap_vector_zero	#
	.loc 1 3080 0
	leave
	.cfi_def_cfa 7, 8
	ret
	.cfi_endproc
.LFE62:
	.size	alloc_avail_expr_mem, .-alloc_avail_expr_mem
	.type	free_avail_expr_mem, @function
free_avail_expr_mem:
.LFB63:
	.loc 1 3084 0
	.cfi_startproc
	pushq	%rbp	#
	.cfi_def_cfa_offset 16
	.cfi_offset 6, -16
	movq	%rsp, %rbp	#,
	.cfi_def_cfa_register 6
	.loc 1 3085 0
	movq	ae_kill(%rip), %rax	# ae_kill, ae_kill.374
	movq	%rax, %rdi	# ae_kill.374,
	call	free	#
	.loc 1 3086 0
	movq	ae_gen(%rip), %rax	# ae_gen, ae_gen.375
	movq	%rax, %rdi	# ae_gen.375,
	call	free	#
	.loc 1 3087 0
	movq	ae_in(%rip), %rax	# ae_in, ae_in.376
	movq	%rax, %rdi	# ae_in.376,
	call	free	#
	.loc 1 3088 0
	movq	ae_out(%rip), %rax	# ae_out, ae_out.377
	movq	%rax, %rdi	# ae_out.377,
	call	free	#
	.loc 1 3089 0
	popq	%rbp	#
	.cfi_def_cfa 7, 8
	ret
	.cfi_endproc
.LFE63:
	.size	free_avail_expr_mem, .-free_avail_expr_mem
	.type	compute_ae_gen, @function
compute_ae_gen:
.LFB64:
	.loc 1 3095 0
	.cfi_startproc
	pushq	%rbp	#
	.cfi_def_cfa_offset 16
	.cfi_offset 6, -16
	movq	%rsp, %rbp	#,
	.cfi_def_cfa_register 6
	.loc 1 3104 0
	movl	$0, -20(%rbp)	#, i
	jmp	.L500	#
.L505:
	.loc 1 3105 0
	movq	expr_hash_table(%rip), %rax	# expr_hash_table, expr_hash_table.378
	movl	-20(%rbp), %edx	# i, D.19322
	salq	$3, %rdx	#, D.19322
	addq	%rdx, %rax	# D.19322, D.19323
	movq	(%rax), %rax	# *_9, tmp92
	movq	%rax, -16(%rbp)	# tmp92, expr
	jmp	.L501	#
.L504:
	.loc 1 3106 0
	movq	-16(%rbp), %rax	# expr, tmp93
	movq	32(%rax), %rax	# expr_2->avail_occr, tmp94
	movq	%rax, -8(%rbp)	# tmp94, occr
	jmp	.L502	#
.L503:
	.loc 1 3107 0 discriminator 2
	movq	ae_gen(%rip), %rcx	# ae_gen, ae_gen.379
	movq	basic_block_for_insn(%rip), %rax	# basic_block_for_insn, basic_block_for_insn.380
	movq	-8(%rbp), %rdx	# occr, tmp95
	movq	8(%rdx), %rdx	# occr_3->insn, D.19324
	movl	8(%rdx), %edx	# _14->fld[0].rtint, D.19325
	movslq	%edx, %rdx	# D.19325, tmp96
	addq	$4, %rdx	#, tmp97
	movq	(%rax,%rdx,8), %rax	# basic_block_for_insn.380_13->data.bb, D.19326
	movl	88(%rax), %eax	# _16->index, D.19325
	cltq
	salq	$3, %rax	#, D.19322
	addq	%rcx, %rax	# ae_gen.379, D.19327
	movq	(%rax), %rdx	# *_20, D.19328
	movq	-16(%rbp), %rax	# expr, tmp98
	movl	8(%rax), %eax	# expr_2->bitmap_index, D.19325
	shrl	$6, %eax	#, D.19329
	movq	ae_gen(%rip), %rdi	# ae_gen, ae_gen.381
	movq	basic_block_for_insn(%rip), %rcx	# basic_block_for_insn, basic_block_for_insn.382
	movq	-8(%rbp), %rsi	# occr, tmp99
	movq	8(%rsi), %rsi	# occr_3->insn, D.19324
	movl	8(%rsi), %esi	# _27->fld[0].rtint, D.19325
	movslq	%esi, %rsi	# D.19325, tmp100
	addq	$4, %rsi	#, tmp101
	movq	(%rcx,%rsi,8), %rcx	# basic_block_for_insn.382_26->data.bb, D.19326
	movl	88(%rcx), %ecx	# _29->index, D.19325
	movslq	%ecx, %rcx	# D.19325, D.19322
	salq	$3, %rcx	#, D.19322
	addq	%rdi, %rcx	# ae_gen.381, D.19327
	movq	(%rcx), %rcx	# *_33, D.19328
	movl	%eax, %esi	# D.19329, tmp102
	addq	$2, %rsi	#, tmp103
	movq	(%rcx,%rsi,8), %rsi	# _34->elms, D.19322
	movq	-16(%rbp), %rcx	# expr, tmp104
	movl	8(%rcx), %ecx	# expr_2->bitmap_index, D.19325
	andl	$63, %ecx	#, D.19325
	movl	$1, %edi	#, tmp105
	salq	%cl, %rdi	# D.19325, D.19322
	movq	%rdi, %rcx	# D.19322, D.19322
	orq	%rsi, %rcx	# D.19322, D.19322
	movl	%eax, %eax	# D.19329, tmp106
	addq	$2, %rax	#, tmp107
	movq	%rcx, (%rdx,%rax,8)	# D.19322, _21->elms
	.loc 1 3106 0 discriminator 2
	movq	-8(%rbp), %rax	# occr, tmp108
	movq	(%rax), %rax	# occr_3->next, tmp109
	movq	%rax, -8(%rbp)	# tmp109, occr
.L502:
	.loc 1 3106 0 is_stmt 0 discriminator 1
	cmpq	$0, -8(%rbp)	#, occr
	jne	.L503	#,
	.loc 1 3105 0 is_stmt 1
	movq	-16(%rbp), %rax	# expr, tmp110
	movq	16(%rax), %rax	# expr_2->next_same_hash, tmp111
	movq	%rax, -16(%rbp)	# tmp111, expr
.L501:
	.loc 1 3105 0 is_stmt 0 discriminator 1
	cmpq	$0, -16(%rbp)	#, expr
	jne	.L504	#,
	.loc 1 3104 0 is_stmt 1
	addl	$1, -20(%rbp)	#, i
.L500:
	.loc 1 3104 0 is_stmt 0 discriminator 1
	movl	expr_hash_table_size(%rip), %eax	# expr_hash_table_size, expr_hash_table_size.383
	cmpl	%eax, -20(%rbp)	# expr_hash_table_size.383, i
	jb	.L505	#,
	.loc 1 3108 0 is_stmt 1
	popq	%rbp	#
	.cfi_def_cfa 7, 8
	ret
	.cfi_endproc
.LFE64:
	.size	compute_ae_gen, .-compute_ae_gen
	.type	expr_killed_p, @function
expr_killed_p:
.LFB65:
	.loc 1 3116 0
	.cfi_startproc
	pushq	%rbp	#
	.cfi_def_cfa_offset 16
	.cfi_offset 6, -16
	movq	%rsp, %rbp	#,
	.cfi_def_cfa_register 6
	subq	$48, %rsp	#,
	movq	%rdi, -40(%rbp)	# x, x
	movq	%rsi, -48(%rbp)	# bb, bb
	.loc 1 3121 0
	cmpq	$0, -40(%rbp)	#, x
	jne	.L507	#,
	.loc 1 3122 0
	movl	$1, %eax	#, D.19330
	jmp	.L508	#
.L507:
	.loc 1 3124 0
	movq	-40(%rbp), %rax	# x, tmp98
	movzwl	(%rax), %eax	# x_4(D)->code, D.19331
	movzwl	%ax, %eax	# D.19331, tmp99
	movl	%eax, -12(%rbp)	# tmp99, code
	.loc 1 3125 0
	movl	-12(%rbp), %eax	# code, tmp101
	subl	$44, %eax	#, tmp100
	cmpl	$25, %eax	#, tmp100
	ja	.L524	#,
	movl	%eax, %eax	# tmp100, tmp102
	movq	.L511(,%rax,8), %rax	#, tmp103
	jmp	*%rax	# tmp103
	.section	.rodata
	.align 8
	.align 4
.L511:
	.quad	.L510
	.quad	.L510
	.quad	.L524
	.quad	.L524
	.quad	.L524
	.quad	.L524
	.quad	.L524
	.quad	.L524
	.quad	.L524
	.quad	.L524
	.quad	.L510
	.quad	.L510
	.quad	.L510
	.quad	.L524
	.quad	.L510
	.quad	.L510
	.quad	.L524
	.quad	.L512
	.quad	.L524
	.quad	.L524
	.quad	.L524
	.quad	.L524
	.quad	.L513
	.quad	.L510
	.quad	.L510
	.quad	.L510
	.text
.L512:
	.loc 1 3128 0
	movq	reg_set_in_block(%rip), %rdx	# reg_set_in_block, reg_set_in_block.384
	movq	-48(%rbp), %rax	# bb, tmp104
	movl	88(%rax), %eax	# bb_9(D)->index, D.19330
	cltq
	salq	$3, %rax	#, D.19332
	addq	%rdx, %rax	# reg_set_in_block.384, D.19333
	movq	(%rax), %rax	# *_13, D.19334
	movq	-40(%rbp), %rdx	# x, tmp105
	movl	8(%rdx), %edx	# x_4(D)->fld[0].rtuint, D.19335
	shrl	$6, %edx	#, D.19335
	movl	%edx, %edx	# D.19335, tmp106
	addq	$2, %rdx	#, tmp107
	movq	(%rax,%rdx,8), %rdx	# _14->elms, D.19332
	movq	-40(%rbp), %rax	# x, tmp108
	movl	8(%rax), %eax	# x_4(D)->fld[0].rtuint, D.19335
	andl	$63, %eax	#, D.19330
	movl	%eax, %ecx	# D.19330, tmp140
	shrq	%cl, %rdx	# tmp140, D.19332
	movq	%rdx, %rax	# D.19332, D.19332
	andl	$1, %eax	#, D.19330
	jmp	.L508	#
.L513:
	.loc 1 3131 0
	call	get_max_uid	#
	leal	1(%rax), %esi	#, D.19330
	movq	-40(%rbp), %rdx	# x, tmp109
	movq	-48(%rbp), %rax	# bb, tmp110
	movl	$0, %ecx	#,
	movq	%rax, %rdi	# tmp110,
	call	load_killed_in_block_p	#
	testl	%eax, %eax	# D.19330
	je	.L514	#,
	.loc 1 3132 0
	movl	$1, %eax	#, D.19330
	jmp	.L508	#
.L514:
	.loc 1 3134 0
	movq	-40(%rbp), %rax	# x, tmp111
	movq	8(%rax), %rax	# x_4(D)->fld[0].rtx, D.19336
	movq	-48(%rbp), %rdx	# bb, tmp112
	movq	%rdx, %rsi	# tmp112,
	movq	%rax, %rdi	# D.19336,
	call	expr_killed_p	#
	jmp	.L508	#
.L510:
	.loc 1 3146 0
	movl	$0, %eax	#, D.19330
	jmp	.L508	#
.L524:
	.loc 1 3149 0
	nop
	.loc 1 3152 0
	movl	-12(%rbp), %eax	# code, code.385
	cltq
	movzbl	rtx_length(%rax), %eax	# rtx_length, D.19337
	movzbl	%al, %eax	# D.19337, D.19330
	subl	$1, %eax	#, tmp114
	movl	%eax, -20(%rbp)	# tmp114, i
	movl	-12(%rbp), %eax	# code, code.386
	cltq
	movq	rtx_format(,%rax,8), %rax	# rtx_format, tmp116
	movq	%rax, -8(%rbp)	# tmp116, fmt
	jmp	.L515	#
.L522:
	.loc 1 3154 0
	movl	-20(%rbp), %eax	# i, tmp117
	movslq	%eax, %rdx	# tmp117, D.19338
	movq	-8(%rbp), %rax	# fmt, tmp118
	addq	%rdx, %rax	# D.19338, D.19339
	movzbl	(%rax), %eax	# *_38, D.19340
	cmpb	$101, %al	#, D.19340
	jne	.L516	#,
	.loc 1 3159 0
	cmpl	$0, -20(%rbp)	#, i
	jne	.L517	#,
	.loc 1 3160 0
	movq	-40(%rbp), %rax	# x, tmp119
	movl	-20(%rbp), %edx	# i, tmp121
	movslq	%edx, %rdx	# tmp121, tmp120
	movq	8(%rax,%rdx,8), %rax	# x_4(D)->fld[i_1].rtx, D.19336
	movq	-48(%rbp), %rdx	# bb, tmp122
	movq	%rdx, %rsi	# tmp122,
	movq	%rax, %rdi	# D.19336,
	call	expr_killed_p	#
	jmp	.L508	#
.L517:
	.loc 1 3161 0
	movq	-40(%rbp), %rax	# x, tmp123
	movl	-20(%rbp), %edx	# i, tmp125
	movslq	%edx, %rdx	# tmp125, tmp124
	movq	8(%rax,%rdx,8), %rax	# x_4(D)->fld[i_1].rtx, D.19336
	movq	-48(%rbp), %rdx	# bb, tmp126
	movq	%rdx, %rsi	# tmp126,
	movq	%rax, %rdi	# D.19336,
	call	expr_killed_p	#
	testl	%eax, %eax	# D.19330
	je	.L518	#,
	.loc 1 3162 0
	movl	$1, %eax	#, D.19330
	jmp	.L508	#
.L516:
	.loc 1 3164 0
	movl	-20(%rbp), %eax	# i, tmp127
	movslq	%eax, %rdx	# tmp127, D.19338
	movq	-8(%rbp), %rax	# fmt, tmp128
	addq	%rdx, %rax	# D.19338, D.19339
	movzbl	(%rax), %eax	# *_46, D.19340
	cmpb	$69, %al	#, D.19340
	jne	.L518	#,
	.loc 1 3165 0
	movl	$0, -16(%rbp)	#, j
	jmp	.L519	#
.L521:
	.loc 1 3166 0
	movq	-40(%rbp), %rax	# x, tmp129
	movl	-20(%rbp), %edx	# i, tmp131
	movslq	%edx, %rdx	# tmp131, tmp130
	movq	8(%rax,%rdx,8), %rax	# x_4(D)->fld[i_1].rtvec, D.19341
	movl	-16(%rbp), %edx	# j, tmp133
	movslq	%edx, %rdx	# tmp133, tmp132
	movq	8(%rax,%rdx,8), %rax	# _51->elem, D.19336
	movq	-48(%rbp), %rdx	# bb, tmp134
	movq	%rdx, %rsi	# tmp134,
	movq	%rax, %rdi	# D.19336,
	call	expr_killed_p	#
	testl	%eax, %eax	# D.19330
	je	.L520	#,
	.loc 1 3167 0
	movl	$1, %eax	#, D.19330
	jmp	.L508	#
.L520:
	.loc 1 3165 0
	addl	$1, -16(%rbp)	#, j
.L519:
	.loc 1 3165 0 is_stmt 0 discriminator 1
	movq	-40(%rbp), %rax	# x, tmp135
	movl	-20(%rbp), %edx	# i, tmp137
	movslq	%edx, %rdx	# tmp137, tmp136
	movq	8(%rax,%rdx,8), %rax	# x_4(D)->fld[i_1].rtvec, D.19341
	movl	(%rax), %eax	# _49->num_elem, D.19330
	cmpl	-16(%rbp), %eax	# j, D.19330
	jg	.L521	#,
.L518:
	.loc 1 3152 0 is_stmt 1
	subl	$1, -20(%rbp)	#, i
.L515:
	.loc 1 3152 0 is_stmt 0 discriminator 1
	cmpl	$0, -20(%rbp)	#, i
	jns	.L522	#,
	.loc 1 3170 0 is_stmt 1
	movl	$0, %eax	#, D.19330
.L508:
	.loc 1 3171 0
	leave
	.cfi_def_cfa 7, 8
	ret
	.cfi_endproc
.LFE65:
	.size	expr_killed_p, .-expr_killed_p
	.type	compute_ae_kill, @function
compute_ae_kill:
.LFB66:
	.loc 1 3178 0
	.cfi_startproc
	pushq	%rbp	#
	.cfi_def_cfa_offset 16
	.cfi_offset 6, -16
	movq	%rsp, %rbp	#,
	.cfi_def_cfa_register 6
	subq	$32, %rsp	#,
	movq	%rdi, -24(%rbp)	# ae_gen, ae_gen
	movq	%rsi, -32(%rbp)	# ae_kill, ae_kill
	.loc 1 3183 0
	movl	$0, -16(%rbp)	#, bb
	jmp	.L526	#
.L533:
	.loc 1 3184 0
	movl	$0, -12(%rbp)	#, i
	jmp	.L527	#
.L532:
	.loc 1 3185 0
	movq	expr_hash_table(%rip), %rax	# expr_hash_table, expr_hash_table.387
	movl	-12(%rbp), %edx	# i, D.19342
	salq	$3, %rdx	#, D.19342
	addq	%rdx, %rax	# D.19342, D.19343
	movq	(%rax), %rax	# *_11, tmp97
	movq	%rax, -8(%rbp)	# tmp97, expr
	jmp	.L528	#
.L531:
	.loc 1 3188 0
	movl	-16(%rbp), %eax	# bb, tmp98
	cltq
	leaq	0(,%rax,8), %rdx	#, D.19342
	movq	-24(%rbp), %rax	# ae_gen, tmp99
	addq	%rdx, %rax	# D.19342, D.19344
	movq	(%rax), %rax	# *_16, D.19345
	movq	-8(%rbp), %rdx	# expr, tmp100
	movl	8(%rdx), %edx	# expr_3->bitmap_index, D.19346
	shrl	$6, %edx	#, D.19347
	movl	%edx, %edx	# D.19347, tmp101
	addq	$2, %rdx	#, tmp102
	movq	(%rax,%rdx,8), %rdx	# _17->elms, D.19342
	movq	-8(%rbp), %rax	# expr, tmp103
	movl	8(%rax), %eax	# expr_3->bitmap_index, D.19346
	andl	$63, %eax	#, D.19346
	movl	%eax, %ecx	# D.19346, tmp122
	shrq	%cl, %rdx	# tmp122, D.19342
	movq	%rdx, %rax	# D.19342, D.19342
	andl	$1, %eax	#, D.19342
	testq	%rax, %rax	# D.19342
	je	.L529	#,
	.loc 1 3189 0
	jmp	.L530	#
.L529:
	.loc 1 3191 0
	movq	basic_block_info(%rip), %rax	# basic_block_info, basic_block_info.388
	movl	-16(%rbp), %edx	# bb, tmp105
	movslq	%edx, %rdx	# tmp105, tmp104
	addq	$4, %rdx	#, tmp106
	movq	(%rax,%rdx,8), %rdx	# basic_block_info.388_26->data.bb, D.19348
	movq	-8(%rbp), %rax	# expr, tmp107
	movq	(%rax), %rax	# expr_3->expr, D.19349
	movq	%rdx, %rsi	# D.19348,
	movq	%rax, %rdi	# D.19349,
	call	expr_killed_p	#
	testl	%eax, %eax	# D.19346
	je	.L530	#,
	.loc 1 3192 0
	movl	-16(%rbp), %eax	# bb, tmp108
	cltq
	leaq	0(,%rax,8), %rdx	#, D.19342
	movq	-32(%rbp), %rax	# ae_kill, tmp109
	addq	%rdx, %rax	# D.19342, D.19344
	movq	(%rax), %rdx	# *_33, D.19345
	movq	-8(%rbp), %rax	# expr, tmp110
	movl	8(%rax), %eax	# expr_3->bitmap_index, D.19346
	shrl	$6, %eax	#, D.19347
	movl	-16(%rbp), %ecx	# bb, tmp111
	movslq	%ecx, %rcx	# tmp111, D.19342
	leaq	0(,%rcx,8), %rsi	#, D.19342
	movq	-32(%rbp), %rcx	# ae_kill, tmp112
	addq	%rsi, %rcx	# D.19342, D.19344
	movq	(%rcx), %rcx	# *_40, D.19345
	movl	%eax, %esi	# D.19347, tmp113
	addq	$2, %rsi	#, tmp114
	movq	(%rcx,%rsi,8), %rsi	# _41->elms, D.19342
	movq	-8(%rbp), %rcx	# expr, tmp115
	movl	8(%rcx), %ecx	# expr_3->bitmap_index, D.19346
	andl	$63, %ecx	#, D.19346
	movl	$1, %edi	#, tmp116
	salq	%cl, %rdi	# D.19346, D.19342
	movq	%rdi, %rcx	# D.19342, D.19342
	orq	%rsi, %rcx	# D.19342, D.19342
	movl	%eax, %eax	# D.19347, tmp117
	addq	$2, %rax	#, tmp118
	movq	%rcx, (%rdx,%rax,8)	# D.19342, _34->elms
.L530:
	.loc 1 3185 0
	movq	-8(%rbp), %rax	# expr, tmp119
	movq	16(%rax), %rax	# expr_3->next_same_hash, tmp120
	movq	%rax, -8(%rbp)	# tmp120, expr
.L528:
	.loc 1 3185 0 is_stmt 0 discriminator 1
	cmpq	$0, -8(%rbp)	#, expr
	jne	.L531	#,
	.loc 1 3184 0 is_stmt 1
	addl	$1, -12(%rbp)	#, i
.L527:
	.loc 1 3184 0 is_stmt 0 discriminator 1
	movl	expr_hash_table_size(%rip), %eax	# expr_hash_table_size, expr_hash_table_size.389
	cmpl	%eax, -12(%rbp)	# expr_hash_table_size.389, i
	jb	.L532	#,
	.loc 1 3183 0 is_stmt 1
	addl	$1, -16(%rbp)	#, bb
.L526:
	.loc 1 3183 0 is_stmt 0 discriminator 1
	movl	n_basic_blocks(%rip), %eax	# n_basic_blocks, n_basic_blocks.390
	cmpl	%eax, -16(%rbp)	# n_basic_blocks.390, bb
	jl	.L533	#,
	.loc 1 3194 0 is_stmt 1
	leave
	.cfi_def_cfa 7, 8
	ret
	.cfi_endproc
.LFE66:
	.size	compute_ae_kill, .-compute_ae_kill
	.type	expr_reaches_here_p_work, @function
expr_reaches_here_p_work:
.LFB67:
	.loc 1 3221 0
	.cfi_startproc
	pushq	%rbp	#
	.cfi_def_cfa_offset 16
	.cfi_offset 6, -16
	movq	%rsp, %rbp	#,
	.cfi_def_cfa_register 6
	subq	$64, %rsp	#,
	movq	%rdi, -24(%rbp)	# occr, occr
	movq	%rsi, -32(%rbp)	# expr, expr
	movq	%rdx, -40(%rbp)	# bb, bb
	movl	%ecx, -44(%rbp)	# check_self_loop, check_self_loop
	movq	%r8, -56(%rbp)	# visited, visited
	.loc 1 3224 0
	movq	-40(%rbp), %rax	# bb, tmp132
	movq	32(%rax), %rax	# bb_3(D)->pred, tmp133
	movq	%rax, -16(%rbp)	# tmp133, pred
	jmp	.L535	#
.L543:
.LBB32:
	.loc 1 3226 0
	movq	-16(%rbp), %rax	# pred, tmp134
	movq	16(%rax), %rax	# pred_1->src, tmp135
	movq	%rax, -8(%rbp)	# tmp135, pred_bb
	.loc 1 3228 0
	movq	-8(%rbp), %rax	# pred_bb, tmp136
	movl	88(%rax), %eax	# pred_bb_5->index, D.19350
	movslq	%eax, %rdx	# D.19350, D.19351
	movq	-56(%rbp), %rax	# visited, tmp137
	addq	%rdx, %rax	# D.19351, D.19352
	movzbl	(%rax), %eax	# *_9, D.19353
	testb	%al, %al	# D.19353
	jne	.L536	#,
	.loc 1 3231 0
	movq	-8(%rbp), %rax	# pred_bb, tmp138
	cmpq	-40(%rbp), %rax	# bb, tmp138
	jne	.L537	#,
	.loc 1 3234 0
	cmpl	$0, -44(%rbp)	#, check_self_loop
	je	.L538	#,
	.loc 1 3235 0
	movq	ae_gen(%rip), %rdx	# ae_gen, ae_gen.391
	movq	-8(%rbp), %rax	# pred_bb, tmp139
	movl	88(%rax), %eax	# pred_bb_5->index, D.19350
	cltq
	salq	$3, %rax	#, D.19354
	addq	%rdx, %rax	# ae_gen.391, D.19355
	movq	(%rax), %rax	# *_16, D.19356
	movq	-32(%rbp), %rdx	# expr, tmp140
	movl	8(%rdx), %edx	# expr_18(D)->bitmap_index, D.19350
	shrl	$6, %edx	#, D.19357
	movl	%edx, %edx	# D.19357, tmp141
	addq	$2, %rdx	#, tmp142
	movq	(%rax,%rdx,8), %rdx	# _17->elms, D.19354
	movq	-32(%rbp), %rax	# expr, tmp143
	movl	8(%rax), %eax	# expr_18(D)->bitmap_index, D.19350
	andl	$63, %eax	#, D.19350
	movl	%eax, %ecx	# D.19350, tmp179
	shrq	%cl, %rdx	# tmp179, D.19354
	movq	%rdx, %rax	# D.19354, D.19354
	andl	$1, %eax	#, D.19354
	testq	%rax, %rax	# D.19354
	je	.L538	#,
	.loc 1 3236 0
	movq	basic_block_for_insn(%rip), %rax	# basic_block_for_insn, basic_block_for_insn.392
	movq	-24(%rbp), %rdx	# occr, tmp144
	movq	8(%rdx), %rdx	# occr_28(D)->insn, D.19358
	movl	8(%rdx), %edx	# _29->fld[0].rtint, D.19350
	movslq	%edx, %rdx	# D.19350, tmp145
	addq	$4, %rdx	#, tmp146
	movq	(%rax,%rdx,8), %rax	# basic_block_for_insn.392_27->data.bb, D.19359
	movl	88(%rax), %edx	# _31->index, D.19350
	movq	-8(%rbp), %rax	# pred_bb, tmp147
	movl	88(%rax), %eax	# pred_bb_5->index, D.19350
	cmpl	%eax, %edx	# D.19350, D.19350
	jne	.L538	#,
	.loc 1 3237 0
	movl	$1, %eax	#, D.19350
	jmp	.L539	#
.L538:
	.loc 1 3239 0
	movq	-8(%rbp), %rax	# pred_bb, tmp148
	movl	88(%rax), %eax	# pred_bb_5->index, D.19350
	movslq	%eax, %rdx	# D.19350, D.19351
	movq	-56(%rbp), %rax	# visited, tmp149
	addq	%rdx, %rax	# D.19351, D.19352
	movb	$1, (%rax)	#, *_37
	jmp	.L536	#
.L537:
	.loc 1 3243 0
	movq	ae_kill(%rip), %rdx	# ae_kill, ae_kill.393
	movq	-8(%rbp), %rax	# pred_bb, tmp150
	movl	88(%rax), %eax	# pred_bb_5->index, D.19350
	cltq
	salq	$3, %rax	#, D.19354
	addq	%rdx, %rax	# ae_kill.393, D.19355
	movq	(%rax), %rax	# *_42, D.19356
	movq	-32(%rbp), %rdx	# expr, tmp151
	movl	8(%rdx), %edx	# expr_18(D)->bitmap_index, D.19350
	shrl	$6, %edx	#, D.19357
	movl	%edx, %edx	# D.19357, tmp152
	addq	$2, %rdx	#, tmp153
	movq	(%rax,%rdx,8), %rdx	# _43->elms, D.19354
	movq	-32(%rbp), %rax	# expr, tmp154
	movl	8(%rax), %eax	# expr_18(D)->bitmap_index, D.19350
	andl	$63, %eax	#, D.19350
	movl	%eax, %ecx	# D.19350, tmp181
	shrq	%cl, %rdx	# tmp181, D.19354
	movq	%rdx, %rax	# D.19354, D.19354
	andl	$1, %eax	#, D.19354
	testq	%rax, %rax	# D.19354
	je	.L540	#,
	.loc 1 3244 0
	movq	-8(%rbp), %rax	# pred_bb, tmp155
	movl	88(%rax), %eax	# pred_bb_5->index, D.19350
	movslq	%eax, %rdx	# D.19350, D.19351
	movq	-56(%rbp), %rax	# visited, tmp156
	addq	%rdx, %rax	# D.19351, D.19352
	movb	$1, (%rax)	#, *_54
	jmp	.L536	#
.L540:
	.loc 1 3247 0
	movq	ae_gen(%rip), %rdx	# ae_gen, ae_gen.394
	movq	-8(%rbp), %rax	# pred_bb, tmp157
	movl	88(%rax), %eax	# pred_bb_5->index, D.19350
	cltq
	salq	$3, %rax	#, D.19354
	addq	%rdx, %rax	# ae_gen.394, D.19355
	movq	(%rax), %rax	# *_59, D.19356
	movq	-32(%rbp), %rdx	# expr, tmp158
	movl	8(%rdx), %edx	# expr_18(D)->bitmap_index, D.19350
	shrl	$6, %edx	#, D.19357
	movl	%edx, %edx	# D.19357, tmp159
	addq	$2, %rdx	#, tmp160
	movq	(%rax,%rdx,8), %rdx	# _60->elms, D.19354
	movq	-32(%rbp), %rax	# expr, tmp161
	movl	8(%rax), %eax	# expr_18(D)->bitmap_index, D.19350
	andl	$63, %eax	#, D.19350
	movl	%eax, %ecx	# D.19350, tmp183
	shrq	%cl, %rdx	# tmp183, D.19354
	movq	%rdx, %rax	# D.19354, D.19354
	andl	$1, %eax	#, D.19354
	testq	%rax, %rax	# D.19354
	je	.L541	#,
	.loc 1 3252 0
	movq	basic_block_for_insn(%rip), %rax	# basic_block_for_insn, basic_block_for_insn.395
	movq	-24(%rbp), %rdx	# occr, tmp162
	movq	8(%rdx), %rdx	# occr_28(D)->insn, D.19358
	movl	8(%rdx), %edx	# _70->fld[0].rtint, D.19350
	movslq	%edx, %rdx	# D.19350, tmp163
	addq	$4, %rdx	#, tmp164
	movq	(%rax,%rdx,8), %rax	# basic_block_for_insn.395_69->data.bb, D.19359
	movl	88(%rax), %edx	# _72->index, D.19350
	movq	-8(%rbp), %rax	# pred_bb, tmp165
	movl	88(%rax), %eax	# pred_bb_5->index, D.19350
	cmpl	%eax, %edx	# D.19350, D.19350
	jne	.L542	#,
	.loc 1 3253 0
	movl	$1, %eax	#, D.19350
	jmp	.L539	#
.L542:
	.loc 1 3255 0
	movq	-8(%rbp), %rax	# pred_bb, tmp166
	movl	88(%rax), %eax	# pred_bb_5->index, D.19350
	movslq	%eax, %rdx	# D.19350, D.19351
	movq	-56(%rbp), %rax	# visited, tmp167
	addq	%rdx, %rax	# D.19351, D.19352
	movb	$1, (%rax)	#, *_78
	jmp	.L536	#
.L541:
	.loc 1 3261 0
	movq	-8(%rbp), %rax	# pred_bb, tmp168
	movl	88(%rax), %eax	# pred_bb_5->index, D.19350
	movslq	%eax, %rdx	# D.19350, D.19351
	movq	-56(%rbp), %rax	# visited, tmp169
	addq	%rdx, %rax	# D.19351, D.19352
	movb	$1, (%rax)	#, *_81
	.loc 1 3262 0
	movq	-56(%rbp), %rdi	# visited, tmp170
	movl	-44(%rbp), %ecx	# check_self_loop, tmp171
	movq	-8(%rbp), %rdx	# pred_bb, tmp172
	movq	-32(%rbp), %rsi	# expr, tmp173
	movq	-24(%rbp), %rax	# occr, tmp174
	movq	%rdi, %r8	# tmp170,
	movq	%rax, %rdi	# tmp174,
	call	expr_reaches_here_p_work	#
	testl	%eax, %eax	# D.19350
	je	.L536	#,
	.loc 1 3265 0
	movl	$1, %eax	#, D.19350
	jmp	.L539	#
.L536:
.LBE32:
	.loc 1 3224 0
	movq	-16(%rbp), %rax	# pred, tmp175
	movq	(%rax), %rax	# pred_1->pred_next, tmp176
	movq	%rax, -16(%rbp)	# tmp176, pred
.L535:
	.loc 1 3224 0 is_stmt 0 discriminator 1
	cmpq	$0, -16(%rbp)	#, pred
	jne	.L543	#,
	.loc 1 3270 0 is_stmt 1
	movl	$0, %eax	#, D.19350
.L539:
	.loc 1 3271 0
	leave
	.cfi_def_cfa 7, 8
	ret
	.cfi_endproc
.LFE67:
	.size	expr_reaches_here_p_work, .-expr_reaches_here_p_work
	.type	expr_reaches_here_p, @function
expr_reaches_here_p:
.LFB68:
	.loc 1 3282 0
	.cfi_startproc
	pushq	%rbp	#
	.cfi_def_cfa_offset 16
	.cfi_offset 6, -16
	movq	%rsp, %rbp	#,
	.cfi_def_cfa_register 6
	subq	$48, %rsp	#,
	movq	%rdi, -24(%rbp)	# occr, occr
	movq	%rsi, -32(%rbp)	# expr, expr
	movq	%rdx, -40(%rbp)	# bb, bb
	movl	%ecx, -44(%rbp)	# check_self_loop, check_self_loop
	.loc 1 3284 0
	movl	n_basic_blocks(%rip), %eax	# n_basic_blocks, n_basic_blocks.396
	cltq
	movl	$1, %esi	#,
	movq	%rax, %rdi	# D.19360,
	call	xcalloc	#
	movq	%rax, -8(%rbp)	# tmp63, visited
	.loc 1 3286 0
	movq	-8(%rbp), %rdi	# visited, tmp64
	movl	-44(%rbp), %ecx	# check_self_loop, tmp65
	movq	-40(%rbp), %rdx	# bb, tmp66
	movq	-32(%rbp), %rsi	# expr, tmp67
	movq	-24(%rbp), %rax	# occr, tmp68
	movq	%rdi, %r8	# tmp64,
	movq	%rax, %rdi	# tmp68,
	call	expr_reaches_here_p_work	#
	movl	%eax, -12(%rbp)	# tmp69, rval
	.loc 1 3288 0
	movq	-8(%rbp), %rax	# visited, tmp70
	movq	%rax, %rdi	# tmp70,
	call	free	#
	.loc 1 3289 0
	movl	-12(%rbp), %eax	# rval, D.19361
	.loc 1 3290 0
	leave
	.cfi_def_cfa 7, 8
	ret
	.cfi_endproc
.LFE68:
	.size	expr_reaches_here_p, .-expr_reaches_here_p
	.type	computing_insn, @function
computing_insn:
.LFB69:
	.loc 1 3301 0
	.cfi_startproc
	pushq	%rbp	#
	.cfi_def_cfa_offset 16
	.cfi_offset 6, -16
	movq	%rsp, %rbp	#,
	.cfi_def_cfa_register 6
	subq	$48, %rsp	#,
	movq	%rdi, -40(%rbp)	# expr, expr
	movq	%rsi, -48(%rbp)	# insn, insn
	.loc 1 3302 0
	movq	basic_block_for_insn(%rip), %rax	# basic_block_for_insn, basic_block_for_insn.397
	movq	-48(%rbp), %rdx	# insn, tmp90
	movl	8(%rdx), %edx	# insn_10(D)->fld[0].rtint, D.19363
	movslq	%edx, %rdx	# D.19363, tmp91
	addq	$4, %rdx	#, tmp92
	movq	(%rax,%rdx,8), %rax	# basic_block_for_insn.397_9->data.bb, tmp93
	movq	%rax, -8(%rbp)	# tmp93, bb
	.loc 1 3304 0
	movq	-40(%rbp), %rax	# expr, tmp94
	movq	32(%rax), %rax	# expr_13(D)->avail_occr, D.19364
	movq	(%rax), %rax	# _14->next, D.19364
	testq	%rax, %rax	# D.19364
	jne	.L547	#,
	.loc 1 3306 0
	movq	basic_block_for_insn(%rip), %rax	# basic_block_for_insn, basic_block_for_insn.398
	movq	-40(%rbp), %rdx	# expr, tmp95
	movq	32(%rdx), %rdx	# expr_13(D)->avail_occr, D.19364
	movq	8(%rdx), %rdx	# _17->insn, D.19365
	movl	8(%rdx), %edx	# _18->fld[0].rtint, D.19363
	movslq	%edx, %rdx	# D.19363, tmp96
	addq	$4, %rdx	#, tmp97
	movq	(%rax,%rdx,8), %rax	# basic_block_for_insn.398_16->data.bb, D.19366
	cmpq	-8(%rbp), %rax	# bb, D.19366
	jne	.L548	#,
	.loc 1 3309 0
	movl	$0, %eax	#, D.19362
	jmp	.L549	#
.L548:
	.loc 1 3313 0
	movq	-40(%rbp), %rax	# expr, tmp98
	movq	32(%rax), %rax	# expr_13(D)->avail_occr, D.19364
	movq	8(%rax), %rax	# _22->insn, D.19362
	jmp	.L549	#
.L547:
.LBB33:
	.loc 1 3321 0
	movq	$0, -16(%rbp)	#, insn_computes_expr
	.loc 1 3322 0
	movl	$0, -28(%rbp)	#, can_reach
	.loc 1 3324 0
	movq	-40(%rbp), %rax	# expr, tmp99
	movq	32(%rax), %rax	# expr_13(D)->avail_occr, tmp100
	movq	%rax, -24(%rbp)	# tmp100, occr
	jmp	.L550	#
.L556:
	.loc 1 3326 0
	movq	basic_block_for_insn(%rip), %rax	# basic_block_for_insn, basic_block_for_insn.399
	movq	-24(%rbp), %rdx	# occr, tmp101
	movq	8(%rdx), %rdx	# occr_1->insn, D.19365
	movl	8(%rdx), %edx	# _28->fld[0].rtint, D.19363
	movslq	%edx, %rdx	# D.19363, tmp102
	addq	$4, %rdx	#, tmp103
	movq	(%rax,%rdx,8), %rax	# basic_block_for_insn.399_27->data.bb, D.19366
	cmpq	-8(%rbp), %rax	# bb, D.19366
	jne	.L551	#,
	.loc 1 3332 0
	movq	uid_cuid(%rip), %rdx	# uid_cuid, uid_cuid.400
	movq	-48(%rbp), %rax	# insn, tmp104
	movl	8(%rax), %eax	# insn_10(D)->fld[0].rtint, D.19363
	cltq
	salq	$2, %rax	#, D.19367
	addq	%rdx, %rax	# uid_cuid.400, D.19368
	movl	(%rax), %edx	# *_35, D.19363
	movq	uid_cuid(%rip), %rcx	# uid_cuid, uid_cuid.401
	movq	-24(%rbp), %rax	# occr, tmp105
	movq	8(%rax), %rax	# occr_1->insn, D.19365
	movl	8(%rax), %eax	# _38->fld[0].rtint, D.19363
	cltq
	salq	$2, %rax	#, D.19367
	addq	%rcx, %rax	# uid_cuid.401, D.19368
	movl	(%rax), %eax	# *_42, D.19363
	cmpl	%eax, %edx	# D.19363, D.19363
	jge	.L554	#,
	.loc 1 3333 0
	movq	-8(%rbp), %rdx	# bb, tmp106
	movq	-40(%rbp), %rsi	# expr, tmp107
	movq	-24(%rbp), %rax	# occr, tmp108
	movl	$1, %ecx	#,
	movq	%rax, %rdi	# tmp108,
	call	expr_reaches_here_p	#
	testl	%eax, %eax	# D.19363
	je	.L554	#,
	.loc 1 3335 0
	addl	$1, -28(%rbp)	#, can_reach
	.loc 1 3336 0
	cmpl	$1, -28(%rbp)	#, can_reach
	jle	.L553	#,
	.loc 1 3337 0
	movl	$0, %eax	#, D.19362
	jmp	.L549	#
.L553:
	.loc 1 3339 0
	movq	-24(%rbp), %rax	# occr, tmp109
	movq	8(%rax), %rax	# occr_1->insn, tmp110
	movq	%rax, -16(%rbp)	# tmp110, insn_computes_expr
	jmp	.L554	#
.L551:
	.loc 1 3342 0
	movq	-8(%rbp), %rdx	# bb, tmp111
	movq	-40(%rbp), %rsi	# expr, tmp112
	movq	-24(%rbp), %rax	# occr, tmp113
	movl	$0, %ecx	#,
	movq	%rax, %rdi	# tmp113,
	call	expr_reaches_here_p	#
	testl	%eax, %eax	# D.19363
	je	.L554	#,
	.loc 1 3344 0
	addl	$1, -28(%rbp)	#, can_reach
	.loc 1 3345 0
	cmpl	$1, -28(%rbp)	#, can_reach
	jle	.L555	#,
	.loc 1 3346 0
	movl	$0, %eax	#, D.19362
	jmp	.L549	#
.L555:
	.loc 1 3348 0
	movq	-24(%rbp), %rax	# occr, tmp114
	movq	8(%rax), %rax	# occr_1->insn, tmp115
	movq	%rax, -16(%rbp)	# tmp115, insn_computes_expr
.L554:
	.loc 1 3324 0
	movq	-24(%rbp), %rax	# occr, tmp116
	movq	(%rax), %rax	# occr_1->next, tmp117
	movq	%rax, -24(%rbp)	# tmp117, occr
.L550:
	.loc 1 3324 0 is_stmt 0 discriminator 1
	cmpq	$0, -24(%rbp)	#, occr
	jne	.L556	#,
	.loc 1 3352 0 is_stmt 1
	cmpq	$0, -16(%rbp)	#, insn_computes_expr
	jne	.L557	#,
	.loc 1 3353 0
	movl	$__FUNCTION__.12714, %edx	#,
	movl	$3353, %esi	#,
	movl	$.LC7, %edi	#,
	call	fancy_abort	#
.L557:
	.loc 1 3355 0
	movq	-16(%rbp), %rax	# insn_computes_expr, D.19362
.L549:
.LBE33:
	.loc 1 3357 0
	leave
	.cfi_def_cfa 7, 8
	ret
	.cfi_endproc
.LFE69:
	.size	computing_insn, .-computing_insn
	.type	def_reaches_here_p, @function
def_reaches_here_p:
.LFB70:
	.loc 1 3365 0
	.cfi_startproc
	pushq	%rbp	#
	.cfi_def_cfa_offset 16
	.cfi_offset 6, -16
	movq	%rsp, %rbp	#,
	.cfi_def_cfa_register 6
	subq	$32, %rsp	#,
	movq	%rdi, -24(%rbp)	# insn, insn
	movq	%rsi, -32(%rbp)	# def_insn, def_insn
	.loc 1 3368 0
	movq	reaching_defs(%rip), %rcx	# reaching_defs, reaching_defs.402
	movq	basic_block_for_insn(%rip), %rax	# basic_block_for_insn, basic_block_for_insn.403
	movq	-24(%rbp), %rdx	# insn, tmp119
	movl	8(%rdx), %edx	# insn_5(D)->fld[0].rtint, D.19369
	movslq	%edx, %rdx	# D.19369, tmp120
	addq	$4, %rdx	#, tmp121
	movq	(%rax,%rdx,8), %rax	# basic_block_for_insn.403_4->data.bb, D.19370
	movl	88(%rax), %eax	# _7->index, D.19369
	cltq
	salq	$3, %rax	#, D.19371
	addq	%rcx, %rax	# reaching_defs.402, D.19372
	movq	(%rax), %rax	# *_11, D.19373
	movq	uid_cuid(%rip), %rcx	# uid_cuid, uid_cuid.404
	movq	-32(%rbp), %rdx	# def_insn, tmp122
	movl	8(%rdx), %edx	# def_insn_14(D)->fld[0].rtint, D.19369
	movslq	%edx, %rdx	# D.19369, D.19371
	salq	$2, %rdx	#, D.19371
	addq	%rcx, %rdx	# uid_cuid.404, D.19374
	movl	(%rdx), %edx	# *_18, D.19369
	shrl	$6, %edx	#, D.19375
	movl	%edx, %edx	# D.19375, tmp123
	addq	$2, %rdx	#, tmp124
	movq	(%rax,%rdx,8), %rdx	# _12->elms, D.19371
	movq	uid_cuid(%rip), %rcx	# uid_cuid, uid_cuid.405
	movq	-32(%rbp), %rax	# def_insn, tmp125
	movl	8(%rax), %eax	# def_insn_14(D)->fld[0].rtint, D.19369
	cltq
	salq	$2, %rax	#, D.19371
	addq	%rcx, %rax	# uid_cuid.405, D.19374
	movl	(%rax), %eax	# *_27, D.19369
	andl	$63, %eax	#, D.19369
	movl	%eax, %ecx	# D.19369, tmp146
	shrq	%cl, %rdx	# tmp146, D.19371
	movq	%rdx, %rax	# D.19371, D.19371
	andl	$1, %eax	#, D.19371
	testq	%rax, %rax	# D.19371
	je	.L559	#,
	.loc 1 3369 0
	movl	$1, %eax	#, D.19369
	jmp	.L560	#
.L559:
	.loc 1 3371 0
	movq	basic_block_for_insn(%rip), %rax	# basic_block_for_insn, basic_block_for_insn.406
	movq	-24(%rbp), %rdx	# insn, tmp126
	movl	8(%rdx), %edx	# insn_5(D)->fld[0].rtint, D.19369
	movslq	%edx, %rdx	# D.19369, tmp127
	addq	$4, %rdx	#, tmp128
	movq	(%rax,%rdx,8), %rax	# basic_block_for_insn.406_33->data.bb, D.19370
	movl	88(%rax), %ecx	# _35->index, D.19369
	movq	basic_block_for_insn(%rip), %rax	# basic_block_for_insn, basic_block_for_insn.407
	movq	-32(%rbp), %rdx	# def_insn, tmp129
	movl	8(%rdx), %edx	# def_insn_14(D)->fld[0].rtint, D.19369
	movslq	%edx, %rdx	# D.19369, tmp130
	addq	$4, %rdx	#, tmp131
	movq	(%rax,%rdx,8), %rax	# basic_block_for_insn.407_37->data.bb, D.19370
	movl	88(%rax), %eax	# _39->index, D.19369
	cmpl	%eax, %ecx	# D.19369, D.19369
	jne	.L561	#,
	.loc 1 3373 0
	movq	uid_cuid(%rip), %rdx	# uid_cuid, uid_cuid.408
	movq	-32(%rbp), %rax	# def_insn, tmp132
	movl	8(%rax), %eax	# def_insn_14(D)->fld[0].rtint, D.19369
	cltq
	salq	$2, %rax	#, D.19371
	addq	%rdx, %rax	# uid_cuid.408, D.19374
	movl	(%rax), %edx	# *_45, D.19369
	movq	uid_cuid(%rip), %rcx	# uid_cuid, uid_cuid.409
	movq	-24(%rbp), %rax	# insn, tmp133
	movl	8(%rax), %eax	# insn_5(D)->fld[0].rtint, D.19369
	cltq
	salq	$2, %rax	#, D.19371
	addq	%rcx, %rax	# uid_cuid.409, D.19374
	movl	(%rax), %eax	# *_51, D.19369
	cmpl	%eax, %edx	# D.19369, D.19369
	jge	.L562	#,
	.loc 1 3375 0
	movq	-32(%rbp), %rax	# def_insn, tmp134
	movq	32(%rax), %rax	# def_insn_14(D)->fld[3].rtx, D.19376
	movzwl	(%rax), %eax	# _53->code, D.19377
	cmpw	$39, %ax	#, D.19377
	jne	.L563	#,
	.loc 1 3376 0
	movl	$1, %eax	#, D.19369
	jmp	.L560	#
.L563:
	.loc 1 3377 0
	movq	-32(%rbp), %rax	# def_insn, tmp135
	movq	32(%rax), %rax	# def_insn_14(D)->fld[3].rtx, D.19376
	movzwl	(%rax), %eax	# _56->code, D.19377
	cmpw	$49, %ax	#, D.19377
	jne	.L564	#,
	.loc 1 3378 0
	movq	-32(%rbp), %rax	# def_insn, tmp136
	movq	32(%rax), %rax	# def_insn_14(D)->fld[3].rtx, D.19376
	movq	8(%rax), %rax	# _58->fld[0].rtx, tmp137
	movq	%rax, -8(%rbp)	# tmp137, reg
	jmp	.L565	#
.L564:
	.loc 1 3379 0
	movq	-32(%rbp), %rax	# def_insn, tmp138
	movq	32(%rax), %rax	# def_insn_14(D)->fld[3].rtx, D.19376
	movzwl	(%rax), %eax	# _60->code, D.19377
	cmpw	$47, %ax	#, D.19377
	jne	.L566	#,
	.loc 1 3380 0
	movq	-32(%rbp), %rax	# def_insn, tmp139
	movq	32(%rax), %rax	# def_insn_14(D)->fld[3].rtx, D.19376
	movq	8(%rax), %rax	# _62->fld[0].rtx, tmp140
	movq	%rax, -8(%rbp)	# tmp140, reg
	jmp	.L565	#
.L566:
	.loc 1 3382 0
	movl	$__FUNCTION__.12720, %edx	#,
	movl	$3382, %esi	#,
	movl	$.LC7, %edi	#,
	call	fancy_abort	#
.L565:
	.loc 1 3384 0
	movq	-32(%rbp), %rax	# def_insn, tmp141
	movq	24(%rax), %rcx	# def_insn_14(D)->fld[2].rtx, D.19376
	movq	-24(%rbp), %rdx	# insn, tmp142
	movq	-8(%rbp), %rax	# reg, tmp143
	movq	%rcx, %rsi	# D.19376,
	movq	%rax, %rdi	# tmp143,
	call	reg_set_between_p	#
	testl	%eax, %eax	# D.19369
	sete	%al	#, D.19378
	movzbl	%al, %eax	# D.19378, D.19369
	jmp	.L560	#
.L562:
	.loc 1 3387 0
	movl	$0, %eax	#, D.19369
	jmp	.L560	#
.L561:
	.loc 1 3390 0
	movl	$0, %eax	#, D.19369
.L560:
	.loc 1 3391 0
	leave
	.cfi_def_cfa 7, 8
	ret
	.cfi_endproc
.LFE70:
	.size	def_reaches_here_p, .-def_reaches_here_p
	.type	can_disregard_other_sets, @function
can_disregard_other_sets:
.LFB71:
	.loc 1 3404 0
	.cfi_startproc
	pushq	%rbp	#
	.cfi_def_cfa_offset 16
	.cfi_offset 6, -16
	movq	%rsp, %rbp	#,
	.cfi_def_cfa_register 6
	subq	$48, %rsp	#,
	movq	%rdi, -24(%rbp)	# addr_this_reg, addr_this_reg
	movq	%rsi, -32(%rbp)	# insn, insn
	movl	%edx, -36(%rbp)	# for_combine, for_combine
	.loc 1 3405 0
	movl	$0, -12(%rbp)	#, number_of_reaching_defs
	.loc 1 3408 0
	movq	-24(%rbp), %rax	# addr_this_reg, tmp84
	movq	(%rax), %rax	# *addr_this_reg_6(D), tmp85
	movq	%rax, -8(%rbp)	# tmp85, this_reg
	jmp	.L568	#
.L576:
	.loc 1 3409 0
	movq	-8(%rbp), %rax	# this_reg, tmp86
	movq	8(%rax), %rdx	# this_reg_3->insn, D.19380
	movq	-32(%rbp), %rax	# insn, tmp87
	movq	%rdx, %rsi	# D.19380,
	movq	%rax, %rdi	# tmp87,
	call	def_reaches_here_p	#
	testl	%eax, %eax	# D.19379
	je	.L569	#,
	.loc 1 3411 0
	addl	$1, -12(%rbp)	#, number_of_reaching_defs
	.loc 1 3413 0
	movq	-8(%rbp), %rax	# this_reg, tmp88
	movq	8(%rax), %rax	# this_reg_3->insn, D.19380
	movq	32(%rax), %rax	# _12->fld[3].rtx, D.19380
	movzwl	(%rax), %eax	# _13->code, D.19381
	cmpw	$39, %ax	#, D.19381
	jne	.L570	#,
	.loc 1 3414 0
	movl	$0, %eax	#, D.19379
	jmp	.L571	#
.L570:
	.loc 1 3416 0
	cmpl	$0, -36(%rbp)	#, for_combine
	jne	.L572	#,
	.loc 1 3417 0
	movq	-8(%rbp), %rax	# this_reg, tmp89
	movq	8(%rax), %rax	# this_reg_3->insn, D.19380
	movq	32(%rax), %rax	# _17->fld[3].rtx, D.19380
	movzwl	(%rax), %eax	# _18->code, D.19381
	cmpw	$49, %ax	#, D.19381
	je	.L573	#,
	.loc 1 3419 0
	movq	-32(%rbp), %rax	# insn, tmp90
	movq	32(%rax), %rax	# insn_9(D)->fld[3].rtx, D.19380
	.loc 1 3418 0
	movq	16(%rax), %rdx	# _20->fld[1].rtx, D.19380
	movq	-8(%rbp), %rax	# this_reg, tmp91
	movq	8(%rax), %rax	# this_reg_3->insn, D.19380
	movq	32(%rax), %rax	# _22->fld[3].rtx, D.19380
	movq	16(%rax), %rax	# _23->fld[1].rtx, D.19380
	movq	%rdx, %rsi	# D.19380,
	movq	%rax, %rdi	# D.19380,
	call	rtx_equal_p	#
	testl	%eax, %eax	# D.19379
	jne	.L572	#,
.L573:
	.loc 1 3421 0
	movl	$0, %eax	#, D.19379
	jmp	.L571	#
.L572:
	.loc 1 3423 0
	cmpl	$1, -12(%rbp)	#, number_of_reaching_defs
	jle	.L574	#,
	.loc 1 3429 0
	movq	-8(%rbp), %rax	# this_reg, tmp92
	movq	8(%rax), %rax	# this_reg_3->insn, D.19380
	movq	32(%rax), %rax	# _27->fld[3].rtx, D.19380
	movzwl	(%rax), %eax	# _28->code, D.19381
	cmpw	$49, %ax	#, D.19381
	jne	.L575	#,
	.loc 1 3430 0
	movl	$0, %eax	#, D.19379
	jmp	.L571	#
.L575:
	.loc 1 3432 0
	movq	-32(%rbp), %rax	# insn, tmp93
	movq	32(%rax), %rax	# insn_9(D)->fld[3].rtx, D.19380
	.loc 1 3431 0
	movq	16(%rax), %rdx	# _31->fld[1].rtx, D.19380
	movq	-8(%rbp), %rax	# this_reg, tmp94
	movq	8(%rax), %rax	# this_reg_3->insn, D.19380
	movq	32(%rax), %rax	# _33->fld[3].rtx, D.19380
	movq	16(%rax), %rax	# _34->fld[1].rtx, D.19380
	movq	%rdx, %rsi	# D.19380,
	movq	%rax, %rdi	# D.19380,
	call	rtx_equal_p	#
	testl	%eax, %eax	# D.19379
	jne	.L574	#,
	.loc 1 3433 0
	movl	$0, %eax	#, D.19379
	jmp	.L571	#
.L574:
	.loc 1 3436 0
	movq	-24(%rbp), %rax	# addr_this_reg, tmp95
	movq	-8(%rbp), %rdx	# this_reg, tmp96
	movq	%rdx, (%rax)	# tmp96, *addr_this_reg_6(D)
.L569:
	.loc 1 3408 0
	movq	-8(%rbp), %rax	# this_reg, tmp97
	movq	(%rax), %rax	# this_reg_3->next, tmp98
	movq	%rax, -8(%rbp)	# tmp98, this_reg
.L568:
	.loc 1 3408 0 is_stmt 0 discriminator 1
	cmpq	$0, -8(%rbp)	#, this_reg
	jne	.L576	#,
	.loc 1 3439 0 is_stmt 1
	movl	-12(%rbp), %eax	# number_of_reaching_defs, D.19379
.L571:
	.loc 1 3440 0
	leave
	.cfi_def_cfa 7, 8
	ret
	.cfi_endproc
.LFE71:
	.size	can_disregard_other_sets, .-can_disregard_other_sets
	.section	.rodata
	.align 8
.LC11:
	.string	"GCSE: Replacing the source in insn %d with"
.LC12:
	.string	"from"
.LC13:
	.string	"set in"
.LC14:
	.string	" reg %d %s insn %d\n"
	.align 8
.LC15:
	.string	"GCSE: Creating insn %d to copy value of reg %d"
.LC16:
	.string	", computed in insn %d,\n"
	.align 8
.LC17:
	.string	"      into newly allocated reg %d\n"
	.align 8
.LC18:
	.string	"GCSE: Replacing the source in insn %d with reg %d "
.LC19:
	.string	"set in insn %d\n"
	.text
	.type	handle_avail_expr, @function
handle_avail_expr:
.LFB72:
	.loc 1 3451 0
	.cfi_startproc
	pushq	%rbp	#
	.cfi_def_cfa_offset 16
	.cfi_offset 6, -16
	movq	%rsp, %rbp	#,
	.cfi_def_cfa_register 6
	subq	$96, %rsp	#,
	movq	%rdi, -88(%rbp)	# insn, insn
	movq	%rsi, -96(%rbp)	# expr, expr
	.loc 1 3456 0
	movl	$0, -60(%rbp)	#, changed
	.loc 1 3460 0
	movq	-88(%rbp), %rdx	# insn, tmp137
	movq	-96(%rbp), %rax	# expr, tmp138
	movq	%rdx, %rsi	# tmp137,
	movq	%rax, %rdi	# tmp138,
	call	computing_insn	#
	movq	%rax, -32(%rbp)	# tmp139, insn_computes_expr
	.loc 1 3461 0
	cmpq	$0, -32(%rbp)	#, insn_computes_expr
	jne	.L578	#,
	.loc 1 3462 0
	movl	$0, %eax	#, D.19382
	jmp	.L598	#
.L578:
	.loc 1 3463 0
	movq	-32(%rbp), %rax	# insn_computes_expr, tmp140
	movzwl	(%rax), %eax	# insn_computes_expr_13->code, D.19383
	movzwl	%ax, %eax	# D.19383, D.19382
	cltq
	movzbl	rtx_class(%rax), %eax	# rtx_class, D.19384
	cmpb	$105, %al	#, D.19384
	jne	.L580	#,
	.loc 1 3463 0 is_stmt 0 discriminator 1
	movq	-32(%rbp), %rax	# insn_computes_expr, tmp142
	movq	32(%rax), %rax	# insn_computes_expr_13->fld[3].rtx, D.19385
	movzwl	(%rax), %eax	# _18->code, D.19383
	cmpw	$47, %ax	#, D.19383
	jne	.L581	#,
	.loc 1 3463 0 discriminator 3
	movq	-32(%rbp), %rax	# insn_computes_expr, tmp143
	movq	32(%rax), %rax	# insn_computes_expr_13->fld[3].rtx, iftmp.411
	jmp	.L583	#
.L581:
	.loc 1 3463 0 discriminator 4
	movq	-32(%rbp), %rax	# insn_computes_expr, tmp144
	movq	32(%rax), %rdx	# insn_computes_expr_13->fld[3].rtx, D.19385
	movq	-32(%rbp), %rax	# insn_computes_expr, tmp145
	movq	%rdx, %rsi	# D.19385,
	movq	%rax, %rdi	# tmp145,
	call	single_set_2	#
	jmp	.L583	#
.L580:
	.loc 1 3463 0 discriminator 2
	movl	$0, %eax	#, iftmp.410
.L583:
	.loc 1 3463 0 discriminator 5
	movq	%rax, -24(%rbp)	# iftmp.410, expr_set
	.loc 1 3464 0 is_stmt 1 discriminator 5
	cmpq	$0, -24(%rbp)	#, expr_set
	jne	.L584	#,
	.loc 1 3465 0
	movl	$__FUNCTION__.12743, %edx	#,
	movl	$3465, %esi	#,
	movl	$.LC7, %edi	#,
	call	fancy_abort	#
.L584:
	.loc 1 3467 0
	movl	$0, -68(%rbp)	#, found_setting
	.loc 1 3468 0
	movl	$0, -64(%rbp)	#, use_src
	.loc 1 3473 0
	movq	-24(%rbp), %rax	# expr_set, tmp146
	movq	16(%rax), %rax	# expr_set_25->fld[1].rtx, D.19385
	movzwl	(%rax), %eax	# _28->code, D.19383
	cmpw	$61, %ax	#, D.19383
	jne	.L585	#,
.LBB34:
	.loc 1 3478 0
	movq	-24(%rbp), %rax	# expr_set, tmp147
	movq	16(%rax), %rax	# expr_set_25->fld[1].rtx, D.19385
	.loc 1 3477 0
	movl	8(%rax), %eax	# _30->fld[0].rtuint, tmp148
	movl	%eax, -56(%rbp)	# tmp148, regnum_for_replacing
	.loc 1 3482 0
	movl	max_gcse_regno(%rip), %eax	# max_gcse_regno, max_gcse_regno.412
	cmpl	%eax, -56(%rbp)	# max_gcse_regno.412, regnum_for_replacing
	jae	.L586	#,
	.loc 1 3485 0
	movq	reg_set_table(%rip), %rax	# reg_set_table, reg_set_table.413
	movl	-56(%rbp), %edx	# regnum_for_replacing, D.19386
	salq	$3, %rdx	#, D.19386
	addq	%rdx, %rax	# D.19386, D.19387
	movq	(%rax), %rax	# *_36, this_reg.414
	movq	%rax, -48(%rbp)	# this_reg.414, this_reg
	.loc 1 3486 0
	movq	-48(%rbp), %rax	# this_reg, this_reg.415
	movq	(%rax), %rax	# this_reg.415_38->next, D.19388
	.loc 1 3485 0
	testq	%rax, %rax	# D.19388
	je	.L586	#,
	.loc 1 3487 0
	movq	-88(%rbp), %rcx	# insn, tmp149
	leaq	-48(%rbp), %rax	#, tmp150
	movl	$0, %edx	#,
	movq	%rcx, %rsi	# tmp149,
	movq	%rax, %rdi	# tmp150,
	call	can_disregard_other_sets	#
	testl	%eax, %eax	# D.19382
	je	.L585	#,
.L586:
	.loc 1 3489 0
	movl	$1, -64(%rbp)	#, use_src
	.loc 1 3490 0
	movl	$1, -68(%rbp)	#, found_setting
.L585:
.LBE34:
	.loc 1 3494 0
	cmpl	$0, -68(%rbp)	#, found_setting
	jne	.L587	#,
.LBB35:
	.loc 1 3497 0
	movq	-24(%rbp), %rax	# expr_set, tmp151
	movq	8(%rax), %rax	# expr_set_25->fld[0].rtx, D.19385
	.loc 1 3496 0
	movl	8(%rax), %eax	# _43->fld[0].rtuint, tmp152
	movl	%eax, -52(%rbp)	# tmp152, regnum_for_replacing
	.loc 1 3500 0
	movl	max_gcse_regno(%rip), %eax	# max_gcse_regno, max_gcse_regno.416
	cmpl	%eax, -52(%rbp)	# max_gcse_regno.416, regnum_for_replacing
	jb	.L588	#,
	.loc 1 3501 0
	movl	$__FUNCTION__.12743, %edx	#,
	movl	$3501, %esi	#,
	movl	$.LC7, %edi	#,
	call	fancy_abort	#
.L588:
	.loc 1 3503 0
	movq	reg_set_table(%rip), %rax	# reg_set_table, reg_set_table.417
	movl	-52(%rbp), %edx	# regnum_for_replacing, D.19386
	salq	$3, %rdx	#, D.19386
	addq	%rdx, %rax	# D.19386, D.19387
	movq	(%rax), %rax	# *_49, this_reg.418
	movq	%rax, -48(%rbp)	# this_reg.418, this_reg
	.loc 1 3507 0
	movq	-48(%rbp), %rax	# this_reg, this_reg.419
	movq	(%rax), %rax	# this_reg.419_51->next, D.19388
	testq	%rax, %rax	# D.19388
	je	.L589	#,
	.loc 1 3508 0
	movq	-88(%rbp), %rcx	# insn, tmp153
	leaq	-48(%rbp), %rax	#, tmp154
	movl	$0, %edx	#,
	movq	%rcx, %rsi	# tmp153,
	movq	%rax, %rdi	# tmp154,
	call	can_disregard_other_sets	#
	testl	%eax, %eax	# D.19382
	je	.L587	#,
.L589:
	.loc 1 3509 0
	movl	$1, -68(%rbp)	#, found_setting
.L587:
.LBE35:
	.loc 1 3512 0
	cmpl	$0, -68(%rbp)	#, found_setting
	je	.L590	#,
	.loc 1 3514 0
	movq	-88(%rbp), %rax	# insn, tmp155
	movq	32(%rax), %rax	# insn_12(D)->fld[3].rtx, tmp156
	movq	%rax, -16(%rbp)	# tmp156, pat
	.loc 1 3515 0
	cmpl	$0, -64(%rbp)	#, use_src
	je	.L591	#,
	.loc 1 3516 0
	movq	-24(%rbp), %rax	# expr_set, tmp157
	movq	16(%rax), %rax	# expr_set_25->fld[1].rtx, tmp158
	movq	%rax, -40(%rbp)	# tmp158, to
	jmp	.L592	#
.L591:
	.loc 1 3518 0
	movq	-24(%rbp), %rax	# expr_set, tmp159
	movq	8(%rax), %rax	# expr_set_25->fld[0].rtx, tmp160
	movq	%rax, -40(%rbp)	# tmp160, to
.L592:
	.loc 1 3519 0
	movq	-16(%rbp), %rax	# pat, tmp161
	leaq	16(%rax), %rsi	#, D.19389
	movq	-40(%rbp), %rdx	# to, tmp162
	movq	-88(%rbp), %rax	# insn, tmp163
	movl	$0, %ecx	#,
	movq	%rax, %rdi	# tmp163,
	call	validate_change	#
	movl	%eax, -60(%rbp)	# tmp164, changed
	.loc 1 3523 0
	cmpl	$0, -60(%rbp)	#, changed
	je	.L596	#,
	.loc 1 3525 0
	movl	gcse_subst_count(%rip), %eax	# gcse_subst_count, gcse_subst_count.420
	addl	$1, %eax	#, gcse_subst_count.421
	movl	%eax, gcse_subst_count(%rip)	# gcse_subst_count.421, gcse_subst_count
	.loc 1 3526 0
	movq	gcse_file(%rip), %rax	# gcse_file, gcse_file.422
	testq	%rax, %rax	# gcse_file.422
	je	.L596	#,
	.loc 1 3528 0
	movq	-88(%rbp), %rax	# insn, tmp165
	movl	8(%rax), %edx	# insn_12(D)->fld[0].rtint, D.19382
	movq	gcse_file(%rip), %rax	# gcse_file, gcse_file.423
	movl	$.LC11, %esi	#,
	movq	%rax, %rdi	# gcse_file.423,
	movl	$0, %eax	#,
	call	fprintf	#
	.loc 1 3530 0
	movq	-32(%rbp), %rax	# insn_computes_expr, tmp166
	movl	8(%rax), %ecx	# insn_computes_expr_13->fld[0].rtint, D.19382
	cmpl	$0, -64(%rbp)	#, use_src
	je	.L594	#,
	.loc 1 3530 0 is_stmt 0 discriminator 1
	movl	$.LC12, %eax	#, iftmp.424
	jmp	.L595	#
.L594:
	.loc 1 3530 0 discriminator 2
	movl	$.LC13, %eax	#, iftmp.424
.L595:
	.loc 1 3530 0 discriminator 3
	movq	-40(%rbp), %rdx	# to, tmp167
