	.file	"genrtl.c"
# GNU C (Ubuntu/Linaro 4.8.1-10ubuntu9) version 4.8.1 (x86_64-linux-gnu)
#	compiled by GNU C version 4.8.1, GMP version 5.1.2, MPFR version 3.1.1-p2, MPC version 1.0.1
# GGC heuristics: --param ggc-min-expand=100 --param ggc-min-heapsize=131072
# options passed:  -I . -imultiarch x86_64-linux-gnu -D SPEC_CPU -D NDEBUG
# -D SPEC_CPU_LP64 genrtl.c -mtune=generic -march=x86-64 -g -fverbose-asm
# -fno-strict-aliasing -fstack-protector -Wformat -Wformat-security
# options enabled:  -faggressive-loop-optimizations
# -fasynchronous-unwind-tables -fauto-inc-dec -fbranch-count-reg -fcommon
# -fdelete-null-pointer-checks -fdwarf2-cfi-asm -fearly-inlining
# -feliminate-unused-debug-types -ffunction-cse -fgcse-lm -fgnu-runtime
# -fident -finline-atomics -fira-hoist-pressure -fira-share-save-slots
# -fira-share-spill-slots -fivopts -fkeep-static-consts
# -fleading-underscore -fmath-errno -fmerge-debug-strings
# -fmove-loop-invariants -fpeephole -fprefetch-loop-arrays
# -freg-struct-return -fsched-critical-path-heuristic
# -fsched-dep-count-heuristic -fsched-group-heuristic -fsched-interblock
# -fsched-last-insn-heuristic -fsched-rank-heuristic -fsched-spec
# -fsched-spec-insn-heuristic -fsched-stalled-insns-dep -fshow-column
# -fsigned-zeros -fsplit-ivs-in-unroller -fstack-protector
# -fstrict-volatile-bitfields -fsync-libcalls -ftrapping-math
# -ftree-coalesce-vars -ftree-cselim -ftree-forwprop -ftree-loop-if-convert
# -ftree-loop-im -ftree-loop-ivcanon -ftree-loop-optimize
# -ftree-parallelize-loops= -ftree-phiprop -ftree-pta -ftree-reassoc
# -ftree-scev-cprop -ftree-slp-vectorize -ftree-vect-loop-version
# -funit-at-a-time -funwind-tables -fverbose-asm -fzero-initialized-in-bss
# -m128bit-long-double -m64 -m80387 -maccumulate-outgoing-args
# -malign-stringops -mfancy-math-387 -mfp-ret-in-387 -mfxsr -mglibc
# -mieee-fp -mlong-double-80 -mmmx -mno-sse4 -mpush-args -mred-zone -msse
# -msse2 -mtls-direct-seg-refs

	.text
.Ltext0:
	.globl	gen_rtx_fmt_s
	.type	gen_rtx_fmt_s, @function
gen_rtx_fmt_s:
.LFB2:
	.file 1 "genrtl.c"
	.loc 1 21 0
	.cfi_startproc
	pushq	%rbp	#
	.cfi_def_cfa_offset 16
	.cfi_offset 6, -16
	movq	%rsp, %rbp	#,
	.cfi_def_cfa_register 6
	subq	$32, %rsp	#,
	movl	%edi, -20(%rbp)	# code, code
	movl	%esi, -24(%rbp)	# mode, mode
	movq	%rdx, -32(%rbp)	# arg0, arg0
	.loc 1 23 0
	movl	$16, %edi	#,
	call	ggc_alloc	#
	movq	%rax, -8(%rbp)	# tmp63, rt
	.loc 1 24 0
	movq	-8(%rbp), %rax	# rt, tmp64
	movl	$8, %edx	#,
	movl	$0, %esi	#,
	movq	%rax, %rdi	# tmp64,
	call	memset	#
	.loc 1 26 0
	movl	-20(%rbp), %eax	# code, tmp65
	movl	%eax, %edx	# tmp65, D.9300
	movq	-8(%rbp), %rax	# rt, tmp66
	movw	%dx, (%rax)	# D.9300, rt_1->code
	.loc 1 27 0
	movl	-24(%rbp), %eax	# mode, tmp67
	movl	%eax, %edx	# tmp67, D.9301
	movq	-8(%rbp), %rax	# rt, tmp68
	movb	%dl, 2(%rax)	# D.9301, rt_1->mode
	.loc 1 28 0
	movq	-8(%rbp), %rax	# rt, tmp69
	movq	-32(%rbp), %rdx	# arg0, tmp70
	movq	%rdx, 8(%rax)	# tmp70, rt_1->fld[0].rtstr
	.loc 1 30 0
	movq	-8(%rbp), %rax	# rt, D.9302
	.loc 1 31 0
	leave
	.cfi_def_cfa 7, 8
	ret
	.cfi_endproc
.LFE2:
	.size	gen_rtx_fmt_s, .-gen_rtx_fmt_s
	.globl	gen_rtx_fmt_ee
	.type	gen_rtx_fmt_ee, @function
gen_rtx_fmt_ee:
.LFB3:
	.loc 1 39 0
	.cfi_startproc
	pushq	%rbp	#
	.cfi_def_cfa_offset 16
	.cfi_offset 6, -16
	movq	%rsp, %rbp	#,
	.cfi_def_cfa_register 6
	subq	$48, %rsp	#,
	movl	%edi, -20(%rbp)	# code, code
	movl	%esi, -24(%rbp)	# mode, mode
	movq	%rdx, -32(%rbp)	# arg0, arg0
	movq	%rcx, -40(%rbp)	# arg1, arg1
	.loc 1 41 0
	movl	$24, %edi	#,
	call	ggc_alloc	#
	movq	%rax, -8(%rbp)	# tmp63, rt
	.loc 1 42 0
	movq	-8(%rbp), %rax	# rt, tmp64
	movl	$8, %edx	#,
	movl	$0, %esi	#,
	movq	%rax, %rdi	# tmp64,
	call	memset	#
	.loc 1 44 0
	movl	-20(%rbp), %eax	# code, tmp65
	movl	%eax, %edx	# tmp65, D.9303
	movq	-8(%rbp), %rax	# rt, tmp66
	movw	%dx, (%rax)	# D.9303, rt_1->code
	.loc 1 45 0
	movl	-24(%rbp), %eax	# mode, tmp67
	movl	%eax, %edx	# tmp67, D.9304
	movq	-8(%rbp), %rax	# rt, tmp68
	movb	%dl, 2(%rax)	# D.9304, rt_1->mode
	.loc 1 46 0
	movq	-8(%rbp), %rax	# rt, tmp69
	movq	-32(%rbp), %rdx	# arg0, tmp70
	movq	%rdx, 8(%rax)	# tmp70, rt_1->fld[0].rtx
	.loc 1 47 0
	movq	-8(%rbp), %rax	# rt, tmp71
	movq	-40(%rbp), %rdx	# arg1, tmp72
	movq	%rdx, 16(%rax)	# tmp72, rt_1->fld[1].rtx
	.loc 1 49 0
	movq	-8(%rbp), %rax	# rt, D.9305
	.loc 1 50 0
	leave
	.cfi_def_cfa 7, 8
	ret
	.cfi_endproc
.LFE3:
	.size	gen_rtx_fmt_ee, .-gen_rtx_fmt_ee
	.globl	gen_rtx_fmt_ue
	.type	gen_rtx_fmt_ue, @function
gen_rtx_fmt_ue:
.LFB4:
	.loc 1 58 0
	.cfi_startproc
	pushq	%rbp	#
	.cfi_def_cfa_offset 16
	.cfi_offset 6, -16
	movq	%rsp, %rbp	#,
	.cfi_def_cfa_register 6
	subq	$48, %rsp	#,
	movl	%edi, -20(%rbp)	# code, code
	movl	%esi, -24(%rbp)	# mode, mode
	movq	%rdx, -32(%rbp)	# arg0, arg0
	movq	%rcx, -40(%rbp)	# arg1, arg1
	.loc 1 60 0
	movl	$24, %edi	#,
	call	ggc_alloc	#
	movq	%rax, -8(%rbp)	# tmp63, rt
	.loc 1 61 0
	movq	-8(%rbp), %rax	# rt, tmp64
	movl	$8, %edx	#,
	movl	$0, %esi	#,
	movq	%rax, %rdi	# tmp64,
	call	memset	#
	.loc 1 63 0
	movl	-20(%rbp), %eax	# code, tmp65
	movl	%eax, %edx	# tmp65, D.9306
	movq	-8(%rbp), %rax	# rt, tmp66
	movw	%dx, (%rax)	# D.9306, rt_1->code
	.loc 1 64 0
	movl	-24(%rbp), %eax	# mode, tmp67
	movl	%eax, %edx	# tmp67, D.9307
	movq	-8(%rbp), %rax	# rt, tmp68
	movb	%dl, 2(%rax)	# D.9307, rt_1->mode
	.loc 1 65 0
	movq	-8(%rbp), %rax	# rt, tmp69
	movq	-32(%rbp), %rdx	# arg0, tmp70
	movq	%rdx, 8(%rax)	# tmp70, rt_1->fld[0].rtx
	.loc 1 66 0
	movq	-8(%rbp), %rax	# rt, tmp71
	movq	-40(%rbp), %rdx	# arg1, tmp72
	movq	%rdx, 16(%rax)	# tmp72, rt_1->fld[1].rtx
	.loc 1 68 0
	movq	-8(%rbp), %rax	# rt, D.9308
	.loc 1 69 0
	leave
	.cfi_def_cfa 7, 8
	ret
	.cfi_endproc
.LFE4:
	.size	gen_rtx_fmt_ue, .-gen_rtx_fmt_ue
	.globl	gen_rtx_fmt_iss
	.type	gen_rtx_fmt_iss, @function
gen_rtx_fmt_iss:
.LFB5:
	.loc 1 78 0
	.cfi_startproc
	pushq	%rbp	#
	.cfi_def_cfa_offset 16
	.cfi_offset 6, -16
	movq	%rsp, %rbp	#,
	.cfi_def_cfa_register 6
	subq	$48, %rsp	#,
	movl	%edi, -20(%rbp)	# code, code
	movl	%esi, -24(%rbp)	# mode, mode
	movl	%edx, -28(%rbp)	# arg0, arg0
	movq	%rcx, -40(%rbp)	# arg1, arg1
	movq	%r8, -48(%rbp)	# arg2, arg2
	.loc 1 80 0
	movl	$32, %edi	#,
	call	ggc_alloc	#
	movq	%rax, -8(%rbp)	# tmp63, rt
	.loc 1 81 0
	movq	-8(%rbp), %rax	# rt, tmp64
	movl	$8, %edx	#,
	movl	$0, %esi	#,
	movq	%rax, %rdi	# tmp64,
	call	memset	#
	.loc 1 83 0
	movl	-20(%rbp), %eax	# code, tmp65
	movl	%eax, %edx	# tmp65, D.9309
	movq	-8(%rbp), %rax	# rt, tmp66
	movw	%dx, (%rax)	# D.9309, rt_1->code
	.loc 1 84 0
	movl	-24(%rbp), %eax	# mode, tmp67
	movl	%eax, %edx	# tmp67, D.9310
	movq	-8(%rbp), %rax	# rt, tmp68
	movb	%dl, 2(%rax)	# D.9310, rt_1->mode
	.loc 1 85 0
	movq	-8(%rbp), %rax	# rt, tmp69
	movl	-28(%rbp), %edx	# arg0, tmp70
	movl	%edx, 8(%rax)	# tmp70, rt_1->fld[0].rtint
	.loc 1 86 0
	movq	-8(%rbp), %rax	# rt, tmp71
	movq	-40(%rbp), %rdx	# arg1, tmp72
	movq	%rdx, 16(%rax)	# tmp72, rt_1->fld[1].rtstr
	.loc 1 87 0
	movq	-8(%rbp), %rax	# rt, tmp73
	movq	-48(%rbp), %rdx	# arg2, tmp74
	movq	%rdx, 24(%rax)	# tmp74, rt_1->fld[2].rtstr
	.loc 1 89 0
	movq	-8(%rbp), %rax	# rt, D.9311
	.loc 1 90 0
	leave
	.cfi_def_cfa 7, 8
	ret
	.cfi_endproc
.LFE5:
	.size	gen_rtx_fmt_iss, .-gen_rtx_fmt_iss
	.globl	gen_rtx_fmt_is
	.type	gen_rtx_fmt_is, @function
gen_rtx_fmt_is:
.LFB6:
	.loc 1 98 0
	.cfi_startproc
	pushq	%rbp	#
	.cfi_def_cfa_offset 16
	.cfi_offset 6, -16
	movq	%rsp, %rbp	#,
	.cfi_def_cfa_register 6
	subq	$48, %rsp	#,
	movl	%edi, -20(%rbp)	# code, code
	movl	%esi, -24(%rbp)	# mode, mode
	movl	%edx, -28(%rbp)	# arg0, arg0
	movq	%rcx, -40(%rbp)	# arg1, arg1
	.loc 1 100 0
	movl	$24, %edi	#,
	call	ggc_alloc	#
	movq	%rax, -8(%rbp)	# tmp63, rt
	.loc 1 101 0
	movq	-8(%rbp), %rax	# rt, tmp64
	movl	$8, %edx	#,
	movl	$0, %esi	#,
	movq	%rax, %rdi	# tmp64,
	call	memset	#
	.loc 1 103 0
	movl	-20(%rbp), %eax	# code, tmp65
	movl	%eax, %edx	# tmp65, D.9312
	movq	-8(%rbp), %rax	# rt, tmp66
	movw	%dx, (%rax)	# D.9312, rt_1->code
	.loc 1 104 0
	movl	-24(%rbp), %eax	# mode, tmp67
	movl	%eax, %edx	# tmp67, D.9313
	movq	-8(%rbp), %rax	# rt, tmp68
	movb	%dl, 2(%rax)	# D.9313, rt_1->mode
	.loc 1 105 0
	movq	-8(%rbp), %rax	# rt, tmp69
	movl	-28(%rbp), %edx	# arg0, tmp70
	movl	%edx, 8(%rax)	# tmp70, rt_1->fld[0].rtint
	.loc 1 106 0
	movq	-8(%rbp), %rax	# rt, tmp71
	movq	-40(%rbp), %rdx	# arg1, tmp72
	movq	%rdx, 16(%rax)	# tmp72, rt_1->fld[1].rtstr
	.loc 1 108 0
	movq	-8(%rbp), %rax	# rt, D.9314
	.loc 1 109 0
	leave
	.cfi_def_cfa 7, 8
	ret
	.cfi_endproc
.LFE6:
	.size	gen_rtx_fmt_is, .-gen_rtx_fmt_is
	.globl	gen_rtx_fmt_i
	.type	gen_rtx_fmt_i, @function
gen_rtx_fmt_i:
.LFB7:
	.loc 1 116 0
	.cfi_startproc
	pushq	%rbp	#
	.cfi_def_cfa_offset 16
	.cfi_offset 6, -16
	movq	%rsp, %rbp	#,
	.cfi_def_cfa_register 6
	subq	$32, %rsp	#,
	movl	%edi, -20(%rbp)	# code, code
	movl	%esi, -24(%rbp)	# mode, mode
	movl	%edx, -28(%rbp)	# arg0, arg0
	.loc 1 118 0
	movl	$16, %edi	#,
	call	ggc_alloc	#
	movq	%rax, -8(%rbp)	# tmp63, rt
	.loc 1 119 0
	movq	-8(%rbp), %rax	# rt, tmp64
	movl	$8, %edx	#,
	movl	$0, %esi	#,
	movq	%rax, %rdi	# tmp64,
	call	memset	#
	.loc 1 121 0
	movl	-20(%rbp), %eax	# code, tmp65
	movl	%eax, %edx	# tmp65, D.9315
	movq	-8(%rbp), %rax	# rt, tmp66
	movw	%dx, (%rax)	# D.9315, rt_1->code
	.loc 1 122 0
	movl	-24(%rbp), %eax	# mode, tmp67
	movl	%eax, %edx	# tmp67, D.9316
	movq	-8(%rbp), %rax	# rt, tmp68
	movb	%dl, 2(%rax)	# D.9316, rt_1->mode
	.loc 1 123 0
	movq	-8(%rbp), %rax	# rt, tmp69
	movl	-28(%rbp), %edx	# arg0, tmp70
	movl	%edx, 8(%rax)	# tmp70, rt_1->fld[0].rtint
	.loc 1 125 0
	movq	-8(%rbp), %rax	# rt, D.9317
	.loc 1 126 0
	leave
	.cfi_def_cfa 7, 8
	ret
	.cfi_endproc
.LFE7:
	.size	gen_rtx_fmt_i, .-gen_rtx_fmt_i
	.globl	gen_rtx_fmt_isE
	.type	gen_rtx_fmt_isE, @function
gen_rtx_fmt_isE:
.LFB8:
	.loc 1 135 0
	.cfi_startproc
	pushq	%rbp	#
	.cfi_def_cfa_offset 16
	.cfi_offset 6, -16
	movq	%rsp, %rbp	#,
	.cfi_def_cfa_register 6
	subq	$48, %rsp	#,
	movl	%edi, -20(%rbp)	# code, code
	movl	%esi, -24(%rbp)	# mode, mode
	movl	%edx, -28(%rbp)	# arg0, arg0
	movq	%rcx, -40(%rbp)	# arg1, arg1
	movq	%r8, -48(%rbp)	# arg2, arg2
	.loc 1 137 0
	movl	$32, %edi	#,
	call	ggc_alloc	#
	movq	%rax, -8(%rbp)	# tmp63, rt
	.loc 1 138 0
	movq	-8(%rbp), %rax	# rt, tmp64
	movl	$8, %edx	#,
	movl	$0, %esi	#,
	movq	%rax, %rdi	# tmp64,
	call	memset	#
	.loc 1 140 0
	movl	-20(%rbp), %eax	# code, tmp65
	movl	%eax, %edx	# tmp65, D.9318
	movq	-8(%rbp), %rax	# rt, tmp66
	movw	%dx, (%rax)	# D.9318, rt_1->code
	.loc 1 141 0
	movl	-24(%rbp), %eax	# mode, tmp67
	movl	%eax, %edx	# tmp67, D.9319
	movq	-8(%rbp), %rax	# rt, tmp68
	movb	%dl, 2(%rax)	# D.9319, rt_1->mode
	.loc 1 142 0
	movq	-8(%rbp), %rax	# rt, tmp69
	movl	-28(%rbp), %edx	# arg0, tmp70
	movl	%edx, 8(%rax)	# tmp70, rt_1->fld[0].rtint
	.loc 1 143 0
	movq	-8(%rbp), %rax	# rt, tmp71
	movq	-40(%rbp), %rdx	# arg1, tmp72
	movq	%rdx, 16(%rax)	# tmp72, rt_1->fld[1].rtstr
	.loc 1 144 0
	movq	-8(%rbp), %rax	# rt, tmp73
	movq	-48(%rbp), %rdx	# arg2, tmp74
	movq	%rdx, 24(%rax)	# tmp74, rt_1->fld[2].rtvec
	.loc 1 146 0
	movq	-8(%rbp), %rax	# rt, D.9320
	.loc 1 147 0
	leave
	.cfi_def_cfa 7, 8
	ret
	.cfi_endproc
.LFE8:
	.size	gen_rtx_fmt_isE, .-gen_rtx_fmt_isE
	.globl	gen_rtx_fmt_iE
	.type	gen_rtx_fmt_iE, @function
gen_rtx_fmt_iE:
.LFB9:
	.loc 1 155 0
	.cfi_startproc
	pushq	%rbp	#
	.cfi_def_cfa_offset 16
	.cfi_offset 6, -16
	movq	%rsp, %rbp	#,
	.cfi_def_cfa_register 6
	subq	$48, %rsp	#,
	movl	%edi, -20(%rbp)	# code, code
	movl	%esi, -24(%rbp)	# mode, mode
	movl	%edx, -28(%rbp)	# arg0, arg0
	movq	%rcx, -40(%rbp)	# arg1, arg1
	.loc 1 157 0
	movl	$24, %edi	#,
	call	ggc_alloc	#
	movq	%rax, -8(%rbp)	# tmp63, rt
	.loc 1 158 0
	movq	-8(%rbp), %rax	# rt, tmp64
	movl	$8, %edx	#,
	movl	$0, %esi	#,
	movq	%rax, %rdi	# tmp64,
	call	memset	#
	.loc 1 160 0
	movl	-20(%rbp), %eax	# code, tmp65
	movl	%eax, %edx	# tmp65, D.9321
	movq	-8(%rbp), %rax	# rt, tmp66
	movw	%dx, (%rax)	# D.9321, rt_1->code
	.loc 1 161 0
	movl	-24(%rbp), %eax	# mode, tmp67
	movl	%eax, %edx	# tmp67, D.9322
	movq	-8(%rbp), %rax	# rt, tmp68
	movb	%dl, 2(%rax)	# D.9322, rt_1->mode
	.loc 1 162 0
	movq	-8(%rbp), %rax	# rt, tmp69
	movl	-28(%rbp), %edx	# arg0, tmp70
	movl	%edx, 8(%rax)	# tmp70, rt_1->fld[0].rtint
	.loc 1 163 0
	movq	-8(%rbp), %rax	# rt, tmp71
	movq	-40(%rbp), %rdx	# arg1, tmp72
	movq	%rdx, 16(%rax)	# tmp72, rt_1->fld[1].rtvec
	.loc 1 165 0
	movq	-8(%rbp), %rax	# rt, D.9323
	.loc 1 166 0
	leave
	.cfi_def_cfa 7, 8
	ret
	.cfi_endproc
.LFE9:
	.size	gen_rtx_fmt_iE, .-gen_rtx_fmt_iE
	.globl	gen_rtx_fmt_Ess
	.type	gen_rtx_fmt_Ess, @function
gen_rtx_fmt_Ess:
.LFB10:
	.loc 1 175 0
	.cfi_startproc
	pushq	%rbp	#
	.cfi_def_cfa_offset 16
	.cfi_offset 6, -16
	movq	%rsp, %rbp	#,
	.cfi_def_cfa_register 6
	subq	$48, %rsp	#,
	movl	%edi, -20(%rbp)	# code, code
	movl	%esi, -24(%rbp)	# mode, mode
	movq	%rdx, -32(%rbp)	# arg0, arg0
	movq	%rcx, -40(%rbp)	# arg1, arg1
	movq	%r8, -48(%rbp)	# arg2, arg2
	.loc 1 177 0
	movl	$32, %edi	#,
	call	ggc_alloc	#
	movq	%rax, -8(%rbp)	# tmp63, rt
	.loc 1 178 0
	movq	-8(%rbp), %rax	# rt, tmp64
	movl	$8, %edx	#,
	movl	$0, %esi	#,
	movq	%rax, %rdi	# tmp64,
	call	memset	#
	.loc 1 180 0
	movl	-20(%rbp), %eax	# code, tmp65
	movl	%eax, %edx	# tmp65, D.9324
	movq	-8(%rbp), %rax	# rt, tmp66
	movw	%dx, (%rax)	# D.9324, rt_1->code
	.loc 1 181 0
	movl	-24(%rbp), %eax	# mode, tmp67
	movl	%eax, %edx	# tmp67, D.9325
	movq	-8(%rbp), %rax	# rt, tmp68
	movb	%dl, 2(%rax)	# D.9325, rt_1->mode
	.loc 1 182 0
	movq	-8(%rbp), %rax	# rt, tmp69
	movq	-32(%rbp), %rdx	# arg0, tmp70
	movq	%rdx, 8(%rax)	# tmp70, rt_1->fld[0].rtvec
	.loc 1 183 0
	movq	-8(%rbp), %rax	# rt, tmp71
	movq	-40(%rbp), %rdx	# arg1, tmp72
	movq	%rdx, 16(%rax)	# tmp72, rt_1->fld[1].rtstr
	.loc 1 184 0
	movq	-8(%rbp), %rax	# rt, tmp73
	movq	-48(%rbp), %rdx	# arg2, tmp74
	movq	%rdx, 24(%rax)	# tmp74, rt_1->fld[2].rtstr
	.loc 1 186 0
	movq	-8(%rbp), %rax	# rt, D.9326
	.loc 1 187 0
	leave
	.cfi_def_cfa 7, 8
	ret
	.cfi_endproc
.LFE10:
	.size	gen_rtx_fmt_Ess, .-gen_rtx_fmt_Ess
	.globl	gen_rtx_fmt_sEss
	.type	gen_rtx_fmt_sEss, @function
gen_rtx_fmt_sEss:
.LFB11:
	.loc 1 197 0
	.cfi_startproc
	pushq	%rbp	#
	.cfi_def_cfa_offset 16
	.cfi_offset 6, -16
	movq	%rsp, %rbp	#,
	.cfi_def_cfa_register 6
	subq	$64, %rsp	#,
	movl	%edi, -20(%rbp)	# code, code
	movl	%esi, -24(%rbp)	# mode, mode
	movq	%rdx, -32(%rbp)	# arg0, arg0
	movq	%rcx, -40(%rbp)	# arg1, arg1
	movq	%r8, -48(%rbp)	# arg2, arg2
	movq	%r9, -56(%rbp)	# arg3, arg3
	.loc 1 199 0
	movl	$40, %edi	#,
	call	ggc_alloc	#
	movq	%rax, -8(%rbp)	# tmp63, rt
	.loc 1 200 0
	movq	-8(%rbp), %rax	# rt, tmp64
	movl	$8, %edx	#,
	movl	$0, %esi	#,
	movq	%rax, %rdi	# tmp64,
	call	memset	#
	.loc 1 202 0
	movl	-20(%rbp), %eax	# code, tmp65
	movl	%eax, %edx	# tmp65, D.9327
	movq	-8(%rbp), %rax	# rt, tmp66
	movw	%dx, (%rax)	# D.9327, rt_1->code
	.loc 1 203 0
	movl	-24(%rbp), %eax	# mode, tmp67
	movl	%eax, %edx	# tmp67, D.9328
	movq	-8(%rbp), %rax	# rt, tmp68
	movb	%dl, 2(%rax)	# D.9328, rt_1->mode
	.loc 1 204 0
	movq	-8(%rbp), %rax	# rt, tmp69
	movq	-32(%rbp), %rdx	# arg0, tmp70
	movq	%rdx, 8(%rax)	# tmp70, rt_1->fld[0].rtstr
	.loc 1 205 0
	movq	-8(%rbp), %rax	# rt, tmp71
	movq	-40(%rbp), %rdx	# arg1, tmp72
	movq	%rdx, 16(%rax)	# tmp72, rt_1->fld[1].rtvec
	.loc 1 206 0
	movq	-8(%rbp), %rax	# rt, tmp73
	movq	-48(%rbp), %rdx	# arg2, tmp74
	movq	%rdx, 24(%rax)	# tmp74, rt_1->fld[2].rtstr
	.loc 1 207 0
	movq	-8(%rbp), %rax	# rt, tmp75
	movq	-56(%rbp), %rdx	# arg3, tmp76
	movq	%rdx, 32(%rax)	# tmp76, rt_1->fld[3].rtstr
	.loc 1 209 0
	movq	-8(%rbp), %rax	# rt, D.9329
	.loc 1 210 0
	leave
	.cfi_def_cfa 7, 8
	ret
	.cfi_endproc
.LFE11:
	.size	gen_rtx_fmt_sEss, .-gen_rtx_fmt_sEss
	.globl	gen_rtx_fmt_eE
	.type	gen_rtx_fmt_eE, @function
gen_rtx_fmt_eE:
.LFB12:
	.loc 1 218 0
	.cfi_startproc
	pushq	%rbp	#
	.cfi_def_cfa_offset 16
	.cfi_offset 6, -16
	movq	%rsp, %rbp	#,
	.cfi_def_cfa_register 6
	subq	$48, %rsp	#,
	movl	%edi, -20(%rbp)	# code, code
	movl	%esi, -24(%rbp)	# mode, mode
	movq	%rdx, -32(%rbp)	# arg0, arg0
	movq	%rcx, -40(%rbp)	# arg1, arg1
	.loc 1 220 0
	movl	$24, %edi	#,
	call	ggc_alloc	#
	movq	%rax, -8(%rbp)	# tmp63, rt
	.loc 1 221 0
	movq	-8(%rbp), %rax	# rt, tmp64
	movl	$8, %edx	#,
	movl	$0, %esi	#,
	movq	%rax, %rdi	# tmp64,
	call	memset	#
	.loc 1 223 0
	movl	-20(%rbp), %eax	# code, tmp65
	movl	%eax, %edx	# tmp65, D.9330
	movq	-8(%rbp), %rax	# rt, tmp66
	movw	%dx, (%rax)	# D.9330, rt_1->code
	.loc 1 224 0
	movl	-24(%rbp), %eax	# mode, tmp67
	movl	%eax, %edx	# tmp67, D.9331
	movq	-8(%rbp), %rax	# rt, tmp68
	movb	%dl, 2(%rax)	# D.9331, rt_1->mode
	.loc 1 225 0
	movq	-8(%rbp), %rax	# rt, tmp69
	movq	-32(%rbp), %rdx	# arg0, tmp70
	movq	%rdx, 8(%rax)	# tmp70, rt_1->fld[0].rtx
	.loc 1 226 0
	movq	-8(%rbp), %rax	# rt, tmp71
	movq	-40(%rbp), %rdx	# arg1, tmp72
	movq	%rdx, 16(%rax)	# tmp72, rt_1->fld[1].rtvec
	.loc 1 228 0
	movq	-8(%rbp), %rax	# rt, D.9332
	.loc 1 229 0
	leave
	.cfi_def_cfa 7, 8
	ret
	.cfi_endproc
.LFE12:
	.size	gen_rtx_fmt_eE, .-gen_rtx_fmt_eE
	.globl	gen_rtx_fmt_E
	.type	gen_rtx_fmt_E, @function
gen_rtx_fmt_E:
.LFB13:
	.loc 1 236 0
	.cfi_startproc
	pushq	%rbp	#
	.cfi_def_cfa_offset 16
	.cfi_offset 6, -16
	movq	%rsp, %rbp	#,
	.cfi_def_cfa_register 6
	subq	$32, %rsp	#,
	movl	%edi, -20(%rbp)	# code, code
	movl	%esi, -24(%rbp)	# mode, mode
	movq	%rdx, -32(%rbp)	# arg0, arg0
	.loc 1 238 0
	movl	$16, %edi	#,
	call	ggc_alloc	#
	movq	%rax, -8(%rbp)	# tmp63, rt
	.loc 1 239 0
	movq	-8(%rbp), %rax	# rt, tmp64
	movl	$8, %edx	#,
	movl	$0, %esi	#,
	movq	%rax, %rdi	# tmp64,
	call	memset	#
	.loc 1 241 0
	movl	-20(%rbp), %eax	# code, tmp65
	movl	%eax, %edx	# tmp65, D.9333
	movq	-8(%rbp), %rax	# rt, tmp66
	movw	%dx, (%rax)	# D.9333, rt_1->code
	.loc 1 242 0
	movl	-24(%rbp), %eax	# mode, tmp67
	movl	%eax, %edx	# tmp67, D.9334
	movq	-8(%rbp), %rax	# rt, tmp68
	movb	%dl, 2(%rax)	# D.9334, rt_1->mode
	.loc 1 243 0
	movq	-8(%rbp), %rax	# rt, tmp69
	movq	-32(%rbp), %rdx	# arg0, tmp70
	movq	%rdx, 8(%rax)	# tmp70, rt_1->fld[0].rtvec
	.loc 1 245 0
	movq	-8(%rbp), %rax	# rt, D.9335
	.loc 1 246 0
	leave
	.cfi_def_cfa 7, 8
	ret
	.cfi_endproc
.LFE13:
	.size	gen_rtx_fmt_E, .-gen_rtx_fmt_E
	.globl	gen_rtx_fmt_e
	.type	gen_rtx_fmt_e, @function
gen_rtx_fmt_e:
.LFB14:
	.loc 1 253 0
	.cfi_startproc
	pushq	%rbp	#
	.cfi_def_cfa_offset 16
	.cfi_offset 6, -16
	movq	%rsp, %rbp	#,
	.cfi_def_cfa_register 6
	subq	$32, %rsp	#,
	movl	%edi, -20(%rbp)	# code, code
	movl	%esi, -24(%rbp)	# mode, mode
	movq	%rdx, -32(%rbp)	# arg0, arg0
	.loc 1 255 0
	movl	$16, %edi	#,
	call	ggc_alloc	#
	movq	%rax, -8(%rbp)	# tmp63, rt
	.loc 1 256 0
	movq	-8(%rbp), %rax	# rt, tmp64
	movl	$8, %edx	#,
	movl	$0, %esi	#,
	movq	%rax, %rdi	# tmp64,
	call	memset	#
	.loc 1 258 0
	movl	-20(%rbp), %eax	# code, tmp65
	movl	%eax, %edx	# tmp65, D.9336
	movq	-8(%rbp), %rax	# rt, tmp66
	movw	%dx, (%rax)	# D.9336, rt_1->code
	.loc 1 259 0
	movl	-24(%rbp), %eax	# mode, tmp67
	movl	%eax, %edx	# tmp67, D.9337
	movq	-8(%rbp), %rax	# rt, tmp68
	movb	%dl, 2(%rax)	# D.9337, rt_1->mode
	.loc 1 260 0
	movq	-8(%rbp), %rax	# rt, tmp69
	movq	-32(%rbp), %rdx	# arg0, tmp70
	movq	%rdx, 8(%rax)	# tmp70, rt_1->fld[0].rtx
	.loc 1 262 0
	movq	-8(%rbp), %rax	# rt, D.9338
	.loc 1 263 0
	leave
	.cfi_def_cfa 7, 8
	ret
	.cfi_endproc
.LFE14:
	.size	gen_rtx_fmt_e, .-gen_rtx_fmt_e
	.globl	gen_rtx_fmt_sse
	.type	gen_rtx_fmt_sse, @function
gen_rtx_fmt_sse:
.LFB15:
	.loc 1 272 0
	.cfi_startproc
	pushq	%rbp	#
	.cfi_def_cfa_offset 16
	.cfi_offset 6, -16
	movq	%rsp, %rbp	#,
	.cfi_def_cfa_register 6
	subq	$48, %rsp	#,
	movl	%edi, -20(%rbp)	# code, code
	movl	%esi, -24(%rbp)	# mode, mode
	movq	%rdx, -32(%rbp)	# arg0, arg0
	movq	%rcx, -40(%rbp)	# arg1, arg1
	movq	%r8, -48(%rbp)	# arg2, arg2
	.loc 1 274 0
	movl	$32, %edi	#,
	call	ggc_alloc	#
	movq	%rax, -8(%rbp)	# tmp63, rt
	.loc 1 275 0
	movq	-8(%rbp), %rax	# rt, tmp64
	movl	$8, %edx	#,
	movl	$0, %esi	#,
	movq	%rax, %rdi	# tmp64,
	call	memset	#
	.loc 1 277 0
	movl	-20(%rbp), %eax	# code, tmp65
	movl	%eax, %edx	# tmp65, D.9339
	movq	-8(%rbp), %rax	# rt, tmp66
	movw	%dx, (%rax)	# D.9339, rt_1->code
	.loc 1 278 0
	movl	-24(%rbp), %eax	# mode, tmp67
	movl	%eax, %edx	# tmp67, D.9340
	movq	-8(%rbp), %rax	# rt, tmp68
	movb	%dl, 2(%rax)	# D.9340, rt_1->mode
	.loc 1 279 0
	movq	-8(%rbp), %rax	# rt, tmp69
	movq	-32(%rbp), %rdx	# arg0, tmp70
	movq	%rdx, 8(%rax)	# tmp70, rt_1->fld[0].rtstr
	.loc 1 280 0
	movq	-8(%rbp), %rax	# rt, tmp71
	movq	-40(%rbp), %rdx	# arg1, tmp72
	movq	%rdx, 16(%rax)	# tmp72, rt_1->fld[1].rtstr
	.loc 1 281 0
	movq	-8(%rbp), %rax	# rt, tmp73
	movq	-48(%rbp), %rdx	# arg2, tmp74
	movq	%rdx, 24(%rax)	# tmp74, rt_1->fld[2].rtx
	.loc 1 283 0
	movq	-8(%rbp), %rax	# rt, D.9341
	.loc 1 284 0
	leave
	.cfi_def_cfa 7, 8
	ret
	.cfi_endproc
.LFE15:
	.size	gen_rtx_fmt_sse, .-gen_rtx_fmt_sse
	.globl	gen_rtx_fmt_ss
	.type	gen_rtx_fmt_ss, @function
gen_rtx_fmt_ss:
.LFB16:
	.loc 1 292 0
	.cfi_startproc
	pushq	%rbp	#
	.cfi_def_cfa_offset 16
	.cfi_offset 6, -16
	movq	%rsp, %rbp	#,
	.cfi_def_cfa_register 6
	subq	$48, %rsp	#,
	movl	%edi, -20(%rbp)	# code, code
	movl	%esi, -24(%rbp)	# mode, mode
	movq	%rdx, -32(%rbp)	# arg0, arg0
	movq	%rcx, -40(%rbp)	# arg1, arg1
	.loc 1 294 0
	movl	$24, %edi	#,
	call	ggc_alloc	#
	movq	%rax, -8(%rbp)	# tmp63, rt
	.loc 1 295 0
	movq	-8(%rbp), %rax	# rt, tmp64
	movl	$8, %edx	#,
	movl	$0, %esi	#,
	movq	%rax, %rdi	# tmp64,
	call	memset	#
	.loc 1 297 0
	movl	-20(%rbp), %eax	# code, tmp65
	movl	%eax, %edx	# tmp65, D.9342
	movq	-8(%rbp), %rax	# rt, tmp66
	movw	%dx, (%rax)	# D.9342, rt_1->code
	.loc 1 298 0
	movl	-24(%rbp), %eax	# mode, tmp67
	movl	%eax, %edx	# tmp67, D.9343
	movq	-8(%rbp), %rax	# rt, tmp68
	movb	%dl, 2(%rax)	# D.9343, rt_1->mode
	.loc 1 299 0
	movq	-8(%rbp), %rax	# rt, tmp69
	movq	-32(%rbp), %rdx	# arg0, tmp70
	movq	%rdx, 8(%rax)	# tmp70, rt_1->fld[0].rtstr
	.loc 1 300 0
	movq	-8(%rbp), %rax	# rt, tmp71
	movq	-40(%rbp), %rdx	# arg1, tmp72
	movq	%rdx, 16(%rax)	# tmp72, rt_1->fld[1].rtstr
	.loc 1 302 0
	movq	-8(%rbp), %rax	# rt, D.9344
	.loc 1 303 0
	leave
	.cfi_def_cfa 7, 8
	ret
	.cfi_endproc
.LFE16:
	.size	gen_rtx_fmt_ss, .-gen_rtx_fmt_ss
	.globl	gen_rtx_fmt_sE
	.type	gen_rtx_fmt_sE, @function
gen_rtx_fmt_sE:
.LFB17:
	.loc 1 311 0
	.cfi_startproc
	pushq	%rbp	#
	.cfi_def_cfa_offset 16
	.cfi_offset 6, -16
	movq	%rsp, %rbp	#,
	.cfi_def_cfa_register 6
	subq	$48, %rsp	#,
	movl	%edi, -20(%rbp)	# code, code
	movl	%esi, -24(%rbp)	# mode, mode
	movq	%rdx, -32(%rbp)	# arg0, arg0
	movq	%rcx, -40(%rbp)	# arg1, arg1
	.loc 1 313 0
	movl	$24, %edi	#,
	call	ggc_alloc	#
	movq	%rax, -8(%rbp)	# tmp63, rt
	.loc 1 314 0
	movq	-8(%rbp), %rax	# rt, tmp64
	movl	$8, %edx	#,
	movl	$0, %esi	#,
	movq	%rax, %rdi	# tmp64,
	call	memset	#
	.loc 1 316 0
	movl	-20(%rbp), %eax	# code, tmp65
	movl	%eax, %edx	# tmp65, D.9345
	movq	-8(%rbp), %rax	# rt, tmp66
	movw	%dx, (%rax)	# D.9345, rt_1->code
	.loc 1 317 0
	movl	-24(%rbp), %eax	# mode, tmp67
	movl	%eax, %edx	# tmp67, D.9346
	movq	-8(%rbp), %rax	# rt, tmp68
	movb	%dl, 2(%rax)	# D.9346, rt_1->mode
	.loc 1 318 0
	movq	-8(%rbp), %rax	# rt, tmp69
	movq	-32(%rbp), %rdx	# arg0, tmp70
	movq	%rdx, 8(%rax)	# tmp70, rt_1->fld[0].rtstr
	.loc 1 319 0
	movq	-8(%rbp), %rax	# rt, tmp71
	movq	-40(%rbp), %rdx	# arg1, tmp72
	movq	%rdx, 16(%rax)	# tmp72, rt_1->fld[1].rtvec
	.loc 1 321 0
	movq	-8(%rbp), %rax	# rt, D.9347
	.loc 1 322 0
	leave
	.cfi_def_cfa 7, 8
	ret
	.cfi_endproc
.LFE17:
	.size	gen_rtx_fmt_sE, .-gen_rtx_fmt_sE
	.globl	gen_rtx_fmt_iuueiee
	.type	gen_rtx_fmt_iuueiee, @function
gen_rtx_fmt_iuueiee:
.LFB18:
	.loc 1 335 0
	.cfi_startproc
	pushq	%rbp	#
	.cfi_def_cfa_offset 16
	.cfi_offset 6, -16
	movq	%rsp, %rbp	#,
	.cfi_def_cfa_register 6
	subq	$64, %rsp	#,
	movl	%edi, -20(%rbp)	# code, code
	movl	%esi, -24(%rbp)	# mode, mode
	movl	%edx, -28(%rbp)	# arg0, arg0
	movq	%rcx, -40(%rbp)	# arg1, arg1
	movq	%r8, -48(%rbp)	# arg2, arg2
	movq	%r9, -56(%rbp)	# arg3, arg3
	.loc 1 337 0
	movl	$64, %edi	#,
	call	ggc_alloc	#
	movq	%rax, -8(%rbp)	# tmp63, rt
	.loc 1 338 0
	movq	-8(%rbp), %rax	# rt, tmp64
	movl	$8, %edx	#,
	movl	$0, %esi	#,
	movq	%rax, %rdi	# tmp64,
	call	memset	#
	.loc 1 340 0
	movl	-20(%rbp), %eax	# code, tmp65
	movl	%eax, %edx	# tmp65, D.9348
	movq	-8(%rbp), %rax	# rt, tmp66
	movw	%dx, (%rax)	# D.9348, rt_1->code
	.loc 1 341 0
	movl	-24(%rbp), %eax	# mode, tmp67
	movl	%eax, %edx	# tmp67, D.9349
	movq	-8(%rbp), %rax	# rt, tmp68
	movb	%dl, 2(%rax)	# D.9349, rt_1->mode
	.loc 1 342 0
	movq	-8(%rbp), %rax	# rt, tmp69
	movl	-28(%rbp), %edx	# arg0, tmp70
	movl	%edx, 8(%rax)	# tmp70, rt_1->fld[0].rtint
	.loc 1 343 0
	movq	-8(%rbp), %rax	# rt, tmp71
	movq	-40(%rbp), %rdx	# arg1, tmp72
	movq	%rdx, 16(%rax)	# tmp72, rt_1->fld[1].rtx
	.loc 1 344 0
	movq	-8(%rbp), %rax	# rt, tmp73
	movq	-48(%rbp), %rdx	# arg2, tmp74
	movq	%rdx, 24(%rax)	# tmp74, rt_1->fld[2].rtx
	.loc 1 345 0
	movq	-8(%rbp), %rax	# rt, tmp75
	movq	-56(%rbp), %rdx	# arg3, tmp76
	movq	%rdx, 32(%rax)	# tmp76, rt_1->fld[3].rtx
	.loc 1 346 0
	movq	-8(%rbp), %rax	# rt, tmp77
	movl	16(%rbp), %edx	# arg4, tmp78
	movl	%edx, 40(%rax)	# tmp78, rt_1->fld[4].rtint
	.loc 1 347 0
	movq	-8(%rbp), %rax	# rt, tmp79
	movq	24(%rbp), %rdx	# arg5, tmp80
	movq	%rdx, 48(%rax)	# tmp80, rt_1->fld[5].rtx
	.loc 1 348 0
	movq	-8(%rbp), %rax	# rt, tmp81
	movq	32(%rbp), %rdx	# arg6, tmp82
	movq	%rdx, 56(%rax)	# tmp82, rt_1->fld[6].rtx
	.loc 1 350 0
	movq	-8(%rbp), %rax	# rt, D.9350
	.loc 1 351 0
	leave
	.cfi_def_cfa 7, 8
	ret
	.cfi_endproc
.LFE18:
	.size	gen_rtx_fmt_iuueiee, .-gen_rtx_fmt_iuueiee
	.globl	gen_rtx_fmt_iuueiee0
	.type	gen_rtx_fmt_iuueiee0, @function
gen_rtx_fmt_iuueiee0:
.LFB19:
	.loc 1 364 0
	.cfi_startproc
	pushq	%rbp	#
	.cfi_def_cfa_offset 16
	.cfi_offset 6, -16
	movq	%rsp, %rbp	#,
	.cfi_def_cfa_register 6
	subq	$64, %rsp	#,
	movl	%edi, -20(%rbp)	# code, code
	movl	%esi, -24(%rbp)	# mode, mode
	movl	%edx, -28(%rbp)	# arg0, arg0
	movq	%rcx, -40(%rbp)	# arg1, arg1
	movq	%r8, -48(%rbp)	# arg2, arg2
	movq	%r9, -56(%rbp)	# arg3, arg3
	.loc 1 366 0
	movl	$72, %edi	#,
	call	ggc_alloc	#
	movq	%rax, -8(%rbp)	# tmp63, rt
	.loc 1 367 0
	movq	-8(%rbp), %rax	# rt, tmp64
	movl	$8, %edx	#,
	movl	$0, %esi	#,
	movq	%rax, %rdi	# tmp64,
	call	memset	#
	.loc 1 369 0
	movl	-20(%rbp), %eax	# code, tmp65
	movl	%eax, %edx	# tmp65, D.9351
	movq	-8(%rbp), %rax	# rt, tmp66
	movw	%dx, (%rax)	# D.9351, rt_1->code
	.loc 1 370 0
	movl	-24(%rbp), %eax	# mode, tmp67
	movl	%eax, %edx	# tmp67, D.9352
	movq	-8(%rbp), %rax	# rt, tmp68
	movb	%dl, 2(%rax)	# D.9352, rt_1->mode
	.loc 1 371 0
	movq	-8(%rbp), %rax	# rt, tmp69
	movl	-28(%rbp), %edx	# arg0, tmp70
	movl	%edx, 8(%rax)	# tmp70, rt_1->fld[0].rtint
	.loc 1 372 0
	movq	-8(%rbp), %rax	# rt, tmp71
	movq	-40(%rbp), %rdx	# arg1, tmp72
	movq	%rdx, 16(%rax)	# tmp72, rt_1->fld[1].rtx
	.loc 1 373 0
	movq	-8(%rbp), %rax	# rt, tmp73
	movq	-48(%rbp), %rdx	# arg2, tmp74
	movq	%rdx, 24(%rax)	# tmp74, rt_1->fld[2].rtx
	.loc 1 374 0
	movq	-8(%rbp), %rax	# rt, tmp75
	movq	-56(%rbp), %rdx	# arg3, tmp76
	movq	%rdx, 32(%rax)	# tmp76, rt_1->fld[3].rtx
	.loc 1 375 0
	movq	-8(%rbp), %rax	# rt, tmp77
	movl	16(%rbp), %edx	# arg4, tmp78
	movl	%edx, 40(%rax)	# tmp78, rt_1->fld[4].rtint
	.loc 1 376 0
	movq	-8(%rbp), %rax	# rt, tmp79
	movq	24(%rbp), %rdx	# arg5, tmp80
	movq	%rdx, 48(%rax)	# tmp80, rt_1->fld[5].rtx
	.loc 1 377 0
	movq	-8(%rbp), %rax	# rt, tmp81
	movq	32(%rbp), %rdx	# arg6, tmp82
	movq	%rdx, 56(%rax)	# tmp82, rt_1->fld[6].rtx
	.loc 1 378 0
	movq	-8(%rbp), %rax	# rt, tmp83
	movq	$0, 64(%rax)	#, rt_1->fld[7].rtx
	.loc 1 380 0
	movq	-8(%rbp), %rax	# rt, D.9353
	.loc 1 381 0
	leave
	.cfi_def_cfa 7, 8
	ret
	.cfi_endproc
.LFE19:
	.size	gen_rtx_fmt_iuueiee0, .-gen_rtx_fmt_iuueiee0
	.globl	gen_rtx_fmt_iuueieee
	.type	gen_rtx_fmt_iuueieee, @function
gen_rtx_fmt_iuueieee:
.LFB20:
	.loc 1 395 0
	.cfi_startproc
	pushq	%rbp	#
	.cfi_def_cfa_offset 16
	.cfi_offset 6, -16
	movq	%rsp, %rbp	#,
	.cfi_def_cfa_register 6
	subq	$64, %rsp	#,
	movl	%edi, -20(%rbp)	# code, code
	movl	%esi, -24(%rbp)	# mode, mode
	movl	%edx, -28(%rbp)	# arg0, arg0
	movq	%rcx, -40(%rbp)	# arg1, arg1
	movq	%r8, -48(%rbp)	# arg2, arg2
	movq	%r9, -56(%rbp)	# arg3, arg3
	.loc 1 397 0
	movl	$72, %edi	#,
	call	ggc_alloc	#
	movq	%rax, -8(%rbp)	# tmp63, rt
	.loc 1 398 0
	movq	-8(%rbp), %rax	# rt, tmp64
	movl	$8, %edx	#,
	movl	$0, %esi	#,
	movq	%rax, %rdi	# tmp64,
	call	memset	#
	.loc 1 400 0
	movl	-20(%rbp), %eax	# code, tmp65
	movl	%eax, %edx	# tmp65, D.9354
	movq	-8(%rbp), %rax	# rt, tmp66
	movw	%dx, (%rax)	# D.9354, rt_1->code
	.loc 1 401 0
	movl	-24(%rbp), %eax	# mode, tmp67
	movl	%eax, %edx	# tmp67, D.9355
	movq	-8(%rbp), %rax	# rt, tmp68
	movb	%dl, 2(%rax)	# D.9355, rt_1->mode
	.loc 1 402 0
	movq	-8(%rbp), %rax	# rt, tmp69
	movl	-28(%rbp), %edx	# arg0, tmp70
	movl	%edx, 8(%rax)	# tmp70, rt_1->fld[0].rtint
	.loc 1 403 0
	movq	-8(%rbp), %rax	# rt, tmp71
	movq	-40(%rbp), %rdx	# arg1, tmp72
	movq	%rdx, 16(%rax)	# tmp72, rt_1->fld[1].rtx
	.loc 1 404 0
	movq	-8(%rbp), %rax	# rt, tmp73
	movq	-48(%rbp), %rdx	# arg2, tmp74
	movq	%rdx, 24(%rax)	# tmp74, rt_1->fld[2].rtx
	.loc 1 405 0
	movq	-8(%rbp), %rax	# rt, tmp75
	movq	-56(%rbp), %rdx	# arg3, tmp76
	movq	%rdx, 32(%rax)	# tmp76, rt_1->fld[3].rtx
	.loc 1 406 0
	movq	-8(%rbp), %rax	# rt, tmp77
	movl	16(%rbp), %edx	# arg4, tmp78
	movl	%edx, 40(%rax)	# tmp78, rt_1->fld[4].rtint
	.loc 1 407 0
	movq	-8(%rbp), %rax	# rt, tmp79
	movq	24(%rbp), %rdx	# arg5, tmp80
	movq	%rdx, 48(%rax)	# tmp80, rt_1->fld[5].rtx
	.loc 1 408 0
	movq	-8(%rbp), %rax	# rt, tmp81
	movq	32(%rbp), %rdx	# arg6, tmp82
	movq	%rdx, 56(%rax)	# tmp82, rt_1->fld[6].rtx
	.loc 1 409 0
	movq	-8(%rbp), %rax	# rt, tmp83
	movq	40(%rbp), %rdx	# arg7, tmp84
	movq	%rdx, 64(%rax)	# tmp84, rt_1->fld[7].rtx
	.loc 1 411 0
	movq	-8(%rbp), %rax	# rt, D.9356
	.loc 1 412 0
	leave
	.cfi_def_cfa 7, 8
	ret
	.cfi_endproc
.LFE20:
	.size	gen_rtx_fmt_iuueieee, .-gen_rtx_fmt_iuueieee
	.globl	gen_rtx_fmt_iuu
	.type	gen_rtx_fmt_iuu, @function
gen_rtx_fmt_iuu:
.LFB21:
	.loc 1 421 0
	.cfi_startproc
	pushq	%rbp	#
	.cfi_def_cfa_offset 16
	.cfi_offset 6, -16
	movq	%rsp, %rbp	#,
	.cfi_def_cfa_register 6
	subq	$48, %rsp	#,
	movl	%edi, -20(%rbp)	# code, code
	movl	%esi, -24(%rbp)	# mode, mode
	movl	%edx, -28(%rbp)	# arg0, arg0
	movq	%rcx, -40(%rbp)	# arg1, arg1
	movq	%r8, -48(%rbp)	# arg2, arg2
	.loc 1 423 0
	movl	$32, %edi	#,
	call	ggc_alloc	#
	movq	%rax, -8(%rbp)	# tmp63, rt
	.loc 1 424 0
	movq	-8(%rbp), %rax	# rt, tmp64
	movl	$8, %edx	#,
	movl	$0, %esi	#,
	movq	%rax, %rdi	# tmp64,
	call	memset	#
	.loc 1 426 0
	movl	-20(%rbp), %eax	# code, tmp65
	movl	%eax, %edx	# tmp65, D.9357
	movq	-8(%rbp), %rax	# rt, tmp66
	movw	%dx, (%rax)	# D.9357, rt_1->code
	.loc 1 427 0
	movl	-24(%rbp), %eax	# mode, tmp67
	movl	%eax, %edx	# tmp67, D.9358
	movq	-8(%rbp), %rax	# rt, tmp68
	movb	%dl, 2(%rax)	# D.9358, rt_1->mode
	.loc 1 428 0
	movq	-8(%rbp), %rax	# rt, tmp69
	movl	-28(%rbp), %edx	# arg0, tmp70
	movl	%edx, 8(%rax)	# tmp70, rt_1->fld[0].rtint
	.loc 1 429 0
	movq	-8(%rbp), %rax	# rt, tmp71
	movq	-40(%rbp), %rdx	# arg1, tmp72
	movq	%rdx, 16(%rax)	# tmp72, rt_1->fld[1].rtx
	.loc 1 430 0
	movq	-8(%rbp), %rax	# rt, tmp73
	movq	-48(%rbp), %rdx	# arg2, tmp74
	movq	%rdx, 24(%rax)	# tmp74, rt_1->fld[2].rtx
	.loc 1 432 0
	movq	-8(%rbp), %rax	# rt, D.9359
	.loc 1 433 0
	leave
	.cfi_def_cfa 7, 8
	ret
	.cfi_endproc
.LFE21:
	.size	gen_rtx_fmt_iuu, .-gen_rtx_fmt_iuu
	.globl	gen_rtx_fmt_iuu00iss
	.type	gen_rtx_fmt_iuu00iss, @function
gen_rtx_fmt_iuu00iss:
.LFB22:
	.loc 1 445 0
	.cfi_startproc
	pushq	%rbp	#
	.cfi_def_cfa_offset 16
	.cfi_offset 6, -16
	movq	%rsp, %rbp	#,
	.cfi_def_cfa_register 6
	subq	$48, %rsp	#,
	movl	%edi, -20(%rbp)	# code, code
	movl	%esi, -24(%rbp)	# mode, mode
	movl	%edx, -28(%rbp)	# arg0, arg0
	movq	%rcx, -40(%rbp)	# arg1, arg1
	movq	%r8, -48(%rbp)	# arg2, arg2
	movl	%r9d, -32(%rbp)	# arg3, arg3
	.loc 1 447 0
	movl	$72, %edi	#,
	call	ggc_alloc	#
	movq	%rax, -8(%rbp)	# tmp63, rt
	.loc 1 448 0
	movq	-8(%rbp), %rax	# rt, tmp64
	movl	$8, %edx	#,
	movl	$0, %esi	#,
	movq	%rax, %rdi	# tmp64,
	call	memset	#
	.loc 1 450 0
	movl	-20(%rbp), %eax	# code, tmp65
	movl	%eax, %edx	# tmp65, D.9360
	movq	-8(%rbp), %rax	# rt, tmp66
	movw	%dx, (%rax)	# D.9360, rt_1->code
	.loc 1 451 0
	movl	-24(%rbp), %eax	# mode, tmp67
	movl	%eax, %edx	# tmp67, D.9361
	movq	-8(%rbp), %rax	# rt, tmp68
	movb	%dl, 2(%rax)	# D.9361, rt_1->mode
	.loc 1 452 0
	movq	-8(%rbp), %rax	# rt, tmp69
	movl	-28(%rbp), %edx	# arg0, tmp70
	movl	%edx, 8(%rax)	# tmp70, rt_1->fld[0].rtint
	.loc 1 453 0
	movq	-8(%rbp), %rax	# rt, tmp71
	movq	-40(%rbp), %rdx	# arg1, tmp72
	movq	%rdx, 16(%rax)	# tmp72, rt_1->fld[1].rtx
	.loc 1 454 0
	movq	-8(%rbp), %rax	# rt, tmp73
	movq	-48(%rbp), %rdx	# arg2, tmp74
	movq	%rdx, 24(%rax)	# tmp74, rt_1->fld[2].rtx
	.loc 1 455 0
	movq	-8(%rbp), %rax	# rt, tmp75
	movq	$0, 32(%rax)	#, rt_1->fld[3].rtx
	.loc 1 456 0
	movq	-8(%rbp), %rax	# rt, tmp76
	movq	$0, 40(%rax)	#, rt_1->fld[4].rtx
	.loc 1 457 0
	movq	-8(%rbp), %rax	# rt, tmp77
	movl	-32(%rbp), %edx	# arg3, tmp78
	movl	%edx, 48(%rax)	# tmp78, rt_1->fld[5].rtint
	.loc 1 458 0
	movq	-8(%rbp), %rax	# rt, tmp79
	movq	16(%rbp), %rdx	# arg4, tmp80
	movq	%rdx, 56(%rax)	# tmp80, rt_1->fld[6].rtstr
	.loc 1 459 0
	movq	-8(%rbp), %rax	# rt, tmp81
	movq	24(%rbp), %rdx	# arg5, tmp82
	movq	%rdx, 64(%rax)	# tmp82, rt_1->fld[7].rtstr
	.loc 1 461 0
	movq	-8(%rbp), %rax	# rt, D.9362
	.loc 1 462 0
	leave
	.cfi_def_cfa 7, 8
	ret
	.cfi_endproc
.LFE22:
	.size	gen_rtx_fmt_iuu00iss, .-gen_rtx_fmt_iuu00iss
	.globl	gen_rtx_fmt_ssiEEsi
	.type	gen_rtx_fmt_ssiEEsi, @function
gen_rtx_fmt_ssiEEsi:
.LFB23:
	.loc 1 475 0
	.cfi_startproc
	pushq	%rbp	#
	.cfi_def_cfa_offset 16
	.cfi_offset 6, -16
	movq	%rsp, %rbp	#,
	.cfi_def_cfa_register 6
	subq	$64, %rsp	#,
	movl	%edi, -20(%rbp)	# code, code
	movl	%esi, -24(%rbp)	# mode, mode
	movq	%rdx, -32(%rbp)	# arg0, arg0
	movq	%rcx, -40(%rbp)	# arg1, arg1
	movl	%r8d, -44(%rbp)	# arg2, arg2
	movq	%r9, -56(%rbp)	# arg3, arg3
	.loc 1 477 0
	movl	$64, %edi	#,
	call	ggc_alloc	#
	movq	%rax, -8(%rbp)	# tmp63, rt
	.loc 1 478 0
	movq	-8(%rbp), %rax	# rt, tmp64
	movl	$8, %edx	#,
	movl	$0, %esi	#,
	movq	%rax, %rdi	# tmp64,
	call	memset	#
	.loc 1 480 0
	movl	-20(%rbp), %eax	# code, tmp65
	movl	%eax, %edx	# tmp65, D.9363
	movq	-8(%rbp), %rax	# rt, tmp66
	movw	%dx, (%rax)	# D.9363, rt_1->code
	.loc 1 481 0
	movl	-24(%rbp), %eax	# mode, tmp67
	movl	%eax, %edx	# tmp67, D.9364
	movq	-8(%rbp), %rax	# rt, tmp68
	movb	%dl, 2(%rax)	# D.9364, rt_1->mode
	.loc 1 482 0
	movq	-8(%rbp), %rax	# rt, tmp69
	movq	-32(%rbp), %rdx	# arg0, tmp70
	movq	%rdx, 8(%rax)	# tmp70, rt_1->fld[0].rtstr
	.loc 1 483 0
	movq	-8(%rbp), %rax	# rt, tmp71
	movq	-40(%rbp), %rdx	# arg1, tmp72
	movq	%rdx, 16(%rax)	# tmp72, rt_1->fld[1].rtstr
	.loc 1 484 0
	movq	-8(%rbp), %rax	# rt, tmp73
	movl	-44(%rbp), %edx	# arg2, tmp74
	movl	%edx, 24(%rax)	# tmp74, rt_1->fld[2].rtint
	.loc 1 485 0
	movq	-8(%rbp), %rax	# rt, tmp75
	movq	-56(%rbp), %rdx	# arg3, tmp76
	movq	%rdx, 32(%rax)	# tmp76, rt_1->fld[3].rtvec
	.loc 1 486 0
	movq	-8(%rbp), %rax	# rt, tmp77
	movq	16(%rbp), %rdx	# arg4, tmp78
	movq	%rdx, 40(%rax)	# tmp78, rt_1->fld[4].rtvec
	.loc 1 487 0
	movq	-8(%rbp), %rax	# rt, tmp79
	movq	24(%rbp), %rdx	# arg5, tmp80
	movq	%rdx, 48(%rax)	# tmp80, rt_1->fld[5].rtstr
	.loc 1 488 0
	movq	-8(%rbp), %rax	# rt, tmp81
	movl	32(%rbp), %edx	# arg6, tmp82
	movl	%edx, 56(%rax)	# tmp82, rt_1->fld[6].rtint
	.loc 1 490 0
	movq	-8(%rbp), %rax	# rt, D.9365
	.loc 1 491 0
	leave
	.cfi_def_cfa 7, 8
	ret
	.cfi_endproc
.LFE23:
	.size	gen_rtx_fmt_ssiEEsi, .-gen_rtx_fmt_ssiEEsi
	.globl	gen_rtx_fmt_Ei
	.type	gen_rtx_fmt_Ei, @function
gen_rtx_fmt_Ei:
.LFB24:
	.loc 1 499 0
	.cfi_startproc
	pushq	%rbp	#
	.cfi_def_cfa_offset 16
	.cfi_offset 6, -16
	movq	%rsp, %rbp	#,
	.cfi_def_cfa_register 6
	subq	$48, %rsp	#,
	movl	%edi, -20(%rbp)	# code, code
	movl	%esi, -24(%rbp)	# mode, mode
	movq	%rdx, -32(%rbp)	# arg0, arg0
	movl	%ecx, -36(%rbp)	# arg1, arg1
	.loc 1 501 0
	movl	$24, %edi	#,
	call	ggc_alloc	#
	movq	%rax, -8(%rbp)	# tmp63, rt
	.loc 1 502 0
	movq	-8(%rbp), %rax	# rt, tmp64
	movl	$8, %edx	#,
	movl	$0, %esi	#,
	movq	%rax, %rdi	# tmp64,
	call	memset	#
	.loc 1 504 0
	movl	-20(%rbp), %eax	# code, tmp65
	movl	%eax, %edx	# tmp65, D.9366
	movq	-8(%rbp), %rax	# rt, tmp66
	movw	%dx, (%rax)	# D.9366, rt_1->code
	.loc 1 505 0
	movl	-24(%rbp), %eax	# mode, tmp67
	movl	%eax, %edx	# tmp67, D.9367
	movq	-8(%rbp), %rax	# rt, tmp68
	movb	%dl, 2(%rax)	# D.9367, rt_1->mode
	.loc 1 506 0
	movq	-8(%rbp), %rax	# rt, tmp69
	movq	-32(%rbp), %rdx	# arg0, tmp70
	movq	%rdx, 8(%rax)	# tmp70, rt_1->fld[0].rtvec
	.loc 1 507 0
	movq	-8(%rbp), %rax	# rt, tmp71
	movl	-36(%rbp), %edx	# arg1, tmp72
	movl	%edx, 16(%rax)	# tmp72, rt_1->fld[1].rtint
	.loc 1 509 0
	movq	-8(%rbp), %rax	# rt, D.9368
	.loc 1 510 0
	leave
	.cfi_def_cfa 7, 8
	ret
	.cfi_endproc
.LFE24:
	.size	gen_rtx_fmt_Ei, .-gen_rtx_fmt_Ei
	.globl	gen_rtx_fmt_eEee0
	.type	gen_rtx_fmt_eEee0, @function
gen_rtx_fmt_eEee0:
.LFB25:
	.loc 1 520 0
	.cfi_startproc
	pushq	%rbp	#
	.cfi_def_cfa_offset 16
	.cfi_offset 6, -16
	movq	%rsp, %rbp	#,
	.cfi_def_cfa_register 6
	subq	$64, %rsp	#,
	movl	%edi, -20(%rbp)	# code, code
	movl	%esi, -24(%rbp)	# mode, mode
	movq	%rdx, -32(%rbp)	# arg0, arg0
	movq	%rcx, -40(%rbp)	# arg1, arg1
	movq	%r8, -48(%rbp)	# arg2, arg2
	movq	%r9, -56(%rbp)	# arg3, arg3
	.loc 1 522 0
	movl	$48, %edi	#,
	call	ggc_alloc	#
	movq	%rax, -8(%rbp)	# tmp63, rt
	.loc 1 523 0
	movq	-8(%rbp), %rax	# rt, tmp64
	movl	$8, %edx	#,
	movl	$0, %esi	#,
	movq	%rax, %rdi	# tmp64,
	call	memset	#
	.loc 1 525 0
	movl	-20(%rbp), %eax	# code, tmp65
	movl	%eax, %edx	# tmp65, D.9369
	movq	-8(%rbp), %rax	# rt, tmp66
	movw	%dx, (%rax)	# D.9369, rt_1->code
	.loc 1 526 0
	movl	-24(%rbp), %eax	# mode, tmp67
	movl	%eax, %edx	# tmp67, D.9370
	movq	-8(%rbp), %rax	# rt, tmp68
	movb	%dl, 2(%rax)	# D.9370, rt_1->mode
	.loc 1 527 0
	movq	-8(%rbp), %rax	# rt, tmp69
	movq	-32(%rbp), %rdx	# arg0, tmp70
	movq	%rdx, 8(%rax)	# tmp70, rt_1->fld[0].rtx
	.loc 1 528 0
	movq	-8(%rbp), %rax	# rt, tmp71
	movq	-40(%rbp), %rdx	# arg1, tmp72
	movq	%rdx, 16(%rax)	# tmp72, rt_1->fld[1].rtvec
	.loc 1 529 0
	movq	-8(%rbp), %rax	# rt, tmp73
	movq	-48(%rbp), %rdx	# arg2, tmp74
	movq	%rdx, 24(%rax)	# tmp74, rt_1->fld[2].rtx
	.loc 1 530 0
	movq	-8(%rbp), %rax	# rt, tmp75
	movq	-56(%rbp), %rdx	# arg3, tmp76
	movq	%rdx, 32(%rax)	# tmp76, rt_1->fld[3].rtx
	.loc 1 531 0
	movq	-8(%rbp), %rax	# rt, tmp77
	movq	$0, 40(%rax)	#, rt_1->fld[4].rtx
	.loc 1 533 0
	movq	-8(%rbp), %rax	# rt, D.9371
	.loc 1 534 0
	leave
	.cfi_def_cfa 7, 8
	ret
	.cfi_endproc
.LFE25:
	.size	gen_rtx_fmt_eEee0, .-gen_rtx_fmt_eEee0
	.globl	gen_rtx_fmt_eee
	.type	gen_rtx_fmt_eee, @function
gen_rtx_fmt_eee:
.LFB26:
	.loc 1 543 0
	.cfi_startproc
	pushq	%rbp	#
	.cfi_def_cfa_offset 16
	.cfi_offset 6, -16
	movq	%rsp, %rbp	#,
	.cfi_def_cfa_register 6
	subq	$48, %rsp	#,
	movl	%edi, -20(%rbp)	# code, code
	movl	%esi, -24(%rbp)	# mode, mode
	movq	%rdx, -32(%rbp)	# arg0, arg0
	movq	%rcx, -40(%rbp)	# arg1, arg1
	movq	%r8, -48(%rbp)	# arg2, arg2
	.loc 1 545 0
	movl	$32, %edi	#,
	call	ggc_alloc	#
	movq	%rax, -8(%rbp)	# tmp63, rt
	.loc 1 546 0
	movq	-8(%rbp), %rax	# rt, tmp64
	movl	$8, %edx	#,
	movl	$0, %esi	#,
	movq	%rax, %rdi	# tmp64,
	call	memset	#
	.loc 1 548 0
	movl	-20(%rbp), %eax	# code, tmp65
	movl	%eax, %edx	# tmp65, D.9372
	movq	-8(%rbp), %rax	# rt, tmp66
	movw	%dx, (%rax)	# D.9372, rt_1->code
	.loc 1 549 0
	movl	-24(%rbp), %eax	# mode, tmp67
	movl	%eax, %edx	# tmp67, D.9373
	movq	-8(%rbp), %rax	# rt, tmp68
	movb	%dl, 2(%rax)	# D.9373, rt_1->mode
	.loc 1 550 0
	movq	-8(%rbp), %rax	# rt, tmp69
	movq	-32(%rbp), %rdx	# arg0, tmp70
	movq	%rdx, 8(%rax)	# tmp70, rt_1->fld[0].rtx
	.loc 1 551 0
	movq	-8(%rbp), %rax	# rt, tmp71
	movq	-40(%rbp), %rdx	# arg1, tmp72
	movq	%rdx, 16(%rax)	# tmp72, rt_1->fld[1].rtx
	.loc 1 552 0
	movq	-8(%rbp), %rax	# rt, tmp73
	movq	-48(%rbp), %rdx	# arg2, tmp74
	movq	%rdx, 24(%rax)	# tmp74, rt_1->fld[2].rtx
	.loc 1 554 0
	movq	-8(%rbp), %rax	# rt, D.9374
	.loc 1 555 0
	leave
	.cfi_def_cfa 7, 8
	ret
	.cfi_endproc
.LFE26:
	.size	gen_rtx_fmt_eee, .-gen_rtx_fmt_eee
	.globl	gen_rtx_fmt_
	.type	gen_rtx_fmt_, @function
gen_rtx_fmt_:
.LFB27:
	.loc 1 561 0
	.cfi_startproc
	pushq	%rbp	#
	.cfi_def_cfa_offset 16
	.cfi_offset 6, -16
	movq	%rsp, %rbp	#,
	.cfi_def_cfa_register 6
	subq	$32, %rsp	#,
	movl	%edi, -20(%rbp)	# code, code
	movl	%esi, -24(%rbp)	# mode, mode
	.loc 1 563 0
	movl	$8, %edi	#,
	call	ggc_alloc	#
	movq	%rax, -8(%rbp)	# tmp63, rt
	.loc 1 564 0
	movq	-8(%rbp), %rax	# rt, tmp64
	movl	$8, %edx	#,
	movl	$0, %esi	#,
	movq	%rax, %rdi	# tmp64,
	call	memset	#
	.loc 1 566 0
	movl	-20(%rbp), %eax	# code, tmp65
	movl	%eax, %edx	# tmp65, D.9375
	movq	-8(%rbp), %rax	# rt, tmp66
	movw	%dx, (%rax)	# D.9375, rt_1->code
	.loc 1 567 0
	movl	-24(%rbp), %eax	# mode, tmp67
	movl	%eax, %edx	# tmp67, D.9376
	movq	-8(%rbp), %rax	# rt, tmp68
	movb	%dl, 2(%rax)	# D.9376, rt_1->mode
	.loc 1 569 0
	movq	-8(%rbp), %rax	# rt, D.9377
	.loc 1 570 0
	leave
	.cfi_def_cfa 7, 8
	ret
	.cfi_endproc
.LFE27:
	.size	gen_rtx_fmt_, .-gen_rtx_fmt_
	.globl	gen_rtx_fmt_w
	.type	gen_rtx_fmt_w, @function
gen_rtx_fmt_w:
.LFB28:
	.loc 1 577 0
	.cfi_startproc
	pushq	%rbp	#
	.cfi_def_cfa_offset 16
	.cfi_offset 6, -16
	movq	%rsp, %rbp	#,
	.cfi_def_cfa_register 6
	subq	$32, %rsp	#,
	movl	%edi, -20(%rbp)	# code, code
	movl	%esi, -24(%rbp)	# mode, mode
	movq	%rdx, -32(%rbp)	# arg0, arg0
	.loc 1 579 0
	movl	$16, %edi	#,
	call	ggc_alloc	#
	movq	%rax, -8(%rbp)	# tmp63, rt
	.loc 1 580 0
	movq	-8(%rbp), %rax	# rt, tmp64
	movl	$8, %edx	#,
	movl	$0, %esi	#,
	movq	%rax, %rdi	# tmp64,
	call	memset	#
	.loc 1 582 0
	movl	-20(%rbp), %eax	# code, tmp65
	movl	%eax, %edx	# tmp65, D.9378
	movq	-8(%rbp), %rax	# rt, tmp66
	movw	%dx, (%rax)	# D.9378, rt_1->code
	.loc 1 583 0
	movl	-24(%rbp), %eax	# mode, tmp67
	movl	%eax, %edx	# tmp67, D.9379
	movq	-8(%rbp), %rax	# rt, tmp68
	movb	%dl, 2(%rax)	# D.9379, rt_1->mode
	.loc 1 584 0
	movq	-8(%rbp), %rax	# rt, tmp69
	movq	-32(%rbp), %rdx	# arg0, tmp70
	movq	%rdx, 8(%rax)	# tmp70, rt_1->fld[0].rtwint
	.loc 1 586 0
	movq	-8(%rbp), %rax	# rt, D.9380
	.loc 1 587 0
	leave
	.cfi_def_cfa 7, 8
	ret
	.cfi_endproc
.LFE28:
	.size	gen_rtx_fmt_w, .-gen_rtx_fmt_w
	.globl	gen_rtx_fmt_0www
	.type	gen_rtx_fmt_0www, @function
gen_rtx_fmt_0www:
.LFB29:
	.loc 1 596 0
	.cfi_startproc
	pushq	%rbp	#
	.cfi_def_cfa_offset 16
	.cfi_offset 6, -16
	movq	%rsp, %rbp	#,
	.cfi_def_cfa_register 6
	subq	$48, %rsp	#,
	movl	%edi, -20(%rbp)	# code, code
	movl	%esi, -24(%rbp)	# mode, mode
	movq	%rdx, -32(%rbp)	# arg0, arg0
	movq	%rcx, -40(%rbp)	# arg1, arg1
	movq	%r8, -48(%rbp)	# arg2, arg2
	.loc 1 598 0
	movl	$40, %edi	#,
	call	ggc_alloc	#
	movq	%rax, -8(%rbp)	# tmp63, rt
	.loc 1 599 0
	movq	-8(%rbp), %rax	# rt, tmp64
	movl	$8, %edx	#,
	movl	$0, %esi	#,
	movq	%rax, %rdi	# tmp64,
	call	memset	#
	.loc 1 601 0
	movl	-20(%rbp), %eax	# code, tmp65
	movl	%eax, %edx	# tmp65, D.9381
	movq	-8(%rbp), %rax	# rt, tmp66
	movw	%dx, (%rax)	# D.9381, rt_1->code
	.loc 1 602 0
	movl	-24(%rbp), %eax	# mode, tmp67
	movl	%eax, %edx	# tmp67, D.9382
	movq	-8(%rbp), %rax	# rt, tmp68
	movb	%dl, 2(%rax)	# D.9382, rt_1->mode
	.loc 1 603 0
	movq	-8(%rbp), %rax	# rt, tmp69
	movq	$0, 8(%rax)	#, rt_1->fld[0].rtx
	.loc 1 604 0
	movq	-8(%rbp), %rax	# rt, tmp70
	movq	-32(%rbp), %rdx	# arg0, tmp71
	movq	%rdx, 16(%rax)	# tmp71, rt_1->fld[1].rtwint
	.loc 1 605 0
	movq	-8(%rbp), %rax	# rt, tmp72
	movq	-40(%rbp), %rdx	# arg1, tmp73
	movq	%rdx, 24(%rax)	# tmp73, rt_1->fld[2].rtwint
	.loc 1 606 0
	movq	-8(%rbp), %rax	# rt, tmp74
	movq	-48(%rbp), %rdx	# arg2, tmp75
	movq	%rdx, 32(%rax)	# tmp75, rt_1->fld[3].rtwint
	.loc 1 608 0
	movq	-8(%rbp), %rax	# rt, D.9383
	.loc 1 609 0
	leave
	.cfi_def_cfa 7, 8
	ret
	.cfi_endproc
.LFE29:
	.size	gen_rtx_fmt_0www, .-gen_rtx_fmt_0www
	.globl	gen_rtx_fmt_0
	.type	gen_rtx_fmt_0, @function
gen_rtx_fmt_0:
.LFB30:
	.loc 1 615 0
	.cfi_startproc
	pushq	%rbp	#
	.cfi_def_cfa_offset 16
	.cfi_offset 6, -16
	movq	%rsp, %rbp	#,
	.cfi_def_cfa_register 6
	subq	$32, %rsp	#,
	movl	%edi, -20(%rbp)	# code, code
	movl	%esi, -24(%rbp)	# mode, mode
	.loc 1 617 0
	movl	$16, %edi	#,
	call	ggc_alloc	#
	movq	%rax, -8(%rbp)	# tmp63, rt
	.loc 1 618 0
	movq	-8(%rbp), %rax	# rt, tmp64
	movl	$8, %edx	#,
	movl	$0, %esi	#,
	movq	%rax, %rdi	# tmp64,
	call	memset	#
	.loc 1 620 0
	movl	-20(%rbp), %eax	# code, tmp65
	movl	%eax, %edx	# tmp65, D.9384
	movq	-8(%rbp), %rax	# rt, tmp66
	movw	%dx, (%rax)	# D.9384, rt_1->code
	.loc 1 621 0
	movl	-24(%rbp), %eax	# mode, tmp67
	movl	%eax, %edx	# tmp67, D.9385
	movq	-8(%rbp), %rax	# rt, tmp68
	movb	%dl, 2(%rax)	# D.9385, rt_1->mode
	.loc 1 622 0
	movq	-8(%rbp), %rax	# rt, tmp69
	movq	$0, 8(%rax)	#, rt_1->fld[0].rtx
	.loc 1 624 0
	movq	-8(%rbp), %rax	# rt, D.9386
	.loc 1 625 0
	leave
	.cfi_def_cfa 7, 8
	ret
	.cfi_endproc
.LFE30:
	.size	gen_rtx_fmt_0, .-gen_rtx_fmt_0
	.globl	gen_rtx_fmt_i0
	.type	gen_rtx_fmt_i0, @function
gen_rtx_fmt_i0:
.LFB31:
	.loc 1 632 0
	.cfi_startproc
	pushq	%rbp	#
	.cfi_def_cfa_offset 16
	.cfi_offset 6, -16
	movq	%rsp, %rbp	#,
	.cfi_def_cfa_register 6
	subq	$32, %rsp	#,
	movl	%edi, -20(%rbp)	# code, code
	movl	%esi, -24(%rbp)	# mode, mode
	movl	%edx, -28(%rbp)	# arg0, arg0
	.loc 1 634 0
	movl	$24, %edi	#,
	call	ggc_alloc	#
	movq	%rax, -8(%rbp)	# tmp63, rt
	.loc 1 635 0
	movq	-8(%rbp), %rax	# rt, tmp64
	movl	$8, %edx	#,
	movl	$0, %esi	#,
	movq	%rax, %rdi	# tmp64,
	call	memset	#
	.loc 1 637 0
	movl	-20(%rbp), %eax	# code, tmp65
	movl	%eax, %edx	# tmp65, D.9387
	movq	-8(%rbp), %rax	# rt, tmp66
	movw	%dx, (%rax)	# D.9387, rt_1->code
	.loc 1 638 0
	movl	-24(%rbp), %eax	# mode, tmp67
	movl	%eax, %edx	# tmp67, D.9388
	movq	-8(%rbp), %rax	# rt, tmp68
	movb	%dl, 2(%rax)	# D.9388, rt_1->mode
	.loc 1 639 0
	movq	-8(%rbp), %rax	# rt, tmp69
	movl	-28(%rbp), %edx	# arg0, tmp70
	movl	%edx, 8(%rax)	# tmp70, rt_1->fld[0].rtint
	.loc 1 640 0
	movq	-8(%rbp), %rax	# rt, tmp71
	movq	$0, 16(%rax)	#, rt_1->fld[1].rtx
	.loc 1 642 0
	movq	-8(%rbp), %rax	# rt, D.9389
	.loc 1 643 0
	leave
	.cfi_def_cfa 7, 8
	ret
	.cfi_endproc
.LFE31:
	.size	gen_rtx_fmt_i0, .-gen_rtx_fmt_i0
	.globl	gen_rtx_fmt_ei
	.type	gen_rtx_fmt_ei, @function
gen_rtx_fmt_ei:
.LFB32:
	.loc 1 651 0
	.cfi_startproc
	pushq	%rbp	#
	.cfi_def_cfa_offset 16
	.cfi_offset 6, -16
	movq	%rsp, %rbp	#,
	.cfi_def_cfa_register 6
	subq	$48, %rsp	#,
	movl	%edi, -20(%rbp)	# code, code
	movl	%esi, -24(%rbp)	# mode, mode
	movq	%rdx, -32(%rbp)	# arg0, arg0
	movl	%ecx, -36(%rbp)	# arg1, arg1
	.loc 1 653 0
	movl	$24, %edi	#,
	call	ggc_alloc	#
	movq	%rax, -8(%rbp)	# tmp63, rt
	.loc 1 654 0
	movq	-8(%rbp), %rax	# rt, tmp64
	movl	$8, %edx	#,
	movl	$0, %esi	#,
	movq	%rax, %rdi	# tmp64,
	call	memset	#
	.loc 1 656 0
	movl	-20(%rbp), %eax	# code, tmp65
	movl	%eax, %edx	# tmp65, D.9390
	movq	-8(%rbp), %rax	# rt, tmp66
	movw	%dx, (%rax)	# D.9390, rt_1->code
	.loc 1 657 0
	movl	-24(%rbp), %eax	# mode, tmp67
	movl	%eax, %edx	# tmp67, D.9391
	movq	-8(%rbp), %rax	# rt, tmp68
	movb	%dl, 2(%rax)	# D.9391, rt_1->mode
	.loc 1 658 0
	movq	-8(%rbp), %rax	# rt, tmp69
	movq	-32(%rbp), %rdx	# arg0, tmp70
	movq	%rdx, 8(%rax)	# tmp70, rt_1->fld[0].rtx
	.loc 1 659 0
	movq	-8(%rbp), %rax	# rt, tmp71
	movl	-36(%rbp), %edx	# arg1, tmp72
	movl	%edx, 16(%rax)	# tmp72, rt_1->fld[1].rtint
	.loc 1 661 0
	movq	-8(%rbp), %rax	# rt, D.9392
	.loc 1 662 0
	leave
	.cfi_def_cfa 7, 8
	ret
	.cfi_endproc
.LFE32:
	.size	gen_rtx_fmt_ei, .-gen_rtx_fmt_ei
	.globl	gen_rtx_fmt_e0
	.type	gen_rtx_fmt_e0, @function
gen_rtx_fmt_e0:
.LFB33:
	.loc 1 669 0
	.cfi_startproc
	pushq	%rbp	#
	.cfi_def_cfa_offset 16
	.cfi_offset 6, -16
	movq	%rsp, %rbp	#,
	.cfi_def_cfa_register 6
	subq	$32, %rsp	#,
	movl	%edi, -20(%rbp)	# code, code
	movl	%esi, -24(%rbp)	# mode, mode
	movq	%rdx, -32(%rbp)	# arg0, arg0
	.loc 1 671 0
	movl	$24, %edi	#,
	call	ggc_alloc	#
	movq	%rax, -8(%rbp)	# tmp63, rt
	.loc 1 672 0
	movq	-8(%rbp), %rax	# rt, tmp64
	movl	$8, %edx	#,
	movl	$0, %esi	#,
	movq	%rax, %rdi	# tmp64,
	call	memset	#
	.loc 1 674 0
	movl	-20(%rbp), %eax	# code, tmp65
	movl	%eax, %edx	# tmp65, D.9393
	movq	-8(%rbp), %rax	# rt, tmp66
	movw	%dx, (%rax)	# D.9393, rt_1->code
	.loc 1 675 0
	movl	-24(%rbp), %eax	# mode, tmp67
	movl	%eax, %edx	# tmp67, D.9394
	movq	-8(%rbp), %rax	# rt, tmp68
	movb	%dl, 2(%rax)	# D.9394, rt_1->mode
	.loc 1 676 0
	movq	-8(%rbp), %rax	# rt, tmp69
	movq	-32(%rbp), %rdx	# arg0, tmp70
	movq	%rdx, 8(%rax)	# tmp70, rt_1->fld[0].rtx
	.loc 1 677 0
	movq	-8(%rbp), %rax	# rt, tmp71
	movq	$0, 16(%rax)	#, rt_1->fld[1].rtx
	.loc 1 679 0
	movq	-8(%rbp), %rax	# rt, D.9395
	.loc 1 680 0
	leave
	.cfi_def_cfa 7, 8
	ret
	.cfi_endproc
.LFE33:
	.size	gen_rtx_fmt_e0, .-gen_rtx_fmt_e0
	.globl	gen_rtx_fmt_u00
	.type	gen_rtx_fmt_u00, @function
gen_rtx_fmt_u00:
.LFB34:
	.loc 1 687 0
	.cfi_startproc
	pushq	%rbp	#
	.cfi_def_cfa_offset 16
	.cfi_offset 6, -16
	movq	%rsp, %rbp	#,
	.cfi_def_cfa_register 6
	subq	$32, %rsp	#,
	movl	%edi, -20(%rbp)	# code, code
	movl	%esi, -24(%rbp)	# mode, mode
	movq	%rdx, -32(%rbp)	# arg0, arg0
	.loc 1 689 0
	movl	$32, %edi	#,
	call	ggc_alloc	#
	movq	%rax, -8(%rbp)	# tmp63, rt
	.loc 1 690 0
	movq	-8(%rbp), %rax	# rt, tmp64
	movl	$8, %edx	#,
	movl	$0, %esi	#,
	movq	%rax, %rdi	# tmp64,
	call	memset	#
	.loc 1 692 0
	movl	-20(%rbp), %eax	# code, tmp65
	movl	%eax, %edx	# tmp65, D.9396
	movq	-8(%rbp), %rax	# rt, tmp66
	movw	%dx, (%rax)	# D.9396, rt_1->code
	.loc 1 693 0
	movl	-24(%rbp), %eax	# mode, tmp67
	movl	%eax, %edx	# tmp67, D.9397
	movq	-8(%rbp), %rax	# rt, tmp68
	movb	%dl, 2(%rax)	# D.9397, rt_1->mode
	.loc 1 694 0
	movq	-8(%rbp), %rax	# rt, tmp69
	movq	-32(%rbp), %rdx	# arg0, tmp70
	movq	%rdx, 8(%rax)	# tmp70, rt_1->fld[0].rtx
	.loc 1 695 0
	movq	-8(%rbp), %rax	# rt, tmp71
	movq	$0, 16(%rax)	#, rt_1->fld[1].rtx
	.loc 1 696 0
	movq	-8(%rbp), %rax	# rt, tmp72
	movq	$0, 24(%rax)	#, rt_1->fld[2].rtx
	.loc 1 698 0
	movq	-8(%rbp), %rax	# rt, D.9398
	.loc 1 699 0
	leave
	.cfi_def_cfa 7, 8
	ret
	.cfi_endproc
.LFE34:
	.size	gen_rtx_fmt_u00, .-gen_rtx_fmt_u00
	.globl	gen_rtx_fmt_eit
	.type	gen_rtx_fmt_eit, @function
gen_rtx_fmt_eit:
.LFB35:
	.loc 1 708 0
	.cfi_startproc
	pushq	%rbp	#
	.cfi_def_cfa_offset 16
	.cfi_offset 6, -16
	movq	%rsp, %rbp	#,
	.cfi_def_cfa_register 6
	subq	$48, %rsp	#,
	movl	%edi, -20(%rbp)	# code, code
	movl	%esi, -24(%rbp)	# mode, mode
	movq	%rdx, -32(%rbp)	# arg0, arg0
	movl	%ecx, -36(%rbp)	# arg1, arg1
	movq	%r8, -48(%rbp)	# arg2, arg2
	.loc 1 710 0
	movl	$32, %edi	#,
	call	ggc_alloc	#
	movq	%rax, -8(%rbp)	# tmp63, rt
	.loc 1 711 0
	movq	-8(%rbp), %rax	# rt, tmp64
	movl	$8, %edx	#,
	movl	$0, %esi	#,
	movq	%rax, %rdi	# tmp64,
	call	memset	#
	.loc 1 713 0
	movl	-20(%rbp), %eax	# code, tmp65
	movl	%eax, %edx	# tmp65, D.9399
	movq	-8(%rbp), %rax	# rt, tmp66
	movw	%dx, (%rax)	# D.9399, rt_1->code
	.loc 1 714 0
	movl	-24(%rbp), %eax	# mode, tmp67
	movl	%eax, %edx	# tmp67, D.9400
	movq	-8(%rbp), %rax	# rt, tmp68
	movb	%dl, 2(%rax)	# D.9400, rt_1->mode
	.loc 1 715 0
	movq	-8(%rbp), %rax	# rt, tmp69
	movq	-32(%rbp), %rdx	# arg0, tmp70
	movq	%rdx, 8(%rax)	# tmp70, rt_1->fld[0].rtx
	.loc 1 716 0
	movq	-8(%rbp), %rax	# rt, tmp71
	movl	-36(%rbp), %edx	# arg1, tmp72
	movl	%edx, 16(%rax)	# tmp72, rt_1->fld[1].rtint
	.loc 1 717 0
	movq	-8(%rbp), %rax	# rt, tmp73
	movq	-48(%rbp), %rdx	# arg2, tmp74
	movq	%rdx, 24(%rax)	# tmp74, rt_1->fld[2].rttree
	.loc 1 719 0
	movq	-8(%rbp), %rax	# rt, D.9401
	.loc 1 720 0
	leave
	.cfi_def_cfa 7, 8
	ret
	.cfi_endproc
.LFE35:
	.size	gen_rtx_fmt_eit, .-gen_rtx_fmt_eit
	.globl	gen_rtx_fmt_eeeee
	.type	gen_rtx_fmt_eeeee, @function
gen_rtx_fmt_eeeee:
.LFB36:
	.loc 1 731 0
	.cfi_startproc
	pushq	%rbp	#
	.cfi_def_cfa_offset 16
	.cfi_offset 6, -16
	movq	%rsp, %rbp	#,
	.cfi_def_cfa_register 6
	subq	$64, %rsp	#,
	movl	%edi, -20(%rbp)	# code, code
	movl	%esi, -24(%rbp)	# mode, mode
	movq	%rdx, -32(%rbp)	# arg0, arg0
	movq	%rcx, -40(%rbp)	# arg1, arg1
	movq	%r8, -48(%rbp)	# arg2, arg2
	movq	%r9, -56(%rbp)	# arg3, arg3
	.loc 1 733 0
	movl	$48, %edi	#,
	call	ggc_alloc	#
	movq	%rax, -8(%rbp)	# tmp63, rt
	.loc 1 734 0
	movq	-8(%rbp), %rax	# rt, tmp64
	movl	$8, %edx	#,
	movl	$0, %esi	#,
	movq	%rax, %rdi	# tmp64,
	call	memset	#
	.loc 1 736 0
	movl	-20(%rbp), %eax	# code, tmp65
	movl	%eax, %edx	# tmp65, D.9402
	movq	-8(%rbp), %rax	# rt, tmp66
	movw	%dx, (%rax)	# D.9402, rt_1->code
	.loc 1 737 0
	movl	-24(%rbp), %eax	# mode, tmp67
	movl	%eax, %edx	# tmp67, D.9403
	movq	-8(%rbp), %rax	# rt, tmp68
	movb	%dl, 2(%rax)	# D.9403, rt_1->mode
	.loc 1 738 0
	movq	-8(%rbp), %rax	# rt, tmp69
	movq	-32(%rbp), %rdx	# arg0, tmp70
	movq	%rdx, 8(%rax)	# tmp70, rt_1->fld[0].rtx
	.loc 1 739 0
	movq	-8(%rbp), %rax	# rt, tmp71
	movq	-40(%rbp), %rdx	# arg1, tmp72
	movq	%rdx, 16(%rax)	# tmp72, rt_1->fld[1].rtx
	.loc 1 740 0
	movq	-8(%rbp), %rax	# rt, tmp73
	movq	-48(%rbp), %rdx	# arg2, tmp74
	movq	%rdx, 24(%rax)	# tmp74, rt_1->fld[2].rtx
	.loc 1 741 0
	movq	-8(%rbp), %rax	# rt, tmp75
	movq	-56(%rbp), %rdx	# arg3, tmp76
	movq	%rdx, 32(%rax)	# tmp76, rt_1->fld[3].rtx
	.loc 1 742 0
	movq	-8(%rbp), %rax	# rt, tmp77
	movq	16(%rbp), %rdx	# arg4, tmp78
	movq	%rdx, 40(%rax)	# tmp78, rt_1->fld[4].rtx
	.loc 1 744 0
	movq	-8(%rbp), %rax	# rt, D.9404
	.loc 1 745 0
	leave
	.cfi_def_cfa 7, 8
	ret
	.cfi_endproc
.LFE36:
	.size	gen_rtx_fmt_eeeee, .-gen_rtx_fmt_eeeee
	.globl	gen_rtx_fmt_Ee
	.type	gen_rtx_fmt_Ee, @function
gen_rtx_fmt_Ee:
.LFB37:
	.loc 1 753 0
	.cfi_startproc
	pushq	%rbp	#
	.cfi_def_cfa_offset 16
	.cfi_offset 6, -16
	movq	%rsp, %rbp	#,
	.cfi_def_cfa_register 6
	subq	$48, %rsp	#,
	movl	%edi, -20(%rbp)	# code, code
	movl	%esi, -24(%rbp)	# mode, mode
	movq	%rdx, -32(%rbp)	# arg0, arg0
	movq	%rcx, -40(%rbp)	# arg1, arg1
	.loc 1 755 0
	movl	$24, %edi	#,
	call	ggc_alloc	#
	movq	%rax, -8(%rbp)	# tmp63, rt
	.loc 1 756 0
	movq	-8(%rbp), %rax	# rt, tmp64
	movl	$8, %edx	#,
	movl	$0, %esi	#,
	movq	%rax, %rdi	# tmp64,
	call	memset	#
	.loc 1 758 0
	movl	-20(%rbp), %eax	# code, tmp65
	movl	%eax, %edx	# tmp65, D.9405
	movq	-8(%rbp), %rax	# rt, tmp66
	movw	%dx, (%rax)	# D.9405, rt_1->code
	.loc 1 759 0
	movl	-24(%rbp), %eax	# mode, tmp67
	movl	%eax, %edx	# tmp67, D.9406
	movq	-8(%rbp), %rax	# rt, tmp68
	movb	%dl, 2(%rax)	# D.9406, rt_1->mode
	.loc 1 760 0
	movq	-8(%rbp), %rax	# rt, tmp69
	movq	-32(%rbp), %rdx	# arg0, tmp70
	movq	%rdx, 8(%rax)	# tmp70, rt_1->fld[0].rtvec
	.loc 1 761 0
	movq	-8(%rbp), %rax	# rt, tmp71
	movq	-40(%rbp), %rdx	# arg1, tmp72
	movq	%rdx, 16(%rax)	# tmp72, rt_1->fld[1].rtx
	.loc 1 763 0
	movq	-8(%rbp), %rax	# rt, D.9407
	.loc 1 764 0
	leave
	.cfi_def_cfa 7, 8
	ret
	.cfi_endproc
.LFE37:
	.size	gen_rtx_fmt_Ee, .-gen_rtx_fmt_Ee
	.globl	gen_rtx_fmt_uuEiiiiiibbii
	.type	gen_rtx_fmt_uuEiiiiiibbii, @function
gen_rtx_fmt_uuEiiiiiibbii:
.LFB38:
	.loc 1 783 0
	.cfi_startproc
	pushq	%rbp	#
	.cfi_def_cfa_offset 16
	.cfi_offset 6, -16
	movq	%rsp, %rbp	#,
	.cfi_def_cfa_register 6
	subq	$64, %rsp	#,
	movl	%edi, -20(%rbp)	# code, code
	movl	%esi, -24(%rbp)	# mode, mode
	movq	%rdx, -32(%rbp)	# arg0, arg0
	movq	%rcx, -40(%rbp)	# arg1, arg1
	movq	%r8, -48(%rbp)	# arg2, arg2
	movl	%r9d, -52(%rbp)	# arg3, arg3
	.loc 1 785 0
	movl	$112, %edi	#,
	call	ggc_alloc	#
	movq	%rax, -8(%rbp)	# tmp63, rt
	.loc 1 786 0
	movq	-8(%rbp), %rax	# rt, tmp64
	movl	$8, %edx	#,
	movl	$0, %esi	#,
	movq	%rax, %rdi	# tmp64,
	call	memset	#
	.loc 1 788 0
	movl	-20(%rbp), %eax	# code, tmp65
	movl	%eax, %edx	# tmp65, D.9408
	movq	-8(%rbp), %rax	# rt, tmp66
	movw	%dx, (%rax)	# D.9408, rt_1->code
	.loc 1 789 0
	movl	-24(%rbp), %eax	# mode, tmp67
	movl	%eax, %edx	# tmp67, D.9409
	movq	-8(%rbp), %rax	# rt, tmp68
	movb	%dl, 2(%rax)	# D.9409, rt_1->mode
	.loc 1 790 0
	movq	-8(%rbp), %rax	# rt, tmp69
	movq	-32(%rbp), %rdx	# arg0, tmp70
	movq	%rdx, 8(%rax)	# tmp70, rt_1->fld[0].rtx
	.loc 1 791 0
	movq	-8(%rbp), %rax	# rt, tmp71
	movq	-40(%rbp), %rdx	# arg1, tmp72
	movq	%rdx, 16(%rax)	# tmp72, rt_1->fld[1].rtx
	.loc 1 792 0
	movq	-8(%rbp), %rax	# rt, tmp73
	movq	-48(%rbp), %rdx	# arg2, tmp74
	movq	%rdx, 24(%rax)	# tmp74, rt_1->fld[2].rtvec
	.loc 1 793 0
	movq	-8(%rbp), %rax	# rt, tmp75
	movl	-52(%rbp), %edx	# arg3, tmp76
	movl	%edx, 32(%rax)	# tmp76, rt_1->fld[3].rtint
	.loc 1 794 0
	movq	-8(%rbp), %rax	# rt, tmp77
	movl	16(%rbp), %edx	# arg4, tmp78
	movl	%edx, 40(%rax)	# tmp78, rt_1->fld[4].rtint
	.loc 1 795 0
	movq	-8(%rbp), %rax	# rt, tmp79
	movl	24(%rbp), %edx	# arg5, tmp80
	movl	%edx, 48(%rax)	# tmp80, rt_1->fld[5].rtint
	.loc 1 796 0
	movq	-8(%rbp), %rax	# rt, tmp81
	movl	32(%rbp), %edx	# arg6, tmp82
	movl	%edx, 56(%rax)	# tmp82, rt_1->fld[6].rtint
	.loc 1 797 0
	movq	-8(%rbp), %rax	# rt, tmp83
	movl	40(%rbp), %edx	# arg7, tmp84
	movl	%edx, 64(%rax)	# tmp84, rt_1->fld[7].rtint
	.loc 1 798 0
	movq	-8(%rbp), %rax	# rt, tmp85
	movl	48(%rbp), %edx	# arg8, tmp86
	movl	%edx, 72(%rax)	# tmp86, rt_1->fld[8].rtint
	.loc 1 799 0
	movq	-8(%rbp), %rax	# rt, tmp87
	movq	56(%rbp), %rdx	# arg9, tmp88
	movq	%rdx, 80(%rax)	# tmp88, rt_1->fld[9].rtbit
	.loc 1 800 0
	movq	-8(%rbp), %rax	# rt, tmp89
	movq	64(%rbp), %rdx	# arg10, tmp90
	movq	%rdx, 88(%rax)	# tmp90, rt_1->fld[10].rtbit
	.loc 1 801 0
	movq	-8(%rbp), %rax	# rt, tmp91
	movl	72(%rbp), %edx	# arg11, tmp92
	movl	%edx, 96(%rax)	# tmp92, rt_1->fld[11].rtint
	.loc 1 802 0
	movq	-8(%rbp), %rax	# rt, tmp93
	movl	80(%rbp), %edx	# arg12, tmp94
	movl	%edx, 104(%rax)	# tmp94, rt_1->fld[12].rtint
	.loc 1 804 0
	movq	-8(%rbp), %rax	# rt, D.9410
	.loc 1 805 0
	leave
	.cfi_def_cfa 7, 8
	ret
	.cfi_endproc
.LFE38:
	.size	gen_rtx_fmt_uuEiiiiiibbii, .-gen_rtx_fmt_uuEiiiiiibbii
	.globl	gen_rtx_fmt_iiiiiiiitt
	.type	gen_rtx_fmt_iiiiiiiitt, @function
gen_rtx_fmt_iiiiiiiitt:
.LFB39:
	.loc 1 821 0
	.cfi_startproc
	pushq	%rbp	#
	.cfi_def_cfa_offset 16
	.cfi_offset 6, -16
	movq	%rsp, %rbp	#,
	.cfi_def_cfa_register 6
	subq	$48, %rsp	#,
	movl	%edi, -20(%rbp)	# code, code
	movl	%esi, -24(%rbp)	# mode, mode
	movl	%edx, -28(%rbp)	# arg0, arg0
	movl	%ecx, -32(%rbp)	# arg1, arg1
	movl	%r8d, -36(%rbp)	# arg2, arg2
	movl	%r9d, -40(%rbp)	# arg3, arg3
	.loc 1 823 0
	movl	$88, %edi	#,
	call	ggc_alloc	#
	movq	%rax, -8(%rbp)	# tmp63, rt
	.loc 1 824 0
	movq	-8(%rbp), %rax	# rt, tmp64
	movl	$8, %edx	#,
	movl	$0, %esi	#,
	movq	%rax, %rdi	# tmp64,
	call	memset	#
	.loc 1 826 0
	movl	-20(%rbp), %eax	# code, tmp65
	movl	%eax, %edx	# tmp65, D.9411
	movq	-8(%rbp), %rax	# rt, tmp66
	movw	%dx, (%rax)	# D.9411, rt_1->code
	.loc 1 827 0
	movl	-24(%rbp), %eax	# mode, tmp67
	movl	%eax, %edx	# tmp67, D.9412
	movq	-8(%rbp), %rax	# rt, tmp68
	movb	%dl, 2(%rax)	# D.9412, rt_1->mode
	.loc 1 828 0
	movq	-8(%rbp), %rax	# rt, tmp69
	movl	-28(%rbp), %edx	# arg0, tmp70
	movl	%edx, 8(%rax)	# tmp70, rt_1->fld[0].rtint
	.loc 1 829 0
	movq	-8(%rbp), %rax	# rt, tmp71
	movl	-32(%rbp), %edx	# arg1, tmp72
	movl	%edx, 16(%rax)	# tmp72, rt_1->fld[1].rtint
	.loc 1 830 0
	movq	-8(%rbp), %rax	# rt, tmp73
	movl	-36(%rbp), %edx	# arg2, tmp74
	movl	%edx, 24(%rax)	# tmp74, rt_1->fld[2].rtint
	.loc 1 831 0
	movq	-8(%rbp), %rax	# rt, tmp75
	movl	-40(%rbp), %edx	# arg3, tmp76
	movl	%edx, 32(%rax)	# tmp76, rt_1->fld[3].rtint
	.loc 1 832 0
	movq	-8(%rbp), %rax	# rt, tmp77
	movl	16(%rbp), %edx	# arg4, tmp78
	movl	%edx, 40(%rax)	# tmp78, rt_1->fld[4].rtint
	.loc 1 833 0
	movq	-8(%rbp), %rax	# rt, tmp79
	movl	24(%rbp), %edx	# arg5, tmp80
	movl	%edx, 48(%rax)	# tmp80, rt_1->fld[5].rtint
	.loc 1 834 0
	movq	-8(%rbp), %rax	# rt, tmp81
	movl	32(%rbp), %edx	# arg6, tmp82
	movl	%edx, 56(%rax)	# tmp82, rt_1->fld[6].rtint
	.loc 1 835 0
	movq	-8(%rbp), %rax	# rt, tmp83
	movl	40(%rbp), %edx	# arg7, tmp84
	movl	%edx, 64(%rax)	# tmp84, rt_1->fld[7].rtint
	.loc 1 836 0
	movq	-8(%rbp), %rax	# rt, tmp85
	movq	48(%rbp), %rdx	# arg8, tmp86
	movq	%rdx, 72(%rax)	# tmp86, rt_1->fld[8].rttree
	.loc 1 837 0
	movq	-8(%rbp), %rax	# rt, tmp87
	movq	56(%rbp), %rdx	# arg9, tmp88
	movq	%rdx, 80(%rax)	# tmp88, rt_1->fld[9].rttree
	.loc 1 839 0
	movq	-8(%rbp), %rax	# rt, D.9413
	.loc 1 840 0
	leave
	.cfi_def_cfa 7, 8
	ret
	.cfi_endproc
.LFE39:
	.size	gen_rtx_fmt_iiiiiiiitt, .-gen_rtx_fmt_iiiiiiiitt
	.globl	gen_rtx_fmt_eti
	.type	gen_rtx_fmt_eti, @function
gen_rtx_fmt_eti:
.LFB40:
	.loc 1 849 0
	.cfi_startproc
	pushq	%rbp	#
	.cfi_def_cfa_offset 16
	.cfi_offset 6, -16
	movq	%rsp, %rbp	#,
	.cfi_def_cfa_register 6
	subq	$48, %rsp	#,
	movl	%edi, -20(%rbp)	# code, code
	movl	%esi, -24(%rbp)	# mode, mode
	movq	%rdx, -32(%rbp)	# arg0, arg0
	movq	%rcx, -40(%rbp)	# arg1, arg1
	movl	%r8d, -44(%rbp)	# arg2, arg2
	.loc 1 851 0
	movl	$32, %edi	#,
	call	ggc_alloc	#
	movq	%rax, -8(%rbp)	# tmp63, rt
	.loc 1 852 0
	movq	-8(%rbp), %rax	# rt, tmp64
	movl	$8, %edx	#,
	movl	$0, %esi	#,
	movq	%rax, %rdi	# tmp64,
	call	memset	#
	.loc 1 854 0
	movl	-20(%rbp), %eax	# code, tmp65
	movl	%eax, %edx	# tmp65, D.9414
	movq	-8(%rbp), %rax	# rt, tmp66
	movw	%dx, (%rax)	# D.9414, rt_1->code
	.loc 1 855 0
	movl	-24(%rbp), %eax	# mode, tmp67
	movl	%eax, %edx	# tmp67, D.9415
	movq	-8(%rbp), %rax	# rt, tmp68
	movb	%dl, 2(%rax)	# D.9415, rt_1->mode
	.loc 1 856 0
	movq	-8(%rbp), %rax	# rt, tmp69
	movq	-32(%rbp), %rdx	# arg0, tmp70
	movq	%rdx, 8(%rax)	# tmp70, rt_1->fld[0].rtx
	.loc 1 857 0
	movq	-8(%rbp), %rax	# rt, tmp71
	movq	-40(%rbp), %rdx	# arg1, tmp72
	movq	%rdx, 16(%rax)	# tmp72, rt_1->fld[1].rttree
	.loc 1 858 0
	movq	-8(%rbp), %rax	# rt, tmp73
	movl	-44(%rbp), %edx	# arg2, tmp74
	movl	%edx, 24(%rax)	# tmp74, rt_1->fld[2].rtint
	.loc 1 860 0
	movq	-8(%rbp), %rax	# rt, D.9416
	.loc 1 861 0
	leave
	.cfi_def_cfa 7, 8
	ret
	.cfi_endproc
.LFE40:
	.size	gen_rtx_fmt_eti, .-gen_rtx_fmt_eti
	.globl	gen_rtx_fmt_bi
	.type	gen_rtx_fmt_bi, @function
gen_rtx_fmt_bi:
.LFB41:
	.loc 1 869 0
	.cfi_startproc
	pushq	%rbp	#
	.cfi_def_cfa_offset 16
	.cfi_offset 6, -16
	movq	%rsp, %rbp	#,
	.cfi_def_cfa_register 6
	subq	$48, %rsp	#,
	movl	%edi, -20(%rbp)	# code, code
	movl	%esi, -24(%rbp)	# mode, mode
	movq	%rdx, -32(%rbp)	# arg0, arg0
	movl	%ecx, -36(%rbp)	# arg1, arg1
	.loc 1 871 0
	movl	$24, %edi	#,
	call	ggc_alloc	#
	movq	%rax, -8(%rbp)	# tmp63, rt
	.loc 1 872 0
	movq	-8(%rbp), %rax	# rt, tmp64
	movl	$8, %edx	#,
	movl	$0, %esi	#,
	movq	%rax, %rdi	# tmp64,
	call	memset	#
	.loc 1 874 0
	movl	-20(%rbp), %eax	# code, tmp65
	movl	%eax, %edx	# tmp65, D.9417
	movq	-8(%rbp), %rax	# rt, tmp66
	movw	%dx, (%rax)	# D.9417, rt_1->code
	.loc 1 875 0
	movl	-24(%rbp), %eax	# mode, tmp67
	movl	%eax, %edx	# tmp67, D.9418
	movq	-8(%rbp), %rax	# rt, tmp68
	movb	%dl, 2(%rax)	# D.9418, rt_1->mode
	.loc 1 876 0
	movq	-8(%rbp), %rax	# rt, tmp69
	movq	-32(%rbp), %rdx	# arg0, tmp70
	movq	%rdx, 8(%rax)	# tmp70, rt_1->fld[0].rtbit
	.loc 1 877 0
	movq	-8(%rbp), %rax	# rt, tmp71
	movl	-36(%rbp), %edx	# arg1, tmp72
	movl	%edx, 16(%rax)	# tmp72, rt_1->fld[1].rtint
	.loc 1 879 0
	movq	-8(%rbp), %rax	# rt, D.9419
	.loc 1 880 0
	leave
	.cfi_def_cfa 7, 8
	ret
	.cfi_endproc
.LFE41:
	.size	gen_rtx_fmt_bi, .-gen_rtx_fmt_bi
	.globl	gen_rtx_fmt_uuuu
	.type	gen_rtx_fmt_uuuu, @function
gen_rtx_fmt_uuuu:
.LFB42:
	.loc 1 890 0
	.cfi_startproc
	pushq	%rbp	#
	.cfi_def_cfa_offset 16
	.cfi_offset 6, -16
	movq	%rsp, %rbp	#,
	.cfi_def_cfa_register 6
	subq	$64, %rsp	#,
	movl	%edi, -20(%rbp)	# code, code
	movl	%esi, -24(%rbp)	# mode, mode
	movq	%rdx, -32(%rbp)	# arg0, arg0
	movq	%rcx, -40(%rbp)	# arg1, arg1
	movq	%r8, -48(%rbp)	# arg2, arg2
	movq	%r9, -56(%rbp)	# arg3, arg3
	.loc 1 892 0
	movl	$40, %edi	#,
	call	ggc_alloc	#
	movq	%rax, -8(%rbp)	# tmp63, rt
	.loc 1 893 0
	movq	-8(%rbp), %rax	# rt, tmp64
	movl	$8, %edx	#,
	movl	$0, %esi	#,
	movq	%rax, %rdi	# tmp64,
	call	memset	#
	.loc 1 895 0
	movl	-20(%rbp), %eax	# code, tmp65
	movl	%eax, %edx	# tmp65, D.9420
	movq	-8(%rbp), %rax	# rt, tmp66
	movw	%dx, (%rax)	# D.9420, rt_1->code
	.loc 1 896 0
	movl	-24(%rbp), %eax	# mode, tmp67
	movl	%eax, %edx	# tmp67, D.9421
	movq	-8(%rbp), %rax	# rt, tmp68
	movb	%dl, 2(%rax)	# D.9421, rt_1->mode
	.loc 1 897 0
	movq	-8(%rbp), %rax	# rt, tmp69
	movq	-32(%rbp), %rdx	# arg0, tmp70
	movq	%rdx, 8(%rax)	# tmp70, rt_1->fld[0].rtx
	.loc 1 898 0
	movq	-8(%rbp), %rax	# rt, tmp71
	movq	-40(%rbp), %rdx	# arg1, tmp72
	movq	%rdx, 16(%rax)	# tmp72, rt_1->fld[1].rtx
	.loc 1 899 0
	movq	-8(%rbp), %rax	# rt, tmp73
	movq	-48(%rbp), %rdx	# arg2, tmp74
	movq	%rdx, 24(%rax)	# tmp74, rt_1->fld[2].rtx
	.loc 1 900 0
	movq	-8(%rbp), %rax	# rt, tmp75
	movq	-56(%rbp), %rdx	# arg3, tmp76
	movq	%rdx, 32(%rax)	# tmp76, rt_1->fld[3].rtx
	.loc 1 902 0
	movq	-8(%rbp), %rax	# rt, D.9422
	.loc 1 903 0
	leave
	.cfi_def_cfa 7, 8
	ret
	.cfi_endproc
.LFE42:
	.size	gen_rtx_fmt_uuuu, .-gen_rtx_fmt_uuuu
.Letext0:
	.file 2 "rtl.h"
	.file 3 "config.h"
	.file 4 "machmode.h"
	.section	.note.GNU-stack,"",@progbits
