	.file	"ggc-common.c"
# GNU C (Ubuntu/Linaro 4.8.1-10ubuntu9) version 4.8.1 (x86_64-linux-gnu)
#	compiled by GNU C version 4.8.1, GMP version 5.1.2, MPFR version 3.1.1-p2, MPC version 1.0.1
# GGC heuristics: --param ggc-min-expand=100 --param ggc-min-heapsize=131072
# options passed:  -I . -imultiarch x86_64-linux-gnu -D SPEC_CPU -D NDEBUG
# -D SPEC_CPU_LP64 ggc-common.c -mtune=generic -march=x86-64 -g
# -fverbose-asm -fno-strict-aliasing -fstack-protector -Wformat
# -Wformat-security
# options enabled:  -faggressive-loop-optimizations
# -fasynchronous-unwind-tables -fauto-inc-dec -fbranch-count-reg -fcommon
# -fdelete-null-pointer-checks -fdwarf2-cfi-asm -fearly-inlining
# -feliminate-unused-debug-types -ffunction-cse -fgcse-lm -fgnu-runtime
# -fident -finline-atomics -fira-hoist-pressure -fira-share-save-slots
# -fira-share-spill-slots -fivopts -fkeep-static-consts
# -fleading-underscore -fmath-errno -fmerge-debug-strings
# -fmove-loop-invariants -fpeephole -fprefetch-loop-arrays
# -freg-struct-return -fsched-critical-path-heuristic
# -fsched-dep-count-heuristic -fsched-group-heuristic -fsched-interblock
# -fsched-last-insn-heuristic -fsched-rank-heuristic -fsched-spec
# -fsched-spec-insn-heuristic -fsched-stalled-insns-dep -fshow-column
# -fsigned-zeros -fsplit-ivs-in-unroller -fstack-protector
# -fstrict-volatile-bitfields -fsync-libcalls -ftrapping-math
# -ftree-coalesce-vars -ftree-cselim -ftree-forwprop -ftree-loop-if-convert
# -ftree-loop-im -ftree-loop-ivcanon -ftree-loop-optimize
# -ftree-parallelize-loops= -ftree-phiprop -ftree-pta -ftree-reassoc
# -ftree-scev-cprop -ftree-slp-vectorize -ftree-vect-loop-version
# -funit-at-a-time -funwind-tables -fverbose-asm -fzero-initialized-in-bss
# -m128bit-long-double -m64 -m80387 -maccumulate-outgoing-args
# -malign-stringops -mfancy-math-387 -mfp-ret-in-387 -mfxsr -mglibc
# -mieee-fp -mlong-double-80 -mmmx -mno-sse4 -mpush-args -mred-zone -msse
# -msse2 -mtls-direct-seg-refs

	.text
.Ltext0:
	.local	ggc_stats
	.comm	ggc_stats,8,8
	.comm	lang_mark_false_label_stack,8,8
	.comm	ggc_pending_trees,8,8
	.local	roots
	.comm	roots,8,8
	.globl	ggc_add_root
	.type	ggc_add_root, @function
ggc_add_root:
.LFB2:
	.file 1 "ggc-common.c"
	.loc 1 83 0
	.cfi_startproc
	pushq	%rbp	#
	.cfi_def_cfa_offset 16
	.cfi_offset 6, -16
	movq	%rsp, %rbp	#,
	.cfi_def_cfa_register 6
	subq	$48, %rsp	#,
	movq	%rdi, -24(%rbp)	# base, base
	movl	%esi, -28(%rbp)	# nelt, nelt
	movl	%edx, -32(%rbp)	# size, size
	movq	%rcx, -40(%rbp)	# cb, cb
	.loc 1 84 0
	movl	$32, %edi	#,
	call	xmalloc	#
	movq	%rax, -8(%rbp)	# tmp60, x
	.loc 1 86 0
	movq	roots(%rip), %rdx	# roots, roots.0
	movq	-8(%rbp), %rax	# x, tmp61
	movq	%rdx, (%rax)	# roots.0, x_1->next
	.loc 1 87 0
	movq	-8(%rbp), %rax	# x, tmp62
	movq	-24(%rbp), %rdx	# base, tmp63
	movq	%rdx, 8(%rax)	# tmp63, x_1->base
	.loc 1 88 0
	movq	-8(%rbp), %rax	# x, tmp64
	movl	-28(%rbp), %edx	# nelt, tmp65
	movl	%edx, 16(%rax)	# tmp65, x_1->nelt
	.loc 1 89 0
	movq	-8(%rbp), %rax	# x, tmp66
	movl	-32(%rbp), %edx	# size, tmp67
	movl	%edx, 20(%rax)	# tmp67, x_1->size
	.loc 1 90 0
	movq	-8(%rbp), %rax	# x, tmp68
	movq	-40(%rbp), %rdx	# cb, tmp69
	movq	%rdx, 24(%rax)	# tmp69, x_1->cb
	.loc 1 92 0
	movq	-8(%rbp), %rax	# x, tmp70
	movq	%rax, roots(%rip)	# tmp70, roots
	.loc 1 93 0
	leave
	.cfi_def_cfa 7, 8
	ret
	.cfi_endproc
.LFE2:
	.size	ggc_add_root, .-ggc_add_root
	.globl	ggc_add_rtx_root
	.type	ggc_add_rtx_root, @function
ggc_add_rtx_root:
.LFB3:
	.loc 1 101 0
	.cfi_startproc
	pushq	%rbp	#
	.cfi_def_cfa_offset 16
	.cfi_offset 6, -16
	movq	%rsp, %rbp	#,
	.cfi_def_cfa_register 6
	subq	$16, %rsp	#,
	movq	%rdi, -8(%rbp)	# base, base
	movl	%esi, -12(%rbp)	# nelt, nelt
	.loc 1 102 0
	movl	-12(%rbp), %esi	# nelt, tmp59
	movq	-8(%rbp), %rax	# base, tmp60
	movl	$ggc_mark_rtx_ptr, %ecx	#,
	movl	$8, %edx	#,
	movq	%rax, %rdi	# tmp60,
	call	ggc_add_root	#
	.loc 1 103 0
	leave
	.cfi_def_cfa 7, 8
	ret
	.cfi_endproc
.LFE3:
	.size	ggc_add_rtx_root, .-ggc_add_rtx_root
	.globl	ggc_add_tree_root
	.type	ggc_add_tree_root, @function
ggc_add_tree_root:
.LFB4:
	.loc 1 111 0
	.cfi_startproc
	pushq	%rbp	#
	.cfi_def_cfa_offset 16
	.cfi_offset 6, -16
	movq	%rsp, %rbp	#,
	.cfi_def_cfa_register 6
	subq	$16, %rsp	#,
	movq	%rdi, -8(%rbp)	# base, base
	movl	%esi, -12(%rbp)	# nelt, nelt
	.loc 1 112 0
	movl	-12(%rbp), %esi	# nelt, tmp59
	movq	-8(%rbp), %rax	# base, tmp60
	movl	$ggc_mark_tree_ptr, %ecx	#,
	movl	$8, %edx	#,
	movq	%rax, %rdi	# tmp60,
	call	ggc_add_root	#
	.loc 1 113 0
	leave
	.cfi_def_cfa 7, 8
	ret
	.cfi_endproc
.LFE4:
	.size	ggc_add_tree_root, .-ggc_add_tree_root
	.globl	ggc_add_rtx_varray_root
	.type	ggc_add_rtx_varray_root, @function
ggc_add_rtx_varray_root:
.LFB5:
	.loc 1 121 0
	.cfi_startproc
	pushq	%rbp	#
	.cfi_def_cfa_offset 16
	.cfi_offset 6, -16
	movq	%rsp, %rbp	#,
	.cfi_def_cfa_register 6
	subq	$16, %rsp	#,
	movq	%rdi, -8(%rbp)	# base, base
	movl	%esi, -12(%rbp)	# nelt, nelt
	.loc 1 122 0
	movl	-12(%rbp), %esi	# nelt, tmp59
	movq	-8(%rbp), %rax	# base, tmp60
	movl	$ggc_mark_rtx_varray_ptr, %ecx	#,
	movl	$8, %edx	#,
	movq	%rax, %rdi	# tmp60,
	call	ggc_add_root	#
	.loc 1 124 0
	leave
	.cfi_def_cfa 7, 8
	ret
	.cfi_endproc
.LFE5:
	.size	ggc_add_rtx_varray_root, .-ggc_add_rtx_varray_root
	.globl	ggc_add_tree_varray_root
	.type	ggc_add_tree_varray_root, @function
ggc_add_tree_varray_root:
.LFB6:
	.loc 1 132 0
	.cfi_startproc
	pushq	%rbp	#
	.cfi_def_cfa_offset 16
	.cfi_offset 6, -16
	movq	%rsp, %rbp	#,
	.cfi_def_cfa_register 6
	subq	$16, %rsp	#,
	movq	%rdi, -8(%rbp)	# base, base
	movl	%esi, -12(%rbp)	# nelt, nelt
	.loc 1 133 0
	movl	-12(%rbp), %esi	# nelt, tmp59
	movq	-8(%rbp), %rax	# base, tmp60
	movl	$ggc_mark_tree_varray_ptr, %ecx	#,
	movl	$8, %edx	#,
	movq	%rax, %rdi	# tmp60,
	call	ggc_add_root	#
	.loc 1 135 0
	leave
	.cfi_def_cfa 7, 8
	ret
	.cfi_endproc
.LFE6:
	.size	ggc_add_tree_varray_root, .-ggc_add_tree_varray_root
	.globl	ggc_add_tree_hash_table_root
	.type	ggc_add_tree_hash_table_root, @function
ggc_add_tree_hash_table_root:
.LFB7:
	.loc 1 143 0
	.cfi_startproc
	pushq	%rbp	#
	.cfi_def_cfa_offset 16
	.cfi_offset 6, -16
	movq	%rsp, %rbp	#,
	.cfi_def_cfa_register 6
	subq	$16, %rsp	#,
	movq	%rdi, -8(%rbp)	# base, base
	movl	%esi, -12(%rbp)	# nelt, nelt
	.loc 1 144 0
	movl	-12(%rbp), %esi	# nelt, tmp59
	movq	-8(%rbp), %rax	# base, tmp60
	movl	$ggc_mark_tree_hash_table_ptr, %ecx	#,
	movl	$8, %edx	#,
	movq	%rax, %rdi	# tmp60,
	call	ggc_add_root	#
	.loc 1 146 0
	leave
	.cfi_def_cfa 7, 8
	ret
	.cfi_endproc
.LFE7:
	.size	ggc_add_tree_hash_table_root, .-ggc_add_tree_hash_table_root
	.section	.rodata
.LC0:
	.string	"ggc-common.c"
	.text
	.globl	ggc_del_root
	.type	ggc_del_root, @function
ggc_del_root:
.LFB8:
	.loc 1 153 0
	.cfi_startproc
	pushq	%rbp	#
	.cfi_def_cfa_offset 16
	.cfi_offset 6, -16
	movq	%rsp, %rbp	#,
	.cfi_def_cfa_register 6
	subq	$32, %rsp	#,
	movq	%rdi, -24(%rbp)	# base, base
	.loc 1 156 0
	movq	$roots, -8(%rbp)	#, p
	movq	roots(%rip), %rax	# roots, tmp61
	movq	%rax, -16(%rbp)	# tmp61, x
	.loc 1 157 0
	jmp	.L8	#
.L11:
	.loc 1 159 0
	movq	-16(%rbp), %rax	# x, tmp62
	movq	8(%rax), %rax	# x_1->base, D.12854
	cmpq	-24(%rbp), %rax	# base, D.12854
	jne	.L9	#,
	.loc 1 161 0
	movq	-16(%rbp), %rax	# x, tmp63
	movq	(%rax), %rdx	# x_1->next, D.12855
	movq	-8(%rbp), %rax	# p, tmp64
	movq	%rdx, (%rax)	# D.12855, *p_2
	.loc 1 162 0
	movq	-16(%rbp), %rax	# x, tmp65
	movq	%rax, %rdi	# tmp65,
	call	free	#
	.loc 1 163 0
	jmp	.L12	#
.L9:
	.loc 1 165 0
	movq	-16(%rbp), %rax	# x, tmp66
	movq	%rax, -8(%rbp)	# tmp66, p
	.loc 1 166 0
	movq	-16(%rbp), %rax	# x, tmp67
	movq	(%rax), %rax	# x_1->next, tmp68
	movq	%rax, -16(%rbp)	# tmp68, x
.L8:
	.loc 1 157 0 discriminator 1
	cmpq	$0, -16(%rbp)	#, x
	jne	.L11	#,
	.loc 1 169 0
	movl	$__FUNCTION__.11246, %edx	#,
	movl	$169, %esi	#,
	movl	$.LC0, %edi	#,
	call	fancy_abort	#
.L12:
	.loc 1 170 0
	leave
	.cfi_def_cfa 7, 8
	ret
	.cfi_endproc
.LFE8:
	.size	ggc_del_root, .-ggc_del_root
	.local	d_htab_roots
	.comm	d_htab_roots,8,8
	.globl	ggc_add_deletable_htab
	.type	ggc_add_deletable_htab, @function
ggc_add_deletable_htab:
.LFB9:
	.loc 1 210 0
	.cfi_startproc
	pushq	%rbp	#
	.cfi_def_cfa_offset 16
	.cfi_offset 6, -16
	movq	%rsp, %rbp	#,
	.cfi_def_cfa_register 6
	subq	$48, %rsp	#,
	movq	%rdi, -24(%rbp)	# x, x
	movq	%rsi, -32(%rbp)	# marked_p, marked_p
	movq	%rdx, -40(%rbp)	# mark, mark
	.loc 1 211 0
	movl	$32, %edi	#,
	call	xmalloc	#
	movq	%rax, -8(%rbp)	# tmp61, r
	.loc 1 214 0
	movq	d_htab_roots(%rip), %rdx	# d_htab_roots, d_htab_roots.1
	movq	-8(%rbp), %rax	# r, tmp62
	movq	%rdx, (%rax)	# d_htab_roots.1, r_2->next
	.loc 1 215 0
	movq	-8(%rbp), %rax	# r, tmp63
	movq	-24(%rbp), %rdx	# x, tmp64
	movq	%rdx, 8(%rax)	# tmp64, r_2->htab
	.loc 1 216 0
	cmpq	$0, -32(%rbp)	#, marked_p
	je	.L14	#,
	.loc 1 216 0 is_stmt 0 discriminator 1
	movq	-32(%rbp), %rax	# marked_p, iftmp.2
	jmp	.L15	#
.L14:
	.loc 1 216 0 discriminator 2
	movl	$ggc_marked_p, %eax	#, iftmp.2
.L15:
	.loc 1 216 0 discriminator 3
	movq	-8(%rbp), %rdx	# r, tmp65
	movq	%rax, 16(%rdx)	# iftmp.2, r_2->marked_p
	.loc 1 217 0 is_stmt 1 discriminator 3
	movq	-8(%rbp), %rax	# r, tmp66
	movq	-40(%rbp), %rdx	# mark, tmp67
	movq	%rdx, 24(%rax)	# tmp67, r_2->mark
	.loc 1 218 0 discriminator 3
	movq	-8(%rbp), %rax	# r, tmp68
	movq	%rax, d_htab_roots(%rip)	# tmp68, d_htab_roots
	.loc 1 219 0 discriminator 3
	leave
	.cfi_def_cfa 7, 8
	ret
	.cfi_endproc
.LFE9:
	.size	ggc_add_deletable_htab, .-ggc_add_deletable_htab
	.type	ggc_htab_delete, @function
ggc_htab_delete:
.LFB10:
	.loc 1 227 0
	.cfi_startproc
	pushq	%rbp	#
	.cfi_def_cfa_offset 16
	.cfi_offset 6, -16
	movq	%rsp, %rbp	#,
	.cfi_def_cfa_register 6
	subq	$32, %rsp	#,
	movq	%rdi, -24(%rbp)	# slot, slot
	movq	%rsi, -32(%rbp)	# info, info
	.loc 1 228 0
	movq	-32(%rbp), %rax	# info, tmp68
	movq	%rax, -8(%rbp)	# tmp68, r
	.loc 1 230 0
	movq	-8(%rbp), %rax	# r, tmp69
	movq	16(%rax), %rax	# r_2->marked_p, D.12857
	movq	-24(%rbp), %rdx	# slot, tmp70
	movq	(%rdx), %rdx	# *slot_4(D), D.12858
	movq	%rdx, %rdi	# D.12858,
	call	*%rax	# D.12857
	testl	%eax, %eax	# D.12859
	jne	.L17	#,
	.loc 1 231 0
	movq	-8(%rbp), %rax	# r, tmp71
	movq	8(%rax), %rax	# r_2->htab, D.12860
	movq	-24(%rbp), %rdx	# slot, tmp72
	movq	%rdx, %rsi	# tmp72,
	movq	%rax, %rdi	# D.12860,
	call	htab_clear_slot	#
	jmp	.L18	#
.L17:
	.loc 1 232 0
	movq	-8(%rbp), %rax	# r, tmp73
	movq	24(%rax), %rax	# r_2->mark, D.12861
	testq	%rax, %rax	# D.12861
	je	.L18	#,
	.loc 1 233 0
	movq	-8(%rbp), %rax	# r, tmp74
	movq	24(%rax), %rax	# r_2->mark, D.12861
	movq	-24(%rbp), %rdx	# slot, tmp75
	movq	(%rdx), %rdx	# *slot_4(D), D.12858
	movq	%rdx, %rdi	# D.12858,
	call	*%rax	# D.12861
.L18:
	.loc 1 235 0
	movl	$1, %eax	#, D.12859
	.loc 1 236 0
	leave
	.cfi_def_cfa 7, 8
	ret
	.cfi_endproc
.LFE10:
	.size	ggc_htab_delete, .-ggc_htab_delete
	.section	.rodata
.LC1:
	.string	"ggc_pending_trees"
	.text
	.globl	ggc_mark_roots
	.type	ggc_mark_roots, @function
ggc_mark_roots:
.LFB11:
	.loc 1 242 0
	.cfi_startproc
	pushq	%rbp	#
	.cfi_def_cfa_offset 16
	.cfi_offset 6, -16
	movq	%rsp, %rbp	#,
	.cfi_def_cfa_register 6
	subq	$48, %rsp	#,
	.loc 1 246 0
	movl	$.LC1, %edx	#,
	movl	$8, %esi	#,
	movl	$4096, %edi	#,
	call	varray_init	#
	movq	%rax, ggc_pending_trees(%rip)	# ggc_pending_trees.3, ggc_pending_trees
	.loc 1 248 0
	movq	roots(%rip), %rax	# roots, tmp67
	movq	%rax, -32(%rbp)	# tmp67, x
	jmp	.L21	#
.L24:
.LBB2:
	.loc 1 250 0
	movq	-32(%rbp), %rax	# x, tmp68
	movq	8(%rax), %rax	# x_1->base, tmp69
	movq	%rax, -16(%rbp)	# tmp69, elt
	.loc 1 251 0
	movq	-32(%rbp), %rax	# x, tmp70
	movl	20(%rax), %eax	# x_1->size, tmp71
	movl	%eax, -40(%rbp)	# tmp71, s
	movq	-32(%rbp), %rax	# x, tmp72
	movl	16(%rax), %eax	# x_1->nelt, tmp73
	movl	%eax, -36(%rbp)	# tmp73, n
	.loc 1 252 0
	movq	-32(%rbp), %rax	# x, tmp74
	movq	24(%rax), %rax	# x_1->cb, tmp75
	movq	%rax, -8(%rbp)	# tmp75, cb
	.loc 1 255 0
	movl	$0, -44(%rbp)	#, i
	jmp	.L22	#
.L23:
	.loc 1 256 0 discriminator 2
	movq	-16(%rbp), %rdx	# elt, tmp76
	movq	-8(%rbp), %rax	# cb, tmp77
	movq	%rdx, %rdi	# tmp76,
	call	*%rax	# tmp77
	.loc 1 255 0 discriminator 2
	addl	$1, -44(%rbp)	#, i
	movl	-40(%rbp), %eax	# s, tmp78
	cltq
	addq	%rax, -16(%rbp)	# D.12862, elt
.L22:
	.loc 1 255 0 is_stmt 0 discriminator 1
	movl	-44(%rbp), %eax	# i, tmp79
	cmpl	-36(%rbp), %eax	# n, tmp79
	jl	.L23	#,
.LBE2:
	.loc 1 248 0 is_stmt 1
	movq	-32(%rbp), %rax	# x, tmp80
	movq	(%rax), %rax	# x_1->next, tmp81
	movq	%rax, -32(%rbp)	# tmp81, x
.L21:
	.loc 1 248 0 is_stmt 0 discriminator 1
	cmpq	$0, -32(%rbp)	#, x
	jne	.L24	#,
	.loc 1 260 0 is_stmt 1
	call	ggc_mark_trees	#
	.loc 1 261 0
	movq	ggc_pending_trees(%rip), %rax	# ggc_pending_trees, ggc_pending_trees.4
	testq	%rax, %rax	# ggc_pending_trees.4
	je	.L25	#,
	.loc 1 261 0 is_stmt 0 discriminator 1
	movq	ggc_pending_trees(%rip), %rax	# ggc_pending_trees, ggc_pending_trees.5
	movq	%rax, %rdi	# ggc_pending_trees.5,
	call	free	#
	movq	$0, ggc_pending_trees(%rip)	#, ggc_pending_trees
.L25:
	.loc 1 266 0 is_stmt 1
	movl	$.LC1, %edx	#,
	movl	$8, %esi	#,
	movl	$1024, %edi	#,
	call	varray_init	#
	movq	%rax, ggc_pending_trees(%rip)	# ggc_pending_trees.6, ggc_pending_trees
	.loc 1 268 0
	movq	d_htab_roots(%rip), %rax	# d_htab_roots, tmp82
	movq	%rax, -24(%rbp)	# tmp82, y
	jmp	.L26	#
.L27:
	.loc 1 269 0 discriminator 2
	movq	-24(%rbp), %rax	# y, tmp83
	movq	8(%rax), %rax	# y_2->htab, D.12863
	movq	-24(%rbp), %rdx	# y, tmp84
	movl	$ggc_htab_delete, %esi	#,
	movq	%rax, %rdi	# D.12863,
	call	htab_traverse	#
	.loc 1 268 0 discriminator 2
	movq	-24(%rbp), %rax	# y, tmp85
	movq	(%rax), %rax	# y_2->next, tmp86
	movq	%rax, -24(%rbp)	# tmp86, y
.L26:
	.loc 1 268 0 is_stmt 0 discriminator 1
	cmpq	$0, -24(%rbp)	#, y
	jne	.L27	#,
	.loc 1 270 0 is_stmt 1
	call	ggc_mark_trees	#
	.loc 1 271 0
	movq	ggc_pending_trees(%rip), %rax	# ggc_pending_trees, ggc_pending_trees.7
	testq	%rax, %rax	# ggc_pending_trees.7
	je	.L20	#,
	.loc 1 271 0 is_stmt 0 discriminator 1
	movq	ggc_pending_trees(%rip), %rax	# ggc_pending_trees, ggc_pending_trees.8
	movq	%rax, %rdi	# ggc_pending_trees.8,
	call	free	#
	movq	$0, ggc_pending_trees(%rip)	#, ggc_pending_trees
.L20:
	.loc 1 272 0 is_stmt 1
	leave
	.cfi_def_cfa 7, 8
	ret
	.cfi_endproc
.LFE11:
	.size	ggc_mark_roots, .-ggc_mark_roots
	.globl	ggc_mark_rtx_children
	.type	ggc_mark_rtx_children, @function
ggc_mark_rtx_children:
.LFB12:
	.loc 1 280 0
	.cfi_startproc
	pushq	%rbp	#
	.cfi_def_cfa_offset 16
	.cfi_offset 6, -16
	movq	%rsp, %rbp	#,
	.cfi_def_cfa_register 6
	subq	$32, %rsp	#,
	movq	%rdi, -24(%rbp)	# r, r
	.loc 1 291 0
	movq	-24(%rbp), %rax	# r, tmp62
	movzwl	(%rax), %eax	# r_3(D)->code, D.12865
	movzwl	%ax, %eax	# D.12865, D.12866
	subl	$32, %eax	#, tmp63
	cmpl	$5, %eax	#, tmp63
	ja	.L37	#,
	.loc 1 299 0
	movq	-24(%rbp), %rax	# r, tmp64
	movq	24(%rax), %rax	# r_3(D)->fld[2].rtx, tmp65
	movq	%rax, -16(%rbp)	# tmp65, i
.L33:
	.loc 1 300 0
	cmpq	$0, -16(%rbp)	#, i
	je	.L32	#,
	.loc 1 300 0 is_stmt 0 discriminator 1
	movq	-16(%rbp), %rax	# i, tmp66
	movq	%rax, %rdi	# tmp66,
	call	ggc_set_mark	#
	testl	%eax, %eax	# D.12867
	jne	.L32	#,
	.loc 1 299 0 is_stmt 1
	movq	-16(%rbp), %rax	# i, tmp67
	movq	24(%rax), %rax	# i_1->fld[2].rtx, tmp68
	movq	%rax, -16(%rbp)	# tmp68, i
	.loc 1 302 0
	jmp	.L33	#
.L32:
	movq	-16(%rbp), %rax	# i, tmp69
	movq	%rax, -8(%rbp)	# tmp69, last
	.loc 1 304 0
	movq	-24(%rbp), %rax	# r, tmp70
	movq	24(%rax), %rax	# r_3(D)->fld[2].rtx, tmp71
	movq	%rax, -16(%rbp)	# tmp71, i
	jmp	.L34	#
.L35:
	.loc 1 305 0 discriminator 2
	movq	-16(%rbp), %rax	# i, tmp72
	movq	%rax, %rdi	# tmp72,
	call	ggc_mark_rtx_children_1	#
	.loc 1 304 0 discriminator 2
	movq	-16(%rbp), %rax	# i, tmp73
	movq	24(%rax), %rax	# i_2->fld[2].rtx, tmp74
	movq	%rax, -16(%rbp)	# tmp74, i
.L34:
	.loc 1 304 0 is_stmt 0 discriminator 1
	movq	-16(%rbp), %rax	# i, tmp75
	cmpq	-8(%rbp), %rax	# last, tmp75
	jne	.L35	#,
.L37:
	.loc 1 308 0 is_stmt 1
	nop
	.loc 1 311 0
	movq	-24(%rbp), %rax	# r, tmp76
	movq	%rax, %rdi	# tmp76,
	call	ggc_mark_rtx_children_1	#
	.loc 1 312 0
	leave
	.cfi_def_cfa 7, 8
	ret
	.cfi_endproc
.LFE12:
	.size	ggc_mark_rtx_children, .-ggc_mark_rtx_children
	.type	ggc_mark_rtx_children_1, @function
ggc_mark_rtx_children_1:
.LFB13:
	.loc 1 317 0
	.cfi_startproc
	pushq	%rbp	#
	.cfi_def_cfa_offset 16
	.cfi_offset 6, -16
	movq	%rsp, %rbp	#,
	.cfi_def_cfa_register 6
	pushq	%r13	#
	pushq	%r12	#
	pushq	%rbx	#
	subq	$136, %rsp	#,
	.cfi_offset 13, -24
	.cfi_offset 12, -32
	.cfi_offset 3, -40
	movq	%rdi, -152(%rbp)	# r, r
.L75:
.LBB3:
	.loc 1 324 0
	movq	-152(%rbp), %rax	# r, tmp114
	movzwl	(%rax), %eax	# r_1->code, D.12868
	movzwl	%ax, %eax	# D.12868, tmp115
	movl	%eax, -140(%rbp)	# tmp115, code
	.loc 1 326 0
	movq	$0, -128(%rbp)	#, next_rtx
	.loc 1 329 0
	movq	ggc_stats(%rip), %rax	# ggc_stats, ggc_stats.9
	testq	%rax, %rax	# ggc_stats.9
	je	.L39	#,
	.loc 1 331 0
	movq	ggc_stats(%rip), %rax	# ggc_stats, ggc_stats.10
	movl	-140(%rbp), %edx	# code, code.11
	movslq	%edx, %rcx	# code.11, tmp116
	addq	$768, %rcx	#, tmp117
	movl	(%rax,%rcx,4), %ecx	# ggc_stats.10_12->num_rtxs, D.12869
	addl	$1, %ecx	#, D.12869
	movslq	%edx, %rdx	# code.11, tmp118
	addq	$768, %rdx	#, tmp119
	movl	%ecx, (%rax,%rdx,4)	# D.12869, ggc_stats.10_12->num_rtxs
	.loc 1 332 0
	movq	ggc_stats(%rip), %rbx	# ggc_stats, ggc_stats.12
	movl	-140(%rbp), %r12d	# code, code.13
	movq	ggc_stats(%rip), %rax	# ggc_stats, ggc_stats.14
	movl	-140(%rbp), %edx	# code, code.15
	movslq	%edx, %rdx	# code.15, tmp120
	addq	$512, %rdx	#, tmp121
	movq	(%rax,%rdx,8), %r13	# ggc_stats.14_18->size_rtxs, D.12870
	movq	-152(%rbp), %rax	# r, tmp122
	movq	%rax, %rdi	# tmp122,
	call	ggc_get_size	#
	leaq	0(%r13,%rax), %rdx	#, D.12870
	movslq	%r12d, %rax	# code.13, tmp123
	addq	$512, %rax	#, tmp124
	movq	%rdx, (%rbx,%rax,8)	# D.12870, ggc_stats.12_16->size_rtxs
.L39:
	.loc 1 337 0
	movl	-140(%rbp), %eax	# code, tmp126
	subl	$33, %eax	#, tmp125
	cmpl	$37, %eax	#, tmp125
	ja	.L76	#,
	movl	%eax, %eax	# tmp125, tmp127
	movq	.L42(,%rax,8), %rax	#, tmp128
	jmp	*%rax	# tmp128
	.section	.rodata
	.align 8
	.align 4
.L42:
	.quad	.L41
	.quad	.L76
	.quad	.L76
	.quad	.L43
	.quad	.L44
	.quad	.L76
	.quad	.L76
	.quad	.L76
	.quad	.L76
	.quad	.L76
	.quad	.L76
	.quad	.L76
	.quad	.L76
	.quad	.L76
	.quad	.L76
	.quad	.L76
	.quad	.L76
	.quad	.L76
	.quad	.L76
	.quad	.L76
	.quad	.L76
	.quad	.L76
	.quad	.L45
	.quad	.L76
	.quad	.L76
	.quad	.L76
	.quad	.L76
	.quad	.L76
	.quad	.L76
	.quad	.L76
	.quad	.L76
	.quad	.L76
	.quad	.L76
	.quad	.L46
	.quad	.L47
	.quad	.L76
	.quad	.L76
	.quad	.L48
	.text
.L46:
.LBB4:
	.loc 1 340 0
	movq	-152(%rbp), %rax	# r, tmp129
	movq	16(%rax), %rax	# r_1->fld[1].rtmem, tmp130
	movq	%rax, -120(%rbp)	# tmp130, a__
	cmpq	$0, -120(%rbp)	#, a__
	je	.L49	#,
	.loc 1 340 0 is_stmt 0 discriminator 1
	movq	-120(%rbp), %rax	# a__, tmp131
	movq	%rax, %rdi	# tmp131,
	call	ggc_set_mark	#
.LBE4:
	.loc 1 341 0 is_stmt 1 discriminator 1
	jmp	.L50	#
.L49:
	.loc 1 341 0 is_stmt 0
	jmp	.L50	#
.L41:
.LBB5:
	.loc 1 343 0 is_stmt 1
	movq	-152(%rbp), %rax	# r, tmp132
	movq	64(%rax), %rax	# r_1->fld[7].rtx, tmp133
	movq	%rax, -112(%rbp)	# tmp133, r__
	cmpq	$0, -112(%rbp)	#, r__
	je	.L51	#,
	.loc 1 343 0 is_stmt 0 discriminator 1
	movq	-112(%rbp), %rax	# r__, tmp134
	movq	%rax, %rdi	# tmp134,
	call	ggc_set_mark	#
	testl	%eax, %eax	# D.12871
	jne	.L51	#,
	movq	-112(%rbp), %rax	# r__, tmp135
	movq	%rax, %rdi	# tmp135,
	call	ggc_mark_rtx_children	#
.LBE5:
	.loc 1 344 0 is_stmt 1 discriminator 1
	jmp	.L50	#
.L51:
	.loc 1 344 0 is_stmt 0
	jmp	.L50	#
.L43:
.LBB6:
	.loc 1 346 0 is_stmt 1
	movq	-152(%rbp), %rax	# r, tmp136
	movq	40(%rax), %rax	# r_1->fld[4].rtx, tmp137
	movq	%rax, -104(%rbp)	# tmp137, r__
	cmpq	$0, -104(%rbp)	#, r__
	je	.L52	#,
	.loc 1 346 0 is_stmt 0 discriminator 1
	movq	-104(%rbp), %rax	# r__, tmp138
	movq	%rax, %rdi	# tmp138,
	call	ggc_set_mark	#
	testl	%eax, %eax	# D.12871
	jne	.L52	#,
	movq	-104(%rbp), %rax	# r__, tmp139
	movq	%rax, %rdi	# tmp139,
	call	ggc_mark_rtx_children	#
.LBE6:
	.loc 1 347 0 is_stmt 1 discriminator 1
	jmp	.L50	#
.L52:
	.loc 1 347 0 is_stmt 0
	jmp	.L50	#
.L47:
.LBB7:
	.loc 1 349 0 is_stmt 1
	movq	-152(%rbp), %rax	# r, tmp140
	movq	16(%rax), %rax	# r_1->fld[1].rtx, tmp141
	movq	%rax, -96(%rbp)	# tmp141, r__
	cmpq	$0, -96(%rbp)	#, r__
	je	.L53	#,
	.loc 1 349 0 is_stmt 0 discriminator 1
	movq	-96(%rbp), %rax	# r__, tmp142
	movq	%rax, %rdi	# tmp142,
	call	ggc_set_mark	#
	testl	%eax, %eax	# D.12871
	jne	.L53	#,
	movq	-96(%rbp), %rax	# r__, tmp143
	movq	%rax, %rdi	# tmp143,
	call	ggc_mark_rtx_children	#
.L53:
.LBE7:
.LBB8:
	.loc 1 350 0 is_stmt 1
	movq	-152(%rbp), %rax	# r, tmp144
	movq	24(%rax), %rax	# r_1->fld[2].rtx, tmp145
	movq	%rax, -88(%rbp)	# tmp145, r__
	cmpq	$0, -88(%rbp)	#, r__
	je	.L54	#,
	.loc 1 350 0 is_stmt 0 discriminator 1
	movq	-88(%rbp), %rax	# r__, tmp146
	movq	%rax, %rdi	# tmp146,
	call	ggc_set_mark	#
	testl	%eax, %eax	# D.12871
	jne	.L54	#,
	movq	-88(%rbp), %rax	# r__, tmp147
	movq	%rax, %rdi	# tmp147,
	call	ggc_mark_rtx_children	#
.LBE8:
	.loc 1 351 0 is_stmt 1 discriminator 1
	jmp	.L50	#
.L54:
	.loc 1 351 0 is_stmt 0
	jmp	.L50	#
.L48:
.LBB9:
	.loc 1 353 0 is_stmt 1
	movq	-152(%rbp), %rax	# r, tmp148
	movq	24(%rax), %rax	# r_1->fld[2].rttree, tmp149
	movq	%rax, -80(%rbp)	# tmp149, t__
	cmpq	$0, -80(%rbp)	#, t__
	je	.L55	#,
	.loc 1 353 0 is_stmt 0 discriminator 1
	movq	-80(%rbp), %rax	# t__, tmp150
	movq	%rax, %rdi	# tmp150,
	call	ggc_set_mark	#
	testl	%eax, %eax	# D.12871
	jne	.L55	#,
	movq	ggc_pending_trees(%rip), %rax	# ggc_pending_trees, ggc_pending_trees.16
	movq	8(%rax), %rdx	# ggc_pending_trees.16_34->elements_used, D.12870
	movq	ggc_pending_trees(%rip), %rax	# ggc_pending_trees, ggc_pending_trees.17
	movq	(%rax), %rax	# ggc_pending_trees.17_36->num_elements, D.12870
	cmpq	%rax, %rdx	# D.12870, D.12870
	jb	.L56	#,
	movq	ggc_pending_trees(%rip), %rax	# ggc_pending_trees, ggc_pending_trees.18
	movq	(%rax), %rax	# ggc_pending_trees.18_38->num_elements, D.12870
	leaq	(%rax,%rax), %rdx	#, D.12870
	movq	ggc_pending_trees(%rip), %rax	# ggc_pending_trees, ggc_pending_trees.19
	movq	%rdx, %rsi	# D.12870,
	movq	%rax, %rdi	# ggc_pending_trees.19,
	call	varray_grow	#
	movq	%rax, ggc_pending_trees(%rip)	# ggc_pending_trees.20, ggc_pending_trees
.L56:
	.loc 1 353 0 discriminator 2
	movq	ggc_pending_trees(%rip), %rcx	# ggc_pending_trees, ggc_pending_trees.21
	movq	ggc_pending_trees(%rip), %rax	# ggc_pending_trees, ggc_pending_trees.22
	movq	8(%rax), %rdx	# ggc_pending_trees.22_44->elements_used, D.12870
	leaq	1(%rdx), %rsi	#, D.12870
	movq	%rsi, 8(%rax)	# D.12870, ggc_pending_trees.22_44->elements_used
	addq	$4, %rdx	#, tmp151
	movq	-80(%rbp), %rax	# t__, tmp152
	movq	%rax, (%rcx,%rdx,8)	# tmp152, ggc_pending_trees.21_43->data.tree
.LBE9:
	.loc 1 354 0 is_stmt 1 discriminator 2
	jmp	.L50	#
.L55:
	.loc 1 354 0 is_stmt 0
	jmp	.L50	#
.L45:
.LBB10:
	.loc 1 356 0 is_stmt 1
	movq	-152(%rbp), %rax	# r, tmp153
	movq	8(%rax), %rax	# r_1->fld[0].rtx, tmp154
	movq	%rax, -72(%rbp)	# tmp154, r__
	cmpq	$0, -72(%rbp)	#, r__
	je	.L57	#,
	.loc 1 356 0 is_stmt 0 discriminator 1
	movq	-72(%rbp), %rax	# r__, tmp155
	movq	%rax, %rdi	# tmp155,
	call	ggc_set_mark	#
	testl	%eax, %eax	# D.12871
	jne	.L57	#,
	movq	-72(%rbp), %rax	# r__, tmp156
	movq	%rax, %rdi	# tmp156,
	call	ggc_mark_rtx_children	#
.LBE10:
	.loc 1 357 0 is_stmt 1 discriminator 1
	jmp	.L50	#
.L57:
	.loc 1 357 0 is_stmt 0
	jmp	.L50	#
.L44:
	.loc 1 359 0 is_stmt 1
	movq	-152(%rbp), %rax	# r, tmp157
	movl	40(%rax), %eax	# r_1->fld[4].rtint, D.12871
	addl	$98, %eax	#, tmp158
	cmpl	$19, %eax	#, tmp158
	ja	.L77	#,
	movl	%eax, %eax	# tmp158, tmp159
	movq	.L60(,%rax,8), %rax	#, tmp160
	jmp	*%rax	# tmp160
	.section	.rodata
	.align 8
	.align 4
.L60:
	.quad	.L59
	.quad	.L59
	.quad	.L77
	.quad	.L77
	.quad	.L77
	.quad	.L77
	.quad	.L77
	.quad	.L77
	.quad	.L77
	.quad	.L77
	.quad	.L77
	.quad	.L77
	.quad	.L77
	.quad	.L77
	.quad	.L77
	.quad	.L61
	.quad	.L61
	.quad	.L61
	.quad	.L77
	.quad	.L61
	.text
.L61:
.LBB11:
	.loc 1 365 0
	movq	-152(%rbp), %rax	# r, tmp161
	movq	32(%rax), %rax	# r_1->fld[3].rtx, tmp162
	movq	%rax, -64(%rbp)	# tmp162, r__
	cmpq	$0, -64(%rbp)	#, r__
	je	.L62	#,
	.loc 1 365 0 is_stmt 0 discriminator 1
	movq	-64(%rbp), %rax	# r__, tmp163
	movq	%rax, %rdi	# tmp163,
	call	ggc_set_mark	#
	testl	%eax, %eax	# D.12871
	jne	.L62	#,
	movq	-64(%rbp), %rax	# r__, tmp164
	movq	%rax, %rdi	# tmp164,
	call	ggc_mark_rtx_children	#
.LBE11:
	.loc 1 366 0 is_stmt 1 discriminator 1
	jmp	.L63	#
.L62:
	.loc 1 366 0 is_stmt 0
	jmp	.L63	#
.L59:
.LBB12:
	.loc 1 370 0 is_stmt 1
	movq	-152(%rbp), %rax	# r, tmp165
	movq	32(%rax), %rax	# r_1->fld[3].rttree, tmp166
	movq	%rax, -56(%rbp)	# tmp166, t__
	cmpq	$0, -56(%rbp)	#, t__
	je	.L64	#,
	.loc 1 370 0 is_stmt 0 discriminator 1
	movq	-56(%rbp), %rax	# t__, tmp167
	movq	%rax, %rdi	# tmp167,
	call	ggc_set_mark	#
	testl	%eax, %eax	# D.12871
	jne	.L64	#,
	movq	ggc_pending_trees(%rip), %rax	# ggc_pending_trees, ggc_pending_trees.23
	movq	8(%rax), %rdx	# ggc_pending_trees.23_55->elements_used, D.12870
	movq	ggc_pending_trees(%rip), %rax	# ggc_pending_trees, ggc_pending_trees.24
	movq	(%rax), %rax	# ggc_pending_trees.24_57->num_elements, D.12870
	cmpq	%rax, %rdx	# D.12870, D.12870
	jb	.L65	#,
	movq	ggc_pending_trees(%rip), %rax	# ggc_pending_trees, ggc_pending_trees.25
	movq	(%rax), %rax	# ggc_pending_trees.25_59->num_elements, D.12870
	leaq	(%rax,%rax), %rdx	#, D.12870
	movq	ggc_pending_trees(%rip), %rax	# ggc_pending_trees, ggc_pending_trees.26
	movq	%rdx, %rsi	# D.12870,
	movq	%rax, %rdi	# ggc_pending_trees.26,
	call	varray_grow	#
	movq	%rax, ggc_pending_trees(%rip)	# ggc_pending_trees.27, ggc_pending_trees
.L65:
	.loc 1 370 0 discriminator 2
	movq	ggc_pending_trees(%rip), %rcx	# ggc_pending_trees, ggc_pending_trees.28
	movq	ggc_pending_trees(%rip), %rax	# ggc_pending_trees, ggc_pending_trees.29
	movq	8(%rax), %rdx	# ggc_pending_trees.29_65->elements_used, D.12870
	leaq	1(%rdx), %rsi	#, D.12870
	movq	%rsi, 8(%rax)	# D.12870, ggc_pending_trees.29_65->elements_used
	addq	$4, %rdx	#, tmp168
	movq	-56(%rbp), %rax	# t__, tmp169
	movq	%rax, (%rcx,%rdx,8)	# tmp169, ggc_pending_trees.28_64->data.tree
.LBE12:
	.loc 1 371 0 is_stmt 1 discriminator 2
	jmp	.L63	#
.L64:
	.loc 1 371 0 is_stmt 0
	jmp	.L63	#
.L77:
	.loc 1 374 0 is_stmt 1
	nop
.L63:
	.loc 1 376 0
	jmp	.L50	#
.L76:
	.loc 1 379 0
	nop
.L50:
	.loc 1 382 0
	movq	-152(%rbp), %rax	# r, tmp170
	movzwl	(%rax), %eax	# r_1->code, D.12868
	movzwl	%ax, %eax	# D.12868, D.12871
	cltq
	movq	rtx_format(,%rax,8), %rax	# rtx_format, tmp172
	movq	%rax, -136(%rbp)	# tmp172, fmt
	movl	$0, -144(%rbp)	#, i
	jmp	.L66	#
.L74:
.LBB13:
	.loc 1 385 0
	movq	-136(%rbp), %rax	# fmt, tmp173
	movzbl	(%rax), %eax	# *fmt_2, D.12872
	movsbl	%al, %eax	# D.12872, D.12871
	cmpl	$86, %eax	#, D.12871
	je	.L68	#,
	cmpl	$86, %eax	#, D.12871
	jg	.L69	#,
	cmpl	$69, %eax	#, D.12871
	je	.L68	#,
	jmp	.L67	#
.L69:
	cmpl	$101, %eax	#, D.12871
	je	.L70	#,
	cmpl	$117, %eax	#, D.12871
	jne	.L67	#,
.L70:
	.loc 1 388 0
	movq	-152(%rbp), %rax	# r, tmp174
	movl	-144(%rbp), %edx	# i, tmp176
	movslq	%edx, %rdx	# tmp176, tmp175
	movq	8(%rax,%rdx,8), %rax	# r_1->fld[i_3].rtx, tmp177
	movq	%rax, -48(%rbp)	# tmp177, exp
	.loc 1 389 0
	cmpq	$0, -48(%rbp)	#, exp
	je	.L71	#,
	.loc 1 389 0 is_stmt 0 discriminator 1
	movq	-48(%rbp), %rax	# exp, tmp178
	movq	%rax, %rdi	# tmp178,
	call	ggc_set_mark	#
	testl	%eax, %eax	# D.12871
	jne	.L71	#,
	.loc 1 391 0 is_stmt 1
	cmpq	$0, -128(%rbp)	#, next_rtx
	jne	.L72	#,
	.loc 1 392 0
	movq	-48(%rbp), %rax	# exp, tmp179
	movq	%rax, -128(%rbp)	# tmp179, next_rtx
	jmp	.L71	#
.L72:
	.loc 1 394 0
	movq	-48(%rbp), %rax	# exp, tmp180
	movq	%rax, %rdi	# tmp180,
	call	ggc_mark_rtx_children	#
	.loc 1 396 0
	jmp	.L67	#
.L71:
	jmp	.L67	#
.L68:
.LBB14:
	.loc 1 398 0
	movq	-152(%rbp), %rax	# r, tmp181
	movl	-144(%rbp), %edx	# i, tmp183
	movslq	%edx, %rdx	# tmp183, tmp182
	movq	8(%rax,%rdx,8), %rax	# r_1->fld[i_3].rtvec, tmp184
	movq	%rax, -40(%rbp)	# tmp184, v__
	cmpq	$0, -40(%rbp)	#, v__
	je	.L73	#,
	.loc 1 398 0 is_stmt 0 discriminator 1
	movq	-40(%rbp), %rax	# v__, tmp185
	movq	%rax, %rdi	# tmp185,
	call	ggc_set_mark	#
	testl	%eax, %eax	# D.12871
	jne	.L73	#,
	movq	-40(%rbp), %rax	# v__, tmp186
	movq	%rax, %rdi	# tmp186,
	call	ggc_mark_rtvec_children	#
.LBE14:
	.loc 1 399 0 is_stmt 1 discriminator 1
	jmp	.L78	#
.L73:
.L78:
	.loc 1 399 0 is_stmt 0
	nop
.L67:
.LBE13:
	.loc 1 382 0 is_stmt 1
	addq	$1, -136(%rbp)	#, fmt
	addl	$1, -144(%rbp)	#, i
.L66:
	.loc 1 382 0 is_stmt 0 discriminator 1
	movq	-136(%rbp), %rax	# fmt, tmp187
	movzbl	(%rax), %eax	# *fmt_2, D.12872
	testb	%al, %al	# D.12872
	jne	.L74	#,
.LBE3:
	.loc 1 403 0 is_stmt 1
	movq	-128(%rbp), %rax	# next_rtx, tmp188
	movq	%rax, -152(%rbp)	# tmp188, r
	cmpq	$0, -152(%rbp)	#, r
	jne	.L75	#,
	.loc 1 404 0
	addq	$136, %rsp	#,
	popq	%rbx	#
	popq	%r12	#
	popq	%r13	#
	popq	%rbp	#
	.cfi_def_cfa 7, 8
	ret
	.cfi_endproc
.LFE13:
	.size	ggc_mark_rtx_children_1, .-ggc_mark_rtx_children_1
	.globl	ggc_mark_rtvec_children
	.type	ggc_mark_rtvec_children, @function
ggc_mark_rtvec_children:
.LFB14:
	.loc 1 412 0
	.cfi_startproc
	pushq	%rbp	#
	.cfi_def_cfa_offset 16
	.cfi_offset 6, -16
	movq	%rsp, %rbp	#,
	.cfi_def_cfa_register 6
	subq	$32, %rsp	#,
	movq	%rdi, -24(%rbp)	# v, v
	.loc 1 415 0
	movq	-24(%rbp), %rax	# v, tmp60
	movl	(%rax), %eax	# v_2(D)->num_elem, tmp61
	movl	%eax, -12(%rbp)	# tmp61, i
	.loc 1 416 0
	jmp	.L80	#
.L81:
.LBB15:
	.loc 1 417 0
	movq	-24(%rbp), %rax	# v, tmp62
	movl	-12(%rbp), %edx	# i, tmp64
	movslq	%edx, %rdx	# tmp64, tmp63
	movq	8(%rax,%rdx,8), %rax	# v_2(D)->elem, tmp65
	movq	%rax, -8(%rbp)	# tmp65, r__
	cmpq	$0, -8(%rbp)	#, r__
	je	.L80	#,
	.loc 1 417 0 is_stmt 0 discriminator 1
	movq	-8(%rbp), %rax	# r__, tmp66
	movq	%rax, %rdi	# tmp66,
	call	ggc_set_mark	#
	testl	%eax, %eax	# D.12874
	jne	.L80	#,
	movq	-8(%rbp), %rax	# r__, tmp67
	movq	%rax, %rdi	# tmp67,
	call	ggc_mark_rtx_children	#
.L80:
.LBE15:
	.loc 1 416 0 is_stmt 1 discriminator 1
	subl	$1, -12(%rbp)	#, i
	cmpl	$0, -12(%rbp)	#, i
	jns	.L81	#,
	.loc 1 418 0
	leave
	.cfi_def_cfa 7, 8
	ret
	.cfi_endproc
.LFE14:
	.size	ggc_mark_rtvec_children, .-ggc_mark_rtvec_children
	.type	ggc_mark_trees, @function
ggc_mark_trees:
.LFB15:
	.loc 1 425 0
	.cfi_startproc
	pushq	%rbp	#
	.cfi_def_cfa_offset 16
	.cfi_offset 6, -16
	movq	%rsp, %rbp	#,
	.cfi_def_cfa_register 6
	pushq	%r13	#
	pushq	%r12	#
	pushq	%rbx	#
	subq	$392, %rsp	#,
	.cfi_offset 13, -24
	.cfi_offset 12, -32
	.cfi_offset 3, -40
	.loc 1 426 0
	jmp	.L83	#
.L193:
.LBB16:
	.loc 1 431 0
	movq	ggc_pending_trees(%rip), %rax	# ggc_pending_trees, ggc_pending_trees.30
	movq	ggc_pending_trees(%rip), %rdx	# ggc_pending_trees, ggc_pending_trees.31
	movq	8(%rdx), %rdx	# ggc_pending_trees.31_7->elements_used, D.12875
	subq	$1, %rdx	#, D.12875
	addq	$4, %rdx	#, tmp662
	movq	(%rax,%rdx,8), %rax	# ggc_pending_trees.30_6->data.tree, tmp663
	movq	%rax, -400(%rbp)	# tmp663, t
	.loc 1 432 0
	movq	ggc_pending_trees(%rip), %rax	# ggc_pending_trees, ggc_pending_trees.32
	movq	8(%rax), %rdx	# ggc_pending_trees.32_11->elements_used, D.12875
	subq	$1, %rdx	#, D.12875
	movq	%rdx, 8(%rax)	# D.12875, ggc_pending_trees.32_11->elements_used
	.loc 1 433 0
	movq	-400(%rbp), %rax	# t, tmp664
	movzbl	16(%rax), %eax	# t_10->common.code, D.12876
	movzbl	%al, %eax	# D.12876, tmp665
	movl	%eax, -408(%rbp)	# tmp665, code
	.loc 1 436 0
	movq	ggc_stats(%rip), %rax	# ggc_stats, ggc_stats.33
	testq	%rax, %rax	# ggc_stats.33
	je	.L84	#,
	.loc 1 438 0
	movq	ggc_stats(%rip), %rax	# ggc_stats, ggc_stats.34
	movl	-408(%rbp), %edx	# code, code.35
	movslq	%edx, %rcx	# code.35, tmp666
	movl	(%rax,%rcx,4), %ecx	# ggc_stats.34_17->num_trees, D.12877
	addl	$1, %ecx	#, D.12877
	movslq	%edx, %rdx	# code.35, tmp667
	movl	%ecx, (%rax,%rdx,4)	# D.12877, ggc_stats.34_17->num_trees
	.loc 1 439 0
	movq	ggc_stats(%rip), %rbx	# ggc_stats, ggc_stats.36
	movl	-408(%rbp), %r12d	# code, code.37
	movq	ggc_stats(%rip), %rax	# ggc_stats, ggc_stats.38
	movl	-408(%rbp), %edx	# code, code.39
	movslq	%edx, %rdx	# code.39, tmp668
	subq	$-128, %rdx	#, tmp669
	movq	(%rax,%rdx,8), %r13	# ggc_stats.38_23->size_trees, D.12875
	movq	-400(%rbp), %rax	# t, tmp670
	movq	%rax, %rdi	# tmp670,
	call	ggc_get_size	#
	leaq	0(%r13,%rax), %rdx	#, D.12875
	movslq	%r12d, %rax	# code.37, tmp671
	subq	$-128, %rax	#, tmp672
	movq	%rdx, (%rbx,%rax,8)	# D.12875, ggc_stats.36_21->size_trees
.L84:
.LBB17:
	.loc 1 443 0
	movq	-400(%rbp), %rax	# t, tmp673
	movq	8(%rax), %rax	# t_10->common.type, tmp674
	movq	%rax, -392(%rbp)	# tmp674, t__
	cmpq	$0, -392(%rbp)	#, t__
	je	.L85	#,
	.loc 1 443 0 is_stmt 0 discriminator 1
	movq	-392(%rbp), %rax	# t__, tmp675
	movq	%rax, %rdi	# tmp675,
	call	ggc_set_mark	#
	testl	%eax, %eax	# D.12878
	jne	.L85	#,
	movq	ggc_pending_trees(%rip), %rax	# ggc_pending_trees, ggc_pending_trees.40
	movq	8(%rax), %rdx	# ggc_pending_trees.40_30->elements_used, D.12875
	movq	ggc_pending_trees(%rip), %rax	# ggc_pending_trees, ggc_pending_trees.41
	movq	(%rax), %rax	# ggc_pending_trees.41_32->num_elements, D.12875
	cmpq	%rax, %rdx	# D.12875, D.12875
	jb	.L86	#,
	movq	ggc_pending_trees(%rip), %rax	# ggc_pending_trees, ggc_pending_trees.42
	movq	(%rax), %rax	# ggc_pending_trees.42_34->num_elements, D.12875
	leaq	(%rax,%rax), %rdx	#, D.12875
	movq	ggc_pending_trees(%rip), %rax	# ggc_pending_trees, ggc_pending_trees.43
	movq	%rdx, %rsi	# D.12875,
	movq	%rax, %rdi	# ggc_pending_trees.43,
	call	varray_grow	#
	movq	%rax, ggc_pending_trees(%rip)	# ggc_pending_trees.44, ggc_pending_trees
.L86:
	.loc 1 443 0 discriminator 2
	movq	ggc_pending_trees(%rip), %rcx	# ggc_pending_trees, ggc_pending_trees.45
	movq	ggc_pending_trees(%rip), %rax	# ggc_pending_trees, ggc_pending_trees.46
	movq	8(%rax), %rdx	# ggc_pending_trees.46_40->elements_used, D.12875
	leaq	1(%rdx), %rsi	#, D.12875
	movq	%rsi, 8(%rax)	# D.12875, ggc_pending_trees.46_40->elements_used
	addq	$4, %rdx	#, tmp676
	movq	-392(%rbp), %rax	# t__, tmp677
	movq	%rax, (%rcx,%rdx,8)	# tmp677, ggc_pending_trees.45_39->data.tree
.L85:
.LBE17:
.LBB18:
	.loc 1 444 0 is_stmt 1
	movq	-400(%rbp), %rax	# t, tmp678
	movq	(%rax), %rax	# t_10->common.chain, tmp679
	movq	%rax, -384(%rbp)	# tmp679, t__
	cmpq	$0, -384(%rbp)	#, t__
	je	.L87	#,
	.loc 1 444 0 is_stmt 0 discriminator 1
	movq	-384(%rbp), %rax	# t__, tmp680
	movq	%rax, %rdi	# tmp680,
	call	ggc_set_mark	#
	testl	%eax, %eax	# D.12878
	jne	.L87	#,
	movq	ggc_pending_trees(%rip), %rax	# ggc_pending_trees, ggc_pending_trees.47
	movq	8(%rax), %rdx	# ggc_pending_trees.47_46->elements_used, D.12875
	movq	ggc_pending_trees(%rip), %rax	# ggc_pending_trees, ggc_pending_trees.48
	movq	(%rax), %rax	# ggc_pending_trees.48_48->num_elements, D.12875
	cmpq	%rax, %rdx	# D.12875, D.12875
	jb	.L88	#,
	movq	ggc_pending_trees(%rip), %rax	# ggc_pending_trees, ggc_pending_trees.49
	movq	(%rax), %rax	# ggc_pending_trees.49_50->num_elements, D.12875
	leaq	(%rax,%rax), %rdx	#, D.12875
	movq	ggc_pending_trees(%rip), %rax	# ggc_pending_trees, ggc_pending_trees.50
	movq	%rdx, %rsi	# D.12875,
	movq	%rax, %rdi	# ggc_pending_trees.50,
	call	varray_grow	#
	movq	%rax, ggc_pending_trees(%rip)	# ggc_pending_trees.51, ggc_pending_trees
.L88:
	.loc 1 444 0 discriminator 2
	movq	ggc_pending_trees(%rip), %rcx	# ggc_pending_trees, ggc_pending_trees.52
	movq	ggc_pending_trees(%rip), %rax	# ggc_pending_trees, ggc_pending_trees.53
	movq	8(%rax), %rdx	# ggc_pending_trees.53_56->elements_used, D.12875
	leaq	1(%rdx), %rsi	#, D.12875
	movq	%rsi, 8(%rax)	# D.12875, ggc_pending_trees.53_56->elements_used
	addq	$4, %rdx	#, tmp681
	movq	-384(%rbp), %rax	# t__, tmp682
	movq	%rax, (%rcx,%rdx,8)	# tmp682, ggc_pending_trees.52_55->data.tree
.L87:
.LBE18:
	.loc 1 447 0 is_stmt 1
	cmpl	$37, -408(%rbp)	#, code
	ja	.L194	#,
	movl	-408(%rbp), %eax	# code, tmp683
	movq	.L91(,%rax,8), %rax	#, tmp684
	jmp	*%rax	# tmp684
	.section	.rodata
	.align 8
	.align 4
.L91:
	.quad	.L194
	.quad	.L90
	.quad	.L92
	.quad	.L93
	.quad	.L194
	.quad	.L194
	.quad	.L194
	.quad	.L194
	.quad	.L194
	.quad	.L194
	.quad	.L194
	.quad	.L194
	.quad	.L194
	.quad	.L194
	.quad	.L194
	.quad	.L194
	.quad	.L194
	.quad	.L194
	.quad	.L194
	.quad	.L194
	.quad	.L194
	.quad	.L194
	.quad	.L194
	.quad	.L194
	.quad	.L194
	.quad	.L194
	.quad	.L194
	.quad	.L94
	.quad	.L194
	.quad	.L194
	.quad	.L194
	.quad	.L194
	.quad	.L194
	.quad	.L194
	.quad	.L194
	.quad	.L95
	.quad	.L194
	.quad	.L96
	.text
.L92:
.LBB19:
	.loc 1 450 0
	movq	-400(%rbp), %rax	# t, tmp685
	movq	24(%rax), %rax	# t_10->list.purpose, tmp686
	movq	%rax, -376(%rbp)	# tmp686, t__
	cmpq	$0, -376(%rbp)	#, t__
	je	.L97	#,
	.loc 1 450 0 is_stmt 0 discriminator 1
	movq	-376(%rbp), %rax	# t__, tmp687
	movq	%rax, %rdi	# tmp687,
	call	ggc_set_mark	#
	testl	%eax, %eax	# D.12878
	jne	.L97	#,
	movq	ggc_pending_trees(%rip), %rax	# ggc_pending_trees, ggc_pending_trees.54
	movq	8(%rax), %rdx	# ggc_pending_trees.54_62->elements_used, D.12875
	movq	ggc_pending_trees(%rip), %rax	# ggc_pending_trees, ggc_pending_trees.55
	movq	(%rax), %rax	# ggc_pending_trees.55_64->num_elements, D.12875
	cmpq	%rax, %rdx	# D.12875, D.12875
	jb	.L98	#,
	movq	ggc_pending_trees(%rip), %rax	# ggc_pending_trees, ggc_pending_trees.56
	movq	(%rax), %rax	# ggc_pending_trees.56_66->num_elements, D.12875
	leaq	(%rax,%rax), %rdx	#, D.12875
	movq	ggc_pending_trees(%rip), %rax	# ggc_pending_trees, ggc_pending_trees.57
	movq	%rdx, %rsi	# D.12875,
	movq	%rax, %rdi	# ggc_pending_trees.57,
	call	varray_grow	#
	movq	%rax, ggc_pending_trees(%rip)	# ggc_pending_trees.58, ggc_pending_trees
.L98:
	.loc 1 450 0 discriminator 2
	movq	ggc_pending_trees(%rip), %rcx	# ggc_pending_trees, ggc_pending_trees.59
	movq	ggc_pending_trees(%rip), %rax	# ggc_pending_trees, ggc_pending_trees.60
	movq	8(%rax), %rdx	# ggc_pending_trees.60_72->elements_used, D.12875
	leaq	1(%rdx), %rsi	#, D.12875
	movq	%rsi, 8(%rax)	# D.12875, ggc_pending_trees.60_72->elements_used
	addq	$4, %rdx	#, tmp688
	movq	-376(%rbp), %rax	# t__, tmp689
	movq	%rax, (%rcx,%rdx,8)	# tmp689, ggc_pending_trees.59_71->data.tree
.L97:
.LBE19:
.LBB20:
	.loc 1 451 0 is_stmt 1
	movq	-400(%rbp), %rax	# t, tmp690
	movq	32(%rax), %rax	# t_10->list.value, tmp691
	movq	%rax, -368(%rbp)	# tmp691, t__
	cmpq	$0, -368(%rbp)	#, t__
	je	.L99	#,
	.loc 1 451 0 is_stmt 0 discriminator 1
	movq	-368(%rbp), %rax	# t__, tmp692
	movq	%rax, %rdi	# tmp692,
	call	ggc_set_mark	#
	testl	%eax, %eax	# D.12878
	jne	.L99	#,
	movq	ggc_pending_trees(%rip), %rax	# ggc_pending_trees, ggc_pending_trees.61
	movq	8(%rax), %rdx	# ggc_pending_trees.61_78->elements_used, D.12875
	movq	ggc_pending_trees(%rip), %rax	# ggc_pending_trees, ggc_pending_trees.62
	movq	(%rax), %rax	# ggc_pending_trees.62_80->num_elements, D.12875
	cmpq	%rax, %rdx	# D.12875, D.12875
	jb	.L100	#,
	movq	ggc_pending_trees(%rip), %rax	# ggc_pending_trees, ggc_pending_trees.63
	movq	(%rax), %rax	# ggc_pending_trees.63_82->num_elements, D.12875
	leaq	(%rax,%rax), %rdx	#, D.12875
	movq	ggc_pending_trees(%rip), %rax	# ggc_pending_trees, ggc_pending_trees.64
	movq	%rdx, %rsi	# D.12875,
	movq	%rax, %rdi	# ggc_pending_trees.64,
	call	varray_grow	#
	movq	%rax, ggc_pending_trees(%rip)	# ggc_pending_trees.65, ggc_pending_trees
.L100:
	.loc 1 451 0 discriminator 2
	movq	ggc_pending_trees(%rip), %rcx	# ggc_pending_trees, ggc_pending_trees.66
	movq	ggc_pending_trees(%rip), %rax	# ggc_pending_trees, ggc_pending_trees.67
	movq	8(%rax), %rdx	# ggc_pending_trees.67_88->elements_used, D.12875
	leaq	1(%rdx), %rsi	#, D.12875
	movq	%rsi, 8(%rax)	# D.12875, ggc_pending_trees.67_88->elements_used
	addq	$4, %rdx	#, tmp693
	movq	-368(%rbp), %rax	# t__, tmp694
	movq	%rax, (%rcx,%rdx,8)	# tmp694, ggc_pending_trees.66_87->data.tree
.LBE20:
	.loc 1 452 0 is_stmt 1 discriminator 2
	jmp	.L83	#
.L99:
	.loc 1 452 0 is_stmt 0
	jmp	.L83	#
.L93:
.LBB21:
	.loc 1 456 0 is_stmt 1
	movq	-400(%rbp), %rax	# t, tmp695
	movl	24(%rax), %eax	# t_10->vec.length, tmp696
	movl	%eax, -416(%rbp)	# tmp696, i
	.loc 1 458 0
	jmp	.L101	#
.L103:
.LBB22:
	.loc 1 459 0
	movq	-400(%rbp), %rax	# t, tmp697
	movl	-416(%rbp), %edx	# i, tmp699
	movslq	%edx, %rdx	# tmp699, tmp698
	addq	$4, %rdx	#, tmp700
	movq	(%rax,%rdx,8), %rax	# t_10->vec.a, tmp701
	movq	%rax, -360(%rbp)	# tmp701, t__
	cmpq	$0, -360(%rbp)	#, t__
	je	.L101	#,
	.loc 1 459 0 is_stmt 0 discriminator 1
	movq	-360(%rbp), %rax	# t__, tmp702
	movq	%rax, %rdi	# tmp702,
	call	ggc_set_mark	#
	testl	%eax, %eax	# D.12878
	jne	.L101	#,
	movq	ggc_pending_trees(%rip), %rax	# ggc_pending_trees, ggc_pending_trees.68
	movq	8(%rax), %rdx	# ggc_pending_trees.68_96->elements_used, D.12875
	movq	ggc_pending_trees(%rip), %rax	# ggc_pending_trees, ggc_pending_trees.69
	movq	(%rax), %rax	# ggc_pending_trees.69_98->num_elements, D.12875
	cmpq	%rax, %rdx	# D.12875, D.12875
	jb	.L102	#,
	movq	ggc_pending_trees(%rip), %rax	# ggc_pending_trees, ggc_pending_trees.70
	movq	(%rax), %rax	# ggc_pending_trees.70_100->num_elements, D.12875
	leaq	(%rax,%rax), %rdx	#, D.12875
	movq	ggc_pending_trees(%rip), %rax	# ggc_pending_trees, ggc_pending_trees.71
	movq	%rdx, %rsi	# D.12875,
	movq	%rax, %rdi	# ggc_pending_trees.71,
	call	varray_grow	#
	movq	%rax, ggc_pending_trees(%rip)	# ggc_pending_trees.72, ggc_pending_trees
.L102:
	.loc 1 459 0 discriminator 2
	movq	ggc_pending_trees(%rip), %rcx	# ggc_pending_trees, ggc_pending_trees.73
	movq	ggc_pending_trees(%rip), %rax	# ggc_pending_trees, ggc_pending_trees.74
	movq	8(%rax), %rdx	# ggc_pending_trees.74_106->elements_used, D.12875
	leaq	1(%rdx), %rsi	#, D.12875
	movq	%rsi, 8(%rax)	# D.12875, ggc_pending_trees.74_106->elements_used
	addq	$4, %rdx	#, tmp703
	movq	-360(%rbp), %rax	# t__, tmp704
	movq	%rax, (%rcx,%rdx,8)	# tmp704, ggc_pending_trees.73_105->data.tree
.L101:
.LBE22:
	.loc 1 458 0 is_stmt 1 discriminator 1
	subl	$1, -416(%rbp)	#, i
	cmpl	$0, -416(%rbp)	#, i
	jns	.L103	#,
	.loc 1 460 0
	jmp	.L83	#
.L94:
.LBE21:
.LBB23:
	.loc 1 464 0
	movq	-400(%rbp), %rax	# t, tmp705
	movq	32(%rax), %rax	# t_10->complex.real, tmp706
	movq	%rax, -352(%rbp)	# tmp706, t__
	cmpq	$0, -352(%rbp)	#, t__
	je	.L104	#,
	.loc 1 464 0 is_stmt 0 discriminator 1
	movq	-352(%rbp), %rax	# t__, tmp707
	movq	%rax, %rdi	# tmp707,
	call	ggc_set_mark	#
	testl	%eax, %eax	# D.12878
	jne	.L104	#,
	movq	ggc_pending_trees(%rip), %rax	# ggc_pending_trees, ggc_pending_trees.75
	movq	8(%rax), %rdx	# ggc_pending_trees.75_112->elements_used, D.12875
	movq	ggc_pending_trees(%rip), %rax	# ggc_pending_trees, ggc_pending_trees.76
	movq	(%rax), %rax	# ggc_pending_trees.76_114->num_elements, D.12875
	cmpq	%rax, %rdx	# D.12875, D.12875
	jb	.L105	#,
	movq	ggc_pending_trees(%rip), %rax	# ggc_pending_trees, ggc_pending_trees.77
	movq	(%rax), %rax	# ggc_pending_trees.77_116->num_elements, D.12875
	leaq	(%rax,%rax), %rdx	#, D.12875
	movq	ggc_pending_trees(%rip), %rax	# ggc_pending_trees, ggc_pending_trees.78
	movq	%rdx, %rsi	# D.12875,
	movq	%rax, %rdi	# ggc_pending_trees.78,
	call	varray_grow	#
	movq	%rax, ggc_pending_trees(%rip)	# ggc_pending_trees.79, ggc_pending_trees
.L105:
	.loc 1 464 0 discriminator 2
	movq	ggc_pending_trees(%rip), %rcx	# ggc_pending_trees, ggc_pending_trees.80
	movq	ggc_pending_trees(%rip), %rax	# ggc_pending_trees, ggc_pending_trees.81
	movq	8(%rax), %rdx	# ggc_pending_trees.81_122->elements_used, D.12875
	leaq	1(%rdx), %rsi	#, D.12875
	movq	%rsi, 8(%rax)	# D.12875, ggc_pending_trees.81_122->elements_used
	addq	$4, %rdx	#, tmp708
	movq	-352(%rbp), %rax	# t__, tmp709
	movq	%rax, (%rcx,%rdx,8)	# tmp709, ggc_pending_trees.80_121->data.tree
.L104:
.LBE23:
.LBB24:
	.loc 1 465 0 is_stmt 1
	movq	-400(%rbp), %rax	# t, tmp710
	movq	40(%rax), %rax	# t_10->complex.imag, tmp711
	movq	%rax, -344(%rbp)	# tmp711, t__
	cmpq	$0, -344(%rbp)	#, t__
	je	.L106	#,
	.loc 1 465 0 is_stmt 0 discriminator 1
	movq	-344(%rbp), %rax	# t__, tmp712
	movq	%rax, %rdi	# tmp712,
	call	ggc_set_mark	#
	testl	%eax, %eax	# D.12878
	jne	.L106	#,
	movq	ggc_pending_trees(%rip), %rax	# ggc_pending_trees, ggc_pending_trees.82
	movq	8(%rax), %rdx	# ggc_pending_trees.82_128->elements_used, D.12875
	movq	ggc_pending_trees(%rip), %rax	# ggc_pending_trees, ggc_pending_trees.83
	movq	(%rax), %rax	# ggc_pending_trees.83_130->num_elements, D.12875
	cmpq	%rax, %rdx	# D.12875, D.12875
	jb	.L107	#,
	movq	ggc_pending_trees(%rip), %rax	# ggc_pending_trees, ggc_pending_trees.84
	movq	(%rax), %rax	# ggc_pending_trees.84_132->num_elements, D.12875
	leaq	(%rax,%rax), %rdx	#, D.12875
	movq	ggc_pending_trees(%rip), %rax	# ggc_pending_trees, ggc_pending_trees.85
	movq	%rdx, %rsi	# D.12875,
	movq	%rax, %rdi	# ggc_pending_trees.85,
	call	varray_grow	#
	movq	%rax, ggc_pending_trees(%rip)	# ggc_pending_trees.86, ggc_pending_trees
.L107:
	.loc 1 465 0 discriminator 2
	movq	ggc_pending_trees(%rip), %rcx	# ggc_pending_trees, ggc_pending_trees.87
	movq	ggc_pending_trees(%rip), %rax	# ggc_pending_trees, ggc_pending_trees.88
	movq	8(%rax), %rdx	# ggc_pending_trees.88_138->elements_used, D.12875
	leaq	1(%rdx), %rsi	#, D.12875
	movq	%rsi, 8(%rax)	# D.12875, ggc_pending_trees.88_138->elements_used
	addq	$4, %rdx	#, tmp713
	movq	-344(%rbp), %rax	# t__, tmp714
	movq	%rax, (%rcx,%rdx,8)	# tmp714, ggc_pending_trees.87_137->data.tree
.LBE24:
	.loc 1 466 0 is_stmt 1 discriminator 2
	jmp	.L108	#
.L106:
	.loc 1 466 0 is_stmt 0
	jmp	.L108	#
.L95:
.LBB25:
	.loc 1 469 0 is_stmt 1
	movq	-400(%rbp), %rax	# t, tmp715
	movq	160(%rax), %rax	# t_10->decl.u2.r, tmp716
	movq	%rax, -336(%rbp)	# tmp716, r__
	cmpq	$0, -336(%rbp)	#, r__
	je	.L109	#,
	.loc 1 469 0 is_stmt 0 discriminator 1
	movq	-336(%rbp), %rax	# r__, tmp717
	movq	%rax, %rdi	# tmp717,
	call	ggc_set_mark	#
	testl	%eax, %eax	# D.12878
	jne	.L109	#,
	movq	-336(%rbp), %rax	# r__, tmp718
	movq	%rax, %rdi	# tmp718,
	call	ggc_mark_rtx_children	#
.LBE25:
	.loc 1 470 0 is_stmt 1 discriminator 1
	jmp	.L108	#
.L109:
	.loc 1 470 0 is_stmt 0
	jmp	.L108	#
.L96:
.LBB26:
	.loc 1 473 0 is_stmt 1
	movq	-400(%rbp), %rax	# t, tmp719
	movq	160(%rax), %rax	# t_10->decl.u2.t, tmp720
	movq	%rax, -328(%rbp)	# tmp720, t__
	cmpq	$0, -328(%rbp)	#, t__
	je	.L110	#,
	.loc 1 473 0 is_stmt 0 discriminator 1
	movq	-328(%rbp), %rax	# t__, tmp721
	movq	%rax, %rdi	# tmp721,
	call	ggc_set_mark	#
	testl	%eax, %eax	# D.12878
	jne	.L110	#,
	movq	ggc_pending_trees(%rip), %rax	# ggc_pending_trees, ggc_pending_trees.89
	movq	8(%rax), %rdx	# ggc_pending_trees.89_146->elements_used, D.12875
	movq	ggc_pending_trees(%rip), %rax	# ggc_pending_trees, ggc_pending_trees.90
	movq	(%rax), %rax	# ggc_pending_trees.90_148->num_elements, D.12875
	cmpq	%rax, %rdx	# D.12875, D.12875
	jb	.L111	#,
	movq	ggc_pending_trees(%rip), %rax	# ggc_pending_trees, ggc_pending_trees.91
	movq	(%rax), %rax	# ggc_pending_trees.91_150->num_elements, D.12875
	leaq	(%rax,%rax), %rdx	#, D.12875
	movq	ggc_pending_trees(%rip), %rax	# ggc_pending_trees, ggc_pending_trees.92
	movq	%rdx, %rsi	# D.12875,
	movq	%rax, %rdi	# ggc_pending_trees.92,
	call	varray_grow	#
	movq	%rax, ggc_pending_trees(%rip)	# ggc_pending_trees.93, ggc_pending_trees
.L111:
	.loc 1 473 0 discriminator 2
	movq	ggc_pending_trees(%rip), %rcx	# ggc_pending_trees, ggc_pending_trees.94
	movq	ggc_pending_trees(%rip), %rax	# ggc_pending_trees, ggc_pending_trees.95
	movq	8(%rax), %rdx	# ggc_pending_trees.95_156->elements_used, D.12875
	leaq	1(%rdx), %rsi	#, D.12875
	movq	%rsi, 8(%rax)	# D.12875, ggc_pending_trees.95_156->elements_used
	addq	$4, %rdx	#, tmp722
	movq	-328(%rbp), %rax	# t__, tmp723
	movq	%rax, (%rcx,%rdx,8)	# tmp723, ggc_pending_trees.94_155->data.tree
.LBE26:
	.loc 1 474 0 is_stmt 1 discriminator 2
	jmp	.L108	#
.L110:
	.loc 1 474 0 is_stmt 0
	jmp	.L108	#
.L90:
	.loc 1 477 0 is_stmt 1
	movq	-400(%rbp), %rax	# t, tmp724
	movq	%rax, %rdi	# tmp724,
	call	lang_mark_tree	#
	.loc 1 478 0
	jmp	.L83	#
.L194:
	.loc 1 481 0
	nop
.L108:
	.loc 1 485 0
	movl	-408(%rbp), %eax	# code, code.96
	cltq
	movzbl	tree_code_type(%rax), %eax	# tree_code_type, D.12879
	movsbl	%al, %eax	# D.12879, D.12878
	subl	$49, %eax	#, tmp726
	cmpl	$71, %eax	#, tmp726
	ja	.L83	#,
	movl	%eax, %eax	# tmp726, tmp727
	movq	.L113(,%rax,8), %rax	#, tmp728
	jmp	*%rax	# tmp728
	.section	.rodata
	.align 8
	.align 4
.L113:
	.quad	.L112
	.quad	.L112
	.quad	.L83
	.quad	.L83
	.quad	.L83
	.quad	.L83
	.quad	.L83
	.quad	.L83
	.quad	.L83
	.quad	.L83
	.quad	.L83
	.quad	.L112
	.quad	.L83
	.quad	.L83
	.quad	.L83
	.quad	.L83
	.quad	.L83
	.quad	.L83
	.quad	.L83
	.quad	.L83
	.quad	.L83
	.quad	.L83
	.quad	.L83
	.quad	.L83
	.quad	.L83
	.quad	.L83
	.quad	.L83
	.quad	.L83
	.quad	.L83
	.quad	.L83
	.quad	.L83
	.quad	.L83
	.quad	.L83
	.quad	.L83
	.quad	.L83
	.quad	.L83
	.quad	.L83
	.quad	.L83
	.quad	.L83
	.quad	.L83
	.quad	.L83
	.quad	.L83
	.quad	.L83
	.quad	.L83
	.quad	.L83
	.quad	.L83
	.quad	.L83
	.quad	.L83
	.quad	.L83
	.quad	.L114
	.quad	.L115
	.quad	.L116
	.quad	.L112
	.quad	.L83
	.quad	.L83
	.quad	.L83
	.quad	.L83
	.quad	.L83
	.quad	.L83
	.quad	.L83
	.quad	.L83
	.quad	.L83
	.quad	.L83
	.quad	.L83
	.quad	.L83
	.quad	.L112
	.quad	.L112
	.quad	.L117
	.quad	.L83
	.quad	.L83
	.quad	.L83
	.quad	.L118
	.text
.L116:
.LBB27:
	.loc 1 488 0
	movq	-400(%rbp), %rax	# t, tmp729
	movq	40(%rax), %rax	# t_10->decl.size, tmp730
	movq	%rax, -320(%rbp)	# tmp730, t__
	cmpq	$0, -320(%rbp)	#, t__
	je	.L119	#,
	.loc 1 488 0 is_stmt 0 discriminator 1
	movq	-320(%rbp), %rax	# t__, tmp731
	movq	%rax, %rdi	# tmp731,
	call	ggc_set_mark	#
	testl	%eax, %eax	# D.12878
	jne	.L119	#,
	movq	ggc_pending_trees(%rip), %rax	# ggc_pending_trees, ggc_pending_trees.97
	movq	8(%rax), %rdx	# ggc_pending_trees.97_165->elements_used, D.12875
	movq	ggc_pending_trees(%rip), %rax	# ggc_pending_trees, ggc_pending_trees.98
	movq	(%rax), %rax	# ggc_pending_trees.98_167->num_elements, D.12875
	cmpq	%rax, %rdx	# D.12875, D.12875
	jb	.L120	#,
	movq	ggc_pending_trees(%rip), %rax	# ggc_pending_trees, ggc_pending_trees.99
	movq	(%rax), %rax	# ggc_pending_trees.99_169->num_elements, D.12875
	leaq	(%rax,%rax), %rdx	#, D.12875
	movq	ggc_pending_trees(%rip), %rax	# ggc_pending_trees, ggc_pending_trees.100
	movq	%rdx, %rsi	# D.12875,
	movq	%rax, %rdi	# ggc_pending_trees.100,
	call	varray_grow	#
	movq	%rax, ggc_pending_trees(%rip)	# ggc_pending_trees.101, ggc_pending_trees
.L120:
	.loc 1 488 0 discriminator 2
	movq	ggc_pending_trees(%rip), %rcx	# ggc_pending_trees, ggc_pending_trees.102
	movq	ggc_pending_trees(%rip), %rax	# ggc_pending_trees, ggc_pending_trees.103
	movq	8(%rax), %rdx	# ggc_pending_trees.103_175->elements_used, D.12875
	leaq	1(%rdx), %rsi	#, D.12875
	movq	%rsi, 8(%rax)	# D.12875, ggc_pending_trees.103_175->elements_used
	addq	$4, %rdx	#, tmp732
	movq	-320(%rbp), %rax	# t__, tmp733
	movq	%rax, (%rcx,%rdx,8)	# tmp733, ggc_pending_trees.102_174->data.tree
.L119:
.LBE27:
.LBB28:
	.loc 1 489 0 is_stmt 1
	movq	-400(%rbp), %rax	# t, tmp734
	movq	64(%rax), %rax	# t_10->decl.size_unit, tmp735
	movq	%rax, -312(%rbp)	# tmp735, t__
	cmpq	$0, -312(%rbp)	#, t__
	je	.L121	#,
	.loc 1 489 0 is_stmt 0 discriminator 1
	movq	-312(%rbp), %rax	# t__, tmp736
	movq	%rax, %rdi	# tmp736,
	call	ggc_set_mark	#
	testl	%eax, %eax	# D.12878
	jne	.L121	#,
	movq	ggc_pending_trees(%rip), %rax	# ggc_pending_trees, ggc_pending_trees.104
	movq	8(%rax), %rdx	# ggc_pending_trees.104_181->elements_used, D.12875
	movq	ggc_pending_trees(%rip), %rax	# ggc_pending_trees, ggc_pending_trees.105
	movq	(%rax), %rax	# ggc_pending_trees.105_183->num_elements, D.12875
	cmpq	%rax, %rdx	# D.12875, D.12875
	jb	.L122	#,
	movq	ggc_pending_trees(%rip), %rax	# ggc_pending_trees, ggc_pending_trees.106
	movq	(%rax), %rax	# ggc_pending_trees.106_185->num_elements, D.12875
	leaq	(%rax,%rax), %rdx	#, D.12875
	movq	ggc_pending_trees(%rip), %rax	# ggc_pending_trees, ggc_pending_trees.107
	movq	%rdx, %rsi	# D.12875,
	movq	%rax, %rdi	# ggc_pending_trees.107,
	call	varray_grow	#
	movq	%rax, ggc_pending_trees(%rip)	# ggc_pending_trees.108, ggc_pending_trees
.L122:
	.loc 1 489 0 discriminator 2
	movq	ggc_pending_trees(%rip), %rcx	# ggc_pending_trees, ggc_pending_trees.109
	movq	ggc_pending_trees(%rip), %rax	# ggc_pending_trees, ggc_pending_trees.110
	movq	8(%rax), %rdx	# ggc_pending_trees.110_191->elements_used, D.12875
	leaq	1(%rdx), %rsi	#, D.12875
	movq	%rsi, 8(%rax)	# D.12875, ggc_pending_trees.110_191->elements_used
	addq	$4, %rdx	#, tmp737
	movq	-312(%rbp), %rax	# t__, tmp738
	movq	%rax, (%rcx,%rdx,8)	# tmp738, ggc_pending_trees.109_190->data.tree
.L121:
.LBE28:
.LBB29:
	.loc 1 490 0 is_stmt 1
	movq	-400(%rbp), %rax	# t, tmp739
	movq	72(%rax), %rax	# t_10->decl.name, tmp740
	movq	%rax, -304(%rbp)	# tmp740, t__
	cmpq	$0, -304(%rbp)	#, t__
	je	.L123	#,
	.loc 1 490 0 is_stmt 0 discriminator 1
	movq	-304(%rbp), %rax	# t__, tmp741
	movq	%rax, %rdi	# tmp741,
	call	ggc_set_mark	#
	testl	%eax, %eax	# D.12878
	jne	.L123	#,
	movq	ggc_pending_trees(%rip), %rax	# ggc_pending_trees, ggc_pending_trees.111
	movq	8(%rax), %rdx	# ggc_pending_trees.111_197->elements_used, D.12875
	movq	ggc_pending_trees(%rip), %rax	# ggc_pending_trees, ggc_pending_trees.112
	movq	(%rax), %rax	# ggc_pending_trees.112_199->num_elements, D.12875
	cmpq	%rax, %rdx	# D.12875, D.12875
	jb	.L124	#,
	movq	ggc_pending_trees(%rip), %rax	# ggc_pending_trees, ggc_pending_trees.113
	movq	(%rax), %rax	# ggc_pending_trees.113_201->num_elements, D.12875
	leaq	(%rax,%rax), %rdx	#, D.12875
	movq	ggc_pending_trees(%rip), %rax	# ggc_pending_trees, ggc_pending_trees.114
	movq	%rdx, %rsi	# D.12875,
	movq	%rax, %rdi	# ggc_pending_trees.114,
	call	varray_grow	#
	movq	%rax, ggc_pending_trees(%rip)	# ggc_pending_trees.115, ggc_pending_trees
.L124:
	.loc 1 490 0 discriminator 2
	movq	ggc_pending_trees(%rip), %rcx	# ggc_pending_trees, ggc_pending_trees.116
	movq	ggc_pending_trees(%rip), %rax	# ggc_pending_trees, ggc_pending_trees.117
	movq	8(%rax), %rdx	# ggc_pending_trees.117_207->elements_used, D.12875
	leaq	1(%rdx), %rsi	#, D.12875
	movq	%rsi, 8(%rax)	# D.12875, ggc_pending_trees.117_207->elements_used
	addq	$4, %rdx	#, tmp742
	movq	-304(%rbp), %rax	# t__, tmp743
	movq	%rax, (%rcx,%rdx,8)	# tmp743, ggc_pending_trees.116_206->data.tree
.L123:
.LBE29:
.LBB30:
	.loc 1 491 0 is_stmt 1
	movq	-400(%rbp), %rax	# t, tmp744
	movq	80(%rax), %rax	# t_10->decl.context, tmp745
	movq	%rax, -296(%rbp)	# tmp745, t__
	cmpq	$0, -296(%rbp)	#, t__
	je	.L125	#,
	.loc 1 491 0 is_stmt 0 discriminator 1
	movq	-296(%rbp), %rax	# t__, tmp746
	movq	%rax, %rdi	# tmp746,
	call	ggc_set_mark	#
	testl	%eax, %eax	# D.12878
	jne	.L125	#,
	movq	ggc_pending_trees(%rip), %rax	# ggc_pending_trees, ggc_pending_trees.118
	movq	8(%rax), %rdx	# ggc_pending_trees.118_213->elements_used, D.12875
	movq	ggc_pending_trees(%rip), %rax	# ggc_pending_trees, ggc_pending_trees.119
	movq	(%rax), %rax	# ggc_pending_trees.119_215->num_elements, D.12875
	cmpq	%rax, %rdx	# D.12875, D.12875
	jb	.L126	#,
	movq	ggc_pending_trees(%rip), %rax	# ggc_pending_trees, ggc_pending_trees.120
	movq	(%rax), %rax	# ggc_pending_trees.120_217->num_elements, D.12875
	leaq	(%rax,%rax), %rdx	#, D.12875
	movq	ggc_pending_trees(%rip), %rax	# ggc_pending_trees, ggc_pending_trees.121
	movq	%rdx, %rsi	# D.12875,
	movq	%rax, %rdi	# ggc_pending_trees.121,
	call	varray_grow	#
	movq	%rax, ggc_pending_trees(%rip)	# ggc_pending_trees.122, ggc_pending_trees
.L126:
	.loc 1 491 0 discriminator 2
	movq	ggc_pending_trees(%rip), %rcx	# ggc_pending_trees, ggc_pending_trees.123
	movq	ggc_pending_trees(%rip), %rax	# ggc_pending_trees, ggc_pending_trees.124
	movq	8(%rax), %rdx	# ggc_pending_trees.124_223->elements_used, D.12875
	leaq	1(%rdx), %rsi	#, D.12875
	movq	%rsi, 8(%rax)	# D.12875, ggc_pending_trees.124_223->elements_used
	addq	$4, %rdx	#, tmp747
	movq	-296(%rbp), %rax	# t__, tmp748
	movq	%rax, (%rcx,%rdx,8)	# tmp748, ggc_pending_trees.123_222->data.tree
.L125:
.LBE30:
.LBB31:
	.loc 1 492 0 is_stmt 1
	movq	-400(%rbp), %rax	# t, tmp749
	movq	88(%rax), %rax	# t_10->decl.arguments, tmp750
	movq	%rax, -288(%rbp)	# tmp750, t__
	cmpq	$0, -288(%rbp)	#, t__
	je	.L127	#,
	.loc 1 492 0 is_stmt 0 discriminator 1
	movq	-288(%rbp), %rax	# t__, tmp751
	movq	%rax, %rdi	# tmp751,
	call	ggc_set_mark	#
	testl	%eax, %eax	# D.12878
	jne	.L127	#,
	movq	ggc_pending_trees(%rip), %rax	# ggc_pending_trees, ggc_pending_trees.125
	movq	8(%rax), %rdx	# ggc_pending_trees.125_229->elements_used, D.12875
	movq	ggc_pending_trees(%rip), %rax	# ggc_pending_trees, ggc_pending_trees.126
	movq	(%rax), %rax	# ggc_pending_trees.126_231->num_elements, D.12875
	cmpq	%rax, %rdx	# D.12875, D.12875
	jb	.L128	#,
	movq	ggc_pending_trees(%rip), %rax	# ggc_pending_trees, ggc_pending_trees.127
	movq	(%rax), %rax	# ggc_pending_trees.127_233->num_elements, D.12875
	leaq	(%rax,%rax), %rdx	#, D.12875
	movq	ggc_pending_trees(%rip), %rax	# ggc_pending_trees, ggc_pending_trees.128
	movq	%rdx, %rsi	# D.12875,
	movq	%rax, %rdi	# ggc_pending_trees.128,
	call	varray_grow	#
	movq	%rax, ggc_pending_trees(%rip)	# ggc_pending_trees.129, ggc_pending_trees
.L128:
	.loc 1 492 0 discriminator 2
	movq	ggc_pending_trees(%rip), %rcx	# ggc_pending_trees, ggc_pending_trees.130
	movq	ggc_pending_trees(%rip), %rax	# ggc_pending_trees, ggc_pending_trees.131
	movq	8(%rax), %rdx	# ggc_pending_trees.131_239->elements_used, D.12875
	leaq	1(%rdx), %rsi	#, D.12875
	movq	%rsi, 8(%rax)	# D.12875, ggc_pending_trees.131_239->elements_used
	addq	$4, %rdx	#, tmp752
	movq	-288(%rbp), %rax	# t__, tmp753
	movq	%rax, (%rcx,%rdx,8)	# tmp753, ggc_pending_trees.130_238->data.tree
.L127:
.LBE31:
.LBB32:
	.loc 1 493 0 is_stmt 1
	movq	-400(%rbp), %rax	# t, tmp754
	movq	96(%rax), %rax	# t_10->decl.result, tmp755
	movq	%rax, -280(%rbp)	# tmp755, t__
	cmpq	$0, -280(%rbp)	#, t__
	je	.L129	#,
	.loc 1 493 0 is_stmt 0 discriminator 1
	movq	-280(%rbp), %rax	# t__, tmp756
	movq	%rax, %rdi	# tmp756,
	call	ggc_set_mark	#
	testl	%eax, %eax	# D.12878
	jne	.L129	#,
	movq	ggc_pending_trees(%rip), %rax	# ggc_pending_trees, ggc_pending_trees.132
	movq	8(%rax), %rdx	# ggc_pending_trees.132_245->elements_used, D.12875
	movq	ggc_pending_trees(%rip), %rax	# ggc_pending_trees, ggc_pending_trees.133
	movq	(%rax), %rax	# ggc_pending_trees.133_247->num_elements, D.12875
	cmpq	%rax, %rdx	# D.12875, D.12875
	jb	.L130	#,
	movq	ggc_pending_trees(%rip), %rax	# ggc_pending_trees, ggc_pending_trees.134
	movq	(%rax), %rax	# ggc_pending_trees.134_249->num_elements, D.12875
	leaq	(%rax,%rax), %rdx	#, D.12875
	movq	ggc_pending_trees(%rip), %rax	# ggc_pending_trees, ggc_pending_trees.135
	movq	%rdx, %rsi	# D.12875,
	movq	%rax, %rdi	# ggc_pending_trees.135,
	call	varray_grow	#
	movq	%rax, ggc_pending_trees(%rip)	# ggc_pending_trees.136, ggc_pending_trees
.L130:
	.loc 1 493 0 discriminator 2
	movq	ggc_pending_trees(%rip), %rcx	# ggc_pending_trees, ggc_pending_trees.137
	movq	ggc_pending_trees(%rip), %rax	# ggc_pending_trees, ggc_pending_trees.138
	movq	8(%rax), %rdx	# ggc_pending_trees.138_255->elements_used, D.12875
	leaq	1(%rdx), %rsi	#, D.12875
	movq	%rsi, 8(%rax)	# D.12875, ggc_pending_trees.138_255->elements_used
	addq	$4, %rdx	#, tmp757
	movq	-280(%rbp), %rax	# t__, tmp758
	movq	%rax, (%rcx,%rdx,8)	# tmp758, ggc_pending_trees.137_254->data.tree
.L129:
.LBE32:
.LBB33:
	.loc 1 494 0 is_stmt 1
	movq	-400(%rbp), %rax	# t, tmp759
	movq	104(%rax), %rax	# t_10->decl.initial, tmp760
	movq	%rax, -272(%rbp)	# tmp760, t__
	cmpq	$0, -272(%rbp)	#, t__
	je	.L131	#,
	.loc 1 494 0 is_stmt 0 discriminator 1
	movq	-272(%rbp), %rax	# t__, tmp761
	movq	%rax, %rdi	# tmp761,
	call	ggc_set_mark	#
	testl	%eax, %eax	# D.12878
	jne	.L131	#,
	movq	ggc_pending_trees(%rip), %rax	# ggc_pending_trees, ggc_pending_trees.139
	movq	8(%rax), %rdx	# ggc_pending_trees.139_261->elements_used, D.12875
	movq	ggc_pending_trees(%rip), %rax	# ggc_pending_trees, ggc_pending_trees.140
	movq	(%rax), %rax	# ggc_pending_trees.140_263->num_elements, D.12875
	cmpq	%rax, %rdx	# D.12875, D.12875
	jb	.L132	#,
	movq	ggc_pending_trees(%rip), %rax	# ggc_pending_trees, ggc_pending_trees.141
	movq	(%rax), %rax	# ggc_pending_trees.141_265->num_elements, D.12875
	leaq	(%rax,%rax), %rdx	#, D.12875
	movq	ggc_pending_trees(%rip), %rax	# ggc_pending_trees, ggc_pending_trees.142
	movq	%rdx, %rsi	# D.12875,
	movq	%rax, %rdi	# ggc_pending_trees.142,
	call	varray_grow	#
	movq	%rax, ggc_pending_trees(%rip)	# ggc_pending_trees.143, ggc_pending_trees
.L132:
	.loc 1 494 0 discriminator 2
	movq	ggc_pending_trees(%rip), %rcx	# ggc_pending_trees, ggc_pending_trees.144
	movq	ggc_pending_trees(%rip), %rax	# ggc_pending_trees, ggc_pending_trees.145
	movq	8(%rax), %rdx	# ggc_pending_trees.145_271->elements_used, D.12875
	leaq	1(%rdx), %rsi	#, D.12875
	movq	%rsi, 8(%rax)	# D.12875, ggc_pending_trees.145_271->elements_used
	addq	$4, %rdx	#, tmp762
	movq	-272(%rbp), %rax	# t__, tmp763
	movq	%rax, (%rcx,%rdx,8)	# tmp763, ggc_pending_trees.144_270->data.tree
.L131:
.LBE33:
.LBB34:
	.loc 1 495 0 is_stmt 1
	movq	-400(%rbp), %rax	# t, tmp764
	movq	112(%rax), %rax	# t_10->decl.abstract_origin, tmp765
	movq	%rax, -264(%rbp)	# tmp765, t__
	cmpq	$0, -264(%rbp)	#, t__
	je	.L133	#,
	.loc 1 495 0 is_stmt 0 discriminator 1
	movq	-264(%rbp), %rax	# t__, tmp766
	movq	%rax, %rdi	# tmp766,
	call	ggc_set_mark	#
	testl	%eax, %eax	# D.12878
	jne	.L133	#,
	movq	ggc_pending_trees(%rip), %rax	# ggc_pending_trees, ggc_pending_trees.146
	movq	8(%rax), %rdx	# ggc_pending_trees.146_277->elements_used, D.12875
	movq	ggc_pending_trees(%rip), %rax	# ggc_pending_trees, ggc_pending_trees.147
	movq	(%rax), %rax	# ggc_pending_trees.147_279->num_elements, D.12875
	cmpq	%rax, %rdx	# D.12875, D.12875
	jb	.L134	#,
	movq	ggc_pending_trees(%rip), %rax	# ggc_pending_trees, ggc_pending_trees.148
	movq	(%rax), %rax	# ggc_pending_trees.148_281->num_elements, D.12875
	leaq	(%rax,%rax), %rdx	#, D.12875
	movq	ggc_pending_trees(%rip), %rax	# ggc_pending_trees, ggc_pending_trees.149
	movq	%rdx, %rsi	# D.12875,
	movq	%rax, %rdi	# ggc_pending_trees.149,
	call	varray_grow	#
	movq	%rax, ggc_pending_trees(%rip)	# ggc_pending_trees.150, ggc_pending_trees
.L134:
	.loc 1 495 0 discriminator 2
	movq	ggc_pending_trees(%rip), %rcx	# ggc_pending_trees, ggc_pending_trees.151
	movq	ggc_pending_trees(%rip), %rax	# ggc_pending_trees, ggc_pending_trees.152
	movq	8(%rax), %rdx	# ggc_pending_trees.152_287->elements_used, D.12875
	leaq	1(%rdx), %rsi	#, D.12875
	movq	%rsi, 8(%rax)	# D.12875, ggc_pending_trees.152_287->elements_used
	addq	$4, %rdx	#, tmp767
	movq	-264(%rbp), %rax	# t__, tmp768
	movq	%rax, (%rcx,%rdx,8)	# tmp768, ggc_pending_trees.151_286->data.tree
.L133:
.LBE34:
.LBB35:
	.loc 1 496 0 is_stmt 1
	movq	-400(%rbp), %rax	# t, tmp769
	movq	128(%rax), %rax	# t_10->decl.section_name, tmp770
	movq	%rax, -256(%rbp)	# tmp770, t__
	cmpq	$0, -256(%rbp)	#, t__
	je	.L135	#,
	.loc 1 496 0 is_stmt 0 discriminator 1
	movq	-256(%rbp), %rax	# t__, tmp771
	movq	%rax, %rdi	# tmp771,
	call	ggc_set_mark	#
	testl	%eax, %eax	# D.12878
	jne	.L135	#,
	movq	ggc_pending_trees(%rip), %rax	# ggc_pending_trees, ggc_pending_trees.153
	movq	8(%rax), %rdx	# ggc_pending_trees.153_293->elements_used, D.12875
	movq	ggc_pending_trees(%rip), %rax	# ggc_pending_trees, ggc_pending_trees.154
	movq	(%rax), %rax	# ggc_pending_trees.154_295->num_elements, D.12875
	cmpq	%rax, %rdx	# D.12875, D.12875
	jb	.L136	#,
	movq	ggc_pending_trees(%rip), %rax	# ggc_pending_trees, ggc_pending_trees.155
	movq	(%rax), %rax	# ggc_pending_trees.155_297->num_elements, D.12875
	leaq	(%rax,%rax), %rdx	#, D.12875
	movq	ggc_pending_trees(%rip), %rax	# ggc_pending_trees, ggc_pending_trees.156
	movq	%rdx, %rsi	# D.12875,
	movq	%rax, %rdi	# ggc_pending_trees.156,
	call	varray_grow	#
	movq	%rax, ggc_pending_trees(%rip)	# ggc_pending_trees.157, ggc_pending_trees
.L136:
	.loc 1 496 0 discriminator 2
	movq	ggc_pending_trees(%rip), %rcx	# ggc_pending_trees, ggc_pending_trees.158
	movq	ggc_pending_trees(%rip), %rax	# ggc_pending_trees, ggc_pending_trees.159
	movq	8(%rax), %rdx	# ggc_pending_trees.159_303->elements_used, D.12875
	leaq	1(%rdx), %rsi	#, D.12875
	movq	%rsi, 8(%rax)	# D.12875, ggc_pending_trees.159_303->elements_used
	addq	$4, %rdx	#, tmp772
	movq	-256(%rbp), %rax	# t__, tmp773
	movq	%rax, (%rcx,%rdx,8)	# tmp773, ggc_pending_trees.158_302->data.tree
.L135:
.LBE35:
.LBB36:
	.loc 1 497 0 is_stmt 1
	movq	-400(%rbp), %rax	# t, tmp774
	movq	136(%rax), %rax	# t_10->decl.attributes, tmp775
	movq	%rax, -248(%rbp)	# tmp775, t__
	cmpq	$0, -248(%rbp)	#, t__
	je	.L137	#,
	.loc 1 497 0 is_stmt 0 discriminator 1
	movq	-248(%rbp), %rax	# t__, tmp776
	movq	%rax, %rdi	# tmp776,
	call	ggc_set_mark	#
	testl	%eax, %eax	# D.12878
	jne	.L137	#,
	movq	ggc_pending_trees(%rip), %rax	# ggc_pending_trees, ggc_pending_trees.160
	movq	8(%rax), %rdx	# ggc_pending_trees.160_309->elements_used, D.12875
	movq	ggc_pending_trees(%rip), %rax	# ggc_pending_trees, ggc_pending_trees.161
	movq	(%rax), %rax	# ggc_pending_trees.161_311->num_elements, D.12875
	cmpq	%rax, %rdx	# D.12875, D.12875
	jb	.L138	#,
	movq	ggc_pending_trees(%rip), %rax	# ggc_pending_trees, ggc_pending_trees.162
	movq	(%rax), %rax	# ggc_pending_trees.162_313->num_elements, D.12875
	leaq	(%rax,%rax), %rdx	#, D.12875
	movq	ggc_pending_trees(%rip), %rax	# ggc_pending_trees, ggc_pending_trees.163
	movq	%rdx, %rsi	# D.12875,
	movq	%rax, %rdi	# ggc_pending_trees.163,
	call	varray_grow	#
	movq	%rax, ggc_pending_trees(%rip)	# ggc_pending_trees.164, ggc_pending_trees
.L138:
	.loc 1 497 0 discriminator 2
	movq	ggc_pending_trees(%rip), %rcx	# ggc_pending_trees, ggc_pending_trees.165
	movq	ggc_pending_trees(%rip), %rax	# ggc_pending_trees, ggc_pending_trees.166
	movq	8(%rax), %rdx	# ggc_pending_trees.166_319->elements_used, D.12875
	leaq	1(%rdx), %rsi	#, D.12875
	movq	%rsi, 8(%rax)	# D.12875, ggc_pending_trees.166_319->elements_used
	addq	$4, %rdx	#, tmp777
	movq	-248(%rbp), %rax	# t__, tmp778
	movq	%rax, (%rcx,%rdx,8)	# tmp778, ggc_pending_trees.165_318->data.tree
.L137:
.LBE36:
	.loc 1 498 0 is_stmt 1
	movq	-400(%rbp), %rax	# t, tmp779
	movq	144(%rax), %rax	# t_10->decl.rtl, D.12880
	testq	%rax, %rax	# D.12880
	je	.L139	#,
.LBB37:
	.loc 1 499 0
	movq	-400(%rbp), %rax	# t, tmp780
	movq	144(%rax), %rax	# t_10->decl.rtl, D.12880
	testq	%rax, %rax	# D.12880
	je	.L140	#,
	.loc 1 499 0 is_stmt 0 discriminator 1
	movq	-400(%rbp), %rax	# t, tmp781
	movq	144(%rax), %rax	# t_10->decl.rtl, iftmp.167
	jmp	.L141	#
.L140:
	.loc 1 499 0 discriminator 2
	movq	-400(%rbp), %rax	# t, tmp782
	movl	$0, %esi	#,
	movq	%rax, %rdi	# tmp782,
	call	make_decl_rtl	#
	movq	-400(%rbp), %rax	# t, tmp783
	movq	144(%rax), %rax	# t_10->decl.rtl, iftmp.167
.L141:
	.loc 1 499 0 discriminator 3
	movq	%rax, -240(%rbp)	# iftmp.167, r__
	cmpq	$0, -240(%rbp)	#, r__
	je	.L139	#,
	.loc 1 499 0 discriminator 1
	movq	-240(%rbp), %rax	# r__, tmp784
	movq	%rax, %rdi	# tmp784,
	call	ggc_set_mark	#
	testl	%eax, %eax	# D.12878
	jne	.L139	#,
	movq	-240(%rbp), %rax	# r__, tmp785
	movq	%rax, %rdi	# tmp785,
	call	ggc_mark_rtx_children	#
.L139:
.LBE37:
.LBB38:
	.loc 1 500 0 is_stmt 1
	movq	-400(%rbp), %rax	# t, tmp786
	movq	152(%rax), %rax	# t_10->decl.live_range_rtl, tmp787
	movq	%rax, -232(%rbp)	# tmp787, r__
	cmpq	$0, -232(%rbp)	#, r__
	je	.L142	#,
	.loc 1 500 0 is_stmt 0 discriminator 1
	movq	-232(%rbp), %rax	# r__, tmp788
	movq	%rax, %rdi	# tmp788,
	call	ggc_set_mark	#
	testl	%eax, %eax	# D.12878
	jne	.L142	#,
	movq	-232(%rbp), %rax	# r__, tmp789
	movq	%rax, %rdi	# tmp789,
	call	ggc_mark_rtx_children	#
.L142:
.LBE38:
.LBB39:
	.loc 1 501 0 is_stmt 1
	movq	-400(%rbp), %rax	# t, tmp790
	movq	184(%rax), %rax	# t_10->decl.vindex, tmp791
	movq	%rax, -224(%rbp)	# tmp791, t__
	cmpq	$0, -224(%rbp)	#, t__
	je	.L143	#,
	.loc 1 501 0 is_stmt 0 discriminator 1
	movq	-224(%rbp), %rax	# t__, tmp792
	movq	%rax, %rdi	# tmp792,
	call	ggc_set_mark	#
	testl	%eax, %eax	# D.12878
	jne	.L143	#,
	movq	ggc_pending_trees(%rip), %rax	# ggc_pending_trees, ggc_pending_trees.168
	movq	8(%rax), %rdx	# ggc_pending_trees.168_333->elements_used, D.12875
	movq	ggc_pending_trees(%rip), %rax	# ggc_pending_trees, ggc_pending_trees.169
	movq	(%rax), %rax	# ggc_pending_trees.169_335->num_elements, D.12875
	cmpq	%rax, %rdx	# D.12875, D.12875
	jb	.L144	#,
	movq	ggc_pending_trees(%rip), %rax	# ggc_pending_trees, ggc_pending_trees.170
	movq	(%rax), %rax	# ggc_pending_trees.170_337->num_elements, D.12875
	leaq	(%rax,%rax), %rdx	#, D.12875
	movq	ggc_pending_trees(%rip), %rax	# ggc_pending_trees, ggc_pending_trees.171
	movq	%rdx, %rsi	# D.12875,
	movq	%rax, %rdi	# ggc_pending_trees.171,
	call	varray_grow	#
	movq	%rax, ggc_pending_trees(%rip)	# ggc_pending_trees.172, ggc_pending_trees
.L144:
	.loc 1 501 0 discriminator 2
	movq	ggc_pending_trees(%rip), %rcx	# ggc_pending_trees, ggc_pending_trees.173
	movq	ggc_pending_trees(%rip), %rax	# ggc_pending_trees, ggc_pending_trees.174
	movq	8(%rax), %rdx	# ggc_pending_trees.174_343->elements_used, D.12875
	leaq	1(%rdx), %rsi	#, D.12875
	movq	%rsi, 8(%rax)	# D.12875, ggc_pending_trees.174_343->elements_used
	addq	$4, %rdx	#, tmp793
	movq	-224(%rbp), %rax	# t__, tmp794
	movq	%rax, (%rcx,%rdx,8)	# tmp794, ggc_pending_trees.173_342->data.tree
.L143:
.LBE39:
	.loc 1 502 0 is_stmt 1
	movq	-400(%rbp), %rax	# t, tmp795
	movq	120(%rax), %rax	# t_10->decl.assembler_name, D.12881
	testq	%rax, %rax	# D.12881
	je	.L145	#,
.LBB40:
	.loc 1 503 0
	movq	-400(%rbp), %rax	# t, tmp796
	movq	120(%rax), %rax	# t_10->decl.assembler_name, D.12881
	testq	%rax, %rax	# D.12881
	jne	.L146	#,
	.loc 1 503 0 is_stmt 0 discriminator 1
	movq	lang_set_decl_assembler_name(%rip), %rax	# lang_set_decl_assembler_name, lang_set_decl_assembler_name.175
	movq	-400(%rbp), %rdx	# t, tmp797
	movq	%rdx, %rdi	# tmp797,
	call	*%rax	# lang_set_decl_assembler_name.175
.L146:
	.loc 1 503 0 discriminator 2
	movq	-400(%rbp), %rax	# t, tmp798
	movq	120(%rax), %rax	# t_10->decl.assembler_name, tmp799
	movq	%rax, -216(%rbp)	# tmp799, t__
	cmpq	$0, -216(%rbp)	#, t__
	je	.L145	#,
	.loc 1 503 0 discriminator 1
	movq	-216(%rbp), %rax	# t__, tmp800
	movq	%rax, %rdi	# tmp800,
	call	ggc_set_mark	#
	testl	%eax, %eax	# D.12878
	jne	.L145	#,
	movq	ggc_pending_trees(%rip), %rax	# ggc_pending_trees, ggc_pending_trees.176
	movq	8(%rax), %rdx	# ggc_pending_trees.176_352->elements_used, D.12875
	movq	ggc_pending_trees(%rip), %rax	# ggc_pending_trees, ggc_pending_trees.177
	movq	(%rax), %rax	# ggc_pending_trees.177_354->num_elements, D.12875
	cmpq	%rax, %rdx	# D.12875, D.12875
	jb	.L147	#,
	movq	ggc_pending_trees(%rip), %rax	# ggc_pending_trees, ggc_pending_trees.178
	movq	(%rax), %rax	# ggc_pending_trees.178_356->num_elements, D.12875
	leaq	(%rax,%rax), %rdx	#, D.12875
	movq	ggc_pending_trees(%rip), %rax	# ggc_pending_trees, ggc_pending_trees.179
	movq	%rdx, %rsi	# D.12875,
	movq	%rax, %rdi	# ggc_pending_trees.179,
	call	varray_grow	#
	movq	%rax, ggc_pending_trees(%rip)	# ggc_pending_trees.180, ggc_pending_trees
.L147:
	.loc 1 503 0 discriminator 2
	movq	ggc_pending_trees(%rip), %rcx	# ggc_pending_trees, ggc_pending_trees.181
	movq	ggc_pending_trees(%rip), %rax	# ggc_pending_trees, ggc_pending_trees.182
	movq	8(%rax), %rdx	# ggc_pending_trees.182_362->elements_used, D.12875
	leaq	1(%rdx), %rsi	#, D.12875
	movq	%rsi, 8(%rax)	# D.12875, ggc_pending_trees.182_362->elements_used
	addq	$4, %rdx	#, tmp801
	movq	-216(%rbp), %rax	# t__, tmp802
	movq	%rax, (%rcx,%rdx,8)	# tmp802, ggc_pending_trees.181_361->data.tree
.L145:
.LBE40:
	.loc 1 504 0 is_stmt 1
	movq	-400(%rbp), %rax	# t, tmp803
	movzbl	16(%rax), %eax	# t_10->common.code, D.12876
	cmpb	$30, %al	#, D.12876
	jne	.L148	#,
.LBB41:
	.loc 1 506 0
	movq	-400(%rbp), %rax	# t, tmp804
	movq	168(%rax), %rax	# t_10->decl.saved_tree, tmp805
	movq	%rax, -208(%rbp)	# tmp805, t__
	cmpq	$0, -208(%rbp)	#, t__
	je	.L149	#,
	.loc 1 506 0 is_stmt 0 discriminator 1
	movq	-208(%rbp), %rax	# t__, tmp806
	movq	%rax, %rdi	# tmp806,
	call	ggc_set_mark	#
	testl	%eax, %eax	# D.12878
	jne	.L149	#,
	movq	ggc_pending_trees(%rip), %rax	# ggc_pending_trees, ggc_pending_trees.183
	movq	8(%rax), %rdx	# ggc_pending_trees.183_369->elements_used, D.12875
	movq	ggc_pending_trees(%rip), %rax	# ggc_pending_trees, ggc_pending_trees.184
	movq	(%rax), %rax	# ggc_pending_trees.184_371->num_elements, D.12875
	cmpq	%rax, %rdx	# D.12875, D.12875
	jb	.L150	#,
	movq	ggc_pending_trees(%rip), %rax	# ggc_pending_trees, ggc_pending_trees.185
	movq	(%rax), %rax	# ggc_pending_trees.185_373->num_elements, D.12875
	leaq	(%rax,%rax), %rdx	#, D.12875
	movq	ggc_pending_trees(%rip), %rax	# ggc_pending_trees, ggc_pending_trees.186
	movq	%rdx, %rsi	# D.12875,
	movq	%rax, %rdi	# ggc_pending_trees.186,
	call	varray_grow	#
	movq	%rax, ggc_pending_trees(%rip)	# ggc_pending_trees.187, ggc_pending_trees
.L150:
	.loc 1 506 0 discriminator 2
	movq	ggc_pending_trees(%rip), %rcx	# ggc_pending_trees, ggc_pending_trees.188
	movq	ggc_pending_trees(%rip), %rax	# ggc_pending_trees, ggc_pending_trees.189
	movq	8(%rax), %rdx	# ggc_pending_trees.189_379->elements_used, D.12875
	leaq	1(%rdx), %rsi	#, D.12875
	movq	%rsi, 8(%rax)	# D.12875, ggc_pending_trees.189_379->elements_used
	addq	$4, %rdx	#, tmp807
	movq	-208(%rbp), %rax	# t__, tmp808
	movq	%rax, (%rcx,%rdx,8)	# tmp808, ggc_pending_trees.188_378->data.tree
.L149:
.LBE41:
.LBB42:
	.loc 1 507 0 is_stmt 1
	movq	-400(%rbp), %rax	# t, tmp809
	movq	176(%rax), %rax	# t_10->decl.inlined_fns, tmp810
	movq	%rax, -200(%rbp)	# tmp810, t__
	cmpq	$0, -200(%rbp)	#, t__
	je	.L151	#,
	.loc 1 507 0 is_stmt 0 discriminator 1
	movq	-200(%rbp), %rax	# t__, tmp811
	movq	%rax, %rdi	# tmp811,
	call	ggc_set_mark	#
	testl	%eax, %eax	# D.12878
	jne	.L151	#,
	movq	ggc_pending_trees(%rip), %rax	# ggc_pending_trees, ggc_pending_trees.190
	movq	8(%rax), %rdx	# ggc_pending_trees.190_385->elements_used, D.12875
	movq	ggc_pending_trees(%rip), %rax	# ggc_pending_trees, ggc_pending_trees.191
	movq	(%rax), %rax	# ggc_pending_trees.191_387->num_elements, D.12875
	cmpq	%rax, %rdx	# D.12875, D.12875
	jb	.L152	#,
	movq	ggc_pending_trees(%rip), %rax	# ggc_pending_trees, ggc_pending_trees.192
	movq	(%rax), %rax	# ggc_pending_trees.192_389->num_elements, D.12875
	leaq	(%rax,%rax), %rdx	#, D.12875
	movq	ggc_pending_trees(%rip), %rax	# ggc_pending_trees, ggc_pending_trees.193
	movq	%rdx, %rsi	# D.12875,
	movq	%rax, %rdi	# ggc_pending_trees.193,
	call	varray_grow	#
	movq	%rax, ggc_pending_trees(%rip)	# ggc_pending_trees.194, ggc_pending_trees
.L152:
	.loc 1 507 0 discriminator 2
	movq	ggc_pending_trees(%rip), %rcx	# ggc_pending_trees, ggc_pending_trees.195
	movq	ggc_pending_trees(%rip), %rax	# ggc_pending_trees, ggc_pending_trees.196
	movq	8(%rax), %rdx	# ggc_pending_trees.196_395->elements_used, D.12875
	leaq	1(%rdx), %rsi	#, D.12875
	movq	%rsi, 8(%rax)	# D.12875, ggc_pending_trees.196_395->elements_used
	addq	$4, %rdx	#, tmp812
	movq	-200(%rbp), %rax	# t__, tmp813
	movq	%rax, (%rcx,%rdx,8)	# tmp813, ggc_pending_trees.195_394->data.tree
.L151:
.LBE42:
	.loc 1 508 0 is_stmt 1
	movq	-400(%rbp), %rax	# t, tmp814
	movq	160(%rax), %rax	# t_10->decl.u2.f, D.12882
	testq	%rax, %rax	# D.12882
	je	.L148	#,
	.loc 1 509 0
	movq	-400(%rbp), %rax	# t, tmp815
	movq	160(%rax), %rax	# t_10->decl.u2.f, D.12882
	movq	%rax, %rdi	# D.12882,
	call	ggc_mark_struct_function	#
.L148:
	.loc 1 511 0
	movq	-400(%rbp), %rax	# t, tmp816
	movq	%rax, %rdi	# tmp816,
	call	lang_mark_tree	#
	.loc 1 512 0
	jmp	.L83	#
.L117:
.LBB43:
	.loc 1 515 0
	movq	-400(%rbp), %rax	# t, tmp817
	movq	32(%rax), %rax	# t_10->type.size, tmp818
	movq	%rax, -192(%rbp)	# tmp818, t__
	cmpq	$0, -192(%rbp)	#, t__
	je	.L153	#,
	.loc 1 515 0 is_stmt 0 discriminator 1
	movq	-192(%rbp), %rax	# t__, tmp819
	movq	%rax, %rdi	# tmp819,
	call	ggc_set_mark	#
	testl	%eax, %eax	# D.12878
	jne	.L153	#,
	movq	ggc_pending_trees(%rip), %rax	# ggc_pending_trees, ggc_pending_trees.197
	movq	8(%rax), %rdx	# ggc_pending_trees.197_403->elements_used, D.12875
	movq	ggc_pending_trees(%rip), %rax	# ggc_pending_trees, ggc_pending_trees.198
	movq	(%rax), %rax	# ggc_pending_trees.198_405->num_elements, D.12875
	cmpq	%rax, %rdx	# D.12875, D.12875
	jb	.L154	#,
	movq	ggc_pending_trees(%rip), %rax	# ggc_pending_trees, ggc_pending_trees.199
	movq	(%rax), %rax	# ggc_pending_trees.199_407->num_elements, D.12875
	leaq	(%rax,%rax), %rdx	#, D.12875
	movq	ggc_pending_trees(%rip), %rax	# ggc_pending_trees, ggc_pending_trees.200
	movq	%rdx, %rsi	# D.12875,
	movq	%rax, %rdi	# ggc_pending_trees.200,
	call	varray_grow	#
	movq	%rax, ggc_pending_trees(%rip)	# ggc_pending_trees.201, ggc_pending_trees
.L154:
	.loc 1 515 0 discriminator 2
	movq	ggc_pending_trees(%rip), %rcx	# ggc_pending_trees, ggc_pending_trees.202
	movq	ggc_pending_trees(%rip), %rax	# ggc_pending_trees, ggc_pending_trees.203
	movq	8(%rax), %rdx	# ggc_pending_trees.203_413->elements_used, D.12875
	leaq	1(%rdx), %rsi	#, D.12875
	movq	%rsi, 8(%rax)	# D.12875, ggc_pending_trees.203_413->elements_used
	addq	$4, %rdx	#, tmp820
	movq	-192(%rbp), %rax	# t__, tmp821
	movq	%rax, (%rcx,%rdx,8)	# tmp821, ggc_pending_trees.202_412->data.tree
.L153:
.LBE43:
.LBB44:
	.loc 1 516 0 is_stmt 1
	movq	-400(%rbp), %rax	# t, tmp822
	movq	40(%rax), %rax	# t_10->type.size_unit, tmp823
	movq	%rax, -184(%rbp)	# tmp823, t__
	cmpq	$0, -184(%rbp)	#, t__
	je	.L155	#,
	.loc 1 516 0 is_stmt 0 discriminator 1
	movq	-184(%rbp), %rax	# t__, tmp824
	movq	%rax, %rdi	# tmp824,
	call	ggc_set_mark	#
	testl	%eax, %eax	# D.12878
	jne	.L155	#,
	movq	ggc_pending_trees(%rip), %rax	# ggc_pending_trees, ggc_pending_trees.204
	movq	8(%rax), %rdx	# ggc_pending_trees.204_419->elements_used, D.12875
	movq	ggc_pending_trees(%rip), %rax	# ggc_pending_trees, ggc_pending_trees.205
	movq	(%rax), %rax	# ggc_pending_trees.205_421->num_elements, D.12875
	cmpq	%rax, %rdx	# D.12875, D.12875
	jb	.L156	#,
	movq	ggc_pending_trees(%rip), %rax	# ggc_pending_trees, ggc_pending_trees.206
	movq	(%rax), %rax	# ggc_pending_trees.206_423->num_elements, D.12875
	leaq	(%rax,%rax), %rdx	#, D.12875
	movq	ggc_pending_trees(%rip), %rax	# ggc_pending_trees, ggc_pending_trees.207
	movq	%rdx, %rsi	# D.12875,
	movq	%rax, %rdi	# ggc_pending_trees.207,
	call	varray_grow	#
	movq	%rax, ggc_pending_trees(%rip)	# ggc_pending_trees.208, ggc_pending_trees
.L156:
	.loc 1 516 0 discriminator 2
	movq	ggc_pending_trees(%rip), %rcx	# ggc_pending_trees, ggc_pending_trees.209
	movq	ggc_pending_trees(%rip), %rax	# ggc_pending_trees, ggc_pending_trees.210
	movq	8(%rax), %rdx	# ggc_pending_trees.210_429->elements_used, D.12875
	leaq	1(%rdx), %rsi	#, D.12875
	movq	%rsi, 8(%rax)	# D.12875, ggc_pending_trees.210_429->elements_used
	addq	$4, %rdx	#, tmp825
	movq	-184(%rbp), %rax	# t__, tmp826
	movq	%rax, (%rcx,%rdx,8)	# tmp826, ggc_pending_trees.209_428->data.tree
.L155:
.LBE44:
.LBB45:
	.loc 1 517 0 is_stmt 1
	movq	-400(%rbp), %rax	# t, tmp827
	movq	48(%rax), %rax	# t_10->type.attributes, tmp828
	movq	%rax, -176(%rbp)	# tmp828, t__
	cmpq	$0, -176(%rbp)	#, t__
	je	.L157	#,
	.loc 1 517 0 is_stmt 0 discriminator 1
	movq	-176(%rbp), %rax	# t__, tmp829
	movq	%rax, %rdi	# tmp829,
	call	ggc_set_mark	#
	testl	%eax, %eax	# D.12878
	jne	.L157	#,
	movq	ggc_pending_trees(%rip), %rax	# ggc_pending_trees, ggc_pending_trees.211
	movq	8(%rax), %rdx	# ggc_pending_trees.211_435->elements_used, D.12875
	movq	ggc_pending_trees(%rip), %rax	# ggc_pending_trees, ggc_pending_trees.212
	movq	(%rax), %rax	# ggc_pending_trees.212_437->num_elements, D.12875
	cmpq	%rax, %rdx	# D.12875, D.12875
	jb	.L158	#,
	movq	ggc_pending_trees(%rip), %rax	# ggc_pending_trees, ggc_pending_trees.213
	movq	(%rax), %rax	# ggc_pending_trees.213_439->num_elements, D.12875
	leaq	(%rax,%rax), %rdx	#, D.12875
	movq	ggc_pending_trees(%rip), %rax	# ggc_pending_trees, ggc_pending_trees.214
	movq	%rdx, %rsi	# D.12875,
	movq	%rax, %rdi	# ggc_pending_trees.214,
	call	varray_grow	#
	movq	%rax, ggc_pending_trees(%rip)	# ggc_pending_trees.215, ggc_pending_trees
.L158:
	.loc 1 517 0 discriminator 2
	movq	ggc_pending_trees(%rip), %rcx	# ggc_pending_trees, ggc_pending_trees.216
	movq	ggc_pending_trees(%rip), %rax	# ggc_pending_trees, ggc_pending_trees.217
	movq	8(%rax), %rdx	# ggc_pending_trees.217_445->elements_used, D.12875
	leaq	1(%rdx), %rsi	#, D.12875
	movq	%rsi, 8(%rax)	# D.12875, ggc_pending_trees.217_445->elements_used
	addq	$4, %rdx	#, tmp830
	movq	-176(%rbp), %rax	# t__, tmp831
	movq	%rax, (%rcx,%rdx,8)	# tmp831, ggc_pending_trees.216_444->data.tree
.L157:
.LBE45:
.LBB46:
	.loc 1 518 0 is_stmt 1
	movq	-400(%rbp), %rax	# t, tmp832
	movq	24(%rax), %rax	# t_10->type.values, tmp833
	movq	%rax, -168(%rbp)	# tmp833, t__
	cmpq	$0, -168(%rbp)	#, t__
	je	.L159	#,
	.loc 1 518 0 is_stmt 0 discriminator 1
	movq	-168(%rbp), %rax	# t__, tmp834
	movq	%rax, %rdi	# tmp834,
	call	ggc_set_mark	#
	testl	%eax, %eax	# D.12878
	jne	.L159	#,
	movq	ggc_pending_trees(%rip), %rax	# ggc_pending_trees, ggc_pending_trees.218
	movq	8(%rax), %rdx	# ggc_pending_trees.218_451->elements_used, D.12875
	movq	ggc_pending_trees(%rip), %rax	# ggc_pending_trees, ggc_pending_trees.219
	movq	(%rax), %rax	# ggc_pending_trees.219_453->num_elements, D.12875
	cmpq	%rax, %rdx	# D.12875, D.12875
	jb	.L160	#,
	movq	ggc_pending_trees(%rip), %rax	# ggc_pending_trees, ggc_pending_trees.220
	movq	(%rax), %rax	# ggc_pending_trees.220_455->num_elements, D.12875
	leaq	(%rax,%rax), %rdx	#, D.12875
	movq	ggc_pending_trees(%rip), %rax	# ggc_pending_trees, ggc_pending_trees.221
	movq	%rdx, %rsi	# D.12875,
	movq	%rax, %rdi	# ggc_pending_trees.221,
	call	varray_grow	#
	movq	%rax, ggc_pending_trees(%rip)	# ggc_pending_trees.222, ggc_pending_trees
.L160:
	.loc 1 518 0 discriminator 2
	movq	ggc_pending_trees(%rip), %rcx	# ggc_pending_trees, ggc_pending_trees.223
	movq	ggc_pending_trees(%rip), %rax	# ggc_pending_trees, ggc_pending_trees.224
	movq	8(%rax), %rdx	# ggc_pending_trees.224_461->elements_used, D.12875
	leaq	1(%rdx), %rsi	#, D.12875
	movq	%rsi, 8(%rax)	# D.12875, ggc_pending_trees.224_461->elements_used
	addq	$4, %rdx	#, tmp835
	movq	-168(%rbp), %rax	# t__, tmp836
	movq	%rax, (%rcx,%rdx,8)	# tmp836, ggc_pending_trees.223_460->data.tree
.L159:
.LBE46:
.LBB47:
	.loc 1 519 0 is_stmt 1
	movq	-400(%rbp), %rax	# t, tmp837
	movq	72(%rax), %rax	# t_10->type.pointer_to, tmp838
	movq	%rax, -160(%rbp)	# tmp838, t__
	cmpq	$0, -160(%rbp)	#, t__
	je	.L161	#,
	.loc 1 519 0 is_stmt 0 discriminator 1
	movq	-160(%rbp), %rax	# t__, tmp839
	movq	%rax, %rdi	# tmp839,
	call	ggc_set_mark	#
	testl	%eax, %eax	# D.12878
	jne	.L161	#,
	movq	ggc_pending_trees(%rip), %rax	# ggc_pending_trees, ggc_pending_trees.225
	movq	8(%rax), %rdx	# ggc_pending_trees.225_467->elements_used, D.12875
	movq	ggc_pending_trees(%rip), %rax	# ggc_pending_trees, ggc_pending_trees.226
	movq	(%rax), %rax	# ggc_pending_trees.226_469->num_elements, D.12875
	cmpq	%rax, %rdx	# D.12875, D.12875
	jb	.L162	#,
	movq	ggc_pending_trees(%rip), %rax	# ggc_pending_trees, ggc_pending_trees.227
	movq	(%rax), %rax	# ggc_pending_trees.227_471->num_elements, D.12875
	leaq	(%rax,%rax), %rdx	#, D.12875
	movq	ggc_pending_trees(%rip), %rax	# ggc_pending_trees, ggc_pending_trees.228
	movq	%rdx, %rsi	# D.12875,
	movq	%rax, %rdi	# ggc_pending_trees.228,
	call	varray_grow	#
	movq	%rax, ggc_pending_trees(%rip)	# ggc_pending_trees.229, ggc_pending_trees
.L162:
	.loc 1 519 0 discriminator 2
	movq	ggc_pending_trees(%rip), %rcx	# ggc_pending_trees, ggc_pending_trees.230
	movq	ggc_pending_trees(%rip), %rax	# ggc_pending_trees, ggc_pending_trees.231
	movq	8(%rax), %rdx	# ggc_pending_trees.231_477->elements_used, D.12875
	leaq	1(%rdx), %rsi	#, D.12875
	movq	%rsi, 8(%rax)	# D.12875, ggc_pending_trees.231_477->elements_used
	addq	$4, %rdx	#, tmp840
	movq	-160(%rbp), %rax	# t__, tmp841
	movq	%rax, (%rcx,%rdx,8)	# tmp841, ggc_pending_trees.230_476->data.tree
.L161:
.LBE47:
.LBB48:
	.loc 1 520 0 is_stmt 1
	movq	-400(%rbp), %rax	# t, tmp842
	movq	80(%rax), %rax	# t_10->type.reference_to, tmp843
	movq	%rax, -152(%rbp)	# tmp843, t__
	cmpq	$0, -152(%rbp)	#, t__
	je	.L163	#,
	.loc 1 520 0 is_stmt 0 discriminator 1
	movq	-152(%rbp), %rax	# t__, tmp844
	movq	%rax, %rdi	# tmp844,
	call	ggc_set_mark	#
	testl	%eax, %eax	# D.12878
	jne	.L163	#,
	movq	ggc_pending_trees(%rip), %rax	# ggc_pending_trees, ggc_pending_trees.232
	movq	8(%rax), %rdx	# ggc_pending_trees.232_483->elements_used, D.12875
	movq	ggc_pending_trees(%rip), %rax	# ggc_pending_trees, ggc_pending_trees.233
	movq	(%rax), %rax	# ggc_pending_trees.233_485->num_elements, D.12875
	cmpq	%rax, %rdx	# D.12875, D.12875
	jb	.L164	#,
	movq	ggc_pending_trees(%rip), %rax	# ggc_pending_trees, ggc_pending_trees.234
	movq	(%rax), %rax	# ggc_pending_trees.234_487->num_elements, D.12875
	leaq	(%rax,%rax), %rdx	#, D.12875
	movq	ggc_pending_trees(%rip), %rax	# ggc_pending_trees, ggc_pending_trees.235
	movq	%rdx, %rsi	# D.12875,
	movq	%rax, %rdi	# ggc_pending_trees.235,
	call	varray_grow	#
	movq	%rax, ggc_pending_trees(%rip)	# ggc_pending_trees.236, ggc_pending_trees
.L164:
	.loc 1 520 0 discriminator 2
	movq	ggc_pending_trees(%rip), %rcx	# ggc_pending_trees, ggc_pending_trees.237
	movq	ggc_pending_trees(%rip), %rax	# ggc_pending_trees, ggc_pending_trees.238
	movq	8(%rax), %rdx	# ggc_pending_trees.238_493->elements_used, D.12875
	leaq	1(%rdx), %rsi	#, D.12875
	movq	%rsi, 8(%rax)	# D.12875, ggc_pending_trees.238_493->elements_used
	addq	$4, %rdx	#, tmp845
	movq	-152(%rbp), %rax	# t__, tmp846
	movq	%rax, (%rcx,%rdx,8)	# tmp846, ggc_pending_trees.237_492->data.tree
.L163:
.LBE48:
.LBB49:
	.loc 1 521 0 is_stmt 1
	movq	-400(%rbp), %rax	# t, tmp847
	movq	96(%rax), %rax	# t_10->type.name, tmp848
	movq	%rax, -144(%rbp)	# tmp848, t__
	cmpq	$0, -144(%rbp)	#, t__
	je	.L165	#,
	.loc 1 521 0 is_stmt 0 discriminator 1
	movq	-144(%rbp), %rax	# t__, tmp849
	movq	%rax, %rdi	# tmp849,
	call	ggc_set_mark	#
	testl	%eax, %eax	# D.12878
	jne	.L165	#,
	movq	ggc_pending_trees(%rip), %rax	# ggc_pending_trees, ggc_pending_trees.239
	movq	8(%rax), %rdx	# ggc_pending_trees.239_499->elements_used, D.12875
	movq	ggc_pending_trees(%rip), %rax	# ggc_pending_trees, ggc_pending_trees.240
	movq	(%rax), %rax	# ggc_pending_trees.240_501->num_elements, D.12875
	cmpq	%rax, %rdx	# D.12875, D.12875
	jb	.L166	#,
	movq	ggc_pending_trees(%rip), %rax	# ggc_pending_trees, ggc_pending_trees.241
	movq	(%rax), %rax	# ggc_pending_trees.241_503->num_elements, D.12875
	leaq	(%rax,%rax), %rdx	#, D.12875
	movq	ggc_pending_trees(%rip), %rax	# ggc_pending_trees, ggc_pending_trees.242
	movq	%rdx, %rsi	# D.12875,
	movq	%rax, %rdi	# ggc_pending_trees.242,
	call	varray_grow	#
	movq	%rax, ggc_pending_trees(%rip)	# ggc_pending_trees.243, ggc_pending_trees
.L166:
	.loc 1 521 0 discriminator 2
	movq	ggc_pending_trees(%rip), %rcx	# ggc_pending_trees, ggc_pending_trees.244
	movq	ggc_pending_trees(%rip), %rax	# ggc_pending_trees, ggc_pending_trees.245
	movq	8(%rax), %rdx	# ggc_pending_trees.245_509->elements_used, D.12875
	leaq	1(%rdx), %rsi	#, D.12875
	movq	%rsi, 8(%rax)	# D.12875, ggc_pending_trees.245_509->elements_used
	addq	$4, %rdx	#, tmp850
	movq	-144(%rbp), %rax	# t__, tmp851
	movq	%rax, (%rcx,%rdx,8)	# tmp851, ggc_pending_trees.244_508->data.tree
.L165:
.LBE49:
.LBB50:
	.loc 1 522 0 is_stmt 1
	movq	-400(%rbp), %rax	# t, tmp852
	movq	104(%rax), %rax	# t_10->type.minval, tmp853
	movq	%rax, -136(%rbp)	# tmp853, t__
	cmpq	$0, -136(%rbp)	#, t__
	je	.L167	#,
	.loc 1 522 0 is_stmt 0 discriminator 1
	movq	-136(%rbp), %rax	# t__, tmp854
	movq	%rax, %rdi	# tmp854,
	call	ggc_set_mark	#
	testl	%eax, %eax	# D.12878
	jne	.L167	#,
	movq	ggc_pending_trees(%rip), %rax	# ggc_pending_trees, ggc_pending_trees.246
	movq	8(%rax), %rdx	# ggc_pending_trees.246_515->elements_used, D.12875
	movq	ggc_pending_trees(%rip), %rax	# ggc_pending_trees, ggc_pending_trees.247
	movq	(%rax), %rax	# ggc_pending_trees.247_517->num_elements, D.12875
	cmpq	%rax, %rdx	# D.12875, D.12875
	jb	.L168	#,
	movq	ggc_pending_trees(%rip), %rax	# ggc_pending_trees, ggc_pending_trees.248
	movq	(%rax), %rax	# ggc_pending_trees.248_519->num_elements, D.12875
	leaq	(%rax,%rax), %rdx	#, D.12875
	movq	ggc_pending_trees(%rip), %rax	# ggc_pending_trees, ggc_pending_trees.249
	movq	%rdx, %rsi	# D.12875,
	movq	%rax, %rdi	# ggc_pending_trees.249,
	call	varray_grow	#
	movq	%rax, ggc_pending_trees(%rip)	# ggc_pending_trees.250, ggc_pending_trees
.L168:
	.loc 1 522 0 discriminator 2
	movq	ggc_pending_trees(%rip), %rcx	# ggc_pending_trees, ggc_pending_trees.251
	movq	ggc_pending_trees(%rip), %rax	# ggc_pending_trees, ggc_pending_trees.252
	movq	8(%rax), %rdx	# ggc_pending_trees.252_525->elements_used, D.12875
	leaq	1(%rdx), %rsi	#, D.12875
	movq	%rsi, 8(%rax)	# D.12875, ggc_pending_trees.252_525->elements_used
	addq	$4, %rdx	#, tmp855
	movq	-136(%rbp), %rax	# t__, tmp856
	movq	%rax, (%rcx,%rdx,8)	# tmp856, ggc_pending_trees.251_524->data.tree
.L167:
.LBE50:
.LBB51:
	.loc 1 523 0 is_stmt 1
	movq	-400(%rbp), %rax	# t, tmp857
	movq	112(%rax), %rax	# t_10->type.maxval, tmp858
	movq	%rax, -128(%rbp)	# tmp858, t__
	cmpq	$0, -128(%rbp)	#, t__
	je	.L169	#,
	.loc 1 523 0 is_stmt 0 discriminator 1
	movq	-128(%rbp), %rax	# t__, tmp859
	movq	%rax, %rdi	# tmp859,
	call	ggc_set_mark	#
	testl	%eax, %eax	# D.12878
	jne	.L169	#,
	movq	ggc_pending_trees(%rip), %rax	# ggc_pending_trees, ggc_pending_trees.253
	movq	8(%rax), %rdx	# ggc_pending_trees.253_531->elements_used, D.12875
	movq	ggc_pending_trees(%rip), %rax	# ggc_pending_trees, ggc_pending_trees.254
	movq	(%rax), %rax	# ggc_pending_trees.254_533->num_elements, D.12875
	cmpq	%rax, %rdx	# D.12875, D.12875
	jb	.L170	#,
	movq	ggc_pending_trees(%rip), %rax	# ggc_pending_trees, ggc_pending_trees.255
	movq	(%rax), %rax	# ggc_pending_trees.255_535->num_elements, D.12875
	leaq	(%rax,%rax), %rdx	#, D.12875
	movq	ggc_pending_trees(%rip), %rax	# ggc_pending_trees, ggc_pending_trees.256
	movq	%rdx, %rsi	# D.12875,
	movq	%rax, %rdi	# ggc_pending_trees.256,
	call	varray_grow	#
	movq	%rax, ggc_pending_trees(%rip)	# ggc_pending_trees.257, ggc_pending_trees
.L170:
	.loc 1 523 0 discriminator 2
	movq	ggc_pending_trees(%rip), %rcx	# ggc_pending_trees, ggc_pending_trees.258
	movq	ggc_pending_trees(%rip), %rax	# ggc_pending_trees, ggc_pending_trees.259
	movq	8(%rax), %rdx	# ggc_pending_trees.259_541->elements_used, D.12875
	leaq	1(%rdx), %rsi	#, D.12875
	movq	%rsi, 8(%rax)	# D.12875, ggc_pending_trees.259_541->elements_used
	addq	$4, %rdx	#, tmp860
	movq	-128(%rbp), %rax	# t__, tmp861
	movq	%rax, (%rcx,%rdx,8)	# tmp861, ggc_pending_trees.258_540->data.tree
.L169:
.LBE51:
.LBB52:
	.loc 1 524 0 is_stmt 1
	movq	-400(%rbp), %rax	# t, tmp862
	movq	120(%rax), %rax	# t_10->type.next_variant, tmp863
	movq	%rax, -120(%rbp)	# tmp863, t__
	cmpq	$0, -120(%rbp)	#, t__
	je	.L171	#,
	.loc 1 524 0 is_stmt 0 discriminator 1
	movq	-120(%rbp), %rax	# t__, tmp864
	movq	%rax, %rdi	# tmp864,
	call	ggc_set_mark	#
	testl	%eax, %eax	# D.12878
	jne	.L171	#,
	movq	ggc_pending_trees(%rip), %rax	# ggc_pending_trees, ggc_pending_trees.260
	movq	8(%rax), %rdx	# ggc_pending_trees.260_547->elements_used, D.12875
	movq	ggc_pending_trees(%rip), %rax	# ggc_pending_trees, ggc_pending_trees.261
	movq	(%rax), %rax	# ggc_pending_trees.261_549->num_elements, D.12875
	cmpq	%rax, %rdx	# D.12875, D.12875
	jb	.L172	#,
	movq	ggc_pending_trees(%rip), %rax	# ggc_pending_trees, ggc_pending_trees.262
	movq	(%rax), %rax	# ggc_pending_trees.262_551->num_elements, D.12875
	leaq	(%rax,%rax), %rdx	#, D.12875
	movq	ggc_pending_trees(%rip), %rax	# ggc_pending_trees, ggc_pending_trees.263
	movq	%rdx, %rsi	# D.12875,
	movq	%rax, %rdi	# ggc_pending_trees.263,
	call	varray_grow	#
	movq	%rax, ggc_pending_trees(%rip)	# ggc_pending_trees.264, ggc_pending_trees
.L172:
	.loc 1 524 0 discriminator 2
	movq	ggc_pending_trees(%rip), %rcx	# ggc_pending_trees, ggc_pending_trees.265
	movq	ggc_pending_trees(%rip), %rax	# ggc_pending_trees, ggc_pending_trees.266
	movq	8(%rax), %rdx	# ggc_pending_trees.266_557->elements_used, D.12875
	leaq	1(%rdx), %rsi	#, D.12875
	movq	%rsi, 8(%rax)	# D.12875, ggc_pending_trees.266_557->elements_used
	addq	$4, %rdx	#, tmp865
	movq	-120(%rbp), %rax	# t__, tmp866
	movq	%rax, (%rcx,%rdx,8)	# tmp866, ggc_pending_trees.265_556->data.tree
.L171:
.LBE52:
.LBB53:
	.loc 1 525 0 is_stmt 1
	movq	-400(%rbp), %rax	# t, tmp867
	movq	128(%rax), %rax	# t_10->type.main_variant, tmp868
	movq	%rax, -112(%rbp)	# tmp868, t__
	cmpq	$0, -112(%rbp)	#, t__
	je	.L173	#,
	.loc 1 525 0 is_stmt 0 discriminator 1
	movq	-112(%rbp), %rax	# t__, tmp869
	movq	%rax, %rdi	# tmp869,
	call	ggc_set_mark	#
	testl	%eax, %eax	# D.12878
	jne	.L173	#,
	movq	ggc_pending_trees(%rip), %rax	# ggc_pending_trees, ggc_pending_trees.267
	movq	8(%rax), %rdx	# ggc_pending_trees.267_563->elements_used, D.12875
	movq	ggc_pending_trees(%rip), %rax	# ggc_pending_trees, ggc_pending_trees.268
	movq	(%rax), %rax	# ggc_pending_trees.268_565->num_elements, D.12875
	cmpq	%rax, %rdx	# D.12875, D.12875
	jb	.L174	#,
	movq	ggc_pending_trees(%rip), %rax	# ggc_pending_trees, ggc_pending_trees.269
	movq	(%rax), %rax	# ggc_pending_trees.269_567->num_elements, D.12875
	leaq	(%rax,%rax), %rdx	#, D.12875
	movq	ggc_pending_trees(%rip), %rax	# ggc_pending_trees, ggc_pending_trees.270
	movq	%rdx, %rsi	# D.12875,
	movq	%rax, %rdi	# ggc_pending_trees.270,
	call	varray_grow	#
	movq	%rax, ggc_pending_trees(%rip)	# ggc_pending_trees.271, ggc_pending_trees
.L174:
	.loc 1 525 0 discriminator 2
	movq	ggc_pending_trees(%rip), %rcx	# ggc_pending_trees, ggc_pending_trees.272
	movq	ggc_pending_trees(%rip), %rax	# ggc_pending_trees, ggc_pending_trees.273
	movq	8(%rax), %rdx	# ggc_pending_trees.273_573->elements_used, D.12875
	leaq	1(%rdx), %rsi	#, D.12875
	movq	%rsi, 8(%rax)	# D.12875, ggc_pending_trees.273_573->elements_used
	addq	$4, %rdx	#, tmp870
	movq	-112(%rbp), %rax	# t__, tmp871
	movq	%rax, (%rcx,%rdx,8)	# tmp871, ggc_pending_trees.272_572->data.tree
.L173:
.LBE53:
.LBB54:
	.loc 1 526 0 is_stmt 1
	movq	-400(%rbp), %rax	# t, tmp872
	movq	136(%rax), %rax	# t_10->type.binfo, tmp873
	movq	%rax, -104(%rbp)	# tmp873, t__
	cmpq	$0, -104(%rbp)	#, t__
	je	.L175	#,
	.loc 1 526 0 is_stmt 0 discriminator 1
	movq	-104(%rbp), %rax	# t__, tmp874
	movq	%rax, %rdi	# tmp874,
	call	ggc_set_mark	#
	testl	%eax, %eax	# D.12878
	jne	.L175	#,
	movq	ggc_pending_trees(%rip), %rax	# ggc_pending_trees, ggc_pending_trees.274
	movq	8(%rax), %rdx	# ggc_pending_trees.274_579->elements_used, D.12875
	movq	ggc_pending_trees(%rip), %rax	# ggc_pending_trees, ggc_pending_trees.275
	movq	(%rax), %rax	# ggc_pending_trees.275_581->num_elements, D.12875
	cmpq	%rax, %rdx	# D.12875, D.12875
	jb	.L176	#,
	movq	ggc_pending_trees(%rip), %rax	# ggc_pending_trees, ggc_pending_trees.276
	movq	(%rax), %rax	# ggc_pending_trees.276_583->num_elements, D.12875
	leaq	(%rax,%rax), %rdx	#, D.12875
	movq	ggc_pending_trees(%rip), %rax	# ggc_pending_trees, ggc_pending_trees.277
	movq	%rdx, %rsi	# D.12875,
	movq	%rax, %rdi	# ggc_pending_trees.277,
	call	varray_grow	#
	movq	%rax, ggc_pending_trees(%rip)	# ggc_pending_trees.278, ggc_pending_trees
.L176:
	.loc 1 526 0 discriminator 2
	movq	ggc_pending_trees(%rip), %rcx	# ggc_pending_trees, ggc_pending_trees.279
	movq	ggc_pending_trees(%rip), %rax	# ggc_pending_trees, ggc_pending_trees.280
	movq	8(%rax), %rdx	# ggc_pending_trees.280_589->elements_used, D.12875
	leaq	1(%rdx), %rsi	#, D.12875
	movq	%rsi, 8(%rax)	# D.12875, ggc_pending_trees.280_589->elements_used
	addq	$4, %rdx	#, tmp875
	movq	-104(%rbp), %rax	# t__, tmp876
	movq	%rax, (%rcx,%rdx,8)	# tmp876, ggc_pending_trees.279_588->data.tree
.L175:
.LBE54:
.LBB55:
	.loc 1 527 0 is_stmt 1
	movq	-400(%rbp), %rax	# t, tmp877
	movq	144(%rax), %rax	# t_10->type.context, tmp878
	movq	%rax, -96(%rbp)	# tmp878, t__
	cmpq	$0, -96(%rbp)	#, t__
	je	.L177	#,
	.loc 1 527 0 is_stmt 0 discriminator 1
	movq	-96(%rbp), %rax	# t__, tmp879
	movq	%rax, %rdi	# tmp879,
	call	ggc_set_mark	#
	testl	%eax, %eax	# D.12878
	jne	.L177	#,
	movq	ggc_pending_trees(%rip), %rax	# ggc_pending_trees, ggc_pending_trees.281
	movq	8(%rax), %rdx	# ggc_pending_trees.281_595->elements_used, D.12875
	movq	ggc_pending_trees(%rip), %rax	# ggc_pending_trees, ggc_pending_trees.282
	movq	(%rax), %rax	# ggc_pending_trees.282_597->num_elements, D.12875
	cmpq	%rax, %rdx	# D.12875, D.12875
	jb	.L178	#,
	movq	ggc_pending_trees(%rip), %rax	# ggc_pending_trees, ggc_pending_trees.283
	movq	(%rax), %rax	# ggc_pending_trees.283_599->num_elements, D.12875
	leaq	(%rax,%rax), %rdx	#, D.12875
	movq	ggc_pending_trees(%rip), %rax	# ggc_pending_trees, ggc_pending_trees.284
	movq	%rdx, %rsi	# D.12875,
	movq	%rax, %rdi	# ggc_pending_trees.284,
	call	varray_grow	#
	movq	%rax, ggc_pending_trees(%rip)	# ggc_pending_trees.285, ggc_pending_trees
.L178:
	.loc 1 527 0 discriminator 2
	movq	ggc_pending_trees(%rip), %rcx	# ggc_pending_trees, ggc_pending_trees.286
	movq	ggc_pending_trees(%rip), %rax	# ggc_pending_trees, ggc_pending_trees.287
	movq	8(%rax), %rdx	# ggc_pending_trees.287_605->elements_used, D.12875
	leaq	1(%rdx), %rsi	#, D.12875
	movq	%rsi, 8(%rax)	# D.12875, ggc_pending_trees.287_605->elements_used
	addq	$4, %rdx	#, tmp880
	movq	-96(%rbp), %rax	# t__, tmp881
	movq	%rax, (%rcx,%rdx,8)	# tmp881, ggc_pending_trees.286_604->data.tree
.L177:
.LBE55:
	.loc 1 528 0 is_stmt 1
	movq	-400(%rbp), %rax	# t, tmp882
	movq	%rax, %rdi	# tmp882,
	call	lang_mark_tree	#
	.loc 1 529 0
	jmp	.L83	#
.L114:
.LBB56:
	.loc 1 532 0
	movq	-400(%rbp), %rax	# t, tmp883
	movq	32(%rax), %rax	# t_10->block.vars, tmp884
	movq	%rax, -88(%rbp)	# tmp884, t__
	cmpq	$0, -88(%rbp)	#, t__
	je	.L179	#,
	.loc 1 532 0 is_stmt 0 discriminator 1
	movq	-88(%rbp), %rax	# t__, tmp885
	movq	%rax, %rdi	# tmp885,
	call	ggc_set_mark	#
	testl	%eax, %eax	# D.12878
	jne	.L179	#,
	movq	ggc_pending_trees(%rip), %rax	# ggc_pending_trees, ggc_pending_trees.288
	movq	8(%rax), %rdx	# ggc_pending_trees.288_611->elements_used, D.12875
	movq	ggc_pending_trees(%rip), %rax	# ggc_pending_trees, ggc_pending_trees.289
	movq	(%rax), %rax	# ggc_pending_trees.289_613->num_elements, D.12875
	cmpq	%rax, %rdx	# D.12875, D.12875
	jb	.L180	#,
	movq	ggc_pending_trees(%rip), %rax	# ggc_pending_trees, ggc_pending_trees.290
	movq	(%rax), %rax	# ggc_pending_trees.290_615->num_elements, D.12875
	leaq	(%rax,%rax), %rdx	#, D.12875
	movq	ggc_pending_trees(%rip), %rax	# ggc_pending_trees, ggc_pending_trees.291
	movq	%rdx, %rsi	# D.12875,
	movq	%rax, %rdi	# ggc_pending_trees.291,
	call	varray_grow	#
	movq	%rax, ggc_pending_trees(%rip)	# ggc_pending_trees.292, ggc_pending_trees
.L180:
	.loc 1 532 0 discriminator 2
	movq	ggc_pending_trees(%rip), %rcx	# ggc_pending_trees, ggc_pending_trees.293
	movq	ggc_pending_trees(%rip), %rax	# ggc_pending_trees, ggc_pending_trees.294
	movq	8(%rax), %rdx	# ggc_pending_trees.294_621->elements_used, D.12875
	leaq	1(%rdx), %rsi	#, D.12875
	movq	%rsi, 8(%rax)	# D.12875, ggc_pending_trees.294_621->elements_used
	addq	$4, %rdx	#, tmp886
	movq	-88(%rbp), %rax	# t__, tmp887
	movq	%rax, (%rcx,%rdx,8)	# tmp887, ggc_pending_trees.293_620->data.tree
.L179:
.LBE56:
.LBB57:
	.loc 1 533 0 is_stmt 1
	movq	-400(%rbp), %rax	# t, tmp888
	movq	40(%rax), %rax	# t_10->block.subblocks, tmp889
	movq	%rax, -80(%rbp)	# tmp889, t__
	cmpq	$0, -80(%rbp)	#, t__
	je	.L181	#,
	.loc 1 533 0 is_stmt 0 discriminator 1
	movq	-80(%rbp), %rax	# t__, tmp890
	movq	%rax, %rdi	# tmp890,
	call	ggc_set_mark	#
	testl	%eax, %eax	# D.12878
	jne	.L181	#,
	movq	ggc_pending_trees(%rip), %rax	# ggc_pending_trees, ggc_pending_trees.295
	movq	8(%rax), %rdx	# ggc_pending_trees.295_627->elements_used, D.12875
	movq	ggc_pending_trees(%rip), %rax	# ggc_pending_trees, ggc_pending_trees.296
	movq	(%rax), %rax	# ggc_pending_trees.296_629->num_elements, D.12875
	cmpq	%rax, %rdx	# D.12875, D.12875
	jb	.L182	#,
	movq	ggc_pending_trees(%rip), %rax	# ggc_pending_trees, ggc_pending_trees.297
	movq	(%rax), %rax	# ggc_pending_trees.297_631->num_elements, D.12875
	leaq	(%rax,%rax), %rdx	#, D.12875
	movq	ggc_pending_trees(%rip), %rax	# ggc_pending_trees, ggc_pending_trees.298
	movq	%rdx, %rsi	# D.12875,
	movq	%rax, %rdi	# ggc_pending_trees.298,
	call	varray_grow	#
	movq	%rax, ggc_pending_trees(%rip)	# ggc_pending_trees.299, ggc_pending_trees
.L182:
	.loc 1 533 0 discriminator 2
	movq	ggc_pending_trees(%rip), %rcx	# ggc_pending_trees, ggc_pending_trees.300
	movq	ggc_pending_trees(%rip), %rax	# ggc_pending_trees, ggc_pending_trees.301
	movq	8(%rax), %rdx	# ggc_pending_trees.301_637->elements_used, D.12875
	leaq	1(%rdx), %rsi	#, D.12875
	movq	%rsi, 8(%rax)	# D.12875, ggc_pending_trees.301_637->elements_used
	addq	$4, %rdx	#, tmp891
	movq	-80(%rbp), %rax	# t__, tmp892
	movq	%rax, (%rcx,%rdx,8)	# tmp892, ggc_pending_trees.300_636->data.tree
.L181:
.LBE57:
.LBB58:
	.loc 1 534 0 is_stmt 1
	movq	-400(%rbp), %rax	# t, tmp893
	movq	48(%rax), %rax	# t_10->block.supercontext, tmp894
	movq	%rax, -72(%rbp)	# tmp894, t__
	cmpq	$0, -72(%rbp)	#, t__
	je	.L183	#,
	.loc 1 534 0 is_stmt 0 discriminator 1
	movq	-72(%rbp), %rax	# t__, tmp895
	movq	%rax, %rdi	# tmp895,
	call	ggc_set_mark	#
	testl	%eax, %eax	# D.12878
	jne	.L183	#,
	movq	ggc_pending_trees(%rip), %rax	# ggc_pending_trees, ggc_pending_trees.302
	movq	8(%rax), %rdx	# ggc_pending_trees.302_643->elements_used, D.12875
	movq	ggc_pending_trees(%rip), %rax	# ggc_pending_trees, ggc_pending_trees.303
	movq	(%rax), %rax	# ggc_pending_trees.303_645->num_elements, D.12875
	cmpq	%rax, %rdx	# D.12875, D.12875
	jb	.L184	#,
	movq	ggc_pending_trees(%rip), %rax	# ggc_pending_trees, ggc_pending_trees.304
	movq	(%rax), %rax	# ggc_pending_trees.304_647->num_elements, D.12875
	leaq	(%rax,%rax), %rdx	#, D.12875
	movq	ggc_pending_trees(%rip), %rax	# ggc_pending_trees, ggc_pending_trees.305
	movq	%rdx, %rsi	# D.12875,
	movq	%rax, %rdi	# ggc_pending_trees.305,
	call	varray_grow	#
	movq	%rax, ggc_pending_trees(%rip)	# ggc_pending_trees.306, ggc_pending_trees
.L184:
	.loc 1 534 0 discriminator 2
	movq	ggc_pending_trees(%rip), %rcx	# ggc_pending_trees, ggc_pending_trees.307
	movq	ggc_pending_trees(%rip), %rax	# ggc_pending_trees, ggc_pending_trees.308
	movq	8(%rax), %rdx	# ggc_pending_trees.308_653->elements_used, D.12875
	leaq	1(%rdx), %rsi	#, D.12875
	movq	%rsi, 8(%rax)	# D.12875, ggc_pending_trees.308_653->elements_used
	addq	$4, %rdx	#, tmp896
	movq	-72(%rbp), %rax	# t__, tmp897
	movq	%rax, (%rcx,%rdx,8)	# tmp897, ggc_pending_trees.307_652->data.tree
.L183:
.LBE58:
.LBB59:
	.loc 1 535 0 is_stmt 1
	movq	-400(%rbp), %rax	# t, tmp898
	movq	56(%rax), %rax	# t_10->block.abstract_origin, tmp899
	movq	%rax, -64(%rbp)	# tmp899, t__
	cmpq	$0, -64(%rbp)	#, t__
	je	.L185	#,
	.loc 1 535 0 is_stmt 0 discriminator 1
	movq	-64(%rbp), %rax	# t__, tmp900
	movq	%rax, %rdi	# tmp900,
	call	ggc_set_mark	#
	testl	%eax, %eax	# D.12878
	jne	.L185	#,
	movq	ggc_pending_trees(%rip), %rax	# ggc_pending_trees, ggc_pending_trees.309
	movq	8(%rax), %rdx	# ggc_pending_trees.309_659->elements_used, D.12875
	movq	ggc_pending_trees(%rip), %rax	# ggc_pending_trees, ggc_pending_trees.310
	movq	(%rax), %rax	# ggc_pending_trees.310_661->num_elements, D.12875
	cmpq	%rax, %rdx	# D.12875, D.12875
	jb	.L186	#,
	movq	ggc_pending_trees(%rip), %rax	# ggc_pending_trees, ggc_pending_trees.311
	movq	(%rax), %rax	# ggc_pending_trees.311_663->num_elements, D.12875
	leaq	(%rax,%rax), %rdx	#, D.12875
	movq	ggc_pending_trees(%rip), %rax	# ggc_pending_trees, ggc_pending_trees.312
	movq	%rdx, %rsi	# D.12875,
	movq	%rax, %rdi	# ggc_pending_trees.312,
	call	varray_grow	#
	movq	%rax, ggc_pending_trees(%rip)	# ggc_pending_trees.313, ggc_pending_trees
.L186:
	.loc 1 535 0 discriminator 2
	movq	ggc_pending_trees(%rip), %rcx	# ggc_pending_trees, ggc_pending_trees.314
	movq	ggc_pending_trees(%rip), %rax	# ggc_pending_trees, ggc_pending_trees.315
	movq	8(%rax), %rdx	# ggc_pending_trees.315_669->elements_used, D.12875
	leaq	1(%rdx), %rsi	#, D.12875
	movq	%rsi, 8(%rax)	# D.12875, ggc_pending_trees.315_669->elements_used
	addq	$4, %rdx	#, tmp901
	movq	-64(%rbp), %rax	# t__, tmp902
	movq	%rax, (%rcx,%rdx,8)	# tmp902, ggc_pending_trees.314_668->data.tree
.LBE59:
	.loc 1 536 0 is_stmt 1 discriminator 2
	jmp	.L83	#
.L185:
	.loc 1 536 0 is_stmt 0
	jmp	.L83	#
.L115:
.LBB60:
	.loc 1 539 0 is_stmt 1
	movq	-400(%rbp), %rax	# t, tmp903
	movq	24(%rax), %rax	# t_10->real_cst.rtl, tmp904
	movq	%rax, -56(%rbp)	# tmp904, r__
	cmpq	$0, -56(%rbp)	#, r__
	je	.L187	#,
	.loc 1 539 0 is_stmt 0 discriminator 1
	movq	-56(%rbp), %rax	# r__, tmp905
	movq	%rax, %rdi	# tmp905,
	call	ggc_set_mark	#
	testl	%eax, %eax	# D.12878
	jne	.L187	#,
	movq	-56(%rbp), %rax	# r__, tmp906
	movq	%rax, %rdi	# tmp906,
	call	ggc_mark_rtx_children	#
.LBE60:
	.loc 1 540 0 is_stmt 1 discriminator 1
	jmp	.L83	#
.L187:
	.loc 1 540 0 is_stmt 0
	jmp	.L83	#
.L112:
.LBB61:
	.loc 1 545 0 is_stmt 1
	movq	-400(%rbp), %rax	# t, tmp907
	movzbl	16(%rax), %eax	# t_10->common.code, D.12876
	movzbl	%al, %eax	# D.12876, D.12878
	cltq
	movl	tree_code_length(,%rax,4), %eax	# tree_code_length, tmp909
	movl	%eax, -412(%rbp)	# tmp909, i
	.loc 1 546 0
	movq	-400(%rbp), %rax	# t, tmp910
	movzbl	16(%rax), %eax	# t_10->common.code, D.12876
	movzbl	%al, %eax	# D.12876, D.12883
	movl	%eax, %edi	# D.12883,
	call	first_rtl_op	#
	movl	%eax, -404(%rbp)	# tmp911, first_rtl
	.loc 1 548 0
	jmp	.L188	#
.L192:
	.loc 1 550 0
	movl	-412(%rbp), %eax	# i, tmp912
	cmpl	-404(%rbp), %eax	# first_rtl, tmp912
	jl	.L189	#,
.LBB62:
	.loc 1 551 0
	movq	-400(%rbp), %rax	# t, tmp913
	movl	-412(%rbp), %edx	# i, tmp915
	movslq	%edx, %rdx	# tmp915, tmp914
	addq	$4, %rdx	#, tmp916
	movq	(%rax,%rdx,8), %rax	# t_10->exp.operands, tmp917
	movq	%rax, -48(%rbp)	# tmp917, r__
	cmpq	$0, -48(%rbp)	#, r__
	je	.L190	#,
	.loc 1 551 0 is_stmt 0 discriminator 1
	movq	-48(%rbp), %rax	# r__, tmp918
	movq	%rax, %rdi	# tmp918,
	call	ggc_set_mark	#
	testl	%eax, %eax	# D.12878
	jne	.L190	#,
	movq	-48(%rbp), %rax	# r__, tmp919
	movq	%rax, %rdi	# tmp919,
	call	ggc_mark_rtx_children	#
.LBE62:
	jmp	.L188	#
.L190:
	jmp	.L188	#
.L189:
.LBB63:
	.loc 1 553 0 is_stmt 1
	movq	-400(%rbp), %rax	# t, tmp920
	movl	-412(%rbp), %edx	# i, tmp922
	movslq	%edx, %rdx	# tmp922, tmp921
	addq	$4, %rdx	#, tmp923
	movq	(%rax,%rdx,8), %rax	# t_10->exp.operands, tmp924
	movq	%rax, -40(%rbp)	# tmp924, t__
	cmpq	$0, -40(%rbp)	#, t__
	je	.L188	#,
	.loc 1 553 0 is_stmt 0 discriminator 1
	movq	-40(%rbp), %rax	# t__, tmp925
	movq	%rax, %rdi	# tmp925,
	call	ggc_set_mark	#
	testl	%eax, %eax	# D.12878
	jne	.L188	#,
	movq	ggc_pending_trees(%rip), %rax	# ggc_pending_trees, ggc_pending_trees.316
	movq	8(%rax), %rdx	# ggc_pending_trees.316_686->elements_used, D.12875
	movq	ggc_pending_trees(%rip), %rax	# ggc_pending_trees, ggc_pending_trees.317
	movq	(%rax), %rax	# ggc_pending_trees.317_688->num_elements, D.12875
	cmpq	%rax, %rdx	# D.12875, D.12875
	jb	.L191	#,
	movq	ggc_pending_trees(%rip), %rax	# ggc_pending_trees, ggc_pending_trees.318
	movq	(%rax), %rax	# ggc_pending_trees.318_690->num_elements, D.12875
	leaq	(%rax,%rax), %rdx	#, D.12875
	movq	ggc_pending_trees(%rip), %rax	# ggc_pending_trees, ggc_pending_trees.319
	movq	%rdx, %rsi	# D.12875,
	movq	%rax, %rdi	# ggc_pending_trees.319,
	call	varray_grow	#
	movq	%rax, ggc_pending_trees(%rip)	# ggc_pending_trees.320, ggc_pending_trees
.L191:
	.loc 1 553 0 discriminator 2
	movq	ggc_pending_trees(%rip), %rcx	# ggc_pending_trees, ggc_pending_trees.321
	movq	ggc_pending_trees(%rip), %rax	# ggc_pending_trees, ggc_pending_trees.322
	movq	8(%rax), %rdx	# ggc_pending_trees.322_696->elements_used, D.12875
	leaq	1(%rdx), %rsi	#, D.12875
	movq	%rsi, 8(%rax)	# D.12875, ggc_pending_trees.322_696->elements_used
	addq	$4, %rdx	#, tmp926
	movq	-40(%rbp), %rax	# t__, tmp927
	movq	%rax, (%rcx,%rdx,8)	# tmp927, ggc_pending_trees.321_695->data.tree
.L188:
.LBE63:
	.loc 1 548 0 is_stmt 1 discriminator 1
	subl	$1, -412(%rbp)	#, i
	cmpl	$0, -412(%rbp)	#, i
	jns	.L192	#,
	.loc 1 555 0
	jmp	.L83	#
.L118:
.LBE61:
	.loc 1 559 0
	movq	-400(%rbp), %rax	# t, tmp928
	movq	%rax, %rdi	# tmp928,
	call	lang_mark_tree	#
	.loc 1 560 0
	nop
.L83:
.LBE16:
	.loc 1 426 0 discriminator 1
	movq	ggc_pending_trees(%rip), %rax	# ggc_pending_trees, ggc_pending_trees.323
	movq	8(%rax), %rax	# ggc_pending_trees.323_4->elements_used, D.12875
	testq	%rax, %rax	# D.12875
	jne	.L193	#,
	.loc 1 563 0
	addq	$392, %rsp	#,
	popq	%rbx	#
	popq	%r12	#
	popq	%r13	#
	popq	%rbp	#
	.cfi_def_cfa 7, 8
	ret
	.cfi_endproc
.LFE15:
	.size	ggc_mark_trees, .-ggc_mark_trees
	.globl	ggc_mark_rtx_varray
	.type	ggc_mark_rtx_varray, @function
ggc_mark_rtx_varray:
.LFB16:
	.loc 1 570 0
	.cfi_startproc
	pushq	%rbp	#
	.cfi_def_cfa_offset 16
	.cfi_offset 6, -16
	movq	%rsp, %rbp	#,
	.cfi_def_cfa_register 6
	subq	$32, %rsp	#,
	movq	%rdi, -24(%rbp)	# v, v
	.loc 1 573 0
	cmpq	$0, -24(%rbp)	#, v
	je	.L195	#,
	.loc 1 574 0
	movq	-24(%rbp), %rax	# v, tmp63
	movq	(%rax), %rax	# v_2(D)->num_elements, D.12884
	subl	$1, %eax	#, D.12885
	movl	%eax, -12(%rbp)	# D.12885, i
	jmp	.L197	#
.L199:
.LBB64:
	.loc 1 575 0
	movq	-24(%rbp), %rax	# v, tmp64
	movl	-12(%rbp), %edx	# i, tmp66
	movslq	%edx, %rdx	# tmp66, tmp65
	addq	$4, %rdx	#, tmp67
	movq	(%rax,%rdx,8), %rax	# v_2(D)->data.rtx, tmp68
	movq	%rax, -8(%rbp)	# tmp68, r__
	cmpq	$0, -8(%rbp)	#, r__
	je	.L198	#,
	.loc 1 575 0 is_stmt 0 discriminator 1
	movq	-8(%rbp), %rax	# r__, tmp69
	movq	%rax, %rdi	# tmp69,
	call	ggc_set_mark	#
	testl	%eax, %eax	# D.12886
	jne	.L198	#,
	movq	-8(%rbp), %rax	# r__, tmp70
	movq	%rax, %rdi	# tmp70,
	call	ggc_mark_rtx_children	#
.L198:
.LBE64:
	.loc 1 574 0 is_stmt 1
	subl	$1, -12(%rbp)	#, i
.L197:
	.loc 1 574 0 is_stmt 0 discriminator 1
	cmpl	$0, -12(%rbp)	#, i
	jns	.L199	#,
.L195:
	.loc 1 576 0 is_stmt 1
	leave
	.cfi_def_cfa 7, 8
	ret
	.cfi_endproc
.LFE16:
	.size	ggc_mark_rtx_varray, .-ggc_mark_rtx_varray
	.globl	ggc_mark_tree_varray
	.type	ggc_mark_tree_varray, @function
ggc_mark_tree_varray:
.LFB17:
	.loc 1 583 0
	.cfi_startproc
	pushq	%rbp	#
	.cfi_def_cfa_offset 16
	.cfi_offset 6, -16
	movq	%rsp, %rbp	#,
	.cfi_def_cfa_register 6
	subq	$32, %rsp	#,
	movq	%rdi, -24(%rbp)	# v, v
	.loc 1 586 0
	cmpq	$0, -24(%rbp)	#, v
	je	.L200	#,
	.loc 1 587 0
	movq	-24(%rbp), %rax	# v, tmp76
	movq	(%rax), %rax	# v_2(D)->num_elements, D.12887
	subl	$1, %eax	#, D.12888
	movl	%eax, -12(%rbp)	# D.12888, i
	jmp	.L202	#
.L205:
.LBB65:
	.loc 1 588 0
	movq	-24(%rbp), %rax	# v, tmp77
	movl	-12(%rbp), %edx	# i, tmp79
	movslq	%edx, %rdx	# tmp79, tmp78
	addq	$4, %rdx	#, tmp80
	movq	(%rax,%rdx,8), %rax	# v_2(D)->data.tree, tmp81
	movq	%rax, -8(%rbp)	# tmp81, t__
	cmpq	$0, -8(%rbp)	#, t__
	je	.L203	#,
	.loc 1 588 0 is_stmt 0 discriminator 1
	movq	-8(%rbp), %rax	# t__, tmp82
	movq	%rax, %rdi	# tmp82,
	call	ggc_set_mark	#
	testl	%eax, %eax	# D.12889
	jne	.L203	#,
	movq	ggc_pending_trees(%rip), %rax	# ggc_pending_trees, ggc_pending_trees.324
	movq	8(%rax), %rdx	# ggc_pending_trees.324_9->elements_used, D.12887
	movq	ggc_pending_trees(%rip), %rax	# ggc_pending_trees, ggc_pending_trees.325
	movq	(%rax), %rax	# ggc_pending_trees.325_11->num_elements, D.12887
	cmpq	%rax, %rdx	# D.12887, D.12887
	jb	.L204	#,
	movq	ggc_pending_trees(%rip), %rax	# ggc_pending_trees, ggc_pending_trees.326
	movq	(%rax), %rax	# ggc_pending_trees.326_13->num_elements, D.12887
	leaq	(%rax,%rax), %rdx	#, D.12887
	movq	ggc_pending_trees(%rip), %rax	# ggc_pending_trees, ggc_pending_trees.327
	movq	%rdx, %rsi	# D.12887,
	movq	%rax, %rdi	# ggc_pending_trees.327,
	call	varray_grow	#
	movq	%rax, ggc_pending_trees(%rip)	# ggc_pending_trees.328, ggc_pending_trees
.L204:
	.loc 1 588 0 discriminator 2
	movq	ggc_pending_trees(%rip), %rcx	# ggc_pending_trees, ggc_pending_trees.329
	movq	ggc_pending_trees(%rip), %rax	# ggc_pending_trees, ggc_pending_trees.330
	movq	8(%rax), %rdx	# ggc_pending_trees.330_19->elements_used, D.12887
	leaq	1(%rdx), %rsi	#, D.12887
	movq	%rsi, 8(%rax)	# D.12887, ggc_pending_trees.330_19->elements_used
	addq	$4, %rdx	#, tmp83
	movq	-8(%rbp), %rax	# t__, tmp84
	movq	%rax, (%rcx,%rdx,8)	# tmp84, ggc_pending_trees.329_18->data.tree
.L203:
.LBE65:
	.loc 1 587 0 is_stmt 1
	subl	$1, -12(%rbp)	#, i
.L202:
	.loc 1 587 0 is_stmt 0 discriminator 1
	cmpl	$0, -12(%rbp)	#, i
	jns	.L205	#,
.L200:
	.loc 1 589 0 is_stmt 1
	leave
	.cfi_def_cfa 7, 8
	ret
	.cfi_endproc
.LFE17:
	.size	ggc_mark_tree_varray, .-ggc_mark_tree_varray
	.type	ggc_mark_tree_hash_table_entry, @function
ggc_mark_tree_hash_table_entry:
.LFB18:
	.loc 1 597 0
	.cfi_startproc
	pushq	%rbp	#
	.cfi_def_cfa_offset 16
	.cfi_offset 6, -16
	movq	%rsp, %rbp	#,
	.cfi_def_cfa_register 6
	subq	$32, %rsp	#,
	movq	%rdi, -24(%rbp)	# he, he
	movq	%rsi, -32(%rbp)	# k, k
.LBB66:
	.loc 1 598 0
	movq	-24(%rbp), %rax	# he, tmp75
	movq	8(%rax), %rax	# he_1(D)->key, tmp76
	movq	%rax, -8(%rbp)	# tmp76, t__
	cmpq	$0, -8(%rbp)	#, t__
	je	.L207	#,
	.loc 1 598 0 is_stmt 0 discriminator 1
	movq	-8(%rbp), %rax	# t__, tmp77
	movq	%rax, %rdi	# tmp77,
	call	ggc_set_mark	#
	testl	%eax, %eax	# D.12890
	jne	.L207	#,
	movq	ggc_pending_trees(%rip), %rax	# ggc_pending_trees, ggc_pending_trees.331
	movq	8(%rax), %rdx	# ggc_pending_trees.331_4->elements_used, D.12891
	movq	ggc_pending_trees(%rip), %rax	# ggc_pending_trees, ggc_pending_trees.332
	movq	(%rax), %rax	# ggc_pending_trees.332_6->num_elements, D.12891
	cmpq	%rax, %rdx	# D.12891, D.12891
	jb	.L208	#,
	movq	ggc_pending_trees(%rip), %rax	# ggc_pending_trees, ggc_pending_trees.333
	movq	(%rax), %rax	# ggc_pending_trees.333_8->num_elements, D.12891
	leaq	(%rax,%rax), %rdx	#, D.12891
	movq	ggc_pending_trees(%rip), %rax	# ggc_pending_trees, ggc_pending_trees.334
	movq	%rdx, %rsi	# D.12891,
	movq	%rax, %rdi	# ggc_pending_trees.334,
	call	varray_grow	#
	movq	%rax, ggc_pending_trees(%rip)	# ggc_pending_trees.335, ggc_pending_trees
.L208:
	.loc 1 598 0 discriminator 2
	movq	ggc_pending_trees(%rip), %rcx	# ggc_pending_trees, ggc_pending_trees.336
	movq	ggc_pending_trees(%rip), %rax	# ggc_pending_trees, ggc_pending_trees.337
	movq	8(%rax), %rdx	# ggc_pending_trees.337_14->elements_used, D.12891
	leaq	1(%rdx), %rsi	#, D.12891
	movq	%rsi, 8(%rax)	# D.12891, ggc_pending_trees.337_14->elements_used
	addq	$4, %rdx	#, tmp78
	movq	-8(%rbp), %rax	# t__, tmp79
	movq	%rax, (%rcx,%rdx,8)	# tmp79, ggc_pending_trees.336_13->data.tree
.L207:
.LBE66:
	.loc 1 599 0 is_stmt 1
	movl	$1, %eax	#, D.12892
	.loc 1 600 0
	leave
	.cfi_def_cfa 7, 8
	ret
	.cfi_endproc
.LFE18:
	.size	ggc_mark_tree_hash_table_entry, .-ggc_mark_tree_hash_table_entry
	.globl	ggc_mark_tree_hash_table
	.type	ggc_mark_tree_hash_table, @function
ggc_mark_tree_hash_table:
.LFB19:
	.loc 1 607 0
	.cfi_startproc
	pushq	%rbp	#
	.cfi_def_cfa_offset 16
	.cfi_offset 6, -16
	movq	%rsp, %rbp	#,
	.cfi_def_cfa_register 6
	subq	$16, %rsp	#,
	movq	%rdi, -8(%rbp)	# ht, ht
	.loc 1 608 0
	movq	-8(%rbp), %rax	# ht, tmp59
	movl	$0, %edx	#,
	movl	$ggc_mark_tree_hash_table_entry, %esi	#,
	movq	%rax, %rdi	# tmp59,
	call	hash_traverse	#
	.loc 1 609 0
	leave
	.cfi_def_cfa 7, 8
	ret
	.cfi_endproc
.LFE19:
	.size	ggc_mark_tree_hash_table, .-ggc_mark_tree_hash_table
	.type	ggc_mark_rtx_ptr, @function
ggc_mark_rtx_ptr:
.LFB20:
	.loc 1 617 0
	.cfi_startproc
	pushq	%rbp	#
	.cfi_def_cfa_offset 16
	.cfi_offset 6, -16
	movq	%rsp, %rbp	#,
	.cfi_def_cfa_register 6
	subq	$32, %rsp	#,
	movq	%rdi, -24(%rbp)	# elt, elt
.LBB67:
	.loc 1 618 0
	movq	-24(%rbp), %rax	# elt, tmp60
	movq	(%rax), %rax	# MEM[(struct rtx_def * *)elt_1(D)], tmp61
	movq	%rax, -8(%rbp)	# tmp61, r__
	cmpq	$0, -8(%rbp)	#, r__
	je	.L211	#,
	.loc 1 618 0 is_stmt 0 discriminator 1
	movq	-8(%rbp), %rax	# r__, tmp62
	movq	%rax, %rdi	# tmp62,
	call	ggc_set_mark	#
	testl	%eax, %eax	# D.12893
	jne	.L211	#,
	movq	-8(%rbp), %rax	# r__, tmp63
	movq	%rax, %rdi	# tmp63,
	call	ggc_mark_rtx_children	#
.L211:
.LBE67:
	.loc 1 619 0 is_stmt 1
	leave
	.cfi_def_cfa 7, 8
	ret
	.cfi_endproc
.LFE20:
	.size	ggc_mark_rtx_ptr, .-ggc_mark_rtx_ptr
	.type	ggc_mark_tree_ptr, @function
ggc_mark_tree_ptr:
.LFB21:
	.loc 1 627 0
	.cfi_startproc
	pushq	%rbp	#
	.cfi_def_cfa_offset 16
	.cfi_offset 6, -16
	movq	%rsp, %rbp	#,
	.cfi_def_cfa_register 6
	subq	$32, %rsp	#,
	movq	%rdi, -24(%rbp)	# elt, elt
.LBB68:
	.loc 1 628 0
	movq	-24(%rbp), %rax	# elt, tmp73
	movq	(%rax), %rax	# MEM[(union tree_node * *)elt_1(D)], tmp74
	movq	%rax, -8(%rbp)	# tmp74, t__
	cmpq	$0, -8(%rbp)	#, t__
	je	.L213	#,
	.loc 1 628 0 is_stmt 0 discriminator 1
	movq	-8(%rbp), %rax	# t__, tmp75
	movq	%rax, %rdi	# tmp75,
	call	ggc_set_mark	#
	testl	%eax, %eax	# D.12894
	jne	.L213	#,
	movq	ggc_pending_trees(%rip), %rax	# ggc_pending_trees, ggc_pending_trees.338
	movq	8(%rax), %rdx	# ggc_pending_trees.338_4->elements_used, D.12895
	movq	ggc_pending_trees(%rip), %rax	# ggc_pending_trees, ggc_pending_trees.339
	movq	(%rax), %rax	# ggc_pending_trees.339_6->num_elements, D.12895
	cmpq	%rax, %rdx	# D.12895, D.12895
	jb	.L215	#,
	movq	ggc_pending_trees(%rip), %rax	# ggc_pending_trees, ggc_pending_trees.340
	movq	(%rax), %rax	# ggc_pending_trees.340_8->num_elements, D.12895
	leaq	(%rax,%rax), %rdx	#, D.12895
	movq	ggc_pending_trees(%rip), %rax	# ggc_pending_trees, ggc_pending_trees.341
	movq	%rdx, %rsi	# D.12895,
	movq	%rax, %rdi	# ggc_pending_trees.341,
	call	varray_grow	#
	movq	%rax, ggc_pending_trees(%rip)	# ggc_pending_trees.342, ggc_pending_trees
.L215:
	.loc 1 628 0 discriminator 2
	movq	ggc_pending_trees(%rip), %rcx	# ggc_pending_trees, ggc_pending_trees.343
	movq	ggc_pending_trees(%rip), %rax	# ggc_pending_trees, ggc_pending_trees.344
	movq	8(%rax), %rdx	# ggc_pending_trees.344_14->elements_used, D.12895
	leaq	1(%rdx), %rsi	#, D.12895
	movq	%rsi, 8(%rax)	# D.12895, ggc_pending_trees.344_14->elements_used
	addq	$4, %rdx	#, tmp76
	movq	-8(%rbp), %rax	# t__, tmp77
	movq	%rax, (%rcx,%rdx,8)	# tmp77, ggc_pending_trees.343_13->data.tree
.L213:
.LBE68:
	.loc 1 629 0 is_stmt 1
	leave
	.cfi_def_cfa 7, 8
	ret
	.cfi_endproc
.LFE21:
	.size	ggc_mark_tree_ptr, .-ggc_mark_tree_ptr
	.type	ggc_mark_rtx_varray_ptr, @function
ggc_mark_rtx_varray_ptr:
.LFB22:
	.loc 1 637 0
	.cfi_startproc
	pushq	%rbp	#
	.cfi_def_cfa_offset 16
	.cfi_offset 6, -16
	movq	%rsp, %rbp	#,
	.cfi_def_cfa_register 6
	subq	$16, %rsp	#,
	movq	%rdi, -8(%rbp)	# elt, elt
	.loc 1 638 0
	movq	-8(%rbp), %rax	# elt, tmp60
	movq	(%rax), %rax	# MEM[(struct varray_head_tag * *)elt_1(D)], D.12896
	movq	%rax, %rdi	# D.12896,
	call	ggc_mark_rtx_varray	#
	.loc 1 639 0
	leave
	.cfi_def_cfa 7, 8
	ret
	.cfi_endproc
.LFE22:
	.size	ggc_mark_rtx_varray_ptr, .-ggc_mark_rtx_varray_ptr
	.type	ggc_mark_tree_varray_ptr, @function
ggc_mark_tree_varray_ptr:
.LFB23:
	.loc 1 647 0
	.cfi_startproc
	pushq	%rbp	#
	.cfi_def_cfa_offset 16
	.cfi_offset 6, -16
	movq	%rsp, %rbp	#,
	.cfi_def_cfa_register 6
	subq	$16, %rsp	#,
	movq	%rdi, -8(%rbp)	# elt, elt
	.loc 1 648 0
	movq	-8(%rbp), %rax	# elt, tmp60
	movq	(%rax), %rax	# MEM[(struct varray_head_tag * *)elt_1(D)], D.12897
	movq	%rax, %rdi	# D.12897,
	call	ggc_mark_tree_varray	#
	.loc 1 649 0
	leave
	.cfi_def_cfa 7, 8
	ret
	.cfi_endproc
.LFE23:
	.size	ggc_mark_tree_varray_ptr, .-ggc_mark_tree_varray_ptr
	.type	ggc_mark_tree_hash_table_ptr, @function
ggc_mark_tree_hash_table_ptr:
.LFB24:
	.loc 1 658 0
	.cfi_startproc
	pushq	%rbp	#
	.cfi_def_cfa_offset 16
	.cfi_offset 6, -16
	movq	%rsp, %rbp	#,
	.cfi_def_cfa_register 6
	subq	$16, %rsp	#,
	movq	%rdi, -8(%rbp)	# elt, elt
	.loc 1 659 0
	movq	-8(%rbp), %rax	# elt, tmp60
	movq	(%rax), %rax	# MEM[(struct hash_table * *)elt_1(D)], D.12898
	movq	%rax, %rdi	# D.12898,
	call	ggc_mark_tree_hash_table	#
	.loc 1 660 0
	leave
	.cfi_def_cfa 7, 8
	ret
	.cfi_endproc
.LFE24:
	.size	ggc_mark_tree_hash_table_ptr, .-ggc_mark_tree_hash_table_ptr
	.globl	ggc_alloc_cleared
	.type	ggc_alloc_cleared, @function
ggc_alloc_cleared:
.LFB25:
	.loc 1 666 0
	.cfi_startproc
	pushq	%rbp	#
	.cfi_def_cfa_offset 16
	.cfi_offset 6, -16
	movq	%rsp, %rbp	#,
	.cfi_def_cfa_register 6
	subq	$32, %rsp	#,
	movq	%rdi, -24(%rbp)	# size, size
	.loc 1 667 0
	movq	-24(%rbp), %rax	# size, tmp61
	movq	%rax, %rdi	# tmp61,
	call	ggc_alloc	#
	movq	%rax, -8(%rbp)	# tmp62, buf
	.loc 1 668 0
	movq	-24(%rbp), %rdx	# size, tmp63
	movq	-8(%rbp), %rax	# buf, tmp64
	movl	$0, %esi	#,
	movq	%rax, %rdi	# tmp64,
	call	memset	#
	.loc 1 669 0
	movq	-8(%rbp), %rax	# buf, D.12899
	.loc 1 670 0
	leave
	.cfi_def_cfa 7, 8
	ret
	.cfi_endproc
.LFE25:
	.size	ggc_alloc_cleared, .-ggc_alloc_cleared
	.section	.rodata
.LC2:
	.string	"% Total"
.LC3:
	.string	"Bytes"
.LC4:
	.string	"Number"
.LC5:
	.string	"Tree"
.LC6:
	.string	"\n%-17s%10s %16s %10s\n"
.LC8:
	.string	"%-17s%10u%16ld%c %10.3f\n"
.LC9:
	.string	"Total"
.LC10:
	.string	"%-17s%10u%16ld%c\n"
.LC11:
	.string	"RTX"
	.text
	.globl	ggc_print_common_statistics
	.type	ggc_print_common_statistics, @function
ggc_print_common_statistics:
.LFB26:
	.loc 1 684 0
	.cfi_startproc
	pushq	%rbp	#
	.cfi_def_cfa_offset 16
	.cfi_offset 6, -16
	movq	%rsp, %rbp	#,
	.cfi_def_cfa_register 6
	subq	$32, %rsp	#,
	movq	%rdi, -24(%rbp)	# stream, stream
	movq	%rsi, -32(%rbp)	# stats, stats
	.loc 1 689 0
	movq	-32(%rbp), %rax	# stats, tmp169
	movq	%rax, ggc_stats(%rip)	# tmp169, ggc_stats
	.loc 1 692 0
	call	ggc_collect	#
	.loc 1 695 0
	movl	$0, -4(%rbp)	#, code
	jmp	.L222	#
.L223:
	.loc 1 697 0 discriminator 2
	movq	-32(%rbp), %rax	# stats, tmp170
	movl	6160(%rax), %ecx	# stats_21(D)->total_num_trees, D.12900
	movq	-32(%rbp), %rax	# stats, tmp171
	movl	-4(%rbp), %edx	# code, tmp173
	movslq	%edx, %rdx	# tmp173, tmp172
	movl	(%rax,%rdx,4), %eax	# stats_21(D)->num_trees, D.12900
	leal	(%rcx,%rax), %edx	#, D.12900
	movq	-32(%rbp), %rax	# stats, tmp174
	movl	%edx, 6160(%rax)	# D.12900, stats_21(D)->total_num_trees
	.loc 1 698 0 discriminator 2
	movq	-32(%rbp), %rax	# stats, tmp175
	movq	6144(%rax), %rdx	# stats_21(D)->total_size_trees, D.12901
	movq	-32(%rbp), %rax	# stats, tmp176
	movl	-4(%rbp), %ecx	# code, tmp178
	movslq	%ecx, %rcx	# tmp178, tmp177
	subq	$-128, %rcx	#, tmp179
	movq	(%rax,%rcx,8), %rax	# stats_21(D)->size_trees, D.12901
	addq	%rax, %rdx	# D.12901, D.12901
	movq	-32(%rbp), %rax	# stats, tmp180
	movq	%rdx, 6144(%rax)	# D.12901, stats_21(D)->total_size_trees
	.loc 1 695 0 discriminator 2
	addl	$1, -4(%rbp)	#, code
.L222:
	.loc 1 695 0 is_stmt 0 discriminator 1
	cmpl	$255, -4(%rbp)	#, code
	jle	.L223	#,
	.loc 1 700 0 is_stmt 1
	movl	$0, -4(%rbp)	#, code
	jmp	.L224	#
.L225:
	.loc 1 702 0 discriminator 2
	movq	-32(%rbp), %rax	# stats, tmp181
	movl	6164(%rax), %edx	# stats_21(D)->total_num_rtxs, D.12900
	movq	-32(%rbp), %rax	# stats, tmp182
	movl	-4(%rbp), %ecx	# code, tmp184
	movslq	%ecx, %rcx	# tmp184, tmp183
	addq	$768, %rcx	#, tmp185
	movl	(%rax,%rcx,4), %eax	# stats_21(D)->num_rtxs, D.12900
	addl	%eax, %edx	# D.12900, D.12900
	movq	-32(%rbp), %rax	# stats, tmp186
	movl	%edx, 6164(%rax)	# D.12900, stats_21(D)->total_num_rtxs
	.loc 1 703 0 discriminator 2
	movq	-32(%rbp), %rax	# stats, tmp187
	movq	6152(%rax), %rdx	# stats_21(D)->total_size_rtxs, D.12901
	movq	-32(%rbp), %rax	# stats, tmp188
	movl	-4(%rbp), %ecx	# code, tmp190
	movslq	%ecx, %rcx	# tmp190, tmp189
	addq	$512, %rcx	#, tmp191
	movq	(%rax,%rcx,8), %rax	# stats_21(D)->size_rtxs, D.12901
	addq	%rax, %rdx	# D.12901, D.12901
	movq	-32(%rbp), %rax	# stats, tmp192
	movq	%rdx, 6152(%rax)	# D.12901, stats_21(D)->total_size_rtxs
	.loc 1 700 0 discriminator 2
	addl	$1, -4(%rbp)	#, code
.L224:
	.loc 1 700 0 is_stmt 0 discriminator 1
	cmpl	$152, -4(%rbp)	#, code
	jle	.L225	#,
	.loc 1 707 0 is_stmt 1
	movq	-24(%rbp), %rax	# stream, tmp193
	movl	$.LC2, %r9d	#,
	movl	$.LC3, %r8d	#,
	movl	$.LC4, %ecx	#,
	movl	$.LC5, %edx	#,
	movl	$.LC6, %esi	#,
	movq	%rax, %rdi	# tmp193,
	movl	$0, %eax	#,
	call	fprintf	#
	.loc 1 709 0
	movl	$0, -4(%rbp)	#, code
	jmp	.L226	#
.L240:
	.loc 1 710 0
	movq	ggc_stats(%rip), %rax	# ggc_stats, ggc_stats.345
	movl	-4(%rbp), %edx	# code, tmp195
	movslq	%edx, %rdx	# tmp195, tmp194
	movl	(%rax,%rdx,4), %eax	# ggc_stats.345_40->num_trees, D.12900
	testl	%eax, %eax	# D.12900
	je	.L227	#,
	.loc 1 717 0
	movq	ggc_stats(%rip), %rax	# ggc_stats, ggc_stats.346
	movl	-4(%rbp), %edx	# code, tmp197
	movslq	%edx, %rdx	# tmp197, tmp196
	subq	$-128, %rdx	#, tmp198
	movq	(%rax,%rdx,8), %rax	# ggc_stats.346_42->size_trees, D.12901
	testq	%rax, %rax	# D.12901
	js	.L228	#,
	cvtsi2sdq	%rax, %xmm0	# D.12901, D.12902
	jmp	.L229	#
.L228:
	movq	%rax, %rdx	# D.12901, tmp200
	shrq	%rdx	# tmp200
	andl	$1, %eax	#, tmp201
	orq	%rax, %rdx	# tmp201, tmp200
	cvtsi2sdq	%rdx, %xmm0	# tmp200, tmp199
	addsd	%xmm0, %xmm0	# tmp199, D.12902
.L229:
	movsd	.LC7(%rip), %xmm1	#, tmp202
	mulsd	%xmm0, %xmm1	# D.12902, D.12902
	.loc 1 718 0
	movq	ggc_stats(%rip), %rax	# ggc_stats, ggc_stats.347
	movq	6144(%rax), %rax	# ggc_stats.347_46->total_size_trees, D.12901
	.loc 1 712 0
	testq	%rax, %rax	# D.12901
	js	.L230	#,
	cvtsi2sdq	%rax, %xmm0	# D.12901, D.12902
	jmp	.L231	#
.L230:
	movq	%rax, %rdx	# D.12901, tmp204
	shrq	%rdx	# tmp204
	andl	$1, %eax	#, tmp205
	orq	%rax, %rdx	# tmp205, tmp204
	cvtsi2sdq	%rdx, %xmm0	# tmp204, tmp203
	addsd	%xmm0, %xmm0	# tmp203, D.12902
.L231:
	divsd	%xmm0, %xmm1	# D.12902, D.12902
	movapd	%xmm1, %xmm0	# D.12902, D.12902
	.loc 1 716 0
	movq	ggc_stats(%rip), %rax	# ggc_stats, ggc_stats.349
	movl	-4(%rbp), %edx	# code, tmp207
	movslq	%edx, %rdx	# tmp207, tmp206
	subq	$-128, %rdx	#, tmp208
	movq	(%rax,%rdx,8), %rax	# ggc_stats.349_50->size_trees, D.12901
	.loc 1 712 0
	cmpq	$10239, %rax	#, D.12901
	jbe	.L232	#,
	.loc 1 716 0
	movq	ggc_stats(%rip), %rax	# ggc_stats, ggc_stats.351
	movl	-4(%rbp), %edx	# code, tmp210
	movslq	%edx, %rdx	# tmp210, tmp209
	subq	$-128, %rdx	#, tmp211
	movq	(%rax,%rdx,8), %rax	# ggc_stats.351_52->size_trees, D.12901
	cmpq	$10485759, %rax	#, D.12901
	ja	.L233	#,
	.loc 1 716 0 is_stmt 0 discriminator 1
	movl	$107, %eax	#, iftmp.350
	jmp	.L234	#
.L233:
	.loc 1 716 0 discriminator 2
	movl	$77, %eax	#, iftmp.350
.L234:
	.loc 1 712 0 is_stmt 1 discriminator 1
	movl	%eax, %edx	# iftmp.350, iftmp.348
	jmp	.L235	#
.L232:
	movl	$32, %edx	#, iftmp.348
.L235:
	.loc 1 715 0 discriminator 2
	movq	ggc_stats(%rip), %rax	# ggc_stats, ggc_stats.353
	movl	-4(%rbp), %ecx	# code, tmp213
	movslq	%ecx, %rcx	# tmp213, tmp212
	subq	$-128, %rcx	#, tmp214
	movq	(%rax,%rcx,8), %rax	# ggc_stats.353_58->size_trees, D.12901
	.loc 1 712 0 discriminator 2
	cmpq	$10239, %rax	#, D.12901
	ja	.L236	#,
	.loc 1 715 0
	movq	ggc_stats(%rip), %rax	# ggc_stats, ggc_stats.354
	.loc 1 712 0
	movl	-4(%rbp), %ecx	# code, tmp216
	movslq	%ecx, %rcx	# tmp216, tmp215
	subq	$-128, %rcx	#, tmp217
	movq	(%rax,%rcx,8), %rax	# ggc_stats.354_60->size_trees, iftmp.352
	jmp	.L237	#
.L236:
	.loc 1 715 0
	movq	ggc_stats(%rip), %rax	# ggc_stats, ggc_stats.356
	movl	-4(%rbp), %ecx	# code, tmp219
	movslq	%ecx, %rcx	# tmp219, tmp218
	subq	$-128, %rcx	#, tmp220
	movq	(%rax,%rcx,8), %rax	# ggc_stats.356_62->size_trees, D.12901
	cmpq	$10485759, %rax	#, D.12901
	ja	.L238	#,
	.loc 1 715 0 is_stmt 0 discriminator 1
	movq	ggc_stats(%rip), %rax	# ggc_stats, ggc_stats.357
	movl	-4(%rbp), %ecx	# code, tmp222
	movslq	%ecx, %rcx	# tmp222, tmp221
	subq	$-128, %rcx	#, tmp223
	movq	(%rax,%rcx,8), %rax	# ggc_stats.357_64->size_trees, D.12901
	shrq	$10, %rax	#, iftmp.355
	jmp	.L237	#
.L238:
	.loc 1 715 0 discriminator 2
	movq	ggc_stats(%rip), %rax	# ggc_stats, ggc_stats.358
	movl	-4(%rbp), %ecx	# code, tmp225
	movslq	%ecx, %rcx	# tmp225, tmp224
	subq	$-128, %rcx	#, tmp226
	movq	(%rax,%rcx,8), %rax	# ggc_stats.358_67->size_trees, D.12901
	shrq	$20, %rax	#, iftmp.355
.L237:
	.loc 1 714 0 is_stmt 1 discriminator 3
	movq	ggc_stats(%rip), %rcx	# ggc_stats, ggc_stats.359
	.loc 1 712 0 discriminator 3
	movl	-4(%rbp), %esi	# code, tmp228
	movslq	%esi, %rsi	# tmp228, tmp227
	movl	(%rcx,%rsi,4), %ecx	# ggc_stats.359_71->num_trees, D.12900
	movl	-4(%rbp), %esi	# code, tmp230
	movslq	%esi, %rsi	# tmp230, tmp229
	movq	tree_code_name(,%rsi,8), %rsi	# tree_code_name, D.12903
	movq	-24(%rbp), %rdi	# stream, tmp231
	movl	%edx, %r9d	# iftmp.348,
	movq	%rax, %r8	# iftmp.352,
	movq	%rsi, %rdx	# D.12903,
	movl	$.LC8, %esi	#,
	movl	$1, %eax	#,
	call	fprintf	#
.L227:
	.loc 1 709 0
	addl	$1, -4(%rbp)	#, code
.L226:
	.loc 1 709 0 is_stmt 0 discriminator 1
	cmpl	$255, -4(%rbp)	#, code
	jle	.L240	#,
	.loc 1 724 0 is_stmt 1
	movq	ggc_stats(%rip), %rax	# ggc_stats, ggc_stats.361
	movq	6144(%rax), %rax	# ggc_stats.361_75->total_size_trees, D.12901
	.loc 1 720 0
	cmpq	$10239, %rax	#, D.12901
	jbe	.L241	#,
	.loc 1 724 0
	movq	ggc_stats(%rip), %rax	# ggc_stats, ggc_stats.363
	movq	6144(%rax), %rax	# ggc_stats.363_77->total_size_trees, D.12901
	cmpq	$10485759, %rax	#, D.12901
	ja	.L242	#,
	.loc 1 724 0 is_stmt 0 discriminator 1
	movl	$107, %eax	#, iftmp.362
	jmp	.L243	#
.L242:
	.loc 1 724 0 discriminator 2
	movl	$77, %eax	#, iftmp.362
.L243:
	.loc 1 720 0 is_stmt 1 discriminator 2
	movl	%eax, %edx	# iftmp.362, iftmp.360
	jmp	.L244	#
.L241:
	.loc 1 720 0 is_stmt 0 discriminator 1
	movl	$32, %edx	#, iftmp.360
.L244:
	.loc 1 723 0 is_stmt 1 discriminator 2
	movq	ggc_stats(%rip), %rax	# ggc_stats, ggc_stats.365
	movq	6144(%rax), %rax	# ggc_stats.365_83->total_size_trees, D.12901
	.loc 1 720 0 discriminator 2
	cmpq	$10239, %rax	#, D.12901
	ja	.L245	#,
	.loc 1 723 0
	movq	ggc_stats(%rip), %rax	# ggc_stats, ggc_stats.366
	.loc 1 720 0
	movq	6144(%rax), %rax	# ggc_stats.366_85->total_size_trees, iftmp.364
	jmp	.L246	#
.L245:
	.loc 1 723 0
	movq	ggc_stats(%rip), %rax	# ggc_stats, ggc_stats.368
	movq	6144(%rax), %rax	# ggc_stats.368_87->total_size_trees, D.12901
	cmpq	$10485759, %rax	#, D.12901
	ja	.L247	#,
	.loc 1 723 0 is_stmt 0 discriminator 1
	movq	ggc_stats(%rip), %rax	# ggc_stats, ggc_stats.369
	movq	6144(%rax), %rax	# ggc_stats.369_89->total_size_trees, D.12901
	shrq	$10, %rax	#, iftmp.367
	jmp	.L246	#
.L247:
	.loc 1 723 0 discriminator 2
	movq	ggc_stats(%rip), %rax	# ggc_stats, ggc_stats.370
	movq	6144(%rax), %rax	# ggc_stats.370_92->total_size_trees, D.12901
	shrq	$20, %rax	#, iftmp.367
.L246:
	.loc 1 722 0 is_stmt 1
	movq	ggc_stats(%rip), %rcx	# ggc_stats, ggc_stats.371
	.loc 1 720 0
	movl	6160(%rcx), %ecx	# ggc_stats.371_96->total_num_trees, D.12900
	movq	-24(%rbp), %rdi	# stream, tmp232
	movl	%edx, %r9d	# iftmp.360,
	movq	%rax, %r8	# iftmp.364,
	movl	$.LC9, %edx	#,
	movl	$.LC10, %esi	#,
	movl	$0, %eax	#,
	call	fprintf	#
	.loc 1 727 0
	movq	-24(%rbp), %rax	# stream, tmp233
	movl	$.LC2, %r9d	#,
	movl	$.LC3, %r8d	#,
	movl	$.LC4, %ecx	#,
	movl	$.LC11, %edx	#,
	movl	$.LC6, %esi	#,
	movq	%rax, %rdi	# tmp233,
	movl	$0, %eax	#,
	call	fprintf	#
	.loc 1 729 0
	movl	$0, -4(%rbp)	#, code
	jmp	.L249	#
.L263:
	.loc 1 730 0
	movq	ggc_stats(%rip), %rax	# ggc_stats, ggc_stats.372
	movl	-4(%rbp), %edx	# code, tmp235
	movslq	%edx, %rdx	# tmp235, tmp234
	addq	$768, %rdx	#, tmp236
	movl	(%rax,%rdx,4), %eax	# ggc_stats.372_99->num_rtxs, D.12900
	testl	%eax, %eax	# D.12900
	je	.L250	#,
	.loc 1 737 0
	movq	ggc_stats(%rip), %rax	# ggc_stats, ggc_stats.373
	movl	-4(%rbp), %edx	# code, tmp238
	movslq	%edx, %rdx	# tmp238, tmp237
	addq	$512, %rdx	#, tmp239
	movq	(%rax,%rdx,8), %rax	# ggc_stats.373_101->size_rtxs, D.12901
	testq	%rax, %rax	# D.12901
	js	.L251	#,
	cvtsi2sdq	%rax, %xmm0	# D.12901, D.12902
	jmp	.L252	#
.L251:
	movq	%rax, %rdx	# D.12901, tmp241
	shrq	%rdx	# tmp241
	andl	$1, %eax	#, tmp242
	orq	%rax, %rdx	# tmp242, tmp241
	cvtsi2sdq	%rdx, %xmm0	# tmp241, tmp240
	addsd	%xmm0, %xmm0	# tmp240, D.12902
.L252:
	movsd	.LC7(%rip), %xmm1	#, tmp243
	mulsd	%xmm0, %xmm1	# D.12902, D.12902
	.loc 1 738 0
	movq	ggc_stats(%rip), %rax	# ggc_stats, ggc_stats.374
	movq	6152(%rax), %rax	# ggc_stats.374_105->total_size_rtxs, D.12901
	.loc 1 732 0
	testq	%rax, %rax	# D.12901
	js	.L253	#,
	cvtsi2sdq	%rax, %xmm0	# D.12901, D.12902
	jmp	.L254	#
.L253:
	movq	%rax, %rdx	# D.12901, tmp245
	shrq	%rdx	# tmp245
	andl	$1, %eax	#, tmp246
	orq	%rax, %rdx	# tmp246, tmp245
	cvtsi2sdq	%rdx, %xmm0	# tmp245, tmp244
	addsd	%xmm0, %xmm0	# tmp244, D.12902
.L254:
	divsd	%xmm0, %xmm1	# D.12902, D.12902
	movapd	%xmm1, %xmm0	# D.12902, D.12902
	.loc 1 736 0
	movq	ggc_stats(%rip), %rax	# ggc_stats, ggc_stats.376
	movl	-4(%rbp), %edx	# code, tmp248
	movslq	%edx, %rdx	# tmp248, tmp247
	addq	$512, %rdx	#, tmp249
	movq	(%rax,%rdx,8), %rax	# ggc_stats.376_109->size_rtxs, D.12901
	.loc 1 732 0
	cmpq	$10239, %rax	#, D.12901
	jbe	.L255	#,
	.loc 1 736 0
	movq	ggc_stats(%rip), %rax	# ggc_stats, ggc_stats.378
	movl	-4(%rbp), %edx	# code, tmp251
	movslq	%edx, %rdx	# tmp251, tmp250
	addq	$512, %rdx	#, tmp252
	movq	(%rax,%rdx,8), %rax	# ggc_stats.378_111->size_rtxs, D.12901
	cmpq	$10485759, %rax	#, D.12901
	ja	.L256	#,
	.loc 1 736 0 is_stmt 0 discriminator 1
	movl	$107, %eax	#, iftmp.377
	jmp	.L257	#
.L256:
	.loc 1 736 0 discriminator 2
	movl	$77, %eax	#, iftmp.377
.L257:
	.loc 1 732 0 is_stmt 1 discriminator 3
	movl	%eax, %edx	# iftmp.377, iftmp.375
	jmp	.L258	#
.L255:
	.loc 1 732 0 is_stmt 0 discriminator 1
	movl	$32, %edx	#, iftmp.375
.L258:
	.loc 1 735 0 is_stmt 1 discriminator 2
	movq	ggc_stats(%rip), %rax	# ggc_stats, ggc_stats.380
	movl	-4(%rbp), %ecx	# code, tmp254
	movslq	%ecx, %rcx	# tmp254, tmp253
	addq	$512, %rcx	#, tmp255
	movq	(%rax,%rcx,8), %rax	# ggc_stats.380_117->size_rtxs, D.12901
	.loc 1 732 0 discriminator 2
	cmpq	$10239, %rax	#, D.12901
	ja	.L259	#,
	.loc 1 735 0
	movq	ggc_stats(%rip), %rax	# ggc_stats, ggc_stats.381
	.loc 1 732 0
	movl	-4(%rbp), %ecx	# code, tmp257
	movslq	%ecx, %rcx	# tmp257, tmp256
	addq	$512, %rcx	#, tmp258
	movq	(%rax,%rcx,8), %rax	# ggc_stats.381_119->size_rtxs, iftmp.379
	jmp	.L260	#
.L259:
	.loc 1 735 0
	movq	ggc_stats(%rip), %rax	# ggc_stats, ggc_stats.383
	movl	-4(%rbp), %ecx	# code, tmp260
	movslq	%ecx, %rcx	# tmp260, tmp259
	addq	$512, %rcx	#, tmp261
	movq	(%rax,%rcx,8), %rax	# ggc_stats.383_121->size_rtxs, D.12901
	cmpq	$10485759, %rax	#, D.12901
	ja	.L261	#,
	.loc 1 735 0 is_stmt 0 discriminator 1
	movq	ggc_stats(%rip), %rax	# ggc_stats, ggc_stats.384
	movl	-4(%rbp), %ecx	# code, tmp263
	movslq	%ecx, %rcx	# tmp263, tmp262
	addq	$512, %rcx	#, tmp264
	movq	(%rax,%rcx,8), %rax	# ggc_stats.384_123->size_rtxs, D.12901
	shrq	$10, %rax	#, iftmp.382
	jmp	.L260	#
.L261:
	.loc 1 735 0 discriminator 2
	movq	ggc_stats(%rip), %rax	# ggc_stats, ggc_stats.385
	movl	-4(%rbp), %ecx	# code, tmp266
	movslq	%ecx, %rcx	# tmp266, tmp265
	addq	$512, %rcx	#, tmp267
	movq	(%rax,%rcx,8), %rax	# ggc_stats.385_126->size_rtxs, D.12901
	shrq	$20, %rax	#, iftmp.382
.L260:
	.loc 1 734 0 is_stmt 1 discriminator 3
	movq	ggc_stats(%rip), %rcx	# ggc_stats, ggc_stats.386
	.loc 1 732 0 discriminator 3
	movl	-4(%rbp), %esi	# code, tmp269
	movslq	%esi, %rsi	# tmp269, tmp268
	addq	$768, %rsi	#, tmp270
	movl	(%rcx,%rsi,4), %ecx	# ggc_stats.386_130->num_rtxs, D.12900
	movl	-4(%rbp), %esi	# code, tmp272
	movslq	%esi, %rsi	# tmp272, tmp271
	movq	rtx_name(,%rsi,8), %rsi	# rtx_name, D.12903
	movq	-24(%rbp), %rdi	# stream, tmp273
	movl	%edx, %r9d	# iftmp.375,
	movq	%rax, %r8	# iftmp.379,
	movq	%rsi, %rdx	# D.12903,
	movl	$.LC8, %esi	#,
	movl	$1, %eax	#,
	call	fprintf	#
.L250:
	.loc 1 729 0
	addl	$1, -4(%rbp)	#, code
.L249:
	.loc 1 729 0 is_stmt 0 discriminator 1
	cmpl	$152, -4(%rbp)	#, code
	jle	.L263	#,
	.loc 1 744 0 is_stmt 1
	movq	ggc_stats(%rip), %rax	# ggc_stats, ggc_stats.388
	movq	6152(%rax), %rax	# ggc_stats.388_134->total_size_rtxs, D.12901
	.loc 1 740 0
	cmpq	$10239, %rax	#, D.12901
	jbe	.L264	#,
	.loc 1 744 0
	movq	ggc_stats(%rip), %rax	# ggc_stats, ggc_stats.390
	movq	6152(%rax), %rax	# ggc_stats.390_136->total_size_rtxs, D.12901
	cmpq	$10485759, %rax	#, D.12901
	ja	.L265	#,
	.loc 1 744 0 is_stmt 0 discriminator 1
	movl	$107, %eax	#, iftmp.389
	jmp	.L266	#
.L265:
	.loc 1 744 0 discriminator 2
	movl	$77, %eax	#, iftmp.389
.L266:
	.loc 1 740 0 is_stmt 1 discriminator 4
	movl	%eax, %edx	# iftmp.389, iftmp.387
	jmp	.L267	#
.L264:
	.loc 1 740 0 is_stmt 0 discriminator 1
	movl	$32, %edx	#, iftmp.387
.L267:
	.loc 1 743 0 is_stmt 1 discriminator 2
	movq	ggc_stats(%rip), %rax	# ggc_stats, ggc_stats.392
	movq	6152(%rax), %rax	# ggc_stats.392_142->total_size_rtxs, D.12901
	.loc 1 740 0 discriminator 2
	cmpq	$10239, %rax	#, D.12901
	ja	.L268	#,
	.loc 1 743 0
	movq	ggc_stats(%rip), %rax	# ggc_stats, ggc_stats.393
	.loc 1 740 0
	movq	6152(%rax), %rax	# ggc_stats.393_144->total_size_rtxs, iftmp.391
	jmp	.L269	#
.L268:
	.loc 1 743 0
	movq	ggc_stats(%rip), %rax	# ggc_stats, ggc_stats.395
	movq	6152(%rax), %rax	# ggc_stats.395_146->total_size_rtxs, D.12901
	cmpq	$10485759, %rax	#, D.12901
	ja	.L270	#,
	.loc 1 743 0 is_stmt 0 discriminator 1
	movq	ggc_stats(%rip), %rax	# ggc_stats, ggc_stats.396
	movq	6152(%rax), %rax	# ggc_stats.396_148->total_size_rtxs, D.12901
	shrq	$10, %rax	#, iftmp.394
	jmp	.L269	#
.L270:
	.loc 1 743 0 discriminator 2
	movq	ggc_stats(%rip), %rax	# ggc_stats, ggc_stats.397
	movq	6152(%rax), %rax	# ggc_stats.397_151->total_size_rtxs, D.12901
	shrq	$20, %rax	#, iftmp.394
.L269:
	.loc 1 742 0 is_stmt 1
	movq	ggc_stats(%rip), %rcx	# ggc_stats, ggc_stats.398
	.loc 1 740 0
	movl	6164(%rcx), %ecx	# ggc_stats.398_155->total_num_rtxs, D.12900
	movq	-24(%rbp), %rdi	# stream, tmp274
	movl	%edx, %r9d	# iftmp.387,
	movq	%rax, %r8	# iftmp.391,
	movl	$.LC9, %edx	#,
	movl	$.LC10, %esi	#,
	movl	$0, %eax	#,
	call	fprintf	#
	.loc 1 747 0
	movq	$0, ggc_stats(%rip)	#, ggc_stats
	.loc 1 748 0
	leave
	.cfi_def_cfa 7, 8
	ret
	.cfi_endproc
.LFE26:
	.size	ggc_print_common_statistics, .-ggc_print_common_statistics
	.section	.rodata
	.type	__FUNCTION__.11246, @object
	.size	__FUNCTION__.11246, 13
__FUNCTION__.11246:
	.string	"ggc_del_root"
	.align 8
.LC7:
	.long	0
	.long	1079574528
	.text
.Letext0:
	.file 2 "rtl.h"
	.file 3 "config.h"
	.file 4 "tree.h"
	.file 5 "/usr/lib/gcc/x86_64-linux-gnu/4.8/include/stddef.h"
	.file 6 "/usr/include/x86_64-linux-gnu/bits/types.h"
	.file 7 "/usr/include/stdio.h"
	.file 8 "/usr/include/libio.h"
	.file 9 "machmode.h"
	.file 10 "real.h"
	.file 11 "obstack.h"
	.file 12 "hashtable.h"
	.file 13 "hash.h"
	.file 14 "hashtab.h"
	.file 15 "varray.h"
	.file 16 "ggc.h"
	.section	.note.GNU-stack,"",@progbits
