	.file	"insn-emit.c"
# GNU C (Ubuntu/Linaro 4.8.1-10ubuntu9) version 4.8.1 (x86_64-linux-gnu)
#	compiled by GNU C version 4.8.1, GMP version 5.1.2, MPFR version 3.1.1-p2, MPC version 1.0.1
# GGC heuristics: --param ggc-min-expand=100 --param ggc-min-heapsize=131072
# options passed:  -I . -imultiarch x86_64-linux-gnu -D SPEC_CPU -D NDEBUG
# -D SPEC_CPU_LP64 insn-emit.c -mtune=generic -march=x86-64 -g
# -fverbose-asm -fno-strict-aliasing -fstack-protector -Wformat
# -Wformat-security
# options enabled:  -faggressive-loop-optimizations
# -fasynchronous-unwind-tables -fauto-inc-dec -fbranch-count-reg -fcommon
# -fdelete-null-pointer-checks -fdwarf2-cfi-asm -fearly-inlining
# -feliminate-unused-debug-types -ffunction-cse -fgcse-lm -fgnu-runtime
# -fident -finline-atomics -fira-hoist-pressure -fira-share-save-slots
# -fira-share-spill-slots -fivopts -fkeep-static-consts
# -fleading-underscore -fmath-errno -fmerge-debug-strings
# -fmove-loop-invariants -fpeephole -fprefetch-loop-arrays
# -freg-struct-return -fsched-critical-path-heuristic
# -fsched-dep-count-heuristic -fsched-group-heuristic -fsched-interblock
# -fsched-last-insn-heuristic -fsched-rank-heuristic -fsched-spec
# -fsched-spec-insn-heuristic -fsched-stalled-insns-dep -fshow-column
# -fsigned-zeros -fsplit-ivs-in-unroller -fstack-protector
# -fstrict-volatile-bitfields -fsync-libcalls -ftrapping-math
# -ftree-coalesce-vars -ftree-cselim -ftree-forwprop -ftree-loop-if-convert
# -ftree-loop-im -ftree-loop-ivcanon -ftree-loop-optimize
# -ftree-parallelize-loops= -ftree-phiprop -ftree-pta -ftree-reassoc
# -ftree-scev-cprop -ftree-slp-vectorize -ftree-vect-loop-version
# -funit-at-a-time -funwind-tables -fverbose-asm -fzero-initialized-in-bss
# -m128bit-long-double -m64 -m80387 -maccumulate-outgoing-args
# -malign-stringops -mfancy-math-387 -mfp-ret-in-387 -mfxsr -mglibc
# -mieee-fp -mlong-double-80 -mmmx -mno-sse4 -mpush-args -mred-zone -msse
# -msse2 -mtls-direct-seg-refs

	.text
.Ltext0:
	.globl	gen_cmpdi_ccno_1_rex64
	.type	gen_cmpdi_ccno_1_rex64, @function
gen_cmpdi_ccno_1_rex64:
.LFB2:
	.file 1 "insn-emit.c"
	.loc 1 28 0
	.cfi_startproc
	pushq	%rbp	#
	.cfi_def_cfa_offset 16
	.cfi_offset 6, -16
	movq	%rsp, %rbp	#,
	.cfi_def_cfa_register 6
	pushq	%rbx	#
	subq	$24, %rsp	#,
	.cfi_offset 3, -24
	movq	%rdi, -24(%rbp)	# operand0, operand0
	movq	%rsi, -32(%rbp)	# operand1, operand1
	.loc 1 29 0
	movq	-32(%rbp), %rdx	# operand1, tmp63
	movq	-24(%rbp), %rax	# operand0, tmp64
	movq	%rdx, %rcx	# tmp63,
	movq	%rax, %rdx	# tmp64,
	movl	$0, %esi	#,
	movl	$74, %edi	#,
	call	gen_rtx_fmt_ee	#
	movq	%rax, %rbx	#, D.27141
	movl	$17, %esi	#,
	movl	$0, %edi	#,
	call	gen_rtx_REG	#
	movq	%rbx, %rcx	# D.27141,
	movq	%rax, %rdx	# D.27141,
	movl	$0, %esi	#,
	movl	$47, %edi	#,
	call	gen_rtx_fmt_ee	#
	.loc 1 35 0
	addq	$24, %rsp	#,
	popq	%rbx	#
	popq	%rbp	#
	.cfi_def_cfa 7, 8
	ret
	.cfi_endproc
.LFE2:
	.size	gen_cmpdi_ccno_1_rex64, .-gen_cmpdi_ccno_1_rex64
	.globl	gen_cmpdi_1_insn_rex64
	.type	gen_cmpdi_1_insn_rex64, @function
gen_cmpdi_1_insn_rex64:
.LFB3:
	.loc 1 41 0
	.cfi_startproc
	pushq	%rbp	#
	.cfi_def_cfa_offset 16
	.cfi_offset 6, -16
	movq	%rsp, %rbp	#,
	.cfi_def_cfa_register 6
	pushq	%rbx	#
	subq	$24, %rsp	#,
	.cfi_offset 3, -24
	movq	%rdi, -24(%rbp)	# operand0, operand0
	movq	%rsi, -32(%rbp)	# operand1, operand1
	.loc 1 42 0
	movq	-32(%rbp), %rdx	# operand1, tmp63
	movq	-24(%rbp), %rax	# operand0, tmp64
	movq	%rdx, %rcx	# tmp63,
	movq	%rax, %rdx	# tmp64,
	movl	$0, %esi	#,
	movl	$74, %edi	#,
	call	gen_rtx_fmt_ee	#
	movq	%rax, %rbx	#, D.27142
	movl	$17, %esi	#,
	movl	$0, %edi	#,
	call	gen_rtx_REG	#
	movq	%rbx, %rcx	# D.27142,
	movq	%rax, %rdx	# D.27142,
	movl	$0, %esi	#,
	movl	$47, %edi	#,
	call	gen_rtx_fmt_ee	#
	.loc 1 48 0
	addq	$24, %rsp	#,
	popq	%rbx	#
	popq	%rbp	#
	.cfi_def_cfa 7, 8
	ret
	.cfi_endproc
.LFE3:
	.size	gen_cmpdi_1_insn_rex64, .-gen_cmpdi_1_insn_rex64
	.globl	gen_cmpqi_ext_3_insn
	.type	gen_cmpqi_ext_3_insn, @function
gen_cmpqi_ext_3_insn:
.LFB4:
	.loc 1 54 0
	.cfi_startproc
	pushq	%rbp	#
	.cfi_def_cfa_offset 16
	.cfi_offset 6, -16
	movq	%rsp, %rbp	#,
	.cfi_def_cfa_register 6
	pushq	%rbx	#
	subq	$24, %rsp	#,
	.cfi_offset 3, -24
	movq	%rdi, -24(%rbp)	# operand0, operand0
	movq	%rsi, -32(%rbp)	# operand1, operand1
	.loc 1 55 0
	movl	$8, %esi	#,
	movl	$0, %edi	#,
	call	gen_rtx_CONST_INT	#
	movq	%rax, %rbx	#, D.27143
	movl	$8, %esi	#,
	movl	$0, %edi	#,
	call	gen_rtx_CONST_INT	#
	movq	%rax, %rdx	#, D.27143
	movq	-24(%rbp), %rax	# operand0, tmp67
	movq	%rbx, %r8	# D.27143,
	movq	%rdx, %rcx	# D.27143,
	movq	%rax, %rdx	# tmp67,
	movl	$4, %esi	#,
	movl	$133, %edi	#,
	call	gen_rtx_fmt_eee	#
	movl	$0, %edx	#,
	movq	%rax, %rsi	# D.27143,
	movl	$2, %edi	#,
	call	gen_rtx_SUBREG	#
	movq	-32(%rbp), %rdx	# operand1, tmp68
	movq	%rdx, %rcx	# tmp68,
	movq	%rax, %rdx	# D.27143,
	movl	$0, %esi	#,
	movl	$74, %edi	#,
	call	gen_rtx_fmt_ee	#
	movq	%rax, %rbx	#, D.27143
	movl	$17, %esi	#,
	movl	$0, %edi	#,
	call	gen_rtx_REG	#
	movq	%rbx, %rcx	# D.27143,
	movq	%rax, %rdx	# D.27143,
	movl	$0, %esi	#,
	movl	$47, %edi	#,
	call	gen_rtx_fmt_ee	#
	.loc 1 66 0
	addq	$24, %rsp	#,
	popq	%rbx	#
	popq	%rbp	#
	.cfi_def_cfa 7, 8
	ret
	.cfi_endproc
.LFE4:
	.size	gen_cmpqi_ext_3_insn, .-gen_cmpqi_ext_3_insn
	.globl	gen_cmpqi_ext_3_insn_rex64
	.type	gen_cmpqi_ext_3_insn_rex64, @function
gen_cmpqi_ext_3_insn_rex64:
.LFB5:
	.loc 1 72 0
	.cfi_startproc
	pushq	%rbp	#
	.cfi_def_cfa_offset 16
	.cfi_offset 6, -16
	movq	%rsp, %rbp	#,
	.cfi_def_cfa_register 6
	pushq	%rbx	#
	subq	$24, %rsp	#,
	.cfi_offset 3, -24
	movq	%rdi, -24(%rbp)	# operand0, operand0
	movq	%rsi, -32(%rbp)	# operand1, operand1
	.loc 1 73 0
	movl	$8, %esi	#,
	movl	$0, %edi	#,
	call	gen_rtx_CONST_INT	#
	movq	%rax, %rbx	#, D.27144
	movl	$8, %esi	#,
	movl	$0, %edi	#,
	call	gen_rtx_CONST_INT	#
	movq	%rax, %rdx	#, D.27144
	movq	-24(%rbp), %rax	# operand0, tmp67
	movq	%rbx, %r8	# D.27144,
	movq	%rdx, %rcx	# D.27144,
	movq	%rax, %rdx	# tmp67,
	movl	$4, %esi	#,
	movl	$133, %edi	#,
	call	gen_rtx_fmt_eee	#
	movl	$0, %edx	#,
	movq	%rax, %rsi	# D.27144,
	movl	$2, %edi	#,
	call	gen_rtx_SUBREG	#
	movq	-32(%rbp), %rdx	# operand1, tmp68
	movq	%rdx, %rcx	# tmp68,
	movq	%rax, %rdx	# D.27144,
	movl	$0, %esi	#,
	movl	$74, %edi	#,
	call	gen_rtx_fmt_ee	#
	movq	%rax, %rbx	#, D.27144
	movl	$17, %esi	#,
	movl	$0, %edi	#,
	call	gen_rtx_REG	#
	movq	%rbx, %rcx	# D.27144,
	movq	%rax, %rdx	# D.27144,
	movl	$0, %esi	#,
	movl	$47, %edi	#,
	call	gen_rtx_fmt_ee	#
	.loc 1 84 0
	addq	$24, %rsp	#,
	popq	%rbx	#
	popq	%rbp	#
	.cfi_def_cfa 7, 8
	ret
	.cfi_endproc
.LFE5:
	.size	gen_cmpqi_ext_3_insn_rex64, .-gen_cmpqi_ext_3_insn_rex64
	.globl	gen_x86_fnstsw_1
	.type	gen_x86_fnstsw_1, @function
gen_x86_fnstsw_1:
.LFB6:
	.loc 1 89 0
	.cfi_startproc
	pushq	%rbp	#
	.cfi_def_cfa_offset 16
	.cfi_offset 6, -16
	movq	%rsp, %rbp	#,
	.cfi_def_cfa_register 6
	subq	$16, %rsp	#,
	movq	%rdi, -8(%rbp)	# operand0, operand0
	.loc 1 90 0
	movl	$18, %esi	#,
	movl	$0, %edi	#,
	call	gen_rtx_REG	#
	movq	%rax, %rsi	# D.27145,
	movl	$1, %edi	#,
	movl	$0, %eax	#,
	call	gen_rtvec	#
	movl	$9, %ecx	#,
	movq	%rax, %rdx	# D.27146,
	movl	$3, %esi	#,
	movl	$42, %edi	#,
	call	gen_rtx_fmt_Ei	#
	movq	%rax, %rdx	#, D.27145
	movq	-8(%rbp), %rax	# operand0, tmp64
	movq	%rdx, %rcx	# D.27145,
	movq	%rax, %rdx	# tmp64,
	movl	$0, %esi	#,
	movl	$47, %edi	#,
	call	gen_rtx_fmt_ee	#
	.loc 1 97 0
	leave
	.cfi_def_cfa 7, 8
	ret
	.cfi_endproc
.LFE6:
	.size	gen_x86_fnstsw_1, .-gen_x86_fnstsw_1
	.globl	gen_x86_sahf_1
	.type	gen_x86_sahf_1, @function
gen_x86_sahf_1:
.LFB7:
	.loc 1 102 0
	.cfi_startproc
	pushq	%rbp	#
	.cfi_def_cfa_offset 16
	.cfi_offset 6, -16
	movq	%rsp, %rbp	#,
	.cfi_def_cfa_register 6
	pushq	%rbx	#
	subq	$24, %rsp	#,
	.cfi_offset 3, -24
	movq	%rdi, -24(%rbp)	# operand0, operand0
	.loc 1 103 0
	movq	-24(%rbp), %rax	# operand0, tmp64
	movq	%rax, %rsi	# tmp64,
	movl	$1, %edi	#,
	movl	$0, %eax	#,
	call	gen_rtvec	#
	movl	$10, %ecx	#,
	movq	%rax, %rdx	# D.27147,
	movl	$52, %esi	#,
	movl	$42, %edi	#,
	call	gen_rtx_fmt_Ei	#
	movq	%rax, %rbx	#, D.27148
	movl	$17, %esi	#,
	movl	$52, %edi	#,
	call	gen_rtx_REG	#
	movq	%rbx, %rcx	# D.27148,
	movq	%rax, %rdx	# D.27148,
	movl	$0, %esi	#,
	movl	$47, %edi	#,
	call	gen_rtx_fmt_ee	#
	.loc 1 110 0
	addq	$24, %rsp	#,
	popq	%rbx	#
	popq	%rbp	#
	.cfi_def_cfa 7, 8
	ret
	.cfi_endproc
.LFE7:
	.size	gen_x86_sahf_1, .-gen_x86_sahf_1
	.globl	gen_popsi1
	.type	gen_popsi1, @function
gen_popsi1:
.LFB8:
	.loc 1 115 0
	.cfi_startproc
	pushq	%rbp	#
	.cfi_def_cfa_offset 16
	.cfi_offset 6, -16
	movq	%rsp, %rbp	#,
	.cfi_def_cfa_register 6
	pushq	%rbx	#
	subq	$24, %rsp	#,
	.cfi_offset 3, -24
	movq	%rdi, -24(%rbp)	# operand0, operand0
	.loc 1 116 0
	movl	$4, %esi	#,
	movl	$0, %edi	#,
	call	gen_rtx_CONST_INT	#
	movq	%rax, %rbx	#, D.27149
	movl	$7, %esi	#,
	movl	$4, %edi	#,
	call	gen_rtx_REG	#
	movq	%rbx, %rcx	# D.27149,
	movq	%rax, %rdx	# D.27149,
	movl	$4, %esi	#,
	movl	$75, %edi	#,
	call	gen_rtx_fmt_ee	#
	movq	%rax, %rbx	#, D.27149
	movl	$7, %esi	#,
	movl	$4, %edi	#,
	call	gen_rtx_REG	#
	movq	%rbx, %rcx	# D.27149,
	movq	%rax, %rdx	# D.27149,
	movl	$0, %esi	#,
	movl	$47, %edi	#,
	call	gen_rtx_fmt_ee	#
	movq	%rax, %rbx	#, D.27149
	movl	$7, %esi	#,
	movl	$4, %edi	#,
	call	gen_rtx_REG	#
	movq	%rax, %rsi	# D.27149,
	movl	$4, %edi	#,
	call	gen_rtx_MEM	#
	movq	%rax, %rdx	#, D.27149
	movq	-24(%rbp), %rax	# operand0, tmp70
	movq	%rdx, %rcx	# D.27149,
	movq	%rax, %rdx	# tmp70,
	movl	$0, %esi	#,
	movl	$47, %edi	#,
	call	gen_rtx_fmt_ee	#
	movq	%rbx, %rdx	# D.27149,
	movq	%rax, %rsi	# D.27149,
	movl	$2, %edi	#,
	movl	$0, %eax	#,
	call	gen_rtvec	#
	movq	%rax, %rdx	# D.27150,
	movl	$0, %esi	#,
	movl	$39, %edi	#,
	call	gen_rtx_fmt_E	#
	.loc 1 129 0
	addq	$24, %rsp	#,
	popq	%rbx	#
	popq	%rbp	#
	.cfi_def_cfa 7, 8
	ret
	.cfi_endproc
.LFE8:
	.size	gen_popsi1, .-gen_popsi1
	.globl	gen_movsi_insv_1
	.type	gen_movsi_insv_1, @function
gen_movsi_insv_1:
.LFB9:
	.loc 1 135 0
	.cfi_startproc
	pushq	%rbp	#
	.cfi_def_cfa_offset 16
	.cfi_offset 6, -16
	movq	%rsp, %rbp	#,
	.cfi_def_cfa_register 6
	pushq	%rbx	#
	subq	$24, %rsp	#,
	.cfi_offset 3, -24
	movq	%rdi, -24(%rbp)	# operand0, operand0
	movq	%rsi, -32(%rbp)	# operand1, operand1
	.loc 1 136 0
	movl	$8, %esi	#,
	movl	$0, %edi	#,
	call	gen_rtx_CONST_INT	#
	movq	%rax, %rbx	#, D.27151
	movl	$8, %esi	#,
	movl	$0, %edi	#,
	call	gen_rtx_CONST_INT	#
	movq	%rax, %rdx	#, D.27151
	movq	-24(%rbp), %rax	# operand0, tmp64
	movq	%rbx, %r8	# D.27151,
	movq	%rdx, %rcx	# D.27151,
	movq	%rax, %rdx	# tmp64,
	movl	$4, %esi	#,
	movl	$133, %edi	#,
	call	gen_rtx_fmt_eee	#
	movq	-32(%rbp), %rdx	# operand1, tmp65
	movq	%rdx, %rcx	# tmp65,
	movq	%rax, %rdx	# D.27151,
	movl	$0, %esi	#,
	movl	$47, %edi	#,
	call	gen_rtx_fmt_ee	#
	.loc 1 142 0
	addq	$24, %rsp	#,
	popq	%rbx	#
	popq	%rbp	#
	.cfi_def_cfa 7, 8
	ret
	.cfi_endproc
.LFE9:
	.size	gen_movsi_insv_1, .-gen_movsi_insv_1
	.globl	gen_pushdi2_rex64
	.type	gen_pushdi2_rex64, @function
gen_pushdi2_rex64:
.LFB10:
	.loc 1 148 0
	.cfi_startproc
	pushq	%rbp	#
	.cfi_def_cfa_offset 16
	.cfi_offset 6, -16
	movq	%rsp, %rbp	#,
	.cfi_def_cfa_register 6
	subq	$16, %rsp	#,
	movq	%rdi, -8(%rbp)	# operand0, operand0
	movq	%rsi, -16(%rbp)	# operand1, operand1
	.loc 1 149 0
	movq	-16(%rbp), %rdx	# operand1, tmp61
	movq	-8(%rbp), %rax	# operand0, tmp62
	movq	%rdx, %rcx	# tmp61,
	movq	%rax, %rdx	# tmp62,
	movl	$0, %esi	#,
	movl	$47, %edi	#,
	call	gen_rtx_fmt_ee	#
	.loc 1 152 0
	leave
	.cfi_def_cfa 7, 8
	ret
	.cfi_endproc
.LFE10:
	.size	gen_pushdi2_rex64, .-gen_pushdi2_rex64
	.globl	gen_popdi1
	.type	gen_popdi1, @function
gen_popdi1:
.LFB11:
	.loc 1 157 0
	.cfi_startproc
	pushq	%rbp	#
	.cfi_def_cfa_offset 16
	.cfi_offset 6, -16
	movq	%rsp, %rbp	#,
	.cfi_def_cfa_register 6
	pushq	%rbx	#
	subq	$24, %rsp	#,
	.cfi_offset 3, -24
	movq	%rdi, -24(%rbp)	# operand0, operand0
	.loc 1 158 0
	movl	$8, %esi	#,
	movl	$0, %edi	#,
	call	gen_rtx_CONST_INT	#
	movq	%rax, %rbx	#, D.27153
	movl	$7, %esi	#,
	movl	$5, %edi	#,
	call	gen_rtx_REG	#
	movq	%rbx, %rcx	# D.27153,
	movq	%rax, %rdx	# D.27153,
	movl	$5, %esi	#,
	movl	$75, %edi	#,
	call	gen_rtx_fmt_ee	#
	movq	%rax, %rbx	#, D.27153
	movl	$7, %esi	#,
	movl	$5, %edi	#,
	call	gen_rtx_REG	#
	movq	%rbx, %rcx	# D.27153,
	movq	%rax, %rdx	# D.27153,
	movl	$0, %esi	#,
	movl	$47, %edi	#,
	call	gen_rtx_fmt_ee	#
	movq	%rax, %rbx	#, D.27153
	movl	$7, %esi	#,
	movl	$5, %edi	#,
	call	gen_rtx_REG	#
	movq	%rax, %rsi	# D.27153,
	movl	$5, %edi	#,
	call	gen_rtx_MEM	#
	movq	%rax, %rdx	#, D.27153
	movq	-24(%rbp), %rax	# operand0, tmp70
	movq	%rdx, %rcx	# D.27153,
	movq	%rax, %rdx	# tmp70,
	movl	$0, %esi	#,
	movl	$47, %edi	#,
	call	gen_rtx_fmt_ee	#
	movq	%rbx, %rdx	# D.27153,
	movq	%rax, %rsi	# D.27153,
	movl	$2, %edi	#,
	movl	$0, %eax	#,
	call	gen_rtvec	#
	movq	%rax, %rdx	# D.27154,
	movl	$0, %esi	#,
	movl	$39, %edi	#,
	call	gen_rtx_fmt_E	#
	.loc 1 171 0
	addq	$24, %rsp	#,
	popq	%rbx	#
	popq	%rbp	#
	.cfi_def_cfa 7, 8
	ret
	.cfi_endproc
.LFE11:
	.size	gen_popdi1, .-gen_popdi1
	.globl	gen_swapxf
	.type	gen_swapxf, @function
gen_swapxf:
.LFB12:
	.loc 1 177 0
	.cfi_startproc
	pushq	%rbp	#
	.cfi_def_cfa_offset 16
	.cfi_offset 6, -16
	movq	%rsp, %rbp	#,
	.cfi_def_cfa_register 6
	pushq	%rbx	#
	subq	$24, %rsp	#,
	.cfi_offset 3, -24
	movq	%rdi, -24(%rbp)	# operand0, operand0
	movq	%rsi, -32(%rbp)	# operand1, operand1
	.loc 1 178 0
	movq	-24(%rbp), %rdx	# operand0, tmp64
	movq	-32(%rbp), %rax	# operand1, tmp65
	movq	%rdx, %rcx	# tmp64,
	movq	%rax, %rdx	# tmp65,
	movl	$0, %esi	#,
	movl	$47, %edi	#,
	call	gen_rtx_fmt_ee	#
	movq	%rax, %rbx	#, D.27155
	movq	-32(%rbp), %rdx	# operand1, tmp66
	movq	-24(%rbp), %rax	# operand0, tmp67
	movq	%rdx, %rcx	# tmp66,
	movq	%rax, %rdx	# tmp67,
	movl	$0, %esi	#,
	movl	$47, %edi	#,
	call	gen_rtx_fmt_ee	#
	movq	%rbx, %rdx	# D.27155,
	movq	%rax, %rsi	# D.27155,
	movl	$2, %edi	#,
	movl	$0, %eax	#,
	call	gen_rtvec	#
	movq	%rax, %rdx	# D.27156,
	movl	$0, %esi	#,
	movl	$39, %edi	#,
	call	gen_rtx_fmt_E	#
	.loc 1 185 0
	addq	$24, %rsp	#,
	popq	%rbx	#
	popq	%rbp	#
	.cfi_def_cfa 7, 8
	ret
	.cfi_endproc
.LFE12:
	.size	gen_swapxf, .-gen_swapxf
	.globl	gen_swaptf
	.type	gen_swaptf, @function
gen_swaptf:
.LFB13:
	.loc 1 191 0
	.cfi_startproc
	pushq	%rbp	#
	.cfi_def_cfa_offset 16
	.cfi_offset 6, -16
	movq	%rsp, %rbp	#,
	.cfi_def_cfa_register 6
	pushq	%rbx	#
	subq	$24, %rsp	#,
	.cfi_offset 3, -24
	movq	%rdi, -24(%rbp)	# operand0, operand0
	movq	%rsi, -32(%rbp)	# operand1, operand1
	.loc 1 192 0
	movq	-24(%rbp), %rdx	# operand0, tmp64
	movq	-32(%rbp), %rax	# operand1, tmp65
	movq	%rdx, %rcx	# tmp64,
	movq	%rax, %rdx	# tmp65,
	movl	$0, %esi	#,
	movl	$47, %edi	#,
	call	gen_rtx_fmt_ee	#
	movq	%rax, %rbx	#, D.27157
	movq	-32(%rbp), %rdx	# operand1, tmp66
	movq	-24(%rbp), %rax	# operand0, tmp67
	movq	%rdx, %rcx	# tmp66,
	movq	%rax, %rdx	# tmp67,
	movl	$0, %esi	#,
	movl	$47, %edi	#,
	call	gen_rtx_fmt_ee	#
	movq	%rbx, %rdx	# D.27157,
	movq	%rax, %rsi	# D.27157,
	movl	$2, %edi	#,
	movl	$0, %eax	#,
	call	gen_rtvec	#
	movq	%rax, %rdx	# D.27158,
	movl	$0, %esi	#,
	movl	$39, %edi	#,
	call	gen_rtx_fmt_E	#
	.loc 1 199 0
	addq	$24, %rsp	#,
	popq	%rbx	#
	popq	%rbp	#
	.cfi_def_cfa 7, 8
	ret
	.cfi_endproc
.LFE13:
	.size	gen_swaptf, .-gen_swaptf
	.globl	gen_zero_extendhisi2_and
	.type	gen_zero_extendhisi2_and, @function
gen_zero_extendhisi2_and:
.LFB14:
	.loc 1 205 0
	.cfi_startproc
	pushq	%rbp	#
	.cfi_def_cfa_offset 16
	.cfi_offset 6, -16
	movq	%rsp, %rbp	#,
	.cfi_def_cfa_register 6
	pushq	%rbx	#
	subq	$24, %rsp	#,
	.cfi_offset 3, -24
	movq	%rdi, -24(%rbp)	# operand0, operand0
	movq	%rsi, -32(%rbp)	# operand1, operand1
	.loc 1 206 0
	movl	$17, %esi	#,
	movl	$52, %edi	#,
	call	gen_rtx_REG	#
	movq	%rax, %rdx	# D.27159,
	movl	$0, %esi	#,
	movl	$49, %edi	#,
	call	gen_rtx_fmt_e	#
	movq	%rax, %rbx	#, D.27159
	movq	-32(%rbp), %rax	# operand1, tmp66
	movq	%rax, %rdx	# tmp66,
	movl	$4, %esi	#,
	movl	$121, %edi	#,
	call	gen_rtx_fmt_e	#
	movq	%rax, %rdx	#, D.27159
	movq	-24(%rbp), %rax	# operand0, tmp67
	movq	%rdx, %rcx	# D.27159,
	movq	%rax, %rdx	# tmp67,
	movl	$0, %esi	#,
	movl	$47, %edi	#,
	call	gen_rtx_fmt_ee	#
	movq	%rbx, %rdx	# D.27159,
	movq	%rax, %rsi	# D.27159,
	movl	$2, %edi	#,
	movl	$0, %eax	#,
	call	gen_rtvec	#
	movq	%rax, %rdx	# D.27160,
	movl	$0, %esi	#,
	movl	$39, %edi	#,
	call	gen_rtx_fmt_E	#
	.loc 1 214 0
	addq	$24, %rsp	#,
	popq	%rbx	#
	popq	%rbp	#
	.cfi_def_cfa 7, 8
	ret
	.cfi_endproc
.LFE14:
	.size	gen_zero_extendhisi2_and, .-gen_zero_extendhisi2_and
	.globl	gen_zero_extendsidi2_32
	.type	gen_zero_extendsidi2_32, @function
gen_zero_extendsidi2_32:
.LFB15:
	.loc 1 220 0
	.cfi_startproc
	pushq	%rbp	#
	.cfi_def_cfa_offset 16
	.cfi_offset 6, -16
	movq	%rsp, %rbp	#,
	.cfi_def_cfa_register 6
	pushq	%rbx	#
	subq	$24, %rsp	#,
	.cfi_offset 3, -24
	movq	%rdi, -24(%rbp)	# operand0, operand0
	movq	%rsi, -32(%rbp)	# operand1, operand1
	.loc 1 221 0
	movl	$17, %esi	#,
	movl	$52, %edi	#,
	call	gen_rtx_REG	#
	movq	%rax, %rdx	# D.27161,
	movl	$0, %esi	#,
	movl	$49, %edi	#,
	call	gen_rtx_fmt_e	#
	movq	%rax, %rbx	#, D.27161
	movq	-32(%rbp), %rax	# operand1, tmp66
	movq	%rax, %rdx	# tmp66,
	movl	$5, %esi	#,
	movl	$121, %edi	#,
	call	gen_rtx_fmt_e	#
	movq	%rax, %rdx	#, D.27161
	movq	-24(%rbp), %rax	# operand0, tmp67
	movq	%rdx, %rcx	# D.27161,
	movq	%rax, %rdx	# tmp67,
	movl	$0, %esi	#,
	movl	$47, %edi	#,
	call	gen_rtx_fmt_ee	#
	movq	%rbx, %rdx	# D.27161,
	movq	%rax, %rsi	# D.27161,
	movl	$2, %edi	#,
	movl	$0, %eax	#,
	call	gen_rtvec	#
	movq	%rax, %rdx	# D.27162,
	movl	$0, %esi	#,
	movl	$39, %edi	#,
	call	gen_rtx_fmt_E	#
	.loc 1 229 0
	addq	$24, %rsp	#,
	popq	%rbx	#
	popq	%rbp	#
	.cfi_def_cfa 7, 8
	ret
	.cfi_endproc
.LFE15:
	.size	gen_zero_extendsidi2_32, .-gen_zero_extendsidi2_32
	.globl	gen_zero_extendsidi2_rex64
	.type	gen_zero_extendsidi2_rex64, @function
gen_zero_extendsidi2_rex64:
.LFB16:
	.loc 1 235 0
	.cfi_startproc
	pushq	%rbp	#
	.cfi_def_cfa_offset 16
	.cfi_offset 6, -16
	movq	%rsp, %rbp	#,
	.cfi_def_cfa_register 6
	subq	$16, %rsp	#,
	movq	%rdi, -8(%rbp)	# operand0, operand0
	movq	%rsi, -16(%rbp)	# operand1, operand1
	.loc 1 236 0
	movq	-16(%rbp), %rax	# operand1, tmp62
	movq	%rax, %rdx	# tmp62,
	movl	$5, %esi	#,
	movl	$121, %edi	#,
	call	gen_rtx_fmt_e	#
	movq	%rax, %rdx	#, D.27163
	movq	-8(%rbp), %rax	# operand0, tmp63
	movq	%rdx, %rcx	# D.27163,
	movq	%rax, %rdx	# tmp63,
	movl	$0, %esi	#,
	movl	$47, %edi	#,
	call	gen_rtx_fmt_ee	#
	.loc 1 240 0
	leave
	.cfi_def_cfa 7, 8
	ret
	.cfi_endproc
.LFE16:
	.size	gen_zero_extendsidi2_rex64, .-gen_zero_extendsidi2_rex64
	.globl	gen_zero_extendhidi2
	.type	gen_zero_extendhidi2, @function
gen_zero_extendhidi2:
.LFB17:
	.loc 1 246 0
	.cfi_startproc
	pushq	%rbp	#
	.cfi_def_cfa_offset 16
	.cfi_offset 6, -16
	movq	%rsp, %rbp	#,
	.cfi_def_cfa_register 6
	subq	$16, %rsp	#,
	movq	%rdi, -8(%rbp)	# operand0, operand0
	movq	%rsi, -16(%rbp)	# operand1, operand1
	.loc 1 247 0
	movq	-16(%rbp), %rax	# operand1, tmp62
	movq	%rax, %rdx	# tmp62,
	movl	$5, %esi	#,
	movl	$121, %edi	#,
	call	gen_rtx_fmt_e	#
	movq	%rax, %rdx	#, D.27164
	movq	-8(%rbp), %rax	# operand0, tmp63
	movq	%rdx, %rcx	# D.27164,
	movq	%rax, %rdx	# tmp63,
	movl	$0, %esi	#,
	movl	$47, %edi	#,
	call	gen_rtx_fmt_ee	#
	.loc 1 251 0
	leave
	.cfi_def_cfa 7, 8
	ret
	.cfi_endproc
.LFE17:
	.size	gen_zero_extendhidi2, .-gen_zero_extendhidi2
	.globl	gen_zero_extendqidi2
	.type	gen_zero_extendqidi2, @function
gen_zero_extendqidi2:
.LFB18:
	.loc 1 257 0
	.cfi_startproc
	pushq	%rbp	#
	.cfi_def_cfa_offset 16
	.cfi_offset 6, -16
	movq	%rsp, %rbp	#,
	.cfi_def_cfa_register 6
	subq	$16, %rsp	#,
	movq	%rdi, -8(%rbp)	# operand0, operand0
	movq	%rsi, -16(%rbp)	# operand1, operand1
	.loc 1 258 0
	movq	-16(%rbp), %rax	# operand1, tmp62
	movq	%rax, %rdx	# tmp62,
	movl	$5, %esi	#,
	movl	$121, %edi	#,
	call	gen_rtx_fmt_e	#
	movq	%rax, %rdx	#, D.27165
	movq	-8(%rbp), %rax	# operand0, tmp63
	movq	%rdx, %rcx	# D.27165,
	movq	%rax, %rdx	# tmp63,
	movl	$0, %esi	#,
	movl	$47, %edi	#,
	call	gen_rtx_fmt_ee	#
	.loc 1 262 0
	leave
	.cfi_def_cfa 7, 8
	ret
	.cfi_endproc
.LFE18:
	.size	gen_zero_extendqidi2, .-gen_zero_extendqidi2
	.globl	gen_extendsidi2_rex64
	.type	gen_extendsidi2_rex64, @function
gen_extendsidi2_rex64:
.LFB19:
	.loc 1 268 0
	.cfi_startproc
	pushq	%rbp	#
	.cfi_def_cfa_offset 16
	.cfi_offset 6, -16
	movq	%rsp, %rbp	#,
	.cfi_def_cfa_register 6
	subq	$16, %rsp	#,
	movq	%rdi, -8(%rbp)	# operand0, operand0
	movq	%rsi, -16(%rbp)	# operand1, operand1
	.loc 1 269 0
	movq	-16(%rbp), %rax	# operand1, tmp62
	movq	%rax, %rdx	# tmp62,
	movl	$5, %esi	#,
	movl	$120, %edi	#,
	call	gen_rtx_fmt_e	#
	movq	%rax, %rdx	#, D.27166
	movq	-8(%rbp), %rax	# operand0, tmp63
	movq	%rdx, %rcx	# D.27166,
	movq	%rax, %rdx	# tmp63,
	movl	$0, %esi	#,
	movl	$47, %edi	#,
	call	gen_rtx_fmt_ee	#
	.loc 1 273 0
	leave
	.cfi_def_cfa 7, 8
	ret
	.cfi_endproc
.LFE19:
	.size	gen_extendsidi2_rex64, .-gen_extendsidi2_rex64
	.globl	gen_extendhidi2
	.type	gen_extendhidi2, @function
gen_extendhidi2:
.LFB20:
	.loc 1 279 0
	.cfi_startproc
	pushq	%rbp	#
	.cfi_def_cfa_offset 16
	.cfi_offset 6, -16
	movq	%rsp, %rbp	#,
	.cfi_def_cfa_register 6
	subq	$16, %rsp	#,
	movq	%rdi, -8(%rbp)	# operand0, operand0
	movq	%rsi, -16(%rbp)	# operand1, operand1
	.loc 1 280 0
	movq	-16(%rbp), %rax	# operand1, tmp62
	movq	%rax, %rdx	# tmp62,
	movl	$5, %esi	#,
	movl	$120, %edi	#,
	call	gen_rtx_fmt_e	#
	movq	%rax, %rdx	#, D.27167
	movq	-8(%rbp), %rax	# operand0, tmp63
	movq	%rdx, %rcx	# D.27167,
	movq	%rax, %rdx	# tmp63,
	movl	$0, %esi	#,
	movl	$47, %edi	#,
	call	gen_rtx_fmt_ee	#
	.loc 1 284 0
	leave
	.cfi_def_cfa 7, 8
	ret
	.cfi_endproc
.LFE20:
	.size	gen_extendhidi2, .-gen_extendhidi2
	.globl	gen_extendqidi2
	.type	gen_extendqidi2, @function
gen_extendqidi2:
.LFB21:
	.loc 1 290 0
	.cfi_startproc
	pushq	%rbp	#
	.cfi_def_cfa_offset 16
	.cfi_offset 6, -16
	movq	%rsp, %rbp	#,
	.cfi_def_cfa_register 6
	subq	$16, %rsp	#,
	movq	%rdi, -8(%rbp)	# operand0, operand0
	movq	%rsi, -16(%rbp)	# operand1, operand1
	.loc 1 291 0
	movq	-16(%rbp), %rax	# operand1, tmp62
	movq	%rax, %rdx	# tmp62,
	movl	$5, %esi	#,
	movl	$120, %edi	#,
	call	gen_rtx_fmt_e	#
	movq	%rax, %rdx	#, D.27168
	movq	-8(%rbp), %rax	# operand0, tmp63
	movq	%rdx, %rcx	# D.27168,
	movq	%rax, %rdx	# tmp63,
	movl	$0, %esi	#,
	movl	$47, %edi	#,
	call	gen_rtx_fmt_ee	#
	.loc 1 295 0
	leave
	.cfi_def_cfa 7, 8
	ret
	.cfi_endproc
.LFE21:
	.size	gen_extendqidi2, .-gen_extendqidi2
	.globl	gen_extendhisi2
	.type	gen_extendhisi2, @function
gen_extendhisi2:
.LFB22:
	.loc 1 301 0
	.cfi_startproc
	pushq	%rbp	#
	.cfi_def_cfa_offset 16
	.cfi_offset 6, -16
	movq	%rsp, %rbp	#,
	.cfi_def_cfa_register 6
	subq	$16, %rsp	#,
	movq	%rdi, -8(%rbp)	# operand0, operand0
	movq	%rsi, -16(%rbp)	# operand1, operand1
	.loc 1 302 0
	movq	-16(%rbp), %rax	# operand1, tmp62
	movq	%rax, %rdx	# tmp62,
	movl	$4, %esi	#,
	movl	$120, %edi	#,
	call	gen_rtx_fmt_e	#
	movq	%rax, %rdx	#, D.27169
	movq	-8(%rbp), %rax	# operand0, tmp63
	movq	%rdx, %rcx	# D.27169,
	movq	%rax, %rdx	# tmp63,
	movl	$0, %esi	#,
	movl	$47, %edi	#,
	call	gen_rtx_fmt_ee	#
	.loc 1 306 0
	leave
	.cfi_def_cfa 7, 8
	ret
	.cfi_endproc
.LFE22:
	.size	gen_extendhisi2, .-gen_extendhisi2
	.globl	gen_extendqihi2
	.type	gen_extendqihi2, @function
gen_extendqihi2:
.LFB23:
	.loc 1 312 0
	.cfi_startproc
	pushq	%rbp	#
	.cfi_def_cfa_offset 16
	.cfi_offset 6, -16
	movq	%rsp, %rbp	#,
	.cfi_def_cfa_register 6
	subq	$16, %rsp	#,
	movq	%rdi, -8(%rbp)	# operand0, operand0
	movq	%rsi, -16(%rbp)	# operand1, operand1
	.loc 1 313 0
	movq	-16(%rbp), %rax	# operand1, tmp62
	movq	%rax, %rdx	# tmp62,
	movl	$3, %esi	#,
	movl	$120, %edi	#,
	call	gen_rtx_fmt_e	#
	movq	%rax, %rdx	#, D.27170
	movq	-8(%rbp), %rax	# operand0, tmp63
	movq	%rdx, %rcx	# D.27170,
	movq	%rax, %rdx	# tmp63,
	movl	$0, %esi	#,
	movl	$47, %edi	#,
	call	gen_rtx_fmt_ee	#
	.loc 1 317 0
	leave
	.cfi_def_cfa 7, 8
	ret
	.cfi_endproc
.LFE23:
	.size	gen_extendqihi2, .-gen_extendqihi2
	.globl	gen_extendqisi2
	.type	gen_extendqisi2, @function
gen_extendqisi2:
.LFB24:
	.loc 1 323 0
	.cfi_startproc
	pushq	%rbp	#
	.cfi_def_cfa_offset 16
	.cfi_offset 6, -16
	movq	%rsp, %rbp	#,
	.cfi_def_cfa_register 6
	subq	$16, %rsp	#,
	movq	%rdi, -8(%rbp)	# operand0, operand0
	movq	%rsi, -16(%rbp)	# operand1, operand1
	.loc 1 324 0
	movq	-16(%rbp), %rax	# operand1, tmp62
	movq	%rax, %rdx	# tmp62,
	movl	$4, %esi	#,
	movl	$120, %edi	#,
	call	gen_rtx_fmt_e	#
	movq	%rax, %rdx	#, D.27171
	movq	-8(%rbp), %rax	# operand0, tmp63
	movq	%rdx, %rcx	# D.27171,
	movq	%rax, %rdx	# tmp63,
	movl	$0, %esi	#,
	movl	$47, %edi	#,
	call	gen_rtx_fmt_ee	#
	.loc 1 328 0
	leave
	.cfi_def_cfa 7, 8
	ret
	.cfi_endproc
.LFE24:
	.size	gen_extendqisi2, .-gen_extendqisi2
	.globl	gen_truncdfsf2_3
	.type	gen_truncdfsf2_3, @function
gen_truncdfsf2_3:
.LFB25:
	.loc 1 334 0
	.cfi_startproc
	pushq	%rbp	#
	.cfi_def_cfa_offset 16
	.cfi_offset 6, -16
	movq	%rsp, %rbp	#,
	.cfi_def_cfa_register 6
	subq	$16, %rsp	#,
	movq	%rdi, -8(%rbp)	# operand0, operand0
	movq	%rsi, -16(%rbp)	# operand1, operand1
	.loc 1 335 0
	movq	-16(%rbp), %rax	# operand1, tmp62
	movq	%rax, %rdx	# tmp62,
	movl	$15, %esi	#,
	movl	$124, %edi	#,
	call	gen_rtx_fmt_e	#
	movq	%rax, %rdx	#, D.27172
	movq	-8(%rbp), %rax	# operand0, tmp63
	movq	%rdx, %rcx	# D.27172,
	movq	%rax, %rdx	# tmp63,
	movl	$0, %esi	#,
	movl	$47, %edi	#,
	call	gen_rtx_fmt_ee	#
	.loc 1 339 0
	leave
	.cfi_def_cfa 7, 8
	ret
	.cfi_endproc
.LFE25:
	.size	gen_truncdfsf2_3, .-gen_truncdfsf2_3
	.globl	gen_truncdfsf2_sse_only
	.type	gen_truncdfsf2_sse_only, @function
gen_truncdfsf2_sse_only:
.LFB26:
	.loc 1 345 0
	.cfi_startproc
	pushq	%rbp	#
	.cfi_def_cfa_offset 16
	.cfi_offset 6, -16
	movq	%rsp, %rbp	#,
	.cfi_def_cfa_register 6
	subq	$16, %rsp	#,
	movq	%rdi, -8(%rbp)	# operand0, operand0
	movq	%rsi, -16(%rbp)	# operand1, operand1
	.loc 1 346 0
	movq	-16(%rbp), %rax	# operand1, tmp62
	movq	%rax, %rdx	# tmp62,
	movl	$15, %esi	#,
	movl	$124, %edi	#,
	call	gen_rtx_fmt_e	#
	movq	%rax, %rdx	#, D.27173
	movq	-8(%rbp), %rax	# operand0, tmp63
	movq	%rdx, %rcx	# D.27173,
	movq	%rax, %rdx	# tmp63,
	movl	$0, %esi	#,
	movl	$47, %edi	#,
	call	gen_rtx_fmt_ee	#
	.loc 1 350 0
	leave
	.cfi_def_cfa 7, 8
	ret
	.cfi_endproc
.LFE26:
	.size	gen_truncdfsf2_sse_only, .-gen_truncdfsf2_sse_only
	.globl	gen_fix_truncdi_nomemory
	.type	gen_fix_truncdi_nomemory, @function
gen_fix_truncdi_nomemory:
.LFB27:
	.loc 1 359 0
	.cfi_startproc
	pushq	%rbp	#
	.cfi_def_cfa_offset 16
	.cfi_offset 6, -16
	movq	%rsp, %rbp	#,
	.cfi_def_cfa_register 6
	pushq	%r14	#
	pushq	%r13	#
	pushq	%r12	#
	pushq	%rbx	#
	subq	$48, %rsp	#,
	.cfi_offset 14, -24
	.cfi_offset 13, -32
	.cfi_offset 12, -40
	.cfi_offset 3, -48
	movq	%rdi, -40(%rbp)	# operand0, operand0
	movq	%rsi, -48(%rbp)	# operand1, operand1
	movq	%rdx, -56(%rbp)	# operand2, operand2
	movq	%rcx, -64(%rbp)	# operand3, operand3
	movq	%r8, -72(%rbp)	# operand4, operand4
	.loc 1 360 0
	movl	$16, %esi	#,
	movl	$62, %edi	#,
	call	gen_rtx_fmt_0	#
	movq	%rax, %rdx	# D.27174,
	movl	$0, %esi	#,
	movl	$49, %edi	#,
	call	gen_rtx_fmt_e	#
	movq	%rax, %r14	#, D.27174
	movq	-72(%rbp), %rax	# operand4, tmp69
	movq	%rax, %rdx	# tmp69,
	movl	$0, %esi	#,
	movl	$49, %edi	#,
	call	gen_rtx_fmt_e	#
	movq	%rax, %r13	#, D.27174
	movq	-64(%rbp), %rax	# operand3, tmp70
	movq	%rax, %rdx	# tmp70,
	movl	$0, %esi	#,
	movl	$48, %edi	#,
	call	gen_rtx_fmt_e	#
	movq	%rax, %r12	#, D.27174
	movq	-56(%rbp), %rax	# operand2, tmp71
	movq	%rax, %rdx	# tmp71,
	movl	$0, %esi	#,
	movl	$48, %edi	#,
	call	gen_rtx_fmt_e	#
	movq	%rax, %rbx	#, D.27174
	movq	-48(%rbp), %rax	# operand1, tmp72
	movq	%rax, %rdx	# tmp72,
	movl	$5, %esi	#,
	movl	$126, %edi	#,
	call	gen_rtx_fmt_e	#
	movq	%rax, %rdx	#, D.27174
	movq	-40(%rbp), %rax	# operand0, tmp73
	movq	%rdx, %rcx	# D.27174,
	movq	%rax, %rdx	# tmp73,
	movl	$0, %esi	#,
	movl	$47, %edi	#,
	call	gen_rtx_fmt_ee	#
	movq	%r14, %r9	# D.27174,
	movq	%r13, %r8	# D.27174,
	movq	%r12, %rcx	# D.27174,
	movq	%rbx, %rdx	# D.27174,
	movq	%rax, %rsi	# D.27174,
	movl	$5, %edi	#,
	movl	$0, %eax	#,
	call	gen_rtvec	#
	movq	%rax, %rdx	# D.27175,
	movl	$0, %esi	#,
	movl	$39, %edi	#,
	call	gen_rtx_fmt_E	#
	.loc 1 373 0
	addq	$48, %rsp	#,
	popq	%rbx	#
	popq	%r12	#
	popq	%r13	#
	popq	%r14	#
	popq	%rbp	#
	.cfi_def_cfa 7, 8
	ret
	.cfi_endproc
.LFE27:
	.size	gen_fix_truncdi_nomemory, .-gen_fix_truncdi_nomemory
	.globl	gen_fix_truncdi_memory
	.type	gen_fix_truncdi_memory, @function
gen_fix_truncdi_memory:
.LFB28:
	.loc 1 381 0
	.cfi_startproc
	pushq	%rbp	#
	.cfi_def_cfa_offset 16
	.cfi_offset 6, -16
	movq	%rsp, %rbp	#,
	.cfi_def_cfa_register 6
	pushq	%r13	#
	pushq	%r12	#
	pushq	%rbx	#
	subq	$40, %rsp	#,
	.cfi_offset 13, -24
	.cfi_offset 12, -32
	.cfi_offset 3, -40
	movq	%rdi, -40(%rbp)	# operand0, operand0
	movq	%rsi, -48(%rbp)	# operand1, operand1
	movq	%rdx, -56(%rbp)	# operand2, operand2
	movq	%rcx, -64(%rbp)	# operand3, operand3
	.loc 1 382 0
	movl	$16, %esi	#,
	movl	$62, %edi	#,
	call	gen_rtx_fmt_0	#
	movq	%rax, %rdx	# D.27176,
	movl	$0, %esi	#,
	movl	$49, %edi	#,
	call	gen_rtx_fmt_e	#
	movq	%rax, %r13	#, D.27176
	movq	-64(%rbp), %rax	# operand3, tmp68
	movq	%rax, %rdx	# tmp68,
	movl	$0, %esi	#,
	movl	$48, %edi	#,
	call	gen_rtx_fmt_e	#
	movq	%rax, %r12	#, D.27176
	movq	-56(%rbp), %rax	# operand2, tmp69
	movq	%rax, %rdx	# tmp69,
	movl	$0, %esi	#,
	movl	$48, %edi	#,
	call	gen_rtx_fmt_e	#
	movq	%rax, %rbx	#, D.27176
	movq	-48(%rbp), %rax	# operand1, tmp70
	movq	%rax, %rdx	# tmp70,
	movl	$5, %esi	#,
	movl	$126, %edi	#,
	call	gen_rtx_fmt_e	#
	movq	%rax, %rdx	#, D.27176
	movq	-40(%rbp), %rax	# operand0, tmp71
	movq	%rdx, %rcx	# D.27176,
	movq	%rax, %rdx	# tmp71,
	movl	$0, %esi	#,
	movl	$47, %edi	#,
	call	gen_rtx_fmt_ee	#
	movq	%r13, %r8	# D.27176,
	movq	%r12, %rcx	# D.27176,
	movq	%rbx, %rdx	# D.27176,
	movq	%rax, %rsi	# D.27176,
	movl	$4, %edi	#,
	movl	$0, %eax	#,
	call	gen_rtvec	#
	movq	%rax, %rdx	# D.27177,
	movl	$0, %esi	#,
	movl	$39, %edi	#,
	call	gen_rtx_fmt_E	#
	.loc 1 393 0
	addq	$40, %rsp	#,
	popq	%rbx	#
	popq	%r12	#
	popq	%r13	#
	popq	%rbp	#
	.cfi_def_cfa 7, 8
	ret
	.cfi_endproc
.LFE28:
	.size	gen_fix_truncdi_memory, .-gen_fix_truncdi_memory
	.globl	gen_fix_truncsfdi_sse
	.type	gen_fix_truncsfdi_sse, @function
gen_fix_truncsfdi_sse:
.LFB29:
	.loc 1 399 0
	.cfi_startproc
	pushq	%rbp	#
	.cfi_def_cfa_offset 16
	.cfi_offset 6, -16
	movq	%rsp, %rbp	#,
	.cfi_def_cfa_register 6
	subq	$16, %rsp	#,
	movq	%rdi, -8(%rbp)	# operand0, operand0
	movq	%rsi, -16(%rbp)	# operand1, operand1
	.loc 1 400 0
	movq	-16(%rbp), %rax	# operand1, tmp62
	movq	%rax, %rdx	# tmp62,
	movl	$5, %esi	#,
	movl	$126, %edi	#,
	call	gen_rtx_fmt_e	#
	movq	%rax, %rdx	#, D.27178
	movq	-8(%rbp), %rax	# operand0, tmp63
	movq	%rdx, %rcx	# D.27178,
	movq	%rax, %rdx	# tmp63,
	movl	$0, %esi	#,
	movl	$47, %edi	#,
	call	gen_rtx_fmt_ee	#
	.loc 1 404 0
	leave
	.cfi_def_cfa 7, 8
	ret
	.cfi_endproc
.LFE29:
	.size	gen_fix_truncsfdi_sse, .-gen_fix_truncsfdi_sse
	.globl	gen_fix_truncdfdi_sse
	.type	gen_fix_truncdfdi_sse, @function
gen_fix_truncdfdi_sse:
.LFB30:
	.loc 1 410 0
	.cfi_startproc
	pushq	%rbp	#
	.cfi_def_cfa_offset 16
	.cfi_offset 6, -16
	movq	%rsp, %rbp	#,
	.cfi_def_cfa_register 6
	subq	$16, %rsp	#,
	movq	%rdi, -8(%rbp)	# operand0, operand0
	movq	%rsi, -16(%rbp)	# operand1, operand1
	.loc 1 411 0
	movq	-16(%rbp), %rax	# operand1, tmp62
	movq	%rax, %rdx	# tmp62,
	movl	$5, %esi	#,
	movl	$126, %edi	#,
	call	gen_rtx_fmt_e	#
	movq	%rax, %rdx	#, D.27179
	movq	-8(%rbp), %rax	# operand0, tmp63
	movq	%rdx, %rcx	# D.27179,
	movq	%rax, %rdx	# tmp63,
	movl	$0, %esi	#,
	movl	$47, %edi	#,
	call	gen_rtx_fmt_ee	#
	.loc 1 415 0
	leave
	.cfi_def_cfa 7, 8
	ret
	.cfi_endproc
.LFE30:
	.size	gen_fix_truncdfdi_sse, .-gen_fix_truncdfdi_sse
	.globl	gen_fix_truncsi_nomemory
	.type	gen_fix_truncsi_nomemory, @function
gen_fix_truncsi_nomemory:
.LFB31:
	.loc 1 424 0
	.cfi_startproc
	pushq	%rbp	#
	.cfi_def_cfa_offset 16
	.cfi_offset 6, -16
	movq	%rsp, %rbp	#,
	.cfi_def_cfa_register 6
	pushq	%r13	#
	pushq	%r12	#
	pushq	%rbx	#
	subq	$56, %rsp	#,
	.cfi_offset 13, -24
	.cfi_offset 12, -32
	.cfi_offset 3, -40
	movq	%rdi, -40(%rbp)	# operand0, operand0
	movq	%rsi, -48(%rbp)	# operand1, operand1
	movq	%rdx, -56(%rbp)	# operand2, operand2
	movq	%rcx, -64(%rbp)	# operand3, operand3
	movq	%r8, -72(%rbp)	# operand4, operand4
	.loc 1 425 0
	movq	-72(%rbp), %rax	# operand4, tmp67
	movq	%rax, %rdx	# tmp67,
	movl	$0, %esi	#,
	movl	$49, %edi	#,
	call	gen_rtx_fmt_e	#
	movq	%rax, %r13	#, D.27180
	movq	-64(%rbp), %rax	# operand3, tmp68
	movq	%rax, %rdx	# tmp68,
	movl	$0, %esi	#,
	movl	$48, %edi	#,
	call	gen_rtx_fmt_e	#
	movq	%rax, %r12	#, D.27180
	movq	-56(%rbp), %rax	# operand2, tmp69
	movq	%rax, %rdx	# tmp69,
	movl	$0, %esi	#,
	movl	$48, %edi	#,
	call	gen_rtx_fmt_e	#
	movq	%rax, %rbx	#, D.27180
	movq	-48(%rbp), %rax	# operand1, tmp70
	movq	%rax, %rdx	# tmp70,
	movl	$4, %esi	#,
	movl	$126, %edi	#,
	call	gen_rtx_fmt_e	#
	movq	%rax, %rdx	#, D.27180
	movq	-40(%rbp), %rax	# operand0, tmp71
	movq	%rdx, %rcx	# D.27180,
	movq	%rax, %rdx	# tmp71,
	movl	$0, %esi	#,
	movl	$47, %edi	#,
	call	gen_rtx_fmt_ee	#
	movq	%r13, %r8	# D.27180,
	movq	%r12, %rcx	# D.27180,
	movq	%rbx, %rdx	# D.27180,
	movq	%rax, %rsi	# D.27180,
	movl	$4, %edi	#,
	movl	$0, %eax	#,
	call	gen_rtvec	#
	movq	%rax, %rdx	# D.27181,
	movl	$0, %esi	#,
	movl	$39, %edi	#,
	call	gen_rtx_fmt_E	#
	.loc 1 436 0
	addq	$56, %rsp	#,
	popq	%rbx	#
	popq	%r12	#
	popq	%r13	#
	popq	%rbp	#
	.cfi_def_cfa 7, 8
	ret
	.cfi_endproc
.LFE31:
	.size	gen_fix_truncsi_nomemory, .-gen_fix_truncsi_nomemory
	.globl	gen_fix_truncsi_memory
	.type	gen_fix_truncsi_memory, @function
gen_fix_truncsi_memory:
.LFB32:
	.loc 1 444 0
	.cfi_startproc
	pushq	%rbp	#
	.cfi_def_cfa_offset 16
	.cfi_offset 6, -16
	movq	%rsp, %rbp	#,
	.cfi_def_cfa_register 6
	pushq	%r12	#
	pushq	%rbx	#
	subq	$32, %rsp	#,
	.cfi_offset 12, -24
	.cfi_offset 3, -32
	movq	%rdi, -24(%rbp)	# operand0, operand0
	movq	%rsi, -32(%rbp)	# operand1, operand1
	movq	%rdx, -40(%rbp)	# operand2, operand2
	movq	%rcx, -48(%rbp)	# operand3, operand3
	.loc 1 445 0
	movq	-48(%rbp), %rax	# operand3, tmp66
	movq	%rax, %rdx	# tmp66,
	movl	$0, %esi	#,
	movl	$48, %edi	#,
	call	gen_rtx_fmt_e	#
	movq	%rax, %r12	#, D.27182
	movq	-40(%rbp), %rax	# operand2, tmp67
	movq	%rax, %rdx	# tmp67,
	movl	$0, %esi	#,
	movl	$48, %edi	#,
	call	gen_rtx_fmt_e	#
	movq	%rax, %rbx	#, D.27182
	movq	-32(%rbp), %rax	# operand1, tmp68
	movq	%rax, %rdx	# tmp68,
	movl	$4, %esi	#,
	movl	$126, %edi	#,
	call	gen_rtx_fmt_e	#
	movq	%rax, %rdx	#, D.27182
	movq	-24(%rbp), %rax	# operand0, tmp69
	movq	%rdx, %rcx	# D.27182,
	movq	%rax, %rdx	# tmp69,
	movl	$0, %esi	#,
	movl	$47, %edi	#,
	call	gen_rtx_fmt_ee	#
	movq	%r12, %rcx	# D.27182,
	movq	%rbx, %rdx	# D.27182,
	movq	%rax, %rsi	# D.27182,
	movl	$3, %edi	#,
	movl	$0, %eax	#,
	call	gen_rtvec	#
	movq	%rax, %rdx	# D.27183,
	movl	$0, %esi	#,
	movl	$39, %edi	#,
	call	gen_rtx_fmt_E	#
	.loc 1 454 0
	addq	$32, %rsp	#,
	popq	%rbx	#
	popq	%r12	#
	popq	%rbp	#
	.cfi_def_cfa 7, 8
	ret
	.cfi_endproc
.LFE32:
	.size	gen_fix_truncsi_memory, .-gen_fix_truncsi_memory
	.globl	gen_fix_truncsfsi_sse
	.type	gen_fix_truncsfsi_sse, @function
gen_fix_truncsfsi_sse:
.LFB33:
	.loc 1 460 0
	.cfi_startproc
	pushq	%rbp	#
	.cfi_def_cfa_offset 16
	.cfi_offset 6, -16
	movq	%rsp, %rbp	#,
	.cfi_def_cfa_register 6
	subq	$16, %rsp	#,
	movq	%rdi, -8(%rbp)	# operand0, operand0
	movq	%rsi, -16(%rbp)	# operand1, operand1
	.loc 1 461 0
	movq	-16(%rbp), %rax	# operand1, tmp62
	movq	%rax, %rdx	# tmp62,
	movl	$4, %esi	#,
	movl	$126, %edi	#,
	call	gen_rtx_fmt_e	#
	movq	%rax, %rdx	#, D.27184
	movq	-8(%rbp), %rax	# operand0, tmp63
	movq	%rdx, %rcx	# D.27184,
	movq	%rax, %rdx	# tmp63,
	movl	$0, %esi	#,
	movl	$47, %edi	#,
	call	gen_rtx_fmt_ee	#
	.loc 1 465 0
	leave
	.cfi_def_cfa 7, 8
	ret
	.cfi_endproc
.LFE33:
	.size	gen_fix_truncsfsi_sse, .-gen_fix_truncsfsi_sse
	.globl	gen_fix_truncdfsi_sse
	.type	gen_fix_truncdfsi_sse, @function
gen_fix_truncdfsi_sse:
.LFB34:
	.loc 1 471 0
	.cfi_startproc
	pushq	%rbp	#
	.cfi_def_cfa_offset 16
	.cfi_offset 6, -16
	movq	%rsp, %rbp	#,
	.cfi_def_cfa_register 6
	subq	$16, %rsp	#,
	movq	%rdi, -8(%rbp)	# operand0, operand0
	movq	%rsi, -16(%rbp)	# operand1, operand1
	.loc 1 472 0
	movq	-16(%rbp), %rax	# operand1, tmp62
	movq	%rax, %rdx	# tmp62,
	movl	$4, %esi	#,
	movl	$126, %edi	#,
	call	gen_rtx_fmt_e	#
	movq	%rax, %rdx	#, D.27185
	movq	-8(%rbp), %rax	# operand0, tmp63
	movq	%rdx, %rcx	# D.27185,
	movq	%rax, %rdx	# tmp63,
	movl	$0, %esi	#,
	movl	$47, %edi	#,
	call	gen_rtx_fmt_ee	#
	.loc 1 476 0
	leave
	.cfi_def_cfa 7, 8
	ret
	.cfi_endproc
.LFE34:
	.size	gen_fix_truncdfsi_sse, .-gen_fix_truncdfsi_sse
	.globl	gen_fix_trunchi_nomemory
	.type	gen_fix_trunchi_nomemory, @function
gen_fix_trunchi_nomemory:
.LFB35:
	.loc 1 485 0
	.cfi_startproc
	pushq	%rbp	#
	.cfi_def_cfa_offset 16
	.cfi_offset 6, -16
	movq	%rsp, %rbp	#,
	.cfi_def_cfa_register 6
	pushq	%r13	#
	pushq	%r12	#
	pushq	%rbx	#
	subq	$56, %rsp	#,
	.cfi_offset 13, -24
	.cfi_offset 12, -32
	.cfi_offset 3, -40
	movq	%rdi, -40(%rbp)	# operand0, operand0
	movq	%rsi, -48(%rbp)	# operand1, operand1
	movq	%rdx, -56(%rbp)	# operand2, operand2
	movq	%rcx, -64(%rbp)	# operand3, operand3
	movq	%r8, -72(%rbp)	# operand4, operand4
	.loc 1 486 0
	movq	-72(%rbp), %rax	# operand4, tmp67
	movq	%rax, %rdx	# tmp67,
	movl	$0, %esi	#,
	movl	$49, %edi	#,
	call	gen_rtx_fmt_e	#
	movq	%rax, %r13	#, D.27186
	movq	-64(%rbp), %rax	# operand3, tmp68
	movq	%rax, %rdx	# tmp68,
	movl	$0, %esi	#,
	movl	$48, %edi	#,
	call	gen_rtx_fmt_e	#
	movq	%rax, %r12	#, D.27186
	movq	-56(%rbp), %rax	# operand2, tmp69
	movq	%rax, %rdx	# tmp69,
	movl	$0, %esi	#,
	movl	$48, %edi	#,
	call	gen_rtx_fmt_e	#
	movq	%rax, %rbx	#, D.27186
	movq	-48(%rbp), %rax	# operand1, tmp70
	movq	%rax, %rdx	# tmp70,
	movl	$3, %esi	#,
	movl	$126, %edi	#,
	call	gen_rtx_fmt_e	#
	movq	%rax, %rdx	#, D.27186
	movq	-40(%rbp), %rax	# operand0, tmp71
	movq	%rdx, %rcx	# D.27186,
	movq	%rax, %rdx	# tmp71,
	movl	$0, %esi	#,
	movl	$47, %edi	#,
	call	gen_rtx_fmt_ee	#
	movq	%r13, %r8	# D.27186,
	movq	%r12, %rcx	# D.27186,
	movq	%rbx, %rdx	# D.27186,
	movq	%rax, %rsi	# D.27186,
	movl	$4, %edi	#,
	movl	$0, %eax	#,
	call	gen_rtvec	#
	movq	%rax, %rdx	# D.27187,
	movl	$0, %esi	#,
	movl	$39, %edi	#,
	call	gen_rtx_fmt_E	#
	.loc 1 497 0
	addq	$56, %rsp	#,
	popq	%rbx	#
	popq	%r12	#
	popq	%r13	#
	popq	%rbp	#
	.cfi_def_cfa 7, 8
	ret
	.cfi_endproc
.LFE35:
	.size	gen_fix_trunchi_nomemory, .-gen_fix_trunchi_nomemory
	.globl	gen_fix_trunchi_memory
	.type	gen_fix_trunchi_memory, @function
gen_fix_trunchi_memory:
.LFB36:
	.loc 1 505 0
	.cfi_startproc
	pushq	%rbp	#
	.cfi_def_cfa_offset 16
	.cfi_offset 6, -16
	movq	%rsp, %rbp	#,
	.cfi_def_cfa_register 6
	pushq	%r12	#
	pushq	%rbx	#
	subq	$32, %rsp	#,
	.cfi_offset 12, -24
	.cfi_offset 3, -32
	movq	%rdi, -24(%rbp)	# operand0, operand0
	movq	%rsi, -32(%rbp)	# operand1, operand1
	movq	%rdx, -40(%rbp)	# operand2, operand2
	movq	%rcx, -48(%rbp)	# operand3, operand3
	.loc 1 506 0
	movq	-48(%rbp), %rax	# operand3, tmp66
	movq	%rax, %rdx	# tmp66,
	movl	$0, %esi	#,
	movl	$48, %edi	#,
	call	gen_rtx_fmt_e	#
	movq	%rax, %r12	#, D.27188
	movq	-40(%rbp), %rax	# operand2, tmp67
	movq	%rax, %rdx	# tmp67,
	movl	$0, %esi	#,
	movl	$48, %edi	#,
	call	gen_rtx_fmt_e	#
	movq	%rax, %rbx	#, D.27188
	movq	-32(%rbp), %rax	# operand1, tmp68
	movq	%rax, %rdx	# tmp68,
	movl	$3, %esi	#,
	movl	$126, %edi	#,
	call	gen_rtx_fmt_e	#
	movq	%rax, %rdx	#, D.27188
	movq	-24(%rbp), %rax	# operand0, tmp69
	movq	%rdx, %rcx	# D.27188,
	movq	%rax, %rdx	# tmp69,
	movl	$0, %esi	#,
	movl	$47, %edi	#,
	call	gen_rtx_fmt_ee	#
	movq	%r12, %rcx	# D.27188,
	movq	%rbx, %rdx	# D.27188,
	movq	%rax, %rsi	# D.27188,
	movl	$3, %edi	#,
	movl	$0, %eax	#,
	call	gen_rtvec	#
	movq	%rax, %rdx	# D.27189,
	movl	$0, %esi	#,
	movl	$39, %edi	#,
	call	gen_rtx_fmt_E	#
	.loc 1 515 0
	addq	$32, %rsp	#,
	popq	%rbx	#
	popq	%r12	#
	popq	%rbp	#
	.cfi_def_cfa 7, 8
	ret
	.cfi_endproc
.LFE36:
	.size	gen_fix_trunchi_memory, .-gen_fix_trunchi_memory
	.globl	gen_x86_fnstcw_1
	.type	gen_x86_fnstcw_1, @function
gen_x86_fnstcw_1:
.LFB37:
	.loc 1 520 0
	.cfi_startproc
	pushq	%rbp	#
	.cfi_def_cfa_offset 16
	.cfi_offset 6, -16
	movq	%rsp, %rbp	#,
	.cfi_def_cfa_register 6
	subq	$16, %rsp	#,
	movq	%rdi, -8(%rbp)	# operand0, operand0
	.loc 1 521 0
	movl	$18, %esi	#,
	movl	$3, %edi	#,
	call	gen_rtx_REG	#
	movq	%rax, %rsi	# D.27190,
	movl	$1, %edi	#,
	movl	$0, %eax	#,
	call	gen_rtvec	#
	movl	$11, %ecx	#,
	movq	%rax, %rdx	# D.27191,
	movl	$3, %esi	#,
	movl	$42, %edi	#,
	call	gen_rtx_fmt_Ei	#
	movq	%rax, %rdx	#, D.27190
	movq	-8(%rbp), %rax	# operand0, tmp64
	movq	%rdx, %rcx	# D.27190,
	movq	%rax, %rdx	# tmp64,
	movl	$0, %esi	#,
	movl	$47, %edi	#,
	call	gen_rtx_fmt_ee	#
	.loc 1 528 0
	leave
	.cfi_def_cfa 7, 8
	ret
	.cfi_endproc
.LFE37:
	.size	gen_x86_fnstcw_1, .-gen_x86_fnstcw_1
	.globl	gen_x86_fldcw_1
	.type	gen_x86_fldcw_1, @function
gen_x86_fldcw_1:
.LFB38:
	.loc 1 533 0
	.cfi_startproc
	pushq	%rbp	#
	.cfi_def_cfa_offset 16
	.cfi_offset 6, -16
	movq	%rsp, %rbp	#,
	.cfi_def_cfa_register 6
	pushq	%rbx	#
	subq	$24, %rsp	#,
	.cfi_offset 3, -24
	movq	%rdi, -24(%rbp)	# operand0, operand0
	.loc 1 534 0
	movq	-24(%rbp), %rax	# operand0, tmp64
	movq	%rax, %rsi	# tmp64,
	movl	$1, %edi	#,
	movl	$0, %eax	#,
	call	gen_rtvec	#
	movl	$12, %ecx	#,
	movq	%rax, %rdx	# D.27192,
	movl	$3, %esi	#,
	movl	$42, %edi	#,
	call	gen_rtx_fmt_Ei	#
	movq	%rax, %rbx	#, D.27193
	movl	$18, %esi	#,
	movl	$3, %edi	#,
	call	gen_rtx_REG	#
	movq	%rbx, %rcx	# D.27193,
	movq	%rax, %rdx	# D.27193,
	movl	$0, %esi	#,
	movl	$47, %edi	#,
	call	gen_rtx_fmt_ee	#
	.loc 1 541 0
	addq	$24, %rsp	#,
	popq	%rbx	#
	popq	%rbp	#
	.cfi_def_cfa 7, 8
	ret
	.cfi_endproc
.LFE38:
	.size	gen_x86_fldcw_1, .-gen_x86_fldcw_1
	.globl	gen_floathisf2
	.type	gen_floathisf2, @function
gen_floathisf2:
.LFB39:
	.loc 1 547 0
	.cfi_startproc
	pushq	%rbp	#
	.cfi_def_cfa_offset 16
	.cfi_offset 6, -16
	movq	%rsp, %rbp	#,
	.cfi_def_cfa_register 6
	subq	$16, %rsp	#,
	movq	%rdi, -8(%rbp)	# operand0, operand0
	movq	%rsi, -16(%rbp)	# operand1, operand1
	.loc 1 548 0
	movq	-16(%rbp), %rax	# operand1, tmp62
	movq	%rax, %rdx	# tmp62,
	movl	$15, %esi	#,
	movl	$125, %edi	#,
	call	gen_rtx_fmt_e	#
	movq	%rax, %rdx	#, D.27194
	movq	-8(%rbp), %rax	# operand0, tmp63
	movq	%rdx, %rcx	# D.27194,
	movq	%rax, %rdx	# tmp63,
	movl	$0, %esi	#,
	movl	$47, %edi	#,
	call	gen_rtx_fmt_ee	#
	.loc 1 552 0
	leave
	.cfi_def_cfa 7, 8
	ret
	.cfi_endproc
.LFE39:
	.size	gen_floathisf2, .-gen_floathisf2
	.globl	gen_floathidf2
	.type	gen_floathidf2, @function
gen_floathidf2:
.LFB40:
	.loc 1 558 0
	.cfi_startproc
	pushq	%rbp	#
	.cfi_def_cfa_offset 16
	.cfi_offset 6, -16
	movq	%rsp, %rbp	#,
	.cfi_def_cfa_register 6
	subq	$16, %rsp	#,
	movq	%rdi, -8(%rbp)	# operand0, operand0
	movq	%rsi, -16(%rbp)	# operand1, operand1
	.loc 1 559 0
	movq	-16(%rbp), %rax	# operand1, tmp62
	movq	%rax, %rdx	# tmp62,
	movl	$16, %esi	#,
	movl	$125, %edi	#,
	call	gen_rtx_fmt_e	#
	movq	%rax, %rdx	#, D.27195
	movq	-8(%rbp), %rax	# operand0, tmp63
	movq	%rdx, %rcx	# D.27195,
	movq	%rax, %rdx	# tmp63,
	movl	$0, %esi	#,
	movl	$47, %edi	#,
	call	gen_rtx_fmt_ee	#
	.loc 1 563 0
	leave
	.cfi_def_cfa 7, 8
	ret
	.cfi_endproc
.LFE40:
	.size	gen_floathidf2, .-gen_floathidf2
	.globl	gen_floathixf2
	.type	gen_floathixf2, @function
gen_floathixf2:
.LFB41:
	.loc 1 569 0
	.cfi_startproc
	pushq	%rbp	#
	.cfi_def_cfa_offset 16
	.cfi_offset 6, -16
	movq	%rsp, %rbp	#,
	.cfi_def_cfa_register 6
	subq	$16, %rsp	#,
	movq	%rdi, -8(%rbp)	# operand0, operand0
	movq	%rsi, -16(%rbp)	# operand1, operand1
	.loc 1 570 0
	movq	-16(%rbp), %rax	# operand1, tmp62
	movq	%rax, %rdx	# tmp62,
	movl	$17, %esi	#,
	movl	$125, %edi	#,
	call	gen_rtx_fmt_e	#
	movq	%rax, %rdx	#, D.27196
	movq	-8(%rbp), %rax	# operand0, tmp63
	movq	%rdx, %rcx	# D.27196,
	movq	%rax, %rdx	# tmp63,
	movl	$0, %esi	#,
	movl	$47, %edi	#,
	call	gen_rtx_fmt_ee	#
	.loc 1 574 0
	leave
	.cfi_def_cfa 7, 8
	ret
	.cfi_endproc
.LFE41:
	.size	gen_floathixf2, .-gen_floathixf2
	.globl	gen_floathitf2
	.type	gen_floathitf2, @function
gen_floathitf2:
.LFB42:
	.loc 1 580 0
	.cfi_startproc
	pushq	%rbp	#
	.cfi_def_cfa_offset 16
	.cfi_offset 6, -16
	movq	%rsp, %rbp	#,
	.cfi_def_cfa_register 6
	subq	$16, %rsp	#,
	movq	%rdi, -8(%rbp)	# operand0, operand0
	movq	%rsi, -16(%rbp)	# operand1, operand1
	.loc 1 581 0
	movq	-16(%rbp), %rax	# operand1, tmp62
	movq	%rax, %rdx	# tmp62,
	movl	$18, %esi	#,
	movl	$125, %edi	#,
	call	gen_rtx_fmt_e	#
	movq	%rax, %rdx	#, D.27197
	movq	-8(%rbp), %rax	# operand0, tmp63
	movq	%rdx, %rcx	# D.27197,
	movq	%rax, %rdx	# tmp63,
	movl	$0, %esi	#,
	movl	$47, %edi	#,
	call	gen_rtx_fmt_ee	#
	.loc 1 585 0
	leave
	.cfi_def_cfa 7, 8
	ret
	.cfi_endproc
.LFE42:
	.size	gen_floathitf2, .-gen_floathitf2
	.globl	gen_floatsixf2
	.type	gen_floatsixf2, @function
gen_floatsixf2:
.LFB43:
	.loc 1 591 0
	.cfi_startproc
	pushq	%rbp	#
	.cfi_def_cfa_offset 16
	.cfi_offset 6, -16
	movq	%rsp, %rbp	#,
	.cfi_def_cfa_register 6
	subq	$16, %rsp	#,
	movq	%rdi, -8(%rbp)	# operand0, operand0
	movq	%rsi, -16(%rbp)	# operand1, operand1
	.loc 1 592 0
	movq	-16(%rbp), %rax	# operand1, tmp62
	movq	%rax, %rdx	# tmp62,
	movl	$17, %esi	#,
	movl	$125, %edi	#,
	call	gen_rtx_fmt_e	#
	movq	%rax, %rdx	#, D.27198
	movq	-8(%rbp), %rax	# operand0, tmp63
	movq	%rdx, %rcx	# D.27198,
	movq	%rax, %rdx	# tmp63,
	movl	$0, %esi	#,
	movl	$47, %edi	#,
	call	gen_rtx_fmt_ee	#
	.loc 1 596 0
	leave
	.cfi_def_cfa 7, 8
	ret
	.cfi_endproc
.LFE43:
	.size	gen_floatsixf2, .-gen_floatsixf2
	.globl	gen_floatsitf2
	.type	gen_floatsitf2, @function
gen_floatsitf2:
.LFB44:
	.loc 1 602 0
	.cfi_startproc
	pushq	%rbp	#
	.cfi_def_cfa_offset 16
	.cfi_offset 6, -16
	movq	%rsp, %rbp	#,
	.cfi_def_cfa_register 6
	subq	$16, %rsp	#,
	movq	%rdi, -8(%rbp)	# operand0, operand0
	movq	%rsi, -16(%rbp)	# operand1, operand1
	.loc 1 603 0
	movq	-16(%rbp), %rax	# operand1, tmp62
	movq	%rax, %rdx	# tmp62,
	movl	$18, %esi	#,
	movl	$125, %edi	#,
	call	gen_rtx_fmt_e	#
	movq	%rax, %rdx	#, D.27199
	movq	-8(%rbp), %rax	# operand0, tmp63
	movq	%rdx, %rcx	# D.27199,
	movq	%rax, %rdx	# tmp63,
	movl	$0, %esi	#,
	movl	$47, %edi	#,
	call	gen_rtx_fmt_ee	#
	.loc 1 607 0
	leave
	.cfi_def_cfa 7, 8
	ret
	.cfi_endproc
.LFE44:
	.size	gen_floatsitf2, .-gen_floatsitf2
	.globl	gen_floatdixf2
	.type	gen_floatdixf2, @function
gen_floatdixf2:
.LFB45:
	.loc 1 613 0
	.cfi_startproc
	pushq	%rbp	#
	.cfi_def_cfa_offset 16
	.cfi_offset 6, -16
	movq	%rsp, %rbp	#,
	.cfi_def_cfa_register 6
	subq	$16, %rsp	#,
	movq	%rdi, -8(%rbp)	# operand0, operand0
	movq	%rsi, -16(%rbp)	# operand1, operand1
	.loc 1 614 0
	movq	-16(%rbp), %rax	# operand1, tmp62
	movq	%rax, %rdx	# tmp62,
	movl	$17, %esi	#,
	movl	$125, %edi	#,
	call	gen_rtx_fmt_e	#
	movq	%rax, %rdx	#, D.27200
	movq	-8(%rbp), %rax	# operand0, tmp63
	movq	%rdx, %rcx	# D.27200,
	movq	%rax, %rdx	# tmp63,
	movl	$0, %esi	#,
	movl	$47, %edi	#,
	call	gen_rtx_fmt_ee	#
	.loc 1 618 0
	leave
	.cfi_def_cfa 7, 8
	ret
	.cfi_endproc
.LFE45:
	.size	gen_floatdixf2, .-gen_floatdixf2
	.globl	gen_floatditf2
	.type	gen_floatditf2, @function
gen_floatditf2:
.LFB46:
	.loc 1 624 0
	.cfi_startproc
	pushq	%rbp	#
	.cfi_def_cfa_offset 16
	.cfi_offset 6, -16
	movq	%rsp, %rbp	#,
	.cfi_def_cfa_register 6
	subq	$16, %rsp	#,
	movq	%rdi, -8(%rbp)	# operand0, operand0
	movq	%rsi, -16(%rbp)	# operand1, operand1
	.loc 1 625 0
	movq	-16(%rbp), %rax	# operand1, tmp62
	movq	%rax, %rdx	# tmp62,
	movl	$18, %esi	#,
	movl	$125, %edi	#,
	call	gen_rtx_fmt_e	#
	movq	%rax, %rdx	#, D.27201
	movq	-8(%rbp), %rax	# operand0, tmp63
	movq	%rdx, %rcx	# D.27201,
	movq	%rax, %rdx	# tmp63,
	movl	$0, %esi	#,
	movl	$47, %edi	#,
	call	gen_rtx_fmt_ee	#
	.loc 1 629 0
	leave
	.cfi_def_cfa 7, 8
	ret
	.cfi_endproc
.LFE46:
	.size	gen_floatditf2, .-gen_floatditf2
	.globl	gen_addqi3_cc
	.type	gen_addqi3_cc, @function
gen_addqi3_cc:
.LFB47:
	.loc 1 636 0
	.cfi_startproc
	pushq	%rbp	#
	.cfi_def_cfa_offset 16
	.cfi_offset 6, -16
	movq	%rsp, %rbp	#,
	.cfi_def_cfa_register 6
	pushq	%r12	#
	pushq	%rbx	#
	subq	$32, %rsp	#,
	.cfi_offset 12, -24
	.cfi_offset 3, -32
	movq	%rdi, -24(%rbp)	# operand0, operand0
	movq	%rsi, -32(%rbp)	# operand1, operand1
	movq	%rdx, -40(%rbp)	# operand2, operand2
	.loc 1 637 0
	movq	-40(%rbp), %rdx	# operand2, tmp68
	movq	-32(%rbp), %rax	# operand1, tmp69
	movq	%rdx, %rcx	# tmp68,
	movq	%rax, %rdx	# tmp69,
	movl	$2, %esi	#,
	movl	$75, %edi	#,
	call	gen_rtx_fmt_ee	#
	movq	%rax, %rdx	#, D.27202
	movq	-24(%rbp), %rax	# operand0, tmp70
	movq	%rdx, %rcx	# D.27202,
	movq	%rax, %rdx	# tmp70,
	movl	$0, %esi	#,
	movl	$47, %edi	#,
	call	gen_rtx_fmt_ee	#
	movq	%rax, %rbx	#, D.27202
	movq	-40(%rbp), %rdx	# operand2, tmp71
	movq	-32(%rbp), %rax	# operand1, tmp72
	movq	%rax, %rsi	# tmp72,
	movl	$2, %edi	#,
	movl	$0, %eax	#,
	call	gen_rtvec	#
	movl	$12, %ecx	#,
	movq	%rax, %rdx	# D.27203,
	movl	$52, %esi	#,
	movl	$42, %edi	#,
	call	gen_rtx_fmt_Ei	#
	movq	%rax, %r12	#, D.27202
	movl	$17, %esi	#,
	movl	$52, %edi	#,
	call	gen_rtx_REG	#
	movq	%r12, %rcx	# D.27202,
	movq	%rax, %rdx	# D.27202,
	movl	$0, %esi	#,
	movl	$47, %edi	#,
	call	gen_rtx_fmt_ee	#
	movq	%rbx, %rdx	# D.27202,
	movq	%rax, %rsi	# D.27202,
	movl	$2, %edi	#,
	movl	$0, %eax	#,
	call	gen_rtvec	#
	movq	%rax, %rdx	# D.27203,
	movl	$0, %esi	#,
	movl	$39, %edi	#,
	call	gen_rtx_fmt_E	#
	.loc 1 651 0
	addq	$32, %rsp	#,
	popq	%rbx	#
	popq	%r12	#
	popq	%rbp	#
	.cfi_def_cfa 7, 8
	ret
	.cfi_endproc
.LFE47:
	.size	gen_addqi3_cc, .-gen_addqi3_cc
	.globl	gen_addsi_1_zext
	.type	gen_addsi_1_zext, @function
gen_addsi_1_zext:
.LFB48:
	.loc 1 658 0
	.cfi_startproc
	pushq	%rbp	#
	.cfi_def_cfa_offset 16
	.cfi_offset 6, -16
	movq	%rsp, %rbp	#,
	.cfi_def_cfa_register 6
	pushq	%rbx	#
	subq	$40, %rsp	#,
	.cfi_offset 3, -24
	movq	%rdi, -24(%rbp)	# operand0, operand0
	movq	%rsi, -32(%rbp)	# operand1, operand1
	movq	%rdx, -40(%rbp)	# operand2, operand2
	.loc 1 659 0
	movl	$17, %esi	#,
	movl	$52, %edi	#,
	call	gen_rtx_REG	#
	movq	%rax, %rdx	# D.27204,
	movl	$0, %esi	#,
	movl	$49, %edi	#,
	call	gen_rtx_fmt_e	#
	movq	%rax, %rbx	#, D.27204
	movq	-40(%rbp), %rdx	# operand2, tmp67
	movq	-32(%rbp), %rax	# operand1, tmp68
	movq	%rdx, %rcx	# tmp67,
	movq	%rax, %rdx	# tmp68,
	movl	$4, %esi	#,
	movl	$75, %edi	#,
	call	gen_rtx_fmt_ee	#
	movq	%rax, %rdx	# D.27204,
	movl	$5, %esi	#,
	movl	$121, %edi	#,
	call	gen_rtx_fmt_e	#
	movq	%rax, %rdx	#, D.27204
	movq	-24(%rbp), %rax	# operand0, tmp69
	movq	%rdx, %rcx	# D.27204,
	movq	%rax, %rdx	# tmp69,
	movl	$0, %esi	#,
	movl	$47, %edi	#,
	call	gen_rtx_fmt_ee	#
	movq	%rbx, %rdx	# D.27204,
	movq	%rax, %rsi	# D.27204,
	movl	$2, %edi	#,
	movl	$0, %eax	#,
	call	gen_rtvec	#
	movq	%rax, %rdx	# D.27205,
	movl	$0, %esi	#,
	movl	$39, %edi	#,
	call	gen_rtx_fmt_E	#
	.loc 1 669 0
	addq	$40, %rsp	#,
	popq	%rbx	#
	popq	%rbp	#
	.cfi_def_cfa 7, 8
	ret
	.cfi_endproc
.LFE48:
	.size	gen_addsi_1_zext, .-gen_addsi_1_zext
	.globl	gen_addqi_ext_1
	.type	gen_addqi_ext_1, @function
gen_addqi_ext_1:
.LFB49:
	.loc 1 676 0
	.cfi_startproc
	pushq	%rbp	#
	.cfi_def_cfa_offset 16
	.cfi_offset 6, -16
	movq	%rsp, %rbp	#,
	.cfi_def_cfa_register 6
	pushq	%r13	#
	pushq	%r12	#
	pushq	%rbx	#
	subq	$40, %rsp	#,
	.cfi_offset 13, -24
	.cfi_offset 12, -32
	.cfi_offset 3, -40
	movq	%rdi, -40(%rbp)	# operand0, operand0
	movq	%rsi, -48(%rbp)	# operand1, operand1
	movq	%rdx, -56(%rbp)	# operand2, operand2
	.loc 1 677 0
	movl	$17, %esi	#,
	movl	$52, %edi	#,
	call	gen_rtx_REG	#
	movq	%rax, %rdx	# D.27206,
	movl	$0, %esi	#,
	movl	$49, %edi	#,
	call	gen_rtx_fmt_e	#
	movq	%rax, %rbx	#, D.27206
	movl	$8, %esi	#,
	movl	$0, %edi	#,
	call	gen_rtx_CONST_INT	#
	movq	%rax, %r12	#, D.27206
	movl	$8, %esi	#,
	movl	$0, %edi	#,
	call	gen_rtx_CONST_INT	#
	movq	%rax, %rdx	#, D.27206
	movq	-48(%rbp), %rax	# operand1, tmp72
	movq	%r12, %r8	# D.27206,
	movq	%rdx, %rcx	# D.27206,
	movq	%rax, %rdx	# tmp72,
	movl	$4, %esi	#,
	movl	$133, %edi	#,
	call	gen_rtx_fmt_eee	#
	movq	-56(%rbp), %rdx	# operand2, tmp73
	movq	%rdx, %rcx	# tmp73,
	movq	%rax, %rdx	# D.27206,
	movl	$4, %esi	#,
	movl	$75, %edi	#,
	call	gen_rtx_fmt_ee	#
	movq	%rax, %r12	#, D.27206
	movl	$8, %esi	#,
	movl	$0, %edi	#,
	call	gen_rtx_CONST_INT	#
	movq	%rax, %r13	#, D.27206
	movl	$8, %esi	#,
	movl	$0, %edi	#,
	call	gen_rtx_CONST_INT	#
	movq	%rax, %rdx	#, D.27206
	movq	-40(%rbp), %rax	# operand0, tmp74
	movq	%r13, %r8	# D.27206,
	movq	%rdx, %rcx	# D.27206,
	movq	%rax, %rdx	# tmp74,
	movl	$4, %esi	#,
	movl	$133, %edi	#,
	call	gen_rtx_fmt_eee	#
	movq	%r12, %rcx	# D.27206,
	movq	%rax, %rdx	# D.27206,
	movl	$0, %esi	#,
	movl	$47, %edi	#,
	call	gen_rtx_fmt_ee	#
	movq	%rbx, %rdx	# D.27206,
	movq	%rax, %rsi	# D.27206,
	movl	$2, %edi	#,
	movl	$0, %eax	#,
	call	gen_rtvec	#
	movq	%rax, %rdx	# D.27207,
	movl	$0, %esi	#,
	movl	$39, %edi	#,
	call	gen_rtx_fmt_E	#
	.loc 1 692 0
	addq	$40, %rsp	#,
	popq	%rbx	#
	popq	%r12	#
	popq	%r13	#
	popq	%rbp	#
	.cfi_def_cfa 7, 8
	ret
	.cfi_endproc
.LFE49:
	.size	gen_addqi_ext_1, .-gen_addqi_ext_1
	.globl	gen_subdi3_carry_rex64
	.type	gen_subdi3_carry_rex64, @function
gen_subdi3_carry_rex64:
.LFB50:
	.loc 1 699 0
	.cfi_startproc
	pushq	%rbp	#
	.cfi_def_cfa_offset 16
	.cfi_offset 6, -16
	movq	%rsp, %rbp	#,
	.cfi_def_cfa_register 6
	pushq	%r12	#
	pushq	%rbx	#
	subq	$32, %rsp	#,
	.cfi_offset 12, -24
	.cfi_offset 3, -32
	movq	%rdi, -24(%rbp)	# operand0, operand0
	movq	%rsi, -32(%rbp)	# operand1, operand1
	movq	%rdx, -40(%rbp)	# operand2, operand2
	.loc 1 700 0
	movl	$17, %esi	#,
	movl	$52, %edi	#,
	call	gen_rtx_REG	#
	movq	%rax, %rdx	# D.27208,
	movl	$0, %esi	#,
	movl	$49, %edi	#,
	call	gen_rtx_fmt_e	#
	movq	%rax, %rbx	#, D.27208
	movq	const_int_rtx+512(%rip), %r12	# const_int_rtx, D.27208
	movl	$17, %esi	#,
	movl	$52, %edi	#,
	call	gen_rtx_REG	#
	movq	%r12, %rcx	# D.27208,
	movq	%rax, %rdx	# D.27208,
	movl	$5, %esi	#,
	movl	$111, %edi	#,
	call	gen_rtx_fmt_ee	#
	movq	-40(%rbp), %rdx	# operand2, tmp70
	movq	%rdx, %rcx	# tmp70,
	movq	%rax, %rdx	# D.27208,
	movl	$5, %esi	#,
	movl	$75, %edi	#,
	call	gen_rtx_fmt_ee	#
	movq	%rax, %rdx	#, D.27208
	movq	-32(%rbp), %rax	# operand1, tmp71
	movq	%rdx, %rcx	# D.27208,
	movq	%rax, %rdx	# tmp71,
	movl	$5, %esi	#,
	movl	$76, %edi	#,
	call	gen_rtx_fmt_ee	#
	movq	%rax, %rdx	#, D.27208
	movq	-24(%rbp), %rax	# operand0, tmp72
	movq	%rdx, %rcx	# D.27208,
	movq	%rax, %rdx	# tmp72,
	movl	$0, %esi	#,
	movl	$47, %edi	#,
	call	gen_rtx_fmt_ee	#
	movq	%rbx, %rdx	# D.27208,
	movq	%rax, %rsi	# D.27208,
	movl	$2, %edi	#,
	movl	$0, %eax	#,
	call	gen_rtvec	#
	movq	%rax, %rdx	# D.27209,
	movl	$0, %esi	#,
	movl	$39, %edi	#,
	call	gen_rtx_fmt_E	#
	.loc 1 714 0
	addq	$32, %rsp	#,
	popq	%rbx	#
	popq	%r12	#
	popq	%rbp	#
	.cfi_def_cfa 7, 8
	ret
	.cfi_endproc
.LFE50:
	.size	gen_subdi3_carry_rex64, .-gen_subdi3_carry_rex64
	.globl	gen_subsi3_carry
	.type	gen_subsi3_carry, @function
gen_subsi3_carry:
.LFB51:
	.loc 1 721 0
	.cfi_startproc
	pushq	%rbp	#
	.cfi_def_cfa_offset 16
	.cfi_offset 6, -16
	movq	%rsp, %rbp	#,
	.cfi_def_cfa_register 6
	pushq	%r12	#
	pushq	%rbx	#
	subq	$32, %rsp	#,
	.cfi_offset 12, -24
	.cfi_offset 3, -32
	movq	%rdi, -24(%rbp)	# operand0, operand0
	movq	%rsi, -32(%rbp)	# operand1, operand1
	movq	%rdx, -40(%rbp)	# operand2, operand2
	.loc 1 722 0
	movl	$17, %esi	#,
	movl	$52, %edi	#,
	call	gen_rtx_REG	#
	movq	%rax, %rdx	# D.27210,
	movl	$0, %esi	#,
	movl	$49, %edi	#,
	call	gen_rtx_fmt_e	#
	movq	%rax, %rbx	#, D.27210
	movq	const_int_rtx+512(%rip), %r12	# const_int_rtx, D.27210
	movl	$17, %esi	#,
	movl	$52, %edi	#,
	call	gen_rtx_REG	#
	movq	%r12, %rcx	# D.27210,
	movq	%rax, %rdx	# D.27210,
	movl	$4, %esi	#,
	movl	$111, %edi	#,
	call	gen_rtx_fmt_ee	#
	movq	-40(%rbp), %rdx	# operand2, tmp70
	movq	%rdx, %rcx	# tmp70,
	movq	%rax, %rdx	# D.27210,
	movl	$4, %esi	#,
	movl	$75, %edi	#,
	call	gen_rtx_fmt_ee	#
	movq	%rax, %rdx	#, D.27210
	movq	-32(%rbp), %rax	# operand1, tmp71
	movq	%rdx, %rcx	# D.27210,
	movq	%rax, %rdx	# tmp71,
	movl	$4, %esi	#,
	movl	$76, %edi	#,
	call	gen_rtx_fmt_ee	#
	movq	%rax, %rdx	#, D.27210
	movq	-24(%rbp), %rax	# operand0, tmp72
	movq	%rdx, %rcx	# D.27210,
	movq	%rax, %rdx	# tmp72,
	movl	$0, %esi	#,
	movl	$47, %edi	#,
	call	gen_rtx_fmt_ee	#
	movq	%rbx, %rdx	# D.27210,
	movq	%rax, %rsi	# D.27210,
	movl	$2, %edi	#,
	movl	$0, %eax	#,
	call	gen_rtvec	#
	movq	%rax, %rdx	# D.27211,
	movl	$0, %esi	#,
	movl	$39, %edi	#,
	call	gen_rtx_fmt_E	#
	.loc 1 736 0
	addq	$32, %rsp	#,
	popq	%rbx	#
	popq	%r12	#
	popq	%rbp	#
	.cfi_def_cfa 7, 8
	ret
	.cfi_endproc
.LFE51:
	.size	gen_subsi3_carry, .-gen_subsi3_carry
	.globl	gen_subsi3_carry_zext
	.type	gen_subsi3_carry_zext, @function
gen_subsi3_carry_zext:
.LFB52:
	.loc 1 743 0
	.cfi_startproc
	pushq	%rbp	#
	.cfi_def_cfa_offset 16
	.cfi_offset 6, -16
	movq	%rsp, %rbp	#,
	.cfi_def_cfa_register 6
	pushq	%r12	#
	pushq	%rbx	#
	subq	$32, %rsp	#,
	.cfi_offset 12, -24
	.cfi_offset 3, -32
	movq	%rdi, -24(%rbp)	# operand0, operand0
	movq	%rsi, -32(%rbp)	# operand1, operand1
	movq	%rdx, -40(%rbp)	# operand2, operand2
	.loc 1 744 0
	movl	$17, %esi	#,
	movl	$52, %edi	#,
	call	gen_rtx_REG	#
	movq	%rax, %rdx	# D.27212,
	movl	$0, %esi	#,
	movl	$49, %edi	#,
	call	gen_rtx_fmt_e	#
	movq	%rax, %rbx	#, D.27212
	movq	const_int_rtx+512(%rip), %r12	# const_int_rtx, D.27212
	movl	$17, %esi	#,
	movl	$52, %edi	#,
	call	gen_rtx_REG	#
	movq	%r12, %rcx	# D.27212,
	movq	%rax, %rdx	# D.27212,
	movl	$4, %esi	#,
	movl	$111, %edi	#,
	call	gen_rtx_fmt_ee	#
	movq	-40(%rbp), %rdx	# operand2, tmp71
	movq	%rdx, %rcx	# tmp71,
	movq	%rax, %rdx	# D.27212,
	movl	$4, %esi	#,
	movl	$75, %edi	#,
	call	gen_rtx_fmt_ee	#
	movq	%rax, %rdx	#, D.27212
	movq	-32(%rbp), %rax	# operand1, tmp72
	movq	%rdx, %rcx	# D.27212,
	movq	%rax, %rdx	# tmp72,
	movl	$4, %esi	#,
	movl	$76, %edi	#,
	call	gen_rtx_fmt_ee	#
	movq	%rax, %rdx	# D.27212,
	movl	$5, %esi	#,
	movl	$121, %edi	#,
	call	gen_rtx_fmt_e	#
	movq	%rax, %rdx	#, D.27212
	movq	-24(%rbp), %rax	# operand0, tmp73
	movq	%rdx, %rcx	# D.27212,
	movq	%rax, %rdx	# tmp73,
	movl	$0, %esi	#,
	movl	$47, %edi	#,
	call	gen_rtx_fmt_ee	#
	movq	%rbx, %rdx	# D.27212,
	movq	%rax, %rsi	# D.27212,
	movl	$2, %edi	#,
	movl	$0, %eax	#,
	call	gen_rtvec	#
	movq	%rax, %rdx	# D.27213,
	movl	$0, %esi	#,
	movl	$39, %edi	#,
	call	gen_rtx_fmt_E	#
	.loc 1 759 0
	addq	$32, %rsp	#,
	popq	%rbx	#
	popq	%r12	#
	popq	%rbp	#
	.cfi_def_cfa 7, 8
	ret
	.cfi_endproc
.LFE52:
	.size	gen_subsi3_carry_zext, .-gen_subsi3_carry_zext
	.globl	gen_divqi3
	.type	gen_divqi3, @function
gen_divqi3:
.LFB53:
	.loc 1 766 0
	.cfi_startproc
	pushq	%rbp	#
	.cfi_def_cfa_offset 16
	.cfi_offset 6, -16
	movq	%rsp, %rbp	#,
	.cfi_def_cfa_register 6
	pushq	%rbx	#
	subq	$40, %rsp	#,
	.cfi_offset 3, -24
	movq	%rdi, -24(%rbp)	# operand0, operand0
	movq	%rsi, -32(%rbp)	# operand1, operand1
	movq	%rdx, -40(%rbp)	# operand2, operand2
	.loc 1 767 0
	movl	$17, %esi	#,
	movl	$52, %edi	#,
	call	gen_rtx_REG	#
	movq	%rax, %rdx	# D.27214,
	movl	$0, %esi	#,
	movl	$49, %edi	#,
	call	gen_rtx_fmt_e	#
	movq	%rax, %rbx	#, D.27214
	movq	-40(%rbp), %rdx	# operand2, tmp66
	movq	-32(%rbp), %rax	# operand1, tmp67
	movq	%rdx, %rcx	# tmp66,
	movq	%rax, %rdx	# tmp67,
	movl	$2, %esi	#,
	movl	$79, %edi	#,
	call	gen_rtx_fmt_ee	#
	movq	%rax, %rdx	#, D.27214
	movq	-24(%rbp), %rax	# operand0, tmp68
	movq	%rdx, %rcx	# D.27214,
	movq	%rax, %rdx	# tmp68,
	movl	$0, %esi	#,
	movl	$47, %edi	#,
	call	gen_rtx_fmt_ee	#
	movq	%rbx, %rdx	# D.27214,
	movq	%rax, %rsi	# D.27214,
	movl	$2, %edi	#,
	movl	$0, %eax	#,
	call	gen_rtvec	#
	movq	%rax, %rdx	# D.27215,
	movl	$0, %esi	#,
	movl	$39, %edi	#,
	call	gen_rtx_fmt_E	#
	.loc 1 776 0
	addq	$40, %rsp	#,
	popq	%rbx	#
	popq	%rbp	#
	.cfi_def_cfa 7, 8
	ret
	.cfi_endproc
.LFE53:
	.size	gen_divqi3, .-gen_divqi3
	.globl	gen_udivqi3
	.type	gen_udivqi3, @function
gen_udivqi3:
.LFB54:
	.loc 1 783 0
	.cfi_startproc
	pushq	%rbp	#
	.cfi_def_cfa_offset 16
	.cfi_offset 6, -16
	movq	%rsp, %rbp	#,
	.cfi_def_cfa_register 6
	pushq	%rbx	#
	subq	$40, %rsp	#,
	.cfi_offset 3, -24
	movq	%rdi, -24(%rbp)	# operand0, operand0
	movq	%rsi, -32(%rbp)	# operand1, operand1
	movq	%rdx, -40(%rbp)	# operand2, operand2
	.loc 1 784 0
	movl	$17, %esi	#,
	movl	$52, %edi	#,
	call	gen_rtx_REG	#
	movq	%rax, %rdx	# D.27216,
	movl	$0, %esi	#,
	movl	$49, %edi	#,
	call	gen_rtx_fmt_e	#
	movq	%rax, %rbx	#, D.27216
	movq	-40(%rbp), %rdx	# operand2, tmp66
	movq	-32(%rbp), %rax	# operand1, tmp67
	movq	%rdx, %rcx	# tmp66,
	movq	%rax, %rdx	# tmp67,
	movl	$2, %esi	#,
	movl	$81, %edi	#,
	call	gen_rtx_fmt_ee	#
	movq	%rax, %rdx	#, D.27216
	movq	-24(%rbp), %rax	# operand0, tmp68
	movq	%rdx, %rcx	# D.27216,
	movq	%rax, %rdx	# tmp68,
	movl	$0, %esi	#,
	movl	$47, %edi	#,
	call	gen_rtx_fmt_ee	#
	movq	%rbx, %rdx	# D.27216,
	movq	%rax, %rsi	# D.27216,
	movl	$2, %edi	#,
	movl	$0, %eax	#,
	call	gen_rtvec	#
	movq	%rax, %rdx	# D.27217,
	movl	$0, %esi	#,
	movl	$39, %edi	#,
	call	gen_rtx_fmt_E	#
	.loc 1 793 0
	addq	$40, %rsp	#,
	popq	%rbx	#
	popq	%rbp	#
	.cfi_def_cfa 7, 8
	ret
	.cfi_endproc
.LFE54:
	.size	gen_udivqi3, .-gen_udivqi3
	.globl	gen_divmodhi4
	.type	gen_divmodhi4, @function
gen_divmodhi4:
.LFB55:
	.loc 1 801 0
	.cfi_startproc
	pushq	%rbp	#
	.cfi_def_cfa_offset 16
	.cfi_offset 6, -16
	movq	%rsp, %rbp	#,
	.cfi_def_cfa_register 6
	pushq	%r12	#
	pushq	%rbx	#
	subq	$32, %rsp	#,
	.cfi_offset 12, -24
	.cfi_offset 3, -32
	movq	%rdi, -24(%rbp)	# operand0, operand0
	movq	%rsi, -32(%rbp)	# operand1, operand1
	movq	%rdx, -40(%rbp)	# operand2, operand2
	movq	%rcx, -48(%rbp)	# operand3, operand3
	.loc 1 802 0
	movl	$17, %esi	#,
	movl	$52, %edi	#,
	call	gen_rtx_REG	#
	movq	%rax, %rdx	# D.27218,
	movl	$0, %esi	#,
	movl	$49, %edi	#,
	call	gen_rtx_fmt_e	#
	movq	%rax, %r12	#, D.27218
	movq	-40(%rbp), %rdx	# operand2, tmp68
	movq	-32(%rbp), %rax	# operand1, tmp69
	movq	%rdx, %rcx	# tmp68,
	movq	%rax, %rdx	# tmp69,
	movl	$3, %esi	#,
	movl	$80, %edi	#,
	call	gen_rtx_fmt_ee	#
	movq	%rax, %rdx	#, D.27218
	movq	-48(%rbp), %rax	# operand3, tmp70
	movq	%rdx, %rcx	# D.27218,
	movq	%rax, %rdx	# tmp70,
	movl	$0, %esi	#,
	movl	$47, %edi	#,
	call	gen_rtx_fmt_ee	#
	movq	%rax, %rbx	#, D.27218
	movq	-40(%rbp), %rdx	# operand2, tmp71
	movq	-32(%rbp), %rax	# operand1, tmp72
	movq	%rdx, %rcx	# tmp71,
	movq	%rax, %rdx	# tmp72,
	movl	$3, %esi	#,
	movl	$79, %edi	#,
	call	gen_rtx_fmt_ee	#
	movq	%rax, %rdx	#, D.27218
	movq	-24(%rbp), %rax	# operand0, tmp73
	movq	%rdx, %rcx	# D.27218,
	movq	%rax, %rdx	# tmp73,
	movl	$0, %esi	#,
	movl	$47, %edi	#,
	call	gen_rtx_fmt_ee	#
	movq	%r12, %rcx	# D.27218,
	movq	%rbx, %rdx	# D.27218,
	movq	%rax, %rsi	# D.27218,
	movl	$3, %edi	#,
	movl	$0, %eax	#,
	call	gen_rtvec	#
	movq	%rax, %rdx	# D.27219,
	movl	$0, %esi	#,
	movl	$39, %edi	#,
	call	gen_rtx_fmt_E	#
	.loc 1 816 0
	addq	$32, %rsp	#,
	popq	%rbx	#
	popq	%r12	#
	popq	%rbp	#
	.cfi_def_cfa 7, 8
	ret
	.cfi_endproc
.LFE55:
	.size	gen_divmodhi4, .-gen_divmodhi4
	.globl	gen_udivmoddi4
	.type	gen_udivmoddi4, @function
gen_udivmoddi4:
.LFB56:
	.loc 1 824 0
	.cfi_startproc
	pushq	%rbp	#
	.cfi_def_cfa_offset 16
	.cfi_offset 6, -16
	movq	%rsp, %rbp	#,
	.cfi_def_cfa_register 6
	pushq	%r12	#
	pushq	%rbx	#
	subq	$32, %rsp	#,
	.cfi_offset 12, -24
	.cfi_offset 3, -32
	movq	%rdi, -24(%rbp)	# operand0, operand0
	movq	%rsi, -32(%rbp)	# operand1, operand1
	movq	%rdx, -40(%rbp)	# operand2, operand2
	movq	%rcx, -48(%rbp)	# operand3, operand3
	.loc 1 825 0
	movl	$17, %esi	#,
	movl	$52, %edi	#,
	call	gen_rtx_REG	#
	movq	%rax, %rdx	# D.27220,
	movl	$0, %esi	#,
	movl	$49, %edi	#,
	call	gen_rtx_fmt_e	#
	movq	%rax, %r12	#, D.27220
	movq	-40(%rbp), %rdx	# operand2, tmp68
	movq	-32(%rbp), %rax	# operand1, tmp69
	movq	%rdx, %rcx	# tmp68,
	movq	%rax, %rdx	# tmp69,
	movl	$5, %esi	#,
	movl	$82, %edi	#,
	call	gen_rtx_fmt_ee	#
	movq	%rax, %rdx	#, D.27220
	movq	-48(%rbp), %rax	# operand3, tmp70
	movq	%rdx, %rcx	# D.27220,
	movq	%rax, %rdx	# tmp70,
	movl	$0, %esi	#,
	movl	$47, %edi	#,
	call	gen_rtx_fmt_ee	#
	movq	%rax, %rbx	#, D.27220
	movq	-40(%rbp), %rdx	# operand2, tmp71
	movq	-32(%rbp), %rax	# operand1, tmp72
	movq	%rdx, %rcx	# tmp71,
	movq	%rax, %rdx	# tmp72,
	movl	$5, %esi	#,
	movl	$81, %edi	#,
	call	gen_rtx_fmt_ee	#
	movq	%rax, %rdx	#, D.27220
	movq	-24(%rbp), %rax	# operand0, tmp73
	movq	%rdx, %rcx	# D.27220,
	movq	%rax, %rdx	# tmp73,
	movl	$0, %esi	#,
	movl	$47, %edi	#,
	call	gen_rtx_fmt_ee	#
	movq	%r12, %rcx	# D.27220,
	movq	%rbx, %rdx	# D.27220,
	movq	%rax, %rsi	# D.27220,
	movl	$3, %edi	#,
	movl	$0, %eax	#,
	call	gen_rtvec	#
	movq	%rax, %rdx	# D.27221,
	movl	$0, %esi	#,
	movl	$39, %edi	#,
	call	gen_rtx_fmt_E	#
	.loc 1 839 0
	addq	$32, %rsp	#,
	popq	%rbx	#
	popq	%r12	#
	popq	%rbp	#
	.cfi_def_cfa 7, 8
	ret
	.cfi_endproc
.LFE56:
	.size	gen_udivmoddi4, .-gen_udivmoddi4
	.globl	gen_udivmodsi4
	.type	gen_udivmodsi4, @function
gen_udivmodsi4:
.LFB57:
	.loc 1 847 0
	.cfi_startproc
	pushq	%rbp	#
	.cfi_def_cfa_offset 16
	.cfi_offset 6, -16
	movq	%rsp, %rbp	#,
	.cfi_def_cfa_register 6
	pushq	%r12	#
	pushq	%rbx	#
	subq	$32, %rsp	#,
	.cfi_offset 12, -24
	.cfi_offset 3, -32
	movq	%rdi, -24(%rbp)	# operand0, operand0
	movq	%rsi, -32(%rbp)	# operand1, operand1
	movq	%rdx, -40(%rbp)	# operand2, operand2
	movq	%rcx, -48(%rbp)	# operand3, operand3
	.loc 1 848 0
	movl	$17, %esi	#,
	movl	$52, %edi	#,
	call	gen_rtx_REG	#
	movq	%rax, %rdx	# D.27222,
	movl	$0, %esi	#,
	movl	$49, %edi	#,
	call	gen_rtx_fmt_e	#
	movq	%rax, %r12	#, D.27222
	movq	-40(%rbp), %rdx	# operand2, tmp68
	movq	-32(%rbp), %rax	# operand1, tmp69
	movq	%rdx, %rcx	# tmp68,
	movq	%rax, %rdx	# tmp69,
	movl	$4, %esi	#,
	movl	$82, %edi	#,
	call	gen_rtx_fmt_ee	#
	movq	%rax, %rdx	#, D.27222
	movq	-48(%rbp), %rax	# operand3, tmp70
	movq	%rdx, %rcx	# D.27222,
	movq	%rax, %rdx	# tmp70,
	movl	$0, %esi	#,
	movl	$47, %edi	#,
	call	gen_rtx_fmt_ee	#
	movq	%rax, %rbx	#, D.27222
	movq	-40(%rbp), %rdx	# operand2, tmp71
	movq	-32(%rbp), %rax	# operand1, tmp72
	movq	%rdx, %rcx	# tmp71,
	movq	%rax, %rdx	# tmp72,
	movl	$4, %esi	#,
	movl	$81, %edi	#,
	call	gen_rtx_fmt_ee	#
	movq	%rax, %rdx	#, D.27222
	movq	-24(%rbp), %rax	# operand0, tmp73
	movq	%rdx, %rcx	# D.27222,
	movq	%rax, %rdx	# tmp73,
	movl	$0, %esi	#,
	movl	$47, %edi	#,
	call	gen_rtx_fmt_ee	#
	movq	%r12, %rcx	# D.27222,
	movq	%rbx, %rdx	# D.27222,
	movq	%rax, %rsi	# D.27222,
	movl	$3, %edi	#,
	movl	$0, %eax	#,
	call	gen_rtvec	#
	movq	%rax, %rdx	# D.27223,
	movl	$0, %esi	#,
	movl	$39, %edi	#,
	call	gen_rtx_fmt_E	#
	.loc 1 862 0
	addq	$32, %rsp	#,
	popq	%rbx	#
	popq	%r12	#
	popq	%rbp	#
	.cfi_def_cfa 7, 8
	ret
	.cfi_endproc
.LFE57:
	.size	gen_udivmodsi4, .-gen_udivmodsi4
	.globl	gen_testsi_1
	.type	gen_testsi_1, @function
gen_testsi_1:
.LFB58:
	.loc 1 868 0
	.cfi_startproc
	pushq	%rbp	#
	.cfi_def_cfa_offset 16
	.cfi_offset 6, -16
	movq	%rsp, %rbp	#,
	.cfi_def_cfa_register 6
	pushq	%rbx	#
	subq	$24, %rsp	#,
	.cfi_offset 3, -24
	movq	%rdi, -24(%rbp)	# operand0, operand0
	movq	%rsi, -32(%rbp)	# operand1, operand1
	.loc 1 869 0
	movq	const_int_rtx+512(%rip), %rbx	# const_int_rtx, D.27224
	movq	-32(%rbp), %rdx	# operand1, tmp65
	movq	-24(%rbp), %rax	# operand0, tmp66
	movq	%rdx, %rcx	# tmp65,
	movq	%rax, %rdx	# tmp66,
	movl	$4, %esi	#,
	movl	$83, %edi	#,
	call	gen_rtx_fmt_ee	#
	movq	%rbx, %rcx	# D.27224,
	movq	%rax, %rdx	# D.27224,
	movl	$0, %esi	#,
	movl	$74, %edi	#,
	call	gen_rtx_fmt_ee	#
	movq	%rax, %rbx	#, D.27224
	movl	$17, %esi	#,
	movl	$0, %edi	#,
	call	gen_rtx_REG	#
	movq	%rbx, %rcx	# D.27224,
	movq	%rax, %rdx	# D.27224,
	movl	$0, %esi	#,
	movl	$47, %edi	#,
	call	gen_rtx_fmt_ee	#
	.loc 1 877 0
	addq	$24, %rsp	#,
	popq	%rbx	#
	popq	%rbp	#
	.cfi_def_cfa 7, 8
	ret
	.cfi_endproc
.LFE58:
	.size	gen_testsi_1, .-gen_testsi_1
	.globl	gen_andqi_ext_0
	.type	gen_andqi_ext_0, @function
gen_andqi_ext_0:
.LFB59:
	.loc 1 884 0
	.cfi_startproc
	pushq	%rbp	#
	.cfi_def_cfa_offset 16
	.cfi_offset 6, -16
	movq	%rsp, %rbp	#,
	.cfi_def_cfa_register 6
	pushq	%r13	#
	pushq	%r12	#
	pushq	%rbx	#
	subq	$40, %rsp	#,
	.cfi_offset 13, -24
	.cfi_offset 12, -32
	.cfi_offset 3, -40
	movq	%rdi, -40(%rbp)	# operand0, operand0
	movq	%rsi, -48(%rbp)	# operand1, operand1
	movq	%rdx, -56(%rbp)	# operand2, operand2
	.loc 1 885 0
	movl	$17, %esi	#,
	movl	$52, %edi	#,
	call	gen_rtx_REG	#
	movq	%rax, %rdx	# D.27225,
	movl	$0, %esi	#,
	movl	$49, %edi	#,
	call	gen_rtx_fmt_e	#
	movq	%rax, %rbx	#, D.27225
	movl	$8, %esi	#,
	movl	$0, %edi	#,
	call	gen_rtx_CONST_INT	#
	movq	%rax, %r12	#, D.27225
	movl	$8, %esi	#,
	movl	$0, %edi	#,
	call	gen_rtx_CONST_INT	#
	movq	%rax, %rdx	#, D.27225
	movq	-48(%rbp), %rax	# operand1, tmp72
	movq	%r12, %r8	# D.27225,
	movq	%rdx, %rcx	# D.27225,
	movq	%rax, %rdx	# tmp72,
	movl	$4, %esi	#,
	movl	$133, %edi	#,
	call	gen_rtx_fmt_eee	#
	movq	-56(%rbp), %rdx	# operand2, tmp73
	movq	%rdx, %rcx	# tmp73,
	movq	%rax, %rdx	# D.27225,
	movl	$4, %esi	#,
	movl	$83, %edi	#,
	call	gen_rtx_fmt_ee	#
	movq	%rax, %r12	#, D.27225
	movl	$8, %esi	#,
	movl	$0, %edi	#,
	call	gen_rtx_CONST_INT	#
	movq	%rax, %r13	#, D.27225
	movl	$8, %esi	#,
	movl	$0, %edi	#,
	call	gen_rtx_CONST_INT	#
	movq	%rax, %rdx	#, D.27225
	movq	-40(%rbp), %rax	# operand0, tmp74
	movq	%r13, %r8	# D.27225,
	movq	%rdx, %rcx	# D.27225,
	movq	%rax, %rdx	# tmp74,
	movl	$4, %esi	#,
	movl	$133, %edi	#,
	call	gen_rtx_fmt_eee	#
	movq	%r12, %rcx	# D.27225,
	movq	%rax, %rdx	# D.27225,
	movl	$0, %esi	#,
	movl	$47, %edi	#,
	call	gen_rtx_fmt_ee	#
	movq	%rbx, %rdx	# D.27225,
	movq	%rax, %rsi	# D.27225,
	movl	$2, %edi	#,
	movl	$0, %eax	#,
	call	gen_rtvec	#
	movq	%rax, %rdx	# D.27226,
	movl	$0, %esi	#,
	movl	$39, %edi	#,
	call	gen_rtx_fmt_E	#
	.loc 1 900 0
	addq	$40, %rsp	#,
	popq	%rbx	#
	popq	%r12	#
	popq	%r13	#
	popq	%rbp	#
	.cfi_def_cfa 7, 8
	ret
	.cfi_endproc
.LFE59:
	.size	gen_andqi_ext_0, .-gen_andqi_ext_0
	.globl	gen_negsf2_memory
	.type	gen_negsf2_memory, @function
gen_negsf2_memory:
.LFB60:
	.loc 1 906 0
	.cfi_startproc
	pushq	%rbp	#
	.cfi_def_cfa_offset 16
	.cfi_offset 6, -16
	movq	%rsp, %rbp	#,
	.cfi_def_cfa_register 6
	pushq	%rbx	#
	subq	$24, %rsp	#,
	.cfi_offset 3, -24
	movq	%rdi, -24(%rbp)	# operand0, operand0
	movq	%rsi, -32(%rbp)	# operand1, operand1
	.loc 1 907 0
	movl	$17, %esi	#,
	movl	$52, %edi	#,
	call	gen_rtx_REG	#
	movq	%rax, %rdx	# D.27227,
	movl	$0, %esi	#,
	movl	$49, %edi	#,
	call	gen_rtx_fmt_e	#
	movq	%rax, %rbx	#, D.27227
	movq	-32(%rbp), %rax	# operand1, tmp66
	movq	%rax, %rdx	# tmp66,
	movl	$15, %esi	#,
	movl	$77, %edi	#,
	call	gen_rtx_fmt_e	#
	movq	%rax, %rdx	#, D.27227
	movq	-24(%rbp), %rax	# operand0, tmp67
	movq	%rdx, %rcx	# D.27227,
	movq	%rax, %rdx	# tmp67,
	movl	$0, %esi	#,
	movl	$47, %edi	#,
	call	gen_rtx_fmt_ee	#
	movq	%rbx, %rdx	# D.27227,
	movq	%rax, %rsi	# D.27227,
	movl	$2, %edi	#,
	movl	$0, %eax	#,
	call	gen_rtvec	#
	movq	%rax, %rdx	# D.27228,
	movl	$0, %esi	#,
	movl	$39, %edi	#,
	call	gen_rtx_fmt_E	#
	.loc 1 915 0
	addq	$24, %rsp	#,
	popq	%rbx	#
	popq	%rbp	#
	.cfi_def_cfa 7, 8
	ret
	.cfi_endproc
.LFE60:
	.size	gen_negsf2_memory, .-gen_negsf2_memory
	.globl	gen_negsf2_ifs
	.type	gen_negsf2_ifs, @function
gen_negsf2_ifs:
.LFB61:
	.loc 1 922 0
	.cfi_startproc
	pushq	%rbp	#
	.cfi_def_cfa_offset 16
	.cfi_offset 6, -16
	movq	%rsp, %rbp	#,
	.cfi_def_cfa_register 6
	pushq	%r12	#
	pushq	%rbx	#
	subq	$32, %rsp	#,
	.cfi_offset 12, -24
	.cfi_offset 3, -32
	movq	%rdi, -24(%rbp)	# operand0, operand0
	movq	%rsi, -32(%rbp)	# operand1, operand1
	movq	%rdx, -40(%rbp)	# operand2, operand2
	.loc 1 923 0
	movl	$17, %esi	#,
	movl	$52, %edi	#,
	call	gen_rtx_REG	#
	movq	%rax, %rdx	# D.27229,
	movl	$0, %esi	#,
	movl	$49, %edi	#,
	call	gen_rtx_fmt_e	#
	movq	%rax, %r12	#, D.27229
	movq	-40(%rbp), %rax	# operand2, tmp67
	movq	%rax, %rdx	# tmp67,
	movl	$0, %esi	#,
	movl	$48, %edi	#,
	call	gen_rtx_fmt_e	#
	movq	%rax, %rbx	#, D.27229
	movq	-32(%rbp), %rax	# operand1, tmp68
	movq	%rax, %rdx	# tmp68,
	movl	$15, %esi	#,
	movl	$77, %edi	#,
	call	gen_rtx_fmt_e	#
	movq	%rax, %rdx	#, D.27229
	movq	-24(%rbp), %rax	# operand0, tmp69
	movq	%rdx, %rcx	# D.27229,
	movq	%rax, %rdx	# tmp69,
	movl	$0, %esi	#,
	movl	$47, %edi	#,
	call	gen_rtx_fmt_ee	#
	movq	%r12, %rcx	# D.27229,
	movq	%rbx, %rdx	# D.27229,
	movq	%rax, %rsi	# D.27229,
	movl	$3, %edi	#,
	movl	$0, %eax	#,
	call	gen_rtvec	#
	movq	%rax, %rdx	# D.27230,
	movl	$0, %esi	#,
	movl	$39, %edi	#,
	call	gen_rtx_fmt_E	#
	.loc 1 933 0
	addq	$32, %rsp	#,
	popq	%rbx	#
	popq	%r12	#
	popq	%rbp	#
	.cfi_def_cfa 7, 8
	ret
	.cfi_endproc
.LFE61:
	.size	gen_negsf2_ifs, .-gen_negsf2_ifs
	.globl	gen_negdf2_memory
	.type	gen_negdf2_memory, @function
gen_negdf2_memory:
.LFB62:
	.loc 1 939 0
	.cfi_startproc
	pushq	%rbp	#
	.cfi_def_cfa_offset 16
	.cfi_offset 6, -16
	movq	%rsp, %rbp	#,
	.cfi_def_cfa_register 6
	pushq	%rbx	#
	subq	$24, %rsp	#,
	.cfi_offset 3, -24
	movq	%rdi, -24(%rbp)	# operand0, operand0
	movq	%rsi, -32(%rbp)	# operand1, operand1
	.loc 1 940 0
	movl	$17, %esi	#,
	movl	$52, %edi	#,
	call	gen_rtx_REG	#
	movq	%rax, %rdx	# D.27231,
	movl	$0, %esi	#,
	movl	$49, %edi	#,
	call	gen_rtx_fmt_e	#
	movq	%rax, %rbx	#, D.27231
	movq	-32(%rbp), %rax	# operand1, tmp66
	movq	%rax, %rdx	# tmp66,
	movl	$16, %esi	#,
	movl	$77, %edi	#,
	call	gen_rtx_fmt_e	#
	movq	%rax, %rdx	#, D.27231
	movq	-24(%rbp), %rax	# operand0, tmp67
	movq	%rdx, %rcx	# D.27231,
	movq	%rax, %rdx	# tmp67,
	movl	$0, %esi	#,
	movl	$47, %edi	#,
	call	gen_rtx_fmt_ee	#
	movq	%rbx, %rdx	# D.27231,
	movq	%rax, %rsi	# D.27231,
	movl	$2, %edi	#,
	movl	$0, %eax	#,
	call	gen_rtvec	#
	movq	%rax, %rdx	# D.27232,
	movl	$0, %esi	#,
	movl	$39, %edi	#,
	call	gen_rtx_fmt_E	#
	.loc 1 948 0
	addq	$24, %rsp	#,
	popq	%rbx	#
	popq	%rbp	#
	.cfi_def_cfa 7, 8
	ret
	.cfi_endproc
.LFE62:
	.size	gen_negdf2_memory, .-gen_negdf2_memory
	.globl	gen_negdf2_ifs
	.type	gen_negdf2_ifs, @function
gen_negdf2_ifs:
.LFB63:
	.loc 1 955 0
	.cfi_startproc
	pushq	%rbp	#
	.cfi_def_cfa_offset 16
	.cfi_offset 6, -16
	movq	%rsp, %rbp	#,
	.cfi_def_cfa_register 6
	pushq	%r12	#
	pushq	%rbx	#
	subq	$32, %rsp	#,
	.cfi_offset 12, -24
	.cfi_offset 3, -32
	movq	%rdi, -24(%rbp)	# operand0, operand0
	movq	%rsi, -32(%rbp)	# operand1, operand1
	movq	%rdx, -40(%rbp)	# operand2, operand2
	.loc 1 956 0
	movl	$17, %esi	#,
	movl	$52, %edi	#,
	call	gen_rtx_REG	#
	movq	%rax, %rdx	# D.27233,
	movl	$0, %esi	#,
	movl	$49, %edi	#,
	call	gen_rtx_fmt_e	#
	movq	%rax, %r12	#, D.27233
	movq	-40(%rbp), %rax	# operand2, tmp67
	movq	%rax, %rdx	# tmp67,
	movl	$0, %esi	#,
	movl	$48, %edi	#,
	call	gen_rtx_fmt_e	#
	movq	%rax, %rbx	#, D.27233
	movq	-32(%rbp), %rax	# operand1, tmp68
	movq	%rax, %rdx	# tmp68,
	movl	$16, %esi	#,
	movl	$77, %edi	#,
	call	gen_rtx_fmt_e	#
	movq	%rax, %rdx	#, D.27233
	movq	-24(%rbp), %rax	# operand0, tmp69
	movq	%rdx, %rcx	# D.27233,
	movq	%rax, %rdx	# tmp69,
	movl	$0, %esi	#,
	movl	$47, %edi	#,
	call	gen_rtx_fmt_ee	#
	movq	%r12, %rcx	# D.27233,
	movq	%rbx, %rdx	# D.27233,
	movq	%rax, %rsi	# D.27233,
	movl	$3, %edi	#,
	movl	$0, %eax	#,
	call	gen_rtvec	#
	movq	%rax, %rdx	# D.27234,
	movl	$0, %esi	#,
	movl	$39, %edi	#,
	call	gen_rtx_fmt_E	#
	.loc 1 966 0
	addq	$32, %rsp	#,
	popq	%rbx	#
	popq	%r12	#
	popq	%rbp	#
	.cfi_def_cfa 7, 8
	ret
	.cfi_endproc
.LFE63:
	.size	gen_negdf2_ifs, .-gen_negdf2_ifs
	.globl	gen_abssf2_memory
	.type	gen_abssf2_memory, @function
gen_abssf2_memory:
.LFB64:
	.loc 1 972 0
	.cfi_startproc
	pushq	%rbp	#
	.cfi_def_cfa_offset 16
	.cfi_offset 6, -16
	movq	%rsp, %rbp	#,
	.cfi_def_cfa_register 6
	pushq	%rbx	#
	subq	$24, %rsp	#,
	.cfi_offset 3, -24
	movq	%rdi, -24(%rbp)	# operand0, operand0
	movq	%rsi, -32(%rbp)	# operand1, operand1
	.loc 1 973 0
	movl	$17, %esi	#,
	movl	$52, %edi	#,
	call	gen_rtx_REG	#
	movq	%rax, %rdx	# D.27235,
	movl	$0, %esi	#,
	movl	$49, %edi	#,
	call	gen_rtx_fmt_e	#
	movq	%rax, %rbx	#, D.27235
	movq	-32(%rbp), %rax	# operand1, tmp66
	movq	%rax, %rdx	# tmp66,
	movl	$15, %esi	#,
	movl	$129, %edi	#,
	call	gen_rtx_fmt_e	#
	movq	%rax, %rdx	#, D.27235
	movq	-24(%rbp), %rax	# operand0, tmp67
	movq	%rdx, %rcx	# D.27235,
	movq	%rax, %rdx	# tmp67,
	movl	$0, %esi	#,
	movl	$47, %edi	#,
	call	gen_rtx_fmt_ee	#
	movq	%rbx, %rdx	# D.27235,
	movq	%rax, %rsi	# D.27235,
	movl	$2, %edi	#,
	movl	$0, %eax	#,
	call	gen_rtvec	#
	movq	%rax, %rdx	# D.27236,
	movl	$0, %esi	#,
	movl	$39, %edi	#,
	call	gen_rtx_fmt_E	#
	.loc 1 981 0
	addq	$24, %rsp	#,
	popq	%rbx	#
	popq	%rbp	#
	.cfi_def_cfa 7, 8
	ret
	.cfi_endproc
.LFE64:
	.size	gen_abssf2_memory, .-gen_abssf2_memory
	.globl	gen_abssf2_ifs
	.type	gen_abssf2_ifs, @function
gen_abssf2_ifs:
.LFB65:
	.loc 1 988 0
	.cfi_startproc
	pushq	%rbp	#
	.cfi_def_cfa_offset 16
	.cfi_offset 6, -16
	movq	%rsp, %rbp	#,
	.cfi_def_cfa_register 6
	pushq	%r12	#
	pushq	%rbx	#
	subq	$32, %rsp	#,
	.cfi_offset 12, -24
	.cfi_offset 3, -32
	movq	%rdi, -24(%rbp)	# operand0, operand0
	movq	%rsi, -32(%rbp)	# operand1, operand1
	movq	%rdx, -40(%rbp)	# operand2, operand2
	.loc 1 989 0
	movl	$17, %esi	#,
	movl	$52, %edi	#,
	call	gen_rtx_REG	#
	movq	%rax, %rdx	# D.27237,
	movl	$0, %esi	#,
	movl	$49, %edi	#,
	call	gen_rtx_fmt_e	#
	movq	%rax, %r12	#, D.27237
	movq	-40(%rbp), %rax	# operand2, tmp67
	movq	%rax, %rdx	# tmp67,
	movl	$0, %esi	#,
	movl	$48, %edi	#,
	call	gen_rtx_fmt_e	#
	movq	%rax, %rbx	#, D.27237
	movq	-32(%rbp), %rax	# operand1, tmp68
	movq	%rax, %rdx	# tmp68,
	movl	$15, %esi	#,
	movl	$129, %edi	#,
	call	gen_rtx_fmt_e	#
	movq	%rax, %rdx	#, D.27237
	movq	-24(%rbp), %rax	# operand0, tmp69
	movq	%rdx, %rcx	# D.27237,
	movq	%rax, %rdx	# tmp69,
	movl	$0, %esi	#,
	movl	$47, %edi	#,
	call	gen_rtx_fmt_ee	#
	movq	%r12, %rcx	# D.27237,
	movq	%rbx, %rdx	# D.27237,
	movq	%rax, %rsi	# D.27237,
	movl	$3, %edi	#,
	movl	$0, %eax	#,
	call	gen_rtvec	#
	movq	%rax, %rdx	# D.27238,
	movl	$0, %esi	#,
	movl	$39, %edi	#,
	call	gen_rtx_fmt_E	#
	.loc 1 999 0
	addq	$32, %rsp	#,
	popq	%rbx	#
	popq	%r12	#
	popq	%rbp	#
	.cfi_def_cfa 7, 8
	ret
	.cfi_endproc
.LFE65:
	.size	gen_abssf2_ifs, .-gen_abssf2_ifs
	.globl	gen_absdf2_memory
	.type	gen_absdf2_memory, @function
gen_absdf2_memory:
.LFB66:
	.loc 1 1005 0
	.cfi_startproc
	pushq	%rbp	#
	.cfi_def_cfa_offset 16
	.cfi_offset 6, -16
	movq	%rsp, %rbp	#,
	.cfi_def_cfa_register 6
	pushq	%rbx	#
	subq	$24, %rsp	#,
	.cfi_offset 3, -24
	movq	%rdi, -24(%rbp)	# operand0, operand0
	movq	%rsi, -32(%rbp)	# operand1, operand1
	.loc 1 1006 0
	movl	$17, %esi	#,
	movl	$52, %edi	#,
	call	gen_rtx_REG	#
	movq	%rax, %rdx	# D.27239,
	movl	$0, %esi	#,
	movl	$49, %edi	#,
	call	gen_rtx_fmt_e	#
	movq	%rax, %rbx	#, D.27239
	movq	-32(%rbp), %rax	# operand1, tmp66
	movq	%rax, %rdx	# tmp66,
	movl	$16, %esi	#,
	movl	$129, %edi	#,
	call	gen_rtx_fmt_e	#
	movq	%rax, %rdx	#, D.27239
	movq	-24(%rbp), %rax	# operand0, tmp67
	movq	%rdx, %rcx	# D.27239,
	movq	%rax, %rdx	# tmp67,
	movl	$0, %esi	#,
	movl	$47, %edi	#,
	call	gen_rtx_fmt_ee	#
	movq	%rbx, %rdx	# D.27239,
	movq	%rax, %rsi	# D.27239,
	movl	$2, %edi	#,
	movl	$0, %eax	#,
	call	gen_rtvec	#
	movq	%rax, %rdx	# D.27240,
	movl	$0, %esi	#,
	movl	$39, %edi	#,
	call	gen_rtx_fmt_E	#
	.loc 1 1014 0
	addq	$24, %rsp	#,
	popq	%rbx	#
	popq	%rbp	#
	.cfi_def_cfa 7, 8
	ret
	.cfi_endproc
.LFE66:
	.size	gen_absdf2_memory, .-gen_absdf2_memory
	.globl	gen_absdf2_ifs
	.type	gen_absdf2_ifs, @function
gen_absdf2_ifs:
.LFB67:
	.loc 1 1021 0
	.cfi_startproc
	pushq	%rbp	#
	.cfi_def_cfa_offset 16
	.cfi_offset 6, -16
	movq	%rsp, %rbp	#,
	.cfi_def_cfa_register 6
	pushq	%r12	#
	pushq	%rbx	#
	subq	$32, %rsp	#,
	.cfi_offset 12, -24
	.cfi_offset 3, -32
	movq	%rdi, -24(%rbp)	# operand0, operand0
	movq	%rsi, -32(%rbp)	# operand1, operand1
	movq	%rdx, -40(%rbp)	# operand2, operand2
	.loc 1 1022 0
	movl	$17, %esi	#,
	movl	$52, %edi	#,
	call	gen_rtx_REG	#
	movq	%rax, %rdx	# D.27241,
	movl	$0, %esi	#,
	movl	$49, %edi	#,
	call	gen_rtx_fmt_e	#
	movq	%rax, %r12	#, D.27241
	movq	-40(%rbp), %rax	# operand2, tmp67
	movq	%rax, %rdx	# tmp67,
	movl	$0, %esi	#,
	movl	$48, %edi	#,
	call	gen_rtx_fmt_e	#
	movq	%rax, %rbx	#, D.27241
	movq	-32(%rbp), %rax	# operand1, tmp68
	movq	%rax, %rdx	# tmp68,
	movl	$16, %esi	#,
	movl	$129, %edi	#,
	call	gen_rtx_fmt_e	#
	movq	%rax, %rdx	#, D.27241
	movq	-24(%rbp), %rax	# operand0, tmp69
	movq	%rdx, %rcx	# D.27241,
	movq	%rax, %rdx	# tmp69,
	movl	$0, %esi	#,
	movl	$47, %edi	#,
	call	gen_rtx_fmt_ee	#
	movq	%r12, %rcx	# D.27241,
	movq	%rbx, %rdx	# D.27241,
	movq	%rax, %rsi	# D.27241,
	movl	$3, %edi	#,
	movl	$0, %eax	#,
	call	gen_rtvec	#
	movq	%rax, %rdx	# D.27242,
	movl	$0, %esi	#,
	movl	$39, %edi	#,
	call	gen_rtx_fmt_E	#
	.loc 1 1032 0
	addq	$32, %rsp	#,
	popq	%rbx	#
	popq	%r12	#
	popq	%rbp	#
	.cfi_def_cfa 7, 8
	ret
	.cfi_endproc
.LFE67:
	.size	gen_absdf2_ifs, .-gen_absdf2_ifs
	.globl	gen_ashldi3_1
	.type	gen_ashldi3_1, @function
gen_ashldi3_1:
.LFB68:
	.loc 1 1039 0
	.cfi_startproc
	pushq	%rbp	#
	.cfi_def_cfa_offset 16
	.cfi_offset 6, -16
	movq	%rsp, %rbp	#,
	.cfi_def_cfa_register 6
	pushq	%r12	#
	pushq	%rbx	#
	subq	$32, %rsp	#,
	.cfi_offset 12, -24
	.cfi_offset 3, -32
	movq	%rdi, -24(%rbp)	# operand0, operand0
	movq	%rsi, -32(%rbp)	# operand1, operand1
	movq	%rdx, -40(%rbp)	# operand2, operand2
	.loc 1 1040 0
	movl	$17, %esi	#,
	movl	$52, %edi	#,
	call	gen_rtx_REG	#
	movq	%rax, %rdx	# D.27243,
	movl	$0, %esi	#,
	movl	$49, %edi	#,
	call	gen_rtx_fmt_e	#
	movq	%rax, %r12	#, D.27243
	movl	$4, %esi	#,
	movl	$62, %edi	#,
	call	gen_rtx_fmt_0	#
	movq	%rax, %rdx	# D.27243,
	movl	$0, %esi	#,
	movl	$49, %edi	#,
	call	gen_rtx_fmt_e	#
	movq	%rax, %rbx	#, D.27243
	movq	-40(%rbp), %rdx	# operand2, tmp68
	movq	-32(%rbp), %rax	# operand1, tmp69
	movq	%rdx, %rcx	# tmp68,
	movq	%rax, %rdx	# tmp69,
	movl	$5, %esi	#,
	movl	$87, %edi	#,
	call	gen_rtx_fmt_ee	#
	movq	%rax, %rdx	#, D.27243
	movq	-24(%rbp), %rax	# operand0, tmp70
	movq	%rdx, %rcx	# D.27243,
	movq	%rax, %rdx	# tmp70,
	movl	$0, %esi	#,
	movl	$47, %edi	#,
	call	gen_rtx_fmt_ee	#
	movq	%r12, %rcx	# D.27243,
	movq	%rbx, %rdx	# D.27243,
	movq	%rax, %rsi	# D.27243,
	movl	$3, %edi	#,
	movl	$0, %eax	#,
	call	gen_rtvec	#
	movq	%rax, %rdx	# D.27244,
	movl	$0, %esi	#,
	movl	$39, %edi	#,
	call	gen_rtx_fmt_E	#
	.loc 1 1051 0
	addq	$32, %rsp	#,
	popq	%rbx	#
	popq	%r12	#
	popq	%rbp	#
	.cfi_def_cfa 7, 8
	ret
	.cfi_endproc
.LFE68:
	.size	gen_ashldi3_1, .-gen_ashldi3_1
	.globl	gen_x86_shld_1
	.type	gen_x86_shld_1, @function
gen_x86_shld_1:
.LFB69:
	.loc 1 1058 0
	.cfi_startproc
	pushq	%rbp	#
	.cfi_def_cfa_offset 16
	.cfi_offset 6, -16
	movq	%rsp, %rbp	#,
	.cfi_def_cfa_register 6
	pushq	%r12	#
	pushq	%rbx	#
	subq	$32, %rsp	#,
	.cfi_offset 12, -24
	.cfi_offset 3, -32
	movq	%rdi, -24(%rbp)	# operand0, operand0
	movq	%rsi, -32(%rbp)	# operand1, operand1
	movq	%rdx, -40(%rbp)	# operand2, operand2
	.loc 1 1059 0
	movl	$17, %esi	#,
	movl	$52, %edi	#,
	call	gen_rtx_REG	#
	movq	%rax, %rdx	# D.27245,
	movl	$0, %esi	#,
	movl	$49, %edi	#,
	call	gen_rtx_fmt_e	#
	movq	%rax, %rbx	#, D.27245
	movl	$32, %esi	#,
	movl	$0, %edi	#,
	call	gen_rtx_CONST_INT	#
	movq	-40(%rbp), %rdx	# operand2, tmp70
	movq	%rdx, %rcx	# tmp70,
	movq	%rax, %rdx	# D.27245,
	movl	$2, %esi	#,
	movl	$76, %edi	#,
	call	gen_rtx_fmt_ee	#
	movq	%rax, %rdx	#, D.27245
	movq	-32(%rbp), %rax	# operand1, tmp71
	movq	%rdx, %rcx	# D.27245,
	movq	%rax, %rdx	# tmp71,
	movl	$4, %esi	#,
	movl	$90, %edi	#,
	call	gen_rtx_fmt_ee	#
	movq	%rax, %r12	#, D.27245
	movq	-40(%rbp), %rdx	# operand2, tmp72
	movq	-24(%rbp), %rax	# operand0, tmp73
	movq	%rdx, %rcx	# tmp72,
	movq	%rax, %rdx	# tmp73,
	movl	$4, %esi	#,
	movl	$87, %edi	#,
	call	gen_rtx_fmt_ee	#
	movq	%r12, %rcx	# D.27245,
	movq	%rax, %rdx	# D.27245,
	movl	$4, %esi	#,
	movl	$84, %edi	#,
	call	gen_rtx_fmt_ee	#
	movq	%rax, %rdx	#, D.27245
	movq	-24(%rbp), %rax	# operand0, tmp74
	movq	%rdx, %rcx	# D.27245,
	movq	%rax, %rdx	# tmp74,
	movl	$0, %esi	#,
	movl	$47, %edi	#,
	call	gen_rtx_fmt_ee	#
	movq	%rbx, %rdx	# D.27245,
	movq	%rax, %rsi	# D.27245,
	movl	$2, %edi	#,
	movl	$0, %eax	#,
	call	gen_rtvec	#
	movq	%rax, %rdx	# D.27246,
	movl	$0, %esi	#,
	movl	$39, %edi	#,
	call	gen_rtx_fmt_E	#
	.loc 1 1074 0
	addq	$32, %rsp	#,
	popq	%rbx	#
	popq	%r12	#
	popq	%rbp	#
	.cfi_def_cfa 7, 8
	ret
	.cfi_endproc
.LFE69:
	.size	gen_x86_shld_1, .-gen_x86_shld_1
	.globl	gen_ashrdi3_63_rex64
	.type	gen_ashrdi3_63_rex64, @function
gen_ashrdi3_63_rex64:
.LFB70:
	.loc 1 1081 0
	.cfi_startproc
	pushq	%rbp	#
	.cfi_def_cfa_offset 16
	.cfi_offset 6, -16
	movq	%rsp, %rbp	#,
	.cfi_def_cfa_register 6
	pushq	%rbx	#
	subq	$40, %rsp	#,
	.cfi_offset 3, -24
	movq	%rdi, -24(%rbp)	# operand0, operand0
	movq	%rsi, -32(%rbp)	# operand1, operand1
	movq	%rdx, -40(%rbp)	# operand2, operand2
	.loc 1 1082 0
	movl	$17, %esi	#,
	movl	$52, %edi	#,
	call	gen_rtx_REG	#
	movq	%rax, %rdx	# D.27247,
	movl	$0, %esi	#,
	movl	$49, %edi	#,
	call	gen_rtx_fmt_e	#
	movq	%rax, %rbx	#, D.27247
	movq	-40(%rbp), %rdx	# operand2, tmp66
	movq	-32(%rbp), %rax	# operand1, tmp67
	movq	%rdx, %rcx	# tmp66,
	movq	%rax, %rdx	# tmp67,
	movl	$5, %esi	#,
	movl	$89, %edi	#,
	call	gen_rtx_fmt_ee	#
	movq	%rax, %rdx	#, D.27247
	movq	-24(%rbp), %rax	# operand0, tmp68
	movq	%rdx, %rcx	# D.27247,
	movq	%rax, %rdx	# tmp68,
	movl	$0, %esi	#,
	movl	$47, %edi	#,
	call	gen_rtx_fmt_ee	#
	movq	%rbx, %rdx	# D.27247,
	movq	%rax, %rsi	# D.27247,
	movl	$2, %edi	#,
	movl	$0, %eax	#,
	call	gen_rtvec	#
	movq	%rax, %rdx	# D.27248,
	movl	$0, %esi	#,
	movl	$39, %edi	#,
	call	gen_rtx_fmt_E	#
	.loc 1 1091 0
	addq	$40, %rsp	#,
	popq	%rbx	#
	popq	%rbp	#
	.cfi_def_cfa 7, 8
	ret
	.cfi_endproc
.LFE70:
	.size	gen_ashrdi3_63_rex64, .-gen_ashrdi3_63_rex64
	.globl	gen_ashrdi3_1
	.type	gen_ashrdi3_1, @function
gen_ashrdi3_1:
.LFB71:
	.loc 1 1098 0
	.cfi_startproc
	pushq	%rbp	#
	.cfi_def_cfa_offset 16
	.cfi_offset 6, -16
	movq	%rsp, %rbp	#,
	.cfi_def_cfa_register 6
	pushq	%r12	#
	pushq	%rbx	#
	subq	$32, %rsp	#,
	.cfi_offset 12, -24
	.cfi_offset 3, -32
	movq	%rdi, -24(%rbp)	# operand0, operand0
	movq	%rsi, -32(%rbp)	# operand1, operand1
	movq	%rdx, -40(%rbp)	# operand2, operand2
	.loc 1 1099 0
	movl	$17, %esi	#,
	movl	$52, %edi	#,
	call	gen_rtx_REG	#
	movq	%rax, %rdx	# D.27249,
	movl	$0, %esi	#,
	movl	$49, %edi	#,
	call	gen_rtx_fmt_e	#
	movq	%rax, %r12	#, D.27249
	movl	$4, %esi	#,
	movl	$62, %edi	#,
	call	gen_rtx_fmt_0	#
	movq	%rax, %rdx	# D.27249,
	movl	$0, %esi	#,
	movl	$49, %edi	#,
	call	gen_rtx_fmt_e	#
	movq	%rax, %rbx	#, D.27249
	movq	-40(%rbp), %rdx	# operand2, tmp68
	movq	-32(%rbp), %rax	# operand1, tmp69
	movq	%rdx, %rcx	# tmp68,
	movq	%rax, %rdx	# tmp69,
	movl	$5, %esi	#,
	movl	$89, %edi	#,
	call	gen_rtx_fmt_ee	#
	movq	%rax, %rdx	#, D.27249
	movq	-24(%rbp), %rax	# operand0, tmp70
	movq	%rdx, %rcx	# D.27249,
	movq	%rax, %rdx	# tmp70,
	movl	$0, %esi	#,
	movl	$47, %edi	#,
	call	gen_rtx_fmt_ee	#
	movq	%r12, %rcx	# D.27249,
	movq	%rbx, %rdx	# D.27249,
	movq	%rax, %rsi	# D.27249,
	movl	$3, %edi	#,
	movl	$0, %eax	#,
	call	gen_rtvec	#
	movq	%rax, %rdx	# D.27250,
	movl	$0, %esi	#,
	movl	$39, %edi	#,
	call	gen_rtx_fmt_E	#
	.loc 1 1110 0
	addq	$32, %rsp	#,
	popq	%rbx	#
	popq	%r12	#
	popq	%rbp	#
	.cfi_def_cfa 7, 8
	ret
	.cfi_endproc
.LFE71:
	.size	gen_ashrdi3_1, .-gen_ashrdi3_1
	.globl	gen_x86_shrd_1
	.type	gen_x86_shrd_1, @function
gen_x86_shrd_1:
.LFB72:
	.loc 1 1117 0
	.cfi_startproc
	pushq	%rbp	#
	.cfi_def_cfa_offset 16
	.cfi_offset 6, -16
	movq	%rsp, %rbp	#,
	.cfi_def_cfa_register 6
	pushq	%r12	#
	pushq	%rbx	#
	subq	$32, %rsp	#,
	.cfi_offset 12, -24
	.cfi_offset 3, -32
	movq	%rdi, -24(%rbp)	# operand0, operand0
	movq	%rsi, -32(%rbp)	# operand1, operand1
	movq	%rdx, -40(%rbp)	# operand2, operand2
	.loc 1 1118 0
	movl	$17, %esi	#,
	movl	$52, %edi	#,
	call	gen_rtx_REG	#
	movq	%rax, %rdx	# D.27251,
	movl	$0, %esi	#,
	movl	$49, %edi	#,
	call	gen_rtx_fmt_e	#
	movq	%rax, %rbx	#, D.27251
	movl	$32, %esi	#,
	movl	$0, %edi	#,
	call	gen_rtx_CONST_INT	#
	movq	-40(%rbp), %rdx	# operand2, tmp70
	movq	%rdx, %rcx	# tmp70,
	movq	%rax, %rdx	# D.27251,
	movl	$2, %esi	#,
	movl	$76, %edi	#,
	call	gen_rtx_fmt_ee	#
	movq	%rax, %rdx	#, D.27251
	movq	-32(%rbp), %rax	# operand1, tmp71
	movq	%rdx, %rcx	# D.27251,
	movq	%rax, %rdx	# tmp71,
	movl	$4, %esi	#,
	movl	$87, %edi	#,
	call	gen_rtx_fmt_ee	#
	movq	%rax, %r12	#, D.27251
	movq	-40(%rbp), %rdx	# operand2, tmp72
	movq	-24(%rbp), %rax	# operand0, tmp73
	movq	%rdx, %rcx	# tmp72,
	movq	%rax, %rdx	# tmp73,
	movl	$4, %esi	#,
	movl	$89, %edi	#,
	call	gen_rtx_fmt_ee	#
	movq	%r12, %rcx	# D.27251,
	movq	%rax, %rdx	# D.27251,
	movl	$4, %esi	#,
	movl	$84, %edi	#,
	call	gen_rtx_fmt_ee	#
	movq	%rax, %rdx	#, D.27251
	movq	-24(%rbp), %rax	# operand0, tmp74
	movq	%rdx, %rcx	# D.27251,
	movq	%rax, %rdx	# tmp74,
	movl	$0, %esi	#,
	movl	$47, %edi	#,
	call	gen_rtx_fmt_ee	#
	movq	%rbx, %rdx	# D.27251,
	movq	%rax, %rsi	# D.27251,
	movl	$2, %edi	#,
	movl	$0, %eax	#,
	call	gen_rtvec	#
	movq	%rax, %rdx	# D.27252,
	movl	$0, %esi	#,
	movl	$39, %edi	#,
	call	gen_rtx_fmt_E	#
	.loc 1 1133 0
	addq	$32, %rsp	#,
	popq	%rbx	#
	popq	%r12	#
	popq	%rbp	#
	.cfi_def_cfa 7, 8
	ret
	.cfi_endproc
.LFE72:
	.size	gen_x86_shrd_1, .-gen_x86_shrd_1
	.globl	gen_ashrsi3_31
	.type	gen_ashrsi3_31, @function
gen_ashrsi3_31:
.LFB73:
	.loc 1 1140 0
	.cfi_startproc
	pushq	%rbp	#
	.cfi_def_cfa_offset 16
	.cfi_offset 6, -16
	movq	%rsp, %rbp	#,
	.cfi_def_cfa_register 6
	pushq	%rbx	#
	subq	$40, %rsp	#,
	.cfi_offset 3, -24
	movq	%rdi, -24(%rbp)	# operand0, operand0
	movq	%rsi, -32(%rbp)	# operand1, operand1
	movq	%rdx, -40(%rbp)	# operand2, operand2
	.loc 1 1141 0
	movl	$17, %esi	#,
	movl	$52, %edi	#,
	call	gen_rtx_REG	#
	movq	%rax, %rdx	# D.27253,
	movl	$0, %esi	#,
	movl	$49, %edi	#,
	call	gen_rtx_fmt_e	#
	movq	%rax, %rbx	#, D.27253
	movq	-40(%rbp), %rdx	# operand2, tmp66
	movq	-32(%rbp), %rax	# operand1, tmp67
	movq	%rdx, %rcx	# tmp66,
	movq	%rax, %rdx	# tmp67,
	movl	$4, %esi	#,
	movl	$89, %edi	#,
	call	gen_rtx_fmt_ee	#
	movq	%rax, %rdx	#, D.27253
	movq	-24(%rbp), %rax	# operand0, tmp68
	movq	%rdx, %rcx	# D.27253,
	movq	%rax, %rdx	# tmp68,
	movl	$0, %esi	#,
	movl	$47, %edi	#,
	call	gen_rtx_fmt_ee	#
	movq	%rbx, %rdx	# D.27253,
	movq	%rax, %rsi	# D.27253,
	movl	$2, %edi	#,
	movl	$0, %eax	#,
	call	gen_rtvec	#
	movq	%rax, %rdx	# D.27254,
	movl	$0, %esi	#,
	movl	$39, %edi	#,
	call	gen_rtx_fmt_E	#
	.loc 1 1150 0
	addq	$40, %rsp	#,
	popq	%rbx	#
	popq	%rbp	#
	.cfi_def_cfa 7, 8
	ret
	.cfi_endproc
.LFE73:
	.size	gen_ashrsi3_31, .-gen_ashrsi3_31
	.globl	gen_lshrdi3_1
	.type	gen_lshrdi3_1, @function
gen_lshrdi3_1:
.LFB74:
	.loc 1 1157 0
	.cfi_startproc
	pushq	%rbp	#
	.cfi_def_cfa_offset 16
	.cfi_offset 6, -16
	movq	%rsp, %rbp	#,
	.cfi_def_cfa_register 6
	pushq	%r12	#
	pushq	%rbx	#
	subq	$32, %rsp	#,
	.cfi_offset 12, -24
	.cfi_offset 3, -32
	movq	%rdi, -24(%rbp)	# operand0, operand0
	movq	%rsi, -32(%rbp)	# operand1, operand1
	movq	%rdx, -40(%rbp)	# operand2, operand2
	.loc 1 1158 0
	movl	$17, %esi	#,
	movl	$52, %edi	#,
	call	gen_rtx_REG	#
	movq	%rax, %rdx	# D.27255,
	movl	$0, %esi	#,
	movl	$49, %edi	#,
	call	gen_rtx_fmt_e	#
	movq	%rax, %r12	#, D.27255
	movl	$4, %esi	#,
	movl	$62, %edi	#,
	call	gen_rtx_fmt_0	#
	movq	%rax, %rdx	# D.27255,
	movl	$0, %esi	#,
	movl	$49, %edi	#,
	call	gen_rtx_fmt_e	#
	movq	%rax, %rbx	#, D.27255
	movq	-40(%rbp), %rdx	# operand2, tmp68
	movq	-32(%rbp), %rax	# operand1, tmp69
	movq	%rdx, %rcx	# tmp68,
	movq	%rax, %rdx	# tmp69,
	movl	$5, %esi	#,
	movl	$90, %edi	#,
	call	gen_rtx_fmt_ee	#
	movq	%rax, %rdx	#, D.27255
	movq	-24(%rbp), %rax	# operand0, tmp70
	movq	%rdx, %rcx	# D.27255,
	movq	%rax, %rdx	# tmp70,
	movl	$0, %esi	#,
	movl	$47, %edi	#,
	call	gen_rtx_fmt_ee	#
	movq	%r12, %rcx	# D.27255,
	movq	%rbx, %rdx	# D.27255,
	movq	%rax, %rsi	# D.27255,
	movl	$3, %edi	#,
	movl	$0, %eax	#,
	call	gen_rtvec	#
	movq	%rax, %rdx	# D.27256,
	movl	$0, %esi	#,
	movl	$39, %edi	#,
	call	gen_rtx_fmt_E	#
	.loc 1 1169 0
	addq	$32, %rsp	#,
	popq	%rbx	#
	popq	%r12	#
	popq	%rbp	#
	.cfi_def_cfa 7, 8
	ret
	.cfi_endproc
.LFE74:
	.size	gen_lshrdi3_1, .-gen_lshrdi3_1
	.globl	gen_setcc_2
	.type	gen_setcc_2, @function
gen_setcc_2:
.LFB75:
	.loc 1 1175 0
	.cfi_startproc
	pushq	%rbp	#
	.cfi_def_cfa_offset 16
	.cfi_offset 6, -16
	movq	%rsp, %rbp	#,
	.cfi_def_cfa_register 6
	pushq	%rbx	#
	subq	$24, %rsp	#,
	.cfi_offset 3, -24
	movq	%rdi, -24(%rbp)	# operand0, operand0
	movq	%rsi, -32(%rbp)	# operand1, operand1
	.loc 1 1176 0
	movq	const_int_rtx+512(%rip), %rbx	# const_int_rtx, D.27257
	movl	$17, %esi	#,
	movl	$0, %edi	#,
	call	gen_rtx_REG	#
	movq	%rax, %rdx	#, D.27257
	movq	-32(%rbp), %rax	# operand1, tmp67
	movzwl	(%rax), %eax	# operand1_3(D)->code, D.27258
	movzwl	%ax, %eax	# D.27258, D.27259
	movq	%rbx, %rcx	# D.27257,
	movl	$2, %esi	#,
	movl	%eax, %edi	# D.27259,
	movl	$0, %eax	#,
	call	gen_rtx	#
	movq	%rax, %rbx	#, D.27257
	movq	-24(%rbp), %rax	# operand0, tmp68
	movq	%rax, %rdx	# tmp68,
	movl	$0, %esi	#,
	movl	$64, %edi	#,
	call	gen_rtx_fmt_e	#
	movq	%rbx, %rcx	# D.27257,
	movq	%rax, %rdx	# D.27257,
	movl	$0, %esi	#,
	movl	$47, %edi	#,
	call	gen_rtx_fmt_ee	#
	.loc 1 1183 0
	addq	$24, %rsp	#,
	popq	%rbx	#
	popq	%rbp	#
	.cfi_def_cfa 7, 8
	ret
	.cfi_endproc
.LFE75:
	.size	gen_setcc_2, .-gen_setcc_2
	.globl	gen_jump
	.type	gen_jump, @function
gen_jump:
.LFB76:
	.loc 1 1188 0
	.cfi_startproc
	pushq	%rbp	#
	.cfi_def_cfa_offset 16
	.cfi_offset 6, -16
	movq	%rsp, %rbp	#,
	.cfi_def_cfa_register 6
	subq	$16, %rsp	#,
	movq	%rdi, -8(%rbp)	# operand0, operand0
	.loc 1 1189 0
	movq	-8(%rbp), %rax	# operand0, tmp63
	movq	%rax, %rdx	# tmp63,
	movl	$0, %esi	#,
	movl	$67, %edi	#,
	call	gen_rtx_fmt_u00	#
	movq	%rax, %rdx	#, D.27260
	movq	global_rtl(%rip), %rax	# global_rtl, D.27260
	movq	%rdx, %rcx	# D.27260,
	movq	%rax, %rdx	# D.27260,
	movl	$0, %esi	#,
	movl	$47, %edi	#,
	call	gen_rtx_fmt_ee	#
	.loc 1 1193 0
	leave
	.cfi_def_cfa 7, 8
	ret
	.cfi_endproc
.LFE76:
	.size	gen_jump, .-gen_jump
	.globl	gen_doloop_end_internal
	.type	gen_doloop_end_internal, @function
gen_doloop_end_internal:
.LFB77:
	.loc 1 1200 0
	.cfi_startproc
	pushq	%rbp	#
	.cfi_def_cfa_offset 16
	.cfi_offset 6, -16
	movq	%rsp, %rbp	#,
	.cfi_def_cfa_register 6
	pushq	%r15	#
	pushq	%r14	#
	pushq	%r13	#
	pushq	%r12	#
	pushq	%rbx	#
	subq	$40, %rsp	#,
	.cfi_offset 15, -24
	.cfi_offset 14, -32
	.cfi_offset 13, -40
	.cfi_offset 12, -48
	.cfi_offset 3, -56
	movq	%rdi, -56(%rbp)	# operand0, operand0
	movq	%rsi, -64(%rbp)	# operand1, operand1
	movq	%rdx, -72(%rbp)	# operand2, operand2
	.loc 1 1201 0
	movl	$17, %esi	#,
	movl	$52, %edi	#,
	call	gen_rtx_REG	#
	movq	%rax, %rdx	# D.27261,
	movl	$0, %esi	#,
	movl	$49, %edi	#,
	call	gen_rtx_fmt_e	#
	movq	%rax, %r13	#, D.27261
	movl	$4, %esi	#,
	movl	$62, %edi	#,
	call	gen_rtx_fmt_0	#
	movq	%rax, %rdx	# D.27261,
	movl	$0, %esi	#,
	movl	$49, %edi	#,
	call	gen_rtx_fmt_e	#
	movq	%rax, %r12	#, D.27261
	movq	const_int_rtx+504(%rip), %rdx	# const_int_rtx, D.27261
	movq	-64(%rbp), %rax	# operand1, tmp76
	movq	%rdx, %rcx	# D.27261,
	movq	%rax, %rdx	# tmp76,
	movl	$4, %esi	#,
	movl	$75, %edi	#,
	call	gen_rtx_fmt_ee	#
	movq	%rax, %rdx	#, D.27261
	movq	-72(%rbp), %rax	# operand2, tmp77
	movq	%rdx, %rcx	# D.27261,
	movq	%rax, %rdx	# tmp77,
	movl	$0, %esi	#,
	movl	$47, %edi	#,
	call	gen_rtx_fmt_ee	#
	movq	%rax, %rbx	#, D.27261
	movq	global_rtl(%rip), %r15	# global_rtl, D.27261
	movq	-56(%rbp), %rax	# operand0, tmp78
	movq	%rax, %rdx	# tmp78,
	movl	$0, %esi	#,
	movl	$67, %edi	#,
	call	gen_rtx_fmt_u00	#
	movq	%rax, %r14	#, D.27261
	movq	const_int_rtx+520(%rip), %rdx	# const_int_rtx, D.27261
	movq	-64(%rbp), %rax	# operand1, tmp79
	movq	%rdx, %rcx	# D.27261,
	movq	%rax, %rdx	# tmp79,
	movl	$0, %esi	#,
	movl	$102, %edi	#,
	call	gen_rtx_fmt_ee	#
	movq	%r15, %r8	# D.27261,
	movq	%r14, %rcx	# D.27261,
	movq	%rax, %rdx	# D.27261,
	movl	$0, %esi	#,
	movl	$72, %edi	#,
	call	gen_rtx_fmt_eee	#
	movq	%rax, %rdx	#, D.27261
	movq	global_rtl(%rip), %rax	# global_rtl, D.27261
	movq	%rdx, %rcx	# D.27261,
	movq	%rax, %rdx	# D.27261,
	movl	$0, %esi	#,
	movl	$47, %edi	#,
	call	gen_rtx_fmt_ee	#
	movq	%r13, %r8	# D.27261,
	movq	%r12, %rcx	# D.27261,
	movq	%rbx, %rdx	# D.27261,
	movq	%rax, %rsi	# D.27261,
	movl	$4, %edi	#,
	movl	$0, %eax	#,
	call	gen_rtvec	#
	movq	%rax, %rdx	# D.27262,
	movl	$0, %esi	#,
	movl	$39, %edi	#,
	call	gen_rtx_fmt_E	#
	.loc 1 1221 0
	addq	$40, %rsp	#,
	popq	%rbx	#
	popq	%r12	#
	popq	%r13	#
	popq	%r14	#
	popq	%r15	#
	popq	%rbp	#
	.cfi_def_cfa 7, 8
	ret
	.cfi_endproc
.LFE77:
	.size	gen_doloop_end_internal, .-gen_doloop_end_internal
	.globl	gen_blockage
	.type	gen_blockage, @function
gen_blockage:
.LFB78:
	.loc 1 1225 0
	.cfi_startproc
	pushq	%rbp	#
	.cfi_def_cfa_offset 16
	.cfi_offset 6, -16
	movq	%rsp, %rbp	#,
	.cfi_def_cfa_register 6
	.loc 1 1226 0
	movq	const_int_rtx+512(%rip), %rax	# const_int_rtx, D.27263
	movq	%rax, %rsi	# D.27263,
	movl	$1, %edi	#,
	movl	$0, %eax	#,
	call	gen_rtvec	#
	movl	$0, %ecx	#,
	movq	%rax, %rdx	# D.27264,
	movl	$0, %esi	#,
	movl	$43, %edi	#,
	call	gen_rtx_fmt_Ei	#
	.loc 1 1230 0
	popq	%rbp	#
	.cfi_def_cfa 7, 8
	ret
	.cfi_endproc
.LFE78:
	.size	gen_blockage, .-gen_blockage
	.globl	gen_return_internal
	.type	gen_return_internal, @function
gen_return_internal:
.LFB79:
	.loc 1 1234 0
	.cfi_startproc
	pushq	%rbp	#
	.cfi_def_cfa_offset 16
	.cfi_offset 6, -16
	movq	%rsp, %rbp	#,
	.cfi_def_cfa_register 6
	.loc 1 1235 0
	movl	$0, %esi	#,
	movl	$51, %edi	#,
	call	gen_rtx_fmt_	#
	.loc 1 1236 0
	popq	%rbp	#
	.cfi_def_cfa 7, 8
	ret
	.cfi_endproc
.LFE79:
	.size	gen_return_internal, .-gen_return_internal
	.globl	gen_return_pop_internal
	.type	gen_return_pop_internal, @function
gen_return_pop_internal:
.LFB80:
	.loc 1 1241 0
	.cfi_startproc
	pushq	%rbp	#
	.cfi_def_cfa_offset 16
	.cfi_offset 6, -16
	movq	%rsp, %rbp	#,
	.cfi_def_cfa_register 6
	pushq	%rbx	#
	subq	$24, %rsp	#,
	.cfi_offset 3, -24
	movq	%rdi, -24(%rbp)	# operand0, operand0
	.loc 1 1242 0
	movq	-24(%rbp), %rax	# operand0, tmp64
	movq	%rax, %rdx	# tmp64,
	movl	$0, %esi	#,
	movl	$48, %edi	#,
	call	gen_rtx_fmt_e	#
	movq	%rax, %rbx	#, D.27266
	movl	$0, %esi	#,
	movl	$51, %edi	#,
	call	gen_rtx_fmt_	#
	movq	%rbx, %rdx	# D.27266,
	movq	%rax, %rsi	# D.27266,
	movl	$2, %edi	#,
	movl	$0, %eax	#,
	call	gen_rtvec	#
	movq	%rax, %rdx	# D.27267,
	movl	$0, %esi	#,
	movl	$39, %edi	#,
	call	gen_rtx_fmt_E	#
	.loc 1 1246 0
	addq	$24, %rsp	#,
	popq	%rbx	#
	popq	%rbp	#
	.cfi_def_cfa 7, 8
	ret
	.cfi_endproc
.LFE80:
	.size	gen_return_pop_internal, .-gen_return_pop_internal
	.globl	gen_return_indirect_internal
	.type	gen_return_indirect_internal, @function
gen_return_indirect_internal:
.LFB81:
	.loc 1 1251 0
	.cfi_startproc
	pushq	%rbp	#
	.cfi_def_cfa_offset 16
	.cfi_offset 6, -16
	movq	%rsp, %rbp	#,
	.cfi_def_cfa_register 6
	pushq	%rbx	#
	subq	$24, %rsp	#,
	.cfi_offset 3, -24
	movq	%rdi, -24(%rbp)	# operand0, operand0
	.loc 1 1252 0
	movq	-24(%rbp), %rax	# operand0, tmp64
	movq	%rax, %rdx	# tmp64,
	movl	$0, %esi	#,
	movl	$48, %edi	#,
	call	gen_rtx_fmt_e	#
	movq	%rax, %rbx	#, D.27268
	movl	$0, %esi	#,
	movl	$51, %edi	#,
	call	gen_rtx_fmt_	#
	movq	%rbx, %rdx	# D.27268,
	movq	%rax, %rsi	# D.27268,
	movl	$2, %edi	#,
	movl	$0, %eax	#,
	call	gen_rtvec	#
	movq	%rax, %rdx	# D.27269,
	movl	$0, %esi	#,
	movl	$39, %edi	#,
	call	gen_rtx_fmt_E	#
	.loc 1 1256 0
	addq	$24, %rsp	#,
	popq	%rbx	#
	popq	%rbp	#
	.cfi_def_cfa 7, 8
	ret
	.cfi_endproc
.LFE81:
	.size	gen_return_indirect_internal, .-gen_return_indirect_internal
	.globl	gen_nop
	.type	gen_nop, @function
gen_nop:
.LFB82:
	.loc 1 1260 0
	.cfi_startproc
	pushq	%rbp	#
	.cfi_def_cfa_offset 16
	.cfi_offset 6, -16
	movq	%rsp, %rbp	#,
	.cfi_def_cfa_register 6
	.loc 1 1261 0
	movq	const_int_rtx+512(%rip), %rax	# const_int_rtx, D.27270
	.loc 1 1262 0
	popq	%rbp	#
	.cfi_def_cfa 7, 8
	ret
	.cfi_endproc
.LFE82:
	.size	gen_nop, .-gen_nop
	.globl	gen_prologue_set_got
	.type	gen_prologue_set_got, @function
gen_prologue_set_got:
.LFB83:
	.loc 1 1269 0
	.cfi_startproc
	pushq	%rbp	#
	.cfi_def_cfa_offset 16
	.cfi_offset 6, -16
	movq	%rsp, %rbp	#,
	.cfi_def_cfa_register 6
	pushq	%rbx	#
	subq	$40, %rsp	#,
	.cfi_offset 3, -24
	movq	%rdi, -24(%rbp)	# operand0, operand0
	movq	%rsi, -32(%rbp)	# operand1, operand1
	movq	%rdx, -40(%rbp)	# operand2, operand2
	.loc 1 1270 0
	movl	$17, %esi	#,
	movl	$52, %edi	#,
	call	gen_rtx_REG	#
	movq	%rax, %rdx	# D.27271,
	movl	$0, %esi	#,
	movl	$49, %edi	#,
	call	gen_rtx_fmt_e	#
	movq	%rax, %rbx	#, D.27271
	movq	global_rtl(%rip), %rax	# global_rtl, D.27271
	movq	-40(%rbp), %rdx	# operand2, tmp71
	movq	%rdx, %rcx	# tmp71,
	movq	%rax, %rdx	# D.27271,
	movl	$4, %esi	#,
	movl	$76, %edi	#,
	call	gen_rtx_fmt_ee	#
	movq	%rax, %rdx	#, D.27271
	movq	-32(%rbp), %rax	# operand1, tmp72
	movq	%rdx, %rcx	# D.27271,
	movq	%rax, %rdx	# tmp72,
	movl	$4, %esi	#,
	movl	$75, %edi	#,
	call	gen_rtx_fmt_ee	#
	movq	%rax, %rdx	#, D.27271
	movq	-24(%rbp), %rax	# operand0, tmp73
	movq	%rdx, %rcx	# D.27271,
	movq	%rax, %rdx	# tmp73,
	movl	$4, %esi	#,
	movl	$75, %edi	#,
	call	gen_rtx_fmt_ee	#
	movq	%rax, %rsi	# D.27271,
	movl	$1, %edi	#,
	movl	$0, %eax	#,
	call	gen_rtvec	#
	movl	$1, %ecx	#,
	movq	%rax, %rdx	# D.27272,
	movl	$4, %esi	#,
	movl	$43, %edi	#,
	call	gen_rtx_fmt_Ei	#
	movq	%rax, %rdx	#, D.27271
	movq	-24(%rbp), %rax	# operand0, tmp74
	movq	%rdx, %rcx	# D.27271,
	movq	%rax, %rdx	# tmp74,
	movl	$0, %esi	#,
	movl	$47, %edi	#,
	call	gen_rtx_fmt_ee	#
	movq	%rbx, %rdx	# D.27271,
	movq	%rax, %rsi	# D.27271,
	movl	$2, %edi	#,
	movl	$0, %eax	#,
	call	gen_rtvec	#
	movq	%rax, %rdx	# D.27272,
	movl	$0, %esi	#,
	movl	$39, %edi	#,
	call	gen_rtx_fmt_E	#
	.loc 1 1286 0
	addq	$40, %rsp	#,
	popq	%rbx	#
	popq	%rbp	#
	.cfi_def_cfa 7, 8
	ret
	.cfi_endproc
.LFE83:
	.size	gen_prologue_set_got, .-gen_prologue_set_got
	.globl	gen_prologue_get_pc
	.type	gen_prologue_get_pc, @function
gen_prologue_get_pc:
.LFB84:
	.loc 1 1292 0
	.cfi_startproc
	pushq	%rbp	#
	.cfi_def_cfa_offset 16
	.cfi_offset 6, -16
	movq	%rsp, %rbp	#,
	.cfi_def_cfa_register 6
	subq	$16, %rsp	#,
	movq	%rdi, -8(%rbp)	# operand0, operand0
	movq	%rsi, -16(%rbp)	# operand1, operand1
	.loc 1 1293 0
	movq	global_rtl(%rip), %rax	# global_rtl, D.27273
	movq	-16(%rbp), %rdx	# operand1, tmp65
	movq	%rdx, %rcx	# tmp65,
	movq	%rax, %rdx	# D.27273,
	movl	$4, %esi	#,
	movl	$75, %edi	#,
	call	gen_rtx_fmt_ee	#
	movq	%rax, %rsi	# D.27273,
	movl	$1, %edi	#,
	movl	$0, %eax	#,
	call	gen_rtvec	#
	movl	$2, %ecx	#,
	movq	%rax, %rdx	# D.27274,
	movl	$4, %esi	#,
	movl	$43, %edi	#,
	call	gen_rtx_fmt_Ei	#
	movq	%rax, %rdx	#, D.27273
	movq	-8(%rbp), %rax	# operand0, tmp66
	movq	%rdx, %rcx	# D.27273,
	movq	%rax, %rdx	# tmp66,
	movl	$0, %esi	#,
	movl	$47, %edi	#,
	call	gen_rtx_fmt_ee	#
	.loc 1 1301 0
	leave
	.cfi_def_cfa 7, 8
	ret
	.cfi_endproc
.LFE84:
	.size	gen_prologue_get_pc, .-gen_prologue_get_pc
	.globl	gen_eh_return_si
	.type	gen_eh_return_si, @function
gen_eh_return_si:
.LFB85:
	.loc 1 1306 0
	.cfi_startproc
	pushq	%rbp	#
	.cfi_def_cfa_offset 16
	.cfi_offset 6, -16
	movq	%rsp, %rbp	#,
	.cfi_def_cfa_register 6
	subq	$16, %rsp	#,
	movq	%rdi, -8(%rbp)	# operand0, operand0
	.loc 1 1307 0
	movq	-8(%rbp), %rax	# operand0, tmp62
	movq	%rax, %rsi	# tmp62,
	movl	$1, %edi	#,
	movl	$0, %eax	#,
	call	gen_rtvec	#
	movl	$13, %ecx	#,
	movq	%rax, %rdx	# D.27275,
	movl	$0, %esi	#,
	movl	$43, %edi	#,
	call	gen_rtx_fmt_Ei	#
	.loc 1 1311 0
	leave
	.cfi_def_cfa 7, 8
	ret
	.cfi_endproc
.LFE85:
	.size	gen_eh_return_si, .-gen_eh_return_si
	.globl	gen_eh_return_di
	.type	gen_eh_return_di, @function
gen_eh_return_di:
.LFB86:
	.loc 1 1316 0
	.cfi_startproc
	pushq	%rbp	#
	.cfi_def_cfa_offset 16
	.cfi_offset 6, -16
	movq	%rsp, %rbp	#,
	.cfi_def_cfa_register 6
	subq	$16, %rsp	#,
	movq	%rdi, -8(%rbp)	# operand0, operand0
	.loc 1 1317 0
	movq	-8(%rbp), %rax	# operand0, tmp62
	movq	%rax, %rsi	# tmp62,
	movl	$1, %edi	#,
	movl	$0, %eax	#,
	call	gen_rtvec	#
	movl	$13, %ecx	#,
	movq	%rax, %rdx	# D.27277,
	movl	$0, %esi	#,
	movl	$43, %edi	#,
	call	gen_rtx_fmt_Ei	#
	.loc 1 1321 0
	leave
	.cfi_def_cfa 7, 8
	ret
	.cfi_endproc
.LFE86:
	.size	gen_eh_return_di, .-gen_eh_return_di
	.globl	gen_leave
	.type	gen_leave, @function
gen_leave:
.LFB87:
	.loc 1 1325 0
	.cfi_startproc
	pushq	%rbp	#
	.cfi_def_cfa_offset 16
	.cfi_offset 6, -16
	movq	%rsp, %rbp	#,
	.cfi_def_cfa_register 6
	pushq	%r13	#
	pushq	%r12	#
	pushq	%rbx	#
	subq	$8, %rsp	#,
	.cfi_offset 13, -24
	.cfi_offset 12, -32
	.cfi_offset 3, -40
	.loc 1 1326 0
	movl	$0, %esi	#,
	movl	$62, %edi	#,
	call	gen_rtx_fmt_0	#
	movq	%rax, %rsi	# D.27279,
	movl	$51, %edi	#,
	call	gen_rtx_MEM	#
	movq	%rax, %rdx	# D.27279,
	movl	$0, %esi	#,
	movl	$49, %edi	#,
	call	gen_rtx_fmt_e	#
	movq	%rax, %r12	#, D.27279
	movl	$6, %esi	#,
	movl	$4, %edi	#,
	call	gen_rtx_REG	#
	movq	%rax, %rsi	# D.27279,
	movl	$4, %edi	#,
	call	gen_rtx_MEM	#
	movq	%rax, %rbx	#, D.27279
	movl	$6, %esi	#,
	movl	$4, %edi	#,
	call	gen_rtx_REG	#
	movq	%rbx, %rcx	# D.27279,
	movq	%rax, %rdx	# D.27279,
	movl	$0, %esi	#,
	movl	$47, %edi	#,
	call	gen_rtx_fmt_ee	#
	movq	%rax, %rbx	#, D.27279
	movl	$4, %esi	#,
	movl	$0, %edi	#,
	call	gen_rtx_CONST_INT	#
	movq	%rax, %r13	#, D.27279
	movl	$6, %esi	#,
	movl	$4, %edi	#,
	call	gen_rtx_REG	#
	movq	%r13, %rcx	# D.27279,
	movq	%rax, %rdx	# D.27279,
	movl	$4, %esi	#,
	movl	$75, %edi	#,
	call	gen_rtx_fmt_ee	#
	movq	%rax, %r13	#, D.27279
	movl	$7, %esi	#,
	movl	$4, %edi	#,
	call	gen_rtx_REG	#
	movq	%r13, %rcx	# D.27279,
	movq	%rax, %rdx	# D.27279,
	movl	$0, %esi	#,
	movl	$47, %edi	#,
	call	gen_rtx_fmt_ee	#
	movq	%r12, %rcx	# D.27279,
	movq	%rbx, %rdx	# D.27279,
	movq	%rax, %rsi	# D.27279,
	movl	$3, %edi	#,
	movl	$0, %eax	#,
	call	gen_rtvec	#
	movq	%rax, %rdx	# D.27280,
	movl	$0, %esi	#,
	movl	$39, %edi	#,
	call	gen_rtx_fmt_E	#
	.loc 1 1343 0
	addq	$8, %rsp	#,
	popq	%rbx	#
	popq	%r12	#
	popq	%r13	#
	popq	%rbp	#
	.cfi_def_cfa 7, 8
	ret
	.cfi_endproc
.LFE87:
	.size	gen_leave, .-gen_leave
	.globl	gen_leave_rex64
	.type	gen_leave_rex64, @function
gen_leave_rex64:
.LFB88:
	.loc 1 1347 0
	.cfi_startproc
	pushq	%rbp	#
	.cfi_def_cfa_offset 16
	.cfi_offset 6, -16
	movq	%rsp, %rbp	#,
	.cfi_def_cfa_register 6
	pushq	%r13	#
	pushq	%r12	#
	pushq	%rbx	#
	subq	$8, %rsp	#,
	.cfi_offset 13, -24
	.cfi_offset 12, -32
	.cfi_offset 3, -40
	.loc 1 1348 0
	movl	$0, %esi	#,
	movl	$62, %edi	#,
	call	gen_rtx_fmt_0	#
	movq	%rax, %rsi	# D.27281,
	movl	$51, %edi	#,
	call	gen_rtx_MEM	#
	movq	%rax, %rdx	# D.27281,
	movl	$0, %esi	#,
	movl	$49, %edi	#,
	call	gen_rtx_fmt_e	#
	movq	%rax, %r12	#, D.27281
	movl	$6, %esi	#,
	movl	$5, %edi	#,
	call	gen_rtx_REG	#
	movq	%rax, %rsi	# D.27281,
	movl	$5, %edi	#,
	call	gen_rtx_MEM	#
	movq	%rax, %rbx	#, D.27281
	movl	$6, %esi	#,
	movl	$5, %edi	#,
	call	gen_rtx_REG	#
	movq	%rbx, %rcx	# D.27281,
	movq	%rax, %rdx	# D.27281,
	movl	$0, %esi	#,
	movl	$47, %edi	#,
	call	gen_rtx_fmt_ee	#
	movq	%rax, %rbx	#, D.27281
	movl	$8, %esi	#,
	movl	$0, %edi	#,
	call	gen_rtx_CONST_INT	#
	movq	%rax, %r13	#, D.27281
	movl	$6, %esi	#,
	movl	$5, %edi	#,
	call	gen_rtx_REG	#
	movq	%r13, %rcx	# D.27281,
	movq	%rax, %rdx	# D.27281,
	movl	$5, %esi	#,
	movl	$75, %edi	#,
	call	gen_rtx_fmt_ee	#
	movq	%rax, %r13	#, D.27281
	movl	$7, %esi	#,
	movl	$5, %edi	#,
	call	gen_rtx_REG	#
	movq	%r13, %rcx	# D.27281,
	movq	%rax, %rdx	# D.27281,
	movl	$0, %esi	#,
	movl	$47, %edi	#,
	call	gen_rtx_fmt_ee	#
	movq	%r12, %rcx	# D.27281,
	movq	%rbx, %rdx	# D.27281,
	movq	%rax, %rsi	# D.27281,
	movl	$3, %edi	#,
	movl	$0, %eax	#,
	call	gen_rtvec	#
	movq	%rax, %rdx	# D.27282,
	movl	$0, %esi	#,
	movl	$39, %edi	#,
	call	gen_rtx_fmt_E	#
	.loc 1 1365 0
	addq	$8, %rsp	#,
	popq	%rbx	#
	popq	%r12	#
	popq	%r13	#
	popq	%rbp	#
	.cfi_def_cfa 7, 8
	ret
	.cfi_endproc
.LFE88:
	.size	gen_leave_rex64, .-gen_leave_rex64
	.globl	gen_ffssi_1
	.type	gen_ffssi_1, @function
gen_ffssi_1:
.LFB89:
	.loc 1 1371 0
	.cfi_startproc
	pushq	%rbp	#
	.cfi_def_cfa_offset 16
	.cfi_offset 6, -16
	movq	%rsp, %rbp	#,
	.cfi_def_cfa_register 6
	pushq	%r12	#
	pushq	%rbx	#
	subq	$16, %rsp	#,
	.cfi_offset 12, -24
	.cfi_offset 3, -32
	movq	%rdi, -24(%rbp)	# operand0, operand0
	movq	%rsi, -32(%rbp)	# operand1, operand1
	.loc 1 1372 0
	movq	-32(%rbp), %rax	# operand1, tmp69
	movq	%rax, %rsi	# tmp69,
	movl	$1, %edi	#,
	movl	$0, %eax	#,
	call	gen_rtvec	#
	movl	$5, %ecx	#,
	movq	%rax, %rdx	# D.27283,
	movl	$4, %esi	#,
	movl	$42, %edi	#,
	call	gen_rtx_fmt_Ei	#
	movq	%rax, %rdx	#, D.27284
	movq	-24(%rbp), %rax	# operand0, tmp70
	movq	%rdx, %rcx	# D.27284,
	movq	%rax, %rdx	# tmp70,
	movl	$0, %esi	#,
	movl	$47, %edi	#,
	call	gen_rtx_fmt_ee	#
	movq	%rax, %rbx	#, D.27284
	movq	const_int_rtx+512(%rip), %rdx	# const_int_rtx, D.27284
	movq	-32(%rbp), %rax	# operand1, tmp71
	movq	%rdx, %rcx	# D.27284,
	movq	%rax, %rdx	# tmp71,
	movl	$56, %esi	#,
	movl	$74, %edi	#,
	call	gen_rtx_fmt_ee	#
	movq	%rax, %r12	#, D.27284
	movl	$17, %esi	#,
	movl	$56, %edi	#,
	call	gen_rtx_REG	#
	movq	%r12, %rcx	# D.27284,
	movq	%rax, %rdx	# D.27284,
	movl	$0, %esi	#,
	movl	$47, %edi	#,
	call	gen_rtx_fmt_ee	#
	movq	%rbx, %rdx	# D.27284,
	movq	%rax, %rsi	# D.27284,
	movl	$2, %edi	#,
	movl	$0, %eax	#,
	call	gen_rtvec	#
	movq	%rax, %rdx	# D.27283,
	movl	$0, %esi	#,
	movl	$39, %edi	#,
	call	gen_rtx_fmt_E	#
	.loc 1 1385 0
	addq	$16, %rsp	#,
	popq	%rbx	#
	popq	%r12	#
	popq	%rbp	#
	.cfi_def_cfa 7, 8
	ret
	.cfi_endproc
.LFE89:
	.size	gen_ffssi_1, .-gen_ffssi_1
	.globl	gen_sqrtsf2_1
	.type	gen_sqrtsf2_1, @function
gen_sqrtsf2_1:
.LFB90:
	.loc 1 1391 0
	.cfi_startproc
	pushq	%rbp	#
	.cfi_def_cfa_offset 16
	.cfi_offset 6, -16
	movq	%rsp, %rbp	#,
	.cfi_def_cfa_register 6
	subq	$16, %rsp	#,
	movq	%rdi, -8(%rbp)	# operand0, operand0
	movq	%rsi, -16(%rbp)	# operand1, operand1
	.loc 1 1392 0
	movq	-16(%rbp), %rax	# operand1, tmp62
	movq	%rax, %rdx	# tmp62,
	movl	$15, %esi	#,
	movl	$130, %edi	#,
	call	gen_rtx_fmt_e	#
	movq	%rax, %rdx	#, D.27285
	movq	-8(%rbp), %rax	# operand0, tmp63
	movq	%rdx, %rcx	# D.27285,
	movq	%rax, %rdx	# tmp63,
	movl	$0, %esi	#,
	movl	$47, %edi	#,
	call	gen_rtx_fmt_ee	#
	.loc 1 1396 0
	leave
	.cfi_def_cfa 7, 8
	ret
	.cfi_endproc
.LFE90:
	.size	gen_sqrtsf2_1, .-gen_sqrtsf2_1
	.globl	gen_sqrtsf2_1_sse_only
	.type	gen_sqrtsf2_1_sse_only, @function
gen_sqrtsf2_1_sse_only:
.LFB91:
	.loc 1 1402 0
	.cfi_startproc
	pushq	%rbp	#
	.cfi_def_cfa_offset 16
	.cfi_offset 6, -16
	movq	%rsp, %rbp	#,
	.cfi_def_cfa_register 6
	subq	$16, %rsp	#,
	movq	%rdi, -8(%rbp)	# operand0, operand0
	movq	%rsi, -16(%rbp)	# operand1, operand1
	.loc 1 1403 0
	movq	-16(%rbp), %rax	# operand1, tmp62
	movq	%rax, %rdx	# tmp62,
	movl	$15, %esi	#,
	movl	$130, %edi	#,
	call	gen_rtx_fmt_e	#
	movq	%rax, %rdx	#, D.27286
	movq	-8(%rbp), %rax	# operand0, tmp63
	movq	%rdx, %rcx	# D.27286,
	movq	%rax, %rdx	# tmp63,
	movl	$0, %esi	#,
	movl	$47, %edi	#,
	call	gen_rtx_fmt_ee	#
	.loc 1 1407 0
	leave
	.cfi_def_cfa 7, 8
	ret
	.cfi_endproc
.LFE91:
	.size	gen_sqrtsf2_1_sse_only, .-gen_sqrtsf2_1_sse_only
	.globl	gen_sqrtsf2_i387
	.type	gen_sqrtsf2_i387, @function
gen_sqrtsf2_i387:
.LFB92:
	.loc 1 1413 0
	.cfi_startproc
	pushq	%rbp	#
	.cfi_def_cfa_offset 16
	.cfi_offset 6, -16
	movq	%rsp, %rbp	#,
	.cfi_def_cfa_register 6
	subq	$16, %rsp	#,
	movq	%rdi, -8(%rbp)	# operand0, operand0
	movq	%rsi, -16(%rbp)	# operand1, operand1
	.loc 1 1414 0
	movq	-16(%rbp), %rax	# operand1, tmp62
	movq	%rax, %rdx	# tmp62,
	movl	$15, %esi	#,
	movl	$130, %edi	#,
	call	gen_rtx_fmt_e	#
	movq	%rax, %rdx	#, D.27287
	movq	-8(%rbp), %rax	# operand0, tmp63
	movq	%rdx, %rcx	# D.27287,
	movq	%rax, %rdx	# tmp63,
	movl	$0, %esi	#,
	movl	$47, %edi	#,
	call	gen_rtx_fmt_ee	#
	.loc 1 1418 0
	leave
	.cfi_def_cfa 7, 8
	ret
	.cfi_endproc
.LFE92:
	.size	gen_sqrtsf2_i387, .-gen_sqrtsf2_i387
	.globl	gen_sqrtdf2_1
	.type	gen_sqrtdf2_1, @function
gen_sqrtdf2_1:
.LFB93:
	.loc 1 1424 0
	.cfi_startproc
	pushq	%rbp	#
	.cfi_def_cfa_offset 16
	.cfi_offset 6, -16
	movq	%rsp, %rbp	#,
	.cfi_def_cfa_register 6
	subq	$16, %rsp	#,
	movq	%rdi, -8(%rbp)	# operand0, operand0
	movq	%rsi, -16(%rbp)	# operand1, operand1
	.loc 1 1425 0
	movq	-16(%rbp), %rax	# operand1, tmp62
	movq	%rax, %rdx	# tmp62,
	movl	$16, %esi	#,
	movl	$130, %edi	#,
	call	gen_rtx_fmt_e	#
	movq	%rax, %rdx	#, D.27288
	movq	-8(%rbp), %rax	# operand0, tmp63
	movq	%rdx, %rcx	# D.27288,
	movq	%rax, %rdx	# tmp63,
	movl	$0, %esi	#,
	movl	$47, %edi	#,
	call	gen_rtx_fmt_ee	#
	.loc 1 1429 0
	leave
	.cfi_def_cfa 7, 8
	ret
	.cfi_endproc
.LFE93:
	.size	gen_sqrtdf2_1, .-gen_sqrtdf2_1
	.globl	gen_sqrtdf2_1_sse_only
	.type	gen_sqrtdf2_1_sse_only, @function
gen_sqrtdf2_1_sse_only:
.LFB94:
	.loc 1 1435 0
	.cfi_startproc
	pushq	%rbp	#
	.cfi_def_cfa_offset 16
	.cfi_offset 6, -16
	movq	%rsp, %rbp	#,
	.cfi_def_cfa_register 6
	subq	$16, %rsp	#,
	movq	%rdi, -8(%rbp)	# operand0, operand0
	movq	%rsi, -16(%rbp)	# operand1, operand1
	.loc 1 1436 0
	movq	-16(%rbp), %rax	# operand1, tmp62
	movq	%rax, %rdx	# tmp62,
	movl	$16, %esi	#,
	movl	$130, %edi	#,
	call	gen_rtx_fmt_e	#
	movq	%rax, %rdx	#, D.27289
	movq	-8(%rbp), %rax	# operand0, tmp63
	movq	%rdx, %rcx	# D.27289,
	movq	%rax, %rdx	# tmp63,
	movl	$0, %esi	#,
	movl	$47, %edi	#,
	call	gen_rtx_fmt_ee	#
	.loc 1 1440 0
	leave
	.cfi_def_cfa 7, 8
	ret
	.cfi_endproc
.LFE94:
	.size	gen_sqrtdf2_1_sse_only, .-gen_sqrtdf2_1_sse_only
	.globl	gen_sqrtdf2_i387
	.type	gen_sqrtdf2_i387, @function
gen_sqrtdf2_i387:
.LFB95:
	.loc 1 1446 0
	.cfi_startproc
	pushq	%rbp	#
	.cfi_def_cfa_offset 16
	.cfi_offset 6, -16
	movq	%rsp, %rbp	#,
	.cfi_def_cfa_register 6
	subq	$16, %rsp	#,
	movq	%rdi, -8(%rbp)	# operand0, operand0
	movq	%rsi, -16(%rbp)	# operand1, operand1
	.loc 1 1447 0
	movq	-16(%rbp), %rax	# operand1, tmp62
	movq	%rax, %rdx	# tmp62,
	movl	$16, %esi	#,
	movl	$130, %edi	#,
	call	gen_rtx_fmt_e	#
	movq	%rax, %rdx	#, D.27290
	movq	-8(%rbp), %rax	# operand0, tmp63
	movq	%rdx, %rcx	# D.27290,
	movq	%rax, %rdx	# tmp63,
	movl	$0, %esi	#,
	movl	$47, %edi	#,
	call	gen_rtx_fmt_ee	#
	.loc 1 1451 0
	leave
	.cfi_def_cfa 7, 8
	ret
	.cfi_endproc
.LFE95:
	.size	gen_sqrtdf2_i387, .-gen_sqrtdf2_i387
	.globl	gen_sqrtxf2
	.type	gen_sqrtxf2, @function
gen_sqrtxf2:
.LFB96:
	.loc 1 1457 0
	.cfi_startproc
	pushq	%rbp	#
	.cfi_def_cfa_offset 16
	.cfi_offset 6, -16
	movq	%rsp, %rbp	#,
	.cfi_def_cfa_register 6
	subq	$16, %rsp	#,
	movq	%rdi, -8(%rbp)	# operand0, operand0
	movq	%rsi, -16(%rbp)	# operand1, operand1
	.loc 1 1458 0
	movq	-16(%rbp), %rax	# operand1, tmp62
	movq	%rax, %rdx	# tmp62,
	movl	$17, %esi	#,
	movl	$130, %edi	#,
	call	gen_rtx_fmt_e	#
	movq	%rax, %rdx	#, D.27291
	movq	-8(%rbp), %rax	# operand0, tmp63
	movq	%rdx, %rcx	# D.27291,
	movq	%rax, %rdx	# tmp63,
	movl	$0, %esi	#,
	movl	$47, %edi	#,
	call	gen_rtx_fmt_ee	#
	.loc 1 1462 0
	leave
	.cfi_def_cfa 7, 8
	ret
	.cfi_endproc
.LFE96:
	.size	gen_sqrtxf2, .-gen_sqrtxf2
	.globl	gen_sqrttf2
	.type	gen_sqrttf2, @function
gen_sqrttf2:
.LFB97:
	.loc 1 1468 0
	.cfi_startproc
	pushq	%rbp	#
	.cfi_def_cfa_offset 16
	.cfi_offset 6, -16
	movq	%rsp, %rbp	#,
	.cfi_def_cfa_register 6
	subq	$16, %rsp	#,
	movq	%rdi, -8(%rbp)	# operand0, operand0
	movq	%rsi, -16(%rbp)	# operand1, operand1
	.loc 1 1469 0
	movq	-16(%rbp), %rax	# operand1, tmp62
	movq	%rax, %rdx	# tmp62,
	movl	$18, %esi	#,
	movl	$130, %edi	#,
	call	gen_rtx_fmt_e	#
	movq	%rax, %rdx	#, D.27292
	movq	-8(%rbp), %rax	# operand0, tmp63
	movq	%rdx, %rcx	# D.27292,
	movq	%rax, %rdx	# tmp63,
	movl	$0, %esi	#,
	movl	$47, %edi	#,
	call	gen_rtx_fmt_ee	#
	.loc 1 1473 0
	leave
	.cfi_def_cfa 7, 8
	ret
	.cfi_endproc
.LFE97:
	.size	gen_sqrttf2, .-gen_sqrttf2
	.globl	gen_sindf2
	.type	gen_sindf2, @function
gen_sindf2:
.LFB98:
	.loc 1 1479 0
	.cfi_startproc
	pushq	%rbp	#
	.cfi_def_cfa_offset 16
	.cfi_offset 6, -16
	movq	%rsp, %rbp	#,
	.cfi_def_cfa_register 6
	subq	$16, %rsp	#,
	movq	%rdi, -8(%rbp)	# operand0, operand0
	movq	%rsi, -16(%rbp)	# operand1, operand1
	.loc 1 1480 0
	movq	-16(%rbp), %rax	# operand1, tmp63
	movq	%rax, %rsi	# tmp63,
	movl	$1, %edi	#,
	movl	$0, %eax	#,
	call	gen_rtvec	#
	movl	$1, %ecx	#,
	movq	%rax, %rdx	# D.27293,
	movl	$16, %esi	#,
	movl	$42, %edi	#,
	call	gen_rtx_fmt_Ei	#
	movq	%rax, %rdx	#, D.27294
	movq	-8(%rbp), %rax	# operand0, tmp64
	movq	%rdx, %rcx	# D.27294,
	movq	%rax, %rdx	# tmp64,
	movl	$0, %esi	#,
	movl	$47, %edi	#,
	call	gen_rtx_fmt_ee	#
	.loc 1 1486 0
	leave
	.cfi_def_cfa 7, 8
	ret
	.cfi_endproc
.LFE98:
	.size	gen_sindf2, .-gen_sindf2
	.globl	gen_sinsf2
	.type	gen_sinsf2, @function
gen_sinsf2:
.LFB99:
	.loc 1 1492 0
	.cfi_startproc
	pushq	%rbp	#
	.cfi_def_cfa_offset 16
	.cfi_offset 6, -16
	movq	%rsp, %rbp	#,
	.cfi_def_cfa_register 6
	subq	$16, %rsp	#,
	movq	%rdi, -8(%rbp)	# operand0, operand0
	movq	%rsi, -16(%rbp)	# operand1, operand1
	.loc 1 1493 0
	movq	-16(%rbp), %rax	# operand1, tmp63
	movq	%rax, %rsi	# tmp63,
	movl	$1, %edi	#,
	movl	$0, %eax	#,
	call	gen_rtvec	#
	movl	$1, %ecx	#,
	movq	%rax, %rdx	# D.27295,
	movl	$15, %esi	#,
	movl	$42, %edi	#,
	call	gen_rtx_fmt_Ei	#
	movq	%rax, %rdx	#, D.27296
	movq	-8(%rbp), %rax	# operand0, tmp64
	movq	%rdx, %rcx	# D.27296,
	movq	%rax, %rdx	# tmp64,
	movl	$0, %esi	#,
	movl	$47, %edi	#,
	call	gen_rtx_fmt_ee	#
	.loc 1 1499 0
	leave
	.cfi_def_cfa 7, 8
	ret
	.cfi_endproc
.LFE99:
	.size	gen_sinsf2, .-gen_sinsf2
	.globl	gen_sinxf2
	.type	gen_sinxf2, @function
gen_sinxf2:
.LFB100:
	.loc 1 1505 0
	.cfi_startproc
	pushq	%rbp	#
	.cfi_def_cfa_offset 16
	.cfi_offset 6, -16
	movq	%rsp, %rbp	#,
	.cfi_def_cfa_register 6
	subq	$16, %rsp	#,
	movq	%rdi, -8(%rbp)	# operand0, operand0
	movq	%rsi, -16(%rbp)	# operand1, operand1
	.loc 1 1506 0
	movq	-16(%rbp), %rax	# operand1, tmp63
	movq	%rax, %rsi	# tmp63,
	movl	$1, %edi	#,
	movl	$0, %eax	#,
	call	gen_rtvec	#
	movl	$1, %ecx	#,
	movq	%rax, %rdx	# D.27297,
	movl	$17, %esi	#,
	movl	$42, %edi	#,
	call	gen_rtx_fmt_Ei	#
	movq	%rax, %rdx	#, D.27298
	movq	-8(%rbp), %rax	# operand0, tmp64
	movq	%rdx, %rcx	# D.27298,
	movq	%rax, %rdx	# tmp64,
	movl	$0, %esi	#,
	movl	$47, %edi	#,
	call	gen_rtx_fmt_ee	#
	.loc 1 1512 0
	leave
	.cfi_def_cfa 7, 8
	ret
	.cfi_endproc
.LFE100:
	.size	gen_sinxf2, .-gen_sinxf2
	.globl	gen_sintf2
	.type	gen_sintf2, @function
gen_sintf2:
.LFB101:
	.loc 1 1518 0
	.cfi_startproc
	pushq	%rbp	#
	.cfi_def_cfa_offset 16
	.cfi_offset 6, -16
	movq	%rsp, %rbp	#,
	.cfi_def_cfa_register 6
	subq	$16, %rsp	#,
	movq	%rdi, -8(%rbp)	# operand0, operand0
	movq	%rsi, -16(%rbp)	# operand1, operand1
	.loc 1 1519 0
	movq	-16(%rbp), %rax	# operand1, tmp63
	movq	%rax, %rsi	# tmp63,
	movl	$1, %edi	#,
	movl	$0, %eax	#,
	call	gen_rtvec	#
	movl	$1, %ecx	#,
	movq	%rax, %rdx	# D.27299,
	movl	$18, %esi	#,
	movl	$42, %edi	#,
	call	gen_rtx_fmt_Ei	#
	movq	%rax, %rdx	#, D.27300
	movq	-8(%rbp), %rax	# operand0, tmp64
	movq	%rdx, %rcx	# D.27300,
	movq	%rax, %rdx	# tmp64,
	movl	$0, %esi	#,
	movl	$47, %edi	#,
	call	gen_rtx_fmt_ee	#
	.loc 1 1525 0
	leave
	.cfi_def_cfa 7, 8
	ret
	.cfi_endproc
.LFE101:
	.size	gen_sintf2, .-gen_sintf2
	.globl	gen_cosdf2
	.type	gen_cosdf2, @function
gen_cosdf2:
.LFB102:
	.loc 1 1531 0
	.cfi_startproc
	pushq	%rbp	#
	.cfi_def_cfa_offset 16
	.cfi_offset 6, -16
	movq	%rsp, %rbp	#,
	.cfi_def_cfa_register 6
	subq	$16, %rsp	#,
	movq	%rdi, -8(%rbp)	# operand0, operand0
	movq	%rsi, -16(%rbp)	# operand1, operand1
	.loc 1 1532 0
	movq	-16(%rbp), %rax	# operand1, tmp63
	movq	%rax, %rsi	# tmp63,
	movl	$1, %edi	#,
	movl	$0, %eax	#,
	call	gen_rtvec	#
	movl	$2, %ecx	#,
	movq	%rax, %rdx	# D.27301,
	movl	$16, %esi	#,
	movl	$42, %edi	#,
	call	gen_rtx_fmt_Ei	#
	movq	%rax, %rdx	#, D.27302
	movq	-8(%rbp), %rax	# operand0, tmp64
	movq	%rdx, %rcx	# D.27302,
	movq	%rax, %rdx	# tmp64,
	movl	$0, %esi	#,
	movl	$47, %edi	#,
	call	gen_rtx_fmt_ee	#
	.loc 1 1538 0
	leave
	.cfi_def_cfa 7, 8
	ret
	.cfi_endproc
.LFE102:
	.size	gen_cosdf2, .-gen_cosdf2
	.globl	gen_cossf2
	.type	gen_cossf2, @function
gen_cossf2:
.LFB103:
	.loc 1 1544 0
	.cfi_startproc
	pushq	%rbp	#
	.cfi_def_cfa_offset 16
	.cfi_offset 6, -16
	movq	%rsp, %rbp	#,
	.cfi_def_cfa_register 6
	subq	$16, %rsp	#,
	movq	%rdi, -8(%rbp)	# operand0, operand0
	movq	%rsi, -16(%rbp)	# operand1, operand1
	.loc 1 1545 0
	movq	-16(%rbp), %rax	# operand1, tmp63
	movq	%rax, %rsi	# tmp63,
	movl	$1, %edi	#,
	movl	$0, %eax	#,
	call	gen_rtvec	#
	movl	$2, %ecx	#,
	movq	%rax, %rdx	# D.27303,
	movl	$15, %esi	#,
	movl	$42, %edi	#,
	call	gen_rtx_fmt_Ei	#
	movq	%rax, %rdx	#, D.27304
	movq	-8(%rbp), %rax	# operand0, tmp64
	movq	%rdx, %rcx	# D.27304,
	movq	%rax, %rdx	# tmp64,
	movl	$0, %esi	#,
	movl	$47, %edi	#,
	call	gen_rtx_fmt_ee	#
	.loc 1 1551 0
	leave
	.cfi_def_cfa 7, 8
	ret
	.cfi_endproc
.LFE103:
	.size	gen_cossf2, .-gen_cossf2
	.globl	gen_cosxf2
	.type	gen_cosxf2, @function
gen_cosxf2:
.LFB104:
	.loc 1 1557 0
	.cfi_startproc
	pushq	%rbp	#
	.cfi_def_cfa_offset 16
	.cfi_offset 6, -16
	movq	%rsp, %rbp	#,
	.cfi_def_cfa_register 6
	subq	$16, %rsp	#,
	movq	%rdi, -8(%rbp)	# operand0, operand0
	movq	%rsi, -16(%rbp)	# operand1, operand1
	.loc 1 1558 0
	movq	-16(%rbp), %rax	# operand1, tmp63
	movq	%rax, %rsi	# tmp63,
	movl	$1, %edi	#,
	movl	$0, %eax	#,
	call	gen_rtvec	#
	movl	$2, %ecx	#,
	movq	%rax, %rdx	# D.27305,
	movl	$17, %esi	#,
	movl	$42, %edi	#,
	call	gen_rtx_fmt_Ei	#
	movq	%rax, %rdx	#, D.27306
	movq	-8(%rbp), %rax	# operand0, tmp64
	movq	%rdx, %rcx	# D.27306,
	movq	%rax, %rdx	# tmp64,
	movl	$0, %esi	#,
	movl	$47, %edi	#,
	call	gen_rtx_fmt_ee	#
	.loc 1 1564 0
	leave
	.cfi_def_cfa 7, 8
	ret
	.cfi_endproc
.LFE104:
	.size	gen_cosxf2, .-gen_cosxf2
	.globl	gen_costf2
	.type	gen_costf2, @function
gen_costf2:
.LFB105:
	.loc 1 1570 0
	.cfi_startproc
	pushq	%rbp	#
	.cfi_def_cfa_offset 16
	.cfi_offset 6, -16
	movq	%rsp, %rbp	#,
	.cfi_def_cfa_register 6
	subq	$16, %rsp	#,
	movq	%rdi, -8(%rbp)	# operand0, operand0
	movq	%rsi, -16(%rbp)	# operand1, operand1
	.loc 1 1571 0
	movq	-16(%rbp), %rax	# operand1, tmp63
	movq	%rax, %rsi	# tmp63,
	movl	$1, %edi	#,
	movl	$0, %eax	#,
	call	gen_rtvec	#
	movl	$2, %ecx	#,
	movq	%rax, %rdx	# D.27307,
	movl	$18, %esi	#,
	movl	$42, %edi	#,
	call	gen_rtx_fmt_Ei	#
	movq	%rax, %rdx	#, D.27308
	movq	-8(%rbp), %rax	# operand0, tmp64
	movq	%rdx, %rcx	# D.27308,
	movq	%rax, %rdx	# tmp64,
	movl	$0, %esi	#,
	movl	$47, %edi	#,
	call	gen_rtx_fmt_ee	#
	.loc 1 1577 0
	leave
	.cfi_def_cfa 7, 8
	ret
	.cfi_endproc
.LFE105:
	.size	gen_costf2, .-gen_costf2
	.globl	gen_cld
	.type	gen_cld, @function
gen_cld:
.LFB106:
	.loc 1 1581 0
	.cfi_startproc
	pushq	%rbp	#
	.cfi_def_cfa_offset 16
	.cfi_offset 6, -16
	movq	%rsp, %rbp	#,
	.cfi_def_cfa_register 6
	pushq	%rbx	#
	subq	$8, %rsp	#,
	.cfi_offset 3, -24
	.loc 1 1582 0
	movq	const_int_rtx+512(%rip), %rbx	# const_int_rtx, D.27309
	movl	$19, %esi	#,
	movl	$4, %edi	#,
	call	gen_rtx_REG	#
	movq	%rbx, %rcx	# D.27309,
	movq	%rax, %rdx	# D.27309,
	movl	$0, %esi	#,
	movl	$47, %edi	#,
	call	gen_rtx_fmt_ee	#
	.loc 1 1586 0
	addq	$8, %rsp	#,
	popq	%rbx	#
	popq	%rbp	#
	.cfi_def_cfa 7, 8
	ret
	.cfi_endproc
.LFE106:
	.size	gen_cld, .-gen_cld
	.globl	gen_strmovdi_rex_1
	.type	gen_strmovdi_rex_1, @function
gen_strmovdi_rex_1:
.LFB107:
	.loc 1 1594 0
	.cfi_startproc
	pushq	%rbp	#
	.cfi_def_cfa_offset 16
	.cfi_offset 6, -16
	movq	%rsp, %rbp	#,
	.cfi_def_cfa_register 6
	pushq	%r14	#
	pushq	%r13	#
	pushq	%r12	#
	pushq	%rbx	#
	subq	$32, %rsp	#,
	.cfi_offset 14, -24
	.cfi_offset 13, -32
	.cfi_offset 12, -40
	.cfi_offset 3, -48
	movq	%rdi, -40(%rbp)	# operand0, operand0
	movq	%rsi, -48(%rbp)	# operand1, operand1
	movq	%rdx, -56(%rbp)	# operand2, operand2
	movq	%rcx, -64(%rbp)	# operand3, operand3
	.loc 1 1595 0
	movl	$19, %esi	#,
	movl	$4, %edi	#,
	call	gen_rtx_REG	#
	movq	%rax, %rdx	# D.27310,
	movl	$0, %esi	#,
	movl	$48, %edi	#,
	call	gen_rtx_fmt_e	#
	movq	%rax, %r13	#, D.27310
	movl	$8, %esi	#,
	movl	$0, %edi	#,
	call	gen_rtx_CONST_INT	#
	movq	%rax, %rdx	#, D.27310
	movq	-64(%rbp), %rax	# operand3, tmp73
	movq	%rdx, %rcx	# D.27310,
	movq	%rax, %rdx	# tmp73,
	movl	$5, %esi	#,
	movl	$75, %edi	#,
	call	gen_rtx_fmt_ee	#
	movq	%rax, %rdx	#, D.27310
	movq	-48(%rbp), %rax	# operand1, tmp74
	movq	%rdx, %rcx	# D.27310,
	movq	%rax, %rdx	# tmp74,
	movl	$0, %esi	#,
	movl	$47, %edi	#,
	call	gen_rtx_fmt_ee	#
	movq	%rax, %r12	#, D.27310
	movl	$8, %esi	#,
	movl	$0, %edi	#,
	call	gen_rtx_CONST_INT	#
	movq	%rax, %rdx	#, D.27310
	movq	-56(%rbp), %rax	# operand2, tmp75
	movq	%rdx, %rcx	# D.27310,
	movq	%rax, %rdx	# tmp75,
	movl	$5, %esi	#,
	movl	$75, %edi	#,
	call	gen_rtx_fmt_ee	#
	movq	%rax, %rdx	#, D.27310
	movq	-40(%rbp), %rax	# operand0, tmp76
	movq	%rdx, %rcx	# D.27310,
	movq	%rax, %rdx	# tmp76,
	movl	$0, %esi	#,
	movl	$47, %edi	#,
	call	gen_rtx_fmt_ee	#
	movq	%rax, %rbx	#, D.27310
	movq	-64(%rbp), %rax	# operand3, tmp77
	movq	%rax, %rsi	# tmp77,
	movl	$5, %edi	#,
	call	gen_rtx_MEM	#
	movq	%rax, %r14	#, D.27310
	movq	-56(%rbp), %rax	# operand2, tmp78
	movq	%rax, %rsi	# tmp78,
	movl	$5, %edi	#,
	call	gen_rtx_MEM	#
	movq	%r14, %rcx	# D.27310,
	movq	%rax, %rdx	# D.27310,
	movl	$0, %esi	#,
	movl	$47, %edi	#,
	call	gen_rtx_fmt_ee	#
	movq	%r13, %r8	# D.27310,
	movq	%r12, %rcx	# D.27310,
	movq	%rbx, %rdx	# D.27310,
	movq	%rax, %rsi	# D.27310,
	movl	$4, %edi	#,
	movl	$0, %eax	#,
	call	gen_rtvec	#
	movq	%rax, %rdx	# D.27311,
	movl	$0, %esi	#,
	movl	$39, %edi	#,
	call	gen_rtx_fmt_E	#
	.loc 1 1614 0
	addq	$32, %rsp	#,
	popq	%rbx	#
	popq	%r12	#
	popq	%r13	#
	popq	%r14	#
	popq	%rbp	#
	.cfi_def_cfa 7, 8
	ret
	.cfi_endproc
.LFE107:
	.size	gen_strmovdi_rex_1, .-gen_strmovdi_rex_1
	.globl	gen_strmovsi_1
	.type	gen_strmovsi_1, @function
gen_strmovsi_1:
.LFB108:
	.loc 1 1622 0
	.cfi_startproc
	pushq	%rbp	#
	.cfi_def_cfa_offset 16
	.cfi_offset 6, -16
	movq	%rsp, %rbp	#,
	.cfi_def_cfa_register 6
	pushq	%r14	#
	pushq	%r13	#
	pushq	%r12	#
	pushq	%rbx	#
	subq	$32, %rsp	#,
	.cfi_offset 14, -24
	.cfi_offset 13, -32
	.cfi_offset 12, -40
	.cfi_offset 3, -48
	movq	%rdi, -40(%rbp)	# operand0, operand0
	movq	%rsi, -48(%rbp)	# operand1, operand1
	movq	%rdx, -56(%rbp)	# operand2, operand2
	movq	%rcx, -64(%rbp)	# operand3, operand3
	.loc 1 1623 0
	movl	$19, %esi	#,
	movl	$4, %edi	#,
	call	gen_rtx_REG	#
	movq	%rax, %rdx	# D.27312,
	movl	$0, %esi	#,
	movl	$48, %edi	#,
	call	gen_rtx_fmt_e	#
	movq	%rax, %r13	#, D.27312
	movl	$4, %esi	#,
	movl	$0, %edi	#,
	call	gen_rtx_CONST_INT	#
	movq	%rax, %rdx	#, D.27312
	movq	-64(%rbp), %rax	# operand3, tmp73
	movq	%rdx, %rcx	# D.27312,
	movq	%rax, %rdx	# tmp73,
	movl	$4, %esi	#,
	movl	$75, %edi	#,
	call	gen_rtx_fmt_ee	#
	movq	%rax, %rdx	#, D.27312
	movq	-48(%rbp), %rax	# operand1, tmp74
	movq	%rdx, %rcx	# D.27312,
	movq	%rax, %rdx	# tmp74,
	movl	$0, %esi	#,
	movl	$47, %edi	#,
	call	gen_rtx_fmt_ee	#
	movq	%rax, %r12	#, D.27312
	movl	$4, %esi	#,
	movl	$0, %edi	#,
	call	gen_rtx_CONST_INT	#
	movq	%rax, %rdx	#, D.27312
	movq	-56(%rbp), %rax	# operand2, tmp75
	movq	%rdx, %rcx	# D.27312,
	movq	%rax, %rdx	# tmp75,
	movl	$4, %esi	#,
	movl	$75, %edi	#,
	call	gen_rtx_fmt_ee	#
	movq	%rax, %rdx	#, D.27312
	movq	-40(%rbp), %rax	# operand0, tmp76
	movq	%rdx, %rcx	# D.27312,
	movq	%rax, %rdx	# tmp76,
	movl	$0, %esi	#,
	movl	$47, %edi	#,
	call	gen_rtx_fmt_ee	#
	movq	%rax, %rbx	#, D.27312
	movq	-64(%rbp), %rax	# operand3, tmp77
	movq	%rax, %rsi	# tmp77,
	movl	$4, %edi	#,
	call	gen_rtx_MEM	#
	movq	%rax, %r14	#, D.27312
	movq	-56(%rbp), %rax	# operand2, tmp78
	movq	%rax, %rsi	# tmp78,
	movl	$4, %edi	#,
	call	gen_rtx_MEM	#
	movq	%r14, %rcx	# D.27312,
	movq	%rax, %rdx	# D.27312,
	movl	$0, %esi	#,
	movl	$47, %edi	#,
	call	gen_rtx_fmt_ee	#
	movq	%r13, %r8	# D.27312,
	movq	%r12, %rcx	# D.27312,
	movq	%rbx, %rdx	# D.27312,
	movq	%rax, %rsi	# D.27312,
	movl	$4, %edi	#,
	movl	$0, %eax	#,
	call	gen_rtvec	#
	movq	%rax, %rdx	# D.27313,
	movl	$0, %esi	#,
	movl	$39, %edi	#,
	call	gen_rtx_fmt_E	#
	.loc 1 1642 0
	addq	$32, %rsp	#,
	popq	%rbx	#
	popq	%r12	#
	popq	%r13	#
	popq	%r14	#
	popq	%rbp	#
	.cfi_def_cfa 7, 8
	ret
	.cfi_endproc
.LFE108:
	.size	gen_strmovsi_1, .-gen_strmovsi_1
	.globl	gen_strmovsi_rex_1
	.type	gen_strmovsi_rex_1, @function
gen_strmovsi_rex_1:
.LFB109:
	.loc 1 1650 0
	.cfi_startproc
	pushq	%rbp	#
	.cfi_def_cfa_offset 16
	.cfi_offset 6, -16
	movq	%rsp, %rbp	#,
	.cfi_def_cfa_register 6
	pushq	%r14	#
	pushq	%r13	#
	pushq	%r12	#
	pushq	%rbx	#
	subq	$32, %rsp	#,
	.cfi_offset 14, -24
	.cfi_offset 13, -32
	.cfi_offset 12, -40
	.cfi_offset 3, -48
	movq	%rdi, -40(%rbp)	# operand0, operand0
	movq	%rsi, -48(%rbp)	# operand1, operand1
	movq	%rdx, -56(%rbp)	# operand2, operand2
	movq	%rcx, -64(%rbp)	# operand3, operand3
	.loc 1 1651 0
	movl	$19, %esi	#,
	movl	$4, %edi	#,
	call	gen_rtx_REG	#
	movq	%rax, %rdx	# D.27314,
	movl	$0, %esi	#,
	movl	$48, %edi	#,
	call	gen_rtx_fmt_e	#
	movq	%rax, %r13	#, D.27314
	movl	$4, %esi	#,
	movl	$0, %edi	#,
	call	gen_rtx_CONST_INT	#
	movq	%rax, %rdx	#, D.27314
	movq	-64(%rbp), %rax	# operand3, tmp73
	movq	%rdx, %rcx	# D.27314,
	movq	%rax, %rdx	# tmp73,
	movl	$5, %esi	#,
	movl	$75, %edi	#,
	call	gen_rtx_fmt_ee	#
	movq	%rax, %rdx	#, D.27314
	movq	-48(%rbp), %rax	# operand1, tmp74
	movq	%rdx, %rcx	# D.27314,
	movq	%rax, %rdx	# tmp74,
	movl	$0, %esi	#,
	movl	$47, %edi	#,
	call	gen_rtx_fmt_ee	#
	movq	%rax, %r12	#, D.27314
	movl	$4, %esi	#,
	movl	$0, %edi	#,
	call	gen_rtx_CONST_INT	#
	movq	%rax, %rdx	#, D.27314
	movq	-56(%rbp), %rax	# operand2, tmp75
	movq	%rdx, %rcx	# D.27314,
	movq	%rax, %rdx	# tmp75,
	movl	$5, %esi	#,
	movl	$75, %edi	#,
	call	gen_rtx_fmt_ee	#
	movq	%rax, %rdx	#, D.27314
	movq	-40(%rbp), %rax	# operand0, tmp76
	movq	%rdx, %rcx	# D.27314,
	movq	%rax, %rdx	# tmp76,
	movl	$0, %esi	#,
	movl	$47, %edi	#,
	call	gen_rtx_fmt_ee	#
	movq	%rax, %rbx	#, D.27314
	movq	-64(%rbp), %rax	# operand3, tmp77
	movq	%rax, %rsi	# tmp77,
	movl	$4, %edi	#,
	call	gen_rtx_MEM	#
	movq	%rax, %r14	#, D.27314
	movq	-56(%rbp), %rax	# operand2, tmp78
	movq	%rax, %rsi	# tmp78,
	movl	$4, %edi	#,
	call	gen_rtx_MEM	#
	movq	%r14, %rcx	# D.27314,
	movq	%rax, %rdx	# D.27314,
	movl	$0, %esi	#,
	movl	$47, %edi	#,
	call	gen_rtx_fmt_ee	#
	movq	%r13, %r8	# D.27314,
	movq	%r12, %rcx	# D.27314,
	movq	%rbx, %rdx	# D.27314,
	movq	%rax, %rsi	# D.27314,
	movl	$4, %edi	#,
	movl	$0, %eax	#,
	call	gen_rtvec	#
	movq	%rax, %rdx	# D.27315,
	movl	$0, %esi	#,
	movl	$39, %edi	#,
	call	gen_rtx_fmt_E	#
	.loc 1 1670 0
	addq	$32, %rsp	#,
	popq	%rbx	#
	popq	%r12	#
	popq	%r13	#
	popq	%r14	#
	popq	%rbp	#
	.cfi_def_cfa 7, 8
	ret
	.cfi_endproc
.LFE109:
	.size	gen_strmovsi_rex_1, .-gen_strmovsi_rex_1
	.globl	gen_strmovhi_1
	.type	gen_strmovhi_1, @function
gen_strmovhi_1:
.LFB110:
	.loc 1 1678 0
	.cfi_startproc
	pushq	%rbp	#
	.cfi_def_cfa_offset 16
	.cfi_offset 6, -16
	movq	%rsp, %rbp	#,
	.cfi_def_cfa_register 6
	pushq	%r14	#
	pushq	%r13	#
	pushq	%r12	#
	pushq	%rbx	#
	subq	$32, %rsp	#,
	.cfi_offset 14, -24
	.cfi_offset 13, -32
	.cfi_offset 12, -40
	.cfi_offset 3, -48
	movq	%rdi, -40(%rbp)	# operand0, operand0
	movq	%rsi, -48(%rbp)	# operand1, operand1
	movq	%rdx, -56(%rbp)	# operand2, operand2
	movq	%rcx, -64(%rbp)	# operand3, operand3
	.loc 1 1679 0
	movl	$19, %esi	#,
	movl	$4, %edi	#,
	call	gen_rtx_REG	#
	movq	%rax, %rdx	# D.27316,
	movl	$0, %esi	#,
	movl	$48, %edi	#,
	call	gen_rtx_fmt_e	#
	movq	%rax, %r13	#, D.27316
	movl	$2, %esi	#,
	movl	$0, %edi	#,
	call	gen_rtx_CONST_INT	#
	movq	%rax, %rdx	#, D.27316
	movq	-64(%rbp), %rax	# operand3, tmp73
	movq	%rdx, %rcx	# D.27316,
	movq	%rax, %rdx	# tmp73,
	movl	$4, %esi	#,
	movl	$75, %edi	#,
	call	gen_rtx_fmt_ee	#
	movq	%rax, %rdx	#, D.27316
	movq	-48(%rbp), %rax	# operand1, tmp74
	movq	%rdx, %rcx	# D.27316,
	movq	%rax, %rdx	# tmp74,
	movl	$0, %esi	#,
	movl	$47, %edi	#,
	call	gen_rtx_fmt_ee	#
	movq	%rax, %r12	#, D.27316
	movl	$2, %esi	#,
	movl	$0, %edi	#,
	call	gen_rtx_CONST_INT	#
	movq	%rax, %rdx	#, D.27316
	movq	-56(%rbp), %rax	# operand2, tmp75
	movq	%rdx, %rcx	# D.27316,
	movq	%rax, %rdx	# tmp75,
	movl	$4, %esi	#,
	movl	$75, %edi	#,
	call	gen_rtx_fmt_ee	#
	movq	%rax, %rdx	#, D.27316
	movq	-40(%rbp), %rax	# operand0, tmp76
	movq	%rdx, %rcx	# D.27316,
	movq	%rax, %rdx	# tmp76,
	movl	$0, %esi	#,
	movl	$47, %edi	#,
	call	gen_rtx_fmt_ee	#
	movq	%rax, %rbx	#, D.27316
	movq	-64(%rbp), %rax	# operand3, tmp77
	movq	%rax, %rsi	# tmp77,
	movl	$3, %edi	#,
	call	gen_rtx_MEM	#
	movq	%rax, %r14	#, D.27316
	movq	-56(%rbp), %rax	# operand2, tmp78
	movq	%rax, %rsi	# tmp78,
	movl	$3, %edi	#,
	call	gen_rtx_MEM	#
	movq	%r14, %rcx	# D.27316,
	movq	%rax, %rdx	# D.27316,
	movl	$0, %esi	#,
	movl	$47, %edi	#,
	call	gen_rtx_fmt_ee	#
	movq	%r13, %r8	# D.27316,
	movq	%r12, %rcx	# D.27316,
	movq	%rbx, %rdx	# D.27316,
	movq	%rax, %rsi	# D.27316,
	movl	$4, %edi	#,
	movl	$0, %eax	#,
	call	gen_rtvec	#
	movq	%rax, %rdx	# D.27317,
	movl	$0, %esi	#,
	movl	$39, %edi	#,
	call	gen_rtx_fmt_E	#
	.loc 1 1698 0
	addq	$32, %rsp	#,
	popq	%rbx	#
	popq	%r12	#
	popq	%r13	#
	popq	%r14	#
	popq	%rbp	#
	.cfi_def_cfa 7, 8
	ret
	.cfi_endproc
.LFE110:
	.size	gen_strmovhi_1, .-gen_strmovhi_1
	.globl	gen_strmovhi_rex_1
	.type	gen_strmovhi_rex_1, @function
gen_strmovhi_rex_1:
.LFB111:
	.loc 1 1706 0
	.cfi_startproc
	pushq	%rbp	#
	.cfi_def_cfa_offset 16
	.cfi_offset 6, -16
	movq	%rsp, %rbp	#,
	.cfi_def_cfa_register 6
	pushq	%r14	#
	pushq	%r13	#
	pushq	%r12	#
	pushq	%rbx	#
	subq	$32, %rsp	#,
	.cfi_offset 14, -24
	.cfi_offset 13, -32
	.cfi_offset 12, -40
	.cfi_offset 3, -48
	movq	%rdi, -40(%rbp)	# operand0, operand0
	movq	%rsi, -48(%rbp)	# operand1, operand1
	movq	%rdx, -56(%rbp)	# operand2, operand2
	movq	%rcx, -64(%rbp)	# operand3, operand3
	.loc 1 1707 0
	movl	$19, %esi	#,
	movl	$4, %edi	#,
	call	gen_rtx_REG	#
	movq	%rax, %rdx	# D.27318,
	movl	$0, %esi	#,
	movl	$48, %edi	#,
	call	gen_rtx_fmt_e	#
	movq	%rax, %r13	#, D.27318
	movl	$2, %esi	#,
	movl	$0, %edi	#,
	call	gen_rtx_CONST_INT	#
	movq	%rax, %rdx	#, D.27318
	movq	-64(%rbp), %rax	# operand3, tmp73
	movq	%rdx, %rcx	# D.27318,
	movq	%rax, %rdx	# tmp73,
	movl	$5, %esi	#,
	movl	$75, %edi	#,
	call	gen_rtx_fmt_ee	#
	movq	%rax, %rdx	#, D.27318
	movq	-48(%rbp), %rax	# operand1, tmp74
	movq	%rdx, %rcx	# D.27318,
	movq	%rax, %rdx	# tmp74,
	movl	$0, %esi	#,
	movl	$47, %edi	#,
	call	gen_rtx_fmt_ee	#
	movq	%rax, %r12	#, D.27318
	movl	$2, %esi	#,
	movl	$0, %edi	#,
	call	gen_rtx_CONST_INT	#
	movq	%rax, %rdx	#, D.27318
	movq	-56(%rbp), %rax	# operand2, tmp75
	movq	%rdx, %rcx	# D.27318,
	movq	%rax, %rdx	# tmp75,
	movl	$5, %esi	#,
	movl	$75, %edi	#,
	call	gen_rtx_fmt_ee	#
	movq	%rax, %rdx	#, D.27318
	movq	-40(%rbp), %rax	# operand0, tmp76
	movq	%rdx, %rcx	# D.27318,
	movq	%rax, %rdx	# tmp76,
	movl	$0, %esi	#,
	movl	$47, %edi	#,
	call	gen_rtx_fmt_ee	#
	movq	%rax, %rbx	#, D.27318
	movq	-64(%rbp), %rax	# operand3, tmp77
	movq	%rax, %rsi	# tmp77,
	movl	$3, %edi	#,
	call	gen_rtx_MEM	#
	movq	%rax, %r14	#, D.27318
	movq	-56(%rbp), %rax	# operand2, tmp78
	movq	%rax, %rsi	# tmp78,
	movl	$3, %edi	#,
	call	gen_rtx_MEM	#
	movq	%r14, %rcx	# D.27318,
	movq	%rax, %rdx	# D.27318,
	movl	$0, %esi	#,
	movl	$47, %edi	#,
	call	gen_rtx_fmt_ee	#
	movq	%r13, %r8	# D.27318,
	movq	%r12, %rcx	# D.27318,
	movq	%rbx, %rdx	# D.27318,
	movq	%rax, %rsi	# D.27318,
	movl	$4, %edi	#,
	movl	$0, %eax	#,
	call	gen_rtvec	#
	movq	%rax, %rdx	# D.27319,
	movl	$0, %esi	#,
	movl	$39, %edi	#,
	call	gen_rtx_fmt_E	#
	.loc 1 1726 0
	addq	$32, %rsp	#,
	popq	%rbx	#
	popq	%r12	#
	popq	%r13	#
	popq	%r14	#
	popq	%rbp	#
	.cfi_def_cfa 7, 8
	ret
	.cfi_endproc
.LFE111:
	.size	gen_strmovhi_rex_1, .-gen_strmovhi_rex_1
	.globl	gen_strmovqi_1
	.type	gen_strmovqi_1, @function
gen_strmovqi_1:
.LFB112:
	.loc 1 1734 0
	.cfi_startproc
	pushq	%rbp	#
	.cfi_def_cfa_offset 16
	.cfi_offset 6, -16
	movq	%rsp, %rbp	#,
	.cfi_def_cfa_register 6
	pushq	%r14	#
	pushq	%r13	#
	pushq	%r12	#
	pushq	%rbx	#
	subq	$32, %rsp	#,
	.cfi_offset 14, -24
	.cfi_offset 13, -32
	.cfi_offset 12, -40
	.cfi_offset 3, -48
	movq	%rdi, -40(%rbp)	# operand0, operand0
	movq	%rsi, -48(%rbp)	# operand1, operand1
	movq	%rdx, -56(%rbp)	# operand2, operand2
	movq	%rcx, -64(%rbp)	# operand3, operand3
	.loc 1 1735 0
	movl	$19, %esi	#,
	movl	$4, %edi	#,
	call	gen_rtx_REG	#
	movq	%rax, %rdx	# D.27320,
	movl	$0, %esi	#,
	movl	$48, %edi	#,
	call	gen_rtx_fmt_e	#
	movq	%rax, %r13	#, D.27320
	movq	const_int_rtx+520(%rip), %rdx	# const_int_rtx, D.27320
	movq	-64(%rbp), %rax	# operand3, tmp73
	movq	%rdx, %rcx	# D.27320,
	movq	%rax, %rdx	# tmp73,
	movl	$4, %esi	#,
	movl	$75, %edi	#,
	call	gen_rtx_fmt_ee	#
	movq	%rax, %rdx	#, D.27320
	movq	-48(%rbp), %rax	# operand1, tmp74
	movq	%rdx, %rcx	# D.27320,
	movq	%rax, %rdx	# tmp74,
	movl	$0, %esi	#,
	movl	$47, %edi	#,
	call	gen_rtx_fmt_ee	#
	movq	%rax, %r12	#, D.27320
	movq	const_int_rtx+520(%rip), %rdx	# const_int_rtx, D.27320
	movq	-56(%rbp), %rax	# operand2, tmp75
	movq	%rdx, %rcx	# D.27320,
	movq	%rax, %rdx	# tmp75,
	movl	$4, %esi	#,
	movl	$75, %edi	#,
	call	gen_rtx_fmt_ee	#
	movq	%rax, %rdx	#, D.27320
	movq	-40(%rbp), %rax	# operand0, tmp76
	movq	%rdx, %rcx	# D.27320,
	movq	%rax, %rdx	# tmp76,
	movl	$0, %esi	#,
	movl	$47, %edi	#,
	call	gen_rtx_fmt_ee	#
	movq	%rax, %rbx	#, D.27320
	movq	-64(%rbp), %rax	# operand3, tmp77
	movq	%rax, %rsi	# tmp77,
	movl	$2, %edi	#,
	call	gen_rtx_MEM	#
	movq	%rax, %r14	#, D.27320
	movq	-56(%rbp), %rax	# operand2, tmp78
	movq	%rax, %rsi	# tmp78,
	movl	$2, %edi	#,
	call	gen_rtx_MEM	#
	movq	%r14, %rcx	# D.27320,
	movq	%rax, %rdx	# D.27320,
	movl	$0, %esi	#,
	movl	$47, %edi	#,
	call	gen_rtx_fmt_ee	#
	movq	%r13, %r8	# D.27320,
	movq	%r12, %rcx	# D.27320,
	movq	%rbx, %rdx	# D.27320,
	movq	%rax, %rsi	# D.27320,
	movl	$4, %edi	#,
	movl	$0, %eax	#,
	call	gen_rtvec	#
	movq	%rax, %rdx	# D.27321,
	movl	$0, %esi	#,
	movl	$39, %edi	#,
	call	gen_rtx_fmt_E	#
	.loc 1 1754 0
	addq	$32, %rsp	#,
	popq	%rbx	#
	popq	%r12	#
	popq	%r13	#
	popq	%r14	#
	popq	%rbp	#
	.cfi_def_cfa 7, 8
	ret
	.cfi_endproc
.LFE112:
	.size	gen_strmovqi_1, .-gen_strmovqi_1
	.globl	gen_strmovqi_rex_1
	.type	gen_strmovqi_rex_1, @function
gen_strmovqi_rex_1:
.LFB113:
	.loc 1 1762 0
	.cfi_startproc
	pushq	%rbp	#
	.cfi_def_cfa_offset 16
	.cfi_offset 6, -16
	movq	%rsp, %rbp	#,
	.cfi_def_cfa_register 6
	pushq	%r14	#
	pushq	%r13	#
	pushq	%r12	#
	pushq	%rbx	#
	subq	$32, %rsp	#,
	.cfi_offset 14, -24
	.cfi_offset 13, -32
	.cfi_offset 12, -40
	.cfi_offset 3, -48
	movq	%rdi, -40(%rbp)	# operand0, operand0
	movq	%rsi, -48(%rbp)	# operand1, operand1
	movq	%rdx, -56(%rbp)	# operand2, operand2
	movq	%rcx, -64(%rbp)	# operand3, operand3
	.loc 1 1763 0
	movl	$19, %esi	#,
	movl	$4, %edi	#,
	call	gen_rtx_REG	#
	movq	%rax, %rdx	# D.27322,
	movl	$0, %esi	#,
	movl	$48, %edi	#,
	call	gen_rtx_fmt_e	#
	movq	%rax, %r13	#, D.27322
	movq	const_int_rtx+520(%rip), %rdx	# const_int_rtx, D.27322
	movq	-64(%rbp), %rax	# operand3, tmp73
	movq	%rdx, %rcx	# D.27322,
	movq	%rax, %rdx	# tmp73,
	movl	$5, %esi	#,
	movl	$75, %edi	#,
	call	gen_rtx_fmt_ee	#
	movq	%rax, %rdx	#, D.27322
	movq	-48(%rbp), %rax	# operand1, tmp74
	movq	%rdx, %rcx	# D.27322,
	movq	%rax, %rdx	# tmp74,
	movl	$0, %esi	#,
	movl	$47, %edi	#,
	call	gen_rtx_fmt_ee	#
	movq	%rax, %r12	#, D.27322
	movq	const_int_rtx+520(%rip), %rdx	# const_int_rtx, D.27322
	movq	-56(%rbp), %rax	# operand2, tmp75
	movq	%rdx, %rcx	# D.27322,
	movq	%rax, %rdx	# tmp75,
	movl	$5, %esi	#,
	movl	$75, %edi	#,
	call	gen_rtx_fmt_ee	#
	movq	%rax, %rdx	#, D.27322
	movq	-40(%rbp), %rax	# operand0, tmp76
	movq	%rdx, %rcx	# D.27322,
	movq	%rax, %rdx	# tmp76,
	movl	$0, %esi	#,
	movl	$47, %edi	#,
	call	gen_rtx_fmt_ee	#
	movq	%rax, %rbx	#, D.27322
	movq	-64(%rbp), %rax	# operand3, tmp77
	movq	%rax, %rsi	# tmp77,
	movl	$2, %edi	#,
	call	gen_rtx_MEM	#
	movq	%rax, %r14	#, D.27322
	movq	-56(%rbp), %rax	# operand2, tmp78
	movq	%rax, %rsi	# tmp78,
	movl	$2, %edi	#,
	call	gen_rtx_MEM	#
	movq	%r14, %rcx	# D.27322,
	movq	%rax, %rdx	# D.27322,
	movl	$0, %esi	#,
	movl	$47, %edi	#,
	call	gen_rtx_fmt_ee	#
	movq	%r13, %r8	# D.27322,
	movq	%r12, %rcx	# D.27322,
	movq	%rbx, %rdx	# D.27322,
	movq	%rax, %rsi	# D.27322,
	movl	$4, %edi	#,
	movl	$0, %eax	#,
	call	gen_rtvec	#
	movq	%rax, %rdx	# D.27323,
	movl	$0, %esi	#,
	movl	$39, %edi	#,
	call	gen_rtx_fmt_E	#
	.loc 1 1782 0
	addq	$32, %rsp	#,
	popq	%rbx	#
	popq	%r12	#
	popq	%r13	#
	popq	%r14	#
	popq	%rbp	#
	.cfi_def_cfa 7, 8
	ret
	.cfi_endproc
.LFE113:
	.size	gen_strmovqi_rex_1, .-gen_strmovqi_rex_1
	.globl	gen_rep_movdi_rex64
	.type	gen_rep_movdi_rex64, @function
gen_rep_movdi_rex64:
.LFB114:
	.loc 1 1792 0
	.cfi_startproc
	pushq	%rbp	#
	.cfi_def_cfa_offset 16
	.cfi_offset 6, -16
	movq	%rsp, %rbp	#,
	.cfi_def_cfa_register 6
	pushq	%r15	#
	pushq	%r14	#
	pushq	%r13	#
	pushq	%r12	#
	pushq	%rbx	#
	subq	$72, %rsp	#,
	.cfi_offset 15, -24
	.cfi_offset 14, -32
	.cfi_offset 13, -40
	.cfi_offset 12, -48
	.cfi_offset 3, -56
	movq	%rdi, -56(%rbp)	# operand0, operand0
	movq	%rsi, -64(%rbp)	# operand1, operand1
	movq	%rdx, -72(%rbp)	# operand2, operand2
	movq	%rcx, -80(%rbp)	# operand3, operand3
	movq	%r8, -88(%rbp)	# operand4, operand4
	movq	%r9, -96(%rbp)	# operand5, operand5
	.loc 1 1793 0
	movl	$19, %esi	#,
	movl	$4, %edi	#,
	call	gen_rtx_REG	#
	movq	%rax, %rdx	# D.27324,
	movl	$0, %esi	#,
	movl	$48, %edi	#,
	call	gen_rtx_fmt_e	#
	movq	%rax, %rbx	#, D.27324
	movq	-96(%rbp), %rax	# operand5, tmp78
	movq	%rax, %rdx	# tmp78,
	movl	$0, %esi	#,
	movl	$48, %edi	#,
	call	gen_rtx_fmt_e	#
	movq	%rax, %r15	#, D.27324
	movq	-88(%rbp), %rax	# operand4, tmp79
	movq	%rax, %rsi	# tmp79,
	movl	$51, %edi	#,
	call	gen_rtx_MEM	#
	movq	%rax, %r12	#, D.27324
	movq	-80(%rbp), %rax	# operand3, tmp80
	movq	%rax, %rsi	# tmp80,
	movl	$51, %edi	#,
	call	gen_rtx_MEM	#
	movq	%r12, %rcx	# D.27324,
	movq	%rax, %rdx	# D.27324,
	movl	$0, %esi	#,
	movl	$47, %edi	#,
	call	gen_rtx_fmt_ee	#
	movq	%rax, %r14	#, D.27324
	movl	$3, %esi	#,
	movl	$0, %edi	#,
	call	gen_rtx_CONST_INT	#
	movq	%rax, %rdx	#, D.27324
	movq	-96(%rbp), %rax	# operand5, tmp81
	movq	%rdx, %rcx	# D.27324,
	movq	%rax, %rdx	# tmp81,
	movl	$5, %esi	#,
	movl	$87, %edi	#,
	call	gen_rtx_fmt_ee	#
	movq	-88(%rbp), %rdx	# operand4, tmp82
	movq	%rdx, %rcx	# tmp82,
	movq	%rax, %rdx	# D.27324,
	movl	$5, %esi	#,
	movl	$75, %edi	#,
	call	gen_rtx_fmt_ee	#
	movq	%rax, %rdx	#, D.27324
	movq	-64(%rbp), %rax	# operand1, tmp83
	movq	%rdx, %rcx	# D.27324,
	movq	%rax, %rdx	# tmp83,
	movl	$0, %esi	#,
	movl	$47, %edi	#,
	call	gen_rtx_fmt_ee	#
	movq	%rax, %r13	#, D.27324
	movl	$3, %esi	#,
	movl	$0, %edi	#,
	call	gen_rtx_CONST_INT	#
	movq	%rax, %rdx	#, D.27324
	movq	-96(%rbp), %rax	# operand5, tmp84
	movq	%rdx, %rcx	# D.27324,
	movq	%rax, %rdx	# tmp84,
	movl	$5, %esi	#,
	movl	$87, %edi	#,
	call	gen_rtx_fmt_ee	#
	movq	-80(%rbp), %rdx	# operand3, tmp85
	movq	%rdx, %rcx	# tmp85,
	movq	%rax, %rdx	# D.27324,
	movl	$5, %esi	#,
	movl	$75, %edi	#,
	call	gen_rtx_fmt_ee	#
	movq	%rax, %rdx	#, D.27324
	movq	-56(%rbp), %rax	# operand0, tmp86
	movq	%rdx, %rcx	# D.27324,
	movq	%rax, %rdx	# tmp86,
	movl	$0, %esi	#,
	movl	$47, %edi	#,
	call	gen_rtx_fmt_ee	#
	movq	%rax, %r12	#, D.27324
	movq	const_int_rtx+512(%rip), %rdx	# const_int_rtx, D.27324
	movq	-72(%rbp), %rax	# operand2, tmp87
	movq	%rdx, %rcx	# D.27324,
	movq	%rax, %rdx	# tmp87,
	movl	$0, %esi	#,
	movl	$47, %edi	#,
	call	gen_rtx_fmt_ee	#
	movq	%rbx, (%rsp)	# D.27324,
	movq	%r15, %r9	# D.27324,
	movq	%r14, %r8	# D.27324,
	movq	%r13, %rcx	# D.27324,
	movq	%r12, %rdx	# D.27324,
	movq	%rax, %rsi	# D.27324,
	movl	$6, %edi	#,
	movl	$0, %eax	#,
	call	gen_rtvec	#
	movq	%rax, %rdx	# D.27325,
	movl	$0, %esi	#,
	movl	$39, %edi	#,
	call	gen_rtx_fmt_E	#
	.loc 1 1821 0
	addq	$72, %rsp	#,
	popq	%rbx	#
	popq	%r12	#
	popq	%r13	#
	popq	%r14	#
	popq	%r15	#
	popq	%rbp	#
	.cfi_def_cfa 7, 8
	ret
	.cfi_endproc
.LFE114:
	.size	gen_rep_movdi_rex64, .-gen_rep_movdi_rex64
	.globl	gen_rep_movsi
	.type	gen_rep_movsi, @function
gen_rep_movsi:
.LFB115:
	.loc 1 1831 0
	.cfi_startproc
	pushq	%rbp	#
	.cfi_def_cfa_offset 16
	.cfi_offset 6, -16
	movq	%rsp, %rbp	#,
	.cfi_def_cfa_register 6
	pushq	%r15	#
	pushq	%r14	#
	pushq	%r13	#
	pushq	%r12	#
	pushq	%rbx	#
	subq	$72, %rsp	#,
	.cfi_offset 15, -24
	.cfi_offset 14, -32
	.cfi_offset 13, -40
	.cfi_offset 12, -48
	.cfi_offset 3, -56
	movq	%rdi, -56(%rbp)	# operand0, operand0
	movq	%rsi, -64(%rbp)	# operand1, operand1
	movq	%rdx, -72(%rbp)	# operand2, operand2
	movq	%rcx, -80(%rbp)	# operand3, operand3
	movq	%r8, -88(%rbp)	# operand4, operand4
	movq	%r9, -96(%rbp)	# operand5, operand5
	.loc 1 1832 0
	movl	$19, %esi	#,
	movl	$4, %edi	#,
	call	gen_rtx_REG	#
	movq	%rax, %rdx	# D.27326,
	movl	$0, %esi	#,
	movl	$48, %edi	#,
	call	gen_rtx_fmt_e	#
	movq	%rax, %rbx	#, D.27326
	movq	-96(%rbp), %rax	# operand5, tmp78
	movq	%rax, %rdx	# tmp78,
	movl	$0, %esi	#,
	movl	$48, %edi	#,
	call	gen_rtx_fmt_e	#
	movq	%rax, %r15	#, D.27326
	movq	-88(%rbp), %rax	# operand4, tmp79
	movq	%rax, %rsi	# tmp79,
	movl	$51, %edi	#,
	call	gen_rtx_MEM	#
	movq	%rax, %r12	#, D.27326
	movq	-80(%rbp), %rax	# operand3, tmp80
	movq	%rax, %rsi	# tmp80,
	movl	$51, %edi	#,
	call	gen_rtx_MEM	#
	movq	%r12, %rcx	# D.27326,
	movq	%rax, %rdx	# D.27326,
	movl	$0, %esi	#,
	movl	$47, %edi	#,
	call	gen_rtx_fmt_ee	#
	movq	%rax, %r14	#, D.27326
	movl	$2, %esi	#,
	movl	$0, %edi	#,
	call	gen_rtx_CONST_INT	#
	movq	%rax, %rdx	#, D.27326
	movq	-96(%rbp), %rax	# operand5, tmp81
	movq	%rdx, %rcx	# D.27326,
	movq	%rax, %rdx	# tmp81,
	movl	$4, %esi	#,
	movl	$87, %edi	#,
	call	gen_rtx_fmt_ee	#
	movq	-88(%rbp), %rdx	# operand4, tmp82
	movq	%rdx, %rcx	# tmp82,
	movq	%rax, %rdx	# D.27326,
	movl	$4, %esi	#,
	movl	$75, %edi	#,
	call	gen_rtx_fmt_ee	#
	movq	%rax, %rdx	#, D.27326
	movq	-64(%rbp), %rax	# operand1, tmp83
	movq	%rdx, %rcx	# D.27326,
	movq	%rax, %rdx	# tmp83,
	movl	$0, %esi	#,
	movl	$47, %edi	#,
	call	gen_rtx_fmt_ee	#
	movq	%rax, %r13	#, D.27326
	movl	$2, %esi	#,
	movl	$0, %edi	#,
	call	gen_rtx_CONST_INT	#
	movq	%rax, %rdx	#, D.27326
	movq	-96(%rbp), %rax	# operand5, tmp84
	movq	%rdx, %rcx	# D.27326,
	movq	%rax, %rdx	# tmp84,
	movl	$4, %esi	#,
	movl	$87, %edi	#,
	call	gen_rtx_fmt_ee	#
	movq	-80(%rbp), %rdx	# operand3, tmp85
	movq	%rdx, %rcx	# tmp85,
	movq	%rax, %rdx	# D.27326,
	movl	$4, %esi	#,
	movl	$75, %edi	#,
	call	gen_rtx_fmt_ee	#
	movq	%rax, %rdx	#, D.27326
	movq	-56(%rbp), %rax	# operand0, tmp86
	movq	%rdx, %rcx	# D.27326,
	movq	%rax, %rdx	# tmp86,
	movl	$0, %esi	#,
	movl	$47, %edi	#,
	call	gen_rtx_fmt_ee	#
	movq	%rax, %r12	#, D.27326
	movq	const_int_rtx+512(%rip), %rdx	# const_int_rtx, D.27326
	movq	-72(%rbp), %rax	# operand2, tmp87
	movq	%rdx, %rcx	# D.27326,
	movq	%rax, %rdx	# tmp87,
	movl	$0, %esi	#,
	movl	$47, %edi	#,
	call	gen_rtx_fmt_ee	#
	movq	%rbx, (%rsp)	# D.27326,
	movq	%r15, %r9	# D.27326,
	movq	%r14, %r8	# D.27326,
	movq	%r13, %rcx	# D.27326,
	movq	%r12, %rdx	# D.27326,
	movq	%rax, %rsi	# D.27326,
	movl	$6, %edi	#,
	movl	$0, %eax	#,
	call	gen_rtvec	#
	movq	%rax, %rdx	# D.27327,
	movl	$0, %esi	#,
	movl	$39, %edi	#,
	call	gen_rtx_fmt_E	#
	.loc 1 1860 0
	addq	$72, %rsp	#,
	popq	%rbx	#
	popq	%r12	#
	popq	%r13	#
	popq	%r14	#
	popq	%r15	#
	popq	%rbp	#
	.cfi_def_cfa 7, 8
	ret
	.cfi_endproc
.LFE115:
	.size	gen_rep_movsi, .-gen_rep_movsi
	.globl	gen_rep_movsi_rex64
	.type	gen_rep_movsi_rex64, @function
gen_rep_movsi_rex64:
.LFB116:
	.loc 1 1870 0
	.cfi_startproc
	pushq	%rbp	#
	.cfi_def_cfa_offset 16
	.cfi_offset 6, -16
	movq	%rsp, %rbp	#,
	.cfi_def_cfa_register 6
	pushq	%r15	#
	pushq	%r14	#
	pushq	%r13	#
	pushq	%r12	#
	pushq	%rbx	#
	subq	$72, %rsp	#,
	.cfi_offset 15, -24
	.cfi_offset 14, -32
	.cfi_offset 13, -40
	.cfi_offset 12, -48
	.cfi_offset 3, -56
	movq	%rdi, -56(%rbp)	# operand0, operand0
	movq	%rsi, -64(%rbp)	# operand1, operand1
	movq	%rdx, -72(%rbp)	# operand2, operand2
	movq	%rcx, -80(%rbp)	# operand3, operand3
	movq	%r8, -88(%rbp)	# operand4, operand4
	movq	%r9, -96(%rbp)	# operand5, operand5
	.loc 1 1871 0
	movl	$19, %esi	#,
	movl	$4, %edi	#,
	call	gen_rtx_REG	#
	movq	%rax, %rdx	# D.27328,
	movl	$0, %esi	#,
	movl	$48, %edi	#,
	call	gen_rtx_fmt_e	#
	movq	%rax, %rbx	#, D.27328
	movq	-96(%rbp), %rax	# operand5, tmp78
	movq	%rax, %rdx	# tmp78,
	movl	$0, %esi	#,
	movl	$48, %edi	#,
	call	gen_rtx_fmt_e	#
	movq	%rax, %r15	#, D.27328
	movq	-88(%rbp), %rax	# operand4, tmp79
	movq	%rax, %rsi	# tmp79,
	movl	$51, %edi	#,
	call	gen_rtx_MEM	#
	movq	%rax, %r12	#, D.27328
	movq	-80(%rbp), %rax	# operand3, tmp80
	movq	%rax, %rsi	# tmp80,
	movl	$51, %edi	#,
	call	gen_rtx_MEM	#
	movq	%r12, %rcx	# D.27328,
	movq	%rax, %rdx	# D.27328,
	movl	$0, %esi	#,
	movl	$47, %edi	#,
	call	gen_rtx_fmt_ee	#
	movq	%rax, %r14	#, D.27328
	movl	$2, %esi	#,
	movl	$0, %edi	#,
	call	gen_rtx_CONST_INT	#
	movq	%rax, %rdx	#, D.27328
	movq	-96(%rbp), %rax	# operand5, tmp81
	movq	%rdx, %rcx	# D.27328,
	movq	%rax, %rdx	# tmp81,
	movl	$5, %esi	#,
	movl	$87, %edi	#,
	call	gen_rtx_fmt_ee	#
	movq	-88(%rbp), %rdx	# operand4, tmp82
	movq	%rdx, %rcx	# tmp82,
	movq	%rax, %rdx	# D.27328,
	movl	$5, %esi	#,
	movl	$75, %edi	#,
	call	gen_rtx_fmt_ee	#
	movq	%rax, %rdx	#, D.27328
	movq	-64(%rbp), %rax	# operand1, tmp83
	movq	%rdx, %rcx	# D.27328,
	movq	%rax, %rdx	# tmp83,
	movl	$0, %esi	#,
	movl	$47, %edi	#,
	call	gen_rtx_fmt_ee	#
	movq	%rax, %r13	#, D.27328
	movl	$2, %esi	#,
	movl	$0, %edi	#,
	call	gen_rtx_CONST_INT	#
	movq	%rax, %rdx	#, D.27328
	movq	-96(%rbp), %rax	# operand5, tmp84
	movq	%rdx, %rcx	# D.27328,
	movq	%rax, %rdx	# tmp84,
	movl	$5, %esi	#,
	movl	$87, %edi	#,
	call	gen_rtx_fmt_ee	#
	movq	-80(%rbp), %rdx	# operand3, tmp85
	movq	%rdx, %rcx	# tmp85,
	movq	%rax, %rdx	# D.27328,
	movl	$5, %esi	#,
	movl	$75, %edi	#,
	call	gen_rtx_fmt_ee	#
	movq	%rax, %rdx	#, D.27328
	movq	-56(%rbp), %rax	# operand0, tmp86
	movq	%rdx, %rcx	# D.27328,
	movq	%rax, %rdx	# tmp86,
	movl	$0, %esi	#,
	movl	$47, %edi	#,
	call	gen_rtx_fmt_ee	#
	movq	%rax, %r12	#, D.27328
	movq	const_int_rtx+512(%rip), %rdx	# const_int_rtx, D.27328
	movq	-72(%rbp), %rax	# operand2, tmp87
	movq	%rdx, %rcx	# D.27328,
	movq	%rax, %rdx	# tmp87,
	movl	$0, %esi	#,
	movl	$47, %edi	#,
	call	gen_rtx_fmt_ee	#
	movq	%rbx, (%rsp)	# D.27328,
	movq	%r15, %r9	# D.27328,
	movq	%r14, %r8	# D.27328,
	movq	%r13, %rcx	# D.27328,
	movq	%r12, %rdx	# D.27328,
	movq	%rax, %rsi	# D.27328,
	movl	$6, %edi	#,
	movl	$0, %eax	#,
	call	gen_rtvec	#
	movq	%rax, %rdx	# D.27329,
	movl	$0, %esi	#,
	movl	$39, %edi	#,
	call	gen_rtx_fmt_E	#
	.loc 1 1899 0
	addq	$72, %rsp	#,
	popq	%rbx	#
	popq	%r12	#
	popq	%r13	#
	popq	%r14	#
	popq	%r15	#
	popq	%rbp	#
	.cfi_def_cfa 7, 8
	ret
	.cfi_endproc
.LFE116:
	.size	gen_rep_movsi_rex64, .-gen_rep_movsi_rex64
	.globl	gen_rep_movqi
	.type	gen_rep_movqi, @function
gen_rep_movqi:
.LFB117:
	.loc 1 1909 0
	.cfi_startproc
	pushq	%rbp	#
	.cfi_def_cfa_offset 16
	.cfi_offset 6, -16
	movq	%rsp, %rbp	#,
	.cfi_def_cfa_register 6
	pushq	%r15	#
	pushq	%r14	#
	pushq	%r13	#
	pushq	%r12	#
	pushq	%rbx	#
	subq	$72, %rsp	#,
	.cfi_offset 15, -24
	.cfi_offset 14, -32
	.cfi_offset 13, -40
	.cfi_offset 12, -48
	.cfi_offset 3, -56
	movq	%rdi, -56(%rbp)	# operand0, operand0
	movq	%rsi, -64(%rbp)	# operand1, operand1
	movq	%rdx, -72(%rbp)	# operand2, operand2
	movq	%rcx, -80(%rbp)	# operand3, operand3
	movq	%r8, -88(%rbp)	# operand4, operand4
	movq	%r9, -96(%rbp)	# operand5, operand5
	.loc 1 1910 0
	movl	$19, %esi	#,
	movl	$4, %edi	#,
	call	gen_rtx_REG	#
	movq	%rax, %rdx	# D.27330,
	movl	$0, %esi	#,
	movl	$48, %edi	#,
	call	gen_rtx_fmt_e	#
	movq	%rax, %rbx	#, D.27330
	movq	-96(%rbp), %rax	# operand5, tmp74
	movq	%rax, %rdx	# tmp74,
	movl	$0, %esi	#,
	movl	$48, %edi	#,
	call	gen_rtx_fmt_e	#
	movq	%rax, %r15	#, D.27330
	movq	-88(%rbp), %rax	# operand4, tmp75
	movq	%rax, %rsi	# tmp75,
	movl	$51, %edi	#,
	call	gen_rtx_MEM	#
	movq	%rax, %r12	#, D.27330
	movq	-80(%rbp), %rax	# operand3, tmp76
	movq	%rax, %rsi	# tmp76,
	movl	$51, %edi	#,
	call	gen_rtx_MEM	#
	movq	%r12, %rcx	# D.27330,
	movq	%rax, %rdx	# D.27330,
	movl	$0, %esi	#,
	movl	$47, %edi	#,
	call	gen_rtx_fmt_ee	#
	movq	%rax, %r14	#, D.27330
	movq	-96(%rbp), %rdx	# operand5, tmp77
	movq	-88(%rbp), %rax	# operand4, tmp78
	movq	%rdx, %rcx	# tmp77,
	movq	%rax, %rdx	# tmp78,
	movl	$4, %esi	#,
	movl	$75, %edi	#,
	call	gen_rtx_fmt_ee	#
	movq	%rax, %rdx	#, D.27330
	movq	-64(%rbp), %rax	# operand1, tmp79
	movq	%rdx, %rcx	# D.27330,
	movq	%rax, %rdx	# tmp79,
	movl	$0, %esi	#,
	movl	$47, %edi	#,
	call	gen_rtx_fmt_ee	#
	movq	%rax, %r13	#, D.27330
	movq	-96(%rbp), %rdx	# operand5, tmp80
	movq	-80(%rbp), %rax	# operand3, tmp81
	movq	%rdx, %rcx	# tmp80,
	movq	%rax, %rdx	# tmp81,
	movl	$4, %esi	#,
	movl	$75, %edi	#,
	call	gen_rtx_fmt_ee	#
	movq	%rax, %rdx	#, D.27330
	movq	-56(%rbp), %rax	# operand0, tmp82
	movq	%rdx, %rcx	# D.27330,
	movq	%rax, %rdx	# tmp82,
	movl	$0, %esi	#,
	movl	$47, %edi	#,
	call	gen_rtx_fmt_ee	#
	movq	%rax, %r12	#, D.27330
	movq	const_int_rtx+512(%rip), %rdx	# const_int_rtx, D.27330
	movq	-72(%rbp), %rax	# operand2, tmp83
	movq	%rdx, %rcx	# D.27330,
	movq	%rax, %rdx	# tmp83,
	movl	$0, %esi	#,
	movl	$47, %edi	#,
	call	gen_rtx_fmt_ee	#
	movq	%rbx, (%rsp)	# D.27330,
	movq	%r15, %r9	# D.27330,
	movq	%r14, %r8	# D.27330,
	movq	%r13, %rcx	# D.27330,
	movq	%r12, %rdx	# D.27330,
	movq	%rax, %rsi	# D.27330,
	movl	$6, %edi	#,
	movl	$0, %eax	#,
	call	gen_rtvec	#
	movq	%rax, %rdx	# D.27331,
	movl	$0, %esi	#,
	movl	$39, %edi	#,
	call	gen_rtx_fmt_E	#
	.loc 1 1934 0
	addq	$72, %rsp	#,
	popq	%rbx	#
	popq	%r12	#
	popq	%r13	#
	popq	%r14	#
	popq	%r15	#
	popq	%rbp	#
	.cfi_def_cfa 7, 8
	ret
	.cfi_endproc
.LFE117:
	.size	gen_rep_movqi, .-gen_rep_movqi
	.globl	gen_rep_movqi_rex64
	.type	gen_rep_movqi_rex64, @function
gen_rep_movqi_rex64:
.LFB118:
	.loc 1 1944 0
	.cfi_startproc
	pushq	%rbp	#
	.cfi_def_cfa_offset 16
	.cfi_offset 6, -16
	movq	%rsp, %rbp	#,
	.cfi_def_cfa_register 6
	pushq	%r15	#
	pushq	%r14	#
	pushq	%r13	#
	pushq	%r12	#
	pushq	%rbx	#
	subq	$72, %rsp	#,
	.cfi_offset 15, -24
	.cfi_offset 14, -32
	.cfi_offset 13, -40
	.cfi_offset 12, -48
	.cfi_offset 3, -56
	movq	%rdi, -56(%rbp)	# operand0, operand0
	movq	%rsi, -64(%rbp)	# operand1, operand1
	movq	%rdx, -72(%rbp)	# operand2, operand2
	movq	%rcx, -80(%rbp)	# operand3, operand3
	movq	%r8, -88(%rbp)	# operand4, operand4
	movq	%r9, -96(%rbp)	# operand5, operand5
	.loc 1 1945 0
	movl	$19, %esi	#,
	movl	$4, %edi	#,
	call	gen_rtx_REG	#
	movq	%rax, %rdx	# D.27332,
	movl	$0, %esi	#,
	movl	$48, %edi	#,
	call	gen_rtx_fmt_e	#
	movq	%rax, %rbx	#, D.27332
	movq	-96(%rbp), %rax	# operand5, tmp74
	movq	%rax, %rdx	# tmp74,
	movl	$0, %esi	#,
	movl	$48, %edi	#,
	call	gen_rtx_fmt_e	#
	movq	%rax, %r15	#, D.27332
	movq	-88(%rbp), %rax	# operand4, tmp75
	movq	%rax, %rsi	# tmp75,
	movl	$51, %edi	#,
	call	gen_rtx_MEM	#
	movq	%rax, %r12	#, D.27332
	movq	-80(%rbp), %rax	# operand3, tmp76
	movq	%rax, %rsi	# tmp76,
	movl	$51, %edi	#,
	call	gen_rtx_MEM	#
	movq	%r12, %rcx	# D.27332,
	movq	%rax, %rdx	# D.27332,
	movl	$0, %esi	#,
	movl	$47, %edi	#,
	call	gen_rtx_fmt_ee	#
	movq	%rax, %r14	#, D.27332
	movq	-96(%rbp), %rdx	# operand5, tmp77
	movq	-88(%rbp), %rax	# operand4, tmp78
	movq	%rdx, %rcx	# tmp77,
	movq	%rax, %rdx	# tmp78,
	movl	$5, %esi	#,
	movl	$75, %edi	#,
	call	gen_rtx_fmt_ee	#
	movq	%rax, %rdx	#, D.27332
	movq	-64(%rbp), %rax	# operand1, tmp79
	movq	%rdx, %rcx	# D.27332,
	movq	%rax, %rdx	# tmp79,
	movl	$0, %esi	#,
	movl	$47, %edi	#,
	call	gen_rtx_fmt_ee	#
	movq	%rax, %r13	#, D.27332
	movq	-96(%rbp), %rdx	# operand5, tmp80
	movq	-80(%rbp), %rax	# operand3, tmp81
	movq	%rdx, %rcx	# tmp80,
	movq	%rax, %rdx	# tmp81,
	movl	$5, %esi	#,
	movl	$75, %edi	#,
	call	gen_rtx_fmt_ee	#
	movq	%rax, %rdx	#, D.27332
	movq	-56(%rbp), %rax	# operand0, tmp82
	movq	%rdx, %rcx	# D.27332,
	movq	%rax, %rdx	# tmp82,
	movl	$0, %esi	#,
	movl	$47, %edi	#,
	call	gen_rtx_fmt_ee	#
	movq	%rax, %r12	#, D.27332
	movq	const_int_rtx+512(%rip), %rdx	# const_int_rtx, D.27332
	movq	-72(%rbp), %rax	# operand2, tmp83
	movq	%rdx, %rcx	# D.27332,
	movq	%rax, %rdx	# tmp83,
	movl	$0, %esi	#,
	movl	$47, %edi	#,
	call	gen_rtx_fmt_ee	#
	movq	%rbx, (%rsp)	# D.27332,
	movq	%r15, %r9	# D.27332,
	movq	%r14, %r8	# D.27332,
	movq	%r13, %rcx	# D.27332,
	movq	%r12, %rdx	# D.27332,
	movq	%rax, %rsi	# D.27332,
	movl	$6, %edi	#,
	movl	$0, %eax	#,
	call	gen_rtvec	#
	movq	%rax, %rdx	# D.27333,
	movl	$0, %esi	#,
	movl	$39, %edi	#,
	call	gen_rtx_fmt_E	#
	.loc 1 1969 0
	addq	$72, %rsp	#,
	popq	%rbx	#
	popq	%r12	#
	popq	%r13	#
	popq	%r14	#
	popq	%r15	#
	popq	%rbp	#
	.cfi_def_cfa 7, 8
	ret
	.cfi_endproc
.LFE118:
	.size	gen_rep_movqi_rex64, .-gen_rep_movqi_rex64
	.globl	gen_strsetdi_rex_1
	.type	gen_strsetdi_rex_1, @function
gen_strsetdi_rex_1:
.LFB119:
	.loc 1 1976 0
	.cfi_startproc
	pushq	%rbp	#
	.cfi_def_cfa_offset 16
	.cfi_offset 6, -16
	movq	%rsp, %rbp	#,
	.cfi_def_cfa_register 6
	pushq	%r12	#
	pushq	%rbx	#
	subq	$32, %rsp	#,
	.cfi_offset 12, -24
	.cfi_offset 3, -32
	movq	%rdi, -24(%rbp)	# operand0, operand0
	movq	%rsi, -32(%rbp)	# operand1, operand1
	movq	%rdx, -40(%rbp)	# operand2, operand2
	.loc 1 1977 0
	movl	$19, %esi	#,
	movl	$4, %edi	#,
	call	gen_rtx_REG	#
	movq	%rax, %rdx	# D.27334,
	movl	$0, %esi	#,
	movl	$48, %edi	#,
	call	gen_rtx_fmt_e	#
	movq	%rax, %r12	#, D.27334
	movl	$8, %esi	#,
	movl	$0, %edi	#,
	call	gen_rtx_CONST_INT	#
	movq	%rax, %rdx	#, D.27334
	movq	-32(%rbp), %rax	# operand1, tmp69
	movq	%rdx, %rcx	# D.27334,
	movq	%rax, %rdx	# tmp69,
	movl	$5, %esi	#,
	movl	$75, %edi	#,
	call	gen_rtx_fmt_ee	#
	movq	%rax, %rdx	#, D.27334
	movq	-24(%rbp), %rax	# operand0, tmp70
	movq	%rdx, %rcx	# D.27334,
	movq	%rax, %rdx	# tmp70,
	movl	$0, %esi	#,
	movl	$47, %edi	#,
	call	gen_rtx_fmt_ee	#
	movq	%rax, %rbx	#, D.27334
	movq	-32(%rbp), %rax	# operand1, tmp71
	movq	%rax, %rsi	# tmp71,
	movl	$4, %edi	#,
	call	gen_rtx_MEM	#
	movq	-40(%rbp), %rdx	# operand2, tmp72
	movq	%rdx, %rcx	# tmp72,
	movq	%rax, %rdx	# D.27334,
	movl	$0, %esi	#,
	movl	$47, %edi	#,
	call	gen_rtx_fmt_ee	#
	movq	%r12, %rcx	# D.27334,
	movq	%rbx, %rdx	# D.27334,
	movq	%rax, %rsi	# D.27334,
	movl	$3, %edi	#,
	movl	$0, %eax	#,
	call	gen_rtvec	#
	movq	%rax, %rdx	# D.27335,
	movl	$0, %esi	#,
	movl	$39, %edi	#,
	call	gen_rtx_fmt_E	#
	.loc 1 1990 0
	addq	$32, %rsp	#,
	popq	%rbx	#
	popq	%r12	#
	popq	%rbp	#
	.cfi_def_cfa 7, 8
	ret
	.cfi_endproc
.LFE119:
	.size	gen_strsetdi_rex_1, .-gen_strsetdi_rex_1
	.globl	gen_strsetsi_1
	.type	gen_strsetsi_1, @function
gen_strsetsi_1:
.LFB120:
	.loc 1 1997 0
	.cfi_startproc
	pushq	%rbp	#
	.cfi_def_cfa_offset 16
	.cfi_offset 6, -16
	movq	%rsp, %rbp	#,
	.cfi_def_cfa_register 6
	pushq	%r12	#
	pushq	%rbx	#
	subq	$32, %rsp	#,
	.cfi_offset 12, -24
	.cfi_offset 3, -32
	movq	%rdi, -24(%rbp)	# operand0, operand0
	movq	%rsi, -32(%rbp)	# operand1, operand1
	movq	%rdx, -40(%rbp)	# operand2, operand2
	.loc 1 1998 0
	movl	$19, %esi	#,
	movl	$4, %edi	#,
	call	gen_rtx_REG	#
	movq	%rax, %rdx	# D.27336,
	movl	$0, %esi	#,
	movl	$48, %edi	#,
	call	gen_rtx_fmt_e	#
	movq	%rax, %r12	#, D.27336
	movl	$4, %esi	#,
	movl	$0, %edi	#,
	call	gen_rtx_CONST_INT	#
	movq	%rax, %rdx	#, D.27336
	movq	-32(%rbp), %rax	# operand1, tmp69
	movq	%rdx, %rcx	# D.27336,
	movq	%rax, %rdx	# tmp69,
	movl	$4, %esi	#,
	movl	$75, %edi	#,
	call	gen_rtx_fmt_ee	#
	movq	%rax, %rdx	#, D.27336
	movq	-24(%rbp), %rax	# operand0, tmp70
	movq	%rdx, %rcx	# D.27336,
	movq	%rax, %rdx	# tmp70,
	movl	$0, %esi	#,
	movl	$47, %edi	#,
	call	gen_rtx_fmt_ee	#
	movq	%rax, %rbx	#, D.27336
	movq	-32(%rbp), %rax	# operand1, tmp71
	movq	%rax, %rsi	# tmp71,
	movl	$4, %edi	#,
	call	gen_rtx_MEM	#
	movq	-40(%rbp), %rdx	# operand2, tmp72
	movq	%rdx, %rcx	# tmp72,
	movq	%rax, %rdx	# D.27336,
	movl	$0, %esi	#,
	movl	$47, %edi	#,
	call	gen_rtx_fmt_ee	#
	movq	%r12, %rcx	# D.27336,
	movq	%rbx, %rdx	# D.27336,
	movq	%rax, %rsi	# D.27336,
	movl	$3, %edi	#,
	movl	$0, %eax	#,
	call	gen_rtvec	#
	movq	%rax, %rdx	# D.27337,
	movl	$0, %esi	#,
	movl	$39, %edi	#,
	call	gen_rtx_fmt_E	#
	.loc 1 2011 0
	addq	$32, %rsp	#,
	popq	%rbx	#
	popq	%r12	#
	popq	%rbp	#
	.cfi_def_cfa 7, 8
	ret
	.cfi_endproc
.LFE120:
	.size	gen_strsetsi_1, .-gen_strsetsi_1
	.globl	gen_strsetsi_rex_1
	.type	gen_strsetsi_rex_1, @function
gen_strsetsi_rex_1:
.LFB121:
	.loc 1 2018 0
	.cfi_startproc
	pushq	%rbp	#
	.cfi_def_cfa_offset 16
	.cfi_offset 6, -16
	movq	%rsp, %rbp	#,
	.cfi_def_cfa_register 6
	pushq	%r12	#
	pushq	%rbx	#
	subq	$32, %rsp	#,
	.cfi_offset 12, -24
	.cfi_offset 3, -32
	movq	%rdi, -24(%rbp)	# operand0, operand0
	movq	%rsi, -32(%rbp)	# operand1, operand1
	movq	%rdx, -40(%rbp)	# operand2, operand2
	.loc 1 2019 0
	movl	$19, %esi	#,
	movl	$4, %edi	#,
	call	gen_rtx_REG	#
	movq	%rax, %rdx	# D.27338,
	movl	$0, %esi	#,
	movl	$48, %edi	#,
	call	gen_rtx_fmt_e	#
	movq	%rax, %r12	#, D.27338
	movl	$4, %esi	#,
	movl	$0, %edi	#,
	call	gen_rtx_CONST_INT	#
	movq	%rax, %rdx	#, D.27338
	movq	-32(%rbp), %rax	# operand1, tmp69
	movq	%rdx, %rcx	# D.27338,
	movq	%rax, %rdx	# tmp69,
	movl	$5, %esi	#,
	movl	$75, %edi	#,
	call	gen_rtx_fmt_ee	#
	movq	%rax, %rdx	#, D.27338
	movq	-24(%rbp), %rax	# operand0, tmp70
	movq	%rdx, %rcx	# D.27338,
	movq	%rax, %rdx	# tmp70,
	movl	$0, %esi	#,
	movl	$47, %edi	#,
	call	gen_rtx_fmt_ee	#
	movq	%rax, %rbx	#, D.27338
	movq	-32(%rbp), %rax	# operand1, tmp71
	movq	%rax, %rsi	# tmp71,
	movl	$4, %edi	#,
	call	gen_rtx_MEM	#
	movq	-40(%rbp), %rdx	# operand2, tmp72
	movq	%rdx, %rcx	# tmp72,
	movq	%rax, %rdx	# D.27338,
	movl	$0, %esi	#,
	movl	$47, %edi	#,
	call	gen_rtx_fmt_ee	#
	movq	%r12, %rcx	# D.27338,
	movq	%rbx, %rdx	# D.27338,
	movq	%rax, %rsi	# D.27338,
	movl	$3, %edi	#,
	movl	$0, %eax	#,
	call	gen_rtvec	#
	movq	%rax, %rdx	# D.27339,
	movl	$0, %esi	#,
	movl	$39, %edi	#,
	call	gen_rtx_fmt_E	#
	.loc 1 2032 0
	addq	$32, %rsp	#,
	popq	%rbx	#
	popq	%r12	#
	popq	%rbp	#
	.cfi_def_cfa 7, 8
	ret
	.cfi_endproc
.LFE121:
	.size	gen_strsetsi_rex_1, .-gen_strsetsi_rex_1
	.globl	gen_strsethi_1
	.type	gen_strsethi_1, @function
gen_strsethi_1:
.LFB122:
	.loc 1 2039 0
	.cfi_startproc
	pushq	%rbp	#
	.cfi_def_cfa_offset 16
	.cfi_offset 6, -16
	movq	%rsp, %rbp	#,
	.cfi_def_cfa_register 6
	pushq	%r12	#
	pushq	%rbx	#
	subq	$32, %rsp	#,
	.cfi_offset 12, -24
	.cfi_offset 3, -32
	movq	%rdi, -24(%rbp)	# operand0, operand0
	movq	%rsi, -32(%rbp)	# operand1, operand1
	movq	%rdx, -40(%rbp)	# operand2, operand2
	.loc 1 2040 0
	movl	$19, %esi	#,
	movl	$4, %edi	#,
	call	gen_rtx_REG	#
	movq	%rax, %rdx	# D.27340,
	movl	$0, %esi	#,
	movl	$48, %edi	#,
	call	gen_rtx_fmt_e	#
	movq	%rax, %r12	#, D.27340
	movl	$2, %esi	#,
	movl	$0, %edi	#,
	call	gen_rtx_CONST_INT	#
	movq	%rax, %rdx	#, D.27340
	movq	-32(%rbp), %rax	# operand1, tmp69
	movq	%rdx, %rcx	# D.27340,
	movq	%rax, %rdx	# tmp69,
	movl	$4, %esi	#,
	movl	$75, %edi	#,
	call	gen_rtx_fmt_ee	#
	movq	%rax, %rdx	#, D.27340
	movq	-24(%rbp), %rax	# operand0, tmp70
	movq	%rdx, %rcx	# D.27340,
	movq	%rax, %rdx	# tmp70,
	movl	$0, %esi	#,
	movl	$47, %edi	#,
	call	gen_rtx_fmt_ee	#
	movq	%rax, %rbx	#, D.27340
	movq	-32(%rbp), %rax	# operand1, tmp71
	movq	%rax, %rsi	# tmp71,
	movl	$3, %edi	#,
	call	gen_rtx_MEM	#
	movq	-40(%rbp), %rdx	# operand2, tmp72
	movq	%rdx, %rcx	# tmp72,
	movq	%rax, %rdx	# D.27340,
	movl	$0, %esi	#,
	movl	$47, %edi	#,
	call	gen_rtx_fmt_ee	#
	movq	%r12, %rcx	# D.27340,
	movq	%rbx, %rdx	# D.27340,
	movq	%rax, %rsi	# D.27340,
	movl	$3, %edi	#,
	movl	$0, %eax	#,
	call	gen_rtvec	#
	movq	%rax, %rdx	# D.27341,
	movl	$0, %esi	#,
	movl	$39, %edi	#,
	call	gen_rtx_fmt_E	#
	.loc 1 2053 0
	addq	$32, %rsp	#,
	popq	%rbx	#
	popq	%r12	#
	popq	%rbp	#
	.cfi_def_cfa 7, 8
	ret
	.cfi_endproc
.LFE122:
	.size	gen_strsethi_1, .-gen_strsethi_1
	.globl	gen_strsethi_rex_1
	.type	gen_strsethi_rex_1, @function
gen_strsethi_rex_1:
.LFB123:
	.loc 1 2060 0
	.cfi_startproc
	pushq	%rbp	#
	.cfi_def_cfa_offset 16
	.cfi_offset 6, -16
	movq	%rsp, %rbp	#,
	.cfi_def_cfa_register 6
	pushq	%r12	#
	pushq	%rbx	#
	subq	$32, %rsp	#,
	.cfi_offset 12, -24
	.cfi_offset 3, -32
	movq	%rdi, -24(%rbp)	# operand0, operand0
	movq	%rsi, -32(%rbp)	# operand1, operand1
	movq	%rdx, -40(%rbp)	# operand2, operand2
	.loc 1 2061 0
	movl	$19, %esi	#,
	movl	$4, %edi	#,
	call	gen_rtx_REG	#
	movq	%rax, %rdx	# D.27342,
	movl	$0, %esi	#,
	movl	$48, %edi	#,
	call	gen_rtx_fmt_e	#
	movq	%rax, %r12	#, D.27342
	movl	$2, %esi	#,
	movl	$0, %edi	#,
	call	gen_rtx_CONST_INT	#
	movq	%rax, %rdx	#, D.27342
	movq	-32(%rbp), %rax	# operand1, tmp69
	movq	%rdx, %rcx	# D.27342,
	movq	%rax, %rdx	# tmp69,
	movl	$5, %esi	#,
	movl	$75, %edi	#,
	call	gen_rtx_fmt_ee	#
	movq	%rax, %rdx	#, D.27342
	movq	-24(%rbp), %rax	# operand0, tmp70
	movq	%rdx, %rcx	# D.27342,
	movq	%rax, %rdx	# tmp70,
	movl	$0, %esi	#,
	movl	$47, %edi	#,
	call	gen_rtx_fmt_ee	#
	movq	%rax, %rbx	#, D.27342
	movq	-32(%rbp), %rax	# operand1, tmp71
	movq	%rax, %rsi	# tmp71,
	movl	$3, %edi	#,
	call	gen_rtx_MEM	#
	movq	-40(%rbp), %rdx	# operand2, tmp72
	movq	%rdx, %rcx	# tmp72,
	movq	%rax, %rdx	# D.27342,
	movl	$0, %esi	#,
	movl	$47, %edi	#,
	call	gen_rtx_fmt_ee	#
	movq	%r12, %rcx	# D.27342,
	movq	%rbx, %rdx	# D.27342,
	movq	%rax, %rsi	# D.27342,
	movl	$3, %edi	#,
	movl	$0, %eax	#,
	call	gen_rtvec	#
	movq	%rax, %rdx	# D.27343,
	movl	$0, %esi	#,
	movl	$39, %edi	#,
	call	gen_rtx_fmt_E	#
	.loc 1 2074 0
	addq	$32, %rsp	#,
	popq	%rbx	#
	popq	%r12	#
	popq	%rbp	#
	.cfi_def_cfa 7, 8
	ret
	.cfi_endproc
.LFE123:
	.size	gen_strsethi_rex_1, .-gen_strsethi_rex_1
	.globl	gen_strsetqi_1
	.type	gen_strsetqi_1, @function
gen_strsetqi_1:
.LFB124:
	.loc 1 2081 0
	.cfi_startproc
	pushq	%rbp	#
	.cfi_def_cfa_offset 16
	.cfi_offset 6, -16
	movq	%rsp, %rbp	#,
	.cfi_def_cfa_register 6
	pushq	%r12	#
	pushq	%rbx	#
	subq	$32, %rsp	#,
	.cfi_offset 12, -24
	.cfi_offset 3, -32
	movq	%rdi, -24(%rbp)	# operand0, operand0
	movq	%rsi, -32(%rbp)	# operand1, operand1
	movq	%rdx, -40(%rbp)	# operand2, operand2
	.loc 1 2082 0
	movl	$19, %esi	#,
	movl	$4, %edi	#,
	call	gen_rtx_REG	#
	movq	%rax, %rdx	# D.27344,
	movl	$0, %esi	#,
	movl	$48, %edi	#,
	call	gen_rtx_fmt_e	#
	movq	%rax, %r12	#, D.27344
	movq	const_int_rtx+520(%rip), %rdx	# const_int_rtx, D.27344
	movq	-32(%rbp), %rax	# operand1, tmp69
	movq	%rdx, %rcx	# D.27344,
	movq	%rax, %rdx	# tmp69,
	movl	$4, %esi	#,
	movl	$75, %edi	#,
	call	gen_rtx_fmt_ee	#
	movq	%rax, %rdx	#, D.27344
	movq	-24(%rbp), %rax	# operand0, tmp70
	movq	%rdx, %rcx	# D.27344,
	movq	%rax, %rdx	# tmp70,
	movl	$0, %esi	#,
	movl	$47, %edi	#,
	call	gen_rtx_fmt_ee	#
	movq	%rax, %rbx	#, D.27344
	movq	-32(%rbp), %rax	# operand1, tmp71
	movq	%rax, %rsi	# tmp71,
	movl	$2, %edi	#,
	call	gen_rtx_MEM	#
	movq	-40(%rbp), %rdx	# operand2, tmp72
	movq	%rdx, %rcx	# tmp72,
	movq	%rax, %rdx	# D.27344,
	movl	$0, %esi	#,
	movl	$47, %edi	#,
	call	gen_rtx_fmt_ee	#
	movq	%r12, %rcx	# D.27344,
	movq	%rbx, %rdx	# D.27344,
	movq	%rax, %rsi	# D.27344,
	movl	$3, %edi	#,
	movl	$0, %eax	#,
	call	gen_rtvec	#
	movq	%rax, %rdx	# D.27345,
	movl	$0, %esi	#,
	movl	$39, %edi	#,
	call	gen_rtx_fmt_E	#
	.loc 1 2095 0
	addq	$32, %rsp	#,
	popq	%rbx	#
	popq	%r12	#
	popq	%rbp	#
	.cfi_def_cfa 7, 8
	ret
	.cfi_endproc
.LFE124:
	.size	gen_strsetqi_1, .-gen_strsetqi_1
	.globl	gen_strsetqi_rex_1
	.type	gen_strsetqi_rex_1, @function
gen_strsetqi_rex_1:
.LFB125:
	.loc 1 2102 0
	.cfi_startproc
	pushq	%rbp	#
	.cfi_def_cfa_offset 16
	.cfi_offset 6, -16
	movq	%rsp, %rbp	#,
	.cfi_def_cfa_register 6
	pushq	%r12	#
	pushq	%rbx	#
	subq	$32, %rsp	#,
	.cfi_offset 12, -24
	.cfi_offset 3, -32
	movq	%rdi, -24(%rbp)	# operand0, operand0
	movq	%rsi, -32(%rbp)	# operand1, operand1
	movq	%rdx, -40(%rbp)	# operand2, operand2
	.loc 1 2103 0
	movl	$19, %esi	#,
	movl	$4, %edi	#,
	call	gen_rtx_REG	#
	movq	%rax, %rdx	# D.27346,
	movl	$0, %esi	#,
	movl	$48, %edi	#,
	call	gen_rtx_fmt_e	#
	movq	%rax, %r12	#, D.27346
	movq	const_int_rtx+520(%rip), %rdx	# const_int_rtx, D.27346
	movq	-32(%rbp), %rax	# operand1, tmp69
	movq	%rdx, %rcx	# D.27346,
	movq	%rax, %rdx	# tmp69,
	movl	$5, %esi	#,
	movl	$75, %edi	#,
	call	gen_rtx_fmt_ee	#
	movq	%rax, %rdx	#, D.27346
	movq	-24(%rbp), %rax	# operand0, tmp70
	movq	%rdx, %rcx	# D.27346,
	movq	%rax, %rdx	# tmp70,
	movl	$0, %esi	#,
	movl	$47, %edi	#,
	call	gen_rtx_fmt_ee	#
	movq	%rax, %rbx	#, D.27346
	movq	-32(%rbp), %rax	# operand1, tmp71
	movq	%rax, %rsi	# tmp71,
	movl	$2, %edi	#,
	call	gen_rtx_MEM	#
	movq	-40(%rbp), %rdx	# operand2, tmp72
	movq	%rdx, %rcx	# tmp72,
	movq	%rax, %rdx	# D.27346,
	movl	$0, %esi	#,
	movl	$47, %edi	#,
	call	gen_rtx_fmt_ee	#
	movq	%r12, %rcx	# D.27346,
	movq	%rbx, %rdx	# D.27346,
	movq	%rax, %rsi	# D.27346,
	movl	$3, %edi	#,
	movl	$0, %eax	#,
	call	gen_rtvec	#
	movq	%rax, %rdx	# D.27347,
	movl	$0, %esi	#,
	movl	$39, %edi	#,
	call	gen_rtx_fmt_E	#
	.loc 1 2116 0
	addq	$32, %rsp	#,
	popq	%rbx	#
	popq	%r12	#
	popq	%rbp	#
	.cfi_def_cfa 7, 8
	ret
	.cfi_endproc
.LFE125:
	.size	gen_strsetqi_rex_1, .-gen_strsetqi_rex_1
	.globl	gen_rep_stosdi_rex64
	.type	gen_rep_stosdi_rex64, @function
gen_rep_stosdi_rex64:
.LFB126:
	.loc 1 2125 0
	.cfi_startproc
	pushq	%rbp	#
	.cfi_def_cfa_offset 16
	.cfi_offset 6, -16
	movq	%rsp, %rbp	#,
	.cfi_def_cfa_register 6
	pushq	%r15	#
	pushq	%r14	#
	pushq	%r13	#
	pushq	%r12	#
	pushq	%rbx	#
	subq	$56, %rsp	#,
	.cfi_offset 15, -24
	.cfi_offset 14, -32
	.cfi_offset 13, -40
	.cfi_offset 12, -48
	.cfi_offset 3, -56
	movq	%rdi, -56(%rbp)	# operand0, operand0
	movq	%rsi, -64(%rbp)	# operand1, operand1
	movq	%rdx, -72(%rbp)	# operand2, operand2
	movq	%rcx, -80(%rbp)	# operand3, operand3
	movq	%r8, -88(%rbp)	# operand4, operand4
	.loc 1 2126 0
	movl	$19, %esi	#,
	movl	$4, %edi	#,
	call	gen_rtx_REG	#
	movq	%rax, %rdx	# D.27348,
	movl	$0, %esi	#,
	movl	$48, %edi	#,
	call	gen_rtx_fmt_e	#
	movq	%rax, %rbx	#, D.27348
	movq	-88(%rbp), %rax	# operand4, tmp75
	movq	%rax, %rdx	# tmp75,
	movl	$0, %esi	#,
	movl	$48, %edi	#,
	call	gen_rtx_fmt_e	#
	movq	%rax, %r15	#, D.27348
	movq	-72(%rbp), %rax	# operand2, tmp76
	movq	%rax, %rdx	# tmp76,
	movl	$0, %esi	#,
	movl	$48, %edi	#,
	call	gen_rtx_fmt_e	#
	movq	%rax, %r14	#, D.27348
	movq	const_int_rtx+512(%rip), %r12	# const_int_rtx, D.27348
	movq	-80(%rbp), %rax	# operand3, tmp77
	movq	%rax, %rsi	# tmp77,
	movl	$51, %edi	#,
	call	gen_rtx_MEM	#
	movq	%r12, %rcx	# D.27348,
	movq	%rax, %rdx	# D.27348,
	movl	$0, %esi	#,
	movl	$47, %edi	#,
	call	gen_rtx_fmt_ee	#
	movq	%rax, %r13	#, D.27348
	movl	$3, %esi	#,
	movl	$0, %edi	#,
	call	gen_rtx_CONST_INT	#
	movq	%rax, %rdx	#, D.27348
	movq	-88(%rbp), %rax	# operand4, tmp78
	movq	%rdx, %rcx	# D.27348,
	movq	%rax, %rdx	# tmp78,
	movl	$5, %esi	#,
	movl	$87, %edi	#,
	call	gen_rtx_fmt_ee	#
	movq	-80(%rbp), %rdx	# operand3, tmp79
	movq	%rdx, %rcx	# tmp79,
	movq	%rax, %rdx	# D.27348,
	movl	$5, %esi	#,
	movl	$75, %edi	#,
	call	gen_rtx_fmt_ee	#
	movq	%rax, %rdx	#, D.27348
	movq	-56(%rbp), %rax	# operand0, tmp80
	movq	%rdx, %rcx	# D.27348,
	movq	%rax, %rdx	# tmp80,
	movl	$0, %esi	#,
	movl	$47, %edi	#,
	call	gen_rtx_fmt_ee	#
	movq	%rax, %r12	#, D.27348
	movq	const_int_rtx+512(%rip), %rdx	# const_int_rtx, D.27348
	movq	-64(%rbp), %rax	# operand1, tmp81
	movq	%rdx, %rcx	# D.27348,
	movq	%rax, %rdx	# tmp81,
	movl	$0, %esi	#,
	movl	$47, %edi	#,
	call	gen_rtx_fmt_ee	#
	movq	%rbx, (%rsp)	# D.27348,
	movq	%r15, %r9	# D.27348,
	movq	%r14, %r8	# D.27348,
	movq	%r13, %rcx	# D.27348,
	movq	%r12, %rdx	# D.27348,
	movq	%rax, %rsi	# D.27348,
	movl	$6, %edi	#,
	movl	$0, %eax	#,
	call	gen_rtvec	#
	movq	%rax, %rdx	# D.27349,
	movl	$0, %esi	#,
	movl	$39, %edi	#,
	call	gen_rtx_fmt_E	#
	.loc 1 2148 0
	addq	$56, %rsp	#,
	popq	%rbx	#
	popq	%r12	#
	popq	%r13	#
	popq	%r14	#
	popq	%r15	#
	popq	%rbp	#
	.cfi_def_cfa 7, 8
	ret
	.cfi_endproc
.LFE126:
	.size	gen_rep_stosdi_rex64, .-gen_rep_stosdi_rex64
	.globl	gen_rep_stossi
	.type	gen_rep_stossi, @function
gen_rep_stossi:
.LFB127:
	.loc 1 2157 0
	.cfi_startproc
	pushq	%rbp	#
	.cfi_def_cfa_offset 16
	.cfi_offset 6, -16
	movq	%rsp, %rbp	#,
	.cfi_def_cfa_register 6
	pushq	%r15	#
	pushq	%r14	#
	pushq	%r13	#
	pushq	%r12	#
	pushq	%rbx	#
	subq	$56, %rsp	#,
	.cfi_offset 15, -24
	.cfi_offset 14, -32
	.cfi_offset 13, -40
	.cfi_offset 12, -48
	.cfi_offset 3, -56
	movq	%rdi, -56(%rbp)	# operand0, operand0
	movq	%rsi, -64(%rbp)	# operand1, operand1
	movq	%rdx, -72(%rbp)	# operand2, operand2
	movq	%rcx, -80(%rbp)	# operand3, operand3
	movq	%r8, -88(%rbp)	# operand4, operand4
	.loc 1 2158 0
	movl	$19, %esi	#,
	movl	$4, %edi	#,
	call	gen_rtx_REG	#
	movq	%rax, %rdx	# D.27350,
	movl	$0, %esi	#,
	movl	$48, %edi	#,
	call	gen_rtx_fmt_e	#
	movq	%rax, %rbx	#, D.27350
	movq	-88(%rbp), %rax	# operand4, tmp75
	movq	%rax, %rdx	# tmp75,
	movl	$0, %esi	#,
	movl	$48, %edi	#,
	call	gen_rtx_fmt_e	#
	movq	%rax, %r15	#, D.27350
	movq	-72(%rbp), %rax	# operand2, tmp76
	movq	%rax, %rdx	# tmp76,
	movl	$0, %esi	#,
	movl	$48, %edi	#,
	call	gen_rtx_fmt_e	#
	movq	%rax, %r14	#, D.27350
	movq	const_int_rtx+512(%rip), %r12	# const_int_rtx, D.27350
	movq	-80(%rbp), %rax	# operand3, tmp77
	movq	%rax, %rsi	# tmp77,
	movl	$51, %edi	#,
	call	gen_rtx_MEM	#
	movq	%r12, %rcx	# D.27350,
	movq	%rax, %rdx	# D.27350,
	movl	$0, %esi	#,
	movl	$47, %edi	#,
	call	gen_rtx_fmt_ee	#
	movq	%rax, %r13	#, D.27350
	movl	$2, %esi	#,
	movl	$0, %edi	#,
	call	gen_rtx_CONST_INT	#
	movq	%rax, %rdx	#, D.27350
	movq	-88(%rbp), %rax	# operand4, tmp78
	movq	%rdx, %rcx	# D.27350,
	movq	%rax, %rdx	# tmp78,
	movl	$4, %esi	#,
	movl	$87, %edi	#,
	call	gen_rtx_fmt_ee	#
	movq	-80(%rbp), %rdx	# operand3, tmp79
	movq	%rdx, %rcx	# tmp79,
	movq	%rax, %rdx	# D.27350,
	movl	$4, %esi	#,
	movl	$75, %edi	#,
	call	gen_rtx_fmt_ee	#
	movq	%rax, %rdx	#, D.27350
	movq	-56(%rbp), %rax	# operand0, tmp80
	movq	%rdx, %rcx	# D.27350,
	movq	%rax, %rdx	# tmp80,
	movl	$0, %esi	#,
	movl	$47, %edi	#,
	call	gen_rtx_fmt_ee	#
	movq	%rax, %r12	#, D.27350
	movq	const_int_rtx+512(%rip), %rdx	# const_int_rtx, D.27350
	movq	-64(%rbp), %rax	# operand1, tmp81
	movq	%rdx, %rcx	# D.27350,
	movq	%rax, %rdx	# tmp81,
	movl	$0, %esi	#,
	movl	$47, %edi	#,
	call	gen_rtx_fmt_ee	#
	movq	%rbx, (%rsp)	# D.27350,
	movq	%r15, %r9	# D.27350,
	movq	%r14, %r8	# D.27350,
	movq	%r13, %rcx	# D.27350,
	movq	%r12, %rdx	# D.27350,
	movq	%rax, %rsi	# D.27350,
	movl	$6, %edi	#,
	movl	$0, %eax	#,
	call	gen_rtvec	#
	movq	%rax, %rdx	# D.27351,
	movl	$0, %esi	#,
	movl	$39, %edi	#,
	call	gen_rtx_fmt_E	#
	.loc 1 2180 0
	addq	$56, %rsp	#,
	popq	%rbx	#
	popq	%r12	#
	popq	%r13	#
	popq	%r14	#
	popq	%r15	#
	popq	%rbp	#
	.cfi_def_cfa 7, 8
	ret
	.cfi_endproc
.LFE127:
	.size	gen_rep_stossi, .-gen_rep_stossi
	.globl	gen_rep_stossi_rex64
	.type	gen_rep_stossi_rex64, @function
gen_rep_stossi_rex64:
.LFB128:
	.loc 1 2189 0
	.cfi_startproc
	pushq	%rbp	#
	.cfi_def_cfa_offset 16
	.cfi_offset 6, -16
	movq	%rsp, %rbp	#,
	.cfi_def_cfa_register 6
	pushq	%r15	#
	pushq	%r14	#
	pushq	%r13	#
	pushq	%r12	#
	pushq	%rbx	#
	subq	$56, %rsp	#,
	.cfi_offset 15, -24
	.cfi_offset 14, -32
	.cfi_offset 13, -40
	.cfi_offset 12, -48
	.cfi_offset 3, -56
	movq	%rdi, -56(%rbp)	# operand0, operand0
	movq	%rsi, -64(%rbp)	# operand1, operand1
	movq	%rdx, -72(%rbp)	# operand2, operand2
	movq	%rcx, -80(%rbp)	# operand3, operand3
	movq	%r8, -88(%rbp)	# operand4, operand4
	.loc 1 2190 0
	movl	$19, %esi	#,
	movl	$4, %edi	#,
	call	gen_rtx_REG	#
	movq	%rax, %rdx	# D.27352,
	movl	$0, %esi	#,
	movl	$48, %edi	#,
	call	gen_rtx_fmt_e	#
	movq	%rax, %rbx	#, D.27352
	movq	-88(%rbp), %rax	# operand4, tmp75
	movq	%rax, %rdx	# tmp75,
	movl	$0, %esi	#,
	movl	$48, %edi	#,
	call	gen_rtx_fmt_e	#
	movq	%rax, %r15	#, D.27352
	movq	-72(%rbp), %rax	# operand2, tmp76
	movq	%rax, %rdx	# tmp76,
	movl	$0, %esi	#,
	movl	$48, %edi	#,
	call	gen_rtx_fmt_e	#
	movq	%rax, %r14	#, D.27352
	movq	const_int_rtx+512(%rip), %r12	# const_int_rtx, D.27352
	movq	-80(%rbp), %rax	# operand3, tmp77
	movq	%rax, %rsi	# tmp77,
	movl	$51, %edi	#,
	call	gen_rtx_MEM	#
	movq	%r12, %rcx	# D.27352,
	movq	%rax, %rdx	# D.27352,
	movl	$0, %esi	#,
	movl	$47, %edi	#,
	call	gen_rtx_fmt_ee	#
	movq	%rax, %r13	#, D.27352
	movl	$2, %esi	#,
	movl	$0, %edi	#,
	call	gen_rtx_CONST_INT	#
	movq	%rax, %rdx	#, D.27352
	movq	-88(%rbp), %rax	# operand4, tmp78
	movq	%rdx, %rcx	# D.27352,
	movq	%rax, %rdx	# tmp78,
	movl	$5, %esi	#,
	movl	$87, %edi	#,
	call	gen_rtx_fmt_ee	#
	movq	-80(%rbp), %rdx	# operand3, tmp79
	movq	%rdx, %rcx	# tmp79,
	movq	%rax, %rdx	# D.27352,
	movl	$5, %esi	#,
	movl	$75, %edi	#,
	call	gen_rtx_fmt_ee	#
	movq	%rax, %rdx	#, D.27352
	movq	-56(%rbp), %rax	# operand0, tmp80
	movq	%rdx, %rcx	# D.27352,
	movq	%rax, %rdx	# tmp80,
	movl	$0, %esi	#,
	movl	$47, %edi	#,
	call	gen_rtx_fmt_ee	#
	movq	%rax, %r12	#, D.27352
	movq	const_int_rtx+512(%rip), %rdx	# const_int_rtx, D.27352
	movq	-64(%rbp), %rax	# operand1, tmp81
	movq	%rdx, %rcx	# D.27352,
	movq	%rax, %rdx	# tmp81,
	movl	$0, %esi	#,
	movl	$47, %edi	#,
	call	gen_rtx_fmt_ee	#
	movq	%rbx, (%rsp)	# D.27352,
	movq	%r15, %r9	# D.27352,
	movq	%r14, %r8	# D.27352,
	movq	%r13, %rcx	# D.27352,
	movq	%r12, %rdx	# D.27352,
	movq	%rax, %rsi	# D.27352,
	movl	$6, %edi	#,
	movl	$0, %eax	#,
	call	gen_rtvec	#
	movq	%rax, %rdx	# D.27353,
	movl	$0, %esi	#,
	movl	$39, %edi	#,
	call	gen_rtx_fmt_E	#
	.loc 1 2212 0
	addq	$56, %rsp	#,
	popq	%rbx	#
	popq	%r12	#
	popq	%r13	#
	popq	%r14	#
	popq	%r15	#
	popq	%rbp	#
	.cfi_def_cfa 7, 8
	ret
	.cfi_endproc
.LFE128:
	.size	gen_rep_stossi_rex64, .-gen_rep_stossi_rex64
	.globl	gen_rep_stosqi
	.type	gen_rep_stosqi, @function
gen_rep_stosqi:
.LFB129:
	.loc 1 2221 0
	.cfi_startproc
	pushq	%rbp	#
	.cfi_def_cfa_offset 16
	.cfi_offset 6, -16
	movq	%rsp, %rbp	#,
	.cfi_def_cfa_register 6
	pushq	%r15	#
	pushq	%r14	#
	pushq	%r13	#
	pushq	%r12	#
	pushq	%rbx	#
	subq	$56, %rsp	#,
	.cfi_offset 15, -24
	.cfi_offset 14, -32
	.cfi_offset 13, -40
	.cfi_offset 12, -48
	.cfi_offset 3, -56
	movq	%rdi, -56(%rbp)	# operand0, operand0
	movq	%rsi, -64(%rbp)	# operand1, operand1
	movq	%rdx, -72(%rbp)	# operand2, operand2
	movq	%rcx, -80(%rbp)	# operand3, operand3
	movq	%r8, -88(%rbp)	# operand4, operand4
	.loc 1 2222 0
	movl	$19, %esi	#,
	movl	$4, %edi	#,
	call	gen_rtx_REG	#
	movq	%rax, %rdx	# D.27354,
	movl	$0, %esi	#,
	movl	$48, %edi	#,
	call	gen_rtx_fmt_e	#
	movq	%rax, %rbx	#, D.27354
	movq	-88(%rbp), %rax	# operand4, tmp73
	movq	%rax, %rdx	# tmp73,
	movl	$0, %esi	#,
	movl	$48, %edi	#,
	call	gen_rtx_fmt_e	#
	movq	%rax, %r15	#, D.27354
	movq	-72(%rbp), %rax	# operand2, tmp74
	movq	%rax, %rdx	# tmp74,
	movl	$0, %esi	#,
	movl	$48, %edi	#,
	call	gen_rtx_fmt_e	#
	movq	%rax, %r14	#, D.27354
	movq	const_int_rtx+512(%rip), %r12	# const_int_rtx, D.27354
	movq	-80(%rbp), %rax	# operand3, tmp75
	movq	%rax, %rsi	# tmp75,
	movl	$51, %edi	#,
	call	gen_rtx_MEM	#
	movq	%r12, %rcx	# D.27354,
	movq	%rax, %rdx	# D.27354,
	movl	$0, %esi	#,
	movl	$47, %edi	#,
	call	gen_rtx_fmt_ee	#
	movq	%rax, %r13	#, D.27354
	movq	-88(%rbp), %rdx	# operand4, tmp76
	movq	-80(%rbp), %rax	# operand3, tmp77
	movq	%rdx, %rcx	# tmp76,
	movq	%rax, %rdx	# tmp77,
	movl	$4, %esi	#,
	movl	$75, %edi	#,
	call	gen_rtx_fmt_ee	#
	movq	%rax, %rdx	#, D.27354
	movq	-56(%rbp), %rax	# operand0, tmp78
	movq	%rdx, %rcx	# D.27354,
	movq	%rax, %rdx	# tmp78,
	movl	$0, %esi	#,
	movl	$47, %edi	#,
	call	gen_rtx_fmt_ee	#
	movq	%rax, %r12	#, D.27354
	movq	const_int_rtx+512(%rip), %rdx	# const_int_rtx, D.27354
	movq	-64(%rbp), %rax	# operand1, tmp79
	movq	%rdx, %rcx	# D.27354,
	movq	%rax, %rdx	# tmp79,
	movl	$0, %esi	#,
	movl	$47, %edi	#,
	call	gen_rtx_fmt_ee	#
	movq	%rbx, (%rsp)	# D.27354,
	movq	%r15, %r9	# D.27354,
	movq	%r14, %r8	# D.27354,
	movq	%r13, %rcx	# D.27354,
	movq	%r12, %rdx	# D.27354,
	movq	%rax, %rsi	# D.27354,
	movl	$6, %edi	#,
	movl	$0, %eax	#,
	call	gen_rtvec	#
	movq	%rax, %rdx	# D.27355,
	movl	$0, %esi	#,
	movl	$39, %edi	#,
	call	gen_rtx_fmt_E	#
	.loc 1 2242 0
	addq	$56, %rsp	#,
	popq	%rbx	#
	popq	%r12	#
	popq	%r13	#
	popq	%r14	#
	popq	%r15	#
	popq	%rbp	#
	.cfi_def_cfa 7, 8
	ret
	.cfi_endproc
.LFE129:
	.size	gen_rep_stosqi, .-gen_rep_stosqi
	.globl	gen_rep_stosqi_rex64
	.type	gen_rep_stosqi_rex64, @function
gen_rep_stosqi_rex64:
.LFB130:
	.loc 1 2251 0
	.cfi_startproc
	pushq	%rbp	#
	.cfi_def_cfa_offset 16
	.cfi_offset 6, -16
	movq	%rsp, %rbp	#,
	.cfi_def_cfa_register 6
	pushq	%r15	#
	pushq	%r14	#
	pushq	%r13	#
	pushq	%r12	#
	pushq	%rbx	#
	subq	$56, %rsp	#,
	.cfi_offset 15, -24
	.cfi_offset 14, -32
	.cfi_offset 13, -40
	.cfi_offset 12, -48
	.cfi_offset 3, -56
	movq	%rdi, -56(%rbp)	# operand0, operand0
	movq	%rsi, -64(%rbp)	# operand1, operand1
	movq	%rdx, -72(%rbp)	# operand2, operand2
	movq	%rcx, -80(%rbp)	# operand3, operand3
	movq	%r8, -88(%rbp)	# operand4, operand4
	.loc 1 2252 0
	movl	$19, %esi	#,
	movl	$5, %edi	#,
	call	gen_rtx_REG	#
	movq	%rax, %rdx	# D.27356,
	movl	$0, %esi	#,
	movl	$48, %edi	#,
	call	gen_rtx_fmt_e	#
	movq	%rax, %rbx	#, D.27356
	movq	-88(%rbp), %rax	# operand4, tmp73
	movq	%rax, %rdx	# tmp73,
	movl	$0, %esi	#,
	movl	$48, %edi	#,
	call	gen_rtx_fmt_e	#
	movq	%rax, %r15	#, D.27356
	movq	-72(%rbp), %rax	# operand2, tmp74
	movq	%rax, %rdx	# tmp74,
	movl	$0, %esi	#,
	movl	$48, %edi	#,
	call	gen_rtx_fmt_e	#
	movq	%rax, %r14	#, D.27356
	movq	const_int_rtx+512(%rip), %r12	# const_int_rtx, D.27356
	movq	-80(%rbp), %rax	# operand3, tmp75
	movq	%rax, %rsi	# tmp75,
	movl	$51, %edi	#,
	call	gen_rtx_MEM	#
	movq	%r12, %rcx	# D.27356,
	movq	%rax, %rdx	# D.27356,
	movl	$0, %esi	#,
	movl	$47, %edi	#,
	call	gen_rtx_fmt_ee	#
	movq	%rax, %r13	#, D.27356
	movq	-88(%rbp), %rdx	# operand4, tmp76
	movq	-80(%rbp), %rax	# operand3, tmp77
	movq	%rdx, %rcx	# tmp76,
	movq	%rax, %rdx	# tmp77,
	movl	$5, %esi	#,
	movl	$75, %edi	#,
	call	gen_rtx_fmt_ee	#
	movq	%rax, %rdx	#, D.27356
	movq	-56(%rbp), %rax	# operand0, tmp78
	movq	%rdx, %rcx	# D.27356,
	movq	%rax, %rdx	# tmp78,
	movl	$0, %esi	#,
	movl	$47, %edi	#,
	call	gen_rtx_fmt_ee	#
	movq	%rax, %r12	#, D.27356
	movq	const_int_rtx+512(%rip), %rdx	# const_int_rtx, D.27356
	movq	-64(%rbp), %rax	# operand1, tmp79
	movq	%rdx, %rcx	# D.27356,
	movq	%rax, %rdx	# tmp79,
	movl	$0, %esi	#,
	movl	$47, %edi	#,
	call	gen_rtx_fmt_ee	#
	movq	%rbx, (%rsp)	# D.27356,
	movq	%r15, %r9	# D.27356,
	movq	%r14, %r8	# D.27356,
	movq	%r13, %rcx	# D.27356,
	movq	%r12, %rdx	# D.27356,
	movq	%rax, %rsi	# D.27356,
	movl	$6, %edi	#,
	movl	$0, %eax	#,
	call	gen_rtvec	#
	movq	%rax, %rdx	# D.27357,
	movl	$0, %esi	#,
	movl	$39, %edi	#,
	call	gen_rtx_fmt_E	#
	.loc 1 2272 0
	addq	$56, %rsp	#,
	popq	%rbx	#
	popq	%r12	#
	popq	%r13	#
	popq	%r14	#
	popq	%r15	#
	popq	%rbp	#
	.cfi_def_cfa 7, 8
	ret
	.cfi_endproc
.LFE130:
	.size	gen_rep_stosqi_rex64, .-gen_rep_stosqi_rex64
	.globl	gen_cmpstrqi_nz_1
	.type	gen_cmpstrqi_nz_1, @function
gen_cmpstrqi_nz_1:
.LFB131:
	.loc 1 2283 0
	.cfi_startproc
	pushq	%rbp	#
	.cfi_def_cfa_offset 16
	.cfi_offset 6, -16
	movq	%rsp, %rbp	#,
	.cfi_def_cfa_register 6
	pushq	%r15	#
	pushq	%r14	#
	pushq	%r13	#
	pushq	%r12	#
	pushq	%rbx	#
	subq	$88, %rsp	#,
	.cfi_offset 15, -24
	.cfi_offset 14, -32
	.cfi_offset 13, -40
	.cfi_offset 12, -48
	.cfi_offset 3, -56
	movq	%rdi, -56(%rbp)	# operand0, operand0
	movq	%rsi, -64(%rbp)	# operand1, operand1
	movq	%rdx, -72(%rbp)	# operand2, operand2
	movq	%rcx, -80(%rbp)	# operand3, operand3
	movq	%r8, -88(%rbp)	# operand4, operand4
	movq	%r9, -96(%rbp)	# operand5, operand5
	.loc 1 2284 0
	movq	-72(%rbp), %rax	# operand2, tmp74
	movq	%rax, %rdx	# tmp74,
	movl	$0, %esi	#,
	movl	$49, %edi	#,
	call	gen_rtx_fmt_e	#
	movq	%rax, %r12	#, D.27358
	movq	-64(%rbp), %rax	# operand1, tmp75
	movq	%rax, %rdx	# tmp75,
	movl	$0, %esi	#,
	movl	$49, %edi	#,
	call	gen_rtx_fmt_e	#
	movq	%rax, %rbx	#, D.27358
	movq	-56(%rbp), %rax	# operand0, tmp76
	movq	%rax, %rdx	# tmp76,
	movl	$0, %esi	#,
	movl	$49, %edi	#,
	call	gen_rtx_fmt_e	#
	movq	%rax, -104(%rbp)	#, %sfp
	movl	$19, %esi	#,
	movl	$4, %edi	#,
	call	gen_rtx_REG	#
	movq	%rax, %rdx	# D.27358,
	movl	$0, %esi	#,
	movl	$48, %edi	#,
	call	gen_rtx_fmt_e	#
	movq	%rax, %r15	#, D.27358
	movq	-80(%rbp), %rax	# operand3, tmp77
	movq	%rax, %rdx	# tmp77,
	movl	$0, %esi	#,
	movl	$48, %edi	#,
	call	gen_rtx_fmt_e	#
	movq	%rax, %r14	#, D.27358
	movq	16(%rbp), %rdx	# operand6,
	movl	$0, %esi	#,
	movl	$48, %edi	#,
	call	gen_rtx_fmt_e	#
	movq	%rax, %r13	#, D.27358
	movq	-96(%rbp), %rax	# operand5, tmp78
	movq	%rax, %rsi	# tmp78,
	movl	$51, %edi	#,
	call	gen_rtx_MEM	#
	movq	%rax, -112(%rbp)	#, %sfp
	movq	-88(%rbp), %rax	# operand4, tmp79
	movq	%rax, %rsi	# tmp79,
	movl	$51, %edi	#,
	call	gen_rtx_MEM	#
	movq	-112(%rbp), %rcx	# %sfp,
	movq	%rax, %rdx	# D.27358,
	movl	$52, %esi	#,
	movl	$74, %edi	#,
	call	gen_rtx_fmt_ee	#
	movq	%rax, -112(%rbp)	#, %sfp
	movl	$17, %esi	#,
	movl	$52, %edi	#,
	call	gen_rtx_REG	#
	movq	-112(%rbp), %rcx	# %sfp,
	movq	%rax, %rdx	# D.27358,
	movl	$0, %esi	#,
	movl	$47, %edi	#,
	call	gen_rtx_fmt_ee	#
	movq	%r12, 8(%rsp)	# D.27358,
	movq	%rbx, (%rsp)	# D.27358,
	movq	-104(%rbp), %r9	# %sfp,
	movq	%r15, %r8	# D.27358,
	movq	%r14, %rcx	# D.27358,
	movq	%r13, %rdx	# D.27358,
	movq	%rax, %rsi	# D.27358,
	movl	$7, %edi	#,
	movl	$0, %eax	#,
	call	gen_rtvec	#
	movq	%rax, %rdx	# D.27359,
	movl	$0, %esi	#,
	movl	$39, %edi	#,
	call	gen_rtx_fmt_E	#
	.loc 1 2306 0
	addq	$88, %rsp	#,
	popq	%rbx	#
	popq	%r12	#
	popq	%r13	#
	popq	%r14	#
	popq	%r15	#
	popq	%rbp	#
	.cfi_def_cfa 7, 8
	ret
	.cfi_endproc
.LFE131:
	.size	gen_cmpstrqi_nz_1, .-gen_cmpstrqi_nz_1
	.globl	gen_cmpstrqi_nz_rex_1
	.type	gen_cmpstrqi_nz_rex_1, @function
gen_cmpstrqi_nz_rex_1:
.LFB132:
	.loc 1 2317 0
	.cfi_startproc
	pushq	%rbp	#
	.cfi_def_cfa_offset 16
	.cfi_offset 6, -16
	movq	%rsp, %rbp	#,
	.cfi_def_cfa_register 6
	pushq	%r15	#
	pushq	%r14	#
	pushq	%r13	#
	pushq	%r12	#
	pushq	%rbx	#
	subq	$88, %rsp	#,
	.cfi_offset 15, -24
	.cfi_offset 14, -32
	.cfi_offset 13, -40
	.cfi_offset 12, -48
	.cfi_offset 3, -56
	movq	%rdi, -56(%rbp)	# operand0, operand0
	movq	%rsi, -64(%rbp)	# operand1, operand1
	movq	%rdx, -72(%rbp)	# operand2, operand2
	movq	%rcx, -80(%rbp)	# operand3, operand3
	movq	%r8, -88(%rbp)	# operand4, operand4
	movq	%r9, -96(%rbp)	# operand5, operand5
	.loc 1 2318 0
	movq	-72(%rbp), %rax	# operand2, tmp74
	movq	%rax, %rdx	# tmp74,
	movl	$0, %esi	#,
	movl	$49, %edi	#,
	call	gen_rtx_fmt_e	#
	movq	%rax, %r12	#, D.27361
	movq	-64(%rbp), %rax	# operand1, tmp75
	movq	%rax, %rdx	# tmp75,
	movl	$0, %esi	#,
	movl	$49, %edi	#,
	call	gen_rtx_fmt_e	#
	movq	%rax, %rbx	#, D.27361
	movq	-56(%rbp), %rax	# operand0, tmp76
	movq	%rax, %rdx	# tmp76,
	movl	$0, %esi	#,
	movl	$49, %edi	#,
	call	gen_rtx_fmt_e	#
	movq	%rax, -104(%rbp)	#, %sfp
	movl	$19, %esi	#,
	movl	$4, %edi	#,
	call	gen_rtx_REG	#
	movq	%rax, %rdx	# D.27361,
	movl	$0, %esi	#,
	movl	$48, %edi	#,
	call	gen_rtx_fmt_e	#
	movq	%rax, %r15	#, D.27361
	movq	-80(%rbp), %rax	# operand3, tmp77
	movq	%rax, %rdx	# tmp77,
	movl	$0, %esi	#,
	movl	$48, %edi	#,
	call	gen_rtx_fmt_e	#
	movq	%rax, %r14	#, D.27361
	movq	16(%rbp), %rdx	# operand6,
	movl	$0, %esi	#,
	movl	$48, %edi	#,
	call	gen_rtx_fmt_e	#
	movq	%rax, %r13	#, D.27361
	movq	-96(%rbp), %rax	# operand5, tmp78
	movq	%rax, %rsi	# tmp78,
	movl	$51, %edi	#,
	call	gen_rtx_MEM	#
	movq	%rax, -112(%rbp)	#, %sfp
	movq	-88(%rbp), %rax	# operand4, tmp79
	movq	%rax, %rsi	# tmp79,
	movl	$51, %edi	#,
	call	gen_rtx_MEM	#
	movq	-112(%rbp), %rcx	# %sfp,
	movq	%rax, %rdx	# D.27361,
	movl	$52, %esi	#,
	movl	$74, %edi	#,
	call	gen_rtx_fmt_ee	#
	movq	%rax, -112(%rbp)	#, %sfp
	movl	$17, %esi	#,
	movl	$52, %edi	#,
	call	gen_rtx_REG	#
	movq	-112(%rbp), %rcx	# %sfp,
	movq	%rax, %rdx	# D.27361,
	movl	$0, %esi	#,
	movl	$47, %edi	#,
	call	gen_rtx_fmt_ee	#
	movq	%r12, 8(%rsp)	# D.27361,
	movq	%rbx, (%rsp)	# D.27361,
	movq	-104(%rbp), %r9	# %sfp,
	movq	%r15, %r8	# D.27361,
	movq	%r14, %rcx	# D.27361,
	movq	%r13, %rdx	# D.27361,
	movq	%rax, %rsi	# D.27361,
	movl	$7, %edi	#,
	movl	$0, %eax	#,
	call	gen_rtvec	#
	movq	%rax, %rdx	# D.27362,
	movl	$0, %esi	#,
	movl	$39, %edi	#,
	call	gen_rtx_fmt_E	#
	.loc 1 2340 0
	addq	$88, %rsp	#,
	popq	%rbx	#
	popq	%r12	#
	popq	%r13	#
	popq	%r14	#
	popq	%r15	#
	popq	%rbp	#
	.cfi_def_cfa 7, 8
	ret
	.cfi_endproc
.LFE132:
	.size	gen_cmpstrqi_nz_rex_1, .-gen_cmpstrqi_nz_rex_1
	.globl	gen_cmpstrqi_1
	.type	gen_cmpstrqi_1, @function
gen_cmpstrqi_1:
.LFB133:
	.loc 1 2351 0
	.cfi_startproc
	pushq	%rbp	#
	.cfi_def_cfa_offset 16
	.cfi_offset 6, -16
	movq	%rsp, %rbp	#,
	.cfi_def_cfa_register 6
	pushq	%r15	#
	pushq	%r14	#
	pushq	%r13	#
	pushq	%r12	#
	pushq	%rbx	#
	subq	$104, %rsp	#,
	.cfi_offset 15, -24
	.cfi_offset 14, -32
	.cfi_offset 13, -40
	.cfi_offset 12, -48
	.cfi_offset 3, -56
	movq	%rdi, -56(%rbp)	# operand0, operand0
	movq	%rsi, -64(%rbp)	# operand1, operand1
	movq	%rdx, -72(%rbp)	# operand2, operand2
	movq	%rcx, -80(%rbp)	# operand3, operand3
	movq	%r8, -88(%rbp)	# operand4, operand4
	movq	%r9, -96(%rbp)	# operand5, operand5
	.loc 1 2352 0
	movq	-72(%rbp), %rax	# operand2, tmp79
	movq	%rax, %rdx	# tmp79,
	movl	$0, %esi	#,
	movl	$49, %edi	#,
	call	gen_rtx_fmt_e	#
	movq	%rax, %r12	#, D.27363
	movq	-64(%rbp), %rax	# operand1, tmp80
	movq	%rax, %rdx	# tmp80,
	movl	$0, %esi	#,
	movl	$49, %edi	#,
	call	gen_rtx_fmt_e	#
	movq	%rax, %rbx	#, D.27363
	movq	-56(%rbp), %rax	# operand0, tmp81
	movq	%rax, %rdx	# tmp81,
	movl	$0, %esi	#,
	movl	$49, %edi	#,
	call	gen_rtx_fmt_e	#
	movq	%rax, -104(%rbp)	#, %sfp
	movl	$19, %esi	#,
	movl	$4, %edi	#,
	call	gen_rtx_REG	#
	movq	%rax, %rdx	# D.27363,
	movl	$0, %esi	#,
	movl	$48, %edi	#,
	call	gen_rtx_fmt_e	#
	movq	%rax, %r15	#, D.27363
	movl	$17, %esi	#,
	movl	$52, %edi	#,
	call	gen_rtx_REG	#
	movq	%rax, %rdx	# D.27363,
	movl	$0, %esi	#,
	movl	$48, %edi	#,
	call	gen_rtx_fmt_e	#
	movq	%rax, %r14	#, D.27363
	movq	-80(%rbp), %rax	# operand3, tmp82
	movq	%rax, %rdx	# tmp82,
	movl	$0, %esi	#,
	movl	$48, %edi	#,
	call	gen_rtx_fmt_e	#
	movq	%rax, %r13	#, D.27363
	movq	const_int_rtx+512(%rip), %rcx	# const_int_rtx, D.27363
	movq	%rcx, -112(%rbp)	# D.27363, %sfp
	movq	-96(%rbp), %rax	# operand5, tmp83
	movq	%rax, %rsi	# tmp83,
	movl	$51, %edi	#,
	call	gen_rtx_MEM	#
	movq	%rax, -120(%rbp)	#, %sfp
	movq	-88(%rbp), %rax	# operand4, tmp84
	movq	%rax, %rsi	# tmp84,
	movl	$51, %edi	#,
	call	gen_rtx_MEM	#
	movq	-120(%rbp), %rcx	# %sfp,
	movq	%rax, %rdx	# D.27363,
	movl	$52, %esi	#,
	movl	$74, %edi	#,
	call	gen_rtx_fmt_ee	#
	movq	%rax, -120(%rbp)	#, %sfp
	movq	const_int_rtx+512(%rip), %rax	# const_int_rtx, D.27363
	movq	%rax, %rcx	# D.27363,
	movq	16(%rbp), %rdx	# operand6,
	movl	$0, %esi	#,
	movl	$102, %edi	#,
	call	gen_rtx_fmt_ee	#
	movq	-112(%rbp), %r8	# %sfp,
	movq	-120(%rbp), %rcx	# %sfp,
	movq	%rax, %rdx	# D.27363,
	movl	$52, %esi	#,
	movl	$72, %edi	#,
	call	gen_rtx_fmt_eee	#
	movq	%rax, -112(%rbp)	#, %sfp
	movl	$17, %esi	#,
	movl	$52, %edi	#,
	call	gen_rtx_REG	#
	movq	-112(%rbp), %rcx	# %sfp,
	movq	%rax, %rdx	# D.27363,
	movl	$0, %esi	#,
	movl	$47, %edi	#,
	call	gen_rtx_fmt_ee	#
	movq	%r12, 8(%rsp)	# D.27363,
	movq	%rbx, (%rsp)	# D.27363,
	movq	-104(%rbp), %r9	# %sfp,
	movq	%r15, %r8	# D.27363,
	movq	%r14, %rcx	# D.27363,
	movq	%r13, %rdx	# D.27363,
	movq	%rax, %rsi	# D.27363,
	movl	$7, %edi	#,
	movl	$0, %eax	#,
	call	gen_rtvec	#
	movq	%rax, %rdx	# D.27364,
	movl	$0, %esi	#,
	movl	$39, %edi	#,
	call	gen_rtx_fmt_E	#
	.loc 1 2380 0
	addq	$104, %rsp	#,
	popq	%rbx	#
	popq	%r12	#
	popq	%r13	#
	popq	%r14	#
	popq	%r15	#
	popq	%rbp	#
	.cfi_def_cfa 7, 8
	ret
	.cfi_endproc
.LFE133:
	.size	gen_cmpstrqi_1, .-gen_cmpstrqi_1
	.globl	gen_cmpstrqi_rex_1
	.type	gen_cmpstrqi_rex_1, @function
gen_cmpstrqi_rex_1:
.LFB134:
	.loc 1 2391 0
	.cfi_startproc
	pushq	%rbp	#
	.cfi_def_cfa_offset 16
	.cfi_offset 6, -16
	movq	%rsp, %rbp	#,
	.cfi_def_cfa_register 6
	pushq	%r15	#
	pushq	%r14	#
	pushq	%r13	#
	pushq	%r12	#
	pushq	%rbx	#
	subq	$104, %rsp	#,
	.cfi_offset 15, -24
	.cfi_offset 14, -32
	.cfi_offset 13, -40
	.cfi_offset 12, -48
	.cfi_offset 3, -56
	movq	%rdi, -56(%rbp)	# operand0, operand0
	movq	%rsi, -64(%rbp)	# operand1, operand1
	movq	%rdx, -72(%rbp)	# operand2, operand2
	movq	%rcx, -80(%rbp)	# operand3, operand3
	movq	%r8, -88(%rbp)	# operand4, operand4
	movq	%r9, -96(%rbp)	# operand5, operand5
	.loc 1 2392 0
	movq	-72(%rbp), %rax	# operand2, tmp79
	movq	%rax, %rdx	# tmp79,
	movl	$0, %esi	#,
	movl	$49, %edi	#,
	call	gen_rtx_fmt_e	#
	movq	%rax, %r12	#, D.27365
	movq	-64(%rbp), %rax	# operand1, tmp80
	movq	%rax, %rdx	# tmp80,
	movl	$0, %esi	#,
	movl	$49, %edi	#,
	call	gen_rtx_fmt_e	#
	movq	%rax, %rbx	#, D.27365
	movq	-56(%rbp), %rax	# operand0, tmp81
	movq	%rax, %rdx	# tmp81,
	movl	$0, %esi	#,
	movl	$49, %edi	#,
	call	gen_rtx_fmt_e	#
	movq	%rax, -104(%rbp)	#, %sfp
	movl	$19, %esi	#,
	movl	$4, %edi	#,
	call	gen_rtx_REG	#
	movq	%rax, %rdx	# D.27365,
	movl	$0, %esi	#,
	movl	$48, %edi	#,
	call	gen_rtx_fmt_e	#
	movq	%rax, %r15	#, D.27365
	movl	$17, %esi	#,
	movl	$52, %edi	#,
	call	gen_rtx_REG	#
	movq	%rax, %rdx	# D.27365,
	movl	$0, %esi	#,
	movl	$48, %edi	#,
	call	gen_rtx_fmt_e	#
	movq	%rax, %r14	#, D.27365
	movq	-80(%rbp), %rax	# operand3, tmp82
	movq	%rax, %rdx	# tmp82,
	movl	$0, %esi	#,
	movl	$48, %edi	#,
	call	gen_rtx_fmt_e	#
	movq	%rax, %r13	#, D.27365
	movq	const_int_rtx+512(%rip), %rcx	# const_int_rtx, D.27365
	movq	%rcx, -112(%rbp)	# D.27365, %sfp
	movq	-96(%rbp), %rax	# operand5, tmp83
	movq	%rax, %rsi	# tmp83,
	movl	$51, %edi	#,
	call	gen_rtx_MEM	#
	movq	%rax, -120(%rbp)	#, %sfp
	movq	-88(%rbp), %rax	# operand4, tmp84
	movq	%rax, %rsi	# tmp84,
	movl	$51, %edi	#,
	call	gen_rtx_MEM	#
	movq	-120(%rbp), %rcx	# %sfp,
	movq	%rax, %rdx	# D.27365,
	movl	$52, %esi	#,
	movl	$74, %edi	#,
	call	gen_rtx_fmt_ee	#
	movq	%rax, -120(%rbp)	#, %sfp
	movq	const_int_rtx+512(%rip), %rax	# const_int_rtx, D.27365
	movq	%rax, %rcx	# D.27365,
	movq	16(%rbp), %rdx	# operand6,
	movl	$0, %esi	#,
	movl	$102, %edi	#,
	call	gen_rtx_fmt_ee	#
	movq	-112(%rbp), %r8	# %sfp,
	movq	-120(%rbp), %rcx	# %sfp,
	movq	%rax, %rdx	# D.27365,
	movl	$52, %esi	#,
	movl	$72, %edi	#,
	call	gen_rtx_fmt_eee	#
	movq	%rax, -112(%rbp)	#, %sfp
	movl	$17, %esi	#,
	movl	$52, %edi	#,
	call	gen_rtx_REG	#
	movq	-112(%rbp), %rcx	# %sfp,
	movq	%rax, %rdx	# D.27365,
	movl	$0, %esi	#,
	movl	$47, %edi	#,
	call	gen_rtx_fmt_ee	#
	movq	%r12, 8(%rsp)	# D.27365,
	movq	%rbx, (%rsp)	# D.27365,
	movq	-104(%rbp), %r9	# %sfp,
	movq	%r15, %r8	# D.27365,
	movq	%r14, %rcx	# D.27365,
	movq	%r13, %rdx	# D.27365,
	movq	%rax, %rsi	# D.27365,
	movl	$7, %edi	#,
	movl	$0, %eax	#,
	call	gen_rtvec	#
	movq	%rax, %rdx	# D.27366,
	movl	$0, %esi	#,
	movl	$39, %edi	#,
	call	gen_rtx_fmt_E	#
	.loc 1 2420 0
	addq	$104, %rsp	#,
	popq	%rbx	#
	popq	%r12	#
	popq	%r13	#
	popq	%r14	#
	popq	%r15	#
	popq	%rbp	#
	.cfi_def_cfa 7, 8
	ret
	.cfi_endproc
.LFE134:
	.size	gen_cmpstrqi_rex_1, .-gen_cmpstrqi_rex_1
	.globl	gen_strlenqi_1
	.type	gen_strlenqi_1, @function
gen_strlenqi_1:
.LFB135:
	.loc 1 2430 0
	.cfi_startproc
	pushq	%rbp	#
	.cfi_def_cfa_offset 16
	.cfi_offset 6, -16
	movq	%rsp, %rbp	#,
	.cfi_def_cfa_register 6
	pushq	%r13	#
	pushq	%r12	#
	pushq	%rbx	#
	subq	$56, %rsp	#,
	.cfi_offset 13, -24
	.cfi_offset 12, -32
	.cfi_offset 3, -40
	movq	%rdi, -40(%rbp)	# operand0, operand0
	movq	%rsi, -48(%rbp)	# operand1, operand1
	movq	%rdx, -56(%rbp)	# operand2, operand2
	movq	%rcx, -64(%rbp)	# operand3, operand3
	movq	%r8, -72(%rbp)	# operand4, operand4
	movq	%r9, -80(%rbp)	# operand5, operand5
	.loc 1 2431 0
	movl	$17, %esi	#,
	movl	$52, %edi	#,
	call	gen_rtx_REG	#
	movq	%rax, %rdx	# D.27367,
	movl	$0, %esi	#,
	movl	$49, %edi	#,
	call	gen_rtx_fmt_e	#
	movq	%rax, %r13	#, D.27367
	movq	-48(%rbp), %rax	# operand1, tmp71
	movq	%rax, %rdx	# tmp71,
	movl	$0, %esi	#,
	movl	$49, %edi	#,
	call	gen_rtx_fmt_e	#
	movq	%rax, %r12	#, D.27367
	movl	$19, %esi	#,
	movl	$4, %edi	#,
	call	gen_rtx_REG	#
	movq	%rax, %rdx	# D.27367,
	movl	$0, %esi	#,
	movl	$48, %edi	#,
	call	gen_rtx_fmt_e	#
	movq	%rax, %rbx	#, D.27367
	movq	-80(%rbp), %rax	# operand5, tmp72
	movq	%rax, %rsi	# tmp72,
	movl	$51, %edi	#,
	call	gen_rtx_MEM	#
	movq	-72(%rbp), %rsi	# operand4, tmp73
	movq	-64(%rbp), %rcx	# operand3, tmp74
	movq	-56(%rbp), %rdx	# operand2, tmp75
	movq	%rsi, %r8	# tmp73,
	movq	%rax, %rsi	# D.27367,
	movl	$4, %edi	#,
	movl	$0, %eax	#,
	call	gen_rtvec	#
	movl	$0, %ecx	#,
	movq	%rax, %rdx	# D.27368,
	movl	$4, %esi	#,
	movl	$42, %edi	#,
	call	gen_rtx_fmt_Ei	#
	movq	%rax, %rdx	#, D.27367
	movq	-40(%rbp), %rax	# operand0, tmp76
	movq	%rdx, %rcx	# D.27367,
	movq	%rax, %rdx	# tmp76,
	movl	$0, %esi	#,
	movl	$47, %edi	#,
	call	gen_rtx_fmt_ee	#
	movq	%r13, %r8	# D.27367,
	movq	%r12, %rcx	# D.27367,
	movq	%rbx, %rdx	# D.27367,
	movq	%rax, %rsi	# D.27367,
	movl	$4, %edi	#,
	movl	$0, %eax	#,
	call	gen_rtvec	#
	movq	%rax, %rdx	# D.27368,
	movl	$0, %esi	#,
	movl	$39, %edi	#,
	call	gen_rtx_fmt_E	#
	.loc 1 2450 0
	addq	$56, %rsp	#,
	popq	%rbx	#
	popq	%r12	#
	popq	%r13	#
	popq	%rbp	#
	.cfi_def_cfa 7, 8
	ret
	.cfi_endproc
.LFE135:
	.size	gen_strlenqi_1, .-gen_strlenqi_1
	.globl	gen_strlenqi_rex_1
	.type	gen_strlenqi_rex_1, @function
gen_strlenqi_rex_1:
.LFB136:
	.loc 1 2460 0
	.cfi_startproc
	pushq	%rbp	#
	.cfi_def_cfa_offset 16
	.cfi_offset 6, -16
	movq	%rsp, %rbp	#,
	.cfi_def_cfa_register 6
	pushq	%r13	#
	pushq	%r12	#
	pushq	%rbx	#
	subq	$56, %rsp	#,
	.cfi_offset 13, -24
	.cfi_offset 12, -32
	.cfi_offset 3, -40
	movq	%rdi, -40(%rbp)	# operand0, operand0
	movq	%rsi, -48(%rbp)	# operand1, operand1
	movq	%rdx, -56(%rbp)	# operand2, operand2
	movq	%rcx, -64(%rbp)	# operand3, operand3
	movq	%r8, -72(%rbp)	# operand4, operand4
	movq	%r9, -80(%rbp)	# operand5, operand5
	.loc 1 2461 0
	movl	$17, %esi	#,
	movl	$52, %edi	#,
	call	gen_rtx_REG	#
	movq	%rax, %rdx	# D.27369,
	movl	$0, %esi	#,
	movl	$49, %edi	#,
	call	gen_rtx_fmt_e	#
	movq	%rax, %r13	#, D.27369
	movq	-48(%rbp), %rax	# operand1, tmp71
	movq	%rax, %rdx	# tmp71,
	movl	$0, %esi	#,
	movl	$49, %edi	#,
	call	gen_rtx_fmt_e	#
	movq	%rax, %r12	#, D.27369
	movl	$19, %esi	#,
	movl	$4, %edi	#,
	call	gen_rtx_REG	#
	movq	%rax, %rdx	# D.27369,
	movl	$0, %esi	#,
	movl	$48, %edi	#,
	call	gen_rtx_fmt_e	#
	movq	%rax, %rbx	#, D.27369
	movq	-80(%rbp), %rax	# operand5, tmp72
	movq	%rax, %rsi	# tmp72,
	movl	$51, %edi	#,
	call	gen_rtx_MEM	#
	movq	-72(%rbp), %rsi	# operand4, tmp73
	movq	-64(%rbp), %rcx	# operand3, tmp74
	movq	-56(%rbp), %rdx	# operand2, tmp75
	movq	%rsi, %r8	# tmp73,
	movq	%rax, %rsi	# D.27369,
	movl	$4, %edi	#,
	movl	$0, %eax	#,
	call	gen_rtvec	#
	movl	$0, %ecx	#,
	movq	%rax, %rdx	# D.27370,
	movl	$5, %esi	#,
	movl	$42, %edi	#,
	call	gen_rtx_fmt_Ei	#
	movq	%rax, %rdx	#, D.27369
	movq	-40(%rbp), %rax	# operand0, tmp76
	movq	%rdx, %rcx	# D.27369,
	movq	%rax, %rdx	# tmp76,
	movl	$0, %esi	#,
	movl	$47, %edi	#,
	call	gen_rtx_fmt_ee	#
	movq	%r13, %r8	# D.27369,
	movq	%r12, %rcx	# D.27369,
	movq	%rbx, %rdx	# D.27369,
	movq	%rax, %rsi	# D.27369,
	movl	$4, %edi	#,
	movl	$0, %eax	#,
	call	gen_rtvec	#
	movq	%rax, %rdx	# D.27370,
	movl	$0, %esi	#,
	movl	$39, %edi	#,
	call	gen_rtx_fmt_E	#
	.loc 1 2480 0
	addq	$56, %rsp	#,
	popq	%rbx	#
	popq	%r12	#
	popq	%r13	#
	popq	%rbp	#
	.cfi_def_cfa 7, 8
	ret
	.cfi_endproc
.LFE136:
	.size	gen_strlenqi_rex_1, .-gen_strlenqi_rex_1
	.globl	gen_x86_movdicc_0_m1_rex64
	.type	gen_x86_movdicc_0_m1_rex64, @function
gen_x86_movdicc_0_m1_rex64:
.LFB137:
	.loc 1 2485 0
	.cfi_startproc
	pushq	%rbp	#
	.cfi_def_cfa_offset 16
	.cfi_offset 6, -16
	movq	%rsp, %rbp	#,
	.cfi_def_cfa_register 6
	pushq	%r14	#
	pushq	%r13	#
	pushq	%r12	#
	pushq	%rbx	#
	subq	$16, %rsp	#,
	.cfi_offset 14, -24
	.cfi_offset 13, -32
	.cfi_offset 12, -40
	.cfi_offset 3, -48
	movq	%rdi, -40(%rbp)	# operand0, operand0
	.loc 1 2486 0
	movl	$17, %esi	#,
	movl	$52, %edi	#,
	call	gen_rtx_REG	#
	movq	%rax, %rdx	# D.27371,
	movl	$0, %esi	#,
	movl	$49, %edi	#,
	call	gen_rtx_fmt_e	#
	movq	%rax, %rbx	#, D.27371
	movq	const_int_rtx+512(%rip), %r14	# const_int_rtx, D.27371
	movq	const_int_rtx+504(%rip), %r12	# const_int_rtx, D.27371
	movq	const_int_rtx+512(%rip), %r13	# const_int_rtx, D.27371
	movl	$17, %esi	#,
	movl	$52, %edi	#,
	call	gen_rtx_REG	#
	movq	%r13, %rcx	# D.27371,
	movq	%rax, %rdx	# D.27371,
	movl	$0, %esi	#,
	movl	$111, %edi	#,
	call	gen_rtx_fmt_ee	#
	movq	%r14, %r8	# D.27371,
	movq	%r12, %rcx	# D.27371,
	movq	%rax, %rdx	# D.27371,
	movl	$5, %esi	#,
	movl	$72, %edi	#,
	call	gen_rtx_fmt_eee	#
	movq	%rax, %rdx	#, D.27371
	movq	-40(%rbp), %rax	# operand0, tmp71
	movq	%rdx, %rcx	# D.27371,
	movq	%rax, %rdx	# tmp71,
	movl	$0, %esi	#,
	movl	$47, %edi	#,
	call	gen_rtx_fmt_ee	#
	movq	%rbx, %rdx	# D.27371,
	movq	%rax, %rsi	# D.27371,
	movl	$2, %edi	#,
	movl	$0, %eax	#,
	call	gen_rtvec	#
	movq	%rax, %rdx	# D.27372,
	movl	$0, %esi	#,
	movl	$39, %edi	#,
	call	gen_rtx_fmt_E	#
	.loc 1 2499 0
	addq	$16, %rsp	#,
	popq	%rbx	#
	popq	%r12	#
	popq	%r13	#
	popq	%r14	#
	popq	%rbp	#
	.cfi_def_cfa 7, 8
	ret
	.cfi_endproc
.LFE137:
	.size	gen_x86_movdicc_0_m1_rex64, .-gen_x86_movdicc_0_m1_rex64
	.globl	gen_x86_movsicc_0_m1
	.type	gen_x86_movsicc_0_m1, @function
gen_x86_movsicc_0_m1:
.LFB138:
	.loc 1 2504 0
	.cfi_startproc
	pushq	%rbp	#
	.cfi_def_cfa_offset 16
	.cfi_offset 6, -16
	movq	%rsp, %rbp	#,
	.cfi_def_cfa_register 6
	pushq	%r14	#
	pushq	%r13	#
	pushq	%r12	#
	pushq	%rbx	#
	subq	$16, %rsp	#,
	.cfi_offset 14, -24
	.cfi_offset 13, -32
	.cfi_offset 12, -40
	.cfi_offset 3, -48
	movq	%rdi, -40(%rbp)	# operand0, operand0
	.loc 1 2505 0
	movl	$17, %esi	#,
	movl	$52, %edi	#,
	call	gen_rtx_REG	#
	movq	%rax, %rdx	# D.27373,
	movl	$0, %esi	#,
	movl	$49, %edi	#,
	call	gen_rtx_fmt_e	#
	movq	%rax, %rbx	#, D.27373
	movq	const_int_rtx+512(%rip), %r14	# const_int_rtx, D.27373
	movq	const_int_rtx+504(%rip), %r12	# const_int_rtx, D.27373
	movq	const_int_rtx+512(%rip), %r13	# const_int_rtx, D.27373
	movl	$17, %esi	#,
	movl	$52, %edi	#,
	call	gen_rtx_REG	#
	movq	%r13, %rcx	# D.27373,
	movq	%rax, %rdx	# D.27373,
	movl	$0, %esi	#,
	movl	$111, %edi	#,
	call	gen_rtx_fmt_ee	#
	movq	%r14, %r8	# D.27373,
	movq	%r12, %rcx	# D.27373,
	movq	%rax, %rdx	# D.27373,
	movl	$4, %esi	#,
	movl	$72, %edi	#,
	call	gen_rtx_fmt_eee	#
	movq	%rax, %rdx	#, D.27373
	movq	-40(%rbp), %rax	# operand0, tmp71
	movq	%rdx, %rcx	# D.27373,
	movq	%rax, %rdx	# tmp71,
	movl	$0, %esi	#,
	movl	$47, %edi	#,
	call	gen_rtx_fmt_ee	#
	movq	%rbx, %rdx	# D.27373,
	movq	%rax, %rsi	# D.27373,
	movl	$2, %edi	#,
	movl	$0, %eax	#,
	call	gen_rtvec	#
	movq	%rax, %rdx	# D.27374,
	movl	$0, %esi	#,
	movl	$39, %edi	#,
	call	gen_rtx_fmt_E	#
	.loc 1 2518 0
	addq	$16, %rsp	#,
	popq	%rbx	#
	popq	%r12	#
	popq	%r13	#
	popq	%r14	#
	popq	%rbp	#
	.cfi_def_cfa 7, 8
	ret
	.cfi_endproc
.LFE138:
	.size	gen_x86_movsicc_0_m1, .-gen_x86_movsicc_0_m1
	.globl	gen_pro_epilogue_adjust_stack_rex64
	.type	gen_pro_epilogue_adjust_stack_rex64, @function
gen_pro_epilogue_adjust_stack_rex64:
.LFB139:
	.loc 1 2525 0
	.cfi_startproc
	pushq	%rbp	#
	.cfi_def_cfa_offset 16
	.cfi_offset 6, -16
	movq	%rsp, %rbp	#,
	.cfi_def_cfa_register 6
	pushq	%r12	#
	pushq	%rbx	#
	subq	$32, %rsp	#,
	.cfi_offset 12, -24
	.cfi_offset 3, -32
	movq	%rdi, -24(%rbp)	# operand0, operand0
	movq	%rsi, -32(%rbp)	# operand1, operand1
	movq	%rdx, -40(%rbp)	# operand2, operand2
	.loc 1 2526 0
	movl	$0, %esi	#,
	movl	$62, %edi	#,
	call	gen_rtx_fmt_0	#
	movq	%rax, %rsi	# D.27375,
	movl	$51, %edi	#,
	call	gen_rtx_MEM	#
	movq	%rax, %rdx	# D.27375,
	movl	$0, %esi	#,
	movl	$49, %edi	#,
	call	gen_rtx_fmt_e	#
	movq	%rax, %r12	#, D.27375
	movl	$17, %esi	#,
	movl	$52, %edi	#,
	call	gen_rtx_REG	#
	movq	%rax, %rdx	# D.27375,
	movl	$0, %esi	#,
	movl	$49, %edi	#,
	call	gen_rtx_fmt_e	#
	movq	%rax, %rbx	#, D.27375
	movq	-40(%rbp), %rdx	# operand2, tmp69
	movq	-32(%rbp), %rax	# operand1, tmp70
	movq	%rdx, %rcx	# tmp69,
	movq	%rax, %rdx	# tmp70,
	movl	$5, %esi	#,
	movl	$75, %edi	#,
	call	gen_rtx_fmt_ee	#
	movq	%rax, %rdx	#, D.27375
	movq	-24(%rbp), %rax	# operand0, tmp71
	movq	%rdx, %rcx	# D.27375,
	movq	%rax, %rdx	# tmp71,
	movl	$0, %esi	#,
	movl	$47, %edi	#,
	call	gen_rtx_fmt_ee	#
	movq	%r12, %rcx	# D.27375,
	movq	%rbx, %rdx	# D.27375,
	movq	%rax, %rsi	# D.27375,
	movl	$3, %edi	#,
	movl	$0, %eax	#,
	call	gen_rtvec	#
	movq	%rax, %rdx	# D.27376,
	movl	$0, %esi	#,
	movl	$39, %edi	#,
	call	gen_rtx_fmt_E	#
	.loc 1 2538 0
	addq	$32, %rsp	#,
	popq	%rbx	#
	popq	%r12	#
	popq	%rbp	#
	.cfi_def_cfa 7, 8
	ret
	.cfi_endproc
.LFE139:
	.size	gen_pro_epilogue_adjust_stack_rex64, .-gen_pro_epilogue_adjust_stack_rex64
	.globl	gen_sse_movsfcc
	.type	gen_sse_movsfcc, @function
gen_sse_movsfcc:
.LFB140:
	.loc 1 2548 0
	.cfi_startproc
	pushq	%rbp	#
	.cfi_def_cfa_offset 16
	.cfi_offset 6, -16
	movq	%rsp, %rbp	#,
	.cfi_def_cfa_register 6
	pushq	%r12	#
	pushq	%rbx	#
	subq	$48, %rsp	#,
	.cfi_offset 12, -24
	.cfi_offset 3, -32
	movq	%rdi, -24(%rbp)	# operand0, operand0
	movq	%rsi, -32(%rbp)	# operand1, operand1
	movq	%rdx, -40(%rbp)	# operand2, operand2
	movq	%rcx, -48(%rbp)	# operand3, operand3
	movq	%r8, -56(%rbp)	# operand4, operand4
	movq	%r9, -64(%rbp)	# operand5, operand5
	.loc 1 2549 0
	movl	$17, %esi	#,
	movl	$52, %edi	#,
	call	gen_rtx_REG	#
	movq	%rax, %rdx	# D.27377,
	movl	$0, %esi	#,
	movl	$49, %edi	#,
	call	gen_rtx_fmt_e	#
	movq	%rax, %r12	#, D.27377
	movl	$15, %esi	#,
	movl	$62, %edi	#,
	call	gen_rtx_fmt_0	#
	movq	%rax, %rdx	# D.27377,
	movl	$0, %esi	#,
	movl	$49, %edi	#,
	call	gen_rtx_fmt_e	#
	movq	%rax, %rbx	#, D.27377
	movq	-32(%rbp), %rax	# operand1, tmp71
	movzwl	(%rax), %eax	# operand1_5(D)->code, D.27378
	movzwl	%ax, %eax	# D.27378, D.27379
	movq	-64(%rbp), %rcx	# operand5, tmp72
	movq	-56(%rbp), %rdx	# operand4, tmp73
	movl	$0, %esi	#,
	movl	%eax, %edi	# D.27379,
	movl	$0, %eax	#,
	call	gen_rtx	#
	movq	-48(%rbp), %rcx	# operand3, tmp74
	movq	-40(%rbp), %rdx	# operand2, tmp75
	movq	%rcx, %r8	# tmp74,
	movq	%rdx, %rcx	# tmp75,
	movq	%rax, %rdx	# D.27377,
	movl	$15, %esi	#,
	movl	$72, %edi	#,
	call	gen_rtx_fmt_eee	#
	movq	%rax, %rdx	#, D.27377
	movq	-24(%rbp), %rax	# operand0, tmp76
	movq	%rdx, %rcx	# D.27377,
	movq	%rax, %rdx	# tmp76,
	movl	$0, %esi	#,
	movl	$47, %edi	#,
	call	gen_rtx_fmt_ee	#
	movq	%r12, %rcx	# D.27377,
	movq	%rbx, %rdx	# D.27377,
	movq	%rax, %rsi	# D.27377,
	movl	$3, %edi	#,
	movl	$0, %eax	#,
	call	gen_rtvec	#
	movq	%rax, %rdx	# D.27380,
	movl	$0, %esi	#,
	movl	$39, %edi	#,
	call	gen_rtx_fmt_E	#
	.loc 1 2563 0
	addq	$48, %rsp	#,
	popq	%rbx	#
	popq	%r12	#
	popq	%rbp	#
	.cfi_def_cfa 7, 8
	ret
	.cfi_endproc
.LFE140:
	.size	gen_sse_movsfcc, .-gen_sse_movsfcc
	.globl	gen_sse_movsfcc_eq
	.type	gen_sse_movsfcc_eq, @function
gen_sse_movsfcc_eq:
.LFB141:
	.loc 1 2572 0
	.cfi_startproc
	pushq	%rbp	#
	.cfi_def_cfa_offset 16
	.cfi_offset 6, -16
	movq	%rsp, %rbp	#,
	.cfi_def_cfa_register 6
	pushq	%r12	#
	pushq	%rbx	#
	subq	$48, %rsp	#,
	.cfi_offset 12, -24
	.cfi_offset 3, -32
	movq	%rdi, -24(%rbp)	# operand0, operand0
	movq	%rsi, -32(%rbp)	# operand1, operand1
	movq	%rdx, -40(%rbp)	# operand2, operand2
	movq	%rcx, -48(%rbp)	# operand3, operand3
	movq	%r8, -56(%rbp)	# operand4, operand4
	.loc 1 2573 0
	movl	$17, %esi	#,
	movl	$52, %edi	#,
	call	gen_rtx_REG	#
	movq	%rax, %rdx	# D.27381,
	movl	$0, %esi	#,
	movl	$49, %edi	#,
	call	gen_rtx_fmt_e	#
	movq	%rax, %r12	#, D.27381
	movl	$15, %esi	#,
	movl	$62, %edi	#,
	call	gen_rtx_fmt_0	#
	movq	%rax, %rdx	# D.27381,
	movl	$0, %esi	#,
	movl	$49, %edi	#,
	call	gen_rtx_fmt_e	#
	movq	%rax, %rbx	#, D.27381
	movq	-56(%rbp), %rdx	# operand4, tmp69
	movq	-48(%rbp), %rax	# operand3, tmp70
	movq	%rdx, %rcx	# tmp69,
	movq	%rax, %rdx	# tmp70,
	movl	$0, %esi	#,
	movl	$103, %edi	#,
	call	gen_rtx_fmt_ee	#
	movq	-40(%rbp), %rcx	# operand2, tmp71
	movq	-32(%rbp), %rdx	# operand1, tmp72
	movq	%rcx, %r8	# tmp71,
	movq	%rdx, %rcx	# tmp72,
	movq	%rax, %rdx	# D.27381,
	movl	$15, %esi	#,
	movl	$72, %edi	#,
	call	gen_rtx_fmt_eee	#
	movq	%rax, %rdx	#, D.27381
	movq	-24(%rbp), %rax	# operand0, tmp73
	movq	%rdx, %rcx	# D.27381,
	movq	%rax, %rdx	# tmp73,
	movl	$0, %esi	#,
	movl	$47, %edi	#,
	call	gen_rtx_fmt_ee	#
	movq	%r12, %rcx	# D.27381,
	movq	%rbx, %rdx	# D.27381,
	movq	%rax, %rsi	# D.27381,
	movl	$3, %edi	#,
	movl	$0, %eax	#,
	call	gen_rtvec	#
	movq	%rax, %rdx	# D.27382,
	movl	$0, %esi	#,
	movl	$39, %edi	#,
	call	gen_rtx_fmt_E	#
	.loc 1 2587 0
	addq	$48, %rsp	#,
	popq	%rbx	#
	popq	%r12	#
	popq	%rbp	#
	.cfi_def_cfa 7, 8
	ret
	.cfi_endproc
.LFE141:
	.size	gen_sse_movsfcc_eq, .-gen_sse_movsfcc_eq
	.globl	gen_sse_movdfcc
	.type	gen_sse_movdfcc, @function
gen_sse_movdfcc:
.LFB142:
	.loc 1 2597 0
	.cfi_startproc
	pushq	%rbp	#
	.cfi_def_cfa_offset 16
	.cfi_offset 6, -16
	movq	%rsp, %rbp	#,
	.cfi_def_cfa_register 6
	pushq	%r12	#
	pushq	%rbx	#
	subq	$48, %rsp	#,
	.cfi_offset 12, -24
	.cfi_offset 3, -32
	movq	%rdi, -24(%rbp)	# operand0, operand0
	movq	%rsi, -32(%rbp)	# operand1, operand1
	movq	%rdx, -40(%rbp)	# operand2, operand2
	movq	%rcx, -48(%rbp)	# operand3, operand3
	movq	%r8, -56(%rbp)	# operand4, operand4
	movq	%r9, -64(%rbp)	# operand5, operand5
	.loc 1 2598 0
	movl	$17, %esi	#,
	movl	$52, %edi	#,
	call	gen_rtx_REG	#
	movq	%rax, %rdx	# D.27383,
	movl	$0, %esi	#,
	movl	$49, %edi	#,
	call	gen_rtx_fmt_e	#
	movq	%rax, %r12	#, D.27383
	movl	$16, %esi	#,
	movl	$62, %edi	#,
	call	gen_rtx_fmt_0	#
	movq	%rax, %rdx	# D.27383,
	movl	$0, %esi	#,
	movl	$49, %edi	#,
	call	gen_rtx_fmt_e	#
	movq	%rax, %rbx	#, D.27383
	movq	-32(%rbp), %rax	# operand1, tmp71
	movzwl	(%rax), %eax	# operand1_5(D)->code, D.27384
	movzwl	%ax, %eax	# D.27384, D.27385
	movq	-64(%rbp), %rcx	# operand5, tmp72
	movq	-56(%rbp), %rdx	# operand4, tmp73
	movl	$0, %esi	#,
	movl	%eax, %edi	# D.27385,
	movl	$0, %eax	#,
	call	gen_rtx	#
	movq	-48(%rbp), %rcx	# operand3, tmp74
	movq	-40(%rbp), %rdx	# operand2, tmp75
	movq	%rcx, %r8	# tmp74,
	movq	%rdx, %rcx	# tmp75,
	movq	%rax, %rdx	# D.27383,
	movl	$16, %esi	#,
	movl	$72, %edi	#,
	call	gen_rtx_fmt_eee	#
	movq	%rax, %rdx	#, D.27383
	movq	-24(%rbp), %rax	# operand0, tmp76
	movq	%rdx, %rcx	# D.27383,
	movq	%rax, %rdx	# tmp76,
	movl	$0, %esi	#,
	movl	$47, %edi	#,
	call	gen_rtx_fmt_ee	#
	movq	%r12, %rcx	# D.27383,
	movq	%rbx, %rdx	# D.27383,
	movq	%rax, %rsi	# D.27383,
	movl	$3, %edi	#,
	movl	$0, %eax	#,
	call	gen_rtvec	#
	movq	%rax, %rdx	# D.27386,
	movl	$0, %esi	#,
	movl	$39, %edi	#,
	call	gen_rtx_fmt_E	#
	.loc 1 2612 0
	addq	$48, %rsp	#,
	popq	%rbx	#
	popq	%r12	#
	popq	%rbp	#
	.cfi_def_cfa 7, 8
	ret
	.cfi_endproc
.LFE142:
	.size	gen_sse_movdfcc, .-gen_sse_movdfcc
	.globl	gen_sse_movdfcc_eq
	.type	gen_sse_movdfcc_eq, @function
gen_sse_movdfcc_eq:
.LFB143:
	.loc 1 2621 0
	.cfi_startproc
	pushq	%rbp	#
	.cfi_def_cfa_offset 16
	.cfi_offset 6, -16
	movq	%rsp, %rbp	#,
	.cfi_def_cfa_register 6
	pushq	%r12	#
	pushq	%rbx	#
	subq	$48, %rsp	#,
	.cfi_offset 12, -24
	.cfi_offset 3, -32
	movq	%rdi, -24(%rbp)	# operand0, operand0
	movq	%rsi, -32(%rbp)	# operand1, operand1
	movq	%rdx, -40(%rbp)	# operand2, operand2
	movq	%rcx, -48(%rbp)	# operand3, operand3
	movq	%r8, -56(%rbp)	# operand4, operand4
	.loc 1 2622 0
	movl	$17, %esi	#,
	movl	$52, %edi	#,
	call	gen_rtx_REG	#
	movq	%rax, %rdx	# D.27387,
	movl	$0, %esi	#,
	movl	$49, %edi	#,
	call	gen_rtx_fmt_e	#
	movq	%rax, %r12	#, D.27387
	movl	$16, %esi	#,
	movl	$62, %edi	#,
	call	gen_rtx_fmt_0	#
	movq	%rax, %rdx	# D.27387,
	movl	$0, %esi	#,
	movl	$49, %edi	#,
	call	gen_rtx_fmt_e	#
	movq	%rax, %rbx	#, D.27387
	movq	-56(%rbp), %rdx	# operand4, tmp69
	movq	-48(%rbp), %rax	# operand3, tmp70
	movq	%rdx, %rcx	# tmp69,
	movq	%rax, %rdx	# tmp70,
	movl	$0, %esi	#,
	movl	$103, %edi	#,
	call	gen_rtx_fmt_ee	#
	movq	-40(%rbp), %rcx	# operand2, tmp71
	movq	-32(%rbp), %rdx	# operand1, tmp72
	movq	%rcx, %r8	# tmp71,
	movq	%rdx, %rcx	# tmp72,
	movq	%rax, %rdx	# D.27387,
	movl	$16, %esi	#,
	movl	$72, %edi	#,
	call	gen_rtx_fmt_eee	#
	movq	%rax, %rdx	#, D.27387
	movq	-24(%rbp), %rax	# operand0, tmp73
	movq	%rdx, %rcx	# D.27387,
	movq	%rax, %rdx	# tmp73,
	movl	$0, %esi	#,
	movl	$47, %edi	#,
	call	gen_rtx_fmt_ee	#
	movq	%r12, %rcx	# D.27387,
	movq	%rbx, %rdx	# D.27387,
	movq	%rax, %rsi	# D.27387,
	movl	$3, %edi	#,
	movl	$0, %eax	#,
	call	gen_rtvec	#
	movq	%rax, %rdx	# D.27388,
	movl	$0, %esi	#,
	movl	$39, %edi	#,
	call	gen_rtx_fmt_E	#
	.loc 1 2636 0
	addq	$48, %rsp	#,
	popq	%rbx	#
	popq	%r12	#
	popq	%rbp	#
	.cfi_def_cfa 7, 8
	ret
	.cfi_endproc
.LFE143:
	.size	gen_sse_movdfcc_eq, .-gen_sse_movdfcc_eq
	.globl	gen_allocate_stack_worker_1
	.type	gen_allocate_stack_worker_1, @function
gen_allocate_stack_worker_1:
.LFB144:
	.loc 1 2641 0
	.cfi_startproc
	pushq	%rbp	#
	.cfi_def_cfa_offset 16
	.cfi_offset 6, -16
	movq	%rsp, %rbp	#,
	.cfi_def_cfa_register 6
	pushq	%r13	#
	pushq	%r12	#
	pushq	%rbx	#
	subq	$24, %rsp	#,
	.cfi_offset 13, -24
	.cfi_offset 12, -32
	.cfi_offset 3, -40
	movq	%rdi, -40(%rbp)	# operand0, operand0
	.loc 1 2642 0
	movl	$17, %esi	#,
	movl	$52, %edi	#,
	call	gen_rtx_REG	#
	movq	%rax, %rdx	# D.27389,
	movl	$0, %esi	#,
	movl	$49, %edi	#,
	call	gen_rtx_fmt_e	#
	movq	%rax, %r13	#, D.27389
	movq	-40(%rbp), %rax	# operand0, tmp71
	movq	%rax, %rdx	# tmp71,
	movl	$0, %esi	#,
	movl	$49, %edi	#,
	call	gen_rtx_fmt_e	#
	movq	%rax, %r12	#, D.27389
	movl	$7, %esi	#,
	movl	$4, %edi	#,
	call	gen_rtx_REG	#
	movq	-40(%rbp), %rdx	# operand0, tmp72
	movq	%rdx, %rcx	# tmp72,
	movq	%rax, %rdx	# D.27389,
	movl	$4, %esi	#,
	movl	$76, %edi	#,
	call	gen_rtx_fmt_ee	#
	movq	%rax, %rbx	#, D.27389
	movl	$7, %esi	#,
	movl	$4, %edi	#,
	call	gen_rtx_REG	#
	movq	%rbx, %rcx	# D.27389,
	movq	%rax, %rdx	# D.27389,
	movl	$0, %esi	#,
	movl	$47, %edi	#,
	call	gen_rtx_fmt_ee	#
	movq	%rax, %rbx	#, D.27389
	movq	-40(%rbp), %rax	# operand0, tmp73
	movq	%rax, %rsi	# tmp73,
	movl	$1, %edi	#,
	movl	$0, %eax	#,
	call	gen_rtvec	#
	movl	$3, %ecx	#,
	movq	%rax, %rdx	# D.27390,
	movl	$4, %esi	#,
	movl	$42, %edi	#,
	call	gen_rtx_fmt_Ei	#
	movq	%r13, %r8	# D.27389,
	movq	%r12, %rcx	# D.27389,
	movq	%rbx, %rdx	# D.27389,
	movq	%rax, %rsi	# D.27389,
	movl	$4, %edi	#,
	movl	$0, %eax	#,
	call	gen_rtvec	#
	movq	%rax, %rdx	# D.27390,
	movl	$0, %esi	#,
	movl	$39, %edi	#,
	call	gen_rtx_fmt_E	#
	.loc 1 2659 0
	addq	$24, %rsp	#,
	popq	%rbx	#
	popq	%r12	#
	popq	%r13	#
	popq	%rbp	#
	.cfi_def_cfa 7, 8
	ret
	.cfi_endproc
.LFE144:
	.size	gen_allocate_stack_worker_1, .-gen_allocate_stack_worker_1
	.globl	gen_allocate_stack_worker_rex64
	.type	gen_allocate_stack_worker_rex64, @function
gen_allocate_stack_worker_rex64:
.LFB145:
	.loc 1 2664 0
	.cfi_startproc
	pushq	%rbp	#
	.cfi_def_cfa_offset 16
	.cfi_offset 6, -16
	movq	%rsp, %rbp	#,
	.cfi_def_cfa_register 6
	pushq	%r13	#
	pushq	%r12	#
	pushq	%rbx	#
	subq	$24, %rsp	#,
	.cfi_offset 13, -24
	.cfi_offset 12, -32
	.cfi_offset 3, -40
	movq	%rdi, -40(%rbp)	# operand0, operand0
	.loc 1 2665 0
	movl	$17, %esi	#,
	movl	$52, %edi	#,
	call	gen_rtx_REG	#
	movq	%rax, %rdx	# D.27391,
	movl	$0, %esi	#,
	movl	$49, %edi	#,
	call	gen_rtx_fmt_e	#
	movq	%rax, %r13	#, D.27391
	movq	-40(%rbp), %rax	# operand0, tmp71
	movq	%rax, %rdx	# tmp71,
	movl	$0, %esi	#,
	movl	$49, %edi	#,
	call	gen_rtx_fmt_e	#
	movq	%rax, %r12	#, D.27391
	movl	$7, %esi	#,
	movl	$5, %edi	#,
	call	gen_rtx_REG	#
	movq	-40(%rbp), %rdx	# operand0, tmp72
	movq	%rdx, %rcx	# tmp72,
	movq	%rax, %rdx	# D.27391,
	movl	$5, %esi	#,
	movl	$76, %edi	#,
	call	gen_rtx_fmt_ee	#
	movq	%rax, %rbx	#, D.27391
	movl	$7, %esi	#,
	movl	$5, %edi	#,
	call	gen_rtx_REG	#
	movq	%rbx, %rcx	# D.27391,
	movq	%rax, %rdx	# D.27391,
	movl	$0, %esi	#,
	movl	$47, %edi	#,
	call	gen_rtx_fmt_ee	#
	movq	%rax, %rbx	#, D.27391
	movq	-40(%rbp), %rax	# operand0, tmp73
	movq	%rax, %rsi	# tmp73,
	movl	$1, %edi	#,
	movl	$0, %eax	#,
	call	gen_rtvec	#
	movl	$3, %ecx	#,
	movq	%rax, %rdx	# D.27392,
	movl	$5, %esi	#,
	movl	$42, %edi	#,
	call	gen_rtx_fmt_Ei	#
	movq	%r13, %r8	# D.27391,
	movq	%r12, %rcx	# D.27391,
	movq	%rbx, %rdx	# D.27391,
	movq	%rax, %rsi	# D.27391,
	movl	$4, %edi	#,
	movl	$0, %eax	#,
	call	gen_rtvec	#
	movq	%rax, %rdx	# D.27392,
	movl	$0, %esi	#,
	movl	$39, %edi	#,
	call	gen_rtx_fmt_E	#
	.loc 1 2682 0
	addq	$24, %rsp	#,
	popq	%rbx	#
	popq	%r12	#
	popq	%r13	#
	popq	%rbp	#
	.cfi_def_cfa 7, 8
	ret
	.cfi_endproc
.LFE145:
	.size	gen_allocate_stack_worker_rex64, .-gen_allocate_stack_worker_rex64
	.globl	gen_trap
	.type	gen_trap, @function
gen_trap:
.LFB146:
	.loc 1 2686 0
	.cfi_startproc
	pushq	%rbp	#
	.cfi_def_cfa_offset 16
	.cfi_offset 6, -16
	movq	%rsp, %rbp	#,
	.cfi_def_cfa_register 6
	.loc 1 2687 0
	movl	$5, %esi	#,
	movl	$0, %edi	#,
	call	gen_rtx_CONST_INT	#
	movq	%rax, %rdx	#, D.27393
	movq	const_int_rtx+520(%rip), %rax	# const_int_rtx, D.27393
	movq	%rdx, %rcx	# D.27393,
	movq	%rax, %rdx	# D.27393,
	movl	$0, %esi	#,
	movl	$52, %edi	#,
	call	gen_rtx_fmt_ee	#
	.loc 1 2690 0
	popq	%rbp	#
	.cfi_def_cfa 7, 8
	ret
	.cfi_endproc
.LFE146:
	.size	gen_trap, .-gen_trap
	.globl	gen_movv4sf_internal
	.type	gen_movv4sf_internal, @function
gen_movv4sf_internal:
.LFB147:
	.loc 1 2696 0
	.cfi_startproc
	pushq	%rbp	#
	.cfi_def_cfa_offset 16
	.cfi_offset 6, -16
	movq	%rsp, %rbp	#,
	.cfi_def_cfa_register 6
	subq	$16, %rsp	#,
	movq	%rdi, -8(%rbp)	# operand0, operand0
	movq	%rsi, -16(%rbp)	# operand1, operand1
	.loc 1 2697 0
	movq	-16(%rbp), %rdx	# operand1, tmp61
	movq	-8(%rbp), %rax	# operand0, tmp62
	movq	%rdx, %rcx	# tmp61,
	movq	%rax, %rdx	# tmp62,
	movl	$0, %esi	#,
	movl	$47, %edi	#,
	call	gen_rtx_fmt_ee	#
	.loc 1 2700 0
	leave
	.cfi_def_cfa 7, 8
	ret
	.cfi_endproc
.LFE147:
	.size	gen_movv4sf_internal, .-gen_movv4sf_internal
	.globl	gen_movv4si_internal
	.type	gen_movv4si_internal, @function
gen_movv4si_internal:
.LFB148:
	.loc 1 2706 0
	.cfi_startproc
	pushq	%rbp	#
	.cfi_def_cfa_offset 16
	.cfi_offset 6, -16
	movq	%rsp, %rbp	#,
	.cfi_def_cfa_register 6
	subq	$16, %rsp	#,
	movq	%rdi, -8(%rbp)	# operand0, operand0
	movq	%rsi, -16(%rbp)	# operand1, operand1
	.loc 1 2707 0
	movq	-16(%rbp), %rdx	# operand1, tmp61
	movq	-8(%rbp), %rax	# operand0, tmp62
	movq	%rdx, %rcx	# tmp61,
	movq	%rax, %rdx	# tmp62,
	movl	$0, %esi	#,
	movl	$47, %edi	#,
	call	gen_rtx_fmt_ee	#
	.loc 1 2710 0
	leave
	.cfi_def_cfa 7, 8
	ret
	.cfi_endproc
.LFE148:
	.size	gen_movv4si_internal, .-gen_movv4si_internal
	.globl	gen_movv8qi_internal
	.type	gen_movv8qi_internal, @function
gen_movv8qi_internal:
.LFB149:
	.loc 1 2716 0
	.cfi_startproc
	pushq	%rbp	#
	.cfi_def_cfa_offset 16
	.cfi_offset 6, -16
	movq	%rsp, %rbp	#,
	.cfi_def_cfa_register 6
	subq	$16, %rsp	#,
	movq	%rdi, -8(%rbp)	# operand0, operand0
	movq	%rsi, -16(%rbp)	# operand1, operand1
	.loc 1 2717 0
	movq	-16(%rbp), %rdx	# operand1, tmp61
	movq	-8(%rbp), %rax	# operand0, tmp62
	movq	%rdx, %rcx	# tmp61,
	movq	%rax, %rdx	# tmp62,
	movl	$0, %esi	#,
	movl	$47, %edi	#,
	call	gen_rtx_fmt_ee	#
	.loc 1 2720 0
	leave
	.cfi_def_cfa 7, 8
	ret
	.cfi_endproc
.LFE149:
	.size	gen_movv8qi_internal, .-gen_movv8qi_internal
	.globl	gen_movv4hi_internal
	.type	gen_movv4hi_internal, @function
gen_movv4hi_internal:
.LFB150:
	.loc 1 2726 0
	.cfi_startproc
	pushq	%rbp	#
	.cfi_def_cfa_offset 16
	.cfi_offset 6, -16
	movq	%rsp, %rbp	#,
	.cfi_def_cfa_register 6
	subq	$16, %rsp	#,
	movq	%rdi, -8(%rbp)	# operand0, operand0
	movq	%rsi, -16(%rbp)	# operand1, operand1
	.loc 1 2727 0
	movq	-16(%rbp), %rdx	# operand1, tmp61
	movq	-8(%rbp), %rax	# operand0, tmp62
	movq	%rdx, %rcx	# tmp61,
	movq	%rax, %rdx	# tmp62,
	movl	$0, %esi	#,
	movl	$47, %edi	#,
	call	gen_rtx_fmt_ee	#
	.loc 1 2730 0
	leave
	.cfi_def_cfa 7, 8
	ret
	.cfi_endproc
.LFE150:
	.size	gen_movv4hi_internal, .-gen_movv4hi_internal
	.globl	gen_movv2si_internal
	.type	gen_movv2si_internal, @function
gen_movv2si_internal:
.LFB151:
	.loc 1 2736 0
	.cfi_startproc
	pushq	%rbp	#
	.cfi_def_cfa_offset 16
	.cfi_offset 6, -16
	movq	%rsp, %rbp	#,
	.cfi_def_cfa_register 6
	subq	$16, %rsp	#,
	movq	%rdi, -8(%rbp)	# operand0, operand0
	movq	%rsi, -16(%rbp)	# operand1, operand1
	.loc 1 2737 0
	movq	-16(%rbp), %rdx	# operand1, tmp61
	movq	-8(%rbp), %rax	# operand0, tmp62
	movq	%rdx, %rcx	# tmp61,
	movq	%rax, %rdx	# tmp62,
	movl	$0, %esi	#,
	movl	$47, %edi	#,
	call	gen_rtx_fmt_ee	#
	.loc 1 2740 0
	leave
	.cfi_def_cfa 7, 8
	ret
	.cfi_endproc
.LFE151:
	.size	gen_movv2si_internal, .-gen_movv2si_internal
	.globl	gen_movv2sf_internal
	.type	gen_movv2sf_internal, @function
gen_movv2sf_internal:
.LFB152:
	.loc 1 2746 0
	.cfi_startproc
	pushq	%rbp	#
	.cfi_def_cfa_offset 16
	.cfi_offset 6, -16
	movq	%rsp, %rbp	#,
	.cfi_def_cfa_register 6
	subq	$16, %rsp	#,
	movq	%rdi, -8(%rbp)	# operand0, operand0
	movq	%rsi, -16(%rbp)	# operand1, operand1
	.loc 1 2747 0
	movq	-16(%rbp), %rdx	# operand1, tmp61
	movq	-8(%rbp), %rax	# operand0, tmp62
	movq	%rdx, %rcx	# tmp61,
	movq	%rax, %rdx	# tmp62,
	movl	$0, %esi	#,
	movl	$47, %edi	#,
	call	gen_rtx_fmt_ee	#
	.loc 1 2750 0
	leave
	.cfi_def_cfa 7, 8
	ret
	.cfi_endproc
.LFE152:
	.size	gen_movv2sf_internal, .-gen_movv2sf_internal
	.globl	gen_movti_internal
	.type	gen_movti_internal, @function
gen_movti_internal:
.LFB153:
	.loc 1 2756 0
	.cfi_startproc
	pushq	%rbp	#
	.cfi_def_cfa_offset 16
	.cfi_offset 6, -16
	movq	%rsp, %rbp	#,
	.cfi_def_cfa_register 6
	subq	$16, %rsp	#,
	movq	%rdi, -8(%rbp)	# operand0, operand0
	movq	%rsi, -16(%rbp)	# operand1, operand1
	.loc 1 2757 0
	movq	-16(%rbp), %rdx	# operand1, tmp61
	movq	-8(%rbp), %rax	# operand0, tmp62
	movq	%rdx, %rcx	# tmp61,
	movq	%rax, %rdx	# tmp62,
	movl	$0, %esi	#,
	movl	$47, %edi	#,
	call	gen_rtx_fmt_ee	#
	.loc 1 2760 0
	leave
	.cfi_def_cfa 7, 8
	ret
	.cfi_endproc
.LFE153:
	.size	gen_movti_internal, .-gen_movti_internal
	.globl	gen_sse_movaps
	.type	gen_sse_movaps, @function
gen_sse_movaps:
.LFB154:
	.loc 1 2766 0
	.cfi_startproc
	pushq	%rbp	#
	.cfi_def_cfa_offset 16
	.cfi_offset 6, -16
	movq	%rsp, %rbp	#,
	.cfi_def_cfa_register 6
	subq	$16, %rsp	#,
	movq	%rdi, -8(%rbp)	# operand0, operand0
	movq	%rsi, -16(%rbp)	# operand1, operand1
	.loc 1 2767 0
	movq	-16(%rbp), %rax	# operand1, tmp63
	movq	%rax, %rsi	# tmp63,
	movl	$1, %edi	#,
	movl	$0, %eax	#,
	call	gen_rtvec	#
	movl	$38, %ecx	#,
	movq	%rax, %rdx	# D.27401,
	movl	$46, %esi	#,
	movl	$42, %edi	#,
	call	gen_rtx_fmt_Ei	#
	movq	%rax, %rdx	#, D.27402
	movq	-8(%rbp), %rax	# operand0, tmp64
	movq	%rdx, %rcx	# D.27402,
	movq	%rax, %rdx	# tmp64,
	movl	$0, %esi	#,
	movl	$47, %edi	#,
	call	gen_rtx_fmt_ee	#
	.loc 1 2773 0
	leave
	.cfi_def_cfa 7, 8
	ret
	.cfi_endproc
.LFE154:
	.size	gen_sse_movaps, .-gen_sse_movaps
	.globl	gen_sse_movups
	.type	gen_sse_movups, @function
gen_sse_movups:
.LFB155:
	.loc 1 2779 0
	.cfi_startproc
	pushq	%rbp	#
	.cfi_def_cfa_offset 16
	.cfi_offset 6, -16
	movq	%rsp, %rbp	#,
	.cfi_def_cfa_register 6
	subq	$16, %rsp	#,
	movq	%rdi, -8(%rbp)	# operand0, operand0
	movq	%rsi, -16(%rbp)	# operand1, operand1
	.loc 1 2780 0
	movq	-16(%rbp), %rax	# operand1, tmp63
	movq	%rax, %rsi	# tmp63,
	movl	$1, %edi	#,
	movl	$0, %eax	#,
	call	gen_rtvec	#
	movl	$39, %ecx	#,
	movq	%rax, %rdx	# D.27403,
	movl	$46, %esi	#,
	movl	$42, %edi	#,
	call	gen_rtx_fmt_Ei	#
	movq	%rax, %rdx	#, D.27404
	movq	-8(%rbp), %rax	# operand0, tmp64
	movq	%rdx, %rcx	# D.27404,
	movq	%rax, %rdx	# tmp64,
	movl	$0, %esi	#,
	movl	$47, %edi	#,
	call	gen_rtx_fmt_ee	#
	.loc 1 2786 0
	leave
	.cfi_def_cfa 7, 8
	ret
	.cfi_endproc
.LFE155:
	.size	gen_sse_movups, .-gen_sse_movups
	.globl	gen_sse_movmskps
	.type	gen_sse_movmskps, @function
gen_sse_movmskps:
.LFB156:
	.loc 1 2792 0
	.cfi_startproc
	pushq	%rbp	#
	.cfi_def_cfa_offset 16
	.cfi_offset 6, -16
	movq	%rsp, %rbp	#,
	.cfi_def_cfa_register 6
	subq	$16, %rsp	#,
	movq	%rdi, -8(%rbp)	# operand0, operand0
	movq	%rsi, -16(%rbp)	# operand1, operand1
	.loc 1 2793 0
	movq	-16(%rbp), %rax	# operand1, tmp63
	movq	%rax, %rsi	# tmp63,
	movl	$1, %edi	#,
	movl	$0, %eax	#,
	call	gen_rtvec	#
	movl	$33, %ecx	#,
	movq	%rax, %rdx	# D.27405,
	movl	$4, %esi	#,
	movl	$42, %edi	#,
	call	gen_rtx_fmt_Ei	#
	movq	%rax, %rdx	#, D.27406
	movq	-8(%rbp), %rax	# operand0, tmp64
	movq	%rdx, %rcx	# D.27406,
	movq	%rax, %rdx	# tmp64,
	movl	$0, %esi	#,
	movl	$47, %edi	#,
	call	gen_rtx_fmt_ee	#
	.loc 1 2799 0
	leave
	.cfi_def_cfa 7, 8
	ret
	.cfi_endproc
.LFE156:
	.size	gen_sse_movmskps, .-gen_sse_movmskps
	.globl	gen_mmx_pmovmskb
	.type	gen_mmx_pmovmskb, @function
gen_mmx_pmovmskb:
.LFB157:
	.loc 1 2805 0
	.cfi_startproc
	pushq	%rbp	#
	.cfi_def_cfa_offset 16
	.cfi_offset 6, -16
	movq	%rsp, %rbp	#,
	.cfi_def_cfa_register 6
	subq	$16, %rsp	#,
	movq	%rdi, -8(%rbp)	# operand0, operand0
	movq	%rsi, -16(%rbp)	# operand1, operand1
	.loc 1 2806 0
	movq	-16(%rbp), %rax	# operand1, tmp63
	movq	%rax, %rsi	# tmp63,
	movl	$1, %edi	#,
	movl	$0, %eax	#,
	call	gen_rtvec	#
	movl	$33, %ecx	#,
	movq	%rax, %rdx	# D.27407,
	movl	$4, %esi	#,
	movl	$42, %edi	#,
	call	gen_rtx_fmt_Ei	#
	movq	%rax, %rdx	#, D.27408
	movq	-8(%rbp), %rax	# operand0, tmp64
	movq	%rdx, %rcx	# D.27408,
	movq	%rax, %rdx	# tmp64,
	movl	$0, %esi	#,
	movl	$47, %edi	#,
	call	gen_rtx_fmt_ee	#
	.loc 1 2812 0
	leave
	.cfi_def_cfa 7, 8
	ret
	.cfi_endproc
.LFE157:
	.size	gen_mmx_pmovmskb, .-gen_mmx_pmovmskb
	.globl	gen_mmx_maskmovq
	.type	gen_mmx_maskmovq, @function
gen_mmx_maskmovq:
.LFB158:
	.loc 1 2819 0
	.cfi_startproc
	pushq	%rbp	#
	.cfi_def_cfa_offset 16
	.cfi_offset 6, -16
	movq	%rsp, %rbp	#,
	.cfi_def_cfa_register 6
	pushq	%rbx	#
	subq	$40, %rsp	#,
	.cfi_offset 3, -24
	movq	%rdi, -24(%rbp)	# operand0, operand0
	movq	%rsi, -32(%rbp)	# operand1, operand1
	movq	%rdx, -40(%rbp)	# operand2, operand2
	.loc 1 2820 0
	movq	-40(%rbp), %rdx	# operand2, tmp64
	movq	-32(%rbp), %rax	# operand1, tmp65
	movq	%rax, %rsi	# tmp65,
	movl	$2, %edi	#,
	movl	$0, %eax	#,
	call	gen_rtvec	#
	movl	$32, %ecx	#,
	movq	%rax, %rdx	# D.27409,
	movl	$39, %esi	#,
	movl	$42, %edi	#,
	call	gen_rtx_fmt_Ei	#
	movq	%rax, %rbx	#, D.27410
	movq	-24(%rbp), %rax	# operand0, tmp66
	movq	%rax, %rsi	# tmp66,
	movl	$39, %edi	#,
	call	gen_rtx_MEM	#
	movq	%rbx, %rcx	# D.27410,
	movq	%rax, %rdx	# D.27410,
	movl	$0, %esi	#,
	movl	$47, %edi	#,
	call	gen_rtx_fmt_ee	#
	.loc 1 2828 0
	addq	$40, %rsp	#,
	popq	%rbx	#
	popq	%rbp	#
	.cfi_def_cfa 7, 8
	ret
	.cfi_endproc
.LFE158:
	.size	gen_mmx_maskmovq, .-gen_mmx_maskmovq
	.globl	gen_mmx_maskmovq_rex
	.type	gen_mmx_maskmovq_rex, @function
gen_mmx_maskmovq_rex:
.LFB159:
	.loc 1 2835 0
	.cfi_startproc
	pushq	%rbp	#
	.cfi_def_cfa_offset 16
	.cfi_offset 6, -16
	movq	%rsp, %rbp	#,
	.cfi_def_cfa_register 6
	pushq	%rbx	#
	subq	$40, %rsp	#,
	.cfi_offset 3, -24
	movq	%rdi, -24(%rbp)	# operand0, operand0
	movq	%rsi, -32(%rbp)	# operand1, operand1
	movq	%rdx, -40(%rbp)	# operand2, operand2
	.loc 1 2836 0
	movq	-40(%rbp), %rdx	# operand2, tmp64
	movq	-32(%rbp), %rax	# operand1, tmp65
	movq	%rax, %rsi	# tmp65,
	movl	$2, %edi	#,
	movl	$0, %eax	#,
	call	gen_rtvec	#
	movl	$32, %ecx	#,
	movq	%rax, %rdx	# D.27411,
	movl	$39, %esi	#,
	movl	$42, %edi	#,
	call	gen_rtx_fmt_Ei	#
	movq	%rax, %rbx	#, D.27412
	movq	-24(%rbp), %rax	# operand0, tmp66
	movq	%rax, %rsi	# tmp66,
	movl	$39, %edi	#,
	call	gen_rtx_MEM	#
	movq	%rbx, %rcx	# D.27412,
	movq	%rax, %rdx	# D.27412,
	movl	$0, %esi	#,
	movl	$47, %edi	#,
	call	gen_rtx_fmt_ee	#
	.loc 1 2844 0
	addq	$40, %rsp	#,
	popq	%rbx	#
	popq	%rbp	#
	.cfi_def_cfa 7, 8
	ret
	.cfi_endproc
.LFE159:
	.size	gen_mmx_maskmovq_rex, .-gen_mmx_maskmovq_rex
	.globl	gen_sse_movntv4sf
	.type	gen_sse_movntv4sf, @function
gen_sse_movntv4sf:
.LFB160:
	.loc 1 2850 0
	.cfi_startproc
	pushq	%rbp	#
	.cfi_def_cfa_offset 16
	.cfi_offset 6, -16
	movq	%rsp, %rbp	#,
	.cfi_def_cfa_register 6
	subq	$16, %rsp	#,
	movq	%rdi, -8(%rbp)	# operand0, operand0
	movq	%rsi, -16(%rbp)	# operand1, operand1
	.loc 1 2851 0
	movq	-16(%rbp), %rax	# operand1, tmp63
	movq	%rax, %rsi	# tmp63,
	movl	$1, %edi	#,
	movl	$0, %eax	#,
	call	gen_rtvec	#
	movl	$34, %ecx	#,
	movq	%rax, %rdx	# D.27413,
	movl	$46, %esi	#,
	movl	$42, %edi	#,
	call	gen_rtx_fmt_Ei	#
	movq	%rax, %rdx	#, D.27414
	movq	-8(%rbp), %rax	# operand0, tmp64
	movq	%rdx, %rcx	# D.27414,
	movq	%rax, %rdx	# tmp64,
	movl	$0, %esi	#,
	movl	$47, %edi	#,
	call	gen_rtx_fmt_ee	#
	.loc 1 2857 0
	leave
	.cfi_def_cfa 7, 8
	ret
	.cfi_endproc
.LFE160:
	.size	gen_sse_movntv4sf, .-gen_sse_movntv4sf
	.globl	gen_sse_movntdi
	.type	gen_sse_movntdi, @function
gen_sse_movntdi:
.LFB161:
	.loc 1 2863 0
	.cfi_startproc
	pushq	%rbp	#
	.cfi_def_cfa_offset 16
	.cfi_offset 6, -16
	movq	%rsp, %rbp	#,
	.cfi_def_cfa_register 6
	subq	$16, %rsp	#,
	movq	%rdi, -8(%rbp)	# operand0, operand0
	movq	%rsi, -16(%rbp)	# operand1, operand1
	.loc 1 2864 0
	movq	-16(%rbp), %rax	# operand1, tmp63
	movq	%rax, %rsi	# tmp63,
	movl	$1, %edi	#,
	movl	$0, %eax	#,
	call	gen_rtvec	#
	movl	$34, %ecx	#,
	movq	%rax, %rdx	# D.27415,
	movl	$5, %esi	#,
	movl	$42, %edi	#,
	call	gen_rtx_fmt_Ei	#
	movq	%rax, %rdx	#, D.27416
	movq	-8(%rbp), %rax	# operand0, tmp64
	movq	%rdx, %rcx	# D.27416,
	movq	%rax, %rdx	# tmp64,
	movl	$0, %esi	#,
	movl	$47, %edi	#,
	call	gen_rtx_fmt_ee	#
	.loc 1 2870 0
	leave
	.cfi_def_cfa 7, 8
	ret
	.cfi_endproc
.LFE161:
	.size	gen_sse_movntdi, .-gen_sse_movntdi
	.globl	gen_sse_movhlps
	.type	gen_sse_movhlps, @function
gen_sse_movhlps:
.LFB162:
	.loc 1 2877 0
	.cfi_startproc
	pushq	%rbp	#
	.cfi_def_cfa_offset 16
	.cfi_offset 6, -16
	movq	%rsp, %rbp	#,
	.cfi_def_cfa_register 6
	pushq	%r14	#
	pushq	%r13	#
	pushq	%r12	#
	pushq	%rbx	#
	subq	$32, %rsp	#,
	.cfi_offset 14, -24
	.cfi_offset 13, -32
	.cfi_offset 12, -40
	.cfi_offset 3, -48
	movq	%rdi, -40(%rbp)	# operand0, operand0
	movq	%rsi, -48(%rbp)	# operand1, operand1
	movq	%rdx, -56(%rbp)	# operand2, operand2
	.loc 1 2878 0
	movl	$3, %esi	#,
	movl	$0, %edi	#,
	call	gen_rtx_CONST_INT	#
	movq	%rax, %rbx	#, D.27417
	movq	const_int_rtx+520(%rip), %r14	# const_int_rtx, D.27417
	movq	const_int_rtx+512(%rip), %r13	# const_int_rtx, D.27417
	movl	$3, %esi	#,
	movl	$0, %edi	#,
	call	gen_rtx_CONST_INT	#
	movq	%rax, %r12	#, D.27417
	movl	$2, %esi	#,
	movl	$0, %edi	#,
	call	gen_rtx_CONST_INT	#
	movq	%r14, %r8	# D.27417,
	movq	%r13, %rcx	# D.27417,
	movq	%r12, %rdx	# D.27417,
	movq	%rax, %rsi	# D.27417,
	movl	$4, %edi	#,
	movl	$0, %eax	#,
	call	gen_rtvec	#
	movq	%rax, %rdx	# D.27418,
	movl	$0, %esi	#,
	movl	$39, %edi	#,
	call	gen_rtx_fmt_E	#
	movq	%rax, %rdx	#, D.27417
	movq	-56(%rbp), %rax	# operand2, tmp70
	movq	%rdx, %rcx	# D.27417,
	movq	%rax, %rdx	# tmp70,
	movl	$46, %esi	#,
	movl	$143, %edi	#,
	call	gen_rtx_fmt_ee	#
	movq	%rax, %rdx	#, D.27417
	movq	-48(%rbp), %rax	# operand1, tmp71
	movq	%rbx, %r8	# D.27417,
	movq	%rdx, %rcx	# D.27417,
	movq	%rax, %rdx	# tmp71,
	movl	$46, %esi	#,
	movl	$142, %edi	#,
	call	gen_rtx_fmt_eee	#
	movq	%rax, %rdx	#, D.27417
	movq	-40(%rbp), %rax	# operand0, tmp72
	movq	%rdx, %rcx	# D.27417,
	movq	%rax, %rdx	# tmp72,
	movl	$0, %esi	#,
	movl	$47, %edi	#,
	call	gen_rtx_fmt_ee	#
	.loc 1 2891 0
	addq	$32, %rsp	#,
	popq	%rbx	#
	popq	%r12	#
	popq	%r13	#
	popq	%r14	#
	popq	%rbp	#
	.cfi_def_cfa 7, 8
	ret
	.cfi_endproc
.LFE162:
	.size	gen_sse_movhlps, .-gen_sse_movhlps
	.globl	gen_sse_movlhps
	.type	gen_sse_movlhps, @function
gen_sse_movlhps:
.LFB163:
	.loc 1 2898 0
	.cfi_startproc
	pushq	%rbp	#
	.cfi_def_cfa_offset 16
	.cfi_offset 6, -16
	movq	%rsp, %rbp	#,
	.cfi_def_cfa_register 6
	pushq	%r14	#
	pushq	%r13	#
	pushq	%r12	#
	pushq	%rbx	#
	subq	$32, %rsp	#,
	.cfi_offset 14, -24
	.cfi_offset 13, -32
	.cfi_offset 12, -40
	.cfi_offset 3, -48
	movq	%rdi, -40(%rbp)	# operand0, operand0
	movq	%rsi, -48(%rbp)	# operand1, operand1
	movq	%rdx, -56(%rbp)	# operand2, operand2
	.loc 1 2899 0
	movl	$12, %esi	#,
	movl	$0, %edi	#,
	call	gen_rtx_CONST_INT	#
	movq	%rax, %rbx	#, D.27419
	movq	const_int_rtx+520(%rip), %r14	# const_int_rtx, D.27419
	movq	const_int_rtx+512(%rip), %r13	# const_int_rtx, D.27419
	movl	$3, %esi	#,
	movl	$0, %edi	#,
	call	gen_rtx_CONST_INT	#
	movq	%rax, %r12	#, D.27419
	movl	$2, %esi	#,
	movl	$0, %edi	#,
	call	gen_rtx_CONST_INT	#
	movq	%r14, %r8	# D.27419,
	movq	%r13, %rcx	# D.27419,
	movq	%r12, %rdx	# D.27419,
	movq	%rax, %rsi	# D.27419,
	movl	$4, %edi	#,
	movl	$0, %eax	#,
	call	gen_rtvec	#
	movq	%rax, %rdx	# D.27420,
	movl	$0, %esi	#,
	movl	$39, %edi	#,
	call	gen_rtx_fmt_E	#
	movq	%rax, %rdx	#, D.27419
	movq	-56(%rbp), %rax	# operand2, tmp70
	movq	%rdx, %rcx	# D.27419,
	movq	%rax, %rdx	# tmp70,
	movl	$46, %esi	#,
	movl	$143, %edi	#,
	call	gen_rtx_fmt_ee	#
	movq	%rax, %rdx	#, D.27419
	movq	-48(%rbp), %rax	# operand1, tmp71
	movq	%rbx, %r8	# D.27419,
	movq	%rdx, %rcx	# D.27419,
	movq	%rax, %rdx	# tmp71,
	movl	$46, %esi	#,
	movl	$142, %edi	#,
	call	gen_rtx_fmt_eee	#
	movq	%rax, %rdx	#, D.27419
	movq	-40(%rbp), %rax	# operand0, tmp72
	movq	%rdx, %rcx	# D.27419,
	movq	%rax, %rdx	# tmp72,
	movl	$0, %esi	#,
	movl	$47, %edi	#,
	call	gen_rtx_fmt_ee	#
	.loc 1 2912 0
	addq	$32, %rsp	#,
	popq	%rbx	#
	popq	%r12	#
	popq	%r13	#
	popq	%r14	#
	popq	%rbp	#
	.cfi_def_cfa 7, 8
	ret
	.cfi_endproc
.LFE163:
	.size	gen_sse_movlhps, .-gen_sse_movlhps
	.globl	gen_sse_movhps
	.type	gen_sse_movhps, @function
gen_sse_movhps:
.LFB164:
	.loc 1 2919 0
	.cfi_startproc
	pushq	%rbp	#
	.cfi_def_cfa_offset 16
	.cfi_offset 6, -16
	movq	%rsp, %rbp	#,
	.cfi_def_cfa_register 6
	subq	$32, %rsp	#,
	movq	%rdi, -8(%rbp)	# operand0, operand0
	movq	%rsi, -16(%rbp)	# operand1, operand1
	movq	%rdx, -24(%rbp)	# operand2, operand2
	.loc 1 2920 0
	movl	$12, %esi	#,
	movl	$0, %edi	#,
	call	gen_rtx_CONST_INT	#
	movq	%rax, %rcx	#, D.27421
	movq	-24(%rbp), %rdx	# operand2, tmp63
	movq	-16(%rbp), %rax	# operand1, tmp64
	movq	%rcx, %r8	# D.27421,
	movq	%rdx, %rcx	# tmp63,
	movq	%rax, %rdx	# tmp64,
	movl	$46, %esi	#,
	movl	$142, %edi	#,
	call	gen_rtx_fmt_eee	#
	movq	%rax, %rdx	#, D.27421
	movq	-8(%rbp), %rax	# operand0, tmp65
	movq	%rdx, %rcx	# D.27421,
	movq	%rax, %rdx	# tmp65,
	movl	$0, %esi	#,
	movl	$47, %edi	#,
	call	gen_rtx_fmt_ee	#
	.loc 1 2926 0
	leave
	.cfi_def_cfa 7, 8
	ret
	.cfi_endproc
.LFE164:
	.size	gen_sse_movhps, .-gen_sse_movhps
	.globl	gen_sse_movlps
	.type	gen_sse_movlps, @function
gen_sse_movlps:
.LFB165:
	.loc 1 2933 0
	.cfi_startproc
	pushq	%rbp	#
	.cfi_def_cfa_offset 16
	.cfi_offset 6, -16
	movq	%rsp, %rbp	#,
	.cfi_def_cfa_register 6
	subq	$32, %rsp	#,
	movq	%rdi, -8(%rbp)	# operand0, operand0
	movq	%rsi, -16(%rbp)	# operand1, operand1
	movq	%rdx, -24(%rbp)	# operand2, operand2
	.loc 1 2934 0
	movl	$3, %esi	#,
	movl	$0, %edi	#,
	call	gen_rtx_CONST_INT	#
	movq	%rax, %rcx	#, D.27422
	movq	-24(%rbp), %rdx	# operand2, tmp63
	movq	-16(%rbp), %rax	# operand1, tmp64
	movq	%rcx, %r8	# D.27422,
	movq	%rdx, %rcx	# tmp63,
	movq	%rax, %rdx	# tmp64,
	movl	$46, %esi	#,
	movl	$142, %edi	#,
	call	gen_rtx_fmt_eee	#
	movq	%rax, %rdx	#, D.27422
	movq	-8(%rbp), %rax	# operand0, tmp65
	movq	%rdx, %rcx	# D.27422,
	movq	%rax, %rdx	# tmp65,
	movl	$0, %esi	#,
	movl	$47, %edi	#,
	call	gen_rtx_fmt_ee	#
	.loc 1 2940 0
	leave
	.cfi_def_cfa 7, 8
	ret
	.cfi_endproc
.LFE165:
	.size	gen_sse_movlps, .-gen_sse_movlps
	.globl	gen_sse_loadss
	.type	gen_sse_loadss, @function
gen_sse_loadss:
.LFB166:
	.loc 1 2946 0
	.cfi_startproc
	pushq	%rbp	#
	.cfi_def_cfa_offset 16
	.cfi_offset 6, -16
	movq	%rsp, %rbp	#,
	.cfi_def_cfa_register 6
	pushq	%rbx	#
	subq	$24, %rsp	#,
	.cfi_offset 3, -24
	movq	%rdi, -24(%rbp)	# operand0, operand0
	movq	%rsi, -32(%rbp)	# operand1, operand1
	.loc 1 2947 0
	movq	const_int_rtx+520(%rip), %rbx	# const_int_rtx, D.27423
	movq	const_int_rtx+512(%rip), %rax	# const_int_rtx, D.27423
	movq	%rax, %rdx	# D.27423,
	movl	$15, %esi	#,
	movl	$125, %edi	#,
	call	gen_rtx_fmt_e	#
	movq	%rax, %rdx	# D.27423,
	movl	$46, %esi	#,
	movl	$145, %edi	#,
	call	gen_rtx_fmt_e	#
	movq	%rax, %rdx	#, D.27423
	movq	-32(%rbp), %rax	# operand1, tmp66
	movq	%rbx, %r8	# D.27423,
	movq	%rdx, %rcx	# D.27423,
	movq	%rax, %rdx	# tmp66,
	movl	$46, %esi	#,
	movl	$142, %edi	#,
	call	gen_rtx_fmt_eee	#
	movq	%rax, %rdx	#, D.27423
	movq	-24(%rbp), %rax	# operand0, tmp67
	movq	%rdx, %rcx	# D.27423,
	movq	%rax, %rdx	# tmp67,
	movl	$0, %esi	#,
	movl	$47, %edi	#,
	call	gen_rtx_fmt_ee	#
	.loc 1 2955 0
	addq	$24, %rsp	#,
	popq	%rbx	#
	popq	%rbp	#
	.cfi_def_cfa 7, 8
	ret
	.cfi_endproc
.LFE166:
	.size	gen_sse_loadss, .-gen_sse_loadss
	.globl	gen_sse_movss
	.type	gen_sse_movss, @function
gen_sse_movss:
.LFB167:
	.loc 1 2962 0
	.cfi_startproc
	pushq	%rbp	#
	.cfi_def_cfa_offset 16
	.cfi_offset 6, -16
	movq	%rsp, %rbp	#,
	.cfi_def_cfa_register 6
	subq	$32, %rsp	#,
	movq	%rdi, -8(%rbp)	# operand0, operand0
	movq	%rsi, -16(%rbp)	# operand1, operand1
	movq	%rdx, -24(%rbp)	# operand2, operand2
	.loc 1 2963 0
	movq	const_int_rtx+520(%rip), %rcx	# const_int_rtx, D.27424
	movq	-24(%rbp), %rdx	# operand2, tmp63
	movq	-16(%rbp), %rax	# operand1, tmp64
	movq	%rcx, %r8	# D.27424,
	movq	%rdx, %rcx	# tmp63,
	movq	%rax, %rdx	# tmp64,
	movl	$46, %esi	#,
	movl	$142, %edi	#,
	call	gen_rtx_fmt_eee	#
	movq	%rax, %rdx	#, D.27424
	movq	-8(%rbp), %rax	# operand0, tmp65
	movq	%rdx, %rcx	# D.27424,
	movq	%rax, %rdx	# tmp65,
	movl	$0, %esi	#,
	movl	$47, %edi	#,
	call	gen_rtx_fmt_ee	#
	.loc 1 2969 0
	leave
	.cfi_def_cfa 7, 8
	ret
	.cfi_endproc
.LFE167:
	.size	gen_sse_movss, .-gen_sse_movss
	.globl	gen_sse_storess
	.type	gen_sse_storess, @function
gen_sse_storess:
.LFB168:
	.loc 1 2975 0
	.cfi_startproc
	pushq	%rbp	#
	.cfi_def_cfa_offset 16
	.cfi_offset 6, -16
	movq	%rsp, %rbp	#,
	.cfi_def_cfa_register 6
	subq	$16, %rsp	#,
	movq	%rdi, -8(%rbp)	# operand0, operand0
	movq	%rsi, -16(%rbp)	# operand1, operand1
	.loc 1 2976 0
	movq	const_int_rtx+512(%rip), %rax	# const_int_rtx, D.27425
	movq	%rax, %rsi	# D.27425,
	movl	$1, %edi	#,
	movl	$0, %eax	#,
	call	gen_rtvec	#
	movq	%rax, %rdx	# D.27426,
	movl	$0, %esi	#,
	movl	$39, %edi	#,
	call	gen_rtx_fmt_E	#
	movq	%rax, %rdx	#, D.27425
	movq	-16(%rbp), %rax	# operand1, tmp65
	movq	%rdx, %rcx	# D.27425,
	movq	%rax, %rdx	# tmp65,
	movl	$15, %esi	#,
	movl	$143, %edi	#,
	call	gen_rtx_fmt_ee	#
	movq	%rax, %rdx	#, D.27425
	movq	-8(%rbp), %rax	# operand0, tmp66
	movq	%rdx, %rcx	# D.27425,
	movq	%rax, %rdx	# tmp66,
	movl	$0, %esi	#,
	movl	$47, %edi	#,
	call	gen_rtx_fmt_ee	#
	.loc 1 2983 0
	leave
	.cfi_def_cfa 7, 8
	ret
	.cfi_endproc
.LFE168:
	.size	gen_sse_storess, .-gen_sse_storess
	.globl	gen_sse_shufps
	.type	gen_sse_shufps, @function
gen_sse_shufps:
.LFB169:
	.loc 1 2991 0
	.cfi_startproc
	pushq	%rbp	#
	.cfi_def_cfa_offset 16
	.cfi_offset 6, -16
	movq	%rsp, %rbp	#,
	.cfi_def_cfa_register 6
	subq	$32, %rsp	#,
	movq	%rdi, -8(%rbp)	# operand0, operand0
	movq	%rsi, -16(%rbp)	# operand1, operand1
	movq	%rdx, -24(%rbp)	# operand2, operand2
	movq	%rcx, -32(%rbp)	# operand3, operand3
	.loc 1 2992 0
	movq	-32(%rbp), %rcx	# operand3, tmp63
	movq	-24(%rbp), %rdx	# operand2, tmp64
	movq	-16(%rbp), %rax	# operand1, tmp65
	movq	%rax, %rsi	# tmp65,
	movl	$3, %edi	#,
	movl	$0, %eax	#,
	call	gen_rtvec	#
	movl	$41, %ecx	#,
	movq	%rax, %rdx	# D.27427,
	movl	$46, %esi	#,
	movl	$42, %edi	#,
	call	gen_rtx_fmt_Ei	#
	movq	%rax, %rdx	#, D.27428
	movq	-8(%rbp), %rax	# operand0, tmp66
	movq	%rdx, %rcx	# D.27428,
	movq	%rax, %rdx	# tmp66,
	movl	$0, %esi	#,
	movl	$47, %edi	#,
	call	gen_rtx_fmt_ee	#
	.loc 1 3000 0
	leave
	.cfi_def_cfa 7, 8
	ret
	.cfi_endproc
.LFE169:
	.size	gen_sse_shufps, .-gen_sse_shufps
	.globl	gen_addv4sf3
	.type	gen_addv4sf3, @function
gen_addv4sf3:
.LFB170:
	.loc 1 3007 0
	.cfi_startproc
	pushq	%rbp	#
	.cfi_def_cfa_offset 16
	.cfi_offset 6, -16
	movq	%rsp, %rbp	#,
	.cfi_def_cfa_register 6
	subq	$32, %rsp	#,
	movq	%rdi, -8(%rbp)	# operand0, operand0
	movq	%rsi, -16(%rbp)	# operand1, operand1
	movq	%rdx, -24(%rbp)	# operand2, operand2
	.loc 1 3008 0
	movq	-24(%rbp), %rdx	# operand2, tmp62
	movq	-16(%rbp), %rax	# operand1, tmp63
	movq	%rdx, %rcx	# tmp62,
	movq	%rax, %rdx	# tmp63,
	movl	$46, %esi	#,
	movl	$75, %edi	#,
	call	gen_rtx_fmt_ee	#
	movq	%rax, %rdx	#, D.27429
	movq	-8(%rbp), %rax	# operand0, tmp64
	movq	%rdx, %rcx	# D.27429,
	movq	%rax, %rdx	# tmp64,
	movl	$0, %esi	#,
	movl	$47, %edi	#,
	call	gen_rtx_fmt_ee	#
	.loc 1 3013 0
	leave
	.cfi_def_cfa 7, 8
	ret
	.cfi_endproc
.LFE170:
	.size	gen_addv4sf3, .-gen_addv4sf3
	.globl	gen_vmaddv4sf3
	.type	gen_vmaddv4sf3, @function
gen_vmaddv4sf3:
.LFB171:
	.loc 1 3020 0
	.cfi_startproc
	pushq	%rbp	#
	.cfi_def_cfa_offset 16
	.cfi_offset 6, -16
	movq	%rsp, %rbp	#,
	.cfi_def_cfa_register 6
	pushq	%rbx	#
	subq	$40, %rsp	#,
	.cfi_offset 3, -24
	movq	%rdi, -24(%rbp)	# operand0, operand0
	movq	%rsi, -32(%rbp)	# operand1, operand1
	movq	%rdx, -40(%rbp)	# operand2, operand2
	.loc 1 3021 0
	movq	const_int_rtx+520(%rip), %rbx	# const_int_rtx, D.27430
	movq	-40(%rbp), %rdx	# operand2, tmp64
	movq	-32(%rbp), %rax	# operand1, tmp65
	movq	%rdx, %rcx	# tmp64,
	movq	%rax, %rdx	# tmp65,
	movl	$46, %esi	#,
	movl	$75, %edi	#,
	call	gen_rtx_fmt_ee	#
	movq	-32(%rbp), %rdx	# operand1, tmp66
	movq	%rbx, %r8	# D.27430,
	movq	%rdx, %rcx	# tmp66,
	movq	%rax, %rdx	# D.27430,
	movl	$46, %esi	#,
	movl	$142, %edi	#,
	call	gen_rtx_fmt_eee	#
	movq	%rax, %rdx	#, D.27430
	movq	-24(%rbp), %rax	# operand0, tmp67
	movq	%rdx, %rcx	# D.27430,
	movq	%rax, %rdx	# tmp67,
	movl	$0, %esi	#,
	movl	$47, %edi	#,
	call	gen_rtx_fmt_ee	#
	.loc 1 3029 0
	addq	$40, %rsp	#,
	popq	%rbx	#
	popq	%rbp	#
	.cfi_def_cfa 7, 8
	ret
	.cfi_endproc
.LFE171:
	.size	gen_vmaddv4sf3, .-gen_vmaddv4sf3
	.globl	gen_subv4sf3
	.type	gen_subv4sf3, @function
gen_subv4sf3:
.LFB172:
	.loc 1 3036 0
	.cfi_startproc
	pushq	%rbp	#
	.cfi_def_cfa_offset 16
	.cfi_offset 6, -16
	movq	%rsp, %rbp	#,
	.cfi_def_cfa_register 6
	subq	$32, %rsp	#,
	movq	%rdi, -8(%rbp)	# operand0, operand0
	movq	%rsi, -16(%rbp)	# operand1, operand1
	movq	%rdx, -24(%rbp)	# operand2, operand2
	.loc 1 3037 0
	movq	-24(%rbp), %rdx	# operand2, tmp62
	movq	-16(%rbp), %rax	# operand1, tmp63
	movq	%rdx, %rcx	# tmp62,
	movq	%rax, %rdx	# tmp63,
	movl	$46, %esi	#,
	movl	$76, %edi	#,
	call	gen_rtx_fmt_ee	#
	movq	%rax, %rdx	#, D.27431
	movq	-8(%rbp), %rax	# operand0, tmp64
	movq	%rdx, %rcx	# D.27431,
	movq	%rax, %rdx	# tmp64,
	movl	$0, %esi	#,
	movl	$47, %edi	#,
	call	gen_rtx_fmt_ee	#
	.loc 1 3042 0
	leave
	.cfi_def_cfa 7, 8
	ret
	.cfi_endproc
.LFE172:
	.size	gen_subv4sf3, .-gen_subv4sf3
	.globl	gen_vmsubv4sf3
	.type	gen_vmsubv4sf3, @function
gen_vmsubv4sf3:
.LFB173:
	.loc 1 3049 0
	.cfi_startproc
	pushq	%rbp	#
	.cfi_def_cfa_offset 16
	.cfi_offset 6, -16
	movq	%rsp, %rbp	#,
	.cfi_def_cfa_register 6
	pushq	%rbx	#
	subq	$40, %rsp	#,
	.cfi_offset 3, -24
	movq	%rdi, -24(%rbp)	# operand0, operand0
	movq	%rsi, -32(%rbp)	# operand1, operand1
	movq	%rdx, -40(%rbp)	# operand2, operand2
	.loc 1 3050 0
	movq	const_int_rtx+520(%rip), %rbx	# const_int_rtx, D.27432
	movq	-40(%rbp), %rdx	# operand2, tmp64
	movq	-32(%rbp), %rax	# operand1, tmp65
	movq	%rdx, %rcx	# tmp64,
	movq	%rax, %rdx	# tmp65,
	movl	$46, %esi	#,
	movl	$76, %edi	#,
	call	gen_rtx_fmt_ee	#
	movq	-32(%rbp), %rdx	# operand1, tmp66
	movq	%rbx, %r8	# D.27432,
	movq	%rdx, %rcx	# tmp66,
	movq	%rax, %rdx	# D.27432,
	movl	$46, %esi	#,
	movl	$142, %edi	#,
	call	gen_rtx_fmt_eee	#
	movq	%rax, %rdx	#, D.27432
	movq	-24(%rbp), %rax	# operand0, tmp67
	movq	%rdx, %rcx	# D.27432,
	movq	%rax, %rdx	# tmp67,
	movl	$0, %esi	#,
	movl	$47, %edi	#,
	call	gen_rtx_fmt_ee	#
	.loc 1 3058 0
	addq	$40, %rsp	#,
	popq	%rbx	#
	popq	%rbp	#
	.cfi_def_cfa 7, 8
	ret
	.cfi_endproc
.LFE173:
	.size	gen_vmsubv4sf3, .-gen_vmsubv4sf3
	.globl	gen_mulv4sf3
	.type	gen_mulv4sf3, @function
gen_mulv4sf3:
.LFB174:
	.loc 1 3065 0
	.cfi_startproc
	pushq	%rbp	#
	.cfi_def_cfa_offset 16
	.cfi_offset 6, -16
	movq	%rsp, %rbp	#,
	.cfi_def_cfa_register 6
	subq	$32, %rsp	#,
	movq	%rdi, -8(%rbp)	# operand0, operand0
	movq	%rsi, -16(%rbp)	# operand1, operand1
	movq	%rdx, -24(%rbp)	# operand2, operand2
	.loc 1 3066 0
	movq	-24(%rbp), %rdx	# operand2, tmp62
	movq	-16(%rbp), %rax	# operand1, tmp63
	movq	%rdx, %rcx	# tmp62,
	movq	%rax, %rdx	# tmp63,
	movl	$46, %esi	#,
	movl	$78, %edi	#,
	call	gen_rtx_fmt_ee	#
	movq	%rax, %rdx	#, D.27433
	movq	-8(%rbp), %rax	# operand0, tmp64
	movq	%rdx, %rcx	# D.27433,
	movq	%rax, %rdx	# tmp64,
	movl	$0, %esi	#,
	movl	$47, %edi	#,
	call	gen_rtx_fmt_ee	#
	.loc 1 3071 0
	leave
	.cfi_def_cfa 7, 8
	ret
	.cfi_endproc
.LFE174:
	.size	gen_mulv4sf3, .-gen_mulv4sf3
	.globl	gen_vmmulv4sf3
	.type	gen_vmmulv4sf3, @function
gen_vmmulv4sf3:
.LFB175:
	.loc 1 3078 0
	.cfi_startproc
	pushq	%rbp	#
	.cfi_def_cfa_offset 16
	.cfi_offset 6, -16
	movq	%rsp, %rbp	#,
	.cfi_def_cfa_register 6
	pushq	%rbx	#
	subq	$40, %rsp	#,
	.cfi_offset 3, -24
	movq	%rdi, -24(%rbp)	# operand0, operand0
	movq	%rsi, -32(%rbp)	# operand1, operand1
	movq	%rdx, -40(%rbp)	# operand2, operand2
	.loc 1 3079 0
	movq	const_int_rtx+520(%rip), %rbx	# const_int_rtx, D.27434
	movq	-40(%rbp), %rdx	# operand2, tmp64
	movq	-32(%rbp), %rax	# operand1, tmp65
	movq	%rdx, %rcx	# tmp64,
	movq	%rax, %rdx	# tmp65,
	movl	$46, %esi	#,
	movl	$78, %edi	#,
	call	gen_rtx_fmt_ee	#
	movq	-32(%rbp), %rdx	# operand1, tmp66
	movq	%rbx, %r8	# D.27434,
	movq	%rdx, %rcx	# tmp66,
	movq	%rax, %rdx	# D.27434,
	movl	$46, %esi	#,
	movl	$142, %edi	#,
	call	gen_rtx_fmt_eee	#
	movq	%rax, %rdx	#, D.27434
	movq	-24(%rbp), %rax	# operand0, tmp67
	movq	%rdx, %rcx	# D.27434,
	movq	%rax, %rdx	# tmp67,
	movl	$0, %esi	#,
	movl	$47, %edi	#,
	call	gen_rtx_fmt_ee	#
	.loc 1 3087 0
	addq	$40, %rsp	#,
	popq	%rbx	#
	popq	%rbp	#
	.cfi_def_cfa 7, 8
	ret
	.cfi_endproc
.LFE175:
	.size	gen_vmmulv4sf3, .-gen_vmmulv4sf3
	.globl	gen_divv4sf3
	.type	gen_divv4sf3, @function
gen_divv4sf3:
.LFB176:
	.loc 1 3094 0
	.cfi_startproc
	pushq	%rbp	#
	.cfi_def_cfa_offset 16
	.cfi_offset 6, -16
	movq	%rsp, %rbp	#,
	.cfi_def_cfa_register 6
	subq	$32, %rsp	#,
	movq	%rdi, -8(%rbp)	# operand0, operand0
	movq	%rsi, -16(%rbp)	# operand1, operand1
	movq	%rdx, -24(%rbp)	# operand2, operand2
	.loc 1 3095 0
	movq	-24(%rbp), %rdx	# operand2, tmp62
	movq	-16(%rbp), %rax	# operand1, tmp63
	movq	%rdx, %rcx	# tmp62,
	movq	%rax, %rdx	# tmp63,
	movl	$46, %esi	#,
	movl	$79, %edi	#,
	call	gen_rtx_fmt_ee	#
	movq	%rax, %rdx	#, D.27435
	movq	-8(%rbp), %rax	# operand0, tmp64
	movq	%rdx, %rcx	# D.27435,
	movq	%rax, %rdx	# tmp64,
	movl	$0, %esi	#,
	movl	$47, %edi	#,
	call	gen_rtx_fmt_ee	#
	.loc 1 3100 0
	leave
	.cfi_def_cfa 7, 8
	ret
	.cfi_endproc
.LFE176:
	.size	gen_divv4sf3, .-gen_divv4sf3
	.globl	gen_vmdivv4sf3
	.type	gen_vmdivv4sf3, @function
gen_vmdivv4sf3:
.LFB177:
	.loc 1 3107 0
	.cfi_startproc
	pushq	%rbp	#
	.cfi_def_cfa_offset 16
	.cfi_offset 6, -16
	movq	%rsp, %rbp	#,
	.cfi_def_cfa_register 6
	pushq	%rbx	#
	subq	$40, %rsp	#,
	.cfi_offset 3, -24
	movq	%rdi, -24(%rbp)	# operand0, operand0
	movq	%rsi, -32(%rbp)	# operand1, operand1
	movq	%rdx, -40(%rbp)	# operand2, operand2
	.loc 1 3108 0
	movq	const_int_rtx+520(%rip), %rbx	# const_int_rtx, D.27436
	movq	-40(%rbp), %rdx	# operand2, tmp64
	movq	-32(%rbp), %rax	# operand1, tmp65
	movq	%rdx, %rcx	# tmp64,
	movq	%rax, %rdx	# tmp65,
	movl	$46, %esi	#,
	movl	$79, %edi	#,
	call	gen_rtx_fmt_ee	#
	movq	-32(%rbp), %rdx	# operand1, tmp66
	movq	%rbx, %r8	# D.27436,
	movq	%rdx, %rcx	# tmp66,
	movq	%rax, %rdx	# D.27436,
	movl	$46, %esi	#,
	movl	$142, %edi	#,
	call	gen_rtx_fmt_eee	#
	movq	%rax, %rdx	#, D.27436
	movq	-24(%rbp), %rax	# operand0, tmp67
	movq	%rdx, %rcx	# D.27436,
	movq	%rax, %rdx	# tmp67,
	movl	$0, %esi	#,
	movl	$47, %edi	#,
	call	gen_rtx_fmt_ee	#
	.loc 1 3116 0
	addq	$40, %rsp	#,
	popq	%rbx	#
	popq	%rbp	#
	.cfi_def_cfa 7, 8
	ret
	.cfi_endproc
.LFE177:
	.size	gen_vmdivv4sf3, .-gen_vmdivv4sf3
	.globl	gen_rcpv4sf2
	.type	gen_rcpv4sf2, @function
gen_rcpv4sf2:
.LFB178:
	.loc 1 3122 0
	.cfi_startproc
	pushq	%rbp	#
	.cfi_def_cfa_offset 16
	.cfi_offset 6, -16
	movq	%rsp, %rbp	#,
	.cfi_def_cfa_register 6
	subq	$16, %rsp	#,
	movq	%rdi, -8(%rbp)	# operand0, operand0
	movq	%rsi, -16(%rbp)	# operand1, operand1
	.loc 1 3123 0
	movq	-16(%rbp), %rax	# operand1, tmp63
	movq	%rax, %rsi	# tmp63,
	movl	$1, %edi	#,
	movl	$0, %eax	#,
	call	gen_rtvec	#
	movl	$42, %ecx	#,
	movq	%rax, %rdx	# D.27437,
	movl	$46, %esi	#,
	movl	$42, %edi	#,
	call	gen_rtx_fmt_Ei	#
	movq	%rax, %rdx	#, D.27438
	movq	-8(%rbp), %rax	# operand0, tmp64
	movq	%rdx, %rcx	# D.27438,
	movq	%rax, %rdx	# tmp64,
	movl	$0, %esi	#,
	movl	$47, %edi	#,
	call	gen_rtx_fmt_ee	#
	.loc 1 3129 0
	leave
	.cfi_def_cfa 7, 8
	ret
	.cfi_endproc
.LFE178:
	.size	gen_rcpv4sf2, .-gen_rcpv4sf2
	.globl	gen_vmrcpv4sf2
	.type	gen_vmrcpv4sf2, @function
gen_vmrcpv4sf2:
.LFB179:
	.loc 1 3136 0
	.cfi_startproc
	pushq	%rbp	#
	.cfi_def_cfa_offset 16
	.cfi_offset 6, -16
	movq	%rsp, %rbp	#,
	.cfi_def_cfa_register 6
	pushq	%rbx	#
	subq	$40, %rsp	#,
	.cfi_offset 3, -24
	movq	%rdi, -24(%rbp)	# operand0, operand0
	movq	%rsi, -32(%rbp)	# operand1, operand1
	movq	%rdx, -40(%rbp)	# operand2, operand2
	.loc 1 3137 0
	movq	const_int_rtx+520(%rip), %rbx	# const_int_rtx, D.27439
	movq	-32(%rbp), %rax	# operand1, tmp65
	movq	%rax, %rsi	# tmp65,
	movl	$1, %edi	#,
	movl	$0, %eax	#,
	call	gen_rtvec	#
	movl	$42, %ecx	#,
	movq	%rax, %rdx	# D.27440,
	movl	$46, %esi	#,
	movl	$42, %edi	#,
	call	gen_rtx_fmt_Ei	#
	movq	-40(%rbp), %rdx	# operand2, tmp66
	movq	%rbx, %r8	# D.27439,
	movq	%rdx, %rcx	# tmp66,
	movq	%rax, %rdx	# D.27439,
	movl	$46, %esi	#,
	movl	$142, %edi	#,
	call	gen_rtx_fmt_eee	#
	movq	%rax, %rdx	#, D.27439
	movq	-24(%rbp), %rax	# operand0, tmp67
	movq	%rdx, %rcx	# D.27439,
	movq	%rax, %rdx	# tmp67,
	movl	$0, %esi	#,
	movl	$47, %edi	#,
	call	gen_rtx_fmt_ee	#
	.loc 1 3146 0
	addq	$40, %rsp	#,
	popq	%rbx	#
	popq	%rbp	#
	.cfi_def_cfa 7, 8
	ret
	.cfi_endproc
.LFE179:
	.size	gen_vmrcpv4sf2, .-gen_vmrcpv4sf2
	.globl	gen_rsqrtv4sf2
	.type	gen_rsqrtv4sf2, @function
gen_rsqrtv4sf2:
.LFB180:
	.loc 1 3152 0
	.cfi_startproc
	pushq	%rbp	#
	.cfi_def_cfa_offset 16
	.cfi_offset 6, -16
	movq	%rsp, %rbp	#,
	.cfi_def_cfa_register 6
	subq	$16, %rsp	#,
	movq	%rdi, -8(%rbp)	# operand0, operand0
	movq	%rsi, -16(%rbp)	# operand1, operand1
	.loc 1 3153 0
	movq	-16(%rbp), %rax	# operand1, tmp63
	movq	%rax, %rsi	# tmp63,
	movl	$1, %edi	#,
	movl	$0, %eax	#,
	call	gen_rtvec	#
	movl	$43, %ecx	#,
	movq	%rax, %rdx	# D.27441,
	movl	$46, %esi	#,
	movl	$42, %edi	#,
	call	gen_rtx_fmt_Ei	#
	movq	%rax, %rdx	#, D.27442
	movq	-8(%rbp), %rax	# operand0, tmp64
	movq	%rdx, %rcx	# D.27442,
	movq	%rax, %rdx	# tmp64,
	movl	$0, %esi	#,
	movl	$47, %edi	#,
	call	gen_rtx_fmt_ee	#
	.loc 1 3159 0
	leave
	.cfi_def_cfa 7, 8
	ret
	.cfi_endproc
.LFE180:
	.size	gen_rsqrtv4sf2, .-gen_rsqrtv4sf2
	.globl	gen_vmrsqrtv4sf2
	.type	gen_vmrsqrtv4sf2, @function
gen_vmrsqrtv4sf2:
.LFB181:
	.loc 1 3166 0
	.cfi_startproc
	pushq	%rbp	#
	.cfi_def_cfa_offset 16
	.cfi_offset 6, -16
	movq	%rsp, %rbp	#,
	.cfi_def_cfa_register 6
	pushq	%rbx	#
	subq	$40, %rsp	#,
	.cfi_offset 3, -24
	movq	%rdi, -24(%rbp)	# operand0, operand0
	movq	%rsi, -32(%rbp)	# operand1, operand1
	movq	%rdx, -40(%rbp)	# operand2, operand2
	.loc 1 3167 0
	movq	const_int_rtx+520(%rip), %rbx	# const_int_rtx, D.27443
	movq	-32(%rbp), %rax	# operand1, tmp65
	movq	%rax, %rsi	# tmp65,
	movl	$1, %edi	#,
	movl	$0, %eax	#,
	call	gen_rtvec	#
	movl	$43, %ecx	#,
	movq	%rax, %rdx	# D.27444,
	movl	$46, %esi	#,
	movl	$42, %edi	#,
	call	gen_rtx_fmt_Ei	#
	movq	-40(%rbp), %rdx	# operand2, tmp66
	movq	%rbx, %r8	# D.27443,
	movq	%rdx, %rcx	# tmp66,
	movq	%rax, %rdx	# D.27443,
	movl	$46, %esi	#,
	movl	$142, %edi	#,
	call	gen_rtx_fmt_eee	#
	movq	%rax, %rdx	#, D.27443
	movq	-24(%rbp), %rax	# operand0, tmp67
	movq	%rdx, %rcx	# D.27443,
	movq	%rax, %rdx	# tmp67,
	movl	$0, %esi	#,
	movl	$47, %edi	#,
	call	gen_rtx_fmt_ee	#
	.loc 1 3176 0
	addq	$40, %rsp	#,
	popq	%rbx	#
	popq	%rbp	#
	.cfi_def_cfa 7, 8
	ret
	.cfi_endproc
.LFE181:
	.size	gen_vmrsqrtv4sf2, .-gen_vmrsqrtv4sf2
	.globl	gen_sqrtv4sf2
	.type	gen_sqrtv4sf2, @function
gen_sqrtv4sf2:
.LFB182:
	.loc 1 3182 0
	.cfi_startproc
	pushq	%rbp	#
	.cfi_def_cfa_offset 16
	.cfi_offset 6, -16
	movq	%rsp, %rbp	#,
	.cfi_def_cfa_register 6
	subq	$16, %rsp	#,
	movq	%rdi, -8(%rbp)	# operand0, operand0
	movq	%rsi, -16(%rbp)	# operand1, operand1
	.loc 1 3183 0
	movq	-16(%rbp), %rax	# operand1, tmp62
	movq	%rax, %rdx	# tmp62,
	movl	$46, %esi	#,
	movl	$130, %edi	#,
	call	gen_rtx_fmt_e	#
	movq	%rax, %rdx	#, D.27445
	movq	-8(%rbp), %rax	# operand0, tmp63
	movq	%rdx, %rcx	# D.27445,
	movq	%rax, %rdx	# tmp63,
	movl	$0, %esi	#,
	movl	$47, %edi	#,
	call	gen_rtx_fmt_ee	#
	.loc 1 3187 0
	leave
	.cfi_def_cfa 7, 8
	ret
	.cfi_endproc
.LFE182:
	.size	gen_sqrtv4sf2, .-gen_sqrtv4sf2
	.globl	gen_vmsqrtv4sf2
	.type	gen_vmsqrtv4sf2, @function
gen_vmsqrtv4sf2:
.LFB183:
	.loc 1 3194 0
	.cfi_startproc
	pushq	%rbp	#
	.cfi_def_cfa_offset 16
	.cfi_offset 6, -16
	movq	%rsp, %rbp	#,
	.cfi_def_cfa_register 6
	pushq	%rbx	#
	subq	$40, %rsp	#,
	.cfi_offset 3, -24
	movq	%rdi, -24(%rbp)	# operand0, operand0
	movq	%rsi, -32(%rbp)	# operand1, operand1
	movq	%rdx, -40(%rbp)	# operand2, operand2
	.loc 1 3195 0
	movq	const_int_rtx+520(%rip), %rbx	# const_int_rtx, D.27446
	movq	-32(%rbp), %rax	# operand1, tmp64
	movq	%rax, %rdx	# tmp64,
	movl	$46, %esi	#,
	movl	$130, %edi	#,
	call	gen_rtx_fmt_e	#
	movq	-40(%rbp), %rdx	# operand2, tmp65
	movq	%rbx, %r8	# D.27446,
	movq	%rdx, %rcx	# tmp65,
	movq	%rax, %rdx	# D.27446,
	movl	$46, %esi	#,
	movl	$142, %edi	#,
	call	gen_rtx_fmt_eee	#
	movq	%rax, %rdx	#, D.27446
	movq	-24(%rbp), %rax	# operand0, tmp66
	movq	%rdx, %rcx	# D.27446,
	movq	%rax, %rdx	# tmp66,
	movl	$0, %esi	#,
	movl	$47, %edi	#,
	call	gen_rtx_fmt_ee	#
	.loc 1 3202 0
	addq	$40, %rsp	#,
	popq	%rbx	#
	popq	%rbp	#
	.cfi_def_cfa 7, 8
	ret
	.cfi_endproc
.LFE183:
	.size	gen_vmsqrtv4sf2, .-gen_vmsqrtv4sf2
	.globl	gen_sse_andti3
	.type	gen_sse_andti3, @function
gen_sse_andti3:
.LFB184:
	.loc 1 3209 0
	.cfi_startproc
	pushq	%rbp	#
	.cfi_def_cfa_offset 16
	.cfi_offset 6, -16
	movq	%rsp, %rbp	#,
	.cfi_def_cfa_register 6
	subq	$32, %rsp	#,
	movq	%rdi, -8(%rbp)	# operand0, operand0
	movq	%rsi, -16(%rbp)	# operand1, operand1
	movq	%rdx, -24(%rbp)	# operand2, operand2
	.loc 1 3210 0
	movq	-24(%rbp), %rdx	# operand2, tmp62
	movq	-16(%rbp), %rax	# operand1, tmp63
	movq	%rdx, %rcx	# tmp62,
	movq	%rax, %rdx	# tmp63,
	movl	$6, %esi	#,
	movl	$83, %edi	#,
	call	gen_rtx_fmt_ee	#
	movq	%rax, %rdx	#, D.27447
	movq	-8(%rbp), %rax	# operand0, tmp64
	movq	%rdx, %rcx	# D.27447,
	movq	%rax, %rdx	# tmp64,
	movl	$0, %esi	#,
	movl	$47, %edi	#,
	call	gen_rtx_fmt_ee	#
	.loc 1 3215 0
	leave
	.cfi_def_cfa 7, 8
	ret
	.cfi_endproc
.LFE184:
	.size	gen_sse_andti3, .-gen_sse_andti3
	.globl	gen_sse_nandti3
	.type	gen_sse_nandti3, @function
gen_sse_nandti3:
.LFB185:
	.loc 1 3222 0
	.cfi_startproc
	pushq	%rbp	#
	.cfi_def_cfa_offset 16
	.cfi_offset 6, -16
	movq	%rsp, %rbp	#,
	.cfi_def_cfa_register 6
	subq	$32, %rsp	#,
