	.file	"insn-output.c"
# GNU C (Ubuntu/Linaro 4.8.1-10ubuntu9) version 4.8.1 (x86_64-linux-gnu)
#	compiled by GNU C version 4.8.1, GMP version 5.1.2, MPFR version 3.1.1-p2, MPC version 1.0.1
# GGC heuristics: --param ggc-min-expand=100 --param ggc-min-heapsize=131072
# options passed:  -I . -imultiarch x86_64-linux-gnu -D SPEC_CPU -D NDEBUG
# -D SPEC_CPU_LP64 insn-output.c -mtune=generic -march=x86-64 -g
# -fverbose-asm -fno-strict-aliasing -fstack-protector -Wformat
# -Wformat-security
# options enabled:  -faggressive-loop-optimizations
# -fasynchronous-unwind-tables -fauto-inc-dec -fbranch-count-reg -fcommon
# -fdelete-null-pointer-checks -fdwarf2-cfi-asm -fearly-inlining
# -feliminate-unused-debug-types -ffunction-cse -fgcse-lm -fgnu-runtime
# -fident -finline-atomics -fira-hoist-pressure -fira-share-save-slots
# -fira-share-spill-slots -fivopts -fkeep-static-consts
# -fleading-underscore -fmath-errno -fmerge-debug-strings
# -fmove-loop-invariants -fpeephole -fprefetch-loop-arrays
# -freg-struct-return -fsched-critical-path-heuristic
# -fsched-dep-count-heuristic -fsched-group-heuristic -fsched-interblock
# -fsched-last-insn-heuristic -fsched-rank-heuristic -fsched-spec
# -fsched-spec-insn-heuristic -fsched-stalled-insns-dep -fshow-column
# -fsigned-zeros -fsplit-ivs-in-unroller -fstack-protector
# -fstrict-volatile-bitfields -fsync-libcalls -ftrapping-math
# -ftree-coalesce-vars -ftree-cselim -ftree-forwprop -ftree-loop-if-convert
# -ftree-loop-im -ftree-loop-ivcanon -ftree-loop-optimize
# -ftree-parallelize-loops= -ftree-phiprop -ftree-pta -ftree-reassoc
# -ftree-scev-cprop -ftree-slp-vectorize -ftree-vect-loop-version
# -funit-at-a-time -funwind-tables -fverbose-asm -fzero-initialized-in-bss
# -m128bit-long-double -m64 -m80387 -maccumulate-outgoing-args
# -malign-stringops -mfancy-math-387 -mfp-ret-in-387 -mfxsr -mglibc
# -mieee-fp -mlong-double-80 -mmmx -mno-sse4 -mpush-args -mred-zone -msse
# -msse2 -mtls-direct-seg-refs

	.text
.Ltext0:
	.section	.rodata
.LC0:
	.string	"test{q}\t{%0, %0|%0, %0}"
.LC1:
	.string	"cmp{q}\t{%1, %0|%0, %1}"
	.align 16
	.type	output_0, @object
	.size	output_0, 16
output_0:
	.quad	.LC0
	.quad	.LC1
.LC2:
	.string	"test{l}\t{%0, %0|%0, %0}"
.LC3:
	.string	"cmp{l}\t{%1, %0|%0, %1}"
	.align 16
	.type	output_3, @object
	.size	output_3, 16
output_3:
	.quad	.LC2
	.quad	.LC3
.LC4:
	.string	"test{w}\t{%0, %0|%0, %0}"
.LC5:
	.string	"cmp{w}\t{%1, %0|%0, %1}"
	.align 16
	.type	output_6, @object
	.size	output_6, 16
output_6:
	.quad	.LC4
	.quad	.LC5
.LC6:
	.string	"test{b}\t{%0, %0|%0, %0}"
.LC7:
	.string	"cmp{b}\t{$0, %0|%0, 0}"
	.align 16
	.type	output_9, @object
	.size	output_9, 16
output_9:
	.quad	.LC6
	.quad	.LC7
.LC8:
	.string	"ftst\n\tfnstsw\t%0\n\tfstp\t%y0"
.LC9:
	.string	"ftst\n\tfnstsw\t%0"
	.text
	.type	output_18, @function
output_18:
.LFB2:
	.file 1 "insn-output.c"
	.loc 1 52 0
	.cfi_startproc
	pushq	%rbp	#
	.cfi_def_cfa_offset 16
	.cfi_offset 6, -16
	movq	%rsp, %rbp	#,
	.cfi_def_cfa_register 6
	subq	$16, %rsp	#,
	movq	%rdi, -8(%rbp)	# operands, operands
	movq	%rsi, -16(%rbp)	# insn, insn
	.loc 1 54 0
	movq	-8(%rbp), %rax	# operands, tmp65
	addq	$8, %rax	#, D.16326
	movq	(%rax), %rax	# *_3, D.16327
	movl	8(%rax), %edx	# _4->fld[0].rtuint, D.16328
	movq	-16(%rbp), %rax	# insn, tmp66
	movl	$1, %esi	#,
	movq	%rax, %rdi	# tmp66,
	call	find_regno_note	#
	testq	%rax, %rax	# D.16327
	je	.L2	#,
	.loc 1 55 0
	movl	$.LC8, %eax	#, D.16325
	jmp	.L3	#
.L2:
	.loc 1 57 0
	movl	$.LC9, %eax	#, D.16325
.L3:
	.loc 1 59 0
	leave
	.cfi_def_cfa 7, 8
	ret
	.cfi_endproc
.LFE2:
	.size	output_18, .-output_18
	.type	output_19, @function
output_19:
.LFB3:
	.loc 1 67 0
	.cfi_startproc
	pushq	%rbp	#
	.cfi_def_cfa_offset 16
	.cfi_offset 6, -16
	movq	%rsp, %rbp	#,
	.cfi_def_cfa_register 6
	subq	$16, %rsp	#,
	movq	%rdi, -8(%rbp)	# operands, operands
	movq	%rsi, -16(%rbp)	# insn, insn
	.loc 1 68 0
	movq	-8(%rbp), %rsi	# operands, tmp61
	movq	-16(%rbp), %rax	# insn, tmp62
	movl	$0, %ecx	#,
	movl	$0, %edx	#,
	movq	%rax, %rdi	# tmp62,
	call	output_fp_compare	#
	.loc 1 69 0
	leave
	.cfi_def_cfa 7, 8
	ret
	.cfi_endproc
.LFE3:
	.size	output_19, .-output_19
	.type	output_20, @function
output_20:
.LFB4:
	.loc 1 77 0
	.cfi_startproc
	pushq	%rbp	#
	.cfi_def_cfa_offset 16
	.cfi_offset 6, -16
	movq	%rsp, %rbp	#,
	.cfi_def_cfa_register 6
	subq	$16, %rsp	#,
	movq	%rdi, -8(%rbp)	# operands, operands
	movq	%rsi, -16(%rbp)	# insn, insn
	.loc 1 78 0
	movq	-8(%rbp), %rsi	# operands, tmp61
	movq	-16(%rbp), %rax	# insn, tmp62
	movl	$0, %ecx	#,
	movl	$2, %edx	#,
	movq	%rax, %rdi	# tmp62,
	call	output_fp_compare	#
	.loc 1 79 0
	leave
	.cfi_def_cfa 7, 8
	ret
	.cfi_endproc
.LFE4:
	.size	output_20, .-output_20
	.type	output_21, @function
output_21:
.LFB5:
	.loc 1 87 0
	.cfi_startproc
	pushq	%rbp	#
	.cfi_def_cfa_offset 16
	.cfi_offset 6, -16
	movq	%rsp, %rbp	#,
	.cfi_def_cfa_register 6
	subq	$16, %rsp	#,
	movq	%rdi, -8(%rbp)	# operands, operands
	movq	%rsi, -16(%rbp)	# insn, insn
	.loc 1 88 0
	movq	-8(%rbp), %rsi	# operands, tmp61
	movq	-16(%rbp), %rax	# insn, tmp62
	movl	$0, %ecx	#,
	movl	$0, %edx	#,
	movq	%rax, %rdi	# tmp62,
	call	output_fp_compare	#
	.loc 1 89 0
	leave
	.cfi_def_cfa 7, 8
	ret
	.cfi_endproc
.LFE5:
	.size	output_21, .-output_21
	.type	output_22, @function
output_22:
.LFB6:
	.loc 1 97 0
	.cfi_startproc
	pushq	%rbp	#
	.cfi_def_cfa_offset 16
	.cfi_offset 6, -16
	movq	%rsp, %rbp	#,
	.cfi_def_cfa_register 6
	subq	$16, %rsp	#,
	movq	%rdi, -8(%rbp)	# operands, operands
	movq	%rsi, -16(%rbp)	# insn, insn
	.loc 1 98 0
	movq	-8(%rbp), %rsi	# operands, tmp61
	movq	-16(%rbp), %rax	# insn, tmp62
	movl	$0, %ecx	#,
	movl	$2, %edx	#,
	movq	%rax, %rdi	# tmp62,
	call	output_fp_compare	#
	.loc 1 99 0
	leave
	.cfi_def_cfa 7, 8
	ret
	.cfi_endproc
.LFE6:
	.size	output_22, .-output_22
	.type	output_23, @function
output_23:
.LFB7:
	.loc 1 107 0
	.cfi_startproc
	pushq	%rbp	#
	.cfi_def_cfa_offset 16
	.cfi_offset 6, -16
	movq	%rsp, %rbp	#,
	.cfi_def_cfa_register 6
	subq	$16, %rsp	#,
	movq	%rdi, -8(%rbp)	# operands, operands
	movq	%rsi, -16(%rbp)	# insn, insn
	.loc 1 108 0
	movq	-8(%rbp), %rsi	# operands, tmp61
	movq	-16(%rbp), %rax	# insn, tmp62
	movl	$0, %ecx	#,
	movl	$0, %edx	#,
	movq	%rax, %rdi	# tmp62,
	call	output_fp_compare	#
	.loc 1 109 0
	leave
	.cfi_def_cfa 7, 8
	ret
	.cfi_endproc
.LFE7:
	.size	output_23, .-output_23
	.type	output_24, @function
output_24:
.LFB8:
	.loc 1 117 0
	.cfi_startproc
	pushq	%rbp	#
	.cfi_def_cfa_offset 16
	.cfi_offset 6, -16
	movq	%rsp, %rbp	#,
	.cfi_def_cfa_register 6
	subq	$16, %rsp	#,
	movq	%rdi, -8(%rbp)	# operands, operands
	movq	%rsi, -16(%rbp)	# insn, insn
	.loc 1 118 0
	movq	-8(%rbp), %rsi	# operands, tmp61
	movq	-16(%rbp), %rax	# insn, tmp62
	movl	$0, %ecx	#,
	movl	$0, %edx	#,
	movq	%rax, %rdi	# tmp62,
	call	output_fp_compare	#
	.loc 1 119 0
	leave
	.cfi_def_cfa 7, 8
	ret
	.cfi_endproc
.LFE8:
	.size	output_24, .-output_24
	.type	output_25, @function
output_25:
.LFB9:
	.loc 1 127 0
	.cfi_startproc
	pushq	%rbp	#
	.cfi_def_cfa_offset 16
	.cfi_offset 6, -16
	movq	%rsp, %rbp	#,
	.cfi_def_cfa_register 6
	subq	$16, %rsp	#,
	movq	%rdi, -8(%rbp)	# operands, operands
	movq	%rsi, -16(%rbp)	# insn, insn
	.loc 1 128 0
	movq	-8(%rbp), %rsi	# operands, tmp61
	movq	-16(%rbp), %rax	# insn, tmp62
	movl	$0, %ecx	#,
	movl	$2, %edx	#,
	movq	%rax, %rdi	# tmp62,
	call	output_fp_compare	#
	.loc 1 129 0
	leave
	.cfi_def_cfa 7, 8
	ret
	.cfi_endproc
.LFE9:
	.size	output_25, .-output_25
	.type	output_26, @function
output_26:
.LFB10:
	.loc 1 137 0
	.cfi_startproc
	pushq	%rbp	#
	.cfi_def_cfa_offset 16
	.cfi_offset 6, -16
	movq	%rsp, %rbp	#,
	.cfi_def_cfa_register 6
	subq	$16, %rsp	#,
	movq	%rdi, -8(%rbp)	# operands, operands
	movq	%rsi, -16(%rbp)	# insn, insn
	.loc 1 138 0
	movq	-8(%rbp), %rsi	# operands, tmp61
	movq	-16(%rbp), %rax	# insn, tmp62
	movl	$0, %ecx	#,
	movl	$2, %edx	#,
	movq	%rax, %rdi	# tmp62,
	call	output_fp_compare	#
	.loc 1 139 0
	leave
	.cfi_def_cfa 7, 8
	ret
	.cfi_endproc
.LFE10:
	.size	output_26, .-output_26
	.type	output_27, @function
output_27:
.LFB11:
	.loc 1 147 0
	.cfi_startproc
	pushq	%rbp	#
	.cfi_def_cfa_offset 16
	.cfi_offset 6, -16
	movq	%rsp, %rbp	#,
	.cfi_def_cfa_register 6
	subq	$16, %rsp	#,
	movq	%rdi, -8(%rbp)	# operands, operands
	movq	%rsi, -16(%rbp)	# insn, insn
	.loc 1 148 0
	movq	-8(%rbp), %rsi	# operands, tmp61
	movq	-16(%rbp), %rax	# insn, tmp62
	movl	$1, %ecx	#,
	movl	$0, %edx	#,
	movq	%rax, %rdi	# tmp62,
	call	output_fp_compare	#
	.loc 1 149 0
	leave
	.cfi_def_cfa 7, 8
	ret
	.cfi_endproc
.LFE11:
	.size	output_27, .-output_27
	.type	output_28, @function
output_28:
.LFB12:
	.loc 1 157 0
	.cfi_startproc
	pushq	%rbp	#
	.cfi_def_cfa_offset 16
	.cfi_offset 6, -16
	movq	%rsp, %rbp	#,
	.cfi_def_cfa_register 6
	subq	$16, %rsp	#,
	movq	%rdi, -8(%rbp)	# operands, operands
	movq	%rsi, -16(%rbp)	# insn, insn
	.loc 1 158 0
	movq	-8(%rbp), %rsi	# operands, tmp61
	movq	-16(%rbp), %rax	# insn, tmp62
	movl	$1, %ecx	#,
	movl	$2, %edx	#,
	movq	%rax, %rdi	# tmp62,
	call	output_fp_compare	#
	.loc 1 159 0
	leave
	.cfi_def_cfa 7, 8
	ret
	.cfi_endproc
.LFE12:
	.size	output_28, .-output_28
	.type	output_32, @function
output_32:
.LFB13:
	.loc 1 167 0
	.cfi_startproc
	pushq	%rbp	#
	.cfi_def_cfa_offset 16
	.cfi_offset 6, -16
	movq	%rsp, %rbp	#,
	.cfi_def_cfa_register 6
	subq	$16, %rsp	#,
	movq	%rdi, -8(%rbp)	# operands, operands
	movq	%rsi, -16(%rbp)	# insn, insn
	.loc 1 168 0
	movq	-8(%rbp), %rsi	# operands, tmp61
	movq	-16(%rbp), %rax	# insn, tmp62
	movl	$0, %ecx	#,
	movl	$1, %edx	#,
	movq	%rax, %rdi	# tmp62,
	call	output_fp_compare	#
	.loc 1 169 0
	leave
	.cfi_def_cfa 7, 8
	ret
	.cfi_endproc
.LFE13:
	.size	output_32, .-output_32
	.type	output_33, @function
output_33:
.LFB14:
	.loc 1 177 0
	.cfi_startproc
	pushq	%rbp	#
	.cfi_def_cfa_offset 16
	.cfi_offset 6, -16
	movq	%rsp, %rbp	#,
	.cfi_def_cfa_register 6
	subq	$16, %rsp	#,
	movq	%rdi, -8(%rbp)	# operands, operands
	movq	%rsi, -16(%rbp)	# insn, insn
	.loc 1 178 0
	movq	-8(%rbp), %rsi	# operands, tmp61
	movq	-16(%rbp), %rax	# insn, tmp62
	movl	$0, %ecx	#,
	movl	$1, %edx	#,
	movq	%rax, %rdi	# tmp62,
	call	output_fp_compare	#
	.loc 1 179 0
	leave
	.cfi_def_cfa 7, 8
	ret
	.cfi_endproc
.LFE14:
	.size	output_33, .-output_33
	.type	output_34, @function
output_34:
.LFB15:
	.loc 1 187 0
	.cfi_startproc
	pushq	%rbp	#
	.cfi_def_cfa_offset 16
	.cfi_offset 6, -16
	movq	%rsp, %rbp	#,
	.cfi_def_cfa_register 6
	subq	$16, %rsp	#,
	movq	%rdi, -8(%rbp)	# operands, operands
	movq	%rsi, -16(%rbp)	# insn, insn
	.loc 1 188 0
	movq	-8(%rbp), %rsi	# operands, tmp61
	movq	-16(%rbp), %rax	# insn, tmp62
	movl	$0, %ecx	#,
	movl	$1, %edx	#,
	movq	%rax, %rdi	# tmp62,
	call	output_fp_compare	#
	.loc 1 189 0
	leave
	.cfi_def_cfa 7, 8
	ret
	.cfi_endproc
.LFE15:
	.size	output_34, .-output_34
	.type	output_35, @function
output_35:
.LFB16:
	.loc 1 197 0
	.cfi_startproc
	pushq	%rbp	#
	.cfi_def_cfa_offset 16
	.cfi_offset 6, -16
	movq	%rsp, %rbp	#,
	.cfi_def_cfa_register 6
	subq	$16, %rsp	#,
	movq	%rdi, -8(%rbp)	# operands, operands
	movq	%rsi, -16(%rbp)	# insn, insn
	.loc 1 198 0
	movq	-8(%rbp), %rsi	# operands, tmp61
	movq	-16(%rbp), %rax	# insn, tmp62
	movl	$1, %ecx	#,
	movl	$1, %edx	#,
	movq	%rax, %rdi	# tmp62,
	call	output_fp_compare	#
	.loc 1 199 0
	leave
	.cfi_def_cfa 7, 8
	ret
	.cfi_endproc
.LFE16:
	.size	output_35, .-output_35
	.type	output_36, @function
output_36:
.LFB17:
	.loc 1 207 0
	.cfi_startproc
	pushq	%rbp	#
	.cfi_def_cfa_offset 16
	.cfi_offset 6, -16
	movq	%rsp, %rbp	#,
	.cfi_def_cfa_register 6
	subq	$16, %rsp	#,
	movq	%rdi, -8(%rbp)	# operands, operands
	movq	%rsi, -16(%rbp)	# insn, insn
	.loc 1 208 0
	movq	-8(%rbp), %rsi	# operands, tmp61
	movq	-16(%rbp), %rax	# insn, tmp62
	movl	$1, %ecx	#,
	movl	$1, %edx	#,
	movq	%rax, %rdi	# tmp62,
	call	output_fp_compare	#
	.loc 1 209 0
	leave
	.cfi_def_cfa 7, 8
	ret
	.cfi_endproc
.LFE17:
	.size	output_36, .-output_36
	.type	output_37, @function
output_37:
.LFB18:
	.loc 1 217 0
	.cfi_startproc
	pushq	%rbp	#
	.cfi_def_cfa_offset 16
	.cfi_offset 6, -16
	movq	%rsp, %rbp	#,
	.cfi_def_cfa_register 6
	subq	$16, %rsp	#,
	movq	%rdi, -8(%rbp)	# operands, operands
	movq	%rsi, -16(%rbp)	# insn, insn
	.loc 1 218 0
	movq	-8(%rbp), %rsi	# operands, tmp61
	movq	-16(%rbp), %rax	# insn, tmp62
	movl	$1, %ecx	#,
	movl	$1, %edx	#,
	movq	%rax, %rdi	# tmp62,
	call	output_fp_compare	#
	.loc 1 219 0
	leave
	.cfi_def_cfa 7, 8
	ret
	.cfi_endproc
.LFE18:
	.size	output_37, .-output_37
	.section	.rodata
.LC10:
	.string	"or{l}\t{%1, %0|%0, %1}"
	.text
	.type	output_44, @function
output_44:
.LFB19:
	.loc 1 227 0
	.cfi_startproc
	pushq	%rbp	#
	.cfi_def_cfa_offset 16
	.cfi_offset 6, -16
	movq	%rsp, %rbp	#,
	.cfi_def_cfa_register 6
	movq	%rdi, -8(%rbp)	# operands, operands
	movq	%rsi, -16(%rbp)	# insn, insn
	.loc 1 229 0
	movq	-8(%rbp), %rax	# operands, tmp63
	leaq	8(%rax), %rdx	#, D.16347
	movq	const_int_rtx+504(%rip), %rax	# const_int_rtx, D.16348
	movq	%rax, (%rdx)	# D.16348, *_2
	.loc 1 230 0
	movl	$.LC10, %eax	#, D.16349
	.loc 1 232 0
	popq	%rbp	#
	.cfi_def_cfa 7, 8
	ret
	.cfi_endproc
.LFE19:
	.size	output_44, .-output_44
	.section	.rodata
.LC11:
	.string	"movdqa\t{%1, %0|%0, %1}"
.LC12:
	.string	"movd\t{%1, %0|%0, %1}"
.LC13:
	.string	"movq\t{%1, %0|%0, %1}"
.LC14:
	.string	"lea{l}\t{%1, %0|%0, %1}"
.LC15:
	.string	"insn-output.c"
.LC16:
	.string	"mov{l}\t{%1, %0|%0, %1}"
	.text
	.type	output_45, @function
output_45:
.LFB20:
	.loc 1 240 0
	.cfi_startproc
	pushq	%rbp	#
	.cfi_def_cfa_offset 16
	.cfi_offset 6, -16
	movq	%rsp, %rbp	#,
	.cfi_def_cfa_register 6
	subq	$16, %rsp	#,
	movq	%rdi, -8(%rbp)	# operands, operands
	movq	%rsi, -16(%rbp)	# insn, insn
	.loc 1 242 0
	movq	-16(%rbp), %rax	# insn, tmp77
	movq	%rax, %rdi	# tmp77,
	call	get_attr_type	#
	cmpl	$33, %eax	#, D.16352
	je	.L40	#,
	cmpl	$34, %eax	#, D.16352
	je	.L41	#,
	cmpl	$9, %eax	#, D.16352
	je	.L42	#,
	jmp	.L48	#
.L40:
	.loc 1 245 0
	movq	-16(%rbp), %rax	# insn, tmp78
	movq	%rax, %rdi	# tmp78,
	call	get_attr_mode	#
	cmpl	$6, %eax	#, D.16353
	jne	.L43	#,
	.loc 1 246 0
	movl	$.LC11, %eax	#, D.16351
	jmp	.L44	#
.L43:
	.loc 1 247 0
	movl	$.LC12, %eax	#, D.16351
	jmp	.L44	#
.L41:
	.loc 1 250 0
	movq	-16(%rbp), %rax	# insn, tmp79
	movq	%rax, %rdi	# tmp79,
	call	get_attr_mode	#
	cmpl	$5, %eax	#, D.16353
	jne	.L45	#,
	.loc 1 251 0
	movl	$.LC13, %eax	#, D.16351
	jmp	.L44	#
.L45:
	.loc 1 252 0
	movl	$.LC12, %eax	#, D.16351
	jmp	.L44	#
.L42:
	.loc 1 255 0
	movl	$.LC14, %eax	#, D.16351
	jmp	.L44	#
.L48:
	.loc 1 258 0
	movl	flag_pic(%rip), %eax	# flag_pic, flag_pic.0
	testl	%eax, %eax	# flag_pic.0
	je	.L46	#,
	.loc 1 258 0 is_stmt 0 discriminator 1
	movq	-8(%rbp), %rax	# operands, tmp80
	addq	$8, %rax	#, D.16354
	movq	(%rax), %rax	# *_13, D.16355
	movzwl	(%rax), %eax	# _14->code, D.16356
	cmpw	$68, %ax	#, D.16356
	je	.L47	#,
	movq	-8(%rbp), %rax	# operands, tmp81
	addq	$8, %rax	#, D.16354
	movq	(%rax), %rax	# *_16, D.16355
	movzwl	(%rax), %eax	# _17->code, D.16356
	cmpw	$67, %ax	#, D.16356
	je	.L47	#,
	movq	-8(%rbp), %rax	# operands, tmp82
	addq	$8, %rax	#, D.16354
	movq	(%rax), %rax	# *_19, D.16355
	movzwl	(%rax), %eax	# _20->code, D.16356
	cmpw	$58, %ax	#, D.16356
	jne	.L46	#,
	movq	-8(%rbp), %rax	# operands, tmp83
	addq	$8, %rax	#, D.16354
	movq	(%rax), %rax	# *_22, D.16355
	movq	%rax, %rdi	# D.16355,
	call	symbolic_reference_mentioned_p	#
	testl	%eax, %eax	# D.16357
	je	.L46	#,
.L47:
	.loc 1 259 0 is_stmt 1
	movl	$__FUNCTION__.11478, %edx	#,
	movl	$259, %esi	#,
	movl	$.LC15, %edi	#,
	call	fancy_abort	#
.L46:
	.loc 1 260 0
	movl	$.LC16, %eax	#, D.16351
.L44:
	.loc 1 263 0
	leave
	.cfi_def_cfa 7, 8
	ret
	.cfi_endproc
.LFE20:
	.size	output_45, .-output_45
	.section	.rodata
.LC17:
	.string	"movabs{l}\t{%1, %P0|%P0, %1}"
.LC18:
	.string	"mov{l}\t{%1, %a0|%a0, %1}"
.LC19:
	.string	"movabs{l}\t{%1, %a0|%a0, %1}"
	.align 16
	.type	output_46, @object
	.size	output_46, 24
output_46:
	.quad	.LC17
	.quad	.LC18
	.quad	.LC19
.LC20:
	.string	"movabs{l}\t{%P1, %0|%0, %P1}"
.LC21:
	.string	"mov{l}\t{%a1, %0|%0, %a1}"
	.align 16
	.type	output_47, @object
	.size	output_47, 16
output_47:
	.quad	.LC20
	.quad	.LC21
.LC22:
	.string	"push{w}\t{|WORD PTR }%1"
.LC23:
	.string	"push{w}\t%1"
	.align 16
	.type	output_49, @object
	.size	output_49, 16
output_49:
	.quad	.LC22
	.quad	.LC23
.LC24:
	.string	"movz{wl|x}\t{%1, %k0|%k0, %1}"
.LC25:
	.string	"mov{l}\t{%k1, %k0|%k0, %k1}"
.LC26:
	.string	"mov{w}\t{%1, %0|%0, %1}"
	.text
	.type	output_51, @function
output_51:
.LFB21:
	.loc 1 287 0
	.cfi_startproc
	pushq	%rbp	#
	.cfi_def_cfa_offset 16
	.cfi_offset 6, -16
	movq	%rsp, %rbp	#,
	.cfi_def_cfa_register 6
	subq	$16, %rsp	#,
	movq	%rdi, -8(%rbp)	# operands, operands
	movq	%rsi, -16(%rbp)	# insn, insn
	.loc 1 289 0
	movq	-16(%rbp), %rax	# insn, tmp63
	movq	%rax, %rdi	# tmp63,
	call	get_attr_type	#
	cmpl	$8, %eax	#, D.16372
	jne	.L54	#,
	.loc 1 294 0
	movl	$.LC24, %eax	#, D.16371
	jmp	.L52	#
.L54:
	.loc 1 296 0
	movq	-16(%rbp), %rax	# insn, tmp64
	movq	%rax, %rdi	# tmp64,
	call	get_attr_mode	#
	cmpl	$4, %eax	#, D.16373
	jne	.L53	#,
	.loc 1 297 0
	movl	$.LC25, %eax	#, D.16371
	jmp	.L52	#
.L53:
	.loc 1 299 0
	movl	$.LC26, %eax	#, D.16371
.L52:
	.loc 1 302 0
	leave
	.cfi_def_cfa 7, 8
	ret
	.cfi_endproc
.LFE21:
	.size	output_51, .-output_51
	.section	.rodata
.LC27:
	.string	"movabs{w}\t{%1, %P0|%P0, %1}"
.LC28:
	.string	"mov{w}\t{%1, %a0|%a0, %1}"
.LC29:
	.string	"movabs{w}\t{%1, %a0|%a0, %1}"
	.align 16
	.type	output_52, @object
	.size	output_52, 24
output_52:
	.quad	.LC27
	.quad	.LC28
	.quad	.LC29
.LC30:
	.string	"movabs{w}\t{%P1, %0|%0, %P1}"
.LC31:
	.string	"mov{w}\t{%a1, %0|%0, %a1}"
	.align 16
	.type	output_53, @object
	.size	output_53, 16
output_53:
	.quad	.LC30
	.quad	.LC31
.LC32:
	.string	"push{w}\t{|word ptr }%1"
.LC33:
	.string	"push{w}\t%w1"
	.align 16
	.type	output_58, @object
	.size	output_58, 16
output_58:
	.quad	.LC32
	.quad	.LC33
.LC34:
	.string	"movz{bl|x}\t{%1, %k0|%k0, %1}"
.LC35:
	.string	"mov{b}\t{%1, %0|%0, %1}"
	.text
	.type	output_60, @function
output_60:
.LFB22:
	.loc 1 326 0
	.cfi_startproc
	pushq	%rbp	#
	.cfi_def_cfa_offset 16
	.cfi_offset 6, -16
	movq	%rsp, %rbp	#,
	.cfi_def_cfa_register 6
	subq	$16, %rsp	#,
	movq	%rdi, -8(%rbp)	# operands, operands
	movq	%rsi, -16(%rbp)	# insn, insn
	.loc 1 328 0
	movq	-16(%rbp), %rax	# insn, tmp89
	movq	%rax, %rdi	# tmp89,
	call	get_attr_type	#
	cmpl	$8, %eax	#, D.16385
	jne	.L69	#,
	.loc 1 331 0
	movl	target_flags(%rip), %eax	# target_flags, target_flags.2
	andl	$33554432, %eax	#, D.16386
	testl	%eax, %eax	# D.16386
	je	.L58	#,
	.loc 1 331 0 is_stmt 0 discriminator 1
	movq	-8(%rbp), %rax	# operands, tmp90
	addq	$8, %rax	#, D.16387
	movq	(%rax), %rax	# *_10, D.16388
	movzwl	(%rax), %eax	# _11->code, D.16389
	cmpw	$61, %ax	#, D.16389
	jne	.L59	#,
	.loc 1 331 0 discriminator 2
	movq	-8(%rbp), %rax	# operands, tmp91
	addq	$8, %rax	#, D.16387
	movq	(%rax), %rax	# *_13, D.16388
	movl	8(%rax), %eax	# _14->fld[0].rtuint, D.16390
	cmpl	$7, %eax	#, D.16390
	jbe	.L60	#,
	.loc 1 331 0 discriminator 3
	movq	-8(%rbp), %rax	# operands, tmp92
	addq	$8, %rax	#, D.16387
	movq	(%rax), %rax	# *_16, D.16388
	movl	8(%rax), %eax	# _17->fld[0].rtuint, D.16390
	cmpl	$36, %eax	#, D.16390
	jbe	.L59	#,
	.loc 1 331 0 discriminator 1
	movq	-8(%rbp), %rax	# operands, tmp93
	addq	$8, %rax	#, D.16387
	movq	(%rax), %rax	# *_19, D.16388
	movl	8(%rax), %eax	# _20->fld[0].rtuint, D.16390
	cmpl	$44, %eax	#, D.16390
	jbe	.L60	#,
.L59:
	movl	$1, %eax	#, iftmp.3
	jmp	.L61	#
.L60:
	.loc 1 331 0 discriminator 4
	movl	$0, %eax	#, iftmp.3
.L61:
	.loc 1 331 0 discriminator 5
	andl	$1, %eax	#, iftmp.1
	jmp	.L62	#
.L58:
	.loc 1 331 0 discriminator 2
	movq	-8(%rbp), %rax	# operands, tmp94
	addq	$8, %rax	#, D.16387
	movq	(%rax), %rax	# *_25, D.16388
	movzwl	(%rax), %eax	# _26->code, D.16389
	cmpw	$61, %ax	#, D.16389
	jne	.L63	#,
	movq	-8(%rbp), %rax	# operands, tmp95
	addq	$8, %rax	#, D.16387
	movq	(%rax), %rax	# *_28, D.16388
	movl	8(%rax), %eax	# _29->fld[0].rtuint, D.16390
	cmpl	$3, %eax	#, D.16390
	jbe	.L64	#,
.L63:
	.loc 1 331 0 discriminator 1
	movl	$1, %eax	#, iftmp.4
	jmp	.L65	#
.L64:
	.loc 1 331 0 discriminator 3
	movl	$0, %eax	#, iftmp.4
.L65:
	.loc 1 331 0 discriminator 4
	andl	$1, %eax	#, iftmp.1
.L62:
	.loc 1 331 0 discriminator 3
	testb	%al, %al	# iftmp.1
	je	.L66	#,
	.loc 1 331 0 discriminator 1
	movq	-8(%rbp), %rax	# operands, tmp96
	addq	$8, %rax	#, D.16387
	movq	(%rax), %rax	# *_34, D.16388
	movzwl	(%rax), %eax	# _35->code, D.16389
	cmpw	$66, %ax	#, D.16389
	je	.L66	#,
	.loc 1 332 0 is_stmt 1
	movl	$__FUNCTION__.11502, %edx	#,
	movl	$332, %esi	#,
	movl	$.LC15, %edi	#,
	call	fancy_abort	#
.L66:
	.loc 1 333 0
	movl	$.LC34, %eax	#, D.16384
	jmp	.L67	#
.L69:
	.loc 1 335 0
	movq	-16(%rbp), %rax	# insn, tmp97
	movq	%rax, %rdi	# tmp97,
	call	get_attr_mode	#
	cmpl	$4, %eax	#, D.16391
	jne	.L68	#,
	.loc 1 336 0
	movl	$.LC25, %eax	#, D.16384
	jmp	.L67	#
.L68:
	.loc 1 338 0
	movl	$.LC35, %eax	#, D.16384
.L67:
	.loc 1 341 0
	leave
	.cfi_def_cfa 7, 8
	ret
	.cfi_endproc
.LFE22:
	.size	output_60, .-output_60
	.section	.rodata
	.align 8
.LC36:
	.string	"movs{bl|x}\t{%h1, %k0|%k0, %h1}"
.LC37:
	.string	"mov{b}\t{%h1, %0|%0, %h1}"
	.text
	.type	output_66, @function
output_66:
.LFB23:
	.loc 1 349 0
	.cfi_startproc
	pushq	%rbp	#
	.cfi_def_cfa_offset 16
	.cfi_offset 6, -16
	movq	%rsp, %rbp	#,
	.cfi_def_cfa_register 6
	subq	$16, %rsp	#,
	movq	%rdi, -8(%rbp)	# operands, operands
	movq	%rsi, -16(%rbp)	# insn, insn
	.loc 1 351 0
	movq	-16(%rbp), %rax	# insn, tmp62
	movq	%rax, %rdi	# tmp62,
	call	get_attr_type	#
	cmpl	$8, %eax	#, D.16395
	jne	.L74	#,
	.loc 1 354 0
	movl	$.LC36, %eax	#, D.16394
	jmp	.L73	#
.L74:
	.loc 1 356 0
	movl	$.LC37, %eax	#, D.16394
.L73:
	.loc 1 359 0
	leave
	.cfi_def_cfa 7, 8
	ret
	.cfi_endproc
.LFE23:
	.size	output_66, .-output_66
	.type	output_67, @function
output_67:
.LFB24:
	.loc 1 367 0
	.cfi_startproc
	pushq	%rbp	#
	.cfi_def_cfa_offset 16
	.cfi_offset 6, -16
	movq	%rsp, %rbp	#,
	.cfi_def_cfa_register 6
	subq	$16, %rsp	#,
	movq	%rdi, -8(%rbp)	# operands, operands
	movq	%rsi, -16(%rbp)	# insn, insn
	.loc 1 369 0
	movq	-16(%rbp), %rax	# insn, tmp62
	movq	%rax, %rdi	# tmp62,
	call	get_attr_type	#
	cmpl	$8, %eax	#, D.16399
	jne	.L79	#,
	.loc 1 372 0
	movl	$.LC36, %eax	#, D.16398
	jmp	.L78	#
.L79:
	.loc 1 374 0
	movl	$.LC37, %eax	#, D.16398
.L78:
	.loc 1 377 0
	leave
	.cfi_def_cfa 7, 8
	ret
	.cfi_endproc
.LFE24:
	.size	output_67, .-output_67
	.section	.rodata
.LC38:
	.string	"movabs{b}\t{%1, %P0|%P0, %1}"
.LC39:
	.string	"mov{b}\t{%1, %a0|%a0, %1}"
.LC40:
	.string	"movabs{b}\t{%1, %a0|%a0, %1}"
	.align 16
	.type	output_68, @object
	.size	output_68, 24
output_68:
	.quad	.LC38
	.quad	.LC39
	.quad	.LC40
.LC41:
	.string	"movabs{b}\t{%P1, %0|%0, %P1}"
.LC42:
	.string	"mov{b}\t{%a1, %0|%0, %a1}"
	.align 16
	.type	output_69, @object
	.size	output_69, 16
output_69:
	.quad	.LC41
	.quad	.LC42
	.align 8
.LC43:
	.string	"movz{bl|x}\t{%h1, %k0|%k0, %h1}"
	.text
	.type	output_71, @function
output_71:
.LFB25:
	.loc 1 396 0
	.cfi_startproc
	pushq	%rbp	#
	.cfi_def_cfa_offset 16
	.cfi_offset 6, -16
	movq	%rsp, %rbp	#,
	.cfi_def_cfa_register 6
	subq	$16, %rsp	#,
	movq	%rdi, -8(%rbp)	# operands, operands
	movq	%rsi, -16(%rbp)	# insn, insn
	.loc 1 398 0
	movq	-16(%rbp), %rax	# insn, tmp62
	movq	%rax, %rdi	# tmp62,
	call	get_attr_type	#
	cmpl	$8, %eax	#, D.16406
	jne	.L84	#,
	.loc 1 401 0
	movl	$.LC43, %eax	#, D.16405
	jmp	.L83	#
.L84:
	.loc 1 403 0
	movl	$.LC37, %eax	#, D.16405
.L83:
	.loc 1 406 0
	leave
	.cfi_def_cfa 7, 8
	ret
	.cfi_endproc
.LFE25:
	.size	output_71, .-output_71
	.type	output_72, @function
output_72:
.LFB26:
	.loc 1 414 0
	.cfi_startproc
	pushq	%rbp	#
	.cfi_def_cfa_offset 16
	.cfi_offset 6, -16
	movq	%rsp, %rbp	#,
	.cfi_def_cfa_register 6
	subq	$16, %rsp	#,
	movq	%rdi, -8(%rbp)	# operands, operands
	movq	%rsi, -16(%rbp)	# insn, insn
	.loc 1 416 0
	movq	-16(%rbp), %rax	# insn, tmp62
	movq	%rax, %rdi	# tmp62,
	call	get_attr_type	#
	cmpl	$8, %eax	#, D.16409
	jne	.L89	#,
	.loc 1 419 0
	movl	$.LC43, %eax	#, D.16408
	jmp	.L88	#
.L89:
	.loc 1 421 0
	movl	$.LC37, %eax	#, D.16408
.L88:
	.loc 1 424 0
	leave
	.cfi_def_cfa 7, 8
	ret
	.cfi_endproc
.LFE26:
	.size	output_72, .-output_72
	.section	.rodata
.LC44:
	.string	"push{q}\t%1"
.LC45:
	.string	"#"
	.align 16
	.type	output_77, @object
	.size	output_77, 16
output_77:
	.quad	.LC44
	.quad	.LC45
.LC46:
	.string	"or{q}\t{%1, %0|%0, %1}"
	.text
	.type	output_82, @function
output_82:
.LFB27:
	.loc 1 437 0
	.cfi_startproc
	pushq	%rbp	#
	.cfi_def_cfa_offset 16
	.cfi_offset 6, -16
	movq	%rsp, %rbp	#,
	.cfi_def_cfa_register 6
	movq	%rdi, -8(%rbp)	# operands, operands
	movq	%rsi, -16(%rbp)	# insn, insn
	.loc 1 439 0
	movq	-8(%rbp), %rax	# operands, tmp63
	leaq	8(%rax), %rdx	#, D.16412
	movq	const_int_rtx+504(%rip), %rax	# const_int_rtx, D.16413
	movq	%rax, (%rdx)	# D.16413, *_2
	.loc 1 440 0
	movl	$.LC46, %eax	#, D.16414
	.loc 1 442 0
	popq	%rbp	#
	.cfi_def_cfa 7, 8
	ret
	.cfi_endproc
.LFE27:
	.size	output_82, .-output_82
	.section	.rodata
	.align 32
	.type	output_83, @object
	.size	output_83, 56
output_83:
	.quad	.LC45
	.quad	.LC45
	.quad	.LC13
	.quad	.LC13
	.quad	.LC13
	.quad	.LC11
	.quad	.LC13
.LC47:
	.string	"lea{q}\t{%a1, %0|%0, %a1}"
.LC48:
	.string	"movabs{q}\t{%1, %0|%0, %1}"
.LC49:
	.string	"mov{q}\t{%1, %0|%0, %1}"
	.text
	.type	output_84, @function
output_84:
.LFB28:
	.loc 1 460 0
	.cfi_startproc
	pushq	%rbp	#
	.cfi_def_cfa_offset 16
	.cfi_offset 6, -16
	movq	%rsp, %rbp	#,
	.cfi_def_cfa_register 6
	subq	$16, %rsp	#,
	movq	%rdi, -8(%rbp)	# operands, operands
	movq	%rsi, -16(%rbp)	# insn, insn
	.loc 1 462 0
	movq	-16(%rbp), %rax	# insn, tmp82
	movq	%rax, %rdi	# tmp82,
	call	get_attr_type	#
	cmpl	$9, %eax	#, D.16417
	je	.L94	#,
	cmpl	$9, %eax	#, D.16417
	ja	.L95	#,
	cmpl	$1, %eax	#, D.16417
	je	.L96	#,
	jmp	.L93	#
.L95:
	cmpl	$33, %eax	#, D.16417
	je	.L97	#,
	cmpl	$34, %eax	#, D.16417
	je	.L98	#,
	jmp	.L93	#
.L97:
	.loc 1 465 0
	movq	-8(%rbp), %rax	# operands, tmp83
	movq	(%rax), %rax	# *operands_4(D), D.16418
	movl	$5, %esi	#,
	movq	%rax, %rdi	# D.16418,
	call	register_operand	#
	testl	%eax, %eax	# D.16419
	je	.L98	#,
	.loc 1 466 0
	movq	-8(%rbp), %rax	# operands, tmp84
	addq	$8, %rax	#, D.16420
	movq	(%rax), %rax	# *_7, D.16418
	movl	$5, %esi	#,
	movq	%rax, %rdi	# D.16418,
	call	register_operand	#
	testl	%eax, %eax	# D.16419
	je	.L98	#,
	.loc 1 467 0
	movl	$.LC11, %eax	#, D.16416
	jmp	.L99	#
.L98:
	.loc 1 470 0
	movl	$.LC13, %eax	#, D.16416
	jmp	.L99	#
.L96:
	.loc 1 472 0
	movl	$.LC45, %eax	#, D.16416
	jmp	.L99	#
.L94:
	.loc 1 474 0
	movl	$.LC47, %eax	#, D.16416
	jmp	.L99	#
.L93:
	.loc 1 476 0
	movl	flag_pic(%rip), %eax	# flag_pic, flag_pic.5
	testl	%eax, %eax	# flag_pic.5
	je	.L100	#,
	.loc 1 476 0 is_stmt 0 discriminator 1
	movq	-8(%rbp), %rax	# operands, tmp85
	addq	$8, %rax	#, D.16420
	movq	(%rax), %rax	# *_15, D.16418
	movzwl	(%rax), %eax	# _16->code, D.16421
	cmpw	$68, %ax	#, D.16421
	je	.L101	#,
	movq	-8(%rbp), %rax	# operands, tmp86
	addq	$8, %rax	#, D.16420
	movq	(%rax), %rax	# *_18, D.16418
	movzwl	(%rax), %eax	# _19->code, D.16421
	cmpw	$67, %ax	#, D.16421
	je	.L101	#,
	movq	-8(%rbp), %rax	# operands, tmp87
	addq	$8, %rax	#, D.16420
	movq	(%rax), %rax	# *_21, D.16418
	movzwl	(%rax), %eax	# _22->code, D.16421
	cmpw	$58, %ax	#, D.16421
	jne	.L100	#,
	movq	-8(%rbp), %rax	# operands, tmp88
	addq	$8, %rax	#, D.16420
	movq	(%rax), %rax	# *_24, D.16418
	movq	%rax, %rdi	# D.16418,
	call	symbolic_reference_mentioned_p	#
	testl	%eax, %eax	# D.16419
	je	.L100	#,
.L101:
	.loc 1 477 0 is_stmt 1
	movl	$__FUNCTION__.11563, %edx	#,
	movl	$477, %esi	#,
	movl	$.LC15, %edi	#,
	call	fancy_abort	#
.L100:
	.loc 1 478 0
	movq	-16(%rbp), %rax	# insn, tmp89
	movq	%rax, %rdi	# tmp89,
	call	get_attr_mode	#
	cmpl	$4, %eax	#, D.16422
	jne	.L102	#,
	.loc 1 479 0
	movl	$.LC25, %eax	#, D.16416
	jmp	.L99	#
.L102:
	.loc 1 480 0
	movl	which_alternative(%rip), %eax	# which_alternative, which_alternative.6
	cmpl	$2, %eax	#, which_alternative.6
	jne	.L103	#,
	.loc 1 481 0
	movl	$.LC48, %eax	#, D.16416
	jmp	.L99	#
.L103:
	.loc 1 483 0
	movl	$.LC49, %eax	#, D.16416
.L99:
	.loc 1 486 0
	leave
	.cfi_def_cfa 7, 8
	ret
	.cfi_endproc
.LFE28:
	.size	output_84, .-output_84
	.section	.rodata
.LC50:
	.string	"movabs{q}\t{%1, %P0|%P0, %1}"
.LC51:
	.string	"mov{q}\t{%1, %a0|%a0, %1}"
	.align 16
	.type	output_85, @object
	.size	output_85, 16
output_85:
	.quad	.LC50
	.quad	.LC51
.LC52:
	.string	"movabs{q}\t{%P1, %0|%0, %P1}"
.LC53:
	.string	"mov{q}\t{%a1, %0|%0, %a1}"
	.align 16
	.type	output_86, @object
	.size	output_86, 16
output_86:
	.quad	.LC52
	.quad	.LC53
	.align 8
.LC54:
	.string	"sub{l}\t{%3, %2|%2, %3}\n\tfstp%z0\t%y0"
	.align 8
.LC55:
	.string	"sub{l}\t{%3, %2|%2, %3}\n\tfst%z0\t%y0"
.LC56:
	.string	"push{l}\t%1"
	.text
	.type	output_88, @function
output_88:
.LFB29:
	.loc 1 504 0
	.cfi_startproc
	pushq	%rbp	#
	.cfi_def_cfa_offset 16
	.cfi_offset 6, -16
	movq	%rsp, %rbp	#,
	.cfi_def_cfa_register 6
	pushq	%rbx	#
	subq	$24, %rsp	#,
	.cfi_offset 3, -24
	movq	%rdi, -24(%rbp)	# operands, operands
	movq	%rsi, -32(%rbp)	# insn, insn
	.loc 1 506 0
	movl	which_alternative(%rip), %eax	# which_alternative, which_alternative.7
	cmpl	$1, %eax	#, which_alternative.7
	je	.L106	#,
	cmpl	$2, %eax	#, which_alternative.7
	je	.L107	#,
	testl	%eax, %eax	# which_alternative.7
	jne	.L111	#,
	.loc 1 510 0
	movq	global_rtl+16(%rip), %rax	# global_rtl, D.16432
	movq	%rax, %rsi	# D.16432,
	movl	$15, %edi	#,
	call	gen_rtx_MEM	#
	movq	-24(%rbp), %rdx	# operands, tmp72
	movq	%rax, (%rdx)	# D.16432, *operands_5(D)
	.loc 1 511 0
	movq	-24(%rbp), %rax	# operands, tmp73
	leaq	16(%rax), %rdx	#, D.16433
	movq	global_rtl+16(%rip), %rax	# global_rtl, D.16432
	movq	%rax, (%rdx)	# D.16432, *_6
	.loc 1 512 0
	movq	-24(%rbp), %rax	# operands, tmp74
	leaq	24(%rax), %rbx	#, D.16433
	movl	$4, %esi	#,
	movl	$0, %edi	#,
	call	gen_rtx_CONST_INT	#
	movq	%rax, (%rbx)	# D.16432, *_8
	.loc 1 513 0
	movq	-24(%rbp), %rax	# operands, tmp75
	addq	$8, %rax	#, D.16433
	movq	(%rax), %rax	# *_10, D.16432
	movl	8(%rax), %edx	# _11->fld[0].rtuint, D.16434
	movq	-32(%rbp), %rax	# insn, tmp76
	movl	$1, %esi	#,
	movq	%rax, %rdi	# tmp76,
	call	find_regno_note	#
	testq	%rax, %rax	# D.16432
	je	.L109	#,
	.loc 1 514 0
	movl	$.LC54, %eax	#, D.16431
	jmp	.L110	#
.L109:
	.loc 1 516 0
	movl	$.LC55, %eax	#, D.16431
	jmp	.L110	#
.L106:
	.loc 1 519 0
	movl	$.LC56, %eax	#, D.16431
	jmp	.L110	#
.L107:
	.loc 1 521 0
	movl	$.LC45, %eax	#, D.16431
	jmp	.L110	#
.L111:
	.loc 1 524 0
	movl	$__FUNCTION__.11577, %edx	#,
	movl	$524, %esi	#,
	movl	$.LC15, %edi	#,
	call	fancy_abort	#
.L110:
	.loc 1 527 0
	addq	$24, %rsp	#,
	popq	%rbx	#
	popq	%rbp	#
	.cfi_def_cfa 7, 8
	ret
	.cfi_endproc
.LFE29:
	.size	output_88, .-output_88
	.section	.rodata
	.align 8
.LC57:
	.string	"sub{q}\t{%3, %2|%2, %3}\n\tfstp%z0\t%y0"
	.align 8
.LC58:
	.string	"sub{q}\t{%3, %2|%2, %3}\n\tfst%z0\t%y0"
.LC59:
	.string	"push{q}\t%q1"
	.text
	.type	output_89, @function
output_89:
.LFB30:
	.loc 1 535 0
	.cfi_startproc
	pushq	%rbp	#
	.cfi_def_cfa_offset 16
	.cfi_offset 6, -16
	movq	%rsp, %rbp	#,
	.cfi_def_cfa_register 6
	pushq	%rbx	#
	subq	$24, %rsp	#,
	.cfi_offset 3, -24
	movq	%rdi, -24(%rbp)	# operands, operands
	movq	%rsi, -32(%rbp)	# insn, insn
	.loc 1 537 0
	movl	which_alternative(%rip), %eax	# which_alternative, which_alternative.8
	cmpl	$1, %eax	#, which_alternative.8
	je	.L114	#,
	cmpl	$2, %eax	#, which_alternative.8
	je	.L115	#,
	testl	%eax, %eax	# which_alternative.8
	jne	.L119	#,
	.loc 1 541 0
	movq	global_rtl+16(%rip), %rax	# global_rtl, D.16439
	movq	%rax, %rsi	# D.16439,
	movl	$15, %edi	#,
	call	gen_rtx_MEM	#
	movq	-24(%rbp), %rdx	# operands, tmp72
	movq	%rax, (%rdx)	# D.16439, *operands_5(D)
	.loc 1 542 0
	movq	-24(%rbp), %rax	# operands, tmp73
	leaq	16(%rax), %rdx	#, D.16440
	movq	global_rtl+16(%rip), %rax	# global_rtl, D.16439
	movq	%rax, (%rdx)	# D.16439, *_6
	.loc 1 543 0
	movq	-24(%rbp), %rax	# operands, tmp74
	leaq	24(%rax), %rbx	#, D.16440
	movl	$8, %esi	#,
	movl	$0, %edi	#,
	call	gen_rtx_CONST_INT	#
	movq	%rax, (%rbx)	# D.16439, *_8
	.loc 1 544 0
	movq	-24(%rbp), %rax	# operands, tmp75
	addq	$8, %rax	#, D.16440
	movq	(%rax), %rax	# *_10, D.16439
	movl	8(%rax), %edx	# _11->fld[0].rtuint, D.16441
	movq	-32(%rbp), %rax	# insn, tmp76
	movl	$1, %esi	#,
	movq	%rax, %rdi	# tmp76,
	call	find_regno_note	#
	testq	%rax, %rax	# D.16439
	je	.L117	#,
	.loc 1 545 0
	movl	$.LC57, %eax	#, D.16438
	jmp	.L118	#
.L117:
	.loc 1 547 0
	movl	$.LC58, %eax	#, D.16438
	jmp	.L118	#
.L114:
	.loc 1 550 0
	movl	$.LC59, %eax	#, D.16438
	jmp	.L118	#
.L115:
	.loc 1 553 0
	movl	$.LC45, %eax	#, D.16438
	jmp	.L118	#
.L119:
	.loc 1 556 0
	movl	$__FUNCTION__.11589, %edx	#,
	movl	$556, %esi	#,
	movl	$.LC15, %edi	#,
	call	fancy_abort	#
.L118:
	.loc 1 559 0
	addq	$24, %rsp	#,
	popq	%rbx	#
	popq	%rbp	#
	.cfi_def_cfa 7, 8
	ret
	.cfi_endproc
.LFE30:
	.size	output_89, .-output_89
	.section	.rodata
.LC60:
	.string	"fstp\t%y0"
.LC61:
	.string	"fld%z1\t%y1"
.LC62:
	.string	"fst\t%y0"
.LC63:
	.string	"fstp%z0\t%y0"
.LC64:
	.string	"fst%z0\t%y0"
.LC65:
	.string	"fldz"
.LC66:
	.string	"fld1"
.LC67:
	.string	"pxor\t%0, %0"
.LC68:
	.string	"xorps\t%0, %0"
.LC69:
	.string	"movaps\t{%1, %0|%0, %1}"
.LC70:
	.string	"movss\t{%1, %0|%0, %1}"
	.text
	.type	output_90, @function
output_90:
.LFB31:
	.loc 1 567 0
	.cfi_startproc
	pushq	%rbp	#
	.cfi_def_cfa_offset 16
	.cfi_offset 6, -16
	movq	%rsp, %rbp	#,
	.cfi_def_cfa_register 6
	subq	$16, %rsp	#,
	movq	%rdi, -8(%rbp)	# operands, operands
	movq	%rsi, -16(%rbp)	# insn, insn
	.loc 1 569 0
	movl	which_alternative(%rip), %eax	# which_alternative, which_alternative.9
	cmpl	$11, %eax	#, which_alternative.9
	ja	.L121	#,
	movl	%eax, %eax	# which_alternative.9, tmp87
	movq	.L123(,%rax,8), %rax	#, tmp88
	jmp	*%rax	# tmp88
	.section	.rodata
	.align 8
	.align 4
.L123:
	.quad	.L122
	.quad	.L124
	.quad	.L125
	.quad	.L126
	.quad	.L126
	.quad	.L127
	.quad	.L128
	.quad	.L129
	.quad	.L129
	.quad	.L130
	.quad	.L130
	.quad	.L131
	.text
.L122:
	.loc 1 572 0
	movq	-8(%rbp), %rax	# operands, tmp89
	addq	$8, %rax	#, D.16446
	movq	(%rax), %rax	# *_4, D.16447
	movzwl	(%rax), %eax	# _5->code, D.16448
	cmpw	$61, %ax	#, D.16448
	jne	.L132	#,
	.loc 1 573 0
	movq	-8(%rbp), %rax	# operands, tmp90
	addq	$8, %rax	#, D.16446
	movq	(%rax), %rax	# *_7, D.16447
	movl	8(%rax), %edx	# _8->fld[0].rtuint, D.16449
	movq	-16(%rbp), %rax	# insn, tmp91
	movl	$1, %esi	#,
	movq	%rax, %rdi	# tmp91,
	call	find_regno_note	#
	testq	%rax, %rax	# D.16447
	je	.L132	#,
	.loc 1 574 0
	movl	$.LC60, %eax	#, D.16445
	jmp	.L133	#
.L132:
	.loc 1 575 0
	movq	-8(%rbp), %rax	# operands, tmp92
	movq	(%rax), %rax	# *operands_3(D), D.16447
	movzwl	(%rax), %eax	# _13->code, D.16448
	cmpw	$61, %ax	#, D.16448
	jne	.L134	#,
	.loc 1 575 0 is_stmt 0 discriminator 1
	movq	-8(%rbp), %rax	# operands, tmp93
	movq	(%rax), %rax	# *operands_3(D), D.16447
	movl	8(%rax), %eax	# _15->fld[0].rtuint, D.16449
	cmpl	$8, %eax	#, D.16449
	jne	.L134	#,
	.loc 1 576 0 is_stmt 1
	movl	$.LC61, %eax	#, D.16445
	jmp	.L133	#
.L134:
	.loc 1 578 0
	movl	$.LC62, %eax	#, D.16445
	jmp	.L133	#
.L124:
	.loc 1 581 0
	movq	-8(%rbp), %rax	# operands, tmp94
	addq	$8, %rax	#, D.16446
	movq	(%rax), %rax	# *_19, D.16447
	movl	8(%rax), %edx	# _20->fld[0].rtuint, D.16449
	movq	-16(%rbp), %rax	# insn, tmp95
	movl	$1, %esi	#,
	movq	%rax, %rdi	# tmp95,
	call	find_regno_note	#
	testq	%rax, %rax	# D.16447
	je	.L135	#,
	.loc 1 582 0
	movl	$.LC63, %eax	#, D.16445
	jmp	.L133	#
.L135:
	.loc 1 584 0
	movl	$.LC64, %eax	#, D.16445
	jmp	.L133	#
.L125:
	.loc 1 587 0
	movq	-8(%rbp), %rax	# operands, tmp96
	addq	$8, %rax	#, D.16446
	movq	(%rax), %rax	# *_25, D.16447
	movq	%rax, %rdi	# D.16447,
	call	standard_80387_constant_p	#
	cmpl	$1, %eax	#, D.16450
	je	.L137	#,
	cmpl	$2, %eax	#, D.16450
	je	.L138	#,
	jmp	.L141	#
.L137:
	.loc 1 590 0
	movl	$.LC65, %eax	#, D.16445
	jmp	.L133	#
.L138:
	.loc 1 592 0
	movl	$.LC66, %eax	#, D.16445
	jmp	.L133	#
.L141:
	.loc 1 594 0
	movl	$__FUNCTION__.11602, %edx	#,
	movl	$594, %esi	#,
	movl	$.LC15, %edi	#,
	call	fancy_abort	#
.L126:
	.loc 1 598 0
	movl	$.LC16, %eax	#, D.16445
	jmp	.L133	#
.L127:
	.loc 1 600 0
	movl	target_flags(%rip), %eax	# target_flags, target_flags.10
	andl	$262144, %eax	#, D.16450
	testl	%eax, %eax	# D.16450
	je	.L139	#,
	.loc 1 601 0
	movl	$.LC67, %eax	#, D.16445
	jmp	.L133	#
.L139:
	.loc 1 603 0
	movl	$.LC68, %eax	#, D.16445
	jmp	.L133	#
.L128:
	.loc 1 605 0
	movl	x86_partial_reg_dependency(%rip), %edx	# x86_partial_reg_dependency, x86_partial_reg_dependency.11
	movl	ix86_cpu(%rip), %eax	# ix86_cpu, ix86_cpu.12
	movl	%eax, %ecx	# ix86_cpu.13, tmp99
	sarl	%cl, %edx	# tmp99, D.16450
	movl	%edx, %eax	# D.16450, D.16450
	andl	$1, %eax	#, D.16450
	testl	%eax, %eax	# D.16450
	je	.L140	#,
	.loc 1 606 0
	movl	$.LC69, %eax	#, D.16445
	jmp	.L133	#
.L140:
	.loc 1 608 0
	movl	$.LC70, %eax	#, D.16445
	jmp	.L133	#
.L129:
	.loc 1 611 0
	movl	$.LC70, %eax	#, D.16445
	jmp	.L133	#
.L130:
	.loc 1 615 0
	movl	$.LC12, %eax	#, D.16445
	jmp	.L133	#
.L131:
	.loc 1 618 0
	movl	$.LC13, %eax	#, D.16445
	jmp	.L133	#
.L121:
	.loc 1 621 0
	movl	$__FUNCTION__.11602, %edx	#,
	movl	$621, %esi	#,
	movl	$.LC15, %edi	#,
	call	fancy_abort	#
.L133:
	.loc 1 624 0
	leave
	.cfi_def_cfa 7, 8
	ret
	.cfi_endproc
.LFE31:
	.size	output_90, .-output_90
	.section	.rodata
.LC71:
	.string	"fxch\t%1"
.LC72:
	.string	"fxch\t%0"
	.text
	.type	output_91, @function
output_91:
.LFB32:
	.loc 1 632 0
	.cfi_startproc
	pushq	%rbp	#
	.cfi_def_cfa_offset 16
	.cfi_offset 6, -16
	movq	%rsp, %rbp	#,
	.cfi_def_cfa_register 6
	movq	%rdi, -8(%rbp)	# operands, operands
	movq	%rsi, -16(%rbp)	# insn, insn
	.loc 1 634 0
	movq	-8(%rbp), %rax	# operands, tmp65
	movq	(%rax), %rax	# *operands_2(D), D.16463
	movzwl	(%rax), %eax	# _3->code, D.16464
	cmpw	$61, %ax	#, D.16464
	jne	.L143	#,
	.loc 1 634 0 is_stmt 0 discriminator 1
	movq	-8(%rbp), %rax	# operands, tmp66
	movq	(%rax), %rax	# *operands_2(D), D.16463
	movl	8(%rax), %eax	# _5->fld[0].rtuint, D.16465
	cmpl	$8, %eax	#, D.16465
	jne	.L143	#,
	.loc 1 635 0 is_stmt 1
	movl	$.LC71, %eax	#, D.16462
	jmp	.L144	#
.L143:
	.loc 1 637 0
	movl	$.LC72, %eax	#, D.16462
.L144:
	.loc 1 639 0
	popq	%rbp	#
	.cfi_def_cfa 7, 8
	ret
	.cfi_endproc
.LFE32:
	.size	output_91, .-output_91
	.type	output_92, @function
output_92:
.LFB33:
	.loc 1 647 0
	.cfi_startproc
	pushq	%rbp	#
	.cfi_def_cfa_offset 16
	.cfi_offset 6, -16
	movq	%rsp, %rbp	#,
	.cfi_def_cfa_register 6
	pushq	%rbx	#
	subq	$24, %rsp	#,
	.cfi_offset 3, -24
	movq	%rdi, -24(%rbp)	# operands, operands
	movq	%rsi, -32(%rbp)	# insn, insn
	.loc 1 649 0
	movl	which_alternative(%rip), %eax	# which_alternative, which_alternative.14
	testl	%eax, %eax	# which_alternative.14
	je	.L147	#,
	testl	%eax, %eax	# which_alternative.14
	js	.L146	#,
	cmpl	$3, %eax	#, which_alternative.14
	jg	.L146	#,
	jmp	.L151	#
.L147:
	.loc 1 653 0
	movq	global_rtl+16(%rip), %rax	# global_rtl, D.16469
	movq	%rax, %rsi	# D.16469,
	movl	$16, %edi	#,
	call	gen_rtx_MEM	#
	movq	-24(%rbp), %rdx	# operands, tmp72
	movq	%rax, (%rdx)	# D.16469, *operands_5(D)
	.loc 1 654 0
	movq	-24(%rbp), %rax	# operands, tmp73
	leaq	16(%rax), %rdx	#, D.16470
	movq	global_rtl+16(%rip), %rax	# global_rtl, D.16469
	movq	%rax, (%rdx)	# D.16469, *_6
	.loc 1 655 0
	movq	-24(%rbp), %rax	# operands, tmp74
	leaq	24(%rax), %rbx	#, D.16470
	movl	$8, %esi	#,
	movl	$0, %edi	#,
	call	gen_rtx_CONST_INT	#
	movq	%rax, (%rbx)	# D.16469, *_8
	.loc 1 656 0
	movq	-24(%rbp), %rax	# operands, tmp75
	addq	$8, %rax	#, D.16470
	movq	(%rax), %rax	# *_10, D.16469
	movl	8(%rax), %edx	# _11->fld[0].rtuint, D.16471
	movq	-32(%rbp), %rax	# insn, tmp76
	movl	$1, %esi	#,
	movq	%rax, %rdi	# tmp76,
	call	find_regno_note	#
	testq	%rax, %rax	# D.16469
	je	.L149	#,
	.loc 1 657 0
	movl	$.LC54, %eax	#, D.16468
	jmp	.L150	#
.L149:
	.loc 1 659 0
	movl	$.LC55, %eax	#, D.16468
	jmp	.L150	#
.L151:
	.loc 1 664 0
	movl	$.LC45, %eax	#, D.16468
	jmp	.L150	#
.L146:
	.loc 1 667 0
	movl	$__FUNCTION__.11632, %edx	#,
	movl	$667, %esi	#,
	movl	$.LC15, %edi	#,
	call	fancy_abort	#
.L150:
	.loc 1 670 0
	addq	$24, %rsp	#,
	popq	%rbx	#
	popq	%rbp	#
	.cfi_def_cfa 7, 8
	ret
	.cfi_endproc
.LFE33:
	.size	output_92, .-output_92
	.type	output_93, @function
output_93:
.LFB34:
	.loc 1 678 0
	.cfi_startproc
	pushq	%rbp	#
	.cfi_def_cfa_offset 16
	.cfi_offset 6, -16
	movq	%rsp, %rbp	#,
	.cfi_def_cfa_register 6
	pushq	%rbx	#
	subq	$24, %rsp	#,
	.cfi_offset 3, -24
	movq	%rdi, -24(%rbp)	# operands, operands
	movq	%rsi, -32(%rbp)	# insn, insn
	.loc 1 680 0
	movl	which_alternative(%rip), %eax	# which_alternative, which_alternative.15
	testl	%eax, %eax	# which_alternative.15
	je	.L154	#,
	testl	%eax, %eax	# which_alternative.15
	js	.L153	#,
	cmpl	$2, %eax	#, which_alternative.15
	jg	.L153	#,
	jmp	.L160	#
.L154:
	.loc 1 684 0
	movq	global_rtl+16(%rip), %rax	# global_rtl, D.16473
	movq	%rax, %rsi	# D.16473,
	movl	$16, %edi	#,
	call	gen_rtx_MEM	#
	movq	-24(%rbp), %rdx	# operands, tmp78
	movq	%rax, (%rdx)	# D.16473, *operands_5(D)
	.loc 1 685 0
	movq	-24(%rbp), %rax	# operands, tmp79
	leaq	16(%rax), %rdx	#, D.16474
	movq	global_rtl+16(%rip), %rax	# global_rtl, D.16473
	movq	%rax, (%rdx)	# D.16473, *_6
	.loc 1 686 0
	movq	-24(%rbp), %rax	# operands, tmp80
	leaq	24(%rax), %rbx	#, D.16474
	movl	$8, %esi	#,
	movl	$0, %edi	#,
	call	gen_rtx_CONST_INT	#
	movq	%rax, (%rbx)	# D.16473, *_8
	.loc 1 687 0
	movl	target_flags(%rip), %eax	# target_flags, target_flags.16
	andl	$33554432, %eax	#, D.16475
	testl	%eax, %eax	# D.16475
	je	.L156	#,
	.loc 1 688 0
	movq	-24(%rbp), %rax	# operands, tmp81
	addq	$8, %rax	#, D.16474
	movq	(%rax), %rax	# *_12, D.16473
	movl	8(%rax), %edx	# _13->fld[0].rtuint, D.16476
	movq	-32(%rbp), %rax	# insn, tmp82
	movl	$1, %esi	#,
	movq	%rax, %rdi	# tmp82,
	call	find_regno_note	#
	testq	%rax, %rax	# D.16473
	je	.L157	#,
	.loc 1 689 0
	movl	$.LC57, %eax	#, D.16472
	jmp	.L158	#
.L157:
	.loc 1 691 0
	movl	$.LC58, %eax	#, D.16472
	jmp	.L158	#
.L156:
	.loc 1 693 0
	movq	-24(%rbp), %rax	# operands, tmp83
	addq	$8, %rax	#, D.16474
	movq	(%rax), %rax	# *_19, D.16473
	movl	8(%rax), %edx	# _20->fld[0].rtuint, D.16476
	movq	-32(%rbp), %rax	# insn, tmp84
	movl	$1, %esi	#,
	movq	%rax, %rdi	# tmp84,
	call	find_regno_note	#
	testq	%rax, %rax	# D.16473
	je	.L159	#,
	.loc 1 694 0
	movl	$.LC54, %eax	#, D.16472
	jmp	.L158	#
.L159:
	.loc 1 696 0
	movl	$.LC55, %eax	#, D.16472
	jmp	.L158	#
.L160:
	.loc 1 701 0
	movl	$.LC45, %eax	#, D.16472
	jmp	.L158	#
.L153:
	.loc 1 704 0
	movl	$__FUNCTION__.11644, %edx	#,
	movl	$704, %esi	#,
	movl	$.LC15, %edi	#,
	call	fancy_abort	#
.L158:
	.loc 1 707 0
	addq	$24, %rsp	#,
	popq	%rbx	#
	popq	%rbp	#
	.cfi_def_cfa 7, 8
	ret
	.cfi_endproc
.LFE34:
	.size	output_93, .-output_93
	.section	.rodata
.LC73:
	.string	"movapd\t{%1, %0|%0, %1}"
.LC74:
	.string	"movsd\t{%1, %0|%0, %1}"
	.text
	.type	output_94, @function
output_94:
.LFB35:
	.loc 1 715 0
	.cfi_startproc
	pushq	%rbp	#
	.cfi_def_cfa_offset 16
	.cfi_offset 6, -16
	movq	%rsp, %rbp	#,
	.cfi_def_cfa_register 6
	subq	$16, %rsp	#,
	movq	%rdi, -8(%rbp)	# operands, operands
	movq	%rsi, -16(%rbp)	# insn, insn
	.loc 1 717 0
	movl	which_alternative(%rip), %eax	# which_alternative, which_alternative.17
	cmpl	$8, %eax	#, which_alternative.17
	ja	.L162	#,
	movl	%eax, %eax	# which_alternative.17, tmp85
	movq	.L164(,%rax,8), %rax	#, tmp86
	jmp	*%rax	# tmp86
	.section	.rodata
	.align 8
	.align 4
.L164:
	.quad	.L163
	.quad	.L165
	.quad	.L166
	.quad	.L167
	.quad	.L167
	.quad	.L168
	.quad	.L169
	.quad	.L170
	.quad	.L170
	.text
.L163:
	.loc 1 720 0
	movq	-8(%rbp), %rax	# operands, tmp87
	addq	$8, %rax	#, D.16478
	movq	(%rax), %rax	# *_4, D.16479
	movzwl	(%rax), %eax	# _5->code, D.16480
	cmpw	$61, %ax	#, D.16480
	jne	.L171	#,
	.loc 1 721 0
	movq	-8(%rbp), %rax	# operands, tmp88
	addq	$8, %rax	#, D.16478
	movq	(%rax), %rax	# *_7, D.16479
	movl	8(%rax), %edx	# _8->fld[0].rtuint, D.16481
	movq	-16(%rbp), %rax	# insn, tmp89
	movl	$1, %esi	#,
	movq	%rax, %rdi	# tmp89,
	call	find_regno_note	#
	testq	%rax, %rax	# D.16479
	je	.L171	#,
	.loc 1 722 0
	movl	$.LC60, %eax	#, D.16477
	jmp	.L172	#
.L171:
	.loc 1 723 0
	movq	-8(%rbp), %rax	# operands, tmp90
	movq	(%rax), %rax	# *operands_3(D), D.16479
	movzwl	(%rax), %eax	# _13->code, D.16480
	cmpw	$61, %ax	#, D.16480
	jne	.L173	#,
	.loc 1 723 0 is_stmt 0 discriminator 1
	movq	-8(%rbp), %rax	# operands, tmp91
	movq	(%rax), %rax	# *operands_3(D), D.16479
	movl	8(%rax), %eax	# _15->fld[0].rtuint, D.16481
	cmpl	$8, %eax	#, D.16481
	jne	.L173	#,
	.loc 1 724 0 is_stmt 1
	movl	$.LC61, %eax	#, D.16477
	jmp	.L172	#
.L173:
	.loc 1 726 0
	movl	$.LC62, %eax	#, D.16477
	jmp	.L172	#
.L165:
	.loc 1 729 0
	movq	-8(%rbp), %rax	# operands, tmp92
	addq	$8, %rax	#, D.16478
	movq	(%rax), %rax	# *_19, D.16479
	movl	8(%rax), %edx	# _20->fld[0].rtuint, D.16481
	movq	-16(%rbp), %rax	# insn, tmp93
	movl	$1, %esi	#,
	movq	%rax, %rdi	# tmp93,
	call	find_regno_note	#
	testq	%rax, %rax	# D.16479
	je	.L174	#,
	.loc 1 730 0
	movl	$.LC63, %eax	#, D.16477
	jmp	.L172	#
.L174:
	.loc 1 732 0
	movl	$.LC64, %eax	#, D.16477
	jmp	.L172	#
.L166:
	.loc 1 735 0
	movq	-8(%rbp), %rax	# operands, tmp94
	addq	$8, %rax	#, D.16478
	movq	(%rax), %rax	# *_25, D.16479
	movq	%rax, %rdi	# D.16479,
	call	standard_80387_constant_p	#
	cmpl	$1, %eax	#, D.16482
	je	.L176	#,
	cmpl	$2, %eax	#, D.16482
	je	.L177	#,
	jmp	.L179	#
.L176:
	.loc 1 738 0
	movl	$.LC65, %eax	#, D.16477
	jmp	.L172	#
.L177:
	.loc 1 740 0
	movl	$.LC66, %eax	#, D.16477
	jmp	.L172	#
.L179:
	.loc 1 742 0
	movl	$__FUNCTION__.11657, %edx	#,
	movl	$742, %esi	#,
	movl	$.LC15, %edi	#,
	call	fancy_abort	#
.L167:
	.loc 1 746 0
	movl	$.LC45, %eax	#, D.16477
	jmp	.L172	#
.L168:
	.loc 1 748 0
	movl	$.LC67, %eax	#, D.16477
	jmp	.L172	#
.L169:
	.loc 1 750 0
	movl	x86_partial_reg_dependency(%rip), %edx	# x86_partial_reg_dependency, x86_partial_reg_dependency.18
	movl	ix86_cpu(%rip), %eax	# ix86_cpu, ix86_cpu.19
	movl	%eax, %ecx	# ix86_cpu.20, tmp97
	sarl	%cl, %edx	# tmp97, D.16482
	movl	%edx, %eax	# D.16482, D.16482
	andl	$1, %eax	#, D.16482
	testl	%eax, %eax	# D.16482
	je	.L178	#,
	.loc 1 751 0
	movl	$.LC73, %eax	#, D.16477
	jmp	.L172	#
.L178:
	.loc 1 753 0
	movl	$.LC74, %eax	#, D.16477
	jmp	.L172	#
.L170:
	.loc 1 756 0
	movl	$.LC74, %eax	#, D.16477
	jmp	.L172	#
.L162:
	.loc 1 759 0
	movl	$__FUNCTION__.11657, %edx	#,
	movl	$759, %esi	#,
	movl	$.LC15, %edi	#,
	call	fancy_abort	#
.L172:
	.loc 1 762 0
	leave
	.cfi_def_cfa 7, 8
	ret
	.cfi_endproc
.LFE35:
	.size	output_94, .-output_94
	.type	output_95, @function
output_95:
.LFB36:
	.loc 1 770 0
	.cfi_startproc
	pushq	%rbp	#
	.cfi_def_cfa_offset 16
	.cfi_offset 6, -16
	movq	%rsp, %rbp	#,
	.cfi_def_cfa_register 6
	subq	$16, %rsp	#,
	movq	%rdi, -8(%rbp)	# operands, operands
	movq	%rsi, -16(%rbp)	# insn, insn
	.loc 1 772 0
	movl	which_alternative(%rip), %eax	# which_alternative, which_alternative.21
	cmpl	$8, %eax	#, which_alternative.21
	ja	.L181	#,
	movl	%eax, %eax	# which_alternative.21, tmp85
	movq	.L183(,%rax,8), %rax	#, tmp86
	jmp	*%rax	# tmp86
	.section	.rodata
	.align 8
	.align 4
.L183:
	.quad	.L182
	.quad	.L184
	.quad	.L185
	.quad	.L186
	.quad	.L186
	.quad	.L187
	.quad	.L188
	.quad	.L189
	.quad	.L189
	.text
.L182:
	.loc 1 775 0
	movq	-8(%rbp), %rax	# operands, tmp87
	addq	$8, %rax	#, D.16486
	movq	(%rax), %rax	# *_4, D.16487
	movzwl	(%rax), %eax	# _5->code, D.16488
	cmpw	$61, %ax	#, D.16488
	jne	.L190	#,
	.loc 1 776 0
	movq	-8(%rbp), %rax	# operands, tmp88
	addq	$8, %rax	#, D.16486
	movq	(%rax), %rax	# *_7, D.16487
	movl	8(%rax), %edx	# _8->fld[0].rtuint, D.16489
	movq	-16(%rbp), %rax	# insn, tmp89
	movl	$1, %esi	#,
	movq	%rax, %rdi	# tmp89,
	call	find_regno_note	#
	testq	%rax, %rax	# D.16487
	je	.L190	#,
	.loc 1 777 0
	movl	$.LC60, %eax	#, D.16485
	jmp	.L191	#
.L190:
	.loc 1 778 0
	movq	-8(%rbp), %rax	# operands, tmp90
	movq	(%rax), %rax	# *operands_3(D), D.16487
	movzwl	(%rax), %eax	# _13->code, D.16488
	cmpw	$61, %ax	#, D.16488
	jne	.L192	#,
	.loc 1 778 0 is_stmt 0 discriminator 1
	movq	-8(%rbp), %rax	# operands, tmp91
	movq	(%rax), %rax	# *operands_3(D), D.16487
	movl	8(%rax), %eax	# _15->fld[0].rtuint, D.16489
	cmpl	$8, %eax	#, D.16489
	jne	.L192	#,
	.loc 1 779 0 is_stmt 1
	movl	$.LC61, %eax	#, D.16485
	jmp	.L191	#
.L192:
	.loc 1 781 0
	movl	$.LC62, %eax	#, D.16485
	jmp	.L191	#
.L184:
	.loc 1 784 0
	movq	-8(%rbp), %rax	# operands, tmp92
	addq	$8, %rax	#, D.16486
	movq	(%rax), %rax	# *_19, D.16487
	movl	8(%rax), %edx	# _20->fld[0].rtuint, D.16489
	movq	-16(%rbp), %rax	# insn, tmp93
	movl	$1, %esi	#,
	movq	%rax, %rdi	# tmp93,
	call	find_regno_note	#
	testq	%rax, %rax	# D.16487
	je	.L193	#,
	.loc 1 785 0
	movl	$.LC63, %eax	#, D.16485
	jmp	.L191	#
.L193:
	.loc 1 787 0
	movl	$.LC64, %eax	#, D.16485
	jmp	.L191	#
.L185:
	.loc 1 790 0
	movq	-8(%rbp), %rax	# operands, tmp94
	addq	$8, %rax	#, D.16486
	movq	(%rax), %rax	# *_25, D.16487
	movq	%rax, %rdi	# D.16487,
	call	standard_80387_constant_p	#
	cmpl	$1, %eax	#, D.16490
	je	.L195	#,
	cmpl	$2, %eax	#, D.16490
	je	.L196	#,
	jmp	.L198	#
.L195:
	.loc 1 793 0
	movl	$.LC65, %eax	#, D.16485
	jmp	.L191	#
.L196:
	.loc 1 795 0
	movl	$.LC66, %eax	#, D.16485
	jmp	.L191	#
.L198:
	.loc 1 797 0
	movl	$__FUNCTION__.11677, %edx	#,
	movl	$797, %esi	#,
	movl	$.LC15, %edi	#,
	call	fancy_abort	#
.L186:
	.loc 1 801 0
	movl	$.LC45, %eax	#, D.16485
	jmp	.L191	#
.L187:
	.loc 1 804 0
	movl	$.LC67, %eax	#, D.16485
	jmp	.L191	#
.L188:
	.loc 1 806 0
	movl	x86_partial_reg_dependency(%rip), %edx	# x86_partial_reg_dependency, x86_partial_reg_dependency.22
	movl	ix86_cpu(%rip), %eax	# ix86_cpu, ix86_cpu.23
	movl	%eax, %ecx	# ix86_cpu.24, tmp97
	sarl	%cl, %edx	# tmp97, D.16490
	movl	%edx, %eax	# D.16490, D.16490
	andl	$1, %eax	#, D.16490
	testl	%eax, %eax	# D.16490
	je	.L197	#,
	.loc 1 807 0
	movl	$.LC73, %eax	#, D.16485
	jmp	.L191	#
.L197:
	.loc 1 809 0
	movl	$.LC74, %eax	#, D.16485
	jmp	.L191	#
.L189:
	.loc 1 812 0
	movl	$.LC74, %eax	#, D.16485
	jmp	.L191	#
.L181:
	.loc 1 815 0
	movl	$__FUNCTION__.11677, %edx	#,
	movl	$815, %esi	#,
	movl	$.LC15, %edi	#,
	call	fancy_abort	#
.L191:
	.loc 1 818 0
	leave
	.cfi_def_cfa 7, 8
	ret
	.cfi_endproc
.LFE36:
	.size	output_95, .-output_95
	.type	output_96, @function
output_96:
.LFB37:
	.loc 1 826 0
	.cfi_startproc
	pushq	%rbp	#
	.cfi_def_cfa_offset 16
	.cfi_offset 6, -16
	movq	%rsp, %rbp	#,
	.cfi_def_cfa_register 6
	movq	%rdi, -8(%rbp)	# operands, operands
	movq	%rsi, -16(%rbp)	# insn, insn
	.loc 1 828 0
	movq	-8(%rbp), %rax	# operands, tmp65
	movq	(%rax), %rax	# *operands_2(D), D.16492
	movzwl	(%rax), %eax	# _3->code, D.16493
	cmpw	$61, %ax	#, D.16493
	jne	.L200	#,
	.loc 1 828 0 is_stmt 0 discriminator 1
	movq	-8(%rbp), %rax	# operands, tmp66
	movq	(%rax), %rax	# *operands_2(D), D.16492
	movl	8(%rax), %eax	# _5->fld[0].rtuint, D.16494
	cmpl	$8, %eax	#, D.16494
	jne	.L200	#,
	.loc 1 829 0 is_stmt 1
	movl	$.LC71, %eax	#, D.16491
	jmp	.L201	#
.L200:
	.loc 1 831 0
	movl	$.LC72, %eax	#, D.16491
.L201:
	.loc 1 833 0
	popq	%rbp	#
	.cfi_def_cfa 7, 8
	ret
	.cfi_endproc
.LFE37:
	.size	output_96, .-output_96
	.type	output_97, @function
output_97:
.LFB38:
	.loc 1 841 0
	.cfi_startproc
	pushq	%rbp	#
	.cfi_def_cfa_offset 16
	.cfi_offset 6, -16
	movq	%rsp, %rbp	#,
	.cfi_def_cfa_register 6
	pushq	%rbx	#
	subq	$24, %rsp	#,
	.cfi_offset 3, -24
	movq	%rdi, -24(%rbp)	# operands, operands
	movq	%rsi, -32(%rbp)	# insn, insn
	.loc 1 843 0
	movl	which_alternative(%rip), %eax	# which_alternative, which_alternative.25
	testl	%eax, %eax	# which_alternative.25
	je	.L204	#,
	testl	%eax, %eax	# which_alternative.25
	js	.L203	#,
	cmpl	$2, %eax	#, which_alternative.25
	jg	.L203	#,
	jmp	.L208	#
.L204:
	.loc 1 847 0
	movq	global_rtl+16(%rip), %rax	# global_rtl, D.16496
	movq	%rax, %rsi	# D.16496,
	movl	$17, %edi	#,
	call	gen_rtx_MEM	#
	movq	-24(%rbp), %rdx	# operands, tmp72
	movq	%rax, (%rdx)	# D.16496, *operands_5(D)
	.loc 1 848 0
	movq	-24(%rbp), %rax	# operands, tmp73
	leaq	16(%rax), %rdx	#, D.16497
	movq	global_rtl+16(%rip), %rax	# global_rtl, D.16496
	movq	%rax, (%rdx)	# D.16496, *_6
	.loc 1 849 0
	movq	-24(%rbp), %rax	# operands, tmp74
	leaq	24(%rax), %rbx	#, D.16497
	movl	$12, %esi	#,
	movl	$0, %edi	#,
	call	gen_rtx_CONST_INT	#
	movq	%rax, (%rbx)	# D.16496, *_8
	.loc 1 850 0
	movq	-24(%rbp), %rax	# operands, tmp75
	addq	$8, %rax	#, D.16497
	movq	(%rax), %rax	# *_10, D.16496
	movl	8(%rax), %edx	# _11->fld[0].rtuint, D.16498
	movq	-32(%rbp), %rax	# insn, tmp76
	movl	$1, %esi	#,
	movq	%rax, %rdi	# tmp76,
	call	find_regno_note	#
	testq	%rax, %rax	# D.16496
	je	.L206	#,
	.loc 1 851 0
	movl	$.LC54, %eax	#, D.16495
	jmp	.L207	#
.L206:
	.loc 1 853 0
	movl	$.LC55, %eax	#, D.16495
	jmp	.L207	#
.L208:
	.loc 1 857 0
	movl	$.LC45, %eax	#, D.16495
	jmp	.L207	#
.L203:
	.loc 1 860 0
	movl	$__FUNCTION__.11703, %edx	#,
	movl	$860, %esi	#,
	movl	$.LC15, %edi	#,
	call	fancy_abort	#
.L207:
	.loc 1 863 0
	addq	$24, %rsp	#,
	popq	%rbx	#
	popq	%rbp	#
	.cfi_def_cfa 7, 8
	ret
	.cfi_endproc
.LFE38:
	.size	output_97, .-output_97
	.type	output_98, @function
output_98:
.LFB39:
	.loc 1 871 0
	.cfi_startproc
	pushq	%rbp	#
	.cfi_def_cfa_offset 16
	.cfi_offset 6, -16
	movq	%rsp, %rbp	#,
	.cfi_def_cfa_register 6
	pushq	%rbx	#
	subq	$24, %rsp	#,
	.cfi_offset 3, -24
	movq	%rdi, -24(%rbp)	# operands, operands
	movq	%rsi, -32(%rbp)	# insn, insn
	.loc 1 873 0
	movl	which_alternative(%rip), %eax	# which_alternative, which_alternative.26
	testl	%eax, %eax	# which_alternative.26
	je	.L211	#,
	testl	%eax, %eax	# which_alternative.26
	js	.L210	#,
	cmpl	$2, %eax	#, which_alternative.26
	jg	.L210	#,
	jmp	.L215	#
.L211:
	.loc 1 877 0
	movq	global_rtl+16(%rip), %rax	# global_rtl, D.16500
	movq	%rax, %rsi	# D.16500,
	movl	$17, %edi	#,
	call	gen_rtx_MEM	#
	movq	-24(%rbp), %rdx	# operands, tmp72
	movq	%rax, (%rdx)	# D.16500, *operands_5(D)
	.loc 1 878 0
	movq	-24(%rbp), %rax	# operands, tmp73
	leaq	16(%rax), %rdx	#, D.16501
	movq	global_rtl+16(%rip), %rax	# global_rtl, D.16500
	movq	%rax, (%rdx)	# D.16500, *_6
	.loc 1 879 0
	movq	-24(%rbp), %rax	# operands, tmp74
	leaq	24(%rax), %rbx	#, D.16501
	movl	$16, %esi	#,
	movl	$0, %edi	#,
	call	gen_rtx_CONST_INT	#
	movq	%rax, (%rbx)	# D.16500, *_8
	.loc 1 880 0
	movq	-24(%rbp), %rax	# operands, tmp75
	addq	$8, %rax	#, D.16501
	movq	(%rax), %rax	# *_10, D.16500
	movl	8(%rax), %edx	# _11->fld[0].rtuint, D.16502
	movq	-32(%rbp), %rax	# insn, tmp76
	movl	$1, %esi	#,
	movq	%rax, %rdi	# tmp76,
	call	find_regno_note	#
	testq	%rax, %rax	# D.16500
	je	.L213	#,
	.loc 1 881 0
	movl	$.LC54, %eax	#, D.16499
	jmp	.L214	#
.L213:
	.loc 1 883 0
	movl	$.LC55, %eax	#, D.16499
	jmp	.L214	#
.L215:
	.loc 1 887 0
	movl	$.LC45, %eax	#, D.16499
	jmp	.L214	#
.L210:
	.loc 1 890 0
	movl	$__FUNCTION__.11715, %edx	#,
	movl	$890, %esi	#,
	movl	$.LC15, %edi	#,
	call	fancy_abort	#
.L214:
	.loc 1 893 0
	addq	$24, %rsp	#,
	popq	%rbx	#
	popq	%rbp	#
	.cfi_def_cfa 7, 8
	ret
	.cfi_endproc
.LFE39:
	.size	output_98, .-output_98
	.type	output_99, @function
output_99:
.LFB40:
	.loc 1 901 0
	.cfi_startproc
	pushq	%rbp	#
	.cfi_def_cfa_offset 16
	.cfi_offset 6, -16
	movq	%rsp, %rbp	#,
	.cfi_def_cfa_register 6
	pushq	%rbx	#
	subq	$24, %rsp	#,
	.cfi_offset 3, -24
	movq	%rdi, -24(%rbp)	# operands, operands
	movq	%rsi, -32(%rbp)	# insn, insn
	.loc 1 903 0
	movl	which_alternative(%rip), %eax	# which_alternative, which_alternative.27
	testl	%eax, %eax	# which_alternative.27
	je	.L218	#,
	cmpl	$1, %eax	#, which_alternative.27
	je	.L219	#,
	jmp	.L222	#
.L218:
	.loc 1 907 0
	movq	global_rtl+16(%rip), %rax	# global_rtl, D.16504
	movq	%rax, %rsi	# D.16504,
	movl	$17, %edi	#,
	call	gen_rtx_MEM	#
	movq	-24(%rbp), %rdx	# operands, tmp72
	movq	%rax, (%rdx)	# D.16504, *operands_5(D)
	.loc 1 908 0
	movq	-24(%rbp), %rax	# operands, tmp73
	leaq	16(%rax), %rdx	#, D.16505
	movq	global_rtl+16(%rip), %rax	# global_rtl, D.16504
	movq	%rax, (%rdx)	# D.16504, *_6
	.loc 1 909 0
	movq	-24(%rbp), %rax	# operands, tmp74
	leaq	24(%rax), %rbx	#, D.16505
	movl	$12, %esi	#,
	movl	$0, %edi	#,
	call	gen_rtx_CONST_INT	#
	movq	%rax, (%rbx)	# D.16504, *_8
	.loc 1 910 0
	movq	-24(%rbp), %rax	# operands, tmp75
	addq	$8, %rax	#, D.16505
	movq	(%rax), %rax	# *_10, D.16504
	movl	8(%rax), %edx	# _11->fld[0].rtuint, D.16506
	movq	-32(%rbp), %rax	# insn, tmp76
	movl	$1, %esi	#,
	movq	%rax, %rdi	# tmp76,
	call	find_regno_note	#
	testq	%rax, %rax	# D.16504
	je	.L220	#,
	.loc 1 911 0
	movl	$.LC54, %eax	#, D.16503
	jmp	.L221	#
.L220:
	.loc 1 913 0
	movl	$.LC55, %eax	#, D.16503
	jmp	.L221	#
.L219:
	.loc 1 916 0
	movl	$.LC45, %eax	#, D.16503
	jmp	.L221	#
.L222:
	.loc 1 919 0
	movl	$__FUNCTION__.11726, %edx	#,
	movl	$919, %esi	#,
	movl	$.LC15, %edi	#,
	call	fancy_abort	#
.L221:
	.loc 1 922 0
	addq	$24, %rsp	#,
	popq	%rbx	#
	popq	%rbp	#
	.cfi_def_cfa 7, 8
	ret
	.cfi_endproc
.LFE40:
	.size	output_99, .-output_99
	.type	output_100, @function
output_100:
.LFB41:
	.loc 1 930 0
	.cfi_startproc
	pushq	%rbp	#
	.cfi_def_cfa_offset 16
	.cfi_offset 6, -16
	movq	%rsp, %rbp	#,
	.cfi_def_cfa_register 6
	pushq	%rbx	#
	subq	$24, %rsp	#,
	.cfi_offset 3, -24
	movq	%rdi, -24(%rbp)	# operands, operands
	movq	%rsi, -32(%rbp)	# insn, insn
	.loc 1 932 0
	movl	which_alternative(%rip), %eax	# which_alternative, which_alternative.28
	testl	%eax, %eax	# which_alternative.28
	je	.L225	#,
	cmpl	$1, %eax	#, which_alternative.28
	je	.L226	#,
	jmp	.L231	#
.L225:
	.loc 1 936 0
	movq	global_rtl+16(%rip), %rax	# global_rtl, D.16508
	movq	%rax, %rsi	# D.16508,
	movl	$17, %edi	#,
	call	gen_rtx_MEM	#
	movq	-24(%rbp), %rdx	# operands, tmp78
	movq	%rax, (%rdx)	# D.16508, *operands_5(D)
	.loc 1 937 0
	movq	-24(%rbp), %rax	# operands, tmp79
	leaq	16(%rax), %rdx	#, D.16509
	movq	global_rtl+16(%rip), %rax	# global_rtl, D.16508
	movq	%rax, (%rdx)	# D.16508, *_6
	.loc 1 938 0
	movq	-24(%rbp), %rax	# operands, tmp80
	leaq	24(%rax), %rbx	#, D.16509
	movl	$16, %esi	#,
	movl	$0, %edi	#,
	call	gen_rtx_CONST_INT	#
	movq	%rax, (%rbx)	# D.16508, *_8
	.loc 1 939 0
	movl	target_flags(%rip), %eax	# target_flags, target_flags.29
	andl	$33554432, %eax	#, D.16510
	testl	%eax, %eax	# D.16510
	je	.L227	#,
	.loc 1 940 0
	movq	-24(%rbp), %rax	# operands, tmp81
	addq	$8, %rax	#, D.16509
	movq	(%rax), %rax	# *_12, D.16508
	movl	8(%rax), %edx	# _13->fld[0].rtuint, D.16511
	movq	-32(%rbp), %rax	# insn, tmp82
	movl	$1, %esi	#,
	movq	%rax, %rdi	# tmp82,
	call	find_regno_note	#
	testq	%rax, %rax	# D.16508
	je	.L228	#,
	.loc 1 941 0
	movl	$.LC57, %eax	#, D.16507
	jmp	.L229	#
.L228:
	.loc 1 943 0
	movl	$.LC58, %eax	#, D.16507
	jmp	.L229	#
.L227:
	.loc 1 945 0
	movq	-24(%rbp), %rax	# operands, tmp83
	addq	$8, %rax	#, D.16509
	movq	(%rax), %rax	# *_19, D.16508
	movl	8(%rax), %edx	# _20->fld[0].rtuint, D.16511
	movq	-32(%rbp), %rax	# insn, tmp84
	movl	$1, %esi	#,
	movq	%rax, %rdi	# tmp84,
	call	find_regno_note	#
	testq	%rax, %rax	# D.16508
	je	.L230	#,
	.loc 1 946 0
	movl	$.LC54, %eax	#, D.16507
	jmp	.L229	#
.L230:
	.loc 1 948 0
	movl	$.LC55, %eax	#, D.16507
	jmp	.L229	#
.L226:
	.loc 1 951 0
	movl	$.LC45, %eax	#, D.16507
	jmp	.L229	#
.L231:
	.loc 1 954 0
	movl	$__FUNCTION__.11737, %edx	#,
	movl	$954, %esi	#,
	movl	$.LC15, %edi	#,
	call	fancy_abort	#
.L229:
	.loc 1 957 0
	addq	$24, %rsp	#,
	popq	%rbx	#
	popq	%rbp	#
	.cfi_def_cfa 7, 8
	ret
	.cfi_endproc
.LFE41:
	.size	output_100, .-output_100
	.section	.rodata
.LC75:
	.string	"fstp%z0\t%y0\n\tfld%z0\t%y0"
	.text
	.type	output_101, @function
output_101:
.LFB42:
	.loc 1 965 0
	.cfi_startproc
	pushq	%rbp	#
	.cfi_def_cfa_offset 16
	.cfi_offset 6, -16
	movq	%rsp, %rbp	#,
	.cfi_def_cfa_register 6
	subq	$16, %rsp	#,
	movq	%rdi, -8(%rbp)	# operands, operands
	movq	%rsi, -16(%rbp)	# insn, insn
	.loc 1 967 0
	movl	which_alternative(%rip), %eax	# which_alternative, which_alternative.30
	cmpl	$4, %eax	#, which_alternative.30
	ja	.L233	#,
	movl	%eax, %eax	# which_alternative.30, tmp80
	movq	.L235(,%rax,8), %rax	#, tmp81
	jmp	*%rax	# tmp81
	.section	.rodata
	.align 8
	.align 4
.L235:
	.quad	.L234
	.quad	.L236
	.quad	.L237
	.quad	.L238
	.quad	.L238
	.text
.L234:
	.loc 1 970 0
	movq	-8(%rbp), %rax	# operands, tmp82
	addq	$8, %rax	#, D.16513
	movq	(%rax), %rax	# *_4, D.16514
	movzwl	(%rax), %eax	# _5->code, D.16515
	cmpw	$61, %ax	#, D.16515
	jne	.L239	#,
	.loc 1 971 0
	movq	-8(%rbp), %rax	# operands, tmp83
	addq	$8, %rax	#, D.16513
	movq	(%rax), %rax	# *_7, D.16514
	movl	8(%rax), %edx	# _8->fld[0].rtuint, D.16516
	movq	-16(%rbp), %rax	# insn, tmp84
	movl	$1, %esi	#,
	movq	%rax, %rdi	# tmp84,
	call	find_regno_note	#
	testq	%rax, %rax	# D.16514
	je	.L239	#,
	.loc 1 972 0
	movl	$.LC60, %eax	#, D.16512
	jmp	.L240	#
.L239:
	.loc 1 973 0
	movq	-8(%rbp), %rax	# operands, tmp85
	movq	(%rax), %rax	# *operands_3(D), D.16514
	movzwl	(%rax), %eax	# _13->code, D.16515
	cmpw	$61, %ax	#, D.16515
	jne	.L241	#,
	.loc 1 973 0 is_stmt 0 discriminator 1
	movq	-8(%rbp), %rax	# operands, tmp86
	movq	(%rax), %rax	# *operands_3(D), D.16514
	movl	8(%rax), %eax	# _15->fld[0].rtuint, D.16516
	cmpl	$8, %eax	#, D.16516
	jne	.L241	#,
	.loc 1 974 0 is_stmt 1
	movl	$.LC61, %eax	#, D.16512
	jmp	.L240	#
.L241:
	.loc 1 976 0
	movl	$.LC62, %eax	#, D.16512
	jmp	.L240	#
.L236:
	.loc 1 981 0
	movq	-8(%rbp), %rax	# operands, tmp87
	addq	$8, %rax	#, D.16513
	movq	(%rax), %rax	# *_19, D.16514
	movl	8(%rax), %edx	# _20->fld[0].rtuint, D.16516
	movq	-16(%rbp), %rax	# insn, tmp88
	movl	$1, %esi	#,
	movq	%rax, %rdi	# tmp88,
	call	find_regno_note	#
	testq	%rax, %rax	# D.16514
	jne	.L242	#,
	.loc 1 982 0
	movl	$.LC75, %eax	#, D.16512
	jmp	.L240	#
.L242:
	.loc 1 984 0
	movl	$.LC63, %eax	#, D.16512
	jmp	.L240	#
.L237:
	.loc 1 987 0
	movq	-8(%rbp), %rax	# operands, tmp89
	addq	$8, %rax	#, D.16513
	movq	(%rax), %rax	# *_25, D.16514
	movq	%rax, %rdi	# D.16514,
	call	standard_80387_constant_p	#
	cmpl	$1, %eax	#, D.16517
	je	.L244	#,
	cmpl	$2, %eax	#, D.16517
	je	.L245	#,
	.loc 1 994 0
	jmp	.L233	#
.L244:
	.loc 1 990 0
	movl	$.LC65, %eax	#, D.16512
	jmp	.L240	#
.L245:
	.loc 1 992 0
	movl	$.LC66, %eax	#, D.16512
	jmp	.L240	#
.L238:
	.loc 1 997 0
	movl	$.LC45, %eax	#, D.16512
	jmp	.L240	#
.L233:
	.loc 1 999 0
	movl	$__FUNCTION__.11753, %edx	#,
	movl	$999, %esi	#,
	movl	$.LC15, %edi	#,
	call	fancy_abort	#
.L240:
	.loc 1 1001 0
	leave
	.cfi_def_cfa 7, 8
	ret
	.cfi_endproc
.LFE42:
	.size	output_101, .-output_101
	.type	output_102, @function
output_102:
.LFB43:
	.loc 1 1009 0
	.cfi_startproc
	pushq	%rbp	#
	.cfi_def_cfa_offset 16
	.cfi_offset 6, -16
	movq	%rsp, %rbp	#,
	.cfi_def_cfa_register 6
	subq	$16, %rsp	#,
	movq	%rdi, -8(%rbp)	# operands, operands
	movq	%rsi, -16(%rbp)	# insn, insn
	.loc 1 1011 0
	movl	which_alternative(%rip), %eax	# which_alternative, which_alternative.31
	cmpl	$4, %eax	#, which_alternative.31
	ja	.L247	#,
	movl	%eax, %eax	# which_alternative.31, tmp80
	movq	.L249(,%rax,8), %rax	#, tmp81
	jmp	*%rax	# tmp81
	.section	.rodata
	.align 8
	.align 4
.L249:
	.quad	.L248
	.quad	.L250
	.quad	.L251
	.quad	.L252
	.quad	.L252
	.text
.L248:
	.loc 1 1014 0
	movq	-8(%rbp), %rax	# operands, tmp82
	addq	$8, %rax	#, D.16520
	movq	(%rax), %rax	# *_4, D.16521
	movzwl	(%rax), %eax	# _5->code, D.16522
	cmpw	$61, %ax	#, D.16522
	jne	.L253	#,
	.loc 1 1015 0
	movq	-8(%rbp), %rax	# operands, tmp83
	addq	$8, %rax	#, D.16520
	movq	(%rax), %rax	# *_7, D.16521
	movl	8(%rax), %edx	# _8->fld[0].rtuint, D.16523
	movq	-16(%rbp), %rax	# insn, tmp84
	movl	$1, %esi	#,
	movq	%rax, %rdi	# tmp84,
	call	find_regno_note	#
	testq	%rax, %rax	# D.16521
	je	.L253	#,
	.loc 1 1016 0
	movl	$.LC60, %eax	#, D.16519
	jmp	.L254	#
.L253:
	.loc 1 1017 0
	movq	-8(%rbp), %rax	# operands, tmp85
	movq	(%rax), %rax	# *operands_3(D), D.16521
	movzwl	(%rax), %eax	# _13->code, D.16522
	cmpw	$61, %ax	#, D.16522
	jne	.L255	#,
	.loc 1 1017 0 is_stmt 0 discriminator 1
	movq	-8(%rbp), %rax	# operands, tmp86
	movq	(%rax), %rax	# *operands_3(D), D.16521
	movl	8(%rax), %eax	# _15->fld[0].rtuint, D.16523
	cmpl	$8, %eax	#, D.16523
	jne	.L255	#,
	.loc 1 1018 0 is_stmt 1
	movl	$.LC61, %eax	#, D.16519
	jmp	.L254	#
.L255:
	.loc 1 1020 0
	movl	$.LC62, %eax	#, D.16519
	jmp	.L254	#
.L250:
	.loc 1 1025 0
	movq	-8(%rbp), %rax	# operands, tmp87
	addq	$8, %rax	#, D.16520
	movq	(%rax), %rax	# *_19, D.16521
	movl	8(%rax), %edx	# _20->fld[0].rtuint, D.16523
	movq	-16(%rbp), %rax	# insn, tmp88
	movl	$1, %esi	#,
	movq	%rax, %rdi	# tmp88,
	call	find_regno_note	#
	testq	%rax, %rax	# D.16521
	jne	.L256	#,
	.loc 1 1026 0
	movl	$.LC75, %eax	#, D.16519
	jmp	.L254	#
.L256:
	.loc 1 1028 0
	movl	$.LC63, %eax	#, D.16519
	jmp	.L254	#
.L251:
	.loc 1 1031 0
	movq	-8(%rbp), %rax	# operands, tmp89
	addq	$8, %rax	#, D.16520
	movq	(%rax), %rax	# *_25, D.16521
	movq	%rax, %rdi	# D.16521,
	call	standard_80387_constant_p	#
	cmpl	$1, %eax	#, D.16524
	je	.L258	#,
	cmpl	$2, %eax	#, D.16524
	je	.L259	#,
	.loc 1 1038 0
	jmp	.L247	#
.L258:
	.loc 1 1034 0
	movl	$.LC65, %eax	#, D.16519
	jmp	.L254	#
.L259:
	.loc 1 1036 0
	movl	$.LC66, %eax	#, D.16519
	jmp	.L254	#
.L252:
	.loc 1 1041 0
	movl	$.LC45, %eax	#, D.16519
	jmp	.L254	#
.L247:
	.loc 1 1043 0
	movl	$__FUNCTION__.11769, %edx	#,
	movl	$1043, %esi	#,
	movl	$.LC15, %edi	#,
	call	fancy_abort	#
.L254:
	.loc 1 1045 0
	leave
	.cfi_def_cfa 7, 8
	ret
	.cfi_endproc
.LFE43:
	.size	output_102, .-output_102
	.type	output_103, @function
output_103:
.LFB44:
	.loc 1 1053 0
	.cfi_startproc
	pushq	%rbp	#
	.cfi_def_cfa_offset 16
	.cfi_offset 6, -16
	movq	%rsp, %rbp	#,
	.cfi_def_cfa_register 6
	subq	$16, %rsp	#,
	movq	%rdi, -8(%rbp)	# operands, operands
	movq	%rsi, -16(%rbp)	# insn, insn
	.loc 1 1055 0
	movl	which_alternative(%rip), %eax	# which_alternative, which_alternative.32
	cmpl	$4, %eax	#, which_alternative.32
	ja	.L261	#,
	movl	%eax, %eax	# which_alternative.32, tmp80
	movq	.L263(,%rax,8), %rax	#, tmp81
	jmp	*%rax	# tmp81
	.section	.rodata
	.align 8
	.align 4
.L263:
	.quad	.L262
	.quad	.L264
	.quad	.L265
	.quad	.L266
	.quad	.L266
	.text
.L262:
	.loc 1 1058 0
	movq	-8(%rbp), %rax	# operands, tmp82
	addq	$8, %rax	#, D.16526
	movq	(%rax), %rax	# *_4, D.16527
	movzwl	(%rax), %eax	# _5->code, D.16528
	cmpw	$61, %ax	#, D.16528
	jne	.L267	#,
	.loc 1 1059 0
	movq	-8(%rbp), %rax	# operands, tmp83
	addq	$8, %rax	#, D.16526
	movq	(%rax), %rax	# *_7, D.16527
	movl	8(%rax), %edx	# _8->fld[0].rtuint, D.16529
	movq	-16(%rbp), %rax	# insn, tmp84
	movl	$1, %esi	#,
	movq	%rax, %rdi	# tmp84,
	call	find_regno_note	#
	testq	%rax, %rax	# D.16527
	je	.L267	#,
	.loc 1 1060 0
	movl	$.LC60, %eax	#, D.16525
	jmp	.L268	#
.L267:
	.loc 1 1061 0
	movq	-8(%rbp), %rax	# operands, tmp85
	movq	(%rax), %rax	# *operands_3(D), D.16527
	movzwl	(%rax), %eax	# _13->code, D.16528
	cmpw	$61, %ax	#, D.16528
	jne	.L269	#,
	.loc 1 1061 0 is_stmt 0 discriminator 1
	movq	-8(%rbp), %rax	# operands, tmp86
	movq	(%rax), %rax	# *operands_3(D), D.16527
	movl	8(%rax), %eax	# _15->fld[0].rtuint, D.16529
	cmpl	$8, %eax	#, D.16529
	jne	.L269	#,
	.loc 1 1062 0 is_stmt 1
	movl	$.LC61, %eax	#, D.16525
	jmp	.L268	#
.L269:
	.loc 1 1064 0
	movl	$.LC62, %eax	#, D.16525
	jmp	.L268	#
.L264:
	.loc 1 1069 0
	movq	-8(%rbp), %rax	# operands, tmp87
	addq	$8, %rax	#, D.16526
	movq	(%rax), %rax	# *_19, D.16527
	movl	8(%rax), %edx	# _20->fld[0].rtuint, D.16529
	movq	-16(%rbp), %rax	# insn, tmp88
	movl	$1, %esi	#,
	movq	%rax, %rdi	# tmp88,
	call	find_regno_note	#
	testq	%rax, %rax	# D.16527
	jne	.L270	#,
	.loc 1 1070 0
	movl	$.LC75, %eax	#, D.16525
	jmp	.L268	#
.L270:
	.loc 1 1072 0
	movl	$.LC63, %eax	#, D.16525
	jmp	.L268	#
.L265:
	.loc 1 1075 0
	movq	-8(%rbp), %rax	# operands, tmp89
	addq	$8, %rax	#, D.16526
	movq	(%rax), %rax	# *_25, D.16527
	movq	%rax, %rdi	# D.16527,
	call	standard_80387_constant_p	#
	cmpl	$1, %eax	#, D.16530
	je	.L272	#,
	cmpl	$2, %eax	#, D.16530
	je	.L273	#,
	.loc 1 1082 0
	jmp	.L261	#
.L272:
	.loc 1 1078 0
	movl	$.LC65, %eax	#, D.16525
	jmp	.L268	#
.L273:
	.loc 1 1080 0
	movl	$.LC66, %eax	#, D.16525
	jmp	.L268	#
.L266:
	.loc 1 1085 0
	movl	$.LC45, %eax	#, D.16525
	jmp	.L268	#
.L261:
	.loc 1 1087 0
	movl	$__FUNCTION__.11785, %edx	#,
	movl	$1087, %esi	#,
	movl	$.LC15, %edi	#,
	call	fancy_abort	#
.L268:
	.loc 1 1089 0
	leave
	.cfi_def_cfa 7, 8
	ret
	.cfi_endproc
.LFE44:
	.size	output_103, .-output_103
	.type	output_104, @function
output_104:
.LFB45:
	.loc 1 1097 0
	.cfi_startproc
	pushq	%rbp	#
	.cfi_def_cfa_offset 16
	.cfi_offset 6, -16
	movq	%rsp, %rbp	#,
	.cfi_def_cfa_register 6
	subq	$16, %rsp	#,
	movq	%rdi, -8(%rbp)	# operands, operands
	movq	%rsi, -16(%rbp)	# insn, insn
	.loc 1 1099 0
	movl	which_alternative(%rip), %eax	# which_alternative, which_alternative.33
	cmpl	$4, %eax	#, which_alternative.33
	ja	.L275	#,
	movl	%eax, %eax	# which_alternative.33, tmp80
	movq	.L277(,%rax,8), %rax	#, tmp81
	jmp	*%rax	# tmp81
	.section	.rodata
	.align 8
	.align 4
.L277:
	.quad	.L276
	.quad	.L278
	.quad	.L279
	.quad	.L280
	.quad	.L280
	.text
.L276:
	.loc 1 1102 0
	movq	-8(%rbp), %rax	# operands, tmp82
	addq	$8, %rax	#, D.16532
	movq	(%rax), %rax	# *_4, D.16533
	movzwl	(%rax), %eax	# _5->code, D.16534
	cmpw	$61, %ax	#, D.16534
	jne	.L281	#,
	.loc 1 1103 0
	movq	-8(%rbp), %rax	# operands, tmp83
	addq	$8, %rax	#, D.16532
	movq	(%rax), %rax	# *_7, D.16533
	movl	8(%rax), %edx	# _8->fld[0].rtuint, D.16535
	movq	-16(%rbp), %rax	# insn, tmp84
	movl	$1, %esi	#,
	movq	%rax, %rdi	# tmp84,
	call	find_regno_note	#
	testq	%rax, %rax	# D.16533
	je	.L281	#,
	.loc 1 1104 0
	movl	$.LC60, %eax	#, D.16531
	jmp	.L282	#
.L281:
	.loc 1 1105 0
	movq	-8(%rbp), %rax	# operands, tmp85
	movq	(%rax), %rax	# *operands_3(D), D.16533
	movzwl	(%rax), %eax	# _13->code, D.16534
	cmpw	$61, %ax	#, D.16534
	jne	.L283	#,
	.loc 1 1105 0 is_stmt 0 discriminator 1
	movq	-8(%rbp), %rax	# operands, tmp86
	movq	(%rax), %rax	# *operands_3(D), D.16533
	movl	8(%rax), %eax	# _15->fld[0].rtuint, D.16535
	cmpl	$8, %eax	#, D.16535
	jne	.L283	#,
	.loc 1 1106 0 is_stmt 1
	movl	$.LC61, %eax	#, D.16531
	jmp	.L282	#
.L283:
	.loc 1 1108 0
	movl	$.LC62, %eax	#, D.16531
	jmp	.L282	#
.L278:
	.loc 1 1113 0
	movq	-8(%rbp), %rax	# operands, tmp87
	addq	$8, %rax	#, D.16532
	movq	(%rax), %rax	# *_19, D.16533
	movl	8(%rax), %edx	# _20->fld[0].rtuint, D.16535
	movq	-16(%rbp), %rax	# insn, tmp88
	movl	$1, %esi	#,
	movq	%rax, %rdi	# tmp88,
	call	find_regno_note	#
	testq	%rax, %rax	# D.16533
	jne	.L284	#,
	.loc 1 1114 0
	movl	$.LC75, %eax	#, D.16531
	jmp	.L282	#
.L284:
	.loc 1 1116 0
	movl	$.LC63, %eax	#, D.16531
	jmp	.L282	#
.L279:
	.loc 1 1119 0
	movq	-8(%rbp), %rax	# operands, tmp89
	addq	$8, %rax	#, D.16532
	movq	(%rax), %rax	# *_25, D.16533
	movq	%rax, %rdi	# D.16533,
	call	standard_80387_constant_p	#
	cmpl	$1, %eax	#, D.16536
	je	.L286	#,
	cmpl	$2, %eax	#, D.16536
	je	.L287	#,
	.loc 1 1126 0
	jmp	.L275	#
.L286:
	.loc 1 1122 0
	movl	$.LC65, %eax	#, D.16531
	jmp	.L282	#
.L287:
	.loc 1 1124 0
	movl	$.LC66, %eax	#, D.16531
	jmp	.L282	#
.L280:
	.loc 1 1129 0
	movl	$.LC45, %eax	#, D.16531
	jmp	.L282	#
.L275:
	.loc 1 1131 0
	movl	$__FUNCTION__.11801, %edx	#,
	movl	$1131, %esi	#,
	movl	$.LC15, %edi	#,
	call	fancy_abort	#
.L282:
	.loc 1 1133 0
	leave
	.cfi_def_cfa 7, 8
	ret
	.cfi_endproc
.LFE45:
	.size	output_104, .-output_104
	.type	output_105, @function
output_105:
.LFB46:
	.loc 1 1141 0
	.cfi_startproc
	pushq	%rbp	#
	.cfi_def_cfa_offset 16
	.cfi_offset 6, -16
	movq	%rsp, %rbp	#,
	.cfi_def_cfa_register 6
	movq	%rdi, -8(%rbp)	# operands, operands
	movq	%rsi, -16(%rbp)	# insn, insn
	.loc 1 1143 0
	movq	-8(%rbp), %rax	# operands, tmp65
	movq	(%rax), %rax	# *operands_2(D), D.16538
	movzwl	(%rax), %eax	# _3->code, D.16539
	cmpw	$61, %ax	#, D.16539
	jne	.L289	#,
	.loc 1 1143 0 is_stmt 0 discriminator 1
	movq	-8(%rbp), %rax	# operands, tmp66
	movq	(%rax), %rax	# *operands_2(D), D.16538
	movl	8(%rax), %eax	# _5->fld[0].rtuint, D.16540
	cmpl	$8, %eax	#, D.16540
	jne	.L289	#,
	.loc 1 1144 0 is_stmt 1
	movl	$.LC71, %eax	#, D.16537
	jmp	.L290	#
.L289:
	.loc 1 1146 0
	movl	$.LC72, %eax	#, D.16537
.L290:
	.loc 1 1148 0
	popq	%rbp	#
	.cfi_def_cfa 7, 8
	ret
	.cfi_endproc
.LFE46:
	.size	output_105, .-output_105
	.type	output_106, @function
output_106:
.LFB47:
	.loc 1 1156 0
	.cfi_startproc
	pushq	%rbp	#
	.cfi_def_cfa_offset 16
	.cfi_offset 6, -16
	movq	%rsp, %rbp	#,
	.cfi_def_cfa_register 6
	movq	%rdi, -8(%rbp)	# operands, operands
	movq	%rsi, -16(%rbp)	# insn, insn
	.loc 1 1158 0
	movq	-8(%rbp), %rax	# operands, tmp65
	movq	(%rax), %rax	# *operands_2(D), D.16542
	movzwl	(%rax), %eax	# _3->code, D.16543
	cmpw	$61, %ax	#, D.16543
	jne	.L292	#,
	.loc 1 1158 0 is_stmt 0 discriminator 1
	movq	-8(%rbp), %rax	# operands, tmp66
	movq	(%rax), %rax	# *operands_2(D), D.16542
	movl	8(%rax), %eax	# _5->fld[0].rtuint, D.16544
	cmpl	$8, %eax	#, D.16544
	jne	.L292	#,
	.loc 1 1159 0 is_stmt 1
	movl	$.LC71, %eax	#, D.16541
	jmp	.L293	#
.L292:
	.loc 1 1161 0
	movl	$.LC72, %eax	#, D.16541
.L293:
	.loc 1 1163 0
	popq	%rbp	#
	.cfi_def_cfa 7, 8
	ret
	.cfi_endproc
.LFE47:
	.size	output_106, .-output_106
	.section	.rodata
.LC76:
	.string	"mov\t{%k1, %k0|%k0, %k1}"
	.align 16
	.type	output_116, @object
	.size	output_116, 16
output_116:
	.quad	.LC76
	.quad	.LC45
.LC77:
	.string	"movz{wl|x}\t{%1, %k0|%k0, %1} "
.LC78:
	.string	"movz{wq|x}\t{%1, %0|%0, %1}"
	.align 16
	.type	output_117, @object
	.size	output_117, 16
output_117:
	.quad	.LC77
	.quad	.LC78
.LC79:
	.string	"movz{bl|x}\t{%1, %k0|%k0, %1} "
.LC80:
	.string	"movz{bq|x}\t{%1, %0|%0, %1}"
	.align 16
	.type	output_118, @object
	.size	output_118, 16
output_118:
	.quad	.LC79
	.quad	.LC80
.LC81:
	.string	"{cltq|cdqe}"
.LC82:
	.string	"movs{lq|x}\t{%1,%0|%0, %1}"
	.align 16
	.type	output_120, @object
	.size	output_120, 16
output_120:
	.quad	.LC81
	.quad	.LC82
.LC83:
	.string	"{cwtl|cwde}"
.LC84:
	.string	"movs{wl|x}\t{%1,%0|%0, %1}"
	.text
	.type	output_123, @function
output_123:
.LFB48:
	.loc 1 1191 0
	.cfi_startproc
	pushq	%rbp	#
	.cfi_def_cfa_offset 16
	.cfi_offset 6, -16
	movq	%rsp, %rbp	#,
	.cfi_def_cfa_register 6
	subq	$16, %rsp	#,
	movq	%rdi, -8(%rbp)	# operands, operands
	movq	%rsi, -16(%rbp)	# insn, insn
	.loc 1 1193 0
	movq	-16(%rbp), %rax	# insn, tmp62
	movq	%rax, %rdi	# tmp62,
	call	get_attr_prefix_0f	#
	testl	%eax, %eax	# D.16553
	jne	.L298	#,
	.loc 1 1196 0
	movl	$.LC83, %eax	#, D.16552
	jmp	.L297	#
.L298:
	.loc 1 1198 0
	movl	$.LC84, %eax	#, D.16552
.L297:
	.loc 1 1201 0
	leave
	.cfi_def_cfa 7, 8
	ret
	.cfi_endproc
.LFE48:
	.size	output_123, .-output_123
	.section	.rodata
.LC85:
	.string	"movs{wl|x}\t{%1,%k0|%k0, %1}"
	.text
	.type	output_124, @function
output_124:
.LFB49:
	.loc 1 1209 0
	.cfi_startproc
	pushq	%rbp	#
	.cfi_def_cfa_offset 16
	.cfi_offset 6, -16
	movq	%rsp, %rbp	#,
	.cfi_def_cfa_register 6
	subq	$16, %rsp	#,
	movq	%rdi, -8(%rbp)	# operands, operands
	movq	%rsi, -16(%rbp)	# insn, insn
	.loc 1 1211 0
	movq	-16(%rbp), %rax	# insn, tmp62
	movq	%rax, %rdi	# tmp62,
	call	get_attr_prefix_0f	#
	testl	%eax, %eax	# D.16557
	jne	.L303	#,
	.loc 1 1214 0
	movl	$.LC83, %eax	#, D.16556
	jmp	.L302	#
.L303:
	.loc 1 1216 0
	movl	$.LC85, %eax	#, D.16556
.L302:
	.loc 1 1219 0
	leave
	.cfi_def_cfa 7, 8
	ret
	.cfi_endproc
.LFE49:
	.size	output_124, .-output_124
	.section	.rodata
.LC86:
	.string	"{cbtw|cbw}"
.LC87:
	.string	"movs{bw|x}\t{%1,%0|%0, %1}"
	.text
	.type	output_125, @function
output_125:
.LFB50:
	.loc 1 1227 0
	.cfi_startproc
	pushq	%rbp	#
	.cfi_def_cfa_offset 16
	.cfi_offset 6, -16
	movq	%rsp, %rbp	#,
	.cfi_def_cfa_register 6
	subq	$16, %rsp	#,
	movq	%rdi, -8(%rbp)	# operands, operands
	movq	%rsi, -16(%rbp)	# insn, insn
	.loc 1 1229 0
	movq	-16(%rbp), %rax	# insn, tmp62
	movq	%rax, %rdi	# tmp62,
	call	get_attr_prefix_0f	#
	testl	%eax, %eax	# D.16560
	jne	.L308	#,
	.loc 1 1232 0
	movl	$.LC86, %eax	#, D.16559
	jmp	.L307	#
.L308:
	.loc 1 1234 0
	movl	$.LC87, %eax	#, D.16559
.L307:
	.loc 1 1237 0
	leave
	.cfi_def_cfa 7, 8
	ret
	.cfi_endproc
.LFE50:
	.size	output_125, .-output_125
	.section	.rodata
.LC88:
	.string	"cvtss2sd\t{%1, %0|%0, %1}"
	.text
	.type	output_133, @function
output_133:
.LFB51:
	.loc 1 1245 0
	.cfi_startproc
	pushq	%rbp	#
	.cfi_def_cfa_offset 16
	.cfi_offset 6, -16
	movq	%rsp, %rbp	#,
	.cfi_def_cfa_register 6
	subq	$16, %rsp	#,
	movq	%rdi, -8(%rbp)	# operands, operands
	movq	%rsi, -16(%rbp)	# insn, insn
	.loc 1 1247 0
	movl	which_alternative(%rip), %eax	# which_alternative, which_alternative.34
	cmpl	$1, %eax	#, which_alternative.34
	je	.L311	#,
	cmpl	$2, %eax	#, which_alternative.34
	je	.L312	#,
	testl	%eax, %eax	# which_alternative.34
	jne	.L318	#,
	.loc 1 1250 0
	movq	-8(%rbp), %rax	# operands, tmp77
	addq	$8, %rax	#, D.16564
	movq	(%rax), %rax	# *_4, D.16565
	movzwl	(%rax), %eax	# _5->code, D.16566
	cmpw	$61, %ax	#, D.16566
	jne	.L314	#,
	.loc 1 1251 0
	movq	-8(%rbp), %rax	# operands, tmp78
	addq	$8, %rax	#, D.16564
	movq	(%rax), %rax	# *_7, D.16565
	movl	8(%rax), %edx	# _8->fld[0].rtuint, D.16567
	movq	-16(%rbp), %rax	# insn, tmp79
	movl	$1, %esi	#,
	movq	%rax, %rdi	# tmp79,
	call	find_regno_note	#
	testq	%rax, %rax	# D.16565
	je	.L314	#,
	.loc 1 1252 0
	movl	$.LC60, %eax	#, D.16563
	jmp	.L315	#
.L314:
	.loc 1 1253 0
	movq	-8(%rbp), %rax	# operands, tmp80
	movq	(%rax), %rax	# *operands_3(D), D.16565
	movzwl	(%rax), %eax	# _13->code, D.16566
	cmpw	$61, %ax	#, D.16566
	jne	.L316	#,
	.loc 1 1253 0 is_stmt 0 discriminator 1
	movq	-8(%rbp), %rax	# operands, tmp81
	movq	(%rax), %rax	# *operands_3(D), D.16565
	movl	8(%rax), %eax	# _15->fld[0].rtuint, D.16567
	cmpl	$8, %eax	#, D.16567
	jne	.L316	#,
	.loc 1 1254 0 is_stmt 1
	movl	$.LC61, %eax	#, D.16563
	jmp	.L315	#
.L316:
	.loc 1 1256 0
	movl	$.LC62, %eax	#, D.16563
	jmp	.L315	#
.L311:
	.loc 1 1259 0
	movq	-8(%rbp), %rax	# operands, tmp82
	addq	$8, %rax	#, D.16564
	movq	(%rax), %rax	# *_19, D.16565
	movl	8(%rax), %edx	# _20->fld[0].rtuint, D.16567
	movq	-16(%rbp), %rax	# insn, tmp83
	movl	$1, %esi	#,
	movq	%rax, %rdi	# tmp83,
	call	find_regno_note	#
	testq	%rax, %rax	# D.16565
	je	.L317	#,
	.loc 1 1260 0
	movl	$.LC63, %eax	#, D.16563
	jmp	.L315	#
.L317:
	.loc 1 1263 0
	movl	$.LC64, %eax	#, D.16563
	jmp	.L315	#
.L312:
	.loc 1 1265 0
	movl	$.LC88, %eax	#, D.16563
	jmp	.L315	#
.L318:
	.loc 1 1268 0
	movl	$__FUNCTION__.11858, %edx	#,
	movl	$1268, %esi	#,
	movl	$.LC15, %edi	#,
	call	fancy_abort	#
.L315:
	.loc 1 1271 0
	leave
	.cfi_def_cfa 7, 8
	ret
	.cfi_endproc
.LFE51:
	.size	output_133, .-output_133
	.type	output_135, @function
output_135:
.LFB52:
	.loc 1 1279 0
	.cfi_startproc
	pushq	%rbp	#
	.cfi_def_cfa_offset 16
	.cfi_offset 6, -16
	movq	%rsp, %rbp	#,
	.cfi_def_cfa_register 6
	subq	$16, %rsp	#,
	movq	%rdi, -8(%rbp)	# operands, operands
	movq	%rsi, -16(%rbp)	# insn, insn
	.loc 1 1281 0
	movl	which_alternative(%rip), %eax	# which_alternative, which_alternative.35
	testl	%eax, %eax	# which_alternative.35
	je	.L321	#,
	cmpl	$1, %eax	#, which_alternative.35
	je	.L322	#,
	jmp	.L327	#
.L321:
	.loc 1 1284 0
	movq	-8(%rbp), %rax	# operands, tmp77
	addq	$8, %rax	#, D.16570
	movq	(%rax), %rax	# *_4, D.16571
	movzwl	(%rax), %eax	# _5->code, D.16572
	cmpw	$61, %ax	#, D.16572
	jne	.L323	#,
	.loc 1 1285 0
	movq	-8(%rbp), %rax	# operands, tmp78
	addq	$8, %rax	#, D.16570
	movq	(%rax), %rax	# *_7, D.16571
	movl	8(%rax), %edx	# _8->fld[0].rtuint, D.16573
	movq	-16(%rbp), %rax	# insn, tmp79
	movl	$1, %esi	#,
	movq	%rax, %rdi	# tmp79,
	call	find_regno_note	#
	testq	%rax, %rax	# D.16571
	je	.L323	#,
	.loc 1 1286 0
	movl	$.LC60, %eax	#, D.16569
	jmp	.L324	#
.L323:
	.loc 1 1287 0
	movq	-8(%rbp), %rax	# operands, tmp80
	movq	(%rax), %rax	# *operands_3(D), D.16571
	movzwl	(%rax), %eax	# _13->code, D.16572
	cmpw	$61, %ax	#, D.16572
	jne	.L325	#,
	.loc 1 1287 0 is_stmt 0 discriminator 1
	movq	-8(%rbp), %rax	# operands, tmp81
	movq	(%rax), %rax	# *operands_3(D), D.16571
	movl	8(%rax), %eax	# _15->fld[0].rtuint, D.16573
	cmpl	$8, %eax	#, D.16573
	jne	.L325	#,
	.loc 1 1288 0 is_stmt 1
	movl	$.LC61, %eax	#, D.16569
	jmp	.L324	#
.L325:
	.loc 1 1290 0
	movl	$.LC62, %eax	#, D.16569
	jmp	.L324	#
.L322:
	.loc 1 1295 0
	movq	-8(%rbp), %rax	# operands, tmp82
	addq	$8, %rax	#, D.16570
	movq	(%rax), %rax	# *_19, D.16571
	movl	8(%rax), %edx	# _20->fld[0].rtuint, D.16573
	movq	-16(%rbp), %rax	# insn, tmp83
	movl	$1, %esi	#,
	movq	%rax, %rdi	# tmp83,
	call	find_regno_note	#
	testq	%rax, %rax	# D.16571
	jne	.L326	#,
	.loc 1 1296 0
	movl	$.LC75, %eax	#, D.16569
	jmp	.L324	#
.L326:
	.loc 1 1298 0
	movl	$.LC63, %eax	#, D.16569
	jmp	.L324	#
.L327:
	.loc 1 1301 0
	movl	$__FUNCTION__.11869, %edx	#,
	movl	$1301, %esi	#,
	movl	$.LC15, %edi	#,
	call	fancy_abort	#
.L324:
	.loc 1 1304 0
	leave
	.cfi_def_cfa 7, 8
	ret
	.cfi_endproc
.LFE52:
	.size	output_135, .-output_135
	.type	output_136, @function
output_136:
.LFB53:
	.loc 1 1312 0
	.cfi_startproc
	pushq	%rbp	#
	.cfi_def_cfa_offset 16
	.cfi_offset 6, -16
	movq	%rsp, %rbp	#,
	.cfi_def_cfa_register 6
	subq	$16, %rsp	#,
	movq	%rdi, -8(%rbp)	# operands, operands
	movq	%rsi, -16(%rbp)	# insn, insn
	.loc 1 1314 0
	movl	which_alternative(%rip), %eax	# which_alternative, which_alternative.36
	testl	%eax, %eax	# which_alternative.36
	je	.L330	#,
	cmpl	$1, %eax	#, which_alternative.36
	je	.L331	#,
	jmp	.L336	#
.L330:
	.loc 1 1317 0
	movq	-8(%rbp), %rax	# operands, tmp77
	addq	$8, %rax	#, D.16575
	movq	(%rax), %rax	# *_4, D.16576
	movzwl	(%rax), %eax	# _5->code, D.16577
	cmpw	$61, %ax	#, D.16577
	jne	.L332	#,
	.loc 1 1318 0
	movq	-8(%rbp), %rax	# operands, tmp78
	addq	$8, %rax	#, D.16575
	movq	(%rax), %rax	# *_7, D.16576
	movl	8(%rax), %edx	# _8->fld[0].rtuint, D.16578
	movq	-16(%rbp), %rax	# insn, tmp79
	movl	$1, %esi	#,
	movq	%rax, %rdi	# tmp79,
	call	find_regno_note	#
	testq	%rax, %rax	# D.16576
	je	.L332	#,
	.loc 1 1319 0
	movl	$.LC60, %eax	#, D.16574
	jmp	.L333	#
.L332:
	.loc 1 1320 0
	movq	-8(%rbp), %rax	# operands, tmp80
	movq	(%rax), %rax	# *operands_3(D), D.16576
	movzwl	(%rax), %eax	# _13->code, D.16577
	cmpw	$61, %ax	#, D.16577
	jne	.L334	#,
	.loc 1 1320 0 is_stmt 0 discriminator 1
	movq	-8(%rbp), %rax	# operands, tmp81
	movq	(%rax), %rax	# *operands_3(D), D.16576
	movl	8(%rax), %eax	# _15->fld[0].rtuint, D.16578
	cmpl	$8, %eax	#, D.16578
	jne	.L334	#,
	.loc 1 1321 0 is_stmt 1
	movl	$.LC61, %eax	#, D.16574
	jmp	.L333	#
.L334:
	.loc 1 1323 0
	movl	$.LC62, %eax	#, D.16574
	jmp	.L333	#
.L331:
	.loc 1 1328 0
	movq	-8(%rbp), %rax	# operands, tmp82
	addq	$8, %rax	#, D.16575
	movq	(%rax), %rax	# *_19, D.16576
	movl	8(%rax), %edx	# _20->fld[0].rtuint, D.16578
	movq	-16(%rbp), %rax	# insn, tmp83
	movl	$1, %esi	#,
	movq	%rax, %rdi	# tmp83,
	call	find_regno_note	#
	testq	%rax, %rax	# D.16576
	jne	.L335	#,
	.loc 1 1329 0
	movl	$.LC75, %eax	#, D.16574
	jmp	.L333	#
.L335:
	.loc 1 1331 0
	movl	$.LC63, %eax	#, D.16574
	jmp	.L333	#
.L336:
	.loc 1 1334 0
	movl	$__FUNCTION__.11880, %edx	#,
	movl	$1334, %esi	#,
	movl	$.LC15, %edi	#,
	call	fancy_abort	#
.L333:
	.loc 1 1337 0
	leave
	.cfi_def_cfa 7, 8
	ret
	.cfi_endproc
.LFE53:
	.size	output_136, .-output_136
	.type	output_137, @function
output_137:
.LFB54:
	.loc 1 1345 0
	.cfi_startproc
	pushq	%rbp	#
	.cfi_def_cfa_offset 16
	.cfi_offset 6, -16
	movq	%rsp, %rbp	#,
	.cfi_def_cfa_register 6
	subq	$16, %rsp	#,
	movq	%rdi, -8(%rbp)	# operands, operands
	movq	%rsi, -16(%rbp)	# insn, insn
	.loc 1 1347 0
	movl	which_alternative(%rip), %eax	# which_alternative, which_alternative.37
	testl	%eax, %eax	# which_alternative.37
	je	.L339	#,
	cmpl	$1, %eax	#, which_alternative.37
	je	.L340	#,
	jmp	.L345	#
.L339:
	.loc 1 1350 0
	movq	-8(%rbp), %rax	# operands, tmp77
	addq	$8, %rax	#, D.16580
	movq	(%rax), %rax	# *_4, D.16581
	movzwl	(%rax), %eax	# _5->code, D.16582
	cmpw	$61, %ax	#, D.16582
	jne	.L341	#,
	.loc 1 1351 0
	movq	-8(%rbp), %rax	# operands, tmp78
	addq	$8, %rax	#, D.16580
	movq	(%rax), %rax	# *_7, D.16581
	movl	8(%rax), %edx	# _8->fld[0].rtuint, D.16583
	movq	-16(%rbp), %rax	# insn, tmp79
	movl	$1, %esi	#,
	movq	%rax, %rdi	# tmp79,
	call	find_regno_note	#
	testq	%rax, %rax	# D.16581
	je	.L341	#,
	.loc 1 1352 0
	movl	$.LC60, %eax	#, D.16579
	jmp	.L342	#
.L341:
	.loc 1 1353 0
	movq	-8(%rbp), %rax	# operands, tmp80
	movq	(%rax), %rax	# *operands_3(D), D.16581
	movzwl	(%rax), %eax	# _13->code, D.16582
	cmpw	$61, %ax	#, D.16582
	jne	.L343	#,
	.loc 1 1353 0 is_stmt 0 discriminator 1
	movq	-8(%rbp), %rax	# operands, tmp81
	movq	(%rax), %rax	# *operands_3(D), D.16581
	movl	8(%rax), %eax	# _15->fld[0].rtuint, D.16583
	cmpl	$8, %eax	#, D.16583
	jne	.L343	#,
	.loc 1 1354 0 is_stmt 1
	movl	$.LC61, %eax	#, D.16579
	jmp	.L342	#
.L343:
	.loc 1 1356 0
	movl	$.LC62, %eax	#, D.16579
	jmp	.L342	#
.L340:
	.loc 1 1361 0
	movq	-8(%rbp), %rax	# operands, tmp82
	addq	$8, %rax	#, D.16580
	movq	(%rax), %rax	# *_19, D.16581
	movl	8(%rax), %edx	# _20->fld[0].rtuint, D.16583
	movq	-16(%rbp), %rax	# insn, tmp83
	movl	$1, %esi	#,
	movq	%rax, %rdi	# tmp83,
	call	find_regno_note	#
	testq	%rax, %rax	# D.16581
	jne	.L344	#,
	.loc 1 1362 0
	movl	$.LC75, %eax	#, D.16579
	jmp	.L342	#
.L344:
	.loc 1 1364 0
	movl	$.LC63, %eax	#, D.16579
	jmp	.L342	#
.L345:
	.loc 1 1367 0
	movl	$__FUNCTION__.11891, %edx	#,
	movl	$1367, %esi	#,
	movl	$.LC15, %edi	#,
	call	fancy_abort	#
.L342:
	.loc 1 1370 0
	leave
	.cfi_def_cfa 7, 8
	ret
	.cfi_endproc
.LFE54:
	.size	output_137, .-output_137
	.type	output_138, @function
output_138:
.LFB55:
	.loc 1 1378 0
	.cfi_startproc
	pushq	%rbp	#
	.cfi_def_cfa_offset 16
	.cfi_offset 6, -16
	movq	%rsp, %rbp	#,
	.cfi_def_cfa_register 6
	subq	$16, %rsp	#,
	movq	%rdi, -8(%rbp)	# operands, operands
	movq	%rsi, -16(%rbp)	# insn, insn
	.loc 1 1380 0
	movl	which_alternative(%rip), %eax	# which_alternative, which_alternative.38
	testl	%eax, %eax	# which_alternative.38
	je	.L348	#,
	cmpl	$1, %eax	#, which_alternative.38
	je	.L349	#,
	jmp	.L354	#
.L348:
	.loc 1 1383 0
	movq	-8(%rbp), %rax	# operands, tmp77
	addq	$8, %rax	#, D.16585
	movq	(%rax), %rax	# *_4, D.16586
	movzwl	(%rax), %eax	# _5->code, D.16587
	cmpw	$61, %ax	#, D.16587
	jne	.L350	#,
	.loc 1 1384 0
	movq	-8(%rbp), %rax	# operands, tmp78
	addq	$8, %rax	#, D.16585
	movq	(%rax), %rax	# *_7, D.16586
	movl	8(%rax), %edx	# _8->fld[0].rtuint, D.16588
	movq	-16(%rbp), %rax	# insn, tmp79
	movl	$1, %esi	#,
	movq	%rax, %rdi	# tmp79,
	call	find_regno_note	#
	testq	%rax, %rax	# D.16586
	je	.L350	#,
	.loc 1 1385 0
	movl	$.LC60, %eax	#, D.16584
	jmp	.L351	#
.L350:
	.loc 1 1386 0
	movq	-8(%rbp), %rax	# operands, tmp80
	movq	(%rax), %rax	# *operands_3(D), D.16586
	movzwl	(%rax), %eax	# _13->code, D.16587
	cmpw	$61, %ax	#, D.16587
	jne	.L352	#,
	.loc 1 1386 0 is_stmt 0 discriminator 1
	movq	-8(%rbp), %rax	# operands, tmp81
	movq	(%rax), %rax	# *operands_3(D), D.16586
	movl	8(%rax), %eax	# _15->fld[0].rtuint, D.16588
	cmpl	$8, %eax	#, D.16588
	jne	.L352	#,
	.loc 1 1387 0 is_stmt 1
	movl	$.LC61, %eax	#, D.16584
	jmp	.L351	#
.L352:
	.loc 1 1389 0
	movl	$.LC62, %eax	#, D.16584
	jmp	.L351	#
.L349:
	.loc 1 1394 0
	movq	-8(%rbp), %rax	# operands, tmp82
	addq	$8, %rax	#, D.16585
	movq	(%rax), %rax	# *_19, D.16586
	movl	8(%rax), %edx	# _20->fld[0].rtuint, D.16588
	movq	-16(%rbp), %rax	# insn, tmp83
	movl	$1, %esi	#,
	movq	%rax, %rdi	# tmp83,
	call	find_regno_note	#
	testq	%rax, %rax	# D.16586
	jne	.L353	#,
	.loc 1 1395 0
	movl	$.LC75, %eax	#, D.16584
	jmp	.L351	#
.L353:
	.loc 1 1397 0
	movl	$.LC63, %eax	#, D.16584
	jmp	.L351	#
.L354:
	.loc 1 1400 0
	movl	$__FUNCTION__.11902, %edx	#,
	movl	$1400, %esi	#,
	movl	$.LC15, %edi	#,
	call	fancy_abort	#
.L351:
	.loc 1 1403 0
	leave
	.cfi_def_cfa 7, 8
	ret
	.cfi_endproc
.LFE55:
	.size	output_138, .-output_138
	.type	output_139, @function
output_139:
.LFB56:
	.loc 1 1411 0
	.cfi_startproc
	pushq	%rbp	#
	.cfi_def_cfa_offset 16
	.cfi_offset 6, -16
	movq	%rsp, %rbp	#,
	.cfi_def_cfa_register 6
	subq	$16, %rsp	#,
	movq	%rdi, -8(%rbp)	# operands, operands
	movq	%rsi, -16(%rbp)	# insn, insn
	.loc 1 1413 0
	movl	which_alternative(%rip), %eax	# which_alternative, which_alternative.39
	testl	%eax, %eax	# which_alternative.39
	jne	.L360	#,
	.loc 1 1416 0
	movq	-8(%rbp), %rax	# operands, tmp66
	addq	$8, %rax	#, D.16590
	movq	(%rax), %rax	# *_4, D.16591
	movl	8(%rax), %edx	# _5->fld[0].rtuint, D.16592
	movq	-16(%rbp), %rax	# insn, tmp67
	movl	$1, %esi	#,
	movq	%rax, %rdi	# tmp67,
	call	find_regno_note	#
	testq	%rax, %rax	# D.16591
	je	.L358	#,
	.loc 1 1417 0
	movl	$.LC63, %eax	#, D.16589
	jmp	.L359	#
.L358:
	.loc 1 1419 0
	movl	$.LC64, %eax	#, D.16589
	jmp	.L359	#
.L360:
	.loc 1 1421 0
	movl	$__FUNCTION__.11912, %edx	#,
	movl	$1421, %esi	#,
	movl	$.LC15, %edi	#,
	call	fancy_abort	#
.L359:
	.loc 1 1424 0
	leave
	.cfi_def_cfa 7, 8
	ret
	.cfi_endproc
.LFE56:
	.size	output_139, .-output_139
	.section	.rodata
.LC89:
	.string	"cvtsd2ss\t{%1, %0|%0, %1}"
	.text
	.type	output_140, @function
output_140:
.LFB57:
	.loc 1 1432 0
	.cfi_startproc
	pushq	%rbp	#
	.cfi_def_cfa_offset 16
	.cfi_offset 6, -16
	movq	%rsp, %rbp	#,
	.cfi_def_cfa_register 6
	subq	$16, %rsp	#,
	movq	%rdi, -8(%rbp)	# operands, operands
	movq	%rsi, -16(%rbp)	# insn, insn
	.loc 1 1434 0
	movl	which_alternative(%rip), %eax	# which_alternative, which_alternative.40
	testl	%eax, %eax	# which_alternative.40
	je	.L363	#,
	cmpl	$4, %eax	#, which_alternative.40
	je	.L364	#,
	jmp	.L367	#
.L363:
	.loc 1 1437 0
	movq	-8(%rbp), %rax	# operands, tmp66
	addq	$8, %rax	#, D.16594
	movq	(%rax), %rax	# *_4, D.16595
	movl	8(%rax), %edx	# _5->fld[0].rtuint, D.16596
	movq	-16(%rbp), %rax	# insn, tmp67
	movl	$1, %esi	#,
	movq	%rax, %rdi	# tmp67,
	call	find_regno_note	#
	testq	%rax, %rax	# D.16595
	je	.L365	#,
	.loc 1 1438 0
	movl	$.LC63, %eax	#, D.16593
	jmp	.L366	#
.L365:
	.loc 1 1440 0
	movl	$.LC64, %eax	#, D.16593
	jmp	.L366	#
.L364:
	.loc 1 1442 0
	movl	$.LC89, %eax	#, D.16593
	jmp	.L366	#
.L367:
	.loc 1 1444 0
	movl	$__FUNCTION__.11923, %edx	#,
	movl	$1444, %esi	#,
	movl	$.LC15, %edi	#,
	call	fancy_abort	#
.L366:
	.loc 1 1447 0
	leave
	.cfi_def_cfa 7, 8
	ret
	.cfi_endproc
.LFE57:
	.size	output_140, .-output_140
	.type	output_141, @function
output_141:
.LFB58:
	.loc 1 1455 0
	.cfi_startproc
	pushq	%rbp	#
	.cfi_def_cfa_offset 16
	.cfi_offset 6, -16
	movq	%rsp, %rbp	#,
	.cfi_def_cfa_register 6
	subq	$16, %rsp	#,
	movq	%rdi, -8(%rbp)	# operands, operands
	movq	%rsi, -16(%rbp)	# insn, insn
	.loc 1 1457 0
	movl	which_alternative(%rip), %eax	# which_alternative, which_alternative.41
	testl	%eax, %eax	# which_alternative.41
	je	.L370	#,
	cmpl	$1, %eax	#, which_alternative.41
	je	.L371	#,
	jmp	.L374	#
.L370:
	.loc 1 1460 0
	movl	$.LC89, %eax	#, D.16598
	jmp	.L372	#
.L371:
	.loc 1 1462 0
	movq	-8(%rbp), %rax	# operands, tmp66
	addq	$8, %rax	#, D.16599
	movq	(%rax), %rax	# *_5, D.16600
	movl	8(%rax), %edx	# _6->fld[0].rtuint, D.16601
	movq	-16(%rbp), %rax	# insn, tmp67
	movl	$1, %esi	#,
	movq	%rax, %rdi	# tmp67,
	call	find_regno_note	#
	testq	%rax, %rax	# D.16600
	je	.L373	#,
	.loc 1 1463 0
	movl	$.LC63, %eax	#, D.16598
	jmp	.L372	#
.L373:
	.loc 1 1465 0
	movl	$.LC64, %eax	#, D.16598
	jmp	.L372	#
.L374:
	.loc 1 1467 0
	movl	$__FUNCTION__.11934, %edx	#,
	movl	$1467, %esi	#,
	movl	$.LC15, %edi	#,
	call	fancy_abort	#
.L372:
	.loc 1 1470 0
	leave
	.cfi_def_cfa 7, 8
	ret
	.cfi_endproc
.LFE58:
	.size	output_141, .-output_141
	.type	output_142, @function
output_142:
.LFB59:
	.loc 1 1478 0
	.cfi_startproc
	pushq	%rbp	#
	.cfi_def_cfa_offset 16
	.cfi_offset 6, -16
	movq	%rsp, %rbp	#,
	.cfi_def_cfa_register 6
	subq	$16, %rsp	#,
	movq	%rdi, -8(%rbp)	# operands, operands
	movq	%rsi, -16(%rbp)	# insn, insn
	.loc 1 1480 0
	movq	-8(%rbp), %rax	# operands, tmp65
	addq	$8, %rax	#, D.16603
	movq	(%rax), %rax	# *_3, D.16604
	movl	8(%rax), %edx	# _4->fld[0].rtuint, D.16605
	movq	-16(%rbp), %rax	# insn, tmp66
	movl	$1, %esi	#,
	movq	%rax, %rdi	# tmp66,
	call	find_regno_note	#
	testq	%rax, %rax	# D.16604
	je	.L376	#,
	.loc 1 1481 0
	movl	$.LC63, %eax	#, D.16602
	jmp	.L377	#
.L376:
	.loc 1 1483 0
	movl	$.LC64, %eax	#, D.16602
.L377:
	.loc 1 1485 0
	leave
	.cfi_def_cfa 7, 8
	ret
	.cfi_endproc
.LFE59:
	.size	output_142, .-output_142
	.type	output_144, @function
output_144:
.LFB60:
	.loc 1 1493 0
	.cfi_startproc
	pushq	%rbp	#
	.cfi_def_cfa_offset 16
	.cfi_offset 6, -16
	movq	%rsp, %rbp	#,
	.cfi_def_cfa_register 6
	subq	$16, %rsp	#,
	movq	%rdi, -8(%rbp)	# operands, operands
	movq	%rsi, -16(%rbp)	# insn, insn
	.loc 1 1495 0
	movl	which_alternative(%rip), %eax	# which_alternative, which_alternative.42
	testl	%eax, %eax	# which_alternative.42
	jne	.L383	#,
	.loc 1 1498 0
	movq	-8(%rbp), %rax	# operands, tmp66
	addq	$8, %rax	#, D.16607
	movq	(%rax), %rax	# *_4, D.16608
	movl	8(%rax), %edx	# _5->fld[0].rtuint, D.16609
	movq	-16(%rbp), %rax	# insn, tmp67
	movl	$1, %esi	#,
	movq	%rax, %rdi	# tmp67,
	call	find_regno_note	#
	testq	%rax, %rax	# D.16608
	je	.L381	#,
	.loc 1 1499 0
	movl	$.LC63, %eax	#, D.16606
	jmp	.L382	#
.L381:
	.loc 1 1501 0
	movl	$.LC64, %eax	#, D.16606
	jmp	.L382	#
.L383:
	.loc 1 1503 0
	movl	$__FUNCTION__.11951, %edx	#,
	movl	$1503, %esi	#,
	movl	$.LC15, %edi	#,
	call	fancy_abort	#
.L382:
	.loc 1 1506 0
	leave
	.cfi_def_cfa 7, 8
	ret
	.cfi_endproc
.LFE60:
	.size	output_144, .-output_144
	.type	output_145, @function
output_145:
.LFB61:
	.loc 1 1514 0
	.cfi_startproc
	pushq	%rbp	#
	.cfi_def_cfa_offset 16
	.cfi_offset 6, -16
	movq	%rsp, %rbp	#,
	.cfi_def_cfa_register 6
	subq	$16, %rsp	#,
	movq	%rdi, -8(%rbp)	# operands, operands
	movq	%rsi, -16(%rbp)	# insn, insn
	.loc 1 1516 0
	movq	-8(%rbp), %rax	# operands, tmp65
	addq	$8, %rax	#, D.16611
	movq	(%rax), %rax	# *_3, D.16612
	movl	8(%rax), %edx	# _4->fld[0].rtuint, D.16613
	movq	-16(%rbp), %rax	# insn, tmp66
	movl	$1, %esi	#,
	movq	%rax, %rdi	# tmp66,
	call	find_regno_note	#
	testq	%rax, %rax	# D.16612
	je	.L385	#,
	.loc 1 1517 0
	movl	$.LC63, %eax	#, D.16610
	jmp	.L386	#
.L385:
	.loc 1 1519 0
	movl	$.LC64, %eax	#, D.16610
.L386:
	.loc 1 1521 0
	leave
	.cfi_def_cfa 7, 8
	ret
	.cfi_endproc
.LFE61:
	.size	output_145, .-output_145
	.type	output_146, @function
output_146:
.LFB62:
	.loc 1 1529 0
	.cfi_startproc
	pushq	%rbp	#
	.cfi_def_cfa_offset 16
	.cfi_offset 6, -16
	movq	%rsp, %rbp	#,
	.cfi_def_cfa_register 6
	subq	$16, %rsp	#,
	movq	%rdi, -8(%rbp)	# operands, operands
	movq	%rsi, -16(%rbp)	# insn, insn
	.loc 1 1531 0
	movl	which_alternative(%rip), %eax	# which_alternative, which_alternative.43
	testl	%eax, %eax	# which_alternative.43
	jne	.L392	#,
	.loc 1 1534 0
	movq	-8(%rbp), %rax	# operands, tmp66
	addq	$8, %rax	#, D.16615
	movq	(%rax), %rax	# *_4, D.16616
	movl	8(%rax), %edx	# _5->fld[0].rtuint, D.16617
	movq	-16(%rbp), %rax	# insn, tmp67
	movl	$1, %esi	#,
	movq	%rax, %rdi	# tmp67,
	call	find_regno_note	#
	testq	%rax, %rax	# D.16616
	je	.L390	#,
	.loc 1 1535 0
	movl	$.LC63, %eax	#, D.16614
	jmp	.L391	#
.L390:
	.loc 1 1537 0
	movl	$.LC64, %eax	#, D.16614
	jmp	.L391	#
.L392:
	.loc 1 1539 0
	movl	$__FUNCTION__.11968, %edx	#,
	movl	$1539, %esi	#,
	movl	$.LC15, %edi	#,
	call	fancy_abort	#
.L391:
	.loc 1 1542 0
	leave
	.cfi_def_cfa 7, 8
	ret
	.cfi_endproc
.LFE62:
	.size	output_146, .-output_146
	.type	output_147, @function
output_147:
.LFB63:
	.loc 1 1550 0
	.cfi_startproc
	pushq	%rbp	#
	.cfi_def_cfa_offset 16
	.cfi_offset 6, -16
	movq	%rsp, %rbp	#,
	.cfi_def_cfa_register 6
	subq	$16, %rsp	#,
	movq	%rdi, -8(%rbp)	# operands, operands
	movq	%rsi, -16(%rbp)	# insn, insn
	.loc 1 1552 0
	movq	-8(%rbp), %rax	# operands, tmp65
	addq	$8, %rax	#, D.16619
	movq	(%rax), %rax	# *_3, D.16620
	movl	8(%rax), %edx	# _4->fld[0].rtuint, D.16621
	movq	-16(%rbp), %rax	# insn, tmp66
	movl	$1, %esi	#,
	movq	%rax, %rdi	# tmp66,
	call	find_regno_note	#
	testq	%rax, %rax	# D.16620
	je	.L394	#,
	.loc 1 1553 0
	movl	$.LC63, %eax	#, D.16618
	jmp	.L395	#
.L394:
	.loc 1 1555 0
	movl	$.LC64, %eax	#, D.16618
.L395:
	.loc 1 1557 0
	leave
	.cfi_def_cfa 7, 8
	ret
	.cfi_endproc
.LFE63:
	.size	output_147, .-output_147
	.type	output_148, @function
output_148:
.LFB64:
	.loc 1 1565 0
	.cfi_startproc
	pushq	%rbp	#
	.cfi_def_cfa_offset 16
	.cfi_offset 6, -16
	movq	%rsp, %rbp	#,
	.cfi_def_cfa_register 6
	subq	$16, %rsp	#,
	movq	%rdi, -8(%rbp)	# operands, operands
	movq	%rsi, -16(%rbp)	# insn, insn
	.loc 1 1567 0
	movl	which_alternative(%rip), %eax	# which_alternative, which_alternative.44
	testl	%eax, %eax	# which_alternative.44
	jne	.L401	#,
	.loc 1 1570 0
	movq	-8(%rbp), %rax	# operands, tmp66
	addq	$8, %rax	#, D.16623
	movq	(%rax), %rax	# *_4, D.16624
	movl	8(%rax), %edx	# _5->fld[0].rtuint, D.16625
	movq	-16(%rbp), %rax	# insn, tmp67
	movl	$1, %esi	#,
	movq	%rax, %rdi	# tmp67,
	call	find_regno_note	#
	testq	%rax, %rax	# D.16624
	je	.L399	#,
	.loc 1 1571 0
	movl	$.LC63, %eax	#, D.16622
	jmp	.L400	#
.L399:
	.loc 1 1573 0
	movl	$.LC64, %eax	#, D.16622
	jmp	.L400	#
.L401:
	.loc 1 1575 0
	movl	$__FUNCTION__.11985, %edx	#,
	movl	$1575, %esi	#,
	movl	$.LC15, %edi	#,
	call	fancy_abort	#
.L400:
	.loc 1 1579 0
	leave
	.cfi_def_cfa 7, 8
	ret
	.cfi_endproc
.LFE64:
	.size	output_148, .-output_148
	.type	output_149, @function
output_149:
.LFB65:
	.loc 1 1587 0
	.cfi_startproc
	pushq	%rbp	#
	.cfi_def_cfa_offset 16
	.cfi_offset 6, -16
	movq	%rsp, %rbp	#,
	.cfi_def_cfa_register 6
	subq	$16, %rsp	#,
	movq	%rdi, -8(%rbp)	# operands, operands
	movq	%rsi, -16(%rbp)	# insn, insn
	.loc 1 1589 0
	movq	-8(%rbp), %rax	# operands, tmp65
	addq	$8, %rax	#, D.16627
	movq	(%rax), %rax	# *_3, D.16628
	movl	8(%rax), %edx	# _4->fld[0].rtuint, D.16629
	movq	-16(%rbp), %rax	# insn, tmp66
	movl	$1, %esi	#,
	movq	%rax, %rdi	# tmp66,
	call	find_regno_note	#
	testq	%rax, %rax	# D.16628
	je	.L403	#,
	.loc 1 1590 0
	movl	$.LC63, %eax	#, D.16626
	jmp	.L404	#
.L403:
	.loc 1 1592 0
	movl	$.LC64, %eax	#, D.16626
.L404:
	.loc 1 1594 0
	leave
	.cfi_def_cfa 7, 8
	ret
	.cfi_endproc
.LFE65:
	.size	output_149, .-output_149
	.type	output_150, @function
output_150:
.LFB66:
	.loc 1 1602 0
	.cfi_startproc
	pushq	%rbp	#
	.cfi_def_cfa_offset 16
	.cfi_offset 6, -16
	movq	%rsp, %rbp	#,
	.cfi_def_cfa_register 6
	subq	$16, %rsp	#,
	movq	%rdi, -8(%rbp)	# operands, operands
	movq	%rsi, -16(%rbp)	# insn, insn
	.loc 1 1604 0
	movl	which_alternative(%rip), %eax	# which_alternative, which_alternative.45
	testl	%eax, %eax	# which_alternative.45
	jne	.L410	#,
	.loc 1 1607 0
	movq	-8(%rbp), %rax	# operands, tmp66
	addq	$8, %rax	#, D.16631
	movq	(%rax), %rax	# *_4, D.16632
	movl	8(%rax), %edx	# _5->fld[0].rtuint, D.16633
	movq	-16(%rbp), %rax	# insn, tmp67
	movl	$1, %esi	#,
	movq	%rax, %rdi	# tmp67,
	call	find_regno_note	#
	testq	%rax, %rax	# D.16632
	je	.L408	#,
	.loc 1 1608 0
	movl	$.LC63, %eax	#, D.16630
	jmp	.L409	#
.L408:
	.loc 1 1610 0
	movl	$.LC64, %eax	#, D.16630
	jmp	.L409	#
.L410:
	.loc 1 1612 0
	movl	$__FUNCTION__.12002, %edx	#,
	movl	$1612, %esi	#,
	movl	$.LC15, %edi	#,
	call	fancy_abort	#
.L409:
	.loc 1 1616 0
	leave
	.cfi_def_cfa 7, 8
	ret
	.cfi_endproc
.LFE66:
	.size	output_150, .-output_150
	.type	output_151, @function
output_151:
.LFB67:
	.loc 1 1624 0
	.cfi_startproc
	pushq	%rbp	#
	.cfi_def_cfa_offset 16
	.cfi_offset 6, -16
	movq	%rsp, %rbp	#,
	.cfi_def_cfa_register 6
	subq	$16, %rsp	#,
	movq	%rdi, -8(%rbp)	# operands, operands
	movq	%rsi, -16(%rbp)	# insn, insn
	.loc 1 1626 0
	movq	-8(%rbp), %rax	# operands, tmp65
	addq	$8, %rax	#, D.16635
	movq	(%rax), %rax	# *_3, D.16636
	movl	8(%rax), %edx	# _4->fld[0].rtuint, D.16637
	movq	-16(%rbp), %rax	# insn, tmp66
	movl	$1, %esi	#,
	movq	%rax, %rdi	# tmp66,
	call	find_regno_note	#
	testq	%rax, %rax	# D.16636
	je	.L412	#,
	.loc 1 1627 0
	movl	$.LC63, %eax	#, D.16634
	jmp	.L413	#
.L412:
	.loc 1 1629 0
	movl	$.LC64, %eax	#, D.16634
.L413:
	.loc 1 1631 0
	leave
	.cfi_def_cfa 7, 8
	ret
	.cfi_endproc
.LFE67:
	.size	output_151, .-output_151
	.type	output_154, @function
output_154:
.LFB68:
	.loc 1 1639 0
	.cfi_startproc
	pushq	%rbp	#
	.cfi_def_cfa_offset 16
	.cfi_offset 6, -16
	movq	%rsp, %rbp	#,
	.cfi_def_cfa_register 6
	subq	$16, %rsp	#,
	movq	%rdi, -8(%rbp)	# operands, operands
	movq	%rsi, -16(%rbp)	# insn, insn
	.loc 1 1640 0
	movq	-8(%rbp), %rax	# operands, tmp63
	leaq	40(%rax), %rdx	#, D.16638
	movq	-8(%rbp), %rax	# operands, tmp64
	movq	32(%rax), %rax	# MEM[(struct rtx_def * *)operands_1(D) + 32B], D.16639
	movq	%rax, (%rdx)	# D.16639, *_2
	movq	-8(%rbp), %rdx	# operands, tmp65
	movq	-16(%rbp), %rax	# insn, tmp66
	movq	%rdx, %rsi	# tmp65,
	movq	%rax, %rdi	# tmp66,
	call	output_fix_trunc	#
	.loc 1 1641 0
	leave
	.cfi_def_cfa 7, 8
	ret
	.cfi_endproc
.LFE68:
	.size	output_154, .-output_154
	.type	output_159, @function
output_159:
.LFB69:
	.loc 1 1649 0
	.cfi_startproc
	pushq	%rbp	#
	.cfi_def_cfa_offset 16
	.cfi_offset 6, -16
	movq	%rsp, %rbp	#,
	.cfi_def_cfa_register 6
	subq	$16, %rsp	#,
	movq	%rdi, -8(%rbp)	# operands, operands
	movq	%rsi, -16(%rbp)	# insn, insn
	.loc 1 1650 0
	movq	-8(%rbp), %rdx	# operands, tmp61
	movq	-16(%rbp), %rax	# insn, tmp62
	movq	%rdx, %rsi	# tmp61,
	movq	%rax, %rdi	# tmp62,
	call	output_fix_trunc	#
	.loc 1 1651 0
	leave
	.cfi_def_cfa 7, 8
	ret
	.cfi_endproc
.LFE69:
	.size	output_159, .-output_159
	.type	output_164, @function
output_164:
.LFB70:
	.loc 1 1659 0
	.cfi_startproc
	pushq	%rbp	#
	.cfi_def_cfa_offset 16
	.cfi_offset 6, -16
	movq	%rsp, %rbp	#,
	.cfi_def_cfa_register 6
	subq	$16, %rsp	#,
	movq	%rdi, -8(%rbp)	# operands, operands
	movq	%rsi, -16(%rbp)	# insn, insn
	.loc 1 1660 0
	movq	-8(%rbp), %rdx	# operands, tmp61
	movq	-16(%rbp), %rax	# insn, tmp62
	movq	%rdx, %rsi	# tmp61,
	movq	%rax, %rdi	# tmp62,
	call	output_fix_trunc	#
	.loc 1 1661 0
	leave
	.cfi_def_cfa 7, 8
	ret
	.cfi_endproc
.LFE70:
	.size	output_164, .-output_164
	.section	.rodata
.LC90:
	.string	"fild%z1\t%1"
	.align 16
	.type	output_167, @object
	.size	output_167, 16
output_167:
	.quad	.LC90
	.quad	.LC45
.LC91:
	.string	"cvtsi2ss\t{%1, %0|%0, %1}"
	.align 16
	.type	output_168, @object
	.size	output_168, 24
output_168:
	.quad	.LC90
	.quad	.LC45
	.quad	.LC91
	.align 16
	.type	output_170, @object
	.size	output_170, 16
output_170:
	.quad	.LC90
	.quad	.LC45
.LC92:
	.string	"cvtsi2ss{q}\t{%1, %0|%0, %1}"
	.align 16
	.type	output_171, @object
	.size	output_171, 24
output_171:
	.quad	.LC90
	.quad	.LC45
	.quad	.LC92
	.align 16
	.type	output_173, @object
	.size	output_173, 16
output_173:
	.quad	.LC90
	.quad	.LC45
.LC93:
	.string	"cvtsi2sd\t{%1, %0|%0, %1}"
	.align 16
	.type	output_174, @object
	.size	output_174, 24
output_174:
	.quad	.LC90
	.quad	.LC45
	.quad	.LC93
	.align 16
	.type	output_176, @object
	.size	output_176, 16
output_176:
	.quad	.LC90
	.quad	.LC45
.LC94:
	.string	"cvtsi2sd{q}\t{%1, %0|%0, %1}"
	.align 16
	.type	output_177, @object
	.size	output_177, 24
output_177:
	.quad	.LC90
	.quad	.LC45
	.quad	.LC94
	.align 16
	.type	output_179, @object
	.size	output_179, 16
output_179:
	.quad	.LC90
	.quad	.LC45
	.align 16
	.type	output_180, @object
	.size	output_180, 16
output_180:
	.quad	.LC90
	.quad	.LC45
	.align 16
	.type	output_181, @object
	.size	output_181, 16
output_181:
	.quad	.LC90
	.quad	.LC45
	.align 16
	.type	output_182, @object
	.size	output_182, 16
output_182:
	.quad	.LC90
	.quad	.LC45
	.align 16
	.type	output_183, @object
	.size	output_183, 16
output_183:
	.quad	.LC90
	.quad	.LC45
	.align 16
	.type	output_184, @object
	.size	output_184, 16
output_184:
	.quad	.LC90
	.quad	.LC45
.LC95:
	.string	"lea{q}\t{%a2, %0|%0, %a2}"
.LC96:
	.string	"inc{q}\t%0"
.LC97:
	.string	"dec{q}\t%0"
.LC98:
	.string	"sub{q}\t{%2, %0|%0, %2}"
.LC99:
	.string	"add{q}\t{%2, %0|%0, %2}"
	.text
	.type	output_202, @function
output_202:
.LFB71:
	.loc 1 1743 0
	.cfi_startproc
	pushq	%rbp	#
	.cfi_def_cfa_offset 16
	.cfi_offset 6, -16
	movq	%rsp, %rbp	#,
	.cfi_def_cfa_register 6
	pushq	%rbx	#
	subq	$24, %rsp	#,
	.cfi_offset 3, -24
	movq	%rdi, -24(%rbp)	# operands, operands
	movq	%rsi, -32(%rbp)	# insn, insn
	.loc 1 1745 0
	movq	-32(%rbp), %rax	# insn, tmp103
	movq	%rax, %rdi	# tmp103,
	call	get_attr_type	#
	cmpl	$9, %eax	#, D.16649
	je	.L422	#,
	cmpl	$10, %eax	#, D.16649
	je	.L423	#,
	jmp	.L431	#
.L422:
	.loc 1 1748 0
	movq	-24(%rbp), %rax	# operands, tmp104
	leaq	16(%rax), %rdx	#, D.16650
	movq	-32(%rbp), %rax	# insn, tmp105
	movq	32(%rax), %rax	# insn_2(D)->fld[3].rtx, D.16651
	movq	8(%rax), %rax	# _6->fld[0].rtvec, D.16652
	movq	8(%rax), %rax	# _7->elem, D.16651
	movq	16(%rax), %rax	# _8->fld[1].rtx, D.16651
	movq	%rax, (%rdx)	# D.16651, *_5
	.loc 1 1749 0
	movl	$.LC95, %eax	#, D.16648
	jmp	.L424	#
.L423:
	.loc 1 1752 0
	movq	-24(%rbp), %rax	# operands, tmp106
	addq	$8, %rax	#, D.16650
	movq	(%rax), %rdx	# *_11, D.16651
	movq	-24(%rbp), %rax	# operands, tmp107
	movq	(%rax), %rax	# *operands_4(D), D.16651
	movq	%rdx, %rsi	# D.16651,
	movq	%rax, %rdi	# D.16651,
	call	rtx_equal_p	#
	testl	%eax, %eax	# D.16653
	jne	.L425	#,
	.loc 1 1753 0
	movl	$__FUNCTION__.12054, %edx	#,
	movl	$1753, %esi	#,
	movl	$.LC15, %edi	#,
	call	fancy_abort	#
.L425:
	.loc 1 1754 0
	movq	-24(%rbp), %rax	# operands, tmp108
	addq	$16, %rax	#, D.16650
	movq	(%rax), %rdx	# *_15, D.16651
	movq	const_int_rtx+520(%rip), %rax	# const_int_rtx, D.16651
	cmpq	%rax, %rdx	# D.16651, D.16651
	jne	.L426	#,
	.loc 1 1755 0
	movl	$.LC96, %eax	#, D.16648
	jmp	.L424	#
.L426:
	.loc 1 1756 0
	movq	-24(%rbp), %rax	# operands, tmp109
	addq	$16, %rax	#, D.16650
	movq	(%rax), %rdx	# *_19, D.16651
	movq	const_int_rtx+504(%rip), %rax	# const_int_rtx, D.16651
	cmpq	%rax, %rdx	# D.16651, D.16651
	jne	.L427	#,
	.loc 1 1757 0
	movl	$.LC97, %eax	#, D.16648
	jmp	.L424	#
.L427:
	.loc 1 1759 0
	movl	$__FUNCTION__.12054, %edx	#,
	movl	$1759, %esi	#,
	movl	$.LC15, %edi	#,
	call	fancy_abort	#
.L431:
	.loc 1 1762 0
	movq	-24(%rbp), %rax	# operands, tmp110
	addq	$8, %rax	#, D.16650
	movq	(%rax), %rdx	# *_23, D.16651
	movq	-24(%rbp), %rax	# operands, tmp111
	movq	(%rax), %rax	# *operands_4(D), D.16651
	movq	%rdx, %rsi	# D.16651,
	movq	%rax, %rdi	# D.16651,
	call	rtx_equal_p	#
	testl	%eax, %eax	# D.16653
	jne	.L428	#,
	.loc 1 1763 0
	movl	$__FUNCTION__.12054, %edx	#,
	movl	$1763, %esi	#,
	movl	$.LC15, %edi	#,
	call	fancy_abort	#
.L428:
	.loc 1 1767 0
	movq	-24(%rbp), %rax	# operands, tmp112
	addq	$16, %rax	#, D.16650
	movq	(%rax), %rax	# *_27, D.16651
	movzwl	(%rax), %eax	# _28->code, D.16654
	cmpw	$54, %ax	#, D.16654
	jne	.L429	#,
	.loc 1 1769 0
	movq	-24(%rbp), %rax	# operands, tmp113
	addq	$16, %rax	#, D.16650
	movq	(%rax), %rax	# *_30, D.16651
	movq	8(%rax), %rax	# _31->fld[0].rtwint, D.16655
	andl	$2147483647, %eax	#, D.16655
	testq	%rax, %rax	# D.16655
	je	.L429	#,
	.loc 1 1770 0
	movq	-24(%rbp), %rax	# operands, tmp114
	addq	$16, %rax	#, D.16650
	movq	(%rax), %rax	# *_34, D.16651
	movq	8(%rax), %rax	# _35->fld[0].rtwint, D.16655
	cmpq	$128, %rax	#, D.16655
	je	.L430	#,
	.loc 1 1771 0
	movq	-24(%rbp), %rax	# operands, tmp115
	addq	$16, %rax	#, D.16650
	movq	(%rax), %rax	# *_37, D.16651
	movq	8(%rax), %rax	# _38->fld[0].rtwint, D.16655
	testq	%rax, %rax	# D.16655
	jns	.L429	#,
	.loc 1 1772 0
	movq	-24(%rbp), %rax	# operands, tmp116
	addq	$16, %rax	#, D.16650
	movq	(%rax), %rax	# *_40, D.16651
	movq	8(%rax), %rax	# _41->fld[0].rtwint, D.16655
	cmpq	$-128, %rax	#, D.16655
	je	.L429	#,
.L430:
	.loc 1 1774 0
	movq	-24(%rbp), %rax	# operands, tmp117
	leaq	16(%rax), %rbx	#, D.16650
	movq	-24(%rbp), %rax	# operands, tmp118
	addq	$16, %rax	#, D.16650
	movq	(%rax), %rax	# *_44, D.16651
	movq	8(%rax), %rax	# _45->fld[0].rtwint, D.16655
	negq	%rax	# D.16655
	movq	%rax, %rsi	# D.16655,
	movl	$0, %edi	#,
	call	gen_rtx_CONST_INT	#
	movq	%rax, (%rbx)	# D.16651, *_43
	.loc 1 1775 0
	movl	$.LC98, %eax	#, D.16648
	jmp	.L424	#
.L429:
	.loc 1 1777 0
	movl	$.LC99, %eax	#, D.16648
.L424:
	.loc 1 1780 0
	addq	$24, %rsp	#,
	popq	%rbx	#
	popq	%rbp	#
	.cfi_def_cfa 7, 8
	ret
	.cfi_endproc
.LFE71:
	.size	output_202, .-output_202
	.type	output_203, @function
output_203:
.LFB72:
	.loc 1 1788 0
	.cfi_startproc
	pushq	%rbp	#
	.cfi_def_cfa_offset 16
	.cfi_offset 6, -16
	movq	%rsp, %rbp	#,
	.cfi_def_cfa_register 6
	pushq	%rbx	#
	subq	$24, %rsp	#,
	.cfi_offset 3, -24
	movq	%rdi, -24(%rbp)	# operands, operands
	movq	%rsi, -32(%rbp)	# insn, insn
	.loc 1 1790 0
	movq	-32(%rbp), %rax	# insn, tmp98
	movq	%rax, %rdi	# tmp98,
	call	get_attr_type	#
	cmpl	$10, %eax	#, D.16662
	jne	.L442	#,
	.loc 1 1793 0
	movq	-24(%rbp), %rax	# operands, tmp99
	addq	$8, %rax	#, D.16663
	movq	(%rax), %rdx	# *_5, D.16664
	movq	-24(%rbp), %rax	# operands, tmp100
	movq	(%rax), %rax	# *operands_4(D), D.16664
	movq	%rdx, %rsi	# D.16664,
	movq	%rax, %rdi	# D.16664,
	call	rtx_equal_p	#
	testl	%eax, %eax	# D.16665
	jne	.L435	#,
	.loc 1 1794 0
	movl	$__FUNCTION__.12064, %edx	#,
	movl	$1794, %esi	#,
	movl	$.LC15, %edi	#,
	call	fancy_abort	#
.L435:
	.loc 1 1795 0
	movq	-24(%rbp), %rax	# operands, tmp101
	addq	$16, %rax	#, D.16663
	movq	(%rax), %rdx	# *_9, D.16664
	movq	const_int_rtx+520(%rip), %rax	# const_int_rtx, D.16664
	cmpq	%rax, %rdx	# D.16664, D.16664
	jne	.L436	#,
	.loc 1 1796 0
	movl	$.LC96, %eax	#, D.16661
	jmp	.L437	#
.L436:
	.loc 1 1797 0
	movq	-24(%rbp), %rax	# operands, tmp102
	addq	$16, %rax	#, D.16663
	movq	(%rax), %rdx	# *_13, D.16664
	movq	const_int_rtx+504(%rip), %rax	# const_int_rtx, D.16664
	cmpq	%rax, %rdx	# D.16664, D.16664
	jne	.L438	#,
	.loc 1 1798 0
	movl	$.LC97, %eax	#, D.16661
	jmp	.L437	#
.L438:
	.loc 1 1800 0
	movl	$__FUNCTION__.12064, %edx	#,
	movl	$1800, %esi	#,
	movl	$.LC15, %edi	#,
	call	fancy_abort	#
.L442:
	.loc 1 1803 0
	movq	-24(%rbp), %rax	# operands, tmp103
	addq	$8, %rax	#, D.16663
	movq	(%rax), %rdx	# *_17, D.16664
	movq	-24(%rbp), %rax	# operands, tmp104
	movq	(%rax), %rax	# *operands_4(D), D.16664
	movq	%rdx, %rsi	# D.16664,
	movq	%rax, %rdi	# D.16664,
	call	rtx_equal_p	#
	testl	%eax, %eax	# D.16665
	jne	.L439	#,
	.loc 1 1804 0
	movl	$__FUNCTION__.12064, %edx	#,
	movl	$1804, %esi	#,
	movl	$.LC15, %edi	#,
	call	fancy_abort	#
.L439:
	.loc 1 1809 0
	movq	-24(%rbp), %rax	# operands, tmp105
	addq	$16, %rax	#, D.16663
	movq	(%rax), %rax	# *_21, D.16664
	movzwl	(%rax), %eax	# _22->code, D.16666
	cmpw	$54, %ax	#, D.16666
	jne	.L440	#,
	.loc 1 1811 0
	movq	-24(%rbp), %rax	# operands, tmp106
	addq	$16, %rax	#, D.16663
	movq	(%rax), %rax	# *_24, D.16664
	movq	8(%rax), %rax	# _25->fld[0].rtwint, D.16667
	andl	$2147483647, %eax	#, D.16667
	testq	%rax, %rax	# D.16667
	je	.L440	#,
	.loc 1 1812 0
	movq	-24(%rbp), %rax	# operands, tmp107
	addq	$16, %rax	#, D.16663
	movq	(%rax), %rax	# *_28, D.16664
	movq	8(%rax), %rax	# _29->fld[0].rtwint, D.16667
	cmpq	$128, %rax	#, D.16667
	je	.L441	#,
	.loc 1 1813 0
	movq	-24(%rbp), %rax	# operands, tmp108
	addq	$16, %rax	#, D.16663
	movq	(%rax), %rax	# *_31, D.16664
	movq	8(%rax), %rax	# _32->fld[0].rtwint, D.16667
	testq	%rax, %rax	# D.16667
	jns	.L440	#,
	.loc 1 1814 0
	movq	-24(%rbp), %rax	# operands, tmp109
	addq	$16, %rax	#, D.16663
	movq	(%rax), %rax	# *_34, D.16664
	movq	8(%rax), %rax	# _35->fld[0].rtwint, D.16667
	cmpq	$-128, %rax	#, D.16667
	je	.L440	#,
.L441:
	.loc 1 1816 0
	movq	-24(%rbp), %rax	# operands, tmp110
	leaq	16(%rax), %rbx	#, D.16663
	movq	-24(%rbp), %rax	# operands, tmp111
	addq	$16, %rax	#, D.16663
	movq	(%rax), %rax	# *_38, D.16664
	movq	8(%rax), %rax	# _39->fld[0].rtwint, D.16667
	negq	%rax	# D.16667
	movq	%rax, %rsi	# D.16667,
	movl	$0, %edi	#,
	call	gen_rtx_CONST_INT	#
	movq	%rax, (%rbx)	# D.16664, *_37
	.loc 1 1817 0
	movl	$.LC98, %eax	#, D.16661
	jmp	.L437	#
.L440:
	.loc 1 1819 0
	movl	$.LC99, %eax	#, D.16661
.L437:
	.loc 1 1822 0
	addq	$24, %rsp	#,
	popq	%rbx	#
	popq	%rbp	#
	.cfi_def_cfa 7, 8
	ret
	.cfi_endproc
.LFE72:
	.size	output_203, .-output_203
	.type	output_204, @function
output_204:
.LFB73:
	.loc 1 1830 0
	.cfi_startproc
	pushq	%rbp	#
	.cfi_def_cfa_offset 16
	.cfi_offset 6, -16
	movq	%rsp, %rbp	#,
	.cfi_def_cfa_register 6
	pushq	%rbx	#
	subq	$24, %rsp	#,
	.cfi_offset 3, -24
	movq	%rdi, -24(%rbp)	# operands, operands
	movq	%rsi, -32(%rbp)	# insn, insn
	.loc 1 1832 0
	movq	-32(%rbp), %rax	# insn, tmp98
	movq	%rax, %rdi	# tmp98,
	call	get_attr_type	#
	cmpl	$10, %eax	#, D.16669
	jne	.L453	#,
	.loc 1 1835 0
	movq	-24(%rbp), %rax	# operands, tmp99
	addq	$8, %rax	#, D.16670
	movq	(%rax), %rdx	# *_5, D.16671
	movq	-24(%rbp), %rax	# operands, tmp100
	movq	(%rax), %rax	# *operands_4(D), D.16671
	movq	%rdx, %rsi	# D.16671,
	movq	%rax, %rdi	# D.16671,
	call	rtx_equal_p	#
	testl	%eax, %eax	# D.16672
	jne	.L446	#,
	.loc 1 1836 0
	movl	$__FUNCTION__.12074, %edx	#,
	movl	$1836, %esi	#,
	movl	$.LC15, %edi	#,
	call	fancy_abort	#
.L446:
	.loc 1 1837 0
	movq	-24(%rbp), %rax	# operands, tmp101
	addq	$16, %rax	#, D.16670
	movq	(%rax), %rdx	# *_9, D.16671
	movq	const_int_rtx+520(%rip), %rax	# const_int_rtx, D.16671
	cmpq	%rax, %rdx	# D.16671, D.16671
	jne	.L447	#,
	.loc 1 1838 0
	movl	$.LC96, %eax	#, D.16668
	jmp	.L448	#
.L447:
	.loc 1 1839 0
	movq	-24(%rbp), %rax	# operands, tmp102
	addq	$16, %rax	#, D.16670
	movq	(%rax), %rdx	# *_13, D.16671
	movq	const_int_rtx+504(%rip), %rax	# const_int_rtx, D.16671
	cmpq	%rax, %rdx	# D.16671, D.16671
	jne	.L449	#,
	.loc 1 1840 0
	movl	$.LC97, %eax	#, D.16668
	jmp	.L448	#
.L449:
	.loc 1 1842 0
	movl	$__FUNCTION__.12074, %edx	#,
	movl	$1842, %esi	#,
	movl	$.LC15, %edi	#,
	call	fancy_abort	#
.L453:
	.loc 1 1845 0
	movq	-24(%rbp), %rax	# operands, tmp103
	addq	$8, %rax	#, D.16670
	movq	(%rax), %rdx	# *_17, D.16671
	movq	-24(%rbp), %rax	# operands, tmp104
	movq	(%rax), %rax	# *operands_4(D), D.16671
	movq	%rdx, %rsi	# D.16671,
	movq	%rax, %rdi	# D.16671,
	call	rtx_equal_p	#
	testl	%eax, %eax	# D.16672
	jne	.L450	#,
	.loc 1 1846 0
	movl	$__FUNCTION__.12074, %edx	#,
	movl	$1846, %esi	#,
	movl	$.LC15, %edi	#,
	call	fancy_abort	#
.L450:
	.loc 1 1851 0
	movq	-24(%rbp), %rax	# operands, tmp105
	addq	$16, %rax	#, D.16670
	movq	(%rax), %rax	# *_21, D.16671
	movzwl	(%rax), %eax	# _22->code, D.16673
	cmpw	$54, %ax	#, D.16673
	jne	.L451	#,
	.loc 1 1853 0
	movq	-24(%rbp), %rax	# operands, tmp106
	addq	$16, %rax	#, D.16670
	movq	(%rax), %rax	# *_24, D.16671
	movq	8(%rax), %rax	# _25->fld[0].rtwint, D.16674
	andl	$2147483647, %eax	#, D.16674
	testq	%rax, %rax	# D.16674
	je	.L451	#,
	.loc 1 1854 0
	movq	-24(%rbp), %rax	# operands, tmp107
	addq	$16, %rax	#, D.16670
	movq	(%rax), %rax	# *_28, D.16671
	movq	8(%rax), %rax	# _29->fld[0].rtwint, D.16674
	cmpq	$128, %rax	#, D.16674
	je	.L452	#,
	.loc 1 1855 0
	movq	-24(%rbp), %rax	# operands, tmp108
	addq	$16, %rax	#, D.16670
	movq	(%rax), %rax	# *_31, D.16671
	movq	8(%rax), %rax	# _32->fld[0].rtwint, D.16674
	testq	%rax, %rax	# D.16674
	jns	.L451	#,
	.loc 1 1856 0
	movq	-24(%rbp), %rax	# operands, tmp109
	addq	$16, %rax	#, D.16670
	movq	(%rax), %rax	# *_34, D.16671
	movq	8(%rax), %rax	# _35->fld[0].rtwint, D.16674
	cmpq	$-128, %rax	#, D.16674
	je	.L451	#,
.L452:
	.loc 1 1858 0
	movq	-24(%rbp), %rax	# operands, tmp110
	leaq	16(%rax), %rbx	#, D.16670
	movq	-24(%rbp), %rax	# operands, tmp111
	addq	$16, %rax	#, D.16670
	movq	(%rax), %rax	# *_38, D.16671
	movq	8(%rax), %rax	# _39->fld[0].rtwint, D.16674
	negq	%rax	# D.16674
	movq	%rax, %rsi	# D.16674,
	movl	$0, %edi	#,
	call	gen_rtx_CONST_INT	#
	movq	%rax, (%rbx)	# D.16671, *_37
	.loc 1 1859 0
	movl	$.LC98, %eax	#, D.16668
	jmp	.L448	#
.L451:
	.loc 1 1861 0
	movl	$.LC99, %eax	#, D.16668
.L448:
	.loc 1 1864 0
	addq	$24, %rsp	#,
	popq	%rbx	#
	popq	%rbp	#
	.cfi_def_cfa 7, 8
	ret
	.cfi_endproc
.LFE73:
	.size	output_204, .-output_204
	.type	output_205, @function
output_205:
.LFB74:
	.loc 1 1872 0
	.cfi_startproc
	pushq	%rbp	#
	.cfi_def_cfa_offset 16
	.cfi_offset 6, -16
	movq	%rsp, %rbp	#,
	.cfi_def_cfa_register 6
	pushq	%rbx	#
	subq	$24, %rsp	#,
	.cfi_offset 3, -24
	movq	%rdi, -24(%rbp)	# operands, operands
	movq	%rsi, -32(%rbp)	# insn, insn
	.loc 1 1874 0
	movq	-32(%rbp), %rax	# insn, tmp91
	movq	%rax, %rdi	# tmp91,
	call	get_attr_type	#
	cmpl	$10, %eax	#, D.16676
	jne	.L463	#,
	.loc 1 1877 0
	movq	-24(%rbp), %rax	# operands, tmp92
	addq	$16, %rax	#, D.16677
	movq	(%rax), %rdx	# *_5, D.16678
	movq	const_int_rtx+504(%rip), %rax	# const_int_rtx, D.16678
	cmpq	%rax, %rdx	# D.16678, D.16678
	jne	.L457	#,
	.loc 1 1878 0
	movl	$.LC96, %eax	#, D.16675
	jmp	.L458	#
.L457:
	.loc 1 1879 0
	movq	-24(%rbp), %rax	# operands, tmp93
	addq	$16, %rax	#, D.16677
	movq	(%rax), %rdx	# *_9, D.16678
	movq	const_int_rtx+520(%rip), %rax	# const_int_rtx, D.16678
	cmpq	%rax, %rdx	# D.16678, D.16678
	jne	.L459	#,
	.loc 1 1880 0
	movl	$.LC97, %eax	#, D.16675
	jmp	.L458	#
.L459:
	.loc 1 1882 0
	movl	$__FUNCTION__.12084, %edx	#,
	movl	$1882, %esi	#,
	movl	$.LC15, %edi	#,
	call	fancy_abort	#
.L463:
	.loc 1 1885 0
	movq	-24(%rbp), %rax	# operands, tmp94
	addq	$8, %rax	#, D.16677
	movq	(%rax), %rdx	# *_13, D.16678
	movq	-24(%rbp), %rax	# operands, tmp95
	movq	(%rax), %rax	# *operands_4(D), D.16678
	movq	%rdx, %rsi	# D.16678,
	movq	%rax, %rdi	# D.16678,
	call	rtx_equal_p	#
	testl	%eax, %eax	# D.16679
	jne	.L460	#,
	.loc 1 1886 0
	movl	$__FUNCTION__.12084, %edx	#,
	movl	$1886, %esi	#,
	movl	$.LC15, %edi	#,
	call	fancy_abort	#
.L460:
	.loc 1 1889 0
	movq	-24(%rbp), %rax	# operands, tmp96
	addq	$16, %rax	#, D.16677
	movq	(%rax), %rax	# *_17, D.16678
	movq	8(%rax), %rax	# _18->fld[0].rtwint, D.16680
	cmpq	$-128, %rax	#, D.16680
	je	.L461	#,
	.loc 1 1890 0
	movq	-24(%rbp), %rax	# operands, tmp97
	addq	$16, %rax	#, D.16677
	movq	(%rax), %rax	# *_20, D.16678
	movq	8(%rax), %rax	# _21->fld[0].rtwint, D.16680
	testq	%rax, %rax	# D.16680
	jle	.L462	#,
	.loc 1 1891 0
	movq	-24(%rbp), %rax	# operands, tmp98
	addq	$16, %rax	#, D.16677
	movq	(%rax), %rax	# *_23, D.16678
	movq	8(%rax), %rax	# _24->fld[0].rtwint, D.16680
	cmpq	$128, %rax	#, D.16680
	je	.L462	#,
.L461:
	.loc 1 1893 0
	movq	-24(%rbp), %rax	# operands, tmp99
	addq	$16, %rax	#, D.16677
	movq	(%rax), %rax	# *_26, D.16678
	movq	8(%rax), %rax	# _27->fld[0].rtwint, D.16680
	andl	$2147483647, %eax	#, D.16680
	testq	%rax, %rax	# D.16680
	je	.L462	#,
	.loc 1 1894 0
	movl	$.LC98, %eax	#, D.16675
	jmp	.L458	#
.L462:
	.loc 1 1895 0
	movq	-24(%rbp), %rax	# operands, tmp100
	leaq	16(%rax), %rbx	#, D.16677
	movq	-24(%rbp), %rax	# operands, tmp101
	addq	$16, %rax	#, D.16677
	movq	(%rax), %rax	# *_32, D.16678
	movq	8(%rax), %rax	# _33->fld[0].rtwint, D.16680
	negq	%rax	# D.16680
	movq	%rax, %rsi	# D.16680,
	movl	$0, %edi	#,
	call	gen_rtx_CONST_INT	#
	movq	%rax, (%rbx)	# D.16678, *_31
	.loc 1 1896 0
	movl	$.LC99, %eax	#, D.16675
.L458:
	.loc 1 1899 0
	addq	$24, %rsp	#,
	popq	%rbx	#
	popq	%rbp	#
	.cfi_def_cfa 7, 8
	ret
	.cfi_endproc
.LFE74:
	.size	output_205, .-output_205
	.type	output_206, @function
output_206:
.LFB75:
	.loc 1 1907 0
	.cfi_startproc
	pushq	%rbp	#
	.cfi_def_cfa_offset 16
	.cfi_offset 6, -16
	movq	%rsp, %rbp	#,
	.cfi_def_cfa_register 6
	pushq	%rbx	#
	subq	$24, %rsp	#,
	.cfi_offset 3, -24
	movq	%rdi, -24(%rbp)	# operands, operands
	movq	%rsi, -32(%rbp)	# insn, insn
	.loc 1 1909 0
	movq	-32(%rbp), %rax	# insn, tmp98
	movq	%rax, %rdi	# tmp98,
	call	get_attr_type	#
	cmpl	$10, %eax	#, D.16682
	jne	.L474	#,
	.loc 1 1912 0
	movq	-24(%rbp), %rax	# operands, tmp99
	addq	$8, %rax	#, D.16683
	movq	(%rax), %rdx	# *_5, D.16684
	movq	-24(%rbp), %rax	# operands, tmp100
	movq	(%rax), %rax	# *operands_4(D), D.16684
	movq	%rdx, %rsi	# D.16684,
	movq	%rax, %rdi	# D.16684,
	call	rtx_equal_p	#
	testl	%eax, %eax	# D.16685
	jne	.L467	#,
	.loc 1 1913 0
	movl	$__FUNCTION__.12094, %edx	#,
	movl	$1913, %esi	#,
	movl	$.LC15, %edi	#,
	call	fancy_abort	#
.L467:
	.loc 1 1914 0
	movq	-24(%rbp), %rax	# operands, tmp101
	addq	$16, %rax	#, D.16683
	movq	(%rax), %rdx	# *_9, D.16684
	movq	const_int_rtx+520(%rip), %rax	# const_int_rtx, D.16684
	cmpq	%rax, %rdx	# D.16684, D.16684
	jne	.L468	#,
	.loc 1 1915 0
	movl	$.LC96, %eax	#, D.16681
	jmp	.L469	#
.L468:
	.loc 1 1916 0
	movq	-24(%rbp), %rax	# operands, tmp102
	addq	$16, %rax	#, D.16683
	movq	(%rax), %rdx	# *_13, D.16684
	movq	const_int_rtx+504(%rip), %rax	# const_int_rtx, D.16684
	cmpq	%rax, %rdx	# D.16684, D.16684
	jne	.L470	#,
	.loc 1 1917 0
	movl	$.LC97, %eax	#, D.16681
	jmp	.L469	#
.L470:
	.loc 1 1919 0
	movl	$__FUNCTION__.12094, %edx	#,
	movl	$1919, %esi	#,
	movl	$.LC15, %edi	#,
	call	fancy_abort	#
.L474:
	.loc 1 1922 0
	movq	-24(%rbp), %rax	# operands, tmp103
	addq	$8, %rax	#, D.16683
	movq	(%rax), %rdx	# *_17, D.16684
	movq	-24(%rbp), %rax	# operands, tmp104
	movq	(%rax), %rax	# *operands_4(D), D.16684
	movq	%rdx, %rsi	# D.16684,
	movq	%rax, %rdi	# D.16684,
	call	rtx_equal_p	#
	testl	%eax, %eax	# D.16685
	jne	.L471	#,
	.loc 1 1923 0
	movl	$__FUNCTION__.12094, %edx	#,
	movl	$1923, %esi	#,
	movl	$.LC15, %edi	#,
	call	fancy_abort	#
.L471:
	.loc 1 1926 0
	movq	-24(%rbp), %rax	# operands, tmp105
	addq	$16, %rax	#, D.16683
	movq	(%rax), %rax	# *_21, D.16684
	movzwl	(%rax), %eax	# _22->code, D.16686
	cmpw	$54, %ax	#, D.16686
	jne	.L472	#,
	.loc 1 1928 0
	movq	-24(%rbp), %rax	# operands, tmp106
	addq	$16, %rax	#, D.16683
	movq	(%rax), %rax	# *_24, D.16684
	movq	8(%rax), %rax	# _25->fld[0].rtwint, D.16687
	andl	$2147483647, %eax	#, D.16687
	testq	%rax, %rax	# D.16687
	je	.L472	#,
	.loc 1 1929 0
	movq	-24(%rbp), %rax	# operands, tmp107
	addq	$16, %rax	#, D.16683
	movq	(%rax), %rax	# *_28, D.16684
	movq	8(%rax), %rax	# _29->fld[0].rtwint, D.16687
	cmpq	$128, %rax	#, D.16687
	je	.L473	#,
	.loc 1 1930 0
	movq	-24(%rbp), %rax	# operands, tmp108
	addq	$16, %rax	#, D.16683
	movq	(%rax), %rax	# *_31, D.16684
	movq	8(%rax), %rax	# _32->fld[0].rtwint, D.16687
	testq	%rax, %rax	# D.16687
	jns	.L472	#,
	.loc 1 1931 0
	movq	-24(%rbp), %rax	# operands, tmp109
	addq	$16, %rax	#, D.16683
	movq	(%rax), %rax	# *_34, D.16684
	movq	8(%rax), %rax	# _35->fld[0].rtwint, D.16687
	cmpq	$-128, %rax	#, D.16687
	je	.L472	#,
.L473:
	.loc 1 1933 0
	movq	-24(%rbp), %rax	# operands, tmp110
	leaq	16(%rax), %rbx	#, D.16683
	movq	-24(%rbp), %rax	# operands, tmp111
	addq	$16, %rax	#, D.16683
	movq	(%rax), %rax	# *_38, D.16684
	movq	8(%rax), %rax	# _39->fld[0].rtwint, D.16687
	negq	%rax	# D.16687
	movq	%rax, %rsi	# D.16687,
	movl	$0, %edi	#,
	call	gen_rtx_CONST_INT	#
	movq	%rax, (%rbx)	# D.16684, *_37
	.loc 1 1934 0
	movl	$.LC98, %eax	#, D.16681
	jmp	.L469	#
.L472:
	.loc 1 1936 0
	movl	$.LC99, %eax	#, D.16681
.L469:
	.loc 1 1939 0
	addq	$24, %rsp	#,
	popq	%rbx	#
	popq	%rbp	#
	.cfi_def_cfa 7, 8
	ret
	.cfi_endproc
.LFE75:
	.size	output_206, .-output_206
	.section	.rodata
.LC100:
	.string	"lea{l}\t{%a2, %0|%0, %a2}"
.LC101:
	.string	"inc{l}\t%0"
.LC102:
	.string	"dec{l}\t%0"
.LC103:
	.string	"sub{l}\t{%2, %0|%0, %2}"
.LC104:
	.string	"add{l}\t{%2, %0|%0, %2}"
	.text
	.type	output_207, @function
output_207:
.LFB76:
	.loc 1 1947 0
	.cfi_startproc
	pushq	%rbp	#
	.cfi_def_cfa_offset 16
	.cfi_offset 6, -16
	movq	%rsp, %rbp	#,
	.cfi_def_cfa_register 6
	pushq	%rbx	#
	subq	$24, %rsp	#,
	.cfi_offset 3, -24
	movq	%rdi, -24(%rbp)	# operands, operands
	movq	%rsi, -32(%rbp)	# insn, insn
	.loc 1 1949 0
	movq	-32(%rbp), %rax	# insn, tmp99
	movq	%rax, %rdi	# tmp99,
	call	get_attr_type	#
	cmpl	$9, %eax	#, D.16689
	je	.L477	#,
	cmpl	$10, %eax	#, D.16689
	je	.L478	#,
	jmp	.L486	#
.L477:
	.loc 1 1952 0
	movq	-24(%rbp), %rax	# operands, tmp100
	leaq	16(%rax), %rdx	#, D.16690
	movq	-32(%rbp), %rax	# insn, tmp101
	movq	32(%rax), %rax	# insn_2(D)->fld[3].rtx, D.16691
	movq	8(%rax), %rax	# _6->fld[0].rtvec, D.16692
	movq	8(%rax), %rax	# _7->elem, D.16691
	movq	16(%rax), %rax	# _8->fld[1].rtx, D.16691
	movq	%rax, (%rdx)	# D.16691, *_5
	.loc 1 1953 0
	movl	$.LC100, %eax	#, D.16688
	jmp	.L479	#
.L478:
	.loc 1 1956 0
	movq	-24(%rbp), %rax	# operands, tmp102
	addq	$8, %rax	#, D.16690
	movq	(%rax), %rdx	# *_11, D.16691
	movq	-24(%rbp), %rax	# operands, tmp103
	movq	(%rax), %rax	# *operands_4(D), D.16691
	movq	%rdx, %rsi	# D.16691,
	movq	%rax, %rdi	# D.16691,
	call	rtx_equal_p	#
	testl	%eax, %eax	# D.16693
	jne	.L480	#,
	.loc 1 1957 0
	movl	$__FUNCTION__.12105, %edx	#,
	movl	$1957, %esi	#,
	movl	$.LC15, %edi	#,
	call	fancy_abort	#
.L480:
	.loc 1 1958 0
	movq	-24(%rbp), %rax	# operands, tmp104
	addq	$16, %rax	#, D.16690
	movq	(%rax), %rdx	# *_15, D.16691
	movq	const_int_rtx+520(%rip), %rax	# const_int_rtx, D.16691
	cmpq	%rax, %rdx	# D.16691, D.16691
	jne	.L481	#,
	.loc 1 1959 0
	movl	$.LC101, %eax	#, D.16688
	jmp	.L479	#
.L481:
	.loc 1 1960 0
	movq	-24(%rbp), %rax	# operands, tmp105
	addq	$16, %rax	#, D.16690
	movq	(%rax), %rdx	# *_19, D.16691
	movq	const_int_rtx+504(%rip), %rax	# const_int_rtx, D.16691
	cmpq	%rax, %rdx	# D.16691, D.16691
	jne	.L482	#,
	.loc 1 1961 0
	movl	$.LC102, %eax	#, D.16688
	jmp	.L479	#
.L482:
	.loc 1 1963 0
	movl	$__FUNCTION__.12105, %edx	#,
	movl	$1963, %esi	#,
	movl	$.LC15, %edi	#,
	call	fancy_abort	#
.L486:
	.loc 1 1966 0
	movq	-24(%rbp), %rax	# operands, tmp106
	addq	$8, %rax	#, D.16690
	movq	(%rax), %rdx	# *_23, D.16691
	movq	-24(%rbp), %rax	# operands, tmp107
	movq	(%rax), %rax	# *operands_4(D), D.16691
	movq	%rdx, %rsi	# D.16691,
	movq	%rax, %rdi	# D.16691,
	call	rtx_equal_p	#
	testl	%eax, %eax	# D.16693
	jne	.L483	#,
	.loc 1 1967 0
	movl	$__FUNCTION__.12105, %edx	#,
	movl	$1967, %esi	#,
	movl	$.LC15, %edi	#,
	call	fancy_abort	#
.L483:
	.loc 1 1971 0
	movq	-24(%rbp), %rax	# operands, tmp108
	addq	$16, %rax	#, D.16690
	movq	(%rax), %rax	# *_27, D.16691
	movzwl	(%rax), %eax	# _28->code, D.16694
	cmpw	$54, %ax	#, D.16694
	jne	.L484	#,
	.loc 1 1972 0
	movq	-24(%rbp), %rax	# operands, tmp109
	addq	$16, %rax	#, D.16690
	movq	(%rax), %rax	# *_30, D.16691
	movq	8(%rax), %rax	# _31->fld[0].rtwint, D.16695
	cmpq	$128, %rax	#, D.16695
	je	.L485	#,
	.loc 1 1973 0
	movq	-24(%rbp), %rax	# operands, tmp110
	addq	$16, %rax	#, D.16690
	movq	(%rax), %rax	# *_33, D.16691
	movq	8(%rax), %rax	# _34->fld[0].rtwint, D.16695
	testq	%rax, %rax	# D.16695
	jns	.L484	#,
	.loc 1 1974 0
	movq	-24(%rbp), %rax	# operands, tmp111
	addq	$16, %rax	#, D.16690
	movq	(%rax), %rax	# *_36, D.16691
	movq	8(%rax), %rax	# _37->fld[0].rtwint, D.16695
	cmpq	$-128, %rax	#, D.16695
	je	.L484	#,
.L485:
	.loc 1 1976 0
	movq	-24(%rbp), %rax	# operands, tmp112
	leaq	16(%rax), %rbx	#, D.16690
	movq	-24(%rbp), %rax	# operands, tmp113
	addq	$16, %rax	#, D.16690
	movq	(%rax), %rax	# *_40, D.16691
	movq	8(%rax), %rax	# _41->fld[0].rtwint, D.16695
	negq	%rax	# D.16695
	movq	%rax, %rsi	# D.16695,
	movl	$0, %edi	#,
	call	gen_rtx_CONST_INT	#
	movq	%rax, (%rbx)	# D.16691, *_39
	.loc 1 1977 0
	movl	$.LC103, %eax	#, D.16688
	jmp	.L479	#
.L484:
	.loc 1 1979 0
	movl	$.LC104, %eax	#, D.16688
.L479:
	.loc 1 1982 0
	addq	$24, %rsp	#,
	popq	%rbx	#
	popq	%rbp	#
	.cfi_def_cfa 7, 8
	ret
	.cfi_endproc
.LFE76:
	.size	output_207, .-output_207
	.section	.rodata
.LC105:
	.string	"lea{l}\t{%a2, %k0|%k0, %a2}"
.LC106:
	.string	"inc{l}\t%k0"
.LC107:
	.string	"dec{l}\t%k0"
.LC108:
	.string	"sub{l}\t{%2, %k0|%k0, %2}"
.LC109:
	.string	"add{l}\t{%2, %k0|%k0, %2}"
	.text
	.type	output_208, @function
output_208:
.LFB77:
	.loc 1 1990 0
	.cfi_startproc
	pushq	%rbp	#
	.cfi_def_cfa_offset 16
	.cfi_offset 6, -16
	movq	%rsp, %rbp	#,
	.cfi_def_cfa_register 6
	pushq	%rbx	#
	subq	$24, %rsp	#,
	.cfi_offset 3, -24
	movq	%rdi, -24(%rbp)	# operands, operands
	movq	%rsi, -32(%rbp)	# insn, insn
	.loc 1 1992 0
	movq	-32(%rbp), %rax	# insn, tmp91
	movq	%rax, %rdi	# tmp91,
	call	get_attr_type	#
	cmpl	$9, %eax	#, D.16702
	je	.L489	#,
	cmpl	$10, %eax	#, D.16702
	je	.L490	#,
	jmp	.L496	#
.L489:
	.loc 1 1995 0
	movq	-24(%rbp), %rax	# operands, tmp92
	leaq	16(%rax), %rdx	#, D.16703
	movq	-32(%rbp), %rax	# insn, tmp93
	movq	32(%rax), %rax	# insn_2(D)->fld[3].rtx, D.16704
	movq	8(%rax), %rax	# _6->fld[0].rtvec, D.16705
	movq	8(%rax), %rax	# _7->elem, D.16704
	movq	16(%rax), %rax	# _8->fld[1].rtx, D.16704
	movq	%rax, (%rdx)	# D.16704, *_5
	.loc 1 1996 0
	movl	$.LC105, %eax	#, D.16701
	jmp	.L491	#
.L490:
	.loc 1 1999 0
	movq	-24(%rbp), %rax	# operands, tmp94
	addq	$16, %rax	#, D.16703
	movq	(%rax), %rdx	# *_11, D.16704
	movq	const_int_rtx+520(%rip), %rax	# const_int_rtx, D.16704
	cmpq	%rax, %rdx	# D.16704, D.16704
	jne	.L492	#,
	.loc 1 2000 0
	movl	$.LC106, %eax	#, D.16701
	jmp	.L491	#
.L492:
	.loc 1 2001 0
	movq	-24(%rbp), %rax	# operands, tmp95
	addq	$16, %rax	#, D.16703
	movq	(%rax), %rdx	# *_15, D.16704
	movq	const_int_rtx+504(%rip), %rax	# const_int_rtx, D.16704
	cmpq	%rax, %rdx	# D.16704, D.16704
	jne	.L493	#,
	.loc 1 2002 0
	movl	$.LC107, %eax	#, D.16701
	jmp	.L491	#
.L493:
	.loc 1 2004 0
	movl	$__FUNCTION__.12116, %edx	#,
	movl	$2004, %esi	#,
	movl	$.LC15, %edi	#,
	call	fancy_abort	#
.L496:
	.loc 1 2009 0
	movq	-24(%rbp), %rax	# operands, tmp96
	addq	$16, %rax	#, D.16703
	movq	(%rax), %rax	# *_19, D.16704
	movzwl	(%rax), %eax	# _20->code, D.16706
	cmpw	$54, %ax	#, D.16706
	jne	.L494	#,
	.loc 1 2010 0
	movq	-24(%rbp), %rax	# operands, tmp97
	addq	$16, %rax	#, D.16703
	movq	(%rax), %rax	# *_22, D.16704
	movq	8(%rax), %rax	# _23->fld[0].rtwint, D.16707
	cmpq	$128, %rax	#, D.16707
	je	.L495	#,
	.loc 1 2011 0
	movq	-24(%rbp), %rax	# operands, tmp98
	addq	$16, %rax	#, D.16703
	movq	(%rax), %rax	# *_25, D.16704
	movq	8(%rax), %rax	# _26->fld[0].rtwint, D.16707
	testq	%rax, %rax	# D.16707
	jns	.L494	#,
	.loc 1 2012 0
	movq	-24(%rbp), %rax	# operands, tmp99
	addq	$16, %rax	#, D.16703
	movq	(%rax), %rax	# *_28, D.16704
	movq	8(%rax), %rax	# _29->fld[0].rtwint, D.16707
	cmpq	$-128, %rax	#, D.16707
	je	.L494	#,
.L495:
	.loc 1 2014 0
	movq	-24(%rbp), %rax	# operands, tmp100
	leaq	16(%rax), %rbx	#, D.16703
	movq	-24(%rbp), %rax	# operands, tmp101
	addq	$16, %rax	#, D.16703
	movq	(%rax), %rax	# *_32, D.16704
	movq	8(%rax), %rax	# _33->fld[0].rtwint, D.16707
	negq	%rax	# D.16707
	movq	%rax, %rsi	# D.16707,
	movl	$0, %edi	#,
	call	gen_rtx_CONST_INT	#
	movq	%rax, (%rbx)	# D.16704, *_31
	.loc 1 2015 0
	movl	$.LC108, %eax	#, D.16701
	jmp	.L491	#
.L494:
	.loc 1 2017 0
	movl	$.LC109, %eax	#, D.16701
.L491:
	.loc 1 2020 0
	addq	$24, %rsp	#,
	popq	%rbx	#
	popq	%rbp	#
	.cfi_def_cfa 7, 8
	ret
	.cfi_endproc
.LFE77:
	.size	output_208, .-output_208
	.type	output_209, @function
output_209:
.LFB78:
	.loc 1 2028 0
	.cfi_startproc
	pushq	%rbp	#
	.cfi_def_cfa_offset 16
	.cfi_offset 6, -16
	movq	%rsp, %rbp	#,
	.cfi_def_cfa_register 6
	pushq	%rbx	#
	subq	$24, %rsp	#,
	.cfi_offset 3, -24
	movq	%rdi, -24(%rbp)	# operands, operands
	movq	%rsi, -32(%rbp)	# insn, insn
	.loc 1 2030 0
	movq	-32(%rbp), %rax	# insn, tmp94
	movq	%rax, %rdi	# tmp94,
	call	get_attr_type	#
	cmpl	$10, %eax	#, D.16714
	jne	.L507	#,
	.loc 1 2033 0
	movq	-24(%rbp), %rax	# operands, tmp95
	addq	$8, %rax	#, D.16715
	movq	(%rax), %rdx	# *_5, D.16716
	movq	-24(%rbp), %rax	# operands, tmp96
	movq	(%rax), %rax	# *operands_4(D), D.16716
	movq	%rdx, %rsi	# D.16716,
	movq	%rax, %rdi	# D.16716,
	call	rtx_equal_p	#
	testl	%eax, %eax	# D.16717
	jne	.L500	#,
	.loc 1 2034 0
	movl	$__FUNCTION__.12126, %edx	#,
	movl	$2034, %esi	#,
	movl	$.LC15, %edi	#,
	call	fancy_abort	#
.L500:
	.loc 1 2035 0
	movq	-24(%rbp), %rax	# operands, tmp97
	addq	$16, %rax	#, D.16715
	movq	(%rax), %rdx	# *_9, D.16716
	movq	const_int_rtx+520(%rip), %rax	# const_int_rtx, D.16716
	cmpq	%rax, %rdx	# D.16716, D.16716
	jne	.L501	#,
	.loc 1 2036 0
	movl	$.LC101, %eax	#, D.16713
	jmp	.L502	#
.L501:
	.loc 1 2037 0
	movq	-24(%rbp), %rax	# operands, tmp98
	addq	$16, %rax	#, D.16715
	movq	(%rax), %rdx	# *_13, D.16716
	movq	const_int_rtx+504(%rip), %rax	# const_int_rtx, D.16716
	cmpq	%rax, %rdx	# D.16716, D.16716
	jne	.L503	#,
	.loc 1 2038 0
	movl	$.LC102, %eax	#, D.16713
	jmp	.L502	#
.L503:
	.loc 1 2040 0
	movl	$__FUNCTION__.12126, %edx	#,
	movl	$2040, %esi	#,
	movl	$.LC15, %edi	#,
	call	fancy_abort	#
.L507:
	.loc 1 2043 0
	movq	-24(%rbp), %rax	# operands, tmp99
	addq	$8, %rax	#, D.16715
	movq	(%rax), %rdx	# *_17, D.16716
	movq	-24(%rbp), %rax	# operands, tmp100
	movq	(%rax), %rax	# *operands_4(D), D.16716
	movq	%rdx, %rsi	# D.16716,
	movq	%rax, %rdi	# D.16716,
	call	rtx_equal_p	#
	testl	%eax, %eax	# D.16717
	jne	.L504	#,
	.loc 1 2044 0
	movl	$__FUNCTION__.12126, %edx	#,
	movl	$2044, %esi	#,
	movl	$.LC15, %edi	#,
	call	fancy_abort	#
.L504:
	.loc 1 2047 0
	movq	-24(%rbp), %rax	# operands, tmp101
	addq	$16, %rax	#, D.16715
	movq	(%rax), %rax	# *_21, D.16716
	movzwl	(%rax), %eax	# _22->code, D.16718
	cmpw	$54, %ax	#, D.16718
	jne	.L505	#,
	.loc 1 2048 0
	movq	-24(%rbp), %rax	# operands, tmp102
	addq	$16, %rax	#, D.16715
	movq	(%rax), %rax	# *_24, D.16716
	movq	8(%rax), %rax	# _25->fld[0].rtwint, D.16719
	cmpq	$128, %rax	#, D.16719
	je	.L506	#,
	.loc 1 2049 0
	movq	-24(%rbp), %rax	# operands, tmp103
	addq	$16, %rax	#, D.16715
	movq	(%rax), %rax	# *_27, D.16716
	movq	8(%rax), %rax	# _28->fld[0].rtwint, D.16719
	testq	%rax, %rax	# D.16719
	jns	.L505	#,
	.loc 1 2050 0
	movq	-24(%rbp), %rax	# operands, tmp104
	addq	$16, %rax	#, D.16715
	movq	(%rax), %rax	# *_30, D.16716
	movq	8(%rax), %rax	# _31->fld[0].rtwint, D.16719
	cmpq	$-128, %rax	#, D.16719
	je	.L505	#,
.L506:
	.loc 1 2052 0
	movq	-24(%rbp), %rax	# operands, tmp105
	leaq	16(%rax), %rbx	#, D.16715
	movq	-24(%rbp), %rax	# operands, tmp106
	addq	$16, %rax	#, D.16715
	movq	(%rax), %rax	# *_34, D.16716
	movq	8(%rax), %rax	# _35->fld[0].rtwint, D.16719
	negq	%rax	# D.16719
	movq	%rax, %rsi	# D.16719,
	movl	$0, %edi	#,
	call	gen_rtx_CONST_INT	#
	movq	%rax, (%rbx)	# D.16716, *_33
	.loc 1 2053 0
	movl	$.LC103, %eax	#, D.16713
	jmp	.L502	#
.L505:
	.loc 1 2055 0
	movl	$.LC104, %eax	#, D.16713
.L502:
	.loc 1 2058 0
	addq	$24, %rsp	#,
	popq	%rbx	#
	popq	%rbp	#
	.cfi_def_cfa 7, 8
	ret
	.cfi_endproc
.LFE78:
	.size	output_209, .-output_209
	.type	output_210, @function
output_210:
.LFB79:
	.loc 1 2066 0
	.cfi_startproc
	pushq	%rbp	#
	.cfi_def_cfa_offset 16
	.cfi_offset 6, -16
	movq	%rsp, %rbp	#,
	.cfi_def_cfa_register 6
	pushq	%rbx	#
	subq	$24, %rsp	#,
	.cfi_offset 3, -24
	movq	%rdi, -24(%rbp)	# operands, operands
	movq	%rsi, -32(%rbp)	# insn, insn
	.loc 1 2068 0
	movq	-32(%rbp), %rax	# insn, tmp86
	movq	%rax, %rdi	# tmp86,
	call	get_attr_type	#
	cmpl	$10, %eax	#, D.16721
	jne	.L516	#,
	.loc 1 2071 0
	movq	-24(%rbp), %rax	# operands, tmp87
	addq	$16, %rax	#, D.16722
	movq	(%rax), %rdx	# *_5, D.16723
	movq	const_int_rtx+520(%rip), %rax	# const_int_rtx, D.16723
	cmpq	%rax, %rdx	# D.16723, D.16723
	jne	.L511	#,
	.loc 1 2072 0
	movl	$.LC106, %eax	#, D.16720
	jmp	.L512	#
.L511:
	.loc 1 2073 0
	movq	-24(%rbp), %rax	# operands, tmp88
	addq	$16, %rax	#, D.16722
	movq	(%rax), %rdx	# *_9, D.16723
	movq	const_int_rtx+504(%rip), %rax	# const_int_rtx, D.16723
	cmpq	%rax, %rdx	# D.16723, D.16723
	jne	.L513	#,
	.loc 1 2074 0
	movl	$.LC107, %eax	#, D.16720
	jmp	.L512	#
.L513:
	.loc 1 2076 0
	movl	$__FUNCTION__.12136, %edx	#,
	movl	$2076, %esi	#,
	movl	$.LC15, %edi	#,
	call	fancy_abort	#
.L516:
	.loc 1 2081 0
	movq	-24(%rbp), %rax	# operands, tmp89
	addq	$16, %rax	#, D.16722
	movq	(%rax), %rax	# *_13, D.16723
	movzwl	(%rax), %eax	# _14->code, D.16724
	cmpw	$54, %ax	#, D.16724
	jne	.L514	#,
	.loc 1 2082 0
	movq	-24(%rbp), %rax	# operands, tmp90
	addq	$16, %rax	#, D.16722
	movq	(%rax), %rax	# *_16, D.16723
	movq	8(%rax), %rax	# _17->fld[0].rtwint, D.16725
	cmpq	$128, %rax	#, D.16725
	je	.L515	#,
	.loc 1 2083 0
	movq	-24(%rbp), %rax	# operands, tmp91
	addq	$16, %rax	#, D.16722
	movq	(%rax), %rax	# *_19, D.16723
	movq	8(%rax), %rax	# _20->fld[0].rtwint, D.16725
	testq	%rax, %rax	# D.16725
	jns	.L514	#,
	.loc 1 2084 0
	movq	-24(%rbp), %rax	# operands, tmp92
	addq	$16, %rax	#, D.16722
	movq	(%rax), %rax	# *_22, D.16723
	movq	8(%rax), %rax	# _23->fld[0].rtwint, D.16725
	cmpq	$-128, %rax	#, D.16725
	je	.L514	#,
.L515:
	.loc 1 2086 0
	movq	-24(%rbp), %rax	# operands, tmp93
	leaq	16(%rax), %rbx	#, D.16722
	movq	-24(%rbp), %rax	# operands, tmp94
	addq	$16, %rax	#, D.16722
	movq	(%rax), %rax	# *_26, D.16723
	movq	8(%rax), %rax	# _27->fld[0].rtwint, D.16725
	negq	%rax	# D.16725
	movq	%rax, %rsi	# D.16725,
	movl	$0, %edi	#,
	call	gen_rtx_CONST_INT	#
	movq	%rax, (%rbx)	# D.16723, *_25
	.loc 1 2087 0
	movl	$.LC108, %eax	#, D.16720
	jmp	.L512	#
.L514:
	.loc 1 2089 0
	movl	$.LC109, %eax	#, D.16720
.L512:
	.loc 1 2092 0
	addq	$24, %rsp	#,
	popq	%rbx	#
	popq	%rbp	#
	.cfi_def_cfa 7, 8
	ret
	.cfi_endproc
.LFE79:
	.size	output_210, .-output_210
	.type	output_211, @function
output_211:
.LFB80:
	.loc 1 2100 0
	.cfi_startproc
	pushq	%rbp	#
	.cfi_def_cfa_offset 16
	.cfi_offset 6, -16
	movq	%rsp, %rbp	#,
	.cfi_def_cfa_register 6
	pushq	%rbx	#
	subq	$24, %rsp	#,
	.cfi_offset 3, -24
	movq	%rdi, -24(%rbp)	# operands, operands
	movq	%rsi, -32(%rbp)	# insn, insn
	.loc 1 2102 0
	movq	-32(%rbp), %rax	# insn, tmp94
	movq	%rax, %rdi	# tmp94,
	call	get_attr_type	#
	cmpl	$10, %eax	#, D.16727
	jne	.L527	#,
	.loc 1 2105 0
	movq	-24(%rbp), %rax	# operands, tmp95
	addq	$8, %rax	#, D.16728
	movq	(%rax), %rdx	# *_5, D.16729
	movq	-24(%rbp), %rax	# operands, tmp96
	movq	(%rax), %rax	# *operands_4(D), D.16729
	movq	%rdx, %rsi	# D.16729,
	movq	%rax, %rdi	# D.16729,
	call	rtx_equal_p	#
	testl	%eax, %eax	# D.16730
	jne	.L520	#,
	.loc 1 2106 0
	movl	$__FUNCTION__.12146, %edx	#,
	movl	$2106, %esi	#,
	movl	$.LC15, %edi	#,
	call	fancy_abort	#
.L520:
	.loc 1 2107 0
	movq	-24(%rbp), %rax	# operands, tmp97
	addq	$16, %rax	#, D.16728
	movq	(%rax), %rdx	# *_9, D.16729
	movq	const_int_rtx+520(%rip), %rax	# const_int_rtx, D.16729
	cmpq	%rax, %rdx	# D.16729, D.16729
	jne	.L521	#,
	.loc 1 2108 0
	movl	$.LC101, %eax	#, D.16726
	jmp	.L522	#
.L521:
	.loc 1 2109 0
	movq	-24(%rbp), %rax	# operands, tmp98
	addq	$16, %rax	#, D.16728
	movq	(%rax), %rdx	# *_13, D.16729
	movq	const_int_rtx+504(%rip), %rax	# const_int_rtx, D.16729
	cmpq	%rax, %rdx	# D.16729, D.16729
	jne	.L523	#,
	.loc 1 2110 0
	movl	$.LC102, %eax	#, D.16726
	jmp	.L522	#
.L523:
	.loc 1 2112 0
	movl	$__FUNCTION__.12146, %edx	#,
	movl	$2112, %esi	#,
	movl	$.LC15, %edi	#,
	call	fancy_abort	#
.L527:
	.loc 1 2115 0
	movq	-24(%rbp), %rax	# operands, tmp99
	addq	$8, %rax	#, D.16728
	movq	(%rax), %rdx	# *_17, D.16729
	movq	-24(%rbp), %rax	# operands, tmp100
	movq	(%rax), %rax	# *operands_4(D), D.16729
	movq	%rdx, %rsi	# D.16729,
	movq	%rax, %rdi	# D.16729,
	call	rtx_equal_p	#
	testl	%eax, %eax	# D.16730
	jne	.L524	#,
	.loc 1 2116 0
	movl	$__FUNCTION__.12146, %edx	#,
	movl	$2116, %esi	#,
	movl	$.LC15, %edi	#,
	call	fancy_abort	#
.L524:
	.loc 1 2119 0
	movq	-24(%rbp), %rax	# operands, tmp101
	addq	$16, %rax	#, D.16728
	movq	(%rax), %rax	# *_21, D.16729
	movzwl	(%rax), %eax	# _22->code, D.16731
	cmpw	$54, %ax	#, D.16731
	jne	.L525	#,
	.loc 1 2120 0
	movq	-24(%rbp), %rax	# operands, tmp102
	addq	$16, %rax	#, D.16728
	movq	(%rax), %rax	# *_24, D.16729
	movq	8(%rax), %rax	# _25->fld[0].rtwint, D.16732
	cmpq	$128, %rax	#, D.16732
	je	.L526	#,
	.loc 1 2121 0
	movq	-24(%rbp), %rax	# operands, tmp103
	addq	$16, %rax	#, D.16728
	movq	(%rax), %rax	# *_27, D.16729
	movq	8(%rax), %rax	# _28->fld[0].rtwint, D.16732
	testq	%rax, %rax	# D.16732
	jns	.L525	#,
	.loc 1 2122 0
	movq	-24(%rbp), %rax	# operands, tmp104
	addq	$16, %rax	#, D.16728
	movq	(%rax), %rax	# *_30, D.16729
	movq	8(%rax), %rax	# _31->fld[0].rtwint, D.16732
	cmpq	$-128, %rax	#, D.16732
	je	.L525	#,
.L526:
	.loc 1 2124 0
	movq	-24(%rbp), %rax	# operands, tmp105
	leaq	16(%rax), %rbx	#, D.16728
	movq	-24(%rbp), %rax	# operands, tmp106
	addq	$16, %rax	#, D.16728
	movq	(%rax), %rax	# *_34, D.16729
	movq	8(%rax), %rax	# _35->fld[0].rtwint, D.16732
	negq	%rax	# D.16732
	movq	%rax, %rsi	# D.16732,
	movl	$0, %edi	#,
	call	gen_rtx_CONST_INT	#
	movq	%rax, (%rbx)	# D.16729, *_33
	.loc 1 2125 0
	movl	$.LC103, %eax	#, D.16726
	jmp	.L522	#
.L525:
	.loc 1 2127 0
	movl	$.LC104, %eax	#, D.16726
.L522:
	.loc 1 2130 0
	addq	$24, %rsp	#,
	popq	%rbx	#
	popq	%rbp	#
	.cfi_def_cfa 7, 8
	ret
	.cfi_endproc
.LFE80:
	.size	output_211, .-output_211
	.type	output_212, @function
output_212:
.LFB81:
	.loc 1 2138 0
	.cfi_startproc
	pushq	%rbp	#
	.cfi_def_cfa_offset 16
	.cfi_offset 6, -16
	movq	%rsp, %rbp	#,
	.cfi_def_cfa_register 6
	pushq	%rbx	#
	subq	$24, %rsp	#,
	.cfi_offset 3, -24
	movq	%rdi, -24(%rbp)	# operands, operands
	movq	%rsi, -32(%rbp)	# insn, insn
	.loc 1 2140 0
	movq	-32(%rbp), %rax	# insn, tmp86
	movq	%rax, %rdi	# tmp86,
	call	get_attr_type	#
	cmpl	$10, %eax	#, D.16734
	jne	.L536	#,
	.loc 1 2143 0
	movq	-24(%rbp), %rax	# operands, tmp87
	addq	$16, %rax	#, D.16735
	movq	(%rax), %rdx	# *_5, D.16736
	movq	const_int_rtx+520(%rip), %rax	# const_int_rtx, D.16736
	cmpq	%rax, %rdx	# D.16736, D.16736
	jne	.L531	#,
	.loc 1 2144 0
	movl	$.LC106, %eax	#, D.16733
	jmp	.L532	#
.L531:
	.loc 1 2145 0
	movq	-24(%rbp), %rax	# operands, tmp88
	addq	$16, %rax	#, D.16735
	movq	(%rax), %rdx	# *_9, D.16736
	movq	const_int_rtx+504(%rip), %rax	# const_int_rtx, D.16736
	cmpq	%rax, %rdx	# D.16736, D.16736
	jne	.L533	#,
	.loc 1 2146 0
	movl	$.LC107, %eax	#, D.16733
	jmp	.L532	#
.L533:
	.loc 1 2148 0
	movl	$__FUNCTION__.12156, %edx	#,
	movl	$2148, %esi	#,
	movl	$.LC15, %edi	#,
	call	fancy_abort	#
.L536:
	.loc 1 2153 0
	movq	-24(%rbp), %rax	# operands, tmp89
	addq	$16, %rax	#, D.16735
	movq	(%rax), %rax	# *_13, D.16736
	movzwl	(%rax), %eax	# _14->code, D.16737
	cmpw	$54, %ax	#, D.16737
	jne	.L534	#,
	.loc 1 2154 0
	movq	-24(%rbp), %rax	# operands, tmp90
	addq	$16, %rax	#, D.16735
	movq	(%rax), %rax	# *_16, D.16736
	movq	8(%rax), %rax	# _17->fld[0].rtwint, D.16738
	cmpq	$128, %rax	#, D.16738
	je	.L535	#,
	.loc 1 2155 0
	movq	-24(%rbp), %rax	# operands, tmp91
	addq	$16, %rax	#, D.16735
	movq	(%rax), %rax	# *_19, D.16736
	movq	8(%rax), %rax	# _20->fld[0].rtwint, D.16738
	testq	%rax, %rax	# D.16738
	jns	.L534	#,
	.loc 1 2156 0
	movq	-24(%rbp), %rax	# operands, tmp92
	addq	$16, %rax	#, D.16735
	movq	(%rax), %rax	# *_22, D.16736
	movq	8(%rax), %rax	# _23->fld[0].rtwint, D.16738
	cmpq	$-128, %rax	#, D.16738
	je	.L534	#,
.L535:
	.loc 1 2158 0
	movq	-24(%rbp), %rax	# operands, tmp93
	leaq	16(%rax), %rbx	#, D.16735
	movq	-24(%rbp), %rax	# operands, tmp94
	addq	$16, %rax	#, D.16735
	movq	(%rax), %rax	# *_26, D.16736
	movq	8(%rax), %rax	# _27->fld[0].rtwint, D.16738
	negq	%rax	# D.16738
	movq	%rax, %rsi	# D.16738,
	movl	$0, %edi	#,
	call	gen_rtx_CONST_INT	#
	movq	%rax, (%rbx)	# D.16736, *_25
	.loc 1 2159 0
	movl	$.LC108, %eax	#, D.16733
	jmp	.L532	#
.L534:
	.loc 1 2161 0
	movl	$.LC109, %eax	#, D.16733
.L532:
	.loc 1 2164 0
	addq	$24, %rsp	#,
	popq	%rbx	#
	popq	%rbp	#
	.cfi_def_cfa 7, 8
	ret
	.cfi_endproc
.LFE81:
	.size	output_212, .-output_212
	.type	output_213, @function
output_213:
.LFB82:
	.loc 1 2172 0
	.cfi_startproc
	pushq	%rbp	#
	.cfi_def_cfa_offset 16
	.cfi_offset 6, -16
	movq	%rsp, %rbp	#,
	.cfi_def_cfa_register 6
	pushq	%rbx	#
	subq	$24, %rsp	#,
	.cfi_offset 3, -24
	movq	%rdi, -24(%rbp)	# operands, operands
	movq	%rsi, -32(%rbp)	# insn, insn
	.loc 1 2174 0
	movq	-32(%rbp), %rax	# insn, tmp87
	movq	%rax, %rdi	# tmp87,
	call	get_attr_type	#
	cmpl	$10, %eax	#, D.16740
	jne	.L546	#,
	.loc 1 2177 0
	movq	-24(%rbp), %rax	# operands, tmp88
	addq	$16, %rax	#, D.16741
	movq	(%rax), %rdx	# *_5, D.16742
	movq	const_int_rtx+504(%rip), %rax	# const_int_rtx, D.16742
	cmpq	%rax, %rdx	# D.16742, D.16742
	jne	.L540	#,
	.loc 1 2178 0
	movl	$.LC101, %eax	#, D.16739
	jmp	.L541	#
.L540:
	.loc 1 2179 0
	movq	-24(%rbp), %rax	# operands, tmp89
	addq	$16, %rax	#, D.16741
	movq	(%rax), %rdx	# *_9, D.16742
	movq	const_int_rtx+520(%rip), %rax	# const_int_rtx, D.16742
	cmpq	%rax, %rdx	# D.16742, D.16742
	jne	.L542	#,
	.loc 1 2180 0
	movl	$.LC102, %eax	#, D.16739
	jmp	.L541	#
.L542:
	.loc 1 2182 0
	movl	$__FUNCTION__.12166, %edx	#,
	movl	$2182, %esi	#,
	movl	$.LC15, %edi	#,
	call	fancy_abort	#
.L546:
	.loc 1 2185 0
	movq	-24(%rbp), %rax	# operands, tmp90
	addq	$8, %rax	#, D.16741
	movq	(%rax), %rdx	# *_13, D.16742
	movq	-24(%rbp), %rax	# operands, tmp91
	movq	(%rax), %rax	# *operands_4(D), D.16742
	movq	%rdx, %rsi	# D.16742,
	movq	%rax, %rdi	# D.16742,
	call	rtx_equal_p	#
	testl	%eax, %eax	# D.16743
	jne	.L543	#,
	.loc 1 2186 0
	movl	$__FUNCTION__.12166, %edx	#,
	movl	$2186, %esi	#,
	movl	$.LC15, %edi	#,
	call	fancy_abort	#
.L543:
	.loc 1 2189 0
	movq	-24(%rbp), %rax	# operands, tmp92
	addq	$16, %rax	#, D.16741
	movq	(%rax), %rax	# *_17, D.16742
	movq	8(%rax), %rax	# _18->fld[0].rtwint, D.16744
	cmpq	$-128, %rax	#, D.16744
	je	.L544	#,
	.loc 1 2190 0
	movq	-24(%rbp), %rax	# operands, tmp93
	addq	$16, %rax	#, D.16741
	movq	(%rax), %rax	# *_20, D.16742
	movq	8(%rax), %rax	# _21->fld[0].rtwint, D.16744
	testq	%rax, %rax	# D.16744
	jle	.L545	#,
	.loc 1 2191 0
	movq	-24(%rbp), %rax	# operands, tmp94
	addq	$16, %rax	#, D.16741
	movq	(%rax), %rax	# *_23, D.16742
	movq	8(%rax), %rax	# _24->fld[0].rtwint, D.16744
	cmpq	$128, %rax	#, D.16744
	je	.L545	#,
.L544:
	.loc 1 2192 0
	movl	$.LC103, %eax	#, D.16739
	jmp	.L541	#
.L545:
	.loc 1 2193 0
	movq	-24(%rbp), %rax	# operands, tmp95
	leaq	16(%rax), %rbx	#, D.16741
	movq	-24(%rbp), %rax	# operands, tmp96
	addq	$16, %rax	#, D.16741
	movq	(%rax), %rax	# *_27, D.16742
	movq	8(%rax), %rax	# _28->fld[0].rtwint, D.16744
	negq	%rax	# D.16744
	movq	%rax, %rsi	# D.16744,
	movl	$0, %edi	#,
	call	gen_rtx_CONST_INT	#
	movq	%rax, (%rbx)	# D.16742, *_26
	.loc 1 2194 0
	movl	$.LC104, %eax	#, D.16739
.L541:
	.loc 1 2197 0
	addq	$24, %rsp	#,
	popq	%rbx	#
	popq	%rbp	#
	.cfi_def_cfa 7, 8
	ret
	.cfi_endproc
.LFE82:
	.size	output_213, .-output_213
	.type	output_214, @function
output_214:
.LFB83:
	.loc 1 2205 0
	.cfi_startproc
	pushq	%rbp	#
	.cfi_def_cfa_offset 16
	.cfi_offset 6, -16
	movq	%rsp, %rbp	#,
	.cfi_def_cfa_register 6
	pushq	%rbx	#
	subq	$24, %rsp	#,
	.cfi_offset 3, -24
	movq	%rdi, -24(%rbp)	# operands, operands
	movq	%rsi, -32(%rbp)	# insn, insn
	.loc 1 2207 0
	movq	-32(%rbp), %rax	# insn, tmp94
	movq	%rax, %rdi	# tmp94,
	call	get_attr_type	#
	cmpl	$10, %eax	#, D.16746
	jne	.L557	#,
	.loc 1 2210 0
	movq	-24(%rbp), %rax	# operands, tmp95
	addq	$8, %rax	#, D.16747
	movq	(%rax), %rdx	# *_5, D.16748
	movq	-24(%rbp), %rax	# operands, tmp96
	movq	(%rax), %rax	# *operands_4(D), D.16748
	movq	%rdx, %rsi	# D.16748,
	movq	%rax, %rdi	# D.16748,
	call	rtx_equal_p	#
	testl	%eax, %eax	# D.16749
	jne	.L550	#,
	.loc 1 2211 0
	movl	$__FUNCTION__.12176, %edx	#,
	movl	$2211, %esi	#,
	movl	$.LC15, %edi	#,
	call	fancy_abort	#
.L550:
	.loc 1 2212 0
	movq	-24(%rbp), %rax	# operands, tmp97
	addq	$16, %rax	#, D.16747
	movq	(%rax), %rdx	# *_9, D.16748
	movq	const_int_rtx+520(%rip), %rax	# const_int_rtx, D.16748
	cmpq	%rax, %rdx	# D.16748, D.16748
	jne	.L551	#,
	.loc 1 2213 0
	movl	$.LC101, %eax	#, D.16745
	jmp	.L552	#
.L551:
	.loc 1 2214 0
	movq	-24(%rbp), %rax	# operands, tmp98
	addq	$16, %rax	#, D.16747
	movq	(%rax), %rdx	# *_13, D.16748
	movq	const_int_rtx+504(%rip), %rax	# const_int_rtx, D.16748
	cmpq	%rax, %rdx	# D.16748, D.16748
	jne	.L553	#,
	.loc 1 2215 0
	movl	$.LC102, %eax	#, D.16745
	jmp	.L552	#
.L553:
	.loc 1 2217 0
	movl	$__FUNCTION__.12176, %edx	#,
	movl	$2217, %esi	#,
	movl	$.LC15, %edi	#,
	call	fancy_abort	#
.L557:
	.loc 1 2220 0
	movq	-24(%rbp), %rax	# operands, tmp99
	addq	$8, %rax	#, D.16747
	movq	(%rax), %rdx	# *_17, D.16748
	movq	-24(%rbp), %rax	# operands, tmp100
	movq	(%rax), %rax	# *operands_4(D), D.16748
	movq	%rdx, %rsi	# D.16748,
	movq	%rax, %rdi	# D.16748,
	call	rtx_equal_p	#
	testl	%eax, %eax	# D.16749
	jne	.L554	#,
	.loc 1 2221 0
	movl	$__FUNCTION__.12176, %edx	#,
	movl	$2221, %esi	#,
	movl	$.LC15, %edi	#,
	call	fancy_abort	#
.L554:
	.loc 1 2224 0
	movq	-24(%rbp), %rax	# operands, tmp101
	addq	$16, %rax	#, D.16747
	movq	(%rax), %rax	# *_21, D.16748
	movzwl	(%rax), %eax	# _22->code, D.16750
	cmpw	$54, %ax	#, D.16750
	jne	.L555	#,
	.loc 1 2225 0
	movq	-24(%rbp), %rax	# operands, tmp102
	addq	$16, %rax	#, D.16747
	movq	(%rax), %rax	# *_24, D.16748
	movq	8(%rax), %rax	# _25->fld[0].rtwint, D.16751
	cmpq	$128, %rax	#, D.16751
	je	.L556	#,
	.loc 1 2226 0
	movq	-24(%rbp), %rax	# operands, tmp103
	addq	$16, %rax	#, D.16747
	movq	(%rax), %rax	# *_27, D.16748
	movq	8(%rax), %rax	# _28->fld[0].rtwint, D.16751
	testq	%rax, %rax	# D.16751
	jns	.L555	#,
	.loc 1 2227 0
	movq	-24(%rbp), %rax	# operands, tmp104
	addq	$16, %rax	#, D.16747
	movq	(%rax), %rax	# *_30, D.16748
	movq	8(%rax), %rax	# _31->fld[0].rtwint, D.16751
	cmpq	$-128, %rax	#, D.16751
	je	.L555	#,
.L556:
	.loc 1 2229 0
	movq	-24(%rbp), %rax	# operands, tmp105
	leaq	16(%rax), %rbx	#, D.16747
	movq	-24(%rbp), %rax	# operands, tmp106
	addq	$16, %rax	#, D.16747
	movq	(%rax), %rax	# *_34, D.16748
	movq	8(%rax), %rax	# _35->fld[0].rtwint, D.16751
	negq	%rax	# D.16751
	movq	%rax, %rsi	# D.16751,
	movl	$0, %edi	#,
	call	gen_rtx_CONST_INT	#
	movq	%rax, (%rbx)	# D.16748, *_33
	.loc 1 2230 0
	movl	$.LC103, %eax	#, D.16745
	jmp	.L552	#
.L555:
	.loc 1 2232 0
	movl	$.LC104, %eax	#, D.16745
.L552:
	.loc 1 2235 0
	addq	$24, %rsp	#,
	popq	%rbx	#
	popq	%rbp	#
	.cfi_def_cfa 7, 8
	ret
	.cfi_endproc
.LFE83:
	.size	output_214, .-output_214
	.section	.rodata
.LC110:
	.string	"inc{w}\t%0"
.LC111:
	.string	"dec{w}\t%0"
.LC112:
	.string	"sub{w}\t{%2, %0|%0, %2}"
.LC113:
	.string	"add{w}\t{%2, %0|%0, %2}"
	.text
	.type	output_215, @function
output_215:
.LFB84:
	.loc 1 2243 0
	.cfi_startproc
	pushq	%rbp	#
	.cfi_def_cfa_offset 16
	.cfi_offset 6, -16
	movq	%rsp, %rbp	#,
	.cfi_def_cfa_register 6
	pushq	%rbx	#
	subq	$24, %rsp	#,
	.cfi_offset 3, -24
	movq	%rdi, -24(%rbp)	# operands, operands
	movq	%rsi, -32(%rbp)	# insn, insn
	.loc 1 2245 0
	movq	-32(%rbp), %rax	# insn, tmp92
	movq	%rax, %rdi	# tmp92,
	call	get_attr_type	#
	cmpl	$9, %eax	#, D.16753
	je	.L560	#,
	cmpl	$10, %eax	#, D.16753
	je	.L561	#,
	jmp	.L568	#
.L560:
	.loc 1 2248 0
	movl	$.LC45, %eax	#, D.16752
	jmp	.L562	#
.L561:
	.loc 1 2250 0
	movq	-24(%rbp), %rax	# operands, tmp93
	addq	$16, %rax	#, D.16754
	movq	(%rax), %rdx	# *_6, D.16755
	movq	const_int_rtx+520(%rip), %rax	# const_int_rtx, D.16755
	cmpq	%rax, %rdx	# D.16755, D.16755
	jne	.L563	#,
	.loc 1 2251 0
	movl	$.LC110, %eax	#, D.16752
	jmp	.L562	#
.L563:
	.loc 1 2252 0
	movq	-24(%rbp), %rax	# operands, tmp94
	addq	$16, %rax	#, D.16754
	movq	(%rax), %rdx	# *_10, D.16755
	movq	const_int_rtx+504(%rip), %rax	# const_int_rtx, D.16755
	cmpq	%rax, %rdx	# D.16755, D.16755
	je	.L564	#,
	.loc 1 2253 0
	movq	-24(%rbp), %rax	# operands, tmp95
	addq	$16, %rax	#, D.16754
	movq	(%rax), %rax	# *_13, D.16755
	movzwl	(%rax), %eax	# _14->code, D.16756
	cmpw	$54, %ax	#, D.16756
	jne	.L565	#,
	.loc 1 2254 0
	movq	-24(%rbp), %rax	# operands, tmp96
	addq	$16, %rax	#, D.16754
	movq	(%rax), %rax	# *_16, D.16755
	movq	8(%rax), %rax	# _17->fld[0].rtwint, D.16757
	cmpq	$65535, %rax	#, D.16757
	jne	.L565	#,
.L564:
	.loc 1 2255 0
	movl	$.LC111, %eax	#, D.16752
	jmp	.L562	#
.L565:
	.loc 1 2256 0
	movl	$__FUNCTION__.12187, %edx	#,
	movl	$2256, %esi	#,
	movl	$.LC15, %edi	#,
	call	fancy_abort	#
.L568:
	.loc 1 2261 0
	movq	-24(%rbp), %rax	# operands, tmp97
	addq	$16, %rax	#, D.16754
	movq	(%rax), %rax	# *_20, D.16755
	movzwl	(%rax), %eax	# _21->code, D.16756
	cmpw	$54, %ax	#, D.16756
	jne	.L566	#,
	.loc 1 2262 0
	movq	-24(%rbp), %rax	# operands, tmp98
	addq	$16, %rax	#, D.16754
	movq	(%rax), %rax	# *_23, D.16755
	movq	8(%rax), %rax	# _24->fld[0].rtwint, D.16757
	cmpq	$128, %rax	#, D.16757
	je	.L567	#,
	.loc 1 2263 0
	movq	-24(%rbp), %rax	# operands, tmp99
	addq	$16, %rax	#, D.16754
	movq	(%rax), %rax	# *_26, D.16755
	movq	8(%rax), %rax	# _27->fld[0].rtwint, D.16757
	testq	%rax, %rax	# D.16757
	jns	.L566	#,
	.loc 1 2264 0
	movq	-24(%rbp), %rax	# operands, tmp100
	addq	$16, %rax	#, D.16754
	movq	(%rax), %rax	# *_29, D.16755
	movq	8(%rax), %rax	# _30->fld[0].rtwint, D.16757
	cmpq	$-128, %rax	#, D.16757
	je	.L566	#,
.L567:
	.loc 1 2266 0
	movq	-24(%rbp), %rax	# operands, tmp101
	leaq	16(%rax), %rbx	#, D.16754
	movq	-24(%rbp), %rax	# operands, tmp102
	addq	$16, %rax	#, D.16754
	movq	(%rax), %rax	# *_33, D.16755
	movq	8(%rax), %rax	# _34->fld[0].rtwint, D.16757
	negq	%rax	# D.16757
	movq	%rax, %rsi	# D.16757,
	movl	$0, %edi	#,
	call	gen_rtx_CONST_INT	#
	movq	%rax, (%rbx)	# D.16755, *_32
	.loc 1 2267 0
	movl	$.LC112, %eax	#, D.16752
	jmp	.L562	#
.L566:
	.loc 1 2269 0
	movl	$.LC113, %eax	#, D.16752
.L562:
	.loc 1 2272 0
	addq	$24, %rsp	#,
	popq	%rbx	#
	popq	%rbp	#
	.cfi_def_cfa 7, 8
	ret
	.cfi_endproc
.LFE84:
	.size	output_215, .-output_215
	.type	output_216, @function
output_216:
.LFB85:
	.loc 1 2280 0
	.cfi_startproc
	pushq	%rbp	#
	.cfi_def_cfa_offset 16
	.cfi_offset 6, -16
	movq	%rsp, %rbp	#,
	.cfi_def_cfa_register 6
	pushq	%rbx	#
	subq	$24, %rsp	#,
	.cfi_offset 3, -24
	movq	%rdi, -24(%rbp)	# operands, operands
	movq	%rsi, -32(%rbp)	# insn, insn
	.loc 1 2282 0
	movq	-32(%rbp), %rax	# insn, tmp92
	movq	%rax, %rdi	# tmp92,
	call	get_attr_type	#
	cmpl	$10, %eax	#, D.16763
	jne	.L578	#,
	.loc 1 2285 0
	movq	-24(%rbp), %rax	# operands, tmp93
	addq	$16, %rax	#, D.16764
	movq	(%rax), %rdx	# *_5, D.16765
	movq	const_int_rtx+520(%rip), %rax	# const_int_rtx, D.16765
	cmpq	%rax, %rdx	# D.16765, D.16765
	jne	.L572	#,
	.loc 1 2286 0
	movl	$.LC110, %eax	#, D.16762
	jmp	.L573	#
.L572:
	.loc 1 2287 0
	movq	-24(%rbp), %rax	# operands, tmp94
	addq	$16, %rax	#, D.16764
	movq	(%rax), %rdx	# *_9, D.16765
	movq	const_int_rtx+504(%rip), %rax	# const_int_rtx, D.16765
	cmpq	%rax, %rdx	# D.16765, D.16765
	je	.L574	#,
	.loc 1 2288 0
	movq	-24(%rbp), %rax	# operands, tmp95
	addq	$16, %rax	#, D.16764
	movq	(%rax), %rax	# *_12, D.16765
	movzwl	(%rax), %eax	# _13->code, D.16766
	cmpw	$54, %ax	#, D.16766
	jne	.L575	#,
	.loc 1 2289 0
	movq	-24(%rbp), %rax	# operands, tmp96
	addq	$16, %rax	#, D.16764
	movq	(%rax), %rax	# *_15, D.16765
	movq	8(%rax), %rax	# _16->fld[0].rtwint, D.16767
	cmpq	$65535, %rax	#, D.16767
	jne	.L575	#,
.L574:
	.loc 1 2290 0
	movl	$.LC111, %eax	#, D.16762
	jmp	.L573	#
.L575:
	.loc 1 2291 0
	movl	$__FUNCTION__.12197, %edx	#,
	movl	$2291, %esi	#,
	movl	$.LC15, %edi	#,
	call	fancy_abort	#
.L578:
	.loc 1 2296 0
	movq	-24(%rbp), %rax	# operands, tmp97
	addq	$16, %rax	#, D.16764
	movq	(%rax), %rax	# *_19, D.16765
	movzwl	(%rax), %eax	# _20->code, D.16766
	cmpw	$54, %ax	#, D.16766
	jne	.L576	#,
	.loc 1 2297 0
	movq	-24(%rbp), %rax	# operands, tmp98
	addq	$16, %rax	#, D.16764
	movq	(%rax), %rax	# *_22, D.16765
	movq	8(%rax), %rax	# _23->fld[0].rtwint, D.16767
	cmpq	$128, %rax	#, D.16767
	je	.L577	#,
	.loc 1 2298 0
	movq	-24(%rbp), %rax	# operands, tmp99
	addq	$16, %rax	#, D.16764
	movq	(%rax), %rax	# *_25, D.16765
	movq	8(%rax), %rax	# _26->fld[0].rtwint, D.16767
	testq	%rax, %rax	# D.16767
	jns	.L576	#,
	.loc 1 2299 0
	movq	-24(%rbp), %rax	# operands, tmp100
	addq	$16, %rax	#, D.16764
	movq	(%rax), %rax	# *_28, D.16765
	movq	8(%rax), %rax	# _29->fld[0].rtwint, D.16767
	cmpq	$-128, %rax	#, D.16767
	je	.L576	#,
.L577:
	.loc 1 2301 0
	movq	-24(%rbp), %rax	# operands, tmp101
	leaq	16(%rax), %rbx	#, D.16764
	movq	-24(%rbp), %rax	# operands, tmp102
	addq	$16, %rax	#, D.16764
	movq	(%rax), %rax	# *_32, D.16765
	movq	8(%rax), %rax	# _33->fld[0].rtwint, D.16767
	negq	%rax	# D.16767
	movq	%rax, %rsi	# D.16767,
	movl	$0, %edi	#,
	call	gen_rtx_CONST_INT	#
	movq	%rax, (%rbx)	# D.16765, *_31
	.loc 1 2302 0
	movl	$.LC112, %eax	#, D.16762
	jmp	.L573	#
.L576:
	.loc 1 2304 0
	movl	$.LC113, %eax	#, D.16762
.L573:
	.loc 1 2307 0
	addq	$24, %rsp	#,
	popq	%rbx	#
	popq	%rbp	#
	.cfi_def_cfa 7, 8
	ret
	.cfi_endproc
.LFE85:
	.size	output_216, .-output_216
	.type	output_217, @function
output_217:
.LFB86:
	.loc 1 2315 0
	.cfi_startproc
	pushq	%rbp	#
	.cfi_def_cfa_offset 16
	.cfi_offset 6, -16
	movq	%rsp, %rbp	#,
	.cfi_def_cfa_register 6
	pushq	%rbx	#
	subq	$24, %rsp	#,
	.cfi_offset 3, -24
	movq	%rdi, -24(%rbp)	# operands, operands
	movq	%rsi, -32(%rbp)	# insn, insn
	.loc 1 2317 0
	movq	-32(%rbp), %rax	# insn, tmp92
	movq	%rax, %rdi	# tmp92,
	call	get_attr_type	#
	cmpl	$10, %eax	#, D.16769
	jne	.L588	#,
	.loc 1 2320 0
	movq	-24(%rbp), %rax	# operands, tmp93
	addq	$16, %rax	#, D.16770
	movq	(%rax), %rdx	# *_5, D.16771
	movq	const_int_rtx+520(%rip), %rax	# const_int_rtx, D.16771
	cmpq	%rax, %rdx	# D.16771, D.16771
	jne	.L582	#,
	.loc 1 2321 0
	movl	$.LC110, %eax	#, D.16768
	jmp	.L583	#
.L582:
	.loc 1 2322 0
	movq	-24(%rbp), %rax	# operands, tmp94
	addq	$16, %rax	#, D.16770
	movq	(%rax), %rdx	# *_9, D.16771
	movq	const_int_rtx+504(%rip), %rax	# const_int_rtx, D.16771
	cmpq	%rax, %rdx	# D.16771, D.16771
	je	.L584	#,
	.loc 1 2323 0
	movq	-24(%rbp), %rax	# operands, tmp95
	addq	$16, %rax	#, D.16770
	movq	(%rax), %rax	# *_12, D.16771
	movzwl	(%rax), %eax	# _13->code, D.16772
	cmpw	$54, %ax	#, D.16772
	jne	.L585	#,
	.loc 1 2324 0
	movq	-24(%rbp), %rax	# operands, tmp96
	addq	$16, %rax	#, D.16770
	movq	(%rax), %rax	# *_15, D.16771
	movq	8(%rax), %rax	# _16->fld[0].rtwint, D.16773
	cmpq	$65535, %rax	#, D.16773
	jne	.L585	#,
.L584:
	.loc 1 2325 0
	movl	$.LC111, %eax	#, D.16768
	jmp	.L583	#
.L585:
	.loc 1 2326 0
	movl	$__FUNCTION__.12207, %edx	#,
	movl	$2326, %esi	#,
	movl	$.LC15, %edi	#,
	call	fancy_abort	#
.L588:
	.loc 1 2331 0
	movq	-24(%rbp), %rax	# operands, tmp97
	addq	$16, %rax	#, D.16770
	movq	(%rax), %rax	# *_19, D.16771
	movzwl	(%rax), %eax	# _20->code, D.16772
	cmpw	$54, %ax	#, D.16772
	jne	.L586	#,
	.loc 1 2332 0
	movq	-24(%rbp), %rax	# operands, tmp98
	addq	$16, %rax	#, D.16770
	movq	(%rax), %rax	# *_22, D.16771
	movq	8(%rax), %rax	# _23->fld[0].rtwint, D.16773
	cmpq	$128, %rax	#, D.16773
	je	.L587	#,
	.loc 1 2333 0
	movq	-24(%rbp), %rax	# operands, tmp99
	addq	$16, %rax	#, D.16770
	movq	(%rax), %rax	# *_25, D.16771
	movq	8(%rax), %rax	# _26->fld[0].rtwint, D.16773
	testq	%rax, %rax	# D.16773
	jns	.L586	#,
	.loc 1 2334 0
	movq	-24(%rbp), %rax	# operands, tmp100
	addq	$16, %rax	#, D.16770
	movq	(%rax), %rax	# *_28, D.16771
	movq	8(%rax), %rax	# _29->fld[0].rtwint, D.16773
	cmpq	$-128, %rax	#, D.16773
	je	.L586	#,
.L587:
	.loc 1 2336 0
	movq	-24(%rbp), %rax	# operands, tmp101
	leaq	16(%rax), %rbx	#, D.16770
	movq	-24(%rbp), %rax	# operands, tmp102
	addq	$16, %rax	#, D.16770
	movq	(%rax), %rax	# *_32, D.16771
	movq	8(%rax), %rax	# _33->fld[0].rtwint, D.16773
	negq	%rax	# D.16773
	movq	%rax, %rsi	# D.16773,
	movl	$0, %edi	#,
	call	gen_rtx_CONST_INT	#
	movq	%rax, (%rbx)	# D.16771, *_31
	.loc 1 2337 0
	movl	$.LC112, %eax	#, D.16768
	jmp	.L583	#
.L586:
	.loc 1 2339 0
	movl	$.LC113, %eax	#, D.16768
.L583:
	.loc 1 2342 0
	addq	$24, %rsp	#,
	popq	%rbx	#
	popq	%rbp	#
	.cfi_def_cfa 7, 8
	ret
	.cfi_endproc
.LFE86:
	.size	output_217, .-output_217
	.type	output_218, @function
output_218:
.LFB87:
	.loc 1 2350 0
	.cfi_startproc
	pushq	%rbp	#
	.cfi_def_cfa_offset 16
	.cfi_offset 6, -16
	movq	%rsp, %rbp	#,
	.cfi_def_cfa_register 6
	pushq	%rbx	#
	subq	$24, %rsp	#,
	.cfi_offset 3, -24
	movq	%rdi, -24(%rbp)	# operands, operands
	movq	%rsi, -32(%rbp)	# insn, insn
	.loc 1 2352 0
	movq	-32(%rbp), %rax	# insn, tmp92
	movq	%rax, %rdi	# tmp92,
	call	get_attr_type	#
	cmpl	$10, %eax	#, D.16775
	jne	.L598	#,
	.loc 1 2355 0
	movq	-24(%rbp), %rax	# operands, tmp93
	addq	$16, %rax	#, D.16776
	movq	(%rax), %rdx	# *_5, D.16777
	movq	const_int_rtx+520(%rip), %rax	# const_int_rtx, D.16777
	cmpq	%rax, %rdx	# D.16777, D.16777
	jne	.L592	#,
	.loc 1 2356 0
	movl	$.LC110, %eax	#, D.16774
	jmp	.L593	#
.L592:
	.loc 1 2357 0
	movq	-24(%rbp), %rax	# operands, tmp94
	addq	$16, %rax	#, D.16776
	movq	(%rax), %rdx	# *_9, D.16777
	movq	const_int_rtx+504(%rip), %rax	# const_int_rtx, D.16777
	cmpq	%rax, %rdx	# D.16777, D.16777
	je	.L594	#,
	.loc 1 2358 0
	movq	-24(%rbp), %rax	# operands, tmp95
	addq	$16, %rax	#, D.16776
	movq	(%rax), %rax	# *_12, D.16777
	movzwl	(%rax), %eax	# _13->code, D.16778
	cmpw	$54, %ax	#, D.16778
	jne	.L595	#,
	.loc 1 2359 0
	movq	-24(%rbp), %rax	# operands, tmp96
	addq	$16, %rax	#, D.16776
	movq	(%rax), %rax	# *_15, D.16777
	movq	8(%rax), %rax	# _16->fld[0].rtwint, D.16779
	cmpq	$65535, %rax	#, D.16779
	jne	.L595	#,
.L594:
	.loc 1 2360 0
	movl	$.LC111, %eax	#, D.16774
	jmp	.L593	#
.L595:
	.loc 1 2361 0
	movl	$__FUNCTION__.12217, %edx	#,
	movl	$2361, %esi	#,
	movl	$.LC15, %edi	#,
	call	fancy_abort	#
.L598:
	.loc 1 2366 0
	movq	-24(%rbp), %rax	# operands, tmp97
	addq	$16, %rax	#, D.16776
	movq	(%rax), %rax	# *_19, D.16777
	movzwl	(%rax), %eax	# _20->code, D.16778
	cmpw	$54, %ax	#, D.16778
	jne	.L596	#,
	.loc 1 2367 0
	movq	-24(%rbp), %rax	# operands, tmp98
	addq	$16, %rax	#, D.16776
	movq	(%rax), %rax	# *_22, D.16777
	movq	8(%rax), %rax	# _23->fld[0].rtwint, D.16779
	cmpq	$128, %rax	#, D.16779
	je	.L597	#,
	.loc 1 2368 0
	movq	-24(%rbp), %rax	# operands, tmp99
	addq	$16, %rax	#, D.16776
	movq	(%rax), %rax	# *_25, D.16777
	movq	8(%rax), %rax	# _26->fld[0].rtwint, D.16779
	testq	%rax, %rax	# D.16779
	jns	.L596	#,
	.loc 1 2369 0
	movq	-24(%rbp), %rax	# operands, tmp100
	addq	$16, %rax	#, D.16776
	movq	(%rax), %rax	# *_28, D.16777
	movq	8(%rax), %rax	# _29->fld[0].rtwint, D.16779
	cmpq	$-128, %rax	#, D.16779
	je	.L596	#,
.L597:
	.loc 1 2371 0
	movq	-24(%rbp), %rax	# operands, tmp101
	leaq	16(%rax), %rbx	#, D.16776
	movq	-24(%rbp), %rax	# operands, tmp102
	addq	$16, %rax	#, D.16776
	movq	(%rax), %rax	# *_32, D.16777
	movq	8(%rax), %rax	# _33->fld[0].rtwint, D.16779
	negq	%rax	# D.16779
	movq	%rax, %rsi	# D.16779,
	movl	$0, %edi	#,
	call	gen_rtx_CONST_INT	#
	movq	%rax, (%rbx)	# D.16777, *_31
	.loc 1 2372 0
	movl	$.LC112, %eax	#, D.16774
	jmp	.L593	#
.L596:
	.loc 1 2374 0
	movl	$.LC113, %eax	#, D.16774
.L593:
	.loc 1 2377 0
	addq	$24, %rsp	#,
	popq	%rbx	#
	popq	%rbp	#
	.cfi_def_cfa 7, 8
	ret
	.cfi_endproc
.LFE87:
	.size	output_218, .-output_218
	.type	output_219, @function
output_219:
.LFB88:
	.loc 1 2385 0
	.cfi_startproc
	pushq	%rbp	#
	.cfi_def_cfa_offset 16
	.cfi_offset 6, -16
	movq	%rsp, %rbp	#,
	.cfi_def_cfa_register 6
	pushq	%rbx	#
	subq	$24, %rsp	#,
	.cfi_offset 3, -24
	movq	%rdi, -24(%rbp)	# operands, operands
	movq	%rsi, -32(%rbp)	# insn, insn
	.loc 1 2387 0
	movq	-32(%rbp), %rax	# insn, tmp93
	movq	%rax, %rdi	# tmp93,
	call	get_attr_type	#
	cmpl	$10, %eax	#, D.16781
	jne	.L609	#,
	.loc 1 2390 0
	movq	-24(%rbp), %rax	# operands, tmp94
	addq	$16, %rax	#, D.16782
	movq	(%rax), %rdx	# *_5, D.16783
	movq	const_int_rtx+504(%rip), %rax	# const_int_rtx, D.16783
	cmpq	%rax, %rdx	# D.16783, D.16783
	je	.L602	#,
	.loc 1 2391 0
	movq	-24(%rbp), %rax	# operands, tmp95
	addq	$16, %rax	#, D.16782
	movq	(%rax), %rax	# *_8, D.16783
	movzwl	(%rax), %eax	# _9->code, D.16784
	cmpw	$54, %ax	#, D.16784
	jne	.L603	#,
	.loc 1 2392 0
	movq	-24(%rbp), %rax	# operands, tmp96
	addq	$16, %rax	#, D.16782
	movq	(%rax), %rax	# *_11, D.16783
	movq	8(%rax), %rax	# _12->fld[0].rtwint, D.16785
	cmpq	$65535, %rax	#, D.16785
	jne	.L603	#,
.L602:
	.loc 1 2393 0
	movl	$.LC110, %eax	#, D.16780
	jmp	.L604	#
.L603:
	.loc 1 2394 0
	movq	-24(%rbp), %rax	# operands, tmp97
	addq	$16, %rax	#, D.16782
	movq	(%rax), %rdx	# *_14, D.16783
	movq	const_int_rtx+520(%rip), %rax	# const_int_rtx, D.16783
	cmpq	%rax, %rdx	# D.16783, D.16783
	jne	.L605	#,
	.loc 1 2395 0
	movl	$.LC111, %eax	#, D.16780
	jmp	.L604	#
.L605:
	.loc 1 2397 0
	movl	$__FUNCTION__.12227, %edx	#,
	movl	$2397, %esi	#,
	movl	$.LC15, %edi	#,
	call	fancy_abort	#
.L609:
	.loc 1 2400 0
	movq	-24(%rbp), %rax	# operands, tmp98
	addq	$8, %rax	#, D.16782
	movq	(%rax), %rdx	# *_19, D.16783
	movq	-24(%rbp), %rax	# operands, tmp99
	movq	(%rax), %rax	# *operands_4(D), D.16783
	movq	%rdx, %rsi	# D.16783,
	movq	%rax, %rdi	# D.16783,
	call	rtx_equal_p	#
	testl	%eax, %eax	# D.16786
	jne	.L606	#,
	.loc 1 2401 0
	movl	$__FUNCTION__.12227, %edx	#,
	movl	$2401, %esi	#,
	movl	$.LC15, %edi	#,
	call	fancy_abort	#
.L606:
	.loc 1 2404 0
	movq	-24(%rbp), %rax	# operands, tmp100
	addq	$16, %rax	#, D.16782
	movq	(%rax), %rax	# *_23, D.16783
	movq	8(%rax), %rax	# _24->fld[0].rtwint, D.16785
	cmpq	$-128, %rax	#, D.16785
	je	.L607	#,
	.loc 1 2405 0
	movq	-24(%rbp), %rax	# operands, tmp101
	addq	$16, %rax	#, D.16782
	movq	(%rax), %rax	# *_26, D.16783
	movq	8(%rax), %rax	# _27->fld[0].rtwint, D.16785
	testq	%rax, %rax	# D.16785
	jle	.L608	#,
	.loc 1 2406 0
	movq	-24(%rbp), %rax	# operands, tmp102
	addq	$16, %rax	#, D.16782
	movq	(%rax), %rax	# *_29, D.16783
	movq	8(%rax), %rax	# _30->fld[0].rtwint, D.16785
	cmpq	$128, %rax	#, D.16785
	je	.L608	#,
.L607:
	.loc 1 2407 0
	movl	$.LC112, %eax	#, D.16780
	jmp	.L604	#
.L608:
	.loc 1 2408 0
	movq	-24(%rbp), %rax	# operands, tmp103
	leaq	16(%rax), %rbx	#, D.16782
	movq	-24(%rbp), %rax	# operands, tmp104
	addq	$16, %rax	#, D.16782
	movq	(%rax), %rax	# *_33, D.16783
	movq	8(%rax), %rax	# _34->fld[0].rtwint, D.16785
	negq	%rax	# D.16785
	movq	%rax, %rsi	# D.16785,
	movl	$0, %edi	#,
	call	gen_rtx_CONST_INT	#
	movq	%rax, (%rbx)	# D.16783, *_32
	.loc 1 2409 0
	movl	$.LC113, %eax	#, D.16780
.L604:
	.loc 1 2412 0
	addq	$24, %rsp	#,
	popq	%rbx	#
	popq	%rbp	#
	.cfi_def_cfa 7, 8
	ret
	.cfi_endproc
.LFE88:
	.size	output_219, .-output_219
	.type	output_220, @function
output_220:
.LFB89:
	.loc 1 2420 0
	.cfi_startproc
	pushq	%rbp	#
	.cfi_def_cfa_offset 16
	.cfi_offset 6, -16
	movq	%rsp, %rbp	#,
	.cfi_def_cfa_register 6
	pushq	%rbx	#
	subq	$24, %rsp	#,
	.cfi_offset 3, -24
	movq	%rdi, -24(%rbp)	# operands, operands
	movq	%rsi, -32(%rbp)	# insn, insn
	.loc 1 2422 0
	movq	-32(%rbp), %rax	# insn, tmp92
	movq	%rax, %rdi	# tmp92,
	call	get_attr_type	#
	cmpl	$10, %eax	#, D.16788
	jne	.L619	#,
	.loc 1 2425 0
	movq	-24(%rbp), %rax	# operands, tmp93
	addq	$16, %rax	#, D.16789
	movq	(%rax), %rdx	# *_5, D.16790
	movq	const_int_rtx+520(%rip), %rax	# const_int_rtx, D.16790
	cmpq	%rax, %rdx	# D.16790, D.16790
	jne	.L613	#,
	.loc 1 2426 0
	movl	$.LC110, %eax	#, D.16787
	jmp	.L614	#
.L613:
	.loc 1 2427 0
	movq	-24(%rbp), %rax	# operands, tmp94
	addq	$16, %rax	#, D.16789
	movq	(%rax), %rdx	# *_9, D.16790
	movq	const_int_rtx+504(%rip), %rax	# const_int_rtx, D.16790
	cmpq	%rax, %rdx	# D.16790, D.16790
	je	.L615	#,
	.loc 1 2428 0
	movq	-24(%rbp), %rax	# operands, tmp95
	addq	$16, %rax	#, D.16789
	movq	(%rax), %rax	# *_12, D.16790
	movzwl	(%rax), %eax	# _13->code, D.16791
	cmpw	$54, %ax	#, D.16791
	jne	.L616	#,
	.loc 1 2429 0
	movq	-24(%rbp), %rax	# operands, tmp96
	addq	$16, %rax	#, D.16789
	movq	(%rax), %rax	# *_15, D.16790
	movq	8(%rax), %rax	# _16->fld[0].rtwint, D.16792
	cmpq	$65535, %rax	#, D.16792
	jne	.L616	#,
.L615:
	.loc 1 2430 0
	movl	$.LC111, %eax	#, D.16787
	jmp	.L614	#
.L616:
	.loc 1 2431 0
	movl	$__FUNCTION__.12237, %edx	#,
	movl	$2431, %esi	#,
	movl	$.LC15, %edi	#,
	call	fancy_abort	#
.L619:
	.loc 1 2436 0
	movq	-24(%rbp), %rax	# operands, tmp97
	addq	$16, %rax	#, D.16789
	movq	(%rax), %rax	# *_19, D.16790
	movzwl	(%rax), %eax	# _20->code, D.16791
	cmpw	$54, %ax	#, D.16791
	jne	.L617	#,
	.loc 1 2437 0
	movq	-24(%rbp), %rax	# operands, tmp98
	addq	$16, %rax	#, D.16789
	movq	(%rax), %rax	# *_22, D.16790
	movq	8(%rax), %rax	# _23->fld[0].rtwint, D.16792
	cmpq	$128, %rax	#, D.16792
	je	.L618	#,
	.loc 1 2438 0
	movq	-24(%rbp), %rax	# operands, tmp99
	addq	$16, %rax	#, D.16789
	movq	(%rax), %rax	# *_25, D.16790
	movq	8(%rax), %rax	# _26->fld[0].rtwint, D.16792
	testq	%rax, %rax	# D.16792
	jns	.L617	#,
	.loc 1 2439 0
	movq	-24(%rbp), %rax	# operands, tmp100
	addq	$16, %rax	#, D.16789
	movq	(%rax), %rax	# *_28, D.16790
	movq	8(%rax), %rax	# _29->fld[0].rtwint, D.16792
	cmpq	$-128, %rax	#, D.16792
	je	.L617	#,
.L618:
	.loc 1 2441 0
	movq	-24(%rbp), %rax	# operands, tmp101
	leaq	16(%rax), %rbx	#, D.16789
	movq	-24(%rbp), %rax	# operands, tmp102
	addq	$16, %rax	#, D.16789
	movq	(%rax), %rax	# *_32, D.16790
	movq	8(%rax), %rax	# _33->fld[0].rtwint, D.16792
	negq	%rax	# D.16792
	movq	%rax, %rsi	# D.16792,
	movl	$0, %edi	#,
	call	gen_rtx_CONST_INT	#
	movq	%rax, (%rbx)	# D.16790, *_31
	.loc 1 2442 0
	movl	$.LC112, %eax	#, D.16787
	jmp	.L614	#
.L617:
	.loc 1 2444 0
	movl	$.LC113, %eax	#, D.16787
.L614:
	.loc 1 2447 0
	addq	$24, %rsp	#,
	popq	%rbx	#
	popq	%rbp	#
	.cfi_def_cfa 7, 8
	ret
	.cfi_endproc
.LFE89:
	.size	output_220, .-output_220
	.section	.rodata
.LC114:
	.string	"inc{b}\t%0"
.LC115:
	.string	"dec{b}\t%0"
.LC116:
	.string	"sub{b}\t{%2, %0|%0, %2}"
.LC117:
	.string	"add{l}\t{%k2, %k0|%k0, %k2}"
.LC118:
	.string	"add{b}\t{%2, %0|%0, %2}"
	.text
	.type	output_221, @function
output_221:
.LFB90:
	.loc 1 2455 0
	.cfi_startproc
	pushq	%rbp	#
	.cfi_def_cfa_offset 16
	.cfi_offset 6, -16
	movq	%rsp, %rbp	#,
	.cfi_def_cfa_register 6
	pushq	%rbx	#
	subq	$40, %rsp	#,
	.cfi_offset 3, -24
	movq	%rdi, -40(%rbp)	# operands, operands
	movq	%rsi, -48(%rbp)	# insn, insn
.LBB2:
	.loc 1 2457 0
	movl	which_alternative(%rip), %eax	# which_alternative, which_alternative.46
	cmpl	$2, %eax	#, which_alternative.46
	sete	%al	#, D.16794
	movzbl	%al, %eax	# D.16794, tmp96
	movl	%eax, -20(%rbp)	# tmp96, widen
	.loc 1 2458 0
	movq	-48(%rbp), %rax	# insn, tmp97
	movq	%rax, %rdi	# tmp97,
	call	get_attr_type	#
	cmpl	$9, %eax	#, D.16795
	je	.L622	#,
	cmpl	$10, %eax	#, D.16795
	je	.L623	#,
	jmp	.L636	#
.L622:
	.loc 1 2461 0
	movl	$.LC45, %eax	#, D.16793
	jmp	.L624	#
.L623:
	.loc 1 2463 0
	movq	-40(%rbp), %rax	# operands, tmp98
	addq	$16, %rax	#, D.16796
	movq	(%rax), %rdx	# *_11, D.16797
	movq	const_int_rtx+520(%rip), %rax	# const_int_rtx, D.16797
	cmpq	%rax, %rdx	# D.16797, D.16797
	jne	.L625	#,
	.loc 1 2464 0
	cmpl	$0, -20(%rbp)	#, widen
	je	.L626	#,
	.loc 1 2464 0 is_stmt 0 discriminator 1
	movl	$.LC106, %eax	#, iftmp.47
	jmp	.L627	#
.L626:
	.loc 1 2464 0 discriminator 2
	movl	$.LC114, %eax	#, iftmp.47
.L627:
	.loc 1 2464 0 discriminator 3
	jmp	.L624	#
.L625:
	.loc 1 2465 0 is_stmt 1
	movq	-40(%rbp), %rax	# operands, tmp99
	addq	$16, %rax	#, D.16796
	movq	(%rax), %rdx	# *_17, D.16797
	movq	const_int_rtx+504(%rip), %rax	# const_int_rtx, D.16797
	cmpq	%rax, %rdx	# D.16797, D.16797
	je	.L628	#,
	.loc 1 2466 0
	movq	-40(%rbp), %rax	# operands, tmp100
	addq	$16, %rax	#, D.16796
	movq	(%rax), %rax	# *_20, D.16797
	movzwl	(%rax), %eax	# _21->code, D.16798
	cmpw	$54, %ax	#, D.16798
	jne	.L629	#,
	.loc 1 2467 0
	movq	-40(%rbp), %rax	# operands, tmp101
	addq	$16, %rax	#, D.16796
	movq	(%rax), %rax	# *_23, D.16797
	movq	8(%rax), %rax	# _24->fld[0].rtwint, D.16799
	cmpq	$255, %rax	#, D.16799
	jne	.L629	#,
.L628:
	.loc 1 2468 0
	cmpl	$0, -20(%rbp)	#, widen
	je	.L630	#,
	.loc 1 2468 0 is_stmt 0 discriminator 1
	movl	$.LC107, %eax	#, iftmp.48
	jmp	.L631	#
.L630:
	.loc 1 2468 0 discriminator 2
	movl	$.LC115, %eax	#, iftmp.48
.L631:
	.loc 1 2468 0 discriminator 3
	jmp	.L624	#
.L629:
	.loc 1 2469 0 is_stmt 1
	movl	$__FUNCTION__.12249, %edx	#,
	movl	$2469, %esi	#,
	movl	$.LC15, %edi	#,
	call	fancy_abort	#
.L636:
	.loc 1 2474 0
	movq	-40(%rbp), %rax	# operands, tmp102
	addq	$16, %rax	#, D.16796
	movq	(%rax), %rax	# *_29, D.16797
	movzwl	(%rax), %eax	# _30->code, D.16798
	cmpw	$54, %ax	#, D.16798
	jne	.L632	#,
	.loc 1 2475 0
	movq	-40(%rbp), %rax	# operands, tmp103
	addq	$16, %rax	#, D.16796
	movq	(%rax), %rax	# *_32, D.16797
	movq	8(%rax), %rax	# _33->fld[0].rtwint, D.16799
	cmpq	$128, %rax	#, D.16799
	je	.L633	#,
	.loc 1 2476 0
	movq	-40(%rbp), %rax	# operands, tmp104
	addq	$16, %rax	#, D.16796
	movq	(%rax), %rax	# *_35, D.16797
	movq	8(%rax), %rax	# _36->fld[0].rtwint, D.16799
	testq	%rax, %rax	# D.16799
	jns	.L632	#,
	.loc 1 2477 0
	movq	-40(%rbp), %rax	# operands, tmp105
	addq	$16, %rax	#, D.16796
	movq	(%rax), %rax	# *_38, D.16797
	movq	8(%rax), %rax	# _39->fld[0].rtwint, D.16799
	cmpq	$-128, %rax	#, D.16799
	je	.L632	#,
.L633:
	.loc 1 2479 0
	movq	-40(%rbp), %rax	# operands, tmp106
	leaq	16(%rax), %rbx	#, D.16796
	movq	-40(%rbp), %rax	# operands, tmp107
	addq	$16, %rax	#, D.16796
	movq	(%rax), %rax	# *_42, D.16797
	movq	8(%rax), %rax	# _43->fld[0].rtwint, D.16799
	negq	%rax	# D.16799
	movq	%rax, %rsi	# D.16799,
	movl	$0, %edi	#,
	call	gen_rtx_CONST_INT	#
	movq	%rax, (%rbx)	# D.16797, *_41
	.loc 1 2480 0
	cmpl	$0, -20(%rbp)	#, widen
	je	.L634	#,
	.loc 1 2481 0
	movl	$.LC108, %eax	#, D.16793
	jmp	.L624	#
.L634:
	.loc 1 2483 0
	movl	$.LC116, %eax	#, D.16793
	jmp	.L624	#
.L632:
	.loc 1 2485 0
	cmpl	$0, -20(%rbp)	#, widen
	je	.L635	#,
	.loc 1 2486 0
	movl	$.LC117, %eax	#, D.16793
	jmp	.L624	#
.L635:
	.loc 1 2488 0
	movl	$.LC118, %eax	#, D.16793
.L624:
.LBE2:
	.loc 1 2491 0
	addq	$40, %rsp	#,
	popq	%rbx	#
	popq	%rbp	#
	.cfi_def_cfa 7, 8
	ret
	.cfi_endproc
.LFE90:
	.size	output_221, .-output_221
	.type	output_222, @function
output_222:
.LFB91:
	.loc 1 2499 0
	.cfi_startproc
	pushq	%rbp	#
	.cfi_def_cfa_offset 16
	.cfi_offset 6, -16
	movq	%rsp, %rbp	#,
	.cfi_def_cfa_register 6
	pushq	%rbx	#
	subq	$40, %rsp	#,
	.cfi_offset 3, -24
	movq	%rdi, -40(%rbp)	# operands, operands
	movq	%rsi, -48(%rbp)	# insn, insn
.LBB3:
	.loc 1 2501 0
	movl	which_alternative(%rip), %eax	# which_alternative, which_alternative.49
	cmpl	$2, %eax	#, which_alternative.49
	sete	%al	#, D.16806
	movzbl	%al, %eax	# D.16806, tmp96
	movl	%eax, -20(%rbp)	# tmp96, widen
	.loc 1 2502 0
	movq	-48(%rbp), %rax	# insn, tmp97
	movq	%rax, %rdi	# tmp97,
	call	get_attr_type	#
	cmpl	$10, %eax	#, D.16807
	jne	.L652	#,
	.loc 1 2505 0
	movq	-40(%rbp), %rax	# operands, tmp98
	addq	$16, %rax	#, D.16808
	movq	(%rax), %rdx	# *_10, D.16809
	movq	const_int_rtx+520(%rip), %rax	# const_int_rtx, D.16809
	cmpq	%rax, %rdx	# D.16809, D.16809
	jne	.L640	#,
	.loc 1 2506 0
	cmpl	$0, -20(%rbp)	#, widen
	je	.L641	#,
	.loc 1 2506 0 is_stmt 0 discriminator 1
	movl	$.LC106, %eax	#, iftmp.50
	jmp	.L642	#
.L641:
	.loc 1 2506 0 discriminator 2
	movl	$.LC114, %eax	#, iftmp.50
.L642:
	.loc 1 2506 0 discriminator 3
	jmp	.L643	#
.L640:
	.loc 1 2507 0 is_stmt 1
	movq	-40(%rbp), %rax	# operands, tmp99
	addq	$16, %rax	#, D.16808
	movq	(%rax), %rdx	# *_16, D.16809
	movq	const_int_rtx+504(%rip), %rax	# const_int_rtx, D.16809
	cmpq	%rax, %rdx	# D.16809, D.16809
	je	.L644	#,
	.loc 1 2508 0
	movq	-40(%rbp), %rax	# operands, tmp100
	addq	$16, %rax	#, D.16808
	movq	(%rax), %rax	# *_19, D.16809
	movzwl	(%rax), %eax	# _20->code, D.16810
	cmpw	$54, %ax	#, D.16810
	jne	.L645	#,
	.loc 1 2509 0
	movq	-40(%rbp), %rax	# operands, tmp101
	addq	$16, %rax	#, D.16808
	movq	(%rax), %rax	# *_22, D.16809
	movq	8(%rax), %rax	# _23->fld[0].rtwint, D.16811
	cmpq	$255, %rax	#, D.16811
	jne	.L645	#,
.L644:
	.loc 1 2510 0
	cmpl	$0, -20(%rbp)	#, widen
	je	.L646	#,
	.loc 1 2510 0 is_stmt 0 discriminator 1
	movl	$.LC107, %eax	#, iftmp.51
	jmp	.L647	#
.L646:
	.loc 1 2510 0 discriminator 2
	movl	$.LC115, %eax	#, iftmp.51
.L647:
	.loc 1 2510 0 discriminator 3
	jmp	.L643	#
.L645:
	.loc 1 2511 0 is_stmt 1
	movl	$__FUNCTION__.12260, %edx	#,
	movl	$2511, %esi	#,
	movl	$.LC15, %edi	#,
	call	fancy_abort	#
.L652:
	.loc 1 2516 0
	movq	-40(%rbp), %rax	# operands, tmp102
	addq	$16, %rax	#, D.16808
	movq	(%rax), %rax	# *_28, D.16809
	movzwl	(%rax), %eax	# _29->code, D.16810
	cmpw	$54, %ax	#, D.16810
	jne	.L648	#,
	.loc 1 2517 0
	movq	-40(%rbp), %rax	# operands, tmp103
	addq	$16, %rax	#, D.16808
	movq	(%rax), %rax	# *_31, D.16809
	movq	8(%rax), %rax	# _32->fld[0].rtwint, D.16811
	cmpq	$128, %rax	#, D.16811
	je	.L649	#,
	.loc 1 2518 0
	movq	-40(%rbp), %rax	# operands, tmp104
	addq	$16, %rax	#, D.16808
	movq	(%rax), %rax	# *_34, D.16809
	movq	8(%rax), %rax	# _35->fld[0].rtwint, D.16811
	testq	%rax, %rax	# D.16811
	jns	.L648	#,
	.loc 1 2519 0
	movq	-40(%rbp), %rax	# operands, tmp105
	addq	$16, %rax	#, D.16808
	movq	(%rax), %rax	# *_37, D.16809
	movq	8(%rax), %rax	# _38->fld[0].rtwint, D.16811
	cmpq	$-128, %rax	#, D.16811
	je	.L648	#,
.L649:
	.loc 1 2521 0
	movq	-40(%rbp), %rax	# operands, tmp106
	leaq	16(%rax), %rbx	#, D.16808
	movq	-40(%rbp), %rax	# operands, tmp107
	addq	$16, %rax	#, D.16808
	movq	(%rax), %rax	# *_41, D.16809
	movq	8(%rax), %rax	# _42->fld[0].rtwint, D.16811
	negq	%rax	# D.16811
	movq	%rax, %rsi	# D.16811,
	movl	$0, %edi	#,
	call	gen_rtx_CONST_INT	#
	movq	%rax, (%rbx)	# D.16809, *_40
	.loc 1 2522 0
	cmpl	$0, -20(%rbp)	#, widen
	je	.L650	#,
	.loc 1 2523 0
	movl	$.LC108, %eax	#, D.16805
	jmp	.L643	#
.L650:
	.loc 1 2525 0
	movl	$.LC116, %eax	#, D.16805
	jmp	.L643	#
.L648:
	.loc 1 2527 0
	cmpl	$0, -20(%rbp)	#, widen
	je	.L651	#,
	.loc 1 2528 0
	movl	$.LC117, %eax	#, D.16805
	jmp	.L643	#
.L651:
	.loc 1 2530 0
	movl	$.LC118, %eax	#, D.16805
.L643:
.LBE3:
	.loc 1 2533 0
	addq	$40, %rsp	#,
	popq	%rbx	#
	popq	%rbp	#
	.cfi_def_cfa 7, 8
	ret
	.cfi_endproc
.LFE91:
	.size	output_222, .-output_222
	.type	output_223, @function
output_223:
.LFB92:
	.loc 1 2541 0
	.cfi_startproc
	pushq	%rbp	#
	.cfi_def_cfa_offset 16
	.cfi_offset 6, -16
	movq	%rsp, %rbp	#,
	.cfi_def_cfa_register 6
	pushq	%rbx	#
	subq	$24, %rsp	#,
	.cfi_offset 3, -24
	movq	%rdi, -24(%rbp)	# operands, operands
	movq	%rsi, -32(%rbp)	# insn, insn
	.loc 1 2543 0
	movq	-32(%rbp), %rax	# insn, tmp86
	movq	%rax, %rdi	# tmp86,
	call	get_attr_type	#
	cmpl	$10, %eax	#, D.16813
	jne	.L661	#,
	.loc 1 2546 0
	movq	-24(%rbp), %rax	# operands, tmp87
	addq	$16, %rax	#, D.16814
	movq	(%rax), %rdx	# *_5, D.16815
	movq	const_int_rtx+520(%rip), %rax	# const_int_rtx, D.16815
	cmpq	%rax, %rdx	# D.16815, D.16815
	jne	.L656	#,
	.loc 1 2547 0
	movl	$.LC114, %eax	#, D.16812
	jmp	.L657	#
.L656:
	.loc 1 2548 0
	movq	-24(%rbp), %rax	# operands, tmp88
	addq	$16, %rax	#, D.16814
	movq	(%rax), %rdx	# *_9, D.16815
	movq	const_int_rtx+504(%rip), %rax	# const_int_rtx, D.16815
	cmpq	%rax, %rdx	# D.16815, D.16815
	je	.L658	#,
	.loc 1 2549 0
	movq	-24(%rbp), %rax	# operands, tmp89
	addq	$16, %rax	#, D.16814
	movq	(%rax), %rax	# *_12, D.16815
	movzwl	(%rax), %eax	# _13->code, D.16816
	cmpw	$54, %ax	#, D.16816
	jne	.L659	#,
	.loc 1 2550 0
	movq	-24(%rbp), %rax	# operands, tmp90
	addq	$16, %rax	#, D.16814
	movq	(%rax), %rax	# *_15, D.16815
	movq	8(%rax), %rax	# _16->fld[0].rtwint, D.16817
	cmpq	$255, %rax	#, D.16817
	jne	.L659	#,
.L658:
	.loc 1 2551 0
	movl	$.LC115, %eax	#, D.16812
	jmp	.L657	#
.L659:
	.loc 1 2552 0
	movl	$__FUNCTION__.12270, %edx	#,
	movl	$2552, %esi	#,
	movl	$.LC15, %edi	#,
	call	fancy_abort	#
.L661:
	.loc 1 2556 0
	movq	-24(%rbp), %rax	# operands, tmp91
	addq	$16, %rax	#, D.16814
	movq	(%rax), %rax	# *_19, D.16815
	movzwl	(%rax), %eax	# _20->code, D.16816
	cmpw	$54, %ax	#, D.16816
	jne	.L660	#,
	.loc 1 2557 0
	movq	-24(%rbp), %rax	# operands, tmp92
	addq	$16, %rax	#, D.16814
	movq	(%rax), %rax	# *_22, D.16815
	movq	8(%rax), %rax	# _23->fld[0].rtwint, D.16817
	testq	%rax, %rax	# D.16817
	jns	.L660	#,
	.loc 1 2559 0
	movq	-24(%rbp), %rax	# operands, tmp93
	leaq	16(%rax), %rbx	#, D.16814
	movq	-24(%rbp), %rax	# operands, tmp94
	addq	$16, %rax	#, D.16814
	movq	(%rax), %rax	# *_26, D.16815
	movq	8(%rax), %rax	# _27->fld[0].rtwint, D.16817
	negq	%rax	# D.16817
	movq	%rax, %rsi	# D.16817,
	movl	$0, %edi	#,
	call	gen_rtx_CONST_INT	#
	movq	%rax, (%rbx)	# D.16815, *_25
	.loc 1 2560 0
	movl	$.LC116, %eax	#, D.16812
	jmp	.L657	#
.L660:
	.loc 1 2562 0
	movl	$.LC118, %eax	#, D.16812
.L657:
	.loc 1 2565 0
	addq	$24, %rsp	#,
	popq	%rbx	#
	popq	%rbp	#
	.cfi_def_cfa 7, 8
	ret
	.cfi_endproc
.LFE92:
	.size	output_223, .-output_223
	.type	output_224, @function
output_224:
.LFB93:
	.loc 1 2573 0
	.cfi_startproc
	pushq	%rbp	#
	.cfi_def_cfa_offset 16
	.cfi_offset 6, -16
	movq	%rsp, %rbp	#,
	.cfi_def_cfa_register 6
	pushq	%rbx	#
	subq	$24, %rsp	#,
	.cfi_offset 3, -24
	movq	%rdi, -24(%rbp)	# operands, operands
	movq	%rsi, -32(%rbp)	# insn, insn
	.loc 1 2575 0
	movq	-32(%rbp), %rax	# insn, tmp86
	movq	%rax, %rdi	# tmp86,
	call	get_attr_type	#
	cmpl	$10, %eax	#, D.16819
	jne	.L670	#,
	.loc 1 2578 0
	movq	-24(%rbp), %rax	# operands, tmp87
	addq	$16, %rax	#, D.16820
	movq	(%rax), %rdx	# *_5, D.16821
	movq	const_int_rtx+520(%rip), %rax	# const_int_rtx, D.16821
	cmpq	%rax, %rdx	# D.16821, D.16821
	jne	.L665	#,
	.loc 1 2579 0
	movl	$.LC114, %eax	#, D.16818
	jmp	.L666	#
.L665:
	.loc 1 2580 0
	movq	-24(%rbp), %rax	# operands, tmp88
	addq	$16, %rax	#, D.16820
	movq	(%rax), %rdx	# *_9, D.16821
	movq	const_int_rtx+504(%rip), %rax	# const_int_rtx, D.16821
	cmpq	%rax, %rdx	# D.16821, D.16821
	je	.L667	#,
	.loc 1 2581 0
	movq	-24(%rbp), %rax	# operands, tmp89
	addq	$16, %rax	#, D.16820
	movq	(%rax), %rax	# *_12, D.16821
	movzwl	(%rax), %eax	# _13->code, D.16822
	cmpw	$54, %ax	#, D.16822
	jne	.L668	#,
	.loc 1 2582 0
	movq	-24(%rbp), %rax	# operands, tmp90
	addq	$16, %rax	#, D.16820
	movq	(%rax), %rax	# *_15, D.16821
	movq	8(%rax), %rax	# _16->fld[0].rtwint, D.16823
	cmpq	$255, %rax	#, D.16823
	jne	.L668	#,
.L667:
	.loc 1 2583 0
	movl	$.LC115, %eax	#, D.16818
	jmp	.L666	#
.L668:
	.loc 1 2584 0
	movl	$__FUNCTION__.12280, %edx	#,
	movl	$2584, %esi	#,
	movl	$.LC15, %edi	#,
	call	fancy_abort	#
.L670:
	.loc 1 2588 0
	movq	-24(%rbp), %rax	# operands, tmp91
	addq	$16, %rax	#, D.16820
	movq	(%rax), %rax	# *_19, D.16821
	movzwl	(%rax), %eax	# _20->code, D.16822
	cmpw	$54, %ax	#, D.16822
	jne	.L669	#,
	.loc 1 2589 0
	movq	-24(%rbp), %rax	# operands, tmp92
	addq	$16, %rax	#, D.16820
	movq	(%rax), %rax	# *_22, D.16821
	movq	8(%rax), %rax	# _23->fld[0].rtwint, D.16823
	testq	%rax, %rax	# D.16823
	jns	.L669	#,
	.loc 1 2591 0
	movq	-24(%rbp), %rax	# operands, tmp93
	leaq	16(%rax), %rbx	#, D.16820
	movq	-24(%rbp), %rax	# operands, tmp94
	addq	$16, %rax	#, D.16820
	movq	(%rax), %rax	# *_26, D.16821
	movq	8(%rax), %rax	# _27->fld[0].rtwint, D.16823
	negq	%rax	# D.16823
	movq	%rax, %rsi	# D.16823,
	movl	$0, %edi	#,
	call	gen_rtx_CONST_INT	#
	movq	%rax, (%rbx)	# D.16821, *_25
	.loc 1 2592 0
	movl	$.LC116, %eax	#, D.16818
	jmp	.L666	#
.L669:
	.loc 1 2594 0
	movl	$.LC118, %eax	#, D.16818
.L666:
	.loc 1 2597 0
	addq	$24, %rsp	#,
	popq	%rbx	#
	popq	%rbp	#
	.cfi_def_cfa 7, 8
	ret
	.cfi_endproc
.LFE93:
	.size	output_224, .-output_224
	.type	output_225, @function
output_225:
.LFB94:
	.loc 1 2605 0
	.cfi_startproc
	pushq	%rbp	#
	.cfi_def_cfa_offset 16
	.cfi_offset 6, -16
	movq	%rsp, %rbp	#,
	.cfi_def_cfa_register 6
	pushq	%rbx	#
	subq	$24, %rsp	#,
	.cfi_offset 3, -24
	movq	%rdi, -24(%rbp)	# operands, operands
	movq	%rsi, -32(%rbp)	# insn, insn
	.loc 1 2607 0
	movq	-32(%rbp), %rax	# insn, tmp87
	movq	%rax, %rdi	# tmp87,
	call	get_attr_type	#
	cmpl	$10, %eax	#, D.16825
	jne	.L680	#,
	.loc 1 2610 0
	movq	-24(%rbp), %rax	# operands, tmp88
	addq	$16, %rax	#, D.16826
	movq	(%rax), %rdx	# *_5, D.16827
	movq	const_int_rtx+504(%rip), %rax	# const_int_rtx, D.16827
	cmpq	%rax, %rdx	# D.16827, D.16827
	je	.L674	#,
	.loc 1 2611 0
	movq	-24(%rbp), %rax	# operands, tmp89
	addq	$16, %rax	#, D.16826
	movq	(%rax), %rax	# *_8, D.16827
	movzwl	(%rax), %eax	# _9->code, D.16828
	cmpw	$54, %ax	#, D.16828
	jne	.L675	#,
	.loc 1 2612 0
	movq	-24(%rbp), %rax	# operands, tmp90
	addq	$16, %rax	#, D.16826
	movq	(%rax), %rax	# *_11, D.16827
	movq	8(%rax), %rax	# _12->fld[0].rtwint, D.16829
	cmpq	$255, %rax	#, D.16829
	jne	.L675	#,
.L674:
	.loc 1 2613 0
	movl	$.LC114, %eax	#, D.16824
	jmp	.L676	#
.L675:
	.loc 1 2614 0
	movq	-24(%rbp), %rax	# operands, tmp91
	addq	$16, %rax	#, D.16826
	movq	(%rax), %rdx	# *_14, D.16827
	movq	const_int_rtx+520(%rip), %rax	# const_int_rtx, D.16827
	cmpq	%rax, %rdx	# D.16827, D.16827
	jne	.L677	#,
	.loc 1 2615 0
	movl	$.LC115, %eax	#, D.16824
	jmp	.L676	#
.L677:
	.loc 1 2617 0
	movl	$__FUNCTION__.12290, %edx	#,
	movl	$2617, %esi	#,
	movl	$.LC15, %edi	#,
	call	fancy_abort	#
.L680:
	.loc 1 2620 0
	movq	-24(%rbp), %rax	# operands, tmp92
	addq	$8, %rax	#, D.16826
	movq	(%rax), %rdx	# *_19, D.16827
	movq	-24(%rbp), %rax	# operands, tmp93
	movq	(%rax), %rax	# *operands_4(D), D.16827
	movq	%rdx, %rsi	# D.16827,
	movq	%rax, %rdi	# D.16827,
	call	rtx_equal_p	#
	testl	%eax, %eax	# D.16830
	jne	.L678	#,
	.loc 1 2621 0
	movl	$__FUNCTION__.12290, %edx	#,
	movl	$2621, %esi	#,
	movl	$.LC15, %edi	#,
	call	fancy_abort	#
.L678:
	.loc 1 2622 0
	movq	-24(%rbp), %rax	# operands, tmp94
	addq	$16, %rax	#, D.16826
	movq	(%rax), %rax	# *_23, D.16827
	movq	8(%rax), %rax	# _24->fld[0].rtwint, D.16829
	testq	%rax, %rax	# D.16829
	jns	.L679	#,
	.loc 1 2624 0
	movq	-24(%rbp), %rax	# operands, tmp95
	leaq	16(%rax), %rbx	#, D.16826
	movq	-24(%rbp), %rax	# operands, tmp96
	addq	$16, %rax	#, D.16826
	movq	(%rax), %rax	# *_27, D.16827
	movq	8(%rax), %rax	# _28->fld[0].rtwint, D.16829
	negq	%rax	# D.16829
	movq	%rax, %rsi	# D.16829,
	movl	$0, %edi	#,
	call	gen_rtx_CONST_INT	#
	movq	%rax, (%rbx)	# D.16827, *_26
	.loc 1 2625 0
	movl	$.LC118, %eax	#, D.16824
	jmp	.L676	#
.L679:
	.loc 1 2627 0
	movl	$.LC116, %eax	#, D.16824
.L676:
	.loc 1 2630 0
	addq	$24, %rsp	#,
	popq	%rbx	#
	popq	%rbp	#
	.cfi_def_cfa 7, 8
	ret
	.cfi_endproc
.LFE94:
	.size	output_225, .-output_225
	.type	output_226, @function
output_226:
.LFB95:
	.loc 1 2638 0
	.cfi_startproc
	pushq	%rbp	#
	.cfi_def_cfa_offset 16
	.cfi_offset 6, -16
	movq	%rsp, %rbp	#,
	.cfi_def_cfa_register 6
	pushq	%rbx	#
	subq	$24, %rsp	#,
	.cfi_offset 3, -24
	movq	%rdi, -24(%rbp)	# operands, operands
	movq	%rsi, -32(%rbp)	# insn, insn
	.loc 1 2640 0
	movq	-32(%rbp), %rax	# insn, tmp86
	movq	%rax, %rdi	# tmp86,
	call	get_attr_type	#
	cmpl	$10, %eax	#, D.16832
	jne	.L689	#,
	.loc 1 2643 0
	movq	-24(%rbp), %rax	# operands, tmp87
	addq	$16, %rax	#, D.16833
	movq	(%rax), %rdx	# *_5, D.16834
	movq	const_int_rtx+520(%rip), %rax	# const_int_rtx, D.16834
	cmpq	%rax, %rdx	# D.16834, D.16834
	jne	.L684	#,
	.loc 1 2644 0
	movl	$.LC114, %eax	#, D.16831
	jmp	.L685	#
.L684:
	.loc 1 2645 0
	movq	-24(%rbp), %rax	# operands, tmp88
	addq	$16, %rax	#, D.16833
	movq	(%rax), %rdx	# *_9, D.16834
	movq	const_int_rtx+504(%rip), %rax	# const_int_rtx, D.16834
	cmpq	%rax, %rdx	# D.16834, D.16834
	je	.L686	#,
	.loc 1 2646 0
	movq	-24(%rbp), %rax	# operands, tmp89
	addq	$16, %rax	#, D.16833
	movq	(%rax), %rax	# *_12, D.16834
	movzwl	(%rax), %eax	# _13->code, D.16835
	cmpw	$54, %ax	#, D.16835
	jne	.L687	#,
	.loc 1 2647 0
	movq	-24(%rbp), %rax	# operands, tmp90
	addq	$16, %rax	#, D.16833
	movq	(%rax), %rax	# *_15, D.16834
	movq	8(%rax), %rax	# _16->fld[0].rtwint, D.16836
	cmpq	$255, %rax	#, D.16836
	jne	.L687	#,
.L686:
	.loc 1 2648 0
	movl	$.LC115, %eax	#, D.16831
	jmp	.L685	#
.L687:
	.loc 1 2649 0
	movl	$__FUNCTION__.12300, %edx	#,
	movl	$2649, %esi	#,
	movl	$.LC15, %edi	#,
	call	fancy_abort	#
.L689:
	.loc 1 2653 0
	movq	-24(%rbp), %rax	# operands, tmp91
	addq	$16, %rax	#, D.16833
	movq	(%rax), %rax	# *_19, D.16834
	movzwl	(%rax), %eax	# _20->code, D.16835
	cmpw	$54, %ax	#, D.16835
	jne	.L688	#,
	.loc 1 2654 0
	movq	-24(%rbp), %rax	# operands, tmp92
	addq	$16, %rax	#, D.16833
	movq	(%rax), %rax	# *_22, D.16834
	movq	8(%rax), %rax	# _23->fld[0].rtwint, D.16836
	testq	%rax, %rax	# D.16836
	jns	.L688	#,
	.loc 1 2656 0
	movq	-24(%rbp), %rax	# operands, tmp93
	leaq	16(%rax), %rbx	#, D.16833
	movq	-24(%rbp), %rax	# operands, tmp94
	addq	$16, %rax	#, D.16833
	movq	(%rax), %rax	# *_26, D.16834
	movq	8(%rax), %rax	# _27->fld[0].rtwint, D.16836
	negq	%rax	# D.16836
	movq	%rax, %rsi	# D.16836,
	movl	$0, %edi	#,
	call	gen_rtx_CONST_INT	#
	movq	%rax, (%rbx)	# D.16834, *_25
	.loc 1 2657 0
	movl	$.LC116, %eax	#, D.16831
	jmp	.L685	#
.L688:
	.loc 1 2659 0
	movl	$.LC118, %eax	#, D.16831
.L685:
	.loc 1 2662 0
	addq	$24, %rsp	#,
	popq	%rbx	#
	popq	%rbp	#
	.cfi_def_cfa 7, 8
	ret
	.cfi_endproc
.LFE95:
	.size	output_226, .-output_226
	.section	.rodata
.LC119:
	.string	"inc{b}\t%h0"
.LC120:
	.string	"dec{b}\t%h0"
.LC121:
	.string	"add{b}\t{%2, %h0|%h0, %2}"
	.text
	.type	output_227, @function
output_227:
.LFB96:
	.loc 1 2670 0
	.cfi_startproc
	pushq	%rbp	#
	.cfi_def_cfa_offset 16
	.cfi_offset 6, -16
	movq	%rsp, %rbp	#,
	.cfi_def_cfa_register 6
	subq	$16, %rsp	#,
	movq	%rdi, -8(%rbp)	# operands, operands
	movq	%rsi, -16(%rbp)	# insn, insn
	.loc 1 2672 0
	movq	-16(%rbp), %rax	# insn, tmp74
	movq	%rax, %rdi	# tmp74,
	call	get_attr_type	#
	cmpl	$10, %eax	#, D.16838
	jne	.L697	#,
	.loc 1 2675 0
	movq	-8(%rbp), %rax	# operands, tmp75
	addq	$16, %rax	#, D.16839
	movq	(%rax), %rdx	# *_5, D.16840
	movq	const_int_rtx+520(%rip), %rax	# const_int_rtx, D.16840
	cmpq	%rax, %rdx	# D.16840, D.16840
	jne	.L693	#,
	.loc 1 2676 0
	movl	$.LC119, %eax	#, D.16837
	jmp	.L694	#
.L693:
	.loc 1 2677 0
	movq	-8(%rbp), %rax	# operands, tmp76
	addq	$16, %rax	#, D.16839
	movq	(%rax), %rdx	# *_9, D.16840
	movq	const_int_rtx+504(%rip), %rax	# const_int_rtx, D.16840
	cmpq	%rax, %rdx	# D.16840, D.16840
	je	.L695	#,
	.loc 1 2678 0
	movq	-8(%rbp), %rax	# operands, tmp77
	addq	$16, %rax	#, D.16839
	movq	(%rax), %rax	# *_12, D.16840
	movzwl	(%rax), %eax	# _13->code, D.16841
	cmpw	$54, %ax	#, D.16841
	jne	.L696	#,
	.loc 1 2679 0
	movq	-8(%rbp), %rax	# operands, tmp78
	addq	$16, %rax	#, D.16839
	movq	(%rax), %rax	# *_15, D.16840
	movq	8(%rax), %rax	# _16->fld[0].rtwint, D.16842
	cmpq	$255, %rax	#, D.16842
	jne	.L696	#,
.L695:
	.loc 1 2680 0
	movl	$.LC120, %eax	#, D.16837
	jmp	.L694	#
.L696:
	.loc 1 2681 0
	movl	$__FUNCTION__.12310, %edx	#,
	movl	$2681, %esi	#,
	movl	$.LC15, %edi	#,
	call	fancy_abort	#
.L697:
	.loc 1 2684 0
	movl	$.LC121, %eax	#, D.16837
.L694:
	.loc 1 2687 0
	leave
	.cfi_def_cfa 7, 8
	ret
	.cfi_endproc
.LFE96:
	.size	output_227, .-output_227
	.type	output_228, @function
output_228:
.LFB97:
	.loc 1 2695 0
	.cfi_startproc
	pushq	%rbp	#
	.cfi_def_cfa_offset 16
	.cfi_offset 6, -16
	movq	%rsp, %rbp	#,
	.cfi_def_cfa_register 6
	subq	$16, %rsp	#,
	movq	%rdi, -8(%rbp)	# operands, operands
	movq	%rsi, -16(%rbp)	# insn, insn
	.loc 1 2697 0
	movq	-16(%rbp), %rax	# insn, tmp74
	movq	%rax, %rdi	# tmp74,
	call	get_attr_type	#
	cmpl	$10, %eax	#, D.16847
	jne	.L705	#,
	.loc 1 2700 0
	movq	-8(%rbp), %rax	# operands, tmp75
	addq	$16, %rax	#, D.16848
	movq	(%rax), %rdx	# *_5, D.16849
	movq	const_int_rtx+520(%rip), %rax	# const_int_rtx, D.16849
	cmpq	%rax, %rdx	# D.16849, D.16849
	jne	.L701	#,
	.loc 1 2701 0
	movl	$.LC119, %eax	#, D.16846
	jmp	.L702	#
.L701:
	.loc 1 2702 0
	movq	-8(%rbp), %rax	# operands, tmp76
	addq	$16, %rax	#, D.16848
	movq	(%rax), %rdx	# *_9, D.16849
	movq	const_int_rtx+504(%rip), %rax	# const_int_rtx, D.16849
	cmpq	%rax, %rdx	# D.16849, D.16849
	je	.L703	#,
	.loc 1 2703 0
	movq	-8(%rbp), %rax	# operands, tmp77
	addq	$16, %rax	#, D.16848
	movq	(%rax), %rax	# *_12, D.16849
	movzwl	(%rax), %eax	# _13->code, D.16850
	cmpw	$54, %ax	#, D.16850
	jne	.L704	#,
	.loc 1 2704 0
	movq	-8(%rbp), %rax	# operands, tmp78
	addq	$16, %rax	#, D.16848
	movq	(%rax), %rax	# *_15, D.16849
	movq	8(%rax), %rax	# _16->fld[0].rtwint, D.16851
	cmpq	$255, %rax	#, D.16851
	jne	.L704	#,
.L703:
	.loc 1 2705 0
	movl	$.LC120, %eax	#, D.16846
	jmp	.L702	#
.L704:
	.loc 1 2706 0
	movl	$__FUNCTION__.12320, %edx	#,
	movl	$2706, %esi	#,
	movl	$.LC15, %edi	#,
	call	fancy_abort	#
.L705:
	.loc 1 2709 0
	movl	$.LC121, %eax	#, D.16846
.L702:
	.loc 1 2712 0
	leave
	.cfi_def_cfa 7, 8
	ret
	.cfi_endproc
.LFE97:
	.size	output_228, .-output_228
	.section	.rodata
	.align 8
.LC122:
	.string	"imul{q}\t{%2, %1, %0|%0, %1, %2}"
.LC123:
	.string	"imul{q}\t{%2, %0|%0, %2}"
	.align 16
	.type	output_249, @object
	.size	output_249, 24
output_249:
	.quad	.LC122
	.quad	.LC122
	.quad	.LC123
	.align 8
.LC124:
	.string	"imul{l}\t{%2, %1, %0|%0, %1, %2}"
.LC125:
	.string	"imul{l}\t{%2, %0|%0, %2}"
	.align 16
	.type	output_250, @object
	.size	output_250, 24
output_250:
	.quad	.LC124
	.quad	.LC124
	.quad	.LC125
	.align 8
.LC126:
	.string	"imul{l}\t{%2, %1, %k0|%k0, %1, %2}"
.LC127:
	.string	"imul{l}\t{%2, %k0|%k0, %2}"
	.align 16
	.type	output_251, @object
	.size	output_251, 24
output_251:
	.quad	.LC126
	.quad	.LC126
	.quad	.LC127
	.align 8
.LC128:
	.string	"imul{w}\t{%2, %1, %0|%0, %1, %2}"
.LC129:
	.string	"imul{w}\t{%2, %0|%0, %2}"
	.align 16
	.type	output_252, @object
	.size	output_252, 24
output_252:
	.quad	.LC128
	.quad	.LC128
	.quad	.LC129
.LC130:
	.string	"test{l}\t{%k1, %k0|%k0, %k1} "
.LC131:
	.string	"test{q}\t{%1, %0|%0, %1} "
.LC132:
	.string	"test{q}\t{%1, %0|%0, %1}"
	.align 32
	.type	output_280, @object
	.size	output_280, 40
output_280:
	.quad	.LC130
	.quad	.LC130
	.quad	.LC131
	.quad	.LC131
	.quad	.LC132
.LC133:
	.string	"test{l}\t{%1, %k0|%k0, %1}"
.LC134:
	.string	"test{b}\t{%1, %0|%0, %1}"
	.text
	.type	output_283, @function
output_283:
.LFB98:
	.loc 1 2752 0
	.cfi_startproc
	pushq	%rbp	#
	.cfi_def_cfa_offset 16
	.cfi_offset 6, -16
	movq	%rsp, %rbp	#,
	.cfi_def_cfa_register 6
	pushq	%rbx	#
	subq	$24, %rsp	#,
	.cfi_offset 3, -24
	movq	%rdi, -24(%rbp)	# operands, operands
	movq	%rsi, -32(%rbp)	# insn, insn
	.loc 1 2754 0
	movl	which_alternative(%rip), %eax	# which_alternative, which_alternative.52
	cmpl	$3, %eax	#, which_alternative.52
	jne	.L707	#,
	.loc 1 2756 0
	movq	-24(%rbp), %rax	# operands, tmp75
	addq	$8, %rax	#, D.16864
	movq	(%rax), %rax	# *_4, D.16865
	movzwl	(%rax), %eax	# _5->code, D.16866
	cmpw	$54, %ax	#, D.16866
	jne	.L708	#,
	.loc 1 2757 0
	movq	-24(%rbp), %rax	# operands, tmp76
	addq	$8, %rax	#, D.16864
	movq	(%rax), %rax	# *_7, D.16865
	movq	8(%rax), %rax	# _8->fld[0].rtwint, D.16867
	andl	$4294967040, %eax	#, D.16867
	testq	%rax, %rax	# D.16867
	je	.L708	#,
	.loc 1 2758 0
	movq	-24(%rbp), %rax	# operands, tmp77
	leaq	8(%rax), %rbx	#, D.16864
	movq	-24(%rbp), %rax	# operands, tmp78
	addq	$8, %rax	#, D.16864
	movq	(%rax), %rax	# *_12, D.16865
	movq	8(%rax), %rax	# _13->fld[0].rtwint, D.16867
	movzbl	%al, %eax	# D.16867, D.16867
	movq	%rax, %rsi	# D.16867,
	movl	$0, %edi	#,
	call	gen_rtx_CONST_INT	#
	movq	%rax, (%rbx)	# D.16865, *_11
.L708:
	.loc 1 2759 0
	movl	$.LC133, %eax	#, D.16863
	jmp	.L709	#
.L707:
	.loc 1 2761 0
	movl	$.LC134, %eax	#, D.16863
.L709:
	.loc 1 2763 0
	addq	$24, %rsp	#,
	popq	%rbx	#
	popq	%rbp	#
	.cfi_def_cfa 7, 8
	ret
	.cfi_endproc
.LFE98:
	.size	output_283, .-output_283
	.section	.rodata
.LC135:
	.string	"movz{bq|x}\t{%1,%0|%0, %1}"
.LC136:
	.string	"movz{wq|x}\t{%1,%0|%0, %1}"
.LC137:
	.string	"and{l}\t{%k2, %k0|%k0, %k2}"
.LC138:
	.string	"and{q}\t{%2, %0|%0, %2}"
	.text
	.type	output_290, @function
output_290:
.LFB99:
	.loc 1 2771 0
	.cfi_startproc
	pushq	%rbp	#
	.cfi_def_cfa_offset 16
	.cfi_offset 6, -16
	movq	%rsp, %rbp	#,
	.cfi_def_cfa_register 6
	pushq	%rbx	#
	subq	$40, %rsp	#,
	.cfi_offset 3, -24
	movq	%rdi, -40(%rbp)	# operands, operands
	movq	%rsi, -48(%rbp)	# insn, insn
	.loc 1 2773 0
	movq	-48(%rbp), %rax	# insn, tmp80
	movq	%rax, %rdi	# tmp80,
	call	get_attr_type	#
	cmpl	$8, %eax	#, D.16871
	jne	.L721	#,
.LBB4:
	.loc 1 2779 0
	movq	-40(%rbp), %rax	# operands, tmp81
	addq	$16, %rax	#, D.16872
	movq	(%rax), %rax	# *_6, D.16873
	movzwl	(%rax), %eax	# _7->code, D.16874
	cmpw	$54, %ax	#, D.16874
	je	.L713	#,
	.loc 1 2780 0
	movl	$__FUNCTION__.12343, %edx	#,
	movl	$2780, %esi	#,
	movl	$.LC15, %edi	#,
	call	fancy_abort	#
.L713:
	.loc 1 2781 0
	movq	-40(%rbp), %rax	# operands, tmp82
	addq	$16, %rax	#, D.16872
	movq	(%rax), %rax	# *_9, D.16873
	movq	8(%rax), %rax	# _10->fld[0].rtwint, D.16875
	cmpq	$255, %rax	#, D.16875
	jne	.L714	#,
	.loc 1 2782 0
	movl	$2, -20(%rbp)	#, mode
	jmp	.L715	#
.L714:
	.loc 1 2783 0
	movq	-40(%rbp), %rax	# operands, tmp83
	addq	$16, %rax	#, D.16872
	movq	(%rax), %rax	# *_13, D.16873
	movq	8(%rax), %rax	# _14->fld[0].rtwint, D.16875
	cmpq	$65535, %rax	#, D.16875
	jne	.L716	#,
	.loc 1 2784 0
	movl	$3, -20(%rbp)	#, mode
	jmp	.L715	#
.L716:
	.loc 1 2786 0
	movl	$__FUNCTION__.12343, %edx	#,
	movl	$2786, %esi	#,
	movl	$.LC15, %edi	#,
	call	fancy_abort	#
.L715:
	.loc 1 2788 0
	movq	-40(%rbp), %rax	# operands, tmp84
	leaq	8(%rax), %rbx	#, D.16872
	movq	-40(%rbp), %rax	# operands, tmp85
	addq	$8, %rax	#, D.16872
	movq	(%rax), %rdx	# *_18, D.16873
	movl	-20(%rbp), %eax	# mode, tmp86
	movq	%rdx, %rsi	# D.16873,
	movl	%eax, %edi	# tmp86,
	call	gen_lowpart	#
	movq	%rax, (%rbx)	# D.16873, *_17
	.loc 1 2789 0
	cmpl	$2, -20(%rbp)	#, mode
	jne	.L717	#,
	.loc 1 2790 0
	movl	$.LC135, %eax	#, D.16870
	jmp	.L718	#
.L717:
	.loc 1 2792 0
	movl	$.LC136, %eax	#, D.16870
	jmp	.L718	#
.L721:
.LBE4:
	.loc 1 2796 0
	movq	-40(%rbp), %rax	# operands, tmp87
	addq	$8, %rax	#, D.16872
	movq	(%rax), %rdx	# *_23, D.16873
	movq	-40(%rbp), %rax	# operands, tmp88
	movq	(%rax), %rax	# *operands_5(D), D.16873
	movq	%rdx, %rsi	# D.16873,
	movq	%rax, %rdi	# D.16873,
	call	rtx_equal_p	#
	testl	%eax, %eax	# D.16876
	jne	.L719	#,
	.loc 1 2797 0
	movl	$__FUNCTION__.12343, %edx	#,
	movl	$2797, %esi	#,
	movl	$.LC15, %edi	#,
	call	fancy_abort	#
.L719:
	.loc 1 2798 0
	movq	-48(%rbp), %rax	# insn, tmp89
	movq	%rax, %rdi	# tmp89,
	call	get_attr_mode	#
	cmpl	$4, %eax	#, D.16877
	jne	.L720	#,
	.loc 1 2799 0
	movl	$.LC137, %eax	#, D.16870
	jmp	.L718	#
.L720:
	.loc 1 2801 0
	movl	$.LC138, %eax	#, D.16870
.L718:
	.loc 1 2804 0
	addq	$40, %rsp	#,
	popq	%rbx	#
	popq	%rbp	#
	.cfi_def_cfa 7, 8
	ret
	.cfi_endproc
.LFE99:
	.size	output_290, .-output_290
	.section	.rodata
.LC139:
	.string	"and{l}\t{%k2, %k0|%k0, %k2} "
.LC140:
	.string	"and{q}\t{%2, %0|%0, %2} "
	.align 16
	.type	output_291, @object
	.size	output_291, 24
output_291:
	.quad	.LC139
	.quad	.LC140
	.quad	.LC138
.LC141:
	.string	"movz{bl|x}\t{%1,%0|%0, %1}"
.LC142:
	.string	"movz{wl|x}\t{%1,%0|%0, %1}"
.LC143:
	.string	"and{l}\t{%2, %0|%0, %2}"
	.text
	.type	output_292, @function
output_292:
.LFB100:
	.loc 1 2818 0
	.cfi_startproc
	pushq	%rbp	#
	.cfi_def_cfa_offset 16
	.cfi_offset 6, -16
	movq	%rsp, %rbp	#,
	.cfi_def_cfa_register 6
	pushq	%rbx	#
	subq	$40, %rsp	#,
	.cfi_offset 3, -24
	movq	%rdi, -40(%rbp)	# operands, operands
	movq	%rsi, -48(%rbp)	# insn, insn
	.loc 1 2820 0
	movq	-48(%rbp), %rax	# insn, tmp79
	movq	%rax, %rdi	# tmp79,
	call	get_attr_type	#
	cmpl	$8, %eax	#, D.16885
	jne	.L732	#,
.LBB5:
	.loc 1 2826 0
	movq	-40(%rbp), %rax	# operands, tmp80
	addq	$16, %rax	#, D.16886
	movq	(%rax), %rax	# *_6, D.16887
	movzwl	(%rax), %eax	# _7->code, D.16888
	cmpw	$54, %ax	#, D.16888
	je	.L725	#,
	.loc 1 2827 0
	movl	$__FUNCTION__.12355, %edx	#,
	movl	$2827, %esi	#,
	movl	$.LC15, %edi	#,
	call	fancy_abort	#
.L725:
	.loc 1 2828 0
	movq	-40(%rbp), %rax	# operands, tmp81
	addq	$16, %rax	#, D.16886
	movq	(%rax), %rax	# *_9, D.16887
	movq	8(%rax), %rax	# _10->fld[0].rtwint, D.16889
	cmpq	$255, %rax	#, D.16889
	jne	.L726	#,
	.loc 1 2829 0
	movl	$2, -20(%rbp)	#, mode
	jmp	.L727	#
.L726:
	.loc 1 2830 0
	movq	-40(%rbp), %rax	# operands, tmp82
	addq	$16, %rax	#, D.16886
	movq	(%rax), %rax	# *_13, D.16887
	movq	8(%rax), %rax	# _14->fld[0].rtwint, D.16889
	cmpq	$65535, %rax	#, D.16889
	jne	.L728	#,
	.loc 1 2831 0
	movl	$3, -20(%rbp)	#, mode
	jmp	.L727	#
.L728:
	.loc 1 2833 0
	movl	$__FUNCTION__.12355, %edx	#,
	movl	$2833, %esi	#,
	movl	$.LC15, %edi	#,
	call	fancy_abort	#
.L727:
	.loc 1 2835 0
	movq	-40(%rbp), %rax	# operands, tmp83
	leaq	8(%rax), %rbx	#, D.16886
	movq	-40(%rbp), %rax	# operands, tmp84
	addq	$8, %rax	#, D.16886
	movq	(%rax), %rdx	# *_18, D.16887
	movl	-20(%rbp), %eax	# mode, tmp85
	movq	%rdx, %rsi	# D.16887,
	movl	%eax, %edi	# tmp85,
	call	gen_lowpart	#
	movq	%rax, (%rbx)	# D.16887, *_17
	.loc 1 2836 0
	cmpl	$2, -20(%rbp)	#, mode
	jne	.L729	#,
	.loc 1 2837 0
	movl	$.LC141, %eax	#, D.16884
	jmp	.L730	#
.L729:
	.loc 1 2839 0
	movl	$.LC142, %eax	#, D.16884
	jmp	.L730	#
.L732:
.LBE5:
	.loc 1 2843 0
	movq	-40(%rbp), %rax	# operands, tmp86
	addq	$8, %rax	#, D.16886
	movq	(%rax), %rdx	# *_23, D.16887
	movq	-40(%rbp), %rax	# operands, tmp87
	movq	(%rax), %rax	# *operands_5(D), D.16887
	movq	%rdx, %rsi	# D.16887,
	movq	%rax, %rdi	# D.16887,
	call	rtx_equal_p	#
	testl	%eax, %eax	# D.16890
	jne	.L731	#,
	.loc 1 2844 0
	movl	$__FUNCTION__.12355, %edx	#,
	movl	$2844, %esi	#,
	movl	$.LC15, %edi	#,
	call	fancy_abort	#
.L731:
	.loc 1 2845 0
	movl	$.LC143, %eax	#, D.16884
.L730:
	.loc 1 2848 0
	addq	$40, %rsp	#,
	popq	%rbx	#
	popq	%rbp	#
	.cfi_def_cfa 7, 8
	ret
	.cfi_endproc
.LFE100:
	.size	output_292, .-output_292
	.section	.rodata
	.align 8
.LC144:
	.string	"movz{bl|x}\t{%b1, %k0|%k0, %b1}"
.LC145:
	.string	"and{w}\t{%2, %0|%0, %2}"
	.text
	.type	output_296, @function
output_296:
.LFB101:
	.loc 1 2856 0
	.cfi_startproc
	pushq	%rbp	#
	.cfi_def_cfa_offset 16
	.cfi_offset 6, -16
	movq	%rsp, %rbp	#,
	.cfi_def_cfa_register 6
	subq	$16, %rsp	#,
	movq	%rdi, -8(%rbp)	# operands, operands
	movq	%rsi, -16(%rbp)	# insn, insn
	.loc 1 2858 0
	movq	-16(%rbp), %rax	# insn, tmp72
	movq	%rax, %rdi	# tmp72,
	call	get_attr_type	#
	cmpl	$8, %eax	#, D.16895
	jne	.L740	#,
	.loc 1 2861 0
	movq	-8(%rbp), %rax	# operands, tmp73
	addq	$16, %rax	#, D.16896
	movq	(%rax), %rax	# *_5, D.16897
	movzwl	(%rax), %eax	# _6->code, D.16898
	cmpw	$54, %ax	#, D.16898
	je	.L736	#,
	.loc 1 2862 0
	movl	$__FUNCTION__.12365, %edx	#,
	movl	$2862, %esi	#,
	movl	$.LC15, %edi	#,
	call	fancy_abort	#
.L736:
	.loc 1 2863 0
	movq	-8(%rbp), %rax	# operands, tmp74
	addq	$16, %rax	#, D.16896
	movq	(%rax), %rax	# *_8, D.16897
	movq	8(%rax), %rax	# _9->fld[0].rtwint, D.16899
	cmpq	$255, %rax	#, D.16899
	jne	.L737	#,
	.loc 1 2864 0
	movl	$.LC144, %eax	#, D.16894
	jmp	.L738	#
.L737:
	.loc 1 2865 0
	movl	$__FUNCTION__.12365, %edx	#,
	movl	$2865, %esi	#,
	movl	$.LC15, %edi	#,
	call	fancy_abort	#
.L740:
	.loc 1 2868 0
	movq	-8(%rbp), %rax	# operands, tmp75
	addq	$8, %rax	#, D.16896
	movq	(%rax), %rdx	# *_12, D.16897
	movq	-8(%rbp), %rax	# operands, tmp76
	movq	(%rax), %rax	# *operands_4(D), D.16897
	movq	%rdx, %rsi	# D.16897,
	movq	%rax, %rdi	# D.16897,
	call	rtx_equal_p	#
	testl	%eax, %eax	# D.16900
	jne	.L739	#,
	.loc 1 2869 0
	movl	$__FUNCTION__.12365, %edx	#,
	movl	$2869, %esi	#,
	movl	$.LC15, %edi	#,
	call	fancy_abort	#
.L739:
	.loc 1 2871 0
	movl	$.LC145, %eax	#, D.16894
.L738:
	.loc 1 2874 0
	leave
	.cfi_def_cfa 7, 8
	ret
	.cfi_endproc
.LFE101:
	.size	output_296, .-output_296
	.section	.rodata
.LC146:
	.string	"and{b}\t{%2, %0|%0, %2}"
	.align 16
	.type	output_298, @object
	.size	output_298, 24
output_298:
	.quad	.LC146
	.quad	.LC146
	.quad	.LC137
.LC147:
	.string	"and{l}\t{%2, %k0|%k0, %2}"
	.text
	.type	output_300, @function
output_300:
.LFB102:
	.loc 1 2888 0
	.cfi_startproc
	pushq	%rbp	#
	.cfi_def_cfa_offset 16
	.cfi_offset 6, -16
	movq	%rsp, %rbp	#,
	.cfi_def_cfa_register 6
	pushq	%rbx	#
	subq	$24, %rsp	#,
	.cfi_offset 3, -24
	movq	%rdi, -24(%rbp)	# operands, operands
	movq	%rsi, -32(%rbp)	# insn, insn
	.loc 1 2890 0
	movl	which_alternative(%rip), %eax	# which_alternative, which_alternative.53
	cmpl	$2, %eax	#, which_alternative.53
	jne	.L742	#,
	.loc 1 2892 0
	movq	-24(%rbp), %rax	# operands, tmp75
	addq	$16, %rax	#, D.16905
	movq	(%rax), %rax	# *_4, D.16906
	movzwl	(%rax), %eax	# _5->code, D.16907
	cmpw	$54, %ax	#, D.16907
	jne	.L743	#,
	.loc 1 2893 0
	movq	-24(%rbp), %rax	# operands, tmp76
	addq	$16, %rax	#, D.16905
	movq	(%rax), %rax	# *_7, D.16906
	movq	8(%rax), %rax	# _8->fld[0].rtwint, D.16908
	andl	$4294967040, %eax	#, D.16908
	testq	%rax, %rax	# D.16908
	je	.L743	#,
	.loc 1 2894 0
	movq	-24(%rbp), %rax	# operands, tmp77
	leaq	16(%rax), %rbx	#, D.16905
	movq	-24(%rbp), %rax	# operands, tmp78
	addq	$16, %rax	#, D.16905
	movq	(%rax), %rax	# *_12, D.16906
	movq	8(%rax), %rax	# _13->fld[0].rtwint, D.16908
	movzbl	%al, %eax	# D.16908, D.16908
	movq	%rax, %rsi	# D.16908,
	movl	$0, %edi	#,
	call	gen_rtx_CONST_INT	#
	movq	%rax, (%rbx)	# D.16906, *_11
.L743:
	.loc 1 2895 0
	movl	$.LC147, %eax	#, D.16904
	jmp	.L744	#
.L742:
	.loc 1 2897 0
	movl	$.LC146, %eax	#, D.16904
.L744:
	.loc 1 2899 0
	addq	$24, %rsp	#,
	popq	%rbx	#
	popq	%rbp	#
	.cfi_def_cfa 7, 8
	ret
	.cfi_endproc
.LFE102:
	.size	output_300, .-output_300
	.section	.rodata
.LC148:
	.string	"or{b}\t{%2, %0|%0, %2}"
.LC149:
	.string	"or{l}\t{%k2, %k0|%k0, %k2}"
	.align 16
	.type	output_320, @object
	.size	output_320, 24
output_320:
	.quad	.LC148
	.quad	.LC148
	.quad	.LC149
.LC150:
	.string	"xor{q}\t{%2, %0|%0, %2} "
.LC151:
	.string	"xor{q}\t{%2, %0|%0, %2}"
	.align 16
	.type	output_325, @object
	.size	output_325, 16
output_325:
	.quad	.LC150
	.quad	.LC151
	.align 16
	.type	output_326, @object
	.size	output_326, 16
output_326:
	.quad	.LC150
	.quad	.LC151
.LC152:
	.string	"xor{b}\t{%2, %0|%0, %2}"
.LC153:
	.string	"xor{l}\t{%k2, %k0|%k0, %k2}"
	.align 16
	.type	output_338, @object
	.size	output_338, 24
output_338:
	.quad	.LC152
	.quad	.LC152
	.quad	.LC153
.LC154:
	.string	"not{b}\t%0"
.LC155:
	.string	"not{l}\t%k0"
	.align 16
	.type	output_401, @object
	.size	output_401, 16
output_401:
	.quad	.LC154
	.quad	.LC155
.LC156:
	.string	"add{q}\t{%0, %0|%0, %0}"
.LC157:
	.string	"sal{q}\t{%b2, %0|%0, %b2}"
.LC158:
	.string	"sal{q}\t%0"
.LC159:
	.string	"sal{q}\t{%2, %0|%0, %2}"
	.text
	.type	output_403, @function
output_403:
.LFB103:
	.loc 1 2934 0
	.cfi_startproc
	pushq	%rbp	#
	.cfi_def_cfa_offset 16
	.cfi_offset 6, -16
	movq	%rsp, %rbp	#,
	.cfi_def_cfa_register 6
	pushq	%rbx	#
	subq	$24, %rsp	#,
	.cfi_offset 3, -24
	movq	%rdi, -24(%rbp)	# operands, operands
	movq	%rsi, -32(%rbp)	# insn, insn
	.loc 1 2936 0
	movq	-32(%rbp), %rax	# insn, tmp98
	movq	%rax, %rdi	# tmp98,
	call	get_attr_type	#
	cmpl	$4, %eax	#, D.16919
	je	.L747	#,
	cmpl	$9, %eax	#, D.16919
	je	.L748	#,
	jmp	.L757	#
.L747:
	.loc 1 2939 0
	movq	-24(%rbp), %rax	# operands, tmp99
	addq	$16, %rax	#, D.16920
	movq	(%rax), %rdx	# *_5, D.16921
	movq	const_int_rtx+520(%rip), %rax	# const_int_rtx, D.16921
	cmpq	%rax, %rdx	# D.16921, D.16921
	je	.L749	#,
	.loc 1 2940 0
	movl	$__FUNCTION__.12388, %edx	#,
	movl	$2940, %esi	#,
	movl	$.LC15, %edi	#,
	call	fancy_abort	#
.L749:
	.loc 1 2941 0
	movq	-24(%rbp), %rax	# operands, tmp100
	addq	$8, %rax	#, D.16920
	movq	(%rax), %rdx	# *_8, D.16921
	movq	-24(%rbp), %rax	# operands, tmp101
	movq	(%rax), %rax	# *operands_4(D), D.16921
	movq	%rdx, %rsi	# D.16921,
	movq	%rax, %rdi	# D.16921,
	call	rtx_equal_p	#
	testl	%eax, %eax	# D.16922
	jne	.L750	#,
	.loc 1 2942 0
	movl	$__FUNCTION__.12388, %edx	#,
	movl	$2942, %esi	#,
	movl	$.LC15, %edi	#,
	call	fancy_abort	#
.L750:
	.loc 1 2943 0
	movl	$.LC156, %eax	#, D.16918
	jmp	.L751	#
.L748:
	.loc 1 2946 0
	movq	-24(%rbp), %rax	# operands, tmp102
	addq	$16, %rax	#, D.16920
	movq	(%rax), %rax	# *_13, D.16921
	movzwl	(%rax), %eax	# _14->code, D.16923
	cmpw	$54, %ax	#, D.16923
	jne	.L752	#,
	.loc 1 2947 0
	movq	-24(%rbp), %rax	# operands, tmp103
	addq	$16, %rax	#, D.16920
	movq	(%rax), %rax	# *_16, D.16921
	movq	8(%rax), %rax	# _17->fld[0].rtwint, D.16924
	cmpq	$3, %rax	#, D.16925
	jbe	.L753	#,
.L752:
	.loc 1 2948 0
	movl	$__FUNCTION__.12388, %edx	#,
	movl	$2948, %esi	#,
	movl	$.LC15, %edi	#,
	call	fancy_abort	#
.L753:
	.loc 1 2949 0
	movq	-24(%rbp), %rax	# operands, tmp104
	leaq	8(%rax), %rbx	#, D.16920
	movq	-24(%rbp), %rax	# operands, tmp105
	addq	$16, %rax	#, D.16920
	movq	(%rax), %rax	# *_21, D.16921
	movq	8(%rax), %rax	# _22->fld[0].rtwint, D.16924
	movl	$1, %edx	#, tmp106
	movl	%eax, %ecx	# D.16922, tmp113
	sall	%cl, %edx	# tmp113, D.16922
	movl	%edx, %eax	# D.16922, D.16922
	cltq
	movq	%rax, %rsi	# D.16924,
	movl	$0, %edi	#,
	call	gen_rtx_CONST_INT	#
	movq	%rax, %rdx	#, D.16921
	movq	-24(%rbp), %rax	# operands, tmp107
	addq	$8, %rax	#, D.16920
	movq	(%rax), %rax	# *_28, D.16921
	movq	%rdx, %rcx	# D.16921,
	movq	%rax, %rdx	# D.16921,
	movl	$5, %esi	#,
	movl	$78, %edi	#,
	call	gen_rtx_fmt_ee	#
	movq	%rax, (%rbx)	# D.16921, *_20
	.loc 1 2951 0
	movl	$.LC47, %eax	#, D.16918
	jmp	.L751	#
.L757:
	.loc 1 2954 0
	movq	-24(%rbp), %rax	# operands, tmp108
	addq	$16, %rax	#, D.16920
	movq	(%rax), %rax	# *_32, D.16921
	movzwl	(%rax), %eax	# _33->code, D.16923
	cmpw	$61, %ax	#, D.16923
	jne	.L754	#,
	.loc 1 2955 0
	movl	$.LC157, %eax	#, D.16918
	jmp	.L751	#
.L754:
	.loc 1 2956 0
	movq	-24(%rbp), %rax	# operands, tmp109
	addq	$16, %rax	#, D.16920
	movq	(%rax), %rax	# *_36, D.16921
	movzwl	(%rax), %eax	# _37->code, D.16923
	cmpw	$54, %ax	#, D.16923
	jne	.L755	#,
	.loc 1 2957 0
	movq	-24(%rbp), %rax	# operands, tmp110
	addq	$16, %rax	#, D.16920
	movq	(%rax), %rax	# *_39, D.16921
	movq	8(%rax), %rax	# _40->fld[0].rtwint, D.16924
	cmpq	$1, %rax	#, D.16924
	jne	.L755	#,
	.loc 1 2958 0
	movl	ix86_cpu(%rip), %eax	# ix86_cpu, ix86_cpu.54
	cmpl	$2, %eax	#, ix86_cpu.54
	je	.L756	#,
	.loc 1 2958 0 is_stmt 0 discriminator 1
	movl	ix86_cpu(%rip), %eax	# ix86_cpu, ix86_cpu.55
	cmpl	$3, %eax	#, ix86_cpu.55
	jne	.L755	#,
.L756:
	.loc 1 2959 0 is_stmt 1
	movl	$.LC158, %eax	#, D.16918
	jmp	.L751	#
.L755:
	.loc 1 2961 0
	movl	$.LC159, %eax	#, D.16918
.L751:
	.loc 1 2964 0
	addq	$24, %rsp	#,
	popq	%rbx	#
	popq	%rbp	#
	.cfi_def_cfa 7, 8
	ret
	.cfi_endproc
.LFE103:
	.size	output_403, .-output_403
	.type	output_404, @function
output_404:
.LFB104:
	.loc 1 2972 0
	.cfi_startproc
	pushq	%rbp	#
	.cfi_def_cfa_offset 16
	.cfi_offset 6, -16
	movq	%rsp, %rbp	#,
	.cfi_def_cfa_register 6
	subq	$16, %rsp	#,
	movq	%rdi, -8(%rbp)	# operands, operands
	movq	%rsi, -16(%rbp)	# insn, insn
	.loc 1 2974 0
	movq	-16(%rbp), %rax	# insn, tmp76
	movq	%rax, %rdi	# tmp76,
	call	get_attr_type	#
	cmpl	$4, %eax	#, D.16931
	jne	.L766	#,
	.loc 1 2977 0
	movq	-8(%rbp), %rax	# operands, tmp77
	addq	$16, %rax	#, D.16932
	movq	(%rax), %rdx	# *_5, D.16933
	movq	const_int_rtx+520(%rip), %rax	# const_int_rtx, D.16933
	cmpq	%rax, %rdx	# D.16933, D.16933
	je	.L761	#,
	.loc 1 2978 0
	movl	$__FUNCTION__.12399, %edx	#,
	movl	$2978, %esi	#,
	movl	$.LC15, %edi	#,
	call	fancy_abort	#
.L761:
	.loc 1 2979 0
	movl	$.LC156, %eax	#, D.16930
	jmp	.L762	#
.L766:
	.loc 1 2982 0
	movq	-8(%rbp), %rax	# operands, tmp78
	addq	$16, %rax	#, D.16932
	movq	(%rax), %rax	# *_9, D.16933
	movzwl	(%rax), %eax	# _10->code, D.16934
	cmpw	$61, %ax	#, D.16934
	jne	.L763	#,
	.loc 1 2983 0
	movl	$.LC157, %eax	#, D.16930
	jmp	.L762	#
.L763:
	.loc 1 2984 0
	movq	-8(%rbp), %rax	# operands, tmp79
	addq	$16, %rax	#, D.16932
	movq	(%rax), %rax	# *_13, D.16933
	movzwl	(%rax), %eax	# _14->code, D.16934
	cmpw	$54, %ax	#, D.16934
	jne	.L764	#,
	.loc 1 2985 0
	movq	-8(%rbp), %rax	# operands, tmp80
	addq	$16, %rax	#, D.16932
	movq	(%rax), %rax	# *_16, D.16933
	movq	8(%rax), %rax	# _17->fld[0].rtwint, D.16935
	cmpq	$1, %rax	#, D.16935
	jne	.L764	#,
	.loc 1 2986 0
	movl	ix86_cpu(%rip), %eax	# ix86_cpu, ix86_cpu.56
	cmpl	$2, %eax	#, ix86_cpu.56
	je	.L765	#,
	.loc 1 2986 0 is_stmt 0 discriminator 1
	movl	ix86_cpu(%rip), %eax	# ix86_cpu, ix86_cpu.57
	cmpl	$3, %eax	#, ix86_cpu.57
	jne	.L764	#,
.L765:
	.loc 1 2987 0 is_stmt 1
	movl	$.LC158, %eax	#, D.16930
	jmp	.L762	#
.L764:
	.loc 1 2989 0
	movl	$.LC159, %eax	#, D.16930
.L762:
	.loc 1 2992 0
	leave
	.cfi_def_cfa 7, 8
	ret
	.cfi_endproc
.LFE104:
	.size	output_404, .-output_404
	.section	.rodata
	.align 8
.LC160:
	.string	"shld{l}\t{%2, %1, %0|%0, %1, %2}"
	.align 8
.LC161:
	.string	"shld{l}\t{%s2%1, %0|%0, %1, %2}"
	.align 16
	.type	output_407, @object
	.size	output_407, 16
output_407:
	.quad	.LC160
	.quad	.LC161
.LC162:
	.string	"add{l}\t{%0, %0|%0, %0}"
.LC163:
	.string	"sal{l}\t{%b2, %0|%0, %b2}"
.LC164:
	.string	"sal{l}\t%0"
.LC165:
	.string	"sal{l}\t{%2, %0|%0, %2}"
	.text
	.type	output_408, @function
output_408:
.LFB105:
	.loc 1 3005 0
	.cfi_startproc
	pushq	%rbp	#
	.cfi_def_cfa_offset 16
	.cfi_offset 6, -16
	movq	%rsp, %rbp	#,
	.cfi_def_cfa_register 6
	subq	$16, %rsp	#,
	movq	%rdi, -8(%rbp)	# operands, operands
	movq	%rsi, -16(%rbp)	# insn, insn
	.loc 1 3007 0
	movq	-16(%rbp), %rax	# insn, tmp80
	movq	%rax, %rdi	# tmp80,
	call	get_attr_type	#
	cmpl	$4, %eax	#, D.16939
	je	.L769	#,
	cmpl	$9, %eax	#, D.16939
	je	.L770	#,
	jmp	.L777	#
.L769:
	.loc 1 3010 0
	movq	-8(%rbp), %rax	# operands, tmp81
	addq	$16, %rax	#, D.16940
	movq	(%rax), %rdx	# *_5, D.16941
	movq	const_int_rtx+520(%rip), %rax	# const_int_rtx, D.16941
	cmpq	%rax, %rdx	# D.16941, D.16941
	je	.L771	#,
	.loc 1 3011 0
	movl	$__FUNCTION__.12410, %edx	#,
	movl	$3011, %esi	#,
	movl	$.LC15, %edi	#,
	call	fancy_abort	#
.L771:
	.loc 1 3012 0
	movq	-8(%rbp), %rax	# operands, tmp82
	addq	$8, %rax	#, D.16940
	movq	(%rax), %rdx	# *_8, D.16941
	movq	-8(%rbp), %rax	# operands, tmp83
	movq	(%rax), %rax	# *operands_4(D), D.16941
	movq	%rdx, %rsi	# D.16941,
	movq	%rax, %rdi	# D.16941,
	call	rtx_equal_p	#
	testl	%eax, %eax	# D.16942
	jne	.L772	#,
	.loc 1 3013 0
	movl	$__FUNCTION__.12410, %edx	#,
	movl	$3013, %esi	#,
	movl	$.LC15, %edi	#,
	call	fancy_abort	#
.L772:
	.loc 1 3014 0
	movl	$.LC162, %eax	#, D.16938
	jmp	.L773	#
.L770:
	.loc 1 3017 0
	movl	$.LC45, %eax	#, D.16938
	jmp	.L773	#
.L777:
	.loc 1 3020 0
	movq	-8(%rbp), %rax	# operands, tmp84
	addq	$16, %rax	#, D.16940
	movq	(%rax), %rax	# *_14, D.16941
	movzwl	(%rax), %eax	# _15->code, D.16943
	cmpw	$61, %ax	#, D.16943
	jne	.L774	#,
	.loc 1 3021 0
	movl	$.LC163, %eax	#, D.16938
	jmp	.L773	#
.L774:
	.loc 1 3022 0
	movq	-8(%rbp), %rax	# operands, tmp85
	addq	$16, %rax	#, D.16940
	movq	(%rax), %rax	# *_18, D.16941
	movzwl	(%rax), %eax	# _19->code, D.16943
	cmpw	$54, %ax	#, D.16943
	jne	.L775	#,
	.loc 1 3023 0
	movq	-8(%rbp), %rax	# operands, tmp86
	addq	$16, %rax	#, D.16940
	movq	(%rax), %rax	# *_21, D.16941
	movq	8(%rax), %rax	# _22->fld[0].rtwint, D.16944
	cmpq	$1, %rax	#, D.16944
	jne	.L775	#,
	.loc 1 3024 0
	movl	ix86_cpu(%rip), %eax	# ix86_cpu, ix86_cpu.58
	cmpl	$2, %eax	#, ix86_cpu.58
	je	.L776	#,
	.loc 1 3024 0 is_stmt 0 discriminator 1
	movl	ix86_cpu(%rip), %eax	# ix86_cpu, ix86_cpu.59
	cmpl	$3, %eax	#, ix86_cpu.59
	jne	.L775	#,
.L776:
	.loc 1 3025 0 is_stmt 1
	movl	$.LC164, %eax	#, D.16938
	jmp	.L773	#
.L775:
	.loc 1 3027 0
	movl	$.LC165, %eax	#, D.16938
.L773:
	.loc 1 3030 0
	leave
	.cfi_def_cfa 7, 8
	ret
	.cfi_endproc
.LFE105:
	.size	output_408, .-output_408
	.section	.rodata
.LC166:
	.string	"add{l}\t{%k0, %k0|%k0, %k0}"
.LC167:
	.string	"sal{l}\t{%b2, %k0|%k0, %b2}"
.LC168:
	.string	"sal{l}\t%k0"
.LC169:
	.string	"sal{l}\t{%2, %k0|%k0, %2}"
	.text
	.type	output_409, @function
output_409:
.LFB106:
	.loc 1 3038 0
	.cfi_startproc
	pushq	%rbp	#
	.cfi_def_cfa_offset 16
	.cfi_offset 6, -16
	movq	%rsp, %rbp	#,
	.cfi_def_cfa_register 6
	subq	$16, %rsp	#,
	movq	%rdi, -8(%rbp)	# operands, operands
	movq	%rsi, -16(%rbp)	# insn, insn
	.loc 1 3040 0
	movq	-16(%rbp), %rax	# insn, tmp76
	movq	%rax, %rdi	# tmp76,
	call	get_attr_type	#
	cmpl	$4, %eax	#, D.16950
	je	.L780	#,
	cmpl	$9, %eax	#, D.16950
	je	.L781	#,
	jmp	.L787	#
.L780:
	.loc 1 3043 0
	movq	-8(%rbp), %rax	# operands, tmp77
	addq	$16, %rax	#, D.16951
	movq	(%rax), %rdx	# *_5, D.16952
	movq	const_int_rtx+520(%rip), %rax	# const_int_rtx, D.16952
	cmpq	%rax, %rdx	# D.16952, D.16952
	je	.L782	#,
	.loc 1 3044 0
	movl	$__FUNCTION__.12421, %edx	#,
	movl	$3044, %esi	#,
	movl	$.LC15, %edi	#,
	call	fancy_abort	#
.L782:
	.loc 1 3045 0
	movl	$.LC166, %eax	#, D.16949
	jmp	.L783	#
.L781:
	.loc 1 3048 0
	movl	$.LC45, %eax	#, D.16949
	jmp	.L783	#
.L787:
	.loc 1 3051 0
	movq	-8(%rbp), %rax	# operands, tmp78
	addq	$16, %rax	#, D.16951
	movq	(%rax), %rax	# *_10, D.16952
	movzwl	(%rax), %eax	# _11->code, D.16953
	cmpw	$61, %ax	#, D.16953
	jne	.L784	#,
	.loc 1 3052 0
	movl	$.LC167, %eax	#, D.16949
	jmp	.L783	#
.L784:
	.loc 1 3053 0
	movq	-8(%rbp), %rax	# operands, tmp79
	addq	$16, %rax	#, D.16951
	movq	(%rax), %rax	# *_14, D.16952
	movzwl	(%rax), %eax	# _15->code, D.16953
	cmpw	$54, %ax	#, D.16953
	jne	.L785	#,
	.loc 1 3054 0
	movq	-8(%rbp), %rax	# operands, tmp80
	addq	$16, %rax	#, D.16951
	movq	(%rax), %rax	# *_17, D.16952
	movq	8(%rax), %rax	# _18->fld[0].rtwint, D.16954
	cmpq	$1, %rax	#, D.16954
	jne	.L785	#,
	.loc 1 3055 0
	movl	ix86_cpu(%rip), %eax	# ix86_cpu, ix86_cpu.60
	cmpl	$2, %eax	#, ix86_cpu.60
	je	.L786	#,
	.loc 1 3055 0 is_stmt 0 discriminator 1
	movl	ix86_cpu(%rip), %eax	# ix86_cpu, ix86_cpu.61
	cmpl	$3, %eax	#, ix86_cpu.61
	jne	.L785	#,
.L786:
	.loc 1 3056 0 is_stmt 1
	movl	$.LC168, %eax	#, D.16949
	jmp	.L783	#
.L785:
	.loc 1 3058 0
	movl	$.LC169, %eax	#, D.16949
.L783:
	.loc 1 3061 0
	leave
	.cfi_def_cfa 7, 8
	ret
	.cfi_endproc
.LFE106:
	.size	output_409, .-output_409
	.type	output_410, @function
output_410:
.LFB107:
	.loc 1 3069 0
	.cfi_startproc
	pushq	%rbp	#
	.cfi_def_cfa_offset 16
	.cfi_offset 6, -16
	movq	%rsp, %rbp	#,
	.cfi_def_cfa_register 6
	subq	$16, %rsp	#,
	movq	%rdi, -8(%rbp)	# operands, operands
	movq	%rsi, -16(%rbp)	# insn, insn
	.loc 1 3071 0
	movq	-16(%rbp), %rax	# insn, tmp76
	movq	%rax, %rdi	# tmp76,
	call	get_attr_type	#
	cmpl	$4, %eax	#, D.16960
	jne	.L796	#,
	.loc 1 3074 0
	movq	-8(%rbp), %rax	# operands, tmp77
	addq	$16, %rax	#, D.16961
	movq	(%rax), %rdx	# *_5, D.16962
	movq	const_int_rtx+520(%rip), %rax	# const_int_rtx, D.16962
	cmpq	%rax, %rdx	# D.16962, D.16962
	je	.L791	#,
	.loc 1 3075 0
	movl	$__FUNCTION__.12432, %edx	#,
	movl	$3075, %esi	#,
	movl	$.LC15, %edi	#,
	call	fancy_abort	#
.L791:
	.loc 1 3076 0
	movl	$.LC162, %eax	#, D.16959
	jmp	.L792	#
.L796:
	.loc 1 3079 0
	movq	-8(%rbp), %rax	# operands, tmp78
	addq	$16, %rax	#, D.16961
	movq	(%rax), %rax	# *_9, D.16962
	movzwl	(%rax), %eax	# _10->code, D.16963
	cmpw	$61, %ax	#, D.16963
	jne	.L793	#,
	.loc 1 3080 0
	movl	$.LC163, %eax	#, D.16959
	jmp	.L792	#
.L793:
	.loc 1 3081 0
	movq	-8(%rbp), %rax	# operands, tmp79
	addq	$16, %rax	#, D.16961
	movq	(%rax), %rax	# *_13, D.16962
	movzwl	(%rax), %eax	# _14->code, D.16963
	cmpw	$54, %ax	#, D.16963
	jne	.L794	#,
	.loc 1 3082 0
	movq	-8(%rbp), %rax	# operands, tmp80
	addq	$16, %rax	#, D.16961
	movq	(%rax), %rax	# *_16, D.16962
	movq	8(%rax), %rax	# _17->fld[0].rtwint, D.16964
	cmpq	$1, %rax	#, D.16964
	jne	.L794	#,
	.loc 1 3083 0
	movl	ix86_cpu(%rip), %eax	# ix86_cpu, ix86_cpu.62
	cmpl	$2, %eax	#, ix86_cpu.62
	je	.L795	#,
	.loc 1 3083 0 is_stmt 0 discriminator 1
	movl	ix86_cpu(%rip), %eax	# ix86_cpu, ix86_cpu.63
	cmpl	$3, %eax	#, ix86_cpu.63
	jne	.L794	#,
.L795:
	.loc 1 3084 0 is_stmt 1
	movl	$.LC164, %eax	#, D.16959
	jmp	.L792	#
.L794:
	.loc 1 3086 0
	movl	$.LC165, %eax	#, D.16959
.L792:
	.loc 1 3089 0
	leave
	.cfi_def_cfa 7, 8
	ret
	.cfi_endproc
.LFE107:
	.size	output_410, .-output_410
	.type	output_411, @function
output_411:
.LFB108:
	.loc 1 3097 0
	.cfi_startproc
	pushq	%rbp	#
	.cfi_def_cfa_offset 16
	.cfi_offset 6, -16
	movq	%rsp, %rbp	#,
	.cfi_def_cfa_register 6
	subq	$16, %rsp	#,
	movq	%rdi, -8(%rbp)	# operands, operands
	movq	%rsi, -16(%rbp)	# insn, insn
	.loc 1 3099 0
	movq	-16(%rbp), %rax	# insn, tmp76
	movq	%rax, %rdi	# tmp76,
	call	get_attr_type	#
	cmpl	$4, %eax	#, D.16966
	jne	.L805	#,
	.loc 1 3102 0
	movq	-8(%rbp), %rax	# operands, tmp77
	addq	$16, %rax	#, D.16967
	movq	(%rax), %rdx	# *_5, D.16968
	movq	const_int_rtx+520(%rip), %rax	# const_int_rtx, D.16968
	cmpq	%rax, %rdx	# D.16968, D.16968
	je	.L800	#,
	.loc 1 3103 0
	movl	$__FUNCTION__.12442, %edx	#,
	movl	$3103, %esi	#,
	movl	$.LC15, %edi	#,
	call	fancy_abort	#
.L800:
	.loc 1 3104 0
	movl	$.LC166, %eax	#, D.16965
	jmp	.L801	#
.L805:
	.loc 1 3107 0
	movq	-8(%rbp), %rax	# operands, tmp78
	addq	$16, %rax	#, D.16967
	movq	(%rax), %rax	# *_9, D.16968
	movzwl	(%rax), %eax	# _10->code, D.16969
	cmpw	$61, %ax	#, D.16969
	jne	.L802	#,
	.loc 1 3108 0
	movl	$.LC167, %eax	#, D.16965
	jmp	.L801	#
.L802:
	.loc 1 3109 0
	movq	-8(%rbp), %rax	# operands, tmp79
	addq	$16, %rax	#, D.16967
	movq	(%rax), %rax	# *_13, D.16968
	movzwl	(%rax), %eax	# _14->code, D.16969
	cmpw	$54, %ax	#, D.16969
	jne	.L803	#,
	.loc 1 3110 0
	movq	-8(%rbp), %rax	# operands, tmp80
	addq	$16, %rax	#, D.16967
	movq	(%rax), %rax	# *_16, D.16968
	movq	8(%rax), %rax	# _17->fld[0].rtwint, D.16970
	cmpq	$1, %rax	#, D.16970
	jne	.L803	#,
	.loc 1 3111 0
	movl	ix86_cpu(%rip), %eax	# ix86_cpu, ix86_cpu.64
	cmpl	$2, %eax	#, ix86_cpu.64
	je	.L804	#,
	.loc 1 3111 0 is_stmt 0 discriminator 1
	movl	ix86_cpu(%rip), %eax	# ix86_cpu, ix86_cpu.65
	cmpl	$3, %eax	#, ix86_cpu.65
	jne	.L803	#,
.L804:
	.loc 1 3112 0 is_stmt 1
	movl	$.LC168, %eax	#, D.16965
	jmp	.L801	#
.L803:
	.loc 1 3114 0
	movl	$.LC169, %eax	#, D.16965
.L801:
	.loc 1 3117 0
	leave
	.cfi_def_cfa 7, 8
	ret
	.cfi_endproc
.LFE108:
	.size	output_411, .-output_411
	.section	.rodata
.LC170:
	.string	"add{w}\t{%0, %0|%0, %0}"
.LC171:
	.string	"sal{w}\t{%b2, %0|%0, %b2}"
.LC172:
	.string	"sal{w}\t%0"
.LC173:
	.string	"sal{w}\t{%2, %0|%0, %2}"
	.text
	.type	output_412, @function
output_412:
.LFB109:
	.loc 1 3125 0
	.cfi_startproc
	pushq	%rbp	#
	.cfi_def_cfa_offset 16
	.cfi_offset 6, -16
	movq	%rsp, %rbp	#,
	.cfi_def_cfa_register 6
	subq	$16, %rsp	#,
	movq	%rdi, -8(%rbp)	# operands, operands
	movq	%rsi, -16(%rbp)	# insn, insn
	.loc 1 3127 0
	movq	-16(%rbp), %rax	# insn, tmp76
	movq	%rax, %rdi	# tmp76,
	call	get_attr_type	#
	cmpl	$4, %eax	#, D.16972
	je	.L808	#,
	cmpl	$9, %eax	#, D.16972
	jne	.L815	#,
	.loc 1 3130 0
	movl	$.LC45, %eax	#, D.16971
	jmp	.L810	#
.L808:
	.loc 1 3132 0
	movq	-8(%rbp), %rax	# operands, tmp77
	addq	$16, %rax	#, D.16973
	movq	(%rax), %rdx	# *_6, D.16974
	movq	const_int_rtx+520(%rip), %rax	# const_int_rtx, D.16974
	cmpq	%rax, %rdx	# D.16974, D.16974
	je	.L811	#,
	.loc 1 3133 0
	movl	$__FUNCTION__.12453, %edx	#,
	movl	$3133, %esi	#,
	movl	$.LC15, %edi	#,
	call	fancy_abort	#
.L811:
	.loc 1 3134 0
	movl	$.LC170, %eax	#, D.16971
	jmp	.L810	#
.L815:
	.loc 1 3137 0
	movq	-8(%rbp), %rax	# operands, tmp78
	addq	$16, %rax	#, D.16973
	movq	(%rax), %rax	# *_10, D.16974
	movzwl	(%rax), %eax	# _11->code, D.16975
	cmpw	$61, %ax	#, D.16975
	jne	.L812	#,
	.loc 1 3138 0
	movl	$.LC171, %eax	#, D.16971
	jmp	.L810	#
.L812:
	.loc 1 3139 0
	movq	-8(%rbp), %rax	# operands, tmp79
	addq	$16, %rax	#, D.16973
	movq	(%rax), %rax	# *_14, D.16974
	movzwl	(%rax), %eax	# _15->code, D.16975
	cmpw	$54, %ax	#, D.16975
	jne	.L813	#,
	.loc 1 3140 0
	movq	-8(%rbp), %rax	# operands, tmp80
	addq	$16, %rax	#, D.16973
	movq	(%rax), %rax	# *_17, D.16974
	movq	8(%rax), %rax	# _18->fld[0].rtwint, D.16976
	cmpq	$1, %rax	#, D.16976
	jne	.L813	#,
	.loc 1 3141 0
	movl	ix86_cpu(%rip), %eax	# ix86_cpu, ix86_cpu.66
	cmpl	$2, %eax	#, ix86_cpu.66
	je	.L814	#,
	.loc 1 3141 0 is_stmt 0 discriminator 1
	movl	ix86_cpu(%rip), %eax	# ix86_cpu, ix86_cpu.67
	cmpl	$3, %eax	#, ix86_cpu.67
	jne	.L813	#,
.L814:
	.loc 1 3142 0 is_stmt 1
	movl	$.LC172, %eax	#, D.16971
	jmp	.L810	#
.L813:
	.loc 1 3144 0
	movl	$.LC173, %eax	#, D.16971
.L810:
	.loc 1 3147 0
	leave
	.cfi_def_cfa 7, 8
	ret
	.cfi_endproc
.LFE109:
	.size	output_412, .-output_412
	.type	output_413, @function
output_413:
.LFB110:
	.loc 1 3155 0
	.cfi_startproc
	pushq	%rbp	#
	.cfi_def_cfa_offset 16
	.cfi_offset 6, -16
	movq	%rsp, %rbp	#,
	.cfi_def_cfa_register 6
	subq	$16, %rsp	#,
	movq	%rdi, -8(%rbp)	# operands, operands
	movq	%rsi, -16(%rbp)	# insn, insn
	.loc 1 3157 0
	movq	-16(%rbp), %rax	# insn, tmp76
	movq	%rax, %rdi	# tmp76,
	call	get_attr_type	#
	cmpl	$4, %eax	#, D.16982
	jne	.L824	#,
	.loc 1 3160 0
	movq	-8(%rbp), %rax	# operands, tmp77
	addq	$16, %rax	#, D.16983
	movq	(%rax), %rdx	# *_5, D.16984
	movq	const_int_rtx+520(%rip), %rax	# const_int_rtx, D.16984
	cmpq	%rax, %rdx	# D.16984, D.16984
	je	.L819	#,
	.loc 1 3161 0
	movl	$__FUNCTION__.12463, %edx	#,
	movl	$3161, %esi	#,
	movl	$.LC15, %edi	#,
	call	fancy_abort	#
.L819:
	.loc 1 3162 0
	movl	$.LC170, %eax	#, D.16981
	jmp	.L820	#
.L824:
	.loc 1 3165 0
	movq	-8(%rbp), %rax	# operands, tmp78
	addq	$16, %rax	#, D.16983
	movq	(%rax), %rax	# *_9, D.16984
	movzwl	(%rax), %eax	# _10->code, D.16985
	cmpw	$61, %ax	#, D.16985
	jne	.L821	#,
	.loc 1 3166 0
	movl	$.LC171, %eax	#, D.16981
	jmp	.L820	#
.L821:
	.loc 1 3167 0
	movq	-8(%rbp), %rax	# operands, tmp79
	addq	$16, %rax	#, D.16983
	movq	(%rax), %rax	# *_13, D.16984
	movzwl	(%rax), %eax	# _14->code, D.16985
	cmpw	$54, %ax	#, D.16985
	jne	.L822	#,
	.loc 1 3168 0
	movq	-8(%rbp), %rax	# operands, tmp80
	addq	$16, %rax	#, D.16983
	movq	(%rax), %rax	# *_16, D.16984
	movq	8(%rax), %rax	# _17->fld[0].rtwint, D.16986
	cmpq	$1, %rax	#, D.16986
	jne	.L822	#,
	.loc 1 3169 0
	movl	ix86_cpu(%rip), %eax	# ix86_cpu, ix86_cpu.68
	cmpl	$2, %eax	#, ix86_cpu.68
	je	.L823	#,
	.loc 1 3169 0 is_stmt 0 discriminator 1
	movl	ix86_cpu(%rip), %eax	# ix86_cpu, ix86_cpu.69
	cmpl	$3, %eax	#, ix86_cpu.69
	jne	.L822	#,
.L823:
	.loc 1 3170 0 is_stmt 1
	movl	$.LC172, %eax	#, D.16981
	jmp	.L820	#
.L822:
	.loc 1 3172 0
	movl	$.LC173, %eax	#, D.16981
.L820:
	.loc 1 3175 0
	leave
	.cfi_def_cfa 7, 8
	ret
	.cfi_endproc
.LFE110:
	.size	output_413, .-output_413
	.type	output_414, @function
output_414:
.LFB111:
	.loc 1 3183 0
	.cfi_startproc
	pushq	%rbp	#
	.cfi_def_cfa_offset 16
	.cfi_offset 6, -16
	movq	%rsp, %rbp	#,
	.cfi_def_cfa_register 6
	subq	$16, %rsp	#,
	movq	%rdi, -8(%rbp)	# operands, operands
	movq	%rsi, -16(%rbp)	# insn, insn
	.loc 1 3185 0
	movq	-16(%rbp), %rax	# insn, tmp76
	movq	%rax, %rdi	# tmp76,
	call	get_attr_type	#
	cmpl	$4, %eax	#, D.16988
	jne	.L833	#,
	.loc 1 3188 0
	movq	-8(%rbp), %rax	# operands, tmp77
	addq	$16, %rax	#, D.16989
	movq	(%rax), %rdx	# *_5, D.16990
	movq	const_int_rtx+520(%rip), %rax	# const_int_rtx, D.16990
	cmpq	%rax, %rdx	# D.16990, D.16990
	je	.L828	#,
	.loc 1 3189 0
	movl	$__FUNCTION__.12473, %edx	#,
	movl	$3189, %esi	#,
	movl	$.LC15, %edi	#,
	call	fancy_abort	#
.L828:
	.loc 1 3190 0
	movl	$.LC170, %eax	#, D.16987
	jmp	.L829	#
.L833:
	.loc 1 3193 0
	movq	-8(%rbp), %rax	# operands, tmp78
	addq	$16, %rax	#, D.16989
	movq	(%rax), %rax	# *_9, D.16990
	movzwl	(%rax), %eax	# _10->code, D.16991
	cmpw	$61, %ax	#, D.16991
	jne	.L830	#,
	.loc 1 3194 0
	movl	$.LC171, %eax	#, D.16987
	jmp	.L829	#
.L830:
	.loc 1 3195 0
	movq	-8(%rbp), %rax	# operands, tmp79
	addq	$16, %rax	#, D.16989
	movq	(%rax), %rax	# *_13, D.16990
	movzwl	(%rax), %eax	# _14->code, D.16991
	cmpw	$54, %ax	#, D.16991
	jne	.L831	#,
	.loc 1 3196 0
	movq	-8(%rbp), %rax	# operands, tmp80
	addq	$16, %rax	#, D.16989
	movq	(%rax), %rax	# *_16, D.16990
	movq	8(%rax), %rax	# _17->fld[0].rtwint, D.16992
	cmpq	$1, %rax	#, D.16992
	jne	.L831	#,
	.loc 1 3197 0
	movl	ix86_cpu(%rip), %eax	# ix86_cpu, ix86_cpu.70
	cmpl	$2, %eax	#, ix86_cpu.70
	je	.L832	#,
	.loc 1 3197 0 is_stmt 0 discriminator 1
	movl	ix86_cpu(%rip), %eax	# ix86_cpu, ix86_cpu.71
	cmpl	$3, %eax	#, ix86_cpu.71
	jne	.L831	#,
.L832:
	.loc 1 3198 0 is_stmt 1
	movl	$.LC172, %eax	#, D.16987
	jmp	.L829	#
.L831:
	.loc 1 3200 0
	movl	$.LC173, %eax	#, D.16987
.L829:
	.loc 1 3203 0
	leave
	.cfi_def_cfa 7, 8
	ret
	.cfi_endproc
.LFE111:
	.size	output_414, .-output_414
	.section	.rodata
.LC174:
	.string	"add{b}\t{%0, %0|%0, %0}"
.LC175:
	.string	"sal{b}\t{%b2, %0|%0, %b2}"
.LC176:
	.string	"sal{b}\t%0"
.LC177:
	.string	"sal{b}\t{%2, %0|%0, %2}"
	.text
	.type	output_415, @function
output_415:
.LFB112:
	.loc 1 3211 0
	.cfi_startproc
	pushq	%rbp	#
	.cfi_def_cfa_offset 16
	.cfi_offset 6, -16
	movq	%rsp, %rbp	#,
	.cfi_def_cfa_register 6
	subq	$16, %rsp	#,
	movq	%rdi, -8(%rbp)	# operands, operands
	movq	%rsi, -16(%rbp)	# insn, insn
	.loc 1 3213 0
	movq	-16(%rbp), %rax	# insn, tmp106
	movq	%rax, %rdi	# tmp106,
	call	get_attr_type	#
	cmpl	$4, %eax	#, D.16994
	je	.L836	#,
	cmpl	$9, %eax	#, D.16994
	jne	.L855	#,
	.loc 1 3216 0
	movl	$.LC45, %eax	#, D.16993
	jmp	.L838	#
.L836:
	.loc 1 3218 0
	movq	-8(%rbp), %rax	# operands, tmp107
	addq	$16, %rax	#, D.16995
	movq	(%rax), %rdx	# *_8, D.16996
	movq	const_int_rtx+520(%rip), %rax	# const_int_rtx, D.16996
	cmpq	%rax, %rdx	# D.16996, D.16996
	je	.L839	#,
	.loc 1 3219 0
	movl	$__FUNCTION__.12484, %edx	#,
	movl	$3219, %esi	#,
	movl	$.LC15, %edi	#,
	call	fancy_abort	#
.L839:
	.loc 1 3220 0
	movq	-8(%rbp), %rax	# operands, tmp108
	addq	$8, %rax	#, D.16995
	movq	(%rax), %rax	# *_11, D.16996
	movzwl	(%rax), %eax	# _12->code, D.16997
	cmpw	$61, %ax	#, D.16997
	jne	.L840	#,
	.loc 1 3220 0 is_stmt 0 discriminator 1
	movl	target_flags(%rip), %eax	# target_flags, target_flags.72
	andl	$33554432, %eax	#, D.16998
	testl	%eax, %eax	# D.16998
	je	.L841	#,
	.loc 1 3220 0 discriminator 2
	movq	-8(%rbp), %rax	# operands, tmp109
	addq	$8, %rax	#, D.16995
	movq	(%rax), %rax	# *_16, D.16996
	movzwl	(%rax), %eax	# _17->code, D.16997
	cmpw	$61, %ax	#, D.16997
	jne	.L842	#,
	movq	-8(%rbp), %rax	# operands, tmp110
	addq	$8, %rax	#, D.16995
	movq	(%rax), %rax	# *_19, D.16996
	movl	8(%rax), %eax	# _20->fld[0].rtuint, D.16999
	cmpl	$7, %eax	#, D.16999
	jbe	.L843	#,
	.loc 1 3220 0 discriminator 3
	movq	-8(%rbp), %rax	# operands, tmp111
	addq	$8, %rax	#, D.16995
	movq	(%rax), %rax	# *_22, D.16996
	movl	8(%rax), %eax	# _23->fld[0].rtuint, D.16999
	cmpl	$36, %eax	#, D.16999
	jbe	.L842	#,
	.loc 1 3220 0 discriminator 1
	movq	-8(%rbp), %rax	# operands, tmp112
	addq	$8, %rax	#, D.16995
	movq	(%rax), %rax	# *_25, D.16996
	movl	8(%rax), %eax	# _26->fld[0].rtuint, D.16999
	cmpl	$44, %eax	#, D.16999
	jbe	.L843	#,
.L842:
	movl	$1, %eax	#, iftmp.73
	jmp	.L844	#
.L843:
	.loc 1 3220 0 discriminator 4
	movl	$0, %eax	#, iftmp.73
.L844:
	.loc 1 3220 0 discriminator 5
	andl	$1, %eax	#, D.17000
	testb	%al, %al	# D.17000
	jne	.L845	#,
	jmp	.L840	#
.L841:
	.loc 1 3220 0 discriminator 3
	movq	-8(%rbp), %rax	# operands, tmp113
	addq	$8, %rax	#, D.16995
	movq	(%rax), %rax	# *_31, D.16996
	movzwl	(%rax), %eax	# _32->code, D.16997
	cmpw	$61, %ax	#, D.16997
	jne	.L846	#,
	.loc 1 3220 0 discriminator 2
	movq	-8(%rbp), %rax	# operands, tmp114
	addq	$8, %rax	#, D.16995
	movq	(%rax), %rax	# *_34, D.16996
	movl	8(%rax), %eax	# _35->fld[0].rtuint, D.16999
	cmpl	$3, %eax	#, D.16999
	jbe	.L847	#,
.L846:
	.loc 1 3220 0 discriminator 1
	movl	$1, %eax	#, iftmp.74
	jmp	.L848	#
.L847:
	.loc 1 3220 0 discriminator 3
	movl	$0, %eax	#, iftmp.74
.L848:
	.loc 1 3220 0 discriminator 4
	andl	$1, %eax	#, D.17000
	testb	%al, %al	# D.17000
	je	.L840	#,
.L845:
	.loc 1 3221 0 is_stmt 1
	movl	$.LC166, %eax	#, D.16993
	jmp	.L838	#
.L840:
	.loc 1 3223 0
	movl	$.LC174, %eax	#, D.16993
	jmp	.L838	#
.L855:
	.loc 1 3226 0
	movq	-8(%rbp), %rax	# operands, tmp115
	addq	$16, %rax	#, D.16995
	movq	(%rax), %rax	# *_42, D.16996
	movzwl	(%rax), %eax	# _43->code, D.16997
	cmpw	$61, %ax	#, D.16997
	jne	.L849	#,
	.loc 1 3228 0
	movq	-16(%rbp), %rax	# insn, tmp116
	movq	%rax, %rdi	# tmp116,
	call	get_attr_mode	#
	cmpl	$4, %eax	#, D.17001
	jne	.L850	#,
	.loc 1 3229 0
	movl	$.LC167, %eax	#, D.16993
	jmp	.L838	#
.L850:
	.loc 1 3231 0
	movl	$.LC175, %eax	#, D.16993
	jmp	.L838	#
.L849:
	.loc 1 3233 0
	movq	-8(%rbp), %rax	# operands, tmp117
	addq	$16, %rax	#, D.16995
	movq	(%rax), %rax	# *_48, D.16996
	movzwl	(%rax), %eax	# _49->code, D.16997
	cmpw	$54, %ax	#, D.16997
	jne	.L851	#,
	.loc 1 3234 0
	movq	-8(%rbp), %rax	# operands, tmp118
	addq	$16, %rax	#, D.16995
	movq	(%rax), %rax	# *_51, D.16996
	movq	8(%rax), %rax	# _52->fld[0].rtwint, D.17002
	cmpq	$1, %rax	#, D.17002
	jne	.L851	#,
	.loc 1 3235 0
	movl	ix86_cpu(%rip), %eax	# ix86_cpu, ix86_cpu.75
	cmpl	$2, %eax	#, ix86_cpu.75
	je	.L852	#,
	.loc 1 3235 0 is_stmt 0 discriminator 1
	movl	ix86_cpu(%rip), %eax	# ix86_cpu, ix86_cpu.76
	cmpl	$3, %eax	#, ix86_cpu.76
	jne	.L851	#,
.L852:
	.loc 1 3237 0 is_stmt 1
	movq	-16(%rbp), %rax	# insn, tmp119
	movq	%rax, %rdi	# tmp119,
	call	get_attr_mode	#
	cmpl	$4, %eax	#, D.17001
	jne	.L853	#,
	.loc 1 3238 0
	movl	$.LC164, %eax	#, D.16993
	jmp	.L838	#
.L853:
	.loc 1 3240 0
	movl	$.LC176, %eax	#, D.16993
	jmp	.L838	#
.L851:
	.loc 1 3244 0
	movq	-16(%rbp), %rax	# insn, tmp120
	movq	%rax, %rdi	# tmp120,
	call	get_attr_mode	#
	cmpl	$4, %eax	#, D.17001
	jne	.L854	#,
	.loc 1 3245 0
	movl	$.LC169, %eax	#, D.16993
	jmp	.L838	#
.L854:
	.loc 1 3247 0
	movl	$.LC177, %eax	#, D.16993
.L838:
	.loc 1 3251 0
	leave
	.cfi_def_cfa 7, 8
	ret
	.cfi_endproc
.LFE112:
	.size	output_415, .-output_415
	.type	output_416, @function
output_416:
.LFB113:
	.loc 1 3259 0
	.cfi_startproc
	pushq	%rbp	#
	.cfi_def_cfa_offset 16
	.cfi_offset 6, -16
	movq	%rsp, %rbp	#,
	.cfi_def_cfa_register 6
	subq	$16, %rsp	#,
	movq	%rdi, -8(%rbp)	# operands, operands
	movq	%rsi, -16(%rbp)	# insn, insn
	.loc 1 3261 0
	movq	-16(%rbp), %rax	# insn, tmp106
	movq	%rax, %rdi	# tmp106,
	call	get_attr_type	#
	cmpl	$4, %eax	#, D.17008
	jne	.L876	#,
	.loc 1 3264 0
	movq	-8(%rbp), %rax	# operands, tmp107
	addq	$16, %rax	#, D.17009
	movq	(%rax), %rdx	# *_7, D.17010
	movq	const_int_rtx+520(%rip), %rax	# const_int_rtx, D.17010
	cmpq	%rax, %rdx	# D.17010, D.17010
	je	.L859	#,
	.loc 1 3265 0
	movl	$__FUNCTION__.12494, %edx	#,
	movl	$3265, %esi	#,
	movl	$.LC15, %edi	#,
	call	fancy_abort	#
.L859:
	.loc 1 3266 0
	movq	-8(%rbp), %rax	# operands, tmp108
	addq	$8, %rax	#, D.17009
	movq	(%rax), %rax	# *_10, D.17010
	movzwl	(%rax), %eax	# _11->code, D.17011
	cmpw	$61, %ax	#, D.17011
	jne	.L860	#,
	.loc 1 3266 0 is_stmt 0 discriminator 1
	movl	target_flags(%rip), %eax	# target_flags, target_flags.77
	andl	$33554432, %eax	#, D.17012
	testl	%eax, %eax	# D.17012
	je	.L861	#,
	.loc 1 3266 0 discriminator 2
	movq	-8(%rbp), %rax	# operands, tmp109
	addq	$8, %rax	#, D.17009
	movq	(%rax), %rax	# *_15, D.17010
	movzwl	(%rax), %eax	# _16->code, D.17011
	cmpw	$61, %ax	#, D.17011
	jne	.L862	#,
	movq	-8(%rbp), %rax	# operands, tmp110
	addq	$8, %rax	#, D.17009
	movq	(%rax), %rax	# *_18, D.17010
	movl	8(%rax), %eax	# _19->fld[0].rtuint, D.17013
	cmpl	$7, %eax	#, D.17013
	jbe	.L863	#,
	.loc 1 3266 0 discriminator 3
	movq	-8(%rbp), %rax	# operands, tmp111
	addq	$8, %rax	#, D.17009
	movq	(%rax), %rax	# *_21, D.17010
	movl	8(%rax), %eax	# _22->fld[0].rtuint, D.17013
	cmpl	$36, %eax	#, D.17013
	jbe	.L862	#,
	.loc 1 3266 0 discriminator 1
	movq	-8(%rbp), %rax	# operands, tmp112
	addq	$8, %rax	#, D.17009
	movq	(%rax), %rax	# *_24, D.17010
	movl	8(%rax), %eax	# _25->fld[0].rtuint, D.17013
	cmpl	$44, %eax	#, D.17013
	jbe	.L863	#,
.L862:
	movl	$1, %eax	#, iftmp.78
	jmp	.L864	#
.L863:
	.loc 1 3266 0 discriminator 4
	movl	$0, %eax	#, iftmp.78
.L864:
	.loc 1 3266 0 discriminator 5
	andl	$1, %eax	#, D.17014
	testb	%al, %al	# D.17014
	jne	.L865	#,
	jmp	.L860	#
.L861:
	.loc 1 3266 0 discriminator 3
	movq	-8(%rbp), %rax	# operands, tmp113
	addq	$8, %rax	#, D.17009
	movq	(%rax), %rax	# *_30, D.17010
	movzwl	(%rax), %eax	# _31->code, D.17011
	cmpw	$61, %ax	#, D.17011
	jne	.L866	#,
	.loc 1 3266 0 discriminator 2
	movq	-8(%rbp), %rax	# operands, tmp114
	addq	$8, %rax	#, D.17009
	movq	(%rax), %rax	# *_33, D.17010
	movl	8(%rax), %eax	# _34->fld[0].rtuint, D.17013
	cmpl	$3, %eax	#, D.17013
	jbe	.L867	#,
.L866:
	.loc 1 3266 0 discriminator 1
	movl	$1, %eax	#, iftmp.79
	jmp	.L868	#
.L867:
	.loc 1 3266 0 discriminator 3
	movl	$0, %eax	#, iftmp.79
.L868:
	.loc 1 3266 0 discriminator 4
	andl	$1, %eax	#, D.17014
	testb	%al, %al	# D.17014
	je	.L860	#,
.L865:
	.loc 1 3267 0 is_stmt 1
	movl	$.LC166, %eax	#, D.17007
	jmp	.L869	#
.L860:
	.loc 1 3269 0
	movl	$.LC174, %eax	#, D.17007
	jmp	.L869	#
.L876:
	.loc 1 3272 0
	movq	-8(%rbp), %rax	# operands, tmp115
	addq	$16, %rax	#, D.17009
	movq	(%rax), %rax	# *_41, D.17010
	movzwl	(%rax), %eax	# _42->code, D.17011
	cmpw	$61, %ax	#, D.17011
	jne	.L870	#,
	.loc 1 3274 0
	movq	-16(%rbp), %rax	# insn, tmp116
	movq	%rax, %rdi	# tmp116,
	call	get_attr_mode	#
	cmpl	$4, %eax	#, D.17015
	jne	.L871	#,
	.loc 1 3275 0
	movl	$.LC167, %eax	#, D.17007
	jmp	.L869	#
.L871:
	.loc 1 3277 0
	movl	$.LC175, %eax	#, D.17007
	jmp	.L869	#
.L870:
	.loc 1 3279 0
	movq	-8(%rbp), %rax	# operands, tmp117
	addq	$16, %rax	#, D.17009
	movq	(%rax), %rax	# *_47, D.17010
	movzwl	(%rax), %eax	# _48->code, D.17011
	cmpw	$54, %ax	#, D.17011
	jne	.L872	#,
	.loc 1 3280 0
	movq	-8(%rbp), %rax	# operands, tmp118
	addq	$16, %rax	#, D.17009
	movq	(%rax), %rax	# *_50, D.17010
	movq	8(%rax), %rax	# _51->fld[0].rtwint, D.17016
	cmpq	$1, %rax	#, D.17016
	jne	.L872	#,
	.loc 1 3281 0
	movl	ix86_cpu(%rip), %eax	# ix86_cpu, ix86_cpu.80
	cmpl	$2, %eax	#, ix86_cpu.80
	je	.L873	#,
	.loc 1 3281 0 is_stmt 0 discriminator 1
	movl	ix86_cpu(%rip), %eax	# ix86_cpu, ix86_cpu.81
	cmpl	$3, %eax	#, ix86_cpu.81
	jne	.L872	#,
.L873:
	.loc 1 3283 0 is_stmt 1
	movq	-16(%rbp), %rax	# insn, tmp119
	movq	%rax, %rdi	# tmp119,
	call	get_attr_mode	#
	cmpl	$4, %eax	#, D.17015
	jne	.L874	#,
	.loc 1 3284 0
	movl	$.LC164, %eax	#, D.17007
	jmp	.L869	#
.L874:
	.loc 1 3286 0
	movl	$.LC176, %eax	#, D.17007
	jmp	.L869	#
.L872:
	.loc 1 3290 0
	movq	-16(%rbp), %rax	# insn, tmp120
	movq	%rax, %rdi	# tmp120,
	call	get_attr_mode	#
	cmpl	$4, %eax	#, D.17015
	jne	.L875	#,
	.loc 1 3291 0
	movl	$.LC169, %eax	#, D.17007
	jmp	.L869	#
.L875:
	.loc 1 3293 0
	movl	$.LC177, %eax	#, D.17007
.L869:
	.loc 1 3297 0
	leave
	.cfi_def_cfa 7, 8
	ret
	.cfi_endproc
.LFE113:
	.size	output_416, .-output_416
	.type	output_417, @function
output_417:
.LFB114:
	.loc 1 3305 0
	.cfi_startproc
	pushq	%rbp	#
	.cfi_def_cfa_offset 16
	.cfi_offset 6, -16
	movq	%rsp, %rbp	#,
	.cfi_def_cfa_register 6
	subq	$16, %rsp	#,
	movq	%rdi, -8(%rbp)	# operands, operands
	movq	%rsi, -16(%rbp)	# insn, insn
	.loc 1 3307 0
	movq	-16(%rbp), %rax	# insn, tmp76
	movq	%rax, %rdi	# tmp76,
	call	get_attr_type	#
	cmpl	$4, %eax	#, D.17018
	jne	.L885	#,
	.loc 1 3310 0
	movq	-8(%rbp), %rax	# operands, tmp77
	addq	$16, %rax	#, D.17019
	movq	(%rax), %rdx	# *_5, D.17020
	movq	const_int_rtx+520(%rip), %rax	# const_int_rtx, D.17020
	cmpq	%rax, %rdx	# D.17020, D.17020
	je	.L880	#,
	.loc 1 3311 0
	movl	$__FUNCTION__.12504, %edx	#,
	movl	$3311, %esi	#,
	movl	$.LC15, %edi	#,
	call	fancy_abort	#
.L880:
	.loc 1 3312 0
	movl	$.LC174, %eax	#, D.17017
	jmp	.L881	#
.L885:
	.loc 1 3315 0
	movq	-8(%rbp), %rax	# operands, tmp78
	addq	$16, %rax	#, D.17019
	movq	(%rax), %rax	# *_9, D.17020
	movzwl	(%rax), %eax	# _10->code, D.17021
	cmpw	$61, %ax	#, D.17021
	jne	.L882	#,
	.loc 1 3316 0
	movl	$.LC175, %eax	#, D.17017
	jmp	.L881	#
.L882:
	.loc 1 3317 0
	movq	-8(%rbp), %rax	# operands, tmp79
	addq	$16, %rax	#, D.17019
	movq	(%rax), %rax	# *_13, D.17020
	movzwl	(%rax), %eax	# _14->code, D.17021
	cmpw	$54, %ax	#, D.17021
	jne	.L883	#,
	.loc 1 3318 0
	movq	-8(%rbp), %rax	# operands, tmp80
	addq	$16, %rax	#, D.17019
	movq	(%rax), %rax	# *_16, D.17020
	movq	8(%rax), %rax	# _17->fld[0].rtwint, D.17022
	cmpq	$1, %rax	#, D.17022
	jne	.L883	#,
	.loc 1 3319 0
	movl	ix86_cpu(%rip), %eax	# ix86_cpu, ix86_cpu.82
	cmpl	$2, %eax	#, ix86_cpu.82
	je	.L884	#,
	.loc 1 3319 0 is_stmt 0 discriminator 1
	movl	ix86_cpu(%rip), %eax	# ix86_cpu, ix86_cpu.83
	cmpl	$3, %eax	#, ix86_cpu.83
	jne	.L883	#,
.L884:
	.loc 1 3320 0 is_stmt 1
	movl	$.LC176, %eax	#, D.17017
	jmp	.L881	#
.L883:
	.loc 1 3322 0
	movl	$.LC177, %eax	#, D.17017
.L881:
	.loc 1 3325 0
	leave
	.cfi_def_cfa 7, 8
	ret
	.cfi_endproc
.LFE114:
	.size	output_417, .-output_417
	.section	.rodata
.LC178:
	.string	"{cqto|cqo}"
.LC179:
	.string	"sar{q}\t{%2, %0|%0, %2}"
	.align 16
	.type	output_418, @object
	.size	output_418, 16
output_418:
	.quad	.LC178
	.quad	.LC179
.LC180:
	.string	"sar{q}\t{%b2, %0|%0, %b2}"
	.align 16
	.type	output_420, @object
	.size	output_420, 16
output_420:
	.quad	.LC179
	.quad	.LC180
	.align 8
.LC181:
	.string	"shrd{l}\t{%2, %1, %0|%0, %1, %2}"
	.align 8
.LC182:
	.string	"shrd{l}\t{%s2%1, %0|%0, %1, %2}"
	.align 16
	.type	output_425, @object
	.size	output_425, 16
output_425:
	.quad	.LC181
	.quad	.LC182
.LC183:
	.string	"{cltd|cdq}"
.LC184:
	.string	"sar{l}\t{%2, %0|%0, %2}"
	.align 16
	.type	output_426, @object
	.size	output_426, 16
output_426:
	.quad	.LC183
	.quad	.LC184
.LC185:
	.string	"sar{l}\t{%2, %k0|%k0, %2}"
	.align 16
	.type	output_427, @object
	.size	output_427, 16
output_427:
	.quad	.LC183
	.quad	.LC185
.LC186:
	.string	"sar{l}\t{%b2, %0|%0, %b2}"
	.align 16
	.type	output_430, @object
	.size	output_430, 16
output_430:
	.quad	.LC184
	.quad	.LC186
.LC187:
	.string	"sar{l}\t{%b2, %k0|%k0, %b2}"
	.align 16
	.type	output_431, @object
	.size	output_431, 16
output_431:
	.quad	.LC185
	.quad	.LC187
.LC188:
	.string	"sar{w}\t{%2, %0|%0, %2}"
.LC189:
	.string	"sar{w}\t{%b2, %0|%0, %b2}"
	.align 16
	.type	output_437, @object
	.size	output_437, 16
output_437:
	.quad	.LC188
	.quad	.LC189
.LC190:
	.string	"sar{b}\t{%2, %0|%0, %2}"
.LC191:
	.string	"sar{b}\t{%b2, %0|%0, %b2}"
	.align 16
	.type	output_441, @object
	.size	output_441, 16
output_441:
	.quad	.LC190
	.quad	.LC191
.LC192:
	.string	"shr{q}\t{%2, %0|%0, %2}"
.LC193:
	.string	"shr{q}\t{%b2, %0|%0, %b2}"
	.align 16
	.type	output_445, @object
	.size	output_445, 16
output_445:
	.quad	.LC192
	.quad	.LC193
.LC194:
	.string	"shr{l}\t{%2, %0|%0, %2}"
.LC195:
	.string	"shr{l}\t{%b2, %0|%0, %b2}"
	.align 16
	.type	output_452, @object
	.size	output_452, 16
output_452:
	.quad	.LC194
	.quad	.LC195
.LC196:
	.string	"shr{l}\t{%2, %k0|%k0, %2}"
.LC197:
	.string	"shr{l}\t{%b2, %k0|%k0, %b2}"
	.align 16
	.type	output_453, @object
	.size	output_453, 16
output_453:
	.quad	.LC196
	.quad	.LC197
.LC198:
	.string	"shr{w}\t{%2, %0|%0, %2}"
.LC199:
	.string	"shr{w}\t{%b2, %0|%0, %b2}"
	.align 16
	.type	output_459, @object
	.size	output_459, 16
output_459:
	.quad	.LC198
	.quad	.LC199
.LC200:
	.string	"shr{b}\t{%2, %0|%0, %2}"
.LC201:
	.string	"shr{b}\t{%b2, %0|%0, %b2}"
	.align 16
	.type	output_463, @object
	.size	output_463, 16
output_463:
	.quad	.LC200
	.quad	.LC201
.LC202:
	.string	"rol{q}\t{%2, %0|%0, %2}"
.LC203:
	.string	"rol{q}\t{%b2, %0|%0, %b2}"
	.align 16
	.type	output_467, @object
	.size	output_467, 16
output_467:
	.quad	.LC202
	.quad	.LC203
.LC204:
	.string	"rol{l}\t{%2, %0|%0, %2}"
.LC205:
	.string	"rol{l}\t{%b2, %0|%0, %b2}"
	.align 16
	.type	output_470, @object
	.size	output_470, 16
output_470:
	.quad	.LC204
	.quad	.LC205
.LC206:
	.string	"rol{l}\t{%2, %k0|%k0, %2}"
.LC207:
	.string	"rol{l}\t{%b2, %k0|%k0, %b2}"
	.align 16
	.type	output_471, @object
	.size	output_471, 16
output_471:
	.quad	.LC206
	.quad	.LC207
.LC208:
	.string	"rol{w}\t{%2, %0|%0, %2}"
.LC209:
	.string	"rol{w}\t{%b2, %0|%0, %b2}"
	.align 16
	.type	output_473, @object
	.size	output_473, 16
output_473:
	.quad	.LC208
	.quad	.LC209
.LC210:
	.string	"rol{b}\t{%2, %0|%0, %2}"
.LC211:
	.string	"rol{b}\t{%b2, %0|%0, %b2}"
	.align 16
	.type	output_475, @object
	.size	output_475, 16
output_475:
	.quad	.LC210
	.quad	.LC211
.LC212:
	.string	"ror{q}\t{%2, %0|%0, %2}"
.LC213:
	.string	"ror{q}\t{%b2, %0|%0, %b2}"
	.align 16
	.type	output_477, @object
	.size	output_477, 16
output_477:
	.quad	.LC212
	.quad	.LC213
.LC214:
	.string	"ror{l}\t{%2, %0|%0, %2}"
.LC215:
	.string	"ror{l}\t{%b2, %0|%0, %b2}"
	.align 16
	.type	output_480, @object
	.size	output_480, 16
output_480:
	.quad	.LC214
	.quad	.LC215
.LC216:
	.string	"ror{l}\t{%2, %k0|%k0, %2}"
.LC217:
	.string	"ror{l}\t{%b2, %k0|%k0, %b2}"
	.align 16
	.type	output_481, @object
	.size	output_481, 16
output_481:
	.quad	.LC216
	.quad	.LC217
.LC218:
	.string	"ror{w}\t{%2, %0|%0, %2}"
.LC219:
	.string	"ror{w}\t{%b2, %0|%0, %b2}"
	.align 16
	.type	output_483, @object
	.size	output_483, 16
output_483:
	.quad	.LC218
	.quad	.LC219
.LC220:
	.string	"ror{b}\t{%2, %0|%0, %2}"
.LC221:
	.string	"ror{b}\t{%b2, %0|%0, %b2}"
	.align 16
	.type	output_485, @object
	.size	output_485, 16
output_485:
	.quad	.LC220
	.quad	.LC221
.LC222:
	.string	"%+loop\t%l0"
.LC223:
	.string	"dec{l}\t%1\n\t%+jne\t%l0"
	.text
	.type	output_507, @function
output_507:
.LFB115:
	.loc 1 3453 0
	.cfi_startproc
	pushq	%rbp	#
	.cfi_def_cfa_offset 16
	.cfi_offset 6, -16
	movq	%rsp, %rbp	#,
	.cfi_def_cfa_register 6
	subq	$16, %rsp	#,
	movq	%rdi, -8(%rbp)	# operands, operands
	movq	%rsi, -16(%rbp)	# insn, insn
	.loc 1 3455 0
	movl	which_alternative(%rip), %eax	# which_alternative, which_alternative.84
	testl	%eax, %eax	# which_alternative.84
	je	.L887	#,
	.loc 1 3456 0
	movl	$.LC45, %eax	#, D.17067
	jmp	.L888	#
.L887:
	.loc 1 3457 0
	movq	-16(%rbp), %rax	# insn, tmp63
	movq	%rax, %rdi	# tmp63,
	call	get_attr_length	#
	cmpl	$2, %eax	#, D.17068
	jne	.L889	#,
	.loc 1 3458 0
	movl	$.LC222, %eax	#, D.17067
	jmp	.L888	#
.L889:
	.loc 1 3460 0
	movl	$.LC223, %eax	#, D.17067
.L888:
	.loc 1 3462 0
	leave
	.cfi_def_cfa 7, 8
	ret
	.cfi_endproc
.LFE115:
	.size	output_507, .-output_507
	.section	.rodata
.LC224:
	.string	"jmp\t%P0"
.LC225:
	.string	"call\t%P0"
	.text
	.type	output_508, @function
output_508:
.LFB116:
	.loc 1 3470 0
	.cfi_startproc
	pushq	%rbp	#
	.cfi_def_cfa_offset 16
	.cfi_offset 6, -16
	movq	%rsp, %rbp	#,
	.cfi_def_cfa_register 6
	movq	%rdi, -8(%rbp)	# operands, operands
	movq	%rsi, -16(%rbp)	# insn, insn
	.loc 1 3472 0
	movq	-16(%rbp), %rax	# insn, tmp63
	movzbl	3(%rax), %eax	# *insn_2(D), D.17072
	andl	$1, %eax	#, D.17072
	testb	%al, %al	# D.17072
	je	.L891	#,
	.loc 1 3473 0
	movl	$.LC224, %eax	#, D.17071
	jmp	.L892	#
.L891:
	.loc 1 3475 0
	movl	$.LC225, %eax	#, D.17071
.L892:
	.loc 1 3477 0
	popq	%rbp	#
	.cfi_def_cfa 7, 8
	ret
	.cfi_endproc
.LFE116:
	.size	output_508, .-output_508
	.section	.rodata
.LC226:
	.string	"jmp\t%A0"
.LC227:
	.string	"call\t%A0"
	.text
	.type	output_509, @function
output_509:
.LFB117:
	.loc 1 3485 0
	.cfi_startproc
	pushq	%rbp	#
	.cfi_def_cfa_offset 16
	.cfi_offset 6, -16
	movq	%rsp, %rbp	#,
	.cfi_def_cfa_register 6
	subq	$16, %rsp	#,
	movq	%rdi, -8(%rbp)	# operands, operands
	movq	%rsi, -16(%rbp)	# insn, insn
	.loc 1 3487 0
	movl	target_flags(%rip), %eax	# target_flags, target_flags.86
	andl	$33554432, %eax	#, D.17076
	testl	%eax, %eax	# D.17076
	je	.L894	#,
	.loc 1 3487 0 is_stmt 0 discriminator 1
	movl	$5, %eax	#, iftmp.85
	jmp	.L895	#
.L894:
	.loc 1 3487 0 discriminator 2
	movl	$4, %eax	#, iftmp.85
.L895:
	.loc 1 3487 0 discriminator 3
	movq	-8(%rbp), %rdx	# operands, tmp70
	movq	(%rdx), %rdx	# *operands_7(D), D.17077
	movl	%eax, %esi	# iftmp.85,
	movq	%rdx, %rdi	# D.17077,
	call	constant_call_address_operand	#
	testl	%eax, %eax	# D.17076
	je	.L896	#,
	.loc 1 3489 0 is_stmt 1
	movq	-16(%rbp), %rax	# insn, tmp71
	movzbl	3(%rax), %eax	# *insn_10(D), D.17078
	andl	$1, %eax	#, D.17078
	testb	%al, %al	# D.17078
	je	.L897	#,
	.loc 1 3490 0
	movl	$.LC224, %eax	#, D.17075
	jmp	.L898	#
.L897:
	.loc 1 3492 0
	movl	$.LC225, %eax	#, D.17075
	jmp	.L898	#
.L896:
	.loc 1 3494 0
	movq	-16(%rbp), %rax	# insn, tmp72
	movzbl	3(%rax), %eax	# *insn_10(D), D.17078
	andl	$1, %eax	#, D.17078
	testb	%al, %al	# D.17078
	je	.L899	#,
	.loc 1 3495 0
	movl	$.LC226, %eax	#, D.17075
	jmp	.L898	#
.L899:
	.loc 1 3497 0
	movl	$.LC227, %eax	#, D.17075
.L898:
	.loc 1 3499 0
	leave
	.cfi_def_cfa 7, 8
	ret
	.cfi_endproc
.LFE117:
	.size	output_509, .-output_509
	.type	output_510, @function
output_510:
.LFB118:
	.loc 1 3507 0
	.cfi_startproc
	pushq	%rbp	#
	.cfi_def_cfa_offset 16
	.cfi_offset 6, -16
	movq	%rsp, %rbp	#,
	.cfi_def_cfa_register 6
	movq	%rdi, -8(%rbp)	# operands, operands
	movq	%rsi, -16(%rbp)	# insn, insn
	.loc 1 3509 0
	movq	-16(%rbp), %rax	# insn, tmp63
	movzbl	3(%rax), %eax	# *insn_2(D), D.17082
	andl	$1, %eax	#, D.17082
	testb	%al, %al	# D.17082
	je	.L901	#,
	.loc 1 3510 0
	movl	$.LC224, %eax	#, D.17081
	jmp	.L902	#
.L901:
	.loc 1 3512 0
	movl	$.LC225, %eax	#, D.17081
.L902:
	.loc 1 3514 0
	popq	%rbp	#
	.cfi_def_cfa 7, 8
	ret
	.cfi_endproc
.LFE118:
	.size	output_510, .-output_510
	.type	output_511, @function
output_511:
.LFB119:
	.loc 1 3522 0
	.cfi_startproc
	pushq	%rbp	#
	.cfi_def_cfa_offset 16
	.cfi_offset 6, -16
	movq	%rsp, %rbp	#,
	.cfi_def_cfa_register 6
	subq	$16, %rsp	#,
	movq	%rdi, -8(%rbp)	# operands, operands
	movq	%rsi, -16(%rbp)	# insn, insn
	.loc 1 3524 0
	movq	-8(%rbp), %rax	# operands, tmp67
	movq	(%rax), %rax	# *operands_2(D), D.17084
	movl	$2, %esi	#,
	movq	%rax, %rdi	# D.17084,
	call	constant_call_address_operand	#
	testl	%eax, %eax	# D.17085
	je	.L904	#,
	.loc 1 3526 0
	movq	-16(%rbp), %rax	# insn, tmp68
	movzbl	3(%rax), %eax	# *insn_5(D), D.17086
	andl	$1, %eax	#, D.17086
	testb	%al, %al	# D.17086
	je	.L905	#,
	.loc 1 3527 0
	movl	$.LC224, %eax	#, D.17083
	jmp	.L906	#
.L905:
	.loc 1 3529 0
	movl	$.LC225, %eax	#, D.17083
	jmp	.L906	#
.L904:
	.loc 1 3531 0
	movq	-16(%rbp), %rax	# insn, tmp69
	movzbl	3(%rax), %eax	# *insn_5(D), D.17086
	andl	$1, %eax	#, D.17086
	testb	%al, %al	# D.17086
	je	.L907	#,
	.loc 1 3532 0
	movl	$.LC226, %eax	#, D.17083
	jmp	.L906	#
.L907:
	.loc 1 3534 0
	movl	$.LC227, %eax	#, D.17083
.L906:
	.loc 1 3536 0
	leave
	.cfi_def_cfa 7, 8
	ret
	.cfi_endproc
.LFE119:
	.size	output_511, .-output_511
	.type	output_512, @function
output_512:
.LFB120:
	.loc 1 3544 0
	.cfi_startproc
	pushq	%rbp	#
	.cfi_def_cfa_offset 16
	.cfi_offset 6, -16
	movq	%rsp, %rbp	#,
	.cfi_def_cfa_register 6
	subq	$16, %rsp	#,
	movq	%rdi, -8(%rbp)	# operands, operands
	movq	%rsi, -16(%rbp)	# insn, insn
	.loc 1 3546 0
	movq	-8(%rbp), %rax	# operands, tmp67
	movq	(%rax), %rax	# *operands_2(D), D.17088
	movl	$2, %esi	#,
	movq	%rax, %rdi	# D.17088,
	call	constant_call_address_operand	#
	testl	%eax, %eax	# D.17089
	je	.L909	#,
	.loc 1 3548 0
	movq	-16(%rbp), %rax	# insn, tmp68
	movzbl	3(%rax), %eax	# *insn_5(D), D.17090
	andl	$1, %eax	#, D.17090
	testb	%al, %al	# D.17090
	je	.L910	#,
	.loc 1 3549 0
	movl	$.LC224, %eax	#, D.17087
	jmp	.L911	#
.L910:
	.loc 1 3551 0
	movl	$.LC225, %eax	#, D.17087
	jmp	.L911	#
.L909:
	.loc 1 3553 0
	movq	-16(%rbp), %rax	# insn, tmp69
	movzbl	3(%rax), %eax	# *insn_5(D), D.17090
	andl	$1, %eax	#, D.17090
	testb	%al, %al	# D.17090
	je	.L912	#,
	.loc 1 3554 0
	movl	$.LC226, %eax	#, D.17087
	jmp	.L911	#
.L912:
	.loc 1 3556 0
	movl	$.LC227, %eax	#, D.17087
.L911:
	.loc 1 3558 0
	leave
	.cfi_def_cfa 7, 8
	ret
	.cfi_endproc
.LFE120:
	.size	output_512, .-output_512
	.section	.rodata
.LC228:
	.string	"add{l}\t{%1, %0|%0, %1}"
	.align 8
.LC229:
	.string	"add{l}\t{%1+[.-%X2], %0|%0, %a1+(.-%X2)}"
	.text
	.type	output_518, @function
output_518:
.LFB121:
	.loc 1 3566 0
	.cfi_startproc
	pushq	%rbp	#
	.cfi_def_cfa_offset 16
	.cfi_offset 6, -16
	movq	%rsp, %rbp	#,
	.cfi_def_cfa_register 6
	movq	%rdi, -8(%rbp)	# operands, operands
	movq	%rsi, -16(%rbp)	# insn, insn
	.loc 1 3568 0
	movq	-8(%rbp), %rax	# operands, tmp73
	addq	$16, %rax	#, D.17092
	movq	(%rax), %rax	# *_3, D.17093
	movzwl	(%rax), %eax	# _4->code, D.17094
	cmpw	$67, %ax	#, D.17094
	jne	.L914	#,
	.loc 1 3569 0
	movq	-8(%rbp), %rax	# operands, tmp74
	leaq	16(%rax), %rdx	#, D.17092
	movq	-8(%rbp), %rax	# operands, tmp75
	addq	$16, %rax	#, D.17092
	movq	(%rax), %rax	# *_7, D.17093
	movq	8(%rax), %rax	# _8->fld[0].rtx, D.17093
	movq	%rax, (%rdx)	# D.17093, *_6
.L914:
	.loc 1 3570 0
	movl	x86_deep_branch(%rip), %edx	# x86_deep_branch, x86_deep_branch.87
	movl	ix86_cpu(%rip), %eax	# ix86_cpu, ix86_cpu.88
	movl	%eax, %ecx	# ix86_cpu.89, tmp78
	sarl	%cl, %edx	# tmp78, D.17095
	movl	%edx, %eax	# D.17095, D.17095
	andl	$1, %eax	#, D.17095
	testl	%eax, %eax	# D.17095
	je	.L915	#,
	.loc 1 3571 0
	movl	$.LC228, %eax	#, D.17091
	jmp	.L916	#
.L915:
	.loc 1 3573 0
	movl	$.LC229, %eax	#, D.17091
.L916:
	.loc 1 3575 0
	popq	%rbp	#
	.cfi_def_cfa 7, 8
	ret
	.cfi_endproc
.LFE121:
	.size	output_518, .-output_518
	.section	.rodata
.LC230:
	.string	"call\t%X1"
.LC231:
	.string	"L"
.LC232:
	.string	".%s%u:\n"
.LC233:
	.string	"pop{l}\t%0"
.LC234:
	.string	""
	.text
	.type	output_519, @function
output_519:
.LFB122:
	.loc 1 3583 0
	.cfi_startproc
	pushq	%rbp	#
	.cfi_def_cfa_offset 16
	.cfi_offset 6, -16
	movq	%rsp, %rbp	#,
	.cfi_def_cfa_register 6
	subq	$16, %rsp	#,
	movq	%rdi, -8(%rbp)	# operands, operands
	movq	%rsi, -16(%rbp)	# insn, insn
	.loc 1 3585 0
	movq	-8(%rbp), %rax	# operands, tmp78
	addq	$8, %rax	#, D.17099
	movq	(%rax), %rax	# *_3, D.17100
	movzwl	(%rax), %eax	# _4->code, D.17101
	cmpw	$67, %ax	#, D.17101
	jne	.L918	#,
	.loc 1 3586 0
	movq	-8(%rbp), %rax	# operands, tmp79
	leaq	8(%rax), %rdx	#, D.17099
	movq	-8(%rbp), %rax	# operands, tmp80
	addq	$8, %rax	#, D.17099
	movq	(%rax), %rax	# *_7, D.17100
	movq	8(%rax), %rax	# _8->fld[0].rtx, D.17100
	movq	%rax, (%rdx)	# D.17100, *_6
.L918:
	.loc 1 3587 0
	movq	-8(%rbp), %rax	# operands, tmp81
	movq	%rax, %rsi	# tmp81,
	movl	$.LC230, %edi	#,
	call	output_asm_insn	#
	.loc 1 3588 0
	movl	x86_deep_branch(%rip), %edx	# x86_deep_branch, x86_deep_branch.90
	movl	ix86_cpu(%rip), %eax	# ix86_cpu, ix86_cpu.91
	movl	%eax, %ecx	# ix86_cpu.92, tmp85
	sarl	%cl, %edx	# tmp85, D.17102
	movl	%edx, %eax	# D.17102, D.17102
	andl	$1, %eax	#, D.17102
	testl	%eax, %eax	# D.17102
	jne	.L919	#,
	.loc 1 3590 0
	movq	-8(%rbp), %rax	# operands, tmp82
	addq	$8, %rax	#, D.17099
	movq	(%rax), %rax	# *_15, D.17100
	movl	48(%rax), %eax	# _16->fld[5].rtint, D.17102
	movl	%eax, %edx	# D.17102, D.17103
	movq	asm_out_file(%rip), %rax	# asm_out_file, asm_out_file.93
	movl	%edx, %ecx	# D.17103,
	movl	$.LC231, %edx	#,
	movl	$.LC232, %esi	#,
	movq	%rax, %rdi	# asm_out_file.93,
	movl	$0, %eax	#,
	call	fprintf	#
	.loc 1 3592 0
	movl	$.LC233, %eax	#, D.17098
	jmp	.L920	#
.L919:
	.loc 1 3594 0
	movl	$.LC234, %eax	#, D.17098
.L920:
	.loc 1 3596 0
	leave
	.cfi_def_cfa 7, 8
	ret
	.cfi_endproc
.LFE122:
	.size	output_519, .-output_519
	.type	output_525, @function
output_525:
.LFB123:
	.loc 1 3604 0
	.cfi_startproc
	pushq	%rbp	#
	.cfi_def_cfa_offset 16
	.cfi_offset 6, -16
	movq	%rsp, %rbp	#,
	.cfi_def_cfa_register 6
	subq	$16, %rsp	#,
	movq	%rdi, -8(%rbp)	# operands, operands
	movq	%rsi, -16(%rbp)	# insn, insn
	.loc 1 3605 0
	movq	-8(%rbp), %rdx	# operands, tmp61
	movq	-16(%rbp), %rax	# insn, tmp62
	movq	%rdx, %rsi	# tmp61,
	movq	%rax, %rdi	# tmp62,
	call	output_387_binary_op	#
	.loc 1 3606 0
	leave
	.cfi_def_cfa 7, 8
	ret
	.cfi_endproc
.LFE123:
	.size	output_525, .-output_525
	.type	output_526, @function
output_526:
.LFB124:
	.loc 1 3614 0
	.cfi_startproc
	pushq	%rbp	#
	.cfi_def_cfa_offset 16
	.cfi_offset 6, -16
	movq	%rsp, %rbp	#,
	.cfi_def_cfa_register 6
	subq	$16, %rsp	#,
	movq	%rdi, -8(%rbp)	# operands, operands
	movq	%rsi, -16(%rbp)	# insn, insn
	.loc 1 3615 0
	movq	-8(%rbp), %rdx	# operands, tmp61
	movq	-16(%rbp), %rax	# insn, tmp62
	movq	%rdx, %rsi	# tmp61,
	movq	%rax, %rdi	# tmp62,
	call	output_387_binary_op	#
	.loc 1 3616 0
	leave
	.cfi_def_cfa 7, 8
	ret
	.cfi_endproc
.LFE124:
	.size	output_526, .-output_526
	.type	output_527, @function
output_527:
.LFB125:
	.loc 1 3624 0
	.cfi_startproc
	pushq	%rbp	#
