	.file	"jump.c"
# GNU C (Ubuntu/Linaro 4.8.1-10ubuntu9) version 4.8.1 (x86_64-linux-gnu)
#	compiled by GNU C version 4.8.1, GMP version 5.1.2, MPFR version 3.1.1-p2, MPC version 1.0.1
# GGC heuristics: --param ggc-min-expand=100 --param ggc-min-heapsize=131072
# options passed:  -I . -imultiarch x86_64-linux-gnu -D SPEC_CPU -D NDEBUG
# -D SPEC_CPU_LP64 jump.c -mtune=generic -march=x86-64 -g -fverbose-asm
# -fno-strict-aliasing -fstack-protector -Wformat -Wformat-security
# options enabled:  -faggressive-loop-optimizations
# -fasynchronous-unwind-tables -fauto-inc-dec -fbranch-count-reg -fcommon
# -fdelete-null-pointer-checks -fdwarf2-cfi-asm -fearly-inlining
# -feliminate-unused-debug-types -ffunction-cse -fgcse-lm -fgnu-runtime
# -fident -finline-atomics -fira-hoist-pressure -fira-share-save-slots
# -fira-share-spill-slots -fivopts -fkeep-static-consts
# -fleading-underscore -fmath-errno -fmerge-debug-strings
# -fmove-loop-invariants -fpeephole -fprefetch-loop-arrays
# -freg-struct-return -fsched-critical-path-heuristic
# -fsched-dep-count-heuristic -fsched-group-heuristic -fsched-interblock
# -fsched-last-insn-heuristic -fsched-rank-heuristic -fsched-spec
# -fsched-spec-insn-heuristic -fsched-stalled-insns-dep -fshow-column
# -fsigned-zeros -fsplit-ivs-in-unroller -fstack-protector
# -fstrict-volatile-bitfields -fsync-libcalls -ftrapping-math
# -ftree-coalesce-vars -ftree-cselim -ftree-forwprop -ftree-loop-if-convert
# -ftree-loop-im -ftree-loop-ivcanon -ftree-loop-optimize
# -ftree-parallelize-loops= -ftree-phiprop -ftree-pta -ftree-reassoc
# -ftree-scev-cprop -ftree-slp-vectorize -ftree-vect-loop-version
# -funit-at-a-time -funwind-tables -fverbose-asm -fzero-initialized-in-bss
# -m128bit-long-double -m64 -m80387 -maccumulate-outgoing-args
# -malign-stringops -mfancy-math-387 -mfp-ret-in-387 -mfxsr -mglibc
# -mieee-fp -mlong-double-80 -mmmx -mno-sse4 -mpush-args -mred-zone -msse
# -msse2 -mtls-direct-seg-refs

	.text
.Ltext0:
	.globl	rebuild_jump_labels
	.type	rebuild_jump_labels, @function
rebuild_jump_labels:
.LFB2:
	.file 1 "jump.c"
	.loc 1 79 0
	.cfi_startproc
	pushq	%rbp	#
	.cfi_def_cfa_offset 16
	.cfi_offset 6, -16
	movq	%rsp, %rbp	#,
	.cfi_def_cfa_register 6
	subq	$32, %rsp	#,
	movq	%rdi, -24(%rbp)	# f, f
	.loc 1 81 0
	movl	$0, -12(%rbp)	#, max_uid
	.loc 1 83 0
	movq	-24(%rbp), %rax	# f, tmp67
	movq	%rax, %rdi	# tmp67,
	call	init_label_info	#
	addl	$1, %eax	#, tmp68
	movl	%eax, -12(%rbp)	# tmp68, max_uid
	.loc 1 85 0
	movq	-24(%rbp), %rax	# f, tmp69
	movq	%rax, %rdi	# tmp69,
	call	mark_all_labels	#
	.loc 1 91 0
	movq	cfun(%rip), %rax	# cfun, cfun.0
	movq	16(%rax), %rax	# cfun.0_6->expr, D.13067
	movq	32(%rax), %rax	# _7->x_forced_labels, tmp70
	movq	%rax, -8(%rbp)	# tmp70, insn
	jmp	.L2	#
.L4:
	.loc 1 92 0
	movq	-8(%rbp), %rax	# insn, tmp71
	movq	8(%rax), %rax	# insn_1->fld[0].rtx, D.13068
	movzwl	(%rax), %eax	# _9->code, D.13069
	cmpw	$36, %ax	#, D.13069
	jne	.L3	#,
	.loc 1 93 0
	movq	-8(%rbp), %rax	# insn, tmp72
	movq	8(%rax), %rax	# insn_1->fld[0].rtx, D.13068
	movl	32(%rax), %edx	# _11->fld[3].rtint, D.13066
	addl	$1, %edx	#, D.13066
	movl	%edx, 32(%rax)	# D.13066, _11->fld[3].rtint
.L3:
	.loc 1 91 0
	movq	-8(%rbp), %rax	# insn, tmp73
	movq	16(%rax), %rax	# insn_1->fld[1].rtx, tmp74
	movq	%rax, -8(%rbp)	# tmp74, insn
.L2:
	.loc 1 91 0 is_stmt 0 discriminator 1
	cmpq	$0, -8(%rbp)	#, insn
	jne	.L4	#,
	.loc 1 94 0 is_stmt 1
	leave
	.cfi_def_cfa 7, 8
	ret
	.cfi_endproc
.LFE2:
	.size	rebuild_jump_labels, .-rebuild_jump_labels
	.globl	cleanup_barriers
	.type	cleanup_barriers, @function
cleanup_barriers:
.LFB3:
	.loc 1 106 0
	.cfi_startproc
	pushq	%rbp	#
	.cfi_def_cfa_offset 16
	.cfi_offset 6, -16
	movq	%rsp, %rbp	#,
	.cfi_def_cfa_register 6
	subq	$32, %rsp	#,
	.loc 1 108 0
	call	get_insns	#
	movq	%rax, -24(%rbp)	# tmp62, insn
	jmp	.L6	#
.L9:
	.loc 1 110 0
	movq	-24(%rbp), %rax	# insn, tmp63
	movq	24(%rax), %rax	# insn_1->fld[2].rtx, tmp64
	movq	%rax, -16(%rbp)	# tmp64, next
	.loc 1 111 0
	movq	-24(%rbp), %rax	# insn, tmp65
	movzwl	(%rax), %eax	# insn_1->code, D.13070
	cmpw	$35, %ax	#, D.13070
	jne	.L7	#,
	.loc 1 113 0
	movq	-24(%rbp), %rax	# insn, tmp66
	movq	%rax, %rdi	# tmp66,
	call	prev_nonnote_insn	#
	movq	%rax, -8(%rbp)	# tmp67, prev
	.loc 1 114 0
	movq	-8(%rbp), %rax	# prev, tmp68
	movzwl	(%rax), %eax	# prev_5->code, D.13070
	cmpw	$35, %ax	#, D.13070
	jne	.L8	#,
	.loc 1 115 0
	movq	-24(%rbp), %rax	# insn, tmp69
	movq	%rax, %rdi	# tmp69,
	call	delete_barrier	#
	jmp	.L7	#
.L8:
	.loc 1 116 0
	movq	-24(%rbp), %rax	# insn, tmp70
	movq	16(%rax), %rax	# insn_1->fld[1].rtx, D.13071
	cmpq	-8(%rbp), %rax	# prev, D.13071
	je	.L7	#,
	.loc 1 117 0
	movq	-8(%rbp), %rdx	# prev, tmp71
	movq	-24(%rbp), %rcx	# insn, tmp72
	movq	-24(%rbp), %rax	# insn, tmp73
	movq	%rcx, %rsi	# tmp72,
	movq	%rax, %rdi	# tmp73,
	call	reorder_insns	#
.L7:
	.loc 1 108 0
	movq	-16(%rbp), %rax	# next, tmp74
	movq	%rax, -24(%rbp)	# tmp74, insn
.L6:
	.loc 1 108 0 is_stmt 0 discriminator 1
	cmpq	$0, -24(%rbp)	#, insn
	jne	.L9	#,
	.loc 1 120 0 is_stmt 1
	leave
	.cfi_def_cfa 7, 8
	ret
	.cfi_endproc
.LFE3:
	.size	cleanup_barriers, .-cleanup_barriers
	.globl	copy_loop_headers
	.type	copy_loop_headers, @function
copy_loop_headers:
.LFB4:
	.loc 1 125 0
	.cfi_startproc
	pushq	%rbp	#
	.cfi_def_cfa_offset 16
	.cfi_offset 6, -16
	movq	%rsp, %rbp	#,
	.cfi_def_cfa_register 6
	subq	$48, %rsp	#,
	movq	%rdi, -40(%rbp)	# f, f
	.loc 1 128 0
	movq	-40(%rbp), %rax	# f, tmp64
	movq	%rax, -32(%rbp)	# tmp64, insn
	jmp	.L11	#
.L13:
.LBB2:
	.loc 1 132 0
	movq	-32(%rbp), %rax	# insn, tmp65
	movq	24(%rax), %rax	# insn_1->fld[2].rtx, tmp66
	movq	%rax, -24(%rbp)	# tmp66, next
	.loc 1 138 0
	movq	-32(%rbp), %rax	# insn, tmp67
	movzwl	(%rax), %eax	# insn_1->code, D.13072
	cmpw	$37, %ax	#, D.13072
	jne	.L12	#,
	.loc 1 139 0
	movq	-32(%rbp), %rax	# insn, tmp68
	movl	40(%rax), %eax	# insn_1->fld[4].rtint, D.13073
	cmpl	$-96, %eax	#, D.13073
	jne	.L12	#,
	.loc 1 140 0
	movq	-32(%rbp), %rax	# insn, tmp69
	movq	%rax, %rdi	# tmp69,
	call	next_nonnote_insn	#
	movq	%rax, -16(%rbp)	# tmp70, temp1
	cmpq	$0, -16(%rbp)	#, temp1
	je	.L12	#,
	.loc 1 141 0
	movq	-16(%rbp), %rax	# temp1, tmp71
	movq	%rax, %rdi	# tmp71,
	call	any_uncondjump_p	#
	testl	%eax, %eax	# D.13073
	je	.L12	#,
	.loc 1 141 0 is_stmt 0 discriminator 1
	movq	-16(%rbp), %rax	# temp1, tmp72
	movq	%rax, %rdi	# tmp72,
	call	onlyjump_p	#
	testl	%eax, %eax	# D.13073
	je	.L12	#,
	.loc 1 143 0 is_stmt 1
	movq	-32(%rbp), %rax	# insn, tmp73
	movq	16(%rax), %rax	# insn_1->fld[1].rtx, tmp74
	movq	%rax, -8(%rbp)	# tmp74, temp
	.loc 1 144 0
	movq	-32(%rbp), %rax	# insn, tmp75
	movq	%rax, %rdi	# tmp75,
	call	duplicate_loop_exit_test	#
	testl	%eax, %eax	# D.13073
	je	.L12	#,
	.loc 1 146 0
	movq	-8(%rbp), %rax	# temp, tmp76
	movq	24(%rax), %rax	# temp_11->fld[2].rtx, tmp77
	movq	%rax, -24(%rbp)	# tmp77, next
.L12:
.LBE2:
	.loc 1 128 0
	movq	-24(%rbp), %rax	# next, tmp78
	movq	%rax, -32(%rbp)	# tmp78, insn
.L11:
	.loc 1 128 0 is_stmt 0 discriminator 1
	cmpq	$0, -32(%rbp)	#, insn
	jne	.L13	#,
	.loc 1 150 0 is_stmt 1
	leave
	.cfi_def_cfa 7, 8
	ret
	.cfi_endproc
.LFE4:
	.size	copy_loop_headers, .-copy_loop_headers
	.globl	purge_line_number_notes
	.type	purge_line_number_notes, @function
purge_line_number_notes:
.LFB5:
	.loc 1 155 0
	.cfi_startproc
	pushq	%rbp	#
	.cfi_def_cfa_offset 16
	.cfi_offset 6, -16
	movq	%rsp, %rbp	#,
	.cfi_def_cfa_register 6
	subq	$32, %rsp	#,
	movq	%rdi, -24(%rbp)	# f, f
	.loc 1 156 0
	movq	$0, -16(%rbp)	#, last_note
	.loc 1 163 0
	movq	-24(%rbp), %rax	# f, tmp66
	movq	%rax, -8(%rbp)	# tmp66, insn
	jmp	.L15	#
.L19:
	.loc 1 164 0
	movq	-8(%rbp), %rax	# insn, tmp67
	movzwl	(%rax), %eax	# insn_3->code, D.13074
	cmpw	$37, %ax	#, D.13074
	jne	.L16	#,
	.loc 1 166 0
	movq	-8(%rbp), %rax	# insn, tmp68
	movl	40(%rax), %eax	# insn_3->fld[4].rtint, D.13075
	cmpl	$-87, %eax	#, D.13075
	jne	.L17	#,
	.loc 1 169 0
	movq	$0, -16(%rbp)	#, last_note
	jmp	.L16	#
.L17:
	.loc 1 170 0
	movq	-8(%rbp), %rax	# insn, tmp69
	movl	40(%rax), %eax	# insn_3->fld[4].rtint, D.13075
	testl	%eax, %eax	# D.13075
	js	.L16	#,
	.loc 1 173 0
	cmpq	$0, -16(%rbp)	#, last_note
	je	.L18	#,
	.loc 1 174 0
	movq	-8(%rbp), %rax	# insn, tmp70
	movq	32(%rax), %rdx	# insn_3->fld[3].rtstr, D.13076
	movq	-16(%rbp), %rax	# last_note, tmp71
	movq	32(%rax), %rax	# last_note_2->fld[3].rtstr, D.13076
	cmpq	%rax, %rdx	# D.13076, D.13076
	jne	.L18	#,
	.loc 1 175 0
	movq	-8(%rbp), %rax	# insn, tmp72
	movl	40(%rax), %edx	# insn_3->fld[4].rtint, D.13075
	movq	-16(%rbp), %rax	# last_note, tmp73
	movl	40(%rax), %eax	# last_note_2->fld[4].rtint, D.13075
	cmpl	%eax, %edx	# D.13075, D.13075
	jne	.L18	#,
	.loc 1 177 0
	movq	-8(%rbp), %rax	# insn, tmp74
	movq	%rax, %rdi	# tmp74,
	call	delete_related_insns	#
	.loc 1 178 0
	jmp	.L16	#
.L18:
	.loc 1 181 0
	movq	-8(%rbp), %rax	# insn, tmp75
	movq	%rax, -16(%rbp)	# tmp75, last_note
.L16:
	.loc 1 163 0
	movq	-8(%rbp), %rax	# insn, tmp76
	movq	24(%rax), %rax	# insn_3->fld[2].rtx, tmp77
	movq	%rax, -8(%rbp)	# tmp77, insn
.L15:
	.loc 1 163 0 is_stmt 0 discriminator 1
	cmpq	$0, -8(%rbp)	#, insn
	jne	.L19	#,
	.loc 1 184 0 is_stmt 1
	leave
	.cfi_def_cfa 7, 8
	ret
	.cfi_endproc
.LFE5:
	.size	purge_line_number_notes, .-purge_line_number_notes
	.type	init_label_info, @function
init_label_info:
.LFB6:
	.loc 1 192 0
	.cfi_startproc
	pushq	%rbp	#
	.cfi_def_cfa_offset 16
	.cfi_offset 6, -16
	movq	%rsp, %rbp	#,
	.cfi_def_cfa_register 6
	subq	$48, %rsp	#,
	movq	%rdi, -40(%rbp)	# f, f
	.loc 1 193 0
	movl	$0, -28(%rbp)	#, largest_uid
	.loc 1 196 0
	movq	-40(%rbp), %rax	# f, tmp74
	movq	%rax, -24(%rbp)	# tmp74, insn
	jmp	.L21	#
.L30:
	.loc 1 198 0
	movq	-24(%rbp), %rax	# insn, tmp75
	movzwl	(%rax), %eax	# insn_3->code, D.13077
	cmpw	$36, %ax	#, D.13077
	jne	.L22	#,
	.loc 1 199 0
	movq	-24(%rbp), %rax	# insn, tmp76
	movzbl	3(%rax), %eax	# *insn_3, D.13078
	andl	$16, %eax	#, D.13078
	testb	%al, %al	# D.13078
	setne	%al	#, D.13079
	movzbl	%al, %edx	# D.13079, D.13080
	movq	-24(%rbp), %rax	# insn, tmp77
	movl	%edx, 32(%rax)	# D.13080, insn_3->fld[3].rtint
	jmp	.L23	#
.L22:
	.loc 1 200 0
	movq	-24(%rbp), %rax	# insn, tmp78
	movzwl	(%rax), %eax	# insn_3->code, D.13077
	cmpw	$33, %ax	#, D.13077
	jne	.L24	#,
	.loc 1 201 0
	movq	-24(%rbp), %rax	# insn, tmp79
	movq	$0, 64(%rax)	#, insn_3->fld[7].rtx
	jmp	.L23	#
.L24:
	.loc 1 202 0
	movq	-24(%rbp), %rax	# insn, tmp80
	movzwl	(%rax), %eax	# insn_3->code, D.13077
	cmpw	$32, %ax	#, D.13077
	je	.L25	#,
	.loc 1 202 0 is_stmt 0 discriminator 1
	movq	-24(%rbp), %rax	# insn, tmp81
	movzwl	(%rax), %eax	# insn_3->code, D.13077
	cmpw	$34, %ax	#, D.13077
	jne	.L23	#,
.L25:
.LBB3:
	.loc 1 206 0 is_stmt 1
	movq	-24(%rbp), %rax	# insn, tmp82
	movq	56(%rax), %rax	# insn_3->fld[6].rtx, tmp83
	movq	%rax, -16(%rbp)	# tmp83, note
	jmp	.L26	#
.L28:
	.loc 1 208 0
	movq	-16(%rbp), %rax	# note, tmp84
	movq	16(%rax), %rax	# note_4->fld[1].rtx, tmp85
	movq	%rax, -8(%rbp)	# tmp85, next
	.loc 1 209 0
	movq	-16(%rbp), %rax	# note, tmp86
	movzbl	2(%rax), %eax	# note_4->mode, D.13078
	cmpb	$13, %al	#, D.13078
	jne	.L27	#,
	.loc 1 210 0
	movq	-24(%rbp), %rax	# insn, tmp87
	movq	32(%rax), %rdx	# insn_3->fld[3].rtx, D.13081
	movq	-16(%rbp), %rax	# note, tmp88
	movq	8(%rax), %rax	# note_4->fld[0].rtx, D.13081
	movq	%rdx, %rsi	# D.13081,
	movq	%rax, %rdi	# D.13081,
	call	reg_mentioned_p	#
	testl	%eax, %eax	# D.13080
	jne	.L27	#,
	.loc 1 211 0
	movq	-16(%rbp), %rdx	# note, tmp89
	movq	-24(%rbp), %rax	# insn, tmp90
	movq	%rdx, %rsi	# tmp89,
	movq	%rax, %rdi	# tmp90,
	call	remove_note	#
.L27:
	.loc 1 206 0
	movq	-8(%rbp), %rax	# next, tmp91
	movq	%rax, -16(%rbp)	# tmp91, note
.L26:
	.loc 1 206 0 is_stmt 0 discriminator 1
	cmpq	$0, -16(%rbp)	#, note
	jne	.L28	#,
.L23:
.LBE3:
	.loc 1 214 0 is_stmt 1
	movq	-24(%rbp), %rax	# insn, tmp92
	movl	8(%rax), %eax	# insn_3->fld[0].rtint, D.13080
	cmpl	-28(%rbp), %eax	# largest_uid, D.13080
	jle	.L29	#,
	.loc 1 215 0
	movq	-24(%rbp), %rax	# insn, tmp93
	movl	8(%rax), %eax	# insn_3->fld[0].rtint, tmp94
	movl	%eax, -28(%rbp)	# tmp94, largest_uid
.L29:
	.loc 1 196 0
	movq	-24(%rbp), %rax	# insn, tmp95
	movq	24(%rax), %rax	# insn_3->fld[2].rtx, tmp96
	movq	%rax, -24(%rbp)	# tmp96, insn
.L21:
	.loc 1 196 0 is_stmt 0 discriminator 1
	cmpq	$0, -24(%rbp)	#, insn
	jne	.L30	#,
	.loc 1 218 0 is_stmt 1
	movl	-28(%rbp), %eax	# largest_uid, D.13080
	.loc 1 219 0
	leave
	.cfi_def_cfa 7, 8
	ret
	.cfi_endproc
.LFE6:
	.size	init_label_info, .-init_label_info
	.type	mark_all_labels, @function
mark_all_labels:
.LFB7:
	.loc 1 227 0
	.cfi_startproc
	pushq	%rbp	#
	.cfi_def_cfa_offset 16
	.cfi_offset 6, -16
	movq	%rsp, %rbp	#,
	.cfi_def_cfa_register 6
	subq	$48, %rsp	#,
	movq	%rdi, -40(%rbp)	# f, f
	.loc 1 230 0
	movq	-40(%rbp), %rax	# f, tmp85
	movq	%rax, -32(%rbp)	# tmp85, insn
	jmp	.L33	#
.L37:
	.loc 1 231 0
	movq	-32(%rbp), %rax	# insn, tmp86
	movzwl	(%rax), %eax	# insn_1->code, D.13082
	movzwl	%ax, %eax	# D.13082, D.13083
	cltq
	movzbl	rtx_class(%rax), %eax	# rtx_class, D.13084
	cmpb	$105, %al	#, D.13084
	jne	.L34	#,
	.loc 1 233 0
	movq	-32(%rbp), %rax	# insn, tmp88
	movzwl	(%rax), %eax	# insn_1->code, D.13082
	cmpw	$34, %ax	#, D.13082
	jne	.L35	#,
	.loc 1 234 0
	movq	-32(%rbp), %rax	# insn, tmp89
	movq	32(%rax), %rax	# insn_1->fld[3].rtx, D.13085
	movzwl	(%rax), %eax	# _8->code, D.13082
	cmpw	$141, %ax	#, D.13082
	jne	.L35	#,
	.loc 1 236 0
	movq	-32(%rbp), %rax	# insn, tmp90
	movq	32(%rax), %rax	# insn_1->fld[3].rtx, D.13085
	movq	8(%rax), %rax	# _10->fld[0].rtx, D.13085
	movq	%rax, %rdi	# D.13085,
	call	mark_all_labels	#
	.loc 1 237 0
	movq	-32(%rbp), %rax	# insn, tmp91
	movq	32(%rax), %rax	# insn_1->fld[3].rtx, D.13085
	movq	16(%rax), %rax	# _12->fld[1].rtx, D.13085
	movq	%rax, %rdi	# D.13085,
	call	mark_all_labels	#
	.loc 1 238 0
	movq	-32(%rbp), %rax	# insn, tmp92
	movq	32(%rax), %rax	# insn_1->fld[3].rtx, D.13085
	movq	24(%rax), %rax	# _14->fld[2].rtx, D.13085
	movq	%rax, %rdi	# D.13085,
	call	mark_all_labels	#
	.loc 1 242 0
	movq	-32(%rbp), %rax	# insn, tmp93
	movq	32(%rax), %rax	# insn_1->fld[3].rtx, D.13085
	movq	32(%rax), %rax	# _16->fld[3].rtx, D.13085
	testq	%rax, %rax	# D.13085
	je	.L36	#,
.LBB4:
	.loc 1 244 0
	movq	-32(%rbp), %rax	# insn, tmp94
	movq	32(%rax), %rax	# insn_1->fld[3].rtx, D.13085
	movq	32(%rax), %rax	# _18->fld[3].rtx, D.13085
	movq	%rax, %rdx	# D.13085,
	movl	$0, %esi	#,
	movl	$67, %edi	#,
	call	gen_rtx_fmt_u00	#
	movq	%rax, -24(%rbp)	# tmp95, label_ref
	.loc 1 246 0
	movq	-32(%rbp), %rcx	# insn, tmp96
	movq	-24(%rbp), %rax	# label_ref, tmp97
	movl	$0, %edx	#,
	movq	%rcx, %rsi	# tmp96,
	movq	%rax, %rdi	# tmp97,
	call	mark_jump_label	#
	.loc 1 247 0
	movq	-32(%rbp), %rax	# insn, tmp98
	movq	32(%rax), %rax	# insn_1->fld[3].rtx, D.13085
	movq	-24(%rbp), %rdx	# label_ref, tmp99
	movq	8(%rdx), %rdx	# label_ref_20->fld[0].rtx, D.13085
	movq	%rdx, 32(%rax)	# D.13085, _21->fld[3].rtx
.LBE4:
	.loc 1 250 0
	jmp	.L34	#
.L36:
	jmp	.L34	#
.L35:
	.loc 1 253 0
	movq	-32(%rbp), %rax	# insn, tmp100
	movq	32(%rax), %rax	# insn_1->fld[3].rtx, D.13085
	movq	-32(%rbp), %rcx	# insn, tmp101
	movl	$0, %edx	#,
	movq	%rcx, %rsi	# tmp101,
	movq	%rax, %rdi	# D.13085,
	call	mark_jump_label	#
	.loc 1 254 0
	movq	-32(%rbp), %rax	# insn, tmp102
	movzbl	3(%rax), %eax	# *insn_1, D.13086
	andl	$8, %eax	#, D.13086
	testb	%al, %al	# D.13086
	jne	.L34	#,
	.loc 1 254 0 is_stmt 0 discriminator 1
	movq	-32(%rbp), %rax	# insn, tmp103
	movzwl	(%rax), %eax	# insn_1->code, D.13082
	cmpw	$33, %ax	#, D.13082
	jne	.L34	#,
	.loc 1 259 0 is_stmt 1
	movq	-32(%rbp), %rax	# insn, tmp104
	movq	64(%rax), %rax	# insn_1->fld[7].rtx, D.13085
	testq	%rax, %rax	# D.13085
	jne	.L34	#,
.LBB5:
	.loc 1 261 0
	movq	-32(%rbp), %rax	# insn, tmp105
	movl	$0, %edx	#,
	movl	$13, %esi	#,
	movq	%rax, %rdi	# tmp105,
	call	find_reg_note	#
	movq	%rax, -16(%rbp)	# tmp106, label_note
	.loc 1 262 0
	cmpq	$0, -16(%rbp)	#, label_note
	je	.L34	#,
.LBB6:
	.loc 1 266 0
	movq	-16(%rbp), %rax	# label_note, tmp107
	movq	8(%rax), %rax	# label_note_28->fld[0].rtx, D.13085
	movq	%rax, %rdx	# D.13085,
	movl	$0, %esi	#,
	movl	$67, %edi	#,
	call	gen_rtx_fmt_u00	#
	movq	%rax, -8(%rbp)	# tmp108, label_ref
	.loc 1 269 0
	movq	-32(%rbp), %rcx	# insn, tmp109
	movq	-8(%rbp), %rax	# label_ref, tmp110
	movl	$0, %edx	#,
	movq	%rcx, %rsi	# tmp109,
	movq	%rax, %rdi	# tmp110,
	call	mark_jump_label	#
	.loc 1 270 0
	movq	-8(%rbp), %rax	# label_ref, tmp111
	movq	8(%rax), %rdx	# label_ref_30->fld[0].rtx, D.13085
	movq	-16(%rbp), %rax	# label_note, tmp112
	movq	%rdx, 8(%rax)	# D.13085, label_note_28->fld[0].rtx
	.loc 1 271 0
	movq	-16(%rbp), %rax	# label_note, tmp113
	movq	8(%rax), %rdx	# label_note_28->fld[0].rtx, D.13085
	movq	-32(%rbp), %rax	# insn, tmp114
	movq	%rdx, 64(%rax)	# D.13085, insn_1->fld[7].rtx
.L34:
.LBE6:
.LBE5:
	.loc 1 230 0
	movq	-32(%rbp), %rax	# insn, tmp115
	movq	24(%rax), %rax	# insn_1->fld[2].rtx, tmp116
	movq	%rax, -32(%rbp)	# tmp116, insn
.L33:
	.loc 1 230 0 is_stmt 0 discriminator 1
	cmpq	$0, -32(%rbp)	#, insn
	jne	.L37	#,
	.loc 1 276 0 is_stmt 1
	leave
	.cfi_def_cfa 7, 8
	ret
	.cfi_endproc
.LFE7:
	.size	mark_all_labels, .-mark_all_labels
	.section	.rodata
.LC0:
	.string	"jump.c"
	.text
	.type	duplicate_loop_exit_test, @function
duplicate_loop_exit_test:
.LFB8:
	.loc 1 292 0
	.cfi_startproc
	pushq	%rbp	#
	.cfi_def_cfa_offset 16
	.cfi_offset 6, -16
	movq	%rsp, %rbp	#,
	.cfi_def_cfa_register 6
	pushq	%rbx	#
	subq	$136, %rsp	#,
	.cfi_offset 3, -24
	movq	%rdi, -136(%rbp)	# loop_start, loop_start
	.loc 1 294 0
	movq	$0, -80(%rbp)	#, copy
	movq	$0, -72(%rbp)	#, first_copy
	.loc 1 295 0
	movl	$0, -120(%rbp)	#, num_insns
	.loc 1 296 0
	movq	-136(%rbp), %rax	# loop_start, tmp153
	movq	%rax, %rdi	# tmp153,
	call	next_nonnote_insn	#
	movq	64(%rax), %rax	# _27->fld[7].rtx, D.13088
	movq	24(%rax), %rax	# _28->fld[2].rtx, tmp154
	movq	%rax, -56(%rbp)	# tmp154, exitcode
	.loc 1 298 0
	call	max_reg_num	#
	movl	%eax, -116(%rbp)	# tmp155, max_reg
	.loc 1 299 0
	movq	$0, -64(%rbp)	#, reg_map
	.loc 1 317 0
	movq	-56(%rbp), %rax	# exitcode, tmp156
	movq	%rax, -112(%rbp)	# tmp156, insn
	jmp	.L39	#
.L56:
	.loc 1 323 0
	movq	-112(%rbp), %rax	# insn, tmp157
	movzwl	(%rax), %eax	# insn_1->code, D.13089
	movzwl	%ax, %eax	# D.13089, D.13090
	subl	$32, %eax	#, tmp158
	cmpl	$5, %eax	#, tmp158
	ja	.L96	#,
	movl	%eax, %eax	# tmp158, tmp159
	movq	.L42(,%rax,8), %rax	#, tmp160
	jmp	*%rax	# tmp160
	.section	.rodata
	.align 8
	.align 4
.L42:
	.quad	.L51
	.quad	.L51
	.quad	.L43
	.quad	.L96
	.quad	.L43
	.quad	.L44
	.text
.L43:
	.loc 1 327 0
	movl	$0, %eax	#, D.13087
	jmp	.L45	#
.L44:
	.loc 1 338 0
	movq	-112(%rbp), %rax	# insn, tmp161
	movl	40(%rax), %eax	# insn_1->fld[4].rtint, D.13087
	cmpl	$-96, %eax	#, D.13087
	je	.L46	#,
	.loc 1 339 0
	movq	-112(%rbp), %rax	# insn, tmp162
	movl	40(%rax), %eax	# insn_1->fld[4].rtint, D.13087
	cmpl	$-94, %eax	#, D.13087
	jne	.L47	#,
.L46:
	.loc 1 340 0
	movl	$0, %eax	#, D.13087
	jmp	.L45	#
.L47:
	.loc 1 342 0
	movl	optimize(%rip), %eax	# optimize, optimize.1
	cmpl	$1, %eax	#, optimize.1
	jg	.L48	#,
	.loc 1 343 0
	movq	-112(%rbp), %rax	# insn, tmp163
	movl	40(%rax), %eax	# insn_1->fld[4].rtint, D.13087
	cmpl	$-98, %eax	#, D.13087
	je	.L49	#,
	.loc 1 344 0
	movq	-112(%rbp), %rax	# insn, tmp164
	movl	40(%rax), %eax	# insn_1->fld[4].rtint, D.13087
	cmpl	$-97, %eax	#, D.13087
	jne	.L48	#,
.L49:
	.loc 1 349 0
	movl	$0, %eax	#, D.13087
	jmp	.L45	#
.L48:
	.loc 1 351 0
	jmp	.L50	#
.L52:
	.loc 1 357 0
	movq	-96(%rbp), %rdx	# p, tmp165
	movq	-112(%rbp), %rax	# insn, tmp166
	movq	%rdx, %rsi	# tmp165,
	movq	%rax, %rdi	# tmp166,
	call	remove_note	#
.L51:
	.loc 1 356 0 discriminator 1
	movq	-112(%rbp), %rax	# insn, tmp167
	movl	$0, %edx	#,
	movl	$5, %esi	#,
	movq	%rax, %rdi	# tmp167,
	call	find_reg_note	#
	movq	%rax, -96(%rbp)	# tmp168, p
	cmpq	$0, -96(%rbp)	#, p
	jne	.L52	#,
	.loc 1 358 0
	addl	$1, -120(%rbp)	#, num_insns
	cmpl	$20, -120(%rbp)	#, num_insns
	jg	.L53	#,
	.loc 1 359 0
	movq	-112(%rbp), %rax	# insn, tmp169
	movl	$0, %edx	#,
	movl	$6, %esi	#,
	movq	%rax, %rdi	# tmp169,
	call	find_reg_note	#
	testq	%rax, %rax	# D.13088
	jne	.L53	#,
	.loc 1 360 0
	movq	-112(%rbp), %rax	# insn, tmp170
	movl	$0, %edx	#,
	movl	$7, %esi	#,
	movq	%rax, %rdi	# tmp170,
	call	find_reg_note	#
	testq	%rax, %rax	# D.13088
	je	.L54	#,
.L53:
	.loc 1 361 0
	movl	$0, %eax	#, D.13087
	jmp	.L45	#
.L54:
	.loc 1 362 0
	jmp	.L50	#
.L96:
	.loc 1 364 0
	nop
.L50:
	.loc 1 321 0
	movq	-112(%rbp), %rax	# insn, tmp171
	movq	24(%rax), %rax	# insn_1->fld[2].rtx, tmp172
	movq	%rax, -112(%rbp)	# tmp172, insn
.L39:
	.loc 1 317 0 discriminator 1
	cmpq	$0, -112(%rbp)	#, insn
	je	.L55	#,
	.loc 1 319 0
	movq	-112(%rbp), %rax	# insn, tmp173
	movzwl	(%rax), %eax	# insn_1->code, D.13089
	cmpw	$37, %ax	#, D.13089
	jne	.L56	#,
	.loc 1 320 0 discriminator 1
	movq	-112(%rbp), %rax	# insn, tmp174
	movl	40(%rax), %eax	# insn_1->fld[4].rtint, D.13087
	.loc 1 319 0 discriminator 1
	cmpl	$-95, %eax	#, D.13087
	jne	.L56	#,
.L55:
	.loc 1 369 0
	cmpq	$0, -112(%rbp)	#, insn
	jne	.L57	#,
	.loc 1 370 0
	movl	$0, %eax	#, D.13087
	jmp	.L45	#
.L57:
	.loc 1 372 0
	movq	-112(%rbp), %rax	# insn, tmp175
	movq	%rax, -48(%rbp)	# tmp175, lastexit
	.loc 1 376 0
	movq	-56(%rbp), %rax	# exitcode, tmp176
	movq	%rax, -112(%rbp)	# tmp176, insn
	jmp	.L58	#
.L70:
	.loc 1 377 0
	movq	-112(%rbp), %rax	# insn, tmp177
	movzwl	(%rax), %eax	# insn_2->code, D.13089
	cmpw	$32, %ax	#, D.13089
	jne	.L59	#,
	.loc 1 378 0
	movq	-112(%rbp), %rax	# insn, tmp178
	movzwl	(%rax), %eax	# insn_2->code, D.13089
	movzwl	%ax, %eax	# D.13089, D.13087
	cltq
	movzbl	rtx_class(%rax), %eax	# rtx_class, D.13091
	cmpb	$105, %al	#, D.13091
	jne	.L60	#,
	.loc 1 378 0 is_stmt 0 discriminator 1
	movq	-112(%rbp), %rax	# insn, tmp180
	movq	32(%rax), %rax	# insn_2->fld[3].rtx, D.13088
	movzwl	(%rax), %eax	# _58->code, D.13089
	cmpw	$47, %ax	#, D.13089
	jne	.L61	#,
	.loc 1 378 0 discriminator 3
	movq	-112(%rbp), %rax	# insn, tmp181
	movq	32(%rax), %rax	# insn_2->fld[3].rtx, iftmp.3
	jmp	.L63	#
.L61:
	.loc 1 378 0 discriminator 4
	movq	-112(%rbp), %rax	# insn, tmp182
	movq	32(%rax), %rdx	# insn_2->fld[3].rtx, D.13088
	movq	-112(%rbp), %rax	# insn, tmp183
	movq	%rdx, %rsi	# D.13088,
	movq	%rax, %rdi	# tmp183,
	call	single_set_2	#
	jmp	.L63	#
.L60:
	.loc 1 378 0 discriminator 2
	movl	$0, %eax	#, iftmp.2
.L63:
	.loc 1 378 0 discriminator 5
	movq	%rax, -40(%rbp)	# iftmp.2, set
	cmpq	$0, -40(%rbp)	#, set
	je	.L59	#,
	.loc 1 379 0 is_stmt 1
	movq	-40(%rbp), %rax	# set, tmp184
	movq	8(%rax), %rax	# set_65->fld[0].rtx, tmp185
	movq	%rax, -104(%rbp)	# tmp185, reg
	movq	-104(%rbp), %rax	# reg, tmp186
	movzwl	(%rax), %eax	# reg_66->code, D.13089
	cmpw	$61, %ax	#, D.13089
	je	.L64	#,
	.loc 1 380 0
	movq	-104(%rbp), %rax	# reg, tmp187
	movzwl	(%rax), %eax	# reg_66->code, D.13089
	cmpw	$63, %ax	#, D.13089
	jne	.L59	#,
	.loc 1 381 0
	movq	-104(%rbp), %rax	# reg, tmp188
	movq	8(%rax), %rax	# reg_66->fld[0].rtx, tmp189
	movq	%rax, -104(%rbp)	# tmp189, reg
	movq	-104(%rbp), %rax	# reg, tmp190
	movzwl	(%rax), %eax	# reg_69->code, D.13089
	cmpw	$61, %ax	#, D.13089
	jne	.L59	#,
.L64:
	.loc 1 382 0
	movq	-104(%rbp), %rax	# reg, tmp191
	movl	8(%rax), %eax	# reg_4->fld[0].rtuint, D.13090
	cmpl	$52, %eax	#, D.13090
	jbe	.L59	#,
	.loc 1 383 0
	movq	reg_n_info(%rip), %rax	# reg_n_info, reg_n_info.4
	movq	-104(%rbp), %rdx	# reg, tmp192
	movl	8(%rdx), %edx	# reg_4->fld[0].rtuint, D.13090
	movl	%edx, %edx	# D.13090, tmp193
	addq	$4, %rdx	#, tmp194
	movq	(%rax,%rdx,8), %rax	# reg_n_info.4_72->data.reg, D.13092
	movl	(%rax), %edx	# _74->first_uid, D.13087
	movq	-112(%rbp), %rax	# insn, tmp195
	movl	8(%rax), %eax	# insn_2->fld[0].rtint, D.13087
	cmpl	%eax, %edx	# D.13087, D.13087
	jne	.L59	#,
	.loc 1 385 0
	movq	-112(%rbp), %rax	# insn, tmp196
	movq	24(%rax), %rax	# insn_2->fld[2].rtx, tmp197
	movq	%rax, -96(%rbp)	# tmp197, p
	jmp	.L65	#
.L68:
	.loc 1 386 0
	movq	reg_n_info(%rip), %rax	# reg_n_info, reg_n_info.5
	movq	-104(%rbp), %rdx	# reg, tmp198
	movl	8(%rdx), %edx	# reg_4->fld[0].rtuint, D.13090
	movl	%edx, %edx	# D.13090, tmp199
	addq	$4, %rdx	#, tmp200
	movq	(%rax,%rdx,8), %rax	# reg_n_info.5_78->data.reg, D.13092
	movl	4(%rax), %edx	# _80->last_uid, D.13087
	movq	-96(%rbp), %rax	# p, tmp201
	movl	8(%rax), %eax	# p_5->fld[0].rtint, D.13087
	cmpl	%eax, %edx	# D.13087, D.13087
	jne	.L66	#,
	.loc 1 387 0
	jmp	.L67	#
.L66:
	.loc 1 385 0
	movq	-96(%rbp), %rax	# p, tmp202
	movq	24(%rax), %rax	# p_5->fld[2].rtx, tmp203
	movq	%rax, -96(%rbp)	# tmp203, p
.L65:
	.loc 1 385 0 is_stmt 0 discriminator 1
	movq	-96(%rbp), %rax	# p, tmp204
	cmpq	-48(%rbp), %rax	# lastexit, tmp204
	jne	.L68	#,
.L67:
	.loc 1 389 0 is_stmt 1
	movq	-96(%rbp), %rax	# p, tmp205
	cmpq	-48(%rbp), %rax	# lastexit, tmp205
	je	.L59	#,
	.loc 1 393 0
	cmpq	$0, -64(%rbp)	#, reg_map
	jne	.L69	#,
	.loc 1 394 0
	movl	-116(%rbp), %eax	# max_reg, tmp206
	cltq
	movl	$8, %esi	#,
	movq	%rax, %rdi	# D.13093,
	call	xcalloc	#
	movq	%rax, -64(%rbp)	# tmp207, reg_map
.L69:
	.loc 1 396 0
	movq	-104(%rbp), %rax	# reg, tmp208
	movzbl	3(%rax), %edx	# reg_4->in_struct, tmp211
	orl	$16, %edx	#, tmp212
	movb	%dl, 3(%rax)	# tmp212, reg_4->in_struct
	.loc 1 398 0
	movq	-104(%rbp), %rax	# reg, tmp213
	movl	8(%rax), %eax	# reg_4->fld[0].rtuint, D.13090
	movl	%eax, %eax	# D.13090, D.13093
	leaq	0(,%rax,8), %rdx	#, D.13093
	movq	-64(%rbp), %rax	# reg_map, tmp214
	leaq	(%rdx,%rax), %rbx	#, D.13094
	movq	-104(%rbp), %rax	# reg, tmp215
	movzbl	2(%rax), %eax	# reg_4->mode, D.13095
	movzbl	%al, %eax	# D.13095, D.13096
	movl	%eax, %edi	# D.13096,
	call	gen_reg_rtx	#
	movq	%rax, (%rbx)	# D.13088, *_89
.L59:
	.loc 1 376 0
	movq	-112(%rbp), %rax	# insn, tmp216
	movq	24(%rax), %rax	# insn_2->fld[2].rtx, tmp217
	movq	%rax, -112(%rbp)	# tmp217, insn
.L58:
	.loc 1 376 0 is_stmt 0 discriminator 1
	movq	-112(%rbp), %rax	# insn, tmp218
	cmpq	-48(%rbp), %rax	# lastexit, tmp218
	jne	.L70	#,
	.loc 1 401 0 is_stmt 1
	call	gen_label_rtx	#
	movq	%rax, -32(%rbp)	# tmp219, loop_pre_header_label
	.loc 1 404 0
	movq	-56(%rbp), %rax	# exitcode, tmp220
	movq	%rax, -112(%rbp)	# tmp220, insn
	jmp	.L71	#
.L91:
	.loc 1 406 0
	movq	-112(%rbp), %rax	# insn, tmp221
	movzwl	(%rax), %eax	# insn_3->code, D.13089
	movzwl	%ax, %eax	# D.13089, D.13090
	cmpl	$33, %eax	#, D.13090
	je	.L73	#,
	cmpl	$33, %eax	#, D.13090
	ja	.L74	#,
	cmpl	$32, %eax	#, D.13090
	je	.L75	#,
	jmp	.L72	#
.L74:
	cmpl	$35, %eax	#, D.13090
	je	.L76	#,
	cmpl	$37, %eax	#, D.13090
	je	.L77	#,
	jmp	.L72	#
.L76:
	.loc 1 409 0
	movq	-136(%rbp), %rax	# loop_start, tmp222
	movq	%rax, %rdi	# tmp222,
	call	emit_barrier_before	#
	movq	%rax, -80(%rbp)	# tmp223, copy
	.loc 1 410 0
	jmp	.L78	#
.L77:
	.loc 1 413 0
	movq	-112(%rbp), %rax	# insn, tmp224
	movl	40(%rax), %eax	# insn_3->fld[4].rtint, D.13087
	testl	%eax, %eax	# D.13087
	js	.L79	#,
	.loc 1 415 0
	movq	-112(%rbp), %rax	# insn, tmp225
	movl	40(%rax), %eax	# insn_3->fld[4].rtint, D.13087
	movq	-136(%rbp), %rdx	# loop_start, tmp226
	movq	%rdx, %rsi	# tmp226,
	movl	%eax, %edi	# D.13087,
	call	emit_note_before	#
	movq	%rax, -80(%rbp)	# tmp227, copy
	.loc 1 416 0
	movq	-112(%rbp), %rax	# insn, tmp228
	movq	32(%rax), %rdx	# insn_3->fld[3].rtstr, D.13097
	movq	-80(%rbp), %rax	# copy, tmp229
	movq	%rdx, 32(%rax)	# D.13097, copy_101->fld[3].rtstr
	.loc 1 418 0
	jmp	.L78	#
.L79:
	jmp	.L78	#
.L75:
	.loc 1 421 0
	movq	-112(%rbp), %rax	# insn, tmp230
	movq	32(%rax), %rax	# insn_3->fld[3].rtx, D.13088
	movq	%rax, %rdi	# D.13088,
	call	copy_insn	#
	movq	-136(%rbp), %rdx	# loop_start, tmp231
	movq	%rdx, %rsi	# tmp231,
	movq	%rax, %rdi	# D.13088,
	call	emit_insn_before	#
	movq	%rax, -80(%rbp)	# tmp232, copy
	.loc 1 422 0
	cmpq	$0, -64(%rbp)	#, reg_map
	je	.L80	#,
	.loc 1 423 0
	movl	-116(%rbp), %edx	# max_reg, max_reg.6
	movq	-80(%rbp), %rax	# copy, tmp233
	movq	32(%rax), %rax	# copy_105->fld[3].rtx, D.13088
	movq	-64(%rbp), %rsi	# reg_map, tmp234
	movl	$1, %ecx	#,
	movq	%rax, %rdi	# D.13088,
	call	replace_regs	#
.L80:
	.loc 1 425 0
	movq	-80(%rbp), %rax	# copy, tmp235
	movq	32(%rax), %rax	# copy_105->fld[3].rtx, D.13088
	movq	-80(%rbp), %rcx	# copy, tmp236
	movl	$0, %edx	#,
	movq	%rcx, %rsi	# tmp236,
	movq	%rax, %rdi	# D.13088,
	call	mark_jump_label	#
	.loc 1 429 0
	movq	-112(%rbp), %rax	# insn, tmp237
	movq	56(%rax), %rax	# insn_3->fld[6].rtx, tmp238
	movq	%rax, -88(%rbp)	# tmp238, link
	jmp	.L81	#
.L84:
	.loc 1 430 0
	movq	-88(%rbp), %rax	# link, tmp239
	movzbl	2(%rax), %eax	# link_6->mode, D.13095
	cmpb	$13, %al	#, D.13095
	je	.L82	#,
	.loc 1 432 0
	movq	-88(%rbp), %rax	# link, tmp240
	movzwl	(%rax), %eax	# link_6->code, D.13089
	cmpw	$3, %ax	#, D.13089
	jne	.L83	#,
	.loc 1 434 0
	movq	-80(%rbp), %rax	# copy, tmp241
	movq	56(%rax), %rcx	# copy_105->fld[6].rtx, D.13088
	movq	-88(%rbp), %rax	# link, tmp242
	movq	8(%rax), %rdx	# link_6->fld[0].rtx, D.13088
	movq	-88(%rbp), %rax	# link, tmp243
	movzbl	2(%rax), %eax	# link_6->mode, D.13095
	movzbl	%al, %eax	# D.13095, D.13096
	movl	%eax, %esi	# D.13096,
	movl	$3, %edi	#,
	call	gen_rtx_fmt_ee	#
	movq	%rax, %rdi	# D.13088,
	call	copy_insn_1	#
	movq	-80(%rbp), %rdx	# copy, tmp244
	movq	%rax, 56(%rdx)	# D.13088, copy_105->fld[6].rtx
	jmp	.L82	#
.L83:
	.loc 1 439 0
	movq	-80(%rbp), %rax	# copy, tmp245
	movq	56(%rax), %rcx	# copy_105->fld[6].rtx, D.13088
	movq	-88(%rbp), %rax	# link, tmp246
	movq	8(%rax), %rdx	# link_6->fld[0].rtx, D.13088
	movq	-88(%rbp), %rax	# link, tmp247
	movzbl	2(%rax), %eax	# link_6->mode, D.13095
	movzbl	%al, %eax	# D.13095, D.13096
	movl	%eax, %esi	# D.13096,
	movl	$4, %edi	#,
	call	gen_rtx_fmt_ue	#
	movq	%rax, %rdi	# D.13088,
	call	copy_insn_1	#
	movq	-80(%rbp), %rdx	# copy, tmp248
	movq	%rax, 56(%rdx)	# D.13088, copy_105->fld[6].rtx
.L82:
	.loc 1 429 0
	movq	-88(%rbp), %rax	# link, tmp249
	movq	16(%rax), %rax	# link_6->fld[1].rtx, tmp250
	movq	%rax, -88(%rbp)	# tmp250, link
.L81:
	.loc 1 429 0 is_stmt 0 discriminator 1
	cmpq	$0, -88(%rbp)	#, link
	jne	.L84	#,
	.loc 1 444 0 is_stmt 1
	cmpq	$0, -64(%rbp)	#, reg_map
	je	.L85	#,
	.loc 1 444 0 is_stmt 0 discriminator 1
	movq	-80(%rbp), %rax	# copy, tmp251
	movq	56(%rax), %rax	# copy_105->fld[6].rtx, D.13088
	testq	%rax, %rax	# D.13088
	je	.L85	#,
	.loc 1 445 0 is_stmt 1
	movl	-116(%rbp), %edx	# max_reg, max_reg.7
	movq	-80(%rbp), %rax	# copy, tmp252
	movq	56(%rax), %rax	# copy_105->fld[6].rtx, D.13088
	movq	-64(%rbp), %rsi	# reg_map, tmp253
	movl	$1, %ecx	#,
	movq	%rax, %rdi	# D.13088,
	call	replace_regs	#
	.loc 1 446 0
	jmp	.L78	#
.L85:
	jmp	.L78	#
.L73:
	.loc 1 449 0
	movq	-112(%rbp), %rax	# insn, tmp254
	movq	32(%rax), %rax	# insn_3->fld[3].rtx, D.13088
	movq	%rax, %rdi	# D.13088,
	call	copy_insn	#
	movq	-136(%rbp), %rdx	# loop_start, tmp255
	movq	%rdx, %rsi	# tmp255,
	movq	%rax, %rdi	# D.13088,
	call	emit_jump_insn_before	#
	movq	%rax, -80(%rbp)	# tmp256, copy
	.loc 1 451 0
	cmpq	$0, -64(%rbp)	#, reg_map
	je	.L86	#,
	.loc 1 452 0
	movl	-116(%rbp), %edx	# max_reg, max_reg.8
	movq	-80(%rbp), %rax	# copy, tmp257
	movq	32(%rax), %rax	# copy_130->fld[3].rtx, D.13088
	movq	-64(%rbp), %rsi	# reg_map, tmp258
	movl	$1, %ecx	#,
	movq	%rax, %rdi	# D.13088,
	call	replace_regs	#
.L86:
	.loc 1 453 0
	movq	-80(%rbp), %rax	# copy, tmp259
	movq	32(%rax), %rax	# copy_130->fld[3].rtx, D.13088
	movq	-80(%rbp), %rcx	# copy, tmp260
	movl	$0, %edx	#,
	movq	%rcx, %rsi	# tmp260,
	movq	%rax, %rdi	# D.13088,
	call	mark_jump_label	#
	.loc 1 454 0
	movq	-112(%rbp), %rax	# insn, tmp261
	movq	56(%rax), %rax	# insn_3->fld[6].rtx, D.13088
	testq	%rax, %rax	# D.13088
	je	.L87	#,
	.loc 1 456 0
	movq	-112(%rbp), %rax	# insn, tmp262
	movq	56(%rax), %rax	# insn_3->fld[6].rtx, D.13088
	movq	%rax, %rdi	# D.13088,
	call	copy_insn_1	#
	movq	-80(%rbp), %rdx	# copy, tmp263
	movq	%rax, 56(%rdx)	# D.13088, copy_130->fld[6].rtx
	.loc 1 457 0
	cmpq	$0, -64(%rbp)	#, reg_map
	je	.L87	#,
	.loc 1 458 0
	movl	-116(%rbp), %edx	# max_reg, max_reg.9
	movq	-80(%rbp), %rax	# copy, tmp264
	movq	56(%rax), %rax	# copy_130->fld[6].rtx, D.13088
	movq	-64(%rbp), %rsi	# reg_map, tmp265
	movl	$1, %ecx	#,
	movq	%rax, %rdi	# D.13088,
	call	replace_regs	#
.L87:
	.loc 1 464 0
	movq	-80(%rbp), %rax	# copy, tmp266
	movq	%rax, %rdi	# tmp266,
	call	any_condjump_p	#
	testl	%eax, %eax	# D.13087
	je	.L88	#,
.LBB7:
	.loc 1 466 0
	movq	-80(%rbp), %rax	# copy, tmp267
	movq	64(%rax), %rax	# copy_130->fld[7].rtx, tmp268
	movq	%rax, -24(%rbp)	# tmp268, label
	.loc 1 467 0
	cmpq	$0, -24(%rbp)	#, label
	je	.L88	#,
	.loc 1 471 0
	movq	-24(%rbp), %rax	# label, tmp269
	movq	%rax, %rdi	# tmp269,
	call	prev_nonnote_insn	#
	testq	%rax, %rax	# D.13088
	je	.L89	#,
	.loc 1 472 0
	movq	-24(%rbp), %rax	# label, tmp270
	movq	%rax, %rdi	# tmp270,
	call	prev_nonnote_insn	#
	movq	%rax, %rdi	# D.13088,
	call	prev_nonnote_insn	#
	movq	%rax, %rbx	#, D.13088
	.loc 1 473 0
	movq	-136(%rbp), %rax	# loop_start, tmp271
	movq	%rax, %rdi	# tmp271,
	call	next_nonnote_insn	#
	.loc 1 472 0
	cmpq	%rax, %rbx	# D.13088, D.13088
	jne	.L89	#,
	.loc 1 475 0
	movq	-80(%rbp), %rax	# copy, tmp272
	movl	$1, %edx	#,
	movl	$12, %esi	#,
	movq	%rax, %rdi	# tmp272,
	call	predict_insn_def	#
	.loc 1 478 0
	movq	-32(%rbp), %rcx	# loop_pre_header_label, tmp273
	movq	-80(%rbp), %rax	# copy, tmp274
	movl	$0, %edx	#,
	movq	%rcx, %rsi	# tmp273,
	movq	%rax, %rdi	# tmp274,
	call	redirect_jump	#
	jmp	.L88	#
.L89:
	.loc 1 481 0
	movq	-80(%rbp), %rax	# copy, tmp275
	movl	$0, %edx	#,
	movl	$12, %esi	#,
	movq	%rax, %rdi	# tmp275,
	call	predict_insn_def	#
.LBE7:
	.loc 1 484 0
	jmp	.L78	#
.L88:
	jmp	.L78	#
.L72:
	.loc 1 487 0
	movl	$__FUNCTION__.10866, %edx	#,
	movl	$487, %esi	#,
	movl	$.LC0, %edi	#,
	call	fancy_abort	#
.L78:
	.loc 1 492 0
	cmpq	$0, -72(%rbp)	#, first_copy
	jne	.L90	#,
	.loc 1 493 0
	movq	-80(%rbp), %rax	# copy, tmp276
	movq	%rax, -72(%rbp)	# tmp276, first_copy
.L90:
	.loc 1 404 0
	movq	-112(%rbp), %rax	# insn, tmp277
	movq	24(%rax), %rax	# insn_3->fld[2].rtx, tmp278
	movq	%rax, -112(%rbp)	# tmp278, insn
.L71:
	.loc 1 404 0 is_stmt 0 discriminator 1
	movq	-112(%rbp), %rax	# insn, tmp279
	cmpq	-48(%rbp), %rax	# lastexit, tmp279
	jne	.L91	#,
	.loc 1 498 0 is_stmt 1
	cmpq	$0, -80(%rbp)	#, copy
	je	.L92	#,
	.loc 1 498 0 is_stmt 0 discriminator 1
	movq	-80(%rbp), %rax	# copy, tmp280
	movzwl	(%rax), %eax	# copy_9->code, D.13089
	cmpw	$35, %ax	#, D.13089
	je	.L93	#,
.L92:
	.loc 1 500 0 is_stmt 1
	movq	-112(%rbp), %rax	# insn, tmp281
	movq	%rax, %rdi	# tmp281,
	call	get_label_after	#
	movq	%rax, %rdi	# D.13088,
	call	gen_jump	#
	movq	-136(%rbp), %rdx	# loop_start, tmp282
	movq	%rdx, %rsi	# tmp282,
	movq	%rax, %rdi	# D.13088,
	call	emit_jump_insn_before	#
	movq	%rax, -80(%rbp)	# tmp283, copy
	.loc 1 507 0
	cmpq	$0, -72(%rbp)	#, first_copy
	jne	.L94	#,
	.loc 1 508 0
	movq	-80(%rbp), %rax	# copy, tmp284
	movq	%rax, -72(%rbp)	# tmp284, first_copy
.L94:
	.loc 1 510 0
	movq	-80(%rbp), %rax	# copy, tmp285
	movq	32(%rax), %rax	# copy_150->fld[3].rtx, D.13088
	movq	-80(%rbp), %rcx	# copy, tmp286
	movl	$0, %edx	#,
	movq	%rcx, %rsi	# tmp286,
	movq	%rax, %rdi	# D.13088,
	call	mark_jump_label	#
	.loc 1 511 0
	movq	-136(%rbp), %rax	# loop_start, tmp287
	movq	%rax, %rdi	# tmp287,
	call	emit_barrier_before	#
.L93:
	.loc 1 514 0
	movq	-136(%rbp), %rdx	# loop_start, tmp288
	movq	-32(%rbp), %rax	# loop_pre_header_label, tmp289
	movq	%rdx, %rsi	# tmp288,
	movq	%rax, %rdi	# tmp289,
	call	emit_label_before	#
	.loc 1 519 0
	movl	-116(%rbp), %edx	# max_reg, max_reg.10
	movq	-80(%rbp), %rcx	# copy, tmp290
	movq	-72(%rbp), %rax	# first_copy, tmp291
	movq	%rcx, %rsi	# tmp290,
	movq	%rax, %rdi	# tmp291,
	call	reg_scan_update	#
	.loc 1 522 0
	movq	-56(%rbp), %rax	# exitcode, tmp292
	movq	%rax, %rsi	# tmp292,
	movl	$-93, %edi	#,
	call	emit_note_before	#
	.loc 1 524 0
	movq	-136(%rbp), %rax	# loop_start, tmp293
	movq	%rax, %rdi	# tmp293,
	call	next_nonnote_insn	#
	movq	%rax, %rdi	# D.13088,
	call	delete_related_insns	#
	.loc 1 527 0
	cmpq	$0, -64(%rbp)	#, reg_map
	je	.L95	#,
	.loc 1 528 0
	movq	-64(%rbp), %rax	# reg_map, tmp294
	movq	%rax, %rdi	# tmp294,
	call	free	#
.L95:
	.loc 1 530 0
	movl	$1, %eax	#, D.13087
.L45:
	.loc 1 531 0
	addq	$136, %rsp	#,
	popq	%rbx	#
	popq	%rbp	#
	.cfi_def_cfa 7, 8
	ret
	.cfi_endproc
.LFE8:
	.size	duplicate_loop_exit_test, .-duplicate_loop_exit_test
	.globl	squeeze_notes
	.type	squeeze_notes, @function
squeeze_notes:
.LFB9:
	.loc 1 543 0
	.cfi_startproc
	pushq	%rbp	#
	.cfi_def_cfa_offset 16
	.cfi_offset 6, -16
	movq	%rsp, %rbp	#,
	.cfi_def_cfa_register 6
	movq	%rdi, -72(%rbp)	# startp, startp
	movq	%rsi, -80(%rbp)	# endp, endp
	.loc 1 544 0
	movq	-72(%rbp), %rax	# startp, tmp71
	movq	(%rax), %rax	# *startp_8(D), tmp72
	movq	%rax, -56(%rbp)	# tmp72, start
	.loc 1 545 0
	movq	-80(%rbp), %rax	# endp, tmp73
	movq	(%rax), %rax	# *endp_10(D), tmp74
	movq	%rax, -32(%rbp)	# tmp74, end
	.loc 1 549 0
	movq	$0, -40(%rbp)	#, last
	.loc 1 550 0
	movq	-32(%rbp), %rax	# end, tmp75
	movq	24(%rax), %rax	# end_11->fld[2].rtx, tmp76
	movq	%rax, -24(%rbp)	# tmp76, past_end
	.loc 1 552 0
	movq	-56(%rbp), %rax	# start, tmp77
	movq	%rax, -48(%rbp)	# tmp77, insn
	jmp	.L98	#
.L104:
	.loc 1 554 0
	movq	-48(%rbp), %rax	# insn, tmp78
	movq	24(%rax), %rax	# insn_4->fld[2].rtx, tmp79
	movq	%rax, -16(%rbp)	# tmp79, next
	.loc 1 555 0
	movq	-48(%rbp), %rax	# insn, tmp80
	movzwl	(%rax), %eax	# insn_4->code, D.13101
	cmpw	$37, %ax	#, D.13101
	jne	.L99	#,
	.loc 1 556 0
	movq	-48(%rbp), %rax	# insn, tmp81
	movl	40(%rax), %eax	# insn_4->fld[4].rtint, D.13102
	cmpl	$-97, %eax	#, D.13102
	je	.L100	#,
	.loc 1 557 0
	movq	-48(%rbp), %rax	# insn, tmp82
	movl	40(%rax), %eax	# insn_4->fld[4].rtint, D.13102
	cmpl	$-98, %eax	#, D.13102
	je	.L100	#,
	.loc 1 558 0
	movq	-48(%rbp), %rax	# insn, tmp83
	movl	40(%rax), %eax	# insn_4->fld[4].rtint, D.13102
	cmpl	$-96, %eax	#, D.13102
	je	.L100	#,
	.loc 1 559 0
	movq	-48(%rbp), %rax	# insn, tmp84
	movl	40(%rax), %eax	# insn_4->fld[4].rtint, D.13102
	cmpl	$-95, %eax	#, D.13102
	je	.L100	#,
	.loc 1 560 0
	movq	-48(%rbp), %rax	# insn, tmp85
	movl	40(%rax), %eax	# insn_4->fld[4].rtint, D.13102
	cmpl	$-94, %eax	#, D.13102
	je	.L100	#,
	.loc 1 561 0
	movq	-48(%rbp), %rax	# insn, tmp86
	movl	40(%rax), %eax	# insn_4->fld[4].rtint, D.13102
	cmpl	$-93, %eax	#, D.13102
	jne	.L99	#,
.L100:
	.loc 1 563 0
	movq	-48(%rbp), %rax	# insn, tmp87
	cmpq	-56(%rbp), %rax	# start, tmp87
	jne	.L101	#,
	.loc 1 564 0
	movq	-16(%rbp), %rax	# next, tmp88
	movq	%rax, -56(%rbp)	# tmp88, start
	.loc 1 563 0
	jmp	.L103	#
.L101:
.LBB8:
	.loc 1 567 0
	movq	-48(%rbp), %rax	# insn, tmp89
	movq	16(%rax), %rax	# insn_4->fld[1].rtx, tmp90
	movq	%rax, -8(%rbp)	# tmp90, prev
	.loc 1 568 0
	movq	-56(%rbp), %rax	# start, tmp91
	movq	16(%rax), %rdx	# start_3->fld[1].rtx, D.13103
	movq	-48(%rbp), %rax	# insn, tmp92
	movq	%rdx, 16(%rax)	# D.13103, insn_4->fld[1].rtx
	.loc 1 569 0
	movq	-48(%rbp), %rax	# insn, tmp93
	movq	-56(%rbp), %rdx	# start, tmp94
	movq	%rdx, 24(%rax)	# tmp94, insn_4->fld[2].rtx
	.loc 1 570 0
	movq	-48(%rbp), %rax	# insn, tmp95
	movq	16(%rax), %rax	# insn_4->fld[1].rtx, D.13103
	movq	-48(%rbp), %rdx	# insn, tmp96
	movq	%rdx, 24(%rax)	# tmp96, _26->fld[2].rtx
	.loc 1 571 0
	movq	-48(%rbp), %rax	# insn, tmp97
	movq	24(%rax), %rax	# insn_4->fld[2].rtx, D.13103
	movq	-48(%rbp), %rdx	# insn, tmp98
	movq	%rdx, 16(%rax)	# tmp98, _27->fld[1].rtx
	.loc 1 572 0
	movq	-8(%rbp), %rax	# prev, tmp99
	movq	-16(%rbp), %rdx	# next, tmp100
	movq	%rdx, 24(%rax)	# tmp100, prev_24->fld[2].rtx
	.loc 1 573 0
	movq	-16(%rbp), %rax	# next, tmp101
	movq	-8(%rbp), %rdx	# prev, tmp102
	movq	%rdx, 16(%rax)	# tmp102, next_15->fld[1].rtx
.LBE8:
	.loc 1 563 0
	jmp	.L103	#
.L99:
	.loc 1 577 0
	movq	-48(%rbp), %rax	# insn, tmp103
	movq	%rax, -40(%rbp)	# tmp103, last
.L103:
	.loc 1 552 0
	movq	-16(%rbp), %rax	# next, tmp104
	movq	%rax, -48(%rbp)	# tmp104, insn
.L98:
	.loc 1 552 0 is_stmt 0 discriminator 1
	movq	-48(%rbp), %rax	# insn, tmp105
	cmpq	-24(%rbp), %rax	# past_end, tmp105
	jne	.L104	#,
	.loc 1 581 0 is_stmt 1
	movq	-56(%rbp), %rax	# start, tmp106
	cmpq	-24(%rbp), %rax	# past_end, tmp106
	jne	.L105	#,
	.loc 1 582 0
	movl	$1, %eax	#, D.13100
	jmp	.L106	#
.L105:
	.loc 1 584 0
	movq	-40(%rbp), %rax	# last, tmp107
	movq	%rax, -32(%rbp)	# tmp107, end
	.loc 1 586 0
	movq	-72(%rbp), %rax	# startp, tmp108
	movq	-56(%rbp), %rdx	# start, tmp109
	movq	%rdx, (%rax)	# tmp109, *startp_8(D)
	.loc 1 587 0
	movq	-80(%rbp), %rax	# endp, tmp110
	movq	-32(%rbp), %rdx	# end, tmp111
	movq	%rdx, (%rax)	# tmp111, *endp_10(D)
	.loc 1 588 0
	movl	$0, %eax	#, D.13100
.L106:
	.loc 1 589 0
	popq	%rbp	#
	.cfi_def_cfa 7, 8
	ret
	.cfi_endproc
.LFE9:
	.size	squeeze_notes, .-squeeze_notes
	.globl	get_label_before
	.type	get_label_before, @function
get_label_before:
.LFB10:
	.loc 1 596 0
	.cfi_startproc
	pushq	%rbp	#
	.cfi_def_cfa_offset 16
	.cfi_offset 6, -16
	movq	%rsp, %rbp	#,
	.cfi_def_cfa_register 6
	subq	$32, %rsp	#,
	movq	%rdi, -24(%rbp)	# insn, insn
	.loc 1 601 0
	movq	-24(%rbp), %rax	# insn, tmp62
	movq	%rax, %rdi	# tmp62,
	call	prev_nonnote_insn	#
	movq	%rax, -16(%rbp)	# tmp63, label
	.loc 1 603 0
	cmpq	$0, -16(%rbp)	#, label
	je	.L108	#,
	.loc 1 603 0 is_stmt 0 discriminator 1
	movq	-16(%rbp), %rax	# label, tmp64
	movzwl	(%rax), %eax	# label_3->code, D.13104
	cmpw	$36, %ax	#, D.13104
	je	.L109	#,
.L108:
.LBB9:
	.loc 1 605 0 is_stmt 1
	movq	-24(%rbp), %rax	# insn, tmp65
	movq	16(%rax), %rax	# insn_2(D)->fld[1].rtx, tmp66
	movq	%rax, -8(%rbp)	# tmp66, prev
	.loc 1 607 0
	call	gen_label_rtx	#
	movq	%rax, -16(%rbp)	# tmp67, label
	.loc 1 608 0
	movq	-8(%rbp), %rdx	# prev, tmp68
	movq	-16(%rbp), %rax	# label, tmp69
	movq	%rdx, %rsi	# tmp68,
	movq	%rax, %rdi	# tmp69,
	call	emit_label_after	#
	.loc 1 609 0
	movq	-16(%rbp), %rax	# label, tmp70
	movl	$0, 32(%rax)	#, label_6->fld[3].rtint
.L109:
.LBE9:
	.loc 1 611 0
	movq	-16(%rbp), %rax	# label, D.13105
	.loc 1 612 0
	leave
	.cfi_def_cfa 7, 8
	ret
	.cfi_endproc
.LFE10:
	.size	get_label_before, .-get_label_before
	.globl	get_label_after
	.type	get_label_after, @function
get_label_after:
.LFB11:
	.loc 1 619 0
	.cfi_startproc
	pushq	%rbp	#
	.cfi_def_cfa_offset 16
	.cfi_offset 6, -16
	movq	%rsp, %rbp	#,
	.cfi_def_cfa_register 6
	subq	$32, %rsp	#,
	movq	%rdi, -24(%rbp)	# insn, insn
	.loc 1 624 0
	movq	-24(%rbp), %rax	# insn, tmp62
	movq	%rax, %rdi	# tmp62,
	call	next_nonnote_insn	#
	movq	%rax, -8(%rbp)	# tmp63, label
	.loc 1 626 0
	cmpq	$0, -8(%rbp)	#, label
	je	.L112	#,
	.loc 1 626 0 is_stmt 0 discriminator 1
	movq	-8(%rbp), %rax	# label, tmp64
	movzwl	(%rax), %eax	# label_3->code, D.13106
	cmpw	$36, %ax	#, D.13106
	je	.L113	#,
.L112:
	.loc 1 628 0 is_stmt 1
	call	gen_label_rtx	#
	movq	%rax, -8(%rbp)	# tmp65, label
	.loc 1 629 0
	movq	-24(%rbp), %rdx	# insn, tmp66
	movq	-8(%rbp), %rax	# label, tmp67
	movq	%rdx, %rsi	# tmp66,
	movq	%rax, %rdi	# tmp67,
	call	emit_label_after	#
	.loc 1 630 0
	movq	-8(%rbp), %rax	# label, tmp68
	movl	$0, 32(%rax)	#, label_5->fld[3].rtint
.L113:
	.loc 1 632 0
	movq	-8(%rbp), %rax	# label, D.13107
	.loc 1 633 0
	leave
	.cfi_def_cfa 7, 8
	ret
	.cfi_endproc
.LFE11:
	.size	get_label_after, .-get_label_after
	.globl	reversed_comparison_code_parts
	.type	reversed_comparison_code_parts, @function
reversed_comparison_code_parts:
.LFB12:
	.loc 1 645 0
	.cfi_startproc
	pushq	%rbp	#
	.cfi_def_cfa_offset 16
	.cfi_offset 6, -16
	movq	%rsp, %rbp	#,
	.cfi_def_cfa_register 6
	subq	$80, %rsp	#,
	movl	%edi, -52(%rbp)	# code, code
	movq	%rsi, -64(%rbp)	# arg0, arg0
	movq	%rdx, -72(%rbp)	# arg1, arg1
	movq	%rcx, -80(%rbp)	# insn, insn
	.loc 1 649 0
	movl	-52(%rbp), %eax	# code, code.11
	cltq
	movzbl	rtx_class(%rax), %eax	# rtx_class, D.13109
	cmpb	$60, %al	#, D.13109
	je	.L116	#,
	.loc 1 650 0
	movl	$0, %eax	#, D.13108
	jmp	.L117	#
.L116:
	.loc 1 652 0
	movq	-64(%rbp), %rax	# arg0, tmp91
	movzbl	2(%rax), %eax	# arg0_14(D)->mode, D.13110
	movzbl	%al, %eax	# D.13110, tmp92
	movl	%eax, -36(%rbp)	# tmp92, mode
	.loc 1 653 0
	cmpl	$0, -36(%rbp)	#, mode
	jne	.L118	#,
	.loc 1 654 0
	movq	-72(%rbp), %rax	# arg1, tmp93
	movzbl	2(%rax), %eax	# arg1_17(D)->mode, D.13110
	movzbl	%al, %eax	# D.13110, tmp94
	movl	%eax, -36(%rbp)	# tmp94, mode
.L118:
	.loc 1 660 0
	movl	-36(%rbp), %eax	# mode, mode.12
	cltq
	movl	mode_class(,%rax,4), %eax	# mode_class, D.13111
	cmpl	$4, %eax	#, D.13111
	jne	.L119	#,
	.loc 1 664 0
	cmpl	$57, -36(%rbp)	#, mode
	je	.L120	#,
	.loc 1 664 0 is_stmt 0 discriminator 1
	cmpl	$58, -36(%rbp)	#, mode
	je	.L120	#,
	movl	-52(%rbp), %eax	# code, tmp96
	movl	%eax, %edi	# tmp96,
	call	reverse_condition	#
	jmp	.L117	#
.L120:
	.loc 1 664 0 discriminator 2
	movl	-52(%rbp), %eax	# code, tmp97
	movl	%eax, %edi	# tmp97,
	call	reverse_condition_maybe_unordered	#
	jmp	.L117	#
.L119:
	.loc 1 671 0 is_stmt 1
	movl	-52(%rbp), %eax	# code, tmp99
	subl	$102, %eax	#, tmp98
	cmpl	$17, %eax	#, tmp98
	ja	.L139	#,
	movl	%eax, %eax	# tmp98, tmp100
	movq	.L124(,%rax,8), %rax	#, tmp101
	jmp	*%rax	# tmp101
	.section	.rodata
	.align 8
	.align 4
.L124:
	.quad	.L123
	.quad	.L123
	.quad	.L139
	.quad	.L139
	.quad	.L139
	.quad	.L139
	.quad	.L123
	.quad	.L123
	.quad	.L123
	.quad	.L123
	.quad	.L125
	.quad	.L125
	.quad	.L125
	.quad	.L126
	.quad	.L126
	.quad	.L126
	.quad	.L126
	.quad	.L125
	.text
.L123:
	.loc 1 682 0
	movl	-52(%rbp), %eax	# code, tmp102
	movl	%eax, %edi	# tmp102,
	call	reverse_condition	#
	jmp	.L117	#
.L125:
	.loc 1 689 0
	movl	-52(%rbp), %eax	# code, tmp103
	movl	%eax, %edi	# tmp103,
	call	reverse_condition_maybe_unordered	#
	jmp	.L117	#
.L126:
	.loc 1 695 0
	movl	$0, %eax	#, D.13108
	jmp	.L117	#
.L139:
	.loc 1 697 0
	nop
	.loc 1 702 0
	movl	flag_unsafe_math_optimizations(%rip), %eax	# flag_unsafe_math_optimizations, flag_unsafe_math_optimizations.14
	.loc 1 701 0
	testl	%eax, %eax	# flag_unsafe_math_optimizations.14
	je	.L127	#,
	.loc 1 703 0
	movl	-52(%rbp), %eax	# code, tmp104
	movl	%eax, %edi	# tmp104,
	call	reverse_condition	#
	jmp	.L117	#
.L127:
	.loc 1 705 0
	movl	-36(%rbp), %eax	# mode, mode.15
	cltq
	movl	mode_class(,%rax,4), %eax	# mode_class, D.13111
	cmpl	$4, %eax	#, D.13111
	jne	.L128	#,
.LBB10:
	.loc 1 716 0
	cmpq	$0, -80(%rbp)	#, insn
	jne	.L129	#,
	.loc 1 717 0
	movl	$0, %eax	#, D.13108
	jmp	.L117	#
.L129:
	.loc 1 719 0
	movq	-80(%rbp), %rax	# insn, tmp106
	movq	%rax, %rdi	# tmp106,
	call	prev_nonnote_insn	#
	movq	%rax, -32(%rbp)	# tmp107, prev
	jmp	.L130	#
.L135:
.LBB11:
	.loc 1 723 0
	movq	-32(%rbp), %rdx	# prev, tmp108
	movq	-64(%rbp), %rax	# arg0, tmp109
	movq	%rdx, %rsi	# tmp108,
	movq	%rax, %rdi	# tmp109,
	call	set_of	#
	movq	%rax, -24(%rbp)	# tmp110, set
	.loc 1 724 0
	cmpq	$0, -24(%rbp)	#, set
	je	.L131	#,
	.loc 1 724 0 is_stmt 0 discriminator 1
	movq	-24(%rbp), %rax	# set, tmp111
	movzwl	(%rax), %eax	# set_36->code, D.13112
	cmpw	$47, %ax	#, D.13112
	jne	.L131	#,
	.loc 1 725 0 is_stmt 1
	movq	-24(%rbp), %rax	# set, tmp112
	movq	8(%rax), %rax	# set_36->fld[0].rtx, D.13113
	movq	-64(%rbp), %rdx	# arg0, tmp113
	movq	%rdx, %rsi	# tmp113,
	movq	%rax, %rdi	# D.13113,
	call	rtx_equal_p	#
	testl	%eax, %eax	# D.13114
	je	.L131	#,
.LBB12:
	.loc 1 727 0
	movq	-24(%rbp), %rax	# set, tmp114
	movq	16(%rax), %rax	# set_36->fld[1].rtx, tmp115
	movq	%rax, -16(%rbp)	# tmp115, src
	.loc 1 729 0
	movq	-16(%rbp), %rax	# src, tmp116
	movzwl	(%rax), %eax	# src_40->code, D.13112
	cmpw	$74, %ax	#, D.13112
	jne	.L132	#,
.LBB13:
	.loc 1 731 0
	movq	-16(%rbp), %rax	# src, tmp117
	movq	%rax, -8(%rbp)	# tmp117, comparison
	.loc 1 732 0
	movq	-16(%rbp), %rax	# src, tmp118
	movq	8(%rax), %rax	# src_40->fld[0].rtx, tmp119
	movq	%rax, -64(%rbp)	# tmp119, arg0
	.loc 1 733 0
	movq	-64(%rbp), %rax	# arg0, tmp120
	movzbl	2(%rax), %eax	# arg0_43->mode, D.13110
	movzbl	%al, %eax	# D.13110, tmp121
	movl	%eax, -36(%rbp)	# tmp121, mode
	.loc 1 734 0
	cmpl	$0, -36(%rbp)	#, mode
	jne	.L133	#,
	.loc 1 735 0
	movq	-8(%rbp), %rax	# comparison, tmp122
	movq	16(%rax), %rax	# comparison_42->fld[1].rtx, D.13113
	movzbl	2(%rax), %eax	# _46->mode, D.13110
	movzbl	%al, %eax	# D.13110, tmp123
	movl	%eax, -36(%rbp)	# tmp123, mode
	.loc 1 736 0
	jmp	.L128	#
.L133:
	jmp	.L128	#
.L132:
.LBE13:
	.loc 1 740 0
	movq	-16(%rbp), %rax	# src, tmp124
	movzwl	(%rax), %eax	# src_40->code, D.13112
	cmpw	$61, %ax	#, D.13112
	jne	.L131	#,
	.loc 1 742 0
	movq	-16(%rbp), %rax	# src, tmp125
	movq	%rax, -64(%rbp)	# tmp125, arg0
	.loc 1 743 0
	jmp	.L134	#
.L131:
.LBE12:
	.loc 1 748 0
	cmpq	$0, -24(%rbp)	#, set
	je	.L134	#,
	.loc 1 749 0
	movl	$0, %eax	#, D.13108
	jmp	.L117	#
.L134:
.LBE11:
	.loc 1 721 0
	movq	-32(%rbp), %rax	# prev, tmp126
	movq	%rax, %rdi	# tmp126,
	call	prev_nonnote_insn	#
	movq	%rax, -32(%rbp)	# tmp127, prev
.L130:
	.loc 1 719 0 discriminator 1
	cmpq	$0, -32(%rbp)	#, prev
	je	.L128	#,
	.loc 1 720 0
	movq	-32(%rbp), %rax	# prev, tmp128
	movzwl	(%rax), %eax	# prev_7->code, D.13112
	cmpw	$36, %ax	#, D.13112
	jne	.L135	#,
.L128:
.LBE10:
	.loc 1 754 0
	movq	-64(%rbp), %rax	# arg0, tmp129
	movzwl	(%rax), %eax	# arg0_3->code, D.13112
	cmpw	$54, %ax	#, D.13112
	je	.L136	#,
	.loc 1 755 0
	movq	-64(%rbp), %rax	# arg0, tmp130
	movzbl	2(%rax), %eax	# arg0_3->mode, D.13110
	testb	%al, %al	# D.13110
	je	.L137	#,
	.loc 1 756 0
	movl	-36(%rbp), %eax	# mode, mode.16
	cltq
	movl	mode_class(,%rax,4), %eax	# mode_class, D.13111
	cmpl	$4, %eax	#, D.13111
	je	.L137	#,
	.loc 1 757 0
	movl	-36(%rbp), %eax	# mode, mode.17
	cltq
	movl	mode_class(,%rax,4), %eax	# mode_class, D.13111
	cmpl	$2, %eax	#, D.13111
	je	.L137	#,
	.loc 1 757 0 is_stmt 0 discriminator 1
	movl	-36(%rbp), %eax	# mode, mode.18
	cltq
	movl	mode_class(,%rax,4), %eax	# mode_class, D.13111
	cmpl	$6, %eax	#, D.13111
	je	.L137	#,
	movl	-36(%rbp), %eax	# mode, mode.19
	cltq
	movl	mode_class(,%rax,4), %eax	# mode_class, D.13111
	cmpl	$8, %eax	#, D.13111
	je	.L137	#,
.L136:
	.loc 1 758 0 is_stmt 1
	movl	-52(%rbp), %eax	# code, tmp135
	movl	%eax, %edi	# tmp135,
	call	reverse_condition	#
	jmp	.L117	#
.L137:
	.loc 1 760 0
	movl	$0, %eax	#, D.13108
.L117:
	.loc 1 761 0
	leave
	.cfi_def_cfa 7, 8
	ret
	.cfi_endproc
.LFE12:
	.size	reversed_comparison_code_parts, .-reversed_comparison_code_parts
	.globl	reversed_comparison_code
	.type	reversed_comparison_code, @function
reversed_comparison_code:
.LFB13:
	.loc 1 768 0
	.cfi_startproc
	pushq	%rbp	#
	.cfi_def_cfa_offset 16
	.cfi_offset 6, -16
	movq	%rsp, %rbp	#,
	.cfi_def_cfa_register 6
	subq	$16, %rsp	#,
	movq	%rdi, -8(%rbp)	# comparison, comparison
	movq	%rsi, -16(%rbp)	# insn, insn
	.loc 1 769 0
	movq	-8(%rbp), %rax	# comparison, tmp68
	movzwl	(%rax), %eax	# comparison_2(D)->code, D.13116
	movzwl	%ax, %eax	# D.13116, D.13117
	cltq
	movzbl	rtx_class(%rax), %eax	# rtx_class, D.13118
	cmpb	$60, %al	#, D.13118
	je	.L141	#,
	.loc 1 770 0
	movl	$0, %eax	#, D.13115
	jmp	.L142	#
.L141:
	.loc 1 771 0
	movq	-8(%rbp), %rax	# comparison, tmp70
	movq	16(%rax), %rdx	# comparison_2(D)->fld[1].rtx, D.13119
	movq	-8(%rbp), %rax	# comparison, tmp71
	movq	8(%rax), %rsi	# comparison_2(D)->fld[0].rtx, D.13119
	movq	-8(%rbp), %rax	# comparison, tmp72
	movzwl	(%rax), %eax	# comparison_2(D)->code, D.13116
	movzwl	%ax, %eax	# D.13116, D.13115
	movq	-16(%rbp), %rcx	# insn, tmp73
	movl	%eax, %edi	# D.13115,
	call	reversed_comparison_code_parts	#
.L142:
	.loc 1 774 0
	leave
	.cfi_def_cfa 7, 8
	ret
	.cfi_endproc
.LFE13:
	.size	reversed_comparison_code, .-reversed_comparison_code
	.globl	reverse_condition
	.type	reverse_condition, @function
reverse_condition:
.LFB14:
	.loc 1 787 0
	.cfi_startproc
	pushq	%rbp	#
	.cfi_def_cfa_offset 16
	.cfi_offset 6, -16
	movq	%rsp, %rbp	#,
	.cfi_def_cfa_register 6
	subq	$16, %rsp	#,
	movl	%edi, -4(%rbp)	# code, code
	.loc 1 788 0
	movl	-4(%rbp), %eax	# code, tmp62
	subl	$102, %eax	#, tmp61
	cmpl	$17, %eax	#, tmp61
	ja	.L144	#,
	movl	%eax, %eax	# tmp61, tmp63
	movq	.L146(,%rax,8), %rax	#, tmp64
	jmp	*%rax	# tmp64
	.section	.rodata
	.align 8
	.align 4
.L146:
	.quad	.L145
	.quad	.L147
	.quad	.L148
	.quad	.L149
	.quad	.L150
	.quad	.L151
	.quad	.L152
	.quad	.L153
	.quad	.L154
	.quad	.L155
	.quad	.L156
	.quad	.L157
	.quad	.L158
	.quad	.L158
	.quad	.L158
	.quad	.L158
	.quad	.L158
	.quad	.L158
	.text
.L147:
	.loc 1 791 0
	movl	$102, %eax	#, D.13120
	jmp	.L159	#
.L145:
	.loc 1 793 0
	movl	$103, %eax	#, D.13120
	jmp	.L159	#
.L149:
	.loc 1 795 0
	movl	$106, %eax	#, D.13120
	jmp	.L159	#
.L148:
	.loc 1 797 0
	movl	$107, %eax	#, D.13120
	jmp	.L159	#
.L151:
	.loc 1 799 0
	movl	$104, %eax	#, D.13120
	jmp	.L159	#
.L150:
	.loc 1 801 0
	movl	$105, %eax	#, D.13120
	jmp	.L159	#
.L153:
	.loc 1 803 0
	movl	$110, %eax	#, D.13120
	jmp	.L159	#
.L152:
	.loc 1 805 0
	movl	$111, %eax	#, D.13120
	jmp	.L159	#
.L155:
	.loc 1 807 0
	movl	$108, %eax	#, D.13120
	jmp	.L159	#
.L154:
	.loc 1 809 0
	movl	$109, %eax	#, D.13120
	jmp	.L159	#
.L156:
	.loc 1 811 0
	movl	$113, %eax	#, D.13120
	jmp	.L159	#
.L157:
	.loc 1 813 0
	movl	$112, %eax	#, D.13120
	jmp	.L159	#
.L158:
	.loc 1 821 0
	movl	$0, %eax	#, D.13120
	jmp	.L159	#
.L144:
	.loc 1 824 0
	movl	$__FUNCTION__.10950, %edx	#,
	movl	$824, %esi	#,
	movl	$.LC0, %edi	#,
	call	fancy_abort	#
.L159:
	.loc 1 826 0
	leave
	.cfi_def_cfa 7, 8
	ret
	.cfi_endproc
.LFE14:
	.size	reverse_condition, .-reverse_condition
	.globl	reverse_condition_maybe_unordered
	.type	reverse_condition_maybe_unordered, @function
reverse_condition_maybe_unordered:
.LFB15:
	.loc 1 835 0
	.cfi_startproc
	pushq	%rbp	#
	.cfi_def_cfa_offset 16
	.cfi_offset 6, -16
	movq	%rsp, %rbp	#,
	.cfi_def_cfa_register 6
	subq	$16, %rsp	#,
	movl	%edi, -4(%rbp)	# code, code
	.loc 1 840 0
	movl	-4(%rbp), %eax	# code, tmp62
	subl	$102, %eax	#, tmp61
	cmpl	$17, %eax	#, tmp61
	ja	.L161	#,
	movl	%eax, %eax	# tmp61, tmp63
	movq	.L163(,%rax,8), %rax	#, tmp64
	jmp	*%rax	# tmp64
	.section	.rodata
	.align 8
	.align 4
.L163:
	.quad	.L162
	.quad	.L164
	.quad	.L165
	.quad	.L166
	.quad	.L167
	.quad	.L168
	.quad	.L161
	.quad	.L161
	.quad	.L161
	.quad	.L161
	.quad	.L169
	.quad	.L170
	.quad	.L171
	.quad	.L172
	.quad	.L173
	.quad	.L174
	.quad	.L175
	.quad	.L176
	.text
.L164:
	.loc 1 843 0
	movl	$102, %eax	#, D.13121
	jmp	.L177	#
.L162:
	.loc 1 845 0
	movl	$103, %eax	#, D.13121
	jmp	.L177	#
.L166:
	.loc 1 847 0
	movl	$117, %eax	#, D.13121
	jmp	.L177	#
.L165:
	.loc 1 849 0
	movl	$118, %eax	#, D.13121
	jmp	.L177	#
.L168:
	.loc 1 851 0
	movl	$115, %eax	#, D.13121
	jmp	.L177	#
.L167:
	.loc 1 853 0
	movl	$116, %eax	#, D.13121
	jmp	.L177	#
.L176:
	.loc 1 855 0
	movl	$114, %eax	#, D.13121
	jmp	.L177	#
.L169:
	.loc 1 857 0
	movl	$113, %eax	#, D.13121
	jmp	.L177	#
.L170:
	.loc 1 859 0
	movl	$112, %eax	#, D.13121
	jmp	.L177	#
.L175:
	.loc 1 861 0
	movl	$104, %eax	#, D.13121
	jmp	.L177	#
.L174:
	.loc 1 863 0
	movl	$105, %eax	#, D.13121
	jmp	.L177	#
.L173:
	.loc 1 865 0
	movl	$106, %eax	#, D.13121
	jmp	.L177	#
.L172:
	.loc 1 867 0
	movl	$107, %eax	#, D.13121
	jmp	.L177	#
.L171:
	.loc 1 869 0
	movl	$119, %eax	#, D.13121
	jmp	.L177	#
.L161:
	.loc 1 872 0
	movl	$__FUNCTION__.10969, %edx	#,
	movl	$872, %esi	#,
	movl	$.LC0, %edi	#,
	call	fancy_abort	#
.L177:
	.loc 1 874 0
	leave
	.cfi_def_cfa 7, 8
	ret
	.cfi_endproc
.LFE15:
	.size	reverse_condition_maybe_unordered, .-reverse_condition_maybe_unordered
	.globl	swap_condition
	.type	swap_condition, @function
swap_condition:
.LFB16:
	.loc 1 882 0
	.cfi_startproc
	pushq	%rbp	#
	.cfi_def_cfa_offset 16
	.cfi_offset 6, -16
	movq	%rsp, %rbp	#,
	.cfi_def_cfa_register 6
	subq	$16, %rsp	#,
	movl	%edi, -4(%rbp)	# code, code
	.loc 1 883 0
	movl	-4(%rbp), %eax	# code, tmp62
	subl	$102, %eax	#, tmp61
	cmpl	$17, %eax	#, tmp61
	ja	.L179	#,
	movl	%eax, %eax	# tmp61, tmp63
	movq	.L181(,%rax,8), %rax	#, tmp64
	jmp	*%rax	# tmp64
	.section	.rodata
	.align 8
	.align 4
.L181:
	.quad	.L180
	.quad	.L180
	.quad	.L182
	.quad	.L183
	.quad	.L184
	.quad	.L185
	.quad	.L186
	.quad	.L187
	.quad	.L188
	.quad	.L189
	.quad	.L180
	.quad	.L180
	.quad	.L180
	.quad	.L190
	.quad	.L191
	.quad	.L192
	.quad	.L193
	.quad	.L180
	.text
.L180:
	.loc 1 891 0
	movl	-4(%rbp), %eax	# code, D.13122
	jmp	.L194	#
.L183:
	.loc 1 894 0
	movl	$107, %eax	#, D.13122
	jmp	.L194	#
.L182:
	.loc 1 896 0
	movl	$106, %eax	#, D.13122
	jmp	.L194	#
.L185:
	.loc 1 898 0
	movl	$105, %eax	#, D.13122
	jmp	.L194	#
.L184:
	.loc 1 900 0
	movl	$104, %eax	#, D.13122
	jmp	.L194	#
.L187:
	.loc 1 902 0
	movl	$111, %eax	#, D.13122
	jmp	.L194	#
.L186:
	.loc 1 904 0
	movl	$110, %eax	#, D.13122
	jmp	.L194	#
.L189:
	.loc 1 906 0
	movl	$109, %eax	#, D.13122
	jmp	.L194	#
.L188:
	.loc 1 908 0
	movl	$108, %eax	#, D.13122
	jmp	.L194	#
.L193:
	.loc 1 910 0
	movl	$116, %eax	#, D.13122
	jmp	.L194	#
.L192:
	.loc 1 912 0
	movl	$115, %eax	#, D.13122
	jmp	.L194	#
.L191:
	.loc 1 914 0
	movl	$118, %eax	#, D.13122
	jmp	.L194	#
.L190:
	.loc 1 916 0
	movl	$117, %eax	#, D.13122
	jmp	.L194	#
.L179:
	.loc 1 919 0
	movl	$__FUNCTION__.10992, %edx	#,
	movl	$919, %esi	#,
	movl	$.LC0, %edi	#,
	call	fancy_abort	#
.L194:
	.loc 1 921 0
	leave
	.cfi_def_cfa 7, 8
	ret
	.cfi_endproc
.LFE16:
	.size	swap_condition, .-swap_condition
	.globl	unsigned_condition
	.type	unsigned_condition, @function
unsigned_condition:
.LFB17:
	.loc 1 930 0
	.cfi_startproc
	pushq	%rbp	#
	.cfi_def_cfa_offset 16
	.cfi_offset 6, -16
	movq	%rsp, %rbp	#,
	.cfi_def_cfa_register 6
	subq	$16, %rsp	#,
	movl	%edi, -4(%rbp)	# code, code
	.loc 1 931 0
	movl	-4(%rbp), %eax	# code, tmp62
	subl	$102, %eax	#, tmp61
	cmpl	$9, %eax	#, tmp61
	ja	.L196	#,
	movl	%eax, %eax	# tmp61, tmp63
	movq	.L198(,%rax,8), %rax	#, tmp64
	jmp	*%rax	# tmp64
	.section	.rodata
	.align 8
	.align 4
.L198:
	.quad	.L197
	.quad	.L197
	.quad	.L199
	.quad	.L200
	.quad	.L201
	.quad	.L202
	.quad	.L197
	.quad	.L197
	.quad	.L197
	.quad	.L197
	.text
.L197:
	.loc 1 939 0
	movl	-4(%rbp), %eax	# code, D.13123
	jmp	.L203	#
.L200:
	.loc 1 942 0
	movl	$109, %eax	#, D.13123
	jmp	.L203	#
.L199:
	.loc 1 944 0
	movl	$108, %eax	#, D.13123
	jmp	.L203	#
.L202:
	.loc 1 946 0
	movl	$111, %eax	#, D.13123
	jmp	.L203	#
.L201:
	.loc 1 948 0
	movl	$110, %eax	#, D.13123
	jmp	.L203	#
.L196:
	.loc 1 951 0
	movl	$__FUNCTION__.11007, %edx	#,
	movl	$951, %esi	#,
	movl	$.LC0, %edi	#,
	call	fancy_abort	#
.L203:
	.loc 1 953 0
	leave
	.cfi_def_cfa 7, 8
	ret
	.cfi_endproc
.LFE17:
	.size	unsigned_condition, .-unsigned_condition
	.globl	signed_condition
	.type	signed_condition, @function
signed_condition:
.LFB18:
	.loc 1 960 0
	.cfi_startproc
	pushq	%rbp	#
	.cfi_def_cfa_offset 16
	.cfi_offset 6, -16
	movq	%rsp, %rbp	#,
	.cfi_def_cfa_register 6
	subq	$16, %rsp	#,
	movl	%edi, -4(%rbp)	# code, code
	.loc 1 961 0
	movl	-4(%rbp), %eax	# code, tmp62
	subl	$102, %eax	#, tmp61
	cmpl	$9, %eax	#, tmp61
	ja	.L205	#,
	movl	%eax, %eax	# tmp61, tmp63
	movq	.L207(,%rax,8), %rax	#, tmp64
	jmp	*%rax	# tmp64
	.section	.rodata
	.align 8
	.align 4
.L207:
	.quad	.L206
	.quad	.L206
	.quad	.L206
	.quad	.L206
	.quad	.L206
	.quad	.L206
	.quad	.L208
	.quad	.L209
	.quad	.L210
	.quad	.L211
	.text
.L206:
	.loc 1 969 0
	movl	-4(%rbp), %eax	# code, D.13124
	jmp	.L212	#
.L209:
	.loc 1 972 0
	movl	$105, %eax	#, D.13124
	jmp	.L212	#
.L208:
	.loc 1 974 0
	movl	$104, %eax	#, D.13124
	jmp	.L212	#
.L211:
	.loc 1 976 0
	movl	$107, %eax	#, D.13124
	jmp	.L212	#
.L210:
	.loc 1 978 0
	movl	$106, %eax	#, D.13124
	jmp	.L212	#
.L205:
	.loc 1 981 0
	movl	$__FUNCTION__.11022, %edx	#,
	movl	$981, %esi	#,
	movl	$.LC0, %edi	#,
	call	fancy_abort	#
.L212:
	.loc 1 983 0
	leave
	.cfi_def_cfa 7, 8
	ret
	.cfi_endproc
.LFE18:
	.size	signed_condition, .-signed_condition
	.globl	comparison_dominates_p
	.type	comparison_dominates_p, @function
comparison_dominates_p:
.LFB19:
	.loc 1 991 0
	.cfi_startproc
	pushq	%rbp	#
	.cfi_def_cfa_offset 16
	.cfi_offset 6, -16
	movq	%rsp, %rbp	#,
	.cfi_def_cfa_register 6
	movl	%edi, -4(%rbp)	# code1, code1
	movl	%esi, -8(%rbp)	# code2, code2
	.loc 1 995 0
	cmpl	$0, -4(%rbp)	#, code1
	je	.L214	#,
	.loc 1 995 0 is_stmt 0 discriminator 1
	cmpl	$0, -8(%rbp)	#, code2
	jne	.L215	#,
.L214:
	.loc 1 996 0 is_stmt 1
	movl	$0, %eax	#, D.13125
	jmp	.L216	#
.L215:
	.loc 1 998 0
	movl	-4(%rbp), %eax	# code1, tmp61
	cmpl	-8(%rbp), %eax	# code2, tmp61
	jne	.L217	#,
	.loc 1 999 0
	movl	$1, %eax	#, D.13125
	jmp	.L216	#
.L217:
	.loc 1 1001 0
	movl	-4(%rbp), %eax	# code1, tmp63
	subl	$103, %eax	#, tmp62
	cmpl	$16, %eax	#, tmp62
	ja	.L253	#,
	movl	%eax, %eax	# tmp62, tmp64
	movq	.L220(,%rax,8), %rax	#, tmp65
	jmp	*%rax	# tmp65
	.section	.rodata
	.align 8
	.align 4
.L220:
	.quad	.L219
	.quad	.L221
	.quad	.L222
	.quad	.L221
	.quad	.L223
	.quad	.L253
	.quad	.L224
	.quad	.L253
	.quad	.L225
	.quad	.L226
	.quad	.L253
	.quad	.L227
	.quad	.L253
	.quad	.L228
	.quad	.L253
	.quad	.L229
	.quad	.L230
	.text
.L227:
	.loc 1 1004 0
	cmpl	$117, -8(%rbp)	#, code2
	je	.L231	#,
	.loc 1 1004 0 is_stmt 0 discriminator 1
	cmpl	$115, -8(%rbp)	#, code2
	jne	.L232	#,
.L231:
	.loc 1 1005 0 is_stmt 1
	movl	$1, %eax	#, D.13125
	jmp	.L216	#
.L232:
	.loc 1 1006 0
	jmp	.L233	#
.L219:
	.loc 1 1009 0
	cmpl	$106, -8(%rbp)	#, code2
	je	.L234	#,
	.loc 1 1009 0 is_stmt 0 discriminator 1
	cmpl	$110, -8(%rbp)	#, code2
	je	.L234	#,
	cmpl	$104, -8(%rbp)	#, code2
	je	.L234	#,
	cmpl	$108, -8(%rbp)	#, code2
	je	.L234	#,
	.loc 1 1010 0 is_stmt 1
	cmpl	$113, -8(%rbp)	#, code2
	jne	.L235	#,
.L234:
	.loc 1 1011 0
	movl	$1, %eax	#, D.13125
	jmp	.L216	#
.L235:
	.loc 1 1012 0
	jmp	.L233	#
.L229:
	.loc 1 1015 0
	cmpl	$117, -8(%rbp)	#, code2
	je	.L236	#,
	.loc 1 1015 0 is_stmt 0 discriminator 1
	cmpl	$102, -8(%rbp)	#, code2
	jne	.L237	#,
.L236:
	.loc 1 1016 0 is_stmt 1
	movl	$1, %eax	#, D.13125
	jmp	.L216	#
.L237:
	.loc 1 1017 0
	jmp	.L233	#
.L223:
	.loc 1 1020 0
	cmpl	$106, -8(%rbp)	#, code2
	je	.L238	#,
	.loc 1 1020 0 is_stmt 0 discriminator 1
	cmpl	$102, -8(%rbp)	#, code2
	je	.L238	#,
	cmpl	$113, -8(%rbp)	#, code2
	je	.L238	#,
	cmpl	$119, -8(%rbp)	#, code2
	jne	.L239	#,
.L238:
	.loc 1 1021 0 is_stmt 1
	movl	$1, %eax	#, D.13125
	jmp	.L216	#
.L239:
	.loc 1 1022 0
	jmp	.L233	#
.L228:
	.loc 1 1025 0
	cmpl	$115, -8(%rbp)	#, code2
	je	.L240	#,
	.loc 1 1025 0 is_stmt 0 discriminator 1
	cmpl	$102, -8(%rbp)	#, code2
	jne	.L241	#,
.L240:
	.loc 1 1026 0 is_stmt 1
	movl	$1, %eax	#, D.13125
	jmp	.L216	#
.L241:
	.loc 1 1027 0
	jmp	.L233	#
.L222:
	.loc 1 1030 0
	cmpl	$104, -8(%rbp)	#, code2
	je	.L242	#,
	.loc 1 1030 0 is_stmt 0 discriminator 1
	cmpl	$102, -8(%rbp)	#, code2
	je	.L242	#,
	cmpl	$113, -8(%rbp)	#, code2
	je	.L242	#,
	cmpl	$119, -8(%rbp)	#, code2
	jne	.L243	#,
.L242:
	.loc 1 1031 0 is_stmt 1
	movl	$1, %eax	#, D.13125
	jmp	.L216	#
.L243:
	.loc 1 1032 0
	jmp	.L233	#
.L221:
	.loc 1 1036 0
	cmpl	$113, -8(%rbp)	#, code2
	jne	.L244	#,
	.loc 1 1037 0
	movl	$1, %eax	#, D.13125
	jmp	.L216	#
.L244:
	.loc 1 1038 0
	jmp	.L233	#
.L230:
	.loc 1 1041 0
	cmpl	$102, -8(%rbp)	#, code2
	je	.L245	#,
	.loc 1 1041 0 is_stmt 0 discriminator 1
	cmpl	$113, -8(%rbp)	#, code2
	jne	.L246	#,
.L245:
	.loc 1 1042 0 is_stmt 1
	movl	$1, %eax	#, D.13125
	jmp	.L216	#
.L246:
	.loc 1 1043 0
	jmp	.L233	#
.L225:
	.loc 1 1046 0
	cmpl	$110, -8(%rbp)	#, code2
	je	.L247	#,
	.loc 1 1046 0 is_stmt 0 discriminator 1
	cmpl	$102, -8(%rbp)	#, code2
	jne	.L248	#,
.L247:
	.loc 1 1047 0 is_stmt 1
	movl	$1, %eax	#, D.13125
	jmp	.L216	#
.L248:
	.loc 1 1048 0
	jmp	.L233	#
.L224:
	.loc 1 1051 0
	cmpl	$108, -8(%rbp)	#, code2
	je	.L249	#,
	.loc 1 1051 0 is_stmt 0 discriminator 1
	cmpl	$102, -8(%rbp)	#, code2
	jne	.L250	#,
.L249:
	.loc 1 1052 0 is_stmt 1
	movl	$1, %eax	#, D.13125
	jmp	.L216	#
.L250:
	.loc 1 1053 0
	jmp	.L233	#
.L226:
	.loc 1 1056 0
	cmpl	$102, -8(%rbp)	#, code2
	je	.L251	#,
	.loc 1 1056 0 is_stmt 0 discriminator 1
	cmpl	$114, -8(%rbp)	#, code2
	je	.L251	#,
	cmpl	$117, -8(%rbp)	#, code2
	je	.L251	#,
	cmpl	$118, -8(%rbp)	#, code2
	je	.L251	#,
	.loc 1 1057 0 is_stmt 1
	cmpl	$115, -8(%rbp)	#, code2
	je	.L251	#,
	.loc 1 1057 0 is_stmt 0 discriminator 1
	cmpl	$116, -8(%rbp)	#, code2
	jne	.L252	#,
.L251:
	.loc 1 1058 0 is_stmt 1
	movl	$1, %eax	#, D.13125
	jmp	.L216	#
.L252:
	.loc 1 1059 0
	jmp	.L233	#
.L253:
	.loc 1 1062 0
	nop
.L233:
	.loc 1 1065 0
	movl	$0, %eax	#, D.13125
.L216:
	.loc 1 1066 0
	popq	%rbp	#
	.cfi_def_cfa 7, 8
	ret
	.cfi_endproc
.LFE19:
	.size	comparison_dominates_p, .-comparison_dominates_p
	.globl	simplejump_p
	.type	simplejump_p, @function
simplejump_p:
.LFB20:
	.loc 1 1073 0
	.cfi_startproc
	pushq	%rbp	#
	.cfi_def_cfa_offset 16
	.cfi_offset 6, -16
	movq	%rsp, %rbp	#,
	.cfi_def_cfa_register 6
	movq	%rdi, -8(%rbp)	# insn, insn
	.loc 1 1074 0
	movq	-8(%rbp), %rax	# insn, tmp71
	movzwl	(%rax), %eax	# insn_2(D)->code, D.13126
	.loc 1 1077 0
	cmpw	$33, %ax	#, D.13126
	jne	.L255	#,
	.loc 1 1075 0
	movq	-8(%rbp), %rax	# insn, tmp72
	movq	32(%rax), %rax	# insn_2(D)->fld[3].rtx, D.13127
	movzwl	(%rax), %eax	# _4->code, D.13126
	cmpw	$47, %ax	#, D.13126
	jne	.L255	#,
	.loc 1 1076 0
	movq	-8(%rbp), %rax	# insn, tmp73
	movq	32(%rax), %rax	# insn_2(D)->fld[3].rtx, D.13127
	movq	8(%rax), %rax	# _6->fld[0].rtx, D.13127
	movzwl	(%rax), %eax	# _7->code, D.13126
	cmpw	$59, %ax	#, D.13126
	jne	.L255	#,
	.loc 1 1077 0
	movq	-8(%rbp), %rax	# insn, tmp74
	movq	32(%rax), %rax	# insn_2(D)->fld[3].rtx, D.13127
	movq	16(%rax), %rax	# _9->fld[1].rtx, D.13127
	movzwl	(%rax), %eax	# _10->code, D.13126
	cmpw	$67, %ax	#, D.13126
	jne	.L255	#,
	.loc 1 1077 0 is_stmt 0 discriminator 2
	movl	$1, %eax	#, iftmp.20
	jmp	.L256	#
.L255:
	.loc 1 1077 0 discriminator 1
	movl	$0, %eax	#, iftmp.20
.L256:
	.loc 1 1078 0 is_stmt 1
	popq	%rbp	#
	.cfi_def_cfa 7, 8
	ret
	.cfi_endproc
.LFE20:
	.size	simplejump_p, .-simplejump_p
	.globl	condjump_p
	.type	condjump_p, @function
condjump_p:
.LFB21:
	.loc 1 1089 0
	.cfi_startproc
	pushq	%rbp	#
	.cfi_def_cfa_offset 16
	.cfi_offset 6, -16
	movq	%rsp, %rbp	#,
	.cfi_def_cfa_register 6
	movq	%rdi, -24(%rbp)	# insn, insn
	.loc 1 1090 0
	movq	-24(%rbp), %rax	# insn, tmp79
	movq	32(%rax), %rax	# insn_3(D)->fld[3].rtx, tmp80
	movq	%rax, -8(%rbp)	# tmp80, x
	.loc 1 1092 0
	movq	-8(%rbp), %rax	# x, tmp81
	movzwl	(%rax), %eax	# x_4->code, D.13130
	cmpw	$47, %ax	#, D.13130
	jne	.L259	#,
	.loc 1 1093 0
	movq	-8(%rbp), %rax	# x, tmp82
	movq	8(%rax), %rax	# x_4->fld[0].rtx, D.13131
	movzwl	(%rax), %eax	# _6->code, D.13130
	cmpw	$59, %ax	#, D.13130
	je	.L260	#,
.L259:
	.loc 1 1094 0
	movl	$0, %eax	#, D.13129
	jmp	.L261	#
.L260:
	.loc 1 1096 0
	movq	-8(%rbp), %rax	# x, tmp83
	movq	16(%rax), %rax	# x_4->fld[1].rtx, tmp84
	movq	%rax, -8(%rbp)	# tmp84, x
	.loc 1 1097 0
	movq	-8(%rbp), %rax	# x, tmp85
	movzwl	(%rax), %eax	# x_8->code, D.13130
	cmpw	$67, %ax	#, D.13130
	jne	.L262	#,
	.loc 1 1098 0
	movl	$1, %eax	#, D.13129
	jmp	.L261	#
.L262:
	.loc 1 1100 0
	movq	-8(%rbp), %rax	# x, tmp86
	movzwl	(%rax), %eax	# x_8->code, D.13130
	.loc 1 1101 0
	cmpw	$72, %ax	#, D.13130
	jne	.L263	#,
	.loc 1 1101 0 is_stmt 0 discriminator 1
	movq	-8(%rbp), %rax	# x, tmp87
	movq	24(%rax), %rax	# x_8->fld[2].rtx, D.13131
	movzwl	(%rax), %eax	# _12->code, D.13130
	cmpw	$59, %ax	#, D.13130
	jne	.L264	#,
	.loc 1 1102 0 is_stmt 1
	movq	-8(%rbp), %rax	# x, tmp88
	movq	16(%rax), %rax	# x_8->fld[1].rtx, D.13131
	movzwl	(%rax), %eax	# _14->code, D.13130
	cmpw	$67, %ax	#, D.13130
	je	.L265	#,
	.loc 1 1103 0
	movq	-8(%rbp), %rax	# x, tmp89
	movq	16(%rax), %rax	# x_8->fld[1].rtx, D.13131
	movzwl	(%rax), %eax	# _16->code, D.13130
	cmpw	$51, %ax	#, D.13130
	je	.L265	#,
.L264:
	.loc 1 1104 0
	movq	-8(%rbp), %rax	# x, tmp90
	movq	16(%rax), %rax	# x_8->fld[1].rtx, D.13131
	movzwl	(%rax), %eax	# _18->code, D.13130
	cmpw	$59, %ax	#, D.13130
	jne	.L263	#,
	.loc 1 1105 0
	movq	-8(%rbp), %rax	# x, tmp91
	movq	24(%rax), %rax	# x_8->fld[2].rtx, D.13131
	movzwl	(%rax), %eax	# _20->code, D.13130
	cmpw	$67, %ax	#, D.13130
	je	.L265	#,
	.loc 1 1106 0
	movq	-8(%rbp), %rax	# x, tmp92
	movq	24(%rax), %rax	# x_8->fld[2].rtx, D.13131
	movzwl	(%rax), %eax	# _22->code, D.13130
	cmpw	$51, %ax	#, D.13130
	jne	.L263	#,
.L265:
	.loc 1 1101 0
	movl	$1, %eax	#, iftmp.21
	jmp	.L266	#
.L263:
	.loc 1 1101 0 is_stmt 0 discriminator 2
	movl	$0, %eax	#, iftmp.21
.L266:
.L261:
	.loc 1 1109 0 is_stmt 1
	popq	%rbp	#
	.cfi_def_cfa 7, 8
	ret
	.cfi_endproc
.LFE21:
	.size	condjump_p, .-condjump_p
	.globl	condjump_in_parallel_p
	.type	condjump_in_parallel_p, @function
condjump_in_parallel_p:
.LFB22:
	.loc 1 1120 0
	.cfi_startproc
	pushq	%rbp	#
	.cfi_def_cfa_offset 16
	.cfi_offset 6, -16
	movq	%rsp, %rbp	#,
	.cfi_def_cfa_register 6
	movq	%rdi, -24(%rbp)	# insn, insn
	.loc 1 1121 0
	movq	-24(%rbp), %rax	# insn, tmp88
	movq	32(%rax), %rax	# insn_2(D)->fld[3].rtx, tmp89
	movq	%rax, -8(%rbp)	# tmp89, x
	.loc 1 1123 0
	movq	-8(%rbp), %rax	# x, tmp90
	movzwl	(%rax), %eax	# x_3->code, D.13133
	cmpw	$39, %ax	#, D.13133
	je	.L268	#,
	.loc 1 1124 0
	movl	$0, %eax	#, D.13132
	jmp	.L269	#
.L268:
	.loc 1 1126 0
	movq	-8(%rbp), %rax	# x, tmp91
	movq	8(%rax), %rax	# x_3->fld[0].rtvec, D.13134
	movq	8(%rax), %rax	# _6->elem, tmp92
	movq	%rax, -8(%rbp)	# tmp92, x
	.loc 1 1128 0
	movq	-8(%rbp), %rax	# x, tmp93
	movzwl	(%rax), %eax	# x_7->code, D.13133
	cmpw	$47, %ax	#, D.13133
	je	.L270	#,
	.loc 1 1129 0
	movl	$0, %eax	#, D.13132
	jmp	.L269	#
.L270:
	.loc 1 1130 0
	movq	-8(%rbp), %rax	# x, tmp94
	movq	8(%rax), %rax	# x_7->fld[0].rtx, D.13135
	movzwl	(%rax), %eax	# _10->code, D.13133
	cmpw	$59, %ax	#, D.13133
	je	.L271	#,
	.loc 1 1131 0
	movl	$0, %eax	#, D.13132
	jmp	.L269	#
.L271:
	.loc 1 1132 0
	movq	-8(%rbp), %rax	# x, tmp95
	movq	16(%rax), %rax	# x_7->fld[1].rtx, D.13135
	movzwl	(%rax), %eax	# _13->code, D.13133
	cmpw	$67, %ax	#, D.13133
	jne	.L272	#,
	.loc 1 1133 0
	movl	$1, %eax	#, D.13132
	jmp	.L269	#
.L272:
	.loc 1 1134 0
	movq	-8(%rbp), %rax	# x, tmp96
	movq	16(%rax), %rax	# x_7->fld[1].rtx, D.13135
	movzwl	(%rax), %eax	# _16->code, D.13133
	cmpw	$72, %ax	#, D.13133
	je	.L273	#,
	.loc 1 1135 0
	movl	$0, %eax	#, D.13132
	jmp	.L269	#
.L273:
	.loc 1 1136 0
	movq	-8(%rbp), %rax	# x, tmp97
	movq	16(%rax), %rax	# x_7->fld[1].rtx, D.13135
	movq	24(%rax), %rdx	# _19->fld[2].rtx, D.13135
	movq	global_rtl(%rip), %rax	# global_rtl, D.13135
	cmpq	%rax, %rdx	# D.13135, D.13135
	jne	.L274	#,
	.loc 1 1137 0
	movq	-8(%rbp), %rax	# x, tmp98
	movq	16(%rax), %rax	# x_7->fld[1].rtx, D.13135
	movq	16(%rax), %rax	# _22->fld[1].rtx, D.13135
	movzwl	(%rax), %eax	# _23->code, D.13133
	cmpw	$67, %ax	#, D.13133
	je	.L275	#,
	.loc 1 1138 0
	movq	-8(%rbp), %rax	# x, tmp99
	movq	16(%rax), %rax	# x_7->fld[1].rtx, D.13135
	movq	16(%rax), %rax	# _25->fld[1].rtx, D.13135
	movzwl	(%rax), %eax	# _26->code, D.13133
	cmpw	$51, %ax	#, D.13133
	jne	.L274	#,
.L275:
	.loc 1 1139 0
	movl	$1, %eax	#, D.13132
	jmp	.L269	#
.L274:
	.loc 1 1140 0
	movq	-8(%rbp), %rax	# x, tmp100
	movq	16(%rax), %rax	# x_7->fld[1].rtx, D.13135
	movq	16(%rax), %rdx	# _29->fld[1].rtx, D.13135
	movq	global_rtl(%rip), %rax	# global_rtl, D.13135
	cmpq	%rax, %rdx	# D.13135, D.13135
	jne	.L276	#,
	.loc 1 1141 0
	movq	-8(%rbp), %rax	# x, tmp101
	movq	16(%rax), %rax	# x_7->fld[1].rtx, D.13135
	movq	24(%rax), %rax	# _32->fld[2].rtx, D.13135
	movzwl	(%rax), %eax	# _33->code, D.13133
	cmpw	$67, %ax	#, D.13133
	je	.L277	#,
	.loc 1 1142 0
	movq	-8(%rbp), %rax	# x, tmp102
	movq	16(%rax), %rax	# x_7->fld[1].rtx, D.13135
	movq	24(%rax), %rax	# _35->fld[2].rtx, D.13135
	movzwl	(%rax), %eax	# _36->code, D.13133
	cmpw	$51, %ax	#, D.13133
	jne	.L276	#,
.L277:
	.loc 1 1143 0
	movl	$1, %eax	#, D.13132
	jmp	.L269	#
.L276:
	.loc 1 1144 0
	movl	$0, %eax	#, D.13132
.L269:
	.loc 1 1145 0
	popq	%rbp	#
	.cfi_def_cfa 7, 8
	ret
	.cfi_endproc
.LFE22:
	.size	condjump_in_parallel_p, .-condjump_in_parallel_p
	.globl	pc_set
	.type	pc_set, @function
pc_set:
.LFB23:
	.loc 1 1152 0
	.cfi_startproc
	pushq	%rbp	#
	.cfi_def_cfa_offset 16
	.cfi_offset 6, -16
	movq	%rsp, %rbp	#,
	.cfi_def_cfa_register 6
	movq	%rdi, -24(%rbp)	# insn, insn
	.loc 1 1154 0
	movq	-24(%rbp), %rax	# insn, tmp67
	movzwl	(%rax), %eax	# insn_3(D)->code, D.13137
	cmpw	$33, %ax	#, D.13137
	je	.L279	#,
	.loc 1 1155 0
	movl	$0, %eax	#, D.13136
	jmp	.L280	#
.L279:
	.loc 1 1156 0
	movq	-24(%rbp), %rax	# insn, tmp68
	movq	32(%rax), %rax	# insn_3(D)->fld[3].rtx, tmp69
	movq	%rax, -8(%rbp)	# tmp69, pat
	.loc 1 1160 0
	movq	-8(%rbp), %rax	# pat, tmp70
	movzwl	(%rax), %eax	# pat_6->code, D.13137
	cmpw	$39, %ax	#, D.13137
	jne	.L281	#,
	.loc 1 1161 0
	movq	-8(%rbp), %rax	# pat, tmp71
	movq	8(%rax), %rax	# pat_6->fld[0].rtvec, D.13138
	movq	8(%rax), %rax	# _8->elem, tmp72
	movq	%rax, -8(%rbp)	# tmp72, pat
.L281:
	.loc 1 1162 0
	movq	-8(%rbp), %rax	# pat, tmp73
	movzwl	(%rax), %eax	# pat_1->code, D.13137
	cmpw	$47, %ax	#, D.13137
	jne	.L282	#,
	.loc 1 1162 0 is_stmt 0 discriminator 1
	movq	-8(%rbp), %rax	# pat, tmp74
	movq	8(%rax), %rax	# pat_1->fld[0].rtx, D.13139
	movzwl	(%rax), %eax	# _11->code, D.13137
	cmpw	$59, %ax	#, D.13137
	jne	.L282	#,
	.loc 1 1163 0 is_stmt 1
	movq	-8(%rbp), %rax	# pat, D.13136
	jmp	.L280	#
.L282:
	.loc 1 1165 0
	movl	$0, %eax	#, D.13136
.L280:
	.loc 1 1166 0
	popq	%rbp	#
	.cfi_def_cfa 7, 8
	ret
	.cfi_endproc
.LFE23:
	.size	pc_set, .-pc_set
	.globl	any_uncondjump_p
	.type	any_uncondjump_p, @function
any_uncondjump_p:
.LFB24:
	.loc 1 1174 0
	.cfi_startproc
	pushq	%rbp	#
	.cfi_def_cfa_offset 16
	.cfi_offset 6, -16
	movq	%rsp, %rbp	#,
	.cfi_def_cfa_register 6
	subq	$24, %rsp	#,
	movq	%rdi, -24(%rbp)	# insn, insn
	.loc 1 1175 0
	movq	-24(%rbp), %rax	# insn, tmp63
	movq	%rax, %rdi	# tmp63,
	call	pc_set	#
	movq	%rax, -8(%rbp)	# tmp64, x
	.loc 1 1176 0
	cmpq	$0, -8(%rbp)	#, x
	jne	.L284	#,
	.loc 1 1177 0
	movl	$0, %eax	#, D.13140
	jmp	.L285	#
.L284:
	.loc 1 1178 0
	movq	-8(%rbp), %rax	# x, tmp65
	movq	16(%rax), %rax	# x_3->fld[1].rtx, D.13141
	movzwl	(%rax), %eax	# _5->code, D.13142
	cmpw	$67, %ax	#, D.13142
	je	.L286	#,
	.loc 1 1179 0
	movl	$0, %eax	#, D.13140
	jmp	.L285	#
.L286:
	.loc 1 1180 0
	movl	$1, %eax	#, D.13140
.L285:
	.loc 1 1181 0
	leave
	.cfi_def_cfa 7, 8
	ret
	.cfi_endproc
.LFE24:
	.size	any_uncondjump_p, .-any_uncondjump_p
	.globl	any_condjump_p
	.type	any_condjump_p, @function
any_condjump_p:
.LFB25:
	.loc 1 1193 0
	.cfi_startproc
	pushq	%rbp	#
	.cfi_def_cfa_offset 16
	.cfi_offset 6, -16
	movq	%rsp, %rbp	#,
	.cfi_def_cfa_register 6
	subq	$24, %rsp	#,
	movq	%rdi, -24(%rbp)	# insn, insn
	.loc 1 1194 0
	movq	-24(%rbp), %rax	# insn, tmp70
	movq	%rax, %rdi	# tmp70,
	call	pc_set	#
	movq	%rax, -8(%rbp)	# tmp71, x
	.loc 1 1197 0
	cmpq	$0, -8(%rbp)	#, x
	jne	.L288	#,
	.loc 1 1198 0
	movl	$0, %eax	#, D.13143
	jmp	.L289	#
.L288:
	.loc 1 1199 0
	movq	-8(%rbp), %rax	# x, tmp72
	movq	16(%rax), %rax	# x_4->fld[1].rtx, D.13144
	movzwl	(%rax), %eax	# _6->code, D.13145
	cmpw	$72, %ax	#, D.13145
	je	.L290	#,
	.loc 1 1200 0
	movl	$0, %eax	#, D.13143
	jmp	.L289	#
.L290:
	.loc 1 1202 0
	movq	-8(%rbp), %rax	# x, tmp73
	movq	16(%rax), %rax	# x_4->fld[1].rtx, D.13144
	movq	16(%rax), %rax	# _9->fld[1].rtx, D.13144
	movzwl	(%rax), %eax	# _10->code, D.13145
	movzwl	%ax, %eax	# D.13145, tmp74
	movl	%eax, -16(%rbp)	# tmp74, a
	.loc 1 1203 0
	movq	-8(%rbp), %rax	# x, tmp75
	movq	16(%rax), %rax	# x_4->fld[1].rtx, D.13144
	movq	24(%rax), %rax	# _13->fld[2].rtx, D.13144
	movzwl	(%rax), %eax	# _14->code, D.13145
	movzwl	%ax, %eax	# D.13145, tmp76
	movl	%eax, -12(%rbp)	# tmp76, b
	.loc 1 1206 0
	cmpl	$59, -12(%rbp)	#, b
	jne	.L291	#,
	.loc 1 1205 0
	cmpl	$67, -16(%rbp)	#, a
	je	.L292	#,
	.loc 1 1205 0 is_stmt 0 discriminator 1
	cmpl	$51, -16(%rbp)	#, a
	je	.L292	#,
.L291:
	.loc 1 1206 0 is_stmt 1 discriminator 1
	cmpl	$59, -16(%rbp)	#, a
	jne	.L293	#,
	.loc 1 1206 0 is_stmt 0 discriminator 2
	cmpl	$67, -12(%rbp)	#, b
	je	.L292	#,
	cmpl	$51, -12(%rbp)	#, b
	jne	.L293	#,
.L292:
	.loc 1 1206 0 discriminator 1
	movl	$1, %eax	#, iftmp.22
	jmp	.L294	#
.L293:
	.loc 1 1206 0 discriminator 3
	movl	$0, %eax	#, iftmp.22
.L294:
.L289:
	.loc 1 1207 0 is_stmt 1
	leave
	.cfi_def_cfa 7, 8
	ret
	.cfi_endproc
.LFE25:
	.size	any_condjump_p, .-any_condjump_p
	.globl	condjump_label
	.type	condjump_label, @function
condjump_label:
.LFB26:
	.loc 1 1214 0
	.cfi_startproc
	pushq	%rbp	#
	.cfi_def_cfa_offset 16
	.cfi_offset 6, -16
	movq	%rsp, %rbp	#,
	.cfi_def_cfa_register 6
	subq	$24, %rsp	#,
	movq	%rdi, -24(%rbp)	# insn, insn
	.loc 1 1215 0
	movq	-24(%rbp), %rax	# insn, tmp71
	movq	%rax, %rdi	# tmp71,
	call	pc_set	#
	movq	%rax, -8(%rbp)	# tmp72, x
	.loc 1 1217 0
	cmpq	$0, -8(%rbp)	#, x
	jne	.L296	#,
	.loc 1 1218 0
	movl	$0, %eax	#, D.13146
	jmp	.L297	#
.L296:
	.loc 1 1219 0
	movq	-8(%rbp), %rax	# x, tmp73
	movq	16(%rax), %rax	# x_3->fld[1].rtx, tmp74
	movq	%rax, -8(%rbp)	# tmp74, x
	.loc 1 1220 0
	movq	-8(%rbp), %rax	# x, tmp75
	movzwl	(%rax), %eax	# x_5->code, D.13147
	cmpw	$67, %ax	#, D.13147
	jne	.L298	#,
	.loc 1 1221 0
	movq	-8(%rbp), %rax	# x, D.13146
	jmp	.L297	#
.L298:
	.loc 1 1222 0
	movq	-8(%rbp), %rax	# x, tmp76
	movzwl	(%rax), %eax	# x_5->code, D.13147
	cmpw	$72, %ax	#, D.13147
	je	.L299	#,
	.loc 1 1223 0
	movl	$0, %eax	#, D.13146
	jmp	.L297	#
.L299:
	.loc 1 1224 0
	movq	-8(%rbp), %rax	# x, tmp77
	movq	24(%rax), %rdx	# x_5->fld[2].rtx, D.13148
	movq	global_rtl(%rip), %rax	# global_rtl, D.13148
	cmpq	%rax, %rdx	# D.13148, D.13148
	jne	.L300	#,
	.loc 1 1224 0 is_stmt 0 discriminator 1
	movq	-8(%rbp), %rax	# x, tmp78
	movq	16(%rax), %rax	# x_5->fld[1].rtx, D.13148
	movzwl	(%rax), %eax	# _12->code, D.13147
	cmpw	$67, %ax	#, D.13147
	jne	.L300	#,
	.loc 1 1225 0 is_stmt 1
	movq	-8(%rbp), %rax	# x, tmp79
	movq	16(%rax), %rax	# x_5->fld[1].rtx, D.13146
	jmp	.L297	#
.L300:
	.loc 1 1226 0
	movq	-8(%rbp), %rax	# x, tmp80
	movq	16(%rax), %rdx	# x_5->fld[1].rtx, D.13148
	movq	global_rtl(%rip), %rax	# global_rtl, D.13148
	cmpq	%rax, %rdx	# D.13148, D.13148
	jne	.L301	#,
	.loc 1 1226 0 is_stmt 0 discriminator 1
	movq	-8(%rbp), %rax	# x, tmp81
	movq	24(%rax), %rax	# x_5->fld[2].rtx, D.13148
	movzwl	(%rax), %eax	# _17->code, D.13147
	cmpw	$67, %ax	#, D.13147
	jne	.L301	#,
	.loc 1 1227 0 is_stmt 1
	movq	-8(%rbp), %rax	# x, tmp82
	movq	24(%rax), %rax	# x_5->fld[2].rtx, D.13146
	jmp	.L297	#
.L301:
	.loc 1 1228 0
	movl	$0, %eax	#, D.13146
.L297:
	.loc 1 1229 0
	leave
	.cfi_def_cfa 7, 8
	ret
	.cfi_endproc
.LFE26:
	.size	condjump_label, .-condjump_label
	.type	returnjump_p_1, @function
returnjump_p_1:
.LFB27:
	.loc 1 1237 0
	.cfi_startproc
	pushq	%rbp	#
	.cfi_def_cfa_offset 16
	.cfi_offset 6, -16
	movq	%rsp, %rbp	#,
	.cfi_def_cfa_register 6
	movq	%rdi, -24(%rbp)	# loc, loc
	movq	%rsi, -32(%rbp)	# data, data
	.loc 1 1238 0
	movq	-24(%rbp), %rax	# loc, tmp66
	movq	(%rax), %rax	# *loc_2(D), tmp67
	movq	%rax, -8(%rbp)	# tmp67, x
	.loc 1 1240 0
	cmpq	$0, -8(%rbp)	#, x
	je	.L303	#,
	.loc 1 1240 0 is_stmt 0 discriminator 1
	movq	-8(%rbp), %rax	# x, tmp68
	movzwl	(%rax), %eax	# x_3->code, D.13149
	cmpw	$51, %ax	#, D.13149
	je	.L304	#,
	.loc 1 1241 0 is_stmt 1
	movq	-8(%rbp), %rax	# x, tmp69
	movzwl	(%rax), %eax	# x_3->code, D.13149
	cmpw	$47, %ax	#, D.13149
	jne	.L303	#,
	.loc 1 1241 0 is_stmt 0 discriminator 1
	movq	-8(%rbp), %rax	# x, tmp70
	movzbl	3(%rax), %eax	# *x_3, D.13150
	andl	$1, %eax	#, D.13150
	testb	%al, %al	# D.13150
	je	.L303	#,
.L304:
	.loc 1 1240 0 is_stmt 1 discriminator 3
	movl	$1, %eax	#, iftmp.23
	jmp	.L305	#
.L303:
	.loc 1 1240 0 is_stmt 0 discriminator 2
	movl	$0, %eax	#, iftmp.23
.L305:
	.loc 1 1242 0 is_stmt 1 discriminator 4
	popq	%rbp	#
	.cfi_def_cfa 7, 8
	ret
	.cfi_endproc
.LFE27:
	.size	returnjump_p_1, .-returnjump_p_1
	.globl	returnjump_p
	.type	returnjump_p, @function
returnjump_p:
.LFB28:
	.loc 1 1247 0
	.cfi_startproc
	pushq	%rbp	#
	.cfi_def_cfa_offset 16
	.cfi_offset 6, -16
	movq	%rsp, %rbp	#,
	.cfi_def_cfa_register 6
	subq	$16, %rsp	#,
	movq	%rdi, -8(%rbp)	# insn, insn
	.loc 1 1248 0
	movq	-8(%rbp), %rax	# insn, tmp63
	movzwl	(%rax), %eax	# insn_2(D)->code, D.13153
	cmpw	$33, %ax	#, D.13153
	je	.L308	#,
	.loc 1 1249 0
	movl	$0, %eax	#, D.13152
	jmp	.L309	#
.L308:
	.loc 1 1250 0
	movq	-8(%rbp), %rax	# insn, tmp64
	addq	$32, %rax	#, D.13154
	movl	$0, %edx	#,
	movl	$returnjump_p_1, %esi	#,
	movq	%rax, %rdi	# D.13154,
	call	for_each_rtx	#
.L309:
	.loc 1 1251 0
	leave
	.cfi_def_cfa 7, 8
	ret
	.cfi_endproc
.LFE28:
	.size	returnjump_p, .-returnjump_p
	.globl	onlyjump_p
	.type	onlyjump_p, @function
onlyjump_p:
.LFB29:
	.loc 1 1259 0
	.cfi_startproc
	pushq	%rbp	#
	.cfi_def_cfa_offset 16
	.cfi_offset 6, -16
	movq	%rsp, %rbp	#,
	.cfi_def_cfa_register 6
	subq	$32, %rsp	#,
	movq	%rdi, -24(%rbp)	# insn, insn
	.loc 1 1262 0
	movq	-24(%rbp), %rax	# insn, tmp74
	movzwl	(%rax), %eax	# insn_4(D)->code, D.13156
	cmpw	$33, %ax	#, D.13156
	je	.L311	#,
	.loc 1 1263 0
	movl	$0, %eax	#, D.13155
	jmp	.L312	#
.L311:
	.loc 1 1265 0
	movq	-24(%rbp), %rax	# insn, tmp75
	movzwl	(%rax), %eax	# insn_4(D)->code, D.13156
	movzwl	%ax, %eax	# D.13156, D.13155
	cltq
	movzbl	rtx_class(%rax), %eax	# rtx_class, D.13157
	cmpb	$105, %al	#, D.13157
	jne	.L313	#,
	.loc 1 1265 0 is_stmt 0 discriminator 1
	movq	-24(%rbp), %rax	# insn, tmp77
	movq	32(%rax), %rax	# insn_4(D)->fld[3].rtx, D.13158
	movzwl	(%rax), %eax	# _10->code, D.13156
	cmpw	$47, %ax	#, D.13156
	jne	.L314	#,
	.loc 1 1265 0 discriminator 3
	movq	-24(%rbp), %rax	# insn, tmp78
	movq	32(%rax), %rax	# insn_4(D)->fld[3].rtx, iftmp.25
	jmp	.L316	#
.L314:
	.loc 1 1265 0 discriminator 4
	movq	-24(%rbp), %rax	# insn, tmp79
	movq	32(%rax), %rdx	# insn_4(D)->fld[3].rtx, D.13158
	movq	-24(%rbp), %rax	# insn, tmp80
	movq	%rdx, %rsi	# D.13158,
	movq	%rax, %rdi	# tmp80,
	call	single_set_2	#
	jmp	.L316	#
.L313:
	.loc 1 1265 0 discriminator 2
	movl	$0, %eax	#, iftmp.24
.L316:
	.loc 1 1265 0 discriminator 5
	movq	%rax, -8(%rbp)	# iftmp.24, set
	.loc 1 1266 0 is_stmt 1 discriminator 5
	cmpq	$0, -8(%rbp)	#, set
	jne	.L317	#,
	.loc 1 1267 0
	movl	$0, %eax	#, D.13155
	jmp	.L312	#
.L317:
	.loc 1 1268 0
	movq	-8(%rbp), %rax	# set, tmp81
	movq	8(%rax), %rax	# set_17->fld[0].rtx, D.13158
	movzwl	(%rax), %eax	# _19->code, D.13156
	cmpw	$59, %ax	#, D.13156
	je	.L318	#,
	.loc 1 1269 0
	movl	$0, %eax	#, D.13155
	jmp	.L312	#
.L318:
	.loc 1 1270 0
	movq	-8(%rbp), %rax	# set, tmp82
	movq	16(%rax), %rax	# set_17->fld[1].rtx, D.13158
	movq	%rax, %rdi	# D.13158,
	call	side_effects_p	#
	testl	%eax, %eax	# D.13155
	je	.L319	#,
	.loc 1 1271 0
	movl	$0, %eax	#, D.13155
	jmp	.L312	#
.L319:
	.loc 1 1273 0
	movl	$1, %eax	#, D.13155
.L312:
	.loc 1 1274 0
	leave
	.cfi_def_cfa 7, 8
	ret
	.cfi_endproc
.LFE29:
	.size	onlyjump_p, .-onlyjump_p
	.globl	follow_jumps
	.type	follow_jumps, @function
follow_jumps:
.LFB30:
	.loc 1 1344 0
	.cfi_startproc
	pushq	%rbp	#
	.cfi_def_cfa_offset 16
	.cfi_offset 6, -16
	movq	%rsp, %rbp	#,
	.cfi_def_cfa_register 6
	subq	$64, %rsp	#,
	movq	%rdi, -56(%rbp)	# label, label
	.loc 1 1347 0
	movq	-56(%rbp), %rax	# label, tmp79
	movq	%rax, -32(%rbp)	# tmp79, value
	.loc 1 1350 0
	movl	$0, -36(%rbp)	#, depth
	jmp	.L321	#
.L333:
.LBB14:
	.loc 1 1366 0
	movl	reload_completed(%rip), %eax	# reload_completed, reload_completed.26
	testl	%eax, %eax	# reload_completed.26
	jne	.L322	#,
	.loc 1 1367 0
	movq	-32(%rbp), %rax	# value, tmp80
	movq	%rax, -24(%rbp)	# tmp80, tem
	jmp	.L323	#
.L327:
	.loc 1 1368 0
	movq	-24(%rbp), %rax	# tem, tmp81
	movzwl	(%rax), %eax	# tem_3->code, D.13160
	cmpw	$37, %ax	#, D.13160
	jne	.L324	#,
	.loc 1 1369 0
	movq	-24(%rbp), %rax	# tem, tmp82
	movl	40(%rax), %eax	# tem_3->fld[4].rtint, D.13162
	cmpl	$-96, %eax	#, D.13162
	je	.L325	#,
	.loc 1 1372 0
	movl	flag_test_coverage(%rip), %eax	# flag_test_coverage, flag_test_coverage.27
	testl	%eax, %eax	# flag_test_coverage.27
	je	.L324	#,
	.loc 1 1372 0 is_stmt 0 discriminator 1
	movq	-24(%rbp), %rax	# tem, tmp83
	movl	40(%rax), %eax	# tem_3->fld[4].rtint, D.13162
	testl	%eax, %eax	# D.13162
	jle	.L324	#,
.L325:
	.loc 1 1373 0 is_stmt 1
	movq	-32(%rbp), %rax	# value, D.13159
	jmp	.L326	#
.L324:
	.loc 1 1367 0
	movq	-24(%rbp), %rax	# tem, tmp84
	movq	24(%rax), %rax	# tem_3->fld[2].rtx, tmp85
	movq	%rax, -24(%rbp)	# tmp85, tem
.L323:
	.loc 1 1367 0 is_stmt 0 discriminator 1
	movq	-24(%rbp), %rax	# tem, tmp86
	cmpq	-16(%rbp), %rax	# insn, tmp86
	jne	.L327	#,
.L322:
	.loc 1 1376 0 is_stmt 1
	movq	-16(%rbp), %rax	# insn, tmp87
	movq	64(%rax), %rax	# insn_8->fld[7].rtx, D.13161
	cmpq	-56(%rbp), %rax	# label, D.13161
	jne	.L328	#,
	.loc 1 1377 0
	movq	-56(%rbp), %rax	# label, D.13159
	jmp	.L326	#
.L328:
	.loc 1 1379 0
	movq	-16(%rbp), %rax	# insn, tmp88
	movq	64(%rax), %rax	# insn_8->fld[7].rtx, D.13161
	movq	%rax, %rdi	# D.13161,
	call	next_active_insn	#
	movq	%rax, -24(%rbp)	# tmp89, tem
	.loc 1 1380 0
	cmpq	$0, -24(%rbp)	#, tem
	je	.L329	#,
	.loc 1 1380 0 is_stmt 0 discriminator 1
	movq	-24(%rbp), %rax	# tem, tmp90
	movq	32(%rax), %rax	# tem_28->fld[3].rtx, D.13161
	movzwl	(%rax), %eax	# _29->code, D.13160
	cmpw	$44, %ax	#, D.13160
	je	.L330	#,
	.loc 1 1381 0 is_stmt 1
	movq	-24(%rbp), %rax	# tem, tmp91
	movq	32(%rax), %rax	# tem_28->fld[3].rtx, D.13161
	movzwl	(%rax), %eax	# _31->code, D.13160
	cmpw	$45, %ax	#, D.13160
	je	.L330	#,
.L329:
	.loc 1 1384 0
	movq	-16(%rbp), %rax	# insn, tmp92
	movq	64(%rax), %rax	# insn_8->fld[7].rtx, tmp93
	movq	%rax, -32(%rbp)	# tmp93, value
.LBE14:
	.loc 1 1359 0
	addl	$1, -36(%rbp)	#, depth
.L321:
	.loc 1 1350 0 discriminator 1
	cmpl	$9, -36(%rbp)	#, depth
	jg	.L330	#,
	.loc 1 1352 0
	movq	-32(%rbp), %rax	# value, tmp94
	movq	%rax, %rdi	# tmp94,
	call	next_active_insn	#
	movq	%rax, -16(%rbp)	# tmp95, insn
	cmpq	$0, -16(%rbp)	#, insn
	je	.L330	#,
	.loc 1 1353 0
	movq	-16(%rbp), %rax	# insn, tmp96
	movzwl	(%rax), %eax	# insn_8->code, D.13160
	cmpw	$33, %ax	#, D.13160
	jne	.L330	#,
	.loc 1 1354 0
	movq	-16(%rbp), %rax	# insn, tmp97
	movq	64(%rax), %rax	# insn_8->fld[7].rtx, D.13161
	testq	%rax, %rax	# D.13161
	je	.L331	#,
	.loc 1 1354 0 is_stmt 0 discriminator 1
	movq	-16(%rbp), %rax	# insn, tmp98
	movq	%rax, %rdi	# tmp98,
	call	any_uncondjump_p	#
	testl	%eax, %eax	# D.13162
	je	.L331	#,
	.loc 1 1355 0 is_stmt 1
	movq	-16(%rbp), %rax	# insn, tmp99
	movq	%rax, %rdi	# tmp99,
	call	onlyjump_p	#
	testl	%eax, %eax	# D.13162
	jne	.L332	#,
.L331:
	.loc 1 1356 0
	movq	-16(%rbp), %rax	# insn, tmp100
	movq	32(%rax), %rax	# insn_8->fld[3].rtx, D.13161
	movzwl	(%rax), %eax	# _13->code, D.13160
	cmpw	$51, %ax	#, D.13160
	jne	.L330	#,
.L332:
	.loc 1 1357 0
	movq	-16(%rbp), %rax	# insn, tmp101
	movq	24(%rax), %rax	# insn_8->fld[2].rtx, tmp102
	movq	%rax, -8(%rbp)	# tmp102, next
	cmpq	$0, -8(%rbp)	#, next
	je	.L330	#,
	.loc 1 1358 0
	movq	-8(%rbp), %rax	# next, tmp103
	movzwl	(%rax), %eax	# next_15->code, D.13160
	cmpw	$35, %ax	#, D.13160
	je	.L333	#,
.L330:
	.loc 1 1386 0
	cmpl	$10, -36(%rbp)	#, depth
	jne	.L334	#,
	.loc 1 1387 0
	movq	-56(%rbp), %rax	# label, D.13159
	jmp	.L326	#
.L334:
	.loc 1 1388 0
	movq	-32(%rbp), %rax	# value, D.13159
.L326:
	.loc 1 1389 0
	leave
	.cfi_def_cfa 7, 8
	ret
	.cfi_endproc
.LFE30:
	.size	follow_jumps, .-follow_jumps
	.globl	mark_jump_label
	.type	mark_jump_label, @function
mark_jump_label:
.LFB31:
	.loc 1 1410 0
	.cfi_startproc
	pushq	%rbp	#
	.cfi_def_cfa_offset 16
	.cfi_offset 6, -16
	movq	%rsp, %rbp	#,
	.cfi_def_cfa_register 6
	subq	$64, %rsp	#,
	movq	%rdi, -40(%rbp)	# x, x
	movq	%rsi, -48(%rbp)	# insn, insn
	movl	%edx, -52(%rbp)	# in_mem, in_mem
	.loc 1 1411 0
	movq	-40(%rbp), %rax	# x, tmp98
	movzwl	(%rax), %eax	# x_5(D)->code, D.13163
	movzwl	%ax, %eax	# D.13163, tmp99
	movl	%eax, -24(%rbp)	# tmp99, code
	.loc 1 1415 0
	movl	-24(%rbp), %eax	# code, tmp101
	subl	$44, %eax	#, tmp100
	cmpl	$25, %eax	#, tmp100
	ja	.L363	#,
	movl	%eax, %eax	# tmp100, tmp102
	movq	.L338(,%rax,8), %rax	#, tmp103
	jmp	*%rax	# tmp103
	.section	.rodata
	.align 8
	.align 4
.L338:
	.quad	.L337
	.quad	.L337
	.quad	.L363
	.quad	.L363
	.quad	.L363
	.quad	.L364
	.quad	.L364
	.quad	.L363
	.quad	.L363
	.quad	.L363
	.quad	.L364
	.quad	.L364
	.quad	.L363
	.quad	.L363
	.quad	.L363
	.quad	.L364
	.quad	.L363
	.quad	.L364
	.quad	.L363
	.quad	.L364
	.quad	.L363
	.quad	.L363
	.quad	.L340
	.quad	.L341
	.quad	.L342
	.quad	.L364
	.text
.L340:
	.loc 1 1428 0
	movl	$1, -52(%rbp)	#, in_mem
	.loc 1 1429 0
	jmp	.L344	#
.L342:
	.loc 1 1432 0
	cmpl	$0, -52(%rbp)	#, in_mem
	jne	.L345	#,
	.loc 1 1433 0
	jmp	.L335	#
.L345:
	.loc 1 1436 0
	movq	-40(%rbp), %rax	# x, tmp104
	movzbl	3(%rax), %eax	# *x_5(D), D.13164
	andl	$4, %eax	#, D.13164
	testb	%al, %al	# D.13164
	je	.L346	#,
	.loc 1 1437 0
	movq	-40(%rbp), %rax	# x, tmp105
	movq	%rax, %rdi	# tmp105,
	call	get_pool_constant	#
	movl	-52(%rbp), %edx	# in_mem, tmp106
	movq	-48(%rbp), %rcx	# insn, tmp107
	movq	%rcx, %rsi	# tmp107,
	movq	%rax, %rdi	# D.13165,
	call	mark_jump_label	#
	.loc 1 1438 0
	jmp	.L344	#
.L346:
	jmp	.L344	#
.L341:
.LBB15:
	.loc 1 1442 0
	movq	-40(%rbp), %rax	# x, tmp108
	movq	8(%rax), %rax	# x_5(D)->fld[0].rtx, tmp109
	movq	%rax, -16(%rbp)	# tmp109, label
	.loc 1 1446 0
	movq	-16(%rbp), %rax	# label, tmp110
	movzwl	(%rax), %eax	# label_14->code, D.13163
	cmpw	$37, %ax	#, D.13163
	jne	.L347	#,
	.loc 1 1447 0
	movq	-16(%rbp), %rax	# label, tmp111
	movl	40(%rax), %eax	# label_14->fld[4].rtint, D.13166
	cmpl	$-88, %eax	#, D.13166
	jne	.L347	#,
	.loc 1 1448 0
	jmp	.L344	#
.L347:
	.loc 1 1450 0
	movq	-16(%rbp), %rax	# label, tmp112
	movzwl	(%rax), %eax	# label_14->code, D.13163
	cmpw	$36, %ax	#, D.13163
	je	.L348	#,
	.loc 1 1451 0
	movl	$__FUNCTION__.11117, %edx	#,
	movl	$1451, %esi	#,
	movl	$.LC0, %edi	#,
	call	fancy_abort	#
.L348:
	.loc 1 1454 0
	movq	-40(%rbp), %rax	# x, tmp113
	movzbl	3(%rax), %eax	# *x_5(D), D.13164
	andl	$8, %eax	#, D.13164
	testb	%al, %al	# D.13164
	je	.L349	#,
	.loc 1 1455 0
	jmp	.L344	#
.L349:
	.loc 1 1457 0
	movq	-40(%rbp), %rax	# x, tmp114
	movq	-16(%rbp), %rdx	# label, tmp115
	movq	%rdx, 8(%rax)	# tmp115, x_5(D)->fld[0].rtx
	.loc 1 1458 0
	cmpq	$0, -48(%rbp)	#, insn
	je	.L350	#,
	.loc 1 1458 0 is_stmt 0 discriminator 1
	movq	-48(%rbp), %rax	# insn, tmp116
	movzbl	3(%rax), %eax	# *insn_13(D), D.13164
	andl	$8, %eax	#, D.13164
	testb	%al, %al	# D.13164
	jne	.L351	#,
.L350:
	.loc 1 1459 0 is_stmt 1
	movq	-16(%rbp), %rax	# label, tmp117
	movl	32(%rax), %eax	# label_14->fld[3].rtint, D.13166
	leal	1(%rax), %edx	#, D.13166
	movq	-16(%rbp), %rax	# label, tmp118
	movl	%edx, 32(%rax)	# D.13166, label_14->fld[3].rtint
.L351:
	.loc 1 1461 0
	cmpq	$0, -48(%rbp)	#, insn
	je	.L352	#,
	.loc 1 1463 0
	movq	-48(%rbp), %rax	# insn, tmp119
	movzwl	(%rax), %eax	# insn_13(D)->code, D.13163
	cmpw	$33, %ax	#, D.13163
	jne	.L353	#,
	.loc 1 1464 0
	movq	-48(%rbp), %rax	# insn, tmp120
	movq	-16(%rbp), %rdx	# label, tmp121
	movq	%rdx, 64(%rax)	# tmp121, insn_13(D)->fld[7].rtx
	jmp	.L352	#
.L353:
	.loc 1 1471 0
	movq	-16(%rbp), %rdx	# label, tmp122
	movq	-48(%rbp), %rax	# insn, tmp123
	movl	$13, %esi	#,
	movq	%rax, %rdi	# tmp123,
	call	find_reg_note	#
	testq	%rax, %rax	# D.13165
	jne	.L352	#,
	.loc 1 1472 0
	movq	-48(%rbp), %rax	# insn, tmp124
	movq	56(%rax), %rdx	# insn_13(D)->fld[6].rtx, D.13165
	movq	-16(%rbp), %rax	# label, tmp125
	movq	%rdx, %rcx	# D.13165,
	movq	%rax, %rdx	# tmp125,
	movl	$13, %esi	#,
	movl	$4, %edi	#,
	call	gen_rtx_fmt_ue	#
	movq	-48(%rbp), %rdx	# insn, tmp126
	movq	%rax, 56(%rdx)	# D.13165, insn_13(D)->fld[6].rtx
	.loc 1 1476 0
	jmp	.L335	#
.L352:
	jmp	.L335	#
.L337:
.LBE15:
	.loc 1 1483 0
	movq	-48(%rbp), %rax	# insn, tmp127
	movzbl	3(%rax), %eax	# *insn_13(D), D.13164
	andl	$8, %eax	#, D.13164
	testb	%al, %al	# D.13164
	jne	.L354	#,
.LBB16:
	.loc 1 1485 0
	cmpl	$45, -24(%rbp)	#, code
	sete	%al	#, D.13167
	movzbl	%al, %eax	# D.13167, tmp128
	movl	%eax, -20(%rbp)	# tmp128, eltnum
	.loc 1 1487 0
	movl	$0, -32(%rbp)	#, i
	jmp	.L355	#
.L356:
	.loc 1 1488 0 discriminator 2
	movq	-40(%rbp), %rax	# x, tmp129
	movl	-20(%rbp), %edx	# eltnum, tmp131
	movslq	%edx, %rdx	# tmp131, tmp130
	movq	8(%rax,%rdx,8), %rax	# x_5(D)->fld[eltnum_31].rtvec, D.13168
	movl	-32(%rbp), %edx	# i, tmp133
	movslq	%edx, %rdx	# tmp133, tmp132
	movq	8(%rax,%rdx,8), %rax	# _35->elem, D.13165
	movl	-52(%rbp), %edx	# in_mem, tmp134
	movl	$0, %esi	#,
	movq	%rax, %rdi	# D.13165,
	call	mark_jump_label	#
	.loc 1 1487 0 discriminator 2
	addl	$1, -32(%rbp)	#, i
.L355:
	.loc 1 1487 0 is_stmt 0 discriminator 1
	movq	-40(%rbp), %rax	# x, tmp135
	movl	-20(%rbp), %edx	# eltnum, tmp137
	movslq	%edx, %rdx	# tmp137, tmp136
	movq	8(%rax,%rdx,8), %rax	# x_5(D)->fld[eltnum_31].rtvec, D.13168
	movl	(%rax), %eax	# _33->num_elem, D.13166
	cmpl	-32(%rbp), %eax	# i, D.13166
	jg	.L356	#,
.L354:
.LBE16:
	.loc 1 1490 0 is_stmt 1
	jmp	.L335	#
.L363:
	.loc 1 1493 0
	nop
.L344:
	.loc 1 1496 0
	movl	-24(%rbp), %eax	# code, code.28
	cltq
	movq	rtx_format(,%rax,8), %rax	# rtx_format, tmp139
	movq	%rax, -8(%rbp)	# tmp139, fmt
	.loc 1 1497 0
	movl	-24(%rbp), %eax	# code, code.29
	cltq
	movzbl	rtx_length(%rax), %eax	# rtx_length, D.13164
	movzbl	%al, %eax	# D.13164, D.13166
	subl	$1, %eax	#, tmp141
	movl	%eax, -32(%rbp)	# tmp141, i
	jmp	.L357	#
.L362:
	.loc 1 1499 0
	movl	-32(%rbp), %eax	# i, tmp142
	movslq	%eax, %rdx	# tmp142, D.13169
	movq	-8(%rbp), %rax	# fmt, tmp143
	addq	%rdx, %rax	# D.13169, D.13170
	movzbl	(%rax), %eax	# *_45, D.13171
	cmpb	$101, %al	#, D.13171
	jne	.L358	#,
	.loc 1 1500 0
	movq	-40(%rbp), %rax	# x, tmp144
	movl	-32(%rbp), %edx	# i, tmp146
	movslq	%edx, %rdx	# tmp146, tmp145
	movq	8(%rax,%rdx,8), %rax	# x_5(D)->fld[i_3].rtx, D.13165
	movl	-52(%rbp), %edx	# in_mem, tmp147
	movq	-48(%rbp), %rcx	# insn, tmp148
	movq	%rcx, %rsi	# tmp148,
	movq	%rax, %rdi	# D.13165,
	call	mark_jump_label	#
	jmp	.L359	#
.L358:
	.loc 1 1501 0
	movl	-32(%rbp), %eax	# i, tmp149
	movslq	%eax, %rdx	# tmp149, D.13169
	movq	-8(%rbp), %rax	# fmt, tmp150
	addq	%rdx, %rax	# D.13169, D.13170
	movzbl	(%rax), %eax	# *_49, D.13171
	cmpb	$69, %al	#, D.13171
	jne	.L359	#,
.LBB17:
	.loc 1 1504 0
	movl	$0, -28(%rbp)	#, j
	jmp	.L360	#
.L361:
	.loc 1 1505 0 discriminator 2
	movq	-40(%rbp), %rax	# x, tmp151
	movl	-32(%rbp), %edx	# i, tmp153
	movslq	%edx, %rdx	# tmp153, tmp152
	movq	8(%rax,%rdx,8), %rax	# x_5(D)->fld[i_3].rtvec, D.13168
	movl	-28(%rbp), %edx	# j, tmp155
	movslq	%edx, %rdx	# tmp155, tmp154
	movq	8(%rax,%rdx,8), %rax	# _54->elem, D.13165
	movl	-52(%rbp), %edx	# in_mem, tmp156
	movq	-48(%rbp), %rcx	# insn, tmp157
	movq	%rcx, %rsi	# tmp157,
	movq	%rax, %rdi	# D.13165,
	call	mark_jump_label	#
	.loc 1 1504 0 discriminator 2
	addl	$1, -28(%rbp)	#, j
.L360:
	.loc 1 1504 0 is_stmt 0 discriminator 1
	movq	-40(%rbp), %rax	# x, tmp158
	movl	-32(%rbp), %edx	# i, tmp160
	movslq	%edx, %rdx	# tmp160, tmp159
	movq	8(%rax,%rdx,8), %rax	# x_5(D)->fld[i_3].rtvec, D.13168
	movl	(%rax), %eax	# _52->num_elem, D.13166
	cmpl	-28(%rbp), %eax	# j, D.13166
	jg	.L361	#,
.L359:
.LBE17:
	.loc 1 1497 0 is_stmt 1
	subl	$1, -32(%rbp)	#, i
.L357:
	.loc 1 1497 0 is_stmt 0 discriminator 1
	cmpl	$0, -32(%rbp)	#, i
	jns	.L362	#,
	jmp	.L335	#
.L364:
	.loc 1 1425 0 is_stmt 1
	nop
.L335:
	.loc 1 1508 0
	leave
	.cfi_def_cfa 7, 8
	ret
	.cfi_endproc
.LFE31:
	.size	mark_jump_label, .-mark_jump_label
	.globl	delete_jump
	.type	delete_jump, @function
delete_jump:
.LFB32:
	.loc 1 1517 0
	.cfi_startproc
	pushq	%rbp	#
	.cfi_def_cfa_offset 16
	.cfi_offset 6, -16
	movq	%rsp, %rbp	#,
	.cfi_def_cfa_register 6
	subq	$32, %rsp	#,
	movq	%rdi, -24(%rbp)	# insn, insn
	.loc 1 1518 0
	movq	-24(%rbp), %rax	# insn, tmp69
	movzwl	(%rax), %eax	# insn_3(D)->code, D.13172
	movzwl	%ax, %eax	# D.13172, D.13173
	cltq
	movzbl	rtx_class(%rax), %eax	# rtx_class, D.13174
	cmpb	$105, %al	#, D.13174
	jne	.L366	#,
	.loc 1 1518 0 is_stmt 0 discriminator 1
	movq	-24(%rbp), %rax	# insn, tmp71
	movq	32(%rax), %rax	# insn_3(D)->fld[3].rtx, D.13175
	movzwl	(%rax), %eax	# _7->code, D.13172
	cmpw	$47, %ax	#, D.13172
	jne	.L367	#,
	.loc 1 1518 0 discriminator 3
	movq	-24(%rbp), %rax	# insn, tmp72
	movq	32(%rax), %rax	# insn_3(D)->fld[3].rtx, iftmp.31
	jmp	.L369	#
.L367:
	.loc 1 1518 0 discriminator 4
	movq	-24(%rbp), %rax	# insn, tmp73
	movq	32(%rax), %rdx	# insn_3(D)->fld[3].rtx, D.13175
	movq	-24(%rbp), %rax	# insn, tmp74
	movq	%rdx, %rsi	# D.13175,
	movq	%rax, %rdi	# tmp74,
	call	single_set_2	#
	jmp	.L369	#
.L366:
	.loc 1 1518 0 discriminator 2
	movl	$0, %eax	#, iftmp.30
.L369:
	.loc 1 1518 0 discriminator 5
	movq	%rax, -8(%rbp)	# iftmp.30, set
	.loc 1 1520 0 is_stmt 1 discriminator 5
	cmpq	$0, -8(%rbp)	#, set
	je	.L365	#,
	.loc 1 1520 0 is_stmt 0 discriminator 1
	movq	-8(%rbp), %rax	# set, tmp75
	movq	8(%rax), %rax	# set_14->fld[0].rtx, D.13175
	movzwl	(%rax), %eax	# _15->code, D.13172
	cmpw	$59, %ax	#, D.13172
	jne	.L365	#,
	.loc 1 1521 0 is_stmt 1
	movq	-24(%rbp), %rax	# insn, tmp76
	movq	%rax, %rdi	# tmp76,
	call	delete_computation	#
.L365:
	.loc 1 1522 0
	leave
	.cfi_def_cfa 7, 8
	ret
	.cfi_endproc
.LFE32:
	.size	delete_jump, .-delete_jump
	.globl	delete_barrier
	.type	delete_barrier, @function
delete_barrier:
.LFB33:
	.loc 1 1529 0
	.cfi_startproc
	pushq	%rbp	#
	.cfi_def_cfa_offset 16
	.cfi_offset 6, -16
	movq	%rsp, %rbp	#,
	.cfi_def_cfa_register 6
	subq	$16, %rsp	#,
	movq	%rdi, -8(%rbp)	# insn, insn
	.loc 1 1530 0
	movq	-8(%rbp), %rax	# insn, tmp60
	movzwl	(%rax), %eax	# insn_1(D)->code, D.13176
	cmpw	$35, %ax	#, D.13176
	je	.L372	#,
	.loc 1 1531 0
	movl	$__FUNCTION__.11139, %edx	#,
	movl	$1531, %esi	#,
	movl	$.LC0, %edi	#,
	call	fancy_abort	#
.L372:
	.loc 1 1533 0
	movq	-8(%rbp), %rax	# insn, tmp61
	movq	%rax, %rdi	# tmp61,
	call	delete_insn	#
	.loc 1 1534 0
	leave
	.cfi_def_cfa 7, 8
	ret
	.cfi_endproc
.LFE33:
	.size	delete_barrier, .-delete_barrier
	.type	delete_prior_computation, @function
delete_prior_computation:
.LFB34:
	.loc 1 1544 0
	.cfi_startproc
	pushq	%rbp	#
	.cfi_def_cfa_offset 16
	.cfi_offset 6, -16
	movq	%rsp, %rbp	#,
	.cfi_def_cfa_register 6
	pushq	%rbx	#
	subq	$88, %rsp	#,
	.cfi_offset 3, -24
	movq	%rdi, -88(%rbp)	# note, note
	movq	%rsi, -96(%rbp)	# insn, insn
	.loc 1 1546 0
	movq	-88(%rbp), %rax	# note, tmp161
	movq	8(%rax), %rax	# note_22(D)->fld[0].rtx, tmp162
	movq	%rax, -40(%rbp)	# tmp162, reg
	.loc 1 1548 0
	movq	-96(%rbp), %rax	# insn, tmp163
	movq	%rax, %rdi	# tmp163,
	call	prev_nonnote_insn	#
	movq	%rax, -48(%rbp)	# tmp164, our_prev
	jmp	.L374	#
.L440:
.LBB18:
	.loc 1 1553 0
	movq	-48(%rbp), %rax	# our_prev, tmp165
	movq	32(%rax), %rax	# our_prev_1->fld[3].rtx, tmp166
	movq	%rax, -32(%rbp)	# tmp166, pat
	.loc 1 1557 0
	movq	-48(%rbp), %rax	# our_prev, tmp167
	movzwl	(%rax), %eax	# our_prev_1->code, D.13177
	cmpw	$34, %ax	#, D.13177
	jne	.L375	#,
	.loc 1 1558 0
	movq	-48(%rbp), %rax	# our_prev, tmp168
	movzbl	3(%rax), %eax	# *our_prev_1, D.13178
	andl	$4, %eax	#, D.13178
	testb	%al, %al	# D.13178
	je	.L373	#,
	.loc 1 1559 0
	movq	-32(%rbp), %rax	# pat, tmp169
	movzwl	(%rax), %eax	# pat_28->code, D.13177
	cmpw	$47, %ax	#, D.13177
	jne	.L373	#,
	.loc 1 1559 0 is_stmt 0 discriminator 1
	movq	-32(%rbp), %rax	# pat, tmp170
	movq	16(%rax), %rax	# pat_28->fld[1].rtx, D.13179
	movzwl	(%rax), %eax	# _33->code, D.13177
	cmpw	$50, %ax	#, D.13177
	jne	.L373	#,
.L375:
	.loc 1 1564 0 is_stmt 1
	movq	-32(%rbp), %rax	# pat, tmp171
	movzwl	(%rax), %eax	# pat_28->code, D.13177
	cmpw	$24, %ax	#, D.13177
	jne	.L377	#,
	.loc 1 1565 0
	jmp	.L373	#
.L377:
	.loc 1 1567 0
	movq	-32(%rbp), %rax	# pat, tmp172
	movzwl	(%rax), %eax	# pat_28->code, D.13177
	cmpw	$48, %ax	#, D.13177
	jne	.L378	#,
	.loc 1 1568 0
	movq	-32(%rbp), %rax	# pat, tmp173
	movq	8(%rax), %rax	# pat_28->fld[0].rtx, D.13179
	movzwl	(%rax), %eax	# _37->code, D.13177
	cmpw	$32, %ax	#, D.13177
	jne	.L378	#,
	.loc 1 1571 0
	jmp	.L373	#
.L378:
	.loc 1 1573 0
	movq	-32(%rbp), %rdx	# pat, tmp174
	movq	-40(%rbp), %rax	# reg, tmp175
	movq	%rdx, %rsi	# tmp174,
	movq	%rax, %rdi	# tmp175,
	call	reg_set_p	#
	testl	%eax, %eax	# D.13180
	je	.L379	#,
	.loc 1 1575 0
	movq	-32(%rbp), %rax	# pat, tmp176
	movq	%rax, %rdi	# tmp176,
	call	side_effects_p	#
	testl	%eax, %eax	# D.13180
	je	.L380	#,
	.loc 1 1575 0 is_stmt 0 discriminator 1
	movq	-48(%rbp), %rax	# our_prev, tmp177
	movzwl	(%rax), %eax	# our_prev_1->code, D.13177
	cmpw	$34, %ax	#, D.13177
	je	.L380	#,
	.loc 1 1576 0 is_stmt 1
	jmp	.L373	#
.L380:
	.loc 1 1578 0
	movq	-32(%rbp), %rax	# pat, tmp178
	movzwl	(%rax), %eax	# pat_28->code, D.13177
	cmpw	$39, %ax	#, D.13177
	jne	.L381	#,
.LBB19:
	.loc 1 1585 0
	movl	$0, -72(%rbp)	#, i
	jmp	.L382	#
.L385:
.LBB20:
	.loc 1 1587 0
	movq	-32(%rbp), %rax	# pat, tmp179
	movq	8(%rax), %rax	# pat_28->fld[0].rtvec, D.13181
	movl	-72(%rbp), %edx	# i, tmp181
	movslq	%edx, %rdx	# tmp181, tmp180
	movq	8(%rax,%rdx,8), %rax	# _46->elem, tmp182
	movq	%rax, -24(%rbp)	# tmp182, part
	.loc 1 1589 0
	movq	-24(%rbp), %rax	# part, tmp183
	movzwl	(%rax), %eax	# part_47->code, D.13177
	cmpw	$47, %ax	#, D.13177
	jne	.L383	#,
	.loc 1 1590 0
	movq	-24(%rbp), %rax	# part, tmp184
	movq	8(%rax), %rax	# part_47->fld[0].rtx, D.13179
	cmpq	-40(%rbp), %rax	# reg, D.13179
	je	.L383	#,
	.loc 1 1591 0
	jmp	.L384	#
.L383:
.LBE20:
	.loc 1 1585 0
	addl	$1, -72(%rbp)	#, i
.L382:
	.loc 1 1585 0 is_stmt 0 discriminator 1
	movq	-32(%rbp), %rax	# pat, tmp185
	movq	8(%rax), %rax	# pat_28->fld[0].rtvec, D.13181
	movl	(%rax), %eax	# _44->num_elem, D.13180
	cmpl	-72(%rbp), %eax	# i, D.13180
	jg	.L385	#,
.L384:
	.loc 1 1594 0 is_stmt 1
	movq	-32(%rbp), %rax	# pat, tmp186
	movq	8(%rax), %rax	# pat_28->fld[0].rtvec, D.13181
	movl	(%rax), %eax	# _51->num_elem, D.13180
	cmpl	-72(%rbp), %eax	# i, D.13180
	jne	.L386	#,
	.loc 1 1595 0
	movq	-48(%rbp), %rax	# our_prev, tmp187
	movq	%rax, %rdi	# tmp187,
	call	delete_computation	#
.LBE19:
	jmp	.L387	#
.L386:
	jmp	.L387	#
.L381:
	.loc 1 1597 0
	movq	-32(%rbp), %rax	# pat, tmp188
	movzwl	(%rax), %eax	# pat_28->code, D.13177
	cmpw	$47, %ax	#, D.13177
	jne	.L387	#,
	.loc 1 1598 0
	movq	-32(%rbp), %rax	# pat, tmp189
	movq	8(%rax), %rax	# pat_28->fld[0].rtx, D.13179
	movzwl	(%rax), %eax	# _54->code, D.13177
	cmpw	$61, %ax	#, D.13177
	jne	.L387	#,
.LBB21:
	.loc 1 1600 0
	movq	-32(%rbp), %rax	# pat, tmp190
	movq	8(%rax), %rax	# pat_28->fld[0].rtx, D.13179
	movl	8(%rax), %eax	# _56->fld[0].rtuint, D.13182
	movl	%eax, -64(%rbp)	# D.13182, dest_regno
	.loc 1 1605 0
	cmpl	$52, -64(%rbp)	#, dest_regno
	jg	.L388	#,
	.loc 1 1604 0
	cmpl	$7, -64(%rbp)	#, dest_regno
	jle	.L389	#,
	.loc 1 1604 0 is_stmt 0 discriminator 1
	cmpl	$15, -64(%rbp)	#, dest_regno
	jle	.L390	#,
.L389:
	.loc 1 1604 0 discriminator 2
	cmpl	$20, -64(%rbp)	#, dest_regno
	jle	.L391	#,
	.loc 1 1604 0 discriminator 1
	cmpl	$28, -64(%rbp)	#, dest_regno
	jle	.L390	#,
.L391:
	.loc 1 1604 0 discriminator 2
	cmpl	$44, -64(%rbp)	#, dest_regno
	jle	.L392	#,
	.loc 1 1604 0 discriminator 1
	cmpl	$52, -64(%rbp)	#, dest_regno
	jle	.L390	#,
.L392:
	.loc 1 1604 0 discriminator 2
	cmpl	$28, -64(%rbp)	#, dest_regno
	jle	.L393	#,
	.loc 1 1604 0 discriminator 1
	cmpl	$36, -64(%rbp)	#, dest_regno
	jg	.L393	#,
.L390:
	movq	-32(%rbp), %rax	# pat, tmp191
	movq	8(%rax), %rax	# pat_28->fld[0].rtx, D.13179
	movzbl	2(%rax), %eax	# _91->mode, D.13178
	movzbl	%al, %eax	# D.13178, D.13180
	cltq
	movl	mode_class(,%rax,4), %eax	# mode_class, D.13183
	cmpl	$5, %eax	#, D.13183
	je	.L394	#,
	.loc 1 1604 0 discriminator 2
	movq	-32(%rbp), %rax	# pat, tmp193
	movq	8(%rax), %rax	# pat_28->fld[0].rtx, D.13179
	movzbl	2(%rax), %eax	# _95->mode, D.13178
	movzbl	%al, %eax	# D.13178, D.13180
	cltq
	movl	mode_class(,%rax,4), %eax	# mode_class, D.13183
	cmpl	$6, %eax	#, D.13183
	jne	.L395	#,
.L394:
	.loc 1 1604 0 discriminator 1
	movl	$2, %eax	#, iftmp.34
	jmp	.L396	#
.L395:
	movl	$1, %eax	#, iftmp.34
.L396:
	.loc 1 1604 0 discriminator 3
	jmp	.L397	#
.L393:
	.loc 1 1604 0 discriminator 2
	movq	-32(%rbp), %rax	# pat, tmp195
	movq	8(%rax), %rax	# pat_28->fld[0].rtx, D.13179
	movzbl	2(%rax), %eax	# _59->mode, D.13178
	cmpb	$18, %al	#, D.13178
	jne	.L398	#,
	.loc 1 1604 0 discriminator 1
	movl	target_flags(%rip), %eax	# target_flags, target_flags.37
	andl	$33554432, %eax	#, D.13180
	testl	%eax, %eax	# D.13180
	je	.L399	#,
	movl	$2, %eax	#, iftmp.36
	jmp	.L410	#
.L399:
	.loc 1 1604 0 discriminator 2
	movl	$3, %eax	#, iftmp.36
	jmp	.L410	#
.L398:
	movq	-32(%rbp), %rax	# pat, tmp196
	movq	8(%rax), %rax	# pat_28->fld[0].rtx, D.13179
	movzbl	2(%rax), %eax	# _66->mode, D.13178
	cmpb	$24, %al	#, D.13178
	jne	.L402	#,
	.loc 1 1604 0 discriminator 1
	movl	target_flags(%rip), %eax	# target_flags, target_flags.40
	andl	$33554432, %eax	#, D.13180
	testl	%eax, %eax	# D.13180
	je	.L403	#,
	movl	$4, %eax	#, iftmp.39
	jmp	.L410	#
.L403:
	.loc 1 1604 0 discriminator 2
	movl	$6, %eax	#, iftmp.39
	jmp	.L410	#
.L402:
	movq	-32(%rbp), %rax	# pat, tmp197
	movq	8(%rax), %rax	# pat_28->fld[0].rtx, D.13179
	movzbl	2(%rax), %eax	# _73->mode, D.13178
	movzbl	%al, %eax	# D.13178, D.13180
	cltq
	movzbl	mode_size(%rax), %eax	# mode_size, D.13178
	movzbl	%al, %edx	# D.13178, D.13180
	movl	target_flags(%rip), %eax	# target_flags, target_flags.42
	andl	$33554432, %eax	#, D.13180
	testl	%eax, %eax	# D.13180
	je	.L406	#,
	.loc 1 1604 0 discriminator 1
	movl	$8, %eax	#, iftmp.41
	jmp	.L407	#
.L406:
	.loc 1 1604 0 discriminator 2
	movl	$4, %eax	#, iftmp.41
.L407:
	.loc 1 1604 0 discriminator 3
	addl	%edx, %eax	# D.13180, D.13180
	subl	$1, %eax	#, D.13180
	movl	target_flags(%rip), %edx	# target_flags, target_flags.44
	andl	$33554432, %edx	#, D.13180
	testl	%edx, %edx	# D.13180
	je	.L408	#,
	.loc 1 1604 0 discriminator 1
	movl	$8, %ebx	#, iftmp.43
	jmp	.L409	#
.L408:
	.loc 1 1604 0 discriminator 2
	movl	$4, %ebx	#, iftmp.43
.L409:
	.loc 1 1604 0 discriminator 3
	cltd
	idivl	%ebx	# iftmp.43
.L397:
	jmp	.L410	#
.L388:
	.loc 1 1605 0 is_stmt 1 discriminator 1
	movl	$1, %eax	#, iftmp.32
.L410:
	.loc 1 1601 0
	movl	-64(%rbp), %edx	# dest_regno, tmp204
	addl	%edx, %eax	# tmp204, tmp203
	movl	%eax, -60(%rbp)	# tmp203, dest_endregno
	.loc 1 1606 0
	movq	-40(%rbp), %rax	# reg, tmp205
	movl	8(%rax), %eax	# reg_23->fld[0].rtuint, D.13182
	movl	%eax, -56(%rbp)	# D.13182, regno
	.loc 1 1610 0
	cmpl	$52, -56(%rbp)	#, regno
	jg	.L411	#,
	.loc 1 1610 0 is_stmt 0 discriminator 1
	cmpl	$7, -56(%rbp)	#, regno
	jle	.L412	#,
	cmpl	$15, -56(%rbp)	#, regno
	jle	.L413	#,
.L412:
	.loc 1 1610 0 discriminator 2
	cmpl	$20, -56(%rbp)	#, regno
	jle	.L414	#,
	.loc 1 1610 0 discriminator 1
	cmpl	$28, -56(%rbp)	#, regno
	jle	.L413	#,
.L414:
	.loc 1 1610 0 discriminator 2
	cmpl	$44, -56(%rbp)	#, regno
	jle	.L415	#,
	.loc 1 1610 0 discriminator 1
	cmpl	$52, -56(%rbp)	#, regno
	jle	.L413	#,
.L415:
	.loc 1 1610 0 discriminator 2
	cmpl	$28, -56(%rbp)	#, regno
	jle	.L416	#,
	.loc 1 1610 0 discriminator 1
	cmpl	$36, -56(%rbp)	#, regno
	jg	.L416	#,
.L413:
	movq	-40(%rbp), %rax	# reg, tmp206
	movzbl	2(%rax), %eax	# reg_23->mode, D.13178
	movzbl	%al, %eax	# D.13178, D.13180
	cltq
	movl	mode_class(,%rax,4), %eax	# mode_class, D.13183
	cmpl	$5, %eax	#, D.13183
	je	.L417	#,
	.loc 1 1610 0 discriminator 2
	movq	-40(%rbp), %rax	# reg, tmp208
	movzbl	2(%rax), %eax	# reg_23->mode, D.13178
	movzbl	%al, %eax	# D.13178, D.13180
	cltq
	movl	mode_class(,%rax,4), %eax	# mode_class, D.13183
	cmpl	$6, %eax	#, D.13183
	jne	.L418	#,
.L417:
	.loc 1 1610 0 discriminator 1
	movl	$2, %eax	#, iftmp.47
	jmp	.L419	#
.L418:
	movl	$1, %eax	#, iftmp.47
.L419:
	.loc 1 1610 0 discriminator 3
	jmp	.L420	#
.L416:
	.loc 1 1610 0 discriminator 2
	movq	-40(%rbp), %rax	# reg, tmp210
	movzbl	2(%rax), %eax	# reg_23->mode, D.13178
	cmpb	$18, %al	#, D.13178
	jne	.L421	#,
	.loc 1 1610 0 discriminator 1
	movl	target_flags(%rip), %eax	# target_flags, target_flags.50
	andl	$33554432, %eax	#, D.13180
	testl	%eax, %eax	# D.13180
	je	.L422	#,
	movl	$2, %eax	#, iftmp.49
	jmp	.L433	#
.L422:
	.loc 1 1610 0 discriminator 2
	movl	$3, %eax	#, iftmp.49
	jmp	.L433	#
.L421:
	movq	-40(%rbp), %rax	# reg, tmp211
	movzbl	2(%rax), %eax	# reg_23->mode, D.13178
	cmpb	$24, %al	#, D.13178
	jne	.L425	#,
	.loc 1 1610 0 discriminator 1
	movl	target_flags(%rip), %eax	# target_flags, target_flags.53
	andl	$33554432, %eax	#, D.13180
	testl	%eax, %eax	# D.13180
	je	.L426	#,
	movl	$4, %eax	#, iftmp.52
	jmp	.L433	#
.L426:
	.loc 1 1610 0 discriminator 2
	movl	$6, %eax	#, iftmp.52
	jmp	.L433	#
.L425:
	movq	-40(%rbp), %rax	# reg, tmp212
	movzbl	2(%rax), %eax	# reg_23->mode, D.13178
	movzbl	%al, %eax	# D.13178, D.13180
	cltq
	movzbl	mode_size(%rax), %eax	# mode_size, D.13178
	movzbl	%al, %edx	# D.13178, D.13180
	movl	target_flags(%rip), %eax	# target_flags, target_flags.55
	andl	$33554432, %eax	#, D.13180
	testl	%eax, %eax	# D.13180
	je	.L429	#,
	.loc 1 1610 0 discriminator 1
	movl	$8, %eax	#, iftmp.54
	jmp	.L430	#
.L429:
	.loc 1 1610 0 discriminator 2
	movl	$4, %eax	#, iftmp.54
.L430:
	.loc 1 1610 0 discriminator 3
	addl	%edx, %eax	# D.13180, D.13180
	subl	$1, %eax	#, D.13180
	movl	target_flags(%rip), %edx	# target_flags, target_flags.57
	andl	$33554432, %edx	#, D.13180
	testl	%edx, %edx	# D.13180
	je	.L431	#,
	.loc 1 1610 0 discriminator 1
	movl	$8, %ecx	#, iftmp.56
	jmp	.L432	#
.L431:
	.loc 1 1610 0 discriminator 2
	movl	$4, %ecx	#, iftmp.56
.L432:
	.loc 1 1610 0 discriminator 3
	cltd
	idivl	%ecx	# iftmp.56
.L420:
	jmp	.L433	#
.L411:
	.loc 1 1610 0 discriminator 2
	movl	$1, %eax	#, iftmp.45
.L433:
	.loc 1 1607 0 is_stmt 1
	movl	-56(%rbp), %edx	# regno, tmp219
	addl	%edx, %eax	# tmp219, tmp218
	movl	%eax, -52(%rbp)	# tmp218, endregno
	.loc 1 1612 0
	movl	-64(%rbp), %eax	# dest_regno, tmp220
	cmpl	-56(%rbp), %eax	# regno, tmp220
	jl	.L434	#,
	.loc 1 1613 0
	movl	-60(%rbp), %eax	# dest_endregno, tmp221
	cmpl	-52(%rbp), %eax	# endregno, tmp221
	jg	.L434	#,
	.loc 1 1614 0
	movq	-48(%rbp), %rax	# our_prev, tmp222
	movq	%rax, %rdi	# tmp222,
	call	delete_computation	#
	jmp	.L387	#
.L434:
	.loc 1 1620 0
	movl	-64(%rbp), %eax	# dest_regno, tmp223
	cmpl	-56(%rbp), %eax	# regno, tmp223
	jg	.L387	#,
	.loc 1 1621 0
	movl	-60(%rbp), %eax	# dest_endregno, tmp224
	cmpl	-52(%rbp), %eax	# endregno, tmp224
	jl	.L387	#,
.LBB22:
	.loc 1 1626 0
	movq	-48(%rbp), %rax	# our_prev, tmp225
	movq	56(%rax), %rdx	# our_prev_1->fld[6].rtx, D.13179
	movq	-40(%rbp), %rax	# reg, tmp226
	movq	%rdx, %rcx	# D.13179,
	movq	%rax, %rdx	# tmp226,
	movl	$10, %esi	#,
	movl	$3, %edi	#,
	call	gen_rtx_fmt_ee	#
	movq	-48(%rbp), %rdx	# our_prev, tmp227
	movq	%rax, 56(%rdx)	# D.13179, our_prev_1->fld[6].rtx
	.loc 1 1629 0
	movl	-64(%rbp), %eax	# dest_regno, tmp228
	movl	%eax, -68(%rbp)	# tmp228, i
	jmp	.L435	#
.L438:
	.loc 1 1630 0
	movl	-68(%rbp), %edx	# i, i.58
	movq	-48(%rbp), %rax	# our_prev, tmp229
	movl	$10, %esi	#,
	movq	%rax, %rdi	# tmp229,
	call	find_regno_note	#
	testq	%rax, %rax	# D.13179
	jne	.L436	#,
	.loc 1 1631 0
	jmp	.L437	#
.L436:
	.loc 1 1629 0
	addl	$1, -68(%rbp)	#, i
.L435:
	.loc 1 1629 0 is_stmt 0 discriminator 1
	movl	-68(%rbp), %eax	# i, tmp230
	cmpl	-60(%rbp), %eax	# dest_endregno, tmp230
	jl	.L438	#,
.L437:
	.loc 1 1633 0 is_stmt 1
	movl	-68(%rbp), %eax	# i, tmp231
	cmpl	-60(%rbp), %eax	# dest_endregno, tmp231
	jne	.L387	#,
	.loc 1 1634 0
	movq	-48(%rbp), %rax	# our_prev, tmp232
	movq	%rax, %rdi	# tmp232,
	call	delete_computation	#
.LBE22:
.LBE21:
	.loc 1 1638 0
	jmp	.L373	#
.L387:
	jmp	.L373	#
.L379:
	.loc 1 1644 0
	movq	-32(%rbp), %rdx	# pat, tmp233
	movq	-40(%rbp), %rax	# reg, tmp234
	movq	%rdx, %rsi	# tmp233,
	movq	%rax, %rdi	# tmp234,
	call	reg_overlap_mentioned_p	#
	testl	%eax, %eax	# D.13180
	je	.L439	#,
	.loc 1 1646 0
	movq	-48(%rbp), %rax	# our_prev, tmp235
	movq	56(%rax), %rdx	# our_prev_1->fld[6].rtx, D.13179
	movq	-88(%rbp), %rax	# note, tmp236
	movq	%rdx, 16(%rax)	# D.13179, note_22(D)->fld[1].rtx
	.loc 1 1647 0
	movq	-48(%rbp), %rax	# our_prev, tmp237
	movq	-88(%rbp), %rdx	# note, tmp238
	movq	%rdx, 56(%rax)	# tmp238, our_prev_1->fld[6].rtx
	.loc 1 1648 0
	jmp	.L373	#
.L439:
.LBE18:
	.loc 1 1551 0
	movq	-48(%rbp), %rax	# our_prev, tmp239
	movq	%rax, %rdi	# tmp239,
	call	prev_nonnote_insn	#
	movq	%rax, -48(%rbp)	# tmp240, our_prev
.L374:
	.loc 1 1548 0 discriminator 1
	cmpq	$0, -48(%rbp)	#, our_prev
	je	.L373	#,
	.loc 1 1549 0
	movq	-48(%rbp), %rax	# our_prev, tmp241
	movzwl	(%rax), %eax	# our_prev_1->code, D.13177
	cmpw	$32, %ax	#, D.13177
	je	.L440	#,
	.loc 1 1550 0
	movq	-48(%rbp), %rax	# our_prev, tmp242
	movzwl	(%rax), %eax	# our_prev_1->code, D.13177
	cmpw	$34, %ax	#, D.13177
	je	.L440	#,
.L373:
	.loc 1 1651 0
	addq	$88, %rsp	#,
	popq	%rbx	#
	popq	%rbp	#
	.cfi_def_cfa 7, 8
	ret
	.cfi_endproc
.LFE34:
	.size	delete_prior_computation, .-delete_prior_computation
	.type	delete_computation, @function
delete_computation:
.LFB35:
	.loc 1 1669 0
	.cfi_startproc
	pushq	%rbp	#
	.cfi_def_cfa_offset 16
	.cfi_offset 6, -16
	movq	%rsp, %rbp	#,
	.cfi_def_cfa_register 6
	subq	$32, %rsp	#,
	movq	%rdi, -24(%rbp)	# insn, insn
	.loc 1 1696 0
	movq	-24(%rbp), %rax	# insn, tmp62
	movq	56(%rax), %rax	# insn_2(D)->fld[6].rtx, tmp63
	movq	%rax, -16(%rbp)	# tmp63, note
	jmp	.L442	#
.L446:
	.loc 1 1698 0
	movq	-16(%rbp), %rax	# note, tmp64
	movq	16(%rax), %rax	# note_1->fld[1].rtx, tmp65
	movq	%rax, -8(%rbp)	# tmp65, next
	.loc 1 1700 0
	movq	-16(%rbp), %rax	# note, tmp66
	movzbl	2(%rax), %eax	# note_1->mode, D.13184
	cmpb	$1, %al	#, D.13184
	jne	.L443	#,
	.loc 1 1702 0
	movq	-16(%rbp), %rax	# note, tmp67
	movq	8(%rax), %rax	# note_1->fld[0].rtx, D.13185
	movzwl	(%rax), %eax	# _6->code, D.13186
	cmpw	$61, %ax	#, D.13186
	je	.L444	#,
.L443:
	.loc 1 1703 0
	jmp	.L445	#
.L444:
	.loc 1 1705 0
	movq	-24(%rbp), %rdx	# insn, tmp68
	movq	-16(%rbp), %rax	# note, tmp69
	movq	%rdx, %rsi	# tmp68,
	movq	%rax, %rdi	# tmp69,
	call	delete_prior_computation	#
.L445:
	.loc 1 1696 0
	movq	-8(%rbp), %rax	# next, tmp70
	movq	%rax, -16(%rbp)	# tmp70, note
.L442:
	.loc 1 1696 0 is_stmt 0 discriminator 1
	cmpq	$0, -16(%rbp)	#, note
	jne	.L446	#,
	.loc 1 1708 0 is_stmt 1
	movq	-24(%rbp), %rax	# insn, tmp71
	movq	%rax, %rdi	# tmp71,
	call	delete_related_insns	#
	.loc 1 1709 0
	leave
	.cfi_def_cfa 7, 8
	ret
	.cfi_endproc
.LFE35:
	.size	delete_computation, .-delete_computation
	.globl	delete_related_insns
	.type	delete_related_insns, @function
delete_related_insns:
.LFB36:
	.loc 1 1722 0
	.cfi_startproc
	pushq	%rbp	#
	.cfi_def_cfa_offset 16
	.cfi_offset 6, -16
	movq	%rsp, %rbp	#,
	.cfi_def_cfa_register 6
	subq	$96, %rsp	#,
	movq	%rdi, -88(%rbp)	# insn, insn
	.loc 1 1723 0
	movq	-88(%rbp), %rax	# insn, tmp125
	movzwl	(%rax), %eax	# insn_11(D)->code, D.13188
	cmpw	$36, %ax	#, D.13188
	sete	%al	#, D.13189
	movzbl	%al, %eax	# D.13189, tmp126
	movl	%eax, -64(%rbp)	# tmp126, was_code_label
	.loc 1 1725 0
	movq	-88(%rbp), %rax	# insn, tmp127
	movq	24(%rax), %rax	# insn_11(D)->fld[2].rtx, tmp128
	movq	%rax, -40(%rbp)	# tmp128, next
	movq	-88(%rbp), %rax	# insn, tmp129
	movq	16(%rax), %rax	# insn_11(D)->fld[1].rtx, tmp130
	movq	%rax, -32(%rbp)	# tmp130, prev
	.loc 1 1727 0
	jmp	.L448	#
.L450:
	.loc 1 1728 0
	movq	-40(%rbp), %rax	# next, tmp131
	movq	24(%rax), %rax	# next_2->fld[2].rtx, tmp132
	movq	%rax, -40(%rbp)	# tmp132, next
.L448:
	.loc 1 1727 0 discriminator 1
	cmpq	$0, -40(%rbp)	#, next
	je	.L449	#,
	.loc 1 1727 0 is_stmt 0 discriminator 2
	movq	-40(%rbp), %rax	# next, tmp133
	movzbl	3(%rax), %eax	# *next_2, D.13190
	andl	$8, %eax	#, D.13190
	testb	%al, %al	# D.13190
	jne	.L450	#,
.L449:
	.loc 1 1731 0 is_stmt 1
	movq	-88(%rbp), %rax	# insn, tmp134
	movzbl	3(%rax), %eax	# *insn_11(D), D.13190
	andl	$8, %eax	#, D.13190
	testb	%al, %al	# D.13190
	je	.L451	#,
	.loc 1 1732 0
	movq	-40(%rbp), %rax	# next, D.13187
	jmp	.L452	#
.L451:
	.loc 1 1734 0
	movq	-88(%rbp), %rax	# insn, tmp135
	movq	%rax, %rdi	# tmp135,
	call	delete_insn	#
	.loc 1 1739 0
	cmpq	$0, -40(%rbp)	#, next
	je	.L453	#,
	.loc 1 1739 0 is_stmt 0 discriminator 1
	movq	-40(%rbp), %rax	# next, tmp136
	movzwl	(%rax), %eax	# next_2->code, D.13188
	cmpw	$35, %ax	#, D.13188
	jne	.L453	#,
	.loc 1 1740 0 is_stmt 1
	movq	-40(%rbp), %rax	# next, tmp137
	movq	%rax, %rdi	# tmp137,
	call	delete_insn	#
.L453:
	.loc 1 1745 0
	movq	-88(%rbp), %rax	# insn, tmp138
	movzwl	(%rax), %eax	# insn_11(D)->code, D.13188
	cmpw	$33, %ax	#, D.13188
	jne	.L454	#,
	.loc 1 1745 0 is_stmt 0 discriminator 1
	movq	-88(%rbp), %rax	# insn, tmp139
	movq	64(%rax), %rax	# insn_11(D)->fld[7].rtx, D.13191
	testq	%rax, %rax	# D.13191
	je	.L454	#,
.LBB23:
	.loc 1 1747 0 is_stmt 1
	movq	-88(%rbp), %rax	# insn, tmp140
	movq	64(%rax), %rax	# insn_11(D)->fld[7].rtx, tmp141
	movq	%rax, -24(%rbp)	# tmp141, lab
	.loc 1 1749 0
	movq	-24(%rbp), %rax	# lab, tmp142
	movl	32(%rax), %eax	# lab_26->fld[3].rtint, D.13192
	testl	%eax, %eax	# D.13192
	jne	.L455	#,
	.loc 1 1754 0
	movq	-24(%rbp), %rax	# lab, tmp143
	movq	%rax, %rdi	# tmp143,
	call	delete_related_insns	#
	.loc 1 1760 0
	jmp	.L456	#
.L458:
	.loc 1 1761 0
	movq	-40(%rbp), %rax	# next, tmp144
	movq	24(%rax), %rax	# next_3->fld[2].rtx, tmp145
	movq	%rax, -40(%rbp)	# tmp145, next
.L456:
	.loc 1 1760 0 discriminator 1
	cmpq	$0, -40(%rbp)	#, next
	je	.L457	#,
	.loc 1 1760 0 is_stmt 0 discriminator 2
	movq	-40(%rbp), %rax	# next, tmp146
	movzbl	3(%rax), %eax	# *next_3, D.13190
	andl	$8, %eax	#, D.13190
	testb	%al, %al	# D.13190
	jne	.L458	#,
.L457:
	.loc 1 1762 0 is_stmt 1
	movq	-40(%rbp), %rax	# next, D.13187
	jmp	.L452	#
.L455:
	.loc 1 1764 0
	movq	-24(%rbp), %rax	# lab, tmp147
	movq	%rax, %rdi	# tmp147,
	call	next_nonnote_insn	#
	movq	%rax, -16(%rbp)	# tmp148, lab_next
	cmpq	$0, -16(%rbp)	#, lab_next
	je	.L454	#,
	.loc 1 1765 0
	movq	-16(%rbp), %rax	# lab_next, tmp149
	movzwl	(%rax), %eax	# lab_next_32->code, D.13188
	cmpw	$33, %ax	#, D.13188
	jne	.L454	#,
	.loc 1 1766 0
	movq	-16(%rbp), %rax	# lab_next, tmp150
	movq	32(%rax), %rax	# lab_next_32->fld[3].rtx, D.13191
	movzwl	(%rax), %eax	# _34->code, D.13188
	cmpw	$44, %ax	#, D.13188
	je	.L459	#,
	.loc 1 1767 0
	movq	-16(%rbp), %rax	# lab_next, tmp151
	movq	32(%rax), %rax	# lab_next_32->fld[3].rtx, D.13191
	movzwl	(%rax), %eax	# _36->code, D.13188
	cmpw	$45, %ax	#, D.13188
	jne	.L454	#,
.L459:
	.loc 1 1773 0
	movq	-16(%rbp), %rax	# lab_next, tmp152
	movq	%rax, %rdi	# tmp152,
	call	delete_related_insns	#
.L454:
.LBE23:
	.loc 1 1779 0
	movq	-88(%rbp), %rax	# insn, tmp153
	movzwl	(%rax), %eax	# insn_11(D)->code, D.13188
	cmpw	$33, %ax	#, D.13188
	jne	.L460	#,
	.loc 1 1780 0
	movq	-88(%rbp), %rax	# insn, tmp154
	movq	32(%rax), %rax	# insn_11(D)->fld[3].rtx, D.13191
	movzwl	(%rax), %eax	# _39->code, D.13188
	cmpw	$44, %ax	#, D.13188
	je	.L461	#,
	.loc 1 1781 0
	movq	-88(%rbp), %rax	# insn, tmp155
	movq	32(%rax), %rax	# insn_11(D)->fld[3].rtx, D.13191
	movzwl	(%rax), %eax	# _41->code, D.13188
	cmpw	$45, %ax	#, D.13188
	jne	.L460	#,
.L461:
.LBB24:
	.loc 1 1783 0
	movq	-88(%rbp), %rax	# insn, tmp156
	movq	32(%rax), %rax	# insn_11(D)->fld[3].rtx, tmp157
	movq	%rax, -8(%rbp)	# tmp157, pat
	.loc 1 1784 0
	movq	-8(%rbp), %rax	# pat, tmp158
	movzwl	(%rax), %eax	# pat_43->code, D.13188
	cmpw	$45, %ax	#, D.13188
	sete	%al	#, D.13189
	movzbl	%al, %eax	# D.13189, tmp159
	movl	%eax, -60(%rbp)	# tmp159, diff_vec_p
	.loc 1 1785 0
	movq	-8(%rbp), %rax	# pat, tmp160
	movl	-60(%rbp), %edx	# diff_vec_p, tmp162
	movslq	%edx, %rdx	# tmp162, tmp161
	movq	8(%rax,%rdx,8), %rax	# pat_43->fld[diff_vec_p_46].rtvec, D.13193
	movl	(%rax), %eax	# _47->num_elem, tmp163
	movl	%eax, -56(%rbp)	# tmp163, len
	.loc 1 1787 0
	movl	$0, -68(%rbp)	#, i
	jmp	.L462	#
.L464:
	.loc 1 1788 0
	movq	-8(%rbp), %rax	# pat, tmp164
	movl	-60(%rbp), %edx	# diff_vec_p, tmp166
	movslq	%edx, %rdx	# tmp166, tmp165
	movq	8(%rax,%rdx,8), %rax	# pat_43->fld[diff_vec_p_46].rtvec, D.13193
	movl	-68(%rbp), %edx	# i, tmp168
	movslq	%edx, %rdx	# tmp168, tmp167
	movq	8(%rax,%rdx,8), %rax	# _50->elem, D.13191
	movq	8(%rax), %rax	# _51->fld[0].rtx, D.13191
	movl	32(%rax), %eax	# _52->fld[3].rtint, D.13192
	testl	%eax, %eax	# D.13192
	jne	.L463	#,
	.loc 1 1789 0
	movq	-8(%rbp), %rax	# pat, tmp169
	movl	-60(%rbp), %edx	# diff_vec_p, tmp171
	movslq	%edx, %rdx	# tmp171, tmp170
	movq	8(%rax,%rdx,8), %rax	# pat_43->fld[diff_vec_p_46].rtvec, D.13193
	movl	-68(%rbp), %edx	# i, tmp173
	movslq	%edx, %rdx	# tmp173, tmp172
	movq	8(%rax,%rdx,8), %rax	# _54->elem, D.13191
	movq	8(%rax), %rax	# _55->fld[0].rtx, D.13191
	movq	%rax, %rdi	# D.13191,
	call	delete_related_insns	#
.L463:
	.loc 1 1787 0
	addl	$1, -68(%rbp)	#, i
.L462:
	.loc 1 1787 0 is_stmt 0 discriminator 1
	movl	-68(%rbp), %eax	# i, tmp174
	cmpl	-56(%rbp), %eax	# len, tmp174
	jl	.L464	#,
	.loc 1 1790 0 is_stmt 1
	jmp	.L465	#
.L467:
	.loc 1 1791 0
	movq	-40(%rbp), %rax	# next, tmp175
	movq	24(%rax), %rax	# next_4->fld[2].rtx, tmp176
	movq	%rax, -40(%rbp)	# tmp176, next
.L465:
	.loc 1 1790 0 discriminator 1
	cmpq	$0, -40(%rbp)	#, next
	je	.L466	#,
	.loc 1 1790 0 is_stmt 0 discriminator 2
	movq	-40(%rbp), %rax	# next, tmp177
	movzbl	3(%rax), %eax	# *next_4, D.13190
	andl	$8, %eax	#, D.13190
	testb	%al, %al	# D.13190
	jne	.L467	#,
.L466:
	.loc 1 1792 0 is_stmt 1
	movq	-40(%rbp), %rax	# next, D.13187
	jmp	.L452	#
.L460:
.LBE24:
	.loc 1 1796 0
	movq	-88(%rbp), %rax	# insn, tmp178
	movzwl	(%rax), %eax	# insn_11(D)->code, D.13188
	cmpw	$32, %ax	#, D.13188
	je	.L468	#,
	.loc 1 1796 0 is_stmt 0 discriminator 1
	movq	-88(%rbp), %rax	# insn, tmp179
	movzwl	(%rax), %eax	# insn_11(D)->code, D.13188
	cmpw	$34, %ax	#, D.13188
	jne	.L469	#,
.L468:
	.loc 1 1797 0 is_stmt 1
	movq	-88(%rbp), %rax	# insn, tmp180
	movq	56(%rax), %rax	# insn_11(D)->fld[6].rtx, tmp181
	movq	%rax, -48(%rbp)	# tmp181, note
	jmp	.L470	#
.L472:
	.loc 1 1798 0
	movq	-48(%rbp), %rax	# note, tmp182
	movzbl	2(%rax), %eax	# note_1->mode, D.13190
	cmpb	$13, %al	#, D.13190
	jne	.L471	#,
	.loc 1 1800 0
	movq	-48(%rbp), %rax	# note, tmp183
	movq	8(%rax), %rax	# note_1->fld[0].rtx, D.13191
	movzwl	(%rax), %eax	# _66->code, D.13188
	cmpw	$36, %ax	#, D.13188
	jne	.L471	#,
	.loc 1 1801 0
	movq	-48(%rbp), %rax	# note, tmp184
	movq	8(%rax), %rax	# note_1->fld[0].rtx, D.13191
	movl	32(%rax), %eax	# _68->fld[3].rtint, D.13192
	testl	%eax, %eax	# D.13192
	jne	.L471	#,
	.loc 1 1802 0
	movq	-48(%rbp), %rax	# note, tmp185
	movq	8(%rax), %rax	# note_1->fld[0].rtx, D.13191
	movq	%rax, %rdi	# D.13191,
	call	delete_related_insns	#
.L471:
	.loc 1 1797 0
	movq	-48(%rbp), %rax	# note, tmp186
	movq	16(%rax), %rax	# note_1->fld[1].rtx, tmp187
	movq	%rax, -48(%rbp)	# tmp187, note
.L470:
	.loc 1 1797 0 is_stmt 0 discriminator 1
	cmpq	$0, -48(%rbp)	#, note
	jne	.L472	#,
.L469:
	.loc 1 1804 0 is_stmt 1
	jmp	.L473	#
.L475:
	.loc 1 1805 0
	movq	-32(%rbp), %rax	# prev, tmp188
	movq	16(%rax), %rax	# prev_8->fld[1].rtx, tmp189
	movq	%rax, -32(%rbp)	# tmp189, prev
.L473:
	.loc 1 1804 0 discriminator 1
	cmpq	$0, -32(%rbp)	#, prev
	je	.L474	#,
	.loc 1 1804 0 is_stmt 0 discriminator 2
	movq	-32(%rbp), %rax	# prev, tmp190
	movzbl	3(%rax), %eax	# *prev_8, D.13190
	andl	$8, %eax	#, D.13190
	testb	%al, %al	# D.13190
	jne	.L475	#,
	.loc 1 1804 0 discriminator 1
	movq	-32(%rbp), %rax	# prev, tmp191
	movzwl	(%rax), %eax	# prev_8->code, D.13188
	cmpw	$37, %ax	#, D.13188
	je	.L475	#,
.L474:
	.loc 1 1811 0 is_stmt 1
	cmpl	$0, -64(%rbp)	#, was_code_label
	je	.L476	#,
	.loc 1 1812 0
	movq	-88(%rbp), %rax	# insn, tmp192
	movq	24(%rax), %rax	# insn_11(D)->fld[2].rtx, D.13191
	testq	%rax, %rax	# D.13191
	je	.L476	#,
	.loc 1 1813 0
	movq	-88(%rbp), %rax	# insn, tmp193
	movq	24(%rax), %rax	# insn_11(D)->fld[2].rtx, D.13191
	movzwl	(%rax), %eax	# _77->code, D.13188
	cmpw	$33, %ax	#, D.13188
	jne	.L476	#,
	.loc 1 1814 0
	movq	-88(%rbp), %rax	# insn, tmp194
	movq	24(%rax), %rax	# insn_11(D)->fld[2].rtx, D.13191
	movq	32(%rax), %rax	# _79->fld[3].rtx, D.13191
	movzwl	(%rax), %eax	# _80->code, D.13188
	cmpw	$44, %ax	#, D.13188
	je	.L477	#,
	.loc 1 1815 0
	movq	-88(%rbp), %rax	# insn, tmp195
	movq	24(%rax), %rax	# insn_11(D)->fld[2].rtx, D.13191
	movq	32(%rax), %rax	# _82->fld[3].rtx, D.13191
	movzwl	(%rax), %eax	# _83->code, D.13188
	cmpw	$45, %ax	#, D.13188
	jne	.L476	#,
.L477:
	.loc 1 1816 0
	movq	-88(%rbp), %rax	# insn, tmp196
	movq	24(%rax), %rax	# insn_11(D)->fld[2].rtx, D.13191
	movq	%rax, %rdi	# D.13191,
	call	delete_related_insns	#
	movq	%rax, -40(%rbp)	# tmp197, next
.L476:
	.loc 1 1820 0
	cmpl	$0, -64(%rbp)	#, was_code_label
	je	.L478	#,
	.loc 1 1820 0 is_stmt 0 discriminator 1
	cmpq	$0, -32(%rbp)	#, prev
	je	.L478	#,
	movq	-32(%rbp), %rax	# prev, tmp198
	movzwl	(%rax), %eax	# prev_8->code, D.13188
	cmpw	$35, %ax	#, D.13188
	jne	.L478	#,
.LBB25:
	.loc 1 1823 0 is_stmt 1
	jmp	.L479	#
.L482:
	.loc 1 1828 0
	cmpl	$37, -52(%rbp)	#, code
	jne	.L480	#,
	.loc 1 1829 0
	movq	-40(%rbp), %rax	# next, tmp199
	movl	40(%rax), %eax	# next_6->fld[4].rtint, D.13192
	cmpl	$-91, %eax	#, D.13192
	je	.L480	#,
	.loc 1 1830 0
	movq	-40(%rbp), %rax	# next, tmp200
	movq	24(%rax), %rax	# next_6->fld[2].rtx, tmp201
	movq	%rax, -40(%rbp)	# tmp201, next
	jmp	.L479	#
.L480:
	.loc 1 1832 0
	cmpl	$36, -52(%rbp)	#, code
	jne	.L481	#,
	.loc 1 1832 0 is_stmt 0 discriminator 1
	movq	-40(%rbp), %rax	# next, tmp202
	movzbl	3(%rax), %eax	# *next_6, D.13190
	andl	$8, %eax	#, D.13190
	testb	%al, %al	# D.13190
	je	.L481	#,
	.loc 1 1833 0 is_stmt 1
	movq	-40(%rbp), %rax	# next, tmp203
	movq	24(%rax), %rax	# next_6->fld[2].rtx, tmp204
	movq	%rax, -40(%rbp)	# tmp204, next
	jmp	.L479	#
.L481:
	.loc 1 1839 0
	movq	-40(%rbp), %rax	# next, tmp205
	movq	%rax, %rdi	# tmp205,
	call	delete_related_insns	#
	movq	%rax, -40(%rbp)	# tmp206, next
.L479:
	.loc 1 1823 0 discriminator 1
	cmpq	$0, -40(%rbp)	#, next
	je	.L478	#,
	.loc 1 1824 0
	movq	-40(%rbp), %rax	# next, tmp207
	movzwl	(%rax), %eax	# next_6->code, D.13188
	movzwl	%ax, %eax	# D.13188, tmp208
	movl	%eax, -52(%rbp)	# tmp208, code
	movl	-52(%rbp), %eax	# code, code.59
	cltq
	movzbl	rtx_class(%rax), %eax	# rtx_class, D.13194
	cmpb	$105, %al	#, D.13194
	je	.L482	#,
	.loc 1 1825 0
	cmpl	$37, -52(%rbp)	#, code
	je	.L482	#,
	.loc 1 1825 0 is_stmt 0 discriminator 1
	cmpl	$35, -52(%rbp)	#, code
	je	.L482	#,
	.loc 1 1826 0 is_stmt 1
	cmpl	$36, -52(%rbp)	#, code
	jne	.L478	#,
	.loc 1 1826 0 is_stmt 0 discriminator 1
	movq	-40(%rbp), %rax	# next, tmp210
	movzbl	3(%rax), %eax	# *next_6, D.13190
	andl	$8, %eax	#, D.13190
	testb	%al, %al	# D.13190
	jne	.L482	#,
.L478:
.LBE25:
	.loc 1 1843 0 is_stmt 1
	movq	-40(%rbp), %rax	# next, D.13187
.L452:
	.loc 1 1844 0
	leave
	.cfi_def_cfa 7, 8
	ret
	.cfi_endproc
.LFE36:
	.size	delete_related_insns, .-delete_related_insns
	.globl	next_nondeleted_insn
	.type	next_nondeleted_insn, @function
next_nondeleted_insn:
.LFB37:
	.loc 1 1852 0
	.cfi_startproc
	pushq	%rbp	#
	.cfi_def_cfa_offset 16
	.cfi_offset 6, -16
	movq	%rsp, %rbp	#,
	.cfi_def_cfa_register 6
	movq	%rdi, -8(%rbp)	# insn, insn
	.loc 1 1853 0
	jmp	.L484	#
.L485:
	.loc 1 1854 0
	movq	-8(%rbp), %rax	# insn, tmp63
	movq	24(%rax), %rax	# insn_1->fld[2].rtx, tmp64
	movq	%rax, -8(%rbp)	# tmp64, insn
.L484:
	.loc 1 1853 0 discriminator 1
	movq	-8(%rbp), %rax	# insn, tmp65
	movzbl	3(%rax), %eax	# *insn_1, D.13195
	andl	$8, %eax	#, D.13195
	testb	%al, %al	# D.13195
	jne	.L485	#,
	.loc 1 1855 0
	movq	-8(%rbp), %rax	# insn, D.13196
	.loc 1 1856 0
	popq	%rbp	#
	.cfi_def_cfa 7, 8
	ret
	.cfi_endproc
.LFE37:
	.size	next_nondeleted_insn, .-next_nondeleted_insn
	.globl	delete_for_peephole
	.type	delete_for_peephole, @function
delete_for_peephole:
.LFB38:
	.loc 1 1866 0
	.cfi_startproc
	pushq	%rbp	#
	.cfi_def_cfa_offset 16
	.cfi_offset 6, -16
	movq	%rsp, %rbp	#,
	.cfi_def_cfa_register 6
	movq	%rdi, -40(%rbp)	# from, from
	movq	%rsi, -48(%rbp)	# to, to
	.loc 1 1867 0
	movq	-40(%rbp), %rax	# from, tmp60
	movq	%rax, -24(%rbp)	# tmp60, insn
.L492:
.LBB26:
	.loc 1 1871 0
	movq	-24(%rbp), %rax	# insn, tmp61
	movq	24(%rax), %rax	# insn_1->fld[2].rtx, tmp62
	movq	%rax, -16(%rbp)	# tmp62, next
	.loc 1 1872 0
	movq	-24(%rbp), %rax	# insn, tmp63
	movq	16(%rax), %rax	# insn_1->fld[1].rtx, tmp64
	movq	%rax, -8(%rbp)	# tmp64, prev
	.loc 1 1874 0
	movq	-24(%rbp), %rax	# insn, tmp65
	movzwl	(%rax), %eax	# insn_1->code, D.13197
	cmpw	$37, %ax	#, D.13197
	je	.L488	#,
	.loc 1 1876 0
	movq	-24(%rbp), %rax	# insn, tmp66
	movzbl	3(%rax), %edx	# insn_1->volatil, tmp69
	orl	$8, %edx	#, tmp70
	movb	%dl, 3(%rax)	# tmp70, insn_1->volatil
	.loc 1 1881 0
	cmpq	$0, -8(%rbp)	#, prev
	je	.L489	#,
	.loc 1 1882 0
	movq	-8(%rbp), %rax	# prev, tmp71
	movq	-16(%rbp), %rdx	# next, tmp72
	movq	%rdx, 24(%rax)	# tmp72, prev_5->fld[2].rtx
.L489:
	.loc 1 1884 0
	cmpq	$0, -16(%rbp)	#, next
	je	.L488	#,
	.loc 1 1885 0
	movq	-16(%rbp), %rax	# next, tmp73
	movq	-8(%rbp), %rdx	# prev, tmp74
	movq	%rdx, 16(%rax)	# tmp74, next_4->fld[1].rtx
.L488:
	.loc 1 1888 0
	movq	-24(%rbp), %rax	# insn, tmp75
	cmpq	-48(%rbp), %rax	# to, tmp75
	jne	.L490	#,
	.loc 1 1889 0
	jmp	.L493	#
.L490:
	.loc 1 1890 0
	movq	-16(%rbp), %rax	# next, tmp76
	movq	%rax, -24(%rbp)	# tmp76, insn
.LBE26:
	.loc 1 1891 0
	jmp	.L492	#
.L493:
	.loc 1 1897 0
	popq	%rbp	#
	.cfi_def_cfa 7, 8
	ret
	.cfi_endproc
.LFE38:
	.size	delete_for_peephole, .-delete_for_peephole
	.section	.rodata
.LC1:
	.string	"will never be executed"
	.text
	.globl	never_reached_warning
	.type	never_reached_warning, @function
never_reached_warning:
.LFB39:
	.loc 1 1911 0
	.cfi_startproc
	pushq	%rbp	#
	.cfi_def_cfa_offset 16
	.cfi_offset 6, -16
	movq	%rsp, %rbp	#,
	.cfi_def_cfa_register 6
	subq	$48, %rsp	#,
	movq	%rdi, -40(%rbp)	# avoided_insn, avoided_insn
	movq	%rsi, -48(%rbp)	# finish, finish
	.loc 1 1913 0
	movq	$0, -8(%rbp)	#, a_line_note
	.loc 1 1914 0
	movl	$0, -28(%rbp)	#, two_avoided_lines
	movl	$0, -24(%rbp)	#, contains_insn
	movl	$0, -20(%rbp)	#, reached_end
	.loc 1 1916 0
	movl	warn_notreached(%rip), %eax	# warn_notreached, warn_notreached.60
	testl	%eax, %eax	# warn_notreached.60
	jne	.L495	#,
	.loc 1 1917 0
	jmp	.L494	#
.L495:
	.loc 1 1922 0
	movq	-40(%rbp), %rax	# avoided_insn, tmp72
	movq	%rax, -16(%rbp)	# tmp72, insn
	jmp	.L497	#
.L506:
	.loc 1 1924 0
	cmpq	$0, -48(%rbp)	#, finish
	jne	.L498	#,
	.loc 1 1924 0 is_stmt 0 discriminator 1
	movq	-16(%rbp), %rax	# insn, tmp73
	movzwl	(%rax), %eax	# insn_1->code, D.13198
	cmpw	$36, %ax	#, D.13198
	jne	.L498	#,
	.loc 1 1925 0 is_stmt 1
	jmp	.L499	#
.L498:
	.loc 1 1927 0
	movq	-16(%rbp), %rax	# insn, tmp74
	movzwl	(%rax), %eax	# insn_1->code, D.13198
	cmpw	$37, %ax	#, D.13198
	jne	.L500	#,
	.loc 1 1928 0
	movq	-16(%rbp), %rax	# insn, tmp75
	movl	40(%rax), %eax	# insn_1->fld[4].rtint, D.13199
	testl	%eax, %eax	# D.13199
	js	.L500	#,
	.loc 1 1930 0
	cmpq	$0, -8(%rbp)	#, a_line_note
	jne	.L501	#,
	.loc 1 1931 0
	movq	-16(%rbp), %rax	# insn, tmp76
	movq	%rax, -8(%rbp)	# tmp76, a_line_note
	.loc 1 1930 0
	jmp	.L503	#
.L501:
	.loc 1 1933 0
	movq	-8(%rbp), %rax	# a_line_note, tmp77
	movl	40(%rax), %edx	# a_line_note_4->fld[4].rtint, D.13199
	.loc 1 1934 0
	movq	-16(%rbp), %rax	# insn, tmp78
	movl	40(%rax), %eax	# insn_1->fld[4].rtint, D.13199
	cmpl	%eax, %edx	# D.13199, D.13199
	setne	%al	#, D.13200
	movzbl	%al, %eax	# D.13200, D.13199
	.loc 1 1933 0
	orl	%eax, -28(%rbp)	# D.13199, two_avoided_lines
	.loc 1 1930 0
	jmp	.L503	#
.L500:
	.loc 1 1936 0
	movq	-16(%rbp), %rax	# insn, tmp79
	movzwl	(%rax), %eax	# insn_1->code, D.13198
	movzwl	%ax, %eax	# D.13198, D.13199
	cltq
	movzbl	rtx_class(%rax), %eax	# rtx_class, D.13201
	cmpb	$105, %al	#, D.13201
	jne	.L503	#,
	.loc 1 1938 0
	cmpl	$0, -20(%rbp)	#, reached_end
	je	.L504	#,
	.loc 1 1939 0
	jmp	.L499	#
.L504:
	.loc 1 1940 0
	movl	$1, -24(%rbp)	#, contains_insn
.L503:
	.loc 1 1943 0
	movq	-16(%rbp), %rax	# insn, tmp81
	cmpq	-48(%rbp), %rax	# finish, tmp81
	jne	.L505	#,
	.loc 1 1944 0
	movl	$1, -20(%rbp)	#, reached_end
.L505:
	.loc 1 1922 0
	movq	-16(%rbp), %rax	# insn, tmp82
	movq	24(%rax), %rax	# insn_1->fld[2].rtx, tmp83
	movq	%rax, -16(%rbp)	# tmp83, insn
.L497:
	.loc 1 1922 0 is_stmt 0 discriminator 1
	cmpq	$0, -16(%rbp)	#, insn
	jne	.L506	#,
.L499:
	.loc 1 1946 0 is_stmt 1
	cmpl	$0, -28(%rbp)	#, two_avoided_lines
	je	.L494	#,
	.loc 1 1946 0 is_stmt 0 discriminator 1
	cmpl	$0, -24(%rbp)	#, contains_insn
	je	.L494	#,
	.loc 1 1947 0 is_stmt 1
	movq	-8(%rbp), %rax	# a_line_note, tmp84
	movl	40(%rax), %ecx	# a_line_note_4->fld[4].rtint, D.13199
	movq	-8(%rbp), %rax	# a_line_note, tmp85
	movq	32(%rax), %rax	# a_line_note_4->fld[3].rtstr, D.13202
	movl	$.LC1, %edx	#,
	movl	%ecx, %esi	# D.13199,
	movq	%rax, %rdi	# D.13202,
	movl	$0, %eax	#,
	call	warning_with_file_and_line	#
.L494:
	.loc 1 1950 0
	leave
	.cfi_def_cfa 7, 8
	ret
	.cfi_endproc
.LFE39:
	.size	never_reached_warning, .-never_reached_warning
	.type	redirect_exp_1, @function
redirect_exp_1:
.LFB40:
	.loc 1 1960 0
	.cfi_startproc
	pushq	%rbp	#
	.cfi_def_cfa_offset 16
	.cfi_offset 6, -16
	movq	%rsp, %rbp	#,
	.cfi_def_cfa_register 6
	subq	$80, %rsp	#,
	movq	%rdi, -56(%rbp)	# loc, loc
	movq	%rsi, -64(%rbp)	# olabel, olabel
	movq	%rdx, -72(%rbp)	# nlabel, nlabel
	movq	%rcx, -80(%rbp)	# insn, insn
	.loc 1 1961 0
	movq	-56(%rbp), %rax	# loc, tmp85
	movq	(%rax), %rax	# *loc_5(D), tmp86
	movq	%rax, -24(%rbp)	# tmp86, x
	.loc 1 1962 0
	movq	-24(%rbp), %rax	# x, tmp87
	movzwl	(%rax), %eax	# x_6->code, D.13204
	movzwl	%ax, %eax	# D.13204, tmp88
	movl	%eax, -28(%rbp)	# tmp88, code
	.loc 1 1966 0
	cmpl	$67, -28(%rbp)	#, code
	jne	.L508	#,
	.loc 1 1968 0
	movq	-24(%rbp), %rax	# x, tmp89
	movq	8(%rax), %rax	# x_6->fld[0].rtx, D.13205
	cmpq	-64(%rbp), %rax	# olabel, D.13205
	jne	.L509	#,
.LBB27:
	.loc 1 1971 0
	cmpq	$0, -72(%rbp)	#, nlabel
	je	.L510	#,
	.loc 1 1972 0
	movq	-72(%rbp), %rax	# nlabel, tmp90
	movq	%rax, %rdx	# tmp90,
	movl	$0, %esi	#,
	movl	$67, %edi	#,
	call	gen_rtx_fmt_u00	#
	movq	%rax, -16(%rbp)	# tmp91, n
	jmp	.L511	#
.L510:
	.loc 1 1974 0
	movl	$0, %esi	#,
	movl	$51, %edi	#,
	call	gen_rtx_fmt_	#
	movq	%rax, -16(%rbp)	# tmp92, n
.L511:
	.loc 1 1976 0
	movq	-16(%rbp), %rdx	# n, tmp93
	movq	-56(%rbp), %rsi	# loc, tmp94
	movq	-80(%rbp), %rax	# insn, tmp95
	movl	$1, %ecx	#,
	movq	%rax, %rdi	# tmp95,
	call	validate_change	#
	.loc 1 1977 0
	jmp	.L507	#
.L508:
.LBE27:
	.loc 1 1980 0
	cmpl	$51, -28(%rbp)	#, code
	jne	.L509	#,
	.loc 1 1980 0 is_stmt 0 discriminator 1
	cmpq	$0, -64(%rbp)	#, olabel
	jne	.L509	#,
	.loc 1 1982 0 is_stmt 1
	movq	-72(%rbp), %rax	# nlabel, tmp96
	movq	%rax, %rdx	# tmp96,
	movl	$0, %esi	#,
	movl	$67, %edi	#,
	call	gen_rtx_fmt_u00	#
	movq	%rax, -24(%rbp)	# tmp97, x
	.loc 1 1983 0
	movq	-80(%rbp), %rax	# insn, tmp98
	addq	$32, %rax	#, D.13206
	cmpq	-56(%rbp), %rax	# loc, D.13206
	jne	.L513	#,
	.loc 1 1984 0
	movq	global_rtl(%rip), %rax	# global_rtl, D.13205
	movq	-24(%rbp), %rdx	# x, tmp99
	movq	%rdx, %rcx	# tmp99,
	movq	%rax, %rdx	# D.13205,
	movl	$0, %esi	#,
	movl	$47, %edi	#,
	call	gen_rtx_fmt_ee	#
	movq	%rax, -24(%rbp)	# tmp100, x
.L513:
	.loc 1 1985 0
	movq	-24(%rbp), %rdx	# x, tmp101
	movq	-56(%rbp), %rsi	# loc, tmp102
	movq	-80(%rbp), %rax	# insn, tmp103
	movl	$1, %ecx	#,
	movq	%rax, %rdi	# tmp103,
	call	validate_change	#
	.loc 1 1986 0
	jmp	.L507	#
.L509:
	.loc 1 1989 0
	cmpl	$47, -28(%rbp)	#, code
	jne	.L514	#,
	.loc 1 1989 0 is_stmt 0 discriminator 1
	cmpq	$0, -72(%rbp)	#, nlabel
	jne	.L514	#,
	movq	-24(%rbp), %rax	# x, tmp104
	movq	8(%rax), %rdx	# x_6->fld[0].rtx, D.13205
	movq	global_rtl(%rip), %rax	# global_rtl, D.13205
	cmpq	%rax, %rdx	# D.13205, D.13205
	jne	.L514	#,
	.loc 1 1990 0 is_stmt 1
	movq	-24(%rbp), %rax	# x, tmp105
	movq	16(%rax), %rax	# x_6->fld[1].rtx, D.13205
	movzwl	(%rax), %eax	# _21->code, D.13204
	cmpw	$67, %ax	#, D.13204
	jne	.L514	#,
	.loc 1 1991 0
	movq	-24(%rbp), %rax	# x, tmp106
	movq	16(%rax), %rax	# x_6->fld[1].rtx, D.13205
	movq	8(%rax), %rax	# _23->fld[0].rtx, D.13205
	cmpq	-64(%rbp), %rax	# olabel, D.13205
	jne	.L514	#,
	.loc 1 1993 0
	movl	$0, %esi	#,
	movl	$51, %edi	#,
	call	gen_rtx_fmt_	#
	movq	%rax, %rdx	#, D.13205
	movq	-56(%rbp), %rsi	# loc, tmp107
	movq	-80(%rbp), %rax	# insn, tmp108
	movl	$1, %ecx	#,
	movq	%rax, %rdi	# tmp108,
	call	validate_change	#
	.loc 1 1994 0
	jmp	.L507	#
.L514:
	.loc 1 1997 0
	movl	-28(%rbp), %eax	# code, code.61
	cltq
	movq	rtx_format(,%rax,8), %rax	# rtx_format, tmp110
	movq	%rax, -8(%rbp)	# tmp110, fmt
	.loc 1 1998 0
	movl	-28(%rbp), %eax	# code, code.62
	cltq
	movzbl	rtx_length(%rax), %eax	# rtx_length, D.13207
	movzbl	%al, %eax	# D.13207, D.13208
	subl	$1, %eax	#, tmp112
	movl	%eax, -36(%rbp)	# tmp112, i
	jmp	.L515	#
.L520:
	.loc 1 2000 0
	movl	-36(%rbp), %eax	# i, tmp113
	movslq	%eax, %rdx	# tmp113, D.13209
	movq	-8(%rbp), %rax	# fmt, tmp114
	addq	%rdx, %rax	# D.13209, D.13210
	movzbl	(%rax), %eax	# *_33, D.13211
	cmpb	$101, %al	#, D.13211
	jne	.L516	#,
	.loc 1 2001 0
	movl	-36(%rbp), %eax	# i, tmp116
	cltq
	leaq	0(,%rax,8), %rdx	#, tmp117
	movq	-24(%rbp), %rax	# x, tmp119
	addq	%rdx, %rax	# tmp117, tmp118
	leaq	8(%rax), %rdi	#, D.13206
	movq	-80(%rbp), %rcx	# insn, tmp120
	movq	-72(%rbp), %rdx	# nlabel, tmp121
	movq	-64(%rbp), %rax	# olabel, tmp122
	movq	%rax, %rsi	# tmp122,
	call	redirect_exp_1	#
	jmp	.L517	#
.L516:
	.loc 1 2002 0
	movl	-36(%rbp), %eax	# i, tmp123
	movslq	%eax, %rdx	# tmp123, D.13209
	movq	-8(%rbp), %rax	# fmt, tmp124
	addq	%rdx, %rax	# D.13209, D.13210
	movzbl	(%rax), %eax	# *_37, D.13211
	cmpb	$69, %al	#, D.13211
	jne	.L517	#,
.LBB28:
	.loc 1 2005 0
	movl	$0, -32(%rbp)	#, j
	jmp	.L518	#
.L519:
	.loc 1 2006 0 discriminator 2
	movq	-24(%rbp), %rax	# x, tmp125
	movl	-36(%rbp), %edx	# i, tmp127
	movslq	%edx, %rdx	# tmp127, tmp126
	movq	8(%rax,%rdx,8), %rax	# x_6->fld[i_2].rtvec, D.13212
	movl	-32(%rbp), %edx	# j, tmp129
	movslq	%edx, %rdx	# tmp129, tmp128
	salq	$3, %rdx	#, tmp130
	addq	%rdx, %rax	# tmp130, tmp131
	leaq	8(%rax), %rdi	#, D.13206
	movq	-80(%rbp), %rcx	# insn, tmp132
	movq	-72(%rbp), %rdx	# nlabel, tmp133
	movq	-64(%rbp), %rax	# olabel, tmp134
	movq	%rax, %rsi	# tmp134,
	call	redirect_exp_1	#
	.loc 1 2005 0 discriminator 2
	addl	$1, -32(%rbp)	#, j
.L518:
	.loc 1 2005 0 is_stmt 0 discriminator 1
	movq	-24(%rbp), %rax	# x, tmp135
	movl	-36(%rbp), %edx	# i, tmp137
	movslq	%edx, %rdx	# tmp137, tmp136
	movq	8(%rax,%rdx,8), %rax	# x_6->fld[i_2].rtvec, D.13212
	movl	(%rax), %eax	# _40->num_elem, D.13208
	cmpl	-32(%rbp), %eax	# j, D.13208
	jg	.L519	#,
.L517:
.LBE28:
	.loc 1 1998 0 is_stmt 1
	subl	$1, -36(%rbp)	#, i
.L515:
	.loc 1 1998 0 is_stmt 0 discriminator 1
	cmpl	$0, -36(%rbp)	#, i
	jns	.L520	#,
.L507:
	.loc 1 2009 0 is_stmt 1
	leave
	.cfi_def_cfa 7, 8
	ret
	.cfi_endproc
.LFE40:
	.size	redirect_exp_1, .-redirect_exp_1
	.type	redirect_exp, @function
redirect_exp:
.LFB41:
	.loc 1 2017 0
	.cfi_startproc
	pushq	%rbp	#
	.cfi_def_cfa_offset 16
	.cfi_offset 6, -16
	movq	%rsp, %rbp	#,
	.cfi_def_cfa_register 6
	subq	$48, %rsp	#,
	movq	%rdi, -24(%rbp)	# olabel, olabel
	movq	%rsi, -32(%rbp)	# nlabel, nlabel
	movq	%rdx, -40(%rbp)	# insn, insn
	.loc 1 2020 0
	movq	-40(%rbp), %rax	# insn, tmp66
	movq	32(%rax), %rax	# insn_3(D)->fld[3].rtx, D.13214
	movzwl	(%rax), %eax	# _4->code, D.13215
	cmpw	$39, %ax	#, D.13215
	jne	.L522	#,
	.loc 1 2021 0
	movq	-40(%rbp), %rax	# insn, tmp67
	movq	32(%rax), %rax	# insn_3(D)->fld[3].rtx, D.13214
	movq	8(%rax), %rax	# _6->fld[0].rtvec, D.13216
	addq	$8, %rax	#, tmp68
	movq	%rax, -8(%rbp)	# tmp68, loc
	jmp	.L523	#
.L522:
	.loc 1 2023 0
	movq	-40(%rbp), %rax	# insn, tmp72
	addq	$32, %rax	#, tmp71
	movq	%rax, -8(%rbp)	# tmp71, loc
.L523:
	.loc 1 2025 0
	movq	-40(%rbp), %rcx	# insn, tmp73
	movq	-32(%rbp), %rdx	# nlabel, tmp74
	movq	-24(%rbp), %rsi	# olabel, tmp75
	movq	-8(%rbp), %rax	# loc, tmp76
	movq	%rax, %rdi	# tmp76,
	call	redirect_exp_1	#
	.loc 1 2026 0
	call	num_validated_changes	#
	testl	%eax, %eax	# D.13213
	jne	.L524	#,
	.loc 1 2027 0
	movl	$0, %eax	#, D.13213
	jmp	.L525	#
.L524:
	.loc 1 2029 0
	call	apply_change_group	#
.L525:
	.loc 1 2030 0
	leave
	.cfi_def_cfa 7, 8
	ret
	.cfi_endproc
.LFE41:
	.size	redirect_exp, .-redirect_exp
	.globl	redirect_jump_1
	.type	redirect_jump_1, @function
redirect_jump_1:
.LFB42:
	.loc 1 2039 0
	.cfi_startproc
	pushq	%rbp	#
	.cfi_def_cfa_offset 16
	.cfi_offset 6, -16
	movq	%rsp, %rbp	#,
	.cfi_def_cfa_register 6
	subq	$32, %rsp	#,
	movq	%rdi, -24(%rbp)	# jump, jump
	movq	%rsi, -32(%rbp)	# nlabel, nlabel
	.loc 1 2040 0
	call	num_validated_changes	#
	movl	%eax, -12(%rbp)	# tmp68, ochanges
	.loc 1 2043 0
	movq	-24(%rbp), %rax	# jump, tmp69
	movq	32(%rax), %rax	# jump_3(D)->fld[3].rtx, D.13217
	movzwl	(%rax), %eax	# _4->code, D.13218
	cmpw	$39, %ax	#, D.13218
	jne	.L527	#,
	.loc 1 2044 0
	movq	-24(%rbp), %rax	# jump, tmp70
	movq	32(%rax), %rax	# jump_3(D)->fld[3].rtx, D.13217
	movq	8(%rax), %rax	# _6->fld[0].rtvec, D.13219
	addq	$8, %rax	#, tmp71
	movq	%rax, -8(%rbp)	# tmp71, loc
	jmp	.L528	#
.L527:
	.loc 1 2046 0
	movq	-24(%rbp), %rax	# jump, tmp75
	addq	$32, %rax	#, tmp74
	movq	%rax, -8(%rbp)	# tmp74, loc
.L528:
	.loc 1 2048 0
	movq	-24(%rbp), %rax	# jump, tmp76
	movq	64(%rax), %rsi	# jump_3(D)->fld[7].rtx, D.13217
	movq	-24(%rbp), %rcx	# jump, tmp77
	movq	-32(%rbp), %rdx	# nlabel, tmp78
	movq	-8(%rbp), %rax	# loc, tmp79
	movq	%rax, %rdi	# tmp79,
	call	redirect_exp_1	#
	.loc 1 2049 0
	call	num_validated_changes	#
	cmpl	-12(%rbp), %eax	# ochanges, D.13220
	setg	%al	#, D.13221
	movzbl	%al, %eax	# D.13221, D.13220
	.loc 1 2050 0
	leave
	.cfi_def_cfa 7, 8
	ret
	.cfi_endproc
.LFE42:
	.size	redirect_jump_1, .-redirect_jump_1
	.globl	redirect_jump
	.type	redirect_jump, @function
redirect_jump:
.LFB43:
	.loc 1 2066 0
	.cfi_startproc
	pushq	%rbp	#
	.cfi_def_cfa_offset 16
	.cfi_offset 6, -16
	movq	%rsp, %rbp	#,
	.cfi_def_cfa_register 6
	subq	$48, %rsp	#,
	movq	%rdi, -24(%rbp)	# jump, jump
	movq	%rsi, -32(%rbp)	# nlabel, nlabel
	movl	%edx, -36(%rbp)	# delete_unused, delete_unused
	.loc 1 2067 0
	movq	-24(%rbp), %rax	# jump, tmp73
	movq	64(%rax), %rax	# jump_2(D)->fld[7].rtx, tmp74
	movq	%rax, -8(%rbp)	# tmp74, olabel
	.loc 1 2069 0
	movq	-32(%rbp), %rax	# nlabel, tmp75
	cmpq	-8(%rbp), %rax	# olabel, tmp75
	jne	.L531	#,
	.loc 1 2070 0
	movl	$1, %eax	#, D.13222
	jmp	.L532	#
.L531:
	.loc 1 2072 0
	movq	-24(%rbp), %rdx	# jump, tmp76
	movq	-32(%rbp), %rcx	# nlabel, tmp77
	movq	-8(%rbp), %rax	# olabel, tmp78
	movq	%rcx, %rsi	# tmp77,
	movq	%rax, %rdi	# tmp78,
	call	redirect_exp	#
	testl	%eax, %eax	# D.13222
	jne	.L533	#,
	.loc 1 2073 0
	movl	$0, %eax	#, D.13222
	jmp	.L532	#
.L533:
	.loc 1 2075 0
	movq	-24(%rbp), %rax	# jump, tmp79
	movq	-32(%rbp), %rdx	# nlabel, tmp80
	movq	%rdx, 64(%rax)	# tmp80, jump_2(D)->fld[7].rtx
	.loc 1 2076 0
	cmpq	$0, -32(%rbp)	#, nlabel
	je	.L534	#,
	.loc 1 2077 0
	movq	-32(%rbp), %rax	# nlabel, tmp81
	movl	32(%rax), %eax	# nlabel_4(D)->fld[3].rtint, D.13222
	leal	1(%rax), %edx	#, D.13222
	movq	-32(%rbp), %rax	# nlabel, tmp82
	movl	%edx, 32(%rax)	# D.13222, nlabel_4(D)->fld[3].rtint
.L534:
	.loc 1 2081 0
	cmpq	$0, -8(%rbp)	#, olabel
	je	.L535	#,
	.loc 1 2081 0 is_stmt 0 discriminator 1
	cmpq	$0, -32(%rbp)	#, nlabel
	je	.L535	#,
	.loc 1 2082 0 is_stmt 1
	movq	-8(%rbp), %rax	# olabel, tmp83
	movq	24(%rax), %rax	# olabel_3->fld[2].rtx, D.13223
	testq	%rax, %rax	# D.13223
	je	.L535	#,
	.loc 1 2083 0
	movq	-8(%rbp), %rax	# olabel, tmp84
	movq	24(%rax), %rax	# olabel_3->fld[2].rtx, D.13223
	movzwl	(%rax), %eax	# _11->code, D.13224
	cmpw	$37, %ax	#, D.13224
	jne	.L535	#,
	.loc 1 2084 0
	movq	-8(%rbp), %rax	# olabel, tmp85
	movq	24(%rax), %rax	# olabel_3->fld[2].rtx, D.13223
	movl	40(%rax), %eax	# _13->fld[4].rtint, D.13222
	cmpl	$-91, %eax	#, D.13222
	jne	.L535	#,
	.loc 1 2085 0
	movq	-32(%rbp), %rax	# nlabel, tmp86
	movq	%rax, %rsi	# tmp86,
	movl	$-91, %edi	#,
	call	emit_note_after	#
.L535:
	.loc 1 2087 0
	cmpq	$0, -8(%rbp)	#, olabel
	je	.L536	#,
	.loc 1 2087 0 is_stmt 0 discriminator 1
	movq	-8(%rbp), %rax	# olabel, tmp87
	movl	32(%rax), %eax	# olabel_3->fld[3].rtint, D.13222
	leal	-1(%rax), %edx	#, D.13222
	movq	-8(%rbp), %rax	# olabel, tmp88
	movl	%edx, 32(%rax)	# D.13222, olabel_3->fld[3].rtint
	movq	-8(%rbp), %rax	# olabel, tmp89
	movl	32(%rax), %eax	# olabel_3->fld[3].rtint, D.13222
	testl	%eax, %eax	# D.13222
	jne	.L536	#,
	cmpl	$0, -36(%rbp)	#, delete_unused
	je	.L536	#,
	.loc 1 2089 0 is_stmt 1
	movq	-8(%rbp), %rax	# olabel, tmp90
	movl	8(%rax), %eax	# olabel_3->fld[0].rtint, D.13222
	testl	%eax, %eax	# D.13222
	je	.L536	#,
	.loc 1 2090 0
	movq	-8(%rbp), %rax	# olabel, tmp91
	movq	%rax, %rdi	# tmp91,
	call	delete_related_insns	#
.L536:
	.loc 1 2092 0
	movl	$1, %eax	#, D.13222
.L532:
	.loc 1 2093 0
	leave
	.cfi_def_cfa 7, 8
	ret
	.cfi_endproc
.LFE43:
	.size	redirect_jump, .-redirect_jump
	.type	invert_exp_1, @function
invert_exp_1:
.LFB44:
	.loc 1 2101 0
	.cfi_startproc
	pushq	%rbp	#
	.cfi_def_cfa_offset 16
	.cfi_offset 6, -16
	movq	%rsp, %rbp	#,
	.cfi_def_cfa_register 6
	subq	$48, %rsp	#,
	movq	%rdi, -40(%rbp)	# insn, insn
	.loc 1 2103 0
	movq	-40(%rbp), %rax	# insn, tmp69
	movq	%rax, %rdi	# tmp69,
	call	pc_set	#
	movq	%rax, -24(%rbp)	# tmp70, x
	.loc 1 2105 0
	cmpq	$0, -24(%rbp)	#, x
	jne	.L538	#,
	.loc 1 2106 0
	movl	$__FUNCTION__.11275, %edx	#,
	movl	$2106, %esi	#,
	movl	$.LC0, %edi	#,
	call	fancy_abort	#
.L538:
	.loc 1 2107 0
	movq	-24(%rbp), %rax	# x, tmp71
	movq	16(%rax), %rax	# x_2->fld[1].rtx, tmp72
	movq	%rax, -24(%rbp)	# tmp72, x
	.loc 1 2109 0
	movq	-24(%rbp), %rax	# x, tmp73
	movzwl	(%rax), %eax	# x_3->code, D.13225
	movzwl	%ax, %eax	# D.13225, tmp74
	movl	%eax, -32(%rbp)	# tmp74, code
	.loc 1 2111 0
	cmpl	$72, -32(%rbp)	#, code
	jne	.L539	#,
.LBB29:
	.loc 1 2113 0
	movq	-24(%rbp), %rax	# x, tmp75
	movq	8(%rax), %rax	# x_3->fld[0].rtx, tmp76
	movq	%rax, -16(%rbp)	# tmp76, comp
	.loc 1 2122 0
	movq	-40(%rbp), %rdx	# insn, tmp77
	movq	-16(%rbp), %rax	# comp, tmp78
	movq	%rdx, %rsi	# tmp77,
	movq	%rax, %rdi	# tmp78,
	call	reversed_comparison_code	#
	movl	%eax, -28(%rbp)	# tmp79, reversed_code
	.loc 1 2124 0
	cmpl	$0, -28(%rbp)	#, reversed_code
	je	.L540	#,
	.loc 1 2126 0
	movq	-16(%rbp), %rax	# comp, tmp80
	movq	16(%rax), %rcx	# comp_6->fld[1].rtx, D.13226
	movq	-16(%rbp), %rax	# comp, tmp81
	movq	8(%rax), %rdx	# comp_6->fld[0].rtx, D.13226
	.loc 1 2128 0
	movq	-16(%rbp), %rax	# comp, tmp82
	movzbl	2(%rax), %eax	# comp_6->mode, D.13227
	.loc 1 2126 0
	movzbl	%al, %esi	# D.13227, D.13228
	movl	-28(%rbp), %eax	# reversed_code, tmp83
	movl	%eax, %edi	# tmp83,
	call	gen_rtx_fmt_ee	#
	movq	%rax, %rdx	#, D.13226
	movq	-24(%rbp), %rax	# x, tmp84
	leaq	8(%rax), %rsi	#, D.13229
	movq	-40(%rbp), %rax	# insn, tmp85
	movl	$1, %ecx	#,
	movq	%rax, %rdi	# tmp85,
	call	validate_change	#
	.loc 1 2131 0
	jmp	.L537	#
.L540:
	.loc 1 2134 0
	movq	-24(%rbp), %rax	# x, tmp86
	movq	16(%rax), %rax	# x_3->fld[1].rtx, tmp87
	movq	%rax, -8(%rbp)	# tmp87, tem
	.loc 1 2135 0
	movq	-24(%rbp), %rax	# x, tmp88
	movq	24(%rax), %rdx	# x_3->fld[2].rtx, D.13226
	movq	-24(%rbp), %rax	# x, tmp89
	leaq	16(%rax), %rsi	#, D.13229
	movq	-40(%rbp), %rax	# insn, tmp90
	movl	$1, %ecx	#,
	movq	%rax, %rdi	# tmp90,
	call	validate_change	#
	.loc 1 2136 0
	movq	-24(%rbp), %rax	# x, tmp91
	leaq	24(%rax), %rsi	#, D.13229
	movq	-8(%rbp), %rdx	# tem, tmp92
	movq	-40(%rbp), %rax	# insn, tmp93
	movl	$1, %ecx	#,
	movq	%rax, %rdi	# tmp93,
	call	validate_change	#
.LBE29:
	jmp	.L537	#
.L539:
	.loc 1 2139 0
	movl	$__FUNCTION__.11275, %edx	#,
	movl	$2139, %esi	#,
	movl	$.LC0, %edi	#,
	call	fancy_abort	#
.L537:
	.loc 1 2140 0
	leave
	.cfi_def_cfa 7, 8
	ret
	.cfi_endproc
.LFE44:
	.size	invert_exp_1, .-invert_exp_1
	.type	invert_exp, @function
invert_exp:
.LFB45:
	.loc 1 2150 0
	.cfi_startproc
	pushq	%rbp	#
	.cfi_def_cfa_offset 16
	.cfi_offset 6, -16
	movq	%rsp, %rbp	#,
	.cfi_def_cfa_register 6
	subq	$16, %rsp	#,
	movq	%rdi, -8(%rbp)	# insn, insn
	.loc 1 2151 0
	movq	-8(%rbp), %rax	# insn, tmp62
	movq	%rax, %rdi	# tmp62,
	call	invert_exp_1	#
	.loc 1 2152 0
	call	num_validated_changes	#
	testl	%eax, %eax	# D.13230
	jne	.L543	#,
	.loc 1 2153 0
	movl	$0, %eax	#, D.13230
	jmp	.L544	#
.L543:
	.loc 1 2155 0
	call	apply_change_group	#
.L544:
	.loc 1 2156 0
	leave
	.cfi_def_cfa 7, 8
	ret
	.cfi_endproc
.LFE45:
	.size	invert_exp, .-invert_exp
	.globl	invert_jump_1
	.type	invert_jump_1, @function
invert_jump_1:
.LFB46:
	.loc 1 2166 0
	.cfi_startproc
	pushq	%rbp	#
	.cfi_def_cfa_offset 16
	.cfi_offset 6, -16
	movq	%rsp, %rbp	#,
	.cfi_def_cfa_register 6
	subq	$32, %rsp	#,
	movq	%rdi, -24(%rbp)	# jump, jump
	movq	%rsi, -32(%rbp)	# nlabel, nlabel
	.loc 1 2169 0
	call	num_validated_changes	#
	movl	%eax, -4(%rbp)	# tmp62, ochanges
	.loc 1 2170 0
	movq	-24(%rbp), %rax	# jump, tmp63
	movq	%rax, %rdi	# tmp63,
	call	invert_exp_1	#
	.loc 1 2171 0
	call	num_validated_changes	#
	cmpl	-4(%rbp), %eax	# ochanges, D.13231
	jne	.L546	#,
	.loc 1 2172 0
	movl	$0, %eax	#, D.13231
	jmp	.L547	#
.L546:
	.loc 1 2174 0
	movq	-32(%rbp), %rdx	# nlabel, tmp64
	movq	-24(%rbp), %rax	# jump, tmp65
	movq	%rdx, %rsi	# tmp64,
	movq	%rax, %rdi	# tmp65,
	call	redirect_jump_1	#
.L547:
	.loc 1 2175 0
	leave
	.cfi_def_cfa 7, 8
	ret
	.cfi_endproc
.LFE46:
	.size	invert_jump_1, .-invert_jump_1
	.globl	invert_jump
	.type	invert_jump, @function
invert_jump:
.LFB47:
	.loc 1 2184 0
	.cfi_startproc
	pushq	%rbp	#
	.cfi_def_cfa_offset 16
	.cfi_offset 6, -16
	movq	%rsp, %rbp	#,
	.cfi_def_cfa_register 6
	subq	$32, %rsp	#,
	movq	%rdi, -8(%rbp)	# jump, jump
	movq	%rsi, -16(%rbp)	# nlabel, nlabel
	movl	%edx, -20(%rbp)	# delete_unused, delete_unused
	.loc 1 2190 0
	movq	-8(%rbp), %rax	# jump, tmp64
	movq	%rax, %rdi	# tmp64,
	call	invert_exp	#
	testl	%eax, %eax	# D.13232
	jne	.L549	#,
	.loc 1 2191 0
	movl	$0, %eax	#, D.13232
	jmp	.L550	#
.L549:
	.loc 1 2193 0
	movl	-20(%rbp), %edx	# delete_unused, tmp65
	movq	-16(%rbp), %rcx	# nlabel, tmp66
	movq	-8(%rbp), %rax	# jump, tmp67
	movq	%rcx, %rsi	# tmp66,
	movq	%rax, %rdi	# tmp67,
	call	redirect_jump	#
	testl	%eax, %eax	# D.13232
	je	.L551	#,
	.loc 1 2195 0
	movq	-8(%rbp), %rax	# jump, tmp68
	movq	%rax, %rdi	# tmp68,
	call	invert_br_probabilities	#
	.loc 1 2197 0
	movl	$1, %eax	#, D.13232
	jmp	.L550	#
.L551:
	.loc 1 2200 0
	movq	-8(%rbp), %rax	# jump, tmp69
	movq	%rax, %rdi	# tmp69,
	call	invert_exp	#
	testl	%eax, %eax	# D.13232
	jne	.L552	#,
	.loc 1 2202 0
	movl	$__FUNCTION__.11292, %edx	#,
	movl	$2202, %esi	#,
	movl	$.LC0, %edi	#,
	call	fancy_abort	#
.L552:
	.loc 1 2204 0
	movl	$0, %eax	#, D.13232
.L550:
	.loc 1 2205 0
	leave
	.cfi_def_cfa 7, 8
	ret
	.cfi_endproc
.LFE47:
	.size	invert_jump, .-invert_jump
	.globl	rtx_renumbered_equal_p
	.type	rtx_renumbered_equal_p, @function
rtx_renumbered_equal_p:
.LFB48:
	.loc 1 2224 0
	.cfi_startproc
	pushq	%rbp	#
	.cfi_def_cfa_offset 16
	.cfi_offset 6, -16
	movq	%rsp, %rbp	#,
	.cfi_def_cfa_register 6
	pushq	%rbx	#
	subq	$72, %rsp	#,
	.cfi_offset 3, -24
	movq	%rdi, -72(%rbp)	# x, x
	movq	%rsi, -80(%rbp)	# y, y
	.loc 1 2226 0
	movq	-72(%rbp), %rax	# x, tmp222
	movzwl	(%rax), %eax	# x_15(D)->code, D.13234
	movzwl	%ax, %eax	# D.13234, tmp223
	movl	%eax, -28(%rbp)	# tmp223, code
	.loc 1 2229 0
	movq	-72(%rbp), %rax	# x, tmp224
	cmpq	-80(%rbp), %rax	# y, tmp224
	jne	.L554	#,
	.loc 1 2230 0
	movl	$1, %eax	#, D.13233
	jmp	.L555	#
.L554:
	.loc 1 2232 0
	cmpl	$61, -28(%rbp)	#, code
	je	.L556	#,
	.loc 1 2232 0 is_stmt 0 discriminator 1
	cmpl	$63, -28(%rbp)	#, code
	jne	.L557	#,
	movq	-72(%rbp), %rax	# x, tmp225
	movq	8(%rax), %rax	# x_15(D)->fld[0].rtx, D.13235
	movzwl	(%rax), %eax	# _20->code, D.13234
	cmpw	$61, %ax	#, D.13234
	jne	.L557	#,
.L556:
	.loc 1 2233 0 is_stmt 1
	movq	-80(%rbp), %rax	# y, tmp226
	movzwl	(%rax), %eax	# y_18(D)->code, D.13234
	cmpw	$61, %ax	#, D.13234
	je	.L558	#,
	.loc 1 2233 0 is_stmt 0 discriminator 1
	movq	-80(%rbp), %rax	# y, tmp227
	movzwl	(%rax), %eax	# y_18(D)->code, D.13234
	cmpw	$63, %ax	#, D.13234
	jne	.L557	#,
	.loc 1 2234 0 is_stmt 1
	movq	-80(%rbp), %rax	# y, tmp228
	movq	8(%rax), %rax	# y_18(D)->fld[0].rtx, D.13235
	movzwl	(%rax), %eax	# _24->code, D.13234
	cmpw	$61, %ax	#, D.13234
	jne	.L557	#,
.L558:
.LBB30:
	.loc 1 2236 0
	movl	$-1, -48(%rbp)	#, reg_x
	movl	$-1, -44(%rbp)	#, reg_y
	.loc 1 2237 0
	movl	$0, -40(%rbp)	#, byte_x
	movl	$0, -36(%rbp)	#, byte_y
	.loc 1 2239 0
	movq	-72(%rbp), %rax	# x, tmp229
	movzbl	2(%rax), %edx	# x_15(D)->mode, D.13236
	movq	-80(%rbp), %rax	# y, tmp230
	movzbl	2(%rax), %eax	# y_18(D)->mode, D.13236
	cmpb	%al, %dl	# D.13236, D.13236
	je	.L559	#,
	.loc 1 2240 0
	movl	$0, %eax	#, D.13233
	jmp	.L555	#
.L559:
	.loc 1 2244 0
	movq	reg_renumber(%rip), %rax	# reg_renumber, reg_renumber.63
	testq	%rax, %rax	# reg_renumber.63
	jne	.L560	#,
	.loc 1 2245 0
	movq	-80(%rbp), %rdx	# y, tmp231
	movq	-72(%rbp), %rax	# x, tmp232
	movq	%rdx, %rsi	# tmp231,
	movq	%rax, %rdi	# tmp232,
	call	rtx_equal_p	#
	jmp	.L555	#
.L560:
	.loc 1 2247 0
	cmpl	$63, -28(%rbp)	#, code
	jne	.L561	#,
	.loc 1 2249 0
	movq	-72(%rbp), %rax	# x, tmp233
	movq	8(%rax), %rax	# x_15(D)->fld[0].rtx, D.13235
	movl	8(%rax), %eax	# _35->fld[0].rtuint, D.13237
	movl	%eax, -48(%rbp)	# D.13237, reg_x
	.loc 1 2250 0
	movq	-72(%rbp), %rax	# x, tmp234
	movl	16(%rax), %eax	# x_15(D)->fld[1].rtuint, D.13237
	movl	%eax, -40(%rbp)	# D.13237, byte_x
	.loc 1 2252 0
	movq	reg_renumber(%rip), %rax	# reg_renumber, reg_renumber.64
	movl	-48(%rbp), %edx	# reg_x, tmp235
	movslq	%edx, %rdx	# tmp235, D.13238
	addq	%rdx, %rdx	# D.13238
	addq	%rdx, %rax	# D.13238, D.13239
	movzwl	(%rax), %eax	# *_43, D.13240
	testw	%ax, %ax	# D.13240
	js	.L563	#,
	.loc 1 2257 0
	movq	-72(%rbp), %rax	# x, tmp236
	movzbl	2(%rax), %eax	# x_15(D)->mode, D.13236
	.loc 1 2254 0
	movzbl	%al, %ecx	# D.13236, D.13241
	movl	-40(%rbp), %edx	# byte_x, byte_x.65
	.loc 1 2255 0
	movq	-72(%rbp), %rax	# x, tmp237
	movq	8(%rax), %rax	# x_15(D)->fld[0].rtx, D.13235
	movzbl	2(%rax), %eax	# _48->mode, D.13236
	.loc 1 2254 0
	movzbl	%al, %esi	# D.13236, D.13241
	movq	reg_renumber(%rip), %rax	# reg_renumber, reg_renumber.66
	movl	-48(%rbp), %edi	# reg_x, tmp238
	movslq	%edi, %rdi	# tmp238, D.13238
	addq	%rdi, %rdi	# D.13238
	addq	%rdi, %rax	# D.13238, D.13239
	movzwl	(%rax), %eax	# *_54, D.13240
	cwtl
	movl	%eax, %edi	# D.13237,
	call	subreg_regno_offset	#
	movl	%eax, -48(%rbp)	# D.13237, reg_x
	.loc 1 2258 0
	movl	$0, -40(%rbp)	#, byte_x
	jmp	.L563	#
.L561:
	.loc 1 2263 0
	movq	-72(%rbp), %rax	# x, tmp239
	movl	8(%rax), %eax	# x_15(D)->fld[0].rtuint, D.13237
	movl	%eax, -48(%rbp)	# D.13237, reg_x
	.loc 1 2264 0
	movq	reg_renumber(%rip), %rax	# reg_renumber, reg_renumber.67
	movl	-48(%rbp), %edx	# reg_x, tmp240
	movslq	%edx, %rdx	# tmp240, D.13238
	addq	%rdx, %rdx	# D.13238
	addq	%rdx, %rax	# D.13238, D.13239
	movzwl	(%rax), %eax	# *_65, D.13240
	testw	%ax, %ax	# D.13240
	js	.L563	#,
	.loc 1 2265 0
	movq	reg_renumber(%rip), %rax	# reg_renumber, reg_renumber.68
	movl	-48(%rbp), %edx	# reg_x, tmp241
	movslq	%edx, %rdx	# tmp241, D.13238
	addq	%rdx, %rdx	# D.13238
	addq	%rdx, %rax	# D.13238, D.13239
	movzwl	(%rax), %eax	# *_70, D.13240
	cwtl
	movl	%eax, -48(%rbp)	# tmp242, reg_x
.L563:
	.loc 1 2268 0
	movq	-80(%rbp), %rax	# y, tmp243
	movzwl	(%rax), %eax	# y_18(D)->code, D.13234
	cmpw	$63, %ax	#, D.13234
	jne	.L564	#,
	.loc 1 2270 0
	movq	-80(%rbp), %rax	# y, tmp244
	movq	8(%rax), %rax	# y_18(D)->fld[0].rtx, D.13235
	movl	8(%rax), %eax	# _74->fld[0].rtuint, D.13237
	movl	%eax, -44(%rbp)	# D.13237, reg_y
	.loc 1 2271 0
	movq	-80(%rbp), %rax	# y, tmp245
	movl	16(%rax), %eax	# y_18(D)->fld[1].rtuint, D.13237
	movl	%eax, -36(%rbp)	# D.13237, byte_y
	.loc 1 2273 0
	movq	reg_renumber(%rip), %rax	# reg_renumber, reg_renumber.69
	movl	-44(%rbp), %edx	# reg_y, tmp246
	movslq	%edx, %rdx	# tmp246, D.13238
	addq	%rdx, %rdx	# D.13238
	addq	%rdx, %rax	# D.13238, D.13239
	movzwl	(%rax), %eax	# *_82, D.13240
	testw	%ax, %ax	# D.13240
	js	.L566	#,
	.loc 1 2278 0
	movq	-80(%rbp), %rax	# y, tmp247
	movzbl	2(%rax), %eax	# y_18(D)->mode, D.13236
	.loc 1 2275 0
	movzbl	%al, %ecx	# D.13236, D.13241
	movl	-36(%rbp), %edx	# byte_y, byte_y.70
	.loc 1 2276 0
	movq	-80(%rbp), %rax	# y, tmp248
	movq	8(%rax), %rax	# y_18(D)->fld[0].rtx, D.13235
	movzbl	2(%rax), %eax	# _87->mode, D.13236
	.loc 1 2275 0
	movzbl	%al, %esi	# D.13236, D.13241
	movq	reg_renumber(%rip), %rax	# reg_renumber, reg_renumber.71
	movl	-44(%rbp), %edi	# reg_y, tmp249
	movslq	%edi, %rdi	# tmp249, D.13238
	addq	%rdi, %rdi	# D.13238
	addq	%rdi, %rax	# D.13238, D.13239
	movzwl	(%rax), %eax	# *_93, D.13240
	cwtl
	movl	%eax, %edi	# D.13237,
	call	subreg_regno_offset	#
	movl	%eax, -44(%rbp)	# D.13237, reg_y
	.loc 1 2279 0
	movl	$0, -36(%rbp)	#, byte_y
	jmp	.L566	#
.L564:
	.loc 1 2284 0
	movq	-80(%rbp), %rax	# y, tmp250
	movl	8(%rax), %eax	# y_18(D)->fld[0].rtuint, D.13237
	movl	%eax, -44(%rbp)	# D.13237, reg_y
	.loc 1 2285 0
	movq	reg_renumber(%rip), %rax	# reg_renumber, reg_renumber.72
	movl	-44(%rbp), %edx	# reg_y, tmp251
	movslq	%edx, %rdx	# tmp251, D.13238
	addq	%rdx, %rdx	# D.13238
	addq	%rdx, %rax	# D.13238, D.13239
	movzwl	(%rax), %eax	# *_104, D.13240
	testw	%ax, %ax	# D.13240
	js	.L566	#,
	.loc 1 2286 0
	movq	reg_renumber(%rip), %rax	# reg_renumber, reg_renumber.73
	movl	-44(%rbp), %edx	# reg_y, tmp252
	movslq	%edx, %rdx	# tmp252, D.13238
	addq	%rdx, %rdx	# D.13238
	addq	%rdx, %rax	# D.13238, D.13239
	movzwl	(%rax), %eax	# *_109, D.13240
	cwtl
	movl	%eax, -44(%rbp)	# tmp253, reg_y
.L566:
	.loc 1 2289 0
	cmpl	$0, -48(%rbp)	#, reg_x
	js	.L567	#,
	.loc 1 2289 0 is_stmt 0 discriminator 1
	movl	-48(%rbp), %eax	# reg_x, tmp254
	cmpl	-44(%rbp), %eax	# reg_y, tmp254
	jne	.L567	#,
	movl	-40(%rbp), %eax	# byte_x, tmp255
	cmpl	-36(%rbp), %eax	# byte_y, tmp255
	jne	.L567	#,
	.loc 1 2289 0 discriminator 3
	movl	$1, %eax	#, iftmp.74
	jmp	.L568	#
.L567:
	.loc 1 2289 0 discriminator 2
	movl	$0, %eax	#, iftmp.74
.L568:
	.loc 1 2289 0 discriminator 4
	jmp	.L555	#
.L557:
.LBE30:
	.loc 1 2294 0 is_stmt 1
	movq	-80(%rbp), %rax	# y, tmp256
	movzwl	(%rax), %eax	# y_18(D)->code, D.13234
	movzwl	%ax, %eax	# D.13234, D.13237
	cmpl	-28(%rbp), %eax	# code, D.13237
	je	.L569	#,
	.loc 1 2295 0
	movl	$0, %eax	#, D.13233
	jmp	.L555	#
.L569:
	.loc 1 2297 0
	movl	-28(%rbp), %eax	# code, tmp258
	subl	$36, %eax	#, tmp257
	cmpl	$33, %eax	#, tmp257
	ja	.L614	#,
	movl	%eax, %eax	# tmp257, tmp259
	movq	.L572(,%rax,8), %rax	#, tmp260
	jmp	*%rax	# tmp260
	.section	.rodata
	.align 8
	.align 4
.L572:
	.quad	.L571
	.quad	.L614
	.quad	.L614
	.quad	.L614
	.quad	.L614
	.quad	.L614
	.quad	.L614
	.quad	.L614
	.quad	.L573
	.quad	.L573
	.quad	.L614
	.quad	.L614
	.quad	.L614
	.quad	.L614
	.quad	.L614
	.quad	.L614
	.quad	.L614
	.quad	.L614
	.quad	.L574
	.quad	.L614
	.quad	.L614
	.quad	.L614
	.quad	.L614
	.quad	.L573
	.quad	.L614
	.quad	.L614
	.quad	.L614
	.quad	.L614
	.quad	.L614
	.quad	.L614
	.quad	.L614
	.quad	.L575
	.quad	.L576
	.quad	.L573
	.text
.L573:
	.loc 1 2303 0
	movl	$0, %eax	#, D.13233
	jmp	.L555	#
.L574:
	.loc 1 2306 0
	movq	-72(%rbp), %rax	# x, tmp261
	movq	8(%rax), %rdx	# x_15(D)->fld[0].rtwint, D.13242
	movq	-80(%rbp), %rax	# y, tmp262
	movq	8(%rax), %rax	# y_18(D)->fld[0].rtwint, D.13242
	cmpq	%rax, %rdx	# D.13242, D.13242
	sete	%al	#, D.13243
	movzbl	%al, %eax	# D.13243, D.13233
	jmp	.L555	#
.L575:
	.loc 1 2310 0
	movq	-72(%rbp), %rax	# x, tmp263
	movzbl	3(%rax), %eax	# *x_15(D), D.13236
	andl	$8, %eax	#, D.13236
	testb	%al, %al	# D.13236
	jne	.L577	#,
	.loc 1 2310 0 is_stmt 0 discriminator 1
	movq	-80(%rbp), %rax	# y, tmp264
	movzbl	3(%rax), %eax	# *y_18(D), D.13236
	andl	$8, %eax	#, D.13236
	testb	%al, %al	# D.13236
	je	.L578	#,
.L577:
	.loc 1 2311 0 is_stmt 1
	movq	-72(%rbp), %rax	# x, tmp265
	movq	8(%rax), %rdx	# x_15(D)->fld[0].rtx, D.13235
	movq	-80(%rbp), %rax	# y, tmp266
	movq	8(%rax), %rax	# y_18(D)->fld[0].rtx, D.13235
	cmpq	%rax, %rdx	# D.13235, D.13235
	sete	%al	#, D.13243
	movzbl	%al, %eax	# D.13243, D.13233
	jmp	.L555	#
.L578:
	.loc 1 2315 0
	movq	-72(%rbp), %rax	# x, tmp267
	movq	8(%rax), %rax	# x_15(D)->fld[0].rtx, D.13235
	movq	%rax, %rdi	# D.13235,
	call	next_real_insn	#
	movq	%rax, %rbx	#, D.13235
	.loc 1 2316 0
	movq	-80(%rbp), %rax	# y, tmp268
	movq	8(%rax), %rax	# y_18(D)->fld[0].rtx, D.13235
	movq	%rax, %rdi	# D.13235,
	call	next_real_insn	#
	cmpq	%rax, %rbx	# D.13235, D.13235
	sete	%al	#, D.13243
	.loc 1 2315 0
	movzbl	%al, %eax	# D.13243, D.13233
	jmp	.L555	#
.L576:
	.loc 1 2319 0
	movq	-72(%rbp), %rax	# x, tmp269
	movq	8(%rax), %rdx	# x_15(D)->fld[0].rtstr, D.13244
	movq	-80(%rbp), %rax	# y, tmp270
	movq	8(%rax), %rax	# y_18(D)->fld[0].rtstr, D.13244
	cmpq	%rax, %rdx	# D.13244, D.13244
	sete	%al	#, D.13243
	movzbl	%al, %eax	# D.13243, D.13233
	jmp	.L555	#
.L571:
	.loc 1 2323 0
	movl	$0, %eax	#, D.13233
	jmp	.L555	#
.L614:
	.loc 1 2326 0
	nop
	.loc 1 2331 0
	movq	-72(%rbp), %rax	# x, tmp271
	movzbl	2(%rax), %edx	# x_15(D)->mode, D.13236
	movq	-80(%rbp), %rax	# y, tmp272
	movzbl	2(%rax), %eax	# y_18(D)->mode, D.13236
	cmpb	%al, %dl	# D.13236, D.13236
	je	.L579	#,
	.loc 1 2332 0
	movl	$0, %eax	#, D.13233
	jmp	.L555	#
.L579:
	.loc 1 2338 0
	cmpl	$103, -28(%rbp)	#, code
	je	.L580	#,
	.loc 1 2338 0 is_stmt 0 discriminator 1
	cmpl	$102, -28(%rbp)	#, code
	je	.L580	#,
	movl	-28(%rbp), %eax	# code, code.75
	cltq
	movzbl	rtx_class(%rax), %eax	# rtx_class, D.13245
	cmpb	$99, %al	#, D.13245
	jne	.L581	#,
.L580:
	.loc 1 2339 0 is_stmt 1
	cmpl	$75, -28(%rbp)	#, code
	je	.L581	#,
	.loc 1 2340 0
	movq	-80(%rbp), %rax	# y, tmp274
	movq	8(%rax), %rdx	# y_18(D)->fld[0].rtx, D.13235
	movq	-72(%rbp), %rax	# x, tmp275
	movq	8(%rax), %rax	# x_15(D)->fld[0].rtx, D.13235
	movq	%rdx, %rsi	# D.13235,
	movq	%rax, %rdi	# D.13235,
	call	rtx_renumbered_equal_p	#
	.loc 1 2342 0
	testl	%eax, %eax	# D.13233
	je	.L582	#,
	.loc 1 2341 0
	movq	-80(%rbp), %rax	# y, tmp276
	movq	16(%rax), %rdx	# y_18(D)->fld[1].rtx, D.13235
	movq	-72(%rbp), %rax	# x, tmp277
	movq	16(%rax), %rax	# x_15(D)->fld[1].rtx, D.13235
	movq	%rdx, %rsi	# D.13235,
	movq	%rax, %rdi	# D.13235,
	call	rtx_renumbered_equal_p	#
	testl	%eax, %eax	# D.13233
	jne	.L583	#,
.L582:
	.loc 1 2342 0 discriminator 1
	movq	-80(%rbp), %rax	# y, tmp278
	movq	16(%rax), %rdx	# y_18(D)->fld[1].rtx, D.13235
	movq	-72(%rbp), %rax	# x, tmp279
	movq	8(%rax), %rax	# x_15(D)->fld[0].rtx, D.13235
	movq	%rdx, %rsi	# D.13235,
	movq	%rax, %rdi	# D.13235,
	call	rtx_renumbered_equal_p	#
	testl	%eax, %eax	# D.13233
	je	.L584	#,
	.loc 1 2343 0
	movq	-80(%rbp), %rax	# y, tmp280
	movq	8(%rax), %rdx	# y_18(D)->fld[0].rtx, D.13235
	movq	-72(%rbp), %rax	# x, tmp281
	movq	16(%rax), %rax	# x_15(D)->fld[1].rtx, D.13235
	movq	%rdx, %rsi	# D.13235,
	movq	%rax, %rdi	# D.13235,
	call	rtx_renumbered_equal_p	#
	testl	%eax, %eax	# D.13233
	je	.L584	#,
.L583:
	.loc 1 2342 0
	movl	$1, %eax	#, iftmp.76
	jmp	.L585	#
.L584:
	.loc 1 2342 0 is_stmt 0 discriminator 2
	movl	$0, %eax	#, iftmp.76
.L585:
	.loc 1 2340 0 is_stmt 1
	jmp	.L555	#
.L581:
	.loc 1 2344 0
	movl	-28(%rbp), %eax	# code, code.77
	cltq
	movzbl	rtx_class(%rax), %eax	# rtx_class, D.13245
	cmpb	$60, %al	#, D.13245
	je	.L586	#,
	.loc 1 2344 0 is_stmt 0 discriminator 1
	movl	-28(%rbp), %eax	# code, code.78
	cltq
	movzbl	rtx_class(%rax), %eax	# rtx_class, D.13245
	cmpb	$50, %al	#, D.13245
	jne	.L587	#,
.L586:
	.loc 1 2345 0 is_stmt 1
	movq	-80(%rbp), %rax	# y, tmp284
	movq	8(%rax), %rdx	# y_18(D)->fld[0].rtx, D.13235
	movq	-72(%rbp), %rax	# x, tmp285
	movq	8(%rax), %rax	# x_15(D)->fld[0].rtx, D.13235
	movq	%rdx, %rsi	# D.13235,
	movq	%rax, %rdi	# D.13235,
	call	rtx_renumbered_equal_p	#
	.loc 1 2346 0
	testl	%eax, %eax	# D.13233
	je	.L588	#,
	.loc 1 2346 0 is_stmt 0 discriminator 1
	movq	-80(%rbp), %rax	# y, tmp286
	movq	16(%rax), %rdx	# y_18(D)->fld[1].rtx, D.13235
	movq	-72(%rbp), %rax	# x, tmp287
	movq	16(%rax), %rax	# x_15(D)->fld[1].rtx, D.13235
	movq	%rdx, %rsi	# D.13235,
	movq	%rax, %rdi	# D.13235,
	call	rtx_renumbered_equal_p	#
	testl	%eax, %eax	# D.13233
	je	.L588	#,
	.loc 1 2346 0 discriminator 3
	movl	$1, %eax	#, iftmp.79
	jmp	.L589	#
.L588:
	.loc 1 2346 0 discriminator 2
	movl	$0, %eax	#, iftmp.79
.L589:
	.loc 1 2345 0 is_stmt 1
	jmp	.L555	#
.L587:
	.loc 1 2347 0
	movl	-28(%rbp), %eax	# code, code.80
	cltq
	movzbl	rtx_class(%rax), %eax	# rtx_class, D.13245
	cmpb	$49, %al	#, D.13245
	jne	.L590	#,
	.loc 1 2348 0
	movq	-80(%rbp), %rax	# y, tmp289
	movq	8(%rax), %rdx	# y_18(D)->fld[0].rtx, D.13235
	movq	-72(%rbp), %rax	# x, tmp290
	movq	8(%rax), %rax	# x_15(D)->fld[0].rtx, D.13235
	movq	%rdx, %rsi	# D.13235,
	movq	%rax, %rdi	# D.13235,
	call	rtx_renumbered_equal_p	#
	jmp	.L555	#
.L590:
	.loc 1 2353 0
	movl	-28(%rbp), %eax	# code, code.81
	cltq
	movq	rtx_format(,%rax,8), %rax	# rtx_format, tmp292
	movq	%rax, -24(%rbp)	# tmp292, fmt
	.loc 1 2354 0
	movl	-28(%rbp), %eax	# code, code.82
	cltq
	movzbl	rtx_length(%rax), %eax	# rtx_length, D.13236
	movzbl	%al, %eax	# D.13236, D.13233
	subl	$1, %eax	#, tmp294
	movl	%eax, -52(%rbp)	# tmp294, i
	jmp	.L591	#
.L612:
.LBB31:
	.loc 1 2357 0
	movl	-52(%rbp), %eax	# i, tmp295
	movslq	%eax, %rdx	# tmp295, D.13246
	movq	-24(%rbp), %rax	# fmt, tmp296
	addq	%rdx, %rax	# D.13246, D.13244
	movzbl	(%rax), %eax	# *_178, D.13245
	movsbl	%al, %eax	# D.13245, D.13233
	subl	$48, %eax	#, tmp297
	cmpl	$71, %eax	#, tmp297
	ja	.L592	#,
	movl	%eax, %eax	# tmp297, tmp298
	movq	.L594(,%rax,8), %rax	#, tmp299
	jmp	*%rax	# tmp299
	.section	.rodata
	.align 8
	.align 4
.L594:
	.quad	.L615
	.quad	.L592
	.quad	.L592
	.quad	.L592
	.quad	.L592
	.quad	.L592
	.quad	.L592
	.quad	.L592
	.quad	.L592
	.quad	.L592
	.quad	.L592
	.quad	.L592
	.quad	.L592
	.quad	.L592
	.quad	.L592
	.quad	.L592
	.quad	.L592
	.quad	.L592
	.quad	.L592
	.quad	.L592
	.quad	.L592
	.quad	.L595
	.quad	.L592
	.quad	.L592
	.quad	.L592
	.quad	.L592
	.quad	.L592
	.quad	.L592
	.quad	.L592
	.quad	.L592
	.quad	.L592
	.quad	.L592
	.quad	.L592
	.quad	.L592
	.quad	.L592
	.quad	.L592
	.quad	.L592
	.quad	.L592
	.quad	.L592
	.quad	.L592
	.quad	.L592
	.quad	.L592
	.quad	.L592
	.quad	.L592
	.quad	.L592
	.quad	.L592
	.quad	.L592
	.quad	.L592
	.quad	.L592
	.quad	.L592
	.quad	.L592
	.quad	.L592
	.quad	.L592
	.quad	.L596
	.quad	.L592
	.quad	.L592
	.quad	.L592
	.quad	.L597
	.quad	.L592
	.quad	.L592
	.quad	.L592
	.quad	.L592
	.quad	.L592
	.quad	.L592
	.quad	.L592
	.quad	.L592
	.quad	.L592
	.quad	.L598
	.quad	.L599
	.quad	.L600
	.quad	.L592
	.quad	.L601
	.text
.L601:
	.loc 1 2360 0
	movq	-72(%rbp), %rax	# x, tmp300
	movl	-52(%rbp), %edx	# i, tmp302
	movslq	%edx, %rdx	# tmp302, tmp301
	movq	8(%rax,%rdx,8), %rcx	# x_15(D)->fld[i_1].rtwint, D.13242
	movq	-80(%rbp), %rax	# y, tmp303
	movl	-52(%rbp), %edx	# i, tmp305
	movslq	%edx, %rdx	# tmp305, tmp304
	movq	8(%rax,%rdx,8), %rax	# y_18(D)->fld[i_1].rtwint, D.13242
	cmpq	%rax, %rcx	# D.13242, D.13242
	je	.L602	#,
	.loc 1 2361 0
	movl	$0, %eax	#, D.13233
	jmp	.L555	#
.L602:
	.loc 1 2362 0
	jmp	.L603	#
.L597:
	.loc 1 2365 0
	movq	-72(%rbp), %rax	# x, tmp306
	movl	-52(%rbp), %edx	# i, tmp308
	movslq	%edx, %rdx	# tmp308, tmp307
	movl	8(%rax,%rdx,8), %ecx	# x_15(D)->fld[i_1].rtint, D.13233
	movq	-80(%rbp), %rax	# y, tmp309
	movl	-52(%rbp), %edx	# i, tmp311
	movslq	%edx, %rdx	# tmp311, tmp310
	movl	8(%rax,%rdx,8), %eax	# y_18(D)->fld[i_1].rtint, D.13233
	cmpl	%eax, %ecx	# D.13233, D.13233
	je	.L604	#,
	.loc 1 2366 0
	movl	$0, %eax	#, D.13233
	jmp	.L555	#
.L604:
	.loc 1 2367 0
	jmp	.L603	#
.L599:
	.loc 1 2370 0
	movq	-72(%rbp), %rax	# x, tmp312
	movl	-52(%rbp), %edx	# i, tmp314
	movslq	%edx, %rdx	# tmp314, tmp313
	movq	8(%rax,%rdx,8), %rcx	# x_15(D)->fld[i_1].rttree, D.13247
	movq	-80(%rbp), %rax	# y, tmp315
	movl	-52(%rbp), %edx	# i, tmp317
	movslq	%edx, %rdx	# tmp317, tmp316
	movq	8(%rax,%rdx,8), %rax	# y_18(D)->fld[i_1].rttree, D.13247
	cmpq	%rax, %rcx	# D.13247, D.13247
	je	.L605	#,
	.loc 1 2371 0
	movl	$0, %eax	#, D.13233
	jmp	.L555	#
.L605:
	.loc 1 2372 0
	jmp	.L603	#
.L598:
	.loc 1 2375 0
	movq	-80(%rbp), %rax	# y, tmp318
	movl	-52(%rbp), %edx	# i, tmp320
	movslq	%edx, %rdx	# tmp320, tmp319
	movq	8(%rax,%rdx,8), %rdx	# y_18(D)->fld[i_1].rtstr, D.13244
	movq	-72(%rbp), %rax	# x, tmp321
	movl	-52(%rbp), %ecx	# i, tmp323
	movslq	%ecx, %rcx	# tmp323, tmp322
	movq	8(%rax,%rcx,8), %rax	# x_15(D)->fld[i_1].rtstr, D.13244
	movq	%rdx, %rsi	# D.13244,
	movq	%rax, %rdi	# D.13244,
	call	strcmp	#
	testl	%eax, %eax	# D.13233
	je	.L606	#,
	.loc 1 2376 0
	movl	$0, %eax	#, D.13233
	jmp	.L555	#
.L606:
	.loc 1 2377 0
	jmp	.L603	#
.L596:
	.loc 1 2380 0
	movq	-80(%rbp), %rax	# y, tmp324
	movl	-52(%rbp), %edx	# i, tmp326
	movslq	%edx, %rdx	# tmp326, tmp325
	movq	8(%rax,%rdx,8), %rdx	# y_18(D)->fld[i_1].rtx, D.13235
	movq	-72(%rbp), %rax	# x, tmp327
	movl	-52(%rbp), %ecx	# i, tmp329
	movslq	%ecx, %rcx	# tmp329, tmp328
	movq	8(%rax,%rcx,8), %rax	# x_15(D)->fld[i_1].rtx, D.13235
	movq	%rdx, %rsi	# D.13235,
	movq	%rax, %rdi	# D.13235,
	call	rtx_renumbered_equal_p	#
	testl	%eax, %eax	# D.13233
	jne	.L607	#,
	.loc 1 2381 0
	movl	$0, %eax	#, D.13233
	jmp	.L555	#
.L607:
	.loc 1 2382 0
	jmp	.L603	#
.L600:
	.loc 1 2385 0
	movq	-72(%rbp), %rax	# x, tmp330
	movl	-52(%rbp), %edx	# i, tmp332
	movslq	%edx, %rdx	# tmp332, tmp331
	movq	8(%rax,%rdx,8), %rcx	# x_15(D)->fld[i_1].rtx, D.13235
	movq	-80(%rbp), %rax	# y, tmp333
	movl	-52(%rbp), %edx	# i, tmp335
	movslq	%edx, %rdx	# tmp335, tmp334
	movq	8(%rax,%rdx,8), %rax	# y_18(D)->fld[i_1].rtx, D.13235
	cmpq	%rax, %rcx	# D.13235, D.13235
	je	.L593	#,
	.loc 1 2386 0
	movl	$0, %eax	#, D.13233
	jmp	.L555	#
.L593:
	.loc 1 2389 0
	jmp	.L615	#
.L595:
	.loc 1 2392 0
	movq	-72(%rbp), %rax	# x, tmp336
	movl	-52(%rbp), %edx	# i, tmp338
	movslq	%edx, %rdx	# tmp338, tmp337
	movq	8(%rax,%rdx,8), %rax	# x_15(D)->fld[i_1].rtvec, D.13248
	movl	(%rax), %ecx	# _201->num_elem, D.13233
	movq	-80(%rbp), %rax	# y, tmp339
	movl	-52(%rbp), %edx	# i, tmp341
	movslq	%edx, %rdx	# tmp341, tmp340
	movq	8(%rax,%rdx,8), %rax	# y_18(D)->fld[i_1].rtvec, D.13248
	movl	(%rax), %eax	# _203->num_elem, D.13233
	cmpl	%eax, %ecx	# D.13233, D.13233
	je	.L608	#,
	.loc 1 2393 0
	movl	$0, %eax	#, D.13233
	jmp	.L555	#
.L608:
	.loc 1 2394 0
	movq	-72(%rbp), %rax	# x, tmp342
	movl	-52(%rbp), %edx	# i, tmp344
	movslq	%edx, %rdx	# tmp344, tmp343
	movq	8(%rax,%rdx,8), %rax	# x_15(D)->fld[i_1].rtvec, D.13248
	movl	(%rax), %eax	# _206->num_elem, D.13233
	subl	$1, %eax	#, tmp345
	movl	%eax, -32(%rbp)	# tmp345, j
	jmp	.L609	#
.L611:
	.loc 1 2395 0
	movq	-80(%rbp), %rax	# y, tmp346
	movl	-52(%rbp), %edx	# i, tmp348
	movslq	%edx, %rdx	# tmp348, tmp347
	movq	8(%rax,%rdx,8), %rax	# y_18(D)->fld[i_1].rtvec, D.13248
	movl	-32(%rbp), %edx	# j, tmp350
	movslq	%edx, %rdx	# tmp350, tmp349
	movq	8(%rax,%rdx,8), %rdx	# _209->elem, D.13235
	movq	-72(%rbp), %rax	# x, tmp351
	movl	-52(%rbp), %ecx	# i, tmp353
	movslq	%ecx, %rcx	# tmp353, tmp352
	movq	8(%rax,%rcx,8), %rax	# x_15(D)->fld[i_1].rtvec, D.13248
	movl	-32(%rbp), %ecx	# j, tmp355
	movslq	%ecx, %rcx	# tmp355, tmp354
	movq	8(%rax,%rcx,8), %rax	# _211->elem, D.13235
	movq	%rdx, %rsi	# D.13235,
	movq	%rax, %rdi	# D.13235,
	call	rtx_renumbered_equal_p	#
	testl	%eax, %eax	# D.13233
	jne	.L610	#,
	.loc 1 2396 0
	movl	$0, %eax	#, D.13233
	jmp	.L555	#
.L610:
	.loc 1 2394 0
	subl	$1, -32(%rbp)	#, j
.L609:
	.loc 1 2394 0 is_stmt 0 discriminator 1
	cmpl	$0, -32(%rbp)	#, j
	jns	.L611	#,
	.loc 1 2397 0 is_stmt 1
	jmp	.L603	#
.L592:
	.loc 1 2400 0
	movl	$__FUNCTION__.11328, %edx	#,
	movl	$2400, %esi	#,
	movl	$.LC0, %edi	#,
	call	fancy_abort	#
.L615:
	.loc 1 2389 0
	nop
.L603:
.LBE31:
	.loc 1 2354 0
	subl	$1, -52(%rbp)	#, i
.L591:
	.loc 1 2354 0 is_stmt 0 discriminator 1
	cmpl	$0, -52(%rbp)	#, i
	jns	.L612	#,
	.loc 1 2403 0 is_stmt 1
	movl	$1, %eax	#, D.13233
.L555:
	.loc 1 2404 0
	addq	$72, %rsp	#,
	popq	%rbx	#
	popq	%rbp	#
	.cfi_def_cfa 7, 8
	ret
	.cfi_endproc
.LFE48:
	.size	rtx_renumbered_equal_p, .-rtx_renumbered_equal_p
	.globl	true_regnum
	.type	true_regnum, @function
true_regnum:
.LFB49:
	.loc 1 2414 0
	.cfi_startproc
	pushq	%rbp	#
	.cfi_def_cfa_offset 16
	.cfi_offset 6, -16
	movq	%rsp, %rbp	#,
	.cfi_def_cfa_register 6
	subq	$32, %rsp	#,
	movq	%rdi, -24(%rbp)	# x, x
	.loc 1 2415 0
	movq	-24(%rbp), %rax	# x, tmp89
	movzwl	(%rax), %eax	# x_2(D)->code, D.13250
	cmpw	$61, %ax	#, D.13250
	jne	.L617	#,
	.loc 1 2417 0
	movq	-24(%rbp), %rax	# x, tmp90
	movl	8(%rax), %eax	# x_2(D)->fld[0].rtuint, D.13251
	cmpl	$52, %eax	#, D.13251
	jbe	.L618	#,
	.loc 1 2417 0 is_stmt 0 discriminator 1
	movq	reg_renumber(%rip), %rdx	# reg_renumber, reg_renumber.83
	movq	-24(%rbp), %rax	# x, tmp91
	movl	8(%rax), %eax	# x_2(D)->fld[0].rtuint, D.13251
	movl	%eax, %eax	# D.13251, D.13252
	addq	%rax, %rax	# D.13252
	addq	%rdx, %rax	# reg_renumber.83, D.13253
	movzwl	(%rax), %eax	# *_9, D.13254
	testw	%ax, %ax	# D.13254
	js	.L618	#,
	.loc 1 2418 0 is_stmt 1
	movq	reg_renumber(%rip), %rdx	# reg_renumber, reg_renumber.84
	movq	-24(%rbp), %rax	# x, tmp92
	movl	8(%rax), %eax	# x_2(D)->fld[0].rtuint, D.13251
	movl	%eax, %eax	# D.13251, D.13252
	addq	%rax, %rax	# D.13252
	addq	%rdx, %rax	# reg_renumber.84, D.13253
	movzwl	(%rax), %eax	# *_15, D.13254
	cwtl
	jmp	.L619	#
.L618:
	.loc 1 2419 0
	movq	-24(%rbp), %rax	# x, tmp93
	movl	8(%rax), %eax	# x_2(D)->fld[0].rtuint, D.13251
	jmp	.L619	#
.L617:
	.loc 1 2421 0
	movq	-24(%rbp), %rax	# x, tmp94
	movzwl	(%rax), %eax	# x_2(D)->code, D.13250
	cmpw	$63, %ax	#, D.13250
	jne	.L620	#,
.LBB32:
	.loc 1 2423 0
	movq	-24(%rbp), %rax	# x, tmp95
	movq	8(%rax), %rax	# x_2(D)->fld[0].rtx, D.13255
	movq	%rax, %rdi	# D.13255,
	call	true_regnum	#
	movl	%eax, -4(%rbp)	# tmp96, base
	.loc 1 2424 0
	cmpl	$0, -4(%rbp)	#, base
	js	.L620	#,
	.loc 1 2424 0 is_stmt 0 discriminator 1
	cmpl	$52, -4(%rbp)	#, base
	jg	.L620	#,
	.loc 1 2427 0 is_stmt 1
	movq	-24(%rbp), %rax	# x, tmp97
	movzbl	2(%rax), %eax	# x_2(D)->mode, D.13256
	.loc 1 2425 0
	movzbl	%al, %ecx	# D.13256, D.13257
	movq	-24(%rbp), %rax	# x, tmp98
	movl	16(%rax), %edx	# x_2(D)->fld[1].rtuint, D.13251
	.loc 1 2426 0
	movq	-24(%rbp), %rax	# x, tmp99
	movq	8(%rax), %rax	# x_2(D)->fld[0].rtx, D.13255
	movzbl	2(%rax), %eax	# _26->mode, D.13256
	.loc 1 2425 0
	movzbl	%al, %esi	# D.13256, D.13257
	movq	-24(%rbp), %rax	# x, tmp100
	movq	8(%rax), %rax	# x_2(D)->fld[0].rtx, D.13255
	movl	8(%rax), %eax	# _29->fld[0].rtuint, D.13251
	movl	%eax, %edi	# D.13251,
	call	subreg_regno_offset	#
	movl	-4(%rbp), %edx	# base, base.85
	addl	%edx, %eax	# base.85, D.13251
	jmp	.L619	#
.L620:
.LBE32:
	.loc 1 2429 0
	movl	$-1, %eax	#, D.13249
.L619:
	.loc 1 2430 0
	leave
	.cfi_def_cfa 7, 8
	ret
	.cfi_endproc
.LFE49:
	.size	true_regnum, .-true_regnum
	.section	.rodata
	.align 16
	.type	__FUNCTION__.10866, @object
	.size	__FUNCTION__.10866, 25
__FUNCTION__.10866:
	.string	"duplicate_loop_exit_test"
	.align 16
	.type	__FUNCTION__.10950, @object
	.size	__FUNCTION__.10950, 18
__FUNCTION__.10950:
	.string	"reverse_condition"
	.align 32
	.type	__FUNCTION__.10969, @object
	.size	__FUNCTION__.10969, 34
__FUNCTION__.10969:
	.string	"reverse_condition_maybe_unordered"
	.type	__FUNCTION__.10992, @object
	.size	__FUNCTION__.10992, 15
__FUNCTION__.10992:
	.string	"swap_condition"
	.align 16
	.type	__FUNCTION__.11007, @object
	.size	__FUNCTION__.11007, 19
__FUNCTION__.11007:
	.string	"unsigned_condition"
	.align 16
	.type	__FUNCTION__.11022, @object
	.size	__FUNCTION__.11022, 17
__FUNCTION__.11022:
	.string	"signed_condition"
	.align 16
	.type	__FUNCTION__.11117, @object
	.size	__FUNCTION__.11117, 16
__FUNCTION__.11117:
	.string	"mark_jump_label"
	.type	__FUNCTION__.11139, @object
	.size	__FUNCTION__.11139, 15
__FUNCTION__.11139:
	.string	"delete_barrier"
	.type	__FUNCTION__.11275, @object
	.size	__FUNCTION__.11275, 13
__FUNCTION__.11275:
	.string	"invert_exp_1"
	.type	__FUNCTION__.11292, @object
	.size	__FUNCTION__.11292, 12
__FUNCTION__.11292:
	.string	"invert_jump"
	.align 16
	.type	__FUNCTION__.11328, @object
	.size	__FUNCTION__.11328, 23
__FUNCTION__.11328:
	.string	"rtx_renumbered_equal_p"
	.text
.Letext0:
	.file 2 "rtl.h"
	.file 3 "config.h"
	.file 4 "i386.h"
	.file 5 "/usr/lib/gcc/x86_64-linux-gnu/4.8/include/stddef.h"
	.file 6 "machmode.h"
	.file 7 "varray.h"
	.file 8 "regs.h"
	.file 9 "function.h"
	.file 10 "predict.h"
	.file 11 "flags.h"
	.section	.note.GNU-stack,"",@progbits
