	.file	"loop.c"
# GNU C (Ubuntu/Linaro 4.8.1-10ubuntu9) version 4.8.1 (x86_64-linux-gnu)
#	compiled by GNU C version 4.8.1, GMP version 5.1.2, MPFR version 3.1.1-p2, MPC version 1.0.1
# GGC heuristics: --param ggc-min-expand=100 --param ggc-min-heapsize=131072
# options passed:  -I . -imultiarch x86_64-linux-gnu -D SPEC_CPU -D NDEBUG
# -D SPEC_CPU_LP64 loop.c -mtune=generic -march=x86-64 -g -fverbose-asm
# -fno-strict-aliasing -fstack-protector -Wformat -Wformat-security
# options enabled:  -faggressive-loop-optimizations
# -fasynchronous-unwind-tables -fauto-inc-dec -fbranch-count-reg -fcommon
# -fdelete-null-pointer-checks -fdwarf2-cfi-asm -fearly-inlining
# -feliminate-unused-debug-types -ffunction-cse -fgcse-lm -fgnu-runtime
# -fident -finline-atomics -fira-hoist-pressure -fira-share-save-slots
# -fira-share-spill-slots -fivopts -fkeep-static-consts
# -fleading-underscore -fmath-errno -fmerge-debug-strings
# -fmove-loop-invariants -fpeephole -fprefetch-loop-arrays
# -freg-struct-return -fsched-critical-path-heuristic
# -fsched-dep-count-heuristic -fsched-group-heuristic -fsched-interblock
# -fsched-last-insn-heuristic -fsched-rank-heuristic -fsched-spec
# -fsched-spec-insn-heuristic -fsched-stalled-insns-dep -fshow-column
# -fsigned-zeros -fsplit-ivs-in-unroller -fstack-protector
# -fstrict-volatile-bitfields -fsync-libcalls -ftrapping-math
# -ftree-coalesce-vars -ftree-cselim -ftree-forwprop -ftree-loop-if-convert
# -ftree-loop-im -ftree-loop-ivcanon -ftree-loop-optimize
# -ftree-parallelize-loops= -ftree-phiprop -ftree-pta -ftree-reassoc
# -ftree-scev-cprop -ftree-slp-vectorize -ftree-vect-loop-version
# -funit-at-a-time -funwind-tables -fverbose-asm -fzero-initialized-in-bss
# -m128bit-long-double -m64 -m80387 -maccumulate-outgoing-args
# -malign-stringops -mfancy-math-387 -mfp-ret-in-387 -mfxsr -mglibc
# -mieee-fp -mlong-double-80 -mmmx -mno-sse4 -mpush-args -mred-zone -msse
# -msse2 -mtls-direct-seg-refs

	.text
.Ltext0:
	.comm	uid_luid,8,8
	.comm	uid_loop,8,8
	.comm	max_uid_for_loop,4,4
	.local	max_luid
	.comm	max_luid,4,4
	.local	max_loop_num
	.comm	max_loop_num,4,4
	.comm	max_reg_before_loop,4,4
	.local	loop_max_reg
	.comm	loop_max_reg,4,4
	.comm	loop_dump_stream,8,8
	.local	indirect_jump_in_function
	.comm	indirect_jump_in_function,4,4
	.local	copy_cost
	.comm	copy_cost,4,4
	.local	reg_address_cost
	.comm	reg_address_cost,4,4
	.globl	init_loop
	.type	init_loop, @function
init_loop:
.LFB2:
	.file 1 "loop.c"
	.loc 1 402 0
	.cfi_startproc
	pushq	%rbp	#
	.cfi_def_cfa_offset 16
	.cfi_offset 6, -16
	movq	%rsp, %rbp	#,
	.cfi_def_cfa_register 6
	subq	$16, %rsp	#,
	.loc 1 403 0
	movl	word_mode(%rip), %eax	# word_mode, word_mode.0
	movl	$58, %esi	#,
	movl	%eax, %edi	# word_mode.0,
	call	gen_rtx_REG	#
	movq	%rax, -8(%rbp)	# tmp61, reg
	.loc 1 405 0
	movq	-8(%rbp), %rax	# reg, tmp62
	movl	$4, %esi	#,
	movq	%rax, %rdi	# tmp62,
	call	address_cost	#
	movl	%eax, reg_address_cost(%rip)	# reg_address_cost.1, reg_address_cost
	.loc 1 407 0
	movl	$4, copy_cost(%rip)	#, copy_cost
	.loc 1 408 0
	leave
	.cfi_def_cfa 7, 8
	ret
	.cfi_endproc
.LFE2:
	.size	init_loop, .-init_loop
	.type	compute_luids, @function
compute_luids:
.LFB3:
	.loc 1 419 0
	.cfi_startproc
	pushq	%rbp	#
	.cfi_def_cfa_offset 16
	.cfi_offset 6, -16
	movq	%rsp, %rbp	#,
	.cfi_def_cfa_register 6
	movq	%rdi, -24(%rbp)	# start, start
	movq	%rsi, -32(%rbp)	# end, end
	movl	%edx, -36(%rbp)	# prev_luid, prev_luid
	.loc 1 423 0
	movq	-24(%rbp), %rax	# start, tmp75
	movq	%rax, -8(%rbp)	# tmp75, insn
	movl	-36(%rbp), %eax	# prev_luid, tmp76
	movl	%eax, -12(%rbp)	# tmp76, i
	jmp	.L3	#
.L8:
	.loc 1 425 0
	movq	-8(%rbp), %rax	# insn, tmp77
	movl	8(%rax), %edx	# insn_3->fld[0].rtint, D.24244
	movl	max_uid_for_loop(%rip), %eax	# max_uid_for_loop, max_uid_for_loop.2
	cmpl	%eax, %edx	# max_uid_for_loop.2, D.24244
	jl	.L4	#,
	.loc 1 426 0
	jmp	.L5	#
.L4:
	.loc 1 429 0
	movq	-8(%rbp), %rax	# insn, tmp78
	movzwl	(%rax), %eax	# insn_3->code, D.24245
	cmpw	$37, %ax	#, D.24245
	jne	.L6	#,
	.loc 1 430 0
	movq	-8(%rbp), %rax	# insn, tmp79
	movl	40(%rax), %eax	# insn_3->fld[4].rtint, D.24244
	testl	%eax, %eax	# D.24244
	jg	.L7	#,
.L6:
	.loc 1 431 0
	movq	uid_luid(%rip), %rdx	# uid_luid, uid_luid.3
	movq	-8(%rbp), %rax	# insn, tmp80
	movl	8(%rax), %eax	# insn_3->fld[0].rtint, D.24244
	cltq
	salq	$2, %rax	#, D.24246
	addq	%rax, %rdx	# D.24246, D.24247
	addl	$1, -12(%rbp)	#, i
	movl	-12(%rbp), %eax	# i, tmp81
	movl	%eax, (%rdx)	# tmp81, *_22
	jmp	.L5	#
.L7:
	.loc 1 434 0
	movq	uid_luid(%rip), %rdx	# uid_luid, uid_luid.4
	movq	-8(%rbp), %rax	# insn, tmp82
	movl	8(%rax), %eax	# insn_3->fld[0].rtint, D.24244
	cltq
	salq	$2, %rax	#, D.24246
	addq	%rax, %rdx	# D.24246, D.24247
	movl	-12(%rbp), %eax	# i, tmp83
	movl	%eax, (%rdx)	# tmp83, *_17
.L5:
	.loc 1 423 0
	movq	-8(%rbp), %rax	# insn, tmp84
	movq	24(%rax), %rax	# insn_3->fld[2].rtx, tmp85
	movq	%rax, -8(%rbp)	# tmp85, insn
.L3:
	.loc 1 423 0 is_stmt 0 discriminator 1
	movq	-8(%rbp), %rax	# insn, tmp86
	cmpq	-32(%rbp), %rax	# end, tmp86
	jne	.L8	#,
	.loc 1 436 0 is_stmt 1
	movl	-12(%rbp), %eax	# i, tmp87
	addl	$1, %eax	#, D.24244
	.loc 1 437 0
	popq	%rbp	#
	.cfi_def_cfa 7, 8
	ret
	.cfi_endproc
.LFE3:
	.size	compute_luids, .-compute_luids
	.section	.rodata
.LC0:
	.string	"loop.c"
	.text
	.globl	loop_optimize
	.type	loop_optimize, @function
loop_optimize:
.LFB4:
	.loc 1 450 0
	.cfi_startproc
	pushq	%rbp	#
	.cfi_def_cfa_offset 16
	.cfi_offset 6, -16
	movq	%rsp, %rbp	#,
	.cfi_def_cfa_register 6
	subq	$144, %rsp	#,
	movq	%rdi, -120(%rbp)	# f, f
	movq	%rsi, -128(%rbp)	# dumpfile, dumpfile
	movl	%edx, -132(%rbp)	# flags, flags
	.loc 1 454 0
	leaq	-64(%rbp), %rax	#, tmp134
	movq	%rax, -88(%rbp)	# tmp134, loops
	.loc 1 457 0
	movq	-128(%rbp), %rax	# dumpfile, tmp135
	movq	%rax, loop_dump_stream(%rip)	# tmp135, loop_dump_stream
	.loc 1 459 0
	call	init_recog_no_volatile	#
	.loc 1 461 0
	call	max_reg_num	#
	movl	%eax, max_reg_before_loop(%rip)	# max_reg_before_loop.5, max_reg_before_loop
	.loc 1 462 0
	movl	max_reg_before_loop(%rip), %eax	# max_reg_before_loop, max_reg_before_loop.6
	movl	%eax, loop_max_reg(%rip)	# max_reg_before_loop.7, loop_max_reg
	.loc 1 464 0
	movq	$0, regs_may_share(%rip)	#, regs_may_share
	.loc 1 468 0
	movl	$0, max_loop_num(%rip)	#, max_loop_num
	.loc 1 469 0
	movq	-120(%rbp), %rax	# f, tmp136
	movq	%rax, -96(%rbp)	# tmp136, insn
	jmp	.L11	#
.L13:
	.loc 1 471 0
	movq	-96(%rbp), %rax	# insn, tmp137
	movzwl	(%rax), %eax	# insn_1->code, D.24249
	cmpw	$37, %ax	#, D.24249
	jne	.L12	#,
	.loc 1 472 0
	movq	-96(%rbp), %rax	# insn, tmp138
	movl	40(%rax), %eax	# insn_1->fld[4].rtint, D.24248
	cmpl	$-96, %eax	#, D.24248
	jne	.L12	#,
	.loc 1 473 0
	movl	max_loop_num(%rip), %eax	# max_loop_num, max_loop_num.8
	addl	$1, %eax	#, max_loop_num.9
	movl	%eax, max_loop_num(%rip)	# max_loop_num.9, max_loop_num
.L12:
	.loc 1 469 0
	movq	-96(%rbp), %rax	# insn, tmp139
	movq	24(%rax), %rax	# insn_1->fld[2].rtx, tmp140
	movq	%rax, -96(%rbp)	# tmp140, insn
.L11:
	.loc 1 469 0 is_stmt 0 discriminator 1
	cmpq	$0, -96(%rbp)	#, insn
	jne	.L13	#,
	.loc 1 477 0 is_stmt 1
	movl	max_loop_num(%rip), %eax	# max_loop_num, max_loop_num.10
	testl	%eax, %eax	# max_loop_num.10
	je	.L10	#,
	.loc 1 480 0
	movl	max_loop_num(%rip), %edx	# max_loop_num, max_loop_num.11
	movq	-88(%rbp), %rax	# loops, tmp141
	movl	%edx, (%rax)	# max_loop_num.11, loops_6->num
	.loc 1 484 0
	call	get_max_uid	#
	leal	1(%rax), %edx	#, D.24248
	movl	max_loop_num(%rip), %eax	# max_loop_num, max_loop_num.12
	sall	$5, %eax	#, D.24248
	addl	%edx, %eax	# D.24248, max_uid_for_loop.13
	movl	%eax, max_uid_for_loop(%rip)	# max_uid_for_loop.13, max_uid_for_loop
	.loc 1 486 0
	movl	max_uid_for_loop(%rip), %eax	# max_uid_for_loop, max_uid_for_loop.14
	cltq
	movl	$4, %esi	#,
	movq	%rax, %rdi	# D.24250,
	call	xcalloc	#
	movq	%rax, uid_luid(%rip)	# uid_luid.15, uid_luid
	.loc 1 487 0
	movl	max_uid_for_loop(%rip), %eax	# max_uid_for_loop, max_uid_for_loop.16
	cltq
	movl	$8, %esi	#,
	movq	%rax, %rdi	# D.24250,
	call	xcalloc	#
	movq	%rax, uid_loop(%rip)	# uid_loop.17, uid_loop
	.loc 1 492 0
	movq	-88(%rbp), %rax	# loops, tmp144
	movl	(%rax), %eax	# loops_6->num, D.24248
	cltq
	movl	$248, %esi	#,
	movq	%rax, %rdi	# D.24250,
	call	xcalloc	#
	movq	%rax, %rdx	# tmp145, D.24251
	.loc 1 491 0
	movq	-88(%rbp), %rax	# loops, tmp146
	movq	%rdx, 8(%rax)	# D.24251, loops_6->array
	.loc 1 496 0
	movq	-88(%rbp), %rdx	# loops, tmp147
	movq	-120(%rbp), %rax	# f, tmp148
	movq	%rdx, %rsi	# tmp147,
	movq	%rax, %rdi	# tmp148,
	call	find_and_verify_loops	#
	.loc 1 499 0
	movq	-88(%rbp), %rax	# loops, tmp149
	movl	(%rax), %eax	# loops_6->num, D.24248
	cltq
	movl	$240, %esi	#,
	movq	%rax, %rdi	# D.24250,
	call	xcalloc	#
	movq	%rax, -80(%rbp)	# tmp150, loops_info
	.loc 1 500 0
	movl	$0, -100(%rbp)	#, i
	jmp	.L16	#
.L17:
	.loc 1 501 0 discriminator 2
	movq	-88(%rbp), %rax	# loops, tmp151
	movq	8(%rax), %rdx	# loops_6->array, D.24252
	movl	-100(%rbp), %eax	# i, tmp152
	cltq
	salq	$3, %rax	#, tmp154
	movq	%rax, %rcx	# tmp153, tmp155
	salq	$5, %rcx	#, tmp155
	subq	%rax, %rcx	# tmp153, D.24250
	movq	%rcx, %rax	# D.24250, D.24250
	addq	%rax, %rdx	# D.24250, D.24252
	movl	-100(%rbp), %eax	# i, tmp156
	cltq
	salq	$4, %rax	#, tmp158
	movq	%rax, %rcx	# tmp157, tmp159
	salq	$4, %rcx	#, tmp159
	subq	%rax, %rcx	# tmp157, D.24250
	movq	-80(%rbp), %rax	# loops_info, tmp160
	addq	%rcx, %rax	# D.24250, D.24251
	movq	%rax, 160(%rdx)	# D.24251, _43->aux
	.loc 1 500 0 discriminator 2
	addl	$1, -100(%rbp)	#, i
.L16:
	.loc 1 500 0 is_stmt 0 discriminator 1
	movq	-88(%rbp), %rax	# loops, tmp161
	movl	(%rax), %eax	# loops_6->num, D.24248
	cmpl	-100(%rbp), %eax	# i, D.24248
	jg	.L17	#,
	.loc 1 506 0 is_stmt 1
	movl	max_reg_before_loop(%rip), %ecx	# max_reg_before_loop, max_reg_before_loop.18
	movq	-120(%rbp), %rax	# f, tmp162
	movl	$1, %edx	#,
	movl	%ecx, %esi	# max_reg_before_loop.18,
	movq	%rax, %rdi	# tmp162,
	call	reg_scan	#
	.loc 1 513 0
	call	init_alias_analysis	#
	.loc 1 517 0
	call	get_max_uid	#
	movl	max_uid_for_loop(%rip), %edx	# max_uid_for_loop, max_uid_for_loop.19
	cmpl	%edx, %eax	# max_uid_for_loop.19, D.24248
	jle	.L18	#,
	.loc 1 518 0
	movl	$__FUNCTION__.12570, %edx	#,
	movl	$518, %esi	#,
	movl	$.LC0, %edi	#,
	call	fancy_abort	#
.L18:
	.loc 1 520 0
	call	get_max_uid	#
	movl	%eax, max_uid_for_loop(%rip)	# max_uid_for_loop.20, max_uid_for_loop
	.loc 1 525 0
	movq	-120(%rbp), %rax	# f, tmp163
	movl	$0, %edx	#,
	movl	$0, %esi	#,
	movq	%rax, %rdi	# tmp163,
	call	compute_luids	#
	movl	%eax, max_luid(%rip)	# max_luid.21, max_luid
	.loc 1 532 0
	movl	$0, -100(%rbp)	#, i
	jmp	.L19	#
.L22:
	.loc 1 534 0
	movq	uid_luid(%rip), %rax	# uid_luid, uid_luid.22
	movq	uid_luid(%rip), %rdx	# uid_luid, uid_luid.23
	movl	-100(%rbp), %ecx	# i, tmp164
	movslq	%ecx, %rcx	# tmp164, D.24250
	salq	$2, %rcx	#, D.24250
	addq	%rcx, %rdx	# D.24250, D.24253
	movl	(%rdx), %edx	# *_59, D.24248
	movl	%edx, (%rax)	# D.24248, *uid_luid.22_55
	.loc 1 535 0
	movq	uid_luid(%rip), %rax	# uid_luid, uid_luid.24
	movl	(%rax), %eax	# *uid_luid.24_61, D.24248
	testl	%eax, %eax	# D.24248
	je	.L20	#,
	.loc 1 536 0
	jmp	.L21	#
.L20:
	.loc 1 532 0
	addl	$1, -100(%rbp)	#, i
.L19:
	.loc 1 532 0 is_stmt 0 discriminator 1
	movl	max_uid_for_loop(%rip), %eax	# max_uid_for_loop, max_uid_for_loop.25
	cmpl	%eax, -100(%rbp)	# max_uid_for_loop.25, i
	jl	.L22	#,
.L21:
	.loc 1 538 0 is_stmt 1
	movl	$0, -100(%rbp)	#, i
	jmp	.L23	#
.L25:
	.loc 1 539 0
	movq	uid_luid(%rip), %rax	# uid_luid, uid_luid.26
	movl	-100(%rbp), %edx	# i, tmp165
	movslq	%edx, %rdx	# tmp165, D.24250
	salq	$2, %rdx	#, D.24250
	addq	%rdx, %rax	# D.24250, D.24253
	movl	(%rax), %eax	# *_69, D.24248
	testl	%eax, %eax	# D.24248
	jne	.L24	#,
	.loc 1 540 0
	movq	uid_luid(%rip), %rax	# uid_luid, uid_luid.27
	movl	-100(%rbp), %edx	# i, tmp166
	movslq	%edx, %rdx	# tmp166, D.24250
	salq	$2, %rdx	#, D.24250
	addq	%rax, %rdx	# uid_luid.27, D.24253
	movq	uid_luid(%rip), %rax	# uid_luid, uid_luid.28
	movl	-100(%rbp), %ecx	# i, tmp167
	movslq	%ecx, %rcx	# tmp167, D.24250
	salq	$2, %rcx	#, D.24250
	subq	$4, %rcx	#, D.24254
	addq	%rcx, %rax	# D.24254, D.24253
	movl	(%rax), %eax	# *_79, D.24248
	movl	%eax, (%rdx)	# D.24248, *_74
.L24:
	.loc 1 538 0
	addl	$1, -100(%rbp)	#, i
.L23:
	.loc 1 538 0 is_stmt 0 discriminator 1
	movl	max_uid_for_loop(%rip), %eax	# max_uid_for_loop, max_uid_for_loop.29
	cmpl	%eax, -100(%rbp)	# max_uid_for_loop.29, i
	jl	.L25	#,
	.loc 1 544 0 is_stmt 1
	movq	-120(%rbp), %rax	# f, tmp168
	movq	%rax, %rdi	# tmp168,
	call	indirect_jump_in_function_p	#
	movl	%eax, indirect_jump_in_function(%rip)	# indirect_jump_in_function.30, indirect_jump_in_function
	.loc 1 548 0
	movl	max_loop_num(%rip), %eax	# max_loop_num, max_loop_num.31
	subl	$1, %eax	#, tmp169
	movl	%eax, -100(%rbp)	# tmp169, i
	jmp	.L26	#
.L28:
.LBB2:
	.loc 1 550 0
	movq	-88(%rbp), %rax	# loops, tmp170
	movq	8(%rax), %rdx	# loops_6->array, D.24252
	movl	-100(%rbp), %eax	# i, tmp171
	cltq
	salq	$3, %rax	#, tmp173
	movq	%rax, %rcx	# tmp172, tmp174
	salq	$5, %rcx	#, tmp174
	subq	%rax, %rcx	# tmp172, D.24250
	movq	%rcx, %rax	# D.24250, D.24250
	addq	%rdx, %rax	# D.24252, tmp175
	movq	%rax, -72(%rbp)	# tmp175, loop
	.loc 1 552 0
	movq	-72(%rbp), %rax	# loop, tmp176
	movl	156(%rax), %eax	# loop_88->invalid, D.24248
	testl	%eax, %eax	# D.24248
	jne	.L27	#,
	.loc 1 552 0 is_stmt 0 discriminator 1
	movq	-72(%rbp), %rax	# loop, tmp177
	movq	200(%rax), %rax	# loop_88->end, D.24255
	testq	%rax, %rax	# D.24255
	je	.L27	#,
	.loc 1 553 0 is_stmt 1
	movl	-132(%rbp), %edx	# flags, tmp178
	movq	-72(%rbp), %rax	# loop, tmp179
	movl	%edx, %esi	# tmp178,
	movq	%rax, %rdi	# tmp179,
	call	scan_loop	#
.L27:
.LBE2:
	.loc 1 548 0
	subl	$1, -100(%rbp)	#, i
.L26:
	.loc 1 548 0 is_stmt 0 discriminator 1
	cmpl	$0, -100(%rbp)	#, i
	jns	.L28	#,
	.loc 1 560 0 is_stmt 1
	movl	write_symbols(%rip), %eax	# write_symbols, write_symbols.32
	testl	%eax, %eax	# write_symbols.32
	je	.L29	#,
	.loc 1 561 0
	call	reorder_blocks	#
.L29:
	.loc 1 563 0
	call	end_alias_analysis	#
	.loc 1 566 0
	movq	uid_luid(%rip), %rax	# uid_luid, uid_luid.33
	movq	%rax, %rdi	# uid_luid.33,
	call	free	#
	.loc 1 567 0
	movq	uid_loop(%rip), %rax	# uid_loop, uid_loop.34
	movq	%rax, %rdi	# uid_loop.34,
	call	free	#
	.loc 1 568 0
	movq	-80(%rbp), %rax	# loops_info, tmp180
	movq	%rax, %rdi	# tmp180,
	call	free	#
	.loc 1 569 0
	movq	-88(%rbp), %rax	# loops, tmp181
	movq	8(%rax), %rax	# loops_6->array, D.24252
	movq	%rax, %rdi	# D.24252,
	call	free	#
.L10:
	.loc 1 570 0
	leave
	.cfi_def_cfa 7, 8
	ret
	.cfi_endproc
.LFE4:
	.size	loop_optimize, .-loop_optimize
	.type	next_insn_in_loop, @function
next_insn_in_loop:
.LFB5:
	.loc 1 582 0
	.cfi_startproc
	pushq	%rbp	#
	.cfi_def_cfa_offset 16
	.cfi_offset 6, -16
	movq	%rsp, %rbp	#,
	.cfi_def_cfa_register 6
	movq	%rdi, -8(%rbp)	# loop, loop
	movq	%rsi, -16(%rbp)	# insn, insn
	.loc 1 583 0
	movq	-16(%rbp), %rax	# insn, tmp64
	movq	24(%rax), %rax	# insn_3(D)->fld[2].rtx, tmp65
	movq	%rax, -16(%rbp)	# tmp65, insn
	.loc 1 585 0
	movq	-8(%rbp), %rax	# loop, tmp66
	movq	200(%rax), %rax	# loop_5(D)->end, D.24257
	cmpq	-16(%rbp), %rax	# insn, D.24257
	jne	.L31	#,
	.loc 1 587 0
	movq	-8(%rbp), %rax	# loop, tmp67
	movq	208(%rax), %rax	# loop_5(D)->top, D.24257
	testq	%rax, %rax	# D.24257
	je	.L32	#,
	.loc 1 589 0
	movq	-8(%rbp), %rax	# loop, tmp68
	movq	208(%rax), %rax	# loop_5(D)->top, tmp69
	movq	%rax, -16(%rbp)	# tmp69, insn
	jmp	.L31	#
.L32:
	.loc 1 592 0
	movq	$0, -16(%rbp)	#, insn
.L31:
	.loc 1 595 0
	movq	-8(%rbp), %rax	# loop, tmp70
	movq	216(%rax), %rax	# loop_5(D)->scan_start, D.24257
	cmpq	-16(%rbp), %rax	# insn, D.24257
	jne	.L33	#,
	.loc 1 597 0
	movq	$0, -16(%rbp)	#, insn
.L33:
	.loc 1 599 0
	movq	-16(%rbp), %rax	# insn, D.24258
	.loc 1 600 0
	popq	%rbp	#
	.cfi_def_cfa 7, 8
	ret
	.cfi_endproc
.LFE5:
	.size	next_insn_in_loop, .-next_insn_in_loop
	.section	.rodata
	.align 8
.LC1:
	.string	"\nLoop from %d to %d is phony.\n\n"
	.align 8
.LC2:
	.string	"\nLoop from %d to %d: %d real insns.\n"
.LC3:
	.string	"Continue at insn %d.\n"
	.text
	.type	scan_loop, @function
scan_loop:
.LFB6:
	.loc 1 614 0
	.cfi_startproc
	pushq	%rbp	#
	.cfi_def_cfa_offset 16
	.cfi_offset 6, -16
	movq	%rsp, %rbp	#,
	.cfi_def_cfa_register 6
	pushq	%rbx	#
	subq	$216, %rsp	#,
	.cfi_offset 3, -24
	movq	%rdi, -216(%rbp)	# loop, loop
	movl	%esi, -220(%rbp)	# flags, flags
	.loc 1 615 0
	movq	-216(%rbp), %rax	# loop, tmp695
	movq	160(%rax), %rax	# loop_64(D)->aux, tmp696
	movq	%rax, -120(%rbp)	# tmp696, loop_info
	.loc 1 616 0
	movq	-216(%rbp), %rax	# loop, tmp697
	movq	160(%rax), %rax	# loop_64(D)->aux, D.24259
	addq	$184, %rax	#, tmp698
	movq	%rax, -112(%rbp)	# tmp698, regs
	.loc 1 618 0
	movq	-216(%rbp), %rax	# loop, tmp699
	movq	192(%rax), %rax	# loop_64(D)->start, tmp700
	movq	%rax, -104(%rbp)	# tmp700, loop_start
	.loc 1 619 0
	movq	-216(%rbp), %rax	# loop, tmp701
	movq	200(%rax), %rax	# loop_64(D)->end, tmp702
	movq	%rax, -96(%rbp)	# tmp702, loop_end
	.loc 1 622 0
	movl	$0, -196(%rbp)	#, maybe_never
	.loc 1 625 0
	movl	$0, -192(%rbp)	#, call_passed
	.loc 1 627 0
	movq	$0, -88(%rbp)	#, loop_entry_jump
	.loc 1 635 0
	movq	-216(%rbp), %rax	# loop, tmp703
	movq	160(%rax), %rax	# loop_64(D)->aux, D.24259
	addq	$168, %rax	#, tmp704
	movq	%rax, -80(%rbp)	# tmp704, movables
	.loc 1 642 0
	movl	$0, -188(%rbp)	#, loop_depth
	.loc 1 644 0
	movq	-216(%rbp), %rax	# loop, tmp705
	movq	$0, 208(%rax)	#, loop_64(D)->top
	.loc 1 646 0
	movq	-80(%rbp), %rax	# movables, tmp706
	movq	$0, (%rax)	#, movables_74->head
	.loc 1 647 0
	movq	-80(%rbp), %rax	# movables, tmp707
	movq	$0, 8(%rax)	#, movables_74->last
	.loc 1 665 0
	movq	-104(%rbp), %rax	# loop_start, tmp708
	movq	24(%rax), %rax	# loop_start_68->fld[2].rtx, tmp709
	movq	%rax, -152(%rbp)	# tmp709, p
	jmp	.L36	#
.L38:
	.loc 1 671 0
	movq	-152(%rbp), %rax	# p, tmp710
	movq	24(%rax), %rax	# p_6->fld[2].rtx, tmp711
	movq	%rax, -152(%rbp)	# tmp711, p
.L36:
	.loc 1 665 0 discriminator 1
	movq	-152(%rbp), %rax	# p, tmp712
	cmpq	-96(%rbp), %rax	# loop_end, tmp712
	je	.L37	#,
	.loc 1 667 0
	movq	-152(%rbp), %rax	# p, tmp713
	movzwl	(%rax), %eax	# p_6->code, D.24260
	cmpw	$36, %ax	#, D.24260
	je	.L37	#,
	.loc 1 667 0 is_stmt 0 discriminator 1
	movq	-152(%rbp), %rax	# p, tmp714
	movzwl	(%rax), %eax	# p_6->code, D.24260
	movzwl	%ax, %eax	# D.24260, D.24261
	cltq
	movzbl	rtx_class(%rax), %eax	# rtx_class, D.24262
	cmpb	$105, %al	#, D.24262
	je	.L37	#,
	.loc 1 668 0 is_stmt 1
	movq	-152(%rbp), %rax	# p, tmp716
	movzwl	(%rax), %eax	# p_6->code, D.24260
	cmpw	$37, %ax	#, D.24260
	jne	.L38	#,
	.loc 1 669 0
	movq	-152(%rbp), %rax	# p, tmp717
	movl	40(%rax), %eax	# p_6->fld[4].rtint, D.24261
	cmpl	$-96, %eax	#, D.24261
	je	.L37	#,
	.loc 1 670 0
	movq	-152(%rbp), %rax	# p, tmp718
	movl	40(%rax), %eax	# p_6->fld[4].rtint, D.24261
	cmpl	$-95, %eax	#, D.24261
	jne	.L38	#,
.L37:
	.loc 1 674 0
	movq	-216(%rbp), %rax	# loop, tmp719
	movq	-152(%rbp), %rdx	# p, tmp720
	movq	%rdx, 216(%rax)	# tmp720, loop_64(D)->scan_start
	.loc 1 680 0
	movq	-216(%rbp), %rax	# loop, tmp721
	movq	200(%rax), %rax	# loop_64(D)->end, D.24263
	movq	24(%rax), %rax	# _85->fld[2].rtx, D.24263
	testq	%rax, %rax	# D.24263
	je	.L39	#,
	.loc 1 681 0
	movq	-216(%rbp), %rax	# loop, tmp722
	movq	200(%rax), %rax	# loop_64(D)->end, D.24263
	movq	24(%rax), %rdx	# _87->fld[2].rtx, D.24263
	movq	-216(%rbp), %rax	# loop, tmp723
	movq	%rdx, 224(%rax)	# D.24263, loop_64(D)->sink
	jmp	.L40	#
.L39:
	.loc 1 683 0
	movq	-216(%rbp), %rax	# loop, tmp724
	movq	200(%rax), %rax	# loop_64(D)->end, D.24263
	movq	%rax, %rsi	# D.24263,
	movl	$-99, %edi	#,
	call	emit_note_after	#
	movq	-216(%rbp), %rdx	# loop, tmp725
	movq	%rax, 224(%rdx)	# D.24263, loop_64(D)->sink
.L40:
	.loc 1 686 0
	movq	-216(%rbp), %rax	# loop, tmp726
	movq	%rax, %rdi	# tmp726,
	call	prescan_loop	#
	.loc 1 687 0
	movq	-120(%rbp), %rax	# loop_info, tmp727
	movl	(%rax), %eax	# loop_info_65->has_call, D.24261
	testl	%eax, %eax	# D.24261
	je	.L41	#,
	.loc 1 687 0 is_stmt 0 discriminator 1
	movl	$1, %eax	#, iftmp.35
	jmp	.L42	#
.L41:
	.loc 1 687 0 discriminator 2
	movl	$2, %eax	#, iftmp.35
.L42:
	.loc 1 687 0 discriminator 3
	movl	n_non_fixed_regs(%rip), %edx	# n_non_fixed_regs, n_non_fixed_regs.36
	addl	$1, %edx	#, D.24261
	imull	%edx, %eax	# D.24261, tmp728
	movl	%eax, -172(%rbp)	# tmp728, threshold
	.loc 1 694 0 is_stmt 1 discriminator 3
	movq	-152(%rbp), %rax	# p, tmp729
	movzwl	(%rax), %eax	# p_6->code, D.24260
	cmpw	$33, %ax	#, D.24260
	jne	.L43	#,
	.loc 1 696 0
	movq	-152(%rbp), %rax	# p, tmp730
	movq	%rax, -88(%rbp)	# tmp730, loop_entry_jump
	.loc 1 699 0
	movq	-152(%rbp), %rax	# p, tmp731
	movq	%rax, %rdi	# tmp731,
	call	any_uncondjump_p	#
	testl	%eax, %eax	# D.24261
	je	.L43	#,
	.loc 1 700 0
	movq	-152(%rbp), %rax	# p, tmp732
	movq	64(%rax), %rax	# p_6->fld[7].rtx, D.24263
	testq	%rax, %rax	# D.24263
	je	.L43	#,
	.loc 1 707 0
	movq	-152(%rbp), %rax	# p, tmp733
	movq	64(%rax), %rax	# p_6->fld[7].rtx, D.24263
	movl	8(%rax), %edx	# _101->fld[0].rtint, D.24261
	movl	max_uid_for_loop(%rip), %eax	# max_uid_for_loop, max_uid_for_loop.37
	cmpl	%eax, %edx	# max_uid_for_loop.37, D.24261
	jge	.L43	#,
	.loc 1 707 0 is_stmt 0 discriminator 1
	movq	-152(%rbp), %rax	# p, tmp734
	movq	64(%rax), %rax	# p_6->fld[7].rtx, D.24263
	movl	8(%rax), %edx	# _104->fld[0].rtint, D.24261
	movl	max_uid_for_loop(%rip), %eax	# max_uid_for_loop, max_uid_for_loop.39
	cmpl	%eax, %edx	# max_uid_for_loop.39, D.24261
	jge	.L44	#,
	movq	uid_luid(%rip), %rdx	# uid_luid, uid_luid.40
	movq	-152(%rbp), %rax	# p, tmp735
	movq	64(%rax), %rax	# p_6->fld[7].rtx, D.24263
	movl	8(%rax), %eax	# _108->fld[0].rtint, D.24261
	cltq
	salq	$2, %rax	#, D.24264
	addq	%rdx, %rax	# uid_luid.40, D.24265
	movl	(%rax), %edx	# *_112, iftmp.38
	movq	-104(%rbp), %rax	# loop_start, tmp736
	movl	8(%rax), %ecx	# loop_start_68->fld[0].rtint, D.24261
	movl	max_uid_for_loop(%rip), %eax	# max_uid_for_loop, max_uid_for_loop.42
	cmpl	%eax, %ecx	# max_uid_for_loop.42, D.24261
	jge	.L46	#,
	jmp	.L205	#
.L44:
	.loc 1 707 0 discriminator 2
	movl	$__FUNCTION__.12611, %edx	#,
	movl	$707, %esi	#,
	movl	$.LC0, %edi	#,
	call	fancy_abort	#
.L205:
	.loc 1 707 0 discriminator 1
	movq	uid_luid(%rip), %rcx	# uid_luid, uid_luid.43
	movq	-104(%rbp), %rax	# loop_start, tmp737
	movl	8(%rax), %eax	# loop_start_68->fld[0].rtint, D.24261
	cltq
	salq	$2, %rax	#, D.24264
	addq	%rcx, %rax	# uid_luid.43, D.24265
	movl	(%rax), %eax	# *_120, iftmp.41
	cmpl	%eax, %edx	# iftmp.41, iftmp.38
	jl	.L43	#,
	jmp	.L206	#
.L46:
	.loc 1 707 0 discriminator 2
	movl	$__FUNCTION__.12611, %edx	#,
	movl	$707, %esi	#,
	movl	$.LC0, %edi	#,
	call	fancy_abort	#
.L206:
	.loc 1 707 0 discriminator 1
	movq	-152(%rbp), %rax	# p, tmp738
	movq	64(%rax), %rax	# p_6->fld[7].rtx, D.24263
	movl	8(%rax), %edx	# _122->fld[0].rtint, D.24261
	movl	max_uid_for_loop(%rip), %eax	# max_uid_for_loop, max_uid_for_loop.45
	cmpl	%eax, %edx	# max_uid_for_loop.45, D.24261
	jge	.L48	#,
	movq	uid_luid(%rip), %rdx	# uid_luid, uid_luid.46
	movq	-152(%rbp), %rax	# p, tmp739
	movq	64(%rax), %rax	# p_6->fld[7].rtx, D.24263
	movl	8(%rax), %eax	# _126->fld[0].rtint, D.24261
	cltq
	salq	$2, %rax	#, D.24264
	addq	%rdx, %rax	# uid_luid.46, D.24265
	movl	(%rax), %edx	# *_130, iftmp.44
	movq	-96(%rbp), %rax	# loop_end, tmp740
	movl	8(%rax), %ecx	# loop_end_69->fld[0].rtint, D.24261
	movl	max_uid_for_loop(%rip), %eax	# max_uid_for_loop, max_uid_for_loop.48
	cmpl	%eax, %ecx	# max_uid_for_loop.48, D.24261
	jge	.L50	#,
	jmp	.L207	#
.L48:
	.loc 1 707 0 discriminator 2
	movl	$__FUNCTION__.12611, %edx	#,
	movl	$707, %esi	#,
	movl	$.LC0, %edi	#,
	call	fancy_abort	#
.L207:
	.loc 1 707 0 discriminator 1
	movq	uid_luid(%rip), %rcx	# uid_luid, uid_luid.49
	movq	-96(%rbp), %rax	# loop_end, tmp741
	movl	8(%rax), %eax	# loop_end_69->fld[0].rtint, D.24261
	cltq
	salq	$2, %rax	#, D.24264
	addq	%rcx, %rax	# uid_luid.49, D.24265
	movl	(%rax), %eax	# *_138, iftmp.47
	cmpl	%eax, %edx	# iftmp.47, iftmp.44
	jg	.L43	#,
	jmp	.L208	#
.L50:
	.loc 1 707 0 discriminator 2
	movl	$__FUNCTION__.12611, %edx	#,
	movl	$707, %esi	#,
	movl	$.LC0, %edi	#,
	call	fancy_abort	#
.L208:
	.loc 1 709 0 is_stmt 1
	movq	-216(%rbp), %rax	# loop, tmp742
	movq	216(%rax), %rax	# loop_64(D)->scan_start, D.24263
	movq	%rax, %rdi	# D.24263,
	call	next_label	#
	movq	-216(%rbp), %rdx	# loop, tmp743
	movq	%rax, 208(%rdx)	# D.24263, loop_64(D)->top
	.loc 1 710 0
	movq	-152(%rbp), %rax	# p, tmp744
	movq	64(%rax), %rdx	# p_6->fld[7].rtx, D.24263
	movq	-216(%rbp), %rax	# loop, tmp745
	movq	%rdx, 216(%rax)	# D.24263, loop_64(D)->scan_start
.L43:
	.loc 1 722 0
	movq	-216(%rbp), %rax	# loop, tmp746
	movq	216(%rax), %rax	# loop_64(D)->scan_start, D.24263
	movl	8(%rax), %edx	# _143->fld[0].rtint, D.24261
	movl	max_uid_for_loop(%rip), %eax	# max_uid_for_loop, max_uid_for_loop.50
	cmpl	%eax, %edx	# max_uid_for_loop.50, D.24261
	jge	.L52	#,
	.loc 1 723 0
	movq	-216(%rbp), %rax	# loop, tmp747
	movq	216(%rax), %rax	# loop_64(D)->scan_start, D.24263
	movzwl	(%rax), %eax	# _146->code, D.24260
	cmpw	$36, %ax	#, D.24260
	je	.L53	#,
.L52:
	.loc 1 725 0
	movq	loop_dump_stream(%rip), %rax	# loop_dump_stream, loop_dump_stream.51
	testq	%rax, %rax	# loop_dump_stream.51
	je	.L54	#,
	.loc 1 726 0
	movq	-96(%rbp), %rax	# loop_end, tmp748
	movl	8(%rax), %ecx	# loop_end_69->fld[0].rtint, D.24261
	movq	-104(%rbp), %rax	# loop_start, tmp749
	movl	8(%rax), %edx	# loop_start_68->fld[0].rtint, D.24261
	movq	loop_dump_stream(%rip), %rax	# loop_dump_stream, loop_dump_stream.52
	movl	$.LC1, %esi	#,
	movq	%rax, %rdi	# loop_dump_stream.52,
	movl	$0, %eax	#,
	call	fprintf	#
	.loc 1 728 0
	jmp	.L35	#
.L54:
	jmp	.L35	#
.L53:
	.loc 1 734 0
	movq	-120(%rbp), %rax	# loop_info, tmp750
	movl	136(%rax), %eax	# loop_info_65->mems_idx, D.24261
	leal	16(%rax), %edx	#, D.24261
	movq	-216(%rbp), %rax	# loop, tmp751
	movl	%edx, %esi	# D.24261,
	movq	%rax, %rdi	# tmp751,
	call	loop_regs_scan	#
	.loc 1 735 0
	movq	-216(%rbp), %rax	# loop, tmp752
	movq	%rax, %rdi	# tmp752,
	call	count_insns_in_loop	#
	movl	%eax, -168(%rbp)	# tmp753, insn_count
	.loc 1 737 0
	movq	loop_dump_stream(%rip), %rax	# loop_dump_stream, loop_dump_stream.53
	testq	%rax, %rax	# loop_dump_stream.53
	je	.L56	#,
	.loc 1 739 0
	movq	-96(%rbp), %rax	# loop_end, tmp754
	movl	8(%rax), %ecx	# loop_end_69->fld[0].rtint, D.24261
	movq	-104(%rbp), %rax	# loop_start, tmp755
	movl	8(%rax), %edx	# loop_start_68->fld[0].rtint, D.24261
	movq	loop_dump_stream(%rip), %rax	# loop_dump_stream, loop_dump_stream.54
	movl	-168(%rbp), %esi	# insn_count, tmp756
	movl	%esi, %r8d	# tmp756,
	movl	$.LC2, %esi	#,
	movq	%rax, %rdi	# loop_dump_stream.54,
	movl	$0, %eax	#,
	call	fprintf	#
	.loc 1 741 0
	movq	-216(%rbp), %rax	# loop, tmp757
	movq	176(%rax), %rax	# loop_64(D)->cont, D.24263
	testq	%rax, %rax	# D.24263
	je	.L56	#,
	.loc 1 743 0
	movq	-216(%rbp), %rax	# loop, tmp758
	movq	176(%rax), %rax	# loop_64(D)->cont, D.24263
	.loc 1 742 0
	movl	8(%rax), %edx	# _156->fld[0].rtint, D.24261
	movq	loop_dump_stream(%rip), %rax	# loop_dump_stream, loop_dump_stream.55
	movl	$.LC3, %esi	#,
	movq	%rax, %rdi	# loop_dump_stream.55,
	movl	$0, %eax	#,
	call	fprintf	#
.L56:
	.loc 1 759 0
	movq	-216(%rbp), %rax	# loop, tmp759
	movq	216(%rax), %rdx	# loop_64(D)->scan_start, D.24263
	movq	-216(%rbp), %rax	# loop, tmp760
	movq	%rdx, %rsi	# D.24263,
	movq	%rax, %rdi	# tmp760,
	call	next_insn_in_loop	#
	movq	%rax, -152(%rbp)	# tmp761, p
	jmp	.L57	#
.L191:
	.loc 1 763 0
	movq	-152(%rbp), %rax	# p, tmp762
	movzwl	(%rax), %eax	# p_10->code, D.24260
	cmpw	$32, %ax	#, D.24260
	jne	.L58	#,
	.loc 1 764 0
	movq	-152(%rbp), %rax	# p, tmp763
	movzwl	(%rax), %eax	# p_10->code, D.24260
	movzwl	%ax, %eax	# D.24260, D.24261
	cltq
	movzbl	rtx_class(%rax), %eax	# rtx_class, D.24262
	cmpb	$105, %al	#, D.24262
	jne	.L59	#,
	.loc 1 764 0 is_stmt 0 discriminator 1
	movq	-152(%rbp), %rax	# p, tmp765
	movq	32(%rax), %rax	# p_10->fld[3].rtx, D.24263
	movzwl	(%rax), %eax	# _165->code, D.24260
	cmpw	$47, %ax	#, D.24260
	jne	.L60	#,
	.loc 1 764 0 discriminator 3
	movq	-152(%rbp), %rax	# p, tmp766
	movq	32(%rax), %rax	# p_10->fld[3].rtx, iftmp.57
	jmp	.L62	#
.L60:
	.loc 1 764 0 discriminator 4
	movq	-152(%rbp), %rax	# p, tmp767
	movq	32(%rax), %rdx	# p_10->fld[3].rtx, D.24263
	movq	-152(%rbp), %rax	# p, tmp768
	movq	%rdx, %rsi	# D.24263,
	movq	%rax, %rdi	# tmp768,
	call	single_set_2	#
	jmp	.L62	#
.L59:
	.loc 1 764 0 discriminator 2
	movl	$0, %eax	#, iftmp.56
.L62:
	.loc 1 764 0 discriminator 5
	movq	%rax, -72(%rbp)	# iftmp.56, set
	cmpq	$0, -72(%rbp)	#, set
	je	.L58	#,
	.loc 1 765 0 is_stmt 1
	movq	-72(%rbp), %rax	# set, tmp769
	movq	8(%rax), %rax	# set_172->fld[0].rtx, D.24263
	movzwl	(%rax), %eax	# _173->code, D.24260
	cmpw	$61, %ax	#, D.24260
	jne	.L58	#,
	.loc 1 769 0
	movq	-112(%rbp), %rax	# regs, tmp770
	movq	8(%rax), %rcx	# regs_67->array, D.24266
	movq	-72(%rbp), %rax	# set, tmp771
	movq	8(%rax), %rax	# set_172->fld[0].rtx, D.24263
	movl	8(%rax), %eax	# _176->fld[0].rtuint, D.24267
	movl	%eax, %edx	# D.24267, D.24264
	movq	%rdx, %rax	# D.24264, tmp772
	addq	%rax, %rax	# tmp772
	addq	%rdx, %rax	# D.24264, tmp772
	salq	$3, %rax	#, tmp773
	addq	%rcx, %rax	# D.24266, D.24266
	movzbl	16(%rax), %eax	# _180->may_not_optimize, D.24262
	testb	%al, %al	# D.24262
	jne	.L58	#,
.LBB3:
	.loc 1 771 0
	movl	$0, -184(%rbp)	#, tem1
	.loc 1 772 0
	movl	$0, -180(%rbp)	#, tem2
	.loc 1 773 0
	movl	$0, -176(%rbp)	#, move_insn
	.loc 1 774 0
	movq	-72(%rbp), %rax	# set, tmp774
	movq	16(%rax), %rax	# set_172->fld[1].rtx, tmp775
	movq	%rax, -136(%rbp)	# tmp775, src
	.loc 1 775 0
	movq	$0, -128(%rbp)	#, dependencies
	.loc 1 785 0
	movq	-152(%rbp), %rax	# p, tmp776
	movl	$0, %edx	#,
	movl	$3, %esi	#,
	movq	%rax, %rdi	# tmp776,
	call	find_reg_note	#
	movq	%rax, -64(%rbp)	# tmp777, temp
	.loc 1 786 0
	cmpq	$0, -64(%rbp)	#, temp
	je	.L63	#,
	.loc 1 787 0
	movq	-64(%rbp), %rax	# temp, tmp778
	movq	8(%rax), %rax	# temp_187->fld[0].rtx, tmp779
	movq	%rax, -136(%rbp)	# tmp779, src
	movl	$1, -176(%rbp)	#, move_insn
	jmp	.L64	#
.L63:
	.loc 1 790 0
	movq	-152(%rbp), %rax	# p, tmp780
	movl	$0, %edx	#,
	movl	$4, %esi	#,
	movq	%rax, %rdi	# tmp780,
	call	find_reg_note	#
	movq	%rax, -64(%rbp)	# tmp781, temp
	.loc 1 791 0
	cmpq	$0, -64(%rbp)	#, temp
	je	.L65	#,
	.loc 1 791 0 is_stmt 0 discriminator 1
	movq	-64(%rbp), %rax	# temp, tmp782
	movq	8(%rax), %rax	# temp_190->fld[0].rtx, D.24263
	movzwl	(%rax), %eax	# _191->code, D.24260
	cmpw	$67, %ax	#, D.24260
	je	.L66	#,
	movq	-64(%rbp), %rax	# temp, tmp783
	movq	8(%rax), %rax	# temp_190->fld[0].rtx, D.24263
	movzwl	(%rax), %eax	# _193->code, D.24260
	cmpw	$68, %ax	#, D.24260
	je	.L66	#,
	movq	-64(%rbp), %rax	# temp, tmp784
	movq	8(%rax), %rax	# temp_190->fld[0].rtx, D.24263
	movzwl	(%rax), %eax	# _195->code, D.24260
	cmpw	$54, %ax	#, D.24260
	je	.L66	#,
	movq	-64(%rbp), %rax	# temp, tmp785
	movq	8(%rax), %rax	# temp_190->fld[0].rtx, D.24263
	movzwl	(%rax), %eax	# _197->code, D.24260
	cmpw	$55, %ax	#, D.24260
	je	.L66	#,
	movq	-64(%rbp), %rax	# temp, tmp786
	movq	8(%rax), %rax	# temp_190->fld[0].rtx, D.24263
	movzwl	(%rax), %eax	# _199->code, D.24260
	cmpw	$58, %ax	#, D.24260
	je	.L66	#,
	movq	-64(%rbp), %rax	# temp, tmp787
	movq	8(%rax), %rax	# temp_190->fld[0].rtx, D.24263
	movzwl	(%rax), %eax	# _201->code, D.24260
	cmpw	$134, %ax	#, D.24260
	je	.L66	#,
	movq	-64(%rbp), %rax	# temp, tmp788
	movq	8(%rax), %rax	# temp_190->fld[0].rtx, D.24263
	movzwl	(%rax), %eax	# _203->code, D.24260
	cmpw	$56, %ax	#, D.24260
	je	.L66	#,
	movq	-64(%rbp), %rax	# temp, tmp789
	movq	8(%rax), %rax	# temp_190->fld[0].rtx, D.24263
	movzwl	(%rax), %eax	# _205->code, D.24260
	cmpw	$140, %ax	#, D.24260
	jne	.L65	#,
.L66:
	.loc 1 792 0 is_stmt 1
	movq	-64(%rbp), %rax	# temp, tmp790
	movq	8(%rax), %rax	# temp_190->fld[0].rtx, tmp791
	movq	%rax, -136(%rbp)	# tmp791, src
	movl	$1, -176(%rbp)	#, move_insn
.L65:
	.loc 1 793 0
	cmpq	$0, -64(%rbp)	#, temp
	je	.L64	#,
	.loc 1 793 0 is_stmt 0 discriminator 1
	movq	-152(%rbp), %rax	# p, tmp792
	movl	$0, %edx	#,
	movl	$6, %esi	#,
	movq	%rax, %rdi	# tmp792,
	call	find_reg_note	#
	testq	%rax, %rax	# D.24263
	je	.L64	#,
	.loc 1 795 0 is_stmt 1
	movq	-64(%rbp), %rax	# temp, tmp793
	movq	8(%rax), %rax	# temp_190->fld[0].rtx, tmp794
	movq	%rax, -136(%rbp)	# tmp794, src
	.loc 1 799 0
	movq	-136(%rbp), %rdx	# src, tmp795
	movq	-152(%rbp), %rax	# p, tmp796
	movq	%rdx, %rsi	# tmp795,
	movq	%rax, %rdi	# tmp796,
	call	libcall_other_reg	#
	movq	%rax, -128(%rbp)	# tmp797, dependencies
.L64:
	.loc 1 805 0
	movq	-152(%rbp), %rax	# p, tmp798
	movq	32(%rax), %rax	# p_10->fld[3].rtx, D.24263
	movzwl	(%rax), %eax	# _212->code, D.24260
	cmpw	$39, %ax	#, D.24260
	jne	.L67	#,
	.loc 1 807 0
	movl	$0, -200(%rbp)	#, i
	jmp	.L68	#
.L70:
.LBB4:
	.loc 1 809 0
	movq	-152(%rbp), %rax	# p, tmp799
	movq	32(%rax), %rax	# p_10->fld[3].rtx, D.24263
	movq	8(%rax), %rax	# _218->fld[0].rtvec, D.24268
	movl	-200(%rbp), %edx	# i, tmp801
	movslq	%edx, %rdx	# tmp801, tmp800
	movq	8(%rax,%rdx,8), %rax	# _219->elem, tmp802
	movq	%rax, -56(%rbp)	# tmp802, x
	.loc 1 810 0
	movq	-56(%rbp), %rax	# x, tmp803
	movzwl	(%rax), %eax	# x_220->code, D.24260
	cmpw	$48, %ax	#, D.24260
	jne	.L69	#,
	.loc 1 811 0
	movq	-56(%rbp), %rax	# x, tmp804
	movq	8(%rax), %rax	# x_220->fld[0].rtx, D.24263
	movq	-128(%rbp), %rdx	# dependencies, tmp805
	movq	%rdx, %rcx	# tmp805,
	movq	%rax, %rdx	# D.24263,
	movl	$0, %esi	#,
	movl	$3, %edi	#,
	call	gen_rtx_fmt_ee	#
	movq	%rax, -128(%rbp)	# tmp806, dependencies
.L69:
.LBE4:
	.loc 1 807 0
	addl	$1, -200(%rbp)	#, i
.L68:
	.loc 1 807 0 is_stmt 0 discriminator 1
	movq	-152(%rbp), %rax	# p, tmp807
	movq	32(%rax), %rax	# p_10->fld[3].rtx, D.24263
	movq	8(%rax), %rax	# _215->fld[0].rtvec, D.24268
	movl	(%rax), %eax	# _216->num_elem, D.24261
	cmpl	-200(%rbp), %eax	# i, D.24261
	jg	.L70	#,
.L67:
	.loc 1 818 0 is_stmt 1
	movq	-72(%rbp), %rax	# set, tmp808
	movq	8(%rax), %rax	# set_172->fld[0].rtx, D.24263
	movl	8(%rax), %edx	# _225->fld[0].rtuint, D.24267
	movl	max_reg_before_loop(%rip), %eax	# max_reg_before_loop, max_reg_before_loop.58
	cmpl	%eax, %edx	# max_reg_before_loop.58, D.24267
	jae	.L71	#,
	.loc 1 824 0
	movq	-72(%rbp), %rax	# set, tmp809
	movq	8(%rax), %rdx	# set_172->fld[0].rtx, D.24263
	movq	-152(%rbp), %rax	# p, tmp810
	movq	%rdx, %rsi	# D.24263,
	movq	%rax, %rdi	# tmp810,
	call	reg_in_basic_block_p	#
	.loc 1 820 0
	testl	%eax, %eax	# D.24261
	jne	.L72	#,
	.loc 1 834 0
	cmpl	$0, -196(%rbp)	#, maybe_never
	jne	.L73	#,
	.loc 1 835 0
	movq	-152(%rbp), %rdx	# p, tmp811
	movq	-72(%rbp), %rcx	# set, tmp812
	movq	-216(%rbp), %rax	# loop, tmp813
	movq	%rcx, %rsi	# tmp812,
	movq	%rax, %rdi	# tmp813,
	call	loop_reg_used_before_p	#
	testl	%eax, %eax	# D.24261
	je	.L72	#,
.L73:
	.loc 1 820 0
	jmp	.L71	#
.L72:
	.loc 1 842 0
	movq	-136(%rbp), %rdx	# src, tmp814
	movq	-216(%rbp), %rax	# loop, tmp815
	movq	%rdx, %rsi	# tmp814,
	movq	%rax, %rdi	# tmp815,
	call	loop_invariant_p	#
	movl	%eax, -164(%rbp)	# tmp816, tem
	cmpl	$0, -164(%rbp)	#, tem
	je	.L74	#,
	.loc 1 843 0
	cmpq	$0, -128(%rbp)	#, dependencies
	je	.L75	#,
	.loc 1 844 0
	movq	-128(%rbp), %rdx	# dependencies, tmp817
	movq	-216(%rbp), %rax	# loop, tmp818
	movq	%rdx, %rsi	# tmp817,
	movq	%rax, %rdi	# tmp818,
	call	loop_invariant_p	#
	movl	%eax, -180(%rbp)	# tmp819, tem2
	cmpl	$0, -180(%rbp)	#, tem2
	je	.L74	#,
.L75:
	.loc 1 845 0
	movq	-112(%rbp), %rax	# regs, tmp820
	movq	8(%rax), %rcx	# regs_67->array, D.24266
	movq	-72(%rbp), %rax	# set, tmp821
	movq	8(%rax), %rax	# set_172->fld[0].rtx, D.24263
	movl	8(%rax), %eax	# _234->fld[0].rtuint, D.24267
	movl	%eax, %edx	# D.24267, D.24264
	movq	%rdx, %rax	# D.24264, tmp822
	addq	%rax, %rax	# tmp822
	addq	%rdx, %rax	# D.24264, tmp822
	salq	$3, %rax	#, tmp823
	addq	%rcx, %rax	# D.24266, D.24266
	movl	(%rax), %eax	# _238->set_in_loop, D.24261
	cmpl	$1, %eax	#, D.24261
	je	.L76	#,
	.loc 1 849 0
	movq	-112(%rbp), %rax	# regs, tmp824
	movq	8(%rax), %rcx	# regs_67->array, D.24266
	movq	-72(%rbp), %rax	# set, tmp825
	movq	8(%rax), %rax	# set_172->fld[0].rtx, D.24263
	movl	8(%rax), %eax	# _241->fld[0].rtuint, D.24267
	movl	%eax, %edx	# D.24267, D.24264
	movq	%rdx, %rax	# D.24264, tmp826
	addq	%rax, %rax	# tmp826
	addq	%rdx, %rax	# D.24264, tmp826
	salq	$3, %rax	#, tmp827
	addq	%rcx, %rax	# D.24266, D.24266
	.loc 1 848 0
	movl	(%rax), %edx	# _245->set_in_loop, D.24261
	movq	-72(%rbp), %rax	# set, tmp828
	movq	8(%rax), %rsi	# set_172->fld[0].rtx, D.24263
	.loc 1 846 0
	movq	-152(%rbp), %rcx	# p, tmp829
	movq	-216(%rbp), %rax	# loop, tmp830
	movq	%rax, %rdi	# tmp830,
	call	consec_sets_invariant_p	#
	movl	%eax, -184(%rbp)	# tmp831, tem1
	cmpl	$0, -184(%rbp)	#, tem1
	je	.L74	#,
.L76:
	.loc 1 856 0
	cmpl	$0, -196(%rbp)	#, maybe_never
	jne	.L77	#,
	.loc 1 856 0 is_stmt 0 discriminator 1
	cmpl	$0, -192(%rbp)	#, call_passed
	je	.L78	#,
.L77:
	.loc 1 857 0 is_stmt 1 discriminator 2
	movq	-136(%rbp), %rax	# src, tmp832
	movq	%rax, %rdi	# tmp832,
	call	may_trap_p	#
	.loc 1 856 0 discriminator 2
	testl	%eax, %eax	# D.24261
	jne	.L74	#,
.L78:
.LBB5:
	.loc 1 860 0
	movq	-72(%rbp), %rax	# set, tmp833
	movq	8(%rax), %rax	# set_172->fld[0].rtx, D.24263
	movl	8(%rax), %eax	# _250->fld[0].rtuint, D.24267
	movl	%eax, -160(%rbp)	# D.24267, regno
	.loc 1 876 0
	movq	-120(%rbp), %rax	# loop_info, tmp834
	movl	(%rax), %eax	# loop_info_65->has_call, D.24261
	testl	%eax, %eax	# D.24261
	je	.L79	#,
	.loc 1 877 0
	movq	-112(%rbp), %rax	# regs, tmp835
	movq	8(%rax), %rcx	# regs_67->array, D.24266
	movl	-160(%rbp), %eax	# regno, tmp836
	movslq	%eax, %rdx	# tmp836, D.24264
	movq	%rdx, %rax	# D.24264, tmp837
	addq	%rax, %rax	# tmp837
	addq	%rdx, %rax	# D.24264, tmp837
	salq	$3, %rax	#, tmp838
	addq	%rcx, %rax	# D.24266, D.24266
	movq	8(%rax), %rax	# _257->single_usage, D.24263
	testq	%rax, %rax	# D.24263
	je	.L79	#,
	.loc 1 878 0
	movq	-112(%rbp), %rax	# regs, tmp839
	movq	8(%rax), %rcx	# regs_67->array, D.24266
	movl	-160(%rbp), %eax	# regno, tmp840
	movslq	%eax, %rdx	# tmp840, D.24264
	movq	%rdx, %rax	# D.24264, tmp841
	addq	%rax, %rax	# tmp841
	addq	%rdx, %rax	# D.24264, tmp841
	salq	$3, %rax	#, tmp842
	addq	%rcx, %rax	# D.24266, D.24266
	movq	8(%rax), %rdx	# _262->single_usage, D.24263
	movq	const_int_rtx+512(%rip), %rax	# const_int_rtx, D.24263
	cmpq	%rax, %rdx	# D.24263, D.24263
	je	.L79	#,
	.loc 1 879 0
	movq	reg_n_info(%rip), %rax	# reg_n_info, reg_n_info.59
	movl	-160(%rbp), %edx	# regno, tmp844
	movslq	%edx, %rdx	# tmp844, tmp843
	addq	$4, %rdx	#, tmp845
	movq	(%rax,%rdx,8), %rax	# reg_n_info.59_265->data.reg, D.24269
	movl	(%rax), %edx	# _266->first_uid, D.24261
	movq	-152(%rbp), %rax	# p, tmp846
	movl	8(%rax), %eax	# p_10->fld[0].rtint, D.24261
	cmpl	%eax, %edx	# D.24261, D.24261
	jne	.L79	#,
	.loc 1 880 0
	movq	reg_n_info(%rip), %rax	# reg_n_info, reg_n_info.60
	movl	-160(%rbp), %edx	# regno, tmp848
	movslq	%edx, %rdx	# tmp848, tmp847
	addq	$4, %rdx	#, tmp849
	movq	(%rax,%rdx,8), %rax	# reg_n_info.60_269->data.reg, D.24269
	movl	4(%rax), %ecx	# _270->last_uid, D.24261
	.loc 1 881 0
	movq	-112(%rbp), %rax	# regs, tmp850
	movq	8(%rax), %rsi	# regs_67->array, D.24266
	movl	-160(%rbp), %eax	# regno, tmp851
	movslq	%eax, %rdx	# tmp851, D.24264
	movq	%rdx, %rax	# D.24264, tmp852
	addq	%rax, %rax	# tmp852
	addq	%rdx, %rax	# D.24264, tmp852
	salq	$3, %rax	#, tmp853
	addq	%rsi, %rax	# D.24266, D.24266
	movq	8(%rax), %rax	# _275->single_usage, D.24263
	movl	8(%rax), %eax	# _276->fld[0].rtint, D.24261
	.loc 1 880 0
	cmpl	%eax, %ecx	# D.24261, D.24261
	jne	.L79	#,
	.loc 1 882 0
	movq	-112(%rbp), %rax	# regs, tmp854
	movq	8(%rax), %rcx	# regs_67->array, D.24266
	movl	-160(%rbp), %eax	# regno, tmp855
	movslq	%eax, %rdx	# tmp855, D.24264
	movq	%rdx, %rax	# D.24264, tmp856
	addq	%rax, %rax	# tmp856
	addq	%rdx, %rax	# D.24264, tmp856
	salq	$3, %rax	#, tmp857
	addq	%rcx, %rax	# D.24266, D.24266
	movl	(%rax), %eax	# _281->set_in_loop, D.24261
	cmpl	$1, %eax	#, D.24261
	jne	.L79	#,
	.loc 1 883 0
	movq	-72(%rbp), %rax	# set, tmp858
	movq	16(%rax), %rax	# set_172->fld[1].rtx, D.24263
	movzwl	(%rax), %eax	# _283->code, D.24260
	cmpw	$41, %ax	#, D.24260
	je	.L79	#,
	.loc 1 884 0
	movq	-72(%rbp), %rax	# set, tmp859
	movq	16(%rax), %rax	# set_172->fld[1].rtx, D.24263
	movq	%rax, %rdi	# D.24263,
	call	side_effects_p	#
	testl	%eax, %eax	# D.24261
	jne	.L79	#,
	.loc 1 885 0
	movq	-152(%rbp), %rax	# p, tmp860
	movl	$0, %edx	#,
	movl	$6, %esi	#,
	movq	%rax, %rdi	# tmp860,
	call	find_reg_note	#
	testq	%rax, %rax	# D.24263
	jne	.L79	#,
	.loc 1 887 0
	movq	-72(%rbp), %rax	# set, tmp861
	movq	16(%rax), %rax	# set_172->fld[1].rtx, D.24263
	movzwl	(%rax), %eax	# _288->code, D.24260
	.loc 1 886 0
	cmpw	$61, %ax	#, D.24260
	jne	.L80	#,
	.loc 1 888 0
	movq	-72(%rbp), %rax	# set, tmp862
	movq	16(%rax), %rax	# set_172->fld[1].rtx, D.24263
	movl	8(%rax), %eax	# _290->fld[0].rtuint, D.24267
	.loc 1 887 0
	cmpl	$52, %eax	#, D.24267
	jbe	.L79	#,
.L80:
	.loc 1 893 0
	movq	-112(%rbp), %rax	# regs, tmp863
	movq	8(%rax), %rcx	# regs_67->array, D.24266
	movl	-160(%rbp), %eax	# regno, tmp864
	movslq	%eax, %rdx	# tmp864, D.24264
	movq	%rdx, %rax	# D.24264, tmp865
	addq	%rax, %rax	# tmp865
	addq	%rdx, %rax	# D.24264, tmp865
	salq	$3, %rax	#, tmp866
	addq	%rcx, %rax	# D.24266, D.24266
	.loc 1 892 0
	movq	8(%rax), %rdx	# _295->single_usage, D.24263
	movq	-72(%rbp), %rax	# set, tmp867
	movq	16(%rax), %rax	# set_172->fld[1].rtx, D.24263
	movq	-152(%rbp), %rcx	# p, tmp868
	movq	%rcx, %rsi	# tmp868,
	movq	%rax, %rdi	# D.24263,
	call	modified_between_p	#
	testl	%eax, %eax	# D.24261
	jne	.L79	#,
	.loc 1 894 0
	movq	-112(%rbp), %rax	# regs, tmp869
	movq	8(%rax), %rcx	# regs_67->array, D.24266
	movl	-160(%rbp), %eax	# regno, tmp870
	movslq	%eax, %rdx	# tmp870, D.24264
	movq	%rdx, %rax	# D.24264, tmp871
	addq	%rax, %rax	# tmp871
	addq	%rdx, %rax	# D.24264, tmp871
	salq	$3, %rax	#, tmp872
	addq	%rcx, %rax	# D.24266, D.24266
	movq	8(%rax), %rdx	# _302->single_usage, D.24263
	movq	-152(%rbp), %rax	# p, tmp873
	movq	%rdx, %rsi	# D.24263,
	movq	%rax, %rdi	# tmp873,
	call	no_labels_between_p	#
	testl	%eax, %eax	# D.24261
	je	.L79	#,
	.loc 1 896 0
	movq	-112(%rbp), %rax	# regs, tmp874
	movq	8(%rax), %rcx	# regs_67->array, D.24266
	movl	-160(%rbp), %eax	# regno, tmp875
	movslq	%eax, %rdx	# tmp875, D.24264
	movq	%rdx, %rax	# D.24264, tmp876
	addq	%rax, %rax	# tmp876
	addq	%rdx, %rax	# D.24264, tmp876
	salq	$3, %rax	#, tmp877
	addq	%rcx, %rax	# D.24266, D.24266
	.loc 1 895 0
	movq	8(%rax), %rdx	# _308->single_usage, D.24263
	movq	-72(%rbp), %rax	# set, tmp878
	movq	16(%rax), %rcx	# set_172->fld[1].rtx, D.24263
	movq	-72(%rbp), %rax	# set, tmp879
	movq	8(%rax), %rax	# set_172->fld[0].rtx, D.24263
	movq	%rcx, %rsi	# D.24263,
	movq	%rax, %rdi	# D.24263,
	call	validate_replace_rtx	#
	testl	%eax, %eax	# D.24261
	je	.L79	#,
	.loc 1 901 0
	movq	-112(%rbp), %rax	# regs, tmp880
	movq	8(%rax), %rcx	# regs_67->array, D.24266
	movl	-160(%rbp), %eax	# regno, tmp881
	movslq	%eax, %rdx	# tmp881, D.24264
	movq	%rdx, %rax	# D.24264, tmp882
	addq	%rax, %rax	# tmp882
	addq	%rdx, %rax	# D.24264, tmp882
	salq	$3, %rax	#, tmp883
	addq	%rcx, %rax	# D.24266, D.24266
	movq	8(%rax), %rbx	# _316->single_usage, D.24263
	.loc 1 902 0
	movq	-72(%rbp), %rax	# set, tmp884
	movq	16(%rax), %rax	# set_172->fld[1].rtx, D.24263
	movq	%rax, %rdi	# D.24263,
	call	copy_rtx	#
	movq	%rax, %rsi	#, D.24263
	movq	-72(%rbp), %rax	# set, tmp885
	movq	8(%rax), %rcx	# set_172->fld[0].rtx, D.24263
	movq	-112(%rbp), %rax	# regs, tmp886
	movq	8(%rax), %rdi	# regs_67->array, D.24266
	movl	-160(%rbp), %eax	# regno, tmp887
	movslq	%eax, %rdx	# tmp887, D.24264
	movq	%rdx, %rax	# D.24264, tmp888
	addq	%rax, %rax	# tmp888
	addq	%rdx, %rax	# D.24264, tmp888
	salq	$3, %rax	#, tmp889
	addq	%rdi, %rax	# D.24266, D.24266
	movq	8(%rax), %rax	# _324->single_usage, D.24263
	movq	56(%rax), %rax	# _325->fld[6].rtx, D.24263
	movq	%rsi, %rdx	# D.24263,
	movq	%rcx, %rsi	# D.24263,
	movq	%rax, %rdi	# D.24263,
	call	replace_rtx	#
	movq	%rax, 56(%rbx)	# D.24263, _317->fld[6].rtx
	.loc 1 905 0
	movq	-152(%rbp), %rax	# p, tmp890
	movq	%rax, %rdi	# tmp890,
	call	delete_insn	#
	.loc 1 906 0
	movl	$0, -200(%rbp)	#, i
	jmp	.L81	#
.L105:
	.loc 1 907 0 discriminator 2
	movq	-112(%rbp), %rax	# regs, tmp891
	movq	8(%rax), %rcx	# regs_67->array, D.24266
	movl	-200(%rbp), %eax	# i, tmp892
	movl	-160(%rbp), %edx	# regno, tmp893
	addl	%edx, %eax	# tmp893, D.24261
	movslq	%eax, %rdx	# D.24261, D.24264
	movq	%rdx, %rax	# D.24264, tmp894
	addq	%rax, %rax	# tmp894
	addq	%rdx, %rax	# D.24264, tmp894
	salq	$3, %rax	#, tmp895
	addq	%rcx, %rax	# D.24266, D.24266
	movl	$0, (%rax)	#, _378->set_in_loop
	.loc 1 906 0 discriminator 2
	addl	$1, -200(%rbp)	#, i
.L81:
	.loc 1 906 0 is_stmt 0 discriminator 1
	cmpl	$52, -160(%rbp)	#, regno
	jg	.L82	#,
	cmpl	$7, -160(%rbp)	#, regno
	jle	.L83	#,
	cmpl	$15, -160(%rbp)	#, regno
	jle	.L84	#,
.L83:
	.loc 1 906 0 discriminator 2
	cmpl	$20, -160(%rbp)	#, regno
	jle	.L85	#,
	.loc 1 906 0 discriminator 1
	cmpl	$28, -160(%rbp)	#, regno
	jle	.L84	#,
.L85:
	.loc 1 906 0 discriminator 2
	cmpl	$44, -160(%rbp)	#, regno
	jle	.L86	#,
	.loc 1 906 0 discriminator 1
	cmpl	$52, -160(%rbp)	#, regno
	jle	.L84	#,
.L86:
	.loc 1 906 0 discriminator 2
	cmpl	$28, -160(%rbp)	#, regno
	jle	.L87	#,
	.loc 1 906 0 discriminator 1
	cmpl	$36, -160(%rbp)	#, regno
	jg	.L87	#,
.L84:
	movq	-72(%rbp), %rax	# set, tmp896
	movq	8(%rax), %rax	# set_172->fld[0].rtx, D.24263
	movzbl	2(%rax), %eax	# _361->mode, D.24270
	movzbl	%al, %eax	# D.24270, D.24261
	cltq
	movl	mode_class(,%rax,4), %eax	# mode_class, D.24271
	cmpl	$5, %eax	#, D.24271
	je	.L88	#,
	.loc 1 906 0 discriminator 2
	movq	-72(%rbp), %rax	# set, tmp898
	movq	8(%rax), %rax	# set_172->fld[0].rtx, D.24263
	movzbl	2(%rax), %eax	# _365->mode, D.24270
	movzbl	%al, %eax	# D.24270, D.24261
	cltq
	movl	mode_class(,%rax,4), %eax	# mode_class, D.24271
	cmpl	$6, %eax	#, D.24271
	jne	.L89	#,
.L88:
	.loc 1 906 0 discriminator 1
	movl	$2, %eax	#, iftmp.63
	jmp	.L90	#
.L89:
	movl	$1, %eax	#, iftmp.63
.L90:
	.loc 1 906 0 discriminator 3
	jmp	.L91	#
.L87:
	.loc 1 906 0 discriminator 2
	movq	-72(%rbp), %rax	# set, tmp900
	movq	8(%rax), %rax	# set_172->fld[0].rtx, D.24263
	movzbl	2(%rax), %eax	# _329->mode, D.24270
	cmpb	$18, %al	#, D.24270
	jne	.L92	#,
	.loc 1 906 0 discriminator 1
	movl	target_flags(%rip), %eax	# target_flags, target_flags.66
	andl	$33554432, %eax	#, D.24261
	testl	%eax, %eax	# D.24261
	je	.L93	#,
	movl	$2, %eax	#, iftmp.65
	jmp	.L104	#
.L93:
	.loc 1 906 0 discriminator 2
	movl	$3, %eax	#, iftmp.65
	jmp	.L104	#
.L92:
	movq	-72(%rbp), %rax	# set, tmp901
	movq	8(%rax), %rax	# set_172->fld[0].rtx, D.24263
	movzbl	2(%rax), %eax	# _336->mode, D.24270
	cmpb	$24, %al	#, D.24270
	jne	.L96	#,
	.loc 1 906 0 discriminator 1
	movl	target_flags(%rip), %eax	# target_flags, target_flags.69
	andl	$33554432, %eax	#, D.24261
	testl	%eax, %eax	# D.24261
	je	.L97	#,
	movl	$4, %eax	#, iftmp.68
	jmp	.L104	#
.L97:
	.loc 1 906 0 discriminator 2
	movl	$6, %eax	#, iftmp.68
	jmp	.L104	#
.L96:
	movq	-72(%rbp), %rax	# set, tmp902
	movq	8(%rax), %rax	# set_172->fld[0].rtx, D.24263
	movzbl	2(%rax), %eax	# _343->mode, D.24270
	movzbl	%al, %eax	# D.24270, D.24261
	cltq
	movzbl	mode_size(%rax), %eax	# mode_size, D.24270
	movzbl	%al, %edx	# D.24270, D.24261
	movl	target_flags(%rip), %eax	# target_flags, target_flags.71
	andl	$33554432, %eax	#, D.24261
	testl	%eax, %eax	# D.24261
	je	.L100	#,
	.loc 1 906 0 discriminator 1
	movl	$8, %eax	#, iftmp.70
	jmp	.L101	#
.L100:
	.loc 1 906 0 discriminator 2
	movl	$4, %eax	#, iftmp.70
.L101:
	.loc 1 906 0 discriminator 3
	addl	%edx, %eax	# D.24261, D.24261
	subl	$1, %eax	#, D.24261
	movl	target_flags(%rip), %edx	# target_flags, target_flags.73
	andl	$33554432, %edx	#, D.24261
	testl	%edx, %edx	# D.24261
	je	.L102	#,
	.loc 1 906 0 discriminator 1
	movl	$8, %ebx	#, iftmp.72
	jmp	.L103	#
.L102:
	.loc 1 906 0 discriminator 2
	movl	$4, %ebx	#, iftmp.72
.L103:
	.loc 1 906 0 discriminator 3
	cltd
	idivl	%ebx	# iftmp.72
.L91:
	jmp	.L104	#
.L82:
	.loc 1 906 0 discriminator 2
	movl	$1, %eax	#, iftmp.61
.L104:
	.loc 1 906 0 discriminator 3
	cmpl	-200(%rbp), %eax	# i, iftmp.61
	jg	.L105	#,
	.loc 1 908 0 is_stmt 1
	jmp	.L106	#
.L79:
	.loc 1 911 0
	movl	$80, %edi	#,
	call	xmalloc	#
	movq	%rax, -48(%rbp)	# tmp906, m
	.loc 1 912 0
	movq	-48(%rbp), %rax	# m, tmp907
	movq	$0, 72(%rax)	#, m_380->next
	.loc 1 913 0
	movq	-48(%rbp), %rax	# m, tmp908
	movq	-152(%rbp), %rdx	# p, tmp909
	movq	%rdx, (%rax)	# tmp909, m_380->insn
	.loc 1 914 0
	movq	-48(%rbp), %rax	# m, tmp910
	movq	-136(%rbp), %rdx	# src, tmp911
	movq	%rdx, 8(%rax)	# tmp911, m_380->set_src
	.loc 1 915 0
	movq	-48(%rbp), %rax	# m, tmp912
	movq	-128(%rbp), %rdx	# dependencies, tmp913
	movq	%rdx, 24(%rax)	# tmp913, m_380->dependencies
	.loc 1 916 0
	movq	-72(%rbp), %rax	# set, tmp914
	movq	8(%rax), %rdx	# set_172->fld[0].rtx, D.24263
	movq	-48(%rbp), %rax	# m, tmp915
	movq	%rdx, 16(%rax)	# D.24263, m_380->set_dest
	.loc 1 917 0
	movq	-48(%rbp), %rax	# m, tmp916
	movzbl	44(%rax), %edx	# m_380->force, tmp919
	andl	$-3, %edx	#, tmp920
	movb	%dl, 44(%rax)	# tmp920, m_380->force
	.loc 1 918 0
	movq	-112(%rbp), %rax	# regs, tmp921
	movq	8(%rax), %rcx	# regs_67->array, D.24266
	movq	-72(%rbp), %rax	# set, tmp922
	movq	8(%rax), %rax	# set_172->fld[0].rtx, D.24263
	movl	8(%rax), %eax	# _383->fld[0].rtuint, D.24267
	movl	%eax, %edx	# D.24267, D.24264
	movq	%rdx, %rax	# D.24264, tmp923
	addq	%rax, %rax	# tmp923
	addq	%rdx, %rax	# D.24264, tmp923
	salq	$3, %rax	#, tmp924
	addq	%rcx, %rax	# D.24266, D.24266
	movl	(%rax), %eax	# _387->set_in_loop, D.24261
	leal	-1(%rax), %edx	#, D.24261
	movq	-48(%rbp), %rax	# m, tmp925
	movl	%edx, 32(%rax)	# D.24261, m_380->consec
	.loc 1 919 0
	movq	-48(%rbp), %rax	# m, tmp926
	movzbl	44(%rax), %edx	# m_380->done, tmp929
	andl	$-9, %edx	#, tmp930
	movb	%dl, 44(%rax)	# tmp930, m_380->done
	.loc 1 920 0
	movq	-48(%rbp), %rax	# m, tmp931
	movq	$0, 64(%rax)	#, m_380->forces
	.loc 1 921 0
	movq	-48(%rbp), %rax	# m, tmp932
	movzbl	44(%rax), %edx	# m_380->partial, tmp935
	andl	$-17, %edx	#, tmp936
	movb	%dl, 44(%rax)	# tmp936, m_380->partial
	.loc 1 922 0
	movl	-176(%rbp), %eax	# move_insn, tmp937
	andl	$1, %eax	#, D.24272
	movl	%eax, %edx	# D.24272, D.24272
	movq	-48(%rbp), %rax	# m, tmp938
	andl	$1, %edx	#, tmp940
	movl	%edx, %ecx	# tmp940, tmp941
	sall	$5, %ecx	#, tmp941
	movzbl	44(%rax), %edx	# m_380->move_insn, tmp942
	andl	$-33, %edx	#, tmp943
	orl	%ecx, %edx	# tmp941, tmp944
	movb	%dl, 44(%rax)	# tmp944, m_380->move_insn
	.loc 1 923 0
	movq	-48(%rbp), %rax	# m, tmp945
	movzbl	44(%rax), %edx	# m_380->move_insn_first, tmp948
	andl	$-65, %edx	#, tmp949
	movb	%dl, 44(%rax)	# tmp949, m_380->move_insn_first
	.loc 1 924 0
	movq	-152(%rbp), %rax	# p, tmp950
	movl	$0, %edx	#,
	movl	$3, %esi	#,
	movq	%rax, %rdi	# tmp950,
	call	find_reg_note	#
	testq	%rax, %rax	# D.24263
	setne	%dl	#, D.24273
	movq	-48(%rbp), %rax	# m, tmp951
	movl	%edx, %ecx	# D.24273, tmp953
	sall	$7, %ecx	#, tmp953
	movzbl	44(%rax), %edx	# m_380->is_equiv, tmp954
	andl	$127, %edx	#, tmp955
	orl	%ecx, %edx	# tmp953, tmp956
	movb	%dl, 44(%rax)	# tmp956, m_380->is_equiv
	.loc 1 925 0
	movq	-48(%rbp), %rax	# m, tmp957
	movl	$0, 48(%rax)	#, m_380->savemode
	.loc 1 926 0
	movl	-160(%rbp), %edx	# regno, regno.74
	movq	-48(%rbp), %rax	# m, tmp958
	movl	%edx, 36(%rax)	# regno.74, m_380->regno
	.loc 1 930 0
	movl	-184(%rbp), %eax	# tem1, tmp959
	movl	-164(%rbp), %edx	# tem, tmp960
	orl	%edx, %eax	# tmp960, D.24261
	orl	-180(%rbp), %eax	# tem2, D.24261
	cmpl	$1, %eax	#, D.24261
	setg	%dl	#, D.24273
	movq	-48(%rbp), %rax	# m, tmp961
	movl	%edx, %ecx	# D.24273, tmp963
	andl	$1, %ecx	#, tmp963
	movzbl	44(%rax), %edx	# m_380->cond, tmp964
	andl	$-2, %edx	#, tmp965
	orl	%ecx, %edx	# tmp963, tmp966
	movb	%dl, 44(%rax)	# tmp966, m_380->cond
	.loc 1 931 0
	movq	uid_luid(%rip), %rdx	# uid_luid, uid_luid.76
	movq	reg_n_info(%rip), %rax	# reg_n_info, reg_n_info.77
	movl	-160(%rbp), %ecx	# regno, tmp968
	movslq	%ecx, %rcx	# tmp968, tmp967
	addq	$4, %rcx	#, tmp969
	movq	(%rax,%rcx,8), %rax	# reg_n_info.77_399->data.reg, D.24269
	movl	4(%rax), %eax	# _400->last_uid, D.24261
	cltq
	salq	$2, %rax	#, D.24264
	addq	%rdx, %rax	# uid_luid.76, D.24265
	movl	(%rax), %edx	# *_404, D.24261
	movq	-216(%rbp), %rax	# loop, tmp970
	movq	200(%rax), %rax	# loop_64(D)->end, D.24263
	movl	8(%rax), %ecx	# _406->fld[0].rtint, D.24261
	movl	max_uid_for_loop(%rip), %eax	# max_uid_for_loop, max_uid_for_loop.79
	cmpl	%eax, %ecx	# max_uid_for_loop.79, D.24261
	jge	.L107	#,
	.loc 1 931 0 is_stmt 0 discriminator 1
	movq	uid_luid(%rip), %rcx	# uid_luid, uid_luid.80
	movq	-216(%rbp), %rax	# loop, tmp971
	movq	200(%rax), %rax	# loop_64(D)->end, D.24263
	movl	8(%rax), %eax	# _410->fld[0].rtint, D.24261
	cltq
	salq	$2, %rax	#, D.24264
	addq	%rcx, %rax	# uid_luid.80, D.24265
	movl	(%rax), %eax	# *_414, iftmp.78
	cmpl	%eax, %edx	# iftmp.78, D.24261
	jg	.L109	#,
	jmp	.L209	#
.L107:
	.loc 1 931 0 discriminator 2
	movl	$__FUNCTION__.12611, %edx	#,
	movl	$931, %esi	#,
	movl	$.LC0, %edi	#,
	call	fancy_abort	#
.L209:
	movq	uid_luid(%rip), %rdx	# uid_luid, uid_luid.81
	movq	reg_n_info(%rip), %rax	# reg_n_info, reg_n_info.82
	movl	-160(%rbp), %ecx	# regno, tmp973
	movslq	%ecx, %rcx	# tmp973, tmp972
	addq	$4, %rcx	#, tmp974
	movq	(%rax,%rcx,8), %rax	# reg_n_info.82_417->data.reg, D.24269
	movl	(%rax), %eax	# _418->first_uid, D.24261
	cltq
	salq	$2, %rax	#, D.24264
	addq	%rdx, %rax	# uid_luid.81, D.24265
	movl	(%rax), %edx	# *_422, D.24261
	movq	-216(%rbp), %rax	# loop, tmp975
	movq	192(%rax), %rax	# loop_64(D)->start, D.24263
	movl	8(%rax), %ecx	# _424->fld[0].rtint, D.24261
	movl	max_uid_for_loop(%rip), %eax	# max_uid_for_loop, max_uid_for_loop.84
	cmpl	%eax, %ecx	# max_uid_for_loop.84, D.24261
	jge	.L110	#,
	.loc 1 931 0 discriminator 1
	movq	uid_luid(%rip), %rcx	# uid_luid, uid_luid.85
	movq	-216(%rbp), %rax	# loop, tmp976
	movq	192(%rax), %rax	# loop_64(D)->start, D.24263
	movl	8(%rax), %eax	# _428->fld[0].rtint, D.24261
	cltq
	salq	$2, %rax	#, D.24264
	addq	%rcx, %rax	# uid_luid.85, D.24265
	movl	(%rax), %eax	# *_432, iftmp.83
	cmpl	%eax, %edx	# iftmp.83, D.24261
	jge	.L112	#,
	jmp	.L109	#
.L110:
	.loc 1 931 0 discriminator 2
	movl	$__FUNCTION__.12611, %edx	#,
	movl	$931, %esi	#,
	movl	$.LC0, %edi	#,
	call	fancy_abort	#
.L109:
	.loc 1 931 0 discriminator 1
	movl	$1, %eax	#, iftmp.75
	jmp	.L113	#
.L112:
	.loc 1 931 0 discriminator 3
	movl	$0, %eax	#, iftmp.75
.L113:
	.loc 1 931 0 discriminator 4
	andl	$1, %eax	#, D.24272
	movl	%eax, %edx	# D.24272, D.24272
	movq	-48(%rbp), %rax	# m, tmp977
	andl	$1, %edx	#, tmp979
	leal	0(,%rdx,4), %ecx	#, tmp980
	movzbl	44(%rax), %edx	# m_380->global, tmp981
	andl	$-5, %edx	#, tmp982
	orl	%ecx, %edx	# tmp980, tmp983
	movb	%dl, 44(%rax)	# tmp983, m_380->global
	.loc 1 932 0 is_stmt 1 discriminator 4
	movq	-48(%rbp), %rax	# m, tmp984
	movq	$0, 56(%rax)	#, m_380->match
	.loc 1 933 0 discriminator 4
	movq	uid_luid(%rip), %rdx	# uid_luid, uid_luid.86
	movq	reg_n_info(%rip), %rax	# reg_n_info, reg_n_info.87
	movl	-160(%rbp), %ecx	# regno, tmp986
	movslq	%ecx, %rcx	# tmp986, tmp985
	addq	$4, %rcx	#, tmp987
	movq	(%rax,%rcx,8), %rax	# reg_n_info.87_439->data.reg, D.24269
	movl	4(%rax), %eax	# _440->last_uid, D.24261
	cltq
	salq	$2, %rax	#, D.24264
	addq	%rdx, %rax	# uid_luid.86, D.24265
	movl	(%rax), %eax	# *_444, D.24261
	movl	%eax, %edx	# D.24261, D.24274
	movq	uid_luid(%rip), %rcx	# uid_luid, uid_luid.88
	movq	reg_n_info(%rip), %rax	# reg_n_info, reg_n_info.89
	movl	-160(%rbp), %esi	# regno, tmp989
	movslq	%esi, %rsi	# tmp989, tmp988
	addq	$4, %rsi	#, tmp990
	movq	(%rax,%rsi,8), %rax	# reg_n_info.89_448->data.reg, D.24269
	movl	(%rax), %eax	# _449->first_uid, D.24261
	cltq
	salq	$2, %rax	#, D.24264
	addq	%rcx, %rax	# uid_luid.88, D.24265
	movl	(%rax), %eax	# *_453, D.24261
	subl	%eax, %edx	# D.24274, D.24274
	movl	%edx, %eax	# D.24274, D.24274
	movl	%eax, %edx	# D.24274, D.24275
	movq	-48(%rbp), %rax	# m, tmp991
	movw	%dx, 40(%rax)	# D.24275, m_380->lifetime
	.loc 1 934 0 discriminator 4
	movq	-112(%rbp), %rax	# regs, tmp992
	movq	8(%rax), %rcx	# regs_67->array, D.24266
	movl	-160(%rbp), %eax	# regno, tmp993
	movslq	%eax, %rdx	# tmp993, D.24264
	movq	%rdx, %rax	# D.24264, tmp994
	addq	%rax, %rax	# tmp994
	addq	%rdx, %rax	# D.24264, tmp994
	salq	$3, %rax	#, tmp995
	addq	%rcx, %rax	# D.24266, D.24266
	movl	4(%rax), %eax	# _461->n_times_set, D.24261
	movl	%eax, %edx	# D.24261, D.24275
	movq	-48(%rbp), %rax	# m, tmp996
	movw	%dx, 42(%rax)	# D.24275, m_380->savings
	.loc 1 935 0 discriminator 4
	movq	-152(%rbp), %rax	# p, tmp997
	movl	$0, %edx	#,
	movl	$6, %esi	#,
	movq	%rax, %rdi	# tmp997,
	call	find_reg_note	#
	testq	%rax, %rax	# D.24263
	je	.L114	#,
	.loc 1 936 0
	movq	-48(%rbp), %rax	# m, tmp998
	movzwl	42(%rax), %eax	# m_380->savings, D.24275
	movl	%eax, %ebx	# D.24275, D.24274
	movq	-152(%rbp), %rax	# p, tmp999
	movq	%rax, %rdi	# tmp999,
	call	libcall_benefit	#
	addl	%ebx, %eax	# D.24274, D.24274
	movl	%eax, %edx	# D.24274, D.24275
	movq	-48(%rbp), %rax	# m, tmp1000
	movw	%dx, 42(%rax)	# D.24275, m_380->savings
.L114:
	.loc 1 937 0
	movl	$0, -200(%rbp)	#, i
	jmp	.L115	#
.L141:
	.loc 1 938 0
	movq	-112(%rbp), %rax	# regs, tmp1001
	movq	8(%rax), %rcx	# regs_67->array, D.24266
	movl	-200(%rbp), %eax	# i, tmp1002
	movl	-160(%rbp), %edx	# regno, tmp1003
	addl	%edx, %eax	# tmp1003, D.24261
	movslq	%eax, %rdx	# D.24261, D.24264
	movq	%rdx, %rax	# D.24264, tmp1004
	addq	%rax, %rax	# tmp1004
	addq	%rdx, %rax	# D.24264, tmp1004
	salq	$3, %rax	#, tmp1005
	leaq	(%rcx,%rax), %rdx	#, D.24266
	cmpl	$0, -176(%rbp)	#, move_insn
	je	.L116	#,
	.loc 1 938 0 is_stmt 0 discriminator 1
	movl	$-2, %eax	#, iftmp.90
	jmp	.L117	#
.L116:
	.loc 1 938 0 discriminator 2
	movl	$-1, %eax	#, iftmp.90
.L117:
	.loc 1 938 0 discriminator 3
	movl	%eax, (%rdx)	# iftmp.90, _521->set_in_loop
	.loc 1 937 0 is_stmt 1 discriminator 3
	addl	$1, -200(%rbp)	#, i
.L115:
	.loc 1 937 0 is_stmt 0 discriminator 1
	cmpl	$52, -160(%rbp)	#, regno
	jg	.L118	#,
	cmpl	$7, -160(%rbp)	#, regno
	jle	.L119	#,
	cmpl	$15, -160(%rbp)	#, regno
	jle	.L120	#,
.L119:
	.loc 1 937 0 discriminator 2
	cmpl	$20, -160(%rbp)	#, regno
	jle	.L121	#,
	.loc 1 937 0 discriminator 1
	cmpl	$28, -160(%rbp)	#, regno
	jle	.L120	#,
.L121:
	.loc 1 937 0 discriminator 2
	cmpl	$44, -160(%rbp)	#, regno
	jle	.L122	#,
	.loc 1 937 0 discriminator 1
	cmpl	$52, -160(%rbp)	#, regno
	jle	.L120	#,
.L122:
	.loc 1 937 0 discriminator 2
	cmpl	$28, -160(%rbp)	#, regno
	jle	.L123	#,
	.loc 1 937 0 discriminator 1
	cmpl	$36, -160(%rbp)	#, regno
	jg	.L123	#,
.L120:
	movq	-72(%rbp), %rax	# set, tmp1006
	movq	8(%rax), %rax	# set_172->fld[0].rtx, D.24263
	movzbl	2(%rax), %eax	# _504->mode, D.24270
	movzbl	%al, %eax	# D.24270, D.24261
	cltq
	movl	mode_class(,%rax,4), %eax	# mode_class, D.24271
	cmpl	$5, %eax	#, D.24271
	je	.L124	#,
	.loc 1 937 0 discriminator 2
	movq	-72(%rbp), %rax	# set, tmp1008
	movq	8(%rax), %rax	# set_172->fld[0].rtx, D.24263
	movzbl	2(%rax), %eax	# _508->mode, D.24270
	movzbl	%al, %eax	# D.24270, D.24261
	cltq
	movl	mode_class(,%rax,4), %eax	# mode_class, D.24271
	cmpl	$6, %eax	#, D.24271
	jne	.L125	#,
.L124:
	.loc 1 937 0 discriminator 1
	movl	$2, %eax	#, iftmp.93
	jmp	.L126	#
.L125:
	movl	$1, %eax	#, iftmp.93
.L126:
	.loc 1 937 0 discriminator 3
	jmp	.L127	#
.L123:
	.loc 1 937 0 discriminator 2
	movq	-72(%rbp), %rax	# set, tmp1010
	movq	8(%rax), %rax	# set_172->fld[0].rtx, D.24263
	movzbl	2(%rax), %eax	# _472->mode, D.24270
	cmpb	$18, %al	#, D.24270
	jne	.L128	#,
	.loc 1 937 0 discriminator 1
	movl	target_flags(%rip), %eax	# target_flags, target_flags.96
	andl	$33554432, %eax	#, D.24261
	testl	%eax, %eax	# D.24261
	je	.L129	#,
	movl	$2, %eax	#, iftmp.95
	jmp	.L140	#
.L129:
	.loc 1 937 0 discriminator 2
	movl	$3, %eax	#, iftmp.95
	jmp	.L140	#
.L128:
	movq	-72(%rbp), %rax	# set, tmp1011
	movq	8(%rax), %rax	# set_172->fld[0].rtx, D.24263
	movzbl	2(%rax), %eax	# _479->mode, D.24270
	cmpb	$24, %al	#, D.24270
	jne	.L132	#,
	.loc 1 937 0 discriminator 1
	movl	target_flags(%rip), %eax	# target_flags, target_flags.99
	andl	$33554432, %eax	#, D.24261
	testl	%eax, %eax	# D.24261
	je	.L133	#,
	movl	$4, %eax	#, iftmp.98
	jmp	.L140	#
.L133:
	.loc 1 937 0 discriminator 2
	movl	$6, %eax	#, iftmp.98
	jmp	.L140	#
.L132:
	movq	-72(%rbp), %rax	# set, tmp1012
	movq	8(%rax), %rax	# set_172->fld[0].rtx, D.24263
	movzbl	2(%rax), %eax	# _486->mode, D.24270
	movzbl	%al, %eax	# D.24270, D.24261
	cltq
	movzbl	mode_size(%rax), %eax	# mode_size, D.24270
	movzbl	%al, %edx	# D.24270, D.24261
	movl	target_flags(%rip), %eax	# target_flags, target_flags.101
	andl	$33554432, %eax	#, D.24261
	testl	%eax, %eax	# D.24261
	je	.L136	#,
	.loc 1 937 0 discriminator 1
	movl	$8, %eax	#, iftmp.100
	jmp	.L137	#
.L136:
	.loc 1 937 0 discriminator 2
	movl	$4, %eax	#, iftmp.100
.L137:
	.loc 1 937 0 discriminator 3
	addl	%edx, %eax	# D.24261, D.24261
	subl	$1, %eax	#, D.24261
	movl	target_flags(%rip), %edx	# target_flags, target_flags.103
	andl	$33554432, %edx	#, D.24261
	testl	%edx, %edx	# D.24261
	je	.L138	#,
	.loc 1 937 0 discriminator 1
	movl	$8, %ebx	#, iftmp.102
	jmp	.L139	#
.L138:
	.loc 1 937 0 discriminator 2
	movl	$4, %ebx	#, iftmp.102
.L139:
	.loc 1 937 0 discriminator 3
	cltd
	idivl	%ebx	# iftmp.102
.L127:
	jmp	.L140	#
.L118:
	.loc 1 937 0 discriminator 2
	movl	$1, %eax	#, iftmp.91
.L140:
	.loc 1 937 0 discriminator 3
	cmpl	-200(%rbp), %eax	# i, iftmp.91
	jg	.L141	#,
	.loc 1 940 0 is_stmt 1
	movq	-48(%rbp), %rdx	# m, tmp1016
	movq	-80(%rbp), %rax	# movables, tmp1017
	movq	%rdx, %rsi	# tmp1016,
	movq	%rax, %rdi	# tmp1017,
	call	loop_movables_add	#
	.loc 1 942 0
	movq	-48(%rbp), %rax	# m, tmp1018
	movl	32(%rax), %eax	# m_380->consec, D.24261
	testl	%eax, %eax	# D.24261
	jle	.L142	#,
	.loc 1 948 0
	movq	-48(%rbp), %rax	# m, tmp1019
	movzbl	44(%rax), %eax	# *m_380, tmp1022
	shrb	$5, %al	#, D.24272
	andl	$1, %eax	#, D.24272
	movq	-48(%rbp), %rdx	# m, tmp1023
	andl	$1, %eax	#, tmp1025
	sall	$6, %eax	#, tmp1026
	movl	%eax, %ecx	# tmp1026, tmp1026
	movzbl	44(%rdx), %eax	# m_380->move_insn_first, tmp1027
	andl	$-65, %eax	#, tmp1028
	orl	%ecx, %eax	# tmp1026, tmp1029
	movb	%al, 44(%rdx)	# tmp1029, m_380->move_insn_first
	.loc 1 951 0
	movq	-152(%rbp), %rax	# p, tmp1030
	movq	%rax, %rdi	# tmp1030,
	call	next_nonnote_insn	#
	movq	%rax, -152(%rbp)	# tmp1031, p
	.loc 1 953 0
	movq	-48(%rbp), %rax	# m, tmp1032
	movl	32(%rax), %edx	# m_380->consec, D.24261
	movq	-152(%rbp), %rax	# p, tmp1033
	movl	%edx, %esi	# D.24261,
	movq	%rax, %rdi	# tmp1033,
	call	skip_consec_insns	#
	movq	%rax, -152(%rbp)	# tmp1034, p
	.loc 1 955 0
	movq	-152(%rbp), %rax	# p, tmp1035
	movq	%rax, %rdi	# tmp1035,
	call	prev_nonnote_insn	#
	movq	%rax, -152(%rbp)	# tmp1036, p
	.loc 1 960 0
	movq	-152(%rbp), %rax	# p, tmp1037
	movl	$0, %edx	#,
	movl	$3, %esi	#,
	movq	%rax, %rdi	# tmp1037,
	call	find_reg_note	#
	movq	%rax, -64(%rbp)	# tmp1038, temp
	.loc 1 961 0
	cmpq	$0, -64(%rbp)	#, temp
	je	.L143	#,
	.loc 1 962 0
	movq	-64(%rbp), %rax	# temp, tmp1039
	movq	8(%rax), %rdx	# temp_531->fld[0].rtx, D.24263
	movq	-48(%rbp), %rax	# m, tmp1040
	movq	%rdx, 8(%rax)	# D.24263, m_380->set_src
	movq	-48(%rbp), %rax	# m, tmp1041
	movzbl	44(%rax), %edx	# m_380->move_insn, tmp1044
	orl	$32, %edx	#, tmp1045
	movb	%dl, 44(%rax)	# tmp1045, m_380->move_insn
	jmp	.L144	#
.L143:
	.loc 1 965 0
	movq	-152(%rbp), %rax	# p, tmp1046
	movl	$0, %edx	#,
	movl	$4, %esi	#,
	movq	%rax, %rdi	# tmp1046,
	call	find_reg_note	#
	movq	%rax, -64(%rbp)	# tmp1047, temp
	.loc 1 966 0
	cmpq	$0, -64(%rbp)	#, temp
	je	.L145	#,
	.loc 1 966 0 is_stmt 0 discriminator 1
	movq	-64(%rbp), %rax	# temp, tmp1048
	movq	8(%rax), %rax	# temp_533->fld[0].rtx, D.24263
	movzwl	(%rax), %eax	# _534->code, D.24260
	cmpw	$67, %ax	#, D.24260
	je	.L146	#,
	movq	-64(%rbp), %rax	# temp, tmp1049
	movq	8(%rax), %rax	# temp_533->fld[0].rtx, D.24263
	movzwl	(%rax), %eax	# _536->code, D.24260
	cmpw	$68, %ax	#, D.24260
	je	.L146	#,
	movq	-64(%rbp), %rax	# temp, tmp1050
	movq	8(%rax), %rax	# temp_533->fld[0].rtx, D.24263
	movzwl	(%rax), %eax	# _538->code, D.24260
	cmpw	$54, %ax	#, D.24260
	je	.L146	#,
	movq	-64(%rbp), %rax	# temp, tmp1051
	movq	8(%rax), %rax	# temp_533->fld[0].rtx, D.24263
	movzwl	(%rax), %eax	# _540->code, D.24260
	cmpw	$55, %ax	#, D.24260
	je	.L146	#,
	movq	-64(%rbp), %rax	# temp, tmp1052
	movq	8(%rax), %rax	# temp_533->fld[0].rtx, D.24263
	movzwl	(%rax), %eax	# _542->code, D.24260
	cmpw	$58, %ax	#, D.24260
	je	.L146	#,
	movq	-64(%rbp), %rax	# temp, tmp1053
	movq	8(%rax), %rax	# temp_533->fld[0].rtx, D.24263
	movzwl	(%rax), %eax	# _544->code, D.24260
	cmpw	$134, %ax	#, D.24260
	je	.L146	#,
	movq	-64(%rbp), %rax	# temp, tmp1054
	movq	8(%rax), %rax	# temp_533->fld[0].rtx, D.24263
	movzwl	(%rax), %eax	# _546->code, D.24260
	cmpw	$56, %ax	#, D.24260
	je	.L146	#,
	movq	-64(%rbp), %rax	# temp, tmp1055
	movq	8(%rax), %rax	# temp_533->fld[0].rtx, D.24263
	movzwl	(%rax), %eax	# _548->code, D.24260
	cmpw	$140, %ax	#, D.24260
	jne	.L145	#,
.L146:
	.loc 1 967 0 is_stmt 1
	movq	-64(%rbp), %rax	# temp, tmp1056
	movq	8(%rax), %rdx	# temp_533->fld[0].rtx, D.24263
	movq	-48(%rbp), %rax	# m, tmp1057
	movq	%rdx, 8(%rax)	# D.24263, m_380->set_src
	movq	-48(%rbp), %rax	# m, tmp1058
	movzbl	44(%rax), %edx	# m_380->move_insn, tmp1061
	orl	$32, %edx	#, tmp1062
	movb	%dl, 44(%rax)	# tmp1062, m_380->move_insn
	jmp	.L144	#
.L145:
	.loc 1 969 0
	movq	-48(%rbp), %rax	# m, tmp1063
	movzbl	44(%rax), %edx	# m_380->move_insn, tmp1066
	andl	$-33, %edx	#, tmp1067
	movb	%dl, 44(%rax)	# tmp1067, m_380->move_insn
.L144:
	.loc 1 972 0
	movq	-152(%rbp), %rax	# p, tmp1068
	movl	$0, %edx	#,
	movl	$3, %esi	#,
	movq	%rax, %rdi	# tmp1068,
	call	find_reg_note	#
	testq	%rax, %rax	# D.24263
	setne	%dl	#, D.24273
	movq	-48(%rbp), %rax	# m, tmp1069
	movl	%edx, %ecx	# D.24273, tmp1071
	sall	$7, %ecx	#, tmp1071
	movzbl	44(%rax), %edx	# m_380->is_equiv, tmp1072
	andl	$127, %edx	#, tmp1073
	orl	%ecx, %edx	# tmp1071, tmp1074
	movb	%dl, 44(%rax)	# tmp1074, m_380->is_equiv
.LBE5:
	.loc 1 858 0
	jmp	.L71	#
.L142:
	jmp	.L71	#
.L74:
	.loc 1 982 0
	movq	-72(%rbp), %rax	# set, tmp1075
	movq	16(%rax), %rdx	# set_172->fld[1].rtx, D.24263
	movq	const_int_rtx+512(%rip), %rax	# const_int_rtx, D.24263
	cmpq	%rax, %rdx	# D.24263, D.24263
	jne	.L71	#,
	.loc 1 983 0
	movq	-152(%rbp), %rax	# p, tmp1076
	movq	24(%rax), %rax	# p_10->fld[2].rtx, D.24263
	movzwl	(%rax), %eax	# _555->code, D.24260
	cmpw	$32, %ax	#, D.24260
	jne	.L71	#,
	.loc 1 984 0
	movq	-152(%rbp), %rax	# p, tmp1077
	movq	24(%rax), %rax	# p_10->fld[2].rtx, D.24263
	movzwl	(%rax), %eax	# _557->code, D.24260
	movzwl	%ax, %eax	# D.24260, D.24261
	cltq
	movzbl	rtx_class(%rax), %eax	# rtx_class, D.24262
	cmpb	$105, %al	#, D.24262
	jne	.L147	#,
	.loc 1 984 0 is_stmt 0 discriminator 1
	movq	-152(%rbp), %rax	# p, tmp1079
	movq	24(%rax), %rax	# p_10->fld[2].rtx, D.24263
	movq	32(%rax), %rax	# _561->fld[3].rtx, D.24263
	movzwl	(%rax), %eax	# _562->code, D.24260
	cmpw	$47, %ax	#, D.24260
	jne	.L148	#,
	.loc 1 984 0 discriminator 3
	movq	-152(%rbp), %rax	# p, tmp1080
	movq	24(%rax), %rax	# p_10->fld[2].rtx, D.24263
	movq	32(%rax), %rax	# _564->fld[3].rtx, iftmp.105
	jmp	.L150	#
.L148:
	.loc 1 984 0 discriminator 4
	movq	-152(%rbp), %rax	# p, tmp1081
	movq	24(%rax), %rax	# p_10->fld[2].rtx, D.24263
	movq	32(%rax), %rdx	# _566->fld[3].rtx, D.24263
	movq	-152(%rbp), %rax	# p, tmp1082
	movq	24(%rax), %rax	# p_10->fld[2].rtx, D.24263
	movq	%rdx, %rsi	# D.24263,
	movq	%rax, %rdi	# D.24263,
	call	single_set_2	#
	jmp	.L150	#
.L147:
	.loc 1 984 0 discriminator 2
	movl	$0, %eax	#, iftmp.104
.L150:
	.loc 1 984 0 discriminator 5
	movq	%rax, -40(%rbp)	# iftmp.104, set1
	cmpq	$0, -40(%rbp)	#, set1
	je	.L71	#,
	.loc 1 985 0 is_stmt 1
	movq	-40(%rbp), %rax	# set1, tmp1083
	movzwl	(%rax), %eax	# set1_572->code, D.24260
	cmpw	$47, %ax	#, D.24260
	jne	.L71	#,
	.loc 1 986 0
	movq	-40(%rbp), %rax	# set1, tmp1084
	movq	8(%rax), %rax	# set1_572->fld[0].rtx, D.24263
	movzwl	(%rax), %eax	# _574->code, D.24260
	cmpw	$64, %ax	#, D.24260
	jne	.L71	#,
	.loc 1 987 0
	movq	-40(%rbp), %rax	# set1, tmp1085
	movq	8(%rax), %rax	# set1_572->fld[0].rtx, D.24263
	movq	8(%rax), %rax	# _576->fld[0].rtx, D.24263
	movzwl	(%rax), %eax	# _577->code, D.24260
	cmpw	$63, %ax	#, D.24260
	jne	.L71	#,
	.loc 1 988 0
	movq	-40(%rbp), %rax	# set1, tmp1086
	movq	8(%rax), %rax	# set1_572->fld[0].rtx, D.24263
	movq	8(%rax), %rax	# _579->fld[0].rtx, D.24263
	movq	8(%rax), %rdx	# _580->fld[0].rtx, D.24263
	.loc 1 989 0
	movq	-72(%rbp), %rax	# set, tmp1087
	movq	8(%rax), %rax	# set_172->fld[0].rtx, D.24263
	.loc 1 988 0
	cmpq	%rax, %rdx	# D.24263, D.24263
	jne	.L71	#,
	.loc 1 990 0
	movq	-40(%rbp), %rax	# set1, tmp1088
	movq	16(%rax), %rdx	# set1_572->fld[1].rtx, D.24263
	movq	-72(%rbp), %rax	# set, tmp1089
	movq	8(%rax), %rax	# set_172->fld[0].rtx, D.24263
	movq	%rdx, %rsi	# D.24263,
	movq	%rax, %rdi	# D.24263,
	call	reg_mentioned_p	#
	testl	%eax, %eax	# D.24261
	jne	.L71	#,
.LBB6:
	.loc 1 992 0
	movq	-72(%rbp), %rax	# set, tmp1090
	movq	8(%rax), %rax	# set_172->fld[0].rtx, D.24263
	movl	8(%rax), %eax	# _586->fld[0].rtuint, D.24267
	movl	%eax, -156(%rbp)	# D.24267, regno
	.loc 1 993 0
	movq	-112(%rbp), %rax	# regs, tmp1091
	movq	8(%rax), %rcx	# regs_67->array, D.24266
	movl	-156(%rbp), %eax	# regno, tmp1092
	movslq	%eax, %rdx	# tmp1092, D.24264
	movq	%rdx, %rax	# D.24264, tmp1093
	addq	%rax, %rax	# tmp1093
	addq	%rdx, %rax	# D.24264, tmp1093
	salq	$3, %rax	#, tmp1094
	addq	%rcx, %rax	# D.24266, D.24266
	movl	(%rax), %eax	# _592->set_in_loop, D.24261
	cmpl	$2, %eax	#, D.24261
	jne	.L71	#,
.LBB7:
	.loc 1 996 0
	movl	$80, %edi	#,
	call	xmalloc	#
	movq	%rax, -32(%rbp)	# tmp1095, m
	.loc 1 997 0
	movq	-32(%rbp), %rax	# m, tmp1096
	movq	$0, 72(%rax)	#, m_594->next
	.loc 1 998 0
	movq	-32(%rbp), %rax	# m, tmp1097
	movq	-152(%rbp), %rdx	# p, tmp1098
	movq	%rdx, (%rax)	# tmp1098, m_594->insn
	.loc 1 999 0
	movq	-72(%rbp), %rax	# set, tmp1099
	movq	8(%rax), %rdx	# set_172->fld[0].rtx, D.24263
	movq	-32(%rbp), %rax	# m, tmp1100
	movq	%rdx, 16(%rax)	# D.24263, m_594->set_dest
	.loc 1 1000 0
	movq	-32(%rbp), %rax	# m, tmp1101
	movq	$0, 24(%rax)	#, m_594->dependencies
	.loc 1 1001 0
	movq	-32(%rbp), %rax	# m, tmp1102
	movzbl	44(%rax), %edx	# m_594->force, tmp1105
	andl	$-3, %edx	#, tmp1106
	movb	%dl, 44(%rax)	# tmp1106, m_594->force
	.loc 1 1002 0
	movq	-32(%rbp), %rax	# m, tmp1107
	movl	$0, 32(%rax)	#, m_594->consec
	.loc 1 1003 0
	movq	-32(%rbp), %rax	# m, tmp1108
	movzbl	44(%rax), %edx	# m_594->done, tmp1111
	andl	$-9, %edx	#, tmp1112
	movb	%dl, 44(%rax)	# tmp1112, m_594->done
	.loc 1 1004 0
	movq	-32(%rbp), %rax	# m, tmp1113
	movq	$0, 64(%rax)	#, m_594->forces
	.loc 1 1005 0
	movq	-32(%rbp), %rax	# m, tmp1114
	movzbl	44(%rax), %edx	# m_594->move_insn, tmp1117
	andl	$-33, %edx	#, tmp1118
	movb	%dl, 44(%rax)	# tmp1118, m_594->move_insn
	.loc 1 1006 0
	movq	-32(%rbp), %rax	# m, tmp1119
	movzbl	44(%rax), %edx	# m_594->move_insn_first, tmp1122
	andl	$-65, %edx	#, tmp1123
	movb	%dl, 44(%rax)	# tmp1123, m_594->move_insn_first
	.loc 1 1007 0
	movq	-32(%rbp), %rax	# m, tmp1124
	movzbl	44(%rax), %edx	# m_594->partial, tmp1127
	orl	$16, %edx	#, tmp1128
	movb	%dl, 44(%rax)	# tmp1128, m_594->partial
	.loc 1 1026 0
	movq	-152(%rbp), %rax	# p, tmp1129
	movl	8(%rax), %edx	# p_10->fld[0].rtint, D.24261
	movl	max_uid_for_loop(%rip), %eax	# max_uid_for_loop, max_uid_for_loop.107
	.loc 1 1028 0
	cmpl	%eax, %edx	# max_uid_for_loop.107, D.24261
	jge	.L151	#,
	.loc 1 1027 0
	movq	uid_luid(%rip), %rdx	# uid_luid, uid_luid.108
	movq	reg_n_info(%rip), %rax	# reg_n_info, reg_n_info.109
	movl	-156(%rbp), %ecx	# regno, tmp1131
	movslq	%ecx, %rcx	# tmp1131, tmp1130
	addq	$4, %rcx	#, tmp1132
	movq	(%rax,%rcx,8), %rax	# reg_n_info.109_599->data.reg, D.24269
	movl	4(%rax), %eax	# _600->last_uid, D.24261
	cltq
	salq	$2, %rax	#, D.24264
	addq	%rdx, %rax	# uid_luid.108, D.24265
	movl	(%rax), %edx	# *_604, D.24261
	movq	-216(%rbp), %rax	# loop, tmp1133
	movq	200(%rax), %rax	# loop_64(D)->end, D.24263
	movl	8(%rax), %ecx	# _606->fld[0].rtint, D.24261
	movl	max_uid_for_loop(%rip), %eax	# max_uid_for_loop, max_uid_for_loop.111
	cmpl	%eax, %ecx	# max_uid_for_loop.111, D.24261
	jge	.L152	#,
	.loc 1 1027 0 is_stmt 0 discriminator 1
	movq	uid_luid(%rip), %rcx	# uid_luid, uid_luid.112
	movq	-216(%rbp), %rax	# loop, tmp1134
	movq	200(%rax), %rax	# loop_64(D)->end, D.24263
	movl	8(%rax), %eax	# _610->fld[0].rtint, D.24261
	cltq
	salq	$2, %rax	#, D.24264
	addq	%rcx, %rax	# uid_luid.112, D.24265
	movl	(%rax), %eax	# *_614, iftmp.110
	cmpl	%eax, %edx	# iftmp.110, D.24261
	jg	.L151	#,
	jmp	.L210	#
.L152:
	.loc 1 1027 0 discriminator 2
	movl	$__FUNCTION__.12611, %edx	#,
	movl	$1027, %esi	#,
	movl	$.LC0, %edi	#,
	call	fancy_abort	#
.L210:
	.loc 1 1027 0 discriminator 1
	movq	uid_luid(%rip), %rdx	# uid_luid, uid_luid.113
	movq	reg_n_info(%rip), %rax	# reg_n_info, reg_n_info.114
	movl	-156(%rbp), %ecx	# regno, tmp1136
	movslq	%ecx, %rcx	# tmp1136, tmp1135
	addq	$4, %rcx	#, tmp1137
	movq	(%rax,%rcx,8), %rax	# reg_n_info.114_617->data.reg, D.24269
	movl	(%rax), %eax	# _618->first_uid, D.24261
	cltq
	salq	$2, %rax	#, D.24264
	addq	%rdx, %rax	# uid_luid.113, D.24265
	movl	(%rax), %edx	# *_622, D.24261
	movq	-216(%rbp), %rax	# loop, tmp1138
	movq	192(%rax), %rax	# loop_64(D)->start, D.24263
	movl	8(%rax), %ecx	# _624->fld[0].rtint, D.24261
	movl	max_uid_for_loop(%rip), %eax	# max_uid_for_loop, max_uid_for_loop.116
	cmpl	%eax, %ecx	# max_uid_for_loop.116, D.24261
	jge	.L154	#,
	movq	uid_luid(%rip), %rcx	# uid_luid, uid_luid.117
	movq	-216(%rbp), %rax	# loop, tmp1139
	movq	192(%rax), %rax	# loop_64(D)->start, D.24263
	movl	8(%rax), %eax	# _628->fld[0].rtint, D.24261
	cltq
	salq	$2, %rax	#, D.24264
	addq	%rcx, %rax	# uid_luid.117, D.24265
	movl	(%rax), %eax	# *_632, iftmp.115
	cmpl	%eax, %edx	# iftmp.115, D.24261
	jl	.L151	#,
	jmp	.L211	#
.L154:
	.loc 1 1027 0 discriminator 2
	movl	$__FUNCTION__.12611, %edx	#,
	movl	$1027, %esi	#,
	movl	$.LC0, %edi	#,
	call	fancy_abort	#
.L211:
	.loc 1 1029 0 is_stmt 1
	movq	uid_luid(%rip), %rdx	# uid_luid, uid_luid.118
	movq	reg_n_info(%rip), %rax	# reg_n_info, reg_n_info.119
	movl	-156(%rbp), %ecx	# regno, tmp1141
	movslq	%ecx, %rcx	# tmp1141, tmp1140
	addq	$4, %rcx	#, tmp1142
	movq	(%rax,%rcx,8), %rax	# reg_n_info.119_635->data.reg, D.24269
	movl	(%rax), %eax	# _636->first_uid, D.24261
	cltq
	salq	$2, %rax	#, D.24264
	addq	%rdx, %rax	# uid_luid.118, D.24265
	movl	(%rax), %edx	# *_640, D.24261
	movq	-152(%rbp), %rax	# p, tmp1143
	movl	%edx, %esi	# D.24261,
	movq	%rax, %rdi	# tmp1143,
	call	labels_in_range_p	#
	.loc 1 1028 0
	testl	%eax, %eax	# D.24261
	je	.L156	#,
.L151:
	.loc 1 1028 0 is_stmt 0 discriminator 1
	movl	$1, %eax	#, iftmp.106
	jmp	.L157	#
.L156:
	.loc 1 1028 0 discriminator 2
	movl	$0, %eax	#, iftmp.106
.L157:
	.loc 1 1026 0 is_stmt 1
	andl	$1, %eax	#, D.24272
	movl	%eax, %edx	# D.24272, D.24272
	movq	-32(%rbp), %rax	# m, tmp1144
	andl	$1, %edx	#, tmp1146
	leal	0(,%rdx,4), %ecx	#, tmp1147
	movzbl	44(%rax), %edx	# m_594->global, tmp1148
	andl	$-5, %edx	#, tmp1149
	orl	%ecx, %edx	# tmp1147, tmp1150
	movb	%dl, 44(%rax)	# tmp1150, m_594->global
	.loc 1 1030 0
	cmpl	$0, -196(%rbp)	#, maybe_never
	je	.L158	#,
	.loc 1 1030 0 is_stmt 0 discriminator 1
	movq	-32(%rbp), %rax	# m, tmp1151
	movzbl	44(%rax), %eax	# *m_594, D.24270
	andl	$4, %eax	#, D.24270
	testb	%al, %al	# D.24270
	je	.L158	#,
	.loc 1 1031 0 is_stmt 1
	movq	-40(%rbp), %rax	# set1, tmp1152
	movq	16(%rax), %rax	# set1_572->fld[1].rtx, D.24263
	movzbl	2(%rax), %eax	# _649->mode, D.24270
	movzbl	%al, %edx	# D.24270, D.24276
	movq	-32(%rbp), %rax	# m, tmp1153
	movl	%edx, 48(%rax)	# D.24276, m_594->savemode
	jmp	.L159	#
.L158:
	.loc 1 1033 0
	movq	-32(%rbp), %rax	# m, tmp1154
	movl	$0, 48(%rax)	#, m_594->savemode
.L159:
	.loc 1 1034 0
	movl	-156(%rbp), %edx	# regno, regno.120
	movq	-32(%rbp), %rax	# m, tmp1155
	movl	%edx, 36(%rax)	# regno.120, m_594->regno
	.loc 1 1035 0
	movq	-32(%rbp), %rax	# m, tmp1156
	movzbl	44(%rax), %edx	# m_594->cond, tmp1159
	andl	$-2, %edx	#, tmp1160
	movb	%dl, 44(%rax)	# tmp1160, m_594->cond
	.loc 1 1036 0
	movq	-32(%rbp), %rax	# m, tmp1161
	movq	$0, 56(%rax)	#, m_594->match
	.loc 1 1037 0
	movq	uid_luid(%rip), %rdx	# uid_luid, uid_luid.121
	movq	reg_n_info(%rip), %rax	# reg_n_info, reg_n_info.122
	movl	-156(%rbp), %ecx	# regno, tmp1163
	movslq	%ecx, %rcx	# tmp1163, tmp1162
	addq	$4, %rcx	#, tmp1164
	movq	(%rax,%rcx,8), %rax	# reg_n_info.122_654->data.reg, D.24269
	movl	4(%rax), %eax	# _655->last_uid, D.24261
	cltq
	salq	$2, %rax	#, D.24264
	addq	%rdx, %rax	# uid_luid.121, D.24265
	movl	(%rax), %eax	# *_659, D.24261
	movl	%eax, %edx	# D.24261, D.24274
	movq	uid_luid(%rip), %rcx	# uid_luid, uid_luid.123
	movq	reg_n_info(%rip), %rax	# reg_n_info, reg_n_info.124
	movl	-156(%rbp), %esi	# regno, tmp1166
	movslq	%esi, %rsi	# tmp1166, tmp1165
	addq	$4, %rsi	#, tmp1167
	movq	(%rax,%rsi,8), %rax	# reg_n_info.124_663->data.reg, D.24269
	movl	(%rax), %eax	# _664->first_uid, D.24261
	cltq
	salq	$2, %rax	#, D.24264
	addq	%rcx, %rax	# uid_luid.123, D.24265
	movl	(%rax), %eax	# *_668, D.24261
	subl	%eax, %edx	# D.24274, D.24274
	movl	%edx, %eax	# D.24274, D.24274
	movl	%eax, %edx	# D.24274, D.24275
	movq	-32(%rbp), %rax	# m, tmp1168
	movw	%dx, 40(%rax)	# D.24275, m_594->lifetime
	.loc 1 1038 0
	movq	-32(%rbp), %rax	# m, tmp1169
	movw	$1, 42(%rax)	#, m_594->savings
	.loc 1 1039 0
	movl	$0, -200(%rbp)	#, i
	jmp	.L160	#
.L184:
	.loc 1 1040 0 discriminator 2
	movq	-112(%rbp), %rax	# regs, tmp1170
	movq	8(%rax), %rcx	# regs_67->array, D.24266
	movl	-200(%rbp), %eax	# i, tmp1171
	movl	-156(%rbp), %edx	# regno, tmp1172
	addl	%edx, %eax	# tmp1172, D.24261
	movslq	%eax, %rdx	# D.24261, D.24264
	movq	%rdx, %rax	# D.24264, tmp1173
	addq	%rax, %rax	# tmp1173
	addq	%rdx, %rax	# D.24264, tmp1173
	salq	$3, %rax	#, tmp1174
	addq	%rcx, %rax	# D.24266, D.24266
	movl	$-1, (%rax)	#, _723->set_in_loop
	.loc 1 1039 0 discriminator 2
	addl	$1, -200(%rbp)	#, i
.L160:
	.loc 1 1039 0 is_stmt 0 discriminator 1
	cmpl	$52, -156(%rbp)	#, regno
	jg	.L161	#,
	cmpl	$7, -156(%rbp)	#, regno
	jle	.L162	#,
	cmpl	$15, -156(%rbp)	#, regno
	jle	.L163	#,
.L162:
	.loc 1 1039 0 discriminator 2
	cmpl	$20, -156(%rbp)	#, regno
	jle	.L164	#,
	.loc 1 1039 0 discriminator 1
	cmpl	$28, -156(%rbp)	#, regno
	jle	.L163	#,
.L164:
	.loc 1 1039 0 discriminator 2
	cmpl	$44, -156(%rbp)	#, regno
	jle	.L165	#,
	.loc 1 1039 0 discriminator 1
	cmpl	$52, -156(%rbp)	#, regno
	jle	.L163	#,
.L165:
	.loc 1 1039 0 discriminator 2
	cmpl	$28, -156(%rbp)	#, regno
	jle	.L166	#,
	.loc 1 1039 0 discriminator 1
	cmpl	$36, -156(%rbp)	#, regno
	jg	.L166	#,
.L163:
	movq	-72(%rbp), %rax	# set, tmp1175
	movq	8(%rax), %rax	# set_172->fld[0].rtx, D.24263
	movzbl	2(%rax), %eax	# _706->mode, D.24270
	movzbl	%al, %eax	# D.24270, D.24261
	cltq
	movl	mode_class(,%rax,4), %eax	# mode_class, D.24271
	cmpl	$5, %eax	#, D.24271
	je	.L167	#,
	.loc 1 1039 0 discriminator 2
	movq	-72(%rbp), %rax	# set, tmp1177
	movq	8(%rax), %rax	# set_172->fld[0].rtx, D.24263
	movzbl	2(%rax), %eax	# _710->mode, D.24270
	movzbl	%al, %eax	# D.24270, D.24261
	cltq
	movl	mode_class(,%rax,4), %eax	# mode_class, D.24271
	cmpl	$6, %eax	#, D.24271
	jne	.L168	#,
.L167:
	.loc 1 1039 0 discriminator 1
	movl	$2, %eax	#, iftmp.127
	jmp	.L169	#
.L168:
	movl	$1, %eax	#, iftmp.127
.L169:
	.loc 1 1039 0 discriminator 3
	jmp	.L170	#
.L166:
	.loc 1 1039 0 discriminator 2
	movq	-72(%rbp), %rax	# set, tmp1179
	movq	8(%rax), %rax	# set_172->fld[0].rtx, D.24263
	movzbl	2(%rax), %eax	# _674->mode, D.24270
	cmpb	$18, %al	#, D.24270
	jne	.L171	#,
	.loc 1 1039 0 discriminator 1
	movl	target_flags(%rip), %eax	# target_flags, target_flags.130
	andl	$33554432, %eax	#, D.24261
	testl	%eax, %eax	# D.24261
	je	.L172	#,
	movl	$2, %eax	#, iftmp.129
	jmp	.L183	#
.L172:
	.loc 1 1039 0 discriminator 2
	movl	$3, %eax	#, iftmp.129
	jmp	.L183	#
.L171:
	movq	-72(%rbp), %rax	# set, tmp1180
	movq	8(%rax), %rax	# set_172->fld[0].rtx, D.24263
	movzbl	2(%rax), %eax	# _681->mode, D.24270
	cmpb	$24, %al	#, D.24270
	jne	.L175	#,
	.loc 1 1039 0 discriminator 1
	movl	target_flags(%rip), %eax	# target_flags, target_flags.133
	andl	$33554432, %eax	#, D.24261
	testl	%eax, %eax	# D.24261
	je	.L176	#,
	movl	$4, %eax	#, iftmp.132
	jmp	.L183	#
.L176:
	.loc 1 1039 0 discriminator 2
	movl	$6, %eax	#, iftmp.132
	jmp	.L183	#
.L175:
	movq	-72(%rbp), %rax	# set, tmp1181
	movq	8(%rax), %rax	# set_172->fld[0].rtx, D.24263
	movzbl	2(%rax), %eax	# _688->mode, D.24270
	movzbl	%al, %eax	# D.24270, D.24261
	cltq
	movzbl	mode_size(%rax), %eax	# mode_size, D.24270
	movzbl	%al, %edx	# D.24270, D.24261
	movl	target_flags(%rip), %eax	# target_flags, target_flags.135
	andl	$33554432, %eax	#, D.24261
	testl	%eax, %eax	# D.24261
	je	.L179	#,
	.loc 1 1039 0 discriminator 1
	movl	$8, %eax	#, iftmp.134
	jmp	.L180	#
.L179:
	.loc 1 1039 0 discriminator 2
	movl	$4, %eax	#, iftmp.134
.L180:
	.loc 1 1039 0 discriminator 3
	addl	%edx, %eax	# D.24261, D.24261
	subl	$1, %eax	#, D.24261
	movl	target_flags(%rip), %edx	# target_flags, target_flags.137
	andl	$33554432, %edx	#, D.24261
	testl	%edx, %edx	# D.24261
	je	.L181	#,
	.loc 1 1039 0 discriminator 1
	movl	$8, %ebx	#, iftmp.136
	jmp	.L182	#
.L181:
	.loc 1 1039 0 discriminator 2
	movl	$4, %ebx	#, iftmp.136
.L182:
	.loc 1 1039 0 discriminator 3
	cltd
	idivl	%ebx	# iftmp.136
.L170:
	jmp	.L183	#
.L161:
	.loc 1 1039 0 discriminator 2
	movl	$1, %eax	#, iftmp.125
.L183:
	.loc 1 1039 0 discriminator 3
	cmpl	-200(%rbp), %eax	# i, iftmp.125
	jg	.L184	#,
	.loc 1 1042 0 is_stmt 1
	movq	-32(%rbp), %rdx	# m, tmp1185
	movq	-80(%rbp), %rax	# movables, tmp1186
	movq	%rdx, %rsi	# tmp1185,
	movq	%rax, %rdi	# tmp1186,
	call	loop_movables_add	#
.LBE7:
.LBE6:
.LBE3:
	.loc 1 770 0
	jmp	.L106	#
.L71:
	jmp	.L106	#
.L58:
	.loc 1 1049 0
	movq	-152(%rbp), %rax	# p, tmp1187
	movzwl	(%rax), %eax	# p_10->code, D.24260
	cmpw	$34, %ax	#, D.24260
	jne	.L185	#,
	.loc 1 1049 0 is_stmt 0 discriminator 1
	movq	-152(%rbp), %rax	# p, tmp1188
	movzbl	3(%rax), %eax	# *p_10, D.24270
	andl	$4, %eax	#, D.24270
	testb	%al, %al	# D.24270
	jne	.L185	#,
	.loc 1 1050 0 is_stmt 1
	movl	$1, -192(%rbp)	#, call_passed
	jmp	.L106	#
.L185:
	.loc 1 1057 0
	movq	-152(%rbp), %rax	# p, tmp1189
	movzwl	(%rax), %eax	# p_10->code, D.24260
	cmpw	$36, %ax	#, D.24260
	je	.L186	#,
	.loc 1 1057 0 is_stmt 0 discriminator 1
	movq	-152(%rbp), %rax	# p, tmp1190
	movzwl	(%rax), %eax	# p_10->code, D.24260
	cmpw	$33, %ax	#, D.24260
	jne	.L187	#,
.L186:
	.loc 1 1063 0 is_stmt 1
	movq	-152(%rbp), %rax	# p, tmp1191
	movzwl	(%rax), %eax	# p_10->code, D.24260
	cmpw	$33, %ax	#, D.24260
	jne	.L188	#,
	.loc 1 1063 0 is_stmt 0 discriminator 1
	movq	-152(%rbp), %rax	# p, tmp1192
	movq	64(%rax), %rdx	# p_10->fld[7].rtx, D.24263
	movq	-216(%rbp), %rax	# loop, tmp1193
	movq	208(%rax), %rax	# loop_64(D)->top, D.24263
	cmpq	%rax, %rdx	# D.24263, D.24263
	jne	.L188	#,
	.loc 1 1064 0 is_stmt 1
	movq	-152(%rbp), %rax	# p, tmp1194
	movq	24(%rax), %rax	# p_10->fld[2].rtx, D.24263
	movq	24(%rax), %rax	# _734->fld[2].rtx, D.24263
	cmpq	-96(%rbp), %rax	# loop_end, D.24263
	jne	.L188	#,
	.loc 1 1065 0
	movq	-152(%rbp), %rax	# p, tmp1195
	movq	%rax, %rdi	# tmp1195,
	call	any_uncondjump_p	#
	.loc 1 1063 0
	testl	%eax, %eax	# D.24261
	jne	.L187	#,
.L188:
	.loc 1 1066 0
	movl	$1, -196(%rbp)	#, maybe_never
	jmp	.L106	#
.L187:
	.loc 1 1067 0
	movq	-152(%rbp), %rax	# p, tmp1196
	movzwl	(%rax), %eax	# p_10->code, D.24260
	cmpw	$37, %ax	#, D.24260
	jne	.L106	#,
	.loc 1 1072 0
	movq	-152(%rbp), %rax	# p, tmp1197
	movl	40(%rax), %eax	# p_10->fld[4].rtint, D.24261
	cmpl	$-93, %eax	#, D.24261
	jne	.L189	#,
	.loc 1 1072 0 is_stmt 0 discriminator 1
	cmpl	$0, -188(%rbp)	#, loop_depth
	jne	.L189	#,
	.loc 1 1073 0 is_stmt 1
	movl	$0, -192(%rbp)	#, call_passed
	movl	-192(%rbp), %eax	# call_passed, tmp1198
	movl	%eax, -196(%rbp)	# tmp1198, maybe_never
	jmp	.L106	#
.L189:
	.loc 1 1074 0
	movq	-152(%rbp), %rax	# p, tmp1199
	movl	40(%rax), %eax	# p_10->fld[4].rtint, D.24261
	cmpl	$-96, %eax	#, D.24261
	jne	.L190	#,
	.loc 1 1075 0
	addl	$1, -188(%rbp)	#, loop_depth
	jmp	.L106	#
.L190:
	.loc 1 1076 0
	movq	-152(%rbp), %rax	# p, tmp1200
	movl	40(%rax), %eax	# p_10->fld[4].rtint, D.24261
	cmpl	$-95, %eax	#, D.24261
	jne	.L106	#,
	.loc 1 1077 0
	subl	$1, -188(%rbp)	#, loop_depth
.L106:
	.loc 1 761 0
	movq	-152(%rbp), %rdx	# p, tmp1201
	movq	-216(%rbp), %rax	# loop, tmp1202
	movq	%rdx, %rsi	# tmp1201,
	movq	%rax, %rdi	# tmp1202,
	call	next_insn_in_loop	#
	movq	%rax, -152(%rbp)	# tmp1203, p
.L57:
	.loc 1 759 0 discriminator 1
	cmpq	$0, -152(%rbp)	#, p
	jne	.L191	#,
	.loc 1 1083 0
	movq	-80(%rbp), %rax	# movables, tmp1204
	movq	%rax, %rdi	# tmp1204,
	call	ignore_some_movables	#
	.loc 1 1090 0
	movq	-80(%rbp), %rax	# movables, tmp1205
	movq	%rax, %rdi	# tmp1205,
	call	force_movables	#
	.loc 1 1097 0
	movq	-112(%rbp), %rdx	# regs, tmp1206
	movq	-80(%rbp), %rax	# movables, tmp1207
	movq	%rdx, %rsi	# tmp1206,
	movq	%rax, %rdi	# tmp1207,
	call	combine_movables	#
	.loc 1 1105 0
	movl	optimize_size(%rip), %eax	# optimize_size, optimize_size.138
	testl	%eax, %eax	# optimize_size.138
	jne	.L192	#,
	.loc 1 1107 0
	movl	-168(%rbp), %ecx	# insn_count, tmp1208
	movl	-172(%rbp), %edx	# threshold, tmp1209
	movq	-80(%rbp), %rsi	# movables, tmp1210
	movq	-216(%rbp), %rax	# loop, tmp1211
	movq	%rax, %rdi	# tmp1211,
	call	move_movables	#
	.loc 1 1111 0
	call	max_reg_num	#
	movq	-112(%rbp), %rdx	# regs, tmp1212
	movl	(%rdx), %edx	# regs_67->num, D.24261
	cmpl	%edx, %eax	# D.24261, D.24261
	jle	.L192	#,
	.loc 1 1113 0
	movq	-216(%rbp), %rax	# loop, tmp1213
	movl	$0, %esi	#,
	movq	%rax, %rdi	# tmp1213,
	call	loop_regs_scan	#
	.loc 1 1114 0
	movq	-104(%rbp), %rax	# loop_start, tmp1214
	movq	%rax, -144(%rbp)	# tmp1214, update_start
	jmp	.L193	#
.L195:
	.loc 1 1117 0
	movq	-144(%rbp), %rax	# update_start, tmp1215
	movq	16(%rax), %rax	# update_start_15->fld[1].rtx, tmp1216
	movq	%rax, -144(%rbp)	# tmp1216, update_start
.L193:
	.loc 1 1115 0 discriminator 1
	movq	-144(%rbp), %rax	# update_start, tmp1217
	movq	16(%rax), %rax	# update_start_15->fld[1].rtx, D.24263
	.loc 1 1114 0 discriminator 1
	testq	%rax, %rax	# D.24263
	je	.L194	#,
	.loc 1 1116 0
	movq	-144(%rbp), %rax	# update_start, tmp1218
	movq	16(%rax), %rax	# update_start_15->fld[1].rtx, D.24263
	movzwl	(%rax), %eax	# _752->code, D.24260
	cmpw	$36, %ax	#, D.24260
	jne	.L195	#,
.L194:
	.loc 1 1119 0
	movq	-96(%rbp), %rax	# loop_end, tmp1219
	movq	24(%rax), %rax	# loop_end_69->fld[2].rtx, tmp1220
	movq	%rax, -24(%rbp)	# tmp1220, update_end
	.loc 1 1121 0
	movl	loop_max_reg(%rip), %eax	# loop_max_reg, loop_max_reg.139
	movl	%eax, %edx	# loop_max_reg.139, loop_max_reg.140
	movq	-24(%rbp), %rcx	# update_end, tmp1221
	movq	-144(%rbp), %rax	# update_start, tmp1222
	movq	%rcx, %rsi	# tmp1221,
	movq	%rax, %rdi	# tmp1222,
	call	reg_scan_update	#
	.loc 1 1122 0
	call	max_reg_num	#
	movl	%eax, loop_max_reg(%rip)	# loop_max_reg.141, loop_max_reg
.L192:
	.loc 1 1129 0
	movl	$0, -200(%rbp)	#, i
	jmp	.L196	#
.L198:
	.loc 1 1130 0
	movq	-112(%rbp), %rax	# regs, tmp1223
	movq	8(%rax), %rcx	# regs_67->array, D.24266
	movl	-200(%rbp), %eax	# i, tmp1224
	movslq	%eax, %rdx	# tmp1224, D.24264
	movq	%rdx, %rax	# D.24264, tmp1225
	addq	%rax, %rax	# tmp1225
	addq	%rdx, %rax	# D.24264, tmp1225
	salq	$3, %rax	#, tmp1226
	addq	%rcx, %rax	# D.24266, D.24266
	movl	(%rax), %eax	# _764->set_in_loop, D.24261
	testl	%eax, %eax	# D.24261
	jns	.L197	#,
	.loc 1 1131 0
	movq	-112(%rbp), %rax	# regs, tmp1227
	movq	8(%rax), %rcx	# regs_67->array, D.24266
	movl	-200(%rbp), %eax	# i, tmp1228
	movslq	%eax, %rdx	# tmp1228, D.24264
	movq	%rdx, %rax	# D.24264, tmp1229
	addq	%rax, %rax	# tmp1229
	addq	%rdx, %rax	# D.24264, tmp1229
	salq	$3, %rax	#, tmp1230
	addq	%rax, %rcx	# D.24264, D.24266
	movq	-112(%rbp), %rax	# regs, tmp1231
	movq	8(%rax), %rsi	# regs_67->array, D.24266
	movl	-200(%rbp), %eax	# i, tmp1232
	movslq	%eax, %rdx	# tmp1232, D.24264
	movq	%rdx, %rax	# D.24264, tmp1233
	addq	%rax, %rax	# tmp1233
	addq	%rdx, %rax	# D.24264, tmp1233
	salq	$3, %rax	#, tmp1234
	addq	%rsi, %rax	# D.24266, D.24266
	movl	4(%rax), %eax	# _773->n_times_set, D.24261
	movl	%eax, (%rcx)	# D.24261, _769->set_in_loop
.L197:
	.loc 1 1129 0
	addl	$1, -200(%rbp)	#, i
.L196:
	.loc 1 1129 0 is_stmt 0 discriminator 1
	movq	-112(%rbp), %rax	# regs, tmp1235
	movl	(%rax), %eax	# regs_67->num, D.24261
	cmpl	-200(%rbp), %eax	# i, D.24261
	jg	.L198	#,
	.loc 1 1135 0 is_stmt 1
	movq	-216(%rbp), %rax	# loop, tmp1236
	movq	%rax, %rdi	# tmp1236,
	call	load_mems	#
	.loc 1 1138 0
	call	max_reg_num	#
	movq	-112(%rbp), %rdx	# regs, tmp1237
	movl	(%rdx), %edx	# regs_67->num, D.24261
	cmpl	%edx, %eax	# D.24261, D.24261
	jle	.L199	#,
	.loc 1 1139 0
	movq	-216(%rbp), %rax	# loop, tmp1238
	movl	$0, %esi	#,
	movq	%rax, %rdi	# tmp1238,
	call	loop_regs_scan	#
.L199:
	.loc 1 1141 0
	movq	-104(%rbp), %rax	# loop_start, tmp1239
	movq	%rax, -144(%rbp)	# tmp1239, update_start
	jmp	.L200	#
.L202:
	.loc 1 1144 0
	movq	-144(%rbp), %rax	# update_start, tmp1240
	movq	16(%rax), %rax	# update_start_16->fld[1].rtx, tmp1241
	movq	%rax, -144(%rbp)	# tmp1241, update_start
.L200:
	.loc 1 1142 0 discriminator 1
	movq	-144(%rbp), %rax	# update_start, tmp1242
	movq	16(%rax), %rax	# update_start_16->fld[1].rtx, D.24263
	.loc 1 1141 0 discriminator 1
	testq	%rax, %rax	# D.24263
	je	.L201	#,
	.loc 1 1143 0
	movq	-144(%rbp), %rax	# update_start, tmp1243
	movq	16(%rax), %rax	# update_start_16->fld[1].rtx, D.24263
	movzwl	(%rax), %eax	# _780->code, D.24260
	cmpw	$36, %ax	#, D.24260
	jne	.L202	#,
.L201:
	.loc 1 1146 0
	movq	-96(%rbp), %rax	# loop_end, tmp1244
	movq	24(%rax), %rax	# loop_end_69->fld[2].rtx, tmp1245
	movq	%rax, -24(%rbp)	# tmp1245, update_end
	.loc 1 1148 0
	movl	loop_max_reg(%rip), %eax	# loop_max_reg, loop_max_reg.142
	movl	%eax, %edx	# loop_max_reg.142, loop_max_reg.143
	movq	-24(%rbp), %rcx	# update_end, tmp1246
	movq	-144(%rbp), %rax	# update_start, tmp1247
	movq	%rcx, %rsi	# tmp1246,
	movq	%rax, %rdi	# tmp1247,
	call	reg_scan_update	#
	.loc 1 1149 0
	call	max_reg_num	#
	movl	%eax, loop_max_reg(%rip)	# loop_max_reg.144, loop_max_reg
	.loc 1 1151 0
	movl	flag_strength_reduce(%rip), %eax	# flag_strength_reduce, flag_strength_reduce.145
	testl	%eax, %eax	# flag_strength_reduce.145
	je	.L203	#,
	.loc 1 1153 0
	cmpq	$0, -24(%rbp)	#, update_end
	je	.L204	#,
	.loc 1 1153 0 is_stmt 0 discriminator 1
	movq	-24(%rbp), %rax	# update_end, tmp1248
	movzwl	(%rax), %eax	# update_end_783->code, D.24260
	cmpw	$36, %ax	#, D.24260
	jne	.L204	#,
	.loc 1 1155 0 is_stmt 1
	movq	-24(%rbp), %rax	# update_end, tmp1249
	movl	32(%rax), %eax	# update_end_783->fld[3].rtint, D.24261
	leal	1(%rax), %edx	#, D.24261
	movq	-24(%rbp), %rax	# update_end, tmp1250
	movl	%edx, 32(%rax)	# D.24261, update_end_783->fld[3].rtint
.L204:
	.loc 1 1157 0
	movl	-220(%rbp), %edx	# flags, tmp1251
	movq	-216(%rbp), %rax	# loop, tmp1252
	movl	%edx, %esi	# tmp1251,
	movq	%rax, %rdi	# tmp1252,
	call	strength_reduce	#
	.loc 1 1159 0
	movl	loop_max_reg(%rip), %eax	# loop_max_reg, loop_max_reg.146
	movl	%eax, %edx	# loop_max_reg.146, loop_max_reg.147
	movq	-24(%rbp), %rcx	# update_end, tmp1253
	movq	-144(%rbp), %rax	# update_start, tmp1254
	movq	%rcx, %rsi	# tmp1253,
	movq	%rax, %rdi	# tmp1254,
	call	reg_scan_update	#
	.loc 1 1160 0
	call	max_reg_num	#
	movl	%eax, loop_max_reg(%rip)	# loop_max_reg.148, loop_max_reg
	.loc 1 1162 0
	cmpq	$0, -24(%rbp)	#, update_end
	je	.L203	#,
	.loc 1 1162 0 is_stmt 0 discriminator 1
	movq	-24(%rbp), %rax	# update_end, tmp1255
	movzwl	(%rax), %eax	# update_end_783->code, D.24260
	cmpw	$36, %ax	#, D.24260
	jne	.L203	#,
	.loc 1 1163 0 is_stmt 1
	movq	-24(%rbp), %rax	# update_end, tmp1256
	movl	32(%rax), %eax	# update_end_783->fld[3].rtint, D.24261
	leal	-1(%rax), %edx	#, D.24261
	movq	-24(%rbp), %rax	# update_end, tmp1257
	movl	%edx, 32(%rax)	# D.24261, update_end_783->fld[3].rtint
	movq	-24(%rbp), %rax	# update_end, tmp1258
	movl	32(%rax), %eax	# update_end_783->fld[3].rtint, D.24261
	testl	%eax, %eax	# D.24261
	jne	.L203	#,
	.loc 1 1164 0
	movq	-24(%rbp), %rax	# update_end, tmp1259
	movq	%rax, %rdi	# tmp1259,
	call	delete_related_insns	#
.L203:
	.loc 1 1169 0
	movq	-80(%rbp), %rax	# movables, tmp1260
	movq	%rax, %rdi	# tmp1260,
	call	loop_movables_free	#
	.loc 1 1171 0
	movq	-112(%rbp), %rax	# regs, tmp1261
	movq	8(%rax), %rax	# regs_67->array, D.24266
	movq	%rax, %rdi	# D.24266,
	call	free	#
	.loc 1 1172 0
	movq	-112(%rbp), %rax	# regs, tmp1262
	movq	$0, 8(%rax)	#, regs_67->array
	.loc 1 1173 0
	movq	-112(%rbp), %rax	# regs, tmp1263
	movl	$0, (%rax)	#, regs_67->num
.L35:
	.loc 1 1174 0
	addq	$216, %rsp	#,
	popq	%rbx	#
	popq	%rbp	#
	.cfi_def_cfa 7, 8
	ret
	.cfi_endproc
.LFE6:
	.size	scan_loop, .-scan_loop
	.globl	record_excess_regs
	.type	record_excess_regs, @function
record_excess_regs:
.LFB7:
	.loc 1 1183 0
	.cfi_startproc
	pushq	%rbp	#
	.cfi_def_cfa_offset 16
	.cfi_offset 6, -16
	movq	%rsp, %rbp	#,
	.cfi_def_cfa_register 6
	subq	$64, %rsp	#,
	movq	%rdi, -40(%rbp)	# in_this, in_this
	movq	%rsi, -48(%rbp)	# not_in_this, not_in_this
	movq	%rdx, -56(%rbp)	# output, output
	.loc 1 1188 0
	movq	-40(%rbp), %rax	# in_this, tmp77
	movzwl	(%rax), %eax	# in_this_3(D)->code, D.24280
	movzwl	%ax, %eax	# D.24280, tmp78
	movl	%eax, -12(%rbp)	# tmp78, code
	.loc 1 1190 0
	movl	-12(%rbp), %eax	# code, tmp80
	subl	$54, %eax	#, tmp79
	cmpl	$15, %eax	#, tmp79
	ja	.L227	#,
	movl	%eax, %eax	# tmp79, tmp81
	movq	.L215(,%rax,8), %rax	#, tmp82
	jmp	*%rax	# tmp82
	.section	.rodata
	.align 8
	.align 4
.L215:
	.quad	.L228
	.quad	.L228
	.quad	.L227
	.quad	.L227
	.quad	.L228
	.quad	.L228
	.quad	.L227
	.quad	.L216
	.quad	.L227
	.quad	.L227
	.quad	.L227
	.quad	.L227
	.quad	.L227
	.quad	.L228
	.quad	.L228
	.quad	.L228
	.text
.L216:
	.loc 1 1202 0
	movq	-40(%rbp), %rax	# in_this, tmp83
	movl	8(%rax), %eax	# in_this_3(D)->fld[0].rtuint, D.24281
	cmpl	$52, %eax	#, D.24281
	jbe	.L218	#,
	.loc 1 1203 0
	movq	-48(%rbp), %rdx	# not_in_this, tmp84
	movq	-40(%rbp), %rax	# in_this, tmp85
	movq	%rdx, %rsi	# tmp84,
	movq	%rax, %rdi	# tmp85,
	call	reg_mentioned_p	#
	testl	%eax, %eax	# D.24282
	jne	.L218	#,
	.loc 1 1204 0
	movq	-56(%rbp), %rax	# output, tmp86
	movq	(%rax), %rdx	# *output_9(D), D.24283
	movq	-40(%rbp), %rax	# in_this, tmp87
	movq	%rdx, %rcx	# D.24283,
	movq	%rax, %rdx	# tmp87,
	movl	$0, %esi	#,
	movl	$3, %edi	#,
	call	gen_rtx_fmt_ee	#
	movq	-56(%rbp), %rdx	# output, tmp88
	movq	%rax, (%rdx)	# D.24283, *output_9(D)
	.loc 1 1205 0
	jmp	.L212	#
.L218:
	jmp	.L212	#
.L227:
	.loc 1 1208 0
	nop
	.loc 1 1211 0
	movl	-12(%rbp), %eax	# code, code.149
	cltq
	movq	rtx_format(,%rax,8), %rax	# rtx_format, tmp90
	movq	%rax, -8(%rbp)	# tmp90, fmt
	.loc 1 1212 0
	movl	-12(%rbp), %eax	# code, code.150
	cltq
	movzbl	rtx_length(%rax), %eax	# rtx_length, D.24284
	movzbl	%al, %eax	# D.24284, D.24282
	subl	$1, %eax	#, tmp92
	movl	%eax, -20(%rbp)	# tmp92, i
	jmp	.L219	#
.L225:
.LBB8:
	.loc 1 1216 0
	movl	-20(%rbp), %eax	# i, tmp93
	movslq	%eax, %rdx	# tmp93, D.24285
	movq	-8(%rbp), %rax	# fmt, tmp94
	addq	%rdx, %rax	# D.24285, D.24286
	movzbl	(%rax), %eax	# *_19, D.24287
	movsbl	%al, %eax	# D.24287, D.24282
	cmpl	$69, %eax	#, D.24282
	je	.L221	#,
	cmpl	$101, %eax	#, D.24282
	je	.L222	#,
	jmp	.L220	#
.L221:
	.loc 1 1219 0
	movl	$0, -16(%rbp)	#, j
	jmp	.L223	#
.L224:
	.loc 1 1220 0 discriminator 2
	movq	-40(%rbp), %rax	# in_this, tmp95
	movl	-20(%rbp), %edx	# i, tmp97
	movslq	%edx, %rdx	# tmp97, tmp96
	movq	8(%rax,%rdx,8), %rax	# in_this_3(D)->fld[i_1].rtvec, D.24288
	movl	-16(%rbp), %edx	# j, tmp99
	movslq	%edx, %rdx	# tmp99, tmp98
	movq	8(%rax,%rdx,8), %rax	# _25->elem, D.24283
	movq	-56(%rbp), %rdx	# output, tmp100
	movq	-48(%rbp), %rcx	# not_in_this, tmp101
	movq	%rcx, %rsi	# tmp101,
	movq	%rax, %rdi	# D.24283,
	call	record_excess_regs	#
	.loc 1 1219 0 discriminator 2
	addl	$1, -16(%rbp)	#, j
.L223:
	.loc 1 1219 0 is_stmt 0 discriminator 1
	movq	-40(%rbp), %rax	# in_this, tmp102
	movl	-20(%rbp), %edx	# i, tmp104
	movslq	%edx, %rdx	# tmp104, tmp103
	movq	8(%rax,%rdx,8), %rax	# in_this_3(D)->fld[i_1].rtvec, D.24288
	movl	(%rax), %eax	# _23->num_elem, D.24282
	cmpl	-16(%rbp), %eax	# j, D.24282
	jg	.L224	#,
	.loc 1 1221 0 is_stmt 1
	jmp	.L220	#
.L222:
	.loc 1 1224 0
	movq	-40(%rbp), %rax	# in_this, tmp105
	movl	-20(%rbp), %edx	# i, tmp107
	movslq	%edx, %rdx	# tmp107, tmp106
	movq	8(%rax,%rdx,8), %rax	# in_this_3(D)->fld[i_1].rtx, D.24283
	movq	-56(%rbp), %rdx	# output, tmp108
	movq	-48(%rbp), %rcx	# not_in_this, tmp109
	movq	%rcx, %rsi	# tmp109,
	movq	%rax, %rdi	# D.24283,
	call	record_excess_regs	#
	.loc 1 1225 0
	nop
.L220:
.LBE8:
	.loc 1 1212 0
	subl	$1, -20(%rbp)	#, i
.L219:
	.loc 1 1212 0 is_stmt 0 discriminator 1
	cmpl	$0, -20(%rbp)	#, i
	jns	.L225	#,
	jmp	.L212	#
.L228:
	.loc 1 1199 0 is_stmt 1
	nop
.L212:
	.loc 1 1228 0
	leave
	.cfi_def_cfa 7, 8
	ret
	.cfi_endproc
.LFE7:
	.size	record_excess_regs, .-record_excess_regs
	.globl	libcall_other_reg
	.type	libcall_other_reg, @function
libcall_other_reg:
.LFB8:
	.loc 1 1238 0
	.cfi_startproc
	pushq	%rbp	#
	.cfi_def_cfa_offset 16
	.cfi_offset 6, -16
	movq	%rsp, %rbp	#,
	.cfi_def_cfa_register 6
	subq	$48, %rsp	#,
	movq	%rdi, -40(%rbp)	# insn, insn
	movq	%rsi, -48(%rbp)	# equiv, equiv
	.loc 1 1239 0
	movq	-40(%rbp), %rax	# insn, tmp65
	movl	$0, %edx	#,
	movl	$6, %esi	#,
	movq	%rax, %rdi	# tmp65,
	call	find_reg_note	#
	movq	%rax, -8(%rbp)	# tmp66, note
	.loc 1 1240 0
	movq	-8(%rbp), %rax	# note, tmp67
	movq	8(%rax), %rax	# note_3->fld[0].rtx, tmp68
	movq	%rax, -16(%rbp)	# tmp68, p
	.loc 1 1241 0
	movq	$0, -24(%rbp)	#, output
	.loc 1 1246 0
	jmp	.L230	#
.L233:
	.loc 1 1248 0
	movq	-16(%rbp), %rax	# p, tmp69
	movzwl	(%rax), %eax	# p_1->code, D.24289
	cmpw	$32, %ax	#, D.24289
	je	.L231	#,
	.loc 1 1248 0 is_stmt 0 discriminator 1
	movq	-16(%rbp), %rax	# p, tmp70
	movzwl	(%rax), %eax	# p_1->code, D.24289
	cmpw	$33, %ax	#, D.24289
	je	.L231	#,
	.loc 1 1249 0 is_stmt 1
	movq	-16(%rbp), %rax	# p, tmp71
	movzwl	(%rax), %eax	# p_1->code, D.24289
	cmpw	$34, %ax	#, D.24289
	jne	.L232	#,
.L231:
	.loc 1 1250 0
	movq	-16(%rbp), %rax	# p, tmp72
	movq	32(%rax), %rax	# p_1->fld[3].rtx, D.24290
	leaq	-24(%rbp), %rdx	#, tmp73
	movq	-48(%rbp), %rcx	# equiv, tmp74
	movq	%rcx, %rsi	# tmp74,
	movq	%rax, %rdi	# D.24290,
	call	record_excess_regs	#
.L232:
	.loc 1 1251 0
	movq	-16(%rbp), %rax	# p, tmp75
	movq	24(%rax), %rax	# p_1->fld[2].rtx, tmp76
	movq	%rax, -16(%rbp)	# tmp76, p
.L230:
	.loc 1 1246 0 discriminator 1
	movq	-16(%rbp), %rax	# p, tmp77
	cmpq	-40(%rbp), %rax	# insn, tmp77
	jne	.L233	#,
	.loc 1 1254 0
	movq	-24(%rbp), %rax	# output, D.24291
	.loc 1 1255 0
	leave
	.cfi_def_cfa 7, 8
	ret
	.cfi_endproc
.LFE8:
	.size	libcall_other_reg, .-libcall_other_reg
	.type	reg_in_basic_block_p, @function
reg_in_basic_block_p:
.LFB9:
	.loc 1 1263 0
	.cfi_startproc
	pushq	%rbp	#
	.cfi_def_cfa_offset 16
	.cfi_offset 6, -16
	movq	%rsp, %rbp	#,
	.cfi_def_cfa_register 6
	movq	%rdi, -24(%rbp)	# insn, insn
	movq	%rsi, -32(%rbp)	# reg, reg
	.loc 1 1264 0
	movq	-32(%rbp), %rax	# reg, tmp76
	movl	8(%rax), %eax	# reg_3(D)->fld[0].rtuint, D.24293
	movl	%eax, -12(%rbp)	# D.24293, regno
	.loc 1 1267 0
	movq	reg_n_info(%rip), %rax	# reg_n_info, reg_n_info.151
	movl	-12(%rbp), %edx	# regno, tmp78
	movslq	%edx, %rdx	# tmp78, tmp77
	addq	$4, %rdx	#, tmp79
	movq	(%rax,%rdx,8), %rax	# reg_n_info.151_6->data.reg, D.24294
	movl	(%rax), %edx	# _7->first_uid, D.24292
	movq	-24(%rbp), %rax	# insn, tmp80
	movl	8(%rax), %eax	# insn_9(D)->fld[0].rtint, D.24292
	cmpl	%eax, %edx	# D.24292, D.24292
	je	.L236	#,
	.loc 1 1268 0
	movl	$0, %eax	#, D.24292
	jmp	.L237	#
.L236:
	.loc 1 1271 0
	movq	-24(%rbp), %rax	# insn, tmp81
	movq	%rax, -8(%rbp)	# tmp81, p
	jmp	.L238	#
.L248:
	.loc 1 1273 0
	movq	-8(%rbp), %rax	# p, tmp82
	movzwl	(%rax), %eax	# p_1->code, D.24295
	movzwl	%ax, %eax	# D.24295, D.24293
	subl	$32, %eax	#, tmp83
	cmpl	$5, %eax	#, tmp83
	ja	.L249	#,
	movl	%eax, %eax	# tmp83, tmp84
	movq	.L241(,%rax,8), %rax	#, tmp85
	jmp	*%rax	# tmp85
	.section	.rodata
	.align 8
	.align 4
.L241:
	.quad	.L240
	.quad	.L242
	.quad	.L240
	.quad	.L243
	.quad	.L243
	.quad	.L250
	.text
.L240:
	.loc 1 1281 0
	movq	reg_n_info(%rip), %rax	# reg_n_info, reg_n_info.152
	movl	-12(%rbp), %edx	# regno, tmp87
	movslq	%edx, %rdx	# tmp87, tmp86
	addq	$4, %rdx	#, tmp88
	movq	(%rax,%rdx,8), %rax	# reg_n_info.152_15->data.reg, D.24294
	movl	4(%rax), %edx	# _16->last_uid, D.24292
	movq	-8(%rbp), %rax	# p, tmp89
	movl	8(%rax), %eax	# p_1->fld[0].rtint, D.24292
	cmpl	%eax, %edx	# D.24292, D.24292
	jne	.L246	#,
	.loc 1 1282 0
	movl	$1, %eax	#, D.24292
	jmp	.L237	#
.L246:
	.loc 1 1283 0
	jmp	.L245	#
.L242:
	.loc 1 1287 0
	movq	reg_n_info(%rip), %rax	# reg_n_info, reg_n_info.153
	movl	-12(%rbp), %edx	# regno, tmp91
	movslq	%edx, %rdx	# tmp91, tmp90
	addq	$4, %rdx	#, tmp92
	movq	(%rax,%rdx,8), %rax	# reg_n_info.153_20->data.reg, D.24294
	movl	4(%rax), %edx	# _21->last_uid, D.24292
	movq	-8(%rbp), %rax	# p, tmp93
	movl	8(%rax), %eax	# p_1->fld[0].rtint, D.24292
	cmpl	%eax, %edx	# D.24292, D.24292
	jne	.L247	#,
	.loc 1 1288 0
	movl	$1, %eax	#, D.24292
	jmp	.L237	#
.L247:
	.loc 1 1290 0
	movl	$0, %eax	#, D.24292
	jmp	.L237	#
.L243:
	.loc 1 1295 0
	movl	$0, %eax	#, D.24292
	jmp	.L237	#
.L249:
	.loc 1 1298 0
	nop
	jmp	.L245	#
.L250:
	.loc 1 1276 0
	nop
.L245:
	.loc 1 1271 0
	movq	-8(%rbp), %rax	# p, tmp94
	movq	24(%rax), %rax	# p_1->fld[2].rtx, tmp95
	movq	%rax, -8(%rbp)	# tmp95, p
.L238:
	.loc 1 1271 0 is_stmt 0 discriminator 1
	cmpq	$0, -8(%rbp)	#, p
	jne	.L248	#,
	.loc 1 1307 0 is_stmt 1
	movl	$1, %eax	#, D.24292
.L237:
	.loc 1 1308 0
	popq	%rbp	#
	.cfi_def_cfa 7, 8
	ret
	.cfi_endproc
.LFE9:
	.size	reg_in_basic_block_p, .-reg_in_basic_block_p
	.type	libcall_benefit, @function
libcall_benefit:
.LFB10:
	.loc 1 1317 0
	.cfi_startproc
	pushq	%rbp	#
	.cfi_def_cfa_offset 16
	.cfi_offset 6, -16
	movq	%rsp, %rbp	#,
	.cfi_def_cfa_register 6
	subq	$32, %rsp	#,
	movq	%rdi, -24(%rbp)	# last, last
	.loc 1 1319 0
	movl	$0, -12(%rbp)	#, benefit
	.loc 1 1321 0
	movq	-24(%rbp), %rax	# last, tmp68
	movl	$0, %edx	#,
	movl	$6, %esi	#,
	movq	%rax, %rdi	# tmp68,
	call	find_reg_note	#
	movq	8(%rax), %rax	# _6->fld[0].rtx, tmp69
	movq	%rax, -8(%rbp)	# tmp69, insn
	jmp	.L252	#
.L255:
	.loc 1 1324 0
	movq	-8(%rbp), %rax	# insn, tmp70
	movzwl	(%rax), %eax	# insn_1->code, D.24297
	cmpw	$34, %ax	#, D.24297
	jne	.L253	#,
	.loc 1 1325 0
	addl	$10, -12(%rbp)	#, benefit
	jmp	.L254	#
.L253:
	.loc 1 1327 0
	movq	-8(%rbp), %rax	# insn, tmp71
	movzwl	(%rax), %eax	# insn_1->code, D.24297
	cmpw	$32, %ax	#, D.24297
	jne	.L254	#,
	.loc 1 1328 0
	movq	-8(%rbp), %rax	# insn, tmp72
	movq	32(%rax), %rax	# insn_1->fld[3].rtx, D.24296
	movzwl	(%rax), %eax	# _11->code, D.24297
	cmpw	$48, %ax	#, D.24297
	je	.L254	#,
	.loc 1 1329 0
	movq	-8(%rbp), %rax	# insn, tmp73
	movq	32(%rax), %rax	# insn_1->fld[3].rtx, D.24296
	movzwl	(%rax), %eax	# _13->code, D.24297
	cmpw	$49, %ax	#, D.24297
	je	.L254	#,
	.loc 1 1330 0
	addl	$1, -12(%rbp)	#, benefit
.L254:
	.loc 1 1322 0
	movq	-8(%rbp), %rax	# insn, tmp74
	movq	24(%rax), %rax	# insn_1->fld[2].rtx, tmp75
	movq	%rax, -8(%rbp)	# tmp75, insn
.L252:
	.loc 1 1321 0 discriminator 1
	movq	-8(%rbp), %rax	# insn, tmp76
	cmpq	-24(%rbp), %rax	# last, tmp76
	jne	.L255	#,
	.loc 1 1333 0
	movl	-12(%rbp), %eax	# benefit, D.24298
	.loc 1 1334 0
	leave
	.cfi_def_cfa 7, 8
	ret
	.cfi_endproc
.LFE10:
	.size	libcall_benefit, .-libcall_benefit
	.type	skip_consec_insns, @function
skip_consec_insns:
.LFB11:
	.loc 1 1342 0
	.cfi_startproc
	pushq	%rbp	#
	.cfi_def_cfa_offset 16
	.cfi_offset 6, -16
	movq	%rsp, %rbp	#,
	.cfi_def_cfa_register 6
	subq	$32, %rsp	#,
	movq	%rdi, -24(%rbp)	# insn, insn
	movl	%esi, -28(%rbp)	# count, count
	.loc 1 1343 0
	jmp	.L258	#
.L260:
.LBB9:
	.loc 1 1350 0
	movq	-24(%rbp), %rax	# insn, tmp63
	movzwl	(%rax), %eax	# insn_2->code, D.24299
	cmpw	$37, %ax	#, D.24299
	je	.L259	#,
	.loc 1 1351 0
	movq	-24(%rbp), %rax	# insn, tmp64
	movl	$0, %edx	#,
	movl	$7, %esi	#,
	movq	%rax, %rdi	# tmp64,
	call	find_reg_note	#
	movq	%rax, -8(%rbp)	# tmp65, temp
	cmpq	$0, -8(%rbp)	#, temp
	je	.L259	#,
	.loc 1 1352 0
	movq	-8(%rbp), %rax	# temp, tmp66
	movq	8(%rax), %rax	# temp_7->fld[0].rtx, tmp67
	movq	%rax, -24(%rbp)	# tmp67, insn
.L259:
	.loc 1 1355 0 discriminator 1
	movq	-24(%rbp), %rax	# insn, tmp68
	movq	24(%rax), %rax	# insn_1->fld[2].rtx, tmp69
	movq	%rax, -24(%rbp)	# tmp69, insn
	.loc 1 1356 0 discriminator 1
	movq	-24(%rbp), %rax	# insn, tmp70
	movzwl	(%rax), %eax	# insn_9->code, D.24299
	cmpw	$37, %ax	#, D.24299
	je	.L259	#,
.LBE9:
	.loc 1 1343 0
	subl	$1, -28(%rbp)	#, count
.L258:
	.loc 1 1343 0 is_stmt 0 discriminator 1
	cmpl	$0, -28(%rbp)	#, count
	jg	.L260	#,
	.loc 1 1359 0 is_stmt 1
	movq	-24(%rbp), %rax	# insn, D.24300
	.loc 1 1360 0
	leave
	.cfi_def_cfa 7, 8
	ret
	.cfi_endproc
.LFE11:
	.size	skip_consec_insns, .-skip_consec_insns
	.type	ignore_some_movables, @function
ignore_some_movables:
.LFB12:
	.loc 1 1370 0
	.cfi_startproc
	pushq	%rbp	#
	.cfi_def_cfa_offset 16
	.cfi_offset 6, -16
	movq	%rsp, %rbp	#,
	.cfi_def_cfa_register 6
	subq	$48, %rsp	#,
	movq	%rdi, -40(%rbp)	# movables, movables
	.loc 1 1373 0
	movq	-40(%rbp), %rax	# movables, tmp62
	movq	(%rax), %rax	# movables_4(D)->head, tmp63
	movq	%rax, -32(%rbp)	# tmp63, m
	jmp	.L263	#
.L270:
.LBB10:
	.loc 1 1376 0
	movq	-32(%rbp), %rax	# m, tmp64
	movq	(%rax), %rax	# m_1->insn, D.24301
	movl	$0, %edx	#,
	movl	$6, %esi	#,
	movq	%rax, %rdi	# D.24301,
	call	find_reg_note	#
	movq	%rax, -8(%rbp)	# tmp65, note
	.loc 1 1377 0
	cmpq	$0, -8(%rbp)	#, note
	je	.L264	#,
.LBB11:
	.loc 1 1386 0
	movq	-8(%rbp), %rax	# note, tmp66
	movq	8(%rax), %rax	# note_7->fld[0].rtx, tmp67
	movq	%rax, -16(%rbp)	# tmp67, insn
	jmp	.L265	#
.L269:
	.loc 1 1387 0
	movq	-40(%rbp), %rax	# movables, tmp68
	movq	(%rax), %rax	# movables_4(D)->head, tmp69
	movq	%rax, -24(%rbp)	# tmp69, m1
	jmp	.L266	#
.L268:
	.loc 1 1388 0
	movq	-24(%rbp), %rax	# m1, tmp70
	movq	(%rax), %rax	# m1_2->insn, D.24301
	cmpq	-16(%rbp), %rax	# insn, D.24301
	jne	.L267	#,
	.loc 1 1389 0
	movq	-24(%rbp), %rax	# m1, tmp71
	movzbl	44(%rax), %edx	# m1_2->done, tmp74
	orl	$8, %edx	#, tmp75
	movb	%dl, 44(%rax)	# tmp75, m1_2->done
.L267:
	.loc 1 1387 0
	movq	-24(%rbp), %rax	# m1, tmp76
	movq	72(%rax), %rax	# m1_2->next, tmp77
	movq	%rax, -24(%rbp)	# tmp77, m1
.L266:
	.loc 1 1387 0 is_stmt 0 discriminator 1
	movq	-24(%rbp), %rax	# m1, tmp78
	cmpq	-32(%rbp), %rax	# m, tmp78
	jne	.L268	#,
	.loc 1 1386 0 is_stmt 1
	movq	-16(%rbp), %rax	# insn, tmp79
	movq	24(%rax), %rax	# insn_3->fld[2].rtx, tmp80
	movq	%rax, -16(%rbp)	# tmp80, insn
.L265:
	.loc 1 1386 0 is_stmt 0 discriminator 1
	movq	-32(%rbp), %rax	# m, tmp81
	movq	(%rax), %rax	# m_1->insn, D.24301
	cmpq	-16(%rbp), %rax	# insn, D.24301
	jne	.L269	#,
.L264:
.LBE11:
.LBE10:
	.loc 1 1373 0 is_stmt 1
	movq	-32(%rbp), %rax	# m, tmp82
	movq	72(%rax), %rax	# m_1->next, tmp83
	movq	%rax, -32(%rbp)	# tmp83, m
.L263:
	.loc 1 1373 0 is_stmt 0 discriminator 1
	cmpq	$0, -32(%rbp)	#, m
	jne	.L270	#,
	.loc 1 1392 0 is_stmt 1
	leave
	.cfi_def_cfa 7, 8
	ret
	.cfi_endproc
.LFE12:
	.size	ignore_some_movables, .-ignore_some_movables
	.type	force_movables, @function
force_movables:
.LFB13:
	.loc 1 1402 0
	.cfi_startproc
	pushq	%rbp	#
	.cfi_def_cfa_offset 16
	.cfi_offset 6, -16
	movq	%rsp, %rbp	#,
	.cfi_def_cfa_register 6
	movq	%rdi, -40(%rbp)	# movables, movables
	.loc 1 1405 0
	movq	-40(%rbp), %rax	# movables, tmp86
	movq	(%rax), %rax	# movables_4(D)->head, tmp87
	movq	%rax, -8(%rbp)	# tmp87, m1
	jmp	.L272	#
.L279:
	.loc 1 1407 0
	movq	-8(%rbp), %rax	# m1, tmp88
	movzbl	44(%rax), %eax	# *m1_3, D.24302
	andl	$16, %eax	#, D.24302
	testb	%al, %al	# D.24302
	jne	.L273	#,
	.loc 1 1407 0 is_stmt 0 discriminator 1
	movq	-8(%rbp), %rax	# m1, tmp89
	movzbl	44(%rax), %eax	# *m1_3, D.24302
	andl	$8, %eax	#, D.24302
	testb	%al, %al	# D.24302
	jne	.L273	#,
.LBB12:
	.loc 1 1409 0 is_stmt 1
	movq	-8(%rbp), %rax	# m1, tmp90
	movl	36(%rax), %eax	# m1_3->regno, D.24303
	movl	%eax, -20(%rbp)	# D.24303, regno
	.loc 1 1410 0
	movq	-8(%rbp), %rax	# m1, tmp91
	movq	72(%rax), %rax	# m1_3->next, tmp92
	movq	%rax, -16(%rbp)	# tmp92, m
	jmp	.L274	#
.L277:
	.loc 1 1417 0
	movq	-16(%rbp), %rax	# m, tmp93
	movq	(%rax), %rax	# m_1->insn, D.24304
	movl	8(%rax), %edx	# _13->fld[0].rtint, D.24305
	movq	reg_n_info(%rip), %rax	# reg_n_info, reg_n_info.154
	movl	-20(%rbp), %ecx	# regno, tmp95
	movslq	%ecx, %rcx	# tmp95, tmp94
	addq	$4, %rcx	#, tmp96
	movq	(%rax,%rcx,8), %rax	# reg_n_info.154_15->data.reg, D.24306
	movl	4(%rax), %eax	# _16->last_uid, D.24305
	cmpl	%eax, %edx	# D.24305, D.24305
	jne	.L275	#,
	.loc 1 1418 0
	movq	-16(%rbp), %rax	# m, tmp97
	movzbl	44(%rax), %eax	# *m_1, D.24302
	andl	$8, %eax	#, D.24302
	testb	%al, %al	# D.24302
	jne	.L275	#,
	.loc 1 1419 0
	jmp	.L276	#
.L275:
	.loc 1 1410 0
	movq	-16(%rbp), %rax	# m, tmp98
	movq	72(%rax), %rax	# m_1->next, tmp99
	movq	%rax, -16(%rbp)	# tmp99, m
.L274:
	.loc 1 1410 0 is_stmt 0 discriminator 1
	cmpq	$0, -16(%rbp)	#, m
	jne	.L277	#,
.L276:
	.loc 1 1420 0 is_stmt 1
	cmpq	$0, -16(%rbp)	#, m
	je	.L278	#,
	.loc 1 1420 0 is_stmt 0 discriminator 1
	movq	-16(%rbp), %rax	# m, tmp100
	movq	8(%rax), %rdx	# m_1->set_src, D.24304
	movq	-8(%rbp), %rax	# m1, tmp101
	movq	16(%rax), %rax	# m1_3->set_dest, D.24304
	cmpq	%rax, %rdx	# D.24304, D.24304
	jne	.L278	#,
	.loc 1 1422 0 is_stmt 1
	movq	-16(%rbp), %rax	# m, tmp102
	movl	32(%rax), %eax	# m_1->consec, D.24305
	testl	%eax, %eax	# D.24305
	jne	.L278	#,
	.loc 1 1423 0
	movq	$0, -16(%rbp)	#, m
.L278:
	.loc 1 1427 0
	cmpq	$0, -16(%rbp)	#, m
	je	.L273	#,
	.loc 1 1429 0
	movq	-16(%rbp), %rax	# m, tmp103
	movq	-8(%rbp), %rdx	# m1, tmp104
	movq	%rdx, 64(%rax)	# tmp104, m_2->forces
	.loc 1 1430 0
	movq	-8(%rbp), %rax	# m1, tmp105
	movzwl	40(%rax), %eax	# m1_3->lifetime, D.24307
	movl	%eax, %edx	# D.24307, D.24308
	movq	-16(%rbp), %rax	# m, tmp106
	movzwl	40(%rax), %eax	# m_2->lifetime, D.24307
	addl	%edx, %eax	# D.24308, D.24308
	movl	%eax, %edx	# D.24308, D.24307
	movq	-8(%rbp), %rax	# m1, tmp107
	movw	%dx, 40(%rax)	# D.24307, m1_3->lifetime
	.loc 1 1431 0
	movq	-8(%rbp), %rax	# m1, tmp108
	movzwl	42(%rax), %eax	# m1_3->savings, D.24307
	movl	%eax, %edx	# D.24307, D.24308
	movq	-16(%rbp), %rax	# m, tmp109
	movzwl	42(%rax), %eax	# m_2->savings, D.24307
	addl	%edx, %eax	# D.24308, D.24308
	movl	%eax, %edx	# D.24308, D.24307
	movq	-8(%rbp), %rax	# m1, tmp110
	movw	%dx, 42(%rax)	# D.24307, m1_3->savings
.L273:
.LBE12:
	.loc 1 1405 0
	movq	-8(%rbp), %rax	# m1, tmp111
	movq	72(%rax), %rax	# m1_3->next, tmp112
	movq	%rax, -8(%rbp)	# tmp112, m1
.L272:
	.loc 1 1405 0 is_stmt 0 discriminator 1
	cmpq	$0, -8(%rbp)	#, m1
	jne	.L279	#,
	.loc 1 1434 0 is_stmt 1
	popq	%rbp	#
	.cfi_def_cfa 7, 8
	ret
	.cfi_endproc
.LFE13:
	.size	force_movables, .-force_movables
	.type	combine_movables, @function
combine_movables:
.LFB14:
	.loc 1 1443 0
	.cfi_startproc
	pushq	%rbp	#
	.cfi_def_cfa_offset 16
	.cfi_offset 6, -16
	movq	%rsp, %rbp	#,
	.cfi_def_cfa_register 6
	subq	$80, %rsp	#,
	movq	%rdi, -72(%rbp)	# movables, movables
	movq	%rsi, -80(%rbp)	# regs, regs
	.loc 1 1445 0
	movq	-80(%rbp), %rax	# regs, tmp140
	movl	(%rax), %eax	# regs_8(D)->num, D.24309
	cltq
	movq	%rax, %rdi	# D.24310,
	call	xmalloc	#
	movq	%rax, -8(%rbp)	# tmp141, matched_regs
	.loc 1 1452 0
	movq	-72(%rbp), %rax	# movables, tmp142
	movq	(%rax), %rax	# movables_12(D)->head, tmp143
	movq	%rax, -40(%rbp)	# tmp143, m
	jmp	.L281	#
.L285:
	.loc 1 1453 0
	movq	-40(%rbp), %rax	# m, tmp144
	movq	56(%rax), %rax	# m_1->match, D.24311
	testq	%rax, %rax	# D.24311
	jne	.L282	#,
	.loc 1 1453 0 is_stmt 0 discriminator 1
	movq	-80(%rbp), %rax	# regs, tmp145
	movq	8(%rax), %rcx	# regs_8(D)->array, D.24312
	movq	-40(%rbp), %rax	# m, tmp146
	movl	36(%rax), %eax	# m_1->regno, D.24313
	movl	%eax, %edx	# D.24313, D.24310
	movq	%rdx, %rax	# D.24310, tmp147
	addq	%rax, %rax	# tmp147
	addq	%rdx, %rax	# D.24310, tmp147
	salq	$3, %rax	#, tmp148
	addq	%rcx, %rax	# D.24312, D.24312
	movl	4(%rax), %eax	# _19->n_times_set, D.24309
	cmpl	$1, %eax	#, D.24309
	jne	.L282	#,
	.loc 1 1454 0 is_stmt 1
	movq	-40(%rbp), %rax	# m, tmp149
	movzbl	44(%rax), %eax	# *m_1, D.24314
	andl	$16, %eax	#, D.24314
	testb	%al, %al	# D.24314
	jne	.L282	#,
.LBB13:
	.loc 1 1457 0
	movq	-40(%rbp), %rax	# m, tmp150
	movl	36(%rax), %eax	# m_1->regno, D.24313
	movl	%eax, -52(%rbp)	# D.24313, regno
	.loc 1 1459 0
	movq	-80(%rbp), %rax	# regs, tmp151
	movl	(%rax), %eax	# regs_8(D)->num, D.24309
	movslq	%eax, %rdx	# D.24309, D.24310
	movq	-8(%rbp), %rax	# matched_regs, tmp152
	movl	$0, %esi	#,
	movq	%rax, %rdi	# tmp152,
	call	memset	#
	.loc 1 1460 0
	movl	-52(%rbp), %eax	# regno, tmp153
	movslq	%eax, %rdx	# tmp153, D.24315
	movq	-8(%rbp), %rax	# matched_regs, tmp154
	addq	%rdx, %rax	# D.24315, D.24316
	movb	$1, (%rax)	#, *_28
	.loc 1 1464 0
	movq	-40(%rbp), %rax	# m, tmp155
	movq	72(%rax), %rax	# m_1->next, tmp156
	movq	%rax, -32(%rbp)	# tmp156, m1
	jmp	.L283	#
.L284:
	movq	-32(%rbp), %rax	# m1, tmp157
	movq	72(%rax), %rax	# m1_4->next, tmp158
	movq	%rax, -32(%rbp)	# tmp158, m1
.L283:
	.loc 1 1464 0 is_stmt 0 discriminator 1
	cmpq	$0, -32(%rbp)	#, m1
	jne	.L284	#,
.L282:
.LBE13:
	.loc 1 1452 0 is_stmt 1
	movq	-40(%rbp), %rax	# m, tmp159
	movq	72(%rax), %rax	# m_1->next, tmp160
	movq	%rax, -40(%rbp)	# tmp160, m
.L281:
	.loc 1 1452 0 is_stmt 0 discriminator 1
	cmpq	$0, -40(%rbp)	#, m
	jne	.L285	#,
	.loc 1 1509 0 is_stmt 1
	movl	class_narrowest_mode+4(%rip), %eax	# class_narrowest_mode, tmp161
	movl	%eax, -56(%rbp)	# tmp161, mode
	jmp	.L286	#
.L296:
.LBB14:
	.loc 1 1512 0
	movq	$0, -24(%rbp)	#, m0
	.loc 1 1516 0
	movq	-72(%rbp), %rax	# movables, tmp162
	movq	(%rax), %rax	# movables_12(D)->head, tmp163
	movq	%rax, -40(%rbp)	# tmp163, m
	jmp	.L287	#
.L295:
	.loc 1 1517 0
	movq	-40(%rbp), %rax	# m, tmp164
	movzbl	44(%rax), %eax	# *m_2, D.24314
	andl	$16, %eax	#, D.24314
	testb	%al, %al	# D.24314
	je	.L288	#,
	.loc 1 1517 0 is_stmt 0 discriminator 1
	movq	-40(%rbp), %rax	# m, tmp165
	movzbl	44(%rax), %eax	# *m_2, D.24314
	andl	$4, %eax	#, D.24314
	testb	%al, %al	# D.24314
	jne	.L288	#,
	.loc 1 1518 0 is_stmt 1
	movq	-40(%rbp), %rax	# m, tmp166
	movq	(%rax), %rax	# m_2->insn, D.24317
	movq	24(%rax), %rax	# _39->fld[2].rtx, D.24317
	movq	32(%rax), %rax	# _40->fld[3].rtx, D.24317
	movq	16(%rax), %rax	# _41->fld[1].rtx, D.24317
	movzbl	2(%rax), %eax	# _42->mode, D.24314
	movzbl	%al, %eax	# D.24314, D.24313
	cmpl	-56(%rbp), %eax	# mode, D.24313
	jne	.L288	#,
.LBB15:
	.loc 1 1522 0
	movq	uid_luid(%rip), %rcx	# uid_luid, uid_luid.155
	movq	reg_n_info(%rip), %rax	# reg_n_info, reg_n_info.156
	movq	-40(%rbp), %rdx	# m, tmp167
	movl	36(%rdx), %edx	# m_2->regno, D.24313
	movl	%edx, %edx	# D.24313, tmp168
	addq	$4, %rdx	#, tmp169
	movq	(%rax,%rdx,8), %rax	# reg_n_info.156_46->data.reg, D.24318
	movl	(%rax), %eax	# _48->first_uid, D.24309
	cltq
	salq	$2, %rax	#, D.24310
	addq	%rcx, %rax	# uid_luid.155, D.24319
	movl	(%rax), %eax	# *_52, tmp170
	movl	%eax, -48(%rbp)	# tmp170, first
	.loc 1 1523 0
	movq	uid_luid(%rip), %rcx	# uid_luid, uid_luid.157
	movq	reg_n_info(%rip), %rax	# reg_n_info, reg_n_info.158
	movq	-40(%rbp), %rdx	# m, tmp171
	movl	36(%rdx), %edx	# m_2->regno, D.24313
	movl	%edx, %edx	# D.24313, tmp172
	addq	$4, %rdx	#, tmp173
	movq	(%rax,%rdx,8), %rax	# reg_n_info.158_55->data.reg, D.24318
	movl	4(%rax), %eax	# _57->last_uid, D.24309
	cltq
	salq	$2, %rax	#, D.24310
	addq	%rcx, %rax	# uid_luid.157, D.24319
	movl	(%rax), %eax	# *_61, tmp174
	movl	%eax, -44(%rbp)	# tmp174, last
	.loc 1 1525 0
	cmpq	$0, -24(%rbp)	#, m0
	jne	.L289	#,
	.loc 1 1528 0
	movq	-40(%rbp), %rax	# m, tmp175
	movq	%rax, -24(%rbp)	# tmp175, m0
	.loc 1 1529 0
	jmp	.L288	#
.L289:
	.loc 1 1534 0
	movq	-40(%rbp), %rax	# m, tmp176
	movq	16(%rax), %rax	# m_2->set_dest, D.24317
	movzbl	2(%rax), %edx	# _64->mode, D.24314
	movq	-24(%rbp), %rax	# m0, tmp177
	movq	16(%rax), %rax	# m0_6->set_dest, D.24317
	movzbl	2(%rax), %eax	# _66->mode, D.24314
	cmpb	%al, %dl	# D.24314, D.24314
	je	.L290	#,
	.loc 1 1535 0
	jmp	.L288	#
.L290:
	.loc 1 1539 0
	movq	-72(%rbp), %rax	# movables, tmp178
	movq	(%rax), %rax	# movables_12(D)->head, tmp179
	movq	%rax, -16(%rbp)	# tmp179, m1
	jmp	.L291	#
.L294:
	.loc 1 1540 0
	movq	-16(%rbp), %rax	# m1, tmp180
	cmpq	-24(%rbp), %rax	# m0, tmp180
	je	.L292	#,
	.loc 1 1540 0 is_stmt 0 discriminator 1
	movq	-16(%rbp), %rax	# m1, tmp181
	movzbl	44(%rax), %eax	# *m1_7, D.24314
	andl	$16, %eax	#, D.24314
	testb	%al, %al	# D.24314
	je	.L293	#,
	movq	-16(%rbp), %rax	# m1, tmp182
	movq	56(%rax), %rax	# m1_7->match, D.24311
	cmpq	-24(%rbp), %rax	# m0, D.24311
	jne	.L293	#,
.L292:
	.loc 1 1541 0 is_stmt 1
	movq	uid_luid(%rip), %rcx	# uid_luid, uid_luid.159
	movq	reg_n_info(%rip), %rax	# reg_n_info, reg_n_info.160
	movq	-16(%rbp), %rdx	# m1, tmp183
	movl	36(%rdx), %edx	# m1_7->regno, D.24313
	movl	%edx, %edx	# D.24313, tmp184
	addq	$4, %rdx	#, tmp185
	movq	(%rax,%rdx,8), %rax	# reg_n_info.160_73->data.reg, D.24318
	movl	(%rax), %eax	# _75->first_uid, D.24309
	cltq
	salq	$2, %rax	#, D.24310
	addq	%rcx, %rax	# uid_luid.159, D.24319
	movl	(%rax), %eax	# *_79, D.24309
	cmpl	-44(%rbp), %eax	# last, D.24309
	jg	.L293	#,
	.loc 1 1542 0 discriminator 1
	movq	uid_luid(%rip), %rcx	# uid_luid, uid_luid.161
	movq	reg_n_info(%rip), %rax	# reg_n_info, reg_n_info.162
	movq	-16(%rbp), %rdx	# m1, tmp186
	movl	36(%rdx), %edx	# m1_7->regno, D.24313
	movl	%edx, %edx	# D.24313, tmp187
	addq	$4, %rdx	#, tmp188
	movq	(%rax,%rdx,8), %rax	# reg_n_info.162_82->data.reg, D.24318
	movl	4(%rax), %eax	# _84->last_uid, D.24309
	cltq
	salq	$2, %rax	#, D.24310
	addq	%rcx, %rax	# uid_luid.161, D.24319
	movl	(%rax), %eax	# *_88, D.24309
	.loc 1 1541 0 discriminator 1
	cmpl	-48(%rbp), %eax	# first, D.24309
	jl	.L293	#,
	.loc 1 1543 0
	jmp	.L288	#
.L293:
	.loc 1 1539 0
	movq	-16(%rbp), %rax	# m1, tmp189
	movq	72(%rax), %rax	# m1_7->next, tmp190
	movq	%rax, -16(%rbp)	# tmp190, m1
.L291:
	.loc 1 1539 0 is_stmt 0 discriminator 1
	movq	-16(%rbp), %rax	# m1, tmp191
	cmpq	-40(%rbp), %rax	# m, tmp191
	jne	.L294	#,
	.loc 1 1546 0 is_stmt 1
	movq	-24(%rbp), %rax	# m0, tmp192
	movzwl	40(%rax), %eax	# m0_6->lifetime, D.24320
	movl	%eax, %edx	# D.24320, D.24321
	movq	-40(%rbp), %rax	# m, tmp193
	movzwl	40(%rax), %eax	# m_2->lifetime, D.24320
	addl	%edx, %eax	# D.24321, D.24321
	movl	%eax, %edx	# D.24321, D.24320
	movq	-24(%rbp), %rax	# m0, tmp194
	movw	%dx, 40(%rax)	# D.24320, m0_6->lifetime
	.loc 1 1547 0
	movq	-24(%rbp), %rax	# m0, tmp195
	movzwl	42(%rax), %eax	# m0_6->savings, D.24320
	movl	%eax, %edx	# D.24320, D.24321
	movq	-40(%rbp), %rax	# m, tmp196
	movzwl	42(%rax), %eax	# m_2->savings, D.24320
	addl	%edx, %eax	# D.24321, D.24321
	movl	%eax, %edx	# D.24321, D.24320
	movq	-24(%rbp), %rax	# m0, tmp197
	movw	%dx, 42(%rax)	# D.24320, m0_6->savings
	.loc 1 1548 0
	movq	-40(%rbp), %rax	# m, tmp198
	movzbl	44(%rax), %edx	# m_2->done, tmp201
	orl	$8, %edx	#, tmp202
	movb	%dl, 44(%rax)	# tmp202, m_2->done
	.loc 1 1549 0
	movq	-40(%rbp), %rax	# m, tmp203
	movq	-24(%rbp), %rdx	# m0, tmp204
	movq	%rdx, 56(%rax)	# tmp204, m_2->match
.L288:
.LBE15:
	.loc 1 1516 0
	movq	-40(%rbp), %rax	# m, tmp205
	movq	72(%rax), %rax	# m_2->next, tmp206
	movq	%rax, -40(%rbp)	# tmp206, m
.L287:
	.loc 1 1516 0 is_stmt 0 discriminator 1
	cmpq	$0, -40(%rbp)	#, m
	jne	.L295	#,
.LBE14:
	.loc 1 1510 0 is_stmt 1
	movl	-56(%rbp), %eax	# mode, mode.163
	cltq
	movzbl	mode_wider_mode(%rax), %eax	# mode_wider_mode, D.24314
	movzbl	%al, %eax	# D.24314, tmp208
	movl	%eax, -56(%rbp)	# tmp208, mode
.L286:
	.loc 1 1509 0 discriminator 1
	cmpl	$0, -56(%rbp)	#, mode
	jne	.L296	#,
	.loc 1 1557 0
	movq	-8(%rbp), %rax	# matched_regs, tmp209
	movq	%rax, %rdi	# tmp209,
	call	free	#
	.loc 1 1558 0
	leave
	.cfi_def_cfa 7, 8
	ret
	.cfi_endproc
.LFE14:
	.size	combine_movables, .-combine_movables
	.type	num_unmoved_movables, @function
num_unmoved_movables:
.LFB15:
	.loc 1 1566 0
	.cfi_startproc
	pushq	%rbp	#
	.cfi_def_cfa_offset 16
	.cfi_offset 6, -16
	movq	%rsp, %rbp	#,
	.cfi_def_cfa_register 6
	movq	%rdi, -24(%rbp)	# loop, loop
	.loc 1 1567 0
	movl	$0, -12(%rbp)	#, num
	.loc 1 1570 0
	movq	-24(%rbp), %rax	# loop, tmp64
	movq	160(%rax), %rax	# loop_5(D)->aux, D.24322
	movq	168(%rax), %rax	# MEM[(struct loop_info *)_6].movables.head, tmp65
	movq	%rax, -8(%rbp)	# tmp65, m
	jmp	.L298	#
.L300:
	.loc 1 1571 0
	movq	-8(%rbp), %rax	# m, tmp66
	movzbl	44(%rax), %eax	# *m_3, D.24323
	andl	$8, %eax	#, D.24323
	testb	%al, %al	# D.24323
	jne	.L299	#,
	.loc 1 1572 0
	addl	$1, -12(%rbp)	#, num
.L299:
	.loc 1 1570 0
	movq	-8(%rbp), %rax	# m, tmp67
	movq	72(%rax), %rax	# m_3->next, tmp68
	movq	%rax, -8(%rbp)	# tmp68, m
.L298:
	.loc 1 1570 0 is_stmt 0 discriminator 1
	cmpq	$0, -8(%rbp)	#, m
	jne	.L300	#,
	.loc 1 1574 0 is_stmt 1
	movl	-12(%rbp), %eax	# num, D.24324
	.loc 1 1575 0
	popq	%rbp	#
	.cfi_def_cfa 7, 8
	ret
	.cfi_endproc
.LFE15:
	.size	num_unmoved_movables, .-num_unmoved_movables
	.type	regs_match_p, @function
regs_match_p:
.LFB16:
	.loc 1 1584 0
	.cfi_startproc
	pushq	%rbp	#
	.cfi_def_cfa_offset 16
	.cfi_offset 6, -16
	movq	%rsp, %rbp	#,
	.cfi_def_cfa_register 6
	movq	%rdi, -40(%rbp)	# x, x
	movq	%rsi, -48(%rbp)	# y, y
	movq	%rdx, -56(%rbp)	# movables, movables
	.loc 1 1585 0
	movq	-40(%rbp), %rax	# x, tmp69
	movl	8(%rax), %eax	# x_4(D)->fld[0].rtuint, tmp70
	movl	%eax, -24(%rbp)	# tmp70, xn
	.loc 1 1586 0
	movq	-48(%rbp), %rax	# y, tmp71
	movl	8(%rax), %eax	# y_6(D)->fld[0].rtuint, tmp72
	movl	%eax, -20(%rbp)	# tmp72, yn
	.loc 1 1589 0
	movq	-56(%rbp), %rax	# movables, tmp73
	movq	(%rax), %rax	# movables_8(D)->head, tmp74
	movq	%rax, -16(%rbp)	# tmp74, mx
	jmp	.L303	#
.L306:
	.loc 1 1590 0
	movq	-16(%rbp), %rax	# mx, tmp75
	movl	36(%rax), %eax	# mx_1->regno, D.24325
	cmpl	-24(%rbp), %eax	# xn, D.24325
	jne	.L304	#,
	.loc 1 1591 0
	jmp	.L305	#
.L304:
	.loc 1 1589 0
	movq	-16(%rbp), %rax	# mx, tmp76
	movq	72(%rax), %rax	# mx_1->next, tmp77
	movq	%rax, -16(%rbp)	# tmp77, mx
.L303:
	.loc 1 1589 0 is_stmt 0 discriminator 1
	cmpq	$0, -16(%rbp)	#, mx
	jne	.L306	#,
.L305:
	.loc 1 1593 0 is_stmt 1
	movq	-56(%rbp), %rax	# movables, tmp78
	movq	(%rax), %rax	# movables_8(D)->head, tmp79
	movq	%rax, -8(%rbp)	# tmp79, my
	jmp	.L307	#
.L310:
	.loc 1 1594 0
	movq	-8(%rbp), %rax	# my, tmp80
	movl	36(%rax), %eax	# my_2->regno, D.24325
	cmpl	-20(%rbp), %eax	# yn, D.24325
	jne	.L308	#,
	.loc 1 1595 0
	jmp	.L309	#
.L308:
	.loc 1 1593 0
	movq	-8(%rbp), %rax	# my, tmp81
	movq	72(%rax), %rax	# my_2->next, tmp82
	movq	%rax, -8(%rbp)	# tmp82, my
.L307:
	.loc 1 1593 0 is_stmt 0 discriminator 1
	cmpq	$0, -8(%rbp)	#, my
	jne	.L310	#,
.L309:
	.loc 1 1598 0 is_stmt 1
	cmpq	$0, -16(%rbp)	#, mx
	je	.L311	#,
	.loc 1 1597 0
	cmpq	$0, -8(%rbp)	#, my
	je	.L311	#,
	.loc 1 1598 0
	movq	-16(%rbp), %rax	# mx, tmp83
	movq	56(%rax), %rdx	# mx_1->match, D.24326
	movq	-8(%rbp), %rax	# my, tmp84
	movq	56(%rax), %rax	# my_2->match, D.24326
	cmpq	%rax, %rdx	# D.24326, D.24326
	jne	.L312	#,
	.loc 1 1598 0 is_stmt 0 discriminator 2
	movq	-16(%rbp), %rax	# mx, tmp85
	movq	56(%rax), %rax	# mx_1->match, D.24326
	testq	%rax, %rax	# D.24326
	jne	.L313	#,
.L312:
	.loc 1 1599 0 is_stmt 1
	movq	-16(%rbp), %rax	# mx, tmp86
	movq	56(%rax), %rax	# mx_1->match, D.24326
	cmpq	-8(%rbp), %rax	# my, D.24326
	je	.L313	#,
	.loc 1 1600 0
	movq	-8(%rbp), %rax	# my, tmp87
	movq	56(%rax), %rax	# my_2->match, D.24326
	cmpq	-16(%rbp), %rax	# mx, D.24326
	jne	.L311	#,
.L313:
	.loc 1 1598 0 discriminator 1
	movl	$1, %eax	#, iftmp.164
	jmp	.L314	#
.L311:
	movl	$0, %eax	#, iftmp.164
.L314:
	.loc 1 1601 0
	popq	%rbp	#
	.cfi_def_cfa 7, 8
	ret
	.cfi_endproc
.LFE16:
	.size	regs_match_p, .-regs_match_p
	.type	rtx_equal_for_loop_p, @function
rtx_equal_for_loop_p:
.LFB17:
	.loc 1 1614 0
	.cfi_startproc
	pushq	%rbp	#
	.cfi_def_cfa_offset 16
	.cfi_offset 6, -16
	movq	%rsp, %rbp	#,
	.cfi_def_cfa_register 6
	subq	$64, %rsp	#,
	movq	%rdi, -40(%rbp)	# x, x
	movq	%rsi, -48(%rbp)	# y, y
	movq	%rdx, -56(%rbp)	# movables, movables
	movq	%rcx, -64(%rbp)	# regs, regs
	.loc 1 1621 0
	movq	-40(%rbp), %rax	# x, tmp147
	cmpq	-48(%rbp), %rax	# y, tmp147
	jne	.L317	#,
	.loc 1 1622 0
	movl	$1, %eax	#, D.24328
	jmp	.L318	#
.L317:
	.loc 1 1623 0
	cmpq	$0, -40(%rbp)	#, x
	je	.L319	#,
	.loc 1 1623 0 is_stmt 0 discriminator 1
	cmpq	$0, -48(%rbp)	#, y
	jne	.L320	#,
.L319:
	.loc 1 1624 0 is_stmt 1
	movl	$0, %eax	#, D.24328
	jmp	.L318	#
.L320:
	.loc 1 1626 0
	movq	-40(%rbp), %rax	# x, tmp148
	movzwl	(%rax), %eax	# x_7(D)->code, D.24329
	movzwl	%ax, %eax	# D.24329, tmp149
	movl	%eax, -20(%rbp)	# tmp149, code
	.loc 1 1630 0
	movq	-40(%rbp), %rax	# x, tmp150
	movzwl	(%rax), %eax	# x_7(D)->code, D.24329
	cmpw	$61, %ax	#, D.24329
	jne	.L321	#,
	.loc 1 1630 0 is_stmt 0 discriminator 1
	movq	-64(%rbp), %rax	# regs, tmp151
	movq	8(%rax), %rcx	# regs_13(D)->array, D.24330
	movq	-40(%rbp), %rax	# x, tmp152
	movl	8(%rax), %eax	# x_7(D)->fld[0].rtuint, D.24331
	movl	%eax, %edx	# D.24331, D.24332
	movq	%rdx, %rax	# D.24332, tmp153
	addq	%rax, %rax	# tmp153
	addq	%rdx, %rax	# D.24332, tmp153
	salq	$3, %rax	#, tmp154
	addq	%rcx, %rax	# D.24330, D.24330
	movl	(%rax), %eax	# _18->set_in_loop, D.24328
	cmpl	$-2, %eax	#, D.24328
	jne	.L321	#,
	.loc 1 1631 0 is_stmt 1
	movq	-48(%rbp), %rax	# y, tmp155
	movzwl	(%rax), %eax	# y_8(D)->code, D.24329
	cmpw	$67, %ax	#, D.24329
	je	.L322	#,
	.loc 1 1631 0 is_stmt 0 discriminator 1
	movq	-48(%rbp), %rax	# y, tmp156
	movzwl	(%rax), %eax	# y_8(D)->code, D.24329
	cmpw	$68, %ax	#, D.24329
	je	.L322	#,
	movq	-48(%rbp), %rax	# y, tmp157
	movzwl	(%rax), %eax	# y_8(D)->code, D.24329
	cmpw	$54, %ax	#, D.24329
	je	.L322	#,
	movq	-48(%rbp), %rax	# y, tmp158
	movzwl	(%rax), %eax	# y_8(D)->code, D.24329
	cmpw	$55, %ax	#, D.24329
	je	.L322	#,
	movq	-48(%rbp), %rax	# y, tmp159
	movzwl	(%rax), %eax	# y_8(D)->code, D.24329
	cmpw	$58, %ax	#, D.24329
	je	.L322	#,
	movq	-48(%rbp), %rax	# y, tmp160
	movzwl	(%rax), %eax	# y_8(D)->code, D.24329
	cmpw	$134, %ax	#, D.24329
	je	.L322	#,
	movq	-48(%rbp), %rax	# y, tmp161
	movzwl	(%rax), %eax	# y_8(D)->code, D.24329
	cmpw	$56, %ax	#, D.24329
	je	.L322	#,
	movq	-48(%rbp), %rax	# y, tmp162
	movzwl	(%rax), %eax	# y_8(D)->code, D.24329
	cmpw	$140, %ax	#, D.24329
	jne	.L321	#,
.L322:
	.loc 1 1633 0 is_stmt 1
	movq	-56(%rbp), %rax	# movables, tmp163
	movq	(%rax), %rax	# movables_28(D)->head, tmp164
	movq	%rax, -16(%rbp)	# tmp164, m
	jmp	.L323	#
.L325:
	.loc 1 1634 0
	movq	-16(%rbp), %rax	# m, tmp165
	movzbl	44(%rax), %eax	# *m_3, D.24333
	andl	$32, %eax	#, D.24333
	testb	%al, %al	# D.24333
	je	.L324	#,
	.loc 1 1634 0 is_stmt 0 discriminator 1
	movq	-16(%rbp), %rax	# m, tmp166
	movl	36(%rax), %edx	# m_3->regno, D.24331
	movq	-40(%rbp), %rax	# x, tmp167
	movl	8(%rax), %eax	# x_7(D)->fld[0].rtuint, D.24331
	cmpl	%eax, %edx	# D.24331, D.24331
	jne	.L324	#,
	.loc 1 1635 0 is_stmt 1
	movq	-16(%rbp), %rax	# m, tmp168
	movq	8(%rax), %rax	# m_3->set_src, D.24334
	movq	-48(%rbp), %rdx	# y, tmp169
	movq	%rdx, %rsi	# tmp169,
	movq	%rax, %rdi	# D.24334,
	call	rtx_equal_p	#
	testl	%eax, %eax	# D.24328
	je	.L324	#,
	.loc 1 1636 0
	movl	$1, %eax	#, D.24328
	jmp	.L318	#
.L324:
	.loc 1 1633 0
	movq	-16(%rbp), %rax	# m, tmp170
	movq	72(%rax), %rax	# m_3->next, tmp171
	movq	%rax, -16(%rbp)	# tmp171, m
.L323:
	.loc 1 1633 0 is_stmt 0 discriminator 1
	cmpq	$0, -16(%rbp)	#, m
	jne	.L325	#,
	.loc 1 1630 0 is_stmt 1
	jmp	.L326	#
.L321:
	.loc 1 1638 0
	movq	-48(%rbp), %rax	# y, tmp172
	movzwl	(%rax), %eax	# y_8(D)->code, D.24329
	cmpw	$61, %ax	#, D.24329
	jne	.L326	#,
	.loc 1 1638 0 is_stmt 0 discriminator 1
	movq	-64(%rbp), %rax	# regs, tmp173
	movq	8(%rax), %rcx	# regs_13(D)->array, D.24330
	movq	-48(%rbp), %rax	# y, tmp174
	movl	8(%rax), %eax	# y_8(D)->fld[0].rtuint, D.24331
	movl	%eax, %edx	# D.24331, D.24332
	movq	%rdx, %rax	# D.24332, tmp175
	addq	%rax, %rax	# tmp175
	addq	%rdx, %rax	# D.24332, tmp175
	salq	$3, %rax	#, tmp176
	addq	%rcx, %rax	# D.24330, D.24330
	movl	(%rax), %eax	# _43->set_in_loop, D.24328
	cmpl	$-2, %eax	#, D.24328
	jne	.L326	#,
	.loc 1 1639 0 is_stmt 1
	movq	-40(%rbp), %rax	# x, tmp177
	movzwl	(%rax), %eax	# x_7(D)->code, D.24329
	cmpw	$67, %ax	#, D.24329
	je	.L327	#,
	.loc 1 1639 0 is_stmt 0 discriminator 1
	movq	-40(%rbp), %rax	# x, tmp178
	movzwl	(%rax), %eax	# x_7(D)->code, D.24329
	cmpw	$68, %ax	#, D.24329
	je	.L327	#,
	movq	-40(%rbp), %rax	# x, tmp179
	movzwl	(%rax), %eax	# x_7(D)->code, D.24329
	cmpw	$54, %ax	#, D.24329
	je	.L327	#,
	movq	-40(%rbp), %rax	# x, tmp180
	movzwl	(%rax), %eax	# x_7(D)->code, D.24329
	cmpw	$55, %ax	#, D.24329
	je	.L327	#,
	movq	-40(%rbp), %rax	# x, tmp181
	movzwl	(%rax), %eax	# x_7(D)->code, D.24329
	cmpw	$58, %ax	#, D.24329
	je	.L327	#,
	movq	-40(%rbp), %rax	# x, tmp182
	movzwl	(%rax), %eax	# x_7(D)->code, D.24329
	cmpw	$134, %ax	#, D.24329
	je	.L327	#,
	movq	-40(%rbp), %rax	# x, tmp183
	movzwl	(%rax), %eax	# x_7(D)->code, D.24329
	cmpw	$56, %ax	#, D.24329
	je	.L327	#,
	movq	-40(%rbp), %rax	# x, tmp184
	movzwl	(%rax), %eax	# x_7(D)->code, D.24329
	cmpw	$140, %ax	#, D.24329
	jne	.L326	#,
.L327:
	.loc 1 1641 0 is_stmt 1
	movq	-56(%rbp), %rax	# movables, tmp185
	movq	(%rax), %rax	# movables_28(D)->head, tmp186
	movq	%rax, -16(%rbp)	# tmp186, m
	jmp	.L328	#
.L330:
	.loc 1 1642 0
	movq	-16(%rbp), %rax	# m, tmp187
	movzbl	44(%rax), %eax	# *m_4, D.24333
	andl	$32, %eax	#, D.24333
	testb	%al, %al	# D.24333
	je	.L329	#,
	.loc 1 1642 0 is_stmt 0 discriminator 1
	movq	-16(%rbp), %rax	# m, tmp188
	movl	36(%rax), %edx	# m_4->regno, D.24331
	movq	-48(%rbp), %rax	# y, tmp189
	movl	8(%rax), %eax	# y_8(D)->fld[0].rtuint, D.24331
	cmpl	%eax, %edx	# D.24331, D.24331
	jne	.L329	#,
	.loc 1 1643 0 is_stmt 1
	movq	-16(%rbp), %rax	# m, tmp190
	movq	8(%rax), %rax	# m_4->set_src, D.24334
	movq	-40(%rbp), %rdx	# x, tmp191
	movq	%rdx, %rsi	# tmp191,
	movq	%rax, %rdi	# D.24334,
	call	rtx_equal_p	#
	testl	%eax, %eax	# D.24328
	je	.L329	#,
	.loc 1 1644 0
	movl	$1, %eax	#, D.24328
	jmp	.L318	#
.L329:
	.loc 1 1641 0
	movq	-16(%rbp), %rax	# m, tmp192
	movq	72(%rax), %rax	# m_4->next, tmp193
	movq	%rax, -16(%rbp)	# tmp193, m
.L328:
	.loc 1 1641 0 is_stmt 0 discriminator 1
	cmpq	$0, -16(%rbp)	#, m
	jne	.L330	#,
.L326:
	.loc 1 1648 0 is_stmt 1
	movq	-48(%rbp), %rax	# y, tmp194
	movzwl	(%rax), %eax	# y_8(D)->code, D.24329
	movzwl	%ax, %eax	# D.24329, D.24331
	cmpl	-20(%rbp), %eax	# code, D.24331
	je	.L331	#,
	.loc 1 1649 0
	movl	$0, %eax	#, D.24328
	jmp	.L318	#
.L331:
	.loc 1 1654 0
	movq	-40(%rbp), %rax	# x, tmp195
	movzbl	2(%rax), %edx	# x_7(D)->mode, D.24333
	movq	-48(%rbp), %rax	# y, tmp196
	movzbl	2(%rax), %eax	# y_8(D)->mode, D.24333
	cmpb	%al, %dl	# D.24333, D.24333
	je	.L332	#,
	.loc 1 1655 0
	movl	$0, %eax	#, D.24328
	jmp	.L318	#
.L332:
	.loc 1 1658 0
	cmpl	$61, -20(%rbp)	#, code
	jne	.L333	#,
	.loc 1 1659 0
	movq	-40(%rbp), %rax	# x, tmp197
	movl	8(%rax), %edx	# x_7(D)->fld[0].rtuint, D.24331
	movq	-48(%rbp), %rax	# y, tmp198
	movl	8(%rax), %eax	# y_8(D)->fld[0].rtuint, D.24331
	cmpl	%eax, %edx	# D.24331, D.24331
	je	.L334	#,
	.loc 1 1659 0 is_stmt 0 discriminator 2
	movq	-56(%rbp), %rdx	# movables, tmp199
	movq	-48(%rbp), %rcx	# y, tmp200
	movq	-40(%rbp), %rax	# x, tmp201
	movq	%rcx, %rsi	# tmp200,
	movq	%rax, %rdi	# tmp201,
	call	regs_match_p	#
	testl	%eax, %eax	# D.24328
	je	.L335	#,
.L334:
	.loc 1 1659 0 discriminator 1
	movl	$1, %eax	#, iftmp.165
	jmp	.L336	#
.L335:
	.loc 1 1659 0 discriminator 3
	movl	$0, %eax	#, iftmp.165
.L336:
	.loc 1 1659 0 discriminator 4
	jmp	.L318	#
.L333:
	.loc 1 1661 0 is_stmt 1
	cmpl	$67, -20(%rbp)	#, code
	jne	.L337	#,
	.loc 1 1662 0
	movq	-40(%rbp), %rax	# x, tmp202
	movq	8(%rax), %rdx	# x_7(D)->fld[0].rtx, D.24334
	movq	-48(%rbp), %rax	# y, tmp203
	movq	8(%rax), %rax	# y_8(D)->fld[0].rtx, D.24334
	cmpq	%rax, %rdx	# D.24334, D.24334
	sete	%al	#, D.24335
	movzbl	%al, %eax	# D.24335, D.24328
	jmp	.L318	#
.L337:
	.loc 1 1663 0
	cmpl	$68, -20(%rbp)	#, code
	jne	.L338	#,
	.loc 1 1664 0
	movq	-40(%rbp), %rax	# x, tmp204
	movq	8(%rax), %rdx	# x_7(D)->fld[0].rtstr, D.24336
	movq	-48(%rbp), %rax	# y, tmp205
	movq	8(%rax), %rax	# y_8(D)->fld[0].rtstr, D.24336
	cmpq	%rax, %rdx	# D.24336, D.24336
	sete	%al	#, D.24335
	movzbl	%al, %eax	# D.24335, D.24328
	jmp	.L318	#
.L338:
	.loc 1 1669 0
	movl	-20(%rbp), %eax	# code, code.166
	cltq
	movq	rtx_format(,%rax,8), %rax	# rtx_format, tmp207
	movq	%rax, -8(%rbp)	# tmp207, fmt
	.loc 1 1670 0
	movl	-20(%rbp), %eax	# code, code.167
	cltq
	movzbl	rtx_length(%rax), %eax	# rtx_length, D.24333
	movzbl	%al, %eax	# D.24333, D.24328
	subl	$1, %eax	#, tmp209
	movl	%eax, -28(%rbp)	# tmp209, i
	jmp	.L339	#
.L358:
	.loc 1 1672 0
	movl	-28(%rbp), %eax	# i, tmp210
	movslq	%eax, %rdx	# tmp210, D.24337
	movq	-8(%rbp), %rax	# fmt, tmp211
	addq	%rdx, %rax	# D.24337, D.24336
	movzbl	(%rax), %eax	# *_89, D.24338
	movsbl	%al, %eax	# D.24338, D.24328
	cmpl	$105, %eax	#, D.24328
	je	.L341	#,
	cmpl	$105, %eax	#, D.24328
	jg	.L342	#,
	cmpl	$69, %eax	#, D.24328
	je	.L343	#,
	cmpl	$101, %eax	#, D.24328
	je	.L344	#,
	cmpl	$48, %eax	#, D.24328
	je	.L359	#,
	jmp	.L340	#
.L342:
	cmpl	$117, %eax	#, D.24328
	je	.L360	#,
	cmpl	$119, %eax	#, D.24328
	je	.L347	#,
	cmpl	$115, %eax	#, D.24328
	je	.L348	#,
	jmp	.L340	#
.L347:
	.loc 1 1675 0
	movq	-40(%rbp), %rax	# x, tmp212
	movl	-28(%rbp), %edx	# i, tmp214
	movslq	%edx, %rdx	# tmp214, tmp213
	movq	8(%rax,%rdx,8), %rcx	# x_7(D)->fld[i_1].rtwint, D.24339
	movq	-48(%rbp), %rax	# y, tmp215
	movl	-28(%rbp), %edx	# i, tmp217
	movslq	%edx, %rdx	# tmp217, tmp216
	movq	8(%rax,%rdx,8), %rax	# y_8(D)->fld[i_1].rtwint, D.24339
	cmpq	%rax, %rcx	# D.24339, D.24339
	je	.L349	#,
	.loc 1 1676 0
	movl	$0, %eax	#, D.24328
	jmp	.L318	#
.L349:
	.loc 1 1677 0
	jmp	.L350	#
.L341:
	.loc 1 1680 0
	movq	-40(%rbp), %rax	# x, tmp218
	movl	-28(%rbp), %edx	# i, tmp220
	movslq	%edx, %rdx	# tmp220, tmp219
	movl	8(%rax,%rdx,8), %ecx	# x_7(D)->fld[i_1].rtint, D.24328
	movq	-48(%rbp), %rax	# y, tmp221
	movl	-28(%rbp), %edx	# i, tmp223
	movslq	%edx, %rdx	# tmp223, tmp222
	movl	8(%rax,%rdx,8), %eax	# y_8(D)->fld[i_1].rtint, D.24328
	cmpl	%eax, %ecx	# D.24328, D.24328
	je	.L351	#,
	.loc 1 1681 0
	movl	$0, %eax	#, D.24328
	jmp	.L318	#
.L351:
	.loc 1 1682 0
	jmp	.L350	#
.L343:
	.loc 1 1686 0
	movq	-40(%rbp), %rax	# x, tmp224
	movl	-28(%rbp), %edx	# i, tmp226
	movslq	%edx, %rdx	# tmp226, tmp225
	movq	8(%rax,%rdx,8), %rax	# x_7(D)->fld[i_1].rtvec, D.24340
	movl	(%rax), %ecx	# _98->num_elem, D.24328
	movq	-48(%rbp), %rax	# y, tmp227
	movl	-28(%rbp), %edx	# i, tmp229
	movslq	%edx, %rdx	# tmp229, tmp228
	movq	8(%rax,%rdx,8), %rax	# y_8(D)->fld[i_1].rtvec, D.24340
	movl	(%rax), %eax	# _100->num_elem, D.24328
	cmpl	%eax, %ecx	# D.24328, D.24328
	je	.L352	#,
	.loc 1 1687 0
	movl	$0, %eax	#, D.24328
	jmp	.L318	#
.L352:
	.loc 1 1690 0
	movl	$0, -24(%rbp)	#, j
	jmp	.L353	#
.L355:
	.loc 1 1691 0
	movq	-48(%rbp), %rax	# y, tmp230
	movl	-28(%rbp), %edx	# i, tmp232
	movslq	%edx, %rdx	# tmp232, tmp231
	movq	8(%rax,%rdx,8), %rax	# y_8(D)->fld[i_1].rtvec, D.24340
	movl	-24(%rbp), %edx	# j, tmp234
	movslq	%edx, %rdx	# tmp234, tmp233
	movq	8(%rax,%rdx,8), %rsi	# _106->elem, D.24334
	movq	-40(%rbp), %rax	# x, tmp235
	movl	-28(%rbp), %edx	# i, tmp237
	movslq	%edx, %rdx	# tmp237, tmp236
	movq	8(%rax,%rdx,8), %rax	# x_7(D)->fld[i_1].rtvec, D.24340
	movl	-24(%rbp), %edx	# j, tmp239
	movslq	%edx, %rdx	# tmp239, tmp238
	movq	8(%rax,%rdx,8), %rax	# _108->elem, D.24334
	movq	-64(%rbp), %rcx	# regs, tmp240
	movq	-56(%rbp), %rdx	# movables, tmp241
	movq	%rax, %rdi	# D.24334,
	call	rtx_equal_for_loop_p	#
	testl	%eax, %eax	# D.24328
	jne	.L354	#,
	.loc 1 1693 0
	movl	$0, %eax	#, D.24328
	jmp	.L318	#
.L354:
	.loc 1 1690 0
	addl	$1, -24(%rbp)	#, j
.L353:
	.loc 1 1690 0 is_stmt 0 discriminator 1
	movq	-40(%rbp), %rax	# x, tmp242
	movl	-28(%rbp), %edx	# i, tmp244
	movslq	%edx, %rdx	# tmp244, tmp243
	movq	8(%rax,%rdx,8), %rax	# x_7(D)->fld[i_1].rtvec, D.24340
	movl	(%rax), %eax	# _104->num_elem, D.24328
	cmpl	-24(%rbp), %eax	# j, D.24328
	jg	.L355	#,
	.loc 1 1694 0 is_stmt 1
	jmp	.L350	#
.L344:
	.loc 1 1697 0
	movq	-48(%rbp), %rax	# y, tmp245
	movl	-28(%rbp), %edx	# i, tmp247
	movslq	%edx, %rdx	# tmp247, tmp246
	movq	8(%rax,%rdx,8), %rsi	# y_8(D)->fld[i_1].rtx, D.24334
	movq	-40(%rbp), %rax	# x, tmp248
	movl	-28(%rbp), %edx	# i, tmp250
	movslq	%edx, %rdx	# tmp250, tmp249
	movq	8(%rax,%rdx,8), %rax	# x_7(D)->fld[i_1].rtx, D.24334
	movq	-64(%rbp), %rcx	# regs, tmp251
	movq	-56(%rbp), %rdx	# movables, tmp252
	movq	%rax, %rdi	# D.24334,
	call	rtx_equal_for_loop_p	#
	testl	%eax, %eax	# D.24328
	jne	.L356	#,
	.loc 1 1699 0
	movl	$0, %eax	#, D.24328
	jmp	.L318	#
.L356:
	.loc 1 1700 0
	jmp	.L350	#
.L348:
	.loc 1 1703 0
	movq	-48(%rbp), %rax	# y, tmp253
	movl	-28(%rbp), %edx	# i, tmp255
	movslq	%edx, %rdx	# tmp255, tmp254
	movq	8(%rax,%rdx,8), %rdx	# y_8(D)->fld[i_1].rtstr, D.24336
	movq	-40(%rbp), %rax	# x, tmp256
	movl	-28(%rbp), %ecx	# i, tmp258
	movslq	%ecx, %rcx	# tmp258, tmp257
	movq	8(%rax,%rcx,8), %rax	# x_7(D)->fld[i_1].rtstr, D.24336
	movq	%rdx, %rsi	# D.24336,
	movq	%rax, %rdi	# D.24336,
	call	strcmp	#
	testl	%eax, %eax	# D.24328
	je	.L357	#,
	.loc 1 1704 0
	movl	$0, %eax	#, D.24328
	jmp	.L318	#
.L357:
	.loc 1 1705 0
	jmp	.L350	#
.L340:
	.loc 1 1718 0
	movl	$__FUNCTION__.12830, %edx	#,
	movl	$1718, %esi	#,
	movl	$.LC0, %edi	#,
	call	fancy_abort	#
.L359:
	.loc 1 1712 0
	nop
	jmp	.L350	#
.L360:
	.loc 1 1709 0
	nop
.L350:
	.loc 1 1670 0
	subl	$1, -28(%rbp)	#, i
.L339:
	.loc 1 1670 0 is_stmt 0 discriminator 1
	cmpl	$0, -28(%rbp)	#, i
	jns	.L358	#,
	.loc 1 1721 0 is_stmt 1
	movl	$1, %eax	#, D.24328
.L318:
	.loc 1 1722 0
	leave
	.cfi_def_cfa 7, 8
	ret
	.cfi_endproc
.LFE17:
	.size	rtx_equal_for_loop_p, .-rtx_equal_for_loop_p
	.type	add_label_notes, @function
add_label_notes:
.LFB18:
	.loc 1 1732 0
	.cfi_startproc
	pushq	%rbp	#
	.cfi_def_cfa_offset 16
	.cfi_offset 6, -16
	movq	%rsp, %rbp	#,
	.cfi_def_cfa_register 6
	subq	$48, %rsp	#,
	movq	%rdi, -40(%rbp)	# x, x
	movq	%rsi, -48(%rbp)	# insns, insns
	.loc 1 1733 0
	movq	-40(%rbp), %rax	# x, tmp87
	movzwl	(%rax), %eax	# x_4(D)->code, D.24342
	movzwl	%ax, %eax	# D.24342, tmp88
	movl	%eax, -20(%rbp)	# tmp88, code
	.loc 1 1738 0
	cmpl	$67, -20(%rbp)	#, code
	jne	.L362	#,
	.loc 1 1738 0 is_stmt 0 discriminator 1
	movq	-40(%rbp), %rax	# x, tmp89
	movzbl	3(%rax), %eax	# *x_4(D), D.24343
	andl	$8, %eax	#, D.24343
	testb	%al, %al	# D.24343
	jne	.L362	#,
	.loc 1 1745 0 is_stmt 1
	movq	-48(%rbp), %rax	# insns, tmp90
	movq	%rax, -16(%rbp)	# tmp90, insn
	jmp	.L363	#
.L365:
	.loc 1 1746 0
	movq	-40(%rbp), %rax	# x, tmp91
	movq	8(%rax), %rax	# x_4(D)->fld[0].rtx, D.24344
	movq	-16(%rbp), %rdx	# insn, tmp92
	movq	%rdx, %rsi	# tmp92,
	movq	%rax, %rdi	# D.24344,
	call	reg_mentioned_p	#
	testl	%eax, %eax	# D.24345
	je	.L364	#,
	.loc 1 1748 0
	movq	-16(%rbp), %rax	# insn, tmp93
	movq	56(%rax), %rdx	# insn_3->fld[6].rtx, D.24344
	movq	-40(%rbp), %rax	# x, tmp94
	movq	8(%rax), %rax	# x_4(D)->fld[0].rtx, D.24344
	movq	%rdx, %rcx	# D.24344,
	movq	%rax, %rdx	# D.24344,
	movl	$13, %esi	#,
	movl	$4, %edi	#,
	call	gen_rtx_fmt_ue	#
	movq	-16(%rbp), %rdx	# insn, tmp95
	movq	%rax, 56(%rdx)	# D.24344, insn_3->fld[6].rtx
	.loc 1 1750 0
	movq	-40(%rbp), %rax	# x, tmp96
	movq	8(%rax), %rax	# x_4(D)->fld[0].rtx, D.24344
	movzwl	(%rax), %eax	# _16->code, D.24342
	cmpw	$36, %ax	#, D.24342
	jne	.L364	#,
	.loc 1 1751 0
	movq	-40(%rbp), %rax	# x, tmp97
	movq	8(%rax), %rax	# x_4(D)->fld[0].rtx, D.24344
	movl	32(%rax), %edx	# _18->fld[3].rtint, D.24345
	addl	$1, %edx	#, D.24345
	movl	%edx, 32(%rax)	# D.24345, _18->fld[3].rtint
.L364:
	.loc 1 1745 0
	movq	-16(%rbp), %rax	# insn, tmp98
	movq	24(%rax), %rax	# insn_3->fld[2].rtx, tmp99
	movq	%rax, -16(%rbp)	# tmp99, insn
.L363:
	.loc 1 1745 0 is_stmt 0 discriminator 1
	cmpq	$0, -16(%rbp)	#, insn
	jne	.L365	#,
.L362:
	.loc 1 1755 0 is_stmt 1
	movl	-20(%rbp), %eax	# code, code.168
	cltq
	movq	rtx_format(,%rax,8), %rax	# rtx_format, tmp101
	movq	%rax, -8(%rbp)	# tmp101, fmt
	.loc 1 1756 0
	movl	-20(%rbp), %eax	# code, code.169
	cltq
	movzbl	rtx_length(%rax), %eax	# rtx_length, D.24343
	movzbl	%al, %eax	# D.24343, D.24345
	subl	$1, %eax	#, tmp103
	movl	%eax, -28(%rbp)	# tmp103, i
	jmp	.L366	#
.L371:
	.loc 1 1758 0
	movl	-28(%rbp), %eax	# i, tmp104
	movslq	%eax, %rdx	# tmp104, D.24346
	movq	-8(%rbp), %rax	# fmt, tmp105
	addq	%rdx, %rax	# D.24346, D.24347
	movzbl	(%rax), %eax	# *_29, D.24348
	cmpb	$101, %al	#, D.24348
	jne	.L367	#,
	.loc 1 1759 0
	movq	-40(%rbp), %rax	# x, tmp106
	movl	-28(%rbp), %edx	# i, tmp108
	movslq	%edx, %rdx	# tmp108, tmp107
	movq	8(%rax,%rdx,8), %rax	# x_4(D)->fld[i_1].rtx, D.24344
	movq	-48(%rbp), %rdx	# insns, tmp109
	movq	%rdx, %rsi	# tmp109,
	movq	%rax, %rdi	# D.24344,
	call	add_label_notes	#
	jmp	.L368	#
.L367:
	.loc 1 1760 0
	movl	-28(%rbp), %eax	# i, tmp110
	movslq	%eax, %rdx	# tmp110, D.24346
	movq	-8(%rbp), %rax	# fmt, tmp111
	addq	%rdx, %rax	# D.24346, D.24347
	movzbl	(%rax), %eax	# *_33, D.24348
	cmpb	$69, %al	#, D.24348
	jne	.L368	#,
	.loc 1 1761 0
	movq	-40(%rbp), %rax	# x, tmp112
	movl	-28(%rbp), %edx	# i, tmp114
	movslq	%edx, %rdx	# tmp114, tmp113
	movq	8(%rax,%rdx,8), %rax	# x_4(D)->fld[i_1].rtvec, D.24349
	movl	(%rax), %eax	# _35->num_elem, D.24345
	subl	$1, %eax	#, tmp115
	movl	%eax, -24(%rbp)	# tmp115, j
	jmp	.L369	#
.L370:
	.loc 1 1762 0 discriminator 2
	movq	-40(%rbp), %rax	# x, tmp116
	movl	-28(%rbp), %edx	# i, tmp118
	movslq	%edx, %rdx	# tmp118, tmp117
	movq	8(%rax,%rdx,8), %rax	# x_4(D)->fld[i_1].rtvec, D.24349
	movl	-24(%rbp), %edx	# j, tmp120
	movslq	%edx, %rdx	# tmp120, tmp119
	movq	8(%rax,%rdx,8), %rax	# _38->elem, D.24344
	movq	-48(%rbp), %rdx	# insns, tmp121
	movq	%rdx, %rsi	# tmp121,
	movq	%rax, %rdi	# D.24344,
	call	add_label_notes	#
	.loc 1 1761 0 discriminator 2
	subl	$1, -24(%rbp)	#, j
.L369:
	.loc 1 1761 0 is_stmt 0 discriminator 1
	cmpl	$0, -24(%rbp)	#, j
	jns	.L370	#,
.L368:
	.loc 1 1756 0 is_stmt 1
	subl	$1, -28(%rbp)	#, i
.L366:
	.loc 1 1756 0 is_stmt 0 discriminator 1
	cmpl	$0, -28(%rbp)	#, i
	jns	.L371	#,
	.loc 1 1764 0 is_stmt 1
	leave
	.cfi_def_cfa 7, 8
	ret
	.cfi_endproc
.LFE18:
	.size	add_label_notes, .-add_label_notes
	.section	.rodata
.LC4:
	.string	"Insn %d: regno %d (life %d), "
.LC5:
	.string	"consec %d, "
.LC6:
	.string	"cond "
.LC7:
	.string	"force "
.LC8:
	.string	"global "
.LC9:
	.string	"done "
.LC10:
	.string	"move-insn "
.LC11:
	.string	"matches %d "
.LC12:
	.string	"forces %d "
.LC13:
	.string	"savings %d "
.LC14:
	.string	"halved since already moved "
.LC15:
	.string	" moved to %d"
.LC16:
	.string	"not desirable"
.LC17:
	.string	"not safe"
	.text
	.type	move_movables, @function
move_movables:
.LFB19:
	.loc 1 1776 0
	.cfi_startproc
	pushq	%rbp	#
	.cfi_def_cfa_offset 16
	.cfi_offset 6, -16
	movq	%rsp, %rbp	#,
	.cfi_def_cfa_register 6
	pushq	%rbx	#
	subq	$312, %rsp	#,
	.cfi_offset 3, -24
	movq	%rdi, -296(%rbp)	# loop, loop
	movq	%rsi, -304(%rbp)	# movables, movables
	movl	%edx, -308(%rbp)	# threshold, threshold
	movl	%ecx, -312(%rbp)	# insn_count, insn_count
	.loc 1 1777 0
	movq	-296(%rbp), %rax	# loop, tmp422
	movq	160(%rax), %rax	# loop_70(D)->aux, D.24350
	addq	$184, %rax	#, tmp423
	movq	%rax, -160(%rbp)	# tmp423, regs
	.loc 1 1778 0
	movq	-160(%rbp), %rax	# regs, tmp424
	movl	(%rax), %eax	# regs_72->num, tmp425
	movl	%eax, -276(%rbp)	# tmp425, nregs
	.loc 1 1779 0
	movq	$0, -264(%rbp)	#, new_start
	.loc 1 1782 0
	movq	-296(%rbp), %rax	# loop, tmp426
	movq	192(%rax), %rax	# loop_70(D)->start, tmp427
	movq	%rax, -152(%rbp)	# tmp427, loop_start
	.loc 1 1783 0
	movq	-296(%rbp), %rax	# loop, tmp428
	movq	200(%rax), %rax	# loop_70(D)->end, tmp429
	movq	%rax, -144(%rbp)	# tmp429, loop_end
	.loc 1 1787 0
	movl	-276(%rbp), %eax	# nregs, tmp430
	cltq
	movl	$8, %esi	#,
	movq	%rax, %rdi	# D.24351,
	call	xcalloc	#
	movq	%rax, -136(%rbp)	# tmp431, reg_map
	.loc 1 1788 0
	movl	-276(%rbp), %eax	# nregs, tmp432
	cltq
	movl	$1, %esi	#,
	movq	%rax, %rdi	# D.24351,
	call	xcalloc	#
	movq	%rax, -128(%rbp)	# tmp433, already_moved
	.loc 1 1790 0
	movq	-304(%rbp), %rax	# movables, tmp434
	movq	(%rax), %rax	# movables_81(D)->head, tmp435
	movq	%rax, -256(%rbp)	# tmp435, m
	jmp	.L373	#
.L518:
	.loc 1 1794 0
	movq	loop_dump_stream(%rip), %rax	# loop_dump_stream, loop_dump_stream.170
	testq	%rax, %rax	# loop_dump_stream.170
	je	.L374	#,
	.loc 1 1797 0
	movq	-256(%rbp), %rax	# m, tmp436
	movzwl	40(%rax), %eax	# m_14->lifetime, D.24352
	.loc 1 1796 0
	movswl	%ax, %esi	# D.24352, D.24353
	movq	-256(%rbp), %rax	# m, tmp437
	movl	36(%rax), %ecx	# m_14->regno, D.24354
	.loc 1 1797 0
	movq	-256(%rbp), %rax	# m, tmp438
	movq	(%rax), %rax	# m_14->insn, D.24355
	.loc 1 1796 0
	movl	8(%rax), %edx	# _88->fld[0].rtint, D.24353
	movq	loop_dump_stream(%rip), %rax	# loop_dump_stream, loop_dump_stream.171
	movl	%esi, %r8d	# D.24353,
	movl	$.LC4, %esi	#,
	movq	%rax, %rdi	# loop_dump_stream.171,
	movl	$0, %eax	#,
	call	fprintf	#
	.loc 1 1798 0
	movq	-256(%rbp), %rax	# m, tmp439
	movl	32(%rax), %eax	# m_14->consec, D.24353
	testl	%eax, %eax	# D.24353
	jle	.L375	#,
	.loc 1 1799 0
	movq	-256(%rbp), %rax	# m, tmp440
	movl	32(%rax), %edx	# m_14->consec, D.24353
	movq	loop_dump_stream(%rip), %rax	# loop_dump_stream, loop_dump_stream.172
	movl	$.LC5, %esi	#,
	movq	%rax, %rdi	# loop_dump_stream.172,
	movl	$0, %eax	#,
	call	fprintf	#
.L375:
	.loc 1 1800 0
	movq	-256(%rbp), %rax	# m, tmp441
	movzbl	44(%rax), %eax	# *m_14, D.24356
	andl	$1, %eax	#, D.24356
	testb	%al, %al	# D.24356
	je	.L376	#,
	.loc 1 1801 0
	movq	loop_dump_stream(%rip), %rax	# loop_dump_stream, loop_dump_stream.173
	movq	%rax, %rcx	# loop_dump_stream.173,
	movl	$5, %edx	#,
	movl	$1, %esi	#,
	movl	$.LC6, %edi	#,
	call	fwrite	#
.L376:
	.loc 1 1802 0
	movq	-256(%rbp), %rax	# m, tmp442
	movzbl	44(%rax), %eax	# *m_14, D.24356
	andl	$2, %eax	#, D.24356
	testb	%al, %al	# D.24356
	je	.L377	#,
	.loc 1 1803 0
	movq	loop_dump_stream(%rip), %rax	# loop_dump_stream, loop_dump_stream.174
	movq	%rax, %rcx	# loop_dump_stream.174,
	movl	$6, %edx	#,
	movl	$1, %esi	#,
	movl	$.LC7, %edi	#,
	call	fwrite	#
.L377:
	.loc 1 1804 0
	movq	-256(%rbp), %rax	# m, tmp443
	movzbl	44(%rax), %eax	# *m_14, D.24356
	andl	$4, %eax	#, D.24356
	testb	%al, %al	# D.24356
	je	.L378	#,
	.loc 1 1805 0
	movq	loop_dump_stream(%rip), %rax	# loop_dump_stream, loop_dump_stream.175
	movq	%rax, %rcx	# loop_dump_stream.175,
	movl	$7, %edx	#,
	movl	$1, %esi	#,
	movl	$.LC8, %edi	#,
	call	fwrite	#
.L378:
	.loc 1 1806 0
	movq	-256(%rbp), %rax	# m, tmp444
	movzbl	44(%rax), %eax	# *m_14, D.24356
	andl	$8, %eax	#, D.24356
	testb	%al, %al	# D.24356
	je	.L379	#,
	.loc 1 1807 0
	movq	loop_dump_stream(%rip), %rax	# loop_dump_stream, loop_dump_stream.176
	movq	%rax, %rcx	# loop_dump_stream.176,
	movl	$5, %edx	#,
	movl	$1, %esi	#,
	movl	$.LC9, %edi	#,
	call	fwrite	#
.L379:
	.loc 1 1808 0
	movq	-256(%rbp), %rax	# m, tmp445
	movzbl	44(%rax), %eax	# *m_14, D.24356
	andl	$32, %eax	#, D.24356
	testb	%al, %al	# D.24356
	je	.L380	#,
	.loc 1 1809 0
	movq	loop_dump_stream(%rip), %rax	# loop_dump_stream, loop_dump_stream.177
	movq	%rax, %rcx	# loop_dump_stream.177,
	movl	$10, %edx	#,
	movl	$1, %esi	#,
	movl	$.LC10, %edi	#,
	call	fwrite	#
.L380:
	.loc 1 1810 0
	movq	-256(%rbp), %rax	# m, tmp446
	movq	56(%rax), %rax	# m_14->match, D.24357
	testq	%rax, %rax	# D.24357
	je	.L381	#,
	.loc 1 1812 0
	movq	-256(%rbp), %rax	# m, tmp447
	movq	56(%rax), %rax	# m_14->match, D.24357
	movq	(%rax), %rax	# _110->insn, D.24355
	.loc 1 1811 0
	movl	8(%rax), %edx	# _111->fld[0].rtint, D.24353
	movq	loop_dump_stream(%rip), %rax	# loop_dump_stream, loop_dump_stream.178
	movl	$.LC11, %esi	#,
	movq	%rax, %rdi	# loop_dump_stream.178,
	movl	$0, %eax	#,
	call	fprintf	#
.L381:
	.loc 1 1813 0
	movq	-256(%rbp), %rax	# m, tmp448
	movq	64(%rax), %rax	# m_14->forces, D.24357
	testq	%rax, %rax	# D.24357
	je	.L374	#,
	.loc 1 1815 0
	movq	-256(%rbp), %rax	# m, tmp449
	movq	64(%rax), %rax	# m_14->forces, D.24357
	movq	(%rax), %rax	# _115->insn, D.24355
	.loc 1 1814 0
	movl	8(%rax), %edx	# _116->fld[0].rtint, D.24353
	movq	loop_dump_stream(%rip), %rax	# loop_dump_stream, loop_dump_stream.179
	movl	$.LC12, %esi	#,
	movq	%rax, %rdi	# loop_dump_stream.179,
	movl	$0, %eax	#,
	call	fprintf	#
.L374:
	.loc 1 1821 0
	movq	-256(%rbp), %rax	# m, tmp450
	movzbl	44(%rax), %eax	# *m_14, D.24356
	andl	$8, %eax	#, D.24356
	testb	%al, %al	# D.24356
	jne	.L382	#,
	.loc 1 1822 0
	movq	-256(%rbp), %rax	# m, tmp451
	movzbl	44(%rax), %eax	# *m_14, D.24356
	andl	$1, %eax	#, D.24356
	testb	%al, %al	# D.24356
	je	.L383	#,
	.loc 1 1823 0
	movq	-256(%rbp), %rax	# m, tmp452
	movq	8(%rax), %rdx	# m_14->set_src, D.24355
	movq	-296(%rbp), %rax	# loop, tmp453
	movq	%rdx, %rsi	# D.24355,
	movq	%rax, %rdi	# tmp453,
	call	loop_invariant_p	#
	cmpl	$1, %eax	#, D.24353
	jne	.L382	#,
	.loc 1 1824 0
	movq	-256(%rbp), %rax	# m, tmp454
	movq	24(%rax), %rax	# m_14->dependencies, D.24355
	testq	%rax, %rax	# D.24355
	je	.L384	#,
	.loc 1 1825 0
	movq	-256(%rbp), %rax	# m, tmp455
	movq	24(%rax), %rdx	# m_14->dependencies, D.24355
	movq	-296(%rbp), %rax	# loop, tmp456
	movq	%rdx, %rsi	# D.24355,
	movq	%rax, %rdi	# tmp456,
	call	loop_invariant_p	#
	cmpl	$1, %eax	#, D.24353
	jne	.L382	#,
.L384:
	.loc 1 1826 0
	movq	-256(%rbp), %rax	# m, tmp457
	movl	32(%rax), %eax	# m_14->consec, D.24353
	testl	%eax, %eax	# D.24353
	je	.L383	#,
	.loc 1 1827 0
	movq	-256(%rbp), %rax	# m, tmp458
	movq	(%rax), %rdx	# m_14->insn, D.24355
	.loc 1 1828 0
	movq	-256(%rbp), %rax	# m, tmp459
	movl	32(%rax), %eax	# m_14->consec, D.24353
	.loc 1 1827 0
	leal	1(%rax), %edi	#, D.24353
	movq	-256(%rbp), %rax	# m, tmp460
	movq	16(%rax), %rsi	# m_14->set_dest, D.24355
	movq	-296(%rbp), %rax	# loop, tmp461
	movq	%rdx, %rcx	# D.24355,
	movl	%edi, %edx	# D.24353,
	movq	%rax, %rdi	# tmp461,
	call	consec_sets_invariant_p	#
	cmpl	$1, %eax	#, D.24353
	jne	.L382	#,
.L383:
	.loc 1 1830 0
	movq	-256(%rbp), %rax	# m, tmp462
	movq	64(%rax), %rax	# m_14->forces, D.24357
	testq	%rax, %rax	# D.24357
	je	.L385	#,
	.loc 1 1830 0 is_stmt 0 discriminator 1
	movq	-256(%rbp), %rax	# m, tmp463
	movq	64(%rax), %rax	# m_14->forces, D.24357
	movzbl	44(%rax), %eax	# *_135, D.24356
	andl	$8, %eax	#, D.24356
	testb	%al, %al	# D.24356
	je	.L382	#,
.L385:
.LBB16:
	.loc 1 1834 0 is_stmt 1
	movq	-256(%rbp), %rax	# m, tmp464
	movzwl	42(%rax), %eax	# m_14->savings, D.24352
	cwtl
	movl	%eax, -272(%rbp)	# tmp465, savings
	.loc 1 1839 0
	movq	-256(%rbp), %rax	# m, tmp466
	movq	(%rax), %rax	# m_14->insn, tmp467
	movq	%rax, -240(%rbp)	# tmp467, p
	.loc 1 1840 0
	movq	-256(%rbp), %rax	# m, tmp468
	movl	36(%rax), %eax	# m_14->regno, D.24354
	movl	%eax, -268(%rbp)	# D.24354, regno
	.loc 1 1842 0
	movq	loop_dump_stream(%rip), %rax	# loop_dump_stream, loop_dump_stream.180
	testq	%rax, %rax	# loop_dump_stream.180
	je	.L386	#,
	.loc 1 1843 0
	movq	loop_dump_stream(%rip), %rax	# loop_dump_stream, loop_dump_stream.181
	movl	-272(%rbp), %edx	# savings, tmp469
	movl	$.LC13, %esi	#,
	movq	%rax, %rdi	# loop_dump_stream.181,
	movl	$0, %eax	#,
	call	fprintf	#
.L386:
	.loc 1 1845 0
	movq	-160(%rbp), %rax	# regs, tmp470
	movq	8(%rax), %rcx	# regs_72->array, D.24358
	movl	-268(%rbp), %eax	# regno, tmp471
	movslq	%eax, %rdx	# tmp471, D.24351
	movq	%rdx, %rax	# D.24351, tmp472
	addq	%rax, %rax	# tmp472
	addq	%rdx, %rax	# D.24351, tmp472
	salq	$3, %rax	#, tmp473
	addq	%rcx, %rax	# D.24358, D.24358
	movzbl	17(%rax), %eax	# _148->moved_once, D.24359
	testb	%al, %al	# D.24359
	je	.L387	#,
	.loc 1 1845 0 is_stmt 0 discriminator 1
	movq	loop_dump_stream(%rip), %rax	# loop_dump_stream, loop_dump_stream.182
	testq	%rax, %rax	# loop_dump_stream.182
	je	.L387	#,
	.loc 1 1846 0 is_stmt 1
	movq	loop_dump_stream(%rip), %rax	# loop_dump_stream, loop_dump_stream.183
	movq	%rax, %rcx	# loop_dump_stream.183,
	movl	$27, %edx	#,
	movl	$1, %esi	#,
	movl	$.LC14, %edi	#,
	call	fwrite	#
.L387:
	.loc 1 1861 0
	movl	-268(%rbp), %eax	# regno, tmp474
	movslq	%eax, %rdx	# tmp474, D.24360
	movq	-128(%rbp), %rax	# already_moved, tmp475
	addq	%rdx, %rax	# D.24360, D.24361
	movzbl	(%rax), %eax	# *_153, D.24359
	testb	%al, %al	# D.24359
	jne	.L388	#,
	.loc 1 1862 0
	movl	flag_move_all_movables(%rip), %eax	# flag_move_all_movables, flag_move_all_movables.184
	testl	%eax, %eax	# flag_move_all_movables.184
	jne	.L388	#,
	.loc 1 1863 0
	movl	-308(%rbp), %eax	# threshold, tmp476
	imull	-272(%rbp), %eax	# savings, D.24353
	movl	%eax, %edx	# D.24353, D.24353
	movq	-256(%rbp), %rax	# m, tmp477
	movzwl	40(%rax), %eax	# m_14->lifetime, D.24352
	cwtl
	movl	%edx, %ecx	# D.24353, D.24353
	imull	%eax, %ecx	# D.24353, D.24353
	.loc 1 1864 0
	movq	-160(%rbp), %rax	# regs, tmp478
	movq	8(%rax), %rsi	# regs_72->array, D.24358
	movl	-268(%rbp), %eax	# regno, tmp479
	movslq	%eax, %rdx	# tmp479, D.24351
	movq	%rdx, %rax	# D.24351, tmp480
	addq	%rax, %rax	# tmp480
	addq	%rdx, %rax	# D.24351, tmp480
	salq	$3, %rax	#, tmp481
	addq	%rsi, %rax	# D.24358, D.24358
	movzbl	17(%rax), %eax	# _163->moved_once, D.24359
	testb	%al, %al	# D.24359
	je	.L389	#,
	.loc 1 1864 0 is_stmt 0 discriminator 1
	movl	-312(%rbp), %eax	# insn_count, tmp482
	addl	%eax, %eax	# iftmp.185
	jmp	.L390	#
.L389:
	.loc 1 1864 0 discriminator 2
	movl	-312(%rbp), %eax	# insn_count, iftmp.185
.L390:
	.loc 1 1863 0 is_stmt 1
	cmpl	%eax, %ecx	# iftmp.185, D.24353
	jge	.L388	#,
	.loc 1 1865 0
	movq	-256(%rbp), %rax	# m, tmp483
	movq	64(%rax), %rax	# m_14->forces, D.24357
	testq	%rax, %rax	# D.24357
	je	.L391	#,
	.loc 1 1865 0 is_stmt 0 discriminator 1
	movq	-256(%rbp), %rax	# m, tmp484
	movq	64(%rax), %rax	# m_14->forces, D.24357
	movzbl	44(%rax), %eax	# *_169, D.24356
	andl	$8, %eax	#, D.24356
	testb	%al, %al	# D.24356
	je	.L391	#,
	.loc 1 1866 0 is_stmt 1
	movq	-160(%rbp), %rax	# regs, tmp485
	movq	8(%rax), %rcx	# regs_72->array, D.24358
	movq	-256(%rbp), %rax	# m, tmp486
	movq	64(%rax), %rax	# m_14->forces, D.24357
	movl	36(%rax), %eax	# _173->regno, D.24354
	movl	%eax, %edx	# D.24354, D.24351
	movq	%rdx, %rax	# D.24351, tmp487
	addq	%rax, %rax	# tmp487
	addq	%rdx, %rax	# D.24351, tmp487
	salq	$3, %rax	#, tmp488
	addq	%rcx, %rax	# D.24358, D.24358
	movl	4(%rax), %eax	# _177->n_times_set, D.24353
	cmpl	$1, %eax	#, D.24353
	jne	.L391	#,
.L388:
.LBB17:
	.loc 1 1870 0
	movq	$0, -224(%rbp)	#, first
	.loc 1 1874 0
	movq	-256(%rbp), %rax	# m, tmp489
	movzbl	44(%rax), %eax	# *m_14, D.24356
	andl	$16, %eax	#, D.24356
	testb	%al, %al	# D.24356
	je	.L392	#,
	.loc 1 1874 0 is_stmt 0 discriminator 1
	movq	-256(%rbp), %rax	# m, tmp490
	movq	56(%rax), %rax	# m_14->match, D.24357
	testq	%rax, %rax	# D.24357
	je	.L392	#,
.LBB18:
	.loc 1 1882 0 is_stmt 1
	movq	-256(%rbp), %rax	# m, tmp491
	movq	%rax, -232(%rbp)	# tmp491, m1
	jmp	.L393	#
.L394:
	.loc 1 1882 0 is_stmt 0 discriminator 2
	movq	-232(%rbp), %rax	# m1, tmp492
	movq	56(%rax), %rax	# m1_24->match, tmp493
	movq	%rax, -232(%rbp)	# tmp493, m1
.L393:
	.loc 1 1882 0 discriminator 1
	movq	-232(%rbp), %rax	# m1, tmp494
	movq	56(%rax), %rax	# m1_24->match, D.24357
	testq	%rax, %rax	# D.24357
	jne	.L394	#,
	.loc 1 1884 0 is_stmt 1
	movq	-232(%rbp), %rax	# m1, tmp495
	movq	(%rax), %rax	# m1_24->insn, D.24355
	movq	32(%rax), %rax	# _188->fld[3].rtx, D.24355
	.loc 1 1883 0
	movq	8(%rax), %rdx	# _189->fld[0].rtx, D.24355
	movq	-256(%rbp), %rax	# m, tmp496
	movq	(%rax), %rax	# m_14->insn, D.24355
	movq	32(%rax), %rax	# _191->fld[3].rtx, D.24355
	movq	8(%rax), %rax	# _192->fld[0].rtx, D.24355
	movq	%rdx, %rsi	# D.24355,
	movq	%rax, %rdi	# D.24355,
	call	gen_move_insn	#
	movq	%rax, -120(%rbp)	# tmp497, newpat
	.loc 1 1885 0
	movq	-120(%rbp), %rdx	# newpat, tmp498
	movq	-296(%rbp), %rax	# loop, tmp499
	movq	%rdx, %rsi	# tmp498,
	movq	%rax, %rdi	# tmp499,
	call	loop_insn_hoist	#
	movq	%rax, -112(%rbp)	# tmp500, i1
	.loc 1 1889 0
	movq	-256(%rbp), %rax	# m, tmp501
	movq	(%rax), %rax	# m_14->insn, D.24355
	movq	56(%rax), %rdx	# _196->fld[6].rtx, D.24355
	movq	-112(%rbp), %rax	# i1, tmp502
	movq	%rdx, 56(%rax)	# D.24355, i1_195->fld[6].rtx
	.loc 1 1890 0
	movq	-256(%rbp), %rax	# m, tmp503
	movq	(%rax), %rax	# m_14->insn, D.24355
	movq	32(%rax), %rax	# _198->fld[3].rtx, D.24355
	movq	8(%rax), %rax	# _199->fld[0].rtx, tmp504
	movq	%rax, -104(%rbp)	# tmp504, r1
	.loc 1 1891 0
	movq	-232(%rbp), %rax	# m1, tmp505
	movq	(%rax), %rax	# m1_24->insn, D.24355
	movq	32(%rax), %rax	# _201->fld[3].rtx, D.24355
	movq	8(%rax), %rax	# _202->fld[0].rtx, tmp506
	movq	%rax, -96(%rbp)	# tmp506, r2
	.loc 1 1893 0
	movq	regs_may_share(%rip), %rdx	# regs_may_share, regs_may_share.186
	movq	-96(%rbp), %rax	# r2, tmp507
	movq	%rdx, %rcx	# regs_may_share.186,
	movq	%rax, %rdx	# tmp507,
	movl	$0, %esi	#,
	movl	$3, %edi	#,
	call	gen_rtx_fmt_ee	#
	movq	%rax, %rdx	#, D.24355
	movq	-104(%rbp), %rax	# r1, tmp508
	movq	%rdx, %rcx	# D.24355,
	movq	%rax, %rdx	# tmp508,
	movl	$0, %esi	#,
	movl	$3, %edi	#,
	call	gen_rtx_fmt_ee	#
	movq	%rax, regs_may_share(%rip)	# regs_may_share.187, regs_may_share
	.loc 1 1896 0
	movq	-256(%rbp), %rax	# m, tmp509
	movq	(%rax), %rax	# m_14->insn, D.24355
	movq	%rax, %rdi	# D.24355,
	call	delete_insn	#
	.loc 1 1898 0
	cmpq	$0, -264(%rbp)	#, new_start
	jne	.L395	#,
	.loc 1 1899 0
	movq	-112(%rbp), %rax	# i1, tmp510
	movq	%rax, -264(%rbp)	# tmp510, new_start
.L395:
	.loc 1 1901 0
	movq	loop_dump_stream(%rip), %rax	# loop_dump_stream, loop_dump_stream.188
	testq	%rax, %rax	# loop_dump_stream.188
	je	.L396	#,
	.loc 1 1902 0
	movq	-112(%rbp), %rax	# i1, tmp511
	movl	8(%rax), %edx	# i1_195->fld[0].rtint, D.24353
	movq	loop_dump_stream(%rip), %rax	# loop_dump_stream, loop_dump_stream.189
	movl	$.LC15, %esi	#,
	movq	%rax, %rdi	# loop_dump_stream.189,
	movl	$0, %eax	#,
	call	fprintf	#
.LBE18:
	.loc 1 1875 0
	jmp	.L397	#
.L396:
	jmp	.L397	#
.L392:
	.loc 1 1907 0
	movq	-256(%rbp), %rax	# m, tmp512
	movzbl	44(%rax), %eax	# *m_14, D.24356
	andl	$32, %eax	#, D.24356
	testb	%al, %al	# D.24356
	je	.L398	#,
.LBB19:
	.loc 1 1911 0
	movq	-256(%rbp), %rax	# m, tmp513
	movl	32(%rax), %eax	# m_14->consec, tmp514
	movl	%eax, -288(%rbp)	# tmp514, count
	jmp	.L399	#
.L407:
	.loc 1 1915 0
	movq	-240(%rbp), %rax	# p, tmp515
	movzwl	(%rax), %eax	# p_18->code, D.24362
	cmpw	$37, %ax	#, D.24362
	je	.L400	#,
	.loc 1 1916 0
	movq	-240(%rbp), %rax	# p, tmp516
	movl	$0, %edx	#,
	movl	$7, %esi	#,
	movq	%rax, %rdi	# tmp516,
	call	find_reg_note	#
	movq	%rax, -216(%rbp)	# tmp517, temp
	cmpq	$0, -216(%rbp)	#, temp
	je	.L400	#,
	.loc 1 1917 0
	movq	-216(%rbp), %rax	# temp, tmp518
	movq	8(%rax), %rax	# temp_216->fld[0].rtx, tmp519
	movq	%rax, -240(%rbp)	# tmp519, p
.L400:
	.loc 1 1922 0
	movq	-240(%rbp), %rax	# p, tmp520
	movzwl	(%rax), %eax	# p_16->code, D.24362
	cmpw	$37, %ax	#, D.24362
	je	.L401	#,
	.loc 1 1923 0
	movq	-240(%rbp), %rax	# p, tmp521
	movl	$0, %edx	#,
	movl	$6, %esi	#,
	movq	%rax, %rdi	# tmp521,
	call	find_reg_note	#
	movq	%rax, -216(%rbp)	# tmp522, temp
	cmpq	$0, -216(%rbp)	#, temp
	je	.L401	#,
	.loc 1 1925 0
	movq	-216(%rbp), %rax	# temp, tmp523
	movq	8(%rax), %rax	# temp_219->fld[0].rtx, tmp524
	movq	%rax, -216(%rbp)	# tmp524, temp
	.loc 1 1926 0
	jmp	.L402	#
.L403:
	.loc 1 1927 0
	movq	-216(%rbp), %rax	# temp, tmp525
	movq	%rax, %rdi	# tmp525,
	call	delete_insn	#
	movq	%rax, -216(%rbp)	# tmp526, temp
.L402:
	.loc 1 1926 0 discriminator 1
	movq	-216(%rbp), %rax	# temp, tmp527
	cmpq	-240(%rbp), %rax	# p, tmp527
	jne	.L403	#,
.L401:
	.loc 1 1930 0
	movq	-240(%rbp), %rax	# p, tmp528
	movq	%rax, -216(%rbp)	# tmp528, temp
	.loc 1 1931 0
	movq	-240(%rbp), %rax	# p, tmp529
	movq	%rax, %rdi	# tmp529,
	call	delete_insn	#
	movq	%rax, -240(%rbp)	# tmp530, p
	.loc 1 1939 0
	jmp	.L404	#
.L406:
	.loc 1 1940 0
	movq	-240(%rbp), %rax	# p, tmp531
	movq	24(%rax), %rdx	# p_17->fld[2].rtx, D.24355
	movq	-216(%rbp), %rax	# temp, tmp532
	movq	%rdx, 24(%rax)	# D.24355, temp_222->fld[2].rtx
	movq	-216(%rbp), %rax	# temp, tmp533
	movq	24(%rax), %rax	# temp_222->fld[2].rtx, tmp534
	movq	%rax, -240(%rbp)	# tmp534, p
.L404:
	.loc 1 1939 0 discriminator 1
	cmpq	$0, -240(%rbp)	#, p
	je	.L405	#,
	.loc 1 1939 0 is_stmt 0 discriminator 2
	movq	-240(%rbp), %rax	# p, tmp535
	movzwl	(%rax), %eax	# p_17->code, D.24362
	cmpw	$37, %ax	#, D.24362
	je	.L406	#,
.L405:
	.loc 1 1911 0 is_stmt 1
	subl	$1, -288(%rbp)	#, count
.L399:
	.loc 1 1911 0 is_stmt 0 discriminator 1
	cmpl	$0, -288(%rbp)	#, count
	jns	.L407	#,
	.loc 1 1943 0 is_stmt 1
	call	start_sequence	#
	.loc 1 1944 0
	movq	-256(%rbp), %rax	# m, tmp536
	movq	8(%rax), %rdx	# m_14->set_src, D.24355
	movq	-256(%rbp), %rax	# m, tmp537
	movq	16(%rax), %rax	# m_14->set_dest, D.24355
	movq	%rdx, %rsi	# D.24355,
	movq	%rax, %rdi	# D.24355,
	call	emit_move_insn	#
	.loc 1 1945 0
	call	get_insns	#
	movq	%rax, -216(%rbp)	# tmp538, temp
	.loc 1 1946 0
	call	gen_sequence	#
	movq	%rax, -88(%rbp)	# tmp539, seq
	.loc 1 1947 0
	call	end_sequence	#
	.loc 1 1949 0
	movq	-256(%rbp), %rax	# m, tmp540
	movq	8(%rax), %rax	# m_14->set_src, D.24355
	movq	-216(%rbp), %rdx	# temp, tmp541
	movq	%rdx, %rsi	# tmp541,
	movq	%rax, %rdi	# D.24355,
	call	add_label_notes	#
	.loc 1 1951 0
	movq	-88(%rbp), %rdx	# seq, tmp542
	movq	-296(%rbp), %rax	# loop, tmp543
	movq	%rdx, %rsi	# tmp542,
	movq	%rax, %rdi	# tmp543,
	call	loop_insn_hoist	#
	movq	%rax, -80(%rbp)	# tmp544, i1
	.loc 1 1952 0
	movq	-80(%rbp), %rax	# i1, tmp545
	movl	$0, %edx	#,
	movl	$4, %esi	#,
	movq	%rax, %rdi	# tmp545,
	call	find_reg_note	#
	testq	%rax, %rax	# D.24355
	jne	.L408	#,
	.loc 1 1953 0
	movq	-256(%rbp), %rax	# m, tmp546
	movq	8(%rax), %rdx	# m_14->set_src, D.24355
	.loc 1 1954 0
	movq	-256(%rbp), %rax	# m, tmp547
	movzbl	44(%rax), %eax	# *m_14, D.24356
	andl	$-128, %eax	#, D.24356
	.loc 1 1953 0
	testb	%al, %al	# D.24356
	je	.L409	#,
	.loc 1 1953 0 is_stmt 0 discriminator 1
	movl	$3, %eax	#, iftmp.190
	jmp	.L410	#
.L409:
	.loc 1 1953 0 discriminator 2
	movl	$4, %eax	#, iftmp.190
.L410:
	.loc 1 1953 0 discriminator 3
	movq	-80(%rbp), %rcx	# i1, tmp548
	movl	%eax, %esi	# iftmp.190,
	movq	%rcx, %rdi	# tmp548,
	call	set_unique_reg_note	#
.L408:
	.loc 1 1957 0 is_stmt 1
	movq	loop_dump_stream(%rip), %rax	# loop_dump_stream, loop_dump_stream.191
	testq	%rax, %rax	# loop_dump_stream.191
	je	.L411	#,
	.loc 1 1958 0
	movq	-80(%rbp), %rax	# i1, tmp549
	movl	8(%rax), %edx	# i1_233->fld[0].rtint, D.24353
	movq	loop_dump_stream(%rip), %rax	# loop_dump_stream, loop_dump_stream.192
	movl	$.LC15, %esi	#,
	movq	%rax, %rdi	# loop_dump_stream.192,
	movl	$0, %eax	#,
	call	fprintf	#
.L411:
	.loc 1 1961 0
	subl	$3, -308(%rbp)	#, threshold
.LBE19:
	jmp	.L397	#
.L398:
	.loc 1 1965 0
	movq	-256(%rbp), %rax	# m, tmp550
	movl	32(%rax), %eax	# m_14->consec, tmp551
	movl	%eax, -288(%rbp)	# tmp551, count
	jmp	.L412	#
.L449:
.LBB20:
	.loc 1 1972 0
	movq	-240(%rbp), %rax	# p, tmp552
	movzwl	(%rax), %eax	# p_21->code, D.24362
	cmpw	$37, %ax	#, D.24362
	je	.L413	#,
	.loc 1 1973 0
	movq	-240(%rbp), %rax	# p, tmp553
	movl	$0, %edx	#,
	movl	$7, %esi	#,
	movq	%rax, %rdi	# tmp553,
	call	find_reg_note	#
	movq	%rax, -200(%rbp)	# tmp554, temp
	cmpq	$0, -200(%rbp)	#, temp
	je	.L413	#,
	.loc 1 1974 0
	movq	-200(%rbp), %rax	# temp, tmp555
	movq	8(%rax), %rax	# temp_246->fld[0].rtx, tmp556
	movq	%rax, -240(%rbp)	# tmp556, p
.L413:
	.loc 1 1979 0
	movq	-240(%rbp), %rax	# p, tmp557
	movzwl	(%rax), %eax	# p_19->code, D.24362
	cmpw	$37, %ax	#, D.24362
	je	.L414	#,
	.loc 1 1980 0
	movq	-240(%rbp), %rax	# p, tmp558
	movl	$0, %edx	#,
	movl	$6, %esi	#,
	movq	%rax, %rdi	# tmp558,
	call	find_reg_note	#
	movq	%rax, -200(%rbp)	# tmp559, temp
	cmpq	$0, -200(%rbp)	#, temp
	je	.L414	#,
.LBB21:
	.loc 1 1982 0
	movq	$0, -192(%rbp)	#, fn_address
	.loc 1 1983 0
	movq	$0, -184(%rbp)	#, fn_reg
	.loc 1 1984 0
	movq	$0, -176(%rbp)	#, fn_address_insn
	.loc 1 1986 0
	movq	$0, -224(%rbp)	#, first
	.loc 1 1987 0
	movq	-200(%rbp), %rax	# temp, tmp560
	movq	8(%rax), %rax	# temp_249->fld[0].rtx, tmp561
	movq	%rax, -200(%rbp)	# tmp561, temp
	jmp	.L415	#
.L431:
.LBB22:
	.loc 1 1994 0
	movq	-200(%rbp), %rax	# temp, tmp562
	movzwl	(%rax), %eax	# temp_34->code, D.24362
	cmpw	$37, %ax	#, D.24362
	jne	.L416	#,
	.loc 1 1995 0
	jmp	.L417	#
.L416:
	.loc 1 1997 0
	movq	-200(%rbp), %rax	# temp, tmp563
	movq	32(%rax), %rax	# temp_34->fld[3].rtx, tmp564
	movq	%rax, -72(%rbp)	# tmp564, body
	.loc 1 2001 0
	movq	-200(%rbp), %rax	# temp, tmp565
	movq	24(%rax), %rax	# temp_34->fld[2].rtx, tmp566
	movq	%rax, -168(%rbp)	# tmp566, next
	jmp	.L418	#
.L422:
	.loc 1 2003 0
	movq	-168(%rbp), %rax	# next, tmp567
	movzwl	(%rax), %eax	# next_46->code, D.24362
	cmpw	$32, %ax	#, D.24362
	jne	.L419	#,
	.loc 1 2004 0 discriminator 1
	movq	-168(%rbp), %rax	# next, tmp568
	movq	32(%rax), %rax	# next_46->fld[3].rtx, D.24355
	movzwl	(%rax), %eax	# _259->code, D.24362
	.loc 1 2003 0 discriminator 1
	cmpw	$48, %ax	#, D.24362
	je	.L420	#,
.L419:
	.loc 1 2005 0
	movq	-168(%rbp), %rax	# next, tmp569
	movzwl	(%rax), %eax	# next_46->code, D.24362
	cmpw	$37, %ax	#, D.24362
	je	.L420	#,
	.loc 1 2006 0
	jmp	.L421	#
.L420:
	.loc 1 2002 0
	movq	-168(%rbp), %rax	# next, tmp570
	movq	24(%rax), %rax	# next_46->fld[2].rtx, tmp571
	movq	%rax, -168(%rbp)	# tmp571, next
.L418:
	.loc 1 2001 0 discriminator 1
	movq	-168(%rbp), %rax	# next, tmp572
	cmpq	-240(%rbp), %rax	# p, tmp572
	jne	.L422	#,
.L421:
	.loc 1 2019 0
	movq	-168(%rbp), %rax	# next, tmp573
	movzwl	(%rax), %eax	# next_46->code, D.24362
	cmpw	$34, %ax	#, D.24362
	jne	.L423	#,
	.loc 1 2020 0
	movq	-72(%rbp), %rax	# body, tmp574
	movzwl	(%rax), %eax	# body_256->code, D.24362
	cmpw	$47, %ax	#, D.24362
	jne	.L423	#,
	.loc 1 2021 0
	movq	-72(%rbp), %rax	# body, tmp575
	movq	8(%rax), %rax	# body_256->fld[0].rtx, D.24355
	movzwl	(%rax), %eax	# _265->code, D.24362
	cmpw	$61, %ax	#, D.24362
	jne	.L423	#,
	.loc 1 2022 0
	movq	-200(%rbp), %rax	# temp, tmp576
	movl	$0, %edx	#,
	movl	$4, %esi	#,
	movq	%rax, %rdi	# tmp576,
	call	find_reg_note	#
	movq	%rax, -64(%rbp)	# tmp577, n
	cmpq	$0, -64(%rbp)	#, n
	je	.L423	#,
	.loc 1 2025 0
	movq	-72(%rbp), %rax	# body, tmp578
	movq	16(%rax), %rax	# body_256->fld[1].rtx, tmp579
	movq	%rax, -184(%rbp)	# tmp579, fn_reg
	.loc 1 2026 0
	movq	-184(%rbp), %rax	# fn_reg, tmp580
	movzwl	(%rax), %eax	# fn_reg_268->code, D.24362
	cmpw	$61, %ax	#, D.24362
	je	.L424	#,
	.loc 1 2027 0
	movq	-72(%rbp), %rax	# body, tmp581
	movq	8(%rax), %rax	# body_256->fld[0].rtx, tmp582
	movq	%rax, -184(%rbp)	# tmp582, fn_reg
.L424:
	.loc 1 2028 0
	movq	-64(%rbp), %rax	# n, tmp583
	movq	8(%rax), %rax	# n_267->fld[0].rtx, tmp584
	movq	%rax, -192(%rbp)	# tmp584, fn_address
	.loc 1 2029 0
	movq	-200(%rbp), %rax	# temp, tmp585
	movq	%rax, -176(%rbp)	# tmp585, fn_address_insn
.L423:
	.loc 1 2034 0
	movq	-200(%rbp), %rax	# temp, tmp586
	movzwl	(%rax), %eax	# temp_34->code, D.24362
	cmpw	$34, %ax	#, D.24362
	jne	.L425	#,
	.loc 1 2035 0
	cmpq	$0, -192(%rbp)	#, fn_address
	je	.L425	#,
	.loc 1 2036 0
	movq	-72(%rbp), %rdx	# body, tmp587
	movq	-184(%rbp), %rax	# fn_reg, tmp588
	movq	%rdx, %rsi	# tmp587,
	movq	%rax, %rdi	# tmp588,
	call	reg_referenced_p	#
	testl	%eax, %eax	# D.24353
	je	.L425	#,
	.loc 1 2037 0
	movq	-192(%rbp), %rdx	# fn_address, tmp589
	movq	-184(%rbp), %rax	# fn_reg, tmp590
	movq	%rdx, %rsi	# tmp589,
	movq	%rax, %rdi	# tmp590,
	call	gen_move_insn	#
	movq	%rax, %rcx	#, D.24355
	movq	-176(%rbp), %rdx	# fn_address_insn, tmp591
	movq	-296(%rbp), %rax	# loop, tmp592
	movl	$0, %esi	#,
	movq	%rax, %rdi	# tmp592,
	call	loop_insn_emit_after	#
.L425:
	.loc 1 2041 0
	movq	-200(%rbp), %rax	# temp, tmp593
	movzwl	(%rax), %eax	# temp_34->code, D.24362
	cmpw	$34, %ax	#, D.24362
	jne	.L426	#,
	.loc 1 2043 0
	movq	-72(%rbp), %rdx	# body, tmp594
	movq	-296(%rbp), %rax	# loop, tmp595
	movq	%rdx, %rsi	# tmp594,
	movq	%rax, %rdi	# tmp595,
	call	loop_call_insn_hoist	#
	movq	%rax, -208(%rbp)	# tmp596, i1
	.loc 1 2047 0
	movq	-200(%rbp), %rax	# temp, tmp597
	movq	64(%rax), %rax	# temp_34->fld[7].rtx, D.24355
	testq	%rax, %rax	# D.24355
	je	.L428	#,
	.loc 1 2049 0
	movq	-200(%rbp), %rax	# temp, tmp598
	movq	64(%rax), %rax	# temp_34->fld[7].rtx, D.24355
	movq	%rax, %rdi	# D.24355,
	call	copy_rtx	#
	movq	-208(%rbp), %rdx	# i1, tmp599
	movq	%rax, 64(%rdx)	# D.24355, i1_277->fld[7].rtx
	jmp	.L428	#
.L426:
	.loc 1 2052 0
	movq	-72(%rbp), %rdx	# body, tmp600
	movq	-296(%rbp), %rax	# loop, tmp601
	movq	%rdx, %rsi	# tmp600,
	movq	%rax, %rdi	# tmp601,
	call	loop_insn_hoist	#
	movq	%rax, -208(%rbp)	# tmp602, i1
.L428:
	.loc 1 2053 0
	cmpq	$0, -224(%rbp)	#, first
	jne	.L429	#,
	.loc 1 2054 0
	movq	-208(%rbp), %rax	# i1, tmp603
	movq	%rax, -224(%rbp)	# tmp603, first
.L429:
	.loc 1 2055 0
	movq	-200(%rbp), %rax	# temp, tmp604
	cmpq	-176(%rbp), %rax	# fn_address_insn, tmp604
	jne	.L430	#,
	.loc 1 2056 0
	movq	-208(%rbp), %rax	# i1, tmp605
	movq	%rax, -176(%rbp)	# tmp605, fn_address_insn
.L430:
	.loc 1 2057 0
	movq	-200(%rbp), %rax	# temp, tmp606
	movq	56(%rax), %rdx	# temp_34->fld[6].rtx, D.24355
	movq	-208(%rbp), %rax	# i1, tmp607
	movq	%rdx, 56(%rax)	# D.24355, i1_32->fld[6].rtx
	.loc 1 2058 0
	movq	-200(%rbp), %rax	# temp, tmp608
	movq	$0, 56(%rax)	#, temp_34->fld[6].rtx
	.loc 1 2059 0
	movq	-200(%rbp), %rax	# temp, tmp609
	movq	%rax, %rdi	# tmp609,
	call	delete_insn	#
.L417:
.LBE22:
	.loc 1 1988 0
	movq	-200(%rbp), %rax	# temp, tmp610
	movq	24(%rax), %rax	# temp_34->fld[2].rtx, tmp611
	movq	%rax, -200(%rbp)	# tmp611, temp
.L415:
	.loc 1 1987 0 discriminator 1
	movq	-200(%rbp), %rax	# temp, tmp612
	cmpq	-240(%rbp), %rax	# p, tmp612
	jne	.L431	#,
	.loc 1 2061 0
	cmpq	$0, -264(%rbp)	#, new_start
	jne	.L414	#,
	.loc 1 2062 0
	movq	-224(%rbp), %rax	# first, tmp613
	movq	%rax, -264(%rbp)	# tmp613, new_start
.L414:
.LBE21:
	.loc 1 2064 0
	movq	-256(%rbp), %rax	# m, tmp614
	movl	48(%rax), %eax	# m_14->savemode, D.24363
	testl	%eax, %eax	# D.24363
	je	.L432	#,
.LBB23:
	.loc 1 2069 0
	movq	-256(%rbp), %rax	# m, tmp615
	movq	16(%rax), %rax	# m_14->set_dest, tmp616
	movq	%rax, -56(%rbp)	# tmp616, reg
	.loc 1 2073 0
	call	start_sequence	#
	.loc 1 2076 0
	movq	-256(%rbp), %rax	# m, tmp617
	movl	48(%rax), %eax	# m_14->savemode, D.24363
	cltq
	movzwl	mode_bitsize(%rax,%rax), %eax	# mode_bitsize, D.24362
	movzwl	%ax, %eax	# D.24362, D.24353
	movl	$1, %edx	#, tmp619
	movl	%eax, %ecx	# D.24353, tmp793
	salq	%cl, %rdx	# tmp793, D.24364
	movq	%rdx, %rax	# D.24364, D.24364
	.loc 1 2075 0
	subq	$1, %rax	#, D.24364
	movq	%rax, %rsi	# D.24364,
	movl	$0, %edi	#,
	call	gen_rtx_CONST_INT	#
	movq	%rax, %rcx	#, D.24355
	movq	-56(%rbp), %rax	# reg, tmp620
	movzbl	2(%rax), %eax	# reg_288->mode, D.24356
	movzbl	%al, %eax	# D.24356, D.24363
	.loc 1 2074 0
	movq	-56(%rbp), %rsi	# reg, tmp621
	movq	-56(%rbp), %rdx	# reg, tmp622
	movl	$3, (%rsp)	#,
	movl	$1, %r9d	#,
	movq	%rsi, %r8	# tmp621,
	movl	$83, %esi	#,
	movl	%eax, %edi	# D.24363,
	call	expand_simple_binop	#
	movq	%rax, -48(%rbp)	# tmp623, tem
	.loc 1 2080 0
	cmpq	$0, -48(%rbp)	#, tem
	jne	.L433	#,
	.loc 1 2081 0
	movl	$__FUNCTION__.12910, %edx	#,
	movl	$2081, %esi	#,
	movl	$.LC0, %edi	#,
	call	fancy_abort	#
.L433:
	.loc 1 2082 0
	movq	-48(%rbp), %rax	# tem, tmp624
	cmpq	-56(%rbp), %rax	# reg, tmp624
	je	.L434	#,
	.loc 1 2083 0
	movq	-48(%rbp), %rdx	# tem, tmp625
	movq	-56(%rbp), %rax	# reg, tmp626
	movq	%rdx, %rsi	# tmp625,
	movq	%rax, %rdi	# tmp626,
	call	emit_move_insn	#
.L434:
	.loc 1 2084 0
	call	gen_sequence	#
	movq	%rax, -40(%rbp)	# tmp627, sequence
	.loc 1 2085 0
	call	end_sequence	#
	.loc 1 2086 0
	movq	-40(%rbp), %rdx	# sequence, tmp628
	movq	-296(%rbp), %rax	# loop, tmp629
	movq	%rdx, %rsi	# tmp628,
	movq	%rax, %rdi	# tmp629,
	call	loop_insn_hoist	#
	movq	%rax, -208(%rbp)	# tmp630, i1
.LBE23:
	jmp	.L435	#
.L432:
	.loc 1 2088 0
	movq	-240(%rbp), %rax	# p, tmp631
	movzwl	(%rax), %eax	# p_19->code, D.24362
	cmpw	$34, %ax	#, D.24362
	jne	.L436	#,
	.loc 1 2090 0
	movq	-240(%rbp), %rax	# p, tmp632
	movq	32(%rax), %rdx	# p_19->fld[3].rtx, D.24355
	movq	-296(%rbp), %rax	# loop, tmp633
	movq	%rdx, %rsi	# D.24355,
	movq	%rax, %rdi	# tmp633,
	call	loop_call_insn_hoist	#
	movq	%rax, -208(%rbp)	# tmp634, i1
	.loc 1 2094 0
	movq	-240(%rbp), %rax	# p, tmp635
	movq	64(%rax), %rax	# p_19->fld[7].rtx, D.24355
	testq	%rax, %rax	# D.24355
	je	.L435	#,
	.loc 1 2096 0
	movq	-240(%rbp), %rax	# p, tmp636
	movq	64(%rax), %rax	# p_19->fld[7].rtx, D.24355
	movq	%rax, %rdi	# D.24355,
	call	copy_rtx	#
	movq	-208(%rbp), %rdx	# i1, tmp637
	movq	%rax, 64(%rdx)	# D.24355, i1_303->fld[7].rtx
	jmp	.L435	#
.L436:
	.loc 1 2098 0
	movq	-256(%rbp), %rax	# m, tmp638
	movl	32(%rax), %eax	# m_14->consec, D.24353
	cmpl	-288(%rbp), %eax	# count, D.24353
	jne	.L438	#,
	.loc 1 2098 0 is_stmt 0 discriminator 1
	movq	-256(%rbp), %rax	# m, tmp639
	movzbl	44(%rax), %eax	# *m_14, D.24356
	andl	$64, %eax	#, D.24356
	testb	%al, %al	# D.24356
	je	.L438	#,
.LBB24:
	.loc 1 2103 0 is_stmt 1
	call	start_sequence	#
	.loc 1 2104 0
	movq	-256(%rbp), %rax	# m, tmp640
	movq	8(%rax), %rdx	# m_14->set_src, D.24355
	movq	-256(%rbp), %rax	# m, tmp641
	movq	16(%rax), %rax	# m_14->set_dest, D.24355
	movq	%rdx, %rsi	# D.24355,
	movq	%rax, %rdi	# D.24355,
	call	emit_move_insn	#
	.loc 1 2105 0
	call	get_insns	#
	movq	%rax, -200(%rbp)	# tmp642, temp
	.loc 1 2106 0
	call	gen_sequence	#
	movq	%rax, -32(%rbp)	# tmp643, seq
	.loc 1 2107 0
	call	end_sequence	#
	.loc 1 2109 0
	movq	-256(%rbp), %rax	# m, tmp644
	movq	8(%rax), %rax	# m_14->set_src, D.24355
	movq	-200(%rbp), %rdx	# temp, tmp645
	movq	%rdx, %rsi	# tmp645,
	movq	%rax, %rdi	# D.24355,
	call	add_label_notes	#
	.loc 1 2111 0
	movq	-32(%rbp), %rdx	# seq, tmp646
	movq	-296(%rbp), %rax	# loop, tmp647
	movq	%rdx, %rsi	# tmp646,
	movq	%rax, %rdi	# tmp647,
	call	loop_insn_hoist	#
	movq	%rax, -208(%rbp)	# tmp648, i1
	.loc 1 2112 0
	movq	-208(%rbp), %rax	# i1, tmp649
	movl	$0, %edx	#,
	movl	$4, %esi	#,
	movq	%rax, %rdi	# tmp649,
	call	find_reg_note	#
	testq	%rax, %rax	# D.24355
	jne	.L439	#,
	.loc 1 2113 0
	movq	-256(%rbp), %rax	# m, tmp650
	movq	8(%rax), %rdx	# m_14->set_src, D.24355
	movq	-256(%rbp), %rax	# m, tmp651
	movzbl	44(%rax), %eax	# *m_14, D.24356
	andl	$-128, %eax	#, D.24356
	testb	%al, %al	# D.24356
	je	.L440	#,
	.loc 1 2113 0 is_stmt 0 discriminator 1
	movl	$3, %eax	#, iftmp.193
	jmp	.L441	#
.L440:
	.loc 1 2113 0 discriminator 2
	movl	$4, %eax	#, iftmp.193
.L441:
	.loc 1 2113 0 discriminator 3
	movq	-208(%rbp), %rcx	# i1, tmp652
	movl	%eax, %esi	# iftmp.193,
	movq	%rcx, %rdi	# tmp652,
	call	set_unique_reg_note	#
.LBE24:
	.loc 1 2099 0 is_stmt 1 discriminator 3
	jmp	.L435	#
.L439:
	.loc 1 2099 0 is_stmt 0
	jmp	.L435	#
.L438:
	.loc 1 2117 0 is_stmt 1
	movq	-240(%rbp), %rax	# p, tmp653
	movq	32(%rax), %rdx	# p_19->fld[3].rtx, D.24355
	movq	-296(%rbp), %rax	# loop, tmp654
	movq	%rdx, %rsi	# D.24355,
	movq	%rax, %rdi	# tmp654,
	call	loop_insn_hoist	#
	movq	%rax, -208(%rbp)	# tmp655, i1
.L435:
	.loc 1 2119 0
	movq	-208(%rbp), %rax	# i1, tmp656
	movq	56(%rax), %rax	# i1_33->fld[6].rtx, D.24355
	testq	%rax, %rax	# D.24355
	jne	.L442	#,
	.loc 1 2121 0
	movq	-240(%rbp), %rax	# p, tmp657
	movq	56(%rax), %rdx	# p_19->fld[6].rtx, D.24355
	movq	-208(%rbp), %rax	# i1, tmp658
	movq	%rdx, 56(%rax)	# D.24355, i1_33->fld[6].rtx
	.loc 1 2122 0
	movq	-240(%rbp), %rax	# p, tmp659
	movq	$0, 56(%rax)	#, p_19->fld[6].rtx
	.loc 1 2130 0
	movq	-208(%rbp), %rax	# i1, tmp660
	movl	$0, %edx	#,
	movl	$4, %esi	#,
	movq	%rax, %rdi	# tmp660,
	call	find_reg_note	#
	movq	%rax, -200(%rbp)	# tmp661, temp
	cmpq	$0, -200(%rbp)	#, temp
	je	.L442	#,
	.loc 1 2131 0
	movq	-200(%rbp), %rax	# temp, tmp662
	movq	8(%rax), %rdx	# temp_326->fld[0].rtx, D.24355
	movq	-296(%rbp), %rax	# loop, tmp663
	movq	%rdx, %rsi	# D.24355,
	movq	%rax, %rdi	# tmp663,
	call	loop_invariant_p	#
	testl	%eax, %eax	# D.24353
	jne	.L442	#,
	.loc 1 2132 0
	movq	-200(%rbp), %rdx	# temp, tmp664
	movq	-208(%rbp), %rax	# i1, tmp665
	movq	%rdx, %rsi	# tmp664,
	movq	%rax, %rdi	# tmp665,
	call	remove_note	#
.L442:
	.loc 1 2135 0
	cmpq	$0, -264(%rbp)	#, new_start
	jne	.L443	#,
	.loc 1 2136 0
	movq	-208(%rbp), %rax	# i1, tmp666
	movq	%rax, -264(%rbp)	# tmp666, new_start
.L443:
	.loc 1 2138 0
	movq	loop_dump_stream(%rip), %rax	# loop_dump_stream, loop_dump_stream.194
	testq	%rax, %rax	# loop_dump_stream.194
	je	.L444	#,
	.loc 1 2139 0
	movq	-208(%rbp), %rax	# i1, tmp667
	movl	8(%rax), %edx	# i1_33->fld[0].rtint, D.24353
	movq	loop_dump_stream(%rip), %rax	# loop_dump_stream, loop_dump_stream.195
	movl	$.LC15, %esi	#,
	movq	%rax, %rdi	# loop_dump_stream.195,
	movl	$0, %eax	#,
	call	fprintf	#
.L444:
	.loc 1 2145 0
	movq	-208(%rbp), %rax	# i1, tmp668
	movl	$0, %edx	#,
	movl	$6, %esi	#,
	movq	%rax, %rdi	# tmp668,
	call	find_reg_note	#
	movq	%rax, -200(%rbp)	# tmp669, temp
	cmpq	$0, -200(%rbp)	#, temp
	je	.L445	#,
	.loc 1 2147 0
	movq	-200(%rbp), %rax	# temp, tmp670
	movq	-224(%rbp), %rdx	# first, tmp671
	movq	%rdx, 8(%rax)	# tmp671, temp_333->fld[0].rtx
	.loc 1 2148 0
	movq	-224(%rbp), %rax	# first, tmp672
	movl	$0, %edx	#,
	movl	$7, %esi	#,
	movq	%rax, %rdi	# tmp672,
	call	find_reg_note	#
	movq	%rax, -200(%rbp)	# tmp673, temp
	.loc 1 2149 0
	movq	-200(%rbp), %rax	# temp, tmp674
	movq	-208(%rbp), %rdx	# i1, tmp675
	movq	%rdx, 8(%rax)	# tmp675, temp_334->fld[0].rtx
.L445:
	.loc 1 2152 0
	movq	-240(%rbp), %rax	# p, tmp676
	movq	%rax, -200(%rbp)	# tmp676, temp
	.loc 1 2153 0
	movq	-240(%rbp), %rax	# p, tmp677
	movq	%rax, %rdi	# tmp677,
	call	delete_insn	#
	.loc 1 2154 0
	movq	-240(%rbp), %rax	# p, tmp678
	movq	24(%rax), %rax	# p_19->fld[2].rtx, tmp679
	movq	%rax, -240(%rbp)	# tmp679, p
	.loc 1 2162 0
	jmp	.L446	#
.L448:
	.loc 1 2163 0
	movq	-240(%rbp), %rax	# p, tmp680
	movq	24(%rax), %rdx	# p_20->fld[2].rtx, D.24355
	movq	-200(%rbp), %rax	# temp, tmp681
	movq	%rdx, 24(%rax)	# D.24355, temp_335->fld[2].rtx
	movq	-200(%rbp), %rax	# temp, tmp682
	movq	24(%rax), %rax	# temp_335->fld[2].rtx, tmp683
	movq	%rax, -240(%rbp)	# tmp683, p
.L446:
	.loc 1 2162 0 discriminator 1
	cmpq	$0, -240(%rbp)	#, p
	je	.L447	#,
	.loc 1 2162 0 is_stmt 0 discriminator 2
	movq	-240(%rbp), %rax	# p, tmp684
	movzwl	(%rax), %eax	# p_20->code, D.24362
	cmpw	$37, %ax	#, D.24362
	je	.L448	#,
.L447:
.LBE20:
	.loc 1 1965 0 is_stmt 1
	subl	$1, -288(%rbp)	#, count
.L412:
	.loc 1 1965 0 is_stmt 0 discriminator 1
	cmpl	$0, -288(%rbp)	#, count
	jns	.L449	#,
	.loc 1 2167 0 is_stmt 1
	subl	$3, -308(%rbp)	#, threshold
.L397:
	.loc 1 2172 0
	movl	-268(%rbp), %eax	# regno, tmp685
	movslq	%eax, %rdx	# tmp685, D.24360
	movq	-128(%rbp), %rax	# already_moved, tmp686
	addq	%rdx, %rax	# D.24360, D.24361
	movb	$1, (%rax)	#, *_343
	.loc 1 2175 0
	movq	-160(%rbp), %rax	# regs, tmp687
	movq	8(%rax), %rcx	# regs_72->array, D.24358
	movl	-268(%rbp), %eax	# regno, tmp688
	movslq	%eax, %rdx	# tmp688, D.24351
	movq	%rdx, %rax	# D.24351, tmp689
	addq	%rax, %rax	# tmp689
	addq	%rdx, %rax	# D.24351, tmp689
	salq	$3, %rax	#, tmp690
	addq	%rcx, %rax	# D.24358, D.24358
	movb	$1, 17(%rax)	#, _347->moved_once
	.loc 1 2178 0
	movq	-256(%rbp), %rax	# m, tmp691
	movzbl	44(%rax), %eax	# *m_14, D.24356
	andl	$16, %eax	#, D.24356
	testb	%al, %al	# D.24356
	jne	.L450	#,
.LBB25:
	.loc 1 2181 0
	movl	$0, -284(%rbp)	#, i
	jmp	.L451	#
.L475:
	.loc 1 2182 0 discriminator 2
	movq	-160(%rbp), %rax	# regs, tmp692
	movq	8(%rax), %rcx	# regs_72->array, D.24358
	movl	-284(%rbp), %eax	# i, tmp693
	movl	-268(%rbp), %edx	# regno, tmp694
	addl	%edx, %eax	# tmp694, D.24353
	movslq	%eax, %rdx	# D.24353, D.24351
	movq	%rdx, %rax	# D.24351, tmp695
	addq	%rax, %rax	# tmp695
	addq	%rdx, %rax	# D.24351, tmp695
	salq	$3, %rax	#, tmp696
	addq	%rcx, %rax	# D.24358, D.24358
	movl	$0, (%rax)	#, _400->set_in_loop
	.loc 1 2181 0 discriminator 2
	addl	$1, -284(%rbp)	#, i
.L451:
	.loc 1 2181 0 is_stmt 0 discriminator 1
	cmpl	$52, -268(%rbp)	#, regno
	jg	.L452	#,
	cmpl	$7, -268(%rbp)	#, regno
	jle	.L453	#,
	cmpl	$15, -268(%rbp)	#, regno
	jle	.L454	#,
.L453:
	.loc 1 2181 0 discriminator 2
	cmpl	$20, -268(%rbp)	#, regno
	jle	.L455	#,
	.loc 1 2181 0 discriminator 1
	cmpl	$28, -268(%rbp)	#, regno
	jle	.L454	#,
.L455:
	.loc 1 2181 0 discriminator 2
	cmpl	$44, -268(%rbp)	#, regno
	jle	.L456	#,
	.loc 1 2181 0 discriminator 1
	cmpl	$52, -268(%rbp)	#, regno
	jle	.L454	#,
.L456:
	.loc 1 2181 0 discriminator 2
	cmpl	$28, -268(%rbp)	#, regno
	jle	.L457	#,
	.loc 1 2181 0 discriminator 1
	cmpl	$36, -268(%rbp)	#, regno
	jg	.L457	#,
.L454:
	movq	-256(%rbp), %rax	# m, tmp697
	movq	16(%rax), %rax	# m_14->set_dest, D.24355
	movzbl	2(%rax), %eax	# _383->mode, D.24356
	movzbl	%al, %eax	# D.24356, D.24353
	cltq
	movl	mode_class(,%rax,4), %eax	# mode_class, D.24365
	cmpl	$5, %eax	#, D.24365
	je	.L458	#,
	.loc 1 2181 0 discriminator 2
	movq	-256(%rbp), %rax	# m, tmp699
	movq	16(%rax), %rax	# m_14->set_dest, D.24355
	movzbl	2(%rax), %eax	# _387->mode, D.24356
	movzbl	%al, %eax	# D.24356, D.24353
	cltq
	movl	mode_class(,%rax,4), %eax	# mode_class, D.24365
	cmpl	$6, %eax	#, D.24365
	jne	.L459	#,
.L458:
	.loc 1 2181 0 discriminator 1
	movl	$2, %eax	#, iftmp.198
	jmp	.L460	#
.L459:
	movl	$1, %eax	#, iftmp.198
.L460:
	.loc 1 2181 0 discriminator 3
	jmp	.L461	#
.L457:
	.loc 1 2181 0 discriminator 2
	movq	-256(%rbp), %rax	# m, tmp701
	movq	16(%rax), %rax	# m_14->set_dest, D.24355
	movzbl	2(%rax), %eax	# _351->mode, D.24356
	cmpb	$18, %al	#, D.24356
	jne	.L462	#,
	.loc 1 2181 0 discriminator 1
	movl	target_flags(%rip), %eax	# target_flags, target_flags.201
	andl	$33554432, %eax	#, D.24353
	testl	%eax, %eax	# D.24353
	je	.L463	#,
	movl	$2, %eax	#, iftmp.200
	jmp	.L474	#
.L463:
	.loc 1 2181 0 discriminator 2
	movl	$3, %eax	#, iftmp.200
	jmp	.L474	#
.L462:
	movq	-256(%rbp), %rax	# m, tmp702
	movq	16(%rax), %rax	# m_14->set_dest, D.24355
	movzbl	2(%rax), %eax	# _358->mode, D.24356
	cmpb	$24, %al	#, D.24356
	jne	.L466	#,
	.loc 1 2181 0 discriminator 1
	movl	target_flags(%rip), %eax	# target_flags, target_flags.204
	andl	$33554432, %eax	#, D.24353
	testl	%eax, %eax	# D.24353
	je	.L467	#,
	movl	$4, %eax	#, iftmp.203
	jmp	.L474	#
.L467:
	.loc 1 2181 0 discriminator 2
	movl	$6, %eax	#, iftmp.203
	jmp	.L474	#
.L466:
	movq	-256(%rbp), %rax	# m, tmp703
	movq	16(%rax), %rax	# m_14->set_dest, D.24355
	movzbl	2(%rax), %eax	# _365->mode, D.24356
	movzbl	%al, %eax	# D.24356, D.24353
	cltq
	movzbl	mode_size(%rax), %eax	# mode_size, D.24356
	movzbl	%al, %edx	# D.24356, D.24353
	movl	target_flags(%rip), %eax	# target_flags, target_flags.206
	andl	$33554432, %eax	#, D.24353
	testl	%eax, %eax	# D.24353
	je	.L470	#,
	.loc 1 2181 0 discriminator 1
	movl	$8, %eax	#, iftmp.205
	jmp	.L471	#
.L470:
	.loc 1 2181 0 discriminator 2
	movl	$4, %eax	#, iftmp.205
.L471:
	.loc 1 2181 0 discriminator 3
	addl	%edx, %eax	# D.24353, D.24353
	subl	$1, %eax	#, D.24353
	movl	target_flags(%rip), %edx	# target_flags, target_flags.208
	andl	$33554432, %edx	#, D.24353
	testl	%edx, %edx	# D.24353
	je	.L472	#,
	.loc 1 2181 0 discriminator 1
	movl	$8, %ebx	#, iftmp.207
	jmp	.L473	#
.L472:
	.loc 1 2181 0 discriminator 2
	movl	$4, %ebx	#, iftmp.207
.L473:
	.loc 1 2181 0 discriminator 3
	cltd
	idivl	%ebx	# iftmp.207
.L461:
	jmp	.L474	#
.L452:
	.loc 1 2181 0 discriminator 2
	movl	$1, %eax	#, iftmp.196
.L474:
	.loc 1 2181 0 discriminator 3
	cmpl	-284(%rbp), %eax	# i, iftmp.196
	jg	.L475	#,
.L450:
.LBE25:
	.loc 1 2185 0 is_stmt 1
	movq	-256(%rbp), %rax	# m, tmp707
	movzbl	44(%rax), %edx	# m_14->done, tmp710
	orl	$8, %edx	#, tmp711
	movb	%dl, 44(%rax)	# tmp711, m_14->done
	.loc 1 2191 0
	movq	uid_luid(%rip), %rdx	# uid_luid, uid_luid.209
	movq	reg_n_info(%rip), %rax	# reg_n_info, reg_n_info.210
	movl	-268(%rbp), %ecx	# regno, tmp713
	movslq	%ecx, %rcx	# tmp713, tmp712
	addq	$4, %rcx	#, tmp714
	movq	(%rax,%rcx,8), %rax	# reg_n_info.210_403->data.reg, D.24366
	movl	(%rax), %eax	# _404->first_uid, D.24353
	cltq
	salq	$2, %rax	#, D.24351
	addq	%rdx, %rax	# uid_luid.209, D.24367
	movl	(%rax), %edx	# *_408, D.24353
	movq	-152(%rbp), %rax	# loop_start, tmp715
	movl	8(%rax), %ecx	# loop_start_75->fld[0].rtint, D.24353
	movl	max_uid_for_loop(%rip), %eax	# max_uid_for_loop, max_uid_for_loop.212
	cmpl	%eax, %ecx	# max_uid_for_loop.212, D.24353
	jge	.L476	#,
	.loc 1 2191 0 is_stmt 0 discriminator 1
	movq	uid_luid(%rip), %rcx	# uid_luid, uid_luid.213
	movq	-152(%rbp), %rax	# loop_start, tmp716
	movl	8(%rax), %eax	# loop_start_75->fld[0].rtint, D.24353
	cltq
	salq	$2, %rax	#, D.24351
	addq	%rcx, %rax	# uid_luid.213, D.24367
	movl	(%rax), %eax	# *_416, iftmp.211
	cmpl	%eax, %edx	# iftmp.211, D.24353
	jle	.L478	#,
	jmp	.L524	#
.L476:
	.loc 1 2191 0 discriminator 2
	movl	$__FUNCTION__.12910, %edx	#,
	movl	$2191, %esi	#,
	movl	$.LC0, %edi	#,
	call	fancy_abort	#
.L524:
	.loc 1 2195 0 is_stmt 1
	movq	reg_n_info(%rip), %rax	# reg_n_info, reg_n_info.214
	movl	-268(%rbp), %edx	# regno, tmp718
	movslq	%edx, %rdx	# tmp718, tmp717
	addq	$4, %rdx	#, tmp719
	movq	(%rax,%rdx,8), %rax	# reg_n_info.214_418->data.reg, D.24366
	movq	-152(%rbp), %rdx	# loop_start, tmp720
	movl	8(%rdx), %edx	# loop_start_75->fld[0].rtint, D.24353
	movl	%edx, (%rax)	# D.24353, _419->first_uid
.L478:
	.loc 1 2196 0
	movq	uid_luid(%rip), %rdx	# uid_luid, uid_luid.215
	movq	reg_n_info(%rip), %rax	# reg_n_info, reg_n_info.216
	movl	-268(%rbp), %ecx	# regno, tmp722
	movslq	%ecx, %rcx	# tmp722, tmp721
	addq	$4, %rcx	#, tmp723
	movq	(%rax,%rcx,8), %rax	# reg_n_info.216_422->data.reg, D.24366
	movl	4(%rax), %eax	# _423->last_uid, D.24353
	cltq
	salq	$2, %rax	#, D.24351
	addq	%rdx, %rax	# uid_luid.215, D.24367
	movl	(%rax), %edx	# *_427, D.24353
	movq	-144(%rbp), %rax	# loop_end, tmp724
	movl	8(%rax), %ecx	# loop_end_76->fld[0].rtint, D.24353
	movl	max_uid_for_loop(%rip), %eax	# max_uid_for_loop, max_uid_for_loop.218
	cmpl	%eax, %ecx	# max_uid_for_loop.218, D.24353
	jge	.L479	#,
	.loc 1 2196 0 is_stmt 0 discriminator 1
	movq	uid_luid(%rip), %rcx	# uid_luid, uid_luid.219
	movq	-144(%rbp), %rax	# loop_end, tmp725
	movl	8(%rax), %eax	# loop_end_76->fld[0].rtint, D.24353
	cltq
	salq	$2, %rax	#, D.24351
	addq	%rcx, %rax	# uid_luid.219, D.24367
	movl	(%rax), %eax	# *_435, iftmp.217
	cmpl	%eax, %edx	# iftmp.217, D.24353
	jge	.L481	#,
	jmp	.L525	#
.L479:
	.loc 1 2196 0 discriminator 2
	movl	$__FUNCTION__.12910, %edx	#,
	movl	$2196, %esi	#,
	movl	$.LC0, %edi	#,
	call	fancy_abort	#
.L525:
	.loc 1 2197 0 is_stmt 1
	movq	reg_n_info(%rip), %rax	# reg_n_info, reg_n_info.220
	movl	-268(%rbp), %edx	# regno, tmp727
	movslq	%edx, %rdx	# tmp727, tmp726
	addq	$4, %rdx	#, tmp728
	movq	(%rax,%rdx,8), %rax	# reg_n_info.220_437->data.reg, D.24366
	movq	-144(%rbp), %rdx	# loop_end, tmp729
	movl	8(%rdx), %edx	# loop_end_76->fld[0].rtint, D.24353
	movl	%edx, 4(%rax)	# D.24353, _438->last_uid
.L481:
	.loc 1 2201 0
	movq	-256(%rbp), %rax	# m, tmp730
	movzbl	44(%rax), %eax	# *m_14, D.24356
	andl	$16, %eax	#, D.24356
	testb	%al, %al	# D.24356
	jne	.L482	#,
	.loc 1 2202 0
	movq	-304(%rbp), %rax	# movables, tmp731
	movq	(%rax), %rax	# movables_81(D)->head, tmp732
	movq	%rax, -232(%rbp)	# tmp732, m1
	jmp	.L483	#
.L514:
	.loc 1 2203 0
	movq	-232(%rbp), %rax	# m1, tmp733
	movq	56(%rax), %rax	# m1_25->match, D.24357
	cmpq	-256(%rbp), %rax	# m, D.24357
	jne	.L484	#,
.LBB26:
	.loc 1 2218 0
	movq	-256(%rbp), %rax	# m, tmp734
	movq	16(%rax), %rax	# m_14->set_dest, D.24355
	movzbl	2(%rax), %edx	# _444->mode, D.24356
	movq	-232(%rbp), %rax	# m1, tmp735
	movq	16(%rax), %rax	# m1_25->set_dest, D.24355
	movzbl	2(%rax), %eax	# _446->mode, D.24356
	cmpb	%al, %dl	# D.24356, D.24356
	jne	.L485	#,
	.loc 1 2219 0
	movq	-232(%rbp), %rax	# m1, tmp736
	movl	36(%rax), %eax	# m1_25->regno, D.24354
	movl	%eax, %eax	# D.24354, D.24351
	leaq	0(,%rax,8), %rdx	#, D.24351
	movq	-136(%rbp), %rax	# reg_map, tmp737
	addq	%rax, %rdx	# tmp737, D.24368
	movq	-256(%rbp), %rax	# m, tmp738
	movq	16(%rax), %rax	# m_14->set_dest, D.24355
	movq	%rax, (%rdx)	# D.24355, *_451
	jmp	.L486	#
.L485:
	.loc 1 2221 0
	movq	-232(%rbp), %rax	# m1, tmp739
	movl	36(%rax), %eax	# m1_25->regno, D.24354
	movl	%eax, %eax	# D.24354, D.24351
	leaq	0(,%rax,8), %rdx	#, D.24351
	movq	-136(%rbp), %rax	# reg_map, tmp740
	leaq	(%rdx,%rax), %rbx	#, D.24368
	.loc 1 2222 0
	movq	-256(%rbp), %rax	# m, tmp741
	movq	16(%rax), %rdx	# m_14->set_dest, D.24355
	movq	-232(%rbp), %rax	# m1, tmp742
	movq	16(%rax), %rax	# m1_25->set_dest, D.24355
	movzbl	2(%rax), %eax	# _458->mode, D.24356
	movzbl	%al, %eax	# D.24356, D.24363
	movq	%rdx, %rsi	# D.24355,
	movl	%eax, %edi	# D.24363,
	call	gen_lowpart_common	#
	movq	%rax, (%rbx)	# D.24355, *_456
.L486:
	.loc 1 2227 0
	movq	-232(%rbp), %rax	# m1, tmp743
	movzbl	44(%rax), %edx	# m1_25->done, tmp746
	orl	$8, %edx	#, tmp747
	movb	%dl, 44(%rax)	# tmp747, m1_25->done
	.loc 1 2230 0
	movq	-232(%rbp), %rax	# m1, tmp748
	movq	(%rax), %rax	# m1_25->insn, D.24355
	movl	$0, %edx	#,
	movl	$6, %esi	#,
	movq	%rax, %rdi	# D.24355,
	call	find_reg_note	#
	movq	%rax, -24(%rbp)	# tmp749, temp
	cmpq	$0, -24(%rbp)	#, temp
	je	.L487	#,
	.loc 1 2232 0
	movq	-232(%rbp), %rax	# m1, tmp750
	movq	(%rax), %rdx	# m1_25->insn, D.24355
	movq	-24(%rbp), %rax	# temp, tmp751
	movq	8(%rax), %rax	# temp_463->fld[0].rtx, D.24355
	movq	%rdx, %rsi	# D.24355,
	movq	%rax, %rdi	# D.24355,
	call	delete_insn_chain	#
	jmp	.L488	#
.L487:
	.loc 1 2234 0
	movq	-232(%rbp), %rax	# m1, tmp752
	movq	(%rax), %rax	# m1_25->insn, D.24355
	movq	%rax, %rdi	# D.24355,
	call	delete_insn	#
.L488:
	.loc 1 2238 0
	movq	-232(%rbp), %rax	# m1, tmp753
	movl	36(%rax), %eax	# m1_25->regno, D.24354
	movl	%eax, %edx	# D.24354, D.24360
	movq	-128(%rbp), %rax	# already_moved, tmp754
	addq	%rdx, %rax	# D.24360, D.24361
	movb	$1, (%rax)	#, *_469
	.loc 1 2242 0
	movq	-256(%rbp), %rax	# m, tmp755
	movzbl	44(%rax), %eax	# *m_14, D.24356
	andl	$16, %eax	#, D.24356
	testb	%al, %al	# D.24356
	jne	.L484	#,
.LBB27:
	.loc 1 2245 0
	movl	$0, -280(%rbp)	#, i
	jmp	.L489	#
.L513:
	.loc 1 2248 0
	movq	-160(%rbp), %rax	# regs, tmp756
	movq	8(%rax), %rcx	# regs_72->array, D.24358
	movq	-232(%rbp), %rax	# m1, tmp757
	movl	36(%rax), %edx	# m1_25->regno, D.24354
	movl	-280(%rbp), %eax	# i, i.221
	addl	%edx, %eax	# D.24354, D.24354
	movl	%eax, %edx	# D.24354, D.24351
	movq	%rdx, %rax	# D.24351, tmp758
	addq	%rax, %rax	# tmp758
	addq	%rdx, %rax	# D.24351, tmp758
	salq	$3, %rax	#, tmp759
	addq	%rcx, %rax	# D.24358, D.24358
	movl	$0, (%rax)	#, _524->set_in_loop
	.loc 1 2247 0
	addl	$1, -280(%rbp)	#, i
.L489:
	.loc 1 2246 0
	cmpl	$52, -268(%rbp)	#, regno
	jg	.L490	#,
	.loc 1 2246 0 is_stmt 0 discriminator 1
	cmpl	$7, -268(%rbp)	#, regno
	jle	.L491	#,
	cmpl	$15, -268(%rbp)	#, regno
	jle	.L492	#,
.L491:
	.loc 1 2246 0 discriminator 2
	cmpl	$20, -268(%rbp)	#, regno
	jle	.L493	#,
	.loc 1 2246 0 discriminator 1
	cmpl	$28, -268(%rbp)	#, regno
	jle	.L492	#,
.L493:
	.loc 1 2246 0 discriminator 2
	cmpl	$44, -268(%rbp)	#, regno
	jle	.L494	#,
	.loc 1 2246 0 discriminator 1
	cmpl	$52, -268(%rbp)	#, regno
	jle	.L492	#,
.L494:
	.loc 1 2246 0 discriminator 2
	cmpl	$28, -268(%rbp)	#, regno
	jle	.L495	#,
	.loc 1 2246 0 discriminator 1
	cmpl	$36, -268(%rbp)	#, regno
	jg	.L495	#,
.L492:
	movq	-232(%rbp), %rax	# m1, tmp760
	movq	16(%rax), %rax	# m1_25->set_dest, D.24355
	movzbl	2(%rax), %eax	# _505->mode, D.24356
	movzbl	%al, %eax	# D.24356, D.24353
	cltq
	movl	mode_class(,%rax,4), %eax	# mode_class, D.24365
	cmpl	$5, %eax	#, D.24365
	je	.L496	#,
	.loc 1 2246 0 discriminator 2
	movq	-232(%rbp), %rax	# m1, tmp762
	movq	16(%rax), %rax	# m1_25->set_dest, D.24355
	movzbl	2(%rax), %eax	# _509->mode, D.24356
	movzbl	%al, %eax	# D.24356, D.24353
	cltq
	movl	mode_class(,%rax,4), %eax	# mode_class, D.24365
	cmpl	$6, %eax	#, D.24365
	jne	.L497	#,
.L496:
	.loc 1 2246 0 discriminator 1
	movl	$2, %eax	#, iftmp.224
	jmp	.L498	#
.L497:
	movl	$1, %eax	#, iftmp.224
.L498:
	.loc 1 2246 0 discriminator 3
	jmp	.L499	#
.L495:
	.loc 1 2246 0 discriminator 2
	movq	-232(%rbp), %rax	# m1, tmp764
	movq	16(%rax), %rax	# m1_25->set_dest, D.24355
	movzbl	2(%rax), %eax	# _473->mode, D.24356
	cmpb	$18, %al	#, D.24356
	jne	.L500	#,
	.loc 1 2246 0 discriminator 1
	movl	target_flags(%rip), %eax	# target_flags, target_flags.227
	andl	$33554432, %eax	#, D.24353
	testl	%eax, %eax	# D.24353
	je	.L501	#,
	movl	$2, %eax	#, iftmp.226
	jmp	.L512	#
.L501:
	.loc 1 2246 0 discriminator 2
	movl	$3, %eax	#, iftmp.226
	jmp	.L512	#
.L500:
	movq	-232(%rbp), %rax	# m1, tmp765
	movq	16(%rax), %rax	# m1_25->set_dest, D.24355
	movzbl	2(%rax), %eax	# _480->mode, D.24356
	cmpb	$24, %al	#, D.24356
	jne	.L504	#,
	.loc 1 2246 0 discriminator 1
	movl	target_flags(%rip), %eax	# target_flags, target_flags.230
	andl	$33554432, %eax	#, D.24353
	testl	%eax, %eax	# D.24353
	je	.L505	#,
	movl	$4, %eax	#, iftmp.229
	jmp	.L512	#
.L505:
	.loc 1 2246 0 discriminator 2
	movl	$6, %eax	#, iftmp.229
	jmp	.L512	#
.L504:
	movq	-232(%rbp), %rax	# m1, tmp766
	movq	16(%rax), %rax	# m1_25->set_dest, D.24355
	movzbl	2(%rax), %eax	# _487->mode, D.24356
	movzbl	%al, %eax	# D.24356, D.24353
	cltq
	movzbl	mode_size(%rax), %eax	# mode_size, D.24356
	movzbl	%al, %edx	# D.24356, D.24353
	movl	target_flags(%rip), %eax	# target_flags, target_flags.232
	andl	$33554432, %eax	#, D.24353
	testl	%eax, %eax	# D.24353
	je	.L508	#,
	.loc 1 2246 0 discriminator 1
	movl	$8, %eax	#, iftmp.231
	jmp	.L509	#
.L508:
	.loc 1 2246 0 discriminator 2
	movl	$4, %eax	#, iftmp.231
.L509:
	.loc 1 2246 0 discriminator 3
	addl	%edx, %eax	# D.24353, D.24353
	subl	$1, %eax	#, D.24353
	movl	target_flags(%rip), %edx	# target_flags, target_flags.234
	andl	$33554432, %edx	#, D.24353
	testl	%edx, %edx	# D.24353
	je	.L510	#,
	.loc 1 2246 0 discriminator 1
	movl	$8, %ebx	#, iftmp.233
	jmp	.L511	#
.L510:
	.loc 1 2246 0 discriminator 2
	movl	$4, %ebx	#, iftmp.233
.L511:
	.loc 1 2246 0 discriminator 3
	cltd
	idivl	%ebx	# iftmp.233
.L499:
	jmp	.L512	#
.L490:
	.loc 1 2246 0 discriminator 2
	movl	$1, %eax	#, iftmp.222
.L512:
	.loc 1 2245 0 is_stmt 1
	cmpl	-280(%rbp), %eax	# i, iftmp.222
	jg	.L513	#,
.L484:
.LBE27:
.LBE26:
	.loc 1 2202 0
	movq	-232(%rbp), %rax	# m1, tmp770
	movq	72(%rax), %rax	# m1_25->next, tmp771
	movq	%rax, -232(%rbp)	# tmp771, m1
.L483:
	.loc 1 2202 0 is_stmt 0 discriminator 1
	cmpq	$0, -232(%rbp)	#, m1
	jne	.L514	#,
.L482:
.LBE17:
	.loc 1 1867 0 is_stmt 1
	jmp	.L515	#
.L391:
	.loc 1 2252 0
	movq	loop_dump_stream(%rip), %rax	# loop_dump_stream, loop_dump_stream.235
	testq	%rax, %rax	# loop_dump_stream.235
	je	.L515	#,
	.loc 1 2253 0
	movq	loop_dump_stream(%rip), %rax	# loop_dump_stream, loop_dump_stream.236
	movq	%rax, %rcx	# loop_dump_stream.236,
	movl	$13, %edx	#,
	movl	$1, %esi	#,
	movl	$.LC16, %edi	#,
	call	fwrite	#
.LBE16:
	.loc 1 1831 0
	jmp	.L516	#
.L515:
	jmp	.L516	#
.L382:
	.loc 1 2255 0
	movq	loop_dump_stream(%rip), %rax	# loop_dump_stream, loop_dump_stream.237
	testq	%rax, %rax	# loop_dump_stream.237
	je	.L516	#,
	.loc 1 2255 0 is_stmt 0 discriminator 1
	movq	-256(%rbp), %rax	# m, tmp772
	movq	56(%rax), %rax	# m_14->match, D.24357
	testq	%rax, %rax	# D.24357
	jne	.L516	#,
	.loc 1 2256 0 is_stmt 1
	movq	loop_dump_stream(%rip), %rax	# loop_dump_stream, loop_dump_stream.238
	movq	%rax, %rcx	# loop_dump_stream.238,
	movl	$8, %edx	#,
	movl	$1, %esi	#,
	movl	$.LC17, %edi	#,
	call	fwrite	#
.L516:
	.loc 1 2258 0
	movq	loop_dump_stream(%rip), %rax	# loop_dump_stream, loop_dump_stream.239
	testq	%rax, %rax	# loop_dump_stream.239
	je	.L517	#,
	.loc 1 2259 0
	movq	loop_dump_stream(%rip), %rax	# loop_dump_stream, loop_dump_stream.240
	movq	%rax, %rsi	# loop_dump_stream.240,
	movl	$10, %edi	#,
	call	fputc	#
.L517:
	.loc 1 1790 0
	movq	-256(%rbp), %rax	# m, tmp773
	movq	72(%rax), %rax	# m_14->next, tmp774
	movq	%rax, -256(%rbp)	# tmp774, m
.L373:
	.loc 1 1790 0 is_stmt 0 discriminator 1
	cmpq	$0, -256(%rbp)	#, m
	jne	.L518	#,
	.loc 1 2262 0 is_stmt 1
	cmpq	$0, -264(%rbp)	#, new_start
	jne	.L519	#,
	.loc 1 2263 0
	movq	-152(%rbp), %rax	# loop_start, tmp775
	movq	%rax, -264(%rbp)	# tmp775, new_start
.L519:
	.loc 1 2267 0
	movq	-264(%rbp), %rax	# new_start, tmp776
	movq	%rax, -248(%rbp)	# tmp776, p
	jmp	.L520	#
.L523:
	.loc 1 2268 0
	movq	-248(%rbp), %rax	# p, tmp777
	movzwl	(%rax), %eax	# p_15->code, D.24362
	cmpw	$32, %ax	#, D.24362
	je	.L521	#,
	.loc 1 2268 0 is_stmt 0 discriminator 1
	movq	-248(%rbp), %rax	# p, tmp778
	movzwl	(%rax), %eax	# p_15->code, D.24362
	cmpw	$33, %ax	#, D.24362
	je	.L521	#,
	.loc 1 2269 0 is_stmt 1
	movq	-248(%rbp), %rax	# p, tmp779
	movzwl	(%rax), %eax	# p_15->code, D.24362
	cmpw	$34, %ax	#, D.24362
	jne	.L522	#,
.L521:
	.loc 1 2271 0
	movl	-276(%rbp), %edx	# nregs, nregs.241
	movq	-248(%rbp), %rax	# p, tmp780
	movq	32(%rax), %rax	# p_15->fld[3].rtx, D.24355
	movq	-136(%rbp), %rsi	# reg_map, tmp781
	movl	$0, %ecx	#,
	movq	%rax, %rdi	# D.24355,
	call	replace_regs	#
	.loc 1 2272 0
	movl	-276(%rbp), %edx	# nregs, nregs.242
	movq	-248(%rbp), %rax	# p, tmp782
	movq	56(%rax), %rax	# p_15->fld[6].rtx, D.24355
	movq	-136(%rbp), %rsi	# reg_map, tmp783
	movl	$0, %ecx	#,
	movq	%rax, %rdi	# D.24355,
	call	replace_regs	#
	.loc 1 2273 0
	movq	-248(%rbp), %rax	# p, tmp784
	movl	$-1, 40(%rax)	#, p_15->fld[4].rtint
.L522:
	.loc 1 2267 0
	movq	-248(%rbp), %rax	# p, tmp785
	movq	24(%rax), %rax	# p_15->fld[2].rtx, tmp786
	movq	%rax, -248(%rbp)	# tmp786, p
.L520:
	.loc 1 2267 0 is_stmt 0 discriminator 1
	movq	-248(%rbp), %rax	# p, tmp787
	cmpq	-144(%rbp), %rax	# loop_end, tmp787
	jne	.L523	#,
	.loc 1 2277 0 is_stmt 1
	movq	-136(%rbp), %rax	# reg_map, tmp788
	movq	%rax, %rdi	# tmp788,
	call	free	#
	.loc 1 2278 0
	movq	-128(%rbp), %rax	# already_moved, tmp789
	movq	%rax, %rdi	# tmp789,
	call	free	#
	.loc 1 2279 0
	addq	$312, %rsp	#,
	popq	%rbx	#
	popq	%rbp	#
	.cfi_def_cfa 7, 8
	ret
	.cfi_endproc
.LFE19:
	.size	move_movables, .-move_movables
	.type	loop_movables_add, @function
loop_movables_add:
.LFB20:
	.loc 1 2286 0
	.cfi_startproc
	pushq	%rbp	#
	.cfi_def_cfa_offset 16
	.cfi_offset 6, -16
	movq	%rsp, %rbp	#,
	.cfi_def_cfa_register 6
	movq	%rdi, -8(%rbp)	# movables, movables
	movq	%rsi, -16(%rbp)	# m, m
	.loc 1 2287 0
	movq	-8(%rbp), %rax	# movables, tmp61
	movq	(%rax), %rax	# movables_1(D)->head, D.24383
	testq	%rax, %rax	# D.24383
	jne	.L527	#,
	.loc 1 2288 0
	movq	-8(%rbp), %rax	# movables, tmp62
	movq	-16(%rbp), %rdx	# m, tmp63
	movq	%rdx, (%rax)	# tmp63, movables_1(D)->head
	jmp	.L528	#
.L527:
	.loc 1 2290 0
	movq	-8(%rbp), %rax	# movables, tmp64
	movq	8(%rax), %rax	# movables_1(D)->last, D.24383
	movq	-16(%rbp), %rdx	# m, tmp65
	movq	%rdx, 72(%rax)	# tmp65, _4->next
.L528:
	.loc 1 2291 0
	movq	-8(%rbp), %rax	# movables, tmp66
	movq	-16(%rbp), %rdx	# m, tmp67
	movq	%rdx, 8(%rax)	# tmp67, movables_1(D)->last
	.loc 1 2292 0
	popq	%rbp	#
	.cfi_def_cfa 7, 8
	ret
	.cfi_endproc
.LFE20:
	.size	loop_movables_add, .-loop_movables_add
	.type	loop_movables_free, @function
loop_movables_free:
.LFB21:
	.loc 1 2298 0
	.cfi_startproc
	pushq	%rbp	#
	.cfi_def_cfa_offset 16
	.cfi_offset 6, -16
	movq	%rsp, %rbp	#,
	.cfi_def_cfa_register 6
	subq	$32, %rsp	#,
	movq	%rdi, -24(%rbp)	# movables, movables
	.loc 1 2302 0
	movq	-24(%rbp), %rax	# movables, tmp59
	movq	(%rax), %rax	# movables_2(D)->head, tmp60
	movq	%rax, -16(%rbp)	# tmp60, m
	jmp	.L530	#
.L531:
	.loc 1 2304 0 discriminator 2
	movq	-16(%rbp), %rax	# m, tmp61
	movq	72(%rax), %rax	# m_1->next, tmp62
	movq	%rax, -8(%rbp)	# tmp62, m_next
	.loc 1 2305 0 discriminator 2
	movq	-16(%rbp), %rax	# m, tmp63
	movq	%rax, %rdi	# tmp63,
	call	free	#
	.loc 1 2302 0 discriminator 2
	movq	-8(%rbp), %rax	# m_next, tmp64
	movq	%rax, -16(%rbp)	# tmp64, m
.L530:
	.loc 1 2302 0 is_stmt 0 discriminator 1
	cmpq	$0, -16(%rbp)	#, m
	jne	.L531	#,
	.loc 1 2307 0 is_stmt 1
	leave
	.cfi_def_cfa 7, 8
	ret
	.cfi_endproc
.LFE21:
	.size	loop_movables_free, .-loop_movables_free
	.type	count_nonfixed_reads, @function
count_nonfixed_reads:
.LFB22:
	.loc 1 2380 0
	.cfi_startproc
	pushq	%rbp	#
	.cfi_def_cfa_offset 16
	.cfi_offset 6, -16
	movq	%rsp, %rbp	#,
	.cfi_def_cfa_register 6
	pushq	%rbx	#
	subq	$56, %rsp	#,
	.cfi_offset 3, -24
	movq	%rdi, -56(%rbp)	# loop, loop
	movq	%rsi, -64(%rbp)	# x, x
	.loc 1 2386 0
	cmpq	$0, -64(%rbp)	#, x
	jne	.L533	#,
	.loc 1 2387 0
	movl	$0, %eax	#, D.24384
	jmp	.L534	#
.L533:
	.loc 1 2389 0
	movq	-64(%rbp), %rax	# x, tmp85
	movzwl	(%rax), %eax	# x_8(D)->code, D.24385
	movzwl	%ax, %eax	# D.24385, tmp86
	movl	%eax, -28(%rbp)	# tmp86, code
	.loc 1 2390 0
	movl	-28(%rbp), %eax	# code, tmp88
	subl	$54, %eax	#, tmp87
	cmpl	$15, %eax	#, tmp87
	ja	.L546	#,
	movl	%eax, %eax	# tmp87, tmp89
	movq	.L537(,%rax,8), %rax	#, tmp90
	jmp	*%rax	# tmp90
	.section	.rodata
	.align 8
	.align 4
.L537:
	.quad	.L536
	.quad	.L536
	.quad	.L546
	.quad	.L546
	.quad	.L536
	.quad	.L536
	.quad	.L546
	.quad	.L536
	.quad	.L546
	.quad	.L546
	.quad	.L546
	.quad	.L546
	.quad	.L538
	.quad	.L536
	.quad	.L536
	.quad	.L536
	.text
.L536:
	.loc 1 2400 0
	movl	$0, %eax	#, D.24384
	jmp	.L534	#
.L538:
	.loc 1 2403 0
	movq	-64(%rbp), %rax	# x, tmp91
	movq	8(%rax), %rdx	# x_8(D)->fld[0].rtx, D.24386
	movq	-56(%rbp), %rax	# loop, tmp92
	movq	%rdx, %rsi	# D.24386,
	movq	%rax, %rdi	# tmp92,
	call	loop_invariant_p	#
	cmpl	$1, %eax	#, D.24384
	setne	%al	#, D.24387
	movzbl	%al, %ebx	# D.24387, D.24384
	.loc 1 2404 0
	movq	-64(%rbp), %rax	# x, tmp93
	movq	8(%rax), %rdx	# x_8(D)->fld[0].rtx, D.24386
	movq	-56(%rbp), %rax	# loop, tmp94
	movq	%rdx, %rsi	# D.24386,
	movq	%rax, %rdi	# tmp94,
	call	count_nonfixed_reads	#
	.loc 1 2403 0
	addl	%ebx, %eax	# D.24384, D.24384
	jmp	.L534	#
.L546:
	.loc 1 2407 0
	nop
	.loc 1 2410 0
	movl	$0, -36(%rbp)	#, value
	.loc 1 2411 0
	movl	-28(%rbp), %eax	# code, code.243
	cltq
	movq	rtx_format(,%rax,8), %rax	# rtx_format, tmp96
	movq	%rax, -24(%rbp)	# tmp96, fmt
	.loc 1 2412 0
	movl	-28(%rbp), %eax	# code, code.244
	cltq
	movzbl	rtx_length(%rax), %eax	# rtx_length, D.24388
	movzbl	%al, %eax	# D.24388, D.24384
	subl	$1, %eax	#, tmp98
	movl	%eax, -40(%rbp)	# tmp98, i
	jmp	.L539	#
.L544:
	.loc 1 2414 0
	movl	-40(%rbp), %eax	# i, tmp99
	movslq	%eax, %rdx	# tmp99, D.24389
	movq	-24(%rbp), %rax	# fmt, tmp100
	addq	%rdx, %rax	# D.24389, D.24390
	movzbl	(%rax), %eax	# *_29, D.24391
	cmpb	$101, %al	#, D.24391
	jne	.L540	#,
	.loc 1 2415 0
	movq	-64(%rbp), %rax	# x, tmp101
	movl	-40(%rbp), %edx	# i, tmp103
	movslq	%edx, %rdx	# tmp103, tmp102
	movq	8(%rax,%rdx,8), %rdx	# x_8(D)->fld[i_1].rtx, D.24386
	movq	-56(%rbp), %rax	# loop, tmp104
	movq	%rdx, %rsi	# D.24386,
	movq	%rax, %rdi	# tmp104,
	call	count_nonfixed_reads	#
	addl	%eax, -36(%rbp)	# D.24384, value
.L540:
	.loc 1 2416 0
	movl	-40(%rbp), %eax	# i, tmp105
	movslq	%eax, %rdx	# tmp105, D.24389
	movq	-24(%rbp), %rax	# fmt, tmp106
	addq	%rdx, %rax	# D.24389, D.24390
	movzbl	(%rax), %eax	# *_35, D.24391
	cmpb	$69, %al	#, D.24391
	jne	.L541	#,
.LBB28:
	.loc 1 2419 0
	movl	$0, -32(%rbp)	#, j
	jmp	.L542	#
.L543:
	.loc 1 2420 0 discriminator 2
	movq	-64(%rbp), %rax	# x, tmp107
	movl	-40(%rbp), %edx	# i, tmp109
	movslq	%edx, %rdx	# tmp109, tmp108
	movq	8(%rax,%rdx,8), %rax	# x_8(D)->fld[i_1].rtvec, D.24392
	movl	-32(%rbp), %edx	# j, tmp111
	movslq	%edx, %rdx	# tmp111, tmp110
	movq	8(%rax,%rdx,8), %rdx	# _40->elem, D.24386
	movq	-56(%rbp), %rax	# loop, tmp112
	movq	%rdx, %rsi	# D.24386,
	movq	%rax, %rdi	# tmp112,
	call	count_nonfixed_reads	#
	addl	%eax, -36(%rbp)	# D.24384, value
	.loc 1 2419 0 discriminator 2
	addl	$1, -32(%rbp)	#, j
.L542:
	.loc 1 2419 0 is_stmt 0 discriminator 1
	movq	-64(%rbp), %rax	# x, tmp113
	movl	-40(%rbp), %edx	# i, tmp115
	movslq	%edx, %rdx	# tmp115, tmp114
	movq	8(%rax,%rdx,8), %rax	# x_8(D)->fld[i_1].rtvec, D.24392
	movl	(%rax), %eax	# _38->num_elem, D.24384
	cmpl	-32(%rbp), %eax	# j, D.24384
	jg	.L543	#,
.L541:
.LBE28:
	.loc 1 2412 0 is_stmt 1
	subl	$1, -40(%rbp)	#, i
.L539:
	.loc 1 2412 0 is_stmt 0 discriminator 1
	cmpl	$0, -40(%rbp)	#, i
	jns	.L544	#,
	.loc 1 2423 0 is_stmt 1
	movl	-36(%rbp), %eax	# value, D.24384
.L534:
	.loc 1 2424 0
	addq	$56, %rsp	#,
	popq	%rbx	#
	popq	%rbp	#
	.cfi_def_cfa 7, 8
	ret
	.cfi_endproc
.LFE22:
	.size	count_nonfixed_reads, .-count_nonfixed_reads
	.type	prescan_loop, @function
prescan_loop:
.LFB23:
	.loc 1 2435 0
	.cfi_startproc
	pushq	%rbp	#
	.cfi_def_cfa_offset 16
	.cfi_offset 6, -16
	movq	%rsp, %rbp	#,
	.cfi_def_cfa_register 6
	subq	$112, %rsp	#,
	movq	%rdi, -104(%rbp)	# loop, loop
	.loc 1 2436 0
	movl	$1, -92(%rbp)	#, level
	.loc 1 2438 0
	movq	-104(%rbp), %rax	# loop, tmp133
	movq	160(%rax), %rax	# loop_7(D)->aux, tmp134
	movq	%rax, -64(%rbp)	# tmp134, loop_info
	.loc 1 2439 0
	movq	-104(%rbp), %rax	# loop, tmp135
	movq	192(%rax), %rax	# loop_7(D)->start, tmp136
	movq	%rax, -56(%rbp)	# tmp136, start
	.loc 1 2440 0
	movq	-104(%rbp), %rax	# loop, tmp137
	movq	200(%rax), %rax	# loop_7(D)->end, tmp138
	movq	%rax, -48(%rbp)	# tmp138, end
	.loc 1 2445 0
	movq	-48(%rbp), %rax	# end, tmp139
	movq	%rax, %rdi	# tmp139,
	call	next_nonnote_insn	#
	movq	%rax, -40(%rbp)	# tmp140, exit_target
	.loc 1 2447 0
	movl	indirect_jump_in_function(%rip), %edx	# indirect_jump_in_function, indirect_jump_in_function.245
	movq	-64(%rbp), %rax	# loop_info, tmp141
	movl	%edx, 24(%rax)	# indirect_jump_in_function.245, loop_info_8->has_indirect_jump
	.loc 1 2448 0
	movq	-64(%rbp), %rax	# loop_info, tmp142
	movl	$0, 232(%rax)	#, loop_info_8->pre_header_has_call
	.loc 1 2449 0
	movq	-64(%rbp), %rax	# loop_info, tmp143
	movl	$0, (%rax)	#, loop_info_8->has_call
	.loc 1 2450 0
	movq	-64(%rbp), %rax	# loop_info, tmp144
	movl	$0, 8(%rax)	#, loop_info_8->has_nonconst_call
	.loc 1 2451 0
	movq	-64(%rbp), %rax	# loop_info, tmp145
	movl	$0, 12(%rax)	#, loop_info_8->has_volatile
	.loc 1 2452 0
	movq	-64(%rbp), %rax	# loop_info, tmp146
	movl	$0, 16(%rax)	#, loop_info_8->has_tablejump
	.loc 1 2453 0
	movq	-64(%rbp), %rax	# loop_info, tmp147
	movl	$0, 20(%rax)	#, loop_info_8->has_multiple_exit_targets
	.loc 1 2454 0
	movq	-104(%rbp), %rax	# loop, tmp148
	movl	$1, 124(%rax)	#, loop_7(D)->level
	.loc 1 2456 0
	movq	-64(%rbp), %rax	# loop_info, tmp149
	movl	$0, 144(%rax)	#, loop_info_8->unknown_address_altered
	.loc 1 2457 0
	movq	-64(%rbp), %rax	# loop_info, tmp150
	movl	$0, 148(%rax)	#, loop_info_8->unknown_constant_address_altered
	.loc 1 2458 0
	movq	-64(%rbp), %rax	# loop_info, tmp151
	movq	$0, 120(%rax)	#, loop_info_8->store_mems
	.loc 1 2459 0
	movq	-64(%rbp), %rax	# loop_info, tmp152
	movq	$0, 160(%rax)	#, loop_info_8->first_loop_store_insn
	.loc 1 2460 0
	movq	-64(%rbp), %rax	# loop_info, tmp153
	movl	$0, 136(%rax)	#, loop_info_8->mems_idx
	.loc 1 2461 0
	movq	-64(%rbp), %rax	# loop_info, tmp154
	movl	$0, 152(%rax)	#, loop_info_8->num_mem_sets
	.loc 1 2464 0
	movq	-56(%rbp), %rax	# start, tmp155
	movq	%rax, -88(%rbp)	# tmp155, insn
	jmp	.L548	#
.L551:
	.loc 1 2467 0
	movq	-88(%rbp), %rax	# insn, insn.246
	movzwl	(%rax), %eax	# insn.246_16->code, D.24393
	cmpw	$34, %ax	#, D.24393
	jne	.L549	#,
	.loc 1 2469 0
	movq	-64(%rbp), %rax	# loop_info, tmp156
	movl	$1, 232(%rax)	#, loop_info_8->pre_header_has_call
	.loc 1 2470 0
	jmp	.L550	#
.L549:
	.loc 1 2465 0
	movq	-88(%rbp), %rax	# insn, insn.247
	movq	16(%rax), %rax	# insn.247_18->fld[1].rtx, insn.248
	movq	%rax, -88(%rbp)	# insn.248, insn
.L548:
	.loc 1 2464 0 discriminator 1
	movq	-88(%rbp), %rax	# insn, insn.249
	testq	%rax, %rax	# insn.249
	je	.L550	#,
	.loc 1 2464 0 is_stmt 0 discriminator 2
	movq	-88(%rbp), %rax	# insn, insn.250
	movzwl	(%rax), %eax	# insn.250_14->code, D.24393
	cmpw	$36, %ax	#, D.24393
	jne	.L551	#,
.L550:
	.loc 1 2474 0 is_stmt 1
	movq	-56(%rbp), %rax	# start, tmp157
	movq	24(%rax), %rax	# start_9->fld[2].rtx, insn.251
	movq	%rax, -88(%rbp)	# insn.251, insn
	jmp	.L552	#
.L576:
	.loc 1 2477 0
	movq	-88(%rbp), %rax	# insn, insn.252
	movzwl	(%rax), %eax	# insn.252_23->code, D.24393
	movzwl	%ax, %eax	# D.24393, D.24395
	cmpl	$33, %eax	#, D.24395
	je	.L554	#,
	cmpl	$33, %eax	#, D.24395
	ja	.L555	#,
	cmpl	$32, %eax	#, D.24395
	je	.L556	#,
	.loc 1 2574 0
	jmp	.L561	#
.L555:
	.loc 1 2477 0
	cmpl	$34, %eax	#, D.24395
	je	.L557	#,
	cmpl	$37, %eax	#, D.24395
	je	.L558	#,
	.loc 1 2574 0
	jmp	.L561	#
.L558:
	.loc 1 2480 0
	movq	-88(%rbp), %rax	# insn, insn.253
	movl	40(%rax), %eax	# insn.253_26->fld[4].rtint, D.24396
	cmpl	$-96, %eax	#, D.24396
	jne	.L559	#,
	.loc 1 2482 0
	addl	$1, -92(%rbp)	#, level
	.loc 1 2484 0
	movq	-104(%rbp), %rax	# loop, tmp158
	movl	124(%rax), %eax	# loop_7(D)->level, D.24396
	leal	1(%rax), %edx	#, D.24396
	movq	-104(%rbp), %rax	# loop, tmp159
	movl	%edx, 124(%rax)	# D.24396, loop_7(D)->level
	jmp	.L560	#
.L559:
	.loc 1 2486 0
	movq	-88(%rbp), %rax	# insn, insn.254
	movl	40(%rax), %eax	# insn.254_31->fld[4].rtint, D.24396
	cmpl	$-95, %eax	#, D.24396
	jne	.L560	#,
	.loc 1 2487 0
	subl	$1, -92(%rbp)	#, level
	.loc 1 2488 0
	jmp	.L561	#
.L560:
	jmp	.L561	#
.L557:
	.loc 1 2491 0
	movq	-88(%rbp), %rax	# insn, insn.255
	movzbl	3(%rax), %eax	# *insn.255_34, D.24397
	andl	$4, %eax	#, D.24397
	testb	%al, %al	# D.24397
	jne	.L562	#,
	.loc 1 2493 0
	movq	-64(%rbp), %rax	# loop_info, tmp160
	movl	$1, 144(%rax)	#, loop_info_8->unknown_address_altered
	.loc 1 2494 0
	movq	-64(%rbp), %rax	# loop_info, tmp161
	movl	$1, 8(%rax)	#, loop_info_8->has_nonconst_call
	jmp	.L563	#
.L562:
	.loc 1 2496 0
	movq	-88(%rbp), %rax	# insn, insn.256
	movq	%rax, %rdi	# insn.256,
	call	pure_call_p	#
	testl	%eax, %eax	# D.24396
	je	.L563	#,
	.loc 1 2497 0
	movq	-64(%rbp), %rax	# loop_info, tmp162
	movl	$1, 8(%rax)	#, loop_info_8->has_nonconst_call
.L563:
	.loc 1 2498 0
	movq	-64(%rbp), %rax	# loop_info, tmp163
	movl	$1, (%rax)	#, loop_info_8->has_call
	.loc 1 2499 0
	movq	-88(%rbp), %rax	# insn, insn.257
	movq	%rax, %rdi	# insn.257,
	call	can_throw_internal	#
	testb	%al, %al	# D.24398
	je	.L564	#,
	.loc 1 2500 0
	movq	-64(%rbp), %rax	# loop_info, tmp164
	movl	$1, 20(%rax)	#, loop_info_8->has_multiple_exit_targets
	.loc 1 2501 0
	jmp	.L561	#
.L564:
	jmp	.L561	#
.L554:
	.loc 1 2504 0
	movq	-64(%rbp), %rax	# loop_info, tmp165
	movl	20(%rax), %eax	# loop_info_8->has_multiple_exit_targets, D.24396
	testl	%eax, %eax	# D.24396
	jne	.L556	#,
.LBB29:
	.loc 1 2506 0
	movq	-88(%rbp), %rax	# insn, insn.258
	movq	%rax, %rdi	# insn.258,
	call	pc_set	#
	movq	%rax, -32(%rbp)	# tmp166, set
	.loc 1 2508 0
	cmpq	$0, -32(%rbp)	#, set
	je	.L565	#,
.LBB30:
	.loc 1 2510 0
	movq	-32(%rbp), %rax	# set, tmp167
	movq	16(%rax), %rax	# set_43->fld[1].rtx, tmp168
	movq	%rax, -24(%rbp)	# tmp168, src
	.loc 1 2513 0
	movq	-24(%rbp), %rax	# src, tmp169
	movzwl	(%rax), %eax	# src_44->code, D.24393
	cmpw	$72, %ax	#, D.24393
	jne	.L566	#,
	.loc 1 2515 0
	movq	-24(%rbp), %rax	# src, tmp170
	movq	16(%rax), %rax	# src_44->fld[1].rtx, tmp171
	movq	%rax, -80(%rbp)	# tmp171, label1
	.loc 1 2516 0
	movq	-24(%rbp), %rax	# src, tmp172
	movq	24(%rax), %rax	# src_44->fld[2].rtx, tmp173
	movq	%rax, -72(%rbp)	# tmp173, label2
	jmp	.L567	#
.L566:
	.loc 1 2520 0
	movq	-24(%rbp), %rax	# src, tmp174
	movq	%rax, -80(%rbp)	# tmp174, label1
	.loc 1 2521 0
	movq	$0, -72(%rbp)	#, label2
.L567:
	.loc 1 2526 0
	cmpq	$0, -80(%rbp)	#, label1
	je	.L568	#,
	.loc 1 2526 0 is_stmt 0 discriminator 1
	movq	global_rtl(%rip), %rax	# global_rtl, D.24394
	cmpq	-80(%rbp), %rax	# label1, D.24394
	je	.L568	#,
	.loc 1 2528 0 is_stmt 1
	movq	-80(%rbp), %rax	# label1, tmp175
	movzwl	(%rax), %eax	# label1_4->code, D.24393
	cmpw	$67, %ax	#, D.24393
	je	.L569	#,
	.loc 1 2531 0
	movq	-64(%rbp), %rax	# loop_info, tmp176
	movl	$1, 20(%rax)	#, loop_info_8->has_multiple_exit_targets
	.loc 1 2532 0
	jmp	.L570	#
.L569:
	.loc 1 2534 0
	movq	-80(%rbp), %rax	# label1, tmp177
	movq	8(%rax), %rax	# label1_4->fld[0].rtx, D.24394
	cmpq	-40(%rbp), %rax	# exit_target, D.24394
	je	.L568	#,
	.loc 1 2535 0
	movq	-80(%rbp), %rax	# label1, tmp178
	movzbl	3(%rax), %eax	# *label1_4, D.24397
	andl	$16, %eax	#, D.24397
	testb	%al, %al	# D.24397
	je	.L568	#,
	.loc 1 2538 0
	movq	-64(%rbp), %rax	# loop_info, tmp179
	movl	$1, 20(%rax)	#, loop_info_8->has_multiple_exit_targets
	.loc 1 2539 0
	jmp	.L570	#
.L568:
	.loc 1 2543 0
	movq	-72(%rbp), %rax	# label2, tmp180
	movq	%rax, -80(%rbp)	# tmp180, label1
	.loc 1 2544 0
	movq	$0, -72(%rbp)	#, label2
	.loc 1 2546 0
	cmpq	$0, -80(%rbp)	#, label1
	jne	.L567	#,
.L570:
.LBE30:
	jmp	.L556	#
.L565:
	.loc 1 2551 0
	movq	-64(%rbp), %rax	# loop_info, tmp181
	movl	$1, 20(%rax)	#, loop_info_8->has_multiple_exit_targets
.L556:
.LBE29:
	.loc 1 2557 0
	movq	-88(%rbp), %rax	# insn, insn.259
	movq	32(%rax), %rax	# insn.259_57->fld[3].rtx, D.24394
	movq	%rax, %rdi	# D.24394,
	call	volatile_refs_p	#
	testl	%eax, %eax	# D.24396
	je	.L571	#,
	.loc 1 2558 0
	movq	-64(%rbp), %rax	# loop_info, tmp182
	movl	$1, 12(%rax)	#, loop_info_8->has_volatile
.L571:
	.loc 1 2560 0
	movq	-88(%rbp), %rax	# insn, insn.260
	movzwl	(%rax), %eax	# insn.260_60->code, D.24393
	cmpw	$33, %ax	#, D.24393
	jne	.L572	#,
	.loc 1 2561 0
	movq	-88(%rbp), %rax	# insn, insn.261
	movq	32(%rax), %rax	# insn.261_62->fld[3].rtx, D.24394
	movzwl	(%rax), %eax	# _63->code, D.24393
	cmpw	$45, %ax	#, D.24393
	je	.L573	#,
	.loc 1 2562 0
	movq	-88(%rbp), %rax	# insn, insn.262
	movq	32(%rax), %rax	# insn.262_65->fld[3].rtx, D.24394
	movzwl	(%rax), %eax	# _66->code, D.24393
	cmpw	$44, %ax	#, D.24393
	jne	.L572	#,
.L573:
	.loc 1 2563 0
	movq	-64(%rbp), %rax	# loop_info, tmp183
	movl	$1, 16(%rax)	#, loop_info_8->has_tablejump
.L572:
	.loc 1 2565 0
	movq	-88(%rbp), %rax	# insn, insn.263
	movq	32(%rax), %rax	# insn.263_68->fld[3].rtx, D.24394
	movq	-64(%rbp), %rdx	# loop_info, tmp184
	movl	$note_addr_stored, %esi	#,
	movq	%rax, %rdi	# D.24394,
	call	note_stores	#
	.loc 1 2566 0
	movq	-64(%rbp), %rax	# loop_info, tmp185
	movq	160(%rax), %rax	# loop_info_8->first_loop_store_insn, D.24394
	testq	%rax, %rax	# D.24394
	jne	.L574	#,
	.loc 1 2566 0 is_stmt 0 discriminator 1
	movq	-64(%rbp), %rax	# loop_info, tmp186
	movq	120(%rax), %rax	# loop_info_8->store_mems, D.24394
	testq	%rax, %rax	# D.24394
	je	.L574	#,
	.loc 1 2567 0 is_stmt 1
	movq	-88(%rbp), %rdx	# insn, insn.264
	movq	-64(%rbp), %rax	# loop_info, tmp187
	movq	%rdx, 160(%rax)	# insn.264, loop_info_8->first_loop_store_insn
.L574:
	.loc 1 2569 0
	movl	flag_non_call_exceptions(%rip), %eax	# flag_non_call_exceptions, flag_non_call_exceptions.265
	testl	%eax, %eax	# flag_non_call_exceptions.265
	je	.L575	#,
	.loc 1 2569 0 is_stmt 0 discriminator 1
	movq	-88(%rbp), %rax	# insn, insn.266
	movq	%rax, %rdi	# insn.266,
	call	can_throw_internal	#
	testb	%al, %al	# D.24398
	je	.L575	#,
	.loc 1 2570 0 is_stmt 1
	movq	-64(%rbp), %rax	# loop_info, tmp188
	movl	$1, 20(%rax)	#, loop_info_8->has_multiple_exit_targets
	.loc 1 2571 0
	jmp	.L582	#
.L575:
.L582:
	nop
.L561:
	.loc 1 2475 0
	movq	-88(%rbp), %rax	# insn, insn.267
	movq	24(%rax), %rax	# insn.267_76->fld[2].rtx, insn.268
	movq	%rax, -88(%rbp)	# insn.268, insn
.L552:
	.loc 1 2474 0 discriminator 1
	movq	-48(%rbp), %rax	# end, tmp189
	movq	24(%rax), %rdx	# end_10->fld[2].rtx, D.24394
	movq	-88(%rbp), %rax	# insn, insn.269
	cmpq	%rax, %rdx	# insn.269, D.24394
	jne	.L576	#,
	.loc 1 2581 0
	movq	-64(%rbp), %rax	# loop_info, tmp190
	movl	8(%rax), %eax	# loop_info_8->has_nonconst_call, D.24396
	.loc 1 2579 0
	testl	%eax, %eax	# D.24396
	jne	.L577	#,
	.loc 1 2586 0
	movq	cfun(%rip), %rax	# cfun, cfun.270
	movzbl	424(%rax), %eax	# *cfun.270_79, D.24397
	andl	$64, %eax	#, D.24397
	testb	%al, %al	# D.24397
	jne	.L577	#,
	.loc 1 2589 0
	movq	-64(%rbp), %rax	# loop_info, tmp191
	movl	20(%rax), %eax	# loop_info_8->has_multiple_exit_targets, D.24396
	testl	%eax, %eax	# D.24396
	jne	.L577	#,
	.loc 1 2590 0
	movq	-56(%rbp), %rax	# start, tmp192
	movq	24(%rax), %rax	# start_9->fld[2].rtx, insn.271
	movq	%rax, -88(%rbp)	# insn.271, insn
	jmp	.L578	#
.L579:
	.loc 1 2592 0
	movq	-64(%rbp), %rdx	# loop_info, tmp193
	leaq	-88(%rbp), %rax	#, tmp194
	movl	$insert_loop_mem, %esi	#,
	movq	%rax, %rdi	# tmp194,
	call	for_each_rtx	#
	.loc 1 2591 0
	movq	-88(%rbp), %rax	# insn, insn.272
	movq	24(%rax), %rax	# insn.272_86->fld[2].rtx, insn.273
	movq	%rax, -88(%rbp)	# insn.273, insn
.L578:
	.loc 1 2590 0 discriminator 1
	movq	-48(%rbp), %rax	# end, tmp195
	movq	24(%rax), %rdx	# end_10->fld[2].rtx, D.24394
	movq	-88(%rbp), %rax	# insn, insn.274
	cmpq	%rax, %rdx	# insn.274, D.24394
	jne	.L579	#,
.L577:
	.loc 1 2597 0
	movq	-64(%rbp), %rax	# loop_info, tmp196
	movl	144(%rax), %eax	# loop_info_8->unknown_address_altered, D.24396
	testl	%eax, %eax	# D.24396
	je	.L580	#,
.LBB31:
	.loc 1 2599 0
	movq	const_int_rtx+512(%rip), %rax	# const_int_rtx, D.24394
	movq	%rax, %rsi	# D.24394,
	movl	$51, %edi	#,
	call	gen_rtx_MEM	#
	movq	%rax, -16(%rbp)	# tmp197, mem
	.loc 1 2602 0
	movq	-64(%rbp), %rax	# loop_info, tmp198
	movq	120(%rax), %rdx	# loop_info_8->store_mems, D.24394
	movq	-16(%rbp), %rax	# mem, tmp199
	movq	%rdx, %rcx	# D.24394,
	movq	%rax, %rdx	# tmp199,
	movl	$0, %esi	#,
	movl	$3, %edi	#,
	call	gen_rtx_fmt_ee	#
	movq	-64(%rbp), %rdx	# loop_info, tmp200
	movq	%rax, 120(%rdx)	# D.24394, loop_info_8->store_mems
.L580:
.LBE31:
	.loc 1 2604 0
	movq	-64(%rbp), %rax	# loop_info, tmp201
	movl	148(%rax), %eax	# loop_info_8->unknown_constant_address_altered, D.24396
	testl	%eax, %eax	# D.24396
	je	.L547	#,
.LBB32:
	.loc 1 2606 0
	movq	const_int_rtx+512(%rip), %rax	# const_int_rtx, D.24394
	movq	%rax, %rsi	# D.24394,
	movl	$51, %edi	#,
	call	gen_rtx_MEM	#
	movq	%rax, -8(%rbp)	# tmp202, mem
	.loc 1 2608 0
	movq	-8(%rbp), %rax	# mem, tmp203
	movzbl	3(%rax), %edx	# mem_95->unchanging, tmp206
	orl	$4, %edx	#, tmp207
	movb	%dl, 3(%rax)	# tmp207, mem_95->unchanging
	.loc 1 2610 0
	movq	-64(%rbp), %rax	# loop_info, tmp208
	movq	120(%rax), %rdx	# loop_info_8->store_mems, D.24394
	movq	-8(%rbp), %rax	# mem, tmp209
	movq	%rdx, %rcx	# D.24394,
	movq	%rax, %rdx	# tmp209,
	movl	$0, %esi	#,
	movl	$3, %edi	#,
	call	gen_rtx_fmt_ee	#
	movq	-64(%rbp), %rdx	# loop_info, tmp210
	movq	%rax, 120(%rdx)	# D.24394, loop_info_8->store_mems
.L547:
.LBE32:
	.loc 1 2612 0
	leave
	.cfi_def_cfa 7, 8
	ret
	.cfi_endproc
.LFE23:
	.size	prescan_loop, .-prescan_loop
	.type	invalidate_loops_containing_label, @function
invalidate_loops_containing_label:
.LFB24:
	.loc 1 2619 0
	.cfi_startproc
	pushq	%rbp	#
	.cfi_def_cfa_offset 16
	.cfi_offset 6, -16
	movq	%rsp, %rbp	#,
	.cfi_def_cfa_register 6
	movq	%rdi, -24(%rbp)	# label, label
	.loc 1 2621 0
	movq	uid_loop(%rip), %rdx	# uid_loop, uid_loop.275
	movq	-24(%rbp), %rax	# label, tmp64
	movl	8(%rax), %eax	# label_3(D)->fld[0].rtint, D.24400
	cltq
	salq	$3, %rax	#, D.24401
	addq	%rdx, %rax	# uid_loop.275, D.24402
	movq	(%rax), %rax	# *_7, tmp65
	movq	%rax, -8(%rbp)	# tmp65, loop
	jmp	.L584	#
.L585:
	.loc 1 2622 0 discriminator 2
	movq	-8(%rbp), %rax	# loop, tmp66
	movl	$1, 156(%rax)	#, loop_1->invalid
	.loc 1 2621 0 discriminator 2
	movq	-8(%rbp), %rax	# loop, tmp67
	movq	128(%rax), %rax	# loop_1->outer, tmp68
	movq	%rax, -8(%rbp)	# tmp68, loop
.L584:
	.loc 1 2621 0 is_stmt 0 discriminator 1
	cmpq	$0, -8(%rbp)	#, loop
	jne	.L585	#,
	.loc 1 2623 0 is_stmt 1
	popq	%rbp	#
	.cfi_def_cfa 7, 8
	ret
	.cfi_endproc
.LFE24:
	.size	invalidate_loops_containing_label, .-invalidate_loops_containing_label
	.section	.rodata
	.align 8
.LC18:
	.string	"\nLoop at %d ignored due to setjmp.\n"
	.text
	.type	find_and_verify_loops, @function
find_and_verify_loops:
.LFB25:
	.loc 1 2633 0
	.cfi_startproc
	pushq	%rbp	#
	.cfi_def_cfa_offset 16
	.cfi_offset 6, -16
	movq	%rsp, %rbp	#,
	.cfi_def_cfa_register 6
	pushq	%rbx	#
	subq	$216, %rsp	#,
	.cfi_offset 3, -24
	movq	%rdi, -216(%rbp)	# f, f
	movq	%rsi, -224(%rbp)	# loops, loops
	.loc 1 2641 0
	movq	-224(%rbp), %rax	# loops, tmp206
	movl	(%rax), %eax	# loops_25(D)->num, tmp207
	movl	%eax, -196(%rbp)	# tmp207, num_loops
	.loc 1 2643 0
	movq	-216(%rbp), %rax	# f, tmp208
	movl	$0, %edx	#,
	movl	$0, %esi	#,
	movq	%rax, %rdi	# tmp208,
	call	compute_luids	#
	.loc 1 2648 0
	movq	uid_loop(%rip), %rax	# uid_loop, uid_loop.276
	movq	$0, (%rax)	#, *uid_loop.276_28
	.loc 1 2653 0
	movl	$0, -196(%rbp)	#, num_loops
	.loc 1 2654 0
	movq	$0, -160(%rbp)	#, current_loop
	.loc 1 2655 0
	movq	-216(%rbp), %rax	# f, tmp209
	movq	%rax, -176(%rbp)	# tmp209, insn
	jmp	.L587	#
.L600:
	.loc 1 2657 0
	movq	-176(%rbp), %rax	# insn, tmp210
	movzwl	(%rax), %eax	# insn_1->code, D.24403
	cmpw	$37, %ax	#, D.24403
	jne	.L588	#,
	.loc 1 2658 0
	movq	-176(%rbp), %rax	# insn, tmp211
	movl	40(%rax), %eax	# insn_1->fld[4].rtint, D.24404
	cmpl	$-95, %eax	#, D.24404
	je	.L590	#,
	cmpl	$-95, %eax	#, D.24404
	jg	.L591	#,
	cmpl	$-96, %eax	#, D.24404
	je	.L592	#,
	.loc 1 2686 0
	jmp	.L588	#
.L591:
	.loc 1 2658 0
	cmpl	$-94, %eax	#, D.24404
	je	.L593	#,
	cmpl	$-93, %eax	#, D.24404
	je	.L594	#,
	.loc 1 2686 0
	jmp	.L588	#
.L592:
	.loc 1 2661 0
	movq	-224(%rbp), %rax	# loops, tmp212
	movq	8(%rax), %rdx	# loops_25(D)->array, D.24405
	movl	-196(%rbp), %eax	# num_loops, tmp213
	cltq
	salq	$3, %rax	#, tmp215
	movq	%rax, %rcx	# tmp214, tmp216
	salq	$5, %rcx	#, tmp216
	subq	%rax, %rcx	# tmp214, D.24406
	movq	%rcx, %rax	# D.24406, D.24406
	addq	%rdx, %rax	# D.24405, tmp217
	movq	%rax, -96(%rbp)	# tmp217, next_loop
	.loc 1 2662 0
	movq	-96(%rbp), %rax	# next_loop, tmp218
	movl	-196(%rbp), %edx	# num_loops, tmp219
	movl	%edx, (%rax)	# tmp219, next_loop_37->num
	.loc 1 2663 0
	addl	$1, -196(%rbp)	#, num_loops
	.loc 1 2664 0
	movq	-96(%rbp), %rax	# next_loop, tmp220
	movq	-176(%rbp), %rdx	# insn, tmp221
	movq	%rdx, 192(%rax)	# tmp221, next_loop_37->start
	.loc 1 2665 0
	movq	-96(%rbp), %rax	# next_loop, tmp222
	movq	-160(%rbp), %rdx	# current_loop, tmp223
	movq	%rdx, 128(%rax)	# tmp223, next_loop_37->outer
	.loc 1 2666 0
	movq	-96(%rbp), %rax	# next_loop, tmp224
	movq	%rax, -160(%rbp)	# tmp224, current_loop
	.loc 1 2667 0
	jmp	.L588	#
.L593:
	.loc 1 2670 0
	movq	-160(%rbp), %rax	# current_loop, tmp225
	movq	-176(%rbp), %rdx	# insn, tmp226
	movq	%rdx, 176(%rax)	# tmp226, current_loop_9->cont
	.loc 1 2671 0
	jmp	.L588	#
.L594:
	.loc 1 2674 0
	movq	-160(%rbp), %rax	# current_loop, tmp227
	movq	-176(%rbp), %rdx	# insn, tmp228
	movq	%rdx, 168(%rax)	# tmp228, current_loop_9->vtop
	.loc 1 2675 0
	jmp	.L588	#
.L590:
	.loc 1 2678 0
	cmpq	$0, -160(%rbp)	#, current_loop
	jne	.L595	#,
	.loc 1 2679 0
	movl	$__FUNCTION__.13028, %edx	#,
	movl	$2679, %esi	#,
	movl	$.LC0, %edi	#,
	call	fancy_abort	#
.L595:
	.loc 1 2681 0
	movq	-160(%rbp), %rax	# current_loop, tmp229
	movq	-176(%rbp), %rdx	# insn, tmp230
	movq	%rdx, 200(%rax)	# tmp230, current_loop_9->end
	.loc 1 2682 0
	movq	-160(%rbp), %rax	# current_loop, tmp231
	movq	128(%rax), %rax	# current_loop_9->outer, tmp232
	movq	%rax, -160(%rbp)	# tmp232, current_loop
	.loc 1 2683 0
	nop
.L588:
	.loc 1 2689 0
	movq	-176(%rbp), %rax	# insn, tmp233
	movzwl	(%rax), %eax	# insn_1->code, D.24403
	cmpw	$34, %ax	#, D.24403
	jne	.L596	#,
	.loc 1 2690 0
	movq	-176(%rbp), %rax	# insn, tmp234
	movl	$0, %edx	#,
	movl	$28, %esi	#,
	movq	%rax, %rdi	# tmp234,
	call	find_reg_note	#
	testq	%rax, %rax	# D.24407
	je	.L596	#,
	.loc 1 2694 0
	movq	-160(%rbp), %rax	# current_loop, tmp235
	movq	%rax, -152(%rbp)	# tmp235, loop
	jmp	.L597	#
.L599:
	.loc 1 2696 0
	movq	-152(%rbp), %rax	# loop, tmp236
	movl	$1, 156(%rax)	#, loop_10->invalid
	.loc 1 2697 0
	movq	loop_dump_stream(%rip), %rax	# loop_dump_stream, loop_dump_stream.277
	testq	%rax, %rax	# loop_dump_stream.277
	je	.L598	#,
	.loc 1 2700 0
	movq	-152(%rbp), %rax	# loop, tmp237
	movq	192(%rax), %rax	# loop_10->start, D.24407
	.loc 1 2698 0
	movl	8(%rax), %edx	# _45->fld[0].rtint, D.24404
	movq	loop_dump_stream(%rip), %rax	# loop_dump_stream, loop_dump_stream.278
	movl	$.LC18, %esi	#,
	movq	%rax, %rdi	# loop_dump_stream.278,
	movl	$0, %eax	#,
	call	fprintf	#
.L598:
	.loc 1 2694 0
	movq	-152(%rbp), %rax	# loop, tmp238
	movq	128(%rax), %rax	# loop_10->outer, tmp239
	movq	%rax, -152(%rbp)	# tmp239, loop
.L597:
	.loc 1 2694 0 is_stmt 0 discriminator 1
	cmpq	$0, -152(%rbp)	#, loop
	jne	.L599	#,
.L596:
	.loc 1 2706 0 is_stmt 1
	movq	uid_loop(%rip), %rdx	# uid_loop, uid_loop.279
	movq	-176(%rbp), %rax	# insn, tmp240
	movl	8(%rax), %eax	# insn_1->fld[0].rtint, D.24404
	cltq
	salq	$3, %rax	#, D.24406
	addq	%rax, %rdx	# D.24406, D.24408
	movq	-160(%rbp), %rax	# current_loop, tmp241
	movq	%rax, (%rdx)	# tmp241, *_53
	.loc 1 2655 0
	movq	-176(%rbp), %rax	# insn, tmp242
	movq	24(%rax), %rax	# insn_1->fld[2].rtx, tmp243
	movq	%rax, -176(%rbp)	# tmp243, insn
.L587:
	.loc 1 2655 0 is_stmt 0 discriminator 1
	cmpq	$0, -176(%rbp)	#, insn
	jne	.L600	#,
	.loc 1 2711 0 is_stmt 1
	movq	cfun(%rip), %rax	# cfun, cfun.280
	movq	16(%rax), %rax	# cfun.280_55->expr, D.24409
	movq	32(%rax), %rax	# _56->x_forced_labels, tmp244
	movq	%rax, -168(%rbp)	# tmp244, label
	jmp	.L601	#
.L602:
	.loc 1 2712 0 discriminator 2
	movq	-168(%rbp), %rax	# label, tmp245
	movq	8(%rax), %rax	# label_5->fld[0].rtx, D.24407
	movq	%rax, %rdi	# D.24407,
	call	invalidate_loops_containing_label	#
	.loc 1 2711 0 discriminator 2
	movq	-168(%rbp), %rax	# label, tmp246
	movq	16(%rax), %rax	# label_5->fld[1].rtx, tmp247
	movq	%rax, -168(%rbp)	# tmp247, label
.L601:
	.loc 1 2711 0 is_stmt 0 discriminator 1
	cmpq	$0, -168(%rbp)	#, label
	jne	.L602	#,
	.loc 1 2716 0 is_stmt 1
	movl	$invalidate_loops_containing_label, %edi	#,
	call	for_each_eh_label	#
	.loc 1 2731 0
	movq	-216(%rbp), %rax	# f, tmp248
	movq	%rax, -176(%rbp)	# tmp248, insn
	jmp	.L603	#
.L651:
	.loc 1 2732 0
	movq	-176(%rbp), %rax	# insn, tmp249
	movzwl	(%rax), %eax	# insn_4->code, D.24403
	movzwl	%ax, %eax	# D.24403, D.24404
	cltq
	movzbl	rtx_class(%rax), %eax	# rtx_class, D.24410
	cmpb	$105, %al	#, D.24410
	jne	.L604	#,
.LBB33:
	.loc 1 2734 0
	movq	uid_loop(%rip), %rdx	# uid_loop, uid_loop.281
	movq	-176(%rbp), %rax	# insn, tmp251
	movl	8(%rax), %eax	# insn_4->fld[0].rtint, D.24404
	cltq
	salq	$3, %rax	#, D.24406
	addq	%rdx, %rax	# uid_loop.281, D.24408
	movq	(%rax), %rax	# *_68, tmp252
	movq	%rax, -88(%rbp)	# tmp252, this_loop
	.loc 1 2736 0
	movq	-176(%rbp), %rax	# insn, tmp253
	movzwl	(%rax), %eax	# insn_4->code, D.24403
	cmpw	$32, %ax	#, D.24403
	je	.L605	#,
	.loc 1 2736 0 is_stmt 0 discriminator 1
	movq	-176(%rbp), %rax	# insn, tmp254
	movzwl	(%rax), %eax	# insn_4->code, D.24403
	cmpw	$34, %ax	#, D.24403
	jne	.L606	#,
.L605:
.LBB34:
	.loc 1 2738 0 is_stmt 1
	movq	-176(%rbp), %rax	# insn, tmp255
	movl	$0, %edx	#,
	movl	$13, %esi	#,
	movq	%rax, %rdi	# tmp255,
	call	find_reg_note	#
	movq	%rax, -80(%rbp)	# tmp256, note
	.loc 1 2739 0
	cmpq	$0, -80(%rbp)	#, note
	je	.L606	#,
	.loc 1 2740 0
	movq	-80(%rbp), %rax	# note, tmp257
	movq	8(%rax), %rax	# note_72->fld[0].rtx, D.24407
	movq	%rax, %rdi	# D.24407,
	call	invalidate_loops_containing_label	#
.L606:
.LBE34:
	.loc 1 2743 0
	movq	-176(%rbp), %rax	# insn, tmp258
	movzwl	(%rax), %eax	# insn_4->code, D.24403
	cmpw	$33, %ax	#, D.24403
	je	.L607	#,
	.loc 1 2744 0
	jmp	.L604	#
.L607:
	.loc 1 2746 0
	movq	-176(%rbp), %rax	# insn, tmp259
	movq	32(%rax), %rax	# insn_4->fld[3].rtx, D.24407
	movq	-88(%rbp), %rdx	# this_loop, tmp260
	movq	%rdx, %rsi	# tmp260,
	movq	%rax, %rdi	# D.24407,
	call	mark_loop_jump	#
	.loc 1 2749 0
	cmpq	$0, -88(%rbp)	#, this_loop
	je	.L604	#,
	.loc 1 2750 0
	movq	-176(%rbp), %rax	# insn, tmp261
	movq	32(%rax), %rax	# insn_4->fld[3].rtx, D.24407
	movzwl	(%rax), %eax	# _76->code, D.24403
	cmpw	$51, %ax	#, D.24403
	je	.L608	#,
	.loc 1 2751 0
	movq	-176(%rbp), %rax	# insn, tmp262
	movq	%rax, %rdi	# tmp262,
	call	any_uncondjump_p	#
	testl	%eax, %eax	# D.24404
	je	.L604	#,
	.loc 1 2752 0
	movq	-176(%rbp), %rax	# insn, tmp263
	movq	%rax, %rdi	# tmp263,
	call	onlyjump_p	#
	testl	%eax, %eax	# D.24404
	je	.L604	#,
	.loc 1 2753 0
	movq	uid_loop(%rip), %rdx	# uid_loop, uid_loop.282
	movq	-176(%rbp), %rax	# insn, tmp264
	movq	64(%rax), %rax	# insn_4->fld[7].rtx, D.24407
	movl	8(%rax), %eax	# _81->fld[0].rtint, D.24404
	cltq
	salq	$3, %rax	#, D.24406
	addq	%rdx, %rax	# uid_loop.282, D.24408
	movq	(%rax), %rax	# *_85, D.24405
	cmpq	-88(%rbp), %rax	# this_loop, D.24405
	je	.L604	#,
.L608:
	.loc 1 2755 0
	call	get_max_uid	#
	movl	max_uid_for_loop(%rip), %edx	# max_uid_for_loop, max_uid_for_loop.283
	cmpl	%edx, %eax	# max_uid_for_loop.283, D.24404
	jge	.L604	#,
.LBB35:
	.loc 1 2758 0
	movq	-176(%rbp), %rax	# insn, tmp265
	movq	%rax, %rdi	# tmp265,
	call	next_real_insn	#
	movq	%rax, -72(%rbp)	# tmp266, our_next
	.loc 1 2759 0
	movq	-176(%rbp), %rax	# insn, tmp267
	movq	24(%rax), %rax	# insn_4->fld[2].rtx, last_insn_to_move.284
	movq	%rax, -192(%rbp)	# last_insn_to_move.284, last_insn_to_move
	.loc 1 2761 0
	movq	$0, -136(%rbp)	#, outer_loop
	.loc 1 2765 0
	movq	-176(%rbp), %rax	# insn, tmp268
	movq	16(%rax), %rax	# insn_4->fld[1].rtx, tmp269
	movq	%rax, -144(%rbp)	# tmp269, p
	jmp	.L609	#
.L612:
	.loc 1 2770 0
	movq	-144(%rbp), %rax	# p, tmp270
	movq	16(%rax), %rax	# p_12->fld[1].rtx, tmp271
	movq	%rax, -144(%rbp)	# tmp271, p
.L609:
	.loc 1 2766 0 discriminator 1
	movq	-144(%rbp), %rax	# p, tmp272
	movzwl	(%rax), %eax	# p_12->code, D.24403
	.loc 1 2765 0 discriminator 1
	cmpw	$36, %ax	#, D.24403
	je	.L610	#,
	.loc 1 2767 0
	movq	-144(%rbp), %rax	# p, tmp273
	movzwl	(%rax), %eax	# p_12->code, D.24403
	cmpw	$37, %ax	#, D.24403
	jne	.L611	#,
	.loc 1 2768 0 discriminator 1
	movq	-144(%rbp), %rax	# p, tmp274
	movl	40(%rax), %eax	# p_12->fld[4].rtint, D.24404
	.loc 1 2767 0 discriminator 1
	cmpl	$-96, %eax	#, D.24404
	je	.L610	#,
.L611:
	.loc 1 2769 0
	movq	-144(%rbp), %rax	# p, tmp275
	movzwl	(%rax), %eax	# p_12->code, D.24403
	cmpw	$33, %ax	#, D.24403
	jne	.L612	#,
.L610:
	.loc 1 2776 0
	movq	-176(%rbp), %rax	# insn, tmp276
	movq	64(%rax), %rax	# insn_4->fld[7].rtx, D.24407
	testq	%rax, %rax	# D.24407
	je	.L613	#,
	.loc 1 2778 0
	movq	uid_loop(%rip), %rdx	# uid_loop, uid_loop.285
	movq	-176(%rbp), %rax	# insn, tmp277
	movq	64(%rax), %rax	# insn_4->fld[7].rtx, D.24407
	movl	8(%rax), %eax	# _100->fld[0].rtint, D.24404
	cltq
	salq	$3, %rax	#, D.24406
	addq	%rdx, %rax	# uid_loop.285, D.24408
	movq	(%rax), %rax	# *_104, tmp278
	movq	%rax, -64(%rbp)	# tmp278, dest_loop
	.loc 1 2779 0
	cmpq	$0, -64(%rbp)	#, dest_loop
	je	.L613	#,
	.loc 1 2781 0
	movq	-64(%rbp), %rax	# dest_loop, tmp279
	movq	%rax, -136(%rbp)	# tmp279, outer_loop
	jmp	.L614	#
.L616:
	.loc 1 2783 0
	movq	-136(%rbp), %rax	# outer_loop, tmp280
	cmpq	-88(%rbp), %rax	# this_loop, tmp280
	jne	.L615	#,
	.loc 1 2784 0
	jmp	.L613	#
.L615:
	.loc 1 2782 0
	movq	-136(%rbp), %rax	# outer_loop, tmp281
	movq	128(%rax), %rax	# outer_loop_13->outer, tmp282
	movq	%rax, -136(%rbp)	# tmp282, outer_loop
.L614:
	.loc 1 2781 0 discriminator 1
	cmpq	$0, -136(%rbp)	#, outer_loop
	jne	.L616	#,
.L613:
	.loc 1 2790 0
	movq	-144(%rbp), %rax	# p, tmp283
	movzwl	(%rax), %eax	# p_12->code, D.24403
	cmpw	$33, %ax	#, D.24403
	jne	.L617	#,
	.loc 1 2790 0 is_stmt 0 discriminator 1
	movq	-144(%rbp), %rax	# p, tmp284
	movq	64(%rax), %rax	# p_12->fld[7].rtx, D.24407
	testq	%rax, %rax	# D.24407
	je	.L617	#,
	.loc 1 2791 0 is_stmt 1
	movq	uid_loop(%rip), %rdx	# uid_loop, uid_loop.286
	movq	-144(%rbp), %rax	# p, tmp285
	movq	64(%rax), %rax	# p_12->fld[7].rtx, D.24407
	movl	8(%rax), %eax	# _111->fld[0].rtint, D.24404
	cltq
	salq	$3, %rax	#, D.24406
	addq	%rdx, %rax	# uid_loop.286, D.24408
	movq	(%rax), %rax	# *_115, D.24405
	cmpq	-88(%rbp), %rax	# this_loop, D.24405
	je	.L617	#,
	.loc 1 2792 0
	movq	-88(%rbp), %rax	# this_loop, tmp286
	movq	%rax, -136(%rbp)	# tmp286, outer_loop
.L617:
	.loc 1 2803 0
	cmpq	$0, -136(%rbp)	#, outer_loop
	jne	.L604	#,
	.loc 1 2804 0
	movq	-144(%rbp), %rax	# p, tmp287
	movzwl	(%rax), %eax	# p_12->code, D.24403
	cmpw	$33, %ax	#, D.24403
	jne	.L604	#,
	.loc 1 2805 0
	movq	-144(%rbp), %rax	# p, tmp288
	movq	64(%rax), %rax	# p_12->fld[7].rtx, D.24407
	testq	%rax, %rax	# D.24407
	je	.L604	#,
	.loc 1 2808 0
	movq	-144(%rbp), %rax	# p, tmp289
	movq	64(%rax), %rax	# p_12->fld[7].rtx, D.24407
	movl	8(%rax), %eax	# _120->fld[0].rtint, D.24404
	testl	%eax, %eax	# D.24404
	je	.L604	#,
	.loc 1 2809 0
	movq	-144(%rbp), %rax	# p, tmp290
	movq	%rax, %rdi	# tmp290,
	call	any_condjump_p	#
	testl	%eax, %eax	# D.24404
	je	.L604	#,
	.loc 1 2809 0 is_stmt 0 discriminator 1
	movq	-144(%rbp), %rax	# p, tmp291
	movq	%rax, %rdi	# tmp291,
	call	onlyjump_p	#
	testl	%eax, %eax	# D.24404
	je	.L604	#,
	.loc 1 2810 0 is_stmt 1
	movq	-144(%rbp), %rax	# p, tmp292
	movq	64(%rax), %rax	# p_12->fld[7].rtx, D.24407
	movq	%rax, %rdi	# D.24407,
	call	next_real_insn	#
	cmpq	-72(%rbp), %rax	# our_next, D.24407
	jne	.L604	#,
	.loc 1 2813 0
	movq	-176(%rbp), %rax	# insn, tmp293
	movq	24(%rax), %rcx	# insn_4->fld[2].rtx, D.24407
	leaq	-192(%rbp), %rdx	#, tmp294
	movq	-144(%rbp), %rax	# p, tmp295
	movq	%rcx, %rsi	# D.24407,
	movq	%rax, %rdi	# tmp295,
	call	insns_safe_to_move_p	#
	testl	%eax, %eax	# D.24404
	je	.L604	#,
.LBB36:
	.loc 1 2817 0
	movq	-176(%rbp), %rax	# insn, tmp296
	movq	64(%rax), %rax	# insn_4->fld[7].rtx, D.24407
	testq	%rax, %rax	# D.24407
	je	.L619	#,
	.loc 1 2817 0 is_stmt 0 discriminator 1
	movq	-176(%rbp), %rax	# insn, tmp297
	movq	64(%rax), %rax	# insn_4->fld[7].rtx, iftmp.287
	jmp	.L620	#
.L619:
	.loc 1 2817 0 discriminator 2
	call	get_last_insn	#
.L620:
	.loc 1 2816 0 is_stmt 1
	movq	%rax, -56(%rbp)	# iftmp.287, target
	.loc 1 2818 0
	movq	uid_loop(%rip), %rdx	# uid_loop, uid_loop.288
	movq	-56(%rbp), %rax	# target, tmp298
	movl	8(%rax), %eax	# target_131->fld[0].rtint, D.24404
	cltq
	salq	$3, %rax	#, D.24406
	addq	%rdx, %rax	# uid_loop.288, D.24408
	movq	(%rax), %rax	# *_136, tmp299
	movq	%rax, -48(%rbp)	# tmp299, target_loop
	.loc 1 2824 0
	movq	-192(%rbp), %rax	# last_insn_to_move, tmp300
	movq	%rax, -120(%rbp)	# tmp300, tmp
	jmp	.L621	#
.L624:
	.loc 1 2826 0
	movq	-120(%rbp), %rax	# tmp, tmp301
	movzwl	(%rax), %eax	# tmp_20->code, D.24403
	cmpw	$35, %ax	#, D.24403
	jne	.L622	#,
	.loc 1 2827 0
	movq	-120(%rbp), %rax	# tmp, tmp302
	movq	%rax, -192(%rbp)	# tmp302, last_insn_to_move
.L622:
	.loc 1 2825 0
	movq	-120(%rbp), %rax	# tmp, tmp303
	movq	24(%rax), %rax	# tmp_20->fld[2].rtx, tmp304
	movq	%rax, -120(%rbp)	# tmp304, tmp
.L621:
	.loc 1 2824 0 discriminator 1
	cmpq	$0, -120(%rbp)	#, tmp
	je	.L623	#,
	.loc 1 2825 0
	movq	-120(%rbp), %rax	# tmp, tmp305
	movzwl	(%rax), %eax	# tmp_20->code, D.24403
	cmpw	$36, %ax	#, D.24403
	jne	.L624	#,
.L623:
	.loc 1 2829 0
	movq	-56(%rbp), %rax	# target, tmp306
	movq	%rax, -128(%rbp)	# tmp306, loc
	jmp	.L625	#
.L629:
	.loc 1 2830 0
	movq	-128(%rbp), %rax	# loc, tmp307
	movzwl	(%rax), %eax	# loc_16->code, D.24403
	cmpw	$35, %ax	#, D.24403
	jne	.L626	#,
	.loc 1 2832 0
	movq	-128(%rbp), %rax	# loc, tmp308
	movq	%rax, %rdi	# tmp308,
	call	next_nonnote_insn	#
	movq	%rax, -40(%rbp)	# tmp309, loc2
	cmpq	$0, -40(%rbp)	#, loc2
	je	.L627	#,
	.loc 1 2833 0
	movq	-40(%rbp), %rax	# loc2, tmp310
	movzwl	(%rax), %eax	# loc2_144->code, D.24403
	cmpw	$36, %ax	#, D.24403
	jne	.L627	#,
	.loc 1 2834 0
	movq	-40(%rbp), %rax	# loc2, tmp311
	movq	%rax, %rdi	# tmp311,
	call	next_nonnote_insn	#
	movq	%rax, -40(%rbp)	# tmp312, loc2
	cmpq	$0, -40(%rbp)	#, loc2
	je	.L627	#,
	.loc 1 2835 0
	movq	-40(%rbp), %rax	# loc2, tmp313
	movzwl	(%rax), %eax	# loc2_146->code, D.24403
	cmpw	$33, %ax	#, D.24403
	jne	.L627	#,
	.loc 1 2836 0
	movq	-40(%rbp), %rax	# loc2, tmp314
	movq	32(%rax), %rax	# loc2_146->fld[3].rtx, D.24407
	movzwl	(%rax), %eax	# _148->code, D.24403
	cmpw	$44, %ax	#, D.24403
	je	.L626	#,
	.loc 1 2837 0
	movq	-40(%rbp), %rax	# loc2, tmp315
	movq	32(%rax), %rax	# loc2_146->fld[3].rtx, D.24407
	movzwl	(%rax), %eax	# _150->code, D.24403
	cmpw	$45, %ax	#, D.24403
	je	.L626	#,
.L627:
	.loc 1 2838 0
	movq	uid_loop(%rip), %rdx	# uid_loop, uid_loop.289
	movq	-128(%rbp), %rax	# loc, tmp316
	movl	8(%rax), %eax	# loc_16->fld[0].rtint, D.24404
	cltq
	salq	$3, %rax	#, D.24406
	addq	%rdx, %rax	# uid_loop.289, D.24408
	movq	(%rax), %rax	# *_156, D.24405
	cmpq	-48(%rbp), %rax	# target_loop, D.24405
	jne	.L626	#,
	.loc 1 2839 0
	jmp	.L628	#
.L626:
	.loc 1 2829 0
	movq	-128(%rbp), %rax	# loc, tmp317
	movq	16(%rax), %rax	# loc_16->fld[1].rtx, tmp318
	movq	%rax, -128(%rbp)	# tmp318, loc
.L625:
	.loc 1 2829 0 is_stmt 0 discriminator 1
	cmpq	$0, -128(%rbp)	#, loc
	jne	.L629	#,
.L628:
	.loc 1 2841 0 is_stmt 1
	cmpq	$0, -128(%rbp)	#, loc
	jne	.L630	#,
	.loc 1 2842 0
	movq	-56(%rbp), %rax	# target, tmp319
	movq	%rax, -128(%rbp)	# tmp319, loc
	jmp	.L631	#
.L634:
	.loc 1 2843 0
	movq	-128(%rbp), %rax	# loc, tmp320
	movzwl	(%rax), %eax	# loc_17->code, D.24403
	cmpw	$35, %ax	#, D.24403
	jne	.L632	#,
	.loc 1 2845 0
	movq	-128(%rbp), %rax	# loc, tmp321
	movq	%rax, %rdi	# tmp321,
	call	next_nonnote_insn	#
	movq	%rax, -40(%rbp)	# tmp322, loc2
	cmpq	$0, -40(%rbp)	#, loc2
	je	.L633	#,
	.loc 1 2846 0
	movq	-40(%rbp), %rax	# loc2, tmp323
	movzwl	(%rax), %eax	# loc2_161->code, D.24403
	cmpw	$36, %ax	#, D.24403
	jne	.L633	#,
	.loc 1 2847 0
	movq	-40(%rbp), %rax	# loc2, tmp324
	movq	%rax, %rdi	# tmp324,
	call	next_nonnote_insn	#
	movq	%rax, -40(%rbp)	# tmp325, loc2
	cmpq	$0, -40(%rbp)	#, loc2
	je	.L633	#,
	.loc 1 2848 0
	movq	-40(%rbp), %rax	# loc2, tmp326
	movzwl	(%rax), %eax	# loc2_163->code, D.24403
	cmpw	$33, %ax	#, D.24403
	jne	.L633	#,
	.loc 1 2849 0
	movq	-40(%rbp), %rax	# loc2, tmp327
	movq	32(%rax), %rax	# loc2_163->fld[3].rtx, D.24407
	movzwl	(%rax), %eax	# _165->code, D.24403
	cmpw	$44, %ax	#, D.24403
	je	.L632	#,
	.loc 1 2850 0
	movq	-40(%rbp), %rax	# loc2, tmp328
	movq	32(%rax), %rax	# loc2_163->fld[3].rtx, D.24407
	movzwl	(%rax), %eax	# _167->code, D.24403
	cmpw	$45, %ax	#, D.24403
	je	.L632	#,
.L633:
	.loc 1 2851 0
	movq	uid_loop(%rip), %rdx	# uid_loop, uid_loop.290
	movq	-128(%rbp), %rax	# loc, tmp329
	movl	8(%rax), %eax	# loc_17->fld[0].rtint, D.24404
	cltq
	salq	$3, %rax	#, D.24406
	addq	%rdx, %rax	# uid_loop.290, D.24408
	movq	(%rax), %rax	# *_173, D.24405
	cmpq	-48(%rbp), %rax	# target_loop, D.24405
	jne	.L632	#,
	.loc 1 2852 0
	jmp	.L630	#
.L632:
	.loc 1 2842 0
	movq	-128(%rbp), %rax	# loc, tmp330
	movq	24(%rax), %rax	# loc_17->fld[2].rtx, tmp331
	movq	%rax, -128(%rbp)	# tmp331, loc
.L631:
	.loc 1 2842 0 is_stmt 0 discriminator 1
	cmpq	$0, -128(%rbp)	#, loc
	jne	.L634	#,
.L630:
	.loc 1 2854 0 is_stmt 1
	cmpq	$0, -128(%rbp)	#, loc
	je	.L604	#,
.LBB37:
	.loc 1 2856 0
	movq	-144(%rbp), %rax	# p, tmp332
	movq	64(%rax), %rax	# p_12->fld[7].rtx, tmp333
	movq	%rax, -32(%rbp)	# tmp333, cond_label
	.loc 1 2857 0
	movq	-144(%rbp), %rax	# p, tmp334
	movq	%rax, %rdi	# tmp334,
	call	get_label_after	#
	movq	%rax, -184(%rbp)	# new_label.291, new_label
	.loc 1 2860 0
	movq	-32(%rbp), %rax	# cond_label, tmp335
	movl	32(%rax), %eax	# cond_label_176->fld[3].rtint, D.24404
	leal	1(%rax), %edx	#, D.24404
	movq	-32(%rbp), %rax	# cond_label, tmp336
	movl	%edx, 32(%rax)	# D.24404, cond_label_176->fld[3].rtint
	.loc 1 2864 0
	movq	-184(%rbp), %rcx	# new_label, new_label.292
	movq	-144(%rbp), %rax	# p, tmp337
	movl	$1, %edx	#,
	movq	%rcx, %rsi	# new_label.292,
	movq	%rax, %rdi	# tmp337,
	call	invert_jump	#
	testl	%eax, %eax	# D.24404
	je	.L635	#,
.LBB38:
	.loc 1 2878 0
	cmpq	$0, -128(%rbp)	#, loc
	jne	.L636	#,
.LBB39:
	.loc 1 2882 0
	movq	-176(%rbp), %rax	# insn, tmp338
	movq	64(%rax), %rax	# insn_4->fld[7].rtx, D.24407
	movq	%rax, %rdi	# D.24407,
	call	gen_jump	#
	movq	%rax, -24(%rbp)	# tmp339, temp
	.loc 1 2883 0
	movq	-56(%rbp), %rdx	# target, tmp340
	movq	-24(%rbp), %rax	# temp, tmp341
	movq	%rdx, %rsi	# tmp340,
	movq	%rax, %rdi	# tmp341,
	call	emit_jump_insn_before	#
	movq	%rax, -24(%rbp)	# tmp342, temp
	.loc 1 2884 0
	movq	-176(%rbp), %rax	# insn, tmp343
	movq	64(%rax), %rdx	# insn_4->fld[7].rtx, D.24407
	movq	-24(%rbp), %rax	# temp, tmp344
	movq	%rdx, 64(%rax)	# D.24407, temp_184->fld[7].rtx
	.loc 1 2885 0
	movq	-176(%rbp), %rax	# insn, tmp345
	movq	64(%rax), %rax	# insn_4->fld[7].rtx, D.24407
	movl	32(%rax), %edx	# _186->fld[3].rtint, D.24404
	addl	$1, %edx	#, D.24404
	movl	%edx, 32(%rax)	# D.24404, _186->fld[3].rtint
	.loc 1 2886 0
	movq	-56(%rbp), %rax	# target, tmp346
	movq	%rax, %rdi	# tmp346,
	call	emit_barrier_before	#
	movq	%rax, -128(%rbp)	# tmp347, loc
.L636:
.LBE39:
	.loc 1 2891 0
	leaq	-192(%rbp), %rdx	#, tmp348
	leaq	-184(%rbp), %rax	#, tmp349
	movq	%rdx, %rsi	# tmp348,
	movq	%rax, %rdi	# tmp349,
	call	squeeze_notes	#
	testb	%al, %al	# D.24411
	je	.L637	#,
	.loc 1 2892 0
	movl	$__FUNCTION__.13028, %edx	#,
	movl	$2892, %esi	#,
	movl	$.LC0, %edi	#,
	call	fancy_abort	#
.L637:
	.loc 1 2893 0
	movq	-192(%rbp), %rcx	# last_insn_to_move, last_insn_to_move.293
	movq	-184(%rbp), %rax	# new_label, new_label.294
	movq	-128(%rbp), %rdx	# loc, tmp350
	movq	%rcx, %rsi	# last_insn_to_move.293,
	movq	%rax, %rdi	# new_label.294,
	call	reorder_insns	#
	.loc 1 2896 0
	movq	-184(%rbp), %rax	# new_label, tmp351
	movq	%rax, -112(%rbp)	# tmp351, q
	jmp	.L638	#
.L639:
	.loc 1 2899 0
	movq	uid_loop(%rip), %rdx	# uid_loop, uid_loop.295
	movq	-112(%rbp), %rax	# q, tmp352
	movl	8(%rax), %eax	# q_21->fld[0].rtint, D.24404
	cltq
	salq	$3, %rax	#, D.24406
	addq	%rax, %rdx	# D.24406, D.24408
	movq	-48(%rbp), %rax	# target_loop, tmp353
	movq	%rax, (%rdx)	# tmp353, *_200
	.loc 1 2898 0
	movq	-112(%rbp), %rax	# q, tmp354
	movq	24(%rax), %rax	# q_21->fld[2].rtx, tmp355
	movq	%rax, -112(%rbp)	# tmp355, q
.L638:
	.loc 1 2897 0 discriminator 1
	movq	-192(%rbp), %rax	# last_insn_to_move, last_insn_to_move.296
	movq	24(%rax), %rax	# last_insn_to_move.296_194->fld[2].rtx, D.24407
	.loc 1 2896 0 discriminator 1
	cmpq	-112(%rbp), %rax	# q, D.24407
	jne	.L639	#,
	.loc 1 2906 0
	movq	-176(%rbp), %rax	# insn, tmp356
	movq	64(%rax), %rax	# insn_4->fld[7].rtx, D.24407
	testq	%rax, %rax	# D.24407
	je	.L640	#,
	.loc 1 2908 0
	movq	$0, -112(%rbp)	#, q
	movq	-88(%rbp), %rax	# this_loop, tmp357
	movq	232(%rax), %rax	# this_loop_69->exit_labels, tmp358
	movq	%rax, -104(%rbp)	# tmp358, r
	jmp	.L641	#
.L646:
	.loc 1 2911 0
	movq	-104(%rbp), %rax	# r, tmp359
	movq	8(%rax), %rdx	# r_23->fld[0].rtx, D.24407
	movq	-176(%rbp), %rax	# insn, tmp360
	movq	64(%rax), %rax	# insn_4->fld[7].rtx, D.24407
	cmpq	%rax, %rdx	# D.24407, D.24407
	jne	.L642	#,
	.loc 1 2913 0
	movq	-104(%rbp), %rax	# r, tmp361
	movzbl	3(%rax), %edx	# r_23->in_struct, tmp364
	andl	$-17, %edx	#, tmp365
	movb	%dl, 3(%rax)	# tmp365, r_23->in_struct
	.loc 1 2914 0
	cmpq	$0, -112(%rbp)	#, q
	je	.L643	#,
	.loc 1 2915 0
	movq	-104(%rbp), %rax	# r, tmp366
	movq	16(%rax), %rdx	# r_23->fld[1].rtx, D.24407
	movq	-112(%rbp), %rax	# q, tmp367
	movq	%rdx, 16(%rax)	# D.24407, q_22->fld[1].rtx
	.loc 1 2918 0
	jmp	.L645	#
.L643:
	.loc 1 2917 0
	movq	-104(%rbp), %rax	# r, tmp368
	movq	16(%rax), %rdx	# r_23->fld[1].rtx, D.24407
	movq	-88(%rbp), %rax	# this_loop, tmp369
	movq	%rdx, 232(%rax)	# D.24407, this_loop_69->exit_labels
	.loc 1 2918 0
	jmp	.L645	#
.L642:
	.loc 1 2910 0
	movq	-104(%rbp), %rax	# r, tmp370
	movq	%rax, -112(%rbp)	# tmp370, q
	movq	-104(%rbp), %rax	# r, tmp371
	movq	16(%rax), %rax	# r_23->fld[1].rtx, tmp372
	movq	%rax, -104(%rbp)	# tmp372, r
.L641:
	.loc 1 2908 0 discriminator 1
	cmpq	$0, -104(%rbp)	#, r
	jne	.L646	#,
.L645:
	.loc 1 2921 0
	movq	-88(%rbp), %rax	# this_loop, tmp373
	movq	%rax, -152(%rbp)	# tmp373, loop
	jmp	.L647	#
.L649:
	.loc 1 2923 0
	movq	-152(%rbp), %rax	# loop, tmp374
	movl	240(%rax), %eax	# loop_11->exit_count, D.24404
	leal	-1(%rax), %edx	#, D.24404
	movq	-152(%rbp), %rax	# loop, tmp375
	movl	%edx, 240(%rax)	# D.24404, loop_11->exit_count
	.loc 1 2922 0
	movq	-152(%rbp), %rax	# loop, tmp376
	movq	128(%rax), %rax	# loop_11->outer, tmp377
	movq	%rax, -152(%rbp)	# tmp377, loop
.L647:
	.loc 1 2921 0 discriminator 1
	cmpq	$0, -152(%rbp)	#, loop
	je	.L648	#,
	.loc 1 2921 0 is_stmt 0 discriminator 2
	movq	-152(%rbp), %rax	# loop, tmp378
	cmpq	-48(%rbp), %rax	# target_loop, tmp378
	jne	.L649	#,
.L648:
	.loc 1 2927 0 is_stmt 1
	cmpq	$0, -104(%rbp)	#, r
	jne	.L640	#,
	.loc 1 2928 0
	movl	$__FUNCTION__.13028, %edx	#,
	movl	$2928, %esi	#,
	movl	$.LC0, %edi	#,
	call	fancy_abort	#
.L640:
	.loc 1 2935 0
	movq	-144(%rbp), %rax	# p, tmp379
	movq	32(%rax), %rax	# p_12->fld[3].rtx, D.24407
	movq	-88(%rbp), %rdx	# this_loop, tmp380
	movq	%rdx, %rsi	# tmp380,
	movq	%rax, %rdi	# D.24407,
	call	mark_loop_jump	#
	.loc 1 2939 0
	movq	-176(%rbp), %rax	# insn, tmp381
	movq	64(%rax), %rax	# insn_4->fld[7].rtx, D.24407
	testq	%rax, %rax	# D.24407
	je	.L635	#,
	.loc 1 2940 0
	movq	-176(%rbp), %rax	# insn, tmp382
	movq	64(%rax), %rax	# insn_4->fld[7].rtx, D.24407
	movq	%rax, %rdi	# D.24407,
	call	next_real_insn	#
	movq	%rax, %rbx	#, D.24407
	.loc 1 2941 0
	movq	-176(%rbp), %rax	# insn, tmp383
	movq	%rax, %rdi	# tmp383,
	call	next_real_insn	#
	.loc 1 2940 0
	cmpq	%rax, %rbx	# D.24407, D.24407
	jne	.L635	#,
	.loc 1 2942 0
	movq	-176(%rbp), %rax	# insn, tmp384
	movq	%rax, %rdi	# tmp384,
	call	delete_related_insns	#
.L635:
.LBE38:
	.loc 1 2949 0
	movq	-32(%rbp), %rax	# cond_label, tmp385
	movq	24(%rax), %rax	# cond_label_176->fld[2].rtx, tmp386
	movq	%rax, -176(%rbp)	# tmp386, insn
	.loc 1 2951 0
	movq	-32(%rbp), %rax	# cond_label, tmp387
	movl	32(%rax), %eax	# cond_label_176->fld[3].rtint, D.24404
	leal	-1(%rax), %edx	#, D.24404
	movq	-32(%rbp), %rax	# cond_label, tmp388
	movl	%edx, 32(%rax)	# D.24404, cond_label_176->fld[3].rtint
	movq	-32(%rbp), %rax	# cond_label, tmp389
	movl	32(%rax), %eax	# cond_label_176->fld[3].rtint, D.24404
	testl	%eax, %eax	# D.24404
	jne	.L650	#,
	.loc 1 2952 0
	movq	-32(%rbp), %rax	# cond_label, tmp390
	movq	%rax, %rdi	# tmp390,
	call	delete_related_insns	#
.L650:
	.loc 1 2955 0
	movq	-176(%rbp), %rax	# insn, tmp391
	movq	16(%rax), %rax	# insn_220->fld[1].rtx, tmp392
	movq	%rax, -176(%rbp)	# tmp392, insn
.L604:
.LBE37:
.LBE36:
.LBE35:
.LBE33:
	.loc 1 2731 0
	movq	-176(%rbp), %rax	# insn, tmp393
	movq	24(%rax), %rax	# insn_3->fld[2].rtx, tmp394
	movq	%rax, -176(%rbp)	# tmp394, insn
.L603:
	.loc 1 2731 0 is_stmt 0 discriminator 1
	cmpq	$0, -176(%rbp)	#, insn
	jne	.L651	#,
	.loc 1 2960 0 is_stmt 1
	addq	$216, %rsp	#,
	popq	%rbx	#
	popq	%rbp	#
	.cfi_def_cfa 7, 8
	ret
	.cfi_endproc
.LFE25:
	.size	find_and_verify_loops, .-find_and_verify_loops
	.section	.rodata
	.align 8
.LC19:
	.string	"\nLoop at %d ignored due to multiple entry points.\n"
	.align 8
.LC20:
	.string	"\nLoop at %d ignored due to unknown exit jump.\n"
	.text
	.type	mark_loop_jump, @function
mark_loop_jump:
.LFB26:
	.loc 1 2971 0
	.cfi_startproc
	pushq	%rbp	#
	.cfi_def_cfa_offset 16
	.cfi_offset 6, -16
	movq	%rsp, %rbp	#,
	.cfi_def_cfa_register 6
	subq	$48, %rsp	#,
	movq	%rdi, -40(%rbp)	# x, x
	movq	%rsi, -48(%rbp)	# loop, loop
	.loc 1 2976 0
	movq	-40(%rbp), %rax	# x, tmp98
	movzwl	(%rax), %eax	# x_9(D)->code, D.24414
	movzwl	%ax, %eax	# D.24414, D.24415
	subl	$39, %eax	#, tmp99
	cmpl	$96, %eax	#, tmp99
	ja	.L653	#,
	movl	%eax, %eax	# tmp99, tmp100
	movq	.L655(,%rax,8), %rax	#, tmp101
	jmp	*%rax	# tmp101
	.section	.rodata
	.align 8
	.align 4
.L655:
	.quad	.L654
	.quad	.L653
	.quad	.L653
	.quad	.L653
	.quad	.L653
	.quad	.L654
	.quad	.L656
	.quad	.L653
	.quad	.L657
	.quad	.L691
	.quad	.L691
	.quad	.L653
	.quad	.L691
	.quad	.L653
	.quad	.L653
	.quad	.L691
	.quad	.L691
	.quad	.L653
	.quad	.L653
	.quad	.L659
	.quad	.L691
	.quad	.L653
	.quad	.L691
	.quad	.L653
	.quad	.L653
	.quad	.L653
	.quad	.L653
	.quad	.L691
	.quad	.L660
	.quad	.L653
	.quad	.L653
	.quad	.L653
	.quad	.L653
	.quad	.L661
	.quad	.L653
	.quad	.L653
	.quad	.L662
	.quad	.L662
	.quad	.L653
	.quad	.L662
	.quad	.L653
	.quad	.L653
	.quad	.L653
	.quad	.L653
	.quad	.L653
	.quad	.L653
	.quad	.L653
	.quad	.L653
	.quad	.L653
	.quad	.L653
	.quad	.L653
	.quad	.L653
	.quad	.L653
	.quad	.L653
	.quad	.L653
	.quad	.L653
	.quad	.L653
	.quad	.L653
	.quad	.L653
	.quad	.L653
	.quad	.L653
	.quad	.L653
	.quad	.L653
	.quad	.L653
	.quad	.L653
	.quad	.L653
	.quad	.L653
	.quad	.L653
	.quad	.L653
	.quad	.L653
	.quad	.L653
	.quad	.L653
	.quad	.L653
	.quad	.L653
	.quad	.L653
	.quad	.L653
	.quad	.L653
	.quad	.L653
	.quad	.L653
	.quad	.L653
	.quad	.L653
	.quad	.L663
	.quad	.L663
	.quad	.L653
	.quad	.L653
	.quad	.L653
	.quad	.L653
	.quad	.L653
	.quad	.L653
	.quad	.L653
	.quad	.L653
	.quad	.L653
	.quad	.L653
	.quad	.L653
	.quad	.L653
	.quad	.L653
	.quad	.L664
	.text
.L659:
	.loc 1 2990 0
	movq	-40(%rbp), %rax	# x, tmp102
	movq	8(%rax), %rax	# x_9(D)->fld[0].rtx, D.24416
	movq	-48(%rbp), %rdx	# loop, tmp103
	movq	%rdx, %rsi	# tmp103,
	movq	%rax, %rdi	# D.24416,
	call	mark_loop_jump	#
	.loc 1 2991 0
	jmp	.L652	#
.L662:
	.loc 1 2996 0
	movq	-40(%rbp), %rax	# x, tmp104
	movq	8(%rax), %rax	# x_9(D)->fld[0].rtx, D.24416
	movq	-48(%rbp), %rdx	# loop, tmp105
	movq	%rdx, %rsi	# tmp105,
	movq	%rax, %rdi	# D.24416,
	call	mark_loop_jump	#
	.loc 1 2997 0
	movq	-40(%rbp), %rax	# x, tmp106
	movq	16(%rax), %rax	# x_9(D)->fld[1].rtx, D.24416
	movq	-48(%rbp), %rdx	# loop, tmp107
	movq	%rdx, %rsi	# tmp107,
	movq	%rax, %rdi	# D.24416,
	call	mark_loop_jump	#
	.loc 1 2998 0
	jmp	.L652	#
.L664:
	.loc 1 3002 0
	movq	-40(%rbp), %rax	# x, tmp108
	movq	16(%rax), %rax	# x_9(D)->fld[1].rtx, D.24416
	movq	-48(%rbp), %rdx	# loop, tmp109
	movq	%rdx, %rsi	# tmp109,
	movq	%rax, %rdi	# D.24416,
	call	mark_loop_jump	#
	.loc 1 3003 0
	jmp	.L652	#
.L663:
	.loc 1 3007 0
	movq	-40(%rbp), %rax	# x, tmp110
	movq	8(%rax), %rax	# x_9(D)->fld[0].rtx, D.24416
	movq	-48(%rbp), %rdx	# loop, tmp111
	movq	%rdx, %rsi	# tmp111,
	movq	%rax, %rdi	# D.24416,
	call	mark_loop_jump	#
	.loc 1 3008 0
	jmp	.L652	#
.L660:
	.loc 1 3011 0
	movq	uid_loop(%rip), %rdx	# uid_loop, uid_loop.297
	movq	-40(%rbp), %rax	# x, tmp112
	movq	8(%rax), %rax	# x_9(D)->fld[0].rtx, D.24416
	movl	8(%rax), %eax	# _19->fld[0].rtint, D.24417
	cltq
	salq	$3, %rax	#, D.24418
	addq	%rdx, %rax	# uid_loop.297, D.24419
	movq	(%rax), %rax	# *_23, tmp113
	movq	%rax, -16(%rbp)	# tmp113, dest_loop
	.loc 1 3020 0
	cmpq	$0, -16(%rbp)	#, dest_loop
	je	.L666	#,
	.loc 1 3022 0
	movq	-16(%rbp), %rax	# dest_loop, tmp114
	movq	%rax, -8(%rbp)	# tmp114, outer_loop
	jmp	.L667	#
.L670:
	.loc 1 3024 0
	movq	-8(%rbp), %rax	# outer_loop, tmp115
	cmpq	-48(%rbp), %rax	# loop, tmp115
	jne	.L668	#,
	.loc 1 3025 0
	nop
	jmp	.L671	#
.L668:
	.loc 1 3023 0
	movq	-8(%rbp), %rax	# outer_loop, tmp116
	movq	128(%rax), %rax	# outer_loop_2->outer, tmp117
	movq	%rax, -8(%rbp)	# tmp117, outer_loop
.L667:
	.loc 1 3022 0 discriminator 1
	cmpq	$0, -8(%rbp)	#, outer_loop
	jne	.L670	#,
	jmp	.L671	#
.L666:
	.loc 1 3028 0
	movq	$0, -8(%rbp)	#, outer_loop
.L671:
	.loc 1 3030 0
	cmpq	$0, -48(%rbp)	#, loop
	je	.L672	#,
	.loc 1 3030 0 is_stmt 0 discriminator 1
	cmpq	$0, -8(%rbp)	#, outer_loop
	jne	.L672	#,
	.loc 1 3032 0 is_stmt 1
	movq	-40(%rbp), %rax	# x, tmp118
	movzbl	3(%rax), %edx	# x_9(D)->in_struct, tmp121
	orl	$16, %edx	#, tmp122
	movb	%dl, 3(%rax)	# tmp122, x_9(D)->in_struct
	.loc 1 3033 0
	movq	-48(%rbp), %rax	# loop, tmp123
	movq	232(%rax), %rdx	# loop_13(D)->exit_labels, D.24416
	movq	-40(%rbp), %rax	# x, tmp124
	movq	%rdx, 16(%rax)	# D.24416, x_9(D)->fld[1].rtx
	.loc 1 3034 0
	movq	-48(%rbp), %rax	# loop, tmp125
	movq	-40(%rbp), %rdx	# x, tmp126
	movq	%rdx, 232(%rax)	# tmp126, loop_13(D)->exit_labels
	.loc 1 3036 0
	movq	-48(%rbp), %rax	# loop, tmp127
	movq	%rax, -8(%rbp)	# tmp127, outer_loop
	jmp	.L673	#
.L674:
	.loc 1 3039 0
	movq	-8(%rbp), %rax	# outer_loop, tmp128
	movl	240(%rax), %eax	# outer_loop_4->exit_count, D.24417
	leal	1(%rax), %edx	#, D.24417
	movq	-8(%rbp), %rax	# outer_loop, tmp129
	movl	%edx, 240(%rax)	# D.24417, outer_loop_4->exit_count
	.loc 1 3038 0
	movq	-8(%rbp), %rax	# outer_loop, tmp130
	movq	128(%rax), %rax	# outer_loop_4->outer, tmp131
	movq	%rax, -8(%rbp)	# tmp131, outer_loop
.L673:
	.loc 1 3036 0 discriminator 1
	cmpq	$0, -8(%rbp)	#, outer_loop
	je	.L672	#,
	.loc 1 3037 0
	movq	-8(%rbp), %rax	# outer_loop, tmp132
	cmpq	-16(%rbp), %rax	# dest_loop, tmp132
	jne	.L674	#,
.L672:
	.loc 1 3045 0
	cmpq	$0, -16(%rbp)	#, dest_loop
	jne	.L675	#,
	.loc 1 3046 0
	jmp	.L652	#
.L675:
	.loc 1 3051 0
	jmp	.L676	#
.L681:
	.loc 1 3054 0
	movq	-48(%rbp), %rax	# loop, tmp133
	movq	%rax, -8(%rbp)	# tmp133, outer_loop
	jmp	.L677	#
.L679:
	.loc 1 3055 0
	movq	-16(%rbp), %rax	# dest_loop, tmp134
	cmpq	-8(%rbp), %rax	# outer_loop, tmp134
	jne	.L678	#,
	.loc 1 3056 0
	jmp	.L652	#
.L678:
	.loc 1 3054 0
	movq	-8(%rbp), %rax	# outer_loop, tmp135
	movq	128(%rax), %rax	# outer_loop_5->outer, tmp136
	movq	%rax, -8(%rbp)	# tmp136, outer_loop
.L677:
	.loc 1 3054 0 is_stmt 0 discriminator 1
	cmpq	$0, -8(%rbp)	#, outer_loop
	jne	.L679	#,
	.loc 1 3059 0 is_stmt 1
