	.file	"md5.c"
# GNU C (Ubuntu/Linaro 4.8.1-10ubuntu9) version 4.8.1 (x86_64-linux-gnu)
#	compiled by GNU C version 4.8.1, GMP version 5.1.2, MPFR version 3.1.1-p2, MPC version 1.0.1
# GGC heuristics: --param ggc-min-expand=100 --param ggc-min-heapsize=131072
# options passed:  -I . -imultiarch x86_64-linux-gnu -D SPEC_CPU -D NDEBUG
# -D SPEC_CPU_LP64 md5.c -mtune=generic -march=x86-64 -g -fverbose-asm
# -fno-strict-aliasing -fstack-protector -Wformat -Wformat-security
# options enabled:  -faggressive-loop-optimizations
# -fasynchronous-unwind-tables -fauto-inc-dec -fbranch-count-reg -fcommon
# -fdelete-null-pointer-checks -fdwarf2-cfi-asm -fearly-inlining
# -feliminate-unused-debug-types -ffunction-cse -fgcse-lm -fgnu-runtime
# -fident -finline-atomics -fira-hoist-pressure -fira-share-save-slots
# -fira-share-spill-slots -fivopts -fkeep-static-consts
# -fleading-underscore -fmath-errno -fmerge-debug-strings
# -fmove-loop-invariants -fpeephole -fprefetch-loop-arrays
# -freg-struct-return -fsched-critical-path-heuristic
# -fsched-dep-count-heuristic -fsched-group-heuristic -fsched-interblock
# -fsched-last-insn-heuristic -fsched-rank-heuristic -fsched-spec
# -fsched-spec-insn-heuristic -fsched-stalled-insns-dep -fshow-column
# -fsigned-zeros -fsplit-ivs-in-unroller -fstack-protector
# -fstrict-volatile-bitfields -fsync-libcalls -ftrapping-math
# -ftree-coalesce-vars -ftree-cselim -ftree-forwprop -ftree-loop-if-convert
# -ftree-loop-im -ftree-loop-ivcanon -ftree-loop-optimize
# -ftree-parallelize-loops= -ftree-phiprop -ftree-pta -ftree-reassoc
# -ftree-scev-cprop -ftree-slp-vectorize -ftree-vect-loop-version
# -funit-at-a-time -funwind-tables -fverbose-asm -fzero-initialized-in-bss
# -m128bit-long-double -m64 -m80387 -maccumulate-outgoing-args
# -malign-stringops -mfancy-math-387 -mfp-ret-in-387 -mfxsr -mglibc
# -mieee-fp -mlong-double-80 -mmmx -mno-sse4 -mpush-args -mred-zone -msse
# -msse2 -mtls-direct-seg-refs

	.text
.Ltext0:
	.section	.rodata
	.align 32
	.type	fillbuf, @object
	.size	fillbuf, 64
fillbuf:
	.byte	-128
	.byte	0
	.zero	62
	.text
	.globl	md5_init_ctx
	.type	md5_init_ctx, @function
md5_init_ctx:
.LFB2:
	.file 1 "md5.c"
	.loc 1 65 0
	.cfi_startproc
	pushq	%rbp	#
	.cfi_def_cfa_offset 16
	.cfi_offset 6, -16
	movq	%rsp, %rbp	#,
	.cfi_def_cfa_register 6
	movq	%rdi, -8(%rbp)	# ctx, ctx
	.loc 1 66 0
	movq	-8(%rbp), %rax	# ctx, tmp60
	movl	$1732584193, (%rax)	#, ctx_1(D)->A
	.loc 1 67 0
	movq	-8(%rbp), %rax	# ctx, tmp61
	movl	$-271733879, 4(%rax)	#, ctx_1(D)->B
	.loc 1 68 0
	movq	-8(%rbp), %rax	# ctx, tmp62
	movl	$-1732584194, 8(%rax)	#, ctx_1(D)->C
	.loc 1 69 0
	movq	-8(%rbp), %rax	# ctx, tmp63
	movl	$271733878, 12(%rax)	#, ctx_1(D)->D
	.loc 1 71 0
	movq	-8(%rbp), %rax	# ctx, tmp64
	movl	$0, 20(%rax)	#, ctx_1(D)->total
	movq	-8(%rbp), %rax	# ctx, tmp65
	movl	20(%rax), %edx	# ctx_1(D)->total, D.5944
	movq	-8(%rbp), %rax	# ctx, tmp66
	movl	%edx, 16(%rax)	# D.5944, ctx_1(D)->total
	.loc 1 72 0
	movq	-8(%rbp), %rax	# ctx, tmp67
	movl	$0, 24(%rax)	#, ctx_1(D)->buflen
	.loc 1 73 0
	popq	%rbp	#
	.cfi_def_cfa 7, 8
	ret
	.cfi_endproc
.LFE2:
	.size	md5_init_ctx, .-md5_init_ctx
	.globl	md5_read_ctx
	.type	md5_read_ctx, @function
md5_read_ctx:
.LFB3:
	.loc 1 84 0
	.cfi_startproc
	pushq	%rbp	#
	.cfi_def_cfa_offset 16
	.cfi_offset 6, -16
	movq	%rsp, %rbp	#,
	.cfi_def_cfa_register 6
	movq	%rdi, -8(%rbp)	# ctx, ctx
	movq	%rsi, -16(%rbp)	# resbuf, resbuf
	.loc 1 85 0
	movq	-8(%rbp), %rax	# ctx, tmp68
	movl	(%rax), %edx	# ctx_1(D)->A, D.5945
	movq	-16(%rbp), %rax	# resbuf, tmp69
	movl	%edx, (%rax)	# D.5945, MEM[(md5_uint32 *)resbuf_3(D)]
	.loc 1 86 0
	movq	-16(%rbp), %rax	# resbuf, tmp70
	leaq	4(%rax), %rdx	#, D.5946
	movq	-8(%rbp), %rax	# ctx, tmp71
	movl	4(%rax), %eax	# ctx_1(D)->B, D.5945
	movl	%eax, (%rdx)	# D.5945, *_4
	.loc 1 87 0
	movq	-16(%rbp), %rax	# resbuf, tmp72
	leaq	8(%rax), %rdx	#, D.5946
	movq	-8(%rbp), %rax	# ctx, tmp73
	movl	8(%rax), %eax	# ctx_1(D)->C, D.5945
	movl	%eax, (%rdx)	# D.5945, *_6
	.loc 1 88 0
	movq	-16(%rbp), %rax	# resbuf, tmp74
	leaq	12(%rax), %rdx	#, D.5946
	movq	-8(%rbp), %rax	# ctx, tmp75
	movl	12(%rax), %eax	# ctx_1(D)->D, D.5945
	movl	%eax, (%rdx)	# D.5945, *_8
	.loc 1 90 0
	movq	-16(%rbp), %rax	# resbuf, D.5947
	.loc 1 91 0
	popq	%rbp	#
	.cfi_def_cfa 7, 8
	ret
	.cfi_endproc
.LFE3:
	.size	md5_read_ctx, .-md5_read_ctx
	.globl	md5_finish_ctx
	.type	md5_finish_ctx, @function
md5_finish_ctx:
.LFB4:
	.loc 1 102 0
	.cfi_startproc
	pushq	%rbp	#
	.cfi_def_cfa_offset 16
	.cfi_offset 6, -16
	movq	%rsp, %rbp	#,
	.cfi_def_cfa_register 6
	subq	$32, %rsp	#,
	movq	%rdi, -24(%rbp)	# ctx, ctx
	movq	%rsi, -32(%rbp)	# resbuf, resbuf
	.loc 1 104 0
	movq	-24(%rbp), %rax	# ctx, tmp88
	movl	24(%rax), %eax	# ctx_2(D)->buflen, tmp89
	movl	%eax, -12(%rbp)	# tmp89, bytes
	.loc 1 108 0
	movq	-24(%rbp), %rax	# ctx, tmp90
	movl	16(%rax), %edx	# ctx_2(D)->total, D.5948
	movl	-12(%rbp), %eax	# bytes, tmp91
	addl	%eax, %edx	# tmp91, D.5948
	movq	-24(%rbp), %rax	# ctx, tmp92
	movl	%edx, 16(%rax)	# D.5948, ctx_2(D)->total
	.loc 1 109 0
	movq	-24(%rbp), %rax	# ctx, tmp93
	movl	16(%rax), %eax	# ctx_2(D)->total, D.5948
	cmpl	-12(%rbp), %eax	# bytes, D.5948
	jae	.L5	#,
	.loc 1 110 0
	movq	-24(%rbp), %rax	# ctx, tmp94
	movl	20(%rax), %eax	# ctx_2(D)->total, D.5948
	leal	1(%rax), %edx	#, D.5948
	movq	-24(%rbp), %rax	# ctx, tmp95
	movl	%edx, 20(%rax)	# D.5948, ctx_2(D)->total
.L5:
	.loc 1 112 0
	cmpl	$55, -12(%rbp)	#, bytes
	jbe	.L6	#,
	.loc 1 112 0 is_stmt 0 discriminator 1
	movl	$120, %eax	#, tmp96
	subl	-12(%rbp), %eax	# bytes, D.5948
	movl	%eax, %eax	# D.5948, iftmp.0
	jmp	.L7	#
.L6:
	.loc 1 112 0 discriminator 2
	movl	$56, %eax	#, tmp97
	subl	-12(%rbp), %eax	# bytes, D.5948
	movl	%eax, %eax	# D.5948, iftmp.0
.L7:
	.loc 1 112 0 discriminator 3
	movq	%rax, -8(%rbp)	# iftmp.0, pad
	.loc 1 113 0 is_stmt 1 discriminator 3
	movl	-12(%rbp), %eax	# bytes, tmp98
	leaq	16(%rax), %rdx	#, tmp99
	movq	-24(%rbp), %rax	# ctx, tmp101
	addq	%rdx, %rax	# tmp99, tmp100
	leaq	12(%rax), %rcx	#, D.5949
	movq	-8(%rbp), %rax	# pad, tmp102
	movq	%rax, %rdx	# tmp102,
	movl	$fillbuf, %esi	#,
	movq	%rcx, %rdi	# D.5949,
	call	memcpy	#
	.loc 1 116 0 discriminator 3
	movl	-12(%rbp), %edx	# bytes, D.5950
	movq	-8(%rbp), %rax	# pad, tmp103
	addq	%rdx, %rax	# D.5950, D.5950
	leaq	16(%rax), %rdx	#, tmp104
	movq	-24(%rbp), %rax	# ctx, tmp106
	addq	%rdx, %rax	# tmp104, tmp105
	leaq	12(%rax), %rdx	#, D.5949
	movq	-24(%rbp), %rax	# ctx, tmp107
	movl	16(%rax), %eax	# ctx_2(D)->total, D.5948
	sall	$3, %eax	#, D.5948
	movl	%eax, (%rdx)	# D.5948, MEM[(md5_uint32 *)_17]
	.loc 1 117 0 discriminator 3
	movl	-12(%rbp), %edx	# bytes, D.5950
	movq	-8(%rbp), %rax	# pad, tmp108
	addq	%rdx, %rax	# D.5950, D.5950
	addq	$4, %rax	#, D.5950
	leaq	16(%rax), %rdx	#, tmp109
	movq	-24(%rbp), %rax	# ctx, tmp111
	addq	%rdx, %rax	# tmp109, tmp110
	leaq	12(%rax), %rdx	#, D.5949
	movq	-24(%rbp), %rax	# ctx, tmp112
	movl	20(%rax), %eax	# ctx_2(D)->total, D.5948
	leal	0(,%rax,8), %ecx	#, D.5948
	movq	-24(%rbp), %rax	# ctx, tmp113
	movl	16(%rax), %eax	# ctx_2(D)->total, D.5948
	shrl	$29, %eax	#, D.5948
	orl	%ecx, %eax	# D.5948, D.5948
	movl	%eax, (%rdx)	# D.5948, MEM[(md5_uint32 *)_23]
	.loc 1 121 0 discriminator 3
	movl	-12(%rbp), %edx	# bytes, D.5950
	movq	-8(%rbp), %rax	# pad, tmp114
	addq	%rdx, %rax	# D.5950, D.5950
	leaq	8(%rax), %rsi	#, D.5950
	movq	-24(%rbp), %rax	# ctx, tmp115
	leaq	28(%rax), %rcx	#, D.5951
	movq	-24(%rbp), %rax	# ctx, tmp116
	movq	%rax, %rdx	# tmp116,
	movq	%rcx, %rdi	# D.5951,
	call	md5_process_block	#
	.loc 1 123 0 discriminator 3
	movq	-32(%rbp), %rdx	# resbuf, tmp117
	movq	-24(%rbp), %rax	# ctx, tmp118
	movq	%rdx, %rsi	# tmp117,
	movq	%rax, %rdi	# tmp118,
	call	md5_read_ctx	#
	.loc 1 124 0 discriminator 3
	leave
	.cfi_def_cfa 7, 8
	ret
	.cfi_endproc
.LFE4:
	.size	md5_finish_ctx, .-md5_finish_ctx
	.globl	md5_stream
	.type	md5_stream, @function
md5_stream:
.LFB5:
	.loc 1 133 0
	.cfi_startproc
	pushq	%rbp	#
	.cfi_def_cfa_offset 16
	.cfi_offset 6, -16
	movq	%rsp, %rbp	#,
	.cfi_def_cfa_register 6
	pushq	%rbx	#
	subq	$4376, %rsp	#,
	.cfi_offset 3, -24
	movq	%rdi, -4376(%rbp)	# stream, stream
	movq	%rsi, -4384(%rbp)	# resblock, resblock
	.loc 1 133 0
	movq	%fs:40, %rax	#, tmp80
	movq	%rax, -24(%rbp)	# tmp80, D.5956
	xorl	%eax, %eax	# tmp80
	.loc 1 141 0
	leaq	-4352(%rbp), %rax	#, tmp64
	movq	%rax, %rdi	# tmp64,
	call	md5_init_ctx	#
.L16:
.LBB2:
	.loc 1 150 0
	movq	$0, -4368(%rbp)	#, sum
.L11:
	.loc 1 155 0 discriminator 1
	movl	$4096, %eax	#, tmp65
	subq	-4368(%rbp), %rax	# sum, D.5954
	leaq	-4192(%rbp), %rcx	#, tmp66
	movq	-4368(%rbp), %rdx	# sum, tmp67
	leaq	(%rcx,%rdx), %rdi	#, D.5955
	movq	-4376(%rbp), %rdx	# stream, tmp68
	movq	%rdx, %rcx	# tmp68,
	movq	%rax, %rdx	# D.5954,
	movl	$1, %esi	#,
	call	fread	#
	movq	%rax, -4360(%rbp)	# tmp69, n
	.loc 1 157 0 discriminator 1
	movq	-4360(%rbp), %rax	# n, tmp70
	addq	%rax, -4368(%rbp)	# tmp70, sum
	.loc 1 159 0 discriminator 1
	cmpq	$4095, -4368(%rbp)	#, sum
	ja	.L10	#,
	cmpq	$0, -4360(%rbp)	#, n
	jne	.L11	#,
.L10:
	.loc 1 160 0
	cmpq	$0, -4360(%rbp)	#, n
	jne	.L12	#,
	.loc 1 160 0 is_stmt 0 discriminator 1
	movq	-4376(%rbp), %rax	# stream, tmp71
	movq	%rax, %rdi	# tmp71,
	call	ferror	#
	testl	%eax, %eax	# D.5953
	je	.L12	#,
	.loc 1 161 0 is_stmt 1
	movl	$1, %eax	#, D.5953
	jmp	.L18	#
.L12:
	.loc 1 164 0
	cmpq	$0, -4360(%rbp)	#, n
	jne	.L14	#,
	.loc 1 165 0
	nop
.LBE2:
	.loc 1 174 0
	cmpq	$0, -4368(%rbp)	#, sum
	je	.L17	#,
	jmp	.L20	#
.L14:
.LBB3:
	.loc 1 170 0
	leaq	-4352(%rbp), %rdx	#, tmp72
	leaq	-4192(%rbp), %rax	#, tmp73
	movl	$4096, %esi	#,
	movq	%rax, %rdi	# tmp73,
	call	md5_process_block	#
.LBE3:
	.loc 1 171 0
	jmp	.L16	#
.L20:
	.loc 1 175 0
	leaq	-4352(%rbp), %rdx	#, tmp74
	movq	-4368(%rbp), %rcx	# sum, tmp75
	leaq	-4192(%rbp), %rax	#, tmp76
	movq	%rcx, %rsi	# tmp75,
	movq	%rax, %rdi	# tmp76,
	call	md5_process_bytes	#
.L17:
	.loc 1 178 0
	movq	-4384(%rbp), %rdx	# resblock, tmp77
	leaq	-4352(%rbp), %rax	#, tmp78
	movq	%rdx, %rsi	# tmp77,
	movq	%rax, %rdi	# tmp78,
	call	md5_finish_ctx	#
	.loc 1 179 0
	movl	$0, %eax	#, D.5953
.L18:
	.loc 1 180 0
	movq	-24(%rbp), %rbx	# D.5956, tmp81
	xorq	%fs:40, %rbx	#, tmp81
	je	.L19	#,
	call	__stack_chk_fail	#
.L19:
	addq	$4376, %rsp	#,
	popq	%rbx	#
	popq	%rbp	#
	.cfi_def_cfa 7, 8
	ret
	.cfi_endproc
.LFE5:
	.size	md5_stream, .-md5_stream
	.globl	md5_buffer
	.type	md5_buffer, @function
md5_buffer:
.LFB6:
	.loc 1 191 0
	.cfi_startproc
	pushq	%rbp	#
	.cfi_def_cfa_offset 16
	.cfi_offset 6, -16
	movq	%rsp, %rbp	#,
	.cfi_def_cfa_register 6
	pushq	%rbx	#
	subq	$216, %rsp	#,
	.cfi_offset 3, -24
	movq	%rdi, -200(%rbp)	# buffer, buffer
	movq	%rsi, -208(%rbp)	# len, len
	movq	%rdx, -216(%rbp)	# resblock, resblock
	.loc 1 191 0
	movq	%fs:40, %rax	#, tmp68
	movq	%rax, -24(%rbp)	# tmp68, D.5960
	xorl	%eax, %eax	# tmp68
	.loc 1 195 0
	leaq	-192(%rbp), %rax	#, tmp61
	movq	%rax, %rdi	# tmp61,
	call	md5_init_ctx	#
	.loc 1 198 0
	leaq	-192(%rbp), %rdx	#, tmp62
	movq	-208(%rbp), %rcx	# len, tmp63
	movq	-200(%rbp), %rax	# buffer, tmp64
	movq	%rcx, %rsi	# tmp63,
	movq	%rax, %rdi	# tmp64,
	call	md5_process_bytes	#
	.loc 1 201 0
	movq	-216(%rbp), %rdx	# resblock, tmp65
	leaq	-192(%rbp), %rax	#, tmp66
	movq	%rdx, %rsi	# tmp65,
	movq	%rax, %rdi	# tmp66,
	call	md5_finish_ctx	#
	.loc 1 202 0
	movq	-24(%rbp), %rbx	# D.5960, tmp69
	xorq	%fs:40, %rbx	#, tmp69
	je	.L23	#,
	call	__stack_chk_fail	#
.L23:
	addq	$216, %rsp	#,
	popq	%rbx	#
	popq	%rbp	#
	.cfi_def_cfa 7, 8
	ret
	.cfi_endproc
.LFE6:
	.size	md5_buffer, .-md5_buffer
	.globl	md5_process_bytes
	.type	md5_process_bytes, @function
md5_process_bytes:
.LFB7:
	.loc 1 210 0
	.cfi_startproc
	pushq	%rbp	#
	.cfi_def_cfa_offset 16
	.cfi_offset 6, -16
	movq	%rsp, %rbp	#,
	.cfi_def_cfa_register 6
	subq	$48, %rsp	#,
	movq	%rdi, -24(%rbp)	# buffer, buffer
	movq	%rsi, -32(%rbp)	# len, len
	movq	%rdx, -40(%rbp)	# ctx, ctx
	.loc 1 213 0
	movq	-40(%rbp), %rax	# ctx, tmp84
	movl	24(%rax), %eax	# ctx_5(D)->buflen, D.5961
	testl	%eax, %eax	# D.5961
	je	.L25	#,
.LBB4:
	.loc 1 215 0
	movq	-40(%rbp), %rax	# ctx, tmp85
	movl	24(%rax), %eax	# ctx_5(D)->buflen, D.5961
	movl	%eax, %eax	# D.5961, tmp126
	movq	%rax, -16(%rbp)	# tmp126, left_over
	.loc 1 216 0
	movl	$128, %eax	#, tmp86
	subq	-16(%rbp), %rax	# left_over, D.5962
	movq	%rax, %rdx	# D.5962, D.5962
	movq	-32(%rbp), %rax	# len, tmp88
	cmpq	%rax, %rdx	# tmp88, D.5962
	cmovbe	%rdx, %rax	# D.5962,, tmp87
	movq	%rax, -8(%rbp)	# tmp87, add
	.loc 1 218 0
	movq	-16(%rbp), %rax	# left_over, tmp90
	leaq	16(%rax), %rdx	#, tmp89
	movq	-40(%rbp), %rax	# ctx, tmp92
	addq	%rdx, %rax	# tmp89, tmp91
	leaq	12(%rax), %rcx	#, D.5963
	movq	-8(%rbp), %rdx	# add, tmp93
	movq	-24(%rbp), %rax	# buffer, tmp94
	movq	%rax, %rsi	# tmp94,
	movq	%rcx, %rdi	# D.5963,
	call	memcpy	#
	.loc 1 219 0
	movq	-40(%rbp), %rax	# ctx, tmp95
	movl	24(%rax), %edx	# ctx_5(D)->buflen, D.5961
	movq	-8(%rbp), %rax	# add, tmp96
	addl	%eax, %edx	# D.5961, D.5961
	movq	-40(%rbp), %rax	# ctx, tmp97
	movl	%edx, 24(%rax)	# D.5961, ctx_5(D)->buflen
	.loc 1 221 0
	movq	-8(%rbp), %rax	# add, tmp98
	movq	-16(%rbp), %rdx	# left_over, tmp99
	addq	%rdx, %rax	# tmp99, D.5962
	cmpq	$64, %rax	#, D.5962
	jbe	.L26	#,
	.loc 1 223 0
	movq	-8(%rbp), %rax	# add, tmp100
	movq	-16(%rbp), %rdx	# left_over, tmp101
	addq	%rdx, %rax	# tmp101, D.5962
	andq	$-64, %rax	#, D.5962
	movq	%rax, %rsi	# D.5962, D.5962
	movq	-40(%rbp), %rax	# ctx, tmp102
	leaq	28(%rax), %rcx	#, D.5964
	movq	-40(%rbp), %rax	# ctx, tmp103
	movq	%rax, %rdx	# tmp103,
	movq	%rcx, %rdi	# D.5964,
	call	md5_process_block	#
	.loc 1 226 0
	movq	-8(%rbp), %rax	# add, tmp104
	movq	-16(%rbp), %rdx	# left_over, tmp105
	addq	%rdx, %rax	# tmp105, D.5962
	.loc 1 225 0
	andl	$63, %eax	#, D.5962
	movq	%rax, %rdx	# D.5962, D.5962
	movq	-8(%rbp), %rax	# add, tmp106
	movq	-16(%rbp), %rcx	# left_over, tmp107
	addq	%rcx, %rax	# tmp107, D.5962
	andq	$-64, %rax	#, D.5962
	leaq	16(%rax), %rcx	#, tmp108
	movq	-40(%rbp), %rax	# ctx, tmp110
	addq	%rcx, %rax	# tmp108, tmp109
	leaq	12(%rax), %rcx	#, D.5963
	movq	-40(%rbp), %rax	# ctx, tmp111
	addq	$28, %rax	#, D.5964
	movq	%rcx, %rsi	# D.5963,
	movq	%rax, %rdi	# D.5964,
	call	memcpy	#
	.loc 1 227 0
	movq	-16(%rbp), %rax	# left_over, tmp112
	movl	%eax, %edx	# tmp112, D.5961
	movq	-8(%rbp), %rax	# add, tmp113
	addl	%edx, %eax	# D.5961, D.5961
	andl	$63, %eax	#, D.5961
	movl	%eax, %edx	# D.5961, D.5961
	movq	-40(%rbp), %rax	# ctx, tmp114
	movl	%edx, 24(%rax)	# D.5961, ctx_5(D)->buflen
.L26:
	.loc 1 230 0
	movq	-8(%rbp), %rax	# add, tmp115
	addq	%rax, -24(%rbp)	# tmp115, buffer
	.loc 1 231 0
	movq	-8(%rbp), %rax	# add, tmp116
	subq	%rax, -32(%rbp)	# tmp116, len
.L25:
.LBE4:
	.loc 1 235 0
	cmpq	$64, -32(%rbp)	#, len
	jbe	.L27	#,
	.loc 1 237 0
	movq	-32(%rbp), %rax	# len, tmp117
	andq	$-64, %rax	#, D.5962
	movq	%rax, %rcx	# D.5962, D.5962
	movq	-40(%rbp), %rdx	# ctx, tmp118
	movq	-24(%rbp), %rax	# buffer, tmp119
	movq	%rcx, %rsi	# D.5962,
	movq	%rax, %rdi	# tmp119,
	call	md5_process_block	#
	.loc 1 238 0
	movq	-32(%rbp), %rax	# len, tmp120
	andq	$-64, %rax	#, D.5965
	addq	%rax, -24(%rbp)	# D.5965, buffer
	.loc 1 239 0
	andq	$63, -32(%rbp)	#, len
.L27:
	.loc 1 243 0
	cmpq	$0, -32(%rbp)	#, len
	je	.L24	#,
	.loc 1 245 0
	movq	-40(%rbp), %rax	# ctx, tmp121
	leaq	28(%rax), %rcx	#, D.5964
	movq	-32(%rbp), %rdx	# len, tmp122
	movq	-24(%rbp), %rax	# buffer, tmp123
	movq	%rax, %rsi	# tmp123,
	movq	%rcx, %rdi	# D.5964,
	call	memcpy	#
	.loc 1 246 0
	movq	-32(%rbp), %rax	# len, tmp124
	movl	%eax, %edx	# tmp124, D.5961
	movq	-40(%rbp), %rax	# ctx, tmp125
	movl	%edx, 24(%rax)	# D.5961, ctx_5(D)->buflen
.L24:
	.loc 1 248 0
	leave
	.cfi_def_cfa 7, 8
	ret
	.cfi_endproc
.LFE7:
	.size	md5_process_bytes, .-md5_process_bytes
	.globl	md5_process_block
	.type	md5_process_block, @function
md5_process_block:
.LFB8:
	.loc 1 268 0
	.cfi_startproc
	pushq	%rbp	#
	.cfi_def_cfa_offset 16
	.cfi_offset 6, -16
	movq	%rsp, %rbp	#,
	.cfi_def_cfa_register 6
	subq	$32, %rsp	#,
	movq	%rdi, -136(%rbp)	# buffer, buffer
	movq	%rsi, -144(%rbp)	# len, len
	movq	%rdx, -152(%rbp)	# ctx, ctx
	.loc 1 270 0
	movq	-136(%rbp), %rax	# buffer, tmp467
	movq	%rax, -96(%rbp)	# tmp467, words
	.loc 1 271 0
	movq	-144(%rbp), %rax	# len, tmp469
	shrq	$2, %rax	#, tmp468
	movq	%rax, -88(%rbp)	# tmp468, nwords
	.loc 1 272 0
	movq	-88(%rbp), %rax	# nwords, tmp470
	leaq	0(,%rax,4), %rdx	#, D.5967
	movq	-96(%rbp), %rax	# words, tmp474
	addq	%rdx, %rax	# D.5967, tmp473
	movq	%rax, -80(%rbp)	# tmp473, endp
	.loc 1 273 0
	movq	-152(%rbp), %rax	# ctx, tmp475
	movl	(%rax), %eax	# ctx_12(D)->A, tmp476
	movl	%eax, -128(%rbp)	# tmp476, A
	.loc 1 274 0
	movq	-152(%rbp), %rax	# ctx, tmp477
	movl	4(%rax), %eax	# ctx_12(D)->B, tmp478
	movl	%eax, -124(%rbp)	# tmp478, B
	.loc 1 275 0
	movq	-152(%rbp), %rax	# ctx, tmp479
	movl	8(%rax), %eax	# ctx_12(D)->C, tmp480
	movl	%eax, -120(%rbp)	# tmp480, C
	.loc 1 276 0
	movq	-152(%rbp), %rax	# ctx, tmp481
	movl	12(%rax), %eax	# ctx_12(D)->D, tmp482
	movl	%eax, -116(%rbp)	# tmp482, D
	.loc 1 281 0
	movq	-152(%rbp), %rax	# ctx, tmp483
	movl	16(%rax), %edx	# ctx_12(D)->total, D.5968
	movq	-144(%rbp), %rax	# len, tmp484
	addl	%eax, %edx	# D.5968, D.5968
	movq	-152(%rbp), %rax	# ctx, tmp485
	movl	%edx, 16(%rax)	# D.5968, ctx_12(D)->total
	.loc 1 282 0
	movq	-152(%rbp), %rax	# ctx, tmp486
	movl	16(%rax), %eax	# ctx_12(D)->total, D.5968
	movl	%eax, %eax	# D.5968, D.5967
	cmpq	-144(%rbp), %rax	# len, D.5967
	jae	.L30	#,
	.loc 1 283 0
	movq	-152(%rbp), %rax	# ctx, tmp487
	movl	20(%rax), %eax	# ctx_12(D)->total, D.5968
	leal	1(%rax), %edx	#, D.5968
	movq	-152(%rbp), %rax	# ctx, tmp488
	movl	%edx, 20(%rax)	# D.5968, ctx_12(D)->total
	.loc 1 287 0
	jmp	.L31	#
.L30:
	jmp	.L31	#
.L32:
.LBB5:
	.loc 1 289 0
	leaq	-64(%rbp), %rax	#, tmp489
	movq	%rax, -72(%rbp)	# tmp489, cwp
	.loc 1 290 0
	movl	-128(%rbp), %eax	# A, tmp490
	movl	%eax, -112(%rbp)	# tmp490, A_save
	.loc 1 291 0
	movl	-124(%rbp), %eax	# B, tmp491
	movl	%eax, -108(%rbp)	# tmp491, B_save
	.loc 1 292 0
	movl	-120(%rbp), %eax	# C, tmp492
	movl	%eax, -104(%rbp)	# tmp492, C_save
	.loc 1 293 0
	movl	-116(%rbp), %eax	# D, tmp493
	movl	%eax, -100(%rbp)	# tmp493, D_save
	.loc 1 323 0
	movl	-116(%rbp), %eax	# D, tmp494
	movl	-120(%rbp), %edx	# C, tmp495
	xorl	%edx, %eax	# tmp495, D.5968
	andl	-124(%rbp), %eax	# B, D.5968
	xorl	-116(%rbp), %eax	# D, D.5968
	movl	%eax, %ecx	# D.5968, D.5968
	movq	-72(%rbp), %rax	# cwp, cwp.1
	leaq	4(%rax), %rdx	#, tmp496
	movq	%rdx, -72(%rbp)	# tmp496, cwp
	movq	-96(%rbp), %rdx	# words, tmp497
	movl	(%rdx), %edx	# *words_1, D.5968
	movl	%edx, (%rax)	# D.5968, *cwp.1_32
	movl	(%rax), %eax	# *cwp.1_32, D.5968
	leal	(%rcx,%rax), %edx	#, D.5968
	movl	-128(%rbp), %eax	# A, tmp498
	addl	%edx, %eax	# D.5968, D.5968
	subl	$680876936, %eax	#, tmp499
	movl	%eax, -128(%rbp)	# tmp499, A
	addq	$4, -96(%rbp)	#, words
	rorl	$25, -128(%rbp)	#, A
	movl	-124(%rbp), %eax	# B, tmp500
	addl	%eax, -128(%rbp)	# tmp500, A
	.loc 1 324 0
	movl	-120(%rbp), %eax	# C, tmp501
	movl	-124(%rbp), %edx	# B, tmp502
	xorl	%edx, %eax	# tmp502, D.5968
	andl	-128(%rbp), %eax	# A, D.5968
	xorl	-120(%rbp), %eax	# C, D.5968
	movl	%eax, %ecx	# D.5968, D.5968
	movq	-72(%rbp), %rax	# cwp, cwp.2
	leaq	4(%rax), %rdx	#, tmp503
	movq	%rdx, -72(%rbp)	# tmp503, cwp
	movq	-96(%rbp), %rdx	# words, tmp504
	movl	(%rdx), %edx	# *words_39, D.5968
	movl	%edx, (%rax)	# D.5968, *cwp.2_45
	movl	(%rax), %eax	# *cwp.2_45, D.5968
	leal	(%rcx,%rax), %edx	#, D.5968
	movl	-116(%rbp), %eax	# D, tmp505
	addl	%edx, %eax	# D.5968, D.5968
	subl	$389564586, %eax	#, tmp506
	movl	%eax, -116(%rbp)	# tmp506, D
	addq	$4, -96(%rbp)	#, words
	rorl	$20, -116(%rbp)	#, D
	movl	-128(%rbp), %eax	# A, tmp507
	addl	%eax, -116(%rbp)	# tmp507, D
	.loc 1 325 0
	movl	-124(%rbp), %eax	# B, tmp508
	movl	-128(%rbp), %edx	# A, tmp509
	xorl	%edx, %eax	# tmp509, D.5968
	andl	-116(%rbp), %eax	# D, D.5968
	xorl	-124(%rbp), %eax	# B, D.5968
	movl	%eax, %ecx	# D.5968, D.5968
	movq	-72(%rbp), %rax	# cwp, cwp.3
	leaq	4(%rax), %rdx	#, tmp510
	movq	%rdx, -72(%rbp)	# tmp510, cwp
	movq	-96(%rbp), %rdx	# words, tmp511
	movl	(%rdx), %edx	# *words_52, D.5968
	movl	%edx, (%rax)	# D.5968, *cwp.3_58
	movl	(%rax), %eax	# *cwp.3_58, D.5968
	leal	(%rcx,%rax), %edx	#, D.5968
	movl	-120(%rbp), %eax	# C, tmp512
	addl	%edx, %eax	# D.5968, D.5968
	addl	$606105819, %eax	#, tmp513
	movl	%eax, -120(%rbp)	# tmp513, C
	addq	$4, -96(%rbp)	#, words
	rorl	$15, -120(%rbp)	#, C
	movl	-116(%rbp), %eax	# D, tmp514
	addl	%eax, -120(%rbp)	# tmp514, C
	.loc 1 326 0
	movl	-128(%rbp), %eax	# A, tmp515
	movl	-116(%rbp), %edx	# D, tmp516
	xorl	%edx, %eax	# tmp516, D.5968
	andl	-120(%rbp), %eax	# C, D.5968
	xorl	-128(%rbp), %eax	# A, D.5968
	movl	%eax, %ecx	# D.5968, D.5968
	movq	-72(%rbp), %rax	# cwp, cwp.4
	leaq	4(%rax), %rdx	#, tmp517
	movq	%rdx, -72(%rbp)	# tmp517, cwp
	movq	-96(%rbp), %rdx	# words, tmp518
	movl	(%rdx), %edx	# *words_65, D.5968
	movl	%edx, (%rax)	# D.5968, *cwp.4_71
	movl	(%rax), %eax	# *cwp.4_71, D.5968
	leal	(%rcx,%rax), %edx	#, D.5968
	movl	-124(%rbp), %eax	# B, tmp519
	addl	%edx, %eax	# D.5968, D.5968
	subl	$1044525330, %eax	#, tmp520
	movl	%eax, -124(%rbp)	# tmp520, B
	addq	$4, -96(%rbp)	#, words
	rorl	$10, -124(%rbp)	#, B
	movl	-120(%rbp), %eax	# C, tmp521
	addl	%eax, -124(%rbp)	# tmp521, B
	.loc 1 327 0
	movl	-116(%rbp), %eax	# D, tmp522
	movl	-120(%rbp), %edx	# C, tmp523
	xorl	%edx, %eax	# tmp523, D.5968
	andl	-124(%rbp), %eax	# B, D.5968
	xorl	-116(%rbp), %eax	# D, D.5968
	movl	%eax, %ecx	# D.5968, D.5968
	movq	-72(%rbp), %rax	# cwp, cwp.5
	leaq	4(%rax), %rdx	#, tmp524
	movq	%rdx, -72(%rbp)	# tmp524, cwp
	movq	-96(%rbp), %rdx	# words, tmp525
	movl	(%rdx), %edx	# *words_78, D.5968
	movl	%edx, (%rax)	# D.5968, *cwp.5_84
	movl	(%rax), %eax	# *cwp.5_84, D.5968
	leal	(%rcx,%rax), %edx	#, D.5968
	movl	-128(%rbp), %eax	# A, tmp526
	addl	%edx, %eax	# D.5968, D.5968
	subl	$176418897, %eax	#, tmp527
	movl	%eax, -128(%rbp)	# tmp527, A
	addq	$4, -96(%rbp)	#, words
	rorl	$25, -128(%rbp)	#, A
	movl	-124(%rbp), %eax	# B, tmp528
	addl	%eax, -128(%rbp)	# tmp528, A
	.loc 1 328 0
	movl	-120(%rbp), %eax	# C, tmp529
	movl	-124(%rbp), %edx	# B, tmp530
	xorl	%edx, %eax	# tmp530, D.5968
	andl	-128(%rbp), %eax	# A, D.5968
	xorl	-120(%rbp), %eax	# C, D.5968
	movl	%eax, %ecx	# D.5968, D.5968
	movq	-72(%rbp), %rax	# cwp, cwp.6
	leaq	4(%rax), %rdx	#, tmp531
	movq	%rdx, -72(%rbp)	# tmp531, cwp
	movq	-96(%rbp), %rdx	# words, tmp532
	movl	(%rdx), %edx	# *words_91, D.5968
	movl	%edx, (%rax)	# D.5968, *cwp.6_97
	movl	(%rax), %eax	# *cwp.6_97, D.5968
	leal	(%rcx,%rax), %edx	#, D.5968
	movl	-116(%rbp), %eax	# D, tmp533
	addl	%edx, %eax	# D.5968, D.5968
	addl	$1200080426, %eax	#, tmp534
	movl	%eax, -116(%rbp)	# tmp534, D
	addq	$4, -96(%rbp)	#, words
	rorl	$20, -116(%rbp)	#, D
	movl	-128(%rbp), %eax	# A, tmp535
	addl	%eax, -116(%rbp)	# tmp535, D
	.loc 1 329 0
	movl	-124(%rbp), %eax	# B, tmp536
	movl	-128(%rbp), %edx	# A, tmp537
	xorl	%edx, %eax	# tmp537, D.5968
	andl	-116(%rbp), %eax	# D, D.5968
	xorl	-124(%rbp), %eax	# B, D.5968
	movl	%eax, %ecx	# D.5968, D.5968
	movq	-72(%rbp), %rax	# cwp, cwp.7
	leaq	4(%rax), %rdx	#, tmp538
	movq	%rdx, -72(%rbp)	# tmp538, cwp
	movq	-96(%rbp), %rdx	# words, tmp539
	movl	(%rdx), %edx	# *words_104, D.5968
	movl	%edx, (%rax)	# D.5968, *cwp.7_110
	movl	(%rax), %eax	# *cwp.7_110, D.5968
	leal	(%rcx,%rax), %edx	#, D.5968
	movl	-120(%rbp), %eax	# C, tmp540
	addl	%edx, %eax	# D.5968, D.5968
	subl	$1473231341, %eax	#, tmp541
	movl	%eax, -120(%rbp)	# tmp541, C
	addq	$4, -96(%rbp)	#, words
	rorl	$15, -120(%rbp)	#, C
	movl	-116(%rbp), %eax	# D, tmp542
	addl	%eax, -120(%rbp)	# tmp542, C
	.loc 1 330 0
	movl	-128(%rbp), %eax	# A, tmp543
	movl	-116(%rbp), %edx	# D, tmp544
	xorl	%edx, %eax	# tmp544, D.5968
	andl	-120(%rbp), %eax	# C, D.5968
	xorl	-128(%rbp), %eax	# A, D.5968
	movl	%eax, %ecx	# D.5968, D.5968
	movq	-72(%rbp), %rax	# cwp, cwp.8
	leaq	4(%rax), %rdx	#, tmp545
	movq	%rdx, -72(%rbp)	# tmp545, cwp
	movq	-96(%rbp), %rdx	# words, tmp546
	movl	(%rdx), %edx	# *words_117, D.5968
	movl	%edx, (%rax)	# D.5968, *cwp.8_123
	movl	(%rax), %eax	# *cwp.8_123, D.5968
	leal	(%rcx,%rax), %edx	#, D.5968
	movl	-124(%rbp), %eax	# B, tmp547
	addl	%edx, %eax	# D.5968, D.5968
	subl	$45705983, %eax	#, tmp548
	movl	%eax, -124(%rbp)	# tmp548, B
	addq	$4, -96(%rbp)	#, words
	rorl	$10, -124(%rbp)	#, B
	movl	-120(%rbp), %eax	# C, tmp549
	addl	%eax, -124(%rbp)	# tmp549, B
	.loc 1 331 0
	movl	-116(%rbp), %eax	# D, tmp550
	movl	-120(%rbp), %edx	# C, tmp551
	xorl	%edx, %eax	# tmp551, D.5968
	andl	-124(%rbp), %eax	# B, D.5968
	xorl	-116(%rbp), %eax	# D, D.5968
	movl	%eax, %ecx	# D.5968, D.5968
	movq	-72(%rbp), %rax	# cwp, cwp.9
	leaq	4(%rax), %rdx	#, tmp552
	movq	%rdx, -72(%rbp)	# tmp552, cwp
	movq	-96(%rbp), %rdx	# words, tmp553
	movl	(%rdx), %edx	# *words_130, D.5968
	movl	%edx, (%rax)	# D.5968, *cwp.9_136
	movl	(%rax), %eax	# *cwp.9_136, D.5968
	leal	(%rcx,%rax), %edx	#, D.5968
	movl	-128(%rbp), %eax	# A, tmp554
	addl	%edx, %eax	# D.5968, D.5968
	addl	$1770035416, %eax	#, tmp555
	movl	%eax, -128(%rbp)	# tmp555, A
	addq	$4, -96(%rbp)	#, words
	rorl	$25, -128(%rbp)	#, A
	movl	-124(%rbp), %eax	# B, tmp556
	addl	%eax, -128(%rbp)	# tmp556, A
	.loc 1 332 0
	movl	-120(%rbp), %eax	# C, tmp557
	movl	-124(%rbp), %edx	# B, tmp558
	xorl	%edx, %eax	# tmp558, D.5968
	andl	-128(%rbp), %eax	# A, D.5968
	xorl	-120(%rbp), %eax	# C, D.5968
	movl	%eax, %ecx	# D.5968, D.5968
	movq	-72(%rbp), %rax	# cwp, cwp.10
	leaq	4(%rax), %rdx	#, tmp559
	movq	%rdx, -72(%rbp)	# tmp559, cwp
	movq	-96(%rbp), %rdx	# words, tmp560
	movl	(%rdx), %edx	# *words_143, D.5968
	movl	%edx, (%rax)	# D.5968, *cwp.10_149
	movl	(%rax), %eax	# *cwp.10_149, D.5968
	leal	(%rcx,%rax), %edx	#, D.5968
	movl	-116(%rbp), %eax	# D, tmp561
	addl	%edx, %eax	# D.5968, D.5968
	subl	$1958414417, %eax	#, tmp562
	movl	%eax, -116(%rbp)	# tmp562, D
	addq	$4, -96(%rbp)	#, words
	rorl	$20, -116(%rbp)	#, D
	movl	-128(%rbp), %eax	# A, tmp563
	addl	%eax, -116(%rbp)	# tmp563, D
	.loc 1 333 0
	movl	-124(%rbp), %eax	# B, tmp564
	movl	-128(%rbp), %edx	# A, tmp565
	xorl	%edx, %eax	# tmp565, D.5968
	andl	-116(%rbp), %eax	# D, D.5968
	xorl	-124(%rbp), %eax	# B, D.5968
	movl	%eax, %ecx	# D.5968, D.5968
	movq	-72(%rbp), %rax	# cwp, cwp.11
	leaq	4(%rax), %rdx	#, tmp566
	movq	%rdx, -72(%rbp)	# tmp566, cwp
	movq	-96(%rbp), %rdx	# words, tmp567
	movl	(%rdx), %edx	# *words_156, D.5968
	movl	%edx, (%rax)	# D.5968, *cwp.11_162
	movl	(%rax), %eax	# *cwp.11_162, D.5968
	leal	(%rcx,%rax), %edx	#, D.5968
	movl	-120(%rbp), %eax	# C, tmp568
	addl	%edx, %eax	# D.5968, D.5968
	subl	$42063, %eax	#, tmp569
	movl	%eax, -120(%rbp)	# tmp569, C
	addq	$4, -96(%rbp)	#, words
	rorl	$15, -120(%rbp)	#, C
	movl	-116(%rbp), %eax	# D, tmp570
	addl	%eax, -120(%rbp)	# tmp570, C
	.loc 1 334 0
	movl	-128(%rbp), %eax	# A, tmp571
	movl	-116(%rbp), %edx	# D, tmp572
	xorl	%edx, %eax	# tmp572, D.5968
	andl	-120(%rbp), %eax	# C, D.5968
	xorl	-128(%rbp), %eax	# A, D.5968
	movl	%eax, %ecx	# D.5968, D.5968
	movq	-72(%rbp), %rax	# cwp, cwp.12
	leaq	4(%rax), %rdx	#, tmp573
	movq	%rdx, -72(%rbp)	# tmp573, cwp
	movq	-96(%rbp), %rdx	# words, tmp574
	movl	(%rdx), %edx	# *words_169, D.5968
	movl	%edx, (%rax)	# D.5968, *cwp.12_175
	movl	(%rax), %eax	# *cwp.12_175, D.5968
	leal	(%rcx,%rax), %edx	#, D.5968
	movl	-124(%rbp), %eax	# B, tmp575
	addl	%edx, %eax	# D.5968, D.5968
	subl	$1990404162, %eax	#, tmp576
	movl	%eax, -124(%rbp)	# tmp576, B
	addq	$4, -96(%rbp)	#, words
	rorl	$10, -124(%rbp)	#, B
	movl	-120(%rbp), %eax	# C, tmp577
	addl	%eax, -124(%rbp)	# tmp577, B
	.loc 1 335 0
	movl	-116(%rbp), %eax	# D, tmp578
	movl	-120(%rbp), %edx	# C, tmp579
	xorl	%edx, %eax	# tmp579, D.5968
	andl	-124(%rbp), %eax	# B, D.5968
	xorl	-116(%rbp), %eax	# D, D.5968
	movl	%eax, %ecx	# D.5968, D.5968
	movq	-72(%rbp), %rax	# cwp, cwp.13
	leaq	4(%rax), %rdx	#, tmp580
	movq	%rdx, -72(%rbp)	# tmp580, cwp
	movq	-96(%rbp), %rdx	# words, tmp581
	movl	(%rdx), %edx	# *words_182, D.5968
	movl	%edx, (%rax)	# D.5968, *cwp.13_188
	movl	(%rax), %eax	# *cwp.13_188, D.5968
	leal	(%rcx,%rax), %edx	#, D.5968
	movl	-128(%rbp), %eax	# A, tmp582
	addl	%edx, %eax	# D.5968, D.5968
	addl	$1804603682, %eax	#, tmp583
	movl	%eax, -128(%rbp)	# tmp583, A
	addq	$4, -96(%rbp)	#, words
	rorl	$25, -128(%rbp)	#, A
	movl	-124(%rbp), %eax	# B, tmp584
	addl	%eax, -128(%rbp)	# tmp584, A
	.loc 1 336 0
	movl	-120(%rbp), %eax	# C, tmp585
	movl	-124(%rbp), %edx	# B, tmp586
	xorl	%edx, %eax	# tmp586, D.5968
	andl	-128(%rbp), %eax	# A, D.5968
	xorl	-120(%rbp), %eax	# C, D.5968
	movl	%eax, %ecx	# D.5968, D.5968
	movq	-72(%rbp), %rax	# cwp, cwp.14
	leaq	4(%rax), %rdx	#, tmp587
	movq	%rdx, -72(%rbp)	# tmp587, cwp
	movq	-96(%rbp), %rdx	# words, tmp588
	movl	(%rdx), %edx	# *words_195, D.5968
	movl	%edx, (%rax)	# D.5968, *cwp.14_201
	movl	(%rax), %eax	# *cwp.14_201, D.5968
	leal	(%rcx,%rax), %edx	#, D.5968
	movl	-116(%rbp), %eax	# D, tmp589
	addl	%edx, %eax	# D.5968, D.5968
	subl	$40341101, %eax	#, tmp590
	movl	%eax, -116(%rbp)	# tmp590, D
	addq	$4, -96(%rbp)	#, words
	rorl	$20, -116(%rbp)	#, D
	movl	-128(%rbp), %eax	# A, tmp591
	addl	%eax, -116(%rbp)	# tmp591, D
	.loc 1 337 0
	movl	-124(%rbp), %eax	# B, tmp592
	movl	-128(%rbp), %edx	# A, tmp593
	xorl	%edx, %eax	# tmp593, D.5968
	andl	-116(%rbp), %eax	# D, D.5968
	xorl	-124(%rbp), %eax	# B, D.5968
	movl	%eax, %ecx	# D.5968, D.5968
	movq	-72(%rbp), %rax	# cwp, cwp.15
	leaq	4(%rax), %rdx	#, tmp594
	movq	%rdx, -72(%rbp)	# tmp594, cwp
	movq	-96(%rbp), %rdx	# words, tmp595
	movl	(%rdx), %edx	# *words_208, D.5968
	movl	%edx, (%rax)	# D.5968, *cwp.15_214
	movl	(%rax), %eax	# *cwp.15_214, D.5968
	leal	(%rcx,%rax), %edx	#, D.5968
	movl	-120(%rbp), %eax	# C, tmp596
	addl	%edx, %eax	# D.5968, D.5968
	subl	$1502002290, %eax	#, tmp597
	movl	%eax, -120(%rbp)	# tmp597, C
	addq	$4, -96(%rbp)	#, words
	rorl	$15, -120(%rbp)	#, C
	movl	-116(%rbp), %eax	# D, tmp598
	addl	%eax, -120(%rbp)	# tmp598, C
	.loc 1 338 0
	movl	-128(%rbp), %eax	# A, tmp599
	movl	-116(%rbp), %edx	# D, tmp600
	xorl	%edx, %eax	# tmp600, D.5968
	andl	-120(%rbp), %eax	# C, D.5968
	xorl	-128(%rbp), %eax	# A, D.5968
	movl	%eax, %ecx	# D.5968, D.5968
	movq	-72(%rbp), %rax	# cwp, cwp.16
	leaq	4(%rax), %rdx	#, tmp601
	movq	%rdx, -72(%rbp)	# tmp601, cwp
	movq	-96(%rbp), %rdx	# words, tmp602
	movl	(%rdx), %edx	# *words_221, D.5968
	movl	%edx, (%rax)	# D.5968, *cwp.16_227
	movl	(%rax), %eax	# *cwp.16_227, D.5968
	leal	(%rcx,%rax), %edx	#, D.5968
	movl	-124(%rbp), %eax	# B, tmp603
	addl	%edx, %eax	# D.5968, D.5968
	addl	$1236535329, %eax	#, tmp604
	movl	%eax, -124(%rbp)	# tmp604, B
	addq	$4, -96(%rbp)	#, words
	rorl	$10, -124(%rbp)	#, B
	movl	-120(%rbp), %eax	# C, tmp605
	addl	%eax, -124(%rbp)	# tmp605, B
	.loc 1 354 0
	movl	-120(%rbp), %eax	# C, tmp606
	movl	-124(%rbp), %edx	# B, tmp607
	xorl	%edx, %eax	# tmp607, D.5968
	andl	-116(%rbp), %eax	# D, D.5968
	xorl	-120(%rbp), %eax	# C, D.5968
	movl	%eax, %edx	# D.5968, D.5968
	movl	-60(%rbp), %eax	# correct_words, D.5968
	addl	%eax, %edx	# D.5968, D.5968
	movl	-128(%rbp), %eax	# A, tmp608
	addl	%edx, %eax	# D.5968, D.5968
	subl	$165796510, %eax	#, tmp609
	movl	%eax, -128(%rbp)	# tmp609, A
	rorl	$27, -128(%rbp)	#, A
	movl	-124(%rbp), %eax	# B, tmp610
	addl	%eax, -128(%rbp)	# tmp610, A
	.loc 1 355 0
	movl	-124(%rbp), %eax	# B, tmp611
	movl	-128(%rbp), %edx	# A, tmp612
	xorl	%edx, %eax	# tmp612, D.5968
	andl	-120(%rbp), %eax	# C, D.5968
	xorl	-124(%rbp), %eax	# B, D.5968
	movl	%eax, %edx	# D.5968, D.5968
	movl	-40(%rbp), %eax	# correct_words, D.5968
	addl	%eax, %edx	# D.5968, D.5968
	movl	-116(%rbp), %eax	# D, tmp613
	addl	%edx, %eax	# D.5968, D.5968
	subl	$1069501632, %eax	#, tmp614
	movl	%eax, -116(%rbp)	# tmp614, D
	rorl	$23, -116(%rbp)	#, D
	movl	-128(%rbp), %eax	# A, tmp615
	addl	%eax, -116(%rbp)	# tmp615, D
	.loc 1 356 0
	movl	-128(%rbp), %eax	# A, tmp616
	movl	-116(%rbp), %edx	# D, tmp617
	xorl	%edx, %eax	# tmp617, D.5968
	andl	-124(%rbp), %eax	# B, D.5968
	xorl	-128(%rbp), %eax	# A, D.5968
	movl	%eax, %edx	# D.5968, D.5968
	movl	-20(%rbp), %eax	# correct_words, D.5968
	addl	%eax, %edx	# D.5968, D.5968
	movl	-120(%rbp), %eax	# C, tmp618
	addl	%edx, %eax	# D.5968, D.5968
	addl	$643717713, %eax	#, tmp619
	movl	%eax, -120(%rbp)	# tmp619, C
	rorl	$18, -120(%rbp)	#, C
	movl	-116(%rbp), %eax	# D, tmp620
	addl	%eax, -120(%rbp)	# tmp620, C
	.loc 1 357 0
	movl	-116(%rbp), %eax	# D, tmp621
	movl	-120(%rbp), %edx	# C, tmp622
	xorl	%edx, %eax	# tmp622, D.5968
	andl	-128(%rbp), %eax	# A, D.5968
	xorl	-116(%rbp), %eax	# D, D.5968
	movl	%eax, %edx	# D.5968, D.5968
	movl	-64(%rbp), %eax	# correct_words, D.5968
	addl	%eax, %edx	# D.5968, D.5968
	movl	-124(%rbp), %eax	# B, tmp623
	addl	%edx, %eax	# D.5968, D.5968
	subl	$373897302, %eax	#, tmp624
	movl	%eax, -124(%rbp)	# tmp624, B
	rorl	$12, -124(%rbp)	#, B
	movl	-120(%rbp), %eax	# C, tmp625
	addl	%eax, -124(%rbp)	# tmp625, B
	.loc 1 358 0
	movl	-120(%rbp), %eax	# C, tmp626
	movl	-124(%rbp), %edx	# B, tmp627
	xorl	%edx, %eax	# tmp627, D.5968
	andl	-116(%rbp), %eax	# D, D.5968
	xorl	-120(%rbp), %eax	# C, D.5968
	movl	%eax, %edx	# D.5968, D.5968
	movl	-44(%rbp), %eax	# correct_words, D.5968
	addl	%eax, %edx	# D.5968, D.5968
	movl	-128(%rbp), %eax	# A, tmp628
	addl	%edx, %eax	# D.5968, D.5968
	subl	$701558691, %eax	#, tmp629
	movl	%eax, -128(%rbp)	# tmp629, A
	rorl	$27, -128(%rbp)	#, A
	movl	-124(%rbp), %eax	# B, tmp630
	addl	%eax, -128(%rbp)	# tmp630, A
	.loc 1 359 0
	movl	-124(%rbp), %eax	# B, tmp631
	movl	-128(%rbp), %edx	# A, tmp632
	xorl	%edx, %eax	# tmp632, D.5968
	andl	-120(%rbp), %eax	# C, D.5968
	xorl	-124(%rbp), %eax	# B, D.5968
	movl	%eax, %edx	# D.5968, D.5968
	movl	-24(%rbp), %eax	# correct_words, D.5968
	addl	%eax, %edx	# D.5968, D.5968
	movl	-116(%rbp), %eax	# D, tmp633
	addl	%edx, %eax	# D.5968, D.5968
	addl	$38016083, %eax	#, tmp634
	movl	%eax, -116(%rbp)	# tmp634, D
	rorl	$23, -116(%rbp)	#, D
	movl	-128(%rbp), %eax	# A, tmp635
	addl	%eax, -116(%rbp)	# tmp635, D
	.loc 1 360 0
	movl	-128(%rbp), %eax	# A, tmp636
	movl	-116(%rbp), %edx	# D, tmp637
	xorl	%edx, %eax	# tmp637, D.5968
	andl	-124(%rbp), %eax	# B, D.5968
	xorl	-128(%rbp), %eax	# A, D.5968
	movl	%eax, %edx	# D.5968, D.5968
	movl	-4(%rbp), %eax	# correct_words, D.5968
	addl	%eax, %edx	# D.5968, D.5968
	movl	-120(%rbp), %eax	# C, tmp638
	addl	%edx, %eax	# D.5968, D.5968
	subl	$660478335, %eax	#, tmp639
	movl	%eax, -120(%rbp)	# tmp639, C
	rorl	$18, -120(%rbp)	#, C
	movl	-116(%rbp), %eax	# D, tmp640
	addl	%eax, -120(%rbp)	# tmp640, C
	.loc 1 361 0
	movl	-116(%rbp), %eax	# D, tmp641
	movl	-120(%rbp), %edx	# C, tmp642
	xorl	%edx, %eax	# tmp642, D.5968
	andl	-128(%rbp), %eax	# A, D.5968
	xorl	-116(%rbp), %eax	# D, D.5968
	movl	%eax, %edx	# D.5968, D.5968
	movl	-48(%rbp), %eax	# correct_words, D.5968
	addl	%eax, %edx	# D.5968, D.5968
	movl	-124(%rbp), %eax	# B, tmp643
	addl	%edx, %eax	# D.5968, D.5968
	subl	$405537848, %eax	#, tmp644
	movl	%eax, -124(%rbp)	# tmp644, B
	rorl	$12, -124(%rbp)	#, B
	movl	-120(%rbp), %eax	# C, tmp645
	addl	%eax, -124(%rbp)	# tmp645, B
	.loc 1 362 0
	movl	-120(%rbp), %eax	# C, tmp646
	movl	-124(%rbp), %edx	# B, tmp647
	xorl	%edx, %eax	# tmp647, D.5968
	andl	-116(%rbp), %eax	# D, D.5968
	xorl	-120(%rbp), %eax	# C, D.5968
	movl	%eax, %edx	# D.5968, D.5968
	movl	-28(%rbp), %eax	# correct_words, D.5968
	addl	%eax, %edx	# D.5968, D.5968
	movl	-128(%rbp), %eax	# A, tmp648
	addl	%edx, %eax	# D.5968, D.5968
	addl	$568446438, %eax	#, tmp649
	movl	%eax, -128(%rbp)	# tmp649, A
	rorl	$27, -128(%rbp)	#, A
	movl	-124(%rbp), %eax	# B, tmp650
	addl	%eax, -128(%rbp)	# tmp650, A
	.loc 1 363 0
	movl	-124(%rbp), %eax	# B, tmp651
	movl	-128(%rbp), %edx	# A, tmp652
	xorl	%edx, %eax	# tmp652, D.5968
	andl	-120(%rbp), %eax	# C, D.5968
	xorl	-124(%rbp), %eax	# B, D.5968
	movl	%eax, %edx	# D.5968, D.5968
	movl	-8(%rbp), %eax	# correct_words, D.5968
	addl	%eax, %edx	# D.5968, D.5968
	movl	-116(%rbp), %eax	# D, tmp653
	addl	%edx, %eax	# D.5968, D.5968
	subl	$1019803690, %eax	#, tmp654
	movl	%eax, -116(%rbp)	# tmp654, D
	rorl	$23, -116(%rbp)	#, D
	movl	-128(%rbp), %eax	# A, tmp655
	addl	%eax, -116(%rbp)	# tmp655, D
	.loc 1 364 0
	movl	-128(%rbp), %eax	# A, tmp656
	movl	-116(%rbp), %edx	# D, tmp657
	xorl	%edx, %eax	# tmp657, D.5968
	andl	-124(%rbp), %eax	# B, D.5968
	xorl	-128(%rbp), %eax	# A, D.5968
	movl	%eax, %edx	# D.5968, D.5968
	movl	-52(%rbp), %eax	# correct_words, D.5968
	addl	%eax, %edx	# D.5968, D.5968
	movl	-120(%rbp), %eax	# C, tmp658
	addl	%edx, %eax	# D.5968, D.5968
	subl	$187363961, %eax	#, tmp659
	movl	%eax, -120(%rbp)	# tmp659, C
	rorl	$18, -120(%rbp)	#, C
	movl	-116(%rbp), %eax	# D, tmp660
	addl	%eax, -120(%rbp)	# tmp660, C
	.loc 1 365 0
	movl	-116(%rbp), %eax	# D, tmp661
	movl	-120(%rbp), %edx	# C, tmp662
	xorl	%edx, %eax	# tmp662, D.5968
	andl	-128(%rbp), %eax	# A, D.5968
	xorl	-116(%rbp), %eax	# D, D.5968
	movl	%eax, %edx	# D.5968, D.5968
	movl	-32(%rbp), %eax	# correct_words, D.5968
	addl	%eax, %edx	# D.5968, D.5968
	movl	-124(%rbp), %eax	# B, tmp663
	addl	%edx, %eax	# D.5968, D.5968
	addl	$1163531501, %eax	#, tmp664
	movl	%eax, -124(%rbp)	# tmp664, B
	rorl	$12, -124(%rbp)	#, B
	movl	-120(%rbp), %eax	# C, tmp665
	addl	%eax, -124(%rbp)	# tmp665, B
	.loc 1 366 0
	movl	-120(%rbp), %eax	# C, tmp666
	movl	-124(%rbp), %edx	# B, tmp667
	xorl	%edx, %eax	# tmp667, D.5968
	andl	-116(%rbp), %eax	# D, D.5968
	xorl	-120(%rbp), %eax	# C, D.5968
	movl	%eax, %edx	# D.5968, D.5968
	movl	-12(%rbp), %eax	# correct_words, D.5968
	addl	%eax, %edx	# D.5968, D.5968
	movl	-128(%rbp), %eax	# A, tmp668
	addl	%edx, %eax	# D.5968, D.5968
	subl	$1444681467, %eax	#, tmp669
	movl	%eax, -128(%rbp)	# tmp669, A
	rorl	$27, -128(%rbp)	#, A
	movl	-124(%rbp), %eax	# B, tmp670
	addl	%eax, -128(%rbp)	# tmp670, A
	.loc 1 367 0
	movl	-124(%rbp), %eax	# B, tmp671
	movl	-128(%rbp), %edx	# A, tmp672
	xorl	%edx, %eax	# tmp672, D.5968
	andl	-120(%rbp), %eax	# C, D.5968
	xorl	-124(%rbp), %eax	# B, D.5968
	movl	%eax, %edx	# D.5968, D.5968
	movl	-56(%rbp), %eax	# correct_words, D.5968
	addl	%eax, %edx	# D.5968, D.5968
	movl	-116(%rbp), %eax	# D, tmp673
	addl	%edx, %eax	# D.5968, D.5968
	subl	$51403784, %eax	#, tmp674
	movl	%eax, -116(%rbp)	# tmp674, D
	rorl	$23, -116(%rbp)	#, D
	movl	-128(%rbp), %eax	# A, tmp675
	addl	%eax, -116(%rbp)	# tmp675, D
	.loc 1 368 0
	movl	-128(%rbp), %eax	# A, tmp676
	movl	-116(%rbp), %edx	# D, tmp677
	xorl	%edx, %eax	# tmp677, D.5968
	andl	-124(%rbp), %eax	# B, D.5968
	xorl	-128(%rbp), %eax	# A, D.5968
	movl	%eax, %edx	# D.5968, D.5968
	movl	-36(%rbp), %eax	# correct_words, D.5968
	addl	%eax, %edx	# D.5968, D.5968
	movl	-120(%rbp), %eax	# C, tmp678
	addl	%edx, %eax	# D.5968, D.5968
	addl	$1735328473, %eax	#, tmp679
	movl	%eax, -120(%rbp)	# tmp679, C
	rorl	$18, -120(%rbp)	#, C
	movl	-116(%rbp), %eax	# D, tmp680
	addl	%eax, -120(%rbp)	# tmp680, C
	.loc 1 369 0
	movl	-116(%rbp), %eax	# D, tmp681
	movl	-120(%rbp), %edx	# C, tmp682
	xorl	%edx, %eax	# tmp682, D.5968
	andl	-128(%rbp), %eax	# A, D.5968
	xorl	-116(%rbp), %eax	# D, D.5968
	movl	%eax, %edx	# D.5968, D.5968
	movl	-16(%rbp), %eax	# correct_words, D.5968
	addl	%eax, %edx	# D.5968, D.5968
	movl	-124(%rbp), %eax	# B, tmp683
	addl	%edx, %eax	# D.5968, D.5968
	subl	$1926607734, %eax	#, tmp684
	movl	%eax, -124(%rbp)	# tmp684, B
	rorl	$12, -124(%rbp)	#, B
	movl	-120(%rbp), %eax	# C, tmp685
	addl	%eax, -124(%rbp)	# tmp685, B
	.loc 1 372 0
	movl	-120(%rbp), %eax	# C, tmp686
	movl	-124(%rbp), %edx	# B, tmp687
	xorl	%edx, %eax	# tmp687, D.5968
	xorl	-116(%rbp), %eax	# D, D.5968
	movl	%eax, %edx	# D.5968, D.5968
	movl	-44(%rbp), %eax	# correct_words, D.5968
	addl	%eax, %edx	# D.5968, D.5968
	movl	-128(%rbp), %eax	# A, tmp688
	addl	%edx, %eax	# D.5968, D.5968
	subl	$378558, %eax	#, tmp689
	movl	%eax, -128(%rbp)	# tmp689, A
	rorl	$28, -128(%rbp)	#, A
	movl	-124(%rbp), %eax	# B, tmp690
	addl	%eax, -128(%rbp)	# tmp690, A
	.loc 1 373 0
	movl	-124(%rbp), %eax	# B, tmp691
	movl	-128(%rbp), %edx	# A, tmp692
	xorl	%edx, %eax	# tmp692, D.5968
	xorl	-120(%rbp), %eax	# C, D.5968
	movl	%eax, %edx	# D.5968, D.5968
	movl	-32(%rbp), %eax	# correct_words, D.5968
	addl	%eax, %edx	# D.5968, D.5968
	movl	-116(%rbp), %eax	# D, tmp693
	addl	%edx, %eax	# D.5968, D.5968
	subl	$2022574463, %eax	#, tmp694
	movl	%eax, -116(%rbp)	# tmp694, D
	rorl	$21, -116(%rbp)	#, D
	movl	-128(%rbp), %eax	# A, tmp695
	addl	%eax, -116(%rbp)	# tmp695, D
	.loc 1 374 0
	movl	-128(%rbp), %eax	# A, tmp696
	movl	-116(%rbp), %edx	# D, tmp697
	xorl	%edx, %eax	# tmp697, D.5968
	xorl	-124(%rbp), %eax	# B, D.5968
	movl	%eax, %edx	# D.5968, D.5968
	movl	-20(%rbp), %eax	# correct_words, D.5968
	addl	%eax, %edx	# D.5968, D.5968
	movl	-120(%rbp), %eax	# C, tmp698
	addl	%edx, %eax	# D.5968, D.5968
	addl	$1839030562, %eax	#, tmp699
	movl	%eax, -120(%rbp)	# tmp699, C
	rorl	$16, -120(%rbp)	#, C
	movl	-116(%rbp), %eax	# D, tmp700
	addl	%eax, -120(%rbp)	# tmp700, C
	.loc 1 375 0
	movl	-116(%rbp), %eax	# D, tmp701
	movl	-120(%rbp), %edx	# C, tmp702
	xorl	%edx, %eax	# tmp702, D.5968
	xorl	-128(%rbp), %eax	# A, D.5968
	movl	%eax, %edx	# D.5968, D.5968
	movl	-8(%rbp), %eax	# correct_words, D.5968
	addl	%eax, %edx	# D.5968, D.5968
	movl	-124(%rbp), %eax	# B, tmp703
	addl	%edx, %eax	# D.5968, D.5968
	subl	$35309556, %eax	#, tmp704
	movl	%eax, -124(%rbp)	# tmp704, B
	rorl	$9, -124(%rbp)	#, B
	movl	-120(%rbp), %eax	# C, tmp705
	addl	%eax, -124(%rbp)	# tmp705, B
	.loc 1 376 0
	movl	-120(%rbp), %eax	# C, tmp706
	movl	-124(%rbp), %edx	# B, tmp707
	xorl	%edx, %eax	# tmp707, D.5968
	xorl	-116(%rbp), %eax	# D, D.5968
	movl	%eax, %edx	# D.5968, D.5968
	movl	-60(%rbp), %eax	# correct_words, D.5968
	addl	%eax, %edx	# D.5968, D.5968
	movl	-128(%rbp), %eax	# A, tmp708
	addl	%edx, %eax	# D.5968, D.5968
	subl	$1530992060, %eax	#, tmp709
	movl	%eax, -128(%rbp)	# tmp709, A
	rorl	$28, -128(%rbp)	#, A
	movl	-124(%rbp), %eax	# B, tmp710
	addl	%eax, -128(%rbp)	# tmp710, A
	.loc 1 377 0
	movl	-124(%rbp), %eax	# B, tmp711
	movl	-128(%rbp), %edx	# A, tmp712
	xorl	%edx, %eax	# tmp712, D.5968
	xorl	-120(%rbp), %eax	# C, D.5968
	movl	%eax, %edx	# D.5968, D.5968
	movl	-48(%rbp), %eax	# correct_words, D.5968
	addl	%eax, %edx	# D.5968, D.5968
	movl	-116(%rbp), %eax	# D, tmp713
	addl	%edx, %eax	# D.5968, D.5968
	addl	$1272893353, %eax	#, tmp714
	movl	%eax, -116(%rbp)	# tmp714, D
	rorl	$21, -116(%rbp)	#, D
	movl	-128(%rbp), %eax	# A, tmp715
	addl	%eax, -116(%rbp)	# tmp715, D
	.loc 1 378 0
	movl	-128(%rbp), %eax	# A, tmp716
	movl	-116(%rbp), %edx	# D, tmp717
	xorl	%edx, %eax	# tmp717, D.5968
	xorl	-124(%rbp), %eax	# B, D.5968
	movl	%eax, %edx	# D.5968, D.5968
	movl	-36(%rbp), %eax	# correct_words, D.5968
	addl	%eax, %edx	# D.5968, D.5968
	movl	-120(%rbp), %eax	# C, tmp718
	addl	%edx, %eax	# D.5968, D.5968
	subl	$155497632, %eax	#, tmp719
	movl	%eax, -120(%rbp)	# tmp719, C
	rorl	$16, -120(%rbp)	#, C
	movl	-116(%rbp), %eax	# D, tmp720
	addl	%eax, -120(%rbp)	# tmp720, C
	.loc 1 379 0
	movl	-116(%rbp), %eax	# D, tmp721
	movl	-120(%rbp), %edx	# C, tmp722
	xorl	%edx, %eax	# tmp722, D.5968
	xorl	-128(%rbp), %eax	# A, D.5968
	movl	%eax, %edx	# D.5968, D.5968
	movl	-24(%rbp), %eax	# correct_words, D.5968
	addl	%eax, %edx	# D.5968, D.5968
	movl	-124(%rbp), %eax	# B, tmp723
	addl	%edx, %eax	# D.5968, D.5968
	subl	$1094730640, %eax	#, tmp724
	movl	%eax, -124(%rbp)	# tmp724, B
	rorl	$9, -124(%rbp)	#, B
	movl	-120(%rbp), %eax	# C, tmp725
	addl	%eax, -124(%rbp)	# tmp725, B
	.loc 1 380 0
	movl	-120(%rbp), %eax	# C, tmp726
	movl	-124(%rbp), %edx	# B, tmp727
	xorl	%edx, %eax	# tmp727, D.5968
	xorl	-116(%rbp), %eax	# D, D.5968
	movl	%eax, %edx	# D.5968, D.5968
	movl	-12(%rbp), %eax	# correct_words, D.5968
	addl	%eax, %edx	# D.5968, D.5968
	movl	-128(%rbp), %eax	# A, tmp728
	addl	%edx, %eax	# D.5968, D.5968
	addl	$681279174, %eax	#, tmp729
	movl	%eax, -128(%rbp)	# tmp729, A
	rorl	$28, -128(%rbp)	#, A
	movl	-124(%rbp), %eax	# B, tmp730
	addl	%eax, -128(%rbp)	# tmp730, A
	.loc 1 381 0
	movl	-124(%rbp), %eax	# B, tmp731
	movl	-128(%rbp), %edx	# A, tmp732
	xorl	%edx, %eax	# tmp732, D.5968
	xorl	-120(%rbp), %eax	# C, D.5968
	movl	%eax, %edx	# D.5968, D.5968
	movl	-64(%rbp), %eax	# correct_words, D.5968
	addl	%eax, %edx	# D.5968, D.5968
	movl	-116(%rbp), %eax	# D, tmp733
	addl	%edx, %eax	# D.5968, D.5968
	subl	$358537222, %eax	#, tmp734
	movl	%eax, -116(%rbp)	# tmp734, D
	rorl	$21, -116(%rbp)	#, D
	movl	-128(%rbp), %eax	# A, tmp735
	addl	%eax, -116(%rbp)	# tmp735, D
	.loc 1 382 0
	movl	-128(%rbp), %eax	# A, tmp736
	movl	-116(%rbp), %edx	# D, tmp737
	xorl	%edx, %eax	# tmp737, D.5968
	xorl	-124(%rbp), %eax	# B, D.5968
	movl	%eax, %edx	# D.5968, D.5968
	movl	-52(%rbp), %eax	# correct_words, D.5968
	addl	%eax, %edx	# D.5968, D.5968
	movl	-120(%rbp), %eax	# C, tmp738
	addl	%edx, %eax	# D.5968, D.5968
	subl	$722521979, %eax	#, tmp739
	movl	%eax, -120(%rbp)	# tmp739, C
	rorl	$16, -120(%rbp)	#, C
	movl	-116(%rbp), %eax	# D, tmp740
	addl	%eax, -120(%rbp)	# tmp740, C
	.loc 1 383 0
	movl	-116(%rbp), %eax	# D, tmp741
	movl	-120(%rbp), %edx	# C, tmp742
	xorl	%edx, %eax	# tmp742, D.5968
	xorl	-128(%rbp), %eax	# A, D.5968
	movl	%eax, %edx	# D.5968, D.5968
	movl	-40(%rbp), %eax	# correct_words, D.5968
	addl	%eax, %edx	# D.5968, D.5968
	movl	-124(%rbp), %eax	# B, tmp743
	addl	%edx, %eax	# D.5968, D.5968
	addl	$76029189, %eax	#, tmp744
	movl	%eax, -124(%rbp)	# tmp744, B
	rorl	$9, -124(%rbp)	#, B
	movl	-120(%rbp), %eax	# C, tmp745
	addl	%eax, -124(%rbp)	# tmp745, B
	.loc 1 384 0
	movl	-120(%rbp), %eax	# C, tmp746
	movl	-124(%rbp), %edx	# B, tmp747
	xorl	%edx, %eax	# tmp747, D.5968
	xorl	-116(%rbp), %eax	# D, D.5968
	movl	%eax, %edx	# D.5968, D.5968
	movl	-28(%rbp), %eax	# correct_words, D.5968
	addl	%eax, %edx	# D.5968, D.5968
	movl	-128(%rbp), %eax	# A, tmp748
	addl	%edx, %eax	# D.5968, D.5968
	subl	$640364487, %eax	#, tmp749
	movl	%eax, -128(%rbp)	# tmp749, A
	rorl	$28, -128(%rbp)	#, A
	movl	-124(%rbp), %eax	# B, tmp750
	addl	%eax, -128(%rbp)	# tmp750, A
	.loc 1 385 0
	movl	-124(%rbp), %eax	# B, tmp751
	movl	-128(%rbp), %edx	# A, tmp752
	xorl	%edx, %eax	# tmp752, D.5968
	xorl	-120(%rbp), %eax	# C, D.5968
	movl	%eax, %edx	# D.5968, D.5968
	movl	-16(%rbp), %eax	# correct_words, D.5968
	addl	%eax, %edx	# D.5968, D.5968
	movl	-116(%rbp), %eax	# D, tmp753
	addl	%edx, %eax	# D.5968, D.5968
	subl	$421815835, %eax	#, tmp754
	movl	%eax, -116(%rbp)	# tmp754, D
	rorl	$21, -116(%rbp)	#, D
	movl	-128(%rbp), %eax	# A, tmp755
	addl	%eax, -116(%rbp)	# tmp755, D
	.loc 1 386 0
	movl	-128(%rbp), %eax	# A, tmp756
	movl	-116(%rbp), %edx	# D, tmp757
	xorl	%edx, %eax	# tmp757, D.5968
	xorl	-124(%rbp), %eax	# B, D.5968
	movl	%eax, %edx	# D.5968, D.5968
	movl	-4(%rbp), %eax	# correct_words, D.5968
	addl	%eax, %edx	# D.5968, D.5968
	movl	-120(%rbp), %eax	# C, tmp758
	addl	%edx, %eax	# D.5968, D.5968
	addl	$530742520, %eax	#, tmp759
	movl	%eax, -120(%rbp)	# tmp759, C
	rorl	$16, -120(%rbp)	#, C
	movl	-116(%rbp), %eax	# D, tmp760
	addl	%eax, -120(%rbp)	# tmp760, C
	.loc 1 387 0
	movl	-116(%rbp), %eax	# D, tmp761
	movl	-120(%rbp), %edx	# C, tmp762
	xorl	%edx, %eax	# tmp762, D.5968
	xorl	-128(%rbp), %eax	# A, D.5968
	movl	%eax, %edx	# D.5968, D.5968
	movl	-56(%rbp), %eax	# correct_words, D.5968
	addl	%eax, %edx	# D.5968, D.5968
	movl	-124(%rbp), %eax	# B, tmp763
	addl	%edx, %eax	# D.5968, D.5968
	subl	$995338651, %eax	#, tmp764
	movl	%eax, -124(%rbp)	# tmp764, B
	rorl	$9, -124(%rbp)	#, B
	movl	-120(%rbp), %eax	# C, tmp765
	addl	%eax, -124(%rbp)	# tmp765, B
	.loc 1 390 0
	movl	-116(%rbp), %eax	# D, tmp766
	notl	%eax	# D.5968
	orl	-124(%rbp), %eax	# B, D.5968
	xorl	-120(%rbp), %eax	# C, D.5968
	movl	%eax, %edx	# D.5968, D.5968
	movl	-64(%rbp), %eax	# correct_words, D.5968
	addl	%eax, %edx	# D.5968, D.5968
	movl	-128(%rbp), %eax	# A, tmp767
	addl	%edx, %eax	# D.5968, D.5968
	subl	$198630844, %eax	#, tmp768
	movl	%eax, -128(%rbp)	# tmp768, A
	rorl	$26, -128(%rbp)	#, A
	movl	-124(%rbp), %eax	# B, tmp769
	addl	%eax, -128(%rbp)	# tmp769, A
	.loc 1 391 0
	movl	-120(%rbp), %eax	# C, tmp770
	notl	%eax	# D.5968
	orl	-128(%rbp), %eax	# A, D.5968
	xorl	-124(%rbp), %eax	# B, D.5968
	movl	%eax, %edx	# D.5968, D.5968
	movl	-36(%rbp), %eax	# correct_words, D.5968
	addl	%eax, %edx	# D.5968, D.5968
	movl	-116(%rbp), %eax	# D, tmp771
	addl	%edx, %eax	# D.5968, D.5968
	addl	$1126891415, %eax	#, tmp772
	movl	%eax, -116(%rbp)	# tmp772, D
	rorl	$22, -116(%rbp)	#, D
	movl	-128(%rbp), %eax	# A, tmp773
	addl	%eax, -116(%rbp)	# tmp773, D
	.loc 1 392 0
	movl	-124(%rbp), %eax	# B, tmp774
	notl	%eax	# D.5968
	orl	-116(%rbp), %eax	# D, D.5968
	xorl	-128(%rbp), %eax	# A, D.5968
	movl	%eax, %edx	# D.5968, D.5968
	movl	-8(%rbp), %eax	# correct_words, D.5968
	addl	%eax, %edx	# D.5968, D.5968
	movl	-120(%rbp), %eax	# C, tmp775
	addl	%edx, %eax	# D.5968, D.5968
	subl	$1416354905, %eax	#, tmp776
	movl	%eax, -120(%rbp)	# tmp776, C
	rorl	$17, -120(%rbp)	#, C
	movl	-116(%rbp), %eax	# D, tmp777
	addl	%eax, -120(%rbp)	# tmp777, C
	.loc 1 393 0
	movl	-128(%rbp), %eax	# A, tmp778
	notl	%eax	# D.5968
	orl	-120(%rbp), %eax	# C, D.5968
	xorl	-116(%rbp), %eax	# D, D.5968
	movl	%eax, %edx	# D.5968, D.5968
	movl	-44(%rbp), %eax	# correct_words, D.5968
	addl	%eax, %edx	# D.5968, D.5968
	movl	-124(%rbp), %eax	# B, tmp779
	addl	%edx, %eax	# D.5968, D.5968
	subl	$57434055, %eax	#, tmp780
	movl	%eax, -124(%rbp)	# tmp780, B
	rorl	$11, -124(%rbp)	#, B
	movl	-120(%rbp), %eax	# C, tmp781
	addl	%eax, -124(%rbp)	# tmp781, B
	.loc 1 394 0
	movl	-116(%rbp), %eax	# D, tmp782
	notl	%eax	# D.5968
	orl	-124(%rbp), %eax	# B, D.5968
	xorl	-120(%rbp), %eax	# C, D.5968
	movl	%eax, %edx	# D.5968, D.5968
	movl	-16(%rbp), %eax	# correct_words, D.5968
	addl	%eax, %edx	# D.5968, D.5968
	movl	-128(%rbp), %eax	# A, tmp783
	addl	%edx, %eax	# D.5968, D.5968
	addl	$1700485571, %eax	#, tmp784
	movl	%eax, -128(%rbp)	# tmp784, A
	rorl	$26, -128(%rbp)	#, A
	movl	-124(%rbp), %eax	# B, tmp785
	addl	%eax, -128(%rbp)	# tmp785, A
	.loc 1 395 0
	movl	-120(%rbp), %eax	# C, tmp786
	notl	%eax	# D.5968
	orl	-128(%rbp), %eax	# A, D.5968
	xorl	-124(%rbp), %eax	# B, D.5968
	movl	%eax, %edx	# D.5968, D.5968
	movl	-52(%rbp), %eax	# correct_words, D.5968
	addl	%eax, %edx	# D.5968, D.5968
	movl	-116(%rbp), %eax	# D, tmp787
	addl	%edx, %eax	# D.5968, D.5968
	subl	$1894986606, %eax	#, tmp788
	movl	%eax, -116(%rbp)	# tmp788, D
	rorl	$22, -116(%rbp)	#, D
	movl	-128(%rbp), %eax	# A, tmp789
	addl	%eax, -116(%rbp)	# tmp789, D
	.loc 1 396 0
	movl	-124(%rbp), %eax	# B, tmp790
	notl	%eax	# D.5968
	orl	-116(%rbp), %eax	# D, D.5968
	xorl	-128(%rbp), %eax	# A, D.5968
	movl	%eax, %edx	# D.5968, D.5968
	movl	-24(%rbp), %eax	# correct_words, D.5968
	addl	%eax, %edx	# D.5968, D.5968
	movl	-120(%rbp), %eax	# C, tmp791
	addl	%edx, %eax	# D.5968, D.5968
	subl	$1051523, %eax	#, tmp792
	movl	%eax, -120(%rbp)	# tmp792, C
	rorl	$17, -120(%rbp)	#, C
	movl	-116(%rbp), %eax	# D, tmp793
	addl	%eax, -120(%rbp)	# tmp793, C
	.loc 1 397 0
	movl	-128(%rbp), %eax	# A, tmp794
	notl	%eax	# D.5968
	orl	-120(%rbp), %eax	# C, D.5968
	xorl	-116(%rbp), %eax	# D, D.5968
	movl	%eax, %edx	# D.5968, D.5968
	movl	-60(%rbp), %eax	# correct_words, D.5968
	addl	%eax, %edx	# D.5968, D.5968
	movl	-124(%rbp), %eax	# B, tmp795
	addl	%edx, %eax	# D.5968, D.5968
	subl	$2054922799, %eax	#, tmp796
	movl	%eax, -124(%rbp)	# tmp796, B
	rorl	$11, -124(%rbp)	#, B
	movl	-120(%rbp), %eax	# C, tmp797
	addl	%eax, -124(%rbp)	# tmp797, B
	.loc 1 398 0
	movl	-116(%rbp), %eax	# D, tmp798
	notl	%eax	# D.5968
	orl	-124(%rbp), %eax	# B, D.5968
	xorl	-120(%rbp), %eax	# C, D.5968
	movl	%eax, %edx	# D.5968, D.5968
	movl	-32(%rbp), %eax	# correct_words, D.5968
	addl	%eax, %edx	# D.5968, D.5968
	movl	-128(%rbp), %eax	# A, tmp799
	addl	%edx, %eax	# D.5968, D.5968
	addl	$1873313359, %eax	#, tmp800
	movl	%eax, -128(%rbp)	# tmp800, A
	rorl	$26, -128(%rbp)	#, A
	movl	-124(%rbp), %eax	# B, tmp801
	addl	%eax, -128(%rbp)	# tmp801, A
	.loc 1 399 0
	movl	-120(%rbp), %eax	# C, tmp802
	notl	%eax	# D.5968
	orl	-128(%rbp), %eax	# A, D.5968
	xorl	-124(%rbp), %eax	# B, D.5968
	movl	%eax, %edx	# D.5968, D.5968
	movl	-4(%rbp), %eax	# correct_words, D.5968
	addl	%eax, %edx	# D.5968, D.5968
	movl	-116(%rbp), %eax	# D, tmp803
	addl	%edx, %eax	# D.5968, D.5968
	subl	$30611744, %eax	#, tmp804
	movl	%eax, -116(%rbp)	# tmp804, D
	rorl	$22, -116(%rbp)	#, D
	movl	-128(%rbp), %eax	# A, tmp805
	addl	%eax, -116(%rbp)	# tmp805, D
	.loc 1 400 0
	movl	-124(%rbp), %eax	# B, tmp806
	notl	%eax	# D.5968
	orl	-116(%rbp), %eax	# D, D.5968
	xorl	-128(%rbp), %eax	# A, D.5968
	movl	%eax, %edx	# D.5968, D.5968
	movl	-40(%rbp), %eax	# correct_words, D.5968
	addl	%eax, %edx	# D.5968, D.5968
	movl	-120(%rbp), %eax	# C, tmp807
	addl	%edx, %eax	# D.5968, D.5968
	subl	$1560198380, %eax	#, tmp808
	movl	%eax, -120(%rbp)	# tmp808, C
	rorl	$17, -120(%rbp)	#, C
	movl	-116(%rbp), %eax	# D, tmp809
	addl	%eax, -120(%rbp)	# tmp809, C
	.loc 1 401 0
	movl	-128(%rbp), %eax	# A, tmp810
	notl	%eax	# D.5968
	orl	-120(%rbp), %eax	# C, D.5968
	xorl	-116(%rbp), %eax	# D, D.5968
	movl	%eax, %edx	# D.5968, D.5968
	movl	-12(%rbp), %eax	# correct_words, D.5968
	addl	%eax, %edx	# D.5968, D.5968
	movl	-124(%rbp), %eax	# B, tmp811
	addl	%edx, %eax	# D.5968, D.5968
	addl	$1309151649, %eax	#, tmp812
	movl	%eax, -124(%rbp)	# tmp812, B
	rorl	$11, -124(%rbp)	#, B
	movl	-120(%rbp), %eax	# C, tmp813
	addl	%eax, -124(%rbp)	# tmp813, B
	.loc 1 402 0
	movl	-116(%rbp), %eax	# D, tmp814
	notl	%eax	# D.5968
	orl	-124(%rbp), %eax	# B, D.5968
	xorl	-120(%rbp), %eax	# C, D.5968
	movl	%eax, %edx	# D.5968, D.5968
	movl	-48(%rbp), %eax	# correct_words, D.5968
	addl	%eax, %edx	# D.5968, D.5968
	movl	-128(%rbp), %eax	# A, tmp815
	addl	%edx, %eax	# D.5968, D.5968
	subl	$145523070, %eax	#, tmp816
	movl	%eax, -128(%rbp)	# tmp816, A
	rorl	$26, -128(%rbp)	#, A
	movl	-124(%rbp), %eax	# B, tmp817
	addl	%eax, -128(%rbp)	# tmp817, A
	.loc 1 403 0
	movl	-120(%rbp), %eax	# C, tmp818
	notl	%eax	# D.5968
	orl	-128(%rbp), %eax	# A, D.5968
	xorl	-124(%rbp), %eax	# B, D.5968
	movl	%eax, %edx	# D.5968, D.5968
	movl	-20(%rbp), %eax	# correct_words, D.5968
	addl	%eax, %edx	# D.5968, D.5968
	movl	-116(%rbp), %eax	# D, tmp819
	addl	%edx, %eax	# D.5968, D.5968
	subl	$1120210379, %eax	#, tmp820
	movl	%eax, -116(%rbp)	# tmp820, D
	rorl	$22, -116(%rbp)	#, D
	movl	-128(%rbp), %eax	# A, tmp821
	addl	%eax, -116(%rbp)	# tmp821, D
	.loc 1 404 0
	movl	-124(%rbp), %eax	# B, tmp822
	notl	%eax	# D.5968
	orl	-116(%rbp), %eax	# D, D.5968
	xorl	-128(%rbp), %eax	# A, D.5968
	movl	%eax, %edx	# D.5968, D.5968
	movl	-56(%rbp), %eax	# correct_words, D.5968
	addl	%eax, %edx	# D.5968, D.5968
	movl	-120(%rbp), %eax	# C, tmp823
	addl	%edx, %eax	# D.5968, D.5968
	addl	$718787259, %eax	#, tmp824
	movl	%eax, -120(%rbp)	# tmp824, C
	rorl	$17, -120(%rbp)	#, C
	movl	-116(%rbp), %eax	# D, tmp825
	addl	%eax, -120(%rbp)	# tmp825, C
	.loc 1 405 0
	movl	-128(%rbp), %eax	# A, tmp826
	notl	%eax	# D.5968
	orl	-120(%rbp), %eax	# C, D.5968
	xorl	-116(%rbp), %eax	# D, D.5968
	movl	%eax, %edx	# D.5968, D.5968
	movl	-28(%rbp), %eax	# correct_words, D.5968
	addl	%eax, %edx	# D.5968, D.5968
	movl	-124(%rbp), %eax	# B, tmp827
	addl	%edx, %eax	# D.5968, D.5968
	subl	$343485551, %eax	#, tmp828
	movl	%eax, -124(%rbp)	# tmp828, B
	rorl	$11, -124(%rbp)	#, B
	movl	-120(%rbp), %eax	# C, tmp829
	addl	%eax, -124(%rbp)	# tmp829, B
	.loc 1 408 0
	movl	-112(%rbp), %eax	# A_save, tmp830
	addl	%eax, -128(%rbp)	# tmp830, A
	.loc 1 409 0
	movl	-108(%rbp), %eax	# B_save, tmp831
	addl	%eax, -124(%rbp)	# tmp831, B
	.loc 1 410 0
	movl	-104(%rbp), %eax	# C_save, tmp832
	addl	%eax, -120(%rbp)	# tmp832, C
	.loc 1 411 0
	movl	-100(%rbp), %eax	# D_save, tmp833
	addl	%eax, -116(%rbp)	# tmp833, D
.L31:
.LBE5:
	.loc 1 287 0 discriminator 1
	movq	-96(%rbp), %rax	# words, tmp834
	cmpq	-80(%rbp), %rax	# endp, tmp834
	jb	.L32	#,
	.loc 1 415 0
	movq	-152(%rbp), %rax	# ctx, tmp835
	movl	-128(%rbp), %edx	# A, tmp836
	movl	%edx, (%rax)	# tmp836, ctx_12(D)->A
	.loc 1 416 0
	movq	-152(%rbp), %rax	# ctx, tmp837
	movl	-124(%rbp), %edx	# B, tmp838
	movl	%edx, 4(%rax)	# tmp838, ctx_12(D)->B
	.loc 1 417 0
	movq	-152(%rbp), %rax	# ctx, tmp839
	movl	-120(%rbp), %edx	# C, tmp840
	movl	%edx, 8(%rax)	# tmp840, ctx_12(D)->C
	.loc 1 418 0
	movq	-152(%rbp), %rax	# ctx, tmp841
	movl	-116(%rbp), %edx	# D, tmp842
	movl	%edx, 12(%rax)	# tmp842, ctx_12(D)->D
	.loc 1 419 0
	leave
	.cfi_def_cfa 7, 8
	ret
	.cfi_endproc
.LFE8:
	.size	md5_process_block, .-md5_process_block
.Letext0:
	.file 2 "/usr/include/x86_64-linux-gnu/bits/types.h"
	.file 3 "/usr/lib/gcc/x86_64-linux-gnu/4.8/include/stddef.h"
	.file 4 "/usr/include/stdio.h"
	.file 5 "/usr/include/libio.h"
	.file 6 "md5.h"
	.section	.note.GNU-stack,"",@progbits
