	.file	"mkdeps.c"
# GNU C (Ubuntu/Linaro 4.8.1-10ubuntu9) version 4.8.1 (x86_64-linux-gnu)
#	compiled by GNU C version 4.8.1, GMP version 5.1.2, MPFR version 3.1.1-p2, MPC version 1.0.1
# GGC heuristics: --param ggc-min-expand=100 --param ggc-min-heapsize=131072
# options passed:  -I . -imultiarch x86_64-linux-gnu -D SPEC_CPU -D NDEBUG
# -D SPEC_CPU_LP64 mkdeps.c -mtune=generic -march=x86-64 -g -fverbose-asm
# -fno-strict-aliasing -fstack-protector -Wformat -Wformat-security
# options enabled:  -faggressive-loop-optimizations
# -fasynchronous-unwind-tables -fauto-inc-dec -fbranch-count-reg -fcommon
# -fdelete-null-pointer-checks -fdwarf2-cfi-asm -fearly-inlining
# -feliminate-unused-debug-types -ffunction-cse -fgcse-lm -fgnu-runtime
# -fident -finline-atomics -fira-hoist-pressure -fira-share-save-slots
# -fira-share-spill-slots -fivopts -fkeep-static-consts
# -fleading-underscore -fmath-errno -fmerge-debug-strings
# -fmove-loop-invariants -fpeephole -fprefetch-loop-arrays
# -freg-struct-return -fsched-critical-path-heuristic
# -fsched-dep-count-heuristic -fsched-group-heuristic -fsched-interblock
# -fsched-last-insn-heuristic -fsched-rank-heuristic -fsched-spec
# -fsched-spec-insn-heuristic -fsched-stalled-insns-dep -fshow-column
# -fsigned-zeros -fsplit-ivs-in-unroller -fstack-protector
# -fstrict-volatile-bitfields -fsync-libcalls -ftrapping-math
# -ftree-coalesce-vars -ftree-cselim -ftree-forwprop -ftree-loop-if-convert
# -ftree-loop-im -ftree-loop-ivcanon -ftree-loop-optimize
# -ftree-parallelize-loops= -ftree-phiprop -ftree-pta -ftree-reassoc
# -ftree-scev-cprop -ftree-slp-vectorize -ftree-vect-loop-version
# -funit-at-a-time -funwind-tables -fverbose-asm -fzero-initialized-in-bss
# -m128bit-long-double -m64 -m80387 -maccumulate-outgoing-args
# -malign-stringops -mfancy-math-387 -mfp-ret-in-387 -mfxsr -mglibc
# -mieee-fp -mlong-double-80 -mmmx -mno-sse4 -mpush-args -mred-zone -msse
# -msse2 -mtls-direct-seg-refs

	.text
.Ltext0:
	.type	munge, @function
munge:
.LFB2:
	.file 1 "mkdeps.c"
	.loc 1 52 0
	.cfi_startproc
	pushq	%rbp	#
	.cfi_def_cfa_offset 16
	.cfi_offset 6, -16
	movq	%rsp, %rbp	#,
	.cfi_def_cfa_register 6
	subq	$64, %rsp	#,
	movq	%rdi, -56(%rbp)	# filename, filename
	.loc 1 57 0
	movq	-56(%rbp), %rax	# filename, tmp75
	movq	%rax, -32(%rbp)	# tmp75, p
	movl	$0, -36(%rbp)	#, len
	jmp	.L2	#
.L9:
	.loc 1 59 0
	movq	-32(%rbp), %rax	# p, tmp76
	movzbl	(%rax), %eax	# *p_4, D.6904
	movsbl	%al, %eax	# D.6904, D.6905
	cmpl	$32, %eax	#, D.6905
	je	.L4	#,
	cmpl	$36, %eax	#, D.6905
	je	.L5	#,
	cmpl	$9, %eax	#, D.6905
	jne	.L3	#,
.L4:
	.loc 1 69 0
	movq	-32(%rbp), %rax	# p, tmp80
	subq	$1, %rax	#, tmp79
	movq	%rax, -24(%rbp)	# tmp79, q
	jmp	.L6	#
.L8:
	.loc 1 70 0 discriminator 1
	addl	$1, -36(%rbp)	#, len
	.loc 1 69 0 discriminator 1
	subq	$1, -24(%rbp)	#, q
.L6:
	movq	-56(%rbp), %rax	# filename, tmp81
	cmpq	-24(%rbp), %rax	# q, tmp81
	ja	.L7	#,
	.loc 1 69 0 is_stmt 0 discriminator 2
	movq	-24(%rbp), %rax	# q, tmp82
	movzbl	(%rax), %eax	# *q_6, D.6904
	cmpb	$92, %al	#, D.6904
	je	.L8	#,
.L7:
	.loc 1 71 0 is_stmt 1
	addl	$1, -36(%rbp)	#, len
	.loc 1 72 0
	jmp	.L3	#
.L5:
	.loc 1 76 0
	addl	$1, -36(%rbp)	#, len
	.loc 1 77 0
	nop
.L3:
	.loc 1 57 0
	addq	$1, -32(%rbp)	#, p
	addl	$1, -36(%rbp)	#, len
.L2:
	.loc 1 57 0 is_stmt 0 discriminator 1
	movq	-32(%rbp), %rax	# p, tmp83
	movzbl	(%rax), %eax	# *p_4, D.6904
	testb	%al, %al	# D.6904
	jne	.L9	#,
	.loc 1 82 0 is_stmt 1
	movl	-36(%rbp), %eax	# len, tmp84
	addl	$1, %eax	#, D.6905
	cltq
	movq	%rax, %rdi	# D.6906,
	call	xmalloc	#
	movq	%rax, -8(%rbp)	# tmp85, buffer
	.loc 1 84 0
	movq	-56(%rbp), %rax	# filename, tmp86
	movq	%rax, -32(%rbp)	# tmp86, p
	movq	-8(%rbp), %rax	# buffer, tmp87
	movq	%rax, -16(%rbp)	# tmp87, dst
	jmp	.L10	#
.L17:
	.loc 1 86 0
	movq	-32(%rbp), %rax	# p, tmp88
	movzbl	(%rax), %eax	# *p_5, D.6904
	movsbl	%al, %eax	# D.6904, D.6905
	cmpl	$32, %eax	#, D.6905
	je	.L12	#,
	cmpl	$36, %eax	#, D.6905
	je	.L13	#,
	cmpl	$9, %eax	#, D.6905
	jne	.L11	#,
.L12:
	.loc 1 90 0
	movq	-32(%rbp), %rax	# p, tmp92
	subq	$1, %rax	#, tmp91
	movq	%rax, -24(%rbp)	# tmp91, q
	jmp	.L14	#
.L16:
	.loc 1 91 0 discriminator 1
	movq	-16(%rbp), %rax	# dst, dst.0
	leaq	1(%rax), %rdx	#, tmp93
	movq	%rdx, -16(%rbp)	# tmp93, dst
	movb	$92, (%rax)	#, *dst.0_35
	.loc 1 90 0 discriminator 1
	subq	$1, -24(%rbp)	#, q
.L14:
	movq	-56(%rbp), %rax	# filename, tmp94
	cmpq	-24(%rbp), %rax	# q, tmp94
	ja	.L15	#,
	.loc 1 90 0 is_stmt 0 discriminator 2
	movq	-24(%rbp), %rax	# q, tmp95
	movzbl	(%rax), %eax	# *q_7, D.6904
	cmpb	$92, %al	#, D.6904
	je	.L16	#,
.L15:
	.loc 1 92 0 is_stmt 1
	movq	-16(%rbp), %rax	# dst, dst.1
	leaq	1(%rax), %rdx	#, tmp96
	movq	%rdx, -16(%rbp)	# tmp96, dst
	movb	$92, (%rax)	#, *dst.1_38
	.loc 1 93 0
	jmp	.L11	#
.L13:
	.loc 1 96 0
	movq	-16(%rbp), %rax	# dst, dst.2
	leaq	1(%rax), %rdx	#, tmp97
	movq	%rdx, -16(%rbp)	# tmp97, dst
	movb	$36, (%rax)	#, *dst.2_40
	.loc 1 97 0
	nop
.L11:
	.loc 1 102 0
	movq	-32(%rbp), %rax	# p, tmp98
	movzbl	(%rax), %edx	# *p_5, D.6904
	movq	-16(%rbp), %rax	# dst, tmp99
	movb	%dl, (%rax)	# D.6904, *dst_9
	.loc 1 84 0
	addq	$1, -32(%rbp)	#, p
	addq	$1, -16(%rbp)	#, dst
.L10:
	.loc 1 84 0 is_stmt 0 discriminator 1
	movq	-32(%rbp), %rax	# p, tmp100
	movzbl	(%rax), %eax	# *p_5, D.6904
	testb	%al, %al	# D.6904
	jne	.L17	#,
	.loc 1 105 0 is_stmt 1
	movq	-16(%rbp), %rax	# dst, tmp101
	movb	$0, (%rax)	#, *dst_10
	.loc 1 106 0
	movq	-8(%rbp), %rax	# buffer, D.6907
	.loc 1 107 0
	leave
	.cfi_def_cfa 7, 8
	ret
	.cfi_endproc
.LFE2:
	.size	munge, .-munge
	.globl	deps_init
	.type	deps_init, @function
deps_init:
.LFB3:
	.loc 1 113 0
	.cfi_startproc
	pushq	%rbp	#
	.cfi_def_cfa_offset 16
	.cfi_offset 6, -16
	movq	%rsp, %rbp	#,
	.cfi_def_cfa_register 6
	subq	$16, %rsp	#,
	.loc 1 114 0
	movl	$32, %edi	#,
	call	xmalloc	#
	movq	%rax, -8(%rbp)	# tmp61, d
	.loc 1 118 0
	movq	-8(%rbp), %rax	# d, tmp62
	movq	$0, (%rax)	#, d_1->targetv
	.loc 1 119 0
	movq	-8(%rbp), %rax	# d, tmp63
	movq	$0, 16(%rax)	#, d_1->depv
	.loc 1 121 0
	movq	-8(%rbp), %rax	# d, tmp64
	movl	$0, 8(%rax)	#, d_1->ntargets
	.loc 1 122 0
	movq	-8(%rbp), %rax	# d, tmp65
	movl	$0, 12(%rax)	#, d_1->targets_size
	.loc 1 123 0
	movq	-8(%rbp), %rax	# d, tmp66
	movl	$0, 24(%rax)	#, d_1->ndeps
	.loc 1 124 0
	movq	-8(%rbp), %rax	# d, tmp67
	movl	$0, 28(%rax)	#, d_1->deps_size
	.loc 1 126 0
	movq	-8(%rbp), %rax	# d, D.6908
	.loc 1 127 0
	leave
	.cfi_def_cfa 7, 8
	ret
	.cfi_endproc
.LFE3:
	.size	deps_init, .-deps_init
	.globl	deps_free
	.type	deps_free, @function
deps_free:
.LFB4:
	.loc 1 132 0
	.cfi_startproc
	pushq	%rbp	#
	.cfi_def_cfa_offset 16
	.cfi_offset 6, -16
	movq	%rsp, %rbp	#,
	.cfi_def_cfa_register 6
	subq	$32, %rsp	#,
	movq	%rdi, -24(%rbp)	# d, d
	.loc 1 135 0
	movq	-24(%rbp), %rax	# d, tmp75
	movq	(%rax), %rax	# d_3(D)->targetv, D.6909
	testq	%rax, %rax	# D.6909
	je	.L22	#,
	.loc 1 137 0
	movl	$0, -4(%rbp)	#, i
	jmp	.L23	#
.L24:
	.loc 1 138 0 discriminator 2
	movq	-24(%rbp), %rax	# d, tmp76
	movq	(%rax), %rax	# d_3(D)->targetv, D.6909
	movl	-4(%rbp), %edx	# i, D.6911
	salq	$3, %rdx	#, D.6911
	addq	%rdx, %rax	# D.6911, D.6909
	movq	(%rax), %rax	# *_10, D.6912
	movq	%rax, %rdi	# D.6912,
	call	free	#
	.loc 1 137 0 discriminator 2
	addl	$1, -4(%rbp)	#, i
.L23:
	.loc 1 137 0 is_stmt 0 discriminator 1
	movq	-24(%rbp), %rax	# d, tmp77
	movl	8(%rax), %eax	# d_3(D)->ntargets, D.6910
	cmpl	-4(%rbp), %eax	# i, D.6910
	ja	.L24	#,
	.loc 1 139 0 is_stmt 1
	movq	-24(%rbp), %rax	# d, tmp78
	movq	(%rax), %rax	# d_3(D)->targetv, D.6909
	movq	%rax, %rdi	# D.6909,
	call	free	#
.L22:
	.loc 1 142 0
	movq	-24(%rbp), %rax	# d, tmp79
	movq	16(%rax), %rax	# d_3(D)->depv, D.6909
	testq	%rax, %rax	# D.6909
	je	.L25	#,
	.loc 1 144 0
	movl	$0, -4(%rbp)	#, i
	jmp	.L26	#
.L27:
	.loc 1 145 0 discriminator 2
	movq	-24(%rbp), %rax	# d, tmp80
	movq	16(%rax), %rax	# d_3(D)->depv, D.6909
	movl	-4(%rbp), %edx	# i, D.6911
	salq	$3, %rdx	#, D.6911
	addq	%rdx, %rax	# D.6911, D.6909
	movq	(%rax), %rax	# *_20, D.6912
	movq	%rax, %rdi	# D.6912,
	call	free	#
	.loc 1 144 0 discriminator 2
	addl	$1, -4(%rbp)	#, i
.L26:
	.loc 1 144 0 is_stmt 0 discriminator 1
	movq	-24(%rbp), %rax	# d, tmp81
	movl	24(%rax), %eax	# d_3(D)->ndeps, D.6910
	cmpl	-4(%rbp), %eax	# i, D.6910
	ja	.L27	#,
	.loc 1 146 0 is_stmt 1
	movq	-24(%rbp), %rax	# d, tmp82
	movq	16(%rax), %rax	# d_3(D)->depv, D.6909
	movq	%rax, %rdi	# D.6909,
	call	free	#
.L25:
	.loc 1 149 0
	movq	-24(%rbp), %rax	# d, tmp83
	movq	%rax, %rdi	# tmp83,
	call	free	#
	.loc 1 150 0
	leave
	.cfi_def_cfa 7, 8
	ret
	.cfi_endproc
.LFE4:
	.size	deps_free, .-deps_free
	.globl	deps_add_target
	.type	deps_add_target, @function
deps_add_target:
.LFB5:
	.loc 1 159 0
	.cfi_startproc
	pushq	%rbp	#
	.cfi_def_cfa_offset 16
	.cfi_offset 6, -16
	movq	%rsp, %rbp	#,
	.cfi_def_cfa_register 6
	subq	$32, %rsp	#,
	movq	%rdi, -8(%rbp)	# d, d
	movq	%rsi, -16(%rbp)	# t, t
	movl	%edx, -20(%rbp)	# quote, quote
	.loc 1 160 0
	movq	-8(%rbp), %rax	# d, tmp75
	movl	8(%rax), %edx	# d_2(D)->ntargets, D.6913
	movq	-8(%rbp), %rax	# d, tmp76
	movl	12(%rax), %eax	# d_2(D)->targets_size, D.6913
	cmpl	%eax, %edx	# D.6913, D.6913
	jne	.L29	#,
	.loc 1 162 0
	movq	-8(%rbp), %rax	# d, tmp77
	movl	12(%rax), %eax	# d_2(D)->targets_size, D.6913
	addl	$2, %eax	#, D.6913
	leal	(%rax,%rax), %edx	#, D.6913
	movq	-8(%rbp), %rax	# d, tmp78
	movl	%edx, 12(%rax)	# D.6913, d_2(D)->targets_size
	.loc 1 164 0
	movq	-8(%rbp), %rax	# d, tmp79
	movl	12(%rax), %eax	# d_2(D)->targets_size, D.6913
	.loc 1 163 0
	movl	%eax, %eax	# D.6913, D.6914
	leaq	0(,%rax,8), %rdx	#, D.6914
	movq	-8(%rbp), %rax	# d, tmp80
	movq	(%rax), %rax	# d_2(D)->targetv, D.6915
	movq	%rdx, %rsi	# D.6914,
	movq	%rax, %rdi	# D.6915,
	call	xrealloc	#
	movq	-8(%rbp), %rdx	# d, tmp81
	movq	%rax, (%rdx)	# D.6916, d_2(D)->targetv
.L29:
	.loc 1 167 0
	cmpl	$0, -20(%rbp)	#, quote
	je	.L30	#,
	.loc 1 168 0
	movq	-16(%rbp), %rax	# t, tmp82
	movq	%rax, %rdi	# tmp82,
	call	munge	#
	movq	%rax, -16(%rbp)	# tmp83, t
	jmp	.L31	#
.L30:
	.loc 1 170 0
	movq	-16(%rbp), %rax	# t, tmp84
	movq	%rax, %rdi	# tmp84,
	call	xstrdup	#
	movq	%rax, -16(%rbp)	# tmp85, t
.L31:
	.loc 1 172 0
	movq	-8(%rbp), %rax	# d, tmp86
	movq	(%rax), %rsi	# d_2(D)->targetv, D.6915
	movq	-8(%rbp), %rax	# d, tmp87
	movl	8(%rax), %eax	# d_2(D)->ntargets, D.6913
	leal	1(%rax), %ecx	#, D.6913
	movq	-8(%rbp), %rdx	# d, tmp88
	movl	%ecx, 8(%rdx)	# D.6913, d_2(D)->ntargets
	movl	%eax, %eax	# D.6913, D.6914
	salq	$3, %rax	#, D.6914
	leaq	(%rsi,%rax), %rdx	#, D.6915
	movq	-16(%rbp), %rax	# t, tmp89
	movq	%rax, (%rdx)	# tmp89, *_23
	.loc 1 173 0
	leave
	.cfi_def_cfa 7, 8
	ret
	.cfi_endproc
.LFE5:
	.size	deps_add_target, .-deps_add_target
	.section	.rodata
.LC0:
	.string	"-"
	.text
	.globl	deps_add_default_target
	.type	deps_add_default_target, @function
deps_add_default_target:
.LFB6:
	.loc 1 182 0
	.cfi_startproc
	pushq	%rbp	#
	.cfi_def_cfa_offset 16
	.cfi_offset 6, -16
	movq	%rsp, %rbp	#,
	.cfi_def_cfa_register 6
	pushq	%rbx	#
	subq	$56, %rsp	#,
	.cfi_offset 3, -24
	movq	%rdi, -56(%rbp)	# d, d
	movq	%rsi, -64(%rbp)	# tgt, tgt
	.loc 1 184 0
	movq	-56(%rbp), %rax	# d, tmp64
	movl	8(%rax), %eax	# d_2(D)->ntargets, D.6917
	testl	%eax, %eax	# D.6917
	je	.L33	#,
	.loc 1 185 0
	jmp	.L32	#
.L33:
	.loc 1 187 0
	movq	-64(%rbp), %rax	# tgt, tmp65
	movzbl	(%rax), %eax	# *tgt_4(D), D.6918
	testb	%al, %al	# D.6918
	jne	.L35	#,
	.loc 1 188 0
	movq	-56(%rbp), %rax	# d, tmp66
	movl	$1, %edx	#,
	movl	$.LC0, %esi	#,
	movq	%rax, %rdi	# tmp66,
	call	deps_add_target	#
	jmp	.L32	#
.L35:
.LBB2:
	.loc 1 194 0
	movq	-64(%rbp), %rax	# tgt, tmp67
	movq	%rax, %rdi	# tmp67,
	call	lbasename	#
	movq	%rax, -32(%rbp)	# tmp68, start
	.loc 1 195 0
	movq	-32(%rbp), %rax	# start, tmp69
	movq	%rax, %rdi	# tmp69,
	call	strlen	#
	addq	$3, %rax	#, D.6919
	leaq	15(%rax), %rdx	#, tmp70
	movl	$16, %eax	#, tmp93
	subq	$1, %rax	#, tmp71
	addq	%rdx, %rax	# tmp70, tmp72
	movl	$16, %ebx	#, tmp94
	movl	$0, %edx	#, tmp75
	divq	%rbx	# tmp94
	imulq	$16, %rax, %rax	#, tmp74, tmp76
	subq	%rax, %rsp	# tmp76,
	movq	%rsp, %rax	#, tmp77
	addq	$15, %rax	#, tmp78
	shrq	$4, %rax	#, tmp79
	salq	$4, %rax	#, tmp80
	movq	%rax, -24(%rbp)	# tmp80, o
	.loc 1 198 0
	movq	-32(%rbp), %rdx	# start, tmp81
	movq	-24(%rbp), %rax	# o, tmp82
	movq	%rdx, %rsi	# tmp81,
	movq	%rax, %rdi	# tmp82,
	call	strcpy	#
	.loc 1 200 0
	movq	-24(%rbp), %rax	# o, tmp83
	movl	$46, %esi	#,
	movq	%rax, %rdi	# tmp83,
	call	strrchr	#
	movq	%rax, -40(%rbp)	# tmp84, suffix
	.loc 1 201 0
	cmpq	$0, -40(%rbp)	#, suffix
	jne	.L36	#,
	.loc 1 202 0
	movq	-24(%rbp), %rax	# o, tmp85
	movq	%rax, %rdi	# tmp85,
	call	strlen	#
	movq	-24(%rbp), %rdx	# o, tmp89
	addq	%rdx, %rax	# tmp89, tmp88
	movq	%rax, -40(%rbp)	# tmp88, suffix
.L36:
	.loc 1 203 0
	movq	-40(%rbp), %rax	# suffix, tmp90
	movw	$28462, (%rax)	#, MEM[(void *)suffix_1]
	movb	$0, 2(%rax)	#, MEM[(void *)suffix_1]
	.loc 1 205 0
	movq	-24(%rbp), %rcx	# o, tmp91
	movq	-56(%rbp), %rax	# d, tmp92
	movl	$1, %edx	#,
	movq	%rcx, %rsi	# tmp91,
	movq	%rax, %rdi	# tmp92,
	call	deps_add_target	#
.L32:
.LBE2:
	.loc 1 207 0
	movq	-8(%rbp), %rbx	#,
	leave
	.cfi_def_cfa 7, 8
	ret
	.cfi_endproc
.LFE6:
	.size	deps_add_default_target, .-deps_add_default_target
	.globl	deps_add_dep
	.type	deps_add_dep, @function
deps_add_dep:
.LFB7:
	.loc 1 213 0
	.cfi_startproc
	pushq	%rbp	#
	.cfi_def_cfa_offset 16
	.cfi_offset 6, -16
	movq	%rsp, %rbp	#,
	.cfi_def_cfa_register 6
	subq	$16, %rsp	#,
	movq	%rdi, -8(%rbp)	# d, d
	movq	%rsi, -16(%rbp)	# t, t
	.loc 1 214 0
	movq	-16(%rbp), %rax	# t, tmp75
	movq	%rax, %rdi	# tmp75,
	call	munge	#
	movq	%rax, -16(%rbp)	# tmp76, t
	.loc 1 216 0
	movq	-8(%rbp), %rax	# d, tmp77
	movl	24(%rax), %edx	# d_3(D)->ndeps, D.6922
	movq	-8(%rbp), %rax	# d, tmp78
	movl	28(%rax), %eax	# d_3(D)->deps_size, D.6922
	cmpl	%eax, %edx	# D.6922, D.6922
	jne	.L38	#,
	.loc 1 218 0
	movq	-8(%rbp), %rax	# d, tmp79
	movl	28(%rax), %eax	# d_3(D)->deps_size, D.6922
	addl	$4, %eax	#, D.6922
	leal	(%rax,%rax), %edx	#, D.6922
	movq	-8(%rbp), %rax	# d, tmp80
	movl	%edx, 28(%rax)	# D.6922, d_3(D)->deps_size
	.loc 1 220 0
	movq	-8(%rbp), %rax	# d, tmp81
	movl	28(%rax), %eax	# d_3(D)->deps_size, D.6922
	movl	%eax, %eax	# D.6922, D.6923
	leaq	0(,%rax,8), %rdx	#, D.6923
	movq	-8(%rbp), %rax	# d, tmp82
	movq	16(%rax), %rax	# d_3(D)->depv, D.6924
	movq	%rdx, %rsi	# D.6923,
	movq	%rax, %rdi	# D.6924,
	call	xrealloc	#
	.loc 1 219 0
	movq	-8(%rbp), %rdx	# d, tmp83
	movq	%rax, 16(%rdx)	# D.6925, d_3(D)->depv
.L38:
	.loc 1 222 0
	movq	-8(%rbp), %rax	# d, tmp84
	movq	16(%rax), %rsi	# d_3(D)->depv, D.6924
	movq	-8(%rbp), %rax	# d, tmp85
	movl	24(%rax), %eax	# d_3(D)->ndeps, D.6922
	leal	1(%rax), %ecx	#, D.6922
	movq	-8(%rbp), %rdx	# d, tmp86
	movl	%ecx, 24(%rdx)	# D.6922, d_3(D)->ndeps
	movl	%eax, %eax	# D.6922, D.6923
	salq	$3, %rax	#, D.6923
	leaq	(%rsi,%rax), %rdx	#, D.6924
	movq	-16(%rbp), %rax	# t, tmp87
	movq	%rax, (%rdx)	# tmp87, *_20
	.loc 1 223 0
	leave
	.cfi_def_cfa 7, 8
	ret
	.cfi_endproc
.LFE7:
	.size	deps_add_dep, .-deps_add_dep
	.section	.rodata
.LC1:
	.string	" \\\n "
	.text
	.globl	deps_write
	.type	deps_write, @function
deps_write:
.LFB8:
	.loc 1 230 0
	.cfi_startproc
	pushq	%rbp	#
	.cfi_def_cfa_offset 16
	.cfi_offset 6, -16
	movq	%rsp, %rbp	#,
	.cfi_def_cfa_register 6
	subq	$48, %rsp	#,
	movq	%rdi, -24(%rbp)	# d, d
	movq	%rsi, -32(%rbp)	# fp, fp
	movl	%edx, -36(%rbp)	# colmax, colmax
	.loc 1 233 0
	movl	$0, -8(%rbp)	#, column
	.loc 1 234 0
	cmpl	$0, -36(%rbp)	#, colmax
	je	.L40	#,
	.loc 1 234 0 is_stmt 0 discriminator 1
	cmpl	$33, -36(%rbp)	#, colmax
	ja	.L40	#,
	.loc 1 235 0 is_stmt 1
	movl	$34, -36(%rbp)	#, colmax
.L40:
	.loc 1 237 0
	movl	$0, -12(%rbp)	#, i
	jmp	.L41	#
.L44:
	.loc 1 239 0
	movq	-24(%rbp), %rax	# d, tmp83
	movq	(%rax), %rax	# d_14(D)->targetv, D.6927
	movl	-12(%rbp), %edx	# i, D.6928
	salq	$3, %rdx	#, D.6928
	addq	%rdx, %rax	# D.6928, D.6927
	movq	(%rax), %rax	# *_19, D.6929
	movq	%rax, %rdi	# D.6929,
	call	strlen	#
	movl	%eax, -4(%rbp)	# D.6928, size
	.loc 1 240 0
	movl	-4(%rbp), %eax	# size, tmp84
	addl	%eax, -8(%rbp)	# tmp84, column
	.loc 1 241 0
	cmpl	$0, -36(%rbp)	#, colmax
	je	.L42	#,
	.loc 1 241 0 is_stmt 0 discriminator 1
	movl	-8(%rbp), %eax	# column, tmp85
	cmpl	-36(%rbp), %eax	# colmax, tmp85
	jbe	.L42	#,
	.loc 1 243 0 is_stmt 1
	movq	-32(%rbp), %rax	# fp, tmp86
	movq	%rax, %rcx	# tmp86,
	movl	$4, %edx	#,
	movl	$1, %esi	#,
	movl	$.LC1, %edi	#,
	call	fwrite	#
	.loc 1 244 0
	movl	-4(%rbp), %eax	# size, tmp90
	addl	$1, %eax	#, tmp89
	movl	%eax, -8(%rbp)	# tmp89, column
.L42:
	.loc 1 246 0
	cmpl	$0, -12(%rbp)	#, i
	je	.L43	#,
	.loc 1 248 0
	movq	-32(%rbp), %rax	# fp, tmp91
	movq	%rax, %rsi	# tmp91,
	movl	$32, %edi	#,
	call	_IO_putc	#
	.loc 1 249 0
	addl	$1, -8(%rbp)	#, column
.L43:
	.loc 1 251 0
	movq	-24(%rbp), %rax	# d, tmp92
	movq	(%rax), %rax	# d_14(D)->targetv, D.6927
	movl	-12(%rbp), %edx	# i, D.6928
	salq	$3, %rdx	#, D.6928
	addq	%rdx, %rax	# D.6928, D.6927
	movq	(%rax), %rax	# *_30, D.6929
	movq	-32(%rbp), %rdx	# fp, tmp93
	movq	%rdx, %rsi	# tmp93,
	movq	%rax, %rdi	# D.6929,
	call	fputs	#
	.loc 1 237 0
	addl	$1, -12(%rbp)	#, i
.L41:
	.loc 1 237 0 is_stmt 0 discriminator 1
	movq	-24(%rbp), %rax	# d, tmp94
	movl	8(%rax), %eax	# d_14(D)->ntargets, D.6926
	cmpl	-12(%rbp), %eax	# i, D.6926
	ja	.L44	#,
	.loc 1 254 0 is_stmt 1
	movq	-32(%rbp), %rax	# fp, tmp95
	movq	%rax, %rsi	# tmp95,
	movl	$58, %edi	#,
	call	_IO_putc	#
	.loc 1 255 0
	movq	-32(%rbp), %rax	# fp, tmp96
	movq	%rax, %rsi	# tmp96,
	movl	$32, %edi	#,
	call	_IO_putc	#
	.loc 1 256 0
	addl	$2, -8(%rbp)	#, column
	.loc 1 258 0
	movl	$0, -12(%rbp)	#, i
	jmp	.L45	#
.L48:
	.loc 1 260 0
	movq	-24(%rbp), %rax	# d, tmp97
	movq	16(%rax), %rax	# d_14(D)->depv, D.6927
	movl	-12(%rbp), %edx	# i, D.6928
	salq	$3, %rdx	#, D.6928
	addq	%rdx, %rax	# D.6928, D.6927
	movq	(%rax), %rax	# *_39, D.6929
	movq	%rax, %rdi	# D.6929,
	call	strlen	#
	movl	%eax, -4(%rbp)	# D.6928, size
	.loc 1 261 0
	movl	-4(%rbp), %eax	# size, tmp98
	addl	%eax, -8(%rbp)	# tmp98, column
	.loc 1 262 0
	cmpl	$0, -36(%rbp)	#, colmax
	je	.L46	#,
	.loc 1 262 0 is_stmt 0 discriminator 1
	movl	-8(%rbp), %eax	# column, tmp99
	cmpl	-36(%rbp), %eax	# colmax, tmp99
	jbe	.L46	#,
	.loc 1 264 0 is_stmt 1
	movq	-32(%rbp), %rax	# fp, tmp100
	movq	%rax, %rcx	# tmp100,
	movl	$4, %edx	#,
	movl	$1, %esi	#,
	movl	$.LC1, %edi	#,
	call	fwrite	#
	.loc 1 265 0
	movl	-4(%rbp), %eax	# size, tmp104
	addl	$1, %eax	#, tmp103
	movl	%eax, -8(%rbp)	# tmp103, column
.L46:
	.loc 1 267 0
	cmpl	$0, -12(%rbp)	#, i
	je	.L47	#,
	.loc 1 269 0
	movq	-32(%rbp), %rax	# fp, tmp105
	movq	%rax, %rsi	# tmp105,
	movl	$32, %edi	#,
	call	_IO_putc	#
	.loc 1 270 0
	addl	$1, -8(%rbp)	#, column
.L47:
	.loc 1 272 0
	movq	-24(%rbp), %rax	# d, tmp106
	movq	16(%rax), %rax	# d_14(D)->depv, D.6927
	movl	-12(%rbp), %edx	# i, D.6928
	salq	$3, %rdx	#, D.6928
	addq	%rdx, %rax	# D.6928, D.6927
	movq	(%rax), %rax	# *_49, D.6929
	movq	-32(%rbp), %rdx	# fp, tmp107
	movq	%rdx, %rsi	# tmp107,
	movq	%rax, %rdi	# D.6929,
	call	fputs	#
	.loc 1 258 0
	addl	$1, -12(%rbp)	#, i
.L45:
	.loc 1 258 0 is_stmt 0 discriminator 1
	movq	-24(%rbp), %rax	# d, tmp108
	movl	24(%rax), %eax	# d_14(D)->ndeps, D.6926
	cmpl	-12(%rbp), %eax	# i, D.6926
	ja	.L48	#,
	.loc 1 274 0 is_stmt 1
	movq	-32(%rbp), %rax	# fp, tmp109
	movq	%rax, %rsi	# tmp109,
	movl	$10, %edi	#,
	call	_IO_putc	#
	.loc 1 275 0
	leave
	.cfi_def_cfa 7, 8
	ret
	.cfi_endproc
.LFE8:
	.size	deps_write, .-deps_write
	.globl	deps_phony_targets
	.type	deps_phony_targets, @function
deps_phony_targets:
.LFB9:
	.loc 1 281 0
	.cfi_startproc
	pushq	%rbp	#
	.cfi_def_cfa_offset 16
	.cfi_offset 6, -16
	movq	%rsp, %rbp	#,
	.cfi_def_cfa_register 6
	subq	$32, %rsp	#,
	movq	%rdi, -24(%rbp)	# d, d
	movq	%rsi, -32(%rbp)	# fp, fp
	.loc 1 284 0
	movl	$1, -4(%rbp)	#, i
	jmp	.L50	#
.L51:
	.loc 1 286 0 discriminator 2
	movq	-32(%rbp), %rax	# fp, tmp65
	movq	%rax, %rsi	# tmp65,
	movl	$10, %edi	#,
	call	_IO_putc	#
	.loc 1 287 0 discriminator 2
	movq	-24(%rbp), %rax	# d, tmp66
	movq	16(%rax), %rax	# d_3(D)->depv, D.6932
	movl	-4(%rbp), %edx	# i, D.6933
	salq	$3, %rdx	#, D.6933
	addq	%rdx, %rax	# D.6933, D.6932
	movq	(%rax), %rax	# *_9, D.6934
	movq	-32(%rbp), %rdx	# fp, tmp67
	movq	%rdx, %rsi	# tmp67,
	movq	%rax, %rdi	# D.6934,
	call	fputs	#
	.loc 1 288 0 discriminator 2
	movq	-32(%rbp), %rax	# fp, tmp68
	movq	%rax, %rsi	# tmp68,
	movl	$58, %edi	#,
	call	_IO_putc	#
	.loc 1 289 0 discriminator 2
	movq	-32(%rbp), %rax	# fp, tmp69
	movq	%rax, %rsi	# tmp69,
	movl	$10, %edi	#,
	call	_IO_putc	#
	.loc 1 284 0 discriminator 2
	addl	$1, -4(%rbp)	#, i
.L50:
	.loc 1 284 0 is_stmt 0 discriminator 1
	movq	-24(%rbp), %rax	# d, tmp70
	movl	24(%rax), %eax	# d_3(D)->ndeps, D.6931
	cmpl	-4(%rbp), %eax	# i, D.6931
	ja	.L51	#,
	.loc 1 291 0 is_stmt 1
	leave
	.cfi_def_cfa 7, 8
	ret
	.cfi_endproc
.LFE9:
	.size	deps_phony_targets, .-deps_phony_targets
.Letext0:
	.file 2 "/usr/lib/gcc/x86_64-linux-gnu/4.8/include/stddef.h"
	.file 3 "/usr/include/x86_64-linux-gnu/bits/types.h"
	.file 4 "/usr/include/stdio.h"
	.file 5 "/usr/include/libio.h"
	.section	.note.GNU-stack,"",@progbits
