	.file	"optabs.c"
# GNU C (Ubuntu/Linaro 4.8.1-10ubuntu9) version 4.8.1 (x86_64-linux-gnu)
#	compiled by GNU C version 4.8.1, GMP version 5.1.2, MPFR version 3.1.1-p2, MPC version 1.0.1
# GGC heuristics: --param ggc-min-expand=100 --param ggc-min-heapsize=131072
# options passed:  -I . -imultiarch x86_64-linux-gnu -D SPEC_CPU -D NDEBUG
# -D SPEC_CPU_LP64 optabs.c -mtune=generic -march=x86-64 -g -fverbose-asm
# -fno-strict-aliasing -fstack-protector -Wformat -Wformat-security
# options enabled:  -faggressive-loop-optimizations
# -fasynchronous-unwind-tables -fauto-inc-dec -fbranch-count-reg -fcommon
# -fdelete-null-pointer-checks -fdwarf2-cfi-asm -fearly-inlining
# -feliminate-unused-debug-types -ffunction-cse -fgcse-lm -fgnu-runtime
# -fident -finline-atomics -fira-hoist-pressure -fira-share-save-slots
# -fira-share-spill-slots -fivopts -fkeep-static-consts
# -fleading-underscore -fmath-errno -fmerge-debug-strings
# -fmove-loop-invariants -fpeephole -fprefetch-loop-arrays
# -freg-struct-return -fsched-critical-path-heuristic
# -fsched-dep-count-heuristic -fsched-group-heuristic -fsched-interblock
# -fsched-last-insn-heuristic -fsched-rank-heuristic -fsched-spec
# -fsched-spec-insn-heuristic -fsched-stalled-insns-dep -fshow-column
# -fsigned-zeros -fsplit-ivs-in-unroller -fstack-protector
# -fstrict-volatile-bitfields -fsync-libcalls -ftrapping-math
# -ftree-coalesce-vars -ftree-cselim -ftree-forwprop -ftree-loop-if-convert
# -ftree-loop-im -ftree-loop-ivcanon -ftree-loop-optimize
# -ftree-parallelize-loops= -ftree-phiprop -ftree-pta -ftree-reassoc
# -ftree-scev-cprop -ftree-slp-vectorize -ftree-vect-loop-version
# -funit-at-a-time -funwind-tables -fverbose-asm -fzero-initialized-in-bss
# -m128bit-long-double -m64 -m80387 -maccumulate-outgoing-args
# -malign-stringops -mfancy-math-387 -mfp-ret-in-387 -mfxsr -mglibc
# -mieee-fp -mlong-double-80 -mmmx -mno-sse4 -mpush-args -mred-zone -msse
# -msse2 -mtls-direct-seg-refs

	.text
.Ltext0:
	.comm	optab_table,392,32
	.comm	libfunc_table,776,32
	.comm	extendtab,27848,32
	.comm	fixtab,27848,32
	.comm	fixtrunctab,27848,32
	.comm	floattab,27848,32
	.comm	code_to_optab,1232,32
	.comm	bcc_gen_fctn,1224,32
	.comm	setcc_gen_code,612,32
	.comm	movcc_gen_code,236,32
	.type	add_equal_note, @function
add_equal_note:
.LFB2:
	.file 1 "optabs.c"
	.loc 1 138 0
	.cfi_startproc
	pushq	%rbp	#
	.cfi_def_cfa_offset 16
	.cfi_offset 6, -16
	movq	%rsp, %rbp	#,
	.cfi_def_cfa_register 6
	pushq	%rbx	#
	subq	$88, %rsp	#,
	.cfi_offset 3, -24
	movq	%rdi, -56(%rbp)	# seq, seq
	movq	%rsi, -64(%rbp)	# target, target
	movl	%edx, -68(%rbp)	# code, code
	movq	%rcx, -80(%rbp)	# op0, op0
	movq	%r8, -88(%rbp)	# op1, op1
	.loc 1 143 0
	movl	-68(%rbp), %eax	# code, code.0
	cltq
	movzbl	rtx_class(%rax), %eax	# rtx_class, D.18038
	cmpb	$49, %al	#, D.18038
	je	.L2	#,
	.loc 1 143 0 is_stmt 0 discriminator 1
	movl	-68(%rbp), %eax	# code, code.1
	cltq
	movzbl	rtx_class(%rax), %eax	# rtx_class, D.18038
	cmpb	$50, %al	#, D.18038
	je	.L2	#,
	.loc 1 144 0 is_stmt 1
	movl	-68(%rbp), %eax	# code, code.2
	cltq
	movzbl	rtx_class(%rax), %eax	# rtx_class, D.18038
	cmpb	$99, %al	#, D.18038
	je	.L2	#,
	.loc 1 144 0 is_stmt 0 discriminator 1
	movl	-68(%rbp), %eax	# code, code.3
	cltq
	movzbl	rtx_class(%rax), %eax	# rtx_class, D.18038
	cmpb	$60, %al	#, D.18038
	jne	.L3	#,
.L2:
	.loc 1 145 0 is_stmt 1
	movq	-56(%rbp), %rax	# seq, tmp137
	movzwl	(%rax), %eax	# seq_15(D)->code, D.18039
	cmpw	$24, %ax	#, D.18039
	jne	.L3	#,
	.loc 1 146 0
	movq	-56(%rbp), %rax	# seq, tmp138
	movq	8(%rax), %rax	# seq_15(D)->fld[0].rtvec, D.18040
	movq	-56(%rbp), %rdx	# seq, tmp139
	movq	8(%rdx), %rdx	# seq_15(D)->fld[0].rtvec, D.18040
	movl	(%rdx), %edx	# _18->num_elem, D.18037
	subl	$1, %edx	#, D.18037
	movslq	%edx, %rdx	# D.18037, tmp140
	movq	8(%rax,%rdx,8), %rax	# _17->elem, D.18041
	movzwl	(%rax), %eax	# _21->code, D.18039
	movzwl	%ax, %eax	# D.18039, D.18037
	cltq
	movzbl	rtx_class(%rax), %eax	# rtx_class, D.18038
	cmpb	$105, %al	#, D.18038
	jne	.L4	#,
	.loc 1 146 0 is_stmt 0 discriminator 1
	movq	-56(%rbp), %rax	# seq, tmp142
	movq	8(%rax), %rax	# seq_15(D)->fld[0].rtvec, D.18040
	movq	-56(%rbp), %rdx	# seq, tmp143
	movq	8(%rdx), %rdx	# seq_15(D)->fld[0].rtvec, D.18040
	movl	(%rdx), %edx	# _26->num_elem, D.18037
	subl	$1, %edx	#, D.18037
	movslq	%edx, %rdx	# D.18037, tmp144
	movq	8(%rax,%rdx,8), %rax	# _25->elem, D.18041
	movq	32(%rax), %rax	# _29->fld[3].rtx, D.18041
	movzwl	(%rax), %eax	# _30->code, D.18039
	cmpw	$47, %ax	#, D.18039
	jne	.L5	#,
	.loc 1 146 0 discriminator 3
	movq	-56(%rbp), %rax	# seq, tmp145
	movq	8(%rax), %rax	# seq_15(D)->fld[0].rtvec, D.18040
	movq	-56(%rbp), %rdx	# seq, tmp146
	movq	8(%rdx), %rdx	# seq_15(D)->fld[0].rtvec, D.18040
	movl	(%rdx), %edx	# _33->num_elem, D.18037
	subl	$1, %edx	#, D.18037
	movslq	%edx, %rdx	# D.18037, tmp147
	movq	8(%rax,%rdx,8), %rax	# _32->elem, D.18041
	movq	32(%rax), %rax	# _36->fld[3].rtx, iftmp.5
	jmp	.L7	#
.L5:
	.loc 1 146 0 discriminator 4
	movq	-56(%rbp), %rax	# seq, tmp148
	movq	8(%rax), %rax	# seq_15(D)->fld[0].rtvec, D.18040
	movq	-56(%rbp), %rdx	# seq, tmp149
	movq	8(%rdx), %rdx	# seq_15(D)->fld[0].rtvec, D.18040
	movl	(%rdx), %edx	# _39->num_elem, D.18037
	subl	$1, %edx	#, D.18037
	movslq	%edx, %rdx	# D.18037, tmp150
	movq	8(%rax,%rdx,8), %rax	# _38->elem, D.18041
	movq	32(%rax), %rdx	# _42->fld[3].rtx, D.18041
	movq	-56(%rbp), %rax	# seq, tmp151
	movq	8(%rax), %rax	# seq_15(D)->fld[0].rtvec, D.18040
	movq	-56(%rbp), %rcx	# seq, tmp152
	movq	8(%rcx), %rcx	# seq_15(D)->fld[0].rtvec, D.18040
	movl	(%rcx), %ecx	# _45->num_elem, D.18037
	subl	$1, %ecx	#, D.18037
	movslq	%ecx, %rcx	# D.18037, tmp153
	movq	8(%rax,%rcx,8), %rax	# _44->elem, D.18041
	movq	%rdx, %rsi	# D.18041,
	movq	%rax, %rdi	# D.18041,
	call	single_set_2	#
	jmp	.L7	#
.L4:
	.loc 1 146 0 discriminator 2
	movl	$0, %eax	#, iftmp.4
.L7:
	.loc 1 146 0 discriminator 5
	movq	%rax, -24(%rbp)	# iftmp.4, set
	cmpq	$0, -24(%rbp)	#, set
	je	.L3	#,
	.loc 1 147 0 is_stmt 1
	movq	-64(%rbp), %rax	# target, tmp154
	movzwl	(%rax), %eax	# target_53(D)->code, D.18039
	cmpw	$133, %ax	#, D.18039
	je	.L3	#,
	.loc 1 148 0
	movq	-24(%rbp), %rax	# set, tmp155
	movq	8(%rax), %rax	# set_52->fld[0].rtx, D.18041
	movq	-64(%rbp), %rdx	# target, tmp156
	movq	%rdx, %rsi	# tmp156,
	movq	%rax, %rdi	# D.18041,
	call	rtx_equal_p	#
	testl	%eax, %eax	# D.18037
	jne	.L8	#,
	.loc 1 151 0
	movq	-24(%rbp), %rax	# set, tmp157
	movq	8(%rax), %rax	# set_52->fld[0].rtx, D.18041
	movzwl	(%rax), %eax	# _57->code, D.18039
	cmpw	$64, %ax	#, D.18039
	jne	.L3	#,
	.loc 1 152 0
	movq	-24(%rbp), %rax	# set, tmp158
	movq	8(%rax), %rax	# set_52->fld[0].rtx, D.18041
	movq	8(%rax), %rax	# _59->fld[0].rtx, D.18041
	movq	8(%rax), %rax	# _60->fld[0].rtx, D.18041
	movq	-64(%rbp), %rdx	# target, tmp159
	movq	%rdx, %rsi	# tmp159,
	movq	%rax, %rdi	# D.18041,
	call	rtx_equal_p	#
	testl	%eax, %eax	# D.18037
	jne	.L8	#,
.L3:
	.loc 1 154 0
	movl	$1, %eax	#, D.18037
	jmp	.L9	#
.L8:
	.loc 1 158 0
	movq	-80(%rbp), %rdx	# op0, tmp160
	movq	-64(%rbp), %rax	# target, tmp161
	movq	%rdx, %rsi	# tmp160,
	movq	%rax, %rdi	# tmp161,
	call	reg_overlap_mentioned_p	#
	testl	%eax, %eax	# D.18037
	jne	.L10	#,
	.loc 1 159 0
	cmpq	$0, -88(%rbp)	#, op1
	je	.L11	#,
	.loc 1 159 0 is_stmt 0 discriminator 1
	movq	-88(%rbp), %rdx	# op1, tmp162
	movq	-64(%rbp), %rax	# target, tmp163
	movq	%rdx, %rsi	# tmp162,
	movq	%rax, %rdi	# tmp163,
	call	reg_overlap_mentioned_p	#
	testl	%eax, %eax	# D.18037
	je	.L11	#,
.L10:
	.loc 1 160 0 is_stmt 1
	movq	-56(%rbp), %rax	# seq, tmp164
	movq	8(%rax), %rax	# seq_15(D)->fld[0].rtvec, D.18040
	movl	(%rax), %eax	# _67->num_elem, D.18037
	subl	$2, %eax	#, tmp165
	movl	%eax, -36(%rbp)	# tmp165, i
	jmp	.L12	#
.L14:
	.loc 1 161 0
	movq	-56(%rbp), %rax	# seq, tmp166
	movq	8(%rax), %rax	# seq_15(D)->fld[0].rtvec, D.18040
	movl	-36(%rbp), %edx	# i, tmp168
	movslq	%edx, %rdx	# tmp168, tmp167
	movq	8(%rax,%rdx,8), %rdx	# _70->elem, D.18041
	movq	-64(%rbp), %rax	# target, tmp169
	movq	%rdx, %rsi	# D.18041,
	movq	%rax, %rdi	# tmp169,
	call	reg_set_p	#
	testl	%eax, %eax	# D.18037
	je	.L13	#,
	.loc 1 162 0
	movl	$0, %eax	#, D.18037
	jmp	.L9	#
.L13:
	.loc 1 160 0
	subl	$1, -36(%rbp)	#, i
.L12:
	.loc 1 160 0 is_stmt 0 discriminator 1
	cmpl	$0, -36(%rbp)	#, i
	jns	.L14	#,
.L11:
	.loc 1 164 0 is_stmt 1
	movl	-68(%rbp), %eax	# code, code.6
	cltq
	movzbl	rtx_class(%rax), %eax	# rtx_class, D.18038
	cmpb	$49, %al	#, D.18038
	jne	.L15	#,
	.loc 1 165 0
	movq	-80(%rbp), %rax	# op0, tmp171
	movq	%rax, %rdi	# tmp171,
	call	copy_rtx	#
	movq	%rax, %rdx	#, D.18041
	movq	-64(%rbp), %rax	# target, tmp172
	movzbl	2(%rax), %eax	# target_53(D)->mode, D.18042
	movzbl	%al, %ecx	# D.18042, D.18043
	movl	-68(%rbp), %eax	# code, tmp173
	movl	%ecx, %esi	# D.18043,
	movl	%eax, %edi	# tmp173,
	call	gen_rtx_fmt_e	#
	movq	%rax, -32(%rbp)	# tmp174, note
	jmp	.L16	#
.L15:
	.loc 1 167 0
	movq	-88(%rbp), %rax	# op1, tmp175
	movq	%rax, %rdi	# tmp175,
	call	copy_rtx	#
	movq	%rax, %rbx	#, D.18041
	movq	-80(%rbp), %rax	# op0, tmp176
	movq	%rax, %rdi	# tmp176,
	call	copy_rtx	#
	movq	%rax, %rdx	#, D.18041
	movq	-64(%rbp), %rax	# target, tmp177
	movzbl	2(%rax), %eax	# target_53(D)->mode, D.18042
	movzbl	%al, %esi	# D.18042, D.18043
	movl	-68(%rbp), %eax	# code, tmp178
	movq	%rbx, %rcx	# D.18041,
	movl	%eax, %edi	# tmp178,
	call	gen_rtx_fmt_ee	#
	movq	%rax, -32(%rbp)	# tmp179, note
.L16:
	.loc 1 169 0
	movq	-56(%rbp), %rax	# seq, tmp180
	movq	8(%rax), %rax	# seq_15(D)->fld[0].rtvec, D.18040
	movq	-56(%rbp), %rdx	# seq, tmp181
	movq	8(%rdx), %rdx	# seq_15(D)->fld[0].rtvec, D.18040
	movl	(%rdx), %edx	# _87->num_elem, D.18037
	subl	$1, %edx	#, D.18037
	movslq	%edx, %rdx	# D.18037, tmp182
	movq	8(%rax,%rdx,8), %rax	# _86->elem, D.18041
	movq	-32(%rbp), %rdx	# note, tmp183
	movl	$4, %esi	#,
	movq	%rax, %rdi	# D.18041,
	call	set_unique_reg_note	#
	.loc 1 171 0
	movl	$1, %eax	#, D.18037
.L9:
	.loc 1 172 0
	addq	$88, %rsp	#,
	popq	%rbx	#
	popq	%rbp	#
	.cfi_def_cfa 7, 8
	ret
	.cfi_endproc
.LFE2:
	.size	add_equal_note, .-add_equal_note
	.type	widen_operand, @function
widen_operand:
.LFB3:
	.loc 1 186 0
	.cfi_startproc
	pushq	%rbp	#
	.cfi_def_cfa_offset 16
	.cfi_offset 6, -16
	movq	%rsp, %rbp	#,
	.cfi_def_cfa_register 6
	subq	$48, %rsp	#,
	movq	%rdi, -24(%rbp)	# op, op
	movl	%esi, -28(%rbp)	# mode, mode
	movl	%edx, -32(%rbp)	# oldmode, oldmode
	movl	%ecx, -36(%rbp)	# unsignedp, unsignedp
	movl	%r8d, -40(%rbp)	# no_extend, no_extend
	.loc 1 190 0
	cmpl	$0, -40(%rbp)	#, no_extend
	je	.L18	#,
	.loc 1 190 0 is_stmt 0 discriminator 1
	movq	-24(%rbp), %rax	# op, tmp80
	movzbl	2(%rax), %eax	# op_4(D)->mode, D.18045
	testb	%al, %al	# D.18045
	jne	.L18	#,
	.loc 1 191 0 is_stmt 1
	movq	-24(%rbp), %rax	# op, D.18044
	jmp	.L19	#
.L18:
	.loc 1 196 0
	cmpl	$0, -40(%rbp)	#, no_extend
	je	.L20	#,
	.loc 1 197 0
	movq	-24(%rbp), %rax	# op, tmp81
	movzwl	(%rax), %eax	# op_4(D)->code, D.18046
	cmpw	$63, %ax	#, D.18046
	jne	.L21	#,
	.loc 1 197 0 is_stmt 0 discriminator 1
	movq	-24(%rbp), %rax	# op, tmp82
	movzbl	3(%rax), %eax	# *op_4(D), D.18045
	andl	$16, %eax	#, D.18045
	testb	%al, %al	# D.18045
	je	.L21	#,
	.loc 1 198 0 is_stmt 1
	movq	-24(%rbp), %rax	# op, tmp83
	movzbl	3(%rax), %eax	# *op_4(D), tmp86
	shrb	$2, %al	#, D.18047
	andl	$1, %eax	#, D.18047
	movzbl	%al, %eax	# D.18047, D.18048
	cmpl	-36(%rbp), %eax	# unsignedp, D.18048
	jne	.L21	#,
.L20:
	.loc 1 199 0
	movl	-36(%rbp), %ecx	# unsignedp, tmp87
	movq	-24(%rbp), %rdx	# op, tmp88
	movl	-32(%rbp), %esi	# oldmode, tmp89
	movl	-28(%rbp), %eax	# mode, tmp90
	movl	%eax, %edi	# tmp90,
	call	convert_modes	#
	jmp	.L19	#
.L21:
	.loc 1 203 0
	movl	-28(%rbp), %eax	# mode, mode.7
	cltq
	movzbl	mode_size(%rax), %eax	# mode_size, D.18045
	movzbl	%al, %edx	# D.18045, D.18048
	movl	target_flags(%rip), %eax	# target_flags, target_flags.9
	andl	$33554432, %eax	#, D.18048
	testl	%eax, %eax	# D.18048
	je	.L22	#,
	.loc 1 203 0 is_stmt 0 discriminator 1
	movl	$8, %eax	#, iftmp.8
	jmp	.L23	#
.L22:
	.loc 1 203 0 discriminator 2
	movl	$4, %eax	#, iftmp.8
.L23:
	.loc 1 203 0 discriminator 3
	cmpl	%eax, %edx	# iftmp.8, D.18048
	jg	.L24	#,
	.loc 1 204 0 is_stmt 1
	movq	-24(%rbp), %rax	# op, tmp92
	movzbl	2(%rax), %eax	# op_4(D)->mode, D.18045
	movzbl	%al, %eax	# D.18045, D.18049
	movq	-24(%rbp), %rdx	# op, tmp93
	movq	%rdx, %rsi	# tmp93,
	movl	%eax, %edi	# D.18049,
	call	force_reg	#
	movq	%rax, %rcx	#, D.18050
	movl	-28(%rbp), %eax	# mode, tmp94
	movl	$0, %edx	#,
	movq	%rcx, %rsi	# D.18050,
	movl	%eax, %edi	# tmp94,
	call	gen_rtx_SUBREG	#
	jmp	.L19	#
.L24:
	.loc 1 209 0
	movl	-28(%rbp), %eax	# mode, tmp95
	movl	%eax, %edi	# tmp95,
	call	gen_reg_rtx	#
	movq	%rax, -8(%rbp)	# tmp96, result
	.loc 1 210 0
	movq	-8(%rbp), %rax	# result, tmp97
	movq	%rax, %rdx	# tmp97,
	movl	$0, %esi	#,
	movl	$49, %edi	#,
	call	gen_rtx_fmt_e	#
	movq	%rax, %rdi	# D.18050,
	call	emit_insn	#
	.loc 1 211 0
	movq	-24(%rbp), %rax	# op, tmp98
	movzbl	2(%rax), %eax	# op_4(D)->mode, D.18045
	movzbl	%al, %eax	# D.18045, D.18049
	movq	-8(%rbp), %rdx	# result, tmp99
	movq	%rdx, %rsi	# tmp99,
	movl	%eax, %edi	# D.18049,
	call	gen_lowpart	#
	movq	-24(%rbp), %rdx	# op, tmp100
	movq	%rdx, %rsi	# tmp100,
	movq	%rax, %rdi	# D.18050,
	call	emit_move_insn	#
	.loc 1 212 0
	movq	-8(%rbp), %rax	# result, D.18044
.L19:
	.loc 1 213 0
	leave
	.cfi_def_cfa 7, 8
	ret
	.cfi_endproc
.LFE3:
	.size	widen_operand, .-widen_operand
	.type	expand_cmplxdiv_straight, @function
expand_cmplxdiv_straight:
.LFB4:
	.loc 1 226 0
	.cfi_startproc
	pushq	%rbp	#
	.cfi_def_cfa_offset 16
	.cfi_offset 6, -16
	movq	%rsp, %rbp	#,
	.cfi_def_cfa_register 6
	subq	$144, %rsp	#,
	movq	%rdi, -88(%rbp)	# real0, real0
	movq	%rsi, -96(%rbp)	# real1, real1
	movq	%rdx, -104(%rbp)	# imag0, imag0
	movq	%rcx, -112(%rbp)	# imag1, imag1
	movq	%r8, -120(%rbp)	# realr, realr
	movq	%r9, -128(%rbp)	# imagr, imagr
	.loc 1 231 0
	movq	optab_table(%rip), %rax	# optab_table, tmp62
	movq	%rax, -56(%rbp)	# tmp62, this_add_optab
	.loc 1 232 0
	movq	optab_table+16(%rip), %rax	# optab_table, tmp63
	movq	%rax, -48(%rbp)	# tmp63, this_sub_optab
	.loc 1 233 0
	movq	optab_table+256(%rip), %rax	# optab_table, tmp64
	movq	%rax, -40(%rbp)	# tmp64, this_neg_optab
	.loc 1 234 0
	movq	optab_table+32(%rip), %rax	# optab_table, tmp65
	movq	%rax, -32(%rbp)	# tmp65, this_mul_optab
	.loc 1 236 0
	movq	optab_table+88(%rip), %rax	# optab_table, D.18052
	cmpq	48(%rbp), %rax	# binoptab, D.18052
	jne	.L26	#,
	.loc 1 238 0
	movq	optab_table+8(%rip), %rax	# optab_table, tmp66
	movq	%rax, -56(%rbp)	# tmp66, this_add_optab
	.loc 1 239 0
	movq	optab_table+24(%rip), %rax	# optab_table, tmp67
	movq	%rax, -48(%rbp)	# tmp67, this_sub_optab
	.loc 1 240 0
	movq	optab_table+264(%rip), %rax	# optab_table, tmp68
	movq	%rax, -40(%rbp)	# tmp68, this_neg_optab
	.loc 1 241 0
	movq	optab_table+40(%rip), %rax	# optab_table, tmp69
	movq	%rax, -32(%rbp)	# tmp69, this_mul_optab
.L26:
	.loc 1 245 0
	movq	-88(%rbp), %rax	# real0, tmp70
	movq	%rax, %rsi	# tmp70,
	movl	16(%rbp), %edi	# submode,
	call	force_reg	#
	movq	%rax, -88(%rbp)	# tmp71, real0
	.loc 1 246 0
	movq	-96(%rbp), %rax	# real1, tmp72
	movq	%rax, %rsi	# tmp72,
	movl	16(%rbp), %edi	# submode,
	call	force_reg	#
	movq	%rax, -96(%rbp)	# tmp73, real1
	.loc 1 248 0
	cmpq	$0, -104(%rbp)	#, imag0
	je	.L27	#,
	.loc 1 249 0
	movq	-104(%rbp), %rax	# imag0, tmp74
	movq	%rax, %rsi	# tmp74,
	movl	16(%rbp), %edi	# submode,
	call	force_reg	#
	movq	%rax, -104(%rbp)	# tmp75, imag0
.L27:
	.loc 1 251 0
	movq	-112(%rbp), %rax	# imag1, tmp76
	movq	%rax, %rsi	# tmp76,
	movl	16(%rbp), %edi	# submode,
	call	force_reg	#
	movq	%rax, -112(%rbp)	# tmp77, imag1
	.loc 1 254 0
	movl	24(%rbp), %edi	# unsignedp, tmp78
	movq	-96(%rbp), %rcx	# real1, tmp79
	movq	-96(%rbp), %rdx	# real1, tmp80
	movq	-32(%rbp), %rax	# this_mul_optab, tmp81
	movl	32(%rbp), %esi	# methods, tmp82
	movl	%esi, (%rsp)	# tmp82,
	movl	%edi, %r9d	# tmp78,
	movl	$0, %r8d	#,
	movq	%rax, %rsi	# tmp81,
	movl	16(%rbp), %edi	# submode,
	call	expand_binop	#
	movq	%rax, -24(%rbp)	# tmp83, temp1
	.loc 1 257 0
	movl	24(%rbp), %edi	# unsignedp, tmp84
	movq	-112(%rbp), %rcx	# imag1, tmp85
	movq	-112(%rbp), %rdx	# imag1, tmp86
	movq	-32(%rbp), %rax	# this_mul_optab, tmp87
	movl	32(%rbp), %esi	# methods, tmp88
	movl	%esi, (%rsp)	# tmp88,
	movl	%edi, %r9d	# tmp84,
	movl	$0, %r8d	#,
	movq	%rax, %rsi	# tmp87,
	movl	16(%rbp), %edi	# submode,
	call	expand_binop	#
	movq	%rax, -16(%rbp)	# tmp89, temp2
	.loc 1 260 0
	cmpq	$0, -24(%rbp)	#, temp1
	je	.L28	#,
	.loc 1 260 0 is_stmt 0 discriminator 1
	cmpq	$0, -16(%rbp)	#, temp2
	jne	.L29	#,
.L28:
	.loc 1 261 0 is_stmt 1
	movl	$0, %eax	#, D.18051
	jmp	.L30	#
.L29:
	.loc 1 263 0
	movl	24(%rbp), %edi	# unsignedp, tmp90
	movq	-16(%rbp), %rcx	# temp2, tmp91
	movq	-24(%rbp), %rdx	# temp1, tmp92
	movq	-56(%rbp), %rax	# this_add_optab, tmp93
	movl	32(%rbp), %esi	# methods, tmp94
	movl	%esi, (%rsp)	# tmp94,
	movl	%edi, %r9d	# tmp90,
	movl	$0, %r8d	#,
	movq	%rax, %rsi	# tmp93,
	movl	16(%rbp), %edi	# submode,
	call	expand_binop	#
	movq	%rax, -8(%rbp)	# tmp95, divisor
	.loc 1 265 0
	cmpq	$0, -8(%rbp)	#, divisor
	jne	.L31	#,
	.loc 1 266 0
	movl	$0, %eax	#, D.18051
	jmp	.L30	#
.L31:
	.loc 1 268 0
	cmpq	$0, -104(%rbp)	#, imag0
	jne	.L32	#,
	.loc 1 274 0
	movl	24(%rbp), %edi	# unsignedp, tmp96
	movq	-96(%rbp), %rcx	# real1, tmp97
	movq	-88(%rbp), %rdx	# real0, tmp98
	movq	-32(%rbp), %rax	# this_mul_optab, tmp99
	movl	32(%rbp), %esi	# methods, tmp100
	movl	%esi, (%rsp)	# tmp100,
	movl	%edi, %r9d	# tmp96,
	movl	$0, %r8d	#,
	movq	%rax, %rsi	# tmp99,
	movl	16(%rbp), %edi	# submode,
	call	expand_binop	#
	movq	%rax, -80(%rbp)	# tmp101, real_t
	.loc 1 277 0
	movl	24(%rbp), %edi	# unsignedp, tmp102
	movq	-112(%rbp), %rcx	# imag1, tmp103
	movq	-88(%rbp), %rdx	# real0, tmp104
	movq	-32(%rbp), %rax	# this_mul_optab, tmp105
	movl	32(%rbp), %esi	# methods, tmp106
	movl	%esi, (%rsp)	# tmp106,
	movl	%edi, %r9d	# tmp102,
	movl	$0, %r8d	#,
	movq	%rax, %rsi	# tmp105,
	movl	16(%rbp), %edi	# submode,
	call	expand_binop	#
	movq	%rax, -72(%rbp)	# tmp107, imag_t
	.loc 1 280 0
	cmpq	$0, -80(%rbp)	#, real_t
	je	.L33	#,
	.loc 1 280 0 is_stmt 0 discriminator 1
	cmpq	$0, -72(%rbp)	#, imag_t
	jne	.L34	#,
.L33:
	.loc 1 281 0 is_stmt 1
	movl	$0, %eax	#, D.18051
	jmp	.L30	#
.L34:
	.loc 1 283 0
	movl	24(%rbp), %ecx	# unsignedp, tmp108
	movq	-72(%rbp), %rdx	# imag_t, tmp109
	movq	-40(%rbp), %rax	# this_neg_optab, tmp110
	movl	%ecx, %r8d	# tmp108,
	movl	$0, %ecx	#,
	movq	%rax, %rsi	# tmp110,
	movl	16(%rbp), %edi	# submode,
	call	expand_unop	#
	movq	%rax, -72(%rbp)	# tmp111, imag_t
	jmp	.L35	#
.L32:
	.loc 1 290 0
	movl	24(%rbp), %edi	# unsignedp, tmp112
	movq	-96(%rbp), %rcx	# real1, tmp113
	movq	-88(%rbp), %rdx	# real0, tmp114
	movq	-32(%rbp), %rax	# this_mul_optab, tmp115
	movl	32(%rbp), %esi	# methods, tmp116
	movl	%esi, (%rsp)	# tmp116,
	movl	%edi, %r9d	# tmp112,
	movl	$0, %r8d	#,
	movq	%rax, %rsi	# tmp115,
	movl	16(%rbp), %edi	# submode,
	call	expand_binop	#
	movq	%rax, -24(%rbp)	# tmp117, temp1
	.loc 1 293 0
	movl	24(%rbp), %edi	# unsignedp, tmp118
	movq	-112(%rbp), %rcx	# imag1, tmp119
	movq	-104(%rbp), %rdx	# imag0, tmp120
	movq	-32(%rbp), %rax	# this_mul_optab, tmp121
	movl	32(%rbp), %esi	# methods, tmp122
	movl	%esi, (%rsp)	# tmp122,
	movl	%edi, %r9d	# tmp118,
	movl	$0, %r8d	#,
	movq	%rax, %rsi	# tmp121,
	movl	16(%rbp), %edi	# submode,
	call	expand_binop	#
	movq	%rax, -16(%rbp)	# tmp123, temp2
	.loc 1 296 0
	cmpq	$0, -24(%rbp)	#, temp1
	je	.L36	#,
	.loc 1 296 0 is_stmt 0 discriminator 1
	cmpq	$0, -16(%rbp)	#, temp2
	jne	.L37	#,
.L36:
	.loc 1 297 0 is_stmt 1
	movl	$0, %eax	#, D.18051
	jmp	.L30	#
.L37:
	.loc 1 299 0
	movl	24(%rbp), %edi	# unsignedp, tmp124
	movq	-16(%rbp), %rcx	# temp2, tmp125
	movq	-24(%rbp), %rdx	# temp1, tmp126
	movq	-56(%rbp), %rax	# this_add_optab, tmp127
	movl	32(%rbp), %esi	# methods, tmp128
	movl	%esi, (%rsp)	# tmp128,
	movl	%edi, %r9d	# tmp124,
	movl	$0, %r8d	#,
	movq	%rax, %rsi	# tmp127,
	movl	16(%rbp), %edi	# submode,
	call	expand_binop	#
	movq	%rax, -80(%rbp)	# tmp129, real_t
	.loc 1 302 0
	movl	24(%rbp), %edi	# unsignedp, tmp130
	movq	-96(%rbp), %rcx	# real1, tmp131
	movq	-104(%rbp), %rdx	# imag0, tmp132
	movq	-32(%rbp), %rax	# this_mul_optab, tmp133
	movl	32(%rbp), %esi	# methods, tmp134
	movl	%esi, (%rsp)	# tmp134,
	movl	%edi, %r9d	# tmp130,
	movl	$0, %r8d	#,
	movq	%rax, %rsi	# tmp133,
	movl	16(%rbp), %edi	# submode,
	call	expand_binop	#
	movq	%rax, -24(%rbp)	# tmp135, temp1
	.loc 1 305 0
	movl	24(%rbp), %edi	# unsignedp, tmp136
	movq	-112(%rbp), %rcx	# imag1, tmp137
	movq	-88(%rbp), %rdx	# real0, tmp138
	movq	-32(%rbp), %rax	# this_mul_optab, tmp139
	movl	32(%rbp), %esi	# methods, tmp140
	movl	%esi, (%rsp)	# tmp140,
	movl	%edi, %r9d	# tmp136,
	movl	$0, %r8d	#,
	movq	%rax, %rsi	# tmp139,
	movl	16(%rbp), %edi	# submode,
	call	expand_binop	#
	movq	%rax, -16(%rbp)	# tmp141, temp2
	.loc 1 308 0
	cmpq	$0, -24(%rbp)	#, temp1
	je	.L38	#,
	.loc 1 308 0 is_stmt 0 discriminator 1
	cmpq	$0, -16(%rbp)	#, temp2
	jne	.L39	#,
.L38:
	.loc 1 309 0 is_stmt 1
	movl	$0, %eax	#, D.18051
	jmp	.L30	#
.L39:
	.loc 1 311 0
	movl	24(%rbp), %edi	# unsignedp, tmp142
	movq	-16(%rbp), %rcx	# temp2, tmp143
	movq	-24(%rbp), %rdx	# temp1, tmp144
	movq	-48(%rbp), %rax	# this_sub_optab, tmp145
	movl	32(%rbp), %esi	# methods, tmp146
	movl	%esi, (%rsp)	# tmp146,
	movl	%edi, %r9d	# tmp142,
	movl	$0, %r8d	#,
	movq	%rax, %rsi	# tmp145,
	movl	16(%rbp), %edi	# submode,
	call	expand_binop	#
	movq	%rax, -72(%rbp)	# tmp147, imag_t
	.loc 1 314 0
	cmpq	$0, -80(%rbp)	#, real_t
	je	.L40	#,
	.loc 1 314 0 is_stmt 0 discriminator 1
	cmpq	$0, -72(%rbp)	#, imag_t
	jne	.L35	#,
.L40:
	.loc 1 315 0 is_stmt 1
	movl	$0, %eax	#, D.18051
	jmp	.L30	#
.L35:
	.loc 1 318 0
	cmpl	$6, 40(%rbp)	#, class
	jne	.L41	#,
	.loc 1 319 0
	movl	24(%rbp), %r8d	# unsignedp, tmp148
	movq	-120(%rbp), %rdi	# realr, tmp149
	movq	-8(%rbp), %rcx	# divisor, tmp150
	movq	-80(%rbp), %rdx	# real_t, tmp151
	movq	48(%rbp), %rax	# binoptab, tmp152
	movl	32(%rbp), %esi	# methods, tmp153
	movl	%esi, (%rsp)	# tmp153,
	movl	%r8d, %r9d	# tmp148,
	movq	%rdi, %r8	# tmp149,
	movq	%rax, %rsi	# tmp152,
	movl	16(%rbp), %edi	# submode,
	call	expand_binop	#
	movq	%rax, -64(%rbp)	# tmp154, res
	jmp	.L42	#
.L41:
	.loc 1 322 0
	movq	-120(%rbp), %rsi	# realr, tmp155
	movq	-8(%rbp), %rcx	# divisor, tmp156
	movq	-80(%rbp), %rax	# real_t, tmp157
	movl	24(%rbp), %edx	# unsignedp, tmp158
	movl	%edx, (%rsp)	# tmp158,
	movq	%rsi, %r9	# tmp155,
	movq	%rcx, %r8	# tmp156,
	movq	%rax, %rcx	# tmp157,
	movl	16(%rbp), %edx	# submode,
	movl	$62, %esi	#,
	movl	$0, %edi	#,
	call	expand_divmod	#
	movq	%rax, -64(%rbp)	# tmp159, res
.L42:
	.loc 1 325 0
	cmpq	$0, -64(%rbp)	#, res
	jne	.L43	#,
	.loc 1 326 0
	movl	$0, %eax	#, D.18051
	jmp	.L30	#
.L43:
	.loc 1 328 0
	movq	-64(%rbp), %rax	# res, tmp160
	cmpq	-120(%rbp), %rax	# realr, tmp160
	je	.L44	#,
	.loc 1 329 0
	movq	-64(%rbp), %rdx	# res, tmp161
	movq	-120(%rbp), %rax	# realr, tmp162
	movq	%rdx, %rsi	# tmp161,
	movq	%rax, %rdi	# tmp162,
	call	emit_move_insn	#
.L44:
	.loc 1 331 0
	cmpl	$6, 40(%rbp)	#, class
	jne	.L45	#,
	.loc 1 332 0
	movl	24(%rbp), %r8d	# unsignedp, tmp163
	movq	-128(%rbp), %rdi	# imagr, tmp164
	movq	-8(%rbp), %rcx	# divisor, tmp165
	movq	-72(%rbp), %rdx	# imag_t, tmp166
	movq	48(%rbp), %rax	# binoptab, tmp167
	movl	32(%rbp), %esi	# methods, tmp168
	movl	%esi, (%rsp)	# tmp168,
	movl	%r8d, %r9d	# tmp163,
	movq	%rdi, %r8	# tmp164,
	movq	%rax, %rsi	# tmp167,
	movl	16(%rbp), %edi	# submode,
	call	expand_binop	#
	movq	%rax, -64(%rbp)	# tmp169, res
	jmp	.L46	#
.L45:
	.loc 1 335 0
	movq	-128(%rbp), %rsi	# imagr, tmp170
	movq	-8(%rbp), %rcx	# divisor, tmp171
	movq	-72(%rbp), %rax	# imag_t, tmp172
	movl	24(%rbp), %edx	# unsignedp, tmp173
	movl	%edx, (%rsp)	# tmp173,
	movq	%rsi, %r9	# tmp170,
	movq	%rcx, %r8	# tmp171,
	movq	%rax, %rcx	# tmp172,
	movl	16(%rbp), %edx	# submode,
	movl	$62, %esi	#,
	movl	$0, %edi	#,
	call	expand_divmod	#
	movq	%rax, -64(%rbp)	# tmp174, res
.L46:
	.loc 1 338 0
	cmpq	$0, -64(%rbp)	#, res
	jne	.L47	#,
	.loc 1 339 0
	movl	$0, %eax	#, D.18051
	jmp	.L30	#
.L47:
	.loc 1 341 0
	movq	-64(%rbp), %rax	# res, tmp175
	cmpq	-128(%rbp), %rax	# imagr, tmp175
	je	.L48	#,
	.loc 1 342 0
	movq	-64(%rbp), %rdx	# res, tmp176
	movq	-128(%rbp), %rax	# imagr, tmp177
	movq	%rdx, %rsi	# tmp176,
	movq	%rax, %rdi	# tmp177,
	call	emit_move_insn	#
.L48:
	.loc 1 344 0
	movl	$1, %eax	#, D.18051
.L30:
	.loc 1 345 0
	leave
	.cfi_def_cfa 7, 8
	ret
	.cfi_endproc
.LFE4:
	.size	expand_cmplxdiv_straight, .-expand_cmplxdiv_straight
	.type	expand_cmplxdiv_wide, @function
expand_cmplxdiv_wide:
.LFB5:
	.loc 1 358 0
	.cfi_startproc
	pushq	%rbp	#
	.cfi_def_cfa_offset 16
	.cfi_offset 6, -16
	movq	%rsp, %rbp	#,
	.cfi_def_cfa_register 6
	subq	$176, %rsp	#,
	movq	%rdi, -120(%rbp)	# real0, real0
	movq	%rsi, -128(%rbp)	# real1, real1
	movq	%rdx, -136(%rbp)	# imag0, imag0
	movq	%rcx, -144(%rbp)	# imag1, imag1
	movq	%r8, -152(%rbp)	# realr, realr
	movq	%r9, -160(%rbp)	# imagr, imagr
	.loc 1 364 0
	movq	optab_table(%rip), %rax	# optab_table, tmp64
	movq	%rax, -56(%rbp)	# tmp64, this_add_optab
	.loc 1 365 0
	movq	optab_table+16(%rip), %rax	# optab_table, tmp65
	movq	%rax, -48(%rbp)	# tmp65, this_sub_optab
	.loc 1 366 0
	movq	optab_table+256(%rip), %rax	# optab_table, tmp66
	movq	%rax, -40(%rbp)	# tmp66, this_neg_optab
	.loc 1 367 0
	movq	optab_table+32(%rip), %rax	# optab_table, tmp67
	movq	%rax, -32(%rbp)	# tmp67, this_mul_optab
	.loc 1 369 0
	movq	optab_table+88(%rip), %rax	# optab_table, D.18054
	cmpq	48(%rbp), %rax	# binoptab, D.18054
	jne	.L50	#,
	.loc 1 371 0
	movq	optab_table+8(%rip), %rax	# optab_table, tmp68
	movq	%rax, -56(%rbp)	# tmp68, this_add_optab
	.loc 1 372 0
	movq	optab_table+24(%rip), %rax	# optab_table, tmp69
	movq	%rax, -48(%rbp)	# tmp69, this_sub_optab
	.loc 1 373 0
	movq	optab_table+264(%rip), %rax	# optab_table, tmp70
	movq	%rax, -40(%rbp)	# tmp70, this_neg_optab
	.loc 1 374 0
	movq	optab_table+40(%rip), %rax	# optab_table, tmp71
	movq	%rax, -32(%rbp)	# tmp71, this_mul_optab
.L50:
	.loc 1 378 0
	movq	-120(%rbp), %rax	# real0, tmp72
	movq	%rax, %rsi	# tmp72,
	movl	16(%rbp), %edi	# submode,
	call	force_reg	#
	movq	%rax, -120(%rbp)	# tmp73, real0
	.loc 1 379 0
	movq	-128(%rbp), %rax	# real1, tmp74
	movq	%rax, %rsi	# tmp74,
	movl	16(%rbp), %edi	# submode,
	call	force_reg	#
	movq	%rax, -128(%rbp)	# tmp75, real1
	.loc 1 381 0
	cmpq	$0, -136(%rbp)	#, imag0
	je	.L51	#,
	.loc 1 382 0
	movq	-136(%rbp), %rax	# imag0, tmp76
	movq	%rax, %rsi	# tmp76,
	movl	16(%rbp), %edi	# submode,
	call	force_reg	#
	movq	%rax, -136(%rbp)	# tmp77, imag0
.L51:
	.loc 1 384 0
	movq	-144(%rbp), %rax	# imag1, tmp78
	movq	%rax, %rsi	# tmp78,
	movl	16(%rbp), %edi	# submode,
	call	force_reg	#
	movq	%rax, -144(%rbp)	# tmp79, imag1
	.loc 1 387 0
	cmpl	$0, 24(%rbp)	#, unsignedp
	je	.L52	#,
	.loc 1 389 0
	movq	-128(%rbp), %rax	# real1, tmp80
	movq	%rax, -80(%rbp)	# tmp80, temp1
	.loc 1 390 0
	movq	-144(%rbp), %rax	# imag1, tmp81
	movq	%rax, -72(%rbp)	# tmp81, temp2
	jmp	.L53	#
.L52:
	.loc 1 394 0
	movl	24(%rbp), %edx	# unsignedp, tmp82
	movq	-128(%rbp), %rax	# real1, tmp83
	movl	$1, %r8d	#,
	movl	%edx, %ecx	# tmp82,
	movl	$0, %edx	#,
	movq	%rax, %rsi	# tmp83,
	movl	16(%rbp), %edi	# submode,
	call	expand_abs	#
	movq	%rax, -80(%rbp)	# tmp84, temp1
	.loc 1 395 0
	movl	24(%rbp), %edx	# unsignedp, tmp85
	movq	-144(%rbp), %rax	# imag1, tmp86
	movl	$1, %r8d	#,
	movl	%edx, %ecx	# tmp85,
	movl	$0, %edx	#,
	movq	%rax, %rsi	# tmp86,
	movl	16(%rbp), %edi	# submode,
	call	expand_abs	#
	movq	%rax, -72(%rbp)	# tmp87, temp2
.L53:
	.loc 1 398 0
	cmpq	$0, -80(%rbp)	#, temp1
	je	.L54	#,
	.loc 1 398 0 is_stmt 0 discriminator 1
	cmpq	$0, -72(%rbp)	#, temp2
	jne	.L55	#,
.L54:
	.loc 1 399 0 is_stmt 1
	movl	$0, %eax	#, D.18053
	jmp	.L56	#
.L55:
	.loc 1 401 0
	movq	-80(%rbp), %rax	# temp1, tmp88
	movzbl	2(%rax), %eax	# temp1_8->mode, D.18055
	movzbl	%al, %eax	# D.18055, tmp89
	movl	%eax, -108(%rbp)	# tmp89, mode
	.loc 1 402 0
	call	gen_label_rtx	#
	movq	%rax, -24(%rbp)	# tmp90, lab1
	.loc 1 403 0
	movl	24(%rbp), %edi	# unsignedp, tmp91
	movl	-108(%rbp), %ecx	# mode, tmp92
	movq	-72(%rbp), %rsi	# temp2, tmp93
	movq	-80(%rbp), %rax	# temp1, tmp94
	movq	-24(%rbp), %rdx	# lab1, tmp95
	movq	%rdx, (%rsp)	# tmp95,
	movl	%edi, %r9d	# tmp91,
	movl	%ecx, %r8d	# tmp92,
	movl	$0, %ecx	#,
	movl	$107, %edx	#,
	movq	%rax, %rdi	# tmp94,
	call	emit_cmp_and_jump_insns	#
	.loc 1 408 0
	cmpl	$6, 40(%rbp)	#, class
	jne	.L57	#,
	.loc 1 409 0
	movl	24(%rbp), %edi	# unsignedp, tmp96
	movq	-128(%rbp), %rcx	# real1, tmp97
	movq	-144(%rbp), %rdx	# imag1, tmp98
	movq	48(%rbp), %rax	# binoptab, tmp99
	movl	32(%rbp), %esi	# methods, tmp100
	movl	%esi, (%rsp)	# tmp100,
	movl	%edi, %r9d	# tmp96,
	movl	$0, %r8d	#,
	movq	%rax, %rsi	# tmp99,
	movl	16(%rbp), %edi	# submode,
	call	expand_binop	#
	movq	%rax, -104(%rbp)	# tmp101, ratio
	jmp	.L58	#
.L57:
	.loc 1 412 0
	movq	-128(%rbp), %rcx	# real1, tmp102
	movq	-144(%rbp), %rax	# imag1, tmp103
	movl	24(%rbp), %edx	# unsignedp, tmp104
	movl	%edx, (%rsp)	# tmp104,
	movl	$0, %r9d	#,
	movq	%rcx, %r8	# tmp102,
	movq	%rax, %rcx	# tmp103,
	movl	16(%rbp), %edx	# submode,
	movl	$62, %esi	#,
	movl	$0, %edi	#,
	call	expand_divmod	#
	movq	%rax, -104(%rbp)	# tmp105, ratio
.L58:
	.loc 1 415 0
	cmpq	$0, -104(%rbp)	#, ratio
	jne	.L59	#,
	.loc 1 416 0
	movl	$0, %eax	#, D.18053
	jmp	.L56	#
.L59:
	.loc 1 420 0
	movl	24(%rbp), %edi	# unsignedp, tmp106
	movq	-104(%rbp), %rcx	# ratio, tmp107
	movq	-144(%rbp), %rdx	# imag1, tmp108
	movq	-32(%rbp), %rax	# this_mul_optab, tmp109
	movl	32(%rbp), %esi	# methods, tmp110
	movl	%esi, (%rsp)	# tmp110,
	movl	%edi, %r9d	# tmp106,
	movl	$0, %r8d	#,
	movq	%rax, %rsi	# tmp109,
	movl	16(%rbp), %edi	# submode,
	call	expand_binop	#
	movq	%rax, -80(%rbp)	# tmp111, temp1
	.loc 1 423 0
	cmpq	$0, -80(%rbp)	#, temp1
	jne	.L60	#,
	.loc 1 424 0
	movl	$0, %eax	#, D.18053
	jmp	.L56	#
.L60:
	.loc 1 426 0
	movl	24(%rbp), %edi	# unsignedp, tmp112
	movq	-128(%rbp), %rcx	# real1, tmp113
	movq	-80(%rbp), %rdx	# temp1, tmp114
	movq	-56(%rbp), %rax	# this_add_optab, tmp115
	movl	32(%rbp), %esi	# methods, tmp116
	movl	%esi, (%rsp)	# tmp116,
	movl	%edi, %r9d	# tmp112,
	movl	$0, %r8d	#,
	movq	%rax, %rsi	# tmp115,
	movl	16(%rbp), %edi	# submode,
	call	expand_binop	#
	movq	%rax, -16(%rbp)	# tmp117, divisor
	.loc 1 429 0
	cmpq	$0, -16(%rbp)	#, divisor
	jne	.L61	#,
	.loc 1 430 0
	movl	$0, %eax	#, D.18053
	jmp	.L56	#
.L61:
	.loc 1 434 0
	cmpq	$0, -136(%rbp)	#, imag0
	jne	.L62	#,
	.loc 1 436 0
	movq	-120(%rbp), %rax	# real0, tmp118
	movq	%rax, -96(%rbp)	# tmp118, real_t
	.loc 1 440 0
	movl	24(%rbp), %edi	# unsignedp, tmp119
	movq	-104(%rbp), %rcx	# ratio, tmp120
	movq	-120(%rbp), %rdx	# real0, tmp121
	movq	-32(%rbp), %rax	# this_mul_optab, tmp122
	movl	32(%rbp), %esi	# methods, tmp123
	movl	%esi, (%rsp)	# tmp123,
	movl	%edi, %r9d	# tmp119,
	movl	$0, %r8d	#,
	movq	%rax, %rsi	# tmp122,
	movl	16(%rbp), %edi	# submode,
	call	expand_binop	#
	movq	%rax, -88(%rbp)	# tmp124, imag_t
	.loc 1 443 0
	cmpq	$0, -88(%rbp)	#, imag_t
	jne	.L63	#,
	.loc 1 444 0
	movl	$0, %eax	#, D.18053
	jmp	.L56	#
.L63:
	.loc 1 446 0
	movl	24(%rbp), %ecx	# unsignedp, tmp125
	movq	-88(%rbp), %rdx	# imag_t, tmp126
	movq	-40(%rbp), %rax	# this_neg_optab, tmp127
	movl	%ecx, %r8d	# tmp125,
	movl	$0, %ecx	#,
	movq	%rax, %rsi	# tmp127,
	movl	16(%rbp), %edi	# submode,
	call	expand_unop	#
	movq	%rax, -88(%rbp)	# tmp128, imag_t
	.loc 1 449 0
	cmpq	$0, -96(%rbp)	#, real_t
	je	.L64	#,
	.loc 1 449 0 is_stmt 0 discriminator 1
	cmpq	$0, -88(%rbp)	#, imag_t
	jne	.L65	#,
.L64:
	.loc 1 450 0 is_stmt 1
	movl	$0, %eax	#, D.18053
	jmp	.L56	#
.L62:
	.loc 1 457 0
	movl	24(%rbp), %edi	# unsignedp, tmp129
	movq	-104(%rbp), %rcx	# ratio, tmp130
	movq	-136(%rbp), %rdx	# imag0, tmp131
	movq	-32(%rbp), %rax	# this_mul_optab, tmp132
	movl	32(%rbp), %esi	# methods, tmp133
	movl	%esi, (%rsp)	# tmp133,
	movl	%edi, %r9d	# tmp129,
	movl	$0, %r8d	#,
	movq	%rax, %rsi	# tmp132,
	movl	16(%rbp), %edi	# submode,
	call	expand_binop	#
	movq	%rax, -80(%rbp)	# tmp134, temp1
	.loc 1 460 0
	cmpq	$0, -80(%rbp)	#, temp1
	jne	.L66	#,
	.loc 1 461 0
	movl	$0, %eax	#, D.18053
	jmp	.L56	#
.L66:
	.loc 1 463 0
	movl	24(%rbp), %edi	# unsignedp, tmp135
	movq	-120(%rbp), %rcx	# real0, tmp136
	movq	-80(%rbp), %rdx	# temp1, tmp137
	movq	-56(%rbp), %rax	# this_add_optab, tmp138
	movl	32(%rbp), %esi	# methods, tmp139
	movl	%esi, (%rsp)	# tmp139,
	movl	%edi, %r9d	# tmp135,
	movl	$0, %r8d	#,
	movq	%rax, %rsi	# tmp138,
	movl	16(%rbp), %edi	# submode,
	call	expand_binop	#
	movq	%rax, -96(%rbp)	# tmp140, real_t
	.loc 1 466 0
	movl	24(%rbp), %edi	# unsignedp, tmp141
	movq	-104(%rbp), %rcx	# ratio, tmp142
	movq	-120(%rbp), %rdx	# real0, tmp143
	movq	-32(%rbp), %rax	# this_mul_optab, tmp144
	movl	32(%rbp), %esi	# methods, tmp145
	movl	%esi, (%rsp)	# tmp145,
	movl	%edi, %r9d	# tmp141,
	movl	$0, %r8d	#,
	movq	%rax, %rsi	# tmp144,
	movl	16(%rbp), %edi	# submode,
	call	expand_binop	#
	movq	%rax, -80(%rbp)	# tmp146, temp1
	.loc 1 469 0
	cmpq	$0, -80(%rbp)	#, temp1
	jne	.L67	#,
	.loc 1 470 0
	movl	$0, %eax	#, D.18053
	jmp	.L56	#
.L67:
	.loc 1 472 0
	movl	24(%rbp), %edi	# unsignedp, tmp147
	movq	-80(%rbp), %rcx	# temp1, tmp148
	movq	-136(%rbp), %rdx	# imag0, tmp149
	movq	-48(%rbp), %rax	# this_sub_optab, tmp150
	movl	32(%rbp), %esi	# methods, tmp151
	movl	%esi, (%rsp)	# tmp151,
	movl	%edi, %r9d	# tmp147,
	movl	$0, %r8d	#,
	movq	%rax, %rsi	# tmp150,
	movl	16(%rbp), %edi	# submode,
	call	expand_binop	#
	movq	%rax, -88(%rbp)	# tmp152, imag_t
	.loc 1 475 0
	cmpq	$0, -96(%rbp)	#, real_t
	je	.L68	#,
	.loc 1 475 0 is_stmt 0 discriminator 1
	cmpq	$0, -88(%rbp)	#, imag_t
	jne	.L65	#,
.L68:
	.loc 1 476 0 is_stmt 1
	movl	$0, %eax	#, D.18053
	jmp	.L56	#
.L65:
	.loc 1 479 0
	cmpl	$6, 40(%rbp)	#, class
	jne	.L69	#,
	.loc 1 480 0
	movl	24(%rbp), %r8d	# unsignedp, tmp153
	movq	-152(%rbp), %rdi	# realr, tmp154
	movq	-16(%rbp), %rcx	# divisor, tmp155
	movq	-96(%rbp), %rdx	# real_t, tmp156
	movq	48(%rbp), %rax	# binoptab, tmp157
	movl	32(%rbp), %esi	# methods, tmp158
	movl	%esi, (%rsp)	# tmp158,
	movl	%r8d, %r9d	# tmp153,
	movq	%rdi, %r8	# tmp154,
	movq	%rax, %rsi	# tmp157,
	movl	16(%rbp), %edi	# submode,
	call	expand_binop	#
	movq	%rax, -64(%rbp)	# tmp159, res
	jmp	.L70	#
.L69:
	.loc 1 483 0
	movq	-152(%rbp), %rsi	# realr, tmp160
	movq	-16(%rbp), %rcx	# divisor, tmp161
	movq	-96(%rbp), %rax	# real_t, tmp162
	movl	24(%rbp), %edx	# unsignedp, tmp163
	movl	%edx, (%rsp)	# tmp163,
	movq	%rsi, %r9	# tmp160,
	movq	%rcx, %r8	# tmp161,
	movq	%rax, %rcx	# tmp162,
	movl	16(%rbp), %edx	# submode,
	movl	$62, %esi	#,
	movl	$0, %edi	#,
	call	expand_divmod	#
	movq	%rax, -64(%rbp)	# tmp164, res
.L70:
	.loc 1 486 0
	cmpq	$0, -64(%rbp)	#, res
	jne	.L71	#,
	.loc 1 487 0
	movl	$0, %eax	#, D.18053
	jmp	.L56	#
.L71:
	.loc 1 489 0
	movq	-64(%rbp), %rax	# res, tmp165
	cmpq	-152(%rbp), %rax	# realr, tmp165
	je	.L72	#,
	.loc 1 490 0
	movq	-64(%rbp), %rdx	# res, tmp166
	movq	-152(%rbp), %rax	# realr, tmp167
	movq	%rdx, %rsi	# tmp166,
	movq	%rax, %rdi	# tmp167,
	call	emit_move_insn	#
.L72:
	.loc 1 492 0
	cmpl	$6, 40(%rbp)	#, class
	jne	.L73	#,
	.loc 1 493 0
	movl	24(%rbp), %r8d	# unsignedp, tmp168
	movq	-160(%rbp), %rdi	# imagr, tmp169
	movq	-16(%rbp), %rcx	# divisor, tmp170
	movq	-88(%rbp), %rdx	# imag_t, tmp171
	movq	48(%rbp), %rax	# binoptab, tmp172
	movl	32(%rbp), %esi	# methods, tmp173
	movl	%esi, (%rsp)	# tmp173,
	movl	%r8d, %r9d	# tmp168,
	movq	%rdi, %r8	# tmp169,
	movq	%rax, %rsi	# tmp172,
	movl	16(%rbp), %edi	# submode,
	call	expand_binop	#
	movq	%rax, -64(%rbp)	# tmp174, res
	jmp	.L74	#
.L73:
	.loc 1 496 0
	movq	-160(%rbp), %rsi	# imagr, tmp175
	movq	-16(%rbp), %rcx	# divisor, tmp176
	movq	-88(%rbp), %rax	# imag_t, tmp177
	movl	24(%rbp), %edx	# unsignedp, tmp178
	movl	%edx, (%rsp)	# tmp178,
	movq	%rsi, %r9	# tmp175,
	movq	%rcx, %r8	# tmp176,
	movq	%rax, %rcx	# tmp177,
	movl	16(%rbp), %edx	# submode,
	movl	$62, %esi	#,
	movl	$0, %edi	#,
	call	expand_divmod	#
	movq	%rax, -64(%rbp)	# tmp179, res
.L74:
	.loc 1 499 0
	cmpq	$0, -64(%rbp)	#, res
	jne	.L75	#,
	.loc 1 500 0
	movl	$0, %eax	#, D.18053
	jmp	.L56	#
.L75:
	.loc 1 502 0
	movq	-64(%rbp), %rax	# res, tmp180
	cmpq	-160(%rbp), %rax	# imagr, tmp180
	je	.L76	#,
	.loc 1 503 0
	movq	-64(%rbp), %rdx	# res, tmp181
	movq	-160(%rbp), %rax	# imagr, tmp182
	movq	%rdx, %rsi	# tmp181,
	movq	%rax, %rdi	# tmp182,
	call	emit_move_insn	#
.L76:
	.loc 1 505 0
	call	gen_label_rtx	#
	movq	%rax, -8(%rbp)	# tmp183, lab2
	.loc 1 506 0
	movq	-8(%rbp), %rax	# lab2, tmp184
	movq	%rax, %rdi	# tmp184,
	call	gen_jump	#
	movq	%rax, %rdi	# D.18056,
	call	emit_jump_insn	#
	.loc 1 507 0
	call	emit_barrier	#
	.loc 1 509 0
	movq	-24(%rbp), %rax	# lab1, tmp185
	movq	%rax, %rdi	# tmp185,
	call	emit_label	#
	.loc 1 513 0
	cmpl	$6, 40(%rbp)	#, class
	jne	.L77	#,
	.loc 1 514 0
	movl	24(%rbp), %edi	# unsignedp, tmp186
	movq	-144(%rbp), %rcx	# imag1, tmp187
	movq	-128(%rbp), %rdx	# real1, tmp188
	movq	48(%rbp), %rax	# binoptab, tmp189
	movl	32(%rbp), %esi	# methods, tmp190
	movl	%esi, (%rsp)	# tmp190,
	movl	%edi, %r9d	# tmp186,
	movl	$0, %r8d	#,
	movq	%rax, %rsi	# tmp189,
	movl	16(%rbp), %edi	# submode,
	call	expand_binop	#
	movq	%rax, -104(%rbp)	# tmp191, ratio
	jmp	.L78	#
.L77:
	.loc 1 517 0
	movq	-144(%rbp), %rcx	# imag1, tmp192
	movq	-128(%rbp), %rax	# real1, tmp193
	movl	24(%rbp), %edx	# unsignedp, tmp194
	movl	%edx, (%rsp)	# tmp194,
	movl	$0, %r9d	#,
	movq	%rcx, %r8	# tmp192,
	movq	%rax, %rcx	# tmp193,
	movl	16(%rbp), %edx	# submode,
	movl	$62, %esi	#,
	movl	$0, %edi	#,
	call	expand_divmod	#
	movq	%rax, -104(%rbp)	# tmp195, ratio
.L78:
	.loc 1 520 0
	cmpq	$0, -104(%rbp)	#, ratio
	jne	.L79	#,
	.loc 1 521 0
	movl	$0, %eax	#, D.18053
	jmp	.L56	#
.L79:
	.loc 1 525 0
	movl	24(%rbp), %edi	# unsignedp, tmp196
	movq	-104(%rbp), %rcx	# ratio, tmp197
	movq	-128(%rbp), %rdx	# real1, tmp198
	movq	-32(%rbp), %rax	# this_mul_optab, tmp199
	movl	32(%rbp), %esi	# methods, tmp200
	movl	%esi, (%rsp)	# tmp200,
	movl	%edi, %r9d	# tmp196,
	movl	$0, %r8d	#,
	movq	%rax, %rsi	# tmp199,
	movl	16(%rbp), %edi	# submode,
	call	expand_binop	#
	movq	%rax, -80(%rbp)	# tmp201, temp1
	.loc 1 528 0
	cmpq	$0, -80(%rbp)	#, temp1
	jne	.L80	#,
	.loc 1 529 0
	movl	$0, %eax	#, D.18053
	jmp	.L56	#
.L80:
	.loc 1 531 0
	movl	24(%rbp), %edi	# unsignedp, tmp202
	movq	-144(%rbp), %rcx	# imag1, tmp203
	movq	-80(%rbp), %rdx	# temp1, tmp204
	movq	-56(%rbp), %rax	# this_add_optab, tmp205
	movl	32(%rbp), %esi	# methods, tmp206
	movl	%esi, (%rsp)	# tmp206,
	movl	%edi, %r9d	# tmp202,
	movl	$0, %r8d	#,
	movq	%rax, %rsi	# tmp205,
	movl	16(%rbp), %edi	# submode,
	call	expand_binop	#
	movq	%rax, -16(%rbp)	# tmp207, divisor
	.loc 1 534 0
	cmpq	$0, -16(%rbp)	#, divisor
	jne	.L81	#,
	.loc 1 535 0
	movl	$0, %eax	#, D.18053
	jmp	.L56	#
.L81:
	.loc 1 539 0
	cmpq	$0, -136(%rbp)	#, imag0
	jne	.L82	#,
	.loc 1 543 0
	movl	24(%rbp), %edi	# unsignedp, tmp208
	movq	-104(%rbp), %rcx	# ratio, tmp209
	movq	-120(%rbp), %rdx	# real0, tmp210
	movq	-32(%rbp), %rax	# this_mul_optab, tmp211
	movl	32(%rbp), %esi	# methods, tmp212
	movl	%esi, (%rsp)	# tmp212,
	movl	%edi, %r9d	# tmp208,
	movl	$0, %r8d	#,
	movq	%rax, %rsi	# tmp211,
	movl	16(%rbp), %edi	# submode,
	call	expand_binop	#
	movq	%rax, -96(%rbp)	# tmp213, real_t
	.loc 1 546 0
	movl	24(%rbp), %ecx	# unsignedp, tmp214
	movq	-120(%rbp), %rdx	# real0, tmp215
	movq	-40(%rbp), %rax	# this_neg_optab, tmp216
	movl	%ecx, %r8d	# tmp214,
	movl	$0, %ecx	#,
	movq	%rax, %rsi	# tmp216,
	movl	16(%rbp), %edi	# submode,
	call	expand_unop	#
	movq	%rax, -88(%rbp)	# tmp217, imag_t
	.loc 1 549 0
	cmpq	$0, -96(%rbp)	#, real_t
	je	.L83	#,
	.loc 1 549 0 is_stmt 0 discriminator 1
	cmpq	$0, -88(%rbp)	#, imag_t
	jne	.L84	#,
.L83:
	.loc 1 550 0 is_stmt 1
	movl	$0, %eax	#, D.18053
	jmp	.L56	#
.L82:
	.loc 1 557 0
	movl	24(%rbp), %edi	# unsignedp, tmp218
	movq	-104(%rbp), %rcx	# ratio, tmp219
	movq	-120(%rbp), %rdx	# real0, tmp220
	movq	-32(%rbp), %rax	# this_mul_optab, tmp221
	movl	32(%rbp), %esi	# methods, tmp222
	movl	%esi, (%rsp)	# tmp222,
	movl	%edi, %r9d	# tmp218,
	movl	$0, %r8d	#,
	movq	%rax, %rsi	# tmp221,
	movl	16(%rbp), %edi	# submode,
	call	expand_binop	#
	movq	%rax, -80(%rbp)	# tmp223, temp1
	.loc 1 560 0
	cmpq	$0, -80(%rbp)	#, temp1
	jne	.L85	#,
	.loc 1 561 0
	movl	$0, %eax	#, D.18053
	jmp	.L56	#
.L85:
	.loc 1 563 0
	movl	24(%rbp), %edi	# unsignedp, tmp224
	movq	-136(%rbp), %rcx	# imag0, tmp225
	movq	-80(%rbp), %rdx	# temp1, tmp226
	movq	-56(%rbp), %rax	# this_add_optab, tmp227
	movl	32(%rbp), %esi	# methods, tmp228
	movl	%esi, (%rsp)	# tmp228,
	movl	%edi, %r9d	# tmp224,
	movl	$0, %r8d	#,
	movq	%rax, %rsi	# tmp227,
	movl	16(%rbp), %edi	# submode,
	call	expand_binop	#
	movq	%rax, -96(%rbp)	# tmp229, real_t
	.loc 1 566 0
	movl	24(%rbp), %edi	# unsignedp, tmp230
	movq	-104(%rbp), %rcx	# ratio, tmp231
	movq	-136(%rbp), %rdx	# imag0, tmp232
	movq	-32(%rbp), %rax	# this_mul_optab, tmp233
	movl	32(%rbp), %esi	# methods, tmp234
	movl	%esi, (%rsp)	# tmp234,
	movl	%edi, %r9d	# tmp230,
	movl	$0, %r8d	#,
	movq	%rax, %rsi	# tmp233,
	movl	16(%rbp), %edi	# submode,
	call	expand_binop	#
	movq	%rax, -80(%rbp)	# tmp235, temp1
	.loc 1 569 0
	cmpq	$0, -80(%rbp)	#, temp1
	jne	.L86	#,
	.loc 1 570 0
	movl	$0, %eax	#, D.18053
	jmp	.L56	#
.L86:
	.loc 1 572 0
	movl	24(%rbp), %edi	# unsignedp, tmp236
	movq	-120(%rbp), %rcx	# real0, tmp237
	movq	-80(%rbp), %rdx	# temp1, tmp238
	movq	-48(%rbp), %rax	# this_sub_optab, tmp239
	movl	32(%rbp), %esi	# methods, tmp240
	movl	%esi, (%rsp)	# tmp240,
	movl	%edi, %r9d	# tmp236,
	movl	$0, %r8d	#,
	movq	%rax, %rsi	# tmp239,
	movl	16(%rbp), %edi	# submode,
	call	expand_binop	#
	movq	%rax, -88(%rbp)	# tmp241, imag_t
	.loc 1 575 0
	cmpq	$0, -96(%rbp)	#, real_t
	je	.L87	#,
	.loc 1 575 0 is_stmt 0 discriminator 1
	cmpq	$0, -88(%rbp)	#, imag_t
	jne	.L84	#,
.L87:
	.loc 1 576 0 is_stmt 1
	movl	$0, %eax	#, D.18053
	jmp	.L56	#
.L84:
	.loc 1 579 0
	cmpl	$6, 40(%rbp)	#, class
	jne	.L88	#,
	.loc 1 580 0
	movl	24(%rbp), %r8d	# unsignedp, tmp242
	movq	-152(%rbp), %rdi	# realr, tmp243
	movq	-16(%rbp), %rcx	# divisor, tmp244
	movq	-96(%rbp), %rdx	# real_t, tmp245
	movq	48(%rbp), %rax	# binoptab, tmp246
	movl	32(%rbp), %esi	# methods, tmp247
	movl	%esi, (%rsp)	# tmp247,
	movl	%r8d, %r9d	# tmp242,
	movq	%rdi, %r8	# tmp243,
	movq	%rax, %rsi	# tmp246,
	movl	16(%rbp), %edi	# submode,
	call	expand_binop	#
	movq	%rax, -64(%rbp)	# tmp248, res
	jmp	.L89	#
.L88:
	.loc 1 583 0
	movq	-152(%rbp), %rsi	# realr, tmp249
	movq	-16(%rbp), %rcx	# divisor, tmp250
	movq	-96(%rbp), %rax	# real_t, tmp251
	movl	24(%rbp), %edx	# unsignedp, tmp252
	movl	%edx, (%rsp)	# tmp252,
	movq	%rsi, %r9	# tmp249,
	movq	%rcx, %r8	# tmp250,
	movq	%rax, %rcx	# tmp251,
	movl	16(%rbp), %edx	# submode,
	movl	$62, %esi	#,
	movl	$0, %edi	#,
	call	expand_divmod	#
	movq	%rax, -64(%rbp)	# tmp253, res
.L89:
	.loc 1 586 0
	cmpq	$0, -64(%rbp)	#, res
	jne	.L90	#,
	.loc 1 587 0
	movl	$0, %eax	#, D.18053
	jmp	.L56	#
.L90:
	.loc 1 589 0
	movq	-64(%rbp), %rax	# res, tmp254
	cmpq	-152(%rbp), %rax	# realr, tmp254
	je	.L91	#,
	.loc 1 590 0
	movq	-64(%rbp), %rdx	# res, tmp255
	movq	-152(%rbp), %rax	# realr, tmp256
	movq	%rdx, %rsi	# tmp255,
	movq	%rax, %rdi	# tmp256,
	call	emit_move_insn	#
.L91:
	.loc 1 592 0
	cmpl	$6, 40(%rbp)	#, class
	jne	.L92	#,
	.loc 1 593 0
	movl	24(%rbp), %r8d	# unsignedp, tmp257
	movq	-160(%rbp), %rdi	# imagr, tmp258
	movq	-16(%rbp), %rcx	# divisor, tmp259
	movq	-88(%rbp), %rdx	# imag_t, tmp260
	movq	48(%rbp), %rax	# binoptab, tmp261
	movl	32(%rbp), %esi	# methods, tmp262
	movl	%esi, (%rsp)	# tmp262,
	movl	%r8d, %r9d	# tmp257,
	movq	%rdi, %r8	# tmp258,
	movq	%rax, %rsi	# tmp261,
	movl	16(%rbp), %edi	# submode,
	call	expand_binop	#
	movq	%rax, -64(%rbp)	# tmp263, res
	jmp	.L93	#
.L92:
	.loc 1 596 0
	movq	-160(%rbp), %rsi	# imagr, tmp264
	movq	-16(%rbp), %rcx	# divisor, tmp265
	movq	-88(%rbp), %rax	# imag_t, tmp266
	movl	24(%rbp), %edx	# unsignedp, tmp267
	movl	%edx, (%rsp)	# tmp267,
	movq	%rsi, %r9	# tmp264,
	movq	%rcx, %r8	# tmp265,
	movq	%rax, %rcx	# tmp266,
	movl	16(%rbp), %edx	# submode,
	movl	$62, %esi	#,
	movl	$0, %edi	#,
	call	expand_divmod	#
	movq	%rax, -64(%rbp)	# tmp268, res
.L93:
	.loc 1 599 0
	cmpq	$0, -64(%rbp)	#, res
	jne	.L94	#,
	.loc 1 600 0
	movl	$0, %eax	#, D.18053
	jmp	.L56	#
.L94:
	.loc 1 602 0
	movq	-64(%rbp), %rax	# res, tmp269
	cmpq	-160(%rbp), %rax	# imagr, tmp269
	je	.L95	#,
	.loc 1 603 0
	movq	-64(%rbp), %rdx	# res, tmp270
	movq	-160(%rbp), %rax	# imagr, tmp271
	movq	%rdx, %rsi	# tmp270,
	movq	%rax, %rdi	# tmp271,
	call	emit_move_insn	#
.L95:
	.loc 1 605 0
	movq	-8(%rbp), %rax	# lab2, tmp272
	movq	%rax, %rdi	# tmp272,
	call	emit_label	#
	.loc 1 607 0
	movl	$1, %eax	#, D.18053
.L56:
	.loc 1 608 0
	leave
	.cfi_def_cfa 7, 8
	ret
	.cfi_endproc
.LFE5:
	.size	expand_cmplxdiv_wide, .-expand_cmplxdiv_wide
	.section	.rodata
.LC0:
	.string	"optabs.c"
	.text
	.globl	expand_simple_binop
	.type	expand_simple_binop, @function
expand_simple_binop:
.LFB6:
	.loc 1 621 0
	.cfi_startproc
	pushq	%rbp	#
	.cfi_def_cfa_offset 16
	.cfi_offset 6, -16
	movq	%rsp, %rbp	#,
	.cfi_def_cfa_register 6
	subq	$64, %rsp	#,
	movl	%edi, -20(%rbp)	# mode, mode
	movl	%esi, -24(%rbp)	# code, code
	movq	%rdx, -32(%rbp)	# op0, op0
	movq	%rcx, -40(%rbp)	# op1, op1
	movq	%r8, -48(%rbp)	# target, target
	movl	%r9d, -52(%rbp)	# unsignedp, unsignedp
	.loc 1 622 0
	movl	-24(%rbp), %eax	# code, code.10
	cltq
	movq	code_to_optab(,%rax,8), %rax	# code_to_optab, tmp63
	movq	%rax, -8(%rbp)	# tmp63, binop
	.loc 1 623 0
	cmpq	$0, -8(%rbp)	#, binop
	jne	.L97	#,
	.loc 1 624 0
	movl	$__FUNCTION__.13565, %edx	#,
	movl	$624, %esi	#,
	movl	$.LC0, %edi	#,
	call	fancy_abort	#
.L97:
	.loc 1 626 0
	movl	-52(%rbp), %r9d	# unsignedp, tmp64
	movq	-48(%rbp), %r8	# target, tmp65
	movq	-40(%rbp), %rcx	# op1, tmp66
	movq	-32(%rbp), %rdx	# op0, tmp67
	movq	-8(%rbp), %rsi	# binop, tmp68
	movl	-20(%rbp), %eax	# mode, tmp69
	movl	16(%rbp), %edi	# methods, tmp70
	movl	%edi, (%rsp)	# tmp70,
	movl	%eax, %edi	# tmp69,
	call	expand_binop	#
	.loc 1 627 0
	leave
	.cfi_def_cfa 7, 8
	ret
	.cfi_endproc
.LFE6:
	.size	expand_simple_binop, .-expand_simple_binop
	.globl	expand_binop
	.type	expand_binop, @function
expand_binop:
.LFB7:
	.loc 1 648 0
	.cfi_startproc
	pushq	%rbp	#
	.cfi_def_cfa_offset 16
	.cfi_offset 6, -16
	movq	%rsp, %rbp	#,
	.cfi_def_cfa_register 6
	pushq	%rbx	#
	subq	$808, %rsp	#,
	.cfi_offset 3, -24
	movl	%edi, -740(%rbp)	# mode, mode
	movq	%rsi, -752(%rbp)	# binoptab, binoptab
	movq	%rdx, -760(%rbp)	# op0, op0
	movq	%rcx, -768(%rbp)	# op1, op1
	movq	%r8, -776(%rbp)	# target, target
	movl	%r9d, -744(%rbp)	# unsignedp, unsignedp
	.loc 1 651 0
	cmpl	$1, 16(%rbp)	#, methods
	je	.L100	#,
	.loc 1 650 0
	cmpl	$3, 16(%rbp)	#, methods
	je	.L100	#,
	.loc 1 651 0
	movl	16(%rbp), %eax	# methods, iftmp.11
	jmp	.L101	#
.L100:
	.loc 1 651 0 is_stmt 0 discriminator 1
	movl	$2, %eax	#, iftmp.11
.L101:
	.loc 1 649 0 is_stmt 1
	movl	%eax, -696(%rbp)	# iftmp.11, next_methods
	.loc 1 655 0
	movl	$0, -724(%rbp)	#, commutative_op
	.loc 1 656 0
	movq	-752(%rbp), %rax	# binoptab, tmp545
	movl	(%rax), %eax	# binoptab_138(D)->code, D.18060
	.loc 1 660 0
	cmpl	$87, %eax	#, D.18060
	je	.L102	#,
	.loc 1 657 0
	movq	-752(%rbp), %rax	# binoptab, tmp546
	movl	(%rax), %eax	# binoptab_138(D)->code, D.18060
	cmpl	$89, %eax	#, D.18060
	je	.L102	#,
	.loc 1 658 0
	movq	-752(%rbp), %rax	# binoptab, tmp547
	movl	(%rax), %eax	# binoptab_138(D)->code, D.18060
	cmpl	$90, %eax	#, D.18060
	je	.L102	#,
	.loc 1 659 0
	movq	-752(%rbp), %rax	# binoptab, tmp548
	movl	(%rax), %eax	# binoptab_138(D)->code, D.18060
	cmpl	$88, %eax	#, D.18060
	je	.L102	#,
	.loc 1 660 0
	movq	-752(%rbp), %rax	# binoptab, tmp549
	movl	(%rax), %eax	# binoptab_138(D)->code, D.18060
	cmpl	$91, %eax	#, D.18060
	jne	.L103	#,
.L102:
	.loc 1 660 0 is_stmt 0 discriminator 1
	movl	$1, %eax	#, iftmp.12
	jmp	.L104	#
.L103:
	.loc 1 660 0 discriminator 2
	movl	$0, %eax	#, iftmp.12
.L104:
	.loc 1 656 0 is_stmt 1
	movl	%eax, -692(%rbp)	# iftmp.12, shift_op
	.loc 1 661 0
	call	get_last_insn	#
	movq	%rax, -440(%rbp)	# tmp550, entry_last
	.loc 1 664 0
	movl	-740(%rbp), %eax	# mode, mode.13
	cltq
	movl	mode_class(,%rax,4), %eax	# mode_class, tmp552
	movl	%eax, -688(%rbp)	# tmp552, class
	.loc 1 666 0
	movq	-760(%rbp), %rax	# op0, tmp553
	movl	$0, %esi	#,
	movq	%rax, %rdi	# tmp553,
	call	protect_from_queue	#
	movq	%rax, -760(%rbp)	# tmp554, op0
	.loc 1 667 0
	movq	-768(%rbp), %rax	# op1, tmp555
	movl	$0, %esi	#,
	movq	%rax, %rdi	# tmp555,
	call	protect_from_queue	#
	movq	%rax, -768(%rbp)	# tmp556, op1
	.loc 1 668 0
	cmpq	$0, -776(%rbp)	#, target
	je	.L105	#,
	.loc 1 669 0
	movq	-776(%rbp), %rax	# target, tmp557
	movl	$1, %esi	#,
	movq	%rax, %rdi	# tmp557,
	call	protect_from_queue	#
	movq	%rax, -776(%rbp)	# tmp558, target
.L105:
	.loc 1 671 0
	movl	flag_force_mem(%rip), %eax	# flag_force_mem, flag_force_mem.14
	testl	%eax, %eax	# flag_force_mem.14
	je	.L106	#,
	.loc 1 673 0
	movq	-760(%rbp), %rax	# op0, tmp559
	movq	%rax, %rdi	# tmp559,
	call	force_not_mem	#
	movq	%rax, -760(%rbp)	# tmp560, op0
	.loc 1 674 0
	movq	-768(%rbp), %rax	# op1, tmp561
	movq	%rax, %rdi	# tmp561,
	call	force_not_mem	#
	movq	%rax, -768(%rbp)	# tmp562, op1
.L106:
	.loc 1 680 0
	movq	optab_table+16(%rip), %rax	# optab_table, D.18061
	cmpq	-752(%rbp), %rax	# binoptab, D.18061
	jne	.L107	#,
	.loc 1 680 0 is_stmt 0 discriminator 1
	movq	-768(%rbp), %rax	# op1, tmp563
	movzwl	(%rax), %eax	# op1_8->code, D.18062
	cmpw	$54, %ax	#, D.18062
	jne	.L107	#,
	.loc 1 682 0 is_stmt 1
	movq	-768(%rbp), %rdx	# op1, tmp564
	movl	-740(%rbp), %eax	# mode, tmp565
	movq	%rdx, %rsi	# tmp564,
	movl	%eax, %edi	# tmp565,
	call	negate_rtx	#
	movq	%rax, -768(%rbp)	# tmp566, op1
	.loc 1 683 0
	movq	optab_table(%rip), %rax	# optab_table, tmp567
	movq	%rax, -752(%rbp)	# tmp567, binoptab
.L107:
	.loc 1 688 0
	movq	-760(%rbp), %rax	# op0, tmp568
	movzwl	(%rax), %eax	# op0_2->code, D.18062
	cmpw	$67, %ax	#, D.18062
	je	.L108	#,
	.loc 1 688 0 is_stmt 0 discriminator 2
	movq	-760(%rbp), %rax	# op0, tmp569
	movzwl	(%rax), %eax	# op0_2->code, D.18062
	cmpw	$68, %ax	#, D.18062
	je	.L108	#,
	.loc 1 688 0 discriminator 1
	movq	-760(%rbp), %rax	# op0, tmp570
	movzwl	(%rax), %eax	# op0_2->code, D.18062
	cmpw	$54, %ax	#, D.18062
	je	.L108	#,
	movq	-760(%rbp), %rax	# op0, tmp571
	movzwl	(%rax), %eax	# op0_2->code, D.18062
	cmpw	$55, %ax	#, D.18062
	je	.L108	#,
	movq	-760(%rbp), %rax	# op0, tmp572
	movzwl	(%rax), %eax	# op0_2->code, D.18062
	cmpw	$58, %ax	#, D.18062
	je	.L108	#,
	movq	-760(%rbp), %rax	# op0, tmp573
	movzwl	(%rax), %eax	# op0_2->code, D.18062
	cmpw	$134, %ax	#, D.18062
	je	.L108	#,
	movq	-760(%rbp), %rax	# op0, tmp574
	movzwl	(%rax), %eax	# op0_2->code, D.18062
	cmpw	$56, %ax	#, D.18062
	je	.L108	#,
	movq	-760(%rbp), %rax	# op0, tmp575
	movzwl	(%rax), %eax	# op0_2->code, D.18062
	cmpw	$140, %ax	#, D.18062
	jne	.L109	#,
.L108:
	call	preserve_subexpressions_p	#
	testl	%eax, %eax	# D.18063
	je	.L109	#,
	.loc 1 689 0 is_stmt 1
	movq	-752(%rbp), %rax	# binoptab, tmp576
	movl	(%rax), %edx	# binoptab_1->code, D.18060
	movq	-760(%rbp), %rax	# op0, tmp577
	movl	%edx, %esi	# D.18060,
	movq	%rax, %rdi	# tmp577,
	call	rtx_cost	#
	cmpl	$4, %eax	#, D.18063
	jle	.L109	#,
	.loc 1 690 0
	movq	-760(%rbp), %rdx	# op0, tmp578
	movl	-740(%rbp), %eax	# mode, tmp579
	movq	%rdx, %rsi	# tmp578,
	movl	%eax, %edi	# tmp579,
	call	force_reg	#
	movq	%rax, -760(%rbp)	# tmp580, op0
.L109:
	.loc 1 692 0
	movq	-768(%rbp), %rax	# op1, tmp581
	movzwl	(%rax), %eax	# op1_9->code, D.18062
	cmpw	$67, %ax	#, D.18062
	je	.L110	#,
	.loc 1 692 0 is_stmt 0 discriminator 2
	movq	-768(%rbp), %rax	# op1, tmp582
	movzwl	(%rax), %eax	# op1_9->code, D.18062
	cmpw	$68, %ax	#, D.18062
	je	.L110	#,
	.loc 1 692 0 discriminator 1
	movq	-768(%rbp), %rax	# op1, tmp583
	movzwl	(%rax), %eax	# op1_9->code, D.18062
	cmpw	$54, %ax	#, D.18062
	je	.L110	#,
	movq	-768(%rbp), %rax	# op1, tmp584
	movzwl	(%rax), %eax	# op1_9->code, D.18062
	cmpw	$55, %ax	#, D.18062
	je	.L110	#,
	movq	-768(%rbp), %rax	# op1, tmp585
	movzwl	(%rax), %eax	# op1_9->code, D.18062
	cmpw	$58, %ax	#, D.18062
	je	.L110	#,
	movq	-768(%rbp), %rax	# op1, tmp586
	movzwl	(%rax), %eax	# op1_9->code, D.18062
	cmpw	$134, %ax	#, D.18062
	je	.L110	#,
	movq	-768(%rbp), %rax	# op1, tmp587
	movzwl	(%rax), %eax	# op1_9->code, D.18062
	cmpw	$56, %ax	#, D.18062
	je	.L110	#,
	movq	-768(%rbp), %rax	# op1, tmp588
	movzwl	(%rax), %eax	# op1_9->code, D.18062
	cmpw	$140, %ax	#, D.18062
	jne	.L111	#,
.L110:
	call	preserve_subexpressions_p	#
	testl	%eax, %eax	# D.18063
	je	.L111	#,
	.loc 1 693 0 is_stmt 1
	cmpl	$0, -692(%rbp)	#, shift_op
	jne	.L111	#,
	.loc 1 693 0 is_stmt 0 discriminator 1
	movq	-752(%rbp), %rax	# binoptab, tmp589
	movl	(%rax), %edx	# binoptab_1->code, D.18060
	movq	-768(%rbp), %rax	# op1, tmp590
	movl	%edx, %esi	# D.18060,
	movq	%rax, %rdi	# tmp590,
	call	rtx_cost	#
	cmpl	$4, %eax	#, D.18063
	jle	.L111	#,
	.loc 1 694 0 is_stmt 1
	movq	-768(%rbp), %rdx	# op1, tmp591
	movl	-740(%rbp), %eax	# mode, tmp592
	movq	%rdx, %rsi	# tmp591,
	movl	%eax, %edi	# tmp592,
	call	force_reg	#
	movq	%rax, -768(%rbp)	# tmp593, op1
.L111:
	.loc 1 697 0
	call	get_last_insn	#
	movq	%rax, -432(%rbp)	# tmp594, last
	.loc 1 703 0
	movq	-752(%rbp), %rax	# binoptab, tmp595
	movl	(%rax), %eax	# binoptab_1->code, D.18060
	cltq
	movzbl	rtx_class(%rax), %eax	# rtx_class, D.18064
	cmpb	$99, %al	#, D.18064
	je	.L112	#,
	.loc 1 704 0
	movq	optab_table+64(%rip), %rax	# optab_table, D.18061
	cmpq	-752(%rbp), %rax	# binoptab, D.18061
	je	.L112	#,
	.loc 1 705 0
	movq	optab_table+72(%rip), %rax	# optab_table, D.18061
	cmpq	-752(%rbp), %rax	# binoptab, D.18061
	je	.L112	#,
	.loc 1 706 0
	movq	optab_table+48(%rip), %rax	# optab_table, D.18061
	cmpq	-752(%rbp), %rax	# binoptab, D.18061
	je	.L112	#,
	.loc 1 707 0
	movq	optab_table+56(%rip), %rax	# optab_table, D.18061
	cmpq	-752(%rbp), %rax	# binoptab, D.18061
	jne	.L113	#,
.L112:
	.loc 1 709 0
	movl	$1, -724(%rbp)	#, commutative_op
	.loc 1 711 0
	cmpq	$0, -776(%rbp)	#, target
	je	.L114	#,
	.loc 1 711 0 is_stmt 0 discriminator 1
	movq	-776(%rbp), %rax	# target, tmp597
	movzwl	(%rax), %eax	# target_14->code, D.18062
	cmpw	$61, %ax	#, D.18062
	jne	.L115	#,
.L114:
	.loc 1 712 0 is_stmt 1
	movq	-768(%rbp), %rax	# op1, tmp598
	movzwl	(%rax), %eax	# op1_10->code, D.18062
	.loc 1 714 0
	cmpw	$61, %ax	#, D.18062
	jne	.L116	#,
	.loc 1 713 0
	movq	-760(%rbp), %rax	# op0, tmp599
	movzwl	(%rax), %eax	# op0_3->code, D.18062
	cmpw	$61, %ax	#, D.18062
	jne	.L117	#,
.L116:
	.loc 1 714 0 discriminator 1
	movq	-776(%rbp), %rax	# target, tmp600
	cmpq	-768(%rbp), %rax	# op1, tmp600
	jne	.L118	#,
.L117:
	.loc 1 714 0 is_stmt 0 discriminator 2
	movl	$1, %eax	#, iftmp.15
	jmp	.L119	#
.L118:
	.loc 1 714 0 discriminator 3
	movl	$0, %eax	#, iftmp.15
.L119:
	.loc 1 716 0 is_stmt 1
	andl	$1, %eax	#, D.18065
	.loc 1 711 0
	testb	%al, %al	# D.18065
	jne	.L120	#,
	.loc 1 711 0 is_stmt 0 discriminator 2
	jmp	.L121	#
.L115:
	.loc 1 715 0 is_stmt 1
	movq	-776(%rbp), %rdx	# target, tmp601
	movq	-768(%rbp), %rax	# op1, tmp602
	movq	%rdx, %rsi	# tmp601,
	movq	%rax, %rdi	# tmp602,
	call	rtx_equal_p	#
	.loc 1 716 0
	testl	%eax, %eax	# D.18063
	jne	.L120	#,
.L121:
	.loc 1 716 0 is_stmt 0 discriminator 1
	movq	-760(%rbp), %rax	# op0, tmp603
	movzwl	(%rax), %eax	# op0_3->code, D.18062
	cmpw	$54, %ax	#, D.18062
	jne	.L113	#,
.L120:
	.loc 1 718 0 is_stmt 1
	movq	-768(%rbp), %rax	# op1, tmp604
	movq	%rax, -624(%rbp)	# tmp604, temp
	.loc 1 719 0
	movq	-760(%rbp), %rax	# op0, tmp605
	movq	%rax, -768(%rbp)	# tmp605, op1
	.loc 1 720 0
	movq	-624(%rbp), %rax	# temp, tmp606
	movq	%rax, -760(%rbp)	# tmp606, op0
.L113:
	.loc 1 726 0
	cmpl	$4, 16(%rbp)	#, methods
	je	.L122	#,
	.loc 1 727 0
	movl	-740(%rbp), %edx	# mode, mode.16
	movq	-752(%rbp), %rax	# binoptab, tmp607
	movslq	%edx, %rdx	# mode.16, tmp608
	salq	$4, %rdx	#, tmp609
	addq	%rdx, %rax	# tmp609, tmp610
	movl	8(%rax), %eax	# binoptab_1->handlers[mode.16_208].insn_code, D.18066
	cmpl	$1317, %eax	#, D.18066
	je	.L122	#,
.LBB2:
	.loc 1 729 0
	movl	-740(%rbp), %edx	# mode, mode.17
	movq	-752(%rbp), %rax	# binoptab, tmp611
	movslq	%edx, %rdx	# mode.17, tmp612
	salq	$4, %rdx	#, tmp613
	addq	%rdx, %rax	# tmp613, tmp614
	movl	8(%rax), %eax	# binoptab_1->handlers[mode.17_210].insn_code, D.18066
	movl	%eax, -684(%rbp)	# D.18066, icode
	.loc 1 730 0
	movl	-684(%rbp), %eax	# icode, tmp616
	movslq	%eax, %rdx	# tmp616, tmp615
	movq	%rdx, %rax	# tmp615, tmp617
	salq	$2, %rax	#, tmp617
	addq	%rdx, %rax	# tmp615, tmp617
	salq	$3, %rax	#, tmp618
	addq	$insn_data+24, %rax	#, tmp619
	movq	(%rax), %rax	# insn_data[icode_212].operand, D.18067
	addq	$24, %rax	#, D.18067
	movzwl	16(%rax), %eax	# _214->mode, D.18062
	movzwl	%ax, %eax	# D.18062, tmp620
	movl	%eax, -680(%rbp)	# tmp620, mode0
	.loc 1 731 0
	movl	-684(%rbp), %eax	# icode, tmp622
	movslq	%eax, %rdx	# tmp622, tmp621
	movq	%rdx, %rax	# tmp621, tmp623
	salq	$2, %rax	#, tmp623
	addq	%rdx, %rax	# tmp621, tmp623
	salq	$3, %rax	#, tmp624
	addq	$insn_data+24, %rax	#, tmp625
	movq	(%rax), %rax	# insn_data[icode_212].operand, D.18067
	addq	$48, %rax	#, D.18067
	movzwl	16(%rax), %eax	# _218->mode, D.18062
	movzwl	%ax, %eax	# D.18062, tmp626
	movl	%eax, -676(%rbp)	# tmp626, mode1
	.loc 1 733 0
	movq	-760(%rbp), %rax	# op0, tmp627
	movq	%rax, -616(%rbp)	# tmp627, xop0
	movq	-768(%rbp), %rax	# op1, tmp628
	movq	%rax, -608(%rbp)	# tmp628, xop1
	.loc 1 735 0
	cmpq	$0, -776(%rbp)	#, target
	je	.L123	#,
	.loc 1 736 0
	movq	-776(%rbp), %rax	# target, tmp629
	movq	%rax, -624(%rbp)	# tmp629, temp
	jmp	.L124	#
.L123:
	.loc 1 738 0
	movl	-740(%rbp), %eax	# mode, tmp630
	movl	%eax, %edi	# tmp630,
	call	gen_reg_rtx	#
	movq	%rax, -624(%rbp)	# tmp631, temp
.L124:
	.loc 1 742 0
	cmpl	$0, -724(%rbp)	#, commutative_op
	je	.L125	#,
	.loc 1 744 0
	movq	-760(%rbp), %rax	# op0, tmp632
	movzbl	2(%rax), %eax	# op0_4->mode, D.18068
	movzbl	%al, %eax	# D.18068, D.18069
	cmpl	-680(%rbp), %eax	# mode0, D.18069
	je	.L125	#,
	.loc 1 744 0 is_stmt 0 discriminator 1
	movq	-768(%rbp), %rax	# op1, tmp633
	movzbl	2(%rax), %eax	# op1_11->mode, D.18068
	movzbl	%al, %eax	# D.18068, D.18069
	cmpl	-676(%rbp), %eax	# mode1, D.18069
	je	.L125	#,
	.loc 1 745 0 is_stmt 1
	movq	-760(%rbp), %rax	# op0, tmp634
	movzbl	2(%rax), %eax	# op0_4->mode, D.18068
	movzbl	%al, %eax	# D.18068, D.18069
	cmpl	-676(%rbp), %eax	# mode1, D.18069
	jne	.L125	#,
	.loc 1 745 0 is_stmt 0 discriminator 1
	movq	-768(%rbp), %rax	# op1, tmp635
	movzbl	2(%rax), %eax	# op1_11->mode, D.18068
	movzbl	%al, %eax	# D.18068, D.18069
	cmpl	-680(%rbp), %eax	# mode0, D.18069
	jne	.L125	#,
.LBB3:
	.loc 1 749 0 is_stmt 1
	movq	-760(%rbp), %rax	# op0, tmp636
	movq	%rax, -424(%rbp)	# tmp636, tmp
	movq	-768(%rbp), %rax	# op1, tmp637
	movq	%rax, -760(%rbp)	# tmp637, op0
	movq	-424(%rbp), %rax	# tmp, tmp638
	movq	%rax, -768(%rbp)	# tmp638, op1
	.loc 1 750 0
	movq	-616(%rbp), %rax	# xop0, tmp639
	movq	%rax, -424(%rbp)	# tmp639, tmp
	movq	-608(%rbp), %rax	# xop1, tmp640
	movq	%rax, -616(%rbp)	# tmp640, xop0
	movq	-424(%rbp), %rax	# tmp, tmp641
	movq	%rax, -608(%rbp)	# tmp641, xop1
.L125:
.LBE3:
	.loc 1 764 0
	movq	-760(%rbp), %rax	# op0, tmp642
	movzbl	2(%rax), %eax	# op0_5->mode, D.18068
	movzbl	%al, %eax	# D.18068, D.18069
	cmpl	-680(%rbp), %eax	# mode0, D.18069
	je	.L126	#,
	.loc 1 765 0
	cmpl	$0, -680(%rbp)	#, mode0
	je	.L126	#,
	.loc 1 767 0
	movq	-760(%rbp), %rax	# op0, tmp643
	movzbl	2(%rax), %eax	# op0_5->mode, D.18068
	.loc 1 766 0
	testb	%al, %al	# D.18068
	je	.L127	#,
	.loc 1 768 0
	movq	-760(%rbp), %rax	# op0, tmp644
	movzbl	2(%rax), %eax	# op0_5->mode, D.18068
	.loc 1 766 0
	movzbl	%al, %eax	# D.18068, iftmp.18
	jmp	.L128	#
.L127:
	.loc 1 769 0 discriminator 1
	movl	-740(%rbp), %eax	# mode, mode.20
	cltq
	movzbl	mode_size(%rax), %edx	# mode_size, D.18068
	movl	-680(%rbp), %eax	# mode0, mode0.21
	cltq
	movzbl	mode_size(%rax), %eax	# mode_size, D.18068
	.loc 1 766 0 discriminator 1
	cmpb	%al, %dl	# D.18068, D.18068
	jbe	.L129	#,
	.loc 1 766 0 is_stmt 0 discriminator 2
	movl	-740(%rbp), %eax	# mode, iftmp.19
	jmp	.L128	#
.L129:
	.loc 1 766 0 discriminator 3
	movl	-680(%rbp), %eax	# mode0, iftmp.19
.L128:
	.loc 1 766 0 discriminator 5
	movl	-744(%rbp), %ecx	# unsignedp, tmp647
	movq	-616(%rbp), %rdx	# xop0, tmp648
	movl	-680(%rbp), %edi	# mode0, tmp649
	movl	%eax, %esi	# iftmp.18,
	call	convert_modes	#
	movq	%rax, -616(%rbp)	# tmp650, xop0
.L126:
	.loc 1 774 0 is_stmt 1
	movq	-608(%rbp), %rax	# xop1, tmp651
	movzbl	2(%rax), %eax	# xop1_37->mode, D.18068
	movzbl	%al, %eax	# D.18068, D.18069
	cmpl	-676(%rbp), %eax	# mode1, D.18069
	je	.L131	#,
	.loc 1 775 0
	cmpl	$0, -676(%rbp)	#, mode1
	je	.L131	#,
	.loc 1 777 0
	movq	-768(%rbp), %rax	# op1, tmp652
	movzbl	2(%rax), %eax	# op1_12->mode, D.18068
	.loc 1 776 0
	testb	%al, %al	# D.18068
	je	.L132	#,
	.loc 1 778 0
	movq	-768(%rbp), %rax	# op1, tmp653
	movzbl	2(%rax), %eax	# op1_12->mode, D.18068
	.loc 1 776 0
	movzbl	%al, %eax	# D.18068, iftmp.22
	jmp	.L133	#
.L132:
	.loc 1 779 0 discriminator 1
	movl	-740(%rbp), %eax	# mode, mode.24
	cltq
	movzbl	mode_size(%rax), %edx	# mode_size, D.18068
	movl	-676(%rbp), %eax	# mode1, mode1.25
	cltq
	movzbl	mode_size(%rax), %eax	# mode_size, D.18068
	.loc 1 776 0 discriminator 1
	cmpb	%al, %dl	# D.18068, D.18068
	jbe	.L134	#,
	.loc 1 780 0
	cmpl	$0, -692(%rbp)	#, shift_op
	jne	.L134	#,
	.loc 1 776 0
	movl	-740(%rbp), %eax	# mode, iftmp.23
	jmp	.L133	#
.L134:
	.loc 1 776 0 is_stmt 0 discriminator 2
	movl	-676(%rbp), %eax	# mode1, iftmp.23
.L133:
	.loc 1 776 0 discriminator 4
	movl	-744(%rbp), %ecx	# unsignedp, tmp656
	movq	-608(%rbp), %rdx	# xop1, tmp657
	movl	-676(%rbp), %edi	# mode1, tmp658
	movl	%eax, %esi	# iftmp.22,
	call	convert_modes	#
	movq	%rax, -608(%rbp)	# tmp659, xop1
.L131:
	.loc 1 788 0 is_stmt 1
	movl	-684(%rbp), %eax	# icode, tmp661
	movslq	%eax, %rdx	# tmp661, tmp660
	movq	%rdx, %rax	# tmp660, tmp662
	salq	$2, %rax	#, tmp662
	addq	%rdx, %rax	# tmp660, tmp662
	salq	$3, %rax	#, tmp663
	addq	$insn_data+24, %rax	#, tmp664
	movq	(%rax), %rax	# insn_data[icode_212].operand, D.18067
	addq	$24, %rax	#, D.18067
	movq	(%rax), %rax	# _267->predicate, D.18070
	movl	-680(%rbp), %ecx	# mode0, tmp665
	movq	-616(%rbp), %rdx	# xop0, tmp666
	movl	%ecx, %esi	# tmp665,
	movq	%rdx, %rdi	# tmp666,
	call	*%rax	# D.18070
	testl	%eax, %eax	# D.18063
	jne	.L136	#,
	.loc 1 789 0
	cmpl	$0, -680(%rbp)	#, mode0
	je	.L136	#,
	.loc 1 790 0
	movq	-616(%rbp), %rdx	# xop0, tmp667
	movl	-680(%rbp), %eax	# mode0, tmp668
	movq	%rdx, %rsi	# tmp667,
	movl	%eax, %edi	# tmp668,
	call	copy_to_mode_reg	#
	movq	%rax, -616(%rbp)	# tmp669, xop0
.L136:
	.loc 1 792 0
	movl	-684(%rbp), %eax	# icode, tmp671
	movslq	%eax, %rdx	# tmp671, tmp670
	movq	%rdx, %rax	# tmp670, tmp672
	salq	$2, %rax	#, tmp672
	addq	%rdx, %rax	# tmp670, tmp672
	salq	$3, %rax	#, tmp673
	addq	$insn_data+24, %rax	#, tmp674
	movq	(%rax), %rax	# insn_data[icode_212].operand, D.18067
	addq	$48, %rax	#, D.18067
	movq	(%rax), %rax	# _272->predicate, D.18070
	movl	-676(%rbp), %ecx	# mode1, tmp675
	movq	-608(%rbp), %rdx	# xop1, tmp676
	movl	%ecx, %esi	# tmp675,
	movq	%rdx, %rdi	# tmp676,
	call	*%rax	# D.18070
	testl	%eax, %eax	# D.18063
	jne	.L137	#,
	.loc 1 793 0
	cmpl	$0, -676(%rbp)	#, mode1
	je	.L137	#,
	.loc 1 794 0
	movq	-608(%rbp), %rdx	# xop1, tmp677
	movl	-676(%rbp), %eax	# mode1, tmp678
	movq	%rdx, %rsi	# tmp677,
	movl	%eax, %edi	# tmp678,
	call	copy_to_mode_reg	#
	movq	%rax, -608(%rbp)	# tmp679, xop1
.L137:
	.loc 1 796 0
	movl	-684(%rbp), %eax	# icode, tmp681
	movslq	%eax, %rdx	# tmp681, tmp680
	movq	%rdx, %rax	# tmp680, tmp682
	salq	$2, %rax	#, tmp682
	addq	%rdx, %rax	# tmp680, tmp682
	salq	$3, %rax	#, tmp683
	addq	$insn_data+24, %rax	#, tmp684
	movq	(%rax), %rax	# insn_data[icode_212].operand, D.18067
	movq	(%rax), %rax	# _276->predicate, D.18070
	movl	-740(%rbp), %ecx	# mode, tmp685
	movq	-624(%rbp), %rdx	# temp, tmp686
	movl	%ecx, %esi	# tmp685,
	movq	%rdx, %rdi	# tmp686,
	call	*%rax	# D.18070
	testl	%eax, %eax	# D.18063
	jne	.L138	#,
	.loc 1 797 0
	movl	-740(%rbp), %eax	# mode, tmp687
	movl	%eax, %edi	# tmp687,
	call	gen_reg_rtx	#
	movq	%rax, -624(%rbp)	# tmp688, temp
.L138:
	.loc 1 799 0
	movl	-684(%rbp), %eax	# icode, tmp690
	movslq	%eax, %rdx	# tmp690, tmp689
	movq	%rdx, %rax	# tmp689, tmp691
	salq	$2, %rax	#, tmp691
	addq	%rdx, %rax	# tmp689, tmp691
	salq	$3, %rax	#, tmp692
	addq	$insn_data+16, %rax	#, tmp693
	movq	(%rax), %rcx	# insn_data[icode_212].genfun, D.18071
	movq	-608(%rbp), %rdx	# xop1, tmp694
	movq	-616(%rbp), %rsi	# xop0, tmp695
	movq	-624(%rbp), %rax	# temp, tmp696
	movq	%rax, %rdi	# tmp696,
	movl	$0, %eax	#,
	call	*%rcx	# D.18071
	movq	%rax, -416(%rbp)	# tmp697, pat
	.loc 1 800 0
	cmpq	$0, -416(%rbp)	#, pat
	je	.L139	#,
	.loc 1 805 0
	movq	-416(%rbp), %rax	# pat, tmp698
	movzwl	(%rax), %eax	# pat_281->code, D.18062
	cmpw	$24, %ax	#, D.18062
	jne	.L140	#,
	.loc 1 806 0
	movq	-752(%rbp), %rax	# binoptab, tmp699
	movl	(%rax), %edx	# binoptab_1->code, D.18060
	movq	-608(%rbp), %rdi	# xop1, tmp700
	movq	-616(%rbp), %rcx	# xop0, tmp701
	movq	-624(%rbp), %rsi	# temp, tmp702
	movq	-416(%rbp), %rax	# pat, tmp703
	movq	%rdi, %r8	# tmp700,
	movq	%rax, %rdi	# tmp703,
	call	add_equal_note	#
	testl	%eax, %eax	# D.18063
	jne	.L140	#,
	.loc 1 808 0
	movq	-432(%rbp), %rax	# last, tmp704
	movq	%rax, %rdi	# tmp704,
	call	delete_insns_since	#
	.loc 1 809 0
	movl	-744(%rbp), %r8d	# unsignedp, tmp705
	movq	-768(%rbp), %rcx	# op1, tmp706
	movq	-760(%rbp), %rdx	# op0, tmp707
	movq	-752(%rbp), %rsi	# binoptab, tmp708
	movl	-740(%rbp), %eax	# mode, tmp709
	movl	16(%rbp), %edi	# methods, tmp710
	movl	%edi, (%rsp)	# tmp710,
	movl	%r8d, %r9d	# tmp705,
	movl	$0, %r8d	#,
	movl	%eax, %edi	# tmp709,
	call	expand_binop	#
	jmp	.L141	#
.L140:
	.loc 1 813 0
	movq	-416(%rbp), %rax	# pat, tmp711
	movq	%rax, %rdi	# tmp711,
	call	emit_insn	#
	.loc 1 814 0
	movq	-624(%rbp), %rax	# temp, D.18059
	jmp	.L141	#
.L139:
	.loc 1 817 0
	movq	-432(%rbp), %rax	# last, tmp712
	movq	%rax, %rdi	# tmp712,
	call	delete_insns_since	#
.L122:
.LBE2:
	.loc 1 823 0
	movq	optab_table+32(%rip), %rax	# optab_table, D.18061
	cmpq	-752(%rbp), %rax	# binoptab, D.18061
	jne	.L142	#,
	.loc 1 823 0 is_stmt 0 discriminator 1
	movl	-740(%rbp), %eax	# mode, mode.26
	cltq
	movzbl	mode_wider_mode(%rax), %eax	# mode_wider_mode, D.18068
	testb	%al, %al	# D.18068
	je	.L142	#,
	.loc 1 824 0 is_stmt 1
	cmpl	$0, -744(%rbp)	#, unsignedp
	je	.L143	#,
	.loc 1 824 0 is_stmt 0 discriminator 1
	movq	optab_table+72(%rip), %rax	# optab_table, iftmp.27
	jmp	.L144	#
.L143:
	.loc 1 824 0 discriminator 2
	movq	optab_table+64(%rip), %rax	# optab_table, iftmp.27
.L144:
	.loc 1 825 0 is_stmt 1 discriminator 3
	movl	-740(%rbp), %edx	# mode, mode.28
	movslq	%edx, %rdx	# mode.28, tmp714
	movzbl	mode_wider_mode(%rdx), %edx	# mode_wider_mode, D.18068
	movzbl	%dl, %edx	# D.18068, D.18063
	movslq	%edx, %rdx	# D.18063, tmp715
	salq	$4, %rdx	#, tmp716
	addq	%rdx, %rax	# tmp716, tmp717
	movl	8(%rax), %eax	# iftmp.27_94->handlers[_294].insn_code, D.18066
	.loc 1 824 0 discriminator 3
	cmpl	$1317, %eax	#, D.18066
	je	.L142	#,
	.loc 1 828 0
	cmpl	$0, -744(%rbp)	#, unsignedp
	je	.L145	#,
	.loc 1 828 0 is_stmt 0 discriminator 1
	movq	optab_table+72(%rip), %rax	# optab_table, iftmp.29
	jmp	.L146	#
.L145:
	.loc 1 828 0 discriminator 2
	movq	optab_table+64(%rip), %rax	# optab_table, iftmp.29
.L146:
	.loc 1 828 0 discriminator 3
	movl	-740(%rbp), %edx	# mode, mode.30
	movslq	%edx, %rdx	# mode.30, tmp718
	movzbl	mode_wider_mode(%rdx), %edx	# mode_wider_mode, D.18068
	movzbl	%dl, %edi	# D.18068, D.18072
	movl	-744(%rbp), %esi	# unsignedp, tmp719
	movq	-768(%rbp), %rcx	# op1, tmp720
	movq	-760(%rbp), %rdx	# op0, tmp721
	movl	$0, (%rsp)	#,
	movl	%esi, %r9d	# tmp719,
	movl	$0, %r8d	#,
	movq	%rax, %rsi	# iftmp.29,
	call	expand_binop	#
	movq	%rax, -624(%rbp)	# tmp722, temp
	.loc 1 832 0 is_stmt 1 discriminator 3
	cmpq	$0, -624(%rbp)	#, temp
	je	.L142	#,
	.loc 1 834 0
	movl	-740(%rbp), %eax	# mode, mode.31
	cltq
	movl	mode_class(,%rax,4), %eax	# mode_class, D.18073
	cmpl	$1, %eax	#, D.18073
	jne	.L147	#,
	.loc 1 835 0
	movq	-624(%rbp), %rdx	# temp, tmp724
	movl	-740(%rbp), %eax	# mode, tmp725
	movq	%rdx, %rsi	# tmp724,
	movl	%eax, %edi	# tmp725,
	call	gen_lowpart	#
	jmp	.L141	#
.L147:
	.loc 1 837 0
	movl	-744(%rbp), %edx	# unsignedp, tmp726
	movq	-624(%rbp), %rcx	# temp, tmp727
	movl	-740(%rbp), %eax	# mode, tmp728
	movq	%rcx, %rsi	# tmp727,
	movl	%eax, %edi	# tmp728,
	call	convert_to_mode	#
	jmp	.L141	#
.L142:
	.loc 1 845 0
	cmpl	$1, -688(%rbp)	#, class
	je	.L148	#,
	.loc 1 845 0 is_stmt 0 discriminator 1
	cmpl	$2, -688(%rbp)	#, class
	je	.L148	#,
	cmpl	$6, -688(%rbp)	#, class
	jne	.L149	#,
.L148:
	.loc 1 846 0 is_stmt 1
	cmpl	$0, 16(%rbp)	#, methods
	je	.L149	#,
	.loc 1 846 0 is_stmt 0 discriminator 1
	cmpl	$1, 16(%rbp)	#, methods
	je	.L149	#,
	.loc 1 847 0 is_stmt 1
	movl	-740(%rbp), %eax	# mode, mode.32
	cltq
	movzbl	mode_wider_mode(%rax), %eax	# mode_wider_mode, D.18068
	movzbl	%al, %eax	# D.18068, tmp730
	movl	%eax, -728(%rbp)	# tmp730, wider_mode
	jmp	.L150	#
.L162:
	.loc 1 850 0
	movl	-728(%rbp), %edx	# wider_mode, wider_mode.33
	movq	-752(%rbp), %rax	# binoptab, tmp731
	movslq	%edx, %rdx	# wider_mode.33, tmp732
	salq	$4, %rdx	#, tmp733
	addq	%rdx, %rax	# tmp733, tmp734
	movl	8(%rax), %eax	# binoptab_1->handlers[wider_mode.33_309].insn_code, D.18066
	cmpl	$1317, %eax	#, D.18066
	jne	.L151	#,
	.loc 1 851 0
	movq	optab_table+32(%rip), %rax	# optab_table, D.18061
	cmpq	-752(%rbp), %rax	# binoptab, D.18061
	jne	.L152	#,
	.loc 1 852 0
	movl	-728(%rbp), %eax	# wider_mode, wider_mode.34
	cltq
	movzbl	mode_wider_mode(%rax), %eax	# mode_wider_mode, D.18068
	testb	%al, %al	# D.18068
	je	.L152	#,
	.loc 1 853 0
	cmpl	$0, -744(%rbp)	#, unsignedp
	je	.L153	#,
	.loc 1 853 0 is_stmt 0 discriminator 1
	movq	optab_table+72(%rip), %rax	# optab_table, iftmp.35
	jmp	.L154	#
.L153:
	.loc 1 853 0 discriminator 2
	movq	optab_table+64(%rip), %rax	# optab_table, iftmp.35
.L154:
	.loc 1 854 0 is_stmt 1 discriminator 3
	movl	-728(%rbp), %edx	# wider_mode, wider_mode.36
	movslq	%edx, %rdx	# wider_mode.36, tmp736
	movzbl	mode_wider_mode(%rdx), %edx	# mode_wider_mode, D.18068
	movzbl	%dl, %edx	# D.18068, D.18063
	movslq	%edx, %rdx	# D.18063, tmp737
	salq	$4, %rdx	#, tmp738
	addq	%rdx, %rax	# tmp738, tmp739
	movl	8(%rax), %eax	# iftmp.35_96->handlers[_318].insn_code, D.18066
	.loc 1 853 0 discriminator 3
	cmpl	$1317, %eax	#, D.18066
	je	.L152	#,
.L151:
.LBB4:
	.loc 1 857 0
	movq	-760(%rbp), %rax	# op0, tmp740
	movq	%rax, -408(%rbp)	# tmp740, xop0
	movq	-768(%rbp), %rax	# op1, tmp741
	movq	%rax, -400(%rbp)	# tmp741, xop1
	.loc 1 858 0
	movl	$0, -720(%rbp)	#, no_extend
	.loc 1 864 0
	movq	optab_table+152(%rip), %rax	# optab_table, D.18061
	cmpq	-752(%rbp), %rax	# binoptab, D.18061
	je	.L155	#,
	.loc 1 864 0 is_stmt 0 discriminator 1
	movq	optab_table+144(%rip), %rax	# optab_table, D.18061
	cmpq	-752(%rbp), %rax	# binoptab, D.18061
	je	.L155	#,
	.loc 1 865 0 is_stmt 1
	movq	optab_table+160(%rip), %rax	# optab_table, D.18061
	cmpq	-752(%rbp), %rax	# binoptab, D.18061
	je	.L155	#,
	.loc 1 866 0
	movq	optab_table(%rip), %rax	# optab_table, D.18061
	cmpq	-752(%rbp), %rax	# binoptab, D.18061
	je	.L155	#,
	.loc 1 866 0 is_stmt 0 discriminator 1
	movq	optab_table+16(%rip), %rax	# optab_table, D.18061
	cmpq	-752(%rbp), %rax	# binoptab, D.18061
	je	.L155	#,
	.loc 1 867 0 is_stmt 1
	movq	optab_table+32(%rip), %rax	# optab_table, D.18061
	cmpq	-752(%rbp), %rax	# binoptab, D.18061
	je	.L155	#,
	.loc 1 867 0 is_stmt 0 discriminator 1
	movq	optab_table+168(%rip), %rax	# optab_table, D.18061
	cmpq	-752(%rbp), %rax	# binoptab, D.18061
	jne	.L156	#,
.L155:
	.loc 1 868 0 is_stmt 1
	cmpl	$1, -688(%rbp)	#, class
	jne	.L156	#,
	.loc 1 869 0
	movl	$1, -720(%rbp)	#, no_extend
.L156:
	.loc 1 871 0
	movl	-720(%rbp), %edi	# no_extend, tmp742
	movl	-744(%rbp), %ecx	# unsignedp, tmp743
	movl	-740(%rbp), %edx	# mode, tmp744
	movl	-728(%rbp), %esi	# wider_mode, tmp745
	movq	-408(%rbp), %rax	# xop0, tmp746
	movl	%edi, %r8d	# tmp742,
	movq	%rax, %rdi	# tmp746,
	call	widen_operand	#
	movq	%rax, -408(%rbp)	# tmp747, xop0
	.loc 1 874 0
	cmpl	$0, -720(%rbp)	#, no_extend
	je	.L157	#,
	.loc 1 875 0 discriminator 1
	movq	optab_table+168(%rip), %rax	# optab_table, D.18061
	.loc 1 874 0 discriminator 1
	cmpq	-752(%rbp), %rax	# binoptab, D.18061
	je	.L157	#,
	.loc 1 874 0 is_stmt 0 discriminator 3
	movl	$1, %eax	#, iftmp.37
	jmp	.L158	#
.L157:
	.loc 1 874 0 discriminator 2
	movl	$0, %eax	#, iftmp.37
.L158:
	.loc 1 874 0 discriminator 4
	movl	-744(%rbp), %ecx	# unsignedp, tmp748
	movl	-740(%rbp), %edx	# mode, tmp749
	movl	-728(%rbp), %esi	# wider_mode, tmp750
	movq	-400(%rbp), %rdi	# xop1, tmp751
	movl	%eax, %r8d	# iftmp.37,
	call	widen_operand	#
	movq	%rax, -400(%rbp)	# tmp752, xop1
	.loc 1 877 0 is_stmt 1 discriminator 4
	movl	-744(%rbp), %edi	# unsignedp, tmp753
	movq	-400(%rbp), %rcx	# xop1, tmp754
	movq	-408(%rbp), %rdx	# xop0, tmp755
	movq	-752(%rbp), %rsi	# binoptab, tmp756
	movl	-728(%rbp), %eax	# wider_mode, tmp757
	movl	$0, (%rsp)	#,
	movl	%edi, %r9d	# tmp753,
	movl	$0, %r8d	#,
	movl	%eax, %edi	# tmp757,
	call	expand_binop	#
	movq	%rax, -624(%rbp)	# tmp758, temp
	.loc 1 879 0 discriminator 4
	cmpq	$0, -624(%rbp)	#, temp
	je	.L159	#,
	.loc 1 881 0
	cmpl	$1, -688(%rbp)	#, class
	je	.L160	#,
	.loc 1 883 0
	cmpq	$0, -776(%rbp)	#, target
	jne	.L161	#,
	.loc 1 884 0
	movl	-740(%rbp), %eax	# mode, tmp759
	movl	%eax, %edi	# tmp759,
	call	gen_reg_rtx	#
	movq	%rax, -776(%rbp)	# tmp760, target
.L161:
	.loc 1 885 0
	movq	-624(%rbp), %rcx	# temp, tmp761
	movq	-776(%rbp), %rax	# target, tmp762
	movl	$0, %edx	#,
	movq	%rcx, %rsi	# tmp761,
	movq	%rax, %rdi	# tmp762,
	call	convert_move	#
	.loc 1 886 0
	movq	-776(%rbp), %rax	# target, D.18059
	jmp	.L141	#
.L160:
	.loc 1 889 0
	movq	-624(%rbp), %rdx	# temp, tmp763
	movl	-740(%rbp), %eax	# mode, tmp764
	movq	%rdx, %rsi	# tmp763,
	movl	%eax, %edi	# tmp764,
	call	gen_lowpart	#
	jmp	.L141	#
.L159:
	.loc 1 892 0
	movq	-432(%rbp), %rax	# last, tmp765
	movq	%rax, %rdi	# tmp765,
	call	delete_insns_since	#
.L152:
.LBE4:
	.loc 1 848 0
	movl	-728(%rbp), %eax	# wider_mode, wider_mode.38
	cltq
	movzbl	mode_wider_mode(%rax), %eax	# mode_wider_mode, D.18068
	movzbl	%al, %eax	# D.18068, tmp767
	movl	%eax, -728(%rbp)	# tmp767, wider_mode
.L150:
	.loc 1 847 0 discriminator 1
	cmpl	$0, -728(%rbp)	#, wider_mode
	jne	.L162	#,
.L149:
	.loc 1 897 0
	movq	optab_table+144(%rip), %rax	# optab_table, D.18061
	cmpq	-752(%rbp), %rax	# binoptab, D.18061
	je	.L163	#,
	.loc 1 897 0 is_stmt 0 discriminator 1
	movq	optab_table+152(%rip), %rax	# optab_table, D.18061
	cmpq	-752(%rbp), %rax	# binoptab, D.18061
	je	.L163	#,
	movq	optab_table+160(%rip), %rax	# optab_table, D.18061
	cmpq	-752(%rbp), %rax	# binoptab, D.18061
	jne	.L164	#,
.L163:
	.loc 1 898 0 is_stmt 1
	cmpl	$1, -688(%rbp)	#, class
	jne	.L164	#,
	.loc 1 899 0
	movl	-740(%rbp), %eax	# mode, mode.39
	cltq
	movzbl	mode_size(%rax), %eax	# mode_size, D.18068
	movzbl	%al, %edx	# D.18068, D.18063
	movl	target_flags(%rip), %eax	# target_flags, target_flags.41
	andl	$33554432, %eax	#, D.18063
	testl	%eax, %eax	# D.18063
	je	.L165	#,
	.loc 1 899 0 is_stmt 0 discriminator 1
	movl	$8, %eax	#, iftmp.40
	jmp	.L166	#
.L165:
	.loc 1 899 0 discriminator 2
	movl	$4, %eax	#, iftmp.40
.L166:
	.loc 1 899 0 discriminator 3
	cmpl	%eax, %edx	# iftmp.40, D.18063
	jle	.L164	#,
	.loc 1 900 0 is_stmt 1
	movl	word_mode(%rip), %eax	# word_mode, word_mode.42
	movl	%eax, %edx	# word_mode.42, word_mode.43
	movq	-752(%rbp), %rax	# binoptab, tmp769
	movslq	%edx, %rdx	# word_mode.43, tmp770
	salq	$4, %rdx	#, tmp771
	addq	%rdx, %rax	# tmp771, tmp772
	movl	8(%rax), %eax	# binoptab_1->handlers[word_mode.43_354].insn_code, D.18066
	cmpl	$1317, %eax	#, D.18066
	je	.L164	#,
.LBB5:
	.loc 1 908 0
	cmpq	$0, -776(%rbp)	#, target
	je	.L167	#,
	.loc 1 908 0 is_stmt 0 discriminator 1
	movq	-776(%rbp), %rax	# target, tmp773
	cmpq	-760(%rbp), %rax	# op0, tmp773
	je	.L167	#,
	movq	-776(%rbp), %rax	# target, tmp774
	cmpq	-768(%rbp), %rax	# op1, tmp774
	jne	.L168	#,
.L167:
	.loc 1 909 0 is_stmt 1
	movl	-740(%rbp), %eax	# mode, tmp775
	movl	%eax, %edi	# tmp775,
	call	gen_reg_rtx	#
	movq	%rax, -776(%rbp)	# tmp776, target
.L168:
	.loc 1 911 0
	call	start_sequence	#
	.loc 1 914 0
	movl	$0, -716(%rbp)	#, i
	jmp	.L169	#
.L175:
.LBB6:
	.loc 1 916 0
	movl	-716(%rbp), %esi	# i, i.44
	movl	-740(%rbp), %edx	# mode, tmp777
	movq	-776(%rbp), %rax	# target, tmp778
	movl	%edx, %ecx	# tmp777,
	movl	$1, %edx	#,
	movq	%rax, %rdi	# tmp778,
	call	operand_subword	#
	movq	%rax, -392(%rbp)	# tmp779, target_piece
	.loc 1 917 0
	movl	-716(%rbp), %ecx	# i, i.45
	movl	-740(%rbp), %edx	# mode, tmp780
	movq	-768(%rbp), %rax	# op1, tmp781
	movl	%ecx, %esi	# i.45,
	movq	%rax, %rdi	# tmp781,
	call	operand_subword_force	#
	movq	%rax, %rbx	#, D.18074
	movl	-716(%rbp), %ecx	# i, i.46
	movl	-740(%rbp), %edx	# mode, tmp782
	movq	-760(%rbp), %rax	# op0, tmp783
	movl	%ecx, %esi	# i.46,
	movq	%rax, %rdi	# tmp783,
	call	operand_subword_force	#
	movq	%rax, %rdx	#, D.18074
	movl	word_mode(%rip), %eax	# word_mode, word_mode.47
	movl	-744(%rbp), %r8d	# unsignedp, tmp784
	movq	-392(%rbp), %rdi	# target_piece, tmp785
	movq	-752(%rbp), %rsi	# binoptab, tmp786
	movl	-696(%rbp), %ecx	# next_methods, tmp787
	movl	%ecx, (%rsp)	# tmp787,
	movl	%r8d, %r9d	# tmp784,
	movq	%rdi, %r8	# tmp785,
	movq	%rbx, %rcx	# D.18074,
	movl	%eax, %edi	# word_mode.47,
	call	expand_binop	#
	movq	%rax, -384(%rbp)	# tmp788, x
	.loc 1 922 0
	cmpq	$0, -384(%rbp)	#, x
	jne	.L170	#,
	.loc 1 923 0
	jmp	.L171	#
.L170:
	.loc 1 925 0
	movq	-392(%rbp), %rax	# target_piece, tmp789
	cmpq	-384(%rbp), %rax	# x, tmp789
	je	.L172	#,
	.loc 1 926 0
	movq	-384(%rbp), %rdx	# x, tmp790
	movq	-392(%rbp), %rax	# target_piece, tmp791
	movq	%rdx, %rsi	# tmp790,
	movq	%rax, %rdi	# tmp791,
	call	emit_move_insn	#
.L172:
.LBE6:
	.loc 1 914 0
	addl	$1, -716(%rbp)	#, i
.L169:
	.loc 1 914 0 is_stmt 0 discriminator 1
	movl	-740(%rbp), %eax	# mode, mode.48
	cltq
	movzwl	mode_bitsize(%rax,%rax), %eax	# mode_bitsize, D.18062
	movzwl	%ax, %eax	# D.18062, D.18063
	movl	target_flags(%rip), %edx	# target_flags, target_flags.50
	andl	$33554432, %edx	#, D.18063
	testl	%edx, %edx	# D.18063
	je	.L173	#,
	movl	$64, %ebx	#, iftmp.49
	jmp	.L174	#
.L173:
	.loc 1 914 0 discriminator 2
	movl	$32, %ebx	#, iftmp.49
.L174:
	.loc 1 914 0 discriminator 3
	cltd
	idivl	%ebx	# iftmp.49
	cmpl	-716(%rbp), %eax	# i, D.18063
	jg	.L175	#,
.L171:
	.loc 1 929 0 is_stmt 1
	call	get_insns	#
	movq	%rax, -376(%rbp)	# tmp795, insns
	.loc 1 930 0
	call	end_sequence	#
	.loc 1 932 0
	movl	-740(%rbp), %eax	# mode, mode.51
	cltq
	movzwl	mode_bitsize(%rax,%rax), %eax	# mode_bitsize, D.18062
	movzwl	%ax, %eax	# D.18062, D.18063
	movl	target_flags(%rip), %edx	# target_flags, target_flags.53
	andl	$33554432, %edx	#, D.18063
	testl	%edx, %edx	# D.18063
	je	.L176	#,
	.loc 1 932 0 is_stmt 0 discriminator 1
	movl	$64, %ebx	#, iftmp.52
	jmp	.L177	#
.L176:
	.loc 1 932 0 discriminator 2
	movl	$32, %ebx	#, iftmp.52
.L177:
	.loc 1 932 0 discriminator 3
	cltd
	idivl	%ebx	# iftmp.52
	cmpl	-716(%rbp), %eax	# i, D.18063
	jne	.L164	#,
	.loc 1 934 0 is_stmt 1
	movq	-752(%rbp), %rax	# binoptab, tmp799
	movl	(%rax), %eax	# binoptab_1->code, D.18060
	testl	%eax, %eax	# D.18060
	je	.L178	#,
	.loc 1 936 0
	movq	-768(%rbp), %rax	# op1, tmp800
	movq	%rax, %rdi	# tmp800,
	call	copy_rtx	#
	movq	%rax, %rbx	#, D.18074
	movq	-760(%rbp), %rax	# op0, tmp801
	movq	%rax, %rdi	# tmp801,
	call	copy_rtx	#
	movq	%rax, %rdx	#, D.18074
	movq	-752(%rbp), %rax	# binoptab, tmp802
	movl	(%rax), %eax	# binoptab_1->code, D.18060
	movl	-740(%rbp), %esi	# mode, tmp803
	movq	%rbx, %rcx	# D.18074,
	movl	%eax, %edi	# D.18060,
	call	gen_rtx_fmt_ee	#
	movq	%rax, -600(%rbp)	# tmp804, equiv_value
	jmp	.L179	#
.L178:
	.loc 1 939 0
	movq	$0, -600(%rbp)	#, equiv_value
.L179:
	.loc 1 941 0
	movq	-600(%rbp), %rdi	# equiv_value, tmp805
	movq	-768(%rbp), %rcx	# op1, tmp806
	movq	-760(%rbp), %rdx	# op0, tmp807
	movq	-776(%rbp), %rsi	# target, tmp808
	movq	-376(%rbp), %rax	# insns, tmp809
	movq	%rdi, %r8	# tmp805,
	movq	%rax, %rdi	# tmp809,
	call	emit_no_conflict_block	#
	.loc 1 942 0
	movq	-776(%rbp), %rax	# target, D.18059
	jmp	.L141	#
.L164:
.LBE5:
	.loc 1 947 0
	movq	optab_table+176(%rip), %rax	# optab_table, D.18061
	cmpq	-752(%rbp), %rax	# binoptab, D.18061
	je	.L180	#,
	.loc 1 947 0 is_stmt 0 discriminator 1
	movq	optab_table+168(%rip), %rax	# optab_table, D.18061
	cmpq	-752(%rbp), %rax	# binoptab, D.18061
	je	.L180	#,
	.loc 1 948 0 is_stmt 1
	movq	optab_table+184(%rip), %rax	# optab_table, D.18061
	cmpq	-752(%rbp), %rax	# binoptab, D.18061
	jne	.L181	#,
.L180:
	.loc 1 949 0
	cmpl	$1, -688(%rbp)	#, class
	jne	.L181	#,
	.loc 1 950 0
	movq	-768(%rbp), %rax	# op1, tmp810
	movzwl	(%rax), %eax	# op1_13->code, D.18062
	cmpw	$54, %ax	#, D.18062
	jne	.L181	#,
	.loc 1 951 0
	movl	-740(%rbp), %eax	# mode, mode.54
	cltq
	movzbl	mode_size(%rax), %eax	# mode_size, D.18068
	movzbl	%al, %edx	# D.18068, D.18063
	movl	target_flags(%rip), %eax	# target_flags, target_flags.56
	andl	$33554432, %eax	#, D.18063
	testl	%eax, %eax	# D.18063
	je	.L182	#,
	.loc 1 951 0 is_stmt 0 discriminator 1
	movl	$16, %eax	#, iftmp.55
	jmp	.L183	#
.L182:
	.loc 1 951 0 discriminator 2
	movl	$8, %eax	#, iftmp.55
.L183:
	.loc 1 951 0 discriminator 3
	cmpl	%eax, %edx	# iftmp.55, D.18063
	jne	.L181	#,
	.loc 1 952 0 is_stmt 1
	movl	word_mode(%rip), %eax	# word_mode, word_mode.57
	movl	%eax, %edx	# word_mode.57, word_mode.58
	movq	-752(%rbp), %rax	# binoptab, tmp812
	movslq	%edx, %rdx	# word_mode.58, tmp813
	salq	$4, %rdx	#, tmp814
	addq	%rdx, %rax	# tmp814, tmp815
	movl	8(%rax), %eax	# binoptab_1->handlers[word_mode.58_403].insn_code, D.18066
	cmpl	$1317, %eax	#, D.18066
	je	.L181	#,
	.loc 1 953 0
	movq	optab_table+168(%rip), %rax	# optab_table, D.18061
	movl	word_mode(%rip), %edx	# word_mode, word_mode.59
	movslq	%edx, %rdx	# word_mode.60, tmp816
	salq	$4, %rdx	#, tmp817
	addq	%rdx, %rax	# tmp817, tmp818
	movl	8(%rax), %eax	# _405->handlers[word_mode.60_407].insn_code, D.18066
	cmpl	$1317, %eax	#, D.18066
	je	.L181	#,
	.loc 1 954 0
	movq	optab_table+176(%rip), %rax	# optab_table, D.18061
	movl	word_mode(%rip), %edx	# word_mode, word_mode.61
	movslq	%edx, %rdx	# word_mode.62, tmp819
	salq	$4, %rdx	#, tmp820
	addq	%rdx, %rax	# tmp820, tmp821
	movl	8(%rax), %eax	# _409->handlers[word_mode.62_411].insn_code, D.18066
	cmpl	$1317, %eax	#, D.18066
	je	.L181	#,
.LBB7:
	.loc 1 963 0
	cmpq	$0, -776(%rbp)	#, target
	je	.L184	#,
	.loc 1 963 0 is_stmt 0 discriminator 1
	movq	-776(%rbp), %rax	# target, tmp822
	cmpq	-760(%rbp), %rax	# op0, tmp822
	je	.L184	#,
	movq	-776(%rbp), %rax	# target, tmp823
	cmpq	-768(%rbp), %rax	# op1, tmp823
	jne	.L185	#,
.L184:
	.loc 1 964 0 is_stmt 1
	movl	-740(%rbp), %eax	# mode, tmp824
	movl	%eax, %edi	# tmp824,
	call	gen_reg_rtx	#
	movq	%rax, -776(%rbp)	# tmp825, target
.L185:
	.loc 1 966 0
	call	start_sequence	#
	.loc 1 968 0
	movq	-768(%rbp), %rax	# op1, tmp826
	movq	8(%rax), %rax	# op1_13->fld[0].rtwint, D.18075
	movl	%eax, -672(%rbp)	# D.18075, shift_count
	.loc 1 975 0
	movq	optab_table+168(%rip), %rax	# optab_table, D.18061
	cmpq	-752(%rbp), %rax	# binoptab, D.18061
	sete	%al	#, D.18065
	movzbl	%al, %eax	# D.18065, tmp827
	movl	%eax, -668(%rbp)	# tmp827, left_shift
	.loc 1 976 0
	movl	-668(%rbp), %eax	# left_shift, tmp831
	xorl	$1, %eax	#, tmp830
	movl	%eax, -664(%rbp)	# tmp830, outof_word
	.loc 1 978 0
	movl	-664(%rbp), %esi	# outof_word, outof_word.63
	movl	-740(%rbp), %edx	# mode, tmp832
	movq	-776(%rbp), %rax	# target, tmp833
	movl	%edx, %ecx	# tmp832,
	movl	$1, %edx	#,
	movq	%rax, %rdi	# tmp833,
	call	operand_subword	#
	movq	%rax, -368(%rbp)	# tmp834, outof_target
	.loc 1 979 0
	movl	$1, %eax	#, tmp835
	subl	-664(%rbp), %eax	# outof_word, D.18063
	movl	%eax, %esi	# D.18063, D.18069
	movl	-740(%rbp), %edx	# mode, tmp836
	movq	-776(%rbp), %rax	# target, tmp837
	movl	%edx, %ecx	# tmp836,
	movl	$1, %edx	#,
	movq	%rax, %rdi	# tmp837,
	call	operand_subword	#
	movq	%rax, -360(%rbp)	# tmp838, into_target
	.loc 1 981 0
	movl	-664(%rbp), %ecx	# outof_word, outof_word.64
	movl	-740(%rbp), %edx	# mode, tmp839
	movq	-760(%rbp), %rax	# op0, tmp840
	movl	%ecx, %esi	# outof_word.64,
	movq	%rax, %rdi	# tmp840,
	call	operand_subword_force	#
	movq	%rax, -352(%rbp)	# tmp841, outof_input
	.loc 1 982 0
	movl	$1, %eax	#, tmp842
	subl	-664(%rbp), %eax	# outof_word, D.18063
	movl	%eax, %ecx	# D.18063, D.18069
	movl	-740(%rbp), %edx	# mode, tmp843
	movq	-760(%rbp), %rax	# op0, tmp844
	movl	%ecx, %esi	# D.18069,
	movq	%rax, %rdi	# tmp844,
	call	operand_subword_force	#
	movq	%rax, -344(%rbp)	# tmp845, into_input
	.loc 1 984 0
	movl	target_flags(%rip), %eax	# target_flags, target_flags.66
	andl	$33554432, %eax	#, D.18063
	testl	%eax, %eax	# D.18063
	je	.L186	#,
	.loc 1 984 0 is_stmt 0 discriminator 1
	movl	$64, %eax	#, iftmp.65
	jmp	.L187	#
.L186:
	.loc 1 984 0 discriminator 2
	movl	$32, %eax	#, iftmp.65
.L187:
	.loc 1 984 0 discriminator 3
	cmpl	-672(%rbp), %eax	# shift_count, iftmp.65
	jg	.L188	#,
	.loc 1 988 0 is_stmt 1
	movl	target_flags(%rip), %eax	# target_flags, target_flags.68
	andl	$33554432, %eax	#, D.18063
	testl	%eax, %eax	# D.18063
	je	.L189	#,
	.loc 1 988 0 is_stmt 0 discriminator 1
	movl	$64, %eax	#, iftmp.67
	jmp	.L190	#
.L189:
	.loc 1 988 0 discriminator 2
	movl	$32, %eax	#, iftmp.67
.L190:
	.loc 1 988 0 discriminator 3
	movl	-672(%rbp), %edx	# shift_count, tmp846
	subl	%eax, %edx	# iftmp.67, D.18063
	movl	%edx, %eax	# D.18063, D.18063
	.loc 1 986 0 is_stmt 1 discriminator 3
	cltq
	movq	%rax, %rsi	# D.18075,
	movl	$0, %edi	#,
	call	gen_rtx_CONST_INT	#
	movq	%rax, %rcx	#, D.18074
	movl	word_mode(%rip), %eax	# word_mode, word_mode.69
	movl	-744(%rbp), %r9d	# unsignedp, tmp847
	movq	-360(%rbp), %r8	# into_target, tmp848
	movq	-352(%rbp), %rdx	# outof_input, tmp849
	movq	-752(%rbp), %rsi	# binoptab, tmp850
	movl	-696(%rbp), %edi	# next_methods, tmp851
	movl	%edi, (%rsp)	# tmp851,
	movl	%eax, %edi	# word_mode.69,
	call	expand_binop	#
	movq	%rax, -592(%rbp)	# tmp852, inter
	.loc 1 991 0 discriminator 3
	cmpq	$0, -592(%rbp)	#, inter
	je	.L191	#,
	.loc 1 991 0 is_stmt 0 discriminator 1
	movq	-592(%rbp), %rax	# inter, tmp853
	cmpq	-360(%rbp), %rax	# into_target, tmp853
	je	.L191	#,
	.loc 1 992 0 is_stmt 1
	movq	-592(%rbp), %rdx	# inter, tmp854
	movq	-360(%rbp), %rax	# into_target, tmp855
	movq	%rdx, %rsi	# tmp854,
	movq	%rax, %rdi	# tmp855,
	call	emit_move_insn	#
.L191:
	.loc 1 996 0
	cmpq	$0, -592(%rbp)	#, inter
	je	.L192	#,
	.loc 1 996 0 is_stmt 0 discriminator 1
	movq	optab_table+184(%rip), %rax	# optab_table, D.18061
	cmpq	-752(%rbp), %rax	# binoptab, D.18061
	je	.L192	#,
	.loc 1 997 0 is_stmt 1
	movl	word_mode(%rip), %eax	# word_mode, word_mode.70
	cltq
	movq	const_tiny_rtx(,%rax,8), %rax	# const_tiny_rtx, tmp857
	movq	%rax, -592(%rbp)	# tmp857, inter
	jmp	.L193	#
.L192:
	.loc 1 998 0
	cmpq	$0, -592(%rbp)	#, inter
	je	.L193	#,
	.loc 1 1001 0
	movl	target_flags(%rip), %eax	# target_flags, target_flags.73
	andl	$33554432, %eax	#, D.18063
	.loc 1 999 0
	testl	%eax, %eax	# D.18063
	je	.L194	#,
	.loc 1 999 0 is_stmt 0 discriminator 1
	movl	$63, %eax	#, iftmp.72
	jmp	.L195	#
.L194:
	.loc 1 999 0 discriminator 2
	movl	$31, %eax	#, iftmp.72
.L195:
	.loc 1 999 0 discriminator 3
	movq	%rax, %rsi	# iftmp.72,
	movl	$0, %edi	#,
	call	gen_rtx_CONST_INT	#
	movq	%rax, %rcx	#, D.18074
	movl	word_mode(%rip), %eax	# word_mode, word_mode.74
	movl	-744(%rbp), %r9d	# unsignedp, tmp858
	movq	-368(%rbp), %r8	# outof_target, tmp859
	movq	-352(%rbp), %rdx	# outof_input, tmp860
	movq	-752(%rbp), %rsi	# binoptab, tmp861
	movl	-696(%rbp), %edi	# next_methods, tmp862
	movl	%edi, (%rsp)	# tmp862,
	movl	%eax, %edi	# word_mode.74,
	call	expand_binop	#
	movq	%rax, -592(%rbp)	# tmp863, inter
.L193:
	.loc 1 1004 0 is_stmt 1
	cmpq	$0, -592(%rbp)	#, inter
	je	.L197	#,
	.loc 1 1004 0 is_stmt 0 discriminator 1
	movq	-592(%rbp), %rax	# inter, tmp864
	cmpq	-368(%rbp), %rax	# outof_target, tmp864
	je	.L197	#,
	.loc 1 1005 0 is_stmt 1
	movq	-592(%rbp), %rdx	# inter, tmp865
	movq	-368(%rbp), %rax	# outof_target, tmp866
	movq	%rdx, %rsi	# tmp865,
	movq	%rax, %rdi	# tmp866,
	call	emit_move_insn	#
	jmp	.L197	#
.L188:
.LBB8:
	.loc 1 1016 0
	cmpl	$0, -668(%rbp)	#, left_shift
	je	.L198	#,
	.loc 1 1016 0 is_stmt 0 discriminator 1
	movq	optab_table+176(%rip), %rax	# optab_table, iftmp.75
	jmp	.L199	#
.L198:
	.loc 1 1016 0 discriminator 2
	movq	optab_table+168(%rip), %rax	# optab_table, iftmp.75
.L199:
	.loc 1 1016 0 discriminator 3
	movq	%rax, -336(%rbp)	# iftmp.75, reverse_unsigned_shift
	.loc 1 1022 0 is_stmt 1 discriminator 3
	cmpl	$0, -668(%rbp)	#, left_shift
	je	.L200	#,
	.loc 1 1022 0 is_stmt 0 discriminator 1
	movq	optab_table+168(%rip), %rax	# optab_table, iftmp.76
	jmp	.L201	#
.L200:
	.loc 1 1022 0 discriminator 2
	movq	optab_table+176(%rip), %rax	# optab_table, iftmp.76
.L201:
	.loc 1 1022 0 discriminator 3
	movq	%rax, -328(%rbp)	# iftmp.76, unsigned_shift
	.loc 1 1026 0 is_stmt 1 discriminator 3
	movl	target_flags(%rip), %eax	# target_flags, target_flags.78
	andl	$33554432, %eax	#, D.18063
	testl	%eax, %eax	# D.18063
	je	.L202	#,
	.loc 1 1026 0 is_stmt 0 discriminator 1
	movl	$64, %eax	#, iftmp.77
	jmp	.L203	#
.L202:
	.loc 1 1026 0 discriminator 2
	movl	$32, %eax	#, iftmp.77
.L203:
	.loc 1 1026 0 discriminator 3
	subl	-672(%rbp), %eax	# shift_count, D.18063
	.loc 1 1024 0 is_stmt 1 discriminator 3
	cltq
	movq	%rax, %rsi	# D.18075,
	movl	$0, %edi	#,
	call	gen_rtx_CONST_INT	#
	movq	%rax, %rcx	#, D.18074
	movl	word_mode(%rip), %eax	# word_mode, word_mode.79
	movl	-744(%rbp), %r8d	# unsignedp, tmp867
	movq	-352(%rbp), %rdx	# outof_input, tmp868
	movq	-336(%rbp), %rsi	# reverse_unsigned_shift, tmp869
	movl	-696(%rbp), %edi	# next_methods, tmp870
	movl	%edi, (%rsp)	# tmp870,
	movl	%r8d, %r9d	# tmp867,
	movl	$0, %r8d	#,
	movl	%eax, %edi	# word_mode.79,
	call	expand_binop	#
	movq	%rax, -320(%rbp)	# tmp871, carries
	.loc 1 1029 0 discriminator 3
	cmpq	$0, -320(%rbp)	#, carries
	jne	.L204	#,
	.loc 1 1030 0
	movq	$0, -592(%rbp)	#, inter
	jmp	.L205	#
.L204:
	.loc 1 1032 0
	movl	word_mode(%rip), %eax	# word_mode, word_mode.80
	movl	-744(%rbp), %r8d	# unsignedp, tmp872
	movq	-768(%rbp), %rcx	# op1, tmp873
	movq	-344(%rbp), %rdx	# into_input, tmp874
	movq	-328(%rbp), %rsi	# unsigned_shift, tmp875
	movl	-696(%rbp), %edi	# next_methods, tmp876
	movl	%edi, (%rsp)	# tmp876,
	movl	%r8d, %r9d	# tmp872,
	movl	$0, %r8d	#,
	movl	%eax, %edi	# word_mode.80,
	call	expand_binop	#
	movq	%rax, -592(%rbp)	# tmp877, inter
.L205:
	.loc 1 1035 0
	cmpq	$0, -592(%rbp)	#, inter
	je	.L206	#,
	.loc 1 1036 0
	movq	optab_table+152(%rip), %rsi	# optab_table, D.18061
	movl	word_mode(%rip), %eax	# word_mode, word_mode.81
	movl	-744(%rbp), %r9d	# unsignedp, tmp878
	movq	-360(%rbp), %r8	# into_target, tmp879
	movq	-592(%rbp), %rcx	# inter, tmp880
	movq	-320(%rbp), %rdx	# carries, tmp881
	movl	-696(%rbp), %edi	# next_methods, tmp882
	movl	%edi, (%rsp)	# tmp882,
	movl	%eax, %edi	# word_mode.81,
	call	expand_binop	#
	movq	%rax, -592(%rbp)	# tmp883, inter
.L206:
	.loc 1 1039 0
	cmpq	$0, -592(%rbp)	#, inter
	je	.L207	#,
	.loc 1 1039 0 is_stmt 0 discriminator 1
	movq	-592(%rbp), %rax	# inter, tmp884
	cmpq	-360(%rbp), %rax	# into_target, tmp884
	je	.L207	#,
	.loc 1 1040 0 is_stmt 1
	movq	-592(%rbp), %rdx	# inter, tmp885
	movq	-360(%rbp), %rax	# into_target, tmp886
	movq	%rdx, %rsi	# tmp885,
	movq	%rax, %rdi	# tmp886,
	call	emit_move_insn	#
.L207:
	.loc 1 1042 0
	cmpq	$0, -592(%rbp)	#, inter
	je	.L208	#,
	.loc 1 1043 0
	movl	word_mode(%rip), %eax	# word_mode, word_mode.82
	movl	-744(%rbp), %r9d	# unsignedp, tmp887
	movq	-368(%rbp), %r8	# outof_target, tmp888
	movq	-768(%rbp), %rcx	# op1, tmp889
	movq	-352(%rbp), %rdx	# outof_input, tmp890
	movq	-752(%rbp), %rsi	# binoptab, tmp891
	movl	-696(%rbp), %edi	# next_methods, tmp892
	movl	%edi, (%rsp)	# tmp892,
	movl	%eax, %edi	# word_mode.82,
	call	expand_binop	#
	movq	%rax, -592(%rbp)	# tmp893, inter
.L208:
	.loc 1 1046 0
	cmpq	$0, -592(%rbp)	#, inter
	je	.L197	#,
	.loc 1 1046 0 is_stmt 0 discriminator 1
	movq	-592(%rbp), %rax	# inter, tmp894
	cmpq	-368(%rbp), %rax	# outof_target, tmp894
	je	.L197	#,
	.loc 1 1047 0 is_stmt 1
	movq	-592(%rbp), %rdx	# inter, tmp895
	movq	-368(%rbp), %rax	# outof_target, tmp896
	movq	%rdx, %rsi	# tmp895,
	movq	%rax, %rdi	# tmp896,
	call	emit_move_insn	#
.L197:
.LBE8:
	.loc 1 1050 0
	call	get_insns	#
	movq	%rax, -312(%rbp)	# tmp897, insns
	.loc 1 1051 0
	call	end_sequence	#
	.loc 1 1053 0
	cmpq	$0, -592(%rbp)	#, inter
	je	.L181	#,
	.loc 1 1055 0
	movq	-752(%rbp), %rax	# binoptab, tmp898
	movl	(%rax), %eax	# binoptab_1->code, D.18060
	testl	%eax, %eax	# D.18060
	je	.L209	#,
	.loc 1 1056 0
	movq	-752(%rbp), %rax	# binoptab, tmp899
	movl	(%rax), %eax	# binoptab_1->code, D.18060
	movq	-768(%rbp), %rcx	# op1, tmp900
	movq	-760(%rbp), %rdx	# op0, tmp901
	movl	-740(%rbp), %esi	# mode, tmp902
	movl	%eax, %edi	# D.18060,
	call	gen_rtx_fmt_ee	#
	movq	%rax, -584(%rbp)	# tmp903, equiv_value
	jmp	.L210	#
.L209:
	.loc 1 1058 0
	movq	$0, -584(%rbp)	#, equiv_value
.L210:
	.loc 1 1060 0
	movq	-584(%rbp), %rdi	# equiv_value, tmp904
	movq	-768(%rbp), %rcx	# op1, tmp905
	movq	-760(%rbp), %rdx	# op0, tmp906
	movq	-776(%rbp), %rsi	# target, tmp907
	movq	-312(%rbp), %rax	# insns, tmp908
	movq	%rdi, %r8	# tmp904,
	movq	%rax, %rdi	# tmp908,
	call	emit_no_conflict_block	#
	.loc 1 1061 0
	movq	-776(%rbp), %rax	# target, D.18059
	jmp	.L141	#
.L181:
.LBE7:
	.loc 1 1066 0
	movq	optab_table+192(%rip), %rax	# optab_table, D.18061
	cmpq	-752(%rbp), %rax	# binoptab, D.18061
	je	.L211	#,
	.loc 1 1066 0 is_stmt 0 discriminator 1
	movq	optab_table+200(%rip), %rax	# optab_table, D.18061
	cmpq	-752(%rbp), %rax	# binoptab, D.18061
	jne	.L212	#,
.L211:
	.loc 1 1067 0 is_stmt 1
	cmpl	$1, -688(%rbp)	#, class
	jne	.L212	#,
	.loc 1 1068 0
	movq	-768(%rbp), %rax	# op1, tmp909
	movzwl	(%rax), %eax	# op1_13->code, D.18062
	cmpw	$54, %ax	#, D.18062
	jne	.L212	#,
	.loc 1 1069 0
	movl	-740(%rbp), %eax	# mode, mode.83
	cltq
	movzbl	mode_size(%rax), %eax	# mode_size, D.18068
	movzbl	%al, %edx	# D.18068, D.18063
	movl	target_flags(%rip), %eax	# target_flags, target_flags.85
	andl	$33554432, %eax	#, D.18063
	testl	%eax, %eax	# D.18063
	je	.L213	#,
	.loc 1 1069 0 is_stmt 0 discriminator 1
	movl	$16, %eax	#, iftmp.84
	jmp	.L214	#
.L213:
	.loc 1 1069 0 discriminator 2
	movl	$8, %eax	#, iftmp.84
.L214:
	.loc 1 1069 0 discriminator 3
	cmpl	%eax, %edx	# iftmp.84, D.18063
	jne	.L212	#,
	.loc 1 1070 0 is_stmt 1
	movq	optab_table+168(%rip), %rax	# optab_table, D.18061
	movl	word_mode(%rip), %edx	# word_mode, word_mode.86
	movslq	%edx, %rdx	# word_mode.87, tmp911
	salq	$4, %rdx	#, tmp912
	addq	%rdx, %rax	# tmp912, tmp913
	movl	8(%rax), %eax	# _493->handlers[word_mode.87_495].insn_code, D.18066
	cmpl	$1317, %eax	#, D.18066
	je	.L212	#,
	.loc 1 1071 0
	movq	optab_table+176(%rip), %rax	# optab_table, D.18061
	movl	word_mode(%rip), %edx	# word_mode, word_mode.88
	movslq	%edx, %rdx	# word_mode.89, tmp914
	salq	$4, %rdx	#, tmp915
	addq	%rdx, %rax	# tmp915, tmp916
	movl	8(%rax), %eax	# _497->handlers[word_mode.89_499].insn_code, D.18066
	cmpl	$1317, %eax	#, D.18066
	je	.L212	#,
.LBB9:
	.loc 1 1081 0
	cmpq	$0, -776(%rbp)	#, target
	je	.L215	#,
	.loc 1 1081 0 is_stmt 0 discriminator 1
	movq	-776(%rbp), %rax	# target, tmp917
	cmpq	-760(%rbp), %rax	# op0, tmp917
	je	.L215	#,
	movq	-776(%rbp), %rax	# target, tmp918
	cmpq	-768(%rbp), %rax	# op1, tmp918
	jne	.L216	#,
.L215:
	.loc 1 1082 0 is_stmt 1
	movl	-740(%rbp), %eax	# mode, tmp919
	movl	%eax, %edi	# tmp919,
	call	gen_reg_rtx	#
	movq	%rax, -776(%rbp)	# tmp920, target
.L216:
	.loc 1 1084 0
	call	start_sequence	#
	.loc 1 1086 0
	movq	-768(%rbp), %rax	# op1, tmp921
	movq	8(%rax), %rax	# op1_13->fld[0].rtwint, D.18075
	movl	%eax, -660(%rbp)	# D.18075, shift_count
	.loc 1 1093 0
	movq	optab_table+192(%rip), %rax	# optab_table, D.18061
	cmpq	-752(%rbp), %rax	# binoptab, D.18061
	sete	%al	#, D.18065
	movzbl	%al, %eax	# D.18065, tmp922
	movl	%eax, -656(%rbp)	# tmp922, left_shift
	.loc 1 1094 0
	movl	-656(%rbp), %eax	# left_shift, tmp926
	xorl	$1, %eax	#, tmp925
	movl	%eax, -652(%rbp)	# tmp925, outof_word
	.loc 1 1096 0
	movl	-652(%rbp), %esi	# outof_word, outof_word.90
	movl	-740(%rbp), %edx	# mode, tmp927
	movq	-776(%rbp), %rax	# target, tmp928
	movl	%edx, %ecx	# tmp927,
	movl	$1, %edx	#,
	movq	%rax, %rdi	# tmp928,
	call	operand_subword	#
	movq	%rax, -304(%rbp)	# tmp929, outof_target
	.loc 1 1097 0
	movl	$1, %eax	#, tmp930
	subl	-652(%rbp), %eax	# outof_word, D.18063
	movl	%eax, %esi	# D.18063, D.18069
	movl	-740(%rbp), %edx	# mode, tmp931
	movq	-776(%rbp), %rax	# target, tmp932
	movl	%edx, %ecx	# tmp931,
	movl	$1, %edx	#,
	movq	%rax, %rdi	# tmp932,
	call	operand_subword	#
	movq	%rax, -296(%rbp)	# tmp933, into_target
	.loc 1 1099 0
	movl	-652(%rbp), %ecx	# outof_word, outof_word.91
	movl	-740(%rbp), %edx	# mode, tmp934
	movq	-760(%rbp), %rax	# op0, tmp935
	movl	%ecx, %esi	# outof_word.91,
	movq	%rax, %rdi	# tmp935,
	call	operand_subword_force	#
	movq	%rax, -288(%rbp)	# tmp936, outof_input
	.loc 1 1100 0
	movl	$1, %eax	#, tmp937
	subl	-652(%rbp), %eax	# outof_word, D.18063
	movl	%eax, %ecx	# D.18063, D.18069
	movl	-740(%rbp), %edx	# mode, tmp938
	movq	-760(%rbp), %rax	# op0, tmp939
	movl	%ecx, %esi	# D.18069,
	movq	%rax, %rdi	# tmp939,
	call	operand_subword_force	#
	movq	%rax, -280(%rbp)	# tmp940, into_input
	.loc 1 1102 0
	movl	target_flags(%rip), %eax	# target_flags, target_flags.93
	andl	$33554432, %eax	#, D.18063
	testl	%eax, %eax	# D.18063
	je	.L217	#,
	.loc 1 1102 0 is_stmt 0 discriminator 1
	movl	$64, %eax	#, iftmp.92
	jmp	.L218	#
.L217:
	.loc 1 1102 0 discriminator 2
	movl	$32, %eax	#, iftmp.92
.L218:
	.loc 1 1102 0 discriminator 3
	cmpl	-660(%rbp), %eax	# shift_count, iftmp.92
	jne	.L219	#,
	.loc 1 1105 0 is_stmt 1
	movq	-280(%rbp), %rdx	# into_input, tmp941
	movq	-304(%rbp), %rax	# outof_target, tmp942
	movq	%rdx, %rsi	# tmp941,
	movq	%rax, %rdi	# tmp942,
	call	emit_move_insn	#
	.loc 1 1106 0
	movq	-288(%rbp), %rdx	# outof_input, tmp943
	movq	-296(%rbp), %rax	# into_target, tmp944
	movq	%rdx, %rsi	# tmp943,
	movq	%rax, %rdi	# tmp944,
	call	emit_move_insn	#
	.loc 1 1107 0
	movq	const_int_rtx+512(%rip), %rax	# const_int_rtx, tmp945
	movq	%rax, -568(%rbp)	# tmp945, inter
	jmp	.L220	#
.L219:
.LBB10:
	.loc 1 1115 0
	movl	target_flags(%rip), %eax	# target_flags, target_flags.96
	andl	$33554432, %eax	#, D.18063
	testl	%eax, %eax	# D.18063
	je	.L221	#,
	.loc 1 1115 0 is_stmt 0 discriminator 1
	movl	$64, %eax	#, iftmp.95
	jmp	.L222	#
.L221:
	.loc 1 1115 0 discriminator 2
	movl	$32, %eax	#, iftmp.95
.L222:
	.loc 1 1115 0 discriminator 3
	cmpl	-660(%rbp), %eax	# shift_count, iftmp.95
	setg	%al	#, D.18065
	movzbl	%al, %eax	# D.18065, D.18063
	.loc 1 1116 0 is_stmt 1 discriminator 3
	cmpl	-656(%rbp), %eax	# left_shift, D.18063
	je	.L223	#,
	.loc 1 1116 0 is_stmt 0 discriminator 1
	movq	optab_table+176(%rip), %rax	# optab_table, iftmp.94
	jmp	.L224	#
.L223:
	.loc 1 1116 0 discriminator 2
	movq	optab_table+168(%rip), %rax	# optab_table, iftmp.94
.L224:
	.loc 1 1115 0 is_stmt 1
	movq	%rax, -272(%rbp)	# iftmp.94, reverse_unsigned_shift
	.loc 1 1118 0
	movl	target_flags(%rip), %eax	# target_flags, target_flags.99
	andl	$33554432, %eax	#, D.18063
	testl	%eax, %eax	# D.18063
	je	.L225	#,
	.loc 1 1118 0 is_stmt 0 discriminator 1
	movl	$64, %eax	#, iftmp.98
	jmp	.L226	#
.L225:
	.loc 1 1118 0 discriminator 2
	movl	$32, %eax	#, iftmp.98
.L226:
	.loc 1 1118 0 discriminator 3
	cmpl	-660(%rbp), %eax	# shift_count, iftmp.98
	setg	%al	#, D.18065
	movzbl	%al, %eax	# D.18065, D.18063
	.loc 1 1119 0 is_stmt 1 discriminator 3
	cmpl	-656(%rbp), %eax	# left_shift, D.18063
	je	.L227	#,
	.loc 1 1119 0 is_stmt 0 discriminator 1
	movq	optab_table+168(%rip), %rax	# optab_table, iftmp.97
	jmp	.L228	#
.L227:
	.loc 1 1119 0 discriminator 2
	movq	optab_table+176(%rip), %rax	# optab_table, iftmp.97
.L228:
	.loc 1 1118 0 is_stmt 1
	movq	%rax, -264(%rbp)	# iftmp.97, unsigned_shift
	.loc 1 1121 0
	movl	target_flags(%rip), %eax	# target_flags, target_flags.101
	andl	$33554432, %eax	#, D.18063
	testl	%eax, %eax	# D.18063
	je	.L229	#,
	.loc 1 1121 0 is_stmt 0 discriminator 1
	movl	$64, %eax	#, iftmp.100
	jmp	.L230	#
.L229:
	.loc 1 1121 0 discriminator 2
	movl	$32, %eax	#, iftmp.100
.L230:
	.loc 1 1121 0 discriminator 3
	cmpl	-660(%rbp), %eax	# shift_count, iftmp.100
	jge	.L231	#,
	.loc 1 1123 0 is_stmt 1
	movl	target_flags(%rip), %eax	# target_flags, target_flags.103
	andl	$33554432, %eax	#, D.18063
	testl	%eax, %eax	# D.18063
	je	.L232	#,
	.loc 1 1123 0 is_stmt 0 discriminator 1
	movl	$64, %eax	#, iftmp.102
	jmp	.L233	#
.L232:
	.loc 1 1123 0 discriminator 2
	movl	$32, %eax	#, iftmp.102
.L233:
	.loc 1 1123 0 discriminator 3
	movl	-660(%rbp), %edx	# shift_count, tmp946
	subl	%eax, %edx	# iftmp.102, D.18063
	movl	%edx, %eax	# D.18063, D.18063
	cltq
	movq	%rax, %rsi	# D.18075,
	movl	$0, %edi	#,
	call	gen_rtx_CONST_INT	#
	movq	%rax, -560(%rbp)	# tmp947, first_shift_count
	.loc 1 1124 0 is_stmt 1 discriminator 3
	movl	target_flags(%rip), %eax	# target_flags, target_flags.105
	andl	$33554432, %eax	#, D.18063
	testl	%eax, %eax	# D.18063
	je	.L234	#,
	.loc 1 1124 0 is_stmt 0 discriminator 1
	movl	$128, %eax	#, iftmp.104
	jmp	.L235	#
.L234:
	.loc 1 1124 0 discriminator 2
	movl	$64, %eax	#, iftmp.104
.L235:
	.loc 1 1124 0 discriminator 1
	subl	-660(%rbp), %eax	# shift_count, D.18063
	cltq
	movq	%rax, %rsi	# D.18075,
	movl	$0, %edi	#,
	call	gen_rtx_CONST_INT	#
	movq	%rax, -552(%rbp)	# tmp948, second_shift_count
	jmp	.L236	#
.L231:
	.loc 1 1128 0 is_stmt 1
	movl	target_flags(%rip), %eax	# target_flags, target_flags.107
	andl	$33554432, %eax	#, D.18063
	testl	%eax, %eax	# D.18063
	je	.L237	#,
	.loc 1 1128 0 is_stmt 0 discriminator 1
	movl	$64, %eax	#, iftmp.106
	jmp	.L238	#
.L237:
	.loc 1 1128 0 discriminator 2
	movl	$32, %eax	#, iftmp.106
.L238:
	.loc 1 1128 0 discriminator 3
	subl	-660(%rbp), %eax	# shift_count, D.18063
	cltq
	movq	%rax, %rsi	# D.18075,
	movl	$0, %edi	#,
	call	gen_rtx_CONST_INT	#
	movq	%rax, -560(%rbp)	# tmp949, first_shift_count
	.loc 1 1129 0 is_stmt 1 discriminator 3
	movl	-660(%rbp), %eax	# shift_count, tmp950
	cltq
	movq	%rax, %rsi	# D.18075,
	movl	$0, %edi	#,
	call	gen_rtx_CONST_INT	#
	movq	%rax, -552(%rbp)	# tmp951, second_shift_count
.L236:
	.loc 1 1132 0
	movl	word_mode(%rip), %eax	# word_mode, word_mode.108
	movl	-744(%rbp), %r8d	# unsignedp, tmp952
	movq	-560(%rbp), %rcx	# first_shift_count, tmp953
	movq	-288(%rbp), %rdx	# outof_input, tmp954
	movq	-264(%rbp), %rsi	# unsigned_shift, tmp955
	movl	-696(%rbp), %edi	# next_methods, tmp956
	movl	%edi, (%rsp)	# tmp956,
	movl	%r8d, %r9d	# tmp952,
	movl	$0, %r8d	#,
	movl	%eax, %edi	# word_mode.108,
	call	expand_binop	#
	movq	%rax, -256(%rbp)	# tmp957, into_temp1
	.loc 1 1135 0
	movl	word_mode(%rip), %eax	# word_mode, word_mode.109
	movl	-744(%rbp), %r9d	# unsignedp, tmp958
	movq	-296(%rbp), %r8	# into_target, tmp959
	movq	-552(%rbp), %rcx	# second_shift_count, tmp960
	movq	-280(%rbp), %rdx	# into_input, tmp961
	movq	-272(%rbp), %rsi	# reverse_unsigned_shift, tmp962
	movl	-696(%rbp), %edi	# next_methods, tmp963
	movl	%edi, (%rsp)	# tmp963,
	movl	%eax, %edi	# word_mode.109,
	call	expand_binop	#
	movq	%rax, -248(%rbp)	# tmp964, into_temp2
	.loc 1 1139 0
	cmpq	$0, -256(%rbp)	#, into_temp1
	je	.L239	#,
	.loc 1 1139 0 is_stmt 0 discriminator 1
	cmpq	$0, -248(%rbp)	#, into_temp2
	je	.L239	#,
	.loc 1 1140 0 is_stmt 1
	movq	optab_table+152(%rip), %rsi	# optab_table, D.18061
	movl	word_mode(%rip), %eax	# word_mode, word_mode.110
	movl	-744(%rbp), %r9d	# unsignedp, tmp965
	movq	-296(%rbp), %r8	# into_target, tmp966
	movq	-248(%rbp), %rcx	# into_temp2, tmp967
	movq	-256(%rbp), %rdx	# into_temp1, tmp968
	movl	-696(%rbp), %edi	# next_methods, tmp969
	movl	%edi, (%rsp)	# tmp969,
	movl	%eax, %edi	# word_mode.110,
	call	expand_binop	#
	movq	%rax, -568(%rbp)	# tmp970, inter
	jmp	.L240	#
.L239:
	.loc 1 1143 0
	movq	$0, -568(%rbp)	#, inter
.L240:
	.loc 1 1145 0
	cmpq	$0, -568(%rbp)	#, inter
	je	.L241	#,
	.loc 1 1145 0 is_stmt 0 discriminator 1
	movq	-568(%rbp), %rax	# inter, tmp971
	cmpq	-296(%rbp), %rax	# into_target, tmp971
	je	.L241	#,
	.loc 1 1146 0 is_stmt 1
	movq	-568(%rbp), %rdx	# inter, tmp972
	movq	-296(%rbp), %rax	# into_target, tmp973
	movq	%rdx, %rsi	# tmp972,
	movq	%rax, %rdi	# tmp973,
	call	emit_move_insn	#
.L241:
	.loc 1 1148 0
	movl	word_mode(%rip), %eax	# word_mode, word_mode.111
	movl	-744(%rbp), %r8d	# unsignedp, tmp974
	movq	-560(%rbp), %rcx	# first_shift_count, tmp975
	movq	-280(%rbp), %rdx	# into_input, tmp976
	movq	-264(%rbp), %rsi	# unsigned_shift, tmp977
	movl	-696(%rbp), %edi	# next_methods, tmp978
	movl	%edi, (%rsp)	# tmp978,
	movl	%r8d, %r9d	# tmp974,
	movl	$0, %r8d	#,
	movl	%eax, %edi	# word_mode.111,
	call	expand_binop	#
	movq	%rax, -240(%rbp)	# tmp979, outof_temp1
	.loc 1 1151 0
	movl	word_mode(%rip), %eax	# word_mode, word_mode.112
	movl	-744(%rbp), %r9d	# unsignedp, tmp980
	movq	-304(%rbp), %r8	# outof_target, tmp981
	movq	-552(%rbp), %rcx	# second_shift_count, tmp982
	movq	-288(%rbp), %rdx	# outof_input, tmp983
	movq	-272(%rbp), %rsi	# reverse_unsigned_shift, tmp984
	movl	-696(%rbp), %edi	# next_methods, tmp985
	movl	%edi, (%rsp)	# tmp985,
	movl	%eax, %edi	# word_mode.112,
	call	expand_binop	#
	movq	%rax, -232(%rbp)	# tmp986, outof_temp2
	.loc 1 1155 0
	cmpq	$0, -568(%rbp)	#, inter
	je	.L242	#,
	.loc 1 1155 0 is_stmt 0 discriminator 1
	cmpq	$0, -240(%rbp)	#, outof_temp1
	je	.L242	#,
	cmpq	$0, -232(%rbp)	#, outof_temp2
	je	.L242	#,
	.loc 1 1156 0 is_stmt 1
	movq	optab_table+152(%rip), %rsi	# optab_table, D.18061
	movl	word_mode(%rip), %eax	# word_mode, word_mode.113
	movl	-744(%rbp), %r9d	# unsignedp, tmp987
	movq	-304(%rbp), %r8	# outof_target, tmp988
	movq	-232(%rbp), %rcx	# outof_temp2, tmp989
	movq	-240(%rbp), %rdx	# outof_temp1, tmp990
	movl	-696(%rbp), %edi	# next_methods, tmp991
	movl	%edi, (%rsp)	# tmp991,
	movl	%eax, %edi	# word_mode.113,
	call	expand_binop	#
	movq	%rax, -568(%rbp)	# tmp992, inter
.L242:
	.loc 1 1160 0
	cmpq	$0, -568(%rbp)	#, inter
	je	.L220	#,
	.loc 1 1160 0 is_stmt 0 discriminator 1
	movq	-568(%rbp), %rax	# inter, tmp993
	cmpq	-304(%rbp), %rax	# outof_target, tmp993
	je	.L220	#,
	.loc 1 1161 0 is_stmt 1
	movq	-568(%rbp), %rdx	# inter, tmp994
	movq	-304(%rbp), %rax	# outof_target, tmp995
	movq	%rdx, %rsi	# tmp994,
	movq	%rax, %rdi	# tmp995,
	call	emit_move_insn	#
.L220:
.LBE10:
	.loc 1 1164 0
	call	get_insns	#
	movq	%rax, -224(%rbp)	# tmp996, insns
	.loc 1 1165 0
	call	end_sequence	#
	.loc 1 1167 0
	cmpq	$0, -568(%rbp)	#, inter
	je	.L212	#,
	.loc 1 1169 0
	movq	-752(%rbp), %rax	# binoptab, tmp997
	movl	(%rax), %eax	# binoptab_1->code, D.18060
	testl	%eax, %eax	# D.18060
	je	.L243	#,
	.loc 1 1170 0
	movq	-752(%rbp), %rax	# binoptab, tmp998
	movl	(%rax), %eax	# binoptab_1->code, D.18060
	movq	-768(%rbp), %rcx	# op1, tmp999
	movq	-760(%rbp), %rdx	# op0, tmp1000
	movl	-740(%rbp), %esi	# mode, tmp1001
	movl	%eax, %edi	# D.18060,
	call	gen_rtx_fmt_ee	#
	movq	%rax, -576(%rbp)	# tmp1002, equiv_value
	jmp	.L244	#
.L243:
	.loc 1 1172 0
	movq	$0, -576(%rbp)	#, equiv_value
.L244:
	.loc 1 1177 0
	movl	target_flags(%rip), %eax	# target_flags, target_flags.115
	andl	$33554432, %eax	#, D.18063
	testl	%eax, %eax	# D.18063
	je	.L245	#,
	.loc 1 1177 0 is_stmt 0 discriminator 1
	movl	$64, %eax	#, iftmp.114
	jmp	.L246	#
.L245:
	.loc 1 1177 0 discriminator 2
	movl	$32, %eax	#, iftmp.114
.L246:
	.loc 1 1177 0 discriminator 3
	cmpl	-660(%rbp), %eax	# shift_count, iftmp.114
	je	.L247	#,
	.loc 1 1178 0 is_stmt 1
	movq	-576(%rbp), %rdi	# equiv_value, tmp1003
	movq	-768(%rbp), %rcx	# op1, tmp1004
	movq	-760(%rbp), %rdx	# op0, tmp1005
	movq	-776(%rbp), %rsi	# target, tmp1006
	movq	-224(%rbp), %rax	# insns, tmp1007
	movq	%rdi, %r8	# tmp1003,
	movq	%rax, %rdi	# tmp1007,
	call	emit_no_conflict_block	#
	jmp	.L248	#
.L247:
	.loc 1 1180 0
	movq	-224(%rbp), %rax	# insns, tmp1008
	movq	%rax, %rdi	# tmp1008,
	call	emit_insns	#
.L248:
	.loc 1 1183 0
	movq	-776(%rbp), %rax	# target, D.18059
	jmp	.L141	#
.L212:
.LBE9:
	.loc 1 1188 0
	movq	optab_table(%rip), %rax	# optab_table, D.18061
	cmpq	-752(%rbp), %rax	# binoptab, D.18061
	je	.L249	#,
	.loc 1 1188 0 is_stmt 0 discriminator 1
	movq	optab_table+16(%rip), %rax	# optab_table, D.18061
	cmpq	-752(%rbp), %rax	# binoptab, D.18061
	jne	.L250	#,
.L249:
	.loc 1 1189 0 is_stmt 1
	cmpl	$1, -688(%rbp)	#, class
	jne	.L250	#,
	.loc 1 1190 0
	movl	-740(%rbp), %eax	# mode, mode.116
	cltq
	movzbl	mode_size(%rax), %eax	# mode_size, D.18068
	movzbl	%al, %edx	# D.18068, D.18063
	movl	target_flags(%rip), %eax	# target_flags, target_flags.118
	andl	$33554432, %eax	#, D.18063
	testl	%eax, %eax	# D.18063
	je	.L251	#,
	.loc 1 1190 0 is_stmt 0 discriminator 1
	movl	$16, %eax	#, iftmp.117
	jmp	.L252	#
.L251:
	.loc 1 1190 0 discriminator 2
	movl	$8, %eax	#, iftmp.117
.L252:
	.loc 1 1190 0 discriminator 3
	cmpl	%eax, %edx	# iftmp.117, D.18063
	jl	.L250	#,
	.loc 1 1191 0 is_stmt 1
	movl	word_mode(%rip), %eax	# word_mode, word_mode.119
	movl	%eax, %edx	# word_mode.119, word_mode.120
	movq	-752(%rbp), %rax	# binoptab, tmp1010
	movslq	%edx, %rdx	# word_mode.120, tmp1011
	salq	$4, %rdx	#, tmp1012
	addq	%rdx, %rax	# tmp1012, tmp1013
	movl	8(%rax), %eax	# binoptab_1->handlers[word_mode.120_603].insn_code, D.18066
	cmpl	$1317, %eax	#, D.18066
	je	.L250	#,
.LBB11:
	.loc 1 1194 0
	movq	optab_table(%rip), %rax	# optab_table, D.18061
	cmpq	-752(%rbp), %rax	# binoptab, D.18061
	jne	.L253	#,
	.loc 1 1194 0 is_stmt 0 discriminator 1
	movq	optab_table+16(%rip), %rax	# optab_table, iftmp.121
	jmp	.L254	#
.L253:
	.loc 1 1194 0 discriminator 2
	movq	optab_table(%rip), %rax	# optab_table, iftmp.121
.L254:
	.loc 1 1194 0 discriminator 3
	movq	%rax, -216(%rbp)	# iftmp.121, otheroptab
	.loc 1 1195 0 is_stmt 1 discriminator 3
	movl	-740(%rbp), %eax	# mode, mode.122
	cltq
	movzwl	mode_bitsize(%rax,%rax), %eax	# mode_bitsize, D.18062
	movzwl	%ax, %eax	# D.18062, D.18063
	movl	target_flags(%rip), %edx	# target_flags, target_flags.124
	andl	$33554432, %edx	#, D.18063
	testl	%edx, %edx	# D.18063
	je	.L255	#,
	.loc 1 1195 0 is_stmt 0 discriminator 1
	movl	$64, %ebx	#, iftmp.123
	jmp	.L256	#
.L255:
	.loc 1 1195 0 discriminator 2
	movl	$32, %ebx	#, iftmp.123
.L256:
	.loc 1 1195 0 discriminator 3
	cltd
	idivl	%ebx	# iftmp.123
	movl	%eax, -648(%rbp)	# D.18063, nwords
	.loc 1 1196 0 is_stmt 1 discriminator 3
	movq	$0, -544(%rbp)	#, carry_in
	movq	$0, -536(%rbp)	#, carry_out
	.loc 1 1203 0 discriminator 3
	movl	$1, -644(%rbp)	#, normalizep
	.loc 1 1209 0 discriminator 3
	movq	-760(%rbp), %rdx	# op0, tmp1017
	movl	-740(%rbp), %eax	# mode, tmp1018
	movq	%rdx, %rsi	# tmp1017,
	movl	%eax, %edi	# tmp1018,
	call	force_reg	#
	movq	%rax, -208(%rbp)	# tmp1019, xop0
	.loc 1 1210 0 discriminator 3
	movq	-768(%rbp), %rdx	# op1, tmp1020
	movl	-740(%rbp), %eax	# mode, tmp1021
	movq	%rdx, %rsi	# tmp1020,
	movl	%eax, %edi	# tmp1021,
	call	force_reg	#
	movq	%rax, -200(%rbp)	# tmp1022, xop1
	.loc 1 1212 0 discriminator 3
	cmpq	$0, -776(%rbp)	#, target
	je	.L257	#,
	.loc 1 1212 0 is_stmt 0 discriminator 1
	movq	-776(%rbp), %rax	# target, tmp1023
	movzwl	(%rax), %eax	# target_21->code, D.18062
	cmpw	$61, %ax	#, D.18062
	jne	.L257	#,
	.loc 1 1213 0 is_stmt 1
	movq	-776(%rbp), %rax	# target, tmp1024
	cmpq	-208(%rbp), %rax	# xop0, tmp1024
	je	.L257	#,
	.loc 1 1213 0 is_stmt 0 discriminator 1
	movq	-776(%rbp), %rax	# target, tmp1025
	cmpq	-200(%rbp), %rax	# xop1, tmp1025
	jne	.L258	#,
.L257:
	.loc 1 1214 0 is_stmt 1
	movl	-740(%rbp), %eax	# mode, tmp1026
	movl	%eax, %edi	# tmp1026,
	call	gen_reg_rtx	#
	movq	%rax, -776(%rbp)	# tmp1027, target
.L258:
	.loc 1 1217 0
	movq	-776(%rbp), %rax	# target, tmp1028
	movzwl	(%rax), %eax	# target_22->code, D.18062
	cmpw	$61, %ax	#, D.18062
	jne	.L259	#,
	.loc 1 1218 0
	movq	-776(%rbp), %rax	# target, tmp1029
	movq	%rax, %rdx	# tmp1029,
	movl	$0, %esi	#,
	movl	$49, %edi	#,
	call	gen_rtx_fmt_e	#
	movq	%rax, %rdi	# D.18074,
	call	emit_insn	#
.L259:
	.loc 1 1221 0
	movl	$0, -712(%rbp)	#, i
	jmp	.L260	#
.L272:
.LBB12:
	.loc 1 1223 0
	movl	-712(%rbp), %eax	# i, tmp1030
	movl	%eax, -640(%rbp)	# tmp1030, index
	.loc 1 1224 0
	movl	-640(%rbp), %esi	# index, index.125
	movl	-740(%rbp), %edx	# mode, tmp1031
	movq	-776(%rbp), %rax	# target, tmp1032
	movl	%edx, %ecx	# tmp1031,
	movl	$1, %edx	#,
	movq	%rax, %rdi	# tmp1032,
	call	operand_subword	#
	movq	%rax, -192(%rbp)	# tmp1033, target_piece
	.loc 1 1225 0
	movl	-640(%rbp), %ecx	# index, index.126
	movl	-740(%rbp), %edx	# mode, tmp1034
	movq	-208(%rbp), %rax	# xop0, tmp1035
	movl	%ecx, %esi	# index.126,
	movq	%rax, %rdi	# tmp1035,
	call	operand_subword_force	#
	movq	%rax, -184(%rbp)	# tmp1036, op0_piece
	.loc 1 1226 0
	movl	-640(%rbp), %ecx	# index, index.127
	movl	-740(%rbp), %edx	# mode, tmp1037
	movq	-200(%rbp), %rax	# xop1, tmp1038
	movl	%ecx, %esi	# index.127,
	movq	%rax, %rdi	# tmp1038,
	call	operand_subword_force	#
	movq	%rax, -176(%rbp)	# tmp1039, op1_piece
	.loc 1 1230 0
	movl	word_mode(%rip), %eax	# word_mode, word_mode.128
	movl	-744(%rbp), %r9d	# unsignedp, tmp1040
	movq	-192(%rbp), %r8	# target_piece, tmp1041
	movq	-176(%rbp), %rcx	# op1_piece, tmp1042
	movq	-184(%rbp), %rdx	# op0_piece, tmp1043
	movq	-752(%rbp), %rsi	# binoptab, tmp1044
	movl	-696(%rbp), %edi	# next_methods, tmp1045
	movl	%edi, (%rsp)	# tmp1045,
	movl	%eax, %edi	# word_mode.128,
	call	expand_binop	#
	movq	%rax, -168(%rbp)	# tmp1046, x
	.loc 1 1233 0
	cmpq	$0, -168(%rbp)	#, x
	jne	.L261	#,
	.loc 1 1234 0
	jmp	.L262	#
.L261:
	.loc 1 1236 0
	movl	-712(%rbp), %eax	# i, tmp1047
	addl	$1, %eax	#, D.18063
	cmpl	-648(%rbp), %eax	# nwords, D.18069
	jae	.L263	#,
	.loc 1 1239 0
	movl	word_mode(%rip), %eax	# word_mode, word_mode.129
	movl	%eax, %edi	# word_mode.129,
	call	gen_reg_rtx	#
	movq	%rax, -536(%rbp)	# tmp1048, carry_out
	.loc 1 1240 0
	movl	word_mode(%rip), %r8d	# word_mode, word_mode.130
	.loc 1 1241 0
	movq	optab_table(%rip), %rax	# optab_table, D.18061
	.loc 1 1240 0
	cmpq	-752(%rbp), %rax	# binoptab, D.18061
	jne	.L264	#,
	.loc 1 1240 0 is_stmt 0 discriminator 1
	movl	$107, %eax	#, iftmp.131
	jmp	.L265	#
.L264:
	.loc 1 1240 0 discriminator 2
	movl	$105, %eax	#, iftmp.131
.L265:
	.loc 1 1240 0 discriminator 3
	movq	-184(%rbp), %rcx	# op0_piece, tmp1049
	movq	-168(%rbp), %rdx	# x, tmp1050
	movq	-536(%rbp), %rdi	# carry_out, tmp1051
	movl	-644(%rbp), %esi	# normalizep, tmp1052
	movl	%esi, (%rsp)	# tmp1052,
	movl	$1, %r9d	#,
	movl	%eax, %esi	# iftmp.131,
	call	emit_store_flag_force	#
	movq	%rax, -536(%rbp)	# tmp1053, carry_out
.L263:
	.loc 1 1247 0 is_stmt 1
	cmpl	$0, -712(%rbp)	#, i
	jle	.L266	#,
.LBB13:
	.loc 1 1252 0
	cmpl	$1, -644(%rbp)	#, normalizep
	jne	.L267	#,
	.loc 1 1252 0 is_stmt 0 discriminator 1
	movq	-752(%rbp), %rax	# binoptab, iftmp.132
	jmp	.L268	#
.L267:
	.loc 1 1252 0 discriminator 2
	movq	-216(%rbp), %rax	# otheroptab, iftmp.132
.L268:
	.loc 1 1252 0 discriminator 3
	movl	word_mode(%rip), %edi	# word_mode, word_mode.133
	movq	-544(%rbp), %rcx	# carry_in, tmp1054
	movq	-168(%rbp), %rdx	# x, tmp1055
	movl	-696(%rbp), %esi	# next_methods, tmp1056
	movl	%esi, (%rsp)	# tmp1056,
	movl	$1, %r9d	#,
	movl	$0, %r8d	#,
	movq	%rax, %rsi	# iftmp.132,
	call	expand_binop	#
	movq	%rax, -160(%rbp)	# tmp1057, newx
	.loc 1 1257 0 is_stmt 1 discriminator 3
	movl	-712(%rbp), %eax	# i, tmp1058
	addl	$1, %eax	#, D.18063
	cmpl	-648(%rbp), %eax	# nwords, D.18069
	jae	.L269	#,
.LBB14:
	.loc 1 1260 0
	movl	word_mode(%rip), %eax	# word_mode, word_mode.134
	movl	%eax, %edi	# word_mode.134,
	call	gen_reg_rtx	#
	movq	%rax, -152(%rbp)	# tmp1059, carry_tmp
	.loc 1 1261 0
	movl	word_mode(%rip), %r8d	# word_mode, word_mode.135
	.loc 1 1262 0
	movq	optab_table(%rip), %rax	# optab_table, D.18061
	.loc 1 1261 0
	cmpq	-752(%rbp), %rax	# binoptab, D.18061
	jne	.L270	#,
	.loc 1 1261 0 is_stmt 0 discriminator 1
	movl	$107, %eax	#, iftmp.136
	jmp	.L271	#
.L270:
	.loc 1 1261 0 discriminator 2
	movl	$105, %eax	#, iftmp.136
.L271:
	.loc 1 1261 0 discriminator 3
	movq	-168(%rbp), %rcx	# x, tmp1060
	movq	-160(%rbp), %rdx	# newx, tmp1061
	movq	-152(%rbp), %rdi	# carry_tmp, tmp1062
	movl	-644(%rbp), %esi	# normalizep, tmp1063
	movl	%esi, (%rsp)	# tmp1063,
	movl	$1, %r9d	#,
	movl	%eax, %esi	# iftmp.136,
	call	emit_store_flag_force	#
	movq	%rax, -152(%rbp)	# tmp1064, carry_tmp
	.loc 1 1268 0 is_stmt 1 discriminator 3
	movq	optab_table+152(%rip), %rsi	# optab_table, D.18061
	movl	word_mode(%rip), %eax	# word_mode, word_mode.137
	movq	-536(%rbp), %r8	# carry_out, tmp1065
	movq	-152(%rbp), %rcx	# carry_tmp, tmp1066
	movq	-536(%rbp), %rdx	# carry_out, tmp1067
	movl	-696(%rbp), %edi	# next_methods, tmp1068
	movl	%edi, (%rsp)	# tmp1068,
	movl	$0, %r9d	#,
	movl	%eax, %edi	# word_mode.137,
	call	expand_binop	#
	movq	%rax, -536(%rbp)	# tmp1069, carry_out
	.loc 1 1271 0 discriminator 3
	cmpq	$0, -536(%rbp)	#, carry_out
	jne	.L269	#,
	.loc 1 1272 0
	jmp	.L262	#
.L269:
.LBE14:
	.loc 1 1274 0
	movq	-160(%rbp), %rdx	# newx, tmp1070
	movq	-192(%rbp), %rax	# target_piece, tmp1071
	movq	%rdx, %rsi	# tmp1070,
	movq	%rax, %rdi	# tmp1071,
	call	emit_move_insn	#
.L266:
.LBE13:
	.loc 1 1277 0
	movq	-536(%rbp), %rax	# carry_out, tmp1072
	movq	%rax, -544(%rbp)	# tmp1072, carry_in
.LBE12:
	.loc 1 1221 0
	addl	$1, -712(%rbp)	#, i
.L260:
	.loc 1 1221 0 is_stmt 0 discriminator 1
	movl	-712(%rbp), %eax	# i, i.138
	cmpl	-648(%rbp), %eax	# nwords, i.138
	jb	.L272	#,
.L262:
	.loc 1 1280 0 is_stmt 1
	movl	-740(%rbp), %eax	# mode, mode.139
	cltq
	movzwl	mode_bitsize(%rax,%rax), %eax	# mode_bitsize, D.18062
	movzwl	%ax, %eax	# D.18062, D.18063
	movl	target_flags(%rip), %edx	# target_flags, target_flags.141
	andl	$33554432, %edx	#, D.18063
	testl	%edx, %edx	# D.18063
	je	.L273	#,
	.loc 1 1280 0 is_stmt 0 discriminator 1
	movl	$64, %ebx	#, iftmp.140
	jmp	.L274	#
.L273:
	.loc 1 1280 0 discriminator 2
	movl	$32, %ebx	#, iftmp.140
.L274:
	.loc 1 1280 0 discriminator 3
	cltd
	idivl	%ebx	# iftmp.140
	cmpl	-712(%rbp), %eax	# i, D.18063
	jne	.L275	#,
	.loc 1 1282 0 is_stmt 1
	movq	optab_table+240(%rip), %rax	# optab_table, D.18061
	movl	-740(%rbp), %edx	# mode, mode.142
	movslq	%edx, %rdx	# mode.142, tmp1076
	salq	$4, %rdx	#, tmp1077
	addq	%rdx, %rax	# tmp1077, tmp1078
	movl	8(%rax), %eax	# _673->handlers[mode.142_674].insn_code, D.18066
	cmpl	$1317, %eax	#, D.18066
	je	.L276	#,
.LBB15:
	.loc 1 1284 0
	movq	-776(%rbp), %rdx	# target, tmp1079
	movq	-776(%rbp), %rax	# target, tmp1080
	movq	%rdx, %rsi	# tmp1079,
	movq	%rax, %rdi	# tmp1080,
	call	emit_move_insn	#
	movq	%rax, -144(%rbp)	# tmp1081, temp
	.loc 1 1286 0
	movq	-200(%rbp), %rax	# xop1, tmp1082
	movq	%rax, %rdi	# tmp1082,
	call	copy_rtx	#
	movq	%rax, %rbx	#, D.18074
	movq	-208(%rbp), %rax	# xop0, tmp1083
	movq	%rax, %rdi	# tmp1083,
	call	copy_rtx	#
	movq	%rax, %rdx	#, D.18074
	movq	-752(%rbp), %rax	# binoptab, tmp1084
	movl	(%rax), %eax	# binoptab_1->code, D.18060
	movl	-740(%rbp), %esi	# mode, tmp1085
	movq	%rbx, %rcx	# D.18074,
	movl	%eax, %edi	# D.18060,
	call	gen_rtx_fmt_ee	#
	movq	%rax, %rdx	#, D.18074
	movq	-144(%rbp), %rax	# temp, tmp1086
	movl	$4, %esi	#,
	movq	%rax, %rdi	# tmp1086,
	call	set_unique_reg_note	#
.L276:
.LBE15:
	.loc 1 1293 0
	movq	-776(%rbp), %rax	# target, D.18059
	jmp	.L141	#
.L275:
	.loc 1 1297 0
	movq	-432(%rbp), %rax	# last, tmp1087
	movq	%rax, %rdi	# tmp1087,
	call	delete_insns_since	#
.L250:
.LBE11:
	.loc 1 1350 0
	movq	optab_table+32(%rip), %rax	# optab_table, D.18061
	cmpq	-752(%rbp), %rax	# binoptab, D.18061
	jne	.L277	#,
	.loc 1 1351 0
	cmpl	$1, -688(%rbp)	#, class
	jne	.L277	#,
	.loc 1 1352 0
	movl	-740(%rbp), %eax	# mode, mode.143
	cltq
	movzbl	mode_size(%rax), %eax	# mode_size, D.18068
	movzbl	%al, %edx	# D.18068, D.18063
	movl	target_flags(%rip), %eax	# target_flags, target_flags.145
	andl	$33554432, %eax	#, D.18063
	testl	%eax, %eax	# D.18063
	je	.L278	#,
	.loc 1 1352 0 is_stmt 0 discriminator 1
	movl	$16, %eax	#, iftmp.144
	jmp	.L279	#
.L278:
	.loc 1 1352 0 discriminator 2
	movl	$8, %eax	#, iftmp.144
.L279:
	.loc 1 1352 0 discriminator 3
	cmpl	%eax, %edx	# iftmp.144, D.18063
	jne	.L277	#,
	.loc 1 1353 0 is_stmt 1
	movq	optab_table+32(%rip), %rax	# optab_table, D.18061
	movl	word_mode(%rip), %edx	# word_mode, word_mode.146
	movslq	%edx, %rdx	# word_mode.147, tmp1089
	salq	$4, %rdx	#, tmp1090
	addq	%rdx, %rax	# tmp1090, tmp1091
	movl	8(%rax), %eax	# _690->handlers[word_mode.147_692].insn_code, D.18066
	cmpl	$1317, %eax	#, D.18066
	je	.L277	#,
	.loc 1 1354 0
	movq	optab_table(%rip), %rax	# optab_table, D.18061
	movl	word_mode(%rip), %edx	# word_mode, word_mode.148
	movslq	%edx, %rdx	# word_mode.149, tmp1092
	salq	$4, %rdx	#, tmp1093
	addq	%rdx, %rax	# tmp1093, tmp1094
	movl	8(%rax), %eax	# _694->handlers[word_mode.149_696].insn_code, D.18066
	cmpl	$1317, %eax	#, D.18066
	je	.L277	#,
	.loc 1 1355 0
	movq	optab_table+72(%rip), %rax	# optab_table, D.18061
	movl	-740(%rbp), %edx	# mode, mode.150
	movslq	%edx, %rdx	# mode.150, tmp1095
	salq	$4, %rdx	#, tmp1096
	addq	%rdx, %rax	# tmp1096, tmp1097
	movl	8(%rax), %eax	# _698->handlers[mode.150_699].insn_code, D.18066
	cmpl	$1317, %eax	#, D.18066
	jne	.L280	#,
	.loc 1 1357 0
	movq	optab_table+64(%rip), %rax	# optab_table, D.18061
	movl	-740(%rbp), %edx	# mode, mode.151
	movslq	%edx, %rdx	# mode.151, tmp1098
	salq	$4, %rdx	#, tmp1099
	addq	%rdx, %rax	# tmp1099, tmp1100
	movl	8(%rax), %eax	# _701->handlers[mode.151_702].insn_code, D.18066
	cmpl	$1317, %eax	#, D.18066
	je	.L277	#,
.L280:
.LBB16:
	.loc 1 1360 0
	movl	$0, -636(%rbp)	#, low
	.loc 1 1361 0
	movl	$1, -632(%rbp)	#, high
	.loc 1 1362 0
	movl	-632(%rbp), %ecx	# high, high.152
	movl	-740(%rbp), %edx	# mode, tmp1101
	movq	-760(%rbp), %rax	# op0, tmp1102
	movl	%ecx, %esi	# high.152,
	movq	%rax, %rdi	# tmp1102,
	call	operand_subword_force	#
	movq	%rax, -136(%rbp)	# tmp1103, op0_high
	.loc 1 1363 0
	movl	-636(%rbp), %ecx	# low, low.153
	movl	-740(%rbp), %edx	# mode, tmp1104
	movq	-760(%rbp), %rax	# op0, tmp1105
	movl	%ecx, %esi	# low.153,
	movq	%rax, %rdi	# tmp1105,
	call	operand_subword_force	#
	movq	%rax, -128(%rbp)	# tmp1106, op0_low
	.loc 1 1364 0
	movl	-632(%rbp), %ecx	# high, high.154
	movl	-740(%rbp), %edx	# mode, tmp1107
	movq	-768(%rbp), %rax	# op1, tmp1108
	movl	%ecx, %esi	# high.154,
	movq	%rax, %rdi	# tmp1108,
	call	operand_subword_force	#
	movq	%rax, -120(%rbp)	# tmp1109, op1_high
	.loc 1 1365 0
	movl	-636(%rbp), %ecx	# low, low.155
	movl	-740(%rbp), %edx	# mode, tmp1110
	movq	-768(%rbp), %rax	# op1, tmp1111
	movl	%ecx, %esi	# low.155,
	movq	%rax, %rdi	# tmp1111,
	call	operand_subword_force	#
	movq	%rax, -112(%rbp)	# tmp1112, op1_low
	.loc 1 1366 0
	movq	$0, -528(%rbp)	#, product
	.loc 1 1367 0
	movq	$0, -520(%rbp)	#, op0_xhigh
	.loc 1 1368 0
	movq	$0, -512(%rbp)	#, op1_xhigh
	.loc 1 1372 0
	movq	-776(%rbp), %rax	# target, tmp1113
	cmpq	-760(%rbp), %rax	# op0, tmp1113
	je	.L281	#,
	.loc 1 1372 0 is_stmt 0 discriminator 1
	movq	-776(%rbp), %rax	# target, tmp1114
	cmpq	-768(%rbp), %rax	# op1, tmp1114
	je	.L281	#,
	.loc 1 1373 0 is_stmt 1
	cmpq	$0, -776(%rbp)	#, target
	je	.L282	#,
	.loc 1 1373 0 is_stmt 0 discriminator 1
	movq	-776(%rbp), %rax	# target, tmp1115
	movzwl	(%rax), %eax	# target_23->code, D.18062
	cmpw	$61, %ax	#, D.18062
	je	.L282	#,
.L281:
	.loc 1 1374 0 is_stmt 1
	movq	$0, -776(%rbp)	#, target
.L282:
	.loc 1 1380 0
	movq	optab_table+72(%rip), %rax	# optab_table, D.18061
	movl	-740(%rbp), %edx	# mode, mode.156
	movslq	%edx, %rdx	# mode.156, tmp1116
	salq	$4, %rdx	#, tmp1117
	addq	%rdx, %rax	# tmp1117, tmp1118
	movl	8(%rax), %eax	# _719->handlers[mode.156_720].insn_code, D.18066
	cmpl	$1317, %eax	#, D.18066
	je	.L283	#,
	.loc 1 1382 0
	movq	optab_table+72(%rip), %rsi	# optab_table, D.18061
	movq	-776(%rbp), %rdi	# target, tmp1119
	movq	-112(%rbp), %rcx	# op1_low, tmp1120
	movq	-128(%rbp), %rdx	# op0_low, tmp1121
	movl	-740(%rbp), %eax	# mode, tmp1122
	movl	$0, (%rsp)	#,
	movl	$1, %r9d	#,
	movq	%rdi, %r8	# tmp1119,
	movl	%eax, %edi	# tmp1122,
	call	expand_binop	#
	movq	%rax, -528(%rbp)	# tmp1123, product
	.loc 1 1386 0
	cmpq	$0, -528(%rbp)	#, product
	jne	.L284	#,
	.loc 1 1387 0
	movq	-432(%rbp), %rax	# last, tmp1124
	movq	%rax, %rdi	# tmp1124,
	call	delete_insns_since	#
	jmp	.L283	#
.L284:
	.loc 1 1389 0
	movq	-136(%rbp), %rax	# op0_high, tmp1125
	movq	%rax, -520(%rbp)	# tmp1125, op0_xhigh
	movq	-120(%rbp), %rax	# op1_high, tmp1126
	movq	%rax, -512(%rbp)	# tmp1126, op1_xhigh
.L283:
	.loc 1 1392 0
	cmpq	$0, -528(%rbp)	#, product
	jne	.L285	#,
	.loc 1 1393 0
	movq	optab_table+64(%rip), %rax	# optab_table, D.18061
	movl	-740(%rbp), %edx	# mode, mode.157
	movslq	%edx, %rdx	# mode.157, tmp1127
	salq	$4, %rdx	#, tmp1128
	addq	%rdx, %rax	# tmp1128, tmp1129
	movl	8(%rax), %eax	# _726->handlers[mode.157_727].insn_code, D.18066
	cmpl	$1317, %eax	#, D.18066
	je	.L285	#,
.LBB17:
	.loc 1 1396 0
	movl	target_flags(%rip), %eax	# target_flags, target_flags.159
	andl	$33554432, %eax	#, D.18063
	testl	%eax, %eax	# D.18063
	je	.L286	#,
	.loc 1 1396 0 is_stmt 0 discriminator 1
	movl	$63, %eax	#, iftmp.158
	jmp	.L287	#
.L286:
	.loc 1 1396 0 discriminator 2
	movl	$31, %eax	#, iftmp.158
.L287:
	.loc 1 1396 0 discriminator 3
	movq	%rax, %rsi	# iftmp.158,
	movl	$0, %edi	#,
	call	gen_rtx_CONST_INT	#
	movq	%rax, -104(%rbp)	# tmp1130, wordm1
	.loc 1 1397 0 is_stmt 1 discriminator 3
	movq	optab_table+64(%rip), %rsi	# optab_table, D.18061
	movq	-776(%rbp), %rdi	# target, tmp1131
	movq	-112(%rbp), %rcx	# op1_low, tmp1132
	movq	-128(%rbp), %rdx	# op0_low, tmp1133
	movl	-740(%rbp), %eax	# mode, tmp1134
	movl	$0, (%rsp)	#,
	movl	$1, %r9d	#,
	movq	%rdi, %r8	# tmp1131,
	movl	%eax, %edi	# tmp1134,
	call	expand_binop	#
	movq	%rax, -528(%rbp)	# tmp1135, product
	.loc 1 1399 0 discriminator 3
	movq	optab_table+176(%rip), %rsi	# optab_table, D.18061
	movl	word_mode(%rip), %eax	# word_mode, word_mode.160
	movq	-104(%rbp), %rcx	# wordm1, tmp1136
	movq	-128(%rbp), %rdx	# op0_low, tmp1137
	movl	-696(%rbp), %edi	# next_methods, tmp1138
	movl	%edi, (%rsp)	# tmp1138,
	movl	$1, %r9d	#,
	movl	$0, %r8d	#,
	movl	%eax, %edi	# word_mode.160,
	call	expand_binop	#
	movq	%rax, -520(%rbp)	# tmp1139, op0_xhigh
	.loc 1 1401 0 discriminator 3
	cmpq	$0, -520(%rbp)	#, op0_xhigh
	je	.L288	#,
	.loc 1 1402 0
	movq	optab_table(%rip), %rsi	# optab_table, D.18061
	movl	word_mode(%rip), %eax	# word_mode, word_mode.161
	movq	-520(%rbp), %r8	# op0_xhigh, tmp1140
	movq	-520(%rbp), %rcx	# op0_xhigh, tmp1141
	movq	-136(%rbp), %rdx	# op0_high, tmp1142
	movl	-696(%rbp), %edi	# next_methods, tmp1143
	movl	%edi, (%rsp)	# tmp1143,
	movl	$0, %r9d	#,
	movl	%eax, %edi	# word_mode.161,
	call	expand_binop	#
	movq	%rax, -520(%rbp)	# tmp1144, op0_xhigh
	jmp	.L289	#
.L288:
	.loc 1 1406 0
	movq	optab_table+184(%rip), %rsi	# optab_table, D.18061
	movl	word_mode(%rip), %eax	# word_mode, word_mode.162
	movq	-104(%rbp), %rcx	# wordm1, tmp1145
	movq	-128(%rbp), %rdx	# op0_low, tmp1146
	movl	-696(%rbp), %edi	# next_methods, tmp1147
	movl	%edi, (%rsp)	# tmp1147,
	movl	$0, %r9d	#,
	movl	$0, %r8d	#,
	movl	%eax, %edi	# word_mode.162,
	call	expand_binop	#
	movq	%rax, -520(%rbp)	# tmp1148, op0_xhigh
	.loc 1 1408 0
	cmpq	$0, -520(%rbp)	#, op0_xhigh
	je	.L289	#,
	.loc 1 1409 0
	movq	optab_table+16(%rip), %rsi	# optab_table, D.18061
	movl	word_mode(%rip), %eax	# word_mode, word_mode.163
	movq	-520(%rbp), %r8	# op0_xhigh, tmp1149
	movq	-520(%rbp), %rcx	# op0_xhigh, tmp1150
	movq	-136(%rbp), %rdx	# op0_high, tmp1151
	movl	-696(%rbp), %edi	# next_methods, tmp1152
	movl	%edi, (%rsp)	# tmp1152,
	movl	$0, %r9d	#,
	movl	%eax, %edi	# word_mode.163,
	call	expand_binop	#
	movq	%rax, -520(%rbp)	# tmp1153, op0_xhigh
.L289:
	.loc 1 1414 0
	movq	optab_table+176(%rip), %rsi	# optab_table, D.18061
	movl	word_mode(%rip), %eax	# word_mode, word_mode.164
	movq	-104(%rbp), %rcx	# wordm1, tmp1154
	movq	-112(%rbp), %rdx	# op1_low, tmp1155
	movl	-696(%rbp), %edi	# next_methods, tmp1156
	movl	%edi, (%rsp)	# tmp1156,
	movl	$1, %r9d	#,
	movl	$0, %r8d	#,
	movl	%eax, %edi	# word_mode.164,
	call	expand_binop	#
	movq	%rax, -512(%rbp)	# tmp1157, op1_xhigh
	.loc 1 1416 0
	cmpq	$0, -512(%rbp)	#, op1_xhigh
	je	.L290	#,
	.loc 1 1417 0
	movq	optab_table(%rip), %rsi	# optab_table, D.18061
	movl	word_mode(%rip), %eax	# word_mode, word_mode.165
	movq	-512(%rbp), %r8	# op1_xhigh, tmp1158
	movq	-512(%rbp), %rcx	# op1_xhigh, tmp1159
	movq	-120(%rbp), %rdx	# op1_high, tmp1160
	movl	-696(%rbp), %edi	# next_methods, tmp1161
	movl	%edi, (%rsp)	# tmp1161,
	movl	$0, %r9d	#,
	movl	%eax, %edi	# word_mode.165,
	call	expand_binop	#
	movq	%rax, -512(%rbp)	# tmp1162, op1_xhigh
	jmp	.L285	#
.L290:
	.loc 1 1421 0
	movq	optab_table+184(%rip), %rsi	# optab_table, D.18061
	movl	word_mode(%rip), %eax	# word_mode, word_mode.166
	movq	-104(%rbp), %rcx	# wordm1, tmp1163
	movq	-112(%rbp), %rdx	# op1_low, tmp1164
	movl	-696(%rbp), %edi	# next_methods, tmp1165
	movl	%edi, (%rsp)	# tmp1165,
	movl	$0, %r9d	#,
	movl	$0, %r8d	#,
	movl	%eax, %edi	# word_mode.166,
	call	expand_binop	#
	movq	%rax, -512(%rbp)	# tmp1166, op1_xhigh
	.loc 1 1423 0
	cmpq	$0, -512(%rbp)	#, op1_xhigh
	je	.L285	#,
	.loc 1 1424 0
	movq	optab_table+16(%rip), %rsi	# optab_table, D.18061
	movl	word_mode(%rip), %eax	# word_mode, word_mode.167
	movq	-512(%rbp), %r8	# op1_xhigh, tmp1167
	movq	-512(%rbp), %rcx	# op1_xhigh, tmp1168
	movq	-120(%rbp), %rdx	# op1_high, tmp1169
	movl	-696(%rbp), %edi	# next_methods, tmp1170
	movl	%edi, (%rsp)	# tmp1170,
	movl	$0, %r9d	#,
	movl	%eax, %edi	# word_mode.167,
	call	expand_binop	#
	movq	%rax, -512(%rbp)	# tmp1171, op1_xhigh
.L285:
.LBE17:
	.loc 1 1440 0
	cmpq	$0, -528(%rbp)	#, product
	je	.L291	#,
	.loc 1 1440 0 is_stmt 0 discriminator 1
	cmpq	$0, -520(%rbp)	#, op0_xhigh
	je	.L291	#,
	cmpq	$0, -512(%rbp)	#, op1_xhigh
	je	.L291	#,
.LBB18:
	.loc 1 1442 0 is_stmt 1
	movl	-632(%rbp), %esi	# high, high.168
	movl	-740(%rbp), %edx	# mode, tmp1172
	movq	-528(%rbp), %rax	# product, tmp1173
	movl	%edx, %ecx	# tmp1172,
	movl	$1, %edx	#,
	movq	%rax, %rdi	# tmp1173,
	call	operand_subword	#
	movq	%rax, -96(%rbp)	# tmp1174, product_high
	.loc 1 1443 0
	movl	word_mode(%rip), %eax	# word_mode, word_mode.169
	movq	-512(%rbp), %rcx	# op1_xhigh, tmp1175
	movq	-128(%rbp), %rdx	# op0_low, tmp1176
	movq	-752(%rbp), %rsi	# binoptab, tmp1177
	movl	$0, (%rsp)	#,
	movl	$0, %r9d	#,
	movl	$0, %r8d	#,
	movl	%eax, %edi	# word_mode.169,
	call	expand_binop	#
	movq	%rax, -504(%rbp)	# tmp1178, temp
	.loc 1 1446 0
	cmpq	$0, -504(%rbp)	#, temp
	je	.L292	#,
	.loc 1 1447 0
	movq	optab_table(%rip), %rsi	# optab_table, D.18061
	movl	word_mode(%rip), %eax	# word_mode, word_mode.170
	movq	-96(%rbp), %r8	# product_high, tmp1179
	movq	-96(%rbp), %rcx	# product_high, tmp1180
	movq	-504(%rbp), %rdx	# temp, tmp1181
	movl	-696(%rbp), %edi	# next_methods, tmp1182
	movl	%edi, (%rsp)	# tmp1182,
	movl	$0, %r9d	#,
	movl	%eax, %edi	# word_mode.170,
	call	expand_binop	#
	movq	%rax, -504(%rbp)	# tmp1183, temp
.L292:
	.loc 1 1450 0
	cmpq	$0, -504(%rbp)	#, temp
	je	.L293	#,
	.loc 1 1450 0 is_stmt 0 discriminator 1
	movq	-504(%rbp), %rax	# temp, tmp1184
	cmpq	-96(%rbp), %rax	# product_high, tmp1184
	je	.L293	#,
	.loc 1 1451 0 is_stmt 1
	movq	-504(%rbp), %rdx	# temp, tmp1185
	movq	-96(%rbp), %rax	# product_high, tmp1186
	movq	%rdx, %rsi	# tmp1185,
	movq	%rax, %rdi	# tmp1186,
	call	emit_move_insn	#
.L293:
	.loc 1 1453 0
	cmpq	$0, -504(%rbp)	#, temp
	je	.L294	#,
	.loc 1 1454 0
	movl	word_mode(%rip), %eax	# word_mode, word_mode.171
	movq	-520(%rbp), %rcx	# op0_xhigh, tmp1187
	movq	-112(%rbp), %rdx	# op1_low, tmp1188
	movq	-752(%rbp), %rsi	# binoptab, tmp1189
	movl	$0, (%rsp)	#,
	movl	$0, %r9d	#,
	movl	$0, %r8d	#,
	movl	%eax, %edi	# word_mode.171,
	call	expand_binop	#
	movq	%rax, -504(%rbp)	# tmp1190, temp
.L294:
	.loc 1 1457 0
	cmpq	$0, -504(%rbp)	#, temp
	je	.L295	#,
	.loc 1 1458 0
	movq	optab_table(%rip), %rsi	# optab_table, D.18061
	movl	word_mode(%rip), %eax	# word_mode, word_mode.172
	movq	-96(%rbp), %r8	# product_high, tmp1191
	movq	-96(%rbp), %rcx	# product_high, tmp1192
	movq	-504(%rbp), %rdx	# temp, tmp1193
	movl	-696(%rbp), %edi	# next_methods, tmp1194
	movl	%edi, (%rsp)	# tmp1194,
	movl	$0, %r9d	#,
	movl	%eax, %edi	# word_mode.172,
	call	expand_binop	#
	movq	%rax, -504(%rbp)	# tmp1195, temp
.L295:
	.loc 1 1462 0
	cmpq	$0, -504(%rbp)	#, temp
	je	.L296	#,
	.loc 1 1462 0 is_stmt 0 discriminator 1
	movq	-504(%rbp), %rax	# temp, tmp1196
	cmpq	-96(%rbp), %rax	# product_high, tmp1196
	je	.L296	#,
	.loc 1 1463 0 is_stmt 1
	movq	-504(%rbp), %rdx	# temp, tmp1197
	movq	-96(%rbp), %rax	# product_high, tmp1198
	movq	%rdx, %rsi	# tmp1197,
	movq	%rax, %rdi	# tmp1198,
	call	emit_move_insn	#
.L296:
	.loc 1 1465 0
	cmpq	$0, -504(%rbp)	#, temp
	je	.L291	#,
	.loc 1 1467 0
	movq	optab_table+240(%rip), %rax	# optab_table, D.18061
	movl	-740(%rbp), %edx	# mode, mode.173
	movslq	%edx, %rdx	# mode.173, tmp1199
	salq	$4, %rdx	#, tmp1200
	addq	%rdx, %rax	# tmp1200, tmp1201
	movl	8(%rax), %eax	# _772->handlers[mode.173_773].insn_code, D.18066
	cmpl	$1317, %eax	#, D.18066
	je	.L297	#,
	.loc 1 1469 0
	movq	-528(%rbp), %rdx	# product, tmp1202
	movq	-528(%rbp), %rax	# product, tmp1203
	movq	%rdx, %rsi	# tmp1202,
	movq	%rax, %rdi	# tmp1203,
	call	emit_move_insn	#
	movq	%rax, -504(%rbp)	# tmp1204, temp
	.loc 1 1470 0
	movq	-768(%rbp), %rax	# op1, tmp1205
	movq	%rax, %rdi	# tmp1205,
	call	copy_rtx	#
	movq	%rax, %rbx	#, D.18074
	movq	-760(%rbp), %rax	# op0, tmp1206
	movq	%rax, %rdi	# tmp1206,
	call	copy_rtx	#
	movq	%rax, %rdx	#, D.18074
	movl	-740(%rbp), %eax	# mode, tmp1207
	movq	%rbx, %rcx	# D.18074,
	movl	%eax, %esi	# tmp1207,
	movl	$78, %edi	#,
	call	gen_rtx_fmt_ee	#
	movq	%rax, %rdx	#, D.18074
	movq	-504(%rbp), %rax	# temp, tmp1208
	movl	$4, %esi	#,
	movq	%rax, %rdi	# tmp1208,
	call	set_unique_reg_note	#
.L297:
	.loc 1 1477 0
	movq	-528(%rbp), %rax	# product, D.18059
	jmp	.L141	#
.L291:
.LBE18:
	.loc 1 1485 0
	movq	-432(%rbp), %rax	# last, tmp1209
	movq	%rax, %rdi	# tmp1209,
	call	delete_insns_since	#
.L277:
.LBE16:
	.loc 1 1496 0
	cmpl	$6, -688(%rbp)	#, class
	je	.L298	#,
	.loc 1 1496 0 is_stmt 0 discriminator 1
	cmpl	$5, -688(%rbp)	#, class
	jne	.L299	#,
.L298:
.LBB19:
	.loc 1 1498 0 is_stmt 1
	movq	$0, -496(%rbp)	#, real0
	movq	$0, -488(%rbp)	#, imag0
	.loc 1 1499 0
	movq	$0, -480(%rbp)	#, real1
	movq	$0, -472(%rbp)	#, imag1
	.loc 1 1503 0
	movl	$0, -708(%rbp)	#, ok
	.loc 1 1507 0
	cmpl	$5, -688(%rbp)	#, class
	jne	.L300	#,
	.loc 1 1507 0 is_stmt 0 discriminator 1
	movl	$1, %eax	#, iftmp.174
	jmp	.L301	#
.L300:
	.loc 1 1507 0 discriminator 2
	movl	$2, %eax	#, iftmp.174
.L301:
	.loc 1 1507 0 discriminator 3
	movl	-740(%rbp), %edx	# mode, mode.175
	movslq	%edx, %rdx	# mode.175, tmp1210
	movzbl	mode_unit_size(%rdx), %edx	# mode_unit_size, D.18068
	movzbl	%dl, %edx	# D.18068, D.18063
	sall	$3, %edx	#, D.18063
	movl	%edx, %ecx	# D.18063, D.18069
	.loc 1 1506 0 is_stmt 1 discriminator 3
	movl	$0, %edx	#,
	movl	%eax, %esi	# iftmp.174,
	movl	%ecx, %edi	# D.18069,
	call	mode_for_size	#
	movl	%eax, -628(%rbp)	# tmp1211, submode
	.loc 1 1511 0 discriminator 3
	cmpl	$51, -628(%rbp)	#, submode
	jne	.L302	#,
	.loc 1 1512 0
	movl	$__FUNCTION__.13677, %edx	#,
	movl	$1512, %esi	#,
	movl	$.LC0, %edi	#,
	call	fancy_abort	#
.L302:
	.loc 1 1514 0
	cmpq	$0, -776(%rbp)	#, target
	jne	.L303	#,
	.loc 1 1515 0
	movl	-740(%rbp), %eax	# mode, tmp1212
	movl	%eax, %edi	# tmp1212,
	call	gen_reg_rtx	#
	movq	%rax, -776(%rbp)	# tmp1213, target
.L303:
	.loc 1 1517 0
	call	start_sequence	#
	.loc 1 1519 0
	movq	-776(%rbp), %rdx	# target, tmp1214
	movl	-628(%rbp), %eax	# submode, tmp1215
	movq	%rdx, %rsi	# tmp1214,
	movl	%eax, %edi	# tmp1215,
	call	gen_realpart	#
	movq	%rax, -88(%rbp)	# tmp1216, realr
	.loc 1 1520 0
	movq	-776(%rbp), %rdx	# target, tmp1217
	movl	-628(%rbp), %eax	# submode, tmp1218
	movq	%rdx, %rsi	# tmp1217,
	movl	%eax, %edi	# tmp1218,
	call	gen_imagpart	#
	movq	%rax, -80(%rbp)	# tmp1219, imagr
	.loc 1 1522 0
	movq	-760(%rbp), %rax	# op0, tmp1220
	movzbl	2(%rax), %eax	# op0_6->mode, D.18068
	movzbl	%al, %eax	# D.18068, D.18069
	cmpl	-740(%rbp), %eax	# mode, D.18069
	jne	.L304	#,
	.loc 1 1524 0
	movq	-760(%rbp), %rdx	# op0, tmp1221
	movl	-628(%rbp), %eax	# submode, tmp1222
	movq	%rdx, %rsi	# tmp1221,
	movl	%eax, %edi	# tmp1222,
	call	gen_realpart	#
	movq	%rax, -496(%rbp)	# tmp1223, real0
	.loc 1 1525 0
	movq	-760(%rbp), %rdx	# op0, tmp1224
	movl	-628(%rbp), %eax	# submode, tmp1225
	movq	%rdx, %rsi	# tmp1224,
	movl	%eax, %edi	# tmp1225,
	call	gen_imagpart	#
	movq	%rax, -488(%rbp)	# tmp1226, imag0
	jmp	.L305	#
.L304:
	.loc 1 1528 0
	movq	-760(%rbp), %rax	# op0, tmp1227
	movq	%rax, -496(%rbp)	# tmp1227, real0
.L305:
	.loc 1 1530 0
	movq	-768(%rbp), %rax	# op1, tmp1228
	movzbl	2(%rax), %eax	# op1_13->mode, D.18068
	movzbl	%al, %eax	# D.18068, D.18069
	cmpl	-740(%rbp), %eax	# mode, D.18069
	jne	.L306	#,
	.loc 1 1532 0
	movq	-768(%rbp), %rdx	# op1, tmp1229
	movl	-628(%rbp), %eax	# submode, tmp1230
	movq	%rdx, %rsi	# tmp1229,
	movl	%eax, %edi	# tmp1230,
	call	gen_realpart	#
	movq	%rax, -480(%rbp)	# tmp1231, real1
	.loc 1 1533 0
	movq	-768(%rbp), %rdx	# op1, tmp1232
	movl	-628(%rbp), %eax	# submode, tmp1233
	movq	%rdx, %rsi	# tmp1232,
	movl	%eax, %edi	# tmp1233,
	call	gen_imagpart	#
	movq	%rax, -472(%rbp)	# tmp1234, imag1
	jmp	.L307	#
.L306:
	.loc 1 1536 0
	movq	-768(%rbp), %rax	# op1, tmp1235
	movq	%rax, -480(%rbp)	# tmp1235, real1
.L307:
	.loc 1 1538 0
	cmpq	$0, -496(%rbp)	#, real0
	je	.L308	#,
	.loc 1 1538 0 is_stmt 0 discriminator 1
	cmpq	$0, -480(%rbp)	#, real1
	je	.L308	#,
	cmpq	$0, -488(%rbp)	#, imag0
	jne	.L309	#,
	cmpq	$0, -472(%rbp)	#, imag1
	jne	.L309	#,
.L308:
	.loc 1 1539 0 is_stmt 1
	movl	$__FUNCTION__.13677, %edx	#,
	movl	$1539, %esi	#,
	movl	$.LC0, %edi	#,
	call	fancy_abort	#
.L309:
	.loc 1 1541 0
	movq	-752(%rbp), %rax	# binoptab, tmp1236
	movl	(%rax), %eax	# binoptab_1->code, D.18060
	cmpl	$78, %eax	#, D.18060
	je	.L311	#,
	cmpl	$78, %eax	#, D.18060
	ja	.L312	#,
	subl	$75, %eax	#, tmp1237
	cmpl	$1, %eax	#, tmp1237
	ja	.L310	#,
	jmp	.L375	#
.L312:
	cmpl	$79, %eax	#, D.18060
	je	.L314	#,
	jmp	.L310	#
.L375:
	.loc 1 1547 0
	movl	-744(%rbp), %r9d	# unsignedp, tmp1238
	movq	-88(%rbp), %r8	# realr, tmp1239
	movq	-480(%rbp), %rcx	# real1, tmp1240
	movq	-496(%rbp), %rdx	# real0, tmp1241
	movq	-752(%rbp), %rsi	# binoptab, tmp1242
	movl	-628(%rbp), %eax	# submode, tmp1243
	movl	16(%rbp), %edi	# methods, tmp1244
	movl	%edi, (%rsp)	# tmp1244,
	movl	%eax, %edi	# tmp1243,
	call	expand_binop	#
	movq	%rax, -464(%rbp)	# tmp1245, res
	.loc 1 1550 0
	cmpq	$0, -464(%rbp)	#, res
	jne	.L315	#,
	.loc 1 1551 0
	jmp	.L316	#
.L315:
	.loc 1 1552 0
	movq	-464(%rbp), %rax	# res, tmp1246
	cmpq	-88(%rbp), %rax	# realr, tmp1246
	je	.L317	#,
	.loc 1 1553 0
	movq	-464(%rbp), %rdx	# res, tmp1247
	movq	-88(%rbp), %rax	# realr, tmp1248
	movq	%rdx, %rsi	# tmp1247,
	movq	%rax, %rdi	# tmp1248,
	call	emit_move_insn	#
.L317:
	.loc 1 1555 0
	cmpq	$0, -488(%rbp)	#, imag0
	je	.L318	#,
	.loc 1 1555 0 is_stmt 0 discriminator 1
	cmpq	$0, -472(%rbp)	#, imag1
	je	.L318	#,
	.loc 1 1556 0 is_stmt 1
	movl	-744(%rbp), %r9d	# unsignedp, tmp1249
	movq	-80(%rbp), %r8	# imagr, tmp1250
	movq	-472(%rbp), %rcx	# imag1, tmp1251
	movq	-488(%rbp), %rdx	# imag0, tmp1252
	movq	-752(%rbp), %rsi	# binoptab, tmp1253
	movl	-628(%rbp), %eax	# submode, tmp1254
	movl	16(%rbp), %edi	# methods, tmp1255
	movl	%edi, (%rsp)	# tmp1255,
	movl	%eax, %edi	# tmp1254,
	call	expand_binop	#
	movq	%rax, -464(%rbp)	# tmp1256, res
	jmp	.L319	#
.L318:
	.loc 1 1558 0
	cmpq	$0, -488(%rbp)	#, imag0
	je	.L320	#,
	.loc 1 1559 0
	movq	-488(%rbp), %rax	# imag0, tmp1257
	movq	%rax, -464(%rbp)	# tmp1257, res
	jmp	.L319	#
.L320:
	.loc 1 1560 0
	movq	-752(%rbp), %rax	# binoptab, tmp1258
	movl	(%rax), %eax	# binoptab_1->code, D.18060
	cmpl	$76, %eax	#, D.18060
	jne	.L321	#,
	.loc 1 1562 0
	movq	optab_table+24(%rip), %rax	# optab_table, D.18061
	.loc 1 1561 0
	cmpq	-752(%rbp), %rax	# binoptab, D.18061
	jne	.L322	#,
	.loc 1 1561 0 is_stmt 0 discriminator 1
	movq	optab_table+264(%rip), %rax	# optab_table, iftmp.176
	jmp	.L323	#
.L322:
	.loc 1 1561 0 discriminator 2
	movq	optab_table+256(%rip), %rax	# optab_table, iftmp.176
.L323:
	.loc 1 1561 0 discriminator 1
	movl	-744(%rbp), %esi	# unsignedp, tmp1259
	movq	-80(%rbp), %rcx	# imagr, tmp1260
	movq	-472(%rbp), %rdx	# imag1, tmp1261
	movl	-628(%rbp), %edi	# submode, tmp1262
	movl	%esi, %r8d	# tmp1259,
	movq	%rax, %rsi	# iftmp.176,
	call	expand_unop	#
	movq	%rax, -464(%rbp)	# tmp1263, res
	jmp	.L319	#
.L321:
	.loc 1 1565 0 is_stmt 1
	movq	-472(%rbp), %rax	# imag1, tmp1264
	movq	%rax, -464(%rbp)	# tmp1264, res
.L319:
	.loc 1 1567 0
	cmpq	$0, -464(%rbp)	#, res
	jne	.L324	#,
	.loc 1 1568 0
	jmp	.L316	#
.L324:
	.loc 1 1569 0
	movq	-464(%rbp), %rax	# res, tmp1265
	cmpq	-80(%rbp), %rax	# imagr, tmp1265
	je	.L325	#,
	.loc 1 1570 0
	movq	-464(%rbp), %rdx	# res, tmp1266
	movq	-80(%rbp), %rax	# imagr, tmp1267
	movq	%rdx, %rsi	# tmp1266,
	movq	%rax, %rdi	# tmp1267,
	call	emit_move_insn	#
.L325:
	.loc 1 1572 0
	movl	$1, -708(%rbp)	#, ok
	.loc 1 1573 0
	jmp	.L316	#
.L311:
	.loc 1 1578 0
	cmpq	$0, -488(%rbp)	#, imag0
	je	.L326	#,
	.loc 1 1578 0 is_stmt 0 discriminator 1
	cmpq	$0, -472(%rbp)	#, imag1
	je	.L326	#,
.LBB20:
	.loc 1 1583 0 is_stmt 1
	movq	-496(%rbp), %rdx	# real0, tmp1268
	movl	-628(%rbp), %eax	# submode, tmp1269
	movq	%rdx, %rsi	# tmp1268,
	movl	%eax, %edi	# tmp1269,
	call	force_reg	#
	movq	%rax, -496(%rbp)	# tmp1270, real0
	.loc 1 1584 0
	movq	-480(%rbp), %rdx	# real1, tmp1271
	movl	-628(%rbp), %eax	# submode, tmp1272
	movq	%rdx, %rsi	# tmp1271,
	movl	%eax, %edi	# tmp1272,
	call	force_reg	#
	movq	%rax, -480(%rbp)	# tmp1273, real1
	.loc 1 1585 0
	movq	-488(%rbp), %rdx	# imag0, tmp1274
	movl	-628(%rbp), %eax	# submode, tmp1275
	movq	%rdx, %rsi	# tmp1274,
	movl	%eax, %edi	# tmp1275,
	call	force_reg	#
	movq	%rax, -488(%rbp)	# tmp1276, imag0
	.loc 1 1586 0
	movq	-472(%rbp), %rdx	# imag1, tmp1277
	movl	-628(%rbp), %eax	# submode, tmp1278
	movq	%rdx, %rsi	# tmp1277,
	movl	%eax, %edi	# tmp1278,
	call	force_reg	#
	movq	%rax, -472(%rbp)	# tmp1279, imag1
	.loc 1 1588 0
	movl	-744(%rbp), %r8d	# unsignedp, tmp1280
	movq	-480(%rbp), %rcx	# real1, tmp1281
	movq	-496(%rbp), %rdx	# real0, tmp1282
	movq	-752(%rbp), %rsi	# binoptab, tmp1283
	movl	-628(%rbp), %eax	# submode, tmp1284
	movl	16(%rbp), %edi	# methods, tmp1285
	movl	%edi, (%rsp)	# tmp1285,
	movl	%r8d, %r9d	# tmp1280,
	movl	$0, %r8d	#,
	movl	%eax, %edi	# tmp1284,
	call	expand_binop	#
	movq	%rax, -72(%rbp)	# tmp1286, temp1
	.loc 1 1591 0
	movl	-744(%rbp), %r8d	# unsignedp, tmp1287
	movq	-472(%rbp), %rcx	# imag1, tmp1288
	movq	-488(%rbp), %rdx	# imag0, tmp1289
	movq	-752(%rbp), %rsi	# binoptab, tmp1290
	movl	-628(%rbp), %eax	# submode, tmp1291
	movl	16(%rbp), %edi	# methods, tmp1292
	movl	%edi, (%rsp)	# tmp1292,
	movl	%r8d, %r9d	# tmp1287,
	movl	$0, %r8d	#,
	movl	%eax, %edi	# tmp1291,
	call	expand_binop	#
	movq	%rax, -64(%rbp)	# tmp1293, temp2
	.loc 1 1594 0
	cmpq	$0, -72(%rbp)	#, temp1
	je	.L316	#,
	.loc 1 1594 0 is_stmt 0 discriminator 1
	cmpq	$0, -64(%rbp)	#, temp2
	je	.L316	#,
	.loc 1 1599 0 is_stmt 1
	movq	optab_table+40(%rip), %rax	# optab_table, D.18061
	.loc 1 1598 0
	cmpq	-752(%rbp), %rax	# binoptab, D.18061
	jne	.L327	#,
	.loc 1 1598 0 is_stmt 0 discriminator 1
	movq	optab_table+24(%rip), %rax	# optab_table, iftmp.177
	jmp	.L328	#
.L327:
	.loc 1 1598 0 discriminator 2
	movq	optab_table+16(%rip), %rax	# optab_table, iftmp.177
.L328:
	.loc 1 1597 0 is_stmt 1
	movl	-744(%rbp), %r9d	# unsignedp, tmp1294
	movq	-88(%rbp), %r8	# realr, tmp1295
	movq	-64(%rbp), %rcx	# temp2, tmp1296
	movq	-72(%rbp), %rdx	# temp1, tmp1297
	movl	-628(%rbp), %edi	# submode, tmp1298
	movl	16(%rbp), %esi	# methods, tmp1299
	movl	%esi, (%rsp)	# tmp1299,
	movq	%rax, %rsi	# iftmp.177,
	call	expand_binop	#
	movq	%rax, -464(%rbp)	# tmp1300, res
	.loc 1 1602 0
	cmpq	$0, -464(%rbp)	#, res
	jne	.L329	#,
	.loc 1 1603 0
	jmp	.L316	#
.L329:
	.loc 1 1604 0
	movq	-464(%rbp), %rax	# res, tmp1301
	cmpq	-88(%rbp), %rax	# realr, tmp1301
	je	.L330	#,
	.loc 1 1605 0
	movq	-464(%rbp), %rdx	# res, tmp1302
	movq	-88(%rbp), %rax	# realr, tmp1303
	movq	%rdx, %rsi	# tmp1302,
	movq	%rax, %rdi	# tmp1303,
	call	emit_move_insn	#
.L330:
	.loc 1 1607 0
	movl	-744(%rbp), %r8d	# unsignedp, tmp1304
	movq	-472(%rbp), %rcx	# imag1, tmp1305
	movq	-496(%rbp), %rdx	# real0, tmp1306
	movq	-752(%rbp), %rsi	# binoptab, tmp1307
	movl	-628(%rbp), %eax	# submode, tmp1308
	movl	16(%rbp), %edi	# methods, tmp1309
	movl	%edi, (%rsp)	# tmp1309,
	movl	%r8d, %r9d	# tmp1304,
	movl	$0, %r8d	#,
	movl	%eax, %edi	# tmp1308,
	call	expand_binop	#
	movq	%rax, -72(%rbp)	# tmp1310, temp1
	.loc 1 1610 0
	movl	-744(%rbp), %r8d	# unsignedp, tmp1311
	movq	-488(%rbp), %rcx	# imag0, tmp1312
	movq	-480(%rbp), %rdx	# real1, tmp1313
	movq	-752(%rbp), %rsi	# binoptab, tmp1314
	movl	-628(%rbp), %eax	# submode, tmp1315
	movl	16(%rbp), %edi	# methods, tmp1316
	movl	%edi, (%rsp)	# tmp1316,
	movl	%r8d, %r9d	# tmp1311,
	movl	$0, %r8d	#,
	movl	%eax, %edi	# tmp1315,
	call	expand_binop	#
	movq	%rax, -64(%rbp)	# tmp1317, temp2
	.loc 1 1613 0
	cmpq	$0, -72(%rbp)	#, temp1
	je	.L316	#,
	.loc 1 1613 0 is_stmt 0 discriminator 1
	cmpq	$0, -64(%rbp)	#, temp2
	je	.L316	#,
	.loc 1 1618 0 is_stmt 1
	movq	optab_table+40(%rip), %rax	# optab_table, D.18061
	.loc 1 1617 0
	cmpq	-752(%rbp), %rax	# binoptab, D.18061
	jne	.L331	#,
	.loc 1 1617 0 is_stmt 0 discriminator 1
	movq	optab_table+8(%rip), %rax	# optab_table, iftmp.178
	jmp	.L332	#
.L331:
	.loc 1 1617 0 discriminator 2
	movq	optab_table(%rip), %rax	# optab_table, iftmp.178
.L332:
	.loc 1 1616 0 is_stmt 1
	movl	-744(%rbp), %r9d	# unsignedp, tmp1318
	movq	-80(%rbp), %r8	# imagr, tmp1319
	movq	-64(%rbp), %rcx	# temp2, tmp1320
	movq	-72(%rbp), %rdx	# temp1, tmp1321
	movl	-628(%rbp), %edi	# submode, tmp1322
	movl	16(%rbp), %esi	# methods, tmp1323
	movl	%esi, (%rsp)	# tmp1323,
	movq	%rax, %rsi	# iftmp.178,
	call	expand_binop	#
	movq	%rax, -464(%rbp)	# tmp1324, res
	.loc 1 1621 0
	cmpq	$0, -464(%rbp)	#, res
	jne	.L333	#,
	.loc 1 1622 0
	jmp	.L316	#
.L333:
	.loc 1 1623 0
	movq	-464(%rbp), %rax	# res, tmp1325
	cmpq	-80(%rbp), %rax	# imagr, tmp1325
	je	.L334	#,
	.loc 1 1624 0
	movq	-464(%rbp), %rdx	# res, tmp1326
	movq	-80(%rbp), %rax	# imagr, tmp1327
	movq	%rdx, %rsi	# tmp1326,
	movq	%rax, %rdi	# tmp1327,
	call	emit_move_insn	#
.L334:
	.loc 1 1626 0
	movl	$1, -708(%rbp)	#, ok
.LBE20:
	.loc 1 1579 0
	nop
	.loc 1 1655 0
	jmp	.L316	#
.L326:
	.loc 1 1631 0
	movq	-496(%rbp), %rdx	# real0, tmp1328
	movl	-628(%rbp), %eax	# submode, tmp1329
	movq	%rdx, %rsi	# tmp1328,
	movl	%eax, %edi	# tmp1329,
	call	force_reg	#
	movq	%rax, -496(%rbp)	# tmp1330, real0
	.loc 1 1632 0
	movq	-480(%rbp), %rdx	# real1, tmp1331
	movl	-628(%rbp), %eax	# submode, tmp1332
	movq	%rdx, %rsi	# tmp1331,
	movl	%eax, %edi	# tmp1332,
	call	force_reg	#
	movq	%rax, -480(%rbp)	# tmp1333, real1
	.loc 1 1634 0
	movl	-744(%rbp), %r9d	# unsignedp, tmp1334
	movq	-88(%rbp), %r8	# realr, tmp1335
	movq	-480(%rbp), %rcx	# real1, tmp1336
	movq	-496(%rbp), %rdx	# real0, tmp1337
	movq	-752(%rbp), %rsi	# binoptab, tmp1338
	movl	-628(%rbp), %eax	# submode, tmp1339
	movl	16(%rbp), %edi	# methods, tmp1340
	movl	%edi, (%rsp)	# tmp1340,
	movl	%eax, %edi	# tmp1339,
	call	expand_binop	#
	movq	%rax, -464(%rbp)	# tmp1341, res
	.loc 1 1636 0
	cmpq	$0, -464(%rbp)	#, res
	jne	.L336	#,
	.loc 1 1637 0
	jmp	.L316	#
.L336:
	.loc 1 1638 0
	movq	-464(%rbp), %rax	# res, tmp1342
	cmpq	-88(%rbp), %rax	# realr, tmp1342
	je	.L337	#,
	.loc 1 1639 0
	movq	-464(%rbp), %rdx	# res, tmp1343
	movq	-88(%rbp), %rax	# realr, tmp1344
	movq	%rdx, %rsi	# tmp1343,
	movq	%rax, %rdi	# tmp1344,
	call	emit_move_insn	#
.L337:
	.loc 1 1641 0
	cmpq	$0, -488(%rbp)	#, imag0
	je	.L338	#,
	.loc 1 1642 0
	movl	-744(%rbp), %r9d	# unsignedp, tmp1345
	movq	-80(%rbp), %r8	# imagr, tmp1346
	movq	-488(%rbp), %rcx	# imag0, tmp1347
	movq	-480(%rbp), %rdx	# real1, tmp1348
	movq	-752(%rbp), %rsi	# binoptab, tmp1349
	movl	-628(%rbp), %eax	# submode, tmp1350
	movl	16(%rbp), %edi	# methods, tmp1351
	movl	%edi, (%rsp)	# tmp1351,
	movl	%eax, %edi	# tmp1350,
	call	expand_binop	#
	movq	%rax, -464(%rbp)	# tmp1352, res
	jmp	.L339	#
.L338:
	.loc 1 1645 0
	movl	-744(%rbp), %r9d	# unsignedp, tmp1353
	movq	-80(%rbp), %r8	# imagr, tmp1354
	movq	-472(%rbp), %rcx	# imag1, tmp1355
	movq	-496(%rbp), %rdx	# real0, tmp1356
	movq	-752(%rbp), %rsi	# binoptab, tmp1357
	movl	-628(%rbp), %eax	# submode, tmp1358
	movl	16(%rbp), %edi	# methods, tmp1359
	movl	%edi, (%rsp)	# tmp1359,
	movl	%eax, %edi	# tmp1358,
	call	expand_binop	#
	movq	%rax, -464(%rbp)	# tmp1360, res
.L339:
	.loc 1 1648 0
	cmpq	$0, -464(%rbp)	#, res
	jne	.L340	#,
	.loc 1 1649 0
	jmp	.L316	#
.L340:
	.loc 1 1650 0
	movq	-464(%rbp), %rax	# res, tmp1361
	cmpq	-80(%rbp), %rax	# imagr, tmp1361
	je	.L341	#,
	.loc 1 1651 0
	movq	-464(%rbp), %rdx	# res, tmp1362
	movq	-80(%rbp), %rax	# imagr, tmp1363
	movq	%rdx, %rsi	# tmp1362,
	movq	%rax, %rdi	# tmp1363,
	call	emit_move_insn	#
.L341:
	.loc 1 1653 0
	movl	$1, -708(%rbp)	#, ok
	.loc 1 1655 0
	jmp	.L316	#
.L314:
	.loc 1 1660 0
	cmpq	$0, -472(%rbp)	#, imag1
	jne	.L342	#,
	.loc 1 1665 0
	movq	-480(%rbp), %rdx	# real1, tmp1364
	movl	-628(%rbp), %eax	# submode, tmp1365
	movq	%rdx, %rsi	# tmp1364,
	movl	%eax, %edi	# tmp1365,
	call	force_reg	#
	movq	%rax, -480(%rbp)	# tmp1366, real1
	.loc 1 1668 0
	cmpl	$6, -688(%rbp)	#, class
	jne	.L343	#,
	.loc 1 1669 0
	movl	-744(%rbp), %r9d	# unsignedp, tmp1367
	movq	-88(%rbp), %r8	# realr, tmp1368
	movq	-480(%rbp), %rcx	# real1, tmp1369
	movq	-496(%rbp), %rdx	# real0, tmp1370
	movq	-752(%rbp), %rsi	# binoptab, tmp1371
	movl	-628(%rbp), %eax	# submode, tmp1372
	movl	16(%rbp), %edi	# methods, tmp1373
	movl	%edi, (%rsp)	# tmp1373,
	movl	%eax, %edi	# tmp1372,
	call	expand_binop	#
	movq	%rax, -464(%rbp)	# tmp1374, res
	jmp	.L344	#
.L343:
	.loc 1 1672 0
	movq	-88(%rbp), %rdi	# realr, tmp1375
	movq	-480(%rbp), %rsi	# real1, tmp1376
	movq	-496(%rbp), %rdx	# real0, tmp1377
	movl	-628(%rbp), %eax	# submode, tmp1378
	movl	-744(%rbp), %ecx	# unsignedp, tmp1379
	movl	%ecx, (%rsp)	# tmp1379,
	movq	%rdi, %r9	# tmp1375,
	movq	%rsi, %r8	# tmp1376,
	movq	%rdx, %rcx	# tmp1377,
	movl	%eax, %edx	# tmp1378,
	movl	$62, %esi	#,
	movl	$0, %edi	#,
	call	expand_divmod	#
	movq	%rax, -464(%rbp)	# tmp1380, res
.L344:
	.loc 1 1675 0
	cmpq	$0, -464(%rbp)	#, res
	jne	.L345	#,
	.loc 1 1676 0
	jmp	.L316	#
.L345:
	.loc 1 1677 0
	movq	-464(%rbp), %rax	# res, tmp1381
	cmpq	-88(%rbp), %rax	# realr, tmp1381
	je	.L346	#,
	.loc 1 1678 0
	movq	-464(%rbp), %rdx	# res, tmp1382
	movq	-88(%rbp), %rax	# realr, tmp1383
	movq	%rdx, %rsi	# tmp1382,
	movq	%rax, %rdi	# tmp1383,
	call	emit_move_insn	#
.L346:
	.loc 1 1680 0
	cmpl	$6, -688(%rbp)	#, class
	jne	.L347	#,
	.loc 1 1681 0
	movl	-744(%rbp), %r9d	# unsignedp, tmp1384
	movq	-80(%rbp), %r8	# imagr, tmp1385
	movq	-480(%rbp), %rcx	# real1, tmp1386
	movq	-488(%rbp), %rdx	# imag0, tmp1387
	movq	-752(%rbp), %rsi	# binoptab, tmp1388
	movl	-628(%rbp), %eax	# submode, tmp1389
	movl	16(%rbp), %edi	# methods, tmp1390
	movl	%edi, (%rsp)	# tmp1390,
	movl	%eax, %edi	# tmp1389,
	call	expand_binop	#
	movq	%rax, -464(%rbp)	# tmp1391, res
	jmp	.L348	#
.L347:
	.loc 1 1684 0
	movq	-80(%rbp), %rdi	# imagr, tmp1392
	movq	-480(%rbp), %rsi	# real1, tmp1393
	movq	-488(%rbp), %rdx	# imag0, tmp1394
	movl	-628(%rbp), %eax	# submode, tmp1395
	movl	-744(%rbp), %ecx	# unsignedp, tmp1396
	movl	%ecx, (%rsp)	# tmp1396,
	movq	%rdi, %r9	# tmp1392,
	movq	%rsi, %r8	# tmp1393,
	movq	%rdx, %rcx	# tmp1394,
	movl	%eax, %edx	# tmp1395,
	movl	$62, %esi	#,
	movl	$0, %edi	#,
	call	expand_divmod	#
	movq	%rax, -464(%rbp)	# tmp1397, res
.L348:
	.loc 1 1687 0
	cmpq	$0, -464(%rbp)	#, res
	jne	.L349	#,
	.loc 1 1688 0
	jmp	.L316	#
.L349:
	.loc 1 1689 0
	movq	-464(%rbp), %rax	# res, tmp1398
	cmpq	-80(%rbp), %rax	# imagr, tmp1398
	je	.L350	#,
	.loc 1 1690 0
	movq	-464(%rbp), %rdx	# res, tmp1399
	movq	-80(%rbp), %rax	# imagr, tmp1400
	movq	%rdx, %rsi	# tmp1399,
	movq	%rax, %rdi	# tmp1400,
	call	emit_move_insn	#
.L350:
	.loc 1 1692 0
	movl	$1, -708(%rbp)	#, ok
	jmp	.L351	#
.L342:
	.loc 1 1696 0
	movl	flag_complex_divide_method(%rip), %eax	# flag_complex_divide_method, flag_complex_divide_method.179
	testl	%eax, %eax	# flag_complex_divide_method.179
	je	.L353	#,
	cmpl	$1, %eax	#, flag_complex_divide_method.179
	je	.L354	#,
	jmp	.L376	#
.L353:
	.loc 1 1699 0
	movq	-80(%rbp), %r9	# imagr, tmp1401
	movq	-88(%rbp), %r8	# realr, tmp1402
	movq	-472(%rbp), %rcx	# imag1, tmp1403
	movq	-488(%rbp), %rdx	# imag0, tmp1404
	movq	-480(%rbp), %rsi	# real1, tmp1405
	movq	-496(%rbp), %rax	# real0, tmp1406
	movq	-752(%rbp), %rdi	# binoptab, tmp1407
	movq	%rdi, 32(%rsp)	# tmp1407,
	movl	-688(%rbp), %edi	# class, tmp1408
	movl	%edi, 24(%rsp)	# tmp1408,
	movl	16(%rbp), %edi	# methods, tmp1409
	movl	%edi, 16(%rsp)	# tmp1409,
	movl	-744(%rbp), %edi	# unsignedp, tmp1410
	movl	%edi, 8(%rsp)	# tmp1410,
	movl	-628(%rbp), %edi	# submode, tmp1411
	movl	%edi, (%rsp)	# tmp1411,
	movq	%rax, %rdi	# tmp1406,
	call	expand_cmplxdiv_straight	#
	movl	%eax, -708(%rbp)	# tmp1412, ok
	.loc 1 1703 0
	jmp	.L351	#
.L354:
	.loc 1 1706 0
	movq	-80(%rbp), %r9	# imagr, tmp1413
	movq	-88(%rbp), %r8	# realr, tmp1414
	movq	-472(%rbp), %rcx	# imag1, tmp1415
	movq	-488(%rbp), %rdx	# imag0, tmp1416
	movq	-480(%rbp), %rsi	# real1, tmp1417
	movq	-496(%rbp), %rax	# real0, tmp1418
	movq	-752(%rbp), %rdi	# binoptab, tmp1419
	movq	%rdi, 32(%rsp)	# tmp1419,
	movl	-688(%rbp), %edi	# class, tmp1420
	movl	%edi, 24(%rsp)	# tmp1420,
	movl	16(%rbp), %edi	# methods, tmp1421
	movl	%edi, 16(%rsp)	# tmp1421,
	movl	-744(%rbp), %edi	# unsignedp, tmp1422
	movl	%edi, 8(%rsp)	# tmp1422,
	movl	-628(%rbp), %edi	# submode, tmp1423
	movl	%edi, (%rsp)	# tmp1423,
	movq	%rax, %rdi	# tmp1418,
	call	expand_cmplxdiv_wide	#
	movl	%eax, -708(%rbp)	# tmp1424, ok
	.loc 1 1710 0
	jmp	.L351	#
.L376:
	.loc 1 1713 0
	movl	$__FUNCTION__.13677, %edx	#,
	movl	$1713, %esi	#,
	movl	$.LC0, %edi	#,
	call	fancy_abort	#
.L351:
	.loc 1 1716 0
	jmp	.L316	#
.L310:
	.loc 1 1719 0
	movl	$__FUNCTION__.13677, %edx	#,
	movl	$1719, %esi	#,
	movl	$.LC0, %edi	#,
	call	fancy_abort	#
.L316:
	.loc 1 1722 0
	call	get_insns	#
	movq	%rax, -56(%rbp)	# tmp1425, seq
	.loc 1 1723 0
	call	end_sequence	#
	.loc 1 1725 0
	cmpl	$0, -708(%rbp)	#, ok
	je	.L299	#,
	.loc 1 1727 0
	movq	-752(%rbp), %rax	# binoptab, tmp1426
	movl	(%rax), %eax	# binoptab_1->code, D.18060
	testl	%eax, %eax	# D.18060
	je	.L355	#,
	.loc 1 1729 0
	movq	-768(%rbp), %rax	# op1, tmp1427
	movq	%rax, %rdi	# tmp1427,
	call	copy_rtx	#
	movq	%rax, %rbx	#, D.18074
	movq	-760(%rbp), %rax	# op0, tmp1428
	movq	%rax, %rdi	# tmp1428,
	call	copy_rtx	#
	movq	%rax, %rdx	#, D.18074
	movq	-752(%rbp), %rax	# binoptab, tmp1429
	movl	(%rax), %eax	# binoptab_1->code, D.18060
	movl	-740(%rbp), %esi	# mode, tmp1430
	movq	%rbx, %rcx	# D.18074,
	movl	%eax, %edi	# D.18060,
	call	gen_rtx_fmt_ee	#
	movq	%rax, -456(%rbp)	# tmp1431, equiv_value
	jmp	.L356	#
.L355:
	.loc 1 1732 0
	movq	$0, -456(%rbp)	#, equiv_value
.L356:
	.loc 1 1734 0
	movq	-456(%rbp), %rdi	# equiv_value, tmp1432
	movq	-768(%rbp), %rcx	# op1, tmp1433
	movq	-760(%rbp), %rdx	# op0, tmp1434
	movq	-776(%rbp), %rsi	# target, tmp1435
	movq	-56(%rbp), %rax	# seq, tmp1436
	movq	%rdi, %r8	# tmp1432,
	movq	%rax, %rdi	# tmp1436,
	call	emit_no_conflict_block	#
	.loc 1 1736 0
	movq	-776(%rbp), %rax	# target, D.18059
	jmp	.L141	#
.L299:
.LBE19:
	.loc 1 1743 0
	movl	-740(%rbp), %edx	# mode, mode.180
	movq	-752(%rbp), %rax	# binoptab, tmp1437
	movslq	%edx, %rdx	# mode.180, tmp1438
	salq	$4, %rdx	#, tmp1439
	addq	%rdx, %rax	# tmp1439, tmp1440
	addq	$16, %rax	#, tmp1441
	movq	(%rax), %rax	# binoptab_1->handlers[mode.180_857].libfunc, D.18074
	testq	%rax, %rax	# D.18074
	je	.L357	#,
	.loc 1 1744 0
	cmpl	$1, 16(%rbp)	#, methods
	je	.L358	#,
	.loc 1 1744 0 is_stmt 0 discriminator 1
	cmpl	$3, 16(%rbp)	#, methods
	jne	.L357	#,
.L358:
.LBB21:
	.loc 1 1747 0 is_stmt 1
	movq	-768(%rbp), %rax	# op1, tmp1442
	movq	%rax, -448(%rbp)	# tmp1442, op1x
	.loc 1 1748 0
	movl	-740(%rbp), %eax	# mode, tmp1443
	movl	%eax, -704(%rbp)	# tmp1443, op1_mode
	.loc 1 1751 0
	call	start_sequence	#
	.loc 1 1753 0
	cmpl	$0, -692(%rbp)	#, shift_op
	je	.L359	#,
	.loc 1 1755 0
	movl	word_mode(%rip), %eax	# word_mode, tmp1444
	movl	%eax, -704(%rbp)	# tmp1444, op1_mode
	.loc 1 1758 0
	movl	word_mode(%rip), %eax	# word_mode, word_mode.181
	movq	-768(%rbp), %rcx	# op1, tmp1445
	movl	$1, %edx	#,
	movq	%rcx, %rsi	# tmp1445,
	movl	%eax, %edi	# word_mode.181,
	call	convert_to_mode	#
	movq	%rax, -448(%rbp)	# tmp1446, op1x
.L359:
	.loc 1 1761 0
	movq	-760(%rbp), %rax	# op0, tmp1447
	movzbl	2(%rax), %eax	# op0_6->mode, D.18068
	testb	%al, %al	# D.18068
	je	.L360	#,
	.loc 1 1762 0
	movq	-760(%rbp), %rax	# op0, tmp1448
	movzbl	2(%rax), %eax	# op0_6->mode, D.18068
	movzbl	%al, %eax	# D.18068, D.18069
	cmpl	-740(%rbp), %eax	# mode, D.18069
	je	.L360	#,
	.loc 1 1763 0
	movl	-744(%rbp), %edx	# unsignedp, tmp1449
	movq	-760(%rbp), %rcx	# op0, tmp1450
	movl	-740(%rbp), %eax	# mode, tmp1451
	movq	%rcx, %rsi	# tmp1450,
	movl	%eax, %edi	# tmp1451,
	call	convert_to_mode	#
	movq	%rax, -760(%rbp)	# tmp1452, op0
.L360:
	.loc 1 1767 0
	movl	-740(%rbp), %edx	# mode, mode.182
	movq	-752(%rbp), %rax	# binoptab, tmp1453
	movslq	%edx, %rdx	# mode.182, tmp1454
	salq	$4, %rdx	#, tmp1455
	addq	%rdx, %rax	# tmp1455, tmp1456
	addq	$16, %rax	#, tmp1457
	movq	(%rax), %rax	# binoptab_1->handlers[mode.182_868].libfunc, D.18074
	movq	-760(%rbp), %rsi	# op0, tmp1458
	movl	-740(%rbp), %edx	# mode, tmp1459
	movl	-704(%rbp), %ecx	# op1_mode, tmp1460
	movl	%ecx, 16(%rsp)	# tmp1460,
	movq	-448(%rbp), %rcx	# op1x, tmp1461
	movq	%rcx, 8(%rsp)	# tmp1461,
	movl	-740(%rbp), %ecx	# mode, tmp1462
	movl	%ecx, (%rsp)	# tmp1462,
	movq	%rsi, %r9	# tmp1458,
	movl	$2, %r8d	#,
	movl	%edx, %ecx	# tmp1459,
	movl	$1, %edx	#,
	movl	$0, %esi	#,
	movq	%rax, %rdi	# D.18074,
	movl	$0, %eax	#,
	call	emit_library_call_value	#
	movq	%rax, -48(%rbp)	# tmp1463, value
	.loc 1 1771 0
	call	get_insns	#
	movq	%rax, -40(%rbp)	# tmp1464, insns
	.loc 1 1772 0
	call	end_sequence	#
	.loc 1 1774 0
	movl	-740(%rbp), %eax	# mode, tmp1465
	movl	%eax, %edi	# tmp1465,
	call	gen_reg_rtx	#
	movq	%rax, -776(%rbp)	# tmp1466, target
	.loc 1 1775 0
	movq	-752(%rbp), %rax	# binoptab, tmp1467
	movl	(%rax), %eax	# binoptab_1->code, D.18060
	movq	-768(%rbp), %rcx	# op1, tmp1468
	movq	-760(%rbp), %rdx	# op0, tmp1469
	movl	-740(%rbp), %esi	# mode, tmp1470
	movl	%eax, %edi	# D.18060,
	call	gen_rtx_fmt_ee	#
	movq	%rax, %rcx	#, D.18074
	movq	-48(%rbp), %rdx	# value, tmp1471
	movq	-776(%rbp), %rsi	# target, tmp1472
	movq	-40(%rbp), %rax	# insns, tmp1473
	movq	%rax, %rdi	# tmp1473,
	call	emit_libcall_block	#
	.loc 1 1778 0
	movq	-776(%rbp), %rax	# target, D.18059
	jmp	.L141	#
.L357:
.LBE21:
	.loc 1 1781 0
	movq	-432(%rbp), %rax	# last, tmp1474
	movq	%rax, %rdi	# tmp1474,
	call	delete_insns_since	#
	.loc 1 1785 0
	cmpl	$2, 16(%rbp)	#, methods
	je	.L361	#,
	.loc 1 1785 0 is_stmt 0 discriminator 1
	cmpl	$3, 16(%rbp)	#, methods
	je	.L361	#,
	cmpl	$4, 16(%rbp)	#, methods
	je	.L361	#,
	.loc 1 1789 0 is_stmt 1
	movq	-440(%rbp), %rax	# entry_last, tmp1475
	movq	%rax, %rdi	# tmp1475,
	call	delete_insns_since	#
	.loc 1 1790 0
	movl	$0, %eax	#, D.18059
	jmp	.L141	#
.L361:
	.loc 1 1796 0
	cmpl	$3, 16(%rbp)	#, methods
	sete	%al	#, D.18065
	movzbl	%al, %eax	# D.18065, tmp1476
	movl	%eax, 16(%rbp)	# tmp1476, methods
	.loc 1 1801 0
	cmpl	$1, -688(%rbp)	#, class
	je	.L362	#,
	.loc 1 1801 0 is_stmt 0 discriminator 1
	cmpl	$2, -688(%rbp)	#, class
	je	.L362	#,
	cmpl	$6, -688(%rbp)	#, class
	jne	.L363	#,
.L362:
	.loc 1 1803 0 is_stmt 1
	movl	-740(%rbp), %eax	# mode, mode.183
	cltq
	movzbl	mode_wider_mode(%rax), %eax	# mode_wider_mode, D.18068
	movzbl	%al, %eax	# D.18068, tmp1478
	movl	%eax, -728(%rbp)	# tmp1478, wider_mode
	jmp	.L364	#
.L374:
	.loc 1 1806 0
	movl	-728(%rbp), %edx	# wider_mode, wider_mode.184
	movq	-752(%rbp), %rax	# binoptab, tmp1479
	movslq	%edx, %rdx	# wider_mode.184, tmp1480
	salq	$4, %rdx	#, tmp1481
	addq	%rdx, %rax	# tmp1481, tmp1482
	movl	8(%rax), %eax	# binoptab_1->handlers[wider_mode.184_882].insn_code, D.18066
	cmpl	$1317, %eax	#, D.18066
	jne	.L365	#,
	.loc 1 1808 0
	cmpl	$1, 16(%rbp)	#, methods
	jne	.L366	#,
	.loc 1 1809 0
	movl	-728(%rbp), %edx	# wider_mode, wider_mode.185
	movq	-752(%rbp), %rax	# binoptab, tmp1483
	movslq	%edx, %rdx	# wider_mode.185, tmp1484
	salq	$4, %rdx	#, tmp1485
	addq	%rdx, %rax	# tmp1485, tmp1486
	addq	$16, %rax	#, tmp1487
	movq	(%rax), %rax	# binoptab_1->handlers[wider_mode.185_884].libfunc, D.18074
	testq	%rax, %rax	# D.18074
	je	.L366	#,
.L365:
.LBB22:
	.loc 1 1811 0
	movq	-760(%rbp), %rax	# op0, tmp1488
	movq	%rax, -32(%rbp)	# tmp1488, xop0
	movq	-768(%rbp), %rax	# op1, tmp1489
	movq	%rax, -24(%rbp)	# tmp1489, xop1
	.loc 1 1812 0
	movl	$0, -700(%rbp)	#, no_extend
	.loc 1 1818 0
	movq	optab_table+152(%rip), %rax	# optab_table, D.18061
	cmpq	-752(%rbp), %rax	# binoptab, D.18061
	je	.L367	#,
	.loc 1 1818 0 is_stmt 0 discriminator 1
	movq	optab_table+144(%rip), %rax	# optab_table, D.18061
	cmpq	-752(%rbp), %rax	# binoptab, D.18061
	je	.L367	#,
	.loc 1 1819 0 is_stmt 1
	movq	optab_table+160(%rip), %rax	# optab_table, D.18061
	cmpq	-752(%rbp), %rax	# binoptab, D.18061
	je	.L367	#,
	.loc 1 1820 0
	movq	optab_table(%rip), %rax	# optab_table, D.18061
	cmpq	-752(%rbp), %rax	# binoptab, D.18061
	je	.L367	#,
	.loc 1 1820 0 is_stmt 0 discriminator 1
	movq	optab_table+16(%rip), %rax	# optab_table, D.18061
	cmpq	-752(%rbp), %rax	# binoptab, D.18061
	je	.L367	#,
	.loc 1 1821 0 is_stmt 1
	movq	optab_table+32(%rip), %rax	# optab_table, D.18061
	cmpq	-752(%rbp), %rax	# binoptab, D.18061
	je	.L367	#,
	.loc 1 1821 0 is_stmt 0 discriminator 1
	movq	optab_table+168(%rip), %rax	# optab_table, D.18061
	cmpq	-752(%rbp), %rax	# binoptab, D.18061
	jne	.L368	#,
.L367:
	.loc 1 1822 0 is_stmt 1
	cmpl	$1, -688(%rbp)	#, class
	jne	.L368	#,
	.loc 1 1823 0
	movl	$1, -700(%rbp)	#, no_extend
.L368:
	.loc 1 1825 0
	movl	-700(%rbp), %edi	# no_extend, tmp1490
	movl	-744(%rbp), %ecx	# unsignedp, tmp1491
	movl	-740(%rbp), %edx	# mode, tmp1492
	movl	-728(%rbp), %esi	# wider_mode, tmp1493
	movq	-32(%rbp), %rax	# xop0, tmp1494
	movl	%edi, %r8d	# tmp1490,
	movq	%rax, %rdi	# tmp1494,
	call	widen_operand	#
	movq	%rax, -32(%rbp)	# tmp1495, xop0
	.loc 1 1829 0
	cmpl	$0, -700(%rbp)	#, no_extend
	je	.L369	#,
	.loc 1 1830 0 discriminator 1
	movq	optab_table+168(%rip), %rax	# optab_table, D.18061
	.loc 1 1829 0 discriminator 1
	cmpq	-752(%rbp), %rax	# binoptab, D.18061
	je	.L369	#,
	.loc 1 1829 0 is_stmt 0 discriminator 3
	movl	$1, %eax	#, iftmp.186
	jmp	.L370	#
.L369:
	.loc 1 1829 0 discriminator 2
	movl	$0, %eax	#, iftmp.186
.L370:
	.loc 1 1829 0 discriminator 4
	movl	-744(%rbp), %ecx	# unsignedp, tmp1496
	movl	-740(%rbp), %edx	# mode, tmp1497
	movl	-728(%rbp), %esi	# wider_mode, tmp1498
	movq	-24(%rbp), %rdi	# xop1, tmp1499
	movl	%eax, %r8d	# iftmp.186,
	call	widen_operand	#
	movq	%rax, -24(%rbp)	# tmp1500, xop1
	.loc 1 1832 0 is_stmt 1 discriminator 4
	movl	-744(%rbp), %r8d	# unsignedp, tmp1501
	movq	-24(%rbp), %rcx	# xop1, tmp1502
	movq	-32(%rbp), %rdx	# xop0, tmp1503
	movq	-752(%rbp), %rsi	# binoptab, tmp1504
	movl	-728(%rbp), %eax	# wider_mode, tmp1505
	movl	16(%rbp), %edi	# methods, tmp1506
	movl	%edi, (%rsp)	# tmp1506,
	movl	%r8d, %r9d	# tmp1501,
	movl	$0, %r8d	#,
	movl	%eax, %edi	# tmp1505,
	call	expand_binop	#
	movq	%rax, -624(%rbp)	# tmp1507, temp
	.loc 1 1834 0 discriminator 4
	cmpq	$0, -624(%rbp)	#, temp
	je	.L371	#,
	.loc 1 1836 0
	cmpl	$1, -688(%rbp)	#, class
	je	.L372	#,
	.loc 1 1838 0
	cmpq	$0, -776(%rbp)	#, target
	jne	.L373	#,
	.loc 1 1839 0
	movl	-740(%rbp), %eax	# mode, tmp1508
	movl	%eax, %edi	# tmp1508,
	call	gen_reg_rtx	#
	movq	%rax, -776(%rbp)	# tmp1509, target
.L373:
	.loc 1 1840 0
	movq	-624(%rbp), %rcx	# temp, tmp1510
	movq	-776(%rbp), %rax	# target, tmp1511
	movl	$0, %edx	#,
	movq	%rcx, %rsi	# tmp1510,
	movq	%rax, %rdi	# tmp1511,
	call	convert_move	#
	.loc 1 1841 0
	movq	-776(%rbp), %rax	# target, D.18059
	jmp	.L141	#
.L372:
	.loc 1 1844 0
	movq	-624(%rbp), %rdx	# temp, tmp1512
	movl	-740(%rbp), %eax	# mode, tmp1513
	movq	%rdx, %rsi	# tmp1512,
	movl	%eax, %edi	# tmp1513,
	call	gen_lowpart	#
	jmp	.L141	#
.L371:
	.loc 1 1847 0
	movq	-432(%rbp), %rax	# last, tmp1514
	movq	%rax, %rdi	# tmp1514,
	call	delete_insns_since	#
.L366:
.LBE22:
	.loc 1 1804 0
	movl	-728(%rbp), %eax	# wider_mode, wider_mode.187
	cltq
	movzbl	mode_wider_mode(%rax), %eax	# mode_wider_mode, D.18068
	movzbl	%al, %eax	# D.18068, tmp1516
	movl	%eax, -728(%rbp)	# tmp1516, wider_mode
.L364:
	.loc 1 1803 0 discriminator 1
	cmpl	$0, -728(%rbp)	#, wider_mode
	jne	.L374	#,
.L363:
	.loc 1 1852 0
	movq	-440(%rbp), %rax	# entry_last, tmp1517
	movq	%rax, %rdi	# tmp1517,
	call	delete_insns_since	#
	.loc 1 1853 0
	movl	$0, %eax	#, D.18059
.L141:
	.loc 1 1854 0
	addq	$808, %rsp	#,
	popq	%rbx	#
	popq	%rbp	#
	.cfi_def_cfa 7, 8
	ret
	.cfi_endproc
.LFE7:
	.size	expand_binop, .-expand_binop
	.globl	sign_expand_binop
	.type	sign_expand_binop, @function
sign_expand_binop:
.LFB8:
	.loc 1 1870 0
	.cfi_startproc
	pushq	%rbp	#
	.cfi_def_cfa_offset 16
	.cfi_offset 6, -16
	movq	%rsp, %rbp	#,
	.cfi_def_cfa_register 6
	subq	$1040, %rsp	#,
	movl	%edi, -980(%rbp)	# mode, mode
	movq	%rsi, -992(%rbp)	# uoptab, uoptab
	movq	%rdx, -1000(%rbp)	# soptab, soptab
	movq	%rcx, -1008(%rbp)	# op0, op0
	movq	%r8, -1016(%rbp)	# op1, op1
	movq	%r9, -1024(%rbp)	# target, target
	.loc 1 1872 0
	cmpl	$0, 16(%rbp)	#, unsignedp
	je	.L378	#,
	.loc 1 1872 0 is_stmt 0 discriminator 1
	movq	-992(%rbp), %rax	# uoptab, iftmp.188
	jmp	.L379	#
.L378:
	.loc 1 1872 0 discriminator 2
	movq	-1000(%rbp), %rax	# soptab, iftmp.188
.L379:
	.loc 1 1872 0 discriminator 3
	movq	%rax, -968(%rbp)	# iftmp.188, direct_optab
	.loc 1 1876 0 is_stmt 1 discriminator 3
	movq	-1024(%rbp), %rdi	# target, tmp64
	movq	-1016(%rbp), %rcx	# op1, tmp65
	movq	-1008(%rbp), %rdx	# op0, tmp66
	movq	-968(%rbp), %rsi	# direct_optab, tmp67
	movl	-980(%rbp), %eax	# mode, tmp68
	movl	$0, (%rsp)	#,
	movl	16(%rbp), %r9d	# unsignedp,
	movq	%rdi, %r8	# tmp64,
	movl	%eax, %edi	# tmp68,
	call	expand_binop	#
	movq	%rax, -976(%rbp)	# tmp69, temp
	.loc 1 1878 0 discriminator 3
	cmpq	$0, -976(%rbp)	#, temp
	jne	.L380	#,
	.loc 1 1878 0 is_stmt 0 discriminator 1
	cmpl	$0, 24(%rbp)	#, methods
	jne	.L381	#,
.L380:
	.loc 1 1879 0 is_stmt 1
	movq	-976(%rbp), %rax	# temp, D.18077
	jmp	.L390	#
.L381:
	.loc 1 1883 0
	movq	-1000(%rbp), %rax	# soptab, tmp70
	leaq	-960(%rbp), %rdx	#, tmp71
	movq	%rax, %rsi	# tmp70, tmp72
	movl	$119, %eax	#, tmp73
	movq	%rdx, %rdi	# tmp71, tmp71
	movq	%rax, %rcx	# tmp73, tmp73
	rep movsq
	.loc 1 1884 0
	movl	-980(%rbp), %eax	# mode, mode.189
	cltq
	salq	$4, %rax	#, tmp75
	addq	%rbp, %rax	#, tmp76
	subq	$960, %rax	#, tmp77
	movl	$1317, 8(%rax)	#, wide_soptab.handlers[mode.189_16].insn_code
	.loc 1 1885 0
	movl	-980(%rbp), %eax	# mode, mode.190
	cltq
	salq	$4, %rax	#, tmp79
	addq	%rbp, %rax	#, tmp80
	subq	$944, %rax	#, tmp81
	movq	$0, (%rax)	#, wide_soptab.handlers[mode.190_17].libfunc
	.loc 1 1887 0
	movq	-1024(%rbp), %rdi	# target, tmp82
	movq	-1016(%rbp), %rcx	# op1, tmp83
	movq	-1008(%rbp), %rdx	# op0, tmp84
	leaq	-960(%rbp), %rsi	#, tmp85
	movl	-980(%rbp), %eax	# mode, tmp86
	movl	$2, (%rsp)	#,
	movl	16(%rbp), %r9d	# unsignedp,
	movq	%rdi, %r8	# tmp82,
	movl	%eax, %edi	# tmp86,
	call	expand_binop	#
	movq	%rax, -976(%rbp)	# tmp87, temp
	.loc 1 1891 0
	cmpq	$0, -976(%rbp)	#, temp
	jne	.L383	#,
	.loc 1 1891 0 is_stmt 0 discriminator 1
	cmpl	$0, 16(%rbp)	#, unsignedp
	je	.L383	#,
	.loc 1 1892 0 is_stmt 1
	movq	-1024(%rbp), %rdi	# target, tmp88
	movq	-1016(%rbp), %rcx	# op1, tmp89
	movq	-1008(%rbp), %rdx	# op0, tmp90
	movq	-992(%rbp), %rsi	# uoptab, tmp91
	movl	-980(%rbp), %eax	# mode, tmp92
	movl	$2, (%rsp)	#,
	movl	16(%rbp), %r9d	# unsignedp,
	movq	%rdi, %r8	# tmp88,
	movl	%eax, %edi	# tmp92,
	call	expand_binop	#
	movq	%rax, -976(%rbp)	# tmp93, temp
.L383:
	.loc 1 1894 0
	cmpq	$0, -976(%rbp)	#, temp
	jne	.L384	#,
	.loc 1 1894 0 is_stmt 0 discriminator 1
	cmpl	$2, 24(%rbp)	#, methods
	jne	.L385	#,
.L384:
	.loc 1 1895 0 is_stmt 1
	movq	-976(%rbp), %rax	# temp, D.18077
	jmp	.L390	#
.L385:
	.loc 1 1898 0
	movq	-1024(%rbp), %rdi	# target, tmp94
	movq	-1016(%rbp), %rcx	# op1, tmp95
	movq	-1008(%rbp), %rdx	# op0, tmp96
	movq	-968(%rbp), %rsi	# direct_optab, tmp97
	movl	-980(%rbp), %eax	# mode, tmp98
	movl	$1, (%rsp)	#,
	movl	16(%rbp), %r9d	# unsignedp,
	movq	%rdi, %r8	# tmp94,
	movl	%eax, %edi	# tmp98,
	call	expand_binop	#
	movq	%rax, -976(%rbp)	# tmp99, temp
	.loc 1 1899 0
	cmpq	$0, -976(%rbp)	#, temp
	jne	.L386	#,
	.loc 1 1899 0 is_stmt 0 discriminator 1
	cmpl	$1, 24(%rbp)	#, methods
	jne	.L387	#,
.L386:
	.loc 1 1900 0 is_stmt 1
	movq	-976(%rbp), %rax	# temp, D.18077
	jmp	.L390	#
.L387:
	.loc 1 1903 0
	movq	-1024(%rbp), %r8	# target, tmp100
	movq	-1016(%rbp), %rcx	# op1, tmp101
	movq	-1008(%rbp), %rdx	# op0, tmp102
	leaq	-960(%rbp), %rsi	#, tmp103
	movl	-980(%rbp), %eax	# mode, tmp104
	movl	24(%rbp), %edi	# methods, tmp105
	movl	%edi, (%rsp)	# tmp105,
	movl	16(%rbp), %r9d	# unsignedp,
	movl	%eax, %edi	# tmp104,
	call	expand_binop	#
	movq	%rax, -976(%rbp)	# tmp106, temp
	.loc 1 1905 0
	cmpq	$0, -976(%rbp)	#, temp
	je	.L388	#,
	.loc 1 1906 0
	movq	-976(%rbp), %rax	# temp, D.18077
	jmp	.L390	#
.L388:
	.loc 1 1907 0
	cmpl	$0, 16(%rbp)	#, unsignedp
	je	.L389	#,
	.loc 1 1908 0
	movq	-1024(%rbp), %r8	# target, tmp107
	movq	-1016(%rbp), %rcx	# op1, tmp108
	movq	-1008(%rbp), %rdx	# op0, tmp109
	movq	-992(%rbp), %rsi	# uoptab, tmp110
	movl	-980(%rbp), %eax	# mode, tmp111
	movl	24(%rbp), %edi	# methods, tmp112
	movl	%edi, (%rsp)	# tmp112,
	movl	16(%rbp), %r9d	# unsignedp,
	movl	%eax, %edi	# tmp111,
	call	expand_binop	#
	jmp	.L390	#
.L389:
	.loc 1 1910 0
	movl	$0, %eax	#, D.18077
.L390:
	.loc 1 1911 0
	leave
	.cfi_def_cfa 7, 8
	ret
	.cfi_endproc
.LFE8:
	.size	sign_expand_binop, .-sign_expand_binop
	.globl	expand_twoval_binop
	.type	expand_twoval_binop, @function
expand_twoval_binop:
.LFB9:
	.loc 1 1931 0
	.cfi_startproc
	pushq	%rbp	#
	.cfi_def_cfa_offset 16
	.cfi_offset 6, -16
	movq	%rsp, %rbp	#,
	.cfi_def_cfa_register 6
	subq	$144, %rsp	#,
	movq	%rdi, -104(%rbp)	# binoptab, binoptab
	movq	%rsi, -112(%rbp)	# op0, op0
	movq	%rdx, -120(%rbp)	# op1, op1
	movq	%rcx, -128(%rbp)	# targ0, targ0
	movq	%r8, -136(%rbp)	# targ1, targ1
	movl	%r9d, -140(%rbp)	# unsignedp, unsignedp
	.loc 1 1932 0
	cmpq	$0, -128(%rbp)	#, targ0
	je	.L392	#,
	.loc 1 1932 0 is_stmt 0 discriminator 1
	movq	-128(%rbp), %rax	# targ0, iftmp.191
	jmp	.L393	#
.L392:
	.loc 1 1932 0 discriminator 2
	movq	-136(%rbp), %rax	# targ1, iftmp.191
.L393:
	.loc 1 1932 0 discriminator 3
	movzbl	2(%rax), %eax	# iftmp.191_12->mode, D.18079
	movzbl	%al, %eax	# D.18079, tmp126
	movl	%eax, -92(%rbp)	# tmp126, mode
	.loc 1 1935 0 is_stmt 1 discriminator 3
	call	get_last_insn	#
	movq	%rax, -56(%rbp)	# tmp127, entry_last
	.loc 1 1938 0 discriminator 3
	movl	-92(%rbp), %eax	# mode, mode.192
	cltq
	movl	mode_class(,%rax,4), %eax	# mode_class, tmp129
	movl	%eax, -88(%rbp)	# tmp129, class
	.loc 1 1940 0 discriminator 3
	movq	-112(%rbp), %rax	# op0, tmp130
	movl	$0, %esi	#,
	movq	%rax, %rdi	# tmp130,
	call	protect_from_queue	#
	movq	%rax, -112(%rbp)	# tmp131, op0
	.loc 1 1941 0 discriminator 3
	movq	-120(%rbp), %rax	# op1, tmp132
	movl	$0, %esi	#,
	movq	%rax, %rdi	# tmp132,
	call	protect_from_queue	#
	movq	%rax, -120(%rbp)	# tmp133, op1
	.loc 1 1943 0 discriminator 3
	movl	flag_force_mem(%rip), %eax	# flag_force_mem, flag_force_mem.193
	testl	%eax, %eax	# flag_force_mem.193
	je	.L394	#,
	.loc 1 1945 0
	movq	-112(%rbp), %rax	# op0, tmp134
	movq	%rax, %rdi	# tmp134,
	call	force_not_mem	#
	movq	%rax, -112(%rbp)	# tmp135, op0
	.loc 1 1946 0
	movq	-120(%rbp), %rax	# op1, tmp136
	movq	%rax, %rdi	# tmp136,
	call	force_not_mem	#
	movq	%rax, -120(%rbp)	# tmp137, op1
.L394:
	.loc 1 1951 0
	movq	-112(%rbp), %rax	# op0, tmp138
	movzwl	(%rax), %eax	# op0_1->code, D.18080
	cmpw	$67, %ax	#, D.18080
	je	.L395	#,
	.loc 1 1951 0 is_stmt 0 discriminator 2
	movq	-112(%rbp), %rax	# op0, tmp139
	movzwl	(%rax), %eax	# op0_1->code, D.18080
	cmpw	$68, %ax	#, D.18080
	je	.L395	#,
	.loc 1 1951 0 discriminator 1
	movq	-112(%rbp), %rax	# op0, tmp140
	movzwl	(%rax), %eax	# op0_1->code, D.18080
	cmpw	$54, %ax	#, D.18080
	je	.L395	#,
	movq	-112(%rbp), %rax	# op0, tmp141
	movzwl	(%rax), %eax	# op0_1->code, D.18080
	cmpw	$55, %ax	#, D.18080
	je	.L395	#,
	movq	-112(%rbp), %rax	# op0, tmp142
	movzwl	(%rax), %eax	# op0_1->code, D.18080
	cmpw	$58, %ax	#, D.18080
	je	.L395	#,
	movq	-112(%rbp), %rax	# op0, tmp143
	movzwl	(%rax), %eax	# op0_1->code, D.18080
	cmpw	$134, %ax	#, D.18080
	je	.L395	#,
	movq	-112(%rbp), %rax	# op0, tmp144
	movzwl	(%rax), %eax	# op0_1->code, D.18080
	cmpw	$56, %ax	#, D.18080
	je	.L395	#,
	movq	-112(%rbp), %rax	# op0, tmp145
	movzwl	(%rax), %eax	# op0_1->code, D.18080
	cmpw	$140, %ax	#, D.18080
	jne	.L396	#,
.L395:
	call	preserve_subexpressions_p	#
	testl	%eax, %eax	# D.18078
	je	.L396	#,
	.loc 1 1952 0 is_stmt 1
	movq	-104(%rbp), %rax	# binoptab, tmp146
	movl	(%rax), %edx	# binoptab_39(D)->code, D.18081
	movq	-112(%rbp), %rax	# op0, tmp147
	movl	%edx, %esi	# D.18081,
	movq	%rax, %rdi	# tmp147,
	call	rtx_cost	#
	cmpl	$4, %eax	#, D.18078
	jle	.L396	#,
	.loc 1 1953 0
	movq	-112(%rbp), %rdx	# op0, tmp148
	movl	-92(%rbp), %eax	# mode, tmp149
	movq	%rdx, %rsi	# tmp148,
	movl	%eax, %edi	# tmp149,
	call	force_reg	#
	movq	%rax, -112(%rbp)	# tmp150, op0
.L396:
	.loc 1 1955 0
	movq	-120(%rbp), %rax	# op1, tmp151
	movzwl	(%rax), %eax	# op1_3->code, D.18080
	cmpw	$67, %ax	#, D.18080
	je	.L397	#,
	.loc 1 1955 0 is_stmt 0 discriminator 2
	movq	-120(%rbp), %rax	# op1, tmp152
	movzwl	(%rax), %eax	# op1_3->code, D.18080
	cmpw	$68, %ax	#, D.18080
	je	.L397	#,
	.loc 1 1955 0 discriminator 1
	movq	-120(%rbp), %rax	# op1, tmp153
	movzwl	(%rax), %eax	# op1_3->code, D.18080
	cmpw	$54, %ax	#, D.18080
	je	.L397	#,
	movq	-120(%rbp), %rax	# op1, tmp154
	movzwl	(%rax), %eax	# op1_3->code, D.18080
	cmpw	$55, %ax	#, D.18080
	je	.L397	#,
	movq	-120(%rbp), %rax	# op1, tmp155
	movzwl	(%rax), %eax	# op1_3->code, D.18080
	cmpw	$58, %ax	#, D.18080
	je	.L397	#,
	movq	-120(%rbp), %rax	# op1, tmp156
	movzwl	(%rax), %eax	# op1_3->code, D.18080
	cmpw	$134, %ax	#, D.18080
	je	.L397	#,
	movq	-120(%rbp), %rax	# op1, tmp157
	movzwl	(%rax), %eax	# op1_3->code, D.18080
	cmpw	$56, %ax	#, D.18080
	je	.L397	#,
	movq	-120(%rbp), %rax	# op1, tmp158
	movzwl	(%rax), %eax	# op1_3->code, D.18080
	cmpw	$140, %ax	#, D.18080
	jne	.L398	#,
.L397:
	call	preserve_subexpressions_p	#
	testl	%eax, %eax	# D.18078
	je	.L398	#,
	.loc 1 1956 0 is_stmt 1
	movq	-104(%rbp), %rax	# binoptab, tmp159
	movl	(%rax), %edx	# binoptab_39(D)->code, D.18081
	movq	-120(%rbp), %rax	# op1, tmp160
	movl	%edx, %esi	# D.18081,
	movq	%rax, %rdi	# tmp160,
	call	rtx_cost	#
	cmpl	$4, %eax	#, D.18078
	jle	.L398	#,
	.loc 1 1957 0
	movq	-120(%rbp), %rdx	# op1, tmp161
	movl	-92(%rbp), %eax	# mode, tmp162
	movq	%rdx, %rsi	# tmp161,
	movl	%eax, %edi	# tmp162,
	call	force_reg	#
	movq	%rax, -120(%rbp)	# tmp163, op1
.L398:
	.loc 1 1959 0
	cmpq	$0, -128(%rbp)	#, targ0
	je	.L399	#,
	.loc 1 1960 0
	movq	-128(%rbp), %rax	# targ0, tmp164
	movl	$1, %esi	#,
	movq	%rax, %rdi	# tmp164,
	call	protect_from_queue	#
	movq	%rax, -128(%rbp)	# tmp165, targ0
	jmp	.L400	#
.L399:
	.loc 1 1962 0
	movl	-92(%rbp), %eax	# mode, tmp166
	movl	%eax, %edi	# tmp166,
	call	gen_reg_rtx	#
	movq	%rax, -128(%rbp)	# tmp167, targ0
.L400:
	.loc 1 1963 0
	cmpq	$0, -136(%rbp)	#, targ1
	je	.L401	#,
	.loc 1 1964 0
	movq	-136(%rbp), %rax	# targ1, tmp168
	movl	$1, %esi	#,
	movq	%rax, %rdi	# tmp168,
	call	protect_from_queue	#
	movq	%rax, -136(%rbp)	# tmp169, targ1
	jmp	.L402	#
.L401:
	.loc 1 1966 0
	movl	-92(%rbp), %eax	# mode, tmp170
	movl	%eax, %edi	# tmp170,
	call	gen_reg_rtx	#
	movq	%rax, -136(%rbp)	# tmp171, targ1
.L402:
	.loc 1 1969 0
	call	get_last_insn	#
	movq	%rax, -48(%rbp)	# tmp172, last
	.loc 1 1971 0
	movl	-92(%rbp), %edx	# mode, mode.194
	movq	-104(%rbp), %rax	# binoptab, tmp173
	movslq	%edx, %rdx	# mode.194, tmp174
	salq	$4, %rdx	#, tmp175
	addq	%rdx, %rax	# tmp175, tmp176
	movl	8(%rax), %eax	# binoptab_39(D)->handlers[mode.194_60].insn_code, D.18082
	cmpl	$1317, %eax	#, D.18082
	je	.L403	#,
.LBB23:
	.loc 1 1973 0
	movl	-92(%rbp), %edx	# mode, mode.195
	movq	-104(%rbp), %rax	# binoptab, tmp177
	movslq	%edx, %rdx	# mode.195, tmp178
	salq	$4, %rdx	#, tmp179
	addq	%rdx, %rax	# tmp179, tmp180
	movl	8(%rax), %eax	# binoptab_39(D)->handlers[mode.195_62].insn_code, D.18082
	movl	%eax, -84(%rbp)	# D.18082, icode
	.loc 1 1974 0
	movl	-84(%rbp), %eax	# icode, tmp182
	movslq	%eax, %rdx	# tmp182, tmp181
	movq	%rdx, %rax	# tmp181, tmp183
	salq	$2, %rax	#, tmp183
	addq	%rdx, %rax	# tmp181, tmp183
	salq	$3, %rax	#, tmp184
	addq	$insn_data+24, %rax	#, tmp185
	movq	(%rax), %rax	# insn_data[icode_64].operand, D.18083
	addq	$24, %rax	#, D.18083
	movzwl	16(%rax), %eax	# _66->mode, D.18080
	movzwl	%ax, %eax	# D.18080, tmp186
	movl	%eax, -80(%rbp)	# tmp186, mode0
	.loc 1 1975 0
	movl	-84(%rbp), %eax	# icode, tmp188
	movslq	%eax, %rdx	# tmp188, tmp187
	movq	%rdx, %rax	# tmp187, tmp189
	salq	$2, %rax	#, tmp189
	addq	%rdx, %rax	# tmp187, tmp189
	salq	$3, %rax	#, tmp190
	addq	$insn_data+24, %rax	#, tmp191
	movq	(%rax), %rax	# insn_data[icode_64].operand, D.18083
	addq	$48, %rax	#, D.18083
	movzwl	16(%rax), %eax	# _70->mode, D.18080
	movzwl	%ax, %eax	# D.18080, tmp192
	movl	%eax, -76(%rbp)	# tmp192, mode1
	.loc 1 1977 0
	movq	-112(%rbp), %rax	# op0, tmp193
	movq	%rax, -72(%rbp)	# tmp193, xop0
	movq	-120(%rbp), %rax	# op1, tmp194
	movq	%rax, -64(%rbp)	# tmp194, xop1
	.loc 1 1981 0
	movq	-112(%rbp), %rax	# op0, tmp195
	movzbl	2(%rax), %eax	# op0_2->mode, D.18079
	testb	%al, %al	# D.18079
	je	.L404	#,
	.loc 1 1981 0 is_stmt 0 discriminator 1
	movq	-112(%rbp), %rax	# op0, tmp196
	movzbl	2(%rax), %eax	# op0_2->mode, D.18079
	movzbl	%al, %eax	# D.18079, D.18084
	cmpl	-80(%rbp), %eax	# mode0, D.18084
	je	.L404	#,
	.loc 1 1982 0 is_stmt 1
	movl	-140(%rbp), %edx	# unsignedp, tmp197
	movq	-72(%rbp), %rcx	# xop0, tmp198
	movl	-80(%rbp), %eax	# mode0, tmp199
	movq	%rcx, %rsi	# tmp198,
	movl	%eax, %edi	# tmp199,
	call	convert_to_mode	#
	movq	%rax, -72(%rbp)	# tmp200, xop0
.L404:
	.loc 1 1984 0
	movq	-120(%rbp), %rax	# op1, tmp201
	movzbl	2(%rax), %eax	# op1_4->mode, D.18079
	testb	%al, %al	# D.18079
	je	.L405	#,
	.loc 1 1984 0 is_stmt 0 discriminator 1
	movq	-120(%rbp), %rax	# op1, tmp202
	movzbl	2(%rax), %eax	# op1_4->mode, D.18079
	movzbl	%al, %eax	# D.18079, D.18084
	cmpl	-76(%rbp), %eax	# mode1, D.18084
	je	.L405	#,
	.loc 1 1985 0 is_stmt 1
	movl	-140(%rbp), %edx	# unsignedp, tmp203
	movq	-64(%rbp), %rcx	# xop1, tmp204
	movl	-76(%rbp), %eax	# mode1, tmp205
	movq	%rcx, %rsi	# tmp204,
	movl	%eax, %edi	# tmp205,
	call	convert_to_mode	#
	movq	%rax, -64(%rbp)	# tmp206, xop1
.L405:
	.loc 1 1988 0
	movl	-84(%rbp), %eax	# icode, tmp208
	movslq	%eax, %rdx	# tmp208, tmp207
	movq	%rdx, %rax	# tmp207, tmp209
	salq	$2, %rax	#, tmp209
	addq	%rdx, %rax	# tmp207, tmp209
	salq	$3, %rax	#, tmp210
	addq	$insn_data+24, %rax	#, tmp211
	movq	(%rax), %rax	# insn_data[icode_64].operand, D.18083
	addq	$24, %rax	#, D.18083
	movq	(%rax), %rax	# _85->predicate, D.18085
	movl	-80(%rbp), %ecx	# mode0, tmp212
	movq	-72(%rbp), %rdx	# xop0, tmp213
	movl	%ecx, %esi	# tmp212,
	movq	%rdx, %rdi	# tmp213,
	call	*%rax	# D.18085
	testl	%eax, %eax	# D.18078
	jne	.L406	#,
	.loc 1 1989 0
	movq	-72(%rbp), %rdx	# xop0, tmp214
	movl	-80(%rbp), %eax	# mode0, tmp215
	movq	%rdx, %rsi	# tmp214,
	movl	%eax, %edi	# tmp215,
	call	copy_to_mode_reg	#
	movq	%rax, -72(%rbp)	# tmp216, xop0
.L406:
	.loc 1 1991 0
	movl	-84(%rbp), %eax	# icode, tmp218
	movslq	%eax, %rdx	# tmp218, tmp217
	movq	%rdx, %rax	# tmp217, tmp219
	salq	$2, %rax	#, tmp219
	addq	%rdx, %rax	# tmp217, tmp219
	salq	$3, %rax	#, tmp220
	addq	$insn_data+24, %rax	#, tmp221
	movq	(%rax), %rax	# insn_data[icode_64].operand, D.18083
	addq	$48, %rax	#, D.18083
	movq	(%rax), %rax	# _90->predicate, D.18085
	movl	-76(%rbp), %ecx	# mode1, tmp222
	movq	-64(%rbp), %rdx	# xop1, tmp223
	movl	%ecx, %esi	# tmp222,
	movq	%rdx, %rdi	# tmp223,
	call	*%rax	# D.18085
	testl	%eax, %eax	# D.18078
	jne	.L407	#,
	.loc 1 1992 0
	movq	-64(%rbp), %rdx	# xop1, tmp224
	movl	-76(%rbp), %eax	# mode1, tmp225
	movq	%rdx, %rsi	# tmp224,
	movl	%eax, %edi	# tmp225,
	call	copy_to_mode_reg	#
	movq	%rax, -64(%rbp)	# tmp226, xop1
.L407:
	.loc 1 1996 0
	movl	-84(%rbp), %eax	# icode, tmp228
	movslq	%eax, %rdx	# tmp228, tmp227
	movq	%rdx, %rax	# tmp227, tmp229
	salq	$2, %rax	#, tmp229
	addq	%rdx, %rax	# tmp227, tmp229
	salq	$3, %rax	#, tmp230
	addq	$insn_data+24, %rax	#, tmp231
	movq	(%rax), %rax	# insn_data[icode_64].operand, D.18083
	movq	(%rax), %rax	# _94->predicate, D.18085
	movl	-92(%rbp), %ecx	# mode, tmp232
	movq	-128(%rbp), %rdx	# targ0, tmp233
	movl	%ecx, %esi	# tmp232,
	movq	%rdx, %rdi	# tmp233,
	call	*%rax	# D.18085
	testl	%eax, %eax	# D.18078
	je	.L408	#,
	.loc 1 1997 0
	movl	-84(%rbp), %eax	# icode, tmp235
	movslq	%eax, %rdx	# tmp235, tmp234
	movq	%rdx, %rax	# tmp234, tmp236
	salq	$2, %rax	#, tmp236
	addq	%rdx, %rax	# tmp234, tmp236
	salq	$3, %rax	#, tmp237
	addq	$insn_data+24, %rax	#, tmp238
	movq	(%rax), %rax	# insn_data[icode_64].operand, D.18083
	addq	$72, %rax	#, D.18083
	movq	(%rax), %rax	# _98->predicate, D.18085
	movl	-92(%rbp), %ecx	# mode, tmp239
	movq	-136(%rbp), %rdx	# targ1, tmp240
	movl	%ecx, %esi	# tmp239,
	movq	%rdx, %rdi	# tmp240,
	call	*%rax	# D.18085
	testl	%eax, %eax	# D.18078
	jne	.L409	#,
.L408:
	.loc 1 1998 0
	movl	$__FUNCTION__.13732, %edx	#,
	movl	$1998, %esi	#,
	movl	$.LC0, %edi	#,
	call	fancy_abort	#
.L409:
	.loc 1 2000 0
	movl	-84(%rbp), %eax	# icode, tmp242
	movslq	%eax, %rdx	# tmp242, tmp241
	movq	%rdx, %rax	# tmp241, tmp243
	salq	$2, %rax	#, tmp243
	addq	%rdx, %rax	# tmp241, tmp243
	salq	$3, %rax	#, tmp244
	addq	$insn_data+16, %rax	#, tmp245
	movq	(%rax), %r8	# insn_data[icode_64].genfun, D.18086
	movq	-136(%rbp), %rcx	# targ1, tmp246
	movq	-64(%rbp), %rdx	# xop1, tmp247
	movq	-72(%rbp), %rsi	# xop0, tmp248
	movq	-128(%rbp), %rax	# targ0, tmp249
	movq	%rax, %rdi	# tmp249,
	movl	$0, %eax	#,
	call	*%r8	# D.18086
	movq	%rax, -40(%rbp)	# tmp250, pat
	.loc 1 2001 0
	cmpq	$0, -40(%rbp)	#, pat
	je	.L410	#,
	.loc 1 2003 0
	movq	-40(%rbp), %rax	# pat, tmp251
	movq	%rax, %rdi	# tmp251,
	call	emit_insn	#
	.loc 1 2004 0
	movl	$1, %eax	#, D.18078
	jmp	.L411	#
.L410:
	.loc 1 2007 0
	movq	-48(%rbp), %rax	# last, tmp252
	movq	%rax, %rdi	# tmp252,
	call	delete_insns_since	#
.L403:
.LBE23:
	.loc 1 2012 0
	cmpl	$1, -88(%rbp)	#, class
	je	.L412	#,
	.loc 1 2012 0 is_stmt 0 discriminator 1
	cmpl	$2, -88(%rbp)	#, class
	je	.L412	#,
	cmpl	$6, -88(%rbp)	#, class
	jne	.L413	#,
.L412:
	.loc 1 2014 0 is_stmt 1
	movl	-92(%rbp), %eax	# mode, mode.196
	cltq
	movzbl	mode_wider_mode(%rax), %eax	# mode_wider_mode, D.18079
	movzbl	%al, %eax	# D.18079, tmp254
	movl	%eax, -96(%rbp)	# tmp254, wider_mode
	jmp	.L414	#
.L417:
	.loc 1 2017 0
	movl	-96(%rbp), %edx	# wider_mode, wider_mode.197
	movq	-104(%rbp), %rax	# binoptab, tmp255
	movslq	%edx, %rdx	# wider_mode.197, tmp256
	salq	$4, %rdx	#, tmp257
	addq	%rdx, %rax	# tmp257, tmp258
	movl	8(%rax), %eax	# binoptab_39(D)->handlers[wider_mode.197_107].insn_code, D.18082
	cmpl	$1317, %eax	#, D.18082
	je	.L415	#,
.LBB24:
	.loc 1 2020 0
	movl	-96(%rbp), %eax	# wider_mode, tmp259
	movl	%eax, %edi	# tmp259,
	call	gen_reg_rtx	#
	movq	%rax, -32(%rbp)	# tmp260, t0
	.loc 1 2021 0
	movl	-96(%rbp), %eax	# wider_mode, tmp261
	movl	%eax, %edi	# tmp261,
	call	gen_reg_rtx	#
	movq	%rax, -24(%rbp)	# tmp262, t1
	.loc 1 2022 0
	movl	-140(%rbp), %ecx	# unsignedp, tmp263
	movq	-112(%rbp), %rdx	# op0, tmp264
	movl	-92(%rbp), %esi	# mode, tmp265
	movl	-96(%rbp), %eax	# wider_mode, tmp266
	movl	%eax, %edi	# tmp266,
	call	convert_modes	#
	movq	%rax, -16(%rbp)	# tmp267, cop0
	.loc 1 2023 0
	movl	-140(%rbp), %ecx	# unsignedp, tmp268
	movq	-120(%rbp), %rdx	# op1, tmp269
	movl	-92(%rbp), %esi	# mode, tmp270
	movl	-96(%rbp), %eax	# wider_mode, tmp271
	movl	%eax, %edi	# tmp271,
	call	convert_modes	#
	movq	%rax, -8(%rbp)	# tmp272, cop1
	.loc 1 2025 0
	movl	-140(%rbp), %r8d	# unsignedp, tmp273
	movq	-24(%rbp), %rdi	# t1, tmp274
	movq	-32(%rbp), %rcx	# t0, tmp275
	movq	-8(%rbp), %rdx	# cop1, tmp276
	movq	-16(%rbp), %rsi	# cop0, tmp277
	movq	-104(%rbp), %rax	# binoptab, tmp278
	movl	%r8d, %r9d	# tmp273,
	movq	%rdi, %r8	# tmp274,
	movq	%rax, %rdi	# tmp278,
	call	expand_twoval_binop	#
	testl	%eax, %eax	# D.18078
	je	.L416	#,
	.loc 1 2028 0
	movl	-140(%rbp), %edx	# unsignedp, tmp279
	movq	-32(%rbp), %rcx	# t0, tmp280
	movq	-128(%rbp), %rax	# targ0, tmp281
	movq	%rcx, %rsi	# tmp280,
	movq	%rax, %rdi	# tmp281,
	call	convert_move	#
	.loc 1 2029 0
	movl	-140(%rbp), %edx	# unsignedp, tmp282
	movq	-24(%rbp), %rcx	# t1, tmp283
	movq	-136(%rbp), %rax	# targ1, tmp284
	movq	%rcx, %rsi	# tmp283,
	movq	%rax, %rdi	# tmp284,
	call	convert_move	#
	.loc 1 2030 0
	movl	$1, %eax	#, D.18078
	jmp	.L411	#
.L416:
	.loc 1 2033 0
	movq	-48(%rbp), %rax	# last, tmp285
	movq	%rax, %rdi	# tmp285,
	call	delete_insns_since	#
.L415:
.LBE24:
	.loc 1 2015 0
	movl	-96(%rbp), %eax	# wider_mode, wider_mode.198
	cltq
	movzbl	mode_wider_mode(%rax), %eax	# mode_wider_mode, D.18079
	movzbl	%al, %eax	# D.18079, tmp287
	movl	%eax, -96(%rbp)	# tmp287, wider_mode
.L414:
	.loc 1 2014 0 discriminator 1
	cmpl	$0, -96(%rbp)	#, wider_mode
	jne	.L417	#,
.L413:
	.loc 1 2038 0
	movq	-56(%rbp), %rax	# entry_last, tmp288
	movq	%rax, %rdi	# tmp288,
	call	delete_insns_since	#
	.loc 1 2039 0
	movl	$0, %eax	#, D.18078
.L411:
	.loc 1 2040 0
	leave
	.cfi_def_cfa 7, 8
	ret
	.cfi_endproc
.LFE9:
	.size	expand_twoval_binop, .-expand_twoval_binop
	.globl	expand_simple_unop
	.type	expand_simple_unop, @function
expand_simple_unop:
.LFB10:
	.loc 1 2052 0
	.cfi_startproc
	pushq	%rbp	#
	.cfi_def_cfa_offset 16
	.cfi_offset 6, -16
	movq	%rsp, %rbp	#,
	.cfi_def_cfa_register 6
	subq	$48, %rsp	#,
	movl	%edi, -20(%rbp)	# mode, mode
	movl	%esi, -24(%rbp)	# code, code
	movq	%rdx, -32(%rbp)	# op0, op0
	movq	%rcx, -40(%rbp)	# target, target
	movl	%r8d, -44(%rbp)	# unsignedp, unsignedp
	.loc 1 2053 0
	movl	-24(%rbp), %eax	# code, code.199
	cltq
	movq	code_to_optab(,%rax,8), %rax	# code_to_optab, tmp63
	movq	%rax, -8(%rbp)	# tmp63, unop
	.loc 1 2054 0
	cmpq	$0, -8(%rbp)	#, unop
	jne	.L419	#,
	.loc 1 2055 0
	movl	$__FUNCTION__.13748, %edx	#,
	movl	$2055, %esi	#,
	movl	$.LC0, %edi	#,
	call	fancy_abort	#
.L419:
	.loc 1 2057 0
	movl	-44(%rbp), %edi	# unsignedp, tmp64
	movq	-40(%rbp), %rcx	# target, tmp65
	movq	-32(%rbp), %rdx	# op0, tmp66
	movq	-8(%rbp), %rsi	# unop, tmp67
	movl	-20(%rbp), %eax	# mode, tmp68
	movl	%edi, %r8d	# tmp64,
	movl	%eax, %edi	# tmp68,
	call	expand_unop	#
	.loc 1 2058 0
	leave
	.cfi_def_cfa 7, 8
	ret
	.cfi_endproc
.LFE10:
	.size	expand_simple_unop, .-expand_simple_unop
	.globl	expand_unop
	.type	expand_unop, @function
expand_unop:
.LFB11:
	.loc 1 2078 0
	.cfi_startproc
	pushq	%rbp	#
	.cfi_def_cfa_offset 16
	.cfi_offset 6, -16
	movq	%rsp, %rbp	#,
	.cfi_def_cfa_register 6
	pushq	%rbx	#
	subq	$200, %rsp	#,
	.cfi_offset 3, -24
	movl	%edi, -164(%rbp)	# mode, mode
	movq	%rsi, -176(%rbp)	# unoptab, unoptab
	movq	%rdx, -184(%rbp)	# op0, op0
	movq	%rcx, -192(%rbp)	# target, target
	movl	%r8d, -168(%rbp)	# unsignedp, unsignedp
	.loc 1 2082 0
	call	get_last_insn	#
	movq	%rax, -120(%rbp)	# tmp151, last
	.loc 1 2085 0
	movl	-164(%rbp), %eax	# mode, mode.200
	cltq
	movl	mode_class(,%rax,4), %eax	# mode_class, tmp153
	movl	%eax, -152(%rbp)	# tmp153, class
	.loc 1 2087 0
	movq	-184(%rbp), %rax	# op0, tmp154
	movl	$0, %esi	#,
	movq	%rax, %rdi	# tmp154,
	call	protect_from_queue	#
	movq	%rax, -184(%rbp)	# tmp155, op0
	.loc 1 2089 0
	movl	flag_force_mem(%rip), %eax	# flag_force_mem, flag_force_mem.201
	testl	%eax, %eax	# flag_force_mem.201
	je	.L422	#,
	.loc 1 2091 0
	movq	-184(%rbp), %rax	# op0, tmp156
	movq	%rax, %rdi	# tmp156,
	call	force_not_mem	#
	movq	%rax, -184(%rbp)	# tmp157, op0
.L422:
	.loc 1 2094 0
	cmpq	$0, -192(%rbp)	#, target
	je	.L423	#,
	.loc 1 2095 0
	movq	-192(%rbp), %rax	# target, tmp158
	movl	$1, %esi	#,
	movq	%rax, %rdi	# tmp158,
	call	protect_from_queue	#
	movq	%rax, -192(%rbp)	# tmp159, target
.L423:
	.loc 1 2097 0
	movl	-164(%rbp), %edx	# mode, mode.202
	movq	-176(%rbp), %rax	# unoptab, tmp160
	movslq	%edx, %rdx	# mode.202, tmp161
	salq	$4, %rdx	#, tmp162
	addq	%rdx, %rax	# tmp162, tmp163
	movl	8(%rax), %eax	# unoptab_32(D)->handlers[mode.202_31].insn_code, D.18089
	cmpl	$1317, %eax	#, D.18089
	je	.L424	#,
.LBB25:
	.loc 1 2099 0
	movl	-164(%rbp), %edx	# mode, mode.203
	movq	-176(%rbp), %rax	# unoptab, tmp164
	movslq	%edx, %rdx	# mode.203, tmp165
	salq	$4, %rdx	#, tmp166
	addq	%rdx, %rax	# tmp166, tmp167
	movl	8(%rax), %eax	# unoptab_32(D)->handlers[mode.203_34].insn_code, D.18089
	movl	%eax, -148(%rbp)	# D.18089, icode
	.loc 1 2100 0
	movl	-148(%rbp), %eax	# icode, tmp169
	movslq	%eax, %rdx	# tmp169, tmp168
	movq	%rdx, %rax	# tmp168, tmp170
	salq	$2, %rax	#, tmp170
	addq	%rdx, %rax	# tmp168, tmp170
	salq	$3, %rax	#, tmp171
	addq	$insn_data+24, %rax	#, tmp172
	movq	(%rax), %rax	# insn_data[icode_36].operand, D.18090
	addq	$24, %rax	#, D.18090
	movzwl	16(%rax), %eax	# _38->mode, D.18091
	movzwl	%ax, %eax	# D.18091, tmp173
	movl	%eax, -144(%rbp)	# tmp173, mode0
	.loc 1 2101 0
	movq	-184(%rbp), %rax	# op0, tmp174
	movq	%rax, -128(%rbp)	# tmp174, xop0
	.loc 1 2103 0
	cmpq	$0, -192(%rbp)	#, target
	je	.L425	#,
	.loc 1 2104 0
	movq	-192(%rbp), %rax	# target, tmp175
	movq	%rax, -136(%rbp)	# tmp175, temp
	jmp	.L426	#
.L425:
	.loc 1 2106 0
	movl	-164(%rbp), %eax	# mode, tmp176
	movl	%eax, %edi	# tmp176,
	call	gen_reg_rtx	#
	movq	%rax, -136(%rbp)	# tmp177, temp
.L426:
	.loc 1 2108 0
	movq	-128(%rbp), %rax	# xop0, tmp178
	movzbl	2(%rax), %eax	# xop0_41->mode, D.18092
	testb	%al, %al	# D.18092
	je	.L427	#,
	.loc 1 2109 0
	movq	-128(%rbp), %rax	# xop0, tmp179
	movzbl	2(%rax), %eax	# xop0_41->mode, D.18092
	movzbl	%al, %eax	# D.18092, D.18093
	cmpl	-144(%rbp), %eax	# mode0, D.18093
	je	.L427	#,
	.loc 1 2110 0
	movl	-168(%rbp), %edx	# unsignedp, tmp180
	movq	-128(%rbp), %rcx	# xop0, tmp181
	movl	-144(%rbp), %eax	# mode0, tmp182
	movq	%rcx, %rsi	# tmp181,
	movl	%eax, %edi	# tmp182,
	call	convert_to_mode	#
	movq	%rax, -128(%rbp)	# tmp183, xop0
.L427:
	.loc 1 2114 0
	movl	-148(%rbp), %eax	# icode, tmp185
	movslq	%eax, %rdx	# tmp185, tmp184
	movq	%rdx, %rax	# tmp184, tmp186
	salq	$2, %rax	#, tmp186
	addq	%rdx, %rax	# tmp184, tmp186
	salq	$3, %rax	#, tmp187
	addq	$insn_data+24, %rax	#, tmp188
	movq	(%rax), %rax	# insn_data[icode_36].operand, D.18090
	addq	$24, %rax	#, D.18090
	movq	(%rax), %rax	# _50->predicate, D.18094
	movl	-144(%rbp), %ecx	# mode0, tmp189
	movq	-128(%rbp), %rdx	# xop0, tmp190
	movl	%ecx, %esi	# tmp189,
	movq	%rdx, %rdi	# tmp190,
	call	*%rax	# D.18094
	testl	%eax, %eax	# D.18095
	jne	.L428	#,
	.loc 1 2115 0
	movq	-128(%rbp), %rdx	# xop0, tmp191
	movl	-144(%rbp), %eax	# mode0, tmp192
	movq	%rdx, %rsi	# tmp191,
	movl	%eax, %edi	# tmp192,
	call	copy_to_mode_reg	#
	movq	%rax, -128(%rbp)	# tmp193, xop0
.L428:
	.loc 1 2117 0
	movl	-148(%rbp), %eax	# icode, tmp195
	movslq	%eax, %rdx	# tmp195, tmp194
	movq	%rdx, %rax	# tmp194, tmp196
	salq	$2, %rax	#, tmp196
	addq	%rdx, %rax	# tmp194, tmp196
	salq	$3, %rax	#, tmp197
	addq	$insn_data+24, %rax	#, tmp198
	movq	(%rax), %rax	# insn_data[icode_36].operand, D.18090
	movq	(%rax), %rax	# _54->predicate, D.18094
	movl	-164(%rbp), %ecx	# mode, tmp199
	movq	-136(%rbp), %rdx	# temp, tmp200
	movl	%ecx, %esi	# tmp199,
	movq	%rdx, %rdi	# tmp200,
	call	*%rax	# D.18094
	testl	%eax, %eax	# D.18095
	jne	.L429	#,
	.loc 1 2118 0
	movl	-164(%rbp), %eax	# mode, tmp201
	movl	%eax, %edi	# tmp201,
	call	gen_reg_rtx	#
	movq	%rax, -136(%rbp)	# tmp202, temp
.L429:
	.loc 1 2120 0
	movl	-148(%rbp), %eax	# icode, tmp204
	movslq	%eax, %rdx	# tmp204, tmp203
	movq	%rdx, %rax	# tmp203, tmp205
	salq	$2, %rax	#, tmp205
	addq	%rdx, %rax	# tmp203, tmp205
	salq	$3, %rax	#, tmp206
	addq	$insn_data+16, %rax	#, tmp207
	movq	(%rax), %rdx	# insn_data[icode_36].genfun, D.18096
	movq	-128(%rbp), %rcx	# xop0, tmp208
	movq	-136(%rbp), %rax	# temp, tmp209
	movq	%rcx, %rsi	# tmp208,
	movq	%rax, %rdi	# tmp209,
	movl	$0, %eax	#,
	call	*%rdx	# D.18096
	movq	%rax, -112(%rbp)	# tmp210, pat
	.loc 1 2121 0
	cmpq	$0, -112(%rbp)	#, pat
	je	.L430	#,
	.loc 1 2123 0
	movq	-112(%rbp), %rax	# pat, tmp211
	movzwl	(%rax), %eax	# pat_59->code, D.18091
	cmpw	$24, %ax	#, D.18091
	jne	.L431	#,
	.loc 1 2124 0
	movq	-176(%rbp), %rax	# unoptab, tmp212
	movl	(%rax), %edx	# unoptab_32(D)->code, D.18097
	movq	-128(%rbp), %rcx	# xop0, tmp213
	movq	-136(%rbp), %rsi	# temp, tmp214
	movq	-112(%rbp), %rax	# pat, tmp215
	movl	$0, %r8d	#,
	movq	%rax, %rdi	# tmp215,
	call	add_equal_note	#
	testl	%eax, %eax	# D.18095
	jne	.L431	#,
	.loc 1 2126 0
	movq	-120(%rbp), %rax	# last, tmp216
	movq	%rax, %rdi	# tmp216,
	call	delete_insns_since	#
	.loc 1 2127 0
	movl	-168(%rbp), %ecx	# unsignedp, tmp217
	movq	-184(%rbp), %rdx	# op0, tmp218
	movq	-176(%rbp), %rsi	# unoptab, tmp219
	movl	-164(%rbp), %eax	# mode, tmp220
	movl	%ecx, %r8d	# tmp217,
	movl	$0, %ecx	#,
	movl	%eax, %edi	# tmp220,
	call	expand_unop	#
	jmp	.L432	#
.L431:
	.loc 1 2130 0
	movq	-112(%rbp), %rax	# pat, tmp221
	movq	%rax, %rdi	# tmp221,
	call	emit_insn	#
	.loc 1 2132 0
	movq	-136(%rbp), %rax	# temp, D.18088
	jmp	.L432	#
.L430:
	.loc 1 2135 0
	movq	-120(%rbp), %rax	# last, tmp222
	movq	%rax, %rdi	# tmp222,
	call	delete_insns_since	#
.L424:
.LBE25:
	.loc 1 2140 0
	cmpl	$1, -152(%rbp)	#, class
	je	.L433	#,
	.loc 1 2140 0 is_stmt 0 discriminator 1
	cmpl	$2, -152(%rbp)	#, class
	je	.L433	#,
	cmpl	$6, -152(%rbp)	#, class
	jne	.L434	#,
.L433:
	.loc 1 2141 0 is_stmt 1
	movl	-164(%rbp), %eax	# mode, mode.204
	cltq
	movzbl	mode_wider_mode(%rax), %eax	# mode_wider_mode, D.18092
	movzbl	%al, %eax	# D.18092, tmp224
	movl	%eax, -160(%rbp)	# tmp224, wider_mode
	jmp	.L435	#
.L443:
	.loc 1 2144 0
	movl	-160(%rbp), %edx	# wider_mode, wider_mode.205
	movq	-176(%rbp), %rax	# unoptab, tmp225
	movslq	%edx, %rdx	# wider_mode.205, tmp226
	salq	$4, %rdx	#, tmp227
	addq	%rdx, %rax	# tmp227, tmp228
	movl	8(%rax), %eax	# unoptab_32(D)->handlers[wider_mode.205_68].insn_code, D.18089
	cmpl	$1317, %eax	#, D.18089
	je	.L436	#,
.LBB26:
	.loc 1 2146 0
	movq	-184(%rbp), %rax	# op0, tmp229
	movq	%rax, -104(%rbp)	# tmp229, xop0
	.loc 1 2153 0
	movq	optab_table+256(%rip), %rax	# optab_table, D.18098
	.loc 1 2152 0
	cmpq	-176(%rbp), %rax	# unoptab, D.18098
	je	.L437	#,
	.loc 1 2154 0
	movq	optab_table+288(%rip), %rax	# optab_table, D.18098
	cmpq	-176(%rbp), %rax	# unoptab, D.18098
	jne	.L438	#,
.L437:
	.loc 1 2152 0 discriminator 1
	cmpl	$1, -152(%rbp)	#, class
	jne	.L438	#,
	.loc 1 2152 0 is_stmt 0 discriminator 2
	movl	$1, %eax	#, iftmp.206
	jmp	.L439	#
.L438:
	.loc 1 2152 0 discriminator 3
	movl	$0, %eax	#, iftmp.206
.L439:
	.loc 1 2152 0 discriminator 4
	movl	-168(%rbp), %ecx	# unsignedp, tmp230
	movl	-164(%rbp), %edx	# mode, tmp231
	movl	-160(%rbp), %esi	# wider_mode, tmp232
	movq	-104(%rbp), %rdi	# xop0, tmp233
	movl	%eax, %r8d	# iftmp.206,
	call	widen_operand	#
	movq	%rax, -104(%rbp)	# tmp234, xop0
	.loc 1 2157 0 is_stmt 1 discriminator 4
	movl	-168(%rbp), %ecx	# unsignedp, tmp235
	movq	-104(%rbp), %rdx	# xop0, tmp236
	movq	-176(%rbp), %rsi	# unoptab, tmp237
	movl	-160(%rbp), %eax	# wider_mode, tmp238
	movl	%ecx, %r8d	# tmp235,
	movl	$0, %ecx	#,
	movl	%eax, %edi	# tmp238,
	call	expand_unop	#
	movq	%rax, -136(%rbp)	# tmp239, temp
	.loc 1 2160 0 discriminator 4
	cmpq	$0, -136(%rbp)	#, temp
	je	.L440	#,
	.loc 1 2162 0
	cmpl	$1, -152(%rbp)	#, class
	je	.L441	#,
	.loc 1 2164 0
	cmpq	$0, -192(%rbp)	#, target
	jne	.L442	#,
	.loc 1 2165 0
	movl	-164(%rbp), %eax	# mode, tmp240
	movl	%eax, %edi	# tmp240,
	call	gen_reg_rtx	#
	movq	%rax, -192(%rbp)	# tmp241, target
.L442:
	.loc 1 2166 0
	movq	-136(%rbp), %rcx	# temp, tmp242
	movq	-192(%rbp), %rax	# target, tmp243
	movl	$0, %edx	#,
	movq	%rcx, %rsi	# tmp242,
	movq	%rax, %rdi	# tmp243,
	call	convert_move	#
	.loc 1 2167 0
	movq	-192(%rbp), %rax	# target, D.18088
	jmp	.L432	#
.L441:
	.loc 1 2170 0
	movq	-136(%rbp), %rdx	# temp, tmp244
	movl	-164(%rbp), %eax	# mode, tmp245
	movq	%rdx, %rsi	# tmp244,
	movl	%eax, %edi	# tmp245,
	call	gen_lowpart	#
	jmp	.L432	#
.L440:
	.loc 1 2173 0
	movq	-120(%rbp), %rax	# last, tmp246
	movq	%rax, %rdi	# tmp246,
	call	delete_insns_since	#
.L436:
.LBE26:
	.loc 1 2142 0
	movl	-160(%rbp), %eax	# wider_mode, wider_mode.207
	cltq
	movzbl	mode_wider_mode(%rax), %eax	# mode_wider_mode, D.18092
	movzbl	%al, %eax	# D.18092, tmp248
	movl	%eax, -160(%rbp)	# tmp248, wider_mode
.L435:
	.loc 1 2141 0 discriminator 1
	cmpl	$0, -160(%rbp)	#, wider_mode
	jne	.L443	#,
.L434:
	.loc 1 2178 0
	movq	optab_table+288(%rip), %rax	# optab_table, D.18098
	cmpq	-176(%rbp), %rax	# unoptab, D.18098
	jne	.L444	#,
	.loc 1 2179 0
	cmpl	$1, -152(%rbp)	#, class
	jne	.L444	#,
	.loc 1 2180 0
	movl	-164(%rbp), %eax	# mode, mode.208
	cltq
	movzbl	mode_size(%rax), %eax	# mode_size, D.18092
	movzbl	%al, %edx	# D.18092, D.18095
	movl	target_flags(%rip), %eax	# target_flags, target_flags.210
	andl	$33554432, %eax	#, D.18095
	testl	%eax, %eax	# D.18095
	je	.L445	#,
	.loc 1 2180 0 is_stmt 0 discriminator 1
	movl	$8, %eax	#, iftmp.209
	jmp	.L446	#
.L445:
	.loc 1 2180 0 discriminator 2
	movl	$4, %eax	#, iftmp.209
.L446:
	.loc 1 2180 0 discriminator 3
	cmpl	%eax, %edx	# iftmp.209, D.18095
	jle	.L444	#,
	.loc 1 2181 0 is_stmt 1
	movl	word_mode(%rip), %eax	# word_mode, word_mode.211
	movl	%eax, %edx	# word_mode.211, word_mode.212
	movq	-176(%rbp), %rax	# unoptab, tmp250
	movslq	%edx, %rdx	# word_mode.212, tmp251
	salq	$4, %rdx	#, tmp252
	addq	%rdx, %rax	# tmp252, tmp253
	movl	8(%rax), %eax	# unoptab_32(D)->handlers[word_mode.212_92].insn_code, D.18089
	cmpl	$1317, %eax	#, D.18089
	je	.L444	#,
.LBB27:
	.loc 1 2186 0
	cmpq	$0, -192(%rbp)	#, target
	je	.L447	#,
	.loc 1 2186 0 is_stmt 0 discriminator 1
	movq	-192(%rbp), %rax	# target, tmp254
	cmpq	-184(%rbp), %rax	# op0, tmp254
	jne	.L448	#,
.L447:
	.loc 1 2187 0 is_stmt 1
	movl	-164(%rbp), %eax	# mode, tmp255
	movl	%eax, %edi	# tmp255,
	call	gen_reg_rtx	#
	movq	%rax, -192(%rbp)	# tmp256, target
.L448:
	.loc 1 2189 0
	call	start_sequence	#
	.loc 1 2192 0
	movl	$0, -156(%rbp)	#, i
	jmp	.L449	#
.L453:
.LBB28:
	.loc 1 2194 0
	movl	-156(%rbp), %esi	# i, i.213
	movl	-164(%rbp), %edx	# mode, tmp257
	movq	-192(%rbp), %rax	# target, tmp258
	movl	%edx, %ecx	# tmp257,
	movl	$1, %edx	#,
	movq	%rax, %rdi	# tmp258,
	call	operand_subword	#
	movq	%rax, -96(%rbp)	# tmp259, target_piece
	.loc 1 2195 0
	movl	-156(%rbp), %ecx	# i, i.214
	movl	-164(%rbp), %edx	# mode, tmp260
	movq	-184(%rbp), %rax	# op0, tmp261
	movl	%ecx, %esi	# i.214,
	movq	%rax, %rdi	# tmp261,
	call	operand_subword_force	#
	movq	%rax, %rdx	#, D.18099
	movl	word_mode(%rip), %eax	# word_mode, word_mode.215
	movl	-168(%rbp), %edi	# unsignedp, tmp262
	movq	-96(%rbp), %rcx	# target_piece, tmp263
	movq	-176(%rbp), %rsi	# unoptab, tmp264
	movl	%edi, %r8d	# tmp262,
	movl	%eax, %edi	# word_mode.215,
	call	expand_unop	#
	movq	%rax, -88(%rbp)	# tmp265, x
	.loc 1 2199 0
	movq	-96(%rbp), %rax	# target_piece, tmp266
	cmpq	-88(%rbp), %rax	# x, tmp266
	je	.L450	#,
	.loc 1 2200 0
	movq	-88(%rbp), %rdx	# x, tmp267
	movq	-96(%rbp), %rax	# target_piece, tmp268
	movq	%rdx, %rsi	# tmp267,
	movq	%rax, %rdi	# tmp268,
	call	emit_move_insn	#
.L450:
.LBE28:
	.loc 1 2192 0
	addl	$1, -156(%rbp)	#, i
.L449:
	.loc 1 2192 0 is_stmt 0 discriminator 1
	movl	-164(%rbp), %eax	# mode, mode.216
	cltq
	movzwl	mode_bitsize(%rax,%rax), %eax	# mode_bitsize, D.18091
	movzwl	%ax, %eax	# D.18091, D.18095
	movl	target_flags(%rip), %edx	# target_flags, target_flags.218
	andl	$33554432, %edx	#, D.18095
	testl	%edx, %edx	# D.18095
	je	.L451	#,
	movl	$64, %ebx	#, iftmp.217
	jmp	.L452	#
.L451:
	.loc 1 2192 0 discriminator 2
	movl	$32, %ebx	#, iftmp.217
.L452:
	.loc 1 2192 0 discriminator 3
	cltd
	idivl	%ebx	# iftmp.217
	cmpl	-156(%rbp), %eax	# i, D.18095
	jg	.L453	#,
	.loc 1 2203 0 is_stmt 1
	call	get_insns	#
	movq	%rax, -80(%rbp)	# tmp272, insns
	.loc 1 2204 0
	call	end_sequence	#
	.loc 1 2206 0
	movq	-184(%rbp), %rax	# op0, tmp273
	movq	%rax, %rdi	# tmp273,
	call	copy_rtx	#
	movq	%rax, %rdx	#, D.18099
	movq	-176(%rbp), %rax	# unoptab, tmp274
	movl	(%rax), %eax	# unoptab_32(D)->code, D.18097
	movl	-164(%rbp), %ecx	# mode, tmp275
	movl	%ecx, %esi	# tmp275,
	movl	%eax, %edi	# D.18097,
	call	gen_rtx_fmt_e	#
	movq	%rax, %rcx	#, D.18099
	movq	-184(%rbp), %rdx	# op0, tmp276
	movq	-192(%rbp), %rsi	# target, tmp277
	movq	-80(%rbp), %rax	# insns, tmp278
	movq	%rcx, %r8	# D.18099,
	movl	$0, %ecx	#,
	movq	%rax, %rdi	# tmp278,
	call	emit_no_conflict_block	#
	.loc 1 2209 0
	movq	-192(%rbp), %rax	# target, D.18088
	jmp	.L432	#
.L444:
.LBE27:
	.loc 1 2213 0
	movq	-176(%rbp), %rax	# unoptab, tmp279
	movl	(%rax), %eax	# unoptab_32(D)->code, D.18097
	cmpl	$77, %eax	#, D.18097
	jne	.L454	#,
	.loc 1 2214 0
	cmpl	$6, -152(%rbp)	#, class
	je	.L455	#,
	.loc 1 2214 0 is_stmt 0 discriminator 1
	cmpl	$5, -152(%rbp)	#, class
	jne	.L454	#,
.L455:
.LBB29:
	.loc 1 2222 0 is_stmt 1
	cmpl	$5, -152(%rbp)	#, class
	jne	.L456	#,
	.loc 1 2222 0 is_stmt 0 discriminator 1
	movl	$1, %eax	#, iftmp.219
	jmp	.L457	#
.L456:
	.loc 1 2222 0 discriminator 2
	movl	$2, %eax	#, iftmp.219
.L457:
	.loc 1 2222 0 discriminator 3
	movl	-164(%rbp), %edx	# mode, mode.220
	movslq	%edx, %rdx	# mode.220, tmp280
	movzbl	mode_unit_size(%rdx), %edx	# mode_unit_size, D.18092
	movzbl	%dl, %edx	# D.18092, D.18095
	sall	$3, %edx	#, D.18095
	movl	%edx, %ecx	# D.18095, D.18093
	.loc 1 2221 0 is_stmt 1 discriminator 3
	movl	$0, %edx	#,
	movl	%eax, %esi	# iftmp.219,
	movl	%ecx, %edi	# D.18093,
	call	mode_for_size	#
	movl	%eax, -140(%rbp)	# tmp281, submode
	.loc 1 2226 0 discriminator 3
	cmpl	$51, -140(%rbp)	#, submode
	jne	.L458	#,
	.loc 1 2227 0
	movl	$__FUNCTION__.13779, %edx	#,
	movl	$2227, %esi	#,
	movl	$.LC0, %edi	#,
	call	fancy_abort	#
.L458:
	.loc 1 2229 0
	cmpq	$0, -192(%rbp)	#, target
	jne	.L459	#,
	.loc 1 2230 0
	movl	-164(%rbp), %eax	# mode, tmp282
	movl	%eax, %edi	# tmp282,
	call	gen_reg_rtx	#
	movq	%rax, -192(%rbp)	# tmp283, target
.L459:
	.loc 1 2232 0
	call	start_sequence	#
	.loc 1 2234 0
	movq	-192(%rbp), %rdx	# target, tmp284
	movl	-140(%rbp), %eax	# submode, tmp285
	movq	%rdx, %rsi	# tmp284,
	movl	%eax, %edi	# tmp285,
	call	gen_imagpart	#
	movq	%rax, -72(%rbp)	# tmp286, target_piece
	.loc 1 2235 0
	movq	-184(%rbp), %rdx	# op0, tmp287
	movl	-140(%rbp), %eax	# submode, tmp288
	movq	%rdx, %rsi	# tmp287,
	movl	%eax, %edi	# tmp288,
	call	gen_imagpart	#
	movq	%rax, %rdx	#, D.18099
	movl	-168(%rbp), %edi	# unsignedp, tmp289
	movq	-72(%rbp), %rcx	# target_piece, tmp290
	movq	-176(%rbp), %rsi	# unoptab, tmp291
	movl	-140(%rbp), %eax	# submode, tmp292
	movl	%edi, %r8d	# tmp289,
	movl	%eax, %edi	# tmp292,
	call	expand_unop	#
	movq	%rax, -64(%rbp)	# tmp293, x
	.loc 1 2238 0
	movq	-72(%rbp), %rax	# target_piece, tmp294
	cmpq	-64(%rbp), %rax	# x, tmp294
	je	.L460	#,
	.loc 1 2239 0
	movq	-64(%rbp), %rdx	# x, tmp295
	movq	-72(%rbp), %rax	# target_piece, tmp296
	movq	%rdx, %rsi	# tmp295,
	movq	%rax, %rdi	# tmp296,
	call	emit_move_insn	#
.L460:
	.loc 1 2241 0
	movq	-192(%rbp), %rdx	# target, tmp297
	movl	-140(%rbp), %eax	# submode, tmp298
	movq	%rdx, %rsi	# tmp297,
	movl	%eax, %edi	# tmp298,
	call	gen_realpart	#
	movq	%rax, -72(%rbp)	# tmp299, target_piece
	.loc 1 2242 0
	movq	-184(%rbp), %rdx	# op0, tmp300
	movl	-140(%rbp), %eax	# submode, tmp301
	movq	%rdx, %rsi	# tmp300,
	movl	%eax, %edi	# tmp301,
	call	gen_realpart	#
	movq	%rax, %rdx	#, D.18099
	movl	-168(%rbp), %edi	# unsignedp, tmp302
	movq	-72(%rbp), %rcx	# target_piece, tmp303
	movq	-176(%rbp), %rsi	# unoptab, tmp304
	movl	-140(%rbp), %eax	# submode, tmp305
	movl	%edi, %r8d	# tmp302,
	movl	%eax, %edi	# tmp305,
	call	expand_unop	#
	movq	%rax, -64(%rbp)	# tmp306, x
	.loc 1 2245 0
	movq	-72(%rbp), %rax	# target_piece, tmp307
	cmpq	-64(%rbp), %rax	# x, tmp307
	je	.L461	#,
	.loc 1 2246 0
	movq	-64(%rbp), %rdx	# x, tmp308
	movq	-72(%rbp), %rax	# target_piece, tmp309
	movq	%rdx, %rsi	# tmp308,
	movq	%rax, %rdi	# tmp309,
	call	emit_move_insn	#
.L461:
	.loc 1 2248 0
	call	get_insns	#
	movq	%rax, -56(%rbp)	# tmp310, seq
	.loc 1 2249 0
	call	end_sequence	#
	.loc 1 2251 0
	movq	-184(%rbp), %rax	# op0, tmp311
	movq	%rax, %rdi	# tmp311,
	call	copy_rtx	#
	movq	%rax, %rdx	#, D.18099
	movq	-176(%rbp), %rax	# unoptab, tmp312
	movl	(%rax), %eax	# unoptab_32(D)->code, D.18097
	movl	-164(%rbp), %ecx	# mode, tmp313
	movl	%ecx, %esi	# tmp313,
	movl	%eax, %edi	# D.18097,
	call	gen_rtx_fmt_e	#
	movq	%rax, %rcx	#, D.18099
	movq	-184(%rbp), %rdx	# op0, tmp314
	movq	-192(%rbp), %rsi	# target, tmp315
	movq	-56(%rbp), %rax	# seq, tmp316
	movq	%rcx, %r8	# D.18099,
	movl	$0, %ecx	#,
	movq	%rax, %rdi	# tmp316,
	call	emit_no_conflict_block	#
	.loc 1 2254 0
	movq	-192(%rbp), %rax	# target, D.18088
	jmp	.L432	#
.L454:
.LBE29:
	.loc 1 2258 0
	movl	-164(%rbp), %edx	# mode, mode.221
	movq	-176(%rbp), %rax	# unoptab, tmp317
	movslq	%edx, %rdx	# mode.221, tmp318
	salq	$4, %rdx	#, tmp319
	addq	%rdx, %rax	# tmp319, tmp320
	addq	$16, %rax	#, tmp321
	movq	(%rax), %rax	# unoptab_32(D)->handlers[mode.221_137].libfunc, D.18099
	testq	%rax, %rax	# D.18099
	je	.L462	#,
.LBB30:
	.loc 1 2263 0
	call	start_sequence	#
	.loc 1 2267 0
	movl	-164(%rbp), %edx	# mode, mode.222
	movq	-176(%rbp), %rax	# unoptab, tmp322
	movslq	%edx, %rdx	# mode.222, tmp323
	salq	$4, %rdx	#, tmp324
	addq	%rdx, %rax	# tmp324, tmp325
	addq	$16, %rax	#, tmp326
	movq	(%rax), %rax	# unoptab_32(D)->handlers[mode.222_139].libfunc, D.18099
	movq	-184(%rbp), %rsi	# op0, tmp327
	movl	-164(%rbp), %edx	# mode, tmp328
	movl	-164(%rbp), %ecx	# mode, tmp329
	movl	%ecx, (%rsp)	# tmp329,
	movq	%rsi, %r9	# tmp327,
	movl	$1, %r8d	#,
	movl	%edx, %ecx	# tmp328,
	movl	$1, %edx	#,
	movl	$0, %esi	#,
	movq	%rax, %rdi	# D.18099,
	movl	$0, %eax	#,
	call	emit_library_call_value	#
	movq	%rax, -48(%rbp)	# tmp330, value
	.loc 1 2269 0
	call	get_insns	#
	movq	%rax, -40(%rbp)	# tmp331, insns
	.loc 1 2270 0
	call	end_sequence	#
	.loc 1 2272 0
	movl	-164(%rbp), %eax	# mode, tmp332
	movl	%eax, %edi	# tmp332,
	call	gen_reg_rtx	#
	movq	%rax, -192(%rbp)	# tmp333, target
	.loc 1 2273 0
	movq	-176(%rbp), %rax	# unoptab, tmp334
	movl	(%rax), %eax	# unoptab_32(D)->code, D.18097
	movq	-184(%rbp), %rdx	# op0, tmp335
	movl	-164(%rbp), %ecx	# mode, tmp336
	movl	%ecx, %esi	# tmp336,
	movl	%eax, %edi	# D.18097,
	call	gen_rtx_fmt_e	#
	movq	%rax, %rcx	#, D.18099
	movq	-48(%rbp), %rdx	# value, tmp337
	movq	-192(%rbp), %rsi	# target, tmp338
	movq	-40(%rbp), %rax	# insns, tmp339
	movq	%rax, %rdi	# tmp339,
	call	emit_libcall_block	#
	.loc 1 2276 0
	movq	-192(%rbp), %rax	# target, D.18088
	jmp	.L432	#
.L462:
.LBE30:
	.loc 1 2281 0
	cmpl	$1, -152(%rbp)	#, class
	je	.L463	#,
	.loc 1 2281 0 is_stmt 0 discriminator 1
	cmpl	$2, -152(%rbp)	#, class
	je	.L463	#,
	cmpl	$6, -152(%rbp)	#, class
	jne	.L464	#,
.L463:
	.loc 1 2283 0 is_stmt 1
	movl	-164(%rbp), %eax	# mode, mode.223
	cltq
	movzbl	mode_wider_mode(%rax), %eax	# mode_wider_mode, D.18092
	movzbl	%al, %eax	# D.18092, tmp341
	movl	%eax, -160(%rbp)	# tmp341, wider_mode
	jmp	.L465	#
.L474:
	.loc 1 2286 0
	movl	-160(%rbp), %edx	# wider_mode, wider_mode.224
	movq	-176(%rbp), %rax	# unoptab, tmp342
	movslq	%edx, %rdx	# wider_mode.224, tmp343
	salq	$4, %rdx	#, tmp344
	addq	%rdx, %rax	# tmp344, tmp345
	movl	8(%rax), %eax	# unoptab_32(D)->handlers[wider_mode.224_150].insn_code, D.18089
	cmpl	$1317, %eax	#, D.18089
	jne	.L466	#,
	.loc 1 2288 0
	movl	-160(%rbp), %edx	# wider_mode, wider_mode.225
	movq	-176(%rbp), %rax	# unoptab, tmp346
	movslq	%edx, %rdx	# wider_mode.225, tmp347
	salq	$4, %rdx	#, tmp348
	addq	%rdx, %rax	# tmp348, tmp349
	addq	$16, %rax	#, tmp350
	movq	(%rax), %rax	# unoptab_32(D)->handlers[wider_mode.225_152].libfunc, D.18099
	testq	%rax, %rax	# D.18099
	je	.L467	#,
.L466:
.LBB31:
	.loc 1 2290 0
	movq	-184(%rbp), %rax	# op0, tmp351
	movq	%rax, -32(%rbp)	# tmp351, xop0
	.loc 1 2297 0
	movq	optab_table+256(%rip), %rax	# optab_table, D.18098
	.loc 1 2296 0
	cmpq	-176(%rbp), %rax	# unoptab, D.18098
	je	.L468	#,
	.loc 1 2298 0
	movq	optab_table+288(%rip), %rax	# optab_table, D.18098
	cmpq	-176(%rbp), %rax	# unoptab, D.18098
	jne	.L469	#,
.L468:
	.loc 1 2296 0 discriminator 1
	cmpl	$1, -152(%rbp)	#, class
	jne	.L469	#,
	.loc 1 2296 0 is_stmt 0 discriminator 2
	movl	$1, %eax	#, iftmp.226
	jmp	.L470	#
.L469:
	.loc 1 2296 0 discriminator 3
	movl	$0, %eax	#, iftmp.226
.L470:
	.loc 1 2296 0 discriminator 4
	movl	-168(%rbp), %ecx	# unsignedp, tmp352
	movl	-164(%rbp), %edx	# mode, tmp353
	movl	-160(%rbp), %esi	# wider_mode, tmp354
	movq	-32(%rbp), %rdi	# xop0, tmp355
	movl	%eax, %r8d	# iftmp.226,
	call	widen_operand	#
	movq	%rax, -32(%rbp)	# tmp356, xop0
	.loc 1 2301 0 is_stmt 1 discriminator 4
	movl	-168(%rbp), %ecx	# unsignedp, tmp357
	movq	-32(%rbp), %rdx	# xop0, tmp358
	movq	-176(%rbp), %rsi	# unoptab, tmp359
	movl	-160(%rbp), %eax	# wider_mode, tmp360
	movl	%ecx, %r8d	# tmp357,
	movl	$0, %ecx	#,
	movl	%eax, %edi	# tmp360,
	call	expand_unop	#
	movq	%rax, -136(%rbp)	# tmp361, temp
	.loc 1 2304 0 discriminator 4
	cmpq	$0, -136(%rbp)	#, temp
	je	.L471	#,
	.loc 1 2306 0
	cmpl	$1, -152(%rbp)	#, class
	je	.L472	#,
	.loc 1 2308 0
	cmpq	$0, -192(%rbp)	#, target
	jne	.L473	#,
	.loc 1 2309 0
	movl	-164(%rbp), %eax	# mode, tmp362
	movl	%eax, %edi	# tmp362,
	call	gen_reg_rtx	#
	movq	%rax, -192(%rbp)	# tmp363, target
.L473:
	.loc 1 2310 0
	movq	-136(%rbp), %rcx	# temp, tmp364
	movq	-192(%rbp), %rax	# target, tmp365
	movl	$0, %edx	#,
	movq	%rcx, %rsi	# tmp364,
	movq	%rax, %rdi	# tmp365,
	call	convert_move	#
	.loc 1 2311 0
	movq	-192(%rbp), %rax	# target, D.18088
	jmp	.L432	#
.L472:
	.loc 1 2314 0
	movq	-136(%rbp), %rdx	# temp, tmp366
	movl	-164(%rbp), %eax	# mode, tmp367
	movq	%rdx, %rsi	# tmp366,
	movl	%eax, %edi	# tmp367,
	call	gen_lowpart	#
	jmp	.L432	#
.L471:
	.loc 1 2317 0
	movq	-120(%rbp), %rax	# last, tmp368
	movq	%rax, %rdi	# tmp368,
	call	delete_insns_since	#
.L467:
.LBE31:
	.loc 1 2284 0
	movl	-160(%rbp), %eax	# wider_mode, wider_mode.227
	cltq
	movzbl	mode_wider_mode(%rax), %eax	# mode_wider_mode, D.18092
	movzbl	%al, %eax	# D.18092, tmp370
	movl	%eax, -160(%rbp)	# tmp370, wider_mode
.L465:
	.loc 1 2283 0 discriminator 1
	cmpl	$0, -160(%rbp)	#, wider_mode
	jne	.L474	#,
.L464:
	.loc 1 2324 0
	movq	-176(%rbp), %rax	# unoptab, tmp371
	movl	(%rax), %eax	# unoptab_32(D)->code, D.18097
	cmpl	$77, %eax	#, D.18097
	jne	.L475	#,
.LBB32:
	.loc 1 2329 0
	movl	-164(%rbp), %eax	# mode, mode.228
	.loc 1 2327 0
	cltq
	movq	const_tiny_rtx(,%rax,8), %rdx	# const_tiny_rtx, D.18099
	.loc 1 2328 0
	movq	optab_table+264(%rip), %rax	# optab_table, D.18098
	.loc 1 2327 0
	cmpq	-176(%rbp), %rax	# unoptab, D.18098
	jne	.L476	#,
	.loc 1 2327 0 is_stmt 0 discriminator 1
	movq	optab_table+24(%rip), %rax	# optab_table, iftmp.229
	jmp	.L477	#
.L476:
	.loc 1 2327 0 discriminator 2
	movq	optab_table+16(%rip), %rax	# optab_table, iftmp.229
.L477:
	.loc 1 2327 0 discriminator 3
	movl	-168(%rbp), %r8d	# unsignedp, tmp373
	movq	-192(%rbp), %rsi	# target, tmp374
	movq	-184(%rbp), %rcx	# op0, tmp375
	movl	-164(%rbp), %edi	# mode, tmp376
	movl	$3, (%rsp)	#,
	movl	%r8d, %r9d	# tmp373,
	movq	%rsi, %r8	# tmp374,
	movq	%rax, %rsi	# iftmp.229,
	call	expand_binop	#
	movq	%rax, -24(%rbp)	# tmp377, temp
	.loc 1 2331 0 is_stmt 1 discriminator 3
	cmpq	$0, -24(%rbp)	#, temp
	je	.L475	#,
	.loc 1 2332 0
	movq	-24(%rbp), %rax	# temp, D.18088
	jmp	.L432	#
.L475:
.LBE32:
	.loc 1 2335 0
	movl	$0, %eax	#, D.18088
.L432:
	.loc 1 2336 0
	addq	$200, %rsp	#,
	popq	%rbx	#
	popq	%rbp	#
	.cfi_def_cfa 7, 8
	ret
	.cfi_endproc
.LFE11:
	.size	expand_unop, .-expand_unop
	.globl	expand_abs
	.type	expand_abs, @function
expand_abs:
.LFB12:
	.loc 1 2354 0
	.cfi_startproc
	pushq	%rbp	#
	.cfi_def_cfa_offset 16
	.cfi_offset 6, -16
	movq	%rsp, %rbp	#,
	.cfi_def_cfa_register 6
	subq	$80, %rsp	#,
	movl	%edi, -36(%rbp)	# mode, mode
	movq	%rsi, -48(%rbp)	# op0, op0
	movq	%rdx, -56(%rbp)	# target, target
	movl	%ecx, -40(%rbp)	# result_unsignedp, result_unsignedp
	movl	%r8d, -60(%rbp)	# safe, safe
	.loc 1 2357 0
	movl	flag_trapv(%rip), %eax	# flag_trapv, flag_trapv.230
	testl	%eax, %eax	# flag_trapv.230
	jne	.L479	#,
	.loc 1 2358 0
	movl	$1, -40(%rbp)	#, result_unsignedp
.L479:
	.loc 1 2361 0
	cmpl	$0, -40(%rbp)	#, result_unsignedp
	je	.L480	#,
	.loc 1 2361 0 is_stmt 0 discriminator 1
	movq	optab_table+272(%rip), %rax	# optab_table, iftmp.231
	jmp	.L481	#
.L480:
	.loc 1 2361 0 discriminator 2
	movq	optab_table+280(%rip), %rax	# optab_table, iftmp.231
.L481:
	.loc 1 2361 0 discriminator 3
	movq	-56(%rbp), %rcx	# target, tmp107
	movq	-48(%rbp), %rdx	# op0, tmp108
	movl	-36(%rbp), %edi	# mode, tmp109
	movl	$0, %r8d	#,
	movq	%rax, %rsi	# iftmp.231,
	call	expand_unop	#
	movq	%rax, -32(%rbp)	# tmp110, temp
	.loc 1 2363 0 is_stmt 1 discriminator 3
	cmpq	$0, -32(%rbp)	#, temp
	je	.L482	#,
	.loc 1 2364 0
	movq	-32(%rbp), %rax	# temp, D.18100
	jmp	.L483	#
.L482:
	.loc 1 2367 0
	movq	optab_table+216(%rip), %rax	# optab_table, D.18101
	movl	-36(%rbp), %edx	# mode, mode.232
	movslq	%edx, %rdx	# mode.232, tmp111
	salq	$4, %rdx	#, tmp112
	addq	%rdx, %rax	# tmp112, tmp113
	movl	8(%rax), %eax	# _20->handlers[mode.232_21].insn_code, D.18102
	cmpl	$1317, %eax	#, D.18102
	je	.L484	#,
.LBB33:
	.loc 1 2369 0
	call	get_last_insn	#
	movq	%rax, -24(%rbp)	# tmp114, last
	.loc 1 2371 0
	movq	optab_table+256(%rip), %rsi	# optab_table, D.18101
	movq	-48(%rbp), %rdx	# op0, tmp115
	movl	-36(%rbp), %eax	# mode, tmp116
	movl	$0, %r8d	#,
	movl	$0, %ecx	#,
	movl	%eax, %edi	# tmp116,
	call	expand_unop	#
	movq	%rax, -32(%rbp)	# tmp117, temp
	.loc 1 2372 0
	cmpq	$0, -32(%rbp)	#, temp
	je	.L485	#,
	.loc 1 2373 0
	movq	optab_table+216(%rip), %rsi	# optab_table, D.18101
	movq	-56(%rbp), %rdi	# target, tmp118
	movq	-32(%rbp), %rcx	# temp, tmp119
	movq	-48(%rbp), %rdx	# op0, tmp120
	movl	-36(%rbp), %eax	# mode, tmp121
	movl	$2, (%rsp)	#,
	movl	$0, %r9d	#,
	movq	%rdi, %r8	# tmp118,
	movl	%eax, %edi	# tmp121,
	call	expand_binop	#
	movq	%rax, -32(%rbp)	# tmp122, temp
.L485:
	.loc 1 2376 0
	cmpq	$0, -32(%rbp)	#, temp
	je	.L486	#,
	.loc 1 2377 0
	movq	-32(%rbp), %rax	# temp, D.18100
	jmp	.L483	#
.L486:
	.loc 1 2379 0
	movq	-24(%rbp), %rax	# last, tmp123
	movq	%rax, %rdi	# tmp123,
	call	delete_insns_since	#
.L484:
.LBE33:
	.loc 1 2386 0
	movl	-36(%rbp), %eax	# mode, mode.233
	cltq
	movl	mode_class(,%rax,4), %eax	# mode_class, D.18103
	cmpl	$1, %eax	#, D.18103
	jne	.L487	#,
	.loc 1 2386 0 is_stmt 0 discriminator 1
	movl	ix86_branch_cost(%rip), %eax	# ix86_branch_cost, ix86_branch_cost.234
	cmpl	$1, %eax	#, ix86_branch_cost.234
	jle	.L487	#,
.LBB34:
	.loc 1 2389 0 is_stmt 1
	movl	-36(%rbp), %eax	# mode, mode.235
	cltq
	movzwl	mode_bitsize(%rax,%rax), %eax	# mode_bitsize, D.18104
	movzwl	%ax, %eax	# D.18104, D.18105
	subl	$1, %eax	#, D.18105
	.loc 1 2388 0
	cltq
	movl	$0, %esi	#,
	movq	%rax, %rdi	# D.18106,
	call	size_int_wide	#
	movq	%rax, %rcx	#, D.18107
	movq	-48(%rbp), %rdx	# op0, tmp126
	movl	-36(%rbp), %eax	# mode, tmp127
	movl	$0, %r9d	#,
	movl	$0, %r8d	#,
	movl	%eax, %esi	# tmp127,
	movl	$83, %edi	#,
	call	expand_shift	#
	movq	%rax, -16(%rbp)	# tmp128, extended
	.loc 1 2392 0
	movq	optab_table+160(%rip), %rsi	# optab_table, D.18101
	movq	-56(%rbp), %rdi	# target, tmp129
	movq	-48(%rbp), %rcx	# op0, tmp130
	movq	-16(%rbp), %rdx	# extended, tmp131
	movl	-36(%rbp), %eax	# mode, tmp132
	movl	$3, (%rsp)	#,
	movl	$0, %r9d	#,
	movq	%rdi, %r8	# tmp129,
	movl	%eax, %edi	# tmp132,
	call	expand_binop	#
	movq	%rax, -32(%rbp)	# tmp133, temp
	.loc 1 2394 0
	cmpq	$0, -32(%rbp)	#, temp
	je	.L488	#,
	.loc 1 2395 0
	cmpl	$0, -40(%rbp)	#, result_unsignedp
	je	.L489	#,
	.loc 1 2395 0 is_stmt 0 discriminator 1
	movq	optab_table+16(%rip), %rax	# optab_table, iftmp.236
	jmp	.L490	#
.L489:
	.loc 1 2395 0 discriminator 2
	movq	optab_table+24(%rip), %rax	# optab_table, iftmp.236
.L490:
	.loc 1 2395 0 discriminator 3
	movq	-56(%rbp), %rsi	# target, tmp134
	movq	-16(%rbp), %rcx	# extended, tmp135
	movq	-32(%rbp), %rdx	# temp, tmp136
	movl	-36(%rbp), %edi	# mode, tmp137
	movl	$3, (%rsp)	#,
	movl	$0, %r9d	#,
	movq	%rsi, %r8	# tmp134,
	movq	%rax, %rsi	# iftmp.236,
	call	expand_binop	#
	movq	%rax, -32(%rbp)	# tmp138, temp
.L488:
	.loc 1 2398 0 is_stmt 1
	cmpq	$0, -32(%rbp)	#, temp
	je	.L487	#,
	.loc 1 2399 0
	movq	-32(%rbp), %rax	# temp, D.18100
	jmp	.L483	#
.L487:
.LBE34:
	.loc 1 2406 0
	movq	-48(%rbp), %rax	# op0, tmp139
	cmpq	-56(%rbp), %rax	# target, tmp139
	jne	.L491	#,
	.loc 1 2406 0 is_stmt 0 discriminator 1
	movq	-48(%rbp), %rax	# op0, tmp140
	movzwl	(%rax), %eax	# op0_16(D)->code, D.18104
	cmpw	$61, %ax	#, D.18104
	jne	.L491	#,
	.loc 1 2407 0 is_stmt 1
	movq	-48(%rbp), %rax	# op0, tmp141
	movl	8(%rax), %eax	# op0_16(D)->fld[0].rtuint, D.18108
	cmpl	$52, %eax	#, D.18108
	jbe	.L491	#,
	.loc 1 2408 0
	movl	$1, -60(%rbp)	#, safe
.L491:
	.loc 1 2410 0
	call	gen_label_rtx	#
	movq	%rax, -8(%rbp)	# tmp142, op1
	.loc 1 2411 0
	cmpq	$0, -56(%rbp)	#, target
	je	.L492	#,
	.loc 1 2411 0 is_stmt 0 discriminator 1
	cmpl	$0, -60(%rbp)	#, safe
	je	.L492	#,
	.loc 1 2412 0 is_stmt 1
	movq	-56(%rbp), %rax	# target, tmp143
	movzbl	2(%rax), %eax	# target_17(D)->mode, D.18109
	movzbl	%al, %eax	# D.18109, D.18108
	cmpl	-36(%rbp), %eax	# mode, D.18108
	jne	.L492	#,
	.loc 1 2413 0
	movq	-56(%rbp), %rax	# target, tmp144
	movzwl	(%rax), %eax	# target_17(D)->code, D.18104
	cmpw	$66, %ax	#, D.18104
	jne	.L493	#,
	.loc 1 2413 0 is_stmt 0 discriminator 1
	movq	-56(%rbp), %rax	# target, tmp145
	movzbl	3(%rax), %eax	# *target_17(D), D.18109
	andl	$8, %eax	#, D.18109
	testb	%al, %al	# D.18109
	jne	.L492	#,
.L493:
	.loc 1 2414 0 is_stmt 1
	movq	-56(%rbp), %rax	# target, tmp146
	movzwl	(%rax), %eax	# target_17(D)->code, D.18104
	cmpw	$61, %ax	#, D.18104
	jne	.L494	#,
	.loc 1 2415 0
	movq	-56(%rbp), %rax	# target, tmp147
	movl	8(%rax), %eax	# target_17(D)->fld[0].rtuint, D.18108
	cmpl	$52, %eax	#, D.18108
	ja	.L494	#,
.L492:
	.loc 1 2416 0
	movl	-36(%rbp), %eax	# mode, tmp148
	movl	%eax, %edi	# tmp148,
	call	gen_reg_rtx	#
	movq	%rax, -56(%rbp)	# tmp149, target
.L494:
	.loc 1 2418 0
	movq	-48(%rbp), %rdx	# op0, tmp150
	movq	-56(%rbp), %rax	# target, tmp151
	movq	%rdx, %rsi	# tmp150,
	movq	%rax, %rdi	# tmp151,
	call	emit_move_insn	#
	.loc 1 2419 0
	movq	cfun(%rip), %rax	# cfun, cfun.237
	movq	16(%rax), %rax	# cfun.237_58->expr, D.18110
	movq	cfun(%rip), %rdx	# cfun, cfun.238
	movq	16(%rdx), %rdx	# cfun.238_60->expr, D.18110
	movl	4(%rdx), %edx	# _61->x_inhibit_defer_pop, D.18105
	addl	$1, %edx	#, D.18105
	movl	%edx, 4(%rax)	# D.18105, _59->x_inhibit_defer_pop
	.loc 1 2423 0
	movl	-36(%rbp), %eax	# mode, mode.239
	cltq
	movl	mode_class(,%rax,4), %eax	# mode_class, D.18103
	cmpl	$1, %eax	#, D.18103
	jne	.L495	#,
	.loc 1 2424 0
	movl	-36(%rbp), %eax	# mode, tmp153
	movl	$0, %edx	#,
	movl	%eax, %esi	# tmp153,
	movl	$104, %edi	#,
	call	can_compare_p	#
	testl	%eax, %eax	# D.18105
	jne	.L495	#,
	.loc 1 2425 0
	movq	const_int_rtx+512(%rip), %rcx	# const_int_rtx, D.18111
	movq	-8(%rbp), %rsi	# op1, tmp154
	movq	-56(%rbp), %rdx	# target, tmp155
	movl	-36(%rbp), %eax	# mode, tmp156
	movq	%rsi, %r9	# tmp154,
	movl	$0, %r8d	#,
	movl	$0, %esi	#,
	movl	%eax, %edi	# tmp156,
	call	do_jump_by_parts_greater_rtx	#
	jmp	.L496	#
.L495:
	.loc 1 2428 0
	movl	-36(%rbp), %eax	# mode, mode.240
	cltq
	movq	const_tiny_rtx(,%rax,8), %rsi	# const_tiny_rtx, D.18111
	movl	-36(%rbp), %ecx	# mode, tmp158
	movq	-56(%rbp), %rax	# target, tmp159
	movq	-8(%rbp), %rdx	# op1, tmp160
	movq	%rdx, 8(%rsp)	# tmp160,
	movq	$0, (%rsp)	#,
	movl	$0, %r9d	#,
	movl	%ecx, %r8d	# tmp158,
	movl	$0, %ecx	#,
	movl	$104, %edx	#,
	movq	%rax, %rdi	# tmp159,
	call	do_compare_rtx_and_jump	#
.L496:
	.loc 1 2431 0
	cmpl	$0, -40(%rbp)	#, result_unsignedp
	je	.L497	#,
	.loc 1 2431 0 is_stmt 0 discriminator 1
	movq	optab_table+256(%rip), %rax	# optab_table, iftmp.241
	jmp	.L498	#
.L497:
	.loc 1 2431 0 discriminator 2
	movq	optab_table+264(%rip), %rax	# optab_table, iftmp.241
.L498:
	.loc 1 2431 0 discriminator 3
	movq	-56(%rbp), %rcx	# target, tmp161
	movq	-56(%rbp), %rdx	# target, tmp162
	movl	-36(%rbp), %edi	# mode, tmp163
	movl	$0, %r8d	#,
	movq	%rax, %rsi	# iftmp.241,
	call	expand_unop	#
	movq	%rax, -48(%rbp)	# tmp164, op0
	.loc 1 2433 0 is_stmt 1 discriminator 3
	movq	-48(%rbp), %rax	# op0, tmp165
	cmpq	-56(%rbp), %rax	# target, tmp165
	je	.L499	#,
	.loc 1 2434 0
	movq	-48(%rbp), %rdx	# op0, tmp166
	movq	-56(%rbp), %rax	# target, tmp167
	movq	%rdx, %rsi	# tmp166,
	movq	%rax, %rdi	# tmp167,
	call	emit_move_insn	#
.L499:
	.loc 1 2435 0
	movq	-8(%rbp), %rax	# op1, tmp168
	movq	%rax, %rdi	# tmp168,
	call	emit_label	#
	.loc 1 2436 0
	movq	cfun(%rip), %rax	# cfun, cfun.242
	movq	16(%rax), %rax	# cfun.242_73->expr, D.18110
	movq	cfun(%rip), %rdx	# cfun, cfun.243
	movq	16(%rdx), %rdx	# cfun.243_75->expr, D.18110
	movl	4(%rdx), %edx	# _76->x_inhibit_defer_pop, D.18105
	subl	$1, %edx	#, D.18105
	movl	%edx, 4(%rax)	# D.18105, _74->x_inhibit_defer_pop
	.loc 1 2437 0
	movq	-56(%rbp), %rax	# target, D.18100
.L483:
	.loc 1 2438 0
	leave
	.cfi_def_cfa 7, 8
	ret
	.cfi_endproc
.LFE12:
	.size	expand_abs, .-expand_abs
	.globl	expand_complex_abs
	.type	expand_complex_abs, @function
expand_complex_abs:
.LFB13:
	.loc 1 2455 0
	.cfi_startproc
	pushq	%rbp	#
	.cfi_def_cfa_offset 16
	.cfi_offset 6, -16
	movq	%rsp, %rbp	#,
	.cfi_def_cfa_register 6
	subq	$160, %rsp	#,
	movl	%edi, -132(%rbp)	# mode, mode
	movq	%rsi, -144(%rbp)	# op0, op0
	movq	%rdx, -152(%rbp)	# target, target
	movl	%ecx, -136(%rbp)	# unsignedp, unsignedp
	.loc 1 2456 0
	movl	-132(%rbp), %eax	# mode, mode.244
	cltq
	movl	mode_class(,%rax,4), %eax	# mode_class, tmp122
	movl	%eax, -120(%rbp)	# tmp122, class
	.loc 1 2459 0
	call	get_last_insn	#
	movq	%rax, -88(%rbp)	# tmp123, entry_last
	.loc 1 2466 0
	cmpl	$5, -120(%rbp)	#, class
	jne	.L501	#,
	.loc 1 2466 0 is_stmt 0 discriminator 1
	movl	$1, %eax	#, iftmp.245
	jmp	.L502	#
.L501:
	.loc 1 2466 0 discriminator 2
	movl	$2, %eax	#, iftmp.245
.L502:
	.loc 1 2466 0 discriminator 3
	movl	-132(%rbp), %edx	# mode, mode.246
	movslq	%edx, %rdx	# mode.246, tmp124
	movzbl	mode_unit_size(%rdx), %edx	# mode_unit_size, D.18113
	movzbl	%dl, %edx	# D.18113, D.18114
	sall	$3, %edx	#, D.18114
	movl	%edx, %ecx	# D.18114, D.18115
	.loc 1 2465 0 is_stmt 1 discriminator 3
	movl	$0, %edx	#,
	movl	%eax, %esi	# iftmp.245,
	movl	%ecx, %edi	# D.18115,
	call	mode_for_size	#
	movl	%eax, -116(%rbp)	# tmp125, submode
	.loc 1 2470 0 discriminator 3
	cmpl	$51, -116(%rbp)	#, submode
	jne	.L503	#,
	.loc 1 2471 0
	movl	$__FUNCTION__.13812, %edx	#,
	movl	$2471, %esi	#,
	movl	$.LC0, %edi	#,
	call	fancy_abort	#
.L503:
	.loc 1 2473 0
	movq	-144(%rbp), %rax	# op0, tmp126
	movl	$0, %esi	#,
	movq	%rax, %rdi	# tmp126,
	call	protect_from_queue	#
	movq	%rax, -144(%rbp)	# tmp127, op0
	.loc 1 2475 0
	movl	flag_force_mem(%rip), %eax	# flag_force_mem, flag_force_mem.247
	testl	%eax, %eax	# flag_force_mem.247
	je	.L504	#,
	.loc 1 2477 0
	movq	-144(%rbp), %rax	# op0, tmp128
	movq	%rax, %rdi	# tmp128,
	call	force_not_mem	#
	movq	%rax, -144(%rbp)	# tmp129, op0
.L504:
	.loc 1 2480 0
	call	get_last_insn	#
	movq	%rax, -80(%rbp)	# tmp130, last
	.loc 1 2482 0
	cmpq	$0, -152(%rbp)	#, target
	je	.L505	#,
	.loc 1 2483 0
	movq	-152(%rbp), %rax	# target, tmp131
	movl	$1, %esi	#,
	movq	%rax, %rdi	# tmp131,
	call	protect_from_queue	#
	movq	%rax, -152(%rbp)	# tmp132, target
.L505:
	.loc 1 2487 0
	cmpl	$0, -136(%rbp)	#, unsignedp
	jne	.L506	#,
	.loc 1 2485 0
	movl	flag_trapv(%rip), %eax	# flag_trapv, flag_trapv.249
	testl	%eax, %eax	# flag_trapv.249
	je	.L506	#,
	.loc 1 2486 0
	movl	-132(%rbp), %eax	# mode, mode.250
	cltq
	movl	mode_class(,%rax,4), %eax	# mode_class, D.18116
	cmpl	$1, %eax	#, D.18116
	jne	.L506	#,
	.loc 1 2487 0
	movq	optab_table+280(%rip), %rax	# optab_table, iftmp.248
	jmp	.L507	#
.L506:
	.loc 1 2487 0 is_stmt 0 discriminator 1
	movq	optab_table+272(%rip), %rax	# optab_table, iftmp.248
.L507:
	.loc 1 2485 0 is_stmt 1
	movq	%rax, -72(%rbp)	# iftmp.248, this_abs_optab
	.loc 1 2489 0
	movl	-132(%rbp), %edx	# mode, mode.251
	movq	-72(%rbp), %rax	# this_abs_optab, tmp134
	movslq	%edx, %rdx	# mode.251, tmp135
	salq	$4, %rdx	#, tmp136
	addq	%rdx, %rax	# tmp136, tmp137
	movl	8(%rax), %eax	# this_abs_optab_40->handlers[mode.251_41].insn_code, D.18117
	cmpl	$1317, %eax	#, D.18117
	je	.L508	#,
.LBB35:
	.loc 1 2491 0
	movl	-132(%rbp), %edx	# mode, mode.252
	movq	-72(%rbp), %rax	# this_abs_optab, tmp138
	movslq	%edx, %rdx	# mode.252, tmp139
	salq	$4, %rdx	#, tmp140
	addq	%rdx, %rax	# tmp140, tmp141
	movl	8(%rax), %eax	# this_abs_optab_40->handlers[mode.252_43].insn_code, D.18117
	movl	%eax, -112(%rbp)	# D.18117, icode
	.loc 1 2492 0
	movl	-112(%rbp), %eax	# icode, tmp143
	movslq	%eax, %rdx	# tmp143, tmp142
	movq	%rdx, %rax	# tmp142, tmp144
	salq	$2, %rax	#, tmp144
	addq	%rdx, %rax	# tmp142, tmp144
	salq	$3, %rax	#, tmp145
	addq	$insn_data+24, %rax	#, tmp146
	movq	(%rax), %rax	# insn_data[icode_45].operand, D.18118
	addq	$24, %rax	#, D.18118
	movzwl	16(%rax), %eax	# _47->mode, D.18119
	movzwl	%ax, %eax	# D.18119, tmp147
	movl	%eax, -108(%rbp)	# tmp147, mode0
	.loc 1 2493 0
	movq	-144(%rbp), %rax	# op0, tmp148
	movq	%rax, -96(%rbp)	# tmp148, xop0
	.loc 1 2495 0
	cmpq	$0, -152(%rbp)	#, target
	je	.L509	#,
	.loc 1 2496 0
	movq	-152(%rbp), %rax	# target, tmp149
	movq	%rax, -104(%rbp)	# tmp149, temp
	jmp	.L510	#
.L509:
	.loc 1 2498 0
	movl	-116(%rbp), %eax	# submode, tmp150
	movl	%eax, %edi	# tmp150,
	call	gen_reg_rtx	#
	movq	%rax, -104(%rbp)	# tmp151, temp
.L510:
	.loc 1 2500 0
	movq	-96(%rbp), %rax	# xop0, tmp152
	movzbl	2(%rax), %eax	# xop0_50->mode, D.18113
	testb	%al, %al	# D.18113
	je	.L511	#,
	.loc 1 2501 0
	movq	-96(%rbp), %rax	# xop0, tmp153
	movzbl	2(%rax), %eax	# xop0_50->mode, D.18113
	movzbl	%al, %eax	# D.18113, D.18115
	cmpl	-108(%rbp), %eax	# mode0, D.18115
	je	.L511	#,
	.loc 1 2502 0
	movl	-136(%rbp), %edx	# unsignedp, tmp154
	movq	-96(%rbp), %rcx	# xop0, tmp155
	movl	-108(%rbp), %eax	# mode0, tmp156
	movq	%rcx, %rsi	# tmp155,
	movl	%eax, %edi	# tmp156,
	call	convert_to_mode	#
	movq	%rax, -96(%rbp)	# tmp157, xop0
.L511:
	.loc 1 2506 0
	movl	-112(%rbp), %eax	# icode, tmp159
	movslq	%eax, %rdx	# tmp159, tmp158
	movq	%rdx, %rax	# tmp158, tmp160
	salq	$2, %rax	#, tmp160
	addq	%rdx, %rax	# tmp158, tmp160
	salq	$3, %rax	#, tmp161
	addq	$insn_data+24, %rax	#, tmp162
	movq	(%rax), %rax	# insn_data[icode_45].operand, D.18118
	addq	$24, %rax	#, D.18118
	movq	(%rax), %rax	# _58->predicate, D.18120
	movl	-108(%rbp), %ecx	# mode0, tmp163
	movq	-96(%rbp), %rdx	# xop0, tmp164
	movl	%ecx, %esi	# tmp163,
	movq	%rdx, %rdi	# tmp164,
	call	*%rax	# D.18120
	testl	%eax, %eax	# D.18114
	jne	.L512	#,
	.loc 1 2507 0
	movq	-96(%rbp), %rdx	# xop0, tmp165
	movl	-108(%rbp), %eax	# mode0, tmp166
	movq	%rdx, %rsi	# tmp165,
	movl	%eax, %edi	# tmp166,
	call	copy_to_mode_reg	#
	movq	%rax, -96(%rbp)	# tmp167, xop0
.L512:
	.loc 1 2509 0
	movl	-112(%rbp), %eax	# icode, tmp169
	movslq	%eax, %rdx	# tmp169, tmp168
	movq	%rdx, %rax	# tmp168, tmp170
	salq	$2, %rax	#, tmp170
	addq	%rdx, %rax	# tmp168, tmp170
	salq	$3, %rax	#, tmp171
	addq	$insn_data+24, %rax	#, tmp172
	movq	(%rax), %rax	# insn_data[icode_45].operand, D.18118
	movq	(%rax), %rax	# _62->predicate, D.18120
	movl	-116(%rbp), %ecx	# submode, tmp173
	movq	-104(%rbp), %rdx	# temp, tmp174
	movl	%ecx, %esi	# tmp173,
	movq	%rdx, %rdi	# tmp174,
	call	*%rax	# D.18120
	testl	%eax, %eax	# D.18114
	jne	.L513	#,
	.loc 1 2510 0
	movl	-116(%rbp), %eax	# submode, tmp175
	movl	%eax, %edi	# tmp175,
	call	gen_reg_rtx	#
	movq	%rax, -104(%rbp)	# tmp176, temp
.L513:
	.loc 1 2512 0
	movl	-112(%rbp), %eax	# icode, tmp178
	movslq	%eax, %rdx	# tmp178, tmp177
	movq	%rdx, %rax	# tmp177, tmp179
	salq	$2, %rax	#, tmp179
	addq	%rdx, %rax	# tmp177, tmp179
	salq	$3, %rax	#, tmp180
	addq	$insn_data+16, %rax	#, tmp181
	movq	(%rax), %rdx	# insn_data[icode_45].genfun, D.18121
	movq	-96(%rbp), %rcx	# xop0, tmp182
	movq	-104(%rbp), %rax	# temp, tmp183
	movq	%rcx, %rsi	# tmp182,
	movq	%rax, %rdi	# tmp183,
	movl	$0, %eax	#,
	call	*%rdx	# D.18121
	movq	%rax, -64(%rbp)	# tmp184, pat
	.loc 1 2513 0
	cmpq	$0, -64(%rbp)	#, pat
	je	.L514	#,
	.loc 1 2515 0
	movq	-64(%rbp), %rax	# pat, tmp185
	movzwl	(%rax), %eax	# pat_67->code, D.18119
	cmpw	$24, %ax	#, D.18119
	jne	.L515	#,
	.loc 1 2516 0
	movq	-72(%rbp), %rax	# this_abs_optab, tmp186
	movl	(%rax), %edx	# this_abs_optab_40->code, D.18122
	movq	-96(%rbp), %rcx	# xop0, tmp187
	movq	-104(%rbp), %rsi	# temp, tmp188
	movq	-64(%rbp), %rax	# pat, tmp189
	movl	$0, %r8d	#,
	movq	%rax, %rdi	# tmp189,
	call	add_equal_note	#
	testl	%eax, %eax	# D.18114
	jne	.L515	#,
	.loc 1 2519 0
	movq	-80(%rbp), %rax	# last, tmp190
	movq	%rax, %rdi	# tmp190,
	call	delete_insns_since	#
	.loc 1 2520 0
	movl	-136(%rbp), %ecx	# unsignedp, tmp191
	movq	-144(%rbp), %rdx	# op0, tmp192
	movq	-72(%rbp), %rsi	# this_abs_optab, tmp193
	movl	-132(%rbp), %eax	# mode, tmp194
	movl	%ecx, %r8d	# tmp191,
	movl	$0, %ecx	#,
	movl	%eax, %edi	# tmp194,
	call	expand_unop	#
	jmp	.L516	#
.L515:
	.loc 1 2524 0
	movq	-64(%rbp), %rax	# pat, tmp195
	movq	%rax, %rdi	# tmp195,
	call	emit_insn	#
	.loc 1 2526 0
	movq	-104(%rbp), %rax	# temp, D.18112
	jmp	.L516	#
.L514:
	.loc 1 2529 0
	movq	-80(%rbp), %rax	# last, tmp196
	movq	%rax, %rdi	# tmp196,
	call	delete_insns_since	#
.L508:
.LBE35:
	.loc 1 2534 0
	movl	-132(%rbp), %eax	# mode, mode.253
	cltq
	movzbl	mode_wider_mode(%rax), %eax	# mode_wider_mode, D.18113
	movzbl	%al, %eax	# D.18113, tmp198
	movl	%eax, -124(%rbp)	# tmp198, wider_mode
	jmp	.L517	#
.L522:
	.loc 1 2537 0
	movl	-124(%rbp), %edx	# wider_mode, wider_mode.254
	movq	-72(%rbp), %rax	# this_abs_optab, tmp199
	movslq	%edx, %rdx	# wider_mode.254, tmp200
	salq	$4, %rdx	#, tmp201
	addq	%rdx, %rax	# tmp201, tmp202
	movl	8(%rax), %eax	# this_abs_optab_40->handlers[wider_mode.254_76].insn_code, D.18117
	cmpl	$1317, %eax	#, D.18117
	je	.L518	#,
.LBB36:
	.loc 1 2540 0
	movq	-144(%rbp), %rax	# op0, tmp203
	movq	%rax, -56(%rbp)	# tmp203, xop0
	.loc 1 2542 0
	movl	-136(%rbp), %ecx	# unsignedp, tmp204
	movq	-56(%rbp), %rdx	# xop0, tmp205
	movl	-132(%rbp), %esi	# mode, tmp206
	movl	-124(%rbp), %eax	# wider_mode, tmp207
	movl	%eax, %edi	# tmp207,
	call	convert_modes	#
	movq	%rax, -56(%rbp)	# tmp208, xop0
	.loc 1 2543 0
	movl	-136(%rbp), %edx	# unsignedp, tmp209
	movq	-56(%rbp), %rsi	# xop0, tmp210
	movl	-124(%rbp), %eax	# wider_mode, tmp211
	movl	%edx, %ecx	# tmp209,
	movl	$0, %edx	#,
	movl	%eax, %edi	# tmp211,
	call	expand_complex_abs	#
	movq	%rax, -104(%rbp)	# tmp212, temp
	.loc 1 2545 0
	cmpq	$0, -104(%rbp)	#, temp
	je	.L519	#,
	.loc 1 2547 0
	cmpl	$5, -120(%rbp)	#, class
	je	.L520	#,
	.loc 1 2549 0
	cmpq	$0, -152(%rbp)	#, target
	jne	.L521	#,
	.loc 1 2550 0
	movl	-116(%rbp), %eax	# submode, tmp213
	movl	%eax, %edi	# tmp213,
	call	gen_reg_rtx	#
	movq	%rax, -152(%rbp)	# tmp214, target
.L521:
	.loc 1 2551 0
	movq	-104(%rbp), %rcx	# temp, tmp215
	movq	-152(%rbp), %rax	# target, tmp216
	movl	$0, %edx	#,
	movq	%rcx, %rsi	# tmp215,
	movq	%rax, %rdi	# tmp216,
	call	convert_move	#
	.loc 1 2552 0
	movq	-152(%rbp), %rax	# target, D.18112
	jmp	.L516	#
.L520:
	.loc 1 2555 0
	movq	-104(%rbp), %rdx	# temp, tmp217
	movl	-116(%rbp), %eax	# submode, tmp218
	movq	%rdx, %rsi	# tmp217,
	movl	%eax, %edi	# tmp218,
	call	gen_lowpart	#
	jmp	.L516	#
.L519:
	.loc 1 2558 0
	movq	-80(%rbp), %rax	# last, tmp219
	movq	%rax, %rdi	# tmp219,
	call	delete_insns_since	#
.L518:
.LBE36:
	.loc 1 2535 0
	movl	-124(%rbp), %eax	# wider_mode, wider_mode.255
	cltq
	movzbl	mode_wider_mode(%rax), %eax	# mode_wider_mode, D.18113
	movzbl	%al, %eax	# D.18113, tmp221
	movl	%eax, -124(%rbp)	# tmp221, wider_mode
.L517:
	.loc 1 2534 0 discriminator 1
	cmpl	$0, -124(%rbp)	#, wider_mode
	jne	.L522	#,
	.loc 1 2564 0
	movq	optab_table+304(%rip), %rax	# optab_table, D.18123
	movl	-116(%rbp), %edx	# submode, submode.256
	movslq	%edx, %rdx	# submode.256, tmp222
	salq	$4, %rdx	#, tmp223
	addq	%rdx, %rax	# tmp223, tmp224
	movl	8(%rax), %eax	# _87->handlers[submode.256_88].insn_code, D.18117
	cmpl	$1317, %eax	#, D.18117
	je	.L523	#,
	.loc 1 2565 0
	movl	flag_trapv(%rip), %eax	# flag_trapv, flag_trapv.257
	testl	%eax, %eax	# flag_trapv.257
	jne	.L523	#,
.LBB37:
	.loc 1 2569 0
	movq	-144(%rbp), %rdx	# op0, tmp225
	movl	-116(%rbp), %eax	# submode, tmp226
	movq	%rdx, %rsi	# tmp225,
	movl	%eax, %edi	# tmp226,
	call	gen_realpart	#
	movq	%rax, -48(%rbp)	# tmp227, real
	.loc 1 2570 0
	movq	-144(%rbp), %rdx	# op0, tmp228
	movl	-116(%rbp), %eax	# submode, tmp229
	movq	%rdx, %rsi	# tmp228,
	movl	%eax, %edi	# tmp229,
	call	gen_imagpart	#
	movq	%rax, -40(%rbp)	# tmp230, imag
	.loc 1 2573 0
	movq	-48(%rbp), %rdx	# real, tmp231
	movq	-48(%rbp), %rsi	# real, tmp232
	movl	-116(%rbp), %eax	# submode, tmp233
	movl	$0, %r8d	#,
	movl	$0, %ecx	#,
	movl	%eax, %edi	# tmp233,
	call	expand_mult	#
	movq	%rax, -48(%rbp)	# tmp234, real
	.loc 1 2574 0
	movq	-40(%rbp), %rdx	# imag, tmp235
	movq	-40(%rbp), %rsi	# imag, tmp236
	movl	-116(%rbp), %eax	# submode, tmp237
	movl	$0, %r8d	#,
	movl	$0, %ecx	#,
	movl	%eax, %edi	# tmp237,
	call	expand_mult	#
	movq	%rax, -40(%rbp)	# tmp238, imag
	.loc 1 2577 0
	movq	optab_table(%rip), %rsi	# optab_table, D.18123
	movq	-40(%rbp), %rcx	# imag, tmp239
	movq	-48(%rbp), %rdx	# real, tmp240
	movl	-116(%rbp), %eax	# submode, tmp241
	movl	$3, (%rsp)	#,
	movl	$0, %r9d	#,
	movl	$0, %r8d	#,
	movl	%eax, %edi	# tmp241,
	call	expand_binop	#
	movq	%rax, -32(%rbp)	# tmp242, total
	.loc 1 2581 0
	movq	optab_table+304(%rip), %rsi	# optab_table, D.18123
	movq	-152(%rbp), %rcx	# target, tmp243
	movq	-32(%rbp), %rdx	# total, tmp244
	movl	-116(%rbp), %eax	# submode, tmp245
	movl	$0, %r8d	#,
	movl	%eax, %edi	# tmp245,
	call	expand_unop	#
	movq	%rax, -152(%rbp)	# tmp246, target
	.loc 1 2582 0
	cmpq	$0, -152(%rbp)	#, target
	jne	.L524	#,
	.loc 1 2583 0
	movq	-80(%rbp), %rax	# last, tmp247
	movq	%rax, %rdi	# tmp247,
	call	delete_insns_since	#
	jmp	.L523	#
.L524:
	.loc 1 2585 0
	movq	-152(%rbp), %rax	# target, D.18112
	jmp	.L516	#
.L523:
.LBE37:
	.loc 1 2589 0
	movl	-132(%rbp), %edx	# mode, mode.258
	movq	-72(%rbp), %rax	# this_abs_optab, tmp248
	movslq	%edx, %rdx	# mode.258, tmp249
	salq	$4, %rdx	#, tmp250
	addq	%rdx, %rax	# tmp250, tmp251
	addq	$16, %rax	#, tmp252
	movq	(%rax), %rax	# this_abs_optab_40->handlers[mode.258_100].libfunc, D.18124
	testq	%rax, %rax	# D.18124
	je	.L525	#,
.LBB38:
	.loc 1 2594 0
	call	start_sequence	#
	.loc 1 2598 0
	movq	optab_table+272(%rip), %rax	# optab_table, D.18123
	movl	-132(%rbp), %edx	# mode, mode.259
	movslq	%edx, %rdx	# mode.259, tmp253
	salq	$4, %rdx	#, tmp254
	addq	%rdx, %rax	# tmp254, tmp255
	addq	$16, %rax	#, tmp256
	movq	(%rax), %rax	# _102->handlers[mode.259_103].libfunc, D.18124
	movq	-144(%rbp), %rsi	# op0, tmp257
	movl	-116(%rbp), %edx	# submode, tmp258
	movl	-132(%rbp), %ecx	# mode, tmp259
	movl	%ecx, (%rsp)	# tmp259,
	movq	%rsi, %r9	# tmp257,
	movl	$1, %r8d	#,
	movl	%edx, %ecx	# tmp258,
	movl	$1, %edx	#,
	movl	$0, %esi	#,
	movq	%rax, %rdi	# D.18124,
	movl	$0, %eax	#,
	call	emit_library_call_value	#
	movq	%rax, -24(%rbp)	# tmp260, value
	.loc 1 2600 0
	call	get_insns	#
	movq	%rax, -16(%rbp)	# tmp261, insns
	.loc 1 2601 0
	call	end_sequence	#
	.loc 1 2603 0
	movl	-116(%rbp), %eax	# submode, tmp262
	movl	%eax, %edi	# tmp262,
	call	gen_reg_rtx	#
	movq	%rax, -152(%rbp)	# tmp263, target
	.loc 1 2604 0
	movq	-72(%rbp), %rax	# this_abs_optab, tmp264
	movl	(%rax), %eax	# this_abs_optab_40->code, D.18122
	movq	-144(%rbp), %rdx	# op0, tmp265
	movl	-132(%rbp), %ecx	# mode, tmp266
	movl	%ecx, %esi	# tmp266,
	movl	%eax, %edi	# D.18122,
	call	gen_rtx_fmt_e	#
	movq	%rax, %rcx	#, D.18124
	movq	-24(%rbp), %rdx	# value, tmp267
	movq	-152(%rbp), %rsi	# target, tmp268
	movq	-16(%rbp), %rax	# insns, tmp269
	movq	%rax, %rdi	# tmp269,
	call	emit_libcall_block	#
	.loc 1 2607 0
	movq	-152(%rbp), %rax	# target, D.18112
	jmp	.L516	#
.L525:
.LBE38:
	.loc 1 2612 0
	movl	-132(%rbp), %eax	# mode, mode.260
	cltq
	movzbl	mode_wider_mode(%rax), %eax	# mode_wider_mode, D.18113
	movzbl	%al, %eax	# D.18113, tmp271
	movl	%eax, -124(%rbp)	# tmp271, wider_mode
	jmp	.L526	#
.L532:
	.loc 1 2615 0
	movl	-124(%rbp), %edx	# wider_mode, wider_mode.261
	movq	-72(%rbp), %rax	# this_abs_optab, tmp272
	movslq	%edx, %rdx	# wider_mode.261, tmp273
	salq	$4, %rdx	#, tmp274
	addq	%rdx, %rax	# tmp274, tmp275
	movl	8(%rax), %eax	# this_abs_optab_40->handlers[wider_mode.261_114].insn_code, D.18117
	cmpl	$1317, %eax	#, D.18117
	jne	.L527	#,
	.loc 1 2617 0
	movl	-124(%rbp), %edx	# wider_mode, wider_mode.262
	movq	-72(%rbp), %rax	# this_abs_optab, tmp276
	movslq	%edx, %rdx	# wider_mode.262, tmp277
	salq	$4, %rdx	#, tmp278
	addq	%rdx, %rax	# tmp278, tmp279
	addq	$16, %rax	#, tmp280
	movq	(%rax), %rax	# this_abs_optab_40->handlers[wider_mode.262_116].libfunc, D.18124
	testq	%rax, %rax	# D.18124
	je	.L528	#,
.L527:
.LBB39:
	.loc 1 2619 0
	movq	-144(%rbp), %rax	# op0, tmp281
	movq	%rax, -8(%rbp)	# tmp281, xop0
	.loc 1 2621 0
	movl	-136(%rbp), %ecx	# unsignedp, tmp282
	movq	-8(%rbp), %rdx	# xop0, tmp283
	movl	-132(%rbp), %esi	# mode, tmp284
	movl	-124(%rbp), %eax	# wider_mode, tmp285
	movl	%eax, %edi	# tmp285,
	call	convert_modes	#
	movq	%rax, -8(%rbp)	# tmp286, xop0
	.loc 1 2623 0
	movl	-136(%rbp), %edx	# unsignedp, tmp287
	movq	-8(%rbp), %rsi	# xop0, tmp288
	movl	-124(%rbp), %eax	# wider_mode, tmp289
	movl	%edx, %ecx	# tmp287,
	movl	$0, %edx	#,
	movl	%eax, %edi	# tmp289,
	call	expand_complex_abs	#
	movq	%rax, -104(%rbp)	# tmp290, temp
	.loc 1 2625 0
	cmpq	$0, -104(%rbp)	#, temp
	je	.L529	#,
	.loc 1 2627 0
	cmpl	$5, -120(%rbp)	#, class
	je	.L530	#,
	.loc 1 2629 0
	cmpq	$0, -152(%rbp)	#, target
	jne	.L531	#,
	.loc 1 2630 0
	movl	-116(%rbp), %eax	# submode, tmp291
	movl	%eax, %edi	# tmp291,
	call	gen_reg_rtx	#
	movq	%rax, -152(%rbp)	# tmp292, target
.L531:
	.loc 1 2631 0
	movq	-104(%rbp), %rcx	# temp, tmp293
	movq	-152(%rbp), %rax	# target, tmp294
	movl	$0, %edx	#,
	movq	%rcx, %rsi	# tmp293,
	movq	%rax, %rdi	# tmp294,
	call	convert_move	#
	.loc 1 2632 0
	movq	-152(%rbp), %rax	# target, D.18112
	jmp	.L516	#
.L530:
	.loc 1 2635 0
	movq	-104(%rbp), %rdx	# temp, tmp295
	movl	-116(%rbp), %eax	# submode, tmp296
	movq	%rdx, %rsi	# tmp295,
	movl	%eax, %edi	# tmp296,
	call	gen_lowpart	#
	jmp	.L516	#
.L529:
	.loc 1 2638 0
	movq	-80(%rbp), %rax	# last, tmp297
	movq	%rax, %rdi	# tmp297,
	call	delete_insns_since	#
.L528:
.LBE39:
	.loc 1 2613 0
	movl	-124(%rbp), %eax	# wider_mode, wider_mode.263
	cltq
	movzbl	mode_wider_mode(%rax), %eax	# mode_wider_mode, D.18113
	movzbl	%al, %eax	# D.18113, tmp299
	movl	%eax, -124(%rbp)	# tmp299, wider_mode
.L526:
	.loc 1 2612 0 discriminator 1
	cmpl	$0, -124(%rbp)	#, wider_mode
	jne	.L532	#,
	.loc 1 2642 0
	movq	-88(%rbp), %rax	# entry_last, tmp300
	movq	%rax, %rdi	# tmp300,
	call	delete_insns_since	#
	.loc 1 2643 0
	movl	$0, %eax	#, D.18112
.L516:
	.loc 1 2644 0
	leave
	.cfi_def_cfa 7, 8
	ret
	.cfi_endproc
.LFE13:
	.size	expand_complex_abs, .-expand_complex_abs
	.globl	emit_unop_insn
	.type	emit_unop_insn, @function
emit_unop_insn:
.LFB14:
	.loc 1 2658 0
	.cfi_startproc
	pushq	%rbp	#
	.cfi_def_cfa_offset 16
	.cfi_offset 6, -16
	movq	%rsp, %rbp	#,
	.cfi_def_cfa_register 6
	subq	$64, %rsp	#,
	movl	%edi, -36(%rbp)	# icode, icode
	movq	%rsi, -48(%rbp)	# target, target
	movq	%rdx, -56(%rbp)	# op0, op0
	movl	%ecx, -40(%rbp)	# code, code
	.loc 1 2660 0
	movl	-36(%rbp), %eax	# icode, tmp79
	movslq	%eax, %rdx	# tmp79, tmp78
	movq	%rdx, %rax	# tmp78, tmp80
	salq	$2, %rax	#, tmp80
	addq	%rdx, %rax	# tmp78, tmp80
	salq	$3, %rax	#, tmp81
	addq	$insn_data+24, %rax	#, tmp82
	movq	(%rax), %rax	# insn_data[icode_4(D)].operand, D.18125
	addq	$24, %rax	#, D.18125
	movzwl	16(%rax), %eax	# _6->mode, D.18126
	movzwl	%ax, %eax	# D.18126, tmp83
	movl	%eax, -20(%rbp)	# tmp83, mode0
	.loc 1 2663 0
	movq	-48(%rbp), %rax	# target, tmp84
	movl	$1, %esi	#,
	movq	%rax, %rdi	# tmp84,
	call	protect_from_queue	#
	movq	%rax, -48(%rbp)	# tmp85, target
	movq	-48(%rbp), %rax	# target, tmp86
	movq	%rax, -16(%rbp)	# tmp86, temp
	.loc 1 2665 0
	movq	-56(%rbp), %rax	# op0, tmp87
	movl	$0, %esi	#,
	movq	%rax, %rdi	# tmp87,
	call	protect_from_queue	#
	movq	%rax, -56(%rbp)	# tmp88, op0
	.loc 1 2670 0
	movl	flag_force_mem(%rip), %eax	# flag_force_mem, flag_force_mem.264
	testl	%eax, %eax	# flag_force_mem.264
	je	.L534	#,
	.loc 1 2670 0 is_stmt 0 discriminator 1
	cmpl	$120, -40(%rbp)	#, code
	je	.L534	#,
	cmpl	$121, -40(%rbp)	#, code
	je	.L534	#,
	.loc 1 2671 0 is_stmt 1
	movq	-56(%rbp), %rax	# op0, tmp89
	movq	%rax, %rdi	# tmp89,
	call	force_not_mem	#
	movq	%rax, -56(%rbp)	# tmp90, op0
.L534:
	.loc 1 2675 0
	movl	-36(%rbp), %eax	# icode, tmp92
	movslq	%eax, %rdx	# tmp92, tmp91
	movq	%rdx, %rax	# tmp91, tmp93
	salq	$2, %rax	#, tmp93
	addq	%rdx, %rax	# tmp91, tmp93
	salq	$3, %rax	#, tmp94
	addq	$insn_data+24, %rax	#, tmp95
	movq	(%rax), %rax	# insn_data[icode_4(D)].operand, D.18125
	addq	$24, %rax	#, D.18125
	movq	(%rax), %rax	# _18->predicate, D.18127
	movl	-20(%rbp), %ecx	# mode0, tmp96
	movq	-56(%rbp), %rdx	# op0, tmp97
	movl	%ecx, %esi	# tmp96,
	movq	%rdx, %rdi	# tmp97,
	call	*%rax	# D.18127
	testl	%eax, %eax	# D.18128
	jne	.L535	#,
	.loc 1 2676 0
	movq	-56(%rbp), %rdx	# op0, tmp98
	movl	-20(%rbp), %eax	# mode0, tmp99
	movq	%rdx, %rsi	# tmp98,
	movl	%eax, %edi	# tmp99,
	call	copy_to_mode_reg	#
	movq	%rax, -56(%rbp)	# tmp100, op0
.L535:
	.loc 1 2678 0
	movl	-36(%rbp), %eax	# icode, tmp102
	movslq	%eax, %rdx	# tmp102, tmp101
	movq	%rdx, %rax	# tmp101, tmp103
	salq	$2, %rax	#, tmp103
	addq	%rdx, %rax	# tmp101, tmp103
	salq	$3, %rax	#, tmp104
	addq	$insn_data+24, %rax	#, tmp105
	movq	(%rax), %rax	# insn_data[icode_4(D)].operand, D.18125
	movq	(%rax), %rax	# _22->predicate, D.18127
	movq	-16(%rbp), %rdx	# temp, tmp106
	movzbl	2(%rdx), %edx	# temp_11->mode, D.18129
	movzbl	%dl, %ecx	# D.18129, D.18130
	movq	-16(%rbp), %rdx	# temp, tmp107
	movl	%ecx, %esi	# D.18130,
	movq	%rdx, %rdi	# tmp107,
	call	*%rax	# D.18127
	testl	%eax, %eax	# D.18128
	je	.L536	#,
	.loc 1 2679 0
	movl	flag_force_mem(%rip), %eax	# flag_force_mem, flag_force_mem.265
	testl	%eax, %eax	# flag_force_mem.265
	je	.L537	#,
	.loc 1 2679 0 is_stmt 0 discriminator 1
	movq	-16(%rbp), %rax	# temp, tmp108
	movzwl	(%rax), %eax	# temp_11->code, D.18126
	cmpw	$66, %ax	#, D.18126
	jne	.L537	#,
.L536:
	.loc 1 2680 0 is_stmt 1
	movq	-16(%rbp), %rax	# temp, tmp109
	movzbl	2(%rax), %eax	# temp_11->mode, D.18129
	movzbl	%al, %eax	# D.18129, D.18130
	movl	%eax, %edi	# D.18130,
	call	gen_reg_rtx	#
	movq	%rax, -16(%rbp)	# tmp110, temp
.L537:
	.loc 1 2682 0
	movl	-36(%rbp), %eax	# icode, tmp112
	movslq	%eax, %rdx	# tmp112, tmp111
	movq	%rdx, %rax	# tmp111, tmp113
	salq	$2, %rax	#, tmp113
	addq	%rdx, %rax	# tmp111, tmp113
	salq	$3, %rax	#, tmp114
	addq	$insn_data+16, %rax	#, tmp115
	movq	(%rax), %rdx	# insn_data[icode_4(D)].genfun, D.18131
	movq	-56(%rbp), %rcx	# op0, tmp116
	movq	-16(%rbp), %rax	# temp, tmp117
	movq	%rcx, %rsi	# tmp116,
	movq	%rax, %rdi	# tmp117,
	movl	$0, %eax	#,
	call	*%rdx	# D.18131
	movq	%rax, -8(%rbp)	# tmp118, pat
	.loc 1 2684 0
	movq	-8(%rbp), %rax	# pat, tmp119
	movzwl	(%rax), %eax	# pat_33->code, D.18126
	cmpw	$24, %ax	#, D.18126
	jne	.L538	#,
	.loc 1 2684 0 is_stmt 0 discriminator 1
	cmpl	$0, -40(%rbp)	#, code
	je	.L538	#,
	.loc 1 2685 0 is_stmt 1
	movq	-56(%rbp), %rcx	# op0, tmp120
	movl	-40(%rbp), %edx	# code, tmp121
	movq	-16(%rbp), %rsi	# temp, tmp122
	movq	-8(%rbp), %rax	# pat, tmp123
	movl	$0, %r8d	#,
	movq	%rax, %rdi	# tmp123,
	call	add_equal_note	#
.L538:
	.loc 1 2687 0
	movq	-8(%rbp), %rax	# pat, tmp124
	movq	%rax, %rdi	# tmp124,
	call	emit_insn	#
	.loc 1 2689 0
	movq	-16(%rbp), %rax	# temp, tmp125
	cmpq	-48(%rbp), %rax	# target, tmp125
	je	.L533	#,
	.loc 1 2690 0
	movq	-16(%rbp), %rdx	# temp, tmp126
	movq	-48(%rbp), %rax	# target, tmp127
	movq	%rdx, %rsi	# tmp126,
	movq	%rax, %rdi	# tmp127,
	call	emit_move_insn	#
.L533:
	.loc 1 2691 0
	leave
	.cfi_def_cfa 7, 8
	ret
	.cfi_endproc
.LFE14:
	.size	emit_unop_insn, .-emit_unop_insn
	.globl	emit_no_conflict_block
	.type	emit_no_conflict_block, @function
emit_no_conflict_block:
.LFB15:
	.loc 1 2727 0
	.cfi_startproc
	pushq	%rbp	#
	.cfi_def_cfa_offset 16
	.cfi_offset 6, -16
	movq	%rsp, %rbp	#,
	.cfi_def_cfa_register 6
	subq	$112, %rsp	#,
	movq	%rdi, -72(%rbp)	# insns, insns
	movq	%rsi, -80(%rbp)	# target, target
	movq	%rdx, -88(%rbp)	# op0, op0
	movq	%rcx, -96(%rbp)	# op1, op1
	movq	%r8, -104(%rbp)	# equiv, equiv
	.loc 1 2730 0
	movq	-80(%rbp), %rax	# target, tmp103
	movzwl	(%rax), %eax	# target_12(D)->code, D.18133
	cmpw	$61, %ax	#, D.18133
	jne	.L541	#,
	.loc 1 2730 0 is_stmt 0 discriminator 1
	movl	reload_in_progress(%rip), %eax	# reload_in_progress, reload_in_progress.266
	testl	%eax, %eax	# reload_in_progress.266
	je	.L542	#,
.L541:
	.loc 1 2731 0 is_stmt 1
	movq	-72(%rbp), %rax	# insns, tmp104
	movq	%rax, %rdi	# tmp104,
	call	emit_insns	#
	jmp	.L543	#
.L542:
	.loc 1 2733 0
	movq	-72(%rbp), %rax	# insns, tmp105
	movq	%rax, -40(%rbp)	# tmp105, insn
	jmp	.L544	#
.L547:
	.loc 1 2734 0
	movq	-40(%rbp), %rax	# insn, tmp106
	movzwl	(%rax), %eax	# insn_6->code, D.18133
	cmpw	$32, %ax	#, D.18133
	jne	.L545	#,
	.loc 1 2735 0
	movq	-40(%rbp), %rax	# insn, tmp107
	movl	$0, %edx	#,
	movl	$7, %esi	#,
	movq	%rax, %rdi	# tmp107,
	call	find_reg_note	#
	testq	%rax, %rax	# D.18134
	je	.L546	#,
.L545:
	.loc 1 2736 0
	movq	-72(%rbp), %rax	# insns, tmp108
	movq	%rax, %rdi	# tmp108,
	call	emit_insns	#
	jmp	.L543	#
.L546:
	.loc 1 2733 0
	movq	-40(%rbp), %rax	# insn, tmp109
	movq	24(%rax), %rax	# insn_6->fld[2].rtx, tmp110
	movq	%rax, -40(%rbp)	# tmp110, insn
.L544:
	.loc 1 2733 0 is_stmt 0 discriminator 1
	cmpq	$0, -40(%rbp)	#, insn
	jne	.L547	#,
	.loc 1 2740 0 is_stmt 1
	movq	-72(%rbp), %rax	# insns, tmp111
	movq	%rax, -40(%rbp)	# tmp111, insn
	jmp	.L548	#
.L562:
.LBB40:
	.loc 1 2742 0
	movq	$0, -32(%rbp)	#, set
	.loc 1 2745 0
	movq	-40(%rbp), %rax	# insn, tmp112
	movq	24(%rax), %rax	# insn_7->fld[2].rtx, tmp113
	movq	%rax, -24(%rbp)	# tmp113, next
	.loc 1 2749 0
	movq	-40(%rbp), %rax	# insn, tmp114
	movl	$0, %edx	#,
	movl	$7, %esi	#,
	movq	%rax, %rdi	# tmp114,
	call	find_reg_note	#
	movq	%rax, -16(%rbp)	# tmp115, note
	cmpq	$0, -16(%rbp)	#, note
	je	.L549	#,
	.loc 1 2750 0
	movq	-16(%rbp), %rdx	# note, tmp116
	movq	-40(%rbp), %rax	# insn, tmp117
	movq	%rdx, %rsi	# tmp116,
	movq	%rax, %rdi	# tmp117,
	call	remove_note	#
.L549:
	.loc 1 2751 0
	movq	-40(%rbp), %rax	# insn, tmp118
	movl	$0, %edx	#,
	movl	$6, %esi	#,
	movq	%rax, %rdi	# tmp118,
	call	find_reg_note	#
	movq	%rax, -16(%rbp)	# tmp119, note
	cmpq	$0, -16(%rbp)	#, note
	je	.L550	#,
	.loc 1 2752 0
	movq	-16(%rbp), %rdx	# note, tmp120
	movq	-40(%rbp), %rax	# insn, tmp121
	movq	%rdx, %rsi	# tmp120,
	movq	%rax, %rdi	# tmp121,
	call	remove_note	#
.L550:
	.loc 1 2754 0
	movq	-40(%rbp), %rax	# insn, tmp122
	movq	32(%rax), %rax	# insn_7->fld[3].rtx, D.18134
	movzwl	(%rax), %eax	# _26->code, D.18133
	cmpw	$47, %ax	#, D.18133
	je	.L551	#,
	.loc 1 2754 0 is_stmt 0 discriminator 1
	movq	-40(%rbp), %rax	# insn, tmp123
	movq	32(%rax), %rax	# insn_7->fld[3].rtx, D.18134
	movzwl	(%rax), %eax	# _28->code, D.18133
	cmpw	$48, %ax	#, D.18133
	je	.L551	#,
	.loc 1 2755 0 is_stmt 1
	movq	-40(%rbp), %rax	# insn, tmp124
	movq	32(%rax), %rax	# insn_7->fld[3].rtx, D.18134
	movzwl	(%rax), %eax	# _30->code, D.18133
	cmpw	$49, %ax	#, D.18133
	jne	.L552	#,
.L551:
	.loc 1 2756 0
	movq	-40(%rbp), %rax	# insn, tmp125
	movq	32(%rax), %rax	# insn_7->fld[3].rtx, tmp126
	movq	%rax, -32(%rbp)	# tmp126, set
	jmp	.L553	#
.L552:
	.loc 1 2757 0
	movq	-40(%rbp), %rax	# insn, tmp127
	movq	32(%rax), %rax	# insn_7->fld[3].rtx, D.18134
	movzwl	(%rax), %eax	# _32->code, D.18133
	cmpw	$39, %ax	#, D.18133
	jne	.L553	#,
	.loc 1 2759 0
	movl	$0, -60(%rbp)	#, i
	jmp	.L554	#
.L556:
	.loc 1 2760 0
	movq	-40(%rbp), %rax	# insn, tmp128
	movq	32(%rax), %rax	# insn_7->fld[3].rtx, D.18134
	movq	8(%rax), %rax	# _38->fld[0].rtvec, D.18135
	movl	-60(%rbp), %edx	# i, tmp130
	movslq	%edx, %rdx	# tmp130, tmp129
	movq	8(%rax,%rdx,8), %rax	# _39->elem, D.18134
	movzwl	(%rax), %eax	# _40->code, D.18133
	cmpw	$47, %ax	#, D.18133
	jne	.L555	#,
	.loc 1 2762 0
	movq	-40(%rbp), %rax	# insn, tmp131
	movq	32(%rax), %rax	# insn_7->fld[3].rtx, D.18134
	movq	8(%rax), %rax	# _42->fld[0].rtvec, D.18135
	movl	-60(%rbp), %edx	# i, tmp133
	movslq	%edx, %rdx	# tmp133, tmp132
	movq	8(%rax,%rdx,8), %rax	# _43->elem, tmp134
	movq	%rax, -32(%rbp)	# tmp134, set
	.loc 1 2763 0
	jmp	.L553	#
.L555:
	.loc 1 2759 0
	addl	$1, -60(%rbp)	#, i
.L554:
	.loc 1 2759 0 is_stmt 0 discriminator 1
	movq	-40(%rbp), %rax	# insn, tmp135
	movq	32(%rax), %rax	# insn_7->fld[3].rtx, D.18134
	movq	8(%rax), %rax	# _35->fld[0].rtvec, D.18135
	movl	(%rax), %eax	# _36->num_elem, D.18136
	cmpl	-60(%rbp), %eax	# i, D.18136
	jg	.L556	#,
.L553:
	.loc 1 2767 0 is_stmt 1
	cmpq	$0, -32(%rbp)	#, set
	jne	.L557	#,
	.loc 1 2768 0
	movl	$__FUNCTION__.13859, %edx	#,
	movl	$2768, %esi	#,
	movl	$.LC0, %edi	#,
	call	fancy_abort	#
.L557:
	.loc 1 2770 0
	movq	-32(%rbp), %rax	# set, tmp136
	movq	8(%rax), %rdx	# set_9->fld[0].rtx, D.18134
	movq	-80(%rbp), %rax	# target, tmp137
	movq	%rdx, %rsi	# D.18134,
	movq	%rax, %rdi	# tmp137,
	call	reg_overlap_mentioned_p	#
	testl	%eax, %eax	# D.18136
	jne	.L558	#,
	.loc 1 2772 0
	movq	-40(%rbp), %rax	# insn, tmp138
	movq	16(%rax), %rax	# insn_7->fld[1].rtx, D.18134
	testq	%rax, %rax	# D.18134
	je	.L559	#,
	.loc 1 2773 0
	movq	-40(%rbp), %rax	# insn, tmp139
	movq	16(%rax), %rax	# insn_7->fld[1].rtx, D.18134
	movq	-24(%rbp), %rdx	# next, tmp140
	movq	%rdx, 24(%rax)	# tmp140, _50->fld[2].rtx
	jmp	.L560	#
.L559:
	.loc 1 2775 0
	movq	-24(%rbp), %rax	# next, tmp141
	movq	%rax, -72(%rbp)	# tmp141, insns
.L560:
	.loc 1 2777 0
	cmpq	$0, -24(%rbp)	#, next
	je	.L561	#,
	.loc 1 2778 0
	movq	-40(%rbp), %rax	# insn, tmp142
	movq	16(%rax), %rdx	# insn_7->fld[1].rtx, D.18134
	movq	-24(%rbp), %rax	# next, tmp143
	movq	%rdx, 16(%rax)	# D.18134, next_23->fld[1].rtx
.L561:
	.loc 1 2780 0
	movq	-40(%rbp), %rax	# insn, tmp144
	movq	%rax, %rdi	# tmp144,
	call	add_insn	#
.L558:
.LBE40:
	.loc 1 2740 0
	movq	-24(%rbp), %rax	# next, tmp145
	movq	%rax, -40(%rbp)	# tmp145, insn
.L548:
	.loc 1 2740 0 is_stmt 0 discriminator 1
	cmpq	$0, -40(%rbp)	#, insn
	jne	.L562	#,
	.loc 1 2784 0 is_stmt 1
	call	get_last_insn	#
	movq	%rax, -8(%rbp)	# tmp146, prev
	.loc 1 2788 0
	movq	-80(%rbp), %rax	# target, tmp147
	cmpq	-88(%rbp), %rax	# op0, tmp147
	je	.L563	#,
	.loc 1 2788 0 is_stmt 0 discriminator 1
	movq	-80(%rbp), %rax	# target, tmp148
	cmpq	-96(%rbp), %rax	# op1, tmp148
	je	.L563	#,
	.loc 1 2789 0 is_stmt 1
	movq	-80(%rbp), %rax	# target, tmp149
	movq	%rax, %rdx	# tmp149,
	movl	$0, %esi	#,
	movl	$49, %edi	#,
	call	gen_rtx_fmt_e	#
	movq	%rax, %rdi	# D.18134,
	call	emit_insn	#
.L563:
	.loc 1 2791 0
	movq	-72(%rbp), %rax	# insns, tmp150
	movq	%rax, -40(%rbp)	# tmp150, insn
	jmp	.L564	#
.L567:
	.loc 1 2793 0
	movq	-40(%rbp), %rax	# insn, tmp151
	movq	24(%rax), %rax	# insn_8->fld[2].rtx, tmp152
	movq	%rax, -24(%rbp)	# tmp152, next
	.loc 1 2794 0
	movq	-40(%rbp), %rax	# insn, tmp153
	movq	%rax, %rdi	# tmp153,
	call	add_insn	#
	.loc 1 2796 0
	cmpq	$0, -96(%rbp)	#, op1
	je	.L565	#,
	.loc 1 2796 0 is_stmt 0 discriminator 1
	movq	-96(%rbp), %rax	# op1, tmp154
	movzwl	(%rax), %eax	# op1_56(D)->code, D.18133
	cmpw	$61, %ax	#, D.18133
