	.file	"print-rtl.c"
# GNU C (Ubuntu/Linaro 4.8.1-10ubuntu9) version 4.8.1 (x86_64-linux-gnu)
#	compiled by GNU C version 4.8.1, GMP version 5.1.2, MPFR version 3.1.1-p2, MPC version 1.0.1
# GGC heuristics: --param ggc-min-expand=100 --param ggc-min-heapsize=131072
# options passed:  -I . -imultiarch x86_64-linux-gnu -D SPEC_CPU -D NDEBUG
# -D SPEC_CPU_LP64 print-rtl.c -mtune=generic -march=x86-64 -g
# -fverbose-asm -fno-strict-aliasing -fstack-protector -Wformat
# -Wformat-security
# options enabled:  -faggressive-loop-optimizations
# -fasynchronous-unwind-tables -fauto-inc-dec -fbranch-count-reg -fcommon
# -fdelete-null-pointer-checks -fdwarf2-cfi-asm -fearly-inlining
# -feliminate-unused-debug-types -ffunction-cse -fgcse-lm -fgnu-runtime
# -fident -finline-atomics -fira-hoist-pressure -fira-share-save-slots
# -fira-share-spill-slots -fivopts -fkeep-static-consts
# -fleading-underscore -fmath-errno -fmerge-debug-strings
# -fmove-loop-invariants -fpeephole -fprefetch-loop-arrays
# -freg-struct-return -fsched-critical-path-heuristic
# -fsched-dep-count-heuristic -fsched-group-heuristic -fsched-interblock
# -fsched-last-insn-heuristic -fsched-rank-heuristic -fsched-spec
# -fsched-spec-insn-heuristic -fsched-stalled-insns-dep -fshow-column
# -fsigned-zeros -fsplit-ivs-in-unroller -fstack-protector
# -fstrict-volatile-bitfields -fsync-libcalls -ftrapping-math
# -ftree-coalesce-vars -ftree-cselim -ftree-forwprop -ftree-loop-if-convert
# -ftree-loop-im -ftree-loop-ivcanon -ftree-loop-optimize
# -ftree-parallelize-loops= -ftree-phiprop -ftree-pta -ftree-reassoc
# -ftree-scev-cprop -ftree-slp-vectorize -ftree-vect-loop-version
# -funit-at-a-time -funwind-tables -fverbose-asm -fzero-initialized-in-bss
# -m128bit-long-double -m64 -m80387 -maccumulate-outgoing-args
# -malign-stringops -mfancy-math-387 -mfp-ret-in-387 -mfxsr -mglibc
# -mieee-fp -mlong-double-80 -mmmx -mno-sse4 -mpush-args -mred-zone -msse
# -msse2 -mtls-direct-seg-refs

	.text
.Ltext0:
	.globl	reg_names
	.section	.rodata
.LC0:
	.string	"ax"
.LC1:
	.string	"dx"
.LC2:
	.string	"cx"
.LC3:
	.string	"bx"
.LC4:
	.string	"si"
.LC5:
	.string	"di"
.LC6:
	.string	"bp"
.LC7:
	.string	"sp"
.LC8:
	.string	"st"
.LC9:
	.string	"st(1)"
.LC10:
	.string	"st(2)"
.LC11:
	.string	"st(3)"
.LC12:
	.string	"st(4)"
.LC13:
	.string	"st(5)"
.LC14:
	.string	"st(6)"
.LC15:
	.string	"st(7)"
.LC16:
	.string	""
.LC17:
	.string	"flags"
.LC18:
	.string	"fpsr"
.LC19:
	.string	"dirflag"
.LC20:
	.string	"frame"
.LC21:
	.string	"xmm0"
.LC22:
	.string	"xmm1"
.LC23:
	.string	"xmm2"
.LC24:
	.string	"xmm3"
.LC25:
	.string	"xmm4"
.LC26:
	.string	"xmm5"
.LC27:
	.string	"xmm6"
.LC28:
	.string	"xmm7"
.LC29:
	.string	"mm0"
.LC30:
	.string	"mm1"
.LC31:
	.string	"mm2"
.LC32:
	.string	"mm3"
.LC33:
	.string	"mm4"
.LC34:
	.string	"mm5"
.LC35:
	.string	"mm6"
.LC36:
	.string	"mm7"
.LC37:
	.string	"r8"
.LC38:
	.string	"r9"
.LC39:
	.string	"r10"
.LC40:
	.string	"r11"
.LC41:
	.string	"r12"
.LC42:
	.string	"r13"
.LC43:
	.string	"r14"
.LC44:
	.string	"r15"
.LC45:
	.string	"xmm8"
.LC46:
	.string	"xmm9"
.LC47:
	.string	"xmm10"
.LC48:
	.string	"xmm11"
.LC49:
	.string	"xmm12"
.LC50:
	.string	"xmm13"
.LC51:
	.string	"xmm14"
.LC52:
	.string	"xmm15"
	.data
	.align 32
	.type	reg_names, @object
	.size	reg_names, 424
reg_names:
	.quad	.LC0
	.quad	.LC1
	.quad	.LC2
	.quad	.LC3
	.quad	.LC4
	.quad	.LC5
	.quad	.LC6
	.quad	.LC7
	.quad	.LC8
	.quad	.LC9
	.quad	.LC10
	.quad	.LC11
	.quad	.LC12
	.quad	.LC13
	.quad	.LC14
	.quad	.LC15
	.quad	.LC16
	.quad	.LC17
	.quad	.LC18
	.quad	.LC19
	.quad	.LC20
	.quad	.LC21
	.quad	.LC22
	.quad	.LC23
	.quad	.LC24
	.quad	.LC25
	.quad	.LC26
	.quad	.LC27
	.quad	.LC28
	.quad	.LC29
	.quad	.LC30
	.quad	.LC31
	.quad	.LC32
	.quad	.LC33
	.quad	.LC34
	.quad	.LC35
	.quad	.LC36
	.quad	.LC37
	.quad	.LC38
	.quad	.LC39
	.quad	.LC40
	.quad	.LC41
	.quad	.LC42
	.quad	.LC43
	.quad	.LC44
	.quad	.LC45
	.quad	.LC46
	.quad	.LC47
	.quad	.LC48
	.quad	.LC49
	.quad	.LC50
	.quad	.LC51
	.quad	.LC52
	.globl	print_rtx_head
	.align 8
	.type	print_rtx_head, @object
	.size	print_rtx_head, 8
print_rtx_head:
	.quad	.LC16
	.globl	flag_dump_unnumbered
	.bss
	.align 4
	.type	flag_dump_unnumbered, @object
	.size	flag_dump_unnumbered, 4
flag_dump_unnumbered:
	.zero	4
	.globl	flag_simple
	.align 4
	.type	flag_simple, @object
	.size	flag_simple, 4
flag_simple:
	.zero	4
	.comm	dump_for_graph,4,4
	.text
	.globl	print_mem_expr
	.type	print_mem_expr, @function
print_mem_expr:
.LFB2:
	.file 1 "print-rtl.c"
	.loc 1 783 0
	.cfi_startproc
	pushq	%rbp	#
	.cfi_def_cfa_offset 16
	.cfi_offset 6, -16
	movq	%rsp, %rbp	#,
	.cfi_def_cfa_register 6
	movq	%rdi, -8(%rbp)	# outfile, outfile
	movq	%rsi, -16(%rbp)	# expr, expr
	.loc 1 783 0
	popq	%rbp	#
	.cfi_def_cfa 7, 8
	ret
	.cfi_endproc
.LFE2:
	.size	print_mem_expr, .-print_mem_expr
	.globl	print_inline_rtx
	.type	print_inline_rtx, @function
print_inline_rtx:
.LFB3:
	.loc 1 789 0
	.cfi_startproc
	pushq	%rbp	#
	.cfi_def_cfa_offset 16
	.cfi_offset 6, -16
	movq	%rsp, %rbp	#,
	.cfi_def_cfa_register 6
	movq	%rdi, -8(%rbp)	# outf, outf
	movq	%rsi, -16(%rbp)	# x, x
	movl	%edx, -20(%rbp)	# ind, ind
	.loc 1 789 0
	popq	%rbp	#
	.cfi_def_cfa 7, 8
	ret
	.cfi_endproc
.LFE3:
	.size	print_inline_rtx, .-print_inline_rtx
	.globl	debug_rtx
	.type	debug_rtx, @function
debug_rtx:
.LFB4:
	.loc 1 793 0
	.cfi_startproc
	pushq	%rbp	#
	.cfi_def_cfa_offset 16
	.cfi_offset 6, -16
	movq	%rsp, %rbp	#,
	.cfi_def_cfa_register 6
	movq	%rdi, -8(%rbp)	# x, x
	.loc 1 793 0
	popq	%rbp	#
	.cfi_def_cfa 7, 8
	ret
	.cfi_endproc
.LFE4:
	.size	debug_rtx, .-debug_rtx
	.globl	debug_rtx_list
	.type	debug_rtx_list, @function
debug_rtx_list:
.LFB5:
	.loc 1 798 0
	.cfi_startproc
	pushq	%rbp	#
	.cfi_def_cfa_offset 16
	.cfi_offset 6, -16
	movq	%rsp, %rbp	#,
	.cfi_def_cfa_register 6
	movq	%rdi, -8(%rbp)	# x, x
	movl	%esi, -12(%rbp)	# n, n
	.loc 1 798 0
	popq	%rbp	#
	.cfi_def_cfa 7, 8
	ret
	.cfi_endproc
.LFE5:
	.size	debug_rtx_list, .-debug_rtx_list
	.globl	debug_rtx_range
	.type	debug_rtx_range, @function
debug_rtx_range:
.LFB6:
	.loc 1 802 0
	.cfi_startproc
	pushq	%rbp	#
	.cfi_def_cfa_offset 16
	.cfi_offset 6, -16
	movq	%rsp, %rbp	#,
	.cfi_def_cfa_register 6
	movq	%rdi, -8(%rbp)	# start, start
	movq	%rsi, -16(%rbp)	# end, end
	.loc 1 802 0
	popq	%rbp	#
	.cfi_def_cfa 7, 8
	ret
	.cfi_endproc
.LFE6:
	.size	debug_rtx_range, .-debug_rtx_range
	.globl	debug_rtx_find
	.type	debug_rtx_find, @function
debug_rtx_find:
.LFB7:
	.loc 1 807 0
	.cfi_startproc
	pushq	%rbp	#
	.cfi_def_cfa_offset 16
	.cfi_offset 6, -16
	movq	%rsp, %rbp	#,
	.cfi_def_cfa_register 6
	movq	%rdi, -8(%rbp)	# x, x
	movl	%esi, -12(%rbp)	# uid, uid
	.loc 1 807 0
	movl	$0, %eax	#, D.11293
	popq	%rbp	#
	.cfi_def_cfa 7, 8
	ret
	.cfi_endproc
.LFE7:
	.size	debug_rtx_find, .-debug_rtx_find
	.globl	print_rtl
	.type	print_rtl, @function
print_rtl:
.LFB8:
	.loc 1 812 0
	.cfi_startproc
	pushq	%rbp	#
	.cfi_def_cfa_offset 16
	.cfi_offset 6, -16
	movq	%rsp, %rbp	#,
	.cfi_def_cfa_register 6
	movq	%rdi, -8(%rbp)	# outf, outf
	movq	%rsi, -16(%rbp)	# rtx_first, rtx_first
	.loc 1 812 0
	popq	%rbp	#
	.cfi_def_cfa 7, 8
	ret
	.cfi_endproc
.LFE8:
	.size	print_rtl, .-print_rtl
	.globl	print_rtl_single
	.type	print_rtl_single, @function
print_rtl_single:
.LFB9:
	.loc 1 817 0
	.cfi_startproc
	pushq	%rbp	#
	.cfi_def_cfa_offset 16
	.cfi_offset 6, -16
	movq	%rsp, %rbp	#,
	.cfi_def_cfa_register 6
	movq	%rdi, -8(%rbp)	# outf, outf
	movq	%rsi, -16(%rbp)	# x, x
	.loc 1 817 0
	movl	$0, %eax	#, D.11294
	popq	%rbp	#
	.cfi_def_cfa 7, 8
	ret
	.cfi_endproc
.LFE9:
	.size	print_rtl_single, .-print_rtl_single
	.globl	print_simple_rtl
	.type	print_simple_rtl, @function
print_simple_rtl:
.LFB10:
	.loc 1 822 0
	.cfi_startproc
	pushq	%rbp	#
	.cfi_def_cfa_offset 16
	.cfi_offset 6, -16
	movq	%rsp, %rbp	#,
	.cfi_def_cfa_register 6
	movq	%rdi, -8(%rbp)	# outf, outf
	movq	%rsi, -16(%rbp)	# x, x
	.loc 1 822 0
	popq	%rbp	#
	.cfi_def_cfa 7, 8
	ret
	.cfi_endproc
.LFE10:
	.size	print_simple_rtl, .-print_simple_rtl
.Letext0:
	.file 2 "rtl.h"
	.file 3 "config.h"
	.file 4 "tree.h"
	.file 5 "/usr/lib/gcc/x86_64-linux-gnu/4.8/include/stddef.h"
	.file 6 "/usr/include/x86_64-linux-gnu/bits/types.h"
	.file 7 "/usr/include/stdio.h"
	.file 8 "/usr/include/libio.h"
	.file 9 "i386.h"
	.file 10 "machmode.h"
	.file 11 "bitmap.h"
	.file 12 "basic-block.h"
	.file 13 "real.h"
	.file 14 "hashtable.h"
	.section	.note.GNU-stack,"",@progbits
