	.file	"reload.c"
# GNU C (Ubuntu/Linaro 4.8.1-10ubuntu9) version 4.8.1 (x86_64-linux-gnu)
#	compiled by GNU C version 4.8.1, GMP version 5.1.2, MPFR version 3.1.1-p2, MPC version 1.0.1
# GGC heuristics: --param ggc-min-expand=100 --param ggc-min-heapsize=131072
# options passed:  -I . -imultiarch x86_64-linux-gnu -D SPEC_CPU -D NDEBUG
# -D SPEC_CPU_LP64 reload.c -mtune=generic -march=x86-64 -g -fverbose-asm
# -fno-strict-aliasing -fstack-protector -Wformat -Wformat-security
# options enabled:  -faggressive-loop-optimizations
# -fasynchronous-unwind-tables -fauto-inc-dec -fbranch-count-reg -fcommon
# -fdelete-null-pointer-checks -fdwarf2-cfi-asm -fearly-inlining
# -feliminate-unused-debug-types -ffunction-cse -fgcse-lm -fgnu-runtime
# -fident -finline-atomics -fira-hoist-pressure -fira-share-save-slots
# -fira-share-spill-slots -fivopts -fkeep-static-consts
# -fleading-underscore -fmath-errno -fmerge-debug-strings
# -fmove-loop-invariants -fpeephole -fprefetch-loop-arrays
# -freg-struct-return -fsched-critical-path-heuristic
# -fsched-dep-count-heuristic -fsched-group-heuristic -fsched-interblock
# -fsched-last-insn-heuristic -fsched-rank-heuristic -fsched-spec
# -fsched-spec-insn-heuristic -fsched-stalled-insns-dep -fshow-column
# -fsigned-zeros -fsplit-ivs-in-unroller -fstack-protector
# -fstrict-volatile-bitfields -fsync-libcalls -ftrapping-math
# -ftree-coalesce-vars -ftree-cselim -ftree-forwprop -ftree-loop-if-convert
# -ftree-loop-im -ftree-loop-ivcanon -ftree-loop-optimize
# -ftree-parallelize-loops= -ftree-phiprop -ftree-pta -ftree-reassoc
# -ftree-scev-cprop -ftree-slp-vectorize -ftree-vect-loop-version
# -funit-at-a-time -funwind-tables -fverbose-asm -fzero-initialized-in-bss
# -m128bit-long-double -m64 -m80387 -maccumulate-outgoing-args
# -malign-stringops -mfancy-math-387 -mfp-ret-in-387 -mfxsr -mglibc
# -mieee-fp -mlong-double-80 -mmmx -mno-sse4 -mpush-args -mred-zone -msse
# -msse2 -mtls-direct-seg-refs

	.text
.Ltext0:
	.comm	n_reloads,4,4
	.comm	rld,18720,32
	.comm	n_earlyclobbers,4,4
	.comm	reload_earlyclobbers,240,32
	.comm	reload_n_operands,4,4
	.local	replace_reloads
	.comm	replace_reloads,4,4
	.local	replacements
	.comm	replacements,3600,32
	.local	n_replacements
	.comm	n_replacements,4,4
	.local	secondary_memlocs
	.comm	secondary_memlocs,472,32
	.local	secondary_memlocs_elim
	.comm	secondary_memlocs_elim,14160,32
	.local	this_insn
	.comm	this_insn,8,8
	.local	this_insn_is_asm
	.comm	this_insn_is_asm,4,4
	.local	hard_regs_live_known
	.comm	hard_regs_live_known,4,4
	.local	static_reload_reg_p
	.comm	static_reload_reg_p,8,8
	.local	subst_reg_equivs_changed
	.comm	subst_reg_equivs_changed,4,4
	.local	output_reloadnum
	.comm	output_reloadnum,4,4
	.section	.rodata
.LC0:
	.string	"reload.c"
	.text
	.type	push_secondary_reload, @function
push_secondary_reload:
.LFB2:
	.file 1 "reload.c"
	.loc 1 297 0
	.cfi_startproc
	pushq	%rbp	#
	.cfi_def_cfa_offset 16
	.cfi_offset 6, -16
	movq	%rsp, %rbp	#,
	.cfi_def_cfa_register 6
	subq	$80, %rsp	#,
	movl	%edi, -52(%rbp)	# in_p, in_p
	movq	%rsi, -64(%rbp)	# x, x
	movl	%edx, -56(%rbp)	# opnum, opnum
	movl	%ecx, -68(%rbp)	# optional, optional
	movl	%r8d, -72(%rbp)	# reload_class, reload_class
	movl	%r9d, -76(%rbp)	# reload_mode, reload_mode
	.loc 1 298 0
	movl	$0, -40(%rbp)	#, class
	.loc 1 299 0
	movl	-76(%rbp), %eax	# reload_mode, tmp316
	movl	%eax, -36(%rbp)	# tmp316, mode
	.loc 1 300 0
	movl	$1317, -32(%rbp)	#, icode
	.loc 1 301 0
	movl	$0, -28(%rbp)	#, t_class
	.loc 1 302 0
	movl	$0, -24(%rbp)	#, t_mode
	.loc 1 303 0
	movl	$1317, -20(%rbp)	#, t_icode
	.loc 1 305 0
	movl	$-1, -8(%rbp)	#, t_reload
	.loc 1 307 0
	cmpl	$3, 16(%rbp)	#, type
	je	.L2	#,
	.loc 1 308 0
	cmpl	$5, 16(%rbp)	#, type
	je	.L2	#,
	.loc 1 309 0
	cmpl	$4, 16(%rbp)	#, type
	je	.L2	#,
	.loc 1 310 0
	cmpl	$6, 16(%rbp)	#, type
	jne	.L3	#,
.L2:
	.loc 1 311 0
	movl	16(%rbp), %eax	# type, tmp317
	movl	%eax, -16(%rbp)	# tmp317, secondary_type
	jmp	.L4	#
.L3:
	.loc 1 313 0
	cmpl	$0, -52(%rbp)	#, in_p
	je	.L5	#,
	.loc 1 313 0 is_stmt 0 discriminator 1
	movl	$3, %eax	#, iftmp.0
	jmp	.L6	#
.L5:
	.loc 1 313 0 discriminator 2
	movl	$5, %eax	#, iftmp.0
.L6:
	.loc 1 313 0 discriminator 3
	movl	%eax, -16(%rbp)	# iftmp.0, secondary_type
.L4:
	.loc 1 315 0 is_stmt 1
	movq	24(%rbp), %rax	# picode, tmp318
	movl	$1317, (%rax)	#, *picode_98(D)
	.loc 1 319 0
	movq	-64(%rbp), %rax	# x, tmp319
	movzwl	(%rax), %eax	# x_99(D)->code, D.23503
	cmpw	$63, %ax	#, D.23503
	jne	.L7	#,
	.loc 1 320 0
	movq	-64(%rbp), %rax	# x, tmp320
	movzbl	2(%rax), %eax	# x_99(D)->mode, D.23504
	movzbl	%al, %eax	# D.23504, D.23502
	cltq
	movzbl	mode_size(%rax), %edx	# mode_size, D.23504
	.loc 1 321 0
	movq	-64(%rbp), %rax	# x, tmp322
	movq	8(%rax), %rax	# x_99(D)->fld[0].rtx, D.23505
	movzbl	2(%rax), %eax	# _104->mode, D.23504
	movzbl	%al, %eax	# D.23504, D.23502
	cltq
	movzbl	mode_size(%rax), %eax	# mode_size, D.23504
	.loc 1 320 0
	cmpb	%al, %dl	# D.23504, D.23504
	jbe	.L7	#,
	.loc 1 323 0
	movq	-64(%rbp), %rax	# x, tmp324
	movq	8(%rax), %rax	# x_99(D)->fld[0].rtx, tmp325
	movq	%rax, -64(%rbp)	# tmp325, x
	.loc 1 324 0
	movq	-64(%rbp), %rax	# x, tmp326
	movzbl	2(%rax), %eax	# x_108->mode, D.23504
	movzbl	%al, %eax	# D.23504, tmp327
	movl	%eax, -76(%rbp)	# tmp327, reload_mode
.L7:
	.loc 1 333 0
	movq	-64(%rbp), %rax	# x, tmp328
	movzwl	(%rax), %eax	# x_1->code, D.23503
	cmpw	$61, %ax	#, D.23503
	jne	.L8	#,
	.loc 1 333 0 is_stmt 0 discriminator 1
	movq	-64(%rbp), %rax	# x, tmp329
	movl	8(%rax), %eax	# x_1->fld[0].rtuint, D.23506
	cmpl	$52, %eax	#, D.23506
	jbe	.L8	#,
	.loc 1 334 0 is_stmt 1
	movq	reg_equiv_mem(%rip), %rdx	# reg_equiv_mem, reg_equiv_mem.1
	movq	-64(%rbp), %rax	# x, tmp330
	movl	8(%rax), %eax	# x_1->fld[0].rtuint, D.23506
	movl	%eax, %eax	# D.23506, D.23507
	salq	$3, %rax	#, D.23507
	addq	%rdx, %rax	# reg_equiv_mem.1, D.23508
	movq	(%rax), %rax	# *_117, D.23505
	testq	%rax, %rax	# D.23505
	je	.L8	#,
	.loc 1 335 0
	movq	reg_equiv_mem(%rip), %rdx	# reg_equiv_mem, reg_equiv_mem.2
	movq	-64(%rbp), %rax	# x, tmp331
	movl	8(%rax), %eax	# x_1->fld[0].rtuint, D.23506
	movl	%eax, %eax	# D.23506, D.23507
	salq	$3, %rax	#, D.23507
	addq	%rdx, %rax	# reg_equiv_mem.2, D.23508
	movq	(%rax), %rax	# *_123, tmp332
	movq	%rax, -64(%rbp)	# tmp332, x
.L8:
	.loc 1 343 0
	cmpl	$0, -52(%rbp)	#, in_p
	jne	.L9	#,
	.loc 1 344 0
	cmpl	$12, -72(%rbp)	#, reload_class
	je	.L10	#,
	.loc 1 344 0 is_stmt 0 discriminator 2
	cmpl	$11, -72(%rbp)	#, reload_class
	je	.L10	#,
	.loc 1 344 0 discriminator 1
	cmpl	$10, -72(%rbp)	#, reload_class
	jne	.L11	#,
.L10:
	movl	target_flags(%rip), %eax	# target_flags, target_flags.4
	andl	$33554432, %eax	#, D.23502
	testl	%eax, %eax	# D.23502
	jne	.L11	#,
	cmpl	$2, -76(%rbp)	#, reload_mode
	jne	.L11	#,
	movl	$8, %eax	#, iftmp.3
	jmp	.L12	#
.L11:
	movl	$0, %eax	#, iftmp.3
.L12:
	.loc 1 344 0 discriminator 3
	movl	%eax, -40(%rbp)	# iftmp.3, class
.L9:
	.loc 1 348 0 is_stmt 1
	cmpl	$0, -40(%rbp)	#, class
	jne	.L13	#,
	.loc 1 349 0
	movl	$-1, %eax	#, D.23502
	jmp	.L14	#
.L13:
	.loc 1 354 0
	cmpl	$0, -52(%rbp)	#, in_p
	je	.L15	#,
	.loc 1 354 0 is_stmt 0 discriminator 1
	movl	-76(%rbp), %eax	# reload_mode, reload_mode.6
	cltq
	movl	reload_in_optab(,%rax,4), %eax	# reload_in_optab, iftmp.5
	jmp	.L16	#
.L15:
	.loc 1 355 0 is_stmt 1 discriminator 2
	movl	-76(%rbp), %eax	# reload_mode, reload_mode.7
	.loc 1 354 0 discriminator 2
	cltq
	movl	reload_out_optab(,%rax,4), %eax	# reload_out_optab, iftmp.5
.L16:
	.loc 1 354 0 is_stmt 0 discriminator 3
	movl	%eax, -32(%rbp)	# iftmp.5, icode
	.loc 1 357 0 is_stmt 1 discriminator 3
	cmpl	$1317, -32(%rbp)	#, icode
	je	.L17	#,
	.loc 1 358 0
	movl	-32(%rbp), %eax	# icode, icode.8
	movslq	%eax, %rdx	# icode.8, tmp335
	movq	%rdx, %rax	# tmp335, tmp336
	salq	$2, %rax	#, tmp336
	addq	%rdx, %rax	# tmp335, tmp336
	salq	$3, %rax	#, tmp337
	addq	$insn_data+24, %rax	#, tmp338
	movq	(%rax), %rcx	# insn_data[icode.8_137].operand, D.23509
	movl	-52(%rbp), %eax	# in_p, tmp339
	movslq	%eax, %rdx	# tmp339, D.23507
	movq	%rdx, %rax	# D.23507, tmp340
	addq	%rax, %rax	# tmp340
	addq	%rdx, %rax	# D.23507, tmp340
	salq	$3, %rax	#, tmp341
	addq	%rcx, %rax	# D.23509, D.23509
	movq	(%rax), %rax	# _141->predicate, D.23510
	testq	%rax, %rax	# D.23510
	je	.L17	#,
	.loc 1 359 0
	movl	-32(%rbp), %eax	# icode, icode.9
	movslq	%eax, %rdx	# icode.9, tmp342
	movq	%rdx, %rax	# tmp342, tmp343
	salq	$2, %rax	#, tmp343
	addq	%rdx, %rax	# tmp342, tmp343
	salq	$3, %rax	#, tmp344
	addq	$insn_data+24, %rax	#, tmp345
	movq	(%rax), %rcx	# insn_data[icode.9_143].operand, D.23509
	movl	-52(%rbp), %eax	# in_p, tmp346
	movslq	%eax, %rdx	# tmp346, D.23507
	movq	%rdx, %rax	# D.23507, tmp347
	addq	%rax, %rax	# tmp347
	addq	%rdx, %rax	# D.23507, tmp347
	salq	$3, %rax	#, tmp348
	addq	%rcx, %rax	# D.23509, D.23509
	movq	(%rax), %rax	# _147->predicate, D.23510
	movl	-76(%rbp), %ecx	# reload_mode, tmp349
	movq	-64(%rbp), %rdx	# x, tmp350
	movl	%ecx, %esi	# tmp349,
	movq	%rdx, %rdi	# tmp350,
	call	*%rax	# D.23510
	testl	%eax, %eax	# D.23502
	jne	.L17	#,
	.loc 1 360 0
	movl	$1317, -32(%rbp)	#, icode
.L17:
	.loc 1 368 0
	cmpl	$1317, -32(%rbp)	#, icode
	je	.L18	#,
.LBB2:
	.loc 1 377 0
	movl	-32(%rbp), %eax	# icode, icode.10
	movslq	%eax, %rdx	# icode.10, tmp351
	movq	%rdx, %rax	# tmp351, tmp352
	salq	$2, %rax	#, tmp352
	addq	%rdx, %rax	# tmp351, tmp352
	salq	$3, %rax	#, tmp353
	addq	$insn_data+24, %rax	#, tmp354
	movq	(%rax), %rdx	# insn_data[icode.10_151].operand, D.23509
	cmpl	$0, -52(%rbp)	#, in_p
	jne	.L19	#,
	.loc 1 377 0 is_stmt 0 discriminator 1
	movl	$24, %eax	#, iftmp.11
	jmp	.L20	#
.L19:
	.loc 1 377 0 discriminator 2
	movl	$0, %eax	#, iftmp.11
.L20:
	.loc 1 377 0 discriminator 3
	addq	%rdx, %rax	# D.23509, D.23509
	movq	8(%rax), %rax	# _155->constraint, D.23511
	movzbl	(%rax), %eax	# *_156, D.23512
	testb	%al, %al	# D.23512
	jne	.L21	#,
	.loc 1 378 0 is_stmt 1
	movl	$24, -4(%rbp)	#, insn_class
	jmp	.L22	#
.L21:
.LBB3:
	.loc 1 382 0
	movl	-32(%rbp), %eax	# icode, icode.12
	movslq	%eax, %rdx	# icode.12, tmp355
	movq	%rdx, %rax	# tmp355, tmp356
	salq	$2, %rax	#, tmp356
	addq	%rdx, %rax	# tmp355, tmp356
	salq	$3, %rax	#, tmp357
	addq	$insn_data+24, %rax	#, tmp358
	movq	(%rax), %rdx	# insn_data[icode.12_159].operand, D.23509
	cmpl	$0, -52(%rbp)	#, in_p
	jne	.L23	#,
	.loc 1 382 0 is_stmt 0 discriminator 1
	movl	$24, %eax	#, iftmp.13
	jmp	.L24	#
.L23:
	.loc 1 382 0 discriminator 2
	movl	$0, %eax	#, iftmp.13
.L24:
	.loc 1 382 0 discriminator 3
	addq	%rdx, %rax	# D.23509, D.23509
	movq	8(%rax), %rdx	# _163->constraint, D.23511
	movl	-52(%rbp), %eax	# in_p, tmp359
	cltq
	addq	%rdx, %rax	# D.23511, D.23511
	.loc 1 381 0 is_stmt 1 discriminator 3
	movzbl	(%rax), %eax	# *_166, tmp360
	movb	%al, -42(%rbp)	# tmp360, insn_letter
	.loc 1 384 0 discriminator 3
	cmpb	$114, -42(%rbp)	#, insn_letter
	je	.L25	#,
	.loc 1 384 0 is_stmt 0 discriminator 1
	cmpb	$114, -42(%rbp)	#, insn_letter
	je	.L26	#,
	.loc 1 384 0 discriminator 3
	cmpb	$82, -42(%rbp)	#, insn_letter
	je	.L27	#,
	.loc 1 384 0 discriminator 5
	cmpb	$113, -42(%rbp)	#, insn_letter
	jne	.L28	#,
	.loc 1 385 0 is_stmt 1 discriminator 7
	movl	target_flags(%rip), %eax	# target_flags, target_flags.19
	andl	$33554432, %eax	#, D.23502
	.loc 1 384 0 discriminator 7
	testl	%eax, %eax	# D.23502
	je	.L29	#,
	.loc 1 384 0 is_stmt 0 discriminator 9
	movl	$12, %eax	#, iftmp.18
	jmp	.L77	#
.L29:
	.loc 1 384 0 discriminator 10
	movl	$8, %eax	#, iftmp.18
	jmp	.L77	#
.L28:
	.loc 1 384 0 discriminator 8
	cmpb	$81, -42(%rbp)	#, insn_letter
	je	.L32	#,
	.loc 1 384 0 discriminator 11
	cmpb	$102, -42(%rbp)	#, insn_letter
	jne	.L33	#,
	.loc 1 385 0 is_stmt 1 discriminator 13
	movl	target_flags(%rip), %eax	# target_flags, target_flags.23
	andl	$1, %eax	#, D.23502
	.loc 1 384 0 discriminator 13
	testl	%eax, %eax	# D.23502
	jne	.L34	#,
	.loc 1 385 0
	movl	target_flags(%rip), %eax	# target_flags, target_flags.24
	andl	$32, %eax	#, D.23502
	testl	%eax, %eax	# D.23502
	je	.L35	#,
.L34:
	.loc 1 384 0 discriminator 15
	movl	$15, %eax	#, iftmp.22
	jmp	.L36	#
.L35:
	.loc 1 384 0 is_stmt 0
	movl	$0, %eax	#, iftmp.22
.L36:
	jmp	.L77	#
.L33:
	.loc 1 384 0 discriminator 14
	cmpb	$116, -42(%rbp)	#, insn_letter
	jne	.L38	#,
	.loc 1 385 0 is_stmt 1 discriminator 17
	movl	target_flags(%rip), %eax	# target_flags, target_flags.27
	andl	$1, %eax	#, D.23502
	.loc 1 384 0 discriminator 17
	testl	%eax, %eax	# D.23502
	jne	.L39	#,
	.loc 1 385 0
	movl	target_flags(%rip), %eax	# target_flags, target_flags.28
	andl	$32, %eax	#, D.23502
	testl	%eax, %eax	# D.23502
	je	.L40	#,
.L39:
	.loc 1 384 0 discriminator 19
	movl	$13, %eax	#, iftmp.26
	jmp	.L41	#
.L40:
	.loc 1 384 0 is_stmt 0
	movl	$0, %eax	#, iftmp.26
.L41:
	jmp	.L77	#
.L38:
	.loc 1 384 0 discriminator 18
	cmpb	$117, -42(%rbp)	#, insn_letter
	jne	.L43	#,
	.loc 1 385 0 is_stmt 1 discriminator 21
	movl	target_flags(%rip), %eax	# target_flags, target_flags.31
	andl	$1, %eax	#, D.23502
	.loc 1 384 0 discriminator 21
	testl	%eax, %eax	# D.23502
	jne	.L44	#,
	.loc 1 385 0
	movl	target_flags(%rip), %eax	# target_flags, target_flags.32
	andl	$32, %eax	#, D.23502
	testl	%eax, %eax	# D.23502
	je	.L45	#,
.L44:
	.loc 1 384 0 discriminator 23
	movl	$14, %eax	#, iftmp.30
	jmp	.L46	#
.L45:
	.loc 1 384 0 is_stmt 0
	movl	$0, %eax	#, iftmp.30
.L46:
	jmp	.L77	#
.L43:
	.loc 1 384 0 discriminator 22
	cmpb	$97, -42(%rbp)	#, insn_letter
	je	.L48	#,
	.loc 1 384 0 discriminator 25
	cmpb	$98, -42(%rbp)	#, insn_letter
	je	.L49	#,
	.loc 1 384 0 discriminator 27
	cmpb	$99, -42(%rbp)	#, insn_letter
	je	.L50	#,
	.loc 1 384 0 discriminator 29
	cmpb	$100, -42(%rbp)	#, insn_letter
	je	.L51	#,
	.loc 1 384 0 discriminator 31
	cmpb	$120, -42(%rbp)	#, insn_letter
	jne	.L52	#,
	.loc 1 385 0 is_stmt 1 discriminator 33
	movl	target_flags(%rip), %eax	# target_flags, target_flags.39
	andl	$327680, %eax	#, D.23502
	.loc 1 384 0 discriminator 33
	testl	%eax, %eax	# D.23502
	je	.L53	#,
	.loc 1 384 0 is_stmt 0 discriminator 35
	movl	$16, %eax	#, iftmp.38
	jmp	.L77	#
.L53:
	.loc 1 384 0 discriminator 36
	movl	$0, %eax	#, iftmp.38
	jmp	.L77	#
.L52:
	.loc 1 384 0 discriminator 34
	cmpb	$89, -42(%rbp)	#, insn_letter
	jne	.L56	#,
	.loc 1 385 0 is_stmt 1 discriminator 37
	movl	target_flags(%rip), %eax	# target_flags, target_flags.42
	andl	$262144, %eax	#, D.23502
	.loc 1 384 0 discriminator 37
	testl	%eax, %eax	# D.23502
	je	.L57	#,
	.loc 1 384 0 is_stmt 0 discriminator 39
	movl	$16, %eax	#, iftmp.41
	jmp	.L77	#
.L57:
	.loc 1 384 0 discriminator 40
	movl	$0, %eax	#, iftmp.41
	jmp	.L77	#
.L56:
	.loc 1 384 0 discriminator 38
	cmpb	$121, -42(%rbp)	#, insn_letter
	jne	.L60	#,
	.loc 1 385 0 is_stmt 1 discriminator 41
	movl	target_flags(%rip), %eax	# target_flags, target_flags.45
	andl	$16384, %eax	#, D.23502
	.loc 1 384 0 discriminator 41
	testl	%eax, %eax	# D.23502
	je	.L61	#,
	.loc 1 384 0 is_stmt 0 discriminator 43
	movl	$17, %eax	#, iftmp.44
	jmp	.L77	#
.L61:
	.loc 1 384 0 discriminator 44
	movl	$0, %eax	#, iftmp.44
	jmp	.L77	#
.L60:
	.loc 1 384 0 discriminator 42
	cmpb	$65, -42(%rbp)	#, insn_letter
	je	.L64	#,
	.loc 1 384 0 discriminator 45
	cmpb	$68, -42(%rbp)	#, insn_letter
	je	.L65	#,
	.loc 1 384 0 discriminator 47
	cmpb	$83, -42(%rbp)	#, insn_letter
	jne	.L66	#,
	.loc 1 384 0 discriminator 49
	movl	$5, %eax	#, iftmp.48
	jmp	.L77	#
.L66:
	.loc 1 384 0 discriminator 50
	movl	$0, %eax	#, iftmp.48
	jmp	.L77	#
.L65:
	.loc 1 384 0 discriminator 48
	movl	$6, %eax	#, iftmp.47
	jmp	.L77	#
.L64:
	.loc 1 384 0 discriminator 46
	movl	$7, %eax	#, iftmp.46
	jmp	.L77	#
.L51:
	.loc 1 384 0 discriminator 32
	movl	$2, %eax	#, iftmp.36
	jmp	.L77	#
.L50:
	.loc 1 384 0 discriminator 30
	movl	$3, %eax	#, iftmp.35
	jmp	.L77	#
.L49:
	.loc 1 384 0 discriminator 28
	movl	$4, %eax	#, iftmp.34
	jmp	.L77	#
.L48:
	.loc 1 384 0 discriminator 26
	movl	$1, %eax	#, iftmp.33
	jmp	.L77	#
.L32:
	.loc 1 384 0 discriminator 12
	movl	$8, %eax	#, iftmp.20
	jmp	.L77	#
.L27:
	.loc 1 384 0 discriminator 6
	movl	$11, %eax	#, iftmp.16
	jmp	.L77	#
.L26:
	.loc 1 384 0 discriminator 4
	movl	$12, %eax	#, iftmp.15
	jmp	.L77	#
.L25:
	.loc 1 384 0 discriminator 2
	movl	$12, %eax	#, iftmp.14
.L77:
	.loc 1 384 0 discriminator 58
	movl	%eax, -4(%rbp)	# iftmp.14, insn_class
	.loc 1 387 0 is_stmt 1 discriminator 58
	cmpl	$0, -4(%rbp)	#, insn_class
	jne	.L78	#,
	.loc 1 388 0
	movl	$__FUNCTION__.11576, %edx	#,
	movl	$388, %esi	#,
	movl	$.LC0, %edi	#,
	call	fancy_abort	#
.L78:
	.loc 1 389 0
	cmpl	$0, -52(%rbp)	#, in_p
	je	.L22	#,
	.loc 1 390 0
	movl	-32(%rbp), %eax	# icode, icode.49
	movslq	%eax, %rdx	# icode.49, tmp361
	movq	%rdx, %rax	# tmp361, tmp362
	salq	$2, %rax	#, tmp362
	addq	%rdx, %rax	# tmp361, tmp362
	salq	$3, %rax	#, tmp363
	addq	$insn_data+24, %rax	#, tmp364
	movq	(%rax), %rdx	# insn_data[icode.49_239].operand, D.23509
	cmpl	$0, -52(%rbp)	#, in_p
	jne	.L79	#,
	.loc 1 390 0 is_stmt 0 discriminator 1
	movl	$24, %eax	#, iftmp.50
	jmp	.L80	#
.L79:
	.loc 1 390 0 discriminator 2
	movl	$0, %eax	#, iftmp.50
.L80:
	.loc 1 390 0 discriminator 3
	addq	%rdx, %rax	# D.23509, D.23509
	movq	8(%rax), %rax	# _243->constraint, D.23511
	movzbl	(%rax), %eax	# *_244, D.23512
	cmpb	$61, %al	#, D.23512
	je	.L22	#,
	.loc 1 391 0 is_stmt 1
	movl	$__FUNCTION__.11576, %edx	#,
	movl	$391, %esi	#,
	movl	$.LC0, %edi	#,
	call	fancy_abort	#
.L22:
.LBE3:
	.loc 1 395 0
	movl	-32(%rbp), %eax	# icode, icode.51
	movslq	%eax, %rdx	# icode.51, tmp365
	movq	%rdx, %rax	# tmp365, tmp366
	salq	$2, %rax	#, tmp366
	addq	%rdx, %rax	# tmp365, tmp366
	salq	$3, %rax	#, tmp367
	addq	$insn_data+24, %rax	#, tmp368
	movq	(%rax), %rax	# insn_data[icode.51_246].operand, D.23509
	addq	$48, %rax	#, D.23509
	movq	8(%rax), %rax	# _248->constraint, D.23511
	movzbl	(%rax), %eax	# *_249, D.23512
	cmpb	$61, %al	#, D.23512
	jne	.L81	#,
	.loc 1 396 0
	movl	-32(%rbp), %eax	# icode, icode.52
	movslq	%eax, %rdx	# icode.52, tmp369
	movq	%rdx, %rax	# tmp369, tmp370
	salq	$2, %rax	#, tmp370
	addq	%rdx, %rax	# tmp369, tmp370
	salq	$3, %rax	#, tmp371
	addq	$insn_data+24, %rax	#, tmp372
	movq	(%rax), %rax	# insn_data[icode.52_251].operand, D.23509
	addq	$48, %rax	#, D.23509
	movq	8(%rax), %rax	# _253->constraint, D.23511
	addq	$1, %rax	#, D.23511
	movzbl	(%rax), %eax	# *_255, D.23512
	cmpb	$38, %al	#, D.23512
	je	.L82	#,
.L81:
	.loc 1 397 0
	movl	$__FUNCTION__.11576, %edx	#,
	movl	$397, %esi	#,
	movl	$.LC0, %edi	#,
	call	fancy_abort	#
.L82:
	.loc 1 399 0
	movl	-4(%rbp), %edx	# insn_class, tmp373
	movl	-72(%rbp), %eax	# reload_class, tmp374
	movl	%edx, %esi	# tmp373,
	movl	%eax, %edi	# tmp374,
	call	reg_class_subset_p	#
	testl	%eax, %eax	# D.23502
	je	.L83	#,
	.loc 1 400 0
	movl	-32(%rbp), %eax	# icode, icode.53
	movslq	%eax, %rdx	# icode.53, tmp375
	movq	%rdx, %rax	# tmp375, tmp376
	salq	$2, %rax	#, tmp376
	addq	%rdx, %rax	# tmp375, tmp376
	salq	$3, %rax	#, tmp377
	addq	$insn_data+24, %rax	#, tmp378
	movq	(%rax), %rax	# insn_data[icode.53_258].operand, D.23509
	addq	$48, %rax	#, D.23509
	movzwl	16(%rax), %eax	# _260->mode, D.23503
	movzwl	%ax, %eax	# D.23503, tmp379
	movl	%eax, -36(%rbp)	# tmp379, mode
	jmp	.L18	#
.L83:
.LBB4:
	.loc 1 403 0
	movl	-32(%rbp), %eax	# icode, icode.54
	movslq	%eax, %rdx	# icode.54, tmp380
	movq	%rdx, %rax	# tmp380, tmp381
	salq	$2, %rax	#, tmp381
	addq	%rdx, %rax	# tmp380, tmp381
	salq	$3, %rax	#, tmp382
	addq	$insn_data+24, %rax	#, tmp383
	movq	(%rax), %rax	# insn_data[icode.54_263].operand, D.23509
	addq	$48, %rax	#, D.23509
	movq	8(%rax), %rax	# _265->constraint, D.23511
	movzbl	2(%rax), %eax	# MEM[(const char *)_266 + 2B], tmp384
	movb	%al, -41(%rbp)	# tmp384, t_letter
	.loc 1 404 0
	movl	-4(%rbp), %eax	# insn_class, tmp385
	movl	%eax, -40(%rbp)	# tmp385, class
	.loc 1 405 0
	movl	-32(%rbp), %eax	# icode, icode.55
	movslq	%eax, %rdx	# icode.55, tmp386
	movq	%rdx, %rax	# tmp386, tmp387
	salq	$2, %rax	#, tmp387
	addq	%rdx, %rax	# tmp386, tmp387
	salq	$3, %rax	#, tmp388
	addq	$insn_data+24, %rax	#, tmp389
	movq	(%rax), %rax	# insn_data[icode.55_269].operand, D.23509
	addq	$48, %rax	#, D.23509
	movzwl	16(%rax), %eax	# _271->mode, D.23503
	movzwl	%ax, %eax	# D.23503, tmp390
	movl	%eax, -24(%rbp)	# tmp390, t_mode
	.loc 1 406 0
	cmpb	$114, -41(%rbp)	#, t_letter
	je	.L84	#,
	.loc 1 406 0 is_stmt 0 discriminator 1
	cmpb	$114, -41(%rbp)	#, t_letter
	je	.L85	#,
	.loc 1 406 0 discriminator 3
	cmpb	$82, -41(%rbp)	#, t_letter
	je	.L86	#,
	.loc 1 406 0 discriminator 5
	cmpb	$113, -41(%rbp)	#, t_letter
	jne	.L87	#,
	.loc 1 407 0 is_stmt 1 discriminator 7
	movl	target_flags(%rip), %eax	# target_flags, target_flags.61
	andl	$33554432, %eax	#, D.23502
	.loc 1 406 0 discriminator 7
	testl	%eax, %eax	# D.23502
	je	.L88	#,
	.loc 1 406 0 is_stmt 0 discriminator 9
	movl	$12, %eax	#, iftmp.60
	jmp	.L136	#
.L88:
	.loc 1 406 0 discriminator 10
	movl	$8, %eax	#, iftmp.60
	jmp	.L136	#
.L87:
	.loc 1 406 0 discriminator 8
	cmpb	$81, -41(%rbp)	#, t_letter
	je	.L91	#,
	.loc 1 406 0 discriminator 11
	cmpb	$102, -41(%rbp)	#, t_letter
	jne	.L92	#,
	.loc 1 407 0 is_stmt 1 discriminator 13
	movl	target_flags(%rip), %eax	# target_flags, target_flags.65
	andl	$1, %eax	#, D.23502
	.loc 1 406 0 discriminator 13
	testl	%eax, %eax	# D.23502
	jne	.L93	#,
	.loc 1 407 0
	movl	target_flags(%rip), %eax	# target_flags, target_flags.66
	andl	$32, %eax	#, D.23502
	testl	%eax, %eax	# D.23502
	je	.L94	#,
.L93:
	.loc 1 406 0 discriminator 15
	movl	$15, %eax	#, iftmp.64
	jmp	.L95	#
.L94:
	.loc 1 406 0 is_stmt 0
	movl	$0, %eax	#, iftmp.64
.L95:
	jmp	.L136	#
.L92:
	.loc 1 406 0 discriminator 14
	cmpb	$116, -41(%rbp)	#, t_letter
	jne	.L97	#,
	.loc 1 407 0 is_stmt 1 discriminator 17
	movl	target_flags(%rip), %eax	# target_flags, target_flags.69
	andl	$1, %eax	#, D.23502
	.loc 1 406 0 discriminator 17
	testl	%eax, %eax	# D.23502
	jne	.L98	#,
	.loc 1 407 0
	movl	target_flags(%rip), %eax	# target_flags, target_flags.70
	andl	$32, %eax	#, D.23502
	testl	%eax, %eax	# D.23502
	je	.L99	#,
.L98:
	.loc 1 406 0 discriminator 19
	movl	$13, %eax	#, iftmp.68
	jmp	.L100	#
.L99:
	.loc 1 406 0 is_stmt 0
	movl	$0, %eax	#, iftmp.68
.L100:
	jmp	.L136	#
.L97:
	.loc 1 406 0 discriminator 18
	cmpb	$117, -41(%rbp)	#, t_letter
	jne	.L102	#,
	.loc 1 407 0 is_stmt 1 discriminator 21
	movl	target_flags(%rip), %eax	# target_flags, target_flags.73
	andl	$1, %eax	#, D.23502
	.loc 1 406 0 discriminator 21
	testl	%eax, %eax	# D.23502
	jne	.L103	#,
	.loc 1 407 0
	movl	target_flags(%rip), %eax	# target_flags, target_flags.74
	andl	$32, %eax	#, D.23502
	testl	%eax, %eax	# D.23502
	je	.L104	#,
.L103:
	.loc 1 406 0 discriminator 23
	movl	$14, %eax	#, iftmp.72
	jmp	.L105	#
.L104:
	.loc 1 406 0 is_stmt 0
	movl	$0, %eax	#, iftmp.72
.L105:
	jmp	.L136	#
.L102:
	.loc 1 406 0 discriminator 22
	cmpb	$97, -41(%rbp)	#, t_letter
	je	.L107	#,
	.loc 1 406 0 discriminator 25
	cmpb	$98, -41(%rbp)	#, t_letter
	je	.L108	#,
	.loc 1 406 0 discriminator 27
	cmpb	$99, -41(%rbp)	#, t_letter
	je	.L109	#,
	.loc 1 406 0 discriminator 29
	cmpb	$100, -41(%rbp)	#, t_letter
	je	.L110	#,
	.loc 1 406 0 discriminator 31
	cmpb	$120, -41(%rbp)	#, t_letter
	jne	.L111	#,
	.loc 1 407 0 is_stmt 1 discriminator 33
	movl	target_flags(%rip), %eax	# target_flags, target_flags.81
	andl	$327680, %eax	#, D.23502
	.loc 1 406 0 discriminator 33
	testl	%eax, %eax	# D.23502
	je	.L112	#,
	.loc 1 406 0 is_stmt 0 discriminator 35
	movl	$16, %eax	#, iftmp.80
	jmp	.L136	#
.L112:
	.loc 1 406 0 discriminator 36
	movl	$0, %eax	#, iftmp.80
	jmp	.L136	#
.L111:
	.loc 1 406 0 discriminator 34
	cmpb	$89, -41(%rbp)	#, t_letter
	jne	.L115	#,
	.loc 1 407 0 is_stmt 1 discriminator 37
	movl	target_flags(%rip), %eax	# target_flags, target_flags.84
	andl	$262144, %eax	#, D.23502
	.loc 1 406 0 discriminator 37
	testl	%eax, %eax	# D.23502
	je	.L116	#,
	.loc 1 406 0 is_stmt 0 discriminator 39
	movl	$16, %eax	#, iftmp.83
	jmp	.L136	#
.L116:
	.loc 1 406 0 discriminator 40
	movl	$0, %eax	#, iftmp.83
	jmp	.L136	#
.L115:
	.loc 1 406 0 discriminator 38
	cmpb	$121, -41(%rbp)	#, t_letter
	jne	.L119	#,
	.loc 1 407 0 is_stmt 1 discriminator 41
	movl	target_flags(%rip), %eax	# target_flags, target_flags.87
	andl	$16384, %eax	#, D.23502
	.loc 1 406 0 discriminator 41
	testl	%eax, %eax	# D.23502
	je	.L120	#,
	.loc 1 406 0 is_stmt 0 discriminator 43
	movl	$17, %eax	#, iftmp.86
	jmp	.L136	#
.L120:
	.loc 1 406 0 discriminator 44
	movl	$0, %eax	#, iftmp.86
	jmp	.L136	#
.L119:
	.loc 1 406 0 discriminator 42
	cmpb	$65, -41(%rbp)	#, t_letter
	je	.L123	#,
	.loc 1 406 0 discriminator 45
	cmpb	$68, -41(%rbp)	#, t_letter
	je	.L124	#,
	.loc 1 406 0 discriminator 47
	cmpb	$83, -41(%rbp)	#, t_letter
	jne	.L125	#,
	.loc 1 406 0 discriminator 49
	movl	$5, %eax	#, iftmp.90
	jmp	.L136	#
.L125:
	.loc 1 406 0 discriminator 50
	movl	$0, %eax	#, iftmp.90
	jmp	.L136	#
.L124:
	.loc 1 406 0 discriminator 48
	movl	$6, %eax	#, iftmp.89
	jmp	.L136	#
.L123:
	.loc 1 406 0 discriminator 46
	movl	$7, %eax	#, iftmp.88
	jmp	.L136	#
.L110:
	.loc 1 406 0 discriminator 32
	movl	$2, %eax	#, iftmp.78
	jmp	.L136	#
.L109:
	.loc 1 406 0 discriminator 30
	movl	$3, %eax	#, iftmp.77
	jmp	.L136	#
.L108:
	.loc 1 406 0 discriminator 28
	movl	$4, %eax	#, iftmp.76
	jmp	.L136	#
.L107:
	.loc 1 406 0 discriminator 26
	movl	$1, %eax	#, iftmp.75
	jmp	.L136	#
.L91:
	.loc 1 406 0 discriminator 12
	movl	$8, %eax	#, iftmp.62
	jmp	.L136	#
.L86:
	.loc 1 406 0 discriminator 6
	movl	$11, %eax	#, iftmp.58
	jmp	.L136	#
.L85:
	.loc 1 406 0 discriminator 4
	movl	$12, %eax	#, iftmp.57
	jmp	.L136	#
.L84:
	.loc 1 406 0 discriminator 2
	movl	$12, %eax	#, iftmp.56
.L136:
	.loc 1 406 0 discriminator 58
	movl	%eax, -28(%rbp)	# iftmp.56, t_class
	.loc 1 408 0 is_stmt 1 discriminator 58
	movl	-32(%rbp), %eax	# icode, tmp391
	movl	%eax, -20(%rbp)	# tmp391, t_icode
	.loc 1 409 0 discriminator 58
	movl	$1317, -32(%rbp)	#, icode
.L18:
.LBE4:
.LBE2:
	.loc 1 427 0
	cmpl	$0, -52(%rbp)	#, in_p
	je	.L137	#,
	.loc 1 427 0 is_stmt 0 discriminator 1
	movl	-40(%rbp), %eax	# class, tmp392
	cmpl	-72(%rbp), %eax	# reload_class, tmp392
	jne	.L137	#,
	cmpl	$1317, -32(%rbp)	#, icode
	jne	.L137	#,
	.loc 1 428 0 is_stmt 1
	cmpl	$1317, -20(%rbp)	#, t_icode
	jne	.L137	#,
	.loc 1 429 0
	movl	$__FUNCTION__.11576, %edx	#,
	movl	$429, %esi	#,
	movl	$.LC0, %edi	#,
	call	fancy_abort	#
.L137:
	.loc 1 434 0
	cmpl	$0, -28(%rbp)	#, t_class
	je	.L138	#,
	.loc 1 436 0
	movl	$0, -8(%rbp)	#, t_reload
	jmp	.L139	#
.L154:
	.loc 1 437 0
	movl	-8(%rbp), %eax	# t_reload, tmp394
	movslq	%eax, %rdx	# tmp394, tmp393
	movq	%rdx, %rax	# tmp393, tmp395
	addq	%rax, %rax	# tmp395
	addq	%rdx, %rax	# tmp393, tmp395
	salq	$2, %rax	#, tmp395
	addq	%rdx, %rax	# tmp393, tmp395
	salq	$3, %rax	#, tmp396
	addq	$rld+96, %rax	#, tmp397
	movzbl	(%rax), %eax	#, tmp400
	shrb	$2, %al	#, D.23514
	andl	$1, %eax	#, D.23514
	testb	%al, %al	# D.23514
	je	.L140	#,
	.loc 1 438 0
	movl	-8(%rbp), %eax	# t_reload, tmp402
	movslq	%eax, %rdx	# tmp402, tmp401
	movq	%rdx, %rax	# tmp401, tmp403
	addq	%rax, %rax	# tmp403
	addq	%rdx, %rax	# tmp401, tmp403
	salq	$2, %rax	#, tmp403
	addq	%rdx, %rax	# tmp401, tmp403
	salq	$3, %rax	#, tmp404
	addq	$rld+16, %rax	#, tmp405
	movl	(%rax), %edx	# rld[t_reload_16].class, D.23515
	movl	-28(%rbp), %eax	# t_class, tmp406
	movl	%edx, %esi	# D.23515,
	movl	%eax, %edi	# tmp406,
	call	reg_class_subset_p	#
	testl	%eax, %eax	# D.23502
	jne	.L141	#,
	.loc 1 439 0
	movl	-8(%rbp), %eax	# t_reload, tmp408
	movslq	%eax, %rdx	# tmp408, tmp407
	movq	%rdx, %rax	# tmp407, tmp409
	addq	%rax, %rax	# tmp409
	addq	%rdx, %rax	# tmp407, tmp409
	salq	$2, %rax	#, tmp409
	addq	%rdx, %rax	# tmp407, tmp409
	salq	$3, %rax	#, tmp410
	addq	$rld+16, %rax	#, tmp411
	movl	(%rax), %eax	# rld[t_reload_16].class, D.23515
	movl	-28(%rbp), %edx	# t_class, tmp412
	movl	%edx, %esi	# tmp412,
	movl	%eax, %edi	# D.23515,
	call	reg_class_subset_p	#
	testl	%eax, %eax	# D.23502
	je	.L140	#,
.L141:
	.loc 1 440 0
	cmpl	$0, -52(%rbp)	#, in_p
	je	.L142	#,
	.loc 1 440 0 is_stmt 0 discriminator 1
	movl	-8(%rbp), %eax	# t_reload, tmp414
	movslq	%eax, %rdx	# tmp414, tmp413
	movq	%rdx, %rax	# tmp413, tmp415
	addq	%rax, %rax	# tmp415
	addq	%rdx, %rax	# tmp413, tmp415
	salq	$2, %rax	#, tmp415
	addq	%rdx, %rax	# tmp413, tmp415
	salq	$3, %rax	#, tmp416
	addq	$rld+16, %rax	#, tmp417
	movl	4(%rax), %eax	# rld[t_reload_16].inmode, D.23516
	cmpl	-24(%rbp), %eax	# t_mode, D.23516
	je	.L143	#,
.L142:
	.loc 1 441 0 is_stmt 1
	cmpl	$0, -52(%rbp)	#, in_p
	jne	.L140	#,
	.loc 1 441 0 is_stmt 0 discriminator 1
	movl	-8(%rbp), %eax	# t_reload, tmp419
	movslq	%eax, %rdx	# tmp419, tmp418
	movq	%rdx, %rax	# tmp418, tmp420
	addq	%rax, %rax	# tmp420
	addq	%rdx, %rax	# tmp418, tmp420
	salq	$2, %rax	#, tmp420
	addq	%rdx, %rax	# tmp418, tmp420
	salq	$3, %rax	#, tmp421
	addq	$rld+16, %rax	#, tmp422
	movl	8(%rax), %eax	# rld[t_reload_16].outmode, D.23516
	cmpl	-24(%rbp), %eax	# t_mode, D.23516
	jne	.L140	#,
.L143:
	.loc 1 442 0 is_stmt 1
	cmpl	$0, -52(%rbp)	#, in_p
	je	.L144	#,
	.loc 1 442 0 is_stmt 0 discriminator 1
	movl	-8(%rbp), %eax	# t_reload, tmp424
	movslq	%eax, %rdx	# tmp424, tmp423
	movq	%rdx, %rax	# tmp423, tmp425
	addq	%rax, %rax	# tmp425
	addq	%rdx, %rax	# tmp423, tmp425
	salq	$2, %rax	#, tmp425
	addq	%rdx, %rax	# tmp423, tmp425
	salq	$3, %rax	#, tmp426
	addq	$rld+80, %rax	#, tmp427
	movl	4(%rax), %eax	# rld[t_reload_16].secondary_in_icode, D.23517
	cmpl	$1317, %eax	#, D.23517
	je	.L145	#,
.L144:
	.loc 1 444 0 is_stmt 1
	cmpl	$0, -52(%rbp)	#, in_p
	jne	.L140	#,
	.loc 1 444 0 is_stmt 0 discriminator 1
	movl	-8(%rbp), %eax	# t_reload, tmp429
	movslq	%eax, %rdx	# tmp429, tmp428
	movq	%rdx, %rax	# tmp428, tmp430
	addq	%rax, %rax	# tmp430
	addq	%rdx, %rax	# tmp428, tmp430
	salq	$2, %rax	#, tmp430
	addq	%rdx, %rax	# tmp428, tmp430
	salq	$3, %rax	#, tmp431
	addq	$rld+80, %rax	#, tmp432
	movl	8(%rax), %eax	# rld[t_reload_16].secondary_out_icode, D.23517
	cmpl	$1317, %eax	#, D.23517
	jne	.L140	#,
.L145:
	.loc 1 447 0 is_stmt 1
	cmpl	$9, -16(%rbp)	#, secondary_type
	je	.L146	#,
	.loc 1 447 0 is_stmt 0 discriminator 1
	movl	-8(%rbp), %eax	# t_reload, tmp434
	movslq	%eax, %rdx	# tmp434, tmp433
	movq	%rdx, %rax	# tmp433, tmp435
	addq	%rax, %rax	# tmp435
	addq	%rdx, %rax	# tmp433, tmp435
	salq	$2, %rax	#, tmp435
	addq	%rdx, %rax	# tmp433, tmp435
	salq	$3, %rax	#, tmp436
	addq	$rld+80, %rax	#, tmp437
	movl	12(%rax), %eax	# rld[t_reload_16].when_needed, D.23518
	cmpl	$9, %eax	#, D.23518
	je	.L146	#,
	movl	-8(%rbp), %eax	# t_reload, tmp439
	movslq	%eax, %rdx	# tmp439, tmp438
	movq	%rdx, %rax	# tmp438, tmp440
	addq	%rax, %rax	# tmp440
	addq	%rdx, %rax	# tmp438, tmp440
	salq	$2, %rax	#, tmp440
	addq	%rdx, %rax	# tmp438, tmp440
	salq	$3, %rax	#, tmp441
	addq	$rld+80, %rax	#, tmp442
	movl	12(%rax), %eax	# rld[t_reload_16].when_needed, D.23518
	cmpl	-16(%rbp), %eax	# secondary_type, D.23518
	jne	.L147	#,
	movl	-8(%rbp), %eax	# t_reload, tmp444
	movslq	%eax, %rdx	# tmp444, tmp443
	movq	%rdx, %rax	# tmp443, tmp445
	addq	%rax, %rax	# tmp445
	addq	%rdx, %rax	# tmp443, tmp445
	salq	$2, %rax	#, tmp445
	addq	%rdx, %rax	# tmp443, tmp445
	salq	$3, %rax	#, tmp446
	addq	$rld+64, %rax	#, tmp447
	movl	8(%rax), %eax	# rld[t_reload_16].opnum, D.23502
	cmpl	-56(%rbp), %eax	# opnum, D.23502
	je	.L146	#,
.L147:
	.loc 1 447 0 discriminator 2
	cmpl	$0, -16(%rbp)	#, secondary_type
	jne	.L148	#,
	.loc 1 447 0 discriminator 1
	movl	-8(%rbp), %eax	# t_reload, tmp449
	movslq	%eax, %rdx	# tmp449, tmp448
	movq	%rdx, %rax	# tmp448, tmp450
	addq	%rax, %rax	# tmp450
	addq	%rdx, %rax	# tmp448, tmp450
	salq	$2, %rax	#, tmp450
	addq	%rdx, %rax	# tmp448, tmp450
	salq	$3, %rax	#, tmp451
	addq	$rld+80, %rax	#, tmp452
	movl	12(%rax), %eax	# rld[t_reload_16].when_needed, D.23518
	testl	%eax, %eax	# D.23518
	je	.L146	#,
.L148:
	.loc 1 447 0 discriminator 2
	cmpl	$7, -16(%rbp)	#, secondary_type
	jne	.L149	#,
	.loc 1 447 0 discriminator 1
	movl	-8(%rbp), %eax	# t_reload, tmp454
	movslq	%eax, %rdx	# tmp454, tmp453
	movq	%rdx, %rax	# tmp453, tmp455
	addq	%rax, %rax	# tmp455
	addq	%rdx, %rax	# tmp453, tmp455
	salq	$2, %rax	#, tmp455
	addq	%rdx, %rax	# tmp453, tmp455
	salq	$3, %rax	#, tmp456
	addq	$rld+80, %rax	#, tmp457
	movl	12(%rax), %eax	# rld[t_reload_16].when_needed, D.23518
	cmpl	$7, %eax	#, D.23518
	je	.L146	#,
.L149:
	.loc 1 447 0 discriminator 2
	cmpl	$10, -16(%rbp)	#, secondary_type
	jne	.L140	#,
	.loc 1 447 0 discriminator 1
	movl	-8(%rbp), %eax	# t_reload, tmp459
	movslq	%eax, %rdx	# tmp459, tmp458
	movq	%rdx, %rax	# tmp458, tmp460
	addq	%rax, %rax	# tmp460
	addq	%rdx, %rax	# tmp458, tmp460
	salq	$2, %rax	#, tmp460
	addq	%rdx, %rax	# tmp458, tmp460
	salq	$3, %rax	#, tmp461
	addq	$rld+80, %rax	#, tmp462
	movl	12(%rax), %eax	# rld[t_reload_16].when_needed, D.23518
	cmpl	$10, %eax	#, D.23518
	jne	.L140	#,
.L146:
	.loc 1 451 0 is_stmt 1
	cmpl	$0, -52(%rbp)	#, in_p
	je	.L150	#,
	.loc 1 452 0
	movl	-8(%rbp), %eax	# t_reload, tmp464
	movslq	%eax, %rdx	# tmp464, tmp463
	movq	%rdx, %rax	# tmp463, tmp465
	addq	%rax, %rax	# tmp465
	addq	%rdx, %rax	# tmp463, tmp465
	salq	$2, %rax	#, tmp465
	addq	%rdx, %rax	# tmp463, tmp465
	salq	$3, %rax	#, tmp466
	leaq	rld+16(%rax), %rdx	#, tmp467
	movl	-24(%rbp), %eax	# t_mode, tmp468
	movl	%eax, 4(%rdx)	# tmp468, rld[t_reload_16].inmode
.L150:
	.loc 1 453 0
	cmpl	$0, -52(%rbp)	#, in_p
	jne	.L151	#,
	.loc 1 454 0
	movl	-8(%rbp), %eax	# t_reload, tmp470
	movslq	%eax, %rdx	# tmp470, tmp469
	movq	%rdx, %rax	# tmp469, tmp471
	addq	%rax, %rax	# tmp471
	addq	%rdx, %rax	# tmp469, tmp471
	salq	$2, %rax	#, tmp471
	addq	%rdx, %rax	# tmp469, tmp471
	salq	$3, %rax	#, tmp472
	leaq	rld+16(%rax), %rdx	#, tmp473
	movl	-24(%rbp), %eax	# t_mode, tmp474
	movl	%eax, 8(%rdx)	# tmp474, rld[t_reload_16].outmode
.L151:
	.loc 1 456 0
	movl	-8(%rbp), %eax	# t_reload, tmp476
	movslq	%eax, %rdx	# tmp476, tmp475
	movq	%rdx, %rax	# tmp475, tmp477
	addq	%rax, %rax	# tmp477
	addq	%rdx, %rax	# tmp475, tmp477
	salq	$2, %rax	#, tmp477
	addq	%rdx, %rax	# tmp475, tmp477
	salq	$3, %rax	#, tmp478
	addq	$rld+16, %rax	#, tmp479
	movl	(%rax), %edx	# rld[t_reload_16].class, D.23515
	movl	-28(%rbp), %eax	# t_class, tmp480
	movl	%edx, %esi	# D.23515,
	movl	%eax, %edi	# tmp480,
	call	reg_class_subset_p	#
	testl	%eax, %eax	# D.23502
	je	.L152	#,
	.loc 1 457 0
	movl	-8(%rbp), %eax	# t_reload, tmp482
	movslq	%eax, %rdx	# tmp482, tmp481
	movq	%rdx, %rax	# tmp481, tmp483
	addq	%rax, %rax	# tmp483
	addq	%rdx, %rax	# tmp481, tmp483
	salq	$2, %rax	#, tmp483
	addq	%rdx, %rax	# tmp481, tmp483
	salq	$3, %rax	#, tmp484
	leaq	rld+16(%rax), %rdx	#, tmp485
	movl	-28(%rbp), %eax	# t_class, tmp486
	movl	%eax, (%rdx)	# tmp486, rld[t_reload_16].class
.L152:
	.loc 1 459 0
	movl	-8(%rbp), %eax	# t_reload, tmp488
	movslq	%eax, %rdx	# tmp488, tmp487
	movq	%rdx, %rax	# tmp487, tmp489
	addq	%rax, %rax	# tmp489
	addq	%rdx, %rax	# tmp487, tmp489
	salq	$2, %rax	#, tmp489
	addq	%rdx, %rax	# tmp487, tmp489
	salq	$3, %rax	#, tmp490
	addq	$rld+64, %rax	#, tmp491
	movl	8(%rax), %edx	# rld[t_reload_16].opnum, D.23502
	movl	-56(%rbp), %eax	# opnum, tmp492
	cmpl	%eax, %edx	# tmp492, D.23502
	cmovle	%edx, %eax	# D.23502,, D.23502
	movl	%eax, %ecx	# D.23502, D.23502
	movl	-8(%rbp), %eax	# t_reload, tmp494
	movslq	%eax, %rdx	# tmp494, tmp493
	movq	%rdx, %rax	# tmp493, tmp495
	addq	%rax, %rax	# tmp495
	addq	%rdx, %rax	# tmp493, tmp495
	salq	$2, %rax	#, tmp495
	addq	%rdx, %rax	# tmp493, tmp495
	salq	$3, %rax	#, tmp496
	addq	$rld+64, %rax	#, tmp497
	movl	%ecx, 8(%rax)	# D.23502, rld[t_reload_16].opnum
	.loc 1 460 0
	movl	-8(%rbp), %eax	# t_reload, tmp499
	movslq	%eax, %rdx	# tmp499, tmp498
	movq	%rdx, %rax	# tmp498, tmp500
	addq	%rax, %rax	# tmp500
	addq	%rdx, %rax	# tmp498, tmp500
	salq	$2, %rax	#, tmp500
	addq	%rdx, %rax	# tmp498, tmp500
	salq	$3, %rax	#, tmp501
	addq	$rld+96, %rax	#, tmp502
	movzbl	(%rax), %eax	#, tmp505
	andl	$1, %eax	#, D.23514
	movl	%eax, %edx	# D.23514, D.23519
	movl	-68(%rbp), %eax	# optional, tmp506
	andl	%edx, %eax	# D.23519, D.23519
	andl	$1, %eax	#, D.23514
	movl	%eax, %ecx	# D.23514, D.23514
	movl	-8(%rbp), %eax	# t_reload, tmp508
	movslq	%eax, %rdx	# tmp508, tmp507
	movq	%rdx, %rax	# tmp507, tmp509
	addq	%rax, %rax	# tmp509
	addq	%rdx, %rax	# tmp507, tmp509
	salq	$2, %rax	#, tmp509
	addq	%rdx, %rax	# tmp507, tmp509
	salq	$3, %rax	#, tmp510
	addq	$rld+96, %rax	#, tmp511
	andl	$1, %ecx	#, tmp513
	movzbl	(%rax), %edx	# rld[t_reload_16].optional, tmp514
	andl	$-2, %edx	#, tmp515
	orl	%ecx, %edx	# tmp513, tmp516
	movb	%dl, (%rax)	# tmp516, rld[t_reload_16].optional
	.loc 1 461 0
	movl	-8(%rbp), %eax	# t_reload, tmp518
	movslq	%eax, %rdx	# tmp518, tmp517
	movq	%rdx, %rax	# tmp517, tmp519
	addq	%rax, %rax	# tmp519
	addq	%rdx, %rax	# tmp517, tmp519
	salq	$2, %rax	#, tmp519
	addq	%rdx, %rax	# tmp517, tmp519
	salq	$3, %rax	#, tmp520
	addq	$rld+96, %rax	#, tmp521
	movzbl	(%rax), %edx	# rld[t_reload_16].secondary_p, tmp524
	orl	$4, %edx	#, tmp525
	movb	%dl, (%rax)	# tmp525, rld[t_reload_16].secondary_p
	.loc 1 462 0
	movl	-8(%rbp), %eax	# t_reload, tmp527
	movslq	%eax, %rdx	# tmp527, tmp526
	movq	%rdx, %rax	# tmp526, tmp528
	addq	%rax, %rax	# tmp528
	addq	%rdx, %rax	# tmp526, tmp528
	salq	$2, %rax	#, tmp528
	addq	%rdx, %rax	# tmp526, tmp528
	salq	$3, %rax	#, tmp529
	addq	$rld+80, %rax	#, tmp530
	movl	12(%rax), %eax	# rld[t_reload_16].when_needed, D.23518
	cmpl	-16(%rbp), %eax	# secondary_type, D.23518
	jne	.L153	#,
	.loc 1 462 0 is_stmt 0 discriminator 1
	movl	-8(%rbp), %eax	# t_reload, tmp532
	movslq	%eax, %rdx	# tmp532, tmp531
	movq	%rdx, %rax	# tmp531, tmp533
	addq	%rax, %rax	# tmp533
	addq	%rdx, %rax	# tmp531, tmp533
	salq	$2, %rax	#, tmp533
	addq	%rdx, %rax	# tmp531, tmp533
	salq	$3, %rax	#, tmp534
	addq	$rld+64, %rax	#, tmp535
	movl	8(%rax), %eax	# rld[t_reload_16].opnum, D.23502
	cmpl	-56(%rbp), %eax	# opnum, D.23502
	je	.L140	#,
	cmpl	$0, -16(%rbp)	#, secondary_type
	je	.L140	#,
	cmpl	$7, -16(%rbp)	#, secondary_type
	je	.L140	#,
	cmpl	$10, -16(%rbp)	#, secondary_type
	je	.L140	#,
.L153:
	.loc 1 464 0 is_stmt 1
	movl	-8(%rbp), %eax	# t_reload, tmp537
	movslq	%eax, %rdx	# tmp537, tmp536
	movq	%rdx, %rax	# tmp536, tmp538
	addq	%rax, %rax	# tmp538
	addq	%rdx, %rax	# tmp536, tmp538
	salq	$2, %rax	#, tmp538
	addq	%rdx, %rax	# tmp536, tmp538
	salq	$3, %rax	#, tmp539
	addq	$rld+80, %rax	#, tmp540
	movl	$9, 12(%rax)	#, rld[t_reload_16].when_needed
.L140:
	.loc 1 436 0
	addl	$1, -8(%rbp)	#, t_reload
.L139:
	.loc 1 436 0 is_stmt 0 discriminator 1
	movl	n_reloads(%rip), %eax	# n_reloads, n_reloads.91
	cmpl	%eax, -8(%rbp)	# n_reloads.91, t_reload
	jl	.L154	#,
	.loc 1 467 0 is_stmt 1
	movl	n_reloads(%rip), %eax	# n_reloads, n_reloads.92
	cmpl	%eax, -8(%rbp)	# n_reloads.92, t_reload
	jne	.L138	#,
	.loc 1 470 0
	movl	-8(%rbp), %eax	# t_reload, tmp542
	movslq	%eax, %rdx	# tmp542, tmp541
	movq	%rdx, %rax	# tmp541, tmp543
	addq	%rax, %rax	# tmp543
	addq	%rdx, %rax	# tmp541, tmp543
	salq	$2, %rax	#, tmp543
	addq	%rdx, %rax	# tmp541, tmp543
	salq	$3, %rax	#, tmp544
	addq	$rld, %rax	#, tmp545
	movq	$0, 8(%rax)	#, rld[t_reload_16].out
	movl	-8(%rbp), %eax	# t_reload, tmp547
	movslq	%eax, %rdx	# tmp547, tmp546
	movq	%rdx, %rax	# tmp546, tmp548
	addq	%rax, %rax	# tmp548
	addq	%rdx, %rax	# tmp546, tmp548
	salq	$2, %rax	#, tmp548
	addq	%rdx, %rax	# tmp546, tmp548
	salq	$3, %rax	#, tmp549
	addq	$rld, %rax	#, tmp550
	movq	8(%rax), %rcx	# rld[t_reload_16].out, D.23505
	movl	-8(%rbp), %eax	# t_reload, tmp552
	movslq	%eax, %rdx	# tmp552, tmp551
	movq	%rdx, %rax	# tmp551, tmp553
	addq	%rax, %rax	# tmp553
	addq	%rdx, %rax	# tmp551, tmp553
	salq	$2, %rax	#, tmp553
	addq	%rdx, %rax	# tmp551, tmp553
	salq	$3, %rax	#, tmp554
	addq	$rld, %rax	#, tmp555
	movq	%rcx, (%rax)	# D.23505, rld[t_reload_16].in
	.loc 1 471 0
	movl	-8(%rbp), %eax	# t_reload, tmp557
	movslq	%eax, %rdx	# tmp557, tmp556
	movq	%rdx, %rax	# tmp556, tmp558
	addq	%rax, %rax	# tmp558
	addq	%rdx, %rax	# tmp556, tmp558
	salq	$2, %rax	#, tmp558
	addq	%rdx, %rax	# tmp556, tmp558
	salq	$3, %rax	#, tmp559
	leaq	rld+16(%rax), %rdx	#, tmp560
	movl	-28(%rbp), %eax	# t_class, tmp561
	movl	%eax, (%rdx)	# tmp561, rld[t_reload_16].class
	.loc 1 472 0
	cmpl	$0, -52(%rbp)	#, in_p
	je	.L155	#,
	.loc 1 472 0 is_stmt 0 discriminator 1
	movl	-24(%rbp), %ecx	# t_mode, iftmp.93
	jmp	.L156	#
.L155:
	.loc 1 472 0 discriminator 2
	movl	$0, %ecx	#, iftmp.93
.L156:
	.loc 1 472 0 discriminator 3
	movl	-8(%rbp), %eax	# t_reload, tmp563
	movslq	%eax, %rdx	# tmp563, tmp562
	movq	%rdx, %rax	# tmp562, tmp564
	addq	%rax, %rax	# tmp564
	addq	%rdx, %rax	# tmp562, tmp564
	salq	$2, %rax	#, tmp564
	addq	%rdx, %rax	# tmp562, tmp564
	salq	$3, %rax	#, tmp565
	addq	$rld+16, %rax	#, tmp566
	movl	%ecx, 4(%rax)	# iftmp.93, rld[t_reload_16].inmode
	.loc 1 473 0 is_stmt 1 discriminator 3
	cmpl	$0, -52(%rbp)	#, in_p
	jne	.L157	#,
	.loc 1 473 0 is_stmt 0 discriminator 1
	movl	-24(%rbp), %ecx	# t_mode, iftmp.94
	jmp	.L158	#
.L157:
	.loc 1 473 0 discriminator 2
	movl	$0, %ecx	#, iftmp.94
.L158:
	.loc 1 473 0 discriminator 3
	movl	-8(%rbp), %eax	# t_reload, tmp568
	movslq	%eax, %rdx	# tmp568, tmp567
	movq	%rdx, %rax	# tmp567, tmp569
	addq	%rax, %rax	# tmp569
	addq	%rdx, %rax	# tmp567, tmp569
	salq	$2, %rax	#, tmp569
	addq	%rdx, %rax	# tmp567, tmp569
	salq	$3, %rax	#, tmp570
	addq	$rld+16, %rax	#, tmp571
	movl	%ecx, 8(%rax)	# iftmp.94, rld[t_reload_16].outmode
	.loc 1 474 0 is_stmt 1 discriminator 3
	movl	-8(%rbp), %eax	# t_reload, tmp573
	movslq	%eax, %rdx	# tmp573, tmp572
	movq	%rdx, %rax	# tmp572, tmp574
	addq	%rax, %rax	# tmp574
	addq	%rdx, %rax	# tmp572, tmp574
	salq	$2, %rax	#, tmp574
	addq	%rdx, %rax	# tmp572, tmp574
	salq	$3, %rax	#, tmp575
	addq	$rld+64, %rax	#, tmp576
	movq	$0, (%rax)	#, rld[t_reload_16].reg_rtx
	.loc 1 475 0 discriminator 3
	movl	-68(%rbp), %eax	# optional, tmp577
	andl	$1, %eax	#, D.23514
	movl	%eax, %ecx	# D.23514, D.23514
	movl	-8(%rbp), %eax	# t_reload, tmp579
	movslq	%eax, %rdx	# tmp579, tmp578
	movq	%rdx, %rax	# tmp578, tmp580
	addq	%rax, %rax	# tmp580
	addq	%rdx, %rax	# tmp578, tmp580
	salq	$2, %rax	#, tmp580
	addq	%rdx, %rax	# tmp578, tmp580
	salq	$3, %rax	#, tmp581
	addq	$rld+96, %rax	#, tmp582
	andl	$1, %ecx	#, tmp584
	movzbl	(%rax), %edx	# rld[t_reload_16].optional, tmp585
	andl	$-2, %edx	#, tmp586
	orl	%ecx, %edx	# tmp584, tmp587
	movb	%dl, (%rax)	# tmp587, rld[t_reload_16].optional
	.loc 1 476 0 discriminator 3
	movl	-8(%rbp), %eax	# t_reload, tmp589
	movslq	%eax, %rdx	# tmp589, tmp588
	movq	%rdx, %rax	# tmp588, tmp590
	addq	%rax, %rax	# tmp590
	addq	%rdx, %rax	# tmp588, tmp590
	salq	$2, %rax	#, tmp590
	addq	%rdx, %rax	# tmp588, tmp590
	salq	$3, %rax	#, tmp591
	addq	$rld+32, %rax	#, tmp592
	movl	$0, 4(%rax)	#, rld[t_reload_16].inc
	.loc 1 478 0 discriminator 3
	movl	-8(%rbp), %eax	# t_reload, tmp594
	movslq	%eax, %rdx	# tmp594, tmp593
	movq	%rdx, %rax	# tmp593, tmp595
	addq	%rax, %rax	# tmp595
	addq	%rdx, %rax	# tmp593, tmp595
	salq	$2, %rax	#, tmp595
	addq	%rdx, %rax	# tmp593, tmp595
	salq	$3, %rax	#, tmp596
	addq	$rld+96, %rax	#, tmp597
	movzbl	(%rax), %edx	# rld[t_reload_16].nocombine, tmp600
	orl	$2, %edx	#, tmp601
	movb	%dl, (%rax)	# tmp601, rld[t_reload_16].nocombine
	.loc 1 479 0 discriminator 3
	movl	-8(%rbp), %eax	# t_reload, tmp603
	movslq	%eax, %rdx	# tmp603, tmp602
	movq	%rdx, %rax	# tmp602, tmp604
	addq	%rax, %rax	# tmp604
	addq	%rdx, %rax	# tmp602, tmp604
	salq	$2, %rax	#, tmp604
	addq	%rdx, %rax	# tmp602, tmp604
	salq	$3, %rax	#, tmp605
	addq	$rld+32, %rax	#, tmp606
	movq	$0, 8(%rax)	#, rld[t_reload_16].in_reg
	.loc 1 480 0 discriminator 3
	movl	-8(%rbp), %eax	# t_reload, tmp608
	movslq	%eax, %rdx	# tmp608, tmp607
	movq	%rdx, %rax	# tmp607, tmp609
	addq	%rax, %rax	# tmp609
	addq	%rdx, %rax	# tmp607, tmp609
	salq	$2, %rax	#, tmp609
	addq	%rdx, %rax	# tmp607, tmp609
	salq	$3, %rax	#, tmp610
	addq	$rld+48, %rax	#, tmp611
	movq	$0, (%rax)	#, rld[t_reload_16].out_reg
	.loc 1 481 0 discriminator 3
	movl	-8(%rbp), %eax	# t_reload, tmp613
	movslq	%eax, %rdx	# tmp613, tmp612
	movq	%rdx, %rax	# tmp612, tmp614
	addq	%rax, %rax	# tmp614
	addq	%rdx, %rax	# tmp612, tmp614
	salq	$2, %rax	#, tmp614
	addq	%rdx, %rax	# tmp612, tmp614
	salq	$3, %rax	#, tmp615
	leaq	rld+64(%rax), %rdx	#, tmp616
	movl	-56(%rbp), %eax	# opnum, tmp617
	movl	%eax, 8(%rdx)	# tmp617, rld[t_reload_16].opnum
	.loc 1 482 0 discriminator 3
	movl	-8(%rbp), %eax	# t_reload, tmp619
	movslq	%eax, %rdx	# tmp619, tmp618
	movq	%rdx, %rax	# tmp618, tmp620
	addq	%rax, %rax	# tmp620
	addq	%rdx, %rax	# tmp618, tmp620
	salq	$2, %rax	#, tmp620
	addq	%rdx, %rax	# tmp618, tmp620
	salq	$3, %rax	#, tmp621
	leaq	rld+80(%rax), %rdx	#, tmp622
	movl	-16(%rbp), %eax	# secondary_type, tmp623
	movl	%eax, 12(%rdx)	# tmp623, rld[t_reload_16].when_needed
	.loc 1 483 0 discriminator 3
	movl	-8(%rbp), %eax	# t_reload, tmp625
	movslq	%eax, %rdx	# tmp625, tmp624
	movq	%rdx, %rax	# tmp624, tmp626
	addq	%rax, %rax	# tmp626
	addq	%rdx, %rax	# tmp624, tmp626
	salq	$2, %rax	#, tmp626
	addq	%rdx, %rax	# tmp624, tmp626
	salq	$3, %rax	#, tmp627
	addq	$rld+64, %rax	#, tmp628
	movl	$-1, 12(%rax)	#, rld[t_reload_16].secondary_in_reload
	.loc 1 484 0 discriminator 3
	movl	-8(%rbp), %eax	# t_reload, tmp630
	movslq	%eax, %rdx	# tmp630, tmp629
	movq	%rdx, %rax	# tmp629, tmp631
	addq	%rax, %rax	# tmp631
	addq	%rdx, %rax	# tmp629, tmp631
	salq	$2, %rax	#, tmp631
	addq	%rdx, %rax	# tmp629, tmp631
	salq	$3, %rax	#, tmp632
	addq	$rld+80, %rax	#, tmp633
	movl	$-1, (%rax)	#, rld[t_reload_16].secondary_out_reload
	.loc 1 485 0 discriminator 3
	movl	-8(%rbp), %eax	# t_reload, tmp635
	movslq	%eax, %rdx	# tmp635, tmp634
	movq	%rdx, %rax	# tmp634, tmp636
	addq	%rax, %rax	# tmp636
	addq	%rdx, %rax	# tmp634, tmp636
	salq	$2, %rax	#, tmp636
	addq	%rdx, %rax	# tmp634, tmp636
	salq	$3, %rax	#, tmp637
	addq	$rld+80, %rax	#, tmp638
	movl	$1317, 4(%rax)	#, rld[t_reload_16].secondary_in_icode
	.loc 1 486 0 discriminator 3
	movl	-8(%rbp), %eax	# t_reload, tmp640
	movslq	%eax, %rdx	# tmp640, tmp639
	movq	%rdx, %rax	# tmp639, tmp641
	addq	%rax, %rax	# tmp641
	addq	%rdx, %rax	# tmp639, tmp641
	salq	$2, %rax	#, tmp641
	addq	%rdx, %rax	# tmp639, tmp641
	salq	$3, %rax	#, tmp642
	addq	$rld+80, %rax	#, tmp643
	movl	$1317, 8(%rax)	#, rld[t_reload_16].secondary_out_icode
	.loc 1 487 0 discriminator 3
	movl	-8(%rbp), %eax	# t_reload, tmp645
	movslq	%eax, %rdx	# tmp645, tmp644
	movq	%rdx, %rax	# tmp644, tmp646
	addq	%rax, %rax	# tmp646
	addq	%rdx, %rax	# tmp644, tmp646
	salq	$2, %rax	#, tmp646
	addq	%rdx, %rax	# tmp644, tmp646
	salq	$3, %rax	#, tmp647
	addq	$rld+96, %rax	#, tmp648
	movzbl	(%rax), %edx	# rld[t_reload_16].secondary_p, tmp651
	orl	$4, %edx	#, tmp652
	movb	%dl, (%rax)	# tmp652, rld[t_reload_16].secondary_p
	.loc 1 489 0 discriminator 3
	movl	n_reloads(%rip), %eax	# n_reloads, n_reloads.95
	addl	$1, %eax	#, n_reloads.96
	movl	%eax, n_reloads(%rip)	# n_reloads.96, n_reloads
.L138:
	.loc 1 494 0
	movl	$0, -12(%rbp)	#, s_reload
	jmp	.L159	#
.L176:
	.loc 1 495 0
	movl	-12(%rbp), %eax	# s_reload, tmp654
	movslq	%eax, %rdx	# tmp654, tmp653
	movq	%rdx, %rax	# tmp653, tmp655
	addq	%rax, %rax	# tmp655
	addq	%rdx, %rax	# tmp653, tmp655
	salq	$2, %rax	#, tmp655
	addq	%rdx, %rax	# tmp653, tmp655
	salq	$3, %rax	#, tmp656
	addq	$rld+96, %rax	#, tmp657
	movzbl	(%rax), %eax	#, tmp660
	shrb	$2, %al	#, D.23514
	andl	$1, %eax	#, D.23514
	testb	%al, %al	# D.23514
	je	.L160	#,
	.loc 1 496 0
	movl	-12(%rbp), %eax	# s_reload, tmp662
	movslq	%eax, %rdx	# tmp662, tmp661
	movq	%rdx, %rax	# tmp661, tmp663
	addq	%rax, %rax	# tmp663
	addq	%rdx, %rax	# tmp661, tmp663
	salq	$2, %rax	#, tmp663
	addq	%rdx, %rax	# tmp661, tmp663
	salq	$3, %rax	#, tmp664
	addq	$rld+16, %rax	#, tmp665
	movl	(%rax), %edx	# rld[s_reload_13].class, D.23515
	movl	-40(%rbp), %eax	# class, tmp666
	movl	%edx, %esi	# D.23515,
	movl	%eax, %edi	# tmp666,
	call	reg_class_subset_p	#
	testl	%eax, %eax	# D.23502
	jne	.L161	#,
	.loc 1 497 0
	movl	-12(%rbp), %eax	# s_reload, tmp668
	movslq	%eax, %rdx	# tmp668, tmp667
	movq	%rdx, %rax	# tmp667, tmp669
	addq	%rax, %rax	# tmp669
	addq	%rdx, %rax	# tmp667, tmp669
	salq	$2, %rax	#, tmp669
	addq	%rdx, %rax	# tmp667, tmp669
	salq	$3, %rax	#, tmp670
	addq	$rld+16, %rax	#, tmp671
	movl	(%rax), %eax	# rld[s_reload_13].class, D.23515
	movl	-40(%rbp), %edx	# class, tmp672
	movl	%edx, %esi	# tmp672,
	movl	%eax, %edi	# D.23515,
	call	reg_class_subset_p	#
	testl	%eax, %eax	# D.23502
	je	.L160	#,
.L161:
	.loc 1 498 0
	cmpl	$0, -52(%rbp)	#, in_p
	je	.L162	#,
	.loc 1 498 0 is_stmt 0 discriminator 1
	movl	-12(%rbp), %eax	# s_reload, tmp674
	movslq	%eax, %rdx	# tmp674, tmp673
	movq	%rdx, %rax	# tmp673, tmp675
	addq	%rax, %rax	# tmp675
	addq	%rdx, %rax	# tmp673, tmp675
	salq	$2, %rax	#, tmp675
	addq	%rdx, %rax	# tmp673, tmp675
	salq	$3, %rax	#, tmp676
	addq	$rld+16, %rax	#, tmp677
	movl	4(%rax), %eax	# rld[s_reload_13].inmode, D.23516
	cmpl	-36(%rbp), %eax	# mode, D.23516
	je	.L163	#,
.L162:
	.loc 1 499 0 is_stmt 1
	cmpl	$0, -52(%rbp)	#, in_p
	jne	.L160	#,
	.loc 1 499 0 is_stmt 0 discriminator 1
	movl	-12(%rbp), %eax	# s_reload, tmp679
	movslq	%eax, %rdx	# tmp679, tmp678
	movq	%rdx, %rax	# tmp678, tmp680
	addq	%rax, %rax	# tmp680
	addq	%rdx, %rax	# tmp678, tmp680
	salq	$2, %rax	#, tmp680
	addq	%rdx, %rax	# tmp678, tmp680
	salq	$3, %rax	#, tmp681
	addq	$rld+16, %rax	#, tmp682
	movl	8(%rax), %eax	# rld[s_reload_13].outmode, D.23516
	cmpl	-36(%rbp), %eax	# mode, D.23516
	jne	.L160	#,
.L163:
	.loc 1 500 0 is_stmt 1
	cmpl	$0, -52(%rbp)	#, in_p
	je	.L164	#,
	.loc 1 500 0 is_stmt 0 discriminator 1
	movl	-12(%rbp), %eax	# s_reload, tmp684
	movslq	%eax, %rdx	# tmp684, tmp683
	movq	%rdx, %rax	# tmp683, tmp685
	addq	%rax, %rax	# tmp685
	addq	%rdx, %rax	# tmp683, tmp685
	salq	$2, %rax	#, tmp685
	addq	%rdx, %rax	# tmp683, tmp685
	salq	$3, %rax	#, tmp686
	addq	$rld+64, %rax	#, tmp687
	movl	12(%rax), %eax	# rld[s_reload_13].secondary_in_reload, D.23502
	cmpl	-8(%rbp), %eax	# t_reload, D.23502
	je	.L165	#,
.L164:
	.loc 1 501 0 is_stmt 1
	cmpl	$0, -52(%rbp)	#, in_p
	jne	.L160	#,
	.loc 1 501 0 is_stmt 0 discriminator 1
	movl	-12(%rbp), %eax	# s_reload, tmp689
	movslq	%eax, %rdx	# tmp689, tmp688
	movq	%rdx, %rax	# tmp688, tmp690
	addq	%rax, %rax	# tmp690
	addq	%rdx, %rax	# tmp688, tmp690
	salq	$2, %rax	#, tmp690
	addq	%rdx, %rax	# tmp688, tmp690
	salq	$3, %rax	#, tmp691
	addq	$rld+80, %rax	#, tmp692
	movl	(%rax), %eax	# rld[s_reload_13].secondary_out_reload, D.23502
	cmpl	-8(%rbp), %eax	# t_reload, D.23502
	jne	.L160	#,
.L165:
	.loc 1 502 0 is_stmt 1
	cmpl	$0, -52(%rbp)	#, in_p
	je	.L166	#,
	.loc 1 502 0 is_stmt 0 discriminator 1
	movl	-12(%rbp), %eax	# s_reload, tmp694
	movslq	%eax, %rdx	# tmp694, tmp693
	movq	%rdx, %rax	# tmp693, tmp695
	addq	%rax, %rax	# tmp695
	addq	%rdx, %rax	# tmp693, tmp695
	salq	$2, %rax	#, tmp695
	addq	%rdx, %rax	# tmp693, tmp695
	salq	$3, %rax	#, tmp696
	addq	$rld+80, %rax	#, tmp697
	movl	4(%rax), %eax	# rld[s_reload_13].secondary_in_icode, D.23517
	cmpl	-20(%rbp), %eax	# t_icode, D.23517
	je	.L167	#,
.L166:
	.loc 1 503 0 is_stmt 1
	cmpl	$0, -52(%rbp)	#, in_p
	jne	.L160	#,
	.loc 1 503 0 is_stmt 0 discriminator 1
	movl	-12(%rbp), %eax	# s_reload, tmp699
	movslq	%eax, %rdx	# tmp699, tmp698
	movq	%rdx, %rax	# tmp698, tmp700
	addq	%rax, %rax	# tmp700
	addq	%rdx, %rax	# tmp698, tmp700
	salq	$2, %rax	#, tmp700
	addq	%rdx, %rax	# tmp698, tmp700
	salq	$3, %rax	#, tmp701
	addq	$rld+80, %rax	#, tmp702
	movl	8(%rax), %eax	# rld[s_reload_13].secondary_out_icode, D.23517
	cmpl	-20(%rbp), %eax	# t_icode, D.23517
	jne	.L160	#,
.L167:
	.loc 1 505 0 is_stmt 1
	cmpl	$9, -16(%rbp)	#, secondary_type
	je	.L168	#,
	.loc 1 505 0 is_stmt 0 discriminator 1
	movl	-12(%rbp), %eax	# s_reload, tmp704
	movslq	%eax, %rdx	# tmp704, tmp703
	movq	%rdx, %rax	# tmp703, tmp705
	addq	%rax, %rax	# tmp705
	addq	%rdx, %rax	# tmp703, tmp705
	salq	$2, %rax	#, tmp705
	addq	%rdx, %rax	# tmp703, tmp705
	salq	$3, %rax	#, tmp706
	addq	$rld+80, %rax	#, tmp707
	movl	12(%rax), %eax	# rld[s_reload_13].when_needed, D.23518
	cmpl	$9, %eax	#, D.23518
	je	.L168	#,
	movl	-12(%rbp), %eax	# s_reload, tmp709
	movslq	%eax, %rdx	# tmp709, tmp708
	movq	%rdx, %rax	# tmp708, tmp710
	addq	%rax, %rax	# tmp710
	addq	%rdx, %rax	# tmp708, tmp710
	salq	$2, %rax	#, tmp710
	addq	%rdx, %rax	# tmp708, tmp710
	salq	$3, %rax	#, tmp711
	addq	$rld+80, %rax	#, tmp712
	movl	12(%rax), %eax	# rld[s_reload_13].when_needed, D.23518
	cmpl	-16(%rbp), %eax	# secondary_type, D.23518
	jne	.L169	#,
	movl	-12(%rbp), %eax	# s_reload, tmp714
	movslq	%eax, %rdx	# tmp714, tmp713
	movq	%rdx, %rax	# tmp713, tmp715
	addq	%rax, %rax	# tmp715
	addq	%rdx, %rax	# tmp713, tmp715
	salq	$2, %rax	#, tmp715
	addq	%rdx, %rax	# tmp713, tmp715
	salq	$3, %rax	#, tmp716
	addq	$rld+64, %rax	#, tmp717
	movl	8(%rax), %eax	# rld[s_reload_13].opnum, D.23502
	cmpl	-56(%rbp), %eax	# opnum, D.23502
	je	.L168	#,
.L169:
	.loc 1 505 0 discriminator 2
	cmpl	$0, -16(%rbp)	#, secondary_type
	jne	.L170	#,
	.loc 1 505 0 discriminator 1
	movl	-12(%rbp), %eax	# s_reload, tmp719
	movslq	%eax, %rdx	# tmp719, tmp718
	movq	%rdx, %rax	# tmp718, tmp720
	addq	%rax, %rax	# tmp720
	addq	%rdx, %rax	# tmp718, tmp720
	salq	$2, %rax	#, tmp720
	addq	%rdx, %rax	# tmp718, tmp720
	salq	$3, %rax	#, tmp721
	addq	$rld+80, %rax	#, tmp722
	movl	12(%rax), %eax	# rld[s_reload_13].when_needed, D.23518
	testl	%eax, %eax	# D.23518
	je	.L168	#,
.L170:
	.loc 1 505 0 discriminator 2
	cmpl	$7, -16(%rbp)	#, secondary_type
	jne	.L171	#,
	.loc 1 505 0 discriminator 1
	movl	-12(%rbp), %eax	# s_reload, tmp724
	movslq	%eax, %rdx	# tmp724, tmp723
	movq	%rdx, %rax	# tmp723, tmp725
	addq	%rax, %rax	# tmp725
	addq	%rdx, %rax	# tmp723, tmp725
	salq	$2, %rax	#, tmp725
	addq	%rdx, %rax	# tmp723, tmp725
	salq	$3, %rax	#, tmp726
	addq	$rld+80, %rax	#, tmp727
	movl	12(%rax), %eax	# rld[s_reload_13].when_needed, D.23518
	cmpl	$7, %eax	#, D.23518
	je	.L168	#,
.L171:
	.loc 1 505 0 discriminator 2
	cmpl	$10, -16(%rbp)	#, secondary_type
	jne	.L160	#,
	.loc 1 505 0 discriminator 1
	movl	-12(%rbp), %eax	# s_reload, tmp729
	movslq	%eax, %rdx	# tmp729, tmp728
	movq	%rdx, %rax	# tmp728, tmp730
	addq	%rax, %rax	# tmp730
	addq	%rdx, %rax	# tmp728, tmp730
	salq	$2, %rax	#, tmp730
	addq	%rdx, %rax	# tmp728, tmp730
	salq	$3, %rax	#, tmp731
	addq	$rld+80, %rax	#, tmp732
	movl	12(%rax), %eax	# rld[s_reload_13].when_needed, D.23518
	cmpl	$10, %eax	#, D.23518
	jne	.L160	#,
.L168:
	.loc 1 508 0 is_stmt 1
	cmpl	$0, -52(%rbp)	#, in_p
	je	.L172	#,
	.loc 1 509 0
	movl	-12(%rbp), %eax	# s_reload, tmp734
	movslq	%eax, %rdx	# tmp734, tmp733
	movq	%rdx, %rax	# tmp733, tmp735
	addq	%rax, %rax	# tmp735
	addq	%rdx, %rax	# tmp733, tmp735
	salq	$2, %rax	#, tmp735
	addq	%rdx, %rax	# tmp733, tmp735
	salq	$3, %rax	#, tmp736
	leaq	rld+16(%rax), %rdx	#, tmp737
	movl	-36(%rbp), %eax	# mode, tmp738
	movl	%eax, 4(%rdx)	# tmp738, rld[s_reload_13].inmode
.L172:
	.loc 1 510 0
	cmpl	$0, -52(%rbp)	#, in_p
	jne	.L173	#,
	.loc 1 511 0
	movl	-12(%rbp), %eax	# s_reload, tmp740
	movslq	%eax, %rdx	# tmp740, tmp739
	movq	%rdx, %rax	# tmp739, tmp741
	addq	%rax, %rax	# tmp741
	addq	%rdx, %rax	# tmp739, tmp741
	salq	$2, %rax	#, tmp741
	addq	%rdx, %rax	# tmp739, tmp741
	salq	$3, %rax	#, tmp742
	leaq	rld+16(%rax), %rdx	#, tmp743
	movl	-36(%rbp), %eax	# mode, tmp744
	movl	%eax, 8(%rdx)	# tmp744, rld[s_reload_13].outmode
.L173:
	.loc 1 513 0
	movl	-12(%rbp), %eax	# s_reload, tmp746
	movslq	%eax, %rdx	# tmp746, tmp745
	movq	%rdx, %rax	# tmp745, tmp747
	addq	%rax, %rax	# tmp747
	addq	%rdx, %rax	# tmp745, tmp747
	salq	$2, %rax	#, tmp747
	addq	%rdx, %rax	# tmp745, tmp747
	salq	$3, %rax	#, tmp748
	addq	$rld+16, %rax	#, tmp749
	movl	(%rax), %edx	# rld[s_reload_13].class, D.23515
	movl	-40(%rbp), %eax	# class, tmp750
	movl	%edx, %esi	# D.23515,
	movl	%eax, %edi	# tmp750,
	call	reg_class_subset_p	#
	testl	%eax, %eax	# D.23502
	je	.L174	#,
	.loc 1 514 0
	movl	-12(%rbp), %eax	# s_reload, tmp752
	movslq	%eax, %rdx	# tmp752, tmp751
	movq	%rdx, %rax	# tmp751, tmp753
	addq	%rax, %rax	# tmp753
	addq	%rdx, %rax	# tmp751, tmp753
	salq	$2, %rax	#, tmp753
	addq	%rdx, %rax	# tmp751, tmp753
	salq	$3, %rax	#, tmp754
	leaq	rld+16(%rax), %rdx	#, tmp755
	movl	-40(%rbp), %eax	# class, tmp756
	movl	%eax, (%rdx)	# tmp756, rld[s_reload_13].class
.L174:
	.loc 1 516 0
	movl	-12(%rbp), %eax	# s_reload, tmp758
	movslq	%eax, %rdx	# tmp758, tmp757
	movq	%rdx, %rax	# tmp757, tmp759
	addq	%rax, %rax	# tmp759
	addq	%rdx, %rax	# tmp757, tmp759
	salq	$2, %rax	#, tmp759
	addq	%rdx, %rax	# tmp757, tmp759
	salq	$3, %rax	#, tmp760
	addq	$rld+64, %rax	#, tmp761
	movl	8(%rax), %edx	# rld[s_reload_13].opnum, D.23502
	movl	-56(%rbp), %eax	# opnum, tmp762
	cmpl	%eax, %edx	# tmp762, D.23502
	cmovle	%edx, %eax	# D.23502,, D.23502
	movl	%eax, %ecx	# D.23502, D.23502
	movl	-12(%rbp), %eax	# s_reload, tmp764
	movslq	%eax, %rdx	# tmp764, tmp763
	movq	%rdx, %rax	# tmp763, tmp765
	addq	%rax, %rax	# tmp765
	addq	%rdx, %rax	# tmp763, tmp765
	salq	$2, %rax	#, tmp765
	addq	%rdx, %rax	# tmp763, tmp765
	salq	$3, %rax	#, tmp766
	addq	$rld+64, %rax	#, tmp767
	movl	%ecx, 8(%rax)	# D.23502, rld[s_reload_13].opnum
	.loc 1 517 0
	movl	-12(%rbp), %eax	# s_reload, tmp769
	movslq	%eax, %rdx	# tmp769, tmp768
	movq	%rdx, %rax	# tmp768, tmp770
	addq	%rax, %rax	# tmp770
	addq	%rdx, %rax	# tmp768, tmp770
	salq	$2, %rax	#, tmp770
	addq	%rdx, %rax	# tmp768, tmp770
	salq	$3, %rax	#, tmp771
	addq	$rld+96, %rax	#, tmp772
	movzbl	(%rax), %eax	#, tmp775
	andl	$1, %eax	#, D.23514
	movl	%eax, %edx	# D.23514, D.23519
	movl	-68(%rbp), %eax	# optional, tmp776
	andl	%edx, %eax	# D.23519, D.23519
	andl	$1, %eax	#, D.23514
	movl	%eax, %ecx	# D.23514, D.23514
	movl	-12(%rbp), %eax	# s_reload, tmp778
	movslq	%eax, %rdx	# tmp778, tmp777
	movq	%rdx, %rax	# tmp777, tmp779
	addq	%rax, %rax	# tmp779
	addq	%rdx, %rax	# tmp777, tmp779
	salq	$2, %rax	#, tmp779
	addq	%rdx, %rax	# tmp777, tmp779
	salq	$3, %rax	#, tmp780
	addq	$rld+96, %rax	#, tmp781
	andl	$1, %ecx	#, tmp783
	movzbl	(%rax), %edx	# rld[s_reload_13].optional, tmp784
	andl	$-2, %edx	#, tmp785
	orl	%ecx, %edx	# tmp783, tmp786
	movb	%dl, (%rax)	# tmp786, rld[s_reload_13].optional
	.loc 1 518 0
	movl	-12(%rbp), %eax	# s_reload, tmp788
	movslq	%eax, %rdx	# tmp788, tmp787
	movq	%rdx, %rax	# tmp787, tmp789
	addq	%rax, %rax	# tmp789
	addq	%rdx, %rax	# tmp787, tmp789
	salq	$2, %rax	#, tmp789
	addq	%rdx, %rax	# tmp787, tmp789
	salq	$3, %rax	#, tmp790
	addq	$rld+96, %rax	#, tmp791
	movzbl	(%rax), %edx	# rld[s_reload_13].secondary_p, tmp794
	orl	$4, %edx	#, tmp795
	movb	%dl, (%rax)	# tmp795, rld[s_reload_13].secondary_p
	.loc 1 519 0
	movl	-12(%rbp), %eax	# s_reload, tmp797
	movslq	%eax, %rdx	# tmp797, tmp796
	movq	%rdx, %rax	# tmp796, tmp798
	addq	%rax, %rax	# tmp798
	addq	%rdx, %rax	# tmp796, tmp798
	salq	$2, %rax	#, tmp798
	addq	%rdx, %rax	# tmp796, tmp798
	salq	$3, %rax	#, tmp799
	addq	$rld+80, %rax	#, tmp800
	movl	12(%rax), %eax	# rld[s_reload_13].when_needed, D.23518
	cmpl	-16(%rbp), %eax	# secondary_type, D.23518
	jne	.L175	#,
	.loc 1 519 0 is_stmt 0 discriminator 1
	movl	-12(%rbp), %eax	# s_reload, tmp802
	movslq	%eax, %rdx	# tmp802, tmp801
	movq	%rdx, %rax	# tmp801, tmp803
	addq	%rax, %rax	# tmp803
	addq	%rdx, %rax	# tmp801, tmp803
	salq	$2, %rax	#, tmp803
	addq	%rdx, %rax	# tmp801, tmp803
	salq	$3, %rax	#, tmp804
	addq	$rld+64, %rax	#, tmp805
	movl	8(%rax), %eax	# rld[s_reload_13].opnum, D.23502
	cmpl	-56(%rbp), %eax	# opnum, D.23502
	je	.L160	#,
	cmpl	$0, -16(%rbp)	#, secondary_type
	je	.L160	#,
	cmpl	$7, -16(%rbp)	#, secondary_type
	je	.L160	#,
	cmpl	$10, -16(%rbp)	#, secondary_type
	je	.L160	#,
.L175:
	.loc 1 521 0 is_stmt 1
	movl	-12(%rbp), %eax	# s_reload, tmp807
	movslq	%eax, %rdx	# tmp807, tmp806
	movq	%rdx, %rax	# tmp806, tmp808
	addq	%rax, %rax	# tmp808
	addq	%rdx, %rax	# tmp806, tmp808
	salq	$2, %rax	#, tmp808
	addq	%rdx, %rax	# tmp806, tmp808
	salq	$3, %rax	#, tmp809
	addq	$rld+80, %rax	#, tmp810
	movl	$9, 12(%rax)	#, rld[s_reload_13].when_needed
.L160:
	.loc 1 494 0
	addl	$1, -12(%rbp)	#, s_reload
.L159:
	.loc 1 494 0 is_stmt 0 discriminator 1
	movl	n_reloads(%rip), %eax	# n_reloads, n_reloads.97
	cmpl	%eax, -12(%rbp)	# n_reloads.97, s_reload
	jl	.L176	#,
	.loc 1 524 0 is_stmt 1
	movl	n_reloads(%rip), %eax	# n_reloads, n_reloads.98
	cmpl	%eax, -12(%rbp)	# n_reloads.98, s_reload
	jne	.L177	#,
	.loc 1 532 0
	cmpl	$0, -52(%rbp)	#, in_p
	je	.L178	#,
	.loc 1 532 0 is_stmt 0 discriminator 1
	cmpl	$1317, -32(%rbp)	#, icode
	jne	.L178	#,
	.loc 1 533 0 is_stmt 1
	movl	-36(%rbp), %edx	# mode, tmp811
	movl	-72(%rbp), %esi	# reload_class, tmp812
	movl	-40(%rbp), %eax	# class, tmp813
	movl	$1, %ecx	#,
	movl	%eax, %edi	# tmp813,
	call	ix86_secondary_memory_needed	#
	testl	%eax, %eax	# D.23502
	je	.L178	#,
	.loc 1 535 0
	movl	-56(%rbp), %edx	# opnum, tmp814
	movl	-76(%rbp), %esi	# reload_mode, tmp815
	movq	-64(%rbp), %rax	# x, tmp816
	movl	16(%rbp), %ecx	# type,
	movq	%rax, %rdi	# tmp816,
	call	get_secondary_mem	#
	.loc 1 539 0
	movl	n_reloads(%rip), %eax	# n_reloads, tmp817
	movl	%eax, -12(%rbp)	# tmp817, s_reload
.L178:
	.loc 1 544 0
	movl	-12(%rbp), %eax	# s_reload, tmp819
	movslq	%eax, %rdx	# tmp819, tmp818
	movq	%rdx, %rax	# tmp818, tmp820
	addq	%rax, %rax	# tmp820
	addq	%rdx, %rax	# tmp818, tmp820
	salq	$2, %rax	#, tmp820
	addq	%rdx, %rax	# tmp818, tmp820
	salq	$3, %rax	#, tmp821
	addq	$rld, %rax	#, tmp822
	movq	$0, 8(%rax)	#, rld[s_reload_14].out
	movl	-12(%rbp), %eax	# s_reload, tmp824
	movslq	%eax, %rdx	# tmp824, tmp823
	movq	%rdx, %rax	# tmp823, tmp825
	addq	%rax, %rax	# tmp825
	addq	%rdx, %rax	# tmp823, tmp825
	salq	$2, %rax	#, tmp825
	addq	%rdx, %rax	# tmp823, tmp825
	salq	$3, %rax	#, tmp826
	addq	$rld, %rax	#, tmp827
	movq	8(%rax), %rcx	# rld[s_reload_14].out, D.23505
	movl	-12(%rbp), %eax	# s_reload, tmp829
	movslq	%eax, %rdx	# tmp829, tmp828
	movq	%rdx, %rax	# tmp828, tmp830
	addq	%rax, %rax	# tmp830
	addq	%rdx, %rax	# tmp828, tmp830
	salq	$2, %rax	#, tmp830
	addq	%rdx, %rax	# tmp828, tmp830
	salq	$3, %rax	#, tmp831
	addq	$rld, %rax	#, tmp832
	movq	%rcx, (%rax)	# D.23505, rld[s_reload_14].in
	.loc 1 545 0
	movl	-12(%rbp), %eax	# s_reload, tmp834
	movslq	%eax, %rdx	# tmp834, tmp833
	movq	%rdx, %rax	# tmp833, tmp835
	addq	%rax, %rax	# tmp835
	addq	%rdx, %rax	# tmp833, tmp835
	salq	$2, %rax	#, tmp835
	addq	%rdx, %rax	# tmp833, tmp835
	salq	$3, %rax	#, tmp836
	leaq	rld+16(%rax), %rdx	#, tmp837
	movl	-40(%rbp), %eax	# class, tmp838
	movl	%eax, (%rdx)	# tmp838, rld[s_reload_14].class
	.loc 1 547 0
	cmpl	$0, -52(%rbp)	#, in_p
	je	.L179	#,
	.loc 1 547 0 is_stmt 0 discriminator 1
	movl	-36(%rbp), %ecx	# mode, iftmp.99
	jmp	.L180	#
.L179:
	.loc 1 547 0 discriminator 2
	movl	$0, %ecx	#, iftmp.99
.L180:
	.loc 1 547 0 discriminator 3
	movl	-12(%rbp), %eax	# s_reload, tmp840
	movslq	%eax, %rdx	# tmp840, tmp839
	movq	%rdx, %rax	# tmp839, tmp841
	addq	%rax, %rax	# tmp841
	addq	%rdx, %rax	# tmp839, tmp841
	salq	$2, %rax	#, tmp841
	addq	%rdx, %rax	# tmp839, tmp841
	salq	$3, %rax	#, tmp842
	addq	$rld+16, %rax	#, tmp843
	movl	%ecx, 4(%rax)	# iftmp.99, rld[s_reload_14].inmode
	.loc 1 548 0 is_stmt 1 discriminator 3
	cmpl	$0, -52(%rbp)	#, in_p
	jne	.L181	#,
	.loc 1 548 0 is_stmt 0 discriminator 1
	movl	-36(%rbp), %ecx	# mode, iftmp.100
	jmp	.L182	#
.L181:
	.loc 1 548 0 discriminator 2
	movl	$0, %ecx	#, iftmp.100
.L182:
	.loc 1 548 0 discriminator 3
	movl	-12(%rbp), %eax	# s_reload, tmp845
	movslq	%eax, %rdx	# tmp845, tmp844
	movq	%rdx, %rax	# tmp844, tmp846
	addq	%rax, %rax	# tmp846
	addq	%rdx, %rax	# tmp844, tmp846
	salq	$2, %rax	#, tmp846
	addq	%rdx, %rax	# tmp844, tmp846
	salq	$3, %rax	#, tmp847
	addq	$rld+16, %rax	#, tmp848
	movl	%ecx, 8(%rax)	# iftmp.100, rld[s_reload_14].outmode
	.loc 1 549 0 is_stmt 1 discriminator 3
	movl	-12(%rbp), %eax	# s_reload, tmp850
	movslq	%eax, %rdx	# tmp850, tmp849
	movq	%rdx, %rax	# tmp849, tmp851
	addq	%rax, %rax	# tmp851
	addq	%rdx, %rax	# tmp849, tmp851
	salq	$2, %rax	#, tmp851
	addq	%rdx, %rax	# tmp849, tmp851
	salq	$3, %rax	#, tmp852
	addq	$rld+64, %rax	#, tmp853
	movq	$0, (%rax)	#, rld[s_reload_14].reg_rtx
	.loc 1 550 0 discriminator 3
	movl	-68(%rbp), %eax	# optional, tmp854
	andl	$1, %eax	#, D.23514
	movl	%eax, %ecx	# D.23514, D.23514
	movl	-12(%rbp), %eax	# s_reload, tmp856
	movslq	%eax, %rdx	# tmp856, tmp855
	movq	%rdx, %rax	# tmp855, tmp857
	addq	%rax, %rax	# tmp857
	addq	%rdx, %rax	# tmp855, tmp857
	salq	$2, %rax	#, tmp857
	addq	%rdx, %rax	# tmp855, tmp857
	salq	$3, %rax	#, tmp858
	addq	$rld+96, %rax	#, tmp859
	andl	$1, %ecx	#, tmp861
	movzbl	(%rax), %edx	# rld[s_reload_14].optional, tmp862
	andl	$-2, %edx	#, tmp863
	orl	%ecx, %edx	# tmp861, tmp864
	movb	%dl, (%rax)	# tmp864, rld[s_reload_14].optional
	.loc 1 551 0 discriminator 3
	movl	-12(%rbp), %eax	# s_reload, tmp866
	movslq	%eax, %rdx	# tmp866, tmp865
	movq	%rdx, %rax	# tmp865, tmp867
	addq	%rax, %rax	# tmp867
	addq	%rdx, %rax	# tmp865, tmp867
	salq	$2, %rax	#, tmp867
	addq	%rdx, %rax	# tmp865, tmp867
	salq	$3, %rax	#, tmp868
	addq	$rld+32, %rax	#, tmp869
	movl	$0, 4(%rax)	#, rld[s_reload_14].inc
	.loc 1 553 0 discriminator 3
	movl	-12(%rbp), %eax	# s_reload, tmp871
	movslq	%eax, %rdx	# tmp871, tmp870
	movq	%rdx, %rax	# tmp870, tmp872
	addq	%rax, %rax	# tmp872
	addq	%rdx, %rax	# tmp870, tmp872
	salq	$2, %rax	#, tmp872
	addq	%rdx, %rax	# tmp870, tmp872
	salq	$3, %rax	#, tmp873
	addq	$rld+96, %rax	#, tmp874
	movzbl	(%rax), %edx	# rld[s_reload_14].nocombine, tmp877
	orl	$2, %edx	#, tmp878
	movb	%dl, (%rax)	# tmp878, rld[s_reload_14].nocombine
	.loc 1 554 0 discriminator 3
	movl	-12(%rbp), %eax	# s_reload, tmp880
	movslq	%eax, %rdx	# tmp880, tmp879
	movq	%rdx, %rax	# tmp879, tmp881
	addq	%rax, %rax	# tmp881
	addq	%rdx, %rax	# tmp879, tmp881
	salq	$2, %rax	#, tmp881
	addq	%rdx, %rax	# tmp879, tmp881
	salq	$3, %rax	#, tmp882
	addq	$rld+32, %rax	#, tmp883
	movq	$0, 8(%rax)	#, rld[s_reload_14].in_reg
	.loc 1 555 0 discriminator 3
	movl	-12(%rbp), %eax	# s_reload, tmp885
	movslq	%eax, %rdx	# tmp885, tmp884
	movq	%rdx, %rax	# tmp884, tmp886
	addq	%rax, %rax	# tmp886
	addq	%rdx, %rax	# tmp884, tmp886
	salq	$2, %rax	#, tmp886
	addq	%rdx, %rax	# tmp884, tmp886
	salq	$3, %rax	#, tmp887
	addq	$rld+48, %rax	#, tmp888
	movq	$0, (%rax)	#, rld[s_reload_14].out_reg
	.loc 1 556 0 discriminator 3
	movl	-12(%rbp), %eax	# s_reload, tmp890
	movslq	%eax, %rdx	# tmp890, tmp889
	movq	%rdx, %rax	# tmp889, tmp891
	addq	%rax, %rax	# tmp891
	addq	%rdx, %rax	# tmp889, tmp891
	salq	$2, %rax	#, tmp891
	addq	%rdx, %rax	# tmp889, tmp891
	salq	$3, %rax	#, tmp892
	leaq	rld+64(%rax), %rdx	#, tmp893
	movl	-56(%rbp), %eax	# opnum, tmp894
	movl	%eax, 8(%rdx)	# tmp894, rld[s_reload_14].opnum
	.loc 1 557 0 discriminator 3
	movl	-12(%rbp), %eax	# s_reload, tmp896
	movslq	%eax, %rdx	# tmp896, tmp895
	movq	%rdx, %rax	# tmp895, tmp897
	addq	%rax, %rax	# tmp897
	addq	%rdx, %rax	# tmp895, tmp897
	salq	$2, %rax	#, tmp897
	addq	%rdx, %rax	# tmp895, tmp897
	salq	$3, %rax	#, tmp898
	leaq	rld+80(%rax), %rdx	#, tmp899
	movl	-16(%rbp), %eax	# secondary_type, tmp900
	movl	%eax, 12(%rdx)	# tmp900, rld[s_reload_14].when_needed
	.loc 1 558 0 discriminator 3
	cmpl	$0, -52(%rbp)	#, in_p
	je	.L183	#,
	.loc 1 558 0 is_stmt 0 discriminator 1
	movl	-8(%rbp), %ecx	# t_reload, iftmp.101
	jmp	.L184	#
.L183:
	.loc 1 558 0 discriminator 2
	movl	$-1, %ecx	#, iftmp.101
.L184:
	.loc 1 558 0 discriminator 3
	movl	-12(%rbp), %eax	# s_reload, tmp902
	movslq	%eax, %rdx	# tmp902, tmp901
	movq	%rdx, %rax	# tmp901, tmp903
	addq	%rax, %rax	# tmp903
	addq	%rdx, %rax	# tmp901, tmp903
	salq	$2, %rax	#, tmp903
	addq	%rdx, %rax	# tmp901, tmp903
	salq	$3, %rax	#, tmp904
	addq	$rld+64, %rax	#, tmp905
	movl	%ecx, 12(%rax)	# iftmp.101, rld[s_reload_14].secondary_in_reload
	.loc 1 559 0 is_stmt 1 discriminator 3
	cmpl	$0, -52(%rbp)	#, in_p
	jne	.L185	#,
	.loc 1 559 0 is_stmt 0 discriminator 1
	movl	-8(%rbp), %ecx	# t_reload, iftmp.102
	jmp	.L186	#
.L185:
	.loc 1 559 0 discriminator 2
	movl	$-1, %ecx	#, iftmp.102
.L186:
	.loc 1 559 0 discriminator 3
	movl	-12(%rbp), %eax	# s_reload, tmp907
	movslq	%eax, %rdx	# tmp907, tmp906
	movq	%rdx, %rax	# tmp906, tmp908
	addq	%rax, %rax	# tmp908
	addq	%rdx, %rax	# tmp906, tmp908
	salq	$2, %rax	#, tmp908
	addq	%rdx, %rax	# tmp906, tmp908
	salq	$3, %rax	#, tmp909
	addq	$rld+80, %rax	#, tmp910
	movl	%ecx, (%rax)	# iftmp.102, rld[s_reload_14].secondary_out_reload
	.loc 1 560 0 is_stmt 1 discriminator 3
	cmpl	$0, -52(%rbp)	#, in_p
	je	.L187	#,
	.loc 1 560 0 is_stmt 0 discriminator 1
	movl	-20(%rbp), %ecx	# t_icode, iftmp.103
	jmp	.L188	#
.L187:
	.loc 1 560 0 discriminator 2
	movl	$1317, %ecx	#, iftmp.103
.L188:
	.loc 1 560 0 discriminator 3
	movl	-12(%rbp), %eax	# s_reload, tmp912
	movslq	%eax, %rdx	# tmp912, tmp911
	movq	%rdx, %rax	# tmp911, tmp913
	addq	%rax, %rax	# tmp913
	addq	%rdx, %rax	# tmp911, tmp913
	salq	$2, %rax	#, tmp913
	addq	%rdx, %rax	# tmp911, tmp913
	salq	$3, %rax	#, tmp914
	addq	$rld+80, %rax	#, tmp915
	movl	%ecx, 4(%rax)	# iftmp.103, rld[s_reload_14].secondary_in_icode
	.loc 1 562 0 is_stmt 1 discriminator 3
	cmpl	$0, -52(%rbp)	#, in_p
	jne	.L189	#,
	.loc 1 562 0 is_stmt 0 discriminator 1
	movl	-20(%rbp), %ecx	# t_icode, iftmp.104
	jmp	.L190	#
.L189:
	.loc 1 562 0 discriminator 2
	movl	$1317, %ecx	#, iftmp.104
.L190:
	.loc 1 562 0 discriminator 3
	movl	-12(%rbp), %eax	# s_reload, tmp917
	movslq	%eax, %rdx	# tmp917, tmp916
	movq	%rdx, %rax	# tmp916, tmp918
	addq	%rax, %rax	# tmp918
	addq	%rdx, %rax	# tmp916, tmp918
	salq	$2, %rax	#, tmp918
	addq	%rdx, %rax	# tmp916, tmp918
	salq	$3, %rax	#, tmp919
	addq	$rld+80, %rax	#, tmp920
	movl	%ecx, 8(%rax)	# iftmp.104, rld[s_reload_14].secondary_out_icode
	.loc 1 563 0 is_stmt 1 discriminator 3
	movl	-12(%rbp), %eax	# s_reload, tmp922
	movslq	%eax, %rdx	# tmp922, tmp921
	movq	%rdx, %rax	# tmp921, tmp923
	addq	%rax, %rax	# tmp923
	addq	%rdx, %rax	# tmp921, tmp923
	salq	$2, %rax	#, tmp923
	addq	%rdx, %rax	# tmp921, tmp923
	salq	$3, %rax	#, tmp924
	addq	$rld+96, %rax	#, tmp925
	movzbl	(%rax), %edx	# rld[s_reload_14].secondary_p, tmp928
	orl	$4, %edx	#, tmp929
	movb	%dl, (%rax)	# tmp929, rld[s_reload_14].secondary_p
	.loc 1 565 0 discriminator 3
	movl	n_reloads(%rip), %eax	# n_reloads, n_reloads.105
	addl	$1, %eax	#, n_reloads.106
	movl	%eax, n_reloads(%rip)	# n_reloads.106, n_reloads
	.loc 1 568 0 discriminator 3
	cmpl	$0, -52(%rbp)	#, in_p
	jne	.L177	#,
	.loc 1 568 0 is_stmt 0 discriminator 1
	cmpl	$1317, -32(%rbp)	#, icode
	jne	.L177	#,
	.loc 1 569 0 is_stmt 1
	movl	-36(%rbp), %edx	# mode, tmp930
	movl	-40(%rbp), %esi	# class, tmp931
	movl	-72(%rbp), %eax	# reload_class, tmp932
	movl	$1, %ecx	#,
	movl	%eax, %edi	# tmp932,
	call	ix86_secondary_memory_needed	#
	testl	%eax, %eax	# D.23502
	je	.L177	#,
	.loc 1 570 0
	movl	-56(%rbp), %edx	# opnum, tmp933
	movl	-36(%rbp), %esi	# mode, tmp934
	movq	-64(%rbp), %rax	# x, tmp935
	movl	16(%rbp), %ecx	# type,
	movq	%rax, %rdi	# tmp935,
	call	get_secondary_mem	#
.L177:
	.loc 1 574 0
	movq	24(%rbp), %rax	# picode, tmp936
	movl	-32(%rbp), %edx	# icode, tmp937
	movl	%edx, (%rax)	# tmp937, *picode_98(D)
	.loc 1 575 0
	movl	-12(%rbp), %eax	# s_reload, D.23502
.L14:
	.loc 1 576 0
	leave
	.cfi_def_cfa 7, 8
	ret
	.cfi_endproc
.LFE2:
	.size	push_secondary_reload, .-push_secondary_reload
	.globl	get_secondary_mem
	.type	get_secondary_mem, @function
get_secondary_mem:
.LFB3:
	.loc 1 591 0
	.cfi_startproc
	pushq	%rbp	#
	.cfi_def_cfa_offset 16
	.cfi_offset 6, -16
	movq	%rsp, %rbp	#,
	.cfi_def_cfa_register 6
	pushq	%rbx	#
	subq	$72, %rsp	#,
	.cfi_offset 3, -24
	movq	%rdi, -40(%rbp)	# x, x
	movl	%esi, -44(%rbp)	# mode, mode
	movl	%edx, -48(%rbp)	# opnum, opnum
	movl	%ecx, -52(%rbp)	# type, type
	.loc 1 603 0
	movl	-44(%rbp), %eax	# mode, mode.107
	cltq
	movzwl	mode_bitsize(%rax,%rax), %eax	# mode_bitsize, D.23522
	movzwl	%ax, %edx	# D.23522, D.23523
	movl	target_flags(%rip), %eax	# target_flags, target_flags.109
	andl	$33554432, %eax	#, D.23523
	testl	%eax, %eax	# D.23523
	je	.L192	#,
	.loc 1 603 0 is_stmt 0 discriminator 1
	movl	$64, %eax	#, iftmp.108
	jmp	.L193	#
.L192:
	.loc 1 603 0 discriminator 2
	movl	$32, %eax	#, iftmp.108
.L193:
	.loc 1 603 0 discriminator 3
	cmpl	%eax, %edx	# iftmp.108, D.23523
	jge	.L194	#,
	.loc 1 603 0 discriminator 1
	movl	-44(%rbp), %eax	# mode, mode.110
	cltq
	movl	mode_class(,%rax,4), %eax	# mode_class, D.23524
	cmpl	$1, %eax	#, D.23524
	je	.L195	#,
	movl	-44(%rbp), %eax	# mode, mode.111
	cltq
	movl	mode_class(,%rax,4), %eax	# mode_class, D.23524
	cmpl	$3, %eax	#, D.23524
	je	.L195	#,
	movl	-44(%rbp), %eax	# mode, mode.112
	cltq
	movl	mode_class(,%rax,4), %eax	# mode_class, D.23524
	cmpl	$5, %eax	#, D.23524
	je	.L195	#,
	movl	-44(%rbp), %eax	# mode, mode.113
	cltq
	movl	mode_class(,%rax,4), %eax	# mode_class, D.23524
	cmpl	$7, %eax	#, D.23524
	jne	.L194	#,
.L195:
	.loc 1 604 0 is_stmt 1
	movl	-44(%rbp), %eax	# mode, mode.114
	cltq
	movl	mode_class(,%rax,4), %ecx	# mode_class, D.23524
	movl	target_flags(%rip), %eax	# target_flags, target_flags.116
	andl	$33554432, %eax	#, D.23523
	testl	%eax, %eax	# D.23523
	je	.L196	#,
	.loc 1 604 0 is_stmt 0 discriminator 1
	movl	$64, %eax	#, iftmp.115
	jmp	.L197	#
.L196:
	.loc 1 604 0 discriminator 2
	movl	$32, %eax	#, iftmp.115
.L197:
	.loc 1 604 0 discriminator 3
	movl	$0, %edx	#,
	movl	%ecx, %esi	# D.23524,
	movl	%eax, %edi	# iftmp.115,
	call	mode_for_size	#
	movl	%eax, -44(%rbp)	# tmp106, mode
.L194:
	.loc 1 608 0 is_stmt 1
	movl	-44(%rbp), %eax	# mode, mode.117
	movl	-48(%rbp), %edx	# opnum, tmp108
	movslq	%edx, %rcx	# tmp108, tmp107
	cltq
	addq	%rax, %rax	# tmp111
	movq	%rax, %rdx	# tmp110, tmp112
	salq	$4, %rdx	#, tmp112
	subq	%rax, %rdx	# tmp110, tmp112
	leaq	(%rdx,%rcx), %rax	#, tmp113
	movq	secondary_memlocs_elim(,%rax,8), %rax	# secondary_memlocs_elim, D.23525
	testq	%rax, %rax	# D.23525
	je	.L198	#,
	.loc 1 609 0
	movl	-44(%rbp), %eax	# mode, mode.118
	movl	-48(%rbp), %edx	# opnum, tmp115
	movslq	%edx, %rcx	# tmp115, tmp114
	cltq
	addq	%rax, %rax	# tmp118
	movq	%rax, %rdx	# tmp117, tmp119
	salq	$4, %rdx	#, tmp119
	subq	%rax, %rdx	# tmp117, tmp119
	leaq	(%rdx,%rcx), %rax	#, tmp120
	movq	secondary_memlocs_elim(,%rax,8), %rax	# secondary_memlocs_elim, D.23521
	jmp	.L199	#
.L198:
	.loc 1 615 0
	movl	-44(%rbp), %eax	# mode, mode.119
	cltq
	movq	secondary_memlocs(,%rax,8), %rax	# secondary_memlocs, D.23525
	testq	%rax, %rax	# D.23525
	jne	.L200	#,
	.loc 1 620 0
	movl	-44(%rbp), %ebx	# mode, mode.120
	.loc 1 621 0
	movl	-44(%rbp), %eax	# mode, mode.121
	cltq
	movzbl	mode_size(%rax), %eax	# mode_size, D.23526
	movzbl	%al, %ecx	# D.23526, D.23527
	movl	-44(%rbp), %eax	# mode, tmp123
	movl	$0, %edx	#,
	movq	%rcx, %rsi	# D.23527,
	movl	%eax, %edi	# tmp123,
	call	assign_stack_local	#
	movslq	%ebx, %rdx	# mode.120, tmp124
	movq	%rax, secondary_memlocs(,%rdx,8)	# D.23525, secondary_memlocs
.L200:
	.loc 1 628 0
	movl	-44(%rbp), %eax	# mode, mode.122
	cltq
	movq	secondary_memlocs(,%rax,8), %rax	# secondary_memlocs, D.23525
	movl	$0, %edx	#,
	movl	$0, %esi	#,
	movq	%rax, %rdi	# D.23525,
	call	eliminate_regs	#
	movq	%rax, -24(%rbp)	# tmp126, loc
	.loc 1 629 0
	movq	-24(%rbp), %rax	# loc, tmp127
	movq	8(%rax), %rdx	# loc_45->fld[0].rtx, D.23525
	movl	-44(%rbp), %eax	# mode, tmp128
	movq	%rdx, %rsi	# D.23525,
	movl	%eax, %edi	# tmp128,
	call	strict_memory_address_p	#
	movl	%eax, -28(%rbp)	# tmp129, mem_valid
	.loc 1 631 0
	cmpl	$0, -28(%rbp)	#, mem_valid
	jne	.L201	#,
	.loc 1 631 0 is_stmt 0 discriminator 1
	movl	-44(%rbp), %eax	# mode, mode.123
	cltq
	movq	secondary_memlocs(,%rax,8), %rax	# secondary_memlocs, D.23525
	cmpq	-24(%rbp), %rax	# loc, D.23525
	jne	.L201	#,
	.loc 1 632 0 is_stmt 1
	movq	-24(%rbp), %rax	# loc, tmp131
	movq	%rax, %rdi	# tmp131,
	call	copy_rtx	#
	movq	%rax, -24(%rbp)	# tmp132, loc
.L201:
	.loc 1 641 0
	cmpl	$0, -28(%rbp)	#, mem_valid
	jne	.L202	#,
	.loc 1 643 0
	cmpl	$0, -52(%rbp)	#, type
	je	.L203	#,
	.loc 1 643 0 is_stmt 0 discriminator 1
	cmpl	$1, -52(%rbp)	#, type
	jne	.L204	#,
	.loc 1 643 0 discriminator 3
	movl	$5, %eax	#, iftmp.125
	jmp	.L206	#
.L204:
	.loc 1 643 0 discriminator 4
	movl	$9, %eax	#, iftmp.125
	jmp	.L206	#
.L203:
	.loc 1 643 0 discriminator 2
	movl	$3, %eax	#, iftmp.124
.L206:
	.loc 1 643 0 discriminator 5
	movl	%eax, -52(%rbp)	# iftmp.124, type
	.loc 1 647 0 is_stmt 1 discriminator 5
	movq	-24(%rbp), %rax	# loc, tmp133
	leaq	8(%rax), %rcx	#, D.23528
	movq	-24(%rbp), %rax	# loc, tmp134
	movq	8(%rax), %rdx	# loc_2->fld[0].rtx, D.23525
	movl	-52(%rbp), %edi	# type, tmp135
	movl	-48(%rbp), %esi	# opnum, tmp136
	movl	-44(%rbp), %eax	# mode, tmp137
	movq	$0, 8(%rsp)	#,
	movl	$0, (%rsp)	#,
	movl	%edi, %r9d	# tmp135,
	movl	%esi, %r8d	# tmp136,
	movl	$0, %esi	#,
	movl	%eax, %edi	# tmp137,
	call	find_reloads_address	#
.L202:
	.loc 1 651 0
	movl	-44(%rbp), %eax	# mode, mode.126
	movl	-48(%rbp), %edx	# opnum, tmp139
	movslq	%edx, %rcx	# tmp139, tmp138
	cltq
	addq	%rax, %rax	# tmp142
	movq	%rax, %rdx	# tmp141, tmp143
	salq	$4, %rdx	#, tmp143
	subq	%rax, %rdx	# tmp141, tmp143
	addq	%rcx, %rdx	# tmp138, tmp144
	movq	-24(%rbp), %rax	# loc, tmp145
	movq	%rax, secondary_memlocs_elim(,%rdx,8)	# tmp145, secondary_memlocs_elim
	.loc 1 652 0
	movq	-24(%rbp), %rax	# loc, D.23521
.L199:
	.loc 1 653 0
	addq	$72, %rsp	#,
	popq	%rbx	#
	popq	%rbp	#
	.cfi_def_cfa 7, 8
	ret
	.cfi_endproc
.LFE3:
	.size	get_secondary_mem, .-get_secondary_mem
	.globl	clear_secondary_mem
	.type	clear_secondary_mem, @function
clear_secondary_mem:
.LFB4:
	.loc 1 659 0
	.cfi_startproc
	pushq	%rbp	#
	.cfi_def_cfa_offset 16
	.cfi_offset 6, -16
	movq	%rsp, %rbp	#,
	.cfi_def_cfa_register 6
	.loc 1 660 0
	movl	$472, %edx	#,
	movl	$0, %esi	#,
	movl	$secondary_memlocs, %edi	#,
	call	memset	#
	.loc 1 661 0
	popq	%rbp	#
	.cfi_def_cfa 7, 8
	ret
	.cfi_endproc
.LFE4:
	.size	clear_secondary_mem, .-clear_secondary_mem
	.type	find_valid_class, @function
find_valid_class:
.LFB5:
	.loc 1 673 0
	.cfi_startproc
	pushq	%rbp	#
	.cfi_def_cfa_offset 16
	.cfi_offset 6, -16
	movq	%rsp, %rbp	#,
	.cfi_def_cfa_register 6
	subq	$48, %rsp	#,
	movl	%edi, -36(%rbp)	# m1, m1
	movl	%esi, -40(%rbp)	# n, n
	movl	%edx, -44(%rbp)	# dest_regno, dest_regno
	.loc 1 674 0
	movl	$-1, -32(%rbp)	#, best_cost
	.loc 1 677 0
	movl	$0, -20(%rbp)	#, best_class
	.loc 1 678 0
	movl	-44(%rbp), %eax	# dest_regno, tmp73
	movl	regclass_map(,%rax,4), %eax	# regclass_map, tmp74
	movl	%eax, -8(%rbp)	# tmp74, dest_class
	.loc 1 679 0
	movl	$0, -16(%rbp)	#, best_size
	.loc 1 682 0
	movl	$1, -28(%rbp)	#, class
	jmp	.L209	#
.L218:
.LBB5:
	.loc 1 684 0
	movl	$0, -12(%rbp)	#, bad
	.loc 1 685 0
	movl	$0, -24(%rbp)	#, regno
	jmp	.L210	#
.L213:
	.loc 1 686 0
	movl	-28(%rbp), %eax	# class, tmp76
	cltq
	movq	reg_class_contents(,%rax,8), %rdx	# reg_class_contents, D.23529
	movl	-24(%rbp), %eax	# regno, tmp77
	movl	%eax, %ecx	# tmp77, tmp101
	shrq	%cl, %rdx	# tmp101, D.23529
	movq	%rdx, %rax	# D.23529, D.23529
	andl	$1, %eax	#, D.23529
	testq	%rax, %rax	# D.23529
	je	.L211	#,
	.loc 1 687 0
	movl	-28(%rbp), %eax	# class, tmp79
	cltq
	movq	reg_class_contents(,%rax,8), %rdx	# reg_class_contents, D.23529
	movl	-40(%rbp), %eax	# n, tmp80
	movl	-24(%rbp), %ecx	# regno, tmp81
	addl	%ecx, %eax	# tmp81, D.23530
	movl	%eax, %ecx	# D.23530, tmp103
	shrq	%cl, %rdx	# tmp103, D.23529
	movq	%rdx, %rax	# D.23529, D.23529
	andl	$1, %eax	#, D.23529
	testq	%rax, %rax	# D.23529
	je	.L211	#,
	.loc 1 688 0
	movl	-40(%rbp), %eax	# n, tmp82
	movl	-24(%rbp), %edx	# regno, tmp83
	addl	%eax, %edx	# tmp82, D.23530
	movl	-36(%rbp), %eax	# m1, tmp84
	movl	%eax, %esi	# tmp84,
	movl	%edx, %edi	# D.23530,
	call	ix86_hard_regno_mode_ok	#
	testl	%eax, %eax	# D.23530
	jne	.L211	#,
	.loc 1 689 0
	movl	$1, -12(%rbp)	#, bad
.L211:
	.loc 1 685 0
	addl	$1, -24(%rbp)	#, regno
.L210:
	.loc 1 685 0 is_stmt 0 discriminator 1
	cmpl	$52, -24(%rbp)	#, regno
	jg	.L212	#,
	.loc 1 685 0 discriminator 2
	cmpl	$0, -12(%rbp)	#, bad
	je	.L213	#,
.L212:
	.loc 1 691 0 is_stmt 1
	cmpl	$0, -12(%rbp)	#, bad
	je	.L214	#,
	.loc 1 692 0
	jmp	.L215	#
.L214:
	.loc 1 693 0
	movl	-28(%rbp), %ecx	# class, class.127
	movl	-8(%rbp), %edx	# dest_class, tmp85
	movl	-36(%rbp), %eax	# m1, tmp86
	movl	%ecx, %esi	# class.127,
	movl	%eax, %edi	# tmp86,
	call	ix86_register_move_cost	#
	movl	%eax, -4(%rbp)	# tmp87, cost
	.loc 1 695 0
	movl	-28(%rbp), %eax	# class, tmp89
	cltq
	movl	reg_class_size(,%rax,4), %eax	# reg_class_size, D.23531
	cmpl	-16(%rbp), %eax	# best_size, D.23531
	jbe	.L216	#,
	.loc 1 696 0
	cmpl	$0, -32(%rbp)	#, best_cost
	js	.L217	#,
	.loc 1 696 0 is_stmt 0 discriminator 1
	movl	-32(%rbp), %eax	# best_cost, tmp90
	cmpl	-4(%rbp), %eax	# cost, tmp90
	jge	.L217	#,
.L216:
	.loc 1 697 0 is_stmt 1
	movl	-32(%rbp), %eax	# best_cost, tmp91
	cmpl	-4(%rbp), %eax	# cost, tmp91
	jle	.L215	#,
.L217:
	.loc 1 699 0
	movl	-28(%rbp), %eax	# class, tmp92
	movl	%eax, -20(%rbp)	# tmp92, best_class
	.loc 1 700 0
	movl	-28(%rbp), %eax	# class, tmp94
	cltq
	movl	reg_class_size(,%rax,4), %eax	# reg_class_size, tmp95
	movl	%eax, -16(%rbp)	# tmp95, best_size
	.loc 1 701 0
	movl	-28(%rbp), %ecx	# class, class.128
	movl	-8(%rbp), %edx	# dest_class, tmp96
	movl	-36(%rbp), %eax	# m1, tmp97
	movl	%ecx, %esi	# class.128,
	movl	%eax, %edi	# tmp97,
	call	ix86_register_move_cost	#
	movl	%eax, -32(%rbp)	# tmp98, best_cost
.L215:
.LBE5:
	.loc 1 682 0
	addl	$1, -28(%rbp)	#, class
.L209:
	.loc 1 682 0 is_stmt 0 discriminator 1
	cmpl	$24, -28(%rbp)	#, class
	jle	.L218	#,
	.loc 1 705 0 is_stmt 1
	cmpl	$0, -16(%rbp)	#, best_size
	jne	.L219	#,
	.loc 1 706 0
	movl	$__FUNCTION__.11614, %edx	#,
	movl	$706, %esi	#,
	movl	$.LC0, %edi	#,
	call	fancy_abort	#
.L219:
	.loc 1 708 0
	movl	-20(%rbp), %eax	# best_class, D.23532
	.loc 1 709 0
	leave
	.cfi_def_cfa 7, 8
	ret
	.cfi_endproc
.LFE5:
	.size	find_valid_class, .-find_valid_class
	.type	find_reusable_reload, @function
find_reusable_reload:
.LFB6:
	.loc 1 725 0
	.cfi_startproc
	pushq	%rbp	#
	.cfi_def_cfa_offset 16
	.cfi_offset 6, -16
	movq	%rsp, %rbp	#,
	.cfi_def_cfa_register 6
	pushq	%rbx	#
	subq	$56, %rsp	#,
	.cfi_offset 3, -24
	movq	%rdi, -40(%rbp)	# p_in, p_in
	movq	%rsi, -48(%rbp)	# out, out
	movl	%edx, -52(%rbp)	# class, class
	movl	%ecx, -56(%rbp)	# type, type
	movl	%r8d, -60(%rbp)	# opnum, opnum
	movl	%r9d, -64(%rbp)	# dont_share, dont_share
	.loc 1 726 0
	movq	-40(%rbp), %rax	# p_in, tmp226
	movq	(%rax), %rax	# *p_in_16(D), tmp227
	movq	%rax, -24(%rbp)	# tmp227, in
	.loc 1 731 0
	movq	-48(%rbp), %rax	# out, tmp228
	movq	%rax, %rdi	# tmp228,
	call	earlyclobber_operand_p	#
	testl	%eax, %eax	# D.23533
	je	.L222	#,
	.loc 1 732 0
	movl	n_reloads(%rip), %eax	# n_reloads, D.23533
	jmp	.L223	#
.L222:
	.loc 1 743 0
	movl	$0, -28(%rbp)	#, i
	jmp	.L224	#
.L257:
	.loc 1 744 0
	movl	-28(%rbp), %eax	# i, tmp230
	movslq	%eax, %rdx	# tmp230, tmp229
	movq	%rdx, %rax	# tmp229, tmp231
	addq	%rax, %rax	# tmp231
	addq	%rdx, %rax	# tmp229, tmp231
	salq	$2, %rax	#, tmp231
	addq	%rdx, %rax	# tmp229, tmp231
	salq	$3, %rax	#, tmp232
	addq	$rld+16, %rax	#, tmp233
	movl	(%rax), %edx	# rld[i_1].class, D.23534
	movl	-52(%rbp), %eax	# class, tmp234
	movl	%edx, %esi	# D.23534,
	movl	%eax, %edi	# tmp234,
	call	reg_class_subset_p	#
	testl	%eax, %eax	# D.23533
	jne	.L225	#,
	.loc 1 745 0
	movl	-28(%rbp), %eax	# i, tmp236
	movslq	%eax, %rdx	# tmp236, tmp235
	movq	%rdx, %rax	# tmp235, tmp237
	addq	%rax, %rax	# tmp237
	addq	%rdx, %rax	# tmp235, tmp237
	salq	$2, %rax	#, tmp237
	addq	%rdx, %rax	# tmp235, tmp237
	salq	$3, %rax	#, tmp238
	addq	$rld+16, %rax	#, tmp239
	movl	(%rax), %eax	# rld[i_1].class, D.23534
	movl	-52(%rbp), %edx	# class, tmp240
	movl	%edx, %esi	# tmp240,
	movl	%eax, %edi	# D.23534,
	call	reg_class_subset_p	#
	testl	%eax, %eax	# D.23533
	je	.L226	#,
.L225:
	.loc 1 747 0
	movl	-28(%rbp), %eax	# i, tmp242
	movslq	%eax, %rdx	# tmp242, tmp241
	movq	%rdx, %rax	# tmp241, tmp243
	addq	%rax, %rax	# tmp243
	addq	%rdx, %rax	# tmp241, tmp243
	salq	$2, %rax	#, tmp243
	addq	%rdx, %rax	# tmp241, tmp243
	salq	$3, %rax	#, tmp244
	addq	$rld+64, %rax	#, tmp245
	movq	(%rax), %rax	# rld[i_1].reg_rtx, D.23535
	testq	%rax, %rax	# D.23535
	je	.L227	#,
	.loc 1 748 0
	movl	-52(%rbp), %eax	# class, class.129
	cltq
	movq	reg_class_contents(,%rax,8), %rbx	# reg_class_contents, D.23536
	movl	-28(%rbp), %eax	# i, tmp248
	movslq	%eax, %rdx	# tmp248, tmp247
	movq	%rdx, %rax	# tmp247, tmp249
	addq	%rax, %rax	# tmp249
	addq	%rdx, %rax	# tmp247, tmp249
	salq	$2, %rax	#, tmp249
	addq	%rdx, %rax	# tmp247, tmp249
	salq	$3, %rax	#, tmp250
	addq	$rld+64, %rax	#, tmp251
	movq	(%rax), %rax	# rld[i_1].reg_rtx, D.23535
	movq	%rax, %rdi	# D.23535,
	call	true_regnum	#
	movl	%eax, %ecx	# D.23533, tmp589
	shrq	%cl, %rbx	# tmp589, D.23536
	movq	%rbx, %rax	# D.23536, D.23536
	andl	$1, %eax	#, D.23536
	testq	%rax, %rax	# D.23536
	je	.L226	#,
.L227:
	.loc 1 750 0
	cmpq	$0, -24(%rbp)	#, in
	je	.L228	#,
	.loc 1 750 0 is_stmt 0 discriminator 1
	movl	-28(%rbp), %eax	# i, tmp253
	movslq	%eax, %rdx	# tmp253, tmp252
	movq	%rdx, %rax	# tmp252, tmp254
	addq	%rax, %rax	# tmp254
	addq	%rdx, %rax	# tmp252, tmp254
	salq	$2, %rax	#, tmp254
	addq	%rdx, %rax	# tmp252, tmp254
	salq	$3, %rax	#, tmp255
	addq	$rld, %rax	#, tmp256
	movq	(%rax), %rax	# rld[i_1].in, D.23535
	cmpq	-24(%rbp), %rax	# in, D.23535
	je	.L229	#,
	.loc 1 750 0 discriminator 2
	movl	-28(%rbp), %eax	# i, tmp258
	movslq	%eax, %rdx	# tmp258, tmp257
	movq	%rdx, %rax	# tmp257, tmp259
	addq	%rax, %rax	# tmp259
	addq	%rdx, %rax	# tmp257, tmp259
	salq	$2, %rax	#, tmp259
	addq	%rdx, %rax	# tmp257, tmp259
	salq	$3, %rax	#, tmp260
	addq	$rld, %rax	#, tmp261
	movq	(%rax), %rax	# rld[i_1].in, D.23535
	testq	%rax, %rax	# D.23535
	je	.L228	#,
	.loc 1 750 0 discriminator 1
	movl	-28(%rbp), %eax	# i, tmp263
	movslq	%eax, %rdx	# tmp263, tmp262
	movq	%rdx, %rax	# tmp262, tmp264
	addq	%rax, %rax	# tmp264
	addq	%rdx, %rax	# tmp262, tmp264
	salq	$2, %rax	#, tmp264
	addq	%rdx, %rax	# tmp262, tmp264
	salq	$3, %rax	#, tmp265
	addq	$rld, %rax	#, tmp266
	movq	(%rax), %rax	# rld[i_1].in, D.23535
	movzwl	(%rax), %eax	# _37->code, D.23537
	.loc 1 744 0 is_stmt 1 discriminator 1
	cmpw	$61, %ax	#, D.23537
	jne	.L230	#,
	.loc 1 750 0
	movq	-24(%rbp), %rax	# in, tmp267
	movzwl	(%rax), %eax	# in_17->code, D.23537
	cmpw	$61, %ax	#, D.23537
	jne	.L231	#,
	.loc 1 750 0 is_stmt 0 discriminator 1
	movl	-28(%rbp), %eax	# i, tmp269
	movslq	%eax, %rdx	# tmp269, tmp268
	movq	%rdx, %rax	# tmp268, tmp270
	addq	%rax, %rax	# tmp270
	addq	%rdx, %rax	# tmp268, tmp270
	salq	$2, %rax	#, tmp270
	addq	%rdx, %rax	# tmp268, tmp270
	salq	$3, %rax	#, tmp271
	addq	$rld, %rax	#, tmp272
	movq	(%rax), %rax	# rld[i_1].in, D.23535
	movl	8(%rax), %edx	# _40->fld[0].rtuint, D.23538
	movq	-24(%rbp), %rax	# in, tmp273
	movl	8(%rax), %eax	# in_17->fld[0].rtuint, D.23538
	cmpl	%eax, %edx	# D.23538, D.23538
	jne	.L231	#,
	.loc 1 750 0 discriminator 3
	movl	$1, %eax	#, iftmp.130
	jmp	.L232	#
.L231:
	.loc 1 750 0 discriminator 2
	movl	$0, %eax	#, iftmp.130
.L232:
	.loc 1 750 0 discriminator 4
	andl	$1, %eax	#, D.23539
	testb	%al, %al	# D.23539
	jne	.L229	#,
	jmp	.L228	#
.L230:
	.loc 1 750 0
	movl	-28(%rbp), %eax	# i, tmp275
	movslq	%eax, %rdx	# tmp275, tmp274
	movq	%rdx, %rax	# tmp274, tmp276
	addq	%rax, %rax	# tmp276
	addq	%rdx, %rax	# tmp274, tmp276
	salq	$2, %rax	#, tmp276
	addq	%rdx, %rax	# tmp274, tmp276
	salq	$3, %rax	#, tmp277
	addq	$rld, %rax	#, tmp278
	movq	(%rax), %rax	# rld[i_1].in, D.23535
	movq	-24(%rbp), %rdx	# in, tmp279
	movq	%rdx, %rsi	# tmp279,
	movq	%rax, %rdi	# D.23535,
	call	rtx_equal_p	#
	testl	%eax, %eax	# D.23533
	je	.L233	#,
	.loc 1 750 0 discriminator 1
	movl	-28(%rbp), %eax	# i, tmp281
	movslq	%eax, %rdx	# tmp281, tmp280
	movq	%rdx, %rax	# tmp280, tmp282
	addq	%rax, %rax	# tmp282
	addq	%rdx, %rax	# tmp280, tmp282
	salq	$2, %rax	#, tmp282
	addq	%rdx, %rax	# tmp280, tmp282
	salq	$3, %rax	#, tmp283
	addq	$rld, %rax	#, tmp284
	movq	(%rax), %rax	# rld[i_1].in, D.23535
	movq	%rax, %rdi	# D.23535,
	call	side_effects_p	#
	testl	%eax, %eax	# D.23533
	jne	.L233	#,
	.loc 1 750 0 discriminator 3
	movl	$1, %eax	#, iftmp.131
	jmp	.L234	#
.L233:
	.loc 1 750 0 discriminator 2
	movl	$0, %eax	#, iftmp.131
.L234:
	.loc 1 750 0 discriminator 4
	andl	$1, %eax	#, D.23539
	testb	%al, %al	# D.23539
	je	.L228	#,
.L229:
	.loc 1 750 0 discriminator 1
	cmpl	$0, -64(%rbp)	#, dont_share
	jne	.L228	#,
	.loc 1 751 0 is_stmt 1
	cmpq	$0, -48(%rbp)	#, out
	je	.L235	#,
	.loc 1 751 0 is_stmt 0 discriminator 1
	movl	-28(%rbp), %eax	# i, tmp286
	movslq	%eax, %rdx	# tmp286, tmp285
	movq	%rdx, %rax	# tmp285, tmp287
	addq	%rax, %rax	# tmp287
	addq	%rdx, %rax	# tmp285, tmp287
	salq	$2, %rax	#, tmp287
	addq	%rdx, %rax	# tmp285, tmp287
	salq	$3, %rax	#, tmp288
	addq	$rld, %rax	#, tmp289
	movq	8(%rax), %rax	# rld[i_1].out, D.23535
	testq	%rax, %rax	# D.23535
	je	.L235	#,
	movl	-28(%rbp), %eax	# i, tmp291
	movslq	%eax, %rdx	# tmp291, tmp290
	movq	%rdx, %rax	# tmp290, tmp292
	addq	%rax, %rax	# tmp292
	addq	%rdx, %rax	# tmp290, tmp292
	salq	$2, %rax	#, tmp292
	addq	%rdx, %rax	# tmp290, tmp292
	salq	$3, %rax	#, tmp293
	addq	$rld, %rax	#, tmp294
	movq	8(%rax), %rax	# rld[i_1].out, D.23535
	cmpq	-48(%rbp), %rax	# out, D.23535
	je	.L235	#,
	movl	-28(%rbp), %eax	# i, tmp296
	movslq	%eax, %rdx	# tmp296, tmp295
	movq	%rdx, %rax	# tmp295, tmp297
	addq	%rax, %rax	# tmp297
	addq	%rdx, %rax	# tmp295, tmp297
	salq	$2, %rax	#, tmp297
	addq	%rdx, %rax	# tmp295, tmp297
	salq	$3, %rax	#, tmp298
	addq	$rld, %rax	#, tmp299
	movq	8(%rax), %rax	# rld[i_1].out, D.23535
	testq	%rax, %rax	# D.23535
	je	.L228	#,
	movl	-28(%rbp), %eax	# i, tmp301
	movslq	%eax, %rdx	# tmp301, tmp300
	movq	%rdx, %rax	# tmp300, tmp302
	addq	%rax, %rax	# tmp302
	addq	%rdx, %rax	# tmp300, tmp302
	salq	$2, %rax	#, tmp302
	addq	%rdx, %rax	# tmp300, tmp302
	salq	$3, %rax	#, tmp303
	addq	$rld, %rax	#, tmp304
	movq	8(%rax), %rax	# rld[i_1].out, D.23535
	movzwl	(%rax), %eax	# _57->code, D.23537
	.loc 1 744 0 is_stmt 1 discriminator 1
	cmpw	$61, %ax	#, D.23537
	jne	.L236	#,
	.loc 1 751 0
	movq	-48(%rbp), %rax	# out, tmp305
	movzwl	(%rax), %eax	# out_18(D)->code, D.23537
	cmpw	$61, %ax	#, D.23537
	jne	.L237	#,
	.loc 1 751 0 is_stmt 0 discriminator 1
	movl	-28(%rbp), %eax	# i, tmp307
	movslq	%eax, %rdx	# tmp307, tmp306
	movq	%rdx, %rax	# tmp306, tmp308
	addq	%rax, %rax	# tmp308
	addq	%rdx, %rax	# tmp306, tmp308
	salq	$2, %rax	#, tmp308
	addq	%rdx, %rax	# tmp306, tmp308
	salq	$3, %rax	#, tmp309
	addq	$rld, %rax	#, tmp310
	movq	8(%rax), %rax	# rld[i_1].out, D.23535
	movl	8(%rax), %edx	# _60->fld[0].rtuint, D.23538
	movq	-48(%rbp), %rax	# out, tmp311
	movl	8(%rax), %eax	# out_18(D)->fld[0].rtuint, D.23538
	cmpl	%eax, %edx	# D.23538, D.23538
	jne	.L237	#,
	.loc 1 751 0 discriminator 3
	movl	$1, %eax	#, iftmp.132
	jmp	.L238	#
.L237:
	.loc 1 751 0 discriminator 2
	movl	$0, %eax	#, iftmp.132
.L238:
	.loc 1 751 0 discriminator 4
	andl	$1, %eax	#, D.23539
	testb	%al, %al	# D.23539
	jne	.L235	#,
	jmp	.L228	#
.L236:
	.loc 1 751 0
	movl	-28(%rbp), %eax	# i, tmp313
	movslq	%eax, %rdx	# tmp313, tmp312
	movq	%rdx, %rax	# tmp312, tmp314
	addq	%rax, %rax	# tmp314
	addq	%rdx, %rax	# tmp312, tmp314
	salq	$2, %rax	#, tmp314
	addq	%rdx, %rax	# tmp312, tmp314
	salq	$3, %rax	#, tmp315
	addq	$rld, %rax	#, tmp316
	movq	8(%rax), %rax	# rld[i_1].out, D.23535
	movq	-48(%rbp), %rdx	# out, tmp317
	movq	%rdx, %rsi	# tmp317,
	movq	%rax, %rdi	# D.23535,
	call	rtx_equal_p	#
	testl	%eax, %eax	# D.23533
	je	.L239	#,
	.loc 1 751 0 discriminator 1
	movl	-28(%rbp), %eax	# i, tmp319
	movslq	%eax, %rdx	# tmp319, tmp318
	movq	%rdx, %rax	# tmp318, tmp320
	addq	%rax, %rax	# tmp320
	addq	%rdx, %rax	# tmp318, tmp320
	salq	$2, %rax	#, tmp320
	addq	%rdx, %rax	# tmp318, tmp320
	salq	$3, %rax	#, tmp321
	addq	$rld, %rax	#, tmp322
	movq	8(%rax), %rax	# rld[i_1].out, D.23535
	movq	%rax, %rdi	# D.23535,
	call	side_effects_p	#
	testl	%eax, %eax	# D.23533
	jne	.L239	#,
	.loc 1 751 0 discriminator 3
	movl	$1, %eax	#, iftmp.133
	jmp	.L240	#
.L239:
	.loc 1 751 0 discriminator 2
	movl	$0, %eax	#, iftmp.133
.L240:
	.loc 1 751 0 discriminator 4
	andl	$1, %eax	#, D.23539
	testb	%al, %al	# D.23539
	jne	.L235	#,
.L228:
	.loc 1 752 0 is_stmt 1
	cmpq	$0, -48(%rbp)	#, out
	je	.L226	#,
	.loc 1 752 0 is_stmt 0 discriminator 1
	movl	-28(%rbp), %eax	# i, tmp324
	movslq	%eax, %rdx	# tmp324, tmp323
	movq	%rdx, %rax	# tmp323, tmp325
	addq	%rax, %rax	# tmp325
	addq	%rdx, %rax	# tmp323, tmp325
	salq	$2, %rax	#, tmp325
	addq	%rdx, %rax	# tmp323, tmp325
	salq	$3, %rax	#, tmp326
	addq	$rld, %rax	#, tmp327
	movq	8(%rax), %rax	# rld[i_1].out, D.23535
	cmpq	-48(%rbp), %rax	# out, D.23535
	je	.L241	#,
	movl	-28(%rbp), %eax	# i, tmp329
	movslq	%eax, %rdx	# tmp329, tmp328
	movq	%rdx, %rax	# tmp328, tmp330
	addq	%rax, %rax	# tmp330
	addq	%rdx, %rax	# tmp328, tmp330
	salq	$2, %rax	#, tmp330
	addq	%rdx, %rax	# tmp328, tmp330
	salq	$3, %rax	#, tmp331
	addq	$rld, %rax	#, tmp332
	movq	8(%rax), %rax	# rld[i_1].out, D.23535
	testq	%rax, %rax	# D.23535
	je	.L226	#,
	movl	-28(%rbp), %eax	# i, tmp334
	movslq	%eax, %rdx	# tmp334, tmp333
	movq	%rdx, %rax	# tmp333, tmp335
	addq	%rax, %rax	# tmp335
	addq	%rdx, %rax	# tmp333, tmp335
	salq	$2, %rax	#, tmp335
	addq	%rdx, %rax	# tmp333, tmp335
	salq	$3, %rax	#, tmp336
	addq	$rld, %rax	#, tmp337
	movq	8(%rax), %rax	# rld[i_1].out, D.23535
	movzwl	(%rax), %eax	# _75->code, D.23537
	.loc 1 744 0 is_stmt 1 discriminator 1
	cmpw	$61, %ax	#, D.23537
	jne	.L242	#,
	.loc 1 752 0
	movq	-48(%rbp), %rax	# out, tmp338
	movzwl	(%rax), %eax	# out_18(D)->code, D.23537
	cmpw	$61, %ax	#, D.23537
	jne	.L243	#,
	.loc 1 752 0 is_stmt 0 discriminator 1
	movl	-28(%rbp), %eax	# i, tmp340
	movslq	%eax, %rdx	# tmp340, tmp339
	movq	%rdx, %rax	# tmp339, tmp341
	addq	%rax, %rax	# tmp341
	addq	%rdx, %rax	# tmp339, tmp341
	salq	$2, %rax	#, tmp341
	addq	%rdx, %rax	# tmp339, tmp341
	salq	$3, %rax	#, tmp342
	addq	$rld, %rax	#, tmp343
	movq	8(%rax), %rax	# rld[i_1].out, D.23535
	movl	8(%rax), %edx	# _78->fld[0].rtuint, D.23538
	movq	-48(%rbp), %rax	# out, tmp344
	movl	8(%rax), %eax	# out_18(D)->fld[0].rtuint, D.23538
	cmpl	%eax, %edx	# D.23538, D.23538
	jne	.L243	#,
	.loc 1 752 0 discriminator 3
	movl	$1, %eax	#, iftmp.134
	jmp	.L244	#
.L243:
	.loc 1 752 0 discriminator 2
	movl	$0, %eax	#, iftmp.134
.L244:
	.loc 1 752 0 discriminator 4
	andl	$1, %eax	#, D.23539
	testb	%al, %al	# D.23539
	jne	.L241	#,
	jmp	.L226	#
.L242:
	.loc 1 752 0
	movl	-28(%rbp), %eax	# i, tmp346
	movslq	%eax, %rdx	# tmp346, tmp345
	movq	%rdx, %rax	# tmp345, tmp347
	addq	%rax, %rax	# tmp347
	addq	%rdx, %rax	# tmp345, tmp347
	salq	$2, %rax	#, tmp347
	addq	%rdx, %rax	# tmp345, tmp347
	salq	$3, %rax	#, tmp348
	addq	$rld, %rax	#, tmp349
	movq	8(%rax), %rax	# rld[i_1].out, D.23535
	movq	-48(%rbp), %rdx	# out, tmp350
	movq	%rdx, %rsi	# tmp350,
	movq	%rax, %rdi	# D.23535,
	call	rtx_equal_p	#
	testl	%eax, %eax	# D.23533
	je	.L245	#,
	.loc 1 752 0 discriminator 1
	movl	-28(%rbp), %eax	# i, tmp352
	movslq	%eax, %rdx	# tmp352, tmp351
	movq	%rdx, %rax	# tmp351, tmp353
	addq	%rax, %rax	# tmp353
	addq	%rdx, %rax	# tmp351, tmp353
	salq	$2, %rax	#, tmp353
	addq	%rdx, %rax	# tmp351, tmp353
	salq	$3, %rax	#, tmp354
	addq	$rld, %rax	#, tmp355
	movq	8(%rax), %rax	# rld[i_1].out, D.23535
	movq	%rax, %rdi	# D.23535,
	call	side_effects_p	#
	testl	%eax, %eax	# D.23533
	jne	.L245	#,
	.loc 1 752 0 discriminator 3
	movl	$1, %eax	#, iftmp.135
	jmp	.L246	#
.L245:
	.loc 1 752 0 discriminator 2
	movl	$0, %eax	#, iftmp.135
.L246:
	.loc 1 752 0 discriminator 4
	andl	$1, %eax	#, D.23539
	testb	%al, %al	# D.23539
	je	.L226	#,
.L241:
	.loc 1 753 0 is_stmt 1
	cmpq	$0, -24(%rbp)	#, in
	je	.L235	#,
	.loc 1 753 0 is_stmt 0 discriminator 1
	movl	-28(%rbp), %eax	# i, tmp357
	movslq	%eax, %rdx	# tmp357, tmp356
	movq	%rdx, %rax	# tmp356, tmp358
	addq	%rax, %rax	# tmp358
	addq	%rdx, %rax	# tmp356, tmp358
	salq	$2, %rax	#, tmp358
	addq	%rdx, %rax	# tmp356, tmp358
	salq	$3, %rax	#, tmp359
	addq	$rld, %rax	#, tmp360
	movq	(%rax), %rax	# rld[i_1].in, D.23535
	testq	%rax, %rax	# D.23535
	je	.L235	#,
	movl	-28(%rbp), %eax	# i, tmp362
	movslq	%eax, %rdx	# tmp362, tmp361
	movq	%rdx, %rax	# tmp361, tmp363
	addq	%rax, %rax	# tmp363
	addq	%rdx, %rax	# tmp361, tmp363
	salq	$2, %rax	#, tmp363
	addq	%rdx, %rax	# tmp361, tmp363
	salq	$3, %rax	#, tmp364
	addq	$rld, %rax	#, tmp365
	movq	(%rax), %rax	# rld[i_1].in, D.23535
	cmpq	-24(%rbp), %rax	# in, D.23535
	je	.L235	#,
	movl	-28(%rbp), %eax	# i, tmp367
	movslq	%eax, %rdx	# tmp367, tmp366
	movq	%rdx, %rax	# tmp366, tmp368
	addq	%rax, %rax	# tmp368
	addq	%rdx, %rax	# tmp366, tmp368
	salq	$2, %rax	#, tmp368
	addq	%rdx, %rax	# tmp366, tmp368
	salq	$3, %rax	#, tmp369
	addq	$rld, %rax	#, tmp370
	movq	(%rax), %rax	# rld[i_1].in, D.23535
	testq	%rax, %rax	# D.23535
	je	.L226	#,
	movl	-28(%rbp), %eax	# i, tmp372
	movslq	%eax, %rdx	# tmp372, tmp371
	movq	%rdx, %rax	# tmp371, tmp373
	addq	%rax, %rax	# tmp373
	addq	%rdx, %rax	# tmp371, tmp373
	salq	$2, %rax	#, tmp373
	addq	%rdx, %rax	# tmp371, tmp373
	salq	$3, %rax	#, tmp374
	addq	$rld, %rax	#, tmp375
	movq	(%rax), %rax	# rld[i_1].in, D.23535
	movzwl	(%rax), %eax	# _94->code, D.23537
	.loc 1 744 0 is_stmt 1 discriminator 1
	cmpw	$61, %ax	#, D.23537
	jne	.L247	#,
	.loc 1 753 0
	movq	-24(%rbp), %rax	# in, tmp376
	movzwl	(%rax), %eax	# in_17->code, D.23537
	cmpw	$61, %ax	#, D.23537
	jne	.L248	#,
	.loc 1 753 0 is_stmt 0 discriminator 1
	movl	-28(%rbp), %eax	# i, tmp378
	movslq	%eax, %rdx	# tmp378, tmp377
	movq	%rdx, %rax	# tmp377, tmp379
	addq	%rax, %rax	# tmp379
	addq	%rdx, %rax	# tmp377, tmp379
	salq	$2, %rax	#, tmp379
	addq	%rdx, %rax	# tmp377, tmp379
	salq	$3, %rax	#, tmp380
	addq	$rld, %rax	#, tmp381
	movq	(%rax), %rax	# rld[i_1].in, D.23535
	movl	8(%rax), %edx	# _97->fld[0].rtuint, D.23538
	movq	-24(%rbp), %rax	# in, tmp382
	movl	8(%rax), %eax	# in_17->fld[0].rtuint, D.23538
	cmpl	%eax, %edx	# D.23538, D.23538
	jne	.L248	#,
	.loc 1 753 0 discriminator 3
	movl	$1, %eax	#, iftmp.136
	jmp	.L249	#
.L248:
	.loc 1 753 0 discriminator 2
	movl	$0, %eax	#, iftmp.136
.L249:
	.loc 1 753 0 discriminator 4
	andl	$1, %eax	#, D.23539
	testb	%al, %al	# D.23539
	jne	.L235	#,
	jmp	.L226	#
.L247:
	.loc 1 753 0
	movl	-28(%rbp), %eax	# i, tmp384
	movslq	%eax, %rdx	# tmp384, tmp383
	movq	%rdx, %rax	# tmp383, tmp385
	addq	%rax, %rax	# tmp385
	addq	%rdx, %rax	# tmp383, tmp385
	salq	$2, %rax	#, tmp385
	addq	%rdx, %rax	# tmp383, tmp385
	salq	$3, %rax	#, tmp386
	addq	$rld, %rax	#, tmp387
	movq	(%rax), %rax	# rld[i_1].in, D.23535
	movq	-24(%rbp), %rdx	# in, tmp388
	movq	%rdx, %rsi	# tmp388,
	movq	%rax, %rdi	# D.23535,
	call	rtx_equal_p	#
	testl	%eax, %eax	# D.23533
	je	.L250	#,
	.loc 1 753 0 discriminator 1
	movl	-28(%rbp), %eax	# i, tmp390
	movslq	%eax, %rdx	# tmp390, tmp389
	movq	%rdx, %rax	# tmp389, tmp391
	addq	%rax, %rax	# tmp391
	addq	%rdx, %rax	# tmp389, tmp391
	salq	$2, %rax	#, tmp391
	addq	%rdx, %rax	# tmp389, tmp391
	salq	$3, %rax	#, tmp392
	addq	$rld, %rax	#, tmp393
	movq	(%rax), %rax	# rld[i_1].in, D.23535
	movq	%rax, %rdi	# D.23535,
	call	side_effects_p	#
	testl	%eax, %eax	# D.23533
	jne	.L250	#,
	.loc 1 753 0 discriminator 3
	movl	$1, %eax	#, iftmp.137
	jmp	.L251	#
.L250:
	.loc 1 753 0 discriminator 2
	movl	$0, %eax	#, iftmp.137
.L251:
	.loc 1 753 0 discriminator 4
	andl	$1, %eax	#, D.23539
	testb	%al, %al	# D.23539
	je	.L226	#,
.L235:
	.loc 1 754 0 is_stmt 1
	movl	-28(%rbp), %eax	# i, tmp395
	movslq	%eax, %rdx	# tmp395, tmp394
	movq	%rdx, %rax	# tmp394, tmp396
	addq	%rax, %rax	# tmp396
	addq	%rdx, %rax	# tmp394, tmp396
	salq	$2, %rax	#, tmp396
	addq	%rdx, %rax	# tmp394, tmp396
	salq	$3, %rax	#, tmp397
	addq	$rld, %rax	#, tmp398
	movq	8(%rax), %rax	# rld[i_1].out, D.23535
	testq	%rax, %rax	# D.23535
	je	.L252	#,
	.loc 1 754 0 is_stmt 0 discriminator 1
	movl	-28(%rbp), %eax	# i, tmp400
	movslq	%eax, %rdx	# tmp400, tmp399
	movq	%rdx, %rax	# tmp399, tmp401
	addq	%rax, %rax	# tmp401
	addq	%rdx, %rax	# tmp399, tmp401
	salq	$2, %rax	#, tmp401
	addq	%rdx, %rax	# tmp399, tmp401
	salq	$3, %rax	#, tmp402
	addq	$rld, %rax	#, tmp403
	movq	8(%rax), %rax	# rld[i_1].out, D.23535
	movq	%rax, %rdi	# D.23535,
	call	earlyclobber_operand_p	#
	testl	%eax, %eax	# D.23533
	jne	.L226	#,
.L252:
	.loc 1 756 0 is_stmt 1
	cmpl	$9, -56(%rbp)	#, type
	je	.L253	#,
	.loc 1 756 0 is_stmt 0 discriminator 1
	movl	-28(%rbp), %eax	# i, tmp405
	movslq	%eax, %rdx	# tmp405, tmp404
	movq	%rdx, %rax	# tmp404, tmp406
	addq	%rax, %rax	# tmp406
	addq	%rdx, %rax	# tmp404, tmp406
	salq	$2, %rax	#, tmp406
	addq	%rdx, %rax	# tmp404, tmp406
	salq	$3, %rax	#, tmp407
	addq	$rld+80, %rax	#, tmp408
	movl	12(%rax), %eax	# rld[i_1].when_needed, D.23540
	cmpl	$9, %eax	#, D.23540
	je	.L253	#,
	movl	-28(%rbp), %eax	# i, tmp410
	movslq	%eax, %rdx	# tmp410, tmp409
	movq	%rdx, %rax	# tmp409, tmp411
	addq	%rax, %rax	# tmp411
	addq	%rdx, %rax	# tmp409, tmp411
	salq	$2, %rax	#, tmp411
	addq	%rdx, %rax	# tmp409, tmp411
	salq	$3, %rax	#, tmp412
	addq	$rld+80, %rax	#, tmp413
	movl	12(%rax), %eax	# rld[i_1].when_needed, D.23540
	cmpl	-56(%rbp), %eax	# type, D.23540
	jne	.L254	#,
	movl	-28(%rbp), %eax	# i, tmp415
	movslq	%eax, %rdx	# tmp415, tmp414
	movq	%rdx, %rax	# tmp414, tmp416
	addq	%rax, %rax	# tmp416
	addq	%rdx, %rax	# tmp414, tmp416
	salq	$2, %rax	#, tmp416
	addq	%rdx, %rax	# tmp414, tmp416
	salq	$3, %rax	#, tmp417
	addq	$rld+64, %rax	#, tmp418
	movl	8(%rax), %eax	# rld[i_1].opnum, D.23533
	cmpl	-60(%rbp), %eax	# opnum, D.23533
	je	.L253	#,
.L254:
	.loc 1 756 0 discriminator 2
	cmpl	$0, -56(%rbp)	#, type
	jne	.L255	#,
	.loc 1 756 0 discriminator 1
	movl	-28(%rbp), %eax	# i, tmp420
	movslq	%eax, %rdx	# tmp420, tmp419
	movq	%rdx, %rax	# tmp419, tmp421
	addq	%rax, %rax	# tmp421
	addq	%rdx, %rax	# tmp419, tmp421
	salq	$2, %rax	#, tmp421
	addq	%rdx, %rax	# tmp419, tmp421
	salq	$3, %rax	#, tmp422
	addq	$rld+80, %rax	#, tmp423
	movl	12(%rax), %eax	# rld[i_1].when_needed, D.23540
	testl	%eax, %eax	# D.23540
	je	.L253	#,
.L255:
	.loc 1 756 0 discriminator 2
	cmpl	$7, -56(%rbp)	#, type
	jne	.L256	#,
	.loc 1 756 0 discriminator 1
	movl	-28(%rbp), %eax	# i, tmp425
	movslq	%eax, %rdx	# tmp425, tmp424
	movq	%rdx, %rax	# tmp424, tmp426
	addq	%rax, %rax	# tmp426
	addq	%rdx, %rax	# tmp424, tmp426
	salq	$2, %rax	#, tmp426
	addq	%rdx, %rax	# tmp424, tmp426
	salq	$3, %rax	#, tmp427
	addq	$rld+80, %rax	#, tmp428
	movl	12(%rax), %eax	# rld[i_1].when_needed, D.23540
	cmpl	$7, %eax	#, D.23540
	je	.L253	#,
.L256:
	.loc 1 756 0 discriminator 2
	cmpl	$10, -56(%rbp)	#, type
	jne	.L226	#,
	.loc 1 756 0 discriminator 1
	movl	-28(%rbp), %eax	# i, tmp430
	movslq	%eax, %rdx	# tmp430, tmp429
	movq	%rdx, %rax	# tmp429, tmp431
	addq	%rax, %rax	# tmp431
	addq	%rdx, %rax	# tmp429, tmp431
	salq	$2, %rax	#, tmp431
	addq	%rdx, %rax	# tmp429, tmp431
	salq	$3, %rax	#, tmp432
	addq	$rld+80, %rax	#, tmp433
	movl	12(%rax), %eax	# rld[i_1].when_needed, D.23540
	cmpl	$10, %eax	#, D.23540
	jne	.L226	#,
.L253:
	.loc 1 757 0 is_stmt 1
	movl	-28(%rbp), %eax	# i, D.23533
	jmp	.L223	#
.L226:
	.loc 1 743 0
	addl	$1, -28(%rbp)	#, i
.L224:
	.loc 1 743 0 is_stmt 0 discriminator 1
	movl	n_reloads(%rip), %eax	# n_reloads, n_reloads.138
	cmpl	%eax, -28(%rbp)	# n_reloads.138, i
	jl	.L257	#,
	.loc 1 764 0 is_stmt 1
	movl	$0, -28(%rbp)	#, i
	jmp	.L258	#
.L280:
	.loc 1 765 0
	movl	-28(%rbp), %eax	# i, tmp435
	movslq	%eax, %rdx	# tmp435, tmp434
	movq	%rdx, %rax	# tmp434, tmp436
	addq	%rax, %rax	# tmp436
	addq	%rdx, %rax	# tmp434, tmp436
	salq	$2, %rax	#, tmp436
	addq	%rdx, %rax	# tmp434, tmp436
	salq	$3, %rax	#, tmp437
	addq	$rld+16, %rax	#, tmp438
	movl	(%rax), %edx	# rld[i_2].class, D.23534
	movl	-52(%rbp), %eax	# class, tmp439
	movl	%edx, %esi	# D.23534,
	movl	%eax, %edi	# tmp439,
	call	reg_class_subset_p	#
	testl	%eax, %eax	# D.23533
	jne	.L259	#,
	.loc 1 766 0
	movl	-28(%rbp), %eax	# i, tmp441
	movslq	%eax, %rdx	# tmp441, tmp440
	movq	%rdx, %rax	# tmp440, tmp442
	addq	%rax, %rax	# tmp442
	addq	%rdx, %rax	# tmp440, tmp442
	salq	$2, %rax	#, tmp442
	addq	%rdx, %rax	# tmp440, tmp442
	salq	$3, %rax	#, tmp443
	addq	$rld+16, %rax	#, tmp444
	movl	(%rax), %eax	# rld[i_2].class, D.23534
	movl	-52(%rbp), %edx	# class, tmp445
	movl	%edx, %esi	# tmp445,
	movl	%eax, %edi	# D.23534,
	call	reg_class_subset_p	#
	testl	%eax, %eax	# D.23533
	je	.L260	#,
.L259:
	.loc 1 769 0
	movl	-28(%rbp), %eax	# i, tmp447
	movslq	%eax, %rdx	# tmp447, tmp446
	movq	%rdx, %rax	# tmp446, tmp448
	addq	%rax, %rax	# tmp448
	addq	%rdx, %rax	# tmp446, tmp448
	salq	$2, %rax	#, tmp448
	addq	%rdx, %rax	# tmp446, tmp448
	salq	$3, %rax	#, tmp449
	addq	$rld+64, %rax	#, tmp450
	movq	(%rax), %rax	# rld[i_2].reg_rtx, D.23535
	testq	%rax, %rax	# D.23535
	je	.L261	#,
	.loc 1 770 0
	movl	-52(%rbp), %eax	# class, class.139
	cltq
	movq	reg_class_contents(,%rax,8), %rbx	# reg_class_contents, D.23536
	movl	-28(%rbp), %eax	# i, tmp453
	movslq	%eax, %rdx	# tmp453, tmp452
	movq	%rdx, %rax	# tmp452, tmp454
	addq	%rax, %rax	# tmp454
	addq	%rdx, %rax	# tmp452, tmp454
	salq	$2, %rax	#, tmp454
	addq	%rdx, %rax	# tmp452, tmp454
	salq	$3, %rax	#, tmp455
	addq	$rld+64, %rax	#, tmp456
	movq	(%rax), %rax	# rld[i_2].reg_rtx, D.23535
	movq	%rax, %rdi	# D.23535,
	call	true_regnum	#
	movl	%eax, %ecx	# D.23533, tmp591
	shrq	%cl, %rbx	# tmp591, D.23536
	movq	%rbx, %rax	# D.23536, D.23536
	andl	$1, %eax	#, D.23536
	testq	%rax, %rax	# D.23536
	je	.L260	#,
.L261:
	.loc 1 772 0
	cmpq	$0, -48(%rbp)	#, out
	jne	.L260	#,
	.loc 1 772 0 is_stmt 0 discriminator 1
	movl	-28(%rbp), %eax	# i, tmp458
	movslq	%eax, %rdx	# tmp458, tmp457
	movq	%rdx, %rax	# tmp457, tmp459
	addq	%rax, %rax	# tmp459
	addq	%rdx, %rax	# tmp457, tmp459
	salq	$2, %rax	#, tmp459
	addq	%rdx, %rax	# tmp457, tmp459
	salq	$3, %rax	#, tmp460
	addq	$rld, %rax	#, tmp461
	movq	8(%rax), %rax	# rld[i_2].out, D.23535
	testq	%rax, %rax	# D.23535
	jne	.L260	#,
	movl	-28(%rbp), %eax	# i, tmp463
	movslq	%eax, %rdx	# tmp463, tmp462
	movq	%rdx, %rax	# tmp462, tmp464
	addq	%rax, %rax	# tmp464
	addq	%rdx, %rax	# tmp462, tmp464
	salq	$2, %rax	#, tmp464
	addq	%rdx, %rax	# tmp462, tmp464
	salq	$3, %rax	#, tmp465
	addq	$rld, %rax	#, tmp466
	movq	(%rax), %rax	# rld[i_2].in, D.23535
	testq	%rax, %rax	# D.23535
	je	.L260	#,
	.loc 1 773 0 is_stmt 1
	movq	-24(%rbp), %rax	# in, tmp467
	movzwl	(%rax), %eax	# in_17->code, D.23537
	cmpw	$61, %ax	#, D.23537
	jne	.L262	#,
	.loc 1 774 0
	movl	-28(%rbp), %eax	# i, tmp469
	movslq	%eax, %rdx	# tmp469, tmp468
	movq	%rdx, %rax	# tmp468, tmp470
	addq	%rax, %rax	# tmp470
	addq	%rdx, %rax	# tmp468, tmp470
	salq	$2, %rax	#, tmp470
	addq	%rdx, %rax	# tmp468, tmp470
	salq	$3, %rax	#, tmp471
	addq	$rld, %rax	#, tmp472
	movq	(%rax), %rax	# rld[i_2].in, D.23535
	movzwl	(%rax), %eax	# _139->code, D.23537
	movzwl	%ax, %eax	# D.23537, D.23533
	cltq
	movzbl	rtx_class(%rax), %eax	# rtx_class, D.23541
	cmpb	$97, %al	#, D.23541
	jne	.L262	#,
	.loc 1 775 0
	movl	-28(%rbp), %eax	# i, tmp475
	movslq	%eax, %rdx	# tmp475, tmp474
	movq	%rdx, %rax	# tmp474, tmp476
	addq	%rax, %rax	# tmp476
	addq	%rdx, %rax	# tmp474, tmp476
	salq	$2, %rax	#, tmp476
	addq	%rdx, %rax	# tmp474, tmp476
	salq	$3, %rax	#, tmp477
	addq	$rld, %rax	#, tmp478
	movq	(%rax), %rax	# rld[i_2].in, D.23535
	movq	8(%rax), %rax	# _143->fld[0].rtx, D.23535
	cmpq	-24(%rbp), %rax	# in, D.23535
	je	.L263	#,
	.loc 1 775 0 is_stmt 0 discriminator 1
	movl	-28(%rbp), %eax	# i, tmp480
	movslq	%eax, %rdx	# tmp480, tmp479
	movq	%rdx, %rax	# tmp479, tmp481
	addq	%rax, %rax	# tmp481
	addq	%rdx, %rax	# tmp479, tmp481
	salq	$2, %rax	#, tmp481
	addq	%rdx, %rax	# tmp479, tmp481
	salq	$3, %rax	#, tmp482
	addq	$rld, %rax	#, tmp483
	movq	(%rax), %rax	# rld[i_2].in, D.23535
	movq	8(%rax), %rax	# _145->fld[0].rtx, D.23535
	testq	%rax, %rax	# D.23535
	je	.L262	#,
	movl	-28(%rbp), %eax	# i, tmp485
	movslq	%eax, %rdx	# tmp485, tmp484
	movq	%rdx, %rax	# tmp484, tmp486
	addq	%rax, %rax	# tmp486
	addq	%rdx, %rax	# tmp484, tmp486
	salq	$2, %rax	#, tmp486
	addq	%rdx, %rax	# tmp484, tmp486
	salq	$3, %rax	#, tmp487
	addq	$rld, %rax	#, tmp488
	movq	(%rax), %rax	# rld[i_2].in, D.23535
	movq	8(%rax), %rax	# _147->fld[0].rtx, D.23535
	movzwl	(%rax), %eax	# _148->code, D.23537
	.loc 1 772 0 is_stmt 1 discriminator 1
	cmpw	$61, %ax	#, D.23537
	jne	.L264	#,
	.loc 1 775 0
	movq	-24(%rbp), %rax	# in, tmp489
	movzwl	(%rax), %eax	# in_17->code, D.23537
	cmpw	$61, %ax	#, D.23537
	jne	.L265	#,
	.loc 1 775 0 is_stmt 0 discriminator 1
	movl	-28(%rbp), %eax	# i, tmp491
	movslq	%eax, %rdx	# tmp491, tmp490
	movq	%rdx, %rax	# tmp490, tmp492
	addq	%rax, %rax	# tmp492
	addq	%rdx, %rax	# tmp490, tmp492
	salq	$2, %rax	#, tmp492
	addq	%rdx, %rax	# tmp490, tmp492
	salq	$3, %rax	#, tmp493
	addq	$rld, %rax	#, tmp494
	movq	(%rax), %rax	# rld[i_2].in, D.23535
	movq	8(%rax), %rax	# _151->fld[0].rtx, D.23535
	movl	8(%rax), %edx	# _152->fld[0].rtuint, D.23538
	movq	-24(%rbp), %rax	# in, tmp495
	movl	8(%rax), %eax	# in_17->fld[0].rtuint, D.23538
	cmpl	%eax, %edx	# D.23538, D.23538
	jne	.L265	#,
	.loc 1 775 0 discriminator 3
	movl	$1, %eax	#, iftmp.140
	jmp	.L266	#
.L265:
	.loc 1 775 0 discriminator 2
	movl	$0, %eax	#, iftmp.140
.L266:
	.loc 1 775 0 discriminator 4
	andl	$1, %eax	#, D.23539
	testb	%al, %al	# D.23539
	jne	.L263	#,
	jmp	.L262	#
.L264:
	.loc 1 775 0
	movl	-28(%rbp), %eax	# i, tmp497
	movslq	%eax, %rdx	# tmp497, tmp496
	movq	%rdx, %rax	# tmp496, tmp498
	addq	%rax, %rax	# tmp498
	addq	%rdx, %rax	# tmp496, tmp498
	salq	$2, %rax	#, tmp498
	addq	%rdx, %rax	# tmp496, tmp498
	salq	$3, %rax	#, tmp499
	addq	$rld, %rax	#, tmp500
	movq	(%rax), %rax	# rld[i_2].in, D.23535
	movq	8(%rax), %rax	# _158->fld[0].rtx, D.23535
	movq	-24(%rbp), %rdx	# in, tmp501
	movq	%rdx, %rsi	# tmp501,
	movq	%rax, %rdi	# D.23535,
	call	rtx_equal_p	#
	testl	%eax, %eax	# D.23533
	je	.L267	#,
	.loc 1 775 0 discriminator 1
	movl	-28(%rbp), %eax	# i, tmp503
	movslq	%eax, %rdx	# tmp503, tmp502
	movq	%rdx, %rax	# tmp502, tmp504
	addq	%rax, %rax	# tmp504
	addq	%rdx, %rax	# tmp502, tmp504
	salq	$2, %rax	#, tmp504
	addq	%rdx, %rax	# tmp502, tmp504
	salq	$3, %rax	#, tmp505
	addq	$rld, %rax	#, tmp506
	movq	(%rax), %rax	# rld[i_2].in, D.23535
	movq	8(%rax), %rax	# _161->fld[0].rtx, D.23535
	movq	%rax, %rdi	# D.23535,
	call	side_effects_p	#
	testl	%eax, %eax	# D.23533
	jne	.L267	#,
	.loc 1 775 0 discriminator 3
	movl	$1, %eax	#, iftmp.141
	jmp	.L268	#
.L267:
	.loc 1 775 0 discriminator 2
	movl	$0, %eax	#, iftmp.141
.L268:
	.loc 1 775 0 discriminator 4
	andl	$1, %eax	#, D.23539
	testb	%al, %al	# D.23539
	jne	.L263	#,
.L262:
	.loc 1 776 0 is_stmt 1
	movl	-28(%rbp), %eax	# i, tmp508
	movslq	%eax, %rdx	# tmp508, tmp507
	movq	%rdx, %rax	# tmp507, tmp509
	addq	%rax, %rax	# tmp509
	addq	%rdx, %rax	# tmp507, tmp509
	salq	$2, %rax	#, tmp509
	addq	%rdx, %rax	# tmp507, tmp509
	salq	$3, %rax	#, tmp510
	addq	$rld, %rax	#, tmp511
	movq	(%rax), %rax	# rld[i_2].in, D.23535
	movzwl	(%rax), %eax	# _167->code, D.23537
	cmpw	$61, %ax	#, D.23537
	jne	.L260	#,
	.loc 1 777 0
	movq	-24(%rbp), %rax	# in, tmp512
	movzwl	(%rax), %eax	# in_17->code, D.23537
	movzwl	%ax, %eax	# D.23537, D.23533
	cltq
	movzbl	rtx_class(%rax), %eax	# rtx_class, D.23541
	cmpb	$97, %al	#, D.23541
	jne	.L260	#,
	.loc 1 778 0
	movq	-24(%rbp), %rax	# in, tmp514
	movq	8(%rax), %rcx	# in_17->fld[0].rtx, D.23535
	movl	-28(%rbp), %eax	# i, tmp516
	movslq	%eax, %rdx	# tmp516, tmp515
	movq	%rdx, %rax	# tmp515, tmp517
	addq	%rax, %rax	# tmp517
	addq	%rdx, %rax	# tmp515, tmp517
	salq	$2, %rax	#, tmp517
	addq	%rdx, %rax	# tmp515, tmp517
	salq	$3, %rax	#, tmp518
	addq	$rld, %rax	#, tmp519
	movq	(%rax), %rax	# rld[i_2].in, D.23535
	cmpq	%rax, %rcx	# D.23535, D.23535
	je	.L263	#,
	.loc 1 778 0 is_stmt 0 discriminator 1
	movq	-24(%rbp), %rax	# in, tmp520
	movq	8(%rax), %rax	# in_17->fld[0].rtx, D.23535
	testq	%rax, %rax	# D.23535
	je	.L260	#,
	movq	-24(%rbp), %rax	# in, tmp521
	movq	8(%rax), %rax	# in_17->fld[0].rtx, D.23535
	movzwl	(%rax), %eax	# _175->code, D.23537
	.loc 1 772 0 is_stmt 1 discriminator 1
	cmpw	$61, %ax	#, D.23537
	jne	.L269	#,
	.loc 1 778 0
	movl	-28(%rbp), %eax	# i, tmp523
	movslq	%eax, %rdx	# tmp523, tmp522
	movq	%rdx, %rax	# tmp522, tmp524
	addq	%rax, %rax	# tmp524
	addq	%rdx, %rax	# tmp522, tmp524
	salq	$2, %rax	#, tmp524
	addq	%rdx, %rax	# tmp522, tmp524
	salq	$3, %rax	#, tmp525
	addq	$rld, %rax	#, tmp526
	movq	(%rax), %rax	# rld[i_2].in, D.23535
	movzwl	(%rax), %eax	# _177->code, D.23537
	cmpw	$61, %ax	#, D.23537
	jne	.L270	#,
	.loc 1 778 0 is_stmt 0 discriminator 1
	movq	-24(%rbp), %rax	# in, tmp527
	movq	8(%rax), %rax	# in_17->fld[0].rtx, D.23535
	movl	8(%rax), %ecx	# _179->fld[0].rtuint, D.23538
	movl	-28(%rbp), %eax	# i, tmp529
	movslq	%eax, %rdx	# tmp529, tmp528
	movq	%rdx, %rax	# tmp528, tmp530
	addq	%rax, %rax	# tmp530
	addq	%rdx, %rax	# tmp528, tmp530
	salq	$2, %rax	#, tmp530
	addq	%rdx, %rax	# tmp528, tmp530
	salq	$3, %rax	#, tmp531
	addq	$rld, %rax	#, tmp532
	movq	(%rax), %rax	# rld[i_2].in, D.23535
	movl	8(%rax), %eax	# _181->fld[0].rtuint, D.23538
	cmpl	%eax, %ecx	# D.23538, D.23538
	jne	.L270	#,
	.loc 1 778 0 discriminator 3
	movl	$1, %eax	#, iftmp.142
	jmp	.L271	#
.L270:
	.loc 1 778 0 discriminator 2
	movl	$0, %eax	#, iftmp.142
.L271:
	.loc 1 778 0 discriminator 4
	andl	$1, %eax	#, D.23539
	testb	%al, %al	# D.23539
	jne	.L263	#,
	jmp	.L260	#
.L269:
	.loc 1 778 0
	movl	-28(%rbp), %eax	# i, tmp534
	movslq	%eax, %rdx	# tmp534, tmp533
	movq	%rdx, %rax	# tmp533, tmp535
	addq	%rax, %rax	# tmp535
	addq	%rdx, %rax	# tmp533, tmp535
	salq	$2, %rax	#, tmp535
	addq	%rdx, %rax	# tmp533, tmp535
	salq	$3, %rax	#, tmp536
	addq	$rld, %rax	#, tmp537
	movq	(%rax), %rdx	# rld[i_2].in, D.23535
	movq	-24(%rbp), %rax	# in, tmp538
	movq	8(%rax), %rax	# in_17->fld[0].rtx, D.23535
	movq	%rdx, %rsi	# D.23535,
	movq	%rax, %rdi	# D.23535,
	call	rtx_equal_p	#
	testl	%eax, %eax	# D.23533
	je	.L272	#,
	.loc 1 778 0 discriminator 1
	movq	-24(%rbp), %rax	# in, tmp539
	movq	8(%rax), %rax	# in_17->fld[0].rtx, D.23535
	movq	%rax, %rdi	# D.23535,
	call	side_effects_p	#
	testl	%eax, %eax	# D.23533
	jne	.L272	#,
	.loc 1 778 0 discriminator 3
	movl	$1, %eax	#, iftmp.143
	jmp	.L273	#
.L272:
	.loc 1 778 0 discriminator 2
	movl	$0, %eax	#, iftmp.143
.L273:
	.loc 1 778 0 discriminator 4
	andl	$1, %eax	#, D.23539
	testb	%al, %al	# D.23539
	je	.L260	#,
.L263:
	.loc 1 779 0 is_stmt 1
	movl	-28(%rbp), %eax	# i, tmp541
	movslq	%eax, %rdx	# tmp541, tmp540
	movq	%rdx, %rax	# tmp540, tmp542
	addq	%rax, %rax	# tmp542
	addq	%rdx, %rax	# tmp540, tmp542
	salq	$2, %rax	#, tmp542
	addq	%rdx, %rax	# tmp540, tmp542
	salq	$3, %rax	#, tmp543
	addq	$rld, %rax	#, tmp544
	movq	8(%rax), %rax	# rld[i_2].out, D.23535
	testq	%rax, %rax	# D.23535
	je	.L274	#,
	.loc 1 779 0 is_stmt 0 discriminator 1
	movl	-28(%rbp), %eax	# i, tmp546
	movslq	%eax, %rdx	# tmp546, tmp545
	movq	%rdx, %rax	# tmp545, tmp547
	addq	%rax, %rax	# tmp547
	addq	%rdx, %rax	# tmp545, tmp547
	salq	$2, %rax	#, tmp547
	addq	%rdx, %rax	# tmp545, tmp547
	salq	$3, %rax	#, tmp548
	addq	$rld, %rax	#, tmp549
	movq	8(%rax), %rax	# rld[i_2].out, D.23535
	movq	%rax, %rdi	# D.23535,
	call	earlyclobber_operand_p	#
	testl	%eax, %eax	# D.23533
	jne	.L260	#,
.L274:
	.loc 1 781 0 is_stmt 1
	cmpl	$9, -56(%rbp)	#, type
	je	.L275	#,
	.loc 1 781 0 is_stmt 0 discriminator 1
	movl	-28(%rbp), %eax	# i, tmp551
	movslq	%eax, %rdx	# tmp551, tmp550
	movq	%rdx, %rax	# tmp550, tmp552
	addq	%rax, %rax	# tmp552
	addq	%rdx, %rax	# tmp550, tmp552
	salq	$2, %rax	#, tmp552
	addq	%rdx, %rax	# tmp550, tmp552
	salq	$3, %rax	#, tmp553
	addq	$rld+80, %rax	#, tmp554
	movl	12(%rax), %eax	# rld[i_2].when_needed, D.23540
	cmpl	$9, %eax	#, D.23540
	je	.L275	#,
	movl	-28(%rbp), %eax	# i, tmp556
	movslq	%eax, %rdx	# tmp556, tmp555
	movq	%rdx, %rax	# tmp555, tmp557
	addq	%rax, %rax	# tmp557
	addq	%rdx, %rax	# tmp555, tmp557
	salq	$2, %rax	#, tmp557
	addq	%rdx, %rax	# tmp555, tmp557
	salq	$3, %rax	#, tmp558
	addq	$rld+80, %rax	#, tmp559
	movl	12(%rax), %eax	# rld[i_2].when_needed, D.23540
	cmpl	-56(%rbp), %eax	# type, D.23540
	jne	.L276	#,
	movl	-28(%rbp), %eax	# i, tmp561
	movslq	%eax, %rdx	# tmp561, tmp560
	movq	%rdx, %rax	# tmp560, tmp562
	addq	%rax, %rax	# tmp562
	addq	%rdx, %rax	# tmp560, tmp562
	salq	$2, %rax	#, tmp562
	addq	%rdx, %rax	# tmp560, tmp562
	salq	$3, %rax	#, tmp563
	addq	$rld+64, %rax	#, tmp564
	movl	8(%rax), %eax	# rld[i_2].opnum, D.23533
	cmpl	-60(%rbp), %eax	# opnum, D.23533
	je	.L275	#,
.L276:
	.loc 1 781 0 discriminator 2
	cmpl	$0, -56(%rbp)	#, type
	jne	.L277	#,
	.loc 1 781 0 discriminator 1
	movl	-28(%rbp), %eax	# i, tmp566
	movslq	%eax, %rdx	# tmp566, tmp565
	movq	%rdx, %rax	# tmp565, tmp567
	addq	%rax, %rax	# tmp567
	addq	%rdx, %rax	# tmp565, tmp567
	salq	$2, %rax	#, tmp567
	addq	%rdx, %rax	# tmp565, tmp567
	salq	$3, %rax	#, tmp568
	addq	$rld+80, %rax	#, tmp569
	movl	12(%rax), %eax	# rld[i_2].when_needed, D.23540
	testl	%eax, %eax	# D.23540
	je	.L275	#,
.L277:
	.loc 1 781 0 discriminator 2
	cmpl	$7, -56(%rbp)	#, type
	jne	.L278	#,
	.loc 1 781 0 discriminator 1
	movl	-28(%rbp), %eax	# i, tmp571
	movslq	%eax, %rdx	# tmp571, tmp570
	movq	%rdx, %rax	# tmp570, tmp572
	addq	%rax, %rax	# tmp572
	addq	%rdx, %rax	# tmp570, tmp572
	salq	$2, %rax	#, tmp572
	addq	%rdx, %rax	# tmp570, tmp572
	salq	$3, %rax	#, tmp573
	addq	$rld+80, %rax	#, tmp574
	movl	12(%rax), %eax	# rld[i_2].when_needed, D.23540
	cmpl	$7, %eax	#, D.23540
	je	.L275	#,
.L278:
	.loc 1 781 0 discriminator 2
	cmpl	$10, -56(%rbp)	#, type
	jne	.L260	#,
	.loc 1 781 0 discriminator 1
	movl	-28(%rbp), %eax	# i, tmp576
	movslq	%eax, %rdx	# tmp576, tmp575
	movq	%rdx, %rax	# tmp575, tmp577
	addq	%rax, %rax	# tmp577
	addq	%rdx, %rax	# tmp575, tmp577
	salq	$2, %rax	#, tmp577
	addq	%rdx, %rax	# tmp575, tmp577
	salq	$3, %rax	#, tmp578
	addq	$rld+80, %rax	#, tmp579
	movl	12(%rax), %eax	# rld[i_2].when_needed, D.23540
	cmpl	$10, %eax	#, D.23540
	jne	.L260	#,
.L275:
	.loc 1 786 0 is_stmt 1
	movq	-24(%rbp), %rax	# in, tmp580
	movzwl	(%rax), %eax	# in_17->code, D.23537
	cmpw	$61, %ax	#, D.23537
	jne	.L279	#,
	.loc 1 787 0
	movl	-28(%rbp), %eax	# i, tmp582
	movslq	%eax, %rdx	# tmp582, tmp581
	movq	%rdx, %rax	# tmp581, tmp583
	addq	%rax, %rax	# tmp583
	addq	%rdx, %rax	# tmp581, tmp583
	salq	$2, %rax	#, tmp583
	addq	%rdx, %rax	# tmp581, tmp583
	salq	$3, %rax	#, tmp584
	addq	$rld, %rax	#, tmp585
	movq	(%rax), %rdx	# rld[i_2].in, D.23535
	movq	-40(%rbp), %rax	# p_in, tmp586
	movq	%rdx, (%rax)	# D.23535, *p_in_16(D)
.L279:
	.loc 1 788 0
	movl	-28(%rbp), %eax	# i, D.23533
	jmp	.L223	#
.L260:
	.loc 1 764 0
	addl	$1, -28(%rbp)	#, i
.L258:
	.loc 1 764 0 is_stmt 0 discriminator 1
	movl	n_reloads(%rip), %eax	# n_reloads, n_reloads.144
	cmpl	%eax, -28(%rbp)	# n_reloads.144, i
	jl	.L280	#,
	.loc 1 790 0 is_stmt 1
	movl	n_reloads(%rip), %eax	# n_reloads, D.23533
.L223:
	.loc 1 791 0
	addq	$56, %rsp	#,
	popq	%rbx	#
	popq	%rbp	#
	.cfi_def_cfa 7, 8
	ret
	.cfi_endproc
.LFE6:
	.size	find_reusable_reload, .-find_reusable_reload
	.type	reload_inner_reg_of_subreg, @function
reload_inner_reg_of_subreg:
.LFB7:
	.loc 1 800 0
	.cfi_startproc
	pushq	%rbp	#
	.cfi_def_cfa_offset 16
	.cfi_offset 6, -16
	movq	%rsp, %rbp	#,
	.cfi_def_cfa_register 6
	pushq	%rbx	#
	subq	$40, %rsp	#,
	.cfi_offset 3, -24
	movq	%rdi, -40(%rbp)	# x, x
	movl	%esi, -44(%rbp)	# mode, mode
	.loc 1 804 0
	movq	-40(%rbp), %rax	# x, tmp136
	movzwl	(%rax), %eax	# x_14(D)->code, D.23543
	cmpw	$63, %ax	#, D.23543
	je	.L282	#,
	.loc 1 805 0
	movl	$0, %eax	#, D.23542
	jmp	.L283	#
.L282:
	.loc 1 807 0
	movq	-40(%rbp), %rax	# x, tmp137
	movq	8(%rax), %rax	# x_14(D)->fld[0].rtx, tmp138
	movq	%rax, -24(%rbp)	# tmp138, inner
	.loc 1 810 0
	movq	-24(%rbp), %rax	# inner, tmp139
	movzwl	(%rax), %eax	# inner_17->code, D.23543
	cmpw	$67, %ax	#, D.23543
	je	.L284	#,
	.loc 1 810 0 is_stmt 0 discriminator 1
	movq	-24(%rbp), %rax	# inner, tmp140
	movzwl	(%rax), %eax	# inner_17->code, D.23543
	cmpw	$68, %ax	#, D.23543
	je	.L284	#,
	movq	-24(%rbp), %rax	# inner, tmp141
	movzwl	(%rax), %eax	# inner_17->code, D.23543
	cmpw	$54, %ax	#, D.23543
	je	.L284	#,
	movq	-24(%rbp), %rax	# inner, tmp142
	movzwl	(%rax), %eax	# inner_17->code, D.23543
	cmpw	$55, %ax	#, D.23543
	je	.L284	#,
	movq	-24(%rbp), %rax	# inner, tmp143
	movzwl	(%rax), %eax	# inner_17->code, D.23543
	cmpw	$58, %ax	#, D.23543
	je	.L284	#,
	movq	-24(%rbp), %rax	# inner, tmp144
	movzwl	(%rax), %eax	# inner_17->code, D.23543
	cmpw	$134, %ax	#, D.23543
	je	.L284	#,
	movq	-24(%rbp), %rax	# inner, tmp145
	movzwl	(%rax), %eax	# inner_17->code, D.23543
	cmpw	$56, %ax	#, D.23543
	je	.L284	#,
	movq	-24(%rbp), %rax	# inner, tmp146
	movzwl	(%rax), %eax	# inner_17->code, D.23543
	cmpw	$140, %ax	#, D.23543
	je	.L284	#,
	movq	-24(%rbp), %rax	# inner, tmp147
	movzwl	(%rax), %eax	# inner_17->code, D.23543
	cmpw	$75, %ax	#, D.23543
	jne	.L285	#,
.L284:
	.loc 1 811 0 is_stmt 1
	movl	$1, %eax	#, D.23542
	jmp	.L283	#
.L285:
	.loc 1 815 0
	movq	-24(%rbp), %rax	# inner, tmp148
	movzwl	(%rax), %eax	# inner_17->code, D.23543
	cmpw	$61, %ax	#, D.23543
	jne	.L286	#,
	.loc 1 816 0
	movq	-24(%rbp), %rax	# inner, tmp149
	movl	8(%rax), %eax	# inner_17->fld[0].rtuint, D.23544
	cmpl	$52, %eax	#, D.23544
	jbe	.L287	#,
.L286:
	.loc 1 817 0
	movl	$0, %eax	#, D.23542
	jmp	.L283	#
.L287:
	.loc 1 820 0
	movq	-40(%rbp), %rax	# x, tmp150
	movq	%rax, %rdi	# tmp150,
	call	subreg_regno	#
	movl	-44(%rbp), %edx	# mode, tmp151
	movl	%edx, %esi	# tmp151,
	movl	%eax, %edi	# D.23542,
	call	ix86_hard_regno_mode_ok	#
	testl	%eax, %eax	# D.23542
	jne	.L288	#,
	.loc 1 821 0
	movl	$1, %eax	#, D.23542
	jmp	.L283	#
.L288:
	.loc 1 826 0
	movl	-44(%rbp), %eax	# mode, mode.146
	cltq
	movzbl	mode_size(%rax), %eax	# mode_size, D.23545
	movzbl	%al, %edx	# D.23545, D.23542
	movl	target_flags(%rip), %eax	# target_flags, target_flags.148
	andl	$33554432, %eax	#, D.23542
	testl	%eax, %eax	# D.23542
	je	.L289	#,
	.loc 1 826 0 is_stmt 0 discriminator 1
	movl	$8, %eax	#, iftmp.147
	jmp	.L290	#
.L289:
	.loc 1 826 0 discriminator 2
	movl	$4, %eax	#, iftmp.147
.L290:
	.loc 1 828 0 is_stmt 1
	cmpl	%eax, %edx	# iftmp.147, D.23542
	jg	.L291	#,
	.loc 1 827 0
	movq	-24(%rbp), %rax	# inner, tmp153
	movzbl	2(%rax), %eax	# inner_17->mode, D.23545
	movzbl	%al, %eax	# D.23545, D.23542
	cltq
	movzbl	mode_size(%rax), %eax	# mode_size, D.23545
	movzbl	%al, %edx	# D.23545, D.23542
	movl	target_flags(%rip), %eax	# target_flags, target_flags.150
	andl	$33554432, %eax	#, D.23542
	testl	%eax, %eax	# D.23542
	je	.L292	#,
	.loc 1 827 0 is_stmt 0 discriminator 1
	movl	$8, %eax	#, iftmp.149
	jmp	.L293	#
.L292:
	.loc 1 827 0 discriminator 2
	movl	$4, %eax	#, iftmp.149
.L293:
	.loc 1 827 0 discriminator 3
	cmpl	%eax, %edx	# iftmp.149, D.23542
	jle	.L291	#,
	.loc 1 828 0 is_stmt 1
	movq	-24(%rbp), %rax	# inner, tmp155
	movzbl	2(%rax), %eax	# inner_17->mode, D.23545
	movzbl	%al, %eax	# D.23545, D.23542
	cltq
	movzbl	mode_size(%rax), %eax	# mode_size, D.23545
	movzbl	%al, %eax	# D.23545, D.23542
	movl	target_flags(%rip), %edx	# target_flags, target_flags.152
	andl	$33554432, %edx	#, D.23542
	testl	%edx, %edx	# D.23542
	je	.L294	#,
	.loc 1 828 0 is_stmt 0 discriminator 1
	movl	$8, %ebx	#, iftmp.151
	jmp	.L295	#
.L294:
	.loc 1 828 0 discriminator 2
	movl	$4, %ebx	#, iftmp.151
.L295:
	.loc 1 828 0 discriminator 3
	cltd
	idivl	%ebx	# iftmp.151
	movl	%eax, %ecx	# tmp157, D.23542
	.loc 1 829 0 is_stmt 1 discriminator 3
	movq	-24(%rbp), %rax	# inner, tmp159
	movl	8(%rax), %eax	# inner_17->fld[0].rtuint, D.23544
	cmpl	$7, %eax	#, D.23544
	jbe	.L296	#,
	.loc 1 829 0 is_stmt 0 discriminator 1
	movq	-24(%rbp), %rax	# inner, tmp160
	movl	8(%rax), %eax	# inner_17->fld[0].rtuint, D.23544
	cmpl	$15, %eax	#, D.23544
	jbe	.L297	#,
.L296:
	.loc 1 829 0 discriminator 2
	movq	-24(%rbp), %rax	# inner, tmp161
	movl	8(%rax), %eax	# inner_17->fld[0].rtuint, D.23544
	cmpl	$20, %eax	#, D.23544
	jbe	.L298	#,
	.loc 1 829 0 discriminator 1
	movq	-24(%rbp), %rax	# inner, tmp162
	movl	8(%rax), %eax	# inner_17->fld[0].rtuint, D.23544
	cmpl	$28, %eax	#, D.23544
	jbe	.L297	#,
.L298:
	.loc 1 829 0 discriminator 2
	movq	-24(%rbp), %rax	# inner, tmp163
	movl	8(%rax), %eax	# inner_17->fld[0].rtuint, D.23544
	cmpl	$44, %eax	#, D.23544
	jbe	.L299	#,
	.loc 1 829 0 discriminator 1
	movq	-24(%rbp), %rax	# inner, tmp164
	movl	8(%rax), %eax	# inner_17->fld[0].rtuint, D.23544
	cmpl	$52, %eax	#, D.23544
	jbe	.L297	#,
.L299:
	.loc 1 829 0 discriminator 2
	movq	-24(%rbp), %rax	# inner, tmp165
	movl	8(%rax), %eax	# inner_17->fld[0].rtuint, D.23544
	cmpl	$28, %eax	#, D.23544
	jbe	.L300	#,
	.loc 1 829 0 discriminator 1
	movq	-24(%rbp), %rax	# inner, tmp166
	movl	8(%rax), %eax	# inner_17->fld[0].rtuint, D.23544
	cmpl	$36, %eax	#, D.23544
	ja	.L300	#,
.L297:
	movq	-24(%rbp), %rax	# inner, tmp167
	movzbl	2(%rax), %eax	# inner_17->mode, D.23545
	movzbl	%al, %eax	# D.23545, D.23542
	cltq
	movl	mode_class(,%rax,4), %eax	# mode_class, D.23546
	cmpl	$5, %eax	#, D.23546
	je	.L301	#,
	.loc 1 829 0 discriminator 2
	movq	-24(%rbp), %rax	# inner, tmp169
	movzbl	2(%rax), %eax	# inner_17->mode, D.23545
	movzbl	%al, %eax	# D.23545, D.23542
	cltq
	movl	mode_class(,%rax,4), %eax	# mode_class, D.23546
	cmpl	$6, %eax	#, D.23546
	jne	.L302	#,
.L301:
	.loc 1 829 0 discriminator 1
	movl	$2, %eax	#, iftmp.154
	jmp	.L303	#
.L302:
	movl	$1, %eax	#, iftmp.154
.L303:
	.loc 1 829 0 discriminator 3
	jmp	.L304	#
.L300:
	.loc 1 829 0 discriminator 2
	movq	-24(%rbp), %rax	# inner, tmp171
	movzbl	2(%rax), %eax	# inner_17->mode, D.23545
	cmpb	$18, %al	#, D.23545
	jne	.L305	#,
	.loc 1 829 0 discriminator 1
	movl	target_flags(%rip), %eax	# target_flags, target_flags.157
	andl	$33554432, %eax	#, D.23542
	testl	%eax, %eax	# D.23542
	je	.L306	#,
	movl	$2, %eax	#, iftmp.156
	jmp	.L304	#
.L306:
	.loc 1 829 0 discriminator 2
	movl	$3, %eax	#, iftmp.156
	jmp	.L304	#
.L305:
	movq	-24(%rbp), %rax	# inner, tmp172
	movzbl	2(%rax), %eax	# inner_17->mode, D.23545
	cmpb	$24, %al	#, D.23545
	jne	.L309	#,
	.loc 1 829 0 discriminator 1
	movl	target_flags(%rip), %eax	# target_flags, target_flags.160
	andl	$33554432, %eax	#, D.23542
	testl	%eax, %eax	# D.23542
	je	.L310	#,
	movl	$4, %eax	#, iftmp.159
	jmp	.L304	#
.L310:
	.loc 1 829 0 discriminator 2
	movl	$6, %eax	#, iftmp.159
	jmp	.L304	#
.L309:
	movq	-24(%rbp), %rax	# inner, tmp173
	movzbl	2(%rax), %eax	# inner_17->mode, D.23545
	movzbl	%al, %eax	# D.23545, D.23542
	cltq
	movzbl	mode_size(%rax), %eax	# mode_size, D.23545
	movzbl	%al, %edx	# D.23545, D.23542
	movl	target_flags(%rip), %eax	# target_flags, target_flags.162
	andl	$33554432, %eax	#, D.23542
	testl	%eax, %eax	# D.23542
	je	.L313	#,
	.loc 1 829 0 discriminator 1
	movl	$8, %eax	#, iftmp.161
	jmp	.L314	#
.L313:
	.loc 1 829 0 discriminator 2
	movl	$4, %eax	#, iftmp.161
.L314:
	.loc 1 829 0 discriminator 3
	addl	%edx, %eax	# D.23542, D.23542
	subl	$1, %eax	#, D.23542
	movl	target_flags(%rip), %edx	# target_flags, target_flags.164
	andl	$33554432, %edx	#, D.23542
	testl	%edx, %edx	# D.23542
	je	.L315	#,
	.loc 1 829 0 discriminator 1
	movl	$8, %esi	#, iftmp.163
	jmp	.L316	#
.L315:
	.loc 1 829 0 discriminator 2
	movl	$4, %esi	#, iftmp.163
.L316:
	.loc 1 829 0 discriminator 3
	cltd
	idivl	%esi	# iftmp.163
.L304:
	.loc 1 828 0 is_stmt 1
	cmpl	%eax, %ecx	# iftmp.153, D.23542
	je	.L291	#,
	.loc 1 828 0 is_stmt 0 discriminator 2
	movl	$1, %eax	#, iftmp.145
	jmp	.L317	#
.L291:
	.loc 1 828 0 discriminator 1
	movl	$0, %eax	#, iftmp.145
.L317:
.L283:
	.loc 1 830 0 is_stmt 1
	addq	$40, %rsp	#,
	popq	%rbx	#
	popq	%rbp	#
	.cfi_def_cfa 7, 8
	ret
	.cfi_endproc
.LFE7:
	.size	reload_inner_reg_of_subreg, .-reload_inner_reg_of_subreg
	.section	.rodata
	.align 8
.LC1:
	.string	"cannot reload integer constant operand in `asm'"
	.align 8
.LC2:
	.string	"impossible register constraint in `asm'"
	.text
	.globl	push_reload
	.type	push_reload, @function
push_reload:
.LFB8:
	.loc 1 876 0
	.cfi_startproc
	pushq	%rbp	#
	.cfi_def_cfa_offset 16
	.cfi_offset 6, -16
	movq	%rsp, %rbp	#,
	.cfi_def_cfa_register 6
	pushq	%rbx	#
	subq	$216, %rsp	#,
	.cfi_offset 3, -24
	movq	%rdi, -152(%rbp)	# in, in
	movq	%rsi, -160(%rbp)	# out, out
	movq	%rdx, -168(%rbp)	# inloc, inloc
	movq	%rcx, -176(%rbp)	# outloc, outloc
	movl	%r8d, -180(%rbp)	# class, class
	movl	%r9d, -184(%rbp)	# inmode, inmode
	.loc 1 878 0
	movl	$0, -124(%rbp)	#, dont_share
	.loc 1 879 0
	movl	$0, -120(%rbp)	#, dont_remove_subreg
	.loc 1 880 0
	movq	$0, -64(%rbp)	#, in_subreg_loc
	movq	$0, -56(%rbp)	#, out_subreg_loc
	.loc 1 881 0
	movl	$-1, -92(%rbp)	#, secondary_in_reload
	movl	$-1, -116(%rbp)	#, secondary_out_reload
	.loc 1 882 0
	movl	$1317, -88(%rbp)	#, secondary_in_icode
	.loc 1 883 0
	movl	$1317, -132(%rbp)	#, secondary_out_icode
	.loc 1 888 0
	cmpl	$0, -184(%rbp)	#, inmode
	jne	.L319	#,
	.loc 1 888 0 is_stmt 0 discriminator 1
	movq	-152(%rbp), %rax	# in, in.165
	testq	%rax, %rax	# in.165
	je	.L319	#,
	.loc 1 889 0 is_stmt 1
	movq	-152(%rbp), %rax	# in, in.166
	movzbl	2(%rax), %eax	# in.166_120->mode, D.23547
	movzbl	%al, %eax	# D.23547, tmp828
	movl	%eax, -184(%rbp)	# tmp828, inmode
.L319:
	.loc 1 890 0
	cmpl	$0, 16(%rbp)	#, outmode
	jne	.L320	#,
	.loc 1 890 0 is_stmt 0 discriminator 1
	cmpq	$0, -160(%rbp)	#, out
	je	.L320	#,
	.loc 1 891 0 is_stmt 1
	movq	-160(%rbp), %rax	# out, tmp829
	movzbl	2(%rax), %eax	# out_124(D)->mode, D.23547
	movzbl	%al, %eax	# D.23547, tmp830
	movl	%eax, 16(%rbp)	# tmp830, outmode
.L320:
	.loc 1 897 0
	movq	-152(%rbp), %rax	# in, in.167
	testq	%rax, %rax	# in.167
	je	.L321	#,
	.loc 1 897 0 is_stmt 0 discriminator 1
	movq	-152(%rbp), %rax	# in, in.168
	movzwl	(%rax), %eax	# in.168_128->code, D.23548
	cmpw	$61, %ax	#, D.23548
	jne	.L321	#,
.LBB6:
	.loc 1 899 0 is_stmt 1
	movq	-152(%rbp), %rax	# in, in.169
	movl	8(%rax), %eax	# in.169_130->fld[0].rtuint, D.23549
	movl	%eax, -84(%rbp)	# D.23549, regno
	.loc 1 901 0
	cmpl	$52, -84(%rbp)	#, regno
	jle	.L321	#,
	.loc 1 901 0 is_stmt 0 discriminator 1
	movq	reg_renumber(%rip), %rax	# reg_renumber, reg_renumber.170
	movl	-84(%rbp), %edx	# regno, tmp831
	movslq	%edx, %rdx	# tmp831, D.23550
	addq	%rdx, %rdx	# D.23550
	addq	%rdx, %rax	# D.23550, D.23551
	movzwl	(%rax), %eax	# *_136, D.23552
	testw	%ax, %ax	# D.23552
	jns	.L321	#,
	.loc 1 902 0 is_stmt 1
	movq	reg_equiv_constant(%rip), %rax	# reg_equiv_constant, reg_equiv_constant.171
	movl	-84(%rbp), %edx	# regno, tmp832
	movslq	%edx, %rdx	# tmp832, D.23550
	salq	$3, %rdx	#, D.23550
	addq	%rdx, %rax	# D.23550, D.23553
	movq	(%rax), %rax	# *_141, D.23554
	testq	%rax, %rax	# D.23554
	je	.L321	#,
	.loc 1 903 0
	movq	reg_equiv_constant(%rip), %rax	# reg_equiv_constant, reg_equiv_constant.172
	movl	-84(%rbp), %edx	# regno, tmp833
	movslq	%edx, %rdx	# tmp833, D.23550
	salq	$3, %rdx	#, D.23550
	addq	%rdx, %rax	# D.23550, D.23553
	movq	(%rax), %rax	# *_146, in.173
	movq	%rax, -152(%rbp)	# in.173, in
.L321:
.LBE6:
	.loc 1 909 0
	cmpq	$0, -160(%rbp)	#, out
	je	.L322	#,
	.loc 1 909 0 is_stmt 0 discriminator 1
	movq	-160(%rbp), %rax	# out, tmp834
	movzwl	(%rax), %eax	# out_124(D)->code, D.23548
	cmpw	$61, %ax	#, D.23548
	jne	.L322	#,
.LBB7:
	.loc 1 911 0 is_stmt 1
	movq	-160(%rbp), %rax	# out, tmp835
	movl	8(%rax), %eax	# out_124(D)->fld[0].rtuint, D.23549
	movl	%eax, -80(%rbp)	# D.23549, regno
	.loc 1 913 0
	cmpl	$52, -80(%rbp)	#, regno
	jle	.L322	#,
	.loc 1 913 0 is_stmt 0 discriminator 1
	movq	reg_renumber(%rip), %rax	# reg_renumber, reg_renumber.174
	movl	-80(%rbp), %edx	# regno, tmp836
	movslq	%edx, %rdx	# tmp836, D.23550
	addq	%rdx, %rdx	# D.23550
	addq	%rdx, %rax	# D.23550, D.23551
	movzwl	(%rax), %eax	# *_154, D.23552
	testw	%ax, %ax	# D.23552
	jns	.L322	#,
	.loc 1 914 0 is_stmt 1
	movq	reg_equiv_constant(%rip), %rax	# reg_equiv_constant, reg_equiv_constant.175
	movl	-80(%rbp), %edx	# regno, tmp837
	movslq	%edx, %rdx	# tmp837, D.23550
	salq	$3, %rdx	#, D.23550
	addq	%rdx, %rax	# D.23550, D.23553
	movq	(%rax), %rax	# *_159, D.23554
	testq	%rax, %rax	# D.23554
	je	.L322	#,
	.loc 1 915 0
	movq	reg_equiv_constant(%rip), %rax	# reg_equiv_constant, reg_equiv_constant.176
	movl	-80(%rbp), %edx	# regno, tmp838
	movslq	%edx, %rdx	# tmp838, D.23550
	salq	$3, %rdx	#, D.23550
	addq	%rdx, %rax	# D.23550, D.23553
	movq	(%rax), %rax	# *_164, tmp839
	movq	%rax, -160(%rbp)	# tmp839, out
.L322:
.LBE7:
	.loc 1 920 0
	movq	-152(%rbp), %rax	# in, in.177
	testq	%rax, %rax	# in.177
	je	.L323	#,
	.loc 1 920 0 is_stmt 0 discriminator 1
	cmpq	$0, -160(%rbp)	#, out
	je	.L323	#,
	movq	-152(%rbp), %rax	# in, in.178
	movzwl	(%rax), %eax	# in.178_167->code, D.23548
	cmpw	$66, %ax	#, D.23548
	jne	.L323	#,
	movq	-152(%rbp), %rax	# in, in.179
	movq	-160(%rbp), %rdx	# out, tmp840
	movq	%rdx, %rsi	# tmp840,
	movq	%rax, %rdi	# in.179,
	call	rtx_equal_p	#
	testl	%eax, %eax	# D.23555
	je	.L323	#,
	.loc 1 921 0 is_stmt 1
	movq	-152(%rbp), %rax	# in, in.180
	movq	8(%rax), %rax	# in.180_171->fld[0].rtx, D.23554
	movzwl	(%rax), %eax	# _172->code, D.23548
	movzwl	%ax, %eax	# D.23548, D.23549
	subl	$96, %eax	#, tmp841
	cmpl	$5, %eax	#, tmp841
	ja	.L594	#,
	movl	%eax, %eax	# tmp841, tmp842
	movq	.L326(,%rax,8), %rax	#, tmp843
	jmp	*%rax	# tmp843
	.section	.rodata
	.align 8
	.align 4
.L326:
	.quad	.L325
	.quad	.L325
	.quad	.L327
	.quad	.L327
	.quad	.L325
	.quad	.L327
	.text
.L327:
	.loc 1 924 0
	movq	-152(%rbp), %rax	# in, in.181
	movq	8(%rax), %rax	# in.181_175->fld[0].rtx, D.23554
	movq	8(%rax), %rdx	# _176->fld[0].rtx, D.23554
	movq	-152(%rbp), %rax	# in, in.182
	movq	%rdx, %rsi	# D.23554,
	movq	%rax, %rdi	# in.182,
	call	replace_equiv_address_nv	#
	movq	%rax, -152(%rbp)	# in.183, in
	.loc 1 925 0
	jmp	.L323	#
.L325:
	.loc 1 928 0
	movq	-160(%rbp), %rax	# out, tmp844
	movq	8(%rax), %rax	# out_1->fld[0].rtx, D.23554
	movq	8(%rax), %rdx	# _180->fld[0].rtx, D.23554
	movq	-160(%rbp), %rax	# out, tmp845
	movq	%rdx, %rsi	# D.23554,
	movq	%rax, %rdi	# tmp845,
	call	replace_equiv_address_nv	#
	movq	%rax, -160(%rbp)	# tmp846, out
	.loc 1 929 0
	jmp	.L323	#
.L594:
	.loc 1 932 0
	nop
.L323:
	.loc 1 965 0
	movq	-152(%rbp), %rax	# in, in.184
	testq	%rax, %rax	# in.184
	je	.L328	#,
	.loc 1 965 0 is_stmt 0 discriminator 1
	movq	-152(%rbp), %rax	# in, in.185
	movzwl	(%rax), %eax	# in.185_185->code, D.23548
	cmpw	$63, %ax	#, D.23548
	jne	.L328	#,
	.loc 1 966 0 is_stmt 1
	movq	-152(%rbp), %rax	# in, in.186
	movq	%rax, %rdi	# in.186,
	call	subreg_lowpart_p	#
	testl	%eax, %eax	# D.23555
	jne	.L329	#,
	.loc 1 966 0 is_stmt 0 discriminator 1
	cmpl	$0, 24(%rbp)	#, strict_low
	je	.L328	#,
.L329:
	.loc 1 971 0 is_stmt 1
	movq	-152(%rbp), %rax	# in, in.187
	movq	8(%rax), %rax	# in.187_190->fld[0].rtx, D.23554
	movzwl	(%rax), %eax	# _191->code, D.23548
	cmpw	$67, %ax	#, D.23548
	je	.L330	#,
	.loc 1 971 0 is_stmt 0 discriminator 1
	movq	-152(%rbp), %rax	# in, in.188
	movq	8(%rax), %rax	# in.188_193->fld[0].rtx, D.23554
	movzwl	(%rax), %eax	# _194->code, D.23548
	cmpw	$68, %ax	#, D.23548
	je	.L330	#,
	movq	-152(%rbp), %rax	# in, in.189
	movq	8(%rax), %rax	# in.189_196->fld[0].rtx, D.23554
	movzwl	(%rax), %eax	# _197->code, D.23548
	cmpw	$54, %ax	#, D.23548
	je	.L330	#,
	movq	-152(%rbp), %rax	# in, in.190
	movq	8(%rax), %rax	# in.190_199->fld[0].rtx, D.23554
	movzwl	(%rax), %eax	# _200->code, D.23548
	cmpw	$55, %ax	#, D.23548
	je	.L330	#,
	movq	-152(%rbp), %rax	# in, in.191
	movq	8(%rax), %rax	# in.191_202->fld[0].rtx, D.23554
	movzwl	(%rax), %eax	# _203->code, D.23548
	cmpw	$58, %ax	#, D.23548
	je	.L330	#,
	movq	-152(%rbp), %rax	# in, in.192
	movq	8(%rax), %rax	# in.192_205->fld[0].rtx, D.23554
	movzwl	(%rax), %eax	# _206->code, D.23548
	cmpw	$134, %ax	#, D.23548
	je	.L330	#,
	movq	-152(%rbp), %rax	# in, in.193
	movq	8(%rax), %rax	# in.193_208->fld[0].rtx, D.23554
	movzwl	(%rax), %eax	# _209->code, D.23548
	cmpw	$56, %ax	#, D.23548
	je	.L330	#,
	movq	-152(%rbp), %rax	# in, in.194
	movq	8(%rax), %rax	# in.194_211->fld[0].rtx, D.23554
	movzwl	(%rax), %eax	# _212->code, D.23548
	cmpw	$140, %ax	#, D.23548
	je	.L330	#,
	.loc 1 972 0 is_stmt 1
	movq	-152(%rbp), %rax	# in, in.195
	movq	8(%rax), %rax	# in.195_214->fld[0].rtx, D.23554
	movzwl	(%rax), %eax	# _215->code, D.23548
	cmpw	$75, %ax	#, D.23548
	je	.L330	#,
	.loc 1 973 0
	cmpl	$0, 24(%rbp)	#, strict_low
	jne	.L330	#,
	.loc 1 974 0
	movq	-152(%rbp), %rax	# in, in.196
	movq	8(%rax), %rax	# in.196_217->fld[0].rtx, D.23554
	movzwl	(%rax), %eax	# _218->code, D.23548
	cmpw	$61, %ax	#, D.23548
	jne	.L331	#,
	.loc 1 975 0
	movq	-152(%rbp), %rax	# in, in.197
	movq	8(%rax), %rax	# in.197_220->fld[0].rtx, D.23554
	movl	8(%rax), %eax	# _221->fld[0].rtuint, D.23549
	cmpl	$52, %eax	#, D.23549
	ja	.L332	#,
.L331:
	.loc 1 976 0
	movq	-152(%rbp), %rax	# in, in.198
	movq	8(%rax), %rax	# in.198_223->fld[0].rtx, D.23554
	movzwl	(%rax), %eax	# _224->code, D.23548
	cmpw	$66, %ax	#, D.23548
	jne	.L333	#,
.L332:
	.loc 1 977 0
	movl	-184(%rbp), %eax	# inmode, inmode.199
	cltq
	movzbl	mode_size(%rax), %edx	# mode_size, D.23547
	.loc 1 978 0
	movq	-152(%rbp), %rax	# in, in.200
	movq	8(%rax), %rax	# in.200_228->fld[0].rtx, D.23554
	movzbl	2(%rax), %eax	# _229->mode, D.23547
	movzbl	%al, %eax	# D.23547, D.23555
	cltq
	movzbl	mode_size(%rax), %eax	# mode_size, D.23547
	.loc 1 977 0
	cmpb	%al, %dl	# D.23547, D.23547
	ja	.L330	#,
.L333:
	.loc 1 996 0
	movq	-152(%rbp), %rax	# in, in.201
	movq	8(%rax), %rax	# in.201_233->fld[0].rtx, D.23554
	movzwl	(%rax), %eax	# _234->code, D.23548
	cmpw	$61, %ax	#, D.23548
	jne	.L328	#,
	.loc 1 997 0
	movq	-152(%rbp), %rax	# in, in.202
	movq	8(%rax), %rax	# in.202_236->fld[0].rtx, D.23554
	movl	8(%rax), %eax	# _237->fld[0].rtuint, D.23549
	cmpl	$52, %eax	#, D.23549
	ja	.L328	#,
	.loc 1 1000 0
	cmpq	$0, -160(%rbp)	#, out
	je	.L334	#,
	.loc 1 1000 0 is_stmt 0 discriminator 1
	movq	-152(%rbp), %rax	# in, in.203
	movq	%rax, %rdi	# in.203,
	call	subreg_lowpart_p	#
	testl	%eax, %eax	# D.23555
	je	.L328	#,
.L334:
	.loc 1 1001 0 is_stmt 1
	movl	-184(%rbp), %eax	# inmode, inmode.204
	cltq
	movzbl	mode_size(%rax), %eax	# mode_size, D.23547
	movzbl	%al, %edx	# D.23547, D.23555
	movl	target_flags(%rip), %eax	# target_flags, target_flags.206
	andl	$33554432, %eax	#, D.23555
	testl	%eax, %eax	# D.23555
	je	.L335	#,
	.loc 1 1001 0 is_stmt 0 discriminator 1
	movl	$8, %eax	#, iftmp.205
	jmp	.L336	#
.L335:
	.loc 1 1001 0 discriminator 2
	movl	$4, %eax	#, iftmp.205
.L336:
	.loc 1 1001 0 discriminator 3
	cmpl	%eax, %edx	# iftmp.205, D.23555
	jg	.L337	#,
	.loc 1 1002 0 is_stmt 1
	movq	-152(%rbp), %rax	# in, in.207
	movq	8(%rax), %rax	# in.207_248->fld[0].rtx, D.23554
	movzbl	2(%rax), %eax	# _249->mode, D.23547
	movzbl	%al, %eax	# D.23547, D.23555
	cltq
	movzbl	mode_size(%rax), %eax	# mode_size, D.23547
	.loc 1 1003 0
	movzbl	%al, %edx	# D.23547, D.23555
	movl	target_flags(%rip), %eax	# target_flags, target_flags.209
	andl	$33554432, %eax	#, D.23555
	testl	%eax, %eax	# D.23555
	je	.L338	#,
	.loc 1 1003 0 is_stmt 0 discriminator 1
	movl	$8, %eax	#, iftmp.208
	jmp	.L339	#
.L338:
	.loc 1 1003 0 discriminator 2
	movl	$4, %eax	#, iftmp.208
.L339:
	.loc 1 1002 0 is_stmt 1
	cmpl	%eax, %edx	# iftmp.208, D.23555
	jle	.L337	#,
	.loc 1 1004 0
	movq	-152(%rbp), %rax	# in, in.210
	movq	8(%rax), %rax	# in.210_258->fld[0].rtx, D.23554
	movzbl	2(%rax), %eax	# _259->mode, D.23547
	movzbl	%al, %eax	# D.23547, D.23555
	cltq
	movzbl	mode_size(%rax), %eax	# mode_size, D.23547
	.loc 1 1005 0
	movzbl	%al, %eax	# D.23547, D.23555
	movl	target_flags(%rip), %edx	# target_flags, target_flags.212
	andl	$33554432, %edx	#, D.23555
	testl	%edx, %edx	# D.23555
	je	.L340	#,
	.loc 1 1005 0 is_stmt 0 discriminator 1
	movl	$8, %ebx	#, iftmp.211
	jmp	.L341	#
.L340:
	.loc 1 1005 0 discriminator 2
	movl	$4, %ebx	#, iftmp.211
.L341:
	.loc 1 1005 0 discriminator 3
	cltd
	idivl	%ebx	# iftmp.211
	movl	%eax, %ecx	# tmp852, D.23555
	.loc 1 1006 0 is_stmt 1 discriminator 3
	movq	-152(%rbp), %rax	# in, in.214
	movq	8(%rax), %rax	# in.214_269->fld[0].rtx, D.23554
	movl	8(%rax), %eax	# _270->fld[0].rtuint, D.23549
	cmpl	$7, %eax	#, D.23549
	jbe	.L342	#,
	.loc 1 1006 0 is_stmt 0 discriminator 1
	movq	-152(%rbp), %rax	# in, in.215
	movq	8(%rax), %rax	# in.215_272->fld[0].rtx, D.23554
	movl	8(%rax), %eax	# _273->fld[0].rtuint, D.23549
	cmpl	$15, %eax	#, D.23549
	jbe	.L343	#,
.L342:
	.loc 1 1006 0 discriminator 2
	movq	-152(%rbp), %rax	# in, in.216
	movq	8(%rax), %rax	# in.216_275->fld[0].rtx, D.23554
	movl	8(%rax), %eax	# _276->fld[0].rtuint, D.23549
	cmpl	$20, %eax	#, D.23549
	jbe	.L344	#,
	.loc 1 1006 0 discriminator 1
	movq	-152(%rbp), %rax	# in, in.217
	movq	8(%rax), %rax	# in.217_278->fld[0].rtx, D.23554
	movl	8(%rax), %eax	# _279->fld[0].rtuint, D.23549
	cmpl	$28, %eax	#, D.23549
	jbe	.L343	#,
.L344:
	.loc 1 1006 0 discriminator 2
	movq	-152(%rbp), %rax	# in, in.218
	movq	8(%rax), %rax	# in.218_281->fld[0].rtx, D.23554
	movl	8(%rax), %eax	# _282->fld[0].rtuint, D.23549
	cmpl	$44, %eax	#, D.23549
	jbe	.L345	#,
	.loc 1 1006 0 discriminator 1
	movq	-152(%rbp), %rax	# in, in.219
	movq	8(%rax), %rax	# in.219_284->fld[0].rtx, D.23554
	movl	8(%rax), %eax	# _285->fld[0].rtuint, D.23549
	cmpl	$52, %eax	#, D.23549
	jbe	.L343	#,
.L345:
	.loc 1 1006 0 discriminator 2
	movq	-152(%rbp), %rax	# in, in.220
	movq	8(%rax), %rax	# in.220_287->fld[0].rtx, D.23554
	movl	8(%rax), %eax	# _288->fld[0].rtuint, D.23549
	cmpl	$28, %eax	#, D.23549
	jbe	.L346	#,
	.loc 1 1006 0 discriminator 1
	movq	-152(%rbp), %rax	# in, in.221
	movq	8(%rax), %rax	# in.221_290->fld[0].rtx, D.23554
	movl	8(%rax), %eax	# _291->fld[0].rtuint, D.23549
	cmpl	$36, %eax	#, D.23549
	ja	.L346	#,
.L343:
	movq	-152(%rbp), %rax	# in, in.223
	movq	8(%rax), %rax	# in.223_328->fld[0].rtx, D.23554
	movzbl	2(%rax), %eax	# _329->mode, D.23547
	movzbl	%al, %eax	# D.23547, D.23555
	cltq
	movl	mode_class(,%rax,4), %eax	# mode_class, D.23556
	cmpl	$5, %eax	#, D.23556
	je	.L347	#,
	.loc 1 1006 0 discriminator 2
	movq	-152(%rbp), %rax	# in, in.224
	movq	8(%rax), %rax	# in.224_333->fld[0].rtx, D.23554
	movzbl	2(%rax), %eax	# _334->mode, D.23547
	movzbl	%al, %eax	# D.23547, D.23555
	cltq
	movl	mode_class(,%rax,4), %eax	# mode_class, D.23556
	cmpl	$6, %eax	#, D.23556
	jne	.L348	#,
.L347:
	.loc 1 1006 0 discriminator 1
	movl	$2, %eax	#, iftmp.222
	jmp	.L349	#
.L348:
	movl	$1, %eax	#, iftmp.222
.L349:
	.loc 1 1006 0 discriminator 3
	jmp	.L350	#
.L346:
	.loc 1 1006 0 discriminator 2
	movq	-152(%rbp), %rax	# in, in.226
	movq	8(%rax), %rax	# in.226_293->fld[0].rtx, D.23554
	movzbl	2(%rax), %eax	# _294->mode, D.23547
	cmpb	$18, %al	#, D.23547
	jne	.L351	#,
	.loc 1 1006 0 discriminator 1
	movl	target_flags(%rip), %eax	# target_flags, target_flags.228
	andl	$33554432, %eax	#, D.23555
	testl	%eax, %eax	# D.23555
	je	.L352	#,
	movl	$2, %eax	#, iftmp.227
	jmp	.L350	#
.L352:
	.loc 1 1006 0 discriminator 2
	movl	$3, %eax	#, iftmp.227
	jmp	.L350	#
.L351:
	movq	-152(%rbp), %rax	# in, in.230
	movq	8(%rax), %rax	# in.230_301->fld[0].rtx, D.23554
	movzbl	2(%rax), %eax	# _302->mode, D.23547
	cmpb	$24, %al	#, D.23547
	jne	.L355	#,
	.loc 1 1006 0 discriminator 1
	movl	target_flags(%rip), %eax	# target_flags, target_flags.232
	andl	$33554432, %eax	#, D.23555
	testl	%eax, %eax	# D.23555
	je	.L356	#,
	movl	$4, %eax	#, iftmp.231
	jmp	.L350	#
.L356:
	.loc 1 1006 0 discriminator 2
	movl	$6, %eax	#, iftmp.231
	jmp	.L350	#
.L355:
	movq	-152(%rbp), %rax	# in, in.233
	movq	8(%rax), %rax	# in.233_309->fld[0].rtx, D.23554
	movzbl	2(%rax), %eax	# _310->mode, D.23547
	movzbl	%al, %eax	# D.23547, D.23555
	cltq
	movzbl	mode_size(%rax), %eax	# mode_size, D.23547
	movzbl	%al, %edx	# D.23547, D.23555
	movl	target_flags(%rip), %eax	# target_flags, target_flags.235
	andl	$33554432, %eax	#, D.23555
	testl	%eax, %eax	# D.23555
	je	.L359	#,
	.loc 1 1006 0 discriminator 1
	movl	$8, %eax	#, iftmp.234
	jmp	.L360	#
.L359:
	.loc 1 1006 0 discriminator 2
	movl	$4, %eax	#, iftmp.234
.L360:
	.loc 1 1006 0 discriminator 3
	addl	%edx, %eax	# D.23555, D.23555
	subl	$1, %eax	#, D.23555
	movl	target_flags(%rip), %edx	# target_flags, target_flags.237
	andl	$33554432, %edx	#, D.23555
	testl	%edx, %edx	# D.23555
	je	.L361	#,
	.loc 1 1006 0 discriminator 1
	movl	$8, %ebx	#, iftmp.236
	jmp	.L362	#
.L361:
	.loc 1 1006 0 discriminator 2
	movl	$4, %ebx	#, iftmp.236
.L362:
	.loc 1 1006 0 discriminator 3
	cltd
	idivl	%ebx	# iftmp.236
.L350:
	.loc 1 1004 0 is_stmt 1
	cmpl	%eax, %ecx	# iftmp.213, D.23555
	jne	.L330	#,
.L337:
	.loc 1 1008 0
	movq	-152(%rbp), %rax	# in, in.238
	movq	%rax, %rdi	# in.238,
	call	subreg_regno	#
	movl	-184(%rbp), %edx	# inmode, tmp859
	movl	%edx, %esi	# tmp859,
	movl	%eax, %edi	# D.23555,
	call	ix86_hard_regno_mode_ok	#
	testl	%eax, %eax	# D.23555
	jne	.L328	#,
.L330:
	.loc 1 1027 0
	movq	-168(%rbp), %rax	# inloc, tmp860
	movq	%rax, -64(%rbp)	# tmp860, in_subreg_loc
	.loc 1 1028 0
	movq	-152(%rbp), %rax	# in, in.239
	addq	$8, %rax	#, tmp861
	movq	%rax, -168(%rbp)	# tmp861, inloc
	.loc 1 1029 0
	movq	-168(%rbp), %rax	# inloc, tmp862
	movq	(%rax), %rax	# *inloc_347, in.240
	movq	%rax, -152(%rbp)	# in.240, in
	.loc 1 1031 0
	movq	-152(%rbp), %rax	# in, in.241
	movzwl	(%rax), %eax	# in.241_349->code, D.23548
	cmpw	$66, %ax	#, D.23548
	jne	.L363	#,
	.loc 1 1034 0
	movq	-152(%rbp), %rax	# in, in.242
	movzbl	2(%rax), %eax	# in.242_351->mode, D.23547
	movzbl	%al, %eax	# D.23547, D.23555
	cltq
	movzbl	mode_size(%rax), %edx	# mode_size, D.23547
	movl	-184(%rbp), %eax	# inmode, inmode.243
	cltq
	movzbl	mode_size(%rax), %eax	# mode_size, D.23547
	cmpb	%al, %dl	# D.23547, D.23547
	jbe	.L363	#,
	.loc 1 1035 0
	movl	$__FUNCTION__.11668, %edx	#,
	movl	$1035, %esi	#,
	movl	$.LC0, %edi	#,
	call	fancy_abort	#
.L363:
	.loc 1 1037 0
	movq	-152(%rbp), %rax	# in, in.244
	movzbl	2(%rax), %eax	# in.244_357->mode, D.23547
	movzbl	%al, %eax	# D.23547, tmp865
	movl	%eax, -184(%rbp)	# tmp865, inmode
.L328:
	.loc 1 1050 0
	movq	-152(%rbp), %rax	# in, in.245
	testq	%rax, %rax	# in.245
	je	.L364	#,
	.loc 1 1050 0 is_stmt 0 discriminator 1
	movq	-152(%rbp), %rax	# in, in.246
	movl	-184(%rbp), %edx	# inmode, tmp866
	movl	%edx, %esi	# tmp866,
	movq	%rax, %rdi	# in.246,
	call	reload_inner_reg_of_subreg	#
	testl	%eax, %eax	# D.23555
	je	.L364	#,
.LBB8:
	.loc 1 1052 0 is_stmt 1
	movl	-180(%rbp), %eax	# class, tmp867
	movl	%eax, -112(%rbp)	# tmp867, in_class
	.loc 1 1054 0
	movq	-152(%rbp), %rax	# in, in.247
	movq	8(%rax), %rax	# in.247_365->fld[0].rtx, D.23554
	movzwl	(%rax), %eax	# _366->code, D.23548
	cmpw	$61, %ax	#, D.23548
	jne	.L365	#,
	.loc 1 1061 0
	movq	-152(%rbp), %rax	# in, in.248
	movq	8(%rax), %rax	# in.248_368->fld[0].rtx, D.23554
	.loc 1 1056 0
	movl	8(%rax), %ebx	# _369->fld[0].rtuint, D.23549
	.loc 1 1060 0
	movq	-152(%rbp), %rax	# in, in.249
	movzbl	2(%rax), %eax	# in.249_371->mode, D.23547
	.loc 1 1057 0
	movzbl	%al, %ecx	# D.23547, D.23557
	.loc 1 1059 0
	movq	-152(%rbp), %rax	# in, in.250
	.loc 1 1057 0
	movl	16(%rax), %edx	# in.250_374->fld[1].rtuint, D.23549
	.loc 1 1058 0
	movq	-152(%rbp), %rax	# in, in.251
	movq	8(%rax), %rax	# in.251_376->fld[0].rtx, D.23554
	movzbl	2(%rax), %eax	# _377->mode, D.23547
	.loc 1 1057 0
	movzbl	%al, %esi	# D.23547, D.23557
	movq	-152(%rbp), %rax	# in, in.252
	movq	8(%rax), %rax	# in.252_380->fld[0].rtx, D.23554
	movl	8(%rax), %eax	# _381->fld[0].rtuint, D.23549
	movl	%eax, %edi	# D.23549,
	call	subreg_regno_offset	#
	.loc 1 1056 0
	movl	%eax, %ecx	# D.23549, D.23555
	movl	-184(%rbp), %eax	# inmode, tmp868
	movl	%ebx, %edx	# D.23549,
	movl	%ecx, %esi	# D.23555,
	movl	%eax, %edi	# tmp868,
	call	find_valid_class	#
	movl	%eax, -112(%rbp)	# tmp869, in_class
.L365:
	.loc 1 1068 0
	movq	-152(%rbp), %rax	# in, in.253
	leaq	8(%rax), %rsi	#, D.23553
	movq	-152(%rbp), %rax	# in, in.254
	movq	8(%rax), %rax	# in.254_388->fld[0].rtx, D.23554
	movl	-112(%rbp), %ecx	# in_class, tmp870
	movl	48(%rbp), %edx	# type, tmp871
	movl	%edx, 32(%rsp)	# tmp871,
	movl	40(%rbp), %edx	# opnum, tmp872
	movl	%edx, 24(%rsp)	# tmp872,
	movl	$0, 16(%rsp)	#,
	movl	$0, 8(%rsp)	#,
	movl	$0, (%rsp)	#,
	movl	$0, %r9d	#,
	movl	%ecx, %r8d	# tmp870,
	movl	$0, %ecx	#,
	movq	%rsi, %rdx	# D.23553,
	movl	$0, %esi	#,
	movq	%rax, %rdi	# D.23554,
	call	push_reload	#
	.loc 1 1070 0
	movl	$1, -120(%rbp)	#, dont_remove_subreg
.L364:
.LBE8:
	.loc 1 1079 0
	cmpq	$0, -160(%rbp)	#, out
	je	.L366	#,
	.loc 1 1079 0 is_stmt 0 discriminator 1
	movq	-160(%rbp), %rax	# out, tmp873
	movzwl	(%rax), %eax	# out_2->code, D.23548
	cmpw	$63, %ax	#, D.23548
	jne	.L366	#,
	.loc 1 1080 0 is_stmt 1
	movq	-160(%rbp), %rax	# out, tmp874
	movq	%rax, %rdi	# tmp874,
	call	subreg_lowpart_p	#
	testl	%eax, %eax	# D.23555
	jne	.L367	#,
	.loc 1 1080 0 is_stmt 0 discriminator 1
	cmpl	$0, 24(%rbp)	#, strict_low
	je	.L366	#,
.L367:
	.loc 1 1086 0 is_stmt 1
	movq	-160(%rbp), %rax	# out, tmp875
	movq	8(%rax), %rax	# out_2->fld[0].rtx, D.23554
	movzwl	(%rax), %eax	# _396->code, D.23548
	cmpw	$67, %ax	#, D.23548
	je	.L368	#,
	.loc 1 1086 0 is_stmt 0 discriminator 1
	movq	-160(%rbp), %rax	# out, tmp876
	movq	8(%rax), %rax	# out_2->fld[0].rtx, D.23554
	movzwl	(%rax), %eax	# _398->code, D.23548
	cmpw	$68, %ax	#, D.23548
	je	.L368	#,
	movq	-160(%rbp), %rax	# out, tmp877
	movq	8(%rax), %rax	# out_2->fld[0].rtx, D.23554
	movzwl	(%rax), %eax	# _400->code, D.23548
	cmpw	$54, %ax	#, D.23548
	je	.L368	#,
	movq	-160(%rbp), %rax	# out, tmp878
	movq	8(%rax), %rax	# out_2->fld[0].rtx, D.23554
	movzwl	(%rax), %eax	# _402->code, D.23548
	cmpw	$55, %ax	#, D.23548
	je	.L368	#,
	movq	-160(%rbp), %rax	# out, tmp879
	movq	8(%rax), %rax	# out_2->fld[0].rtx, D.23554
	movzwl	(%rax), %eax	# _404->code, D.23548
	cmpw	$58, %ax	#, D.23548
	je	.L368	#,
	movq	-160(%rbp), %rax	# out, tmp880
	movq	8(%rax), %rax	# out_2->fld[0].rtx, D.23554
	movzwl	(%rax), %eax	# _406->code, D.23548
	cmpw	$134, %ax	#, D.23548
	je	.L368	#,
	movq	-160(%rbp), %rax	# out, tmp881
	movq	8(%rax), %rax	# out_2->fld[0].rtx, D.23554
	movzwl	(%rax), %eax	# _408->code, D.23548
	cmpw	$56, %ax	#, D.23548
	je	.L368	#,
	movq	-160(%rbp), %rax	# out, tmp882
	movq	8(%rax), %rax	# out_2->fld[0].rtx, D.23554
	movzwl	(%rax), %eax	# _410->code, D.23548
	cmpw	$140, %ax	#, D.23548
	je	.L368	#,
	.loc 1 1087 0 is_stmt 1
	cmpl	$0, 24(%rbp)	#, strict_low
	jne	.L368	#,
	.loc 1 1088 0
	movq	-160(%rbp), %rax	# out, tmp883
	movq	8(%rax), %rax	# out_2->fld[0].rtx, D.23554
	movzwl	(%rax), %eax	# _412->code, D.23548
	cmpw	$61, %ax	#, D.23548
	jne	.L369	#,
	.loc 1 1089 0
	movq	-160(%rbp), %rax	# out, tmp884
	movq	8(%rax), %rax	# out_2->fld[0].rtx, D.23554
	movl	8(%rax), %eax	# _414->fld[0].rtuint, D.23549
	cmpl	$52, %eax	#, D.23549
	ja	.L370	#,
.L369:
	.loc 1 1090 0
	movq	-160(%rbp), %rax	# out, tmp885
	movq	8(%rax), %rax	# out_2->fld[0].rtx, D.23554
	movzwl	(%rax), %eax	# _416->code, D.23548
	cmpw	$66, %ax	#, D.23548
	jne	.L371	#,
.L370:
	.loc 1 1091 0
	movl	16(%rbp), %eax	# outmode, outmode.255
	cltq
	movzbl	mode_size(%rax), %edx	# mode_size, D.23547
	.loc 1 1092 0
	movq	-160(%rbp), %rax	# out, tmp887
	movq	8(%rax), %rax	# out_2->fld[0].rtx, D.23554
	movzbl	2(%rax), %eax	# _420->mode, D.23547
	movzbl	%al, %eax	# D.23547, D.23555
	cltq
	movzbl	mode_size(%rax), %eax	# mode_size, D.23547
	.loc 1 1091 0
	cmpb	%al, %dl	# D.23547, D.23547
	ja	.L368	#,
.L371:
	.loc 1 1101 0
	movq	-160(%rbp), %rax	# out, tmp889
	movq	8(%rax), %rax	# out_2->fld[0].rtx, D.23554
	movzwl	(%rax), %eax	# _424->code, D.23548
	cmpw	$61, %ax	#, D.23548
	jne	.L372	#,
	.loc 1 1102 0
	movq	-160(%rbp), %rax	# out, tmp890
	movq	8(%rax), %rax	# out_2->fld[0].rtx, D.23554
	movl	8(%rax), %eax	# _426->fld[0].rtuint, D.23549
	cmpl	$52, %eax	#, D.23549
	ja	.L372	#,
	.loc 1 1103 0
	movl	16(%rbp), %eax	# outmode, outmode.256
	cltq
	movzbl	mode_size(%rax), %eax	# mode_size, D.23547
	movzbl	%al, %edx	# D.23547, D.23555
	movl	target_flags(%rip), %eax	# target_flags, target_flags.258
	andl	$33554432, %eax	#, D.23555
	testl	%eax, %eax	# D.23555
	je	.L373	#,
	.loc 1 1103 0 is_stmt 0 discriminator 1
	movl	$8, %eax	#, iftmp.257
	jmp	.L374	#
.L373:
	.loc 1 1103 0 discriminator 2
	movl	$4, %eax	#, iftmp.257
.L374:
	.loc 1 1103 0 discriminator 3
	cmpl	%eax, %edx	# iftmp.257, D.23555
	jg	.L375	#,
	.loc 1 1104 0 is_stmt 1
	movq	-160(%rbp), %rax	# out, tmp892
	movq	8(%rax), %rax	# out_2->fld[0].rtx, D.23554
	movzbl	2(%rax), %eax	# _435->mode, D.23547
	movzbl	%al, %eax	# D.23547, D.23555
	cltq
	movzbl	mode_size(%rax), %eax	# mode_size, D.23547
	.loc 1 1105 0
	movzbl	%al, %edx	# D.23547, D.23555
	movl	target_flags(%rip), %eax	# target_flags, target_flags.260
	andl	$33554432, %eax	#, D.23555
	testl	%eax, %eax	# D.23555
	je	.L376	#,
	.loc 1 1105 0 is_stmt 0 discriminator 1
	movl	$8, %eax	#, iftmp.259
	jmp	.L377	#
.L376:
	.loc 1 1105 0 discriminator 2
	movl	$4, %eax	#, iftmp.259
.L377:
	.loc 1 1104 0 is_stmt 1
	cmpl	%eax, %edx	# iftmp.259, D.23555
	jle	.L375	#,
	.loc 1 1106 0
	movq	-160(%rbp), %rax	# out, tmp894
	movq	8(%rax), %rax	# out_2->fld[0].rtx, D.23554
	movzbl	2(%rax), %eax	# _444->mode, D.23547
	movzbl	%al, %eax	# D.23547, D.23555
	cltq
	movzbl	mode_size(%rax), %eax	# mode_size, D.23547
	.loc 1 1107 0
	movzbl	%al, %eax	# D.23547, D.23555
	movl	target_flags(%rip), %edx	# target_flags, target_flags.262
	andl	$33554432, %edx	#, D.23555
	testl	%edx, %edx	# D.23555
	je	.L378	#,
	.loc 1 1107 0 is_stmt 0 discriminator 1
	movl	$8, %ebx	#, iftmp.261
	jmp	.L379	#
.L378:
	.loc 1 1107 0 discriminator 2
	movl	$4, %ebx	#, iftmp.261
.L379:
	.loc 1 1107 0 discriminator 3
	cltd
	idivl	%ebx	# iftmp.261
	movl	%eax, %ecx	# tmp896, D.23555
	.loc 1 1108 0 is_stmt 1 discriminator 3
	movq	-160(%rbp), %rax	# out, tmp898
	movq	8(%rax), %rax	# out_2->fld[0].rtx, D.23554
	movl	8(%rax), %eax	# _454->fld[0].rtuint, D.23549
	cmpl	$7, %eax	#, D.23549
	jbe	.L380	#,
	.loc 1 1108 0 is_stmt 0 discriminator 1
	movq	-160(%rbp), %rax	# out, tmp899
	movq	8(%rax), %rax	# out_2->fld[0].rtx, D.23554
	movl	8(%rax), %eax	# _456->fld[0].rtuint, D.23549
	cmpl	$15, %eax	#, D.23549
	jbe	.L381	#,
.L380:
	.loc 1 1108 0 discriminator 2
	movq	-160(%rbp), %rax	# out, tmp900
	movq	8(%rax), %rax	# out_2->fld[0].rtx, D.23554
	movl	8(%rax), %eax	# _458->fld[0].rtuint, D.23549
	cmpl	$20, %eax	#, D.23549
	jbe	.L382	#,
	.loc 1 1108 0 discriminator 1
	movq	-160(%rbp), %rax	# out, tmp901
	movq	8(%rax), %rax	# out_2->fld[0].rtx, D.23554
	movl	8(%rax), %eax	# _460->fld[0].rtuint, D.23549
	cmpl	$28, %eax	#, D.23549
	jbe	.L381	#,
.L382:
	.loc 1 1108 0 discriminator 2
	movq	-160(%rbp), %rax	# out, tmp902
	movq	8(%rax), %rax	# out_2->fld[0].rtx, D.23554
	movl	8(%rax), %eax	# _462->fld[0].rtuint, D.23549
	cmpl	$44, %eax	#, D.23549
	jbe	.L383	#,
	.loc 1 1108 0 discriminator 1
	movq	-160(%rbp), %rax	# out, tmp903
	movq	8(%rax), %rax	# out_2->fld[0].rtx, D.23554
	movl	8(%rax), %eax	# _464->fld[0].rtuint, D.23549
	cmpl	$52, %eax	#, D.23549
	jbe	.L381	#,
.L383:
	.loc 1 1108 0 discriminator 2
	movq	-160(%rbp), %rax	# out, tmp904
	movq	8(%rax), %rax	# out_2->fld[0].rtx, D.23554
	movl	8(%rax), %eax	# _466->fld[0].rtuint, D.23549
	cmpl	$28, %eax	#, D.23549
	jbe	.L384	#,
	.loc 1 1108 0 discriminator 1
	movq	-160(%rbp), %rax	# out, tmp905
	movq	8(%rax), %rax	# out_2->fld[0].rtx, D.23554
	movl	8(%rax), %eax	# _468->fld[0].rtuint, D.23549
	cmpl	$36, %eax	#, D.23549
	ja	.L384	#,
.L381:
	movq	-160(%rbp), %rax	# out, tmp906
	movq	8(%rax), %rax	# out_2->fld[0].rtx, D.23554
	movzbl	2(%rax), %eax	# _502->mode, D.23547
	movzbl	%al, %eax	# D.23547, D.23555
	cltq
	movl	mode_class(,%rax,4), %eax	# mode_class, D.23556
	cmpl	$5, %eax	#, D.23556
	je	.L385	#,
	.loc 1 1108 0 discriminator 2
	movq	-160(%rbp), %rax	# out, tmp908
	movq	8(%rax), %rax	# out_2->fld[0].rtx, D.23554
	movzbl	2(%rax), %eax	# _506->mode, D.23547
	movzbl	%al, %eax	# D.23547, D.23555
	cltq
	movl	mode_class(,%rax,4), %eax	# mode_class, D.23556
	cmpl	$6, %eax	#, D.23556
	jne	.L386	#,
.L385:
	.loc 1 1108 0 discriminator 1
	movl	$2, %eax	#, iftmp.264
	jmp	.L387	#
.L386:
	movl	$1, %eax	#, iftmp.264
.L387:
	.loc 1 1108 0 discriminator 3
	jmp	.L388	#
.L384:
	.loc 1 1108 0 discriminator 2
	movq	-160(%rbp), %rax	# out, tmp910
	movq	8(%rax), %rax	# out_2->fld[0].rtx, D.23554
	movzbl	2(%rax), %eax	# _470->mode, D.23547
	cmpb	$18, %al	#, D.23547
	jne	.L389	#,
	.loc 1 1108 0 discriminator 1
	movl	target_flags(%rip), %eax	# target_flags, target_flags.267
	andl	$33554432, %eax	#, D.23555
	testl	%eax, %eax	# D.23555
	je	.L390	#,
	movl	$2, %eax	#, iftmp.266
	jmp	.L388	#
.L390:
	.loc 1 1108 0 discriminator 2
	movl	$3, %eax	#, iftmp.266
	jmp	.L388	#
.L389:
	movq	-160(%rbp), %rax	# out, tmp911
	movq	8(%rax), %rax	# out_2->fld[0].rtx, D.23554
	movzbl	2(%rax), %eax	# _477->mode, D.23547
	cmpb	$24, %al	#, D.23547
	jne	.L393	#,
	.loc 1 1108 0 discriminator 1
	movl	target_flags(%rip), %eax	# target_flags, target_flags.270
	andl	$33554432, %eax	#, D.23555
	testl	%eax, %eax	# D.23555
	je	.L394	#,
	movl	$4, %eax	#, iftmp.269
	jmp	.L388	#
.L394:
	.loc 1 1108 0 discriminator 2
	movl	$6, %eax	#, iftmp.269
	jmp	.L388	#
.L393:
	movq	-160(%rbp), %rax	# out, tmp912
	movq	8(%rax), %rax	# out_2->fld[0].rtx, D.23554
	movzbl	2(%rax), %eax	# _484->mode, D.23547
	movzbl	%al, %eax	# D.23547, D.23555
	cltq
	movzbl	mode_size(%rax), %eax	# mode_size, D.23547
	movzbl	%al, %edx	# D.23547, D.23555
	movl	target_flags(%rip), %eax	# target_flags, target_flags.272
	andl	$33554432, %eax	#, D.23555
	testl	%eax, %eax	# D.23555
	je	.L397	#,
	.loc 1 1108 0 discriminator 1
	movl	$8, %eax	#, iftmp.271
	jmp	.L398	#
.L397:
	.loc 1 1108 0 discriminator 2
	movl	$4, %eax	#, iftmp.271
.L398:
	.loc 1 1108 0 discriminator 3
	addl	%edx, %eax	# D.23555, D.23555
	subl	$1, %eax	#, D.23555
	movl	target_flags(%rip), %edx	# target_flags, target_flags.274
	andl	$33554432, %edx	#, D.23555
	testl	%edx, %edx	# D.23555
	je	.L399	#,
	.loc 1 1108 0 discriminator 1
	movl	$8, %ebx	#, iftmp.273
	jmp	.L400	#
.L399:
	.loc 1 1108 0 discriminator 2
	movl	$4, %ebx	#, iftmp.273
.L400:
	.loc 1 1108 0 discriminator 3
	cltd
	idivl	%ebx	# iftmp.273
.L388:
	.loc 1 1106 0 is_stmt 1
	cmpl	%eax, %ecx	# iftmp.263, D.23555
	jne	.L368	#,
.L375:
	.loc 1 1110 0
	movq	-160(%rbp), %rax	# out, tmp916
	movq	%rax, %rdi	# tmp916,
	call	subreg_regno	#
	movl	16(%rbp), %esi	# outmode,
	movl	%eax, %edi	# D.23555,
	call	ix86_hard_regno_mode_ok	#
	testl	%eax, %eax	# D.23555
	je	.L368	#,
.L372:
	.loc 1 1112 0
	cmpl	$12, -180(%rbp)	#, class
	je	.L401	#,
	.loc 1 1112 0 is_stmt 0 discriminator 2
	cmpl	$11, -180(%rbp)	#, class
	je	.L401	#,
	.loc 1 1112 0 discriminator 1
	cmpl	$10, -180(%rbp)	#, class
	jne	.L366	#,
.L401:
	movl	target_flags(%rip), %eax	# target_flags, target_flags.275
	andl	$33554432, %eax	#, D.23555
	testl	%eax, %eax	# D.23555
	jne	.L366	#,
	cmpl	$2, 16(%rbp)	#, outmode
	jne	.L366	#,
	.loc 1 1113 0 is_stmt 1
	cmpl	$12, -180(%rbp)	#, class
	je	.L402	#,
	.loc 1 1113 0 is_stmt 0 discriminator 1
	cmpl	$11, -180(%rbp)	#, class
	je	.L402	#,
	cmpl	$10, -180(%rbp)	#, class
	jne	.L368	#,
.L402:
	.loc 1 1113 0 discriminator 2
	movl	target_flags(%rip), %eax	# target_flags, target_flags.276
	andl	$33554432, %eax	#, D.23555
	testl	%eax, %eax	# D.23555
	jne	.L368	#,
	.loc 1 1113 0 discriminator 1
	movq	-160(%rbp), %rax	# out, tmp917
	movq	8(%rax), %rax	# out_2->fld[0].rtx, D.23554
	movzbl	2(%rax), %eax	# _520->mode, D.23547
	.loc 1 1116 0 is_stmt 1 discriminator 1
	cmpb	$2, %al	#, D.23547
	je	.L366	#,
.L368:
	.loc 1 1129 0
	movq	-176(%rbp), %rax	# outloc, tmp918
	movq	%rax, -56(%rbp)	# tmp918, out_subreg_loc
	.loc 1 1130 0
	movq	-160(%rbp), %rax	# out, tmp922
	addq	$8, %rax	#, tmp921
	movq	%rax, -176(%rbp)	# tmp921, outloc
	.loc 1 1131 0
	movq	-176(%rbp), %rax	# outloc, tmp923
	movq	(%rax), %rax	# *outloc_523, tmp924
	movq	%rax, -160(%rbp)	# tmp924, out
	.loc 1 1133 0
	movq	-160(%rbp), %rax	# out, tmp925
	movzwl	(%rax), %eax	# out_524->code, D.23548
	cmpw	$66, %ax	#, D.23548
	jne	.L403	#,
	.loc 1 1134 0
	movq	-160(%rbp), %rax	# out, tmp926
	movzbl	2(%rax), %eax	# out_524->mode, D.23547
	movzbl	%al, %eax	# D.23547, D.23555
	cltq
	movzbl	mode_size(%rax), %edx	# mode_size, D.23547
	movl	16(%rbp), %eax	# outmode, outmode.277
	cltq
	movzbl	mode_size(%rax), %eax	# mode_size, D.23547
	cmpb	%al, %dl	# D.23547, D.23547
	jbe	.L403	#,
	.loc 1 1135 0
	movl	$__FUNCTION__.11668, %edx	#,
	movl	$1135, %esi	#,
	movl	$.LC0, %edi	#,
	call	fancy_abort	#
.L403:
	.loc 1 1137 0
	movq	-160(%rbp), %rax	# out, tmp929
	movzbl	2(%rax), %eax	# out_524->mode, D.23547
	movzbl	%al, %eax	# D.23547, tmp930
	movl	%eax, 16(%rbp)	# tmp930, outmode
.L366:
	.loc 1 1147 0
	cmpq	$0, -160(%rbp)	#, out
	je	.L404	#,
	.loc 1 1147 0 is_stmt 0 discriminator 1
	movq	-160(%rbp), %rax	# out, tmp931
	movl	16(%rbp), %esi	# outmode,
	movq	%rax, %rdi	# tmp931,
	call	reload_inner_reg_of_subreg	#
	testl	%eax, %eax	# D.23555
	je	.L404	#,
	.loc 1 1154 0 is_stmt 1
	movl	$1, -120(%rbp)	#, dont_remove_subreg
	.loc 1 1162 0
	movq	-160(%rbp), %rax	# out, tmp932
	movq	8(%rax), %rax	# out_3->fld[0].rtx, D.23554
	.loc 1 1155 0
	movl	8(%rax), %ebx	# _535->fld[0].rtuint, D.23549
	.loc 1 1161 0
	movq	-160(%rbp), %rax	# out, tmp933
	movzbl	2(%rax), %eax	# out_3->mode, D.23547
	.loc 1 1158 0
	movzbl	%al, %ecx	# D.23547, D.23557
	movq	-160(%rbp), %rax	# out, tmp934
	movl	16(%rax), %edx	# out_3->fld[1].rtuint, D.23549
	.loc 1 1159 0
	movq	-160(%rbp), %rax	# out, tmp935
	movq	8(%rax), %rax	# out_3->fld[0].rtx, D.23554
	movzbl	2(%rax), %eax	# _540->mode, D.23547
	.loc 1 1158 0
	movzbl	%al, %esi	# D.23547, D.23557
	movq	-160(%rbp), %rax	# out, tmp936
	movq	8(%rax), %rax	# out_3->fld[0].rtx, D.23554
	movl	8(%rax), %eax	# _543->fld[0].rtuint, D.23549
	movl	%eax, %edi	# D.23549,
	call	subreg_regno_offset	#
	.loc 1 1155 0
	movl	%ebx, %edx	# D.23549,
	movl	%eax, %esi	# D.23555,
	movl	16(%rbp), %edi	# outmode,
	call	find_valid_class	#
	movl	%eax, %edx	#, D.23558
	movq	-160(%rbp), %rax	# out, tmp937
	leaq	8(%rax), %r10	#, D.23553
	movq	-160(%rbp), %rax	# out, tmp938
	leaq	8(%rax), %rdi	#, D.23553
	movq	-160(%rbp), %rax	# out, tmp939
	movq	8(%rax), %rsi	# out_3->fld[0].rtx, D.23554
	movq	-160(%rbp), %rax	# out, tmp940
	movq	8(%rax), %rax	# out_3->fld[0].rtx, D.23554
	movl	$9, 32(%rsp)	#,
	movl	40(%rbp), %ecx	# opnum, tmp941
	movl	%ecx, 24(%rsp)	# tmp941,
	movl	$0, 16(%rsp)	#,
	movl	$0, 8(%rsp)	#,
	movl	$0, (%rsp)	#,
	movl	$0, %r9d	#,
	movl	%edx, %r8d	# D.23558,
	movq	%r10, %rcx	# D.23553,
	movq	%rdi, %rdx	# D.23553,
	movq	%rax, %rdi	# D.23554,
	call	push_reload	#
.L404:
	.loc 1 1168 0
	movq	-152(%rbp), %rax	# in, in.278
	testq	%rax, %rax	# in.278
	je	.L405	#,
	.loc 1 1168 0 is_stmt 0 discriminator 1
	cmpq	$0, -160(%rbp)	#, out
	je	.L405	#,
	movq	-160(%rbp), %rax	# out, tmp942
	movzwl	(%rax), %eax	# out_3->code, D.23548
	cmpw	$66, %ax	#, D.23548
	jne	.L405	#,
	.loc 1 1169 0 is_stmt 1
	movq	-152(%rbp), %rax	# in, in.279
	movzwl	(%rax), %eax	# in.279_554->code, D.23548
	cmpw	$61, %ax	#, D.23548
	je	.L406	#,
	.loc 1 1169 0 is_stmt 0 discriminator 1
	movq	-152(%rbp), %rax	# in, in.280
	movzwl	(%rax), %eax	# in.280_556->code, D.23548
	cmpw	$66, %ax	#, D.23548
	jne	.L405	#,
.L406:
	.loc 1 1170 0 is_stmt 1
	movq	-160(%rbp), %rax	# out, tmp943
	movq	8(%rax), %rdx	# out_3->fld[0].rtx, D.23554
	movq	-152(%rbp), %rax	# in, in.281
	movq	%rdx, %rsi	# D.23554,
	movq	%rax, %rdi	# in.281,
	call	reg_overlap_mentioned_for_reload_p	#
	testl	%eax, %eax	# D.23555
	je	.L405	#,
	.loc 1 1171 0
	movl	$1, -124(%rbp)	#, dont_share
.L405:
	.loc 1 1176 0
	movq	-152(%rbp), %rax	# in, in.282
	testq	%rax, %rax	# in.282
	je	.L407	#,
	.loc 1 1176 0 is_stmt 0 discriminator 1
	movq	-152(%rbp), %rax	# in, in.283
	movzwl	(%rax), %eax	# in.283_563->code, D.23548
	cmpw	$63, %ax	#, D.23548
	jne	.L407	#,
	movq	-152(%rbp), %rax	# in, in.284
	movq	8(%rax), %rax	# in.284_565->fld[0].rtx, D.23554
	movzwl	(%rax), %eax	# _566->code, D.23548
	cmpw	$61, %ax	#, D.23548
	jne	.L407	#,
	.loc 1 1177 0 is_stmt 1
	movq	-152(%rbp), %rax	# in, in.285
	movq	8(%rax), %rax	# in.285_568->fld[0].rtx, D.23554
	movl	8(%rax), %eax	# _569->fld[0].rtuint, D.23549
	cmpl	$52, %eax	#, D.23549
	ja	.L407	#,
	.loc 1 1178 0
	cmpl	$0, -120(%rbp)	#, dont_remove_subreg
	jne	.L407	#,
	.loc 1 1179 0
	movq	-152(%rbp), %rax	# in, in.286
	movq	%rax, %rdi	# in.286,
	call	subreg_regno	#
	movl	%eax, %edx	# D.23549, D.23555
	movq	-152(%rbp), %rax	# in, in.287
	movzbl	2(%rax), %eax	# in.287_574->mode, D.23547
	movzbl	%al, %eax	# D.23547, D.23557
	movl	%edx, %esi	# D.23555,
	movl	%eax, %edi	# D.23557,
	call	gen_rtx_REG	#
	movq	%rax, -152(%rbp)	# in.288, in
.L407:
	.loc 1 1182 0
	cmpq	$0, -160(%rbp)	#, out
	je	.L408	#,
	.loc 1 1182 0 is_stmt 0 discriminator 1
	movq	-160(%rbp), %rax	# out, tmp944
	movzwl	(%rax), %eax	# out_3->code, D.23548
	cmpw	$63, %ax	#, D.23548
	jne	.L408	#,
	.loc 1 1183 0 is_stmt 1
	movq	-160(%rbp), %rax	# out, tmp945
	movq	8(%rax), %rax	# out_3->fld[0].rtx, D.23554
	movzwl	(%rax), %eax	# _579->code, D.23548
	cmpw	$61, %ax	#, D.23548
	jne	.L408	#,
	.loc 1 1184 0
	movq	-160(%rbp), %rax	# out, tmp946
	movq	8(%rax), %rax	# out_3->fld[0].rtx, D.23554
	movl	8(%rax), %eax	# _581->fld[0].rtuint, D.23549
	cmpl	$52, %eax	#, D.23549
	ja	.L408	#,
	.loc 1 1185 0
	cmpl	$0, -120(%rbp)	#, dont_remove_subreg
	jne	.L408	#,
	.loc 1 1186 0
	movq	-160(%rbp), %rax	# out, tmp947
	movq	%rax, %rdi	# tmp947,
	call	subreg_regno	#
	movl	%eax, %edx	# D.23549, D.23555
	movq	-160(%rbp), %rax	# out, tmp948
	movzbl	2(%rax), %eax	# out_3->mode, D.23547
	movzbl	%al, %eax	# D.23547, D.23557
	movl	%edx, %esi	# D.23555,
	movl	%eax, %edi	# D.23557,
	call	gen_rtx_REG	#
	movq	%rax, -160(%rbp)	# tmp949, out
.L408:
	.loc 1 1190 0
	movq	-152(%rbp), %rax	# in, in.289
	testq	%rax, %rax	# in.289
	je	.L409	#,
	.loc 1 1191 0
	movq	-152(%rbp), %rax	# in, in.290
	movl	-180(%rbp), %edx	# class, tmp950
	movl	%edx, %esi	# tmp950,
	movq	%rax, %rdi	# in.290,
	call	ix86_preferred_reload_class	#
	movl	%eax, -180(%rbp)	# tmp951, class
.L409:
	.loc 1 1204 0
	cmpq	$0, -64(%rbp)	#, in_subreg_loc
	je	.L410	#,
	.loc 1 1205 0
	cmpl	$2, -184(%rbp)	#, inmode
	jne	.L411	#,
	.loc 1 1205 0 is_stmt 0 discriminator 2
	movl	target_flags(%rip), %eax	# target_flags, target_flags.292
	andl	$33554432, %eax	#, D.23555
	testl	%eax, %eax	# D.23555
	jne	.L411	#,
	.loc 1 1205 0 discriminator 1
	cmpl	$24, -180(%rbp)	#, class
	je	.L412	#,
	cmpl	$12, -180(%rbp)	#, class
	je	.L412	#,
	cmpl	$11, -180(%rbp)	#, class
	je	.L412	#,
	cmpl	$10, -180(%rbp)	#, class
	je	.L412	#,
.L411:
	movl	-180(%rbp), %eax	# class, iftmp.291
	jmp	.L413	#
.L412:
	.loc 1 1205 0 discriminator 2
	movl	$8, %eax	#, iftmp.291
.L413:
	.loc 1 1205 0 discriminator 3
	movl	%eax, -180(%rbp)	# iftmp.291, class
	jmp	.L414	#
.L410:
	.loc 1 1206 0 is_stmt 1
	movq	-152(%rbp), %rax	# in, in.293
	testq	%rax, %rax	# in.293
	je	.L414	#,
	.loc 1 1206 0 is_stmt 0 discriminator 1
	movq	-152(%rbp), %rax	# in, in.294
	movzwl	(%rax), %eax	# in.294_597->code, D.23548
	cmpw	$63, %ax	#, D.23548
	jne	.L414	#,
	.loc 1 1207 0 is_stmt 1
	movq	-152(%rbp), %rax	# in, in.296
	movq	8(%rax), %rax	# in.296_599->fld[0].rtx, D.23554
	movzbl	2(%rax), %eax	# _600->mode, D.23547
	cmpb	$2, %al	#, D.23547
	jne	.L415	#,
	.loc 1 1207 0 is_stmt 0 discriminator 2
	movl	target_flags(%rip), %eax	# target_flags, target_flags.297
	andl	$33554432, %eax	#, D.23555
	testl	%eax, %eax	# D.23555
	jne	.L415	#,
	.loc 1 1207 0 discriminator 1
	cmpl	$24, -180(%rbp)	#, class
	je	.L416	#,
	cmpl	$12, -180(%rbp)	#, class
	je	.L416	#,
	cmpl	$11, -180(%rbp)	#, class
	je	.L416	#,
	cmpl	$10, -180(%rbp)	#, class
	je	.L416	#,
.L415:
	movl	-180(%rbp), %eax	# class, iftmp.295
	jmp	.L417	#
.L416:
	.loc 1 1207 0 discriminator 2
	movl	$8, %eax	#, iftmp.295
.L417:
	.loc 1 1207 0 discriminator 3
	movl	%eax, -180(%rbp)	# iftmp.295, class
.L414:
	.loc 1 1209 0 is_stmt 1
	cmpq	$0, -56(%rbp)	#, out_subreg_loc
	je	.L418	#,
	.loc 1 1210 0
	cmpl	$2, 16(%rbp)	#, outmode
	jne	.L419	#,
	.loc 1 1210 0 is_stmt 0 discriminator 2
	movl	target_flags(%rip), %eax	# target_flags, target_flags.299
	andl	$33554432, %eax	#, D.23555
	testl	%eax, %eax	# D.23555
	jne	.L419	#,
	.loc 1 1210 0 discriminator 1
	cmpl	$24, -180(%rbp)	#, class
	je	.L420	#,
	cmpl	$12, -180(%rbp)	#, class
	je	.L420	#,
	cmpl	$11, -180(%rbp)	#, class
	je	.L420	#,
	cmpl	$10, -180(%rbp)	#, class
	je	.L420	#,
.L419:
	movl	-180(%rbp), %eax	# class, iftmp.298
	jmp	.L421	#
.L420:
	.loc 1 1210 0 discriminator 2
	movl	$8, %eax	#, iftmp.298
.L421:
	.loc 1 1210 0 discriminator 3
	movl	%eax, -180(%rbp)	# iftmp.298, class
.L418:
	.loc 1 1211 0 is_stmt 1
	cmpq	$0, -160(%rbp)	#, out
	je	.L422	#,
	.loc 1 1211 0 is_stmt 0 discriminator 1
	movq	-160(%rbp), %rax	# out, tmp952
	movzwl	(%rax), %eax	# out_4->code, D.23548
	cmpw	$63, %ax	#, D.23548
	jne	.L422	#,
	.loc 1 1212 0 is_stmt 1
	movq	-160(%rbp), %rax	# out, tmp953
	movq	8(%rax), %rax	# out_4->fld[0].rtx, D.23554
	movzbl	2(%rax), %eax	# _613->mode, D.23547
	cmpb	$2, %al	#, D.23547
	jne	.L423	#,
	.loc 1 1212 0 is_stmt 0 discriminator 2
	movl	target_flags(%rip), %eax	# target_flags, target_flags.301
	andl	$33554432, %eax	#, D.23555
	testl	%eax, %eax	# D.23555
	jne	.L423	#,
	.loc 1 1212 0 discriminator 1
	cmpl	$24, -180(%rbp)	#, class
	je	.L424	#,
	cmpl	$12, -180(%rbp)	#, class
	je	.L424	#,
	cmpl	$11, -180(%rbp)	#, class
	je	.L424	#,
	cmpl	$10, -180(%rbp)	#, class
	je	.L424	#,
.L423:
	movl	-180(%rbp), %eax	# class, iftmp.300
	jmp	.L425	#
.L424:
	.loc 1 1212 0 discriminator 2
	movl	$8, %eax	#, iftmp.300
.L425:
	.loc 1 1212 0 discriminator 3
	movl	%eax, -180(%rbp)	# iftmp.300, class
.L422:
	.loc 1 1217 0 is_stmt 1
	movl	this_insn_is_asm(%rip), %eax	# this_insn_is_asm, this_insn_is_asm.302
	testl	%eax, %eax	# this_insn_is_asm.302
	je	.L426	#,
.LBB9:
	.loc 1 1220 0
	movl	-184(%rbp), %eax	# inmode, inmode.303
	cltq
	movzbl	mode_size(%rax), %edx	# mode_size, D.23547
	movl	16(%rbp), %eax	# outmode, outmode.304
	cltq
	movzbl	mode_size(%rax), %eax	# mode_size, D.23547
	cmpb	%al, %dl	# D.23547, D.23547
	jbe	.L427	#,
	.loc 1 1221 0
	movl	-184(%rbp), %eax	# inmode, tmp956
	movl	%eax, -108(%rbp)	# tmp956, mode
	jmp	.L428	#
.L427:
	.loc 1 1223 0
	movl	16(%rbp), %eax	# outmode, tmp957
	movl	%eax, -108(%rbp)	# tmp957, mode
.L428:
	.loc 1 1224 0
	cmpl	$0, -108(%rbp)	#, mode
	jne	.L429	#,
	.loc 1 1226 0
	movq	this_insn(%rip), %rax	# this_insn, this_insn.305
	movl	$.LC1, %esi	#,
	movq	%rax, %rdi	# this_insn.305,
	movl	$0, %eax	#,
	call	error_for_asm	#
	.loc 1 1227 0
	movl	word_mode(%rip), %eax	# word_mode, tmp958
	movl	%eax, -108(%rbp)	# tmp958, mode
	.loc 1 1228 0
	movq	-152(%rbp), %rax	# in, in.306
	testq	%rax, %rax	# in.306
	je	.L430	#,
	.loc 1 1229 0
	movl	word_mode(%rip), %eax	# word_mode, tmp959
	movl	%eax, -184(%rbp)	# tmp959, inmode
.L430:
	.loc 1 1230 0
	cmpq	$0, -160(%rbp)	#, out
	je	.L429	#,
	.loc 1 1231 0
	movl	word_mode(%rip), %eax	# word_mode, tmp960
	movl	%eax, 16(%rbp)	# tmp960, outmode
.L429:
	.loc 1 1233 0
	movl	$0, -128(%rbp)	#, i
	jmp	.L431	#
.L459:
	.loc 1 1234 0
	movl	-108(%rbp), %edx	# mode, tmp961
	movl	-128(%rbp), %eax	# i, tmp962
	movl	%edx, %esi	# tmp961,
	movl	%eax, %edi	# tmp962,
	call	ix86_hard_regno_mode_ok	#
	testl	%eax, %eax	# D.23555
	je	.L432	#,
	.loc 1 1235 0
	movl	-180(%rbp), %eax	# class, class.307
	cltq
	movq	reg_class_contents(,%rax,8), %rdx	# reg_class_contents, D.23550
	movl	-128(%rbp), %eax	# i, tmp964
	movl	%eax, %ecx	# tmp964, tmp1407
	shrq	%cl, %rdx	# tmp1407, D.23550
	movq	%rdx, %rax	# D.23550, D.23550
	andl	$1, %eax	#, D.23550
	testq	%rax, %rax	# D.23550
	je	.L432	#,
.LBB10:
	.loc 1 1237 0
	cmpl	$7, -128(%rbp)	#, i
	jle	.L433	#,
	.loc 1 1237 0 is_stmt 0 discriminator 1
	cmpl	$15, -128(%rbp)	#, i
	jle	.L434	#,
.L433:
	.loc 1 1237 0 discriminator 2
	cmpl	$20, -128(%rbp)	#, i
	jle	.L435	#,
	.loc 1 1237 0 discriminator 1
	cmpl	$28, -128(%rbp)	#, i
	jle	.L434	#,
.L435:
	.loc 1 1237 0 discriminator 2
	cmpl	$44, -128(%rbp)	#, i
	jle	.L436	#,
	.loc 1 1237 0 discriminator 1
	cmpl	$52, -128(%rbp)	#, i
	jle	.L434	#,
.L436:
	.loc 1 1237 0 discriminator 2
	cmpl	$28, -128(%rbp)	#, i
	jle	.L437	#,
	.loc 1 1237 0 discriminator 1
	cmpl	$36, -128(%rbp)	#, i
	jg	.L437	#,
.L434:
	movl	-108(%rbp), %eax	# mode, mode.310
	cltq
	movl	mode_class(,%rax,4), %eax	# mode_class, D.23556
	cmpl	$5, %eax	#, D.23556
	je	.L438	#,
	.loc 1 1237 0 discriminator 2
	movl	-108(%rbp), %eax	# mode, mode.311
	cltq
	movl	mode_class(,%rax,4), %eax	# mode_class, D.23556
	cmpl	$6, %eax	#, D.23556
	jne	.L439	#,
.L438:
	.loc 1 1237 0 discriminator 1
	movl	$2, %eax	#, iftmp.309
	jmp	.L440	#
.L439:
	movl	$1, %eax	#, iftmp.309
.L440:
	.loc 1 1237 0 discriminator 3
	jmp	.L441	#
.L437:
	.loc 1 1237 0 discriminator 2
	cmpl	$18, -108(%rbp)	#, mode
	jne	.L442	#,
	.loc 1 1237 0 discriminator 1
	movl	target_flags(%rip), %eax	# target_flags, target_flags.314
	andl	$33554432, %eax	#, D.23555
	testl	%eax, %eax	# D.23555
	je	.L443	#,
	movl	$2, %eax	#, iftmp.313
	jmp	.L441	#
.L443:
	.loc 1 1237 0 discriminator 2
	movl	$3, %eax	#, iftmp.313
	jmp	.L441	#
.L442:
	cmpl	$24, -108(%rbp)	#, mode
	jne	.L446	#,
	.loc 1 1237 0 discriminator 1
	movl	target_flags(%rip), %eax	# target_flags, target_flags.317
	andl	$33554432, %eax	#, D.23555
	testl	%eax, %eax	# D.23555
	je	.L447	#,
	movl	$4, %eax	#, iftmp.316
	jmp	.L441	#
.L447:
	.loc 1 1237 0 discriminator 2
	movl	$6, %eax	#, iftmp.316
	jmp	.L441	#
.L446:
	movl	-108(%rbp), %eax	# mode, mode.318
	cltq
	movzbl	mode_size(%rax), %eax	# mode_size, D.23547
	movzbl	%al, %edx	# D.23547, D.23555
	movl	target_flags(%rip), %eax	# target_flags, target_flags.320
	andl	$33554432, %eax	#, D.23555
	testl	%eax, %eax	# D.23555
	je	.L450	#,
	.loc 1 1237 0 discriminator 1
	movl	$8, %eax	#, iftmp.319
	jmp	.L451	#
.L450:
	.loc 1 1237 0 discriminator 2
	movl	$4, %eax	#, iftmp.319
.L451:
	.loc 1 1237 0 discriminator 3
	addl	%edx, %eax	# D.23555, D.23555
	subl	$1, %eax	#, D.23555
	movl	target_flags(%rip), %edx	# target_flags, target_flags.322
	andl	$33554432, %edx	#, D.23555
	testl	%edx, %edx	# D.23555
	je	.L452	#,
	.loc 1 1237 0 discriminator 1
	movl	$8, %ebx	#, iftmp.321
	jmp	.L453	#
.L452:
	.loc 1 1237 0 discriminator 2
	movl	$4, %ebx	#, iftmp.321
.L453:
	.loc 1 1237 0 discriminator 3
	cltd
	idivl	%ebx	# iftmp.321
.L441:
	movl	%eax, -76(%rbp)	# iftmp.308, nregs
	.loc 1 1240 0 is_stmt 1 discriminator 3
	movl	$1, -104(%rbp)	#, j
	jmp	.L454	#
.L457:
	.loc 1 1241 0
	movl	-180(%rbp), %eax	# class, class.323
	cltq
	movq	reg_class_contents(,%rax,8), %rdx	# reg_class_contents, D.23550
	movl	-104(%rbp), %eax	# j, tmp971
	movl	-128(%rbp), %ecx	# i, tmp972
	addl	%ecx, %eax	# tmp972, D.23555
	movl	%eax, %ecx	# D.23555, tmp1410
	shrq	%cl, %rdx	# tmp1410, D.23550
	movq	%rdx, %rax	# D.23550, D.23550
	andl	$1, %eax	#, D.23550
	testq	%rax, %rax	# D.23550
	jne	.L455	#,
	.loc 1 1242 0
	jmp	.L456	#
.L455:
	.loc 1 1240 0
	addl	$1, -104(%rbp)	#, j
.L454:
	.loc 1 1240 0 is_stmt 0 discriminator 1
	movl	-104(%rbp), %eax	# j, tmp973
	cmpl	-76(%rbp), %eax	# nregs, tmp973
	jl	.L457	#,
.L456:
	.loc 1 1243 0 is_stmt 1
	movl	-104(%rbp), %eax	# j, tmp974
	cmpl	-76(%rbp), %eax	# nregs, tmp974
	jne	.L432	#,
	.loc 1 1244 0
	jmp	.L458	#
.L432:
.LBE10:
	.loc 1 1233 0
	addl	$1, -128(%rbp)	#, i
.L431:
	.loc 1 1233 0 is_stmt 0 discriminator 1
	cmpl	$52, -128(%rbp)	#, i
	jle	.L459	#,
.L458:
	.loc 1 1246 0 is_stmt 1
	cmpl	$53, -128(%rbp)	#, i
	jne	.L426	#,
	.loc 1 1248 0
	movq	this_insn(%rip), %rax	# this_insn, this_insn.324
	movl	$.LC2, %esi	#,
	movq	%rax, %rdi	# this_insn.324,
	movl	$0, %eax	#,
	call	error_for_asm	#
	.loc 1 1249 0
	movl	$24, -180(%rbp)	#, class
.L426:
.LBE9:
	.loc 1 1256 0
	cmpl	$0, -180(%rbp)	#, class
	jne	.L460	#,
	.loc 1 1257 0
	cmpl	$0, 32(%rbp)	#, optional
	je	.L461	#,
	.loc 1 1257 0 is_stmt 0 discriminator 1
	cmpl	$1, 48(%rbp)	#, type
	je	.L460	#,
.L461:
	.loc 1 1258 0 is_stmt 1
	movl	$__FUNCTION__.11668, %edx	#,
	movl	$1258, %esi	#,
	movl	$.LC0, %edi	#,
	call	fancy_abort	#
.L460:
	.loc 1 1260 0
	movl	-124(%rbp), %r8d	# dont_share, tmp975
	movl	40(%rbp), %edi	# opnum, tmp976
	movl	48(%rbp), %ecx	# type, tmp977
	movl	-180(%rbp), %edx	# class, tmp978
	movq	-160(%rbp), %rsi	# out, tmp979
	leaq	-152(%rbp), %rax	#, tmp980
	movl	%r8d, %r9d	# tmp975,
	movl	%edi, %r8d	# tmp976,
	movq	%rax, %rdi	# tmp980,
	call	find_reusable_reload	#
	movl	%eax, -128(%rbp)	# tmp981, i
	.loc 1 1262 0
	movl	n_reloads(%rip), %eax	# n_reloads, n_reloads.325
	cmpl	%eax, -128(%rbp)	# n_reloads.325, i
	jne	.L462	#,
	.loc 1 1276 0
	cmpq	$0, -160(%rbp)	#, out
	je	.L463	#,
	.loc 1 1276 0 is_stmt 0 discriminator 1
	movq	-160(%rbp), %rax	# out, tmp982
	movzwl	(%rax), %eax	# out_4->code, D.23548
	cmpw	$62, %ax	#, D.23548
	je	.L463	#,
	.loc 1 1278 0 is_stmt 1
	movl	-180(%rbp), %edi	# class, tmp983
	movl	32(%rbp), %ecx	# optional, tmp984
	movl	40(%rbp), %edx	# opnum, tmp985
	movq	-160(%rbp), %rax	# out, tmp986
	leaq	-132(%rbp), %rsi	#, tmp987
	movq	%rsi, 8(%rsp)	# tmp987,
	movl	48(%rbp), %esi	# type, tmp988
	movl	%esi, (%rsp)	# tmp988,
	movl	16(%rbp), %r9d	# outmode,
	movl	%edi, %r8d	# tmp983,
	movq	%rax, %rsi	# tmp986,
	movl	$0, %edi	#,
	call	push_secondary_reload	#
	movl	%eax, -116(%rbp)	# tmp989, secondary_out_reload
.L463:
	.loc 1 1287 0
	movq	-152(%rbp), %rax	# in, in.326
	testq	%rax, %rax	# in.326
	je	.L464	#,
	.loc 1 1287 0 is_stmt 0 discriminator 1
	movq	-152(%rbp), %rax	# in, in.327
	movzwl	(%rax), %eax	# in.327_688->code, D.23548
	cmpw	$61, %ax	#, D.23548
	jne	.L464	#,
	.loc 1 1288 0 is_stmt 1
	movq	-152(%rbp), %rax	# in, in.328
	movl	8(%rax), %eax	# in.328_690->fld[0].rtuint, D.23549
	cmpl	$52, %eax	#, D.23549
	ja	.L464	#,
	.loc 1 1289 0
	movq	-152(%rbp), %rax	# in, in.329
	movl	8(%rax), %eax	# in.329_692->fld[0].rtuint, D.23549
	movl	%eax, %eax	# D.23549, tmp990
	movl	regclass_map(,%rax,4), %eax	# regclass_map, D.23558
	movl	-184(%rbp), %edx	# inmode, tmp991
	movl	-180(%rbp), %esi	# class, tmp992
	movl	$1, %ecx	#,
	movl	%eax, %edi	# D.23558,
	call	ix86_secondary_memory_needed	#
	testl	%eax, %eax	# D.23555
	je	.L464	#,
	.loc 1 1291 0
	movq	-152(%rbp), %rax	# in, in.330
	movl	48(%rbp), %ecx	# type, tmp993
	movl	40(%rbp), %edx	# opnum, tmp994
	movl	-184(%rbp), %esi	# inmode, tmp995
	movq	%rax, %rdi	# in.330,
	call	get_secondary_mem	#
.L464:
	.loc 1 1294 0
	movl	n_reloads(%rip), %eax	# n_reloads, tmp996
	movl	%eax, -128(%rbp)	# tmp996, i
	.loc 1 1295 0
	movq	-152(%rbp), %rcx	# in, in.331
	movl	-128(%rbp), %eax	# i, tmp998
	movslq	%eax, %rdx	# tmp998, tmp997
	movq	%rdx, %rax	# tmp997, tmp999
	addq	%rax, %rax	# tmp999
	addq	%rdx, %rax	# tmp997, tmp999
	salq	$2, %rax	#, tmp999
	addq	%rdx, %rax	# tmp997, tmp999
	salq	$3, %rax	#, tmp1000
	addq	$rld, %rax	#, tmp1001
	movq	%rcx, (%rax)	# in.331, rld[i_697].in
	.loc 1 1296 0
	movl	-128(%rbp), %eax	# i, tmp1003
	movslq	%eax, %rdx	# tmp1003, tmp1002
	movq	%rdx, %rax	# tmp1002, tmp1004
	addq	%rax, %rax	# tmp1004
	addq	%rdx, %rax	# tmp1002, tmp1004
	salq	$2, %rax	#, tmp1004
	addq	%rdx, %rax	# tmp1002, tmp1004
	salq	$3, %rax	#, tmp1005
	leaq	rld(%rax), %rdx	#, tmp1006
	movq	-160(%rbp), %rax	# out, tmp1007
	movq	%rax, 8(%rdx)	# tmp1007, rld[i_697].out
	.loc 1 1297 0
	movl	-128(%rbp), %eax	# i, tmp1009
	movslq	%eax, %rdx	# tmp1009, tmp1008
	movq	%rdx, %rax	# tmp1008, tmp1010
	addq	%rax, %rax	# tmp1010
	addq	%rdx, %rax	# tmp1008, tmp1010
	salq	$2, %rax	#, tmp1010
	addq	%rdx, %rax	# tmp1008, tmp1010
	salq	$3, %rax	#, tmp1011
	leaq	rld+16(%rax), %rdx	#, tmp1012
	movl	-180(%rbp), %eax	# class, tmp1013
	movl	%eax, (%rdx)	# tmp1013, rld[i_697].class
	.loc 1 1298 0
	movl	-128(%rbp), %eax	# i, tmp1015
	movslq	%eax, %rdx	# tmp1015, tmp1014
	movq	%rdx, %rax	# tmp1014, tmp1016
	addq	%rax, %rax	# tmp1016
	addq	%rdx, %rax	# tmp1014, tmp1016
	salq	$2, %rax	#, tmp1016
	addq	%rdx, %rax	# tmp1014, tmp1016
	salq	$3, %rax	#, tmp1017
	leaq	rld+16(%rax), %rdx	#, tmp1018
	movl	-184(%rbp), %eax	# inmode, tmp1019
	movl	%eax, 4(%rdx)	# tmp1019, rld[i_697].inmode
	.loc 1 1299 0
	movl	-128(%rbp), %eax	# i, tmp1021
	movslq	%eax, %rdx	# tmp1021, tmp1020
	movq	%rdx, %rax	# tmp1020, tmp1022
	addq	%rax, %rax	# tmp1022
	addq	%rdx, %rax	# tmp1020, tmp1022
	salq	$2, %rax	#, tmp1022
	addq	%rdx, %rax	# tmp1020, tmp1022
	salq	$3, %rax	#, tmp1023
	leaq	rld+16(%rax), %rdx	#, tmp1024
	movl	16(%rbp), %eax	# outmode, tmp1025
	movl	%eax, 8(%rdx)	# tmp1025, rld[i_697].outmode
	.loc 1 1300 0
	movl	-128(%rbp), %eax	# i, tmp1027
	movslq	%eax, %rdx	# tmp1027, tmp1026
	movq	%rdx, %rax	# tmp1026, tmp1028
	addq	%rax, %rax	# tmp1028
	addq	%rdx, %rax	# tmp1026, tmp1028
	salq	$2, %rax	#, tmp1028
	addq	%rdx, %rax	# tmp1026, tmp1028
	salq	$3, %rax	#, tmp1029
	addq	$rld+64, %rax	#, tmp1030
	movq	$0, (%rax)	#, rld[i_697].reg_rtx
	.loc 1 1301 0
	movl	32(%rbp), %eax	# optional, tmp1031
	andl	$1, %eax	#, D.23559
	movl	%eax, %ecx	# D.23559, D.23559
	movl	-128(%rbp), %eax	# i, tmp1033
	movslq	%eax, %rdx	# tmp1033, tmp1032
	movq	%rdx, %rax	# tmp1032, tmp1034
	addq	%rax, %rax	# tmp1034
	addq	%rdx, %rax	# tmp1032, tmp1034
	salq	$2, %rax	#, tmp1034
	addq	%rdx, %rax	# tmp1032, tmp1034
	salq	$3, %rax	#, tmp1035
	addq	$rld+96, %rax	#, tmp1036
	andl	$1, %ecx	#, tmp1038
	movzbl	(%rax), %edx	# rld[i_697].optional, tmp1039
	andl	$-2, %edx	#, tmp1040
	orl	%ecx, %edx	# tmp1038, tmp1041
	movb	%dl, (%rax)	# tmp1041, rld[i_697].optional
	.loc 1 1302 0
	movl	-128(%rbp), %eax	# i, tmp1043
	movslq	%eax, %rdx	# tmp1043, tmp1042
	movq	%rdx, %rax	# tmp1042, tmp1044
	addq	%rax, %rax	# tmp1044
	addq	%rdx, %rax	# tmp1042, tmp1044
	salq	$2, %rax	#, tmp1044
	addq	%rdx, %rax	# tmp1042, tmp1044
	salq	$3, %rax	#, tmp1045
	addq	$rld+32, %rax	#, tmp1046
	movl	$0, 4(%rax)	#, rld[i_697].inc
	.loc 1 1303 0
	movl	-128(%rbp), %eax	# i, tmp1048
	movslq	%eax, %rdx	# tmp1048, tmp1047
	movq	%rdx, %rax	# tmp1047, tmp1049
	addq	%rax, %rax	# tmp1049
	addq	%rdx, %rax	# tmp1047, tmp1049
	salq	$2, %rax	#, tmp1049
	addq	%rdx, %rax	# tmp1047, tmp1049
	salq	$3, %rax	#, tmp1050
	addq	$rld+96, %rax	#, tmp1051
	movzbl	(%rax), %edx	# rld[i_697].nocombine, tmp1054
	andl	$-3, %edx	#, tmp1055
	movb	%dl, (%rax)	# tmp1055, rld[i_697].nocombine
	.loc 1 1304 0
	cmpq	$0, -168(%rbp)	#, inloc
	je	.L465	#,
	.loc 1 1304 0 is_stmt 0 discriminator 1
	movq	-168(%rbp), %rax	# inloc, tmp1056
	movq	(%rax), %rcx	# *inloc_5, iftmp.332
	jmp	.L466	#
.L465:
	.loc 1 1304 0 discriminator 2
	movl	$0, %ecx	#, iftmp.332
.L466:
	.loc 1 1304 0 discriminator 3
	movl	-128(%rbp), %eax	# i, tmp1058
	movslq	%eax, %rdx	# tmp1058, tmp1057
	movq	%rdx, %rax	# tmp1057, tmp1059
	addq	%rax, %rax	# tmp1059
	addq	%rdx, %rax	# tmp1057, tmp1059
	salq	$2, %rax	#, tmp1059
	addq	%rdx, %rax	# tmp1057, tmp1059
	salq	$3, %rax	#, tmp1060
	addq	$rld+32, %rax	#, tmp1061
	movq	%rcx, 8(%rax)	# iftmp.332, rld[i_697].in_reg
	.loc 1 1305 0 is_stmt 1 discriminator 3
	cmpq	$0, -176(%rbp)	#, outloc
	je	.L467	#,
	.loc 1 1305 0 is_stmt 0 discriminator 1
	movq	-176(%rbp), %rax	# outloc, tmp1062
	movq	(%rax), %rcx	# *outloc_6, iftmp.333
	jmp	.L468	#
.L467:
	.loc 1 1305 0 discriminator 2
	movl	$0, %ecx	#, iftmp.333
.L468:
	.loc 1 1305 0 discriminator 3
	movl	-128(%rbp), %eax	# i, tmp1064
	movslq	%eax, %rdx	# tmp1064, tmp1063
	movq	%rdx, %rax	# tmp1063, tmp1065
	addq	%rax, %rax	# tmp1065
	addq	%rdx, %rax	# tmp1063, tmp1065
	salq	$2, %rax	#, tmp1065
	addq	%rdx, %rax	# tmp1063, tmp1065
	salq	$3, %rax	#, tmp1066
	addq	$rld+48, %rax	#, tmp1067
	movq	%rcx, (%rax)	# iftmp.333, rld[i_697].out_reg
	.loc 1 1306 0 is_stmt 1 discriminator 3
	movl	-128(%rbp), %eax	# i, tmp1069
	movslq	%eax, %rdx	# tmp1069, tmp1068
	movq	%rdx, %rax	# tmp1068, tmp1070
	addq	%rax, %rax	# tmp1070
	addq	%rdx, %rax	# tmp1068, tmp1070
	salq	$2, %rax	#, tmp1070
	addq	%rdx, %rax	# tmp1068, tmp1070
	salq	$3, %rax	#, tmp1071
	leaq	rld+64(%rax), %rdx	#, tmp1072
	movl	40(%rbp), %eax	# opnum, tmp1073
	movl	%eax, 8(%rdx)	# tmp1073, rld[i_697].opnum
	.loc 1 1307 0 discriminator 3
	movl	-128(%rbp), %eax	# i, tmp1075
	movslq	%eax, %rdx	# tmp1075, tmp1074
	movq	%rdx, %rax	# tmp1074, tmp1076
	addq	%rax, %rax	# tmp1076
	addq	%rdx, %rax	# tmp1074, tmp1076
	salq	$2, %rax	#, tmp1076
	addq	%rdx, %rax	# tmp1074, tmp1076
	salq	$3, %rax	#, tmp1077
	leaq	rld+80(%rax), %rdx	#, tmp1078
	movl	48(%rbp), %eax	# type, tmp1079
	movl	%eax, 12(%rdx)	# tmp1079, rld[i_697].when_needed
	.loc 1 1308 0 discriminator 3
	movl	-128(%rbp), %eax	# i, tmp1081
	movslq	%eax, %rdx	# tmp1081, tmp1080
	movq	%rdx, %rax	# tmp1080, tmp1082
	addq	%rax, %rax	# tmp1082
	addq	%rdx, %rax	# tmp1080, tmp1082
	salq	$2, %rax	#, tmp1082
	addq	%rdx, %rax	# tmp1080, tmp1082
	salq	$3, %rax	#, tmp1083
	leaq	rld+64(%rax), %rdx	#, tmp1084
	movl	-92(%rbp), %eax	# secondary_in_reload, tmp1085
	movl	%eax, 12(%rdx)	# tmp1085, rld[i_697].secondary_in_reload
	.loc 1 1309 0 discriminator 3
	movl	-128(%rbp), %eax	# i, tmp1087
	movslq	%eax, %rdx	# tmp1087, tmp1086
	movq	%rdx, %rax	# tmp1086, tmp1088
	addq	%rax, %rax	# tmp1088
	addq	%rdx, %rax	# tmp1086, tmp1088
	salq	$2, %rax	#, tmp1088
	addq	%rdx, %rax	# tmp1086, tmp1088
	salq	$3, %rax	#, tmp1089
	leaq	rld+80(%rax), %rdx	#, tmp1090
	movl	-116(%rbp), %eax	# secondary_out_reload, tmp1091
	movl	%eax, (%rdx)	# tmp1091, rld[i_697].secondary_out_reload
	.loc 1 1310 0 discriminator 3
	movl	-128(%rbp), %eax	# i, tmp1093
	movslq	%eax, %rdx	# tmp1093, tmp1092
	movq	%rdx, %rax	# tmp1092, tmp1094
	addq	%rax, %rax	# tmp1094
	addq	%rdx, %rax	# tmp1092, tmp1094
	salq	$2, %rax	#, tmp1094
	addq	%rdx, %rax	# tmp1092, tmp1094
	salq	$3, %rax	#, tmp1095
	leaq	rld+80(%rax), %rdx	#, tmp1096
	movl	-88(%rbp), %eax	# secondary_in_icode, tmp1097
	movl	%eax, 4(%rdx)	# tmp1097, rld[i_697].secondary_in_icode
	.loc 1 1311 0 discriminator 3
	movl	-132(%rbp), %ecx	# secondary_out_icode, secondary_out_icode.334
	movl	-128(%rbp), %eax	# i, tmp1099
	movslq	%eax, %rdx	# tmp1099, tmp1098
	movq	%rdx, %rax	# tmp1098, tmp1100
	addq	%rax, %rax	# tmp1100
	addq	%rdx, %rax	# tmp1098, tmp1100
	salq	$2, %rax	#, tmp1100
	addq	%rdx, %rax	# tmp1098, tmp1100
	salq	$3, %rax	#, tmp1101
	addq	$rld+80, %rax	#, tmp1102
	movl	%ecx, 8(%rax)	# secondary_out_icode.334, rld[i_697].secondary_out_icode
	.loc 1 1312 0 discriminator 3
	movl	-128(%rbp), %eax	# i, tmp1104
	movslq	%eax, %rdx	# tmp1104, tmp1103
	movq	%rdx, %rax	# tmp1103, tmp1105
	addq	%rax, %rax	# tmp1105
	addq	%rdx, %rax	# tmp1103, tmp1105
	salq	$2, %rax	#, tmp1105
	addq	%rdx, %rax	# tmp1103, tmp1105
	salq	$3, %rax	#, tmp1106
	addq	$rld+96, %rax	#, tmp1107
	movzbl	(%rax), %edx	# rld[i_697].secondary_p, tmp1110
	andl	$-5, %edx	#, tmp1111
	movb	%dl, (%rax)	# tmp1111, rld[i_697].secondary_p
	.loc 1 1314 0 discriminator 3
	movl	n_reloads(%rip), %eax	# n_reloads, n_reloads.335
	addl	$1, %eax	#, n_reloads.336
	movl	%eax, n_reloads(%rip)	# n_reloads.336, n_reloads
	.loc 1 1317 0 discriminator 3
	cmpq	$0, -160(%rbp)	#, out
	je	.L470	#,
	.loc 1 1317 0 is_stmt 0 discriminator 1
	movq	-160(%rbp), %rax	# out, tmp1112
	movzwl	(%rax), %eax	# out_4->code, D.23548
	cmpw	$61, %ax	#, D.23548
	jne	.L470	#,
	.loc 1 1318 0 is_stmt 1
	movq	-160(%rbp), %rax	# out, tmp1113
	movl	8(%rax), %eax	# out_4->fld[0].rtuint, D.23549
	cmpl	$52, %eax	#, D.23549
	ja	.L470	#,
	.loc 1 1319 0
	movq	-160(%rbp), %rax	# out, tmp1114
	movl	8(%rax), %eax	# out_4->fld[0].rtuint, D.23549
	movl	%eax, %eax	# D.23549, tmp1115
	movl	regclass_map(,%rax,4), %esi	# regclass_map, D.23558
	movl	-180(%rbp), %eax	# class, tmp1116
	movl	$1, %ecx	#,
	movl	16(%rbp), %edx	# outmode,
	movl	%eax, %edi	# tmp1116,
	call	ix86_secondary_memory_needed	#
	testl	%eax, %eax	# D.23555
	je	.L470	#,
	.loc 1 1321 0
	movl	48(%rbp), %ecx	# type, tmp1117
	movl	40(%rbp), %edx	# opnum, tmp1118
	movq	-160(%rbp), %rax	# out, tmp1119
	movl	16(%rbp), %esi	# outmode,
	movq	%rax, %rdi	# tmp1119,
	call	get_secondary_mem	#
	jmp	.L470	#
.L462:
	.loc 1 1333 0
	cmpl	$0, -184(%rbp)	#, inmode
	je	.L471	#,
	.loc 1 1334 0
	movl	-184(%rbp), %eax	# inmode, inmode.337
	cltq
	movzbl	mode_size(%rax), %ecx	# mode_size, D.23547
	movl	-128(%rbp), %eax	# i, tmp1122
	movslq	%eax, %rdx	# tmp1122, tmp1121
	movq	%rdx, %rax	# tmp1121, tmp1123
	addq	%rax, %rax	# tmp1123
	addq	%rdx, %rax	# tmp1121, tmp1123
	salq	$2, %rax	#, tmp1123
	addq	%rdx, %rax	# tmp1121, tmp1123
	salq	$3, %rax	#, tmp1124
	addq	$rld+16, %rax	#, tmp1125
	movl	4(%rax), %eax	# rld[i_683].inmode, D.23557
	cltq
	movzbl	mode_size(%rax), %eax	# mode_size, D.23547
	cmpb	%al, %cl	# D.23547, D.23547
	jbe	.L471	#,
	.loc 1 1335 0
	movl	-128(%rbp), %eax	# i, tmp1128
	movslq	%eax, %rdx	# tmp1128, tmp1127
	movq	%rdx, %rax	# tmp1127, tmp1129
	addq	%rax, %rax	# tmp1129
	addq	%rdx, %rax	# tmp1127, tmp1129
	salq	$2, %rax	#, tmp1129
	addq	%rdx, %rax	# tmp1127, tmp1129
	salq	$3, %rax	#, tmp1130
	leaq	rld+16(%rax), %rdx	#, tmp1131
	movl	-184(%rbp), %eax	# inmode, tmp1132
	movl	%eax, 4(%rdx)	# tmp1132, rld[i_683].inmode
.L471:
	.loc 1 1336 0
	cmpl	$0, 16(%rbp)	#, outmode
	je	.L472	#,
	.loc 1 1337 0
	movl	16(%rbp), %eax	# outmode, outmode.338
	cltq
	movzbl	mode_size(%rax), %ecx	# mode_size, D.23547
	movl	-128(%rbp), %eax	# i, tmp1135
	movslq	%eax, %rdx	# tmp1135, tmp1134
	movq	%rdx, %rax	# tmp1134, tmp1136
	addq	%rax, %rax	# tmp1136
	addq	%rdx, %rax	# tmp1134, tmp1136
	salq	$2, %rax	#, tmp1136
	addq	%rdx, %rax	# tmp1134, tmp1136
	salq	$3, %rax	#, tmp1137
	addq	$rld+16, %rax	#, tmp1138
	movl	8(%rax), %eax	# rld[i_683].outmode, D.23557
	cltq
	movzbl	mode_size(%rax), %eax	# mode_size, D.23547
	cmpb	%al, %cl	# D.23547, D.23547
	jbe	.L472	#,
	.loc 1 1338 0
	movl	-128(%rbp), %eax	# i, tmp1141
	movslq	%eax, %rdx	# tmp1141, tmp1140
	movq	%rdx, %rax	# tmp1140, tmp1142
	addq	%rax, %rax	# tmp1142
	addq	%rdx, %rax	# tmp1140, tmp1142
	salq	$2, %rax	#, tmp1142
	addq	%rdx, %rax	# tmp1140, tmp1142
	salq	$3, %rax	#, tmp1143
	leaq	rld+16(%rax), %rdx	#, tmp1144
	movl	16(%rbp), %eax	# outmode, tmp1145
	movl	%eax, 8(%rdx)	# tmp1145, rld[i_683].outmode
.L472:
	.loc 1 1339 0
	movq	-152(%rbp), %rax	# in, in.339
	testq	%rax, %rax	# in.339
	je	.L473	#,
.LBB11:
	.loc 1 1341 0
	cmpq	$0, -168(%rbp)	#, inloc
	je	.L474	#,
	.loc 1 1341 0 is_stmt 0 discriminator 1
	movq	-168(%rbp), %rax	# inloc, tmp1146
	movq	(%rax), %rax	# *inloc_5, iftmp.340
	jmp	.L475	#
.L474:
	.loc 1 1341 0 discriminator 2
	movl	$0, %eax	#, iftmp.340
.L475:
	.loc 1 1341 0 discriminator 3
	movq	%rax, -48(%rbp)	# iftmp.340, in_reg
	.loc 1 1356 0 is_stmt 1 discriminator 3
	movl	-128(%rbp), %eax	# i, tmp1148
	movslq	%eax, %rdx	# tmp1148, tmp1147
	movq	%rdx, %rax	# tmp1147, tmp1149
	addq	%rax, %rax	# tmp1149
	addq	%rdx, %rax	# tmp1147, tmp1149
	salq	$2, %rax	#, tmp1149
	addq	%rdx, %rax	# tmp1147, tmp1149
	salq	$3, %rax	#, tmp1150
	addq	$rld, %rax	#, tmp1151
	movq	(%rax), %rdx	# rld[i_683].in, D.23554
	movq	-152(%rbp), %rax	# in, in.341
	cmpq	%rax, %rdx	# in.341, D.23554
	je	.L476	#,
	.loc 1 1356 0 is_stmt 0 discriminator 1
	movl	-128(%rbp), %eax	# i, tmp1153
	movslq	%eax, %rdx	# tmp1153, tmp1152
	movq	%rdx, %rax	# tmp1152, tmp1154
	addq	%rax, %rax	# tmp1154
	addq	%rdx, %rax	# tmp1152, tmp1154
	salq	$2, %rax	#, tmp1154
	addq	%rdx, %rax	# tmp1152, tmp1154
	salq	$3, %rax	#, tmp1155
	addq	$rld, %rax	#, tmp1156
	movq	(%rax), %rdx	# rld[i_683].in, D.23554
	movq	-152(%rbp), %rax	# in, in.342
	movq	%rdx, %rsi	# D.23554,
	movq	%rax, %rdi	# in.342,
	call	rtx_equal_p	#
	testl	%eax, %eax	# D.23555
	je	.L476	#,
	.loc 1 1357 0 is_stmt 1
	movl	-128(%rbp), %eax	# i, tmp1158
	movslq	%eax, %rdx	# tmp1158, tmp1157
	movq	%rdx, %rax	# tmp1157, tmp1159
	addq	%rax, %rax	# tmp1159
	addq	%rdx, %rax	# tmp1157, tmp1159
	salq	$2, %rax	#, tmp1159
	addq	%rdx, %rax	# tmp1157, tmp1159
	salq	$3, %rax	#, tmp1160
	addq	$rld+96, %rax	#, tmp1161
	movzbl	(%rax), %eax	#, tmp1164
	andl	$1, %eax	#, D.23559
	testb	%al, %al	# D.23559
	je	.L477	#,
	.loc 1 1357 0 is_stmt 0 discriminator 1
	cmpl	$0, 32(%rbp)	#, optional
	jne	.L476	#,
.L477:
	.loc 1 1361 0 is_stmt 1
	movl	-128(%rbp), %eax	# i, tmp1166
	movslq	%eax, %rdx	# tmp1166, tmp1165
	movq	%rdx, %rax	# tmp1165, tmp1167
	addq	%rax, %rax	# tmp1167
	addq	%rdx, %rax	# tmp1165, tmp1167
	salq	$2, %rax	#, tmp1167
	addq	%rdx, %rax	# tmp1165, tmp1167
	salq	$3, %rax	#, tmp1168
	addq	$rld+64, %rax	#, tmp1169
	movl	8(%rax), %eax	# rld[i_683].opnum, D.23555
	cmpl	40(%rbp), %eax	# opnum, D.23555
	jge	.L478	#,
	.loc 1 1363 0
	movq	-152(%rbp), %rax	# in, in.343
	movq	%rax, %rdi	# in.343,
	call	remove_address_replacements	#
	.loc 1 1364 0
	movl	-128(%rbp), %eax	# i, tmp1171
	movslq	%eax, %rdx	# tmp1171, tmp1170
	movq	%rdx, %rax	# tmp1170, tmp1172
	addq	%rax, %rax	# tmp1172
	addq	%rdx, %rax	# tmp1170, tmp1172
	salq	$2, %rax	#, tmp1172
	addq	%rdx, %rax	# tmp1170, tmp1172
	salq	$3, %rax	#, tmp1173
	addq	$rld, %rax	#, tmp1174
	movq	(%rax), %rax	# rld[i_683].in, in.344
	movq	%rax, -152(%rbp)	# in.344, in
	.loc 1 1365 0
	movl	-128(%rbp), %eax	# i, tmp1176
	movslq	%eax, %rdx	# tmp1176, tmp1175
	movq	%rdx, %rax	# tmp1175, tmp1177
	addq	%rax, %rax	# tmp1177
	addq	%rdx, %rax	# tmp1175, tmp1177
	salq	$2, %rax	#, tmp1177
	addq	%rdx, %rax	# tmp1175, tmp1177
	salq	$3, %rax	#, tmp1178
	addq	$rld+32, %rax	#, tmp1179
	movq	8(%rax), %rax	# rld[i_683].in_reg, tmp1180
	movq	%rax, -48(%rbp)	# tmp1180, in_reg
	jmp	.L476	#
.L478:
	.loc 1 1368 0
	movl	-128(%rbp), %eax	# i, tmp1182
	movslq	%eax, %rdx	# tmp1182, tmp1181
	movq	%rdx, %rax	# tmp1181, tmp1183
	addq	%rax, %rax	# tmp1183
	addq	%rdx, %rax	# tmp1181, tmp1183
	salq	$2, %rax	#, tmp1183
	addq	%rdx, %rax	# tmp1181, tmp1183
	salq	$3, %rax	#, tmp1184
	addq	$rld, %rax	#, tmp1185
	movq	(%rax), %rax	# rld[i_683].in, D.23554
	movq	%rax, %rdi	# D.23554,
	call	remove_address_replacements	#
.L476:
	.loc 1 1370 0
	movq	-152(%rbp), %rcx	# in, in.345
	movl	-128(%rbp), %eax	# i, tmp1187
	movslq	%eax, %rdx	# tmp1187, tmp1186
	movq	%rdx, %rax	# tmp1186, tmp1188
	addq	%rax, %rax	# tmp1188
	addq	%rdx, %rax	# tmp1186, tmp1188
	salq	$2, %rax	#, tmp1188
	addq	%rdx, %rax	# tmp1186, tmp1188
	salq	$3, %rax	#, tmp1189
	addq	$rld, %rax	#, tmp1190
	movq	%rcx, (%rax)	# in.345, rld[i_683].in
	.loc 1 1371 0
	movl	-128(%rbp), %eax	# i, tmp1192
	movslq	%eax, %rdx	# tmp1192, tmp1191
	movq	%rdx, %rax	# tmp1191, tmp1193
	addq	%rax, %rax	# tmp1193
	addq	%rdx, %rax	# tmp1191, tmp1193
	salq	$2, %rax	#, tmp1193
	addq	%rdx, %rax	# tmp1191, tmp1193
	salq	$3, %rax	#, tmp1194
	leaq	rld+32(%rax), %rdx	#, tmp1195
	movq	-48(%rbp), %rax	# in_reg, tmp1196
	movq	%rax, 8(%rdx)	# tmp1196, rld[i_683].in_reg
.L473:
.LBE11:
	.loc 1 1373 0
	cmpq	$0, -160(%rbp)	#, out
	je	.L479	#,
	.loc 1 1375 0
	movl	-128(%rbp), %eax	# i, tmp1198
	movslq	%eax, %rdx	# tmp1198, tmp1197
	movq	%rdx, %rax	# tmp1197, tmp1199
	addq	%rax, %rax	# tmp1199
	addq	%rdx, %rax	# tmp1197, tmp1199
	salq	$2, %rax	#, tmp1199
	addq	%rdx, %rax	# tmp1197, tmp1199
	salq	$3, %rax	#, tmp1200
	leaq	rld(%rax), %rdx	#, tmp1201
	movq	-160(%rbp), %rax	# out, tmp1202
	movq	%rax, 8(%rdx)	# tmp1202, rld[i_683].out
	.loc 1 1376 0
	cmpq	$0, -176(%rbp)	#, outloc
	je	.L480	#,
	.loc 1 1376 0 is_stmt 0 discriminator 1
	movq	-176(%rbp), %rax	# outloc, tmp1203
	movq	(%rax), %rcx	# *outloc_6, iftmp.346
	jmp	.L481	#
.L480:
	.loc 1 1376 0 discriminator 2
	movl	$0, %ecx	#, iftmp.346
.L481:
	.loc 1 1376 0 discriminator 3
	movl	-128(%rbp), %eax	# i, tmp1205
	movslq	%eax, %rdx	# tmp1205, tmp1204
	movq	%rdx, %rax	# tmp1204, tmp1206
	addq	%rax, %rax	# tmp1206
	addq	%rdx, %rax	# tmp1204, tmp1206
	salq	$2, %rax	#, tmp1206
	addq	%rdx, %rax	# tmp1204, tmp1206
	salq	$3, %rax	#, tmp1207
	addq	$rld+48, %rax	#, tmp1208
	movq	%rcx, (%rax)	# iftmp.346, rld[i_683].out_reg
.L479:
	.loc 1 1378 0 is_stmt 1
	movl	-128(%rbp), %eax	# i, tmp1210
	movslq	%eax, %rdx	# tmp1210, tmp1209
	movq	%rdx, %rax	# tmp1209, tmp1211
	addq	%rax, %rax	# tmp1211
	addq	%rdx, %rax	# tmp1209, tmp1211
	salq	$2, %rax	#, tmp1211
	addq	%rdx, %rax	# tmp1209, tmp1211
	salq	$3, %rax	#, tmp1212
	addq	$rld+16, %rax	#, tmp1213
	movl	(%rax), %edx	# rld[i_683].class, D.23558
	movl	-180(%rbp), %eax	# class, tmp1214
	movl	%edx, %esi	# D.23558,
	movl	%eax, %edi	# tmp1214,
	call	reg_class_subset_p	#
	testl	%eax, %eax	# D.23555
	je	.L482	#,
	.loc 1 1379 0
	movl	-128(%rbp), %eax	# i, tmp1216
	movslq	%eax, %rdx	# tmp1216, tmp1215
	movq	%rdx, %rax	# tmp1215, tmp1217
	addq	%rax, %rax	# tmp1217
	addq	%rdx, %rax	# tmp1215, tmp1217
	salq	$2, %rax	#, tmp1217
	addq	%rdx, %rax	# tmp1215, tmp1217
	salq	$3, %rax	#, tmp1218
	leaq	rld+16(%rax), %rdx	#, tmp1219
	movl	-180(%rbp), %eax	# class, tmp1220
	movl	%eax, (%rdx)	# tmp1220, rld[i_683].class
.L482:
	.loc 1 1380 0
	movl	-128(%rbp), %eax	# i, tmp1222
	movslq	%eax, %rdx	# tmp1222, tmp1221
	movq	%rdx, %rax	# tmp1221, tmp1223
	addq	%rax, %rax	# tmp1223
	addq	%rdx, %rax	# tmp1221, tmp1223
	salq	$2, %rax	#, tmp1223
	addq	%rdx, %rax	# tmp1221, tmp1223
	salq	$3, %rax	#, tmp1224
	addq	$rld+96, %rax	#, tmp1225
	movzbl	(%rax), %eax	#, tmp1228
	andl	$1, %eax	#, D.23559
	movl	%eax, %edx	# D.23559, D.23560
	movl	32(%rbp), %eax	# optional, tmp1229
	andl	%edx, %eax	# D.23560, D.23560
	andl	$1, %eax	#, D.23559
	movl	%eax, %ecx	# D.23559, D.23559
	movl	-128(%rbp), %eax	# i, tmp1231
	movslq	%eax, %rdx	# tmp1231, tmp1230
	movq	%rdx, %rax	# tmp1230, tmp1232
	addq	%rax, %rax	# tmp1232
	addq	%rdx, %rax	# tmp1230, tmp1232
	salq	$2, %rax	#, tmp1232
	addq	%rdx, %rax	# tmp1230, tmp1232
	salq	$3, %rax	#, tmp1233
	addq	$rld+96, %rax	#, tmp1234
	andl	$1, %ecx	#, tmp1236
	movzbl	(%rax), %edx	# rld[i_683].optional, tmp1237
	andl	$-2, %edx	#, tmp1238
	orl	%ecx, %edx	# tmp1236, tmp1239
	movb	%dl, (%rax)	# tmp1239, rld[i_683].optional
	.loc 1 1381 0
	movl	-128(%rbp), %eax	# i, tmp1241
	movslq	%eax, %rdx	# tmp1241, tmp1240
	movq	%rdx, %rax	# tmp1240, tmp1242
	addq	%rax, %rax	# tmp1242
	addq	%rdx, %rax	# tmp1240, tmp1242
	salq	$2, %rax	#, tmp1242
	addq	%rdx, %rax	# tmp1240, tmp1242
	salq	$3, %rax	#, tmp1243
	addq	$rld+80, %rax	#, tmp1244
	movl	12(%rax), %eax	# rld[i_683].when_needed, D.23561
	cmpl	48(%rbp), %eax	# type, D.23561
	jne	.L483	#,
	.loc 1 1381 0 is_stmt 0 discriminator 1
	movl	-128(%rbp), %eax	# i, tmp1246
	movslq	%eax, %rdx	# tmp1246, tmp1245
	movq	%rdx, %rax	# tmp1245, tmp1247
	addq	%rax, %rax	# tmp1247
	addq	%rdx, %rax	# tmp1245, tmp1247
	salq	$2, %rax	#, tmp1247
	addq	%rdx, %rax	# tmp1245, tmp1247
	salq	$3, %rax	#, tmp1248
	addq	$rld+64, %rax	#, tmp1249
	movl	8(%rax), %eax	# rld[i_683].opnum, D.23555
	cmpl	40(%rbp), %eax	# opnum, D.23555
	je	.L484	#,
	cmpl	$0, 48(%rbp)	#, type
	je	.L484	#,
	cmpl	$7, 48(%rbp)	#, type
	je	.L484	#,
	cmpl	$10, 48(%rbp)	#, type
	je	.L484	#,
.L483:
	.loc 1 1383 0 is_stmt 1
	movl	-128(%rbp), %eax	# i, tmp1251
	movslq	%eax, %rdx	# tmp1251, tmp1250
	movq	%rdx, %rax	# tmp1250, tmp1252
	addq	%rax, %rax	# tmp1252
	addq	%rdx, %rax	# tmp1250, tmp1252
	salq	$2, %rax	#, tmp1252
	addq	%rdx, %rax	# tmp1250, tmp1252
	salq	$3, %rax	#, tmp1253
	addq	$rld+80, %rax	#, tmp1254
	movl	$9, 12(%rax)	#, rld[i_683].when_needed
.L484:
	.loc 1 1384 0
	movl	-128(%rbp), %eax	# i, tmp1256
	movslq	%eax, %rdx	# tmp1256, tmp1255
	movq	%rdx, %rax	# tmp1255, tmp1257
	addq	%rax, %rax	# tmp1257
	addq	%rdx, %rax	# tmp1255, tmp1257
	salq	$2, %rax	#, tmp1257
	addq	%rdx, %rax	# tmp1255, tmp1257
	salq	$3, %rax	#, tmp1258
	addq	$rld+64, %rax	#, tmp1259
	movl	8(%rax), %edx	# rld[i_683].opnum, D.23555
	movl	40(%rbp), %eax	# opnum, tmp1260
	cmpl	%eax, %edx	# tmp1260, D.23555
	cmovle	%edx, %eax	# D.23555,, D.23555
	movl	%eax, %ecx	# D.23555, D.23555
	movl	-128(%rbp), %eax	# i, tmp1262
	movslq	%eax, %rdx	# tmp1262, tmp1261
	movq	%rdx, %rax	# tmp1261, tmp1263
	addq	%rax, %rax	# tmp1263
	addq	%rdx, %rax	# tmp1261, tmp1263
	salq	$2, %rax	#, tmp1263
	addq	%rdx, %rax	# tmp1261, tmp1263
	salq	$3, %rax	#, tmp1264
	addq	$rld+64, %rax	#, tmp1265
	movl	%ecx, 8(%rax)	# D.23555, rld[i_683].opnum
.L470:
	.loc 1 1391 0
	movq	-152(%rbp), %rax	# in, in.347
	testq	%rax, %rax	# in.347
	je	.L485	#,
	.loc 1 1391 0 is_stmt 0 discriminator 1
	movq	-168(%rbp), %rax	# inloc, tmp1266
	movq	(%rax), %rdx	# *inloc_5, D.23554
	movq	-152(%rbp), %rax	# in, in.348
	cmpq	%rax, %rdx	# in.348, D.23554
	je	.L485	#,
	.loc 1 1392 0 is_stmt 1
	movl	-128(%rbp), %eax	# i, tmp1268
	movslq	%eax, %rdx	# tmp1268, tmp1267
	movq	%rdx, %rax	# tmp1267, tmp1269
	addq	%rax, %rax	# tmp1269
	addq	%rdx, %rax	# tmp1267, tmp1269
	salq	$2, %rax	#, tmp1269
	addq	%rdx, %rax	# tmp1267, tmp1269
	salq	$3, %rax	#, tmp1270
	addq	$rld+96, %rax	#, tmp1271
	movzbl	(%rax), %edx	# rld[i_22].nocombine, tmp1274
	orl	$2, %edx	#, tmp1275
	movb	%dl, (%rax)	# tmp1275, rld[i_22].nocombine
.L485:
	.loc 1 1420 0
	movl	replace_reloads(%rip), %eax	# replace_reloads, replace_reloads.349
	testl	%eax, %eax	# replace_reloads.349
	je	.L486	#,
	.loc 1 1422 0
	cmpq	$0, -168(%rbp)	#, inloc
	je	.L487	#,
.LBB12:
	.loc 1 1424 0
	movl	n_replacements(%rip), %eax	# n_replacements, n_replacements.350
	leal	1(%rax), %edx	#, n_replacements.352
	movl	%edx, n_replacements(%rip)	# n_replacements.352, n_replacements
	movslq	%eax, %rdx	# n_replacements.351, tmp1276
	movq	%rdx, %rax	# tmp1276, tmp1277
	addq	%rax, %rax	# tmp1277
	addq	%rdx, %rax	# tmp1276, tmp1277
	salq	$3, %rax	#, tmp1278
	addq	$replacements, %rax	#, tmp1279
	movq	%rax, -32(%rbp)	# tmp1279, r
	.loc 1 1425 0
	movq	-32(%rbp), %rax	# r, tmp1280
	movl	-128(%rbp), %edx	# i, tmp1281
	movl	%edx, 16(%rax)	# tmp1281, r_760->what
	.loc 1 1426 0
	movq	-32(%rbp), %rax	# r, tmp1282
	movq	-64(%rbp), %rdx	# in_subreg_loc, tmp1283
	movq	%rdx, 8(%rax)	# tmp1283, r_760->subreg_loc
	.loc 1 1427 0
	movq	-32(%rbp), %rax	# r, tmp1284
	movq	-168(%rbp), %rdx	# inloc, tmp1285
	movq	%rdx, (%rax)	# tmp1285, r_760->where
	.loc 1 1428 0
	movq	-32(%rbp), %rax	# r, tmp1286
	movl	-184(%rbp), %edx	# inmode, tmp1287
	movl	%edx, 20(%rax)	# tmp1287, r_760->mode
.L487:
.LBE12:
	.loc 1 1430 0
	cmpq	$0, -176(%rbp)	#, outloc
	je	.L486	#,
	.loc 1 1430 0 is_stmt 0 discriminator 1
	movq	-176(%rbp), %rax	# outloc, tmp1288
	cmpq	-168(%rbp), %rax	# inloc, tmp1288
	je	.L486	#,
.LBB13:
	.loc 1 1432 0 is_stmt 1
	movl	n_replacements(%rip), %eax	# n_replacements, n_replacements.353
	leal	1(%rax), %edx	#, n_replacements.355
	movl	%edx, n_replacements(%rip)	# n_replacements.355, n_replacements
	movslq	%eax, %rdx	# n_replacements.354, tmp1289
	movq	%rdx, %rax	# tmp1289, tmp1290
	addq	%rax, %rax	# tmp1290
	addq	%rdx, %rax	# tmp1289, tmp1290
	salq	$3, %rax	#, tmp1291
	addq	$replacements, %rax	#, tmp1292
	movq	%rax, -24(%rbp)	# tmp1292, r
	.loc 1 1433 0
	movq	-24(%rbp), %rax	# r, tmp1293
	movl	-128(%rbp), %edx	# i, tmp1294
	movl	%edx, 16(%rax)	# tmp1294, r_764->what
	.loc 1 1434 0
	movq	-24(%rbp), %rax	# r, tmp1295
	movq	-176(%rbp), %rdx	# outloc, tmp1296
	movq	%rdx, (%rax)	# tmp1296, r_764->where
	.loc 1 1435 0
	movq	-24(%rbp), %rax	# r, tmp1297
	movq	-56(%rbp), %rdx	# out_subreg_loc, tmp1298
	movq	%rdx, 8(%rax)	# tmp1298, r_764->subreg_loc
	.loc 1 1436 0
	movq	-24(%rbp), %rax	# r, tmp1299
	movl	16(%rbp), %edx	# outmode, tmp1300
	movl	%edx, 20(%rax)	# tmp1300, r_764->mode
.L486:
.LBE13:
	.loc 1 1448 0
	movq	-152(%rbp), %rax	# in, in.356
	testq	%rax, %rax	# in.356
	je	.L488	#,
	.loc 1 1448 0 is_stmt 0 discriminator 1
	cmpq	$0, -160(%rbp)	#, out
	je	.L488	#,
	movq	-152(%rbp), %rax	# in, in.357
	cmpq	-160(%rbp), %rax	# out, in.357
	je	.L488	#,
	movl	-128(%rbp), %eax	# i, tmp1302
	movslq	%eax, %rdx	# tmp1302, tmp1301
	movq	%rdx, %rax	# tmp1301, tmp1303
	addq	%rax, %rax	# tmp1303
	addq	%rdx, %rax	# tmp1301, tmp1303
	salq	$2, %rax	#, tmp1303
	addq	%rdx, %rax	# tmp1301, tmp1303
	salq	$3, %rax	#, tmp1304
	addq	$rld+64, %rax	#, tmp1305
	movq	(%rax), %rax	# rld[i_22].reg_rtx, D.23554
	testq	%rax, %rax	# D.23554
	jne	.L488	#,
	.loc 1 1450 0 is_stmt 1
	movq	-160(%rbp), %rax	# out, tmp1306
	movq	%rax, %rdi	# tmp1306,
	call	earlyclobber_operand_p	#
	movl	%eax, %ecx	#, D.23555
	movl	-128(%rbp), %eax	# i, tmp1308
	movslq	%eax, %rdx	# tmp1308, tmp1307
	movq	%rdx, %rax	# tmp1307, tmp1309
	addq	%rax, %rax	# tmp1309
	addq	%rdx, %rax	# tmp1307, tmp1309
	salq	$2, %rax	#, tmp1309
	addq	%rdx, %rax	# tmp1307, tmp1309
	salq	$3, %rax	#, tmp1310
	addq	$rld+16, %rax	#, tmp1311
	movl	(%rax), %r8d	# rld[i_22].class, D.23558
	movq	-152(%rbp), %rax	# in, in.358
	movl	-184(%rbp), %r10d	# inmode, tmp1312
	movq	-176(%rbp), %rdi	# outloc, tmp1313
	movq	-168(%rbp), %rdx	# inloc, tmp1314
	movq	-160(%rbp), %rsi	# out, tmp1315
	movl	%ecx, 16(%rsp)	# D.23555,
	movl	-128(%rbp), %ecx	# i, tmp1316
	movl	%ecx, 8(%rsp)	# tmp1316,
	movl	%r8d, (%rsp)	# D.23558,
	movl	16(%rbp), %r9d	# outmode,
	movl	%r10d, %r8d	# tmp1312,
	movq	%rdi, %rcx	# tmp1313,
	movq	%rax, %rdi	# in.358,
	call	find_dummy_reload	#
	movq	%rax, %rcx	#, D.23554
	movl	-128(%rbp), %eax	# i, tmp1318
	movslq	%eax, %rdx	# tmp1318, tmp1317
	movq	%rdx, %rax	# tmp1317, tmp1319
	addq	%rax, %rax	# tmp1319
	addq	%rdx, %rax	# tmp1317, tmp1319
	salq	$2, %rax	#, tmp1319
	addq	%rdx, %rax	# tmp1317, tmp1319
	salq	$3, %rax	#, tmp1320
	addq	$rld+64, %rax	#, tmp1321
	movq	%rcx, (%rax)	# D.23554, rld[i_22].reg_rtx
	.loc 1 1459 0
	movl	-128(%rbp), %eax	# i, tmp1323
	movslq	%eax, %rdx	# tmp1323, tmp1322
	movq	%rdx, %rax	# tmp1322, tmp1324
	addq	%rax, %rax	# tmp1324
	addq	%rdx, %rax	# tmp1322, tmp1324
	salq	$2, %rax	#, tmp1324
	addq	%rdx, %rax	# tmp1322, tmp1324
	salq	$3, %rax	#, tmp1325
	addq	$rld+64, %rax	#, tmp1326
	movq	(%rax), %rax	# rld[i_22].reg_rtx, D.23554
	cmpq	-160(%rbp), %rax	# out, D.23554
	jne	.L488	#,
	.loc 1 1460 0
	movq	-152(%rbp), %rax	# in, in.359
	movzwl	(%rax), %eax	# in.359_773->code, D.23548
	cmpw	$61, %ax	#, D.23548
	je	.L489	#,
	.loc 1 1460 0 is_stmt 0 discriminator 1
	movq	-152(%rbp), %rax	# in, in.360
	movzwl	(%rax), %eax	# in.360_775->code, D.23548
	cmpw	$67, %ax	#, D.23548
	je	.L489	#,
	movq	-152(%rbp), %rax	# in, in.361
	movzwl	(%rax), %eax	# in.361_777->code, D.23548
	cmpw	$68, %ax	#, D.23548
	je	.L489	#,
	movq	-152(%rbp), %rax	# in, in.362
	movzwl	(%rax), %eax	# in.362_779->code, D.23548
	cmpw	$54, %ax	#, D.23548
	je	.L489	#,
	movq	-152(%rbp), %rax	# in, in.363
	movzwl	(%rax), %eax	# in.363_781->code, D.23548
	cmpw	$55, %ax	#, D.23548
	je	.L489	#,
	movq	-152(%rbp), %rax	# in, in.364
	movzwl	(%rax), %eax	# in.364_783->code, D.23548
	cmpw	$58, %ax	#, D.23548
	je	.L489	#,
	movq	-152(%rbp), %rax	# in, in.365
	movzwl	(%rax), %eax	# in.365_785->code, D.23548
	cmpw	$134, %ax	#, D.23548
	je	.L489	#,
	movq	-152(%rbp), %rax	# in, in.366
	movzwl	(%rax), %eax	# in.366_787->code, D.23548
	cmpw	$56, %ax	#, D.23548
	je	.L489	#,
	movq	-152(%rbp), %rax	# in, in.367
	movzwl	(%rax), %eax	# in.367_789->code, D.23548
	cmpw	$140, %ax	#, D.23548
	jne	.L488	#,
.L489:
	.loc 1 1461 0 is_stmt 1
	movq	static_reload_reg_p(%rip), %rdi	# static_reload_reg_p, static_reload_reg_p.368
	movq	-160(%rbp), %rax	# out, tmp1327
	movl	8(%rax), %eax	# out_4->fld[0].rtuint, D.23549
	movl	%eax, %edx	# D.23549, D.23555
	movq	this_insn(%rip), %rsi	# this_insn, this_insn.369
	movq	-152(%rbp), %rax	# in, in.370
	movl	-128(%rbp), %r8d	# i, tmp1328
	movl	-184(%rbp), %ecx	# inmode, tmp1329
	movl	%ecx, (%rsp)	# tmp1329,
	movl	%r8d, %r9d	# tmp1328,
	movq	%rdi, %r8	# static_reload_reg_p.368,
	movl	%edx, %ecx	# D.23555,
	movl	$0, %edx	#,
	movq	%rax, %rdi	# in.370,
	call	find_equiv_reg	#
	testq	%rax, %rax	# D.23554
	je	.L488	#,
	.loc 1 1463 0
	movl	-128(%rbp), %eax	# i, tmp1331
	movslq	%eax, %rdx	# tmp1331, tmp1330
	movq	%rdx, %rax	# tmp1330, tmp1332
	addq	%rax, %rax	# tmp1332
	addq	%rdx, %rax	# tmp1330, tmp1332
	salq	$2, %rax	#, tmp1332
	addq	%rdx, %rax	# tmp1330, tmp1332
	salq	$3, %rax	#, tmp1333
	leaq	rld(%rax), %rdx	#, tmp1334
	movq	-160(%rbp), %rax	# out, tmp1335
	movq	%rax, (%rdx)	# tmp1335, rld[i_22].in
.L488:
	.loc 1 1478 0
	movl	-128(%rbp), %eax	# i, tmp1337
	movslq	%eax, %rdx	# tmp1337, tmp1336
	movq	%rdx, %rax	# tmp1336, tmp1338
	addq	%rax, %rax	# tmp1338
	addq	%rdx, %rax	# tmp1336, tmp1338
	salq	$2, %rax	#, tmp1338
	addq	%rdx, %rax	# tmp1336, tmp1338
	salq	$3, %rax	#, tmp1339
	addq	$rld+64, %rax	#, tmp1340
	movq	(%rax), %rax	# rld[i_22].reg_rtx, D.23554
	testq	%rax, %rax	# D.23554
	jne	.L490	#,
	.loc 1 1478 0 is_stmt 0 discriminator 1
	movq	-152(%rbp), %rax	# in, in.371
	testq	%rax, %rax	# in.371
	je	.L490	#,
.LBB14:
	.loc 1 1482 0 is_stmt 1
	movl	-184(%rbp), %eax	# inmode, tmp1341
	movl	%eax, -100(%rbp)	# tmp1341, rel_mode
	.loc 1 1484 0
	cmpq	$0, -160(%rbp)	#, out
	je	.L491	#,
	.loc 1 1484 0 is_stmt 0 discriminator 1
	movl	16(%rbp), %eax	# outmode, outmode.372
	cltq
	movzbl	mode_size(%rax), %edx	# mode_size, D.23547
	movl	-184(%rbp), %eax	# inmode, inmode.373
	cltq
	movzbl	mode_size(%rax), %eax	# mode_size, D.23547
	cmpb	%al, %dl	# D.23547, D.23547
	jbe	.L491	#,
	.loc 1 1485 0 is_stmt 1
	movl	16(%rbp), %eax	# outmode, tmp1344
	movl	%eax, -100(%rbp)	# tmp1344, rel_mode
.L491:
	.loc 1 1487 0
	movq	this_insn(%rip), %rax	# this_insn, this_insn.374
	movq	56(%rax), %rax	# this_insn.374_805->fld[6].rtx, tmp1345
	movq	%rax, -40(%rbp)	# tmp1345, note
	jmp	.L492	#
.L591:
	.loc 1 1488 0
	movq	-40(%rbp), %rax	# note, tmp1346
	movzbl	2(%rax), %eax	# note_34->mode, D.23547
	cmpb	$1, %al	#, D.23547
	jne	.L493	#,
	.loc 1 1489 0
	movq	-40(%rbp), %rax	# note, tmp1347
	movq	8(%rax), %rax	# note_34->fld[0].rtx, D.23554
	movzwl	(%rax), %eax	# _808->code, D.23548
	cmpw	$61, %ax	#, D.23548
	jne	.L493	#,
	.loc 1 1490 0
	movq	-40(%rbp), %rax	# note, tmp1348
	movq	8(%rax), %rax	# note_34->fld[0].rtx, D.23554
	movl	8(%rax), %eax	# _810->fld[0].rtuint, D.23549
	movl	%eax, -72(%rbp)	# D.23549, regno
	cmpl	$52, -72(%rbp)	#, regno
	jg	.L493	#,
	.loc 1 1491 0
	movq	-152(%rbp), %rdx	# in, in.375
	movq	-40(%rbp), %rax	# note, tmp1349
	movq	8(%rax), %rax	# note_34->fld[0].rtx, D.23554
	movq	%rdx, %rsi	# in.375,
	movq	%rax, %rdi	# D.23554,
	call	reg_mentioned_p	#
	testl	%eax, %eax	# D.23555
	je	.L493	#,
	.loc 1 1496 0
	movq	this_insn(%rip), %rax	# this_insn, this_insn.376
	.loc 1 1492 0
	movq	32(%rax), %rdi	# this_insn.376_816->fld[3].rtx, D.23554
	.loc 1 1494 0
	cmpl	$7, -72(%rbp)	#, regno
	jle	.L494	#,
	.loc 1 1494 0 is_stmt 0 discriminator 1
	cmpl	$15, -72(%rbp)	#, regno
	jle	.L495	#,
.L494:
	.loc 1 1494 0 discriminator 2
	cmpl	$20, -72(%rbp)	#, regno
	jle	.L496	#,
	.loc 1 1494 0 discriminator 1
	cmpl	$28, -72(%rbp)	#, regno
	jle	.L495	#,
.L496:
	.loc 1 1494 0 discriminator 2
	cmpl	$44, -72(%rbp)	#, regno
	jle	.L497	#,
	.loc 1 1494 0 discriminator 1
	cmpl	$52, -72(%rbp)	#, regno
	jle	.L495	#,
.L497:
	.loc 1 1494 0 discriminator 2
	cmpl	$28, -72(%rbp)	#, regno
	jle	.L498	#,
	.loc 1 1494 0 discriminator 1
	cmpl	$36, -72(%rbp)	#, regno
	jg	.L498	#,
.L495:
	movl	-100(%rbp), %eax	# rel_mode, rel_mode.379
	cltq
	movl	mode_class(,%rax,4), %eax	# mode_class, D.23556
	cmpl	$5, %eax	#, D.23556
	je	.L499	#,
	.loc 1 1494 0 discriminator 2
	movl	-100(%rbp), %eax	# rel_mode, rel_mode.380
	cltq
	movl	mode_class(,%rax,4), %eax	# mode_class, D.23556
	cmpl	$6, %eax	#, D.23556
	jne	.L500	#,
.L499:
	.loc 1 1494 0 discriminator 1
	movl	$2, %eax	#, iftmp.378
	jmp	.L501	#
.L500:
	movl	$1, %eax	#, iftmp.378
.L501:
	.loc 1 1494 0 discriminator 3
	jmp	.L502	#
.L498:
	.loc 1 1494 0 discriminator 2
	cmpl	$18, -100(%rbp)	#, rel_mode
	jne	.L503	#,
	.loc 1 1494 0 discriminator 1
	movl	target_flags(%rip), %eax	# target_flags, target_flags.383
	andl	$33554432, %eax	#, D.23555
	testl	%eax, %eax	# D.23555
	je	.L504	#,
	movl	$2, %eax	#, iftmp.382
	jmp	.L502	#
.L504:
	.loc 1 1494 0 discriminator 2
	movl	$3, %eax	#, iftmp.382
	jmp	.L502	#
.L503:
	cmpl	$24, -100(%rbp)	#, rel_mode
	jne	.L507	#,
	.loc 1 1494 0 discriminator 1
	movl	target_flags(%rip), %eax	# target_flags, target_flags.386
	andl	$33554432, %eax	#, D.23555
	testl	%eax, %eax	# D.23555
	je	.L508	#,
	movl	$4, %eax	#, iftmp.385
	jmp	.L502	#
.L508:
	.loc 1 1494 0 discriminator 2
	movl	$6, %eax	#, iftmp.385
	jmp	.L502	#
.L507:
	movl	-100(%rbp), %eax	# rel_mode, rel_mode.387
	cltq
	movzbl	mode_size(%rax), %eax	# mode_size, D.23547
	movzbl	%al, %edx	# D.23547, D.23555
	movl	target_flags(%rip), %eax	# target_flags, target_flags.389
	andl	$33554432, %eax	#, D.23555
	testl	%eax, %eax	# D.23555
	je	.L511	#,
	.loc 1 1494 0 discriminator 1
	movl	$8, %eax	#, iftmp.388
	jmp	.L512	#
.L511:
	.loc 1 1494 0 discriminator 2
	movl	$4, %eax	#, iftmp.388
.L512:
	.loc 1 1494 0 discriminator 3
	addl	%edx, %eax	# D.23555, D.23555
	subl	$1, %eax	#, D.23555
	movl	target_flags(%rip), %edx	# target_flags, target_flags.391
	andl	$33554432, %edx	#, D.23555
	testl	%edx, %edx	# D.23555
	je	.L513	#,
	.loc 1 1494 0 discriminator 1
	movl	$8, %ebx	#, iftmp.390
	jmp	.L514	#
.L513:
	.loc 1 1494 0 discriminator 2
	movl	$4, %ebx	#, iftmp.390
.L514:
	.loc 1 1494 0 discriminator 3
	cltd
	idivl	%ebx	# iftmp.390
.L502:
	movl	-72(%rbp), %edx	# regno, tmp1355
	addl	%edx, %eax	# tmp1355, D.23555
	.loc 1 1492 0 is_stmt 1 discriminator 3
	movl	%eax, %esi	# D.23555, D.23549
	movl	-72(%rbp), %eax	# regno, regno.392
	movq	-168(%rbp), %rdx	# inloc, tmp1356
	movq	%rdx, %rcx	# tmp1356,
	movq	%rdi, %rdx	# D.23554,
	movl	%eax, %edi	# regno.392,
	call	refers_to_regno_for_reload_p	#
	testl	%eax, %eax	# D.23555
	jne	.L493	#,
	.loc 1 1500 0
	cmpq	$0, -160(%rbp)	#, out
	je	.L515	#,
	.loc 1 1500 0 is_stmt 0 discriminator 1
	movq	-152(%rbp), %rax	# in, in.393
	cmpq	-160(%rbp), %rax	# out, in.393
	je	.L515	#,
	.loc 1 1505 0 is_stmt 1
	movq	this_insn(%rip), %rax	# this_insn, this_insn.394
	.loc 1 1501 0
	movq	32(%rax), %rsi	# this_insn.394_856->fld[3].rtx, D.23554
	.loc 1 1503 0
	cmpl	$7, -72(%rbp)	#, regno
	jle	.L516	#,
	.loc 1 1503 0 is_stmt 0 discriminator 1
	cmpl	$15, -72(%rbp)	#, regno
	jle	.L517	#,
.L516:
	.loc 1 1503 0 discriminator 2
	cmpl	$20, -72(%rbp)	#, regno
	jle	.L518	#,
	.loc 1 1503 0 discriminator 1
	cmpl	$28, -72(%rbp)	#, regno
	jle	.L517	#,
.L518:
	.loc 1 1503 0 discriminator 2
	cmpl	$44, -72(%rbp)	#, regno
	jle	.L519	#,
	.loc 1 1503 0 discriminator 1
	cmpl	$52, -72(%rbp)	#, regno
	jle	.L517	#,
.L519:
	.loc 1 1503 0 discriminator 2
	cmpl	$28, -72(%rbp)	#, regno
	jle	.L520	#,
	.loc 1 1503 0 discriminator 1
	cmpl	$36, -72(%rbp)	#, regno
	jg	.L520	#,
.L517:
	movl	-100(%rbp), %eax	# rel_mode, rel_mode.397
	cltq
	movl	mode_class(,%rax,4), %eax	# mode_class, D.23556
	cmpl	$5, %eax	#, D.23556
	je	.L521	#,
	.loc 1 1503 0 discriminator 2
	movl	-100(%rbp), %eax	# rel_mode, rel_mode.398
	cltq
	movl	mode_class(,%rax,4), %eax	# mode_class, D.23556
	cmpl	$6, %eax	#, D.23556
	jne	.L522	#,
.L521:
	.loc 1 1503 0 discriminator 1
	movl	$2, %eax	#, iftmp.396
	jmp	.L523	#
.L522:
	movl	$1, %eax	#, iftmp.396
.L523:
	.loc 1 1503 0 discriminator 3
	jmp	.L524	#
.L520:
	.loc 1 1503 0 discriminator 2
	cmpl	$18, -100(%rbp)	#, rel_mode
	jne	.L525	#,
	.loc 1 1503 0 discriminator 1
	movl	target_flags(%rip), %eax	# target_flags, target_flags.401
	andl	$33554432, %eax	#, D.23555
	testl	%eax, %eax	# D.23555
	je	.L526	#,
	movl	$2, %eax	#, iftmp.400
	jmp	.L524	#
.L526:
	.loc 1 1503 0 discriminator 2
	movl	$3, %eax	#, iftmp.400
	jmp	.L524	#
.L525:
	cmpl	$24, -100(%rbp)	#, rel_mode
	jne	.L529	#,
	.loc 1 1503 0 discriminator 1
	movl	target_flags(%rip), %eax	# target_flags, target_flags.404
	andl	$33554432, %eax	#, D.23555
	testl	%eax, %eax	# D.23555
	je	.L530	#,
	movl	$4, %eax	#, iftmp.403
	jmp	.L524	#
.L530:
	.loc 1 1503 0 discriminator 2
	movl	$6, %eax	#, iftmp.403
	jmp	.L524	#
.L529:
	movl	-100(%rbp), %eax	# rel_mode, rel_mode.405
	cltq
	movzbl	mode_size(%rax), %eax	# mode_size, D.23547
	movzbl	%al, %edx	# D.23547, D.23555
	movl	target_flags(%rip), %eax	# target_flags, target_flags.407
	andl	$33554432, %eax	#, D.23555
	testl	%eax, %eax	# D.23555
	je	.L533	#,
	.loc 1 1503 0 discriminator 1
	movl	$8, %eax	#, iftmp.406
	jmp	.L534	#
.L533:
	.loc 1 1503 0 discriminator 2
	movl	$4, %eax	#, iftmp.406
.L534:
	.loc 1 1503 0 discriminator 3
	addl	%edx, %eax	# D.23555, D.23555
	subl	$1, %eax	#, D.23555
	movl	target_flags(%rip), %edx	# target_flags, target_flags.409
	andl	$33554432, %edx	#, D.23555
	testl	%edx, %edx	# D.23555
	je	.L535	#,
	.loc 1 1503 0 discriminator 1
	movl	$8, %ebx	#, iftmp.408
	jmp	.L536	#
.L535:
	.loc 1 1503 0 discriminator 2
	movl	$4, %ebx	#, iftmp.408
.L536:
	.loc 1 1503 0 discriminator 3
	cltd
	idivl	%ebx	# iftmp.408
.L524:
	movl	-72(%rbp), %edx	# regno, tmp1362
	addl	%edx, %eax	# tmp1362, D.23555
	.loc 1 1501 0 is_stmt 1 discriminator 3
	movl	%eax, %ecx	# D.23555, D.23549
	movl	-72(%rbp), %eax	# regno, regno.410
	movq	%rsi, %rdx	# D.23554,
	movl	%ecx, %esi	# D.23549,
	movl	%eax, %edi	# regno.410,
	call	hard_reg_set_here_p	#
	testl	%eax, %eax	# D.23555
	jne	.L493	#,
.L515:
	.loc 1 1509 0
	movq	-152(%rbp), %rax	# in, in.411
	cmpq	-160(%rbp), %rax	# out, in.411
	jne	.L537	#,
	.loc 1 1510 0
	movq	-152(%rbp), %rax	# in, in.412
	movzwl	(%rax), %eax	# in.412_896->code, D.23548
	cmpw	$63, %ax	#, D.23548
	jne	.L493	#,
	.loc 1 1511 0
	movq	-152(%rbp), %rax	# in, in.413
	movzbl	2(%rax), %eax	# in.413_898->mode, D.23547
	movzbl	%al, %eax	# D.23547, D.23555
	cltq
	movzbl	mode_size(%rax), %eax	# mode_size, D.23547
	movzbl	%al, %edx	# D.23547, D.23555
	movl	target_flags(%rip), %eax	# target_flags, target_flags.415
	andl	$33554432, %eax	#, D.23555
	testl	%eax, %eax	# D.23555
	je	.L538	#,
	.loc 1 1511 0 is_stmt 0 discriminator 1
	movl	$7, %eax	#, iftmp.414
	jmp	.L539	#
.L538:
	.loc 1 1511 0 discriminator 2
	movl	$3, %eax	#, iftmp.414
.L539:
	.loc 1 1511 0 discriminator 3
	addl	%edx, %eax	# D.23555, D.23555
	.loc 1 1512 0 is_stmt 1 discriminator 3
	movl	target_flags(%rip), %edx	# target_flags, target_flags.417
	andl	$33554432, %edx	#, D.23555
	testl	%edx, %edx	# D.23555
	je	.L540	#,
	.loc 1 1512 0 is_stmt 0 discriminator 1
	movl	$8, %ebx	#, iftmp.416
	jmp	.L541	#
.L540:
	.loc 1 1512 0 discriminator 2
	movl	$4, %ebx	#, iftmp.416
.L541:
	.loc 1 1512 0 discriminator 3
	cltd
	idivl	%ebx	# iftmp.416
	movl	%eax, %ecx	# tmp1364, D.23555
	.loc 1 1513 0 is_stmt 1 discriminator 3
	movq	-152(%rbp), %rax	# in, in.418
	movq	8(%rax), %rax	# in.418_913->fld[0].rtx, D.23554
	movzbl	2(%rax), %eax	# _914->mode, D.23547
	movzbl	%al, %eax	# D.23547, D.23555
	cltq
	movzbl	mode_size(%rax), %eax	# mode_size, D.23547
	.loc 1 1514 0 discriminator 3
	movzbl	%al, %edx	# D.23547, D.23555
	movl	target_flags(%rip), %eax	# target_flags, target_flags.420
	andl	$33554432, %eax	#, D.23555
	testl	%eax, %eax	# D.23555
	je	.L542	#,
	.loc 1 1514 0 is_stmt 0 discriminator 1
	movl	$7, %eax	#, iftmp.419
	jmp	.L543	#
.L542:
	.loc 1 1514 0 discriminator 2
	movl	$3, %eax	#, iftmp.419
.L543:
	.loc 1 1514 0 discriminator 3
	addl	%edx, %eax	# D.23555, D.23555
	movl	target_flags(%rip), %edx	# target_flags, target_flags.422
	andl	$33554432, %edx	#, D.23555
	testl	%edx, %edx	# D.23555
	je	.L544	#,
	.loc 1 1514 0 discriminator 1
	movl	$8, %ebx	#, iftmp.421
	jmp	.L545	#
.L544:
	.loc 1 1514 0 discriminator 2
	movl	$4, %ebx	#, iftmp.421
.L545:
	.loc 1 1514 0 discriminator 3
	cltd
	idivl	%ebx	# iftmp.421
	.loc 1 1511 0 is_stmt 1 discriminator 3
	cmpl	%eax, %ecx	# D.23555, D.23555
	jne	.L493	#,
.L537:
	.loc 1 1516 0
	movl	-100(%rbp), %eax	# rel_mode, rel_mode.423
	cltq
	movzbl	mode_size(%rax), %edx	# mode_size, D.23547
	.loc 1 1517 0
	movq	-40(%rbp), %rax	# note, tmp1370
	movq	8(%rax), %rax	# note_34->fld[0].rtx, D.23554
	movzbl	2(%rax), %eax	# _931->mode, D.23547
	movzbl	%al, %eax	# D.23547, D.23555
	cltq
	movzbl	mode_size(%rax), %eax	# mode_size, D.23547
	.loc 1 1516 0
	cmpb	%al, %dl	# D.23547, D.23547
	ja	.L493	#,
	.loc 1 1518 0
	movl	-184(%rbp), %edx	# inmode, tmp1372
	movl	-72(%rbp), %eax	# regno, tmp1373
	movl	%edx, %esi	# tmp1372,
	movl	%eax, %edi	# tmp1373,
	call	ix86_hard_regno_mode_ok	#
	testl	%eax, %eax	# D.23555
	je	.L493	#,
	.loc 1 1519 0
	movl	-72(%rbp), %eax	# regno, tmp1374
	movl	16(%rbp), %esi	# outmode,
	movl	%eax, %edi	# tmp1374,
	call	ix86_hard_regno_mode_ok	#
	testl	%eax, %eax	# D.23555
	je	.L493	#,
.LBB15:
	.loc 1 1522 0
	cmpl	$7, -72(%rbp)	#, regno
	jle	.L546	#,
	.loc 1 1522 0 is_stmt 0 discriminator 1
	cmpl	$15, -72(%rbp)	#, regno
	jle	.L547	#,
.L546:
	.loc 1 1522 0 discriminator 2
	cmpl	$20, -72(%rbp)	#, regno
	jle	.L548	#,
	.loc 1 1522 0 discriminator 1
	cmpl	$28, -72(%rbp)	#, regno
	jle	.L547	#,
.L548:
	.loc 1 1522 0 discriminator 2
	cmpl	$44, -72(%rbp)	#, regno
	jle	.L549	#,
	.loc 1 1522 0 discriminator 1
	cmpl	$52, -72(%rbp)	#, regno
	jle	.L547	#,
.L549:
	.loc 1 1522 0 discriminator 2
	cmpl	$28, -72(%rbp)	#, regno
	jle	.L550	#,
	.loc 1 1522 0 discriminator 1
	cmpl	$36, -72(%rbp)	#, regno
	jg	.L550	#,
.L547:
	movl	16(%rbp), %eax	# outmode, outmode.426
	cltq
	movl	mode_class(,%rax,4), %eax	# mode_class, D.23556
	cmpl	$5, %eax	#, D.23556
	je	.L551	#,
	.loc 1 1522 0 discriminator 2
	movl	16(%rbp), %eax	# outmode, outmode.427
	cltq
	movl	mode_class(,%rax,4), %eax	# mode_class, D.23556
	cmpl	$6, %eax	#, D.23556
	jne	.L552	#,
.L551:
	.loc 1 1522 0 discriminator 1
	movl	$2, %eax	#, iftmp.425
	jmp	.L553	#
.L552:
	movl	$1, %eax	#, iftmp.425
.L553:
	.loc 1 1522 0 discriminator 3
	movl	%eax, %ecx	# iftmp.425, iftmp.424
	jmp	.L554	#
.L550:
	.loc 1 1522 0 discriminator 2
	cmpl	$18, 16(%rbp)	#, outmode
	jne	.L555	#,
	.loc 1 1522 0 discriminator 1
	movl	target_flags(%rip), %eax	# target_flags, target_flags.430
	andl	$33554432, %eax	#, D.23555
	testl	%eax, %eax	# D.23555
	je	.L556	#,
	movl	$2, %eax	#, iftmp.429
	jmp	.L558	#
.L556:
	.loc 1 1522 0 discriminator 2
	movl	$3, %eax	#, iftmp.429
	jmp	.L558	#
.L555:
	cmpl	$24, 16(%rbp)	#, outmode
	jne	.L559	#,
	.loc 1 1522 0 discriminator 1
	movl	target_flags(%rip), %eax	# target_flags, target_flags.433
	andl	$33554432, %eax	#, D.23555
	testl	%eax, %eax	# D.23555
	je	.L560	#,
	movl	$4, %eax	#, iftmp.432
	jmp	.L558	#
.L560:
	.loc 1 1522 0 discriminator 2
	movl	$6, %eax	#, iftmp.432
	jmp	.L558	#
.L559:
	movl	16(%rbp), %eax	# outmode, outmode.434
	cltq
	movzbl	mode_size(%rax), %eax	# mode_size, D.23547
	movzbl	%al, %edx	# D.23547, D.23555
	movl	target_flags(%rip), %eax	# target_flags, target_flags.436
	andl	$33554432, %eax	#, D.23555
	testl	%eax, %eax	# D.23555
	je	.L563	#,
	.loc 1 1522 0 discriminator 1
	movl	$8, %eax	#, iftmp.435
	jmp	.L564	#
.L563:
	.loc 1 1522 0 discriminator 2
	movl	$4, %eax	#, iftmp.435
.L564:
	.loc 1 1522 0 discriminator 3
	addl	%edx, %eax	# D.23555, D.23555
	subl	$1, %eax	#, D.23555
	movl	target_flags(%rip), %edx	# target_flags, target_flags.438
	andl	$33554432, %edx	#, D.23555
	testl	%edx, %edx	# D.23555
	je	.L565	#,
	.loc 1 1522 0 discriminator 1
	movl	$8, %ebx	#, iftmp.437
	jmp	.L566	#
.L565:
	.loc 1 1522 0 discriminator 2
	movl	$4, %ebx	#, iftmp.437
.L566:
	.loc 1 1522 0 discriminator 3
	cltd
	idivl	%ebx	# iftmp.437
.L558:
	movl	%eax, %ecx	# iftmp.428, iftmp.424
.L554:
	cmpl	$7, -72(%rbp)	#, regno
	jle	.L567	#,
	.loc 1 1522 0 discriminator 1
	cmpl	$15, -72(%rbp)	#, regno
	jle	.L568	#,
.L567:
	.loc 1 1522 0 discriminator 2
	cmpl	$20, -72(%rbp)	#, regno
	jle	.L569	#,
	.loc 1 1522 0 discriminator 1
	cmpl	$28, -72(%rbp)	#, regno
	jle	.L568	#,
.L569:
	.loc 1 1522 0 discriminator 2
	cmpl	$44, -72(%rbp)	#, regno
	jle	.L570	#,
	.loc 1 1522 0 discriminator 1
	cmpl	$52, -72(%rbp)	#, regno
	jle	.L568	#,
.L570:
	.loc 1 1522 0 discriminator 2
	cmpl	$28, -72(%rbp)	#, regno
	jle	.L571	#,
	.loc 1 1522 0 discriminator 1
	cmpl	$36, -72(%rbp)	#, regno
	jg	.L571	#,
.L568:
	movl	-184(%rbp), %eax	# inmode, inmode.441
	cltq
	movl	mode_class(,%rax,4), %eax	# mode_class, D.23556
	cmpl	$5, %eax	#, D.23556
	je	.L572	#,
	.loc 1 1522 0 discriminator 2
	movl	-184(%rbp), %eax	# inmode, inmode.442
	cltq
	movl	mode_class(,%rax,4), %eax	# mode_class, D.23556
	cmpl	$6, %eax	#, D.23556
	jne	.L573	#,
.L572:
	.loc 1 1522 0 discriminator 1
	movl	$2, %eax	#, iftmp.440
	jmp	.L574	#
.L573:
	movl	$1, %eax	#, iftmp.440
.L574:
	.loc 1 1522 0 discriminator 3
	jmp	.L575	#
.L571:
	.loc 1 1522 0 discriminator 2
	cmpl	$18, -184(%rbp)	#, inmode
	jne	.L576	#,
	.loc 1 1522 0 discriminator 1
	movl	target_flags(%rip), %eax	# target_flags, target_flags.445
	andl	$33554432, %eax	#, D.23555
	testl	%eax, %eax	# D.23555
	je	.L577	#,
	movl	$2, %eax	#, iftmp.444
	jmp	.L575	#
.L577:
	.loc 1 1522 0 discriminator 2
	movl	$3, %eax	#, iftmp.444
	jmp	.L575	#
.L576:
	cmpl	$24, -184(%rbp)	#, inmode
	jne	.L580	#,
	.loc 1 1522 0 discriminator 1
	movl	target_flags(%rip), %eax	# target_flags, target_flags.448
	andl	$33554432, %eax	#, D.23555
	testl	%eax, %eax	# D.23555
	je	.L581	#,
	movl	$4, %eax	#, iftmp.447
	jmp	.L575	#
.L581:
	.loc 1 1522 0 discriminator 2
	movl	$6, %eax	#, iftmp.447
	jmp	.L575	#
.L580:
	movl	-184(%rbp), %eax	# inmode, inmode.449
	cltq
	movzbl	mode_size(%rax), %eax	# mode_size, D.23547
	movzbl	%al, %edx	# D.23547, D.23555
	movl	target_flags(%rip), %eax	# target_flags, target_flags.451
	andl	$33554432, %eax	#, D.23555
	testl	%eax, %eax	# D.23555
	je	.L584	#,
	.loc 1 1522 0 discriminator 1
	movl	$8, %eax	#, iftmp.450
	jmp	.L585	#
.L584:
	.loc 1 1522 0 discriminator 2
	movl	$4, %eax	#, iftmp.450
.L585:
	.loc 1 1522 0 discriminator 3
	addl	%edx, %eax	# D.23555, D.23555
	subl	$1, %eax	#, D.23555
	movl	target_flags(%rip), %edx	# target_flags, target_flags.453
	andl	$33554432, %edx	#, D.23555
	testl	%edx, %edx	# D.23555
	je	.L586	#,
	.loc 1 1522 0 discriminator 1
	movl	$8, %ebx	#, iftmp.452
	jmp	.L587	#
.L586:
	.loc 1 1522 0 discriminator 2
	movl	$4, %ebx	#, iftmp.452
.L587:
	.loc 1 1522 0 discriminator 3
	cltd
	idivl	%ebx	# iftmp.452
.L575:
	cmpl	%eax, %ecx	# iftmp.439, iftmp.424
	cmovge	%ecx, %eax	# iftmp.424,, D.23555
	movl	%eax, -68(%rbp)	# D.23555, nregs
	.loc 1 1525 0 is_stmt 1 discriminator 3
	movl	$0, -96(%rbp)	#, offs
	jmp	.L588	#
.L590:
	.loc 1 1526 0
	movl	-72(%rbp), %edx	# regno, regno.454
	movl	-96(%rbp), %eax	# offs, tmp1385
	addl	%edx, %eax	# regno.454, D.23549
	movl	%eax, %eax	# D.23549, tmp1386
	movzbl	fixed_regs(%rax), %eax	# fixed_regs, D.23562
	testb	%al, %al	# D.23562
	jne	.L589	#,
	.loc 1 1527 0
	movl	-180(%rbp), %eax	# class, class.455
	cltq
	movq	reg_class_contents(,%rax,8), %rdx	# reg_class_contents, D.23550
	movl	-72(%rbp), %ecx	# regno, regno.456
	movl	-96(%rbp), %eax	# offs, tmp1388
	addl	%ecx, %eax	# regno.456, D.23549
	movl	%eax, %ecx	# D.23555, tmp1421
	shrq	%cl, %rdx	# tmp1421, D.23550
	movq	%rdx, %rax	# D.23550, D.23550
	andl	$1, %eax	#, D.23550
	testq	%rax, %rax	# D.23550
	je	.L589	#,
	.loc 1 1525 0
	addl	$1, -96(%rbp)	#, offs
.L588:
	.loc 1 1525 0 is_stmt 0 discriminator 1
	movl	-96(%rbp), %eax	# offs, tmp1389
	cmpl	-68(%rbp), %eax	# nregs, tmp1389
	jb	.L590	#,
.L589:
	.loc 1 1531 0 is_stmt 1
	movl	-96(%rbp), %eax	# offs, tmp1390
	cmpl	-68(%rbp), %eax	# nregs, tmp1390
	jne	.L493	#,
	.loc 1 1533 0
	movl	-72(%rbp), %edx	# regno, tmp1391
	movl	-100(%rbp), %eax	# rel_mode, tmp1392
	movl	%edx, %esi	# tmp1391,
	movl	%eax, %edi	# tmp1392,
	call	gen_rtx_REG	#
	movq	%rax, %rcx	#, D.23554
	movl	-128(%rbp), %eax	# i, tmp1394
	movslq	%eax, %rdx	# tmp1394, tmp1393
	movq	%rdx, %rax	# tmp1393, tmp1395
	addq	%rax, %rax	# tmp1395
	addq	%rdx, %rax	# tmp1393, tmp1395
	salq	$2, %rax	#, tmp1395
	addq	%rdx, %rax	# tmp1393, tmp1395
	salq	$3, %rax	#, tmp1396
	addq	$rld+64, %rax	#, tmp1397
	movq	%rcx, (%rax)	# D.23554, rld[i_22].reg_rtx
	.loc 1 1534 0
	jmp	.L490	#
.L493:
.LBE15:
	.loc 1 1487 0
	movq	-40(%rbp), %rax	# note, tmp1398
	movq	16(%rax), %rax	# note_34->fld[1].rtx, tmp1399
	movq	%rax, -40(%rbp)	# tmp1399, note
.L492:
	.loc 1 1487 0 is_stmt 0 discriminator 1
	cmpq	$0, -40(%rbp)	#, note
	jne	.L591	#,
.L490:
.LBE14:
	.loc 1 1539 0 is_stmt 1
	cmpq	$0, -160(%rbp)	#, out
	je	.L592	#,
	.loc 1 1540 0
	movl	-128(%rbp), %eax	# i, tmp1400
	movl	%eax, output_reloadnum(%rip)	# tmp1400, output_reloadnum
.L592:
	.loc 1 1542 0
	movl	-128(%rbp), %eax	# i, D.23555
	.loc 1 1543 0
	addq	$216, %rsp	#,
	popq	%rbx	#
	popq	%rbp	#
	.cfi_def_cfa 7, 8
	ret
	.cfi_endproc
.LFE8:
	.size	push_reload, .-push_reload
	.type	push_replacement, @function
push_replacement:
.LFB9:
	.loc 1 1556 0
	.cfi_startproc
	pushq	%rbp	#
	.cfi_def_cfa_offset 16
	.cfi_offset 6, -16
	movq	%rsp, %rbp	#,
	.cfi_def_cfa_register 6
	movq	%rdi, -24(%rbp)	# loc, loc
	movl	%esi, -28(%rbp)	# reloadnum, reloadnum
	movl	%edx, -32(%rbp)	# mode, mode
	.loc 1 1557 0
	movl	replace_reloads(%rip), %eax	# replace_reloads, replace_reloads.457
	testl	%eax, %eax	# replace_reloads.457
	je	.L595	#,
.LBB16:
	.loc 1 1559 0
	movl	n_replacements(%rip), %eax	# n_replacements, n_replacements.458
	leal	1(%rax), %edx	#, n_replacements.460
	movl	%edx, n_replacements(%rip)	# n_replacements.460, n_replacements
	movslq	%eax, %rdx	# n_replacements.459, tmp63
	movq	%rdx, %rax	# tmp63, tmp64
	addq	%rax, %rax	# tmp64
	addq	%rdx, %rax	# tmp63, tmp64
	salq	$3, %rax	#, tmp65
	addq	$replacements, %rax	#, tmp66
	movq	%rax, -8(%rbp)	# tmp66, r
	.loc 1 1560 0
	movq	-8(%rbp), %rax	# r, tmp67
	movl	-28(%rbp), %edx	# reloadnum, tmp68
	movl	%edx, 16(%rax)	# tmp68, r_5->what
	.loc 1 1561 0
	movq	-8(%rbp), %rax	# r, tmp69
	movq	-24(%rbp), %rdx	# loc, tmp70
	movq	%rdx, (%rax)	# tmp70, r_5->where
	.loc 1 1562 0
	movq	-8(%rbp), %rax	# r, tmp71
	movq	$0, 8(%rax)	#, r_5->subreg_loc
	.loc 1 1563 0
	movq	-8(%rbp), %rax	# r, tmp72
	movl	-32(%rbp), %edx	# mode, tmp73
	movl	%edx, 20(%rax)	# tmp73, r_5->mode
.L595:
.LBE16:
	.loc 1 1565 0
	popq	%rbp	#
	.cfi_def_cfa 7, 8
	ret
	.cfi_endproc
.LFE9:
	.size	push_replacement, .-push_replacement
	.globl	transfer_replacements
	.type	transfer_replacements, @function
transfer_replacements:
.LFB10:
	.loc 1 1573 0
	.cfi_startproc
	pushq	%rbp	#
	.cfi_def_cfa_offset 16
	.cfi_offset 6, -16
	movq	%rsp, %rbp	#,
	.cfi_def_cfa_register 6
	movl	%edi, -20(%rbp)	# to, to
	movl	%esi, -24(%rbp)	# from, from
	.loc 1 1576 0
	movl	$0, -4(%rbp)	#, i
	jmp	.L598	#
.L600:
	.loc 1 1577 0
	movl	-4(%rbp), %eax	# i, tmp62
	movslq	%eax, %rdx	# tmp62, tmp61
	movq	%rdx, %rax	# tmp61, tmp63
	addq	%rax, %rax	# tmp63
	addq	%rdx, %rax	# tmp61, tmp63
	salq	$3, %rax	#, tmp64
	addq	$replacements+16, %rax	#, tmp65
	movl	(%rax), %eax	# replacements[i_1].what, D.23565
	cmpl	-24(%rbp), %eax	# from, D.23565
	jne	.L599	#,
	.loc 1 1578 0
	movl	-4(%rbp), %eax	# i, tmp67
	movslq	%eax, %rdx	# tmp67, tmp66
	movq	%rdx, %rax	# tmp66, tmp68
	addq	%rax, %rax	# tmp68
	addq	%rdx, %rax	# tmp66, tmp68
	salq	$3, %rax	#, tmp69
	leaq	replacements+16(%rax), %rdx	#, tmp70
	movl	-20(%rbp), %eax	# to, tmp71
	movl	%eax, (%rdx)	# tmp71, replacements[i_1].what
.L599:
	.loc 1 1576 0
	addl	$1, -4(%rbp)	#, i
.L598:
	.loc 1 1576 0 is_stmt 0 discriminator 1
	movl	n_replacements(%rip), %eax	# n_replacements, n_replacements.461
	cmpl	%eax, -4(%rbp)	# n_replacements.461, i
	jl	.L600	#,
	.loc 1 1579 0 is_stmt 1
	popq	%rbp	#
	.cfi_def_cfa 7, 8
	ret
	.cfi_endproc
.LFE10:
	.size	transfer_replacements, .-transfer_replacements
	.globl	remove_address_replacements
	.type	remove_address_replacements, @function
remove_address_replacements:
.LFB11:
	.loc 1 1588 0
	.cfi_startproc
	pushq	%rbp	#
	.cfi_def_cfa_offset 16
	.cfi_offset 6, -16
	movq	%rsp, %rbp	#,
	.cfi_def_cfa_register 6
	pushq	%rbx	#
	subq	$232, %rsp	#,
	.cfi_offset 3, -24
	movq	%rdi, -232(%rbp)	# in_rtx, in_rtx
	.loc 1 1588 0
	movq	%fs:40, %rax	#, tmp136
	movq	%rax, -24(%rbp)	# tmp136, D.23571
	xorl	%eax, %eax	# tmp136
	.loc 1 1591 0
	movl	$0, -212(%rbp)	#, something_changed
	.loc 1 1593 0
	leaq	-208(%rbp), %rax	#, tmp76
	movl	$180, %edx	#,
	movl	$0, %esi	#,
	movq	%rax, %rdi	# tmp76,
	call	memset	#
	.loc 1 1594 0
	movl	$0, -220(%rbp)	#, i
	movl	$0, -216(%rbp)	#, j
	jmp	.L602	#
.L605:
	.loc 1 1596 0
	movl	-220(%rbp), %eax	# i, tmp78
	movslq	%eax, %rdx	# tmp78, tmp77
	movq	%rdx, %rax	# tmp77, tmp79
	addq	%rax, %rax	# tmp79
	addq	%rdx, %rax	# tmp77, tmp79
	salq	$3, %rax	#, tmp80
	addq	$replacements, %rax	#, tmp81
	movq	(%rax), %rax	# replacements[i_1].where, D.23566
	movq	-232(%rbp), %rdx	# in_rtx, tmp82
	movq	%rdx, %rsi	# tmp82,
	movq	%rax, %rdi	# D.23566,
	call	loc_mentioned_in_p	#
	testl	%eax, %eax	# D.23567
	je	.L603	#,
	.loc 1 1597 0
	movl	-220(%rbp), %eax	# i, tmp84
	movslq	%eax, %rdx	# tmp84, tmp83
	movq	%rdx, %rax	# tmp83, tmp85
	addq	%rax, %rax	# tmp85
	addq	%rdx, %rax	# tmp83, tmp85
	salq	$3, %rax	#, tmp86
	addq	$replacements+16, %rax	#, tmp87
	movl	(%rax), %ecx	# replacements[i_1].what, D.23567
	movl	-220(%rbp), %eax	# i, tmp89
	movslq	%eax, %rdx	# tmp89, tmp88
	movq	%rdx, %rax	# tmp88, tmp90
	addq	%rax, %rax	# tmp90
	addq	%rdx, %rax	# tmp88, tmp90
	salq	$3, %rax	#, tmp91
	addq	$replacements+16, %rax	#, tmp92
	movl	(%rax), %eax	# replacements[i_1].what, D.23567
	cltq
	movzbl	-208(%rbp,%rax), %eax	# reload_flags, D.23568
	orl	$1, %eax	#, D.23569
	movl	%eax, %edx	# D.23569, D.23569
	movslq	%ecx, %rax	# D.23567, tmp94
	movb	%dl, -208(%rbp,%rax)	# D.23569, reload_flags
	jmp	.L604	#
.L603:
	.loc 1 1600 0
	movl	-216(%rbp), %eax	# j, j.462
	leal	1(%rax), %edx	#, tmp95
	movl	%edx, -216(%rbp)	# tmp95, j
	movslq	%eax, %rdx	# j.462, tmp96
	movq	%rdx, %rax	# tmp96, tmp97
	addq	%rax, %rax	# tmp97
	addq	%rdx, %rax	# tmp96, tmp97
	salq	$3, %rax	#, tmp98
	leaq	replacements(%rax), %rdx	#, tmp99
	movl	-220(%rbp), %eax	# i, tmp101
	movslq	%eax, %rcx	# tmp101, tmp100
	movq	%rcx, %rax	# tmp100, tmp102
	addq	%rax, %rax	# tmp102
	addq	%rcx, %rax	# tmp100, tmp102
	salq	$3, %rax	#, tmp103
	addq	$replacements, %rax	#, tmp104
	movq	(%rax), %rcx	# replacements, tmp105
	movq	%rcx, (%rdx)	# tmp105, replacements
	movq	8(%rax), %rcx	# replacements, tmp106
	movq	%rcx, 8(%rdx)	# tmp106, replacements
	movq	16(%rax), %rax	# replacements, tmp107
	movq	%rax, 16(%rdx)	# tmp107, replacements
	.loc 1 1601 0
	movl	-220(%rbp), %eax	# i, tmp109
	movslq	%eax, %rdx	# tmp109, tmp108
	movq	%rdx, %rax	# tmp108, tmp110
	addq	%rax, %rax	# tmp110
	addq	%rdx, %rax	# tmp108, tmp110
	salq	$3, %rax	#, tmp111
	addq	$replacements+16, %rax	#, tmp112
	movl	(%rax), %ecx	# replacements[i_1].what, D.23567
	movl	-220(%rbp), %eax	# i, tmp114
	movslq	%eax, %rdx	# tmp114, tmp113
	movq	%rdx, %rax	# tmp113, tmp115
	addq	%rax, %rax	# tmp115
	addq	%rdx, %rax	# tmp113, tmp115
	salq	$3, %rax	#, tmp116
	addq	$replacements+16, %rax	#, tmp117
	movl	(%rax), %eax	# replacements[i_1].what, D.23567
	cltq
	movzbl	-208(%rbp,%rax), %eax	# reload_flags, D.23568
	orl	$2, %eax	#, D.23569
	movl	%eax, %edx	# D.23569, D.23569
	movslq	%ecx, %rax	# D.23567, tmp119
	movb	%dl, -208(%rbp,%rax)	# D.23569, reload_flags
.L604:
	.loc 1 1594 0
	addl	$1, -220(%rbp)	#, i
.L602:
	.loc 1 1594 0 is_stmt 0 discriminator 1
	movl	n_replacements(%rip), %eax	# n_replacements, n_replacements.463
	cmpl	%eax, -220(%rbp)	# n_replacements.463, i
	jl	.L605	#,
	.loc 1 1605 0 is_stmt 1
	movl	-216(%rbp), %eax	# j, tmp120
	movl	%eax, n_replacements(%rip)	# tmp120, n_replacements
	.loc 1 1607 0
	movl	n_reloads(%rip), %eax	# n_reloads, n_reloads.464
	subl	$1, %eax	#, tmp121
	movl	%eax, -220(%rbp)	# tmp121, i
	jmp	.L606	#
.L608:
	.loc 1 1609 0
	movl	-220(%rbp), %eax	# i, tmp123
	cltq
	movzbl	-208(%rbp,%rax), %eax	# reload_flags, D.23568
	cmpb	$1, %al	#, D.23568
	jne	.L607	#,
	.loc 1 1611 0
	movl	-220(%rbp), %eax	# i, tmp124
	movl	%eax, %edi	# tmp124,
	call	deallocate_reload_reg	#
	.loc 1 1612 0
	movl	-220(%rbp), %eax	# i, tmp126
	movslq	%eax, %rdx	# tmp126, tmp125
	movq	%rdx, %rax	# tmp125, tmp127
	addq	%rax, %rax	# tmp127
	addq	%rdx, %rax	# tmp125, tmp127
	salq	$2, %rax	#, tmp127
	addq	%rdx, %rax	# tmp125, tmp127
	salq	$3, %rax	#, tmp128
	addq	$rld, %rax	#, tmp129
	movq	(%rax), %rax	# rld[i_2].in, D.23570
	movq	%rax, %rdi	# D.23570,
	call	remove_address_replacements	#
	.loc 1 1613 0
	movl	-220(%rbp), %eax	# i, tmp131
	movslq	%eax, %rdx	# tmp131, tmp130
	movq	%rdx, %rax	# tmp130, tmp132
	addq	%rax, %rax	# tmp132
	addq	%rdx, %rax	# tmp130, tmp132
	salq	$2, %rax	#, tmp132
	addq	%rdx, %rax	# tmp130, tmp132
	salq	$3, %rax	#, tmp133
	addq	$rld, %rax	#, tmp134
	movq	$0, (%rax)	#, rld[i_2].in
	.loc 1 1614 0
	movl	$1, -212(%rbp)	#, something_changed
.L607:
	.loc 1 1607 0
	subl	$1, -220(%rbp)	#, i
.L606:
	.loc 1 1607 0 is_stmt 0 discriminator 1
	cmpl	$0, -220(%rbp)	#, i
	jns	.L608	#,
	.loc 1 1617 0 is_stmt 1
	movl	-212(%rbp), %eax	# something_changed, D.23567
	.loc 1 1618 0
	movq	-24(%rbp), %rbx	# D.23571, tmp137
	xorq	%fs:40, %rbx	#, tmp137
	je	.L610	#,
	call	__stack_chk_fail	#
.L610:
	addq	$232, %rsp	#,
	popq	%rbx	#
	popq	%rbp	#
	.cfi_def_cfa 7, 8
	ret
	.cfi_endproc
.LFE11:
	.size	remove_address_replacements, .-remove_address_replacements
	.type	combine_reloads, @function
combine_reloads:
.LFB12:
	.loc 1 1634 0
	.cfi_startproc
	pushq	%rbp	#
	.cfi_def_cfa_offset 16
	.cfi_offset 6, -16
	movq	%rsp, %rbp	#,
	.cfi_def_cfa_register 6
	pushq	%rbx	#
	subq	$40, %rsp	#,
	.cfi_offset 3, -24
	.loc 1 1636 0
	movl	$-1, -36(%rbp)	#, output_reload
	.loc 1 1637 0
	movl	$-1, -28(%rbp)	#, secondary_out
	.loc 1 1643 0
	movl	$0, -40(%rbp)	#, i
	jmp	.L612	#
.L616:
	.loc 1 1644 0
	movl	-40(%rbp), %eax	# i, tmp366
	movslq	%eax, %rdx	# tmp366, tmp365
	movq	%rdx, %rax	# tmp365, tmp367
	addq	%rax, %rax	# tmp367
	addq	%rdx, %rax	# tmp365, tmp367
	salq	$2, %rax	#, tmp367
	addq	%rdx, %rax	# tmp365, tmp367
	salq	$3, %rax	#, tmp368
	addq	$rld, %rax	#, tmp369
	movq	8(%rax), %rax	# rld[i_1].out, D.23574
	testq	%rax, %rax	# D.23574
	je	.L613	#,
	.loc 1 1646 0
	cmpl	$0, -36(%rbp)	#, output_reload
	js	.L614	#,
	.loc 1 1647 0
	jmp	.L611	#
.L614:
	.loc 1 1648 0
	movl	-40(%rbp), %eax	# i, tmp370
	movl	%eax, -36(%rbp)	# tmp370, output_reload
.L613:
	.loc 1 1643 0
	addl	$1, -40(%rbp)	#, i
.L612:
	.loc 1 1643 0 is_stmt 0 discriminator 1
	movl	n_reloads(%rip), %eax	# n_reloads, n_reloads.465
	cmpl	%eax, -40(%rbp)	# n_reloads.465, i
	jl	.L616	#,
	.loc 1 1651 0 is_stmt 1
	cmpl	$0, -36(%rbp)	#, output_reload
	js	.L617	#,
	.loc 1 1651 0 is_stmt 0 discriminator 1
	movl	-36(%rbp), %eax	# output_reload, tmp372
	movslq	%eax, %rdx	# tmp372, tmp371
	movq	%rdx, %rax	# tmp371, tmp373
	addq	%rax, %rax	# tmp373
	addq	%rdx, %rax	# tmp371, tmp373
	salq	$2, %rax	#, tmp373
	addq	%rdx, %rax	# tmp371, tmp373
	salq	$3, %rax	#, tmp374
	addq	$rld+96, %rax	#, tmp375
	movzbl	(%rax), %eax	#, tmp378
	andl	$1, %eax	#, D.23575
	testb	%al, %al	# D.23575
	je	.L618	#,
.L617:
	.loc 1 1652 0 is_stmt 1
	jmp	.L611	#
.L618:
	.loc 1 1656 0
	movl	-36(%rbp), %eax	# output_reload, tmp380
	movslq	%eax, %rdx	# tmp380, tmp379
	movq	%rdx, %rax	# tmp379, tmp381
	addq	%rax, %rax	# tmp381
	addq	%rdx, %rax	# tmp379, tmp381
	salq	$2, %rax	#, tmp381
	addq	%rdx, %rax	# tmp379, tmp381
	salq	$3, %rax	#, tmp382
	addq	$rld, %rax	#, tmp383
	movq	(%rax), %rax	# rld[output_reload_6].in, D.23574
	testq	%rax, %rax	# D.23574
	je	.L619	#,
	.loc 1 1657 0
	jmp	.L611	#
.L619:
	.loc 1 1660 0
	movl	-36(%rbp), %eax	# output_reload, tmp385
	movslq	%eax, %rdx	# tmp385, tmp384
	movq	%rdx, %rax	# tmp384, tmp386
	addq	%rax, %rax	# tmp386
	addq	%rdx, %rax	# tmp384, tmp386
	salq	$2, %rax	#, tmp386
	addq	%rdx, %rax	# tmp384, tmp386
	salq	$3, %rax	#, tmp387
	addq	$rld, %rax	#, tmp388
	movq	8(%rax), %rax	# rld[output_reload_6].out, D.23574
	movq	%rax, %rdi	# D.23574,
	call	earlyclobber_operand_p	#
	testl	%eax, %eax	# D.23576
	je	.L620	#,
	.loc 1 1661 0
	jmp	.L611	#
.L620:
	.loc 1 1667 0
	movl	$0, -40(%rbp)	#, i
	jmp	.L621	#
.L624:
	.loc 1 1668 0
	movl	-40(%rbp), %eax	# i, tmp390
	movslq	%eax, %rdx	# tmp390, tmp389
	movq	%rdx, %rax	# tmp389, tmp391
	addq	%rax, %rax	# tmp391
	addq	%rdx, %rax	# tmp389, tmp391
	salq	$2, %rax	#, tmp391
	addq	%rdx, %rax	# tmp389, tmp391
	salq	$3, %rax	#, tmp392
	addq	$rld+80, %rax	#, tmp393
	movl	12(%rax), %eax	# rld[i_2].when_needed, D.23577
	cmpl	$5, %eax	#, D.23577
	je	.L622	#,
	.loc 1 1669 0
	movl	-40(%rbp), %eax	# i, tmp395
	movslq	%eax, %rdx	# tmp395, tmp394
	movq	%rdx, %rax	# tmp394, tmp396
	addq	%rax, %rax	# tmp396
	addq	%rdx, %rax	# tmp394, tmp396
	salq	$2, %rax	#, tmp396
	addq	%rdx, %rax	# tmp394, tmp396
	salq	$3, %rax	#, tmp397
	addq	$rld+80, %rax	#, tmp398
	movl	12(%rax), %eax	# rld[i_2].when_needed, D.23577
	cmpl	$6, %eax	#, D.23577
	jne	.L623	#,
.L622:
	.loc 1 1670 0
	movl	-40(%rbp), %eax	# i, tmp400
	movslq	%eax, %rdx	# tmp400, tmp399
	movq	%rdx, %rax	# tmp399, tmp401
	addq	%rax, %rax	# tmp401
	addq	%rdx, %rax	# tmp399, tmp401
	salq	$2, %rax	#, tmp401
	addq	%rdx, %rax	# tmp399, tmp401
	salq	$3, %rax	#, tmp402
	addq	$rld+64, %rax	#, tmp403
	movl	8(%rax), %ecx	# rld[i_2].opnum, D.23576
	movl	-36(%rbp), %eax	# output_reload, tmp405
	movslq	%eax, %rdx	# tmp405, tmp404
	movq	%rdx, %rax	# tmp404, tmp406
	addq	%rax, %rax	# tmp406
	addq	%rdx, %rax	# tmp404, tmp406
	salq	$2, %rax	#, tmp406
	addq	%rdx, %rax	# tmp404, tmp406
	salq	$3, %rax	#, tmp407
	addq	$rld+64, %rax	#, tmp408
	movl	8(%rax), %eax	# rld[output_reload_6].opnum, D.23576
	cmpl	%eax, %ecx	# D.23576, D.23576
	jne	.L623	#,
	.loc 1 1671 0
	jmp	.L611	#
.L623:
	.loc 1 1667 0
	addl	$1, -40(%rbp)	#, i
.L621:
	.loc 1 1667 0 is_stmt 0 discriminator 1
	movl	n_reloads(%rip), %eax	# n_reloads, n_reloads.466
	cmpl	%eax, -40(%rbp)	# n_reloads.466, i
	jl	.L624	#,
	.loc 1 1675 0 is_stmt 1
	movl	$0, -40(%rbp)	#, i
	jmp	.L625	#
.L664:
	.loc 1 1676 0
	movl	-40(%rbp), %eax	# i, tmp410
	movslq	%eax, %rdx	# tmp410, tmp409
	movq	%rdx, %rax	# tmp409, tmp411
	addq	%rax, %rax	# tmp411
	addq	%rdx, %rax	# tmp409, tmp411
	salq	$2, %rax	#, tmp411
	addq	%rdx, %rax	# tmp409, tmp411
	salq	$3, %rax	#, tmp412
	addq	$rld, %rax	#, tmp413
	movq	(%rax), %rax	# rld[i_3].in, D.23574
	testq	%rax, %rax	# D.23574
	je	.L626	#,
	.loc 1 1676 0 is_stmt 0 discriminator 1
	movl	-40(%rbp), %eax	# i, tmp415
	movslq	%eax, %rdx	# tmp415, tmp414
	movq	%rdx, %rax	# tmp414, tmp416
	addq	%rax, %rax	# tmp416
	addq	%rdx, %rax	# tmp414, tmp416
	salq	$2, %rax	#, tmp416
	addq	%rdx, %rax	# tmp414, tmp416
	salq	$3, %rax	#, tmp417
	addq	$rld+96, %rax	#, tmp418
	movzbl	(%rax), %eax	#, tmp421
	andl	$1, %eax	#, D.23575
	testb	%al, %al	# D.23575
	jne	.L626	#,
	movl	-40(%rbp), %eax	# i, tmp423
	movslq	%eax, %rdx	# tmp423, tmp422
	movq	%rdx, %rax	# tmp422, tmp424
	addq	%rax, %rax	# tmp424
	addq	%rdx, %rax	# tmp422, tmp424
	salq	$2, %rax	#, tmp424
	addq	%rdx, %rax	# tmp422, tmp424
	salq	$3, %rax	#, tmp425
	addq	$rld+96, %rax	#, tmp426
	movzbl	(%rax), %eax	#, tmp429
	shrb	%al	# D.23575
	andl	$1, %eax	#, D.23575
	testb	%al, %al	# D.23575
	jne	.L626	#,
	.loc 1 1678 0 is_stmt 1
	movl	-40(%rbp), %eax	# i, tmp431
	movslq	%eax, %rdx	# tmp431, tmp430
	movq	%rdx, %rax	# tmp430, tmp432
	addq	%rax, %rax	# tmp432
	addq	%rdx, %rax	# tmp430, tmp432
	salq	$2, %rax	#, tmp432
	addq	%rdx, %rax	# tmp430, tmp432
	salq	$3, %rax	#, tmp433
	addq	$rld+80, %rax	#, tmp434
	movl	12(%rax), %eax	# rld[i_3].when_needed, D.23577
	cmpl	$5, %eax	#, D.23577
	je	.L626	#,
	.loc 1 1679 0
	movl	-40(%rbp), %eax	# i, tmp436
	movslq	%eax, %rdx	# tmp436, tmp435
	movq	%rdx, %rax	# tmp435, tmp437
	addq	%rax, %rax	# tmp437
	addq	%rdx, %rax	# tmp435, tmp437
	salq	$2, %rax	#, tmp437
	addq	%rdx, %rax	# tmp435, tmp437
	salq	$3, %rax	#, tmp438
	addq	$rld+80, %rax	#, tmp439
	movl	12(%rax), %eax	# rld[i_3].when_needed, D.23577
	cmpl	$6, %eax	#, D.23577
	je	.L626	#,
	.loc 1 1680 0
	movl	-40(%rbp), %eax	# i, tmp441
	movslq	%eax, %rdx	# tmp441, tmp440
	movq	%rdx, %rax	# tmp440, tmp442
	addq	%rax, %rax	# tmp442
	addq	%rdx, %rax	# tmp440, tmp442
	salq	$2, %rax	#, tmp442
	addq	%rdx, %rax	# tmp440, tmp442
	salq	$3, %rax	#, tmp443
	addq	$rld+80, %rax	#, tmp444
	movl	12(%rax), %eax	# rld[i_3].when_needed, D.23577
	cmpl	$9, %eax	#, D.23577
	je	.L626	#,
	.loc 1 1681 0
	movl	-40(%rbp), %eax	# i, tmp446
	movslq	%eax, %rdx	# tmp446, tmp445
	movq	%rdx, %rax	# tmp445, tmp447
	addq	%rax, %rax	# tmp447
	addq	%rdx, %rax	# tmp445, tmp447
	salq	$2, %rax	#, tmp447
	addq	%rdx, %rax	# tmp445, tmp447
	salq	$3, %rax	#, tmp448
	addq	$rld+16, %rax	#, tmp449
	movl	(%rax), %eax	# rld[i_3].class, D.23578
	movl	$12, %esi	#,
	movl	%eax, %edi	# D.23578,
	call	reg_classes_intersect_p	#
	testl	%eax, %eax	# D.23576
	jne	.L627	#,
	.loc 1 1681 0 is_stmt 0 discriminator 1
	movl	-40(%rbp), %eax	# i, tmp451
	movslq	%eax, %rdx	# tmp451, tmp450
	movq	%rdx, %rax	# tmp450, tmp452
	addq	%rax, %rax	# tmp452
	addq	%rdx, %rax	# tmp450, tmp452
	salq	$2, %rax	#, tmp452
	addq	%rdx, %rax	# tmp450, tmp452
	salq	$3, %rax	#, tmp453
	addq	$rld+16, %rax	#, tmp454
	movl	4(%rax), %eax	# rld[i_3].inmode, D.23579
	cltq
	movl	mode_class(,%rax,4), %eax	# mode_class, D.23580
	cmpl	$5, %eax	#, D.23580
	je	.L628	#,
	.loc 1 1681 0 discriminator 2
	movl	-40(%rbp), %eax	# i, tmp457
	movslq	%eax, %rdx	# tmp457, tmp456
	movq	%rdx, %rax	# tmp456, tmp458
	addq	%rax, %rax	# tmp458
	addq	%rdx, %rax	# tmp456, tmp458
	salq	$2, %rax	#, tmp458
	addq	%rdx, %rax	# tmp456, tmp458
	salq	$3, %rax	#, tmp459
	addq	$rld+16, %rax	#, tmp460
	movl	4(%rax), %eax	# rld[i_3].inmode, D.23579
	cltq
	movl	mode_class(,%rax,4), %eax	# mode_class, D.23580
	cmpl	$6, %eax	#, D.23580
	jne	.L629	#,
.L628:
	.loc 1 1681 0 discriminator 1
	movl	$2, %eax	#, iftmp.468
	jmp	.L630	#
.L629:
	movl	$1, %eax	#, iftmp.468
.L630:
	.loc 1 1681 0 discriminator 3
	movl	%eax, %ebx	# iftmp.468, iftmp.467
	jmp	.L631	#
.L627:
	.loc 1 1681 0 discriminator 2
	movl	-40(%rbp), %eax	# i, tmp463
	movslq	%eax, %rdx	# tmp463, tmp462
	movq	%rdx, %rax	# tmp462, tmp464
	addq	%rax, %rax	# tmp464
	addq	%rdx, %rax	# tmp462, tmp464
	salq	$2, %rax	#, tmp464
	addq	%rdx, %rax	# tmp462, tmp464
	salq	$3, %rax	#, tmp465
	addq	$rld+16, %rax	#, tmp466
	movl	4(%rax), %eax	# rld[i_3].inmode, D.23579
	cmpl	$18, %eax	#, D.23579
	je	.L632	#,
	.loc 1 1681 0 discriminator 1
	movl	-40(%rbp), %eax	# i, tmp468
	movslq	%eax, %rdx	# tmp468, tmp467
	movq	%rdx, %rax	# tmp467, tmp469
	addq	%rax, %rax	# tmp469
	addq	%rdx, %rax	# tmp467, tmp469
	salq	$2, %rax	#, tmp469
	addq	%rdx, %rax	# tmp467, tmp469
	salq	$3, %rax	#, tmp470
	addq	$rld+16, %rax	#, tmp471
	movl	4(%rax), %eax	# rld[i_3].inmode, D.23579
	jmp	.L633	#
.L632:
	.loc 1 1681 0 discriminator 2
	movl	$17, %eax	#, iftmp.469
.L633:
	.loc 1 1681 0 discriminator 3
	cltq
	movzbl	mode_size(%rax), %eax	# mode_size, D.23581
	movzbl	%al, %edx	# D.23581, D.23576
	movl	target_flags(%rip), %eax	# target_flags, target_flags.471
	andl	$33554432, %eax	#, D.23576
	testl	%eax, %eax	# D.23576
	je	.L634	#,
	.loc 1 1681 0 discriminator 1
	movl	$8, %eax	#, iftmp.470
	jmp	.L635	#
.L634:
	.loc 1 1681 0 discriminator 2
	movl	$4, %eax	#, iftmp.470
.L635:
	.loc 1 1681 0 discriminator 3
	addl	%edx, %eax	# D.23576, D.23576
	subl	$1, %eax	#, D.23576
	movl	target_flags(%rip), %edx	# target_flags, target_flags.473
	andl	$33554432, %edx	#, D.23576
	testl	%edx, %edx	# D.23576
	je	.L636	#,
	.loc 1 1681 0 discriminator 1
	movl	$8, %ebx	#, iftmp.472
	jmp	.L637	#
.L636:
	.loc 1 1681 0 discriminator 2
	movl	$4, %ebx	#, iftmp.472
.L637:
	.loc 1 1681 0 discriminator 3
	cltd
	idivl	%ebx	# iftmp.472
	movl	%eax, %ebx	# tmp473, iftmp.467
.L631:
	.loc 1 1682 0 is_stmt 1
	movl	-36(%rbp), %eax	# output_reload, tmp476
	movslq	%eax, %rdx	# tmp476, tmp475
	movq	%rdx, %rax	# tmp475, tmp477
	addq	%rax, %rax	# tmp477
	addq	%rdx, %rax	# tmp475, tmp477
	salq	$2, %rax	#, tmp477
	addq	%rdx, %rax	# tmp475, tmp477
	salq	$3, %rax	#, tmp478
	addq	$rld+16, %rax	#, tmp479
	movl	(%rax), %eax	# rld[output_reload_6].class, D.23578
	movl	$12, %esi	#,
	movl	%eax, %edi	# D.23578,
	call	reg_classes_intersect_p	#
	testl	%eax, %eax	# D.23576
	jne	.L638	#,
	.loc 1 1682 0 is_stmt 0 discriminator 1
	movl	-36(%rbp), %eax	# output_reload, tmp481
	movslq	%eax, %rdx	# tmp481, tmp480
	movq	%rdx, %rax	# tmp480, tmp482
	addq	%rax, %rax	# tmp482
	addq	%rdx, %rax	# tmp480, tmp482
	salq	$2, %rax	#, tmp482
	addq	%rdx, %rax	# tmp480, tmp482
	salq	$3, %rax	#, tmp483
	addq	$rld+16, %rax	#, tmp484
	movl	8(%rax), %eax	# rld[output_reload_6].outmode, D.23579
	cltq
	movl	mode_class(,%rax,4), %eax	# mode_class, D.23580
	cmpl	$5, %eax	#, D.23580
	je	.L639	#,
	.loc 1 1682 0 discriminator 2
	movl	-36(%rbp), %eax	# output_reload, tmp487
	movslq	%eax, %rdx	# tmp487, tmp486
	movq	%rdx, %rax	# tmp486, tmp488
	addq	%rax, %rax	# tmp488
	addq	%rdx, %rax	# tmp486, tmp488
	salq	$2, %rax	#, tmp488
	addq	%rdx, %rax	# tmp486, tmp488
	salq	$3, %rax	#, tmp489
	addq	$rld+16, %rax	#, tmp490
	movl	8(%rax), %eax	# rld[output_reload_6].outmode, D.23579
	cltq
	movl	mode_class(,%rax,4), %eax	# mode_class, D.23580
	cmpl	$6, %eax	#, D.23580
	jne	.L640	#,
.L639:
	.loc 1 1682 0 discriminator 1
	movl	$2, %eax	#, iftmp.475
	jmp	.L641	#
.L640:
	movl	$1, %eax	#, iftmp.475
.L641:
	jmp	.L642	#
.L638:
	.loc 1 1682 0 discriminator 2
	movl	-36(%rbp), %eax	# output_reload, tmp493
	movslq	%eax, %rdx	# tmp493, tmp492
	movq	%rdx, %rax	# tmp492, tmp494
	addq	%rax, %rax	# tmp494
	addq	%rdx, %rax	# tmp492, tmp494
	salq	$2, %rax	#, tmp494
	addq	%rdx, %rax	# tmp492, tmp494
	salq	$3, %rax	#, tmp495
	addq	$rld+16, %rax	#, tmp496
	movl	8(%rax), %eax	# rld[output_reload_6].outmode, D.23579
	cmpl	$18, %eax	#, D.23579
	je	.L643	#,
	.loc 1 1682 0 discriminator 1
	movl	-36(%rbp), %eax	# output_reload, tmp498
	movslq	%eax, %rdx	# tmp498, tmp497
	movq	%rdx, %rax	# tmp497, tmp499
	addq	%rax, %rax	# tmp499
	addq	%rdx, %rax	# tmp497, tmp499
	salq	$2, %rax	#, tmp499
	addq	%rdx, %rax	# tmp497, tmp499
	salq	$3, %rax	#, tmp500
	addq	$rld+16, %rax	#, tmp501
	movl	8(%rax), %eax	# rld[output_reload_6].outmode, D.23579
	jmp	.L644	#
.L643:
	.loc 1 1682 0 discriminator 2
	movl	$17, %eax	#, iftmp.476
.L644:
	.loc 1 1682 0 discriminator 3
	cltq
	movzbl	mode_size(%rax), %eax	# mode_size, D.23581
	movzbl	%al, %edx	# D.23581, D.23576
	movl	target_flags(%rip), %eax	# target_flags, target_flags.478
	andl	$33554432, %eax	#, D.23576
	testl	%eax, %eax	# D.23576
	je	.L645	#,
	.loc 1 1682 0 discriminator 1
	movl	$8, %eax	#, iftmp.477
	jmp	.L646	#
.L645:
	.loc 1 1682 0 discriminator 2
	movl	$4, %eax	#, iftmp.477
.L646:
	.loc 1 1682 0 discriminator 3
	addl	%edx, %eax	# D.23576, D.23576
	subl	$1, %eax	#, D.23576
	movl	target_flags(%rip), %edx	# target_flags, target_flags.480
	andl	$33554432, %edx	#, D.23576
	testl	%edx, %edx	# D.23576
	je	.L647	#,
	.loc 1 1682 0 discriminator 1
	movl	$8, %edi	#, iftmp.479
	jmp	.L648	#
.L647:
	.loc 1 1682 0 discriminator 2
	movl	$4, %edi	#, iftmp.479
.L648:
	.loc 1 1682 0 discriminator 3
	cltd
	idivl	%edi	# iftmp.479
.L642:
	.loc 1 1681 0 is_stmt 1
	cmpl	%eax, %ebx	# iftmp.474, iftmp.467
	jne	.L626	#,
	.loc 1 1684 0
	movl	-40(%rbp), %eax	# i, tmp506
	movslq	%eax, %rdx	# tmp506, tmp505
	movq	%rdx, %rax	# tmp505, tmp507
	addq	%rax, %rax	# tmp507
	addq	%rdx, %rax	# tmp505, tmp507
	salq	$2, %rax	#, tmp507
	addq	%rdx, %rax	# tmp505, tmp507
	salq	$3, %rax	#, tmp508
	addq	$rld+32, %rax	#, tmp509
	movl	4(%rax), %eax	# rld[i_3].inc, D.23576
	testl	%eax, %eax	# D.23576
	jne	.L626	#,
	.loc 1 1685 0
	movl	-40(%rbp), %eax	# i, tmp511
	movslq	%eax, %rdx	# tmp511, tmp510
	movq	%rdx, %rax	# tmp510, tmp512
	addq	%rax, %rax	# tmp512
	addq	%rdx, %rax	# tmp510, tmp512
	salq	$2, %rax	#, tmp512
	addq	%rdx, %rax	# tmp510, tmp512
	salq	$3, %rax	#, tmp513
	addq	$rld+64, %rax	#, tmp514
	movq	(%rax), %rax	# rld[i_3].reg_rtx, D.23574
	testq	%rax, %rax	# D.23574
	jne	.L626	#,
	.loc 1 1689 0
	movl	-36(%rbp), %eax	# output_reload, tmp516
	movslq	%eax, %rdx	# tmp516, tmp515
	movq	%rdx, %rax	# tmp515, tmp517
	addq	%rax, %rax	# tmp517
	addq	%rdx, %rax	# tmp515, tmp517
	salq	$2, %rax	#, tmp517
	addq	%rdx, %rax	# tmp515, tmp517
	salq	$3, %rax	#, tmp518
	addq	$rld+16, %rax	#, tmp519
	movl	8(%rax), %eax	# rld[output_reload_6].outmode, D.23579
	movl	%eax, %esi	# D.23579, D.23576
	movl	-40(%rbp), %eax	# i, tmp521
	movslq	%eax, %rdx	# tmp521, tmp520
	movq	%rdx, %rax	# tmp520, tmp522
	addq	%rax, %rax	# tmp522
	addq	%rdx, %rax	# tmp520, tmp522
	salq	$2, %rax	#, tmp522
	addq	%rdx, %rax	# tmp520, tmp522
	salq	$3, %rax	#, tmp523
	addq	$rld+64, %rax	#, tmp524
	movl	8(%rax), %eax	# rld[i_3].opnum, D.23576
	movslq	%eax, %rcx	# D.23576, tmp525
	movslq	%esi, %rax	# D.23576, tmp526
	addq	%rax, %rax	# tmp528
	movq	%rax, %rdx	# tmp527, tmp529
	salq	$4, %rdx	#, tmp529
	subq	%rax, %rdx	# tmp527, tmp529
	leaq	(%rdx,%rcx), %rax	#, tmp530
	movq	secondary_memlocs_elim(,%rax,8), %rax	# secondary_memlocs_elim, D.23574
	testq	%rax, %rax	# D.23574
	je	.L649	#,
	.loc 1 1690 0
	movl	-36(%rbp), %eax	# output_reload, tmp532
	movslq	%eax, %rdx	# tmp532, tmp531
	movq	%rdx, %rax	# tmp531, tmp533
	addq	%rax, %rax	# tmp533
	addq	%rdx, %rax	# tmp531, tmp533
	salq	$2, %rax	#, tmp533
	addq	%rdx, %rax	# tmp531, tmp533
	salq	$3, %rax	#, tmp534
	addq	$rld+16, %rax	#, tmp535
	movl	8(%rax), %eax	# rld[output_reload_6].outmode, D.23579
	movl	%eax, %esi	# D.23579, D.23576
	movl	-36(%rbp), %eax	# output_reload, tmp537
	movslq	%eax, %rdx	# tmp537, tmp536
	movq	%rdx, %rax	# tmp536, tmp538
	addq	%rax, %rax	# tmp538
	addq	%rdx, %rax	# tmp536, tmp538
	salq	$2, %rax	#, tmp538
	addq	%rdx, %rax	# tmp536, tmp538
	salq	$3, %rax	#, tmp539
	addq	$rld+64, %rax	#, tmp540
	movl	8(%rax), %eax	# rld[output_reload_6].opnum, D.23576
	movslq	%eax, %rcx	# D.23576, tmp541
	movslq	%esi, %rax	# D.23576, tmp542
	addq	%rax, %rax	# tmp544
	movq	%rax, %rdx	# tmp543, tmp545
	salq	$4, %rdx	#, tmp545
	subq	%rax, %rdx	# tmp543, tmp545
	leaq	(%rdx,%rcx), %rax	#, tmp546
	movq	secondary_memlocs_elim(,%rax,8), %rax	# secondary_memlocs_elim, D.23574
	testq	%rax, %rax	# D.23574
	je	.L649	#,
	.loc 1 1692 0
	movl	-36(%rbp), %eax	# output_reload, tmp548
	movslq	%eax, %rdx	# tmp548, tmp547
	movq	%rdx, %rax	# tmp547, tmp549
	addq	%rax, %rax	# tmp549
	addq	%rdx, %rax	# tmp547, tmp549
	salq	$2, %rax	#, tmp549
	addq	%rdx, %rax	# tmp547, tmp549
	salq	$3, %rax	#, tmp550
