	.file	"rtl-error.c"
# GNU C (Ubuntu/Linaro 4.8.1-10ubuntu9) version 4.8.1 (x86_64-linux-gnu)
#	compiled by GNU C version 4.8.1, GMP version 5.1.2, MPFR version 3.1.1-p2, MPC version 1.0.1
# GGC heuristics: --param ggc-min-expand=100 --param ggc-min-heapsize=131072
# options passed:  -I . -imultiarch x86_64-linux-gnu -D SPEC_CPU -D NDEBUG
# -D SPEC_CPU_LP64 rtl-error.c -mtune=generic -march=x86-64 -g
# -fverbose-asm -fno-strict-aliasing -fstack-protector -Wformat
# -Wformat-security
# options enabled:  -faggressive-loop-optimizations
# -fasynchronous-unwind-tables -fauto-inc-dec -fbranch-count-reg -fcommon
# -fdelete-null-pointer-checks -fdwarf2-cfi-asm -fearly-inlining
# -feliminate-unused-debug-types -ffunction-cse -fgcse-lm -fgnu-runtime
# -fident -finline-atomics -fira-hoist-pressure -fira-share-save-slots
# -fira-share-spill-slots -fivopts -fkeep-static-consts
# -fleading-underscore -fmath-errno -fmerge-debug-strings
# -fmove-loop-invariants -fpeephole -fprefetch-loop-arrays
# -freg-struct-return -fsched-critical-path-heuristic
# -fsched-dep-count-heuristic -fsched-group-heuristic -fsched-interblock
# -fsched-last-insn-heuristic -fsched-rank-heuristic -fsched-spec
# -fsched-spec-insn-heuristic -fsched-stalled-insns-dep -fshow-column
# -fsigned-zeros -fsplit-ivs-in-unroller -fstack-protector
# -fstrict-volatile-bitfields -fsync-libcalls -ftrapping-math
# -ftree-coalesce-vars -ftree-cselim -ftree-forwprop -ftree-loop-if-convert
# -ftree-loop-im -ftree-loop-ivcanon -ftree-loop-optimize
# -ftree-parallelize-loops= -ftree-phiprop -ftree-pta -ftree-reassoc
# -ftree-scev-cprop -ftree-slp-vectorize -ftree-vect-loop-version
# -funit-at-a-time -funwind-tables -fverbose-asm -fzero-initialized-in-bss
# -m128bit-long-double -m64 -m80387 -maccumulate-outgoing-args
# -malign-stringops -mfancy-math-387 -mfp-ret-in-387 -mfxsr -mglibc
# -mieee-fp -mlong-double-80 -mmmx -mno-sse4 -mpush-args -mred-zone -msse
# -msse2 -mtls-direct-seg-refs

	.text
.Ltext0:
	.type	file_and_line_for_asm, @function
file_and_line_for_asm:
.LFB2:
	.file 1 "rtl-error.c"
	.loc 1 43 0
	.cfi_startproc
	pushq	%rbp	#
	.cfi_def_cfa_offset 16
	.cfi_offset 6, -16
	movq	%rsp, %rbp	#,
	.cfi_def_cfa_register 6
	movq	%rdi, -24(%rbp)	# insn, insn
	movq	%rsi, -32(%rbp)	# pfile, pfile
	movq	%rdx, -40(%rbp)	# pline, pline
	.loc 1 44 0
	movq	-24(%rbp), %rax	# insn, tmp78
	movq	32(%rax), %rax	# insn_2(D)->fld[3].rtx, tmp79
	movq	%rax, -8(%rbp)	# tmp79, body
	.loc 1 48 0
	movq	-8(%rbp), %rax	# body, tmp80
	movzwl	(%rax), %eax	# body_3->code, D.9234
	cmpw	$47, %ax	#, D.9234
	jne	.L2	#,
	.loc 1 48 0 is_stmt 0 discriminator 1
	movq	-8(%rbp), %rax	# body, tmp81
	movq	16(%rax), %rax	# body_3->fld[1].rtx, D.9235
	movzwl	(%rax), %eax	# _5->code, D.9234
	cmpw	$41, %ax	#, D.9234
	jne	.L2	#,
	.loc 1 49 0 is_stmt 1
	movq	-8(%rbp), %rax	# body, tmp82
	movq	16(%rax), %rax	# body_3->fld[1].rtx, tmp83
	movq	%rax, -16(%rbp)	# tmp83, asmop
	jmp	.L3	#
.L2:
	.loc 1 50 0
	movq	-8(%rbp), %rax	# body, tmp84
	movzwl	(%rax), %eax	# body_3->code, D.9234
	cmpw	$41, %ax	#, D.9234
	jne	.L4	#,
	.loc 1 51 0
	movq	-8(%rbp), %rax	# body, tmp85
	movq	%rax, -16(%rbp)	# tmp85, asmop
	jmp	.L3	#
.L4:
	.loc 1 52 0
	movq	-8(%rbp), %rax	# body, tmp86
	movzwl	(%rax), %eax	# body_3->code, D.9234
	cmpw	$39, %ax	#, D.9234
	jne	.L5	#,
	.loc 1 53 0
	movq	-8(%rbp), %rax	# body, tmp87
	movq	8(%rax), %rax	# body_3->fld[0].rtvec, D.9236
	movq	8(%rax), %rax	# _11->elem, D.9235
	movzwl	(%rax), %eax	# _12->code, D.9234
	cmpw	$47, %ax	#, D.9234
	jne	.L5	#,
	.loc 1 54 0
	movq	-8(%rbp), %rax	# body, tmp88
	movq	8(%rax), %rax	# body_3->fld[0].rtvec, D.9236
	movq	8(%rax), %rax	# _14->elem, D.9235
	movq	16(%rax), %rax	# _15->fld[1].rtx, tmp89
	movq	%rax, -16(%rbp)	# tmp89, asmop
	jmp	.L3	#
.L5:
	.loc 1 55 0
	movq	-8(%rbp), %rax	# body, tmp90
	movzwl	(%rax), %eax	# body_3->code, D.9234
	cmpw	$39, %ax	#, D.9234
	jne	.L6	#,
	.loc 1 56 0
	movq	-8(%rbp), %rax	# body, tmp91
	movq	8(%rax), %rax	# body_3->fld[0].rtvec, D.9236
	movq	8(%rax), %rax	# _18->elem, D.9235
	movzwl	(%rax), %eax	# _19->code, D.9234
	cmpw	$41, %ax	#, D.9234
	jne	.L6	#,
	.loc 1 57 0
	movq	-8(%rbp), %rax	# body, tmp92
	movq	8(%rax), %rax	# body_3->fld[0].rtvec, D.9236
	movq	8(%rax), %rax	# _21->elem, tmp93
	movq	%rax, -16(%rbp)	# tmp93, asmop
	jmp	.L3	#
.L6:
	.loc 1 59 0
	movq	$0, -16(%rbp)	#, asmop
.L3:
	.loc 1 61 0
	cmpq	$0, -16(%rbp)	#, asmop
	je	.L7	#,
	.loc 1 63 0
	movq	-16(%rbp), %rax	# asmop, tmp94
	movq	48(%rax), %rdx	# asmop_1->fld[5].rtstr, D.9237
	movq	-32(%rbp), %rax	# pfile, tmp95
	movq	%rdx, (%rax)	# D.9237, *pfile_25(D)
	.loc 1 64 0
	movq	-16(%rbp), %rax	# asmop, tmp96
	movl	56(%rax), %edx	# asmop_1->fld[6].rtint, D.9238
	movq	-40(%rbp), %rax	# pline, tmp97
	movl	%edx, (%rax)	# D.9238, *pline_27(D)
	jmp	.L1	#
.L7:
	.loc 1 68 0
	movq	input_filename(%rip), %rdx	# input_filename, input_filename.0
	movq	-32(%rbp), %rax	# pfile, tmp98
	movq	%rdx, (%rax)	# input_filename.0, *pfile_25(D)
	.loc 1 69 0
	movl	lineno(%rip), %edx	# lineno, lineno.1
	movq	-40(%rbp), %rax	# pline, tmp99
	movl	%edx, (%rax)	# lineno.1, *pline_27(D)
.L1:
	.loc 1 71 0
	popq	%rbp	#
	.cfi_def_cfa 7, 8
	ret
	.cfi_endproc
.LFE2:
	.size	file_and_line_for_asm, .-file_and_line_for_asm
	.type	diagnostic_for_asm, @function
diagnostic_for_asm:
.LFB3:
	.loc 1 82 0
	.cfi_startproc
	pushq	%rbp	#
	.cfi_def_cfa_offset 16
	.cfi_offset 6, -16
	movq	%rsp, %rbp	#,
	.cfi_def_cfa_register 6
	subq	$416, %rsp	#,
	movq	%rdi, -392(%rbp)	# insn, insn
	movq	%rsi, -400(%rbp)	# msg, msg
	movq	%rdx, -408(%rbp)	# args_ptr, args_ptr
	movl	%ecx, -412(%rbp)	# warn, warn
	.loc 1 82 0
	movq	%fs:40, %rax	#, tmp69
	movq	%rax, -8(%rbp)	# tmp69, D.9239
	xorl	%eax, %eax	# tmp69
	.loc 1 85 0
	movl	-412(%rbp), %ecx	# warn, tmp59
	movq	-408(%rbp), %rdx	# args_ptr, tmp60
	movq	-400(%rbp), %rsi	# msg, tmp61
	leaq	-384(%rbp), %rax	#, tmp62
	movl	%ecx, %r9d	# tmp59,
	movl	$0, %r8d	#,
	movl	$0, %ecx	#,
	movq	%rax, %rdi	# tmp62,
	call	set_diagnostic_context	#
	.loc 1 86 0
	leaq	-384(%rbp), %rax	#, tmp63
	leaq	344(%rax), %rdx	#, tmp64
	leaq	-384(%rbp), %rax	#, tmp65
	leaq	336(%rax), %rcx	#, tmp66
	movq	-392(%rbp), %rax	# insn, tmp67
	movq	%rcx, %rsi	# tmp66,
	movq	%rax, %rdi	# tmp67,
	call	file_and_line_for_asm	#
	.loc 1 88 0
	leaq	-384(%rbp), %rax	#, tmp68
	movq	%rax, %rdi	# tmp68,
	call	report_diagnostic	#
	.loc 1 89 0
	movq	-8(%rbp), %rax	# D.9239, tmp70
	xorq	%fs:40, %rax	#, tmp70
	je	.L10	#,
	call	__stack_chk_fail	#
.L10:
	leave
	.cfi_def_cfa 7, 8
	ret
	.cfi_endproc
.LFE3:
	.size	diagnostic_for_asm, .-diagnostic_for_asm
	.globl	error_for_asm
	.type	error_for_asm, @function
error_for_asm:
.LFB4:
	.loc 1 93 0
	.cfi_startproc
	pushq	%rbp	#
	.cfi_def_cfa_offset 16
	.cfi_offset 6, -16
	movq	%rsp, %rbp	#,
	.cfi_def_cfa_register 6
	subq	$224, %rsp	#,
	movq	%rdi, -216(%rbp)	# insn, insn
	movq	%rdx, -160(%rbp)	#,
	movq	%rcx, -152(%rbp)	#,
	movq	%r8, -144(%rbp)	#,
	movq	%r9, -136(%rbp)	#,
	testb	%al, %al	#
	je	.L12	#,
	.loc 1 93 0
	movaps	%xmm0, -128(%rbp)	#,
	movaps	%xmm1, -112(%rbp)	#,
	movaps	%xmm2, -96(%rbp)	#,
	movaps	%xmm3, -80(%rbp)	#,
	movaps	%xmm4, -64(%rbp)	#,
	movaps	%xmm5, -48(%rbp)	#,
	movaps	%xmm6, -32(%rbp)	#,
	movaps	%xmm7, -16(%rbp)	#,
.L12:
	movq	%rsi, -224(%rbp)	# msgid, msgid
.LBB2:
	.loc 1 94 0
	movl	$16, -200(%rbp)	#, MEM[(struct [1] *)&ap].gp_offset
	movl	$48, -196(%rbp)	#, MEM[(struct [1] *)&ap].fp_offset
	leaq	16(%rbp), %rax	#, tmp63
	movq	%rax, -192(%rbp)	# tmp63, MEM[(struct [1] *)&ap].overflow_arg_area
	leaq	-176(%rbp), %rax	#, tmp64
	movq	%rax, -184(%rbp)	# tmp64, MEM[(struct [1] *)&ap].reg_save_area
.LBB3:
	.loc 1 98 0
	leaq	-200(%rbp), %rdx	#, tmp60
	movq	-224(%rbp), %rsi	# msgid, tmp61
	movq	-216(%rbp), %rax	# insn, tmp62
	movl	$0, %ecx	#,
	movq	%rax, %rdi	# tmp62,
	call	diagnostic_for_asm	#
.LBE3:
.LBE2:
	.loc 1 100 0
	leave
	.cfi_def_cfa 7, 8
	ret
	.cfi_endproc
.LFE4:
	.size	error_for_asm, .-error_for_asm
	.globl	warning_for_asm
	.type	warning_for_asm, @function
warning_for_asm:
.LFB5:
	.loc 1 104 0
	.cfi_startproc
	pushq	%rbp	#
	.cfi_def_cfa_offset 16
	.cfi_offset 6, -16
	movq	%rsp, %rbp	#,
	.cfi_def_cfa_register 6
	subq	$224, %rsp	#,
	movq	%rdi, -216(%rbp)	# insn, insn
	movq	%rdx, -160(%rbp)	#,
	movq	%rcx, -152(%rbp)	#,
	movq	%r8, -144(%rbp)	#,
	movq	%r9, -136(%rbp)	#,
	testb	%al, %al	#
	je	.L14	#,
	.loc 1 104 0
	movaps	%xmm0, -128(%rbp)	#,
	movaps	%xmm1, -112(%rbp)	#,
	movaps	%xmm2, -96(%rbp)	#,
	movaps	%xmm3, -80(%rbp)	#,
	movaps	%xmm4, -64(%rbp)	#,
	movaps	%xmm5, -48(%rbp)	#,
	movaps	%xmm6, -32(%rbp)	#,
	movaps	%xmm7, -16(%rbp)	#,
.L14:
	movq	%rsi, -224(%rbp)	# msgid, msgid
.LBB4:
	.loc 1 105 0
	movl	$16, -200(%rbp)	#, MEM[(struct [1] *)&ap].gp_offset
	movl	$48, -196(%rbp)	#, MEM[(struct [1] *)&ap].fp_offset
	leaq	16(%rbp), %rax	#, tmp63
	movq	%rax, -192(%rbp)	# tmp63, MEM[(struct [1] *)&ap].overflow_arg_area
	leaq	-176(%rbp), %rax	#, tmp64
	movq	%rax, -184(%rbp)	# tmp64, MEM[(struct [1] *)&ap].reg_save_area
.LBB5:
	.loc 1 109 0
	leaq	-200(%rbp), %rdx	#, tmp60
	movq	-224(%rbp), %rsi	# msgid, tmp61
	movq	-216(%rbp), %rax	# insn, tmp62
	movl	$1, %ecx	#,
	movq	%rax, %rdi	# tmp62,
	call	diagnostic_for_asm	#
.LBE5:
.LBE4:
	.loc 1 111 0
	leave
	.cfi_def_cfa 7, 8
	ret
	.cfi_endproc
.LFE5:
	.size	warning_for_asm, .-warning_for_asm
	.section	.rodata
.LC0:
	.string	"%s"
	.text
	.globl	_fatal_insn
	.type	_fatal_insn, @function
_fatal_insn:
.LFB6:
	.loc 1 120 0
	.cfi_startproc
	pushq	%rbp	#
	.cfi_def_cfa_offset 16
	.cfi_offset 6, -16
	movq	%rsp, %rbp	#,
	.cfi_def_cfa_register 6
	subq	$48, %rsp	#,
	movq	%rdi, -8(%rbp)	# msgid, msgid
	movq	%rsi, -16(%rbp)	# insn, insn
	movq	%rdx, -24(%rbp)	# file, file
	movl	%ecx, -28(%rbp)	# line, line
	movq	%r8, -40(%rbp)	# function, function
	.loc 1 121 0
	movq	-8(%rbp), %rax	# msgid, tmp62
	movq	%rax, %rsi	# tmp62,
	movl	$.LC0, %edi	#,
	movl	$0, %eax	#,
	call	error	#
	.loc 1 125 0
	movq	global_dc(%rip), %rax	# global_dc, global_dc.2
	movl	60(%rax), %edx	# MEM[(struct output_buffer *)global_dc.2_2].state.diagnostic_count, D.9246
	subl	$1, %edx	#, D.9246
	movl	%edx, 60(%rax)	# D.9246, MEM[(struct output_buffer *)global_dc.2_2].state.diagnostic_count
	.loc 1 127 0
	movq	-16(%rbp), %rax	# insn, tmp63
	movq	%rax, %rdi	# tmp63,
	call	debug_rtx	#
	.loc 1 128 0
	movq	-40(%rbp), %rdx	# function, tmp64
	movl	-28(%rbp), %ecx	# line, tmp65
	movq	-24(%rbp), %rax	# file, tmp66
	movl	%ecx, %esi	# tmp65,
	movq	%rax, %rdi	# tmp66,
	call	fancy_abort	#
	.cfi_endproc
.LFE6:
	.size	_fatal_insn, .-_fatal_insn
	.section	.rodata
.LC1:
	.string	"unrecognizable insn:"
	.align 8
.LC2:
	.string	"insn does not satisfy its constraints:"
	.text
	.globl	_fatal_insn_not_found
	.type	_fatal_insn_not_found, @function
_fatal_insn_not_found:
.LFB7:
	.loc 1 137 0
	.cfi_startproc
	pushq	%rbp	#
	.cfi_def_cfa_offset 16
	.cfi_offset 6, -16
	movq	%rsp, %rbp	#,
	.cfi_def_cfa_register 6
	subq	$32, %rsp	#,
	movq	%rdi, -8(%rbp)	# insn, insn
	movq	%rsi, -16(%rbp)	# file, file
	movl	%edx, -20(%rbp)	# line, line
	movq	%rcx, -32(%rbp)	# function, function
	.loc 1 138 0
	movq	-8(%rbp), %rax	# insn, tmp60
	movl	40(%rax), %eax	# insn_1(D)->fld[4].rtint, D.9248
	testl	%eax, %eax	# D.9248
	jns	.L17	#,
	.loc 1 139 0
	movq	-32(%rbp), %rsi	# function, tmp61
	movl	-20(%rbp), %ecx	# line, tmp62
	movq	-16(%rbp), %rdx	# file, tmp63
	movq	-8(%rbp), %rax	# insn, tmp64
	movq	%rsi, %r8	# tmp61,
	movq	%rax, %rsi	# tmp64,
	movl	$.LC1, %edi	#,
	call	_fatal_insn	#
.L17:
	.loc 1 141 0
	movq	-32(%rbp), %rsi	# function, tmp65
	movl	-20(%rbp), %ecx	# line, tmp66
	movq	-16(%rbp), %rdx	# file, tmp67
	movq	-8(%rbp), %rax	# insn, tmp68
	movq	%rsi, %r8	# tmp65,
	movq	%rax, %rsi	# tmp68,
	movl	$.LC2, %edi	#,
	call	_fatal_insn	#
	.cfi_endproc
.LFE7:
	.size	_fatal_insn_not_found, .-_fatal_insn_not_found
.Letext0:
	.file 2 "rtl.h"
	.file 3 "config.h"
	.file 4 "/usr/lib/gcc/x86_64-linux-gnu/4.8/include/stdarg.h"
	.file 5 "<built-in>"
	.file 6 "/usr/lib/gcc/x86_64-linux-gnu/4.8/include/stddef.h"
	.file 7 "/usr/include/x86_64-linux-gnu/bits/types.h"
	.file 8 "/usr/include/stdio.h"
	.file 9 "/usr/include/libio.h"
	.file 10 "machmode.h"
	.file 11 "obstack.h"
	.file 12 "diagnostic.h"
	.file 13 "input.h"
	.section	.note.GNU-stack,"",@progbits
