	.file	"sched-vis.c"
# GNU C (Ubuntu/Linaro 4.8.1-10ubuntu9) version 4.8.1 (x86_64-linux-gnu)
#	compiled by GNU C version 4.8.1, GMP version 5.1.2, MPFR version 3.1.1-p2, MPC version 1.0.1
# GGC heuristics: --param ggc-min-expand=100 --param ggc-min-heapsize=131072
# options passed:  -I . -imultiarch x86_64-linux-gnu -D SPEC_CPU -D NDEBUG
# -D SPEC_CPU_LP64 sched-vis.c -mtune=generic -march=x86-64 -g
# -fverbose-asm -fno-strict-aliasing -fstack-protector -Wformat
# -Wformat-security
# options enabled:  -faggressive-loop-optimizations
# -fasynchronous-unwind-tables -fauto-inc-dec -fbranch-count-reg -fcommon
# -fdelete-null-pointer-checks -fdwarf2-cfi-asm -fearly-inlining
# -feliminate-unused-debug-types -ffunction-cse -fgcse-lm -fgnu-runtime
# -fident -finline-atomics -fira-hoist-pressure -fira-share-save-slots
# -fira-share-spill-slots -fivopts -fkeep-static-consts
# -fleading-underscore -fmath-errno -fmerge-debug-strings
# -fmove-loop-invariants -fpeephole -fprefetch-loop-arrays
# -freg-struct-return -fsched-critical-path-heuristic
# -fsched-dep-count-heuristic -fsched-group-heuristic -fsched-interblock
# -fsched-last-insn-heuristic -fsched-rank-heuristic -fsched-spec
# -fsched-spec-insn-heuristic -fsched-stalled-insns-dep -fshow-column
# -fsigned-zeros -fsplit-ivs-in-unroller -fstack-protector
# -fstrict-volatile-bitfields -fsync-libcalls -ftrapping-math
# -ftree-coalesce-vars -ftree-cselim -ftree-forwprop -ftree-loop-if-convert
# -ftree-loop-im -ftree-loop-ivcanon -ftree-loop-optimize
# -ftree-parallelize-loops= -ftree-phiprop -ftree-pta -ftree-reassoc
# -ftree-scev-cprop -ftree-slp-vectorize -ftree-vect-loop-version
# -funit-at-a-time -funwind-tables -fverbose-asm -fzero-initialized-in-bss
# -m128bit-long-double -m64 -m80387 -maccumulate-outgoing-args
# -malign-stringops -mfancy-math-387 -mfp-ret-in-387 -mfxsr -mglibc
# -mieee-fp -mlong-double-80 -mmmx -mno-sse4 -mpush-args -mred-zone -msse
# -msse2 -mtls-direct-seg-refs

	.text
.Ltext0:
	.local	target_units
	.comm	target_units,4,4
	.section	.rodata
.LC0:
	.string	"none"
	.text
	.globl	insn_print_units
	.type	insn_print_units, @function
insn_print_units:
.LFB2:
	.file 1 "sched-vis.c"
	.loc 1 57 0
	.cfi_startproc
	pushq	%rbp	#
	.cfi_def_cfa_offset 16
	.cfi_offset 6, -16
	movq	%rsp, %rbp	#,
	.cfi_def_cfa_register 6
	subq	$32, %rsp	#,
	movq	%rdi, -24(%rbp)	# insn, insn
	.loc 1 59 0
	movq	-24(%rbp), %rax	# insn, tmp68
	movq	%rax, %rdi	# tmp68,
	call	insn_unit	#
	movl	%eax, -4(%rbp)	# tmp69, unit
	.loc 1 61 0
	cmpl	$-1, -4(%rbp)	#, unit
	jne	.L2	#,
	.loc 1 62 0
	movq	sched_dump(%rip), %rax	# sched_dump, sched_dump.0
	movq	%rax, %rcx	# sched_dump.0,
	movl	$4, %edx	#,
	movl	$1, %esi	#,
	movl	$.LC0, %edi	#,
	call	fwrite	#
	jmp	.L1	#
.L2:
	.loc 1 63 0
	cmpl	$0, -4(%rbp)	#, unit
	js	.L4	#,
	.loc 1 64 0
	movq	sched_dump(%rip), %rcx	# sched_dump, sched_dump.1
	movl	-4(%rbp), %eax	# unit, tmp71
	movslq	%eax, %rdx	# tmp71, tmp70
	movq	%rdx, %rax	# tmp70, tmp72
	salq	$3, %rax	#, tmp72
	addq	%rdx, %rax	# tmp70, tmp72
	salq	$3, %rax	#, tmp73
	addq	$function_units, %rax	#, tmp74
	movq	(%rax), %rax	# function_units[unit_4].name, D.10871
	movq	%rcx, %rsi	# sched_dump.1,
	movq	%rax, %rdi	# D.10871,
	call	fputs	#
	jmp	.L1	#
.L4:
	.loc 1 67 0
	movq	sched_dump(%rip), %rax	# sched_dump, sched_dump.2
	movq	%rax, %rsi	# sched_dump.2,
	movl	$91, %edi	#,
	call	fputc	#
	.loc 1 68 0
	movl	$0, -8(%rbp)	#, i
	notl	-4(%rbp)	# unit
	jmp	.L5	#
.L7:
	.loc 1 69 0
	movl	-4(%rbp), %eax	# unit, tmp75
	andl	$1, %eax	#, D.10872
	testl	%eax, %eax	# D.10872
	je	.L6	#,
	.loc 1 71 0
	movq	sched_dump(%rip), %rcx	# sched_dump, sched_dump.3
	movl	-8(%rbp), %eax	# i, tmp77
	movslq	%eax, %rdx	# tmp77, tmp76
	movq	%rdx, %rax	# tmp76, tmp78
	salq	$3, %rax	#, tmp78
	addq	%rdx, %rax	# tmp76, tmp78
	salq	$3, %rax	#, tmp79
	addq	$function_units, %rax	#, tmp80
	movq	(%rax), %rax	# function_units[i_1].name, D.10871
	movq	%rcx, %rsi	# sched_dump.3,
	movq	%rax, %rdi	# D.10871,
	call	fputs	#
	.loc 1 72 0
	cmpl	$1, -4(%rbp)	#, unit
	je	.L6	#,
	.loc 1 73 0
	movq	sched_dump(%rip), %rax	# sched_dump, sched_dump.4
	movq	%rax, %rsi	# sched_dump.4,
	movl	$32, %edi	#,
	call	fputc	#
.L6:
	.loc 1 68 0
	addl	$1, -8(%rbp)	#, i
	sarl	-4(%rbp)	# unit
.L5:
	.loc 1 68 0 is_stmt 0 discriminator 1
	cmpl	$0, -4(%rbp)	#, unit
	jne	.L7	#,
	.loc 1 75 0 is_stmt 1
	movq	sched_dump(%rip), %rax	# sched_dump, sched_dump.5
	movq	%rax, %rsi	# sched_dump.5,
	movl	$93, %edi	#,
	call	fputc	#
.L1:
	.loc 1 77 0
	leave
	.cfi_def_cfa 7, 8
	ret
	.cfi_endproc
.LFE2:
	.size	insn_print_units, .-insn_print_units
	.comm	n_visual_lines,4,4
	.local	visual_tbl_line_length
	.comm	visual_tbl_line_length,4,4
	.comm	visual_tbl,8,8
	.comm	n_vis_no_unit,4,4
	.comm	vis_no_unit,160,32
	.globl	init_target_units
	.type	init_target_units, @function
init_target_units:
.LFB3:
	.loc 1 98 0
	.cfi_startproc
	pushq	%rbp	#
	.cfi_def_cfa_offset 16
	.cfi_offset 6, -16
	movq	%rsp, %rbp	#,
	.cfi_def_cfa_register 6
	subq	$16, %rsp	#,
	.loc 1 102 0
	call	get_last_insn	#
	movq	%rax, -8(%rbp)	# tmp68, insn
	jmp	.L9	#
.L13:
	.loc 1 104 0
	movq	-8(%rbp), %rax	# insn, tmp69
	movzwl	(%rax), %eax	# insn_1->code, D.10874
	movzwl	%ax, %eax	# D.10874, D.10875
	cltq
	movzbl	rtx_class(%rax), %eax	# rtx_class, D.10876
	cmpb	$105, %al	#, D.10876
	je	.L10	#,
	.loc 1 105 0
	jmp	.L11	#
.L10:
	.loc 1 107 0
	movq	-8(%rbp), %rax	# insn, tmp71
	movq	%rax, %rdi	# tmp71,
	call	insn_unit	#
	movl	%eax, -12(%rbp)	# tmp72, unit
	.loc 1 109 0
	cmpl	$0, -12(%rbp)	#, unit
	jns	.L12	#,
	.loc 1 110 0
	movl	-12(%rbp), %eax	# unit, tmp73
	notl	%eax	# D.10875
	movl	%eax, %edx	# D.10875, D.10875
	movl	target_units(%rip), %eax	# target_units, target_units.6
	orl	%edx, %eax	# D.10875, target_units.7
	movl	%eax, target_units(%rip)	# target_units.7, target_units
	jmp	.L11	#
.L12:
	.loc 1 112 0
	movl	-12(%rbp), %eax	# unit, tmp74
	movl	$1, %edx	#, tmp75
	movl	%eax, %ecx	# tmp74, tmp79
	sall	%cl, %edx	# tmp79, D.10875
	movl	target_units(%rip), %eax	# target_units, target_units.8
	orl	%edx, %eax	# D.10875, target_units.9
	movl	%eax, target_units(%rip)	# target_units.9, target_units
.L11:
	.loc 1 102 0
	movq	-8(%rbp), %rax	# insn, tmp76
	movq	16(%rax), %rax	# insn_1->fld[1].rtx, tmp77
	movq	%rax, -8(%rbp)	# tmp77, insn
.L9:
	.loc 1 102 0 is_stmt 0 discriminator 1
	cmpq	$0, -8(%rbp)	#, insn
	jne	.L13	#,
	.loc 1 114 0 is_stmt 1
	leave
	.cfi_def_cfa 7, 8
	ret
	.cfi_endproc
.LFE3:
	.size	init_target_units, .-init_target_units
	.section	.rodata
.LC1:
	.string	"uname"
.LC2:
	.string	"  %33s"
	.text
	.type	get_visual_tbl_length, @function
get_visual_tbl_length:
.LFB4:
	.loc 1 120 0
	.cfi_startproc
	pushq	%rbp	#
	.cfi_def_cfa_offset 16
	.cfi_offset 6, -16
	movq	%rsp, %rbp	#,
	.cfi_def_cfa_register 6
	subq	$32, %rsp	#,
	.loc 1 126 0
	movl	$16, %eax	#, tmp96
	subq	$1, %rax	#, tmp69
	addq	$51, %rax	#, tmp70
	movl	$16, %ecx	#, tmp97
	movl	$0, %edx	#, tmp73
	divq	%rcx	# tmp97
	imulq	$16, %rax, %rax	#, tmp72, tmp74
	subq	%rax, %rsp	# tmp74,
	movq	%rsp, %rax	#, tmp75
	addq	$15, %rax	#, tmp76
	shrq	$4, %rax	#, tmp77
	salq	$4, %rax	#, tmp78
	movq	%rax, -8(%rbp)	# tmp78, s
	.loc 1 127 0
	movq	-8(%rbp), %rax	# s, tmp79
	movl	$.LC1, %edx	#,
	movl	$.LC2, %esi	#,
	movq	%rax, %rdi	# tmp79,
	movl	$0, %eax	#,
	call	sprintf	#
	.loc 1 128 0
	movq	-8(%rbp), %rax	# s, tmp80
	movq	%rax, %rdi	# tmp80,
	call	strlen	#
	movl	%eax, -12(%rbp)	# D.10877, n1
	.loc 1 131 0
	movl	$3, -16(%rbp)	#, n
	.loc 1 132 0
	movl	-12(%rbp), %eax	# n1, tmp81
	addl	%eax, -16(%rbp)	# tmp81, n
	.loc 1 133 0
	movl	$0, -24(%rbp)	#, unit
	jmp	.L15	#
.L19:
	.loc 1 134 0
	movl	-24(%rbp), %eax	# unit, tmp83
	movslq	%eax, %rdx	# tmp83, tmp82
	movq	%rdx, %rax	# tmp82, tmp84
	salq	$3, %rax	#, tmp84
	addq	%rdx, %rax	# tmp82, tmp84
	salq	$3, %rax	#, tmp85
	addq	$function_units, %rax	#, tmp86
	movl	8(%rax), %edx	# function_units[unit_1].bitmask, D.10878
	movl	target_units(%rip), %eax	# target_units, target_units.10
	andl	%edx, %eax	# D.10878, D.10878
	testl	%eax, %eax	# D.10878
	je	.L16	#,
	.loc 1 135 0
	movl	$0, -20(%rbp)	#, i
	jmp	.L17	#
.L18:
	.loc 1 136 0 discriminator 2
	movl	-12(%rbp), %eax	# n1, tmp87
	addl	%eax, -16(%rbp)	# tmp87, n
	.loc 1 135 0 discriminator 2
	addl	$1, -20(%rbp)	#, i
.L17:
	.loc 1 135 0 is_stmt 0 discriminator 1
	movl	-24(%rbp), %eax	# unit, tmp89
	movslq	%eax, %rdx	# tmp89, tmp88
	movq	%rdx, %rax	# tmp88, tmp90
	salq	$3, %rax	#, tmp90
	addq	%rdx, %rax	# tmp88, tmp90
	salq	$3, %rax	#, tmp91
	addq	$function_units, %rax	#, tmp92
	movl	12(%rax), %eax	# function_units[unit_1].multiplicity, D.10878
	cmpl	-20(%rbp), %eax	# i, D.10878
	jg	.L18	#,
.L16:
	.loc 1 133 0 is_stmt 1
	addl	$1, -24(%rbp)	#, unit
.L15:
	.loc 1 133 0 is_stmt 0 discriminator 1
	cmpl	$25, -24(%rbp)	#, unit
	jle	.L19	#,
	.loc 1 137 0 is_stmt 1
	movl	-12(%rbp), %eax	# n1, tmp93
	addl	%eax, -16(%rbp)	# tmp93, n
	.loc 1 138 0
	movl	-16(%rbp), %eax	# n, n.11
	addl	$3, %eax	#, D.10879
	movl	%eax, -16(%rbp)	# D.10879, n
	.loc 1 140 0
	movl	-16(%rbp), %eax	# n, n.12
	movl	%eax, visual_tbl_line_length(%rip)	# n.12, visual_tbl_line_length
	.loc 1 143 0
	movl	-16(%rbp), %eax	# n, tmp94
	imull	$100, %eax, %eax	#, tmp94, D.10878
	.loc 1 144 0
	leave
	.cfi_def_cfa 7, 8
	ret
	.cfi_endproc
.LFE4:
	.size	get_visual_tbl_length, .-get_visual_tbl_length
	.globl	init_block_visualization
	.type	init_block_visualization, @function
init_block_visualization:
.LFB5:
	.loc 1 150 0
	.cfi_startproc
	pushq	%rbp	#
	.cfi_def_cfa_offset 16
	.cfi_offset 6, -16
	movq	%rsp, %rbp	#,
	.cfi_def_cfa_register 6
	.loc 1 151 0
	movq	visual_tbl(%rip), %rax	# visual_tbl, visual_tbl.13
	movb	$0, (%rax)	#, MEM[(void *)visual_tbl.13_1]
	.loc 1 152 0
	movl	$0, n_visual_lines(%rip)	#, n_visual_lines
	.loc 1 153 0
	movl	$0, n_vis_no_unit(%rip)	#, n_vis_no_unit
	.loc 1 154 0
	popq	%rbp	#
	.cfi_def_cfa 7, 8
	ret
	.cfi_endproc
.LFE5:
	.size	init_block_visualization, .-init_block_visualization
	.type	safe_concat, @function
safe_concat:
.LFB6:
	.loc 1 163 0
	.cfi_startproc
	pushq	%rbp	#
	.cfi_def_cfa_offset 16
	.cfi_offset 6, -16
	movq	%rsp, %rbp	#,
	.cfi_def_cfa_register 6
	movq	%rdi, -24(%rbp)	# buf, buf
	movq	%rsi, -32(%rbp)	# cur, cur
	movq	%rdx, -40(%rbp)	# str, str
	.loc 1 164 0
	movq	-24(%rbp), %rax	# buf, tmp68
	addq	$2046, %rax	#, tmp67
	movq	%rax, -8(%rbp)	# tmp67, end
	.loc 1 167 0
	movq	-32(%rbp), %rax	# cur, tmp69
	cmpq	-8(%rbp), %rax	# end, tmp69
	jbe	.L23	#,
	.loc 1 169 0
	movq	-8(%rbp), %rax	# end, tmp70
	movb	$0, (%rax)	#, *end_5
	.loc 1 170 0
	movq	-8(%rbp), %rax	# end, D.10883
	jmp	.L24	#
.L23:
	.loc 1 173 0
	jmp	.L25	#
.L27:
	.loc 1 174 0
	movq	-32(%rbp), %rax	# cur, cur.14
	leaq	1(%rax), %rdx	#, tmp71
	movq	%rdx, -32(%rbp)	# tmp71, cur
	movl	-12(%rbp), %edx	# c, tmp72
	movb	%dl, (%rax)	# D.10884, *cur.14_13
.L25:
	.loc 1 173 0 discriminator 1
	movq	-32(%rbp), %rax	# cur, tmp73
	cmpq	-8(%rbp), %rax	# end, tmp73
	jae	.L26	#,
	.loc 1 173 0 is_stmt 0 discriminator 2
	movq	-40(%rbp), %rax	# str, str.15
	leaq	1(%rax), %rdx	#, tmp74
	movq	%rdx, -40(%rbp)	# tmp74, str
	movzbl	(%rax), %eax	# *str.15_9, D.10884
	movsbl	%al, %eax	# D.10884, tmp75
	movl	%eax, -12(%rbp)	# tmp75, c
	cmpl	$0, -12(%rbp)	#, c
	jne	.L27	#,
.L26:
	.loc 1 176 0 is_stmt 1
	movq	-32(%rbp), %rax	# cur, tmp76
	movb	$0, (%rax)	#, *cur_1
	.loc 1 177 0
	movq	-32(%rbp), %rax	# cur, D.10883
.L24:
	.loc 1 178 0
	popq	%rbp	#
	.cfi_def_cfa 7, 8
	ret
	.cfi_endproc
.LFE6:
	.size	safe_concat, .-safe_concat
	.section	.rodata
.LC3:
	.string	"-"
.LC4:
	.string	"+"
.LC5:
	.string	"+low("
.LC6:
	.string	")"
.LC7:
	.string	"cmp"
.LC8:
	.string	"*"
.LC9:
	.string	"/"
.LC10:
	.string	"udiv"
.LC11:
	.string	"%"
.LC12:
	.string	"umod"
.LC13:
	.string	"smin"
.LC14:
	.string	"smax"
.LC15:
	.string	"umin"
.LC16:
	.string	"umax"
.LC17:
	.string	"!"
.LC18:
	.string	"&"
.LC19:
	.string	"|"
.LC20:
	.string	"^"
.LC21:
	.string	"<<"
.LC22:
	.string	" 0>>"
.LC23:
	.string	">>"
.LC24:
	.string	"<-<"
.LC25:
	.string	">->"
.LC26:
	.string	"abs"
.LC27:
	.string	"sqrt"
.LC28:
	.string	"ffs"
.LC29:
	.string	"=="
.LC30:
	.string	"!="
.LC31:
	.string	">"
.LC32:
	.string	"gtu"
.LC33:
	.string	"<"
.LC34:
	.string	"ltu"
.LC35:
	.string	">="
.LC36:
	.string	"geu"
.LC37:
	.string	"<="
.LC38:
	.string	"leu"
.LC39:
	.string	"sign_extract"
.LC40:
	.string	"sxt"
.LC41:
	.string	"zero_extract"
.LC42:
	.string	"zxt"
.LC43:
	.string	"sign_extend"
.LC44:
	.string	"sxn"
.LC45:
	.string	"zero_extend"
.LC46:
	.string	"zxn"
.LC47:
	.string	"float_extend"
.LC48:
	.string	"fxn"
.LC49:
	.string	"trunc"
.LC50:
	.string	"trn"
.LC51:
	.string	"float_trunc"
.LC52:
	.string	"ftr"
.LC53:
	.string	"float"
.LC54:
	.string	"flt"
.LC55:
	.string	"uns_float"
.LC56:
	.string	"ufl"
.LC57:
	.string	"fix"
.LC58:
	.string	"uns_fix"
.LC59:
	.string	"ufx"
.LC60:
	.string	"--"
.LC61:
	.string	"++"
.LC62:
	.string	"call "
.LC63:
	.string	" argc:"
.LC64:
	.string	"{("
.LC65:
	.string	")?"
.LC66:
	.string	":"
.LC67:
	.string	"}"
.LC68:
	.string	"trap_if"
.LC69:
	.string	"prefetch"
.LC70:
	.string	"unspec"
.LC71:
	.string	"/v"
.LC72:
	.string	"["
.LC73:
	.string	""
.LC74:
	.string	","
.LC75:
	.string	"] "
.LC76:
	.string	"%d"
.LC77:
	.string	"("
	.text
	.type	print_exp, @function
print_exp:
.LFB7:
	.loc 1 189 0
	.cfi_startproc
	pushq	%rbp	#
	.cfi_def_cfa_offset 16
	.cfi_offset 6, -16
	movq	%rsp, %rbp	#,
	.cfi_def_cfa_register 6
	subq	$2192, %rsp	#,
	movq	%rdi, -2168(%rbp)	# buf, buf
	movq	%rsi, -2176(%rbp)	# x, x
	movl	%edx, -2180(%rbp)	# verbose, verbose
	.loc 1 189 0
	movq	%fs:40, %rax	#, tmp359
	movq	%rax, -8(%rbp)	# tmp359, D.10892
	xorl	%eax, %eax	# tmp359
	.loc 1 192 0
	movq	-2168(%rbp), %rax	# buf, tmp187
	movq	%rax, -2152(%rbp)	# tmp187, cur
	.loc 1 193 0
	movq	$0, -2144(%rbp)	#, fun
	.loc 1 198 0
	movl	$0, -2156(%rbp)	#, i
	jmp	.L29	#
.L30:
	.loc 1 200 0 discriminator 2
	movl	-2156(%rbp), %eax	# i, tmp189
	cltq
	movq	$0, -2128(%rbp,%rax,8)	#, st
	.loc 1 201 0 discriminator 2
	movl	-2156(%rbp), %eax	# i, tmp191
	cltq
	movq	$0, -2096(%rbp,%rax,8)	#, op
	.loc 1 198 0 discriminator 2
	addl	$1, -2156(%rbp)	#, i
.L29:
	.loc 1 198 0 is_stmt 0 discriminator 1
	cmpl	$3, -2156(%rbp)	#, i
	jle	.L30	#,
	.loc 1 204 0 is_stmt 1
	movq	-2176(%rbp), %rax	# x, tmp192
	movzwl	(%rax), %eax	# x_29(D)->code, D.10885
	movzwl	%ax, %eax	# D.10885, D.10886
	subl	$42, %eax	#, tmp193
	cmpl	$93, %eax	#, tmp193
	ja	.L31	#,
	movl	%eax, %eax	# tmp193, tmp194
	movq	.L33(,%rax,8), %rax	#, tmp195
	jmp	*%rax	# tmp195
	.section	.rodata
	.align 8
	.align 4
.L33:
	.quad	.L32
	.quad	.L32
	.quad	.L31
	.quad	.L31
	.quad	.L34
	.quad	.L31
	.quad	.L31
	.quad	.L31
	.quad	.L35
	.quad	.L31
	.quad	.L36
	.quad	.L31
	.quad	.L31
	.quad	.L31
	.quad	.L31
	.quad	.L31
	.quad	.L31
	.quad	.L31
	.quad	.L31
	.quad	.L31
	.quad	.L31
	.quad	.L31
	.quad	.L31
	.quad	.L31
	.quad	.L31
	.quad	.L31
	.quad	.L31
	.quad	.L31
	.quad	.L31
	.quad	.L31
	.quad	.L37
	.quad	.L31
	.quad	.L38
	.quad	.L39
	.quad	.L40
	.quad	.L41
	.quad	.L42
	.quad	.L43
	.quad	.L44
	.quad	.L45
	.quad	.L46
	.quad	.L47
	.quad	.L48
	.quad	.L49
	.quad	.L50
	.quad	.L51
	.quad	.L52
	.quad	.L53
	.quad	.L54
	.quad	.L55
	.quad	.L56
	.quad	.L57
	.quad	.L58
	.quad	.L59
	.quad	.L60
	.quad	.L61
	.quad	.L62
	.quad	.L63
	.quad	.L31
	.quad	.L31
	.quad	.L64
	.quad	.L65
	.quad	.L66
	.quad	.L67
	.quad	.L68
	.quad	.L69
	.quad	.L70
	.quad	.L71
	.quad	.L72
	.quad	.L73
	.quad	.L31
	.quad	.L31
	.quad	.L31
	.quad	.L31
	.quad	.L31
	.quad	.L31
	.quad	.L31
	.quad	.L31
	.quad	.L74
	.quad	.L75
	.quad	.L76
	.quad	.L77
	.quad	.L78
	.quad	.L79
	.quad	.L80
	.quad	.L81
	.quad	.L82
	.quad	.L83
	.quad	.L84
	.quad	.L85
	.quad	.L86
	.quad	.L87
	.quad	.L31
	.quad	.L88
	.text
.L39:
	.loc 1 207 0
	movq	-2176(%rbp), %rax	# x, tmp196
	movq	8(%rax), %rax	# x_29(D)->fld[0].rtx, D.10887
	movq	%rax, -2096(%rbp)	# D.10887, op
	.loc 1 208 0
	movq	-2176(%rbp), %rax	# x, tmp197
	movq	16(%rax), %rax	# x_29(D)->fld[1].rtx, D.10887
	movzwl	(%rax), %eax	# _33->code, D.10885
	cmpw	$54, %ax	#, D.10885
	jne	.L89	#,
	.loc 1 209 0
	movq	-2176(%rbp), %rax	# x, tmp198
	movq	16(%rax), %rax	# x_29(D)->fld[1].rtx, D.10887
	movq	8(%rax), %rax	# _35->fld[0].rtwint, D.10888
	testq	%rax, %rax	# D.10888
	jns	.L89	#,
	.loc 1 211 0
	movq	$.LC3, -2120(%rbp)	#, st
	.loc 1 212 0
	movq	-2176(%rbp), %rax	# x, tmp199
	movq	16(%rax), %rax	# x_29(D)->fld[1].rtx, D.10887
	movq	8(%rax), %rax	# _37->fld[0].rtwint, D.10888
	negq	%rax	# D.10888
	movq	%rax, %rsi	# D.10888,
	movl	$0, %edi	#,
	call	gen_rtx_CONST_INT	#
	movq	%rax, -2088(%rbp)	# D.10887, op
	.loc 1 219 0
	jmp	.L91	#
.L89:
	.loc 1 216 0
	movq	$.LC4, -2120(%rbp)	#, st
	.loc 1 217 0
	movq	-2176(%rbp), %rax	# x, tmp200
	movq	16(%rax), %rax	# x_29(D)->fld[1].rtx, D.10887
	movq	%rax, -2088(%rbp)	# D.10887, op
	.loc 1 219 0
	jmp	.L91	#
.L88:
	.loc 1 221 0
	movq	-2176(%rbp), %rax	# x, tmp201
	movq	8(%rax), %rax	# x_29(D)->fld[0].rtx, D.10887
	movq	%rax, -2096(%rbp)	# D.10887, op
	.loc 1 222 0
	movq	$.LC5, -2120(%rbp)	#, st
	.loc 1 223 0
	movq	-2176(%rbp), %rax	# x, tmp202
	movq	16(%rax), %rax	# x_29(D)->fld[1].rtx, D.10887
	movq	%rax, -2088(%rbp)	# D.10887, op
	.loc 1 224 0
	movq	$.LC6, -2112(%rbp)	#, st
	.loc 1 225 0
	jmp	.L91	#
.L40:
	.loc 1 227 0
	movq	-2176(%rbp), %rax	# x, tmp203
	movq	8(%rax), %rax	# x_29(D)->fld[0].rtx, D.10887
	movq	%rax, -2096(%rbp)	# D.10887, op
	.loc 1 228 0
	movq	$.LC3, -2120(%rbp)	#, st
	.loc 1 229 0
	movq	-2176(%rbp), %rax	# x, tmp204
	movq	16(%rax), %rax	# x_29(D)->fld[1].rtx, D.10887
	movq	%rax, -2088(%rbp)	# D.10887, op
	.loc 1 230 0
	jmp	.L91	#
.L38:
	.loc 1 232 0
	movq	$.LC7, -2144(%rbp)	#, fun
	.loc 1 233 0
	movq	-2176(%rbp), %rax	# x, tmp205
	movq	8(%rax), %rax	# x_29(D)->fld[0].rtx, D.10887
	movq	%rax, -2096(%rbp)	# D.10887, op
	.loc 1 234 0
	movq	-2176(%rbp), %rax	# x, tmp206
	movq	16(%rax), %rax	# x_29(D)->fld[1].rtx, D.10887
	movq	%rax, -2088(%rbp)	# D.10887, op
	.loc 1 235 0
	jmp	.L91	#
.L41:
	.loc 1 237 0
	movq	$.LC3, -2128(%rbp)	#, st
	.loc 1 238 0
	movq	-2176(%rbp), %rax	# x, tmp207
	movq	8(%rax), %rax	# x_29(D)->fld[0].rtx, D.10887
	movq	%rax, -2096(%rbp)	# D.10887, op
	.loc 1 239 0
	jmp	.L91	#
.L42:
	.loc 1 241 0
	movq	-2176(%rbp), %rax	# x, tmp208
	movq	8(%rax), %rax	# x_29(D)->fld[0].rtx, D.10887
	movq	%rax, -2096(%rbp)	# D.10887, op
	.loc 1 242 0
	movq	$.LC8, -2120(%rbp)	#, st
	.loc 1 243 0
	movq	-2176(%rbp), %rax	# x, tmp209
	movq	16(%rax), %rax	# x_29(D)->fld[1].rtx, D.10887
	movq	%rax, -2088(%rbp)	# D.10887, op
	.loc 1 244 0
	jmp	.L91	#
.L43:
	.loc 1 246 0
	movq	-2176(%rbp), %rax	# x, tmp210
	movq	8(%rax), %rax	# x_29(D)->fld[0].rtx, D.10887
	movq	%rax, -2096(%rbp)	# D.10887, op
	.loc 1 247 0
	movq	$.LC9, -2120(%rbp)	#, st
	.loc 1 248 0
	movq	-2176(%rbp), %rax	# x, tmp211
	movq	16(%rax), %rax	# x_29(D)->fld[1].rtx, D.10887
	movq	%rax, -2088(%rbp)	# D.10887, op
	.loc 1 249 0
	jmp	.L91	#
.L45:
	.loc 1 251 0
	movq	$.LC10, -2144(%rbp)	#, fun
	.loc 1 252 0
	movq	-2176(%rbp), %rax	# x, tmp212
	movq	8(%rax), %rax	# x_29(D)->fld[0].rtx, D.10887
	movq	%rax, -2096(%rbp)	# D.10887, op
	.loc 1 253 0
	movq	-2176(%rbp), %rax	# x, tmp213
	movq	16(%rax), %rax	# x_29(D)->fld[1].rtx, D.10887
	movq	%rax, -2088(%rbp)	# D.10887, op
	.loc 1 254 0
	jmp	.L91	#
.L44:
	.loc 1 256 0
	movq	-2176(%rbp), %rax	# x, tmp214
	movq	8(%rax), %rax	# x_29(D)->fld[0].rtx, D.10887
	movq	%rax, -2096(%rbp)	# D.10887, op
	.loc 1 257 0
	movq	$.LC11, -2120(%rbp)	#, st
	.loc 1 258 0
	movq	-2176(%rbp), %rax	# x, tmp215
	movq	16(%rax), %rax	# x_29(D)->fld[1].rtx, D.10887
	movq	%rax, -2088(%rbp)	# D.10887, op
	.loc 1 259 0
	jmp	.L91	#
.L46:
	.loc 1 261 0
	movq	$.LC12, -2144(%rbp)	#, fun
	.loc 1 262 0
	movq	-2176(%rbp), %rax	# x, tmp216
	movq	8(%rax), %rax	# x_29(D)->fld[0].rtx, D.10887
	movq	%rax, -2096(%rbp)	# D.10887, op
	.loc 1 263 0
	movq	-2176(%rbp), %rax	# x, tmp217
	movq	16(%rax), %rax	# x_29(D)->fld[1].rtx, D.10887
	movq	%rax, -2088(%rbp)	# D.10887, op
	.loc 1 264 0
	jmp	.L91	#
.L56:
	.loc 1 266 0
	movq	$.LC13, -2144(%rbp)	#, fun
	.loc 1 267 0
	movq	-2176(%rbp), %rax	# x, tmp218
	movq	8(%rax), %rax	# x_29(D)->fld[0].rtx, D.10887
	movq	%rax, -2096(%rbp)	# D.10887, op
	.loc 1 268 0
	movq	-2176(%rbp), %rax	# x, tmp219
	movq	16(%rax), %rax	# x_29(D)->fld[1].rtx, D.10887
	movq	%rax, -2088(%rbp)	# D.10887, op
	.loc 1 269 0
	jmp	.L91	#
.L57:
	.loc 1 271 0
	movq	$.LC14, -2144(%rbp)	#, fun
	.loc 1 272 0
	movq	-2176(%rbp), %rax	# x, tmp220
	movq	8(%rax), %rax	# x_29(D)->fld[0].rtx, D.10887
	movq	%rax, -2096(%rbp)	# D.10887, op
	.loc 1 273 0
	movq	-2176(%rbp), %rax	# x, tmp221
	movq	16(%rax), %rax	# x_29(D)->fld[1].rtx, D.10887
	movq	%rax, -2088(%rbp)	# D.10887, op
	.loc 1 274 0
	jmp	.L91	#
.L58:
	.loc 1 276 0
	movq	$.LC15, -2144(%rbp)	#, fun
	.loc 1 277 0
	movq	-2176(%rbp), %rax	# x, tmp222
	movq	8(%rax), %rax	# x_29(D)->fld[0].rtx, D.10887
	movq	%rax, -2096(%rbp)	# D.10887, op
	.loc 1 278 0
	movq	-2176(%rbp), %rax	# x, tmp223
	movq	16(%rax), %rax	# x_29(D)->fld[1].rtx, D.10887
	movq	%rax, -2088(%rbp)	# D.10887, op
	.loc 1 279 0
	jmp	.L91	#
.L59:
	.loc 1 281 0
	movq	$.LC16, -2144(%rbp)	#, fun
	.loc 1 282 0
	movq	-2176(%rbp), %rax	# x, tmp224
	movq	8(%rax), %rax	# x_29(D)->fld[0].rtx, D.10887
	movq	%rax, -2096(%rbp)	# D.10887, op
	.loc 1 283 0
	movq	-2176(%rbp), %rax	# x, tmp225
	movq	16(%rax), %rax	# x_29(D)->fld[1].rtx, D.10887
	movq	%rax, -2088(%rbp)	# D.10887, op
	.loc 1 284 0
	jmp	.L91	#
.L50:
	.loc 1 286 0
	movq	$.LC17, -2128(%rbp)	#, st
	.loc 1 287 0
	movq	-2176(%rbp), %rax	# x, tmp226
	movq	8(%rax), %rax	# x_29(D)->fld[0].rtx, D.10887
	movq	%rax, -2096(%rbp)	# D.10887, op
	.loc 1 288 0
	jmp	.L91	#
.L47:
	.loc 1 290 0
	movq	-2176(%rbp), %rax	# x, tmp227
	movq	8(%rax), %rax	# x_29(D)->fld[0].rtx, D.10887
	movq	%rax, -2096(%rbp)	# D.10887, op
	.loc 1 291 0
	movq	$.LC18, -2120(%rbp)	#, st
	.loc 1 292 0
	movq	-2176(%rbp), %rax	# x, tmp228
	movq	16(%rax), %rax	# x_29(D)->fld[1].rtx, D.10887
	movq	%rax, -2088(%rbp)	# D.10887, op
	.loc 1 293 0
	jmp	.L91	#
.L48:
	.loc 1 295 0
	movq	-2176(%rbp), %rax	# x, tmp229
	movq	8(%rax), %rax	# x_29(D)->fld[0].rtx, D.10887
	movq	%rax, -2096(%rbp)	# D.10887, op
	.loc 1 296 0
	movq	$.LC19, -2120(%rbp)	#, st
	.loc 1 297 0
	movq	-2176(%rbp), %rax	# x, tmp230
	movq	16(%rax), %rax	# x_29(D)->fld[1].rtx, D.10887
	movq	%rax, -2088(%rbp)	# D.10887, op
	.loc 1 298 0
	jmp	.L91	#
.L49:
	.loc 1 300 0
	movq	-2176(%rbp), %rax	# x, tmp231
	movq	8(%rax), %rax	# x_29(D)->fld[0].rtx, D.10887
	movq	%rax, -2096(%rbp)	# D.10887, op
	.loc 1 301 0
	movq	$.LC20, -2120(%rbp)	#, st
	.loc 1 302 0
	movq	-2176(%rbp), %rax	# x, tmp232
	movq	16(%rax), %rax	# x_29(D)->fld[1].rtx, D.10887
	movq	%rax, -2088(%rbp)	# D.10887, op
	.loc 1 303 0
	jmp	.L91	#
.L51:
	.loc 1 305 0
	movq	-2176(%rbp), %rax	# x, tmp233
	movq	8(%rax), %rax	# x_29(D)->fld[0].rtx, D.10887
	movq	%rax, -2096(%rbp)	# D.10887, op
	.loc 1 306 0
	movq	$.LC21, -2120(%rbp)	#, st
	.loc 1 307 0
	movq	-2176(%rbp), %rax	# x, tmp234
	movq	16(%rax), %rax	# x_29(D)->fld[1].rtx, D.10887
	movq	%rax, -2088(%rbp)	# D.10887, op
	.loc 1 308 0
	jmp	.L91	#
.L54:
	.loc 1 310 0
	movq	-2176(%rbp), %rax	# x, tmp235
	movq	8(%rax), %rax	# x_29(D)->fld[0].rtx, D.10887
	movq	%rax, -2096(%rbp)	# D.10887, op
	.loc 1 311 0
	movq	$.LC22, -2120(%rbp)	#, st
	.loc 1 312 0
	movq	-2176(%rbp), %rax	# x, tmp236
	movq	16(%rax), %rax	# x_29(D)->fld[1].rtx, D.10887
	movq	%rax, -2088(%rbp)	# D.10887, op
	.loc 1 313 0
	jmp	.L91	#
.L53:
	.loc 1 315 0
	movq	-2176(%rbp), %rax	# x, tmp237
	movq	8(%rax), %rax	# x_29(D)->fld[0].rtx, D.10887
	movq	%rax, -2096(%rbp)	# D.10887, op
	.loc 1 316 0
	movq	$.LC23, -2120(%rbp)	#, st
	.loc 1 317 0
	movq	-2176(%rbp), %rax	# x, tmp238
	movq	16(%rax), %rax	# x_29(D)->fld[1].rtx, D.10887
	movq	%rax, -2088(%rbp)	# D.10887, op
	.loc 1 318 0
	jmp	.L91	#
.L52:
	.loc 1 320 0
	movq	-2176(%rbp), %rax	# x, tmp239
	movq	8(%rax), %rax	# x_29(D)->fld[0].rtx, D.10887
	movq	%rax, -2096(%rbp)	# D.10887, op
	.loc 1 321 0
	movq	$.LC24, -2120(%rbp)	#, st
	.loc 1 322 0
	movq	-2176(%rbp), %rax	# x, tmp240
	movq	16(%rax), %rax	# x_29(D)->fld[1].rtx, D.10887
	movq	%rax, -2088(%rbp)	# D.10887, op
	.loc 1 323 0
	jmp	.L91	#
.L55:
	.loc 1 325 0
	movq	-2176(%rbp), %rax	# x, tmp241
	movq	8(%rax), %rax	# x_29(D)->fld[0].rtx, D.10887
	movq	%rax, -2096(%rbp)	# D.10887, op
	.loc 1 326 0
	movq	$.LC25, -2120(%rbp)	#, st
	.loc 1 327 0
	movq	-2176(%rbp), %rax	# x, tmp242
	movq	16(%rax), %rax	# x_29(D)->fld[1].rtx, D.10887
	movq	%rax, -2088(%rbp)	# D.10887, op
	.loc 1 328 0
	jmp	.L91	#
.L83:
	.loc 1 330 0
	movq	$.LC26, -2144(%rbp)	#, fun
	.loc 1 331 0
	movq	-2176(%rbp), %rax	# x, tmp243
	movq	8(%rax), %rax	# x_29(D)->fld[0].rtx, D.10887
	movq	%rax, -2096(%rbp)	# D.10887, op
	.loc 1 332 0
	jmp	.L91	#
.L84:
	.loc 1 334 0
	movq	$.LC27, -2144(%rbp)	#, fun
	.loc 1 335 0
	movq	-2176(%rbp), %rax	# x, tmp244
	movq	8(%rax), %rax	# x_29(D)->fld[0].rtx, D.10887
	movq	%rax, -2096(%rbp)	# D.10887, op
	.loc 1 336 0
	jmp	.L91	#
.L85:
	.loc 1 338 0
	movq	$.LC28, -2144(%rbp)	#, fun
	.loc 1 339 0
	movq	-2176(%rbp), %rax	# x, tmp245
	movq	8(%rax), %rax	# x_29(D)->fld[0].rtx, D.10887
	movq	%rax, -2096(%rbp)	# D.10887, op
	.loc 1 340 0
	jmp	.L91	#
.L65:
	.loc 1 342 0
	movq	-2176(%rbp), %rax	# x, tmp246
	movq	8(%rax), %rax	# x_29(D)->fld[0].rtx, D.10887
	movq	%rax, -2096(%rbp)	# D.10887, op
	.loc 1 343 0
	movq	$.LC29, -2120(%rbp)	#, st
	.loc 1 344 0
	movq	-2176(%rbp), %rax	# x, tmp247
	movq	16(%rax), %rax	# x_29(D)->fld[1].rtx, D.10887
	movq	%rax, -2088(%rbp)	# D.10887, op
	.loc 1 345 0
	jmp	.L91	#
.L64:
	.loc 1 347 0
	movq	-2176(%rbp), %rax	# x, tmp248
	movq	8(%rax), %rax	# x_29(D)->fld[0].rtx, D.10887
	movq	%rax, -2096(%rbp)	# D.10887, op
	.loc 1 348 0
	movq	$.LC30, -2120(%rbp)	#, st
	.loc 1 349 0
	movq	-2176(%rbp), %rax	# x, tmp249
	movq	16(%rax), %rax	# x_29(D)->fld[1].rtx, D.10887
	movq	%rax, -2088(%rbp)	# D.10887, op
	.loc 1 350 0
	jmp	.L91	#
.L67:
	.loc 1 352 0
	movq	-2176(%rbp), %rax	# x, tmp250
	movq	8(%rax), %rax	# x_29(D)->fld[0].rtx, D.10887
	movq	%rax, -2096(%rbp)	# D.10887, op
	.loc 1 353 0
	movq	$.LC31, -2120(%rbp)	#, st
	.loc 1 354 0
	movq	-2176(%rbp), %rax	# x, tmp251
	movq	16(%rax), %rax	# x_29(D)->fld[1].rtx, D.10887
	movq	%rax, -2088(%rbp)	# D.10887, op
	.loc 1 355 0
	jmp	.L91	#
.L71:
	.loc 1 357 0
	movq	$.LC32, -2144(%rbp)	#, fun
	.loc 1 358 0
	movq	-2176(%rbp), %rax	# x, tmp252
	movq	8(%rax), %rax	# x_29(D)->fld[0].rtx, D.10887
	movq	%rax, -2096(%rbp)	# D.10887, op
	.loc 1 359 0
	movq	-2176(%rbp), %rax	# x, tmp253
	movq	16(%rax), %rax	# x_29(D)->fld[1].rtx, D.10887
	movq	%rax, -2088(%rbp)	# D.10887, op
	.loc 1 360 0
	jmp	.L91	#
.L69:
	.loc 1 362 0
	movq	-2176(%rbp), %rax	# x, tmp254
	movq	8(%rax), %rax	# x_29(D)->fld[0].rtx, D.10887
	movq	%rax, -2096(%rbp)	# D.10887, op
	.loc 1 363 0
	movq	$.LC33, -2120(%rbp)	#, st
	.loc 1 364 0
	movq	-2176(%rbp), %rax	# x, tmp255
	movq	16(%rax), %rax	# x_29(D)->fld[1].rtx, D.10887
	movq	%rax, -2088(%rbp)	# D.10887, op
	.loc 1 365 0
	jmp	.L91	#
.L73:
	.loc 1 367 0
	movq	$.LC34, -2144(%rbp)	#, fun
	.loc 1 368 0
	movq	-2176(%rbp), %rax	# x, tmp256
	movq	8(%rax), %rax	# x_29(D)->fld[0].rtx, D.10887
	movq	%rax, -2096(%rbp)	# D.10887, op
	.loc 1 369 0
	movq	-2176(%rbp), %rax	# x, tmp257
	movq	16(%rax), %rax	# x_29(D)->fld[1].rtx, D.10887
	movq	%rax, -2088(%rbp)	# D.10887, op
	.loc 1 370 0
	jmp	.L91	#
.L66:
	.loc 1 372 0
	movq	-2176(%rbp), %rax	# x, tmp258
	movq	8(%rax), %rax	# x_29(D)->fld[0].rtx, D.10887
	movq	%rax, -2096(%rbp)	# D.10887, op
	.loc 1 373 0
	movq	$.LC35, -2120(%rbp)	#, st
	.loc 1 374 0
	movq	-2176(%rbp), %rax	# x, tmp259
	movq	16(%rax), %rax	# x_29(D)->fld[1].rtx, D.10887
	movq	%rax, -2088(%rbp)	# D.10887, op
	.loc 1 375 0
	jmp	.L91	#
.L70:
	.loc 1 377 0
	movq	$.LC36, -2144(%rbp)	#, fun
	.loc 1 378 0
	movq	-2176(%rbp), %rax	# x, tmp260
	movq	8(%rax), %rax	# x_29(D)->fld[0].rtx, D.10887
	movq	%rax, -2096(%rbp)	# D.10887, op
	.loc 1 379 0
	movq	-2176(%rbp), %rax	# x, tmp261
	movq	16(%rax), %rax	# x_29(D)->fld[1].rtx, D.10887
	movq	%rax, -2088(%rbp)	# D.10887, op
	.loc 1 380 0
	jmp	.L91	#
.L68:
	.loc 1 382 0
	movq	-2176(%rbp), %rax	# x, tmp262
	movq	8(%rax), %rax	# x_29(D)->fld[0].rtx, D.10887
	movq	%rax, -2096(%rbp)	# D.10887, op
	.loc 1 383 0
	movq	$.LC37, -2120(%rbp)	#, st
	.loc 1 384 0
	movq	-2176(%rbp), %rax	# x, tmp263
	movq	16(%rax), %rax	# x_29(D)->fld[1].rtx, D.10887
	movq	%rax, -2088(%rbp)	# D.10887, op
	.loc 1 385 0
	jmp	.L91	#
.L72:
	.loc 1 387 0
	movq	$.LC38, -2144(%rbp)	#, fun
	.loc 1 388 0
	movq	-2176(%rbp), %rax	# x, tmp264
	movq	8(%rax), %rax	# x_29(D)->fld[0].rtx, D.10887
	movq	%rax, -2096(%rbp)	# D.10887, op
	.loc 1 389 0
	movq	-2176(%rbp), %rax	# x, tmp265
	movq	16(%rax), %rax	# x_29(D)->fld[1].rtx, D.10887
	movq	%rax, -2088(%rbp)	# D.10887, op
	.loc 1 390 0
	jmp	.L91	#
.L86:
	.loc 1 392 0
	cmpl	$0, -2180(%rbp)	#, verbose
	je	.L92	#,
	.loc 1 392 0 is_stmt 0 discriminator 1
	movl	$.LC39, %eax	#, iftmp.16
	jmp	.L93	#
.L92:
	.loc 1 392 0 discriminator 2
	movl	$.LC40, %eax	#, iftmp.16
.L93:
	.loc 1 392 0 discriminator 3
	movq	%rax, -2144(%rbp)	# iftmp.16, fun
	.loc 1 393 0 is_stmt 1 discriminator 3
	movq	-2176(%rbp), %rax	# x, tmp266
	movq	8(%rax), %rax	# x_29(D)->fld[0].rtx, D.10887
	movq	%rax, -2096(%rbp)	# D.10887, op
	.loc 1 394 0 discriminator 3
	movq	-2176(%rbp), %rax	# x, tmp267
	movq	16(%rax), %rax	# x_29(D)->fld[1].rtx, D.10887
	movq	%rax, -2088(%rbp)	# D.10887, op
	.loc 1 395 0 discriminator 3
	movq	-2176(%rbp), %rax	# x, tmp268
	movq	24(%rax), %rax	# x_29(D)->fld[2].rtx, D.10887
	movq	%rax, -2080(%rbp)	# D.10887, op
	.loc 1 396 0 discriminator 3
	jmp	.L91	#
.L87:
	.loc 1 398 0
	cmpl	$0, -2180(%rbp)	#, verbose
	je	.L94	#,
	.loc 1 398 0 is_stmt 0 discriminator 1
	movl	$.LC41, %eax	#, iftmp.17
	jmp	.L95	#
.L94:
	.loc 1 398 0 discriminator 2
	movl	$.LC42, %eax	#, iftmp.17
.L95:
	.loc 1 398 0 discriminator 3
	movq	%rax, -2144(%rbp)	# iftmp.17, fun
	.loc 1 399 0 is_stmt 1 discriminator 3
	movq	-2176(%rbp), %rax	# x, tmp269
	movq	8(%rax), %rax	# x_29(D)->fld[0].rtx, D.10887
	movq	%rax, -2096(%rbp)	# D.10887, op
	.loc 1 400 0 discriminator 3
	movq	-2176(%rbp), %rax	# x, tmp270
	movq	16(%rax), %rax	# x_29(D)->fld[1].rtx, D.10887
	movq	%rax, -2088(%rbp)	# D.10887, op
	.loc 1 401 0 discriminator 3
	movq	-2176(%rbp), %rax	# x, tmp271
	movq	24(%rax), %rax	# x_29(D)->fld[2].rtx, D.10887
	movq	%rax, -2080(%rbp)	# D.10887, op
	.loc 1 402 0 discriminator 3
	jmp	.L91	#
.L74:
	.loc 1 404 0
	cmpl	$0, -2180(%rbp)	#, verbose
	je	.L96	#,
	.loc 1 404 0 is_stmt 0 discriminator 1
	movl	$.LC43, %eax	#, iftmp.18
	jmp	.L97	#
.L96:
	.loc 1 404 0 discriminator 2
	movl	$.LC44, %eax	#, iftmp.18
.L97:
	.loc 1 404 0 discriminator 3
	movq	%rax, -2144(%rbp)	# iftmp.18, fun
	.loc 1 405 0 is_stmt 1 discriminator 3
	movq	-2176(%rbp), %rax	# x, tmp272
	movq	8(%rax), %rax	# x_29(D)->fld[0].rtx, D.10887
	movq	%rax, -2096(%rbp)	# D.10887, op
	.loc 1 406 0 discriminator 3
	jmp	.L91	#
.L75:
	.loc 1 408 0
	cmpl	$0, -2180(%rbp)	#, verbose
	je	.L98	#,
	.loc 1 408 0 is_stmt 0 discriminator 1
	movl	$.LC45, %eax	#, iftmp.19
	jmp	.L99	#
.L98:
	.loc 1 408 0 discriminator 2
	movl	$.LC46, %eax	#, iftmp.19
.L99:
	.loc 1 408 0 discriminator 3
	movq	%rax, -2144(%rbp)	# iftmp.19, fun
	.loc 1 409 0 is_stmt 1 discriminator 3
	movq	-2176(%rbp), %rax	# x, tmp273
	movq	8(%rax), %rax	# x_29(D)->fld[0].rtx, D.10887
	movq	%rax, -2096(%rbp)	# D.10887, op
	.loc 1 410 0 discriminator 3
	jmp	.L91	#
.L77:
	.loc 1 412 0
	cmpl	$0, -2180(%rbp)	#, verbose
	je	.L100	#,
	.loc 1 412 0 is_stmt 0 discriminator 1
	movl	$.LC47, %eax	#, iftmp.20
	jmp	.L101	#
.L100:
	.loc 1 412 0 discriminator 2
	movl	$.LC48, %eax	#, iftmp.20
.L101:
	.loc 1 412 0 discriminator 3
	movq	%rax, -2144(%rbp)	# iftmp.20, fun
	.loc 1 413 0 is_stmt 1 discriminator 3
	movq	-2176(%rbp), %rax	# x, tmp274
	movq	8(%rax), %rax	# x_29(D)->fld[0].rtx, D.10887
	movq	%rax, -2096(%rbp)	# D.10887, op
	.loc 1 414 0 discriminator 3
	jmp	.L91	#
.L76:
	.loc 1 416 0
	cmpl	$0, -2180(%rbp)	#, verbose
	je	.L102	#,
	.loc 1 416 0 is_stmt 0 discriminator 1
	movl	$.LC49, %eax	#, iftmp.21
	jmp	.L103	#
.L102:
	.loc 1 416 0 discriminator 2
	movl	$.LC50, %eax	#, iftmp.21
.L103:
	.loc 1 416 0 discriminator 3
	movq	%rax, -2144(%rbp)	# iftmp.21, fun
	.loc 1 417 0 is_stmt 1 discriminator 3
	movq	-2176(%rbp), %rax	# x, tmp275
	movq	8(%rax), %rax	# x_29(D)->fld[0].rtx, D.10887
	movq	%rax, -2096(%rbp)	# D.10887, op
	.loc 1 418 0 discriminator 3
	jmp	.L91	#
.L78:
	.loc 1 420 0
	cmpl	$0, -2180(%rbp)	#, verbose
	je	.L104	#,
	.loc 1 420 0 is_stmt 0 discriminator 1
	movl	$.LC51, %eax	#, iftmp.22
	jmp	.L105	#
.L104:
	.loc 1 420 0 discriminator 2
	movl	$.LC52, %eax	#, iftmp.22
.L105:
	.loc 1 420 0 discriminator 3
	movq	%rax, -2144(%rbp)	# iftmp.22, fun
	.loc 1 421 0 is_stmt 1 discriminator 3
	movq	-2176(%rbp), %rax	# x, tmp276
	movq	8(%rax), %rax	# x_29(D)->fld[0].rtx, D.10887
	movq	%rax, -2096(%rbp)	# D.10887, op
	.loc 1 422 0 discriminator 3
	jmp	.L91	#
.L79:
	.loc 1 424 0
	cmpl	$0, -2180(%rbp)	#, verbose
	je	.L106	#,
	.loc 1 424 0 is_stmt 0 discriminator 1
	movl	$.LC53, %eax	#, iftmp.23
	jmp	.L107	#
.L106:
	.loc 1 424 0 discriminator 2
	movl	$.LC54, %eax	#, iftmp.23
.L107:
	.loc 1 424 0 discriminator 3
	movq	%rax, -2144(%rbp)	# iftmp.23, fun
	.loc 1 425 0 is_stmt 1 discriminator 3
	movq	-2176(%rbp), %rax	# x, tmp277
	movq	8(%rax), %rax	# x_29(D)->fld[0].rtx, D.10887
	movq	%rax, -2096(%rbp)	# D.10887, op
	.loc 1 426 0 discriminator 3
	jmp	.L91	#
.L81:
	.loc 1 428 0
	cmpl	$0, -2180(%rbp)	#, verbose
	je	.L108	#,
	.loc 1 428 0 is_stmt 0 discriminator 1
	movl	$.LC55, %eax	#, iftmp.24
	jmp	.L109	#
.L108:
	.loc 1 428 0 discriminator 2
	movl	$.LC56, %eax	#, iftmp.24
.L109:
	.loc 1 428 0 discriminator 3
	movq	%rax, -2144(%rbp)	# iftmp.24, fun
	.loc 1 429 0 is_stmt 1 discriminator 3
	movq	-2176(%rbp), %rax	# x, tmp278
	movq	8(%rax), %rax	# x_29(D)->fld[0].rtx, D.10887
	movq	%rax, -2096(%rbp)	# D.10887, op
	.loc 1 430 0 discriminator 3
	jmp	.L91	#
.L80:
	.loc 1 432 0
	movq	$.LC57, -2144(%rbp)	#, fun
	.loc 1 433 0
	movq	-2176(%rbp), %rax	# x, tmp279
	movq	8(%rax), %rax	# x_29(D)->fld[0].rtx, D.10887
	movq	%rax, -2096(%rbp)	# D.10887, op
	.loc 1 434 0
	jmp	.L91	#
.L82:
	.loc 1 436 0
	cmpl	$0, -2180(%rbp)	#, verbose
	je	.L110	#,
	.loc 1 436 0 is_stmt 0 discriminator 1
	movl	$.LC58, %eax	#, iftmp.25
	jmp	.L111	#
.L110:
	.loc 1 436 0 discriminator 2
	movl	$.LC59, %eax	#, iftmp.25
.L111:
	.loc 1 436 0 discriminator 3
	movq	%rax, -2144(%rbp)	# iftmp.25, fun
	.loc 1 437 0 is_stmt 1 discriminator 3
	movq	-2176(%rbp), %rax	# x, tmp280
	movq	8(%rax), %rax	# x_29(D)->fld[0].rtx, D.10887
	movq	%rax, -2096(%rbp)	# D.10887, op
	.loc 1 438 0 discriminator 3
	jmp	.L91	#
.L60:
	.loc 1 440 0
	movq	$.LC60, -2128(%rbp)	#, st
	.loc 1 441 0
	movq	-2176(%rbp), %rax	# x, tmp281
	movq	8(%rax), %rax	# x_29(D)->fld[0].rtx, D.10887
	movq	%rax, -2096(%rbp)	# D.10887, op
	.loc 1 442 0
	jmp	.L91	#
.L61:
	.loc 1 444 0
	movq	$.LC61, -2128(%rbp)	#, st
	.loc 1 445 0
	movq	-2176(%rbp), %rax	# x, tmp282
	movq	8(%rax), %rax	# x_29(D)->fld[0].rtx, D.10887
	movq	%rax, -2096(%rbp)	# D.10887, op
	.loc 1 446 0
	jmp	.L91	#
.L62:
	.loc 1 448 0
	movq	-2176(%rbp), %rax	# x, tmp283
	movq	8(%rax), %rax	# x_29(D)->fld[0].rtx, D.10887
	movq	%rax, -2096(%rbp)	# D.10887, op
	.loc 1 449 0
	movq	$.LC60, -2120(%rbp)	#, st
	.loc 1 450 0
	jmp	.L91	#
.L63:
	.loc 1 452 0
	movq	-2176(%rbp), %rax	# x, tmp284
	movq	8(%rax), %rax	# x_29(D)->fld[0].rtx, D.10887
	movq	%rax, -2096(%rbp)	# D.10887, op
	.loc 1 453 0
	movq	$.LC61, -2120(%rbp)	#, st
	.loc 1 454 0
	jmp	.L91	#
.L35:
	.loc 1 456 0
	movq	$.LC62, -2128(%rbp)	#, st
	.loc 1 457 0
	movq	-2176(%rbp), %rax	# x, tmp285
	movq	8(%rax), %rax	# x_29(D)->fld[0].rtx, D.10887
	movq	%rax, -2096(%rbp)	# D.10887, op
	.loc 1 458 0
	cmpl	$0, -2180(%rbp)	#, verbose
	je	.L112	#,
	.loc 1 460 0
	movq	$.LC63, -2120(%rbp)	#, st
	.loc 1 461 0
	movq	-2176(%rbp), %rax	# x, tmp286
	movq	16(%rax), %rax	# x_29(D)->fld[1].rtx, D.10887
	movq	%rax, -2088(%rbp)	# D.10887, op
	.loc 1 463 0
	jmp	.L91	#
.L112:
	jmp	.L91	#
.L37:
	.loc 1 465 0
	movq	$.LC64, -2128(%rbp)	#, st
	.loc 1 466 0
	movq	-2176(%rbp), %rax	# x, tmp287
	movq	8(%rax), %rax	# x_29(D)->fld[0].rtx, D.10887
	movq	%rax, -2096(%rbp)	# D.10887, op
	.loc 1 467 0
	movq	$.LC65, -2120(%rbp)	#, st
	.loc 1 468 0
	movq	-2176(%rbp), %rax	# x, tmp288
	movq	16(%rax), %rax	# x_29(D)->fld[1].rtx, D.10887
	movq	%rax, -2088(%rbp)	# D.10887, op
	.loc 1 469 0
	movq	$.LC66, -2112(%rbp)	#, st
	.loc 1 470 0
	movq	-2176(%rbp), %rax	# x, tmp289
	movq	24(%rax), %rax	# x_29(D)->fld[2].rtx, D.10887
	movq	%rax, -2080(%rbp)	# D.10887, op
	.loc 1 471 0
	movq	$.LC67, -2104(%rbp)	#, st
	.loc 1 472 0
	jmp	.L91	#
.L36:
	.loc 1 474 0
	movq	$.LC68, -2144(%rbp)	#, fun
	.loc 1 475 0
	movq	-2176(%rbp), %rax	# x, tmp290
	movq	8(%rax), %rax	# x_29(D)->fld[0].rtx, D.10887
	movq	%rax, -2096(%rbp)	# D.10887, op
	.loc 1 476 0
	jmp	.L91	#
.L34:
	.loc 1 478 0
	movq	$.LC69, -2144(%rbp)	#, fun
	.loc 1 479 0
	movq	-2176(%rbp), %rax	# x, tmp291
	movq	8(%rax), %rax	# x_29(D)->fld[0].rtx, D.10887
	movq	%rax, -2096(%rbp)	# D.10887, op
	.loc 1 480 0
	movq	-2176(%rbp), %rax	# x, tmp292
	movq	16(%rax), %rax	# x_29(D)->fld[1].rtx, D.10887
	movq	%rax, -2088(%rbp)	# D.10887, op
	.loc 1 481 0
	movq	-2176(%rbp), %rax	# x, tmp293
	movq	24(%rax), %rax	# x_29(D)->fld[2].rtx, D.10887
	movq	%rax, -2080(%rbp)	# D.10887, op
	.loc 1 482 0
	jmp	.L91	#
.L32:
	.loc 1 486 0
	movq	-2152(%rbp), %rcx	# cur, tmp294
	movq	-2168(%rbp), %rax	# buf, tmp295
	movl	$.LC70, %edx	#,
	movq	%rcx, %rsi	# tmp294,
	movq	%rax, %rdi	# tmp295,
	call	safe_concat	#
	movq	%rax, -2152(%rbp)	# tmp296, cur
	.loc 1 487 0
	movq	-2176(%rbp), %rax	# x, tmp297
	movzwl	(%rax), %eax	# x_29(D)->code, D.10885
	cmpw	$43, %ax	#, D.10885
	jne	.L113	#,
	.loc 1 488 0
	movq	-2152(%rbp), %rcx	# cur, tmp298
	movq	-2168(%rbp), %rax	# buf, tmp299
	movl	$.LC71, %edx	#,
	movq	%rcx, %rsi	# tmp298,
	movq	%rax, %rdi	# tmp299,
	call	safe_concat	#
	movq	%rax, -2152(%rbp)	# tmp300, cur
.L113:
	.loc 1 489 0
	movq	-2152(%rbp), %rcx	# cur, tmp301
	movq	-2168(%rbp), %rax	# buf, tmp302
	movl	$.LC72, %edx	#,
	movq	%rcx, %rsi	# tmp301,
	movq	%rax, %rdi	# tmp302,
	call	safe_concat	#
	movq	%rax, -2152(%rbp)	# tmp303, cur
	.loc 1 490 0
	movq	$.LC73, -2136(%rbp)	#, sep
	.loc 1 491 0
	movl	$0, -2156(%rbp)	#, i
	jmp	.L114	#
.L115:
	.loc 1 493 0 discriminator 2
	movq	-2176(%rbp), %rax	# x, tmp304
	movq	8(%rax), %rax	# x_29(D)->fld[0].rtvec, D.10889
	movl	-2156(%rbp), %edx	# i, tmp306
	movslq	%edx, %rdx	# tmp306, tmp305
	movq	8(%rax,%rdx,8), %rcx	# _191->elem, D.10887
	movl	-2180(%rbp), %edx	# verbose, tmp307
	leaq	-2064(%rbp), %rax	#, tmp308
	movq	%rcx, %rsi	# D.10887,
	movq	%rax, %rdi	# tmp308,
	call	print_pattern	#
	.loc 1 494 0 discriminator 2
	movq	-2136(%rbp), %rdx	# sep, tmp309
	movq	-2152(%rbp), %rcx	# cur, tmp310
	movq	-2168(%rbp), %rax	# buf, tmp311
	movq	%rcx, %rsi	# tmp310,
	movq	%rax, %rdi	# tmp311,
	call	safe_concat	#
	movq	%rax, -2152(%rbp)	# tmp312, cur
	.loc 1 495 0 discriminator 2
	leaq	-2064(%rbp), %rdx	#, tmp313
	movq	-2152(%rbp), %rcx	# cur, tmp314
	movq	-2168(%rbp), %rax	# buf, tmp315
	movq	%rcx, %rsi	# tmp314,
	movq	%rax, %rdi	# tmp315,
	call	safe_concat	#
	movq	%rax, -2152(%rbp)	# tmp316, cur
	.loc 1 496 0 discriminator 2
	movq	$.LC74, -2136(%rbp)	#, sep
	.loc 1 491 0 discriminator 2
	addl	$1, -2156(%rbp)	#, i
.L114:
	.loc 1 491 0 is_stmt 0 discriminator 1
	movq	-2176(%rbp), %rax	# x, tmp317
	movq	8(%rax), %rax	# x_29(D)->fld[0].rtvec, D.10889
	movl	(%rax), %eax	# _189->num_elem, D.10890
	cmpl	-2156(%rbp), %eax	# i, D.10890
	jg	.L115	#,
	.loc 1 498 0 is_stmt 1
	movq	-2152(%rbp), %rcx	# cur, tmp318
	movq	-2168(%rbp), %rax	# buf, tmp319
	movl	$.LC75, %edx	#,
	movq	%rcx, %rsi	# tmp318,
	movq	%rax, %rdi	# tmp319,
	call	safe_concat	#
	movq	%rax, -2152(%rbp)	# tmp320, cur
	.loc 1 499 0
	movq	-2176(%rbp), %rax	# x, tmp321
	movl	16(%rax), %edx	# x_29(D)->fld[1].rtint, D.10890
	leaq	-2064(%rbp), %rax	#, tmp322
	movl	$.LC76, %esi	#,
	movq	%rax, %rdi	# tmp322,
	movl	$0, %eax	#,
	call	sprintf	#
	.loc 1 500 0
	leaq	-2064(%rbp), %rdx	#, tmp323
	movq	-2152(%rbp), %rcx	# cur, tmp324
	movq	-2168(%rbp), %rax	# buf, tmp325
	movq	%rcx, %rsi	# tmp324,
	movq	%rax, %rdi	# tmp325,
	call	safe_concat	#
	movq	%rax, -2152(%rbp)	# tmp326, cur
	.loc 1 502 0
	jmp	.L91	#
.L31:
	.loc 1 505 0
	movq	-2176(%rbp), %rax	# x, tmp327
	movzwl	(%rax), %eax	# x_29(D)->code, D.10885
	movzwl	%ax, %eax	# D.10885, D.10890
	cltq
	movq	rtx_name(,%rax,8), %rax	# rtx_name, D.10891
	movq	%rax, -2128(%rbp)	# D.10891, st
	.loc 1 506 0
	nop
.L91:
	.loc 1 510 0
	cmpq	$0, -2144(%rbp)	#, fun
	je	.L116	#,
	.loc 1 512 0
	movq	-2144(%rbp), %rdx	# fun, tmp329
	movq	-2152(%rbp), %rcx	# cur, tmp330
	movq	-2168(%rbp), %rax	# buf, tmp331
	movq	%rcx, %rsi	# tmp330,
	movq	%rax, %rdi	# tmp331,
	call	safe_concat	#
	movq	%rax, -2152(%rbp)	# tmp332, cur
	.loc 1 513 0
	movq	-2152(%rbp), %rcx	# cur, tmp333
	movq	-2168(%rbp), %rax	# buf, tmp334
	movl	$.LC77, %edx	#,
	movq	%rcx, %rsi	# tmp333,
	movq	%rax, %rdi	# tmp334,
	call	safe_concat	#
	movq	%rax, -2152(%rbp)	# tmp335, cur
.L116:
	.loc 1 516 0
	movl	$0, -2156(%rbp)	#, i
	jmp	.L117	#
.L121:
	.loc 1 518 0
	movl	-2156(%rbp), %eax	# i, tmp337
	cltq
	movq	-2128(%rbp,%rax,8), %rax	# st, D.10891
	testq	%rax, %rax	# D.10891
	je	.L118	#,
	.loc 1 519 0
	movl	-2156(%rbp), %eax	# i, tmp339
	cltq
	movq	-2128(%rbp,%rax,8), %rdx	# st, D.10891
	movq	-2152(%rbp), %rcx	# cur, tmp340
	movq	-2168(%rbp), %rax	# buf, tmp341
	movq	%rcx, %rsi	# tmp340,
	movq	%rax, %rdi	# tmp341,
	call	safe_concat	#
	movq	%rax, -2152(%rbp)	# tmp342, cur
.L118:
	.loc 1 521 0
	movl	-2156(%rbp), %eax	# i, tmp344
	cltq
	movq	-2096(%rbp,%rax,8), %rax	# op, D.10887
	testq	%rax, %rax	# D.10887
	je	.L119	#,
	.loc 1 523 0
	cmpq	$0, -2144(%rbp)	#, fun
	je	.L120	#,
	.loc 1 523 0 is_stmt 0 discriminator 1
	cmpl	$0, -2156(%rbp)	#, i
	je	.L120	#,
	.loc 1 524 0 is_stmt 1
	movq	-2152(%rbp), %rcx	# cur, tmp345
	movq	-2168(%rbp), %rax	# buf, tmp346
	movl	$.LC74, %edx	#,
	movq	%rcx, %rsi	# tmp345,
	movq	%rax, %rdi	# tmp346,
	call	safe_concat	#
	movq	%rax, -2152(%rbp)	# tmp347, cur
.L120:
	.loc 1 526 0
	movl	-2156(%rbp), %eax	# i, tmp349
	cltq
	movq	-2096(%rbp,%rax,8), %rcx	# op, D.10887
	movl	-2180(%rbp), %edx	# verbose, tmp350
	leaq	-2064(%rbp), %rax	#, tmp351
	movq	%rcx, %rsi	# D.10887,
	movq	%rax, %rdi	# tmp351,
	call	print_value	#
	.loc 1 527 0
	leaq	-2064(%rbp), %rdx	#, tmp352
	movq	-2152(%rbp), %rcx	# cur, tmp353
	movq	-2168(%rbp), %rax	# buf, tmp354
	movq	%rcx, %rsi	# tmp353,
	movq	%rax, %rdi	# tmp354,
	call	safe_concat	#
	movq	%rax, -2152(%rbp)	# tmp355, cur
.L119:
	.loc 1 516 0
	addl	$1, -2156(%rbp)	#, i
.L117:
	.loc 1 516 0 is_stmt 0 discriminator 1
	cmpl	$3, -2156(%rbp)	#, i
	jle	.L121	#,
	.loc 1 531 0 is_stmt 1
	cmpq	$0, -2144(%rbp)	#, fun
	je	.L28	#,
	.loc 1 532 0
	movq	-2152(%rbp), %rcx	# cur, tmp356
	movq	-2168(%rbp), %rax	# buf, tmp357
	movl	$.LC6, %edx	#,
	movq	%rcx, %rsi	# tmp356,
	movq	%rax, %rdi	# tmp357,
	call	safe_concat	#
	movq	%rax, -2152(%rbp)	# tmp358, cur
.L28:
	.loc 1 533 0
	movq	-8(%rbp), %rax	# D.10892, tmp360
	xorq	%fs:40, %rax	#, tmp360
	je	.L123	#,
	call	__stack_chk_fail	#
.L123:
	leave
	.cfi_def_cfa 7, 8
	ret
	.cfi_endproc
.LFE7:
	.size	print_exp, .-print_exp
	.section	.rodata
.LC78:
	.string	"0x%lx"
.LC79:
	.string	"<0x%lx,0x%lx>"
.LC80:
	.string	"\""
.LC81:
	.string	"`"
.LC82:
	.string	"'"
.LC83:
	.string	"L%d"
.LC84:
	.string	"const("
.LC85:
	.string	"high("
.LC86:
	.string	"r%d"
.LC87:
	.string	"#%d"
.LC88:
	.string	"scratch"
.LC89:
	.string	"cc0"
.LC90:
	.string	"pc"
.LC91:
	.string	"]"
	.text
	.type	print_value, @function
print_value:
.LFB8:
	.loc 1 543 0
	.cfi_startproc
	pushq	%rbp	#
	.cfi_def_cfa_offset 16
	.cfi_offset 6, -16
	movq	%rsp, %rbp	#,
	.cfi_def_cfa_register 6
	subq	$2112, %rsp	#,
	movq	%rdi, -2088(%rbp)	# buf, buf
	movq	%rsi, -2096(%rbp)	# x, x
	movl	%edx, -2100(%rbp)	# verbose, verbose
	.loc 1 543 0
	movq	%fs:40, %rax	#, tmp216
	movq	%rax, -8(%rbp)	# tmp216, D.10977
	xorl	%eax, %eax	# tmp216
	.loc 1 545 0
	movq	-2088(%rbp), %rax	# buf, tmp84
	movq	%rax, -2072(%rbp)	# tmp84, cur
	.loc 1 547 0
	movq	-2096(%rbp), %rax	# x, tmp85
	movzwl	(%rax), %eax	# x_4(D)->code, D.10970
	movzwl	%ax, %eax	# D.10970, D.10971
	subl	$54, %eax	#, tmp86
	cmpl	$80, %eax	#, tmp86
	ja	.L125	#,
	movl	%eax, %eax	# tmp86, tmp87
	movq	.L127(,%rax,8), %rax	#, tmp88
	jmp	*%rax	# tmp88
	.section	.rodata
	.align 8
	.align 4
.L127:
	.quad	.L126
	.quad	.L128
	.quad	.L125
	.quad	.L129
	.quad	.L130
	.quad	.L131
	.quad	.L125
	.quad	.L132
	.quad	.L133
	.quad	.L134
	.quad	.L125
	.quad	.L125
	.quad	.L135
	.quad	.L136
	.quad	.L137
	.quad	.L138
	.quad	.L125
	.quad	.L125
	.quad	.L125
	.quad	.L125
	.quad	.L125
	.quad	.L125
	.quad	.L125
	.quad	.L125
	.quad	.L125
	.quad	.L125
	.quad	.L125
	.quad	.L125
	.quad	.L125
	.quad	.L125
	.quad	.L125
	.quad	.L125
	.quad	.L125
	.quad	.L125
	.quad	.L125
	.quad	.L125
	.quad	.L125
	.quad	.L125
	.quad	.L125
	.quad	.L125
	.quad	.L125
	.quad	.L125
	.quad	.L125
	.quad	.L125
	.quad	.L125
	.quad	.L125
	.quad	.L125
	.quad	.L125
	.quad	.L125
	.quad	.L125
	.quad	.L125
	.quad	.L125
	.quad	.L125
	.quad	.L125
	.quad	.L125
	.quad	.L125
	.quad	.L125
	.quad	.L125
	.quad	.L125
	.quad	.L125
	.quad	.L125
	.quad	.L125
	.quad	.L125
	.quad	.L125
	.quad	.L125
	.quad	.L125
	.quad	.L125
	.quad	.L125
	.quad	.L125
	.quad	.L125
	.quad	.L125
	.quad	.L125
	.quad	.L125
	.quad	.L125
	.quad	.L125
	.quad	.L125
	.quad	.L125
	.quad	.L125
	.quad	.L125
	.quad	.L125
	.quad	.L139
	.text
.L126:
	.loc 1 550 0
	movq	-2096(%rbp), %rax	# x, tmp89
	movq	8(%rax), %rdx	# x_4(D)->fld[0].rtwint, D.10972
	leaq	-2064(%rbp), %rax	#, tmp90
	movl	$.LC78, %esi	#,
	movq	%rax, %rdi	# tmp90,
	movl	$0, %eax	#,
	call	sprintf	#
	.loc 1 551 0
	leaq	-2064(%rbp), %rdx	#, tmp91
	movq	-2072(%rbp), %rcx	# cur, tmp92
	movq	-2088(%rbp), %rax	# buf, tmp93
	movq	%rcx, %rsi	# tmp92,
	movq	%rax, %rdi	# tmp93,
	call	safe_concat	#
	movq	%rax, -2072(%rbp)	# tmp94, cur
	.loc 1 552 0
	jmp	.L124	#
.L128:
	.loc 1 554 0
	movq	-2096(%rbp), %rax	# x, tmp95
	movq	32(%rax), %rcx	# x_4(D)->fld[3].rtwint, D.10972
	movq	-2096(%rbp), %rax	# x, tmp96
	movq	24(%rax), %rdx	# x_4(D)->fld[2].rtwint, D.10972
	leaq	-2064(%rbp), %rax	#, tmp97
	movl	$.LC79, %esi	#,
	movq	%rax, %rdi	# tmp97,
	movl	$0, %eax	#,
	call	sprintf	#
	.loc 1 555 0
	leaq	-2064(%rbp), %rdx	#, tmp98
	movq	-2072(%rbp), %rcx	# cur, tmp99
	movq	-2088(%rbp), %rax	# buf, tmp100
	movq	%rcx, %rsi	# tmp99,
	movq	%rax, %rdi	# tmp100,
	call	safe_concat	#
	movq	%rax, -2072(%rbp)	# tmp101, cur
	.loc 1 556 0
	jmp	.L124	#
.L129:
	.loc 1 558 0
	movq	-2072(%rbp), %rcx	# cur, tmp102
	movq	-2088(%rbp), %rax	# buf, tmp103
	movl	$.LC80, %edx	#,
	movq	%rcx, %rsi	# tmp102,
	movq	%rax, %rdi	# tmp103,
	call	safe_concat	#
	movq	%rax, -2072(%rbp)	# tmp104, cur
	.loc 1 559 0
	movq	-2096(%rbp), %rax	# x, tmp105
	movq	8(%rax), %rdx	# x_4(D)->fld[0].rtstr, D.10973
	movq	-2072(%rbp), %rcx	# cur, tmp106
	movq	-2088(%rbp), %rax	# buf, tmp107
	movq	%rcx, %rsi	# tmp106,
	movq	%rax, %rdi	# tmp107,
	call	safe_concat	#
	movq	%rax, -2072(%rbp)	# tmp108, cur
	.loc 1 560 0
	movq	-2072(%rbp), %rcx	# cur, tmp109
	movq	-2088(%rbp), %rax	# buf, tmp110
	movl	$.LC80, %edx	#,
	movq	%rcx, %rsi	# tmp109,
	movq	%rax, %rdi	# tmp110,
	call	safe_concat	#
	movq	%rax, -2072(%rbp)	# tmp111, cur
	.loc 1 561 0
	jmp	.L124	#
.L137:
	.loc 1 563 0
	movq	-2072(%rbp), %rcx	# cur, tmp112
	movq	-2088(%rbp), %rax	# buf, tmp113
	movl	$.LC81, %edx	#,
	movq	%rcx, %rsi	# tmp112,
	movq	%rax, %rdi	# tmp113,
	call	safe_concat	#
	movq	%rax, -2072(%rbp)	# tmp114, cur
	.loc 1 564 0
	movq	-2096(%rbp), %rax	# x, tmp115
	movq	8(%rax), %rdx	# x_4(D)->fld[0].rtstr, D.10973
	movq	-2072(%rbp), %rcx	# cur, tmp116
	movq	-2088(%rbp), %rax	# buf, tmp117
	movq	%rcx, %rsi	# tmp116,
	movq	%rax, %rdi	# tmp117,
	call	safe_concat	#
	movq	%rax, -2072(%rbp)	# tmp118, cur
	.loc 1 565 0
	movq	-2072(%rbp), %rcx	# cur, tmp119
	movq	-2088(%rbp), %rax	# buf, tmp120
	movl	$.LC82, %edx	#,
	movq	%rcx, %rsi	# tmp119,
	movq	%rax, %rdi	# tmp120,
	call	safe_concat	#
	movq	%rax, -2072(%rbp)	# tmp121, cur
	.loc 1 566 0
	jmp	.L124	#
.L136:
	.loc 1 568 0
	movq	-2096(%rbp), %rax	# x, tmp122
	movq	8(%rax), %rax	# x_4(D)->fld[0].rtx, D.10974
	movl	8(%rax), %edx	# _20->fld[0].rtint, D.10975
	leaq	-2064(%rbp), %rax	#, tmp123
	movl	$.LC83, %esi	#,
	movq	%rax, %rdi	# tmp123,
	movl	$0, %eax	#,
	call	sprintf	#
	.loc 1 569 0
	leaq	-2064(%rbp), %rdx	#, tmp124
	movq	-2072(%rbp), %rcx	# cur, tmp125
	movq	-2088(%rbp), %rax	# buf, tmp126
	movq	%rcx, %rsi	# tmp125,
	movq	%rax, %rdi	# tmp126,
	call	safe_concat	#
	movq	%rax, -2072(%rbp)	# tmp127, cur
	.loc 1 570 0
	jmp	.L124	#
.L130:
	.loc 1 572 0
	movq	-2096(%rbp), %rax	# x, tmp128
	movq	8(%rax), %rcx	# x_4(D)->fld[0].rtx, D.10974
	movl	-2100(%rbp), %edx	# verbose, tmp129
	leaq	-2064(%rbp), %rax	#, tmp130
	movq	%rcx, %rsi	# D.10974,
	movq	%rax, %rdi	# tmp130,
	call	print_value	#
	.loc 1 573 0
	movq	-2072(%rbp), %rcx	# cur, tmp131
	movq	-2088(%rbp), %rax	# buf, tmp132
	movl	$.LC84, %edx	#,
	movq	%rcx, %rsi	# tmp131,
	movq	%rax, %rdi	# tmp132,
	call	safe_concat	#
	movq	%rax, -2072(%rbp)	# tmp133, cur
	.loc 1 574 0
	leaq	-2064(%rbp), %rdx	#, tmp134
	movq	-2072(%rbp), %rcx	# cur, tmp135
	movq	-2088(%rbp), %rax	# buf, tmp136
	movq	%rcx, %rsi	# tmp135,
	movq	%rax, %rdi	# tmp136,
	call	safe_concat	#
	movq	%rax, -2072(%rbp)	# tmp137, cur
	.loc 1 575 0
	movq	-2072(%rbp), %rcx	# cur, tmp138
	movq	-2088(%rbp), %rax	# buf, tmp139
	movl	$.LC6, %edx	#,
	movq	%rcx, %rsi	# tmp138,
	movq	%rax, %rdi	# tmp139,
	call	safe_concat	#
	movq	%rax, -2072(%rbp)	# tmp140, cur
	.loc 1 576 0
	jmp	.L124	#
.L139:
	.loc 1 578 0
	movq	-2096(%rbp), %rax	# x, tmp141
	movq	8(%rax), %rcx	# x_4(D)->fld[0].rtx, D.10974
	movl	-2100(%rbp), %edx	# verbose, tmp142
	leaq	-2064(%rbp), %rax	#, tmp143
	movq	%rcx, %rsi	# D.10974,
	movq	%rax, %rdi	# tmp143,
	call	print_value	#
	.loc 1 579 0
	movq	-2072(%rbp), %rcx	# cur, tmp144
	movq	-2088(%rbp), %rax	# buf, tmp145
	movl	$.LC85, %edx	#,
	movq	%rcx, %rsi	# tmp144,
	movq	%rax, %rdi	# tmp145,
	call	safe_concat	#
	movq	%rax, -2072(%rbp)	# tmp146, cur
	.loc 1 580 0
	leaq	-2064(%rbp), %rdx	#, tmp147
	movq	-2072(%rbp), %rcx	# cur, tmp148
	movq	-2088(%rbp), %rax	# buf, tmp149
	movq	%rcx, %rsi	# tmp148,
	movq	%rax, %rdi	# tmp149,
	call	safe_concat	#
	movq	%rax, -2072(%rbp)	# tmp150, cur
	.loc 1 581 0
	movq	-2072(%rbp), %rcx	# cur, tmp151
	movq	-2088(%rbp), %rax	# buf, tmp152
	movl	$.LC6, %edx	#,
	movq	%rcx, %rsi	# tmp151,
	movq	%rax, %rdi	# tmp152,
	call	safe_concat	#
	movq	%rax, -2072(%rbp)	# tmp153, cur
	.loc 1 582 0
	jmp	.L124	#
.L132:
	.loc 1 584 0
	movq	-2096(%rbp), %rax	# x, tmp154
	movl	8(%rax), %eax	# x_4(D)->fld[0].rtuint, D.10971
	cmpl	$52, %eax	#, D.10971
	ja	.L141	#,
.LBB2:
	.loc 1 586 0
	movq	-2096(%rbp), %rax	# x, tmp155
	movl	8(%rax), %eax	# x_4(D)->fld[0].rtuint, D.10971
	movl	%eax, %eax	# D.10971, tmp156
	movq	reg_names(,%rax,8), %rax	# reg_names, D.10973
	movzbl	(%rax), %eax	# *_34, D.10976
	movsbl	%al, %eax	# D.10976, tmp157
	movl	%eax, -2076(%rbp)	# tmp157, c
	.loc 1 587 0
	movl	-2076(%rbp), %eax	# c, tmp158
	movzbl	%al, %eax	# tmp158, D.10975
	cltq
	movzwl	_sch_istable(%rax,%rax), %eax	# _sch_istable, D.10970
	movzwl	%ax, %eax	# D.10970, D.10975
	andl	$4, %eax	#, D.10975
	testl	%eax, %eax	# D.10975
	je	.L142	#,
	.loc 1 588 0
	movq	-2072(%rbp), %rcx	# cur, tmp160
	movq	-2088(%rbp), %rax	# buf, tmp161
	movl	$.LC11, %edx	#,
	movq	%rcx, %rsi	# tmp160,
	movq	%rax, %rdi	# tmp161,
	call	safe_concat	#
	movq	%rax, -2072(%rbp)	# tmp162, cur
.L142:
	.loc 1 590 0
	movq	-2096(%rbp), %rax	# x, tmp163
	movl	8(%rax), %eax	# x_4(D)->fld[0].rtuint, D.10971
	movl	%eax, %eax	# D.10971, tmp164
	movq	reg_names(,%rax,8), %rdx	# reg_names, D.10973
	movq	-2072(%rbp), %rcx	# cur, tmp165
	movq	-2088(%rbp), %rax	# buf, tmp166
	movq	%rcx, %rsi	# tmp165,
	movq	%rax, %rdi	# tmp166,
	call	safe_concat	#
	movq	%rax, -2072(%rbp)	# tmp167, cur
.LBE2:
	.loc 1 597 0
	jmp	.L124	#
.L141:
	.loc 1 594 0
	movq	-2096(%rbp), %rax	# x, tmp168
	movl	8(%rax), %edx	# x_4(D)->fld[0].rtuint, D.10971
	leaq	-2064(%rbp), %rax	#, tmp169
	movl	$.LC86, %esi	#,
	movq	%rax, %rdi	# tmp169,
	movl	$0, %eax	#,
	call	sprintf	#
	.loc 1 595 0
	leaq	-2064(%rbp), %rdx	#, tmp170
	movq	-2072(%rbp), %rcx	# cur, tmp171
	movq	-2088(%rbp), %rax	# buf, tmp172
	movq	%rcx, %rsi	# tmp171,
	movq	%rax, %rdi	# tmp172,
	call	safe_concat	#
	movq	%rax, -2072(%rbp)	# tmp173, cur
	.loc 1 597 0
	jmp	.L124	#
.L134:
	.loc 1 599 0
	movq	-2096(%rbp), %rax	# x, tmp174
	movq	8(%rax), %rcx	# x_4(D)->fld[0].rtx, D.10974
	movl	-2100(%rbp), %edx	# verbose, tmp175
	leaq	-2064(%rbp), %rax	#, tmp176
	movq	%rcx, %rsi	# D.10974,
	movq	%rax, %rdi	# tmp176,
	call	print_value	#
	.loc 1 600 0
	leaq	-2064(%rbp), %rdx	#, tmp177
	movq	-2072(%rbp), %rcx	# cur, tmp178
	movq	-2088(%rbp), %rax	# buf, tmp179
	movq	%rcx, %rsi	# tmp178,
	movq	%rax, %rdi	# tmp179,
	call	safe_concat	#
	movq	%rax, -2072(%rbp)	# tmp180, cur
	.loc 1 601 0
	movq	-2096(%rbp), %rax	# x, tmp181
	movl	16(%rax), %edx	# x_4(D)->fld[1].rtuint, D.10971
	leaq	-2064(%rbp), %rax	#, tmp182
	movl	$.LC87, %esi	#,
	movq	%rax, %rdi	# tmp182,
	movl	$0, %eax	#,
	call	sprintf	#
	.loc 1 602 0
	leaq	-2064(%rbp), %rdx	#, tmp183
	movq	-2072(%rbp), %rcx	# cur, tmp184
	movq	-2088(%rbp), %rax	# buf, tmp185
	movq	%rcx, %rsi	# tmp184,
	movq	%rax, %rdi	# tmp185,
	call	safe_concat	#
	movq	%rax, -2072(%rbp)	# tmp186, cur
	.loc 1 603 0
	jmp	.L124	#
.L133:
	.loc 1 605 0
	movq	-2072(%rbp), %rcx	# cur, tmp187
	movq	-2088(%rbp), %rax	# buf, tmp188
	movl	$.LC88, %edx	#,
	movq	%rcx, %rsi	# tmp187,
	movq	%rax, %rdi	# tmp188,
	call	safe_concat	#
	movq	%rax, -2072(%rbp)	# tmp189, cur
	.loc 1 606 0
	jmp	.L124	#
.L138:
	.loc 1 608 0
	movq	-2072(%rbp), %rcx	# cur, tmp190
	movq	-2088(%rbp), %rax	# buf, tmp191
	movl	$.LC89, %edx	#,
	movq	%rcx, %rsi	# tmp190,
	movq	%rax, %rdi	# tmp191,
	call	safe_concat	#
	movq	%rax, -2072(%rbp)	# tmp192, cur
	.loc 1 609 0
	jmp	.L124	#
.L131:
	.loc 1 611 0
	movq	-2072(%rbp), %rcx	# cur, tmp193
	movq	-2088(%rbp), %rax	# buf, tmp194
	movl	$.LC90, %edx	#,
	movq	%rcx, %rsi	# tmp193,
	movq	%rax, %rdi	# tmp194,
	call	safe_concat	#
	movq	%rax, -2072(%rbp)	# tmp195, cur
	.loc 1 612 0
	jmp	.L124	#
.L135:
	.loc 1 614 0
	movq	-2096(%rbp), %rax	# x, tmp196
	movq	8(%rax), %rcx	# x_4(D)->fld[0].rtx, D.10974
	movl	-2100(%rbp), %edx	# verbose, tmp197
	leaq	-2064(%rbp), %rax	#, tmp198
	movq	%rcx, %rsi	# D.10974,
	movq	%rax, %rdi	# tmp198,
	call	print_value	#
	.loc 1 615 0
	movq	-2072(%rbp), %rcx	# cur, tmp199
	movq	-2088(%rbp), %rax	# buf, tmp200
	movl	$.LC72, %edx	#,
	movq	%rcx, %rsi	# tmp199,
	movq	%rax, %rdi	# tmp200,
	call	safe_concat	#
	movq	%rax, -2072(%rbp)	# tmp201, cur
	.loc 1 616 0
	leaq	-2064(%rbp), %rdx	#, tmp202
	movq	-2072(%rbp), %rcx	# cur, tmp203
	movq	-2088(%rbp), %rax	# buf, tmp204
	movq	%rcx, %rsi	# tmp203,
	movq	%rax, %rdi	# tmp204,
	call	safe_concat	#
	movq	%rax, -2072(%rbp)	# tmp205, cur
	.loc 1 617 0
	movq	-2072(%rbp), %rcx	# cur, tmp206
	movq	-2088(%rbp), %rax	# buf, tmp207
	movl	$.LC91, %edx	#,
	movq	%rcx, %rsi	# tmp206,
	movq	%rax, %rdi	# tmp207,
	call	safe_concat	#
	movq	%rax, -2072(%rbp)	# tmp208, cur
	.loc 1 618 0
	jmp	.L124	#
.L125:
	.loc 1 620 0
	movl	-2100(%rbp), %edx	# verbose, tmp209
	movq	-2096(%rbp), %rcx	# x, tmp210
	leaq	-2064(%rbp), %rax	#, tmp211
	movq	%rcx, %rsi	# tmp210,
	movq	%rax, %rdi	# tmp211,
	call	print_exp	#
	.loc 1 621 0
	leaq	-2064(%rbp), %rdx	#, tmp212
	movq	-2072(%rbp), %rcx	# cur, tmp213
	movq	-2088(%rbp), %rax	# buf, tmp214
	movq	%rcx, %rsi	# tmp213,
	movq	%rax, %rdi	# tmp214,
	call	safe_concat	#
	movq	%rax, -2072(%rbp)	# tmp215, cur
	.loc 1 622 0
	nop
.L124:
	.loc 1 624 0
	movq	-8(%rbp), %rax	# D.10977, tmp217
	xorq	%fs:40, %rax	#, tmp217
	je	.L144	#,
	call	__stack_chk_fail	#
.L144:
	leave
	.cfi_def_cfa 7, 8
	ret
	.cfi_endproc
.LFE8:
	.size	print_value, .-print_value
	.section	.rodata
.LC92:
	.string	"%s=%s"
.LC93:
	.string	"clobber %s"
.LC94:
	.string	"use %s"
.LC95:
	.string	"(%s) %s"
.LC96:
	.string	"%s%s;"
.LC97:
	.string	"%s}"
.LC98:
	.string	"%%{"
.LC99:
	.string	"%s%%}"
.LC100:
	.string	"asm {%s}"
.LC101:
	.string	"trap_if %s"
	.text
	.type	print_pattern, @function
print_pattern:
.LFB9:
	.loc 1 633 0
	.cfi_startproc
	pushq	%rbp	#
	.cfi_def_cfa_offset 16
	.cfi_offset 6, -16
	movq	%rsp, %rbp	#,
	.cfi_def_cfa_register 6
	pushq	%rbx	#
	subq	$6216, %rsp	#,
	.cfi_offset 3, -24
	movq	%rdi, -6200(%rbp)	# buf, buf
	movq	%rsi, -6208(%rbp)	# x, x
	movl	%edx, -6212(%rbp)	# verbose, verbose
	.loc 1 633 0
	movq	%fs:40, %rax	#, tmp216
	movq	%rax, -24(%rbp)	# tmp216, D.10998
	xorl	%eax, %eax	# tmp216
	.loc 1 636 0
	movq	-6208(%rbp), %rax	# x, tmp100
	movzwl	(%rax), %eax	# x_5(D)->code, D.10992
	movzwl	%ax, %eax	# D.10992, D.10993
	subl	$24, %eax	#, tmp101
	cmpl	$28, %eax	#, tmp101
	ja	.L146	#,
	movl	%eax, %eax	# tmp101, tmp102
	movq	.L148(,%rax,8), %rax	#, tmp103
	jmp	*%rax	# tmp103
	.section	.rodata
	.align 8
	.align 4
.L148:
	.quad	.L147
	.quad	.L146
	.quad	.L146
	.quad	.L146
	.quad	.L146
	.quad	.L146
	.quad	.L146
	.quad	.L146
	.quad	.L146
	.quad	.L146
	.quad	.L146
	.quad	.L146
	.quad	.L146
	.quad	.L146
	.quad	.L149
	.quad	.L150
	.quad	.L151
	.quad	.L146
	.quad	.L152
	.quad	.L153
	.quad	.L175
	.quad	.L155
	.quad	.L146
	.quad	.L156
	.quad	.L157
	.quad	.L158
	.quad	.L159
	.quad	.L160
	.quad	.L161
	.text
.L156:
	.loc 1 639 0
	movq	-6208(%rbp), %rax	# x, tmp104
	movq	8(%rax), %rcx	# x_5(D)->fld[0].rtx, D.10994
	movl	-6212(%rbp), %edx	# verbose, tmp105
	leaq	-6176(%rbp), %rax	#, tmp106
	movq	%rcx, %rsi	# D.10994,
	movq	%rax, %rdi	# tmp106,
	call	print_value	#
	.loc 1 640 0
	movq	-6208(%rbp), %rax	# x, tmp107
	movq	16(%rax), %rcx	# x_5(D)->fld[1].rtx, D.10994
	movl	-6212(%rbp), %edx	# verbose, tmp108
	leaq	-4128(%rbp), %rax	#, tmp109
	movq	%rcx, %rsi	# D.10994,
	movq	%rax, %rdi	# tmp109,
	call	print_value	#
	.loc 1 641 0
	leaq	-4128(%rbp), %rcx	#, tmp110
	leaq	-6176(%rbp), %rdx	#, tmp111
	movq	-6200(%rbp), %rax	# buf, tmp112
	movl	$.LC92, %esi	#,
	movq	%rax, %rdi	# tmp112,
	movl	$0, %eax	#,
	call	sprintf	#
	.loc 1 642 0
	jmp	.L145	#
.L160:
	.loc 1 644 0
	movq	-6200(%rbp), %rax	# buf, tmp113
	movl	$1970562418, (%rax)	#, MEM[(void *)buf_11(D)]
	movw	$28274, 4(%rax)	#, MEM[(void *)buf_11(D)]
	movb	$0, 6(%rax)	#, MEM[(void *)buf_11(D)]
	.loc 1 645 0
	jmp	.L145	#
.L159:
	.loc 1 647 0
	movl	-6212(%rbp), %edx	# verbose, tmp114
	movq	-6208(%rbp), %rcx	# x, tmp115
	movq	-6200(%rbp), %rax	# buf, tmp116
	movq	%rcx, %rsi	# tmp115,
	movq	%rax, %rdi	# tmp116,
	call	print_exp	#
	.loc 1 648 0
	jmp	.L145	#
.L158:
	.loc 1 650 0
	movq	-6208(%rbp), %rax	# x, tmp117
	movq	8(%rax), %rcx	# x_5(D)->fld[0].rtx, D.10994
	movl	-6212(%rbp), %edx	# verbose, tmp118
	leaq	-6176(%rbp), %rax	#, tmp119
	movq	%rcx, %rsi	# D.10994,
	movq	%rax, %rdi	# tmp119,
	call	print_value	#
	.loc 1 651 0
	leaq	-6176(%rbp), %rdx	#, tmp120
	movq	-6200(%rbp), %rax	# buf, tmp121
	movl	$.LC93, %esi	#,
	movq	%rax, %rdi	# tmp121,
	movl	$0, %eax	#,
	call	sprintf	#
	.loc 1 652 0
	jmp	.L145	#
.L157:
	.loc 1 654 0
	movq	-6208(%rbp), %rax	# x, tmp122
	movq	8(%rax), %rcx	# x_5(D)->fld[0].rtx, D.10994
	movl	-6212(%rbp), %edx	# verbose, tmp123
	leaq	-6176(%rbp), %rax	#, tmp124
	movq	%rcx, %rsi	# D.10994,
	movq	%rax, %rdi	# tmp124,
	call	print_value	#
	.loc 1 655 0
	leaq	-6176(%rbp), %rdx	#, tmp125
	movq	-6200(%rbp), %rax	# buf, tmp126
	movl	$.LC94, %esi	#,
	movq	%rax, %rdi	# tmp126,
	movl	$0, %eax	#,
	call	sprintf	#
	.loc 1 656 0
	jmp	.L145	#
.L149:
	.loc 1 658 0
	movq	-6208(%rbp), %rax	# x, tmp127
	movq	8(%rax), %rax	# x_5(D)->fld[0].rtx, D.10994
	movzwl	(%rax), %eax	# _14->code, D.10992
	cmpw	$102, %ax	#, D.10992
	jne	.L163	#,
	.loc 1 659 0
	movq	-6208(%rbp), %rax	# x, tmp128
	movq	8(%rax), %rax	# x_5(D)->fld[0].rtx, D.10994
	movq	16(%rax), %rdx	# _16->fld[1].rtx, D.10994
	movq	const_int_rtx+512(%rip), %rax	# const_int_rtx, D.10994
	cmpq	%rax, %rdx	# D.10994, D.10994
	jne	.L163	#,
	.loc 1 660 0
	movq	-6208(%rbp), %rax	# x, tmp129
	movq	8(%rax), %rax	# x_5(D)->fld[0].rtx, D.10994
	movq	8(%rax), %rcx	# _19->fld[0].rtx, D.10994
	movl	-6212(%rbp), %edx	# verbose, tmp130
	leaq	-6176(%rbp), %rax	#, tmp131
	movq	%rcx, %rsi	# D.10994,
	movq	%rax, %rdi	# tmp131,
	call	print_value	#
	jmp	.L164	#
.L163:
	.loc 1 661 0
	movq	-6208(%rbp), %rax	# x, tmp132
	movq	8(%rax), %rax	# x_5(D)->fld[0].rtx, D.10994
	movzwl	(%rax), %eax	# _21->code, D.10992
	cmpw	$103, %ax	#, D.10992
	jne	.L165	#,
	.loc 1 662 0
	movq	-6208(%rbp), %rax	# x, tmp133
	movq	8(%rax), %rax	# x_5(D)->fld[0].rtx, D.10994
	movq	16(%rax), %rdx	# _23->fld[1].rtx, D.10994
	movq	const_int_rtx+512(%rip), %rax	# const_int_rtx, D.10994
	cmpq	%rax, %rdx	# D.10994, D.10994
	jne	.L165	#,
	.loc 1 664 0
	movb	$33, -6176(%rbp)	#, t1
	.loc 1 665 0
	movq	-6208(%rbp), %rax	# x, tmp134
	movq	8(%rax), %rax	# x_5(D)->fld[0].rtx, D.10994
	movq	8(%rax), %rax	# _26->fld[0].rtx, D.10994
	movl	-6212(%rbp), %edx	# verbose, tmp135
	leaq	-6176(%rbp), %rcx	#, tmp136
	addq	$1, %rcx	#, tmp137
	movq	%rax, %rsi	# D.10994,
	movq	%rcx, %rdi	# tmp137,
	call	print_value	#
	jmp	.L164	#
.L165:
	.loc 1 668 0
	movq	-6208(%rbp), %rax	# x, tmp138
	movq	8(%rax), %rcx	# x_5(D)->fld[0].rtx, D.10994
	movl	-6212(%rbp), %edx	# verbose, tmp139
	leaq	-6176(%rbp), %rax	#, tmp140
	movq	%rcx, %rsi	# D.10994,
	movq	%rax, %rdi	# tmp140,
	call	print_value	#
.L164:
	.loc 1 669 0
	movq	-6208(%rbp), %rax	# x, tmp141
	movq	16(%rax), %rcx	# x_5(D)->fld[1].rtx, D.10994
	movl	-6212(%rbp), %edx	# verbose, tmp142
	leaq	-4128(%rbp), %rax	#, tmp143
	movq	%rcx, %rsi	# D.10994,
	movq	%rax, %rdi	# tmp143,
	call	print_pattern	#
	.loc 1 670 0
	leaq	-4128(%rbp), %rcx	#, tmp144
	leaq	-6176(%rbp), %rdx	#, tmp145
	movq	-6200(%rbp), %rax	# buf, tmp146
	movl	$.LC95, %esi	#,
	movq	%rax, %rdi	# tmp146,
	movl	$0, %eax	#,
	call	sprintf	#
	.loc 1 671 0
	jmp	.L145	#
.L150:
.LBB3:
	.loc 1 676 0
	leaq	-6176(%rbp), %rax	#, tmp147
	movw	$123, (%rax)	#, MEM[(void *)&t1]
	.loc 1 677 0
	movl	$0, -6192(%rbp)	#, i
	jmp	.L166	#
.L167:
	.loc 1 679 0 discriminator 2
	movq	-6208(%rbp), %rax	# x, tmp148
	movq	8(%rax), %rax	# x_5(D)->fld[0].rtvec, D.10995
	movl	-6192(%rbp), %edx	# i, tmp150
	movslq	%edx, %rdx	# tmp150, tmp149
	movq	8(%rax,%rdx,8), %rcx	# _33->elem, D.10994
	movl	-6212(%rbp), %edx	# verbose, tmp151
	leaq	-4128(%rbp), %rax	#, tmp152
	movq	%rcx, %rsi	# D.10994,
	movq	%rax, %rdi	# tmp152,
	call	print_pattern	#
	.loc 1 680 0 discriminator 2
	leaq	-4128(%rbp), %rcx	#, tmp153
	leaq	-6176(%rbp), %rdx	#, tmp154
	leaq	-2080(%rbp), %rax	#, tmp155
	movl	$.LC96, %esi	#,
	movq	%rax, %rdi	# tmp155,
	movl	$0, %eax	#,
	call	sprintf	#
	.loc 1 681 0 discriminator 2
	leaq	-2080(%rbp), %rdx	#, tmp156
	leaq	-6176(%rbp), %rax	#, tmp157
	movq	%rdx, %rsi	# tmp156,
	movq	%rax, %rdi	# tmp157,
	call	strcpy	#
	.loc 1 677 0 discriminator 2
	addl	$1, -6192(%rbp)	#, i
.L166:
	.loc 1 677 0 is_stmt 0 discriminator 1
	movq	-6208(%rbp), %rax	# x, tmp158
	movq	8(%rax), %rax	# x_5(D)->fld[0].rtvec, D.10995
	movl	(%rax), %eax	# _31->num_elem, D.10996
	cmpl	-6192(%rbp), %eax	# i, D.10996
	jg	.L167	#,
	.loc 1 683 0 is_stmt 1
	leaq	-6176(%rbp), %rdx	#, tmp159
	movq	-6200(%rbp), %rax	# buf, tmp160
	movl	$.LC97, %esi	#,
	movq	%rax, %rdi	# tmp160,
	movl	$0, %eax	#,
	call	sprintf	#
.LBE3:
	.loc 1 685 0
	jmp	.L145	#
.L147:
.LBB4:
	.loc 1 690 0
	leaq	-6176(%rbp), %rax	#, tmp161
	movl	$.LC98, %esi	#,
	movq	%rax, %rdi	# tmp161,
	movl	$0, %eax	#,
	call	sprintf	#
	.loc 1 691 0
	movl	$0, -6188(%rbp)	#, i
	jmp	.L168	#
.L169:
	.loc 1 693 0 discriminator 2
	movq	-6208(%rbp), %rax	# x, tmp162
	movq	8(%rax), %rax	# x_5(D)->fld[0].rtvec, D.10995
	movl	-6188(%rbp), %edx	# i, tmp164
	movslq	%edx, %rdx	# tmp164, tmp163
	movq	8(%rax,%rdx,8), %rcx	# _39->elem, D.10994
	movl	-6212(%rbp), %edx	# verbose, tmp165
	leaq	-4128(%rbp), %rax	#, tmp166
	movq	%rcx, %rsi	# D.10994,
	movq	%rax, %rdi	# tmp166,
	call	print_insn	#
	.loc 1 694 0 discriminator 2
	leaq	-4128(%rbp), %rcx	#, tmp167
	leaq	-6176(%rbp), %rdx	#, tmp168
	leaq	-2080(%rbp), %rax	#, tmp169
	movl	$.LC96, %esi	#,
	movq	%rax, %rdi	# tmp169,
	movl	$0, %eax	#,
	call	sprintf	#
	.loc 1 695 0 discriminator 2
	leaq	-2080(%rbp), %rdx	#, tmp170
	leaq	-6176(%rbp), %rax	#, tmp171
	movq	%rdx, %rsi	# tmp170,
	movq	%rax, %rdi	# tmp171,
	call	strcpy	#
	.loc 1 691 0 discriminator 2
	addl	$1, -6188(%rbp)	#, i
.L168:
	.loc 1 691 0 is_stmt 0 discriminator 1
	movq	-6208(%rbp), %rax	# x, tmp172
	movq	8(%rax), %rax	# x_5(D)->fld[0].rtvec, D.10995
	movl	(%rax), %eax	# _37->num_elem, D.10996
	cmpl	-6188(%rbp), %eax	# i, D.10996
	jg	.L169	#,
	.loc 1 697 0 is_stmt 1
	leaq	-6176(%rbp), %rdx	#, tmp173
	movq	-6200(%rbp), %rax	# buf, tmp174
	movl	$.LC99, %esi	#,
	movq	%rax, %rdi	# tmp174,
	movl	$0, %eax	#,
	call	sprintf	#
.LBE4:
	.loc 1 699 0
	jmp	.L145	#
.L151:
	.loc 1 701 0
	movq	-6208(%rbp), %rax	# x, tmp175
	movq	8(%rax), %rdx	# x_5(D)->fld[0].rtstr, D.10997
	movq	-6200(%rbp), %rax	# buf, tmp176
	movl	$.LC100, %esi	#,
	movq	%rax, %rdi	# tmp176,
	movl	$0, %eax	#,
	call	sprintf	#
	.loc 1 702 0
	jmp	.L145	#
.L155:
	.loc 1 706 0
	movq	-6208(%rbp), %rax	# x, tmp177
	movq	8(%rax), %rcx	# x_5(D)->fld[0].rtx, D.10994
	movl	-6212(%rbp), %edx	# verbose, tmp178
	movq	-6200(%rbp), %rax	# buf, tmp179
	movq	%rcx, %rsi	# D.10994,
	movq	%rax, %rdi	# tmp179,
	call	print_value	#
	.loc 1 707 0
	jmp	.L145	#
.L161:
	.loc 1 709 0
	movq	-6208(%rbp), %rax	# x, tmp180
	movq	8(%rax), %rcx	# x_5(D)->fld[0].rtx, D.10994
	movl	-6212(%rbp), %edx	# verbose, tmp181
	leaq	-6176(%rbp), %rax	#, tmp182
	movq	%rcx, %rsi	# D.10994,
	movq	%rax, %rdi	# tmp182,
	call	print_value	#
	.loc 1 710 0
	leaq	-6176(%rbp), %rdx	#, tmp183
	movq	-6200(%rbp), %rax	# buf, tmp184
	movl	$.LC101, %esi	#,
	movq	%rax, %rdi	# tmp184,
	movl	$0, %eax	#,
	call	sprintf	#
	.loc 1 711 0
	jmp	.L145	#
.L152:
.LBB5:
	.loc 1 716 0
	leaq	-6176(%rbp), %rax	#, tmp185
	movabsq	$34730709464870517, %rbx	#, tmp218
	movq	%rbx, (%rax)	# tmp218, MEM[(void *)&t1]
	.loc 1 717 0
	movl	$0, -6184(%rbp)	#, i
	jmp	.L170	#
.L171:
	.loc 1 719 0 discriminator 2
	movq	-6208(%rbp), %rax	# x, tmp186
	movq	8(%rax), %rax	# x_5(D)->fld[0].rtvec, D.10995
	movl	-6184(%rbp), %edx	# i, tmp188
	movslq	%edx, %rdx	# tmp188, tmp187
	movq	8(%rax,%rdx,8), %rcx	# _48->elem, D.10994
	movl	-6212(%rbp), %edx	# verbose, tmp189
	leaq	-4128(%rbp), %rax	#, tmp190
	movq	%rcx, %rsi	# D.10994,
	movq	%rax, %rdi	# tmp190,
	call	print_pattern	#
	.loc 1 720 0 discriminator 2
	leaq	-4128(%rbp), %rcx	#, tmp191
	leaq	-6176(%rbp), %rdx	#, tmp192
	leaq	-2080(%rbp), %rax	#, tmp193
	movl	$.LC96, %esi	#,
	movq	%rax, %rdi	# tmp193,
	movl	$0, %eax	#,
	call	sprintf	#
	.loc 1 721 0 discriminator 2
	leaq	-2080(%rbp), %rdx	#, tmp194
	leaq	-6176(%rbp), %rax	#, tmp195
	movq	%rdx, %rsi	# tmp194,
	movq	%rax, %rdi	# tmp195,
	call	strcpy	#
	.loc 1 717 0 discriminator 2
	addl	$1, -6184(%rbp)	#, i
.L170:
	.loc 1 717 0 is_stmt 0 discriminator 1
	movq	-6208(%rbp), %rax	# x, tmp196
	movq	8(%rax), %rax	# x_5(D)->fld[0].rtvec, D.10995
	movl	(%rax), %eax	# _46->num_elem, D.10996
	cmpl	-6184(%rbp), %eax	# i, D.10996
	jg	.L171	#,
	.loc 1 723 0 is_stmt 1
	leaq	-6176(%rbp), %rdx	#, tmp197
	movq	-6200(%rbp), %rax	# buf, tmp198
	movl	$.LC97, %esi	#,
	movq	%rax, %rdi	# tmp198,
	movl	$0, %eax	#,
	call	sprintf	#
.LBE5:
	.loc 1 725 0
	jmp	.L145	#
.L153:
.LBB6:
	.loc 1 730 0
	leaq	-6176(%rbp), %rax	#, tmp199
	movabsq	$8516134707710357109, %rbx	#, tmp219
	movq	%rbx, (%rax)	# tmp219, MEM[(void *)&t1]
	movw	$123, 8(%rax)	#, MEM[(void *)&t1]
	.loc 1 731 0
	movl	$0, -6180(%rbp)	#, i
	jmp	.L172	#
.L173:
	.loc 1 733 0 discriminator 2
	movq	-6208(%rbp), %rax	# x, tmp200
	movq	8(%rax), %rax	# x_5(D)->fld[0].rtvec, D.10995
	movl	-6180(%rbp), %edx	# i, tmp202
	movslq	%edx, %rdx	# tmp202, tmp201
	movq	8(%rax,%rdx,8), %rcx	# _54->elem, D.10994
	movl	-6212(%rbp), %edx	# verbose, tmp203
	leaq	-4128(%rbp), %rax	#, tmp204
	movq	%rcx, %rsi	# D.10994,
	movq	%rax, %rdi	# tmp204,
	call	print_pattern	#
	.loc 1 734 0 discriminator 2
	leaq	-4128(%rbp), %rcx	#, tmp205
	leaq	-6176(%rbp), %rdx	#, tmp206
	leaq	-2080(%rbp), %rax	#, tmp207
	movl	$.LC96, %esi	#,
	movq	%rax, %rdi	# tmp207,
	movl	$0, %eax	#,
	call	sprintf	#
	.loc 1 735 0 discriminator 2
	leaq	-2080(%rbp), %rdx	#, tmp208
	leaq	-6176(%rbp), %rax	#, tmp209
	movq	%rdx, %rsi	# tmp208,
	movq	%rax, %rdi	# tmp209,
	call	strcpy	#
	.loc 1 731 0 discriminator 2
	addl	$1, -6180(%rbp)	#, i
.L172:
	.loc 1 731 0 is_stmt 0 discriminator 1
	movq	-6208(%rbp), %rax	# x, tmp210
	movq	8(%rax), %rax	# x_5(D)->fld[0].rtvec, D.10995
	movl	(%rax), %eax	# _52->num_elem, D.10996
	cmpl	-6180(%rbp), %eax	# i, D.10996
	jg	.L173	#,
	.loc 1 737 0 is_stmt 1
	leaq	-6176(%rbp), %rdx	#, tmp211
	movq	-6200(%rbp), %rax	# buf, tmp212
	movl	$.LC97, %esi	#,
	movq	%rax, %rdi	# tmp212,
	movl	$0, %eax	#,
	call	sprintf	#
.LBE6:
	.loc 1 739 0
	jmp	.L145	#
.L146:
	.loc 1 741 0
	movl	-6212(%rbp), %edx	# verbose, tmp213
	movq	-6208(%rbp), %rcx	# x, tmp214
	movq	-6200(%rbp), %rax	# buf, tmp215
	movq	%rcx, %rsi	# tmp214,
	movq	%rax, %rdi	# tmp215,
	call	print_value	#
	jmp	.L145	#
.L175:
	.loc 1 704 0
	nop
.L145:
	.loc 1 743 0
	movq	-24(%rbp), %rax	# D.10998, tmp217
	xorq	%fs:40, %rax	#, tmp217
	je	.L174	#,
	call	__stack_chk_fail	#
.L174:
	addq	$6216, %rsp	#,
	popq	%rbx	#
	popq	%rbp	#
	.cfi_def_cfa 7, 8
	ret
	.cfi_endproc
.LFE9:
	.size	print_pattern, .-print_pattern
	.section	.rodata
.LC102:
	.string	"%s: %s"
.LC103:
	.string	"%-4d %s"
.LC104:
	.string	"%s: jump %s"
.LC105:
	.string	"L%d:"
.LC106:
	.string	"i% 4d: barrier"
.LC107:
	.string	"%4d note \"%s\" %d"
.LC108:
	.string	"%4d %s"
.LC109:
	.string	"i%-4d  <What?>"
	.text
	.type	print_insn, @function
print_insn:
.LFB10:
	.loc 1 757 0
	.cfi_startproc
	pushq	%rbp	#
	.cfi_def_cfa_offset 16
	.cfi_offset 6, -16
	movq	%rsp, %rbp	#,
	.cfi_def_cfa_register 6
	pushq	%rbx	#
	subq	$2120, %rsp	#,
	.cfi_offset 3, -24
	movq	%rdi, -2104(%rbp)	# buf, buf
	movq	%rsi, -2112(%rbp)	# x, x
	movl	%edx, -2116(%rbp)	# verbose, verbose
	.loc 1 757 0
	movq	%fs:40, %rax	#, tmp143
	movq	%rax, -24(%rbp)	# tmp143, D.11016
	xorl	%eax, %eax	# tmp143
	.loc 1 759 0
	movq	-2112(%rbp), %rax	# x, tmp88
	movq	%rax, -2088(%rbp)	# tmp88, insn
	.loc 1 761 0
	movq	-2112(%rbp), %rax	# x, tmp89
	movzwl	(%rax), %eax	# x_2(D)->code, D.11009
	movzwl	%ax, %eax	# D.11009, D.11010
	subl	$32, %eax	#, tmp90
	cmpl	$5, %eax	#, tmp90
	ja	.L177	#,
	movl	%eax, %eax	# tmp90, tmp91
	movq	.L179(,%rax,8), %rax	#, tmp92
	jmp	*%rax	# tmp92
	.section	.rodata
	.align 8
	.align 4
.L179:
	.quad	.L178
	.quad	.L180
	.quad	.L181
	.quad	.L182
	.quad	.L183
	.quad	.L184
	.text
.L178:
	.loc 1 764 0
	movq	-2112(%rbp), %rax	# x, tmp93
	movq	32(%rax), %rcx	# x_2(D)->fld[3].rtx, D.11011
	movl	-2116(%rbp), %edx	# verbose, tmp94
	leaq	-2080(%rbp), %rax	#, tmp95
	movq	%rcx, %rsi	# D.11011,
	movq	%rax, %rdi	# tmp95,
	call	print_pattern	#
	.loc 1 765 0
	cmpl	$0, -2116(%rbp)	#, verbose
	je	.L185	#,
	.loc 1 766 0
	movq	current_sched_info(%rip), %rax	# current_sched_info, current_sched_info.26
	movq	40(%rax), %rax	# current_sched_info.26_8->print_insn, D.11012
	movq	-2112(%rbp), %rdx	# x, tmp96
	movl	$1, %esi	#,
	movq	%rdx, %rdi	# tmp96,
	call	*%rax	# D.11012
	movq	%rax, %rdx	#, D.11013
	leaq	-2080(%rbp), %rcx	#, tmp97
	movq	-2104(%rbp), %rax	# buf, tmp98
	movl	$.LC102, %esi	#,
	movq	%rax, %rdi	# tmp98,
	movl	$0, %eax	#,
	call	sprintf	#
	.loc 1 770 0
	jmp	.L176	#
.L185:
	.loc 1 769 0
	movq	-2112(%rbp), %rax	# x, tmp99
	movl	8(%rax), %edx	# x_2(D)->fld[0].rtint, D.11014
	leaq	-2080(%rbp), %rcx	#, tmp100
	movq	-2104(%rbp), %rax	# buf, tmp101
	movl	$.LC103, %esi	#,
	movq	%rax, %rdi	# tmp101,
	movl	$0, %eax	#,
	call	sprintf	#
	.loc 1 770 0
	jmp	.L176	#
.L180:
	.loc 1 772 0
	movq	-2112(%rbp), %rax	# x, tmp102
	movq	32(%rax), %rcx	# x_2(D)->fld[3].rtx, D.11011
	movl	-2116(%rbp), %edx	# verbose, tmp103
	leaq	-2080(%rbp), %rax	#, tmp104
	movq	%rcx, %rsi	# D.11011,
	movq	%rax, %rdi	# tmp104,
	call	print_pattern	#
	.loc 1 773 0
	cmpl	$0, -2116(%rbp)	#, verbose
	je	.L188	#,
	.loc 1 774 0
	movq	current_sched_info(%rip), %rax	# current_sched_info, current_sched_info.27
	movq	40(%rax), %rax	# current_sched_info.27_14->print_insn, D.11012
	movq	-2112(%rbp), %rdx	# x, tmp105
	movl	$1, %esi	#,
	movq	%rdx, %rdi	# tmp105,
	call	*%rax	# D.11012
	movq	%rax, %rdx	#, D.11013
	leaq	-2080(%rbp), %rcx	#, tmp106
	movq	-2104(%rbp), %rax	# buf, tmp107
	movl	$.LC104, %esi	#,
	movq	%rax, %rdi	# tmp107,
	movl	$0, %eax	#,
	call	sprintf	#
	.loc 1 778 0
	jmp	.L176	#
.L188:
	.loc 1 777 0
	movq	-2112(%rbp), %rax	# x, tmp108
	movl	8(%rax), %edx	# x_2(D)->fld[0].rtint, D.11014
	leaq	-2080(%rbp), %rcx	#, tmp109
	movq	-2104(%rbp), %rax	# buf, tmp110
	movl	$.LC103, %esi	#,
	movq	%rax, %rdi	# tmp110,
	movl	$0, %eax	#,
	call	sprintf	#
	.loc 1 778 0
	jmp	.L176	#
.L181:
	.loc 1 780 0
	movq	-2088(%rbp), %rax	# insn, tmp111
	movq	32(%rax), %rax	# insn_3->fld[3].rtx, tmp112
	movq	%rax, -2112(%rbp)	# tmp112, x
	.loc 1 781 0
	movq	-2112(%rbp), %rax	# x, tmp113
	movzwl	(%rax), %eax	# x_18->code, D.11009
	cmpw	$39, %ax	#, D.11009
	jne	.L190	#,
	.loc 1 783 0
	movq	-2112(%rbp), %rax	# x, tmp114
	movq	8(%rax), %rax	# x_18->fld[0].rtvec, D.11015
	movq	8(%rax), %rax	# _20->elem, tmp115
	movq	%rax, -2112(%rbp)	# tmp115, x
	.loc 1 784 0
	movl	-2116(%rbp), %edx	# verbose, tmp116
	movq	-2112(%rbp), %rcx	# x, tmp117
	leaq	-2080(%rbp), %rax	#, tmp118
	movq	%rcx, %rsi	# tmp117,
	movq	%rax, %rdi	# tmp118,
	call	print_pattern	#
	jmp	.L191	#
.L190:
	.loc 1 787 0
	leaq	-2080(%rbp), %rax	#, tmp119
	movabsq	$3327663284629037411, %rbx	#, tmp145
	movq	%rbx, (%rax)	# tmp145, MEM[(void *)&t]
	movw	$15918, 8(%rax)	#, MEM[(void *)&t]
	movb	$0, 10(%rax)	#, MEM[(void *)&t]
.L191:
	.loc 1 788 0
	cmpl	$0, -2116(%rbp)	#, verbose
	je	.L192	#,
	.loc 1 789 0
	movq	current_sched_info(%rip), %rax	# current_sched_info, current_sched_info.28
	movq	40(%rax), %rax	# current_sched_info.28_22->print_insn, D.11012
	movq	-2112(%rbp), %rdx	# x, tmp120
	movl	$1, %esi	#,
	movq	%rdx, %rdi	# tmp120,
	call	*%rax	# D.11012
	movq	%rax, %rdx	#, D.11013
	leaq	-2080(%rbp), %rcx	#, tmp121
	movq	-2104(%rbp), %rax	# buf, tmp122
	movl	$.LC102, %esi	#,
	movq	%rax, %rdi	# tmp122,
	movl	$0, %eax	#,
	call	sprintf	#
	.loc 1 792 0
	jmp	.L176	#
.L192:
	.loc 1 791 0
	movq	-2088(%rbp), %rax	# insn, tmp123
	movl	8(%rax), %edx	# insn_3->fld[0].rtint, D.11014
	leaq	-2080(%rbp), %rcx	#, tmp124
	movq	-2104(%rbp), %rax	# buf, tmp125
	movl	$.LC103, %esi	#,
	movq	%rax, %rdi	# tmp125,
	movl	$0, %eax	#,
	call	sprintf	#
	.loc 1 792 0
	jmp	.L176	#
.L183:
	.loc 1 794 0
	movq	-2112(%rbp), %rax	# x, tmp126
	movl	8(%rax), %edx	# x_2(D)->fld[0].rtint, D.11014
	movq	-2104(%rbp), %rax	# buf, tmp127
	movl	$.LC105, %esi	#,
	movq	%rax, %rdi	# tmp127,
	movl	$0, %eax	#,
	call	sprintf	#
	.loc 1 795 0
	jmp	.L176	#
.L182:
	.loc 1 797 0
	movq	-2112(%rbp), %rax	# x, tmp128
	movl	8(%rax), %edx	# x_2(D)->fld[0].rtint, D.11014
	movq	-2104(%rbp), %rax	# buf, tmp129
	movl	$.LC106, %esi	#,
	movq	%rax, %rdi	# tmp129,
	movl	$0, %eax	#,
	call	sprintf	#
	.loc 1 798 0
	jmp	.L176	#
.L184:
	.loc 1 800 0
	movq	-2112(%rbp), %rax	# x, tmp130
	movl	40(%rax), %eax	# x_2(D)->fld[4].rtint, D.11014
	testl	%eax, %eax	# D.11014
	jle	.L194	#,
	.loc 1 801 0
	movq	-2112(%rbp), %rax	# x, tmp131
	movl	40(%rax), %esi	# x_2(D)->fld[4].rtint, D.11014
	movq	-2112(%rbp), %rax	# x, tmp132
	movq	32(%rax), %rcx	# x_2(D)->fld[3].rtstr, D.11013
	movq	-2112(%rbp), %rax	# x, tmp133
	movl	8(%rax), %edx	# x_2(D)->fld[0].rtint, D.11014
	movq	-2104(%rbp), %rax	# buf, tmp134
	movl	%esi, %r8d	# D.11014,
	movl	$.LC107, %esi	#,
	movq	%rax, %rdi	# tmp134,
	movl	$0, %eax	#,
	call	sprintf	#
	.loc 1 806 0
	jmp	.L176	#
.L194:
	.loc 1 805 0
	movq	-2112(%rbp), %rax	# x, tmp135
	movl	40(%rax), %eax	# x_2(D)->fld[4].rtint, D.11014
	addl	$100, %eax	#, D.11014
	.loc 1 804 0
	cltq
	movq	note_insn_name(,%rax,8), %rcx	# note_insn_name, D.11013
	movq	-2112(%rbp), %rax	# x, tmp137
	movl	8(%rax), %edx	# x_2(D)->fld[0].rtint, D.11014
	movq	-2104(%rbp), %rax	# buf, tmp138
	movl	$.LC108, %esi	#,
	movq	%rax, %rdi	# tmp138,
	movl	$0, %eax	#,
	call	sprintf	#
	.loc 1 806 0
	jmp	.L176	#
.L177:
	.loc 1 808 0
	cmpl	$0, -2116(%rbp)	#, verbose
	je	.L196	#,
	.loc 1 810 0
	movq	-2104(%rbp), %rax	# buf, tmp139
	movabsq	$5269332927458864974, %rbx	#, tmp146
	movq	%rbx, (%rax)	# tmp146, MEM[(void *)buf_11(D)]
	movabsq	$6998721781436404558, %rbx	#, tmp147
	movq	%rbx, 8(%rax)	# tmp147, MEM[(void *)buf_11(D)]
	movl	$683116, 16(%rax)	#, MEM[(void *)buf_11(D)]
	.loc 1 811 0
	movq	-2112(%rbp), %rax	# x, tmp140
	movq	%rax, %rdi	# tmp140,
	call	debug_rtx	#
	jmp	.L176	#
.L196:
	.loc 1 814 0
	movq	-2112(%rbp), %rax	# x, tmp141
	movl	8(%rax), %edx	# x_2(D)->fld[0].rtint, D.11014
	movq	-2104(%rbp), %rax	# buf, tmp142
	movl	$.LC109, %esi	#,
	movq	%rax, %rdi	# tmp142,
	movl	$0, %eax	#,
	call	sprintf	#
.L176:
	.loc 1 816 0
	movq	-24(%rbp), %rax	# D.11016, tmp144
	xorq	%fs:40, %rax	#, tmp144
	je	.L197	#,
	call	__stack_chk_fail	#
.L197:
	addq	$2120, %rsp	#,
	popq	%rbx	#
	popq	%rbp	#
	.cfi_def_cfa 7, 8
	ret
	.cfi_endproc
.LFE10:
	.size	print_insn, .-print_insn
	.section	.rodata
	.align 8
.LC110:
	.string	"\n;;   ==================== scheduling visualization %s \n"
.LC111:
	.string	"clock"
.LC112:
	.string	";;   %-8s"
.LC113:
	.string	"  %-33s"
.LC114:
	.string	"no-unit"
.LC115:
	.string	"  %-8s\n"
.LC116:
	.string	"====="
	.align 8
.LC117:
	.string	"=============================="
.LC118:
	.string	"======="
.LC119:
	.string	"%s\n"
	.text
	.globl	print_block_visualization
	.type	print_block_visualization, @function
print_block_visualization:
.LFB11:
	.loc 1 823 0
	.cfi_startproc
	pushq	%rbp	#
	.cfi_def_cfa_offset 16
	.cfi_offset 6, -16
	movq	%rsp, %rbp	#,
	.cfi_def_cfa_register 6
	subq	$32, %rsp	#,
	movq	%rdi, -24(%rbp)	# s, s
	.loc 1 827 0
	movq	sched_dump(%rip), %rax	# sched_dump, sched_dump.29
	movq	-24(%rbp), %rdx	# s, tmp77
	movl	$.LC110, %esi	#,
	movq	%rax, %rdi	# sched_dump.29,
	movl	$0, %eax	#,
	call	fprintf	#
	.loc 1 830 0
	movq	sched_dump(%rip), %rax	# sched_dump, sched_dump.30
	movl	$.LC111, %edx	#,
	movl	$.LC112, %esi	#,
	movq	%rax, %rdi	# sched_dump.30,
	movl	$0, %eax	#,
	call	fprintf	#
	.loc 1 831 0
	movl	$0, -8(%rbp)	#, unit
	jmp	.L199	#
.L203:
	.loc 1 832 0
	movl	-8(%rbp), %eax	# unit, tmp79
	movslq	%eax, %rdx	# tmp79, tmp78
	movq	%rdx, %rax	# tmp78, tmp80
	salq	$3, %rax	#, tmp80
	addq	%rdx, %rax	# tmp78, tmp80
	salq	$3, %rax	#, tmp81
	addq	$function_units, %rax	#, tmp82
	movl	8(%rax), %edx	# function_units[unit_1].bitmask, D.11025
	movl	target_units(%rip), %eax	# target_units, target_units.31
	andl	%edx, %eax	# D.11025, D.11025
	testl	%eax, %eax	# D.11025
	je	.L200	#,
	.loc 1 833 0
	movl	$0, -4(%rbp)	#, i
	jmp	.L201	#
.L202:
	.loc 1 834 0 discriminator 2
	movl	-8(%rbp), %eax	# unit, tmp84
	movslq	%eax, %rdx	# tmp84, tmp83
	movq	%rdx, %rax	# tmp83, tmp85
	salq	$3, %rax	#, tmp85
	addq	%rdx, %rax	# tmp83, tmp85
	salq	$3, %rax	#, tmp86
	addq	$function_units, %rax	#, tmp87
	movq	(%rax), %rdx	# function_units[unit_1].name, D.11026
	movq	sched_dump(%rip), %rax	# sched_dump, sched_dump.32
	movl	$.LC113, %esi	#,
	movq	%rax, %rdi	# sched_dump.32,
	movl	$0, %eax	#,
	call	fprintf	#
	.loc 1 833 0 discriminator 2
	addl	$1, -4(%rbp)	#, i
.L201:
	.loc 1 833 0 is_stmt 0 discriminator 1
	movl	-8(%rbp), %eax	# unit, tmp89
	movslq	%eax, %rdx	# tmp89, tmp88
	movq	%rdx, %rax	# tmp88, tmp90
	salq	$3, %rax	#, tmp90
	addq	%rdx, %rax	# tmp88, tmp90
	salq	$3, %rax	#, tmp91
	addq	$function_units, %rax	#, tmp92
	movl	12(%rax), %eax	# function_units[unit_1].multiplicity, D.11025
	cmpl	-4(%rbp), %eax	# i, D.11025
	jg	.L202	#,
.L200:
	.loc 1 831 0 is_stmt 1
	addl	$1, -8(%rbp)	#, unit
.L199:
	.loc 1 831 0 is_stmt 0 discriminator 1
	cmpl	$25, -8(%rbp)	#, unit
	jle	.L203	#,
	.loc 1 835 0 is_stmt 1
	movq	sched_dump(%rip), %rax	# sched_dump, sched_dump.33
	movl	$.LC114, %edx	#,
	movl	$.LC115, %esi	#,
	movq	%rax, %rdi	# sched_dump.33,
	movl	$0, %eax	#,
	call	fprintf	#
	.loc 1 837 0
	movq	sched_dump(%rip), %rax	# sched_dump, sched_dump.34
	movl	$.LC116, %edx	#,
	movl	$.LC112, %esi	#,
	movq	%rax, %rdi	# sched_dump.34,
	movl	$0, %eax	#,
	call	fprintf	#
	.loc 1 838 0
	movl	$0, -8(%rbp)	#, unit
	jmp	.L204	#
.L208:
	.loc 1 839 0
	movl	-8(%rbp), %eax	# unit, tmp94
	movslq	%eax, %rdx	# tmp94, tmp93
	movq	%rdx, %rax	# tmp93, tmp95
	salq	$3, %rax	#, tmp95
	addq	%rdx, %rax	# tmp93, tmp95
	salq	$3, %rax	#, tmp96
	addq	$function_units, %rax	#, tmp97
	movl	8(%rax), %edx	# function_units[unit_2].bitmask, D.11025
	movl	target_units(%rip), %eax	# target_units, target_units.35
	andl	%edx, %eax	# D.11025, D.11025
	testl	%eax, %eax	# D.11025
	je	.L205	#,
	.loc 1 840 0
	movl	$0, -4(%rbp)	#, i
	jmp	.L206	#
.L207:
	.loc 1 841 0 discriminator 2
	movq	sched_dump(%rip), %rax	# sched_dump, sched_dump.36
	movl	$.LC117, %edx	#,
	movl	$.LC113, %esi	#,
	movq	%rax, %rdi	# sched_dump.36,
	movl	$0, %eax	#,
	call	fprintf	#
	.loc 1 840 0 discriminator 2
	addl	$1, -4(%rbp)	#, i
.L206:
	.loc 1 840 0 is_stmt 0 discriminator 1
	movl	-8(%rbp), %eax	# unit, tmp99
	movslq	%eax, %rdx	# tmp99, tmp98
	movq	%rdx, %rax	# tmp98, tmp100
	salq	$3, %rax	#, tmp100
	addq	%rdx, %rax	# tmp98, tmp100
	salq	$3, %rax	#, tmp101
	addq	$function_units, %rax	#, tmp102
	movl	12(%rax), %eax	# function_units[unit_2].multiplicity, D.11025
	cmpl	-4(%rbp), %eax	# i, D.11025
	jg	.L207	#,
.L205:
	.loc 1 838 0 is_stmt 1
	addl	$1, -8(%rbp)	#, unit
.L204:
	.loc 1 838 0 is_stmt 0 discriminator 1
	cmpl	$25, -8(%rbp)	#, unit
	jle	.L208	#,
	.loc 1 842 0 is_stmt 1
	movq	sched_dump(%rip), %rax	# sched_dump, sched_dump.37
	movl	$.LC118, %edx	#,
	movl	$.LC115, %esi	#,
	movq	%rax, %rdi	# sched_dump.37,
	movl	$0, %eax	#,
	call	fprintf	#
	.loc 1 845 0
	movq	visual_tbl(%rip), %rdx	# visual_tbl, visual_tbl.38
	movq	sched_dump(%rip), %rax	# sched_dump, sched_dump.39
	movl	$.LC119, %esi	#,
	movq	%rax, %rdi	# sched_dump.39,
	movl	$0, %eax	#,
	call	fprintf	#
	.loc 1 846 0
	leave
	.cfi_def_cfa 7, 8
	ret
	.cfi_endproc
.LFE11:
	.size	print_block_visualization, .-print_block_visualization
	.globl	visualize_no_unit
	.type	visualize_no_unit, @function
visualize_no_unit:
.LFB12:
	.loc 1 853 0
	.cfi_startproc
	pushq	%rbp	#
	.cfi_def_cfa_offset 16
	.cfi_offset 6, -16
	movq	%rsp, %rbp	#,
	.cfi_def_cfa_register 6
	movq	%rdi, -8(%rbp)	# insn, insn
	.loc 1 854 0
	movl	n_vis_no_unit(%rip), %eax	# n_vis_no_unit, n_vis_no_unit.40
	cmpl	$19, %eax	#, n_vis_no_unit.40
	jg	.L209	#,
	.loc 1 856 0
	movl	n_vis_no_unit(%rip), %eax	# n_vis_no_unit, n_vis_no_unit.41
	cltq
	movq	-8(%rbp), %rdx	# insn, tmp64
	movq	%rdx, vis_no_unit(,%rax,8)	# tmp64, vis_no_unit
	.loc 1 857 0
	movl	n_vis_no_unit(%rip), %eax	# n_vis_no_unit, n_vis_no_unit.42
	addl	$1, %eax	#, n_vis_no_unit.43
	movl	%eax, n_vis_no_unit(%rip)	# n_vis_no_unit.43, n_vis_no_unit
.L209:
	.loc 1 859 0
	popq	%rbp	#
	.cfi_def_cfa 7, 8
	ret
	.cfi_endproc
.LFE12:
	.size	visualize_no_unit, .-visualize_no_unit
	.section	.rodata
.LC120:
	.string	"(incomplete)"
.LC121:
	.string	";;   %-8d"
	.align 8
.LC122:
	.string	"------------------------------"
.LC123:
	.string	"  %-8d"
	.text
	.globl	visualize_scheduled_insns
	.type	visualize_scheduled_insns, @function
visualize_scheduled_insns:
.LFB13:
	.loc 1 866 0
	.cfi_startproc
	pushq	%rbp	#
	.cfi_def_cfa_offset 16
	.cfi_offset 6, -16
	movq	%rsp, %rbp	#,
	.cfi_def_cfa_register 6
	pushq	%r12	#
	pushq	%rbx	#
	subq	$2112, %rsp	#,
	.cfi_offset 12, -24
	.cfi_offset 3, -32
	movl	%edi, -2116(%rbp)	# clock, clock
	.loc 1 866 0
	movq	%fs:40, %rax	#, tmp118
	movq	%rax, -24(%rbp)	# tmp118, D.11041
	xorl	%eax, %eax	# tmp118
	.loc 1 870 0
	movl	n_visual_lines(%rip), %eax	# n_visual_lines, n_visual_lines.44
	cmpl	$99, %eax	#, n_visual_lines.44
	jle	.L212	#,
	.loc 1 872 0
	movl	$.LC120, %edi	#,
	call	print_block_visualization	#
	.loc 1 873 0
	call	init_block_visualization	#
.L212:
	.loc 1 876 0
	movl	n_visual_lines(%rip), %eax	# n_visual_lines, n_visual_lines.45
	addl	$1, %eax	#, n_visual_lines.46
	movl	%eax, n_visual_lines(%rip)	# n_visual_lines.46, n_visual_lines
	.loc 1 878 0
	movq	visual_tbl(%rip), %rbx	# visual_tbl, visual_tbl.47
	movq	visual_tbl(%rip), %rax	# visual_tbl, visual_tbl.48
	movq	%rax, %rdi	# visual_tbl.48,
	call	strlen	#
	leaq	(%rbx,%rax), %rcx	#, D.11038
	movl	-2116(%rbp), %eax	# clock, tmp91
	movl	%eax, %edx	# tmp91,
	movl	$.LC121, %esi	#,
	movq	%rcx, %rdi	# D.11038,
	movl	$0, %eax	#,
	call	sprintf	#
	.loc 1 879 0
	movl	$0, -2096(%rbp)	#, unit
	jmp	.L213	#
.L219:
	.loc 1 880 0
	movl	-2096(%rbp), %eax	# unit, tmp93
	movslq	%eax, %rdx	# tmp93, tmp92
	movq	%rdx, %rax	# tmp92, tmp94
	salq	$3, %rax	#, tmp94
	addq	%rdx, %rax	# tmp92, tmp94
	salq	$3, %rax	#, tmp95
	addq	$function_units, %rax	#, tmp96
	movl	8(%rax), %edx	# function_units[unit_3].bitmask, D.11039
	movl	target_units(%rip), %eax	# target_units, target_units.49
	andl	%edx, %eax	# D.11039, D.11039
	testl	%eax, %eax	# D.11039
	je	.L214	#,
	.loc 1 881 0
	movl	$0, -2100(%rbp)	#, i
	jmp	.L215	#
.L218:
.LBB7:
	.loc 1 883 0
	movl	-2100(%rbp), %eax	# i, tmp97
	imull	$26, %eax, %edx	#, tmp97, D.11039
	movl	-2096(%rbp), %eax	# unit, tmp101
	addl	%edx, %eax	# D.11039, tmp100
	movl	%eax, -2092(%rbp)	# tmp100, instance
	.loc 1 884 0
	movl	-2092(%rbp), %eax	# instance, tmp102
	movl	%eax, %edi	# tmp102,
	call	get_unit_last_insn	#
	movq	%rax, -2088(%rbp)	# tmp103, insn
	.loc 1 887 0
	cmpq	$0, -2088(%rbp)	#, insn
	je	.L216	#,
	.loc 1 888 0
	movl	-2116(%rbp), %ecx	# clock, tmp104
	movq	-2088(%rbp), %rdx	# insn, tmp105
	movl	-2092(%rbp), %esi	# instance, tmp106
	movl	-2096(%rbp), %eax	# unit, tmp107
	movl	$0, %r8d	#,
	movl	%eax, %edi	# tmp107,
	call	actual_hazard_this_instance	#
	testl	%eax, %eax	# D.11039
	je	.L216	#,
.LBB8:
	.loc 1 891 0
	movq	-2088(%rbp), %rcx	# insn, tmp108
	leaq	-2080(%rbp), %rax	#, tmp109
	movl	$0, %edx	#,
	movq	%rcx, %rsi	# tmp108,
	movq	%rax, %rdi	# tmp109,
	call	print_insn	#
	.loc 1 892 0
	movb	$0, -2050(%rbp)	#, str
	.loc 1 893 0
	movq	visual_tbl(%rip), %rbx	# visual_tbl, visual_tbl.50
	movq	visual_tbl(%rip), %rax	# visual_tbl, visual_tbl.51
	movq	%rax, %rdi	# visual_tbl.51,
	call	strlen	#
	leaq	(%rbx,%rax), %rcx	#, D.11038
	leaq	-2080(%rbp), %rax	#, tmp110
	movq	%rax, %rdx	# tmp110,
	movl	$.LC113, %esi	#,
	movq	%rcx, %rdi	# D.11038,
	movl	$0, %eax	#,
	call	sprintf	#
.LBE8:
	.loc 1 889 0
	jmp	.L217	#
.L216:
	.loc 1 896 0
	movq	visual_tbl(%rip), %rbx	# visual_tbl, visual_tbl.52
	movq	visual_tbl(%rip), %rax	# visual_tbl, visual_tbl.53
	movq	%rax, %rdi	# visual_tbl.53,
	call	strlen	#
	addq	%rbx, %rax	# visual_tbl.52, D.11038
	movl	$.LC122, %edx	#,
	movl	$.LC113, %esi	#,
	movq	%rax, %rdi	# D.11038,
	movl	$0, %eax	#,
	call	sprintf	#
.L217:
.LBE7:
	.loc 1 881 0
	addl	$1, -2100(%rbp)	#, i
.L215:
	.loc 1 881 0 is_stmt 0 discriminator 1
	movl	-2096(%rbp), %eax	# unit, tmp112
	movslq	%eax, %rdx	# tmp112, tmp111
	movq	%rdx, %rax	# tmp111, tmp113
	salq	$3, %rax	#, tmp113
	addq	%rdx, %rax	# tmp111, tmp113
	salq	$3, %rax	#, tmp114
	addq	$function_units, %rax	#, tmp115
	movl	12(%rax), %eax	# function_units[unit_3].multiplicity, D.11039
	cmpl	-2100(%rbp), %eax	# i, D.11039
	jg	.L218	#,
.L214:
	.loc 1 879 0 is_stmt 1
	addl	$1, -2096(%rbp)	#, unit
.L213:
	.loc 1 879 0 is_stmt 0 discriminator 1
	cmpl	$25, -2096(%rbp)	#, unit
	jle	.L219	#,
	.loc 1 900 0 is_stmt 1
	movl	$0, -2100(%rbp)	#, i
	jmp	.L220	#
.L221:
	.loc 1 902 0 discriminator 2
	movl	-2100(%rbp), %eax	# i, tmp117
	cltq
	movq	vis_no_unit(,%rax,8), %rax	# vis_no_unit, D.11040
	.loc 1 901 0 discriminator 2
	movl	8(%rax), %ebx	# _34->fld[0].rtint, D.11039
	movq	visual_tbl(%rip), %r12	# visual_tbl, visual_tbl.54
	movq	visual_tbl(%rip), %rax	# visual_tbl, visual_tbl.55
	movq	%rax, %rdi	# visual_tbl.55,
	call	strlen	#
	addq	%r12, %rax	# visual_tbl.54, D.11038
	movl	%ebx, %edx	# D.11039,
	movl	$.LC123, %esi	#,
	movq	%rax, %rdi	# D.11038,
	movl	$0, %eax	#,
	call	sprintf	#
	.loc 1 900 0 discriminator 2
	addl	$1, -2100(%rbp)	#, i
.L220:
	.loc 1 900 0 is_stmt 0 discriminator 1
	movl	n_vis_no_unit(%rip), %eax	# n_vis_no_unit, n_vis_no_unit.56
	cmpl	%eax, -2100(%rbp)	# n_vis_no_unit.56, i
	jl	.L221	#,
	.loc 1 903 0 is_stmt 1
	movl	$0, n_vis_no_unit(%rip)	#, n_vis_no_unit
	.loc 1 905 0
	movq	visual_tbl(%rip), %rbx	# visual_tbl, visual_tbl.57
	movq	visual_tbl(%rip), %rax	# visual_tbl, visual_tbl.58
	movq	%rax, %rdi	# visual_tbl.58,
	call	strlen	#
	addq	%rbx, %rax	# visual_tbl.57, D.11038
	movw	$10, (%rax)	#, MEM[(void *)_44]
	.loc 1 906 0
	movq	-24(%rbp), %rax	# D.11041, tmp119
	xorq	%fs:40, %rax	#, tmp119
	je	.L222	#,
	call	__stack_chk_fail	#
.L222:
	addq	$2112, %rsp	#,
	popq	%rbx	#
	popq	%r12	#
	popq	%rbp	#
	.cfi_def_cfa 7, 8
	ret
	.cfi_endproc
.LFE13:
	.size	visualize_scheduled_insns, .-visualize_scheduled_insns
	.section	.rodata
.LC124:
	.string	"\n"
.LC125:
	.string	";;       "
.LC126:
	.string	"[...]\n"
	.text
	.globl	visualize_stall_cycles
	.type	visualize_stall_cycles, @function
visualize_stall_cycles:
.LFB14:
	.loc 1 913 0
	.cfi_startproc
	pushq	%rbp	#
	.cfi_def_cfa_offset 16
	.cfi_offset 6, -16
	movq	%rsp, %rbp	#,
	.cfi_def_cfa_register 6
	pushq	%r12	#
	pushq	%rbx	#
	subq	$32, %rsp	#,
	.cfi_offset 12, -24
	.cfi_offset 3, -32
	movl	%edi, -36(%rbp)	# stalls, stalls
	.loc 1 915 0
	movq	$.LC124, -32(%rbp)	#, suffix
	.loc 1 919 0
	movl	n_visual_lines(%rip), %eax	# n_visual_lines, n_visual_lines.59
	cmpl	$99, %eax	#, n_visual_lines.59
	jle	.L224	#,
	.loc 1 921 0
	movl	$.LC120, %edi	#,
	call	print_block_visualization	#
	.loc 1 922 0
	call	init_block_visualization	#
.L224:
	.loc 1 925 0
	movl	n_visual_lines(%rip), %eax	# n_visual_lines, n_visual_lines.60
	addl	$1, %eax	#, n_visual_lines.61
	movl	%eax, n_visual_lines(%rip)	# n_visual_lines.61, n_visual_lines
	.loc 1 927 0
	movq	visual_tbl(%rip), %rbx	# visual_tbl, visual_tbl.62
	movq	visual_tbl(%rip), %rax	# visual_tbl, visual_tbl.63
	movq	%rax, %rdi	# visual_tbl.63,
	call	strlen	#
	addq	%rbx, %rax	# visual_tbl.62, tmp87
	movq	%rax, -24(%rbp)	# tmp87, p
	.loc 1 928 0
	movl	$.LC125, %edx	#, prefix.64
	movq	-24(%rbp), %rax	# p, tmp88
	movq	%rdx, %rsi	# prefix.64,
	movq	%rax, %rdi	# tmp88,
	call	strcpy	#
	.loc 1 929 0
	movl	$.LC125, %eax	#, prefix.65
	movq	%rax, %rdi	# prefix.65,
	call	strlen	#
	addq	%rax, -24(%rbp)	# D.11046, p
	.loc 1 931 0
	movl	-36(%rbp), %eax	# stalls, stalls.66
	movl	%eax, %ebx	# stalls.66, D.11046
	.loc 1 932 0
	movl	visual_tbl_line_length(%rip), %eax	# visual_tbl_line_length, visual_tbl_line_length.67
	movl	%eax, %r12d	# visual_tbl_line_length.67, D.11046
	movl	$.LC125, %eax	#, prefix.68
	movq	%rax, %rdi	# prefix.68,
	call	strlen	#
	subq	%rax, %r12	# D.11046, D.11046
	movq	-32(%rbp), %rax	# suffix, tmp89
	movq	%rax, %rdi	# tmp89,
	call	strlen	#
	subq	%rax, %r12	# D.11046, D.11046
	movq	%r12, %rax	# D.11046, D.11046
	.loc 1 931 0
	cmpq	%rax, %rbx	# D.11046, D.11046
	jbe	.L225	#,
	.loc 1 934 0
	movq	$.LC126, -32(%rbp)	#, suffix
	.loc 1 935 0
	movl	visual_tbl_line_length(%rip), %ebx	# visual_tbl_line_length, visual_tbl_line_length.69
	movl	$.LC125, %eax	#, prefix.70
	movq	%rax, %rdi	# prefix.70,
	call	strlen	#
	subl	%eax, %ebx	# D.11047, D.11047
	movq	-32(%rbp), %rax	# suffix, tmp90
	movq	%rax, %rdi	# tmp90,
	call	strlen	#
	subl	%eax, %ebx	# D.11047, D.11047
	movl	%ebx, %eax	# D.11047, D.11047
	movl	%eax, -36(%rbp)	# D.11047, stalls
.L225:
	.loc 1 938 0
	movl	-36(%rbp), %eax	# stalls, tmp91
	movslq	%eax, %rdx	# tmp91, D.11046
	movq	-24(%rbp), %rax	# p, tmp92
	movl	$46, %esi	#,
	movq	%rax, %rdi	# tmp92,
	call	memset	#
	.loc 1 939 0
	movl	-36(%rbp), %eax	# stalls, tmp93
	cltq
	addq	%rax, -24(%rbp)	# D.11048, p
	.loc 1 941 0
	movq	-32(%rbp), %rdx	# suffix, tmp94
	movq	-24(%rbp), %rax	# p, tmp95
	movq	%rdx, %rsi	# tmp94,
	movq	%rax, %rdi	# tmp95,
	call	strcpy	#
	.loc 1 942 0
	addq	$32, %rsp	#,
	popq	%rbx	#
	popq	%r12	#
	popq	%rbp	#
	.cfi_def_cfa 7, 8
	ret
	.cfi_endproc
.LFE14:
	.size	visualize_stall_cycles, .-visualize_stall_cycles
	.globl	visualize_alloc
	.type	visualize_alloc, @function
visualize_alloc:
.LFB15:
	.loc 1 948 0
	.cfi_startproc
	pushq	%rbp	#
	.cfi_def_cfa_offset 16
	.cfi_offset 6, -16
	movq	%rsp, %rbp	#,
	.cfi_def_cfa_register 6
	.loc 1 949 0
	call	get_visual_tbl_length	#
	cltq
	movq	%rax, %rdi	# D.11053,
	call	xmalloc	#
	movq	%rax, visual_tbl(%rip)	# visual_tbl.71, visual_tbl
	.loc 1 950 0
	popq	%rbp	#
	.cfi_def_cfa 7, 8
	ret
	.cfi_endproc
.LFE15:
	.size	visualize_alloc, .-visualize_alloc
	.globl	visualize_free
	.type	visualize_free, @function
visualize_free:
.LFB16:
	.loc 1 956 0
	.cfi_startproc
	pushq	%rbp	#
	.cfi_def_cfa_offset 16
	.cfi_offset 6, -16
	movq	%rsp, %rbp	#,
	.cfi_def_cfa_register 6
	.loc 1 957 0
	movq	visual_tbl(%rip), %rax	# visual_tbl, visual_tbl.72
	movq	%rax, %rdi	# visual_tbl.72,
	call	free	#
	.loc 1 958 0
	popq	%rbp	#
	.cfi_def_cfa 7, 8
	ret
	.cfi_endproc
.LFE16:
	.size	visualize_free, .-visualize_free
	.section	.rodata
	.align 8
	.type	prefix.10385, @object
	.size	prefix.10385, 8
prefix.10385:
	.quad	.LC125
	.text
.Letext0:
	.file 2 "rtl.h"
	.file 3 "config.h"
	.file 4 "/usr/lib/gcc/x86_64-linux-gnu/4.8/include/stddef.h"
	.file 5 "/usr/include/x86_64-linux-gnu/bits/types.h"
	.file 6 "/usr/include/stdio.h"
	.file 7 "/usr/include/libio.h"
	.file 8 "i386.h"
	.file 9 "machmode.h"
	.file 10 "bitmap.h"
	.file 11 "basic-block.h"
	.file 12 "insn-attr.h"
	.file 13 "sched-int.h"
	.file 14 "./safe-ctype.h"
	.file 15 "hard-reg-set.h"
	.section	.note.GNU-stack,"",@progbits
