	.file	"sched-rgn.c"
# GNU C (Ubuntu/Linaro 4.8.1-10ubuntu9) version 4.8.1 (x86_64-linux-gnu)
#	compiled by GNU C version 4.8.1, GMP version 5.1.2, MPFR version 3.1.1-p2, MPC version 1.0.1
# GGC heuristics: --param ggc-min-expand=100 --param ggc-min-heapsize=131072
# options passed:  -I . -imultiarch x86_64-linux-gnu -D SPEC_CPU -D NDEBUG
# -D SPEC_CPU_LP64 sched-rgn.c -mtune=generic -march=x86-64 -g
# -fverbose-asm -fno-strict-aliasing -fstack-protector -Wformat
# -Wformat-security
# options enabled:  -faggressive-loop-optimizations
# -fasynchronous-unwind-tables -fauto-inc-dec -fbranch-count-reg -fcommon
# -fdelete-null-pointer-checks -fdwarf2-cfi-asm -fearly-inlining
# -feliminate-unused-debug-types -ffunction-cse -fgcse-lm -fgnu-runtime
# -fident -finline-atomics -fira-hoist-pressure -fira-share-save-slots
# -fira-share-spill-slots -fivopts -fkeep-static-consts
# -fleading-underscore -fmath-errno -fmerge-debug-strings
# -fmove-loop-invariants -fpeephole -fprefetch-loop-arrays
# -freg-struct-return -fsched-critical-path-heuristic
# -fsched-dep-count-heuristic -fsched-group-heuristic -fsched-interblock
# -fsched-last-insn-heuristic -fsched-rank-heuristic -fsched-spec
# -fsched-spec-insn-heuristic -fsched-stalled-insns-dep -fshow-column
# -fsigned-zeros -fsplit-ivs-in-unroller -fstack-protector
# -fstrict-volatile-bitfields -fsync-libcalls -ftrapping-math
# -ftree-coalesce-vars -ftree-cselim -ftree-forwprop -ftree-loop-if-convert
# -ftree-loop-im -ftree-loop-ivcanon -ftree-loop-optimize
# -ftree-parallelize-loops= -ftree-phiprop -ftree-pta -ftree-reassoc
# -ftree-scev-cprop -ftree-slp-vectorize -ftree-vect-loop-version
# -funit-at-a-time -funwind-tables -fverbose-asm -fzero-initialized-in-bss
# -m128bit-long-double -m64 -m80387 -maccumulate-outgoing-args
# -malign-stringops -mfancy-math-387 -mfp-ret-in-387 -mfxsr -mglibc
# -mieee-fp -mlong-double-80 -mmmx -mno-sse4 -mpush-args -mred-zone -msse
# -msse2 -mtls-direct-seg-refs

	.text
.Ltext0:
	.local	nr_inter
	.comm	nr_inter,4,4
	.local	nr_spec
	.comm	nr_spec,4,4
	.local	edge_table
	.comm	edge_table,8,8
	.local	nr_edges
	.comm	nr_edges,4,4
	.local	in_edges
	.comm	in_edges,8,8
	.local	out_edges
	.comm	out_edges,8,8
	.local	nr_regions
	.comm	nr_regions,4,4
	.local	rgn_table
	.comm	rgn_table,8,8
	.local	rgn_bb_table
	.comm	rgn_bb_table,8,8
	.local	block_to_bb
	.comm	block_to_bb,8,8
	.local	containing_rgn
	.comm	containing_rgn,8,8
	.local	current_nr_blocks
	.comm	current_nr_blocks,4,4
	.local	current_blocks
	.comm	current_blocks,4,4
	.local	bitlst_table_last
	.comm	bitlst_table_last,4,4
	.local	bitlst_table_size
	.comm	bitlst_table_size,4,4
	.local	bitlst_table
	.comm	bitlst_table,8,8
	.local	candidate_table
	.comm	candidate_table,8,8
	.local	bblst_table
	.comm	bblst_table,8,8
	.local	bblst_size
	.comm	bblst_size,4,4
	.local	bblst_last
	.comm	bblst_last,4,4
	.local	target_bb
	.comm	target_bb,4,4
	.local	dom
	.comm	dom,8,8
	.local	prob
	.comm	prob,8,8
	.local	rgn_nr_edges
	.comm	rgn_nr_edges,4,4
	.local	rgn_edges
	.comm	rgn_edges,8,8
	.local	edge_to_bit
	.comm	edge_to_bit,8,8
	.local	pot_split
	.comm	pot_split,8,8
	.local	ancestor_edges
	.comm	ancestor_edges,8,8
	.type	is_cfg_nonregular, @function
is_cfg_nonregular:
.LFB2:
	.file 1 "sched-rgn.c"
	.loc 1 320 0
	.cfi_startproc
	pushq	%rbp	#
	.cfi_def_cfa_offset 16
	.cfi_offset 6, -16
	movq	%rsp, %rbp	#,
	.cfi_def_cfa_register 6
	subq	$32, %rsp	#,
	.loc 1 327 0
	movq	cfun(%rip), %rax	# cfun, cfun.0
	movq	176(%rax), %rax	# cfun.0_4->x_nonlocal_goto_handler_labels, D.15600
	testq	%rax, %rax	# D.15600
	je	.L2	#,
	.loc 1 328 0
	movl	$1, %eax	#, D.15599
	jmp	.L3	#
.L2:
	.loc 1 331 0
	movq	cfun(%rip), %rax	# cfun, cfun.1
	movq	16(%rax), %rax	# cfun.1_7->expr, D.15601
	movq	32(%rax), %rax	# _8->x_forced_labels, D.15600
	testq	%rax, %rax	# D.15600
	je	.L4	#,
	.loc 1 332 0
	movl	$1, %eax	#, D.15599
	jmp	.L3	#
.L4:
	.loc 1 336 0
	movq	cfun(%rip), %rax	# cfun, cfun.2
	movzbl	425(%rax), %eax	# *cfun.2_11, D.15602
	andl	$8, %eax	#, D.15602
	testb	%al, %al	# D.15602
	je	.L5	#,
	.loc 1 337 0
	movl	$1, %eax	#, D.15599
	jmp	.L3	#
.L5:
	.loc 1 342 0
	call	current_function_has_exception_handlers	#
	testb	%al, %al	# D.15603
	je	.L6	#,
	.loc 1 343 0
	movl	$1, %eax	#, D.15599
	jmp	.L3	#
.L6:
	.loc 1 348 0
	movl	$0, -24(%rbp)	#, b
	jmp	.L7	#
.L13:
	.loc 1 349 0
	movq	basic_block_info(%rip), %rax	# basic_block_info, basic_block_info.3
	movl	-24(%rbp), %edx	# b, tmp85
	movslq	%edx, %rdx	# tmp85, tmp84
	addq	$4, %rdx	#, tmp86
	movq	(%rax,%rdx,8), %rax	# basic_block_info.3_19->data.bb, D.15604
	movq	(%rax), %rax	# _20->head, tmp87
	movq	%rax, -16(%rbp)	# tmp87, insn
.L12:
	.loc 1 351 0
	movq	-16(%rbp), %rax	# insn, tmp88
	movzwl	(%rax), %eax	# insn_2->code, D.15605
	movzwl	%ax, %eax	# D.15605, tmp89
	movl	%eax, -20(%rbp)	# tmp89, code
	.loc 1 352 0
	movl	-20(%rbp), %eax	# code, code.4
	cltq
	movzbl	rtx_class(%rax), %eax	# rtx_class, D.15606
	cmpb	$105, %al	#, D.15606
	jne	.L8	#,
	.loc 1 352 0 is_stmt 0 discriminator 1
	cmpl	$33, -20(%rbp)	#, code
	je	.L8	#,
.LBB2:
	.loc 1 354 0 is_stmt 1
	movq	-16(%rbp), %rax	# insn, tmp91
	movl	$0, %edx	#,
	movl	$13, %esi	#,
	movq	%rax, %rdi	# tmp91,
	call	find_reg_note	#
	movq	%rax, -8(%rbp)	# tmp92, note
	.loc 1 356 0
	cmpq	$0, -8(%rbp)	#, note
	je	.L8	#,
	.loc 1 357 0
	movq	-16(%rbp), %rax	# insn, tmp93
	movq	24(%rax), %rax	# insn_2->fld[2].rtx, D.15600
	movzwl	(%rax), %eax	# _27->code, D.15605
	cmpw	$33, %ax	#, D.15605
	jne	.L9	#,
	.loc 1 358 0 discriminator 1
	movq	-8(%rbp), %rax	# note, tmp94
	movq	8(%rax), %rdx	# note_26->fld[0].rtx, D.15600
	movq	-16(%rbp), %rax	# insn, tmp95
	movq	24(%rax), %rax	# insn_2->fld[2].rtx, D.15600
	movl	$13, %esi	#,
	movq	%rax, %rdi	# D.15600,
	call	find_reg_note	#
	.loc 1 357 0 discriminator 1
	testq	%rax, %rax	# D.15600
	jne	.L8	#,
.L9:
	.loc 1 360 0
	movl	$1, %eax	#, D.15599
	jmp	.L3	#
.L8:
.LBE2:
	.loc 1 363 0
	movq	basic_block_info(%rip), %rax	# basic_block_info, basic_block_info.5
	movl	-24(%rbp), %edx	# b, tmp97
	movslq	%edx, %rdx	# tmp97, tmp96
	addq	$4, %rdx	#, tmp98
	movq	(%rax,%rdx,8), %rax	# basic_block_info.5_33->data.bb, D.15604
	movq	8(%rax), %rax	# _34->end, D.15600
	cmpq	-16(%rbp), %rax	# insn, D.15600
	jne	.L10	#,
	.loc 1 364 0
	nop
	.loc 1 348 0
	addl	$1, -24(%rbp)	#, b
	jmp	.L7	#
.L10:
	.loc 1 349 0
	movq	-16(%rbp), %rax	# insn, tmp99
	movq	24(%rax), %rax	# insn_2->fld[2].rtx, tmp100
	movq	%rax, -16(%rbp)	# tmp100, insn
	.loc 1 365 0
	jmp	.L12	#
.L7:
	.loc 1 348 0 discriminator 1
	movl	n_basic_blocks(%rip), %eax	# n_basic_blocks, n_basic_blocks.6
	cmpl	%eax, -24(%rbp)	# n_basic_blocks.6, b
	jl	.L13	#,
	.loc 1 368 0
	movl	$0, %eax	#, D.15599
.L3:
	.loc 1 369 0
	leave
	.cfi_def_cfa 7, 8
	ret
	.cfi_endproc
.LFE2:
	.size	is_cfg_nonregular, .-is_cfg_nonregular
	.type	build_control_flow, @function
build_control_flow:
.LFB3:
	.loc 1 382 0
	.cfi_startproc
	pushq	%rbp	#
	.cfi_def_cfa_offset 16
	.cfi_offset 6, -16
	movq	%rsp, %rbp	#,
	.cfi_def_cfa_register 6
	subq	$48, %rsp	#,
	movq	%rdi, -40(%rbp)	# edge_list, edge_list
	.loc 1 386 0
	movq	-40(%rbp), %rax	# edge_list, tmp88
	movl	4(%rax), %eax	# edge_list_5(D)->num_edges, tmp89
	movl	%eax, -20(%rbp)	# tmp89, num_edges
	.loc 1 394 0
	movl	$0, -24(%rbp)	#, unreachable
	.loc 1 395 0
	movl	$0, -28(%rbp)	#, i
	jmp	.L15	#
.L18:
.LBB3:
	.loc 1 397 0
	movq	basic_block_info(%rip), %rax	# basic_block_info, basic_block_info.7
	movl	-28(%rbp), %edx	# i, tmp91
	movslq	%edx, %rdx	# tmp91, tmp90
	addq	$4, %rdx	#, tmp92
	movq	(%rax,%rdx,8), %rax	# basic_block_info.7_10->data.bb, tmp93
	movq	%rax, -16(%rbp)	# tmp93, b
	.loc 1 399 0
	movq	-16(%rbp), %rax	# b, tmp94
	movq	32(%rax), %rax	# b_11->pred, D.15607
	testq	%rax, %rax	# D.15607
	je	.L16	#,
	.loc 1 400 0
	movq	-16(%rbp), %rax	# b, tmp95
	movq	32(%rax), %rax	# b_11->pred, D.15607
	movq	16(%rax), %rax	# _13->src, D.15608
	cmpq	-16(%rbp), %rax	# b, D.15608
	jne	.L17	#,
	.loc 1 401 0
	movq	-16(%rbp), %rax	# b, tmp96
	movq	32(%rax), %rax	# b_11->pred, D.15607
	movq	(%rax), %rax	# _15->pred_next, D.15607
	testq	%rax, %rax	# D.15607
	jne	.L17	#,
.L16:
	.loc 1 402 0
	movl	$1, -24(%rbp)	#, unreachable
.L17:
.LBE3:
	.loc 1 395 0
	addl	$1, -28(%rbp)	#, i
.L15:
	.loc 1 395 0 is_stmt 0 discriminator 1
	movl	n_basic_blocks(%rip), %eax	# n_basic_blocks, n_basic_blocks.8
	cmpl	%eax, -28(%rbp)	# n_basic_blocks.8, i
	jl	.L18	#,
	.loc 1 406 0 is_stmt 1
	movl	n_basic_blocks(%rip), %eax	# n_basic_blocks, n_basic_blocks.9
	cltq
	movl	$4, %esi	#,
	movq	%rax, %rdi	# D.15609,
	call	xcalloc	#
	movq	%rax, in_edges(%rip)	# in_edges.10, in_edges
	.loc 1 407 0
	movl	n_basic_blocks(%rip), %eax	# n_basic_blocks, n_basic_blocks.11
	cltq
	movl	$4, %esi	#,
	movq	%rax, %rdi	# D.15609,
	call	xcalloc	#
	movq	%rax, out_edges(%rip)	# out_edges.12, out_edges
	.loc 1 408 0
	movl	-20(%rbp), %eax	# num_edges, tmp99
	cltq
	movl	$16, %esi	#,
	movq	%rax, %rdi	# D.15609,
	call	xcalloc	#
	movq	%rax, edge_table(%rip)	# edge_table.13, edge_table
	.loc 1 410 0
	movl	$0, nr_edges(%rip)	#, nr_edges
	.loc 1 411 0
	movl	$0, -28(%rbp)	#, i
	jmp	.L19	#
.L21:
.LBB4:
	.loc 1 413 0
	movq	-40(%rbp), %rax	# edge_list, tmp101
	movq	8(%rax), %rax	# edge_list_5(D)->index_to_edge, D.15610
	movl	-28(%rbp), %edx	# i, tmp102
	movslq	%edx, %rdx	# tmp102, D.15609
	salq	$3, %rdx	#, D.15609
	addq	%rdx, %rax	# D.15609, D.15610
	movq	(%rax), %rax	# *_31, tmp103
	movq	%rax, -8(%rbp)	# tmp103, e
	.loc 1 415 0
	movq	-8(%rbp), %rax	# e, tmp104
	movq	24(%rax), %rax	# e_32->dest, D.15608
	cmpq	$entry_exit_blocks+112, %rax	#, D.15608
	je	.L20	#,
	.loc 1 416 0
	movq	-8(%rbp), %rax	# e, tmp105
	movq	16(%rax), %rax	# e_32->src, D.15608
	cmpq	$entry_exit_blocks, %rax	#, D.15608
	je	.L20	#,
	.loc 1 417 0
	movq	-8(%rbp), %rax	# e, tmp106
	movq	24(%rax), %rax	# e_32->dest, D.15608
	movl	88(%rax), %edx	# _35->index, D.15611
	movq	-8(%rbp), %rax	# e, tmp107
	movq	16(%rax), %rax	# e_32->src, D.15608
	movl	88(%rax), %eax	# _37->index, D.15611
	movl	%edx, %esi	# D.15611,
	movl	%eax, %edi	# D.15611,
	call	new_edge	#
.L20:
.LBE4:
	.loc 1 411 0
	addl	$1, -28(%rbp)	#, i
.L19:
	.loc 1 411 0 is_stmt 0 discriminator 1
	movl	-28(%rbp), %eax	# i, tmp108
	cmpl	-20(%rbp), %eax	# num_edges, tmp108
	jl	.L21	#,
	.loc 1 421 0 is_stmt 1
	movl	nr_edges(%rip), %eax	# nr_edges, nr_edges.14
	addl	$1, %eax	#, nr_edges.15
	movl	%eax, nr_edges(%rip)	# nr_edges.15, nr_edges
	.loc 1 423 0
	movl	-24(%rbp), %eax	# unreachable, D.15611
	.loc 1 424 0
	leave
	.cfi_def_cfa 7, 8
	ret
	.cfi_endproc
.LFE3:
	.size	build_control_flow, .-build_control_flow
	.type	new_edge, @function
new_edge:
.LFB4:
	.loc 1 435 0
	.cfi_startproc
	pushq	%rbp	#
	.cfi_def_cfa_offset 16
	.cfi_offset 6, -16
	movq	%rsp, %rbp	#,
	.cfi_def_cfa_register 6
	movl	%edi, -20(%rbp)	# source, source
	movl	%esi, -24(%rbp)	# target, target
	.loc 1 440 0
	movq	out_edges(%rip), %rax	# out_edges, out_edges.16
	movl	-20(%rbp), %edx	# source, tmp157
	movslq	%edx, %rdx	# tmp157, D.15612
	salq	$2, %rdx	#, D.15612
	addq	%rdx, %rax	# D.15612, D.15613
	movl	(%rax), %eax	# *_6, tmp158
	movl	%eax, -16(%rbp)	# tmp158, curr_edge
	movl	-16(%rbp), %eax	# curr_edge, tmp159
	movl	%eax, -12(%rbp)	# tmp159, fst_edge
	.loc 1 441 0
	jmp	.L24	#
.L28:
	.loc 1 443 0
	movq	edge_table(%rip), %rax	# edge_table, edge_table.17
	movl	-16(%rbp), %edx	# curr_edge, tmp160
	movslq	%edx, %rdx	# tmp160, D.15612
	salq	$4, %rdx	#, D.15612
	addq	%rdx, %rax	# D.15612, D.15614
	movl	(%rax), %eax	# _12->from_block, D.15615
	cmpl	-20(%rbp), %eax	# source, D.15615
	jne	.L25	#,
	.loc 1 444 0
	movq	edge_table(%rip), %rax	# edge_table, edge_table.18
	movl	-16(%rbp), %edx	# curr_edge, tmp161
	movslq	%edx, %rdx	# tmp161, D.15612
	salq	$4, %rdx	#, D.15612
	addq	%rdx, %rax	# D.15612, D.15614
	movl	4(%rax), %eax	# _17->to_block, D.15615
	cmpl	-24(%rbp), %eax	# target, D.15615
	jne	.L25	#,
	.loc 1 446 0
	jmp	.L23	#
.L25:
	.loc 1 449 0
	movq	edge_table(%rip), %rax	# edge_table, edge_table.19
	movl	-16(%rbp), %edx	# curr_edge, tmp162
	movslq	%edx, %rdx	# tmp162, D.15612
	salq	$4, %rdx	#, D.15612
	addq	%rdx, %rax	# D.15612, D.15614
	movl	12(%rax), %eax	# _23->next_out, tmp163
	movl	%eax, -16(%rbp)	# tmp163, curr_edge
	.loc 1 451 0
	movl	-12(%rbp), %eax	# fst_edge, tmp164
	cmpl	-16(%rbp), %eax	# curr_edge, tmp164
	jne	.L24	#,
	.loc 1 452 0
	jmp	.L27	#
.L24:
	.loc 1 441 0 discriminator 1
	cmpl	$0, -16(%rbp)	#, curr_edge
	jne	.L28	#,
.L27:
	.loc 1 455 0
	movl	nr_edges(%rip), %eax	# nr_edges, nr_edges.20
	addl	$1, %eax	#, nr_edges.21
	movl	%eax, nr_edges(%rip)	# nr_edges.21, nr_edges
	movl	nr_edges(%rip), %eax	# nr_edges, tmp165
	movl	%eax, -8(%rbp)	# tmp165, e
	.loc 1 457 0
	movq	edge_table(%rip), %rax	# edge_table, edge_table.22
	movl	-8(%rbp), %edx	# e, tmp166
	movslq	%edx, %rdx	# tmp166, D.15612
	salq	$4, %rdx	#, D.15612
	addq	%rax, %rdx	# edge_table.22, D.15614
	movl	-20(%rbp), %eax	# source, tmp167
	movl	%eax, (%rdx)	# tmp167, _31->from_block
	.loc 1 458 0
	movq	edge_table(%rip), %rax	# edge_table, edge_table.23
	movl	-8(%rbp), %edx	# e, tmp168
	movslq	%edx, %rdx	# tmp168, D.15612
	salq	$4, %rdx	#, D.15612
	addq	%rax, %rdx	# edge_table.23, D.15614
	movl	-24(%rbp), %eax	# target, tmp169
	movl	%eax, 4(%rdx)	# tmp169, _35->to_block
	.loc 1 460 0
	movq	out_edges(%rip), %rax	# out_edges, out_edges.24
	movl	-20(%rbp), %edx	# source, tmp170
	movslq	%edx, %rdx	# tmp170, D.15612
	salq	$2, %rdx	#, D.15612
	addq	%rdx, %rax	# D.15612, D.15613
	movl	(%rax), %eax	# *_39, D.15615
	testl	%eax, %eax	# D.15615
	je	.L29	#,
	.loc 1 462 0
	movq	edge_table(%rip), %rax	# edge_table, edge_table.25
	movq	out_edges(%rip), %rdx	# out_edges, out_edges.26
	movl	-20(%rbp), %ecx	# source, tmp171
	movslq	%ecx, %rcx	# tmp171, D.15612
	salq	$2, %rcx	#, D.15612
	addq	%rcx, %rdx	# D.15612, D.15613
	movl	(%rdx), %edx	# *_45, D.15615
	movslq	%edx, %rdx	# D.15615, D.15612
	salq	$4, %rdx	#, D.15612
	addq	%rdx, %rax	# D.15612, D.15614
	movl	12(%rax), %eax	# _49->next_out, tmp172
	movl	%eax, -4(%rbp)	# tmp172, next_edge
	.loc 1 463 0
	movq	edge_table(%rip), %rax	# edge_table, edge_table.27
	movq	out_edges(%rip), %rdx	# out_edges, out_edges.28
	movl	-20(%rbp), %ecx	# source, tmp173
	movslq	%ecx, %rcx	# tmp173, D.15612
	salq	$2, %rcx	#, D.15612
	addq	%rcx, %rdx	# D.15612, D.15613
	movl	(%rdx), %edx	# *_55, D.15615
	movslq	%edx, %rdx	# D.15615, D.15612
	salq	$4, %rdx	#, D.15612
	addq	%rax, %rdx	# edge_table.27, D.15614
	movl	-8(%rbp), %eax	# e, tmp174
	movl	%eax, 12(%rdx)	# tmp174, _59->next_out
	.loc 1 464 0
	movq	edge_table(%rip), %rax	# edge_table, edge_table.29
	movl	-8(%rbp), %edx	# e, tmp175
	movslq	%edx, %rdx	# tmp175, D.15612
	salq	$4, %rdx	#, D.15612
	addq	%rax, %rdx	# edge_table.29, D.15614
	movl	-4(%rbp), %eax	# next_edge, tmp176
	movl	%eax, 12(%rdx)	# tmp176, _63->next_out
	jmp	.L30	#
.L29:
	.loc 1 468 0
	movq	out_edges(%rip), %rax	# out_edges, out_edges.30
	movl	-20(%rbp), %edx	# source, tmp177
	movslq	%edx, %rdx	# tmp177, D.15612
	salq	$2, %rdx	#, D.15612
	addq	%rax, %rdx	# out_edges.30, D.15613
	movl	-8(%rbp), %eax	# e, tmp178
	movl	%eax, (%rdx)	# tmp178, *_67
	.loc 1 469 0
	movq	edge_table(%rip), %rax	# edge_table, edge_table.31
	movl	-8(%rbp), %edx	# e, tmp179
	movslq	%edx, %rdx	# tmp179, D.15612
	salq	$4, %rdx	#, D.15612
	addq	%rax, %rdx	# edge_table.31, D.15614
	movl	-8(%rbp), %eax	# e, tmp180
	movl	%eax, 12(%rdx)	# tmp180, _71->next_out
.L30:
	.loc 1 472 0
	movq	in_edges(%rip), %rax	# in_edges, in_edges.32
	movl	-24(%rbp), %edx	# target, tmp181
	movslq	%edx, %rdx	# tmp181, D.15612
	salq	$2, %rdx	#, D.15612
	addq	%rdx, %rax	# D.15612, D.15613
	movl	(%rax), %eax	# *_75, D.15615
	testl	%eax, %eax	# D.15615
	je	.L31	#,
	.loc 1 474 0
	movq	edge_table(%rip), %rax	# edge_table, edge_table.33
	movq	in_edges(%rip), %rdx	# in_edges, in_edges.34
	movl	-24(%rbp), %ecx	# target, tmp182
	movslq	%ecx, %rcx	# tmp182, D.15612
	salq	$2, %rcx	#, D.15612
	addq	%rcx, %rdx	# D.15612, D.15613
	movl	(%rdx), %edx	# *_81, D.15615
	movslq	%edx, %rdx	# D.15615, D.15612
	salq	$4, %rdx	#, D.15612
	addq	%rdx, %rax	# D.15612, D.15614
	movl	8(%rax), %eax	# _85->next_in, tmp183
	movl	%eax, -4(%rbp)	# tmp183, next_edge
	.loc 1 475 0
	movq	edge_table(%rip), %rax	# edge_table, edge_table.35
	movq	in_edges(%rip), %rdx	# in_edges, in_edges.36
	movl	-24(%rbp), %ecx	# target, tmp184
	movslq	%ecx, %rcx	# tmp184, D.15612
	salq	$2, %rcx	#, D.15612
	addq	%rcx, %rdx	# D.15612, D.15613
	movl	(%rdx), %edx	# *_91, D.15615
	movslq	%edx, %rdx	# D.15615, D.15612
	salq	$4, %rdx	#, D.15612
	addq	%rax, %rdx	# edge_table.35, D.15614
	movl	-8(%rbp), %eax	# e, tmp185
	movl	%eax, 8(%rdx)	# tmp185, _95->next_in
	.loc 1 476 0
	movq	edge_table(%rip), %rax	# edge_table, edge_table.37
	movl	-8(%rbp), %edx	# e, tmp186
	movslq	%edx, %rdx	# tmp186, D.15612
	salq	$4, %rdx	#, D.15612
	addq	%rax, %rdx	# edge_table.37, D.15614
	movl	-4(%rbp), %eax	# next_edge, tmp187
	movl	%eax, 8(%rdx)	# tmp187, _99->next_in
	jmp	.L23	#
.L31:
	.loc 1 480 0
	movq	in_edges(%rip), %rax	# in_edges, in_edges.38
	movl	-24(%rbp), %edx	# target, tmp188
	movslq	%edx, %rdx	# tmp188, D.15612
	salq	$2, %rdx	#, D.15612
	addq	%rax, %rdx	# in_edges.38, D.15613
	movl	-8(%rbp), %eax	# e, tmp189
	movl	%eax, (%rdx)	# tmp189, *_103
	.loc 1 481 0
	movq	edge_table(%rip), %rax	# edge_table, edge_table.39
	movl	-8(%rbp), %edx	# e, tmp190
	movslq	%edx, %rdx	# tmp190, D.15612
	salq	$4, %rdx	#, D.15612
	addq	%rax, %rdx	# edge_table.39, D.15614
	movl	-8(%rbp), %eax	# e, tmp191
	movl	%eax, 8(%rdx)	# tmp191, _107->next_in
.L23:
	.loc 1 483 0
	popq	%rbp	#
	.cfi_def_cfa 7, 8
	ret
	.cfi_endproc
.LFE4:
	.size	new_edge, .-new_edge
	.type	extract_bitlst, @function
extract_bitlst:
.LFB5:
	.loc 1 491 0
	.cfi_startproc
	pushq	%rbp	#
	.cfi_def_cfa_offset 16
	.cfi_offset 6, -16
	movq	%rsp, %rbp	#,
	.cfi_def_cfa_register 6
	movq	%rdi, -56(%rbp)	# set, set
	movq	%rsi, -64(%rbp)	# bl, bl
	.loc 1 495 0
	movl	$0, bitlst_table_last(%rip)	#, bitlst_table_last
	.loc 1 497 0
	movq	bitlst_table(%rip), %rax	# bitlst_table, bitlst_table.40
	movl	bitlst_table_last(%rip), %edx	# bitlst_table_last, bitlst_table_last.41
	movslq	%edx, %rdx	# bitlst_table_last.41, D.15616
	salq	$2, %rdx	#, D.15616
	addq	%rax, %rdx	# bitlst_table.40, D.15617
	movq	-64(%rbp), %rax	# bl, tmp81
	movq	%rdx, (%rax)	# D.15617, bl_11(D)->first_member
	.loc 1 498 0
	movq	-64(%rbp), %rax	# bl, tmp82
	movl	$0, 8(%rax)	#, bl_11(D)->nr_members
.LBB5:
	.loc 1 501 0
	movl	$0, -36(%rbp)	#, bit_num_
	movq	-56(%rbp), %rax	# set, tmp83
	movl	4(%rax), %eax	# set_13(D)->size, tmp84
	movl	%eax, -32(%rbp)	# tmp84, size_
	movq	-56(%rbp), %rax	# set, tmp88
	addq	$16, %rax	#, tmp87
	movq	%rax, -16(%rbp)	# tmp87, ptr_
	movl	$0, -40(%rbp)	#, word_num_
	jmp	.L33	#
.L38:
.LBB6:
	.loc 1 501 0 is_stmt 0 discriminator 2
	movl	-40(%rbp), %eax	# word_num_, D.15616
	leaq	0(,%rax,8), %rdx	#, D.15616
	movq	-16(%rbp), %rax	# ptr_, tmp89
	addq	%rdx, %rax	# D.15616, D.15618
	movq	(%rax), %rax	# *_19, tmp90
	movq	%rax, -24(%rbp)	# tmp90, word_
	cmpq	$0, -24(%rbp)	#, word_
	je	.L34	#,
	.loc 1 501 0 discriminator 1
	jmp	.L35	#
.L37:
.LBB7:
	.loc 1 501 0 discriminator 2
	movl	-36(%rbp), %eax	# bit_num_, bit_num_.42
	movl	$1, %edx	#, tmp91
	movl	%eax, %ecx	# bit_num_.42, tmp103
	salq	%cl, %rdx	# tmp103, tmp92
	movq	%rdx, %rax	# tmp92, tmp92
	movq	%rax, -8(%rbp)	# tmp92, _mask
	movq	-8(%rbp), %rax	# _mask, tmp93
	movq	-24(%rbp), %rdx	# word_, tmp94
	andq	%rdx, %rax	# tmp94, D.15616
	testq	%rax, %rax	# D.15616
	je	.L36	#,
	.loc 1 501 0 discriminator 1
	movq	-8(%rbp), %rax	# _mask, tmp95
	notq	%rax	# D.15616
	andq	%rax, -24(%rbp)	# D.15616, word_
	movl	-40(%rbp), %eax	# word_num_, tmp96
	sall	$6, %eax	#, D.15619
	movl	%eax, %edx	# D.15619, D.15619
	movl	-36(%rbp), %eax	# bit_num_, tmp97
	addl	%edx, %eax	# D.15619, D.15619
	movl	%eax, -28(%rbp)	# D.15619, i
	movq	bitlst_table(%rip), %rcx	# bitlst_table, bitlst_table.43
	movl	bitlst_table_last(%rip), %eax	# bitlst_table_last, bitlst_table_last.44
	leal	1(%rax), %edx	#, bitlst_table_last.46
	movl	%edx, bitlst_table_last(%rip)	# bitlst_table_last.46, bitlst_table_last
	cltq
	salq	$2, %rax	#, D.15616
	leaq	(%rcx,%rax), %rdx	#, D.15617
	movl	-28(%rbp), %eax	# i, tmp98
	movl	%eax, (%rdx)	# tmp98, *_35
	movq	-64(%rbp), %rax	# bl, tmp99
	movl	8(%rax), %eax	# bl_11(D)->nr_members, D.15620
	leal	1(%rax), %edx	#, D.15620
	movq	-64(%rbp), %rax	# bl, tmp100
	movl	%edx, 8(%rax)	# D.15620, bl_11(D)->nr_members
	cmpq	$0, -24(%rbp)	#, word_
	jne	.L36	#,
	jmp	.L34	#
.L36:
.LBE7:
	.loc 1 501 0 discriminator 2
	addl	$1, -36(%rbp)	#, bit_num_
.L35:
	.loc 1 501 0 discriminator 1
	cmpl	$63, -36(%rbp)	#, bit_num_
	jbe	.L37	#,
.L34:
.LBE6:
	.loc 1 501 0 discriminator 2
	addl	$1, -40(%rbp)	#, word_num_
	movl	$0, -36(%rbp)	#, bit_num_
.L33:
	.loc 1 501 0 discriminator 1
	movl	-40(%rbp), %eax	# word_num_, tmp101
	cmpl	-32(%rbp), %eax	# size_, tmp101
	jb	.L38	#,
.LBE5:
	.loc 1 507 0 is_stmt 1
	popq	%rbp	#
	.cfi_def_cfa 7, 8
	ret
	.cfi_endproc
.LFE5:
	.size	extract_bitlst, .-extract_bitlst
	.section	.rodata
	.align 8
.LC0:
	.string	"\n;;   ------------ REGIONS ----------\n\n"
.LC1:
	.string	";;\trgn %d nr_blocks %d:\n"
.LC2:
	.string	";;\tbb/block: "
.LC3:
	.string	"sched-rgn.c"
.LC4:
	.string	" %d/%d "
.LC5:
	.string	"\n\n"
	.text
	.globl	debug_regions
	.type	debug_regions, @function
debug_regions:
.LFB6:
	.loc 1 515 0
	.cfi_startproc
	pushq	%rbp	#
	.cfi_def_cfa_offset 16
	.cfi_offset 6, -16
	movq	%rsp, %rbp	#,
	.cfi_def_cfa_register 6
	subq	$16, %rsp	#,
	.loc 1 518 0
	movq	sched_dump(%rip), %rax	# sched_dump, sched_dump.47
	movq	%rax, %rcx	# sched_dump.47,
	movl	$39, %edx	#,
	movl	$1, %esi	#,
	movl	$.LC0, %edi	#,
	call	fwrite	#
	.loc 1 519 0
	movl	$0, -8(%rbp)	#, rgn
	jmp	.L40	#
.L44:
	.loc 1 522 0
	movq	rgn_table(%rip), %rax	# rgn_table, rgn_table.48
	movl	-8(%rbp), %edx	# rgn, tmp99
	movslq	%edx, %rdx	# tmp99, D.15621
	salq	$3, %rdx	#, D.15621
	addq	%rdx, %rax	# D.15621, D.15622
	.loc 1 521 0
	movl	(%rax), %ecx	# _9->rgn_nr_blocks, D.15623
	movq	sched_dump(%rip), %rax	# sched_dump, sched_dump.49
	movl	-8(%rbp), %edx	# rgn, tmp100
	movl	$.LC1, %esi	#,
	movq	%rax, %rdi	# sched_dump.49,
	movl	$0, %eax	#,
	call	fprintf	#
	.loc 1 523 0
	movq	sched_dump(%rip), %rax	# sched_dump, sched_dump.50
	movq	%rax, %rcx	# sched_dump.50,
	movl	$13, %edx	#,
	movl	$1, %esi	#,
	movl	$.LC2, %edi	#,
	call	fwrite	#
	.loc 1 525 0
	movl	$0, -4(%rbp)	#, bb
	jmp	.L41	#
.L43:
	.loc 1 527 0
	movq	rgn_table(%rip), %rax	# rgn_table, rgn_table.51
	movl	-8(%rbp), %edx	# rgn, tmp101
	movslq	%edx, %rdx	# tmp101, D.15621
	salq	$3, %rdx	#, D.15621
	addq	%rdx, %rax	# D.15621, D.15622
	movl	4(%rax), %eax	# _22->rgn_blocks, current_blocks.52
	movl	%eax, current_blocks(%rip)	# current_blocks.52, current_blocks
	.loc 1 529 0
	movq	block_to_bb(%rip), %rax	# block_to_bb, block_to_bb.53
	movq	rgn_bb_table(%rip), %rdx	# rgn_bb_table, rgn_bb_table.54
	movl	current_blocks(%rip), %esi	# current_blocks, current_blocks.55
	movl	-4(%rbp), %ecx	# bb, tmp102
	addl	%esi, %ecx	# current_blocks.55, D.15623
	movslq	%ecx, %rcx	# D.15623, D.15621
	salq	$2, %rcx	#, D.15621
	addq	%rcx, %rdx	# D.15621, D.15624
	movl	(%rdx), %edx	# *_30, D.15623
	movslq	%edx, %rdx	# D.15623, D.15621
	salq	$2, %rdx	#, D.15621
	addq	%rdx, %rax	# D.15621, D.15624
	movl	(%rax), %eax	# *_34, D.15623
	cmpl	-4(%rbp), %eax	# bb, D.15623
	je	.L42	#,
	.loc 1 530 0
	movl	$__FUNCTION__.11000, %edx	#,
	movl	$530, %esi	#,
	movl	$.LC3, %edi	#,
	call	fancy_abort	#
.L42:
	.loc 1 532 0
	movq	rgn_bb_table(%rip), %rax	# rgn_bb_table, rgn_bb_table.56
	movl	current_blocks(%rip), %ecx	# current_blocks, current_blocks.57
	movl	-4(%rbp), %edx	# bb, tmp103
	addl	%ecx, %edx	# current_blocks.57, D.15623
	movslq	%edx, %rdx	# D.15623, D.15621
	salq	$2, %rdx	#, D.15621
	addq	%rdx, %rax	# D.15621, D.15624
	movl	(%rax), %ecx	# *_41, D.15623
	movq	sched_dump(%rip), %rax	# sched_dump, sched_dump.58
	movl	-4(%rbp), %edx	# bb, tmp104
	movl	$.LC4, %esi	#,
	movq	%rax, %rdi	# sched_dump.58,
	movl	$0, %eax	#,
	call	fprintf	#
	.loc 1 525 0
	addl	$1, -4(%rbp)	#, bb
.L41:
	.loc 1 525 0 is_stmt 0 discriminator 1
	movq	rgn_table(%rip), %rax	# rgn_table, rgn_table.59
	movl	-8(%rbp), %edx	# rgn, tmp105
	movslq	%edx, %rdx	# tmp105, D.15621
	salq	$3, %rdx	#, D.15621
	addq	%rdx, %rax	# D.15621, D.15622
	movl	(%rax), %eax	# _17->rgn_nr_blocks, D.15623
	cmpl	-4(%rbp), %eax	# bb, D.15623
	jg	.L43	#,
	.loc 1 535 0 is_stmt 1
	movq	sched_dump(%rip), %rax	# sched_dump, sched_dump.60
	movq	%rax, %rcx	# sched_dump.60,
	movl	$2, %edx	#,
	movl	$1, %esi	#,
	movl	$.LC5, %edi	#,
	call	fwrite	#
	.loc 1 519 0
	addl	$1, -8(%rbp)	#, rgn
.L40:
	.loc 1 519 0 is_stmt 0 discriminator 1
	movl	nr_regions(%rip), %eax	# nr_regions, nr_regions.61
	cmpl	%eax, -8(%rbp)	# nr_regions.61, rgn
	jl	.L44	#,
	.loc 1 537 0 is_stmt 1
	leave
	.cfi_def_cfa 7, 8
	ret
	.cfi_endproc
.LFE6:
	.size	debug_regions, .-debug_regions
	.type	find_single_block_region, @function
find_single_block_region:
.LFB7:
	.loc 1 545 0
	.cfi_startproc
	pushq	%rbp	#
	.cfi_def_cfa_offset 16
	.cfi_offset 6, -16
	movq	%rsp, %rbp	#,
	.cfi_def_cfa_register 6
	.loc 1 548 0
	movl	$0, -4(%rbp)	#, i
	jmp	.L46	#
.L47:
	.loc 1 550 0 discriminator 2
	movq	rgn_bb_table(%rip), %rax	# rgn_bb_table, rgn_bb_table.62
	movl	-4(%rbp), %edx	# i, tmp81
	movslq	%edx, %rdx	# tmp81, D.15631
	salq	$2, %rdx	#, D.15631
	addq	%rax, %rdx	# rgn_bb_table.62, D.15632
	movl	-4(%rbp), %eax	# i, tmp82
	movl	%eax, (%rdx)	# tmp82, *_7
	.loc 1 551 0 discriminator 2
	movq	rgn_table(%rip), %rax	# rgn_table, rgn_table.63
	movl	-4(%rbp), %edx	# i, tmp83
	movslq	%edx, %rdx	# tmp83, D.15631
	salq	$3, %rdx	#, D.15631
	addq	%rdx, %rax	# D.15631, D.15633
	movl	$1, (%rax)	#, _11->rgn_nr_blocks
	.loc 1 552 0 discriminator 2
	movq	rgn_table(%rip), %rax	# rgn_table, rgn_table.64
	movl	-4(%rbp), %edx	# i, tmp84
	movslq	%edx, %rdx	# tmp84, D.15631
	salq	$3, %rdx	#, D.15631
	addq	%rax, %rdx	# rgn_table.64, D.15633
	movl	-4(%rbp), %eax	# i, tmp85
	movl	%eax, 4(%rdx)	# tmp85, _15->rgn_blocks
	.loc 1 553 0 discriminator 2
	movq	containing_rgn(%rip), %rax	# containing_rgn, containing_rgn.65
	movl	-4(%rbp), %edx	# i, tmp86
	movslq	%edx, %rdx	# tmp86, D.15631
	salq	$2, %rdx	#, D.15631
	addq	%rax, %rdx	# containing_rgn.65, D.15632
	movl	-4(%rbp), %eax	# i, tmp87
	movl	%eax, (%rdx)	# tmp87, *_19
	.loc 1 554 0 discriminator 2
	movq	block_to_bb(%rip), %rax	# block_to_bb, block_to_bb.66
	movl	-4(%rbp), %edx	# i, tmp88
	movslq	%edx, %rdx	# tmp88, D.15631
	salq	$2, %rdx	#, D.15631
	addq	%rdx, %rax	# D.15631, D.15632
	movl	$0, (%rax)	#, *_23
	.loc 1 548 0 discriminator 2
	addl	$1, -4(%rbp)	#, i
.L46:
	.loc 1 548 0 is_stmt 0 discriminator 1
	movl	n_basic_blocks(%rip), %eax	# n_basic_blocks, n_basic_blocks.67
	cmpl	%eax, -4(%rbp)	# n_basic_blocks.67, i
	jl	.L47	#,
	.loc 1 556 0 is_stmt 1
	movl	n_basic_blocks(%rip), %eax	# n_basic_blocks, n_basic_blocks.68
	movl	%eax, nr_regions(%rip)	# n_basic_blocks.68, nr_regions
	.loc 1 557 0
	popq	%rbp	#
	.cfi_def_cfa 7, 8
	ret
	.cfi_endproc
.LFE7:
	.size	find_single_block_region, .-find_single_block_region
	.type	too_large, @function
too_large:
.LFB8:
	.loc 1 566 0
	.cfi_startproc
	pushq	%rbp	#
	.cfi_def_cfa_offset 16
	.cfi_offset 6, -16
	movq	%rsp, %rbp	#,
	.cfi_def_cfa_register 6
	movl	%edi, -4(%rbp)	# block, block
	movq	%rsi, -16(%rbp)	# num_bbs, num_bbs
	movq	%rdx, -24(%rbp)	# num_insns, num_insns
	.loc 1 567 0
	movq	-16(%rbp), %rax	# num_bbs, tmp86
	movl	(%rax), %eax	# *num_bbs_2(D), D.15634
	leal	1(%rax), %edx	#, D.15634
	movq	-16(%rbp), %rax	# num_bbs, tmp87
	movl	%edx, (%rax)	# D.15634, *num_bbs_2(D)
	.loc 1 568 0
	movq	-24(%rbp), %rax	# num_insns, tmp88
	movl	(%rax), %ecx	# *num_insns_5(D), D.15634
	movq	h_i_d(%rip), %rsi	# h_i_d, h_i_d.69
	movq	basic_block_info(%rip), %rax	# basic_block_info, basic_block_info.70
	movl	-4(%rbp), %edx	# block, tmp90
	movslq	%edx, %rdx	# tmp90, tmp89
	addq	$4, %rdx	#, tmp91
	movq	(%rax,%rdx,8), %rax	# basic_block_info.70_8->data.bb, D.15635
	movq	8(%rax), %rax	# _10->end, D.15636
	movl	8(%rax), %eax	# _11->fld[0].rtint, D.15634
	movslq	%eax, %rdx	# D.15634, D.15637
	movq	%rdx, %rax	# D.15637, tmp92
	addq	%rax, %rax	# tmp92
	addq	%rdx, %rax	# D.15637, tmp92
	salq	$4, %rax	#, tmp93
	addq	%rsi, %rax	# h_i_d.69, D.15638
	movl	16(%rax), %esi	# _15->luid, D.15634
	.loc 1 569 0
	movq	h_i_d(%rip), %rdi	# h_i_d, h_i_d.71
	movq	basic_block_info(%rip), %rax	# basic_block_info, basic_block_info.72
	movl	-4(%rbp), %edx	# block, tmp95
	movslq	%edx, %rdx	# tmp95, tmp94
	addq	$4, %rdx	#, tmp96
	movq	(%rax,%rdx,8), %rax	# basic_block_info.72_18->data.bb, D.15635
	movq	(%rax), %rax	# _19->head, D.15636
	movl	8(%rax), %eax	# _20->fld[0].rtint, D.15634
	movslq	%eax, %rdx	# D.15634, D.15637
	movq	%rdx, %rax	# D.15637, tmp97
	addq	%rax, %rax	# tmp97
	addq	%rdx, %rax	# D.15637, tmp97
	salq	$4, %rax	#, tmp98
	addq	%rdi, %rax	# h_i_d.71, D.15638
	movl	16(%rax), %eax	# _24->luid, D.15634
	.loc 1 568 0
	subl	%eax, %esi	# D.15634, D.15634
	movl	%esi, %eax	# D.15634, D.15634
	leal	(%rcx,%rax), %edx	#, D.15634
	movq	-24(%rbp), %rax	# num_insns, tmp99
	movl	%edx, (%rax)	# D.15634, *num_insns_5(D)
	.loc 1 570 0
	movq	-16(%rbp), %rax	# num_bbs, tmp100
	movl	(%rax), %eax	# *num_bbs_2(D), D.15634
	cmpl	$10, %eax	#, D.15634
	jg	.L49	#,
	.loc 1 570 0 is_stmt 0 discriminator 1
	movq	-24(%rbp), %rax	# num_insns, tmp101
	movl	(%rax), %eax	# *num_insns_5(D), D.15634
	cmpl	$100, %eax	#, D.15634
	jle	.L50	#,
.L49:
	.loc 1 571 0 is_stmt 1
	movl	$1, %eax	#, D.15634
	jmp	.L51	#
.L50:
	.loc 1 573 0
	movl	$0, %eax	#, D.15634
.L51:
	.loc 1 574 0
	popq	%rbp	#
	.cfi_def_cfa 7, 8
	ret
	.cfi_endproc
.LFE8:
	.size	too_large, .-too_large
	.type	find_rgns, @function
find_rgns:
.LFB9:
	.loc 1 626 0
	.cfi_startproc
	pushq	%rbp	#
	.cfi_def_cfa_offset 16
	.cfi_offset 6, -16
	movq	%rsp, %rbp	#,
	.cfi_def_cfa_register 6
	subq	$208, %rsp	#,
	movq	%rdi, -200(%rbp)	# edge_list, edge_list
	movq	%rsi, -208(%rbp)	# dom, dom
	.loc 1 628 0
	movb	$1, -185(%rbp)	#, no_loops
	.loc 1 630 0
	movl	$0, -164(%rbp)	#, count
	movl	$0, -156(%rbp)	#, idx
	movq	out_edges(%rip), %rax	# out_edges, out_edges.73
	movl	(%rax), %eax	# *out_edges.73_50, tmp701
	movl	%eax, -152(%rbp)	# tmp701, current_edge
	.loc 1 649 0
	movq	-200(%rbp), %rax	# edge_list, tmp702
	movl	4(%rax), %eax	# edge_list_52(D)->num_edges, tmp703
	movl	%eax, -136(%rbp)	# tmp703, num_edges
	.loc 1 661 0
	movl	n_basic_blocks(%rip), %eax	# n_basic_blocks, n_basic_blocks.74
	cltq
	salq	$2, %rax	#, D.15639
	movq	%rax, %rdi	# D.15639,
	call	xmalloc	#
	movq	%rax, -88(%rbp)	# tmp704, max_hdr
	.loc 1 662 0
	movl	n_basic_blocks(%rip), %eax	# n_basic_blocks, n_basic_blocks.75
	cltq
	movl	$4, %esi	#,
	movq	%rax, %rdi	# D.15639,
	call	xcalloc	#
	movq	%rax, -80(%rbp)	# tmp705, dfs_nr
	.loc 1 663 0
	movl	nr_edges(%rip), %eax	# nr_edges, nr_edges.76
	cltq
	salq	$2, %rax	#, D.15639
	movq	%rax, %rdi	# D.15639,
	call	xmalloc	#
	movq	%rax, -72(%rbp)	# tmp706, stack
	.loc 1 665 0
	movl	n_basic_blocks(%rip), %eax	# n_basic_blocks, n_basic_blocks.77
	movl	%eax, %edi	# n_basic_blocks.78,
	call	sbitmap_alloc	#
	movq	%rax, -64(%rbp)	# tmp707, inner
	.loc 1 666 0
	movq	-64(%rbp), %rax	# inner, tmp708
	movq	%rax, %rdi	# tmp708,
	call	sbitmap_ones	#
	.loc 1 668 0
	movl	n_basic_blocks(%rip), %eax	# n_basic_blocks, n_basic_blocks.79
	movl	%eax, %edi	# n_basic_blocks.80,
	call	sbitmap_alloc	#
	movq	%rax, -56(%rbp)	# tmp709, header
	.loc 1 669 0
	movq	-56(%rbp), %rax	# header, tmp710
	movq	%rax, %rdi	# tmp710,
	call	sbitmap_zero	#
	.loc 1 671 0
	movl	nr_edges(%rip), %eax	# nr_edges, nr_edges.81
	movl	%eax, %edi	# nr_edges.82,
	call	sbitmap_alloc	#
	movq	%rax, -48(%rbp)	# tmp711, passed
	.loc 1 672 0
	movq	-48(%rbp), %rax	# passed, tmp712
	movq	%rax, %rdi	# tmp712,
	call	sbitmap_zero	#
	.loc 1 674 0
	movl	n_basic_blocks(%rip), %eax	# n_basic_blocks, n_basic_blocks.83
	movl	%eax, %edi	# n_basic_blocks.84,
	call	sbitmap_alloc	#
	movq	%rax, -40(%rbp)	# tmp713, in_queue
	.loc 1 675 0
	movq	-40(%rbp), %rax	# in_queue, tmp714
	movq	%rax, %rdi	# tmp714,
	call	sbitmap_zero	#
	.loc 1 677 0
	movl	n_basic_blocks(%rip), %eax	# n_basic_blocks, n_basic_blocks.85
	movl	%eax, %edi	# n_basic_blocks.86,
	call	sbitmap_alloc	#
	movq	%rax, -32(%rbp)	# tmp715, in_stack
	.loc 1 678 0
	movq	-32(%rbp), %rax	# in_stack, tmp716
	movq	%rax, %rdi	# tmp716,
	call	sbitmap_zero	#
	.loc 1 680 0
	movl	$0, -176(%rbp)	#, i
	jmp	.L53	#
.L54:
	.loc 1 681 0 discriminator 2
	movl	-176(%rbp), %eax	# i, tmp717
	cltq
	leaq	0(,%rax,4), %rdx	#, D.15639
	movq	-88(%rbp), %rax	# max_hdr, tmp718
	addq	%rdx, %rax	# D.15639, D.15640
	movl	$-1, (%rax)	#, *_84
	.loc 1 680 0 discriminator 2
	addl	$1, -176(%rbp)	#, i
.L53:
	.loc 1 680 0 is_stmt 0 discriminator 1
	movl	n_basic_blocks(%rip), %eax	# n_basic_blocks, n_basic_blocks.87
	cmpl	%eax, -176(%rbp)	# n_basic_blocks.87, i
	jl	.L54	#,
	.loc 1 685 0 is_stmt 1
	movl	$-1, -160(%rbp)	#, sp
.L74:
	.loc 1 688 0
	cmpl	$0, -152(%rbp)	#, current_edge
	je	.L55	#,
	.loc 1 688 0 is_stmt 0 discriminator 1
	movl	-152(%rbp), %eax	# current_edge, current_edge.88
	shrl	$6, %eax	#, D.15641
	movl	%eax, %edx	# D.15641, D.15641
	movq	-48(%rbp), %rax	# passed, tmp719
	movl	%edx, %edx	# D.15641, tmp720
	addq	$2, %rdx	#, tmp721
	movq	(%rax,%rdx,8), %rdx	# passed_73->elms, D.15639
	movl	-152(%rbp), %eax	# current_edge, tmp722
	andl	$63, %eax	#, D.15642
	movl	%eax, %ecx	# D.15642, tmp1145
	shrq	%cl, %rdx	# tmp1145, D.15639
	movq	%rdx, %rax	# D.15639, D.15639
	andl	$1, %eax	#, D.15639
	testq	%rax, %rax	# D.15639
	je	.L56	#,
.L55:
	.loc 1 693 0 is_stmt 1
	jmp	.L57	#
.L62:
	.loc 1 697 0
	movl	-160(%rbp), %eax	# sp, sp.89
	leal	-1(%rax), %edx	#, tmp723
	movl	%edx, -160(%rbp)	# tmp723, sp
	cltq
	leaq	0(,%rax,4), %rdx	#, D.15639
	movq	-72(%rbp), %rax	# stack, tmp724
	addq	%rdx, %rax	# D.15639, D.15640
	movl	(%rax), %eax	# *_335, tmp725
	movl	%eax, -152(%rbp)	# tmp725, current_edge
	.loc 1 698 0
	movq	edge_table(%rip), %rax	# edge_table, edge_table.90
	movl	-152(%rbp), %edx	# current_edge, tmp726
	movslq	%edx, %rdx	# tmp726, D.15639
	salq	$4, %rdx	#, D.15639
	addq	%rdx, %rax	# D.15639, D.15643
	movl	(%rax), %eax	# _340->from_block, tmp727
	movl	%eax, -132(%rbp)	# tmp727, node
	.loc 1 699 0
	movq	edge_table(%rip), %rax	# edge_table, edge_table.91
	movl	-152(%rbp), %edx	# current_edge, tmp728
	movslq	%edx, %rdx	# tmp728, D.15639
	salq	$4, %rdx	#, D.15639
	addq	%rdx, %rax	# D.15639, D.15643
	movl	4(%rax), %eax	# _345->to_block, tmp729
	movl	%eax, -128(%rbp)	# tmp729, child
	.loc 1 700 0
	movl	-128(%rbp), %eax	# child, child.92
	shrl	$6, %eax	#, D.15641
	movq	-32(%rbp), %rdx	# in_stack, tmp730
	movl	%eax, %ecx	# D.15641, tmp731
	addq	$2, %rcx	#, tmp732
	movq	(%rdx,%rcx,8), %rdx	# in_stack_79->elms, D.15639
	movl	-128(%rbp), %ecx	# child, tmp733
	andl	$63, %ecx	#, D.15642
	movl	$1, %esi	#, tmp734
	salq	%cl, %rsi	# D.15642, D.15639
	movq	%rsi, %rcx	# D.15639, D.15639
	notq	%rcx	# D.15639
	andq	%rdx, %rcx	# D.15639, D.15639
	movq	-32(%rbp), %rdx	# in_stack, tmp735
	movl	%eax, %eax	# D.15641, tmp736
	addq	$2, %rax	#, tmp737
	movq	%rcx, (%rdx,%rax,8)	# D.15639, in_stack_79->elms
	.loc 1 701 0
	movl	-128(%rbp), %eax	# child, tmp738
	cltq
	leaq	0(,%rax,4), %rdx	#, D.15639
	movq	-88(%rbp), %rax	# max_hdr, tmp739
	addq	%rdx, %rax	# D.15639, D.15640
	movl	(%rax), %eax	# *_356, D.15642
	testl	%eax, %eax	# D.15642
	js	.L58	#,
	.loc 1 701 0 is_stmt 0 discriminator 1
	movl	-128(%rbp), %eax	# child, tmp740
	cltq
	leaq	0(,%rax,4), %rdx	#, D.15639
	movq	-88(%rbp), %rax	# max_hdr, tmp741
	addq	%rdx, %rax	# D.15639, D.15640
	movl	(%rax), %eax	# *_360, D.15642
	shrl	$6, %eax	#, D.15641
	movl	%eax, %edx	# D.15641, D.15641
	movq	-32(%rbp), %rax	# in_stack, tmp742
	movl	%edx, %edx	# D.15641, tmp743
	addq	$2, %rdx	#, tmp744
	movq	(%rax,%rdx,8), %rdx	# in_stack_79->elms, D.15639
	movl	-128(%rbp), %eax	# child, tmp745
	cltq
	leaq	0(,%rax,4), %rcx	#, D.15639
	movq	-88(%rbp), %rax	# max_hdr, tmp746
	addq	%rcx, %rax	# D.15639, D.15640
	movl	(%rax), %eax	# *_367, D.15642
	andl	$63, %eax	#, D.15642
	movl	%eax, %ecx	# D.15642, tmp1149
	shrq	%cl, %rdx	# tmp1149, D.15639
	movq	%rdx, %rax	# D.15639, D.15639
	andl	$1, %eax	#, D.15639
	testq	%rax, %rax	# D.15639
	je	.L58	#,
	.loc 1 702 0 is_stmt 1
	movl	-132(%rbp), %eax	# node, tmp747
	cltq
	leaq	0(,%rax,4), %rdx	#, D.15639
	movq	-88(%rbp), %rax	# max_hdr, tmp748
	addq	%rdx, %rax	# D.15639, D.15640
	movl	(%rax), %eax	# *_374, D.15642
	cmpl	$-1, %eax	#, D.15642
	jne	.L59	#,
	.loc 1 702 0 is_stmt 0 discriminator 1
	movl	-132(%rbp), %eax	# node, tmp749
	cltq
	leaq	0(,%rax,4), %rdx	#, D.15639
	movq	-88(%rbp), %rax	# max_hdr, tmp750
	addq	%rax, %rdx	# tmp750, D.15640
	movl	-128(%rbp), %eax	# child, tmp751
	cltq
	leaq	0(,%rax,4), %rcx	#, D.15639
	movq	-88(%rbp), %rax	# max_hdr, tmp752
	addq	%rcx, %rax	# D.15639, D.15640
	movl	(%rax), %eax	# *_381, D.15642
	movl	%eax, (%rdx)	# D.15642, *_378
	jmp	.L58	#
.L59:
	.loc 1 702 0 discriminator 2
	movl	-132(%rbp), %eax	# node, tmp753
	cltq
	leaq	0(,%rax,4), %rdx	#, D.15639
	movq	-88(%rbp), %rax	# max_hdr, tmp754
	addq	%rdx, %rax	# D.15639, D.15640
	movl	(%rax), %eax	# *_385, D.15642
	cltq
	leaq	0(,%rax,4), %rdx	#, D.15639
	movq	-80(%rbp), %rax	# dfs_nr, tmp755
	addq	%rdx, %rax	# D.15639, D.15640
	movl	(%rax), %edx	# *_389, D.15642
	movl	-128(%rbp), %eax	# child, tmp756
	cltq
	leaq	0(,%rax,4), %rcx	#, D.15639
	movq	-88(%rbp), %rax	# max_hdr, tmp757
	addq	%rcx, %rax	# D.15639, D.15640
	movl	(%rax), %eax	# *_393, D.15642
	cltq
	leaq	0(,%rax,4), %rcx	#, D.15639
	movq	-80(%rbp), %rax	# dfs_nr, tmp758
	addq	%rcx, %rax	# D.15639, D.15640
	movl	(%rax), %eax	# *_397, D.15642
	cmpl	%eax, %edx	# D.15642, D.15642
	jle	.L60	#,
	.loc 1 702 0 discriminator 1
	movl	-128(%rbp), %eax	# child, tmp759
	cltq
	leaq	0(,%rax,4), %rdx	#, D.15639
	movq	-88(%rbp), %rax	# max_hdr, tmp760
	addq	%rdx, %rax	# D.15639, D.15640
	movl	(%rax), %eax	# *_401, D.15642
	shrl	$6, %eax	#, D.15641
	movq	-64(%rbp), %rdx	# inner, tmp761
	movl	%eax, %ecx	# D.15641, tmp762
	addq	$2, %rcx	#, tmp763
	movq	(%rdx,%rcx,8), %rdx	# inner_67->elms, D.15639
	movl	-128(%rbp), %ecx	# child, tmp764
	movslq	%ecx, %rcx	# tmp764, D.15639
	leaq	0(,%rcx,4), %rsi	#, D.15639
	movq	-88(%rbp), %rcx	# max_hdr, tmp765
	addq	%rsi, %rcx	# D.15639, D.15640
	movl	(%rcx), %ecx	# *_408, D.15642
	andl	$63, %ecx	#, D.15642
	movl	$1, %esi	#, tmp766
	salq	%cl, %rsi	# D.15642, D.15639
	movq	%rsi, %rcx	# D.15639, D.15639
	notq	%rcx	# D.15639
	andq	%rdx, %rcx	# D.15639, D.15639
	movq	-64(%rbp), %rdx	# inner, tmp767
	movl	%eax, %eax	# D.15641, tmp768
	addq	$2, %rax	#, tmp769
	movq	%rcx, (%rdx,%rax,8)	# D.15639, inner_67->elms
	jmp	.L58	#
.L60:
	.loc 1 702 0 discriminator 2
	movl	-132(%rbp), %eax	# node, tmp770
	cltq
	leaq	0(,%rax,4), %rdx	#, D.15639
	movq	-88(%rbp), %rax	# max_hdr, tmp771
	addq	%rdx, %rax	# D.15639, D.15640
	movl	(%rax), %eax	# *_416, D.15642
	cltq
	leaq	0(,%rax,4), %rdx	#, D.15639
	movq	-80(%rbp), %rax	# dfs_nr, tmp772
	addq	%rdx, %rax	# D.15639, D.15640
	movl	(%rax), %edx	# *_420, D.15642
	movl	-128(%rbp), %eax	# child, tmp773
	cltq
	leaq	0(,%rax,4), %rcx	#, D.15639
	movq	-88(%rbp), %rax	# max_hdr, tmp774
	addq	%rcx, %rax	# D.15639, D.15640
	movl	(%rax), %eax	# *_424, D.15642
	cltq
	leaq	0(,%rax,4), %rcx	#, D.15639
	movq	-80(%rbp), %rax	# dfs_nr, tmp775
	addq	%rcx, %rax	# D.15639, D.15640
	movl	(%rax), %eax	# *_428, D.15642
	cmpl	%eax, %edx	# D.15642, D.15642
	jge	.L58	#,
	.loc 1 702 0 discriminator 1
	movl	-132(%rbp), %eax	# node, tmp776
	cltq
	leaq	0(,%rax,4), %rdx	#, D.15639
	movq	-88(%rbp), %rax	# max_hdr, tmp777
	addq	%rdx, %rax	# D.15639, D.15640
	movl	(%rax), %eax	# *_432, D.15642
	shrl	$6, %eax	#, D.15641
	movq	-64(%rbp), %rdx	# inner, tmp778
	movl	%eax, %ecx	# D.15641, tmp779
	addq	$2, %rcx	#, tmp780
	movq	(%rdx,%rcx,8), %rdx	# inner_67->elms, D.15639
	movl	-132(%rbp), %ecx	# node, tmp781
	movslq	%ecx, %rcx	# tmp781, D.15639
	leaq	0(,%rcx,4), %rsi	#, D.15639
	movq	-88(%rbp), %rcx	# max_hdr, tmp782
	addq	%rsi, %rcx	# D.15639, D.15640
	movl	(%rcx), %ecx	# *_439, D.15642
	andl	$63, %ecx	#, D.15642
	movl	$1, %esi	#, tmp783
	salq	%cl, %rsi	# D.15642, D.15639
	movq	%rsi, %rcx	# D.15639, D.15639
	notq	%rcx	# D.15639
	andq	%rdx, %rcx	# D.15639, D.15639
	movq	-64(%rbp), %rdx	# inner, tmp784
	movl	%eax, %eax	# D.15641, tmp785
	addq	$2, %rax	#, tmp786
	movq	%rcx, (%rdx,%rax,8)	# D.15639, inner_67->elms
	movl	-132(%rbp), %eax	# node, tmp787
	cltq
	leaq	0(,%rax,4), %rdx	#, D.15639
	movq	-88(%rbp), %rax	# max_hdr, tmp788
	addq	%rax, %rdx	# tmp788, D.15640
	movl	-128(%rbp), %eax	# child, tmp789
	cltq
	leaq	0(,%rax,4), %rcx	#, D.15639
	movq	-88(%rbp), %rax	# max_hdr, tmp790
	addq	%rcx, %rax	# D.15639, D.15640
	movl	(%rax), %eax	# *_450, D.15642
	movl	%eax, (%rdx)	# D.15642, *_447
.L58:
	.loc 1 703 0 is_stmt 1
	movq	edge_table(%rip), %rax	# edge_table, edge_table.93
	movl	-152(%rbp), %edx	# current_edge, tmp791
	movslq	%edx, %rdx	# tmp791, D.15639
	salq	$4, %rdx	#, D.15639
	addq	%rdx, %rax	# D.15639, D.15643
	movl	12(%rax), %eax	# _455->next_out, tmp792
	movl	%eax, -152(%rbp)	# tmp792, current_edge
.L57:
	.loc 1 693 0 discriminator 1
	cmpl	$0, -160(%rbp)	#, sp
	js	.L61	#,
	.loc 1 694 0
	cmpl	$0, -152(%rbp)	#, current_edge
	je	.L62	#,
	.loc 1 694 0 is_stmt 0 discriminator 1
	movl	-152(%rbp), %eax	# current_edge, current_edge.94
	shrl	$6, %eax	#, D.15641
	movl	%eax, %edx	# D.15641, D.15641
	movq	-48(%rbp), %rax	# passed, tmp793
	movl	%edx, %edx	# D.15641, tmp794
	addq	$2, %rdx	#, tmp795
	movq	(%rax,%rdx,8), %rdx	# passed_73->elms, D.15639
	movl	-152(%rbp), %eax	# current_edge, tmp796
	andl	$63, %eax	#, D.15642
	movl	%eax, %ecx	# D.15642, tmp1154
	shrq	%cl, %rdx	# tmp1154, D.15639
	movq	%rdx, %rax	# D.15639, D.15639
	andl	$1, %eax	#, D.15639
	testq	%rax, %rax	# D.15639
	jne	.L62	#,
.L61:
	.loc 1 707 0 is_stmt 1
	cmpl	$0, -160(%rbp)	#, sp
	jns	.L63	#,
	.loc 1 707 0 is_stmt 0 discriminator 1
	movl	-152(%rbp), %eax	# current_edge, current_edge.95
	shrl	$6, %eax	#, D.15641
	movl	%eax, %edx	# D.15641, D.15641
	movq	-48(%rbp), %rax	# passed, tmp797
	movl	%edx, %edx	# D.15641, tmp798
	addq	$2, %rdx	#, tmp799
	movq	(%rax,%rdx,8), %rdx	# passed_73->elms, D.15639
	movl	-152(%rbp), %eax	# current_edge, tmp800
	andl	$63, %eax	#, D.15642
	movl	%eax, %ecx	# D.15642, tmp1157
	shrq	%cl, %rdx	# tmp1157, D.15639
	movq	%rdx, %rax	# D.15639, D.15639
	andl	$1, %eax	#, D.15639
	testq	%rax, %rax	# D.15639
	je	.L63	#,
	.loc 1 708 0 is_stmt 1
	nop
	.loc 1 773 0
	movl	$0, -148(%rbp)	#, unreachable
	.loc 1 774 0
	movl	$0, -176(%rbp)	#, i
	jmp	.L75	#
.L63:
	.loc 1 711 0
	jmp	.L65	#
.L56:
	.loc 1 715 0
	movq	edge_table(%rip), %rax	# edge_table, edge_table.96
	movl	-152(%rbp), %edx	# current_edge, tmp801
	movslq	%edx, %rdx	# tmp801, D.15639
	salq	$4, %rdx	#, D.15639
	addq	%rdx, %rax	# D.15639, D.15643
	movl	(%rax), %eax	# _96->from_block, tmp802
	movl	%eax, -132(%rbp)	# tmp802, node
	.loc 1 716 0
	movq	edge_table(%rip), %rax	# edge_table, edge_table.97
	movl	-152(%rbp), %edx	# current_edge, tmp803
	movslq	%edx, %rdx	# tmp803, D.15639
	salq	$4, %rdx	#, D.15639
	addq	%rdx, %rax	# D.15639, D.15643
	movl	4(%rax), %eax	# _101->to_block, tmp804
	movl	%eax, -128(%rbp)	# tmp804, child
	.loc 1 717 0
	movl	-132(%rbp), %eax	# node, node.98
	shrl	$6, %eax	#, D.15641
	movq	-32(%rbp), %rdx	# in_stack, tmp805
	movl	%eax, %ecx	# D.15641, tmp806
	addq	$2, %rcx	#, tmp807
	movq	(%rdx,%rcx,8), %rdx	# in_stack_79->elms, D.15639
	movl	-132(%rbp), %ecx	# node, tmp808
	andl	$63, %ecx	#, D.15642
	movl	$1, %esi	#, tmp809
	salq	%cl, %rsi	# D.15642, D.15639
	movq	%rsi, %rcx	# D.15639, D.15639
	orq	%rdx, %rcx	# D.15639, D.15639
	movq	-32(%rbp), %rdx	# in_stack, tmp810
	movl	%eax, %eax	# D.15641, tmp811
	addq	$2, %rax	#, tmp812
	movq	%rcx, (%rdx,%rax,8)	# D.15639, in_stack_79->elms
	.loc 1 718 0
	movl	-132(%rbp), %eax	# node, tmp813
	cltq
	leaq	0(,%rax,4), %rdx	#, D.15639
	movq	-80(%rbp), %rax	# dfs_nr, tmp814
	addq	%rax, %rdx	# tmp814, D.15640
	addl	$1, -164(%rbp)	#, count
	movl	-164(%rbp), %eax	# count, tmp815
	movl	%eax, (%rdx)	# tmp815, *_111
	.loc 1 723 0
	movl	-128(%rbp), %eax	# child, child.99
	shrl	$6, %eax	#, D.15641
	movl	%eax, %edx	# D.15641, D.15641
	movq	-32(%rbp), %rax	# in_stack, tmp816
	movl	%edx, %edx	# D.15641, tmp817
	addq	$2, %rdx	#, tmp818
	movq	(%rax,%rdx,8), %rdx	# in_stack_79->elms, D.15639
	movl	-128(%rbp), %eax	# child, tmp819
	andl	$63, %eax	#, D.15642
	movl	%eax, %ecx	# D.15642, tmp1161
	shrq	%cl, %rdx	# tmp1161, D.15639
	movq	%rdx, %rax	# D.15639, D.15639
	andl	$1, %eax	#, D.15639
	testq	%rax, %rax	# D.15639
	je	.L66	#,
	.loc 1 725 0
	movb	$0, -185(%rbp)	#, no_loops
	.loc 1 726 0
	movl	-128(%rbp), %eax	# child, child.100
	shrl	$6, %eax	#, D.15641
	movq	-56(%rbp), %rdx	# header, tmp820
	movl	%eax, %ecx	# D.15641, tmp821
	addq	$2, %rcx	#, tmp822
	movq	(%rdx,%rcx,8), %rdx	# header_70->elms, D.15639
	movl	-128(%rbp), %ecx	# child, tmp823
	andl	$63, %ecx	#, D.15642
	movl	$1, %esi	#, tmp824
	salq	%cl, %rsi	# D.15642, D.15639
	movq	%rsi, %rcx	# D.15639, D.15639
	orq	%rdx, %rcx	# D.15639, D.15639
	movq	-56(%rbp), %rdx	# header, tmp825
	movl	%eax, %eax	# D.15641, tmp826
	addq	$2, %rax	#, tmp827
	movq	%rcx, (%rdx,%rax,8)	# D.15639, header_70->elms
	.loc 1 727 0
	movl	-132(%rbp), %eax	# node, tmp828
	cltq
	leaq	0(,%rax,4), %rdx	#, D.15639
	movq	-88(%rbp), %rax	# max_hdr, tmp829
	addq	%rdx, %rax	# D.15639, D.15640
	movl	(%rax), %eax	# *_128, D.15642
	cmpl	$-1, %eax	#, D.15642
	jne	.L67	#,
	.loc 1 727 0 is_stmt 0 discriminator 1
	movl	-132(%rbp), %eax	# node, tmp830
	cltq
	leaq	0(,%rax,4), %rdx	#, D.15639
	movq	-88(%rbp), %rax	# max_hdr, tmp831
	addq	%rax, %rdx	# tmp831, D.15640
	movl	-128(%rbp), %eax	# child, tmp832
	movl	%eax, (%rdx)	# tmp832, *_132
	jmp	.L68	#
.L67:
	.loc 1 727 0 discriminator 2
	movl	-132(%rbp), %eax	# node, tmp833
	cltq
	leaq	0(,%rax,4), %rdx	#, D.15639
	movq	-88(%rbp), %rax	# max_hdr, tmp834
	addq	%rdx, %rax	# D.15639, D.15640
	movl	(%rax), %eax	# *_135, D.15642
	cltq
	leaq	0(,%rax,4), %rdx	#, D.15639
	movq	-80(%rbp), %rax	# dfs_nr, tmp835
	addq	%rdx, %rax	# D.15639, D.15640
	movl	(%rax), %edx	# *_139, D.15642
	movl	-128(%rbp), %eax	# child, tmp836
	cltq
	leaq	0(,%rax,4), %rcx	#, D.15639
	movq	-80(%rbp), %rax	# dfs_nr, tmp837
	addq	%rcx, %rax	# D.15639, D.15640
	movl	(%rax), %eax	# *_143, D.15642
	cmpl	%eax, %edx	# D.15642, D.15642
	jle	.L69	#,
	.loc 1 727 0 discriminator 1
	movl	-128(%rbp), %eax	# child, child.101
	shrl	$6, %eax	#, D.15641
	movq	-64(%rbp), %rdx	# inner, tmp838
	movl	%eax, %ecx	# D.15641, tmp839
	addq	$2, %rcx	#, tmp840
	movq	(%rdx,%rcx,8), %rdx	# inner_67->elms, D.15639
	movl	-128(%rbp), %ecx	# child, tmp841
	andl	$63, %ecx	#, D.15642
	movl	$1, %esi	#, tmp842
	salq	%cl, %rsi	# D.15642, D.15639
	movq	%rsi, %rcx	# D.15639, D.15639
	notq	%rcx	# D.15639
	andq	%rdx, %rcx	# D.15639, D.15639
	movq	-64(%rbp), %rdx	# inner, tmp843
	movl	%eax, %eax	# D.15641, tmp844
	addq	$2, %rax	#, tmp845
	movq	%rcx, (%rdx,%rax,8)	# D.15639, inner_67->elms
	jmp	.L68	#
.L69:
	.loc 1 727 0 discriminator 2
	movl	-132(%rbp), %eax	# node, tmp846
	cltq
	leaq	0(,%rax,4), %rdx	#, D.15639
	movq	-88(%rbp), %rax	# max_hdr, tmp847
	addq	%rdx, %rax	# D.15639, D.15640
	movl	(%rax), %eax	# *_154, D.15642
	cltq
	leaq	0(,%rax,4), %rdx	#, D.15639
	movq	-80(%rbp), %rax	# dfs_nr, tmp848
	addq	%rdx, %rax	# D.15639, D.15640
	movl	(%rax), %edx	# *_158, D.15642
	movl	-128(%rbp), %eax	# child, tmp849
	cltq
	leaq	0(,%rax,4), %rcx	#, D.15639
	movq	-80(%rbp), %rax	# dfs_nr, tmp850
	addq	%rcx, %rax	# D.15639, D.15640
	movl	(%rax), %eax	# *_162, D.15642
	cmpl	%eax, %edx	# D.15642, D.15642
	jge	.L68	#,
	.loc 1 727 0 discriminator 1
	movl	-132(%rbp), %eax	# node, tmp851
	cltq
	leaq	0(,%rax,4), %rdx	#, D.15639
	movq	-88(%rbp), %rax	# max_hdr, tmp852
	addq	%rdx, %rax	# D.15639, D.15640
	movl	(%rax), %eax	# *_166, D.15642
	shrl	$6, %eax	#, D.15641
	movq	-64(%rbp), %rdx	# inner, tmp853
	movl	%eax, %ecx	# D.15641, tmp854
	addq	$2, %rcx	#, tmp855
	movq	(%rdx,%rcx,8), %rdx	# inner_67->elms, D.15639
	movl	-132(%rbp), %ecx	# node, tmp856
	movslq	%ecx, %rcx	# tmp856, D.15639
	leaq	0(,%rcx,4), %rsi	#, D.15639
	movq	-88(%rbp), %rcx	# max_hdr, tmp857
	addq	%rsi, %rcx	# D.15639, D.15640
	movl	(%rcx), %ecx	# *_173, D.15642
	andl	$63, %ecx	#, D.15642
	movl	$1, %esi	#, tmp858
	salq	%cl, %rsi	# D.15642, D.15639
	movq	%rsi, %rcx	# D.15639, D.15639
	notq	%rcx	# D.15639
	andq	%rdx, %rcx	# D.15639, D.15639
	movq	-64(%rbp), %rdx	# inner, tmp859
	movl	%eax, %eax	# D.15641, tmp860
	addq	$2, %rax	#, tmp861
	movq	%rcx, (%rdx,%rax,8)	# D.15639, inner_67->elms
	movl	-132(%rbp), %eax	# node, tmp862
	cltq
	leaq	0(,%rax,4), %rdx	#, D.15639
	movq	-88(%rbp), %rax	# max_hdr, tmp863
	addq	%rax, %rdx	# tmp863, D.15640
	movl	-128(%rbp), %eax	# child, tmp864
	movl	%eax, (%rdx)	# tmp864, *_181
.L68:
	.loc 1 728 0 is_stmt 1
	movl	-152(%rbp), %eax	# current_edge, current_edge.102
	shrl	$6, %eax	#, D.15641
	movq	-48(%rbp), %rdx	# passed, tmp865
	movl	%eax, %ecx	# D.15641, tmp866
	addq	$2, %rcx	#, tmp867
	movq	(%rdx,%rcx,8), %rdx	# passed_73->elms, D.15639
	movl	-152(%rbp), %ecx	# current_edge, tmp868
	andl	$63, %ecx	#, D.15642
	movl	$1, %esi	#, tmp869
	salq	%cl, %rsi	# D.15642, D.15639
	movq	%rsi, %rcx	# D.15639, D.15639
	orq	%rdx, %rcx	# D.15639, D.15639
	movq	-48(%rbp), %rdx	# passed, tmp870
	movl	%eax, %eax	# D.15641, tmp871
	addq	$2, %rax	#, tmp872
	movq	%rcx, (%rdx,%rax,8)	# D.15639, passed_73->elms
	.loc 1 729 0
	movq	edge_table(%rip), %rax	# edge_table, edge_table.103
	movl	-152(%rbp), %edx	# current_edge, tmp873
	movslq	%edx, %rdx	# tmp873, D.15639
	salq	$4, %rdx	#, D.15639
	addq	%rdx, %rax	# D.15639, D.15643
	movl	12(%rax), %eax	# _191->next_out, tmp874
	movl	%eax, -152(%rbp)	# tmp874, current_edge
	.loc 1 730 0
	jmp	.L65	#
.L66:
	.loc 1 736 0
	movl	-128(%rbp), %eax	# child, tmp875
	cltq
	leaq	0(,%rax,4), %rdx	#, D.15639
	movq	-80(%rbp), %rax	# dfs_nr, tmp876
	addq	%rdx, %rax	# D.15639, D.15640
	movl	(%rax), %eax	# *_195, D.15642
	testl	%eax, %eax	# D.15642
	je	.L70	#,
	.loc 1 738 0
	movl	-128(%rbp), %eax	# child, tmp877
	cltq
	leaq	0(,%rax,4), %rdx	#, D.15639
	movq	-88(%rbp), %rax	# max_hdr, tmp878
	addq	%rdx, %rax	# D.15639, D.15640
	movl	(%rax), %eax	# *_199, D.15642
	testl	%eax, %eax	# D.15642
	js	.L71	#,
	.loc 1 738 0 is_stmt 0 discriminator 1
	movl	-128(%rbp), %eax	# child, tmp879
	cltq
	leaq	0(,%rax,4), %rdx	#, D.15639
	movq	-88(%rbp), %rax	# max_hdr, tmp880
	addq	%rdx, %rax	# D.15639, D.15640
	movl	(%rax), %eax	# *_203, D.15642
	shrl	$6, %eax	#, D.15641
	movl	%eax, %edx	# D.15641, D.15641
	movq	-32(%rbp), %rax	# in_stack, tmp881
	movl	%edx, %edx	# D.15641, tmp882
	addq	$2, %rdx	#, tmp883
	movq	(%rax,%rdx,8), %rdx	# in_stack_79->elms, D.15639
	movl	-128(%rbp), %eax	# child, tmp884
	cltq
	leaq	0(,%rax,4), %rcx	#, D.15639
	movq	-88(%rbp), %rax	# max_hdr, tmp885
	addq	%rcx, %rax	# D.15639, D.15640
	movl	(%rax), %eax	# *_210, D.15642
	andl	$63, %eax	#, D.15642
	movl	%eax, %ecx	# D.15642, tmp1168
	shrq	%cl, %rdx	# tmp1168, D.15639
	movq	%rdx, %rax	# D.15639, D.15639
	andl	$1, %eax	#, D.15639
	testq	%rax, %rax	# D.15639
	je	.L71	#,
	.loc 1 739 0 is_stmt 1
	movl	-132(%rbp), %eax	# node, tmp886
	cltq
	leaq	0(,%rax,4), %rdx	#, D.15639
	movq	-88(%rbp), %rax	# max_hdr, tmp887
	addq	%rdx, %rax	# D.15639, D.15640
	movl	(%rax), %eax	# *_217, D.15642
	cmpl	$-1, %eax	#, D.15642
	jne	.L72	#,
	.loc 1 739 0 is_stmt 0 discriminator 1
	movl	-132(%rbp), %eax	# node, tmp888
	cltq
	leaq	0(,%rax,4), %rdx	#, D.15639
	movq	-88(%rbp), %rax	# max_hdr, tmp889
	addq	%rax, %rdx	# tmp889, D.15640
	movl	-128(%rbp), %eax	# child, tmp890
	cltq
	leaq	0(,%rax,4), %rcx	#, D.15639
	movq	-88(%rbp), %rax	# max_hdr, tmp891
	addq	%rcx, %rax	# D.15639, D.15640
	movl	(%rax), %eax	# *_224, D.15642
	movl	%eax, (%rdx)	# D.15642, *_221
	jmp	.L71	#
.L72:
	.loc 1 739 0 discriminator 2
	movl	-132(%rbp), %eax	# node, tmp892
	cltq
	leaq	0(,%rax,4), %rdx	#, D.15639
	movq	-88(%rbp), %rax	# max_hdr, tmp893
	addq	%rdx, %rax	# D.15639, D.15640
	movl	(%rax), %eax	# *_228, D.15642
	cltq
	leaq	0(,%rax,4), %rdx	#, D.15639
	movq	-80(%rbp), %rax	# dfs_nr, tmp894
	addq	%rdx, %rax	# D.15639, D.15640
	movl	(%rax), %edx	# *_232, D.15642
	movl	-128(%rbp), %eax	# child, tmp895
	cltq
	leaq	0(,%rax,4), %rcx	#, D.15639
	movq	-88(%rbp), %rax	# max_hdr, tmp896
	addq	%rcx, %rax	# D.15639, D.15640
	movl	(%rax), %eax	# *_236, D.15642
	cltq
	leaq	0(,%rax,4), %rcx	#, D.15639
	movq	-80(%rbp), %rax	# dfs_nr, tmp897
	addq	%rcx, %rax	# D.15639, D.15640
	movl	(%rax), %eax	# *_240, D.15642
	cmpl	%eax, %edx	# D.15642, D.15642
	jle	.L73	#,
	.loc 1 739 0 discriminator 1
	movl	-128(%rbp), %eax	# child, tmp898
	cltq
	leaq	0(,%rax,4), %rdx	#, D.15639
	movq	-88(%rbp), %rax	# max_hdr, tmp899
	addq	%rdx, %rax	# D.15639, D.15640
	movl	(%rax), %eax	# *_244, D.15642
	shrl	$6, %eax	#, D.15641
	movq	-64(%rbp), %rdx	# inner, tmp900
	movl	%eax, %ecx	# D.15641, tmp901
	addq	$2, %rcx	#, tmp902
	movq	(%rdx,%rcx,8), %rdx	# inner_67->elms, D.15639
	movl	-128(%rbp), %ecx	# child, tmp903
	movslq	%ecx, %rcx	# tmp903, D.15639
	leaq	0(,%rcx,4), %rsi	#, D.15639
	movq	-88(%rbp), %rcx	# max_hdr, tmp904
	addq	%rsi, %rcx	# D.15639, D.15640
	movl	(%rcx), %ecx	# *_251, D.15642
	andl	$63, %ecx	#, D.15642
	movl	$1, %esi	#, tmp905
	salq	%cl, %rsi	# D.15642, D.15639
	movq	%rsi, %rcx	# D.15639, D.15639
	notq	%rcx	# D.15639
	andq	%rdx, %rcx	# D.15639, D.15639
	movq	-64(%rbp), %rdx	# inner, tmp906
	movl	%eax, %eax	# D.15641, tmp907
	addq	$2, %rax	#, tmp908
	movq	%rcx, (%rdx,%rax,8)	# D.15639, inner_67->elms
	jmp	.L71	#
.L73:
	.loc 1 739 0 discriminator 2
	movl	-132(%rbp), %eax	# node, tmp909
	cltq
	leaq	0(,%rax,4), %rdx	#, D.15639
	movq	-88(%rbp), %rax	# max_hdr, tmp910
	addq	%rdx, %rax	# D.15639, D.15640
	movl	(%rax), %eax	# *_259, D.15642
	cltq
	leaq	0(,%rax,4), %rdx	#, D.15639
	movq	-80(%rbp), %rax	# dfs_nr, tmp911
	addq	%rdx, %rax	# D.15639, D.15640
	movl	(%rax), %edx	# *_263, D.15642
	movl	-128(%rbp), %eax	# child, tmp912
	cltq
	leaq	0(,%rax,4), %rcx	#, D.15639
	movq	-88(%rbp), %rax	# max_hdr, tmp913
	addq	%rcx, %rax	# D.15639, D.15640
	movl	(%rax), %eax	# *_267, D.15642
	cltq
	leaq	0(,%rax,4), %rcx	#, D.15639
	movq	-80(%rbp), %rax	# dfs_nr, tmp914
	addq	%rcx, %rax	# D.15639, D.15640
	movl	(%rax), %eax	# *_271, D.15642
	cmpl	%eax, %edx	# D.15642, D.15642
	jge	.L71	#,
	.loc 1 739 0 discriminator 1
	movl	-132(%rbp), %eax	# node, tmp915
	cltq
	leaq	0(,%rax,4), %rdx	#, D.15639
	movq	-88(%rbp), %rax	# max_hdr, tmp916
	addq	%rdx, %rax	# D.15639, D.15640
	movl	(%rax), %eax	# *_275, D.15642
	shrl	$6, %eax	#, D.15641
	movq	-64(%rbp), %rdx	# inner, tmp917
	movl	%eax, %ecx	# D.15641, tmp918
	addq	$2, %rcx	#, tmp919
	movq	(%rdx,%rcx,8), %rdx	# inner_67->elms, D.15639
	movl	-132(%rbp), %ecx	# node, tmp920
	movslq	%ecx, %rcx	# tmp920, D.15639
	leaq	0(,%rcx,4), %rsi	#, D.15639
	movq	-88(%rbp), %rcx	# max_hdr, tmp921
	addq	%rsi, %rcx	# D.15639, D.15640
	movl	(%rcx), %ecx	# *_282, D.15642
	andl	$63, %ecx	#, D.15642
	movl	$1, %esi	#, tmp922
	salq	%cl, %rsi	# D.15642, D.15639
	movq	%rsi, %rcx	# D.15639, D.15639
	notq	%rcx	# D.15639
	andq	%rdx, %rcx	# D.15639, D.15639
	movq	-64(%rbp), %rdx	# inner, tmp923
	movl	%eax, %eax	# D.15641, tmp924
	addq	$2, %rax	#, tmp925
	movq	%rcx, (%rdx,%rax,8)	# D.15639, inner_67->elms
	movl	-132(%rbp), %eax	# node, tmp926
	cltq
	leaq	0(,%rax,4), %rdx	#, D.15639
	movq	-88(%rbp), %rax	# max_hdr, tmp927
	addq	%rax, %rdx	# tmp927, D.15640
	movl	-128(%rbp), %eax	# child, tmp928
	cltq
	leaq	0(,%rax,4), %rcx	#, D.15639
	movq	-88(%rbp), %rax	# max_hdr, tmp929
	addq	%rcx, %rax	# D.15639, D.15640
	movl	(%rax), %eax	# *_293, D.15642
	movl	%eax, (%rdx)	# D.15642, *_290
.L71:
	.loc 1 740 0 is_stmt 1
	movl	-152(%rbp), %eax	# current_edge, current_edge.104
	shrl	$6, %eax	#, D.15641
	movq	-48(%rbp), %rdx	# passed, tmp930
	movl	%eax, %ecx	# D.15641, tmp931
	addq	$2, %rcx	#, tmp932
	movq	(%rdx,%rcx,8), %rdx	# passed_73->elms, D.15639
	movl	-152(%rbp), %ecx	# current_edge, tmp933
	andl	$63, %ecx	#, D.15642
	movl	$1, %esi	#, tmp934
	salq	%cl, %rsi	# D.15642, D.15639
	movq	%rsi, %rcx	# D.15639, D.15639
	orq	%rdx, %rcx	# D.15639, D.15639
	movq	-48(%rbp), %rdx	# passed, tmp935
	movl	%eax, %eax	# D.15641, tmp936
	addq	$2, %rax	#, tmp937
	movq	%rcx, (%rdx,%rax,8)	# D.15639, passed_73->elms
	.loc 1 741 0
	movq	edge_table(%rip), %rax	# edge_table, edge_table.105
	movl	-152(%rbp), %edx	# current_edge, tmp938
	movslq	%edx, %rdx	# tmp938, D.15639
	salq	$4, %rdx	#, D.15639
	addq	%rdx, %rax	# D.15639, D.15643
	movl	12(%rax), %eax	# _304->next_out, tmp939
	movl	%eax, -152(%rbp)	# tmp939, current_edge
	.loc 1 742 0
	jmp	.L65	#
.L70:
	.loc 1 746 0
	addl	$1, -160(%rbp)	#, sp
	movl	-160(%rbp), %eax	# sp, tmp940
	cltq
	leaq	0(,%rax,4), %rdx	#, D.15639
	movq	-72(%rbp), %rax	# stack, tmp941
	addq	%rax, %rdx	# tmp941, D.15640
	movl	-152(%rbp), %eax	# current_edge, tmp942
	movl	%eax, (%rdx)	# tmp942, *_309
	.loc 1 747 0
	movl	-152(%rbp), %eax	# current_edge, current_edge.106
	shrl	$6, %eax	#, D.15641
	movq	-48(%rbp), %rdx	# passed, tmp943
	movl	%eax, %ecx	# D.15641, tmp944
	addq	$2, %rcx	#, tmp945
	movq	(%rdx,%rcx,8), %rdx	# passed_73->elms, D.15639
	movl	-152(%rbp), %ecx	# current_edge, tmp946
	andl	$63, %ecx	#, D.15642
	movl	$1, %esi	#, tmp947
	salq	%cl, %rsi	# D.15642, D.15639
	movq	%rsi, %rcx	# D.15639, D.15639
	orq	%rdx, %rcx	# D.15639, D.15639
	movq	-48(%rbp), %rdx	# passed, tmp948
	movl	%eax, %eax	# D.15641, tmp949
	addq	$2, %rax	#, tmp950
	movq	%rcx, (%rdx,%rax,8)	# D.15639, passed_73->elms
	.loc 1 748 0
	movq	out_edges(%rip), %rax	# out_edges, out_edges.107
	movl	-128(%rbp), %edx	# child, tmp951
	movslq	%edx, %rdx	# tmp951, D.15639
	salq	$2, %rdx	#, D.15639
	addq	%rdx, %rax	# D.15639, D.15640
	movl	(%rax), %eax	# *_319, tmp952
	movl	%eax, -152(%rbp)	# tmp952, current_edge
	.loc 1 762 0
	cmpl	$0, -152(%rbp)	#, current_edge
	jne	.L65	#,
	.loc 1 763 0
	movl	-128(%rbp), %eax	# child, tmp953
	cltq
	leaq	0(,%rax,4), %rdx	#, D.15639
	movq	-80(%rbp), %rax	# dfs_nr, tmp954
	addq	%rax, %rdx	# tmp954, D.15640
	addl	$1, -164(%rbp)	#, count
	movl	-164(%rbp), %eax	# count, tmp955
	movl	%eax, (%rdx)	# tmp955, *_323
	.loc 1 764 0
	jmp	.L74	#
.L65:
	jmp	.L74	#
.L78:
	.loc 1 775 0
	movl	-176(%rbp), %eax	# i, tmp956
	cltq
	leaq	0(,%rax,4), %rdx	#, D.15639
	movq	-80(%rbp), %rax	# dfs_nr, tmp957
	addq	%rdx, %rax	# D.15639, D.15640
	movl	(%rax), %eax	# *_468, D.15642
	testl	%eax, %eax	# D.15642
	jne	.L76	#,
	.loc 1 777 0
	movl	$1, -148(%rbp)	#, unreachable
	.loc 1 778 0
	jmp	.L77	#
.L76:
	.loc 1 774 0
	addl	$1, -176(%rbp)	#, i
.L75:
	.loc 1 774 0 is_stmt 0 discriminator 1
	movl	n_basic_blocks(%rip), %eax	# n_basic_blocks, n_basic_blocks.108
	cmpl	%eax, -176(%rbp)	# n_basic_blocks.108, i
	jl	.L78	#,
.L77:
	.loc 1 783 0 is_stmt 1
	movq	-80(%rbp), %rax	# dfs_nr, tmp958
	movq	%rax, -24(%rbp)	# tmp958, degree
	.loc 1 785 0
	movl	$0, -176(%rbp)	#, i
	jmp	.L79	#
.L80:
	.loc 1 786 0 discriminator 2
	movl	-176(%rbp), %eax	# i, tmp959
	cltq
	leaq	0(,%rax,4), %rdx	#, D.15639
	movq	-24(%rbp), %rax	# degree, tmp960
	addq	%rdx, %rax	# D.15639, D.15640
	movl	$0, (%rax)	#, *_477
	.loc 1 785 0 discriminator 2
	addl	$1, -176(%rbp)	#, i
.L79:
	.loc 1 785 0 is_stmt 0 discriminator 1
	movl	n_basic_blocks(%rip), %eax	# n_basic_blocks, n_basic_blocks.109
	cmpl	%eax, -176(%rbp)	# n_basic_blocks.109, i
	jl	.L80	#,
	.loc 1 787 0 is_stmt 1
	movl	$0, -176(%rbp)	#, i
	jmp	.L81	#
.L83:
.LBB8:
	.loc 1 789 0
	movq	-200(%rbp), %rax	# edge_list, tmp961
	movq	8(%rax), %rax	# edge_list_52(D)->index_to_edge, D.15644
	movl	-176(%rbp), %edx	# i, tmp962
	movslq	%edx, %rdx	# tmp962, D.15639
	salq	$3, %rdx	#, D.15639
	addq	%rdx, %rax	# D.15639, D.15644
	movq	(%rax), %rax	# *_483, tmp963
	movq	%rax, -16(%rbp)	# tmp963, e
	.loc 1 791 0
	movq	-16(%rbp), %rax	# e, tmp964
	movq	24(%rax), %rax	# e_484->dest, D.15645
	cmpq	$entry_exit_blocks+112, %rax	#, D.15645
	je	.L82	#,
	.loc 1 792 0
	movq	-16(%rbp), %rax	# e, tmp965
	movq	24(%rax), %rax	# e_484->dest, D.15645
	movl	88(%rax), %eax	# _486->index, D.15642
	cltq
	leaq	0(,%rax,4), %rdx	#, D.15639
	movq	-24(%rbp), %rax	# degree, tmp966
	addq	%rdx, %rax	# D.15639, D.15640
	movl	(%rax), %edx	# *_490, D.15642
	addl	$1, %edx	#, D.15642
	movl	%edx, (%rax)	# D.15642, *_490
.L82:
.LBE8:
	.loc 1 787 0
	addl	$1, -176(%rbp)	#, i
.L81:
	.loc 1 787 0 is_stmt 0 discriminator 1
	movl	-176(%rbp), %eax	# i, tmp967
	cmpl	-136(%rbp), %eax	# num_edges, tmp967
	jl	.L83	#,
	.loc 1 797 0 is_stmt 1
	cmpl	$0, -148(%rbp)	#, unreachable
	jne	.L84	#,
.LBB9:
	.loc 1 801 0
	cmpb	$0, -185(%rbp)	#, no_loops
	je	.L85	#,
	.loc 1 802 0
	movq	-56(%rbp), %rax	# header, tmp968
	movq	16(%rax), %rax	# header_70->elms, D.15639
	orq	$1, %rax	#, D.15639
	movq	%rax, %rdx	# D.15639, D.15639
	movq	-56(%rbp), %rax	# header, tmp969
	movq	%rdx, 16(%rax)	# D.15639, header_70->elms
.L85:
	.loc 1 807 0
	movl	n_basic_blocks(%rip), %eax	# n_basic_blocks, n_basic_blocks.110
	cltq
	salq	$2, %rax	#, D.15639
	movq	%rax, %rdi	# D.15639,
	call	xmalloc	#
	movq	%rax, -8(%rbp)	# tmp970, queue
	.loc 1 811 0
	movl	$0, -176(%rbp)	#, i
	jmp	.L86	#
.L121:
	.loc 1 813 0
	movl	-176(%rbp), %eax	# i, i.111
	shrl	$6, %eax	#, D.15641
	movl	%eax, %edx	# D.15641, D.15641
	movq	-56(%rbp), %rax	# header, tmp971
	movl	%edx, %edx	# D.15641, tmp972
	addq	$2, %rdx	#, tmp973
	movq	(%rax,%rdx,8), %rdx	# header_70->elms, D.15639
	movl	-176(%rbp), %eax	# i, tmp974
	andl	$63, %eax	#, D.15642
	movl	%eax, %ecx	# D.15642, tmp1176
	shrq	%cl, %rdx	# tmp1176, D.15639
	movq	%rdx, %rax	# D.15639, D.15639
	andl	$1, %eax	#, D.15639
	testq	%rax, %rax	# D.15639
	je	.L87	#,
	.loc 1 813 0 is_stmt 0 discriminator 1
	movl	-176(%rbp), %eax	# i, i.112
	shrl	$6, %eax	#, D.15641
	movl	%eax, %edx	# D.15641, D.15641
	movq	-64(%rbp), %rax	# inner, tmp975
	movl	%edx, %edx	# D.15641, tmp976
	addq	$2, %rdx	#, tmp977
	movq	(%rax,%rdx,8), %rdx	# inner_67->elms, D.15639
	movl	-176(%rbp), %eax	# i, tmp978
	andl	$63, %eax	#, D.15642
	movl	%eax, %ecx	# D.15642, tmp1179
	shrq	%cl, %rdx	# tmp1179, D.15639
	movq	%rdx, %rax	# D.15639, D.15639
	andl	$1, %eax	#, D.15639
	testq	%rax, %rax	# D.15639
	je	.L87	#,
.LBB10:
	.loc 1 829 0 is_stmt 1
	movl	$0, -140(%rbp)	#, j
	jmp	.L88	#
.L91:
	.loc 1 833 0
	movl	-140(%rbp), %eax	# j, tmp979
	cltq
	leaq	0(,%rax,4), %rdx	#, D.15639
	movq	-88(%rbp), %rax	# max_hdr, tmp980
	addq	%rdx, %rax	# D.15639, D.15640
	movl	(%rax), %eax	# *_518, D.15642
	cmpl	-176(%rbp), %eax	# i, D.15642
	jne	.L89	#,
	.loc 1 833 0 is_stmt 0 discriminator 1
	movl	-176(%rbp), %eax	# i, tmp981
	cmpl	-140(%rbp), %eax	# j, tmp981
	je	.L89	#,
	.loc 1 837 0 is_stmt 1
	movl	-140(%rbp), %eax	# j, tmp982
	cltq
	leaq	0(,%rax,8), %rdx	#, D.15639
	movq	-208(%rbp), %rax	# dom, tmp983
	addq	%rdx, %rax	# D.15639, D.15646
	movq	(%rax), %rax	# *_523, D.15647
	movl	-176(%rbp), %edx	# i, i.113
	shrl	$6, %edx	#, D.15641
	movl	%edx, %edx	# D.15641, tmp984
	addq	$2, %rdx	#, tmp985
	movq	(%rax,%rdx,8), %rdx	# _524->elms, D.15639
	movl	-176(%rbp), %eax	# i, tmp986
	andl	$63, %eax	#, D.15642
	movl	%eax, %ecx	# D.15642, tmp1181
	shrq	%cl, %rdx	# tmp1181, D.15639
	movq	%rdx, %rax	# D.15639, D.15639
	andl	$1, %eax	#, D.15639
	testq	%rax, %rax	# D.15639
	jne	.L89	#,
	.loc 1 838 0
	jmp	.L90	#
.L89:
	.loc 1 829 0
	addl	$1, -140(%rbp)	#, j
.L88:
	.loc 1 829 0 is_stmt 0 discriminator 1
	movl	n_basic_blocks(%rip), %eax	# n_basic_blocks, n_basic_blocks.114
	cmpl	%eax, -140(%rbp)	# n_basic_blocks.114, j
	jl	.L91	#,
.L90:
	.loc 1 845 0 is_stmt 1
	movl	n_basic_blocks(%rip), %eax	# n_basic_blocks, n_basic_blocks.115
	cmpl	%eax, -140(%rbp)	# n_basic_blocks.115, j
	je	.L92	#,
	.loc 1 846 0
	jmp	.L87	#
.L92:
	.loc 1 850 0
	movl	$-1, -168(%rbp)	#, tail
	movl	-168(%rbp), %eax	# tail, tmp987
	movl	%eax, -172(%rbp)	# tmp987, head
	.loc 1 851 0
	movl	$0, -144(%rbp)	#, too_large_failure
	.loc 1 852 0
	movl	-176(%rbp), %eax	# i, tmp988
	cltq
	leaq	0(,%rax,4), %rdx	#, D.15639
	movq	-88(%rbp), %rax	# max_hdr, tmp989
	addq	%rdx, %rax	# D.15639, D.15640
	movl	(%rax), %eax	# *_538, tmp990
	movl	%eax, -124(%rbp)	# tmp990, loop_head
	.loc 1 856 0
	movq	basic_block_info(%rip), %rax	# basic_block_info, basic_block_info.116
	movl	-176(%rbp), %edx	# i, tmp992
	movslq	%edx, %rdx	# tmp992, tmp991
	addq	$4, %rdx	#, tmp993
	movq	(%rax,%rdx,8), %rax	# basic_block_info.116_540->data.bb, D.15645
	movq	40(%rax), %rax	# _541->succ, tmp994
	movq	%rax, -120(%rbp)	# tmp994, e
	jmp	.L93	#
.L95:
	.loc 1 857 0
	movq	-120(%rbp), %rax	# e, tmp995
	movq	24(%rax), %rax	# e_41->dest, D.15645
	cmpq	$entry_exit_blocks+112, %rax	#, D.15645
	je	.L94	#,
	.loc 1 858 0
	movq	-120(%rbp), %rax	# e, tmp996
	movq	24(%rax), %rax	# e_41->dest, D.15645
	movl	88(%rax), %eax	# _544->index, D.15642
	cltq
	leaq	0(,%rax,4), %rdx	#, D.15639
	movq	-24(%rbp), %rax	# degree, tmp997
	addq	%rdx, %rax	# D.15639, D.15640
	movl	(%rax), %edx	# *_548, D.15642
	subl	$1, %edx	#, D.15642
	movl	%edx, (%rax)	# D.15642, *_548
.L94:
	.loc 1 856 0
	movq	-120(%rbp), %rax	# e, tmp998
	movq	8(%rax), %rax	# e_41->succ_next, tmp999
	movq	%rax, -120(%rbp)	# tmp999, e
.L93:
	.loc 1 856 0 is_stmt 0 discriminator 1
	cmpq	$0, -120(%rbp)	#, e
	jne	.L95	#,
	.loc 1 861 0 is_stmt 1
	movl	$1, -184(%rbp)	#, num_bbs
	.loc 1 862 0
	movq	h_i_d(%rip), %rcx	# h_i_d, h_i_d.117
	movq	basic_block_info(%rip), %rax	# basic_block_info, basic_block_info.118
	movl	-176(%rbp), %edx	# i, tmp1001
	movslq	%edx, %rdx	# tmp1001, tmp1000
	addq	$4, %rdx	#, tmp1002
	movq	(%rax,%rdx,8), %rax	# basic_block_info.118_553->data.bb, D.15645
	movq	8(%rax), %rax	# _554->end, D.15648
	movl	8(%rax), %eax	# _555->fld[0].rtint, D.15642
	movslq	%eax, %rdx	# D.15642, D.15639
	movq	%rdx, %rax	# D.15639, tmp1003
	addq	%rax, %rax	# tmp1003
	addq	%rdx, %rax	# D.15639, tmp1003
	salq	$4, %rax	#, tmp1004
	addq	%rcx, %rax	# h_i_d.117, D.15649
	movl	16(%rax), %ecx	# _559->luid, D.15642
	.loc 1 863 0
	movq	h_i_d(%rip), %rsi	# h_i_d, h_i_d.119
	movq	basic_block_info(%rip), %rax	# basic_block_info, basic_block_info.120
	movl	-176(%rbp), %edx	# i, tmp1006
	movslq	%edx, %rdx	# tmp1006, tmp1005
	addq	$4, %rdx	#, tmp1007
	movq	(%rax,%rdx,8), %rax	# basic_block_info.120_562->data.bb, D.15645
	movq	(%rax), %rax	# _563->head, D.15648
	movl	8(%rax), %eax	# _564->fld[0].rtint, D.15642
	movslq	%eax, %rdx	# D.15642, D.15639
	movq	%rdx, %rax	# D.15639, tmp1008
	addq	%rax, %rax	# tmp1008
	addq	%rdx, %rax	# D.15639, tmp1008
	salq	$4, %rax	#, tmp1009
	addq	%rsi, %rax	# h_i_d.119, D.15649
	movl	16(%rax), %eax	# _568->luid, D.15642
	subl	%eax, %ecx	# D.15642, num_insns.121
	movl	%ecx, %eax	# num_insns.121, num_insns.121
	.loc 1 862 0
	movl	%eax, -180(%rbp)	# num_insns.121, num_insns
	.loc 1 869 0
	cmpb	$0, -185(%rbp)	#, no_loops
	je	.L96	#,
	.loc 1 871 0
	movl	$0, -140(%rbp)	#, j
	jmp	.L97	#
.L100:
	.loc 1 874 0
	movq	basic_block_info(%rip), %rax	# basic_block_info, basic_block_info.122
	movl	-140(%rbp), %edx	# j, tmp1011
	movslq	%edx, %rdx	# tmp1011, tmp1010
	addq	$4, %rdx	#, tmp1012
	movq	(%rax,%rdx,8), %rax	# basic_block_info.122_573->data.bb, D.15645
	movq	40(%rax), %rax	# _574->succ, D.15650
	testq	%rax, %rax	# D.15650
	je	.L98	#,
	.loc 1 875 0
	movq	basic_block_info(%rip), %rax	# basic_block_info, basic_block_info.123
	movl	-140(%rbp), %edx	# j, tmp1014
	movslq	%edx, %rdx	# tmp1014, tmp1013
	addq	$4, %rdx	#, tmp1015
	movq	(%rax,%rdx,8), %rax	# basic_block_info.123_576->data.bb, D.15645
	movq	40(%rax), %rax	# _577->succ, D.15650
	movq	24(%rax), %rax	# _578->dest, D.15645
	cmpq	$entry_exit_blocks+112, %rax	#, D.15645
	jne	.L98	#,
	.loc 1 876 0
	movq	basic_block_info(%rip), %rax	# basic_block_info, basic_block_info.124
	movl	-140(%rbp), %edx	# j, tmp1017
	movslq	%edx, %rdx	# tmp1017, tmp1016
	addq	$4, %rdx	#, tmp1018
	movq	(%rax,%rdx,8), %rax	# basic_block_info.124_580->data.bb, D.15645
	movq	40(%rax), %rax	# _581->succ, D.15650
	movq	8(%rax), %rax	# _582->succ_next, D.15650
	testq	%rax, %rax	# D.15650
	jne	.L98	#,
	.loc 1 878 0
	addl	$1, -168(%rbp)	#, tail
	movl	-168(%rbp), %eax	# tail, tmp1019
	cltq
	leaq	0(,%rax,4), %rdx	#, D.15639
	movq	-8(%rbp), %rax	# queue, tmp1020
	addq	%rax, %rdx	# tmp1020, D.15640
	movl	-140(%rbp), %eax	# j, tmp1021
	movl	%eax, (%rdx)	# tmp1021, *_587
	.loc 1 879 0
	movl	-140(%rbp), %eax	# j, j.125
	shrl	$6, %eax	#, D.15641
	movq	-40(%rbp), %rdx	# in_queue, tmp1022
	movl	%eax, %ecx	# D.15641, tmp1023
	addq	$2, %rcx	#, tmp1024
	movq	(%rdx,%rcx,8), %rdx	# in_queue_76->elms, D.15639
	movl	-140(%rbp), %ecx	# j, tmp1025
	andl	$63, %ecx	#, D.15642
	movl	$1, %esi	#, tmp1026
	salq	%cl, %rsi	# D.15642, D.15639
	movq	%rsi, %rcx	# D.15639, D.15639
	orq	%rdx, %rcx	# D.15639, D.15639
	movq	-40(%rbp), %rdx	# in_queue, tmp1027
	movl	%eax, %eax	# D.15641, tmp1028
	addq	$2, %rax	#, tmp1029
	movq	%rcx, (%rdx,%rax,8)	# D.15639, in_queue_76->elms
	.loc 1 881 0
	leaq	-180(%rbp), %rdx	#, tmp1030
	leaq	-184(%rbp), %rcx	#, tmp1031
	movl	-140(%rbp), %eax	# j, tmp1032
	movq	%rcx, %rsi	# tmp1031,
	movl	%eax, %edi	# tmp1032,
	call	too_large	#
	testl	%eax, %eax	# D.15642
	je	.L98	#,
	.loc 1 883 0
	movl	$1, -144(%rbp)	#, too_large_failure
	.loc 1 884 0
	nop
	jmp	.L101	#
.L98:
	.loc 1 871 0
	addl	$1, -140(%rbp)	#, j
.L97:
	.loc 1 871 0 is_stmt 0 discriminator 1
	movl	n_basic_blocks(%rip), %eax	# n_basic_blocks, n_basic_blocks.126
	cmpl	%eax, -140(%rbp)	# n_basic_blocks.126, j
	jl	.L100	#,
	jmp	.L101	#
.L96:
.LBB11:
	.loc 1 892 0 is_stmt 1
	movq	basic_block_info(%rip), %rax	# basic_block_info, basic_block_info.127
	movl	-176(%rbp), %edx	# i, tmp1034
	movslq	%edx, %rdx	# tmp1034, tmp1033
	addq	$4, %rdx	#, tmp1035
	movq	(%rax,%rdx,8), %rax	# basic_block_info.127_597->data.bb, D.15645
	movq	32(%rax), %rax	# _598->pred, tmp1036
	movq	%rax, -112(%rbp)	# tmp1036, e
	jmp	.L102	#
.L105:
	.loc 1 894 0
	movq	-112(%rbp), %rax	# e, tmp1037
	movq	16(%rax), %rax	# e_44->src, D.15645
	cmpq	$entry_exit_blocks, %rax	#, D.15645
	jne	.L103	#,
	.loc 1 895 0
	jmp	.L104	#
.L103:
	.loc 1 897 0
	movq	-112(%rbp), %rax	# e, tmp1038
	movq	16(%rax), %rax	# e_44->src, D.15645
	movl	88(%rax), %eax	# _601->index, tmp1039
	movl	%eax, -132(%rbp)	# tmp1039, node
	.loc 1 899 0
	movl	-132(%rbp), %eax	# node, tmp1040
	cltq
	leaq	0(,%rax,4), %rdx	#, D.15639
	movq	-88(%rbp), %rax	# max_hdr, tmp1041
	addq	%rdx, %rax	# D.15639, D.15640
	movl	(%rax), %eax	# *_605, D.15642
	cmpl	-124(%rbp), %eax	# loop_head, D.15642
	jne	.L104	#,
	.loc 1 899 0 is_stmt 0 discriminator 1
	movl	-132(%rbp), %eax	# node, tmp1042
	cmpl	-176(%rbp), %eax	# i, tmp1042
	je	.L104	#,
	.loc 1 902 0 is_stmt 1
	addl	$1, -168(%rbp)	#, tail
	movl	-168(%rbp), %eax	# tail, tmp1043
	cltq
	leaq	0(,%rax,4), %rdx	#, D.15639
	movq	-8(%rbp), %rax	# queue, tmp1044
	addq	%rax, %rdx	# tmp1044, D.15640
	movl	-132(%rbp), %eax	# node, tmp1045
	movl	%eax, (%rdx)	# tmp1045, *_610
	.loc 1 903 0
	movl	-132(%rbp), %eax	# node, node.128
	shrl	$6, %eax	#, D.15641
	movq	-40(%rbp), %rdx	# in_queue, tmp1046
	movl	%eax, %ecx	# D.15641, tmp1047
	addq	$2, %rcx	#, tmp1048
	movq	(%rdx,%rcx,8), %rdx	# in_queue_76->elms, D.15639
	movl	-132(%rbp), %ecx	# node, tmp1049
	andl	$63, %ecx	#, D.15642
	movl	$1, %esi	#, tmp1050
	salq	%cl, %rsi	# D.15642, D.15639
	movq	%rsi, %rcx	# D.15639, D.15639
	orq	%rdx, %rcx	# D.15639, D.15639
	movq	-40(%rbp), %rdx	# in_queue, tmp1051
	movl	%eax, %eax	# D.15641, tmp1052
	addq	$2, %rax	#, tmp1053
	movq	%rcx, (%rdx,%rax,8)	# D.15639, in_queue_76->elms
	.loc 1 905 0
	leaq	-180(%rbp), %rdx	#, tmp1054
	leaq	-184(%rbp), %rcx	#, tmp1055
	movl	-132(%rbp), %eax	# node, tmp1056
	movq	%rcx, %rsi	# tmp1055,
	movl	%eax, %edi	# tmp1056,
	call	too_large	#
	testl	%eax, %eax	# D.15642
	je	.L104	#,
	.loc 1 907 0
	movl	$1, -144(%rbp)	#, too_large_failure
	.loc 1 908 0
	jmp	.L101	#
.L104:
	.loc 1 892 0
	movq	-112(%rbp), %rax	# e, tmp1057
	movq	(%rax), %rax	# e_44->pred_next, tmp1058
	movq	%rax, -112(%rbp)	# tmp1058, e
.L102:
	.loc 1 892 0 is_stmt 0 discriminator 1
	cmpq	$0, -112(%rbp)	#, e
	jne	.L105	#,
.L101:
.LBE11:
	.loc 1 944 0 is_stmt 1
	jmp	.L106	#
.L113:
.LBB12:
	.loc 1 947 0
	addl	$1, -172(%rbp)	#, head
	movl	-172(%rbp), %eax	# head, tmp1059
	cltq
	leaq	0(,%rax,4), %rdx	#, D.15639
	movq	-8(%rbp), %rax	# queue, tmp1060
	addq	%rdx, %rax	# D.15639, D.15640
	movl	(%rax), %eax	# *_623, tmp1061
	movl	%eax, -128(%rbp)	# tmp1061, child
	.loc 1 949 0
	movq	basic_block_info(%rip), %rax	# basic_block_info, basic_block_info.129
	movl	-128(%rbp), %edx	# child, tmp1063
	movslq	%edx, %rdx	# tmp1063, tmp1062
	addq	$4, %rdx	#, tmp1064
	movq	(%rax,%rdx,8), %rax	# basic_block_info.129_625->data.bb, D.15645
	movq	32(%rax), %rax	# _626->pred, tmp1065
	movq	%rax, -104(%rbp)	# tmp1065, e
	jmp	.L107	#
.L111:
	.loc 1 951 0
	movq	-104(%rbp), %rax	# e, tmp1066
	movq	16(%rax), %rax	# e_45->src, D.15645
	movl	88(%rax), %eax	# _628->index, tmp1067
	movl	%eax, -132(%rbp)	# tmp1067, node
	.loc 1 955 0
	movq	-104(%rbp), %rax	# e, tmp1068
	movq	16(%rax), %rax	# e_45->src, D.15645
	cmpq	$entry_exit_blocks, %rax	#, D.15645
	je	.L108	#,
	.loc 1 956 0
	movl	-132(%rbp), %eax	# node, tmp1069
	cltq
	leaq	0(,%rax,4), %rdx	#, D.15639
	movq	-88(%rbp), %rax	# max_hdr, tmp1070
	addq	%rdx, %rax	# D.15639, D.15640
	movl	(%rax), %eax	# *_633, D.15642
	cmpl	-124(%rbp), %eax	# loop_head, D.15642
	je	.L109	#,
.L108:
	.loc 1 958 0
	movl	$-1, -168(%rbp)	#, tail
	.loc 1 959 0
	jmp	.L106	#
.L109:
	.loc 1 961 0
	movl	-132(%rbp), %eax	# node, node.130
	shrl	$6, %eax	#, D.15641
	movl	%eax, %edx	# D.15641, D.15641
	movq	-40(%rbp), %rax	# in_queue, tmp1071
	movl	%edx, %edx	# D.15641, tmp1072
	addq	$2, %rdx	#, tmp1073
	movq	(%rax,%rdx,8), %rdx	# in_queue_76->elms, D.15639
	movl	-132(%rbp), %eax	# node, tmp1074
	andl	$63, %eax	#, D.15642
	movl	%eax, %ecx	# D.15642, tmp1187
	shrq	%cl, %rdx	# tmp1187, D.15639
	movq	%rdx, %rax	# D.15639, D.15639
	andl	$1, %eax	#, D.15639
	testq	%rax, %rax	# D.15639
	jne	.L110	#,
	.loc 1 961 0 is_stmt 0 discriminator 1
	movl	-132(%rbp), %eax	# node, tmp1075
	cmpl	-176(%rbp), %eax	# i, tmp1075
	je	.L110	#,
	.loc 1 963 0 is_stmt 1
	addl	$1, -168(%rbp)	#, tail
	movl	-168(%rbp), %eax	# tail, tmp1076
	cltq
	leaq	0(,%rax,4), %rdx	#, D.15639
	movq	-8(%rbp), %rax	# queue, tmp1077
	addq	%rax, %rdx	# tmp1077, D.15640
	movl	-132(%rbp), %eax	# node, tmp1078
	movl	%eax, (%rdx)	# tmp1078, *_644
	.loc 1 964 0
	movl	-132(%rbp), %eax	# node, node.131
	shrl	$6, %eax	#, D.15641
	movq	-40(%rbp), %rdx	# in_queue, tmp1079
	movl	%eax, %ecx	# D.15641, tmp1080
	addq	$2, %rcx	#, tmp1081
	movq	(%rdx,%rcx,8), %rdx	# in_queue_76->elms, D.15639
	movl	-132(%rbp), %ecx	# node, tmp1082
	andl	$63, %ecx	#, D.15642
	movl	$1, %esi	#, tmp1083
	salq	%cl, %rsi	# D.15642, D.15639
	movq	%rsi, %rcx	# D.15639, D.15639
	orq	%rdx, %rcx	# D.15639, D.15639
	movq	-40(%rbp), %rdx	# in_queue, tmp1084
	movl	%eax, %eax	# D.15641, tmp1085
	addq	$2, %rax	#, tmp1086
	movq	%rcx, (%rdx,%rax,8)	# D.15639, in_queue_76->elms
	.loc 1 966 0
	leaq	-180(%rbp), %rdx	#, tmp1087
	leaq	-184(%rbp), %rcx	#, tmp1088
	movl	-132(%rbp), %eax	# node, tmp1089
	movq	%rcx, %rsi	# tmp1088,
	movl	%eax, %edi	# tmp1089,
	call	too_large	#
	testl	%eax, %eax	# D.15642
	je	.L110	#,
	.loc 1 968 0
	movl	$1, -144(%rbp)	#, too_large_failure
	.loc 1 969 0
	jmp	.L106	#
.L110:
	.loc 1 949 0
	movq	-104(%rbp), %rax	# e, tmp1090
	movq	(%rax), %rax	# e_45->pred_next, tmp1091
	movq	%rax, -104(%rbp)	# tmp1091, e
.L107:
	.loc 1 949 0 is_stmt 0 discriminator 1
	cmpq	$0, -104(%rbp)	#, e
	jne	.L111	#,
.L106:
.LBE12:
	.loc 1 944 0 is_stmt 1 discriminator 1
	movl	-172(%rbp), %eax	# head, tmp1092
	cmpl	-168(%rbp), %eax	# tail, tmp1092
	jge	.L112	#,
	.loc 1 944 0 is_stmt 0 discriminator 2
	cmpl	$0, -144(%rbp)	#, too_large_failure
	je	.L113	#,
.L112:
	.loc 1 975 0 is_stmt 1
	cmpl	$0, -168(%rbp)	#, tail
	js	.L87	#,
	.loc 1 975 0 is_stmt 0 discriminator 1
	cmpl	$0, -144(%rbp)	#, too_large_failure
	jne	.L87	#,
	.loc 1 978 0 is_stmt 1
	movl	-176(%rbp), %eax	# i, tmp1093
	cltq
	leaq	0(,%rax,4), %rdx	#, D.15639
	movq	-24(%rbp), %rax	# degree, tmp1094
	addq	%rdx, %rax	# D.15639, D.15640
	movl	$-1, (%rax)	#, *_657
	.loc 1 979 0
	movq	rgn_bb_table(%rip), %rax	# rgn_bb_table, rgn_bb_table.132
	movl	-156(%rbp), %edx	# idx, tmp1095
	movslq	%edx, %rdx	# tmp1095, D.15639
	salq	$2, %rdx	#, D.15639
	addq	%rax, %rdx	# rgn_bb_table.132, D.15640
	movl	-176(%rbp), %eax	# i, tmp1096
	movl	%eax, (%rdx)	# tmp1096, *_661
	.loc 1 980 0
	movq	rgn_table(%rip), %rax	# rgn_table, rgn_table.133
	movl	nr_regions(%rip), %edx	# nr_regions, nr_regions.134
	movslq	%edx, %rdx	# nr_regions.134, D.15639
	salq	$3, %rdx	#, D.15639
	addq	%rax, %rdx	# rgn_table.133, D.15651
	movl	-184(%rbp), %eax	# num_bbs, num_bbs.135
	movl	%eax, (%rdx)	# num_bbs.135, _666->rgn_nr_blocks
	.loc 1 981 0
	movq	rgn_table(%rip), %rax	# rgn_table, rgn_table.136
	movl	nr_regions(%rip), %edx	# nr_regions, nr_regions.137
	movslq	%edx, %rdx	# nr_regions.137, D.15639
	salq	$3, %rdx	#, D.15639
	leaq	(%rax,%rdx), %rcx	#, D.15651
	movl	-156(%rbp), %eax	# idx, idx.138
	leal	1(%rax), %edx	#, tmp1097
	movl	%edx, -156(%rbp)	# tmp1097, idx
	movl	%eax, 4(%rcx)	# idx.138, _672->rgn_blocks
	.loc 1 982 0
	movq	containing_rgn(%rip), %rax	# containing_rgn, containing_rgn.139
	movl	-176(%rbp), %edx	# i, tmp1098
	movslq	%edx, %rdx	# tmp1098, D.15639
	salq	$2, %rdx	#, D.15639
	addq	%rax, %rdx	# containing_rgn.139, D.15640
	movl	nr_regions(%rip), %eax	# nr_regions, nr_regions.140
	movl	%eax, (%rdx)	# nr_regions.140, *_678
	.loc 1 983 0
	movq	block_to_bb(%rip), %rax	# block_to_bb, block_to_bb.141
	movl	-176(%rbp), %edx	# i, tmp1099
	movslq	%edx, %rdx	# tmp1099, D.15639
	salq	$2, %rdx	#, D.15639
	addq	%rax, %rdx	# block_to_bb.141, D.15640
	movl	$0, -164(%rbp)	#, count
	movl	-164(%rbp), %eax	# count, tmp1100
	movl	%eax, (%rdx)	# tmp1100, *_683
	.loc 1 989 0
	jmp	.L114	#
.L120:
	.loc 1 991 0
	cmpl	$0, -172(%rbp)	#, head
	jns	.L115	#,
	.loc 1 992 0
	movl	-168(%rbp), %eax	# tail, tmp1101
	movl	%eax, -172(%rbp)	# tmp1101, head
.L115:
	.loc 1 993 0
	movl	-172(%rbp), %eax	# head, tmp1102
	cltq
	leaq	0(,%rax,4), %rdx	#, D.15639
	movq	-8(%rbp), %rax	# queue, tmp1103
	addq	%rdx, %rax	# D.15639, D.15640
	movl	(%rax), %eax	# *_688, tmp1104
	movl	%eax, -128(%rbp)	# tmp1104, child
	.loc 1 994 0
	movl	-128(%rbp), %eax	# child, tmp1105
	cltq
	leaq	0(,%rax,4), %rdx	#, D.15639
	movq	-24(%rbp), %rax	# degree, tmp1106
	addq	%rdx, %rax	# D.15639, D.15640
	movl	(%rax), %eax	# *_692, D.15642
	testl	%eax, %eax	# D.15642
	jne	.L116	#,
.LBB13:
	.loc 1 998 0
	movl	-128(%rbp), %eax	# child, tmp1107
	cltq
	leaq	0(,%rax,4), %rdx	#, D.15639
	movq	-24(%rbp), %rax	# degree, tmp1108
	addq	%rdx, %rax	# D.15639, D.15640
	movl	$-1, (%rax)	#, *_696
	.loc 1 999 0
	movq	rgn_bb_table(%rip), %rcx	# rgn_bb_table, rgn_bb_table.142
	movl	-156(%rbp), %eax	# idx, idx.143
	leal	1(%rax), %edx	#, tmp1109
	movl	%edx, -156(%rbp)	# tmp1109, idx
	cltq
	salq	$2, %rax	#, D.15639
	leaq	(%rcx,%rax), %rdx	#, D.15640
	movl	-128(%rbp), %eax	# child, tmp1110
	movl	%eax, (%rdx)	# tmp1110, *_702
	.loc 1 1000 0
	movq	block_to_bb(%rip), %rax	# block_to_bb, block_to_bb.144
	movl	-128(%rbp), %edx	# child, tmp1111
	movslq	%edx, %rdx	# tmp1111, D.15639
	salq	$2, %rdx	#, D.15639
	addq	%rax, %rdx	# block_to_bb.144, D.15640
	addl	$1, -164(%rbp)	#, count
	movl	-164(%rbp), %eax	# count, tmp1112
	movl	%eax, (%rdx)	# tmp1112, *_706
	.loc 1 1001 0
	movq	containing_rgn(%rip), %rax	# containing_rgn, containing_rgn.145
	movl	-128(%rbp), %edx	# child, tmp1113
	movslq	%edx, %rdx	# tmp1113, D.15639
	salq	$2, %rdx	#, D.15639
	addq	%rax, %rdx	# containing_rgn.145, D.15640
	movl	nr_regions(%rip), %eax	# nr_regions, nr_regions.146
	movl	%eax, (%rdx)	# nr_regions.146, *_711
	.loc 1 1002 0
	movl	-172(%rbp), %eax	# head, tmp1114
	cltq
	leaq	0(,%rax,4), %rdx	#, D.15639
	movq	-8(%rbp), %rax	# queue, tmp1115
	leaq	(%rdx,%rax), %rcx	#, D.15640
	movl	-168(%rbp), %eax	# tail, tail.147
	leal	-1(%rax), %edx	#, tmp1116
	movl	%edx, -168(%rbp)	# tmp1116, tail
	cltq
	leaq	0(,%rax,4), %rdx	#, D.15639
	movq	-8(%rbp), %rax	# queue, tmp1117
	addq	%rdx, %rax	# D.15639, D.15640
	movl	(%rax), %eax	# *_720, D.15642
	movl	%eax, (%rcx)	# D.15642, *_715
	.loc 1 1004 0
	movq	basic_block_info(%rip), %rax	# basic_block_info, basic_block_info.148
	movl	-128(%rbp), %edx	# child, tmp1119
	movslq	%edx, %rdx	# tmp1119, tmp1118
	addq	$4, %rdx	#, tmp1120
	movq	(%rax,%rdx,8), %rax	# basic_block_info.148_722->data.bb, D.15645
	movq	40(%rax), %rax	# _723->succ, tmp1121
	movq	%rax, -96(%rbp)	# tmp1121, e
	jmp	.L117	#
.L119:
	.loc 1 1007 0
	movq	-96(%rbp), %rax	# e, tmp1122
	movq	24(%rax), %rax	# e_46->dest, D.15645
	cmpq	$entry_exit_blocks+112, %rax	#, D.15645
	je	.L118	#,
	.loc 1 1008 0
	movq	-96(%rbp), %rax	# e, tmp1123
	movq	24(%rax), %rax	# e_46->dest, D.15645
	movl	88(%rax), %eax	# _726->index, D.15642
	cltq
	leaq	0(,%rax,4), %rdx	#, D.15639
	movq	-24(%rbp), %rax	# degree, tmp1124
	addq	%rdx, %rax	# D.15639, D.15640
	movl	(%rax), %edx	# *_730, D.15642
	subl	$1, %edx	#, D.15642
	movl	%edx, (%rax)	# D.15642, *_730
.L118:
	.loc 1 1006 0
	movq	-96(%rbp), %rax	# e, tmp1125
	movq	8(%rax), %rax	# e_46->succ_next, tmp1126
	movq	%rax, -96(%rbp)	# tmp1126, e
.L117:
	.loc 1 1004 0 discriminator 1
	cmpq	$0, -96(%rbp)	#, e
	jne	.L119	#,
.LBE13:
	jmp	.L114	#
.L116:
	.loc 1 1011 0
	subl	$1, -172(%rbp)	#, head
.L114:
	.loc 1 989 0 discriminator 1
	cmpl	$0, -168(%rbp)	#, tail
	jns	.L120	#,
	.loc 1 1013 0
	movl	nr_regions(%rip), %eax	# nr_regions, nr_regions.149
	addl	$1, %eax	#, nr_regions.150
	movl	%eax, nr_regions(%rip)	# nr_regions.150, nr_regions
.L87:
.LBE10:
	.loc 1 811 0
	addl	$1, -176(%rbp)	#, i
.L86:
	.loc 1 811 0 is_stmt 0 discriminator 1
	movl	n_basic_blocks(%rip), %eax	# n_basic_blocks, n_basic_blocks.151
	cmpl	%eax, -176(%rbp)	# n_basic_blocks.151, i
	jl	.L121	#,
	.loc 1 1017 0 is_stmt 1
	movq	-8(%rbp), %rax	# queue, tmp1127
	movq	%rax, %rdi	# tmp1127,
	call	free	#
.L84:
.LBE9:
	.loc 1 1022 0
	movl	$0, -176(%rbp)	#, i
	jmp	.L122	#
.L124:
	.loc 1 1023 0
	movl	-176(%rbp), %eax	# i, tmp1128
	cltq
	leaq	0(,%rax,4), %rdx	#, D.15639
	movq	-24(%rbp), %rax	# degree, tmp1129
	addq	%rdx, %rax	# D.15639, D.15640
	movl	(%rax), %eax	# *_742, D.15642
	testl	%eax, %eax	# D.15642
	js	.L123	#,
	.loc 1 1025 0
	movq	rgn_bb_table(%rip), %rax	# rgn_bb_table, rgn_bb_table.152
	movl	-156(%rbp), %edx	# idx, tmp1130
	movslq	%edx, %rdx	# tmp1130, D.15639
	salq	$2, %rdx	#, D.15639
	addq	%rax, %rdx	# rgn_bb_table.152, D.15640
	movl	-176(%rbp), %eax	# i, tmp1131
	movl	%eax, (%rdx)	# tmp1131, *_747
	.loc 1 1026 0
	movq	rgn_table(%rip), %rax	# rgn_table, rgn_table.153
	movl	nr_regions(%rip), %edx	# nr_regions, nr_regions.154
	movslq	%edx, %rdx	# nr_regions.154, D.15639
	salq	$3, %rdx	#, D.15639
	addq	%rdx, %rax	# D.15639, D.15651
	movl	$1, (%rax)	#, _752->rgn_nr_blocks
	.loc 1 1027 0
	movq	rgn_table(%rip), %rax	# rgn_table, rgn_table.155
	movl	nr_regions(%rip), %edx	# nr_regions, nr_regions.156
	movslq	%edx, %rdx	# nr_regions.156, D.15639
	salq	$3, %rdx	#, D.15639
	leaq	(%rax,%rdx), %rcx	#, D.15651
	movl	-156(%rbp), %eax	# idx, idx.157
	leal	1(%rax), %edx	#, tmp1132
	movl	%edx, -156(%rbp)	# tmp1132, idx
	movl	%eax, 4(%rcx)	# idx.157, _757->rgn_blocks
	.loc 1 1028 0
	movq	containing_rgn(%rip), %rax	# containing_rgn, containing_rgn.158
	movl	-176(%rbp), %edx	# i, tmp1133
	movslq	%edx, %rdx	# tmp1133, D.15639
	salq	$2, %rdx	#, D.15639
	leaq	(%rax,%rdx), %rcx	#, D.15640
	movl	nr_regions(%rip), %eax	# nr_regions, nr_regions.159
	leal	1(%rax), %edx	#, nr_regions.161
	movl	%edx, nr_regions(%rip)	# nr_regions.161, nr_regions
	movl	%eax, (%rcx)	# nr_regions.160, *_763
	.loc 1 1029 0
	movq	block_to_bb(%rip), %rax	# block_to_bb, block_to_bb.162
	movl	-176(%rbp), %edx	# i, tmp1134
	movslq	%edx, %rdx	# tmp1134, D.15639
	salq	$2, %rdx	#, D.15639
	addq	%rdx, %rax	# D.15639, D.15640
	movl	$0, (%rax)	#, *_770
.L123:
	.loc 1 1022 0
	addl	$1, -176(%rbp)	#, i
.L122:
	.loc 1 1022 0 is_stmt 0 discriminator 1
	movl	n_basic_blocks(%rip), %eax	# n_basic_blocks, n_basic_blocks.163
	cmpl	%eax, -176(%rbp)	# n_basic_blocks.163, i
	jl	.L124	#,
	.loc 1 1032 0 is_stmt 1
	movq	-88(%rbp), %rax	# max_hdr, tmp1135
	movq	%rax, %rdi	# tmp1135,
	call	free	#
	.loc 1 1033 0
	movq	-80(%rbp), %rax	# dfs_nr, tmp1136
	movq	%rax, %rdi	# tmp1136,
	call	free	#
	.loc 1 1034 0
	movq	-72(%rbp), %rax	# stack, tmp1137
	movq	%rax, %rdi	# tmp1137,
	call	free	#
	.loc 1 1035 0
	movq	-48(%rbp), %rax	# passed, tmp1138
	movq	%rax, %rdi	# tmp1138,
	call	free	#
	.loc 1 1036 0
	movq	-56(%rbp), %rax	# header, tmp1139
	movq	%rax, %rdi	# tmp1139,
	call	free	#
	.loc 1 1037 0
	movq	-64(%rbp), %rax	# inner, tmp1140
	movq	%rax, %rdi	# tmp1140,
	call	free	#
	.loc 1 1038 0
	movq	-40(%rbp), %rax	# in_queue, tmp1141
	movq	%rax, %rdi	# tmp1141,
	call	free	#
	.loc 1 1039 0
	movq	-32(%rbp), %rax	# in_stack, tmp1142
	movq	%rax, %rdi	# tmp1142,
	call	free	#
	.loc 1 1040 0
	leave
	.cfi_def_cfa 7, 8
	ret
	.cfi_endproc
.LFE9:
	.size	find_rgns, .-find_rgns
	.section	.rodata
.LC10:
	.string	";;  bb_prob(%d, %d) = %3d\n"
	.text
	.type	compute_dom_prob_ps, @function
compute_dom_prob_ps:
.LFB10:
	.loc 1 1050 0
	.cfi_startproc
	pushq	%rbp	#
	.cfi_def_cfa_offset 16
	.cfi_offset 6, -16
	movq	%rsp, %rbp	#,
	.cfi_def_cfa_register 6
	subq	$48, %rsp	#,
	movl	%edi, -36(%rbp)	# bb, bb
	.loc 1 1054 0
	movq	prob(%rip), %rax	# prob, prob.164
	movl	-36(%rbp), %edx	# bb, tmp393
	movslq	%edx, %rdx	# tmp393, D.15652
	salq	$2, %rdx	#, D.15652
	addq	%rax, %rdx	# prob.164, D.15653
	movl	.LC6(%rip), %eax	#, tmp394
	movl	%eax, (%rdx)	# tmp394, *_11
	.loc 1 1055 0
	cmpl	$0, -36(%rbp)	#, bb
	jne	.L126	#,
	.loc 1 1057 0
	movq	dom(%rip), %rax	# dom, dom.165
	movl	-36(%rbp), %edx	# bb, tmp395
	movslq	%edx, %rdx	# tmp395, D.15652
	salq	$3, %rdx	#, D.15652
	addq	%rdx, %rax	# D.15652, D.15654
	movq	(%rax), %rax	# *_15, D.15655
	movq	dom(%rip), %rdx	# dom, dom.166
	movl	-36(%rbp), %ecx	# bb, tmp396
	movslq	%ecx, %rcx	# tmp396, D.15652
	salq	$3, %rcx	#, D.15652
	addq	%rcx, %rdx	# D.15652, D.15654
	movq	(%rdx), %rdx	# *_20, D.15655
	movq	16(%rdx), %rdx	# _21->elms, D.15652
	orq	$1, %rdx	#, D.15652
	movq	%rdx, 16(%rax)	# D.15652, _16->elms
	.loc 1 1058 0
	movq	prob(%rip), %rax	# prob, prob.167
	movl	-36(%rbp), %edx	# bb, tmp397
	movslq	%edx, %rdx	# tmp397, D.15652
	salq	$2, %rdx	#, D.15652
	addq	%rax, %rdx	# prob.167, D.15653
	movl	.LC7(%rip), %eax	#, tmp398
	movl	%eax, (%rdx)	# tmp398, *_27
	.loc 1 1059 0
	jmp	.L125	#
.L126:
	.loc 1 1062 0
	movq	in_edges(%rip), %rax	# in_edges, in_edges.168
	movq	rgn_bb_table(%rip), %rdx	# rgn_bb_table, rgn_bb_table.169
	movl	current_blocks(%rip), %esi	# current_blocks, current_blocks.170
	movl	-36(%rbp), %ecx	# bb, tmp399
	addl	%esi, %ecx	# current_blocks.170, D.15656
	movslq	%ecx, %rcx	# D.15656, D.15652
	salq	$2, %rcx	#, D.15652
	addq	%rcx, %rdx	# D.15652, D.15657
	movl	(%rdx), %edx	# *_34, D.15656
	movslq	%edx, %rdx	# D.15656, D.15652
	salq	$2, %rdx	#, D.15652
	addq	%rdx, %rax	# D.15652, D.15657
	movl	(%rax), %eax	# *_38, tmp400
	movl	%eax, -28(%rbp)	# tmp400, nxt_in_edge
	movl	-28(%rbp), %eax	# nxt_in_edge, tmp401
	movl	%eax, -12(%rbp)	# tmp401, fst_in_edge
	.loc 1 1065 0
	movq	dom(%rip), %rax	# dom, dom.171
	movl	-36(%rbp), %edx	# bb, tmp402
	movslq	%edx, %rdx	# tmp402, D.15652
	salq	$3, %rdx	#, D.15652
	addq	%rdx, %rax	# D.15652, D.15654
	movq	(%rax), %rax	# *_44, D.15655
	movq	%rax, %rdi	# D.15655,
	call	sbitmap_ones	#
.L134:
	.loc 1 1069 0
	movq	edge_table(%rip), %rax	# edge_table, edge_table.172
	movl	-28(%rbp), %edx	# nxt_in_edge, tmp403
	movslq	%edx, %rdx	# tmp403, D.15652
	salq	$4, %rdx	#, D.15652
	addq	%rdx, %rax	# D.15652, D.15658
	movl	(%rax), %eax	# _49->from_block, tmp404
	movl	%eax, -8(%rbp)	# tmp404, pred
	.loc 1 1070 0
	movq	dom(%rip), %rax	# dom, dom.173
	movq	block_to_bb(%rip), %rdx	# block_to_bb, block_to_bb.174
	movl	-8(%rbp), %ecx	# pred, tmp405
	movslq	%ecx, %rcx	# tmp405, D.15652
	salq	$2, %rcx	#, D.15652
	addq	%rcx, %rdx	# D.15652, D.15657
	movl	(%rdx), %edx	# *_55, D.15656
	movslq	%edx, %rdx	# D.15656, D.15652
	salq	$3, %rdx	#, D.15652
	addq	%rdx, %rax	# D.15652, D.15654
	movq	(%rax), %rdx	# *_59, D.15655
	movq	dom(%rip), %rax	# dom, dom.175
	movl	-36(%rbp), %ecx	# bb, tmp406
	movslq	%ecx, %rcx	# tmp406, D.15652
	salq	$3, %rcx	#, D.15652
	addq	%rcx, %rax	# D.15652, D.15654
	movq	(%rax), %rcx	# *_64, D.15655
	movq	dom(%rip), %rax	# dom, dom.176
	movl	-36(%rbp), %esi	# bb, tmp407
	movslq	%esi, %rsi	# tmp407, D.15652
	salq	$3, %rsi	#, D.15652
	addq	%rsi, %rax	# D.15652, D.15654
	movq	(%rax), %rax	# *_69, D.15655
	movq	%rcx, %rsi	# D.15655,
	movq	%rax, %rdi	# D.15655,
	call	sbitmap_a_and_b	#
	.loc 1 1071 0
	movq	ancestor_edges(%rip), %rax	# ancestor_edges, ancestor_edges.177
	movq	block_to_bb(%rip), %rdx	# block_to_bb, block_to_bb.178
	movl	-8(%rbp), %ecx	# pred, tmp408
	movslq	%ecx, %rcx	# tmp408, D.15652
	salq	$2, %rcx	#, D.15652
	addq	%rcx, %rdx	# D.15652, D.15657
	movl	(%rdx), %edx	# *_75, D.15656
	movslq	%edx, %rdx	# D.15656, D.15652
	salq	$3, %rdx	#, D.15652
	addq	%rdx, %rax	# D.15652, D.15659
	movq	(%rax), %rdx	# *_79, D.15655
	movq	ancestor_edges(%rip), %rax	# ancestor_edges, ancestor_edges.179
	movl	-36(%rbp), %ecx	# bb, tmp409
	movslq	%ecx, %rcx	# tmp409, D.15652
	salq	$3, %rcx	#, D.15652
	addq	%rcx, %rax	# D.15652, D.15659
	movq	(%rax), %rcx	# *_84, D.15655
	movq	ancestor_edges(%rip), %rax	# ancestor_edges, ancestor_edges.180
	movl	-36(%rbp), %esi	# bb, tmp410
	movslq	%esi, %rsi	# tmp410, D.15652
	salq	$3, %rsi	#, D.15652
	addq	%rsi, %rax	# D.15652, D.15659
	movq	(%rax), %rax	# *_89, D.15655
	movq	%rcx, %rsi	# D.15655,
	movq	%rax, %rdi	# D.15655,
	call	sbitmap_a_or_b	#
	.loc 1 1073 0
	movq	ancestor_edges(%rip), %rax	# ancestor_edges, ancestor_edges.181
	movl	-36(%rbp), %edx	# bb, tmp411
	movslq	%edx, %rdx	# tmp411, D.15652
	salq	$3, %rdx	#, D.15652
	addq	%rdx, %rax	# D.15652, D.15659
	movq	(%rax), %rdx	# *_94, D.15655
	movq	edge_to_bit(%rip), %rax	# edge_to_bit, edge_to_bit.182
	movl	-28(%rbp), %ecx	# nxt_in_edge, tmp412
	movslq	%ecx, %rcx	# tmp412, D.15652
	salq	$2, %rcx	#, D.15652
	addq	%rcx, %rax	# D.15652, D.15657
	movl	(%rax), %eax	# *_99, D.15656
	shrl	$6, %eax	#, D.15660
	movq	ancestor_edges(%rip), %rcx	# ancestor_edges, ancestor_edges.183
	movl	-36(%rbp), %esi	# bb, tmp413
	movslq	%esi, %rsi	# tmp413, D.15652
	salq	$3, %rsi	#, D.15652
	addq	%rsi, %rcx	# D.15652, D.15659
	movq	(%rcx), %rcx	# *_106, D.15655
	movl	%eax, %esi	# D.15660, tmp414
	addq	$2, %rsi	#, tmp415
	movq	(%rcx,%rsi,8), %rsi	# _107->elms, D.15652
	movq	edge_to_bit(%rip), %rcx	# edge_to_bit, edge_to_bit.184
	movl	-28(%rbp), %edi	# nxt_in_edge, tmp416
	movslq	%edi, %rdi	# tmp416, D.15652
	salq	$2, %rdi	#, D.15652
	addq	%rdi, %rcx	# D.15652, D.15657
	movl	(%rcx), %ecx	# *_112, D.15656
	andl	$63, %ecx	#, D.15656
	movl	$1, %edi	#, tmp417
	salq	%cl, %rdi	# D.15656, D.15652
	movq	%rdi, %rcx	# D.15652, D.15652
	orq	%rsi, %rcx	# D.15652, D.15652
	movl	%eax, %eax	# D.15660, tmp418
	addq	$2, %rax	#, tmp419
	movq	%rcx, (%rdx,%rax,8)	# D.15652, _95->elms
	.loc 1 1075 0
	movl	$1, -20(%rbp)	#, nr_out_edges
	.loc 1 1076 0
	movl	$0, -16(%rbp)	#, nr_rgn_out_edges
	.loc 1 1077 0
	movq	out_edges(%rip), %rax	# out_edges, out_edges.185
	movl	-8(%rbp), %edx	# pred, tmp420
	movslq	%edx, %rdx	# tmp420, D.15652
	salq	$2, %rdx	#, D.15652
	addq	%rdx, %rax	# D.15652, D.15657
	movl	(%rax), %eax	# *_122, tmp421
	movl	%eax, -4(%rbp)	# tmp421, fst_out_edge
	.loc 1 1078 0
	movq	edge_table(%rip), %rax	# edge_table, edge_table.186
	movl	-4(%rbp), %edx	# fst_out_edge, tmp422
	movslq	%edx, %rdx	# tmp422, D.15652
	salq	$4, %rdx	#, D.15652
	addq	%rdx, %rax	# D.15652, D.15658
	movl	12(%rax), %eax	# _127->next_out, tmp423
	movl	%eax, -24(%rbp)	# tmp423, nxt_out_edge
	.loc 1 1080 0
	movq	pot_split(%rip), %rax	# pot_split, pot_split.187
	movq	block_to_bb(%rip), %rdx	# block_to_bb, block_to_bb.188
	movl	-8(%rbp), %ecx	# pred, tmp424
	movslq	%ecx, %rcx	# tmp424, D.15652
	salq	$2, %rcx	#, D.15652
	addq	%rcx, %rdx	# D.15652, D.15657
	movl	(%rdx), %edx	# *_133, D.15656
	movslq	%edx, %rdx	# D.15656, D.15652
	salq	$3, %rdx	#, D.15652
	addq	%rdx, %rax	# D.15652, D.15659
	movq	(%rax), %rdx	# *_137, D.15655
	movq	pot_split(%rip), %rax	# pot_split, pot_split.189
	movl	-36(%rbp), %ecx	# bb, tmp425
	movslq	%ecx, %rcx	# tmp425, D.15652
	salq	$3, %rcx	#, D.15652
	addq	%rcx, %rax	# D.15652, D.15659
	movq	(%rax), %rcx	# *_142, D.15655
	movq	pot_split(%rip), %rax	# pot_split, pot_split.190
	movl	-36(%rbp), %esi	# bb, tmp426
	movslq	%esi, %rsi	# tmp426, D.15652
	salq	$3, %rsi	#, D.15652
	addq	%rsi, %rax	# D.15652, D.15659
	movq	(%rax), %rax	# *_147, D.15655
	movq	%rcx, %rsi	# D.15655,
	movq	%rax, %rdi	# D.15655,
	call	sbitmap_a_or_b	#
	.loc 1 1082 0
	movq	pot_split(%rip), %rax	# pot_split, pot_split.191
	movl	-36(%rbp), %edx	# bb, tmp427
	movslq	%edx, %rdx	# tmp427, D.15652
	salq	$3, %rdx	#, D.15652
	addq	%rdx, %rax	# D.15652, D.15659
	movq	(%rax), %rdx	# *_152, D.15655
	movq	edge_to_bit(%rip), %rax	# edge_to_bit, edge_to_bit.192
	movl	-4(%rbp), %ecx	# fst_out_edge, tmp428
	movslq	%ecx, %rcx	# tmp428, D.15652
	salq	$2, %rcx	#, D.15652
	addq	%rcx, %rax	# D.15652, D.15657
	movl	(%rax), %eax	# *_157, D.15656
	shrl	$6, %eax	#, D.15660
	movq	pot_split(%rip), %rcx	# pot_split, pot_split.193
	movl	-36(%rbp), %esi	# bb, tmp429
	movslq	%esi, %rsi	# tmp429, D.15652
	salq	$3, %rsi	#, D.15652
	addq	%rsi, %rcx	# D.15652, D.15659
	movq	(%rcx), %rcx	# *_164, D.15655
	movl	%eax, %esi	# D.15660, tmp430
	addq	$2, %rsi	#, tmp431
	movq	(%rcx,%rsi,8), %rsi	# _165->elms, D.15652
	movq	edge_to_bit(%rip), %rcx	# edge_to_bit, edge_to_bit.194
	movl	-4(%rbp), %edi	# fst_out_edge, tmp432
	movslq	%edi, %rdi	# tmp432, D.15652
	salq	$2, %rdi	#, D.15652
	addq	%rdi, %rcx	# D.15652, D.15657
	movl	(%rcx), %ecx	# *_170, D.15656
	andl	$63, %ecx	#, D.15656
	movl	$1, %edi	#, tmp433
	salq	%cl, %rdi	# D.15656, D.15652
	movq	%rdi, %rcx	# D.15652, D.15652
	orq	%rsi, %rcx	# D.15652, D.15652
	movl	%eax, %eax	# D.15660, tmp434
	addq	$2, %rax	#, tmp435
	movq	%rcx, (%rdx,%rax,8)	# D.15652, _153->elms
	.loc 1 1085 0
	movq	containing_rgn(%rip), %rax	# containing_rgn, containing_rgn.195
	movq	edge_table(%rip), %rdx	# edge_table, edge_table.196
	movl	-4(%rbp), %ecx	# fst_out_edge, tmp436
	movslq	%ecx, %rcx	# tmp436, D.15652
	salq	$4, %rcx	#, D.15652
	addq	%rcx, %rdx	# D.15652, D.15658
	movl	4(%rdx), %edx	# _179->to_block, D.15656
	movslq	%edx, %rdx	# D.15656, D.15652
	salq	$2, %rdx	#, D.15652
	addq	%rdx, %rax	# D.15652, D.15657
	movl	(%rax), %edx	# *_183, D.15656
	.loc 1 1086 0
	movq	containing_rgn(%rip), %rax	# containing_rgn, containing_rgn.197
	movq	rgn_bb_table(%rip), %rcx	# rgn_bb_table, rgn_bb_table.198
	movl	current_blocks(%rip), %edi	# current_blocks, current_blocks.199
	movl	-36(%rbp), %esi	# bb, tmp437
	addl	%edi, %esi	# current_blocks.199, D.15656
	movslq	%esi, %rsi	# D.15656, D.15652
	salq	$2, %rsi	#, D.15652
	addq	%rsi, %rcx	# D.15652, D.15657
	movl	(%rcx), %ecx	# *_191, D.15656
	movslq	%ecx, %rcx	# D.15656, D.15652
	salq	$2, %rcx	#, D.15652
	addq	%rcx, %rax	# D.15652, D.15657
	movl	(%rax), %eax	# *_195, D.15656
	.loc 1 1085 0
	cmpl	%eax, %edx	# D.15656, D.15656
	je	.L128	#,
	.loc 1 1087 0
	addl	$1, -16(%rbp)	#, nr_rgn_out_edges
	.loc 1 1089 0
	jmp	.L129	#
.L128:
	jmp	.L129	#
.L131:
	.loc 1 1091 0
	addl	$1, -20(%rbp)	#, nr_out_edges
	.loc 1 1093 0
	movq	containing_rgn(%rip), %rax	# containing_rgn, containing_rgn.200
	movq	edge_table(%rip), %rdx	# edge_table, edge_table.201
	movl	-24(%rbp), %ecx	# nxt_out_edge, tmp438
	movslq	%ecx, %rcx	# tmp438, D.15652
	salq	$4, %rcx	#, D.15652
	addq	%rcx, %rdx	# D.15652, D.15658
	movl	4(%rdx), %edx	# _203->to_block, D.15656
	movslq	%edx, %rdx	# D.15656, D.15652
	salq	$2, %rdx	#, D.15652
	addq	%rdx, %rax	# D.15652, D.15657
	movl	(%rax), %edx	# *_207, D.15656
	.loc 1 1094 0
	movq	containing_rgn(%rip), %rax	# containing_rgn, containing_rgn.202
	movq	rgn_bb_table(%rip), %rcx	# rgn_bb_table, rgn_bb_table.203
	movl	current_blocks(%rip), %edi	# current_blocks, current_blocks.204
	movl	-36(%rbp), %esi	# bb, tmp439
	addl	%edi, %esi	# current_blocks.204, D.15656
	movslq	%esi, %rsi	# D.15656, D.15652
	salq	$2, %rsi	#, D.15652
	addq	%rsi, %rcx	# D.15652, D.15657
	movl	(%rcx), %ecx	# *_215, D.15656
	movslq	%ecx, %rcx	# D.15656, D.15652
	salq	$2, %rcx	#, D.15652
	addq	%rcx, %rax	# D.15652, D.15657
	movl	(%rax), %eax	# *_219, D.15656
	.loc 1 1093 0
	cmpl	%eax, %edx	# D.15656, D.15656
	je	.L130	#,
	.loc 1 1095 0
	addl	$1, -16(%rbp)	#, nr_rgn_out_edges
.L130:
	.loc 1 1096 0
	movq	pot_split(%rip), %rax	# pot_split, pot_split.205
	movl	-36(%rbp), %edx	# bb, tmp440
	movslq	%edx, %rdx	# tmp440, D.15652
	salq	$3, %rdx	#, D.15652
	addq	%rdx, %rax	# D.15652, D.15659
	movq	(%rax), %rdx	# *_225, D.15655
	movq	edge_to_bit(%rip), %rax	# edge_to_bit, edge_to_bit.206
	movl	-24(%rbp), %ecx	# nxt_out_edge, tmp441
	movslq	%ecx, %rcx	# tmp441, D.15652
	salq	$2, %rcx	#, D.15652
	addq	%rcx, %rax	# D.15652, D.15657
	movl	(%rax), %eax	# *_230, D.15656
	shrl	$6, %eax	#, D.15660
	movq	pot_split(%rip), %rcx	# pot_split, pot_split.207
	movl	-36(%rbp), %esi	# bb, tmp442
	movslq	%esi, %rsi	# tmp442, D.15652
	salq	$3, %rsi	#, D.15652
	addq	%rsi, %rcx	# D.15652, D.15659
	movq	(%rcx), %rcx	# *_237, D.15655
	movl	%eax, %esi	# D.15660, tmp443
	addq	$2, %rsi	#, tmp444
	movq	(%rcx,%rsi,8), %rsi	# _238->elms, D.15652
	movq	edge_to_bit(%rip), %rcx	# edge_to_bit, edge_to_bit.208
	movl	-24(%rbp), %edi	# nxt_out_edge, tmp445
	movslq	%edi, %rdi	# tmp445, D.15652
	salq	$2, %rdi	#, D.15652
	addq	%rdi, %rcx	# D.15652, D.15657
	movl	(%rcx), %ecx	# *_243, D.15656
	andl	$63, %ecx	#, D.15656
	movl	$1, %edi	#, tmp446
	salq	%cl, %rdi	# D.15656, D.15652
	movq	%rdi, %rcx	# D.15652, D.15652
	orq	%rsi, %rcx	# D.15652, D.15652
	movl	%eax, %eax	# D.15660, tmp447
	addq	$2, %rax	#, tmp448
	movq	%rcx, (%rdx,%rax,8)	# D.15652, _226->elms
	.loc 1 1097 0
	movq	edge_table(%rip), %rax	# edge_table, edge_table.209
	movl	-24(%rbp), %edx	# nxt_out_edge, tmp449
	movslq	%edx, %rdx	# tmp449, D.15652
	salq	$4, %rdx	#, D.15652
	addq	%rdx, %rax	# D.15652, D.15658
	movl	12(%rax), %eax	# _251->next_out, tmp450
	movl	%eax, -24(%rbp)	# tmp450, nxt_out_edge
.L129:
	.loc 1 1089 0 discriminator 1
	movl	-4(%rbp), %eax	# fst_out_edge, tmp451
	cmpl	-24(%rbp), %eax	# nxt_out_edge, tmp451
	jne	.L131	#,
	.loc 1 1104 0
	movl	-16(%rbp), %eax	# nr_rgn_out_edges, tmp452
	subl	%eax, -20(%rbp)	# tmp452, nr_out_edges
	.loc 1 1105 0
	cmpl	$0, -16(%rbp)	#, nr_rgn_out_edges
	jle	.L132	#,
	.loc 1 1106 0
	movq	prob(%rip), %rax	# prob, prob.210
	movl	-36(%rbp), %edx	# bb, tmp453
	movslq	%edx, %rdx	# tmp453, D.15652
	salq	$2, %rdx	#, D.15652
	addq	%rdx, %rax	# D.15652, D.15653
	movq	prob(%rip), %rdx	# prob, prob.211
	movl	-36(%rbp), %ecx	# bb, tmp454
	movslq	%ecx, %rcx	# tmp454, D.15652
	salq	$2, %rcx	#, D.15652
	addq	%rcx, %rdx	# D.15652, D.15653
	movss	(%rdx), %xmm0	# *_261, D.15661
	unpcklps	%xmm0, %xmm0	# D.15661, D.15661
	cvtps2pd	%xmm0, %xmm1	# D.15661, D.15662
	movq	prob(%rip), %rdx	# prob, prob.212
	movq	block_to_bb(%rip), %rcx	# block_to_bb, block_to_bb.213
	movl	-8(%rbp), %esi	# pred, tmp455
	movslq	%esi, %rsi	# tmp455, D.15652
	salq	$2, %rsi	#, D.15652
	addq	%rsi, %rcx	# D.15652, D.15657
	movl	(%rcx), %ecx	# *_268, D.15656
	movslq	%ecx, %rcx	# D.15656, D.15652
	salq	$2, %rcx	#, D.15652
	addq	%rcx, %rdx	# D.15652, D.15653
	movss	(%rdx), %xmm0	# *_272, D.15661
	unpcklps	%xmm0, %xmm0	# D.15661, D.15661
	cvtps2pd	%xmm0, %xmm0	# D.15661, D.15662
	movsd	.LC8(%rip), %xmm2	#, tmp456
	mulsd	%xmm2, %xmm0	# tmp456, D.15662
	cvtsi2sd	-20(%rbp), %xmm2	# nr_out_edges, D.15662
	divsd	%xmm2, %xmm0	# D.15662, D.15662
	addsd	%xmm1, %xmm0	# D.15662, D.15662
	unpcklpd	%xmm0, %xmm0	# D.15662
	cvtpd2ps	%xmm0, %xmm0	# D.15662, D.15661
	movss	%xmm0, (%rax)	# D.15661, *_257
	jmp	.L133	#
.L132:
	.loc 1 1108 0
	movq	prob(%rip), %rax	# prob, prob.214
	movl	-36(%rbp), %edx	# bb, tmp457
	movslq	%edx, %rdx	# tmp457, D.15652
	salq	$2, %rdx	#, D.15652
	addq	%rdx, %rax	# D.15652, D.15653
	movq	prob(%rip), %rdx	# prob, prob.215
	movl	-36(%rbp), %ecx	# bb, tmp458
	movslq	%ecx, %rcx	# tmp458, D.15652
	salq	$2, %rcx	#, D.15652
	addq	%rcx, %rdx	# D.15652, D.15653
	movss	(%rdx), %xmm2	# *_287, D.15661
	movq	prob(%rip), %rdx	# prob, prob.216
	movq	block_to_bb(%rip), %rcx	# block_to_bb, block_to_bb.217
	movl	-8(%rbp), %esi	# pred, tmp459
	movslq	%esi, %rsi	# tmp459, D.15652
	salq	$2, %rsi	#, D.15652
	addq	%rsi, %rcx	# D.15652, D.15657
	movl	(%rcx), %ecx	# *_293, D.15656
	movslq	%ecx, %rcx	# D.15656, D.15652
	salq	$2, %rcx	#, D.15652
	addq	%rcx, %rdx	# D.15652, D.15653
	movss	(%rdx), %xmm1	# *_297, D.15661
	cvtsi2ss	-20(%rbp), %xmm0	# nr_out_edges, D.15661
	divss	%xmm0, %xmm1	# D.15661, D.15661
	movaps	%xmm1, %xmm0	# D.15661, D.15661
	addss	%xmm2, %xmm0	# D.15661, D.15661
	movss	%xmm0, (%rax)	# D.15661, *_283
.L133:
	.loc 1 1109 0
	movq	edge_table(%rip), %rax	# edge_table, edge_table.218
	movl	-28(%rbp), %edx	# nxt_in_edge, tmp460
	movslq	%edx, %rdx	# tmp460, D.15652
	salq	$4, %rdx	#, D.15652
	addq	%rdx, %rax	# D.15652, D.15658
	movl	8(%rax), %eax	# _305->next_in, tmp461
	movl	%eax, -28(%rbp)	# tmp461, nxt_in_edge
	.loc 1 1111 0
	movl	-12(%rbp), %eax	# fst_in_edge, tmp462
	cmpl	-28(%rbp), %eax	# nxt_in_edge, tmp462
	jne	.L134	#,
	.loc 1 1113 0
	movq	dom(%rip), %rax	# dom, dom.219
	movl	-36(%rbp), %edx	# bb, tmp463
	movslq	%edx, %rdx	# tmp463, D.15652
	salq	$3, %rdx	#, D.15652
	addq	%rdx, %rax	# D.15652, D.15654
	movq	(%rax), %rdx	# *_310, D.15655
	movl	-36(%rbp), %eax	# bb, bb.220
	shrl	$6, %eax	#, D.15660
	movq	dom(%rip), %rcx	# dom, dom.221
	movl	-36(%rbp), %esi	# bb, tmp464
	movslq	%esi, %rsi	# tmp464, D.15652
	salq	$3, %rsi	#, D.15652
	addq	%rsi, %rcx	# D.15652, D.15654
	movq	(%rcx), %rcx	# *_317, D.15655
	movl	%eax, %esi	# D.15660, tmp465
	addq	$2, %rsi	#, tmp466
	movq	(%rcx,%rsi,8), %rsi	# _318->elms, D.15652
	movl	-36(%rbp), %ecx	# bb, tmp467
	andl	$63, %ecx	#, D.15656
	movl	$1, %edi	#, tmp468
	salq	%cl, %rdi	# D.15656, D.15652
	movq	%rdi, %rcx	# D.15652, D.15652
	orq	%rsi, %rcx	# D.15652, D.15652
	movl	%eax, %eax	# D.15660, tmp469
	addq	$2, %rax	#, tmp470
	movq	%rcx, (%rdx,%rax,8)	# D.15652, _311->elms
	.loc 1 1114 0
	movq	ancestor_edges(%rip), %rax	# ancestor_edges, ancestor_edges.222
	movl	-36(%rbp), %edx	# bb, tmp471
	movslq	%edx, %rdx	# tmp471, D.15652
	salq	$3, %rdx	#, D.15652
	addq	%rdx, %rax	# D.15652, D.15659
	movq	(%rax), %rdx	# *_326, D.15655
	movq	pot_split(%rip), %rax	# pot_split, pot_split.223
	movl	-36(%rbp), %ecx	# bb, tmp472
	movslq	%ecx, %rcx	# tmp472, D.15652
	salq	$3, %rcx	#, D.15652
	addq	%rcx, %rax	# D.15652, D.15659
	movq	(%rax), %rcx	# *_331, D.15655
	movq	pot_split(%rip), %rax	# pot_split, pot_split.224
	movl	-36(%rbp), %esi	# bb, tmp473
	movslq	%esi, %rsi	# tmp473, D.15652
	salq	$3, %rsi	#, D.15652
	addq	%rsi, %rax	# D.15652, D.15659
	movq	(%rax), %rax	# *_336, D.15655
	movq	%rcx, %rsi	# D.15655,
	movq	%rax, %rdi	# D.15655,
	call	sbitmap_difference	#
	.loc 1 1116 0
	movl	sched_verbose(%rip), %eax	# sched_verbose, sched_verbose.225
	cmpl	$1, %eax	#, sched_verbose.225
	jle	.L125	#,
	.loc 1 1118 0
	movq	prob(%rip), %rax	# prob, prob.226
	movl	-36(%rbp), %edx	# bb, tmp474
	movslq	%edx, %rdx	# tmp474, D.15652
	salq	$2, %rdx	#, D.15652
	addq	%rdx, %rax	# D.15652, D.15653
	movss	(%rax), %xmm0	# *_342, D.15661
	unpcklps	%xmm0, %xmm0	# D.15661, D.15661
	cvtps2pd	%xmm0, %xmm0	# D.15661, D.15662
	movsd	.LC9(%rip), %xmm1	#, tmp475
	mulsd	%xmm1, %xmm0	# tmp475, D.15662
	.loc 1 1117 0
	cvttsd2si	%xmm0, %esi	# D.15662, D.15656
	movq	rgn_bb_table(%rip), %rax	# rgn_bb_table, rgn_bb_table.227
	movl	current_blocks(%rip), %ecx	# current_blocks, current_blocks.228
	movl	-36(%rbp), %edx	# bb, tmp476
	addl	%ecx, %edx	# current_blocks.228, D.15656
	movslq	%edx, %rdx	# D.15656, D.15652
	salq	$2, %rdx	#, D.15652
	addq	%rdx, %rax	# D.15652, D.15657
	movl	(%rax), %ecx	# *_352, D.15656
	movq	sched_dump(%rip), %rax	# sched_dump, sched_dump.229
	movl	-36(%rbp), %edx	# bb, tmp477
	movl	%esi, %r8d	# D.15656,
	movl	$.LC10, %esi	#,
	movq	%rax, %rdi	# sched_dump.229,
	movl	$0, %eax	#,
	call	fprintf	#
.L125:
	.loc 1 1119 0
	leave
	.cfi_def_cfa 7, 8
	ret
	.cfi_endproc
.LFE10:
	.size	compute_dom_prob_ps, .-compute_dom_prob_ps
	.type	split_edges, @function
split_edges:
.LFB11:
	.loc 1 1131 0
	.cfi_startproc
	pushq	%rbp	#
	.cfi_def_cfa_offset 16
	.cfi_offset 6, -16
	movq	%rsp, %rbp	#,
	.cfi_def_cfa_register 6
	subq	$32, %rsp	#,
	movl	%edi, -20(%rbp)	# bb_src, bb_src
	movl	%esi, -24(%rbp)	# bb_trg, bb_trg
	movq	%rdx, -32(%rbp)	# bl, bl
	.loc 1 1132 0
	movq	pot_split(%rip), %rax	# pot_split, pot_split.230
	movl	-20(%rbp), %edx	# bb_src, tmp75
	movslq	%edx, %rdx	# tmp75, D.15664
	salq	$3, %rdx	#, D.15664
	addq	%rdx, %rax	# D.15664, D.15665
	movq	(%rax), %rax	# *_5, D.15666
	movl	(%rax), %eax	# _6->n_bits, D.15667
	movl	%eax, %edi	# D.15667,
	call	sbitmap_alloc	#
	movq	%rax, -8(%rbp)	# tmp76, src
	.loc 1 1133 0
	movq	pot_split(%rip), %rax	# pot_split, pot_split.231
	movl	-20(%rbp), %edx	# bb_src, tmp77
	movslq	%edx, %rdx	# tmp77, D.15664
	salq	$3, %rdx	#, D.15664
	addq	%rdx, %rax	# D.15664, D.15665
	movq	(%rax), %rdx	# *_12, D.15666
	movq	-8(%rbp), %rax	# src, tmp78
	movq	%rdx, %rsi	# D.15666,
	movq	%rax, %rdi	# tmp78,
	call	sbitmap_copy	#
	.loc 1 1135 0
	movq	pot_split(%rip), %rax	# pot_split, pot_split.232
	movl	-24(%rbp), %edx	# bb_trg, tmp79
	movslq	%edx, %rdx	# tmp79, D.15664
	salq	$3, %rdx	#, D.15664
	addq	%rdx, %rax	# D.15664, D.15665
	movq	(%rax), %rdx	# *_18, D.15666
	movq	-8(%rbp), %rcx	# src, tmp80
	movq	-8(%rbp), %rax	# src, tmp81
	movq	%rcx, %rsi	# tmp80,
	movq	%rax, %rdi	# tmp81,
	call	sbitmap_difference	#
	.loc 1 1136 0
	movq	-32(%rbp), %rdx	# bl, tmp82
	movq	-8(%rbp), %rax	# src, tmp83
	movq	%rdx, %rsi	# tmp82,
	movq	%rax, %rdi	# tmp83,
	call	extract_bitlst	#
	.loc 1 1137 0
	movq	-8(%rbp), %rax	# src, tmp84
	movq	%rax, %rdi	# tmp84,
	call	free	#
	.loc 1 1138 0
	leave
	.cfi_def_cfa 7, 8
	ret
	.cfi_endproc
.LFE11:
	.size	split_edges, .-split_edges
	.type	compute_trg_info, @function
compute_trg_info:
.LFB12:
	.loc 1 1147 0
	.cfi_startproc
	pushq	%rbp	#
	.cfi_def_cfa_offset 16
	.cfi_offset 6, -16
	movq	%rsp, %rbp	#,
	.cfi_def_cfa_register 6
	pushq	%rbx	#
	subq	$88, %rsp	#,
	.cfi_offset 3, -24
	movl	%edi, -84(%rbp)	# trg, trg
	.loc 1 1154 0
	movq	candidate_table(%rip), %rcx	# candidate_table, candidate_table.233
	movl	-84(%rbp), %eax	# trg, tmp206
	movslq	%eax, %rdx	# tmp206, D.15668
	movq	%rdx, %rax	# D.15668, tmp207
	salq	$2, %rax	#, tmp207
	addq	%rdx, %rax	# D.15668, tmp207
	salq	$3, %rax	#, tmp208
	addq	%rcx, %rax	# candidate_table.233, tmp209
	movq	%rax, -48(%rbp)	# tmp209, sp
	.loc 1 1155 0
	movq	-48(%rbp), %rax	# sp, tmp210
	movb	$1, (%rax)	#, sp_13->is_valid
	.loc 1 1156 0
	movq	-48(%rbp), %rax	# sp, tmp211
	movb	$0, 1(%rax)	#, sp_13->is_speculative
	.loc 1 1157 0
	movq	-48(%rbp), %rax	# sp, tmp212
	movl	$100, 4(%rax)	#, sp_13->src_prob
	.loc 1 1159 0
	movl	-84(%rbp), %eax	# trg, tmp216
	addl	$1, %eax	#, tmp215
	movl	%eax, -72(%rbp)	# tmp215, i
	jmp	.L137	#
.L153:
	.loc 1 1161 0
	movq	candidate_table(%rip), %rcx	# candidate_table, candidate_table.234
	movl	-72(%rbp), %eax	# i, tmp217
	movslq	%eax, %rdx	# tmp217, D.15668
	movq	%rdx, %rax	# D.15668, tmp218
	salq	$2, %rax	#, tmp218
	addq	%rdx, %rax	# D.15668, tmp218
	salq	$3, %rax	#, tmp219
	addq	%rcx, %rax	# candidate_table.234, tmp220
	movq	%rax, -48(%rbp)	# tmp220, sp
	.loc 1 1163 0
	movq	dom(%rip), %rax	# dom, dom.235
	movl	-72(%rbp), %edx	# i, tmp221
	movslq	%edx, %rdx	# tmp221, D.15668
	salq	$3, %rdx	#, D.15668
	addq	%rdx, %rax	# D.15668, D.15669
	movq	(%rax), %rax	# *_23, D.15670
	movl	-84(%rbp), %edx	# trg, trg.236
	shrl	$6, %edx	#, D.15671
	movl	%edx, %edx	# D.15671, tmp222
	addq	$2, %rdx	#, tmp223
	movq	(%rax,%rdx,8), %rdx	# _24->elms, D.15668
	movl	-84(%rbp), %eax	# trg, tmp224
	andl	$63, %eax	#, D.15672
	movl	%eax, %ecx	# D.15672, tmp282
	shrq	%cl, %rdx	# tmp282, D.15668
	movq	%rdx, %rax	# D.15668, D.15668
	andl	$1, %eax	#, D.15673
	movl	%eax, %edx	# D.15673, D.15673
	movq	-48(%rbp), %rax	# sp, tmp225
	movb	%dl, (%rax)	# D.15673, sp_19->is_valid
	.loc 1 1164 0
	movq	-48(%rbp), %rax	# sp, tmp226
	movzbl	(%rax), %eax	# sp_19->is_valid, D.15673
	testb	%al, %al	# D.15673
	je	.L138	#,
	.loc 1 1166 0
	movq	prob(%rip), %rax	# prob, prob.237
	movl	-72(%rbp), %edx	# i, tmp227
	movslq	%edx, %rdx	# tmp227, D.15668
	salq	$2, %rdx	#, D.15668
	addq	%rdx, %rax	# D.15668, D.15674
	movss	(%rax), %xmm0	# *_36, D.15675
	movq	prob(%rip), %rax	# prob, prob.238
	movl	-84(%rbp), %edx	# trg, tmp228
	movslq	%edx, %rdx	# tmp228, D.15668
	salq	$2, %rdx	#, D.15668
	addq	%rdx, %rax	# D.15668, D.15674
	movss	(%rax), %xmm1	# *_41, D.15675
	divss	%xmm1, %xmm0	# D.15675, D.15675
	unpcklps	%xmm0, %xmm0	# D.15675, D.15675
	cvtps2pd	%xmm0, %xmm0	# D.15675, D.15676
	movsd	.LC9(%rip), %xmm1	#, tmp229
	mulsd	%xmm1, %xmm0	# tmp229, D.15676
	cvttsd2si	%xmm0, %edx	# D.15676, D.15672
	movq	-48(%rbp), %rax	# sp, tmp230
	movl	%edx, 4(%rax)	# D.15672, sp_19->src_prob
	.loc 1 1167 0
	movq	-48(%rbp), %rax	# sp, tmp231
	movl	4(%rax), %eax	# sp_19->src_prob, D.15672
	cmpl	$39, %eax	#, D.15672
	setg	%al	#, D.15677
	movl	%eax, %edx	# D.15677, D.15673
	movq	-48(%rbp), %rax	# sp, tmp232
	movb	%dl, (%rax)	# D.15673, sp_19->is_valid
.L138:
	.loc 1 1170 0
	movq	-48(%rbp), %rax	# sp, tmp233
	movzbl	(%rax), %eax	# sp_19->is_valid, D.15673
	testb	%al, %al	# D.15673
	je	.L139	#,
	.loc 1 1172 0
	leaq	-32(%rbp), %rdx	#, tmp234
	movl	-84(%rbp), %ecx	# trg, tmp235
	movl	-72(%rbp), %eax	# i, tmp236
	movl	%ecx, %esi	# tmp235,
	movl	%eax, %edi	# tmp236,
	call	split_edges	#
	.loc 1 1173 0
	movl	-24(%rbp), %eax	# el.nr_members, D.15672
	testl	%eax, %eax	# D.15672
	setne	%al	#, D.15677
	movl	%eax, %edx	# D.15677, D.15673
	movq	-48(%rbp), %rax	# sp, tmp237
	movb	%dl, 1(%rax)	# D.15673, sp_19->is_speculative
	.loc 1 1174 0
	movq	-48(%rbp), %rax	# sp, tmp238
	movzbl	1(%rax), %eax	# sp_19->is_speculative, D.15673
	testb	%al, %al	# D.15673
	je	.L139	#,
	.loc 1 1174 0 is_stmt 0 discriminator 1
	movl	flag_schedule_speculative(%rip), %eax	# flag_schedule_speculative, flag_schedule_speculative.239
	testl	%eax, %eax	# flag_schedule_speculative.239
	jne	.L139	#,
	.loc 1 1175 0 is_stmt 1
	movq	-48(%rbp), %rax	# sp, tmp239
	movb	$0, (%rax)	#, sp_19->is_valid
.L139:
	.loc 1 1178 0
	movq	-48(%rbp), %rax	# sp, tmp240
	movzbl	(%rax), %eax	# sp_19->is_valid, D.15673
	testb	%al, %al	# D.15673
	je	.L140	#,
.LBB14:
	.loc 1 1184 0
	movq	bblst_table(%rip), %rax	# bblst_table, bblst_table.240
	movl	bblst_last(%rip), %edx	# bblst_last, bblst_last.241
	movslq	%edx, %rdx	# bblst_last.241, D.15668
	salq	$2, %rdx	#, D.15668
	addq	%rax, %rdx	# bblst_table.240, D.15678
	movq	-48(%rbp), %rax	# sp, tmp241
	movq	%rdx, 8(%rax)	# D.15678, sp_19->split_bbs.first_member
	.loc 1 1185 0
	movl	-24(%rbp), %edx	# el.nr_members, D.15672
	movq	-48(%rbp), %rax	# sp, tmp242
	movl	%edx, 16(%rax)	# D.15672, sp_19->split_bbs.nr_members
	.loc 1 1186 0
	movl	$0, -68(%rbp)	#, j
	jmp	.L141	#
.L142:
	.loc 1 1187 0 discriminator 2
	movq	bblst_table(%rip), %rax	# bblst_table, bblst_table.242
	movl	bblst_last(%rip), %edx	# bblst_last, bblst_last.243
	movslq	%edx, %rdx	# bblst_last.243, D.15668
	salq	$2, %rdx	#, D.15668
	addq	%rax, %rdx	# bblst_table.242, D.15678
	.loc 1 1188 0 discriminator 2
	movq	edge_table(%rip), %rax	# edge_table, edge_table.244
	movq	rgn_edges(%rip), %rcx	# rgn_edges, rgn_edges.245
	movq	-32(%rbp), %rsi	# el.first_member, D.15678
	movl	-68(%rbp), %edi	# j, tmp243
	movslq	%edi, %rdi	# tmp243, D.15668
	salq	$2, %rdi	#, D.15668
	addq	%rdi, %rsi	# D.15668, D.15678
	movl	(%rsi), %esi	# *_75, D.15672
	movslq	%esi, %rsi	# D.15672, D.15668
	salq	$2, %rsi	#, D.15668
	addq	%rsi, %rcx	# D.15668, D.15678
	movl	(%rcx), %ecx	# *_79, D.15672
	movslq	%ecx, %rcx	# D.15672, D.15668
	salq	$4, %rcx	#, D.15668
	addq	%rcx, %rax	# D.15668, D.15679
	movl	4(%rax), %eax	# _83->to_block, D.15672
	.loc 1 1187 0 discriminator 2
	movl	%eax, (%rdx)	# D.15672, *_69
	.loc 1 1186 0 discriminator 2
	movl	bblst_last(%rip), %eax	# bblst_last, bblst_last.246
	addl	$1, %eax	#, bblst_last.247
	movl	%eax, bblst_last(%rip)	# bblst_last.247, bblst_last
	addl	$1, -68(%rbp)	#, j
.L141:
	.loc 1 1186 0 is_stmt 0 discriminator 1
	movl	-24(%rbp), %eax	# el.nr_members, D.15672
	cmpl	-68(%rbp), %eax	# j, D.15672
	jg	.L142	#,
	.loc 1 1189 0 is_stmt 1
	movq	bblst_table(%rip), %rax	# bblst_table, bblst_table.248
	movl	bblst_last(%rip), %edx	# bblst_last, bblst_last.249
	movslq	%edx, %rdx	# bblst_last.249, D.15668
	salq	$2, %rdx	#, D.15668
	addq	%rax, %rdx	# bblst_table.248, D.15678
	movq	-48(%rbp), %rax	# sp, tmp244
	movq	%rdx, 24(%rax)	# D.15678, sp_19->update_bbs.first_member
	.loc 1 1197 0
	movl	n_basic_blocks(%rip), %eax	# n_basic_blocks, n_basic_blocks.250
	cltq
	leaq	15(%rax), %rdx	#, tmp245
	movl	$16, %eax	#, tmp279
	subq	$1, %rax	#, tmp246
	addq	%rdx, %rax	# tmp245, tmp247
	movl	$16, %ebx	#, tmp280
	movl	$0, %edx	#, tmp250
	divq	%rbx	# tmp280
	imulq	$16, %rax, %rax	#, tmp249, tmp251
	subq	%rax, %rsp	# tmp251,
	movq	%rsp, %rax	#, tmp252
	addq	$15, %rax	#, tmp253
	shrq	$4, %rax	#, tmp254
	salq	$4, %rax	#, tmp255
	movq	%rax, -40(%rbp)	# tmp255, update_blocks
	.loc 1 1198 0
	movl	n_basic_blocks(%rip), %eax	# n_basic_blocks, n_basic_blocks.251
	movslq	%eax, %rdx	# n_basic_blocks.251, D.15668
	movq	-40(%rbp), %rax	# update_blocks, tmp256
	movl	$0, %esi	#,
	movq	%rax, %rdi	# tmp256,
	call	memset	#
	.loc 1 1200 0
	movl	$0, -76(%rbp)	#, update_idx
	.loc 1 1201 0
	movl	$0, -68(%rbp)	#, j
	jmp	.L143	#
.L150:
	.loc 1 1203 0
	movq	edge_table(%rip), %rax	# edge_table, edge_table.252
	movq	rgn_edges(%rip), %rdx	# rgn_edges, rgn_edges.253
	movq	-32(%rbp), %rcx	# el.first_member, D.15678
	movl	-68(%rbp), %esi	# j, tmp257
	movslq	%esi, %rsi	# tmp257, D.15668
	salq	$2, %rsi	#, D.15668
	addq	%rsi, %rcx	# D.15668, D.15678
	movl	(%rcx), %ecx	# *_106, D.15672
	movslq	%ecx, %rcx	# D.15672, D.15668
	salq	$2, %rcx	#, D.15668
	addq	%rcx, %rdx	# D.15668, D.15678
	movl	(%rdx), %edx	# *_110, D.15672
	movslq	%edx, %rdx	# D.15672, D.15668
	salq	$4, %rdx	#, D.15668
	addq	%rdx, %rax	# D.15668, D.15679
	movl	(%rax), %eax	# _114->from_block, tmp258
	movl	%eax, -56(%rbp)	# tmp258, check_block
	.loc 1 1204 0
	movq	out_edges(%rip), %rax	# out_edges, out_edges.254
	movl	-56(%rbp), %edx	# check_block, tmp259
	movslq	%edx, %rdx	# tmp259, D.15668
	salq	$2, %rdx	#, D.15668
	addq	%rdx, %rax	# D.15668, D.15678
	movl	(%rax), %eax	# *_119, tmp260
	movl	%eax, -60(%rbp)	# tmp260, nxt_edge
	movl	-60(%rbp), %eax	# nxt_edge, tmp261
	movl	%eax, -52(%rbp)	# tmp261, fst_edge
.L149:
	.loc 1 1207 0
	movq	edge_table(%rip), %rax	# edge_table, edge_table.255
	movl	-60(%rbp), %edx	# nxt_edge, tmp262
	movslq	%edx, %rdx	# tmp262, D.15668
	salq	$4, %rdx	#, D.15668
	addq	%rdx, %rax	# D.15668, D.15679
	movl	4(%rax), %eax	# _125->to_block, D.15672
	movslq	%eax, %rdx	# D.15672, D.15680
	movq	-40(%rbp), %rax	# update_blocks, tmp263
	addq	%rdx, %rax	# D.15680, D.15681
	movzbl	(%rax), %eax	# *_128, D.15673
	testb	%al, %al	# D.15673
	jne	.L144	#,
	.loc 1 1209 0
	movl	$0, -64(%rbp)	#, k
	jmp	.L145	#
.L148:
	.loc 1 1210 0
	movq	edge_to_bit(%rip), %rax	# edge_to_bit, edge_to_bit.256
	movl	-60(%rbp), %edx	# nxt_edge, tmp264
	movslq	%edx, %rdx	# tmp264, D.15668
	salq	$2, %rdx	#, D.15668
	addq	%rdx, %rax	# D.15668, D.15678
	movl	(%rax), %edx	# *_135, D.15672
	movq	-32(%rbp), %rax	# el.first_member, D.15678
	movl	-64(%rbp), %ecx	# k, tmp265
	movslq	%ecx, %rcx	# tmp265, D.15668
	salq	$2, %rcx	#, D.15668
	addq	%rcx, %rax	# D.15668, D.15678
	movl	(%rax), %eax	# *_140, D.15672
	cmpl	%eax, %edx	# D.15672, D.15672
	jne	.L146	#,
	.loc 1 1211 0
	jmp	.L147	#
.L146:
	.loc 1 1209 0
	addl	$1, -64(%rbp)	#, k
.L145:
	.loc 1 1209 0 is_stmt 0 discriminator 1
	movl	-24(%rbp), %eax	# el.nr_members, D.15672
	cmpl	-64(%rbp), %eax	# k, D.15672
	jg	.L148	#,
.L147:
	.loc 1 1213 0 is_stmt 1
	movl	-24(%rbp), %eax	# el.nr_members, D.15672
	cmpl	-64(%rbp), %eax	# k, D.15672
	jg	.L144	#,
	.loc 1 1215 0
	movq	bblst_table(%rip), %rcx	# bblst_table, bblst_table.257
	movl	bblst_last(%rip), %eax	# bblst_last, bblst_last.258
	leal	1(%rax), %edx	#, bblst_last.260
	movl	%edx, bblst_last(%rip)	# bblst_last.260, bblst_last
	cltq
	salq	$2, %rax	#, D.15668
	leaq	(%rcx,%rax), %rdx	#, D.15678
	movq	edge_table(%rip), %rax	# edge_table, edge_table.261
	movl	-60(%rbp), %ecx	# nxt_edge, tmp266
	movslq	%ecx, %rcx	# tmp266, D.15668
	salq	$4, %rcx	#, D.15668
	addq	%rcx, %rax	# D.15668, D.15679
	movl	4(%rax), %eax	# _154->to_block, D.15672
	movl	%eax, (%rdx)	# D.15672, *_150
	.loc 1 1216 0
	movq	edge_table(%rip), %rax	# edge_table, edge_table.262
	movl	-60(%rbp), %edx	# nxt_edge, tmp267
	movslq	%edx, %rdx	# tmp267, D.15668
	salq	$4, %rdx	#, D.15668
	addq	%rdx, %rax	# D.15668, D.15679
	movl	4(%rax), %eax	# _159->to_block, D.15672
	movslq	%eax, %rdx	# D.15672, D.15680
	movq	-40(%rbp), %rax	# update_blocks, tmp268
	addq	%rdx, %rax	# D.15680, D.15681
	movb	$1, (%rax)	#, *_162
	.loc 1 1217 0
	addl	$1, -76(%rbp)	#, update_idx
.L144:
	.loc 1 1221 0
	movq	edge_table(%rip), %rax	# edge_table, edge_table.263
	movl	-60(%rbp), %edx	# nxt_edge, tmp269
	movslq	%edx, %rdx	# tmp269, D.15668
	salq	$4, %rdx	#, D.15668
	addq	%rdx, %rax	# D.15668, D.15679
	movl	12(%rax), %eax	# _167->next_out, tmp270
	movl	%eax, -60(%rbp)	# tmp270, nxt_edge
	.loc 1 1223 0
	movl	-52(%rbp), %eax	# fst_edge, tmp271
	cmpl	-60(%rbp), %eax	# nxt_edge, tmp271
	jne	.L149	#,
	.loc 1 1201 0
	addl	$1, -68(%rbp)	#, j
.L143:
	.loc 1 1201 0 is_stmt 0 discriminator 1
	movl	-24(%rbp), %eax	# el.nr_members, D.15672
	cmpl	-68(%rbp), %eax	# j, D.15672
	jg	.L150	#,
	.loc 1 1225 0 is_stmt 1
	movq	-48(%rbp), %rax	# sp, tmp272
	movl	-76(%rbp), %edx	# update_idx, tmp273
	movl	%edx, 32(%rax)	# tmp273, sp_19->update_bbs.nr_members
	.loc 1 1228 0
	movl	bblst_last(%rip), %edx	# bblst_last, bblst_last.264
	movl	bblst_size(%rip), %eax	# bblst_size, bblst_size.265
	cmpl	%eax, %edx	# bblst_size.265, bblst_last.264
	jle	.L151	#,
	.loc 1 1229 0
	movl	$__FUNCTION__.11149, %edx	#,
	movl	$1229, %esi	#,
	movl	$.LC3, %edi	#,
	call	fancy_abort	#
.L151:
.LBE14:
	jmp	.L152	#
.L140:
	.loc 1 1233 0
	movq	-48(%rbp), %rax	# sp, tmp274
	movl	$0, 32(%rax)	#, sp_19->update_bbs.nr_members
	movq	-48(%rbp), %rax	# sp, tmp275
	movl	32(%rax), %edx	# sp_19->update_bbs.nr_members, D.15672
	movq	-48(%rbp), %rax	# sp, tmp276
	movl	%edx, 16(%rax)	# D.15672, sp_19->split_bbs.nr_members
	.loc 1 1235 0
	movq	-48(%rbp), %rax	# sp, tmp277
	movb	$0, 1(%rax)	#, sp_19->is_speculative
	.loc 1 1236 0
	movq	-48(%rbp), %rax	# sp, tmp278
	movl	$0, 4(%rax)	#, sp_19->src_prob
.L152:
	.loc 1 1159 0
	addl	$1, -72(%rbp)	#, i
.L137:
	.loc 1 1159 0 is_stmt 0 discriminator 1
	movl	current_nr_blocks(%rip), %eax	# current_nr_blocks, current_nr_blocks.266
	cmpl	%eax, -72(%rbp)	# current_nr_blocks.266, i
	jl	.L153	#,
	.loc 1 1239 0 is_stmt 1
	movq	-8(%rbp), %rbx	#,
	leave
	.cfi_def_cfa 7, 8
	ret
	.cfi_endproc
.LFE12:
	.size	compute_trg_info, .-compute_trg_info
	.section	.rodata
.LC11:
	.string	"src b %d bb %d speculative \n"
.LC12:
	.string	"split path: "
.LC13:
	.string	" %d "
.LC14:
	.string	"update path: "
.LC15:
	.string	" src %d equivalent\n"
	.text
	.globl	debug_candidate
	.type	debug_candidate, @function
debug_candidate:
.LFB13:
	.loc 1 1246 0
	.cfi_startproc
	pushq	%rbp	#
	.cfi_def_cfa_offset 16
	.cfi_offset 6, -16
	movq	%rsp, %rbp	#,
	.cfi_def_cfa_register 6
	subq	$32, %rsp	#,
	movl	%edi, -20(%rbp)	# i, i
	.loc 1 1247 0
	movq	candidate_table(%rip), %rcx	# candidate_table, candidate_table.267
	movl	-20(%rbp), %eax	# i, tmp117
	movslq	%eax, %rdx	# tmp117, D.15683
	movq	%rdx, %rax	# D.15683, tmp118
	salq	$2, %rax	#, tmp118
	addq	%rdx, %rax	# D.15683, tmp118
	salq	$3, %rax	#, tmp119
	addq	%rcx, %rax	# candidate_table.267, D.15684
	movzbl	(%rax), %eax	# _7->is_valid, D.15685
	testb	%al, %al	# D.15685
	jne	.L155	#,
	.loc 1 1248 0
	jmp	.L154	#
.L155:
	.loc 1 1250 0
	movq	candidate_table(%rip), %rcx	# candidate_table, candidate_table.268
	movl	-20(%rbp), %eax	# i, tmp120
	movslq	%eax, %rdx	# tmp120, D.15683
	movq	%rdx, %rax	# D.15683, tmp121
	salq	$2, %rax	#, tmp121
	addq	%rdx, %rax	# D.15683, tmp121
	salq	$3, %rax	#, tmp122
	addq	%rcx, %rax	# candidate_table.268, D.15684
	movzbl	1(%rax), %eax	# _12->is_speculative, D.15685
	testb	%al, %al	# D.15685
	je	.L157	#,
.LBB15:
	.loc 1 1253 0
	movq	rgn_bb_table(%rip), %rax	# rgn_bb_table, rgn_bb_table.269
	movl	current_blocks(%rip), %ecx	# current_blocks, current_blocks.270
	movl	-20(%rbp), %edx	# i, tmp123
	addl	%ecx, %edx	# current_blocks.270, D.15686
	movslq	%edx, %rdx	# D.15686, D.15683
	salq	$2, %rdx	#, D.15683
	addq	%rdx, %rax	# D.15683, D.15687
	movl	(%rax), %edx	# *_19, D.15686
	movq	sched_dump(%rip), %rax	# sched_dump, sched_dump.271
	movl	-20(%rbp), %ecx	# i, tmp124
	movl	$.LC11, %esi	#,
	movq	%rax, %rdi	# sched_dump.271,
	movl	$0, %eax	#,
	call	fprintf	#
	.loc 1 1255 0
	movq	sched_dump(%rip), %rax	# sched_dump, sched_dump.272
	movq	%rax, %rcx	# sched_dump.272,
	movl	$12, %edx	#,
	movl	$1, %esi	#,
	movl	$.LC12, %edi	#,
	call	fwrite	#
	.loc 1 1256 0
	movl	$0, -12(%rbp)	#, j
	jmp	.L158	#
.L159:
.LBB16:
	.loc 1 1258 0 discriminator 2
	movq	candidate_table(%rip), %rcx	# candidate_table, candidate_table.273
	movl	-20(%rbp), %eax	# i, tmp125
	movslq	%eax, %rdx	# tmp125, D.15683
	movq	%rdx, %rax	# D.15683, tmp126
	salq	$2, %rax	#, tmp126
	addq	%rdx, %rax	# D.15683, tmp126
	salq	$3, %rax	#, tmp127
	addq	%rcx, %rax	# candidate_table.273, D.15684
	movq	8(%rax), %rax	# _32->split_bbs.first_member, D.15687
	movl	-12(%rbp), %edx	# j, tmp128
	movslq	%edx, %rdx	# tmp128, D.15683
	salq	$2, %rdx	#, D.15683
	addq	%rdx, %rax	# D.15683, D.15687
	movl	(%rax), %eax	# *_36, tmp129
	movl	%eax, -8(%rbp)	# tmp129, b
	.loc 1 1260 0 discriminator 2
	movq	sched_dump(%rip), %rax	# sched_dump, sched_dump.274
	movl	-8(%rbp), %edx	# b, tmp130
	movl	$.LC13, %esi	#,
	movq	%rax, %rdi	# sched_dump.274,
	movl	$0, %eax	#,
	call	fprintf	#
.LBE16:
	.loc 1 1256 0 discriminator 2
	addl	$1, -12(%rbp)	#, j
.L158:
	.loc 1 1256 0 is_stmt 0 discriminator 1
	movq	candidate_table(%rip), %rcx	# candidate_table, candidate_table.275
	movl	-20(%rbp), %eax	# i, tmp131
	movslq	%eax, %rdx	# tmp131, D.15683
	movq	%rdx, %rax	# D.15683, tmp132
	salq	$2, %rax	#, tmp132
	addq	%rdx, %rax	# D.15683, tmp132
	salq	$3, %rax	#, tmp133
	addq	%rcx, %rax	# candidate_table.275, D.15684
	movl	16(%rax), %eax	# _27->split_bbs.nr_members, D.15686
	cmpl	-12(%rbp), %eax	# j, D.15686
	jg	.L159	#,
	.loc 1 1262 0 is_stmt 1
	movq	sched_dump(%rip), %rax	# sched_dump, sched_dump.276
	movq	%rax, %rsi	# sched_dump.276,
	movl	$10, %edi	#,
	call	fputc	#
	.loc 1 1264 0
	movq	sched_dump(%rip), %rax	# sched_dump, sched_dump.277
	movq	%rax, %rcx	# sched_dump.277,
	movl	$13, %edx	#,
	movl	$1, %esi	#,
	movl	$.LC14, %edi	#,
	call	fwrite	#
	.loc 1 1265 0
	movl	$0, -12(%rbp)	#, j
	jmp	.L160	#
.L161:
.LBB17:
	.loc 1 1267 0 discriminator 2
	movq	candidate_table(%rip), %rcx	# candidate_table, candidate_table.278
	movl	-20(%rbp), %eax	# i, tmp134
	movslq	%eax, %rdx	# tmp134, D.15683
	movq	%rdx, %rax	# D.15683, tmp135
	salq	$2, %rax	#, tmp135
	addq	%rdx, %rax	# D.15683, tmp135
	salq	$3, %rax	#, tmp136
	addq	%rcx, %rax	# candidate_table.278, D.15684
	movq	24(%rax), %rax	# _51->update_bbs.first_member, D.15687
	movl	-12(%rbp), %edx	# j, tmp137
	movslq	%edx, %rdx	# tmp137, D.15683
	salq	$2, %rdx	#, D.15683
	addq	%rdx, %rax	# D.15683, D.15687
	movl	(%rax), %eax	# *_55, tmp138
	movl	%eax, -4(%rbp)	# tmp138, b
	.loc 1 1269 0 discriminator 2
	movq	sched_dump(%rip), %rax	# sched_dump, sched_dump.279
	movl	-4(%rbp), %edx	# b, tmp139
	movl	$.LC13, %esi	#,
	movq	%rax, %rdi	# sched_dump.279,
	movl	$0, %eax	#,
	call	fprintf	#
.LBE17:
	.loc 1 1265 0 discriminator 2
	addl	$1, -12(%rbp)	#, j
.L160:
	.loc 1 1265 0 is_stmt 0 discriminator 1
	movq	candidate_table(%rip), %rcx	# candidate_table, candidate_table.280
	movl	-20(%rbp), %eax	# i, tmp140
	movslq	%eax, %rdx	# tmp140, D.15683
	movq	%rdx, %rax	# D.15683, tmp141
	salq	$2, %rax	#, tmp141
	addq	%rdx, %rax	# D.15683, tmp141
	salq	$3, %rax	#, tmp142
	addq	%rcx, %rax	# candidate_table.280, D.15684
	movl	32(%rax), %eax	# _46->update_bbs.nr_members, D.15686
	cmpl	-12(%rbp), %eax	# j, D.15686
	jg	.L161	#,
	.loc 1 1271 0 is_stmt 1
	movq	sched_dump(%rip), %rax	# sched_dump, sched_dump.281
	movq	%rax, %rsi	# sched_dump.281,
	movl	$10, %edi	#,
	call	fputc	#
.LBE15:
	jmp	.L154	#
.L157:
	.loc 1 1275 0
	movq	rgn_bb_table(%rip), %rax	# rgn_bb_table, rgn_bb_table.282
	movl	current_blocks(%rip), %ecx	# current_blocks, current_blocks.283
	movl	-20(%rbp), %edx	# i, tmp143
	addl	%ecx, %edx	# current_blocks.283, D.15686
	movslq	%edx, %rdx	# D.15686, D.15683
	salq	$2, %rdx	#, D.15683
	addq	%rdx, %rax	# D.15683, D.15687
	movl	(%rax), %edx	# *_65, D.15686
	movq	sched_dump(%rip), %rax	# sched_dump, sched_dump.284
	movl	$.LC15, %esi	#,
	movq	%rax, %rdi	# sched_dump.284,
	movl	$0, %eax	#,
	call	fprintf	#
.L154:
	.loc 1 1277 0
	leave
	.cfi_def_cfa 7, 8
	ret
	.cfi_endproc
.LFE13:
	.size	debug_candidate, .-debug_candidate
	.section	.rodata
	.align 8
.LC16:
	.string	"----------- candidate table: target: b=%d bb=%d ---\n"
	.text
	.globl	debug_candidates
	.type	debug_candidates, @function
debug_candidates:
.LFB14:
	.loc 1 1284 0
	.cfi_startproc
	pushq	%rbp	#
	.cfi_def_cfa_offset 16
	.cfi_offset 6, -16
	movq	%rsp, %rbp	#,
	.cfi_def_cfa_register 6
	subq	$32, %rsp	#,
	movl	%edi, -20(%rbp)	# trg, trg
	.loc 1 1288 0
	movq	rgn_bb_table(%rip), %rax	# rgn_bb_table, rgn_bb_table.285
	movl	current_blocks(%rip), %ecx	# current_blocks, current_blocks.286
	movl	-20(%rbp), %edx	# trg, tmp68
	addl	%ecx, %edx	# current_blocks.286, D.15693
	movslq	%edx, %rdx	# D.15693, D.15694
	salq	$2, %rdx	#, D.15694
	addq	%rdx, %rax	# D.15694, D.15695
	.loc 1 1287 0
	movl	(%rax), %edx	# *_8, D.15693
	movq	sched_dump(%rip), %rax	# sched_dump, sched_dump.287
	movl	-20(%rbp), %ecx	# trg, tmp69
	movl	$.LC16, %esi	#,
	movq	%rax, %rdi	# sched_dump.287,
	movl	$0, %eax	#,
	call	fprintf	#
	.loc 1 1289 0
	movl	-20(%rbp), %eax	# trg, tmp73
	addl	$1, %eax	#, tmp72
	movl	%eax, -4(%rbp)	# tmp72, i
	jmp	.L163	#
.L164:
	.loc 1 1290 0 discriminator 2
	movl	-4(%rbp), %eax	# i, tmp74
	movl	%eax, %edi	# tmp74,
	call	debug_candidate	#
	.loc 1 1289 0 discriminator 2
	addl	$1, -4(%rbp)	#, i
.L163:
	.loc 1 1289 0 is_stmt 0 discriminator 1
	movl	current_nr_blocks(%rip), %eax	# current_nr_blocks, current_nr_blocks.288
	cmpl	%eax, -4(%rbp)	# current_nr_blocks.288, i
	jl	.L164	#,
	.loc 1 1291 0 is_stmt 1
	leave
	.cfi_def_cfa 7, 8
	ret
	.cfi_endproc
.LFE14:
	.size	debug_candidates, .-debug_candidates
	.type	check_live_1, @function
check_live_1:
.LFB15:
	.loc 1 1302 0
	.cfi_startproc
	pushq	%rbp	#
	.cfi_def_cfa_offset 16
	.cfi_offset 6, -16
	movq	%rsp, %rbp	#,
	.cfi_def_cfa_register 6
	pushq	%rbx	#
	subq	$56, %rsp	#,
	.cfi_offset 3, -24
	movl	%edi, -52(%rbp)	# src, src
	movq	%rsi, -64(%rbp)	# x, x
	.loc 1 1305 0
	movq	-64(%rbp), %rax	# x, tmp143
	movq	8(%rax), %rax	# x_15(D)->fld[0].rtx, tmp144
	movq	%rax, -24(%rbp)	# tmp144, reg
	.loc 1 1307 0
	cmpq	$0, -24(%rbp)	#, reg
	jne	.L166	#,
	.loc 1 1308 0
	movl	$1, %eax	#, D.15697
	jmp	.L167	#
.L166:
	.loc 1 1310 0
	jmp	.L168	#
.L169:
	.loc 1 1313 0
	movq	-24(%rbp), %rax	# reg, tmp145
	movq	8(%rax), %rax	# reg_3->fld[0].rtx, tmp146
	movq	%rax, -24(%rbp)	# tmp146, reg
.L168:
	.loc 1 1310 0 discriminator 1
	movq	-24(%rbp), %rax	# reg, tmp147
	movzwl	(%rax), %eax	# reg_3->code, D.15698
	cmpw	$63, %ax	#, D.15698
	je	.L169	#,
	.loc 1 1310 0 is_stmt 0 discriminator 2
	movq	-24(%rbp), %rax	# reg, tmp148
	movzwl	(%rax), %eax	# reg_3->code, D.15698
	cmpw	$133, %ax	#, D.15698
	je	.L169	#,
	.loc 1 1311 0 is_stmt 1
	movq	-24(%rbp), %rax	# reg, tmp149
	movzwl	(%rax), %eax	# reg_3->code, D.15698
	cmpw	$132, %ax	#, D.15698
	je	.L169	#,
	.loc 1 1312 0
	movq	-24(%rbp), %rax	# reg, tmp150
	movzwl	(%rax), %eax	# reg_3->code, D.15698
	cmpw	$64, %ax	#, D.15698
	je	.L169	#,
	.loc 1 1315 0
	movq	-24(%rbp), %rax	# reg, tmp151
	movzwl	(%rax), %eax	# reg_3->code, D.15698
	cmpw	$39, %ax	#, D.15698
	jne	.L170	#,
.LBB18:
	.loc 1 1319 0
	movq	-24(%rbp), %rax	# reg, tmp152
	movq	8(%rax), %rax	# reg_3->fld[0].rtvec, D.15699
	movl	(%rax), %eax	# _23->num_elem, D.15697
	subl	$1, %eax	#, tmp153
	movl	%eax, -44(%rbp)	# tmp153, i
	jmp	.L171	#
.L173:
	.loc 1 1320 0
	movq	-24(%rbp), %rax	# reg, tmp154
	movq	8(%rax), %rax	# reg_3->fld[0].rtvec, D.15699
	movl	-44(%rbp), %edx	# i, tmp156
	movslq	%edx, %rdx	# tmp156, tmp155
	movq	8(%rax,%rdx,8), %rax	# _26->elem, D.15700
	movq	8(%rax), %rax	# _27->fld[0].rtx, D.15700
	testq	%rax, %rax	# D.15700
	je	.L172	#,
	.loc 1 1321 0
	movq	-24(%rbp), %rax	# reg, tmp157
	movq	8(%rax), %rax	# reg_3->fld[0].rtvec, D.15699
	movl	-44(%rbp), %edx	# i, tmp159
	movslq	%edx, %rdx	# tmp159, tmp158
	movq	8(%rax,%rdx,8), %rax	# _29->elem, D.15700
	movq	8(%rax), %rdx	# _30->fld[0].rtx, D.15700
	movl	-52(%rbp), %eax	# src, tmp160
	movq	%rdx, %rsi	# D.15700,
	movl	%eax, %edi	# tmp160,
	call	check_live_1	#
	testl	%eax, %eax	# D.15697
	je	.L172	#,
	.loc 1 1322 0
	movl	$1, %eax	#, D.15697
	jmp	.L167	#
.L172:
	.loc 1 1319 0
	subl	$1, -44(%rbp)	#, i
.L171:
	.loc 1 1319 0 is_stmt 0 discriminator 1
	cmpl	$0, -44(%rbp)	#, i
	jns	.L173	#,
	.loc 1 1324 0 is_stmt 1
	movl	$0, %eax	#, D.15697
	jmp	.L167	#
.L170:
.LBE18:
	.loc 1 1327 0
	movq	-24(%rbp), %rax	# reg, tmp161
	movzwl	(%rax), %eax	# reg_3->code, D.15698
	cmpw	$61, %ax	#, D.15698
	je	.L174	#,
	.loc 1 1328 0
	movl	$1, %eax	#, D.15697
	jmp	.L167	#
.L174:
	.loc 1 1330 0
	movq	-24(%rbp), %rax	# reg, tmp162
	movl	8(%rax), %eax	# reg_3->fld[0].rtuint, D.15701
	movl	%eax, -36(%rbp)	# D.15701, regno
	.loc 1 1332 0
	cmpl	$52, -36(%rbp)	#, regno
	jg	.L175	#,
	.loc 1 1332 0 is_stmt 0 discriminator 1
	movl	-36(%rbp), %eax	# regno, tmp164
	cltq
	movzbl	global_regs(%rax), %eax	# global_regs, D.15702
	testb	%al, %al	# D.15702
	je	.L175	#,
	.loc 1 1335 0 is_stmt 1
	movl	$0, %eax	#, D.15697
	jmp	.L167	#
.L175:
	.loc 1 1339 0
	cmpl	$52, -36(%rbp)	#, regno
	jg	.L176	#,
.LBB19:
	.loc 1 1342 0
	cmpl	$7, -36(%rbp)	#, regno
	jle	.L177	#,
	.loc 1 1342 0 is_stmt 0 discriminator 1
	cmpl	$15, -36(%rbp)	#, regno
	jle	.L178	#,
.L177:
	.loc 1 1342 0 discriminator 2
	cmpl	$20, -36(%rbp)	#, regno
	jle	.L179	#,
	.loc 1 1342 0 discriminator 1
	cmpl	$28, -36(%rbp)	#, regno
	jle	.L178	#,
.L179:
	.loc 1 1342 0 discriminator 2
	cmpl	$44, -36(%rbp)	#, regno
	jle	.L180	#,
	.loc 1 1342 0 discriminator 1
	cmpl	$52, -36(%rbp)	#, regno
	jle	.L178	#,
.L180:
	.loc 1 1342 0 discriminator 2
	cmpl	$28, -36(%rbp)	#, regno
	jle	.L181	#,
	.loc 1 1342 0 discriminator 1
	cmpl	$36, -36(%rbp)	#, regno
	jg	.L181	#,
.L178:
	movq	-24(%rbp), %rax	# reg, tmp165
	movzbl	2(%rax), %eax	# reg_3->mode, D.15703
	movzbl	%al, %eax	# D.15703, D.15697
	cltq
	movl	mode_class(,%rax,4), %eax	# mode_class, D.15704
	cmpl	$5, %eax	#, D.15704
	je	.L182	#,
	.loc 1 1342 0 discriminator 2
	movq	-24(%rbp), %rax	# reg, tmp167
	movzbl	2(%rax), %eax	# reg_3->mode, D.15703
	movzbl	%al, %eax	# D.15703, D.15697
	cltq
	movl	mode_class(,%rax,4), %eax	# mode_class, D.15704
	cmpl	$6, %eax	#, D.15704
	jne	.L183	#,
.L182:
	.loc 1 1342 0 discriminator 1
	movl	$2, %eax	#, iftmp.290
	jmp	.L184	#
.L183:
	movl	$1, %eax	#, iftmp.290
.L184:
	.loc 1 1342 0 discriminator 3
	jmp	.L185	#
.L181:
	.loc 1 1342 0 discriminator 2
	movq	-24(%rbp), %rax	# reg, tmp169
	movzbl	2(%rax), %eax	# reg_3->mode, D.15703
	cmpb	$18, %al	#, D.15703
	jne	.L186	#,
	.loc 1 1342 0 discriminator 1
	movl	target_flags(%rip), %eax	# target_flags, target_flags.293
	andl	$33554432, %eax	#, D.15697
	testl	%eax, %eax	# D.15697
	je	.L187	#,
	movl	$2, %eax	#, iftmp.292
	jmp	.L185	#
.L187:
	.loc 1 1342 0 discriminator 2
	movl	$3, %eax	#, iftmp.292
	jmp	.L185	#
.L186:
	movq	-24(%rbp), %rax	# reg, tmp170
	movzbl	2(%rax), %eax	# reg_3->mode, D.15703
	cmpb	$24, %al	#, D.15703
	jne	.L190	#,
	.loc 1 1342 0 discriminator 1
	movl	target_flags(%rip), %eax	# target_flags, target_flags.296
	andl	$33554432, %eax	#, D.15697
	testl	%eax, %eax	# D.15697
	je	.L191	#,
	movl	$4, %eax	#, iftmp.295
	jmp	.L185	#
.L191:
	.loc 1 1342 0 discriminator 2
	movl	$6, %eax	#, iftmp.295
	jmp	.L185	#
.L190:
	movq	-24(%rbp), %rax	# reg, tmp171
	movzbl	2(%rax), %eax	# reg_3->mode, D.15703
	movzbl	%al, %eax	# D.15703, D.15697
	cltq
	movzbl	mode_size(%rax), %eax	# mode_size, D.15703
	movzbl	%al, %edx	# D.15703, D.15697
	movl	target_flags(%rip), %eax	# target_flags, target_flags.298
	andl	$33554432, %eax	#, D.15697
	testl	%eax, %eax	# D.15697
	je	.L194	#,
	.loc 1 1342 0 discriminator 1
	movl	$8, %eax	#, iftmp.297
	jmp	.L195	#
.L194:
	.loc 1 1342 0 discriminator 2
	movl	$4, %eax	#, iftmp.297
.L195:
	.loc 1 1342 0 discriminator 3
	addl	%edx, %eax	# D.15697, D.15697
	subl	$1, %eax	#, D.15697
	movl	target_flags(%rip), %edx	# target_flags, target_flags.300
	andl	$33554432, %edx	#, D.15697
	testl	%edx, %edx	# D.15697
	je	.L196	#,
	.loc 1 1342 0 discriminator 1
	movl	$8, %ebx	#, iftmp.299
	jmp	.L197	#
.L196:
	.loc 1 1342 0 discriminator 2
	movl	$4, %ebx	#, iftmp.299
.L197:
	.loc 1 1342 0 discriminator 3
	cltd
	idivl	%ebx	# iftmp.299
.L185:
	movl	%eax, -40(%rbp)	# iftmp.289, j
	.loc 1 1343 0 is_stmt 1 discriminator 3
	jmp	.L198	#
.L202:
	.loc 1 1345 0
	movl	$0, -48(%rbp)	#, i
	jmp	.L199	#
.L201:
.LBB20:
	.loc 1 1347 0
	movq	candidate_table(%rip), %rcx	# candidate_table, candidate_table.301
	movl	-52(%rbp), %eax	# src, tmp175
	movslq	%eax, %rdx	# tmp175, D.15705
	movq	%rdx, %rax	# D.15705, tmp176
	salq	$2, %rax	#, tmp176
	addq	%rdx, %rax	# D.15705, tmp176
	salq	$3, %rax	#, tmp177
	addq	%rcx, %rax	# candidate_table.301, D.15706
	movq	8(%rax), %rax	# _92->split_bbs.first_member, D.15707
	movl	-48(%rbp), %edx	# i, tmp178
	movslq	%edx, %rdx	# tmp178, D.15705
	salq	$2, %rdx	#, D.15705
	addq	%rdx, %rax	# D.15705, D.15707
	movl	(%rax), %eax	# *_96, tmp179
	movl	%eax, -32(%rbp)	# tmp179, b
	.loc 1 1349 0
	movl	-40(%rbp), %eax	# j, tmp180
	movl	-36(%rbp), %edx	# regno, tmp181
	addl	%eax, %edx	# tmp180, D.15697
	movq	basic_block_info(%rip), %rax	# basic_block_info, basic_block_info.302
	movl	-32(%rbp), %ecx	# b, tmp183
	movslq	%ecx, %rcx	# tmp183, tmp182
	addq	$4, %rcx	#, tmp184
	movq	(%rax,%rcx,8), %rax	# basic_block_info.302_99->data.bb, D.15708
	movq	64(%rax), %rax	# _100->global_live_at_start, D.15709
	movl	%edx, %esi	# D.15697,
	movq	%rax, %rdi	# D.15709,
	call	bitmap_bit_p	#
	testl	%eax, %eax	# D.15697
	je	.L200	#,
	.loc 1 1352 0
	movl	$0, %eax	#, D.15697
	jmp	.L167	#
.L200:
.LBE20:
	.loc 1 1345 0
	addl	$1, -48(%rbp)	#, i
.L199:
	.loc 1 1345 0 is_stmt 0 discriminator 1
	movq	candidate_table(%rip), %rcx	# candidate_table, candidate_table.303
	movl	-52(%rbp), %eax	# src, tmp185
	movslq	%eax, %rdx	# tmp185, D.15705
	movq	%rdx, %rax	# D.15705, tmp186
	salq	$2, %rax	#, tmp186
	addq	%rdx, %rax	# D.15705, tmp186
	salq	$3, %rax	#, tmp187
	addq	%rcx, %rax	# candidate_table.303, D.15706
	movl	16(%rax), %eax	# _87->split_bbs.nr_members, D.15697
	cmpl	-48(%rbp), %eax	# i, D.15697
	jg	.L201	#,
.L198:
	.loc 1 1343 0 is_stmt 1 discriminator 1
	subl	$1, -40(%rbp)	#, j
	cmpl	$0, -40(%rbp)	#, j
	jns	.L202	#,
.LBE19:
	jmp	.L203	#
.L176:
	.loc 1 1360 0
	movl	$0, -48(%rbp)	#, i
	jmp	.L204	#
.L206:
.LBB21:
	.loc 1 1362 0
	movq	candidate_table(%rip), %rcx	# candidate_table, candidate_table.304
	movl	-52(%rbp), %eax	# src, tmp188
	movslq	%eax, %rdx	# tmp188, D.15705
	movq	%rdx, %rax	# D.15705, tmp189
	salq	$2, %rax	#, tmp189
	addq	%rdx, %rax	# D.15705, tmp189
	salq	$3, %rax	#, tmp190
	addq	%rcx, %rax	# candidate_table.304, D.15706
	movq	8(%rax), %rax	# _114->split_bbs.first_member, D.15707
	movl	-48(%rbp), %edx	# i, tmp191
	movslq	%edx, %rdx	# tmp191, D.15705
	salq	$2, %rdx	#, D.15705
	addq	%rdx, %rax	# D.15705, D.15707
	movl	(%rax), %eax	# *_118, tmp192
	movl	%eax, -28(%rbp)	# tmp192, b
	.loc 1 1364 0
	movq	basic_block_info(%rip), %rax	# basic_block_info, basic_block_info.305
	movl	-28(%rbp), %edx	# b, tmp194
	movslq	%edx, %rdx	# tmp194, tmp193
	addq	$4, %rdx	#, tmp195
	movq	(%rax,%rdx,8), %rax	# basic_block_info.305_120->data.bb, D.15708
	movq	64(%rax), %rax	# _121->global_live_at_start, D.15709
	movl	-36(%rbp), %edx	# regno, tmp196
	movl	%edx, %esi	# tmp196,
	movq	%rax, %rdi	# D.15709,
	call	bitmap_bit_p	#
	testl	%eax, %eax	# D.15697
	je	.L205	#,
	.loc 1 1366 0
	movl	$0, %eax	#, D.15697
	jmp	.L167	#
.L205:
.LBE21:
	.loc 1 1360 0
	addl	$1, -48(%rbp)	#, i
.L204:
	.loc 1 1360 0 is_stmt 0 discriminator 1
	movq	candidate_table(%rip), %rcx	# candidate_table, candidate_table.306
	movl	-52(%rbp), %eax	# src, tmp197
	movslq	%eax, %rdx	# tmp197, D.15705
	movq	%rdx, %rax	# D.15705, tmp198
	salq	$2, %rax	#, tmp198
	addq	%rdx, %rax	# D.15705, tmp198
	salq	$3, %rax	#, tmp199
	addq	%rcx, %rax	# candidate_table.306, D.15706
	movl	16(%rax), %eax	# _109->split_bbs.nr_members, D.15697
	cmpl	-48(%rbp), %eax	# i, D.15697
	jg	.L206	#,
.L203:
	.loc 1 1372 0 is_stmt 1
	movl	$1, %eax	#, D.15697
.L167:
	.loc 1 1373 0
	addq	$56, %rsp	#,
	popq	%rbx	#
	popq	%rbp	#
	.cfi_def_cfa 7, 8
	ret
	.cfi_endproc
.LFE15:
	.size	check_live_1, .-check_live_1
	.type	update_live_1, @function
update_live_1:
.LFB16:
	.loc 1 1382 0
	.cfi_startproc
	pushq	%rbp	#
	.cfi_def_cfa_offset 16
	.cfi_offset 6, -16
	movq	%rsp, %rbp	#,
	.cfi_def_cfa_register 6
	pushq	%rbx	#
	subq	$56, %rsp	#,
	.cfi_offset 3, -24
	movl	%edi, -52(%rbp)	# src, src
	movq	%rsi, -64(%rbp)	# x, x
	.loc 1 1385 0
	movq	-64(%rbp), %rax	# x, tmp138
	movq	8(%rax), %rax	# x_14(D)->fld[0].rtx, tmp139
	movq	%rax, -24(%rbp)	# tmp139, reg
	.loc 1 1387 0
	cmpq	$0, -24(%rbp)	#, reg
	jne	.L208	#,
	.loc 1 1388 0
	jmp	.L207	#
.L208:
	.loc 1 1390 0
	jmp	.L210	#
.L211:
	.loc 1 1393 0
	movq	-24(%rbp), %rax	# reg, tmp140
	movq	8(%rax), %rax	# reg_3->fld[0].rtx, tmp141
	movq	%rax, -24(%rbp)	# tmp141, reg
.L210:
	.loc 1 1390 0 discriminator 1
	movq	-24(%rbp), %rax	# reg, tmp142
	movzwl	(%rax), %eax	# reg_3->code, D.15710
	cmpw	$63, %ax	#, D.15710
	je	.L211	#,
	.loc 1 1390 0 is_stmt 0 discriminator 2
	movq	-24(%rbp), %rax	# reg, tmp143
	movzwl	(%rax), %eax	# reg_3->code, D.15710
	cmpw	$133, %ax	#, D.15710
	je	.L211	#,
	.loc 1 1391 0 is_stmt 1
	movq	-24(%rbp), %rax	# reg, tmp144
	movzwl	(%rax), %eax	# reg_3->code, D.15710
	cmpw	$132, %ax	#, D.15710
	je	.L211	#,
	.loc 1 1392 0
	movq	-24(%rbp), %rax	# reg, tmp145
	movzwl	(%rax), %eax	# reg_3->code, D.15710
	cmpw	$64, %ax	#, D.15710
	je	.L211	#,
	.loc 1 1395 0
	movq	-24(%rbp), %rax	# reg, tmp146
	movzwl	(%rax), %eax	# reg_3->code, D.15710
	cmpw	$39, %ax	#, D.15710
	jne	.L212	#,
.LBB22:
	.loc 1 1399 0
	movq	-24(%rbp), %rax	# reg, tmp147
	movq	8(%rax), %rax	# reg_3->fld[0].rtvec, D.15711
	movl	(%rax), %eax	# _21->num_elem, D.15712
	subl	$1, %eax	#, tmp148
	movl	%eax, -44(%rbp)	# tmp148, i
	jmp	.L213	#
.L215:
	.loc 1 1400 0
	movq	-24(%rbp), %rax	# reg, tmp149
	movq	8(%rax), %rax	# reg_3->fld[0].rtvec, D.15711
	movl	-44(%rbp), %edx	# i, tmp151
	movslq	%edx, %rdx	# tmp151, tmp150
	movq	8(%rax,%rdx,8), %rax	# _24->elem, D.15713
	movq	8(%rax), %rax	# _25->fld[0].rtx, D.15713
	testq	%rax, %rax	# D.15713
	je	.L214	#,
	.loc 1 1401 0
	movq	-24(%rbp), %rax	# reg, tmp152
	movq	8(%rax), %rax	# reg_3->fld[0].rtvec, D.15711
	movl	-44(%rbp), %edx	# i, tmp154
	movslq	%edx, %rdx	# tmp154, tmp153
	movq	8(%rax,%rdx,8), %rax	# _27->elem, D.15713
	movq	8(%rax), %rdx	# _28->fld[0].rtx, D.15713
	movl	-52(%rbp), %eax	# src, tmp155
	movq	%rdx, %rsi	# D.15713,
	movl	%eax, %edi	# tmp155,
	call	update_live_1	#
.L214:
	.loc 1 1399 0
	subl	$1, -44(%rbp)	#, i
.L213:
	.loc 1 1399 0 is_stmt 0 discriminator 1
	cmpl	$0, -44(%rbp)	#, i
	jns	.L215	#,
	.loc 1 1403 0 is_stmt 1
	jmp	.L207	#
.L212:
.LBE22:
	.loc 1 1406 0
	movq	-24(%rbp), %rax	# reg, tmp156
	movzwl	(%rax), %eax	# reg_3->code, D.15710
	cmpw	$61, %ax	#, D.15710
	je	.L216	#,
	.loc 1 1407 0
	jmp	.L207	#
.L216:
	.loc 1 1412 0
	movq	-24(%rbp), %rax	# reg, tmp157
	movl	8(%rax), %eax	# reg_3->fld[0].rtuint, D.15714
	movl	%eax, -36(%rbp)	# D.15714, regno
	.loc 1 1414 0
	cmpl	$52, -36(%rbp)	#, regno
	jg	.L217	#,
	.loc 1 1414 0 is_stmt 0 discriminator 1
	movl	-36(%rbp), %eax	# regno, tmp159
	cltq
	movzbl	global_regs(%rax), %eax	# global_regs, D.15715
	testb	%al, %al	# D.15715
	jne	.L207	#,
.L217:
	.loc 1 1416 0 is_stmt 1
	cmpl	$52, -36(%rbp)	#, regno
	jg	.L218	#,
.LBB23:
	.loc 1 1418 0
	cmpl	$7, -36(%rbp)	#, regno
	jle	.L219	#,
	.loc 1 1418 0 is_stmt 0 discriminator 1
	cmpl	$15, -36(%rbp)	#, regno
	jle	.L220	#,
.L219:
	.loc 1 1418 0 discriminator 2
	cmpl	$20, -36(%rbp)	#, regno
	jle	.L221	#,
	.loc 1 1418 0 discriminator 1
	cmpl	$28, -36(%rbp)	#, regno
	jle	.L220	#,
.L221:
	.loc 1 1418 0 discriminator 2
	cmpl	$44, -36(%rbp)	#, regno
	jle	.L222	#,
	.loc 1 1418 0 discriminator 1
	cmpl	$52, -36(%rbp)	#, regno
	jle	.L220	#,
.L222:
	.loc 1 1418 0 discriminator 2
	cmpl	$28, -36(%rbp)	#, regno
	jle	.L223	#,
	.loc 1 1418 0 discriminator 1
	cmpl	$36, -36(%rbp)	#, regno
	jg	.L223	#,
.L220:
	movq	-24(%rbp), %rax	# reg, tmp160
	movzbl	2(%rax), %eax	# reg_3->mode, D.15716
	movzbl	%al, %eax	# D.15716, D.15712
	cltq
	movl	mode_class(,%rax,4), %eax	# mode_class, D.15717
	cmpl	$5, %eax	#, D.15717
	je	.L224	#,
	.loc 1 1418 0 discriminator 2
	movq	-24(%rbp), %rax	# reg, tmp162
	movzbl	2(%rax), %eax	# reg_3->mode, D.15716
	movzbl	%al, %eax	# D.15716, D.15712
	cltq
	movl	mode_class(,%rax,4), %eax	# mode_class, D.15717
	cmpl	$6, %eax	#, D.15717
	jne	.L225	#,
.L224:
	.loc 1 1418 0 discriminator 1
	movl	$2, %eax	#, iftmp.308
	jmp	.L226	#
.L225:
	movl	$1, %eax	#, iftmp.308
.L226:
	.loc 1 1418 0 discriminator 3
	jmp	.L227	#
.L223:
	.loc 1 1418 0 discriminator 2
	movq	-24(%rbp), %rax	# reg, tmp164
	movzbl	2(%rax), %eax	# reg_3->mode, D.15716
	cmpb	$18, %al	#, D.15716
	jne	.L228	#,
	.loc 1 1418 0 discriminator 1
	movl	target_flags(%rip), %eax	# target_flags, target_flags.311
	andl	$33554432, %eax	#, D.15712
	testl	%eax, %eax	# D.15712
	je	.L229	#,
	movl	$2, %eax	#, iftmp.310
	jmp	.L227	#
.L229:
	.loc 1 1418 0 discriminator 2
	movl	$3, %eax	#, iftmp.310
	jmp	.L227	#
.L228:
	movq	-24(%rbp), %rax	# reg, tmp165
	movzbl	2(%rax), %eax	# reg_3->mode, D.15716
	cmpb	$24, %al	#, D.15716
	jne	.L232	#,
	.loc 1 1418 0 discriminator 1
	movl	target_flags(%rip), %eax	# target_flags, target_flags.314
	andl	$33554432, %eax	#, D.15712
	testl	%eax, %eax	# D.15712
	je	.L233	#,
	movl	$4, %eax	#, iftmp.313
	jmp	.L227	#
.L233:
	.loc 1 1418 0 discriminator 2
	movl	$6, %eax	#, iftmp.313
	jmp	.L227	#
.L232:
	movq	-24(%rbp), %rax	# reg, tmp166
	movzbl	2(%rax), %eax	# reg_3->mode, D.15716
	movzbl	%al, %eax	# D.15716, D.15712
	cltq
	movzbl	mode_size(%rax), %eax	# mode_size, D.15716
	movzbl	%al, %edx	# D.15716, D.15712
	movl	target_flags(%rip), %eax	# target_flags, target_flags.316
	andl	$33554432, %eax	#, D.15712
	testl	%eax, %eax	# D.15712
	je	.L236	#,
	.loc 1 1418 0 discriminator 1
	movl	$8, %eax	#, iftmp.315
	jmp	.L237	#
.L236:
	.loc 1 1418 0 discriminator 2
	movl	$4, %eax	#, iftmp.315
.L237:
	.loc 1 1418 0 discriminator 3
	addl	%edx, %eax	# D.15712, D.15712
	subl	$1, %eax	#, D.15712
	movl	target_flags(%rip), %edx	# target_flags, target_flags.318
	andl	$33554432, %edx	#, D.15712
	testl	%edx, %edx	# D.15712
	je	.L238	#,
	.loc 1 1418 0 discriminator 1
	movl	$8, %ebx	#, iftmp.317
	jmp	.L239	#
.L238:
	.loc 1 1418 0 discriminator 2
	movl	$4, %ebx	#, iftmp.317
.L239:
	.loc 1 1418 0 discriminator 3
	cltd
	idivl	%ebx	# iftmp.317
.L227:
	movl	%eax, -40(%rbp)	# iftmp.307, j
	.loc 1 1419 0 is_stmt 1 discriminator 3
	jmp	.L240	#
.L243:
	.loc 1 1421 0
	movl	$0, -48(%rbp)	#, i
	jmp	.L241	#
.L242:
.LBB24:
	.loc 1 1423 0 discriminator 2
	movq	candidate_table(%rip), %rcx	# candidate_table, candidate_table.319
	movl	-52(%rbp), %eax	# src, tmp170
	movslq	%eax, %rdx	# tmp170, D.15718
	movq	%rdx, %rax	# D.15718, tmp171
	salq	$2, %rax	#, tmp171
	addq	%rdx, %rax	# D.15718, tmp171
	salq	$3, %rax	#, tmp172
	addq	%rcx, %rax	# candidate_table.319, D.15719
	movq	24(%rax), %rax	# _85->update_bbs.first_member, D.15720
	movl	-48(%rbp), %edx	# i, tmp173
	movslq	%edx, %rdx	# tmp173, D.15718
	salq	$2, %rdx	#, D.15718
	addq	%rdx, %rax	# D.15718, D.15720
	movl	(%rax), %eax	# *_89, tmp174
	movl	%eax, -32(%rbp)	# tmp174, b
	.loc 1 1425 0 discriminator 2
	movl	-40(%rbp), %eax	# j, tmp175
	movl	-36(%rbp), %edx	# regno, tmp176
	addl	%eax, %edx	# tmp175, D.15712
	movq	basic_block_info(%rip), %rax	# basic_block_info, basic_block_info.320
	movl	-32(%rbp), %ecx	# b, tmp178
	movslq	%ecx, %rcx	# tmp178, tmp177
	addq	$4, %rcx	#, tmp179
	movq	(%rax,%rcx,8), %rax	# basic_block_info.320_92->data.bb, D.15721
	movq	64(%rax), %rax	# _93->global_live_at_start, D.15722
	movl	%edx, %esi	# D.15712,
	movq	%rax, %rdi	# D.15722,
	call	bitmap_set_bit	#
.LBE24:
	.loc 1 1421 0 discriminator 2
	addl	$1, -48(%rbp)	#, i
.L241:
	.loc 1 1421 0 is_stmt 0 discriminator 1
	movq	candidate_table(%rip), %rcx	# candidate_table, candidate_table.321
	movl	-52(%rbp), %eax	# src, tmp180
	movslq	%eax, %rdx	# tmp180, D.15718
	movq	%rdx, %rax	# D.15718, tmp181
	salq	$2, %rax	#, tmp181
	addq	%rdx, %rax	# D.15718, tmp181
	salq	$3, %rax	#, tmp182
	addq	%rcx, %rax	# candidate_table.321, D.15719
	movl	32(%rax), %eax	# _80->update_bbs.nr_members, D.15712
	cmpl	-48(%rbp), %eax	# i, D.15712
	jg	.L242	#,
.L240:
	.loc 1 1419 0 is_stmt 1 discriminator 1
	subl	$1, -40(%rbp)	#, j
	cmpl	$0, -40(%rbp)	#, j
	jns	.L243	#,
.LBE23:
	jmp	.L207	#
.L218:
	.loc 1 1432 0
	movl	$0, -48(%rbp)	#, i
	jmp	.L244	#
.L245:
.LBB25:
	.loc 1 1434 0 discriminator 2
	movq	candidate_table(%rip), %rcx	# candidate_table, candidate_table.322
	movl	-52(%rbp), %eax	# src, tmp183
	movslq	%eax, %rdx	# tmp183, D.15718
	movq	%rdx, %rax	# D.15718, tmp184
	salq	$2, %rax	#, tmp184
	addq	%rdx, %rax	# D.15718, tmp184
	salq	$3, %rax	#, tmp185
	addq	%rcx, %rax	# candidate_table.322, D.15719
	movq	24(%rax), %rax	# _105->update_bbs.first_member, D.15720
	movl	-48(%rbp), %edx	# i, tmp186
	movslq	%edx, %rdx	# tmp186, D.15718
	salq	$2, %rdx	#, D.15718
	addq	%rdx, %rax	# D.15718, D.15720
	movl	(%rax), %eax	# *_109, tmp187
	movl	%eax, -28(%rbp)	# tmp187, b
	.loc 1 1436 0 discriminator 2
	movq	basic_block_info(%rip), %rax	# basic_block_info, basic_block_info.323
	movl	-28(%rbp), %edx	# b, tmp189
	movslq	%edx, %rdx	# tmp189, tmp188
	addq	$4, %rdx	#, tmp190
	movq	(%rax,%rdx,8), %rax	# basic_block_info.323_111->data.bb, D.15721
	movq	64(%rax), %rax	# _112->global_live_at_start, D.15722
	movl	-36(%rbp), %edx	# regno, tmp191
	movl	%edx, %esi	# tmp191,
	movq	%rax, %rdi	# D.15722,
	call	bitmap_set_bit	#
.LBE25:
	.loc 1 1432 0 discriminator 2
	addl	$1, -48(%rbp)	#, i
.L244:
	.loc 1 1432 0 is_stmt 0 discriminator 1
	movq	candidate_table(%rip), %rcx	# candidate_table, candidate_table.324
	movl	-52(%rbp), %eax	# src, tmp192
	movslq	%eax, %rdx	# tmp192, D.15718
	movq	%rdx, %rax	# D.15718, tmp193
	salq	$2, %rax	#, tmp193
	addq	%rdx, %rax	# D.15718, tmp193
	salq	$3, %rax	#, tmp194
	addq	%rcx, %rax	# candidate_table.324, D.15719
	movl	32(%rax), %eax	# _100->update_bbs.nr_members, D.15712
	cmpl	-48(%rbp), %eax	# i, D.15712
	jg	.L245	#,
.L207:
	.loc 1 1440 0 is_stmt 1
	addq	$56, %rsp	#,
	popq	%rbx	#
	popq	%rbp	#
	.cfi_def_cfa 7, 8
	ret
	.cfi_endproc
.LFE16:
	.size	update_live_1, .-update_live_1
	.type	check_live, @function
check_live:
.LFB17:
	.loc 1 1450 0
	.cfi_startproc
	pushq	%rbp	#
	.cfi_def_cfa_offset 16
	.cfi_offset 6, -16
	movq	%rsp, %rbp	#,
	.cfi_def_cfa_register 6
	subq	$32, %rsp	#,
	movq	%rdi, -24(%rbp)	# insn, insn
	movl	%esi, -28(%rbp)	# src, src
	.loc 1 1452 0
	movq	-24(%rbp), %rax	# insn, tmp83
	movq	32(%rax), %rax	# insn_3(D)->fld[3].rtx, D.15724
	movzwl	(%rax), %eax	# _4->code, D.15725
	cmpw	$47, %ax	#, D.15725
	je	.L247	#,
	.loc 1 1453 0
	movq	-24(%rbp), %rax	# insn, tmp84
	movq	32(%rax), %rax	# insn_3(D)->fld[3].rtx, D.15724
	movzwl	(%rax), %eax	# _6->code, D.15725
	cmpw	$49, %ax	#, D.15725
	jne	.L248	#,
.L247:
	.loc 1 1454 0
	movq	-24(%rbp), %rax	# insn, tmp85
	movq	32(%rax), %rdx	# insn_3(D)->fld[3].rtx, D.15724
	movl	-28(%rbp), %eax	# src, tmp86
	movq	%rdx, %rsi	# D.15724,
	movl	%eax, %edi	# tmp86,
	call	check_live_1	#
	jmp	.L249	#
.L248:
	.loc 1 1455 0
	movq	-24(%rbp), %rax	# insn, tmp87
	movq	32(%rax), %rax	# insn_3(D)->fld[3].rtx, D.15724
	movzwl	(%rax), %eax	# _8->code, D.15725
	cmpw	$39, %ax	#, D.15725
	jne	.L250	#,
.LBB26:
	.loc 1 1458 0
	movq	-24(%rbp), %rax	# insn, tmp88
	movq	32(%rax), %rax	# insn_3(D)->fld[3].rtx, D.15724
	movq	8(%rax), %rax	# _10->fld[0].rtvec, D.15726
	movl	(%rax), %eax	# _11->num_elem, D.15723
	subl	$1, %eax	#, tmp89
	movl	%eax, -4(%rbp)	# tmp89, j
	jmp	.L251	#
.L254:
	.loc 1 1459 0
	movq	-24(%rbp), %rax	# insn, tmp90
	movq	32(%rax), %rax	# insn_3(D)->fld[3].rtx, D.15724
	movq	8(%rax), %rax	# _14->fld[0].rtvec, D.15726
	movl	-4(%rbp), %edx	# j, tmp92
	movslq	%edx, %rdx	# tmp92, tmp91
	movq	8(%rax,%rdx,8), %rax	# _15->elem, D.15724
	movzwl	(%rax), %eax	# _16->code, D.15725
	cmpw	$47, %ax	#, D.15725
	je	.L252	#,
	.loc 1 1460 0
	movq	-24(%rbp), %rax	# insn, tmp93
	movq	32(%rax), %rax	# insn_3(D)->fld[3].rtx, D.15724
	movq	8(%rax), %rax	# _18->fld[0].rtvec, D.15726
	movl	-4(%rbp), %edx	# j, tmp95
	movslq	%edx, %rdx	# tmp95, tmp94
	movq	8(%rax,%rdx,8), %rax	# _19->elem, D.15724
	movzwl	(%rax), %eax	# _20->code, D.15725
	cmpw	$49, %ax	#, D.15725
	jne	.L253	#,
.L252:
	.loc 1 1461 0
	movq	-24(%rbp), %rax	# insn, tmp96
	movq	32(%rax), %rax	# insn_3(D)->fld[3].rtx, D.15724
	movq	8(%rax), %rax	# _22->fld[0].rtvec, D.15726
	movl	-4(%rbp), %edx	# j, tmp98
	movslq	%edx, %rdx	# tmp98, tmp97
	movq	8(%rax,%rdx,8), %rdx	# _23->elem, D.15724
	movl	-28(%rbp), %eax	# src, tmp99
	movq	%rdx, %rsi	# D.15724,
	movl	%eax, %edi	# tmp99,
	call	check_live_1	#
	testl	%eax, %eax	# D.15723
	jne	.L253	#,
	.loc 1 1462 0
	movl	$0, %eax	#, D.15723
	jmp	.L249	#
.L253:
	.loc 1 1458 0
	subl	$1, -4(%rbp)	#, j
.L251:
	.loc 1 1458 0 is_stmt 0 discriminator 1
	cmpl	$0, -4(%rbp)	#, j
	jns	.L254	#,
	.loc 1 1464 0 is_stmt 1
	movl	$1, %eax	#, D.15723
	jmp	.L249	#
.L250:
.LBE26:
	.loc 1 1467 0
	movl	$1, %eax	#, D.15723
.L249:
	.loc 1 1468 0
	leave
	.cfi_def_cfa 7, 8
	ret
	.cfi_endproc
.LFE17:
	.size	check_live, .-check_live
	.type	update_live, @function
update_live:
.LFB18:
	.loc 1 1477 0
	.cfi_startproc
	pushq	%rbp	#
	.cfi_def_cfa_offset 16
	.cfi_offset 6, -16
	movq	%rsp, %rbp	#,
	.cfi_def_cfa_register 6
	subq	$32, %rsp	#,
	movq	%rdi, -24(%rbp)	# insn, insn
	movl	%esi, -28(%rbp)	# src, src
	.loc 1 1479 0
	movq	-24(%rbp), %rax	# insn, tmp80
	movq	32(%rax), %rax	# insn_2(D)->fld[3].rtx, D.15727
	movzwl	(%rax), %eax	# _3->code, D.15728
	cmpw	$47, %ax	#, D.15728
	je	.L256	#,
	.loc 1 1480 0
	movq	-24(%rbp), %rax	# insn, tmp81
	movq	32(%rax), %rax	# insn_2(D)->fld[3].rtx, D.15727
	movzwl	(%rax), %eax	# _5->code, D.15728
	cmpw	$49, %ax	#, D.15728
	jne	.L257	#,
.L256:
	.loc 1 1481 0
	movq	-24(%rbp), %rax	# insn, tmp82
	movq	32(%rax), %rdx	# insn_2(D)->fld[3].rtx, D.15727
	movl	-28(%rbp), %eax	# src, tmp83
	movq	%rdx, %rsi	# D.15727,
	movl	%eax, %edi	# tmp83,
	call	update_live_1	#
	jmp	.L255	#
.L257:
	.loc 1 1482 0
	movq	-24(%rbp), %rax	# insn, tmp84
	movq	32(%rax), %rax	# insn_2(D)->fld[3].rtx, D.15727
	movzwl	(%rax), %eax	# _7->code, D.15728
	cmpw	$39, %ax	#, D.15728
	jne	.L255	#,
.LBB27:
	.loc 1 1485 0
	movq	-24(%rbp), %rax	# insn, tmp85
	movq	32(%rax), %rax	# insn_2(D)->fld[3].rtx, D.15727
	movq	8(%rax), %rax	# _9->fld[0].rtvec, D.15729
	movl	(%rax), %eax	# _10->num_elem, D.15730
	subl	$1, %eax	#, tmp86
	movl	%eax, -4(%rbp)	# tmp86, j
	jmp	.L259	#
.L262:
	.loc 1 1486 0
	movq	-24(%rbp), %rax	# insn, tmp87
	movq	32(%rax), %rax	# insn_2(D)->fld[3].rtx, D.15727
	movq	8(%rax), %rax	# _13->fld[0].rtvec, D.15729
	movl	-4(%rbp), %edx	# j, tmp89
	movslq	%edx, %rdx	# tmp89, tmp88
	movq	8(%rax,%rdx,8), %rax	# _14->elem, D.15727
	movzwl	(%rax), %eax	# _15->code, D.15728
	cmpw	$47, %ax	#, D.15728
	je	.L260	#,
	.loc 1 1487 0
	movq	-24(%rbp), %rax	# insn, tmp90
	movq	32(%rax), %rax	# insn_2(D)->fld[3].rtx, D.15727
	movq	8(%rax), %rax	# _17->fld[0].rtvec, D.15729
	movl	-4(%rbp), %edx	# j, tmp92
	movslq	%edx, %rdx	# tmp92, tmp91
	movq	8(%rax,%rdx,8), %rax	# _18->elem, D.15727
	movzwl	(%rax), %eax	# _19->code, D.15728
	cmpw	$49, %ax	#, D.15728
	jne	.L261	#,
.L260:
	.loc 1 1488 0
	movq	-24(%rbp), %rax	# insn, tmp93
	movq	32(%rax), %rax	# insn_2(D)->fld[3].rtx, D.15727
	movq	8(%rax), %rax	# _21->fld[0].rtvec, D.15729
	movl	-4(%rbp), %edx	# j, tmp95
	movslq	%edx, %rdx	# tmp95, tmp94
	movq	8(%rax,%rdx,8), %rdx	# _22->elem, D.15727
	movl	-28(%rbp), %eax	# src, tmp96
	movq	%rdx, %rsi	# D.15727,
	movl	%eax, %edi	# tmp96,
	call	update_live_1	#
.L261:
	.loc 1 1485 0
	subl	$1, -4(%rbp)	#, j
.L259:
	.loc 1 1485 0 is_stmt 0 discriminator 1
	cmpl	$0, -4(%rbp)	#, j
	jns	.L262	#,
.L255:
.LBE27:
	.loc 1 1490 0 is_stmt 1
	leave
	.cfi_def_cfa 7, 8
	ret
	.cfi_endproc
.LFE18:
	.size	update_live, .-update_live
	.type	set_spec_fed, @function
set_spec_fed:
.LFB19:
	.loc 1 1582 0
	.cfi_startproc
	pushq	%rbp	#
	.cfi_def_cfa_offset 16
	.cfi_offset 6, -16
	movq	%rsp, %rbp	#,
	.cfi_def_cfa_register 6
	movq	%rdi, -24(%rbp)	# load_insn, load_insn
	.loc 1 1585 0
	movq	h_i_d(%rip), %rcx	# h_i_d, h_i_d.325
	movq	-24(%rbp), %rax	# load_insn, tmp71
	movl	8(%rax), %eax	# load_insn_3(D)->fld[0].rtint, D.15731
	movslq	%eax, %rdx	# D.15731, D.15732
	movq	%rdx, %rax	# D.15732, tmp72
	addq	%rax, %rax	# tmp72
	addq	%rdx, %rax	# D.15732, tmp72
	salq	$4, %rax	#, tmp73
	addq	%rcx, %rax	# h_i_d.325, D.15733
	movq	(%rax), %rax	# _7->depend, tmp74
	movq	%rax, -8(%rbp)	# tmp74, link
	jmp	.L264	#
.L266:
	.loc 1 1586 0
	movq	-8(%rbp), %rax	# link, tmp75
	movzbl	2(%rax), %eax	# link_1->mode, D.15734
	testb	%al, %al	# D.15734
	jne	.L265	#,
	.loc 1 1587 0
	movq	h_i_d(%rip), %rcx	# h_i_d, h_i_d.326
	movq	-8(%rbp), %rax	# link, tmp76
	movq	8(%rax), %rax	# link_1->fld[0].rtx, D.15735
	movl	8(%rax), %eax	# _11->fld[0].rtint, D.15731
	movslq	%eax, %rdx	# D.15731, D.15732
	movq	%rdx, %rax	# D.15732, tmp77
	addq	%rax, %rax	# tmp77
	addq	%rdx, %rax	# D.15732, tmp77
	salq	$4, %rax	#, tmp78
	addq	%rcx, %rax	# h_i_d.326, D.15733
	movzbl	46(%rax), %edx	# _15->fed_by_spec_load, tmp81
	orl	$2, %edx	#, tmp82
	movb	%dl, 46(%rax)	# tmp82, _15->fed_by_spec_load
.L265:
	.loc 1 1585 0
	movq	-8(%rbp), %rax	# link, tmp83
	movq	16(%rax), %rax	# link_1->fld[1].rtx, tmp84
	movq	%rax, -8(%rbp)	# tmp84, link
.L264:
	.loc 1 1585 0 is_stmt 0 discriminator 1
	cmpq	$0, -8(%rbp)	#, link
	jne	.L266	#,
	.loc 1 1588 0 is_stmt 1
	popq	%rbp	#
	.cfi_def_cfa 7, 8
	ret
	.cfi_endproc
.LFE19:
	.size	set_spec_fed, .-set_spec_fed
	.type	find_conditional_protection, @function
find_conditional_protection:
.LFB20:
	.loc 1 1597 0
	.cfi_startproc
	pushq	%rbp	#
	.cfi_def_cfa_offset 16
	.cfi_offset 6, -16
	movq	%rsp, %rbp	#,
	.cfi_def_cfa_register 6
	subq	$32, %rsp	#,
	movq	%rdi, -24(%rbp)	# insn, insn
	movl	%esi, -28(%rbp)	# load_insn_bb, load_insn_bb
	.loc 1 1601 0
	movq	h_i_d(%rip), %rcx	# h_i_d, h_i_d.327
	movq	-24(%rbp), %rax	# insn, tmp180
	movl	8(%rax), %eax	# insn_4(D)->fld[0].rtint, D.15736
	movslq	%eax, %rdx	# D.15736, D.15737
	movq	%rdx, %rax	# D.15737, tmp181
	addq	%rax, %rax	# tmp181
	addq	%rdx, %rax	# D.15737, tmp181
	salq	$4, %rax	#, tmp182
	addq	%rcx, %rax	# h_i_d.327, D.15738
	movq	(%rax), %rax	# _8->depend, tmp183
	movq	%rax, -16(%rbp)	# tmp183, link
	jmp	.L268	#
.L273:
.LBB28:
	.loc 1 1603 0
	movq	-16(%rbp), %rax	# link, tmp184
	movq	8(%rax), %rax	# link_1->fld[0].rtx, tmp185
	movq	%rax, -8(%rbp)	# tmp185, next
	.loc 1 1604 0
	movq	containing_rgn(%rip), %rcx	# containing_rgn, containing_rgn.328
	movq	basic_block_for_insn(%rip), %rax	# basic_block_for_insn, basic_block_for_insn.329
	movq	-8(%rbp), %rdx	# next, tmp186
	movl	8(%rdx), %edx	# next_10->fld[0].rtint, D.15736
	movslq	%edx, %rdx	# D.15736, tmp187
	addq	$4, %rdx	#, tmp188
	movq	(%rax,%rdx,8), %rax	# basic_block_for_insn.329_12->data.bb, D.15739
	movl	88(%rax), %eax	# _14->index, D.15736
	cltq
	salq	$2, %rax	#, D.15737
	addq	%rcx, %rax	# containing_rgn.328, D.15740
	movl	(%rax), %edx	# *_18, D.15736
	.loc 1 1605 0
	movq	containing_rgn(%rip), %rax	# containing_rgn, containing_rgn.330
	movq	rgn_bb_table(%rip), %rcx	# rgn_bb_table, rgn_bb_table.331
	movl	current_blocks(%rip), %edi	# current_blocks, current_blocks.332
	movl	-28(%rbp), %esi	# load_insn_bb, tmp189
	addl	%edi, %esi	# current_blocks.332, D.15736
	movslq	%esi, %rsi	# D.15736, D.15737
	salq	$2, %rsi	#, D.15737
	addq	%rsi, %rcx	# D.15737, D.15740
	movl	(%rcx), %ecx	# *_27, D.15736
	movslq	%ecx, %rcx	# D.15736, D.15737
	salq	$2, %rcx	#, D.15737
	addq	%rcx, %rax	# D.15737, D.15740
	movl	(%rax), %eax	# *_31, D.15736
	.loc 1 1604 0
	cmpl	%eax, %edx	# D.15736, D.15736
	jne	.L269	#,
	.loc 1 1606 0
	movq	block_to_bb(%rip), %rcx	# block_to_bb, block_to_bb.333
	movq	basic_block_for_insn(%rip), %rax	# basic_block_for_insn, basic_block_for_insn.334
	movq	-8(%rbp), %rdx	# next, tmp190
	movl	8(%rdx), %edx	# next_10->fld[0].rtint, D.15736
	movslq	%edx, %rdx	# D.15736, tmp191
	addq	$4, %rdx	#, tmp192
	movq	(%rax,%rdx,8), %rax	# basic_block_for_insn.334_34->data.bb, D.15739
	movl	88(%rax), %eax	# _36->index, D.15736
	cltq
	salq	$2, %rax	#, D.15737
	addq	%rcx, %rax	# block_to_bb.333, D.15740
	movl	(%rax), %eax	# *_40, D.15736
	cmpl	-28(%rbp), %eax	# load_insn_bb, D.15736
	je	.L270	#,
	.loc 1 1606 0 is_stmt 0 discriminator 1
	movq	block_to_bb(%rip), %rcx	# block_to_bb, block_to_bb.335
	movq	basic_block_for_insn(%rip), %rax	# basic_block_for_insn, basic_block_for_insn.336
	movq	-8(%rbp), %rdx	# next, tmp193
	movl	8(%rdx), %edx	# next_10->fld[0].rtint, D.15736
	movslq	%edx, %rdx	# D.15736, tmp194
	addq	$4, %rdx	#, tmp195
	movq	(%rax,%rdx,8), %rax	# basic_block_for_insn.336_43->data.bb, D.15739
	movl	88(%rax), %eax	# _45->index, D.15736
	cltq
	salq	$2, %rax	#, D.15737
	addq	%rcx, %rax	# block_to_bb.335, D.15740
	movl	(%rax), %eax	# *_49, D.15736
	testl	%eax, %eax	# D.15736
	je	.L270	#,
	movq	ancestor_edges(%rip), %rax	# ancestor_edges, ancestor_edges.337
	movl	-28(%rbp), %edx	# load_insn_bb, tmp196
	movslq	%edx, %rdx	# tmp196, D.15737
	salq	$3, %rdx	#, D.15737
	addq	%rdx, %rax	# D.15737, D.15741
	movq	(%rax), %rax	# *_54, D.15742
	movq	edge_to_bit(%rip), %rsi	# edge_to_bit, edge_to_bit.338
	movq	in_edges(%rip), %rdi	# in_edges, in_edges.339
	movq	rgn_bb_table(%rip), %r8	# rgn_bb_table, rgn_bb_table.340
	movq	block_to_bb(%rip), %r9	# block_to_bb, block_to_bb.341
	movq	basic_block_for_insn(%rip), %rdx	# basic_block_for_insn, basic_block_for_insn.342
	movq	-8(%rbp), %rcx	# next, tmp197
	movl	8(%rcx), %ecx	# next_10->fld[0].rtint, D.15736
	movslq	%ecx, %rcx	# D.15736, tmp198
	addq	$4, %rcx	#, tmp199
	movq	(%rdx,%rcx,8), %rdx	# basic_block_for_insn.342_60->data.bb, D.15739
	movl	88(%rdx), %edx	# _62->index, D.15736
	movslq	%edx, %rdx	# D.15736, D.15737
	salq	$2, %rdx	#, D.15737
	addq	%r9, %rdx	# block_to_bb.341, D.15740
	movl	(%rdx), %ecx	# *_66, D.15736
	movl	current_blocks(%rip), %edx	# current_blocks, current_blocks.343
	addl	%ecx, %edx	# D.15736, D.15736
	movslq	%edx, %rdx	# D.15736, D.15737
	salq	$2, %rdx	#, D.15737
	addq	%r8, %rdx	# rgn_bb_table.340, D.15740
	movl	(%rdx), %edx	# *_72, D.15736
	movslq	%edx, %rdx	# D.15736, D.15737
	salq	$2, %rdx	#, D.15737
	addq	%rdi, %rdx	# in_edges.339, D.15740
	movl	(%rdx), %edx	# *_76, D.15736
	movslq	%edx, %rdx	# D.15736, D.15737
	salq	$2, %rdx	#, D.15737
	addq	%rsi, %rdx	# edge_to_bit.338, D.15740
	movl	(%rdx), %edx	# *_80, D.15736
	shrl	$6, %edx	#, D.15743
	movl	%edx, %edx	# D.15743, tmp200
	addq	$2, %rdx	#, tmp201
	movq	(%rax,%rdx,8), %rsi	# _55->elms, D.15737
	movq	edge_to_bit(%rip), %rcx	# edge_to_bit, edge_to_bit.344
	movq	in_edges(%rip), %rdi	# in_edges, in_edges.345
	movq	rgn_bb_table(%rip), %r8	# rgn_bb_table, rgn_bb_table.346
	movq	block_to_bb(%rip), %r9	# block_to_bb, block_to_bb.347
	movq	basic_block_for_insn(%rip), %rax	# basic_block_for_insn, basic_block_for_insn.348
	movq	-8(%rbp), %rdx	# next, tmp202
	movl	8(%rdx), %edx	# next_10->fld[0].rtint, D.15736
	movslq	%edx, %rdx	# D.15736, tmp203
	addq	$4, %rdx	#, tmp204
	movq	(%rax,%rdx,8), %rax	# basic_block_for_insn.348_89->data.bb, D.15739
	movl	88(%rax), %eax	# _91->index, D.15736
	cltq
	salq	$2, %rax	#, D.15737
	addq	%r9, %rax	# block_to_bb.347, D.15740
	movl	(%rax), %edx	# *_95, D.15736
	movl	current_blocks(%rip), %eax	# current_blocks, current_blocks.349
	addl	%edx, %eax	# D.15736, D.15736
	cltq
	salq	$2, %rax	#, D.15737
	addq	%r8, %rax	# rgn_bb_table.346, D.15740
	movl	(%rax), %eax	# *_101, D.15736
	cltq
	salq	$2, %rax	#, D.15737
	addq	%rdi, %rax	# in_edges.345, D.15740
	movl	(%rax), %eax	# *_105, D.15736
	cltq
	salq	$2, %rax	#, D.15737
	addq	%rcx, %rax	# edge_to_bit.344, D.15740
	movl	(%rax), %eax	# *_109, D.15736
	andl	$63, %eax	#, D.15736
	movl	%eax, %ecx	# D.15736, tmp216
	shrq	%cl, %rsi	# tmp216, D.15737
	movq	%rsi, %rax	# D.15737, D.15737
	andl	$1, %eax	#, D.15737
	testq	%rax, %rax	# D.15737
	je	.L269	#,
.L270:
	.loc 1 1607 0 is_stmt 1
	movq	block_to_bb(%rip), %rcx	# block_to_bb, block_to_bb.350
	movq	basic_block_for_insn(%rip), %rax	# basic_block_for_insn, basic_block_for_insn.351
	movq	-8(%rbp), %rdx	# next, tmp205
	movl	8(%rdx), %edx	# next_10->fld[0].rtint, D.15736
	movslq	%edx, %rdx	# D.15736, tmp206
	addq	$4, %rdx	#, tmp207
	movq	(%rax,%rdx,8), %rax	# basic_block_for_insn.351_115->data.bb, D.15739
	movl	88(%rax), %eax	# _117->index, D.15736
	cltq
	salq	$2, %rax	#, D.15737
	addq	%rcx, %rax	# block_to_bb.350, D.15740
	movl	(%rax), %eax	# *_121, D.15736
	cmpl	-28(%rbp), %eax	# load_insn_bb, D.15736
	je	.L269	#,
	.loc 1 1608 0
	movq	-16(%rbp), %rax	# link, tmp208
	movzbl	2(%rax), %eax	# link_1->mode, D.15744
	testb	%al, %al	# D.15744
	jne	.L269	#,
	.loc 1 1609 0
	movq	-8(%rbp), %rax	# next, tmp209
	movzwl	(%rax), %eax	# next_10->code, D.15745
	cmpw	$33, %ax	#, D.15745
	je	.L271	#,
	.loc 1 1610 0
	movl	-28(%rbp), %edx	# load_insn_bb, tmp210
	movq	-8(%rbp), %rax	# next, tmp211
	movl	%edx, %esi	# tmp210,
	movq	%rax, %rdi	# tmp211,
	call	find_conditional_protection	#
	testl	%eax, %eax	# D.15736
	je	.L269	#,
.L271:
	.loc 1 1611 0
	movl	$1, %eax	#, D.15736
	jmp	.L272	#
.L269:
.LBE28:
	.loc 1 1601 0
	movq	-16(%rbp), %rax	# link, tmp212
	movq	16(%rax), %rax	# link_1->fld[1].rtx, tmp213
	movq	%rax, -16(%rbp)	# tmp213, link
.L268:
	.loc 1 1601 0 is_stmt 0 discriminator 1
	cmpq	$0, -16(%rbp)	#, link
	jne	.L273	#,
	.loc 1 1613 0 is_stmt 1
	movl	$0, %eax	#, D.15736
.L272:
	.loc 1 1614 0
	leave
	.cfi_def_cfa 7, 8
	ret
	.cfi_endproc
.LFE20:
	.size	find_conditional_protection, .-find_conditional_protection
	.type	is_conditionally_protected, @function
is_conditionally_protected:
.LFB21:
	.loc 1 1634 0
	.cfi_startproc
	pushq	%rbp	#
	.cfi_def_cfa_offset 16
	.cfi_offset 6, -16
	movq	%rsp, %rbp	#,
	.cfi_def_cfa_register 6
	subq	$32, %rsp	#,
	movq	%rdi, -24(%rbp)	# load_insn, load_insn
	movl	%esi, -28(%rbp)	# bb_src, bb_src
	movl	%edx, -32(%rbp)	# bb_trg, bb_trg
	.loc 1 1637 0
	movq	-24(%rbp), %rax	# load_insn, tmp238
	movq	48(%rax), %rax	# load_insn_3(D)->fld[5].rtx, tmp239
	movq	%rax, -16(%rbp)	# tmp239, link
	jmp	.L275	#
.L283:
.LBB29:
	.loc 1 1639 0
	movq	-16(%rbp), %rax	# link, tmp240
	movq	8(%rax), %rax	# link_1->fld[0].rtx, tmp241
	movq	%rax, -8(%rbp)	# tmp241, insn1
	.loc 1 1642 0
	movq	-16(%rbp), %rax	# link, tmp242
	movzbl	2(%rax), %eax	# link_1->mode, D.15747
	testb	%al, %al	# D.15747
	jne	.L276	#,
	.loc 1 1643 0
	movq	-8(%rbp), %rax	# insn1, tmp243
	movzwl	(%rax), %eax	# insn1_5->code, D.15748
	cmpw	$33, %ax	#, D.15748
	jne	.L277	#,
.L276:
	.loc 1 1644 0
	jmp	.L278	#
.L277:
	.loc 1 1647 0
	movq	block_to_bb(%rip), %rcx	# block_to_bb, block_to_bb.352
	movq	basic_block_for_insn(%rip), %rax	# basic_block_for_insn, basic_block_for_insn.353
	movq	-8(%rbp), %rdx	# insn1, tmp244
	movl	8(%rdx), %edx	# insn1_5->fld[0].rtint, D.15746
	movslq	%edx, %rdx	# D.15746, tmp245
	addq	$4, %rdx	#, tmp246
	movq	(%rax,%rdx,8), %rax	# basic_block_for_insn.353_9->data.bb, D.15749
	movl	88(%rax), %eax	# _11->index, D.15746
	cltq
	salq	$2, %rax	#, D.15750
	addq	%rcx, %rax	# block_to_bb.352, D.15751
	movl	(%rax), %eax	# *_15, D.15746
	cmpl	-28(%rbp), %eax	# bb_src, D.15746
	je	.L279	#,
	.loc 1 1648 0
	movq	containing_rgn(%rip), %rcx	# containing_rgn, containing_rgn.354
	movq	basic_block_for_insn(%rip), %rax	# basic_block_for_insn, basic_block_for_insn.355
	movq	-8(%rbp), %rdx	# insn1, tmp247
	movl	8(%rdx), %edx	# insn1_5->fld[0].rtint, D.15746
	movslq	%edx, %rdx	# D.15746, tmp248
	addq	$4, %rdx	#, tmp249
	movq	(%rax,%rdx,8), %rax	# basic_block_for_insn.355_19->data.bb, D.15749
	movl	88(%rax), %eax	# _21->index, D.15746
	cltq
	salq	$2, %rax	#, D.15750
	addq	%rcx, %rax	# containing_rgn.354, D.15751
	movl	(%rax), %edx	# *_25, D.15746
	.loc 1 1649 0
	movq	containing_rgn(%rip), %rax	# containing_rgn, containing_rgn.356
	movq	rgn_bb_table(%rip), %rcx	# rgn_bb_table, rgn_bb_table.357
	movl	current_blocks(%rip), %edi	# current_blocks, current_blocks.358
	movl	-28(%rbp), %esi	# bb_src, tmp250
	addl	%edi, %esi	# current_blocks.358, D.15746
	movslq	%esi, %rsi	# D.15746, D.15750
	salq	$2, %rsi	#, D.15750
	addq	%rsi, %rcx	# D.15750, D.15751
	movl	(%rcx), %ecx	# *_33, D.15746
	movslq	%ecx, %rcx	# D.15746, D.15750
	salq	$2, %rcx	#, D.15750
	addq	%rcx, %rax	# D.15750, D.15751
	movl	(%rax), %eax	# *_37, D.15746
	.loc 1 1648 0
	cmpl	%eax, %edx	# D.15746, D.15746
	jne	.L279	#,
	.loc 1 1650 0
	movq	block_to_bb(%rip), %rcx	# block_to_bb, block_to_bb.359
	movq	basic_block_for_insn(%rip), %rax	# basic_block_for_insn, basic_block_for_insn.360
	movq	-8(%rbp), %rdx	# insn1, tmp251
	movl	8(%rdx), %edx	# insn1_5->fld[0].rtint, D.15746
	movslq	%edx, %rdx	# D.15746, tmp252
	addq	$4, %rdx	#, tmp253
	movq	(%rax,%rdx,8), %rax	# basic_block_for_insn.360_40->data.bb, D.15749
	movl	88(%rax), %eax	# _42->index, D.15746
	cltq
	salq	$2, %rax	#, D.15750
	addq	%rcx, %rax	# block_to_bb.359, D.15751
	movl	(%rax), %eax	# *_46, D.15746
	cmpl	-32(%rbp), %eax	# bb_trg, D.15746
	je	.L280	#,
	.loc 1 1650 0 is_stmt 0 discriminator 1
	cmpl	$0, -32(%rbp)	#, bb_trg
	je	.L280	#,
	movq	ancestor_edges(%rip), %rcx	# ancestor_edges, ancestor_edges.361
	movq	block_to_bb(%rip), %rsi	# block_to_bb, block_to_bb.362
	movq	basic_block_for_insn(%rip), %rax	# basic_block_for_insn, basic_block_for_insn.363
	movq	-8(%rbp), %rdx	# insn1, tmp254
	movl	8(%rdx), %edx	# insn1_5->fld[0].rtint, D.15746
	movslq	%edx, %rdx	# D.15746, tmp255
	addq	$4, %rdx	#, tmp256
	movq	(%rax,%rdx,8), %rax	# basic_block_for_insn.363_51->data.bb, D.15749
	movl	88(%rax), %eax	# _53->index, D.15746
	cltq
	salq	$2, %rax	#, D.15750
	addq	%rsi, %rax	# block_to_bb.362, D.15751
	movl	(%rax), %eax	# *_57, D.15746
	cltq
	salq	$3, %rax	#, D.15750
	addq	%rcx, %rax	# ancestor_edges.361, D.15752
	movq	(%rax), %rax	# *_61, D.15753
	movq	edge_to_bit(%rip), %rdx	# edge_to_bit, edge_to_bit.364
	movq	in_edges(%rip), %rcx	# in_edges, in_edges.365
	movq	rgn_bb_table(%rip), %rsi	# rgn_bb_table, rgn_bb_table.366
	movl	current_blocks(%rip), %r8d	# current_blocks, current_blocks.367
	movl	-32(%rbp), %edi	# bb_trg, tmp257
	addl	%r8d, %edi	# current_blocks.367, D.15746
	movslq	%edi, %rdi	# D.15746, D.15750
	salq	$2, %rdi	#, D.15750
	addq	%rdi, %rsi	# D.15750, D.15751
	movl	(%rsi), %esi	# *_70, D.15746
	movslq	%esi, %rsi	# D.15746, D.15750
	salq	$2, %rsi	#, D.15750
	addq	%rsi, %rcx	# D.15750, D.15751
	movl	(%rcx), %ecx	# *_74, D.15746
	movslq	%ecx, %rcx	# D.15746, D.15750
	salq	$2, %rcx	#, D.15750
	addq	%rcx, %rdx	# D.15750, D.15751
	movl	(%rdx), %edx	# *_78, D.15746
	shrl	$6, %edx	#, D.15754
	movl	%edx, %edx	# D.15754, tmp258
	addq	$2, %rdx	#, tmp259
	movq	(%rax,%rdx,8), %rdx	# _62->elms, D.15750
	movq	edge_to_bit(%rip), %rax	# edge_to_bit, edge_to_bit.368
	movq	in_edges(%rip), %rcx	# in_edges, in_edges.369
	movq	rgn_bb_table(%rip), %rsi	# rgn_bb_table, rgn_bb_table.370
	movl	current_blocks(%rip), %r8d	# current_blocks, current_blocks.371
	movl	-32(%rbp), %edi	# bb_trg, tmp260
	addl	%r8d, %edi	# current_blocks.371, D.15746
	movslq	%edi, %rdi	# D.15746, D.15750
	salq	$2, %rdi	#, D.15750
	addq	%rdi, %rsi	# D.15750, D.15751
	movl	(%rsi), %esi	# *_90, D.15746
	movslq	%esi, %rsi	# D.15746, D.15750
	salq	$2, %rsi	#, D.15750
	addq	%rsi, %rcx	# D.15750, D.15751
	movl	(%rcx), %ecx	# *_94, D.15746
	movslq	%ecx, %rcx	# D.15746, D.15750
	salq	$2, %rcx	#, D.15750
	addq	%rcx, %rax	# D.15750, D.15751
	movl	(%rax), %eax	# *_98, D.15746
	andl	$63, %eax	#, D.15746
	movl	%eax, %ecx	# D.15746, tmp285
	shrq	%cl, %rdx	# tmp285, D.15750
	movq	%rdx, %rax	# D.15750, D.15750
	andl	$1, %eax	#, D.15750
	testq	%rax, %rax	# D.15750
	jne	.L280	#,
	.loc 1 1651 0 is_stmt 1
	movq	block_to_bb(%rip), %rcx	# block_to_bb, block_to_bb.372
	movq	basic_block_for_insn(%rip), %rax	# basic_block_for_insn, basic_block_for_insn.373
	movq	-8(%rbp), %rdx	# insn1, tmp261
	movl	8(%rdx), %edx	# insn1_5->fld[0].rtint, D.15746
	movslq	%edx, %rdx	# D.15746, tmp262
	addq	$4, %rdx	#, tmp263
	movq	(%rax,%rdx,8), %rax	# basic_block_for_insn.373_104->data.bb, D.15749
	movl	88(%rax), %eax	# _106->index, D.15746
	cltq
	salq	$2, %rax	#, D.15750
	addq	%rcx, %rax	# block_to_bb.372, D.15751
	movl	(%rax), %eax	# *_110, D.15746
	cmpl	-32(%rbp), %eax	# bb_trg, D.15746
	je	.L280	#,
	.loc 1 1651 0 is_stmt 0 discriminator 1
	movq	block_to_bb(%rip), %rcx	# block_to_bb, block_to_bb.374
	movq	basic_block_for_insn(%rip), %rax	# basic_block_for_insn, basic_block_for_insn.375
	movq	-8(%rbp), %rdx	# insn1, tmp264
	movl	8(%rdx), %edx	# insn1_5->fld[0].rtint, D.15746
	movslq	%edx, %rdx	# D.15746, tmp265
	addq	$4, %rdx	#, tmp266
	movq	(%rax,%rdx,8), %rax	# basic_block_for_insn.375_113->data.bb, D.15749
	movl	88(%rax), %eax	# _115->index, D.15746
	cltq
	salq	$2, %rax	#, D.15750
	addq	%rcx, %rax	# block_to_bb.374, D.15751
	movl	(%rax), %eax	# *_119, D.15746
	testl	%eax, %eax	# D.15746
	je	.L280	#,
	movq	ancestor_edges(%rip), %rax	# ancestor_edges, ancestor_edges.376
	movl	-32(%rbp), %edx	# bb_trg, tmp267
	movslq	%edx, %rdx	# tmp267, D.15750
	salq	$3, %rdx	#, D.15750
	addq	%rdx, %rax	# D.15750, D.15752
	movq	(%rax), %rax	# *_124, D.15753
	movq	edge_to_bit(%rip), %rsi	# edge_to_bit, edge_to_bit.377
	movq	in_edges(%rip), %rdi	# in_edges, in_edges.378
	movq	rgn_bb_table(%rip), %r8	# rgn_bb_table, rgn_bb_table.379
	movq	block_to_bb(%rip), %r9	# block_to_bb, block_to_bb.380
	movq	basic_block_for_insn(%rip), %rdx	# basic_block_for_insn, basic_block_for_insn.381
	movq	-8(%rbp), %rcx	# insn1, tmp268
	movl	8(%rcx), %ecx	# insn1_5->fld[0].rtint, D.15746
	movslq	%ecx, %rcx	# D.15746, tmp269
	addq	$4, %rcx	#, tmp270
	movq	(%rdx,%rcx,8), %rdx	# basic_block_for_insn.381_130->data.bb, D.15749
	movl	88(%rdx), %edx	# _132->index, D.15746
	movslq	%edx, %rdx	# D.15746, D.15750
	salq	$2, %rdx	#, D.15750
	addq	%r9, %rdx	# block_to_bb.380, D.15751
	movl	(%rdx), %ecx	# *_136, D.15746
	movl	current_blocks(%rip), %edx	# current_blocks, current_blocks.382
	addl	%ecx, %edx	# D.15746, D.15746
	movslq	%edx, %rdx	# D.15746, D.15750
	salq	$2, %rdx	#, D.15750
	addq	%r8, %rdx	# rgn_bb_table.379, D.15751
	movl	(%rdx), %edx	# *_142, D.15746
	movslq	%edx, %rdx	# D.15746, D.15750
	salq	$2, %rdx	#, D.15750
	addq	%rdi, %rdx	# in_edges.378, D.15751
	movl	(%rdx), %edx	# *_146, D.15746
	movslq	%edx, %rdx	# D.15746, D.15750
	salq	$2, %rdx	#, D.15750
	addq	%rsi, %rdx	# edge_to_bit.377, D.15751
	movl	(%rdx), %edx	# *_150, D.15746
	shrl	$6, %edx	#, D.15754
	movl	%edx, %edx	# D.15754, tmp271
	addq	$2, %rdx	#, tmp272
	movq	(%rax,%rdx,8), %rsi	# _125->elms, D.15750
	movq	edge_to_bit(%rip), %rcx	# edge_to_bit, edge_to_bit.383
	movq	in_edges(%rip), %rdi	# in_edges, in_edges.384
	movq	rgn_bb_table(%rip), %r8	# rgn_bb_table, rgn_bb_table.385
	movq	block_to_bb(%rip), %r9	# block_to_bb, block_to_bb.386
	movq	basic_block_for_insn(%rip), %rax	# basic_block_for_insn, basic_block_for_insn.387
	movq	-8(%rbp), %rdx	# insn1, tmp273
	movl	8(%rdx), %edx	# insn1_5->fld[0].rtint, D.15746
	movslq	%edx, %rdx	# D.15746, tmp274
	addq	$4, %rdx	#, tmp275
	movq	(%rax,%rdx,8), %rax	# basic_block_for_insn.387_159->data.bb, D.15749
	movl	88(%rax), %eax	# _161->index, D.15746
	cltq
	salq	$2, %rax	#, D.15750
	addq	%r9, %rax	# block_to_bb.386, D.15751
	movl	(%rax), %edx	# *_165, D.15746
	movl	current_blocks(%rip), %eax	# current_blocks, current_blocks.388
	addl	%edx, %eax	# D.15746, D.15746
	cltq
	salq	$2, %rax	#, D.15750
	addq	%r8, %rax	# rgn_bb_table.385, D.15751
	movl	(%rax), %eax	# *_171, D.15746
	cltq
	salq	$2, %rax	#, D.15750
	addq	%rdi, %rax	# in_edges.384, D.15751
	movl	(%rax), %eax	# *_175, D.15746
	cltq
	salq	$2, %rax	#, D.15750
	addq	%rcx, %rax	# edge_to_bit.383, D.15751
	movl	(%rax), %eax	# *_179, D.15746
	andl	$63, %eax	#, D.15746
	movl	%eax, %ecx	# D.15746, tmp287
	shrq	%cl, %rsi	# tmp287, D.15750
	movq	%rsi, %rax	# D.15750, D.15750
	andl	$1, %eax	#, D.15750
	testq	%rax, %rax	# D.15750
	jne	.L280	#,
.L279:
	.loc 1 1652 0 is_stmt 1
	jmp	.L278	#
.L280:
	.loc 1 1655 0
	movl	-28(%rbp), %edx	# bb_src, tmp276
	movq	-8(%rbp), %rax	# insn1, tmp277
	movl	%edx, %esi	# tmp276,
	movq	%rax, %rdi	# tmp277,
	call	find_conditional_protection	#
	testl	%eax, %eax	# D.15746
	je	.L281	#,
	.loc 1 1656 0
	movl	$1, %eax	#, D.15746
	jmp	.L282	#
.L281:
	.loc 1 1659 0
	movl	-32(%rbp), %edx	# bb_trg, tmp278
	movl	-28(%rbp), %ecx	# bb_src, tmp279
	movq	-8(%rbp), %rax	# insn1, tmp280
	movl	%ecx, %esi	# tmp279,
	movq	%rax, %rdi	# tmp280,
	call	is_conditionally_protected	#
	jmp	.L282	#
.L278:
.LBE29:
	.loc 1 1637 0
	movq	-16(%rbp), %rax	# link, tmp281
	movq	16(%rax), %rax	# link_1->fld[1].rtx, tmp282
	movq	%rax, -16(%rbp)	# tmp282, link
.L275:
	.loc 1 1637 0 is_stmt 0 discriminator 1
	cmpq	$0, -16(%rbp)	#, link
	jne	.L283	#,
	.loc 1 1663 0 is_stmt 1
	movl	$0, %eax	#, D.15746
.L282:
	.loc 1 1664 0
	leave
	.cfi_def_cfa 7, 8
	ret
	.cfi_endproc
.LFE21:
	.size	is_conditionally_protected, .-is_conditionally_protected
	.type	is_pfree, @function
is_pfree:
.LFB22:
	.loc 1 1686 0
	.cfi_startproc
	pushq	%rbp	#
	.cfi_def_cfa_offset 16
	.cfi_offset 6, -16
	movq	%rsp, %rbp	#,
	.cfi_def_cfa_register 6
	subq	$64, %rsp	#,
	movq	%rdi, -56(%rbp)	# load_insn, load_insn
	movl	%esi, -60(%rbp)	# bb_src, bb_src
	movl	%edx, -64(%rbp)	# bb_trg, bb_trg
	.loc 1 1688 0
	movq	candidate_table(%rip), %rcx	# candidate_table, candidate_table.389
	movl	-60(%rbp), %eax	# bb_src, tmp88
	movslq	%eax, %rdx	# tmp88, D.15756
	movq	%rdx, %rax	# D.15756, tmp89
	salq	$2, %rax	#, tmp89
	addq	%rdx, %rax	# D.15756, tmp89
	salq	$3, %rax	#, tmp90
	addq	%rcx, %rax	# candidate_table.389, tmp91
	movq	%rax, -24(%rbp)	# tmp91, candp
	.loc 1 1690 0
	movq	-24(%rbp), %rax	# candp, tmp92
	movl	16(%rax), %eax	# candp_8->split_bbs.nr_members, D.15755
	cmpl	$1, %eax	#, D.15755
	je	.L285	#,
	.loc 1 1692 0
	movl	$0, %eax	#, D.15755
	jmp	.L286	#
.L285:
	.loc 1 1694 0
	movq	-56(%rbp), %rax	# load_insn, tmp93
	movq	48(%rax), %rax	# load_insn_11(D)->fld[5].rtx, tmp94
	movq	%rax, -40(%rbp)	# tmp94, back_link
	jmp	.L287	#
.L294:
.LBB30:
	.loc 1 1697 0
	movq	-40(%rbp), %rax	# back_link, tmp95
	movq	8(%rax), %rax	# back_link_1->fld[0].rtx, tmp96
	movq	%rax, -16(%rbp)	# tmp96, insn1
	.loc 1 1699 0
	movq	-40(%rbp), %rax	# back_link, tmp97
	movzbl	2(%rax), %eax	# back_link_1->mode, D.15757
	testb	%al, %al	# D.15757
	jne	.L288	#,
.LBB31:
	.loc 1 1704 0
	movq	h_i_d(%rip), %rcx	# h_i_d, h_i_d.390
	movq	-16(%rbp), %rax	# insn1, tmp98
	movl	8(%rax), %eax	# insn1_13->fld[0].rtint, D.15755
	movslq	%eax, %rdx	# D.15755, D.15756
	movq	%rdx, %rax	# D.15756, tmp99
	addq	%rax, %rax	# tmp99
	addq	%rdx, %rax	# D.15756, tmp99
	salq	$4, %rax	#, tmp100
	addq	%rcx, %rax	# h_i_d.390, D.15758
	movq	(%rax), %rax	# _19->depend, tmp101
	movq	%rax, -32(%rbp)	# tmp101, fore_link
	jmp	.L289	#
.L293:
.LBB32:
	.loc 1 1707 0
	movq	-32(%rbp), %rax	# fore_link, tmp102
	movq	8(%rax), %rax	# fore_link_2->fld[0].rtx, tmp103
	movq	%rax, -8(%rbp)	# tmp103, insn2
	.loc 1 1708 0
	movq	-32(%rbp), %rax	# fore_link, tmp104
	movzbl	2(%rax), %eax	# fore_link_2->mode, D.15757
	testb	%al, %al	# D.15757
	jne	.L290	#,
	.loc 1 1711 0
	movq	-8(%rbp), %rax	# insn2, tmp105
	movq	%rax, %rdi	# tmp105,
	call	haifa_classify_insn	#
	cmpl	$2, %eax	#, D.15755
	je	.L291	#,
	.loc 1 1713 0
	jmp	.L290	#
.L291:
	.loc 1 1715 0
	movq	block_to_bb(%rip), %rcx	# block_to_bb, block_to_bb.391
	movq	basic_block_for_insn(%rip), %rax	# basic_block_for_insn, basic_block_for_insn.392
	movq	-8(%rbp), %rdx	# insn2, tmp106
	movl	8(%rdx), %edx	# insn2_21->fld[0].rtint, D.15755
	movslq	%edx, %rdx	# D.15755, tmp107
	addq	$4, %rdx	#, tmp108
	movq	(%rax,%rdx,8), %rax	# basic_block_for_insn.392_25->data.bb, D.15759
	movl	88(%rax), %eax	# _27->index, D.15755
	cltq
	salq	$2, %rax	#, D.15756
	addq	%rcx, %rax	# block_to_bb.391, D.15760
	movl	(%rax), %eax	# *_31, D.15755
	cmpl	-64(%rbp), %eax	# bb_trg, D.15755
	jne	.L292	#,
	.loc 1 1717 0
	movl	$1, %eax	#, D.15755
	jmp	.L286	#
.L292:
	.loc 1 1719 0
	movq	-24(%rbp), %rax	# candp, tmp109
	movq	8(%rax), %rax	# candp_8->split_bbs.first_member, D.15760
	movl	(%rax), %ecx	# *_35, D.15755
	movq	basic_block_for_insn(%rip), %rax	# basic_block_for_insn, basic_block_for_insn.393
	movq	-8(%rbp), %rdx	# insn2, tmp110
	movl	8(%rdx), %edx	# insn2_21->fld[0].rtint, D.15755
	movslq	%edx, %rdx	# D.15755, tmp111
	addq	$4, %rdx	#, tmp112
	movq	(%rax,%rdx,8), %rax	# basic_block_for_insn.393_37->data.bb, D.15759
	movl	88(%rax), %eax	# _39->index, D.15755
	cmpl	%eax, %ecx	# D.15755, D.15755
	jne	.L290	#,
	.loc 1 1721 0
	movl	$1, %eax	#, D.15755
	jmp	.L286	#
.L290:
.LBE32:
	.loc 1 1705 0
	movq	-32(%rbp), %rax	# fore_link, tmp113
	movq	16(%rax), %rax	# fore_link_2->fld[1].rtx, tmp114
	movq	%rax, -32(%rbp)	# tmp114, fore_link
.L289:
	.loc 1 1704 0 discriminator 1
	cmpq	$0, -32(%rbp)	#, fore_link
	jne	.L293	#,
.L288:
.LBE31:
.LBE30:
	.loc 1 1695 0
	movq	-40(%rbp), %rax	# back_link, tmp115
	movq	16(%rax), %rax	# back_link_1->fld[1].rtx, tmp116
	movq	%rax, -40(%rbp)	# tmp116, back_link
.L287:
	.loc 1 1694 0 discriminator 1
	cmpq	$0, -40(%rbp)	#, back_link
	jne	.L294	#,
	.loc 1 1728 0
	movl	$0, %eax	#, D.15755
.L286:
	.loc 1 1729 0
	leave
	.cfi_def_cfa 7, 8
	ret
	.cfi_endproc
.LFE22:
	.size	is_pfree, .-is_pfree
	.type	may_trap_exp, @function
may_trap_exp:
.LFB23:
	.loc 1 1738 0
	.cfi_startproc
	pushq	%rbp	#
	.cfi_def_cfa_offset 16
	.cfi_offset 6, -16
	movq	%rsp, %rbp	#,
	.cfi_def_cfa_register 6
	subq	$48, %rsp	#,
	movq	%rdi, -40(%rbp)	# x, x
	movl	%esi, -44(%rbp)	# is_store, is_store
	.loc 1 1741 0
	cmpq	$0, -40(%rbp)	#, x
	jne	.L296	#,
	.loc 1 1742 0
	movl	$0, %eax	#, D.15761
	jmp	.L297	#
.L296:
	.loc 1 1743 0
	movq	-40(%rbp), %rax	# x, tmp138
	movzwl	(%rax), %eax	# x_8(D)->code, D.15762
	movzwl	%ax, %eax	# D.15762, tmp139
	movl	%eax, -20(%rbp)	# tmp139, code
	.loc 1 1744 0
	cmpl	$0, -44(%rbp)	#, is_store
	je	.L298	#,
	.loc 1 1746 0
	cmpl	$66, -20(%rbp)	#, code
	jne	.L299	#,
	.loc 1 1746 0 is_stmt 0 discriminator 1
	movq	-40(%rbp), %rax	# x, tmp140
	movq	%rax, %rdi	# tmp140,
	call	may_trap_p	#
	testl	%eax, %eax	# D.15761
	je	.L299	#,
	.loc 1 1747 0 is_stmt 1
	movl	$5, %eax	#, D.15761
	jmp	.L297	#
.L299:
	.loc 1 1749 0
	movl	$0, %eax	#, D.15761
	jmp	.L297	#
.L298:
	.loc 1 1751 0
	cmpl	$66, -20(%rbp)	#, code
	jne	.L300	#,
	.loc 1 1754 0
	movq	-40(%rbp), %rax	# x, tmp141
	movzbl	3(%rax), %eax	# *x_8(D), D.15763
	andl	$8, %eax	#, D.15763
	testb	%al, %al	# D.15763
	je	.L301	#,
	.loc 1 1755 0
	movl	$4, %eax	#, D.15761
	jmp	.L297	#
.L301:
	.loc 1 1757 0
	movq	-40(%rbp), %rax	# x, tmp142
	movq	%rax, %rdi	# tmp142,
	call	may_trap_p	#
	testl	%eax, %eax	# D.15761
	jne	.L302	#,
	.loc 1 1758 0
	movl	$1, %eax	#, D.15761
	jmp	.L297	#
.L302:
	.loc 1 1760 0
	movq	-40(%rbp), %rax	# x, tmp143
	movq	8(%rax), %rax	# x_8(D)->fld[0].rtx, D.15764
	movzwl	(%rax), %eax	# _21->code, D.15762
	cmpw	$61, %ax	#, D.15762
	je	.L303	#,
	.loc 1 1760 0 is_stmt 0 discriminator 1
	movq	-40(%rbp), %rax	# x, tmp144
	movq	8(%rax), %rax	# x_8(D)->fld[0].rtx, D.15764
	movzwl	(%rax), %eax	# _23->code, D.15762
	cmpw	$75, %ax	#, D.15762
	je	.L304	#,
	.loc 1 1760 0 discriminator 2
	movq	-40(%rbp), %rax	# x, tmp145
	movq	8(%rax), %rax	# x_8(D)->fld[0].rtx, D.15764
	movzwl	(%rax), %eax	# _25->code, D.15762
	cmpw	$76, %ax	#, D.15762
	je	.L304	#,
	.loc 1 1760 0 discriminator 1
	movq	-40(%rbp), %rax	# x, tmp146
	movq	8(%rax), %rax	# x_8(D)->fld[0].rtx, D.15764
	movzwl	(%rax), %eax	# _27->code, D.15762
	cmpw	$135, %ax	#, D.15762
	jne	.L305	#,
.L304:
	movq	-40(%rbp), %rax	# x, tmp147
	movq	8(%rax), %rax	# x_8(D)->fld[0].rtx, D.15764
	movq	8(%rax), %rax	# _29->fld[0].rtx, D.15764
	movzwl	(%rax), %eax	# _30->code, D.15762
	cmpw	$67, %ax	#, D.15762
	je	.L303	#,
	movq	-40(%rbp), %rax	# x, tmp148
	movq	8(%rax), %rax	# x_8(D)->fld[0].rtx, D.15764
	movq	8(%rax), %rax	# _32->fld[0].rtx, D.15764
	movzwl	(%rax), %eax	# _33->code, D.15762
	cmpw	$68, %ax	#, D.15762
	je	.L303	#,
	movq	-40(%rbp), %rax	# x, tmp149
	movq	8(%rax), %rax	# x_8(D)->fld[0].rtx, D.15764
	movq	8(%rax), %rax	# _35->fld[0].rtx, D.15764
	movzwl	(%rax), %eax	# _36->code, D.15762
	cmpw	$54, %ax	#, D.15762
	je	.L303	#,
	movq	-40(%rbp), %rax	# x, tmp150
	movq	8(%rax), %rax	# x_8(D)->fld[0].rtx, D.15764
	movq	8(%rax), %rax	# _38->fld[0].rtx, D.15764
	movzwl	(%rax), %eax	# _39->code, D.15762
	cmpw	$55, %ax	#, D.15762
	je	.L303	#,
	movq	-40(%rbp), %rax	# x, tmp151
	movq	8(%rax), %rax	# x_8(D)->fld[0].rtx, D.15764
	movq	8(%rax), %rax	# _41->fld[0].rtx, D.15764
	movzwl	(%rax), %eax	# _42->code, D.15762
	cmpw	$58, %ax	#, D.15762
	je	.L303	#,
	movq	-40(%rbp), %rax	# x, tmp152
	movq	8(%rax), %rax	# x_8(D)->fld[0].rtx, D.15764
	movq	8(%rax), %rax	# _44->fld[0].rtx, D.15764
	movzwl	(%rax), %eax	# _45->code, D.15762
	cmpw	$134, %ax	#, D.15762
	je	.L303	#,
	movq	-40(%rbp), %rax	# x, tmp153
	movq	8(%rax), %rax	# x_8(D)->fld[0].rtx, D.15764
	movq	8(%rax), %rax	# _47->fld[0].rtx, D.15764
	movzwl	(%rax), %eax	# _48->code, D.15762
	cmpw	$56, %ax	#, D.15762
	je	.L303	#,
	movq	-40(%rbp), %rax	# x, tmp154
	movq	8(%rax), %rax	# x_8(D)->fld[0].rtx, D.15764
	movq	8(%rax), %rax	# _50->fld[0].rtx, D.15764
	movzwl	(%rax), %eax	# _51->code, D.15762
	cmpw	$140, %ax	#, D.15762
	je	.L303	#,
	movq	-40(%rbp), %rax	# x, tmp155
	movq	8(%rax), %rax	# x_8(D)->fld[0].rtx, D.15764
	movq	16(%rax), %rax	# _53->fld[1].rtx, D.15764
	movzwl	(%rax), %eax	# _54->code, D.15762
	cmpw	$67, %ax	#, D.15762
	je	.L303	#,
	movq	-40(%rbp), %rax	# x, tmp156
	movq	8(%rax), %rax	# x_8(D)->fld[0].rtx, D.15764
	movq	16(%rax), %rax	# _56->fld[1].rtx, D.15764
	movzwl	(%rax), %eax	# _57->code, D.15762
	cmpw	$68, %ax	#, D.15762
	je	.L303	#,
	movq	-40(%rbp), %rax	# x, tmp157
	movq	8(%rax), %rax	# x_8(D)->fld[0].rtx, D.15764
	movq	16(%rax), %rax	# _59->fld[1].rtx, D.15764
	movzwl	(%rax), %eax	# _60->code, D.15762
	cmpw	$54, %ax	#, D.15762
	je	.L303	#,
	movq	-40(%rbp), %rax	# x, tmp158
	movq	8(%rax), %rax	# x_8(D)->fld[0].rtx, D.15764
	movq	16(%rax), %rax	# _62->fld[1].rtx, D.15764
	movzwl	(%rax), %eax	# _63->code, D.15762
	cmpw	$55, %ax	#, D.15762
	je	.L303	#,
	movq	-40(%rbp), %rax	# x, tmp159
	movq	8(%rax), %rax	# x_8(D)->fld[0].rtx, D.15764
	movq	16(%rax), %rax	# _65->fld[1].rtx, D.15764
	movzwl	(%rax), %eax	# _66->code, D.15762
	cmpw	$58, %ax	#, D.15762
	je	.L303	#,
	movq	-40(%rbp), %rax	# x, tmp160
	movq	8(%rax), %rax	# x_8(D)->fld[0].rtx, D.15764
	movq	16(%rax), %rax	# _68->fld[1].rtx, D.15764
	movzwl	(%rax), %eax	# _69->code, D.15762
	cmpw	$134, %ax	#, D.15762
	je	.L303	#,
	movq	-40(%rbp), %rax	# x, tmp161
	movq	8(%rax), %rax	# x_8(D)->fld[0].rtx, D.15764
	movq	16(%rax), %rax	# _71->fld[1].rtx, D.15764
	movzwl	(%rax), %eax	# _72->code, D.15762
	cmpw	$56, %ax	#, D.15762
	je	.L303	#,
	movq	-40(%rbp), %rax	# x, tmp162
	movq	8(%rax), %rax	# x_8(D)->fld[0].rtx, D.15764
	movq	16(%rax), %rax	# _74->fld[1].rtx, D.15764
	movzwl	(%rax), %eax	# _75->code, D.15762
	cmpw	$140, %ax	#, D.15762
	jne	.L305	#,
.L303:
	.loc 1 1761 0 is_stmt 1
	movl	$2, %eax	#, D.15761
	jmp	.L297	#
.L305:
	.loc 1 1763 0
	movl	$3, %eax	#, D.15761
	jmp	.L297	#
.L300:
.LBB33:
	.loc 1 1768 0
	movl	$0, -28(%rbp)	#, insn_class
	.loc 1 1771 0
	movq	-40(%rbp), %rax	# x, tmp163
	movq	%rax, %rdi	# tmp163,
	call	may_trap_p	#
	testl	%eax, %eax	# D.15761
	je	.L306	#,
	.loc 1 1772 0
	movl	$5, %eax	#, D.15761
	jmp	.L297	#
.L306:
	.loc 1 1774 0
	movl	-20(%rbp), %eax	# code, code.394
	cltq
	movq	rtx_format(,%rax,8), %rax	# rtx_format, tmp165
	movq	%rax, -8(%rbp)	# tmp165, fmt
	.loc 1 1775 0
	movl	-20(%rbp), %eax	# code, code.395
	cltq
	movzbl	rtx_length(%rax), %eax	# rtx_length, D.15763
	movzbl	%al, %eax	# D.15763, D.15761
	subl	$1, %eax	#, tmp167
	movl	%eax, -32(%rbp)	# tmp167, i
	jmp	.L307	#
.L313:
	.loc 1 1777 0
	movl	-32(%rbp), %eax	# i, tmp168
	movslq	%eax, %rdx	# tmp168, D.15765
	movq	-8(%rbp), %rax	# fmt, tmp169
	addq	%rdx, %rax	# D.15765, D.15766
	movzbl	(%rax), %eax	# *_89, D.15767
	cmpb	$101, %al	#, D.15767
	jne	.L308	#,
.LBB34:
	.loc 1 1779 0
	movq	-40(%rbp), %rax	# x, tmp170
	movl	-32(%rbp), %edx	# i, tmp172
	movslq	%edx, %rdx	# tmp172, tmp171
	movq	8(%rax,%rdx,8), %rax	# x_8(D)->fld[i_1].rtx, D.15764
	movl	-44(%rbp), %edx	# is_store, tmp173
	movl	%edx, %esi	# tmp173,
	movq	%rax, %rdi	# D.15764,
	call	may_trap_exp	#
	movl	%eax, -16(%rbp)	# tmp174, tmp_class
	.loc 1 1780 0
	movl	-28(%rbp), %eax	# insn_class, tmp176
	cmpl	%eax, -16(%rbp)	# tmp176, tmp_class
	cmovge	-16(%rbp), %eax	# tmp_class,, tmp175
	movl	%eax, -28(%rbp)	# tmp175, insn_class
.LBE34:
	jmp	.L309	#
.L308:
	.loc 1 1782 0
	movl	-32(%rbp), %eax	# i, tmp177
	movslq	%eax, %rdx	# tmp177, D.15765
	movq	-8(%rbp), %rax	# fmt, tmp178
	addq	%rdx, %rax	# D.15765, D.15766
	movzbl	(%rax), %eax	# *_95, D.15767
	cmpb	$69, %al	#, D.15767
	jne	.L309	#,
.LBB35:
	.loc 1 1785 0
	movl	$0, -24(%rbp)	#, j
	jmp	.L310	#
.L311:
.LBB36:
	.loc 1 1787 0
	movq	-40(%rbp), %rax	# x, tmp179
	movl	-32(%rbp), %edx	# i, tmp181
	movslq	%edx, %rdx	# tmp181, tmp180
	movq	8(%rax,%rdx,8), %rax	# x_8(D)->fld[i_1].rtvec, D.15768
	movl	-24(%rbp), %edx	# j, tmp183
	movslq	%edx, %rdx	# tmp183, tmp182
	movq	8(%rax,%rdx,8), %rax	# _100->elem, D.15764
	movl	-44(%rbp), %edx	# is_store, tmp184
	movl	%edx, %esi	# tmp184,
	movq	%rax, %rdi	# D.15764,
	call	may_trap_exp	#
	movl	%eax, -12(%rbp)	# tmp185, tmp_class
	.loc 1 1788 0
	movl	-28(%rbp), %eax	# insn_class, tmp187
	cmpl	%eax, -12(%rbp)	# tmp187, tmp_class
	cmovge	-12(%rbp), %eax	# tmp_class,, tmp186
	movl	%eax, -28(%rbp)	# tmp186, insn_class
	.loc 1 1789 0
	cmpl	$5, -28(%rbp)	#, insn_class
	je	.L309	#,
	.loc 1 1789 0 is_stmt 0 discriminator 1
	cmpl	$4, -28(%rbp)	#, insn_class
	je	.L309	#,
.LBE36:
	.loc 1 1785 0 is_stmt 1
	addl	$1, -24(%rbp)	#, j
.L310:
	.loc 1 1785 0 is_stmt 0 discriminator 1
	movq	-40(%rbp), %rax	# x, tmp188
	movl	-32(%rbp), %edx	# i, tmp190
	movslq	%edx, %rdx	# tmp190, tmp189
	movq	8(%rax,%rdx,8), %rax	# x_8(D)->fld[i_1].rtvec, D.15768
	movl	(%rax), %eax	# _98->num_elem, D.15761
	cmpl	-24(%rbp), %eax	# j, D.15761
	jg	.L311	#,
.L309:
.LBE35:
	.loc 1 1793 0 is_stmt 1
	cmpl	$5, -28(%rbp)	#, insn_class
	je	.L312	#,
	.loc 1 1793 0 is_stmt 0 discriminator 1
	cmpl	$4, -28(%rbp)	#, insn_class
	je	.L312	#,
	.loc 1 1775 0 is_stmt 1
	subl	$1, -32(%rbp)	#, i
.L307:
	.loc 1 1775 0 is_stmt 0 discriminator 1
	cmpl	$0, -32(%rbp)	#, i
	jns	.L313	#,
.L312:
	.loc 1 1796 0 is_stmt 1
	movl	-28(%rbp), %eax	# insn_class, D.15761
.L297:
.LBE33:
	.loc 1 1798 0
	leave
	.cfi_def_cfa 7, 8
	ret
	.cfi_endproc
.LFE23:
	.size	may_trap_exp, .-may_trap_exp
	.type	haifa_classify_insn, @function
haifa_classify_insn:
.LFB24:
	.loc 1 1812 0
	.cfi_startproc
	pushq	%rbp	#
	.cfi_def_cfa_offset 16
	.cfi_offset 6, -16
	movq	%rsp, %rbp	#,
	.cfi_def_cfa_register 6
	subq	$48, %rsp	#,
	movq	%rdi, -40(%rbp)	# insn, insn
	.loc 1 1813 0
	movq	-40(%rbp), %rax	# insn, tmp87
	movq	32(%rax), %rax	# insn_10(D)->fld[3].rtx, tmp88
	movq	%rax, -8(%rbp)	# tmp88, pat
	.loc 1 1814 0
	movl	$0, -28(%rbp)	#, tmp_class
	.loc 1 1815 0
	movl	$0, -24(%rbp)	#, insn_class
	.loc 1 1818 0
	movq	-8(%rbp), %rax	# pat, tmp89
	movzwl	(%rax), %eax	# pat_11->code, D.15769
	cmpw	$39, %ax	#, D.15769
	jne	.L315	#,
.LBB37:
	.loc 1 1820 0
	movq	-8(%rbp), %rax	# pat, tmp90
	movq	8(%rax), %rax	# pat_11->fld[0].rtvec, D.15770
	movl	(%rax), %eax	# _15->num_elem, tmp91
	movl	%eax, -16(%rbp)	# tmp91, len
	.loc 1 1822 0
	movl	-16(%rbp), %eax	# len, tmp95
	subl	$1, %eax	#, tmp94
	movl	%eax, -20(%rbp)	# tmp94, i
	jmp	.L316	#
.L326:
	.loc 1 1824 0
	movq	-8(%rbp), %rax	# pat, tmp96
	movq	8(%rax), %rax	# pat_11->fld[0].rtvec, D.15770
	movl	-20(%rbp), %edx	# i, tmp98
	movslq	%edx, %rdx	# tmp98, tmp97
	movq	8(%rax,%rdx,8), %rax	# _18->elem, D.15771
	movzwl	(%rax), %eax	# _19->code, D.15769
	movzwl	%ax, %eax	# D.15769, tmp99
	movl	%eax, -12(%rbp)	# tmp99, code
	.loc 1 1825 0
	movl	-12(%rbp), %eax	# code, code
	cmpl	$47, %eax	#, code
	je	.L318	#,
	cmpl	$47, %eax	#, code
	ja	.L319	#,
	cmpl	$38, %eax	#, code
	je	.L320	#,
	jmp	.L317	#
.L319:
	cmpl	$49, %eax	#, code
	je	.L321	#,
	cmpl	$52, %eax	#, code
	je	.L320	#,
	jmp	.L317	#
.L321:
	.loc 1 1829 0
	movq	-8(%rbp), %rax	# pat, tmp101
	movq	8(%rax), %rax	# pat_11->fld[0].rtvec, D.15770
	movl	-20(%rbp), %edx	# i, tmp103
	movslq	%edx, %rdx	# tmp103, tmp102
	movq	8(%rax,%rdx,8), %rax	# _22->elem, D.15771
	movq	8(%rax), %rax	# _23->fld[0].rtx, D.15771
	movl	$1, %esi	#,
	movq	%rax, %rdi	# D.15771,
	call	may_trap_exp	#
	movl	%eax, -28(%rbp)	# tmp104, tmp_class
	.loc 1 1830 0
	jmp	.L317	#
.L318:
	.loc 1 1833 0
	movq	-8(%rbp), %rax	# pat, tmp105
	movq	8(%rax), %rax	# pat_11->fld[0].rtvec, D.15770
	movl	-20(%rbp), %edx	# i, tmp107
	movslq	%edx, %rdx	# tmp107, tmp106
	movq	8(%rax,%rdx,8), %rax	# _26->elem, D.15771
	movq	8(%rax), %rax	# _27->fld[0].rtx, D.15771
	movl	$1, %esi	#,
	movq	%rax, %rdi	# D.15771,
	call	may_trap_exp	#
	movl	%eax, -28(%rbp)	# tmp108, tmp_class
	.loc 1 1834 0
	cmpl	$5, -28(%rbp)	#, tmp_class
	jne	.L322	#,
	.loc 1 1835 0
	jmp	.L317	#
.L322:
	.loc 1 1838 0
	movq	-8(%rbp), %rax	# pat, tmp109
	movq	8(%rax), %rax	# pat_11->fld[0].rtvec, D.15770
	movl	-20(%rbp), %edx	# i, tmp111
	movslq	%edx, %rdx	# tmp111, tmp110
	movq	8(%rax,%rdx,8), %rax	# _30->elem, D.15771
	movq	16(%rax), %rax	# _31->fld[1].rtx, D.15771
	movl	$0, %esi	#,
	movq	%rax, %rdi	# D.15771,
	call	may_trap_exp	#
	cmpl	-28(%rbp), %eax	# tmp_class, D.15772
	jl	.L323	#,
	.loc 1 1838 0 is_stmt 0 discriminator 1
	movq	-8(%rbp), %rax	# pat, tmp112
	movq	8(%rax), %rax	# pat_11->fld[0].rtvec, D.15770
	movl	-20(%rbp), %edx	# i, tmp114
	movslq	%edx, %rdx	# tmp114, tmp113
	movq	8(%rax,%rdx,8), %rax	# _34->elem, D.15771
	movq	16(%rax), %rax	# _35->fld[1].rtx, D.15771
	movl	$0, %esi	#,
	movq	%rax, %rdi	# D.15771,
	call	may_trap_exp	#
	jmp	.L324	#
.L323:
	.loc 1 1838 0 discriminator 2
	movl	-28(%rbp), %eax	# tmp_class, iftmp.396
.L324:
	.loc 1 1838 0 discriminator 3
	movl	%eax, -28(%rbp)	# iftmp.396, tmp_class
	.loc 1 1841 0 is_stmt 1 discriminator 3
	jmp	.L317	#
.L320:
	.loc 1 1844 0
	movl	$5, -28(%rbp)	#, tmp_class
	.loc 1 1845 0
	nop
.L317:
	.loc 1 1849 0
	movl	-24(%rbp), %eax	# insn_class, tmp116
	cmpl	%eax, -28(%rbp)	# tmp116, tmp_class
	cmovge	-28(%rbp), %eax	# tmp_class,, tmp115
	movl	%eax, -24(%rbp)	# tmp115, insn_class
	.loc 1 1850 0
	cmpl	$5, -24(%rbp)	#, insn_class
	je	.L325	#,
	.loc 1 1850 0 is_stmt 0 discriminator 1
	cmpl	$4, -24(%rbp)	#, insn_class
	je	.L325	#,
	.loc 1 1822 0 is_stmt 1
	subl	$1, -20(%rbp)	#, i
.L316:
	.loc 1 1822 0 is_stmt 0 discriminator 1
	cmpl	$0, -20(%rbp)	#, i
	jns	.L326	#,
.L325:
.LBE37:
	jmp	.L327	#
.L315:
	.loc 1 1856 0 is_stmt 1
	movq	-8(%rbp), %rax	# pat, tmp117
	movzwl	(%rax), %eax	# pat_11->code, D.15769
	movzwl	%ax, %eax	# D.15769, tmp118
	movl	%eax, -12(%rbp)	# tmp118, code
	.loc 1 1857 0
	movl	-12(%rbp), %eax	# code, code
	cmpl	$47, %eax	#, code
	je	.L329	#,
	cmpl	$47, %eax	#, code
	ja	.L330	#,
	cmpl	$38, %eax	#, code
	je	.L331	#,
	jmp	.L328	#
.L330:
	cmpl	$49, %eax	#, code
	je	.L332	#,
	cmpl	$52, %eax	#, code
	je	.L331	#,
	jmp	.L328	#
.L332:
	.loc 1 1861 0
	movq	-8(%rbp), %rax	# pat, tmp120
	movq	8(%rax), %rax	# pat_11->fld[0].rtx, D.15771
	movl	$1, %esi	#,
	movq	%rax, %rdi	# D.15771,
	call	may_trap_exp	#
	movl	%eax, -28(%rbp)	# tmp121, tmp_class
	.loc 1 1862 0
	jmp	.L328	#
.L329:
	.loc 1 1865 0
	movq	-8(%rbp), %rax	# pat, tmp122
	movq	8(%rax), %rax	# pat_11->fld[0].rtx, D.15771
	movl	$1, %esi	#,
	movq	%rax, %rdi	# D.15771,
	call	may_trap_exp	#
	movl	%eax, -28(%rbp)	# tmp123, tmp_class
	.loc 1 1866 0
	cmpl	$5, -28(%rbp)	#, tmp_class
	jne	.L333	#,
	.loc 1 1867 0
	jmp	.L328	#
.L333:
	.loc 1 1870 0
	movq	-8(%rbp), %rax	# pat, tmp124
	movq	16(%rax), %rax	# pat_11->fld[1].rtx, D.15771
	movl	$0, %esi	#,
	movq	%rax, %rdi	# D.15771,
	call	may_trap_exp	#
	cmpl	-28(%rbp), %eax	# tmp_class, D.15772
	jl	.L334	#,
	.loc 1 1870 0 is_stmt 0 discriminator 1
	movq	-8(%rbp), %rax	# pat, tmp125
	movq	16(%rax), %rax	# pat_11->fld[1].rtx, D.15771
	movl	$0, %esi	#,
	movq	%rax, %rdi	# D.15771,
	call	may_trap_exp	#
	jmp	.L335	#
.L334:
	.loc 1 1870 0 discriminator 2
	movl	-28(%rbp), %eax	# tmp_class, iftmp.397
.L335:
	.loc 1 1869 0 is_stmt 1
	movl	%eax, -28(%rbp)	# iftmp.397, tmp_class
	.loc 1 1872 0
	jmp	.L328	#
.L331:
	.loc 1 1875 0
	movl	$5, -28(%rbp)	#, tmp_class
	.loc 1 1876 0
	nop
.L328:
	.loc 1 1879 0
	movl	-28(%rbp), %eax	# tmp_class, tmp126
	movl	%eax, -24(%rbp)	# tmp126, insn_class
.L327:
	.loc 1 1882 0
	movl	-24(%rbp), %eax	# insn_class, D.15772
	.loc 1 1883 0
	leave
	.cfi_def_cfa 7, 8
	ret
	.cfi_endproc
.LFE24:
	.size	haifa_classify_insn, .-haifa_classify_insn
	.type	is_prisky, @function
is_prisky:
.LFB25:
	.loc 1 1893 0
	.cfi_startproc
	pushq	%rbp	#
	.cfi_def_cfa_offset 16
	.cfi_offset 6, -16
	movq	%rsp, %rbp	#,
	.cfi_def_cfa_register 6
	subq	$16, %rsp	#,
	movq	%rdi, -8(%rbp)	# load_insn, load_insn
	movl	%esi, -12(%rbp)	# bb_src, bb_src
	movl	%edx, -16(%rbp)	# bb_trg, bb_trg
	.loc 1 1894 0
	movq	h_i_d(%rip), %rcx	# h_i_d, h_i_d.398
	movq	-8(%rbp), %rax	# load_insn, tmp70
	movl	8(%rax), %eax	# load_insn_3(D)->fld[0].rtint, D.15775
	movslq	%eax, %rdx	# D.15775, D.15776
	movq	%rdx, %rax	# D.15776, tmp71
	addq	%rax, %rax	# tmp71
	addq	%rdx, %rax	# D.15776, tmp71
	salq	$4, %rax	#, tmp72
	addq	%rcx, %rax	# h_i_d.398, D.15777
	movzbl	46(%rax), %eax	# *_7, D.15778
	andl	$2, %eax	#, D.15778
	testb	%al, %al	# D.15778
	je	.L338	#,
	.loc 1 1895 0
	movl	$1, %eax	#, D.15775
	jmp	.L339	#
.L338:
	.loc 1 1897 0
	movq	-8(%rbp), %rax	# load_insn, tmp73
	movq	48(%rax), %rax	# load_insn_3(D)->fld[5].rtx, D.15779
	testq	%rax, %rax	# D.15779
	jne	.L340	#,
	.loc 1 1899 0
	movl	$1, %eax	#, D.15775
	jmp	.L339	#
.L340:
	.loc 1 1901 0
	movl	-16(%rbp), %edx	# bb_trg, tmp74
	movl	-12(%rbp), %ecx	# bb_src, tmp75
	movq	-8(%rbp), %rax	# load_insn, tmp76
	movl	%ecx, %esi	# tmp75,
	movq	%rax, %rdi	# tmp76,
	call	is_conditionally_protected	#
	testl	%eax, %eax	# D.15775
	je	.L341	#,
	.loc 1 1902 0
	movl	$1, %eax	#, D.15775
	jmp	.L339	#
.L341:
	.loc 1 1904 0
	movl	$0, %eax	#, D.15775
.L339:
	.loc 1 1905 0
	leave
	.cfi_def_cfa 7, 8
	ret
	.cfi_endproc
.LFE25:
	.size	is_prisky, .-is_prisky
	.type	is_exception_free, @function
is_exception_free:
.LFB26:
	.loc 1 1915 0
	.cfi_startproc
	pushq	%rbp	#
	.cfi_def_cfa_offset 16
	.cfi_offset 6, -16
	movq	%rsp, %rbp	#,
	.cfi_def_cfa_register 6
	subq	$32, %rsp	#,
	movq	%rdi, -24(%rbp)	# insn, insn
	movl	%esi, -28(%rbp)	# bb_src, bb_src
	movl	%edx, -32(%rbp)	# bb_trg, bb_trg
	.loc 1 1916 0
	movq	-24(%rbp), %rax	# insn, tmp70
	movq	%rax, %rdi	# tmp70,
	call	haifa_classify_insn	#
	movl	%eax, -4(%rbp)	# tmp71, insn_class
	.loc 1 1919 0
	movl	-4(%rbp), %eax	# insn_class, insn_class
	testl	%eax, %eax	# insn_class
	je	.L344	#,
	cmpl	$5, %eax	#, insn_class
	je	.L345	#,
	jmp	.L356	#
.L344:
	.loc 1 1922 0
	movl	$1, %eax	#, D.15780
	jmp	.L346	#
.L345:
	.loc 1 1924 0
	movl	$0, %eax	#, D.15780
	jmp	.L346	#
.L356:
	.loc 1 1929 0
	movl	flag_schedule_speculative_load(%rip), %eax	# flag_schedule_speculative_load, flag_schedule_speculative_load.399
	testl	%eax, %eax	# flag_schedule_speculative_load.399
	jne	.L347	#,
	.loc 1 1930 0
	movl	$0, %eax	#, D.15780
	jmp	.L346	#
.L347:
	.loc 1 1931 0
	movq	h_i_d(%rip), %rcx	# h_i_d, h_i_d.400
	movq	-24(%rbp), %rax	# insn, tmp73
	movl	8(%rax), %eax	# insn_2(D)->fld[0].rtint, D.15780
	movslq	%eax, %rdx	# D.15780, D.15781
	movq	%rdx, %rax	# D.15781, tmp74
	addq	%rax, %rax	# tmp74
	addq	%rdx, %rax	# D.15781, tmp74
	salq	$4, %rax	#, tmp75
	addq	%rcx, %rax	# h_i_d.400, D.15782
	movzbl	46(%rax), %edx	# _12->is_load_insn, tmp78
	orl	$4, %edx	#, tmp79
	movb	%dl, 46(%rax)	# tmp79, _12->is_load_insn
	.loc 1 1932 0
	movl	-4(%rbp), %eax	# insn_class, insn_class
	cmpl	$2, %eax	#, insn_class
	je	.L349	#,
	cmpl	$2, %eax	#, insn_class
	jg	.L350	#,
	cmpl	$1, %eax	#, insn_class
	je	.L351	#,
	jmp	.L348	#
.L350:
	cmpl	$3, %eax	#, insn_class
	je	.L352	#,
	cmpl	$4, %eax	#, insn_class
	je	.L353	#,
	jmp	.L348	#
.L351:
	.loc 1 1935 0
	movl	$1, %eax	#, D.15780
	jmp	.L346	#
.L353:
	.loc 1 1937 0
	movl	$0, %eax	#, D.15780
	jmp	.L346	#
.L349:
	.loc 1 1939 0
	movl	-32(%rbp), %edx	# bb_trg, tmp81
	movl	-28(%rbp), %ecx	# bb_src, tmp82
	movq	-24(%rbp), %rax	# insn, tmp83
	movl	%ecx, %esi	# tmp82,
	movq	%rax, %rdi	# tmp83,
	call	is_pfree	#
	testl	%eax, %eax	# D.15780
	je	.L352	#,
	.loc 1 1940 0
	movl	$1, %eax	#, D.15780
	jmp	.L346	#
.L352:
	.loc 1 1943 0
	movl	flag_schedule_speculative_load_dangerous(%rip), %eax	# flag_schedule_speculative_load_dangerous, flag_schedule_speculative_load_dangerous.401
	testl	%eax, %eax	# flag_schedule_speculative_load_dangerous.401
	je	.L354	#,
	.loc 1 1944 0
	movl	-32(%rbp), %edx	# bb_trg, tmp84
	movl	-28(%rbp), %ecx	# bb_src, tmp85
	movq	-24(%rbp), %rax	# insn, tmp86
	movl	%ecx, %esi	# tmp85,
	movq	%rax, %rdi	# tmp86,
	call	is_prisky	#
	testl	%eax, %eax	# D.15780
	je	.L355	#,
.L354:
	.loc 1 1945 0
	movl	$0, %eax	#, D.15780
	jmp	.L346	#
.L355:
	.loc 1 1946 0
	nop
.L348:
	.loc 1 1950 0
	movl	flag_schedule_speculative_load_dangerous(%rip), %eax	# flag_schedule_speculative_load_dangerous, D.15780
.L346:
	.loc 1 1951 0
	leave
	.cfi_def_cfa 7, 8
	ret
	.cfi_endproc
.LFE26:
	.size	is_exception_free, .-is_exception_free
	.local	sched_target_n_insns
	.comm	sched_target_n_insns,4,4
	.local	target_n_insns
	.comm	target_n_insns,4,4
	.local	sched_n_insns
	.comm	sched_n_insns,4,4
	.local	last_was_jump
	.comm	last_was_jump,4,4
	.type	schedule_more_p, @function
schedule_more_p:
.LFB27:
	.loc 1 1976 0
	.cfi_startproc
	pushq	%rbp	#
	.cfi_def_cfa_offset 16
	.cfi_offset 6, -16
	movq	%rsp, %rbp	#,
	.cfi_def_cfa_register 6
	.loc 1 1977 0
	movl	last_was_jump(%rip), %eax	# last_was_jump, last_was_jump.403
	testl	%eax, %eax	# last_was_jump.403
	jne	.L358	#,
	.loc 1 1977 0 is_stmt 0 discriminator 1
	movl	sched_target_n_insns(%rip), %edx	# sched_target_n_insns, sched_target_n_insns.404
	movl	target_n_insns(%rip), %eax	# target_n_insns, target_n_insns.405
	cmpl	%eax, %edx	# target_n_insns.405, sched_target_n_insns.404
	jge	.L358	#,
	.loc 1 1977 0 discriminator 3
	movl	$1, %eax	#, iftmp.402
	jmp	.L359	#
.L358:
	.loc 1 1977 0 discriminator 2
	movl	$0, %eax	#, iftmp.402
.L359:
	.loc 1 1978 0 is_stmt 1 discriminator 4
	popq	%rbp	#
	.cfi_def_cfa 7, 8
	ret
	.cfi_endproc
.LFE27:
	.size	schedule_more_p, .-schedule_more_p
	.type	init_ready_list, @function
init_ready_list:
.LFB28:
	.loc 1 1986 0
	.cfi_startproc
	pushq	%rbp	#
	.cfi_def_cfa_offset 16
	.cfi_offset 6, -16
	movq	%rsp, %rbp	#,
	.cfi_def_cfa_register 6
	subq	$96, %rsp	#,
	movq	%rdi, -88(%rbp)	# ready, ready
	.loc 1 1987 0
	movq	current_sched_info(%rip), %rax	# current_sched_info, current_sched_info.406
	movq	64(%rax), %rax	# current_sched_info.406_4->prev_head, tmp154
	movq	%rax, -48(%rbp)	# tmp154, prev_head
	.loc 1 1988 0
	movq	current_sched_info(%rip), %rax	# current_sched_info, current_sched_info.407
	movq	72(%rax), %rax	# current_sched_info.407_6->next_tail, tmp155
	movq	%rax, -40(%rbp)	# tmp155, next_tail
	.loc 1 1992 0
	movl	$0, target_n_insns(%rip)	#, target_n_insns
	.loc 1 1993 0
	movl	$0, sched_target_n_insns(%rip)	#, sched_target_n_insns
	.loc 1 1994 0
	movl	$0, sched_n_insns(%rip)	#, sched_n_insns
	.loc 1 1995 0
	movl	$0, last_was_jump(%rip)	#, last_was_jump
	.loc 1 1998 0
	movl	sched_verbose(%rip), %eax	# sched_verbose, sched_verbose.408
	cmpl	$4, %eax	#, sched_verbose.408
	jle	.L362	#,
	.loc 1 1999 0
	call	debug_dependencies	#
.L362:
	.loc 1 2002 0
	movl	current_nr_blocks(%rip), %eax	# current_nr_blocks, current_nr_blocks.409
	cmpl	$1, %eax	#, current_nr_blocks.409
	jle	.L363	#,
	.loc 1 2004 0
	movl	current_nr_blocks(%rip), %eax	# current_nr_blocks, current_nr_blocks.410
	movslq	%eax, %rdx	# current_nr_blocks.410, D.15785
	movq	%rdx, %rax	# D.15785, tmp156
	salq	$2, %rax	#, tmp156
	addq	%rdx, %rax	# D.15785, tmp156
	salq	$3, %rax	#, tmp157
	movq	%rax, %rdi	# D.15785,
	call	xmalloc	#
	movq	%rax, candidate_table(%rip)	# candidate_table.411, candidate_table
	.loc 1 2007 0
	movl	$0, bblst_last(%rip)	#, bblst_last
	.loc 1 2012 0
	movl	current_nr_blocks(%rip), %edx	# current_nr_blocks, current_nr_blocks.412
	movl	target_bb(%rip), %eax	# target_bb, target_bb.413
	subl	%eax, %edx	# target_bb.413, D.15786
	movl	rgn_nr_edges(%rip), %eax	# rgn_nr_edges, rgn_nr_edges.414
	imull	%edx, %eax	# D.15786, bblst_size.415
	movl	%eax, bblst_size(%rip)	# bblst_size.415, bblst_size
	.loc 1 2013 0
	movl	bblst_size(%rip), %eax	# bblst_size, bblst_size.416
	cltq
	salq	$2, %rax	#, D.15785
	movq	%rax, %rdi	# D.15785,
	call	xmalloc	#
	movq	%rax, bblst_table(%rip)	# bblst_table.417, bblst_table
	.loc 1 2015 0
	movl	$0, bitlst_table_last(%rip)	#, bitlst_table_last
	.loc 1 2016 0
	movl	rgn_nr_edges(%rip), %eax	# rgn_nr_edges, rgn_nr_edges.418
	movl	%eax, bitlst_table_size(%rip)	# rgn_nr_edges.418, bitlst_table_size
	.loc 1 2017 0
	movl	rgn_nr_edges(%rip), %eax	# rgn_nr_edges, rgn_nr_edges.419
	cltq
	salq	$2, %rax	#, D.15785
	movq	%rax, %rdi	# D.15785,
	call	xmalloc	#
	movq	%rax, bitlst_table(%rip)	# bitlst_table.420, bitlst_table
	.loc 1 2019 0
	movl	target_bb(%rip), %eax	# target_bb, target_bb.421
	movl	%eax, %edi	# target_bb.421,
	call	compute_trg_info	#
.L363:
	.loc 1 2024 0
	movq	-48(%rbp), %rax	# prev_head, tmp161
	movq	24(%rax), %rax	# prev_head_5->fld[2].rtx, tmp162
	movq	%rax, -56(%rbp)	# tmp162, insn
	jmp	.L364	#
.L369:
.LBB38:
	.loc 1 2028 0
	movq	-56(%rbp), %rax	# insn, tmp163
	movzwl	(%rax), %eax	# insn_2->code, D.15787
	movzwl	%ax, %eax	# D.15787, D.15786
	cltq
	movzbl	rtx_class(%rax), %eax	# rtx_class, D.15788
	cmpb	$105, %al	#, D.15788
	je	.L365	#,
	.loc 1 2029 0
	jmp	.L366	#
.L365:
	.loc 1 2030 0
	movq	-56(%rbp), %rax	# insn, tmp165
	movq	24(%rax), %rax	# insn_2->fld[2].rtx, tmp166
	movq	%rax, -32(%rbp)	# tmp166, next
	.loc 1 2032 0
	movq	h_i_d(%rip), %rcx	# h_i_d, h_i_d.422
	movq	-56(%rbp), %rax	# insn, tmp167
	movl	8(%rax), %eax	# insn_2->fld[0].rtint, D.15786
	movslq	%eax, %rdx	# D.15786, D.15785
	movq	%rdx, %rax	# D.15785, tmp168
	addq	%rax, %rax	# tmp168
	addq	%rdx, %rax	# D.15785, tmp168
	salq	$4, %rax	#, tmp169
	addq	%rcx, %rax	# h_i_d.422, D.15789
	movl	24(%rax), %eax	# _38->dep_count, D.15786
	testl	%eax, %eax	# D.15786
	jne	.L367	#,
	.loc 1 2033 0
	movq	-32(%rbp), %rax	# next, tmp170
	movzbl	3(%rax), %eax	# *next_33, D.15790
	andl	$16, %eax	#, D.15790
	testb	%al, %al	# D.15790
	je	.L368	#,
	.loc 1 2033 0 is_stmt 0 discriminator 1
	movq	-32(%rbp), %rax	# next, tmp171
	movzwl	(%rax), %eax	# next_33->code, D.15787
	movzwl	%ax, %eax	# D.15787, D.15786
	cltq
	movzbl	rtx_class(%rax), %eax	# rtx_class, D.15788
	cmpb	$105, %al	#, D.15788
	je	.L367	#,
.L368:
	.loc 1 2034 0 is_stmt 1
	movq	-56(%rbp), %rdx	# insn, tmp173
	movq	-88(%rbp), %rax	# ready, tmp174
	movq	%rdx, %rsi	# tmp173,
	movq	%rax, %rdi	# tmp174,
	call	ready_add	#
.L367:
	.loc 1 2035 0
	movq	-56(%rbp), %rax	# insn, tmp175
	movzbl	3(%rax), %eax	# *insn_2, D.15790
	andl	$16, %eax	#, D.15790
	testb	%al, %al	# D.15790
	jne	.L366	#,
	.loc 1 2036 0
	movl	target_n_insns(%rip), %eax	# target_n_insns, target_n_insns.423
	addl	$1, %eax	#, target_n_insns.424
	movl	%eax, target_n_insns(%rip)	# target_n_insns.424, target_n_insns
.L366:
.LBE38:
	.loc 1 2024 0
	movq	-56(%rbp), %rax	# insn, tmp176
	movq	24(%rax), %rax	# insn_2->fld[2].rtx, tmp177
	movq	%rax, -56(%rbp)	# tmp177, insn
.L364:
	.loc 1 2024 0 is_stmt 0 discriminator 1
	movq	-56(%rbp), %rax	# insn, tmp178
	cmpq	-40(%rbp), %rax	# next_tail, tmp178
	jne	.L369	#,
	.loc 1 2042 0 is_stmt 1
	movl	target_bb(%rip), %eax	# target_bb, target_bb.425
	addl	$1, %eax	#, tmp179
	movl	%eax, -76(%rbp)	# tmp179, bb_src
	jmp	.L370	#
.L378:
	.loc 1 2043 0
	movq	candidate_table(%rip), %rcx	# candidate_table, candidate_table.426
	movl	-76(%rbp), %eax	# bb_src, tmp180
	movslq	%eax, %rdx	# tmp180, D.15785
	movq	%rdx, %rax	# D.15785, tmp181
	salq	$2, %rax	#, tmp181
	addq	%rdx, %rax	# D.15785, tmp181
	salq	$3, %rax	#, tmp182
	addq	%rcx, %rax	# candidate_table.426, D.15791
	movzbl	(%rax), %eax	# _57->is_valid, D.15788
	testb	%al, %al	# D.15788
	je	.L371	#,
.LBB39:
	.loc 1 2049 0
	movq	rgn_bb_table(%rip), %rax	# rgn_bb_table, rgn_bb_table.427
	movl	current_blocks(%rip), %ecx	# current_blocks, current_blocks.428
	movl	-76(%rbp), %edx	# bb_src, tmp183
	addl	%ecx, %edx	# current_blocks.428, D.15786
	movslq	%edx, %rdx	# D.15786, D.15785
	salq	$2, %rdx	#, D.15785
	addq	%rdx, %rax	# D.15785, D.15792
	movl	(%rax), %eax	# *_64, D.15786
	leaq	-72(%rbp), %rdx	#, tmp184
	leaq	-64(%rbp), %rcx	#, tmp185
	movq	%rcx, %rsi	# tmp185,
	movl	%eax, %edi	# D.15786,
	call	get_block_head_tail	#
	.loc 1 2050 0
	movq	-72(%rbp), %rax	# tail, tail.429
	movq	24(%rax), %rax	# tail.429_66->fld[2].rtx, tmp186
	movq	%rax, -24(%rbp)	# tmp186, src_next_tail
	.loc 1 2051 0
	movq	-64(%rbp), %rax	# head, tmp187
	movq	%rax, -16(%rbp)	# tmp187, src_head
	.loc 1 2053 0
	movq	-16(%rbp), %rax	# src_head, tmp188
	movq	%rax, -56(%rbp)	# tmp188, insn
	jmp	.L372	#
.L377:
	.loc 1 2055 0
	movq	-56(%rbp), %rax	# insn, tmp189
	movzwl	(%rax), %eax	# insn_3->code, D.15787
	movzwl	%ax, %eax	# D.15787, D.15786
	cltq
	movzbl	rtx_class(%rax), %eax	# rtx_class, D.15788
	cmpb	$105, %al	#, D.15788
	je	.L373	#,
	.loc 1 2056 0
	jmp	.L374	#
.L373:
	.loc 1 2058 0
	movq	h_i_d(%rip), %rcx	# h_i_d, h_i_d.430
	movq	-56(%rbp), %rax	# insn, tmp191
	movl	8(%rax), %eax	# insn_3->fld[0].rtint, D.15786
	movslq	%eax, %rdx	# D.15786, D.15785
	movq	%rdx, %rax	# D.15785, tmp192
	addq	%rax, %rax	# tmp192
	addq	%rdx, %rax	# D.15785, tmp192
	salq	$4, %rax	#, tmp193
	addq	%rcx, %rax	# h_i_d.430, D.15789
	movzbl	46(%rax), %eax	# *_77, D.15790
	andl	$1, %eax	#, D.15790
	testb	%al, %al	# D.15790
	jne	.L374	#,
	.loc 1 2059 0
	movq	candidate_table(%rip), %rcx	# candidate_table, candidate_table.431
	movq	block_to_bb(%rip), %rsi	# block_to_bb, block_to_bb.432
	movq	basic_block_for_insn(%rip), %rax	# basic_block_for_insn, basic_block_for_insn.433
	movq	-56(%rbp), %rdx	# insn, tmp194
	movl	8(%rdx), %edx	# insn_3->fld[0].rtint, D.15786
	movslq	%edx, %rdx	# D.15786, tmp195
	addq	$4, %rdx	#, tmp196
	movq	(%rax,%rdx,8), %rax	# basic_block_for_insn.433_82->data.bb, D.15793
	movl	88(%rax), %eax	# _84->index, D.15786
	cltq
	salq	$2, %rax	#, D.15785
	addq	%rsi, %rax	# block_to_bb.432, D.15792
	movl	(%rax), %eax	# *_88, D.15786
	movslq	%eax, %rdx	# D.15786, D.15785
	movq	%rdx, %rax	# D.15785, tmp197
	salq	$2, %rax	#, tmp197
	addq	%rdx, %rax	# D.15785, tmp197
	salq	$3, %rax	#, tmp198
	addq	%rcx, %rax	# candidate_table.431, D.15791
	movzbl	1(%rax), %eax	# _92->is_speculative, D.15788
	testb	%al, %al	# D.15788
	je	.L375	#,
	.loc 1 2060 0
	movq	-56(%rbp), %rax	# insn, tmp199
	movq	%rax, %rdi	# tmp199,
	call	insn_issue_delay	#
	cmpl	$3, %eax	#, D.15786
	jg	.L374	#,
	.loc 1 2061 0
	movl	-76(%rbp), %edx	# bb_src, tmp200
	movq	-56(%rbp), %rax	# insn, tmp201
	movl	%edx, %esi	# tmp200,
	movq	%rax, %rdi	# tmp201,
	call	check_live	#
	testl	%eax, %eax	# D.15786
	je	.L374	#,
	.loc 1 2062 0
	movl	target_bb(%rip), %edx	# target_bb, target_bb.434
	movl	-76(%rbp), %ecx	# bb_src, tmp202
	movq	-56(%rbp), %rax	# insn, tmp203
	movl	%ecx, %esi	# tmp202,
	movq	%rax, %rdi	# tmp203,
	call	is_exception_free	#
	testl	%eax, %eax	# D.15786
	je	.L374	#,
.L375:
.LBB40:
	.loc 1 2069 0
	movq	-56(%rbp), %rax	# insn, tmp204
	movq	%rax, %rdi	# tmp204,
	call	next_nonnote_insn	#
	movq	%rax, -8(%rbp)	# tmp205, next
	.loc 1 2070 0
	movq	h_i_d(%rip), %rcx	# h_i_d, h_i_d.435
	movq	-56(%rbp), %rax	# insn, tmp206
	movl	8(%rax), %eax	# insn_3->fld[0].rtint, D.15786
	movslq	%eax, %rdx	# D.15786, D.15785
	movq	%rdx, %rax	# D.15785, tmp207
	addq	%rax, %rax	# tmp207
	addq	%rdx, %rax	# D.15785, tmp207
	salq	$4, %rax	#, tmp208
	addq	%rcx, %rax	# h_i_d.435, D.15789
	movl	24(%rax), %eax	# _103->dep_count, D.15786
	testl	%eax, %eax	# D.15786
	jne	.L374	#,
	.loc 1 2071 0
	cmpq	$0, -8(%rbp)	#, next
	je	.L376	#,
	.loc 1 2072 0
	movq	-8(%rbp), %rax	# next, tmp209
	movzbl	3(%rax), %eax	# *next_98, D.15790
	andl	$16, %eax	#, D.15790
	testb	%al, %al	# D.15790
	je	.L376	#,
	.loc 1 2073 0
	movq	-8(%rbp), %rax	# next, tmp210
	movzwl	(%rax), %eax	# next_98->code, D.15787
	movzwl	%ax, %eax	# D.15787, D.15786
	cltq
	movzbl	rtx_class(%rax), %eax	# rtx_class, D.15788
	cmpb	$105, %al	#, D.15788
	je	.L374	#,
.L376:
	.loc 1 2074 0
	movq	-56(%rbp), %rdx	# insn, tmp212
	movq	-88(%rbp), %rax	# ready, tmp213
	movq	%rdx, %rsi	# tmp212,
	movq	%rax, %rdi	# tmp213,
	call	ready_add	#
.L374:
.LBE40:
	.loc 1 2053 0
	movq	-56(%rbp), %rax	# insn, tmp214
	movq	24(%rax), %rax	# insn_3->fld[2].rtx, tmp215
	movq	%rax, -56(%rbp)	# tmp215, insn
.L372:
	.loc 1 2053 0 is_stmt 0 discriminator 1
	movq	-56(%rbp), %rax	# insn, tmp216
	cmpq	-24(%rbp), %rax	# src_next_tail, tmp216
	jne	.L377	#,
.L371:
.LBE39:
	.loc 1 2042 0 is_stmt 1
	addl	$1, -76(%rbp)	#, bb_src
.L370:
	.loc 1 2042 0 is_stmt 0 discriminator 1
	movl	current_nr_blocks(%rip), %eax	# current_nr_blocks, current_nr_blocks.436
	cmpl	%eax, -76(%rbp)	# current_nr_blocks.436, bb_src
	jl	.L378	#,
	.loc 1 2078 0 is_stmt 1
	leave
	.cfi_def_cfa 7, 8
	ret
	.cfi_endproc
.LFE28:
	.size	init_ready_list, .-init_ready_list
	.type	can_schedule_ready_p, @function
can_schedule_ready_p:
.LFB29:
	.loc 1 2086 0
	.cfi_startproc
	pushq	%rbp	#
	.cfi_def_cfa_offset 16
	.cfi_offset 6, -16
	movq	%rsp, %rbp	#,
	.cfi_def_cfa_register 6
	subq	$48, %rsp	#,
	movq	%rdi, -40(%rbp)	# insn, insn
	.loc 1 2087 0
	movq	-40(%rbp), %rax	# insn, tmp137
	movzwl	(%rax), %eax	# insn_3(D)->code, D.15795
	cmpw	$33, %ax	#, D.15795
	jne	.L380	#,
	.loc 1 2088 0
	movl	$1, last_was_jump(%rip)	#, last_was_jump
.L380:
	.loc 1 2091 0
	movq	block_to_bb(%rip), %rcx	# block_to_bb, block_to_bb.437
	movq	basic_block_for_insn(%rip), %rax	# basic_block_for_insn, basic_block_for_insn.438
	movq	-40(%rbp), %rdx	# insn, tmp138
	movl	8(%rdx), %edx	# insn_3(D)->fld[0].rtint, D.15794
	movslq	%edx, %rdx	# D.15794, tmp139
	addq	$4, %rdx	#, tmp140
	movq	(%rax,%rdx,8), %rax	# basic_block_for_insn.438_6->data.bb, D.15796
	movl	88(%rax), %eax	# _8->index, D.15794
	cltq
	salq	$2, %rax	#, D.15797
	addq	%rcx, %rax	# block_to_bb.437, D.15798
	movl	(%rax), %edx	# *_12, D.15794
	movl	target_bb(%rip), %eax	# target_bb, target_bb.439
	cmpl	%eax, %edx	# target_bb.439, D.15794
	je	.L381	#,
.LBB41:
	.loc 1 2096 0
	movq	candidate_table(%rip), %rcx	# candidate_table, candidate_table.440
	movq	block_to_bb(%rip), %rsi	# block_to_bb, block_to_bb.441
	movq	basic_block_for_insn(%rip), %rax	# basic_block_for_insn, basic_block_for_insn.442
	movq	-40(%rbp), %rdx	# insn, tmp141
	movl	8(%rdx), %edx	# insn_3(D)->fld[0].rtint, D.15794
	movslq	%edx, %rdx	# D.15794, tmp142
	addq	$4, %rdx	#, tmp143
	movq	(%rax,%rdx,8), %rax	# basic_block_for_insn.442_17->data.bb, D.15796
	movl	88(%rax), %eax	# _19->index, D.15794
	cltq
	salq	$2, %rax	#, D.15797
	addq	%rsi, %rax	# block_to_bb.441, D.15798
	movl	(%rax), %eax	# *_23, D.15794
	movslq	%eax, %rdx	# D.15794, D.15797
	movq	%rdx, %rax	# D.15797, tmp144
	salq	$2, %rax	#, tmp144
	addq	%rdx, %rax	# D.15797, tmp144
	salq	$3, %rax	#, tmp145
	addq	%rcx, %rax	# candidate_table.440, D.15799
	movzbl	1(%rax), %eax	# _27->is_speculative, D.15800
	testb	%al, %al	# D.15800
	je	.L382	#,
	.loc 1 2098 0
	movq	block_to_bb(%rip), %rcx	# block_to_bb, block_to_bb.443
	movq	basic_block_for_insn(%rip), %rax	# basic_block_for_insn, basic_block_for_insn.444
	movq	-40(%rbp), %rdx	# insn, tmp146
	movl	8(%rdx), %edx	# insn_3(D)->fld[0].rtint, D.15794
	movslq	%edx, %rdx	# D.15794, tmp147
	addq	$4, %rdx	#, tmp148
	movq	(%rax,%rdx,8), %rax	# basic_block_for_insn.444_30->data.bb, D.15796
	movl	88(%rax), %eax	# _32->index, D.15794
	cltq
	salq	$2, %rax	#, D.15797
	addq	%rcx, %rax	# block_to_bb.443, D.15798
	movl	(%rax), %edx	# *_36, D.15794
	movq	-40(%rbp), %rax	# insn, tmp149
	movl	%edx, %esi	# D.15794,
	movq	%rax, %rdi	# tmp149,
	call	check_live	#
	testl	%eax, %eax	# D.15794
	jne	.L383	#,
	.loc 1 2099 0
	movl	$0, %eax	#, D.15794
	jmp	.L384	#
.L383:
	.loc 1 2100 0
	movq	block_to_bb(%rip), %rcx	# block_to_bb, block_to_bb.445
	movq	basic_block_for_insn(%rip), %rax	# basic_block_for_insn, basic_block_for_insn.446
	movq	-40(%rbp), %rdx	# insn, tmp150
	movl	8(%rdx), %edx	# insn_3(D)->fld[0].rtint, D.15794
	movslq	%edx, %rdx	# D.15794, tmp151
	addq	$4, %rdx	#, tmp152
	movq	(%rax,%rdx,8), %rax	# basic_block_for_insn.446_41->data.bb, D.15796
	movl	88(%rax), %eax	# _43->index, D.15794
	cltq
	salq	$2, %rax	#, D.15797
	addq	%rcx, %rax	# block_to_bb.445, D.15798
	movl	(%rax), %edx	# *_47, D.15794
	movq	-40(%rbp), %rax	# insn, tmp153
	movl	%edx, %esi	# D.15794,
	movq	%rax, %rdi	# tmp153,
	call	update_live	#
	.loc 1 2103 0
	movq	h_i_d(%rip), %rcx	# h_i_d, h_i_d.447
	movq	-40(%rbp), %rax	# insn, tmp154
	movl	8(%rax), %eax	# insn_3(D)->fld[0].rtint, D.15794
	movslq	%eax, %rdx	# D.15794, D.15797
	movq	%rdx, %rax	# D.15797, tmp155
	addq	%rax, %rax	# tmp155
	addq	%rdx, %rax	# D.15797, tmp155
	salq	$4, %rax	#, tmp156
	addq	%rcx, %rax	# h_i_d.447, D.15801
	movzbl	46(%rax), %eax	# *_53, D.15802
	andl	$4, %eax	#, D.15802
	testb	%al, %al	# D.15802
	jne	.L385	#,
	.loc 1 2103 0 is_stmt 0 discriminator 1
	movq	h_i_d(%rip), %rcx	# h_i_d, h_i_d.448
	movq	-40(%rbp), %rax	# insn, tmp157
	movl	8(%rax), %eax	# insn_3(D)->fld[0].rtint, D.15794
	movslq	%eax, %rdx	# D.15794, D.15797
	movq	%rdx, %rax	# D.15797, tmp158
	addq	%rax, %rax	# tmp158
	addq	%rdx, %rax	# D.15797, tmp158
	salq	$4, %rax	#, tmp159
	addq	%rcx, %rax	# h_i_d.448, D.15801
	movzbl	46(%rax), %eax	# *_60, D.15802
	andl	$2, %eax	#, D.15802
	testb	%al, %al	# D.15802
	je	.L386	#,
.L385:
	.loc 1 2104 0 is_stmt 1
	movq	-40(%rbp), %rax	# insn, tmp160
	movq	%rax, %rdi	# tmp160,
	call	set_spec_fed	#
.L386:
	.loc 1 2106 0
	movl	nr_spec(%rip), %eax	# nr_spec, nr_spec.449
	addl	$1, %eax	#, nr_spec.450
	movl	%eax, nr_spec(%rip)	# nr_spec.450, nr_spec
.L382:
	.loc 1 2108 0
	movl	nr_inter(%rip), %eax	# nr_inter, nr_inter.451
	addl	$1, %eax	#, nr_inter.452
	movl	%eax, nr_inter(%rip)	# nr_inter.452, nr_inter
	.loc 1 2115 0
	movq	-40(%rbp), %rax	# insn, tmp161
	movq	%rax, -24(%rbp)	# tmp161, temp
	.loc 1 2116 0
	jmp	.L387	#
.L388:
	.loc 1 2117 0
	movq	-24(%rbp), %rax	# temp, tmp162
	movq	16(%rax), %rax	# temp_1->fld[1].rtx, tmp163
	movq	%rax, -24(%rbp)	# tmp163, temp
.L387:
	.loc 1 2116 0 discriminator 1
	movq	-24(%rbp), %rax	# temp, tmp164
	movzbl	3(%rax), %eax	# *temp_1, D.15802
	andl	$16, %eax	#, D.15802
	testb	%al, %al	# D.15802
	jne	.L388	#,
	.loc 1 2120 0
	movq	basic_block_for_insn(%rip), %rax	# basic_block_for_insn, basic_block_for_insn.453
	movq	-24(%rbp), %rdx	# temp, tmp165
	movl	8(%rdx), %edx	# temp_1->fld[0].rtint, D.15794
	movslq	%edx, %rdx	# D.15794, tmp166
	addq	$4, %rdx	#, tmp167
	movq	(%rax,%rdx,8), %rax	# basic_block_for_insn.453_71->data.bb, tmp168
	movq	%rax, -16(%rbp)	# tmp168, b1
	.loc 1 2121 0
	movq	-16(%rbp), %rax	# b1, tmp169
	movq	(%rax), %rax	# b1_73->head, D.15803
	cmpq	-24(%rbp), %rax	# temp, D.15803
	jne	.L389	#,
	.loc 1 2121 0 is_stmt 0 discriminator 1
	movq	-16(%rbp), %rax	# b1, tmp170
	movq	8(%rax), %rax	# b1_73->end, D.15803
	cmpq	-40(%rbp), %rax	# insn, D.15803
	jne	.L389	#,
.LBB42:
	.loc 1 2126 0 is_stmt 1
	movq	-40(%rbp), %rax	# insn, tmp171
	movq	%rax, %rsi	# tmp171,
	movl	$-99, %edi	#,
	call	emit_note_after	#
	movq	%rax, -8(%rbp)	# tmp172, note
	.loc 1 2127 0
	movq	-16(%rbp), %rax	# b1, tmp173
	movq	-8(%rbp), %rdx	# note, tmp174
	movq	%rdx, (%rax)	# tmp174, b1_73->head
	.loc 1 2128 0
	movq	-16(%rbp), %rax	# b1, tmp175
	movq	-8(%rbp), %rdx	# note, tmp176
	movq	%rdx, 8(%rax)	# tmp176, b1_73->end
.LBE42:
	.loc 1 2122 0
	jmp	.L390	#
.L389:
	.loc 1 2130 0
	movq	-16(%rbp), %rax	# b1, tmp177
	movq	8(%rax), %rax	# b1_73->end, D.15803
	cmpq	-40(%rbp), %rax	# insn, D.15803
	jne	.L391	#,
	.loc 1 2135 0
	movq	-24(%rbp), %rax	# temp, tmp178
	movq	16(%rax), %rdx	# temp_1->fld[1].rtx, D.15803
	movq	-16(%rbp), %rax	# b1, tmp179
	movq	%rdx, 8(%rax)	# D.15803, b1_73->end
	jmp	.L390	#
.L391:
	.loc 1 2137 0
	movq	-16(%rbp), %rax	# b1, tmp180
	movq	(%rax), %rax	# b1_73->head, D.15803
	cmpq	-24(%rbp), %rax	# temp, D.15803
	jne	.L390	#,
	.loc 1 2142 0
	movq	-40(%rbp), %rax	# insn, tmp181
	movq	24(%rax), %rdx	# insn_3(D)->fld[2].rtx, D.15803
	movq	-16(%rbp), %rax	# b1, tmp182
	movq	%rdx, (%rax)	# D.15803, b1_73->head
.LBE41:
	jmp	.L392	#
.L390:
	jmp	.L392	#
.L381:
	.loc 1 2148 0
	movl	sched_target_n_insns(%rip), %eax	# sched_target_n_insns, sched_target_n_insns.454
	addl	$1, %eax	#, sched_target_n_insns.455
	movl	%eax, sched_target_n_insns(%rip)	# sched_target_n_insns.455, sched_target_n_insns
.L392:
	.loc 1 2150 0
	movl	sched_n_insns(%rip), %eax	# sched_n_insns, sched_n_insns.456
	addl	$1, %eax	#, sched_n_insns.457
	movl	%eax, sched_n_insns(%rip)	# sched_n_insns.457, sched_n_insns
	.loc 1 2152 0
	movl	$1, %eax	#, D.15794
.L384:
	.loc 1 2153 0
	leave
	.cfi_def_cfa 7, 8
	ret
	.cfi_endproc
.LFE29:
	.size	can_schedule_ready_p, .-can_schedule_ready_p
	.type	new_ready, @function
new_ready:
.LFB30:
	.loc 1 2161 0
	.cfi_startproc
	pushq	%rbp	#
	.cfi_def_cfa_offset 16
	.cfi_offset 6, -16
	movq	%rsp, %rbp	#,
	.cfi_def_cfa_register 6
	subq	$16, %rsp	#,
	movq	%rdi, -8(%rbp)	# next, next
	.loc 1 2164 0
	movq	block_to_bb(%rip), %rcx	# block_to_bb, block_to_bb.458
	movq	basic_block_for_insn(%rip), %rax	# basic_block_for_insn, basic_block_for_insn.459
	movq	-8(%rbp), %rdx	# next, tmp128
	movl	8(%rdx), %edx	# next_4(D)->fld[0].rtint, D.15804
	movslq	%edx, %rdx	# D.15804, tmp129
	addq	$4, %rdx	#, tmp130
	movq	(%rax,%rdx,8), %rax	# basic_block_for_insn.459_3->data.bb, D.15805
	movl	88(%rax), %eax	# _6->index, D.15804
	cltq
	salq	$2, %rax	#, D.15806
	addq	%rcx, %rax	# block_to_bb.458, D.15807
	movl	(%rax), %edx	# *_10, D.15804
	movl	target_bb(%rip), %eax	# target_bb, target_bb.460
	cmpl	%eax, %edx	# target_bb.460, D.15804
	je	.L394	#,
	.loc 1 2165 0
	movq	candidate_table(%rip), %rcx	# candidate_table, candidate_table.461
	movq	block_to_bb(%rip), %rsi	# block_to_bb, block_to_bb.462
	movq	basic_block_for_insn(%rip), %rax	# basic_block_for_insn, basic_block_for_insn.463
	movq	-8(%rbp), %rdx	# next, tmp131
	movl	8(%rdx), %edx	# next_4(D)->fld[0].rtint, D.15804
	movslq	%edx, %rdx	# D.15804, tmp132
	addq	$4, %rdx	#, tmp133
	movq	(%rax,%rdx,8), %rax	# basic_block_for_insn.463_15->data.bb, D.15805
	movl	88(%rax), %eax	# _17->index, D.15804
	cltq
	salq	$2, %rax	#, D.15806
	addq	%rsi, %rax	# block_to_bb.462, D.15807
	movl	(%rax), %eax	# *_21, D.15804
	movslq	%eax, %rdx	# D.15804, D.15806
	movq	%rdx, %rax	# D.15806, tmp134
	salq	$2, %rax	#, tmp134
	addq	%rdx, %rax	# D.15806, tmp134
	salq	$3, %rax	#, tmp135
	addq	%rcx, %rax	# candidate_table.461, D.15808
	movzbl	(%rax), %eax	# _25->is_valid, D.15809
	testb	%al, %al	# D.15809
	je	.L395	#,
	.loc 1 2166 0
	movq	h_i_d(%rip), %rcx	# h_i_d, h_i_d.464
	movq	-8(%rbp), %rax	# next, tmp136
	movl	8(%rax), %eax	# next_4(D)->fld[0].rtint, D.15804
	movslq	%eax, %rdx	# D.15804, D.15806
	movq	%rdx, %rax	# D.15806, tmp137
	addq	%rax, %rax	# tmp137
	addq	%rdx, %rax	# D.15806, tmp137
	salq	$4, %rax	#, tmp138
	addq	%rcx, %rax	# h_i_d.464, D.15810
	movzbl	46(%rax), %eax	# *_31, D.15811
	andl	$1, %eax	#, D.15811
	testb	%al, %al	# D.15811
	jne	.L395	#,
	.loc 1 2167 0
	movq	candidate_table(%rip), %rcx	# candidate_table, candidate_table.465
	movq	block_to_bb(%rip), %rsi	# block_to_bb, block_to_bb.466
	movq	basic_block_for_insn(%rip), %rax	# basic_block_for_insn, basic_block_for_insn.467
	movq	-8(%rbp), %rdx	# next, tmp139
	movl	8(%rdx), %edx	# next_4(D)->fld[0].rtint, D.15804
	movslq	%edx, %rdx	# D.15804, tmp140
	addq	$4, %rdx	#, tmp141
	movq	(%rax,%rdx,8), %rax	# basic_block_for_insn.467_36->data.bb, D.15805
	movl	88(%rax), %eax	# _38->index, D.15804
	cltq
	salq	$2, %rax	#, D.15806
	addq	%rsi, %rax	# block_to_bb.466, D.15807
	movl	(%rax), %eax	# *_42, D.15804
	movslq	%eax, %rdx	# D.15804, D.15806
	movq	%rdx, %rax	# D.15806, tmp142
	salq	$2, %rax	#, tmp142
	addq	%rdx, %rax	# D.15806, tmp142
	salq	$3, %rax	#, tmp143
	addq	%rcx, %rax	# candidate_table.465, D.15808
	movzbl	1(%rax), %eax	# _46->is_speculative, D.15809
	testb	%al, %al	# D.15809
	je	.L394	#,
	.loc 1 2168 0
	movq	-8(%rbp), %rax	# next, tmp144
	movq	%rax, %rdi	# tmp144,
	call	insn_issue_delay	#
	cmpl	$3, %eax	#, D.15804
	jg	.L395	#,
	.loc 1 2169 0
	movq	block_to_bb(%rip), %rcx	# block_to_bb, block_to_bb.468
	movq	basic_block_for_insn(%rip), %rax	# basic_block_for_insn, basic_block_for_insn.469
	movq	-8(%rbp), %rdx	# next, tmp145
	movl	8(%rdx), %edx	# next_4(D)->fld[0].rtint, D.15804
	movslq	%edx, %rdx	# D.15804, tmp146
	addq	$4, %rdx	#, tmp147
	movq	(%rax,%rdx,8), %rax	# basic_block_for_insn.469_50->data.bb, D.15805
	movl	88(%rax), %eax	# _52->index, D.15804
	cltq
	salq	$2, %rax	#, D.15806
	addq	%rcx, %rax	# block_to_bb.468, D.15807
	movl	(%rax), %edx	# *_56, D.15804
	movq	-8(%rbp), %rax	# next, tmp148
	movl	%edx, %esi	# D.15804,
	movq	%rax, %rdi	# tmp148,
	call	check_live	#
	testl	%eax, %eax	# D.15804
	je	.L395	#,
	.loc 1 2170 0
	movl	target_bb(%rip), %edx	# target_bb, target_bb.470
	movq	block_to_bb(%rip), %rsi	# block_to_bb, block_to_bb.471
	movq	basic_block_for_insn(%rip), %rax	# basic_block_for_insn, basic_block_for_insn.472
	movq	-8(%rbp), %rcx	# next, tmp149
	movl	8(%rcx), %ecx	# next_4(D)->fld[0].rtint, D.15804
	movslq	%ecx, %rcx	# D.15804, tmp150
	addq	$4, %rcx	#, tmp151
	movq	(%rax,%rcx,8), %rax	# basic_block_for_insn.472_61->data.bb, D.15805
	movl	88(%rax), %eax	# _63->index, D.15804
	cltq
	salq	$2, %rax	#, D.15806
	addq	%rsi, %rax	# block_to_bb.471, D.15807
	movl	(%rax), %ecx	# *_67, D.15804
	movq	-8(%rbp), %rax	# next, tmp152
	movl	%ecx, %esi	# D.15804,
	movq	%rax, %rdi	# tmp152,
	call	is_exception_free	#
	testl	%eax, %eax	# D.15804
	jne	.L394	#,
.L395:
	.loc 1 2171 0
	movl	$0, %eax	#, D.15804
	jmp	.L396	#
.L394:
	.loc 1 2172 0
	movl	$1, %eax	#, D.15804
.L396:
	.loc 1 2173 0
	leave
	.cfi_def_cfa 7, 8
	ret
	.cfi_endproc
.LFE30:
	.size	new_ready, .-new_ready
	.section	.rodata
.LC17:
	.string	"b%3d: i%4d"
.LC18:
	.string	"%d/b%d"
.LC19:
	.string	"%d"
	.text
	.type	rgn_print_insn, @function
rgn_print_insn:
.LFB31:
	.loc 1 2184 0
	.cfi_startproc
	pushq	%rbp	#
	.cfi_def_cfa_offset 16
	.cfi_offset 6, -16
	movq	%rsp, %rbp	#,
	.cfi_def_cfa_register 6
	subq	$16, %rsp	#,
	movq	%rdi, -8(%rbp)	# insn, insn
	movl	%esi, -12(%rbp)	# aligned, aligned
	.loc 1 2187 0
	cmpl	$0, -12(%rbp)	#, aligned
	je	.L398	#,
	.loc 1 2188 0
	movq	-8(%rbp), %rax	# insn, tmp93
	movl	8(%rax), %edx	# insn_2(D)->fld[0].rtint, D.15812
	movq	block_to_bb(%rip), %rsi	# block_to_bb, block_to_bb.473
	movq	basic_block_for_insn(%rip), %rax	# basic_block_for_insn, basic_block_for_insn.474
	movq	-8(%rbp), %rcx	# insn, tmp94
	movl	8(%rcx), %ecx	# insn_2(D)->fld[0].rtint, D.15812
	movslq	%ecx, %rcx	# D.15812, tmp95
	addq	$4, %rcx	#, tmp96
	movq	(%rax,%rcx,8), %rax	# basic_block_for_insn.474_5->data.bb, D.15813
	movl	88(%rax), %eax	# _7->index, D.15812
	cltq
	salq	$2, %rax	#, D.15814
	addq	%rsi, %rax	# block_to_bb.473, D.15815
	movl	(%rax), %eax	# *_11, D.15812
	movl	%edx, %ecx	# D.15812,
	movl	%eax, %edx	# D.15812,
	movl	$.LC17, %esi	#,
	movl	$tmp.11418, %edi	#,
	movl	$0, %eax	#,
	call	sprintf	#
	jmp	.L399	#
.L398:
	.loc 1 2191 0
	movl	current_nr_blocks(%rip), %eax	# current_nr_blocks, current_nr_blocks.475
	cmpl	$1, %eax	#, current_nr_blocks.475
	jle	.L400	#,
	.loc 1 2191 0 is_stmt 0 discriminator 1
	movq	block_to_bb(%rip), %rcx	# block_to_bb, block_to_bb.476
	movq	basic_block_for_insn(%rip), %rax	# basic_block_for_insn, basic_block_for_insn.477
	movq	-8(%rbp), %rdx	# insn, tmp97
	movl	8(%rdx), %edx	# insn_2(D)->fld[0].rtint, D.15812
	movslq	%edx, %rdx	# D.15812, tmp98
	addq	$4, %rdx	#, tmp99
	movq	(%rax,%rdx,8), %rax	# basic_block_for_insn.477_15->data.bb, D.15813
	movl	88(%rax), %eax	# _17->index, D.15812
	cltq
	salq	$2, %rax	#, D.15814
	addq	%rcx, %rax	# block_to_bb.476, D.15815
	movl	(%rax), %edx	# *_21, D.15812
	movl	target_bb(%rip), %eax	# target_bb, target_bb.478
	cmpl	%eax, %edx	# target_bb.478, D.15812
	je	.L400	#,
	.loc 1 2192 0 is_stmt 1
	movq	block_to_bb(%rip), %rcx	# block_to_bb, block_to_bb.479
	movq	basic_block_for_insn(%rip), %rax	# basic_block_for_insn, basic_block_for_insn.480
	movq	-8(%rbp), %rdx	# insn, tmp100
	movl	8(%rdx), %edx	# insn_2(D)->fld[0].rtint, D.15812
	movslq	%edx, %rdx	# D.15812, tmp101
	addq	$4, %rdx	#, tmp102
	movq	(%rax,%rdx,8), %rax	# basic_block_for_insn.480_25->data.bb, D.15813
	movl	88(%rax), %eax	# _27->index, D.15812
	cltq
	salq	$2, %rax	#, D.15814
	addq	%rcx, %rax	# block_to_bb.479, D.15815
	movl	(%rax), %edx	# *_31, D.15812
	movq	-8(%rbp), %rax	# insn, tmp103
	movl	8(%rax), %eax	# insn_2(D)->fld[0].rtint, D.15812
	movl	%edx, %ecx	# D.15812,
	movl	%eax, %edx	# D.15812,
	movl	$.LC18, %esi	#,
	movl	$tmp.11418, %edi	#,
	movl	$0, %eax	#,
	call	sprintf	#
	jmp	.L399	#
.L400:
	.loc 1 2194 0
	movq	-8(%rbp), %rax	# insn, tmp104
	movl	8(%rax), %eax	# insn_2(D)->fld[0].rtint, D.15812
	movl	%eax, %edx	# D.15812,
	movl	$.LC19, %esi	#,
	movl	$tmp.11418, %edi	#,
	movl	$0, %eax	#,
	call	sprintf	#
.L399:
	.loc 1 2196 0
	movl	$tmp.11418, %eax	#, D.15816
	.loc 1 2197 0
	leave
	.cfi_def_cfa 7, 8
	ret
	.cfi_endproc
.LFE31:
	.size	rgn_print_insn, .-rgn_print_insn
	.type	rgn_rank, @function
rgn_rank:
.LFB32:
	.loc 1 2206 0
	.cfi_startproc
	pushq	%rbp	#
	.cfi_def_cfa_offset 16
	.cfi_offset 6, -16
	movq	%rsp, %rbp	#,
	.cfi_def_cfa_register 6
	movq	%rdi, -24(%rbp)	# insn1, insn1
	movq	%rsi, -32(%rbp)	# insn2, insn2
	.loc 1 2208 0
	movq	block_to_bb(%rip), %rcx	# block_to_bb, block_to_bb.481
	movq	basic_block_for_insn(%rip), %rax	# basic_block_for_insn, basic_block_for_insn.482
	movq	-24(%rbp), %rdx	# insn1, tmp177
	movl	8(%rdx), %edx	# insn1_4(D)->fld[0].rtint, D.15820
	movslq	%edx, %rdx	# D.15820, tmp178
	addq	$4, %rdx	#, tmp179
	movq	(%rax,%rdx,8), %rax	# basic_block_for_insn.482_3->data.bb, D.15821
	movl	88(%rax), %eax	# _6->index, D.15820
	cltq
	salq	$2, %rax	#, D.15822
	addq	%rcx, %rax	# block_to_bb.481, D.15823
	movl	(%rax), %ecx	# *_10, D.15820
	movq	block_to_bb(%rip), %rsi	# block_to_bb, block_to_bb.483
	movq	basic_block_for_insn(%rip), %rax	# basic_block_for_insn, basic_block_for_insn.484
	movq	-32(%rbp), %rdx	# insn2, tmp180
	movl	8(%rdx), %edx	# insn2_14(D)->fld[0].rtint, D.15820
	movslq	%edx, %rdx	# D.15820, tmp181
	addq	$4, %rdx	#, tmp182
	movq	(%rax,%rdx,8), %rax	# basic_block_for_insn.484_13->data.bb, D.15821
	movl	88(%rax), %eax	# _16->index, D.15820
	cltq
	salq	$2, %rax	#, D.15822
	addq	%rsi, %rax	# block_to_bb.483, D.15823
	movl	(%rax), %eax	# *_20, D.15820
	cmpl	%eax, %ecx	# D.15820, D.15820
	je	.L403	#,
.LBB43:
	.loc 1 2213 0
	movq	block_to_bb(%rip), %rcx	# block_to_bb, block_to_bb.485
	movq	basic_block_for_insn(%rip), %rax	# basic_block_for_insn, basic_block_for_insn.486
	movq	-32(%rbp), %rdx	# insn2, tmp183
	movl	8(%rdx), %edx	# insn2_14(D)->fld[0].rtint, D.15820
	movslq	%edx, %rdx	# D.15820, tmp184
	addq	$4, %rdx	#, tmp185
	movq	(%rax,%rdx,8), %rax	# basic_block_for_insn.486_23->data.bb, D.15821
	movl	88(%rax), %eax	# _25->index, D.15820
	cltq
	salq	$2, %rax	#, D.15822
	addq	%rcx, %rax	# block_to_bb.485, D.15823
	movl	(%rax), %edx	# *_29, D.15820
	movl	target_bb(%rip), %eax	# target_bb, target_bb.487
	cmpl	%eax, %edx	# target_bb.487, D.15820
	jne	.L404	#,
	.loc 1 2213 0 is_stmt 0 discriminator 1
	movq	block_to_bb(%rip), %rcx	# block_to_bb, block_to_bb.488
	movq	basic_block_for_insn(%rip), %rax	# basic_block_for_insn, basic_block_for_insn.489
	movq	-24(%rbp), %rdx	# insn1, tmp186
	movl	8(%rdx), %edx	# insn1_4(D)->fld[0].rtint, D.15820
	movslq	%edx, %rdx	# D.15820, tmp187
	addq	$4, %rdx	#, tmp188
	movq	(%rax,%rdx,8), %rax	# basic_block_for_insn.489_33->data.bb, D.15821
	movl	88(%rax), %eax	# _35->index, D.15820
	cltq
	salq	$2, %rax	#, D.15822
	addq	%rcx, %rax	# block_to_bb.488, D.15823
	movl	(%rax), %edx	# *_39, D.15820
	movl	target_bb(%rip), %eax	# target_bb, target_bb.490
	cmpl	%eax, %edx	# target_bb.490, D.15820
	je	.L404	#,
	.loc 1 2214 0 is_stmt 1
	movl	$1, %eax	#, D.15820
	jmp	.L405	#
.L404:
	.loc 1 2215 0
	movq	block_to_bb(%rip), %rcx	# block_to_bb, block_to_bb.491
	movq	basic_block_for_insn(%rip), %rax	# basic_block_for_insn, basic_block_for_insn.492
	movq	-24(%rbp), %rdx	# insn1, tmp189
	movl	8(%rdx), %edx	# insn1_4(D)->fld[0].rtint, D.15820
	movslq	%edx, %rdx	# D.15820, tmp190
	addq	$4, %rdx	#, tmp191
	movq	(%rax,%rdx,8), %rax	# basic_block_for_insn.492_44->data.bb, D.15821
	movl	88(%rax), %eax	# _46->index, D.15820
	cltq
	salq	$2, %rax	#, D.15822
	addq	%rcx, %rax	# block_to_bb.491, D.15823
	movl	(%rax), %edx	# *_50, D.15820
	movl	target_bb(%rip), %eax	# target_bb, target_bb.493
	cmpl	%eax, %edx	# target_bb.493, D.15820
	jne	.L406	#,
	.loc 1 2215 0 is_stmt 0 discriminator 1
	movq	block_to_bb(%rip), %rcx	# block_to_bb, block_to_bb.494
	movq	basic_block_for_insn(%rip), %rax	# basic_block_for_insn, basic_block_for_insn.495
	movq	-32(%rbp), %rdx	# insn2, tmp192
	movl	8(%rdx), %edx	# insn2_14(D)->fld[0].rtint, D.15820
	movslq	%edx, %rdx	# D.15820, tmp193
	addq	$4, %rdx	#, tmp194
	movq	(%rax,%rdx,8), %rax	# basic_block_for_insn.495_54->data.bb, D.15821
	movl	88(%rax), %eax	# _56->index, D.15820
	cltq
	salq	$2, %rax	#, D.15822
	addq	%rcx, %rax	# block_to_bb.494, D.15823
	movl	(%rax), %edx	# *_60, D.15820
	movl	target_bb(%rip), %eax	# target_bb, target_bb.496
	cmpl	%eax, %edx	# target_bb.496, D.15820
	je	.L406	#,
	.loc 1 2216 0 is_stmt 1
	movl	$-1, %eax	#, D.15820
	jmp	.L405	#
.L406:
	.loc 1 2219 0
	movq	candidate_table(%rip), %rcx	# candidate_table, candidate_table.497
	movq	block_to_bb(%rip), %rsi	# block_to_bb, block_to_bb.498
	movq	basic_block_for_insn(%rip), %rax	# basic_block_for_insn, basic_block_for_insn.499
	movq	-24(%rbp), %rdx	# insn1, tmp195
	movl	8(%rdx), %edx	# insn1_4(D)->fld[0].rtint, D.15820
	movslq	%edx, %rdx	# D.15820, tmp196
	addq	$4, %rdx	#, tmp197
	movq	(%rax,%rdx,8), %rax	# basic_block_for_insn.499_66->data.bb, D.15821
	movl	88(%rax), %eax	# _68->index, D.15820
	cltq
	salq	$2, %rax	#, D.15822
	addq	%rsi, %rax	# block_to_bb.498, D.15823
	movl	(%rax), %eax	# *_72, D.15820
	movslq	%eax, %rdx	# D.15820, D.15822
	movq	%rdx, %rax	# D.15822, tmp198
	salq	$2, %rax	#, tmp198
	addq	%rdx, %rax	# D.15822, tmp198
	salq	$3, %rax	#, tmp199
	addq	%rcx, %rax	# candidate_table.497, D.15824
	movzbl	1(%rax), %eax	# _76->is_speculative, D.15825
	movsbl	%al, %ecx	# D.15825, D.15820
	movq	candidate_table(%rip), %rsi	# candidate_table, candidate_table.500
	movq	block_to_bb(%rip), %rdi	# block_to_bb, block_to_bb.501
	movq	basic_block_for_insn(%rip), %rax	# basic_block_for_insn, basic_block_for_insn.502
	movq	-32(%rbp), %rdx	# insn2, tmp200
	movl	8(%rdx), %edx	# insn2_14(D)->fld[0].rtint, D.15820
	movslq	%edx, %rdx	# D.15820, tmp201
	addq	$4, %rdx	#, tmp202
	movq	(%rax,%rdx,8), %rax	# basic_block_for_insn.502_81->data.bb, D.15821
	movl	88(%rax), %eax	# _83->index, D.15820
	cltq
	salq	$2, %rax	#, D.15822
	addq	%rdi, %rax	# block_to_bb.501, D.15823
	movl	(%rax), %eax	# *_87, D.15820
	movslq	%eax, %rdx	# D.15820, D.15822
	movq	%rdx, %rax	# D.15822, tmp203
	salq	$2, %rax	#, tmp203
	addq	%rdx, %rax	# D.15822, tmp203
	salq	$3, %rax	#, tmp204
	addq	%rsi, %rax	# candidate_table.500, D.15824
	movzbl	1(%rax), %eax	# _91->is_speculative, D.15825
	movsbl	%al, %eax	# D.15825, D.15820
	subl	%eax, %ecx	# D.15820, tmp205
	movl	%ecx, %eax	# tmp205, tmp205
	movl	%eax, -8(%rbp)	# tmp205, spec_val
	.loc 1 2220 0
	cmpl	$0, -8(%rbp)	#, spec_val
	je	.L407	#,
	.loc 1 2221 0
	movl	-8(%rbp), %eax	# spec_val, D.15820
	jmp	.L405	#
.L407:
	.loc 1 2224 0
	movq	candidate_table(%rip), %rcx	# candidate_table, candidate_table.503
	movq	block_to_bb(%rip), %rsi	# block_to_bb, block_to_bb.504
	movq	basic_block_for_insn(%rip), %rax	# basic_block_for_insn, basic_block_for_insn.505
	movq	-32(%rbp), %rdx	# insn2, tmp206
	movl	8(%rdx), %edx	# insn2_14(D)->fld[0].rtint, D.15820
	movslq	%edx, %rdx	# D.15820, tmp207
	addq	$4, %rdx	#, tmp208
	movq	(%rax,%rdx,8), %rax	# basic_block_for_insn.505_98->data.bb, D.15821
	movl	88(%rax), %eax	# _100->index, D.15820
	cltq
	salq	$2, %rax	#, D.15822
	addq	%rsi, %rax	# block_to_bb.504, D.15823
	movl	(%rax), %eax	# *_104, D.15820
	movslq	%eax, %rdx	# D.15820, D.15822
	movq	%rdx, %rax	# D.15822, tmp209
	salq	$2, %rax	#, tmp209
	addq	%rdx, %rax	# D.15822, tmp209
	salq	$3, %rax	#, tmp210
	addq	%rcx, %rax	# candidate_table.503, D.15824
	movl	4(%rax), %ecx	# _108->src_prob, D.15820
	movq	candidate_table(%rip), %rsi	# candidate_table, candidate_table.506
	movq	block_to_bb(%rip), %rdi	# block_to_bb, block_to_bb.507
	movq	basic_block_for_insn(%rip), %rax	# basic_block_for_insn, basic_block_for_insn.508
	movq	-24(%rbp), %rdx	# insn1, tmp211
	movl	8(%rdx), %edx	# insn1_4(D)->fld[0].rtint, D.15820
	movslq	%edx, %rdx	# D.15820, tmp212
	addq	$4, %rdx	#, tmp213
	movq	(%rax,%rdx,8), %rax	# basic_block_for_insn.508_112->data.bb, D.15821
	movl	88(%rax), %eax	# _114->index, D.15820
	cltq
	salq	$2, %rax	#, D.15822
	addq	%rdi, %rax	# block_to_bb.507, D.15823
	movl	(%rax), %eax	# *_118, D.15820
	movslq	%eax, %rdx	# D.15820, D.15822
	movq	%rdx, %rax	# D.15822, tmp214
	salq	$2, %rax	#, tmp214
	addq	%rdx, %rax	# D.15822, tmp214
	salq	$3, %rax	#, tmp215
	addq	%rsi, %rax	# candidate_table.506, D.15824
	movl	4(%rax), %eax	# _122->src_prob, D.15820
	subl	%eax, %ecx	# D.15820, tmp216
	movl	%ecx, %eax	# tmp216, tmp216
	movl	%eax, -4(%rbp)	# tmp216, prob_val
	.loc 1 2225 0
	cmpl	$0, -4(%rbp)	#, prob_val
	je	.L403	#,
	.loc 1 2226 0
	movl	-4(%rbp), %eax	# prob_val, D.15820
	jmp	.L405	#
.L403:
.LBE43:
	.loc 1 2228 0
	movl	$0, %eax	#, D.15820
.L405:
	.loc 1 2229 0
	popq	%rbp	#
	.cfi_def_cfa 7, 8
	ret
	.cfi_endproc
.LFE32:
	.size	rgn_rank, .-rgn_rank
	.type	contributes_to_priority, @function
contributes_to_priority:
.LFB33:
	.loc 1 2238 0
	.cfi_startproc
	pushq	%rbp	#
	.cfi_def_cfa_offset 16
	.cfi_offset 6, -16
	movq	%rsp, %rbp	#,
	.cfi_def_cfa_register 6
	movq	%rdi, -8(%rbp)	# next, next
	movq	%rsi, -16(%rbp)	# insn, insn
	.loc 1 2239 0
	movq	basic_block_for_insn(%rip), %rax	# basic_block_for_insn, basic_block_for_insn.509
	movq	-8(%rbp), %rdx	# next, tmp70
	movl	8(%rdx), %edx	# next_2(D)->fld[0].rtint, D.15826
	movslq	%edx, %rdx	# D.15826, tmp71
	addq	$4, %rdx	#, tmp72
	movq	(%rax,%rdx,8), %rax	# basic_block_for_insn.509_1->data.bb, D.15827
	movl	88(%rax), %ecx	# _4->index, D.15826
	movq	basic_block_for_insn(%rip), %rax	# basic_block_for_insn, basic_block_for_insn.510
	movq	-16(%rbp), %rdx	# insn, tmp73
	movl	8(%rdx), %edx	# insn_7(D)->fld[0].rtint, D.15826
	movslq	%edx, %rdx	# D.15826, tmp74
	addq	$4, %rdx	#, tmp75
	movq	(%rax,%rdx,8), %rax	# basic_block_for_insn.510_6->data.bb, D.15827
	movl	88(%rax), %eax	# _9->index, D.15826
	cmpl	%eax, %ecx	# D.15826, D.15826
	sete	%al	#, D.15828
	movzbl	%al, %eax	# D.15828, D.15826
	.loc 1 2240 0
	popq	%rbp	#
	.cfi_def_cfa 7, 8
	ret
	.cfi_endproc
.LFE33:
	.size	contributes_to_priority, .-contributes_to_priority
	.type	compute_jump_reg_dependencies, @function
compute_jump_reg_dependencies:
.LFB34:
	.loc 1 2249 0
	.cfi_startproc
	pushq	%rbp	#
	.cfi_def_cfa_offset 16
	.cfi_offset 6, -16
	movq	%rsp, %rbp	#,
	.cfi_def_cfa_register 6
	movq	%rdi, -8(%rbp)	# insn, insn
	movq	%rsi, -16(%rbp)	# set, set
	.loc 1 2252 0
	popq	%rbp	#
	.cfi_def_cfa 7, 8
	ret
	.cfi_endproc
.LFE34:
	.size	compute_jump_reg_dependencies, .-compute_jump_reg_dependencies
	.data
	.align 32
	.type	region_sched_info, @object
	.size	region_sched_info, 104
region_sched_info:
# init_ready_list:
	.quad	init_ready_list
# can_schedule_ready_p:
	.quad	can_schedule_ready_p
# schedule_more_p:
	.quad	schedule_more_p
# new_ready:
	.quad	new_ready
# rank:
	.quad	rgn_rank
# print_insn:
	.quad	rgn_print_insn
# contributes_to_priority:
	.quad	contributes_to_priority
# compute_jump_reg_dependencies:
	.quad	compute_jump_reg_dependencies
# prev_head:
	.quad	0
# next_tail:
	.quad	0
# head:
	.quad	0
# tail:
	.quad	0
# queue_must_finish_empty:
# use_cselib:
	.byte	0
	.zero	7
	.text
	.type	sets_likely_spilled, @function
sets_likely_spilled:
.LFB35:
	.loc 1 2278 0
	.cfi_startproc
	pushq	%rbp	#
	.cfi_def_cfa_offset 16
	.cfi_offset 6, -16
	movq	%rsp, %rbp	#,
	.cfi_def_cfa_register 6
	subq	$32, %rsp	#,
	movq	%rdi, -24(%rbp)	# pat, pat
	.loc 1 2279 0
	movb	$0, -1(%rbp)	#, ret
	.loc 1 2280 0
	leaq	-1(%rbp), %rdx	#, tmp61
	movq	-24(%rbp), %rax	# pat, tmp62
	movl	$sets_likely_spilled_1, %esi	#,
	movq	%rax, %rdi	# tmp62,
	call	note_stores	#
	.loc 1 2281 0
	movzbl	-1(%rbp), %eax	# ret, D.15829
	.loc 1 2282 0
	leave
	.cfi_def_cfa 7, 8
	ret
	.cfi_endproc
.LFE35:
	.size	sets_likely_spilled, .-sets_likely_spilled
	.type	sets_likely_spilled_1, @function
sets_likely_spilled_1:
.LFB36:
	.loc 1 2288 0
	.cfi_startproc
	pushq	%rbp	#
	.cfi_def_cfa_offset 16
	.cfi_offset 6, -16
	movq	%rsp, %rbp	#,
	.cfi_def_cfa_register 6
	movq	%rdi, -24(%rbp)	# x, x
	movq	%rsi, -32(%rbp)	# pat, pat
	movq	%rdx, -40(%rbp)	# data, data
	.loc 1 2289 0
	movq	-40(%rbp), %rax	# data, tmp76
	movq	%rax, -8(%rbp)	# tmp76, ret
	.loc 1 2291 0
	movq	-32(%rbp), %rax	# pat, tmp77
	movzwl	(%rax), %eax	# pat_3(D)->code, D.15830
	cmpw	$47, %ax	#, D.15830
	jne	.L413	#,
	.loc 1 2292 0
	movq	-24(%rbp), %rax	# x, tmp78
	movzwl	(%rax), %eax	# x_5(D)->code, D.15830
	cmpw	$61, %ax	#, D.15830
	jne	.L413	#,
	.loc 1 2293 0
	movq	-24(%rbp), %rax	# x, tmp79
	movl	8(%rax), %eax	# x_5(D)->fld[0].rtuint, D.15831
	cmpl	$52, %eax	#, D.15831
	ja	.L413	#,
	.loc 1 2294 0
	movq	-24(%rbp), %rax	# x, tmp80
	movl	8(%rax), %eax	# x_5(D)->fld[0].rtuint, D.15831
	movl	%eax, %eax	# D.15831, tmp81
	movl	regclass_map(,%rax,4), %eax	# regclass_map, D.15832
	cmpl	$1, %eax	#, D.15832
	je	.L415	#,
	.loc 1 2294 0 is_stmt 0 discriminator 1
	movq	-24(%rbp), %rax	# x, tmp82
	movl	8(%rax), %eax	# x_5(D)->fld[0].rtuint, D.15831
	movl	%eax, %eax	# D.15831, tmp83
	movl	regclass_map(,%rax,4), %eax	# regclass_map, D.15832
	cmpl	$2, %eax	#, D.15832
	je	.L415	#,
	movq	-24(%rbp), %rax	# x, tmp84
	movl	8(%rax), %eax	# x_5(D)->fld[0].rtuint, D.15831
	movl	%eax, %eax	# D.15831, tmp85
	movl	regclass_map(,%rax,4), %eax	# regclass_map, D.15832
	cmpl	$3, %eax	#, D.15832
	je	.L415	#,
	movq	-24(%rbp), %rax	# x, tmp86
	movl	8(%rax), %eax	# x_5(D)->fld[0].rtuint, D.15831
	movl	%eax, %eax	# D.15831, tmp87
	movl	regclass_map(,%rax,4), %eax	# regclass_map, D.15832
	cmpl	$4, %eax	#, D.15832
	je	.L415	#,
	movq	-24(%rbp), %rax	# x, tmp88
	movl	8(%rax), %eax	# x_5(D)->fld[0].rtuint, D.15831
	movl	%eax, %eax	# D.15831, tmp89
	movl	regclass_map(,%rax,4), %eax	# regclass_map, D.15832
	cmpl	$7, %eax	#, D.15832
	je	.L415	#,
	movq	-24(%rbp), %rax	# x, tmp90
	movl	8(%rax), %eax	# x_5(D)->fld[0].rtuint, D.15831
	movl	%eax, %eax	# D.15831, tmp91
	movl	regclass_map(,%rax,4), %eax	# regclass_map, D.15832
	cmpl	$5, %eax	#, D.15832
	je	.L415	#,
	movq	-24(%rbp), %rax	# x, tmp92
	movl	8(%rax), %eax	# x_5(D)->fld[0].rtuint, D.15831
	movl	%eax, %eax	# D.15831, tmp93
	movl	regclass_map(,%rax,4), %eax	# regclass_map, D.15832
	cmpl	$6, %eax	#, D.15832
	jne	.L413	#,
.L415:
	.loc 1 2295 0 is_stmt 1
	movq	-8(%rbp), %rax	# ret, tmp94
	movb	$1, (%rax)	#, *ret_2
.L413:
	.loc 1 2296 0
	popq	%rbp	#
	.cfi_def_cfa 7, 8
	ret
	.cfi_endproc
.LFE36:
	.size	sets_likely_spilled_1, .-sets_likely_spilled_1
	.type	add_branch_dependences, @function
add_branch_dependences:
.LFB37:
	.loc 1 2304 0
	.cfi_startproc
	pushq	%rbp	#
	.cfi_def_cfa_offset 16
	.cfi_offset 6, -16
	movq	%rsp, %rbp	#,
	.cfi_def_cfa_register 6
	subq	$48, %rsp	#,
	movq	%rdi, -40(%rbp)	# head, head
	movq	%rsi, -48(%rbp)	# tail, tail
	.loc 1 2323 0
	movq	-48(%rbp), %rax	# tail, tmp101
	movq	%rax, -24(%rbp)	# tmp101, insn
	.loc 1 2324 0
	movq	$0, -16(%rbp)	#, last
	.loc 1 2325 0
	jmp	.L417	#
.L424:
	.loc 1 2338 0
	movq	-24(%rbp), %rax	# insn, tmp102
	movzwl	(%rax), %eax	# insn_3->code, D.15833
	cmpw	$37, %ax	#, D.15833
	je	.L418	#,
	.loc 1 2340 0
	cmpq	$0, -16(%rbp)	#, last
	je	.L419	#,
	.loc 1 2340 0 is_stmt 0 discriminator 1
	movq	-16(%rbp), %rax	# last, tmp103
	movq	48(%rax), %rdx	# last_7->fld[5].rtx, D.15834
	movq	-24(%rbp), %rax	# insn, tmp104
	movq	%rdx, %rsi	# D.15834,
	movq	%rax, %rdi	# tmp104,
	call	find_insn_list	#
	testq	%rax, %rax	# D.15834
	jne	.L419	#,
	.loc 1 2342 0 is_stmt 1
	movq	-24(%rbp), %rcx	# insn, tmp105
	movq	-16(%rbp), %rax	# last, tmp106
	movl	$14, %edx	#,
	movq	%rcx, %rsi	# tmp105,
	movq	%rax, %rdi	# tmp106,
	call	add_dependence	#
	.loc 1 2343 0
	movq	h_i_d(%rip), %rcx	# h_i_d, h_i_d.511
	movq	-24(%rbp), %rax	# insn, tmp107
	movl	8(%rax), %eax	# insn_3->fld[0].rtint, D.15836
	movslq	%eax, %rdx	# D.15836, D.15837
	movq	%rdx, %rax	# D.15837, tmp108
	addq	%rax, %rax	# tmp108
	addq	%rdx, %rax	# D.15837, tmp108
	salq	$4, %rax	#, tmp109
	addq	%rcx, %rax	# h_i_d.511, D.15838
	movl	32(%rax), %edx	# _31->ref_count, D.15836
	addl	$1, %edx	#, D.15836
	movl	%edx, 32(%rax)	# D.15836, _31->ref_count
.L419:
	.loc 1 2346 0
	movq	h_i_d(%rip), %rcx	# h_i_d, h_i_d.512
	movq	-24(%rbp), %rax	# insn, tmp110
	movl	8(%rax), %eax	# insn_3->fld[0].rtint, D.15836
	movslq	%eax, %rdx	# D.15836, D.15837
	movq	%rdx, %rax	# D.15837, tmp111
	addq	%rax, %rax	# tmp111
	addq	%rdx, %rax	# D.15837, tmp111
	salq	$4, %rax	#, tmp112
	addq	%rcx, %rax	# h_i_d.512, D.15838
	movzbl	46(%rax), %edx	# _38->cant_move, tmp115
	orl	$1, %edx	#, tmp116
	movb	%dl, 46(%rax)	# tmp116, _38->cant_move
	.loc 1 2348 0
	movq	-24(%rbp), %rax	# insn, tmp117
	movq	%rax, -16(%rbp)	# tmp117, last
	.loc 1 2354 0
	jmp	.L420	#
.L421:
.LBB44:
	.loc 1 2356 0
	movq	-24(%rbp), %rax	# insn, tmp118
	movq	%rax, %rdi	# tmp118,
	call	prev_nonnote_insn	#
	movq	%rax, -8(%rbp)	# tmp119, temp
	.loc 1 2357 0
	movq	-8(%rbp), %rcx	# temp, tmp120
	movq	-24(%rbp), %rax	# insn, tmp121
	movl	$14, %edx	#,
	movq	%rcx, %rsi	# tmp120,
	movq	%rax, %rdi	# tmp121,
	call	add_dependence	#
	.loc 1 2358 0
	movq	-8(%rbp), %rax	# temp, tmp122
	movq	%rax, -24(%rbp)	# tmp122, insn
.L420:
.LBE44:
	.loc 1 2354 0 discriminator 1
	movq	-24(%rbp), %rax	# insn, tmp123
	movzbl	3(%rax), %eax	# *insn_1, D.15839
	andl	$16, %eax	#, D.15839
	testb	%al, %al	# D.15839
	jne	.L421	#,
.L418:
	.loc 1 2363 0
	movq	-24(%rbp), %rax	# insn, tmp124
	cmpq	-40(%rbp), %rax	# head, tmp124
	jne	.L422	#,
	.loc 1 2364 0
	jmp	.L423	#
.L422:
	.loc 1 2366 0
	movq	-24(%rbp), %rax	# insn, tmp125
	movq	16(%rax), %rax	# insn_2->fld[1].rtx, tmp126
	movq	%rax, -24(%rbp)	# tmp126, insn
.L417:
	.loc 1 2325 0 discriminator 1
	movq	-24(%rbp), %rax	# insn, tmp127
	movzwl	(%rax), %eax	# insn_3->code, D.15833
	cmpw	$34, %ax	#, D.15833
	je	.L424	#,
	.loc 1 2326 0
	movq	-24(%rbp), %rax	# insn, tmp128
	movzwl	(%rax), %eax	# insn_3->code, D.15833
	cmpw	$33, %ax	#, D.15833
	je	.L424	#,
	.loc 1 2327 0
	movq	-24(%rbp), %rax	# insn, tmp129
	movzwl	(%rax), %eax	# insn_3->code, D.15833
	cmpw	$32, %ax	#, D.15833
	jne	.L425	#,
	.loc 1 2328 0
	movq	-24(%rbp), %rax	# insn, tmp130
	movq	32(%rax), %rax	# insn_3->fld[3].rtx, D.15834
	movzwl	(%rax), %eax	# _15->code, D.15833
	cmpw	$48, %ax	#, D.15833
	je	.L424	#,
	.loc 1 2329 0
	movq	-24(%rbp), %rax	# insn, tmp131
	movq	32(%rax), %rax	# insn_3->fld[3].rtx, D.15834
	movzwl	(%rax), %eax	# _17->code, D.15833
	cmpw	$49, %ax	#, D.15833
	je	.L424	#,
	.loc 1 2330 0
	movq	-24(%rbp), %rax	# insn, tmp132
	movq	%rax, %rdi	# tmp132,
	call	can_throw_internal	#
	testb	%al, %al	# D.15835
	jne	.L424	#,
	.loc 1 2334 0
	movl	reload_completed(%rip), %eax	# reload_completed, reload_completed.513
	testl	%eax, %eax	# reload_completed.513
	jne	.L425	#,
	.loc 1 2335 0
	movq	-24(%rbp), %rax	# insn, tmp133
	movq	32(%rax), %rax	# insn_3->fld[3].rtx, D.15834
	movq	%rax, %rdi	# D.15834,
	call	sets_likely_spilled	#
	testb	%al, %al	# D.15835
	jne	.L424	#,
.L425:
	.loc 1 2336 0
	movq	-24(%rbp), %rax	# insn, tmp134
	movzwl	(%rax), %eax	# insn_3->code, D.15833
	cmpw	$37, %ax	#, D.15833
	je	.L424	#,
.L423:
	.loc 1 2370 0
	movq	-16(%rbp), %rax	# last, tmp135
	movq	%rax, -24(%rbp)	# tmp135, insn
	.loc 1 2371 0
	cmpq	$0, -24(%rbp)	#, insn
	je	.L416	#,
	.loc 1 2372 0
	jmp	.L427	#
.L431:
	.loc 1 2374 0
	movq	-24(%rbp), %rax	# insn, tmp136
	movq	%rax, %rdi	# tmp136,
	call	prev_nonnote_insn	#
	movq	%rax, -24(%rbp)	# tmp137, insn
	.loc 1 2376 0
	movq	h_i_d(%rip), %rcx	# h_i_d, h_i_d.514
	movq	-24(%rbp), %rax	# insn, tmp138
	movl	8(%rax), %eax	# insn_47->fld[0].rtint, D.15836
	movslq	%eax, %rdx	# D.15836, D.15837
	movq	%rdx, %rax	# D.15837, tmp139
	addq	%rax, %rax	# tmp139
	addq	%rdx, %rax	# D.15837, tmp139
	salq	$4, %rax	#, tmp140
	addq	%rcx, %rax	# h_i_d.514, D.15838
	movl	32(%rax), %eax	# _52->ref_count, D.15836
	testl	%eax, %eax	# D.15836
	je	.L428	#,
	.loc 1 2377 0
	jmp	.L427	#
.L428:
	.loc 1 2379 0
	movq	-24(%rbp), %rcx	# insn, tmp141
	movq	-16(%rbp), %rax	# last, tmp142
	movl	$14, %edx	#,
	movq	%rcx, %rsi	# tmp141,
	movq	%rax, %rdi	# tmp142,
	call	add_dependence	#
	.loc 1 2380 0
	movq	h_i_d(%rip), %rcx	# h_i_d, h_i_d.515
	movq	-24(%rbp), %rax	# insn, tmp143
	movl	8(%rax), %eax	# insn_47->fld[0].rtint, D.15836
	movslq	%eax, %rdx	# D.15836, D.15837
	movq	%rdx, %rax	# D.15837, tmp144
	addq	%rax, %rax	# tmp144
	addq	%rdx, %rax	# D.15837, tmp144
	salq	$4, %rax	#, tmp145
	addq	%rcx, %rax	# h_i_d.515, D.15838
	movl	$1, 32(%rax)	#, _58->ref_count
	.loc 1 2383 0
	jmp	.L429	#
.L430:
	.loc 1 2384 0
	movq	-24(%rbp), %rax	# insn, tmp146
	movq	%rax, %rdi	# tmp146,
	call	prev_nonnote_insn	#
	movq	%rax, -24(%rbp)	# tmp147, insn
.L429:
	.loc 1 2383 0 discriminator 1
	movq	-24(%rbp), %rax	# insn, tmp148
	movzbl	3(%rax), %eax	# *insn_4, D.15839
	andl	$16, %eax	#, D.15839
	testb	%al, %al	# D.15839
	jne	.L430	#,
.L427:
	.loc 1 2372 0 discriminator 1
	movq	-24(%rbp), %rax	# insn, tmp149
	cmpq	-40(%rbp), %rax	# head, tmp149
	jne	.L431	#,
.L416:
	.loc 1 2386 0
	leave
	.cfi_def_cfa 7, 8
	ret
	.cfi_endproc
.LFE37:
	.size	add_branch_dependences, .-add_branch_dependences
	.local	bb_deps
	.comm	bb_deps,8,8
	.type	concat_INSN_LIST, @function
concat_INSN_LIST:
.LFB38:
	.loc 1 2401 0
	.cfi_startproc
	pushq	%rbp	#
	.cfi_def_cfa_offset 16
	.cfi_offset 6, -16
	movq	%rsp, %rbp	#,
	.cfi_def_cfa_register 6
	subq	$32, %rsp	#,
	movq	%rdi, -24(%rbp)	# copy, copy
	movq	%rsi, -32(%rbp)	# old, old
	.loc 1 2402 0
	movq	-32(%rbp), %rax	# old, tmp62
	movq	%rax, -8(%rbp)	# tmp62, new
	.loc 1 2403 0
	jmp	.L433	#
.L434:
	.loc 1 2404 0 discriminator 2
	movq	-24(%rbp), %rax	# copy, tmp63
	movq	8(%rax), %rax	# copy_1->fld[0].rtx, D.15840
	movq	-8(%rbp), %rdx	# new, tmp64
	movq	%rdx, %rsi	# tmp64,
	movq	%rax, %rdi	# D.15840,
	call	alloc_INSN_LIST	#
	movq	%rax, -8(%rbp)	# tmp65, new
	.loc 1 2403 0 discriminator 2
	movq	-24(%rbp), %rax	# copy, tmp66
	movq	16(%rax), %rax	# copy_1->fld[1].rtx, tmp67
	movq	%rax, -24(%rbp)	# tmp67, copy
.L433:
	.loc 1 2403 0 is_stmt 0 discriminator 1
	cmpq	$0, -24(%rbp)	#, copy
	jne	.L434	#,
	.loc 1 2405 0 is_stmt 1
	movq	-8(%rbp), %rax	# new, D.15841
	.loc 1 2406 0
	leave
	.cfi_def_cfa 7, 8
	ret
	.cfi_endproc
.LFE38:
	.size	concat_INSN_LIST, .-concat_INSN_LIST
	.type	concat_insn_mem_list, @function
concat_insn_mem_list:
.LFB39:
	.loc 1 2412 0
	.cfi_startproc
	pushq	%rbp	#
	.cfi_def_cfa_offset 16
	.cfi_offset 6, -16
	movq	%rsp, %rbp	#,
	.cfi_def_cfa_register 6
	subq	$48, %rsp	#,
	movq	%rdi, -24(%rbp)	# copy_insns, copy_insns
	movq	%rsi, -32(%rbp)	# copy_mems, copy_mems
	movq	%rdx, -40(%rbp)	# old_insns_p, old_insns_p
	movq	%rcx, -48(%rbp)	# old_mems_p, old_mems_p
	.loc 1 2413 0
	movq	-40(%rbp), %rax	# old_insns_p, tmp61
	movq	(%rax), %rax	# *old_insns_p_5(D), tmp62
	movq	%rax, -16(%rbp)	# tmp62, new_insns
	.loc 1 2414 0
	movq	-48(%rbp), %rax	# old_mems_p, tmp63
	movq	(%rax), %rax	# *old_mems_p_7(D), tmp64
	movq	%rax, -8(%rbp)	# tmp64, new_mems
	.loc 1 2416 0
	jmp	.L437	#
.L438:
	.loc 1 2418 0
	movq	-24(%rbp), %rax	# copy_insns, tmp65
	movq	8(%rax), %rax	# copy_insns_1->fld[0].rtx, D.15842
	movq	-16(%rbp), %rdx	# new_insns, tmp66
	movq	%rdx, %rsi	# tmp66,
	movq	%rax, %rdi	# D.15842,
	call	alloc_INSN_LIST	#
	movq	%rax, -16(%rbp)	# tmp67, new_insns
	.loc 1 2419 0
	movq	-32(%rbp), %rax	# copy_mems, tmp68
	movq	8(%rax), %rax	# copy_mems_2->fld[0].rtx, D.15842
	movq	-8(%rbp), %rdx	# new_mems, tmp69
	movq	%rax, %rsi	# D.15842,
	movl	$0, %edi	#,
	call	alloc_EXPR_LIST	#
	movq	%rax, -8(%rbp)	# tmp70, new_mems
	.loc 1 2420 0
	movq	-24(%rbp), %rax	# copy_insns, tmp71
	movq	16(%rax), %rax	# copy_insns_1->fld[1].rtx, tmp72
	movq	%rax, -24(%rbp)	# tmp72, copy_insns
	.loc 1 2421 0
	movq	-32(%rbp), %rax	# copy_mems, tmp73
	movq	16(%rax), %rax	# copy_mems_2->fld[1].rtx, tmp74
	movq	%rax, -32(%rbp)	# tmp74, copy_mems
.L437:
	.loc 1 2416 0 discriminator 1
	cmpq	$0, -24(%rbp)	#, copy_insns
	jne	.L438	#,
	.loc 1 2424 0
	movq	-40(%rbp), %rax	# old_insns_p, tmp75
	movq	-16(%rbp), %rdx	# new_insns, tmp76
	movq	%rdx, (%rax)	# tmp76, *old_insns_p_5(D)
	.loc 1 2425 0
	movq	-48(%rbp), %rax	# old_mems_p, tmp77
	movq	-8(%rbp), %rdx	# new_mems, tmp78
	movq	%rdx, (%rax)	# tmp78, *old_mems_p_7(D)
	.loc 1 2426 0
	leave
	.cfi_def_cfa 7, 8
	ret
	.cfi_endproc
.LFE39:
	.size	concat_insn_mem_list, .-concat_insn_mem_list
	.type	propagate_deps, @function
propagate_deps:
.LFB40:
	.loc 1 2434 0
	.cfi_startproc
	pushq	%rbp	#
	.cfi_def_cfa_offset 16
	.cfi_offset 6, -16
	movq	%rsp, %rbp	#,
	.cfi_def_cfa_register 6
	subq	$112, %rsp	#,
	movl	%edi, -100(%rbp)	# bb, bb
	movq	%rsi, -112(%rbp)	# pred_deps, pred_deps
	.loc 1 2435 0
	movq	rgn_bb_table(%rip), %rax	# rgn_bb_table, rgn_bb_table.516
	movl	current_blocks(%rip), %ecx	# current_blocks, current_blocks.517
	movl	-100(%rbp), %edx	# bb, tmp175
	addl	%ecx, %edx	# current_blocks.517, D.15843
	movslq	%edx, %rdx	# D.15843, D.15844
	salq	$2, %rdx	#, D.15844
	addq	%rdx, %rax	# D.15844, D.15845
	movl	(%rax), %eax	# *_20, tmp176
	movl	%eax, -72(%rbp)	# tmp176, b
	.loc 1 2439 0
	movq	out_edges(%rip), %rax	# out_edges, out_edges.518
	movl	-72(%rbp), %edx	# b, tmp177
	movslq	%edx, %rdx	# tmp177, D.15844
	salq	$2, %rdx	#, D.15844
	addq	%rdx, %rax	# D.15844, D.15845
	movl	(%rax), %eax	# *_25, tmp178
	movl	%eax, -84(%rbp)	# tmp178, e
	movl	-84(%rbp), %eax	# e, tmp179
	movl	%eax, -68(%rbp)	# tmp179, first_edge
	.loc 1 2440 0
	cmpl	$0, -84(%rbp)	#, e
	jle	.L440	#,
.L456:
.LBB45:
	.loc 1 2443 0
	movq	edge_table(%rip), %rax	# edge_table, edge_table.519
	movl	-84(%rbp), %edx	# e, tmp180
	movslq	%edx, %rdx	# tmp180, D.15844
	salq	$4, %rdx	#, D.15844
	addq	%rdx, %rax	# D.15844, D.15846
	movl	4(%rax), %eax	# _31->to_block, tmp181
	movl	%eax, -64(%rbp)	# tmp181, b_succ
	.loc 1 2444 0
	movq	block_to_bb(%rip), %rax	# block_to_bb, block_to_bb.520
	movl	-64(%rbp), %edx	# b_succ, tmp182
	movslq	%edx, %rdx	# tmp182, D.15844
	salq	$2, %rdx	#, D.15844
	addq	%rdx, %rax	# D.15844, D.15845
	movl	(%rax), %eax	# *_36, tmp183
	movl	%eax, -60(%rbp)	# tmp183, bb_succ
	.loc 1 2445 0
	movq	bb_deps(%rip), %rcx	# bb_deps, bb_deps.521
	movl	-60(%rbp), %eax	# bb_succ, tmp184
	movslq	%eax, %rdx	# tmp184, D.15844
	movq	%rdx, %rax	# D.15844, tmp185
	addq	%rax, %rax	# tmp185
	addq	%rdx, %rax	# D.15844, tmp185
	salq	$2, %rax	#, tmp185
	addq	%rdx, %rax	# D.15844, tmp185
	salq	$3, %rax	#, tmp186
	addq	%rcx, %rax	# bb_deps.521, tmp187
	movq	%rax, -32(%rbp)	# tmp187, succ_deps
	.loc 1 2449 0
	movq	containing_rgn(%rip), %rax	# containing_rgn, containing_rgn.522
	movl	-72(%rbp), %edx	# b, tmp188
	movslq	%edx, %rdx	# tmp188, D.15844
	salq	$2, %rdx	#, D.15844
	addq	%rdx, %rax	# D.15844, D.15845
	movl	(%rax), %edx	# *_45, D.15843
