	.file	"ssa-dce.c"
# GNU C (Ubuntu/Linaro 4.8.1-10ubuntu9) version 4.8.1 (x86_64-linux-gnu)
#	compiled by GNU C version 4.8.1, GMP version 5.1.2, MPFR version 3.1.1-p2, MPC version 1.0.1
# GGC heuristics: --param ggc-min-expand=100 --param ggc-min-heapsize=131072
# options passed:  -I . -imultiarch x86_64-linux-gnu -D SPEC_CPU -D NDEBUG
# -D SPEC_CPU_LP64 ssa-dce.c -mtune=generic -march=x86-64 -g -fverbose-asm
# -fno-strict-aliasing -fstack-protector -Wformat -Wformat-security
# options enabled:  -faggressive-loop-optimizations
# -fasynchronous-unwind-tables -fauto-inc-dec -fbranch-count-reg -fcommon
# -fdelete-null-pointer-checks -fdwarf2-cfi-asm -fearly-inlining
# -feliminate-unused-debug-types -ffunction-cse -fgcse-lm -fgnu-runtime
# -fident -finline-atomics -fira-hoist-pressure -fira-share-save-slots
# -fira-share-spill-slots -fivopts -fkeep-static-consts
# -fleading-underscore -fmath-errno -fmerge-debug-strings
# -fmove-loop-invariants -fpeephole -fprefetch-loop-arrays
# -freg-struct-return -fsched-critical-path-heuristic
# -fsched-dep-count-heuristic -fsched-group-heuristic -fsched-interblock
# -fsched-last-insn-heuristic -fsched-rank-heuristic -fsched-spec
# -fsched-spec-insn-heuristic -fsched-stalled-insns-dep -fshow-column
# -fsigned-zeros -fsplit-ivs-in-unroller -fstack-protector
# -fstrict-volatile-bitfields -fsync-libcalls -ftrapping-math
# -ftree-coalesce-vars -ftree-cselim -ftree-forwprop -ftree-loop-if-convert
# -ftree-loop-im -ftree-loop-ivcanon -ftree-loop-optimize
# -ftree-parallelize-loops= -ftree-phiprop -ftree-pta -ftree-reassoc
# -ftree-scev-cprop -ftree-slp-vectorize -ftree-vect-loop-version
# -funit-at-a-time -funwind-tables -fverbose-asm -fzero-initialized-in-bss
# -m128bit-long-double -m64 -m80387 -maccumulate-outgoing-args
# -malign-stringops -mfancy-math-387 -mfp-ret-in-387 -mfxsr -mglibc
# -mieee-fp -mlong-double-80 -mmmx -mno-sse4 -mpush-args -mred-zone -msse
# -msse2 -mtls-direct-seg-refs

	.text
.Ltext0:
	.type	control_dependent_block_to_edge_map_create, @function
control_dependent_block_to_edge_map_create:
.LFB2:
	.file 1 "ssa-dce.c"
	.loc 1 162 0
	.cfi_startproc
	pushq	%rbp	#
	.cfi_def_cfa_offset 16
	.cfi_offset 6, -16
	movq	%rsp, %rbp	#,
	.cfi_def_cfa_register 6
	pushq	%rbx	#
	subq	$40, %rsp	#,
	.cfi_offset 3, -24
	movq	%rdi, -40(%rbp)	# num_basic_blocks, num_basic_blocks
	.loc 1 164 0
	movl	$16, %edi	#,
	call	xmalloc	#
	movq	%rax, -24(%rbp)	# tmp75, c
	.loc 1 166 0
	movq	-40(%rbp), %rax	# num_basic_blocks, tmp76
	addl	$2, %eax	#, D.10419
	movl	%eax, %edx	# D.10419, D.10420
	movq	-24(%rbp), %rax	# c, tmp77
	movl	%edx, 8(%rax)	# D.10420, c_2->length
	.loc 1 167 0
	movq	-24(%rbp), %rax	# c, tmp78
	movl	8(%rax), %eax	# c_2->length, D.10420
	cltq
	salq	$3, %rax	#, D.10421
	movq	%rax, %rdi	# D.10421,
	call	xmalloc	#
	movq	%rax, %rdx	# tmp79, D.10422
	movq	-24(%rbp), %rax	# c, tmp80
	movq	%rdx, (%rax)	# D.10422, c_2->data
	.loc 1 168 0
	movl	$0, -28(%rbp)	#, i
	jmp	.L2	#
.L3:
	.loc 1 169 0 discriminator 2
	movq	-24(%rbp), %rax	# c, tmp81
	movq	(%rax), %rax	# c_2->data, D.10423
	movl	-28(%rbp), %edx	# i, tmp82
	movslq	%edx, %rdx	# tmp82, D.10421
	salq	$3, %rdx	#, D.10421
	leaq	(%rax,%rdx), %rbx	#, D.10423
	movl	$24, %edi	#,
	call	xmalloc	#
	movq	%rax, %rdi	# D.10422,
	call	bitmap_initialize	#
	movq	%rax, (%rbx)	# D.10424, *_16
	.loc 1 168 0 discriminator 2
	addl	$1, -28(%rbp)	#, i
.L2:
	.loc 1 168 0 is_stmt 0 discriminator 1
	movq	-24(%rbp), %rax	# c, tmp84
	movl	8(%rax), %eax	# c_2->length, D.10420
	cmpl	-28(%rbp), %eax	# i, D.10420
	jg	.L3	#,
	.loc 1 171 0 is_stmt 1
	movq	-24(%rbp), %rax	# c, D.10425
	.loc 1 172 0
	addq	$40, %rsp	#,
	popq	%rbx	#
	popq	%rbp	#
	.cfi_def_cfa 7, 8
	ret
	.cfi_endproc
.LFE2:
	.size	control_dependent_block_to_edge_map_create, .-control_dependent_block_to_edge_map_create
	.section	.rodata
.LC0:
	.string	"ssa-dce.c"
	.text
	.type	set_control_dependent_block_to_edge_map_bit, @function
set_control_dependent_block_to_edge_map_bit:
.LFB3:
	.loc 1 183 0
	.cfi_startproc
	pushq	%rbp	#
	.cfi_def_cfa_offset 16
	.cfi_offset 6, -16
	movq	%rsp, %rbp	#,
	.cfi_def_cfa_register 6
	subq	$32, %rsp	#,
	movq	%rdi, -8(%rbp)	# c, c
	movq	%rsi, -16(%rbp)	# bb, bb
	movl	%edx, -20(%rbp)	# edge_index, edge_index
	.loc 1 184 0
	movq	-16(%rbp), %rax	# bb, tmp69
	movl	88(%rax), %eax	# bb_1(D)->index, D.10426
	leal	2(%rax), %edx	#, D.10426
	movq	-8(%rbp), %rax	# c, tmp70
	movl	8(%rax), %eax	# c_4(D)->length, D.10426
	cmpl	%eax, %edx	# D.10426, D.10426
	jl	.L6	#,
	.loc 1 185 0
	movl	$__FUNCTION__.9693, %edx	#,
	movl	$185, %esi	#,
	movl	$.LC0, %edi	#,
	call	fancy_abort	#
.L6:
	.loc 1 187 0
	movq	-8(%rbp), %rax	# c, tmp71
	movq	(%rax), %rdx	# c_4(D)->data, D.10427
	movq	-16(%rbp), %rax	# bb, tmp72
	movl	88(%rax), %eax	# bb_1(D)->index, D.10426
	cltq
	addq	$2, %rax	#, D.10428
	salq	$3, %rax	#, D.10428
	addq	%rdx, %rax	# D.10427, D.10427
	movq	(%rax), %rax	# *_11, D.10429
	movl	-20(%rbp), %edx	# edge_index, tmp73
	movl	%edx, %esi	# tmp73,
	movq	%rax, %rdi	# D.10429,
	call	bitmap_set_bit	#
	.loc 1 189 0
	leave
	.cfi_def_cfa 7, 8
	ret
	.cfi_endproc
.LFE3:
	.size	set_control_dependent_block_to_edge_map_bit, .-set_control_dependent_block_to_edge_map_bit
	.type	control_dependent_block_to_edge_map_free, @function
control_dependent_block_to_edge_map_free:
.LFB4:
	.loc 1 206 0
	.cfi_startproc
	pushq	%rbp	#
	.cfi_def_cfa_offset 16
	.cfi_offset 6, -16
	movq	%rsp, %rbp	#,
	.cfi_def_cfa_register 6
	subq	$32, %rsp	#,
	movq	%rdi, -24(%rbp)	# c, c
	.loc 1 208 0
	movl	$0, -4(%rbp)	#, i
	jmp	.L8	#
.L10:
	.loc 1 209 0
	movq	-24(%rbp), %rax	# c, tmp79
	movq	(%rax), %rax	# c_3(D)->data, D.10432
	movl	-4(%rbp), %edx	# i, tmp80
	movslq	%edx, %rdx	# tmp80, D.10433
	salq	$3, %rdx	#, D.10433
	addq	%rdx, %rax	# D.10433, D.10432
	movq	(%rax), %rax	# *_8, D.10434
	testq	%rax, %rax	# D.10434
	je	.L9	#,
	.loc 1 209 0 is_stmt 0 discriminator 1
	movq	-24(%rbp), %rax	# c, tmp81
	movq	(%rax), %rax	# c_3(D)->data, D.10432
	movl	-4(%rbp), %edx	# i, tmp82
	movslq	%edx, %rdx	# tmp82, D.10433
	salq	$3, %rdx	#, D.10433
	addq	%rdx, %rax	# D.10433, D.10432
	movq	(%rax), %rax	# *_13, D.10434
	movq	%rax, %rdi	# D.10434,
	call	bitmap_clear	#
	movq	-24(%rbp), %rax	# c, tmp83
	movq	(%rax), %rax	# c_3(D)->data, D.10432
	movl	-4(%rbp), %edx	# i, tmp84
	movslq	%edx, %rdx	# tmp84, D.10433
	salq	$3, %rdx	#, D.10433
	addq	%rdx, %rax	# D.10433, D.10432
	movq	(%rax), %rax	# *_18, D.10434
	movq	%rax, %rdi	# D.10434,
	call	free	#
	movq	-24(%rbp), %rax	# c, tmp85
	movq	(%rax), %rax	# c_3(D)->data, D.10432
	movl	-4(%rbp), %edx	# i, tmp86
	movslq	%edx, %rdx	# tmp86, D.10433
	salq	$3, %rdx	#, D.10433
	addq	%rdx, %rax	# D.10433, D.10432
	movq	$0, (%rax)	#, *_23
.L9:
	.loc 1 208 0 is_stmt 1
	addl	$1, -4(%rbp)	#, i
.L8:
	.loc 1 208 0 is_stmt 0 discriminator 1
	movq	-24(%rbp), %rax	# c, tmp87
	movl	8(%rax), %eax	# c_3(D)->length, D.10431
	cmpl	-4(%rbp), %eax	# i, D.10431
	jg	.L10	#,
	.loc 1 210 0 is_stmt 1
	movq	-24(%rbp), %rax	# c, tmp88
	movq	%rax, %rdi	# tmp88,
	call	free	#
	.loc 1 211 0
	leave
	.cfi_def_cfa 7, 8
	ret
	.cfi_endproc
.LFE4:
	.size	control_dependent_block_to_edge_map_free, .-control_dependent_block_to_edge_map_free
	.type	find_all_control_dependences, @function
find_all_control_dependences:
.LFB5:
	.loc 1 223 0
	.cfi_startproc
	pushq	%rbp	#
	.cfi_def_cfa_offset 16
	.cfi_offset 6, -16
	movq	%rsp, %rbp	#,
	.cfi_def_cfa_register 6
	subq	$48, %rsp	#,
	movq	%rdi, -24(%rbp)	# el, el
	movq	%rsi, -32(%rbp)	# pdom, pdom
	movq	%rdx, -40(%rbp)	# cdbte, cdbte
	.loc 1 226 0
	movl	$0, -4(%rbp)	#, i
	jmp	.L12	#
.L13:
	.loc 1 227 0 discriminator 2
	movq	-40(%rbp), %rcx	# cdbte, tmp60
	movq	-32(%rbp), %rdx	# pdom, tmp61
	movl	-4(%rbp), %esi	# i, tmp62
	movq	-24(%rbp), %rax	# el, tmp63
	movq	%rax, %rdi	# tmp63,
	call	find_control_dependence	#
	.loc 1 226 0 discriminator 2
	addl	$1, -4(%rbp)	#, i
.L12:
	.loc 1 226 0 is_stmt 0 discriminator 1
	movq	-24(%rbp), %rax	# el, tmp64
	movl	4(%rax), %eax	# el_3(D)->num_edges, D.10435
	cmpl	-4(%rbp), %eax	# i, D.10435
	jg	.L13	#,
	.loc 1 228 0 is_stmt 1
	leave
	.cfi_def_cfa 7, 8
	ret
	.cfi_endproc
.LFE5:
	.size	find_all_control_dependences, .-find_all_control_dependences
	.type	find_control_dependence, @function
find_control_dependence:
.LFB6:
	.loc 1 242 0
	.cfi_startproc
	pushq	%rbp	#
	.cfi_def_cfa_offset 16
	.cfi_offset 6, -16
	movq	%rsp, %rbp	#,
	.cfi_def_cfa_register 6
	subq	$48, %rsp	#,
	movq	%rdi, -24(%rbp)	# el, el
	movl	%esi, -28(%rbp)	# edge_index, edge_index
	movq	%rdx, -40(%rbp)	# pdom, pdom
	movq	%rcx, -48(%rbp)	# cdbte, cdbte
	.loc 1 246 0
	movq	-24(%rbp), %rax	# el, tmp84
	movq	8(%rax), %rax	# el_3(D)->index_to_edge, D.10436
	movl	-28(%rbp), %edx	# edge_index, tmp85
	movslq	%edx, %rdx	# tmp85, D.10437
	salq	$3, %rdx	#, D.10437
	addq	%rdx, %rax	# D.10437, D.10436
	movq	(%rax), %rax	# *_8, D.10438
	movq	16(%rax), %rax	# _9->src, D.10439
	cmpq	$entry_exit_blocks+112, %rax	#, D.10439
	jne	.L15	#,
	.loc 1 247 0
	movl	$__FUNCTION__.9718, %edx	#,
	movl	$247, %esi	#,
	movl	$.LC0, %edi	#,
	call	fancy_abort	#
.L15:
	.loc 1 249 0
	movq	-24(%rbp), %rax	# el, tmp86
	movq	8(%rax), %rax	# el_3(D)->index_to_edge, D.10436
	movl	-28(%rbp), %edx	# edge_index, tmp87
	movslq	%edx, %rdx	# tmp87, D.10437
	salq	$3, %rdx	#, D.10437
	addq	%rdx, %rax	# D.10437, D.10436
	movq	(%rax), %rax	# *_14, D.10438
	movq	16(%rax), %rax	# _15->src, D.10439
	.loc 1 251 0
	cmpq	$entry_exit_blocks, %rax	#, D.10439
	jne	.L16	#,
	.loc 1 250 0
	movq	basic_block_info(%rip), %rax	# basic_block_info, basic_block_info.1
	.loc 1 251 0
	movq	32(%rax), %rax	# basic_block_info.1_17->data.bb, iftmp.0
	jmp	.L17	#
.L16:
	.loc 1 251 0 is_stmt 0 discriminator 1
	movq	-24(%rbp), %rax	# el, tmp88
	movq	8(%rax), %rax	# el_3(D)->index_to_edge, D.10436
	movl	-28(%rbp), %edx	# edge_index, tmp89
	movslq	%edx, %rdx	# tmp89, D.10437
	salq	$3, %rdx	#, D.10437
	addq	%rdx, %rax	# D.10437, D.10436
	movq	(%rax), %rax	# *_22, D.10438
	movq	16(%rax), %rdx	# _23->src, D.10439
	movq	-40(%rbp), %rax	# pdom, tmp90
	movq	%rdx, %rsi	# D.10439,
	movq	%rax, %rdi	# tmp90,
	call	find_pdom	#
.L17:
	.loc 1 248 0 is_stmt 1
	movq	%rax, -8(%rbp)	# iftmp.0, ending_block
	.loc 1 253 0
	movq	-24(%rbp), %rax	# el, tmp91
	movq	8(%rax), %rax	# el_3(D)->index_to_edge, D.10436
	movl	-28(%rbp), %edx	# edge_index, tmp92
	movslq	%edx, %rdx	# tmp92, D.10437
	salq	$3, %rdx	#, D.10437
	addq	%rdx, %rax	# D.10437, D.10436
	movq	(%rax), %rax	# *_31, D.10438
	movq	24(%rax), %rax	# _32->dest, tmp93
	movq	%rax, -16(%rbp)	# tmp93, current_block
	jmp	.L18	#
.L20:
	.loc 1 257 0
	movl	-28(%rbp), %edx	# edge_index, tmp94
	movq	-16(%rbp), %rcx	# current_block, tmp95
	movq	-48(%rbp), %rax	# cdbte, tmp96
	movq	%rcx, %rsi	# tmp95,
	movq	%rax, %rdi	# tmp96,
	call	set_control_dependent_block_to_edge_map_bit	#
	.loc 1 255 0
	movq	-16(%rbp), %rdx	# current_block, tmp97
	movq	-40(%rbp), %rax	# pdom, tmp98
	movq	%rdx, %rsi	# tmp97,
	movq	%rax, %rdi	# tmp98,
	call	find_pdom	#
	movq	%rax, -16(%rbp)	# tmp99, current_block
.L18:
	.loc 1 253 0 discriminator 1
	movq	-16(%rbp), %rax	# current_block, tmp100
	cmpq	-8(%rbp), %rax	# ending_block, tmp100
	je	.L14	#,
	.loc 1 254 0
	cmpq	$entry_exit_blocks+112, -16(%rbp)	#, current_block
	jne	.L20	#,
.L14:
	.loc 1 261 0
	leave
	.cfi_def_cfa 7, 8
	ret
	.cfi_endproc
.LFE6:
	.size	find_control_dependence, .-find_control_dependence
	.type	find_pdom, @function
find_pdom:
.LFB7:
	.loc 1 271 0
	.cfi_startproc
	pushq	%rbp	#
	.cfi_def_cfa_offset 16
	.cfi_offset 6, -16
	movq	%rsp, %rbp	#,
	.cfi_def_cfa_register 6
	subq	$16, %rsp	#,
	movq	%rdi, -8(%rbp)	# pdom, pdom
	movq	%rsi, -16(%rbp)	# block, block
	.loc 1 272 0
	cmpq	$0, -16(%rbp)	#, block
	jne	.L22	#,
	.loc 1 273 0
	movl	$__FUNCTION__.9726, %edx	#,
	movl	$273, %esi	#,
	movl	$.LC0, %edi	#,
	call	fancy_abort	#
.L22:
	.loc 1 274 0
	movq	-16(%rbp), %rax	# block, tmp74
	movl	88(%rax), %eax	# block_2(D)->index, D.10441
	cmpl	$-3, %eax	#, D.10441
	jne	.L23	#,
	.loc 1 275 0
	movl	$__FUNCTION__.9726, %edx	#,
	movl	$275, %esi	#,
	movl	$.LC0, %edi	#,
	call	fancy_abort	#
.L23:
	.loc 1 277 0
	cmpq	$entry_exit_blocks, -16(%rbp)	#, block
	jne	.L24	#,
	.loc 1 278 0
	movq	basic_block_info(%rip), %rax	# basic_block_info, basic_block_info.2
	movq	32(%rax), %rax	# basic_block_info.2_4->data.bb, D.10440
	jmp	.L25	#
.L24:
	.loc 1 279 0
	cmpq	$entry_exit_blocks+112, -16(%rbp)	#, block
	je	.L26	#,
	.loc 1 279 0 is_stmt 0 discriminator 1
	movq	-16(%rbp), %rax	# block, tmp75
	movl	88(%rax), %eax	# block_2(D)->index, D.10441
	cltq
	leaq	0(,%rax,4), %rdx	#, D.10442
	movq	-8(%rbp), %rax	# pdom, tmp76
	addq	%rdx, %rax	# D.10442, D.10443
	movl	(%rax), %eax	# *_10, D.10441
	cmpl	$-2, %eax	#, D.10441
	jne	.L27	#,
.L26:
	.loc 1 280 0 is_stmt 1
	movl	$entry_exit_blocks+112, %eax	#, D.10440
	jmp	.L25	#
.L27:
	.loc 1 282 0
	movq	basic_block_info(%rip), %rax	# basic_block_info, basic_block_info.3
	movq	-16(%rbp), %rdx	# block, tmp77
	movl	88(%rdx), %edx	# block_2(D)->index, D.10441
	movslq	%edx, %rdx	# D.10441, D.10442
	leaq	0(,%rdx,4), %rcx	#, D.10442
	movq	-8(%rbp), %rdx	# pdom, tmp78
	addq	%rcx, %rdx	# D.10442, D.10443
	movl	(%rdx), %edx	# *_16, D.10441
	movslq	%edx, %rdx	# D.10441, tmp79
	addq	$4, %rdx	#, tmp80
	movq	(%rax,%rdx,8), %rax	# basic_block_info.3_12->data.bb, D.10440
.L25:
	.loc 1 283 0
	leave
	.cfi_def_cfa 7, 8
	ret
	.cfi_endproc
.LFE7:
	.size	find_pdom, .-find_pdom
	.type	inherently_necessary_register_1, @function
inherently_necessary_register_1:
.LFB8:
	.loc 1 297 0
	.cfi_startproc
	pushq	%rbp	#
	.cfi_def_cfa_offset 16
	.cfi_offset 6, -16
	movq	%rsp, %rbp	#,
	.cfi_def_cfa_register 6
	movq	%rdi, -24(%rbp)	# current_rtx, current_rtx
	movq	%rsi, -32(%rbp)	# data, data
	.loc 1 298 0
	movq	-24(%rbp), %rax	# current_rtx, tmp67
	movq	(%rax), %rax	# *current_rtx_2(D), tmp68
	movq	%rax, -8(%rbp)	# tmp68, x
	.loc 1 300 0
	cmpq	$0, -8(%rbp)	#, x
	jne	.L29	#,
	.loc 1 301 0
	movl	$0, %eax	#, D.10444
	jmp	.L30	#
.L29:
	.loc 1 302 0
	movq	-8(%rbp), %rax	# x, tmp69
	movzwl	(%rax), %eax	# x_3->code, D.10445
	movzwl	%ax, %eax	# D.10445, D.10446
	cmpl	$59, %eax	#, D.10446
	je	.L32	#,
	cmpl	$61, %eax	#, D.10446
	je	.L33	#,
	cmpl	$49, %eax	#, D.10446
	jne	.L37	#,
	.loc 1 306 0
	movl	$-1, %eax	#, D.10444
	jmp	.L30	#
.L32:
	.loc 1 309 0
	movl	$0, %eax	#, D.10444
	jmp	.L30	#
.L33:
	.loc 1 312 0
	movq	-8(%rbp), %rax	# x, tmp70
	movl	8(%rax), %eax	# x_3->fld[0].rtuint, D.10446
	cmpl	$52, %eax	#, D.10446
	ja	.L35	#,
	.loc 1 312 0 is_stmt 0 discriminator 1
	movq	-8(%rbp), %rax	# x, tmp71
	movl	8(%rax), %eax	# x_3->fld[0].rtuint, D.10446
	cmpl	$17, %eax	#, D.10446
	je	.L35	#,
	movq	-8(%rbp), %rax	# x, tmp72
	movl	8(%rax), %eax	# x_3->fld[0].rtuint, D.10446
	cmpl	$16, %eax	#, D.10446
	je	.L35	#,
	movq	global_rtl(%rip), %rax	# global_rtl, D.10447
	cmpq	-8(%rbp), %rax	# x, D.10447
	jne	.L36	#,
.L35:
	.loc 1 313 0 is_stmt 1
	movl	$0, %eax	#, D.10444
	jmp	.L30	#
.L36:
	.loc 1 315 0
	movl	$1, %eax	#, D.10444
	jmp	.L30	#
.L37:
	.loc 1 318 0
	movl	$0, %eax	#, D.10444
.L30:
	.loc 1 321 0
	popq	%rbp	#
	.cfi_def_cfa 7, 8
	ret
	.cfi_endproc
.LFE8:
	.size	inherently_necessary_register_1, .-inherently_necessary_register_1
	.type	inherently_necessary_register, @function
inherently_necessary_register:
.LFB9:
	.loc 1 328 0
	.cfi_startproc
	pushq	%rbp	#
	.cfi_def_cfa_offset 16
	.cfi_offset 6, -16
	movq	%rsp, %rbp	#,
	.cfi_def_cfa_register 6
	subq	$16, %rsp	#,
	movq	%rdi, -8(%rbp)	# current_rtx, current_rtx
	.loc 1 329 0
	leaq	-8(%rbp), %rax	#, tmp61
	movl	$0, %edx	#,
	movl	$inherently_necessary_register_1, %esi	#,
	movq	%rax, %rdi	# tmp61,
	call	for_each_rtx	#
	.loc 1 331 0
	leave
	.cfi_def_cfa 7, 8
	ret
	.cfi_endproc
.LFE9:
	.size	inherently_necessary_register, .-inherently_necessary_register
	.type	note_inherently_necessary_set, @function
note_inherently_necessary_set:
.LFB10:
	.loc 1 343 0
	.cfi_startproc
	pushq	%rbp	#
	.cfi_def_cfa_offset 16
	.cfi_offset 6, -16
	movq	%rsp, %rbp	#,
	.cfi_def_cfa_register 6
	movq	%rdi, -24(%rbp)	# dest, dest
	movq	%rsi, -32(%rbp)	# set, set
	movq	%rdx, -40(%rbp)	# data, data
	.loc 1 344 0
	movq	-40(%rbp), %rax	# data, tmp66
	movq	%rax, -8(%rbp)	# tmp66, inherently_necessary_set_p
	.loc 1 346 0
	jmp	.L41	#
.L42:
	.loc 1 350 0
	movq	-24(%rbp), %rax	# dest, tmp67
	movq	8(%rax), %rax	# dest_1->fld[0].rtx, tmp68
	movq	%rax, -24(%rbp)	# tmp68, dest
.L41:
	.loc 1 346 0 discriminator 1
	movq	-24(%rbp), %rax	# dest, tmp69
	movzwl	(%rax), %eax	# dest_1->code, D.10449
	cmpw	$63, %ax	#, D.10449
	je	.L42	#,
	.loc 1 347 0
	movq	-24(%rbp), %rax	# dest, tmp70
	movzwl	(%rax), %eax	# dest_1->code, D.10449
	cmpw	$64, %ax	#, D.10449
	je	.L42	#,
	.loc 1 348 0
	movq	-24(%rbp), %rax	# dest, tmp71
	movzwl	(%rax), %eax	# dest_1->code, D.10449
	cmpw	$133, %ax	#, D.10449
	je	.L42	#,
	.loc 1 349 0
	movq	-24(%rbp), %rax	# dest, tmp72
	movzwl	(%rax), %eax	# dest_1->code, D.10449
	cmpw	$132, %ax	#, D.10449
	je	.L42	#,
	.loc 1 352 0
	movq	-24(%rbp), %rax	# dest, tmp73
	movzwl	(%rax), %eax	# dest_1->code, D.10449
	cmpw	$66, %ax	#, D.10449
	je	.L43	#,
	.loc 1 353 0
	movq	-24(%rbp), %rax	# dest, tmp74
	movzwl	(%rax), %eax	# dest_1->code, D.10449
	cmpw	$42, %ax	#, D.10449
	je	.L43	#,
	.loc 1 354 0
	movq	-24(%rbp), %rax	# dest, tmp75
	movzwl	(%rax), %eax	# dest_1->code, D.10449
	cmpw	$43, %ax	#, D.10449
	jne	.L40	#,
.L43:
	.loc 1 355 0
	movq	-8(%rbp), %rax	# inherently_necessary_set_p, tmp76
	movl	$1, (%rax)	#, *inherently_necessary_set_p_3
.L40:
	.loc 1 356 0
	popq	%rbp	#
	.cfi_def_cfa 7, 8
	ret
	.cfi_endproc
.LFE10:
	.size	note_inherently_necessary_set, .-note_inherently_necessary_set
	.type	find_inherently_necessary, @function
find_inherently_necessary:
.LFB11:
	.loc 1 366 0
	.cfi_startproc
	pushq	%rbp	#
	.cfi_def_cfa_offset 16
	.cfi_offset 6, -16
	movq	%rsp, %rbp	#,
	.cfi_def_cfa_register 6
	subq	$32, %rsp	#,
	movq	%rdi, -24(%rbp)	# x, x
	.loc 1 367 0
	cmpq	$0, -24(%rbp)	#, x
	jne	.L46	#,
	.loc 1 368 0
	movl	$0, %eax	#, D.10450
	jmp	.L47	#
.L46:
	.loc 1 369 0
	movq	-24(%rbp), %rax	# x, tmp78
	movq	%rax, %rdi	# tmp78,
	call	inherently_necessary_register	#
	testl	%eax, %eax	# D.10450
	je	.L48	#,
	.loc 1 370 0
	movl	$1, %eax	#, D.10450
	jmp	.L47	#
.L48:
	.loc 1 372 0
	movq	-24(%rbp), %rax	# x, tmp79
	movzwl	(%rax), %eax	# x_4(D)->code, D.10451
	movzwl	%ax, %eax	# D.10451, D.10452
	subl	$32, %eax	#, tmp80
	cmpl	$14, %eax	#, tmp80
	ja	.L49	#,
	movl	%eax, %eax	# tmp80, tmp81
	movq	.L51(,%rax,8), %rax	#, tmp82
	jmp	*%rax	# tmp82
	.section	.rodata
	.align 8
	.align 4
.L51:
	.quad	.L50
	.quad	.L52
	.quad	.L53
	.quad	.L53
	.quad	.L54
	.quad	.L54
	.quad	.L49
	.quad	.L49
	.quad	.L49
	.quad	.L49
	.quad	.L49
	.quad	.L49
	.quad	.L49
	.quad	.L49
	.quad	.L53
	.text
.L53:
	.loc 1 377 0
	movl	$1, %eax	#, D.10450
	jmp	.L47	#
.L54:
	.loc 1 380 0
	movl	$0, %eax	#, D.10450
	jmp	.L47	#
.L52:
	.loc 1 382 0
	movq	-24(%rbp), %rax	# x, tmp83
	movzwl	(%rax), %eax	# x_4(D)->code, D.10451
	cmpw	$33, %ax	#, D.10451
	jne	.L55	#,
	.loc 1 382 0 is_stmt 0 discriminator 1
	movq	-24(%rbp), %rax	# x, tmp84
	movq	32(%rax), %rax	# x_4(D)->fld[3].rtx, D.10453
	movzwl	(%rax), %eax	# _13->code, D.10451
	cmpw	$44, %ax	#, D.10451
	je	.L56	#,
	.loc 1 382 0 discriminator 2
	movq	-24(%rbp), %rax	# x, tmp85
	movq	32(%rax), %rax	# x_4(D)->fld[3].rtx, D.10453
	movzwl	(%rax), %eax	# _15->code, D.10451
	cmpw	$45, %ax	#, D.10451
	je	.L56	#,
.L55:
	movq	-24(%rbp), %rax	# x, tmp86
	movq	%rax, %rdi	# tmp86,
	call	computed_jump_p	#
	testl	%eax, %eax	# D.10450
	je	.L57	#,
.L56:
	.loc 1 382 0 discriminator 1
	movl	$1, %eax	#, iftmp.4
	jmp	.L58	#
.L57:
	.loc 1 382 0 discriminator 3
	movl	$0, %eax	#, iftmp.4
.L58:
	.loc 1 382 0 discriminator 4
	jmp	.L47	#
.L50:
.LBB2:
	.loc 1 385 0 is_stmt 1
	movl	$0, -4(%rbp)	#, inherently_necessary_set
	.loc 1 386 0
	movq	-24(%rbp), %rax	# x, tmp87
	movq	32(%rax), %rax	# x_4(D)->fld[3].rtx, D.10453
	leaq	-4(%rbp), %rdx	#, tmp88
	movl	$note_inherently_necessary_set, %esi	#,
	movq	%rax, %rdi	# D.10453,
	call	note_stores	#
	.loc 1 393 0
	movl	-4(%rbp), %eax	# inherently_necessary_set, inherently_necessary_set.6
	.loc 1 395 0
	testl	%eax, %eax	# inherently_necessary_set.6
	jne	.L59	#,
	.loc 1 394 0
	movq	-24(%rbp), %rax	# x, tmp89
	movq	32(%rax), %rax	# x_4(D)->fld[3].rtx, D.10453
	movzwl	(%rax), %eax	# _23->code, D.10451
	cmpw	$40, %ax	#, D.10451
	je	.L59	#,
	.loc 1 395 0
	movq	-24(%rbp), %rax	# x, tmp90
	movq	32(%rax), %rax	# x_4(D)->fld[3].rtx, D.10453
	movq	%rax, %rdi	# D.10453,
	call	asm_noperands	#
	testl	%eax, %eax	# D.10450
	js	.L60	#,
.L59:
	.loc 1 395 0 is_stmt 0 discriminator 1
	movl	$1, %eax	#, iftmp.5
	jmp	.L47	#
.L60:
	.loc 1 395 0 discriminator 2
	movl	$0, %eax	#, iftmp.5
	jmp	.L47	#
.L49:
.LBE2:
	.loc 1 399 0 is_stmt 1
	movl	$__FUNCTION__.9760, %edx	#,
	movl	$399, %esi	#,
	movl	$.LC0, %edi	#,
	call	fancy_abort	#
.L47:
	.loc 1 402 0
	leave
	.cfi_def_cfa 7, 8
	ret
	.cfi_endproc
.LFE11:
	.size	find_inherently_necessary, .-find_inherently_necessary
	.type	propagate_necessity_through_operand, @function
propagate_necessity_through_operand:
.LFB12:
	.loc 1 413 0
	.cfi_startproc
	pushq	%rbp	#
	.cfi_def_cfa_offset 16
	.cfi_offset 6, -16
	movq	%rsp, %rbp	#,
	.cfi_def_cfa_register 6
	subq	$48, %rsp	#,
	movq	%rdi, -40(%rbp)	# current_rtx, current_rtx
	movq	%rsi, -48(%rbp)	# data, data
	.loc 1 414 0
	movq	-40(%rbp), %rax	# current_rtx, tmp83
	movq	(%rax), %rax	# *current_rtx_2(D), tmp84
	movq	%rax, -24(%rbp)	# tmp84, x
	.loc 1 415 0
	movq	-48(%rbp), %rax	# data, tmp85
	movq	%rax, -16(%rbp)	# tmp85, unprocessed_instructions
	.loc 1 417 0
	cmpq	$0, -24(%rbp)	#, x
	jne	.L63	#,
	.loc 1 418 0
	movl	$0, %eax	#, D.10454
	jmp	.L64	#
.L63:
	.loc 1 419 0
	movq	-24(%rbp), %rax	# x, tmp86
	movzwl	(%rax), %eax	# x_3->code, D.10455
	movzwl	%ax, %eax	# D.10455, D.10456
	cmpl	$61, %eax	#, D.10456
	jne	.L70	#,
	.loc 1 422 0
	movq	-24(%rbp), %rax	# x, tmp87
	movl	8(%rax), %eax	# x_3->fld[0].rtuint, D.10456
	cmpl	$52, %eax	#, D.10456
	ja	.L67	#,
	.loc 1 422 0 is_stmt 0 discriminator 1
	movq	-24(%rbp), %rax	# x, tmp88
	movl	8(%rax), %eax	# x_3->fld[0].rtuint, D.10456
	cmpl	$17, %eax	#, D.10456
	je	.L67	#,
	movq	-24(%rbp), %rax	# x, tmp89
	movl	8(%rax), %eax	# x_3->fld[0].rtuint, D.10456
	cmpl	$16, %eax	#, D.10456
	jne	.L68	#,
.L67:
.LBB3:
	.loc 1 424 0 is_stmt 1
	movq	ssa_definition(%rip), %rax	# ssa_definition, ssa_definition.7
	movq	-24(%rbp), %rdx	# x, tmp90
	movl	8(%rdx), %edx	# x_3->fld[0].rtuint, D.10456
	movl	%edx, %edx	# D.10456, tmp91
	addq	$4, %rdx	#, tmp92
	movq	(%rax,%rdx,8), %rax	# ssa_definition.7_12->data.rtx, tmp93
	movq	%rax, -8(%rbp)	# tmp93, insn
	.loc 1 425 0
	cmpq	$0, -8(%rbp)	#, insn
	je	.L68	#,
	.loc 1 425 0 is_stmt 0 discriminator 1
	movq	-8(%rbp), %rax	# insn, tmp94
	movzbl	3(%rax), %eax	# *insn_14, D.10457
	andl	$16, %eax	#, D.10457
	testb	%al, %al	# D.10457
	je	.L68	#,
	.loc 1 427 0 is_stmt 1
	movq	-8(%rbp), %rax	# insn, tmp95
	movzbl	3(%rax), %edx	# insn_14->in_struct, tmp98
	andl	$-17, %edx	#, tmp99
	movb	%dl, 3(%rax)	# tmp99, insn_14->in_struct
	.loc 1 428 0
	movq	-16(%rbp), %rax	# unprocessed_instructions, tmp100
	movq	(%rax), %rax	# *unprocessed_instructions_5, D.10458
	movq	8(%rax), %rdx	# _17->elements_used, D.10459
	movq	-16(%rbp), %rax	# unprocessed_instructions, tmp101
	movq	(%rax), %rax	# *unprocessed_instructions_5, D.10458
	movq	(%rax), %rax	# _19->num_elements, D.10459
	cmpq	%rax, %rdx	# D.10459, D.10459
	jb	.L69	#,
	.loc 1 428 0 is_stmt 0 discriminator 1
	movq	-16(%rbp), %rax	# unprocessed_instructions, tmp102
	movq	(%rax), %rax	# *unprocessed_instructions_5, D.10458
	movq	(%rax), %rax	# _21->num_elements, D.10459
	leaq	(%rax,%rax), %rdx	#, D.10459
	movq	-16(%rbp), %rax	# unprocessed_instructions, tmp103
	movq	(%rax), %rax	# *unprocessed_instructions_5, D.10458
	movq	%rdx, %rsi	# D.10459,
	movq	%rax, %rdi	# D.10458,
	call	varray_grow	#
	movq	-16(%rbp), %rdx	# unprocessed_instructions, tmp104
	movq	%rax, (%rdx)	# D.10458, *unprocessed_instructions_5
.L69:
	.loc 1 428 0 discriminator 2
	movq	-16(%rbp), %rax	# unprocessed_instructions, tmp105
	movq	(%rax), %rcx	# *unprocessed_instructions_5, D.10458
	movq	-16(%rbp), %rax	# unprocessed_instructions, tmp106
	movq	(%rax), %rax	# *unprocessed_instructions_5, D.10458
	movq	8(%rax), %rdx	# _27->elements_used, D.10459
	leaq	1(%rdx), %rsi	#, D.10459
	movq	%rsi, 8(%rax)	# D.10459, _27->elements_used
	addq	$4, %rdx	#, tmp107
	movq	-8(%rbp), %rax	# insn, tmp108
	movq	%rax, (%rcx,%rdx,8)	# tmp108, _26->data.rtx
.L68:
.LBE3:
	.loc 1 431 0 is_stmt 1
	movl	$0, %eax	#, D.10454
	jmp	.L64	#
.L70:
	.loc 1 434 0
	movl	$0, %eax	#, D.10454
.L64:
	.loc 1 436 0
	leave
	.cfi_def_cfa 7, 8
	ret
	.cfi_endproc
.LFE12:
	.size	propagate_necessity_through_operand, .-propagate_necessity_through_operand
	.type	mark_all_insn_unnecessary, @function
mark_all_insn_unnecessary:
.LFB13:
	.loc 1 442 0
	.cfi_startproc
	pushq	%rbp	#
	.cfi_def_cfa_offset 16
	.cfi_offset 6, -16
	movq	%rsp, %rbp	#,
	.cfi_def_cfa_register 6
	subq	$16, %rsp	#,
	.loc 1 444 0
	call	get_insns	#
	movq	%rax, -8(%rbp)	# tmp59, insn
	jmp	.L72	#
.L73:
	.loc 1 445 0 discriminator 2
	movq	-8(%rbp), %rax	# insn, tmp60
	movzbl	3(%rax), %edx	# insn_1->in_struct, tmp63
	orl	$16, %edx	#, tmp64
	movb	%dl, 3(%rax)	# tmp64, insn_1->in_struct
	.loc 1 444 0 discriminator 2
	movq	-8(%rbp), %rax	# insn, tmp65
	movq	24(%rax), %rax	# insn_1->fld[2].rtx, tmp66
	movq	%rax, -8(%rbp)	# tmp66, insn
.L72:
	.loc 1 444 0 is_stmt 0 discriminator 1
	cmpq	$0, -8(%rbp)	#, insn
	jne	.L73	#,
	.loc 1 446 0 is_stmt 1
	leave
	.cfi_def_cfa 7, 8
	ret
	.cfi_endproc
.LFE13:
	.size	mark_all_insn_unnecessary, .-mark_all_insn_unnecessary
	.type	find_block_label, @function
find_block_label:
.LFB14:
	.loc 1 453 0
	.cfi_startproc
	pushq	%rbp	#
	.cfi_def_cfa_offset 16
	.cfi_offset 6, -16
	movq	%rsp, %rbp	#,
	.cfi_def_cfa_register 6
	subq	$32, %rsp	#,
	movq	%rdi, -24(%rbp)	# bb, bb
	.loc 1 454 0
	movq	-24(%rbp), %rax	# bb, tmp64
	movq	(%rax), %rax	# bb_2(D)->head, tmp65
	movq	%rax, -16(%rbp)	# tmp65, insn
	.loc 1 455 0
	movq	-16(%rbp), %rax	# insn, tmp66
	movzwl	(%rax), %eax	# insn_3->code, D.10461
	cmpw	$36, %ax	#, D.10461
	jne	.L75	#,
	.loc 1 456 0
	movq	-16(%rbp), %rax	# insn, D.10460
	jmp	.L76	#
.L75:
.LBB4:
	.loc 1 459 0
	call	gen_label_rtx	#
	movq	-16(%rbp), %rdx	# insn, tmp67
	movq	%rdx, %rsi	# tmp67,
	movq	%rax, %rdi	# D.10462,
	call	emit_label_before	#
	movq	%rax, -8(%rbp)	# tmp68, new_label
	.loc 1 460 0
	movq	-24(%rbp), %rax	# bb, tmp69
	movq	(%rax), %rax	# bb_2(D)->head, D.10462
	cmpq	-16(%rbp), %rax	# insn, D.10462
	jne	.L77	#,
	.loc 1 461 0
	movq	-24(%rbp), %rax	# bb, tmp70
	movq	-8(%rbp), %rdx	# new_label, tmp71
	movq	%rdx, (%rax)	# tmp71, bb_2(D)->head
.L77:
	.loc 1 462 0
	movq	-8(%rbp), %rax	# new_label, D.10460
.L76:
.LBE4:
	.loc 1 464 0
	leave
	.cfi_def_cfa 7, 8
	ret
	.cfi_endproc
.LFE14:
	.size	find_block_label, .-find_block_label
	.type	delete_insn_bb, @function
delete_insn_bb:
.LFB15:
	.loc 1 471 0
	.cfi_startproc
	pushq	%rbp	#
	.cfi_def_cfa_offset 16
	.cfi_offset 6, -16
	movq	%rsp, %rbp	#,
	.cfi_def_cfa_register 6
	subq	$16, %rsp	#,
	movq	%rdi, -8(%rbp)	# insn, insn
	.loc 1 472 0
	cmpq	$0, -8(%rbp)	#, insn
	jne	.L79	#,
	.loc 1 473 0
	movl	$__FUNCTION__.9784, %edx	#,
	movl	$473, %esi	#,
	movl	$.LC0, %edi	#,
	call	fancy_abort	#
.L79:
	.loc 1 480 0
	movq	-8(%rbp), %rax	# insn, tmp62
	movzwl	(%rax), %eax	# insn_1(D)->code, D.10463
	movzwl	%ax, %eax	# D.10463, D.10464
	cltq
	movzbl	rtx_class(%rax), %eax	# rtx_class, D.10465
	cmpb	$105, %al	#, D.10465
	je	.L80	#,
	.loc 1 481 0
	jmp	.L78	#
.L80:
	.loc 1 483 0
	movq	-8(%rbp), %rax	# insn, tmp64
	movq	%rax, %rdi	# tmp64,
	call	delete_insn	#
.L78:
	.loc 1 484 0
	leave
	.cfi_def_cfa 7, 8
	ret
	.cfi_endproc
.LFE15:
	.size	delete_insn_bb, .-delete_insn_bb
	.section	.rodata
.LC1:
	.string	"unprocessed instructions"
	.text
	.globl	ssa_eliminate_dead_code
	.type	ssa_eliminate_dead_code, @function
ssa_eliminate_dead_code:
.LFB16:
	.loc 1 490 0
	.cfi_startproc
	pushq	%rbp	#
	.cfi_def_cfa_offset 16
	.cfi_offset 6, -16
	movq	%rsp, %rbp	#,
	.cfi_def_cfa_register 6
	pushq	%rbx	#
	subq	$280, %rsp	#,
	.cfi_offset 3, -24
	.loc 1 502 0
	call	get_max_uid	#
	movl	%eax, -252(%rbp)	# tmp260, max_insn_uid
	.loc 1 505 0
	call	mark_all_insn_unnecessary	#
	.loc 1 506 0
	movl	$.LC1, %edx	#,
	movl	$8, %esi	#,
	movl	$64, %edi	#,
	call	varray_init	#
	movq	%rax, -232(%rbp)	# unprocessed_instructions.8, unprocessed_instructions
	.loc 1 508 0
	movl	n_basic_blocks(%rip), %eax	# n_basic_blocks, n_basic_blocks.9
	cltq
	movq	%rax, %rdi	# D.10466,
	call	control_dependent_block_to_edge_map_create	#
	movq	%rax, -144(%rbp)	# tmp261, cdbte
	.loc 1 511 0
	call	connect_infinite_loops_to_exit	#
	.loc 1 513 0
	movl	-252(%rbp), %eax	# max_insn_uid, tmp262
	movl	%eax, %edi	# tmp262,
	call	compute_bb_for_insn	#
	.loc 1 516 0
	movl	n_basic_blocks(%rip), %eax	# n_basic_blocks, n_basic_blocks.10
	cltq
	salq	$2, %rax	#, D.10466
	movq	%rax, %rdi	# D.10466,
	call	xmalloc	#
	movq	%rax, -136(%rbp)	# tmp263, pdom
	.loc 1 517 0
	movl	$0, -276(%rbp)	#, i
	jmp	.L83	#
.L84:
	.loc 1 518 0 discriminator 2
	movl	-276(%rbp), %eax	# i, tmp264
	cltq
	leaq	0(,%rax,4), %rdx	#, D.10466
	movq	-136(%rbp), %rax	# pdom, tmp265
	addq	%rdx, %rax	# D.10466, D.10467
	movl	$-3, (%rax)	#, *_47
	.loc 1 517 0 discriminator 2
	addl	$1, -276(%rbp)	#, i
.L83:
	.loc 1 517 0 is_stmt 0 discriminator 1
	movl	n_basic_blocks(%rip), %eax	# n_basic_blocks, n_basic_blocks.11
	cmpl	%eax, -276(%rbp)	# n_basic_blocks.11, i
	jl	.L84	#,
	.loc 1 519 0 is_stmt 1
	movq	-136(%rbp), %rax	# pdom, tmp266
	movl	$1, %edx	#,
	movl	$0, %esi	#,
	movq	%rax, %rdi	# tmp266,
	call	calculate_dominance_info	#
	.loc 1 521 0
	movl	$0, -276(%rbp)	#, i
	jmp	.L85	#
.L87:
	.loc 1 522 0
	movl	-276(%rbp), %eax	# i, tmp267
	cltq
	leaq	0(,%rax,4), %rdx	#, D.10466
	movq	-136(%rbp), %rax	# pdom, tmp268
	addq	%rdx, %rax	# D.10466, D.10467
	movl	(%rax), %eax	# *_53, D.10468
	cmpl	$-3, %eax	#, D.10468
	jne	.L86	#,
	.loc 1 523 0
	movl	-276(%rbp), %eax	# i, tmp269
	cltq
	leaq	0(,%rax,4), %rdx	#, D.10466
	movq	-136(%rbp), %rax	# pdom, tmp270
	addq	%rdx, %rax	# D.10466, D.10467
	movl	$-2, (%rax)	#, *_57
.L86:
	.loc 1 521 0
	addl	$1, -276(%rbp)	#, i
.L85:
	.loc 1 521 0 is_stmt 0 discriminator 1
	movl	n_basic_blocks(%rip), %eax	# n_basic_blocks, n_basic_blocks.12
	cmpl	%eax, -276(%rbp)	# n_basic_blocks.12, i
	jl	.L87	#,
	.loc 1 524 0 is_stmt 1
	call	create_edge_list	#
	movq	%rax, -128(%rbp)	# tmp271, el
	.loc 1 525 0
	movq	-144(%rbp), %rdx	# cdbte, tmp272
	movq	-136(%rbp), %rcx	# pdom, tmp273
	movq	-128(%rbp), %rax	# el, tmp274
	movq	%rcx, %rsi	# tmp273,
	movq	%rax, %rdi	# tmp274,
	call	find_all_control_dependences	#
	.loc 1 528 0
	call	get_insns	#
	movq	%rax, -216(%rbp)	# tmp275, insn
	jmp	.L88	#
.L91:
	.loc 1 529 0
	movq	-216(%rbp), %rax	# insn, tmp276
	movq	%rax, %rdi	# tmp276,
	call	find_inherently_necessary	#
	testl	%eax, %eax	# D.10468
	je	.L89	#,
	.loc 1 531 0
	movq	-216(%rbp), %rax	# insn, tmp277
	movzbl	3(%rax), %edx	# insn_4->in_struct, tmp280
	andl	$-17, %edx	#, tmp281
	movb	%dl, 3(%rax)	# tmp281, insn_4->in_struct
	.loc 1 532 0
	movq	-232(%rbp), %rax	# unprocessed_instructions, unprocessed_instructions.13
	movq	8(%rax), %rdx	# unprocessed_instructions.13_62->elements_used, D.10466
	movq	-232(%rbp), %rax	# unprocessed_instructions, unprocessed_instructions.14
	movq	(%rax), %rax	# unprocessed_instructions.14_64->num_elements, D.10466
	cmpq	%rax, %rdx	# D.10466, D.10466
	jb	.L90	#,
	.loc 1 532 0 is_stmt 0 discriminator 1
	movq	-232(%rbp), %rax	# unprocessed_instructions, unprocessed_instructions.15
	movq	(%rax), %rax	# unprocessed_instructions.15_66->num_elements, D.10466
	leaq	(%rax,%rax), %rdx	#, D.10466
	movq	-232(%rbp), %rax	# unprocessed_instructions, unprocessed_instructions.16
	movq	%rdx, %rsi	# D.10466,
	movq	%rax, %rdi	# unprocessed_instructions.16,
	call	varray_grow	#
	movq	%rax, -232(%rbp)	# unprocessed_instructions.17, unprocessed_instructions
.L90:
	.loc 1 532 0 discriminator 2
	movq	-232(%rbp), %rcx	# unprocessed_instructions, unprocessed_instructions.18
	movq	-232(%rbp), %rax	# unprocessed_instructions, unprocessed_instructions.19
	movq	8(%rax), %rdx	# unprocessed_instructions.19_72->elements_used, D.10466
	leaq	1(%rdx), %rsi	#, D.10466
	movq	%rsi, 8(%rax)	# D.10466, unprocessed_instructions.19_72->elements_used
	addq	$4, %rdx	#, tmp282
	movq	-216(%rbp), %rax	# insn, tmp283
	movq	%rax, (%rcx,%rdx,8)	# tmp283, unprocessed_instructions.18_71->data.rtx
.L89:
	.loc 1 528 0 is_stmt 1
	movq	-216(%rbp), %rax	# insn, tmp284
	movq	24(%rax), %rax	# insn_4->fld[2].rtx, tmp285
	movq	%rax, -216(%rbp)	# tmp285, insn
.L88:
	.loc 1 528 0 is_stmt 0 discriminator 1
	cmpq	$0, -216(%rbp)	#, insn
	jne	.L91	#,
	.loc 1 536 0 is_stmt 1
	jmp	.L92	#
.L125:
.LBB5:
	.loc 1 541 0
	movq	-232(%rbp), %rax	# unprocessed_instructions, unprocessed_instructions.20
	movq	-232(%rbp), %rdx	# unprocessed_instructions, unprocessed_instructions.21
	movq	8(%rdx), %rdx	# unprocessed_instructions.21_80->elements_used, D.10466
	subq	$1, %rdx	#, D.10466
	addq	$4, %rdx	#, tmp286
	movq	(%rax,%rdx,8), %rax	# unprocessed_instructions.20_79->data.rtx, current_instruction.22
	movq	%rax, -224(%rbp)	# current_instruction.22, current_instruction
	.loc 1 542 0
	movq	-232(%rbp), %rax	# unprocessed_instructions, unprocessed_instructions.23
	movq	8(%rax), %rdx	# unprocessed_instructions.23_84->elements_used, D.10466
	subq	$1, %rdx	#, D.10466
	movq	%rdx, 8(%rax)	# D.10466, unprocessed_instructions.23_84->elements_used
	.loc 1 549 0
	movq	-224(%rbp), %rax	# current_instruction, current_instruction.24
	movzwl	(%rax), %eax	# current_instruction.24_87->code, D.10469
	movzwl	%ax, %eax	# D.10469, D.10468
	cltq
	movzbl	rtx_class(%rax), %eax	# rtx_class, D.10470
	cmpb	$105, %al	#, D.10470
	jne	.L92	#,
	.loc 1 550 0
	movq	-224(%rbp), %rax	# current_instruction, current_instruction.25
	movzwl	(%rax), %eax	# current_instruction.25_91->code, D.10469
	cmpw	$33, %ax	#, D.10469
	jne	.L94	#,
	.loc 1 550 0 is_stmt 0 discriminator 1
	movq	-224(%rbp), %rax	# current_instruction, current_instruction.26
	movq	32(%rax), %rax	# current_instruction.26_93->fld[3].rtx, D.10471
	movzwl	(%rax), %eax	# _94->code, D.10469
	cmpw	$44, %ax	#, D.10469
	je	.L92	#,
	movq	-224(%rbp), %rax	# current_instruction, current_instruction.27
	movq	32(%rax), %rax	# current_instruction.27_96->fld[3].rtx, D.10471
	movzwl	(%rax), %eax	# _97->code, D.10469
	cmpw	$45, %ax	#, D.10469
	je	.L92	#,
.L94:
.LBB6:
	.loc 1 553 0 is_stmt 1
	movq	-144(%rbp), %rax	# cdbte, tmp288
	movq	(%rax), %rcx	# cdbte_38->data, D.10472
	movq	basic_block_for_insn(%rip), %rax	# basic_block_for_insn, basic_block_for_insn.28
	movq	-224(%rbp), %rdx	# current_instruction, current_instruction.29
	movl	8(%rdx), %edx	# current_instruction.29_101->fld[0].rtint, D.10468
	movslq	%edx, %rdx	# D.10468, tmp289
	addq	$4, %rdx	#, tmp290
	movq	(%rax,%rdx,8), %rax	# basic_block_for_insn.28_100->data.bb, D.10473
	movl	88(%rax), %eax	# _103->index, D.10468
	cltq
	addq	$2, %rax	#, D.10474
	salq	$3, %rax	#, D.10474
	addq	%rcx, %rax	# D.10472, D.10472
	movq	(%rax), %rax	# *_108, D.10475
	movq	(%rax), %rax	# _109->first, tmp291
	movq	%rax, -208(%rbp)	# tmp291, ptr_
	movl	$0, -248(%rbp)	#, indx_
	movl	$0, -272(%rbp)	#, bit_num_
	movl	$0, -268(%rbp)	#, word_num_
	jmp	.L95	#
.L97:
	.loc 1 553 0 is_stmt 0 discriminator 1
	movq	-208(%rbp), %rax	# ptr_, tmp292
	movq	(%rax), %rax	# ptr__6->next, tmp293
	movq	%rax, -208(%rbp)	# tmp293, ptr_
.L95:
	cmpq	$0, -208(%rbp)	#, ptr_
	je	.L96	#,
	.loc 1 553 0 discriminator 2
	movq	-208(%rbp), %rax	# ptr_, tmp294
	movl	16(%rax), %eax	# ptr__6->indx, D.10476
	cmpl	-248(%rbp), %eax	# indx_, D.10476
	jb	.L97	#,
.L96:
	.loc 1 553 0 discriminator 3
	cmpq	$0, -208(%rbp)	#, ptr_
	je	.L98	#,
	.loc 1 553 0 discriminator 1
	movq	-208(%rbp), %rax	# ptr_, tmp295
	movl	16(%rax), %eax	# ptr__6->indx, D.10476
	cmpl	-248(%rbp), %eax	# indx_, D.10476
	je	.L98	#,
	movl	$0, -272(%rbp)	#, bit_num_
	movl	$0, -268(%rbp)	#, word_num_
	jmp	.L99	#
.L98:
	.loc 1 553 0 discriminator 2
	jmp	.L99	#
.L108:
	.loc 1 553 0
	jmp	.L100	#
.L107:
.LBB7:
	.loc 1 553 0 discriminator 2
	movq	-208(%rbp), %rax	# ptr_, tmp296
	movl	-268(%rbp), %edx	# word_num_, tmp297
	addq	$2, %rdx	#, tmp298
	movq	8(%rax,%rdx,8), %rax	# ptr__7->bits, tmp299
	movq	%rax, -200(%rbp)	# tmp299, word_
	cmpq	$0, -200(%rbp)	#, word_
	je	.L101	#,
	.loc 1 553 0 discriminator 1
	jmp	.L102	#
.L106:
.LBB8:
	.loc 1 553 0 discriminator 2
	movl	-272(%rbp), %eax	# bit_num_, bit_num_.30
	movl	$1, %edx	#, tmp300
	movl	%eax, %ecx	# bit_num_.30, tmp454
	salq	%cl, %rdx	# tmp454, tmp301
	movq	%rdx, %rax	# tmp301, tmp301
	movq	%rax, -120(%rbp)	# tmp301, mask_
	movq	-120(%rbp), %rax	# mask_, tmp302
	movq	-200(%rbp), %rdx	# word_, tmp303
	andq	%rdx, %rax	# tmp303, D.10466
	testq	%rax, %rax	# D.10466
	je	.L103	#,
	.loc 1 553 0 discriminator 1
	movq	-120(%rbp), %rax	# mask_, tmp304
	notq	%rax	# D.10466
	andq	%rax, -200(%rbp)	# D.10466, word_
	movq	-208(%rbp), %rax	# ptr_, tmp305
	movl	16(%rax), %eax	# ptr__7->indx, D.10476
	leal	(%rax,%rax), %edx	#, D.10476
	movl	-268(%rbp), %eax	# word_num_, tmp306
	addl	%edx, %eax	# D.10476, D.10476
	sall	$6, %eax	#, D.10476
	movl	%eax, %edx	# D.10476, D.10476
	movl	-272(%rbp), %eax	# bit_num_, tmp307
	addl	%edx, %eax	# D.10476, D.10476
	movl	%eax, -244(%rbp)	# D.10476, edge_number
.LBB9:
	movq	-128(%rbp), %rax	# el, tmp308
	movq	8(%rax), %rax	# el_59->index_to_edge, D.10477
	movl	-244(%rbp), %edx	# edge_number, tmp309
	movslq	%edx, %rdx	# tmp309, D.10466
	salq	$3, %rdx	#, D.10466
	addq	%rdx, %rax	# D.10466, D.10477
	movq	(%rax), %rax	# *_134, D.10478
	movq	16(%rax), %rax	# _135->src, D.10473
	movq	8(%rax), %rax	# _136->end, tmp310
	movq	%rax, -112(%rbp)	# tmp310, jump_insn
	movq	-112(%rbp), %rax	# jump_insn, tmp311
	movzwl	(%rax), %eax	# jump_insn_137->code, D.10469
	cmpw	$33, %ax	#, D.10469
	jne	.L104	#,
	movq	-112(%rbp), %rax	# jump_insn, tmp312
	movzbl	3(%rax), %eax	# *jump_insn_137, D.10479
	andl	$16, %eax	#, D.10479
	testb	%al, %al	# D.10479
	je	.L104	#,
	movq	-112(%rbp), %rax	# jump_insn, tmp313
	movzbl	3(%rax), %edx	# jump_insn_137->in_struct, tmp316
	andl	$-17, %edx	#, tmp317
	movb	%dl, 3(%rax)	# tmp317, jump_insn_137->in_struct
	movq	-232(%rbp), %rax	# unprocessed_instructions, unprocessed_instructions.31
	movq	8(%rax), %rdx	# unprocessed_instructions.31_141->elements_used, D.10466
	movq	-232(%rbp), %rax	# unprocessed_instructions, unprocessed_instructions.32
	movq	(%rax), %rax	# unprocessed_instructions.32_143->num_elements, D.10466
	cmpq	%rax, %rdx	# D.10466, D.10466
	jb	.L105	#,
	movq	-232(%rbp), %rax	# unprocessed_instructions, unprocessed_instructions.33
	movq	(%rax), %rax	# unprocessed_instructions.33_145->num_elements, D.10466
	leaq	(%rax,%rax), %rdx	#, D.10466
	movq	-232(%rbp), %rax	# unprocessed_instructions, unprocessed_instructions.34
	movq	%rdx, %rsi	# D.10466,
	movq	%rax, %rdi	# unprocessed_instructions.34,
	call	varray_grow	#
	movq	%rax, -232(%rbp)	# unprocessed_instructions.35, unprocessed_instructions
.L105:
	.loc 1 553 0 discriminator 2
	movq	-232(%rbp), %rcx	# unprocessed_instructions, unprocessed_instructions.36
	movq	-232(%rbp), %rax	# unprocessed_instructions, unprocessed_instructions.37
	movq	8(%rax), %rdx	# unprocessed_instructions.37_151->elements_used, D.10466
	leaq	1(%rdx), %rsi	#, D.10466
	movq	%rsi, 8(%rax)	# D.10466, unprocessed_instructions.37_151->elements_used
	addq	$4, %rdx	#, tmp318
	movq	-112(%rbp), %rax	# jump_insn, tmp319
	movq	%rax, (%rcx,%rdx,8)	# tmp319, unprocessed_instructions.36_150->data.rtx
.L104:
.LBE9:
	cmpq	$0, -200(%rbp)	#, word_
	jne	.L103	#,
	.loc 1 553 0 discriminator 1
	jmp	.L101	#
.L103:
.LBE8:
	.loc 1 553 0 discriminator 2
	addl	$1, -272(%rbp)	#, bit_num_
.L102:
	.loc 1 553 0 discriminator 1
	cmpl	$63, -272(%rbp)	#, bit_num_
	jbe	.L106	#,
.L101:
	.loc 1 553 0 discriminator 2
	movl	$0, -272(%rbp)	#, bit_num_
.LBE7:
	addl	$1, -268(%rbp)	#, word_num_
.L100:
	.loc 1 553 0 discriminator 1
	cmpl	$1, -268(%rbp)	#, word_num_
	jbe	.L107	#,
	.loc 1 553 0 discriminator 3
	movl	$0, -268(%rbp)	#, word_num_
	movq	-208(%rbp), %rax	# ptr_, tmp320
	movq	(%rax), %rax	# ptr__7->next, tmp321
	movq	%rax, -208(%rbp)	# tmp321, ptr_
.L99:
	.loc 1 553 0 discriminator 1
	cmpq	$0, -208(%rbp)	#, ptr_
	jne	.L108	#,
.LBE6:
	.loc 1 566 0 is_stmt 1
	leaq	-232(%rbp), %rdx	#, tmp322
	leaq	-224(%rbp), %rax	#, tmp323
	movl	$propagate_necessity_through_operand, %esi	#,
	movq	%rax, %rdi	# tmp323,
	call	for_each_rtx	#
	.loc 1 578 0
	movq	-224(%rbp), %rax	# current_instruction, current_instruction.38
	testq	%rax, %rax	# current_instruction.38
	je	.L92	#,
	.loc 1 578 0 is_stmt 0 discriminator 1
	movq	-224(%rbp), %rax	# current_instruction, current_instruction.39
	movzwl	(%rax), %eax	# current_instruction.39_161->code, D.10469
	cmpw	$32, %ax	#, D.10469
	jne	.L92	#,
	movq	-224(%rbp), %rax	# current_instruction, current_instruction.40
	movq	32(%rax), %rax	# current_instruction.40_163->fld[3].rtx, D.10471
	movzwl	(%rax), %eax	# _164->code, D.10469
	cmpw	$47, %ax	#, D.10469
	jne	.L92	#,
	movq	-224(%rbp), %rax	# current_instruction, current_instruction.41
	movq	32(%rax), %rax	# current_instruction.41_166->fld[3].rtx, D.10471
	movq	16(%rax), %rax	# _167->fld[1].rtx, D.10471
	movzwl	(%rax), %eax	# _168->code, D.10469
	cmpw	$152, %ax	#, D.10469
	jne	.L92	#,
.LBB10:
	.loc 1 580 0 is_stmt 1
	movq	-224(%rbp), %rax	# current_instruction, current_instruction.42
	movq	32(%rax), %rax	# current_instruction.42_170->fld[3].rtx, D.10471
	movq	16(%rax), %rax	# _171->fld[1].rtx, D.10471
	movq	8(%rax), %rax	# _172->fld[0].rtvec, tmp324
	movq	%rax, -104(%rbp)	# tmp324, phi_vec
	.loc 1 581 0
	movq	-104(%rbp), %rax	# phi_vec, tmp325
	movl	(%rax), %eax	# phi_vec_173->num_elem, tmp326
	movl	%eax, -240(%rbp)	# tmp326, num_elem
	.loc 1 584 0
	movl	-240(%rbp), %eax	# num_elem, tmp330
	subl	$2, %eax	#, tmp329
	movl	%eax, -264(%rbp)	# tmp329, v
	jmp	.L109	#
.L124:
.LBB11:
	.loc 1 588 0
	movq	basic_block_info(%rip), %rax	# basic_block_info, basic_block_info.43
	movl	-264(%rbp), %edx	# v, tmp331
	leal	1(%rdx), %ecx	#, D.10468
	movq	-104(%rbp), %rdx	# phi_vec, tmp332
	movslq	%ecx, %rcx	# D.10468, tmp333
	movq	8(%rdx,%rcx,8), %rdx	# phi_vec_173->elem, D.10471
	movq	8(%rdx), %rdx	# _178->fld[0].rtwint, D.10480
	addq	$4, %rdx	#, tmp334
	movq	(%rax,%rdx,8), %rax	# basic_block_info.43_176->data.bb, tmp335
	movq	%rax, -96(%rbp)	# tmp335, bb
.LBB12:
	.loc 1 589 0
	movq	-144(%rbp), %rax	# cdbte, tmp336
	movq	(%rax), %rcx	# cdbte_38->data, D.10472
	movq	basic_block_for_insn(%rip), %rax	# basic_block_for_insn, basic_block_for_insn.44
	movq	-96(%rbp), %rdx	# bb, tmp337
	movq	8(%rdx), %rdx	# bb_180->end, D.10471
	movl	8(%rdx), %edx	# _183->fld[0].rtint, D.10468
	movslq	%edx, %rdx	# D.10468, tmp338
	addq	$4, %rdx	#, tmp339
	movq	(%rax,%rdx,8), %rax	# basic_block_for_insn.44_182->data.bb, D.10473
	movl	88(%rax), %eax	# _185->index, D.10468
	cltq
	addq	$2, %rax	#, D.10474
	salq	$3, %rax	#, D.10474
	addq	%rcx, %rax	# D.10472, D.10472
	movq	(%rax), %rax	# *_190, D.10475
	movq	(%rax), %rax	# _191->first, tmp340
	movq	%rax, -192(%rbp)	# tmp340, ptr_
	movl	$0, -236(%rbp)	#, indx_
	movl	$0, -260(%rbp)	#, bit_num_
	movl	$0, -256(%rbp)	#, word_num_
	jmp	.L110	#
.L112:
	.loc 1 589 0 is_stmt 0 discriminator 1
	movq	-192(%rbp), %rax	# ptr_, tmp341
	movq	(%rax), %rax	# ptr__18->next, tmp342
	movq	%rax, -192(%rbp)	# tmp342, ptr_
.L110:
	cmpq	$0, -192(%rbp)	#, ptr_
	je	.L111	#,
	.loc 1 589 0 discriminator 2
	movq	-192(%rbp), %rax	# ptr_, tmp343
	movl	16(%rax), %eax	# ptr__18->indx, D.10476
	cmpl	-236(%rbp), %eax	# indx_, D.10476
	jb	.L112	#,
.L111:
	.loc 1 589 0 discriminator 3
	cmpq	$0, -192(%rbp)	#, ptr_
	je	.L113	#,
	.loc 1 589 0 discriminator 1
	movq	-192(%rbp), %rax	# ptr_, tmp344
	movl	16(%rax), %eax	# ptr__18->indx, D.10476
	cmpl	-236(%rbp), %eax	# indx_, D.10476
	je	.L113	#,
	movl	$0, -260(%rbp)	#, bit_num_
	movl	$0, -256(%rbp)	#, word_num_
	jmp	.L114	#
.L113:
	.loc 1 589 0 discriminator 2
	jmp	.L114	#
.L123:
	.loc 1 589 0
	jmp	.L115	#
.L122:
.LBB13:
	.loc 1 589 0 discriminator 2
	movq	-192(%rbp), %rax	# ptr_, tmp345
	movl	-256(%rbp), %edx	# word_num_, tmp346
	addq	$2, %rdx	#, tmp347
	movq	8(%rax,%rdx,8), %rax	# ptr__19->bits, tmp348
	movq	%rax, -184(%rbp)	# tmp348, word_
	cmpq	$0, -184(%rbp)	#, word_
	je	.L116	#,
	.loc 1 589 0 discriminator 1
	jmp	.L117	#
.L121:
.LBB14:
	.loc 1 589 0 discriminator 2
	movl	-260(%rbp), %eax	# bit_num_, bit_num_.45
	movl	$1, %edx	#, tmp349
	movl	%eax, %ecx	# bit_num_.45, tmp457
	salq	%cl, %rdx	# tmp457, tmp350
	movq	%rdx, %rax	# tmp350, tmp350
	movq	%rax, -88(%rbp)	# tmp350, mask_
	movq	-88(%rbp), %rax	# mask_, tmp351
	movq	-184(%rbp), %rdx	# word_, tmp352
	andq	%rdx, %rax	# tmp352, D.10466
	testq	%rax, %rax	# D.10466
	je	.L118	#,
	.loc 1 589 0 discriminator 1
	movq	-88(%rbp), %rax	# mask_, tmp353
	notq	%rax	# D.10466
	andq	%rax, -184(%rbp)	# D.10466, word_
	movq	-192(%rbp), %rax	# ptr_, tmp354
	movl	16(%rax), %eax	# ptr__19->indx, D.10476
	leal	(%rax,%rax), %edx	#, D.10476
	movl	-256(%rbp), %eax	# word_num_, tmp355
	addl	%edx, %eax	# D.10476, D.10476
	sall	$6, %eax	#, D.10476
	movl	%eax, %edx	# D.10476, D.10476
	movl	-260(%rbp), %eax	# bit_num_, tmp356
	addl	%edx, %eax	# D.10476, D.10476
	movl	%eax, -244(%rbp)	# D.10476, edge_number
.LBB15:
	movq	-128(%rbp), %rax	# el, tmp357
	movq	8(%rax), %rax	# el_59->index_to_edge, D.10477
	movl	-244(%rbp), %edx	# edge_number, tmp358
	movslq	%edx, %rdx	# tmp358, D.10466
	salq	$3, %rdx	#, D.10466
	addq	%rdx, %rax	# D.10466, D.10477
	movq	(%rax), %rax	# *_216, D.10478
	movq	16(%rax), %rax	# _217->src, D.10473
	movq	8(%rax), %rax	# _218->end, tmp359
	movq	%rax, -80(%rbp)	# tmp359, jump_insn
	movq	-80(%rbp), %rax	# jump_insn, tmp360
	movzwl	(%rax), %eax	# jump_insn_219->code, D.10469
	cmpw	$33, %ax	#, D.10469
	jne	.L119	#,
	movq	-80(%rbp), %rax	# jump_insn, tmp361
	movzbl	3(%rax), %eax	# *jump_insn_219, D.10479
	andl	$16, %eax	#, D.10479
	testb	%al, %al	# D.10479
	je	.L119	#,
	movq	-80(%rbp), %rax	# jump_insn, tmp362
	movzbl	3(%rax), %edx	# jump_insn_219->in_struct, tmp365
	andl	$-17, %edx	#, tmp366
	movb	%dl, 3(%rax)	# tmp366, jump_insn_219->in_struct
	movq	-232(%rbp), %rax	# unprocessed_instructions, unprocessed_instructions.46
	movq	8(%rax), %rdx	# unprocessed_instructions.46_223->elements_used, D.10466
	movq	-232(%rbp), %rax	# unprocessed_instructions, unprocessed_instructions.47
	movq	(%rax), %rax	# unprocessed_instructions.47_225->num_elements, D.10466
	cmpq	%rax, %rdx	# D.10466, D.10466
	jb	.L120	#,
	movq	-232(%rbp), %rax	# unprocessed_instructions, unprocessed_instructions.48
	movq	(%rax), %rax	# unprocessed_instructions.48_227->num_elements, D.10466
	leaq	(%rax,%rax), %rdx	#, D.10466
	movq	-232(%rbp), %rax	# unprocessed_instructions, unprocessed_instructions.49
	movq	%rdx, %rsi	# D.10466,
	movq	%rax, %rdi	# unprocessed_instructions.49,
	call	varray_grow	#
	movq	%rax, -232(%rbp)	# unprocessed_instructions.50, unprocessed_instructions
.L120:
	.loc 1 589 0 discriminator 2
	movq	-232(%rbp), %rcx	# unprocessed_instructions, unprocessed_instructions.51
	movq	-232(%rbp), %rax	# unprocessed_instructions, unprocessed_instructions.52
	movq	8(%rax), %rdx	# unprocessed_instructions.52_233->elements_used, D.10466
	leaq	1(%rdx), %rsi	#, D.10466
	movq	%rsi, 8(%rax)	# D.10466, unprocessed_instructions.52_233->elements_used
	addq	$4, %rdx	#, tmp367
	movq	-80(%rbp), %rax	# jump_insn, tmp368
	movq	%rax, (%rcx,%rdx,8)	# tmp368, unprocessed_instructions.51_232->data.rtx
.L119:
.LBE15:
	cmpq	$0, -184(%rbp)	#, word_
	jne	.L118	#,
	.loc 1 589 0 discriminator 1
	jmp	.L116	#
.L118:
.LBE14:
	.loc 1 589 0 discriminator 2
	addl	$1, -260(%rbp)	#, bit_num_
.L117:
	.loc 1 589 0 discriminator 1
	cmpl	$63, -260(%rbp)	#, bit_num_
	jbe	.L121	#,
.L116:
	.loc 1 589 0 discriminator 2
	movl	$0, -260(%rbp)	#, bit_num_
.LBE13:
	addl	$1, -256(%rbp)	#, word_num_
.L115:
	.loc 1 589 0 discriminator 1
	cmpl	$1, -256(%rbp)	#, word_num_
	jbe	.L122	#,
	.loc 1 589 0 discriminator 3
	movl	$0, -256(%rbp)	#, word_num_
	movq	-192(%rbp), %rax	# ptr_, tmp369
	movq	(%rax), %rax	# ptr__19->next, tmp370
	movq	%rax, -192(%rbp)	# tmp370, ptr_
.L114:
	.loc 1 589 0 discriminator 1
	cmpq	$0, -192(%rbp)	#, ptr_
	jne	.L123	#,
.LBE12:
.LBE11:
	.loc 1 584 0 is_stmt 1
	subl	$2, -264(%rbp)	#, v
.L109:
	.loc 1 584 0 is_stmt 0 discriminator 1
	cmpl	$0, -264(%rbp)	#, v
	jns	.L124	#,
.L92:
.LBE10:
.LBE5:
	.loc 1 536 0 is_stmt 1 discriminator 1
	movq	-232(%rbp), %rax	# unprocessed_instructions, unprocessed_instructions.53
	movq	8(%rax), %rax	# unprocessed_instructions.53_77->elements_used, D.10466
	testq	%rax, %rax	# D.10466
	jne	.L125	#,
.LBB16:
	.loc 1 609 0
	call	get_insns	#
	movq	%rax, -176(%rbp)	# tmp371, insn
	jmp	.L126	#
.L141:
	.loc 1 609 0 is_stmt 0 discriminator 2
	movq	-176(%rbp), %rax	# insn, tmp372
	movzbl	3(%rax), %eax	# *insn_29, D.10479
	andl	$16, %eax	#, D.10479
	testb	%al, %al	# D.10479
	je	.L127	#,
	.loc 1 609 0 discriminator 1
	movq	-176(%rbp), %rax	# insn, tmp373
	movq	%rax, %rdi	# tmp373,
	call	any_condjump_p	#
	testl	%eax, %eax	# D.10468
	je	.L128	#,
.LBB17:
	movq	basic_block_for_insn(%rip), %rax	# basic_block_for_insn, basic_block_for_insn.54
	movq	-176(%rbp), %rdx	# insn, tmp374
	movl	8(%rdx), %edx	# insn_29->fld[0].rtint, D.10468
	movslq	%edx, %rdx	# D.10468, tmp375
	addq	$4, %rdx	#, tmp376
	movq	(%rax,%rdx,8), %rax	# basic_block_for_insn.54_247->data.bb, tmp377
	movq	%rax, -72(%rbp)	# tmp377, bb
	movq	-72(%rbp), %rdx	# bb, tmp378
	movq	-136(%rbp), %rax	# pdom, tmp379
	movq	%rdx, %rsi	# tmp378,
	movq	%rax, %rdi	# tmp379,
	call	find_pdom	#
	movq	%rax, -64(%rbp)	# tmp380, pdom_bb
	cmpq	$entry_exit_blocks+112, -64(%rbp)	#, pdom_bb
	jne	.L129	#,
	movq	-72(%rbp), %rax	# bb, tmp381
	movq	40(%rax), %rax	# bb_249->succ, tmp382
	movq	%rax, -168(%rbp)	# tmp382, e
	jmp	.L130	#
.L134:
.LBB18:
	.loc 1 609 0 discriminator 2
	movq	-168(%rbp), %rax	# e, tmp383
	movq	%rax, -56(%rbp)	# tmp383, temp
	movq	-168(%rbp), %rax	# e, tmp384
	movq	8(%rax), %rax	# e_30->succ_next, tmp385
	movq	%rax, -168(%rbp)	# tmp385, e
	movq	-56(%rbp), %rax	# temp, tmp386
	movl	48(%rax), %eax	# temp_252->flags, D.10468
	andl	$1, %eax	#, D.10468
	testl	%eax, %eax	# D.10468
	jne	.L130	#,
	.loc 1 609 0 discriminator 1
	movq	-56(%rbp), %rax	# temp, tmp387
	movq	24(%rax), %rax	# temp_252->dest, D.10473
	cmpq	$entry_exit_blocks+112, %rax	#, D.10473
	je	.L131	#,
.LBB19:
	movq	-56(%rbp), %rax	# temp, tmp388
	movq	24(%rax), %rax	# temp_252->dest, D.10473
	movq	%rax, %rdi	# D.10473,
	call	first_insn_after_basic_block_note	#
	movq	%rax, -160(%rbp)	# tmp389, insn
	jmp	.L132	#
.L133:
	movq	-56(%rbp), %rax	# temp, tmp390
	movq	16(%rax), %rdx	# temp_252->src, D.10473
	movq	-160(%rbp), %rax	# insn, tmp391
	movq	32(%rax), %rax	# insn_32->fld[3].rtx, D.10471
	movq	%rdx, %rsi	# D.10473,
	movq	%rax, %rdi	# D.10471,
	call	remove_phi_alternative	#
	movq	-160(%rbp), %rax	# insn, tmp392
	movq	24(%rax), %rax	# insn_32->fld[2].rtx, tmp393
	movq	%rax, -160(%rbp)	# tmp393, insn
.L132:
	cmpq	$0, -160(%rbp)	#, insn
	je	.L131	#,
	.loc 1 609 0 discriminator 2
	movq	-160(%rbp), %rax	# insn, tmp394
	movzwl	(%rax), %eax	# insn_32->code, D.10469
	cmpw	$32, %ax	#, D.10469
	jne	.L131	#,
	.loc 1 609 0 discriminator 1
	movq	-160(%rbp), %rax	# insn, tmp395
	movq	32(%rax), %rax	# insn_32->fld[3].rtx, D.10471
	movzwl	(%rax), %eax	# _260->code, D.10469
	cmpw	$47, %ax	#, D.10469
	jne	.L131	#,
	movq	-160(%rbp), %rax	# insn, tmp396
	movq	32(%rax), %rax	# insn_32->fld[3].rtx, D.10471
	movq	16(%rax), %rax	# _262->fld[1].rtx, D.10471
	movzwl	(%rax), %eax	# _263->code, D.10469
	cmpw	$152, %ax	#, D.10469
	je	.L133	#,
.L131:
.LBE19:
	.loc 1 609 0 discriminator 2
	movq	-56(%rbp), %rax	# temp, tmp397
	movq	%rax, %rdi	# tmp397,
	call	remove_edge	#
.L130:
.LBE18:
	.loc 1 609 0 discriminator 1
	cmpq	$0, -168(%rbp)	#, e
	jne	.L134	#,
	.loc 1 609 0 discriminator 3
	movq	-176(%rbp), %rax	# insn, tmp398
	movw	$37, (%rax)	#, insn_29->code
	movq	-176(%rbp), %rax	# insn, tmp399
	movl	$-99, 40(%rax)	#, insn_29->fld[4].rtint
	jmp	.L127	#
.L129:
	.loc 1 609 0 discriminator 2
	movq	-72(%rbp), %rax	# bb, tmp400
	movq	40(%rax), %rax	# bb_249->succ, tmp401
	movq	%rax, -168(%rbp)	# tmp401, e
	jmp	.L135	#
.L140:
.LBB20:
	movq	-168(%rbp), %rax	# e, tmp402
	movq	%rax, -48(%rbp)	# tmp402, temp
	movq	-168(%rbp), %rax	# e, tmp403
	movq	8(%rax), %rax	# e_31->succ_next, tmp404
	movq	%rax, -168(%rbp)	# tmp404, e
	movq	-48(%rbp), %rax	# temp, tmp405
	movl	48(%rax), %eax	# temp_269->flags, D.10468
	andl	$2, %eax	#, D.10468
	testl	%eax, %eax	# D.10468
	je	.L136	#,
	.loc 1 609 0 discriminator 1
	jmp	.L135	#
.L136:
	.loc 1 609 0 discriminator 2
	movq	-48(%rbp), %rax	# temp, tmp406
	movq	24(%rax), %rax	# temp_269->dest, D.10473
	cmpq	$entry_exit_blocks+112, %rax	#, D.10473
	je	.L137	#,
.LBB21:
	.loc 1 609 0 discriminator 1
	movq	-48(%rbp), %rax	# temp, tmp407
	movq	24(%rax), %rax	# temp_269->dest, D.10473
	movq	%rax, %rdi	# D.10473,
	call	first_insn_after_basic_block_note	#
	movq	%rax, -152(%rbp)	# tmp408, insn
	jmp	.L138	#
.L139:
	movq	-48(%rbp), %rax	# temp, tmp409
	movq	16(%rax), %rdx	# temp_269->src, D.10473
	movq	-152(%rbp), %rax	# insn, tmp410
	movq	32(%rax), %rax	# insn_33->fld[3].rtx, D.10471
	movq	%rdx, %rsi	# D.10473,
	movq	%rax, %rdi	# D.10471,
	call	remove_phi_alternative	#
	movq	-152(%rbp), %rax	# insn, tmp411
	movq	24(%rax), %rax	# insn_33->fld[2].rtx, tmp412
	movq	%rax, -152(%rbp)	# tmp412, insn
.L138:
	cmpq	$0, -152(%rbp)	#, insn
	je	.L137	#,
	.loc 1 609 0 discriminator 2
	movq	-152(%rbp), %rax	# insn, tmp413
	movzwl	(%rax), %eax	# insn_33->code, D.10469
	cmpw	$32, %ax	#, D.10469
	jne	.L137	#,
	.loc 1 609 0 discriminator 1
	movq	-152(%rbp), %rax	# insn, tmp414
	movq	32(%rax), %rax	# insn_33->fld[3].rtx, D.10471
	movzwl	(%rax), %eax	# _277->code, D.10469
	cmpw	$47, %ax	#, D.10469
	jne	.L137	#,
	movq	-152(%rbp), %rax	# insn, tmp415
	movq	32(%rax), %rax	# insn_33->fld[3].rtx, D.10471
	movq	16(%rax), %rax	# _279->fld[1].rtx, D.10471
	movzwl	(%rax), %eax	# _280->code, D.10469
	cmpw	$152, %ax	#, D.10469
	je	.L139	#,
.L137:
.LBE21:
	.loc 1 609 0 discriminator 2
	movq	-48(%rbp), %rax	# temp, tmp416
	movq	%rax, %rdi	# tmp416,
	call	remove_edge	#
.L135:
.LBE20:
	.loc 1 609 0 discriminator 1
	cmpq	$0, -168(%rbp)	#, e
	jne	.L140	#,
	.loc 1 609 0 discriminator 3
	movq	-64(%rbp), %rcx	# pdom_bb, tmp417
	movq	-72(%rbp), %rax	# bb, tmp418
	movl	$0, %edx	#,
	movq	%rcx, %rsi	# tmp417,
	movq	%rax, %rdi	# tmp418,
	call	make_edge	#
	movq	-64(%rbp), %rax	# pdom_bb, tmp419
	movq	%rax, %rdi	# tmp419,
	call	find_block_label	#
	movq	%rax, -40(%rbp)	# tmp420, lbl
	movq	-176(%rbp), %rax	# insn, tmp421
	movq	32(%rax), %rbx	# insn_29->fld[3].rtx, D.10471
	movq	-40(%rbp), %rax	# lbl, tmp422
	movq	%rax, %rdx	# tmp422,
	movl	$0, %esi	#,
	movl	$67, %edi	#,
	call	gen_rtx_fmt_u00	#
	movq	%rax, 16(%rbx)	# D.10471, _286->fld[1].rtx
	movq	-176(%rbp), %rax	# insn, tmp423
	movl	$-1, 40(%rax)	#, insn_29->fld[4].rtint
	movq	-176(%rbp), %rax	# insn, tmp424
	movq	-40(%rbp), %rdx	# lbl, tmp425
	movq	%rdx, 64(%rax)	# tmp425, insn_29->fld[7].rtx
	movq	-40(%rbp), %rax	# lbl, tmp426
	movl	32(%rax), %eax	# lbl_285->fld[3].rtint, D.10468
	leal	1(%rax), %edx	#, D.10468
	movq	-40(%rbp), %rax	# lbl, tmp427
	movl	%edx, 32(%rax)	# D.10468, lbl_285->fld[3].rtint
	movq	-176(%rbp), %rax	# insn, tmp428
	movq	%rax, %rdi	# tmp428,
	call	emit_barrier_after	#
.LBE17:
	jmp	.L127	#
.L128:
	.loc 1 609 0 discriminator 2
	movq	-176(%rbp), %rax	# insn, tmp429
	movzwl	(%rax), %eax	# insn_29->code, D.10469
	cmpw	$33, %ax	#, D.10469
	je	.L127	#,
	.loc 1 609 0 discriminator 1
	movq	-176(%rbp), %rax	# insn, tmp430
	movq	%rax, %rdi	# tmp430,
	call	delete_insn_bb	#
.L127:
	.loc 1 609 0 discriminator 2
	movq	-176(%rbp), %rax	# insn, tmp431
	movq	24(%rax), %rax	# insn_29->fld[2].rtx, tmp432
	movq	%rax, -176(%rbp)	# tmp432, insn
.L126:
	.loc 1 609 0 discriminator 1
	cmpq	$0, -176(%rbp)	#, insn
	jne	.L141	#,
.LBE16:
	.loc 1 716 0 is_stmt 1
	call	remove_fake_edges	#
	.loc 1 721 0
	movl	$0, -276(%rbp)	#, i
	jmp	.L142	#
.L145:
.LBB22:
	.loc 1 723 0
	movq	basic_block_info(%rip), %rax	# basic_block_info, basic_block_info.55
	movl	-276(%rbp), %edx	# i, tmp434
	movslq	%edx, %rdx	# tmp434, tmp433
	addq	$4, %rdx	#, tmp435
	movq	(%rax,%rdx,8), %rax	# basic_block_info.55_294->data.bb, tmp436
	movq	%rax, -32(%rbp)	# tmp436, bb
	.loc 1 725 0
	movq	-32(%rbp), %rax	# bb, tmp437
	movq	40(%rax), %rax	# bb_295->succ, D.10478
	testq	%rax, %rax	# D.10478
	jne	.L143	#,
.LBB23:
	.loc 1 727 0
	movq	-32(%rbp), %rax	# bb, tmp438
	movq	8(%rax), %rax	# bb_295->end, D.10471
	movq	24(%rax), %rax	# _297->fld[2].rtx, tmp439
	movq	%rax, -24(%rbp)	# tmp439, next
	.loc 1 729 0
	cmpq	$0, -24(%rbp)	#, next
	je	.L144	#,
	.loc 1 729 0 is_stmt 0 discriminator 1
	movq	-24(%rbp), %rax	# next, tmp440
	movzwl	(%rax), %eax	# next_298->code, D.10469
	cmpw	$35, %ax	#, D.10469
	je	.L143	#,
.L144:
	.loc 1 730 0 is_stmt 1
	movq	-32(%rbp), %rax	# bb, tmp441
	movq	8(%rax), %rax	# bb_295->end, D.10471
	movq	%rax, %rdi	# D.10471,
	call	emit_barrier_after	#
.L143:
.LBE23:
.LBE22:
	.loc 1 721 0
	addl	$1, -276(%rbp)	#, i
.L142:
	.loc 1 721 0 is_stmt 0 discriminator 1
	movl	n_basic_blocks(%rip), %eax	# n_basic_blocks, n_basic_blocks.56
	cmpl	%eax, -276(%rbp)	# n_basic_blocks.56, i
	jl	.L145	#,
	.loc 1 734 0 is_stmt 1
	call	get_insns	#
	movq	%rax, -216(%rbp)	# tmp442, insn
	jmp	.L146	#
.L147:
	.loc 1 735 0 discriminator 2
	movq	-216(%rbp), %rax	# insn, tmp443
	movzbl	3(%rax), %edx	# insn_5->in_struct, tmp446
	andl	$-17, %edx	#, tmp447
	movb	%dl, 3(%rax)	# tmp447, insn_5->in_struct
	.loc 1 734 0 discriminator 2
	movq	-216(%rbp), %rax	# insn, tmp448
	movq	24(%rax), %rax	# insn_5->fld[2].rtx, tmp449
	movq	%rax, -216(%rbp)	# tmp449, insn
.L146:
	.loc 1 734 0 is_stmt 0 discriminator 1
	cmpq	$0, -216(%rbp)	#, insn
	jne	.L147	#,
	.loc 1 736 0 is_stmt 1
	movq	-232(%rbp), %rax	# unprocessed_instructions, unprocessed_instructions.57
	movq	8(%rax), %rax	# unprocessed_instructions.57_304->elements_used, D.10466
	testq	%rax, %rax	# D.10466
	je	.L148	#,
	.loc 1 737 0
	movl	$__FUNCTION__.9886, %edx	#,
	movl	$737, %esi	#,
	movl	$.LC0, %edi	#,
	call	fancy_abort	#
.L148:
	.loc 1 738 0
	movq	-232(%rbp), %rax	# unprocessed_instructions, unprocessed_instructions.58
	testq	%rax, %rax	# unprocessed_instructions.58
	je	.L149	#,
	.loc 1 738 0 is_stmt 0 discriminator 1
	movq	-232(%rbp), %rax	# unprocessed_instructions, unprocessed_instructions.59
	movq	%rax, %rdi	# unprocessed_instructions.59,
	call	free	#
	movq	$0, -232(%rbp)	#, unprocessed_instructions
.L149:
	.loc 1 739 0 is_stmt 1
	movq	-144(%rbp), %rax	# cdbte, tmp450
	movq	%rax, %rdi	# tmp450,
	call	control_dependent_block_to_edge_map_free	#
	.loc 1 740 0
	movq	-136(%rbp), %rax	# pdom, tmp451
	movq	%rax, %rdi	# tmp451,
	call	free	#
	.loc 1 741 0
	movq	-128(%rbp), %rax	# el, tmp452
	movq	%rax, %rdi	# tmp452,
	call	free_edge_list	#
	.loc 1 742 0
	addq	$280, %rsp	#,
	popq	%rbx	#
	popq	%rbp	#
	.cfi_def_cfa 7, 8
	ret
	.cfi_endproc
.LFE16:
	.size	ssa_eliminate_dead_code, .-ssa_eliminate_dead_code
	.section	.rodata
	.align 32
	.type	__FUNCTION__.9693, @object
	.size	__FUNCTION__.9693, 44
__FUNCTION__.9693:
	.string	"set_control_dependent_block_to_edge_map_bit"
	.align 16
	.type	__FUNCTION__.9718, @object
	.size	__FUNCTION__.9718, 24
__FUNCTION__.9718:
	.string	"find_control_dependence"
	.type	__FUNCTION__.9726, @object
	.size	__FUNCTION__.9726, 10
__FUNCTION__.9726:
	.string	"find_pdom"
	.align 16
	.type	__FUNCTION__.9760, @object
	.size	__FUNCTION__.9760, 26
__FUNCTION__.9760:
	.string	"find_inherently_necessary"
	.type	__FUNCTION__.9784, @object
	.size	__FUNCTION__.9784, 15
__FUNCTION__.9784:
	.string	"delete_insn_bb"
	.align 16
	.type	__FUNCTION__.9886, @object
	.size	__FUNCTION__.9886, 24
__FUNCTION__.9886:
	.string	"ssa_eliminate_dead_code"
	.text
.Letext0:
	.file 2 "rtl.h"
	.file 3 "config.h"
	.file 4 "/usr/lib/gcc/x86_64-linux-gnu/4.8/include/stddef.h"
	.file 5 "machmode.h"
	.file 6 "bitmap.h"
	.file 7 "basic-block.h"
	.file 8 "varray.h"
	.file 9 "ssa.h"
	.section	.note.GNU-stack,"",@progbits
