	.file	"ssa-ccp.c"
# GNU C (Ubuntu/Linaro 4.8.1-10ubuntu9) version 4.8.1 (x86_64-linux-gnu)
#	compiled by GNU C version 4.8.1, GMP version 5.1.2, MPFR version 3.1.1-p2, MPC version 1.0.1
# GGC heuristics: --param ggc-min-expand=100 --param ggc-min-heapsize=131072
# options passed:  -I . -imultiarch x86_64-linux-gnu -D SPEC_CPU -D NDEBUG
# -D SPEC_CPU_LP64 ssa-ccp.c -mtune=generic -march=x86-64 -g -fverbose-asm
# -fno-strict-aliasing -fstack-protector -Wformat -Wformat-security
# options enabled:  -faggressive-loop-optimizations
# -fasynchronous-unwind-tables -fauto-inc-dec -fbranch-count-reg -fcommon
# -fdelete-null-pointer-checks -fdwarf2-cfi-asm -fearly-inlining
# -feliminate-unused-debug-types -ffunction-cse -fgcse-lm -fgnu-runtime
# -fident -finline-atomics -fira-hoist-pressure -fira-share-save-slots
# -fira-share-spill-slots -fivopts -fkeep-static-consts
# -fleading-underscore -fmath-errno -fmerge-debug-strings
# -fmove-loop-invariants -fpeephole -fprefetch-loop-arrays
# -freg-struct-return -fsched-critical-path-heuristic
# -fsched-dep-count-heuristic -fsched-group-heuristic -fsched-interblock
# -fsched-last-insn-heuristic -fsched-rank-heuristic -fsched-spec
# -fsched-spec-insn-heuristic -fsched-stalled-insns-dep -fshow-column
# -fsigned-zeros -fsplit-ivs-in-unroller -fstack-protector
# -fstrict-volatile-bitfields -fsync-libcalls -ftrapping-math
# -ftree-coalesce-vars -ftree-cselim -ftree-forwprop -ftree-loop-if-convert
# -ftree-loop-im -ftree-loop-ivcanon -ftree-loop-optimize
# -ftree-parallelize-loops= -ftree-phiprop -ftree-pta -ftree-reassoc
# -ftree-scev-cprop -ftree-slp-vectorize -ftree-vect-loop-version
# -funit-at-a-time -funwind-tables -fverbose-asm -fzero-initialized-in-bss
# -m128bit-long-double -m64 -m80387 -maccumulate-outgoing-args
# -malign-stringops -mfancy-math-387 -mfp-ret-in-387 -mfxsr -mglibc
# -mieee-fp -mlong-double-80 -mmmx -mno-sse4 -mpush-args -mred-zone -msse
# -msse2 -mtls-direct-seg-refs

	.text
.Ltext0:
	.local	values
	.comm	values,8,8
	.local	executable_blocks
	.comm	executable_blocks,8,8
	.local	executable_edges
	.comm	executable_edges,8,8
	.local	edge_info
	.comm	edge_info,8,8
	.local	edges
	.comm	edges,8,8
	.local	df_analyzer
	.comm	df_analyzer,8,8
	.local	flow_edges
	.comm	flow_edges,8,8
	.local	ssa_edges
	.comm	ssa_edges,8,8
	.type	visit_phi_node, @function
visit_phi_node:
.LFB2:
	.file 1 "ssa-ccp.c"
	.loc 1 144 0
	.cfi_startproc
	pushq	%rbp	#
	.cfi_def_cfa_offset 16
	.cfi_offset 6, -16
	movq	%rsp, %rbp	#,
	.cfi_def_cfa_register 6
	pushq	%rbx	#
	subq	$72, %rsp	#,
	.cfi_offset 3, -24
	movq	%rdi, -72(%rbp)	# phi_node, phi_node
	movq	%rsi, -80(%rbp)	# block, block
	.loc 1 146 0
	movq	$0, -40(%rbp)	#, phi_node_expr
	.loc 1 147 0
	movq	-72(%rbp), %rax	# phi_node, tmp119
	movq	32(%rax), %rax	# phi_node_9(D)->fld[3].rtx, D.11864
	movq	8(%rax), %rax	# _10->fld[0].rtx, D.11864
	movl	8(%rax), %eax	# _11->fld[0].rtuint, tmp120
	movl	%eax, -56(%rbp)	# tmp120, phi_node_name
	.loc 1 148 0
	movl	$0, -60(%rbp)	#, phi_node_lattice_val
	.loc 1 149 0
	movq	-72(%rbp), %rax	# phi_node, tmp121
	movq	32(%rax), %rax	# phi_node_9(D)->fld[3].rtx, tmp122
	movq	%rax, -32(%rbp)	# tmp122, pat
	.loc 1 150 0
	movq	-32(%rbp), %rax	# pat, tmp123
	movq	16(%rax), %rax	# pat_14->fld[1].rtx, D.11864
	movq	8(%rax), %rax	# _15->fld[0].rtvec, tmp124
	movq	%rax, -24(%rbp)	# tmp124, phi_vec
	.loc 1 151 0
	movq	-24(%rbp), %rax	# phi_vec, tmp125
	movl	(%rax), %eax	# phi_vec_16->num_elem, D.11865
	movl	%eax, -52(%rbp)	# D.11865, num_elem
	.loc 1 153 0
	movl	$0, -64(%rbp)	#, i
	jmp	.L2	#
.L7:
	.loc 1 155 0
	movq	executable_edges(%rip), %rbx	# executable_edges, executable_edges.0
	movq	basic_block_info(%rip), %rax	# basic_block_info, basic_block_info.1
	movl	-64(%rbp), %edx	# i, tmp126
	leal	1(%rdx), %ecx	#, D.11866
	movq	-24(%rbp), %rdx	# phi_vec, tmp127
	movl	%ecx, %ecx	# D.11866, tmp128
	movq	8(%rdx,%rcx,8), %rdx	# phi_vec_16->elem, D.11864
	movq	8(%rdx), %rdx	# _23->fld[0].rtwint, D.11867
	addq	$4, %rdx	#, tmp129
	movq	(%rax,%rdx,8), %rcx	# basic_block_info.1_21->data.bb, D.11868
	movq	edges(%rip), %rax	# edges, edges.2
	movq	-80(%rbp), %rdx	# block, tmp130
	movq	%rcx, %rsi	# D.11868,
	movq	%rax, %rdi	# edges.2,
	call	find_edge_index	#
	shrl	$6, %eax	#, D.11866
	movl	%eax, %eax	# D.11866, tmp131
	addq	$2, %rax	#, tmp132
	movq	(%rbx,%rax,8), %rbx	# executable_edges.0_20->elms, D.11869
	movq	basic_block_info(%rip), %rax	# basic_block_info, basic_block_info.3
	movl	-64(%rbp), %edx	# i, tmp133
	leal	1(%rdx), %ecx	#, D.11866
	movq	-24(%rbp), %rdx	# phi_vec, tmp134
	movl	%ecx, %ecx	# D.11866, tmp135
	movq	8(%rdx,%rcx,8), %rdx	# phi_vec_16->elem, D.11864
	movq	8(%rdx), %rdx	# _34->fld[0].rtwint, D.11867
	addq	$4, %rdx	#, tmp136
	movq	(%rax,%rdx,8), %rcx	# basic_block_info.3_32->data.bb, D.11868
	movq	edges(%rip), %rax	# edges, edges.4
	movq	-80(%rbp), %rdx	# block, tmp137
	movq	%rcx, %rsi	# D.11868,
	movq	%rax, %rdi	# edges.4,
	call	find_edge_index	#
	andl	$63, %eax	#, D.11865
	movl	%eax, %ecx	# D.11865, tmp153
	shrq	%cl, %rbx	# tmp153, D.11869
	movq	%rbx, %rax	# D.11869, D.11869
	andl	$1, %eax	#, D.11869
	testq	%rax, %rax	# D.11869
	je	.L3	#,
.LBB2:
	.loc 1 160 0
	movq	-24(%rbp), %rax	# phi_vec, tmp138
	movl	-64(%rbp), %edx	# i, tmp139
	movq	8(%rax,%rdx,8), %rax	# phi_vec_16->elem, D.11864
	.loc 1 159 0
	movl	8(%rax), %eax	# _42->fld[0].rtuint, tmp140
	movl	%eax, -48(%rbp)	# tmp140, current_parm
	.loc 1 163 0
	movq	values(%rip), %rax	# values, values.5
	movl	-48(%rbp), %edx	# current_parm, D.11869
	salq	$4, %rdx	#, D.11869
	addq	%rdx, %rax	# D.11869, D.11870
	.loc 1 162 0
	movl	(%rax), %eax	# _47->lattice_val, tmp141
	movl	%eax, -44(%rbp)	# tmp141, current_parm_lattice_val
	.loc 1 167 0
	cmpl	$2, -44(%rbp)	#, current_parm_lattice_val
	jne	.L4	#,
	.loc 1 169 0
	movl	$2, -60(%rbp)	#, phi_node_lattice_val
	.loc 1 170 0
	movq	$0, -40(%rbp)	#, phi_node_expr
	.loc 1 171 0
	jmp	.L5	#
.L4:
	.loc 1 176 0
	cmpl	$1, -44(%rbp)	#, current_parm_lattice_val
	jne	.L6	#,
	.loc 1 177 0
	cmpl	$1, -60(%rbp)	#, phi_node_lattice_val
	jne	.L6	#,
	.loc 1 178 0
	movq	values(%rip), %rax	# values, values.6
	movl	-48(%rbp), %edx	# current_parm, D.11869
	salq	$4, %rdx	#, D.11869
	addq	%rdx, %rax	# D.11869, D.11870
	movq	8(%rax), %rax	# _54->const_value, D.11864
	cmpq	-40(%rbp), %rax	# phi_node_expr, D.11864
	je	.L6	#,
	.loc 1 180 0
	movl	$2, -60(%rbp)	#, phi_node_lattice_val
	.loc 1 181 0
	movq	$0, -40(%rbp)	#, phi_node_expr
	.loc 1 182 0
	jmp	.L5	#
.L6:
	.loc 1 189 0
	cmpl	$0, -60(%rbp)	#, phi_node_lattice_val
	jne	.L3	#,
	.loc 1 190 0
	cmpq	$0, -40(%rbp)	#, phi_node_expr
	jne	.L3	#,
	.loc 1 191 0
	cmpl	$1, -44(%rbp)	#, current_parm_lattice_val
	jne	.L3	#,
	.loc 1 193 0
	movq	values(%rip), %rax	# values, values.7
	movl	-48(%rbp), %edx	# current_parm, D.11869
	salq	$4, %rdx	#, D.11869
	addq	%rdx, %rax	# D.11869, D.11870
	movq	8(%rax), %rax	# _61->const_value, tmp142
	movq	%rax, -40(%rbp)	# tmp142, phi_node_expr
	.loc 1 194 0
	movl	$1, -60(%rbp)	#, phi_node_lattice_val
	.loc 1 195 0
	nop
.L3:
.LBE2:
	.loc 1 153 0
	addl	$2, -64(%rbp)	#, i
.L2:
	.loc 1 153 0 is_stmt 0 discriminator 1
	movl	-64(%rbp), %eax	# i, tmp143
	cmpl	-52(%rbp), %eax	# num_elem, tmp143
	jb	.L7	#,
.L5:
	.loc 1 202 0 is_stmt 1
	movq	values(%rip), %rax	# values, values.8
	movl	-56(%rbp), %edx	# phi_node_name, D.11869
	salq	$4, %rdx	#, D.11869
	addq	%rdx, %rax	# D.11869, D.11870
	movl	(%rax), %eax	# _68->lattice_val, D.11871
	cmpl	-60(%rbp), %eax	# phi_node_lattice_val, D.11871
	je	.L1	#,
	.loc 1 204 0
	movq	values(%rip), %rax	# values, values.9
	movl	-56(%rbp), %edx	# phi_node_name, D.11869
	salq	$4, %rdx	#, D.11869
	addq	%rax, %rdx	# values.9, D.11870
	movl	-60(%rbp), %eax	# phi_node_lattice_val, tmp144
	movl	%eax, (%rdx)	# tmp144, _73->lattice_val
	.loc 1 205 0
	movq	values(%rip), %rax	# values, values.10
	movl	-56(%rbp), %edx	# phi_node_name, D.11869
	salq	$4, %rdx	#, D.11869
	addq	%rax, %rdx	# values.10, D.11870
	movq	-40(%rbp), %rax	# phi_node_expr, tmp145
	movq	%rax, 8(%rdx)	# tmp145, _77->const_value
	.loc 1 206 0
	movq	ssa_edges(%rip), %rdx	# ssa_edges, ssa_edges.11
	movl	-56(%rbp), %eax	# phi_node_name, tmp146
	shrl	$6, %eax	#, D.11866
	movq	ssa_edges(%rip), %rcx	# ssa_edges, ssa_edges.12
	movl	%eax, %esi	# D.11866, tmp147
	addq	$2, %rsi	#, tmp148
	movq	(%rcx,%rsi,8), %rsi	# ssa_edges.12_80->elms, D.11869
	movl	-56(%rbp), %ecx	# phi_node_name, phi_node_name.13
	andl	$63, %ecx	#, D.11865
	movl	$1, %edi	#, tmp149
	salq	%cl, %rdi	# D.11865, D.11869
	movq	%rdi, %rcx	# D.11869, D.11869
	orq	%rsi, %rcx	# D.11869, D.11869
	movl	%eax, %eax	# D.11866, tmp150
	addq	$2, %rax	#, tmp151
	movq	%rcx, (%rdx,%rax,8)	# D.11869, ssa_edges.11_78->elms
.L1:
	.loc 1 208 0
	addq	$72, %rsp	#,
	popq	%rbx	#
	popq	%rbp	#
	.cfi_def_cfa 7, 8
	ret
	.cfi_endproc
.LFE2:
	.size	visit_phi_node, .-visit_phi_node
	.type	defs_to_undefined, @function
defs_to_undefined:
.LFB3:
	.loc 1 214 0
	.cfi_startproc
	pushq	%rbp	#
	.cfi_def_cfa_offset 16
	.cfi_offset 6, -16
	movq	%rsp, %rbp	#,
	.cfi_def_cfa_register 6
	movq	%rdi, -24(%rbp)	# insn, insn
	.loc 1 216 0
	movq	df_analyzer(%rip), %rax	# df_analyzer, df_analyzer.14
	movq	56(%rax), %rcx	# df_analyzer.14_6->insns, D.11872
	movq	-24(%rbp), %rax	# insn, tmp114
	movl	8(%rax), %eax	# insn_8(D)->fld[0].rtint, D.11873
	movslq	%eax, %rdx	# D.11873, D.11874
	movq	%rdx, %rax	# D.11874, tmp115
	addq	%rax, %rax	# tmp115
	addq	%rdx, %rax	# D.11874, tmp115
	salq	$3, %rax	#, tmp116
	addq	%rcx, %rax	# D.11872, D.11872
	movq	(%rax), %rax	# _12->defs, tmp117
	movq	%rax, -8(%rbp)	# tmp117, currdef
	jmp	.L10	#
.L20:
	.loc 1 219 0
	movq	values(%rip), %rdx	# values, values.15
	movq	-8(%rbp), %rax	# currdef, tmp118
	movq	8(%rax), %rax	# currdef_1->ref, D.11875
	movq	(%rax), %rax	# _15->reg, D.11876
	movzwl	(%rax), %eax	# _16->code, D.11877
	cmpw	$63, %ax	#, D.11877
	jne	.L11	#,
	.loc 1 219 0 is_stmt 0 discriminator 1
	movq	-8(%rbp), %rax	# currdef, tmp119
	movq	8(%rax), %rax	# currdef_1->ref, D.11875
	movq	(%rax), %rax	# _18->reg, D.11876
	movq	8(%rax), %rax	# _19->fld[0].rtx, iftmp.16
	jmp	.L12	#
.L11:
	.loc 1 219 0 discriminator 2
	movq	-8(%rbp), %rax	# currdef, tmp120
	movq	8(%rax), %rax	# currdef_1->ref, D.11875
	movq	(%rax), %rax	# _21->reg, iftmp.16
.L12:
	.loc 1 219 0 discriminator 3
	movl	8(%rax), %eax	# iftmp.16_2->fld[0].rtuint, D.11878
	movl	%eax, %eax	# D.11878, D.11874
	salq	$4, %rax	#, D.11874
	addq	%rdx, %rax	# values.15, D.11879
	movl	(%rax), %eax	# _26->lattice_val, D.11880
	testl	%eax, %eax	# D.11880
	je	.L13	#,
	.loc 1 220 0 is_stmt 1
	movq	ssa_edges(%rip), %rsi	# ssa_edges, ssa_edges.17
	movq	-8(%rbp), %rax	# currdef, tmp121
	movq	8(%rax), %rax	# currdef_1->ref, D.11875
	movq	(%rax), %rax	# _29->reg, D.11876
	movzwl	(%rax), %eax	# _30->code, D.11877
	cmpw	$63, %ax	#, D.11877
	jne	.L14	#,
	.loc 1 220 0 is_stmt 0 discriminator 1
	movq	-8(%rbp), %rax	# currdef, tmp122
	movq	8(%rax), %rax	# currdef_1->ref, D.11875
	movq	(%rax), %rax	# _32->reg, D.11876
	movq	8(%rax), %rax	# _33->fld[0].rtx, iftmp.18
	jmp	.L15	#
.L14:
	.loc 1 220 0 discriminator 2
	movq	-8(%rbp), %rax	# currdef, tmp123
	movq	8(%rax), %rax	# currdef_1->ref, D.11875
	movq	(%rax), %rax	# _35->reg, iftmp.18
.L15:
	.loc 1 220 0 discriminator 3
	movl	8(%rax), %eax	# iftmp.18_3->fld[0].rtuint, D.11878
	shrl	$6, %eax	#, D.11878
	movl	%eax, %edx	# D.11878, D.11878
	movq	ssa_edges(%rip), %rax	# ssa_edges, ssa_edges.19
	movl	%edx, %ecx	# D.11878, tmp124
	addq	$2, %rcx	#, tmp125
	movq	(%rax,%rcx,8), %rdi	# ssa_edges.19_39->elms, D.11874
	movq	-8(%rbp), %rax	# currdef, tmp126
	movq	8(%rax), %rax	# currdef_1->ref, D.11875
	movq	(%rax), %rax	# _41->reg, D.11876
	movzwl	(%rax), %eax	# _42->code, D.11877
	cmpw	$63, %ax	#, D.11877
	jne	.L16	#,
	.loc 1 220 0 discriminator 1
	movq	-8(%rbp), %rax	# currdef, tmp127
	movq	8(%rax), %rax	# currdef_1->ref, D.11875
	movq	(%rax), %rax	# _44->reg, D.11876
	movq	8(%rax), %rax	# _45->fld[0].rtx, iftmp.20
	jmp	.L17	#
.L16:
	.loc 1 220 0 discriminator 2
	movq	-8(%rbp), %rax	# currdef, tmp128
	movq	8(%rax), %rax	# currdef_1->ref, D.11875
	movq	(%rax), %rax	# _47->reg, iftmp.20
.L17:
	.loc 1 220 0 discriminator 3
	movl	8(%rax), %eax	# iftmp.20_4->fld[0].rtuint, D.11878
	andl	$63, %eax	#, D.11873
	movl	$1, %r8d	#, tmp129
	movl	%eax, %ecx	# D.11873, tmp139
	salq	%cl, %r8	# tmp139, D.11874
	movq	%r8, %rax	# D.11874, D.11874
	orq	%rax, %rdi	# D.11874, D.11874
	movq	%rdi, %rcx	# D.11874, D.11874
	movl	%edx, %eax	# D.11878, tmp130
	addq	$2, %rax	#, tmp131
	movq	%rcx, (%rsi,%rax,8)	# D.11874, ssa_edges.17_28->elms
.L13:
	.loc 1 221 0 is_stmt 1
	movq	values(%rip), %rdx	# values, values.21
	movq	-8(%rbp), %rax	# currdef, tmp132
	movq	8(%rax), %rax	# currdef_1->ref, D.11875
	movq	(%rax), %rax	# _55->reg, D.11876
	movzwl	(%rax), %eax	# _56->code, D.11877
	cmpw	$63, %ax	#, D.11877
	jne	.L18	#,
	.loc 1 221 0 is_stmt 0 discriminator 1
	movq	-8(%rbp), %rax	# currdef, tmp133
	movq	8(%rax), %rax	# currdef_1->ref, D.11875
	movq	(%rax), %rax	# _58->reg, D.11876
	movq	8(%rax), %rax	# _59->fld[0].rtx, iftmp.22
	jmp	.L19	#
.L18:
	.loc 1 221 0 discriminator 2
	movq	-8(%rbp), %rax	# currdef, tmp134
	movq	8(%rax), %rax	# currdef_1->ref, D.11875
	movq	(%rax), %rax	# _61->reg, iftmp.22
.L19:
	.loc 1 221 0 discriminator 3
	movl	8(%rax), %eax	# iftmp.22_5->fld[0].rtuint, D.11878
	movl	%eax, %eax	# D.11878, D.11874
	salq	$4, %rax	#, D.11874
	addq	%rdx, %rax	# values.21, D.11879
	movl	$0, (%rax)	#, _66->lattice_val
	.loc 1 217 0 is_stmt 1 discriminator 3
	movq	-8(%rbp), %rax	# currdef, tmp135
	movq	(%rax), %rax	# currdef_1->next, tmp136
	movq	%rax, -8(%rbp)	# tmp136, currdef
.L10:
	.loc 1 216 0 discriminator 1
	cmpq	$0, -8(%rbp)	#, currdef
	jne	.L20	#,
	.loc 1 223 0
	popq	%rbp	#
	.cfi_def_cfa 7, 8
	ret
	.cfi_endproc
.LFE3:
	.size	defs_to_undefined, .-defs_to_undefined
	.type	defs_to_varying, @function
defs_to_varying:
.LFB4:
	.loc 1 229 0
	.cfi_startproc
	pushq	%rbp	#
	.cfi_def_cfa_offset 16
	.cfi_offset 6, -16
	movq	%rsp, %rbp	#,
	.cfi_def_cfa_register 6
	movq	%rdi, -24(%rbp)	# insn, insn
	.loc 1 231 0
	movq	df_analyzer(%rip), %rax	# df_analyzer, df_analyzer.23
	movq	56(%rax), %rcx	# df_analyzer.23_6->insns, D.11881
	movq	-24(%rbp), %rax	# insn, tmp114
	movl	8(%rax), %eax	# insn_8(D)->fld[0].rtint, D.11882
	movslq	%eax, %rdx	# D.11882, D.11883
	movq	%rdx, %rax	# D.11883, tmp115
	addq	%rax, %rax	# tmp115
	addq	%rdx, %rax	# D.11883, tmp115
	salq	$3, %rax	#, tmp116
	addq	%rcx, %rax	# D.11881, D.11881
	movq	(%rax), %rax	# _12->defs, tmp117
	movq	%rax, -8(%rbp)	# tmp117, currdef
	jmp	.L22	#
.L32:
	.loc 1 234 0
	movq	values(%rip), %rdx	# values, values.24
	movq	-8(%rbp), %rax	# currdef, tmp118
	movq	8(%rax), %rax	# currdef_1->ref, D.11884
	movq	(%rax), %rax	# _15->reg, D.11885
	movzwl	(%rax), %eax	# _16->code, D.11886
	cmpw	$63, %ax	#, D.11886
	jne	.L23	#,
	.loc 1 234 0 is_stmt 0 discriminator 1
	movq	-8(%rbp), %rax	# currdef, tmp119
	movq	8(%rax), %rax	# currdef_1->ref, D.11884
	movq	(%rax), %rax	# _18->reg, D.11885
	movq	8(%rax), %rax	# _19->fld[0].rtx, iftmp.25
	jmp	.L24	#
.L23:
	.loc 1 234 0 discriminator 2
	movq	-8(%rbp), %rax	# currdef, tmp120
	movq	8(%rax), %rax	# currdef_1->ref, D.11884
	movq	(%rax), %rax	# _21->reg, iftmp.25
.L24:
	.loc 1 234 0 discriminator 3
	movl	8(%rax), %eax	# iftmp.25_2->fld[0].rtuint, D.11887
	movl	%eax, %eax	# D.11887, D.11883
	salq	$4, %rax	#, D.11883
	addq	%rdx, %rax	# values.24, D.11888
	movl	(%rax), %eax	# _26->lattice_val, D.11889
	cmpl	$2, %eax	#, D.11889
	je	.L25	#,
	.loc 1 235 0 is_stmt 1
	movq	ssa_edges(%rip), %rsi	# ssa_edges, ssa_edges.26
	movq	-8(%rbp), %rax	# currdef, tmp121
	movq	8(%rax), %rax	# currdef_1->ref, D.11884
	movq	(%rax), %rax	# _29->reg, D.11885
	movzwl	(%rax), %eax	# _30->code, D.11886
	cmpw	$63, %ax	#, D.11886
	jne	.L26	#,
	.loc 1 235 0 is_stmt 0 discriminator 1
	movq	-8(%rbp), %rax	# currdef, tmp122
	movq	8(%rax), %rax	# currdef_1->ref, D.11884
	movq	(%rax), %rax	# _32->reg, D.11885
	movq	8(%rax), %rax	# _33->fld[0].rtx, iftmp.27
	jmp	.L27	#
.L26:
	.loc 1 235 0 discriminator 2
	movq	-8(%rbp), %rax	# currdef, tmp123
	movq	8(%rax), %rax	# currdef_1->ref, D.11884
	movq	(%rax), %rax	# _35->reg, iftmp.27
.L27:
	.loc 1 235 0 discriminator 3
	movl	8(%rax), %eax	# iftmp.27_3->fld[0].rtuint, D.11887
	shrl	$6, %eax	#, D.11887
	movl	%eax, %edx	# D.11887, D.11887
	movq	ssa_edges(%rip), %rax	# ssa_edges, ssa_edges.28
	movl	%edx, %ecx	# D.11887, tmp124
	addq	$2, %rcx	#, tmp125
	movq	(%rax,%rcx,8), %rdi	# ssa_edges.28_39->elms, D.11883
	movq	-8(%rbp), %rax	# currdef, tmp126
	movq	8(%rax), %rax	# currdef_1->ref, D.11884
	movq	(%rax), %rax	# _41->reg, D.11885
	movzwl	(%rax), %eax	# _42->code, D.11886
	cmpw	$63, %ax	#, D.11886
	jne	.L28	#,
	.loc 1 235 0 discriminator 1
	movq	-8(%rbp), %rax	# currdef, tmp127
	movq	8(%rax), %rax	# currdef_1->ref, D.11884
	movq	(%rax), %rax	# _44->reg, D.11885
	movq	8(%rax), %rax	# _45->fld[0].rtx, iftmp.29
	jmp	.L29	#
.L28:
	.loc 1 235 0 discriminator 2
	movq	-8(%rbp), %rax	# currdef, tmp128
	movq	8(%rax), %rax	# currdef_1->ref, D.11884
	movq	(%rax), %rax	# _47->reg, iftmp.29
.L29:
	.loc 1 235 0 discriminator 3
	movl	8(%rax), %eax	# iftmp.29_4->fld[0].rtuint, D.11887
	andl	$63, %eax	#, D.11882
	movl	$1, %r8d	#, tmp129
	movl	%eax, %ecx	# D.11882, tmp139
	salq	%cl, %r8	# tmp139, D.11883
	movq	%r8, %rax	# D.11883, D.11883
	orq	%rax, %rdi	# D.11883, D.11883
	movq	%rdi, %rcx	# D.11883, D.11883
	movl	%edx, %eax	# D.11887, tmp130
	addq	$2, %rax	#, tmp131
	movq	%rcx, (%rsi,%rax,8)	# D.11883, ssa_edges.26_28->elms
.L25:
	.loc 1 236 0 is_stmt 1
	movq	values(%rip), %rdx	# values, values.30
	movq	-8(%rbp), %rax	# currdef, tmp132
	movq	8(%rax), %rax	# currdef_1->ref, D.11884
	movq	(%rax), %rax	# _55->reg, D.11885
	movzwl	(%rax), %eax	# _56->code, D.11886
	cmpw	$63, %ax	#, D.11886
	jne	.L30	#,
	.loc 1 236 0 is_stmt 0 discriminator 1
	movq	-8(%rbp), %rax	# currdef, tmp133
	movq	8(%rax), %rax	# currdef_1->ref, D.11884
	movq	(%rax), %rax	# _58->reg, D.11885
	movq	8(%rax), %rax	# _59->fld[0].rtx, iftmp.31
	jmp	.L31	#
.L30:
	.loc 1 236 0 discriminator 2
	movq	-8(%rbp), %rax	# currdef, tmp134
	movq	8(%rax), %rax	# currdef_1->ref, D.11884
	movq	(%rax), %rax	# _61->reg, iftmp.31
.L31:
	.loc 1 236 0 discriminator 3
	movl	8(%rax), %eax	# iftmp.31_5->fld[0].rtuint, D.11887
	movl	%eax, %eax	# D.11887, D.11883
	salq	$4, %rax	#, D.11883
	addq	%rdx, %rax	# values.30, D.11888
	movl	$2, (%rax)	#, _66->lattice_val
	.loc 1 232 0 is_stmt 1 discriminator 3
	movq	-8(%rbp), %rax	# currdef, tmp135
	movq	(%rax), %rax	# currdef_1->next, tmp136
	movq	%rax, -8(%rbp)	# tmp136, currdef
.L22:
	.loc 1 231 0 discriminator 1
	cmpq	$0, -8(%rbp)	#, currdef
	jne	.L32	#,
	.loc 1 238 0
	popq	%rbp	#
	.cfi_def_cfa 7, 8
	ret
	.cfi_endproc
.LFE4:
	.size	defs_to_varying, .-defs_to_varying
	.type	visit_expression, @function
visit_expression:
.LFB5:
	.loc 1 246 0
	.cfi_startproc
	pushq	%rbp	#
	.cfi_def_cfa_offset 16
	.cfi_offset 6, -16
	movq	%rsp, %rbp	#,
	.cfi_def_cfa_register 6
	pushq	%r12	#
	pushq	%rbx	#
	subq	$208, %rsp	#,
	.cfi_offset 12, -24
	.cfi_offset 3, -32
	movq	%rdi, -216(%rbp)	# insn, insn
	movq	%rsi, -224(%rbp)	# block, block
	.loc 1 255 0
	movq	-216(%rbp), %rax	# insn, tmp514
	movzwl	(%rax), %eax	# insn_19(D)->code, D.11890
	cmpw	$34, %ax	#, D.11890
	jne	.L34	#,
	.loc 1 255 0 is_stmt 0 discriminator 1
	movq	-224(%rbp), %rax	# block, tmp515
	movq	8(%rax), %rax	# block_21(D)->end, D.11891
	cmpq	-216(%rbp), %rax	# insn, D.11891
	jne	.L34	#,
.LBB3:
	.loc 1 259 0 is_stmt 1
	movq	-224(%rbp), %rax	# block, tmp516
	movq	40(%rax), %rax	# block_21(D)->succ, tmp517
	movq	%rax, -160(%rbp)	# tmp517, curredge
	jmp	.L35	#
.L38:
.LBB4:
	.loc 1 262 0
	movq	-160(%rbp), %rax	# curredge, tmp518
	movq	24(%rax), %rdx	# curredge_1->dest, D.11892
	movq	-160(%rbp), %rax	# curredge, tmp519
	movq	16(%rax), %rcx	# curredge_1->src, D.11892
	movq	edges(%rip), %rax	# edges, edges.32
	movq	%rcx, %rsi	# D.11892,
	movq	%rax, %rdi	# edges.32,
	call	find_edge_index	#
	movl	%eax, -200(%rbp)	# tmp520, index
	.loc 1 264 0
	movq	executable_edges(%rip), %rax	# executable_edges, executable_edges.33
	movl	-200(%rbp), %edx	# index, index.34
	shrl	$6, %edx	#, D.11893
	movl	%edx, %edx	# D.11893, tmp521
	addq	$2, %rdx	#, tmp522
	movq	(%rax,%rdx,8), %rdx	# executable_edges.33_28->elms, D.11894
	movl	-200(%rbp), %eax	# index, tmp523
	andl	$63, %eax	#, D.11895
	movl	%eax, %ecx	# D.11895, tmp786
	shrq	%cl, %rdx	# tmp786, D.11894
	movq	%rdx, %rax	# D.11894, D.11894
	andl	$1, %eax	#, D.11894
	testq	%rax, %rax	# D.11894
	je	.L36	#,
	.loc 1 265 0
	jmp	.L37	#
.L36:
	.loc 1 267 0
	movq	executable_edges(%rip), %rdx	# executable_edges, executable_edges.35
	movl	-200(%rbp), %eax	# index, index.36
	shrl	$6, %eax	#, D.11893
	movq	executable_edges(%rip), %rcx	# executable_edges, executable_edges.37
	movl	%eax, %esi	# D.11893, tmp524
	addq	$2, %rsi	#, tmp525
	movq	(%rcx,%rsi,8), %rsi	# executable_edges.37_38->elms, D.11894
	movl	-200(%rbp), %ecx	# index, tmp526
	andl	$63, %ecx	#, D.11895
	movl	$1, %edi	#, tmp527
	salq	%cl, %rdi	# D.11895, D.11894
	movq	%rdi, %rcx	# D.11894, D.11894
	orq	%rsi, %rcx	# D.11894, D.11894
	movl	%eax, %eax	# D.11893, tmp528
	addq	$2, %rax	#, tmp529
	movq	%rcx, (%rdx,%rax,8)	# D.11894, executable_edges.35_35->elms
	.loc 1 268 0
	movq	edge_info(%rip), %rax	# edge_info, edge_info.38
	movl	-200(%rbp), %edx	# index, tmp530
	movslq	%edx, %rdx	# tmp530, D.11894
	salq	$3, %rdx	#, D.11894
	addq	%rax, %rdx	# edge_info.38, D.11896
	movq	flow_edges(%rip), %rax	# flow_edges, flow_edges.39
	movq	%rax, (%rdx)	# flow_edges.39, *_46
	.loc 1 269 0
	movq	-160(%rbp), %rax	# curredge, tmp531
	movq	%rax, flow_edges(%rip)	# tmp531, flow_edges
.L37:
.LBE4:
	.loc 1 260 0
	movq	-160(%rbp), %rax	# curredge, tmp532
	movq	8(%rax), %rax	# curredge_1->succ_next, tmp533
	movq	%rax, -160(%rbp)	# tmp533, curredge
.L35:
	.loc 1 259 0 discriminator 1
	cmpq	$0, -160(%rbp)	#, curredge
	jne	.L38	#,
.L34:
.LBE3:
	.loc 1 273 0
	movq	-216(%rbp), %rax	# insn, tmp534
	movzwl	(%rax), %eax	# insn_19(D)->code, D.11890
	movzwl	%ax, %eax	# D.11890, D.11895
	cltq
	movzbl	rtx_class(%rax), %eax	# rtx_class, D.11897
	cmpb	$105, %al	#, D.11897
	jne	.L39	#,
	.loc 1 273 0 is_stmt 0 discriminator 1
	movq	-216(%rbp), %rax	# insn, tmp536
	movq	32(%rax), %rax	# insn_19(D)->fld[3].rtx, D.11891
	movzwl	(%rax), %eax	# _52->code, D.11890
	cmpw	$47, %ax	#, D.11890
	jne	.L40	#,
	.loc 1 273 0 discriminator 3
	movq	-216(%rbp), %rax	# insn, tmp537
	movq	32(%rax), %rax	# insn_19(D)->fld[3].rtx, iftmp.41
	jmp	.L42	#
.L40:
	.loc 1 273 0 discriminator 4
	movq	-216(%rbp), %rax	# insn, tmp538
	movq	32(%rax), %rdx	# insn_19(D)->fld[3].rtx, D.11891
	movq	-216(%rbp), %rax	# insn, tmp539
	movq	%rdx, %rsi	# D.11891,
	movq	%rax, %rdi	# tmp539,
	call	single_set_2	#
	jmp	.L42	#
.L39:
	.loc 1 273 0 discriminator 2
	movl	$0, %eax	#, iftmp.40
.L42:
	.loc 1 273 0 discriminator 5
	movq	%rax, -48(%rbp)	# iftmp.40, set
	.loc 1 274 0 is_stmt 1 discriminator 5
	cmpq	$0, -48(%rbp)	#, set
	jne	.L43	#,
	.loc 1 276 0
	movq	-216(%rbp), %rax	# insn, tmp540
	movq	%rax, %rdi	# tmp540,
	call	defs_to_varying	#
	.loc 1 277 0
	jmp	.L33	#
.L43:
	.loc 1 280 0
	movq	-48(%rbp), %rax	# set, tmp541
	movq	16(%rax), %rax	# set_59->fld[1].rtx, tmp542
	movq	%rax, -40(%rbp)	# tmp542, src
	.loc 1 281 0
	movq	-48(%rbp), %rax	# set, tmp543
	movq	8(%rax), %rax	# set_59->fld[0].rtx, tmp544
	movq	%rax, -32(%rbp)	# tmp544, dest
	.loc 1 284 0
	movq	-32(%rbp), %rax	# dest, tmp545
	movzwl	(%rax), %eax	# dest_61->code, D.11890
	cmpw	$61, %ax	#, D.11890
	je	.L45	#,
	.loc 1 284 0 is_stmt 0 discriminator 1
	movq	global_rtl(%rip), %rax	# global_rtl, D.11891
	cmpq	-32(%rbp), %rax	# dest, D.11891
	je	.L45	#,
	.loc 1 286 0 is_stmt 1
	movq	-216(%rbp), %rax	# insn, tmp546
	movq	%rax, %rdi	# tmp546,
	call	defs_to_varying	#
	.loc 1 287 0
	jmp	.L33	#
.L45:
	.loc 1 293 0
	movq	-32(%rbp), %rax	# dest, tmp547
	movzwl	(%rax), %eax	# dest_61->code, D.11890
	cmpw	$61, %ax	#, D.11890
	jne	.L46	#,
	.loc 1 293 0 is_stmt 0 discriminator 1
	movq	-32(%rbp), %rax	# dest, tmp548
	movl	8(%rax), %eax	# dest_61->fld[0].rtuint, D.11893
	cmpl	$52, %eax	#, D.11893
	ja	.L46	#,
	.loc 1 295 0 is_stmt 1
	movq	-216(%rbp), %rax	# insn, tmp549
	movq	%rax, %rdi	# tmp549,
	call	defs_to_varying	#
	.loc 1 296 0
	jmp	.L33	#
.L46:
	.loc 1 300 0
	movq	-40(%rbp), %rax	# src, tmp550
	movzwl	(%rax), %eax	# src_60->code, D.11890
	cmpw	$54, %ax	#, D.11890
	jne	.L47	#,
	.loc 1 300 0 is_stmt 0 discriminator 1
	movq	-216(%rbp), %rax	# insn, tmp551
	movzwl	(%rax), %eax	# insn_19(D)->code, D.11890
	cmpw	$32, %ax	#, D.11890
	jne	.L47	#,
.LBB5:
	.loc 1 302 0 is_stmt 1
	movq	-32(%rbp), %rax	# dest, tmp552
	movl	8(%rax), %eax	# dest_61->fld[0].rtuint, tmp553
	movl	%eax, -196(%rbp)	# tmp553, resultreg
	.loc 1 304 0
	movq	values(%rip), %rax	# values, values.42
	movl	-196(%rbp), %edx	# resultreg, D.11894
	salq	$4, %rdx	#, D.11894
	addq	%rdx, %rax	# D.11894, D.11898
	movl	$1, (%rax)	#, _72->lattice_val
	.loc 1 305 0
	movq	values(%rip), %rax	# values, values.43
	movl	-196(%rbp), %edx	# resultreg, D.11894
	salq	$4, %rdx	#, D.11894
	addq	%rax, %rdx	# values.43, D.11898
	movq	-216(%rbp), %rax	# insn, tmp554
	movq	32(%rax), %rax	# insn_19(D)->fld[3].rtx, D.11891
	movq	16(%rax), %rax	# _77->fld[1].rtx, D.11891
	movq	%rax, 8(%rdx)	# D.11891, _76->const_value
	.loc 1 306 0
	movq	ssa_edges(%rip), %rdx	# ssa_edges, ssa_edges.44
	movl	-196(%rbp), %eax	# resultreg, tmp555
	shrl	$6, %eax	#, D.11893
	movq	ssa_edges(%rip), %rcx	# ssa_edges, ssa_edges.45
	movl	%eax, %esi	# D.11893, tmp556
	addq	$2, %rsi	#, tmp557
	movq	(%rcx,%rsi,8), %rsi	# ssa_edges.45_81->elms, D.11894
	movl	-196(%rbp), %ecx	# resultreg, resultreg.46
	andl	$63, %ecx	#, D.11895
	movl	$1, %edi	#, tmp558
	salq	%cl, %rdi	# D.11895, D.11894
	movq	%rdi, %rcx	# D.11894, D.11894
	orq	%rsi, %rcx	# D.11894, D.11894
	movl	%eax, %eax	# D.11893, tmp559
	addq	$2, %rax	#, tmp560
	movq	%rcx, (%rdx,%rax,8)	# D.11894, ssa_edges.44_79->elms
.LBE5:
	.loc 1 301 0
	jmp	.L33	#
.L47:
	.loc 1 310 0
	movq	-40(%rbp), %rax	# src, tmp561
	movzwl	(%rax), %eax	# src_60->code, D.11890
	cmpw	$61, %ax	#, D.11890
	jne	.L48	#,
	.loc 1 310 0 is_stmt 0 discriminator 1
	movq	-32(%rbp), %rax	# dest, tmp562
	movzwl	(%rax), %eax	# dest_61->code, D.11890
	cmpw	$61, %ax	#, D.11890
	jne	.L48	#,
.LBB6:
	.loc 1 312 0 is_stmt 1
	movq	-40(%rbp), %rax	# src, tmp563
	movl	8(%rax), %eax	# src_60->fld[0].rtuint, tmp564
	movl	%eax, -192(%rbp)	# tmp564, old_value
	.loc 1 313 0
	movq	values(%rip), %rax	# values, values.47
	movl	-192(%rbp), %edx	# old_value, D.11894
	salq	$4, %rdx	#, D.11894
	addq	%rdx, %rax	# D.11894, D.11898
	movl	(%rax), %eax	# _93->lattice_val, tmp565
	movl	%eax, -188(%rbp)	# tmp565, old_lattice_value
	.loc 1 314 0
	movq	-32(%rbp), %rax	# dest, tmp566
	movl	8(%rax), %eax	# dest_61->fld[0].rtuint, tmp567
	movl	%eax, -184(%rbp)	# tmp567, new_value
	.loc 1 318 0
	movq	values(%rip), %rax	# values, values.48
	movl	-184(%rbp), %edx	# new_value, D.11894
	salq	$4, %rdx	#, D.11894
	addq	%rdx, %rax	# D.11894, D.11898
	movl	(%rax), %eax	# _99->lattice_val, D.11899
	cmpl	-188(%rbp), %eax	# old_lattice_value, D.11899
	jne	.L49	#,
	.loc 1 319 0
	movq	values(%rip), %rax	# values, values.49
	movl	-184(%rbp), %edx	# new_value, D.11894
	salq	$4, %rdx	#, D.11894
	addq	%rdx, %rax	# D.11894, D.11898
	movq	8(%rax), %rdx	# _104->const_value, D.11891
	movq	values(%rip), %rax	# values, values.50
	movl	-192(%rbp), %ecx	# old_value, D.11894
	salq	$4, %rcx	#, D.11894
	addq	%rcx, %rax	# D.11894, D.11898
	movq	8(%rax), %rax	# _109->const_value, D.11891
	cmpq	%rax, %rdx	# D.11891, D.11891
	je	.L50	#,
.L49:
	.loc 1 320 0
	movq	ssa_edges(%rip), %rdx	# ssa_edges, ssa_edges.51
	movl	-184(%rbp), %eax	# new_value, tmp568
	shrl	$6, %eax	#, D.11893
	movq	ssa_edges(%rip), %rcx	# ssa_edges, ssa_edges.52
	movl	%eax, %esi	# D.11893, tmp569
	addq	$2, %rsi	#, tmp570
	movq	(%rcx,%rsi,8), %rsi	# ssa_edges.52_113->elms, D.11894
	movl	-184(%rbp), %ecx	# new_value, new_value.53
	andl	$63, %ecx	#, D.11895
	movl	$1, %edi	#, tmp571
	salq	%cl, %rdi	# D.11895, D.11894
	movq	%rdi, %rcx	# D.11894, D.11894
	orq	%rsi, %rcx	# D.11894, D.11894
	movl	%eax, %eax	# D.11893, tmp572
	addq	$2, %rax	#, tmp573
	movq	%rcx, (%rdx,%rax,8)	# D.11894, ssa_edges.51_111->elms
.L50:
	.loc 1 323 0
	movq	values(%rip), %rax	# values, values.54
	movl	-184(%rbp), %edx	# new_value, D.11894
	salq	$4, %rdx	#, D.11894
	addq	%rax, %rdx	# values.54, D.11898
	movl	-188(%rbp), %eax	# old_lattice_value, tmp574
	movl	%eax, (%rdx)	# tmp574, _122->lattice_val
	.loc 1 324 0
	movq	values(%rip), %rax	# values, values.55
	movl	-184(%rbp), %edx	# new_value, D.11894
	salq	$4, %rdx	#, D.11894
	addq	%rax, %rdx	# values.55, D.11898
	movq	values(%rip), %rax	# values, values.56
	movl	-192(%rbp), %ecx	# old_value, D.11894
	salq	$4, %rcx	#, D.11894
	addq	%rcx, %rax	# D.11894, D.11898
	movq	8(%rax), %rax	# _130->const_value, D.11891
	movq	%rax, 8(%rdx)	# D.11891, _126->const_value
.LBE6:
	.loc 1 311 0
	jmp	.L33	#
.L48:
	.loc 1 328 0
	movq	-216(%rbp), %rax	# insn, tmp575
	movzwl	(%rax), %eax	# insn_19(D)->code, D.11890
	cmpw	$33, %ax	#, D.11890
	jne	.L51	#,
.LBB7:
	.loc 1 330 0
	movq	-216(%rbp), %rax	# insn, tmp576
	movq	%rax, %rdi	# tmp576,
	call	pc_set	#
	movq	%rax, -24(%rbp)	# tmp577, x
	.loc 1 331 0
	movq	-40(%rbp), %rax	# src, tmp578
	movzwl	(%rax), %eax	# src_60->code, D.11890
	cmpw	$72, %ax	#, D.11890
	je	.L52	#,
.LBB8:
	.loc 1 342 0
	movq	-224(%rbp), %rax	# block, tmp579
	movq	40(%rax), %rax	# block_21(D)->succ, tmp580
	movq	%rax, -152(%rbp)	# tmp580, curredge
	jmp	.L53	#
.L56:
.LBB9:
	.loc 1 345 0
	movq	-152(%rbp), %rax	# curredge, tmp581
	movq	24(%rax), %rdx	# curredge_2->dest, D.11892
	movq	-152(%rbp), %rax	# curredge, tmp582
	movq	16(%rax), %rcx	# curredge_2->src, D.11892
	movq	edges(%rip), %rax	# edges, edges.57
	movq	%rcx, %rsi	# D.11892,
	movq	%rax, %rdi	# edges.57,
	call	find_edge_index	#
	movl	%eax, -180(%rbp)	# tmp583, index
	.loc 1 347 0
	movq	executable_edges(%rip), %rax	# executable_edges, executable_edges.58
	movl	-180(%rbp), %edx	# index, index.59
	shrl	$6, %edx	#, D.11893
	movl	%edx, %edx	# D.11893, tmp584
	addq	$2, %rdx	#, tmp585
	movq	(%rax,%rdx,8), %rdx	# executable_edges.58_140->elms, D.11894
	movl	-180(%rbp), %eax	# index, tmp586
	andl	$63, %eax	#, D.11895
	movl	%eax, %ecx	# D.11895, tmp791
	shrq	%cl, %rdx	# tmp791, D.11894
	movq	%rdx, %rax	# D.11894, D.11894
	andl	$1, %eax	#, D.11894
	testq	%rax, %rax	# D.11894
	je	.L54	#,
	.loc 1 348 0
	jmp	.L55	#
.L54:
	.loc 1 350 0
	movq	executable_edges(%rip), %rdx	# executable_edges, executable_edges.60
	movl	-180(%rbp), %eax	# index, index.61
	shrl	$6, %eax	#, D.11893
	movq	executable_edges(%rip), %rcx	# executable_edges, executable_edges.62
	movl	%eax, %esi	# D.11893, tmp587
	addq	$2, %rsi	#, tmp588
	movq	(%rcx,%rsi,8), %rsi	# executable_edges.62_150->elms, D.11894
	movl	-180(%rbp), %ecx	# index, tmp589
	andl	$63, %ecx	#, D.11895
	movl	$1, %edi	#, tmp590
	salq	%cl, %rdi	# D.11895, D.11894
	movq	%rdi, %rcx	# D.11894, D.11894
	orq	%rsi, %rcx	# D.11894, D.11894
	movl	%eax, %eax	# D.11893, tmp591
	addq	$2, %rax	#, tmp592
	movq	%rcx, (%rdx,%rax,8)	# D.11894, executable_edges.60_147->elms
	.loc 1 351 0
	movq	edge_info(%rip), %rax	# edge_info, edge_info.63
	movl	-180(%rbp), %edx	# index, tmp593
	movslq	%edx, %rdx	# tmp593, D.11894
	salq	$3, %rdx	#, D.11894
	addq	%rax, %rdx	# edge_info.63, D.11896
	movq	flow_edges(%rip), %rax	# flow_edges, flow_edges.64
	movq	%rax, (%rdx)	# flow_edges.64, *_158
	.loc 1 352 0
	movq	-152(%rbp), %rax	# curredge, tmp594
	movq	%rax, flow_edges(%rip)	# tmp594, flow_edges
.L55:
.LBE9:
	.loc 1 343 0
	movq	-152(%rbp), %rax	# curredge, tmp595
	movq	8(%rax), %rax	# curredge_2->succ_next, tmp596
	movq	%rax, -152(%rbp)	# tmp596, curredge
.L53:
	.loc 1 342 0 discriminator 1
	cmpq	$0, -152(%rbp)	#, curredge
	jne	.L56	#,
.LBE8:
	jmp	.L57	#
.L52:
.LBB10:
	.loc 1 362 0
	movq	-40(%rbp), %rax	# src, tmp597
	movq	8(%rax), %rax	# src_60->fld[0].rtx, D.11891
	movzwl	(%rax), %eax	# _161->code, D.11890
	movzwl	%ax, %eax	# D.11890, tmp598
	movl	%eax, -176(%rbp)	# tmp598, comparison_code
	.loc 1 363 0
	movq	-40(%rbp), %rax	# src, tmp599
	movq	8(%rax), %rax	# src_60->fld[0].rtx, D.11891
	movq	8(%rax), %rax	# _164->fld[0].rtx, tmp600
	movq	%rax, -136(%rbp)	# tmp600, comparison_src0
	.loc 1 364 0
	movq	-40(%rbp), %rax	# src, tmp601
	movq	8(%rax), %rax	# src_60->fld[0].rtx, D.11891
	movq	16(%rax), %rax	# _166->fld[1].rtx, tmp602
	movq	%rax, -128(%rbp)	# tmp602, comparison_src1
	.loc 1 369 0
	movq	-136(%rbp), %rax	# comparison_src0, tmp603
	movzwl	(%rax), %eax	# comparison_src0_165->code, D.11890
	cmpw	$61, %ax	#, D.11890
	jne	.L58	#,
	.loc 1 370 0
	movq	values(%rip), %rdx	# values, values.65
	movq	-136(%rbp), %rax	# comparison_src0, tmp604
	movl	8(%rax), %eax	# comparison_src0_165->fld[0].rtuint, D.11893
	movl	%eax, %eax	# D.11893, D.11894
	salq	$4, %rax	#, D.11894
	addq	%rdx, %rax	# values.65, D.11898
	movl	(%rax), %eax	# _173->lattice_val, D.11899
	testl	%eax, %eax	# D.11899
	je	.L59	#,
.L58:
	.loc 1 371 0
	movq	-128(%rbp), %rax	# comparison_src1, tmp605
	movzwl	(%rax), %eax	# comparison_src1_167->code, D.11890
	cmpw	$61, %ax	#, D.11890
	jne	.L60	#,
	.loc 1 372 0
	movq	values(%rip), %rdx	# values, values.66
	movq	-128(%rbp), %rax	# comparison_src1, tmp606
	movl	8(%rax), %eax	# comparison_src1_167->fld[0].rtuint, D.11893
	movl	%eax, %eax	# D.11893, D.11894
	salq	$4, %rax	#, D.11894
	addq	%rdx, %rax	# values.66, D.11898
	movl	(%rax), %eax	# _180->lattice_val, D.11899
	testl	%eax, %eax	# D.11899
	jne	.L60	#,
.L59:
	.loc 1 373 0
	jmp	.L33	#
.L60:
	.loc 1 377 0
	movq	-136(%rbp), %rax	# comparison_src0, tmp607
	movzwl	(%rax), %eax	# comparison_src0_165->code, D.11890
	cmpw	$61, %ax	#, D.11890
	jne	.L61	#,
	.loc 1 378 0
	movq	values(%rip), %rdx	# values, values.67
	movq	-136(%rbp), %rax	# comparison_src0, tmp608
	movl	8(%rax), %eax	# comparison_src0_165->fld[0].rtuint, D.11893
	movl	%eax, %eax	# D.11893, D.11894
	salq	$4, %rax	#, D.11894
	addq	%rdx, %rax	# values.67, D.11898
	movl	(%rax), %eax	# _187->lattice_val, D.11899
	cmpl	$2, %eax	#, D.11899
	je	.L62	#,
.L61:
	.loc 1 379 0
	movq	-128(%rbp), %rax	# comparison_src1, tmp609
	movzwl	(%rax), %eax	# comparison_src1_167->code, D.11890
	cmpw	$61, %ax	#, D.11890
	jne	.L63	#,
	.loc 1 380 0
	movq	values(%rip), %rdx	# values, values.68
	movq	-128(%rbp), %rax	# comparison_src1, tmp610
	movl	8(%rax), %eax	# comparison_src1_167->fld[0].rtuint, D.11893
	movl	%eax, %eax	# D.11893, D.11894
	salq	$4, %rax	#, D.11894
	addq	%rdx, %rax	# values.68, D.11898
	movl	(%rax), %eax	# _194->lattice_val, D.11899
	cmpl	$2, %eax	#, D.11899
	jne	.L63	#,
.L62:
	.loc 1 382 0
	movq	-224(%rbp), %rax	# block, tmp611
	movq	40(%rax), %rax	# block_21(D)->succ, tmp612
	movq	%rax, -144(%rbp)	# tmp612, curredge
	jmp	.L64	#
.L67:
.LBB11:
	.loc 1 385 0
	movq	-144(%rbp), %rax	# curredge, tmp613
	movq	24(%rax), %rdx	# curredge_3->dest, D.11892
	movq	-144(%rbp), %rax	# curredge, tmp614
	movq	16(%rax), %rcx	# curredge_3->src, D.11892
	movq	edges(%rip), %rax	# edges, edges.69
	movq	%rcx, %rsi	# D.11892,
	movq	%rax, %rdi	# edges.69,
	call	find_edge_index	#
	movl	%eax, -168(%rbp)	# tmp615, index
	.loc 1 387 0
	movq	executable_edges(%rip), %rax	# executable_edges, executable_edges.70
	movl	-168(%rbp), %edx	# index, index.71
	shrl	$6, %edx	#, D.11893
	movl	%edx, %edx	# D.11893, tmp616
	addq	$2, %rdx	#, tmp617
	movq	(%rax,%rdx,8), %rdx	# executable_edges.70_269->elms, D.11894
	movl	-168(%rbp), %eax	# index, tmp618
	andl	$63, %eax	#, D.11895
	movl	%eax, %ecx	# D.11895, tmp794
	shrq	%cl, %rdx	# tmp794, D.11894
	movq	%rdx, %rax	# D.11894, D.11894
	andl	$1, %eax	#, D.11894
	testq	%rax, %rax	# D.11894
	je	.L65	#,
	.loc 1 388 0
	jmp	.L66	#
.L65:
	.loc 1 390 0
	movq	executable_edges(%rip), %rdx	# executable_edges, executable_edges.72
	movl	-168(%rbp), %eax	# index, index.73
	shrl	$6, %eax	#, D.11893
	movq	executable_edges(%rip), %rcx	# executable_edges, executable_edges.74
	movl	%eax, %esi	# D.11893, tmp619
	addq	$2, %rsi	#, tmp620
	movq	(%rcx,%rsi,8), %rsi	# executable_edges.74_279->elms, D.11894
	movl	-168(%rbp), %ecx	# index, tmp621
	andl	$63, %ecx	#, D.11895
	movl	$1, %edi	#, tmp622
	salq	%cl, %rdi	# D.11895, D.11894
	movq	%rdi, %rcx	# D.11894, D.11894
	orq	%rsi, %rcx	# D.11894, D.11894
	movl	%eax, %eax	# D.11893, tmp623
	addq	$2, %rax	#, tmp624
	movq	%rcx, (%rdx,%rax,8)	# D.11894, executable_edges.72_276->elms
	.loc 1 391 0
	movq	edge_info(%rip), %rax	# edge_info, edge_info.75
	movl	-168(%rbp), %edx	# index, tmp625
	movslq	%edx, %rdx	# tmp625, D.11894
	salq	$3, %rdx	#, D.11894
	addq	%rax, %rdx	# edge_info.75, D.11896
	movq	flow_edges(%rip), %rax	# flow_edges, flow_edges.76
	movq	%rax, (%rdx)	# flow_edges.76, *_287
	.loc 1 392 0
	movq	-144(%rbp), %rax	# curredge, tmp626
	movq	%rax, flow_edges(%rip)	# tmp626, flow_edges
.L66:
.LBE11:
	.loc 1 383 0
	movq	-144(%rbp), %rax	# curredge, tmp627
	movq	8(%rax), %rax	# curredge_3->succ_next, tmp628
	movq	%rax, -144(%rbp)	# tmp628, curredge
.L64:
	.loc 1 382 0 discriminator 1
	cmpq	$0, -144(%rbp)	#, curredge
	jne	.L67	#,
	.loc 1 394 0
	jmp	.L33	#
.L63:
	.loc 1 398 0
	movq	-136(%rbp), %rax	# comparison_src0, tmp629
	movzwl	(%rax), %eax	# comparison_src0_165->code, D.11890
	cmpw	$61, %ax	#, D.11890
	jne	.L68	#,
	.loc 1 399 0
	movq	values(%rip), %rdx	# values, values.77
	movq	-136(%rbp), %rax	# comparison_src0, tmp630
	movl	8(%rax), %eax	# comparison_src0_165->fld[0].rtuint, D.11893
	movl	%eax, %eax	# D.11893, D.11894
	salq	$4, %rax	#, D.11894
	addq	%rdx, %rax	# values.77, D.11898
	movl	(%rax), %eax	# _201->lattice_val, D.11899
	cmpl	$1, %eax	#, D.11899
	jne	.L68	#,
	.loc 1 400 0
	movq	values(%rip), %rdx	# values, values.78
	movq	-136(%rbp), %rax	# comparison_src0, tmp631
	movl	8(%rax), %eax	# comparison_src0_165->fld[0].rtuint, D.11893
	movl	%eax, %eax	# D.11893, D.11894
	salq	$4, %rax	#, D.11894
	addq	%rdx, %rax	# values.78, D.11898
	movq	8(%rax), %rax	# _207->const_value, tmp632
	movq	%rax, -136(%rbp)	# tmp632, comparison_src0
.L68:
	.loc 1 402 0
	movq	-128(%rbp), %rax	# comparison_src1, tmp633
	movzwl	(%rax), %eax	# comparison_src1_167->code, D.11890
	cmpw	$61, %ax	#, D.11890
	jne	.L69	#,
	.loc 1 403 0
	movq	values(%rip), %rdx	# values, values.79
	movq	-128(%rbp), %rax	# comparison_src1, tmp634
	movl	8(%rax), %eax	# comparison_src1_167->fld[0].rtuint, D.11893
	movl	%eax, %eax	# D.11893, D.11894
	salq	$4, %rax	#, D.11894
	addq	%rdx, %rax	# values.79, D.11898
	movl	(%rax), %eax	# _214->lattice_val, D.11899
	cmpl	$1, %eax	#, D.11899
	jne	.L69	#,
	.loc 1 404 0
	movq	values(%rip), %rdx	# values, values.80
	movq	-128(%rbp), %rax	# comparison_src1, tmp635
	movl	8(%rax), %eax	# comparison_src1_167->fld[0].rtuint, D.11893
	movl	%eax, %eax	# D.11893, D.11894
	salq	$4, %rax	#, D.11894
	addq	%rdx, %rax	# values.80, D.11898
	movq	8(%rax), %rax	# _220->const_value, tmp636
	movq	%rax, -128(%rbp)	# tmp636, comparison_src1
.L69:
	.loc 1 406 0
	movq	-40(%rbp), %rax	# src, tmp637
	movq	24(%rax), %r12	# src_60->fld[2].rtx, D.11891
	movq	-40(%rbp), %rax	# src, tmp638
	movq	16(%rax), %rbx	# src_60->fld[1].rtx, D.11891
	.loc 1 410 0
	movq	-40(%rbp), %rax	# src, tmp639
	movq	8(%rax), %rax	# src_60->fld[0].rtx, D.11891
	movzbl	2(%rax), %eax	# _224->mode, D.11900
	.loc 1 406 0
	movzbl	%al, %esi	# D.11900, D.11901
	movq	-128(%rbp), %rcx	# comparison_src1, tmp640
	movq	-136(%rbp), %rdx	# comparison_src0, tmp641
	movl	-176(%rbp), %eax	# comparison_code, tmp642
	movl	%eax, %edi	# tmp642,
	movl	$0, %eax	#,
	call	gen_rtx	#
	movq	%rax, %rdx	#, D.11891
	.loc 1 408 0
	movq	-40(%rbp), %rax	# src, tmp643
	movq	8(%rax), %rax	# src_60->fld[0].rtx, D.11891
	movzbl	2(%rax), %eax	# _228->mode, D.11900
	.loc 1 406 0
	movzbl	%al, %eax	# D.11900, D.11901
	movq	%r12, %r9	# D.11891,
	movq	%rbx, %r8	# D.11891,
	movq	%rdx, %rcx	# D.11891,
	movl	%eax, %edx	# D.11901,
	movl	$0, %esi	#,
	movl	$72, %edi	#,
	call	simplify_ternary_operation	#
	movq	%rax, -24(%rbp)	# tmp644, x
	.loc 1 418 0
	movq	-224(%rbp), %rax	# block, tmp645
	movq	40(%rax), %rax	# block_21(D)->succ, tmp646
	movq	%rax, -144(%rbp)	# tmp646, curredge
	jmp	.L70	#
.L75:
.LBB12:
	.loc 1 421 0
	movq	-144(%rbp), %rax	# curredge, tmp647
	movq	24(%rax), %rdx	# curredge_4->dest, D.11892
	movq	-144(%rbp), %rax	# curredge, tmp648
	movq	16(%rax), %rcx	# curredge_4->src, D.11892
	movq	edges(%rip), %rax	# edges, edges.81
	movq	%rcx, %rsi	# D.11892,
	movq	%rax, %rdi	# edges.81,
	call	find_edge_index	#
	movl	%eax, -172(%rbp)	# tmp649, index
	.loc 1 423 0
	movq	executable_edges(%rip), %rax	# executable_edges, executable_edges.82
	movl	-172(%rbp), %edx	# index, index.83
	shrl	$6, %edx	#, D.11893
	movl	%edx, %edx	# D.11893, tmp650
	addq	$2, %rdx	#, tmp651
	movq	(%rax,%rdx,8), %rdx	# executable_edges.82_237->elms, D.11894
	movl	-172(%rbp), %eax	# index, tmp652
	andl	$63, %eax	#, D.11895
	movl	%eax, %ecx	# D.11895, tmp797
	shrq	%cl, %rdx	# tmp797, D.11894
	movq	%rdx, %rax	# D.11894, D.11894
	andl	$1, %eax	#, D.11894
	testq	%rax, %rax	# D.11894
	je	.L71	#,
	.loc 1 424 0
	jmp	.L72	#
.L71:
	.loc 1 436 0
	cmpq	$0, -24(%rbp)	#, x
	je	.L73	#,
	.loc 1 437 0
	movq	global_rtl(%rip), %rax	# global_rtl, D.11891
	cmpq	-24(%rbp), %rax	# x, D.11891
	jne	.L74	#,
	.loc 1 438 0
	movq	-144(%rbp), %rax	# curredge, tmp653
	movl	48(%rax), %eax	# curredge_4->flags, D.11895
	andl	$1, %eax	#, D.11895
	testl	%eax, %eax	# D.11895
	jne	.L73	#,
.L74:
	.loc 1 439 0
	movq	-24(%rbp), %rax	# x, tmp654
	movzwl	(%rax), %eax	# x_231->code, D.11890
	cmpw	$67, %ax	#, D.11890
	jne	.L72	#,
	.loc 1 440 0
	movq	-144(%rbp), %rax	# curredge, tmp655
	movl	48(%rax), %eax	# curredge_4->flags, D.11895
	andl	$1, %eax	#, D.11895
	testl	%eax, %eax	# D.11895
	jne	.L72	#,
.L73:
	.loc 1 442 0
	movq	executable_edges(%rip), %rdx	# executable_edges, executable_edges.84
	movl	-172(%rbp), %eax	# index, index.85
	shrl	$6, %eax	#, D.11893
	movq	executable_edges(%rip), %rcx	# executable_edges, executable_edges.86
	movl	%eax, %esi	# D.11893, tmp656
	addq	$2, %rsi	#, tmp657
	movq	(%rcx,%rsi,8), %rsi	# executable_edges.86_253->elms, D.11894
	movl	-172(%rbp), %ecx	# index, tmp658
	andl	$63, %ecx	#, D.11895
	movl	$1, %edi	#, tmp659
	salq	%cl, %rdi	# D.11895, D.11894
	movq	%rdi, %rcx	# D.11894, D.11894
	orq	%rsi, %rcx	# D.11894, D.11894
	movl	%eax, %eax	# D.11893, tmp660
	addq	$2, %rax	#, tmp661
	movq	%rcx, (%rdx,%rax,8)	# D.11894, executable_edges.84_250->elms
	.loc 1 443 0
	movq	edge_info(%rip), %rax	# edge_info, edge_info.87
	movl	-172(%rbp), %edx	# index, tmp662
	movslq	%edx, %rdx	# tmp662, D.11894
	salq	$3, %rdx	#, D.11894
	addq	%rax, %rdx	# edge_info.87, D.11896
	movq	flow_edges(%rip), %rax	# flow_edges, flow_edges.88
	movq	%rax, (%rdx)	# flow_edges.88, *_261
	.loc 1 444 0
	movq	-144(%rbp), %rax	# curredge, tmp663
	movq	%rax, flow_edges(%rip)	# tmp663, flow_edges
.L72:
.LBE12:
	.loc 1 419 0
	movq	-144(%rbp), %rax	# curredge, tmp664
	movq	8(%rax), %rax	# curredge_4->succ_next, tmp665
	movq	%rax, -144(%rbp)	# tmp665, curredge
.L70:
	.loc 1 418 0 discriminator 1
	cmpq	$0, -144(%rbp)	#, curredge
	jne	.L75	#,
.L57:
.LBE10:
.LBE7:
	jmp	.L33	#
.L51:
	.loc 1 449 0
	cmpq	$0, -216(%rbp)	#, insn
	je	.L76	#,
	.loc 1 449 0 is_stmt 0 discriminator 1
	movq	-216(%rbp), %rax	# insn, tmp666
	movzwl	(%rax), %eax	# insn_19(D)->code, D.11890
	cmpw	$32, %ax	#, D.11890
	jne	.L76	#,
	movq	-216(%rbp), %rax	# insn, tmp667
	movq	32(%rax), %rax	# insn_19(D)->fld[3].rtx, D.11891
	movzwl	(%rax), %eax	# _291->code, D.11890
	cmpw	$47, %ax	#, D.11890
	jne	.L76	#,
	movq	-216(%rbp), %rax	# insn, tmp668
	movq	32(%rax), %rax	# insn_19(D)->fld[3].rtx, D.11891
	movq	16(%rax), %rax	# _293->fld[1].rtx, D.11891
	movzwl	(%rax), %eax	# _294->code, D.11890
	cmpw	$152, %ax	#, D.11890
	je	.L33	#,
.L76:
.LBB13:
	.loc 1 451 0 is_stmt 1
	movq	$0, -120(%rbp)	#, simplified
	.loc 1 460 0
	movq	-40(%rbp), %rax	# src, tmp669
	movzwl	(%rax), %eax	# src_60->code, D.11890
	movzwl	%ax, %eax	# D.11890, D.11895
	cltq
	movzbl	rtx_class(%rax), %eax	# rtx_class, D.11897
	movsbl	%al, %eax	# D.11897, D.11895
	subl	$49, %eax	#, tmp671
	cmpl	$50, %eax	#, tmp671
	ja	.L77	#,
	movl	%eax, %eax	# tmp671, tmp672
	movq	.L79(,%rax,8), %rax	#, tmp673
	jmp	*%rax	# tmp673
	.section	.rodata
	.align 8
	.align 4
.L79:
	.quad	.L78
	.quad	.L80
	.quad	.L81
	.quad	.L77
	.quad	.L77
	.quad	.L77
	.quad	.L77
	.quad	.L77
	.quad	.L77
	.quad	.L77
	.quad	.L77
	.quad	.L82
	.quad	.L77
	.quad	.L77
	.quad	.L77
	.quad	.L77
	.quad	.L77
	.quad	.L77
	.quad	.L77
	.quad	.L77
	.quad	.L77
	.quad	.L77
	.quad	.L77
	.quad	.L77
	.quad	.L77
	.quad	.L77
	.quad	.L77
	.quad	.L77
	.quad	.L77
	.quad	.L77
	.quad	.L77
	.quad	.L77
	.quad	.L77
	.quad	.L77
	.quad	.L77
	.quad	.L77
	.quad	.L77
	.quad	.L77
	.quad	.L77
	.quad	.L77
	.quad	.L77
	.quad	.L77
	.quad	.L77
	.quad	.L77
	.quad	.L77
	.quad	.L77
	.quad	.L77
	.quad	.L77
	.quad	.L77
	.quad	.L81
	.quad	.L80
	.text
.L82:
.LBB14:
	.loc 1 464 0
	movq	-40(%rbp), %rax	# src, tmp674
	movq	8(%rax), %rax	# src_60->fld[0].rtx, tmp675
	movq	%rax, -112(%rbp)	# tmp675, src0
	.loc 1 465 0
	movq	-40(%rbp), %rax	# src, tmp676
	movq	16(%rax), %rax	# src_60->fld[1].rtx, tmp677
	movq	%rax, -104(%rbp)	# tmp677, src1
	.loc 1 469 0
	movq	-112(%rbp), %rax	# src0, tmp678
	movzwl	(%rax), %eax	# src0_301->code, D.11890
	cmpw	$61, %ax	#, D.11890
	jne	.L83	#,
	.loc 1 470 0
	movq	values(%rip), %rdx	# values, values.89
	movq	-112(%rbp), %rax	# src0, tmp679
	movl	8(%rax), %eax	# src0_301->fld[0].rtuint, D.11893
	movl	%eax, %eax	# D.11893, D.11894
	salq	$4, %rax	#, D.11894
	addq	%rdx, %rax	# values.89, D.11898
	movl	(%rax), %eax	# _308->lattice_val, D.11899
	testl	%eax, %eax	# D.11899
	je	.L84	#,
.L83:
	.loc 1 471 0
	movq	-104(%rbp), %rax	# src1, tmp680
	movzwl	(%rax), %eax	# src1_302->code, D.11890
	cmpw	$61, %ax	#, D.11890
	jne	.L85	#,
	.loc 1 472 0
	movq	values(%rip), %rdx	# values, values.90
	movq	-104(%rbp), %rax	# src1, tmp681
	movl	8(%rax), %eax	# src1_302->fld[0].rtuint, D.11893
	movl	%eax, %eax	# D.11893, D.11894
	salq	$4, %rax	#, D.11894
	addq	%rdx, %rax	# values.90, D.11898
	movl	(%rax), %eax	# _315->lattice_val, D.11899
	testl	%eax, %eax	# D.11899
	jne	.L85	#,
.L84:
	.loc 1 474 0
	movq	-216(%rbp), %rax	# insn, tmp682
	movq	%rax, %rdi	# tmp682,
	call	defs_to_undefined	#
	.loc 1 475 0
	jmp	.L86	#
.L85:
	.loc 1 480 0
	movq	-112(%rbp), %rax	# src0, tmp683
	movzbl	2(%rax), %eax	# src0_301->mode, D.11900
	movzbl	%al, %eax	# D.11900, tmp684
	movl	%eax, -204(%rbp)	# tmp684, mode
	.loc 1 481 0
	cmpl	$0, -204(%rbp)	#, mode
	jne	.L87	#,
	.loc 1 482 0
	movq	-104(%rbp), %rax	# src1, tmp685
	movzbl	2(%rax), %eax	# src1_302->mode, D.11900
	movzbl	%al, %eax	# D.11900, tmp686
	movl	%eax, -204(%rbp)	# tmp686, mode
.L87:
	.loc 1 486 0
	movq	-112(%rbp), %rax	# src0, tmp687
	movzwl	(%rax), %eax	# src0_301->code, D.11890
	cmpw	$61, %ax	#, D.11890
	jne	.L88	#,
	.loc 1 487 0
	movq	values(%rip), %rdx	# values, values.91
	movq	-112(%rbp), %rax	# src0, tmp688
	movl	8(%rax), %eax	# src0_301->fld[0].rtuint, D.11893
	movl	%eax, %eax	# D.11893, D.11894
	salq	$4, %rax	#, D.11894
	addq	%rdx, %rax	# values.91, D.11898
	movl	(%rax), %eax	# _326->lattice_val, D.11899
	cmpl	$1, %eax	#, D.11899
	jne	.L88	#,
	.loc 1 488 0
	movq	values(%rip), %rdx	# values, values.92
	movq	-112(%rbp), %rax	# src0, tmp689
	movl	8(%rax), %eax	# src0_301->fld[0].rtuint, D.11893
	movl	%eax, %eax	# D.11893, D.11894
	salq	$4, %rax	#, D.11894
	addq	%rdx, %rax	# values.92, D.11898
	movq	8(%rax), %rax	# _332->const_value, tmp690
	movq	%rax, -112(%rbp)	# tmp690, src0
.L88:
	.loc 1 490 0
	movq	-104(%rbp), %rax	# src1, tmp691
	movzwl	(%rax), %eax	# src1_302->code, D.11890
	cmpw	$61, %ax	#, D.11890
	jne	.L89	#,
	.loc 1 491 0
	movq	values(%rip), %rdx	# values, values.93
	movq	-104(%rbp), %rax	# src1, tmp692
	movl	8(%rax), %eax	# src1_302->fld[0].rtuint, D.11893
	movl	%eax, %eax	# D.11893, D.11894
	salq	$4, %rax	#, D.11894
	addq	%rdx, %rax	# values.93, D.11898
	movl	(%rax), %eax	# _339->lattice_val, D.11899
	cmpl	$1, %eax	#, D.11899
	jne	.L89	#,
	.loc 1 492 0
	movq	values(%rip), %rdx	# values, values.94
	movq	-104(%rbp), %rax	# src1, tmp693
	movl	8(%rax), %eax	# src1_302->fld[0].rtuint, D.11893
	movl	%eax, %eax	# D.11893, D.11894
	salq	$4, %rax	#, D.11894
	addq	%rdx, %rax	# values.94, D.11898
	movq	8(%rax), %rax	# _345->const_value, tmp694
	movq	%rax, -104(%rbp)	# tmp694, src1
.L89:
	.loc 1 496 0
	movq	-40(%rbp), %rax	# src, tmp695
	movzwl	(%rax), %eax	# src_60->code, D.11890
	movzwl	%ax, %eax	# D.11890, D.11902
	movq	-104(%rbp), %rcx	# src1, tmp696
	movq	-112(%rbp), %rdx	# src0, tmp697
	movl	-204(%rbp), %esi	# mode, tmp698
	movl	%eax, %edi	# D.11902,
	call	simplify_relational_operation	#
	movq	%rax, -120(%rbp)	# tmp699, simplified
	.loc 1 498 0
	jmp	.L86	#
.L78:
.LBE14:
.LBB15:
	.loc 1 504 0
	movq	-40(%rbp), %rax	# src, tmp700
	movq	8(%rax), %rax	# src_60->fld[0].rtx, tmp701
	movq	%rax, -96(%rbp)	# tmp701, src0
	.loc 1 505 0
	movq	-96(%rbp), %rax	# src0, tmp702
	movzbl	2(%rax), %eax	# src0_350->mode, D.11900
	movzbl	%al, %eax	# D.11900, tmp703
	movl	%eax, -164(%rbp)	# tmp703, mode0
	.loc 1 508 0
	movq	-96(%rbp), %rax	# src0, tmp704
	movzwl	(%rax), %eax	# src0_350->code, D.11890
	cmpw	$61, %ax	#, D.11890
	jne	.L90	#,
	.loc 1 509 0
	movq	values(%rip), %rdx	# values, values.95
	movq	-96(%rbp), %rax	# src0, tmp705
	movl	8(%rax), %eax	# src0_350->fld[0].rtuint, D.11893
	movl	%eax, %eax	# D.11893, D.11894
	salq	$4, %rax	#, D.11894
	addq	%rdx, %rax	# values.95, D.11898
	movl	(%rax), %eax	# _358->lattice_val, D.11899
	testl	%eax, %eax	# D.11899
	jne	.L90	#,
	.loc 1 511 0
	movq	-216(%rbp), %rax	# insn, tmp706
	movq	%rax, %rdi	# tmp706,
	call	defs_to_undefined	#
	.loc 1 512 0
	jmp	.L86	#
.L90:
	.loc 1 517 0
	movq	-96(%rbp), %rax	# src0, tmp707
	movzwl	(%rax), %eax	# src0_350->code, D.11890
	cmpw	$61, %ax	#, D.11890
	jne	.L91	#,
	.loc 1 518 0
	movq	values(%rip), %rdx	# values, values.96
	movq	-96(%rbp), %rax	# src0, tmp708
	movl	8(%rax), %eax	# src0_350->fld[0].rtuint, D.11893
	movl	%eax, %eax	# D.11893, D.11894
	salq	$4, %rax	#, D.11894
	addq	%rdx, %rax	# values.96, D.11898
	movl	(%rax), %eax	# _365->lattice_val, D.11899
	cmpl	$1, %eax	#, D.11899
	jne	.L91	#,
	.loc 1 519 0
	movq	values(%rip), %rdx	# values, values.97
	movq	-96(%rbp), %rax	# src0, tmp709
	movl	8(%rax), %eax	# src0_350->fld[0].rtuint, D.11893
	movl	%eax, %eax	# D.11893, D.11894
	salq	$4, %rax	#, D.11894
	addq	%rdx, %rax	# values.97, D.11898
	movq	8(%rax), %rax	# _371->const_value, tmp710
	movq	%rax, -96(%rbp)	# tmp710, src0
.L91:
	.loc 1 524 0
	movq	-40(%rbp), %rax	# src, tmp711
	movzbl	2(%rax), %eax	# src_60->mode, D.11900
	.loc 1 523 0
	movzbl	%al, %esi	# D.11900, D.11901
	movq	-40(%rbp), %rax	# src, tmp712
	movzwl	(%rax), %eax	# src_60->code, D.11890
	movzwl	%ax, %eax	# D.11890, D.11902
	movl	-164(%rbp), %ecx	# mode0, tmp713
	movq	-96(%rbp), %rdx	# src0, tmp714
	movl	%eax, %edi	# D.11902,
	call	simplify_unary_operation	#
	movq	%rax, -120(%rbp)	# tmp715, simplified
	.loc 1 527 0
	jmp	.L86	#
.L80:
.LBE15:
.LBB16:
	.loc 1 533 0
	movq	-40(%rbp), %rax	# src, tmp716
	movq	8(%rax), %rax	# src_60->fld[0].rtx, tmp717
	movq	%rax, -88(%rbp)	# tmp717, src0
	.loc 1 534 0
	movq	-40(%rbp), %rax	# src, tmp718
	movq	16(%rax), %rax	# src_60->fld[1].rtx, tmp719
	movq	%rax, -80(%rbp)	# tmp719, src1
	.loc 1 537 0
	movq	-88(%rbp), %rax	# src0, tmp720
	movzwl	(%rax), %eax	# src0_378->code, D.11890
	cmpw	$61, %ax	#, D.11890
	jne	.L92	#,
	.loc 1 538 0
	movq	values(%rip), %rdx	# values, values.98
	movq	-88(%rbp), %rax	# src0, tmp721
	movl	8(%rax), %eax	# src0_378->fld[0].rtuint, D.11893
	movl	%eax, %eax	# D.11893, D.11894
	salq	$4, %rax	#, D.11894
	addq	%rdx, %rax	# values.98, D.11898
	movl	(%rax), %eax	# _385->lattice_val, D.11899
	testl	%eax, %eax	# D.11899
	je	.L93	#,
.L92:
	.loc 1 539 0
	movq	-80(%rbp), %rax	# src1, tmp722
	movzwl	(%rax), %eax	# src1_379->code, D.11890
	cmpw	$61, %ax	#, D.11890
	jne	.L94	#,
	.loc 1 540 0
	movq	values(%rip), %rdx	# values, values.99
	movq	-80(%rbp), %rax	# src1, tmp723
	movl	8(%rax), %eax	# src1_379->fld[0].rtuint, D.11893
	movl	%eax, %eax	# D.11893, D.11894
	salq	$4, %rax	#, D.11894
	addq	%rdx, %rax	# values.99, D.11898
	movl	(%rax), %eax	# _392->lattice_val, D.11899
	testl	%eax, %eax	# D.11899
	jne	.L94	#,
.L93:
	.loc 1 542 0
	movq	-216(%rbp), %rax	# insn, tmp724
	movq	%rax, %rdi	# tmp724,
	call	defs_to_undefined	#
	.loc 1 543 0
	jmp	.L86	#
.L94:
	.loc 1 548 0
	movq	-88(%rbp), %rax	# src0, tmp725
	movzwl	(%rax), %eax	# src0_378->code, D.11890
	cmpw	$61, %ax	#, D.11890
	jne	.L95	#,
	.loc 1 549 0
	movq	values(%rip), %rdx	# values, values.100
	movq	-88(%rbp), %rax	# src0, tmp726
	movl	8(%rax), %eax	# src0_378->fld[0].rtuint, D.11893
	movl	%eax, %eax	# D.11893, D.11894
	salq	$4, %rax	#, D.11894
	addq	%rdx, %rax	# values.100, D.11898
	movl	(%rax), %eax	# _399->lattice_val, D.11899
	cmpl	$1, %eax	#, D.11899
	jne	.L95	#,
	.loc 1 550 0
	movq	values(%rip), %rdx	# values, values.101
	movq	-88(%rbp), %rax	# src0, tmp727
	movl	8(%rax), %eax	# src0_378->fld[0].rtuint, D.11893
	movl	%eax, %eax	# D.11893, D.11894
	salq	$4, %rax	#, D.11894
	addq	%rdx, %rax	# values.101, D.11898
	movq	8(%rax), %rax	# _405->const_value, tmp728
	movq	%rax, -88(%rbp)	# tmp728, src0
.L95:
	.loc 1 552 0
	movq	-80(%rbp), %rax	# src1, tmp729
	movzwl	(%rax), %eax	# src1_379->code, D.11890
	cmpw	$61, %ax	#, D.11890
	jne	.L96	#,
	.loc 1 553 0
	movq	values(%rip), %rdx	# values, values.102
	movq	-80(%rbp), %rax	# src1, tmp730
	movl	8(%rax), %eax	# src1_379->fld[0].rtuint, D.11893
	movl	%eax, %eax	# D.11893, D.11894
	salq	$4, %rax	#, D.11894
	addq	%rdx, %rax	# values.102, D.11898
	movl	(%rax), %eax	# _412->lattice_val, D.11899
	cmpl	$1, %eax	#, D.11899
	jne	.L96	#,
	.loc 1 554 0
	movq	values(%rip), %rdx	# values, values.103
	movq	-80(%rbp), %rax	# src1, tmp731
	movl	8(%rax), %eax	# src1_379->fld[0].rtuint, D.11893
	movl	%eax, %eax	# D.11893, D.11894
	salq	$4, %rax	#, D.11894
	addq	%rdx, %rax	# values.103, D.11898
	movq	8(%rax), %rax	# _418->const_value, tmp732
	movq	%rax, -80(%rbp)	# tmp732, src1
.L96:
	.loc 1 559 0
	movq	-40(%rbp), %rax	# src, tmp733
	movzbl	2(%rax), %eax	# src_60->mode, D.11900
	.loc 1 558 0
	movzbl	%al, %esi	# D.11900, D.11901
	movq	-40(%rbp), %rax	# src, tmp734
	movzwl	(%rax), %eax	# src_60->code, D.11890
	movzwl	%ax, %eax	# D.11890, D.11902
	movq	-80(%rbp), %rcx	# src1, tmp735
	movq	-88(%rbp), %rdx	# src0, tmp736
	movl	%eax, %edi	# D.11902,
	call	simplify_binary_operation	#
	movq	%rax, -120(%rbp)	# tmp737, simplified
	.loc 1 561 0
	jmp	.L86	#
.L81:
.LBE16:
.LBB17:
	.loc 1 567 0
	movq	-40(%rbp), %rax	# src, tmp738
	movq	8(%rax), %rax	# src_60->fld[0].rtx, tmp739
	movq	%rax, -72(%rbp)	# tmp739, src0
	.loc 1 568 0
	movq	-40(%rbp), %rax	# src, tmp740
	movq	16(%rax), %rax	# src_60->fld[1].rtx, tmp741
	movq	%rax, -64(%rbp)	# tmp741, src1
	.loc 1 569 0
	movq	-40(%rbp), %rax	# src, tmp742
	movq	24(%rax), %rax	# src_60->fld[2].rtx, tmp743
	movq	%rax, -56(%rbp)	# tmp743, src2
	.loc 1 572 0
	movq	-72(%rbp), %rax	# src0, tmp744
	movzwl	(%rax), %eax	# src0_425->code, D.11890
	cmpw	$61, %ax	#, D.11890
	jne	.L97	#,
	.loc 1 573 0
	movq	values(%rip), %rdx	# values, values.104
	movq	-72(%rbp), %rax	# src0, tmp745
	movl	8(%rax), %eax	# src0_425->fld[0].rtuint, D.11893
	movl	%eax, %eax	# D.11893, D.11894
	salq	$4, %rax	#, D.11894
	addq	%rdx, %rax	# values.104, D.11898
	movl	(%rax), %eax	# _433->lattice_val, D.11899
	testl	%eax, %eax	# D.11899
	je	.L98	#,
.L97:
	.loc 1 574 0
	movq	-64(%rbp), %rax	# src1, tmp746
	movzwl	(%rax), %eax	# src1_426->code, D.11890
	cmpw	$61, %ax	#, D.11890
	jne	.L99	#,
	.loc 1 575 0
	movq	values(%rip), %rdx	# values, values.105
	movq	-64(%rbp), %rax	# src1, tmp747
	movl	8(%rax), %eax	# src1_426->fld[0].rtuint, D.11893
	movl	%eax, %eax	# D.11893, D.11894
	salq	$4, %rax	#, D.11894
	addq	%rdx, %rax	# values.105, D.11898
	movl	(%rax), %eax	# _440->lattice_val, D.11899
	testl	%eax, %eax	# D.11899
	je	.L98	#,
.L99:
	.loc 1 576 0
	movq	-56(%rbp), %rax	# src2, tmp748
	movzwl	(%rax), %eax	# src2_427->code, D.11890
	cmpw	$61, %ax	#, D.11890
	jne	.L100	#,
	.loc 1 577 0
	movq	values(%rip), %rdx	# values, values.106
	movq	-56(%rbp), %rax	# src2, tmp749
	movl	8(%rax), %eax	# src2_427->fld[0].rtuint, D.11893
	movl	%eax, %eax	# D.11893, D.11894
	salq	$4, %rax	#, D.11894
	addq	%rdx, %rax	# values.106, D.11898
	movl	(%rax), %eax	# _447->lattice_val, D.11899
	testl	%eax, %eax	# D.11899
	jne	.L100	#,
.L98:
	.loc 1 579 0
	movq	-216(%rbp), %rax	# insn, tmp750
	movq	%rax, %rdi	# tmp750,
	call	defs_to_undefined	#
	.loc 1 580 0
	jmp	.L86	#
.L100:
	.loc 1 585 0
	movq	-72(%rbp), %rax	# src0, tmp751
	movzwl	(%rax), %eax	# src0_425->code, D.11890
	cmpw	$61, %ax	#, D.11890
	jne	.L101	#,
	.loc 1 586 0
	movq	values(%rip), %rdx	# values, values.107
	movq	-72(%rbp), %rax	# src0, tmp752
	movl	8(%rax), %eax	# src0_425->fld[0].rtuint, D.11893
	movl	%eax, %eax	# D.11893, D.11894
	salq	$4, %rax	#, D.11894
	addq	%rdx, %rax	# values.107, D.11898
	movl	(%rax), %eax	# _454->lattice_val, D.11899
	cmpl	$1, %eax	#, D.11899
	jne	.L101	#,
	.loc 1 587 0
	movq	values(%rip), %rdx	# values, values.108
	movq	-72(%rbp), %rax	# src0, tmp753
	movl	8(%rax), %eax	# src0_425->fld[0].rtuint, D.11893
	movl	%eax, %eax	# D.11893, D.11894
	salq	$4, %rax	#, D.11894
	addq	%rdx, %rax	# values.108, D.11898
	movq	8(%rax), %rax	# _460->const_value, tmp754
	movq	%rax, -72(%rbp)	# tmp754, src0
.L101:
	.loc 1 589 0
	movq	-64(%rbp), %rax	# src1, tmp755
	movzwl	(%rax), %eax	# src1_426->code, D.11890
	cmpw	$61, %ax	#, D.11890
	jne	.L102	#,
	.loc 1 590 0
	movq	values(%rip), %rdx	# values, values.109
	movq	-64(%rbp), %rax	# src1, tmp756
	movl	8(%rax), %eax	# src1_426->fld[0].rtuint, D.11893
	movl	%eax, %eax	# D.11893, D.11894
	salq	$4, %rax	#, D.11894
	addq	%rdx, %rax	# values.109, D.11898
	movl	(%rax), %eax	# _467->lattice_val, D.11899
	cmpl	$1, %eax	#, D.11899
	jne	.L102	#,
	.loc 1 591 0
	movq	values(%rip), %rdx	# values, values.110
	movq	-64(%rbp), %rax	# src1, tmp757
	movl	8(%rax), %eax	# src1_426->fld[0].rtuint, D.11893
	movl	%eax, %eax	# D.11893, D.11894
	salq	$4, %rax	#, D.11894
	addq	%rdx, %rax	# values.110, D.11898
	movq	8(%rax), %rax	# _473->const_value, tmp758
	movq	%rax, -64(%rbp)	# tmp758, src1
.L102:
	.loc 1 593 0
	movq	-56(%rbp), %rax	# src2, tmp759
	movzwl	(%rax), %eax	# src2_427->code, D.11890
	cmpw	$61, %ax	#, D.11890
	jne	.L103	#,
	.loc 1 594 0
	movq	values(%rip), %rdx	# values, values.111
	movq	-56(%rbp), %rax	# src2, tmp760
	movl	8(%rax), %eax	# src2_427->fld[0].rtuint, D.11893
	movl	%eax, %eax	# D.11893, D.11894
	salq	$4, %rax	#, D.11894
	addq	%rdx, %rax	# values.111, D.11898
	movl	(%rax), %eax	# _480->lattice_val, D.11899
	cmpl	$1, %eax	#, D.11899
	jne	.L103	#,
	.loc 1 595 0
	movq	values(%rip), %rdx	# values, values.112
	movq	-56(%rbp), %rax	# src2, tmp761
	movl	8(%rax), %eax	# src2_427->fld[0].rtuint, D.11893
	movl	%eax, %eax	# D.11893, D.11894
	salq	$4, %rax	#, D.11894
	addq	%rdx, %rax	# values.112, D.11898
	movq	8(%rax), %rax	# _486->const_value, tmp762
	movq	%rax, -56(%rbp)	# tmp762, src2
.L103:
	.loc 1 601 0
	movq	-40(%rbp), %rax	# src, tmp763
	movzbl	2(%rax), %eax	# src_60->mode, D.11900
	.loc 1 599 0
	movzbl	%al, %edx	# D.11900, D.11901
	.loc 1 600 0
	movq	-40(%rbp), %rax	# src, tmp764
	movzbl	2(%rax), %eax	# src_60->mode, D.11900
	.loc 1 599 0
	movzbl	%al, %esi	# D.11900, D.11901
	movq	-40(%rbp), %rax	# src, tmp765
	movzwl	(%rax), %eax	# src_60->code, D.11890
	movzwl	%ax, %eax	# D.11890, D.11902
	movq	-56(%rbp), %r8	# src2, tmp766
	movq	-64(%rbp), %rdi	# src1, tmp767
	movq	-72(%rbp), %rcx	# src0, tmp768
	movq	%r8, %r9	# tmp766,
	movq	%rdi, %r8	# tmp767,
	movl	%eax, %edi	# D.11902,
	call	simplify_ternary_operation	#
	movq	%rax, -120(%rbp)	# tmp769, simplified
	.loc 1 603 0
	jmp	.L86	#
.L77:
.LBE17:
	.loc 1 607 0
	movq	-216(%rbp), %rax	# insn, tmp770
	movq	%rax, %rdi	# tmp770,
	call	defs_to_varying	#
.L86:
	.loc 1 610 0
	cmpq	$0, -120(%rbp)	#, simplified
	je	.L104	#,
	.loc 1 610 0 is_stmt 0 discriminator 1
	movq	-120(%rbp), %rax	# simplified, tmp771
	movzwl	(%rax), %eax	# simplified_7->code, D.11890
	cmpw	$54, %ax	#, D.11890
	jne	.L104	#,
	.loc 1 612 0 is_stmt 1
	movq	values(%rip), %rdx	# values, values.113
	movq	-32(%rbp), %rax	# dest, tmp772
	movl	8(%rax), %eax	# dest_61->fld[0].rtuint, D.11893
	movl	%eax, %eax	# D.11893, D.11894
	salq	$4, %rax	#, D.11894
	addq	%rdx, %rax	# values.113, D.11898
	movl	(%rax), %eax	# _500->lattice_val, D.11899
	cmpl	$1, %eax	#, D.11899
	jne	.L105	#,
	.loc 1 613 0
	movq	values(%rip), %rdx	# values, values.114
	movq	-32(%rbp), %rax	# dest, tmp773
	movl	8(%rax), %eax	# dest_61->fld[0].rtuint, D.11893
	movl	%eax, %eax	# D.11893, D.11894
	salq	$4, %rax	#, D.11894
	addq	%rdx, %rax	# values.114, D.11898
	movq	8(%rax), %rax	# _506->const_value, D.11891
	cmpq	-120(%rbp), %rax	# simplified, D.11891
	je	.L106	#,
.L105:
	.loc 1 614 0
	movq	ssa_edges(%rip), %rdx	# ssa_edges, ssa_edges.115
	movq	-32(%rbp), %rax	# dest, tmp774
	movl	8(%rax), %eax	# dest_61->fld[0].rtuint, D.11893
	shrl	$6, %eax	#, D.11893
	movq	ssa_edges(%rip), %rcx	# ssa_edges, ssa_edges.116
	movl	%eax, %esi	# D.11893, tmp775
	addq	$2, %rsi	#, tmp776
	movq	(%rcx,%rsi,8), %rsi	# ssa_edges.116_511->elms, D.11894
	movq	-32(%rbp), %rcx	# dest, tmp777
	movl	8(%rcx), %ecx	# dest_61->fld[0].rtuint, D.11893
	andl	$63, %ecx	#, D.11895
	movl	$1, %edi	#, tmp778
	salq	%cl, %rdi	# D.11895, D.11894
	movq	%rdi, %rcx	# D.11894, D.11894
	orq	%rsi, %rcx	# D.11894, D.11894
	movl	%eax, %eax	# D.11893, tmp779
	addq	$2, %rax	#, tmp780
	movq	%rcx, (%rdx,%rax,8)	# D.11894, ssa_edges.115_508->elms
.L106:
	.loc 1 616 0
	movq	values(%rip), %rdx	# values, values.117
	movq	-32(%rbp), %rax	# dest, tmp781
	movl	8(%rax), %eax	# dest_61->fld[0].rtuint, D.11893
	movl	%eax, %eax	# D.11893, D.11894
	salq	$4, %rax	#, D.11894
	addq	%rdx, %rax	# values.117, D.11898
	movl	$1, (%rax)	#, _522->lattice_val
	.loc 1 617 0
	movq	values(%rip), %rdx	# values, values.118
	movq	-32(%rbp), %rax	# dest, tmp782
	movl	8(%rax), %eax	# dest_61->fld[0].rtuint, D.11893
	movl	%eax, %eax	# D.11893, D.11894
	salq	$4, %rax	#, D.11894
	addq	%rax, %rdx	# D.11894, D.11898
	movq	-120(%rbp), %rax	# simplified, tmp783
	movq	%rax, 8(%rdx)	# tmp783, _527->const_value
	jmp	.L33	#
.L104:
	.loc 1 620 0
	movq	-216(%rbp), %rax	# insn, tmp784
	movq	%rax, %rdi	# tmp784,
	call	defs_to_varying	#
.L33:
.LBE13:
	.loc 1 622 0
	addq	$208, %rsp	#,
	popq	%rbx	#
	popq	%r12	#
	popq	%rbp	#
	.cfi_def_cfa 7, 8
	ret
	.cfi_endproc
.LFE5:
	.size	visit_expression, .-visit_expression
	.type	examine_flow_edges, @function
examine_flow_edges:
.LFB6:
	.loc 1 628 0
	.cfi_startproc
	pushq	%rbp	#
	.cfi_def_cfa_offset 16
	.cfi_offset 6, -16
	movq	%rsp, %rbp	#,
	.cfi_def_cfa_register 6
	pushq	%r13	#
	pushq	%r12	#
	pushq	%rbx	#
	subq	$40, %rsp	#,
	.cfi_offset 13, -24
	.cfi_offset 12, -32
	.cfi_offset 3, -40
	.loc 1 629 0
	jmp	.L108	#
.L117:
.LBB18:
	.loc 1 635 0
	movq	flow_edges(%rip), %rax	# flow_edges, flow_edges.119
	movq	24(%rax), %rax	# flow_edges.119_4->dest, tmp145
	movq	%rax, -48(%rbp)	# tmp145, succ_block
	.loc 1 636 0
	movq	edge_info(%rip), %rbx	# edge_info, edge_info.120
	movq	flow_edges(%rip), %rax	# flow_edges, flow_edges.121
	movq	24(%rax), %rdx	# flow_edges.121_7->dest, D.11903
	movq	flow_edges(%rip), %rax	# flow_edges, flow_edges.122
	movq	16(%rax), %rcx	# flow_edges.122_9->src, D.11903
	movq	edges(%rip), %rax	# edges, edges.123
	movq	%rcx, %rsi	# D.11903,
	movq	%rax, %rdi	# edges.123,
	call	find_edge_index	#
	cltq
	salq	$3, %rax	#, D.11905
	addq	%rbx, %rax	# edge_info.120, D.11906
	movq	(%rax), %rax	# *_15, flow_edges.124
	movq	%rax, flow_edges(%rip)	# flow_edges.124, flow_edges
	.loc 1 639 0
	cmpq	$entry_exit_blocks+112, -48(%rbp)	#, succ_block
	jne	.L109	#,
	.loc 1 640 0
	jmp	.L108	#
.L109:
	.loc 1 644 0
	movq	-48(%rbp), %rax	# succ_block, tmp146
	movq	%rax, %rdi	# tmp146,
	call	first_insn_after_basic_block_note	#
	movq	%rax, -64(%rbp)	# tmp147, curr_phi_node
	jmp	.L110	#
.L112:
	.loc 1 647 0
	movq	-48(%rbp), %rdx	# succ_block, tmp148
	movq	-64(%rbp), %rax	# curr_phi_node, tmp149
	movq	%rdx, %rsi	# tmp148,
	movq	%rax, %rdi	# tmp149,
	call	visit_phi_node	#
	.loc 1 646 0
	movq	-64(%rbp), %rax	# curr_phi_node, tmp150
	movq	24(%rax), %rax	# curr_phi_node_1->fld[2].rtx, tmp151
	movq	%rax, -64(%rbp)	# tmp151, curr_phi_node
.L110:
	.loc 1 644 0 discriminator 1
	cmpq	$0, -64(%rbp)	#, curr_phi_node
	je	.L111	#,
	.loc 1 645 0
	movq	-64(%rbp), %rax	# curr_phi_node, tmp152
	movzwl	(%rax), %eax	# curr_phi_node_1->code, D.11907
	cmpw	$32, %ax	#, D.11907
	jne	.L111	#,
	.loc 1 645 0 is_stmt 0 discriminator 1
	movq	-64(%rbp), %rax	# curr_phi_node, tmp153
	movq	32(%rax), %rax	# curr_phi_node_1->fld[3].rtx, D.11908
	movzwl	(%rax), %eax	# _19->code, D.11907
	cmpw	$47, %ax	#, D.11907
	jne	.L111	#,
	movq	-64(%rbp), %rax	# curr_phi_node, tmp154
	movq	32(%rax), %rax	# curr_phi_node_1->fld[3].rtx, D.11908
	movq	16(%rax), %rax	# _21->fld[1].rtx, D.11908
	movzwl	(%rax), %eax	# _22->code, D.11907
	cmpw	$152, %ax	#, D.11907
	je	.L112	#,
.L111:
	.loc 1 651 0 is_stmt 1
	movq	executable_blocks(%rip), %rax	# executable_blocks, executable_blocks.125
	movq	-48(%rbp), %rdx	# succ_block, tmp155
	movl	88(%rdx), %edx	# succ_block_5->index, D.11904
	shrl	$6, %edx	#, D.11909
	movl	%edx, %edx	# D.11909, tmp156
	addq	$2, %rdx	#, tmp157
	movq	(%rax,%rdx,8), %rdx	# executable_blocks.125_25->elms, D.11905
	movq	-48(%rbp), %rax	# succ_block, tmp158
	movl	88(%rax), %eax	# succ_block_5->index, D.11904
	andl	$63, %eax	#, D.11904
	movl	%eax, %ecx	# D.11904, tmp201
	shrq	%cl, %rdx	# tmp201, D.11905
	movq	%rdx, %rax	# D.11905, D.11905
	andl	$1, %eax	#, D.11905
	testq	%rax, %rax	# D.11905
	jne	.L108	#,
.LBB19:
	.loc 1 654 0
	movq	-48(%rbp), %rax	# succ_block, tmp159
	movq	40(%rax), %rax	# succ_block_5->succ, tmp160
	movq	%rax, -40(%rbp)	# tmp160, succ_edge
	.loc 1 657 0
	movq	executable_blocks(%rip), %rdx	# executable_blocks, executable_blocks.126
	movq	-48(%rbp), %rax	# succ_block, tmp161
	movl	88(%rax), %eax	# succ_block_5->index, D.11904
	shrl	$6, %eax	#, D.11909
	movq	executable_blocks(%rip), %rcx	# executable_blocks, executable_blocks.127
	movl	%eax, %esi	# D.11909, tmp162
	addq	$2, %rsi	#, tmp163
	movq	(%rcx,%rsi,8), %rsi	# executable_blocks.127_39->elms, D.11905
	movq	-48(%rbp), %rcx	# succ_block, tmp164
	movl	88(%rcx), %ecx	# succ_block_5->index, D.11904
	andl	$63, %ecx	#, D.11904
	movl	$1, %edi	#, tmp165
	salq	%cl, %rdi	# D.11904, D.11905
	movq	%rdi, %rcx	# D.11905, D.11905
	orq	%rsi, %rcx	# D.11905, D.11905
	movl	%eax, %eax	# D.11909, tmp166
	addq	$2, %rax	#, tmp167
	movq	%rcx, (%rdx,%rax,8)	# D.11905, executable_blocks.126_35->elms
	.loc 1 660 0
	movq	-48(%rbp), %rax	# succ_block, tmp168
	movq	(%rax), %rax	# succ_block_5->head, tmp169
	movq	%rax, -56(%rbp)	# tmp169, currinsn
	.loc 1 661 0
	jmp	.L113	#
.L115:
	.loc 1 663 0
	movq	-56(%rbp), %rax	# currinsn, tmp170
	movzwl	(%rax), %eax	# currinsn_2->code, D.11907
	movzwl	%ax, %eax	# D.11907, D.11904
	cltq
	movzbl	rtx_class(%rax), %eax	# rtx_class, D.11910
	cmpb	$105, %al	#, D.11910
	jne	.L114	#,
	.loc 1 664 0
	movq	-48(%rbp), %rdx	# succ_block, tmp172
	movq	-56(%rbp), %rax	# currinsn, tmp173
	movq	%rdx, %rsi	# tmp172,
	movq	%rax, %rdi	# tmp173,
	call	visit_expression	#
.L114:
	.loc 1 666 0
	movq	-56(%rbp), %rax	# currinsn, tmp174
	movq	24(%rax), %rax	# currinsn_2->fld[2].rtx, tmp175
	movq	%rax, -56(%rbp)	# tmp175, currinsn
.L113:
	.loc 1 661 0 discriminator 1
	movq	-48(%rbp), %rax	# succ_block, tmp176
	movq	8(%rax), %rax	# succ_block_5->end, D.11908
	cmpq	-56(%rbp), %rax	# currinsn, D.11908
	jne	.L115	#,
	.loc 1 670 0
	movq	-56(%rbp), %rax	# currinsn, tmp177
	movzwl	(%rax), %eax	# currinsn_2->code, D.11907
	movzwl	%ax, %eax	# D.11907, D.11904
	cltq
	movzbl	rtx_class(%rax), %eax	# rtx_class, D.11910
	cmpb	$105, %al	#, D.11910
	jne	.L116	#,
	.loc 1 671 0
	movq	-48(%rbp), %rdx	# succ_block, tmp179
	movq	-56(%rbp), %rax	# currinsn, tmp180
	movq	%rdx, %rsi	# tmp179,
	movq	%rax, %rdi	# tmp180,
	call	visit_expression	#
.L116:
	.loc 1 677 0
	cmpq	$0, -40(%rbp)	#, succ_edge
	je	.L108	#,
	.loc 1 678 0
	movq	-40(%rbp), %rax	# succ_edge, tmp181
	movq	8(%rax), %rax	# succ_edge_34->succ_next, D.11911
	testq	%rax, %rax	# D.11911
	jne	.L108	#,
	.loc 1 679 0
	movq	executable_edges(%rip), %rbx	# executable_edges, executable_edges.128
	movq	-40(%rbp), %rax	# succ_edge, tmp182
	movq	24(%rax), %rdx	# succ_edge_34->dest, D.11903
	movq	-40(%rbp), %rax	# succ_edge, tmp183
	movq	16(%rax), %rcx	# succ_edge_34->src, D.11903
	movq	edges(%rip), %rax	# edges, edges.129
	movq	%rcx, %rsi	# D.11903,
	movq	%rax, %rdi	# edges.129,
	call	find_edge_index	#
	shrl	$6, %eax	#, D.11909
	movl	%eax, %eax	# D.11909, tmp184
	addq	$2, %rax	#, tmp185
	movq	(%rbx,%rax,8), %rbx	# executable_edges.128_55->elms, D.11905
	movq	-40(%rbp), %rax	# succ_edge, tmp186
	movq	24(%rax), %rdx	# succ_edge_34->dest, D.11903
	movq	-40(%rbp), %rax	# succ_edge, tmp187
	movq	16(%rax), %rcx	# succ_edge_34->src, D.11903
	movq	edges(%rip), %rax	# edges, edges.130
	movq	%rcx, %rsi	# D.11903,
	movq	%rax, %rdi	# edges.130,
	call	find_edge_index	#
	andl	$63, %eax	#, D.11904
	movl	%eax, %ecx	# D.11904, tmp204
	shrq	%cl, %rbx	# tmp204, D.11905
	movq	%rbx, %rax	# D.11905, D.11905
	andl	$1, %eax	#, D.11905
	testq	%rax, %rax	# D.11905
	jne	.L108	#,
	.loc 1 682 0
	movq	executable_edges(%rip), %r12	# executable_edges, executable_edges.131
	movq	-40(%rbp), %rax	# succ_edge, tmp188
	movq	24(%rax), %rdx	# succ_edge_34->dest, D.11903
	movq	-40(%rbp), %rax	# succ_edge, tmp189
	movq	16(%rax), %rcx	# succ_edge_34->src, D.11903
	movq	edges(%rip), %rax	# edges, edges.132
	movq	%rcx, %rsi	# D.11903,
	movq	%rax, %rdi	# edges.132,
	call	find_edge_index	#
	shrl	$6, %eax	#, D.11909
	movl	%eax, %ebx	# D.11909, D.11909
	movq	executable_edges(%rip), %rax	# executable_edges, executable_edges.133
	movl	%ebx, %edx	# D.11909, tmp190
	addq	$2, %rdx	#, tmp191
	movq	(%rax,%rdx,8), %r13	# executable_edges.133_77->elms, D.11905
	movq	-40(%rbp), %rax	# succ_edge, tmp192
	movq	24(%rax), %rdx	# succ_edge_34->dest, D.11903
	movq	-40(%rbp), %rax	# succ_edge, tmp193
	movq	16(%rax), %rcx	# succ_edge_34->src, D.11903
	movq	edges(%rip), %rax	# edges, edges.134
	movq	%rcx, %rsi	# D.11903,
	movq	%rax, %rdi	# edges.134,
	call	find_edge_index	#
	andl	$63, %eax	#, D.11904
	movl	$1, %edx	#, tmp194
	movl	%eax, %ecx	# D.11904, tmp207
	salq	%cl, %rdx	# tmp207, D.11905
	movq	%rdx, %rax	# D.11905, D.11905
	movq	%r13, %rdx	# D.11905, D.11905
	orq	%rax, %rdx	# D.11905, D.11905
	movl	%ebx, %eax	# D.11909, tmp195
	addq	$2, %rax	#, tmp196
	movq	%rdx, (%r12,%rax,8)	# D.11905, executable_edges.131_70->elms
	.loc 1 684 0
	movq	edge_info(%rip), %rbx	# edge_info, edge_info.135
	movq	-40(%rbp), %rax	# succ_edge, tmp197
	movq	24(%rax), %rdx	# succ_edge_34->dest, D.11903
	movq	-40(%rbp), %rax	# succ_edge, tmp198
	movq	16(%rax), %rcx	# succ_edge_34->src, D.11903
	movq	edges(%rip), %rax	# edges, edges.136
	movq	%rcx, %rsi	# D.11903,
	movq	%rax, %rdi	# edges.136,
	call	find_edge_index	#
	cltq
	salq	$3, %rax	#, D.11905
	leaq	(%rbx,%rax), %rdx	#, D.11906
	movq	flow_edges(%rip), %rax	# flow_edges, flow_edges.137
	movq	%rax, (%rdx)	# flow_edges.137, *_93
	.loc 1 685 0
	movq	-40(%rbp), %rax	# succ_edge, tmp199
	movq	%rax, flow_edges(%rip)	# tmp199, flow_edges
.L108:
.LBE19:
.LBE18:
	.loc 1 629 0 discriminator 1
	movq	flow_edges(%rip), %rax	# flow_edges, flow_edges.138
	testq	%rax, %rax	# flow_edges.138
	jne	.L117	#,
	.loc 1 689 0
	addq	$40, %rsp	#,
	popq	%rbx	#
	popq	%r12	#
	popq	%r13	#
	popq	%rbp	#
	.cfi_def_cfa 7, 8
	ret
	.cfi_endproc
.LFE6:
	.size	examine_flow_edges, .-examine_flow_edges
	.type	follow_def_use_chains, @function
follow_def_use_chains:
.LFB7:
	.loc 1 696 0
	.cfi_startproc
	pushq	%rbp	#
	.cfi_def_cfa_offset 16
	.cfi_offset 6, -16
	movq	%rsp, %rbp	#,
	.cfi_def_cfa_register 6
	subq	$32, %rsp	#,
	.loc 1 698 0
	jmp	.L119	#
.L125:
.LBB20:
	.loc 1 705 0
	movq	ssa_edges(%rip), %rax	# ssa_edges, ssa_edges.139
	movq	%rax, %rdi	# ssa_edges.139,
	call	sbitmap_first_set_bit	#
	movl	%eax, -20(%rbp)	# tmp119, member
	.loc 1 706 0
	movq	ssa_edges(%rip), %rdx	# ssa_edges, ssa_edges.140
	movl	-20(%rbp), %eax	# member, member.141
	shrl	$6, %eax	#, D.11913
	movq	ssa_edges(%rip), %rcx	# ssa_edges, ssa_edges.142
	movl	%eax, %esi	# D.11913, tmp120
	addq	$2, %rsi	#, tmp121
	movq	(%rcx,%rsi,8), %rsi	# ssa_edges.142_9->elms, D.11914
	movl	-20(%rbp), %ecx	# member, tmp122
	andl	$63, %ecx	#, D.11912
	movl	$1, %edi	#, tmp123
	salq	%cl, %rdi	# D.11912, D.11914
	movq	%rdi, %rcx	# D.11914, D.11914
	notq	%rcx	# D.11914
	andq	%rsi, %rcx	# D.11914, D.11914
	movl	%eax, %eax	# D.11913, tmp124
	addq	$2, %rax	#, tmp125
	movq	%rcx, (%rdx,%rax,8)	# D.11914, ssa_edges.140_6->elms
	.loc 1 709 0
	movq	df_analyzer(%rip), %rax	# df_analyzer, df_analyzer.143
	movq	40(%rax), %rax	# df_analyzer.143_15->regs, D.11915
	movl	-20(%rbp), %edx	# member, tmp126
	movslq	%edx, %rdx	# tmp126, D.11914
	salq	$5, %rdx	#, D.11914
	addq	%rdx, %rax	# D.11914, D.11915
	movq	8(%rax), %rax	# _19->uses, tmp127
	movq	%rax, -16(%rbp)	# tmp127, curruse
	jmp	.L120	#
.L124:
.LBB21:
	.loc 1 714 0
	movq	-16(%rbp), %rax	# curruse, tmp128
	movq	8(%rax), %rax	# curruse_1->ref, D.11916
	movq	8(%rax), %rax	# _21->insn, tmp129
	movq	%rax, -8(%rbp)	# tmp129, useinsn
	.loc 1 715 0
	cmpq	$0, -8(%rbp)	#, useinsn
	je	.L121	#,
	.loc 1 715 0 is_stmt 0 discriminator 1
	movq	-8(%rbp), %rax	# useinsn, tmp130
	movzwl	(%rax), %eax	# useinsn_22->code, D.11917
	cmpw	$32, %ax	#, D.11917
	jne	.L121	#,
	movq	-8(%rbp), %rax	# useinsn, tmp131
	movq	32(%rax), %rax	# useinsn_22->fld[3].rtx, D.11918
	movzwl	(%rax), %eax	# _24->code, D.11917
	cmpw	$47, %ax	#, D.11917
	jne	.L121	#,
	movq	-8(%rbp), %rax	# useinsn, tmp132
	movq	32(%rax), %rax	# useinsn_22->fld[3].rtx, D.11918
	movq	16(%rax), %rax	# _26->fld[1].rtx, D.11918
	movzwl	(%rax), %eax	# _27->code, D.11917
	cmpw	$152, %ax	#, D.11917
	jne	.L121	#,
	.loc 1 717 0 is_stmt 1
	movq	executable_blocks(%rip), %rax	# executable_blocks, executable_blocks.144
	movq	basic_block_for_insn(%rip), %rdx	# basic_block_for_insn, basic_block_for_insn.145
	movq	-8(%rbp), %rcx	# useinsn, tmp133
	movl	8(%rcx), %ecx	# useinsn_22->fld[0].rtint, D.11912
	movslq	%ecx, %rcx	# D.11912, tmp134
	addq	$4, %rcx	#, tmp135
	movq	(%rdx,%rcx,8), %rdx	# basic_block_for_insn.145_30->data.bb, D.11919
	movl	88(%rdx), %edx	# _32->index, D.11912
	shrl	$6, %edx	#, D.11913
	movl	%edx, %edx	# D.11913, tmp136
	addq	$2, %rdx	#, tmp137
	movq	(%rax,%rdx,8), %rsi	# executable_blocks.144_29->elms, D.11914
	movq	basic_block_for_insn(%rip), %rax	# basic_block_for_insn, basic_block_for_insn.146
	movq	-8(%rbp), %rdx	# useinsn, tmp138
	movl	8(%rdx), %edx	# useinsn_22->fld[0].rtint, D.11912
	movslq	%edx, %rdx	# D.11912, tmp139
	addq	$4, %rdx	#, tmp140
	movq	(%rax,%rdx,8), %rax	# basic_block_for_insn.146_37->data.bb, D.11919
	movl	88(%rax), %eax	# _39->index, D.11912
	andl	$63, %eax	#, D.11912
	movl	%eax, %ecx	# D.11912, tmp161
	shrq	%cl, %rsi	# tmp161, D.11914
	movq	%rsi, %rax	# D.11914, D.11914
	andl	$1, %eax	#, D.11914
	testq	%rax, %rax	# D.11914
	je	.L122	#,
	.loc 1 718 0
	movq	basic_block_for_insn(%rip), %rax	# basic_block_for_insn, basic_block_for_insn.147
	movq	-8(%rbp), %rdx	# useinsn, tmp141
	movl	8(%rdx), %edx	# useinsn_22->fld[0].rtint, D.11912
	movslq	%edx, %rdx	# D.11912, tmp142
	addq	$4, %rdx	#, tmp143
	movq	(%rax,%rdx,8), %rdx	# basic_block_for_insn.147_44->data.bb, D.11919
	movq	-8(%rbp), %rax	# useinsn, tmp144
	movq	%rdx, %rsi	# D.11919,
	movq	%rax, %rdi	# tmp144,
	call	visit_phi_node	#
	.loc 1 717 0
	jmp	.L123	#
.L122:
	.loc 1 717 0 is_stmt 0 discriminator 1
	jmp	.L123	#
.L121:
	.loc 1 722 0 is_stmt 1
	movq	executable_blocks(%rip), %rax	# executable_blocks, executable_blocks.148
	movq	basic_block_for_insn(%rip), %rdx	# basic_block_for_insn, basic_block_for_insn.149
	movq	-8(%rbp), %rcx	# useinsn, tmp145
	movl	8(%rcx), %ecx	# useinsn_22->fld[0].rtint, D.11912
	movslq	%ecx, %rcx	# D.11912, tmp146
	addq	$4, %rcx	#, tmp147
	movq	(%rdx,%rcx,8), %rdx	# basic_block_for_insn.149_48->data.bb, D.11919
	movl	88(%rdx), %edx	# _50->index, D.11912
	shrl	$6, %edx	#, D.11913
	movl	%edx, %edx	# D.11913, tmp148
	addq	$2, %rdx	#, tmp149
	movq	(%rax,%rdx,8), %rsi	# executable_blocks.148_47->elms, D.11914
	movq	basic_block_for_insn(%rip), %rax	# basic_block_for_insn, basic_block_for_insn.150
	movq	-8(%rbp), %rdx	# useinsn, tmp150
	movl	8(%rdx), %edx	# useinsn_22->fld[0].rtint, D.11912
	movslq	%edx, %rdx	# D.11912, tmp151
	addq	$4, %rdx	#, tmp152
	movq	(%rax,%rdx,8), %rax	# basic_block_for_insn.150_55->data.bb, D.11919
	movl	88(%rax), %eax	# _57->index, D.11912
	andl	$63, %eax	#, D.11912
	movl	%eax, %ecx	# D.11912, tmp163
	shrq	%cl, %rsi	# tmp163, D.11914
	movq	%rsi, %rax	# D.11914, D.11914
	andl	$1, %eax	#, D.11914
	testq	%rax, %rax	# D.11914
	je	.L123	#,
	.loc 1 723 0
	movq	basic_block_for_insn(%rip), %rax	# basic_block_for_insn, basic_block_for_insn.151
	movq	-8(%rbp), %rdx	# useinsn, tmp153
	movl	8(%rdx), %edx	# useinsn_22->fld[0].rtint, D.11912
	movslq	%edx, %rdx	# D.11912, tmp154
	addq	$4, %rdx	#, tmp155
	movq	(%rax,%rdx,8), %rdx	# basic_block_for_insn.151_62->data.bb, D.11919
	movq	-8(%rbp), %rax	# useinsn, tmp156
	movq	%rdx, %rsi	# D.11919,
	movq	%rax, %rdi	# tmp156,
	call	visit_expression	#
.L123:
.LBE21:
	.loc 1 710 0
	movq	-16(%rbp), %rax	# curruse, tmp157
	movq	(%rax), %rax	# curruse_1->next, tmp158
	movq	%rax, -16(%rbp)	# tmp158, curruse
.L120:
	.loc 1 709 0 discriminator 1
	cmpq	$0, -16(%rbp)	#, curruse
	jne	.L124	#,
.L119:
.LBE20:
	.loc 1 698 0 discriminator 1
	movq	ssa_edges(%rip), %rax	# ssa_edges, ssa_edges.152
	movq	%rax, %rdi	# ssa_edges.152,
	call	sbitmap_first_set_bit	#
	testl	%eax, %eax	# D.11912
	jns	.L125	#,
	.loc 1 727 0
	leave
	.cfi_def_cfa 7, 8
	ret
	.cfi_endproc
.LFE7:
	.size	follow_def_use_chains, .-follow_def_use_chains
	.section	.rodata
	.align 8
.LC0:
	.string	"Removing alternative for bb %d of phi %d\n"
	.align 8
.LC1:
	.string	"Removing unexecutable edge from %d to %d\n"
	.text
	.type	optimize_unexecutable_edges, @function
optimize_unexecutable_edges:
.LFB8:
	.loc 1 741 0
	.cfi_startproc
	pushq	%rbp	#
	.cfi_def_cfa_offset 16
	.cfi_offset 6, -16
	movq	%rsp, %rbp	#,
	.cfi_def_cfa_register 6
	pushq	%rbx	#
	subq	$72, %rsp	#,
	.cfi_offset 3, -24
	movq	%rdi, -72(%rbp)	# edges, edges
	movq	%rsi, -80(%rbp)	# executable_edges, executable_edges
	.loc 1 744 0
	movl	$0, -60(%rbp)	#, i
	jmp	.L127	#
.L135:
	.loc 1 746 0
	movl	-60(%rbp), %eax	# i, i.153
	shrl	$6, %eax	#, D.11921
	movl	%eax, %edx	# D.11921, D.11921
	movq	-80(%rbp), %rax	# executable_edges, tmp116
	movl	%edx, %edx	# D.11921, tmp117
	addq	$2, %rdx	#, tmp118
	movq	(%rax,%rdx,8), %rdx	# executable_edges_10(D)->elms, D.11922
	movl	-60(%rbp), %eax	# i, tmp119
	andl	$63, %eax	#, D.11920
	movl	%eax, %ecx	# D.11920, tmp167
	shrq	%cl, %rdx	# tmp167, D.11922
	movq	%rdx, %rax	# D.11922, D.11922
	andl	$1, %eax	#, D.11922
	testq	%rax, %rax	# D.11922
	jne	.L128	#,
.LBB22:
	.loc 1 748 0
	movq	-72(%rbp), %rax	# edges, tmp120
	movq	8(%rax), %rax	# edges_6(D)->index_to_edge, D.11923
	movl	-60(%rbp), %edx	# i, tmp121
	movslq	%edx, %rdx	# tmp121, D.11922
	salq	$3, %rdx	#, D.11922
	addq	%rdx, %rax	# D.11922, D.11923
	movq	(%rax), %rax	# *_18, tmp122
	movq	%rax, -48(%rbp)	# tmp122, edge
	.loc 1 750 0
	movq	-48(%rbp), %rax	# edge, tmp123
	movl	48(%rax), %eax	# edge_19->flags, D.11920
	andl	$2, %eax	#, D.11920
	testl	%eax, %eax	# D.11920
	je	.L129	#,
	.loc 1 751 0
	jmp	.L128	#
.L129:
	.loc 1 755 0
	movq	-48(%rbp), %rax	# edge, tmp124
	movq	24(%rax), %rax	# edge_19->dest, D.11924
	cmpq	$entry_exit_blocks+112, %rax	#, D.11924
	je	.L130	#,
.LBB23:
	.loc 1 757 0
	movq	-48(%rbp), %rax	# edge, tmp125
	movq	24(%rax), %rax	# edge_19->dest, D.11924
	movq	%rax, %rdi	# D.11924,
	call	first_insn_after_basic_block_note	#
	movq	%rax, -56(%rbp)	# tmp126, insn
	.loc 1 759 0
	jmp	.L131	#
.L133:
	.loc 1 761 0
	movq	-48(%rbp), %rax	# edge, tmp127
	movq	16(%rax), %rdx	# edge_19->src, D.11924
	movq	-56(%rbp), %rax	# insn, tmp128
	movq	32(%rax), %rax	# insn_3->fld[3].rtx, D.11926
	movq	%rdx, %rsi	# D.11924,
	movq	%rax, %rdi	# D.11926,
	call	remove_phi_alternative	#
	.loc 1 762 0
	movq	rtl_dump_file(%rip), %rax	# rtl_dump_file, rtl_dump_file.154
	testq	%rax, %rax	# rtl_dump_file.154
	je	.L132	#,
	.loc 1 765 0
	movq	-56(%rbp), %rax	# insn, tmp129
	movq	32(%rax), %rax	# insn_3->fld[3].rtx, D.11926
	movq	8(%rax), %rax	# _34->fld[0].rtx, D.11926
	.loc 1 763 0
	movl	8(%rax), %ecx	# _35->fld[0].rtuint, D.11921
	.loc 1 765 0
	movq	-48(%rbp), %rax	# edge, tmp130
	movq	16(%rax), %rax	# edge_19->src, D.11924
	.loc 1 763 0
	movl	88(%rax), %edx	# _37->index, D.11920
	movq	rtl_dump_file(%rip), %rax	# rtl_dump_file, rtl_dump_file.155
	movl	$.LC0, %esi	#,
	movq	%rax, %rdi	# rtl_dump_file.155,
	movl	$0, %eax	#,
	call	fprintf	#
.L132:
	.loc 1 766 0
	movq	-56(%rbp), %rax	# insn, tmp131
	movq	24(%rax), %rax	# insn_3->fld[2].rtx, tmp132
	movq	%rax, -56(%rbp)	# tmp132, insn
.L131:
	.loc 1 759 0 discriminator 1
	cmpq	$0, -56(%rbp)	#, insn
	je	.L130	#,
	.loc 1 759 0 is_stmt 0 discriminator 2
	movq	-56(%rbp), %rax	# insn, tmp133
	movzwl	(%rax), %eax	# insn_3->code, D.11925
	cmpw	$32, %ax	#, D.11925
	jne	.L130	#,
	.loc 1 759 0 discriminator 1
	movq	-56(%rbp), %rax	# insn, tmp134
	movq	32(%rax), %rax	# insn_3->fld[3].rtx, D.11926
	movzwl	(%rax), %eax	# _26->code, D.11925
	cmpw	$47, %ax	#, D.11925
	jne	.L130	#,
	movq	-56(%rbp), %rax	# insn, tmp135
	movq	32(%rax), %rax	# insn_3->fld[3].rtx, D.11926
	movq	16(%rax), %rax	# _28->fld[1].rtx, D.11926
	movzwl	(%rax), %eax	# _29->code, D.11925
	cmpw	$152, %ax	#, D.11925
	je	.L133	#,
.L130:
.LBE23:
	.loc 1 769 0 is_stmt 1
	movq	rtl_dump_file(%rip), %rax	# rtl_dump_file, rtl_dump_file.156
	testq	%rax, %rax	# rtl_dump_file.156
	je	.L134	#,
	.loc 1 772 0
	movq	-48(%rbp), %rax	# edge, tmp136
	movq	24(%rax), %rax	# edge_19->dest, D.11924
	.loc 1 770 0
	movl	88(%rax), %ecx	# _42->index, D.11920
	.loc 1 772 0
	movq	-48(%rbp), %rax	# edge, tmp137
	movq	16(%rax), %rax	# edge_19->src, D.11924
	.loc 1 770 0
	movl	88(%rax), %edx	# _44->index, D.11920
	movq	rtl_dump_file(%rip), %rax	# rtl_dump_file, rtl_dump_file.157
	movl	$.LC1, %esi	#,
	movq	%rax, %rdi	# rtl_dump_file.157,
	movl	$0, %eax	#,
	call	fprintf	#
.L134:
	.loc 1 774 0
	movq	-48(%rbp), %rax	# edge, tmp138
	movq	%rax, %rdi	# tmp138,
	call	remove_edge	#
.L128:
.LBE22:
	.loc 1 744 0
	addl	$1, -60(%rbp)	#, i
.L127:
	.loc 1 744 0 is_stmt 0 discriminator 1
	movq	-72(%rbp), %rax	# edges, tmp139
	movl	4(%rax), %eax	# edges_6(D)->num_edges, D.11920
	cmpl	-60(%rbp), %eax	# i, D.11920
	jg	.L135	#,
	.loc 1 800 0 is_stmt 1
	movl	$0, -60(%rbp)	#, i
	jmp	.L136	#
.L144:
.LBB24:
	.loc 1 802 0
	movq	basic_block_info(%rip), %rax	# basic_block_info, basic_block_info.158
	movl	-60(%rbp), %edx	# i, tmp141
	movslq	%edx, %rdx	# tmp141, tmp140
	addq	$4, %rdx	#, tmp142
	movq	(%rax,%rdx,8), %rax	# basic_block_info.158_50->data.bb, tmp143
	movq	%rax, -40(%rbp)	# tmp143, bb
	.loc 1 803 0
	movq	-40(%rbp), %rax	# bb, tmp144
	movq	8(%rax), %rax	# bb_51->end, tmp145
	movq	%rax, -32(%rbp)	# tmp145, insn
	.loc 1 804 0
	movq	-40(%rbp), %rax	# bb, tmp146
	movq	40(%rax), %rax	# bb_51->succ, tmp147
	movq	%rax, -24(%rbp)	# tmp147, edge
	.loc 1 808 0
	movq	-40(%rbp), %rax	# bb, tmp148
	movq	32(%rax), %rax	# bb_51->pred, D.11927
	testq	%rax, %rax	# D.11927
	je	.L137	#,
	.loc 1 808 0 is_stmt 0 discriminator 1
	movq	-32(%rbp), %rax	# insn, tmp149
	movzwl	(%rax), %eax	# insn_52->code, D.11925
	cmpw	$33, %ax	#, D.11925
	je	.L138	#,
.L137:
	.loc 1 809 0 is_stmt 1
	jmp	.L139	#
.L138:
	.loc 1 813 0
	movq	-32(%rbp), %rax	# insn, tmp150
	movq	%rax, %rdi	# tmp150,
	call	condjump_p	#
	testl	%eax, %eax	# D.11920
	je	.L139	#,
	.loc 1 813 0 is_stmt 0 discriminator 1
	movq	-32(%rbp), %rax	# insn, tmp151
	movq	%rax, %rdi	# tmp151,
	call	simplejump_p	#
	testl	%eax, %eax	# D.11920
	jne	.L139	#,
	.loc 1 814 0 is_stmt 1
	movq	-40(%rbp), %rax	# bb, tmp152
	movq	40(%rax), %rax	# bb_51->succ, D.11927
	testq	%rax, %rax	# D.11927
	je	.L139	#,
	.loc 1 814 0 is_stmt 0 discriminator 1
	movq	-40(%rbp), %rax	# bb, tmp153
	movq	40(%rax), %rax	# bb_51->succ, D.11927
	movq	8(%rax), %rax	# _59->succ_next, D.11927
	testq	%rax, %rax	# D.11927
	jne	.L139	#,
	.loc 1 819 0 is_stmt 1
	movq	-24(%rbp), %rax	# edge, tmp154
	movl	48(%rax), %eax	# edge_53->flags, D.11920
	andl	$1, %eax	#, D.11920
	testl	%eax, %eax	# D.11920
	je	.L140	#,
	.loc 1 821 0
	movq	-32(%rbp), %rax	# insn, tmp155
	movw	$37, (%rax)	#, insn_52->code
	.loc 1 822 0
	movq	-32(%rbp), %rax	# insn, tmp156
	movl	$-99, 40(%rax)	#, insn_52->fld[4].rtint
	jmp	.L141	#
.L140:
	.loc 1 826 0
	movq	-32(%rbp), %rax	# insn, tmp157
	movq	32(%rax), %rbx	# insn_52->fld[3].rtx, D.11926
	movq	-32(%rbp), %rax	# insn, tmp158
	movq	64(%rax), %rdx	# insn_52->fld[7].rtx, D.11926
	movl	target_flags(%rip), %eax	# target_flags, target_flags.160
	andl	$33554432, %eax	#, D.11920
	testl	%eax, %eax	# D.11920
	je	.L142	#,
	.loc 1 826 0 is_stmt 0 discriminator 1
	movl	$5, %eax	#, iftmp.159
	jmp	.L143	#
.L142:
	.loc 1 826 0 discriminator 2
	movl	$4, %eax	#, iftmp.159
.L143:
	.loc 1 826 0 discriminator 3
	movl	%eax, %esi	# iftmp.159,
	movl	$67, %edi	#,
	call	gen_rtx_fmt_u00	#
	movq	%rax, 16(%rbx)	# D.11926, _63->fld[1].rtx
	.loc 1 828 0 is_stmt 1 discriminator 3
	movq	-32(%rbp), %rax	# insn, tmp159
	movq	%rax, %rdi	# tmp159,
	call	emit_barrier_after	#
	.loc 1 829 0 discriminator 3
	movq	-32(%rbp), %rax	# insn, tmp160
	movl	$-1, 40(%rax)	#, insn_52->fld[4].rtint
.L141:
	.loc 1 833 0
	movq	basic_block_for_insn(%rip), %rax	# basic_block_for_insn, basic_block_for_insn.161
	movq	-32(%rbp), %rdx	# insn, tmp161
	movl	8(%rdx), %edx	# insn_52->fld[0].rtint, D.11920
	movslq	%edx, %rdx	# D.11920, tmp162
	addq	$4, %rdx	#, tmp163
	movq	(%rax,%rdx,8), %rcx	# basic_block_for_insn.161_70->data.bb, D.11924
	movq	df_analyzer(%rip), %rax	# df_analyzer, df_analyzer.162
	movq	-32(%rbp), %rdx	# insn, tmp164
	movq	%rcx, %rsi	# D.11924,
	movq	%rax, %rdi	# df_analyzer.162,
	call	df_insn_modify	#
.L139:
.LBE24:
	.loc 1 800 0
	addl	$1, -60(%rbp)	#, i
.L136:
	.loc 1 800 0 is_stmt 0 discriminator 1
	movl	n_basic_blocks(%rip), %eax	# n_basic_blocks, n_basic_blocks.163
	cmpl	%eax, -60(%rbp)	# n_basic_blocks.163, i
	jl	.L144	#,
	.loc 1 836 0 is_stmt 1
	addq	$72, %rsp	#,
	popq	%rbx	#
	popq	%rbp	#
	.cfi_def_cfa 7, 8
	ret
	.cfi_endproc
.LFE8:
	.size	optimize_unexecutable_edges, .-optimize_unexecutable_edges
	.section	.rodata
	.align 8
.LC2:
	.string	"Register %d is now set to a constant\n"
	.align 8
.LC3:
	.string	"Register %d in insn %d replaced with constant\n"
	.text
	.type	ssa_ccp_substitute_constants, @function
ssa_ccp_substitute_constants:
.LFB9:
	.loc 1 852 0
	.cfi_startproc
	pushq	%rbp	#
	.cfi_def_cfa_offset 16
	.cfi_offset 6, -16
	movq	%rsp, %rbp	#,
	.cfi_def_cfa_register 6
	subq	$48, %rsp	#,
	.loc 1 855 0
	movl	$53, -36(%rbp)	#, i
	jmp	.L146	#
.L163:
	.loc 1 857 0
	movq	values(%rip), %rax	# values, values.164
	movl	-36(%rbp), %edx	# i, D.11930
	salq	$4, %rdx	#, D.11930
	addq	%rdx, %rax	# D.11930, D.11931
	movl	(%rax), %eax	# _12->lattice_val, D.11932
	cmpl	$1, %eax	#, D.11932
	jne	.L147	#,
.LBB25:
	.loc 1 859 0
	movq	ssa_definition(%rip), %rax	# ssa_definition, ssa_definition.165
	movl	-36(%rbp), %edx	# i, tmp131
	addq	$4, %rdx	#, tmp132
	movq	(%rax,%rdx,8), %rax	# ssa_definition.165_14->data.rtx, tmp133
	movq	%rax, -24(%rbp)	# tmp133, def
	.loc 1 860 0
	movq	-24(%rbp), %rax	# def, tmp134
	movzwl	(%rax), %eax	# def_15->code, D.11933
	movzwl	%ax, %eax	# D.11933, D.11934
	cltq
	movzbl	rtx_class(%rax), %eax	# rtx_class, D.11935
	cmpb	$105, %al	#, D.11935
	jne	.L148	#,
	.loc 1 860 0 is_stmt 0 discriminator 1
	movq	-24(%rbp), %rax	# def, tmp136
	movq	32(%rax), %rax	# def_15->fld[3].rtx, D.11936
	movzwl	(%rax), %eax	# _19->code, D.11933
	cmpw	$47, %ax	#, D.11933
	jne	.L149	#,
	.loc 1 860 0 discriminator 3
	movq	-24(%rbp), %rax	# def, tmp137
	movq	32(%rax), %rax	# def_15->fld[3].rtx, iftmp.167
	jmp	.L151	#
.L149:
	.loc 1 860 0 discriminator 4
	movq	-24(%rbp), %rax	# def, tmp138
	movq	32(%rax), %rdx	# def_15->fld[3].rtx, D.11936
	movq	-24(%rbp), %rax	# def, tmp139
	movq	%rdx, %rsi	# D.11936,
	movq	%rax, %rdi	# tmp139,
	call	single_set_2	#
	jmp	.L151	#
.L148:
	.loc 1 860 0 discriminator 2
	movl	$0, %eax	#, iftmp.166
.L151:
	.loc 1 860 0 discriminator 5
	movq	%rax, -16(%rbp)	# iftmp.166, set
	.loc 1 863 0 is_stmt 1 discriminator 5
	cmpq	$0, -16(%rbp)	#, set
	jne	.L152	#,
	.loc 1 864 0
	jmp	.L147	#
.L152:
	.loc 1 873 0
	cmpq	$0, -24(%rbp)	#, def
	je	.L153	#,
	.loc 1 873 0 is_stmt 0 discriminator 1
	movq	-24(%rbp), %rax	# def, tmp140
	movzwl	(%rax), %eax	# def_15->code, D.11933
	cmpw	$32, %ax	#, D.11933
	jne	.L153	#,
	movq	-24(%rbp), %rax	# def, tmp141
	movq	32(%rax), %rax	# def_15->fld[3].rtx, D.11936
	movzwl	(%rax), %eax	# _28->code, D.11933
	cmpw	$47, %ax	#, D.11933
	jne	.L153	#,
	movq	-24(%rbp), %rax	# def, tmp142
	movq	32(%rax), %rax	# def_15->fld[3].rtx, D.11936
	movq	16(%rax), %rax	# _30->fld[1].rtx, D.11936
	movzwl	(%rax), %eax	# _31->code, D.11933
	cmpw	$152, %ax	#, D.11933
	je	.L154	#,
.L153:
	.loc 1 874 0 is_stmt 1
	movq	-24(%rbp), %rax	# def, tmp143
	movzwl	(%rax), %eax	# def_15->code, D.11933
	cmpw	$32, %ax	#, D.11933
	jne	.L155	#,
	.loc 1 875 0 discriminator 1
	movq	-16(%rbp), %rax	# set, tmp144
	movq	16(%rax), %rax	# set_26->fld[1].rtx, D.11936
	movzwl	(%rax), %eax	# _34->code, D.11933
	.loc 1 874 0 discriminator 1
	cmpw	$54, %ax	#, D.11933
	je	.L154	#,
.L155:
	.loc 1 877 0
	movq	rtl_dump_file(%rip), %rax	# rtl_dump_file, rtl_dump_file.168
	testq	%rax, %rax	# rtl_dump_file.168
	je	.L156	#,
	.loc 1 880 0
	movq	-24(%rbp), %rax	# def, tmp145
	movq	32(%rax), %rax	# def_15->fld[3].rtx, D.11936
	movq	8(%rax), %rax	# _37->fld[0].rtx, D.11936
	.loc 1 878 0
	movl	8(%rax), %edx	# _38->fld[0].rtuint, D.11937
	movq	rtl_dump_file(%rip), %rax	# rtl_dump_file, rtl_dump_file.169
	movl	$.LC2, %esi	#,
	movq	%rax, %rdi	# rtl_dump_file.169,
	movl	$0, %eax	#,
	call	fprintf	#
.L156:
	.loc 1 881 0
	movq	values(%rip), %rax	# values, values.170
	movl	-36(%rbp), %edx	# i, D.11930
	salq	$4, %rdx	#, D.11930
	addq	%rdx, %rax	# D.11930, D.11931
	movq	8(%rax), %rdx	# _44->const_value, D.11936
	movq	-16(%rbp), %rax	# set, tmp146
	movq	%rdx, 16(%rax)	# D.11936, set_26->fld[1].rtx
	.loc 1 882 0
	movq	-24(%rbp), %rax	# def, tmp147
	movl	$-1, 40(%rax)	#, def_15->fld[4].rtint
	.loc 1 883 0
	movq	basic_block_for_insn(%rip), %rax	# basic_block_for_insn, basic_block_for_insn.171
	movq	-24(%rbp), %rdx	# def, tmp148
	movl	8(%rdx), %edx	# def_15->fld[0].rtint, D.11934
	movslq	%edx, %rdx	# D.11934, tmp149
	addq	$4, %rdx	#, tmp150
	movq	(%rax,%rdx,8), %rcx	# basic_block_for_insn.171_46->data.bb, D.11938
	movq	df_analyzer(%rip), %rax	# df_analyzer, df_analyzer.172
	movq	-24(%rbp), %rdx	# def, tmp151
	movq	%rcx, %rsi	# D.11938,
	movq	%rax, %rdi	# df_analyzer.172,
	call	df_insn_modify	#
.L154:
	.loc 1 890 0
	movq	df_analyzer(%rip), %rax	# df_analyzer, df_analyzer.173
	movq	40(%rax), %rax	# df_analyzer.173_50->regs, D.11939
	movl	-36(%rbp), %edx	# i, D.11930
	salq	$5, %rdx	#, D.11930
	addq	%rdx, %rax	# D.11930, D.11939
	movq	8(%rax), %rax	# _54->uses, tmp152
	movq	%rax, -32(%rbp)	# tmp152, curruse
	jmp	.L157	#
.L162:
.LBB26:
	.loc 1 896 0
	movq	-32(%rbp), %rax	# curruse, tmp153
	movq	8(%rax), %rax	# curruse_2->ref, D.11940
	movq	8(%rax), %rax	# _56->insn, tmp154
	movq	%rax, -8(%rbp)	# tmp154, useinsn
	.loc 1 898 0
	movq	-8(%rbp), %rax	# useinsn, tmp155
	movzbl	3(%rax), %eax	# *useinsn_57, D.11941
	andl	$8, %eax	#, D.11941
	testb	%al, %al	# D.11941
	jne	.L158	#,
	.loc 1 899 0
	movq	-8(%rbp), %rax	# useinsn, tmp156
	movzwl	(%rax), %eax	# useinsn_57->code, D.11933
	cmpw	$37, %ax	#, D.11933
	jne	.L159	#,
	.loc 1 900 0 discriminator 1
	movq	-8(%rbp), %rax	# useinsn, tmp157
	movl	40(%rax), %eax	# useinsn_57->fld[4].rtint, D.11934
	.loc 1 899 0 discriminator 1
	cmpl	$-99, %eax	#, D.11934
	je	.L158	#,
.L159:
	.loc 1 901 0
	movq	-8(%rbp), %rax	# useinsn, tmp158
	movzwl	(%rax), %eax	# useinsn_57->code, D.11933
	cmpw	$32, %ax	#, D.11933
	je	.L160	#,
	.loc 1 902 0
	movq	-8(%rbp), %rax	# useinsn, tmp159
	movzwl	(%rax), %eax	# useinsn_57->code, D.11933
	cmpw	$33, %ax	#, D.11933
	jne	.L158	#,
.L160:
	.loc 1 906 0
	movq	values(%rip), %rax	# values, values.174
	movl	-36(%rbp), %edx	# i, D.11930
	salq	$4, %rdx	#, D.11930
	addq	%rdx, %rax	# D.11930, D.11931
	.loc 1 905 0
	movq	8(%rax), %rcx	# _67->const_value, D.11936
	movq	cfun(%rip), %rax	# cfun, cfun.175
	movq	24(%rax), %rax	# cfun.175_69->emit, D.11942
	movq	80(%rax), %rax	# _70->x_regno_reg_rtx, D.11943
	movl	-36(%rbp), %edx	# i, D.11930
	salq	$3, %rdx	#, D.11930
	addq	%rdx, %rax	# D.11930, D.11943
	movq	(%rax), %rax	# *_74, D.11936
	movq	-8(%rbp), %rdx	# useinsn, tmp160
	movq	%rcx, %rsi	# D.11936,
	movq	%rax, %rdi	# D.11936,
	call	validate_replace_src	#
	testl	%eax, %eax	# D.11934
	je	.L158	#,
	.loc 1 909 0
	movq	rtl_dump_file(%rip), %rax	# rtl_dump_file, rtl_dump_file.176
	testq	%rax, %rax	# rtl_dump_file.176
	je	.L161	#,
	.loc 1 910 0
	movq	-8(%rbp), %rax	# useinsn, tmp161
	movl	8(%rax), %ecx	# useinsn_57->fld[0].rtint, D.11934
	movq	rtl_dump_file(%rip), %rax	# rtl_dump_file, rtl_dump_file.177
	movl	-36(%rbp), %edx	# i, tmp162
	movl	$.LC3, %esi	#,
	movq	%rax, %rdi	# rtl_dump_file.177,
	movl	$0, %eax	#,
	call	fprintf	#
.L161:
	.loc 1 913 0
	movq	-8(%rbp), %rax	# useinsn, tmp163
	movl	$-1, 40(%rax)	#, useinsn_57->fld[4].rtint
	.loc 1 915 0
	movq	basic_block_for_insn(%rip), %rax	# basic_block_for_insn, basic_block_for_insn.178
	movq	-8(%rbp), %rdx	# useinsn, tmp164
	movl	8(%rdx), %edx	# useinsn_57->fld[0].rtint, D.11934
	.loc 1 914 0
	movslq	%edx, %rdx	# D.11934, tmp165
	addq	$4, %rdx	#, tmp166
	movq	(%rax,%rdx,8), %rcx	# basic_block_for_insn.178_80->data.bb, D.11938
	movq	df_analyzer(%rip), %rax	# df_analyzer, df_analyzer.179
	movq	-8(%rbp), %rdx	# useinsn, tmp167
	movq	%rcx, %rsi	# D.11938,
	movq	%rax, %rdi	# df_analyzer.179,
	call	df_insn_modify	#
.L158:
.LBE26:
	.loc 1 892 0
	movq	-32(%rbp), %rax	# curruse, tmp168
	movq	(%rax), %rax	# curruse_2->next, tmp169
	movq	%rax, -32(%rbp)	# tmp169, curruse
.L157:
	.loc 1 890 0 discriminator 1
	cmpq	$0, -32(%rbp)	#, curruse
	jne	.L162	#,
.L147:
.LBE25:
	.loc 1 855 0
	addl	$1, -36(%rbp)	#, i
.L146:
	.loc 1 855 0 is_stmt 0 discriminator 1
	movl	-36(%rbp), %edx	# i, D.11930
	movq	ssa_definition(%rip), %rax	# ssa_definition, ssa_definition.180
	movq	(%rax), %rax	# ssa_definition.180_7->num_elements, D.11930
	cmpq	%rax, %rdx	# D.11930, D.11930
	jb	.L163	#,
	.loc 1 923 0 is_stmt 1
	leave
	.cfi_def_cfa 7, 8
	ret
	.cfi_endproc
.LFE9:
	.size	ssa_ccp_substitute_constants, .-ssa_ccp_substitute_constants
	.type	ssa_ccp_df_delete_unreachable_insns, @function
ssa_ccp_df_delete_unreachable_insns:
.LFB10:
	.loc 1 931 0
	.cfi_startproc
	pushq	%rbp	#
	.cfi_def_cfa_offset 16
	.cfi_offset 6, -16
	movq	%rsp, %rbp	#,
	.cfi_def_cfa_register 6
	subq	$48, %rsp	#,
	.loc 1 935 0
	call	find_unreachable_blocks	#
	.loc 1 940 0
	movl	n_basic_blocks(%rip), %eax	# n_basic_blocks, n_basic_blocks.181
	subl	$1, %eax	#, tmp76
	movl	%eax, -44(%rbp)	# tmp76, i
	jmp	.L165	#
.L172:
.LBB27:
	.loc 1 942 0
	movq	basic_block_info(%rip), %rax	# basic_block_info, basic_block_info.182
	movl	-44(%rbp), %edx	# i, tmp78
	movslq	%edx, %rdx	# tmp78, tmp77
	addq	$4, %rdx	#, tmp79
	movq	(%rax,%rdx,8), %rax	# basic_block_info.182_6->data.bb, tmp80
	movq	%rax, -24(%rbp)	# tmp80, b
	.loc 1 944 0
	movq	-24(%rbp), %rax	# b, tmp81
	movl	108(%rax), %eax	# b_7->flags, D.11946
	andl	$1, %eax	#, D.11946
	testl	%eax, %eax	# D.11946
	jne	.L166	#,
.LBB28:
	.loc 1 946 0
	movq	-24(%rbp), %rax	# b, tmp82
	movq	(%rax), %rax	# b_7->head, tmp83
	movq	%rax, -40(%rbp)	# tmp83, start
	.loc 1 947 0
	movq	-24(%rbp), %rax	# b, tmp84
	movq	8(%rax), %rax	# b_7->end, tmp85
	movq	%rax, -32(%rbp)	# tmp85, end
	.loc 1 951 0
	movq	-24(%rbp), %rax	# b, tmp86
	movq	8(%rax), %rax	# b_7->end, tmp87
	movq	%rax, -32(%rbp)	# tmp87, end
	.loc 1 952 0
	movq	-32(%rbp), %rax	# end, tmp88
	movzwl	(%rax), %eax	# end_12->code, D.11947
	cmpw	$33, %ax	#, D.11947
	jne	.L167	#,
	.loc 1 953 0
	movq	-32(%rbp), %rax	# end, tmp89
	movq	64(%rax), %rax	# end_12->fld[7].rtx, tmp90
	movq	%rax, -16(%rbp)	# tmp90, tmp
	cmpq	$0, -16(%rbp)	#, tmp
	je	.L167	#,
	.loc 1 954 0
	movq	-16(%rbp), %rax	# tmp, tmp91
	movq	24(%rax), %rax	# tmp_14->fld[2].rtx, tmp92
	movq	%rax, -16(%rbp)	# tmp92, tmp
	cmpq	$0, -16(%rbp)	#, tmp
	je	.L167	#,
	.loc 1 955 0
	movq	-16(%rbp), %rax	# tmp, tmp93
	movzwl	(%rax), %eax	# tmp_15->code, D.11947
	cmpw	$33, %ax	#, D.11947
	jne	.L167	#,
	.loc 1 956 0
	movq	-16(%rbp), %rax	# tmp, tmp94
	movq	32(%rax), %rax	# tmp_15->fld[3].rtx, D.11948
	movzwl	(%rax), %eax	# _17->code, D.11947
	cmpw	$44, %ax	#, D.11947
	je	.L168	#,
	.loc 1 957 0
	movq	-16(%rbp), %rax	# tmp, tmp95
	movq	32(%rax), %rax	# tmp_15->fld[3].rtx, D.11948
	movzwl	(%rax), %eax	# _19->code, D.11947
	cmpw	$45, %ax	#, D.11947
	jne	.L167	#,
.L168:
	.loc 1 958 0
	movq	-16(%rbp), %rax	# tmp, tmp96
	movq	%rax, -32(%rbp)	# tmp96, end
.L167:
.LBB29:
	.loc 1 962 0
	movq	-40(%rbp), %rax	# start, tmp97
	movq	24(%rax), %rax	# start_2->fld[2].rtx, tmp98
	movq	%rax, -8(%rbp)	# tmp98, next
	.loc 1 964 0
	movq	-40(%rbp), %rax	# start, tmp99
	movzwl	(%rax), %eax	# start_2->code, D.11947
	cmpw	$32, %ax	#, D.11947
	je	.L169	#,
	.loc 1 965 0
	movq	-40(%rbp), %rax	# start, tmp100
	movzwl	(%rax), %eax	# start_2->code, D.11947
	cmpw	$34, %ax	#, D.11947
	je	.L169	#,
	.loc 1 966 0
	movq	-40(%rbp), %rax	# start, tmp101
	movzwl	(%rax), %eax	# start_2->code, D.11947
	cmpw	$33, %ax	#, D.11947
	jne	.L170	#,
.L169:
	.loc 1 967 0
	movq	basic_block_for_insn(%rip), %rax	# basic_block_for_insn, basic_block_for_insn.183
	movq	-40(%rbp), %rdx	# start, tmp102
	movl	8(%rdx), %edx	# start_2->fld[0].rtint, D.11946
	movslq	%edx, %rdx	# D.11946, tmp103
	addq	$4, %rdx	#, tmp104
	movq	(%rax,%rdx,8), %rcx	# basic_block_for_insn.183_26->data.bb, D.11949
	movq	df_analyzer(%rip), %rax	# df_analyzer, df_analyzer.184
	movq	-40(%rbp), %rdx	# start, tmp105
	movq	%rcx, %rsi	# D.11949,
	movq	%rax, %rdi	# df_analyzer.184,
	call	df_insn_delete	#
.L170:
	.loc 1 969 0
	movq	-40(%rbp), %rax	# start, tmp106
	cmpq	-32(%rbp), %rax	# end, tmp106
	jne	.L171	#,
	.loc 1 970 0
	jmp	.L166	#
.L171:
	.loc 1 971 0
	movq	-8(%rbp), %rax	# next, tmp107
	movq	%rax, -40(%rbp)	# tmp107, start
.LBE29:
	.loc 1 972 0
	jmp	.L167	#
.L166:
.LBE28:
.LBE27:
	.loc 1 940 0
	subl	$1, -44(%rbp)	#, i
.L165:
	.loc 1 940 0 is_stmt 0 discriminator 1
	cmpl	$0, -44(%rbp)	#, i
	jns	.L172	#,
	.loc 1 975 0 is_stmt 1
	leave
	.cfi_def_cfa 7, 8
	ret
	.cfi_endproc
.LFE10:
	.size	ssa_ccp_df_delete_unreachable_insns, .-ssa_ccp_df_delete_unreachable_insns
	.globl	ssa_const_prop
	.type	ssa_const_prop, @function
ssa_const_prop:
.LFB11:
	.loc 1 985 0
	.cfi_startproc
	pushq	%rbp	#
	.cfi_def_cfa_offset 16
	.cfi_offset 6, -16
	movq	%rsp, %rbp	#,
	.cfi_def_cfa_register 6
	subq	$16, %rsp	#,
	.loc 1 990 0
	call	init_alias_analysis	#
	.loc 1 992 0
	call	df_init	#
	movq	%rax, df_analyzer(%rip)	# df_analyzer.185, df_analyzer
	.loc 1 993 0
	movq	df_analyzer(%rip), %rax	# df_analyzer, df_analyzer.186
	movl	$1248, %edx	#,
	movl	$0, %esi	#,
	movq	%rax, %rdi	# df_analyzer.186,
	call	df_analyse	#
	.loc 1 997 0
	call	get_max_uid	#
	movl	%eax, %edi	# D.11950,
	call	compute_bb_for_insn	#
	.loc 1 1002 0
	movq	df_analyzer(%rip), %rax	# df_analyzer, df_analyzer.187
	movq	%rax, %rdi	# df_analyzer.187,
	call	ssa_fast_dce	#
	.loc 1 1005 0
	call	create_edge_list	#
	movq	%rax, edges(%rip)	# edges.188, edges
	.loc 1 1008 0
	movq	ssa_definition(%rip), %rax	# ssa_definition, ssa_definition.189
	movq	(%rax), %rax	# ssa_definition.189_8->num_elements, D.11951
	salq	$4, %rax	#, D.11951
	movq	%rax, %rdi	# D.11951,
	call	xmalloc	#
	movq	%rax, values(%rip)	# values.190, values
	.loc 1 1009 0
	movl	$0, -16(%rbp)	#, i
	jmp	.L174	#
.L177:
	.loc 1 1011 0
	cmpl	$52, -16(%rbp)	#, i
	ja	.L175	#,
	.loc 1 1012 0
	movq	values(%rip), %rax	# values, values.191
	movl	-16(%rbp), %edx	# i, D.11951
	salq	$4, %rdx	#, D.11951
	addq	%rdx, %rax	# D.11951, D.11952
	movl	$2, (%rax)	#, _19->lattice_val
	jmp	.L176	#
.L175:
	.loc 1 1014 0
	movq	values(%rip), %rax	# values, values.192
	movl	-16(%rbp), %edx	# i, D.11951
	salq	$4, %rdx	#, D.11951
	addq	%rdx, %rax	# D.11951, D.11952
	movl	$0, (%rax)	#, _23->lattice_val
.L176:
	.loc 1 1015 0
	movq	values(%rip), %rax	# values, values.193
	movl	-16(%rbp), %edx	# i, D.11951
	salq	$4, %rdx	#, D.11951
	addq	%rdx, %rax	# D.11951, D.11952
	movq	$0, 8(%rax)	#, _27->const_value
	.loc 1 1009 0
	addl	$1, -16(%rbp)	#, i
.L174:
	.loc 1 1009 0 is_stmt 0 discriminator 1
	movl	-16(%rbp), %edx	# i, D.11951
	movq	ssa_definition(%rip), %rax	# ssa_definition, ssa_definition.194
	movq	(%rax), %rax	# ssa_definition.194_14->num_elements, D.11951
	cmpq	%rax, %rdx	# D.11951, D.11951
	jb	.L177	#,
	.loc 1 1018 0 is_stmt 1
	movq	ssa_definition(%rip), %rax	# ssa_definition, ssa_definition.195
	movq	(%rax), %rax	# ssa_definition.195_29->num_elements, D.11951
	movl	%eax, %edi	# D.11953,
	call	sbitmap_alloc	#
	movq	%rax, ssa_edges(%rip)	# ssa_edges.196, ssa_edges
	.loc 1 1019 0
	movq	ssa_edges(%rip), %rax	# ssa_edges, ssa_edges.197
	movq	%rax, %rdi	# ssa_edges.197,
	call	sbitmap_zero	#
	.loc 1 1021 0
	movl	n_basic_blocks(%rip), %eax	# n_basic_blocks, n_basic_blocks.198
	movl	%eax, %edi	# n_basic_blocks.199,
	call	sbitmap_alloc	#
	movq	%rax, executable_blocks(%rip)	# executable_blocks.200, executable_blocks
	.loc 1 1022 0
	movq	executable_blocks(%rip), %rax	# executable_blocks, executable_blocks.201
	movq	%rax, %rdi	# executable_blocks.201,
	call	sbitmap_zero	#
	.loc 1 1024 0
	movq	edges(%rip), %rax	# edges, edges.202
	movl	4(%rax), %eax	# edges.202_38->num_edges, D.11950
	movl	%eax, %edi	# D.11953,
	call	sbitmap_alloc	#
	movq	%rax, executable_edges(%rip)	# executable_edges.203, executable_edges
	.loc 1 1025 0
	movq	executable_edges(%rip), %rax	# executable_edges, executable_edges.204
	movq	%rax, %rdi	# executable_edges.204,
	call	sbitmap_zero	#
	.loc 1 1027 0
	movq	edges(%rip), %rax	# edges, edges.205
	movl	4(%rax), %eax	# edges.205_43->num_edges, D.11950
	cltq
	salq	$3, %rax	#, D.11951
	movq	%rax, %rdi	# D.11951,
	call	xmalloc	#
	movq	%rax, edge_info(%rip)	# edge_info.206, edge_info
	.loc 1 1028 0
	movq	entry_exit_blocks+40(%rip), %rax	# entry_exit_blocks[0].succ, flow_edges.207
	movq	%rax, flow_edges(%rip)	# flow_edges.207, flow_edges
	.loc 1 1032 0
	movq	entry_exit_blocks+40(%rip), %rax	# entry_exit_blocks[0].succ, tmp132
	movq	%rax, -8(%rbp)	# tmp132, curredge
	jmp	.L178	#
.L179:
.LBB30:
	.loc 1 1035 0
	movq	-8(%rbp), %rax	# curredge, tmp133
	movq	24(%rax), %rdx	# curredge_2->dest, D.11954
	movq	-8(%rbp), %rax	# curredge, tmp134
	movq	16(%rax), %rcx	# curredge_2->src, D.11954
	movq	edges(%rip), %rax	# edges, edges.208
	movq	%rcx, %rsi	# D.11954,
	movq	%rax, %rdi	# edges.208,
	call	find_edge_index	#
	movl	%eax, -12(%rbp)	# tmp135, index
	.loc 1 1036 0
	movq	executable_edges(%rip), %rdx	# executable_edges, executable_edges.209
	movl	-12(%rbp), %eax	# index, index.210
	shrl	$6, %eax	#, D.11953
	movq	executable_edges(%rip), %rcx	# executable_edges, executable_edges.211
	movl	%eax, %esi	# D.11953, tmp136
	addq	$2, %rsi	#, tmp137
	movq	(%rcx,%rsi,8), %rsi	# executable_edges.211_57->elms, D.11951
	movl	-12(%rbp), %ecx	# index, tmp138
	andl	$63, %ecx	#, D.11950
	movl	$1, %edi	#, tmp139
	salq	%cl, %rdi	# D.11950, D.11951
	movq	%rdi, %rcx	# D.11951, D.11951
	orq	%rsi, %rcx	# D.11951, D.11951
	movl	%eax, %eax	# D.11953, tmp140
	addq	$2, %rax	#, tmp141
	movq	%rcx, (%rdx,%rax,8)	# D.11951, executable_edges.209_54->elms
	.loc 1 1037 0
	movq	edge_info(%rip), %rax	# edge_info, edge_info.212
	movl	-12(%rbp), %edx	# index, tmp142
	movslq	%edx, %rdx	# tmp142, D.11951
	salq	$3, %rdx	#, D.11951
	addq	%rax, %rdx	# edge_info.212, D.11955
	movq	-8(%rbp), %rax	# curredge, tmp143
	movq	8(%rax), %rax	# curredge_2->succ_next, D.11956
	movq	%rax, (%rdx)	# D.11956, *_65
.LBE30:
	.loc 1 1033 0
	movq	-8(%rbp), %rax	# curredge, tmp144
	movq	8(%rax), %rax	# curredge_2->succ_next, tmp145
	movq	%rax, -8(%rbp)	# tmp145, curredge
.L178:
	.loc 1 1032 0 discriminator 1
	cmpq	$0, -8(%rbp)	#, curredge
	jne	.L179	#,
.L180:
	.loc 1 1043 0 discriminator 1
	call	examine_flow_edges	#
	.loc 1 1044 0 discriminator 1
	call	follow_def_use_chains	#
	.loc 1 1046 0 discriminator 1
	movq	flow_edges(%rip), %rax	# flow_edges, flow_edges.213
	testq	%rax, %rax	# flow_edges.213
	jne	.L180	#,
	.loc 1 1049 0
	call	ssa_ccp_substitute_constants	#
	.loc 1 1053 0
	movq	executable_edges(%rip), %rdx	# executable_edges, executable_edges.214
	movq	edges(%rip), %rax	# edges, edges.215
	movq	%rdx, %rsi	# executable_edges.214,
	movq	%rax, %rdi	# edges.215,
	call	optimize_unexecutable_edges	#
	.loc 1 1057 0
	call	ssa_ccp_df_delete_unreachable_insns	#
	.loc 1 1075 0
	movq	df_analyzer(%rip), %rax	# df_analyzer, df_analyzer.216
	movq	%rax, %rdi	# df_analyzer.216,
	call	ssa_fast_dce	#
	.loc 1 1077 0
	movq	values(%rip), %rax	# values, values.217
	movq	%rax, %rdi	# values.217,
	call	free	#
	.loc 1 1078 0
	movq	$0, values(%rip)	#, values
	.loc 1 1080 0
	movq	edge_info(%rip), %rax	# edge_info, edge_info.218
	movq	%rax, %rdi	# edge_info.218,
	call	free	#
	.loc 1 1081 0
	movq	$0, edge_info(%rip)	#, edge_info
	.loc 1 1083 0
	movq	executable_blocks(%rip), %rax	# executable_blocks, executable_blocks.219
	movq	%rax, %rdi	# executable_blocks.219,
	call	free	#
	.loc 1 1084 0
	movq	$0, executable_blocks(%rip)	#, executable_blocks
	.loc 1 1086 0
	movq	ssa_edges(%rip), %rax	# ssa_edges, ssa_edges.220
	movq	%rax, %rdi	# ssa_edges.220,
	call	free	#
	.loc 1 1087 0
	movq	$0, ssa_edges(%rip)	#, ssa_edges
	.loc 1 1089 0
	movq	edges(%rip), %rax	# edges, edges.221
	movq	%rax, %rdi	# edges.221,
	call	free_edge_list	#
	.loc 1 1090 0
	movq	$0, edges(%rip)	#, edges
	.loc 1 1092 0
	movq	executable_edges(%rip), %rax	# executable_edges, executable_edges.222
	movq	%rax, %rdi	# executable_edges.222,
	call	free	#
	.loc 1 1093 0
	movq	$0, executable_edges(%rip)	#, executable_edges
	.loc 1 1095 0
	movq	df_analyzer(%rip), %rax	# df_analyzer, df_analyzer.223
	movq	%rax, %rdi	# df_analyzer.223,
	call	df_finish	#
	.loc 1 1096 0
	call	end_alias_analysis	#
	.loc 1 1097 0
	leave
	.cfi_def_cfa 7, 8
	ret
	.cfi_endproc
.LFE11:
	.size	ssa_const_prop, .-ssa_const_prop
	.type	mark_references, @function
mark_references:
.LFB12:
	.loc 1 1103 0
	.cfi_startproc
	pushq	%rbp	#
	.cfi_def_cfa_offset 16
	.cfi_offset 6, -16
	movq	%rsp, %rbp	#,
	.cfi_def_cfa_register 6
	subq	$48, %rsp	#,
	movq	%rdi, -40(%rbp)	# current_rtx, current_rtx
	movq	%rsi, -48(%rbp)	# data, data
	.loc 1 1104 0
	movq	-40(%rbp), %rax	# current_rtx, tmp91
	movq	(%rax), %rax	# *current_rtx_3(D), tmp92
	movq	%rax, -24(%rbp)	# tmp92, x
	.loc 1 1105 0
	movq	-48(%rbp), %rax	# data, tmp93
	movq	%rax, -16(%rbp)	# tmp93, worklist
	.loc 1 1107 0
	cmpq	$0, -24(%rbp)	#, x
	jne	.L182	#,
	.loc 1 1108 0
	movl	$0, %eax	#, D.11957
	jmp	.L183	#
.L182:
	.loc 1 1110 0
	movq	-24(%rbp), %rax	# x, tmp94
	movzwl	(%rax), %eax	# x_4->code, D.11958
	cmpw	$47, %ax	#, D.11958
	jne	.L184	#,
.LBB31:
	.loc 1 1112 0
	movq	-24(%rbp), %rax	# x, tmp95
	movq	8(%rax), %rax	# x_4->fld[0].rtx, tmp96
	movq	%rax, -8(%rbp)	# tmp96, dest
	.loc 1 1114 0
	movq	-8(%rbp), %rax	# dest, tmp97
	movzwl	(%rax), %eax	# dest_9->code, D.11958
	cmpw	$64, %ax	#, D.11958
	je	.L185	#,
	.loc 1 1115 0
	movq	-8(%rbp), %rax	# dest, tmp98
	movzwl	(%rax), %eax	# dest_9->code, D.11958
	cmpw	$63, %ax	#, D.11958
	je	.L185	#,
	.loc 1 1116 0
	movq	-8(%rbp), %rax	# dest, tmp99
	movzwl	(%rax), %eax	# dest_9->code, D.11958
	cmpw	$132, %ax	#, D.11958
	je	.L185	#,
	.loc 1 1117 0
	movq	-8(%rbp), %rax	# dest, tmp100
	movzwl	(%rax), %eax	# dest_9->code, D.11958
	cmpw	$133, %ax	#, D.11958
	jne	.L186	#,
.L185:
.LBB32:
	.loc 1 1121 0
	movq	-8(%rbp), %rax	# dest, tmp101
	movq	%rax, -32(%rbp)	# tmp101, reg
	.loc 1 1123 0
	jmp	.L187	#
.L188:
	.loc 1 1127 0
	movq	-32(%rbp), %rax	# reg, tmp102
	movq	8(%rax), %rax	# reg_1->fld[0].rtx, tmp103
	movq	%rax, -32(%rbp)	# tmp103, reg
.L187:
	.loc 1 1123 0 discriminator 1
	movq	-32(%rbp), %rax	# reg, tmp104
	movzwl	(%rax), %eax	# reg_1->code, D.11958
	cmpw	$64, %ax	#, D.11958
	je	.L188	#,
	.loc 1 1124 0
	movq	-32(%rbp), %rax	# reg, tmp105
	movzwl	(%rax), %eax	# reg_1->code, D.11958
	cmpw	$63, %ax	#, D.11958
	je	.L188	#,
	.loc 1 1125 0
	movq	-32(%rbp), %rax	# reg, tmp106
	movzwl	(%rax), %eax	# reg_1->code, D.11958
	cmpw	$132, %ax	#, D.11958
	je	.L188	#,
	.loc 1 1126 0
	movq	-32(%rbp), %rax	# reg, tmp107
	movzwl	(%rax), %eax	# reg_1->code, D.11958
	cmpw	$133, %ax	#, D.11958
	je	.L188	#,
	.loc 1 1129 0
	movq	-32(%rbp), %rax	# reg, tmp108
	movzwl	(%rax), %eax	# reg_1->code, D.11958
	cmpw	$61, %ax	#, D.11958
	jne	.L186	#,
	.loc 1 1130 0
	movq	-32(%rbp), %rax	# reg, tmp109
	movl	8(%rax), %eax	# reg_1->fld[0].rtuint, D.11959
	shrl	$6, %eax	#, D.11959
	movq	-16(%rbp), %rdx	# worklist, tmp110
	movl	%eax, %ecx	# D.11959, tmp111
	addq	$2, %rcx	#, tmp112
	movq	(%rdx,%rcx,8), %rsi	# worklist_6->elms, D.11960
	movq	-32(%rbp), %rdx	# reg, tmp113
	movl	8(%rdx), %edx	# reg_1->fld[0].rtuint, D.11959
	andl	$63, %edx	#, D.11957
	movl	$1, %edi	#, tmp114
	movl	%edx, %ecx	# D.11957, tmp134
	salq	%cl, %rdi	# tmp134, D.11960
	movq	%rdi, %rdx	# D.11960, D.11960
	orq	%rdx, %rsi	# D.11960, D.11960
	movq	%rsi, %rcx	# D.11960, D.11960
	movq	-16(%rbp), %rdx	# worklist, tmp115
	movl	%eax, %eax	# D.11959, tmp116
	addq	$2, %rax	#, tmp117
	movq	%rcx, (%rdx,%rax,8)	# D.11960, worklist_6->elms
.L186:
.LBE32:
	.loc 1 1133 0
	movq	-8(%rbp), %rax	# dest, tmp118
	movzwl	(%rax), %eax	# dest_9->code, D.11958
	cmpw	$61, %ax	#, D.11958
	jne	.L189	#,
	.loc 1 1135 0
	movq	-24(%rbp), %rax	# x, tmp119
	leaq	16(%rax), %rcx	#, D.11961
	movq	-48(%rbp), %rax	# data, tmp120
	movq	%rax, %rdx	# tmp120,
	movl	$mark_references, %esi	#,
	movq	%rcx, %rdi	# D.11961,
	call	for_each_rtx	#
	.loc 1 1136 0
	movl	$-1, %eax	#, D.11957
	jmp	.L183	#
.L189:
	.loc 1 1139 0
	movl	$0, %eax	#, D.11957
	jmp	.L183	#
.L184:
.LBE31:
	.loc 1 1141 0
	movq	-24(%rbp), %rax	# x, tmp121
	movzwl	(%rax), %eax	# x_4->code, D.11958
	cmpw	$61, %ax	#, D.11958
	jne	.L190	#,
	.loc 1 1143 0
	movq	-24(%rbp), %rax	# x, tmp122
	movl	8(%rax), %eax	# x_4->fld[0].rtuint, D.11959
	shrl	$6, %eax	#, D.11959
	movq	-16(%rbp), %rdx	# worklist, tmp123
	movl	%eax, %ecx	# D.11959, tmp124
	addq	$2, %rcx	#, tmp125
	movq	(%rdx,%rcx,8), %rsi	# worklist_6->elms, D.11960
	movq	-24(%rbp), %rdx	# x, tmp126
	movl	8(%rdx), %edx	# x_4->fld[0].rtuint, D.11959
	andl	$63, %edx	#, D.11957
	movl	$1, %edi	#, tmp127
	movl	%edx, %ecx	# D.11957, tmp137
	salq	%cl, %rdi	# tmp137, D.11960
	movq	%rdi, %rdx	# D.11960, D.11960
	orq	%rdx, %rsi	# D.11960, D.11960
	movq	%rsi, %rcx	# D.11960, D.11960
	movq	-16(%rbp), %rdx	# worklist, tmp128
	movl	%eax, %eax	# D.11959, tmp129
	addq	$2, %rax	#, tmp130
	movq	%rcx, (%rdx,%rax,8)	# D.11960, worklist_6->elms
	.loc 1 1144 0
	movl	$-1, %eax	#, D.11957
	jmp	.L183	#
.L190:
	.loc 1 1146 0
	movq	-24(%rbp), %rax	# x, tmp131
	movzwl	(%rax), %eax	# x_4->code, D.11958
	cmpw	$49, %ax	#, D.11958
	jne	.L191	#,
	.loc 1 1147 0
	movl	$-1, %eax	#, D.11957
	jmp	.L183	#
.L191:
	.loc 1 1149 0
	movl	$0, %eax	#, D.11957
.L183:
	.loc 1 1150 0
	leave
	.cfi_def_cfa 7, 8
	ret
	.cfi_endproc
.LFE12:
	.size	mark_references, .-mark_references
	.type	ssa_fast_dce, @function
ssa_fast_dce:
.LFB13:
	.loc 1 1155 0
	.cfi_startproc
	pushq	%rbp	#
	.cfi_def_cfa_offset 16
	.cfi_offset 6, -16
	movq	%rsp, %rbp	#,
	.cfi_def_cfa_register 6
	subq	$48, %rsp	#,
	movq	%rdi, -40(%rbp)	# df, df
	.loc 1 1156 0
	movq	ssa_definition(%rip), %rax	# ssa_definition, ssa_definition.224
	movq	(%rax), %rax	# ssa_definition.224_3->num_elements, D.11962
	movl	%eax, %edi	# D.11963,
	call	sbitmap_alloc	#
	movq	%rax, -16(%rbp)	# tmp114, worklist
	.loc 1 1157 0
	movq	-16(%rbp), %rax	# worklist, tmp115
	movq	%rax, %rdi	# tmp115,
	call	sbitmap_ones	#
	.loc 1 1161 0
	jmp	.L193	#
.L202:
.LBB33:
	.loc 1 1167 0
	movq	-16(%rbp), %rax	# worklist, tmp116
	movq	%rax, %rdi	# tmp116,
	call	sbitmap_first_set_bit	#
	movl	%eax, -28(%rbp)	# tmp117, reg
	.loc 1 1168 0
	movl	-28(%rbp), %eax	# reg, reg.225
	shrl	$6, %eax	#, D.11963
	movq	-16(%rbp), %rdx	# worklist, tmp118
	movl	%eax, %ecx	# D.11963, tmp119
	addq	$2, %rcx	#, tmp120
	movq	(%rdx,%rcx,8), %rdx	# worklist_6->elms, D.11962
	movl	-28(%rbp), %ecx	# reg, tmp121
	andl	$63, %ecx	#, D.11964
	movl	$1, %esi	#, tmp122
	salq	%cl, %rsi	# D.11964, D.11962
	movq	%rsi, %rcx	# D.11962, D.11962
	notq	%rcx	# D.11962
	andq	%rdx, %rcx	# D.11962, D.11962
	movq	-16(%rbp), %rdx	# worklist, tmp123
	movl	%eax, %eax	# D.11963, tmp124
	addq	$2, %rax	#, tmp125
	movq	%rcx, (%rdx,%rax,8)	# D.11962, worklist_6->elms
	.loc 1 1173 0
	cmpl	$52, -28(%rbp)	#, reg
	jle	.L194	#,
	.loc 1 1174 0
	movq	ssa_definition(%rip), %rax	# ssa_definition, ssa_definition.226
	movl	-28(%rbp), %edx	# reg, tmp127
	movslq	%edx, %rdx	# tmp127, tmp126
	addq	$4, %rdx	#, tmp128
	movq	(%rax,%rdx,8), %rax	# ssa_definition.226_16->data.rtx, D.11965
	testq	%rax, %rax	# D.11965
	je	.L194	#,
	.loc 1 1175 0
	movq	ssa_definition(%rip), %rax	# ssa_definition, ssa_definition.227
	movl	-28(%rbp), %edx	# reg, tmp130
	movslq	%edx, %rdx	# tmp130, tmp129
	addq	$4, %rdx	#, tmp131
	movq	(%rax,%rdx,8), %rax	# ssa_definition.227_18->data.rtx, D.11965
	movzbl	3(%rax), %eax	# *_19, D.11966
	andl	$8, %eax	#, D.11966
	testb	%al, %al	# D.11966
	jne	.L194	#,
	.loc 1 1176 0
	movq	ssa_definition(%rip), %rax	# ssa_definition, ssa_definition.228
	movl	-28(%rbp), %edx	# reg, tmp133
	movslq	%edx, %rdx	# tmp133, tmp132
	addq	$4, %rdx	#, tmp134
	movq	(%rax,%rdx,8), %rax	# ssa_definition.228_22->data.rtx, D.11965
	movzwl	(%rax), %eax	# _23->code, D.11967
	cmpw	$37, %ax	#, D.11967
	jne	.L195	#,
	.loc 1 1177 0
	movq	ssa_definition(%rip), %rax	# ssa_definition, ssa_definition.229
	movl	-28(%rbp), %edx	# reg, tmp136
	movslq	%edx, %rdx	# tmp136, tmp135
	addq	$4, %rdx	#, tmp137
	movq	(%rax,%rdx,8), %rax	# ssa_definition.229_25->data.rtx, D.11965
	movl	40(%rax), %eax	# _26->fld[4].rtint, D.11964
	cmpl	$-99, %eax	#, D.11964
	je	.L194	#,
.L195:
	.loc 1 1179 0
	movq	ssa_definition(%rip), %rax	# ssa_definition, ssa_definition.230
	movl	-28(%rbp), %edx	# reg, tmp139
	movslq	%edx, %rdx	# tmp139, tmp138
	addq	$4, %rdx	#, tmp140
	movq	(%rax,%rdx,8), %rax	# ssa_definition.230_28->data.rtx, D.11965
	movq	32(%rax), %rax	# _29->fld[3].rtx, D.11965
	movq	%rax, %rdi	# D.11965,
	call	side_effects_p	#
	testl	%eax, %eax	# D.11964
	je	.L196	#,
.L194:
	.loc 1 1180 0
	jmp	.L193	#
.L196:
	.loc 1 1185 0
	movl	$0, -32(%rbp)	#, found_use
	.loc 1 1186 0
	movq	-40(%rbp), %rax	# df, tmp141
	movq	40(%rax), %rax	# df_33(D)->regs, D.11968
	movl	-28(%rbp), %edx	# reg, tmp142
	movslq	%edx, %rdx	# tmp142, D.11962
	salq	$5, %rdx	#, D.11962
	addq	%rdx, %rax	# D.11962, D.11968
	movq	8(%rax), %rax	# _37->uses, tmp143
	movq	%rax, -24(%rbp)	# tmp143, curruse
	jmp	.L197	#
.L201:
	.loc 1 1188 0
	movq	-24(%rbp), %rax	# curruse, tmp144
	movq	8(%rax), %rax	# curruse_1->ref, D.11969
	testq	%rax, %rax	# D.11969
	je	.L198	#,
	.loc 1 1189 0
	movq	-24(%rbp), %rax	# curruse, tmp145
	movq	8(%rax), %rax	# curruse_1->ref, D.11969
	movq	8(%rax), %rax	# _40->insn, D.11965
	testq	%rax, %rax	# D.11965
	je	.L198	#,
	.loc 1 1190 0
	movq	-24(%rbp), %rax	# curruse, tmp146
	movq	8(%rax), %rax	# curruse_1->ref, D.11969
	movq	8(%rax), %rax	# _42->insn, D.11965
	movzbl	3(%rax), %eax	# *_43, D.11966
	andl	$8, %eax	#, D.11966
	testb	%al, %al	# D.11966
	jne	.L198	#,
	.loc 1 1191 0
	movq	-24(%rbp), %rax	# curruse, tmp147
	movq	8(%rax), %rax	# curruse_1->ref, D.11969
	movq	8(%rax), %rax	# _46->insn, D.11965
	movzwl	(%rax), %eax	# _47->code, D.11967
	cmpw	$37, %ax	#, D.11967
	jne	.L199	#,
	.loc 1 1192 0 discriminator 1
	movq	-24(%rbp), %rax	# curruse, tmp148
	movq	8(%rax), %rax	# curruse_1->ref, D.11969
	movq	8(%rax), %rax	# _49->insn, D.11965
	movl	40(%rax), %eax	# _50->fld[4].rtint, D.11964
	.loc 1 1191 0 discriminator 1
	cmpl	$-99, %eax	#, D.11964
	je	.L198	#,
.L199:
	.loc 1 1194 0
	movq	-24(%rbp), %rax	# curruse, tmp149
	movq	8(%rax), %rax	# curruse_1->ref, D.11969
	movq	8(%rax), %rdx	# _52->insn, D.11965
	movq	ssa_definition(%rip), %rax	# ssa_definition, ssa_definition.231
	movl	-28(%rbp), %ecx	# reg, tmp151
	movslq	%ecx, %rcx	# tmp151, tmp150
	addq	$4, %rcx	#, tmp152
	movq	(%rax,%rcx,8), %rax	# ssa_definition.231_54->data.rtx, D.11965
	cmpq	%rax, %rdx	# D.11965, D.11965
	je	.L198	#,
	.loc 1 1196 0
	movl	$1, -32(%rbp)	#, found_use
	.loc 1 1197 0
	jmp	.L200	#
.L198:
	.loc 1 1186 0
	movq	-24(%rbp), %rax	# curruse, tmp153
	movq	(%rax), %rax	# curruse_1->next, tmp154
	movq	%rax, -24(%rbp)	# tmp154, curruse
.L197:
	.loc 1 1186 0 is_stmt 0 discriminator 1
	cmpq	$0, -24(%rbp)	#, curruse
	jne	.L201	#,
.L200:
	.loc 1 1204 0 is_stmt 1
	cmpl	$0, -32(%rbp)	#, found_use
	jne	.L193	#,
.LBB34:
	.loc 1 1206 0
	movq	ssa_definition(%rip), %rax	# ssa_definition, ssa_definition.232
	movl	-28(%rbp), %edx	# reg, tmp156
	movslq	%edx, %rdx	# tmp156, tmp155
	addq	$4, %rdx	#, tmp157
	movq	(%rax,%rdx,8), %rax	# ssa_definition.232_58->data.rtx, tmp158
	movq	%rax, -8(%rbp)	# tmp158, def
	.loc 1 1210 0
	movq	-8(%rbp), %rax	# def, tmp159
	leaq	32(%rax), %rcx	#, D.11970
	movq	-16(%rbp), %rax	# worklist, tmp160
	movq	%rax, %rdx	# tmp160,
	movl	$mark_references, %esi	#,
	movq	%rcx, %rdi	# D.11970,
	call	for_each_rtx	#
	.loc 1 1214 0
	movq	basic_block_for_insn(%rip), %rax	# basic_block_for_insn, basic_block_for_insn.233
	movq	-8(%rbp), %rdx	# def, tmp161
	movl	8(%rdx), %edx	# def_59->fld[0].rtint, D.11964
	movslq	%edx, %rdx	# D.11964, tmp162
	addq	$4, %rdx	#, tmp163
	movq	(%rax,%rdx,8), %rcx	# basic_block_for_insn.233_61->data.bb, D.11971
	movq	-8(%rbp), %rdx	# def, tmp164
	movq	-40(%rbp), %rax	# df, tmp165
	movq	%rcx, %rsi	# D.11971,
	movq	%rax, %rdi	# tmp165,
	call	df_insn_delete	#
	.loc 1 1216 0
	movq	ssa_definition(%rip), %rax	# ssa_definition, ssa_definition.234
	movl	-28(%rbp), %edx	# reg, tmp167
	movslq	%edx, %rdx	# tmp167, tmp166
	addq	$4, %rdx	#, tmp168
	movq	$0, (%rax,%rdx,8)	#, ssa_definition.234_64->data.rtx
.L193:
.LBE34:
.LBE33:
	.loc 1 1161 0 discriminator 1
	movq	-16(%rbp), %rax	# worklist, tmp169
	movq	%rax, %rdi	# tmp169,
	call	sbitmap_first_set_bit	#
	testl	%eax, %eax	# D.11964
	jns	.L202	#,
	.loc 1 1220 0
	movq	-16(%rbp), %rax	# worklist, tmp170
	movq	%rax, %rdi	# tmp170,
	call	free	#
	.loc 1 1223 0
	movq	df_analyzer(%rip), %rax	# df_analyzer, df_analyzer.235
	movl	$1248, %edx	#,
	movl	$0, %esi	#,
	movq	%rax, %rdi	# df_analyzer.235,
	call	df_analyse	#
	.loc 1 1225 0
	leave
	.cfi_def_cfa 7, 8
	ret
	.cfi_endproc
.LFE13:
	.size	ssa_fast_dce, .-ssa_fast_dce
.Letext0:
	.file 2 "rtl.h"
	.file 3 "config.h"
	.file 4 "i386.h"
	.file 5 "/usr/lib/gcc/x86_64-linux-gnu/4.8/include/stddef.h"
	.file 6 "/usr/include/x86_64-linux-gnu/bits/types.h"
	.file 7 "/usr/include/stdio.h"
	.file 8 "/usr/include/libio.h"
	.file 9 "machmode.h"
	.file 10 "bitmap.h"
	.file 11 "basic-block.h"
	.file 12 "sbitmap.h"
	.file 13 "varray.h"
	.file 14 "df.h"
	.file 15 "function.h"
	.file 16 "ssa.h"
	.file 17 "output.h"
	.section	.note.GNU-stack,"",@progbits
