	.file	"stmt.c"
# GNU C (Ubuntu/Linaro 4.8.1-10ubuntu9) version 4.8.1 (x86_64-linux-gnu)
#	compiled by GNU C version 4.8.1, GMP version 5.1.2, MPFR version 3.1.1-p2, MPC version 1.0.1
# GGC heuristics: --param ggc-min-expand=100 --param ggc-min-heapsize=131072
# options passed:  -I . -imultiarch x86_64-linux-gnu -D SPEC_CPU -D NDEBUG
# -D SPEC_CPU_LP64 stmt.c -mtune=generic -march=x86-64 -g -fverbose-asm
# -fno-strict-aliasing -fstack-protector -Wformat -Wformat-security
# options enabled:  -faggressive-loop-optimizations
# -fasynchronous-unwind-tables -fauto-inc-dec -fbranch-count-reg -fcommon
# -fdelete-null-pointer-checks -fdwarf2-cfi-asm -fearly-inlining
# -feliminate-unused-debug-types -ffunction-cse -fgcse-lm -fgnu-runtime
# -fident -finline-atomics -fira-hoist-pressure -fira-share-save-slots
# -fira-share-spill-slots -fivopts -fkeep-static-consts
# -fleading-underscore -fmath-errno -fmerge-debug-strings
# -fmove-loop-invariants -fpeephole -fprefetch-loop-arrays
# -freg-struct-return -fsched-critical-path-heuristic
# -fsched-dep-count-heuristic -fsched-group-heuristic -fsched-interblock
# -fsched-last-insn-heuristic -fsched-rank-heuristic -fsched-spec
# -fsched-spec-insn-heuristic -fsched-stalled-insns-dep -fshow-column
# -fsigned-zeros -fsplit-ivs-in-unroller -fstack-protector
# -fstrict-volatile-bitfields -fsync-libcalls -ftrapping-math
# -ftree-coalesce-vars -ftree-cselim -ftree-forwprop -ftree-loop-if-convert
# -ftree-loop-im -ftree-loop-ivcanon -ftree-loop-optimize
# -ftree-parallelize-loops= -ftree-phiprop -ftree-pta -ftree-reassoc
# -ftree-scev-cprop -ftree-slp-vectorize -ftree-vect-loop-version
# -funit-at-a-time -funwind-tables -fverbose-asm -fzero-initialized-in-bss
# -m128bit-long-double -m64 -m80387 -maccumulate-outgoing-args
# -malign-stringops -mfancy-math-387 -mfp-ret-in-387 -mfxsr -mglibc
# -mieee-fp -mlong-double-80 -mmmx -mno-sse4 -mpush-args -mred-zone -msse
# -msse2 -mtls-direct-seg-refs

	.text
.Ltext0:
	.comm	stmt_obstack,88,32
	.local	cost_table_
	.comm	cost_table_,258,32
	.local	use_cost_table
	.comm	use_cost_table,4,4
	.local	cost_table_initialized
	.comm	cost_table_initialized,4,4
	.local	using_eh_for_cleanups_p
	.comm	using_eh_for_cleanups_p,4,4
	.globl	using_eh_for_cleanups
	.type	using_eh_for_cleanups, @function
using_eh_for_cleanups:
.LFB2:
	.file 1 "stmt.c"
	.loc 1 441 0
	.cfi_startproc
	pushq	%rbp	#
	.cfi_def_cfa_offset 16
	.cfi_offset 6, -16
	movq	%rsp, %rbp	#,
	.cfi_def_cfa_register 6
	.loc 1 442 0
	movl	$1, using_eh_for_cleanups_p(%rip)	#, using_eh_for_cleanups_p
	.loc 1 443 0
	popq	%rbp	#
	.cfi_def_cfa 7, 8
	ret
	.cfi_endproc
.LFE2:
	.size	using_eh_for_cleanups, .-using_eh_for_cleanups
	.type	mark_cond_nesting, @function
mark_cond_nesting:
.LFB3:
	.loc 1 450 0
	.cfi_startproc
	pushq	%rbp	#
	.cfi_def_cfa_offset 16
	.cfi_offset 6, -16
	movq	%rsp, %rbp	#,
	.cfi_def_cfa_register 6
	subq	$48, %rsp	#,
	movq	%rdi, -40(%rbp)	# n, n
	.loc 1 451 0
	jmp	.L3	#
.L7:
.LBB2:
	.loc 1 453 0
	movq	-40(%rbp), %rax	# n, tmp62
	movq	24(%rax), %rax	# n_1->exit_label, tmp63
	movq	%rax, -24(%rbp)	# tmp63, r__
	cmpq	$0, -24(%rbp)	#, r__
	je	.L4	#,
	.loc 1 453 0 is_stmt 0 discriminator 1
	movq	-24(%rbp), %rax	# r__, tmp64
	movq	%rax, %rdi	# tmp64,
	call	ggc_set_mark	#
	testl	%eax, %eax	# D.20755
	jne	.L4	#,
	movq	-24(%rbp), %rax	# r__, tmp65
	movq	%rax, %rdi	# tmp65,
	call	ggc_mark_rtx_children	#
.L4:
.LBE2:
.LBB3:
	.loc 1 454 0 is_stmt 1
	movq	-40(%rbp), %rax	# n, tmp66
	movq	32(%rax), %rax	# n_1->data.cond.endif_label, tmp67
	movq	%rax, -16(%rbp)	# tmp67, r__
	cmpq	$0, -16(%rbp)	#, r__
	je	.L5	#,
	.loc 1 454 0 is_stmt 0 discriminator 1
	movq	-16(%rbp), %rax	# r__, tmp68
	movq	%rax, %rdi	# tmp68,
	call	ggc_set_mark	#
	testl	%eax, %eax	# D.20755
	jne	.L5	#,
	movq	-16(%rbp), %rax	# r__, tmp69
	movq	%rax, %rdi	# tmp69,
	call	ggc_mark_rtx_children	#
.L5:
.LBE3:
.LBB4:
	.loc 1 455 0 is_stmt 1
	movq	-40(%rbp), %rax	# n, tmp70
	movq	40(%rax), %rax	# n_1->data.cond.next_label, tmp71
	movq	%rax, -8(%rbp)	# tmp71, r__
	cmpq	$0, -8(%rbp)	#, r__
	je	.L6	#,
	.loc 1 455 0 is_stmt 0 discriminator 1
	movq	-8(%rbp), %rax	# r__, tmp72
	movq	%rax, %rdi	# tmp72,
	call	ggc_set_mark	#
	testl	%eax, %eax	# D.20755
	jne	.L6	#,
	movq	-8(%rbp), %rax	# r__, tmp73
	movq	%rax, %rdi	# tmp73,
	call	ggc_mark_rtx_children	#
.L6:
.LBE4:
	.loc 1 457 0 is_stmt 1
	movq	-40(%rbp), %rax	# n, tmp74
	movq	8(%rax), %rax	# n_1->next, tmp75
	movq	%rax, -40(%rbp)	# tmp75, n
.L3:
	.loc 1 451 0 discriminator 1
	cmpq	$0, -40(%rbp)	#, n
	jne	.L7	#,
	.loc 1 459 0
	leave
	.cfi_def_cfa 7, 8
	ret
	.cfi_endproc
.LFE3:
	.size	mark_cond_nesting, .-mark_cond_nesting
	.type	mark_loop_nesting, @function
mark_loop_nesting:
.LFB4:
	.loc 1 466 0
	.cfi_startproc
	pushq	%rbp	#
	.cfi_def_cfa_offset 16
	.cfi_offset 6, -16
	movq	%rsp, %rbp	#,
	.cfi_def_cfa_register 6
	subq	$64, %rsp	#,
	movq	%rdi, -56(%rbp)	# n, n
	.loc 1 468 0
	jmp	.L9	#
.L15:
.LBB5:
	.loc 1 470 0
	movq	-56(%rbp), %rax	# n, tmp64
	movq	24(%rax), %rax	# n_1->exit_label, tmp65
	movq	%rax, -40(%rbp)	# tmp65, r__
	cmpq	$0, -40(%rbp)	#, r__
	je	.L10	#,
	.loc 1 470 0 is_stmt 0 discriminator 1
	movq	-40(%rbp), %rax	# r__, tmp66
	movq	%rax, %rdi	# tmp66,
	call	ggc_set_mark	#
	testl	%eax, %eax	# D.20756
	jne	.L10	#,
	movq	-40(%rbp), %rax	# r__, tmp67
	movq	%rax, %rdi	# tmp67,
	call	ggc_mark_rtx_children	#
.L10:
.LBE5:
.LBB6:
	.loc 1 471 0 is_stmt 1
	movq	-56(%rbp), %rax	# n, tmp68
	movq	32(%rax), %rax	# n_1->data.loop.start_label, tmp69
	movq	%rax, -32(%rbp)	# tmp69, r__
	cmpq	$0, -32(%rbp)	#, r__
	je	.L11	#,
	.loc 1 471 0 is_stmt 0 discriminator 1
	movq	-32(%rbp), %rax	# r__, tmp70
	movq	%rax, %rdi	# tmp70,
	call	ggc_set_mark	#
	testl	%eax, %eax	# D.20756
	jne	.L11	#,
	movq	-32(%rbp), %rax	# r__, tmp71
	movq	%rax, %rdi	# tmp71,
	call	ggc_mark_rtx_children	#
.L11:
.LBE6:
.LBB7:
	.loc 1 472 0 is_stmt 1
	movq	-56(%rbp), %rax	# n, tmp72
	movq	40(%rax), %rax	# n_1->data.loop.end_label, tmp73
	movq	%rax, -24(%rbp)	# tmp73, r__
	cmpq	$0, -24(%rbp)	#, r__
	je	.L12	#,
	.loc 1 472 0 is_stmt 0 discriminator 1
	movq	-24(%rbp), %rax	# r__, tmp74
	movq	%rax, %rdi	# tmp74,
	call	ggc_set_mark	#
	testl	%eax, %eax	# D.20756
	jne	.L12	#,
	movq	-24(%rbp), %rax	# r__, tmp75
	movq	%rax, %rdi	# tmp75,
	call	ggc_mark_rtx_children	#
.L12:
.LBE7:
.LBB8:
	.loc 1 473 0 is_stmt 1
	movq	-56(%rbp), %rax	# n, tmp76
	movq	48(%rax), %rax	# n_1->data.loop.alt_end_label, tmp77
	movq	%rax, -16(%rbp)	# tmp77, r__
	cmpq	$0, -16(%rbp)	#, r__
	je	.L13	#,
	.loc 1 473 0 is_stmt 0 discriminator 1
	movq	-16(%rbp), %rax	# r__, tmp78
	movq	%rax, %rdi	# tmp78,
	call	ggc_set_mark	#
	testl	%eax, %eax	# D.20756
	jne	.L13	#,
	movq	-16(%rbp), %rax	# r__, tmp79
	movq	%rax, %rdi	# tmp79,
	call	ggc_mark_rtx_children	#
.L13:
.LBE8:
.LBB9:
	.loc 1 474 0 is_stmt 1
	movq	-56(%rbp), %rax	# n, tmp80
	movq	56(%rax), %rax	# n_1->data.loop.continue_label, tmp81
	movq	%rax, -8(%rbp)	# tmp81, r__
	cmpq	$0, -8(%rbp)	#, r__
	je	.L14	#,
	.loc 1 474 0 is_stmt 0 discriminator 1
	movq	-8(%rbp), %rax	# r__, tmp82
	movq	%rax, %rdi	# tmp82,
	call	ggc_set_mark	#
	testl	%eax, %eax	# D.20756
	jne	.L14	#,
	movq	-8(%rbp), %rax	# r__, tmp83
	movq	%rax, %rdi	# tmp83,
	call	ggc_mark_rtx_children	#
.L14:
.LBE9:
	.loc 1 476 0 is_stmt 1
	movq	-56(%rbp), %rax	# n, tmp84
	movq	8(%rax), %rax	# n_1->next, tmp85
	movq	%rax, -56(%rbp)	# tmp85, n
.L9:
	.loc 1 468 0 discriminator 1
	cmpq	$0, -56(%rbp)	#, n
	jne	.L15	#,
	.loc 1 478 0
	leave
	.cfi_def_cfa 7, 8
	ret
	.cfi_endproc
.LFE4:
	.size	mark_loop_nesting, .-mark_loop_nesting
	.type	mark_block_nesting, @function
mark_block_nesting:
.LFB5:
	.loc 1 485 0
	.cfi_startproc
	pushq	%rbp	#
	.cfi_def_cfa_offset 16
	.cfi_offset 6, -16
	movq	%rsp, %rbp	#,
	.cfi_def_cfa_register 6
	subq	$96, %rsp	#,
	movq	%rdi, -88(%rbp)	# n, n
	.loc 1 486 0
	jmp	.L17	#
.L31:
.LBB10:
.LBB11:
	.loc 1 490 0
	movq	-88(%rbp), %rax	# n, tmp105
	movq	24(%rax), %rax	# n_1->exit_label, tmp106
	movq	%rax, -64(%rbp)	# tmp106, r__
	cmpq	$0, -64(%rbp)	#, r__
	je	.L18	#,
	.loc 1 490 0 is_stmt 0 discriminator 1
	movq	-64(%rbp), %rax	# r__, tmp107
	movq	%rax, %rdi	# tmp107,
	call	ggc_set_mark	#
	testl	%eax, %eax	# D.20757
	jne	.L18	#,
	movq	-64(%rbp), %rax	# r__, tmp108
	movq	%rax, %rdi	# tmp108,
	call	ggc_mark_rtx_children	#
.L18:
.LBE11:
.LBB12:
	.loc 1 491 0 is_stmt 1
	movq	-88(%rbp), %rax	# n, tmp109
	movq	40(%rax), %rax	# n_1->data.block.stack_level, tmp110
	movq	%rax, -56(%rbp)	# tmp110, r__
	cmpq	$0, -56(%rbp)	#, r__
	je	.L19	#,
	.loc 1 491 0 is_stmt 0 discriminator 1
	movq	-56(%rbp), %rax	# r__, tmp111
	movq	%rax, %rdi	# tmp111,
	call	ggc_set_mark	#
	testl	%eax, %eax	# D.20757
	jne	.L19	#,
	movq	-56(%rbp), %rax	# r__, tmp112
	movq	%rax, %rdi	# tmp112,
	call	ggc_mark_rtx_children	#
.L19:
.LBE12:
.LBB13:
	.loc 1 492 0 is_stmt 1
	movq	-88(%rbp), %rax	# n, tmp113
	movq	48(%rax), %rax	# n_1->data.block.first_insn, tmp114
	movq	%rax, -48(%rbp)	# tmp114, r__
	cmpq	$0, -48(%rbp)	#, r__
	je	.L20	#,
	.loc 1 492 0 is_stmt 0 discriminator 1
	movq	-48(%rbp), %rax	# r__, tmp115
	movq	%rax, %rdi	# tmp115,
	call	ggc_set_mark	#
	testl	%eax, %eax	# D.20757
	jne	.L20	#,
	movq	-48(%rbp), %rax	# r__, tmp116
	movq	%rax, %rdi	# tmp116,
	call	ggc_mark_rtx_children	#
.L20:
.LBE13:
.LBB14:
	.loc 1 493 0 is_stmt 1
	movq	-88(%rbp), %rax	# n, tmp117
	movq	64(%rax), %rax	# n_1->data.block.cleanups, tmp118
	movq	%rax, -40(%rbp)	# tmp118, t__
	cmpq	$0, -40(%rbp)	#, t__
	je	.L21	#,
	.loc 1 493 0 is_stmt 0 discriminator 1
	movq	-40(%rbp), %rax	# t__, tmp119
	movq	%rax, %rdi	# tmp119,
	call	ggc_set_mark	#
	testl	%eax, %eax	# D.20757
	jne	.L21	#,
	movq	ggc_pending_trees(%rip), %rax	# ggc_pending_trees, ggc_pending_trees.0
	movq	8(%rax), %rdx	# ggc_pending_trees.0_12->elements_used, D.20758
	movq	ggc_pending_trees(%rip), %rax	# ggc_pending_trees, ggc_pending_trees.1
	movq	(%rax), %rax	# ggc_pending_trees.1_14->num_elements, D.20758
	cmpq	%rax, %rdx	# D.20758, D.20758
	jb	.L22	#,
	movq	ggc_pending_trees(%rip), %rax	# ggc_pending_trees, ggc_pending_trees.2
	movq	(%rax), %rax	# ggc_pending_trees.2_16->num_elements, D.20758
	leaq	(%rax,%rax), %rdx	#, D.20758
	movq	ggc_pending_trees(%rip), %rax	# ggc_pending_trees, ggc_pending_trees.3
	movq	%rdx, %rsi	# D.20758,
	movq	%rax, %rdi	# ggc_pending_trees.3,
	call	varray_grow	#
	movq	%rax, ggc_pending_trees(%rip)	# ggc_pending_trees.4, ggc_pending_trees
.L22:
	.loc 1 493 0 discriminator 2
	movq	ggc_pending_trees(%rip), %rcx	# ggc_pending_trees, ggc_pending_trees.5
	movq	ggc_pending_trees(%rip), %rax	# ggc_pending_trees, ggc_pending_trees.6
	movq	8(%rax), %rdx	# ggc_pending_trees.6_22->elements_used, D.20758
	leaq	1(%rdx), %rsi	#, D.20758
	movq	%rsi, 8(%rax)	# D.20758, ggc_pending_trees.6_22->elements_used
	addq	$4, %rdx	#, tmp120
	movq	-40(%rbp), %rax	# t__, tmp121
	movq	%rax, (%rcx,%rdx,8)	# tmp121, ggc_pending_trees.5_21->data.tree
.L21:
.LBE14:
.LBB15:
	.loc 1 494 0 is_stmt 1
	movq	-88(%rbp), %rax	# n, tmp122
	movq	72(%rax), %rax	# n_1->data.block.outer_cleanups, tmp123
	movq	%rax, -32(%rbp)	# tmp123, t__
	cmpq	$0, -32(%rbp)	#, t__
	je	.L23	#,
	.loc 1 494 0 is_stmt 0 discriminator 1
	movq	-32(%rbp), %rax	# t__, tmp124
	movq	%rax, %rdi	# tmp124,
	call	ggc_set_mark	#
	testl	%eax, %eax	# D.20757
	jne	.L23	#,
	movq	ggc_pending_trees(%rip), %rax	# ggc_pending_trees, ggc_pending_trees.7
	movq	8(%rax), %rdx	# ggc_pending_trees.7_28->elements_used, D.20758
	movq	ggc_pending_trees(%rip), %rax	# ggc_pending_trees, ggc_pending_trees.8
	movq	(%rax), %rax	# ggc_pending_trees.8_30->num_elements, D.20758
	cmpq	%rax, %rdx	# D.20758, D.20758
	jb	.L24	#,
	movq	ggc_pending_trees(%rip), %rax	# ggc_pending_trees, ggc_pending_trees.9
	movq	(%rax), %rax	# ggc_pending_trees.9_32->num_elements, D.20758
	leaq	(%rax,%rax), %rdx	#, D.20758
	movq	ggc_pending_trees(%rip), %rax	# ggc_pending_trees, ggc_pending_trees.10
	movq	%rdx, %rsi	# D.20758,
	movq	%rax, %rdi	# ggc_pending_trees.10,
	call	varray_grow	#
	movq	%rax, ggc_pending_trees(%rip)	# ggc_pending_trees.11, ggc_pending_trees
.L24:
	.loc 1 494 0 discriminator 2
	movq	ggc_pending_trees(%rip), %rcx	# ggc_pending_trees, ggc_pending_trees.12
	movq	ggc_pending_trees(%rip), %rax	# ggc_pending_trees, ggc_pending_trees.13
	movq	8(%rax), %rdx	# ggc_pending_trees.13_38->elements_used, D.20758
	leaq	1(%rdx), %rsi	#, D.20758
	movq	%rsi, 8(%rax)	# D.20758, ggc_pending_trees.13_38->elements_used
	addq	$4, %rdx	#, tmp125
	movq	-32(%rbp), %rax	# t__, tmp126
	movq	%rax, (%rcx,%rdx,8)	# tmp126, ggc_pending_trees.12_37->data.tree
.L23:
.LBE15:
	.loc 1 496 0 is_stmt 1
	movq	-88(%rbp), %rax	# n, tmp127
	movq	80(%rax), %rax	# n_1->data.block.label_chain, tmp128
	movq	%rax, -72(%rbp)	# tmp128, l
	jmp	.L25	#
.L29:
.LBB16:
	.loc 1 498 0
	movq	-72(%rbp), %rax	# l, tmp129
	movq	%rax, -24(%rbp)	# tmp129, a__
	cmpq	$0, -24(%rbp)	#, a__
	je	.L26	#,
	.loc 1 498 0 is_stmt 0 discriminator 1
	movq	-24(%rbp), %rax	# a__, tmp130
	movq	%rax, %rdi	# tmp130,
	call	ggc_set_mark	#
.L26:
.LBE16:
.LBB17:
	.loc 1 499 0 is_stmt 1
	movq	-72(%rbp), %rax	# l, tmp131
	movq	8(%rax), %rax	# l_2->label, tmp132
	movq	%rax, -16(%rbp)	# tmp132, t__
	cmpq	$0, -16(%rbp)	#, t__
	je	.L27	#,
	.loc 1 499 0 is_stmt 0 discriminator 1
	movq	-16(%rbp), %rax	# t__, tmp133
	movq	%rax, %rdi	# tmp133,
	call	ggc_set_mark	#
	testl	%eax, %eax	# D.20757
	jne	.L27	#,
	movq	ggc_pending_trees(%rip), %rax	# ggc_pending_trees, ggc_pending_trees.14
	movq	8(%rax), %rdx	# ggc_pending_trees.14_46->elements_used, D.20758
	movq	ggc_pending_trees(%rip), %rax	# ggc_pending_trees, ggc_pending_trees.15
	movq	(%rax), %rax	# ggc_pending_trees.15_48->num_elements, D.20758
	cmpq	%rax, %rdx	# D.20758, D.20758
	jb	.L28	#,
	movq	ggc_pending_trees(%rip), %rax	# ggc_pending_trees, ggc_pending_trees.16
	movq	(%rax), %rax	# ggc_pending_trees.16_50->num_elements, D.20758
	leaq	(%rax,%rax), %rdx	#, D.20758
	movq	ggc_pending_trees(%rip), %rax	# ggc_pending_trees, ggc_pending_trees.17
	movq	%rdx, %rsi	# D.20758,
	movq	%rax, %rdi	# ggc_pending_trees.17,
	call	varray_grow	#
	movq	%rax, ggc_pending_trees(%rip)	# ggc_pending_trees.18, ggc_pending_trees
.L28:
	.loc 1 499 0 discriminator 2
	movq	ggc_pending_trees(%rip), %rcx	# ggc_pending_trees, ggc_pending_trees.19
	movq	ggc_pending_trees(%rip), %rax	# ggc_pending_trees, ggc_pending_trees.20
	movq	8(%rax), %rdx	# ggc_pending_trees.20_56->elements_used, D.20758
	leaq	1(%rdx), %rsi	#, D.20758
	movq	%rsi, 8(%rax)	# D.20758, ggc_pending_trees.20_56->elements_used
	addq	$4, %rdx	#, tmp134
	movq	-16(%rbp), %rax	# t__, tmp135
	movq	%rax, (%rcx,%rdx,8)	# tmp135, ggc_pending_trees.19_55->data.tree
.L27:
.LBE17:
	.loc 1 496 0 is_stmt 1
	movq	-72(%rbp), %rax	# l, tmp136
	movq	(%rax), %rax	# l_2->next, tmp137
	movq	%rax, -72(%rbp)	# tmp137, l
.L25:
	.loc 1 496 0 is_stmt 0 discriminator 1
	cmpq	$0, -72(%rbp)	#, l
	jne	.L29	#,
.LBB18:
	.loc 1 502 0 is_stmt 1
	movq	-88(%rbp), %rax	# n, tmp138
	movq	104(%rax), %rax	# n_1->data.block.last_unconditional_cleanup, tmp139
	movq	%rax, -8(%rbp)	# tmp139, r__
	cmpq	$0, -8(%rbp)	#, r__
	je	.L30	#,
	.loc 1 502 0 is_stmt 0 discriminator 1
	movq	-8(%rbp), %rax	# r__, tmp140
	movq	%rax, %rdi	# tmp140,
	call	ggc_set_mark	#
	testl	%eax, %eax	# D.20757
	jne	.L30	#,
	movq	-8(%rbp), %rax	# r__, tmp141
	movq	%rax, %rdi	# tmp141,
	call	ggc_mark_rtx_children	#
.L30:
.LBE18:
	.loc 1 506 0 is_stmt 1
	movq	-88(%rbp), %rax	# n, tmp142
	movq	8(%rax), %rax	# n_1->next, tmp143
	movq	%rax, -88(%rbp)	# tmp143, n
.L17:
.LBE10:
	.loc 1 486 0 discriminator 1
	cmpq	$0, -88(%rbp)	#, n
	jne	.L31	#,
	.loc 1 508 0
	leave
	.cfi_def_cfa 7, 8
	ret
	.cfi_endproc
.LFE5:
	.size	mark_block_nesting, .-mark_block_nesting
	.type	mark_case_nesting, @function
mark_case_nesting:
.LFB6:
	.loc 1 515 0
	.cfi_startproc
	pushq	%rbp	#
	.cfi_def_cfa_offset 16
	.cfi_offset 6, -16
	movq	%rsp, %rbp	#,
	.cfi_def_cfa_register 6
	subq	$64, %rsp	#,
	movq	%rdi, -56(%rbp)	# n, n
	.loc 1 516 0
	jmp	.L33	#
.L42:
.LBB19:
	.loc 1 518 0
	movq	-56(%rbp), %rax	# n, tmp104
	movq	24(%rax), %rax	# n_1->exit_label, tmp105
	movq	%rax, -40(%rbp)	# tmp105, r__
	cmpq	$0, -40(%rbp)	#, r__
	je	.L34	#,
	.loc 1 518 0 is_stmt 0 discriminator 1
	movq	-40(%rbp), %rax	# r__, tmp106
	movq	%rax, %rdi	# tmp106,
	call	ggc_set_mark	#
	testl	%eax, %eax	# D.20759
	jne	.L34	#,
	movq	-40(%rbp), %rax	# r__, tmp107
	movq	%rax, %rdi	# tmp107,
	call	ggc_mark_rtx_children	#
.L34:
.LBE19:
.LBB20:
	.loc 1 519 0 is_stmt 1
	movq	-56(%rbp), %rax	# n, tmp108
	movq	32(%rax), %rax	# n_1->data.case_stmt.start, tmp109
	movq	%rax, -32(%rbp)	# tmp109, r__
	cmpq	$0, -32(%rbp)	#, r__
	je	.L35	#,
	.loc 1 519 0 is_stmt 0 discriminator 1
	movq	-32(%rbp), %rax	# r__, tmp110
	movq	%rax, %rdi	# tmp110,
	call	ggc_set_mark	#
	testl	%eax, %eax	# D.20759
	jne	.L35	#,
	movq	-32(%rbp), %rax	# r__, tmp111
	movq	%rax, %rdi	# tmp111,
	call	ggc_mark_rtx_children	#
.L35:
.LBE20:
.LBB21:
	.loc 1 521 0 is_stmt 1
	movq	-56(%rbp), %rax	# n, tmp112
	movq	48(%rax), %rax	# n_1->data.case_stmt.default_label, tmp113
	movq	%rax, -24(%rbp)	# tmp113, t__
	cmpq	$0, -24(%rbp)	#, t__
	je	.L36	#,
	.loc 1 521 0 is_stmt 0 discriminator 1
	movq	-24(%rbp), %rax	# t__, tmp114
	movq	%rax, %rdi	# tmp114,
	call	ggc_set_mark	#
	testl	%eax, %eax	# D.20759
	jne	.L36	#,
	movq	ggc_pending_trees(%rip), %rax	# ggc_pending_trees, ggc_pending_trees.21
	movq	8(%rax), %rdx	# ggc_pending_trees.21_9->elements_used, D.20760
	movq	ggc_pending_trees(%rip), %rax	# ggc_pending_trees, ggc_pending_trees.22
	movq	(%rax), %rax	# ggc_pending_trees.22_11->num_elements, D.20760
	cmpq	%rax, %rdx	# D.20760, D.20760
	jb	.L37	#,
	movq	ggc_pending_trees(%rip), %rax	# ggc_pending_trees, ggc_pending_trees.23
	movq	(%rax), %rax	# ggc_pending_trees.23_13->num_elements, D.20760
	leaq	(%rax,%rax), %rdx	#, D.20760
	movq	ggc_pending_trees(%rip), %rax	# ggc_pending_trees, ggc_pending_trees.24
	movq	%rdx, %rsi	# D.20760,
	movq	%rax, %rdi	# ggc_pending_trees.24,
	call	varray_grow	#
	movq	%rax, ggc_pending_trees(%rip)	# ggc_pending_trees.25, ggc_pending_trees
.L37:
	.loc 1 521 0 discriminator 2
	movq	ggc_pending_trees(%rip), %rcx	# ggc_pending_trees, ggc_pending_trees.26
	movq	ggc_pending_trees(%rip), %rax	# ggc_pending_trees, ggc_pending_trees.27
	movq	8(%rax), %rdx	# ggc_pending_trees.27_19->elements_used, D.20760
	leaq	1(%rdx), %rsi	#, D.20760
	movq	%rsi, 8(%rax)	# D.20760, ggc_pending_trees.27_19->elements_used
	addq	$4, %rdx	#, tmp115
	movq	-24(%rbp), %rax	# t__, tmp116
	movq	%rax, (%rcx,%rdx,8)	# tmp116, ggc_pending_trees.26_18->data.tree
.L36:
.LBE21:
.LBB22:
	.loc 1 522 0 is_stmt 1
	movq	-56(%rbp), %rax	# n, tmp117
	movq	56(%rax), %rax	# n_1->data.case_stmt.index_expr, tmp118
	movq	%rax, -16(%rbp)	# tmp118, t__
	cmpq	$0, -16(%rbp)	#, t__
	je	.L38	#,
	.loc 1 522 0 is_stmt 0 discriminator 1
	movq	-16(%rbp), %rax	# t__, tmp119
	movq	%rax, %rdi	# tmp119,
	call	ggc_set_mark	#
	testl	%eax, %eax	# D.20759
	jne	.L38	#,
	movq	ggc_pending_trees(%rip), %rax	# ggc_pending_trees, ggc_pending_trees.28
	movq	8(%rax), %rdx	# ggc_pending_trees.28_25->elements_used, D.20760
	movq	ggc_pending_trees(%rip), %rax	# ggc_pending_trees, ggc_pending_trees.29
	movq	(%rax), %rax	# ggc_pending_trees.29_27->num_elements, D.20760
	cmpq	%rax, %rdx	# D.20760, D.20760
	jb	.L39	#,
	movq	ggc_pending_trees(%rip), %rax	# ggc_pending_trees, ggc_pending_trees.30
	movq	(%rax), %rax	# ggc_pending_trees.30_29->num_elements, D.20760
	leaq	(%rax,%rax), %rdx	#, D.20760
	movq	ggc_pending_trees(%rip), %rax	# ggc_pending_trees, ggc_pending_trees.31
	movq	%rdx, %rsi	# D.20760,
	movq	%rax, %rdi	# ggc_pending_trees.31,
	call	varray_grow	#
	movq	%rax, ggc_pending_trees(%rip)	# ggc_pending_trees.32, ggc_pending_trees
.L39:
	.loc 1 522 0 discriminator 2
	movq	ggc_pending_trees(%rip), %rcx	# ggc_pending_trees, ggc_pending_trees.33
	movq	ggc_pending_trees(%rip), %rax	# ggc_pending_trees, ggc_pending_trees.34
	movq	8(%rax), %rdx	# ggc_pending_trees.34_35->elements_used, D.20760
	leaq	1(%rdx), %rsi	#, D.20760
	movq	%rsi, 8(%rax)	# D.20760, ggc_pending_trees.34_35->elements_used
	addq	$4, %rdx	#, tmp120
	movq	-16(%rbp), %rax	# t__, tmp121
	movq	%rax, (%rcx,%rdx,8)	# tmp121, ggc_pending_trees.33_34->data.tree
.L38:
.LBE22:
.LBB23:
	.loc 1 523 0 is_stmt 1
	movq	-56(%rbp), %rax	# n, tmp122
	movq	64(%rax), %rax	# n_1->data.case_stmt.nominal_type, tmp123
	movq	%rax, -8(%rbp)	# tmp123, t__
	cmpq	$0, -8(%rbp)	#, t__
	je	.L40	#,
	.loc 1 523 0 is_stmt 0 discriminator 1
	movq	-8(%rbp), %rax	# t__, tmp124
	movq	%rax, %rdi	# tmp124,
	call	ggc_set_mark	#
	testl	%eax, %eax	# D.20759
	jne	.L40	#,
	movq	ggc_pending_trees(%rip), %rax	# ggc_pending_trees, ggc_pending_trees.35
	movq	8(%rax), %rdx	# ggc_pending_trees.35_41->elements_used, D.20760
	movq	ggc_pending_trees(%rip), %rax	# ggc_pending_trees, ggc_pending_trees.36
	movq	(%rax), %rax	# ggc_pending_trees.36_43->num_elements, D.20760
	cmpq	%rax, %rdx	# D.20760, D.20760
	jb	.L41	#,
	movq	ggc_pending_trees(%rip), %rax	# ggc_pending_trees, ggc_pending_trees.37
	movq	(%rax), %rax	# ggc_pending_trees.37_45->num_elements, D.20760
	leaq	(%rax,%rax), %rdx	#, D.20760
	movq	ggc_pending_trees(%rip), %rax	# ggc_pending_trees, ggc_pending_trees.38
	movq	%rdx, %rsi	# D.20760,
	movq	%rax, %rdi	# ggc_pending_trees.38,
	call	varray_grow	#
	movq	%rax, ggc_pending_trees(%rip)	# ggc_pending_trees.39, ggc_pending_trees
.L41:
	.loc 1 523 0 discriminator 2
	movq	ggc_pending_trees(%rip), %rcx	# ggc_pending_trees, ggc_pending_trees.40
	movq	ggc_pending_trees(%rip), %rax	# ggc_pending_trees, ggc_pending_trees.41
	movq	8(%rax), %rdx	# ggc_pending_trees.41_51->elements_used, D.20760
	leaq	1(%rdx), %rsi	#, D.20760
	movq	%rsi, 8(%rax)	# D.20760, ggc_pending_trees.41_51->elements_used
	addq	$4, %rdx	#, tmp125
	movq	-8(%rbp), %rax	# t__, tmp126
	movq	%rax, (%rcx,%rdx,8)	# tmp126, ggc_pending_trees.40_50->data.tree
.L40:
.LBE23:
	.loc 1 525 0 is_stmt 1
	movq	-56(%rbp), %rax	# n, tmp127
	movq	40(%rax), %rax	# n_1->data.case_stmt.case_list, D.20761
	movq	%rax, %rdi	# D.20761,
	call	mark_case_node	#
	.loc 1 526 0
	movq	-56(%rbp), %rax	# n, tmp128
	movq	8(%rax), %rax	# n_1->next, tmp129
	movq	%rax, -56(%rbp)	# tmp129, n
.L33:
	.loc 1 516 0 discriminator 1
	cmpq	$0, -56(%rbp)	#, n
	jne	.L42	#,
	.loc 1 528 0
	leave
	.cfi_def_cfa 7, 8
	ret
	.cfi_endproc
.LFE6:
	.size	mark_case_nesting, .-mark_case_nesting
	.type	mark_case_node, @function
mark_case_node:
.LFB7:
	.loc 1 535 0
	.cfi_startproc
	pushq	%rbp	#
	.cfi_def_cfa_offset 16
	.cfi_offset 6, -16
	movq	%rsp, %rbp	#,
	.cfi_def_cfa_register 6
	subq	$48, %rsp	#,
	movq	%rdi, -40(%rbp)	# c, c
	.loc 1 536 0
	cmpq	$0, -40(%rbp)	#, c
	je	.L43	#,
.LBB24:
	.loc 1 538 0
	movq	-40(%rbp), %rax	# c, tmp103
	movq	24(%rax), %rax	# c_1(D)->low, tmp104
	movq	%rax, -24(%rbp)	# tmp104, t__
	cmpq	$0, -24(%rbp)	#, t__
	je	.L45	#,
	.loc 1 538 0 is_stmt 0 discriminator 1
	movq	-24(%rbp), %rax	# t__, tmp105
	movq	%rax, %rdi	# tmp105,
	call	ggc_set_mark	#
	testl	%eax, %eax	# D.20762
	jne	.L45	#,
	movq	ggc_pending_trees(%rip), %rax	# ggc_pending_trees, ggc_pending_trees.42
	movq	8(%rax), %rdx	# ggc_pending_trees.42_4->elements_used, D.20763
	movq	ggc_pending_trees(%rip), %rax	# ggc_pending_trees, ggc_pending_trees.43
	movq	(%rax), %rax	# ggc_pending_trees.43_6->num_elements, D.20763
	cmpq	%rax, %rdx	# D.20763, D.20763
	jb	.L46	#,
	movq	ggc_pending_trees(%rip), %rax	# ggc_pending_trees, ggc_pending_trees.44
	movq	(%rax), %rax	# ggc_pending_trees.44_8->num_elements, D.20763
	leaq	(%rax,%rax), %rdx	#, D.20763
	movq	ggc_pending_trees(%rip), %rax	# ggc_pending_trees, ggc_pending_trees.45
	movq	%rdx, %rsi	# D.20763,
	movq	%rax, %rdi	# ggc_pending_trees.45,
	call	varray_grow	#
	movq	%rax, ggc_pending_trees(%rip)	# ggc_pending_trees.46, ggc_pending_trees
.L46:
	.loc 1 538 0 discriminator 2
	movq	ggc_pending_trees(%rip), %rcx	# ggc_pending_trees, ggc_pending_trees.47
	movq	ggc_pending_trees(%rip), %rax	# ggc_pending_trees, ggc_pending_trees.48
	movq	8(%rax), %rdx	# ggc_pending_trees.48_14->elements_used, D.20763
	leaq	1(%rdx), %rsi	#, D.20763
	movq	%rsi, 8(%rax)	# D.20763, ggc_pending_trees.48_14->elements_used
	addq	$4, %rdx	#, tmp106
	movq	-24(%rbp), %rax	# t__, tmp107
	movq	%rax, (%rcx,%rdx,8)	# tmp107, ggc_pending_trees.47_13->data.tree
.L45:
.LBE24:
.LBB25:
	.loc 1 539 0 is_stmt 1
	movq	-40(%rbp), %rax	# c, tmp108
	movq	32(%rax), %rax	# c_1(D)->high, tmp109
	movq	%rax, -16(%rbp)	# tmp109, t__
	cmpq	$0, -16(%rbp)	#, t__
	je	.L47	#,
	.loc 1 539 0 is_stmt 0 discriminator 1
	movq	-16(%rbp), %rax	# t__, tmp110
	movq	%rax, %rdi	# tmp110,
	call	ggc_set_mark	#
	testl	%eax, %eax	# D.20762
	jne	.L47	#,
	movq	ggc_pending_trees(%rip), %rax	# ggc_pending_trees, ggc_pending_trees.49
	movq	8(%rax), %rdx	# ggc_pending_trees.49_20->elements_used, D.20763
	movq	ggc_pending_trees(%rip), %rax	# ggc_pending_trees, ggc_pending_trees.50
	movq	(%rax), %rax	# ggc_pending_trees.50_22->num_elements, D.20763
	cmpq	%rax, %rdx	# D.20763, D.20763
	jb	.L48	#,
	movq	ggc_pending_trees(%rip), %rax	# ggc_pending_trees, ggc_pending_trees.51
	movq	(%rax), %rax	# ggc_pending_trees.51_24->num_elements, D.20763
	leaq	(%rax,%rax), %rdx	#, D.20763
	movq	ggc_pending_trees(%rip), %rax	# ggc_pending_trees, ggc_pending_trees.52
	movq	%rdx, %rsi	# D.20763,
	movq	%rax, %rdi	# ggc_pending_trees.52,
	call	varray_grow	#
	movq	%rax, ggc_pending_trees(%rip)	# ggc_pending_trees.53, ggc_pending_trees
.L48:
	.loc 1 539 0 discriminator 2
	movq	ggc_pending_trees(%rip), %rcx	# ggc_pending_trees, ggc_pending_trees.54
	movq	ggc_pending_trees(%rip), %rax	# ggc_pending_trees, ggc_pending_trees.55
	movq	8(%rax), %rdx	# ggc_pending_trees.55_30->elements_used, D.20763
	leaq	1(%rdx), %rsi	#, D.20763
	movq	%rsi, 8(%rax)	# D.20763, ggc_pending_trees.55_30->elements_used
	addq	$4, %rdx	#, tmp111
	movq	-16(%rbp), %rax	# t__, tmp112
	movq	%rax, (%rcx,%rdx,8)	# tmp112, ggc_pending_trees.54_29->data.tree
.L47:
.LBE25:
.LBB26:
	.loc 1 540 0 is_stmt 1
	movq	-40(%rbp), %rax	# c, tmp113
	movq	40(%rax), %rax	# c_1(D)->code_label, tmp114
	movq	%rax, -8(%rbp)	# tmp114, t__
	cmpq	$0, -8(%rbp)	#, t__
	je	.L49	#,
	.loc 1 540 0 is_stmt 0 discriminator 1
	movq	-8(%rbp), %rax	# t__, tmp115
	movq	%rax, %rdi	# tmp115,
	call	ggc_set_mark	#
	testl	%eax, %eax	# D.20762
	jne	.L49	#,
	movq	ggc_pending_trees(%rip), %rax	# ggc_pending_trees, ggc_pending_trees.56
	movq	8(%rax), %rdx	# ggc_pending_trees.56_36->elements_used, D.20763
	movq	ggc_pending_trees(%rip), %rax	# ggc_pending_trees, ggc_pending_trees.57
	movq	(%rax), %rax	# ggc_pending_trees.57_38->num_elements, D.20763
	cmpq	%rax, %rdx	# D.20763, D.20763
	jb	.L50	#,
	movq	ggc_pending_trees(%rip), %rax	# ggc_pending_trees, ggc_pending_trees.58
	movq	(%rax), %rax	# ggc_pending_trees.58_40->num_elements, D.20763
	leaq	(%rax,%rax), %rdx	#, D.20763
	movq	ggc_pending_trees(%rip), %rax	# ggc_pending_trees, ggc_pending_trees.59
	movq	%rdx, %rsi	# D.20763,
	movq	%rax, %rdi	# ggc_pending_trees.59,
	call	varray_grow	#
	movq	%rax, ggc_pending_trees(%rip)	# ggc_pending_trees.60, ggc_pending_trees
.L50:
	.loc 1 540 0 discriminator 2
	movq	ggc_pending_trees(%rip), %rcx	# ggc_pending_trees, ggc_pending_trees.61
	movq	ggc_pending_trees(%rip), %rax	# ggc_pending_trees, ggc_pending_trees.62
	movq	8(%rax), %rdx	# ggc_pending_trees.62_46->elements_used, D.20763
	leaq	1(%rdx), %rsi	#, D.20763
	movq	%rsi, 8(%rax)	# D.20763, ggc_pending_trees.62_46->elements_used
	addq	$4, %rdx	#, tmp116
	movq	-8(%rbp), %rax	# t__, tmp117
	movq	%rax, (%rcx,%rdx,8)	# tmp117, ggc_pending_trees.61_45->data.tree
.L49:
.LBE26:
	.loc 1 542 0 is_stmt 1
	movq	-40(%rbp), %rax	# c, tmp118
	movq	8(%rax), %rax	# c_1(D)->right, D.20764
	movq	%rax, %rdi	# D.20764,
	call	mark_case_node	#
	.loc 1 543 0
	movq	-40(%rbp), %rax	# c, tmp119
	movq	(%rax), %rax	# c_1(D)->left, D.20764
	movq	%rax, %rdi	# D.20764,
	call	mark_case_node	#
.L43:
	.loc 1 545 0
	leave
	.cfi_def_cfa 7, 8
	ret
	.cfi_endproc
.LFE7:
	.size	mark_case_node, .-mark_case_node
	.type	mark_goto_fixup, @function
mark_goto_fixup:
.LFB8:
	.loc 1 552 0
	.cfi_startproc
	pushq	%rbp	#
	.cfi_def_cfa_offset 16
	.cfi_offset 6, -16
	movq	%rsp, %rbp	#,
	.cfi_def_cfa_register 6
	subq	$80, %rsp	#,
	movq	%rdi, -72(%rbp)	# g, g
	.loc 1 553 0
	jmp	.L52	#
.L63:
.LBB27:
	.loc 1 555 0
	movq	-72(%rbp), %rax	# g, tmp104
	movq	%rax, -56(%rbp)	# tmp104, a__
	cmpq	$0, -56(%rbp)	#, a__
	je	.L53	#,
	.loc 1 555 0 is_stmt 0 discriminator 1
	movq	-56(%rbp), %rax	# a__, tmp105
	movq	%rax, %rdi	# tmp105,
	call	ggc_set_mark	#
.L53:
.LBE27:
.LBB28:
	.loc 1 556 0 is_stmt 1
	movq	-72(%rbp), %rax	# g, tmp106
	movq	8(%rax), %rax	# g_1->before_jump, tmp107
	movq	%rax, -48(%rbp)	# tmp107, r__
	cmpq	$0, -48(%rbp)	#, r__
	je	.L54	#,
	.loc 1 556 0 is_stmt 0 discriminator 1
	movq	-48(%rbp), %rax	# r__, tmp108
	movq	%rax, %rdi	# tmp108,
	call	ggc_set_mark	#
	testl	%eax, %eax	# D.20765
	jne	.L54	#,
	movq	-48(%rbp), %rax	# r__, tmp109
	movq	%rax, %rdi	# tmp109,
	call	ggc_mark_rtx_children	#
.L54:
.LBE28:
.LBB29:
	.loc 1 557 0 is_stmt 1
	movq	-72(%rbp), %rax	# g, tmp110
	movq	16(%rax), %rax	# g_1->target, tmp111
	movq	%rax, -40(%rbp)	# tmp111, t__
	cmpq	$0, -40(%rbp)	#, t__
	je	.L55	#,
	.loc 1 557 0 is_stmt 0 discriminator 1
	movq	-40(%rbp), %rax	# t__, tmp112
	movq	%rax, %rdi	# tmp112,
	call	ggc_set_mark	#
	testl	%eax, %eax	# D.20765
	jne	.L55	#,
	movq	ggc_pending_trees(%rip), %rax	# ggc_pending_trees, ggc_pending_trees.63
	movq	8(%rax), %rdx	# ggc_pending_trees.63_8->elements_used, D.20766
	movq	ggc_pending_trees(%rip), %rax	# ggc_pending_trees, ggc_pending_trees.64
	movq	(%rax), %rax	# ggc_pending_trees.64_10->num_elements, D.20766
	cmpq	%rax, %rdx	# D.20766, D.20766
	jb	.L56	#,
	movq	ggc_pending_trees(%rip), %rax	# ggc_pending_trees, ggc_pending_trees.65
	movq	(%rax), %rax	# ggc_pending_trees.65_12->num_elements, D.20766
	leaq	(%rax,%rax), %rdx	#, D.20766
	movq	ggc_pending_trees(%rip), %rax	# ggc_pending_trees, ggc_pending_trees.66
	movq	%rdx, %rsi	# D.20766,
	movq	%rax, %rdi	# ggc_pending_trees.66,
	call	varray_grow	#
	movq	%rax, ggc_pending_trees(%rip)	# ggc_pending_trees.67, ggc_pending_trees
.L56:
	.loc 1 557 0 discriminator 2
	movq	ggc_pending_trees(%rip), %rcx	# ggc_pending_trees, ggc_pending_trees.68
	movq	ggc_pending_trees(%rip), %rax	# ggc_pending_trees, ggc_pending_trees.69
	movq	8(%rax), %rdx	# ggc_pending_trees.69_18->elements_used, D.20766
	leaq	1(%rdx), %rsi	#, D.20766
	movq	%rsi, 8(%rax)	# D.20766, ggc_pending_trees.69_18->elements_used
	addq	$4, %rdx	#, tmp113
	movq	-40(%rbp), %rax	# t__, tmp114
	movq	%rax, (%rcx,%rdx,8)	# tmp114, ggc_pending_trees.68_17->data.tree
.L55:
.LBE29:
.LBB30:
	.loc 1 558 0 is_stmt 1
	movq	-72(%rbp), %rax	# g, tmp115
	movq	24(%rax), %rax	# g_1->context, tmp116
	movq	%rax, -32(%rbp)	# tmp116, t__
	cmpq	$0, -32(%rbp)	#, t__
	je	.L57	#,
	.loc 1 558 0 is_stmt 0 discriminator 1
	movq	-32(%rbp), %rax	# t__, tmp117
	movq	%rax, %rdi	# tmp117,
	call	ggc_set_mark	#
	testl	%eax, %eax	# D.20765
	jne	.L57	#,
	movq	ggc_pending_trees(%rip), %rax	# ggc_pending_trees, ggc_pending_trees.70
	movq	8(%rax), %rdx	# ggc_pending_trees.70_24->elements_used, D.20766
	movq	ggc_pending_trees(%rip), %rax	# ggc_pending_trees, ggc_pending_trees.71
	movq	(%rax), %rax	# ggc_pending_trees.71_26->num_elements, D.20766
	cmpq	%rax, %rdx	# D.20766, D.20766
	jb	.L58	#,
	movq	ggc_pending_trees(%rip), %rax	# ggc_pending_trees, ggc_pending_trees.72
	movq	(%rax), %rax	# ggc_pending_trees.72_28->num_elements, D.20766
	leaq	(%rax,%rax), %rdx	#, D.20766
	movq	ggc_pending_trees(%rip), %rax	# ggc_pending_trees, ggc_pending_trees.73
	movq	%rdx, %rsi	# D.20766,
	movq	%rax, %rdi	# ggc_pending_trees.73,
	call	varray_grow	#
	movq	%rax, ggc_pending_trees(%rip)	# ggc_pending_trees.74, ggc_pending_trees
.L58:
	.loc 1 558 0 discriminator 2
	movq	ggc_pending_trees(%rip), %rcx	# ggc_pending_trees, ggc_pending_trees.75
	movq	ggc_pending_trees(%rip), %rax	# ggc_pending_trees, ggc_pending_trees.76
	movq	8(%rax), %rdx	# ggc_pending_trees.76_34->elements_used, D.20766
	leaq	1(%rdx), %rsi	#, D.20766
	movq	%rsi, 8(%rax)	# D.20766, ggc_pending_trees.76_34->elements_used
	addq	$4, %rdx	#, tmp118
	movq	-32(%rbp), %rax	# t__, tmp119
	movq	%rax, (%rcx,%rdx,8)	# tmp119, ggc_pending_trees.75_33->data.tree
.L57:
.LBE30:
.LBB31:
	.loc 1 559 0 is_stmt 1
	movq	-72(%rbp), %rax	# g, tmp120
	movq	32(%rax), %rax	# g_1->target_rtl, tmp121
	movq	%rax, -24(%rbp)	# tmp121, r__
	cmpq	$0, -24(%rbp)	#, r__
	je	.L59	#,
	.loc 1 559 0 is_stmt 0 discriminator 1
	movq	-24(%rbp), %rax	# r__, tmp122
	movq	%rax, %rdi	# tmp122,
	call	ggc_set_mark	#
	testl	%eax, %eax	# D.20765
	jne	.L59	#,
	movq	-24(%rbp), %rax	# r__, tmp123
	movq	%rax, %rdi	# tmp123,
	call	ggc_mark_rtx_children	#
.L59:
.LBE31:
.LBB32:
	.loc 1 560 0 is_stmt 1
	movq	-72(%rbp), %rax	# g, tmp124
	movq	48(%rax), %rax	# g_1->stack_level, tmp125
	movq	%rax, -16(%rbp)	# tmp125, r__
	cmpq	$0, -16(%rbp)	#, r__
	je	.L60	#,
	.loc 1 560 0 is_stmt 0 discriminator 1
	movq	-16(%rbp), %rax	# r__, tmp126
	movq	%rax, %rdi	# tmp126,
	call	ggc_set_mark	#
	testl	%eax, %eax	# D.20765
	jne	.L60	#,
	movq	-16(%rbp), %rax	# r__, tmp127
	movq	%rax, %rdi	# tmp127,
	call	ggc_mark_rtx_children	#
.L60:
.LBE32:
.LBB33:
	.loc 1 561 0 is_stmt 1
	movq	-72(%rbp), %rax	# g, tmp128
	movq	56(%rax), %rax	# g_1->cleanup_list_list, tmp129
	movq	%rax, -8(%rbp)	# tmp129, t__
	cmpq	$0, -8(%rbp)	#, t__
	je	.L61	#,
	.loc 1 561 0 is_stmt 0 discriminator 1
	movq	-8(%rbp), %rax	# t__, tmp130
	movq	%rax, %rdi	# tmp130,
	call	ggc_set_mark	#
	testl	%eax, %eax	# D.20765
	jne	.L61	#,
	movq	ggc_pending_trees(%rip), %rax	# ggc_pending_trees, ggc_pending_trees.77
	movq	8(%rax), %rdx	# ggc_pending_trees.77_44->elements_used, D.20766
	movq	ggc_pending_trees(%rip), %rax	# ggc_pending_trees, ggc_pending_trees.78
	movq	(%rax), %rax	# ggc_pending_trees.78_46->num_elements, D.20766
	cmpq	%rax, %rdx	# D.20766, D.20766
	jb	.L62	#,
	movq	ggc_pending_trees(%rip), %rax	# ggc_pending_trees, ggc_pending_trees.79
	movq	(%rax), %rax	# ggc_pending_trees.79_48->num_elements, D.20766
	leaq	(%rax,%rax), %rdx	#, D.20766
	movq	ggc_pending_trees(%rip), %rax	# ggc_pending_trees, ggc_pending_trees.80
	movq	%rdx, %rsi	# D.20766,
	movq	%rax, %rdi	# ggc_pending_trees.80,
	call	varray_grow	#
	movq	%rax, ggc_pending_trees(%rip)	# ggc_pending_trees.81, ggc_pending_trees
.L62:
	.loc 1 561 0 discriminator 2
	movq	ggc_pending_trees(%rip), %rcx	# ggc_pending_trees, ggc_pending_trees.82
	movq	ggc_pending_trees(%rip), %rax	# ggc_pending_trees, ggc_pending_trees.83
	movq	8(%rax), %rdx	# ggc_pending_trees.83_54->elements_used, D.20766
	leaq	1(%rdx), %rsi	#, D.20766
	movq	%rsi, 8(%rax)	# D.20766, ggc_pending_trees.83_54->elements_used
	addq	$4, %rdx	#, tmp131
	movq	-8(%rbp), %rax	# t__, tmp132
	movq	%rax, (%rcx,%rdx,8)	# tmp132, ggc_pending_trees.82_53->data.tree
.L61:
.LBE33:
	.loc 1 563 0 is_stmt 1
	movq	-72(%rbp), %rax	# g, tmp133
	movq	(%rax), %rax	# g_1->next, tmp134
	movq	%rax, -72(%rbp)	# tmp134, g
.L52:
	.loc 1 553 0 discriminator 1
	cmpq	$0, -72(%rbp)	#, g
	jne	.L63	#,
	.loc 1 565 0
	leave
	.cfi_def_cfa 7, 8
	ret
	.cfi_endproc
.LFE8:
	.size	mark_goto_fixup, .-mark_goto_fixup
	.globl	free_stmt_status
	.type	free_stmt_status, @function
free_stmt_status:
.LFB9:
	.loc 1 574 0
	.cfi_startproc
	pushq	%rbp	#
	.cfi_def_cfa_offset 16
	.cfi_offset 6, -16
	movq	%rsp, %rbp	#,
	.cfi_def_cfa_register 6
	subq	$16, %rsp	#,
	movq	%rdi, -8(%rbp)	# f, f
	.loc 1 578 0
	movq	-8(%rbp), %rax	# f, tmp61
	movq	8(%rax), %rax	# f_1(D)->stmt, D.20767
	testq	%rax, %rax	# D.20767
	je	.L65	#,
	.loc 1 579 0
	movq	-8(%rbp), %rax	# f, tmp62
	movq	8(%rax), %rax	# f_1(D)->stmt, D.20767
	movq	%rax, %rdi	# D.20767,
	call	free	#
.L65:
	.loc 1 580 0
	movq	-8(%rbp), %rax	# f, tmp63
	movq	$0, 8(%rax)	#, f_1(D)->stmt
	.loc 1 581 0
	leave
	.cfi_def_cfa 7, 8
	ret
	.cfi_endproc
.LFE9:
	.size	free_stmt_status, .-free_stmt_status
	.globl	mark_stmt_status
	.type	mark_stmt_status, @function
mark_stmt_status:
.LFB10:
	.loc 1 588 0
	.cfi_startproc
	pushq	%rbp	#
	.cfi_def_cfa_offset 16
	.cfi_offset 6, -16
	movq	%rsp, %rbp	#,
	.cfi_def_cfa_register 6
	subq	$32, %rsp	#,
	movq	%rdi, -24(%rbp)	# p, p
	.loc 1 589 0
	cmpq	$0, -24(%rbp)	#, p
	jne	.L67	#,
	.loc 1 590 0
	jmp	.L66	#
.L67:
	.loc 1 592 0
	movq	-24(%rbp), %rax	# p, tmp80
	movq	(%rax), %rax	# p_1(D)->x_block_stack, D.20768
	movq	%rax, %rdi	# D.20768,
	call	mark_block_nesting	#
	.loc 1 593 0
	movq	-24(%rbp), %rax	# p, tmp81
	movq	16(%rax), %rax	# p_1(D)->x_cond_stack, D.20768
	movq	%rax, %rdi	# D.20768,
	call	mark_cond_nesting	#
	.loc 1 594 0
	movq	-24(%rbp), %rax	# p, tmp82
	movq	24(%rax), %rax	# p_1(D)->x_loop_stack, D.20768
	movq	%rax, %rdi	# D.20768,
	call	mark_loop_nesting	#
	.loc 1 595 0
	movq	-24(%rbp), %rax	# p, tmp83
	movq	32(%rax), %rax	# p_1(D)->x_case_stack, D.20768
	movq	%rax, %rdi	# D.20768,
	call	mark_case_nesting	#
.LBB34:
	.loc 1 597 0
	movq	-24(%rbp), %rax	# p, tmp84
	movq	56(%rax), %rax	# p_1(D)->x_last_expr_type, tmp85
	movq	%rax, -16(%rbp)	# tmp85, t__
	cmpq	$0, -16(%rbp)	#, t__
	je	.L69	#,
	.loc 1 597 0 is_stmt 0 discriminator 1
	movq	-16(%rbp), %rax	# t__, tmp86
	movq	%rax, %rdi	# tmp86,
	call	ggc_set_mark	#
	testl	%eax, %eax	# D.20769
	jne	.L69	#,
	movq	ggc_pending_trees(%rip), %rax	# ggc_pending_trees, ggc_pending_trees.84
	movq	8(%rax), %rdx	# ggc_pending_trees.84_8->elements_used, D.20770
	movq	ggc_pending_trees(%rip), %rax	# ggc_pending_trees, ggc_pending_trees.85
	movq	(%rax), %rax	# ggc_pending_trees.85_10->num_elements, D.20770
	cmpq	%rax, %rdx	# D.20770, D.20770
	jb	.L70	#,
	movq	ggc_pending_trees(%rip), %rax	# ggc_pending_trees, ggc_pending_trees.86
	movq	(%rax), %rax	# ggc_pending_trees.86_12->num_elements, D.20770
	leaq	(%rax,%rax), %rdx	#, D.20770
	movq	ggc_pending_trees(%rip), %rax	# ggc_pending_trees, ggc_pending_trees.87
	movq	%rdx, %rsi	# D.20770,
	movq	%rax, %rdi	# ggc_pending_trees.87,
	call	varray_grow	#
	movq	%rax, ggc_pending_trees(%rip)	# ggc_pending_trees.88, ggc_pending_trees
.L70:
	.loc 1 597 0 discriminator 2
	movq	ggc_pending_trees(%rip), %rcx	# ggc_pending_trees, ggc_pending_trees.89
	movq	ggc_pending_trees(%rip), %rax	# ggc_pending_trees, ggc_pending_trees.90
	movq	8(%rax), %rdx	# ggc_pending_trees.90_18->elements_used, D.20770
	leaq	1(%rdx), %rsi	#, D.20770
	movq	%rsi, 8(%rax)	# D.20770, ggc_pending_trees.90_18->elements_used
	addq	$4, %rdx	#, tmp87
	movq	-16(%rbp), %rax	# t__, tmp88
	movq	%rax, (%rcx,%rdx,8)	# tmp88, ggc_pending_trees.89_17->data.tree
.L69:
.LBE34:
	.loc 1 599 0 is_stmt 1
	movq	-24(%rbp), %rax	# p, tmp89
	movq	56(%rax), %rax	# p_1(D)->x_last_expr_type, D.20771
	testq	%rax, %rax	# D.20771
	je	.L71	#,
.LBB35:
	.loc 1 600 0
	movq	-24(%rbp), %rax	# p, tmp90
	movq	64(%rax), %rax	# p_1(D)->x_last_expr_value, tmp91
	movq	%rax, -8(%rbp)	# tmp91, r__
	cmpq	$0, -8(%rbp)	#, r__
	je	.L71	#,
	.loc 1 600 0 is_stmt 0 discriminator 1
	movq	-8(%rbp), %rax	# r__, tmp92
	movq	%rax, %rdi	# tmp92,
	call	ggc_set_mark	#
	testl	%eax, %eax	# D.20769
	jne	.L71	#,
	movq	-8(%rbp), %rax	# r__, tmp93
	movq	%rax, %rdi	# tmp93,
	call	ggc_mark_rtx_children	#
.L71:
.LBE35:
	.loc 1 602 0 is_stmt 1
	movq	-24(%rbp), %rax	# p, tmp94
	movq	96(%rax), %rax	# p_1(D)->x_goto_fixup_chain, D.20772
	movq	%rax, %rdi	# D.20772,
	call	mark_goto_fixup	#
.L66:
	.loc 1 603 0
	leave
	.cfi_def_cfa 7, 8
	ret
	.cfi_endproc
.LFE10:
	.size	mark_stmt_status, .-mark_stmt_status
	.globl	init_stmt
	.type	init_stmt, @function
init_stmt:
.LFB11:
	.loc 1 607 0
	.cfi_startproc
	pushq	%rbp	#
	.cfi_def_cfa_offset 16
	.cfi_offset 6, -16
	movq	%rsp, %rbp	#,
	.cfi_def_cfa_register 6
	.loc 1 608 0
	movl	$stmt_obstack, %edi	#,
	call	gcc_obstack_init	#
	.loc 1 609 0
	popq	%rbp	#
	.cfi_def_cfa 7, 8
	ret
	.cfi_endproc
.LFE11:
	.size	init_stmt, .-init_stmt
	.globl	init_stmt_for_function
	.type	init_stmt_for_function, @function
init_stmt_for_function:
.LFB12:
	.loc 1 613 0
	.cfi_startproc
	pushq	%rbp	#
	.cfi_def_cfa_offset 16
	.cfi_offset 6, -16
	movq	%rsp, %rbp	#,
	.cfi_def_cfa_register 6
	pushq	%rbx	#
	subq	$8, %rsp	#,
	.cfi_offset 3, -24
	.loc 1 614 0
	movq	cfun(%rip), %rbx	# cfun, cfun.91
	movl	$104, %edi	#,
	call	xmalloc	#
	movq	%rax, 8(%rbx)	# D.20773, cfun.91_1->stmt
	.loc 1 617 0
	movq	cfun(%rip), %rax	# cfun, cfun.92
	movq	8(%rax), %rax	# cfun.92_3->stmt, D.20774
	movq	$0, (%rax)	#, _4->x_block_stack
	.loc 1 618 0
	movq	cfun(%rip), %rax	# cfun, cfun.93
	movq	8(%rax), %rax	# cfun.93_5->stmt, D.20774
	movq	$0, 8(%rax)	#, _6->x_stack_block_stack
	.loc 1 619 0
	movq	cfun(%rip), %rax	# cfun, cfun.94
	movq	8(%rax), %rax	# cfun.94_7->stmt, D.20774
	movq	$0, 24(%rax)	#, _8->x_loop_stack
	.loc 1 620 0
	movq	cfun(%rip), %rax	# cfun, cfun.95
	movq	8(%rax), %rax	# cfun.95_9->stmt, D.20774
	movq	$0, 32(%rax)	#, _10->x_case_stack
	.loc 1 621 0
	movq	cfun(%rip), %rax	# cfun, cfun.96
	movq	8(%rax), %rax	# cfun.96_11->stmt, D.20774
	movq	$0, 16(%rax)	#, _12->x_cond_stack
	.loc 1 622 0
	movq	cfun(%rip), %rax	# cfun, cfun.97
	movq	8(%rax), %rax	# cfun.97_13->stmt, D.20774
	movq	$0, 40(%rax)	#, _14->x_nesting_stack
	.loc 1 623 0
	movq	cfun(%rip), %rax	# cfun, cfun.98
	movq	8(%rax), %rax	# cfun.98_15->stmt, D.20774
	movl	$0, 48(%rax)	#, _16->x_nesting_depth
	.loc 1 625 0
	movq	cfun(%rip), %rax	# cfun, cfun.99
	movq	8(%rax), %rax	# cfun.99_17->stmt, D.20774
	movl	$0, 52(%rax)	#, _18->x_block_start_count
	.loc 1 628 0
	movq	cfun(%rip), %rax	# cfun, cfun.100
	movq	8(%rax), %rax	# cfun.100_19->stmt, D.20774
	movq	$0, 96(%rax)	#, _20->x_goto_fixup_chain
	.loc 1 631 0
	movq	cfun(%rip), %rax	# cfun, cfun.101
	movq	8(%rax), %rax	# cfun.101_21->stmt, D.20774
	movl	$0, 72(%rax)	#, _22->x_expr_stmts_for_value
	.loc 1 632 0
	movq	cfun(%rip), %rax	# cfun, cfun.102
	movq	8(%rax), %rax	# cfun.102_23->stmt, D.20774
	movq	$0, 56(%rax)	#, _24->x_last_expr_type
	.loc 1 633 0
	movq	cfun(%rip), %rax	# cfun, cfun.103
	movq	8(%rax), %rax	# cfun.103_25->stmt, D.20774
	movq	$0, 64(%rax)	#, _26->x_last_expr_value
	.loc 1 634 0
	addq	$8, %rsp	#,
	popq	%rbx	#
	popq	%rbp	#
	.cfi_def_cfa 7, 8
	ret
	.cfi_endproc
.LFE12:
	.size	init_stmt_for_function, .-init_stmt_for_function
	.globl	in_control_zone_p
	.type	in_control_zone_p, @function
in_control_zone_p:
.LFB13:
	.loc 1 640 0
	.cfi_startproc
	pushq	%rbp	#
	.cfi_def_cfa_offset 16
	.cfi_offset 6, -16
	movq	%rsp, %rbp	#,
	.cfi_def_cfa_register 6
	.loc 1 641 0
	movq	cfun(%rip), %rax	# cfun, cfun.105
	movq	8(%rax), %rax	# cfun.105_2->stmt, D.20775
	movq	16(%rax), %rax	# _3->x_cond_stack, D.20776
	testq	%rax, %rax	# D.20776
	jne	.L75	#,
	.loc 1 641 0 is_stmt 0 discriminator 2
	movq	cfun(%rip), %rax	# cfun, cfun.106
	movq	8(%rax), %rax	# cfun.106_5->stmt, D.20775
	movq	24(%rax), %rax	# _6->x_loop_stack, D.20776
	testq	%rax, %rax	# D.20776
	jne	.L75	#,
	.loc 1 641 0 discriminator 1
	movq	cfun(%rip), %rax	# cfun, cfun.107
	movq	8(%rax), %rax	# cfun.107_8->stmt, D.20775
	movq	32(%rax), %rax	# _9->x_case_stack, D.20776
	testq	%rax, %rax	# D.20776
	je	.L76	#,
.L75:
	movl	$1, %eax	#, iftmp.104
	jmp	.L77	#
.L76:
	.loc 1 641 0 discriminator 3
	movl	$0, %eax	#, iftmp.104
.L77:
	.loc 1 642 0 is_stmt 1 discriminator 4
	popq	%rbp	#
	.cfi_def_cfa 7, 8
	ret
	.cfi_endproc
.LFE13:
	.size	in_control_zone_p, .-in_control_zone_p
	.globl	set_file_and_line_for_stmt
	.type	set_file_and_line_for_stmt, @function
set_file_and_line_for_stmt:
.LFB14:
	.loc 1 649 0
	.cfi_startproc
	pushq	%rbp	#
	.cfi_def_cfa_offset 16
	.cfi_offset 6, -16
	movq	%rsp, %rbp	#,
	.cfi_def_cfa_register 6
	movq	%rdi, -8(%rbp)	# file, file
	movl	%esi, -12(%rbp)	# line, line
	.loc 1 653 0
	movq	cfun(%rip), %rax	# cfun, cfun.108
	movq	8(%rax), %rax	# cfun.108_1->stmt, D.20778
	testq	%rax, %rax	# D.20778
	je	.L79	#,
	.loc 1 655 0
	movq	cfun(%rip), %rax	# cfun, cfun.109
	movq	8(%rax), %rax	# cfun.109_3->stmt, D.20778
	movq	-8(%rbp), %rdx	# file, tmp65
	movq	%rdx, 80(%rax)	# tmp65, _4->x_emit_filename
	.loc 1 656 0
	movq	cfun(%rip), %rax	# cfun, cfun.110
	movq	8(%rax), %rax	# cfun.110_6->stmt, D.20778
	movl	-12(%rbp), %edx	# line, tmp66
	movl	%edx, 88(%rax)	# tmp66, _7->x_emit_lineno
.L79:
	.loc 1 658 0
	popq	%rbp	#
	.cfi_def_cfa 7, 8
	ret
	.cfi_endproc
.LFE14:
	.size	set_file_and_line_for_stmt, .-set_file_and_line_for_stmt
	.globl	emit_nop
	.type	emit_nop, @function
emit_nop:
.LFB15:
	.loc 1 664 0
	.cfi_startproc
	pushq	%rbp	#
	.cfi_def_cfa_offset 16
	.cfi_offset 6, -16
	movq	%rsp, %rbp	#,
	.cfi_def_cfa_register 6
	subq	$16, %rsp	#,
	.loc 1 667 0
	call	get_last_insn	#
	movq	%rax, -8(%rbp)	# tmp64, last_insn
	.loc 1 668 0
	movl	optimize(%rip), %eax	# optimize, optimize.111
	testl	%eax, %eax	# optimize.111
	jne	.L81	#,
	.loc 1 669 0
	movq	-8(%rbp), %rax	# last_insn, tmp65
	movzwl	(%rax), %eax	# last_insn_1->code, D.20779
	cmpw	$36, %ax	#, D.20779
	je	.L83	#,
	.loc 1 670 0
	movq	-8(%rbp), %rax	# last_insn, tmp66
	movzwl	(%rax), %eax	# last_insn_1->code, D.20779
	cmpw	$37, %ax	#, D.20779
	jne	.L81	#,
	.loc 1 671 0
	movq	-8(%rbp), %rax	# last_insn, tmp67
	movq	%rax, %rdi	# tmp67,
	call	prev_real_insn	#
	testq	%rax, %rax	# D.20780
	jne	.L81	#,
.L83:
	.loc 1 672 0
	call	gen_nop	#
	movq	%rax, %rdi	# D.20780,
	call	emit_insn	#
.L81:
	.loc 1 673 0
	leave
	.cfi_def_cfa 7, 8
	ret
	.cfi_endproc
.LFE15:
	.size	emit_nop, .-emit_nop
	.section	.rodata
.LC0:
	.string	"stmt.c"
	.text
	.globl	label_rtx
	.type	label_rtx, @function
label_rtx:
.LFB16:
	.loc 1 681 0
	.cfi_startproc
	pushq	%rbp	#
	.cfi_def_cfa_offset 16
	.cfi_offset 6, -16
	movq	%rsp, %rbp	#,
	.cfi_def_cfa_register 6
	subq	$16, %rsp	#,
	movq	%rdi, -8(%rbp)	# label, label
	.loc 1 682 0
	movq	-8(%rbp), %rax	# label, tmp66
	movzbl	16(%rax), %eax	# label_2(D)->common.code, D.20781
	cmpb	$31, %al	#, D.20781
	je	.L85	#,
	.loc 1 683 0
	movl	$__FUNCTION__.13917, %edx	#,
	movl	$683, %esi	#,
	movl	$.LC0, %edi	#,
	call	fancy_abort	#
.L85:
	.loc 1 685 0
	movq	-8(%rbp), %rax	# label, tmp67
	movq	144(%rax), %rax	# label_2(D)->decl.rtl, D.20782
	testq	%rax, %rax	# D.20782
	jne	.L86	#,
	.loc 1 686 0
	call	gen_label_rtx	#
	movq	-8(%rbp), %rdx	# label, tmp68
	movq	%rax, 144(%rdx)	# D.20782, label_2(D)->decl.rtl
.L86:
	.loc 1 688 0
	movq	-8(%rbp), %rax	# label, tmp69
	movq	144(%rax), %rax	# label_2(D)->decl.rtl, D.20782
	testq	%rax, %rax	# D.20782
	je	.L87	#,
	.loc 1 688 0 is_stmt 0 discriminator 1
	movq	-8(%rbp), %rax	# label, tmp70
	movq	144(%rax), %rax	# label_2(D)->decl.rtl, iftmp.112
	jmp	.L88	#
.L87:
	.loc 1 688 0 discriminator 2
	movq	-8(%rbp), %rax	# label, tmp71
	movl	$0, %esi	#,
	movq	%rax, %rdi	# tmp71,
	call	make_decl_rtl	#
	movq	-8(%rbp), %rax	# label, tmp72
	movq	144(%rax), %rax	# label_2(D)->decl.rtl, iftmp.112
.L88:
	.loc 1 689 0 is_stmt 1 discriminator 3
	leave
	.cfi_def_cfa 7, 8
	ret
	.cfi_endproc
.LFE16:
	.size	label_rtx, .-label_rtx
	.globl	emit_jump
	.type	emit_jump, @function
emit_jump:
.LFB17:
	.loc 1 697 0
	.cfi_startproc
	pushq	%rbp	#
	.cfi_def_cfa_offset 16
	.cfi_offset 6, -16
	movq	%rsp, %rbp	#,
	.cfi_def_cfa_register 6
	subq	$16, %rsp	#,
	movq	%rdi, -8(%rbp)	# label, label
	.loc 1 698 0
	call	do_pending_stack_adjust	#
	.loc 1 699 0
	movq	-8(%rbp), %rax	# label, tmp60
	movq	%rax, %rdi	# tmp60,
	call	gen_jump	#
	movq	%rax, %rdi	# D.20785,
	call	emit_jump_insn	#
	.loc 1 700 0
	call	emit_barrier	#
	.loc 1 701 0
	leave
	.cfi_def_cfa 7, 8
	ret
	.cfi_endproc
.LFE17:
	.size	emit_jump, .-emit_jump
	.globl	expand_computed_goto
	.type	expand_computed_goto, @function
expand_computed_goto:
.LFB18:
	.loc 1 709 0
	.cfi_startproc
	pushq	%rbp	#
	.cfi_def_cfa_offset 16
	.cfi_offset 6, -16
	movq	%rsp, %rbp	#,
	.cfi_def_cfa_register 6
	subq	$32, %rsp	#,
	movq	%rdi, -24(%rbp)	# exp, exp
	.loc 1 710 0
	movq	-24(%rbp), %rax	# exp, tmp60
	movl	$0, %ecx	#,
	movl	$0, %edx	#,
	movl	$0, %esi	#,
	movq	%rax, %rdi	# tmp60,
	call	expand_expr	#
	movq	%rax, -8(%rbp)	# tmp61, x
	.loc 1 717 0
	call	emit_queue	#
	.loc 1 718 0
	call	do_pending_stack_adjust	#
	.loc 1 719 0
	movq	-8(%rbp), %rax	# x, tmp62
	movq	%rax, %rdi	# tmp62,
	call	emit_indirect_jump	#
	.loc 1 721 0
	movq	cfun(%rip), %rax	# cfun, cfun.113
	movzbl	425(%rax), %edx	#, tmp65
	orl	$8, %edx	#, tmp66
	movb	%dl, 425(%rax)	# tmp66,
	.loc 1 722 0
	leave
	.cfi_def_cfa 7, 8
	ret
	.cfi_endproc
.LFE18:
	.size	expand_computed_goto, .-expand_computed_goto
	.globl	expand_label
	.type	expand_label, @function
expand_label:
.LFB19:
	.loc 1 740 0
	.cfi_startproc
	pushq	%rbp	#
	.cfi_def_cfa_offset 16
	.cfi_offset 6, -16
	movq	%rsp, %rbp	#,
	.cfi_def_cfa_register 6
	subq	$32, %rsp	#,
	movq	%rdi, -24(%rbp)	# label, label
	.loc 1 743 0
	call	do_pending_stack_adjust	#
	.loc 1 744 0
	movq	-24(%rbp), %rax	# label, tmp75
	movq	%rax, %rdi	# tmp75,
	call	label_rtx	#
	movq	%rax, %rdi	# D.20786,
	call	emit_label	#
	.loc 1 745 0
	movq	-24(%rbp), %rax	# label, tmp76
	movq	72(%rax), %rax	# label_2(D)->decl.name, D.20787
	testq	%rax, %rax	# D.20787
	je	.L93	#,
	.loc 1 746 0
	movq	-24(%rbp), %rax	# label, tmp77
	movq	144(%rax), %rax	# label_2(D)->decl.rtl, D.20786
	testq	%rax, %rax	# D.20786
	je	.L94	#,
	.loc 1 746 0 is_stmt 0 discriminator 1
	movq	-24(%rbp), %rax	# label, tmp78
	movq	144(%rax), %rax	# label_2(D)->decl.rtl, iftmp.114
	jmp	.L95	#
.L94:
	.loc 1 746 0 discriminator 2
	movq	-24(%rbp), %rax	# label, tmp79
	movl	$0, %esi	#,
	movq	%rax, %rdi	# tmp79,
	call	make_decl_rtl	#
	movq	-24(%rbp), %rax	# label, tmp80
	movq	144(%rax), %rax	# label_2(D)->decl.rtl, iftmp.114
.L95:
	.loc 1 746 0 discriminator 3
	movq	-24(%rbp), %rdx	# label, tmp81
	movq	72(%rdx), %rdx	# label_2(D)->decl.name, D.20787
	movq	32(%rdx), %rdx	# _8->identifier.id.str, D.20788
	movq	%rdx, 56(%rax)	# D.20788, iftmp.114_1->fld[6].rtstr
.L93:
	.loc 1 748 0 is_stmt 1
	movq	cfun(%rip), %rax	# cfun, cfun.115
	movq	8(%rax), %rax	# cfun.115_10->stmt, D.20789
	movq	8(%rax), %rax	# _11->x_stack_block_stack, D.20790
	testq	%rax, %rax	# D.20790
	je	.L92	#,
	.loc 1 750 0
	movl	$16, %edi	#,
	call	ggc_alloc	#
	movq	%rax, -8(%rbp)	# tmp82, p
	.loc 1 751 0
	movq	cfun(%rip), %rax	# cfun, cfun.116
	movq	8(%rax), %rax	# cfun.116_14->stmt, D.20789
	movq	8(%rax), %rax	# _15->x_stack_block_stack, D.20790
	movq	80(%rax), %rdx	# _16->data.block.label_chain, D.20791
	movq	-8(%rbp), %rax	# p, tmp83
	movq	%rdx, (%rax)	# D.20791, p_13->next
	.loc 1 752 0
	movq	cfun(%rip), %rax	# cfun, cfun.117
	movq	8(%rax), %rax	# cfun.117_18->stmt, D.20789
	movq	8(%rax), %rax	# _19->x_stack_block_stack, D.20790
	movq	-8(%rbp), %rdx	# p, tmp84
	movq	%rdx, 80(%rax)	# tmp84, _20->data.block.label_chain
	.loc 1 753 0
	movq	-8(%rbp), %rax	# p, tmp85
	movq	-24(%rbp), %rdx	# label, tmp86
	movq	%rdx, 8(%rax)	# tmp86, p_13->label
.L92:
	.loc 1 755 0
	leave
	.cfi_def_cfa 7, 8
	ret
	.cfi_endproc
.LFE19:
	.size	expand_label, .-expand_label
	.globl	declare_nonlocal_label
	.type	declare_nonlocal_label, @function
declare_nonlocal_label:
.LFB20:
	.loc 1 763 0
	.cfi_startproc
	pushq	%rbp	#
	.cfi_def_cfa_offset 16
	.cfi_offset 6, -16
	movq	%rsp, %rbp	#,
	.cfi_def_cfa_register 6
	pushq	%rbx	#
	subq	$40, %rsp	#,
	.cfi_offset 3, -24
	movq	%rdi, -40(%rbp)	# label, label
	.loc 1 764 0
	movl	target_flags(%rip), %eax	# target_flags, target_flags.119
	andl	$33554432, %eax	#, D.20792
	testl	%eax, %eax	# D.20792
	je	.L98	#,
	.loc 1 764 0 is_stmt 0 discriminator 1
	movl	$5, %eax	#, iftmp.118
	jmp	.L99	#
.L98:
	.loc 1 764 0 discriminator 2
	movl	$4, %eax	#, iftmp.118
.L99:
	.loc 1 764 0 discriminator 3
	cltq
	movzbl	mode_size(%rax), %eax	# mode_size, D.20793
	movzbl	%al, %ecx	# D.20793, D.20794
	movl	target_flags(%rip), %eax	# target_flags, target_flags.121
	andl	$33554432, %eax	#, D.20792
	testl	%eax, %eax	# D.20792
	je	.L100	#,
	.loc 1 764 0 discriminator 1
	movl	$5, %eax	#, iftmp.120
	jmp	.L101	#
.L100:
	.loc 1 764 0 discriminator 2
	movl	$4, %eax	#, iftmp.120
.L101:
	.loc 1 764 0 discriminator 3
	movl	$0, %edx	#,
	movq	%rcx, %rsi	# D.20794,
	movl	%eax, %edi	# iftmp.120,
	call	assign_stack_local	#
	movq	%rax, -24(%rbp)	# tmp84, slot
	.loc 1 766 0 is_stmt 1 discriminator 3
	movq	cfun(%rip), %rbx	# cfun, cfun.122
	movq	cfun(%rip), %rax	# cfun, cfun.123
	movq	160(%rax), %rdx	# cfun.123_15->x_nonlocal_labels, D.20795
	movq	-40(%rbp), %rax	# label, tmp85
	movq	%rax, %rsi	# tmp85,
	movl	$0, %edi	#,
	call	tree_cons	#
	movq	%rax, 160(%rbx)	# D.20795, cfun.122_14->x_nonlocal_labels
	.loc 1 767 0 discriminator 3
	movq	-40(%rbp), %rax	# label, tmp86
	movq	%rax, %rdi	# tmp86,
	call	label_rtx	#
	movzbl	3(%rax), %edx	# _19->in_struct, tmp89
	orl	$16, %edx	#, tmp90
	movb	%dl, 3(%rax)	# tmp90, _19->in_struct
	.loc 1 768 0 discriminator 3
	movq	cfun(%rip), %rax	# cfun, cfun.124
	movq	168(%rax), %rax	# cfun.124_20->x_nonlocal_goto_handler_slots, D.20796
	testq	%rax, %rax	# D.20796
	jne	.L102	#,
	.loc 1 772 0
	movq	cfun(%rip), %rax	# cfun, cfun.125
	movq	240(%rax), %rax	# cfun.125_22->x_tail_recursion_reentry, D.20796
	.loc 1 770 0
	movq	16(%rax), %rax	# _23->fld[1].rtx, D.20796
	.loc 1 771 0
	movq	cfun(%rip), %rdx	# cfun, cfun.126
	.loc 1 770 0
	leaq	184(%rdx), %rcx	#, D.20797
	movq	%rax, %rdx	# D.20796,
	movq	%rcx, %rsi	# D.20797,
	movl	$2, %edi	#,
	call	emit_stack_save	#
.L102:
	.loc 1 774 0
	movq	cfun(%rip), %rbx	# cfun, cfun.127
	.loc 1 775 0
	movq	cfun(%rip), %rax	# cfun, cfun.128
	movq	168(%rax), %rdx	# cfun.128_28->x_nonlocal_goto_handler_slots, D.20796
	movq	-24(%rbp), %rax	# slot, tmp91
	movq	%rdx, %rcx	# D.20796,
	movq	%rax, %rdx	# tmp91,
	movl	$0, %esi	#,
	movl	$3, %edi	#,
	call	gen_rtx_fmt_ee	#
	movq	%rax, 168(%rbx)	# D.20796, cfun.127_27->x_nonlocal_goto_handler_slots
	.loc 1 776 0
	addq	$40, %rsp	#,
	popq	%rbx	#
	popq	%rbp	#
	.cfi_def_cfa 7, 8
	ret
	.cfi_endproc
.LFE20:
	.size	declare_nonlocal_label, .-declare_nonlocal_label
	.globl	expand_goto
	.type	expand_goto, @function
expand_goto:
.LFB21:
	.loc 1 785 0
	.cfi_startproc
	pushq	%rbp	#
	.cfi_def_cfa_offset 16
	.cfi_offset 6, -16
	movq	%rsp, %rbp	#,
	.cfi_def_cfa_register 6
	pushq	%rbx	#
	subq	$88, %rsp	#,
	.cfi_offset 3, -24
	movq	%rdi, -88(%rbp)	# label, label
	.loc 1 789 0
	movq	-88(%rbp), %rax	# label, tmp83
	movq	%rax, %rdi	# tmp83,
	call	decl_function_context	#
	movq	%rax, -48(%rbp)	# tmp84, context
	.loc 1 790 0
	cmpq	$0, -48(%rbp)	#, context
	je	.L104	#,
	.loc 1 790 0 is_stmt 0 discriminator 1
	movq	current_function_decl(%rip), %rax	# current_function_decl, current_function_decl.129
	cmpq	%rax, -48(%rbp)	# current_function_decl.129, context
	je	.L104	#,
.LBB36:
	.loc 1 792 0 is_stmt 1
	movq	-48(%rbp), %rax	# context, tmp85
	movq	%rax, %rdi	# tmp85,
	call	find_function_data	#
	movq	%rax, -40(%rbp)	# tmp86, p
	.loc 1 793 0
	movq	-88(%rbp), %rax	# label, tmp87
	movq	%rax, %rdi	# tmp87,
	call	label_rtx	#
	movq	%rax, %rdx	#, D.20798
	movl	target_flags(%rip), %eax	# target_flags, target_flags.131
	andl	$33554432, %eax	#, D.20799
	testl	%eax, %eax	# D.20799
	je	.L105	#,
	.loc 1 793 0 is_stmt 0 discriminator 1
	movl	$5, %eax	#, iftmp.130
	jmp	.L106	#
.L105:
	.loc 1 793 0 discriminator 2
	movl	$4, %eax	#, iftmp.130
.L106:
	.loc 1 793 0 discriminator 3
	movl	%eax, %esi	# iftmp.130,
	movl	$67, %edi	#,
	call	gen_rtx_fmt_u00	#
	movq	%rax, -32(%rbp)	# tmp88, label_ref
	.loc 1 798 0 is_stmt 1 discriminator 3
	movq	-40(%rbp), %rax	# p, tmp89
	movq	168(%rax), %rax	# p_9->x_nonlocal_goto_handler_slots, tmp90
	movq	%rax, -80(%rbp)	# tmp90, handler_slot
	.loc 1 799 0 discriminator 3
	movq	-40(%rbp), %rax	# p, tmp91
	movq	160(%rax), %rax	# p_9->x_nonlocal_labels, tmp92
	movq	%rax, -56(%rbp)	# tmp92, link
	jmp	.L107	#
.L108:
	.loc 1 801 0
	movq	-80(%rbp), %rax	# handler_slot, tmp93
	movq	16(%rax), %rax	# handler_slot_1->fld[1].rtx, tmp94
	movq	%rax, -80(%rbp)	# tmp94, handler_slot
	.loc 1 800 0
	movq	-56(%rbp), %rax	# link, tmp95
	movq	(%rax), %rax	# link_4->common.chain, tmp96
	movq	%rax, -56(%rbp)	# tmp96, link
.L107:
	.loc 1 799 0 discriminator 1
	movq	-56(%rbp), %rax	# link, tmp97
	movq	32(%rax), %rax	# link_4->list.value, D.20800
	cmpq	-88(%rbp), %rax	# label, D.20800
	jne	.L108	#,
	.loc 1 802 0
	movq	-80(%rbp), %rax	# handler_slot, tmp98
	movq	8(%rax), %rax	# handler_slot_1->fld[0].rtx, tmp99
	movq	%rax, -80(%rbp)	# tmp99, handler_slot
	.loc 1 804 0
	movq	-40(%rbp), %rax	# p, tmp100
	movzbl	425(%rax), %edx	#, tmp103
	orl	$1, %edx	#, tmp104
	movb	%dl, 425(%rax)	# tmp104,
	.loc 1 805 0
	movq	cfun(%rip), %rax	# cfun, cfun.132
	movzbl	425(%rax), %edx	#, tmp107
	orl	$2, %edx	#, tmp108
	movb	%dl, 425(%rax)	# tmp108,
	.loc 1 806 0
	movq	-32(%rbp), %rax	# label_ref, tmp109
	movzbl	3(%rax), %edx	# label_ref_15->volatil, tmp112
	orl	$8, %edx	#, tmp113
	movb	%dl, 3(%rax)	# tmp113, label_ref_15->volatil
	.loc 1 812 0
	movq	-88(%rbp), %rax	# label, tmp114
	movq	%rax, %rdi	# tmp114,
	call	lookup_static_chain	#
	movq	%rax, %rdi	# D.20798,
	call	copy_to_reg	#
	movq	%rax, -24(%rbp)	# tmp115, static_chain
	.loc 1 816 0
	movq	global_rtl+56(%rip), %rbx	# global_rtl, D.20798
	movq	-80(%rbp), %rax	# handler_slot, tmp116
	movq	%rax, %rdi	# tmp116,
	call	copy_rtx	#
	movq	-24(%rbp), %rdx	# static_chain, tmp117
	movq	%rbx, %rsi	# D.20798,
	movq	%rax, %rdi	# D.20798,
	call	replace_rtx	#
	movq	%rax, %rdi	# D.20798,
	call	copy_to_reg	#
	movq	%rax, -80(%rbp)	# tmp118, handler_slot
	.loc 1 821 0
	movq	-40(%rbp), %rax	# p, tmp119
	movq	184(%rax), %rax	# p_9->x_nonlocal_goto_stack_level, tmp120
	movq	%rax, -72(%rbp)	# tmp120, save_area
	.loc 1 822 0
	cmpq	$0, -72(%rbp)	#, save_area
	je	.L109	#,
	.loc 1 823 0
	movq	global_rtl+56(%rip), %rbx	# global_rtl, D.20798
	movq	-72(%rbp), %rax	# save_area, tmp121
	movq	%rax, %rdi	# tmp121,
	call	copy_rtx	#
	movq	-24(%rbp), %rdx	# static_chain, tmp122
	movq	%rbx, %rsi	# D.20798,
	movq	%rax, %rdi	# D.20798,
	call	replace_rtx	#
	movq	%rax, -72(%rbp)	# tmp123, save_area
.L109:
	.loc 1 838 0
	movq	global_rtl+32(%rip), %rax	# global_rtl, D.20798
	movq	-24(%rbp), %rdx	# static_chain, tmp124
	movq	%rdx, %rsi	# tmp124,
	movq	%rax, %rdi	# D.20798,
	call	emit_move_insn	#
	.loc 1 839 0
	movq	-72(%rbp), %rax	# save_area, tmp125
	movl	$0, %edx	#,
	movq	%rax, %rsi	# tmp125,
	movl	$2, %edi	#,
	call	emit_stack_restore	#
	.loc 1 843 0
	movq	global_rtl+32(%rip), %rax	# global_rtl, D.20798
	movq	%rax, %rdx	# D.20798,
	movl	$0, %esi	#,
	movl	$48, %edi	#,
	call	gen_rtx_fmt_e	#
	movq	%rax, %rdi	# D.20798,
	call	emit_insn	#
	.loc 1 844 0
	movq	global_rtl+16(%rip), %rax	# global_rtl, D.20798
	movq	%rax, %rdx	# D.20798,
	movl	$0, %esi	#,
	movl	$48, %edi	#,
	call	gen_rtx_fmt_e	#
	movq	%rax, %rdi	# D.20798,
	call	emit_insn	#
	.loc 1 845 0
	movq	-80(%rbp), %rax	# handler_slot, tmp126
	movq	%rax, %rdi	# tmp126,
	call	emit_indirect_jump	#
	.loc 1 850 0
	call	get_last_insn	#
	movq	%rax, -64(%rbp)	# tmp127, insn
	jmp	.L110	#
.L114:
	.loc 1 852 0
	movq	-64(%rbp), %rax	# insn, tmp128
	movzwl	(%rax), %eax	# insn_3->code, D.20801
	cmpw	$33, %ax	#, D.20801
	jne	.L111	#,
	.loc 1 854 0
	movq	-64(%rbp), %rax	# insn, tmp129
	movq	56(%rax), %rdx	# insn_3->fld[6].rtx, D.20798
	movq	const_int_rtx+512(%rip), %rax	# const_int_rtx, D.20798
	movq	%rax, %rsi	# D.20798,
	movl	$27, %edi	#,
	call	alloc_EXPR_LIST	#
	movq	-64(%rbp), %rdx	# insn, tmp130
	movq	%rax, 56(%rdx)	# D.20798, insn_3->fld[6].rtx
	.loc 1 856 0
	jmp	.L112	#
.L111:
	.loc 1 858 0
	movq	-64(%rbp), %rax	# insn, tmp131
	movzwl	(%rax), %eax	# insn_3->code, D.20801
	cmpw	$34, %ax	#, D.20801
	jne	.L113	#,
	.loc 1 859 0
	jmp	.L112	#
.L113:
	.loc 1 850 0
	movq	-64(%rbp), %rax	# insn, tmp132
	movq	16(%rax), %rax	# insn_3->fld[1].rtx, tmp133
	movq	%rax, -64(%rbp)	# tmp133, insn
.L110:
	.loc 1 850 0 is_stmt 0 discriminator 1
	cmpq	$0, -64(%rbp)	#, insn
	jne	.L114	#,
.L112:
.LBE36:
	.loc 1 791 0 is_stmt 1
	jmp	.L103	#
.L104:
	.loc 1 863 0
	movq	-88(%rbp), %rax	# label, tmp134
	movq	%rax, %rdi	# tmp134,
	call	label_rtx	#
	movq	%rax, %rcx	#, D.20798
	movq	-88(%rbp), %rax	# label, tmp135
	movl	$0, %edx	#,
	movq	%rcx, %rsi	# D.20798,
	movq	%rax, %rdi	# tmp135,
	call	expand_goto_internal	#
.L103:
	.loc 1 864 0
	addq	$88, %rsp	#,
	popq	%rbx	#
	popq	%rbp	#
	.cfi_def_cfa 7, 8
	ret
	.cfi_endproc
.LFE21:
	.size	expand_goto, .-expand_goto
	.section	.rodata
	.align 8
.LC1:
	.string	"jump to `%s' invalidly jumps into binding contour"
	.text
	.type	expand_goto_internal, @function
expand_goto_internal:
.LFB22:
	.loc 1 876 0
	.cfi_startproc
	pushq	%rbp	#
	.cfi_def_cfa_offset 16
	.cfi_offset 6, -16
	movq	%rsp, %rbp	#,
	.cfi_def_cfa_register 6
	subq	$48, %rsp	#,
	movq	%rdi, -24(%rbp)	# body, body
	movq	%rsi, -32(%rbp)	# label, label
	movq	%rdx, -40(%rbp)	# last_insn, last_insn
	.loc 1 878 0
	movq	$0, -8(%rbp)	#, stack_level
	.loc 1 880 0
	movq	-32(%rbp), %rax	# label, tmp83
	movzwl	(%rax), %eax	# label_5(D)->code, D.20802
	cmpw	$36, %ax	#, D.20802
	je	.L117	#,
	.loc 1 881 0
	movl	$__FUNCTION__.13957, %edx	#,
	movl	$881, %esi	#,
	movl	$.LC0, %edi	#,
	call	fancy_abort	#
.L117:
	.loc 1 886 0
	movq	-32(%rbp), %rax	# label, tmp84
	movq	16(%rax), %rax	# label_5(D)->fld[1].rtx, D.20803
	testq	%rax, %rax	# D.20803
	je	.L118	#,
	.loc 1 892 0
	movq	cfun(%rip), %rax	# cfun, cfun.133
	movq	8(%rax), %rax	# cfun.133_8->stmt, D.20804
	movq	(%rax), %rax	# _9->x_block_stack, tmp85
	movq	%rax, -16(%rbp)	# tmp85, block
	jmp	.L119	#
.L124:
	.loc 1 894 0
	movq	-16(%rbp), %rax	# block, tmp86
	movq	48(%rax), %rax	# block_1->data.block.first_insn, D.20803
	movl	8(%rax), %edx	# _11->fld[0].rtint, D.20805
	movq	-32(%rbp), %rax	# label, tmp87
	movl	8(%rax), %eax	# label_5(D)->fld[0].rtint, D.20805
	cmpl	%eax, %edx	# D.20805, D.20805
	jge	.L120	#,
	.loc 1 895 0
	jmp	.L121	#
.L120:
	.loc 1 896 0
	movq	-16(%rbp), %rax	# block, tmp88
	movq	40(%rax), %rax	# block_1->data.block.stack_level, D.20803
	testq	%rax, %rax	# D.20803
	je	.L122	#,
	.loc 1 897 0
	movq	-16(%rbp), %rax	# block, tmp89
	movq	40(%rax), %rax	# block_1->data.block.stack_level, tmp90
	movq	%rax, -8(%rbp)	# tmp90, stack_level
.L122:
	.loc 1 899 0
	movq	-16(%rbp), %rax	# block, tmp91
	movq	64(%rax), %rax	# block_1->data.block.cleanups, D.20806
	testq	%rax, %rax	# D.20806
	je	.L123	#,
	.loc 1 901 0
	movq	-16(%rbp), %rax	# block, tmp92
	movq	64(%rax), %rax	# block_1->data.block.cleanups, D.20806
	movl	$1, %ecx	#,
	movl	$1, %edx	#,
	movl	$0, %esi	#,
	movq	%rax, %rdi	# D.20806,
	call	expand_cleanups	#
	.loc 1 902 0
	call	do_pending_stack_adjust	#
.L123:
	.loc 1 892 0
	movq	-16(%rbp), %rax	# block, tmp93
	movq	8(%rax), %rax	# block_1->next, tmp94
	movq	%rax, -16(%rbp)	# tmp94, block
.L119:
	.loc 1 892 0 is_stmt 0 discriminator 1
	cmpq	$0, -16(%rbp)	#, block
	jne	.L124	#,
.L121:
	.loc 1 906 0 is_stmt 1
	cmpq	$0, -8(%rbp)	#, stack_level
	je	.L125	#,
	.loc 1 911 0
	call	clear_pending_stack_adjust	#
	.loc 1 912 0
	call	do_pending_stack_adjust	#
	.loc 1 916 0
	movq	cfun(%rip), %rax	# cfun, cfun.134
	movq	200(%rax), %rax	# cfun.134_19->x_return_label, D.20803
	cmpq	-32(%rbp), %rax	# label, D.20803
	jne	.L126	#,
	.loc 1 917 0
	movq	current_function_decl(%rip), %rax	# current_function_decl, current_function_decl.135
	movq	8(%rax), %rax	# current_function_decl.135_21->common.type, D.20806
	movzbl	16(%rax), %eax	# _22->common.code, D.20807
	cmpb	$23, %al	#, D.20807
	jne	.L126	#,
	.loc 1 919 0
	movq	current_function_decl(%rip), %rax	# current_function_decl, current_function_decl.136
	movq	8(%rax), %rax	# current_function_decl.136_24->common.type, D.20806
	movzbl	62(%rax), %eax	# *_25, D.20807
	andl	$2, %eax	#, D.20807
	testb	%al, %al	# D.20807
	je	.L126	#,
	.loc 1 919 0 is_stmt 0 discriminator 1
	jmp	.L125	#
.L126:
	.loc 1 923 0 is_stmt 1
	movq	-8(%rbp), %rax	# stack_level, tmp95
	movl	$0, %edx	#,
	movq	%rax, %rsi	# tmp95,
	movl	$0, %edi	#,
	call	emit_stack_restore	#
.L125:
	.loc 1 926 0
	cmpq	$0, -24(%rbp)	#, body
	je	.L128	#,
	.loc 1 926 0 is_stmt 0 discriminator 1
	movq	-24(%rbp), %rax	# body, tmp96
	movzbl	49(%rax), %eax	# *body_28(D), D.20807
	andl	$16, %eax	#, D.20807
	testb	%al, %al	# D.20807
	je	.L128	#,
	.loc 1 928 0 is_stmt 1
	movq	-24(%rbp), %rax	# body, tmp97
	movq	72(%rax), %rax	# body_28(D)->decl.name, D.20806
	movq	32(%rax), %rax	# _31->identifier.id.str, D.20808
	.loc 1 927 0
	movq	%rax, %rsi	# D.20808,
	movl	$.LC1, %edi	#,
	movl	$0, %eax	#,
	call	error	#
	jmp	.L128	#
.L118:
	.loc 1 932 0
	movq	-40(%rbp), %rdx	# last_insn, tmp98
	movq	-32(%rbp), %rcx	# label, tmp99
	movq	-24(%rbp), %rax	# body, tmp100
	movq	%rcx, %rsi	# tmp99,
	movq	%rax, %rdi	# tmp100,
	call	expand_fixup	#
	testl	%eax, %eax	# D.20805
	jne	.L128	#,
	.loc 1 936 0
	cmpq	$0, -24(%rbp)	#, body
	je	.L128	#,
	.loc 1 937 0
	movq	-24(%rbp), %rax	# body, tmp101
	movzbl	17(%rax), %edx	#, tmp104
	orl	$4, %edx	#, tmp105
	movb	%dl, 17(%rax)	# tmp105,
.L128:
	.loc 1 940 0
	movq	-32(%rbp), %rax	# label, tmp106
	movq	%rax, %rdi	# tmp106,
	call	emit_jump	#
	.loc 1 941 0
	leave
	.cfi_def_cfa 7, 8
	ret
	.cfi_endproc
.LFE22:
	.size	expand_goto_internal, .-expand_goto_internal
	.type	expand_fixup, @function
expand_fixup:
.LFB23:
	.loc 1 963 0
	.cfi_startproc
	pushq	%rbp	#
	.cfi_def_cfa_offset 16
	.cfi_offset 6, -16
	movq	%rsp, %rbp	#,
	.cfi_def_cfa_register 6
	subq	$96, %rsp	#,
	movq	%rdi, -72(%rbp)	# tree_label, tree_label
	movq	%rsi, -80(%rbp)	# rtl_label, rtl_label
	movq	%rdx, -88(%rbp)	# last_insn, last_insn
	.loc 1 971 0
	movq	cfun(%rip), %rax	# cfun, cfun.137
	movq	8(%rax), %rax	# cfun.137_11->stmt, D.20811
	movq	16(%rax), %rax	# _12->x_cond_stack, D.20812
	testq	%rax, %rax	# D.20812
	je	.L130	#,
	.loc 1 972 0
	movq	cfun(%rip), %rax	# cfun, cfun.138
	movq	8(%rax), %rax	# cfun.138_14->stmt, D.20811
	movq	16(%rax), %rax	# _15->x_cond_stack, D.20812
	movq	32(%rax), %rax	# _16->data.cond.endif_label, D.20813
	cmpq	-80(%rbp), %rax	# rtl_label, D.20813
	je	.L131	#,
	.loc 1 973 0
	movq	cfun(%rip), %rax	# cfun, cfun.139
	movq	8(%rax), %rax	# cfun.139_19->stmt, D.20811
	movq	16(%rax), %rax	# _20->x_cond_stack, D.20812
	movq	40(%rax), %rax	# _21->data.cond.next_label, D.20813
	cmpq	-80(%rbp), %rax	# rtl_label, D.20813
	jne	.L130	#,
.L131:
	.loc 1 974 0
	movq	cfun(%rip), %rax	# cfun, cfun.140
	movq	8(%rax), %rax	# cfun.140_23->stmt, D.20811
	movq	16(%rax), %rax	# _24->x_cond_stack, tmp132
	movq	%rax, -56(%rbp)	# tmp132, end_block
	jmp	.L132	#
.L130:
	.loc 1 978 0
	movq	cfun(%rip), %rax	# cfun, cfun.141
	movq	8(%rax), %rax	# cfun.141_26->stmt, D.20811
	movq	24(%rax), %rax	# _27->x_loop_stack, D.20812
	testq	%rax, %rax	# D.20812
	je	.L133	#,
	.loc 1 979 0
	movq	cfun(%rip), %rax	# cfun, cfun.142
	movq	8(%rax), %rax	# cfun.142_29->stmt, D.20811
	movq	24(%rax), %rax	# _30->x_loop_stack, D.20812
	movq	32(%rax), %rax	# _31->data.loop.start_label, D.20813
	cmpq	-80(%rbp), %rax	# rtl_label, D.20813
	je	.L134	#,
	.loc 1 980 0
	movq	cfun(%rip), %rax	# cfun, cfun.143
	movq	8(%rax), %rax	# cfun.143_33->stmt, D.20811
	movq	24(%rax), %rax	# _34->x_loop_stack, D.20812
	movq	40(%rax), %rax	# _35->data.loop.end_label, D.20813
	cmpq	-80(%rbp), %rax	# rtl_label, D.20813
	je	.L134	#,
	.loc 1 981 0
	movq	cfun(%rip), %rax	# cfun, cfun.144
	movq	8(%rax), %rax	# cfun.144_37->stmt, D.20811
	movq	24(%rax), %rax	# _38->x_loop_stack, D.20812
	movq	56(%rax), %rax	# _39->data.loop.continue_label, D.20813
	cmpq	-80(%rbp), %rax	# rtl_label, D.20813
	jne	.L133	#,
.L134:
	.loc 1 982 0
	movq	cfun(%rip), %rax	# cfun, cfun.145
	movq	8(%rax), %rax	# cfun.145_41->stmt, D.20811
	movq	24(%rax), %rax	# _42->x_loop_stack, tmp133
	movq	%rax, -56(%rbp)	# tmp133, end_block
	jmp	.L132	#
.L133:
	.loc 1 984 0
	movq	$0, -56(%rbp)	#, end_block
.L132:
	.loc 1 988 0
	cmpq	$0, -56(%rbp)	#, end_block
	je	.L135	#,
.LBB37:
	.loc 1 990 0
	movq	-56(%rbp), %rax	# end_block, tmp134
	movq	(%rax), %rax	# end_block_3->all, tmp135
	movq	%rax, -48(%rbp)	# tmp135, next_block
	.loc 1 991 0
	movq	cfun(%rip), %rax	# cfun, cfun.146
	movq	8(%rax), %rax	# cfun.146_46->stmt, D.20811
	movq	(%rax), %rax	# _47->x_block_stack, tmp136
	movq	%rax, -64(%rbp)	# tmp136, block
	.loc 1 995 0
	jmp	.L136	#
.L138:
	.loc 1 996 0
	movq	-48(%rbp), %rax	# next_block, tmp137
	movq	(%rax), %rax	# next_block_5->all, tmp138
	movq	%rax, -48(%rbp)	# tmp138, next_block
.L136:
	.loc 1 995 0 discriminator 1
	cmpq	$0, -48(%rbp)	#, next_block
	je	.L137	#,
	.loc 1 995 0 is_stmt 0 discriminator 2
	movq	-48(%rbp), %rax	# next_block, tmp139
	cmpq	-64(%rbp), %rax	# block, tmp139
	jne	.L138	#,
.L137:
	.loc 1 998 0 is_stmt 1
	cmpq	$0, -48(%rbp)	#, next_block
	je	.L139	#,
	.loc 1 999 0
	movl	$0, %eax	#, D.20810
	jmp	.L140	#
.L139:
	.loc 1 1003 0
	movq	cfun(%rip), %rax	# cfun, cfun.147
	movq	8(%rax), %rax	# cfun.147_51->stmt, D.20811
	movq	(%rax), %rax	# _52->x_block_stack, D.20812
	movq	8(%rax), %rax	# _53->next, tmp140
	movq	%rax, -48(%rbp)	# tmp140, next_block
	.loc 1 1004 0
	movq	cfun(%rip), %rax	# cfun, cfun.148
	movq	8(%rax), %rax	# cfun.148_55->stmt, D.20811
	movq	(%rax), %rax	# _56->x_block_stack, tmp141
	movq	%rax, -64(%rbp)	# tmp141, block
	jmp	.L141	#
.L143:
	.loc 1 1005 0
	movq	-64(%rbp), %rax	# block, tmp142
	cmpq	-48(%rbp), %rax	# next_block, tmp142
	jne	.L142	#,
	.loc 1 1006 0
	movq	-48(%rbp), %rax	# next_block, tmp143
	movq	8(%rax), %rax	# next_block_7->next, tmp144
	movq	%rax, -48(%rbp)	# tmp144, next_block
.L142:
	.loc 1 1004 0
	movq	-64(%rbp), %rax	# block, tmp145
	movq	(%rax), %rax	# block_1->all, tmp146
	movq	%rax, -64(%rbp)	# tmp146, block
.L141:
	.loc 1 1004 0 is_stmt 0 discriminator 1
	movq	-64(%rbp), %rax	# block, tmp147
	cmpq	-56(%rbp), %rax	# end_block, tmp147
	jne	.L143	#,
	.loc 1 1007 0 is_stmt 1
	movq	-48(%rbp), %rax	# next_block, tmp148
	movq	%rax, -56(%rbp)	# tmp148, end_block
.L135:
.LBE37:
	.loc 1 1013 0
	movq	cfun(%rip), %rax	# cfun, cfun.149
	movq	8(%rax), %rax	# cfun.149_61->stmt, D.20811
	movq	(%rax), %rax	# _62->x_block_stack, tmp149
	movq	%rax, -64(%rbp)	# tmp149, block
	jmp	.L144	#
.L146:
	.loc 1 1014 0
	movq	-64(%rbp), %rax	# block, tmp150
	movq	40(%rax), %rax	# block_2->data.block.stack_level, D.20813
	testq	%rax, %rax	# D.20813
	jne	.L145	#,
	.loc 1 1015 0
	movq	-64(%rbp), %rax	# block, tmp151
	movq	64(%rax), %rax	# block_2->data.block.cleanups, D.20814
	testq	%rax, %rax	# D.20814
	jne	.L145	#,
	.loc 1 1013 0
	movq	-64(%rbp), %rax	# block, tmp152
	movq	8(%rax), %rax	# block_2->next, tmp153
	movq	%rax, -64(%rbp)	# tmp153, block
.L144:
	.loc 1 1013 0 is_stmt 0 discriminator 1
	movq	-64(%rbp), %rax	# block, tmp154
	cmpq	-56(%rbp), %rax	# end_block, tmp154
	jne	.L146	#,
.L145:
	.loc 1 1018 0 is_stmt 1
	movq	-64(%rbp), %rax	# block, tmp155
	cmpq	-56(%rbp), %rax	# end_block, tmp155
	je	.L147	#,
.LBB38:
	.loc 1 1021 0
	movl	$64, %edi	#,
	call	ggc_alloc	#
	movq	%rax, -40(%rbp)	# tmp156, fixup
	.loc 1 1029 0
	cmpq	$0, -88(%rbp)	#, last_insn
	jne	.L148	#,
	.loc 1 1030 0
	call	do_pending_stack_adjust	#
.L148:
	.loc 1 1031 0
	movq	-40(%rbp), %rax	# fixup, tmp157
	movq	-72(%rbp), %rdx	# tree_label, tmp158
	movq	%rdx, 16(%rax)	# tmp158, fixup_67->target
	.loc 1 1032 0
	movq	-40(%rbp), %rax	# fixup, tmp159
	movq	-80(%rbp), %rdx	# rtl_label, tmp160
	movq	%rdx, 32(%rax)	# tmp160, fixup_67->target_rtl
.LBB39:
	.loc 1 1048 0
	cmpq	$0, -88(%rbp)	#, last_insn
	jne	.L149	#,
	.loc 1 1048 0 is_stmt 0 discriminator 1
	call	get_last_insn	#
	jmp	.L150	#
.L149:
	.loc 1 1048 0 discriminator 2
	movq	-88(%rbp), %rax	# last_insn, iftmp.150
.L150:
	.loc 1 1047 0 is_stmt 1
	movq	%rax, -32(%rbp)	# iftmp.150, original_before_jump
	.loc 1 1053 0
	movl	$4, %edi	#,
	call	make_node	#
	movq	%rax, -24(%rbp)	# tmp161, block
	.loc 1 1054 0
	movq	-24(%rbp), %rax	# block, tmp162
	movzbl	18(%rax), %edx	#, tmp165
	orl	$1, %edx	#, tmp166
	movb	%dl, 18(%rax)	# tmp166,
	.loc 1 1056 0
	movq	cfun(%rip), %rax	# cfun, cfun.151
	movzbl	426(%rax), %eax	# *cfun.151_74, D.20815
	andl	$4, %eax	#, D.20815
	testb	%al, %al	# D.20815
	jne	.L151	#,
	.loc 1 1057 0
	movq	-24(%rbp), %rax	# block, tmp167
	movq	%rax, %rdi	# tmp167,
	call	insert_block	#
	jmp	.L152	#
.L151:
	.loc 1 1061 0
	movq	current_function_decl(%rip), %rax	# current_function_decl, current_function_decl.152
	movq	104(%rax), %rax	# current_function_decl.152_77->decl.initial, D.20814
	movq	(%rax), %rdx	# _78->common.chain, D.20814
	movq	-24(%rbp), %rax	# block, tmp168
	movq	%rdx, (%rax)	# D.20814, block_73->common.chain
	.loc 1 1062 0
	movq	current_function_decl(%rip), %rax	# current_function_decl, current_function_decl.153
	movq	104(%rax), %rax	# current_function_decl.153_80->decl.initial, D.20814
	.loc 1 1063 0
	movq	-24(%rbp), %rdx	# block, tmp169
	movq	%rdx, (%rax)	# tmp169, _81->common.chain
.L152:
	.loc 1 1066 0
	call	start_sequence	#
	.loc 1 1067 0
	movl	$-98, %esi	#,
	movl	$0, %edi	#,
	call	emit_note	#
	movq	%rax, -16(%rbp)	# tmp170, start
	.loc 1 1068 0
	movq	cfun(%rip), %rax	# cfun, cfun.154
	movzbl	426(%rax), %eax	# *cfun.154_83, D.20815
	andl	$4, %eax	#, D.20815
	testb	%al, %al	# D.20815
	je	.L153	#,
	.loc 1 1069 0
	movq	-16(%rbp), %rax	# start, tmp171
	movq	-24(%rbp), %rdx	# block, tmp172
	movq	%rdx, 32(%rax)	# tmp172, start_82->fld[3].rttree
.L153:
	.loc 1 1070 0
	movl	$-99, %esi	#,
	movl	$0, %edi	#,
	call	emit_note	#
	movq	-40(%rbp), %rdx	# fixup, tmp173
	movq	%rax, 8(%rdx)	# D.20813, fixup_67->before_jump
	.loc 1 1071 0
	movl	$-97, %esi	#,
	movl	$0, %edi	#,
	call	emit_note	#
	movq	%rax, -8(%rbp)	# tmp174, end
	.loc 1 1072 0
	movq	cfun(%rip), %rax	# cfun, cfun.155
	movzbl	426(%rax), %eax	# *cfun.155_88, D.20815
	andl	$4, %eax	#, D.20815
	testb	%al, %al	# D.20815
	je	.L154	#,
	.loc 1 1073 0
	movq	-8(%rbp), %rax	# end, tmp175
	movq	-24(%rbp), %rdx	# block, tmp176
	movq	%rdx, 32(%rax)	# tmp176, end_87->fld[3].rttree
.L154:
	.loc 1 1074 0
	movq	-40(%rbp), %rax	# fixup, tmp177
	movq	-24(%rbp), %rdx	# block, tmp178
	movq	%rdx, 24(%rax)	# tmp178, fixup_67->context
	.loc 1 1075 0
	call	end_sequence	#
	.loc 1 1076 0
	movq	-32(%rbp), %rdx	# original_before_jump, tmp179
	movq	-16(%rbp), %rax	# start, tmp180
	movq	%rdx, %rsi	# tmp179,
	movq	%rax, %rdi	# tmp180,
	call	emit_insns_after	#
.LBE39:
	.loc 1 1079 0
	movq	cfun(%rip), %rax	# cfun, cfun.156
	movq	8(%rax), %rax	# cfun.156_91->stmt, D.20811
	movl	52(%rax), %edx	# _92->x_block_start_count, D.20810
	movq	-40(%rbp), %rax	# fixup, tmp181
	movl	%edx, 40(%rax)	# D.20810, fixup_67->block_start_count
	.loc 1 1080 0
	movq	-40(%rbp), %rax	# fixup, tmp182
	movq	$0, 48(%rax)	#, fixup_67->stack_level
	.loc 1 1082 0
	movq	-64(%rbp), %rax	# block, tmp183
	movq	72(%rax), %rax	# block_2->data.block.outer_cleanups, D.20814
	.loc 1 1086 0
	testq	%rax, %rax	# D.20814
	jne	.L155	#,
	.loc 1 1083 0
	movq	-64(%rbp), %rax	# block, tmp184
	movq	64(%rax), %rax	# block_2->data.block.cleanups, D.20814
	testq	%rax, %rax	# D.20814
	je	.L156	#,
.L155:
	.loc 1 1084 0 discriminator 1
	movq	-64(%rbp), %rax	# block, tmp185
	movq	72(%rax), %rdx	# block_2->data.block.outer_cleanups, D.20814
	movq	-64(%rbp), %rax	# block, tmp186
	movq	64(%rax), %rax	# block_2->data.block.cleanups, D.20814
	.loc 1 1086 0 discriminator 1
	movq	%rax, %rsi	# D.20814,
	movl	$0, %edi	#,
	call	tree_cons	#
	jmp	.L157	#
.L156:
	.loc 1 1086 0 is_stmt 0
	movl	$0, %eax	#, iftmp.157
.L157:
	.loc 1 1082 0 is_stmt 1
	movq	-40(%rbp), %rdx	# fixup, tmp187
	movq	%rax, 56(%rdx)	# iftmp.157, fixup_67->cleanup_list_list
	.loc 1 1087 0
	movq	cfun(%rip), %rax	# cfun, cfun.158
	movq	8(%rax), %rax	# cfun.158_100->stmt, D.20811
	movq	96(%rax), %rdx	# _101->x_goto_fixup_chain, D.20816
	movq	-40(%rbp), %rax	# fixup, tmp188
	movq	%rdx, (%rax)	# D.20816, fixup_67->next
	.loc 1 1088 0
	movq	cfun(%rip), %rax	# cfun, cfun.159
	movq	8(%rax), %rax	# cfun.159_103->stmt, D.20811
	movq	-40(%rbp), %rdx	# fixup, tmp189
	movq	%rdx, 96(%rax)	# tmp189, _104->x_goto_fixup_chain
.L147:
.LBE38:
	.loc 1 1091 0
	cmpq	$0, -64(%rbp)	#, block
	setne	%al	#, D.20817
	movzbl	%al, %eax	# D.20817, D.20810
.L140:
	.loc 1 1092 0
	leave
	.cfi_def_cfa 7, 8
	ret
	.cfi_endproc
.LFE23:
	.size	expand_fixup, .-expand_fixup
	.globl	expand_fixups
	.type	expand_fixups, @function
expand_fixups:
.LFB24:
	.loc 1 1100 0
	.cfi_startproc
	pushq	%rbp	#
	.cfi_def_cfa_offset 16
	.cfi_offset 6, -16
	movq	%rsp, %rbp	#,
	.cfi_def_cfa_register 6
	subq	$16, %rsp	#,
	movq	%rdi, -8(%rbp)	# first_insn, first_insn
	.loc 1 1101 0
	movq	-8(%rbp), %rax	# first_insn, tmp59
	movl	$0, %r8d	#,
	movq	%rax, %rcx	# tmp59,
	movl	$0, %edx	#,
	movl	$0, %esi	#,
	movl	$0, %edi	#,
	call	fixup_gotos	#
	.loc 1 1102 0
	leave
	.cfi_def_cfa 7, 8
	ret
	.cfi_endproc
.LFE24:
	.size	expand_fixups, .-expand_fixups
	.section	.rodata
	.align 8
.LC2:
	.string	"label `%s' used before containing binding contour"
	.text
	.type	fixup_gotos, @function
fixup_gotos:
.LFB25:
	.loc 1 1124 0
	.cfi_startproc
	pushq	%rbp	#
	.cfi_def_cfa_offset 16
	.cfi_offset 6, -16
	movq	%rsp, %rbp	#,
	.cfi_def_cfa_register 6
	subq	$96, %rsp	#,
	movq	%rdi, -56(%rbp)	# thisblock, thisblock
	movq	%rsi, -64(%rbp)	# stack_level, stack_level
	movq	%rdx, -72(%rbp)	# cleanup_list, cleanup_list
	movq	%rcx, -80(%rbp)	# first_insn, first_insn
	movl	%r8d, -84(%rbp)	# dont_jump_in, dont_jump_in
	.loc 1 1132 0
	movq	$0, -40(%rbp)	#, prev
	movq	cfun(%rip), %rax	# cfun, cfun.160
	movq	8(%rax), %rax	# cfun.160_7->stmt, D.20818
	movq	96(%rax), %rax	# _8->x_goto_fixup_chain, tmp111
	movq	%rax, -48(%rbp)	# tmp111, f
	jmp	.L160	#
.L172:
	.loc 1 1135 0
	movq	-48(%rbp), %rax	# f, tmp112
	movq	8(%rax), %rax	# f_1->before_jump, D.20819
	testq	%rax, %rax	# D.20819
	jne	.L161	#,
	.loc 1 1138 0
	cmpq	$0, -40(%rbp)	#, prev
	je	.L163	#,
	.loc 1 1139 0
	movq	-48(%rbp), %rax	# f, tmp113
	movq	(%rax), %rdx	# f_1->next, D.20820
	movq	-40(%rbp), %rax	# prev, tmp114
	movq	%rdx, (%rax)	# D.20820, prev_3->next
	jmp	.L163	#
.L161:
	.loc 1 1143 0
	movq	-48(%rbp), %rax	# f, tmp115
	movq	32(%rax), %rax	# f_1->target_rtl, D.20819
	movq	16(%rax), %rax	# _12->fld[1].rtx, D.20819
	testq	%rax, %rax	# D.20819
	je	.L163	#,
.LBB40:
	.loc 1 1156 0
	movq	-48(%rbp), %rax	# f, tmp116
	movq	16(%rax), %rax	# f_1->target, D.20821
	testq	%rax, %rax	# D.20821
	je	.L164	#,
	.loc 1 1157 0
	cmpl	$0, -84(%rbp)	#, dont_jump_in
	jne	.L165	#,
	.loc 1 1157 0 is_stmt 0 discriminator 1
	cmpq	$0, -64(%rbp)	#, stack_level
	jne	.L165	#,
	cmpq	$0, -72(%rbp)	#, cleanup_list
	je	.L164	#,
.L165:
	.loc 1 1158 0 is_stmt 1
	movq	-80(%rbp), %rax	# first_insn, tmp117
	movl	8(%rax), %edx	# first_insn_18(D)->fld[0].rtint, D.20822
	movq	-48(%rbp), %rax	# f, tmp118
	movq	32(%rax), %rax	# f_1->target_rtl, D.20819
	movl	8(%rax), %eax	# _20->fld[0].rtint, D.20822
	cmpl	%eax, %edx	# D.20822, D.20822
	jge	.L164	#,
	.loc 1 1159 0
	movq	-80(%rbp), %rax	# first_insn, tmp119
	movl	8(%rax), %edx	# first_insn_18(D)->fld[0].rtint, D.20822
	movq	-48(%rbp), %rax	# f, tmp120
	movq	8(%rax), %rax	# f_1->before_jump, D.20819
	movl	8(%rax), %eax	# _23->fld[0].rtint, D.20822
	cmpl	%eax, %edx	# D.20822, D.20822
	jle	.L164	#,
	.loc 1 1160 0
	movq	-48(%rbp), %rax	# f, tmp121
	movq	16(%rax), %rax	# f_1->target, D.20821
	movzbl	49(%rax), %eax	# *_25, D.20823
	andl	$4, %eax	#, D.20823
	testb	%al, %al	# D.20823
	jne	.L164	#,
	.loc 1 1162 0
	movq	-48(%rbp), %rax	# f, tmp122
	movq	16(%rax), %rax	# f_1->target, D.20821
	movl	$.LC2, %esi	#,
	movq	%rax, %rdi	# D.20821,
	movl	$0, %eax	#,
	call	error_with_decl	#
	.loc 1 1165 0
	movq	-48(%rbp), %rax	# f, tmp123
	movq	16(%rax), %rax	# f_1->target, D.20821
	movzbl	49(%rax), %edx	#, tmp126
	orl	$4, %edx	#, tmp127
	movb	%dl, 49(%rax)	# tmp127,
.L164:
	.loc 1 1172 0
	call	start_sequence	#
	.loc 1 1178 0
	movl	$0, %edi	#,
	call	pushlevel	#
	.loc 1 1179 0
	movq	-48(%rbp), %rax	# f, tmp128
	movq	24(%rax), %rax	# f_1->context, D.20821
	movq	%rax, %rdi	# D.20821,
	call	set_block	#
	.loc 1 1182 0
	movq	-48(%rbp), %rax	# f, tmp129
	movq	56(%rax), %rax	# f_1->cleanup_list_list, D.20821
	testq	%rax, %rax	# D.20821
	je	.L166	#,
.LBB41:
	.loc 1 1185 0
	movq	-48(%rbp), %rax	# f, tmp130
	movq	56(%rax), %rax	# f_1->cleanup_list_list, tmp131
	movq	%rax, -32(%rbp)	# tmp131, lists
	jmp	.L167	#
.L169:
	.loc 1 1188 0
	movq	-32(%rbp), %rax	# lists, tmp132
	movzbl	17(%rax), %eax	# *lists_4, D.20823
	andl	$4, %eax	#, D.20823
	testb	%al, %al	# D.20823
	je	.L168	#,
	.loc 1 1189 0
	movq	-32(%rbp), %rax	# lists, tmp133
	movq	32(%rax), %rax	# lists_4->list.value, D.20821
	testq	%rax, %rax	# D.20821
	je	.L168	#,
	.loc 1 1191 0
	movq	-32(%rbp), %rax	# lists, tmp134
	movq	32(%rax), %rax	# lists_4->list.value, D.20821
	movl	$1, %ecx	#,
	movl	$1, %edx	#,
	movl	$0, %esi	#,
	movq	%rax, %rdi	# D.20821,
	call	expand_cleanups	#
	.loc 1 1194 0
	call	do_pending_stack_adjust	#
.L168:
	.loc 1 1185 0
	movq	-32(%rbp), %rax	# lists, tmp135
	movq	(%rax), %rax	# lists_4->common.chain, tmp136
	movq	%rax, -32(%rbp)	# tmp136, lists
.L167:
	.loc 1 1185 0 is_stmt 0 discriminator 1
	cmpq	$0, -32(%rbp)	#, lists
	jne	.L169	#,
.L166:
.LBE41:
	.loc 1 1200 0 is_stmt 1
	movq	-48(%rbp), %rax	# f, tmp137
	movq	48(%rax), %rax	# f_1->stack_level, D.20819
	testq	%rax, %rax	# D.20819
	je	.L170	#,
	.loc 1 1201 0
	movq	-48(%rbp), %rax	# f, tmp138
	movq	32(%rax), %rdx	# f_1->target_rtl, D.20819
	movq	cfun(%rip), %rax	# cfun, cfun.161
	movq	200(%rax), %rax	# cfun.161_40->x_return_label, D.20819
	cmpq	%rax, %rdx	# D.20819, D.20819
	jne	.L171	#,
	.loc 1 1202 0 discriminator 1
	movq	current_function_decl(%rip), %rax	# current_function_decl, current_function_decl.162
	movq	8(%rax), %rax	# current_function_decl.162_42->common.type, D.20821
	movzbl	16(%rax), %eax	# _43->common.code, D.20823
	.loc 1 1201 0 discriminator 1
	cmpb	$23, %al	#, D.20823
	jne	.L171	#,
	.loc 1 1204 0
	movq	current_function_decl(%rip), %rax	# current_function_decl, current_function_decl.163
	movq	8(%rax), %rax	# current_function_decl.163_45->common.type, D.20821
	movzbl	62(%rax), %eax	# *_46, D.20823
	andl	$2, %eax	#, D.20823
	testb	%al, %al	# D.20823
	jne	.L170	#,
.L171:
	.loc 1 1206 0
	movq	-48(%rbp), %rax	# f, tmp139
	movq	8(%rax), %rdx	# f_1->before_jump, D.20819
	movq	-48(%rbp), %rax	# f, tmp140
	movq	48(%rax), %rax	# f_1->stack_level, D.20819
	movq	%rax, %rsi	# D.20819,
	movl	$0, %edi	#,
	call	emit_stack_restore	#
.L170:
	.loc 1 1217 0
	call	get_insns	#
	movq	%rax, -16(%rbp)	# tmp141, cleanup_insns
	.loc 1 1218 0
	movl	$0, %edx	#,
	movl	$0, %esi	#,
	movl	$1, %edi	#,
	call	poplevel	#
	.loc 1 1220 0
	call	end_sequence	#
	.loc 1 1221 0
	movq	-48(%rbp), %rax	# f, tmp142
	movq	8(%rax), %rdx	# f_1->before_jump, D.20819
	movq	-16(%rbp), %rax	# cleanup_insns, tmp143
	movq	%rdx, %rsi	# D.20819,
	movq	%rax, %rdi	# tmp143,
	call	emit_insns_after	#
	.loc 1 1223 0
	movq	-48(%rbp), %rax	# f, tmp144
	movq	$0, 8(%rax)	#, f_1->before_jump
.L163:
.LBE40:
	.loc 1 1132 0
	movq	-48(%rbp), %rax	# f, tmp145
	movq	%rax, -40(%rbp)	# tmp145, prev
	movq	-48(%rbp), %rax	# f, tmp146
	movq	(%rax), %rax	# f_1->next, tmp147
	movq	%rax, -48(%rbp)	# tmp147, f
.L160:
	.loc 1 1132 0 is_stmt 0 discriminator 1
	cmpq	$0, -48(%rbp)	#, f
	jne	.L172	#,
	.loc 1 1230 0 is_stmt 1
	movq	$0, -40(%rbp)	#, prev
	movq	cfun(%rip), %rax	# cfun, cfun.164
	movq	8(%rax), %rax	# cfun.164_56->stmt, D.20818
	movq	96(%rax), %rax	# _57->x_goto_fixup_chain, tmp148
	movq	%rax, -48(%rbp)	# tmp148, f
	jmp	.L173	#
.L179:
	.loc 1 1231 0
	movq	-48(%rbp), %rax	# f, tmp149
	movq	8(%rax), %rax	# f_2->before_jump, D.20819
	testq	%rax, %rax	# D.20819
	je	.L174	#,
	.loc 1 1232 0
	movq	-48(%rbp), %rax	# f, tmp150
	movq	32(%rax), %rax	# f_2->target_rtl, D.20819
	movq	16(%rax), %rax	# _60->fld[1].rtx, D.20819
	testq	%rax, %rax	# D.20819
	jne	.L174	#,
	.loc 1 1237 0
	cmpq	$0, -56(%rbp)	#, thisblock
	je	.L174	#,
	.loc 1 1240 0
	movq	-56(%rbp), %rax	# thisblock, tmp151
	movl	32(%rax), %edx	# thisblock_62(D)->data.block.block_start_count, D.20822
	.loc 1 1241 0
	movq	-48(%rbp), %rax	# f, tmp152
	movl	40(%rax), %eax	# f_2->block_start_count, D.20822
	.loc 1 1240 0
	cmpl	%eax, %edx	# D.20822, D.20822
	jg	.L174	#,
.LBB42:
	.loc 1 1243 0
	movq	-48(%rbp), %rax	# f, tmp153
	movq	56(%rax), %rax	# f_2->cleanup_list_list, tmp154
	movq	%rax, -24(%rbp)	# tmp154, lists
	.loc 1 1246 0
	jmp	.L175	#
.L178:
	.loc 1 1249 0
	movq	-24(%rbp), %rax	# lists, tmp155
	movq	(%rax), %rdx	# lists_5->common.chain, D.20821
	movq	-56(%rbp), %rax	# thisblock, tmp156
	movq	72(%rax), %rax	# thisblock_62(D)->data.block.outer_cleanups, D.20821
	cmpq	%rax, %rdx	# D.20821, D.20821
	jne	.L176	#,
	.loc 1 1251 0
	call	start_sequence	#
	.loc 1 1252 0
	movl	$0, %edi	#,
	call	pushlevel	#
	.loc 1 1253 0
	movq	-48(%rbp), %rax	# f, tmp157
	movq	24(%rax), %rax	# f_2->context, D.20821
	movq	%rax, %rdi	# D.20821,
	call	set_block	#
	.loc 1 1254 0
	movq	-24(%rbp), %rax	# lists, tmp158
	movq	32(%rax), %rax	# lists_5->list.value, D.20821
	movl	$1, %ecx	#,
	movl	$1, %edx	#,
	movl	$0, %esi	#,
	movq	%rax, %rdi	# D.20821,
	call	expand_cleanups	#
	.loc 1 1255 0
	call	do_pending_stack_adjust	#
	.loc 1 1256 0
	call	get_insns	#
	movq	%rax, -8(%rbp)	# tmp159, cleanup_insns
	.loc 1 1257 0
	movl	$0, %edx	#,
	movl	$0, %esi	#,
	movl	$1, %edi	#,
	call	poplevel	#
	.loc 1 1258 0
	call	end_sequence	#
	.loc 1 1259 0
	cmpq	$0, -8(%rbp)	#, cleanup_insns
	je	.L177	#,
	.loc 1 1261 0
	movq	-48(%rbp), %rax	# f, tmp160
	movq	8(%rax), %rdx	# f_2->before_jump, D.20819
	movq	-8(%rbp), %rax	# cleanup_insns, tmp161
	movq	%rdx, %rsi	# D.20819,
	movq	%rax, %rdi	# tmp161,
	call	emit_insns_after	#
	movq	-48(%rbp), %rdx	# f, tmp162
	movq	%rax, 8(%rdx)	# D.20819, f_2->before_jump
.L177:
	.loc 1 1263 0
	movq	-24(%rbp), %rax	# lists, tmp163
	movq	(%rax), %rdx	# lists_5->common.chain, D.20821
	movq	-48(%rbp), %rax	# f, tmp164
	movq	%rdx, 56(%rax)	# D.20821, f_2->cleanup_list_list
.L176:
	.loc 1 1246 0
	movq	-24(%rbp), %rax	# lists, tmp165
	movq	(%rax), %rax	# lists_5->common.chain, tmp166
	movq	%rax, -24(%rbp)	# tmp166, lists
.L175:
	.loc 1 1246 0 is_stmt 0 discriminator 1
	cmpq	$0, -24(%rbp)	#, lists
	jne	.L178	#,
	.loc 1 1266 0 is_stmt 1
	cmpq	$0, -64(%rbp)	#, stack_level
	je	.L174	#,
	.loc 1 1267 0
	movq	-48(%rbp), %rax	# f, tmp167
	movq	-64(%rbp), %rdx	# stack_level, tmp168
	movq	%rdx, 48(%rax)	# tmp168, f_2->stack_level
.L174:
.LBE42:
	.loc 1 1230 0
	movq	-48(%rbp), %rax	# f, tmp169
	movq	%rax, -40(%rbp)	# tmp169, prev
	movq	-48(%rbp), %rax	# f, tmp170
	movq	(%rax), %rax	# f_2->next, tmp171
	movq	%rax, -48(%rbp)	# tmp171, f
.L173:
	.loc 1 1230 0 is_stmt 0 discriminator 1
	cmpq	$0, -48(%rbp)	#, f
	jne	.L179	#,
	.loc 1 1269 0 is_stmt 1
	leave
	.cfi_def_cfa 7, 8
	ret
	.cfi_endproc
.LFE25:
	.size	fixup_gotos, .-fixup_gotos
	.type	n_occurrences, @function
n_occurrences:
.LFB26:
	.loc 1 1276 0
	.cfi_startproc
	pushq	%rbp	#
	.cfi_def_cfa_offset 16
	.cfi_offset 6, -16
	movq	%rsp, %rbp	#,
	.cfi_def_cfa_register 6
	movl	%edi, -20(%rbp)	# c, c
	movq	%rsi, -32(%rbp)	# s, s
	.loc 1 1277 0
	movl	$0, -4(%rbp)	#, n
	.loc 1 1278 0
	jmp	.L181	#
.L182:
	.loc 1 1279 0
	movq	-32(%rbp), %rax	# s, s.165
	leaq	1(%rax), %rdx	#, tmp67
	movq	%rdx, -32(%rbp)	# tmp67, s
	movzbl	(%rax), %eax	# *s.165_6, D.20825
	movsbl	%al, %eax	# D.20825, D.20826
	cmpl	-20(%rbp), %eax	# c, D.20826
	sete	%al	#, D.20827
	movzbl	%al, %eax	# D.20827, D.20826
	addl	%eax, -4(%rbp)	# D.20826, n
.L181:
	.loc 1 1278 0 discriminator 1
	movq	-32(%rbp), %rax	# s, tmp68
	movzbl	(%rax), %eax	# *s_1, D.20825
	testb	%al, %al	# D.20825
	jne	.L182	#,
	.loc 1 1280 0
	movl	-4(%rbp), %eax	# n, D.20826
	.loc 1 1281 0
	popq	%rbp	#
	.cfi_def_cfa 7, 8
	ret
	.cfi_endproc
.LFE26:
	.size	n_occurrences, .-n_occurrences
	.globl	expand_asm
	.type	expand_asm, @function
expand_asm:
.LFB27:
	.loc 1 1290 0
	.cfi_startproc
	pushq	%rbp	#
	.cfi_def_cfa_offset 16
	.cfi_offset 6, -16
	movq	%rsp, %rbp	#,
	.cfi_def_cfa_register 6
	subq	$16, %rsp	#,
	movq	%rdi, -8(%rbp)	# body, body
	.loc 1 1291 0
	movq	-8(%rbp), %rax	# body, tmp64
	movzbl	16(%rax), %eax	# body_2(D)->common.code, D.20828
	cmpb	$121, %al	#, D.20828
	jne	.L185	#,
	.loc 1 1292 0
	movq	-8(%rbp), %rax	# body, tmp65
	movq	32(%rax), %rax	# body_2(D)->exp.operands, tmp66
	movq	%rax, -8(%rbp)	# tmp66, body
.L185:
	.loc 1 1294 0
	movq	-8(%rbp), %rax	# body, tmp67
	movq	40(%rax), %rax	# body_1->string.pointer, D.20829
	movq	%rax, %rdx	# D.20829,
	movl	$0, %esi	#,
	movl	$40, %edi	#,
	call	gen_rtx_fmt_s	#
	movq	%rax, %rdi	# D.20830,
	call	emit_insn	#
	.loc 1 1296 0
	movq	cfun(%rip), %rax	# cfun, cfun.166
	movq	8(%rax), %rax	# cfun.166_7->stmt, D.20831
	movq	$0, 56(%rax)	#, _8->x_last_expr_type
	.loc 1 1297 0
	leave
	.cfi_def_cfa 7, 8
	ret
	.cfi_endproc
.LFE27:
	.size	expand_asm, .-expand_asm
	.section	.rodata
	.align 8
.LC3:
	.string	"output operand constraint lacks `='"
	.align 8
.LC4:
	.string	"output constraint `%c' for operand %d is not at the beginning"
	.align 8
.LC5:
	.string	"operand constraint contains incorrectly positioned '+' or '='"
	.align 8
.LC6:
	.string	"`%%' constraint used with last operand"
	.align 8
.LC7:
	.string	"matching constraint not valid in output operand"
	.text
	.globl	parse_output_constraint
	.type	parse_output_constraint, @function
parse_output_constraint:
.LFB28:
	.loc 1 1322 0
	.cfi_startproc
	pushq	%rbp	#
	.cfi_def_cfa_offset 16
	.cfi_offset 6, -16
	movq	%rsp, %rbp	#,
	.cfi_def_cfa_register 6
	pushq	%rbx	#
	subq	$88, %rsp	#,
	.cfi_offset 3, -24
	movq	%rdi, -56(%rbp)	# constraint_p, constraint_p
	movl	%esi, -60(%rbp)	# operand_num, operand_num
	movl	%edx, -64(%rbp)	# ninputs, ninputs
	movl	%ecx, -68(%rbp)	# noutputs, noutputs
	movq	%r8, -80(%rbp)	# allows_mem, allows_mem
	movq	%r9, -88(%rbp)	# allows_reg, allows_reg
	.loc 1 1323 0
	movq	-56(%rbp), %rax	# constraint_p, tmp138
	movq	(%rax), %rax	# *constraint_p_23(D), tmp139
	movq	%rax, -48(%rbp)	# tmp139, constraint
	.loc 1 1328 0
	movq	-80(%rbp), %rax	# allows_mem, tmp140
	movb	$0, (%rax)	#, *allows_mem_25(D)
	.loc 1 1329 0
	movq	-88(%rbp), %rax	# allows_reg, tmp141
	movb	$0, (%rax)	#, *allows_reg_26(D)
	.loc 1 1335 0
	movq	-48(%rbp), %rax	# constraint, tmp142
	movl	$61, %esi	#,
	movq	%rax, %rdi	# tmp142,
	call	strchr	#
	movq	%rax, -40(%rbp)	# tmp143, p
	.loc 1 1336 0
	cmpq	$0, -40(%rbp)	#, p
	jne	.L187	#,
	.loc 1 1337 0
	movq	-48(%rbp), %rax	# constraint, tmp144
	movl	$43, %esi	#,
	movq	%rax, %rdi	# tmp144,
	call	strchr	#
	movq	%rax, -40(%rbp)	# tmp145, p
.L187:
	.loc 1 1341 0
	cmpq	$0, -40(%rbp)	#, p
	jne	.L188	#,
	.loc 1 1343 0
	movl	$.LC3, %edi	#,
	movl	$0, %eax	#,
	call	error	#
	.loc 1 1344 0
	movl	$0, %eax	#, D.20832
	jmp	.L189	#
.L188:
	.loc 1 1349 0
	movq	-40(%rbp), %rax	# p, tmp146
	movzbl	(%rax), %eax	# *p_2, D.20833
	cmpb	$43, %al	#, D.20833
	sete	%dl	#, D.20832
	movq	16(%rbp), %rax	# is_inout, tmp147
	movb	%dl, (%rax)	# D.20832, *is_inout_32(D)
	.loc 1 1352 0
	movq	-40(%rbp), %rax	# p, tmp148
	cmpq	-48(%rbp), %rax	# constraint, tmp148
	jne	.L190	#,
	.loc 1 1352 0 is_stmt 0 discriminator 1
	cmpq	$0, 16(%rbp)	#, is_inout
	je	.L191	#,
.L190:
.LBB43:
	.loc 1 1355 0 is_stmt 1
	movq	-48(%rbp), %rax	# constraint, tmp149
	movq	%rax, %rdi	# tmp149,
	call	strlen	#
	movq	%rax, -32(%rbp)	# tmp150, c_len
	.loc 1 1357 0
	movq	-40(%rbp), %rax	# p, tmp151
	cmpq	-48(%rbp), %rax	# constraint, tmp151
	je	.L192	#,
	.loc 1 1359 0
	movq	-40(%rbp), %rax	# p, tmp152
	movzbl	(%rax), %eax	# *p_2, D.20833
	.loc 1 1358 0
	movsbl	%al, %eax	# D.20833, D.20834
	movl	-60(%rbp), %edx	# operand_num, tmp153
	movl	%eax, %esi	# D.20834,
	movl	$.LC4, %edi	#,
	movl	$0, %eax	#,
	call	warning	#
.L192:
	.loc 1 1362 0
	movq	-32(%rbp), %rax	# c_len, tmp154
	addq	$1, %rax	#, D.20835
	leaq	15(%rax), %rdx	#, tmp155
	movl	$16, %eax	#, tmp216
	subq	$1, %rax	#, tmp156
	addq	%rdx, %rax	# tmp155, tmp157
	movl	$16, %ebx	#, tmp217
	movl	$0, %edx	#, tmp160
	divq	%rbx	# tmp217
	imulq	$16, %rax, %rax	#, tmp159, tmp161
	subq	%rax, %rsp	# tmp161,
	movq	%rsp, %rax	#, tmp162
	addq	$15, %rax	#, tmp163
	shrq	$4, %rax	#, tmp164
	salq	$4, %rax	#, tmp165
	movq	%rax, -24(%rbp)	# tmp165, buf
	.loc 1 1363 0
	movq	-48(%rbp), %rdx	# constraint, tmp166
	movq	-24(%rbp), %rax	# buf, tmp167
	movq	%rdx, %rsi	# tmp166,
	movq	%rax, %rdi	# tmp167,
	call	strcpy	#
	.loc 1 1365 0
	movq	-40(%rbp), %rdx	# p, p.167
	movq	-48(%rbp), %rax	# constraint, constraint.168
	subq	%rax, %rdx	# constraint.168, D.20836
	movq	%rdx, %rax	# D.20836, D.20836
	movq	%rax, %rdx	# D.20836, D.20837
	movq	-24(%rbp), %rax	# buf, tmp168
	addq	%rax, %rdx	# tmp168, D.20838
	movq	-24(%rbp), %rax	# buf, tmp169
	movzbl	(%rax), %eax	# *buf_38, D.20833
	movb	%al, (%rdx)	# D.20833, *_43
	.loc 1 1368 0
	movq	-24(%rbp), %rax	# buf, tmp170
	movb	$61, (%rax)	#, *buf_38
	.loc 1 1370 0
	movq	-32(%rbp), %rax	# c_len, tmp171
	movl	%eax, %edx	# tmp171, D.20834
	movq	-24(%rbp), %rax	# buf, tmp172
	movl	%edx, %esi	# D.20834,
	movq	%rax, %rdi	# tmp172,
	call	ggc_alloc_string	#
	movq	-56(%rbp), %rdx	# constraint_p, tmp173
	movq	%rax, (%rdx)	# D.20839, *constraint_p_23(D)
	.loc 1 1371 0
	movq	-56(%rbp), %rax	# constraint_p, tmp174
	movq	(%rax), %rax	# *constraint_p_23(D), tmp175
	movq	%rax, -48(%rbp)	# tmp175, constraint
.L191:
.LBE43:
	.loc 1 1375 0
	movq	-48(%rbp), %rax	# constraint, tmp179
	addq	$1, %rax	#, tmp178
	movq	%rax, -40(%rbp)	# tmp178, p
	jmp	.L193	#
.L249:
	.loc 1 1376 0
	movq	-40(%rbp), %rax	# p, tmp180
	movzbl	(%rax), %eax	# *p_3, D.20833
	movsbl	%al, %eax	# D.20833, D.20834
	subl	$33, %eax	#, tmp181
	cmpl	$82, %eax	#, tmp181
	ja	.L194	#,
	movl	%eax, %eax	# tmp181, tmp182
	movq	.L196(,%rax,8), %rax	#, tmp183
	jmp	*%rax	# tmp183
	.section	.rodata
	.align 8
	.align 4
.L196:
	.quad	.L250
	.quad	.L194
	.quad	.L250
	.quad	.L194
	.quad	.L197
	.quad	.L250
	.quad	.L194
	.quad	.L194
	.quad	.L194
	.quad	.L250
	.quad	.L198
	.quad	.L250
	.quad	.L194
	.quad	.L194
	.quad	.L194
	.quad	.L199
	.quad	.L199
	.quad	.L199
	.quad	.L199
	.quad	.L199
	.quad	.L199
	.quad	.L199
	.quad	.L199
	.quad	.L199
	.quad	.L199
	.quad	.L194
	.quad	.L194
	.quad	.L200
	.quad	.L198
	.quad	.L200
	.quad	.L250
	.quad	.L194
	.quad	.L194
	.quad	.L194
	.quad	.L194
	.quad	.L194
	.quad	.L250
	.quad	.L250
	.quad	.L250
	.quad	.L250
	.quad	.L250
	.quad	.L250
	.quad	.L250
	.quad	.L250
	.quad	.L250
	.quad	.L250
	.quad	.L250
	.quad	.L250
	.quad	.L194
	.quad	.L194
	.quad	.L194
	.quad	.L194
	.quad	.L194
	.quad	.L201
	.quad	.L194
	.quad	.L202
	.quad	.L194
	.quad	.L194
	.quad	.L199
	.quad	.L194
	.quad	.L194
	.quad	.L194
	.quad	.L194
	.quad	.L194
	.quad	.L194
	.quad	.L194
	.quad	.L194
	.quad	.L194
	.quad	.L194
	.quad	.L194
	.quad	.L202
	.quad	.L194
	.quad	.L250
	.quad	.L194
	.quad	.L194
	.quad	.L194
	.quad	.L201
	.quad	.L250
	.quad	.L201
	.quad	.L203
	.quad	.L194
	.quad	.L203
	.quad	.L250
	.text
.L198:
	.loc 1 1380 0
	movl	$.LC5, %edi	#,
	movl	$0, %eax	#,
	call	error	#
	.loc 1 1381 0
	movl	$0, %eax	#, D.20832
	jmp	.L189	#
.L197:
	.loc 1 1384 0
	movl	-60(%rbp), %eax	# operand_num, tmp184
	leal	1(%rax), %ecx	#, D.20834
	movl	-68(%rbp), %eax	# noutputs, tmp185
	movl	-64(%rbp), %edx	# ninputs, tmp186
	addl	%edx, %eax	# tmp186, D.20834
	cmpl	%eax, %ecx	# D.20834, D.20834
	jne	.L204	#,
	.loc 1 1386 0
	movl	$.LC6, %edi	#,
	movl	$0, %eax	#,
	call	error	#
	.loc 1 1387 0
	movl	$0, %eax	#, D.20832
	jmp	.L189	#
.L204:
	.loc 1 1389 0
	jmp	.L205	#
.L201:
	.loc 1 1392 0
	movq	-80(%rbp), %rax	# allows_mem, tmp187
	movb	$1, (%rax)	#, *allows_mem_25(D)
	.loc 1 1393 0
	jmp	.L205	#
.L199:
	.loc 1 1405 0
	movl	$.LC7, %edi	#,
	movl	$0, %eax	#,
	call	error	#
	.loc 1 1406 0
	movl	$0, %eax	#, D.20832
	jmp	.L189	#
.L200:
	.loc 1 1412 0
	movq	-80(%rbp), %rax	# allows_mem, tmp188
	movb	$1, (%rax)	#, *allows_mem_25(D)
	.loc 1 1413 0
	jmp	.L205	#
.L202:
	.loc 1 1416 0
	movq	-88(%rbp), %rax	# allows_reg, tmp189
	movb	$1, (%rax)	#, *allows_reg_26(D)
	.loc 1 1417 0
	movq	-80(%rbp), %rax	# allows_mem, tmp190
	movb	$1, (%rax)	#, *allows_mem_25(D)
	.loc 1 1418 0
	jmp	.L205	#
.L203:
	.loc 1 1421 0
	movq	-88(%rbp), %rax	# allows_reg, tmp191
	movb	$1, (%rax)	#, *allows_reg_26(D)
	.loc 1 1422 0
	jmp	.L205	#
.L194:
	.loc 1 1425 0
	movq	-40(%rbp), %rax	# p, tmp192
	movzbl	(%rax), %eax	# *p_3, D.20833
	movsbl	%al, %eax	# D.20833, D.20834
	movzbl	%al, %eax	# D.20834, D.20834
	cltq
	movzwl	_sch_istable(%rax,%rax), %eax	# _sch_istable, D.20840
	movzwl	%ax, %eax	# D.20840, D.20834
	andl	$136, %eax	#, D.20834
	testl	%eax, %eax	# D.20834
	jne	.L206	#,
	.loc 1 1426 0
	jmp	.L205	#
.L206:
	.loc 1 1427 0
	movq	-40(%rbp), %rax	# p, tmp194
	movzbl	(%rax), %eax	# *p_3, D.20833
	cmpb	$114, %al	#, D.20833
	je	.L207	#,
	.loc 1 1427 0 is_stmt 0 discriminator 1
	movq	-40(%rbp), %rax	# p, tmp195
	movzbl	(%rax), %eax	# *p_3, D.20833
	cmpb	$82, %al	#, D.20833
	je	.L208	#,
	.loc 1 1427 0 discriminator 3
	movq	-40(%rbp), %rax	# p, tmp196
	movzbl	(%rax), %eax	# *p_3, D.20833
	cmpb	$113, %al	#, D.20833
	je	.L209	#,
	.loc 1 1427 0 discriminator 5
	movq	-40(%rbp), %rax	# p, tmp197
	movzbl	(%rax), %eax	# *p_3, D.20833
	cmpb	$81, %al	#, D.20833
	je	.L210	#,
	.loc 1 1427 0 discriminator 7
	movq	-40(%rbp), %rax	# p, tmp198
	movzbl	(%rax), %eax	# *p_3, D.20833
	cmpb	$102, %al	#, D.20833
	jne	.L211	#,
	.loc 1 1427 0 discriminator 9
	movl	target_flags(%rip), %eax	# target_flags, target_flags.175
	andl	$1, %eax	#, D.20834
	testl	%eax, %eax	# D.20834
	jne	.L212	#,
	.loc 1 1427 0 discriminator 2
	movl	target_flags(%rip), %eax	# target_flags, target_flags.176
	andl	$32, %eax	#, D.20834
	testl	%eax, %eax	# D.20834
	je	.L213	#,
.L212:
	.loc 1 1427 0 discriminator 1
	movl	$1, %eax	#, iftmp.174
	jmp	.L214	#
.L213:
	.loc 1 1427 0 discriminator 3
	movl	$0, %eax	#, iftmp.174
.L214:
	.loc 1 1427 0 discriminator 4
	andl	$1, %eax	#, iftmp.173
	jmp	.L246	#
.L211:
	.loc 1 1427 0 discriminator 10
	movq	-40(%rbp), %rax	# p, tmp199
	movzbl	(%rax), %eax	# *p_3, D.20833
	cmpb	$116, %al	#, D.20833
	jne	.L216	#,
	.loc 1 1427 0 discriminator 11
	movl	target_flags(%rip), %eax	# target_flags, target_flags.179
	andl	$1, %eax	#, D.20834
	testl	%eax, %eax	# D.20834
	jne	.L217	#,
	.loc 1 1427 0 discriminator 2
	movl	target_flags(%rip), %eax	# target_flags, target_flags.180
	andl	$32, %eax	#, D.20834
	testl	%eax, %eax	# D.20834
	je	.L218	#,
.L217:
	.loc 1 1427 0 discriminator 1
	movl	$1, %eax	#, iftmp.178
	jmp	.L219	#
.L218:
	.loc 1 1427 0 discriminator 3
	movl	$0, %eax	#, iftmp.178
.L219:
	.loc 1 1427 0 discriminator 4
	andl	$1, %eax	#, iftmp.177
	jmp	.L246	#
.L216:
	.loc 1 1427 0 discriminator 12
	movq	-40(%rbp), %rax	# p, tmp200
	movzbl	(%rax), %eax	# *p_3, D.20833
	cmpb	$117, %al	#, D.20833
	jne	.L221	#,
	.loc 1 1427 0 discriminator 13
	movl	target_flags(%rip), %eax	# target_flags, target_flags.183
	andl	$1, %eax	#, D.20834
	testl	%eax, %eax	# D.20834
	jne	.L222	#,
	.loc 1 1427 0 discriminator 2
	movl	target_flags(%rip), %eax	# target_flags, target_flags.184
	andl	$32, %eax	#, D.20834
	testl	%eax, %eax	# D.20834
	je	.L223	#,
.L222:
	.loc 1 1427 0 discriminator 1
	movl	$1, %eax	#, iftmp.182
	jmp	.L224	#
.L223:
	.loc 1 1427 0 discriminator 3
	movl	$0, %eax	#, iftmp.182
.L224:
	.loc 1 1427 0 discriminator 4
	andl	$1, %eax	#, iftmp.181
	jmp	.L246	#
.L221:
	.loc 1 1427 0 discriminator 14
	movq	-40(%rbp), %rax	# p, tmp201
	movzbl	(%rax), %eax	# *p_3, D.20833
	cmpb	$97, %al	#, D.20833
	je	.L226	#,
	.loc 1 1427 0 discriminator 15
	movq	-40(%rbp), %rax	# p, tmp202
	movzbl	(%rax), %eax	# *p_3, D.20833
	cmpb	$98, %al	#, D.20833
	je	.L227	#,
	.loc 1 1427 0 discriminator 17
	movq	-40(%rbp), %rax	# p, tmp203
	movzbl	(%rax), %eax	# *p_3, D.20833
	cmpb	$99, %al	#, D.20833
	je	.L228	#,
	.loc 1 1427 0 discriminator 19
	movq	-40(%rbp), %rax	# p, tmp204
	movzbl	(%rax), %eax	# *p_3, D.20833
	cmpb	$100, %al	#, D.20833
	je	.L229	#,
	.loc 1 1427 0 discriminator 21
	movq	-40(%rbp), %rax	# p, tmp205
	movzbl	(%rax), %eax	# *p_3, D.20833
	cmpb	$120, %al	#, D.20833
	jne	.L230	#,
	.loc 1 1427 0 discriminator 23
	movl	target_flags(%rip), %eax	# target_flags, target_flags.190
	andl	$327680, %eax	#, D.20834
	testl	%eax, %eax	# D.20834
	setne	%al	#, iftmp.189
	jmp	.L246	#
.L230:
	.loc 1 1427 0 discriminator 24
	movq	-40(%rbp), %rax	# p, tmp206
	movzbl	(%rax), %eax	# *p_3, D.20833
	cmpb	$89, %al	#, D.20833
	jne	.L232	#,
	.loc 1 1427 0 discriminator 25
	movl	target_flags(%rip), %eax	# target_flags, target_flags.192
	andl	$262144, %eax	#, D.20834
	testl	%eax, %eax	# D.20834
	setne	%al	#, iftmp.191
	jmp	.L246	#
.L232:
	.loc 1 1427 0 discriminator 26
	movq	-40(%rbp), %rax	# p, tmp207
	movzbl	(%rax), %eax	# *p_3, D.20833
	cmpb	$121, %al	#, D.20833
	jne	.L234	#,
	.loc 1 1427 0 discriminator 27
	movl	target_flags(%rip), %eax	# target_flags, target_flags.194
	andl	$16384, %eax	#, D.20834
	testl	%eax, %eax	# D.20834
	setne	%al	#, iftmp.193
	jmp	.L246	#
.L234:
	.loc 1 1427 0 discriminator 28
	movq	-40(%rbp), %rax	# p, tmp208
	movzbl	(%rax), %eax	# *p_3, D.20833
	cmpb	$65, %al	#, D.20833
	je	.L236	#,
	.loc 1 1427 0 discriminator 30
	movq	-40(%rbp), %rax	# p, tmp209
	movzbl	(%rax), %eax	# *p_3, D.20833
	cmpb	$68, %al	#, D.20833
	je	.L236	#,
	.loc 1 1427 0 discriminator 31
	movq	-40(%rbp), %rax	# p, tmp210
	movzbl	(%rax), %eax	# *p_3, D.20833
	cmpb	$83, %al	#, D.20833
	jne	.L237	#,
.L236:
	.loc 1 1427 0 discriminator 29
	movl	$1, %eax	#, iftmp.195
	jmp	.L238	#
.L237:
	.loc 1 1427 0 discriminator 32
	movl	$0, %eax	#, iftmp.195
.L238:
	.loc 1 1427 0 discriminator 33
	andl	$1, %eax	#, iftmp.193
	jmp	.L246	#
.L229:
	.loc 1 1427 0 discriminator 22
	movl	$1, %eax	#, iftmp.188
	jmp	.L246	#
.L228:
	.loc 1 1427 0 discriminator 20
	movl	$1, %eax	#, iftmp.187
	jmp	.L246	#
.L227:
	.loc 1 1427 0 discriminator 18
	movl	$1, %eax	#, iftmp.186
	jmp	.L246	#
.L226:
	.loc 1 1427 0 discriminator 16
	movl	$1, %eax	#, iftmp.185
	jmp	.L246	#
.L210:
	.loc 1 1427 0 discriminator 8
	movl	$1, %eax	#, iftmp.172
	jmp	.L246	#
.L209:
	.loc 1 1427 0 discriminator 6
	movl	$1, %eax	#, iftmp.171
	jmp	.L246	#
.L208:
	.loc 1 1427 0 discriminator 4
	movl	$1, %eax	#, iftmp.170
	jmp	.L246	#
.L207:
	.loc 1 1427 0 discriminator 2
	movl	$1, %eax	#, iftmp.169
.L246:
	.loc 1 1427 0 discriminator 39
	testb	%al, %al	# iftmp.169
	je	.L247	#,
	.loc 1 1428 0 is_stmt 1
	movq	-88(%rbp), %rax	# allows_reg, tmp211
	movb	$1, (%rax)	#, *allows_reg_26(D)
	.loc 1 1439 0
	jmp	.L205	#
.L247:
	.loc 1 1435 0
	movq	-88(%rbp), %rax	# allows_reg, tmp212
	movb	$1, (%rax)	#, *allows_reg_26(D)
	.loc 1 1436 0
	movq	-80(%rbp), %rax	# allows_mem, tmp213
	movb	$1, (%rax)	#, *allows_mem_25(D)
	.loc 1 1439 0
	jmp	.L205	#
.L250:
	.loc 1 1400 0
	nop
.L205:
	.loc 1 1375 0
	addq	$1, -40(%rbp)	#, p
.L193:
	.loc 1 1375 0 is_stmt 0 discriminator 1
	movq	-40(%rbp), %rax	# p, tmp214
	movzbl	(%rax), %eax	# *p_3, D.20833
	testb	%al, %al	# D.20833
	jne	.L249	#,
	.loc 1 1442 0 is_stmt 1
	movl	$1, %eax	#, D.20832
.L189:
	.loc 1 1443 0
	movq	-8(%rbp), %rbx	#,
	leave
	.cfi_def_cfa 7, 8
	ret
	.cfi_endproc
.LFE28:
	.size	parse_output_constraint, .-parse_output_constraint
	.section	.rodata
	.align 8
.LC8:
	.string	"input operand constraint contains `%c'"
	.align 8
.LC9:
	.string	"matching constraint references invalid operand number"
	.align 8
.LC10:
	.string	"invalid punctuation `%c' in constraint"
	.text
	.type	parse_input_constraint, @function
parse_input_constraint:
.LFB29:
	.loc 1 1458 0
	.cfi_startproc
	pushq	%rbp	#
	.cfi_def_cfa_offset 16
	.cfi_offset 6, -16
	movq	%rsp, %rbp	#,
	.cfi_def_cfa_register 6
	subq	$80, %rsp	#,
	movq	%rdi, -56(%rbp)	# constraint_p, constraint_p
	movl	%esi, -60(%rbp)	# input_num, input_num
	movl	%edx, -64(%rbp)	# ninputs, ninputs
	movl	%ecx, -68(%rbp)	# noutputs, noutputs
	movl	%r8d, -72(%rbp)	# ninout, ninout
	movq	%r9, -80(%rbp)	# constraints, constraints
	.loc 1 1459 0
	movq	-56(%rbp), %rax	# constraint_p, tmp160
	movq	(%rax), %rax	# *constraint_p_27(D), tmp161
	movq	%rax, -40(%rbp)	# tmp161, constraint
	.loc 1 1460 0
	movq	-40(%rbp), %rax	# constraint, tmp162
	movq	%rax, -16(%rbp)	# tmp162, orig_constraint
	.loc 1 1461 0
	movq	-40(%rbp), %rax	# constraint, tmp163
	movq	%rax, %rdi	# tmp163,
	call	strlen	#
	movq	%rax, -32(%rbp)	# tmp164, c_len
	.loc 1 1466 0
	movq	16(%rbp), %rax	# allows_mem, tmp165
	movb	$0, (%rax)	#, *allows_mem_31(D)
	.loc 1 1467 0
	movq	24(%rbp), %rax	# allows_reg, tmp166
	movb	$0, (%rax)	#, *allows_reg_32(D)
	.loc 1 1471 0
	movq	$0, -24(%rbp)	#, j
	jmp	.L252	#
.L312:
	.loc 1 1472 0
	movq	-24(%rbp), %rax	# j, tmp167
	movq	-40(%rbp), %rdx	# constraint, tmp168
	addq	%rdx, %rax	# tmp168, D.20848
	movzbl	(%rax), %eax	# *_34, D.20849
	movsbl	%al, %eax	# D.20849, D.20850
	subl	$33, %eax	#, tmp169
	cmpl	$82, %eax	#, tmp169
	ja	.L253	#,
	movl	%eax, %eax	# tmp169, tmp170
	movq	.L255(,%rax,8), %rax	#, tmp171
	jmp	*%rax	# tmp171
	.section	.rodata
	.align 8
	.align 4
.L255:
	.quad	.L313
	.quad	.L253
	.quad	.L313
	.quad	.L253
	.quad	.L256
	.quad	.L257
	.quad	.L253
	.quad	.L253
	.quad	.L253
	.quad	.L313
	.quad	.L257
	.quad	.L313
	.quad	.L253
	.quad	.L253
	.quad	.L253
	.quad	.L258
	.quad	.L258
	.quad	.L258
	.quad	.L258
	.quad	.L258
	.quad	.L258
	.quad	.L258
	.quad	.L258
	.quad	.L258
	.quad	.L258
	.quad	.L253
	.quad	.L253
	.quad	.L313
	.quad	.L257
	.quad	.L313
	.quad	.L313
	.quad	.L253
	.quad	.L253
	.quad	.L253
	.quad	.L253
	.quad	.L253
	.quad	.L313
	.quad	.L313
	.quad	.L313
	.quad	.L313
	.quad	.L313
	.quad	.L313
	.quad	.L313
	.quad	.L313
	.quad	.L313
	.quad	.L313
	.quad	.L313
	.quad	.L313
	.quad	.L253
	.quad	.L253
	.quad	.L253
	.quad	.L253
	.quad	.L253
	.quad	.L259
	.quad	.L253
	.quad	.L260
	.quad	.L253
	.quad	.L253
	.quad	.L253
	.quad	.L253
	.quad	.L253
	.quad	.L253
	.quad	.L253
	.quad	.L253
	.quad	.L253
	.quad	.L253
	.quad	.L253
	.quad	.L253
	.quad	.L253
	.quad	.L253
	.quad	.L260
	.quad	.L253
	.quad	.L313
	.quad	.L253
	.quad	.L253
	.quad	.L253
	.quad	.L259
	.quad	.L313
	.quad	.L259
	.quad	.L261
	.quad	.L253
	.quad	.L261
	.quad	.L313
	.text
.L257:
	.loc 1 1475 0
	movq	-40(%rbp), %rax	# constraint, tmp172
	cmpq	-16(%rbp), %rax	# orig_constraint, tmp172
	jne	.L262	#,
	.loc 1 1477 0
	movq	-24(%rbp), %rax	# j, tmp173
	movq	-40(%rbp), %rdx	# constraint, tmp174
	addq	%rdx, %rax	# tmp174, D.20848
	movzbl	(%rax), %eax	# *_37, D.20849
	movsbl	%al, %eax	# D.20849, D.20850
	movl	%eax, %esi	# D.20850,
	movl	$.LC8, %edi	#,
	movl	$0, %eax	#,
	call	error	#
	.loc 1 1478 0
	movl	$0, %eax	#, D.20847
	jmp	.L263	#
.L262:
	.loc 1 1480 0
	jmp	.L264	#
.L256:
	.loc 1 1483 0
	movq	-40(%rbp), %rax	# constraint, tmp175
	cmpq	-16(%rbp), %rax	# orig_constraint, tmp175
	jne	.L265	#,
	.loc 1 1484 0
	movl	-60(%rbp), %eax	# input_num, tmp176
	leal	1(%rax), %ecx	#, D.20850
	movl	-72(%rbp), %eax	# ninout, tmp177
	movl	-64(%rbp), %edx	# ninputs, tmp178
	subl	%eax, %edx	# tmp177, D.20850
	movl	%edx, %eax	# D.20850, D.20850
	cmpl	%eax, %ecx	# D.20850, D.20850
	jne	.L265	#,
	.loc 1 1486 0
	movl	$.LC6, %edi	#,
	movl	$0, %eax	#,
	call	error	#
	.loc 1 1487 0
	movl	$0, %eax	#, D.20847
	jmp	.L263	#
.L265:
	.loc 1 1489 0
	jmp	.L264	#
.L259:
	.loc 1 1492 0
	movq	16(%rbp), %rax	# allows_mem, tmp179
	movb	$1, (%rax)	#, *allows_mem_31(D)
	.loc 1 1493 0
	jmp	.L264	#
.L258:
.LBB44:
	.loc 1 1514 0
	movq	-24(%rbp), %rax	# j, tmp180
	movq	-40(%rbp), %rdx	# constraint, tmp181
	leaq	(%rdx,%rax), %rcx	#, D.20848
	leaq	-48(%rbp), %rax	#, tmp182
	movl	$10, %edx	#,
	movq	%rax, %rsi	# tmp182,
	movq	%rcx, %rdi	# D.20848,
	call	strtoul	#
	movq	%rax, -8(%rbp)	# tmp183, match
	.loc 1 1515 0
	movl	-68(%rbp), %eax	# noutputs, tmp184
	cltq
	cmpq	-8(%rbp), %rax	# match, D.20851
	ja	.L266	#,
	.loc 1 1517 0
	movl	$.LC9, %edi	#,
	movl	$0, %eax	#,
	call	error	#
	.loc 1 1518 0
	movl	$0, %eax	#, D.20847
	jmp	.L263	#
.L266:
	.loc 1 1523 0
	movq	-48(%rbp), %rax	# end, end.196
	movzbl	(%rax), %eax	# *end.196_52, D.20849
	testb	%al, %al	# D.20849
	jne	.L267	#,
	.loc 1 1524 0
	cmpq	$0, -24(%rbp)	#, j
	je	.L268	#,
	.loc 1 1524 0 is_stmt 0 discriminator 1
	cmpq	$1, -24(%rbp)	#, j
	jne	.L267	#,
	movq	-40(%rbp), %rax	# constraint, tmp185
	movzbl	(%rax), %eax	# *constraint_2, D.20849
	cmpb	$37, %al	#, D.20849
	jne	.L267	#,
.L268:
	.loc 1 1526 0 is_stmt 1
	movq	-8(%rbp), %rax	# match, tmp186
	leaq	0(,%rax,8), %rdx	#, D.20851
	movq	-80(%rbp), %rax	# constraints, tmp187
	addq	%rdx, %rax	# D.20851, D.20852
	movq	(%rax), %rax	# *_57, tmp188
	movq	%rax, -40(%rbp)	# tmp188, constraint
	.loc 1 1527 0
	movq	-56(%rbp), %rax	# constraint_p, tmp189
	movq	-40(%rbp), %rdx	# constraint, tmp190
	movq	%rdx, (%rax)	# tmp190, *constraint_p_27(D)
	.loc 1 1528 0
	movq	-40(%rbp), %rax	# constraint, tmp191
	movq	%rax, %rdi	# tmp191,
	call	strlen	#
	movq	%rax, -32(%rbp)	# tmp192, c_len
	.loc 1 1529 0
	movq	$0, -24(%rbp)	#, j
	jmp	.L264	#
.L267:
	.loc 1 1533 0
	movq	-48(%rbp), %rax	# end, end.197
	movq	%rax, %rdx	# end.197, end.198
	movq	-40(%rbp), %rax	# constraint, constraint.199
	subq	%rax, %rdx	# constraint.199, D.20853
	movq	%rdx, %rax	# D.20853, D.20853
	movq	%rax, -24(%rbp)	# D.20853, j
.L261:
.LBE44:
	.loc 1 1538 0
	movq	24(%rbp), %rax	# allows_reg, tmp193
	movb	$1, (%rax)	#, *allows_reg_32(D)
	.loc 1 1539 0
	jmp	.L264	#
.L260:
	.loc 1 1542 0
	movq	24(%rbp), %rax	# allows_reg, tmp194
	movb	$1, (%rax)	#, *allows_reg_32(D)
	.loc 1 1543 0
	movq	16(%rbp), %rax	# allows_mem, tmp195
	movb	$1, (%rax)	#, *allows_mem_31(D)
	.loc 1 1544 0
	jmp	.L264	#
.L253:
	.loc 1 1547 0
	movq	-24(%rbp), %rax	# j, tmp196
	movq	-40(%rbp), %rdx	# constraint, tmp197
	addq	%rdx, %rax	# tmp197, D.20848
	movzbl	(%rax), %eax	# *_66, D.20849
	movsbl	%al, %eax	# D.20849, D.20850
	movzbl	%al, %eax	# D.20850, D.20850
	cltq
	movzwl	_sch_istable(%rax,%rax), %eax	# _sch_istable, D.20854
	movzwl	%ax, %eax	# D.20854, D.20850
	andl	$136, %eax	#, D.20850
	testl	%eax, %eax	# D.20850
	jne	.L269	#,
	.loc 1 1549 0
	movq	-24(%rbp), %rax	# j, tmp199
	movq	-40(%rbp), %rdx	# constraint, tmp200
	addq	%rdx, %rax	# tmp200, D.20848
	movzbl	(%rax), %eax	# *_73, D.20849
	movsbl	%al, %eax	# D.20849, D.20850
	movl	%eax, %esi	# D.20850,
	movl	$.LC10, %edi	#,
	movl	$0, %eax	#,
	call	error	#
	.loc 1 1550 0
	movl	$0, %eax	#, D.20847
	jmp	.L263	#
.L269:
	.loc 1 1552 0
	movq	-24(%rbp), %rax	# j, tmp201
	movq	-40(%rbp), %rdx	# constraint, tmp202
	addq	%rdx, %rax	# tmp202, D.20848
	movzbl	(%rax), %eax	# *_77, D.20849
	cmpb	$114, %al	#, D.20849
	je	.L270	#,
	.loc 1 1552 0 is_stmt 0 discriminator 1
	movq	-24(%rbp), %rax	# j, tmp203
	movq	-40(%rbp), %rdx	# constraint, tmp204
	addq	%rdx, %rax	# tmp204, D.20848
	movzbl	(%rax), %eax	# *_79, D.20849
	cmpb	$82, %al	#, D.20849
	je	.L271	#,
	.loc 1 1552 0 discriminator 3
	movq	-24(%rbp), %rax	# j, tmp205
	movq	-40(%rbp), %rdx	# constraint, tmp206
	addq	%rdx, %rax	# tmp206, D.20848
	movzbl	(%rax), %eax	# *_81, D.20849
	cmpb	$113, %al	#, D.20849
	je	.L272	#,
	.loc 1 1552 0 discriminator 5
	movq	-24(%rbp), %rax	# j, tmp207
	movq	-40(%rbp), %rdx	# constraint, tmp208
	addq	%rdx, %rax	# tmp208, D.20848
	movzbl	(%rax), %eax	# *_83, D.20849
	cmpb	$81, %al	#, D.20849
	je	.L273	#,
	.loc 1 1552 0 discriminator 7
	movq	-24(%rbp), %rax	# j, tmp209
	movq	-40(%rbp), %rdx	# constraint, tmp210
	addq	%rdx, %rax	# tmp210, D.20848
	movzbl	(%rax), %eax	# *_85, D.20849
	cmpb	$102, %al	#, D.20849
	jne	.L274	#,
	.loc 1 1552 0 discriminator 9
	movl	target_flags(%rip), %eax	# target_flags, target_flags.206
	andl	$1, %eax	#, D.20850
	testl	%eax, %eax	# D.20850
	jne	.L275	#,
	.loc 1 1552 0 discriminator 2
	movl	target_flags(%rip), %eax	# target_flags, target_flags.207
	andl	$32, %eax	#, D.20850
	testl	%eax, %eax	# D.20850
	je	.L276	#,
.L275:
	.loc 1 1552 0 discriminator 1
	movl	$1, %eax	#, iftmp.205
	jmp	.L277	#
.L276:
	.loc 1 1552 0 discriminator 3
	movl	$0, %eax	#, iftmp.205
.L277:
	.loc 1 1552 0 discriminator 4
	andl	$1, %eax	#, iftmp.204
	jmp	.L309	#
.L274:
	.loc 1 1552 0 discriminator 10
	movq	-24(%rbp), %rax	# j, tmp211
	movq	-40(%rbp), %rdx	# constraint, tmp212
	addq	%rdx, %rax	# tmp212, D.20848
	movzbl	(%rax), %eax	# *_94, D.20849
	cmpb	$116, %al	#, D.20849
	jne	.L279	#,
	.loc 1 1552 0 discriminator 11
	movl	target_flags(%rip), %eax	# target_flags, target_flags.210
	andl	$1, %eax	#, D.20850
	testl	%eax, %eax	# D.20850
	jne	.L280	#,
	.loc 1 1552 0 discriminator 2
	movl	target_flags(%rip), %eax	# target_flags, target_flags.211
	andl	$32, %eax	#, D.20850
	testl	%eax, %eax	# D.20850
	je	.L281	#,
.L280:
	.loc 1 1552 0 discriminator 1
	movl	$1, %eax	#, iftmp.209
	jmp	.L282	#
.L281:
	.loc 1 1552 0 discriminator 3
	movl	$0, %eax	#, iftmp.209
.L282:
	.loc 1 1552 0 discriminator 4
	andl	$1, %eax	#, iftmp.208
	jmp	.L309	#
.L279:
	.loc 1 1552 0 discriminator 12
	movq	-24(%rbp), %rax	# j, tmp213
	movq	-40(%rbp), %rdx	# constraint, tmp214
	addq	%rdx, %rax	# tmp214, D.20848
	movzbl	(%rax), %eax	# *_103, D.20849
	cmpb	$117, %al	#, D.20849
	jne	.L284	#,
	.loc 1 1552 0 discriminator 13
	movl	target_flags(%rip), %eax	# target_flags, target_flags.214
	andl	$1, %eax	#, D.20850
	testl	%eax, %eax	# D.20850
	jne	.L285	#,
	.loc 1 1552 0 discriminator 2
	movl	target_flags(%rip), %eax	# target_flags, target_flags.215
	andl	$32, %eax	#, D.20850
	testl	%eax, %eax	# D.20850
	je	.L286	#,
.L285:
	.loc 1 1552 0 discriminator 1
	movl	$1, %eax	#, iftmp.213
	jmp	.L287	#
.L286:
	.loc 1 1552 0 discriminator 3
	movl	$0, %eax	#, iftmp.213
.L287:
	.loc 1 1552 0 discriminator 4
	andl	$1, %eax	#, iftmp.212
	jmp	.L309	#
.L284:
	.loc 1 1552 0 discriminator 14
	movq	-24(%rbp), %rax	# j, tmp215
	movq	-40(%rbp), %rdx	# constraint, tmp216
	addq	%rdx, %rax	# tmp216, D.20848
	movzbl	(%rax), %eax	# *_112, D.20849
	cmpb	$97, %al	#, D.20849
	je	.L289	#,
	.loc 1 1552 0 discriminator 15
	movq	-24(%rbp), %rax	# j, tmp217
	movq	-40(%rbp), %rdx	# constraint, tmp218
	addq	%rdx, %rax	# tmp218, D.20848
	movzbl	(%rax), %eax	# *_114, D.20849
	cmpb	$98, %al	#, D.20849
	je	.L290	#,
	.loc 1 1552 0 discriminator 17
	movq	-24(%rbp), %rax	# j, tmp219
	movq	-40(%rbp), %rdx	# constraint, tmp220
	addq	%rdx, %rax	# tmp220, D.20848
	movzbl	(%rax), %eax	# *_116, D.20849
	cmpb	$99, %al	#, D.20849
	je	.L291	#,
	.loc 1 1552 0 discriminator 19
	movq	-24(%rbp), %rax	# j, tmp221
	movq	-40(%rbp), %rdx	# constraint, tmp222
	addq	%rdx, %rax	# tmp222, D.20848
	movzbl	(%rax), %eax	# *_118, D.20849
	cmpb	$100, %al	#, D.20849
	je	.L292	#,
	.loc 1 1552 0 discriminator 21
	movq	-24(%rbp), %rax	# j, tmp223
	movq	-40(%rbp), %rdx	# constraint, tmp224
	addq	%rdx, %rax	# tmp224, D.20848
	movzbl	(%rax), %eax	# *_120, D.20849
	cmpb	$120, %al	#, D.20849
	jne	.L293	#,
	.loc 1 1552 0 discriminator 23
	movl	target_flags(%rip), %eax	# target_flags, target_flags.221
	andl	$327680, %eax	#, D.20850
	testl	%eax, %eax	# D.20850
	setne	%al	#, iftmp.220
	jmp	.L309	#
.L293:
	.loc 1 1552 0 discriminator 24
	movq	-24(%rbp), %rax	# j, tmp225
	movq	-40(%rbp), %rdx	# constraint, tmp226
	addq	%rdx, %rax	# tmp226, D.20848
	movzbl	(%rax), %eax	# *_125, D.20849
	cmpb	$89, %al	#, D.20849
	jne	.L295	#,
	.loc 1 1552 0 discriminator 25
	movl	target_flags(%rip), %eax	# target_flags, target_flags.223
	andl	$262144, %eax	#, D.20850
	testl	%eax, %eax	# D.20850
	setne	%al	#, iftmp.222
	jmp	.L309	#
.L295:
	.loc 1 1552 0 discriminator 26
	movq	-24(%rbp), %rax	# j, tmp227
	movq	-40(%rbp), %rdx	# constraint, tmp228
	addq	%rdx, %rax	# tmp228, D.20848
	movzbl	(%rax), %eax	# *_130, D.20849
	cmpb	$121, %al	#, D.20849
	jne	.L297	#,
	.loc 1 1552 0 discriminator 27
	movl	target_flags(%rip), %eax	# target_flags, target_flags.225
	andl	$16384, %eax	#, D.20850
	testl	%eax, %eax	# D.20850
	setne	%al	#, iftmp.224
	jmp	.L309	#
.L297:
	.loc 1 1552 0 discriminator 28
	movq	-24(%rbp), %rax	# j, tmp229
	movq	-40(%rbp), %rdx	# constraint, tmp230
	addq	%rdx, %rax	# tmp230, D.20848
	movzbl	(%rax), %eax	# *_135, D.20849
	cmpb	$65, %al	#, D.20849
	je	.L299	#,
	.loc 1 1552 0 discriminator 30
	movq	-24(%rbp), %rax	# j, tmp231
	movq	-40(%rbp), %rdx	# constraint, tmp232
	addq	%rdx, %rax	# tmp232, D.20848
	movzbl	(%rax), %eax	# *_137, D.20849
	cmpb	$68, %al	#, D.20849
	je	.L299	#,
	.loc 1 1552 0 discriminator 31
	movq	-24(%rbp), %rax	# j, tmp233
	movq	-40(%rbp), %rdx	# constraint, tmp234
	addq	%rdx, %rax	# tmp234, D.20848
	movzbl	(%rax), %eax	# *_139, D.20849
	cmpb	$83, %al	#, D.20849
	jne	.L300	#,
.L299:
	.loc 1 1552 0 discriminator 29
	movl	$1, %eax	#, iftmp.226
	jmp	.L301	#
.L300:
	.loc 1 1552 0 discriminator 32
	movl	$0, %eax	#, iftmp.226
.L301:
	.loc 1 1552 0 discriminator 33
	andl	$1, %eax	#, iftmp.224
	jmp	.L309	#
.L292:
	.loc 1 1552 0 discriminator 22
	movl	$1, %eax	#, iftmp.219
	jmp	.L309	#
.L291:
	.loc 1 1552 0 discriminator 20
	movl	$1, %eax	#, iftmp.218
	jmp	.L309	#
.L290:
	.loc 1 1552 0 discriminator 18
	movl	$1, %eax	#, iftmp.217
	jmp	.L309	#
.L289:
	.loc 1 1552 0 discriminator 16
	movl	$1, %eax	#, iftmp.216
	jmp	.L309	#
.L273:
	.loc 1 1552 0 discriminator 8
	movl	$1, %eax	#, iftmp.203
	jmp	.L309	#
.L272:
	.loc 1 1552 0 discriminator 6
	movl	$1, %eax	#, iftmp.202
	jmp	.L309	#
.L271:
	.loc 1 1552 0 discriminator 4
	movl	$1, %eax	#, iftmp.201
	jmp	.L309	#
.L270:
	.loc 1 1552 0 discriminator 2
	movl	$1, %eax	#, iftmp.200
.L309:
	.loc 1 1552 0 discriminator 39
	testb	%al, %al	# iftmp.200
	je	.L310	#,
	.loc 1 1553 0 is_stmt 1
	movq	24(%rbp), %rax	# allows_reg, tmp235
	movb	$1, (%rax)	#, *allows_reg_32(D)
	.loc 1 1564 0
	jmp	.L264	#
.L310:
	.loc 1 1560 0
	movq	24(%rbp), %rax	# allows_reg, tmp236
	movb	$1, (%rax)	#, *allows_reg_32(D)
	.loc 1 1561 0
	movq	16(%rbp), %rax	# allows_mem, tmp237
	movb	$1, (%rax)	#, *allows_mem_31(D)
	.loc 1 1564 0
	jmp	.L264	#
.L313:
	.loc 1 1501 0
	nop
.L264:
	.loc 1 1471 0
	addq	$1, -24(%rbp)	#, j
.L252:
	.loc 1 1471 0 is_stmt 0 discriminator 1
	movq	-24(%rbp), %rax	# j, tmp238
	cmpq	-32(%rbp), %rax	# c_len, tmp238
	jb	.L312	#,
	.loc 1 1567 0 is_stmt 1
	movl	$1, %eax	#, D.20847
.L263:
	.loc 1 1568 0
	leave
	.cfi_def_cfa 7, 8
	ret
	.cfi_endproc
.LFE29:
	.size	parse_input_constraint, .-parse_input_constraint
	.section	.rodata
.LC11:
	.string	"flags"
.LC12:
	.string	"fpsr"
.LC13:
	.string	"dirflag"
	.align 8
.LC14:
	.string	"unknown register name `%s' in `asm'"
	.align 8
.LC15:
	.string	"more than %d operands in `asm'"
	.align 8
.LC16:
	.string	"output number %d not directly addressable"
	.align 8
.LC17:
	.string	"asm operand %d probably doesn't match constraints"
.LC18:
	.string	"%d"
	.text
	.globl	expand_asm_operands
	.type	expand_asm_operands, @function
expand_asm_operands:
.LFB30:
	.loc 1 1593 0
	.cfi_startproc
	pushq	%rbp	#
	.cfi_def_cfa_offset 16
	.cfi_offset 6, -16
	movq	%rsp, %rbp	#,
	.cfi_def_cfa_register 6
	pushq	%r12	#
	pushq	%rbx	#
	subq	$336, %rsp	#,
	.cfi_offset 12, -24
	.cfi_offset 3, -32
	movq	%rdi, -280(%rbp)	# string, string
	movq	%rsi, -288(%rbp)	# outputs, outputs
	movq	%rdx, -296(%rbp)	# inputs, inputs
	movq	%rcx, -304(%rbp)	# clobbers, clobbers
	movl	%r8d, -308(%rbp)	# vol, vol
	movq	%r9, -320(%rbp)	# filename, filename
	.loc 1 1593 0
	movq	%fs:40, %rax	#, tmp805
	movq	%rax, -24(%rbp)	# tmp805, D.20877
	xorl	%eax, %eax	# tmp805
	.loc 1 1596 0
	movq	-296(%rbp), %rax	# inputs, tmp368
	movq	%rax, %rdi	# tmp368,
	call	list_length	#
	movl	%eax, -252(%rbp)	# tmp369, ninputs
	.loc 1 1597 0
	movq	-288(%rbp), %rax	# outputs, tmp370
	movq	%rax, %rdi	# tmp370,
	call	list_length	#
	movl	%eax, -248(%rbp)	# tmp371, noutputs
	.loc 1 1603 0
	movl	-248(%rbp), %eax	# noutputs, tmp372
	cltq
	salq	$3, %rax	#, D.20858
	leaq	15(%rax), %rdx	#, tmp373
	movl	$16, %eax	#, tmp795
	subq	$1, %rax	#, tmp374
	addq	%rdx, %rax	# tmp373, tmp375
	movl	$16, %ebx	#, tmp796
	movl	$0, %edx	#, tmp378
	divq	%rbx	# tmp796
	imulq	$16, %rax, %rax	#, tmp377, tmp379
	subq	%rax, %rsp	# tmp379,
	leaq	24(%rsp), %rax	#, tmp380
	addq	$15, %rax	#, tmp381
	shrq	$4, %rax	#, tmp382
	salq	$4, %rax	#, tmp383
	movq	%rax, -208(%rbp)	# tmp383, output_rtx
	.loc 1 1604 0
	movl	-248(%rbp), %eax	# noutputs, tmp384
	cltq
	salq	$2, %rax	#, D.20858
	leaq	15(%rax), %rdx	#, tmp385
	movl	$16, %eax	#, tmp797
	subq	$1, %rax	#, tmp386
	addq	%rdx, %rax	# tmp385, tmp387
	movl	$16, %ebx	#, tmp798
	movl	$0, %edx	#, tmp390
	divq	%rbx	# tmp798
	imulq	$16, %rax, %rax	#, tmp389, tmp391
	subq	%rax, %rsp	# tmp391,
	leaq	24(%rsp), %rax	#, tmp392
	addq	$15, %rax	#, tmp393
	shrq	$4, %rax	#, tmp394
	salq	$4, %rax	#, tmp395
	movq	%rax, -200(%rbp)	# tmp395, inout_opnum
	.loc 1 1605 0
	movl	-248(%rbp), %eax	# noutputs, tmp396
	cltq
	salq	$3, %rax	#, D.20858
	leaq	15(%rax), %rdx	#, tmp397
	movl	$16, %eax	#, tmp799
	subq	$1, %rax	#, tmp398
	addq	%rdx, %rax	# tmp397, tmp399
	movl	$16, %ebx	#, tmp800
	movl	$0, %edx	#, tmp402
	divq	%rbx	# tmp800
	imulq	$16, %rax, %rax	#, tmp401, tmp403
	subq	%rax, %rsp	# tmp403,
	leaq	24(%rsp), %rax	#, tmp404
	addq	$15, %rax	#, tmp405
	shrq	$4, %rax	#, tmp406
	salq	$4, %rax	#, tmp407
	movq	%rax, -192(%rbp)	# tmp407, real_output_rtx
	.loc 1 1607 0
	movl	-248(%rbp), %eax	# noutputs, tmp408
	cltq
	salq	$2, %rax	#, D.20858
	.loc 1 1606 0
	leaq	15(%rax), %rdx	#, tmp409
	movl	$16, %eax	#, tmp801
	subq	$1, %rax	#, tmp410
	addq	%rdx, %rax	# tmp409, tmp411
	movl	$16, %ebx	#, tmp802
	movl	$0, %edx	#, tmp414
	divq	%rbx	# tmp802
	imulq	$16, %rax, %rax	#, tmp413, tmp415
	subq	%rax, %rsp	# tmp415,
	leaq	24(%rsp), %rax	#, tmp416
	addq	$15, %rax	#, tmp417
	shrq	$4, %rax	#, tmp418
	salq	$4, %rax	#, tmp419
	movq	%rax, -184(%rbp)	# tmp419, inout_mode
	.loc 1 1609 0
	movl	-252(%rbp), %eax	# ninputs, tmp420
	movl	-248(%rbp), %edx	# noutputs, tmp421
	addl	%edx, %eax	# tmp421, D.20859
	cltq
	salq	$3, %rax	#, D.20858
	.loc 1 1608 0
	leaq	15(%rax), %rdx	#, tmp422
	movl	$16, %eax	#, tmp803
	subq	$1, %rax	#, tmp423
	addq	%rdx, %rax	# tmp422, tmp424
	movl	$16, %ebx	#, tmp804
	movl	$0, %edx	#, tmp427
	divq	%rbx	# tmp804
	imulq	$16, %rax, %rax	#, tmp426, tmp428
	subq	%rax, %rsp	# tmp428,
	leaq	24(%rsp), %rax	#, tmp429
	addq	$15, %rax	#, tmp430
	shrq	$4, %rax	#, tmp431
	salq	$4, %rax	#, tmp432
	movq	%rax, -176(%rbp)	# tmp432, constraints
	.loc 1 1612 0
	movl	generating_concat_p(%rip), %eax	# generating_concat_p, tmp433
	movl	%eax, -244(%rbp)	# tmp433, old_generating_concat_p
	.loc 1 1615 0
	cmpl	$0, -248(%rbp)	#, noutputs
	jne	.L315	#,
	.loc 1 1616 0
	movl	$1, -308(%rbp)	#, vol
.L315:
	.loc 1 1618 0
	movq	-296(%rbp), %rdx	# inputs, tmp434
	movq	-288(%rbp), %rax	# outputs, tmp435
	movq	%rdx, %rsi	# tmp434,
	movq	%rax, %rdi	# tmp435,
	call	check_operand_nalternatives	#
	xorl	$1, %eax	#, D.20860
	testb	%al, %al	# D.20860
	je	.L316	#,
	.loc 1 1619 0
	jmp	.L314	#
.L316:
	.loc 1 1621 0
	movq	-296(%rbp), %rdx	# inputs, tmp436
	movq	-288(%rbp), %rax	# outputs, tmp437
	movq	%rdx, %rsi	# tmp436,
	movq	%rax, %rdi	# tmp437,
	call	check_unique_operand_names	#
	xorl	$1, %eax	#, D.20860
	testb	%al, %al	# D.20860
	je	.L318	#,
	.loc 1 1622 0
	jmp	.L314	#
.L318:
	.loc 1 1624 0
	movq	-176(%rbp), %rcx	# constraints, tmp438
	movq	-296(%rbp), %rdx	# inputs, tmp439
	movq	-288(%rbp), %rsi	# outputs, tmp440
	movq	-280(%rbp), %rax	# string, tmp441
	movq	%rax, %rdi	# tmp441,
	call	resolve_operand_names	#
	movq	%rax, -280(%rbp)	# tmp442, string
	.loc 1 1631 0
	movl	$.LC11, %esi	#,
	movl	$5, %edi	#,
	call	build_string	#
	movq	-304(%rbp), %rdx	# clobbers, tmp443
	movq	%rax, %rsi	# D.20861,
	movl	$0, %edi	#,
	call	tree_cons	#
	movq	%rax, -304(%rbp)	# tmp444, clobbers
	movl	$.LC12, %esi	#,
	movl	$4, %edi	#,
	call	build_string	#
	movq	-304(%rbp), %rdx	# clobbers, tmp445
	movq	%rax, %rsi	# D.20861,
	movl	$0, %edi	#,
	call	tree_cons	#
	movq	%rax, -304(%rbp)	# tmp446, clobbers
	movl	$.LC13, %esi	#,
	movl	$7, %edi	#,
	call	build_string	#
	movq	-304(%rbp), %rdx	# clobbers, tmp447
	movq	%rax, %rsi	# D.20861,
	movl	$0, %edi	#,
	call	tree_cons	#
	movq	%rax, -304(%rbp)	# tmp448, clobbers
	.loc 1 1636 0
	movl	$0, -264(%rbp)	#, nclobbers
	.loc 1 1637 0
	movq	-304(%rbp), %rax	# clobbers, tmp449
	movq	%rax, -224(%rbp)	# tmp449, tail
	jmp	.L319	#
.L323:
.LBB45:
	.loc 1 1639 0
	movq	-224(%rbp), %rax	# tail, tmp450
	movq	32(%rax), %rax	# tail_8->list.value, D.20861
	movq	40(%rax), %rax	# _75->string.pointer, tmp451
	movq	%rax, -168(%rbp)	# tmp451, regname
	.loc 1 1641 0
	movq	-168(%rbp), %rax	# regname, tmp452
	movq	%rax, %rdi	# tmp452,
	call	decode_reg_name	#
	movl	%eax, -260(%rbp)	# tmp453, i
	.loc 1 1642 0
	cmpl	$0, -260(%rbp)	#, i
	jns	.L320	#,
	.loc 1 1642 0 is_stmt 0 discriminator 1
	cmpl	$-4, -260(%rbp)	#, i
	jne	.L321	#,
.L320:
	.loc 1 1643 0 is_stmt 1
	addl	$1, -264(%rbp)	#, nclobbers
	jmp	.L322	#
.L321:
	.loc 1 1644 0
	cmpl	$-2, -260(%rbp)	#, i
	jne	.L322	#,
	.loc 1 1645 0
	movq	-168(%rbp), %rax	# regname, tmp454
	movq	%rax, %rsi	# tmp454,
	movl	$.LC14, %edi	#,
	movl	$0, %eax	#,
	call	error	#
.L322:
.LBE45:
	.loc 1 1637 0
	movq	-224(%rbp), %rax	# tail, tmp455
	movq	(%rax), %rax	# tail_8->common.chain, tmp456
	movq	%rax, -224(%rbp)	# tmp456, tail
.L319:
	.loc 1 1637 0 is_stmt 0 discriminator 1
	cmpq	$0, -224(%rbp)	#, tail
	jne	.L323	#,
	.loc 1 1648 0 is_stmt 1
	movq	cfun(%rip), %rax	# cfun, cfun.227
	movq	8(%rax), %rax	# cfun.227_80->stmt, D.20862
	movq	$0, 56(%rax)	#, _81->x_last_expr_type
	.loc 1 1653 0
	movl	$0, -268(%rbp)	#, ninout
	.loc 1 1654 0
	movl	$0, -260(%rbp)	#, i
	movq	-288(%rbp), %rax	# outputs, tmp457
	movq	%rax, -224(%rbp)	# tmp457, tail
	jmp	.L324	#
.L335:
.LBB46:
	.loc 1 1656 0
	movq	-224(%rbp), %rax	# tail, tmp458
	movq	32(%rax), %rax	# tail_9->list.value, tmp459
	movq	%rax, -160(%rbp)	# tmp459, val
	.loc 1 1657 0
	movq	-160(%rbp), %rax	# val, tmp460
	movq	8(%rax), %rax	# val_85->common.type, tmp461
	movq	%rax, -152(%rbp)	# tmp461, type
	.loc 1 1664 0
	movq	global_trees(%rip), %rax	# global_trees, D.20861
	cmpq	-152(%rbp), %rax	# type, D.20861
	jne	.L325	#,
	.loc 1 1665 0
	jmp	.L314	#
.L325:
	.loc 1 1669 0
	movl	-260(%rbp), %eax	# i, tmp462
	cltq
	leaq	0(,%rax,8), %rdx	#, D.20858
	movq	-176(%rbp), %rax	# constraints, tmp463
	addq	%rdx, %rax	# D.20858, D.20863
	movq	(%rax), %rax	# *_90, constraint.228
	movq	%rax, -232(%rbp)	# constraint.228, constraint
	.loc 1 1670 0
	leaq	-270(%rbp), %r9	#, tmp464
	leaq	-269(%rbp), %r8	#, tmp465
	movl	-248(%rbp), %ecx	# noutputs, tmp466
	movl	-252(%rbp), %edx	# ninputs, tmp467
	movl	-260(%rbp), %esi	# i, tmp468
	leaq	-232(%rbp), %rax	#, tmp469
	leaq	-271(%rbp), %rdi	#, tmp470
	movq	%rdi, (%rsp)	# tmp470,
	movq	%rax, %rdi	# tmp469,
	call	parse_output_constraint	#
	xorl	$1, %eax	#, D.20860
	testb	%al, %al	# D.20860
	je	.L327	#,
	.loc 1 1672 0
	nop
	jmp	.L314	#
.L327:
	.loc 1 1674 0
	movzbl	-270(%rbp), %eax	# allows_reg, allows_reg.229
	xorl	$1, %eax	#, D.20860
	testb	%al, %al	# D.20860
	je	.L328	#,
	.loc 1 1675 0
	movzbl	-269(%rbp), %eax	# allows_mem, allows_mem.230
	testb	%al, %al	# allows_mem.230
	jne	.L329	#,
	.loc 1 1676 0
	movzbl	-271(%rbp), %eax	# is_inout, is_inout.231
	testb	%al, %al	# is_inout.231
	jne	.L329	#,
	.loc 1 1677 0
	movq	-160(%rbp), %rax	# val, tmp471
	movzbl	16(%rax), %eax	# val_85->common.code, D.20864
	movzbl	%al, %eax	# D.20864, D.20859
	cltq
	movzbl	tree_code_type(%rax), %eax	# tree_code_type, D.20865
	cmpb	$100, %al	#, D.20865
	jne	.L328	#,
	.loc 1 1678 0
	movq	-160(%rbp), %rax	# val, tmp473
	movq	144(%rax), %rax	# val_85->decl.rtl, D.20866
	testq	%rax, %rax	# D.20866
	je	.L330	#,
	.loc 1 1678 0 is_stmt 0 discriminator 1
	movq	-160(%rbp), %rax	# val, tmp474
	movq	144(%rax), %rax	# val_85->decl.rtl, iftmp.232
	jmp	.L331	#
.L330:
	.loc 1 1678 0 discriminator 2
	movq	-160(%rbp), %rax	# val, tmp475
	movl	$0, %esi	#,
	movq	%rax, %rdi	# tmp475,
	call	make_decl_rtl	#
	movq	-160(%rbp), %rax	# val, tmp476
	movq	144(%rax), %rax	# val_85->decl.rtl, iftmp.232
.L331:
	.loc 1 1678 0 discriminator 3
	movzwl	(%rax), %eax	# iftmp.232_30->code, D.20867
	cmpw	$61, %ax	#, D.20867
	jne	.L328	#,
	.loc 1 1679 0 is_stmt 1
	movq	-160(%rbp), %rax	# val, tmp477
	movq	144(%rax), %rax	# val_85->decl.rtl, D.20866
	testq	%rax, %rax	# D.20866
	je	.L332	#,
	.loc 1 1679 0 is_stmt 0 discriminator 1
	movq	-160(%rbp), %rax	# val, tmp478
	movq	144(%rax), %rax	# val_85->decl.rtl, iftmp.233
	jmp	.L333	#
.L332:
	.loc 1 1679 0 discriminator 2
	movq	-160(%rbp), %rax	# val, tmp479
	movl	$0, %esi	#,
	movq	%rax, %rdi	# tmp479,
	call	make_decl_rtl	#
	movq	-160(%rbp), %rax	# val, tmp480
	movq	144(%rax), %rax	# val_85->decl.rtl, iftmp.233
.L333:
	.loc 1 1679 0 discriminator 3
	movzbl	2(%rax), %edx	# iftmp.233_31->mode, D.20864
	movq	-152(%rbp), %rax	# type, tmp481
	movzbl	61(%rax), %eax	# *type_86, tmp484
	shrb	%al	# D.20868
	cmpb	%al, %dl	# D.20864, D.20864
	je	.L328	#,
.L329:
	.loc 1 1680 0 is_stmt 1
	movq	-160(%rbp), %rax	# val, tmp485
	movq	%rax, %rdi	# tmp485,
	call	mark_addressable	#
.L328:
	.loc 1 1682 0
	movzbl	-271(%rbp), %eax	# is_inout, is_inout.234
	testb	%al, %al	# is_inout.234
	je	.L334	#,
	.loc 1 1683 0
	addl	$1, -268(%rbp)	#, ninout
.L334:
.LBE46:
	.loc 1 1654 0
	movq	-224(%rbp), %rax	# tail, tmp486
	movq	(%rax), %rax	# tail_9->common.chain, tmp487
	movq	%rax, -224(%rbp)	# tmp487, tail
	addl	$1, -260(%rbp)	#, i
.L324:
	.loc 1 1654 0 is_stmt 0 discriminator 1
	cmpq	$0, -224(%rbp)	#, tail
	jne	.L335	#,
	.loc 1 1686 0 is_stmt 1
	movl	-268(%rbp), %eax	# ninout, tmp488
	addl	%eax, -252(%rbp)	# tmp488, ninputs
	.loc 1 1687 0
	movl	-248(%rbp), %eax	# noutputs, tmp489
	movl	-252(%rbp), %edx	# ninputs, tmp490
	addl	%edx, %eax	# tmp490, D.20859
	cmpl	$30, %eax	#, D.20859
	jle	.L336	#,
	.loc 1 1689 0
	movl	$30, %esi	#,
	movl	$.LC15, %edi	#,
	movl	$0, %eax	#,
	call	error	#
	.loc 1 1690 0
	jmp	.L314	#
.L336:
	.loc 1 1693 0
	movl	$0, -260(%rbp)	#, i
	movq	-296(%rbp), %rax	# inputs, tmp491
	movq	%rax, -224(%rbp)	# tmp491, tail
	jmp	.L337	#
.L342:
.LBB47:
	.loc 1 1700 0
	movq	-224(%rbp), %rax	# tail, tmp492
	movq	32(%rax), %rax	# tail_10->list.value, D.20861
	movq	8(%rax), %rdx	# _119->common.type, D.20861
	movq	global_trees(%rip), %rax	# global_trees, D.20861
	cmpq	%rax, %rdx	# D.20861, D.20861
	jne	.L338	#,
	.loc 1 1701 0
	jmp	.L314	#
.L338:
	.loc 1 1703 0
	movl	-248(%rbp), %eax	# noutputs, tmp493
	movl	-260(%rbp), %edx	# i, tmp494
	addl	%edx, %eax	# tmp494, D.20859
	cltq
	leaq	0(,%rax,8), %rdx	#, D.20858
	movq	-176(%rbp), %rax	# constraints, tmp495
	addq	%rdx, %rax	# D.20858, D.20863
	movq	(%rax), %rax	# *_125, constraint.235
	movq	%rax, -232(%rbp)	# constraint.235, constraint
	.loc 1 1704 0
	movq	-176(%rbp), %r9	# constraints, tmp496
	movl	-268(%rbp), %r8d	# ninout, tmp497
	movl	-248(%rbp), %ecx	# noutputs, tmp498
	movl	-252(%rbp), %edx	# ninputs, tmp499
	movl	-260(%rbp), %esi	# i, tmp500
	leaq	-232(%rbp), %rax	#, tmp501
	leaq	-270(%rbp), %rdi	#, tmp502
	movq	%rdi, 8(%rsp)	# tmp502,
	leaq	-269(%rbp), %rdi	#, tmp503
	movq	%rdi, (%rsp)	# tmp503,
	movq	%rax, %rdi	# tmp501,
	call	parse_input_constraint	#
	xorl	$1, %eax	#, D.20860
	testb	%al, %al	# D.20860
	je	.L340	#,
	.loc 1 1706 0
	nop
	jmp	.L314	#
.L340:
	.loc 1 1708 0
	movzbl	-270(%rbp), %eax	# allows_reg, allows_reg.236
	xorl	$1, %eax	#, D.20860
	testb	%al, %al	# D.20860
	je	.L341	#,
	.loc 1 1708 0 is_stmt 0 discriminator 1
	movzbl	-269(%rbp), %eax	# allows_mem, allows_mem.237
	testb	%al, %al	# allows_mem.237
	je	.L341	#,
	.loc 1 1709 0 is_stmt 1
	movq	-224(%rbp), %rax	# tail, tmp504
	movq	32(%rax), %rax	# tail_10->list.value, D.20861
	movq	%rax, %rdi	# D.20861,
	call	mark_addressable	#
.L341:
.LBE47:
	.loc 1 1693 0
	addl	$1, -260(%rbp)	#, i
	movq	-224(%rbp), %rax	# tail, tmp505
	movq	(%rax), %rax	# tail_10->common.chain, tmp506
	movq	%rax, -224(%rbp)	# tmp506, tail
.L337:
	.loc 1 1693 0 is_stmt 0 discriminator 1
	cmpq	$0, -224(%rbp)	#, tail
	jne	.L342	#,
	.loc 1 1714 0 is_stmt 1
	movl	$0, -268(%rbp)	#, ninout
	.loc 1 1715 0
	movl	$0, -260(%rbp)	#, i
	movq	-288(%rbp), %rax	# outputs, tmp507
	movq	%rax, -224(%rbp)	# tmp507, tail
	jmp	.L343	#
.L362:
.LBB48:
	.loc 1 1717 0
	movq	-224(%rbp), %rax	# tail, tmp508
	movq	32(%rax), %rax	# tail_11->list.value, tmp509
	movq	%rax, -144(%rbp)	# tmp509, val
	.loc 1 1718 0
	movq	-144(%rbp), %rax	# val, tmp510
	movq	8(%rax), %rax	# val_138->common.type, tmp511
	movq	%rax, -136(%rbp)	# tmp511, type
	.loc 1 1723 0
	movl	-260(%rbp), %eax	# i, tmp512
	cltq
	leaq	0(,%rax,8), %rdx	#, D.20858
	movq	-176(%rbp), %rax	# constraints, tmp513
	leaq	(%rdx,%rax), %rdi	#, D.20863
	leaq	-269(%rbp), %r9	#, tmp514
	leaq	-232(%rbp), %r8	#, tmp515
	movl	-248(%rbp), %ecx	# noutputs, tmp516
	movl	-252(%rbp), %edx	# ninputs, tmp517
	movl	-260(%rbp), %eax	# i, tmp518
	leaq	-270(%rbp), %rsi	#, tmp519
	movq	%rsi, (%rsp)	# tmp519,
	movl	%eax, %esi	# tmp518,
	call	parse_output_constraint	#
	xorl	$1, %eax	#, D.20860
	testb	%al, %al	# D.20860
	je	.L344	#,
	.loc 1 1726 0
	movl	$__FUNCTION__.14197, %edx	#,
	movl	$1726, %esi	#,
	movl	$.LC0, %edi	#,
	call	fancy_abort	#
.L344:
	.loc 1 1733 0
	movl	$0, generating_concat_p(%rip)	#, generating_concat_p
	.loc 1 1735 0
	movl	-260(%rbp), %eax	# i, tmp520
	cltq
	leaq	0(,%rax,8), %rdx	#, D.20858
	movq	-192(%rbp), %rax	# real_output_rtx, tmp521
	addq	%rdx, %rax	# D.20858, D.20869
	movq	$0, (%rax)	#, *_147
	.loc 1 1736 0
	movq	-144(%rbp), %rax	# val, tmp522
	movzbl	16(%rax), %eax	# val_138->common.code, D.20864
	cmpb	$41, %al	#, D.20864
	jne	.L345	#,
	.loc 1 1737 0
	movzbl	-232(%rbp), %eax	# allows_mem, allows_mem.238
	testb	%al, %al	# allows_mem.238
	jne	.L346	#,
.L345:
	.loc 1 1738 0
	movq	-144(%rbp), %rax	# val, tmp523
	movzbl	16(%rax), %eax	# val_138->common.code, D.20864
	movzbl	%al, %eax	# D.20864, D.20859
	cltq
	movzbl	tree_code_type(%rax), %eax	# tree_code_type, D.20865
	cmpb	$100, %al	#, D.20865
	jne	.L347	#,
	.loc 1 1739 0
	movzbl	-232(%rbp), %eax	# allows_mem, allows_mem.239
	testb	%al, %al	# allows_mem.239
	jne	.L348	#,
	.loc 1 1739 0 is_stmt 0 discriminator 1
	movq	-144(%rbp), %rax	# val, tmp525
	movq	144(%rax), %rax	# val_138->decl.rtl, D.20866
	testq	%rax, %rax	# D.20866
	je	.L349	#,
	movq	-144(%rbp), %rax	# val, tmp526
	movq	144(%rax), %rax	# val_138->decl.rtl, iftmp.240
	jmp	.L350	#
.L349:
	.loc 1 1739 0 discriminator 2
	movq	-144(%rbp), %rax	# val, tmp527
	movl	$0, %esi	#,
	movq	%rax, %rdi	# tmp527,
	call	make_decl_rtl	#
	movq	-144(%rbp), %rax	# val, tmp528
	movq	144(%rax), %rax	# val_138->decl.rtl, iftmp.240
.L350:
	.loc 1 1739 0 discriminator 3
	movzwl	(%rax), %eax	# iftmp.240_32->code, D.20867
	cmpw	$61, %ax	#, D.20867
	jne	.L347	#,
.L348:
	.loc 1 1740 0 is_stmt 1
	movq	-144(%rbp), %rax	# val, tmp529
	movq	144(%rax), %rax	# val_138->decl.rtl, D.20866
	testq	%rax, %rax	# D.20866
	je	.L351	#,
	.loc 1 1740 0 is_stmt 0 discriminator 1
	movq	-144(%rbp), %rax	# val, tmp530
	movq	144(%rax), %rax	# val_138->decl.rtl, iftmp.241
	jmp	.L352	#
.L351:
	.loc 1 1740 0 discriminator 2
	movq	-144(%rbp), %rax	# val, tmp531
	movl	$0, %esi	#,
	movq	%rax, %rdi	# tmp531,
	call	make_decl_rtl	#
	movq	-144(%rbp), %rax	# val, tmp532
	movq	144(%rax), %rax	# val_138->decl.rtl, iftmp.241
.L352:
	.loc 1 1740 0 discriminator 3
	movzwl	(%rax), %eax	# iftmp.241_33->code, D.20867
	cmpw	$61, %ax	#, D.20867
	jne	.L346	#,
	.loc 1 1741 0 is_stmt 1
	movq	-144(%rbp), %rax	# val, tmp533
	movq	144(%rax), %rax	# val_138->decl.rtl, D.20866
	testq	%rax, %rax	# D.20866
	je	.L353	#,
	.loc 1 1741 0 is_stmt 0 discriminator 1
	movq	-144(%rbp), %rax	# val, tmp534
	movq	144(%rax), %rax	# val_138->decl.rtl, iftmp.242
	jmp	.L354	#
.L353:
	.loc 1 1741 0 discriminator 2
	movq	-144(%rbp), %rax	# val, tmp535
	movl	$0, %esi	#,
	movq	%rax, %rdi	# tmp535,
	call	make_decl_rtl	#
	movq	-144(%rbp), %rax	# val, tmp536
	movq	144(%rax), %rax	# val_138->decl.rtl, iftmp.242
.L354:
	.loc 1 1741 0 discriminator 3
	movzbl	2(%rax), %edx	# iftmp.242_34->mode, D.20864
	movq	-136(%rbp), %rax	# type, tmp537
	movzbl	61(%rax), %eax	# *type_139, tmp540
	shrb	%al	# D.20868
	.loc 1 1740 0 is_stmt 1 discriminator 3
	cmpb	%al, %dl	# D.20864, D.20864
	je	.L346	#,
.L347:
	.loc 1 1742 0
	movzbl	-269(%rbp), %eax	# allows_reg, allows_reg.243
	xorl	$1, %eax	#, D.20860
	testb	%al, %al	# D.20860
	jne	.L346	#,
	.loc 1 1743 0
	movzbl	-270(%rbp), %eax	# is_inout, is_inout.244
	testb	%al, %al	# is_inout.244
	je	.L355	#,
.L346:
	.loc 1 1745 0
	movl	-260(%rbp), %eax	# i, tmp541
	cltq
	leaq	0(,%rax,8), %rdx	#, D.20858
	movq	-208(%rbp), %rax	# output_rtx, tmp542
	leaq	(%rdx,%rax), %rbx	#, D.20869
	movq	-144(%rbp), %rax	# val, tmp543
	movl	$4, %ecx	#,
	movl	$0, %edx	#,
	movl	$0, %esi	#,
	movq	%rax, %rdi	# tmp543,
	call	expand_expr	#
	movq	%rax, (%rbx)	# D.20866, *_182
	.loc 1 1747 0
	movzbl	-269(%rbp), %eax	# allows_reg, allows_reg.245
	xorl	$1, %eax	#, D.20860
	testb	%al, %al	# D.20860
	je	.L356	#,
	.loc 1 1747 0 is_stmt 0 discriminator 1
	movl	-260(%rbp), %eax	# i, tmp544
	cltq
	leaq	0(,%rax,8), %rdx	#, D.20858
	movq	-208(%rbp), %rax	# output_rtx, tmp545
	addq	%rdx, %rax	# D.20858, D.20869
	movq	(%rax), %rax	# *_188, D.20866
	movzwl	(%rax), %eax	# _189->code, D.20867
	cmpw	$66, %ax	#, D.20867
	je	.L356	#,
	.loc 1 1748 0 is_stmt 1
	movl	-260(%rbp), %eax	# i, tmp546
	movl	%eax, %esi	# tmp546,
	movl	$.LC16, %edi	#,
	movl	$0, %eax	#,
	call	error	#
.L356:
	.loc 1 1749 0
	movzbl	-232(%rbp), %eax	# allows_mem, allows_mem.246
	xorl	$1, %eax	#, D.20860
	testb	%al, %al	# D.20860
	je	.L357	#,
	.loc 1 1749 0 is_stmt 0 discriminator 1
	movl	-260(%rbp), %eax	# i, tmp547
	cltq
	leaq	0(,%rax,8), %rdx	#, D.20858
	movq	-208(%rbp), %rax	# output_rtx, tmp548
	addq	%rdx, %rax	# D.20858, D.20869
	movq	(%rax), %rax	# *_195, D.20866
	movzwl	(%rax), %eax	# _196->code, D.20867
	cmpw	$66, %ax	#, D.20867
	je	.L358	#,
.L357:
	.loc 1 1750 0 is_stmt 1
	movl	-260(%rbp), %eax	# i, tmp549
	cltq
	leaq	0(,%rax,8), %rdx	#, D.20858
	movq	-208(%rbp), %rax	# output_rtx, tmp550
	addq	%rdx, %rax	# D.20858, D.20869
	movq	(%rax), %rax	# *_200, D.20866
	movzwl	(%rax), %eax	# _201->code, D.20867
	cmpw	$65, %ax	#, D.20867
	jne	.L359	#,
.L358:
	.loc 1 1752 0
	movl	-260(%rbp), %eax	# i, tmp551
	cltq
	leaq	0(,%rax,8), %rdx	#, D.20858
	movq	-192(%rbp), %rax	# real_output_rtx, tmp552
	leaq	(%rdx,%rax), %rbx	#, D.20869
	movl	-260(%rbp), %eax	# i, tmp553
	cltq
	leaq	0(,%rax,8), %rdx	#, D.20858
	movq	-208(%rbp), %rax	# output_rtx, tmp554
	addq	%rdx, %rax	# D.20858, D.20869
	movq	(%rax), %rax	# *_208, D.20866
	movl	$1, %esi	#,
	movq	%rax, %rdi	# D.20866,
	call	protect_from_queue	#
	movq	%rax, (%rbx)	# D.20866, *_205
	.loc 1 1753 0
	movl	-260(%rbp), %eax	# i, tmp555
	cltq
	leaq	0(,%rax,8), %rdx	#, D.20858
	movq	-208(%rbp), %rax	# output_rtx, tmp556
	leaq	(%rdx,%rax), %rbx	#, D.20869
	movl	-260(%rbp), %eax	# i, tmp557
	cltq
	leaq	0(,%rax,8), %rdx	#, D.20858
	movq	-208(%rbp), %rax	# output_rtx, tmp558
	addq	%rdx, %rax	# D.20858, D.20869
	movq	(%rax), %rax	# *_216, D.20866
	movzbl	2(%rax), %eax	# _217->mode, D.20864
	movzbl	%al, %eax	# D.20864, D.20870
	movl	%eax, %edi	# D.20870,
	call	gen_reg_rtx	#
	movq	%rax, (%rbx)	# D.20866, *_213
	.loc 1 1754 0
	movzbl	-270(%rbp), %eax	# is_inout, is_inout.247
	testb	%al, %al	# is_inout.247
	je	.L359	#,
	.loc 1 1755 0
	movl	-260(%rbp), %eax	# i, tmp559
	cltq
	leaq	0(,%rax,8), %rdx	#, D.20858
	movq	-192(%rbp), %rax	# real_output_rtx, tmp560
	addq	%rdx, %rax	# D.20858, D.20869
	movq	(%rax), %rdx	# *_224, D.20866
	movl	-260(%rbp), %eax	# i, tmp561
	cltq
	leaq	0(,%rax,8), %rcx	#, D.20858
	movq	-208(%rbp), %rax	# output_rtx, tmp562
	addq	%rcx, %rax	# D.20858, D.20869
	movq	(%rax), %rax	# *_228, D.20866
	movq	%rdx, %rsi	# D.20866,
	movq	%rax, %rdi	# D.20866,
	call	emit_move_insn	#
	.loc 1 1749 0
	jmp	.L360	#
.L359:
	jmp	.L360	#
.L355:
	.loc 1 1760 0
	movl	-260(%rbp), %eax	# i, tmp563
	cltq
	leaq	0(,%rax,8), %rdx	#, D.20858
	movq	-208(%rbp), %rax	# output_rtx, tmp564
	leaq	(%rdx,%rax), %rbx	#, D.20869
	movq	-136(%rbp), %rax	# type, tmp565
	movl	$1, %ecx	#,
	movl	$0, %edx	#,
	movl	$0, %esi	#,
	movq	%rax, %rdi	# tmp565,
	call	assign_temp	#
	movq	%rax, (%rbx)	# D.20866, *_173
	.loc 1 1761 0
	movl	-260(%rbp), %eax	# i, tmp566
	cltq
	leaq	0(,%rax,8), %rdx	#, D.20858
	movq	-208(%rbp), %rax	# output_rtx, tmp567
	addq	%rdx, %rax	# D.20858, D.20869
	movq	(%rax), %rdx	# *_177, D.20866
	movq	-136(%rbp), %rax	# type, tmp568
	movq	%rdx, %rsi	# D.20866,
	movq	%rax, %rdi	# tmp568,
	call	make_tree	#
	movq	-224(%rbp), %rdx	# tail, tmp569
	movq	%rax, 32(%rdx)	# D.20861, tail_11->list.value
.L360:
	.loc 1 1764 0
	movl	-244(%rbp), %eax	# old_generating_concat_p, tmp570
	movl	%eax, generating_concat_p(%rip)	# tmp570, generating_concat_p
	.loc 1 1766 0
	movzbl	-270(%rbp), %eax	# is_inout, is_inout.248
	testb	%al, %al	# is_inout.248
	je	.L361	#,
	.loc 1 1768 0
	movl	-268(%rbp), %eax	# ninout, tmp571
	cltq
	leaq	0(,%rax,4), %rdx	#, D.20858
	movq	-184(%rbp), %rax	# inout_mode, tmp572
	addq	%rax, %rdx	# tmp572, D.20871
	movq	-136(%rbp), %rax	# type, tmp573
	movzbl	61(%rax), %eax	# *type_139, tmp576
	shrb	%al	# D.20868
	movzbl	%al, %eax	# D.20868, D.20870
	movl	%eax, (%rdx)	# D.20870, *_233
	.loc 1 1769 0
	movl	-268(%rbp), %eax	# ninout, ninout.249
	leal	1(%rax), %edx	#, tmp577
	movl	%edx, -268(%rbp)	# tmp577, ninout
	cltq
	leaq	0(,%rax,4), %rdx	#, D.20858
	movq	-200(%rbp), %rax	# inout_opnum, tmp578
	addq	%rax, %rdx	# tmp578, D.20872
	movl	-260(%rbp), %eax	# i, tmp579
	movl	%eax, (%rdx)	# tmp579, *_240
.L361:
.LBE48:
	.loc 1 1715 0
	movq	-224(%rbp), %rax	# tail, tmp580
	movq	(%rax), %rax	# tail_11->common.chain, tmp581
	movq	%rax, -224(%rbp)	# tmp581, tail
	addl	$1, -260(%rbp)	#, i
.L343:
	.loc 1 1715 0 is_stmt 0 discriminator 1
	cmpq	$0, -224(%rbp)	#, tail
	jne	.L362	#,
	.loc 1 1776 0 is_stmt 1
	movl	-252(%rbp), %eax	# ninputs, tmp582
	movl	%eax, %edi	# tmp582,
	call	rtvec_alloc	#
	movq	%rax, -128(%rbp)	# tmp583, argvec
	.loc 1 1777 0
	movl	-252(%rbp), %eax	# ninputs, tmp584
	movl	%eax, %edi	# tmp584,
	call	rtvec_alloc	#
	movq	%rax, -120(%rbp)	# tmp585, constraintvec
	.loc 1 1779 0
	movq	-280(%rbp), %rax	# string, tmp586
	movq	40(%rax), %rdx	# string_65->string.pointer, D.20873
	cmpl	$0, -248(%rbp)	#, noutputs
	je	.L363	#,
	.loc 1 1779 0 is_stmt 0 discriminator 1
	movq	-208(%rbp), %rax	# output_rtx, tmp587
	movq	(%rax), %rax	# *output_rtx_43, D.20866
	movzbl	2(%rax), %eax	# _246->mode, D.20864
	movzbl	%al, %eax	# D.20864, iftmp.250
	jmp	.L364	#
.L363:
	.loc 1 1779 0 discriminator 2
	movl	$0, %eax	#, iftmp.250
.L364:
	.loc 1 1779 0 discriminator 3
	movq	-128(%rbp), %rsi	# argvec, tmp588
	movl	16(%rbp), %ecx	# line, tmp589
	movl	%ecx, 16(%rsp)	# tmp589,
	movq	-320(%rbp), %rcx	# filename, tmp590
	movq	%rcx, 8(%rsp)	# tmp590,
	movq	-120(%rbp), %rcx	# constraintvec, tmp591
	movq	%rcx, (%rsp)	# tmp591,
	movq	%rsi, %r9	# tmp588,
	movl	$0, %r8d	#,
	movl	$empty_string, %ecx	#,
	movl	%eax, %esi	# iftmp.250,
	movl	$41, %edi	#,
	call	gen_rtx_fmt_ssiEEsi	#
	movq	%rax, -112(%rbp)	# tmp592, body
	.loc 1 1785 0 is_stmt 1 discriminator 3
	movl	-308(%rbp), %eax	# vol, tmp593
	andl	$1, %eax	#, D.20874
	movl	%eax, %edx	# D.20874, D.20874
	movq	-112(%rbp), %rax	# body, tmp594
	andl	$1, %edx	#, tmp596
	leal	0(,%rdx,8), %ecx	#, tmp597
	movzbl	3(%rax), %edx	# body_252->volatil, tmp598
	andl	$-9, %edx	#, tmp599
	orl	%ecx, %edx	# tmp597, tmp600
	movb	%dl, 3(%rax)	# tmp600, body_252->volatil
	.loc 1 1790 0 discriminator 3
	movl	$0, -260(%rbp)	#, i
	movq	-296(%rbp), %rax	# inputs, tmp601
	movq	%rax, -224(%rbp)	# tmp601, tail
	jmp	.L365	#
.L378:
.LBB49:
	.loc 1 1797 0
	movl	-248(%rbp), %eax	# noutputs, tmp602
	movl	-260(%rbp), %edx	# i, tmp603
	addl	%edx, %eax	# tmp603, D.20859
	cltq
	leaq	0(,%rax,8), %rdx	#, D.20858
	movq	-176(%rbp), %rax	# constraints, tmp604
	addq	%rdx, %rax	# D.20858, D.20863
	movq	(%rax), %rax	# *_260, constraint.251
	movq	%rax, -232(%rbp)	# constraint.251, constraint
	.loc 1 1798 0
	movq	-176(%rbp), %r9	# constraints, tmp605
	movl	-268(%rbp), %r8d	# ninout, tmp606
	movl	-248(%rbp), %ecx	# noutputs, tmp607
	movl	-252(%rbp), %edx	# ninputs, tmp608
	movl	-260(%rbp), %esi	# i, tmp609
	leaq	-232(%rbp), %rax	#, tmp610
	leaq	-270(%rbp), %rdi	#, tmp611
	movq	%rdi, 8(%rsp)	# tmp611,
	leaq	-269(%rbp), %rdi	#, tmp612
	movq	%rdi, (%rsp)	# tmp612,
	movq	%rax, %rdi	# tmp610,
	call	parse_input_constraint	#
	xorl	$1, %eax	#, D.20860
	testb	%al, %al	# D.20860
	je	.L366	#,
	.loc 1 1800 0
	movl	$__FUNCTION__.14197, %edx	#,
	movl	$1800, %esi	#,
	movl	$.LC0, %edi	#,
	call	fancy_abort	#
.L366:
	.loc 1 1802 0
	movl	$0, generating_concat_p(%rip)	#, generating_concat_p
	.loc 1 1804 0
	movq	-224(%rbp), %rax	# tail, tmp613
	movq	32(%rax), %rax	# tail_12->list.value, tmp614
	movq	%rax, -104(%rbp)	# tmp614, val
	.loc 1 1805 0
	movq	-104(%rbp), %rax	# val, tmp615
	movq	8(%rax), %rax	# val_264->common.type, tmp616
	movq	%rax, -96(%rbp)	# tmp616, type
	.loc 1 1806 0
	movq	-104(%rbp), %rax	# val, tmp617
	movl	$0, %ecx	#,
	movl	$0, %edx	#,
	movl	$0, %esi	#,
	movq	%rax, %rdi	# tmp617,
	call	expand_expr	#
	movq	%rax, -216(%rbp)	# tmp618, op
	.loc 1 1809 0
	movq	-216(%rbp), %rax	# op, tmp619
	movzwl	(%rax), %eax	# op_266->code, D.20867
	cmpw	$65, %ax	#, D.20867
	jne	.L367	#,
	.loc 1 1810 0
	movq	-216(%rbp), %rax	# op, tmp620
	movzbl	2(%rax), %eax	# op_266->mode, D.20864
	movzbl	%al, %eax	# D.20864, D.20870
	movq	-216(%rbp), %rdx	# op, tmp621
	movq	%rdx, %rsi	# tmp621,
	movl	%eax, %edi	# D.20870,
	call	force_reg	#
	movq	%rax, -216(%rbp)	# tmp622, op
.L367:
	.loc 1 1812 0
	movq	-232(%rbp), %rdx	# constraint, constraint.252
	movq	-216(%rbp), %rax	# op, tmp623
	movq	%rdx, %rsi	# constraint.252,
	movq	%rax, %rdi	# tmp623,
	call	asm_operand_ok	#
	testl	%eax, %eax	# D.20859
	jg	.L368	#,
	.loc 1 1814 0
	movzbl	-270(%rbp), %eax	# allows_reg, allows_reg.253
	testb	%al, %al	# allows_reg.253
	je	.L369	#,
	.loc 1 1815 0
	movq	-96(%rbp), %rax	# type, tmp624
	movzbl	61(%rax), %eax	# *type_265, tmp627
	shrb	%al	# D.20868
	movzbl	%al, %eax	# D.20868, D.20870
	movq	-216(%rbp), %rdx	# op, tmp628
	movq	%rdx, %rsi	# tmp628,
	movl	%eax, %edi	# D.20870,
	call	force_reg	#
	movq	%rax, -216(%rbp)	# tmp629, op
	jmp	.L368	#
.L369:
	.loc 1 1816 0
	movzbl	-269(%rbp), %eax	# allows_mem, allows_mem.254
	xorl	$1, %eax	#, D.20860
	testb	%al, %al	# D.20860
	je	.L370	#,
	.loc 1 1817 0
	movl	-248(%rbp), %eax	# noutputs, tmp630
	movl	-260(%rbp), %edx	# i, tmp631
	addl	%edx, %eax	# tmp631, D.20859
	movl	%eax, %esi	# D.20859,
	movl	$.LC17, %edi	#,
	movl	$0, %eax	#,
	call	warning	#
	jmp	.L368	#
.L370:
	.loc 1 1819 0
	movq	-216(%rbp), %rax	# op, tmp632
	movzwl	(%rax), %eax	# op_27->code, D.20867
	cmpw	$67, %ax	#, D.20867
	je	.L371	#,
	.loc 1 1819 0 is_stmt 0 discriminator 1
	movq	-216(%rbp), %rax	# op, tmp633
	movzwl	(%rax), %eax	# op_27->code, D.20867
	cmpw	$68, %ax	#, D.20867
	je	.L371	#,
	movq	-216(%rbp), %rax	# op, tmp634
	movzwl	(%rax), %eax	# op_27->code, D.20867
	cmpw	$54, %ax	#, D.20867
	je	.L371	#,
	movq	-216(%rbp), %rax	# op, tmp635
	movzwl	(%rax), %eax	# op_27->code, D.20867
	cmpw	$55, %ax	#, D.20867
	je	.L371	#,
	movq	-216(%rbp), %rax	# op, tmp636
	movzwl	(%rax), %eax	# op_27->code, D.20867
	cmpw	$58, %ax	#, D.20867
	je	.L371	#,
	movq	-216(%rbp), %rax	# op, tmp637
	movzwl	(%rax), %eax	# op_27->code, D.20867
	cmpw	$134, %ax	#, D.20867
	je	.L371	#,
	movq	-216(%rbp), %rax	# op, tmp638
	movzwl	(%rax), %eax	# op_27->code, D.20867
	cmpw	$56, %ax	#, D.20867
	je	.L371	#,
	movq	-216(%rbp), %rax	# op, tmp639
	movzwl	(%rax), %eax	# op_27->code, D.20867
	cmpw	$140, %ax	#, D.20867
	jne	.L372	#,
.L371:
	.loc 1 1820 0 is_stmt 1
	movq	-96(%rbp), %rax	# type, tmp640
	movzbl	61(%rax), %eax	# *type_265, tmp643
	shrb	%al	# D.20868
	movzbl	%al, %eax	# D.20868, D.20870
	movq	-216(%rbp), %rdx	# op, tmp644
	movq	%rdx, %rsi	# tmp644,
	movl	%eax, %edi	# D.20870,
	call	force_const_mem	#
	movq	%rax, -216(%rbp)	# tmp645, op
	jmp	.L368	#
.L372:
	.loc 1 1821 0
	movq	-216(%rbp), %rax	# op, tmp646
	movzwl	(%rax), %eax	# op_27->code, D.20867
	cmpw	$61, %ax	#, D.20867
	je	.L373	#,
	.loc 1 1822 0
	movq	-216(%rbp), %rax	# op, tmp647
	movzwl	(%rax), %eax	# op_27->code, D.20867
	cmpw	$63, %ax	#, D.20867
	je	.L373	#,
	.loc 1 1823 0
	movq	-216(%rbp), %rax	# op, tmp648
	movzwl	(%rax), %eax	# op_27->code, D.20867
	cmpw	$70, %ax	#, D.20867
	je	.L373	#,
	.loc 1 1824 0
	movq	-216(%rbp), %rax	# op, tmp649
	movzwl	(%rax), %eax	# op_27->code, D.20867
	cmpw	$65, %ax	#, D.20867
	jne	.L374	#,
.L373:
.LBB50:
	.loc 1 1827 0
	movq	-96(%rbp), %rax	# type, tmp650
	movzbl	17(%rax), %eax	# *type_265, tmp653
	shrb	$4, %al	#, D.20874
	andl	$1, %eax	#, D.20874
	movzbl	%al, %edx	# D.20874, D.20859
	movq	-96(%rbp), %rax	# type, tmp654
	movzbl	17(%rax), %eax	# *type_265, tmp657
	shrb	$3, %al	#, D.20874
	andl	$1, %eax	#, D.20874
	movzbl	%al, %eax	# D.20874, D.20859
	addl	%eax, %eax	# D.20859
	orl	%eax, %edx	# D.20859, D.20859
	movq	-96(%rbp), %rax	# type, tmp658
	movzbl	62(%rax), %eax	# *type_265, tmp661
	shrb	$5, %al	#, D.20874
	andl	$1, %eax	#, D.20874
	movzbl	%al, %eax	# D.20874, D.20859
	sall	$2, %eax	#, D.20859
	orl	%eax, %edx	# D.20859, D.20859
	movq	-96(%rbp), %rax	# type, tmp662
	movzbl	16(%rax), %eax	# type_265->common.code, D.20864
	cmpb	$20, %al	#, D.20864
	jne	.L375	#,
	.loc 1 1827 0 is_stmt 0 discriminator 1
	movq	-96(%rbp), %rax	# type, tmp663
	movq	8(%rax), %rax	# type_265->common.type, D.20861
	testq	%rax, %rax	# D.20861
	je	.L375	#,
	.loc 1 1827 0 discriminator 3
	movl	$1, %eax	#, iftmp.255
	jmp	.L376	#
.L375:
	.loc 1 1827 0 discriminator 2
	movl	$0, %eax	#, iftmp.255
.L376:
	.loc 1 1827 0 discriminator 4
	sall	$3, %eax	#, D.20859
	orl	%edx, %eax	# D.20859, D.20859
	.loc 1 1826 0 is_stmt 1 discriminator 4
	orl	$1, %eax	#, D.20859
	movl	%eax, %edx	# D.20859, D.20859
	movq	-96(%rbp), %rax	# type, tmp664
	movl	%edx, %esi	# D.20859,
	movq	%rax, %rdi	# tmp664,
	call	build_qualified_type	#
	movq	%rax, -88(%rbp)	# tmp665, qual_type
	.loc 1 1829 0 discriminator 4
	movq	-88(%rbp), %rax	# qual_type, tmp666
	movl	$1, %ecx	#,
	movl	$1, %edx	#,
	movl	$1, %esi	#,
	movq	%rax, %rdi	# tmp666,
	call	assign_temp	#
	movq	%rax, -80(%rbp)	# tmp667, memloc
	.loc 1 1831 0 discriminator 4
	movq	-216(%rbp), %rdx	# op, tmp668
	movq	-80(%rbp), %rax	# memloc, tmp669
	movq	%rdx, %rsi	# tmp668,
	movq	%rax, %rdi	# tmp669,
	call	emit_move_insn	#
	.loc 1 1832 0 discriminator 4
	movq	-80(%rbp), %rax	# memloc, tmp670
	movq	%rax, -216(%rbp)	# tmp670, op
.LBE50:
	.loc 1 1825 0 discriminator 4
	jmp	.L368	#
.L374:
	.loc 1 1835 0
	movq	-216(%rbp), %rax	# op, tmp671
	movzwl	(%rax), %eax	# op_27->code, D.20867
	cmpw	$66, %ax	#, D.20867
	jne	.L377	#,
	.loc 1 1835 0 is_stmt 0 discriminator 1
	movq	-216(%rbp), %rax	# op, tmp672
	movzbl	3(%rax), %eax	# *op_27, D.20864
	andl	$8, %eax	#, D.20864
	testb	%al, %al	# D.20864
	je	.L377	#,
	jmp	.L368	#
.L377:
	.loc 1 1840 0 is_stmt 1
	movq	-216(%rbp), %rax	# op, tmp673
	movq	%rax, %rdi	# tmp673,
	call	queued_subexp_p	#
	testl	%eax, %eax	# D.20859
	jne	.L368	#,
	.loc 1 1846 0
	movl	-248(%rbp), %eax	# noutputs, tmp674
	movl	-260(%rbp), %edx	# i, tmp675
	addl	%edx, %eax	# tmp675, D.20859
	movl	%eax, %esi	# D.20859,
	movl	$.LC17, %edi	#,
	movl	$0, %eax	#,
	call	warning	#
.L368:
	.loc 1 1850 0
	movl	-244(%rbp), %eax	# old_generating_concat_p, tmp676
	movl	%eax, generating_concat_p(%rip)	# tmp676, generating_concat_p
	.loc 1 1851 0
	movq	-112(%rbp), %rax	# body, tmp677
	movq	32(%rax), %rax	# body_252->fld[3].rtvec, D.20875
	movl	-260(%rbp), %edx	# i, tmp679
	movslq	%edx, %rdx	# tmp679, tmp678
	movq	-216(%rbp), %rcx	# op, tmp680
	movq	%rcx, 8(%rax,%rdx,8)	# tmp680, _320->elem
	.loc 1 1853 0
	movq	-112(%rbp), %rax	# body, tmp681
	movq	40(%rax), %rbx	# body_252->fld[4].rtvec, D.20875
	.loc 1 1854 0
	movl	-248(%rbp), %eax	# noutputs, tmp682
	movl	-260(%rbp), %edx	# i, tmp683
	addl	%edx, %eax	# tmp683, D.20859
	cltq
	leaq	0(,%rax,8), %rdx	#, D.20858
	movq	-176(%rbp), %rax	# constraints, tmp684
	addq	%rdx, %rax	# D.20858, D.20863
	movq	(%rax), %rdx	# *_325, D.20873
	movq	-96(%rbp), %rax	# type, tmp685
	movzbl	61(%rax), %eax	# *type_265, tmp688
	shrb	%al	# D.20868
	movzbl	%al, %eax	# D.20868, D.20870
	movl	%eax, %esi	# D.20870,
	movl	$40, %edi	#,
	call	gen_rtx_fmt_s	#
	movl	-260(%rbp), %edx	# i, tmp690
	movslq	%edx, %rdx	# tmp690, tmp689
	movq	%rax, 8(%rbx,%rdx,8)	# D.20866, _321->elem
.LBE49:
	.loc 1 1790 0
	movq	-224(%rbp), %rax	# tail, tmp691
	movq	(%rax), %rax	# tail_12->common.chain, tmp692
	movq	%rax, -224(%rbp)	# tmp692, tail
	addl	$1, -260(%rbp)	#, i
.L365:
	.loc 1 1790 0 is_stmt 0 discriminator 1
	cmpq	$0, -224(%rbp)	#, tail
	jne	.L378	#,
	.loc 1 1860 0 is_stmt 1
	movl	$0, generating_concat_p(%rip)	#, generating_concat_p
	.loc 1 1862 0
	movl	$0, -260(%rbp)	#, i
	jmp	.L379	#
.L380:
	.loc 1 1863 0 discriminator 2
	movq	-112(%rbp), %rax	# body, tmp693
	movq	32(%rax), %rbx	# body_252->fld[3].rtvec, D.20875
	.loc 1 1864 0 discriminator 2
	movq	-112(%rbp), %rax	# body, tmp694
	movq	32(%rax), %rax	# body_252->fld[3].rtvec, D.20875
	movl	-260(%rbp), %edx	# i, tmp696
	movslq	%edx, %rdx	# tmp696, tmp695
	movq	8(%rax,%rdx,8), %rax	# _335->elem, D.20866
	movl	$0, %esi	#,
	movq	%rax, %rdi	# D.20866,
	call	protect_from_queue	#
	movl	-260(%rbp), %edx	# i, tmp698
	movslq	%edx, %rdx	# tmp698, tmp697
	movq	%rax, 8(%rbx,%rdx,8)	# D.20866, _334->elem
	.loc 1 1862 0 discriminator 2
	addl	$1, -260(%rbp)	#, i
.L379:
	.loc 1 1862 0 is_stmt 0 discriminator 1
	movl	-268(%rbp), %eax	# ninout, tmp699
	movl	-252(%rbp), %edx	# ninputs, tmp700
	subl	%eax, %edx	# tmp699, D.20859
	movl	%edx, %eax	# D.20859, D.20859
	cmpl	-260(%rbp), %eax	# i, D.20859
	jg	.L380	#,
	.loc 1 1866 0 is_stmt 1
	movl	$0, -260(%rbp)	#, i
	jmp	.L381	#
.L382:
	.loc 1 1867 0 discriminator 2
	movl	-260(%rbp), %eax	# i, tmp701
	cltq
	leaq	0(,%rax,8), %rdx	#, D.20858
	movq	-208(%rbp), %rax	# output_rtx, tmp702
	leaq	(%rdx,%rax), %rbx	#, D.20869
	movl	-260(%rbp), %eax	# i, tmp703
	cltq
	leaq	0(,%rax,8), %rdx	#, D.20858
	movq	-208(%rbp), %rax	# output_rtx, tmp704
	addq	%rdx, %rax	# D.20858, D.20869
	movq	(%rax), %rax	# *_345, D.20866
	movl	$1, %esi	#,
	movq	%rax, %rdi	# D.20866,
	call	protect_from_queue	#
	movq	%rax, (%rbx)	# D.20866, *_342
	.loc 1 1866 0 discriminator 2
	addl	$1, -260(%rbp)	#, i
.L381:
	.loc 1 1866 0 is_stmt 0 discriminator 1
	movl	-260(%rbp), %eax	# i, tmp705
	cmpl	-248(%rbp), %eax	# noutputs, tmp705
	jl	.L382	#,
	.loc 1 1870 0 is_stmt 1
	movl	$0, -260(%rbp)	#, i
	jmp	.L383	#
.L384:
.LBB51:
	.loc 1 1872 0 discriminator 2
	movl	-260(%rbp), %eax	# i, tmp706
	cltq
	leaq	0(,%rax,4), %rdx	#, D.20858
	movq	-200(%rbp), %rax	# inout_opnum, tmp707
	addq	%rdx, %rax	# D.20858, D.20872
	movl	(%rax), %eax	# *_352, tmp708
	movl	%eax, -240(%rbp)	# tmp708, j
	.loc 1 1875 0 discriminator 2
	movq	-112(%rbp), %rax	# body, tmp709
	movq	32(%rax), %rax	# body_252->fld[3].rtvec, D.20875
	movl	-268(%rbp), %edx	# ninout, tmp710
	movl	-252(%rbp), %ecx	# ninputs, tmp711
	subl	%edx, %ecx	# tmp710, D.20859
	movl	-260(%rbp), %edx	# i, tmp712
	leal	(%rcx,%rdx), %esi	#, D.20859
	.loc 1 1876 0 discriminator 2
	movl	-240(%rbp), %edx	# j, tmp713
	movslq	%edx, %rdx	# tmp713, D.20858
	leaq	0(,%rdx,8), %rcx	#, D.20858
	movq	-208(%rbp), %rdx	# output_rtx, tmp714
	addq	%rcx, %rdx	# D.20858, D.20869
	movq	(%rdx), %rcx	# *_359, D.20866
	movslq	%esi, %rdx	# D.20859, tmp715
	movq	%rcx, 8(%rax,%rdx,8)	# D.20866, _354->elem
	.loc 1 1878 0 discriminator 2
	movl	-240(%rbp), %edx	# j, tmp716
	leaq	-48(%rbp), %rax	#, tmp717
	movl	$.LC18, %esi	#,
	movq	%rax, %rdi	# tmp717,
	movl	$0, %eax	#,
	call	sprintf	#
	.loc 1 1879 0 discriminator 2
	movq	-112(%rbp), %rax	# body, tmp718
	movq	40(%rax), %rbx	# body_252->fld[4].rtvec, D.20875
	movl	-268(%rbp), %eax	# ninout, tmp719
	movl	-252(%rbp), %edx	# ninputs, tmp720
	subl	%eax, %edx	# tmp719, D.20859
	movl	-260(%rbp), %eax	# i, tmp721
	leal	(%rdx,%rax), %r12d	#, D.20859
	.loc 1 1880 0 discriminator 2
	leaq	-48(%rbp), %rax	#, tmp722
	movl	$-1, %esi	#,
	movq	%rax, %rdi	# tmp722,
	call	ggc_alloc_string	#
	movq	%rax, %rdx	#, D.20873
	movl	-260(%rbp), %eax	# i, tmp723
	cltq
	leaq	0(,%rax,4), %rcx	#, D.20858
	movq	-184(%rbp), %rax	# inout_mode, tmp724
	addq	%rcx, %rax	# D.20858, D.20871
	movl	(%rax), %eax	# *_367, D.20870
	movl	%eax, %esi	# D.20870,
	movl	$40, %edi	#,
	call	gen_rtx_fmt_s	#
	movslq	%r12d, %rdx	# D.20859, tmp725
	movq	%rax, 8(%rbx,%rdx,8)	# D.20866, _361->elem
.LBE51:
	.loc 1 1870 0 discriminator 2
	addl	$1, -260(%rbp)	#, i
.L383:
	.loc 1 1870 0 is_stmt 0 discriminator 1
	movl	-260(%rbp), %eax	# i, tmp726
	cmpl	-268(%rbp), %eax	# ninout, tmp726
	jl	.L384	#,
	.loc 1 1883 0 is_stmt 1
	movl	-244(%rbp), %eax	# old_generating_concat_p, tmp727
	movl	%eax, generating_concat_p(%rip)	# tmp727, generating_concat_p
	.loc 1 1890 0
	cmpl	$1, -248(%rbp)	#, noutputs
	jne	.L385	#,
	.loc 1 1890 0 is_stmt 0 discriminator 1
	cmpl	$0, -264(%rbp)	#, nclobbers
	jne	.L385	#,
	.loc 1 1892 0 is_stmt 1
	movq	-176(%rbp), %rax	# constraints, tmp728
	movq	(%rax), %rdx	# *constraints_56, D.20873
	movq	-112(%rbp), %rax	# body, tmp729
	movq	%rdx, 16(%rax)	# D.20873, body_252->fld[1].rtstr
	.loc 1 1893 0
	movq	-208(%rbp), %rax	# output_rtx, tmp730
	movq	(%rax), %rax	# *output_rtx_43, D.20866
	movq	-112(%rbp), %rdx	# body, tmp731
	movq	%rdx, %rcx	# tmp731,
	movq	%rax, %rdx	# D.20866,
	movl	$0, %esi	#,
	movl	$47, %edi	#,
	call	gen_rtx_fmt_ee	#
	movq	%rax, %rdi	# D.20866,
	call	emit_insn	#
	movq	%rax, -72(%rbp)	# tmp732, insn
	jmp	.L386	#
.L385:
	.loc 1 1896 0
	cmpl	$0, -248(%rbp)	#, noutputs
	jne	.L387	#,
	.loc 1 1896 0 is_stmt 0 discriminator 1
	cmpl	$0, -264(%rbp)	#, nclobbers
	jne	.L387	#,
	.loc 1 1899 0 is_stmt 1
	movq	-112(%rbp), %rax	# body, tmp733
	movq	%rax, %rdi	# tmp733,
	call	emit_insn	#
	movq	%rax, -72(%rbp)	# tmp734, insn
	jmp	.L386	#
.L387:
.LBB52:
	.loc 1 1904 0
	movq	-112(%rbp), %rax	# body, tmp735
	movq	%rax, -64(%rbp)	# tmp735, obody
	.loc 1 1905 0
	movl	-248(%rbp), %eax	# noutputs, tmp736
	movl	%eax, -256(%rbp)	# tmp736, num
	.loc 1 1907 0
	cmpl	$0, -256(%rbp)	#, num
	jne	.L388	#,
	.loc 1 1908 0
	movl	$1, -256(%rbp)	#, num
.L388:
	.loc 1 1910 0
	movl	-264(%rbp), %eax	# nclobbers, tmp737
	movl	-256(%rbp), %edx	# num, tmp738
	addl	%edx, %eax	# tmp738, D.20859
	movl	%eax, %edi	# D.20859,
	call	rtvec_alloc	#
	movq	%rax, %rdx	# D.20875,
	movl	$0, %esi	#,
	movl	$39, %edi	#,
	call	gen_rtx_fmt_E	#
	movq	%rax, -112(%rbp)	# tmp739, body
	.loc 1 1913 0
	movl	$0, -260(%rbp)	#, i
	movq	-288(%rbp), %rax	# outputs, tmp740
	movq	%rax, -224(%rbp)	# tmp740, tail
	jmp	.L389	#
.L390:
	.loc 1 1915 0 discriminator 2
	movq	-112(%rbp), %rax	# body, tmp741
	movq	8(%rax), %rbx	# body_381->fld[0].rtvec, D.20875
	.loc 1 1916 0 discriminator 2
	movl	-260(%rbp), %eax	# i, tmp742
	cltq
	leaq	0(,%rax,8), %rdx	#, D.20858
	movq	-176(%rbp), %rax	# constraints, tmp743
	addq	%rdx, %rax	# D.20858, D.20863
	movq	(%rax), %rcx	# *_387, D.20873
	movq	-280(%rbp), %rax	# string, tmp744
	movq	40(%rax), %rdx	# string_65->string.pointer, D.20873
	movl	-260(%rbp), %eax	# i, tmp745
	cltq
	leaq	0(,%rax,8), %rsi	#, D.20858
	movq	-208(%rbp), %rax	# output_rtx, tmp746
	addq	%rsi, %rax	# D.20858, D.20869
	movq	(%rax), %rax	# *_392, D.20866
	movzbl	2(%rax), %eax	# _393->mode, D.20864
	movzbl	%al, %eax	# D.20864, D.20870
	movq	-128(%rbp), %r8	# argvec, tmp747
	movl	-260(%rbp), %edi	# i, tmp748
	movl	16(%rbp), %esi	# line, tmp749
	movl	%esi, 16(%rsp)	# tmp749,
	movq	-320(%rbp), %rsi	# filename, tmp750
	movq	%rsi, 8(%rsp)	# tmp750,
	movq	-120(%rbp), %rsi	# constraintvec, tmp751
	movq	%rsi, (%rsp)	# tmp751,
	movq	%r8, %r9	# tmp747,
	movl	%edi, %r8d	# tmp748,
	movl	%eax, %esi	# D.20870,
	movl	$41, %edi	#,
	call	gen_rtx_fmt_ssiEEsi	#
	movq	%rax, %rdx	#, D.20866
	movl	-260(%rbp), %eax	# i, tmp752
	cltq
	leaq	0(,%rax,8), %rcx	#, D.20858
	movq	-208(%rbp), %rax	# output_rtx, tmp753
	addq	%rcx, %rax	# D.20858, D.20869
	movq	(%rax), %rax	# *_399, D.20866
	movq	%rdx, %rcx	# D.20866,
	movq	%rax, %rdx	# D.20866,
	movl	$0, %esi	#,
	movl	$47, %edi	#,
	call	gen_rtx_fmt_ee	#
	movl	-260(%rbp), %edx	# i, tmp755
	movslq	%edx, %rdx	# tmp755, tmp754
	movq	%rax, 8(%rbx,%rdx,8)	# D.20866, _384->elem
	.loc 1 1924 0 discriminator 2
	movq	-112(%rbp), %rax	# body, tmp756
	movq	8(%rax), %rax	# body_381->fld[0].rtvec, D.20875
	movl	-260(%rbp), %edx	# i, tmp758
	movslq	%edx, %rdx	# tmp758, tmp757
	movq	8(%rax,%rdx,8), %rax	# _402->elem, D.20866
	movq	16(%rax), %rax	# _403->fld[1].rtx, D.20866
	movl	-308(%rbp), %edx	# vol, tmp759
	andl	$1, %edx	#, D.20874
	andl	$1, %edx	#, tmp761
	leal	0(,%rdx,8), %ecx	#, tmp762
	movzbl	3(%rax), %edx	# _404->volatil, tmp763
	andl	$-9, %edx	#, tmp764
	orl	%ecx, %edx	# tmp762, tmp765
	movb	%dl, 3(%rax)	# tmp765, _404->volatil
	.loc 1 1913 0 discriminator 2
	movq	-224(%rbp), %rax	# tail, tmp766
	movq	(%rax), %rax	# tail_13->common.chain, tmp767
	movq	%rax, -224(%rbp)	# tmp767, tail
	addl	$1, -260(%rbp)	#, i
.L389:
	.loc 1 1913 0 is_stmt 0 discriminator 1
	cmpq	$0, -224(%rbp)	#, tail
	jne	.L390	#,
	.loc 1 1930 0 is_stmt 1
	cmpl	$0, -260(%rbp)	#, i
	jne	.L391	#,
	.loc 1 1931 0
	movq	-112(%rbp), %rax	# body, tmp768
	movq	8(%rax), %rdx	# body_381->fld[0].rtvec, D.20875
	movl	-260(%rbp), %eax	# i, i.256
	leal	1(%rax), %ecx	#, tmp769
	movl	%ecx, -260(%rbp)	# tmp769, i
	cltq
	movq	-64(%rbp), %rcx	# obody, tmp771
	movq	%rcx, 8(%rdx,%rax,8)	# tmp771, _409->elem
.L391:
	.loc 1 1935 0
	movq	-304(%rbp), %rax	# clobbers, tmp772
	movq	%rax, -224(%rbp)	# tmp772, tail
	jmp	.L392	#
.L397:
.LBB53:
	.loc 1 1937 0
	movq	-224(%rbp), %rax	# tail, tmp773
	movq	32(%rax), %rax	# tail_14->list.value, D.20861
	movq	40(%rax), %rax	# _413->string.pointer, tmp774
	movq	%rax, -56(%rbp)	# tmp774, regname
	.loc 1 1938 0
	movq	-56(%rbp), %rax	# regname, tmp775
	movq	%rax, %rdi	# tmp775,
	call	decode_reg_name	#
	movl	%eax, -236(%rbp)	# tmp776, j
	.loc 1 1940 0
	cmpl	$0, -236(%rbp)	#, j
	jns	.L393	#,
	.loc 1 1942 0
	cmpl	$-3, -236(%rbp)	#, j
	jne	.L394	#,
	.loc 1 1943 0
	jmp	.L395	#
.L394:
	.loc 1 1945 0
	cmpl	$-4, -236(%rbp)	#, j
	jne	.L396	#,
	.loc 1 1947 0
	movq	-112(%rbp), %rax	# body, tmp777
	movq	8(%rax), %r12	# body_381->fld[0].rtvec, D.20875
	movl	-260(%rbp), %ebx	# i, i.257
	leal	1(%rbx), %eax	#, tmp778
	movl	%eax, -260(%rbp)	# tmp778, i
	.loc 1 1948 0
	movl	$0, %esi	#,
	movl	$62, %edi	#,
	call	gen_rtx_fmt_0	#
	movq	%rax, %rsi	# D.20866,
	movl	$51, %edi	#,
	call	gen_rtx_MEM	#
	movq	%rax, %rdx	# D.20866,
	movl	$0, %esi	#,
	movl	$49, %edi	#,
	call	gen_rtx_fmt_e	#
	movslq	%ebx, %rdx	# i.257, tmp779
	movq	%rax, 8(%r12,%rdx,8)	# D.20866, _416->elem
	.loc 1 1952 0
	jmp	.L395	#
.L396:
	.loc 1 1956 0
	jmp	.L395	#
.L393:
	.loc 1 1960 0
	movq	-112(%rbp), %rax	# body, tmp780
	movq	8(%rax), %r12	# body_381->fld[0].rtvec, D.20875
	movl	-260(%rbp), %ebx	# i, i.258
	leal	1(%rbx), %eax	#, tmp781
	movl	%eax, -260(%rbp)	# tmp781, i
	.loc 1 1961 0
	movl	-236(%rbp), %eax	# j, tmp782
	movl	%eax, %esi	# tmp782,
	movl	$2, %edi	#,
	call	gen_rtx_REG	#
	movq	%rax, %rdx	# D.20866,
	movl	$0, %esi	#,
	movl	$49, %edi	#,
	call	gen_rtx_fmt_e	#
	movslq	%ebx, %rdx	# i.258, tmp783
	movq	%rax, 8(%r12,%rdx,8)	# D.20866, _422->elem
.L395:
.LBE53:
	.loc 1 1935 0
	movq	-224(%rbp), %rax	# tail, tmp784
	movq	(%rax), %rax	# tail_14->common.chain, tmp785
	movq	%rax, -224(%rbp)	# tmp785, tail
.L392:
	.loc 1 1935 0 is_stmt 0 discriminator 1
	cmpq	$0, -224(%rbp)	#, tail
	jne	.L397	#,
	.loc 1 1964 0 is_stmt 1
	movq	-112(%rbp), %rax	# body, tmp786
	movq	%rax, %rdi	# tmp786,
	call	emit_insn	#
	movq	%rax, -72(%rbp)	# tmp787, insn
.L386:
.LBE52:
	.loc 1 1969 0
	movl	$0, -260(%rbp)	#, i
	jmp	.L398	#
.L400:
	.loc 1 1970 0
	movl	-260(%rbp), %eax	# i, tmp788
	cltq
	leaq	0(,%rax,8), %rdx	#, D.20858
	movq	-192(%rbp), %rax	# real_output_rtx, tmp789
	addq	%rdx, %rax	# D.20858, D.20869
	movq	(%rax), %rax	# *_432, D.20866
	testq	%rax, %rax	# D.20866
	je	.L399	#,
	.loc 1 1971 0
	movl	-260(%rbp), %eax	# i, tmp790
	cltq
	leaq	0(,%rax,8), %rdx	#, D.20858
	movq	-208(%rbp), %rax	# output_rtx, tmp791
	addq	%rdx, %rax	# D.20858, D.20869
	movq	(%rax), %rdx	# *_436, D.20866
	movl	-260(%rbp), %eax	# i, tmp792
	cltq
	leaq	0(,%rax,8), %rcx	#, D.20858
	movq	-192(%rbp), %rax	# real_output_rtx, tmp793
	addq	%rcx, %rax	# D.20858, D.20869
	movq	(%rax), %rax	# *_440, D.20866
	movq	%rdx, %rsi	# D.20866,
	movq	%rax, %rdi	# D.20866,
	call	emit_move_insn	#
.L399:
	.loc 1 1969 0
	addl	$1, -260(%rbp)	#, i
.L398:
	.loc 1 1969 0 is_stmt 0 discriminator 1
	movl	-260(%rbp), %eax	# i, tmp794
	cmpl	-248(%rbp), %eax	# noutputs, tmp794
	jl	.L400	#,
	.loc 1 1973 0 is_stmt 1
	call	free_temp_slots	#
.L314:
	.loc 1 1974 0
	movq	-24(%rbp), %rax	# D.20877, tmp806
	xorq	%fs:40, %rax	#, tmp806
	je	.L401	#,
	call	__stack_chk_fail	#
.L401:
	leaq	-16(%rbp), %rsp	#,
	popq	%rbx	#
	popq	%r12	#
	popq	%rbp	#
	.cfi_def_cfa 7, 8
	ret
	.cfi_endproc
.LFE30:
	.size	expand_asm_operands, .-expand_asm_operands
	.section	.rodata
	.align 8
.LC19:
	.string	"too many alternatives in `asm'"
	.align 8
.LC20:
	.string	"operand constraints for `asm' differ in number of alternatives"
	.text
	.type	check_operand_nalternatives, @function
check_operand_nalternatives:
.LFB31:
	.loc 1 1982 0
	.cfi_startproc
	pushq	%rbp	#
	.cfi_def_cfa_offset 16
	.cfi_offset 6, -16
	movq	%rsp, %rbp	#,
	.cfi_def_cfa_register 6
	subq	$48, %rsp	#,
	movq	%rdi, -40(%rbp)	# outputs, outputs
	movq	%rsi, -48(%rbp)	# inputs, inputs
	.loc 1 1983 0
	cmpq	$0, -40(%rbp)	#, outputs
	jne	.L403	#,
	.loc 1 1983 0 is_stmt 0 discriminator 1
	cmpq	$0, -48(%rbp)	#, inputs
	je	.L404	#,
.L403:
.LBB54:
	.loc 1 1985 0 is_stmt 1
	cmpq	$0, -40(%rbp)	#, outputs
	je	.L405	#,
	.loc 1 1985 0 is_stmt 0 discriminator 1
	movq	-40(%rbp), %rax	# outputs, iftmp.259
	jmp	.L406	#
.L405:
	.loc 1 1985 0 discriminator 2
	movq	-48(%rbp), %rax	# inputs, iftmp.259
.L406:
	.loc 1 1985 0 discriminator 3
	movq	24(%rax), %rax	# iftmp.259_3->list.purpose, tmp69
	movq	%rax, -24(%rbp)	# tmp69, tmp
	.loc 1 1987 0 is_stmt 1 discriminator 3
	movq	-24(%rbp), %rax	# tmp, tmp70
	movq	32(%rax), %rax	# tmp_9->list.value, D.20889
	movq	40(%rax), %rax	# _10->string.pointer, D.20890
	.loc 1 1986 0 discriminator 3
	movq	%rax, %rsi	# D.20890,
	movl	$44, %edi	#,
	call	n_occurrences	#
	movl	%eax, -28(%rbp)	# tmp71, nalternatives
	.loc 1 1988 0 discriminator 3
	movq	-48(%rbp), %rax	# inputs, tmp72
	movq	%rax, -16(%rbp)	# tmp72, next
	.loc 1 1990 0 discriminator 3
	movl	-28(%rbp), %eax	# nalternatives, tmp73
	addl	$1, %eax	#, D.20891
	cmpl	$30, %eax	#, D.20891
	jle	.L407	#,
	.loc 1 1992 0
	movl	$.LC19, %edi	#,
	movl	$0, %eax	#,
	call	error	#
	.loc 1 1993 0
	movl	$0, %eax	#, D.20888
	jmp	.L408	#
.L407:
	.loc 1 1996 0
	movq	-40(%rbp), %rax	# outputs, tmp74
	movq	%rax, -24(%rbp)	# tmp74, tmp
	.loc 1 1997 0
	jmp	.L409	#
.L412:
.LBB55:
	.loc 1 2000 0
	movq	-24(%rbp), %rax	# tmp, tmp75
	movq	24(%rax), %rax	# tmp_1->list.purpose, D.20889
	movq	32(%rax), %rax	# _17->list.value, D.20889
	.loc 1 1999 0
	movq	40(%rax), %rax	# _18->string.pointer, tmp76
	movq	%rax, -8(%rbp)	# tmp76, constraint
	.loc 1 2002 0
	movq	-8(%rbp), %rax	# constraint, tmp77
	movq	%rax, %rsi	# tmp77,
	movl	$44, %edi	#,
	call	n_occurrences	#
	cmpl	-28(%rbp), %eax	# nalternatives, D.20891
	je	.L410	#,
	.loc 1 2004 0
	movl	$.LC20, %edi	#,
	movl	$0, %eax	#,
	call	error	#
	.loc 1 2005 0
	movl	$0, %eax	#, D.20888
	jmp	.L408	#
.L410:
	.loc 1 2008 0
	movq	-24(%rbp), %rax	# tmp, tmp78
	movq	(%rax), %rax	# tmp_1->common.chain, D.20889
	testq	%rax, %rax	# D.20889
	je	.L411	#,
	.loc 1 2009 0
	movq	-24(%rbp), %rax	# tmp, tmp79
	movq	(%rax), %rax	# tmp_1->common.chain, tmp80
	movq	%rax, -24(%rbp)	# tmp80, tmp
	jmp	.L409	#
.L411:
	.loc 1 2011 0
	movq	-16(%rbp), %rax	# next, tmp81
	movq	%rax, -24(%rbp)	# tmp81, tmp
	movq	$0, -16(%rbp)	#, next
.L409:
.LBE55:
	.loc 1 1997 0 discriminator 1
	cmpq	$0, -24(%rbp)	#, tmp
	jne	.L412	#,
.L404:
.LBE54:
	.loc 1 2015 0
	movl	$1, %eax	#, D.20888
.L408:
	.loc 1 2016 0
	leave
	.cfi_def_cfa 7, 8
	ret
	.cfi_endproc
.LFE31:
	.size	check_operand_nalternatives, .-check_operand_nalternatives
	.section	.rodata
	.align 8
.LC21:
	.string	"duplicate asm operand name '%s'"
	.text
	.type	check_unique_operand_names, @function
check_unique_operand_names:
.LFB32:
	.loc 1 2026 0
	.cfi_startproc
	pushq	%rbp	#
	.cfi_def_cfa_offset 16
	.cfi_offset 6, -16
	movq	%rsp, %rbp	#,
	.cfi_def_cfa_register 6
	subq	$48, %rsp	#,
	movq	%rdi, -40(%rbp)	# outputs, outputs
	movq	%rsi, -48(%rbp)	# inputs, inputs
	.loc 1 2029 0
	movq	-40(%rbp), %rax	# outputs, tmp72
	movq	%rax, -32(%rbp)	# tmp72, i
	jmp	.L414	#
.L421:
.LBB56:
	.loc 1 2031 0
	movq	-32(%rbp), %rax	# i, tmp73
	movq	24(%rax), %rax	# i_1->list.purpose, D.20895
	movq	24(%rax), %rax	# _10->list.purpose, tmp74
	movq	%rax, -16(%rbp)	# tmp74, i_name
	.loc 1 2032 0
	cmpq	$0, -16(%rbp)	#, i_name
	jne	.L415	#,
	.loc 1 2033 0
	jmp	.L416	#
.L415:
	.loc 1 2035 0
	movq	-32(%rbp), %rax	# i, tmp75
	movq	(%rax), %rax	# i_1->common.chain, tmp76
	movq	%rax, -24(%rbp)	# tmp76, j
	jmp	.L417	#
.L420:
	.loc 1 2036 0
	movq	-24(%rbp), %rax	# j, tmp77
	movq	24(%rax), %rax	# j_4->list.purpose, D.20895
	movq	24(%rax), %rax	# _13->list.purpose, D.20895
	cmpq	-16(%rbp), %rax	# i_name, D.20895
	jne	.L418	#,
	.loc 1 2037 0
	jmp	.L419	#
.L418:
	.loc 1 2035 0
	movq	-24(%rbp), %rax	# j, tmp78
	movq	(%rax), %rax	# j_4->common.chain, tmp79
	movq	%rax, -24(%rbp)	# tmp79, j
.L417:
	.loc 1 2035 0 is_stmt 0 discriminator 1
	cmpq	$0, -24(%rbp)	#, j
	jne	.L420	#,
.L416:
.LBE56:
	.loc 1 2029 0 is_stmt 1
	movq	-32(%rbp), %rax	# i, tmp80
	movq	(%rax), %rax	# i_1->common.chain, tmp81
	movq	%rax, -32(%rbp)	# tmp81, i
.L414:
	.loc 1 2029 0 is_stmt 0 discriminator 1
	cmpq	$0, -32(%rbp)	#, i
	jne	.L421	#,
	.loc 1 2040 0 is_stmt 1
	movq	-48(%rbp), %rax	# inputs, tmp82
	movq	%rax, -32(%rbp)	# tmp82, i
	jmp	.L422	#
.L431:
.LBB57:
	.loc 1 2042 0
	movq	-32(%rbp), %rax	# i, tmp83
	movq	24(%rax), %rax	# i_2->list.purpose, D.20895
	movq	24(%rax), %rax	# _19->list.purpose, tmp84
	movq	%rax, -8(%rbp)	# tmp84, i_name
	.loc 1 2043 0
	cmpq	$0, -8(%rbp)	#, i_name
	jne	.L423	#,
	.loc 1 2044 0
	jmp	.L424	#
.L423:
	.loc 1 2046 0
	movq	-32(%rbp), %rax	# i, tmp85
	movq	(%rax), %rax	# i_2->common.chain, tmp86
	movq	%rax, -24(%rbp)	# tmp86, j
	jmp	.L425	#
.L427:
	.loc 1 2047 0
	movq	-24(%rbp), %rax	# j, tmp87
	movq	24(%rax), %rax	# j_5->list.purpose, D.20895
	movq	24(%rax), %rax	# _22->list.purpose, D.20895
	cmpq	-8(%rbp), %rax	# i_name, D.20895
	jne	.L426	#,
	.loc 1 2048 0
	jmp	.L419	#
.L426:
	.loc 1 2046 0
	movq	-24(%rbp), %rax	# j, tmp88
	movq	(%rax), %rax	# j_5->common.chain, tmp89
	movq	%rax, -24(%rbp)	# tmp89, j
.L425:
	.loc 1 2046 0 is_stmt 0 discriminator 1
	cmpq	$0, -24(%rbp)	#, j
	jne	.L427	#,
	.loc 1 2049 0 is_stmt 1
	movq	-40(%rbp), %rax	# outputs, tmp90
	movq	%rax, -24(%rbp)	# tmp90, j
	jmp	.L428	#
.L430:
	.loc 1 2050 0
	movq	-24(%rbp), %rax	# j, tmp91
	movq	24(%rax), %rax	# j_6->list.purpose, D.20895
	movq	24(%rax), %rax	# _26->list.purpose, D.20895
	cmpq	-8(%rbp), %rax	# i_name, D.20895
	jne	.L429	#,
	.loc 1 2051 0
	jmp	.L419	#
.L429:
	.loc 1 2049 0
	movq	-24(%rbp), %rax	# j, tmp92
	movq	(%rax), %rax	# j_6->common.chain, tmp93
	movq	%rax, -24(%rbp)	# tmp93, j
.L428:
	.loc 1 2049 0 is_stmt 0 discriminator 1
	cmpq	$0, -24(%rbp)	#, j
	jne	.L430	#,
.L424:
.LBE57:
	.loc 1 2040 0 is_stmt 1
	movq	-32(%rbp), %rax	# i, tmp94
	movq	(%rax), %rax	# i_2->common.chain, tmp95
	movq	%rax, -32(%rbp)	# tmp95, i
.L422:
	.loc 1 2040 0 is_stmt 0 discriminator 1
	cmpq	$0, -32(%rbp)	#, i
	jne	.L431	#,
	.loc 1 2054 0 is_stmt 1
	movl	$1, %eax	#, D.20894
	jmp	.L432	#
.L419:
	.loc 1 2058 0
	movq	-32(%rbp), %rax	# i, tmp96
	movq	24(%rax), %rax	# i_3->list.purpose, D.20895
	movq	24(%rax), %rax	# _31->list.purpose, D.20895
	movq	32(%rax), %rax	# _32->identifier.id.str, D.20896
	.loc 1 2057 0
	movq	%rax, %rsi	# D.20896,
	movl	$.LC21, %edi	#,
	movl	$0, %eax	#,
	call	error	#
	.loc 1 2059 0
	movl	$0, %eax	#, D.20894
.L432:
	.loc 1 2060 0
	leave
	.cfi_def_cfa 7, 8
	ret
	.cfi_endproc
.LFE32:
	.size	check_unique_operand_names, .-check_unique_operand_names
	.type	resolve_operand_names, @function
resolve_operand_names:
.LFB33:
	.loc 1 2071 0
	.cfi_startproc
	pushq	%rbp	#
	.cfi_def_cfa_offset 16
	.cfi_offset 6, -16
	movq	%rsp, %rbp	#,
	.cfi_def_cfa_register 6
	subq	$64, %rsp	#,
	movq	%rdi, -40(%rbp)	# string, string
	movq	%rsi, -48(%rbp)	# outputs, outputs
	movq	%rdx, -56(%rbp)	# inputs, inputs
	movq	%rcx, -64(%rbp)	# pconstraints, pconstraints
	.loc 1 2072 0
	movq	-40(%rbp), %rax	# string, tmp82
	movq	40(%rax), %rax	# string_8(D)->string.pointer, D.20898
	movq	%rax, %rdi	# D.20898,
	call	xstrdup	#
	movq	%rax, -16(%rbp)	# tmp83, buffer
	.loc 1 2080 0
	movq	-16(%rbp), %rax	# buffer, tmp84
	movq	%rax, -32(%rbp)	# tmp84, p
	.loc 1 2081 0
	jmp	.L434	#
.L438:
	.loc 1 2083 0
	movq	-32(%rbp), %rax	# p, tmp85
	addq	$1, %rax	#, D.20899
	movzbl	(%rax), %eax	# *_13, D.20900
	cmpb	$91, %al	#, D.20900
	jne	.L435	#,
	.loc 1 2084 0
	addq	$1, -32(%rbp)	#, p
	jmp	.L436	#
.L435:
	.loc 1 2085 0
	movq	-32(%rbp), %rax	# p, tmp86
	addq	$1, %rax	#, D.20899
	movzbl	(%rax), %eax	# *_16, D.20900
	movsbl	%al, %eax	# D.20900, D.20901
	movzbl	%al, %eax	# D.20901, D.20901
	cltq
	movzwl	_sch_istable(%rax,%rax), %eax	# _sch_istable, D.20902
	movzwl	%ax, %eax	# D.20902, D.20901
	andl	$136, %eax	#, D.20901
	testl	%eax, %eax	# D.20901
	je	.L437	#,
	.loc 1 2085 0 is_stmt 0 discriminator 1
	movq	-32(%rbp), %rax	# p, tmp88
	addq	$2, %rax	#, D.20899
	movzbl	(%rax), %eax	# *_23, D.20900
	cmpb	$91, %al	#, D.20900
	jne	.L437	#,
	.loc 1 2086 0 is_stmt 1
	addq	$2, -32(%rbp)	#, p
	jmp	.L436	#
.L437:
	.loc 1 2089 0
	addq	$1, -32(%rbp)	#, p
	.loc 1 2090 0
	jmp	.L434	#
.L436:
	.loc 1 2093 0
	movq	-56(%rbp), %rdx	# inputs, tmp89
	movq	-48(%rbp), %rcx	# outputs, tmp90
	movq	-32(%rbp), %rax	# p, tmp91
	movq	%rcx, %rsi	# tmp90,
	movq	%rax, %rdi	# tmp91,
	call	resolve_operand_name_1	#
	movq	%rax, -32(%rbp)	# tmp92, p
.L434:
	.loc 1 2081 0 discriminator 1
	movq	-32(%rbp), %rax	# p, tmp93
	movl	$37, %esi	#,
	movq	%rax, %rdi	# tmp93,
	call	strchr	#
	movq	%rax, -32(%rbp)	# tmp94, p
	cmpq	$0, -32(%rbp)	#, p
	jne	.L438	#,
	.loc 1 2096 0
	movq	-16(%rbp), %rax	# buffer, tmp95
	movq	%rax, %rdi	# tmp95,
	call	strlen	#
	movq	-16(%rbp), %rdx	# buffer, tmp96
	movq	%rdx, %rsi	# tmp96,
	movl	%eax, %edi	# D.20901,
	call	build_string	#
	movq	%rax, -40(%rbp)	# tmp97, string
	.loc 1 2097 0
	movq	-16(%rbp), %rax	# buffer, tmp98
	movq	%rax, %rdi	# tmp98,
	call	free	#
	.loc 1 2102 0
	movq	-48(%rbp), %rax	# outputs, tmp99
	movq	%rax, -24(%rbp)	# tmp99, t
	jmp	.L439	#
.L440:
	.loc 1 2103 0 discriminator 2
	movq	-24(%rbp), %rax	# t, tmp100
	movq	24(%rax), %rax	# t_6->list.purpose, D.20904
	movq	32(%rax), %rax	# _35->list.value, D.20904
	movq	40(%rax), %rdx	# _36->string.pointer, D.20898
	movq	-64(%rbp), %rax	# pconstraints, tmp101
	movq	%rdx, (%rax)	# D.20898, *pconstraints_1
	.loc 1 2102 0 discriminator 2
	movq	-24(%rbp), %rax	# t, tmp102
	movq	(%rax), %rax	# t_6->common.chain, tmp103
	movq	%rax, -24(%rbp)	# tmp103, t
	addq	$8, -64(%rbp)	#, pconstraints
.L439:
	.loc 1 2102 0 is_stmt 0 discriminator 1
	cmpq	$0, -24(%rbp)	#, t
	jne	.L440	#,
	.loc 1 2106 0 is_stmt 1
	movq	-56(%rbp), %rax	# inputs, tmp104
	movq	%rax, -24(%rbp)	# tmp104, t
	jmp	.L441	#
.L446:
.LBB58:
	.loc 1 2108 0
	movq	-24(%rbp), %rax	# t, tmp105
	movq	24(%rax), %rax	# t_7->list.purpose, D.20904
	movq	32(%rax), %rax	# _41->list.value, D.20904
	movq	40(%rax), %rax	# _42->string.pointer, tmp106
	movq	%rax, -8(%rbp)	# tmp106, c
	.loc 1 2109 0
	movq	-8(%rbp), %rax	# c, tmp107
	movl	$91, %esi	#,
	movq	%rax, %rdi	# tmp107,
	call	strchr	#
	testq	%rax, %rax	# D.20899
	jne	.L442	#,
	.loc 1 2110 0
	movq	-64(%rbp), %rax	# pconstraints, tmp108
	movq	-8(%rbp), %rdx	# c, tmp109
	movq	%rdx, (%rax)	# tmp109, *pconstraints_2
	jmp	.L443	#
.L442:
	.loc 1 2113 0
	movq	-8(%rbp), %rax	# c, tmp110
	movq	%rax, %rdi	# tmp110,
	call	xstrdup	#
	movq	%rax, -16(%rbp)	# tmp111, buffer
	movq	-16(%rbp), %rax	# buffer, tmp112
	movq	%rax, -32(%rbp)	# tmp112, p
	.loc 1 2114 0
	jmp	.L444	#
.L445:
	.loc 1 2115 0
	movq	-56(%rbp), %rdx	# inputs, tmp113
	movq	-48(%rbp), %rcx	# outputs, tmp114
	movq	-32(%rbp), %rax	# p, tmp115
	movq	%rcx, %rsi	# tmp114,
	movq	%rax, %rdi	# tmp115,
	call	resolve_operand_name_1	#
	movq	%rax, -32(%rbp)	# tmp116, p
.L444:
	.loc 1 2114 0 discriminator 1
	movq	-32(%rbp), %rax	# p, tmp117
	movl	$91, %esi	#,
	movq	%rax, %rdi	# tmp117,
	call	strchr	#
	movq	%rax, -32(%rbp)	# tmp118, p
	cmpq	$0, -32(%rbp)	#, p
	jne	.L445	#,
	.loc 1 2117 0
	movq	-16(%rbp), %rax	# buffer, tmp119
	movl	$-1, %esi	#,
	movq	%rax, %rdi	# tmp119,
	call	ggc_alloc_string	#
	movq	-64(%rbp), %rdx	# pconstraints, tmp120
	movq	%rax, (%rdx)	# D.20898, *pconstraints_2
	.loc 1 2118 0
	movq	-16(%rbp), %rax	# buffer, tmp121
	movq	%rax, %rdi	# tmp121,
	call	free	#
.L443:
.LBE58:
	.loc 1 2106 0
	movq	-24(%rbp), %rax	# t, tmp122
	movq	(%rax), %rax	# t_7->common.chain, tmp123
	movq	%rax, -24(%rbp)	# tmp123, t
	addq	$8, -64(%rbp)	#, pconstraints
.L441:
	.loc 1 2106 0 is_stmt 0 discriminator 1
	cmpq	$0, -24(%rbp)	#, t
	jne	.L446	#,
	.loc 1 2122 0 is_stmt 1
	movq	-40(%rbp), %rax	# string, D.20905
	.loc 1 2123 0
	leave
	.cfi_def_cfa 7, 8
	ret
	.cfi_endproc
.LFE33:
	.size	resolve_operand_names, .-resolve_operand_names
	.section	.rodata
	.align 8
.LC22:
	.string	"missing close brace for named operand"
.LC23:
	.string	"undefined named operand '%s'"
	.text
	.type	resolve_operand_name_1, @function
resolve_operand_name_1:
.LFB34:
	.loc 1 2134 0
	.cfi_startproc
	pushq	%rbp	#
	.cfi_def_cfa_offset 16
	.cfi_offset 6, -16
	movq	%rsp, %rbp	#,
	.cfi_def_cfa_register 6
	subq	$96, %rsp	#,
	movq	%rdi, -72(%rbp)	# p, p
	movq	%rsi, -80(%rbp)	# outputs, outputs
	movq	%rdx, -88(%rbp)	# inputs, inputs
	.loc 1 2141 0
	movq	-72(%rbp), %rax	# p, tmp80
	movl	$93, %esi	#,
	movq	%rax, %rdi	# tmp80,
	call	strchr	#
	movq	%rax, -48(%rbp)	# tmp81, q
	.loc 1 2142 0
	cmpq	$0, -48(%rbp)	#, q
	jne	.L449	#,
	.loc 1 2144 0
	movl	$.LC22, %edi	#,
	movl	$0, %eax	#,
	call	error	#
	.loc 1 2145 0
	movq	-72(%rbp), %rax	# p, tmp82
	movl	$0, %esi	#,
	movq	%rax, %rdi	# tmp82,
	call	strchr	#
	jmp	.L450	#
.L449:
	.loc 1 2147 0
	movq	-48(%rbp), %rdx	# q, q.260
	movq	-72(%rbp), %rax	# p, p.261
	subq	%rax, %rdx	# p.261, D.20907
	movq	%rdx, %rax	# D.20907, D.20907
	subq	$1, %rax	#, D.20907
	movq	%rax, -40(%rbp)	# D.20907, len
	.loc 1 2150 0
	movl	$0, -60(%rbp)	#, op
	movq	-80(%rbp), %rax	# outputs, tmp83
	movq	%rax, -56(%rbp)	# tmp83, t
	jmp	.L451	#
.L454:
.LBB59:
	.loc 1 2152 0
	movq	-56(%rbp), %rax	# t, tmp84
	movq	24(%rax), %rax	# t_4->list.purpose, D.20908
	movq	24(%rax), %rax	# _18->list.purpose, tmp85
	movq	%rax, -32(%rbp)	# tmp85, id
	.loc 1 2153 0
	cmpq	$0, -32(%rbp)	#, id
	je	.L452	#,
.LBB60:
	.loc 1 2155 0
	movq	-32(%rbp), %rax	# id, tmp86
	movq	32(%rax), %rax	# id_19->identifier.id.str, tmp87
	movq	%rax, -24(%rbp)	# tmp87, c
	.loc 1 2156 0
	movq	-72(%rbp), %rax	# p, tmp88
	leaq	1(%rax), %rcx	#, D.20909
	movq	-40(%rbp), %rdx	# len, tmp89
	movq	-24(%rbp), %rax	# c, tmp90
	movq	%rcx, %rsi	# D.20909,
	movq	%rax, %rdi	# tmp90,
	call	strncmp	#
	testl	%eax, %eax	# D.20910
	jne	.L452	#,
	.loc 1 2156 0 is_stmt 0 discriminator 1
	movq	-40(%rbp), %rax	# len, tmp91
	movq	-24(%rbp), %rdx	# c, tmp92
	addq	%rdx, %rax	# tmp92, D.20909
	movzbl	(%rax), %eax	# *_23, D.20911
	testb	%al, %al	# D.20911
	jne	.L452	#,
	.loc 1 2157 0 is_stmt 1
	jmp	.L453	#
.L452:
.LBE60:
.LBE59:
	.loc 1 2150 0
	movq	-56(%rbp), %rax	# t, tmp93
	movq	(%rax), %rax	# t_4->common.chain, tmp94
	movq	%rax, -56(%rbp)	# tmp94, t
	addl	$1, -60(%rbp)	#, op
.L451:
	.loc 1 2150 0 is_stmt 0 discriminator 1
	cmpq	$0, -56(%rbp)	#, t
	jne	.L454	#,
	.loc 1 2160 0 is_stmt 1
	movq	-88(%rbp), %rax	# inputs, tmp95
	movq	%rax, -56(%rbp)	# tmp95, t
	jmp	.L455	#
.L457:
.LBB61:
	.loc 1 2162 0
	movq	-56(%rbp), %rax	# t, tmp96
	movq	24(%rax), %rax	# t_5->list.purpose, D.20908
	movq	24(%rax), %rax	# _29->list.purpose, tmp97
	movq	%rax, -16(%rbp)	# tmp97, id
	.loc 1 2163 0
	cmpq	$0, -16(%rbp)	#, id
	je	.L456	#,
.LBB62:
	.loc 1 2165 0
	movq	-16(%rbp), %rax	# id, tmp98
	movq	32(%rax), %rax	# id_30->identifier.id.str, tmp99
	movq	%rax, -8(%rbp)	# tmp99, c
	.loc 1 2166 0
	movq	-72(%rbp), %rax	# p, tmp100
	leaq	1(%rax), %rcx	#, D.20909
	movq	-40(%rbp), %rdx	# len, tmp101
	movq	-8(%rbp), %rax	# c, tmp102
	movq	%rcx, %rsi	# D.20909,
	movq	%rax, %rdi	# tmp102,
	call	strncmp	#
	testl	%eax, %eax	# D.20910
	jne	.L456	#,
	.loc 1 2166 0 is_stmt 0 discriminator 1
	movq	-40(%rbp), %rax	# len, tmp103
	movq	-8(%rbp), %rdx	# c, tmp104
	addq	%rdx, %rax	# tmp104, D.20909
	movzbl	(%rax), %eax	# *_34, D.20911
	testb	%al, %al	# D.20911
	jne	.L456	#,
	.loc 1 2167 0 is_stmt 1
	jmp	.L453	#
.L456:
.LBE62:
.LBE61:
	.loc 1 2160 0
	movq	-56(%rbp), %rax	# t, tmp105
	movq	(%rax), %rax	# t_5->common.chain, tmp106
	movq	%rax, -56(%rbp)	# tmp106, t
	addl	$1, -60(%rbp)	#, op
.L455:
	.loc 1 2160 0 is_stmt 0 discriminator 1
	cmpq	$0, -56(%rbp)	#, t
	jne	.L457	#,
	.loc 1 2171 0 is_stmt 1
	movq	-48(%rbp), %rax	# q, tmp107
	movb	$0, (%rax)	#, *q_8
	.loc 1 2172 0
	movq	-72(%rbp), %rax	# p, tmp108
	addq	$1, %rax	#, D.20906
	movq	%rax, %rsi	# D.20906,
	movl	$.LC23, %edi	#,
	movl	$0, %eax	#,
	call	error	#
	.loc 1 2173 0
	movl	$0, -60(%rbp)	#, op
.L453:
	.loc 1 2179 0
	movl	-60(%rbp), %edx	# op, tmp109
	movq	-72(%rbp), %rax	# p, tmp110
	movl	$.LC18, %esi	#,
	movq	%rax, %rdi	# tmp110,
	movl	$0, %eax	#,
	call	sprintf	#
	.loc 1 2180 0
	movq	-72(%rbp), %rax	# p, tmp111
	movl	$0, %esi	#,
	movq	%rax, %rdi	# tmp111,
	call	strchr	#
	movq	%rax, -72(%rbp)	# tmp112, p
	.loc 1 2183 0
	movq	-72(%rbp), %rax	# p, tmp113
	cmpq	-48(%rbp), %rax	# q, tmp113
	jbe	.L458	#,
	.loc 1 2184 0
	movl	$__FUNCTION__.14316, %edx	#,
	movl	$2184, %esi	#,
	movl	$.LC0, %edi	#,
	call	fancy_abort	#
.L458:
	.loc 1 2187 0
	movq	-48(%rbp), %rax	# q, tmp114
	addq	$1, %rax	#, D.20909
	movq	%rax, %rdi	# D.20909,
	call	strlen	#
	leaq	1(%rax), %rdx	#, D.20912
	movq	-48(%rbp), %rax	# q, tmp115
	leaq	1(%rax), %rcx	#, D.20913
	movq	-72(%rbp), %rax	# p, tmp116
	movq	%rcx, %rsi	# D.20913,
	movq	%rax, %rdi	# tmp116,
	call	memmove	#
	.loc 1 2189 0
	movq	-72(%rbp), %rax	# p, D.20906
.L450:
	.loc 1 2190 0
	leave
	.cfi_def_cfa 7, 8
	ret
	.cfi_endproc
.LFE34:
	.size	resolve_operand_name_1, .-resolve_operand_name_1
	.globl	expand_expr_stmt
	.type	expand_expr_stmt, @function
expand_expr_stmt:
.LFB35:
	.loc 1 2200 0
	.cfi_startproc
	pushq	%rbp	#
	.cfi_def_cfa_offset 16
	.cfi_offset 6, -16
	movq	%rsp, %rbp	#,
	.cfi_def_cfa_register 6
	subq	$16, %rsp	#,
	movq	%rdi, -8(%rbp)	# exp, exp
	.loc 1 2201 0
	movq	-8(%rbp), %rax	# exp, tmp59
	movl	$1, %edx	#,
	movl	$-1, %esi	#,
	movq	%rax, %rdi	# tmp59,
	call	expand_expr_stmt_value	#
	.loc 1 2202 0
	leave
	.cfi_def_cfa 7, 8
	ret
	.cfi_endproc
.LFE35:
	.size	expand_expr_stmt, .-expand_expr_stmt
	.section	.rodata
.LC24:
	.string	"statement with no effect"
	.text
	.globl	expand_expr_stmt_value
	.type	expand_expr_stmt_value, @function
expand_expr_stmt_value:
.LFB36:
	.loc 1 2213 0
	.cfi_startproc
	pushq	%rbp	#
	.cfi_def_cfa_offset 16
	.cfi_offset 6, -16
	movq	%rsp, %rbp	#,
	.cfi_def_cfa_register 6
	subq	$64, %rsp	#,
	movq	%rdi, -40(%rbp)	# exp, exp
	movl	%esi, -44(%rbp)	# want_value, want_value
	movl	%edx, -48(%rbp)	# maybe_last, maybe_last
	.loc 1 2217 0
	cmpl	$-1, -44(%rbp)	#, want_value
	jne	.L461	#,
	.loc 1 2218 0
	movq	cfun(%rip), %rax	# cfun, cfun.262
	movq	8(%rax), %rax	# cfun.262_6->stmt, D.20916
	movl	72(%rax), %eax	# _7->x_expr_stmts_for_value, D.20917
	testl	%eax, %eax	# D.20917
	setne	%al	#, D.20918
	movzbl	%al, %eax	# D.20918, tmp99
	movl	%eax, -44(%rbp)	# tmp99, want_value
.L461:
	.loc 1 2223 0
	cmpl	$0, -44(%rbp)	#, want_value
	jne	.L462	#,
	.loc 1 2224 0
	movq	cfun(%rip), %rax	# cfun, cfun.263
	movq	8(%rax), %rax	# cfun.263_11->stmt, D.20916
	movl	72(%rax), %eax	# _12->x_expr_stmts_for_value, D.20917
	testl	%eax, %eax	# D.20917
	je	.L463	#,
	.loc 1 2224 0 is_stmt 0 discriminator 1
	cmpl	$0, -48(%rbp)	#, maybe_last
	jne	.L462	#,
.L463:
	.loc 1 2225 0 is_stmt 1
	movq	global_trees(%rip), %rax	# global_trees, D.20919
	cmpq	-40(%rbp), %rax	# exp, D.20919
	je	.L462	#,
	.loc 1 2227 0
	movq	-40(%rbp), %rax	# exp, tmp100
	movzbl	17(%rax), %eax	# *exp_16(D), D.20920
	andl	$1, %eax	#, D.20920
	testb	%al, %al	# D.20920
	jne	.L464	#,
	.loc 1 2229 0
	movl	extra_warnings(%rip), %eax	# extra_warnings, extra_warnings.264
	testl	%eax, %eax	# extra_warnings.264
	jne	.L465	#,
	.loc 1 2229 0 is_stmt 0 discriminator 1
	movl	warn_unused_value(%rip), %eax	# warn_unused_value, warn_unused_value.265
	testl	%eax, %eax	# warn_unused_value.265
	je	.L462	#,
.L465:
	.loc 1 2230 0 is_stmt 1
	movq	-40(%rbp), %rax	# exp, tmp101
	movzbl	16(%rax), %eax	# exp_16(D)->common.code, D.20920
	cmpb	$114, %al	#, D.20920
	jne	.L467	#,
	.loc 1 2231 0 discriminator 1
	movq	-40(%rbp), %rax	# exp, tmp102
	movq	8(%rax), %rax	# exp_16(D)->common.type, D.20919
	movzbl	16(%rax), %eax	# _22->common.code, D.20920
	.loc 1 2230 0 discriminator 1
	cmpb	$5, %al	#, D.20920
	je	.L462	#,
.L467:
	.loc 1 2232 0
	movq	cfun(%rip), %rax	# cfun, cfun.266
	movq	8(%rax), %rax	# cfun.266_24->stmt, D.20916
	movl	88(%rax), %ecx	# _25->x_emit_lineno, D.20917
	movq	cfun(%rip), %rax	# cfun, cfun.267
	movq	8(%rax), %rax	# cfun.267_27->stmt, D.20916
	movq	80(%rax), %rax	# _28->x_emit_filename, D.20921
	movl	$.LC24, %edx	#,
	movl	%ecx, %esi	# D.20917,
	movq	%rax, %rdi	# D.20921,
	movl	$0, %eax	#,
	call	warning_with_file_and_line	#
	jmp	.L462	#
.L464:
	.loc 1 2235 0
	movl	warn_unused_value(%rip), %eax	# warn_unused_value, warn_unused_value.268
	testl	%eax, %eax	# warn_unused_value.268
	je	.L462	#,
	.loc 1 2236 0
	movq	-40(%rbp), %rax	# exp, tmp103
	movq	%rax, %rdi	# tmp103,
	call	warn_if_unused_value	#
.L462:
	.loc 1 2241 0
	cmpl	$0, -44(%rbp)	#, want_value
	je	.L468	#,
	.loc 1 2241 0 is_stmt 0 discriminator 1
	movq	-40(%rbp), %rax	# exp, tmp104
	movq	8(%rax), %rax	# exp_16(D)->common.type, D.20919
	movzbl	16(%rax), %eax	# _31->common.code, D.20920
	cmpb	$23, %al	#, D.20920
	jne	.L468	#,
	.loc 1 2242 0 is_stmt 1
	movq	-40(%rbp), %rax	# exp, tmp105
	movq	8(%rax), %rax	# exp_16(D)->common.type, D.20919
	movq	%rax, %rdi	# D.20919,
	call	build_pointer_type	#
	movq	-40(%rbp), %rdx	# exp, tmp106
	movq	%rax, %rsi	# D.20919,
	movl	$121, %edi	#,
	call	build1	#
	movq	%rax, -40(%rbp)	# tmp107, exp
.L468:
	.loc 1 2247 0
	cmpl	$0, -44(%rbp)	#, want_value
	jne	.L469	#,
	.loc 1 2247 0 is_stmt 0 discriminator 1
	movq	const_int_rtx+512(%rip), %rax	# const_int_rtx, iftmp.269
	jmp	.L470	#
.L469:
	.loc 1 2247 0 discriminator 2
	movl	$0, %eax	#, iftmp.269
.L470:
	.loc 1 2247 0 discriminator 3
	movq	-40(%rbp), %rdi	# exp, tmp108
	movl	$0, %ecx	#,
	movl	$0, %edx	#,
	movq	%rax, %rsi	# iftmp.269,
	call	expand_expr	#
	movq	%rax, -24(%rbp)	# tmp109, value
	.loc 1 2249 0 is_stmt 1 discriminator 3
	movq	-40(%rbp), %rax	# exp, tmp110
	movq	8(%rax), %rax	# exp_1->common.type, tmp111
	movq	%rax, -16(%rbp)	# tmp111, type
	.loc 1 2253 0 discriminator 3
	cmpq	$0, -24(%rbp)	#, value
	je	.L471	#,
	.loc 1 2253 0 is_stmt 0 discriminator 1
	movq	-24(%rbp), %rax	# value, tmp112
	movzwl	(%rax), %eax	# value_38->code, D.20922
	cmpw	$66, %ax	#, D.20922
	jne	.L471	#,
	movq	-40(%rbp), %rax	# exp, tmp113
	movzbl	17(%rax), %eax	# *exp_1, D.20920
	andl	$8, %eax	#, D.20920
	testb	%al, %al	# D.20920
	je	.L471	#,
	.loc 1 2255 0 is_stmt 1
	movq	-16(%rbp), %rax	# type, tmp114
	movzbl	61(%rax), %eax	# *type_39, D.20920
	andl	$-2, %eax	#, D.20920
	testb	%al, %al	# D.20920
	je	.L471	#,
	.loc 1 2257 0
	movq	-16(%rbp), %rax	# type, tmp115
	movzbl	61(%rax), %eax	# *type_39, D.20920
	andl	$-2, %eax	#, D.20920
	cmpb	$102, %al	#, D.20920
	je	.L472	#,
	.loc 1 2258 0
	movq	-24(%rbp), %rax	# value, tmp116
	movq	%rax, %rdi	# tmp116,
	call	copy_to_reg	#
	movq	%rax, -24(%rbp)	# tmp117, value
	jmp	.L471	#
.L472:
.LBB63:
	.loc 1 2261 0
	call	gen_label_rtx	#
	movq	%rax, -8(%rbp)	# tmp118, lab
	.loc 1 2264 0
	movq	-16(%rbp), %rax	# type, tmp119
	movq	32(%rax), %rax	# type_39->type.size, D.20919
	movl	$0, %ecx	#,
	movl	$0, %edx	#,
	movl	$0, %esi	#,
	movq	%rax, %rdi	# D.20919,
	call	expand_expr	#
	movq	%rax, %rdx	#, D.20923
	movq	-24(%rbp), %rsi	# value, tmp120
	movq	-24(%rbp), %rax	# value, tmp121
	movq	-8(%rbp), %rcx	# lab, tmp122
	movq	%rcx, (%rsp)	# tmp122,
	movl	$0, %r9d	#,
	movl	$51, %r8d	#,
	movq	%rdx, %rcx	# D.20923,
	movl	$103, %edx	#,
	movq	%rax, %rdi	# tmp121,
	call	emit_cmp_and_jump_insns	#
	.loc 1 2268 0
	movq	-8(%rbp), %rax	# lab, tmp123
	movq	%rax, %rdi	# tmp123,
	call	emit_label	#
.L471:
.LBE63:
	.loc 1 2274 0
	movq	-24(%rbp), %rax	# value, tmp124
	movq	%rax, %rdi	# tmp124,
	call	preserve_temp_slots	#
	.loc 1 2279 0
	call	free_temp_slots	#
	.loc 1 2281 0
	cmpl	$0, -44(%rbp)	#, want_value
	je	.L473	#,
	.loc 1 2283 0
	movq	cfun(%rip), %rax	# cfun, cfun.270
	movq	8(%rax), %rax	# cfun.270_51->stmt, D.20916
	movq	-24(%rbp), %rdx	# value, tmp125
	movq	%rdx, 64(%rax)	# tmp125, _52->x_last_expr_value
	.loc 1 2284 0
	movq	cfun(%rip), %rax	# cfun, cfun.271
	movq	8(%rax), %rax	# cfun.271_53->stmt, D.20916
	movq	-16(%rbp), %rdx	# type, tmp126
	movq	%rdx, 56(%rax)	# tmp126, _54->x_last_expr_type
.L473:
	.loc 1 2287 0
	call	emit_queue	#
	.loc 1 2288 0
	leave
	.cfi_def_cfa 7, 8
	ret
	.cfi_endproc
.LFE36:
	.size	expand_expr_stmt_value, .-expand_expr_stmt_value
	.section	.rodata
.LC25:
	.string	"value computed is not used"
	.text
	.globl	warn_if_unused_value
	.type	warn_if_unused_value, @function
warn_if_unused_value:
.LFB37:
	.loc 1 2296 0
	.cfi_startproc
	pushq	%rbp	#
	.cfi_def_cfa_offset 16
	.cfi_offset 6, -16
	movq	%rsp, %rbp	#,
	.cfi_def_cfa_register 6
	subq	$32, %rsp	#,
	movq	%rdi, -24(%rbp)	# exp, exp
	.loc 1 2297 0
	movq	-24(%rbp), %rax	# exp, tmp111
	movzbl	18(%rax), %eax	# *exp_3(D), D.20926
	andl	$1, %eax	#, D.20926
	testb	%al, %al	# D.20926
	je	.L475	#,
	.loc 1 2298 0
	movl	$0, %eax	#, D.20925
	jmp	.L476	#
.L475:
	.loc 1 2303 0
	movq	-24(%rbp), %rax	# exp, tmp112
	movq	8(%rax), %rax	# exp_3(D)->common.type, D.20927
	movzbl	16(%rax), %eax	# _7->common.code, D.20926
	cmpb	$5, %al	#, D.20926
	jne	.L477	#,
	.loc 1 2304 0
	movl	$0, %eax	#, D.20925
	jmp	.L476	#
.L477:
	.loc 1 2306 0
	movq	-24(%rbp), %rax	# exp, tmp113
	movzbl	16(%rax), %eax	# exp_3(D)->common.code, D.20926
	movzbl	%al, %eax	# D.20926, D.20928
	subl	$41, %eax	#, tmp114
	cmpl	$99, %eax	#, tmp114
	ja	.L478	#,
	movl	%eax, %eax	# tmp114, tmp115
	movq	.L480(,%rax,8), %rax	#, tmp116
	jmp	*%rax	# tmp116
	.section	.rodata
	.align 8
	.align 4
.L480:
	.quad	.L479
	.quad	.L478
	.quad	.L478
	.quad	.L478
	.quad	.L478
	.quad	.L478
	.quad	.L481
	.quad	.L482
	.quad	.L482
	.quad	.L482
	.quad	.L478
	.quad	.L483
	.quad	.L482
	.quad	.L482
	.quad	.L482
	.quad	.L478
	.quad	.L478
	.quad	.L478
	.quad	.L478
	.quad	.L478
	.quad	.L478
	.quad	.L478
	.quad	.L478
	.quad	.L478
	.quad	.L478
	.quad	.L478
	.quad	.L478
	.quad	.L478
	.quad	.L478
	.quad	.L478
	.quad	.L478
	.quad	.L478
	.quad	.L478
	.quad	.L478
	.quad	.L478
	.quad	.L478
	.quad	.L478
	.quad	.L478
	.quad	.L478
	.quad	.L478
	.quad	.L478
	.quad	.L478
	.quad	.L478
	.quad	.L478
	.quad	.L478
	.quad	.L478
	.quad	.L478
	.quad	.L478
	.quad	.L478
	.quad	.L478
	.quad	.L484
	.quad	.L484
	.quad	.L478
	.quad	.L478
	.quad	.L478
	.quad	.L478
	.quad	.L478
	.quad	.L478
	.quad	.L478
	.quad	.L478
	.quad	.L478
	.quad	.L478
	.quad	.L478
	.quad	.L478
	.quad	.L478
	.quad	.L478
	.quad	.L478
	.quad	.L478
	.quad	.L478
	.quad	.L478
	.quad	.L478
	.quad	.L478
	.quad	.L478
	.quad	.L485
	.quad	.L485
	.quad	.L485
	.quad	.L478
	.quad	.L486
	.quad	.L478
	.quad	.L482
	.quad	.L478
	.quad	.L478
	.quad	.L478
	.quad	.L478
	.quad	.L478
	.quad	.L478
	.quad	.L478
	.quad	.L478
	.quad	.L482
	.quad	.L482
	.quad	.L482
	.quad	.L482
	.quad	.L478
	.quad	.L482
	.quad	.L478
	.quad	.L478
	.quad	.L478
	.quad	.L478
	.quad	.L478
	.quad	.L482
	.text
.L482:
	.loc 1 2321 0
	movl	$0, %eax	#, D.20925
	jmp	.L476	#
.L483:
	.loc 1 2325 0
	movq	-24(%rbp), %rax	# exp, tmp117
	movq	40(%rax), %rax	# exp_3(D)->exp.operands, D.20927
	movq	%rax, %rdi	# D.20927,
	call	warn_if_unused_value	#
	jmp	.L476	#
.L486:
	.loc 1 2328 0
	movq	-24(%rbp), %rax	# exp, tmp118
	movq	40(%rax), %rax	# exp_3(D)->exp.operands, D.20927
	movq	%rax, %rdi	# D.20927,
	call	warn_if_unused_value	#
	jmp	.L476	#
.L484:
	.loc 1 2333 0
	movq	-24(%rbp), %rax	# exp, tmp119
	movq	40(%rax), %rax	# exp_3(D)->exp.operands, D.20927
	movq	%rax, %rdi	# D.20927,
	call	warn_if_unused_value	#
	jmp	.L476	#
.L481:
	.loc 1 2336 0
	movq	-24(%rbp), %rax	# exp, tmp120
	movzbl	18(%rax), %eax	# *exp_3(D), D.20926
	andl	$4, %eax	#, D.20926
	testb	%al, %al	# D.20926
	je	.L487	#,
	.loc 1 2337 0
	movl	$0, %eax	#, D.20925
	jmp	.L476	#
.L487:
	.loc 1 2338 0
	movq	-24(%rbp), %rax	# exp, tmp121
	movq	32(%rax), %rax	# exp_3(D)->exp.operands, D.20927
	movq	%rax, %rdi	# D.20927,
	call	warn_if_unused_value	#
	testl	%eax, %eax	# D.20925
	je	.L488	#,
	.loc 1 2339 0
	movl	$1, %eax	#, D.20925
	jmp	.L476	#
.L488:
	.loc 1 2341 0
	movq	-24(%rbp), %rax	# exp, tmp122
	movq	40(%rax), %rax	# exp_3(D)->exp.operands, D.20927
	movzbl	17(%rax), %eax	# *_25, D.20926
	andl	$2, %eax	#, D.20926
	testb	%al, %al	# D.20926
	je	.L489	#,
	.loc 1 2342 0
	movl	$0, %eax	#, D.20925
	jmp	.L476	#
.L489:
	.loc 1 2343 0
	movq	-24(%rbp), %rax	# exp, tmp123
	movq	40(%rax), %rax	# exp_3(D)->exp.operands, D.20927
	movq	%rax, %rdi	# D.20927,
	call	warn_if_unused_value	#
	jmp	.L476	#
.L485:
	.loc 1 2349 0
	movq	-24(%rbp), %rax	# exp, tmp124
	movzbl	18(%rax), %eax	# *exp_3(D), D.20926
	andl	$4, %eax	#, D.20926
	testb	%al, %al	# D.20926
	je	.L490	#,
	.loc 1 2350 0
	movl	$0, %eax	#, D.20925
	jmp	.L476	#
.L490:
.LBB64:
	.loc 1 2356 0
	movq	-24(%rbp), %rax	# exp, tmp125
	movq	32(%rax), %rax	# exp_3(D)->exp.operands, tmp126
	movq	%rax, -8(%rbp)	# tmp126, tem
	.loc 1 2358 0
	jmp	.L491	#
.L492:
	.loc 1 2359 0
	movq	-8(%rbp), %rax	# tem, tmp127
	movq	32(%rax), %rax	# tem_1->exp.operands, tmp128
	movq	%rax, -8(%rbp)	# tmp128, tem
.L491:
	.loc 1 2358 0 discriminator 1
	movq	-8(%rbp), %rax	# tem, tmp129
	movzbl	16(%rax), %eax	# tem_1->common.code, D.20926
	cmpb	$114, %al	#, D.20926
	je	.L492	#,
	.loc 1 2358 0 is_stmt 0 discriminator 2
	movq	-8(%rbp), %rax	# tem, tmp130
	movzbl	16(%rax), %eax	# tem_1->common.code, D.20926
	cmpb	$115, %al	#, D.20926
	je	.L492	#,
	.loc 1 2361 0 is_stmt 1
	movq	-8(%rbp), %rax	# tem, tmp131
	movzbl	16(%rax), %eax	# tem_1->common.code, D.20926
	cmpb	$48, %al	#, D.20926
	je	.L493	#,
	.loc 1 2361 0 is_stmt 0 discriminator 1
	movq	-8(%rbp), %rax	# tem, tmp132
	movzbl	16(%rax), %eax	# tem_1->common.code, D.20926
	cmpb	$49, %al	#, D.20926
	je	.L493	#,
	.loc 1 2362 0 is_stmt 1
	movq	-8(%rbp), %rax	# tem, tmp133
	movzbl	16(%rax), %eax	# tem_1->common.code, D.20926
	cmpb	$53, %al	#, D.20926
	jne	.L494	#,
.L493:
	.loc 1 2363 0
	movl	$0, %eax	#, D.20925
	jmp	.L476	#
.L494:
.LBE64:
	.loc 1 2365 0
	jmp	.L495	#
.L479:
	.loc 1 2370 0
	movq	-24(%rbp), %rax	# exp, tmp134
	movq	32(%rax), %rax	# exp_3(D)->exp.operands, D.20927
	movq	8(%rax), %rax	# _42->common.type, D.20927
	movzbl	16(%rax), %eax	# _43->common.code, D.20926
	cmpb	$15, %al	#, D.20926
	jne	.L478	#,
	.loc 1 2371 0
	movq	-24(%rbp), %rax	# exp, tmp135
	movq	32(%rax), %rax	# exp_3(D)->exp.operands, D.20927
	movq	%rax, %rdi	# D.20927,
	call	warn_if_unused_value	#
	jmp	.L476	#
.L478:
	.loc 1 2376 0
	movq	-24(%rbp), %rax	# exp, tmp136
	movzbl	16(%rax), %eax	# exp_3(D)->common.code, D.20926
	movzbl	%al, %eax	# D.20926, D.20925
	cltq
	movzbl	tree_code_type(%rax), %eax	# tree_code_type, D.20929
	cmpb	$100, %al	#, D.20929
	je	.L496	#,
	.loc 1 2377 0
	movq	-24(%rbp), %rax	# exp, tmp138
	movzbl	16(%rax), %eax	# exp_3(D)->common.code, D.20926
	movzbl	%al, %eax	# D.20926, D.20925
	cltq
	movzbl	tree_code_type(%rax), %eax	# tree_code_type, D.20929
	cmpb	$114, %al	#, D.20929
	jne	.L497	#,
.L496:
	.loc 1 2378 0
	movq	-24(%rbp), %rax	# exp, tmp140
	movzbl	17(%rax), %eax	# *exp_3(D), D.20926
	andl	$8, %eax	#, D.20926
	testb	%al, %al	# D.20926
	je	.L497	#,
	.loc 1 2379 0
	movl	$0, %eax	#, D.20925
	jmp	.L476	#
.L497:
	.loc 1 2384 0
	movq	-24(%rbp), %rax	# exp, tmp141
	movzbl	16(%rax), %eax	# exp_3(D)->common.code, D.20926
	movzbl	%al, %eax	# D.20926, D.20925
	cltq
	movzbl	tree_code_type(%rax), %eax	# tree_code_type, D.20929
	cmpb	$101, %al	#, D.20929
	jne	.L495	#,
	.loc 1 2385 0
	movq	-24(%rbp), %rax	# exp, tmp143
	movzbl	16(%rax), %eax	# exp_3(D)->common.code, D.20926
	movzbl	%al, %eax	# D.20926, D.20925
	cltq
	movl	tree_code_length(,%rax,4), %eax	# tree_code_length, D.20925
	testl	%eax, %eax	# D.20925
	jne	.L495	#,
	.loc 1 2386 0
	movl	$0, %eax	#, D.20925
	jmp	.L476	#
.L495:
	.loc 1 2390 0
	movq	-24(%rbp), %rax	# exp, tmp145
	movzbl	17(%rax), %eax	# *exp_3(D), D.20926
	andl	$1, %eax	#, D.20926
	testb	%al, %al	# D.20926
	je	.L498	#,
	.loc 1 2391 0
	movl	$0, %eax	#, D.20925
	jmp	.L476	#
.L498:
	.loc 1 2393 0
	movq	cfun(%rip), %rax	# cfun, cfun.272
	movq	8(%rax), %rax	# cfun.272_66->stmt, D.20930
	movl	88(%rax), %ecx	# _67->x_emit_lineno, D.20925
	movq	cfun(%rip), %rax	# cfun, cfun.273
	movq	8(%rax), %rax	# cfun.273_69->stmt, D.20930
	movq	80(%rax), %rax	# _70->x_emit_filename, D.20931
	movl	$.LC25, %edx	#,
	movl	%ecx, %esi	# D.20925,
	movq	%rax, %rdi	# D.20931,
	movl	$0, %eax	#,
	call	warning_with_file_and_line	#
	.loc 1 2395 0
	movl	$1, %eax	#, D.20925
.L476:
	.loc 1 2397 0
	leave
	.cfi_def_cfa 7, 8
	ret
	.cfi_endproc
.LFE37:
	.size	warn_if_unused_value, .-warn_if_unused_value
	.globl	clear_last_expr
	.type	clear_last_expr, @function
clear_last_expr:
.LFB38:
	.loc 1 2403 0
	.cfi_startproc
	pushq	%rbp	#
	.cfi_def_cfa_offset 16
	.cfi_offset 6, -16
	movq	%rsp, %rbp	#,
	.cfi_def_cfa_register 6
	.loc 1 2404 0
	movq	cfun(%rip), %rax	# cfun, cfun.274
	movq	8(%rax), %rax	# cfun.274_1->stmt, D.20933
	movq	$0, 56(%rax)	#, _2->x_last_expr_type
	.loc 1 2405 0
	popq	%rbp	#
	.cfi_def_cfa 7, 8
	ret
	.cfi_endproc
.LFE38:
	.size	clear_last_expr, .-clear_last_expr
	.globl	expand_start_stmt_expr
	.type	expand_start_stmt_expr, @function
expand_start_stmt_expr:
.LFB39:
	.loc 1 2417 0
	.cfi_startproc
	pushq	%rbp	#
	.cfi_def_cfa_offset 16
	.cfi_offset 6, -16
	movq	%rsp, %rbp	#,
	.cfi_def_cfa_register 6
	subq	$32, %rsp	#,
	movl	%edi, -20(%rbp)	# has_scope, has_scope
	.loc 1 2422 0
	movl	$120, %edi	#,
	call	make_node	#
	movq	%rax, -8(%rbp)	# tmp73, t
	.loc 1 2423 0
	call	do_pending_stack_adjust	#
	.loc 1 2424 0
	cmpl	$0, -20(%rbp)	#, has_scope
	je	.L501	#,
	.loc 1 2425 0
	movq	-8(%rbp), %rax	# t, tmp74
	movq	%rax, %rdi	# tmp74,
	call	start_sequence_for_rtl_expr	#
	jmp	.L502	#
.L501:
	.loc 1 2427 0
	call	start_sequence	#
.L502:
	.loc 1 2428 0
	movq	cfun(%rip), %rax	# cfun, cfun.275
	movq	16(%rax), %rax	# cfun.275_3->expr, D.20934
	movq	cfun(%rip), %rdx	# cfun, cfun.276
	movq	16(%rdx), %rdx	# cfun.276_5->expr, D.20934
	movl	4(%rdx), %edx	# _6->x_inhibit_defer_pop, D.20935
	addl	$1, %edx	#, D.20935
	movl	%edx, 4(%rax)	# D.20935, _4->x_inhibit_defer_pop
	.loc 1 2429 0
	movq	cfun(%rip), %rax	# cfun, cfun.277
	movq	8(%rax), %rax	# cfun.277_9->stmt, D.20936
	movl	72(%rax), %edx	# _10->x_expr_stmts_for_value, D.20935
	addl	$1, %edx	#, D.20935
	movl	%edx, 72(%rax)	# D.20935, _10->x_expr_stmts_for_value
	.loc 1 2430 0
	movq	cfun(%rip), %rax	# cfun, cfun.278
	movq	8(%rax), %rax	# cfun.278_13->stmt, D.20936
	movq	$0, 64(%rax)	#, _14->x_last_expr_value
	.loc 1 2431 0
	movq	-8(%rbp), %rax	# t, D.20937
	.loc 1 2432 0
	leave
	.cfi_def_cfa 7, 8
	ret
	.cfi_endproc
.LFE39:
	.size	expand_start_stmt_expr, .-expand_start_stmt_expr
	.globl	expand_end_stmt_expr
	.type	expand_end_stmt_expr, @function
expand_end_stmt_expr:
.LFB40:
	.loc 1 2449 0
	.cfi_startproc
	pushq	%rbp	#
	.cfi_def_cfa_offset 16
	.cfi_offset 6, -16
	movq	%rsp, %rbp	#,
	.cfi_def_cfa_register 6
	pushq	%rbx	#
	subq	$24, %rsp	#,
	.cfi_offset 3, -24
	movq	%rdi, -24(%rbp)	# t, t
	.loc 1 2450 0
	movq	cfun(%rip), %rax	# cfun, cfun.279
	movq	16(%rax), %rax	# cfun.279_1->expr, D.20938
	movq	cfun(%rip), %rdx	# cfun, cfun.280
	movq	16(%rdx), %rdx	# cfun.280_3->expr, D.20938
	movl	4(%rdx), %edx	# _4->x_inhibit_defer_pop, D.20939
	subl	$1, %edx	#, D.20939
	movl	%edx, 4(%rax)	# D.20939, _2->x_inhibit_defer_pop
	.loc 1 2452 0
	movq	cfun(%rip), %rax	# cfun, cfun.281
	movq	8(%rax), %rax	# cfun.281_7->stmt, D.20940
	movq	64(%rax), %rax	# _8->x_last_expr_value, D.20941
	testq	%rax, %rax	# D.20941
	je	.L505	#,
	.loc 1 2452 0 is_stmt 0 discriminator 1
	movq	cfun(%rip), %rax	# cfun, cfun.282
	movq	8(%rax), %rax	# cfun.282_10->stmt, D.20940
	movq	56(%rax), %rax	# _11->x_last_expr_type, D.20942
	testq	%rax, %rax	# D.20942
	jne	.L506	#,
.L505:
	.loc 1 2454 0 is_stmt 1
	movq	cfun(%rip), %rax	# cfun, cfun.283
	movq	8(%rax), %rax	# cfun.283_55->stmt, D.20940
	movq	const_int_rtx+512(%rip), %rdx	# const_int_rtx, D.20941
	movq	%rdx, 64(%rax)	# D.20941, _56->x_last_expr_value
	.loc 1 2455 0
	movq	cfun(%rip), %rax	# cfun, cfun.284
	movq	8(%rax), %rax	# cfun.284_58->stmt, D.20940
	movq	global_trees+216(%rip), %rdx	# global_trees, D.20942
	movq	%rdx, 56(%rax)	# D.20942, _59->x_last_expr_type
	jmp	.L507	#
.L506:
	.loc 1 2457 0
	movq	cfun(%rip), %rax	# cfun, cfun.285
	movq	8(%rax), %rax	# cfun.285_13->stmt, D.20940
	movq	64(%rax), %rax	# _14->x_last_expr_value, D.20941
	movzwl	(%rax), %eax	# _15->code, D.20943
	cmpw	$61, %ax	#, D.20943
	je	.L507	#,
	.loc 1 2457 0 is_stmt 0 discriminator 1
	movq	cfun(%rip), %rax	# cfun, cfun.286
	movq	8(%rax), %rax	# cfun.286_17->stmt, D.20940
	movq	64(%rax), %rax	# _18->x_last_expr_value, D.20941
	movzwl	(%rax), %eax	# _19->code, D.20943
	cmpw	$67, %ax	#, D.20943
	je	.L507	#,
	movq	cfun(%rip), %rax	# cfun, cfun.287
	movq	8(%rax), %rax	# cfun.287_21->stmt, D.20940
	movq	64(%rax), %rax	# _22->x_last_expr_value, D.20941
	movzwl	(%rax), %eax	# _23->code, D.20943
	cmpw	$68, %ax	#, D.20943
	je	.L507	#,
	movq	cfun(%rip), %rax	# cfun, cfun.288
	movq	8(%rax), %rax	# cfun.288_25->stmt, D.20940
	movq	64(%rax), %rax	# _26->x_last_expr_value, D.20941
	movzwl	(%rax), %eax	# _27->code, D.20943
	cmpw	$54, %ax	#, D.20943
	je	.L507	#,
	movq	cfun(%rip), %rax	# cfun, cfun.289
	movq	8(%rax), %rax	# cfun.289_29->stmt, D.20940
	movq	64(%rax), %rax	# _30->x_last_expr_value, D.20941
	movzwl	(%rax), %eax	# _31->code, D.20943
	cmpw	$55, %ax	#, D.20943
	je	.L507	#,
	movq	cfun(%rip), %rax	# cfun, cfun.290
	movq	8(%rax), %rax	# cfun.290_33->stmt, D.20940
	movq	64(%rax), %rax	# _34->x_last_expr_value, D.20941
	movzwl	(%rax), %eax	# _35->code, D.20943
	cmpw	$58, %ax	#, D.20943
	je	.L507	#,
	movq	cfun(%rip), %rax	# cfun, cfun.291
	movq	8(%rax), %rax	# cfun.291_37->stmt, D.20940
	movq	64(%rax), %rax	# _38->x_last_expr_value, D.20941
	movzwl	(%rax), %eax	# _39->code, D.20943
	cmpw	$134, %ax	#, D.20943
	je	.L507	#,
	movq	cfun(%rip), %rax	# cfun, cfun.292
	movq	8(%rax), %rax	# cfun.292_41->stmt, D.20940
	movq	64(%rax), %rax	# _42->x_last_expr_value, D.20941
	movzwl	(%rax), %eax	# _43->code, D.20943
	cmpw	$56, %ax	#, D.20943
	je	.L507	#,
	movq	cfun(%rip), %rax	# cfun, cfun.293
	movq	8(%rax), %rax	# cfun.293_45->stmt, D.20940
	movq	64(%rax), %rax	# _46->x_last_expr_value, D.20941
	movzwl	(%rax), %eax	# _47->code, D.20943
	cmpw	$140, %ax	#, D.20943
	je	.L507	#,
	.loc 1 2459 0 is_stmt 1
	movq	cfun(%rip), %rax	# cfun, cfun.294
	movq	8(%rax), %rbx	# cfun.294_49->stmt, D.20940
	movq	cfun(%rip), %rax	# cfun, cfun.295
	movq	8(%rax), %rax	# cfun.295_51->stmt, D.20940
	movq	64(%rax), %rax	# _52->x_last_expr_value, D.20941
	movl	$0, %esi	#,
	movq	%rax, %rdi	# D.20941,
	call	protect_from_queue	#
	movq	%rax, 64(%rbx)	# D.20941, _50->x_last_expr_value
.L507:
	.loc 1 2461 0
	call	emit_queue	#
	.loc 1 2463 0
	movq	cfun(%rip), %rax	# cfun, cfun.296
	movq	8(%rax), %rax	# cfun.296_61->stmt, D.20940
	movq	56(%rax), %rdx	# _62->x_last_expr_type, D.20942
	movq	-24(%rbp), %rax	# t, tmp146
	movq	%rdx, 8(%rax)	# D.20942, t_64(D)->common.type
	.loc 1 2464 0
	movq	-24(%rbp), %rax	# t, tmp147
	leaq	40(%rax), %rdx	#, D.20944
	movq	cfun(%rip), %rax	# cfun, cfun.297
	movq	8(%rax), %rax	# cfun.297_66->stmt, D.20940
	movq	64(%rax), %rax	# _67->x_last_expr_value, D.20941
	movq	%rax, (%rdx)	# D.20941, MEM[(struct rtx_def * *)_65]
	.loc 1 2465 0
	movq	-24(%rbp), %rax	# t, tmp148
	leaq	32(%rax), %rbx	#, D.20944
	call	get_insns	#
	movq	%rax, (%rbx)	# D.20941, MEM[(struct rtx_def * *)_69]
	.loc 1 2467 0
	movq	cfun(%rip), %rbx	# cfun, cfun.298
	movq	cfun(%rip), %rax	# cfun, cfun.299
	movq	224(%rax), %rdx	# cfun.299_72->x_rtl_expr_chain, D.20942
	movq	-24(%rbp), %rax	# t, tmp149
	movq	%rax, %rsi	# tmp149,
	movl	$0, %edi	#,
	call	tree_cons	#
	movq	%rax, 224(%rbx)	# D.20942, cfun.298_71->x_rtl_expr_chain
	.loc 1 2469 0
	call	end_sequence	#
	.loc 1 2472 0
	movq	-24(%rbp), %rax	# t, tmp150
	movzbl	17(%rax), %edx	#, tmp153
	orl	$1, %edx	#, tmp154
	movb	%dl, 17(%rax)	# tmp154,
	.loc 1 2474 0
	movq	cfun(%rip), %rax	# cfun, cfun.300
	movq	8(%rax), %rax	# cfun.300_75->stmt, D.20940
	movq	64(%rax), %rax	# _76->x_last_expr_value, D.20941
	movq	%rax, %rdi	# D.20941,
	call	volatile_refs_p	#
	andl	$1, %eax	#, D.20946
	movl	%eax, %edx	# D.20946, D.20946
	movq	-24(%rbp), %rax	# t, tmp155
	andl	$1, %edx	#, tmp157
	leal	0(,%rdx,8), %ecx	#, tmp158
	movzbl	17(%rax), %edx	#, tmp159
	andl	$-9, %edx	#, tmp160
	orl	%ecx, %edx	# tmp158, tmp161
	movb	%dl, 17(%rax)	# tmp161,
	.loc 1 2476 0
	movq	cfun(%rip), %rax	# cfun, cfun.301
	movq	8(%rax), %rax	# cfun.301_81->stmt, D.20940
	movq	$0, 56(%rax)	#, _82->x_last_expr_type
	.loc 1 2477 0
	movq	cfun(%rip), %rax	# cfun, cfun.302
	movq	8(%rax), %rax	# cfun.302_83->stmt, D.20940
	movl	72(%rax), %edx	# _84->x_expr_stmts_for_value, D.20939
	subl	$1, %edx	#, D.20939
	movl	%edx, 72(%rax)	# D.20939, _84->x_expr_stmts_for_value
	.loc 1 2479 0
	movq	-24(%rbp), %rax	# t, D.20947
	.loc 1 2480 0
	addq	$24, %rsp	#,
	popq	%rbx	#
	popq	%rbp	#
	.cfi_def_cfa 7, 8
	ret
	.cfi_endproc
.LFE40:
	.size	expand_end_stmt_expr, .-expand_end_stmt_expr
	.globl	expand_start_cond
	.type	expand_start_cond, @function
expand_start_cond:
.LFB41:
	.loc 1 2492 0
	.cfi_startproc
	pushq	%rbp	#
	.cfi_def_cfa_offset 16
	.cfi_offset 6, -16
	movq	%rsp, %rbp	#,
	.cfi_def_cfa_register 6
	subq	$64, %rsp	#,
	movq	%rdi, -56(%rbp)	# cond, cond
	movl	%esi, -60(%rbp)	# exitflag, exitflag
.LBB65:
	.loc 1 2493 0
	movq	$stmt_obstack, -40(%rbp)	#, __h
.LBB66:
	movq	-40(%rbp), %rax	# __h, tmp112
	movq	%rax, -32(%rbp)	# tmp112, __o
	movl	$120, -44(%rbp)	#, __len
	movq	-32(%rbp), %rax	# __o, tmp113
	movq	32(%rax), %rax	# __o_3->chunk_limit, D.20948
	movq	%rax, %rdx	# D.20948, D.20949
	movq	-32(%rbp), %rax	# __o, tmp114
	movq	24(%rax), %rax	# __o_3->next_free, D.20948
	subq	%rax, %rdx	# D.20949, D.20949
	movl	-44(%rbp), %eax	# __len, tmp115
	cltq
	cmpq	%rax, %rdx	# D.20949, D.20949
	jge	.L510	#,
	.loc 1 2493 0 is_stmt 0 discriminator 1
	movl	-44(%rbp), %edx	# __len, tmp116
	movq	-32(%rbp), %rax	# __o, tmp117
	movl	%edx, %esi	# tmp116,
	movq	%rax, %rdi	# tmp117,
	call	_obstack_newchunk	#
.L510:
	.loc 1 2493 0 discriminator 2
	movq	-32(%rbp), %rax	# __o, tmp118
	movq	24(%rax), %rdx	# __o_3->next_free, D.20948
	movl	-44(%rbp), %eax	# __len, tmp119
	cltq
	addq	%rax, %rdx	# D.20950, D.20948
	movq	-32(%rbp), %rax	# __o, tmp120
	movq	%rdx, 24(%rax)	# D.20948, __o_3->next_free
.LBE66:
.LBB67:
	movq	-40(%rbp), %rax	# __h, tmp121
	movq	%rax, -24(%rbp)	# tmp121, __o1
	movq	-24(%rbp), %rax	# __o1, tmp122
	movq	16(%rax), %rax	# __o1_14->object_base, tmp123
	movq	%rax, -16(%rbp)	# tmp123, value
	movq	-24(%rbp), %rax	# __o1, tmp124
	movq	24(%rax), %rax	# __o1_14->next_free, D.20948
	cmpq	-16(%rbp), %rax	# value, D.20948
	jne	.L511	#,
	.loc 1 2493 0 discriminator 1
	movq	-24(%rbp), %rax	# __o1, tmp125
	movzbl	80(%rax), %edx	# __o1_14->maybe_empty_object, tmp128
	orl	$2, %edx	#, tmp129
	movb	%dl, 80(%rax)	# tmp129, __o1_14->maybe_empty_object
.L511:
	.loc 1 2493 0 discriminator 2
	movq	-24(%rbp), %rax	# __o1, tmp130
	movq	24(%rax), %rax	# __o1_14->next_free, D.20948
	movq	%rax, %rdx	# D.20948, D.20949
	movq	-24(%rbp), %rax	# __o1, tmp131
	movl	48(%rax), %eax	# __o1_14->alignment_mask, D.20951
	cltq
	addq	%rax, %rdx	# D.20949, D.20949
	movq	-24(%rbp), %rax	# __o1, tmp132
	movl	48(%rax), %eax	# __o1_14->alignment_mask, D.20951
	notl	%eax	# D.20951
	cltq
	andq	%rdx, %rax	# D.20949, D.20949
	movq	%rax, %rdx	# D.20949, D.20948
	movq	-24(%rbp), %rax	# __o1, tmp133
	movq	%rdx, 24(%rax)	# D.20948, __o1_14->next_free
	movq	-24(%rbp), %rax	# __o1, tmp134
	movq	24(%rax), %rax	# __o1_14->next_free, D.20948
	movq	%rax, %rdx	# D.20948, D.20949
	movq	-24(%rbp), %rax	# __o1, tmp135
	movq	8(%rax), %rax	# __o1_14->chunk, D.20952
	movq	%rdx, %rcx	# D.20949, D.20949
	subq	%rax, %rcx	# D.20949, D.20949
	movq	-24(%rbp), %rax	# __o1, tmp136
	movq	32(%rax), %rax	# __o1_14->chunk_limit, D.20948
	movq	%rax, %rdx	# D.20948, D.20949
	movq	-24(%rbp), %rax	# __o1, tmp137
	movq	8(%rax), %rax	# __o1_14->chunk, D.20952
	subq	%rax, %rdx	# D.20949, D.20949
	movq	%rdx, %rax	# D.20949, D.20949
	cmpq	%rax, %rcx	# D.20949, D.20949
	jle	.L512	#,
	.loc 1 2493 0 discriminator 1
	movq	-24(%rbp), %rax	# __o1, tmp138
	movq	32(%rax), %rdx	# __o1_14->chunk_limit, D.20948
	movq	-24(%rbp), %rax	# __o1, tmp139
	movq	%rdx, 24(%rax)	# D.20948, __o1_14->next_free
.L512:
	.loc 1 2493 0 discriminator 2
	movq	-24(%rbp), %rax	# __o1, tmp140
	movq	24(%rax), %rdx	# __o1_14->next_free, D.20948
	movq	-24(%rbp), %rax	# __o1, tmp141
	movq	%rdx, 16(%rax)	# D.20948, __o1_14->object_base
	movq	-16(%rbp), %rax	# value, D.20953
.LBE67:
.LBE65:
	movq	%rax, -8(%rbp)	# thiscond.303, thiscond
	.loc 1 2497 0 is_stmt 1 discriminator 2
	movq	cfun(%rip), %rax	# cfun, cfun.304
	movq	8(%rax), %rax	# cfun.304_42->stmt, D.20954
	movq	16(%rax), %rdx	# _43->x_cond_stack, D.20955
	movq	-8(%rbp), %rax	# thiscond, tmp142
	movq	%rdx, 8(%rax)	# D.20955, thiscond_41->next
	.loc 1 2498 0 discriminator 2
	movq	cfun(%rip), %rax	# cfun, cfun.305
	movq	8(%rax), %rax	# cfun.305_45->stmt, D.20954
	movq	40(%rax), %rdx	# _46->x_nesting_stack, D.20955
	movq	-8(%rbp), %rax	# thiscond, tmp143
	movq	%rdx, (%rax)	# D.20955, thiscond_41->all
	.loc 1 2499 0 discriminator 2
	movq	cfun(%rip), %rax	# cfun, cfun.306
	movq	8(%rax), %rax	# cfun.306_48->stmt, D.20954
	movl	48(%rax), %edx	# _49->x_nesting_depth, D.20951
	addl	$1, %edx	#, D.20951
	movl	%edx, 48(%rax)	# D.20951, _49->x_nesting_depth
	movl	48(%rax), %edx	# _49->x_nesting_depth, D.20951
	movq	-8(%rbp), %rax	# thiscond, tmp144
	movl	%edx, 16(%rax)	# D.20951, thiscond_41->depth
	.loc 1 2500 0 discriminator 2
	call	gen_label_rtx	#
	movq	-8(%rbp), %rdx	# thiscond, tmp145
	movq	%rax, 40(%rdx)	# D.20956, thiscond_41->data.cond.next_label
	.loc 1 2504 0 discriminator 2
	cmpl	$0, -60(%rbp)	#, exitflag
	je	.L513	#,
	.loc 1 2504 0 is_stmt 0 discriminator 1
	call	gen_label_rtx	#
	jmp	.L514	#
.L513:
	.loc 1 2504 0 discriminator 2
	movl	$0, %eax	#, iftmp.307
.L514:
	.loc 1 2504 0 discriminator 3
	movq	-8(%rbp), %rdx	# thiscond, tmp146
	movq	%rax, 24(%rdx)	# iftmp.307, thiscond_41->exit_label
	.loc 1 2505 0 is_stmt 1 discriminator 3
	movq	-8(%rbp), %rax	# thiscond, tmp147
	movq	24(%rax), %rdx	# thiscond_41->exit_label, D.20956
	movq	-8(%rbp), %rax	# thiscond, tmp148
	movq	%rdx, 32(%rax)	# D.20956, thiscond_41->data.cond.endif_label
	.loc 1 2506 0 discriminator 3
	movq	cfun(%rip), %rax	# cfun, cfun.308
	movq	8(%rax), %rax	# cfun.308_58->stmt, D.20954
	movq	-8(%rbp), %rdx	# thiscond, tmp149
	movq	%rdx, 16(%rax)	# tmp149, _59->x_cond_stack
	.loc 1 2507 0 discriminator 3
	movq	cfun(%rip), %rax	# cfun, cfun.309
	movq	8(%rax), %rax	# cfun.309_60->stmt, D.20954
	movq	-8(%rbp), %rdx	# thiscond, tmp150
	movq	%rdx, 40(%rax)	# tmp150, _61->x_nesting_stack
	.loc 1 2509 0 discriminator 3
	movq	-8(%rbp), %rax	# thiscond, tmp151
	movq	40(%rax), %rcx	# thiscond_41->data.cond.next_label, D.20956
	movq	-56(%rbp), %rax	# cond, tmp152
	movl	$0, %edx	#,
	movq	%rcx, %rsi	# D.20956,
	movq	%rax, %rdi	# tmp152,
	call	do_jump	#
	.loc 1 2510 0 discriminator 3
	leave
	.cfi_def_cfa 7, 8
	ret
	.cfi_endproc
.LFE41:
	.size	expand_start_cond, .-expand_start_cond
	.globl	expand_start_elseif
	.type	expand_start_elseif, @function
expand_start_elseif:
.LFB42:
	.loc 1 2518 0
	.cfi_startproc
	pushq	%rbp	#
	.cfi_def_cfa_offset 16
	.cfi_offset 6, -16
	movq	%rsp, %rbp	#,
	.cfi_def_cfa_register 6
	pushq	%rbx	#
	subq	$24, %rsp	#,
	.cfi_offset 3, -24
	movq	%rdi, -24(%rbp)	# cond, cond
	.loc 1 2519 0
	movq	cfun(%rip), %rax	# cfun, cfun.310
	movq	8(%rax), %rax	# cfun.310_1->stmt, D.20957
	movq	16(%rax), %rax	# _2->x_cond_stack, D.20958
	movq	32(%rax), %rax	# _3->data.cond.endif_label, D.20959
	testq	%rax, %rax	# D.20959
	jne	.L516	#,
	.loc 1 2520 0
	movq	cfun(%rip), %rax	# cfun, cfun.311
	movq	8(%rax), %rax	# cfun.311_5->stmt, D.20957
	movq	16(%rax), %rbx	# _6->x_cond_stack, D.20958
	call	gen_label_rtx	#
	movq	%rax, 32(%rbx)	# D.20959, _7->data.cond.endif_label
.L516:
	.loc 1 2521 0
	movq	cfun(%rip), %rax	# cfun, cfun.312
	movq	8(%rax), %rax	# cfun.312_9->stmt, D.20957
	movq	16(%rax), %rax	# _10->x_cond_stack, D.20958
	movq	32(%rax), %rax	# _11->data.cond.endif_label, D.20959
	movq	%rax, %rdi	# D.20959,
	call	emit_jump	#
	.loc 1 2522 0
	movq	cfun(%rip), %rax	# cfun, cfun.313
	movq	8(%rax), %rax	# cfun.313_13->stmt, D.20957
	movq	16(%rax), %rax	# _14->x_cond_stack, D.20958
	movq	40(%rax), %rax	# _15->data.cond.next_label, D.20959
	movq	%rax, %rdi	# D.20959,
	call	emit_label	#
	.loc 1 2523 0
	movq	cfun(%rip), %rax	# cfun, cfun.314
	movq	8(%rax), %rax	# cfun.314_17->stmt, D.20957
	movq	16(%rax), %rbx	# _18->x_cond_stack, D.20958
	call	gen_label_rtx	#
	movq	%rax, 40(%rbx)	# D.20959, _19->data.cond.next_label
	.loc 1 2524 0
	movq	cfun(%rip), %rax	# cfun, cfun.315
	movq	8(%rax), %rax	# cfun.315_21->stmt, D.20957
	movq	16(%rax), %rax	# _22->x_cond_stack, D.20958
	movq	40(%rax), %rcx	# _23->data.cond.next_label, D.20959
	movq	-24(%rbp), %rax	# cond, tmp83
	movl	$0, %edx	#,
	movq	%rcx, %rsi	# D.20959,
	movq	%rax, %rdi	# tmp83,
	call	do_jump	#
	.loc 1 2525 0
	addq	$24, %rsp	#,
	popq	%rbx	#
	popq	%rbp	#
	.cfi_def_cfa 7, 8
	ret
	.cfi_endproc
.LFE42:
	.size	expand_start_elseif, .-expand_start_elseif
	.globl	expand_start_else
	.type	expand_start_else, @function
expand_start_else:
.LFB43:
	.loc 1 2532 0
	.cfi_startproc
	pushq	%rbp	#
	.cfi_def_cfa_offset 16
	.cfi_offset 6, -16
	movq	%rsp, %rbp	#,
	.cfi_def_cfa_register 6
	pushq	%rbx	#
	subq	$8, %rsp	#,
	.cfi_offset 3, -24
	.loc 1 2533 0
	movq	cfun(%rip), %rax	# cfun, cfun.316
	movq	8(%rax), %rax	# cfun.316_1->stmt, D.20960
	movq	16(%rax), %rax	# _2->x_cond_stack, D.20961
	movq	32(%rax), %rax	# _3->data.cond.endif_label, D.20962
	testq	%rax, %rax	# D.20962
	jne	.L518	#,
	.loc 1 2534 0
	movq	cfun(%rip), %rax	# cfun, cfun.317
	movq	8(%rax), %rax	# cfun.317_5->stmt, D.20960
	movq	16(%rax), %rbx	# _6->x_cond_stack, D.20961
	call	gen_label_rtx	#
	movq	%rax, 32(%rbx)	# D.20962, _7->data.cond.endif_label
.L518:
	.loc 1 2536 0
	movq	cfun(%rip), %rax	# cfun, cfun.318
	movq	8(%rax), %rax	# cfun.318_9->stmt, D.20960
	movq	16(%rax), %rax	# _10->x_cond_stack, D.20961
	movq	32(%rax), %rax	# _11->data.cond.endif_label, D.20962
	movq	%rax, %rdi	# D.20962,
	call	emit_jump	#
	.loc 1 2537 0
	movq	cfun(%rip), %rax	# cfun, cfun.319
	movq	8(%rax), %rax	# cfun.319_13->stmt, D.20960
	movq	16(%rax), %rax	# _14->x_cond_stack, D.20961
	movq	40(%rax), %rax	# _15->data.cond.next_label, D.20962
	movq	%rax, %rdi	# D.20962,
	call	emit_label	#
	.loc 1 2538 0
	movq	cfun(%rip), %rax	# cfun, cfun.320
	movq	8(%rax), %rax	# cfun.320_17->stmt, D.20960
	movq	16(%rax), %rax	# _18->x_cond_stack, D.20961
	movq	$0, 40(%rax)	#, _19->data.cond.next_label
	.loc 1 2539 0
	addq	$8, %rsp	#,
	popq	%rbx	#
	popq	%rbp	#
	.cfi_def_cfa 7, 8
	ret
	.cfi_endproc
.LFE43:
	.size	expand_start_else, .-expand_start_else
	.globl	expand_elseif
	.type	expand_elseif, @function
expand_elseif:
.LFB44:
	.loc 1 2547 0
	.cfi_startproc
	pushq	%rbp	#
	.cfi_def_cfa_offset 16
	.cfi_offset 6, -16
	movq	%rsp, %rbp	#,
	.cfi_def_cfa_register 6
	pushq	%rbx	#
	subq	$24, %rsp	#,
	.cfi_offset 3, -24
	movq	%rdi, -24(%rbp)	# cond, cond
	.loc 1 2548 0
	movq	cfun(%rip), %rax	# cfun, cfun.321
	movq	8(%rax), %rax	# cfun.321_1->stmt, D.20963
	movq	16(%rax), %rbx	# _2->x_cond_stack, D.20964
	call	gen_label_rtx	#
	movq	%rax, 40(%rbx)	# D.20965, _3->data.cond.next_label
	.loc 1 2549 0
	movq	cfun(%rip), %rax	# cfun, cfun.322
	movq	8(%rax), %rax	# cfun.322_5->stmt, D.20963
	movq	16(%rax), %rax	# _6->x_cond_stack, D.20964
	movq	40(%rax), %rcx	# _7->data.cond.next_label, D.20965
	movq	-24(%rbp), %rax	# cond, tmp67
	movl	$0, %edx	#,
	movq	%rcx, %rsi	# D.20965,
	movq	%rax, %rdi	# tmp67,
	call	do_jump	#
	.loc 1 2550 0
	addq	$24, %rsp	#,
	popq	%rbx	#
	popq	%rbp	#
	.cfi_def_cfa 7, 8
	ret
	.cfi_endproc
.LFE44:
	.size	expand_elseif, .-expand_elseif
	.globl	expand_end_cond
	.type	expand_end_cond, @function
expand_end_cond:
.LFB45:
	.loc 1 2557 0
	.cfi_startproc
	pushq	%rbp	#
	.cfi_def_cfa_offset 16
	.cfi_offset 6, -16
	movq	%rsp, %rbp	#,
	.cfi_def_cfa_register 6
	subq	$48, %rsp	#,
	.loc 1 2558 0
	movq	cfun(%rip), %rax	# cfun, cfun.323
	movq	8(%rax), %rax	# cfun.323_1->stmt, D.20966
	movq	16(%rax), %rax	# _2->x_cond_stack, tmp129
	movq	%rax, -40(%rbp)	# tmp129, thiscond
	.loc 1 2560 0
	call	do_pending_stack_adjust	#
	.loc 1 2561 0
	movq	-40(%rbp), %rax	# thiscond, tmp130
	movq	40(%rax), %rax	# thiscond_3->data.cond.next_label, D.20967
	testq	%rax, %rax	# D.20967
	je	.L521	#,
	.loc 1 2562 0
	movq	-40(%rbp), %rax	# thiscond, tmp131
	movq	40(%rax), %rax	# thiscond_3->data.cond.next_label, D.20967
	movq	%rax, %rdi	# D.20967,
	call	emit_label	#
.L521:
	.loc 1 2563 0
	movq	-40(%rbp), %rax	# thiscond, tmp132
	movq	32(%rax), %rax	# thiscond_3->data.cond.endif_label, D.20967
	testq	%rax, %rax	# D.20967
	je	.L522	#,
	.loc 1 2564 0
	movq	-40(%rbp), %rax	# thiscond, tmp133
	movq	32(%rax), %rax	# thiscond_3->data.cond.endif_label, D.20967
	movq	%rax, %rdi	# D.20967,
	call	emit_label	#
.L522:
.LBB68:
	.loc 1 2566 0
	movq	cfun(%rip), %rax	# cfun, cfun.324
	movq	8(%rax), %rax	# cfun.324_8->stmt, D.20966
	movq	16(%rax), %rax	# _9->x_cond_stack, tmp134
	movq	%rax, -32(%rbp)	# tmp134, target
.L530:
	.loc 1 2566 0 is_stmt 0 discriminator 1
	movq	cfun(%rip), %rax	# cfun, cfun.325
	movq	8(%rax), %rax	# cfun.325_11->stmt, D.20966
	movq	40(%rax), %rax	# _12->x_nesting_stack, tmp135
	movq	%rax, -24(%rbp)	# tmp135, this
	movq	cfun(%rip), %rax	# cfun, cfun.326
	movq	8(%rax), %rax	# cfun.326_14->stmt, D.20966
	movq	24(%rax), %rax	# _15->x_loop_stack, D.20968
	cmpq	-24(%rbp), %rax	# this, D.20968
	jne	.L523	#,
	movq	cfun(%rip), %rax	# cfun, cfun.327
	movq	8(%rax), %rax	# cfun.327_17->stmt, D.20966
	movq	cfun(%rip), %rdx	# cfun, cfun.328
	movq	8(%rdx), %rdx	# cfun.328_19->stmt, D.20966
	movq	24(%rdx), %rdx	# _20->x_loop_stack, D.20968
	movq	8(%rdx), %rdx	# _21->next, D.20968
	movq	%rdx, 24(%rax)	# D.20968, _18->x_loop_stack
.L523:
	.loc 1 2566 0 discriminator 2
	movq	cfun(%rip), %rax	# cfun, cfun.329
	movq	8(%rax), %rax	# cfun.329_23->stmt, D.20966
	movq	16(%rax), %rax	# _24->x_cond_stack, D.20968
	cmpq	-24(%rbp), %rax	# this, D.20968
	jne	.L524	#,
	.loc 1 2566 0 discriminator 1
	movq	cfun(%rip), %rax	# cfun, cfun.330
	movq	8(%rax), %rax	# cfun.330_26->stmt, D.20966
	movq	cfun(%rip), %rdx	# cfun, cfun.331
	movq	8(%rdx), %rdx	# cfun.331_28->stmt, D.20966
	movq	16(%rdx), %rdx	# _29->x_cond_stack, D.20968
	movq	8(%rdx), %rdx	# _30->next, D.20968
	movq	%rdx, 16(%rax)	# D.20968, _27->x_cond_stack
.L524:
	.loc 1 2566 0 discriminator 2
	movq	cfun(%rip), %rax	# cfun, cfun.332
	movq	8(%rax), %rax	# cfun.332_32->stmt, D.20966
	movq	(%rax), %rax	# _33->x_block_stack, D.20968
	cmpq	-24(%rbp), %rax	# this, D.20968
	jne	.L525	#,
	.loc 1 2566 0 discriminator 1
	movq	cfun(%rip), %rax	# cfun, cfun.333
	movq	8(%rax), %rax	# cfun.333_35->stmt, D.20966
	movq	cfun(%rip), %rdx	# cfun, cfun.334
	movq	8(%rdx), %rdx	# cfun.334_37->stmt, D.20966
	movq	(%rdx), %rdx	# _38->x_block_stack, D.20968
	movq	8(%rdx), %rdx	# _39->next, D.20968
	movq	%rdx, (%rax)	# D.20968, _36->x_block_stack
.L525:
	.loc 1 2566 0 discriminator 2
	movq	cfun(%rip), %rax	# cfun, cfun.335
	movq	8(%rax), %rax	# cfun.335_41->stmt, D.20966
	movq	8(%rax), %rax	# _42->x_stack_block_stack, D.20968
	cmpq	-24(%rbp), %rax	# this, D.20968
	jne	.L526	#,
	.loc 1 2566 0 discriminator 1
	movq	cfun(%rip), %rax	# cfun, cfun.336
	movq	8(%rax), %rax	# cfun.336_44->stmt, D.20966
	movq	cfun(%rip), %rdx	# cfun, cfun.337
	movq	8(%rdx), %rdx	# cfun.337_46->stmt, D.20966
	movq	8(%rdx), %rdx	# _47->x_stack_block_stack, D.20968
	movq	8(%rdx), %rdx	# _48->next, D.20968
	movq	%rdx, 8(%rax)	# D.20968, _45->x_stack_block_stack
.L526:
	.loc 1 2566 0 discriminator 2
	movq	cfun(%rip), %rax	# cfun, cfun.338
	movq	8(%rax), %rax	# cfun.338_50->stmt, D.20966
	movq	32(%rax), %rax	# _51->x_case_stack, D.20968
	cmpq	-24(%rbp), %rax	# this, D.20968
	jne	.L527	#,
	.loc 1 2566 0 discriminator 1
	movq	cfun(%rip), %rax	# cfun, cfun.339
	movq	8(%rax), %rax	# cfun.339_53->stmt, D.20966
	movq	cfun(%rip), %rdx	# cfun, cfun.340
	movq	8(%rdx), %rdx	# cfun.340_55->stmt, D.20966
	movq	32(%rdx), %rdx	# _56->x_case_stack, D.20968
	movq	8(%rdx), %rdx	# _57->next, D.20968
	movq	%rdx, 32(%rax)	# D.20968, _54->x_case_stack
.L527:
	.loc 1 2566 0 discriminator 2
	movq	cfun(%rip), %rax	# cfun, cfun.341
	movq	8(%rax), %rax	# cfun.341_59->stmt, D.20966
	movq	cfun(%rip), %rdx	# cfun, cfun.342
	movq	8(%rdx), %rdx	# cfun.342_61->stmt, D.20966
	movq	40(%rdx), %rdx	# _62->x_nesting_stack, D.20968
	movl	16(%rdx), %edx	# _63->depth, D.20969
	subl	$1, %edx	#, D.20969
	movl	%edx, 48(%rax)	# D.20969, _60->x_nesting_depth
	movq	cfun(%rip), %rax	# cfun, cfun.343
	movq	8(%rax), %rax	# cfun.343_66->stmt, D.20966
	movq	-24(%rbp), %rdx	# this, tmp136
	movq	(%rdx), %rdx	# this_13->all, D.20968
	movq	%rdx, 40(%rax)	# D.20968, _67->x_nesting_stack
.LBB69:
	movq	$stmt_obstack, -16(%rbp)	#, __o
	movq	-24(%rbp), %rax	# this, tmp137
	movq	%rax, -8(%rbp)	# tmp137, __obj
	movq	-16(%rbp), %rax	# __o, tmp138
	movq	8(%rax), %rax	# __o_69->chunk, D.20970
	cmpq	-8(%rbp), %rax	# __obj, D.20970
	jae	.L528	#,
	.loc 1 2566 0 discriminator 1
	movq	-16(%rbp), %rax	# __o, tmp139
	movq	32(%rax), %rax	# __o_69->chunk_limit, D.20971
	cmpq	-8(%rbp), %rax	# __obj, D.20971
	jbe	.L528	#,
	movq	-16(%rbp), %rax	# __o, tmp140
	movq	-8(%rbp), %rdx	# __obj, tmp141
	movq	%rdx, 16(%rax)	# tmp141, __o_69->object_base
	movq	-16(%rbp), %rax	# __o, tmp142
	movq	16(%rax), %rdx	# __o_69->object_base, D.20971
	movq	-16(%rbp), %rax	# __o, tmp143
	movq	%rdx, 24(%rax)	# D.20971, __o_69->next_free
	jmp	.L529	#
.L528:
	.loc 1 2566 0 discriminator 2
	movq	-8(%rbp), %rdx	# __obj, tmp144
	movq	-16(%rbp), %rax	# __o, tmp145
	movq	%rdx, %rsi	# tmp144,
	movq	%rax, %rdi	# tmp145,
	call	obstack_free	#
.L529:
.LBE69:
	.loc 1 2566 0 discriminator 1
	movq	-24(%rbp), %rax	# this, tmp146
	cmpq	-32(%rbp), %rax	# target, tmp146
	jne	.L530	#,
.LBE68:
	.loc 1 2567 0 is_stmt 1
	movq	cfun(%rip), %rax	# cfun, cfun.344
	movq	8(%rax), %rax	# cfun.344_74->stmt, D.20966
	movq	$0, 56(%rax)	#, _75->x_last_expr_type
	.loc 1 2568 0
	leave
	.cfi_def_cfa 7, 8
	ret
	.cfi_endproc
.LFE45:
	.size	expand_end_cond, .-expand_end_cond
	.globl	expand_start_loop
	.type	expand_start_loop, @function
expand_start_loop:
.LFB46:
	.loc 1 2580 0
	.cfi_startproc
	pushq	%rbp	#
	.cfi_def_cfa_offset 16
	.cfi_offset 6, -16
	movq	%rsp, %rbp	#,
	.cfi_def_cfa_register 6
	subq	$64, %rsp	#,
	movl	%edi, -52(%rbp)	# exit_flag, exit_flag
.LBB70:
	.loc 1 2581 0
	movq	$stmt_obstack, -40(%rbp)	#, __h
.LBB71:
	movq	-40(%rbp), %rax	# __h, tmp115
	movq	%rax, -32(%rbp)	# tmp115, __o
	movl	$120, -44(%rbp)	#, __len
	movq	-32(%rbp), %rax	# __o, tmp116
	movq	32(%rax), %rax	# __o_3->chunk_limit, D.20972
	movq	%rax, %rdx	# D.20972, D.20973
	movq	-32(%rbp), %rax	# __o, tmp117
	movq	24(%rax), %rax	# __o_3->next_free, D.20972
	subq	%rax, %rdx	# D.20973, D.20973
	movl	-44(%rbp), %eax	# __len, tmp118
	cltq
	cmpq	%rax, %rdx	# D.20973, D.20973
	jge	.L532	#,
	.loc 1 2581 0 is_stmt 0 discriminator 1
	movl	-44(%rbp), %edx	# __len, tmp119
	movq	-32(%rbp), %rax	# __o, tmp120
	movl	%edx, %esi	# tmp119,
	movq	%rax, %rdi	# tmp120,
	call	_obstack_newchunk	#
.L532:
	.loc 1 2581 0 discriminator 2
	movq	-32(%rbp), %rax	# __o, tmp121
	movq	24(%rax), %rdx	# __o_3->next_free, D.20972
	movl	-44(%rbp), %eax	# __len, tmp122
	cltq
	addq	%rax, %rdx	# D.20974, D.20972
	movq	-32(%rbp), %rax	# __o, tmp123
	movq	%rdx, 24(%rax)	# D.20972, __o_3->next_free
.LBE71:
.LBB72:
	movq	-40(%rbp), %rax	# __h, tmp124
	movq	%rax, -24(%rbp)	# tmp124, __o1
	movq	-24(%rbp), %rax	# __o1, tmp125
	movq	16(%rax), %rax	# __o1_14->object_base, tmp126
	movq	%rax, -16(%rbp)	# tmp126, value
	movq	-24(%rbp), %rax	# __o1, tmp127
	movq	24(%rax), %rax	# __o1_14->next_free, D.20972
	cmpq	-16(%rbp), %rax	# value, D.20972
	jne	.L533	#,
	.loc 1 2581 0 discriminator 1
	movq	-24(%rbp), %rax	# __o1, tmp128
	movzbl	80(%rax), %edx	# __o1_14->maybe_empty_object, tmp131
	orl	$2, %edx	#, tmp132
	movb	%dl, 80(%rax)	# tmp132, __o1_14->maybe_empty_object
.L533:
	.loc 1 2581 0 discriminator 2
	movq	-24(%rbp), %rax	# __o1, tmp133
	movq	24(%rax), %rax	# __o1_14->next_free, D.20972
	movq	%rax, %rdx	# D.20972, D.20973
	movq	-24(%rbp), %rax	# __o1, tmp134
	movl	48(%rax), %eax	# __o1_14->alignment_mask, D.20975
	cltq
	addq	%rax, %rdx	# D.20973, D.20973
	movq	-24(%rbp), %rax	# __o1, tmp135
	movl	48(%rax), %eax	# __o1_14->alignment_mask, D.20975
	notl	%eax	# D.20975
	cltq
	andq	%rdx, %rax	# D.20973, D.20973
	movq	%rax, %rdx	# D.20973, D.20972
	movq	-24(%rbp), %rax	# __o1, tmp136
	movq	%rdx, 24(%rax)	# D.20972, __o1_14->next_free
	movq	-24(%rbp), %rax	# __o1, tmp137
	movq	24(%rax), %rax	# __o1_14->next_free, D.20972
	movq	%rax, %rdx	# D.20972, D.20973
	movq	-24(%rbp), %rax	# __o1, tmp138
	movq	8(%rax), %rax	# __o1_14->chunk, D.20976
	movq	%rdx, %rcx	# D.20973, D.20973
	subq	%rax, %rcx	# D.20973, D.20973
	movq	-24(%rbp), %rax	# __o1, tmp139
	movq	32(%rax), %rax	# __o1_14->chunk_limit, D.20972
	movq	%rax, %rdx	# D.20972, D.20973
	movq	-24(%rbp), %rax	# __o1, tmp140
	movq	8(%rax), %rax	# __o1_14->chunk, D.20976
	subq	%rax, %rdx	# D.20973, D.20973
	movq	%rdx, %rax	# D.20973, D.20973
	cmpq	%rax, %rcx	# D.20973, D.20973
	jle	.L534	#,
	.loc 1 2581 0 discriminator 1
	movq	-24(%rbp), %rax	# __o1, tmp141
	movq	32(%rax), %rdx	# __o1_14->chunk_limit, D.20972
	movq	-24(%rbp), %rax	# __o1, tmp142
	movq	%rdx, 24(%rax)	# D.20972, __o1_14->next_free
.L534:
	.loc 1 2581 0 discriminator 2
	movq	-24(%rbp), %rax	# __o1, tmp143
	movq	24(%rax), %rdx	# __o1_14->next_free, D.20972
	movq	-24(%rbp), %rax	# __o1, tmp144
	movq	%rdx, 16(%rax)	# D.20972, __o1_14->object_base
	movq	-16(%rbp), %rax	# value, D.20977
.LBE72:
.LBE70:
	movq	%rax, -8(%rbp)	# thisloop.345, thisloop
	.loc 1 2585 0 is_stmt 1 discriminator 2
	movq	cfun(%rip), %rax	# cfun, cfun.346
	movq	8(%rax), %rax	# cfun.346_42->stmt, D.20978
	movq	24(%rax), %rdx	# _43->x_loop_stack, D.20979
	movq	-8(%rbp), %rax	# thisloop, tmp145
	movq	%rdx, 8(%rax)	# D.20979, thisloop_41->next
	.loc 1 2586 0 discriminator 2
	movq	cfun(%rip), %rax	# cfun, cfun.347
	movq	8(%rax), %rax	# cfun.347_45->stmt, D.20978
	movq	40(%rax), %rdx	# _46->x_nesting_stack, D.20979
	movq	-8(%rbp), %rax	# thisloop, tmp146
	movq	%rdx, (%rax)	# D.20979, thisloop_41->all
	.loc 1 2587 0 discriminator 2
	movq	cfun(%rip), %rax	# cfun, cfun.348
	movq	8(%rax), %rax	# cfun.348_48->stmt, D.20978
	movl	48(%rax), %edx	# _49->x_nesting_depth, D.20975
	addl	$1, %edx	#, D.20975
	movl	%edx, 48(%rax)	# D.20975, _49->x_nesting_depth
	movl	48(%rax), %edx	# _49->x_nesting_depth, D.20975
	movq	-8(%rbp), %rax	# thisloop, tmp147
	movl	%edx, 16(%rax)	# D.20975, thisloop_41->depth
	.loc 1 2588 0 discriminator 2
	call	gen_label_rtx	#
	movq	-8(%rbp), %rdx	# thisloop, tmp148
	movq	%rax, 32(%rdx)	# D.20980, thisloop_41->data.loop.start_label
	.loc 1 2589 0 discriminator 2
	call	gen_label_rtx	#
	movq	-8(%rbp), %rdx	# thisloop, tmp149
	movq	%rax, 40(%rdx)	# D.20980, thisloop_41->data.loop.end_label
	.loc 1 2590 0 discriminator 2
	movq	-8(%rbp), %rax	# thisloop, tmp150
	movq	$0, 48(%rax)	#, thisloop_41->data.loop.alt_end_label
	.loc 1 2591 0 discriminator 2
	movq	-8(%rbp), %rax	# thisloop, tmp151
	movq	32(%rax), %rdx	# thisloop_41->data.loop.start_label, D.20980
	movq	-8(%rbp), %rax	# thisloop, tmp152
	movq	%rdx, 56(%rax)	# D.20980, thisloop_41->data.loop.continue_label
	.loc 1 2592 0 discriminator 2
	cmpl	$0, -52(%rbp)	#, exit_flag
	je	.L535	#,
	.loc 1 2592 0 is_stmt 0 discriminator 1
	movq	-8(%rbp), %rax	# thisloop, tmp153
	movq	40(%rax), %rax	# thisloop_41->data.loop.end_label, iftmp.349
	jmp	.L536	#
.L535:
	.loc 1 2592 0 discriminator 2
	movl	$0, %eax	#, iftmp.349
.L536:
	.loc 1 2592 0 discriminator 3
	movq	-8(%rbp), %rdx	# thisloop, tmp154
	movq	%rax, 24(%rdx)	# iftmp.349, thisloop_41->exit_label
	.loc 1 2593 0 is_stmt 1 discriminator 3
	movq	cfun(%rip), %rax	# cfun, cfun.350
	movq	8(%rax), %rax	# cfun.350_59->stmt, D.20978
	movq	-8(%rbp), %rdx	# thisloop, tmp155
	movq	%rdx, 24(%rax)	# tmp155, _60->x_loop_stack
	.loc 1 2594 0 discriminator 3
	movq	cfun(%rip), %rax	# cfun, cfun.351
	movq	8(%rax), %rax	# cfun.351_61->stmt, D.20978
	movq	-8(%rbp), %rdx	# thisloop, tmp156
	movq	%rdx, 40(%rax)	# tmp156, _62->x_nesting_stack
	.loc 1 2596 0 discriminator 3
	call	do_pending_stack_adjust	#
	.loc 1 2597 0 discriminator 3
	call	emit_queue	#
	.loc 1 2598 0 discriminator 3
	movl	$-96, %esi	#,
	movl	$0, %edi	#,
	call	emit_note	#
	.loc 1 2599 0 discriminator 3
	movq	-8(%rbp), %rax	# thisloop, tmp157
	movq	32(%rax), %rax	# thisloop_41->data.loop.start_label, D.20980
	movq	%rax, %rdi	# D.20980,
	call	emit_label	#
	.loc 1 2601 0 discriminator 3
	movq	-8(%rbp), %rax	# thisloop, D.20979
	.loc 1 2602 0 discriminator 3
	leave
	.cfi_def_cfa 7, 8
	ret
	.cfi_endproc
.LFE46:
	.size	expand_start_loop, .-expand_start_loop
	.globl	expand_start_loop_continue_elsewhere
	.type	expand_start_loop_continue_elsewhere, @function
expand_start_loop_continue_elsewhere:
.LFB47:
	.loc 1 2610 0
	.cfi_startproc
	pushq	%rbp	#
	.cfi_def_cfa_offset 16
	.cfi_offset 6, -16
	movq	%rsp, %rbp	#,
	.cfi_def_cfa_register 6
	pushq	%rbx	#
	subq	$40, %rsp	#,
	.cfi_offset 3, -24
	movl	%edi, -36(%rbp)	# exit_flag, exit_flag
	.loc 1 2611 0
	movl	-36(%rbp), %eax	# exit_flag, tmp65
	movl	%eax, %edi	# tmp65,
	call	expand_start_loop	#
	movq	%rax, -24(%rbp)	# tmp66, thisloop
	.loc 1 2612 0
	movq	cfun(%rip), %rax	# cfun, cfun.352
	movq	8(%rax), %rax	# cfun.352_3->stmt, D.20981
	movq	24(%rax), %rbx	# _4->x_loop_stack, D.20982
	call	gen_label_rtx	#
	movq	%rax, 56(%rbx)	# D.20983, _5->data.loop.continue_label
	.loc 1 2613 0
	movq	-24(%rbp), %rax	# thisloop, D.20982
	.loc 1 2614 0
	addq	$40, %rsp	#,
	popq	%rbx	#
	popq	%rbp	#
	.cfi_def_cfa 7, 8
	ret
	.cfi_endproc
.LFE47:
	.size	expand_start_loop_continue_elsewhere, .-expand_start_loop_continue_elsewhere
	.globl	expand_start_null_loop
	.type	expand_start_null_loop, @function
expand_start_null_loop:
.LFB48:
	.loc 1 2621 0
	.cfi_startproc
	pushq	%rbp	#
	.cfi_def_cfa_offset 16
	.cfi_offset 6, -16
	movq	%rsp, %rbp	#,
	.cfi_def_cfa_register 6
	subq	$48, %rsp	#,
.LBB73:
	.loc 1 2622 0
	movq	$stmt_obstack, -40(%rbp)	#, __h
.LBB74:
	movq	-40(%rbp), %rax	# __h, tmp114
	movq	%rax, -32(%rbp)	# tmp114, __o
	movl	$120, -44(%rbp)	#, __len
	movq	-32(%rbp), %rax	# __o, tmp115
	movq	32(%rax), %rax	# __o_2->chunk_limit, D.20984
	movq	%rax, %rdx	# D.20984, D.20985
	movq	-32(%rbp), %rax	# __o, tmp116
	movq	24(%rax), %rax	# __o_2->next_free, D.20984
	subq	%rax, %rdx	# D.20985, D.20985
	movl	-44(%rbp), %eax	# __len, tmp117
	cltq
	cmpq	%rax, %rdx	# D.20985, D.20985
	jge	.L541	#,
	.loc 1 2622 0 is_stmt 0 discriminator 1
	movl	-44(%rbp), %edx	# __len, tmp118
	movq	-32(%rbp), %rax	# __o, tmp119
	movl	%edx, %esi	# tmp118,
	movq	%rax, %rdi	# tmp119,
	call	_obstack_newchunk	#
.L541:
	.loc 1 2622 0 discriminator 2
	movq	-32(%rbp), %rax	# __o, tmp120
	movq	24(%rax), %rdx	# __o_2->next_free, D.20984
	movl	-44(%rbp), %eax	# __len, tmp121
	cltq
	addq	%rax, %rdx	# D.20986, D.20984
	movq	-32(%rbp), %rax	# __o, tmp122
	movq	%rdx, 24(%rax)	# D.20984, __o_2->next_free
.LBE74:
.LBB75:
	movq	-40(%rbp), %rax	# __h, tmp123
	movq	%rax, -24(%rbp)	# tmp123, __o1
	movq	-24(%rbp), %rax	# __o1, tmp124
	movq	16(%rax), %rax	# __o1_13->object_base, tmp125
	movq	%rax, -16(%rbp)	# tmp125, value
	movq	-24(%rbp), %rax	# __o1, tmp126
	movq	24(%rax), %rax	# __o1_13->next_free, D.20984
	cmpq	-16(%rbp), %rax	# value, D.20984
	jne	.L542	#,
	.loc 1 2622 0 discriminator 1
	movq	-24(%rbp), %rax	# __o1, tmp127
	movzbl	80(%rax), %edx	# __o1_13->maybe_empty_object, tmp130
	orl	$2, %edx	#, tmp131
	movb	%dl, 80(%rax)	# tmp131, __o1_13->maybe_empty_object
.L542:
	.loc 1 2622 0 discriminator 2
	movq	-24(%rbp), %rax	# __o1, tmp132
	movq	24(%rax), %rax	# __o1_13->next_free, D.20984
	movq	%rax, %rdx	# D.20984, D.20985
	movq	-24(%rbp), %rax	# __o1, tmp133
	movl	48(%rax), %eax	# __o1_13->alignment_mask, D.20987
	cltq
	addq	%rax, %rdx	# D.20985, D.20985
	movq	-24(%rbp), %rax	# __o1, tmp134
	movl	48(%rax), %eax	# __o1_13->alignment_mask, D.20987
	notl	%eax	# D.20987
	cltq
	andq	%rdx, %rax	# D.20985, D.20985
	movq	%rax, %rdx	# D.20985, D.20984
	movq	-24(%rbp), %rax	# __o1, tmp135
	movq	%rdx, 24(%rax)	# D.20984, __o1_13->next_free
	movq	-24(%rbp), %rax	# __o1, tmp136
	movq	24(%rax), %rax	# __o1_13->next_free, D.20984
	movq	%rax, %rdx	# D.20984, D.20985
	movq	-24(%rbp), %rax	# __o1, tmp137
	movq	8(%rax), %rax	# __o1_13->chunk, D.20988
	movq	%rdx, %rcx	# D.20985, D.20985
	subq	%rax, %rcx	# D.20985, D.20985
	movq	-24(%rbp), %rax	# __o1, tmp138
	movq	32(%rax), %rax	# __o1_13->chunk_limit, D.20984
	movq	%rax, %rdx	# D.20984, D.20985
	movq	-24(%rbp), %rax	# __o1, tmp139
	movq	8(%rax), %rax	# __o1_13->chunk, D.20988
	subq	%rax, %rdx	# D.20985, D.20985
	movq	%rdx, %rax	# D.20985, D.20985
	cmpq	%rax, %rcx	# D.20985, D.20985
	jle	.L543	#,
	.loc 1 2622 0 discriminator 1
	movq	-24(%rbp), %rax	# __o1, tmp140
	movq	32(%rax), %rdx	# __o1_13->chunk_limit, D.20984
	movq	-24(%rbp), %rax	# __o1, tmp141
	movq	%rdx, 24(%rax)	# D.20984, __o1_13->next_free
.L543:
	.loc 1 2622 0 discriminator 2
	movq	-24(%rbp), %rax	# __o1, tmp142
	movq	24(%rax), %rdx	# __o1_13->next_free, D.20984
	movq	-24(%rbp), %rax	# __o1, tmp143
	movq	%rdx, 16(%rax)	# D.20984, __o1_13->object_base
	movq	-16(%rbp), %rax	# value, D.20989
.LBE75:
.LBE73:
	movq	%rax, -8(%rbp)	# thisloop.353, thisloop
	.loc 1 2626 0 is_stmt 1 discriminator 2
	movq	cfun(%rip), %rax	# cfun, cfun.354
	movq	8(%rax), %rax	# cfun.354_41->stmt, D.20990
	movq	24(%rax), %rdx	# _42->x_loop_stack, D.20991
	movq	-8(%rbp), %rax	# thisloop, tmp144
	movq	%rdx, 8(%rax)	# D.20991, thisloop_40->next
	.loc 1 2627 0 discriminator 2
	movq	cfun(%rip), %rax	# cfun, cfun.355
	movq	8(%rax), %rax	# cfun.355_44->stmt, D.20990
	movq	40(%rax), %rdx	# _45->x_nesting_stack, D.20991
	movq	-8(%rbp), %rax	# thisloop, tmp145
	movq	%rdx, (%rax)	# D.20991, thisloop_40->all
	.loc 1 2628 0 discriminator 2
	movq	cfun(%rip), %rax	# cfun, cfun.356
	movq	8(%rax), %rax	# cfun.356_47->stmt, D.20990
	movl	48(%rax), %edx	# _48->x_nesting_depth, D.20987
	addl	$1, %edx	#, D.20987
	movl	%edx, 48(%rax)	# D.20987, _48->x_nesting_depth
	movl	48(%rax), %edx	# _48->x_nesting_depth, D.20987
	movq	-8(%rbp), %rax	# thisloop, tmp146
	movl	%edx, 16(%rax)	# D.20987, thisloop_40->depth
	.loc 1 2629 0 discriminator 2
	movl	$-99, %esi	#,
	movl	$0, %edi	#,
	call	emit_note	#
	movq	-8(%rbp), %rdx	# thisloop, tmp147
	movq	%rax, 32(%rdx)	# D.20992, thisloop_40->data.loop.start_label
	.loc 1 2630 0 discriminator 2
	call	gen_label_rtx	#
	movq	-8(%rbp), %rdx	# thisloop, tmp148
	movq	%rax, 40(%rdx)	# D.20992, thisloop_40->data.loop.end_label
	.loc 1 2631 0 discriminator 2
	movq	-8(%rbp), %rax	# thisloop, tmp149
	movq	$0, 48(%rax)	#, thisloop_40->data.loop.alt_end_label
	.loc 1 2632 0 discriminator 2
	movq	-8(%rbp), %rax	# thisloop, tmp150
	movq	40(%rax), %rdx	# thisloop_40->data.loop.end_label, D.20992
	movq	-8(%rbp), %rax	# thisloop, tmp151
	movq	%rdx, 56(%rax)	# D.20992, thisloop_40->data.loop.continue_label
	.loc 1 2633 0 discriminator 2
	movq	-8(%rbp), %rax	# thisloop, tmp152
	movq	40(%rax), %rdx	# thisloop_40->data.loop.end_label, D.20992
	movq	-8(%rbp), %rax	# thisloop, tmp153
	movq	%rdx, 24(%rax)	# D.20992, thisloop_40->exit_label
	.loc 1 2634 0 discriminator 2
	movq	cfun(%rip), %rax	# cfun, cfun.357
	movq	8(%rax), %rax	# cfun.357_56->stmt, D.20990
	movq	-8(%rbp), %rdx	# thisloop, tmp154
	movq	%rdx, 24(%rax)	# tmp154, _57->x_loop_stack
	.loc 1 2635 0 discriminator 2
	movq	cfun(%rip), %rax	# cfun, cfun.358
	movq	8(%rax), %rax	# cfun.358_58->stmt, D.20990
	movq	-8(%rbp), %rdx	# thisloop, tmp155
	movq	%rdx, 40(%rax)	# tmp155, _59->x_nesting_stack
	.loc 1 2637 0 discriminator 2
	movq	-8(%rbp), %rax	# thisloop, D.20991
	.loc 1 2638 0 discriminator 2
	leave
	.cfi_def_cfa 7, 8
	ret
	.cfi_endproc
.LFE48:
	.size	expand_start_null_loop, .-expand_start_null_loop
	.globl	expand_loop_continue_here
	.type	expand_loop_continue_here, @function
expand_loop_continue_here:
.LFB49:
	.loc 1 2647 0
	.cfi_startproc
	pushq	%rbp	#
	.cfi_def_cfa_offset 16
	.cfi_offset 6, -16
	movq	%rsp, %rbp	#,
	.cfi_def_cfa_register 6
	.loc 1 2648 0
	call	do_pending_stack_adjust	#
	.loc 1 2649 0
	movl	$-94, %esi	#,
	movl	$0, %edi	#,
	call	emit_note	#
	.loc 1 2650 0
	movq	cfun(%rip), %rax	# cfun, cfun.359
	movq	8(%rax), %rax	# cfun.359_1->stmt, D.20993
	movq	24(%rax), %rax	# _2->x_loop_stack, D.20994
	movq	56(%rax), %rax	# _3->data.loop.continue_label, D.20995
	movq	%rax, %rdi	# D.20995,
	call	emit_label	#
	.loc 1 2651 0
	popq	%rbp	#
	.cfi_def_cfa 7, 8
	ret
	.cfi_endproc
.LFE49:
	.size	expand_loop_continue_here, .-expand_loop_continue_here
	.globl	expand_end_loop
	.type	expand_end_loop, @function
expand_end_loop:
.LFB50:
	.loc 1 2658 0
	.cfi_startproc
	pushq	%rbp	#
	.cfi_def_cfa_offset 16
	.cfi_offset 6, -16
	movq	%rsp, %rbp	#,
	.cfi_def_cfa_register 6
	subq	$96, %rsp	#,
	.loc 1 2659 0
	movq	cfun(%rip), %rax	# cfun, cfun.360
	movq	8(%rax), %rax	# cfun.360_11->stmt, D.20996
	movq	24(%rax), %rax	# _12->x_loop_stack, D.20997
	movq	32(%rax), %rax	# _13->data.loop.start_label, tmp157
	movq	%rax, -80(%rbp)	# tmp157, start_label
	.loc 1 2664 0
	movq	cfun(%rip), %rax	# cfun, cfun.361
	movq	8(%rax), %rax	# cfun.361_15->stmt, D.20996
	movq	24(%rax), %rax	# _16->x_loop_stack, D.20997
	movq	56(%rax), %rax	# _17->data.loop.continue_label, D.20998
	cmpq	-80(%rbp), %rax	# start_label, D.20998
	jne	.L547	#,
	.loc 1 2665 0
	movq	-80(%rbp), %rax	# start_label, tmp158
	movq	%rax, %rsi	# tmp158,
	movl	$-94, %edi	#,
	call	emit_note_before	#
.L547:
	.loc 1 2667 0
	call	do_pending_stack_adjust	#
	.loc 1 2705 0
	movl	$0, -84(%rbp)	#, debug_blocks
	movl	-84(%rbp), %eax	# debug_blocks, tmp159
	movl	%eax, -88(%rbp)	# tmp159, eh_regions
	.loc 1 2706 0
	movq	-80(%rbp), %rax	# start_label, tmp160
	movq	%rax, -72(%rbp)	# tmp160, etc_note
	jmp	.L548	#
.L556:
	.loc 1 2707 0
	movq	-72(%rbp), %rax	# etc_note, tmp161
	movzwl	(%rax), %eax	# etc_note_2->code, D.20999
	cmpw	$37, %ax	#, D.20999
	jne	.L549	#,
	.loc 1 2709 0
	movq	-72(%rbp), %rax	# etc_note, tmp162
	movl	40(%rax), %eax	# etc_note_2->fld[4].rtint, D.21000
	cmpl	$-92, %eax	#, D.21000
	jne	.L550	#,
	.loc 1 2710 0
	jmp	.L551	#
.L550:
	.loc 1 2713 0
	movq	-72(%rbp), %rax	# etc_note, tmp163
	movl	40(%rax), %eax	# etc_note_2->fld[4].rtint, D.21000
	cmpl	$-96, %eax	#, D.21000
	jne	.L552	#,
	.loc 1 2715 0
	movq	$0, -72(%rbp)	#, etc_note
	.loc 1 2716 0
	jmp	.L551	#
.L552:
	.loc 1 2721 0
	movq	-72(%rbp), %rax	# etc_note, tmp164
	movl	40(%rax), %eax	# etc_note_2->fld[4].rtint, D.21000
	cmpl	$-86, %eax	#, D.21000
	jne	.L553	#,
	.loc 1 2722 0
	addl	$1, -88(%rbp)	#, eh_regions
	jmp	.L549	#
.L553:
	.loc 1 2723 0
	movq	-72(%rbp), %rax	# etc_note, tmp165
	movl	40(%rax), %eax	# etc_note_2->fld[4].rtint, D.21000
	cmpl	$-85, %eax	#, D.21000
	jne	.L554	#,
	.loc 1 2725 0
	subl	$1, -88(%rbp)	#, eh_regions
	cmpl	$0, -88(%rbp)	#, eh_regions
	jns	.L549	#,
	.loc 1 2733 0
	movl	$__FUNCTION__.14431, %edx	#,
	movl	$2733, %esi	#,
	movl	$.LC0, %edi	#,
	call	fancy_abort	#
.L554:
	.loc 1 2740 0
	movq	-72(%rbp), %rax	# etc_note, tmp166
	movl	40(%rax), %eax	# etc_note_2->fld[4].rtint, D.21000
	cmpl	$-98, %eax	#, D.21000
	jne	.L555	#,
	.loc 1 2741 0
	addl	$1, -84(%rbp)	#, debug_blocks
	jmp	.L549	#
.L555:
	.loc 1 2742 0
	movq	-72(%rbp), %rax	# etc_note, tmp167
	movl	40(%rax), %eax	# etc_note_2->fld[4].rtint, D.21000
	cmpl	$-97, %eax	#, D.21000
	jne	.L549	#,
	.loc 1 2743 0
	subl	$1, -84(%rbp)	#, debug_blocks
.L549:
	.loc 1 2706 0
	movq	-72(%rbp), %rax	# etc_note, tmp168
	movq	24(%rax), %rax	# etc_note_2->fld[2].rtx, tmp169
	movq	%rax, -72(%rbp)	# tmp169, etc_note
.L548:
	.loc 1 2706 0 is_stmt 0 discriminator 1
	cmpq	$0, -72(%rbp)	#, etc_note
	jne	.L556	#,
.L551:
	.loc 1 2746 0 is_stmt 1
	cmpq	$0, -72(%rbp)	#, etc_note
	je	.L557	#,
	.loc 1 2747 0
	movl	optimize(%rip), %eax	# optimize, optimize.362
	testl	%eax, %eax	# optimize.362
	je	.L557	#,
	.loc 1 2748 0
	cmpl	$0, -88(%rbp)	#, eh_regions
	jne	.L557	#,
	.loc 1 2749 0
	cmpl	$0, -84(%rbp)	#, debug_blocks
	je	.L558	#,
	.loc 1 2749 0 is_stmt 0 discriminator 1
	movl	optimize(%rip), %eax	# optimize, optimize.363
	cmpl	$1, %eax	#, optimize.363
	jle	.L557	#,
.L558:
	.loc 1 2750 0 is_stmt 1
	movq	-72(%rbp), %rax	# etc_note, tmp170
	movq	24(%rax), %rax	# etc_note_3->fld[2].rtx, D.20998
	testq	%rax, %rax	# D.20998
	je	.L557	#,
	.loc 1 2751 0
	call	get_last_insn	#
	movq	%rax, %rdi	# D.20998,
	call	any_condjump_p	#
	testl	%eax, %eax	# D.21000
	jne	.L557	#,
.LBB76:
	.loc 1 2755 0
	call	gen_label_rtx	#
	movq	%rax, -48(%rbp)	# tmp171, top_label
	.loc 1 2756 0
	movq	-80(%rbp), %rax	# start_label, tmp172
	movq	%rax, -64(%rbp)	# tmp172, start_move
	.loc 1 2760 0
	movq	-64(%rbp), %rax	# start_move, tmp173
	movq	16(%rax), %rax	# start_move_41->fld[1].rtx, D.20998
	movzwl	(%rax), %eax	# _42->code, D.20999
	cmpw	$37, %ax	#, D.20999
	jne	.L559	#,
	.loc 1 2761 0
	movq	-64(%rbp), %rax	# start_move, tmp174
	movq	16(%rax), %rax	# start_move_41->fld[1].rtx, D.20998
	movl	40(%rax), %eax	# _44->fld[4].rtint, D.21000
	cmpl	$-94, %eax	#, D.21000
	jne	.L559	#,
	.loc 1 2762 0
	movq	-64(%rbp), %rax	# start_move, tmp175
	movq	16(%rax), %rax	# start_move_41->fld[1].rtx, tmp176
	movq	%rax, -64(%rbp)	# tmp176, start_move
.L559:
	.loc 1 2764 0
	movq	-64(%rbp), %rdx	# start_move, tmp177
	movq	-48(%rbp), %rax	# top_label, tmp178
	movq	%rdx, %rsi	# tmp177,
	movq	%rax, %rdi	# tmp178,
	call	emit_label_before	#
	.loc 1 2769 0
	cmpl	$0, -84(%rbp)	#, debug_blocks
	jne	.L560	#,
	.loc 1 2770 0
	call	get_last_insn	#
	movq	%rax, %rdx	#, D.20998
	movq	-72(%rbp), %rcx	# etc_note, tmp179
	movq	-64(%rbp), %rax	# start_move, tmp180
	movq	%rcx, %rsi	# tmp179,
	movq	%rax, %rdi	# tmp180,
	call	reorder_insns	#
	jmp	.L561	#
.L560:
.LBB77:
	.loc 1 2774 0
	movq	-64(%rbp), %rax	# start_move, tmp181
	movq	%rax, -56(%rbp)	# tmp181, insn
	jmp	.L562	#
.L568:
	.loc 1 2778 0
	movq	-56(%rbp), %rax	# insn, tmp182
	cmpq	-72(%rbp), %rax	# etc_note, tmp182
	je	.L563	#,
	.loc 1 2778 0 is_stmt 0 discriminator 1
	movq	-56(%rbp), %rax	# insn, tmp183
	movq	24(%rax), %rax	# insn_9->fld[2].rtx, iftmp.364
	jmp	.L564	#
.L563:
	.loc 1 2778 0 discriminator 2
	movl	$0, %eax	#, iftmp.364
.L564:
	.loc 1 2778 0 discriminator 3
	movq	%rax, -40(%rbp)	# iftmp.364, next_insn
	.loc 1 2780 0 is_stmt 1 discriminator 3
	movq	-56(%rbp), %rax	# insn, tmp184
	movzwl	(%rax), %eax	# insn_9->code, D.20999
	cmpw	$37, %ax	#, D.20999
	jne	.L565	#,
	.loc 1 2781 0
	movq	-56(%rbp), %rax	# insn, tmp185
	movl	40(%rax), %eax	# insn_9->fld[4].rtint, D.21000
	cmpl	$-98, %eax	#, D.21000
	je	.L566	#,
	.loc 1 2782 0
	movq	-56(%rbp), %rax	# insn, tmp186
	movl	40(%rax), %eax	# insn_9->fld[4].rtint, D.21000
	cmpl	$-97, %eax	#, D.21000
	jne	.L565	#,
.L566:
	.loc 1 2783 0
	jmp	.L567	#
.L565:
	.loc 1 2785 0
	call	get_last_insn	#
	movq	%rax, %rdx	#, D.20998
	movq	-56(%rbp), %rcx	# insn, tmp187
	movq	-56(%rbp), %rax	# insn, tmp188
	movq	%rcx, %rsi	# tmp187,
	movq	%rax, %rdi	# tmp188,
	call	reorder_insns	#
.L567:
	.loc 1 2774 0
	movq	-40(%rbp), %rax	# next_insn, tmp189
	movq	%rax, -56(%rbp)	# tmp189, insn
.L562:
	.loc 1 2774 0 is_stmt 0 discriminator 1
	cmpq	$0, -56(%rbp)	#, insn
	jne	.L568	#,
.L561:
.LBE77:
	.loc 1 2790 0 is_stmt 1
	movq	-80(%rbp), %rax	# start_label, tmp190
	movq	%rax, %rdi	# tmp190,
	call	gen_jump	#
	movq	-48(%rbp), %rdx	# top_label, tmp191
	movq	%rdx, %rsi	# tmp191,
	movq	%rax, %rdi	# D.20998,
	call	emit_jump_insn_before	#
	.loc 1 2791 0
	movq	-48(%rbp), %rax	# top_label, tmp192
	movq	%rax, %rdi	# tmp192,
	call	emit_barrier_before	#
	.loc 1 2792 0
	movq	-48(%rbp), %rax	# top_label, tmp193
	movq	%rax, -80(%rbp)	# tmp193, start_label
.L557:
.LBE76:
	.loc 1 2795 0
	movq	-80(%rbp), %rax	# start_label, tmp194
	movq	%rax, %rdi	# tmp194,
	call	emit_jump	#
	.loc 1 2796 0
	movl	$-95, %esi	#,
	movl	$0, %edi	#,
	call	emit_note	#
	.loc 1 2797 0
	movq	cfun(%rip), %rax	# cfun, cfun.365
	movq	8(%rax), %rax	# cfun.365_59->stmt, D.20996
	movq	24(%rax), %rax	# _60->x_loop_stack, D.20997
	movq	40(%rax), %rax	# _61->data.loop.end_label, D.20998
	movq	%rax, %rdi	# D.20998,
	call	emit_label	#
.LBB78:
	.loc 1 2799 0
	movq	cfun(%rip), %rax	# cfun, cfun.366
	movq	8(%rax), %rax	# cfun.366_63->stmt, D.20996
	movq	24(%rax), %rax	# _64->x_loop_stack, tmp195
	movq	%rax, -32(%rbp)	# tmp195, target
.L576:
	.loc 1 2799 0 is_stmt 0 discriminator 1
	movq	cfun(%rip), %rax	# cfun, cfun.367
	movq	8(%rax), %rax	# cfun.367_66->stmt, D.20996
	movq	40(%rax), %rax	# _67->x_nesting_stack, tmp196
	movq	%rax, -24(%rbp)	# tmp196, this
	movq	cfun(%rip), %rax	# cfun, cfun.368
	movq	8(%rax), %rax	# cfun.368_69->stmt, D.20996
	movq	24(%rax), %rax	# _70->x_loop_stack, D.20997
	cmpq	-24(%rbp), %rax	# this, D.20997
	jne	.L569	#,
	movq	cfun(%rip), %rax	# cfun, cfun.369
	movq	8(%rax), %rax	# cfun.369_72->stmt, D.20996
	movq	cfun(%rip), %rdx	# cfun, cfun.370
	movq	8(%rdx), %rdx	# cfun.370_74->stmt, D.20996
	movq	24(%rdx), %rdx	# _75->x_loop_stack, D.20997
	movq	8(%rdx), %rdx	# _76->next, D.20997
	movq	%rdx, 24(%rax)	# D.20997, _73->x_loop_stack
.L569:
	.loc 1 2799 0 discriminator 2
	movq	cfun(%rip), %rax	# cfun, cfun.371
	movq	8(%rax), %rax	# cfun.371_78->stmt, D.20996
	movq	16(%rax), %rax	# _79->x_cond_stack, D.20997
	cmpq	-24(%rbp), %rax	# this, D.20997
	jne	.L570	#,
	.loc 1 2799 0 discriminator 1
	movq	cfun(%rip), %rax	# cfun, cfun.372
	movq	8(%rax), %rax	# cfun.372_81->stmt, D.20996
	movq	cfun(%rip), %rdx	# cfun, cfun.373
	movq	8(%rdx), %rdx	# cfun.373_83->stmt, D.20996
	movq	16(%rdx), %rdx	# _84->x_cond_stack, D.20997
	movq	8(%rdx), %rdx	# _85->next, D.20997
	movq	%rdx, 16(%rax)	# D.20997, _82->x_cond_stack
.L570:
	.loc 1 2799 0 discriminator 2
	movq	cfun(%rip), %rax	# cfun, cfun.374
	movq	8(%rax), %rax	# cfun.374_87->stmt, D.20996
	movq	(%rax), %rax	# _88->x_block_stack, D.20997
	cmpq	-24(%rbp), %rax	# this, D.20997
	jne	.L571	#,
	.loc 1 2799 0 discriminator 1
	movq	cfun(%rip), %rax	# cfun, cfun.375
	movq	8(%rax), %rax	# cfun.375_90->stmt, D.20996
	movq	cfun(%rip), %rdx	# cfun, cfun.376
	movq	8(%rdx), %rdx	# cfun.376_92->stmt, D.20996
	movq	(%rdx), %rdx	# _93->x_block_stack, D.20997
	movq	8(%rdx), %rdx	# _94->next, D.20997
	movq	%rdx, (%rax)	# D.20997, _91->x_block_stack
.L571:
	.loc 1 2799 0 discriminator 2
	movq	cfun(%rip), %rax	# cfun, cfun.377
	movq	8(%rax), %rax	# cfun.377_96->stmt, D.20996
	movq	8(%rax), %rax	# _97->x_stack_block_stack, D.20997
	cmpq	-24(%rbp), %rax	# this, D.20997
	jne	.L572	#,
	.loc 1 2799 0 discriminator 1
	movq	cfun(%rip), %rax	# cfun, cfun.378
	movq	8(%rax), %rax	# cfun.378_99->stmt, D.20996
	movq	cfun(%rip), %rdx	# cfun, cfun.379
	movq	8(%rdx), %rdx	# cfun.379_101->stmt, D.20996
	movq	8(%rdx), %rdx	# _102->x_stack_block_stack, D.20997
	movq	8(%rdx), %rdx	# _103->next, D.20997
	movq	%rdx, 8(%rax)	# D.20997, _100->x_stack_block_stack
.L572:
	.loc 1 2799 0 discriminator 2
	movq	cfun(%rip), %rax	# cfun, cfun.380
	movq	8(%rax), %rax	# cfun.380_105->stmt, D.20996
	movq	32(%rax), %rax	# _106->x_case_stack, D.20997
	cmpq	-24(%rbp), %rax	# this, D.20997
	jne	.L573	#,
	.loc 1 2799 0 discriminator 1
	movq	cfun(%rip), %rax	# cfun, cfun.381
	movq	8(%rax), %rax	# cfun.381_108->stmt, D.20996
	movq	cfun(%rip), %rdx	# cfun, cfun.382
	movq	8(%rdx), %rdx	# cfun.382_110->stmt, D.20996
	movq	32(%rdx), %rdx	# _111->x_case_stack, D.20997
	movq	8(%rdx), %rdx	# _112->next, D.20997
	movq	%rdx, 32(%rax)	# D.20997, _109->x_case_stack
.L573:
	.loc 1 2799 0 discriminator 2
	movq	cfun(%rip), %rax	# cfun, cfun.383
	movq	8(%rax), %rax	# cfun.383_114->stmt, D.20996
	movq	cfun(%rip), %rdx	# cfun, cfun.384
	movq	8(%rdx), %rdx	# cfun.384_116->stmt, D.20996
	movq	40(%rdx), %rdx	# _117->x_nesting_stack, D.20997
	movl	16(%rdx), %edx	# _118->depth, D.21000
	subl	$1, %edx	#, D.21000
	movl	%edx, 48(%rax)	# D.21000, _115->x_nesting_depth
	movq	cfun(%rip), %rax	# cfun, cfun.385
	movq	8(%rax), %rax	# cfun.385_121->stmt, D.20996
	movq	-24(%rbp), %rdx	# this, tmp197
	movq	(%rdx), %rdx	# this_68->all, D.20997
	movq	%rdx, 40(%rax)	# D.20997, _122->x_nesting_stack
.LBB79:
	movq	$stmt_obstack, -16(%rbp)	#, __o
	movq	-24(%rbp), %rax	# this, tmp198
	movq	%rax, -8(%rbp)	# tmp198, __obj
	movq	-16(%rbp), %rax	# __o, tmp199
	movq	8(%rax), %rax	# __o_124->chunk, D.21001
	cmpq	-8(%rbp), %rax	# __obj, D.21001
	jae	.L574	#,
	.loc 1 2799 0 discriminator 1
	movq	-16(%rbp), %rax	# __o, tmp200
	movq	32(%rax), %rax	# __o_124->chunk_limit, D.21002
	cmpq	-8(%rbp), %rax	# __obj, D.21002
	jbe	.L574	#,
	movq	-16(%rbp), %rax	# __o, tmp201
	movq	-8(%rbp), %rdx	# __obj, tmp202
	movq	%rdx, 16(%rax)	# tmp202, __o_124->object_base
	movq	-16(%rbp), %rax	# __o, tmp203
	movq	16(%rax), %rdx	# __o_124->object_base, D.21002
	movq	-16(%rbp), %rax	# __o, tmp204
	movq	%rdx, 24(%rax)	# D.21002, __o_124->next_free
	jmp	.L575	#
.L574:
	.loc 1 2799 0 discriminator 2
	movq	-8(%rbp), %rdx	# __obj, tmp205
	movq	-16(%rbp), %rax	# __o, tmp206
	movq	%rdx, %rsi	# tmp205,
	movq	%rax, %rdi	# tmp206,
	call	obstack_free	#
.L575:
.LBE79:
	.loc 1 2799 0 discriminator 1
	movq	-24(%rbp), %rax	# this, tmp207
	cmpq	-32(%rbp), %rax	# target, tmp207
	jne	.L576	#,
.LBE78:
	.loc 1 2801 0 is_stmt 1
	movq	cfun(%rip), %rax	# cfun, cfun.386
	movq	8(%rax), %rax	# cfun.386_129->stmt, D.20996
	movq	$0, 56(%rax)	#, _130->x_last_expr_type
	.loc 1 2802 0
	leave
	.cfi_def_cfa 7, 8
	ret
	.cfi_endproc
.LFE50:
	.size	expand_end_loop, .-expand_end_loop
	.globl	expand_end_null_loop
	.type	expand_end_null_loop, @function
expand_end_null_loop:
.LFB51:
	.loc 1 2808 0
	.cfi_startproc
	pushq	%rbp	#
	.cfi_def_cfa_offset 16
	.cfi_offset 6, -16
	movq	%rsp, %rbp	#,
	.cfi_def_cfa_register 6
	subq	$32, %rsp	#,
	.loc 1 2809 0
	call	do_pending_stack_adjust	#
	.loc 1 2810 0
	movq	cfun(%rip), %rax	# cfun, cfun.387
	movq	8(%rax), %rax	# cfun.387_1->stmt, D.21003
	movq	24(%rax), %rax	# _2->x_loop_stack, D.21004
	movq	40(%rax), %rax	# _3->data.loop.end_label, D.21005
	movq	%rax, %rdi	# D.21005,
	call	emit_label	#
.LBB80:
	.loc 1 2812 0
	movq	cfun(%rip), %rax	# cfun, cfun.388
	movq	8(%rax), %rax	# cfun.388_5->stmt, D.21003
	movq	24(%rax), %rax	# _6->x_loop_stack, tmp127
	movq	%rax, -32(%rbp)	# tmp127, target
.L585:
	.loc 1 2812 0 is_stmt 0 discriminator 1
	movq	cfun(%rip), %rax	# cfun, cfun.389
	movq	8(%rax), %rax	# cfun.389_8->stmt, D.21003
	movq	40(%rax), %rax	# _9->x_nesting_stack, tmp128
	movq	%rax, -24(%rbp)	# tmp128, this
	movq	cfun(%rip), %rax	# cfun, cfun.390
	movq	8(%rax), %rax	# cfun.390_11->stmt, D.21003
	movq	24(%rax), %rax	# _12->x_loop_stack, D.21004
	cmpq	-24(%rbp), %rax	# this, D.21004
	jne	.L578	#,
	movq	cfun(%rip), %rax	# cfun, cfun.391
	movq	8(%rax), %rax	# cfun.391_14->stmt, D.21003
	movq	cfun(%rip), %rdx	# cfun, cfun.392
	movq	8(%rdx), %rdx	# cfun.392_16->stmt, D.21003
	movq	24(%rdx), %rdx	# _17->x_loop_stack, D.21004
	movq	8(%rdx), %rdx	# _18->next, D.21004
	movq	%rdx, 24(%rax)	# D.21004, _15->x_loop_stack
.L578:
	.loc 1 2812 0 discriminator 2
	movq	cfun(%rip), %rax	# cfun, cfun.393
	movq	8(%rax), %rax	# cfun.393_20->stmt, D.21003
	movq	16(%rax), %rax	# _21->x_cond_stack, D.21004
	cmpq	-24(%rbp), %rax	# this, D.21004
	jne	.L579	#,
	.loc 1 2812 0 discriminator 1
	movq	cfun(%rip), %rax	# cfun, cfun.394
	movq	8(%rax), %rax	# cfun.394_23->stmt, D.21003
	movq	cfun(%rip), %rdx	# cfun, cfun.395
	movq	8(%rdx), %rdx	# cfun.395_25->stmt, D.21003
	movq	16(%rdx), %rdx	# _26->x_cond_stack, D.21004
	movq	8(%rdx), %rdx	# _27->next, D.21004
	movq	%rdx, 16(%rax)	# D.21004, _24->x_cond_stack
.L579:
	.loc 1 2812 0 discriminator 2
	movq	cfun(%rip), %rax	# cfun, cfun.396
	movq	8(%rax), %rax	# cfun.396_29->stmt, D.21003
	movq	(%rax), %rax	# _30->x_block_stack, D.21004
	cmpq	-24(%rbp), %rax	# this, D.21004
	jne	.L580	#,
	.loc 1 2812 0 discriminator 1
	movq	cfun(%rip), %rax	# cfun, cfun.397
	movq	8(%rax), %rax	# cfun.397_32->stmt, D.21003
	movq	cfun(%rip), %rdx	# cfun, cfun.398
	movq	8(%rdx), %rdx	# cfun.398_34->stmt, D.21003
	movq	(%rdx), %rdx	# _35->x_block_stack, D.21004
	movq	8(%rdx), %rdx	# _36->next, D.21004
	movq	%rdx, (%rax)	# D.21004, _33->x_block_stack
.L580:
	.loc 1 2812 0 discriminator 2
	movq	cfun(%rip), %rax	# cfun, cfun.399
	movq	8(%rax), %rax	# cfun.399_38->stmt, D.21003
	movq	8(%rax), %rax	# _39->x_stack_block_stack, D.21004
	cmpq	-24(%rbp), %rax	# this, D.21004
	jne	.L581	#,
	.loc 1 2812 0 discriminator 1
	movq	cfun(%rip), %rax	# cfun, cfun.400
	movq	8(%rax), %rax	# cfun.400_41->stmt, D.21003
	movq	cfun(%rip), %rdx	# cfun, cfun.401
