	.file	"tree-inline.c"
# GNU C (Ubuntu/Linaro 4.8.1-10ubuntu9) version 4.8.1 (x86_64-linux-gnu)
#	compiled by GNU C version 4.8.1, GMP version 5.1.2, MPFR version 3.1.1-p2, MPC version 1.0.1
# GGC heuristics: --param ggc-min-expand=100 --param ggc-min-heapsize=131072
# options passed:  -I . -imultiarch x86_64-linux-gnu -D SPEC_CPU -D NDEBUG
# -D SPEC_CPU_LP64 tree-inline.c -mtune=generic -march=x86-64 -g
# -fverbose-asm -fno-strict-aliasing -fstack-protector -Wformat
# -Wformat-security
# options enabled:  -faggressive-loop-optimizations
# -fasynchronous-unwind-tables -fauto-inc-dec -fbranch-count-reg -fcommon
# -fdelete-null-pointer-checks -fdwarf2-cfi-asm -fearly-inlining
# -feliminate-unused-debug-types -ffunction-cse -fgcse-lm -fgnu-runtime
# -fident -finline-atomics -fira-hoist-pressure -fira-share-save-slots
# -fira-share-spill-slots -fivopts -fkeep-static-consts
# -fleading-underscore -fmath-errno -fmerge-debug-strings
# -fmove-loop-invariants -fpeephole -fprefetch-loop-arrays
# -freg-struct-return -fsched-critical-path-heuristic
# -fsched-dep-count-heuristic -fsched-group-heuristic -fsched-interblock
# -fsched-last-insn-heuristic -fsched-rank-heuristic -fsched-spec
# -fsched-spec-insn-heuristic -fsched-stalled-insns-dep -fshow-column
# -fsigned-zeros -fsplit-ivs-in-unroller -fstack-protector
# -fstrict-volatile-bitfields -fsync-libcalls -ftrapping-math
# -ftree-coalesce-vars -ftree-cselim -ftree-forwprop -ftree-loop-if-convert
# -ftree-loop-im -ftree-loop-ivcanon -ftree-loop-optimize
# -ftree-parallelize-loops= -ftree-phiprop -ftree-pta -ftree-reassoc
# -ftree-scev-cprop -ftree-slp-vectorize -ftree-vect-loop-version
# -funit-at-a-time -funwind-tables -fverbose-asm -fzero-initialized-in-bss
# -m128bit-long-double -m64 -m80387 -maccumulate-outgoing-args
# -malign-stringops -mfancy-math-387 -mfp-ret-in-387 -mfxsr -mglibc
# -mieee-fp -mlong-double-80 -mmmx -mno-sse4 -mpush-args -mred-zone -msse
# -msse2 -mtls-direct-seg-refs

	.text
.Ltext0:
	.globl	flag_inline_trees
	.bss
	.align 4
	.type	flag_inline_trees, @object
	.size	flag_inline_trees, 4
flag_inline_trees:
	.zero	4
	.section	.rodata
.LC0:
	.string	"tree-inline.c"
	.text
	.type	remap_decl, @function
remap_decl:
.LFB2:
	.file 1 "tree-inline.c"
	.loc 1 127 0
	.cfi_startproc
	pushq	%rbp	#
	.cfi_def_cfa_offset 16
	.cfi_offset 6, -16
	movq	%rsp, %rbp	#,
	.cfi_def_cfa_register 6
	pushq	%rbx	#
	subq	$72, %rsp	#,
	.cfi_offset 3, -24
	movq	%rdi, -72(%rbp)	# decl, decl
	movq	%rsi, -80(%rbp)	# id, id
	.loc 1 132 0
	movq	-80(%rbp), %rax	# id, tmp97
	movq	(%rax), %rax	# id_5(D)->fns, D.13881
	movq	-80(%rbp), %rdx	# id, tmp98
	movq	(%rdx), %rdx	# id_5(D)->fns, D.13881
	movq	8(%rdx), %rdx	# _7->elements_used, D.13882
	subq	$1, %rdx	#, D.13882
	addq	$4, %rdx	#, tmp99
	movq	(%rax,%rdx,8), %rax	# _6->data.tree, tmp100
	movq	%rax, -40(%rbp)	# tmp100, fn
	.loc 1 133 0
	movq	lang_hooks+192(%rip), %rax	# lang_hooks.tree_inlining.auto_var_in_fn_p, D.13883
	movq	-40(%rbp), %rcx	# fn, tmp101
	movq	-72(%rbp), %rdx	# decl, tmp102
	movq	%rcx, %rsi	# tmp101,
	movq	%rdx, %rdi	# tmp102,
	call	*%rax	# D.13883
	testl	%eax, %eax	# D.13884
	jne	.L2	#,
	.loc 1 134 0
	movl	$0, %eax	#, D.13880
	jmp	.L3	#
.L2:
	.loc 1 137 0
	movq	-72(%rbp), %rdx	# decl, decl.0
	movq	-80(%rbp), %rax	# id, tmp103
	movq	24(%rax), %rax	# id_5(D)->decl_map, D.13885
	movq	%rdx, %rsi	# decl.0,
	movq	%rax, %rdi	# D.13885,
	call	splay_tree_lookup	#
	movq	%rax, -64(%rbp)	# tmp104, n
	.loc 1 140 0
	cmpq	$0, -64(%rbp)	#, n
	jne	.L4	#,
.LBB2:
	.loc 1 146 0
	movq	-80(%rbp), %rax	# id, tmp105
	movq	(%rax), %rax	# id_5(D)->fns, D.13881
	.loc 1 145 0
	movq	32(%rax), %rdx	# _18->data.tree, D.13886
	movq	-40(%rbp), %rcx	# fn, tmp106
	movq	-72(%rbp), %rax	# decl, tmp107
	movq	%rcx, %rsi	# tmp106,
	movq	%rax, %rdi	# tmp107,
	call	copy_decl_for_inlining	#
	movq	%rax, -32(%rbp)	# tmp108, t
	.loc 1 151 0
	movq	-32(%rbp), %rax	# t, tmp109
	movq	8(%rax), %rax	# t_20->common.type, D.13886
	testq	%rax, %rax	# D.13886
	je	.L5	#,
	.loc 1 151 0 is_stmt 0 discriminator 1
	movq	-32(%rbp), %rax	# t, tmp110
	movq	8(%rax), %rax	# t_20->common.type, D.13886
	movzbl	16(%rax), %eax	# _22->common.code, D.13887
	cmpb	$18, %al	#, D.13887
	jne	.L5	#,
	.loc 1 152 0 is_stmt 1
	movq	-32(%rbp), %rax	# t, tmp111
	movq	8(%rax), %rax	# t_20->common.type, D.13886
	movq	24(%rax), %rax	# _24->type.values, D.13886
	testq	%rax, %rax	# D.13886
	je	.L5	#,
	.loc 1 154 0
	movq	-32(%rbp), %rax	# t, tmp112
	movq	8(%rax), %rax	# t_20->common.type, D.13886
	movq	%rax, %rdi	# D.13886,
	call	copy_node	#
	movq	-32(%rbp), %rdx	# t, tmp113
	movq	%rax, 8(%rdx)	# D.13886, t_20->common.type
	.loc 1 155 0
	movq	-32(%rbp), %rax	# t, tmp114
	movq	8(%rax), %rbx	# t_20->common.type, D.13886
	.loc 1 156 0
	movq	-32(%rbp), %rax	# t, tmp115
	movq	8(%rax), %rax	# t_20->common.type, D.13886
	movq	24(%rax), %rax	# _29->type.values, D.13886
	movq	%rax, %rdi	# D.13886,
	call	copy_node	#
	movq	%rax, 24(%rbx)	# D.13886, _28->type.values
	.loc 1 157 0
	movq	-32(%rbp), %rax	# t, tmp116
	movq	8(%rax), %rax	# t_20->common.type, D.13886
	movq	24(%rax), %rax	# _32->type.values, D.13886
	leaq	112(%rax), %rdi	#, D.13888
	movq	-80(%rbp), %rax	# id, tmp117
	movl	$0, %ecx	#,
	movq	%rax, %rdx	# tmp117,
	movl	$copy_body_r, %esi	#,
	call	walk_tree	#
.L5:
	.loc 1 161 0
	movq	-32(%rbp), %rax	# t, tmp118
	movq	72(%rax), %rax	# t_20->decl.name, D.13886
	testq	%rax, %rax	# D.13886
	jne	.L6	#,
	.loc 1 161 0 is_stmt 0 discriminator 1
	movq	-32(%rbp), %rax	# t, tmp119
	movq	8(%rax), %rax	# t_20->common.type, D.13886
	testq	%rax, %rax	# D.13886
	je	.L6	#,
	.loc 1 162 0 is_stmt 1
	movq	lang_hooks+208(%rip), %rax	# lang_hooks.tree_inlining.anon_aggr_type_p, D.13889
	movq	-32(%rbp), %rdx	# t, tmp120
	movq	8(%rdx), %rdx	# t_20->common.type, D.13886
	movq	%rdx, %rdi	# D.13886,
	call	*%rax	# D.13889
	testl	%eax, %eax	# D.13884
	je	.L6	#,
.LBB3:
	.loc 1 167 0
	movq	$0, -56(%rbp)	#, members
	.loc 1 170 0
	movq	-32(%rbp), %rax	# t, tmp121
	movq	88(%rax), %rax	# t_20->decl.arguments, tmp122
	movq	%rax, -48(%rbp)	# tmp122, src
	jmp	.L7	#
.L9:
.LBB4:
	.loc 1 173 0
	movq	-48(%rbp), %rax	# src, tmp123
	movq	32(%rax), %rax	# src_3->list.value, D.13886
	movq	-80(%rbp), %rdx	# id, tmp124
	movq	%rdx, %rsi	# tmp124,
	movq	%rax, %rdi	# D.13886,
	call	remap_decl	#
	movq	%rax, -24(%rbp)	# tmp125, member
	.loc 1 175 0
	movq	-48(%rbp), %rax	# src, tmp126
	movq	24(%rax), %rax	# src_3->list.purpose, D.13886
	testq	%rax, %rax	# D.13886
	je	.L8	#,
	.loc 1 176 0
	movl	$__FUNCTION__.12657, %edx	#,
	movl	$176, %esi	#,
	movl	$.LC0, %edi	#,
	call	fancy_abort	#
.L8:
	.loc 1 177 0
	movq	-56(%rbp), %rdx	# members, tmp127
	movq	-24(%rbp), %rax	# member, tmp128
	movq	%rax, %rsi	# tmp128,
	movl	$0, %edi	#,
	call	tree_cons	#
	movq	%rax, -56(%rbp)	# tmp129, members
.LBE4:
	.loc 1 171 0
	movq	-48(%rbp), %rax	# src, tmp130
	movq	(%rax), %rax	# src_3->common.chain, tmp131
	movq	%rax, -48(%rbp)	# tmp131, src
.L7:
	.loc 1 170 0 discriminator 1
	cmpq	$0, -48(%rbp)	#, src
	jne	.L9	#,
	.loc 1 179 0
	movq	-56(%rbp), %rax	# members, tmp132
	movq	%rax, %rdi	# tmp132,
	call	nreverse	#
	movq	-32(%rbp), %rdx	# t, tmp133
	movq	%rax, 88(%rdx)	# D.13886, t_20->decl.arguments
.L6:
.LBE3:
	.loc 1 184 0
	movq	-32(%rbp), %rdx	# t, t.1
	movq	-72(%rbp), %rcx	# decl, decl.2
	movq	-80(%rbp), %rax	# id, tmp134
	movq	24(%rax), %rax	# id_5(D)->decl_map, D.13885
	movq	%rcx, %rsi	# decl.2,
	movq	%rax, %rdi	# D.13885,
	call	splay_tree_insert	#
	movq	%rax, -64(%rbp)	# tmp135, n
.L4:
.LBE2:
	.loc 1 189 0
	movq	-64(%rbp), %rax	# n, tmp136
	movq	8(%rax), %rax	# n_1->value, D.13882
.L3:
	.loc 1 190 0
	addq	$72, %rsp	#,
	popq	%rbx	#
	popq	%rbp	#
	.cfi_def_cfa 7, 8
	ret
	.cfi_endproc
.LFE2:
	.size	remap_decl, .-remap_decl
	.type	remap_block, @function
remap_block:
.LFB3:
	.loc 1 202 0
	.cfi_startproc
	pushq	%rbp	#
	.cfi_def_cfa_offset 16
	.cfi_offset 6, -16
	movq	%rsp, %rbp	#,
	.cfi_def_cfa_register 6
	subq	$96, %rsp	#,
	movq	%rdi, -72(%rbp)	# scope_stmt, scope_stmt
	movq	%rsi, -80(%rbp)	# decls, decls
	movq	%rdx, -88(%rbp)	# id, id
	.loc 1 210 0
	movq	-88(%rbp), %rax	# id, tmp87
	movl	32(%rax), %eax	# id_4(D)->in_target_cleanup_p, D.13891
	testl	%eax, %eax	# D.13891
	je	.L11	#,
	.loc 1 212 0
	movq	-72(%rbp), %rax	# scope_stmt, tmp88
	movq	$0, 32(%rax)	#, scope_stmt_6(D)->exp.operands
	.loc 1 213 0
	jmp	.L10	#
.L11:
	.loc 1 217 0
	movq	-72(%rbp), %rax	# scope_stmt, tmp89
	movzbl	19(%rax), %eax	# *scope_stmt_6(D), D.13892
	andl	$1, %eax	#, D.13892
	testb	%al, %al	# D.13892
	je	.L13	#,
	.loc 1 217 0 is_stmt 0 discriminator 1
	movq	-72(%rbp), %rax	# scope_stmt, tmp90
	movq	32(%rax), %rax	# scope_stmt_6(D)->exp.operands, D.13893
	testq	%rax, %rax	# D.13893
	je	.L13	#,
.LBB5:
	.loc 1 225 0 is_stmt 1
	movq	-72(%rbp), %rax	# scope_stmt, tmp91
	movq	32(%rax), %rax	# scope_stmt_6(D)->exp.operands, tmp92
	movq	%rax, -40(%rbp)	# tmp92, old_block
	.loc 1 226 0
	movl	$4, %edi	#,
	call	make_node	#
	movq	%rax, -32(%rbp)	# tmp93, new_block
	.loc 1 227 0
	movq	-40(%rbp), %rax	# old_block, tmp94
	movzbl	18(%rax), %eax	# *old_block_10, tmp97
	andl	$1, %eax	#, D.13894
	movl	%eax, %edx	# D.13894, D.13894
	movq	-32(%rbp), %rax	# new_block, tmp98
	movl	%edx, %ecx	# D.13894, tmp100
	andl	$1, %ecx	#, tmp100
	movzbl	18(%rax), %edx	#, tmp101
	andl	$-2, %edx	#, tmp102
	orl	%ecx, %edx	# tmp100, tmp103
	movb	%dl, 18(%rax)	# tmp103,
	.loc 1 228 0
	movq	-32(%rbp), %rax	# new_block, tmp104
	movq	-40(%rbp), %rdx	# old_block, tmp105
	movq	%rdx, 56(%rax)	# tmp105, new_block_11->block.abstract_origin
	.loc 1 229 0
	movq	-72(%rbp), %rax	# scope_stmt, tmp106
	movq	-32(%rbp), %rdx	# new_block, tmp107
	movq	%rdx, 32(%rax)	# tmp107, scope_stmt_6(D)->exp.operands
	.loc 1 232 0
	cmpq	$0, -80(%rbp)	#, decls
	jne	.L14	#,
	.loc 1 232 0 is_stmt 0 discriminator 1
	movq	-40(%rbp), %rax	# old_block, tmp108
	movq	32(%rax), %rax	# old_block_10->block.vars, iftmp.3
	jmp	.L15	#
.L14:
	.loc 1 232 0 discriminator 2
	movq	-80(%rbp), %rax	# decls, iftmp.3
.L15:
	.loc 1 232 0 discriminator 3
	movq	%rax, -56(%rbp)	# iftmp.3, old_var
	jmp	.L16	#
.L18:
.LBB6:
	.loc 1 239 0 is_stmt 1
	movq	-88(%rbp), %rdx	# id, tmp109
	movq	-56(%rbp), %rax	# old_var, tmp110
	movq	%rdx, %rsi	# tmp109,
	movq	%rax, %rdi	# tmp110,
	call	remap_decl	#
	movq	%rax, -24(%rbp)	# tmp111, new_var
	.loc 1 245 0
	cmpq	$0, -24(%rbp)	#, new_var
	je	.L17	#,
	.loc 1 245 0 is_stmt 0 discriminator 1
	movq	-24(%rbp), %rax	# new_var, tmp112
	movzbl	16(%rax), %eax	# new_var_17->common.code, D.13892
	movzbl	%al, %eax	# D.13892, D.13891
	cltq
	movzbl	tree_code_type(%rax), %eax	# tree_code_type, D.13895
	cmpb	$100, %al	#, D.13895
	jne	.L17	#,
	.loc 1 249 0 is_stmt 1
	movq	-32(%rbp), %rax	# new_block, tmp114
	movq	32(%rax), %rdx	# new_block_11->block.vars, D.13893
	movq	-24(%rbp), %rax	# new_var, tmp115
	movq	%rdx, (%rax)	# D.13893, new_var_17->common.chain
	.loc 1 250 0
	movq	-32(%rbp), %rax	# new_block, tmp116
	movq	-24(%rbp), %rdx	# new_var, tmp117
	movq	%rdx, 32(%rax)	# tmp117, new_block_11->block.vars
.L17:
.LBE6:
	.loc 1 234 0
	movq	-56(%rbp), %rax	# old_var, tmp118
	movq	(%rax), %rax	# old_var_1->common.chain, tmp119
	movq	%rax, -56(%rbp)	# tmp119, old_var
.L16:
	.loc 1 232 0 discriminator 1
	cmpq	$0, -56(%rbp)	#, old_var
	jne	.L18	#,
	.loc 1 254 0
	movq	-32(%rbp), %rax	# new_block, tmp120
	movq	32(%rax), %rax	# new_block_11->block.vars, D.13893
	movq	%rax, %rdi	# D.13893,
	call	nreverse	#
	movq	-32(%rbp), %rdx	# new_block, tmp121
	movq	%rax, 32(%rdx)	# D.13893, new_block_11->block.vars
	.loc 1 255 0
	movq	-88(%rbp), %rax	# id, tmp122
	movq	(%rax), %rax	# id_4(D)->fns, D.13896
	movq	32(%rax), %rax	# _25->data.tree, tmp123
	movq	%rax, -16(%rbp)	# tmp123, fn
	.loc 1 256 0
	movq	-88(%rbp), %rax	# id, tmp124
	movzbl	60(%rax), %eax	# id_4(D)->cloning_p, D.13897
	testb	%al, %al	# D.13897
	je	.L19	#,
	.loc 1 260 0
	movq	-32(%rbp), %rax	# new_block, tmp125
	movq	%rax, %rdi	# tmp125,
	call	insert_block	#
	jmp	.L20	#
.L19:
.LBB7:
	.loc 1 267 0
	movq	-16(%rbp), %rax	# fn, tmp126
	movq	104(%rax), %rax	# fn_26->decl.initial, D.13893
	testq	%rax, %rax	# D.13893
	je	.L21	#,
	.loc 1 268 0
	movq	-16(%rbp), %rax	# fn, tmp127
	movq	104(%rax), %rax	# fn_26->decl.initial, D.13893
	movq	%rax, -48(%rbp)	# D.13893, first_block
	jmp	.L22	#
.L21:
	.loc 1 270 0
	movq	-16(%rbp), %rax	# fn, tmp131
	addq	$104, %rax	#, tmp130
	movq	%rax, -48(%rbp)	# tmp130, first_block
.L22:
	.loc 1 271 0
	movq	-48(%rbp), %rax	# first_block, tmp132
	movq	(%rax), %rdx	# *first_block_2, D.13893
	movq	-32(%rbp), %rax	# new_block, tmp133
	movq	%rdx, (%rax)	# D.13893, new_block_11->common.chain
	.loc 1 272 0
	movq	-48(%rbp), %rax	# first_block, tmp134
	movq	-32(%rbp), %rdx	# new_block, tmp135
	movq	%rdx, (%rax)	# tmp135, *first_block_2
.L20:
.LBE7:
	.loc 1 275 0
	movq	-32(%rbp), %rdx	# new_block, new_block.4
	movq	-40(%rbp), %rcx	# old_block, old_block.5
	movq	-88(%rbp), %rax	# id, tmp136
	movq	24(%rax), %rax	# id_4(D)->decl_map, D.13898
	movq	%rcx, %rsi	# old_block.5,
	movq	%rax, %rdi	# D.13898,
	call	splay_tree_insert	#
.LBE5:
	.loc 1 218 0
	jmp	.L10	#
.L13:
	.loc 1 281 0
	movq	-72(%rbp), %rax	# scope_stmt, tmp137
	movzbl	19(%rax), %eax	# *scope_stmt_6(D), D.13892
	andl	$1, %eax	#, D.13892
	testb	%al, %al	# D.13892
	jne	.L10	#,
	.loc 1 281 0 is_stmt 0 discriminator 1
	movq	-72(%rbp), %rax	# scope_stmt, tmp138
	movq	32(%rax), %rax	# scope_stmt_6(D)->exp.operands, D.13893
	testq	%rax, %rax	# D.13893
	je	.L10	#,
.LBB8:
	.loc 1 287 0 is_stmt 1
	movq	-72(%rbp), %rax	# scope_stmt, tmp139
	movq	32(%rax), %rax	# scope_stmt_6(D)->exp.operands, D.13893
	.loc 1 286 0
	movq	%rax, %rdx	# D.13893, D.13899
	movq	-88(%rbp), %rax	# id, tmp140
	movq	24(%rax), %rax	# id_4(D)->decl_map, D.13898
	movq	%rdx, %rsi	# D.13899,
	movq	%rax, %rdi	# D.13898,
	call	splay_tree_lookup	#
	movq	%rax, -8(%rbp)	# tmp141, n
	.loc 1 288 0
	cmpq	$0, -8(%rbp)	#, n
	jne	.L23	#,
	.loc 1 289 0
	movl	$__FUNCTION__.12676, %edx	#,
	movl	$289, %esi	#,
	movl	$.LC0, %edi	#,
	call	fancy_abort	#
.L23:
	.loc 1 290 0
	movq	-8(%rbp), %rax	# n, tmp142
	movq	8(%rax), %rax	# n_42->value, D.13899
	movq	%rax, %rdx	# D.13899, D.13893
	movq	-72(%rbp), %rax	# scope_stmt, tmp143
	movq	%rdx, 32(%rax)	# D.13893, scope_stmt_6(D)->exp.operands
.L10:
.LBE8:
	.loc 1 292 0
	leave
	.cfi_def_cfa 7, 8
	ret
	.cfi_endproc
.LFE3:
	.size	remap_block, .-remap_block
	.type	copy_scope_stmt, @function
copy_scope_stmt:
.LFB4:
	.loc 1 301 0
	.cfi_startproc
	pushq	%rbp	#
	.cfi_def_cfa_offset 16
	.cfi_offset 6, -16
	movq	%rsp, %rbp	#,
	.cfi_def_cfa_register 6
	subq	$48, %rsp	#,
	movq	%rdi, -24(%rbp)	# tp, tp
	movq	%rsi, -32(%rbp)	# walk_subtrees, walk_subtrees
	movq	%rdx, -40(%rbp)	# id, id
	.loc 1 308 0
	movq	-24(%rbp), %rax	# tp, tmp62
	movq	(%rax), %rax	# *tp_1(D), D.13900
	movq	32(%rax), %rax	# _2->exp.operands, tmp63
	movq	%rax, -8(%rbp)	# tmp63, block
	.loc 1 310 0
	movq	-32(%rbp), %rcx	# walk_subtrees, tmp64
	movq	-24(%rbp), %rax	# tp, tmp65
	movl	$0, %edx	#,
	movq	%rcx, %rsi	# tmp64,
	movq	%rax, %rdi	# tmp65,
	call	copy_tree_r	#
	.loc 1 312 0
	movq	-24(%rbp), %rax	# tp, tmp66
	movq	(%rax), %rax	# *tp_1(D), D.13900
	movq	-8(%rbp), %rdx	# block, tmp67
	movq	%rdx, 32(%rax)	# tmp67, _5->exp.operands
	.loc 1 315 0
	movq	-24(%rbp), %rax	# tp, tmp68
	movq	(%rax), %rax	# *tp_1(D), D.13900
	movq	-40(%rbp), %rdx	# id, tmp69
	movl	$0, %esi	#,
	movq	%rax, %rdi	# D.13900,
	call	remap_block	#
	.loc 1 316 0
	leave
	.cfi_def_cfa 7, 8
	ret
	.cfi_endproc
.LFE4:
	.size	copy_scope_stmt, .-copy_scope_stmt
	.type	copy_body_r, @function
copy_body_r:
.LFB5:
	.loc 1 326 0
	.cfi_startproc
	pushq	%rbp	#
	.cfi_def_cfa_offset 16
	.cfi_offset 6, -16
	movq	%rsp, %rbp	#,
	.cfi_def_cfa_register 6
	subq	$96, %rsp	#,
	movq	%rdi, -72(%rbp)	# tp, tp
	movq	%rsi, -80(%rbp)	# walk_subtrees, walk_subtrees
	movq	%rdx, -88(%rbp)	# data, data
	.loc 1 331 0
	movq	-88(%rbp), %rax	# data, tmp134
	movq	%rax, -48(%rbp)	# tmp134, id
	.loc 1 332 0
	movq	-48(%rbp), %rax	# id, tmp135
	movq	(%rax), %rax	# id_4->fns, D.13901
	movq	-48(%rbp), %rdx	# id, tmp136
	movq	(%rdx), %rdx	# id_4->fns, D.13901
	movq	8(%rdx), %rdx	# _6->elements_used, D.13902
	subq	$1, %rdx	#, D.13902
	addq	$4, %rdx	#, tmp137
	movq	(%rax,%rdx,8), %rax	# _5->data.tree, tmp138
	movq	%rax, -40(%rbp)	# tmp138, fn
	.loc 1 345 0
	movq	-72(%rbp), %rax	# tp, tmp139
	movq	(%rax), %rax	# *tp_10(D), D.13903
	movzbl	16(%rax), %eax	# _11->common.code, D.13904
	cmpb	$-97, %al	#, D.13904
	jne	.L26	#,
	.loc 1 345 0 is_stmt 0 discriminator 1
	movq	-48(%rbp), %rax	# id, tmp140
	movq	16(%rax), %rax	# id_4->ret_label, D.13903
	testq	%rax, %rax	# D.13903
	je	.L26	#,
.LBB9:
	.loc 1 347 0 is_stmt 1
	movq	-72(%rbp), %rax	# tp, tmp141
	movq	(%rax), %rax	# *tp_10(D), tmp142
	movq	%rax, -32(%rbp)	# tmp142, return_stmt
	.loc 1 351 0
	movq	-48(%rbp), %rax	# id, tmp143
	movq	16(%rax), %rax	# id_4->ret_label, D.13903
	movq	%rax, %rsi	# D.13903,
	movl	$163, %edi	#,
	movl	$0, %eax	#,
	call	build_stmt	#
	movq	%rax, -24(%rbp)	# tmp144, goto_stmt
	.loc 1 352 0
	movq	-32(%rbp), %rax	# return_stmt, tmp145
	movq	(%rax), %rdx	# return_stmt_14->common.chain, D.13903
	movq	-24(%rbp), %rax	# goto_stmt, tmp146
	movq	%rdx, (%rax)	# D.13903, goto_stmt_16->common.chain
	.loc 1 353 0
	movq	-24(%rbp), %rax	# goto_stmt, tmp147
	movzbl	19(%rax), %edx	#, tmp150
	orl	$1, %edx	#, tmp151
	movb	%dl, 19(%rax)	# tmp151,
	.loc 1 358 0
	movq	-32(%rbp), %rax	# return_stmt, tmp152
	movq	32(%rax), %rax	# return_stmt_14->exp.operands, D.13903
	testq	%rax, %rax	# D.13903
	je	.L27	#,
	.loc 1 360 0
	movq	-32(%rbp), %rax	# return_stmt, tmp153
	movq	32(%rax), %rax	# return_stmt_14->exp.operands, D.13903
	movq	%rax, %rsi	# D.13903,
	movl	$152, %edi	#,
	movl	$0, %eax	#,
	call	build_stmt	#
	movq	-72(%rbp), %rdx	# tp, tmp154
	movq	%rax, (%rdx)	# D.13903, *tp_10(D)
	.loc 1 362 0
	movq	-72(%rbp), %rax	# tp, tmp155
	movq	(%rax), %rax	# *tp_10(D), D.13903
	movzbl	19(%rax), %edx	#, tmp158
	orl	$2, %edx	#, tmp159
	movb	%dl, 19(%rax)	# tmp159,
	.loc 1 364 0
	movq	-72(%rbp), %rax	# tp, tmp160
	movq	(%rax), %rax	# *tp_10(D), D.13903
	movq	-24(%rbp), %rdx	# goto_stmt, tmp161
	movq	%rdx, (%rax)	# tmp161, _22->common.chain
.LBE9:
	.loc 1 346 0
	jmp	.L29	#
.L27:
.LBB10:
	.loc 1 368 0
	movq	-72(%rbp), %rax	# tp, tmp162
	movq	-24(%rbp), %rdx	# goto_stmt, tmp163
	movq	%rdx, (%rax)	# tmp163, *tp_10(D)
.LBE10:
	.loc 1 346 0
	jmp	.L29	#
.L26:
	.loc 1 374 0
	movq	lang_hooks+192(%rip), %rax	# lang_hooks.tree_inlining.auto_var_in_fn_p, D.13905
	movq	-72(%rbp), %rdx	# tp, tmp164
	movq	(%rdx), %rdx	# *tp_10(D), D.13903
	movq	-40(%rbp), %rcx	# fn, tmp165
	movq	%rcx, %rsi	# tmp165,
	movq	%rdx, %rdi	# D.13903,
	call	*%rax	# D.13905
	testl	%eax, %eax	# D.13906
	je	.L30	#,
.LBB11:
	.loc 1 379 0
	movq	-72(%rbp), %rax	# tp, tmp166
	movq	(%rax), %rax	# *tp_10(D), D.13903
	movq	-48(%rbp), %rdx	# id, tmp167
	movq	%rdx, %rsi	# tmp167,
	movq	%rax, %rdi	# D.13903,
	call	remap_decl	#
	movq	%rax, -64(%rbp)	# tmp168, new_decl
	.loc 1 380 0
	cmpq	$0, -64(%rbp)	#, new_decl
	jne	.L31	#,
	.loc 1 381 0
	movl	$__FUNCTION__.12693, %edx	#,
	movl	$381, %esi	#,
	movl	$.LC0, %edi	#,
	call	fancy_abort	#
.L31:
	.loc 1 383 0
	jmp	.L32	#
.L35:
	.loc 1 383 0 is_stmt 0 discriminator 1
	movq	-64(%rbp), %rax	# new_decl, tmp169
	movq	32(%rax), %rax	# new_decl_1->exp.operands, tmp170
	movq	%rax, -64(%rbp)	# tmp170, new_decl
.L32:
	movq	-64(%rbp), %rax	# new_decl, tmp171
	movzbl	16(%rax), %eax	# new_decl_1->common.code, D.13904
	cmpb	$115, %al	#, D.13904
	je	.L33	#,
	.loc 1 383 0 discriminator 3
	movq	-64(%rbp), %rax	# new_decl, tmp172
	movzbl	16(%rax), %eax	# new_decl_1->common.code, D.13904
	cmpb	$114, %al	#, D.13904
	je	.L33	#,
	.loc 1 383 0 discriminator 1
	movq	-64(%rbp), %rax	# new_decl, tmp173
	movzbl	16(%rax), %eax	# new_decl_1->common.code, D.13904
	cmpb	$116, %al	#, D.13904
	jne	.L34	#,
.L33:
	.loc 1 383 0 discriminator 2
	movq	-64(%rbp), %rax	# new_decl, tmp174
	movq	32(%rax), %rdx	# new_decl_1->exp.operands, D.13903
	movq	global_trees(%rip), %rax	# global_trees, D.13903
	cmpq	%rax, %rdx	# D.13903, D.13903
	je	.L34	#,
	.loc 1 383 0 discriminator 1
	movq	-64(%rbp), %rax	# new_decl, tmp175
	movq	8(%rax), %rdx	# new_decl_1->common.type, D.13903
	movq	-64(%rbp), %rax	# new_decl, tmp176
	movq	32(%rax), %rax	# new_decl_1->exp.operands, D.13903
	movq	8(%rax), %rax	# _34->common.type, D.13903
	cmpq	%rax, %rdx	# D.13903, D.13903
	je	.L35	#,
.L34:
	.loc 1 384 0 is_stmt 1
	movq	-72(%rbp), %rax	# tp, tmp177
	movq	-64(%rbp), %rdx	# new_decl, tmp178
	movq	%rdx, (%rax)	# tmp178, *tp_10(D)
.LBE11:
	jmp	.L29	#
.L30:
	.loc 1 391 0
	movq	-72(%rbp), %rax	# tp, tmp179
	movq	(%rax), %rax	# *tp_10(D), D.13903
	movzbl	16(%rax), %eax	# _37->common.code, D.13904
	cmpb	$118, %al	#, D.13904
	jne	.L36	#,
	.loc 1 392 0
	movq	-48(%rbp), %rax	# id, tmp180
	movq	(%rax), %rax	# id_4->fns, D.13901
	movq	32(%rax), %rdx	# _39->data.tree, D.13903
	movq	-48(%rbp), %rax	# id, tmp181
	movq	24(%rax), %rsi	# id_4->decl_map, D.13907
	movq	-80(%rbp), %rcx	# walk_subtrees, tmp182
	movq	-72(%rbp), %rax	# tp, tmp183
	movq	%rax, %rdi	# tmp183,
	call	remap_save_expr	#
	jmp	.L29	#
.L36:
	.loc 1 394 0
	movq	-72(%rbp), %rax	# tp, tmp184
	movq	(%rax), %rax	# *tp_10(D), D.13903
	movzbl	16(%rax), %eax	# _43->common.code, D.13904
	cmpb	$119, %al	#, D.13904
	jne	.L37	#,
	.loc 1 396 0
	movl	$__FUNCTION__.12693, %edx	#,
	movl	$396, %esi	#,
	movl	$.LC0, %edi	#,
	call	fancy_abort	#
.L37:
	.loc 1 399 0
	movq	-72(%rbp), %rax	# tp, tmp185
	movq	(%rax), %rax	# *tp_10(D), D.13903
	movzbl	16(%rax), %eax	# _45->common.code, D.13904
	cmpb	$-90, %al	#, D.13904
	jne	.L38	#,
	.loc 1 399 0 is_stmt 0 discriminator 1
	movq	-48(%rbp), %rax	# id, tmp186
	movl	32(%rax), %eax	# id_4->in_target_cleanup_p, D.13906
	testl	%eax, %eax	# D.13906
	jne	.L38	#,
	.loc 1 400 0 is_stmt 1
	movq	-48(%rbp), %rdx	# id, tmp187
	movq	-80(%rbp), %rcx	# walk_subtrees, tmp188
	movq	-72(%rbp), %rax	# tp, tmp189
	movq	%rcx, %rsi	# tmp188,
	movq	%rax, %rdi	# tmp189,
	call	copy_scope_stmt	#
	jmp	.L29	#
.L38:
	.loc 1 405 0
	movq	-80(%rbp), %rcx	# walk_subtrees, tmp190
	movq	-72(%rbp), %rax	# tp, tmp191
	movl	$0, %edx	#,
	movq	%rcx, %rsi	# tmp190,
	movq	%rax, %rdi	# tmp191,
	call	copy_tree_r	#
	.loc 1 409 0
	movq	-72(%rbp), %rax	# tp, tmp192
	movq	(%rax), %rax	# *tp_10(D), D.13903
	movzbl	16(%rax), %eax	# _48->common.code, D.13904
	cmpb	$50, %al	#, D.13904
	jne	.L39	#,
	.loc 1 409 0 is_stmt 0 discriminator 1
	movq	-72(%rbp), %rax	# tp, tmp193
	movq	(%rax), %rax	# *tp_10(D), D.13903
	movq	56(%rax), %rax	# _50->exp.operands, D.13903
	testq	%rax, %rax	# D.13903
	je	.L39	#,
	.loc 1 411 0 is_stmt 1
	movq	-72(%rbp), %rax	# tp, tmp194
	movq	(%rax), %rax	# *tp_10(D), D.13903
	movq	-72(%rbp), %rdx	# tp, tmp195
	movq	(%rdx), %rdx	# *tp_10(D), D.13903
	movq	56(%rdx), %rdx	# _53->exp.operands, D.13903
	movq	%rdx, 40(%rax)	# D.13903, _52->exp.operands
	.loc 1 412 0
	movq	-72(%rbp), %rax	# tp, tmp196
	movq	(%rax), %rax	# *tp_10(D), D.13903
	movq	$0, 56(%rax)	#, _55->exp.operands
	jmp	.L29	#
.L39:
	.loc 1 414 0
	movq	-72(%rbp), %rax	# tp, tmp197
	movq	(%rax), %rax	# *tp_10(D), D.13903
	movzbl	16(%rax), %eax	# _56->common.code, D.13904
	cmpb	$48, %al	#, D.13904
	jne	.L29	#,
	.loc 1 415 0
	movq	-72(%rbp), %rax	# tp, tmp198
	movq	(%rax), %rax	# *tp_10(D), D.13903
	movq	32(%rax), %rdx	# _58->exp.operands, D.13903
	movq	-72(%rbp), %rax	# tp, tmp199
	movq	(%rax), %rax	# *tp_10(D), D.13903
	movq	40(%rax), %rax	# _60->exp.operands, D.13903
	cmpq	%rax, %rdx	# D.13903, D.13903
	jne	.L29	#,
	.loc 1 417 0
	movq	lang_hooks+192(%rip), %rax	# lang_hooks.tree_inlining.auto_var_in_fn_p, D.13905
	movq	-72(%rbp), %rdx	# tp, tmp200
	movq	(%rdx), %rdx	# *tp_10(D), D.13903
	movq	32(%rdx), %rdx	# _63->exp.operands, D.13903
	movq	-40(%rbp), %rcx	# fn, tmp201
	movq	%rcx, %rsi	# tmp201,
	movq	%rdx, %rdi	# D.13903,
	call	*%rax	# D.13905
	.loc 1 416 0
	testl	%eax, %eax	# D.13906
	je	.L29	#,
.LBB12:
	.loc 1 422 0
	movq	-72(%rbp), %rax	# tp, tmp202
	movq	(%rax), %rax	# *tp_10(D), D.13903
	movq	32(%rax), %rax	# _66->exp.operands, tmp203
	movq	%rax, -16(%rbp)	# tmp203, decl
	.loc 1 425 0
	movq	-16(%rbp), %rdx	# decl, decl.6
	movq	-48(%rbp), %rax	# id, tmp204
	movq	24(%rax), %rax	# id_4->decl_map, D.13907
	movq	%rdx, %rsi	# decl.6,
	movq	%rax, %rdi	# D.13907,
	call	splay_tree_lookup	#
	movq	%rax, -8(%rbp)	# tmp205, n
	.loc 1 426 0
	cmpq	$0, -8(%rbp)	#, n
	je	.L29	#,
	.loc 1 428 0
	movq	-8(%rbp), %rax	# n, tmp206
	movq	8(%rax), %rax	# n_70->value, D.13902
	movq	%rax, -56(%rbp)	# D.13902, value
	.loc 1 429 0
	jmp	.L40	#
.L43:
	.loc 1 429 0 is_stmt 0 discriminator 1
	movq	-56(%rbp), %rax	# value, tmp207
	movq	32(%rax), %rax	# value_2->exp.operands, tmp208
	movq	%rax, -56(%rbp)	# tmp208, value
.L40:
	movq	-56(%rbp), %rax	# value, tmp209
	movzbl	16(%rax), %eax	# value_2->common.code, D.13904
	cmpb	$115, %al	#, D.13904
	je	.L41	#,
	.loc 1 429 0 discriminator 3
	movq	-56(%rbp), %rax	# value, tmp210
	movzbl	16(%rax), %eax	# value_2->common.code, D.13904
	cmpb	$114, %al	#, D.13904
	je	.L41	#,
	.loc 1 429 0 discriminator 1
	movq	-56(%rbp), %rax	# value, tmp211
	movzbl	16(%rax), %eax	# value_2->common.code, D.13904
	cmpb	$116, %al	#, D.13904
	jne	.L42	#,
.L41:
	.loc 1 429 0 discriminator 2
	movq	-56(%rbp), %rax	# value, tmp212
	movq	32(%rax), %rdx	# value_2->exp.operands, D.13903
	movq	global_trees(%rip), %rax	# global_trees, D.13903
	cmpq	%rax, %rdx	# D.13903, D.13903
	je	.L42	#,
	.loc 1 429 0 discriminator 1
	movq	-56(%rbp), %rax	# value, tmp213
	movq	8(%rax), %rdx	# value_2->common.type, D.13903
	movq	-56(%rbp), %rax	# value, tmp214
	movq	32(%rax), %rax	# value_2->exp.operands, D.13903
	movq	8(%rax), %rax	# _79->common.type, D.13903
	cmpq	%rax, %rdx	# D.13903, D.13903
	je	.L43	#,
.L42:
	.loc 1 430 0 is_stmt 1
	movq	-56(%rbp), %rax	# value, tmp215
	movzbl	17(%rax), %eax	# *value_2, D.13904
	andl	$2, %eax	#, D.13904
	testb	%al, %al	# D.13904
	jne	.L44	#,
	.loc 1 430 0 is_stmt 0 discriminator 1
	movq	-56(%rbp), %rax	# value, tmp216
	movzbl	17(%rax), %eax	# *value_2, D.13904
	andl	$16, %eax	#, D.13904
	testb	%al, %al	# D.13904
	je	.L29	#,
	movq	-56(%rbp), %rax	# value, tmp217
	movzbl	16(%rax), %eax	# value_2->common.code, D.13904
	movzbl	%al, %eax	# D.13904, D.13906
	cltq
	movzbl	tree_code_type(%rax), %eax	# tree_code_type, D.13908
	cmpb	$100, %al	#, D.13908
	jne	.L29	#,
.L44:
	.loc 1 431 0 is_stmt 1
	movq	-72(%rbp), %rax	# tp, tmp219
	movq	-56(%rbp), %rdx	# value, tmp220
	movq	%rdx, (%rax)	# tmp220, *tp_10(D)
.L29:
.LBE12:
	.loc 1 437 0
	movl	$0, %eax	#, D.13909
	.loc 1 438 0
	leave
	.cfi_def_cfa 7, 8
	ret
	.cfi_endproc
.LFE5:
	.size	copy_body_r, .-copy_body_r
	.type	copy_body, @function
copy_body:
.LFB6:
	.loc 1 446 0
	.cfi_startproc
	pushq	%rbp	#
	.cfi_def_cfa_offset 16
	.cfi_offset 6, -16
	movq	%rsp, %rbp	#,
	.cfi_def_cfa_register 6
	subq	$32, %rsp	#,
	movq	%rdi, -24(%rbp)	# id, id
	.loc 1 449 0
	movq	-24(%rbp), %rax	# id, tmp67
	movq	(%rax), %rax	# id_1(D)->fns, D.13910
	movq	-24(%rbp), %rdx	# id, tmp68
	movq	(%rdx), %rdx	# id_1(D)->fns, D.13910
	movq	8(%rdx), %rdx	# _3->elements_used, D.13911
	subq	$1, %rdx	#, D.13911
	addq	$4, %rdx	#, tmp69
	movq	(%rax,%rdx,8), %rax	# _2->data.tree, D.13912
	movq	168(%rax), %rax	# _6->decl.saved_tree, body.7
	movq	%rax, -8(%rbp)	# body.7, body
	.loc 1 450 0
	movq	-24(%rbp), %rdx	# id, tmp70
	leaq	-8(%rbp), %rax	#, tmp71
	movl	$0, %ecx	#,
	movl	$copy_body_r, %esi	#,
	movq	%rax, %rdi	# tmp71,
	call	walk_tree	#
	.loc 1 452 0
	movq	-8(%rbp), %rax	# body, D.13913
	.loc 1 453 0
	leave
	.cfi_def_cfa 7, 8
	ret
	.cfi_endproc
.LFE6:
	.size	copy_body, .-copy_body
	.type	initialize_inlined_parameters, @function
initialize_inlined_parameters:
.LFB7:
	.loc 1 463 0
	.cfi_startproc
	pushq	%rbp	#
	.cfi_def_cfa_offset 16
	.cfi_offset 6, -16
	movq	%rsp, %rbp	#,
	.cfi_def_cfa_register 6
	addq	$-128, %rsp	#,
	movq	%rdi, -104(%rbp)	# id, id
	movq	%rsi, -112(%rbp)	# args, args
	movq	%rdx, -120(%rbp)	# fn, fn
	.loc 1 470 0
	movq	-120(%rbp), %rax	# fn, tmp100
	movq	88(%rax), %rax	# fn_14(D)->decl.arguments, tmp101
	movq	%rax, -56(%rbp)	# tmp101, parms
	.loc 1 473 0
	movq	$0, -88(%rbp)	#, init_stmts
	.loc 1 477 0
	movq	-56(%rbp), %rax	# parms, tmp102
	movq	%rax, -72(%rbp)	# tmp102, p
	movq	-112(%rbp), %rax	# args, tmp103
	movq	%rax, -80(%rbp)	# tmp103, a
	jmp	.L49	#
.L62:
.LBB13:
	.loc 1 487 0
	movq	lang_hooks+232(%rip), %rcx	# lang_hooks.tree_inlining.convert_parm_for_inlining, D.13914
	cmpq	$0, -80(%rbp)	#, a
	je	.L50	#,
	.loc 1 487 0 is_stmt 0 discriminator 1
	movq	-80(%rbp), %rax	# a, tmp104
	movq	32(%rax), %rax	# a_6->list.value, iftmp.8
	jmp	.L51	#
.L50:
	.loc 1 487 0 discriminator 2
	movl	$0, %eax	#, iftmp.8
.L51:
	.loc 1 486 0 is_stmt 1
	movq	-120(%rbp), %rdx	# fn, tmp105
	movq	-72(%rbp), %rdi	# p, tmp106
	movq	%rax, %rsi	# iftmp.8,
	call	*%rcx	# D.13914
	movq	%rax, -64(%rbp)	# tmp107, value
	.loc 1 492 0
	movq	-72(%rbp), %rax	# p, tmp108
	movzbl	17(%rax), %eax	# *p_8, D.13915
	andl	$16, %eax	#, D.13915
	testb	%al, %al	# D.13915
	je	.L52	#,
	.loc 1 493 0
	movq	-72(%rbp), %rax	# p, tmp109
	movzbl	17(%rax), %eax	# *p_8, D.13915
	andl	$4, %eax	#, D.13915
	testb	%al, %al	# D.13915
	jne	.L52	#,
	.loc 1 494 0
	cmpq	$0, -64(%rbp)	#, value
	je	.L52	#,
	.loc 1 494 0 is_stmt 0 discriminator 1
	movq	-64(%rbp), %rax	# value, tmp110
	movzbl	17(%rax), %eax	# *value_23, D.13915
	andl	$1, %eax	#, D.13915
	testb	%al, %al	# D.13915
	jne	.L52	#,
	.loc 1 497 0 is_stmt 1
	movq	-64(%rbp), %rax	# value, tmp111
	movzbl	16(%rax), %eax	# value_23->common.code, D.13915
	movzbl	%al, %eax	# D.13915, D.13916
	cltq
	movzbl	tree_code_type(%rax), %eax	# tree_code_type, D.13917
	cmpb	$100, %al	#, D.13917
	jne	.L53	#,
	.loc 1 497 0 is_stmt 0 discriminator 1
	movq	-64(%rbp), %rax	# value, tmp113
	movq	%rax, %rdi	# tmp113,
	call	decl_constant_value	#
	jmp	.L54	#
.L53:
	.loc 1 497 0 discriminator 2
	movq	-64(%rbp), %rax	# value, iftmp.9
.L54:
	.loc 1 497 0 discriminator 3
	movq	%rax, %rdi	# iftmp.9,
	call	fold	#
	movq	%rax, -64(%rbp)	# tmp114, value
	.loc 1 504 0 is_stmt 1 discriminator 3
	movq	-64(%rbp), %rax	# value, tmp115
	movzbl	17(%rax), %eax	# *value_35, D.13915
	andl	$2, %eax	#, D.13915
	testb	%al, %al	# D.13915
	jne	.L55	#,
	.loc 1 504 0 is_stmt 0 discriminator 1
	movq	-64(%rbp), %rax	# value, tmp116
	movzbl	17(%rax), %eax	# *value_35, D.13915
	andl	$16, %eax	#, D.13915
	testb	%al, %al	# D.13915
	je	.L52	#,
	movq	-64(%rbp), %rax	# value, tmp117
	movzbl	16(%rax), %eax	# value_35->common.code, D.13915
	movzbl	%al, %eax	# D.13915, D.13916
	cltq
	movzbl	tree_code_type(%rax), %eax	# tree_code_type, D.13917
	cmpb	$100, %al	#, D.13917
	jne	.L52	#,
.L55:
	.loc 1 509 0 is_stmt 1
	movq	-64(%rbp), %rax	# value, tmp119
	movzbl	16(%rax), %eax	# value_35->common.code, D.13915
	movzbl	%al, %eax	# D.13915, D.13916
	cltq
	movzbl	tree_code_type(%rax), %eax	# tree_code_type, D.13917
	cmpb	$100, %al	#, D.13917
	jne	.L56	#,
	.loc 1 510 0
	movq	-64(%rbp), %rax	# value, tmp121
	movq	8(%rax), %rax	# value_35->common.type, D.13918
	movq	-64(%rbp), %rdx	# value, tmp122
	movq	%rax, %rsi	# D.13918,
	movl	$115, %edi	#,
	call	build1	#
	movq	%rax, -64(%rbp)	# tmp123, value
.L56:
	.loc 1 512 0
	movq	-64(%rbp), %rdx	# value, value.10
	movq	-72(%rbp), %rcx	# p, p.11
	movq	-104(%rbp), %rax	# id, tmp124
	movq	24(%rax), %rax	# id_50(D)->decl_map, D.13919
	movq	%rcx, %rsi	# p.11,
	movq	%rax, %rdi	# D.13919,
	call	splay_tree_insert	#
	.loc 1 515 0
	jmp	.L57	#
.L52:
	.loc 1 520 0
	movq	-104(%rbp), %rax	# id, tmp125
	movq	(%rax), %rax	# id_50(D)->fns, D.13920
	movq	32(%rax), %rdx	# _52->data.tree, D.13918
	movq	-120(%rbp), %rcx	# fn, tmp126
	movq	-72(%rbp), %rax	# p, tmp127
	movq	%rcx, %rsi	# tmp126,
	movq	%rax, %rdi	# tmp127,
	call	copy_decl_for_inlining	#
	movq	%rax, -48(%rbp)	# tmp128, var
	.loc 1 524 0
	movq	-48(%rbp), %rdx	# var, var.12
	movq	-72(%rbp), %rcx	# p, p.13
	movq	-104(%rbp), %rax	# id, tmp129
	movq	24(%rax), %rax	# id_50(D)->decl_map, D.13919
	movq	%rcx, %rsi	# p.13,
	movq	%rax, %rdi	# D.13919,
	call	splay_tree_insert	#
	.loc 1 529 0
	movq	-48(%rbp), %rax	# var, tmp130
	movq	%rax, %rsi	# tmp130,
	movl	$154, %edi	#,
	movl	$0, %eax	#,
	call	build_stmt	#
	movq	%rax, -40(%rbp)	# tmp131, init_stmt
	.loc 1 530 0
	movq	-40(%rbp), %rax	# init_stmt, tmp132
	movq	-88(%rbp), %rdx	# init_stmts, tmp133
	movq	%rdx, (%rax)	# tmp133, init_stmt_58->common.chain
	.loc 1 531 0
	movq	-40(%rbp), %rax	# init_stmt, tmp134
	movq	%rax, -88(%rbp)	# tmp134, init_stmts
	.loc 1 538 0
	movq	-72(%rbp), %rax	# p, tmp135
	movq	8(%rax), %rax	# p_8->common.type, D.13918
	movzbl	62(%rax), %eax	# *_60, D.13915
	andl	$4, %eax	#, D.13915
	testb	%al, %al	# D.13915
	jne	.L58	#,
	.loc 1 539 0
	movq	-48(%rbp), %rax	# var, tmp136
	movq	-64(%rbp), %rdx	# value, tmp137
	movq	%rdx, 104(%rax)	# tmp137, var_54->decl.initial
	jmp	.L59	#
.L58:
	.loc 1 551 0
	movq	-48(%rbp), %rax	# var, tmp138
	movzbl	17(%rax), %edx	#, tmp141
	andl	$-17, %edx	#, tmp142
	movb	%dl, 17(%rax)	# tmp142,
	.loc 1 554 0
	movq	-72(%rbp), %rax	# p, tmp143
	movq	8(%rax), %rax	# p_8->common.type, D.13918
	movq	-64(%rbp), %rcx	# value, tmp144
	movq	-48(%rbp), %rdx	# var, tmp145
	movq	%rax, %rsi	# D.13918,
	movl	$49, %edi	#,
	movl	$0, %eax	#,
	call	build	#
	movq	%rax, %rsi	# D.13918,
	movl	$152, %edi	#,
	movl	$0, %eax	#,
	call	build_stmt	#
	movq	%rax, -40(%rbp)	# tmp146, init_stmt
	.loc 1 560 0
	movq	-40(%rbp), %rax	# init_stmt, tmp147
	movq	-88(%rbp), %rdx	# init_stmts, tmp148
	movq	%rdx, (%rax)	# tmp148, init_stmt_65->common.chain
	.loc 1 561 0
	movq	-40(%rbp), %rax	# init_stmt, tmp149
	movq	%rax, -88(%rbp)	# tmp149, init_stmts
.L59:
	.loc 1 565 0
	movq	-48(%rbp), %rax	# var, tmp150
	movq	%rax, %rdi	# tmp150,
	call	maybe_build_cleanup	#
	movq	%rax, -32(%rbp)	# tmp151, cleanup
	.loc 1 566 0
	cmpq	$0, -32(%rbp)	#, cleanup
	je	.L57	#,
.LBB14:
	.loc 1 570 0
	movq	-32(%rbp), %rdx	# cleanup, tmp152
	movq	-48(%rbp), %rax	# var, tmp153
	movq	%rax, %rsi	# tmp153,
	movl	$171, %edi	#,
	movl	$0, %eax	#,
	call	build_stmt	#
	movq	%rax, -24(%rbp)	# tmp154, cleanup_stmt
	.loc 1 573 0
	movq	-24(%rbp), %rax	# cleanup_stmt, tmp155
	movq	-88(%rbp), %rdx	# init_stmts, tmp156
	movq	%rdx, (%rax)	# tmp156, cleanup_stmt_68->common.chain
	.loc 1 574 0
	movq	-24(%rbp), %rax	# cleanup_stmt, tmp157
	movq	%rax, -88(%rbp)	# tmp157, init_stmts
.L57:
.LBE14:
.LBE13:
	.loc 1 478 0
	cmpq	$0, -80(%rbp)	#, a
	je	.L60	#,
	.loc 1 478 0 is_stmt 0 discriminator 1
	movq	-80(%rbp), %rax	# a, tmp158
	movq	(%rax), %rax	# a_6->common.chain, iftmp.14
	jmp	.L61	#
.L60:
	.loc 1 478 0 discriminator 2
	movq	-80(%rbp), %rax	# a, iftmp.14
.L61:
	.loc 1 478 0 discriminator 3
	movq	%rax, -80(%rbp)	# iftmp.14, a
	movq	-72(%rbp), %rax	# p, tmp159
	movq	(%rax), %rax	# p_8->common.chain, tmp160
	movq	%rax, -72(%rbp)	# tmp160, p
.L49:
	.loc 1 477 0 is_stmt 1 discriminator 1
	cmpq	$0, -72(%rbp)	#, p
	jne	.L62	#,
	.loc 1 579 0
	jmp	.L63	#
.L67:
.LBB15:
	.loc 1 582 0
	movq	-80(%rbp), %rax	# a, tmp161
	movq	32(%rax), %rax	# a_7->list.value, tmp162
	movq	%rax, -16(%rbp)	# tmp162, value
	.loc 1 584 0
	cmpq	$0, -16(%rbp)	#, value
	je	.L64	#,
	.loc 1 584 0 is_stmt 0 discriminator 1
	movq	-16(%rbp), %rax	# value, tmp163
	movzbl	17(%rax), %eax	# *value_74, D.13915
	andl	$1, %eax	#, D.13915
	testb	%al, %al	# D.13915
	jne	.L65	#,
.L64:
	.loc 1 585 0 is_stmt 1
	jmp	.L66	#
.L65:
	.loc 1 587 0
	movq	-16(%rbp), %rax	# value, tmp164
	movq	%rax, %rsi	# tmp164,
	movl	$152, %edi	#,
	movl	$0, %eax	#,
	call	build_stmt	#
	movq	%rax, -8(%rbp)	# tmp165, init_stmt
	.loc 1 588 0
	movq	-8(%rbp), %rax	# init_stmt, tmp166
	movq	-88(%rbp), %rdx	# init_stmts, tmp167
	movq	%rdx, (%rax)	# tmp167, init_stmt_77->common.chain
	.loc 1 589 0
	movq	-8(%rbp), %rax	# init_stmt, tmp168
	movq	%rax, -88(%rbp)	# tmp168, init_stmts
.L66:
.LBE15:
	.loc 1 579 0
	movq	-80(%rbp), %rax	# a, tmp169
	movq	(%rax), %rax	# a_7->common.chain, tmp170
	movq	%rax, -80(%rbp)	# tmp170, a
.L63:
	.loc 1 579 0 is_stmt 0 discriminator 1
	cmpq	$0, -80(%rbp)	#, a
	jne	.L67	#,
	.loc 1 594 0 is_stmt 1
	movq	-88(%rbp), %rax	# init_stmts, tmp171
	movq	%rax, %rdi	# tmp171,
	call	nreverse	#
	.loc 1 595 0
	leave
	.cfi_def_cfa 7, 8
	ret
	.cfi_endproc
.LFE7:
	.size	initialize_inlined_parameters, .-initialize_inlined_parameters
	.type	declare_return_variable, @function
declare_return_variable:
.LFB8:
	.loc 1 606 0
	.cfi_startproc
	pushq	%rbp	#
	.cfi_def_cfa_offset 16
	.cfi_offset 6, -16
	movq	%rsp, %rbp	#,
	.cfi_def_cfa_register 6
	subq	$48, %rsp	#,
	movq	%rdi, -40(%rbp)	# id, id
	movq	%rsi, -48(%rbp)	# use_stmt, use_stmt
	.loc 1 607 0
	movq	-40(%rbp), %rax	# id, tmp85
	movq	(%rax), %rax	# id_2(D)->fns, D.13923
	movq	-40(%rbp), %rdx	# id, tmp86
	movq	(%rdx), %rdx	# id_2(D)->fns, D.13923
	movq	8(%rdx), %rdx	# _4->elements_used, D.13924
	subq	$1, %rdx	#, D.13924
	addq	$4, %rdx	#, tmp87
	movq	(%rax,%rdx,8), %rax	# _3->data.tree, tmp88
	movq	%rax, -24(%rbp)	# tmp88, fn
	.loc 1 608 0
	movq	-24(%rbp), %rax	# fn, tmp89
	movq	96(%rax), %rax	# fn_7->decl.result, tmp90
	movq	%rax, -16(%rbp)	# tmp90, result
	.loc 1 610 0
	movl	$1, -28(%rbp)	#, need_return_decl
	.loc 1 614 0
	cmpq	$0, -16(%rbp)	#, result
	je	.L70	#,
	.loc 1 614 0 is_stmt 0 discriminator 1
	movq	-16(%rbp), %rax	# result, tmp91
	movq	8(%rax), %rax	# result_8->common.type, D.13925
	movzbl	16(%rax), %eax	# _9->common.code, D.13926
	cmpb	$5, %al	#, D.13926
	jne	.L71	#,
.L70:
	.loc 1 616 0 is_stmt 1
	movq	-48(%rbp), %rax	# use_stmt, tmp92
	movq	$0, (%rax)	#, *use_stmt_24(D)
	.loc 1 617 0
	movl	$0, %eax	#, D.13922
	jmp	.L76	#
.L71:
	.loc 1 621 0
	movq	lang_hooks+200(%rip), %rax	# lang_hooks.tree_inlining.copy_res_decl_for_inlining, D.13927
	.loc 1 622 0
	movq	-40(%rbp), %rdx	# id, tmp93
	leaq	40(%rdx), %r9	#, D.13928
	.loc 1 621 0
	movq	-40(%rbp), %rdx	# id, tmp94
	movq	24(%rdx), %rcx	# id_2(D)->decl_map, D.13929
	movq	-40(%rbp), %rdx	# id, tmp95
	movq	(%rdx), %rdx	# id_2(D)->fns, D.13923
	movq	32(%rdx), %rdx	# _14->data.tree, D.13925
	.loc 1 620 0
	leaq	-28(%rbp), %r8	#, tmp96
	movq	-24(%rbp), %rsi	# fn, tmp97
	movq	-16(%rbp), %rdi	# result, tmp98
	call	*%rax	# D.13927
	movq	%rax, -8(%rbp)	# tmp99, var
	.loc 1 627 0
	movq	-8(%rbp), %rdx	# var, var.15
	movq	-16(%rbp), %rcx	# result, result.16
	movq	-40(%rbp), %rax	# id, tmp100
	movq	24(%rax), %rax	# id_2(D)->decl_map, D.13929
	movq	%rcx, %rsi	# result.16,
	movq	%rax, %rdi	# D.13929,
	call	splay_tree_insert	#
	.loc 1 633 0
	movq	-8(%rbp), %rax	# var, tmp101
	movq	8(%rax), %rdx	# var_16->common.type, D.13925
	movq	-24(%rbp), %rax	# fn, tmp102
	movq	8(%rax), %rax	# fn_7->common.type, D.13925
	movq	8(%rax), %rax	# _21->common.type, D.13925
	cmpq	%rax, %rdx	# D.13925, D.13925
	jne	.L73	#,
	.loc 1 634 0
	movq	-8(%rbp), %rax	# var, tmp103
	movq	%rax, %rsi	# tmp103,
	movl	$152, %edi	#,
	movl	$0, %eax	#,
	call	build_stmt	#
	movq	-48(%rbp), %rdx	# use_stmt, tmp104
	movq	%rax, (%rdx)	# D.13925, *use_stmt_24(D)
	jmp	.L74	#
.L73:
	.loc 1 637 0
	movq	-24(%rbp), %rax	# fn, tmp105
	movq	8(%rax), %rax	# fn_7->common.type, D.13925
	.loc 1 636 0
	movq	8(%rax), %rax	# _25->common.type, D.13925
	movq	-8(%rbp), %rdx	# var, tmp106
	movq	%rax, %rsi	# D.13925,
	movl	$115, %edi	#,
	call	build1	#
	movq	%rax, %rsi	# D.13925,
	movl	$152, %edi	#,
	movl	$0, %eax	#,
	call	build_stmt	#
	movq	-48(%rbp), %rdx	# use_stmt, tmp107
	movq	%rax, (%rdx)	# D.13925, *use_stmt_24(D)
.L74:
	.loc 1 640 0
	movq	-48(%rbp), %rax	# use_stmt, tmp108
	movq	(%rax), %rax	# *use_stmt_24(D), D.13925
	movzbl	17(%rax), %edx	#, tmp111
	orl	$4, %edx	#, tmp112
	movb	%dl, 17(%rax)	# tmp112,
	.loc 1 644 0
	movl	-28(%rbp), %eax	# need_return_decl, need_return_decl.17
	testl	%eax, %eax	# need_return_decl.17
	je	.L75	#,
	.loc 1 645 0
	movq	-8(%rbp), %rax	# var, tmp113
	movq	%rax, %rsi	# tmp113,
	movl	$154, %edi	#,
	movl	$0, %eax	#,
	call	build_stmt	#
	jmp	.L76	#
.L75:
	.loc 1 649 0
	movl	$0, %eax	#, D.13922
.L76:
	.loc 1 650 0
	leave
	.cfi_def_cfa 7, 8
	ret
	.cfi_endproc
.LFE8:
	.size	declare_return_variable, .-declare_return_variable
	.globl	tree_inlinable_function_p
	.type	tree_inlinable_function_p, @function
tree_inlinable_function_p:
.LFB9:
	.loc 1 657 0
	.cfi_startproc
	pushq	%rbp	#
	.cfi_def_cfa_offset 16
	.cfi_offset 6, -16
	movq	%rsp, %rbp	#,
	.cfi_def_cfa_register 6
	subq	$16, %rsp	#,
	movq	%rdi, -8(%rbp)	# fn, fn
	.loc 1 658 0
	movq	-8(%rbp), %rax	# fn, tmp61
	movl	$0, %esi	#,
	movq	%rax, %rdi	# tmp61,
	call	inlinable_function_p	#
	.loc 1 659 0
	leave
	.cfi_def_cfa 7, 8
	ret
	.cfi_endproc
.LFE9:
	.size	tree_inlinable_function_p, .-tree_inlinable_function_p
	.type	inlinable_function_p, @function
inlinable_function_p:
.LFB10:
	.loc 1 669 0
	.cfi_startproc
	pushq	%rbp	#
	.cfi_def_cfa_offset 16
	.cfi_offset 6, -16
	movq	%rsp, %rbp	#,
	.cfi_def_cfa_register 6
	subq	$48, %rsp	#,
	movq	%rdi, -40(%rbp)	# fn, fn
	movq	%rsi, -48(%rbp)	# id, id
	.loc 1 674 0
	movq	-40(%rbp), %rax	# fn, fn.18
	movzbl	52(%rax), %eax	# *fn.18_9, D.13932
	andl	$16, %eax	#, D.13932
	testb	%al, %al	# D.13932
	je	.L80	#,
	.loc 1 675 0
	movl	$0, %eax	#, D.13931
	jmp	.L81	#
.L80:
	.loc 1 678 0
	movl	$0, -24(%rbp)	#, inlinable
	.loc 1 681 0
	movl	flag_inline_trees(%rip), %eax	# flag_inline_trees, flag_inline_trees.19
	testl	%eax, %eax	# flag_inline_trees.19
	je	.L82	#,
	.loc 1 689 0
	movq	-40(%rbp), %rax	# fn, fn.20
	movzbl	49(%rax), %eax	# *fn.20_15, D.13932
	andl	$8, %eax	#, D.13932
	testb	%al, %al	# D.13932
	je	.L82	#,
	.loc 1 694 0
	movq	lang_hooks+168(%rip), %rax	# lang_hooks.tree_inlining.disregard_inline_limits, D.13933
	movq	-40(%rbp), %rdx	# fn, fn.21
	movq	%rdx, %rdi	# fn.21,
	call	*%rax	# D.13933
	testl	%eax, %eax	# D.13931
	jne	.L83	#,
	.loc 1 695 0
	movq	-40(%rbp), %rax	# fn, fn.22
	movq	56(%rax), %rdx	# fn.22_21->decl.u1.i, D.13934
	movq	%rdx, %rax	# D.13934, tmp118
	salq	$2, %rax	#, tmp118
	addq	%rdx, %rax	# D.13934, tmp118
	addq	%rax, %rax	# tmp119
	movq	%rax, %rdx	# tmp118, D.13934
	movq	compiler_params(%rip), %rax	# compiler_params, compiler_params.23
	movl	8(%rax), %eax	# compiler_params.23_24->value, D.13931
	movl	%eax, %ecx	# D.13931, tmp120
	shrl	$31, %ecx	#, tmp120
	addl	%ecx, %eax	# tmp120, tmp121
	sarl	%eax	# tmp122
	cltq
	cmpq	%rax, %rdx	# D.13934, D.13934
	jle	.L83	#,
	.loc 1 695 0 is_stmt 0 discriminator 1
	jmp	.L82	#
.L83:
	.loc 1 702 0 is_stmt 1
	movl	$1, -24(%rbp)	#, inlinable
.L82:
	.loc 1 705 0
	movq	-40(%rbp), %rax	# fn, fn.24
	cmpl	$0, -24(%rbp)	#, inlinable
	sete	%dl	#, D.13935
	andl	$1, %edx	#, tmp124
	movl	%edx, %ecx	# tmp124, tmp125
	sall	$4, %ecx	#, tmp125
	movzbl	52(%rax), %edx	#, tmp126
	andl	$-17, %edx	#, tmp127
	orl	%ecx, %edx	# tmp125, tmp128
	movb	%dl, 52(%rax)	# tmp128,
	.loc 1 711 0
	movq	lang_hooks+168(%rip), %rax	# lang_hooks.tree_inlining.disregard_inline_limits, D.13933
	movq	-40(%rbp), %rdx	# fn, fn.25
	movq	%rdx, %rdi	# fn.25,
	call	*%rax	# D.13933
	testl	%eax, %eax	# D.13931
	jne	.L84	#,
	.loc 1 712 0
	movq	-40(%rbp), %rax	# fn, fn.26
	movq	56(%rax), %rdx	# fn.26_34->decl.u1.i, D.13934
	cmpq	$0, -48(%rbp)	#, id
	je	.L85	#,
	.loc 1 712 0 is_stmt 0 discriminator 1
	movq	-48(%rbp), %rax	# id, tmp129
	movl	56(%rax), %eax	# id_36(D)->inlined_stmts, D.13931
	cltq
	jmp	.L86	#
.L85:
	.loc 1 712 0 discriminator 2
	movl	$0, %eax	#, iftmp.27
.L86:
	.loc 1 712 0 discriminator 3
	addq	%rax, %rdx	# iftmp.27, D.13934
	movq	%rdx, %rax	# D.13934, tmp130
	salq	$2, %rax	#, tmp130
	addq	%rdx, %rax	# D.13934, tmp130
	addq	%rax, %rax	# tmp131
	movq	%rax, %rdx	# tmp130, D.13934
	.loc 1 713 0 is_stmt 1 discriminator 3
	movq	compiler_params(%rip), %rax	# compiler_params, compiler_params.28
	movl	8(%rax), %eax	# compiler_params.28_42->value, D.13931
	cltq
	.loc 1 712 0 discriminator 3
	cmpq	%rax, %rdx	# D.13934, D.13934
	jle	.L84	#,
	.loc 1 714 0
	movq	-40(%rbp), %rax	# fn, fn.29
	movq	56(%rax), %rdx	# fn.29_45->decl.u1.i, D.13934
	movq	%rdx, %rax	# D.13934, tmp132
	salq	$2, %rax	#, tmp132
	addq	%rdx, %rax	# D.13934, tmp132
	addq	%rax, %rax	# tmp133
	movq	%rax, %rdx	# tmp132, D.13934
	movq	compiler_params(%rip), %rax	# compiler_params, compiler_params.30
	movl	8(%rax), %eax	# compiler_params.30_48->value, D.13931
	leal	3(%rax), %ecx	#, tmp135
	testl	%eax, %eax	# tmp134
	cmovs	%ecx, %eax	# tmp135,, tmp134
	sarl	$2, %eax	#, tmp136
	cltq
	cmpq	%rax, %rdx	# D.13934, D.13934
	jle	.L84	#,
	.loc 1 715 0
	movl	$0, -24(%rbp)	#, inlinable
.L84:
	.loc 1 717 0
	cmpl	$0, -24(%rbp)	#, inlinable
	je	.L87	#,
	.loc 1 717 0 is_stmt 0 discriminator 1
	movq	lang_hooks+160(%rip), %rax	# lang_hooks.tree_inlining.cannot_inline_tree_fn, D.13936
	leaq	-40(%rbp), %rdx	#, tmp137
	movq	%rdx, %rdi	# tmp137,
	call	*%rax	# D.13936
	testl	%eax, %eax	# D.13931
	je	.L87	#,
	.loc 1 718 0 is_stmt 1
	movl	$0, -24(%rbp)	#, inlinable
.L87:
	.loc 1 722 0
	movq	-40(%rbp), %rax	# fn, fn.31
	movq	168(%rax), %rax	# fn.31_56->decl.saved_tree, D.13937
	testq	%rax, %rax	# D.13937
	jne	.L88	#,
	.loc 1 723 0
	movl	$0, -24(%rbp)	#, inlinable
.L88:
	.loc 1 726 0
	cmpl	$0, -24(%rbp)	#, inlinable
	je	.L89	#,
	.loc 1 726 0 is_stmt 0 discriminator 1
	movq	-40(%rbp), %rax	# fn, fn.32
	movzbl	52(%rax), %eax	# *fn.32_59, D.13932
	andl	$16, %eax	#, D.13932
	testb	%al, %al	# D.13932
	je	.L90	#,
.L89:
	.loc 1 727 0 is_stmt 1
	movl	$0, %eax	#, D.13931
	jmp	.L81	#
.L90:
	.loc 1 731 0
	cmpq	$0, -48(%rbp)	#, id
	je	.L91	#,
.LBB16:
	.loc 1 735 0
	movq	$0, -16(%rbp)	#, i
	jmp	.L92	#
.L94:
	.loc 1 736 0
	movq	-48(%rbp), %rax	# id, tmp138
	movq	(%rax), %rax	# id_36(D)->fns, D.13938
	movq	-16(%rbp), %rdx	# i, tmp140
	addq	$4, %rdx	#, tmp139
	movq	(%rax,%rdx,8), %rdx	# _65->data.tree, D.13937
	movq	-40(%rbp), %rax	# fn, fn.33
	cmpq	%rax, %rdx	# fn.33, D.13937
	jne	.L93	#,
	.loc 1 737 0
	movl	$0, %eax	#, D.13931
	jmp	.L81	#
.L93:
	.loc 1 735 0
	addq	$1, -16(%rbp)	#, i
.L92:
	.loc 1 735 0 is_stmt 0 discriminator 1
	movq	-48(%rbp), %rax	# id, tmp141
	movq	(%rax), %rax	# id_36(D)->fns, D.13938
	movq	8(%rax), %rax	# _63->elements_used, D.13939
	cmpq	-16(%rbp), %rax	# i, D.13939
	ja	.L94	#,
	.loc 1 739 0 is_stmt 1
	movq	-40(%rbp), %rax	# fn, fn.34
	movq	176(%rax), %rax	# fn.34_70->decl.inlined_fns, D.13937
	testq	%rax, %rax	# D.13937
	je	.L91	#,
.LBB17:
	.loc 1 742 0
	movq	-40(%rbp), %rax	# fn, fn.35
	movq	176(%rax), %rax	# fn.35_72->decl.inlined_fns, tmp142
	movq	%rax, -8(%rbp)	# tmp142, inlined_fns
	.loc 1 744 0
	movl	$0, -20(%rbp)	#, j
	jmp	.L95	#
.L97:
	.loc 1 745 0
	movq	-8(%rbp), %rax	# inlined_fns, tmp143
	movl	-20(%rbp), %edx	# j, tmp145
	movslq	%edx, %rdx	# tmp145, tmp144
	addq	$4, %rdx	#, tmp146
	movq	(%rax,%rdx,8), %rdx	# inlined_fns_73->vec.a, D.13937
	movq	-48(%rbp), %rax	# id, tmp147
	movq	(%rax), %rax	# id_36(D)->fns, D.13938
	movq	32(%rax), %rax	# _77->data.tree, D.13937
	cmpq	%rax, %rdx	# D.13937, D.13937
	jne	.L96	#,
	.loc 1 746 0
	movl	$0, %eax	#, D.13931
	jmp	.L81	#
.L96:
	.loc 1 744 0
	addl	$1, -20(%rbp)	#, j
.L95:
	.loc 1 744 0 is_stmt 0 discriminator 1
	movq	-8(%rbp), %rax	# inlined_fns, tmp148
	movl	24(%rax), %eax	# inlined_fns_73->vec.length, D.13931
	cmpl	-20(%rbp), %eax	# j, D.13931
	jg	.L97	#,
.L91:
.LBE17:
.LBE16:
	.loc 1 751 0 is_stmt 1
	movl	-24(%rbp), %eax	# inlinable, D.13931
.L81:
	.loc 1 752 0
	leave
	.cfi_def_cfa 7, 8
	ret
	.cfi_endproc
.LFE10:
	.size	inlinable_function_p, .-inlinable_function_p
	.type	expand_call_inline, @function
expand_call_inline:
.LFB11:
	.loc 1 761 0
	.cfi_startproc
	pushq	%rbp	#
	.cfi_def_cfa_offset 16
	.cfi_offset 6, -16
	movq	%rsp, %rbp	#,
	.cfi_def_cfa_register 6
	addq	$-128, %rsp	#,
	movq	%rdi, -104(%rbp)	# tp, tp
	movq	%rsi, -112(%rbp)	# walk_subtrees, walk_subtrees
	movq	%rdx, -120(%rbp)	# data, data
	.loc 1 774 0
	movq	-120(%rbp), %rax	# data, tmp201
	movq	%rax, -48(%rbp)	# tmp201, id
	.loc 1 775 0
	movq	-104(%rbp), %rax	# tp, tmp202
	movq	(%rax), %rax	# *tp_9(D), tmp203
	movq	%rax, -40(%rbp)	# tmp203, t
	.loc 1 779 0
	movq	-104(%rbp), %rax	# tp, tmp204
	movq	(%rax), %rax	# *tp_9(D), D.13941
	movzbl	16(%rax), %eax	# _11->common.code, D.13942
	cmpb	$50, %al	#, D.13942
	jne	.L99	#,
.LBB18:
	.loc 1 781 0
	movl	$50, %edi	#,
	call	first_rtl_op	#
	movl	%eax, -84(%rbp)	# tmp205, len
	.loc 1 784 0
	movq	-112(%rbp), %rax	# walk_subtrees, tmp206
	movl	$0, (%rax)	#, *walk_subtrees_14(D)
	.loc 1 787 0
	movq	-48(%rbp), %rax	# id, tmp207
	movq	40(%rax), %rax	# id_8->target_exprs, D.13943
	movq	8(%rax), %rdx	# _15->elements_used, D.13944
	movq	-48(%rbp), %rax	# id, tmp208
	movq	40(%rax), %rax	# id_8->target_exprs, D.13943
	movq	(%rax), %rax	# _17->num_elements, D.13944
	cmpq	%rax, %rdx	# D.13944, D.13944
	jb	.L100	#,
	.loc 1 787 0 is_stmt 0 discriminator 1
	movq	-48(%rbp), %rax	# id, tmp209
	movq	40(%rax), %rax	# id_8->target_exprs, D.13943
	movq	(%rax), %rax	# _19->num_elements, D.13944
	leaq	(%rax,%rax), %rdx	#, D.13944
	movq	-48(%rbp), %rax	# id, tmp210
	movq	40(%rax), %rax	# id_8->target_exprs, D.13943
	movq	%rdx, %rsi	# D.13944,
	movq	%rax, %rdi	# D.13943,
	call	varray_grow	#
	movq	-48(%rbp), %rdx	# id, tmp211
	movq	%rax, 40(%rdx)	# D.13943, id_8->target_exprs
.L100:
	.loc 1 787 0 discriminator 2
	movq	-48(%rbp), %rax	# id, tmp212
	movq	40(%rax), %rcx	# id_8->target_exprs, D.13943
	movq	-48(%rbp), %rax	# id, tmp213
	movq	40(%rax), %rax	# id_8->target_exprs, D.13943
	movq	8(%rax), %rdx	# _25->elements_used, D.13944
	leaq	1(%rdx), %rsi	#, D.13944
	movq	%rsi, 8(%rax)	# D.13944, _25->elements_used
	movq	-104(%rbp), %rax	# tp, tmp214
	movq	(%rax), %rax	# *tp_9(D), D.13941
	addq	$4, %rdx	#, tmp215
	movq	%rax, (%rcx,%rdx,8)	# D.13941, _24->data.tree
	.loc 1 792 0 is_stmt 1 discriminator 2
	movl	$0, -92(%rbp)	#, i
	jmp	.L101	#
.L104:
	.loc 1 794 0
	cmpl	$2, -92(%rbp)	#, i
	jne	.L102	#,
	.loc 1 795 0
	movq	-48(%rbp), %rax	# id, tmp216
	movl	32(%rax), %eax	# id_8->in_target_cleanup_p, D.13945
	leal	1(%rax), %edx	#, D.13945
	movq	-48(%rbp), %rax	# id, tmp217
	movl	%edx, 32(%rax)	# D.13945, id_8->in_target_cleanup_p
.L102:
	.loc 1 797 0
	movq	-48(%rbp), %rax	# id, tmp218
	movq	64(%rax), %rdx	# id_8->tree_pruner, D.13946
	.loc 1 796 0
	movq	-104(%rbp), %rax	# tp, tmp219
	movq	(%rax), %rax	# *tp_9(D), D.13941
	movl	-92(%rbp), %ecx	# i, tmp221
	movslq	%ecx, %rcx	# tmp221, tmp220
	addq	$4, %rcx	#, tmp222
	salq	$3, %rcx	#, tmp223
	leaq	(%rax,%rcx), %rdi	#, D.13947
	movq	-120(%rbp), %rax	# data, tmp224
	movq	%rdx, %rcx	# D.13946,
	movq	%rax, %rdx	# tmp224,
	movl	$expand_call_inline, %esi	#,
	call	walk_tree	#
	.loc 1 798 0
	cmpl	$2, -92(%rbp)	#, i
	jne	.L103	#,
	.loc 1 799 0
	movq	-48(%rbp), %rax	# id, tmp225
	movl	32(%rax), %eax	# id_8->in_target_cleanup_p, D.13945
	leal	-1(%rax), %edx	#, D.13945
	movq	-48(%rbp), %rax	# id, tmp226
	movl	%edx, 32(%rax)	# D.13945, id_8->in_target_cleanup_p
.L103:
	.loc 1 792 0
	addl	$1, -92(%rbp)	#, i
.L101:
	.loc 1 792 0 is_stmt 0 discriminator 1
	movl	-92(%rbp), %eax	# i, tmp227
	cmpl	-84(%rbp), %eax	# len, tmp227
	jl	.L104	#,
	.loc 1 803 0 is_stmt 1
	movq	-48(%rbp), %rax	# id, tmp228
	movq	40(%rax), %rax	# id_8->target_exprs, D.13943
	movq	8(%rax), %rdx	# _39->elements_used, D.13944
	subq	$1, %rdx	#, D.13944
	movq	%rdx, 8(%rax)	# D.13944, _39->elements_used
	.loc 1 805 0
	movl	$0, %eax	#, D.13940
	jmp	.L127	#
.L99:
.LBE18:
	.loc 1 808 0
	movq	-40(%rbp), %rax	# t, tmp229
	movzbl	16(%rax), %eax	# t_10->common.code, D.13942
	movzbl	%al, %eax	# D.13942, D.13945
	cltq
	movzbl	tree_code_type(%rax), %eax	# tree_code_type, D.13948
	cmpb	$116, %al	#, D.13948
	jne	.L106	#,
	.loc 1 812 0
	movq	-112(%rbp), %rax	# walk_subtrees, tmp231
	movl	$0, (%rax)	#, *walk_subtrees_14(D)
.L106:
	.loc 1 815 0
	movq	-40(%rbp), %rax	# t, tmp232
	movzbl	16(%rax), %eax	# t_10->common.code, D.13942
	cmpb	$53, %al	#, D.13942
	je	.L107	#,
	.loc 1 816 0
	movl	$0, %eax	#, D.13940
	jmp	.L127	#
.L107:
	.loc 1 820 0
	movq	-40(%rbp), %rax	# t, tmp233
	movq	%rax, %rdi	# tmp233,
	call	get_callee_fndecl	#
	movq	%rax, -64(%rbp)	# tmp234, fn
	.loc 1 821 0
	cmpq	$0, -64(%rbp)	#, fn
	jne	.L108	#,
	.loc 1 822 0
	movl	$0, %eax	#, D.13940
	jmp	.L127	#
.L108:
	.loc 1 831 0
	movq	-64(%rbp), %rax	# fn, tmp235
	movq	104(%rax), %rax	# fn_48->decl.initial, D.13941
	testq	%rax, %rax	# D.13941
	jne	.L109	#,
	.loc 1 832 0
	movq	-64(%rbp), %rax	# fn, tmp236
	movq	112(%rax), %rax	# fn_48->decl.abstract_origin, D.13941
	testq	%rax, %rax	# D.13941
	je	.L109	#,
	.loc 1 833 0
	movq	-64(%rbp), %rax	# fn, tmp237
	movq	112(%rax), %rax	# fn_48->decl.abstract_origin, D.13941
	movq	168(%rax), %rax	# _52->decl.saved_tree, D.13941
	testq	%rax, %rax	# D.13941
	je	.L109	#,
	.loc 1 834 0
	movq	-64(%rbp), %rax	# fn, tmp238
	movq	112(%rax), %rax	# fn_48->decl.abstract_origin, tmp239
	movq	%rax, -64(%rbp)	# tmp239, fn
.L109:
	.loc 1 838 0
	movq	-48(%rbp), %rdx	# id, tmp240
	movq	-64(%rbp), %rax	# fn, tmp241
	movq	%rdx, %rsi	# tmp240,
	movq	%rax, %rdi	# tmp241,
	call	inlinable_function_p	#
	testl	%eax, %eax	# D.13945
	jne	.L110	#,
	.loc 1 839 0
	movl	$0, %eax	#, D.13940
	jmp	.L127	#
.L110:
	.loc 1 841 0
	movq	lang_hooks+216(%rip), %rax	# lang_hooks.tree_inlining.start_inlining, D.13949
	movq	-64(%rbp), %rdx	# fn, tmp242
	movq	%rdx, %rdi	# tmp242,
	call	*%rax	# D.13949
	testl	%eax, %eax	# D.13945
	jne	.L111	#,
	.loc 1 842 0
	movl	$0, %eax	#, D.13940
	jmp	.L127	#
.L111:
	.loc 1 849 0
	movq	-64(%rbp), %rax	# fn, tmp243
	movl	32(%rax), %edx	# fn_1->decl.linenum, D.13945
	movq	-64(%rbp), %rax	# fn, tmp244
	movq	24(%rax), %rax	# fn_1->decl.filename, D.13950
	movl	%edx, %esi	# D.13945,
	movq	%rax, %rdi	# D.13950,
	call	push_srcloc	#
	.loc 1 856 0
	movq	-64(%rbp), %rax	# fn, tmp245
	movq	8(%rax), %rax	# fn_1->common.type, D.13941
	movq	8(%rax), %rax	# _62->common.type, D.13941
	movl	$0, %edx	#,
	movq	%rax, %rsi	# D.13941,
	movl	$169, %edi	#,
	call	build1	#
	movq	%rax, -32(%rbp)	# tmp246, expr
	.loc 1 858 0
	movq	-32(%rbp), %rax	# expr, tmp247
	movzbl	19(%rax), %edx	#, tmp250
	orl	$1, %edx	#, tmp251
	movb	%dl, 19(%rax)	# tmp251,
	.loc 1 862 0
	movq	-48(%rbp), %rax	# id, tmp252
	movq	24(%rax), %rax	# id_8->decl_map, tmp253
	movq	%rax, -24(%rbp)	# tmp253, st
	.loc 1 863 0
	movl	$0, %edx	#,
	movl	$0, %esi	#,
	movl	$splay_tree_compare_pointers, %edi	#,
	call	splay_tree_new	#
	movq	-48(%rbp), %rdx	# id, tmp254
	movq	%rax, 24(%rdx)	# D.13951, id_8->decl_map
	.loc 1 867 0
	movq	-40(%rbp), %rax	# t, tmp255
	movq	40(%rax), %rcx	# t_10->exp.operands, D.13941
	movq	-64(%rbp), %rdx	# fn, tmp256
	movq	-48(%rbp), %rax	# id, tmp257
	movq	%rcx, %rsi	# D.13941,
	movq	%rax, %rdi	# tmp257,
	call	initialize_inlined_parameters	#
	movq	%rax, -72(%rbp)	# arg_inits.36, arg_inits
	.loc 1 872 0
	movq	-48(%rbp), %rdx	# id, tmp258
	leaq	-72(%rbp), %rax	#, tmp259
	movq	%rdx, %rsi	# tmp258,
	movq	%rax, %rdi	# tmp259,
	call	expand_calls_inline	#
	.loc 1 874 0
	movq	-72(%rbp), %rdx	# arg_inits, arg_inits.37
	movq	-32(%rbp), %rax	# expr, tmp260
	movq	32(%rax), %rax	# expr_64->exp.operands, D.13941
	movq	%rdx, %rsi	# arg_inits.37,
	movq	%rax, %rdi	# D.13941,
	call	chainon	#
	movq	-32(%rbp), %rdx	# expr, tmp261
	movq	%rax, 32(%rdx)	# D.13941, expr_64->exp.operands
	.loc 1 878 0
	movq	-48(%rbp), %rax	# id, tmp262
	movq	(%rax), %rax	# id_8->fns, D.13943
	movq	8(%rax), %rdx	# _72->elements_used, D.13944
	movq	-48(%rbp), %rax	# id, tmp263
	movq	(%rax), %rax	# id_8->fns, D.13943
	movq	(%rax), %rax	# _74->num_elements, D.13944
	cmpq	%rax, %rdx	# D.13944, D.13944
	jb	.L112	#,
	.loc 1 878 0 is_stmt 0 discriminator 1
	movq	-48(%rbp), %rax	# id, tmp264
	movq	(%rax), %rax	# id_8->fns, D.13943
	movq	(%rax), %rax	# _76->num_elements, D.13944
	leaq	(%rax,%rax), %rdx	#, D.13944
	movq	-48(%rbp), %rax	# id, tmp265
	movq	(%rax), %rax	# id_8->fns, D.13943
	movq	%rdx, %rsi	# D.13944,
	movq	%rax, %rdi	# D.13943,
	call	varray_grow	#
	movq	-48(%rbp), %rdx	# id, tmp266
	movq	%rax, (%rdx)	# D.13943, id_8->fns
.L112:
	.loc 1 878 0 discriminator 2
	movq	-48(%rbp), %rax	# id, tmp267
	movq	(%rax), %rcx	# id_8->fns, D.13943
	movq	-48(%rbp), %rax	# id, tmp268
	movq	(%rax), %rax	# id_8->fns, D.13943
	movq	8(%rax), %rdx	# _82->elements_used, D.13944
	leaq	1(%rdx), %rsi	#, D.13944
	movq	%rsi, 8(%rax)	# D.13944, _82->elements_used
	addq	$4, %rdx	#, tmp269
	movq	-64(%rbp), %rax	# fn, tmp270
	movq	%rax, (%rcx,%rdx,8)	# tmp270, _81->data.tree
	.loc 1 882 0 is_stmt 1 discriminator 2
	movq	-64(%rbp), %rax	# fn, tmp271
	movq	176(%rax), %rax	# fn_1->decl.inlined_fns, D.13941
	testq	%rax, %rax	# D.13941
	jne	.L113	#,
.LBB19:
	.loc 1 886 0
	movq	-48(%rbp), %rax	# id, tmp272
	movq	48(%rax), %rax	# id_8->inlined_fns, D.13943
	movq	8(%rax), %rax	# _87->elements_used, D.13944
	subl	$1, %eax	#, D.13952
	movl	%eax, -88(%rbp)	# D.13952, i
	jmp	.L114	#
.L117:
	.loc 1 887 0
	movq	-48(%rbp), %rax	# id, tmp273
	movq	48(%rax), %rax	# id_8->inlined_fns, D.13943
	movl	-88(%rbp), %edx	# i, tmp275
	movslq	%edx, %rdx	# tmp275, tmp274
	addq	$4, %rdx	#, tmp276
	movq	(%rax,%rdx,8), %rax	# _92->data.tree, D.13941
	cmpq	-64(%rbp), %rax	# fn, D.13941
	jne	.L115	#,
	.loc 1 888 0
	jmp	.L116	#
.L115:
	.loc 1 886 0
	subl	$1, -88(%rbp)	#, i
.L114:
	.loc 1 886 0 is_stmt 0 discriminator 1
	cmpl	$0, -88(%rbp)	#, i
	jns	.L117	#,
.L116:
	.loc 1 889 0 is_stmt 1
	cmpl	$0, -88(%rbp)	#, i
	jns	.L113	#,
	.loc 1 890 0
	movq	-48(%rbp), %rax	# id, tmp277
	movq	48(%rax), %rax	# id_8->inlined_fns, D.13943
	movq	8(%rax), %rdx	# _95->elements_used, D.13944
	movq	-48(%rbp), %rax	# id, tmp278
	movq	48(%rax), %rax	# id_8->inlined_fns, D.13943
	movq	(%rax), %rax	# _97->num_elements, D.13944
	cmpq	%rax, %rdx	# D.13944, D.13944
	jb	.L118	#,
	.loc 1 890 0 is_stmt 0 discriminator 1
	movq	-48(%rbp), %rax	# id, tmp279
	movq	48(%rax), %rax	# id_8->inlined_fns, D.13943
	movq	(%rax), %rax	# _99->num_elements, D.13944
	leaq	(%rax,%rax), %rdx	#, D.13944
	movq	-48(%rbp), %rax	# id, tmp280
	movq	48(%rax), %rax	# id_8->inlined_fns, D.13943
	movq	%rdx, %rsi	# D.13944,
	movq	%rax, %rdi	# D.13943,
	call	varray_grow	#
	movq	-48(%rbp), %rdx	# id, tmp281
	movq	%rax, 48(%rdx)	# D.13943, id_8->inlined_fns
.L118:
	.loc 1 890 0 discriminator 2
	movq	-48(%rbp), %rax	# id, tmp282
	movq	48(%rax), %rcx	# id_8->inlined_fns, D.13943
	movq	-48(%rbp), %rax	# id, tmp283
	movq	48(%rax), %rax	# id_8->inlined_fns, D.13943
	movq	8(%rax), %rdx	# _105->elements_used, D.13944
	leaq	1(%rdx), %rsi	#, D.13944
	movq	%rsi, 8(%rax)	# D.13944, _105->elements_used
	addq	$4, %rdx	#, tmp284
	movq	-64(%rbp), %rax	# fn, tmp285
	movq	%rax, (%rcx,%rdx,8)	# tmp285, _104->data.tree
.L113:
.LBE19:
	.loc 1 895 0 is_stmt 1
	movl	$0, %edx	#,
	movl	$0, %esi	#,
	movl	$31, %edi	#,
	call	build_decl	#
	movq	-48(%rbp), %rdx	# id, tmp286
	movq	%rax, 16(%rdx)	# D.13941, id_8->ret_label
	.loc 1 896 0
	movq	-48(%rbp), %rax	# id, tmp287
	movq	16(%rax), %rax	# id_8->ret_label, D.13941
	movq	-48(%rbp), %rdx	# id, tmp288
	movq	(%rdx), %rdx	# id_8->fns, D.13943
	movq	32(%rdx), %rdx	# _111->data.tree, D.13941
	movq	%rdx, 80(%rax)	# D.13941, _110->decl.context
	.loc 1 898 0
	movq	-64(%rbp), %rax	# fn, tmp289
	movq	104(%rax), %rax	# fn_1->decl.initial, D.13941
	testq	%rax, %rax	# D.13941
	je	.L119	#,
	.loc 1 899 0
	movq	-64(%rbp), %rax	# fn, tmp290
	movq	104(%rax), %rax	# fn_1->decl.initial, D.13941
	movzbl	16(%rax), %eax	# _114->common.code, D.13942
	cmpb	$4, %al	#, D.13942
	je	.L120	#,
.L119:
	.loc 1 900 0
	movl	$__FUNCTION__.12780, %edx	#,
	movl	$900, %esi	#,
	movl	$.LC0, %edi	#,
	call	fancy_abort	#
.L120:
	.loc 1 905 0
	movq	-64(%rbp), %rax	# fn, tmp291
	movq	104(%rax), %rax	# fn_1->decl.initial, D.13941
	movq	%rax, %rsi	# D.13941,
	movl	$166, %edi	#,
	movl	$0, %eax	#,
	call	build_stmt	#
	movq	%rax, -16(%rbp)	# tmp292, scope_stmt
	.loc 1 906 0
	movq	-16(%rbp), %rax	# scope_stmt, tmp293
	movzbl	19(%rax), %edx	#, tmp296
	orl	$1, %edx	#, tmp297
	movb	%dl, 19(%rax)	# tmp297,
	.loc 1 907 0
	movq	-16(%rbp), %rax	# scope_stmt, tmp298
	movzbl	19(%rax), %edx	#, tmp301
	orl	$8, %edx	#, tmp302
	movb	%dl, 19(%rax)	# tmp302,
	.loc 1 908 0
	movq	-64(%rbp), %rax	# fn, tmp303
	movq	88(%rax), %rcx	# fn_1->decl.arguments, D.13941
	movq	-48(%rbp), %rdx	# id, tmp304
	movq	-16(%rbp), %rax	# scope_stmt, tmp305
	movq	%rcx, %rsi	# D.13941,
	movq	%rax, %rdi	# tmp305,
	call	remap_block	#
	.loc 1 909 0
	movq	-32(%rbp), %rax	# expr, tmp306
	movq	32(%rax), %rdx	# expr_64->exp.operands, D.13941
	movq	-16(%rbp), %rax	# scope_stmt, tmp307
	movq	%rdx, (%rax)	# D.13941, scope_stmt_117->common.chain
	.loc 1 910 0
	movq	-32(%rbp), %rax	# expr, tmp308
	movq	-16(%rbp), %rdx	# scope_stmt, tmp309
	movq	%rdx, 32(%rax)	# tmp309, expr_64->exp.operands
	.loc 1 914 0
	movq	-16(%rbp), %rax	# scope_stmt, tmp310
	movq	32(%rax), %rax	# scope_stmt_117->exp.operands, D.13941
	testq	%rax, %rax	# D.13941
	je	.L121	#,
	.loc 1 915 0
	movq	-16(%rbp), %rax	# scope_stmt, tmp311
	movq	32(%rax), %rdx	# scope_stmt_117->exp.operands, D.13941
	movq	-64(%rbp), %rax	# fn, tmp312
	movq	112(%rax), %rax	# fn_1->decl.abstract_origin, D.13941
	testq	%rax, %rax	# D.13941
	je	.L122	#,
	.loc 1 915 0 is_stmt 0 discriminator 1
	movq	-64(%rbp), %rax	# fn, tmp313
	movq	112(%rax), %rax	# fn_1->decl.abstract_origin, iftmp.38
	jmp	.L123	#
.L122:
	.loc 1 915 0 discriminator 2
	movq	-64(%rbp), %rax	# fn, iftmp.38
.L123:
	.loc 1 915 0 discriminator 3
	movq	%rax, 56(%rdx)	# iftmp.38, _121->block.abstract_origin
.L121:
	.loc 1 919 0 is_stmt 1
	leaq	-80(%rbp), %rdx	#, tmp314
	movq	-48(%rbp), %rax	# id, tmp315
	movq	%rdx, %rsi	# tmp314,
	movq	%rax, %rdi	# tmp315,
	call	declare_return_variable	#
	movq	%rax, %rdx	#, D.13941
	movq	-32(%rbp), %rax	# expr, tmp316
	movq	32(%rax), %rax	# expr_64->exp.operands, D.13941
	movq	%rdx, %rsi	# D.13941,
	movq	%rax, %rdi	# D.13941,
	call	chainon	#
	movq	-32(%rbp), %rdx	# expr, tmp317
	movq	%rax, 32(%rdx)	# D.13941, expr_64->exp.operands
	.loc 1 924 0
	movq	-32(%rbp), %rax	# expr, tmp321
	addq	$32, %rax	#, tmp320
	movq	%rax, -56(%rbp)	# tmp320, inlined_body
	.loc 1 925 0
	jmp	.L124	#
.L125:
	.loc 1 926 0
	movq	-56(%rbp), %rax	# inlined_body, tmp322
	movq	(%rax), %rax	# *inlined_body_2, D.13941
	movq	%rax, -56(%rbp)	# D.13941, inlined_body
.L124:
	.loc 1 925 0 discriminator 1
	movq	-56(%rbp), %rax	# inlined_body, tmp323
	movq	(%rax), %rax	# *inlined_body_2, D.13941
	testq	%rax, %rax	# D.13941
	jne	.L125	#,
	.loc 1 927 0
	movq	-48(%rbp), %rax	# id, tmp324
	movq	%rax, %rdi	# tmp324,
	call	copy_body	#
	movq	-56(%rbp), %rdx	# inlined_body, tmp325
	movq	%rax, (%rdx)	# D.13941, *inlined_body_2
	.loc 1 930 0
	movq	-64(%rbp), %rax	# fn, tmp326
	movq	104(%rax), %rax	# fn_1->decl.initial, D.13941
	movq	%rax, %rsi	# D.13941,
	movl	$166, %edi	#,
	movl	$0, %eax	#,
	call	build_stmt	#
	movq	%rax, -16(%rbp)	# tmp327, scope_stmt
	.loc 1 931 0
	movq	-16(%rbp), %rax	# scope_stmt, tmp328
	movzbl	19(%rax), %edx	#, tmp331
	orl	$8, %edx	#, tmp332
	movb	%dl, 19(%rax)	# tmp332,
	.loc 1 932 0
	movq	-48(%rbp), %rdx	# id, tmp333
	movq	-16(%rbp), %rax	# scope_stmt, tmp334
	movl	$0, %esi	#,
	movq	%rax, %rdi	# tmp334,
	call	remap_block	#
	.loc 1 934 0
	movq	-32(%rbp), %rax	# expr, tmp335
	movq	32(%rax), %rax	# expr_64->exp.operands, D.13941
	movq	-16(%rbp), %rdx	# scope_stmt, tmp336
	movq	%rdx, %rsi	# tmp336,
	movq	%rax, %rdi	# D.13941,
	call	chainon	#
	movq	-32(%rbp), %rdx	# expr, tmp337
	movq	%rax, 32(%rdx)	# D.13941, expr_64->exp.operands
	.loc 1 940 0
	movq	-48(%rbp), %rax	# id, tmp338
	movq	16(%rax), %rax	# id_8->ret_label, D.13941
	movq	%rax, %rsi	# D.13941,
	movl	$164, %edi	#,
	movl	$0, %eax	#,
	call	build_stmt	#
	movq	%rax, %rdx	#, D.13941
	movq	-32(%rbp), %rax	# expr, tmp339
	movq	32(%rax), %rax	# expr_64->exp.operands, D.13941
	movq	%rdx, %rsi	# D.13941,
	movq	%rax, %rdi	# D.13941,
	call	chainon	#
	movq	-32(%rbp), %rdx	# expr, tmp340
	movq	%rax, 32(%rdx)	# D.13941, expr_64->exp.operands
	.loc 1 945 0
	movq	-80(%rbp), %rdx	# use_stmt, use_stmt.39
	movq	-32(%rbp), %rax	# expr, tmp341
	movq	32(%rax), %rax	# expr_64->exp.operands, D.13941
	movq	%rdx, %rsi	# use_stmt.39,
	movq	%rax, %rdi	# D.13941,
	call	chainon	#
	movq	-32(%rbp), %rdx	# expr, tmp342
	movq	%rax, 32(%rdx)	# D.13941, expr_64->exp.operands
	.loc 1 948 0
	movq	-48(%rbp), %rax	# id, tmp343
	movq	24(%rax), %rax	# id_8->decl_map, D.13951
	movq	%rax, %rdi	# D.13951,
	call	splay_tree_delete	#
	.loc 1 949 0
	movq	-48(%rbp), %rax	# id, tmp344
	movq	-24(%rbp), %rdx	# st, tmp345
	movq	%rdx, 24(%rax)	# tmp345, id_8->decl_map
	.loc 1 952 0
	movq	-40(%rbp), %rax	# t, tmp346
	movzbl	17(%rax), %eax	# *t_10, tmp349
	andl	$1, %eax	#, D.13953
	movl	%eax, %edx	# D.13953, D.13953
	movq	-32(%rbp), %rax	# expr, tmp350
	movl	%edx, %ecx	# D.13953, tmp352
	andl	$1, %ecx	#, tmp352
	movzbl	17(%rax), %edx	#, tmp353
	andl	$-2, %edx	#, tmp354
	orl	%ecx, %edx	# tmp352, tmp355
	movb	%dl, 17(%rax)	# tmp355,
	.loc 1 957 0
	movq	-104(%rbp), %rax	# tp, tmp356
	movq	(%rax), %rax	# *tp_9(D), D.13941
	movq	(%rax), %rax	# _146->common.chain, tmp357
	movq	%rax, -8(%rbp)	# tmp357, chain
	.loc 1 958 0
	movq	-64(%rbp), %rax	# fn, tmp358
	movl	32(%rax), %edx	# fn_1->decl.linenum, D.13945
	movq	-64(%rbp), %rax	# fn, tmp359
	movq	24(%rax), %rsi	# fn_1->decl.filename, D.13950
	movq	-32(%rbp), %rax	# expr, tmp360
	movl	$0, %ecx	#,
	movq	%rax, %rdi	# tmp360,
	call	build_expr_wfl	#
	movq	-104(%rbp), %rdx	# tp, tmp361
	movq	%rax, (%rdx)	# D.13941, *tp_9(D)
	.loc 1 960 0
	movq	-104(%rbp), %rax	# tp, tmp362
	movq	(%rax), %rax	# *tp_9(D), D.13941
	movzbl	18(%rax), %edx	#, tmp365
	orl	$8, %edx	#, tmp366
	movb	%dl, 18(%rax)	# tmp366,
	.loc 1 961 0
	movq	-104(%rbp), %rax	# tp, tmp367
	movq	(%rax), %rax	# *tp_9(D), D.13941
	movq	-8(%rbp), %rdx	# chain, tmp368
	movq	%rdx, (%rax)	# tmp368, _152->common.chain
	.loc 1 962 0
	call	pop_srcloc	#
	.loc 1 967 0
	movq	-104(%rbp), %rax	# tp, tmp369
	movq	(%rax), %rax	# *tp_9(D), D.13941
	movzbl	18(%rax), %edx	#, tmp372
	orl	$1, %edx	#, tmp373
	movb	%dl, 18(%rax)	# tmp373,
	.loc 1 970 0
	movq	-48(%rbp), %rax	# id, tmp374
	movq	(%rax), %rax	# id_8->fns, D.13943
	movq	32(%rax), %rax	# _154->data.tree, D.13941
	movq	-48(%rbp), %rdx	# id, tmp375
	movq	(%rdx), %rdx	# id_8->fns, D.13943
	movq	32(%rdx), %rdx	# _156->data.tree, D.13941
	movq	56(%rdx), %rcx	# _157->decl.u1.i, D.13954
	movq	-64(%rbp), %rdx	# fn, tmp376
	movq	56(%rdx), %rdx	# fn_1->decl.u1.i, D.13954
	addq	%rcx, %rdx	# D.13954, D.13954
	movq	%rdx, 56(%rax)	# D.13954, _155->decl.u1.i
	.loc 1 971 0
	movq	-48(%rbp), %rax	# id, tmp377
	movl	56(%rax), %eax	# id_8->inlined_stmts, D.13945
	movl	%eax, %edx	# D.13945, D.13952
	movq	-64(%rbp), %rax	# fn, tmp378
	movq	56(%rax), %rax	# fn_1->decl.u1.i, D.13954
	addl	%edx, %eax	# D.13952, D.13952
	movl	%eax, %edx	# D.13952, D.13945
	movq	-48(%rbp), %rax	# id, tmp379
	movl	%edx, 56(%rax)	# D.13945, id_8->inlined_stmts
	.loc 1 974 0
	movq	-48(%rbp), %rdx	# id, tmp380
	movq	-56(%rbp), %rax	# inlined_body, tmp381
	movq	%rdx, %rsi	# tmp380,
	movq	%rax, %rdi	# tmp381,
	call	expand_calls_inline	#
	.loc 1 975 0
	movq	-48(%rbp), %rax	# id, tmp382
	movq	(%rax), %rax	# id_8->fns, D.13943
	movq	8(%rax), %rdx	# _167->elements_used, D.13944
	subq	$1, %rdx	#, D.13944
	movq	%rdx, 8(%rax)	# D.13944, _167->elements_used
	.loc 1 979 0
	movq	-48(%rbp), %rax	# id, tmp383
	movq	(%rax), %rax	# id_8->fns, D.13943
	movq	8(%rax), %rdx	# _170->elements_used, D.13944
	movq	-48(%rbp), %rax	# id, tmp384
	movl	8(%rax), %eax	# id_8->first_inlined_fn, D.13955
	movl	%eax, %eax	# D.13955, D.13944
	cmpq	%rax, %rdx	# D.13944, D.13944
	jne	.L126	#,
	.loc 1 980 0
	movq	-48(%rbp), %rax	# id, tmp385
	movl	$0, 56(%rax)	#, id_8->inlined_stmts
.L126:
	.loc 1 983 0
	movq	-112(%rbp), %rax	# walk_subtrees, tmp386
	movl	$0, (%rax)	#, *walk_subtrees_14(D)
	.loc 1 985 0
	movq	lang_hooks+224(%rip), %rax	# lang_hooks.tree_inlining.end_inlining, D.13956
	movq	-64(%rbp), %rdx	# fn, tmp387
	movq	%rdx, %rdi	# tmp387,
	call	*%rax	# D.13956
	.loc 1 988 0
	movl	$0, %eax	#, D.13940
.L127:
	.loc 1 989 0
	leave
	.cfi_def_cfa 7, 8
	ret
	.cfi_endproc
.LFE11:
	.size	expand_call_inline, .-expand_call_inline
	.type	expand_calls_inline, @function
expand_calls_inline:
.LFB12:
	.loc 1 998 0
	.cfi_startproc
	pushq	%rbp	#
	.cfi_def_cfa_offset 16
	.cfi_offset 6, -16
	movq	%rsp, %rbp	#,
	.cfi_def_cfa_register 6
	subq	$16, %rsp	#,
	movq	%rdi, -8(%rbp)	# tp, tp
	movq	%rsi, -16(%rbp)	# id, id
	.loc 1 1005 0
	movq	-16(%rbp), %rax	# id, tmp60
	movq	64(%rax), %rcx	# id_1(D)->tree_pruner, D.13957
	movq	-16(%rbp), %rdx	# id, tmp61
	movq	-8(%rbp), %rax	# tp, tmp62
	movl	$expand_call_inline, %esi	#,
	movq	%rax, %rdi	# tmp62,
	call	walk_tree	#
	.loc 1 1006 0
	leave
	.cfi_def_cfa 7, 8
	ret
	.cfi_endproc
.LFE12:
	.size	expand_calls_inline, .-expand_calls_inline
	.section	.rodata
.LC1:
	.string	"fns"
.LC2:
	.string	"target_exprs"
.LC3:
	.string	"inlined_fns"
	.text
	.globl	optimize_inline_calls
	.type	optimize_inline_calls, @function
optimize_inline_calls:
.LFB13:
	.loc 1 1013 0
	.cfi_startproc
	pushq	%rbp	#
	.cfi_def_cfa_offset 16
	.cfi_offset 6, -16
	movq	%rsp, %rbp	#,
	.cfi_def_cfa_register 6
	subq	$112, %rsp	#,
	movq	%rdi, -104(%rbp)	# fn, fn
	.loc 1 1018 0
	leaq	-80(%rbp), %rax	#, tmp115
	movl	$72, %edx	#,
	movl	$0, %esi	#,
	movq	%rax, %rdi	# tmp115,
	call	memset	#
	.loc 1 1021 0
	movl	$.LC1, %edx	#,
	movl	$8, %esi	#,
	movl	$32, %edi	#,
	call	varray_init	#
	movq	%rax, -80(%rbp)	# D.13958, id.fns
	.loc 1 1022 0
	movq	-80(%rbp), %rax	# id.fns, D.13958
	movq	8(%rax), %rdx	# _3->elements_used, D.13959
	movq	-80(%rbp), %rax	# id.fns, D.13958
	movq	(%rax), %rax	# _5->num_elements, D.13959
	cmpq	%rax, %rdx	# D.13959, D.13959
	jb	.L130	#,
	.loc 1 1022 0 is_stmt 0 discriminator 1
	movq	-80(%rbp), %rax	# id.fns, D.13958
	movq	(%rax), %rax	# _7->num_elements, D.13959
	leaq	(%rax,%rax), %rdx	#, D.13959
	movq	-80(%rbp), %rax	# id.fns, D.13958
	movq	%rdx, %rsi	# D.13959,
	movq	%rax, %rdi	# D.13958,
	call	varray_grow	#
	movq	%rax, -80(%rbp)	# D.13958, id.fns
.L130:
	.loc 1 1022 0 discriminator 2
	movq	-80(%rbp), %rcx	# id.fns, D.13958
	movq	-80(%rbp), %rax	# id.fns, D.13958
	movq	8(%rax), %rdx	# _13->elements_used, D.13959
	leaq	1(%rdx), %rsi	#, D.13959
	movq	%rsi, 8(%rax)	# D.13959, _13->elements_used
	addq	$4, %rdx	#, tmp116
	movq	-104(%rbp), %rax	# fn, tmp117
	movq	%rax, (%rcx,%rdx,8)	# tmp117, _12->data.tree
	.loc 1 1024 0 is_stmt 1 discriminator 2
	movq	$0, -96(%rbp)	#, prev_fn
	.loc 1 1025 0 discriminator 2
	movq	current_function_decl(%rip), %rax	# current_function_decl, current_function_decl.40
	testq	%rax, %rax	# current_function_decl.40
	je	.L131	#,
	.loc 1 1027 0
	movq	-80(%rbp), %rax	# id.fns, D.13958
	movq	8(%rax), %rdx	# _20->elements_used, D.13959
	movq	-80(%rbp), %rax	# id.fns, D.13958
	movq	(%rax), %rax	# _22->num_elements, D.13959
	cmpq	%rax, %rdx	# D.13959, D.13959
	jb	.L132	#,
	.loc 1 1027 0 is_stmt 0 discriminator 1
	movq	-80(%rbp), %rax	# id.fns, D.13958
	movq	(%rax), %rax	# _24->num_elements, D.13959
	leaq	(%rax,%rax), %rdx	#, D.13959
	movq	-80(%rbp), %rax	# id.fns, D.13958
	movq	%rdx, %rsi	# D.13959,
	movq	%rax, %rdi	# D.13958,
	call	varray_grow	#
	movq	%rax, -80(%rbp)	# D.13958, id.fns
.L132:
	.loc 1 1027 0 discriminator 2
	movq	-80(%rbp), %rcx	# id.fns, D.13958
	movq	-80(%rbp), %rax	# id.fns, D.13958
	movq	8(%rax), %rdx	# _30->elements_used, D.13959
	leaq	1(%rdx), %rsi	#, D.13959
	movq	%rsi, 8(%rax)	# D.13959, _30->elements_used
	movq	current_function_decl(%rip), %rax	# current_function_decl, current_function_decl.41
	addq	$4, %rdx	#, tmp118
	movq	%rax, (%rcx,%rdx,8)	# current_function_decl.41, _29->data.tree
	.loc 1 1028 0 is_stmt 1 discriminator 2
	movq	current_function_decl(%rip), %rax	# current_function_decl, tmp119
	movq	%rax, -96(%rbp)	# tmp119, prev_fn
.L131:
	.loc 1 1032 0
	movq	lang_hooks+176(%rip), %rax	# lang_hooks.tree_inlining.add_pending_fn_decls, D.13960
	.loc 1 1031 0
	movq	-96(%rbp), %rcx	# prev_fn, tmp120
	leaq	-80(%rbp), %rdx	#, tmp121
	movq	%rcx, %rsi	# tmp120,
	movq	%rdx, %rdi	# tmp121,
	call	*%rax	# D.13960
	movq	%rax, -96(%rbp)	# tmp122, prev_fn
	.loc 1 1035 0
	movl	$.LC2, %edx	#,
	movl	$8, %esi	#,
	movl	$32, %edi	#,
	call	varray_init	#
	movq	%rax, -40(%rbp)	# D.13958, id.target_exprs
	.loc 1 1038 0
	movl	$.LC3, %edx	#,
	movl	$8, %esi	#,
	movl	$32, %edi	#,
	call	varray_init	#
	movq	%rax, -32(%rbp)	# D.13958, id.inlined_fns
	.loc 1 1042 0
	movq	-80(%rbp), %rax	# id.fns, D.13958
	movq	8(%rax), %rax	# _40->elements_used, D.13959
	movl	%eax, -72(%rbp)	# D.13961, id.first_inlined_fn
	.loc 1 1046 0
	movq	htab_eq_pointer(%rip), %rdx	# htab_eq_pointer, htab_eq_pointer.42
	movq	htab_hash_pointer(%rip), %rax	# htab_hash_pointer, htab_hash_pointer.43
	movl	$0, %ecx	#,
	movq	%rax, %rsi	# htab_hash_pointer.43,
	movl	$37, %edi	#,
	call	htab_create	#
	movq	%rax, -16(%rbp)	# D.13962, id.tree_pruner
	.loc 1 1048 0
	movq	-104(%rbp), %rax	# fn, tmp123
	leaq	168(%rax), %rdx	#, D.13963
	leaq	-80(%rbp), %rax	#, tmp124
	movq	%rax, %rsi	# tmp124,
	movq	%rdx, %rdi	# D.13963,
	call	expand_calls_inline	#
	.loc 1 1051 0
	movq	-16(%rbp), %rax	# id.tree_pruner, D.13962
	movq	%rax, %rdi	# D.13962,
	call	htab_delete	#
	.loc 1 1052 0
	movq	-80(%rbp), %rax	# id.fns, D.13958
	testq	%rax, %rax	# D.13958
	je	.L133	#,
	.loc 1 1052 0 is_stmt 0 discriminator 1
	movq	-80(%rbp), %rax	# id.fns, D.13958
	movq	%rax, %rdi	# D.13958,
	call	free	#
	movq	$0, -80(%rbp)	#, id.fns
.L133:
	.loc 1 1053 0 is_stmt 1
	movq	-40(%rbp), %rax	# id.target_exprs, D.13958
	testq	%rax, %rax	# D.13958
	je	.L134	#,
	.loc 1 1053 0 is_stmt 0 discriminator 1
	movq	-40(%rbp), %rax	# id.target_exprs, D.13958
	movq	%rax, %rdi	# D.13958,
	call	free	#
	movq	$0, -40(%rbp)	#, id.target_exprs
.L134:
	.loc 1 1054 0 is_stmt 1
	movq	-104(%rbp), %rax	# fn, tmp125
	movq	200(%rax), %rax	# fn_17(D)->decl.lang_specific, D.13964
	testq	%rax, %rax	# D.13964
	je	.L135	#,
.LBB20:
	.loc 1 1056 0
	movq	-32(%rbp), %rax	# id.inlined_fns, D.13958
	movq	8(%rax), %rax	# _53->elements_used, D.13959
	movl	%eax, %edi	# D.13965,
	call	make_tree_vec	#
	movq	%rax, -88(%rbp)	# tmp126, ifn
	.loc 1 1059 0
	movq	-32(%rbp), %rax	# id.inlined_fns, D.13958
	movq	8(%rax), %rax	# _57->elements_used, D.13959
	.loc 1 1058 0
	leaq	0(,%rax,8), %rdx	#, D.13959
	movq	-32(%rbp), %rax	# id.inlined_fns, D.13958
	leaq	32(%rax), %rcx	#, D.13966
	movq	-88(%rbp), %rax	# ifn, tmp127
	addq	$32, %rax	#, D.13963
	movq	%rcx, %rsi	# D.13966,
	movq	%rax, %rdi	# D.13963,
	call	memcpy	#
	.loc 1 1060 0
	movq	-104(%rbp), %rax	# fn, tmp128
	movq	-88(%rbp), %rdx	# ifn, tmp129
	movq	%rdx, 176(%rax)	# tmp129, fn_17(D)->decl.inlined_fns
.L135:
.LBE20:
	.loc 1 1062 0
	movq	-32(%rbp), %rax	# id.inlined_fns, D.13958
	testq	%rax, %rax	# D.13958
	je	.L129	#,
	.loc 1 1062 0 is_stmt 0 discriminator 1
	movq	-32(%rbp), %rax	# id.inlined_fns, D.13958
	movq	%rax, %rdi	# D.13958,
	call	free	#
	movq	$0, -32(%rbp)	#, id.inlined_fns
.L129:
	.loc 1 1063 0 is_stmt 1
	leave
	.cfi_def_cfa 7, 8
	ret
	.cfi_endproc
.LFE13:
	.size	optimize_inline_calls, .-optimize_inline_calls
	.globl	clone_body
	.type	clone_body, @function
clone_body:
.LFB14:
	.loc 1 1073 0
	.cfi_startproc
	pushq	%rbp	#
	.cfi_def_cfa_offset 16
	.cfi_offset 6, -16
	movq	%rsp, %rbp	#,
	.cfi_def_cfa_register 6
	pushq	%rbx	#
	subq	$120, %rsp	#,
	.cfi_offset 3, -24
	movq	%rdi, -104(%rbp)	# clone, clone
	movq	%rsi, -112(%rbp)	# fn, fn
	movq	%rdx, -120(%rbp)	# arg_map, arg_map
	.loc 1 1080 0
	leaq	-96(%rbp), %rax	#, tmp90
	movl	$72, %edx	#,
	movl	$0, %esi	#,
	movq	%rax, %rdi	# tmp90,
	call	memset	#
	.loc 1 1081 0
	movl	$.LC1, %edx	#,
	movl	$8, %esi	#,
	movl	$2, %edi	#,
	call	varray_init	#
	movq	%rax, -96(%rbp)	# D.13970, id.fns
	.loc 1 1082 0
	movq	-96(%rbp), %rax	# id.fns, D.13970
	movq	8(%rax), %rdx	# _2->elements_used, D.13971
	movq	-96(%rbp), %rax	# id.fns, D.13970
	movq	(%rax), %rax	# _4->num_elements, D.13971
	cmpq	%rax, %rdx	# D.13971, D.13971
	jb	.L138	#,
	.loc 1 1082 0 is_stmt 0 discriminator 1
	movq	-96(%rbp), %rax	# id.fns, D.13970
	movq	(%rax), %rax	# _6->num_elements, D.13971
	leaq	(%rax,%rax), %rdx	#, D.13971
	movq	-96(%rbp), %rax	# id.fns, D.13970
	movq	%rdx, %rsi	# D.13971,
	movq	%rax, %rdi	# D.13970,
	call	varray_grow	#
	movq	%rax, -96(%rbp)	# D.13970, id.fns
.L138:
	.loc 1 1082 0 discriminator 2
	movq	-96(%rbp), %rcx	# id.fns, D.13970
	movq	-96(%rbp), %rax	# id.fns, D.13970
	movq	8(%rax), %rdx	# _12->elements_used, D.13971
	leaq	1(%rdx), %rsi	#, D.13971
	movq	%rsi, 8(%rax)	# D.13971, _12->elements_used
	addq	$4, %rdx	#, tmp91
	movq	-104(%rbp), %rax	# clone, tmp92
	movq	%rax, (%rcx,%rdx,8)	# tmp92, _11->data.tree
	.loc 1 1083 0 is_stmt 1 discriminator 2
	movq	-96(%rbp), %rax	# id.fns, D.13970
	movq	8(%rax), %rdx	# _17->elements_used, D.13971
	movq	-96(%rbp), %rax	# id.fns, D.13970
	movq	(%rax), %rax	# _19->num_elements, D.13971
	cmpq	%rax, %rdx	# D.13971, D.13971
	jb	.L139	#,
	.loc 1 1083 0 is_stmt 0 discriminator 1
	movq	-96(%rbp), %rax	# id.fns, D.13970
	movq	(%rax), %rax	# _21->num_elements, D.13971
	leaq	(%rax,%rax), %rdx	#, D.13971
	movq	-96(%rbp), %rax	# id.fns, D.13970
	movq	%rdx, %rsi	# D.13971,
	movq	%rax, %rdi	# D.13970,
	call	varray_grow	#
	movq	%rax, -96(%rbp)	# D.13970, id.fns
.L139:
	.loc 1 1083 0 discriminator 2
	movq	-96(%rbp), %rcx	# id.fns, D.13970
	movq	-96(%rbp), %rax	# id.fns, D.13970
	movq	8(%rax), %rdx	# _27->elements_used, D.13971
	leaq	1(%rdx), %rsi	#, D.13971
	movq	%rsi, 8(%rax)	# D.13971, _27->elements_used
	addq	$4, %rdx	#, tmp93
	movq	-112(%rbp), %rax	# fn, tmp94
	movq	%rax, (%rcx,%rdx,8)	# tmp94, _26->data.tree
	.loc 1 1084 0 is_stmt 1 discriminator 2
	movq	-120(%rbp), %rax	# arg_map, tmp95
	movq	%rax, -72(%rbp)	# tmp95, id.decl_map
	.loc 1 1088 0 discriminator 2
	movb	$1, -36(%rbp)	#, id.cloning_p
	.loc 1 1091 0 discriminator 2
	movq	-104(%rbp), %rax	# clone, tmp96
	movq	168(%rax), %rbx	# clone_16(D)->decl.saved_tree, D.13972
	leaq	-96(%rbp), %rax	#, tmp97
	movq	%rax, %rdi	# tmp97,
	call	copy_body	#
	movq	%rax, (%rbx)	# D.13972, _33->common.chain
	.loc 1 1094 0 discriminator 2
	movq	-96(%rbp), %rax	# id.fns, D.13970
	testq	%rax, %rax	# D.13970
	je	.L137	#,
	.loc 1 1094 0 is_stmt 0 discriminator 1
	movq	-96(%rbp), %rax	# id.fns, D.13970
	movq	%rax, %rdi	# D.13970,
	call	free	#
	movq	$0, -96(%rbp)	#, id.fns
.L137:
	.loc 1 1095 0 is_stmt 1
	addq	$120, %rsp	#,
	popq	%rbx	#
	popq	%rbp	#
	.cfi_def_cfa 7, 8
	ret
	.cfi_endproc
.LFE14:
	.size	clone_body, .-clone_body
	.globl	walk_tree
	.type	walk_tree, @function
walk_tree:
.LFB15:
	.loc 1 1110 0
	.cfi_startproc
	pushq	%rbp	#
	.cfi_def_cfa_offset 16
	.cfi_offset 6, -16
	movq	%rsp, %rbp	#,
	.cfi_def_cfa_register 6
	subq	$96, %rsp	#,
	movq	%rdi, -72(%rbp)	# tp, tp
	movq	%rsi, -80(%rbp)	# func, func
	movq	%rdx, -88(%rbp)	# data, data
	movq	%rcx, -96(%rbp)	# htab_, htab_
	.loc 1 1111 0
	movq	-96(%rbp), %rax	# htab_, tmp148
	movq	%rax, -24(%rbp)	# tmp148, htab
.L142:
	.loc 1 1135 0
	movq	-72(%rbp), %rax	# tp, tmp149
	movq	(%rax), %rax	# *tp_1, D.13974
	testq	%rax, %rax	# D.13974
	jne	.L143	#,
	.loc 1 1136 0
	movl	$0, %eax	#, D.13973
	jmp	.L191	#
.L143:
	.loc 1 1138 0
	cmpq	$0, -24(%rbp)	#, htab
	je	.L145	#,
.LBB21:
	.loc 1 1144 0
	movq	-72(%rbp), %rax	# tp, tmp150
	movq	(%rax), %rdx	# *tp_1, D.13974
	movq	-24(%rbp), %rax	# htab, tmp151
	movq	%rdx, %rsi	# D.13974,
	movq	%rax, %rdi	# tmp151,
	call	htab_find	#
	testq	%rax, %rax	# D.13975
	je	.L146	#,
	.loc 1 1145 0
	movl	$0, %eax	#, D.13973
	jmp	.L191	#
.L146:
	.loc 1 1147 0
	movq	-72(%rbp), %rax	# tp, tmp152
	movq	(%rax), %rcx	# *tp_1, D.13974
	movq	-24(%rbp), %rax	# htab, tmp153
	movl	$1, %edx	#,
	movq	%rcx, %rsi	# D.13974,
	movq	%rax, %rdi	# tmp153,
	call	htab_find_slot	#
	movq	%rax, -16(%rbp)	# tmp154, slot
	.loc 1 1148 0
	movq	-72(%rbp), %rax	# tp, tmp155
	movq	(%rax), %rdx	# *tp_1, D.13974
	movq	-16(%rbp), %rax	# slot, tmp156
	movq	%rdx, (%rax)	# D.13974, *slot_16
.L145:
.LBE21:
	.loc 1 1152 0
	movl	$1, -52(%rbp)	#, walk_subtrees
	.loc 1 1153 0
	movq	-88(%rbp), %rdx	# data, tmp157
	leaq	-52(%rbp), %rsi	#, tmp158
	movq	-72(%rbp), %rcx	# tp, tmp159
	movq	-80(%rbp), %rax	# func, tmp160
	movq	%rcx, %rdi	# tmp159,
	call	*%rax	# tmp160
	movq	%rax, -8(%rbp)	# tmp161, result
	.loc 1 1156 0
	cmpq	$0, -8(%rbp)	#, result
	je	.L147	#,
	.loc 1 1157 0
	movq	-8(%rbp), %rax	# result, D.13973
	jmp	.L191	#
.L147:
	.loc 1 1159 0
	movq	-72(%rbp), %rax	# tp, tmp162
	movq	(%rax), %rax	# *tp_1, D.13974
	movzbl	16(%rax), %eax	# _22->common.code, D.13976
	movzbl	%al, %eax	# D.13976, tmp163
	movl	%eax, -36(%rbp)	# tmp163, code
	.loc 1 1163 0
	movl	-52(%rbp), %eax	# walk_subtrees, walk_subtrees.44
	testl	%eax, %eax	# walk_subtrees.44
	jne	.L148	#,
	.loc 1 1165 0
	movl	-36(%rbp), %eax	# code, tmp164
	movl	%eax, %edi	# tmp164,
	call	statement_code_p	#
	testl	%eax, %eax	# D.13977
	jne	.L149	#,
	.loc 1 1165 0 is_stmt 0 discriminator 1
	cmpl	$2, -36(%rbp)	#, code
	je	.L149	#,
	.loc 1 1166 0 is_stmt 1
	movq	lang_hooks+184(%rip), %rax	# lang_hooks.tree_inlining.tree_chain_matters_p, D.13978
	movq	-72(%rbp), %rdx	# tp, tmp165
	movq	(%rdx), %rdx	# *tp_1, D.13974
	movq	%rdx, %rdi	# D.13974,
	call	*%rax	# D.13978
	testl	%eax, %eax	# D.13977
	je	.L150	#,
.L149:
	.loc 1 1168 0
	movq	-72(%rbp), %rax	# tp, tmp166
	movq	(%rax), %rax	# *tp_1, D.13974
	movq	%rax, -72(%rbp)	# D.13974, tp
	jmp	.L142	#
.L150:
	.loc 1 1170 0
	movl	$0, %eax	#, D.13973
	jmp	.L191	#
.L148:
	.loc 1 1174 0
	movl	-36(%rbp), %eax	# code, code.45
	cltq
	movzbl	tree_code_type(%rax), %eax	# tree_code_type, D.13979
	cmpb	$60, %al	#, D.13979
	je	.L151	#,
	.loc 1 1174 0 is_stmt 0 discriminator 1
	movl	-36(%rbp), %eax	# code, code.46
	cltq
	movzbl	tree_code_type(%rax), %eax	# tree_code_type, D.13979
	cmpb	$49, %al	#, D.13979
	je	.L151	#,
	movl	-36(%rbp), %eax	# code, code.47
	cltq
	movzbl	tree_code_type(%rax), %eax	# tree_code_type, D.13979
	cmpb	$50, %al	#, D.13979
	je	.L151	#,
	movl	-36(%rbp), %eax	# code, code.48
	cltq
	movzbl	tree_code_type(%rax), %eax	# tree_code_type, D.13979
	cmpb	$101, %al	#, D.13979
	je	.L151	#,
	.loc 1 1175 0 is_stmt 1
	movl	-36(%rbp), %eax	# code, code.49
	cltq
	movzbl	tree_code_type(%rax), %eax	# tree_code_type, D.13979
	cmpb	$114, %al	#, D.13979
	je	.L151	#,
	.loc 1 1176 0
	movl	-36(%rbp), %eax	# code, code.50
	cltq
	movzbl	tree_code_type(%rax), %eax	# tree_code_type, D.13979
	cmpb	$115, %al	#, D.13979
	jne	.L152	#,
.L151:
.LBB22:
	.loc 1 1182 0
	movl	-36(%rbp), %eax	# code, tmp173
	movl	%eax, %edi	# tmp173,
	call	statement_code_p	#
	testl	%eax, %eax	# D.13977
	je	.L153	#,
	.loc 1 1182 0 is_stmt 0 discriminator 1
	movq	-72(%rbp), %rax	# tp, tmp174
	movq	(%rax), %rax	# *tp_1, D.13974
	movzbl	19(%rax), %eax	# *_112, D.13976
	andl	$4, %eax	#, D.13976
	testb	%al, %al	# D.13976
	jne	.L153	#,
	.loc 1 1183 0 is_stmt 1
	movq	-72(%rbp), %rax	# tp, tmp175
	movq	(%rax), %rax	# *tp_1, D.13974
	movl	24(%rax), %eax	# _115->exp.complexity, lineno.51
	movl	%eax, lineno(%rip)	# lineno.51, lineno
.L153:
	.loc 1 1186 0
	movl	-36(%rbp), %eax	# code, tmp176
	movl	%eax, %edi	# tmp176,
	call	first_rtl_op	#
	movl	%eax, -44(%rbp)	# tmp177, len
	.loc 1 1189 0
	cmpl	$50, -36(%rbp)	#, code
	jne	.L154	#,
	.loc 1 1190 0
	movq	-72(%rbp), %rax	# tp, tmp178
	movq	(%rax), %rax	# *tp_1, D.13974
	movq	56(%rax), %rdx	# _118->exp.operands, D.13974
	movq	-72(%rbp), %rax	# tp, tmp179
	movq	(%rax), %rax	# *tp_1, D.13974
	movq	40(%rax), %rax	# _120->exp.operands, D.13974
	cmpq	%rax, %rdx	# D.13974, D.13974
	jne	.L154	#,
	.loc 1 1191 0
	subl	$1, -44(%rbp)	#, len
.L154:
	.loc 1 1194 0
	movl	$0, -48(%rbp)	#, i
	jmp	.L155	#
.L157:
	.loc 1 1195 0
	movq	-72(%rbp), %rax	# tp, tmp180
	movq	(%rax), %rax	# *tp_1, D.13974
	movl	-48(%rbp), %edx	# i, tmp182
	movslq	%edx, %rdx	# tmp182, tmp181
	addq	$4, %rdx	#, tmp183
	salq	$3, %rdx	#, tmp184
	leaq	(%rax,%rdx), %rdi	#, D.13981
	movq	-24(%rbp), %rcx	# htab, tmp185
	movq	-88(%rbp), %rdx	# data, tmp186
	movq	-80(%rbp), %rax	# func, tmp187
	movq	%rax, %rsi	# tmp187,
	call	walk_tree	#
	movq	%rax, -8(%rbp)	# tmp188, result
	cmpq	$0, -8(%rbp)	#, result
	je	.L156	#,
	.loc 1 1195 0 is_stmt 0 discriminator 1
	movq	-8(%rbp), %rax	# result, D.13973
	jmp	.L191	#
.L156:
	.loc 1 1194 0 is_stmt 1
	addl	$1, -48(%rbp)	#, i
.L155:
	.loc 1 1194 0 is_stmt 0 discriminator 1
	movl	-48(%rbp), %eax	# i, tmp189
	cmpl	-44(%rbp), %eax	# len, tmp189
	jl	.L157	#,
	.loc 1 1199 0 is_stmt 1
	movl	-36(%rbp), %eax	# code, tmp190
	movl	%eax, %edi	# tmp190,
	call	statement_code_p	#
	testl	%eax, %eax	# D.13977
	je	.L158	#,
	.loc 1 1201 0
	cmpl	$154, -36(%rbp)	#, code
	jne	.L159	#,
	.loc 1 1202 0
	movq	-72(%rbp), %rax	# tp, tmp191
	movq	(%rax), %rax	# *tp_1, D.13974
	movq	32(%rax), %rax	# _130->exp.operands, D.13974
	testq	%rax, %rax	# D.13974
	je	.L159	#,
	.loc 1 1203 0
	movq	-72(%rbp), %rax	# tp, tmp192
	movq	(%rax), %rax	# *tp_1, D.13974
	movq	32(%rax), %rax	# _132->exp.operands, D.13974
	movzbl	16(%rax), %eax	# _133->common.code, D.13976
	movzbl	%al, %eax	# D.13976, D.13977
	cltq
	movzbl	tree_code_type(%rax), %eax	# tree_code_type, D.13979
	cmpb	$100, %al	#, D.13979
	jne	.L159	#,
	.loc 1 1210 0
	movq	-72(%rbp), %rax	# tp, tmp194
	movq	(%rax), %rax	# *tp_1, D.13974
	movq	32(%rax), %rax	# _137->exp.operands, D.13974
	leaq	104(%rax), %rdi	#, D.13981
	movq	-24(%rbp), %rcx	# htab, tmp195
	movq	-88(%rbp), %rdx	# data, tmp196
	movq	-80(%rbp), %rax	# func, tmp197
	movq	%rax, %rsi	# tmp197,
	call	walk_tree	#
	movq	%rax, -8(%rbp)	# tmp198, result
	cmpq	$0, -8(%rbp)	#, result
	je	.L160	#,
	.loc 1 1210 0 is_stmt 0 discriminator 1
	movq	-8(%rbp), %rax	# result, D.13973
	jmp	.L191	#
.L160:
	.loc 1 1211 0 is_stmt 1
	movq	-72(%rbp), %rax	# tp, tmp199
	movq	(%rax), %rax	# *tp_1, D.13974
	movq	32(%rax), %rax	# _142->exp.operands, D.13974
	leaq	40(%rax), %rdi	#, D.13981
	movq	-24(%rbp), %rcx	# htab, tmp200
	movq	-88(%rbp), %rdx	# data, tmp201
	movq	-80(%rbp), %rax	# func, tmp202
	movq	%rax, %rsi	# tmp202,
	call	walk_tree	#
	movq	%rax, -8(%rbp)	# tmp203, result
	cmpq	$0, -8(%rbp)	#, result
	je	.L161	#,
	.loc 1 1211 0 is_stmt 0 discriminator 1
	movq	-8(%rbp), %rax	# result, D.13973
	jmp	.L191	#
.L161:
	.loc 1 1212 0 is_stmt 1
	movq	-72(%rbp), %rax	# tp, tmp204
	movq	(%rax), %rax	# *tp_1, D.13974
	movq	32(%rax), %rax	# _147->exp.operands, D.13974
	leaq	64(%rax), %rdi	#, D.13981
	movq	-24(%rbp), %rcx	# htab, tmp205
	movq	-88(%rbp), %rdx	# data, tmp206
	movq	-80(%rbp), %rax	# func, tmp207
	movq	%rax, %rsi	# tmp207,
	call	walk_tree	#
	movq	%rax, -8(%rbp)	# tmp208, result
	cmpq	$0, -8(%rbp)	#, result
	je	.L159	#,
	.loc 1 1212 0 is_stmt 0 discriminator 1
	movq	-8(%rbp), %rax	# result, D.13973
	jmp	.L191	#
.L159:
	.loc 1 1216 0 is_stmt 1
	movq	-72(%rbp), %rax	# tp, tmp209
	movq	(%rax), %rax	# *tp_1, D.13974
	movq	%rax, -72(%rbp)	# D.13974, tp
	jmp	.L142	#
.L158:
	.loc 1 1220 0
	movl	$0, %eax	#, D.13973
	jmp	.L191	#
.L152:
.LBE22:
	.loc 1 1222 0
	movl	-36(%rbp), %eax	# code, code.52
	cltq
	movzbl	tree_code_type(%rax), %eax	# tree_code_type, D.13979
	cmpb	$100, %al	#, D.13979
	jne	.L162	#,
	.loc 1 1224 0
	movq	-72(%rbp), %rax	# tp, tmp211
	movq	(%rax), %rax	# *tp_1, D.13974
	addq	$8, %rax	#, tmp212
	movq	%rax, -72(%rbp)	# tmp212, tp
	jmp	.L142	#
.L162:
	.loc 1 1227 0
	movq	lang_hooks+152(%rip), %rax	# lang_hooks.tree_inlining.walk_subtrees, D.13980
	movq	-24(%rbp), %r8	# htab, tmp213
	movq	-88(%rbp), %rcx	# data, tmp214
	movq	-80(%rbp), %rdx	# func, tmp215
	leaq	-52(%rbp), %rsi	#, tmp216
	movq	-72(%rbp), %rdi	# tp, tmp217
	call	*%rax	# D.13980
	movq	%rax, -8(%rbp)	# tmp218, result
	.loc 1 1229 0
	cmpq	$0, -8(%rbp)	#, result
	jne	.L163	#,
	.loc 1 1229 0 is_stmt 0 discriminator 1
	movl	-52(%rbp), %eax	# walk_subtrees, walk_subtrees.53
	testl	%eax, %eax	# walk_subtrees.53
	jne	.L164	#,
.L163:
	.loc 1 1230 0 is_stmt 1
	movq	-8(%rbp), %rax	# result, D.13973
	jmp	.L191	#
.L164:
	.loc 1 1234 0
	cmpl	$46, -36(%rbp)	#, code
	ja	.L165	#,
	movl	-36(%rbp), %eax	# code, tmp219
	movq	.L167(,%rax,8), %rax	#, tmp220
	jmp	*%rax	# tmp220
	.section	.rodata
	.align 8
	.align 4
.L167:
	.quad	.L192
	.quad	.L192
	.quad	.L168
	.quad	.L169
	.quad	.L192
	.quad	.L192
	.quad	.L170
	.quad	.L192
	.quad	.L192
	.quad	.L192
	.quad	.L192
	.quad	.L192
	.quad	.L165
	.quad	.L171
	.quad	.L172
	.quad	.L171
	.quad	.L173
	.quad	.L165
	.quad	.L174
	.quad	.L165
	.quad	.L192
	.quad	.L192
	.quad	.L165
	.quad	.L175
	.quad	.L165
	.quad	.L192
	.quad	.L192
	.quad	.L176
	.quad	.L192
	.quad	.L192
	.quad	.L165
	.quad	.L165
	.quad	.L165
	.quad	.L165
	.quad	.L165
	.quad	.L165
	.quad	.L165
	.quad	.L165
	.quad	.L165
	.quad	.L165
	.quad	.L165
	.quad	.L165
	.quad	.L165
	.quad	.L165
	.quad	.L165
	.quad	.L165
	.quad	.L177
	.text
.L171:
	.loc 1 1257 0
	movq	-72(%rbp), %rax	# tp, tmp221
	movq	(%rax), %rax	# *tp_1, D.13974
	addq	$8, %rax	#, tmp222
	movq	%rax, -72(%rbp)	# tmp222, tp
	jmp	.L142	#
.L168:
	.loc 1 1261 0
	movq	-72(%rbp), %rax	# tp, tmp223
	movq	(%rax), %rax	# *tp_1, D.13974
	leaq	32(%rax), %rdi	#, D.13981
	movq	-24(%rbp), %rcx	# htab, tmp224
	movq	-88(%rbp), %rdx	# data, tmp225
	movq	-80(%rbp), %rax	# func, tmp226
	movq	%rax, %rsi	# tmp226,
	call	walk_tree	#
	movq	%rax, -8(%rbp)	# tmp227, result
	cmpq	$0, -8(%rbp)	#, result
	je	.L179	#,
	.loc 1 1261 0 is_stmt 0 discriminator 1
	movq	-8(%rbp), %rax	# result, D.13973
	jmp	.L191	#
.L179:
	.loc 1 1262 0 is_stmt 1
	movq	-72(%rbp), %rax	# tp, tmp228
	movq	(%rax), %rax	# *tp_1, D.13974
	movq	%rax, -72(%rbp)	# D.13974, tp
	jmp	.L142	#
.L169:
.LBB23:
	.loc 1 1267 0
	movq	-72(%rbp), %rax	# tp, tmp229
	movq	(%rax), %rax	# *tp_1, D.13974
	movl	24(%rax), %eax	# _60->vec.length, tmp230
	movl	%eax, -40(%rbp)	# tmp230, len
	.loc 1 1269 0
	cmpl	$0, -40(%rbp)	#, len
	jne	.L180	#,
	.loc 1 1270 0
	jmp	.L178	#
.L180:
	.loc 1 1273 0
	jmp	.L181	#
.L182:
	.loc 1 1274 0
	movq	-72(%rbp), %rax	# tp, tmp231
	movq	(%rax), %rax	# *tp_1, D.13974
	movl	-40(%rbp), %edx	# len, tmp233
	movslq	%edx, %rdx	# tmp233, tmp232
	addq	$4, %rdx	#, tmp234
	salq	$3, %rdx	#, tmp235
	leaq	(%rax,%rdx), %rdi	#, D.13981
	movq	-24(%rbp), %rcx	# htab, tmp236
	movq	-88(%rbp), %rdx	# data, tmp237
	movq	-80(%rbp), %rax	# func, tmp238
	movq	%rax, %rsi	# tmp238,
	call	walk_tree	#
	movq	%rax, -8(%rbp)	# tmp239, result
	cmpq	$0, -8(%rbp)	#, result
	je	.L181	#,
	.loc 1 1274 0 is_stmt 0 discriminator 1
	movq	-8(%rbp), %rax	# result, D.13973
	jmp	.L191	#
.L181:
	.loc 1 1273 0 is_stmt 1 discriminator 1
	subl	$1, -40(%rbp)	#, len
	cmpl	$0, -40(%rbp)	#, len
	jne	.L182	#,
	.loc 1 1277 0
	movq	-72(%rbp), %rax	# tp, tmp240
	movq	(%rax), %rax	# *tp_1, D.13974
	addq	$32, %rax	#, tmp241
	movq	%rax, -72(%rbp)	# tmp241, tp
	jmp	.L142	#
.L176:
.LBE23:
	.loc 1 1281 0
	movq	-72(%rbp), %rax	# tp, tmp242
	movq	(%rax), %rax	# *tp_1, D.13974
	leaq	32(%rax), %rdi	#, D.13981
	movq	-24(%rbp), %rcx	# htab, tmp243
	movq	-88(%rbp), %rdx	# data, tmp244
	movq	-80(%rbp), %rax	# func, tmp245
	movq	%rax, %rsi	# tmp245,
	call	walk_tree	#
	movq	%rax, -8(%rbp)	# tmp246, result
	cmpq	$0, -8(%rbp)	#, result
	je	.L183	#,
	.loc 1 1281 0 is_stmt 0 discriminator 1
	movq	-8(%rbp), %rax	# result, D.13973
	jmp	.L191	#
.L183:
	.loc 1 1282 0 is_stmt 1
	movq	-72(%rbp), %rax	# tp, tmp247
	movq	(%rax), %rax	# *tp_1, D.13974
	addq	$40, %rax	#, tmp248
	movq	%rax, -72(%rbp)	# tmp248, tp
	jmp	.L142	#
.L177:
	.loc 1 1285 0
	movq	-72(%rbp), %rax	# tp, tmp249
	movq	(%rax), %rax	# *tp_1, D.13974
	addq	$40, %rax	#, tmp250
	movq	%rax, -72(%rbp)	# tmp250, tp
	jmp	.L142	#
.L173:
	.loc 1 1288 0
	movq	-72(%rbp), %rax	# tp, tmp251
	movq	(%rax), %rax	# *tp_1, D.13974
	leaq	112(%rax), %rdi	#, D.13981
	movq	-24(%rbp), %rcx	# htab, tmp252
	movq	-88(%rbp), %rdx	# data, tmp253
	movq	-80(%rbp), %rax	# func, tmp254
	movq	%rax, %rsi	# tmp254,
	call	walk_tree	#
	movq	%rax, -8(%rbp)	# tmp255, result
	cmpq	$0, -8(%rbp)	#, result
	je	.L175	#,
	.loc 1 1288 0 is_stmt 0 discriminator 1
	movq	-8(%rbp), %rax	# result, D.13973
	jmp	.L191	#
.L175:
	.loc 1 1292 0 is_stmt 1
	movq	-72(%rbp), %rax	# tp, tmp256
	movq	(%rax), %rax	# *tp_1, D.13974
	leaq	8(%rax), %rdi	#, D.13981
	movq	-24(%rbp), %rcx	# htab, tmp257
	movq	-88(%rbp), %rdx	# data, tmp258
	movq	-80(%rbp), %rax	# func, tmp259
	movq	%rax, %rsi	# tmp259,
	call	walk_tree	#
	movq	%rax, -8(%rbp)	# tmp260, result
	cmpq	$0, -8(%rbp)	#, result
	je	.L184	#,
	.loc 1 1292 0 is_stmt 0 discriminator 1
	movq	-8(%rbp), %rax	# result, D.13973
	jmp	.L191	#
.L184:
.LBB24:
	.loc 1 1294 0 is_stmt 1
	movq	-72(%rbp), %rax	# tp, tmp261
	movq	(%rax), %rax	# *tp_1, D.13974
	movq	24(%rax), %rax	# _85->type.values, tmp262
	movq	%rax, -32(%rbp)	# tmp262, arg
	.loc 1 1297 0
	jmp	.L185	#
.L187:
	.loc 1 1298 0
	movq	-32(%rbp), %rax	# arg, tmp263
	leaq	32(%rax), %rdi	#, D.13981
	movq	-24(%rbp), %rcx	# htab, tmp264
	movq	-88(%rbp), %rdx	# data, tmp265
	movq	-80(%rbp), %rax	# func, tmp266
	movq	%rax, %rsi	# tmp266,
	call	walk_tree	#
	movq	%rax, -8(%rbp)	# tmp267, result
	cmpq	$0, -8(%rbp)	#, result
	je	.L186	#,
	.loc 1 1298 0 is_stmt 0 discriminator 1
	movq	-8(%rbp), %rax	# result, D.13973
	jmp	.L191	#
.L186:
	.loc 1 1297 0 is_stmt 1
	movq	-32(%rbp), %rax	# arg, tmp268
	movq	(%rax), %rax	# arg_5->common.chain, tmp269
	movq	%rax, -32(%rbp)	# tmp269, arg
.L185:
	.loc 1 1297 0 is_stmt 0 discriminator 1
	cmpq	$0, -32(%rbp)	#, arg
	jne	.L187	#,
.LBE24:
	.loc 1 1300 0 is_stmt 1
	jmp	.L178	#
.L174:
	.loc 1 1303 0
	movq	-72(%rbp), %rax	# tp, tmp270
	movq	(%rax), %rax	# *tp_1, D.13974
	leaq	8(%rax), %rdi	#, D.13981
	movq	-24(%rbp), %rcx	# htab, tmp271
	movq	-88(%rbp), %rdx	# data, tmp272
	movq	-80(%rbp), %rax	# func, tmp273
	movq	%rax, %rsi	# tmp273,
	call	walk_tree	#
	movq	%rax, -8(%rbp)	# tmp274, result
	cmpq	$0, -8(%rbp)	#, result
	je	.L188	#,
	.loc 1 1303 0 is_stmt 0 discriminator 1
	movq	-8(%rbp), %rax	# result, D.13973
	jmp	.L191	#
.L188:
	.loc 1 1304 0 is_stmt 1
	movq	-72(%rbp), %rax	# tp, tmp275
	movq	(%rax), %rax	# *tp_1, D.13974
	addq	$24, %rax	#, tmp276
	movq	%rax, -72(%rbp)	# tmp276, tp
	jmp	.L142	#
.L170:
	.loc 1 1307 0
	movq	-72(%rbp), %rax	# tp, tmp277
	movq	(%rax), %rax	# *tp_1, D.13974
	leaq	104(%rax), %rdi	#, D.13981
	movq	-24(%rbp), %rcx	# htab, tmp278
	movq	-88(%rbp), %rdx	# data, tmp279
	movq	-80(%rbp), %rax	# func, tmp280
	movq	%rax, %rsi	# tmp280,
	call	walk_tree	#
	movq	%rax, -8(%rbp)	# tmp281, result
	cmpq	$0, -8(%rbp)	#, result
	je	.L189	#,
	.loc 1 1307 0 is_stmt 0 discriminator 1
	movq	-8(%rbp), %rax	# result, D.13973
	jmp	.L191	#
.L189:
	.loc 1 1308 0 is_stmt 1
	movq	-72(%rbp), %rax	# tp, tmp282
	movq	(%rax), %rax	# *tp_1, D.13974
	addq	$112, %rax	#, tmp283
	movq	%rax, -72(%rbp)	# tmp283, tp
	jmp	.L142	#
.L172:
	.loc 1 1311 0
	movq	-72(%rbp), %rax	# tp, tmp284
	movq	(%rax), %rax	# *tp_1, D.13974
	leaq	8(%rax), %rdi	#, D.13981
	movq	-24(%rbp), %rcx	# htab, tmp285
	movq	-88(%rbp), %rdx	# data, tmp286
	movq	-80(%rbp), %rax	# func, tmp287
	movq	%rax, %rsi	# tmp287,
	call	walk_tree	#
	movq	%rax, -8(%rbp)	# tmp288, result
	cmpq	$0, -8(%rbp)	#, result
	je	.L190	#,
	.loc 1 1311 0 is_stmt 0 discriminator 1
	movq	-8(%rbp), %rax	# result, D.13973
	jmp	.L191	#
.L190:
	.loc 1 1312 0 is_stmt 1
	movq	-72(%rbp), %rax	# tp, tmp289
	movq	(%rax), %rax	# *tp_1, D.13974
	addq	$112, %rax	#, tmp290
	movq	%rax, -72(%rbp)	# tmp290, tp
	jmp	.L142	#
.L165:
	.loc 1 1315 0
	movl	$__FUNCTION__.12853, %edx	#,
	movl	$1315, %esi	#,
	movl	$.LC0, %edi	#,
	call	fancy_abort	#
.L192:
	.loc 1 1253 0
	nop
.L178:
	.loc 1 1319 0
	movl	$0, %eax	#, D.13973
.L191:
	.loc 1 1322 0
	leave
	.cfi_def_cfa 7, 8
	ret
	.cfi_endproc
.LFE15:
	.size	walk_tree, .-walk_tree
	.globl	walk_tree_without_duplicates
	.type	walk_tree_without_duplicates, @function
walk_tree_without_duplicates:
.LFB16:
	.loc 1 1332 0
	.cfi_startproc
	pushq	%rbp	#
	.cfi_def_cfa_offset 16
	.cfi_offset 6, -16
	movq	%rsp, %rbp	#,
	.cfi_def_cfa_register 6
	subq	$48, %rsp	#,
	movq	%rdi, -24(%rbp)	# tp, tp
	movq	%rsi, -32(%rbp)	# func, func
	movq	%rdx, -40(%rbp)	# data, data
	.loc 1 1336 0
	movq	htab_eq_pointer(%rip), %rdx	# htab_eq_pointer, htab_eq_pointer.54
	movq	htab_hash_pointer(%rip), %rax	# htab_hash_pointer, htab_hash_pointer.55
	movl	$0, %ecx	#,
	movq	%rax, %rsi	# htab_hash_pointer.55,
	movl	$37, %edi	#,
	call	htab_create	#
	movq	%rax, -16(%rbp)	# tmp63, htab
	.loc 1 1337 0
	movq	-16(%rbp), %rcx	# htab, tmp64
	movq	-40(%rbp), %rdx	# data, tmp65
	movq	-32(%rbp), %rsi	# func, tmp66
	movq	-24(%rbp), %rax	# tp, tmp67
	movq	%rax, %rdi	# tmp67,
	call	walk_tree	#
	movq	%rax, -8(%rbp)	# tmp68, result
	.loc 1 1338 0
	movq	-16(%rbp), %rax	# htab, tmp69
	movq	%rax, %rdi	# tmp69,
	call	htab_delete	#
	.loc 1 1339 0
	movq	-8(%rbp), %rax	# result, D.13982
	.loc 1 1340 0
	leave
	.cfi_def_cfa 7, 8
	ret
	.cfi_endproc
.LFE16:
	.size	walk_tree_without_duplicates, .-walk_tree_without_duplicates
	.globl	copy_tree_r
	.type	copy_tree_r, @function
copy_tree_r:
.LFB17:
	.loc 1 1349 0
	.cfi_startproc
	pushq	%rbp	#
	.cfi_def_cfa_offset 16
	.cfi_offset 6, -16
	movq	%rsp, %rbp	#,
	.cfi_def_cfa_register 6
	subq	$48, %rsp	#,
	movq	%rdi, -24(%rbp)	# tp, tp
	movq	%rsi, -32(%rbp)	# walk_subtrees, walk_subtrees
	movq	%rdx, -40(%rbp)	# data, data
	.loc 1 1350 0
	movq	-24(%rbp), %rax	# tp, tmp93
	movq	(%rax), %rax	# *tp_1(D), D.13983
	movzbl	16(%rax), %eax	# _2->common.code, D.13984
	movzbl	%al, %eax	# D.13984, tmp94
	movl	%eax, -12(%rbp)	# tmp94, code
	.loc 1 1353 0
	movl	-12(%rbp), %eax	# code, code.56
	cltq
	movzbl	tree_code_type(%rax), %eax	# tree_code_type, D.13985
	cmpb	$60, %al	#, D.13985
	je	.L196	#,
	.loc 1 1353 0 is_stmt 0 discriminator 1
	movl	-12(%rbp), %eax	# code, code.57
	cltq
	movzbl	tree_code_type(%rax), %eax	# tree_code_type, D.13985
	cmpb	$49, %al	#, D.13985
	je	.L196	#,
	movl	-12(%rbp), %eax	# code, code.58
	cltq
	movzbl	tree_code_type(%rax), %eax	# tree_code_type, D.13985
	cmpb	$50, %al	#, D.13985
	je	.L196	#,
	movl	-12(%rbp), %eax	# code, code.59
	cltq
	movzbl	tree_code_type(%rax), %eax	# tree_code_type, D.13985
	cmpb	$101, %al	#, D.13985
	je	.L196	#,
	.loc 1 1354 0 is_stmt 1
	movl	-12(%rbp), %eax	# code, code.60
	cltq
	movzbl	tree_code_type(%rax), %eax	# tree_code_type, D.13985
	cmpb	$114, %al	#, D.13985
	je	.L196	#,
	.loc 1 1355 0
	movl	-12(%rbp), %eax	# code, code.61
	cltq
	movzbl	tree_code_type(%rax), %eax	# tree_code_type, D.13985
	cmpb	$99, %al	#, D.13985
	je	.L196	#,
	.loc 1 1356 0
	movl	-12(%rbp), %eax	# code, code.62
	cltq
	movzbl	tree_code_type(%rax), %eax	# tree_code_type, D.13985
	cmpb	$115, %al	#, D.13985
	je	.L196	#,
	.loc 1 1357 0
	cmpl	$2, -12(%rbp)	#, code
	je	.L196	#,
	.loc 1 1358 0
	cmpl	$3, -12(%rbp)	#, code
	je	.L196	#,
	.loc 1 1359 0
	movq	lang_hooks+184(%rip), %rax	# lang_hooks.tree_inlining.tree_chain_matters_p, D.13986
	movq	-24(%rbp), %rdx	# tp, tmp102
	movq	(%rdx), %rdx	# *tp_1(D), D.13983
	movq	%rdx, %rdi	# D.13983,
	call	*%rax	# D.13986
	testl	%eax, %eax	# D.13987
	je	.L197	#,
.L196:
.LBB25:
	.loc 1 1363 0
	movq	-24(%rbp), %rax	# tp, tmp103
	movq	(%rax), %rax	# *tp_1(D), D.13983
	movq	(%rax), %rax	# _25->common.chain, tmp104
	movq	%rax, -8(%rbp)	# tmp104, chain
	.loc 1 1366 0
	movq	-24(%rbp), %rax	# tp, tmp105
	movq	(%rax), %rax	# *tp_1(D), D.13983
	movq	%rax, %rdi	# D.13983,
	call	copy_node	#
	movq	-24(%rbp), %rdx	# tp, tmp106
	movq	%rax, (%rdx)	# D.13983, *tp_1(D)
	.loc 1 1370 0
	cmpl	$35, -12(%rbp)	#, code
	je	.L198	#,
	.loc 1 1370 0 is_stmt 0 discriminator 1
	cmpl	$2, -12(%rbp)	#, code
	je	.L198	#,
	.loc 1 1371 0 is_stmt 1
	movq	lang_hooks+184(%rip), %rax	# lang_hooks.tree_inlining.tree_chain_matters_p, D.13986
	movq	-24(%rbp), %rdx	# tp, tmp107
	movq	(%rdx), %rdx	# *tp_1(D), D.13983
	movq	%rdx, %rdi	# D.13983,
	call	*%rax	# D.13986
	testl	%eax, %eax	# D.13987
	jne	.L198	#,
	.loc 1 1372 0
	movl	-12(%rbp), %eax	# code, tmp108
	movl	%eax, %edi	# tmp108,
	call	statement_code_p	#
	testl	%eax, %eax	# D.13987
	je	.L199	#,
.L198:
	.loc 1 1373 0
	movq	-24(%rbp), %rax	# tp, tmp109
	movq	(%rax), %rax	# *tp_1(D), D.13983
	movq	-8(%rbp), %rdx	# chain, tmp110
	movq	%rdx, (%rax)	# tmp110, _33->common.chain
.L199:
	.loc 1 1377 0
	movq	-24(%rbp), %rax	# tp, tmp111
	movq	(%rax), %rax	# *tp_1(D), D.13983
	movzbl	16(%rax), %eax	# _34->common.code, D.13984
	cmpb	$-90, %al	#, D.13984
	jne	.L200	#,
	.loc 1 1378 0
	movq	-24(%rbp), %rax	# tp, tmp112
	movq	(%rax), %rax	# *tp_1(D), D.13983
	movq	$0, 32(%rax)	#, _36->exp.operands
.LBE25:
	.loc 1 1360 0
	jmp	.L201	#
.L200:
	jmp	.L201	#
.L197:
	.loc 1 1380 0
	movl	-12(%rbp), %eax	# code, code.63
	cltq
	movzbl	tree_code_type(%rax), %eax	# tree_code_type, D.13985
	cmpb	$116, %al	#, D.13985
	jne	.L201	#,
	.loc 1 1382 0
	movq	-32(%rbp), %rax	# walk_subtrees, tmp114
	movl	$0, (%rax)	#, *walk_subtrees_24(D)
.L201:
	.loc 1 1384 0
	movl	$0, %eax	#, D.13988
	.loc 1 1385 0
	leave
	.cfi_def_cfa 7, 8
	ret
	.cfi_endproc
.LFE17:
	.size	copy_tree_r, .-copy_tree_r
	.globl	remap_save_expr
	.type	remap_save_expr, @function
remap_save_expr:
.LFB18:
	.loc 1 1398 0
	.cfi_startproc
	pushq	%rbp	#
	.cfi_def_cfa_offset 16
	.cfi_offset 6, -16
	movq	%rsp, %rbp	#,
	.cfi_def_cfa_register 6
	subq	$64, %rsp	#,
	movq	%rdi, -40(%rbp)	# tp, tp
	movq	%rsi, -48(%rbp)	# st_, st_
	movq	%rdx, -56(%rbp)	# fn, fn
	movq	%rcx, -64(%rbp)	# walk_subtrees, walk_subtrees
	.loc 1 1399 0
	movq	-48(%rbp), %rax	# st_, tmp71
	movq	%rax, -16(%rbp)	# tmp71, st
	.loc 1 1403 0
	movq	-40(%rbp), %rax	# tp, tmp72
	movq	(%rax), %rax	# *tp_4(D), D.13989
	movq	%rax, %rdx	# D.13989, D.13990
	movq	-16(%rbp), %rax	# st, tmp73
	movq	%rdx, %rsi	# D.13990,
	movq	%rax, %rdi	# tmp73,
	call	splay_tree_lookup	#
	movq	%rax, -24(%rbp)	# tmp74, n
	.loc 1 1406 0
	cmpq	$0, -24(%rbp)	#, n
	jne	.L204	#,
.LBB26:
	.loc 1 1408 0
	movq	-40(%rbp), %rax	# tp, tmp75
	movq	(%rax), %rax	# *tp_4(D), D.13989
	movq	%rax, %rdi	# D.13989,
	call	copy_node	#
	movq	%rax, -8(%rbp)	# tmp76, t
	.loc 1 1412 0
	movq	-8(%rbp), %rax	# t, tmp77
	movq	-56(%rbp), %rdx	# fn, tmp78
	movq	%rdx, 40(%rax)	# tmp78, t_9->exp.operands
	.loc 1 1414 0
	movq	-8(%rbp), %rax	# t, tmp79
	addq	$48, %rax	#, D.13991
	movq	$0, (%rax)	#, MEM[(struct rtx_def * *)_11]
	.loc 1 1416 0
	movq	-8(%rbp), %rdx	# t, t.64
	.loc 1 1417 0
	movq	-40(%rbp), %rax	# tp, tmp80
	movq	(%rax), %rax	# *tp_4(D), D.13989
	.loc 1 1416 0
	movq	%rax, %rcx	# D.13989, D.13990
	movq	-16(%rbp), %rax	# st, tmp81
	movq	%rcx, %rsi	# D.13990,
	movq	%rax, %rdi	# tmp81,
	call	splay_tree_insert	#
	movq	%rax, -24(%rbp)	# tmp82, n
	.loc 1 1421 0
	movq	global_trees(%rip), %rax	# global_trees, D.13989
	.loc 1 1420 0
	movq	%rax, %rdx	# D.13989, D.13990
	movq	-8(%rbp), %rcx	# t, t.65
	movq	-16(%rbp), %rax	# st, tmp83
	movq	%rcx, %rsi	# t.65,
	movq	%rax, %rdi	# tmp83,
	call	splay_tree_insert	#
.LBE26:
	jmp	.L205	#
.L204:
	.loc 1 1426 0
	movq	-64(%rbp), %rax	# walk_subtrees, tmp84
	movl	$0, (%rax)	#, *walk_subtrees_19(D)
.L205:
	.loc 1 1429 0
	movq	-24(%rbp), %rax	# n, tmp85
	movq	8(%rax), %rax	# n_1->value, D.13990
	movq	%rax, %rdx	# D.13990, D.13989
	movq	-40(%rbp), %rax	# tp, tmp86
	movq	%rdx, (%rax)	# D.13989, *tp_4(D)
	.loc 1 1430 0
	leave
	.cfi_def_cfa 7, 8
	ret
	.cfi_endproc
.LFE18:
	.size	remap_save_expr, .-remap_save_expr
	.section	.rodata
	.type	__FUNCTION__.12657, @object
	.size	__FUNCTION__.12657, 11
__FUNCTION__.12657:
	.string	"remap_decl"
	.type	__FUNCTION__.12676, @object
	.size	__FUNCTION__.12676, 12
__FUNCTION__.12676:
	.string	"remap_block"
	.type	__FUNCTION__.12693, @object
	.size	__FUNCTION__.12693, 12
__FUNCTION__.12693:
	.string	"copy_body_r"
	.align 16
	.type	__FUNCTION__.12780, @object
	.size	__FUNCTION__.12780, 19
__FUNCTION__.12780:
	.string	"expand_call_inline"
	.type	__FUNCTION__.12853, @object
	.size	__FUNCTION__.12853, 10
__FUNCTION__.12853:
	.string	"walk_tree"
	.text
.Letext0:
	.file 2 "rtl.h"
	.file 3 "config.h"
	.file 4 "tree.h"
	.file 5 "/usr/lib/gcc/x86_64-linux-gnu/4.8/include/stddef.h"
	.file 6 "/usr/include/x86_64-linux-gnu/bits/types.h"
	.file 7 "/usr/include/stdio.h"
	.file 8 "/usr/include/libio.h"
	.file 9 "machmode.h"
	.file 10 "real.h"
	.file 11 "hashtable.h"
	.file 12 "params.h"
	.file 13 "varray.h"
	.file 14 "hashtab.h"
	.file 15 "splay-tree.h"
	.file 16 "langhooks.h"
	.file 17 "c-common.h"
	.file 18 "input.h"
	.section	.note.GNU-stack,"",@progbits
